; Listing generated by Microsoft (R) Optimizing Compiler Version 16.00.30319.01 

	TITLE	D:\Lost Saga For Developer\Youtube\Tutorial\Source\src\LSClient\ioUroborusWeapon.cpp
	.686P
	.XMM
	include listing.inc
	.model	flat

INCLUDELIB MSVCRT
INCLUDELIB OLDNAMES

PUBLIC	?_EEM_DS@?$deque@UD3DXVECTOR3@@V?$allocator@UD3DXVECTOR3@@@std@@@std@@2HB ; std::deque<D3DXVECTOR3,std::allocator<D3DXVECTOR3> >::_EEM_DS
PUBLIC	?m_ActionStopType@ioUroborusWeapon@@2W4ActionStopType@@A ; ioUroborusWeapon::m_ActionStopType
PUBLIC	?m_DieActionStopType@ioUroborusWeapon@@2W4ActionStopType@@A ; ioUroborusWeapon::m_DieActionStopType
_BSS	SEGMENT
?m_ActionStopType@ioUroborusWeapon@@2W4ActionStopType@@A DD 01H DUP (?) ; ioUroborusWeapon::m_ActionStopType
?m_DieActionStopType@ioUroborusWeapon@@2W4ActionStopType@@A DD 01H DUP (?) ; ioUroborusWeapon::m_DieActionStopType
_BSS	ENDS
;	COMDAT ?_EEM_DS@?$deque@UD3DXVECTOR3@@V?$allocator@UD3DXVECTOR3@@@std@@@std@@2HB
CONST	SEGMENT
?_EEM_DS@?$deque@UD3DXVECTOR3@@V?$allocator@UD3DXVECTOR3@@@std@@@std@@2HB DD 01H ; std::deque<D3DXVECTOR3,std::allocator<D3DXVECTOR3> >::_EEM_DS
CONST	ENDS
PUBLIC	?return1@@YAIXZ					; return1
; Function compile flags: /Ogsp
; File d:\lost saga for developer\youtube\tutorial\source\src\lsclient\stdafx.h
;	COMDAT ?return1@@YAIXZ
_TEXT	SEGMENT
?return1@@YAIXZ PROC					; return1, COMDAT

; 17   : 	__forceinline unsigned int return1() { __asm mov eax, 1 };

  00000	b8 01 00 00 00	 mov	 eax, 1
  00005	c3		 ret	 0
?return1@@YAIXZ ENDP					; return1
_TEXT	ENDS
PUBLIC	?return1000@@YAIXZ				; return1000
; Function compile flags: /Ogsp
;	COMDAT ?return1000@@YAIXZ
_TEXT	SEGMENT
?return1000@@YAIXZ PROC					; return1000, COMDAT

; 29   : 	__forceinline unsigned int return1000() { __asm mov eax, 1000 };

  00000	b8 e8 03 00 00	 mov	 eax, 1000		; 000003e8H
  00005	c3		 ret	 0
?return1000@@YAIXZ ENDP					; return1000
_TEXT	ENDS
PUBLIC	?GetState@ioBaseChar@@QBE?AW4CharState@@XZ	; ioBaseChar::GetState
; Function compile flags: /Ogsp
; File d:\lost saga for developer\youtube\tutorial\source\src\lsclient\iobasechar.h
;	COMDAT ?GetState@ioBaseChar@@QBE?AW4CharState@@XZ
_TEXT	SEGMENT
?GetState@ioBaseChar@@QBE?AW4CharState@@XZ PROC		; ioBaseChar::GetState, COMDAT
; _this$ = ecx

; 2156 : 	inline CharState GetState() const { return m_CharState; }	

  00000	8a 81 10 03 00
	00		 mov	 al, BYTE PTR [ecx+784]
  00006	c3		 ret	 0
?GetState@ioBaseChar@@QBE?AW4CharState@@XZ ENDP		; ioBaseChar::GetState
_TEXT	ENDS
PUBLIC	?GetCreator@ioBaseChar@@QAEPAVioPlayStage@@XZ	; ioBaseChar::GetCreator
; Function compile flags: /Ogsp
;	COMDAT ?GetCreator@ioBaseChar@@QAEPAVioPlayStage@@XZ
_TEXT	SEGMENT
?GetCreator@ioBaseChar@@QAEPAVioPlayStage@@XZ PROC	; ioBaseChar::GetCreator, COMDAT
; _this$ = ecx

; 4013 : 	inline ioPlayStage* GetCreator() { return m_pCreator; }

  00000	8b 81 44 03 00
	00		 mov	 eax, DWORD PTR [ecx+836]
  00006	c3		 ret	 0
?GetCreator@ioBaseChar@@QAEPAVioPlayStage@@XZ ENDP	; ioBaseChar::GetCreator
_TEXT	ENDS
PUBLIC	??0D3DXVECTOR3@@QAE@XZ				; D3DXVECTOR3::D3DXVECTOR3
; Function compile flags: /Ogsp
; File c:\program files (x86)\microsoft directx sdk (june 2010)\include\d3dx9math.h
;	COMDAT ??0D3DXVECTOR3@@QAE@XZ
_TEXT	SEGMENT
??0D3DXVECTOR3@@QAE@XZ PROC				; D3DXVECTOR3::D3DXVECTOR3, COMDAT
; _this$ = ecx

; 165  :     D3DXVECTOR3() {};

  00000	8b c1		 mov	 eax, ecx
  00002	c3		 ret	 0
??0D3DXVECTOR3@@QAE@XZ ENDP				; D3DXVECTOR3::D3DXVECTOR3
_TEXT	ENDS
PUBLIC	??0D3DXQUATERNION@@QAE@XZ			; D3DXQUATERNION::D3DXQUATERNION
; Function compile flags: /Ogsp
;	COMDAT ??0D3DXQUATERNION@@QAE@XZ
_TEXT	SEGMENT
??0D3DXQUATERNION@@QAE@XZ PROC				; D3DXQUATERNION::D3DXQUATERNION, COMDAT
; _this$ = ecx

; 429  :     D3DXQUATERNION() {}

  00000	8b c1		 mov	 eax, ecx
  00002	c3		 ret	 0
??0D3DXQUATERNION@@QAE@XZ ENDP				; D3DXQUATERNION::D3DXQUATERNION
_TEXT	ENDS
PUBLIC	??0D3DXVECTOR3@@QAE@MMM@Z			; D3DXVECTOR3::D3DXVECTOR3
EXTRN	__fltused:DWORD
; Function compile flags: /Ogsp
; File c:\program files (x86)\microsoft directx sdk (june 2010)\include\d3dx9math.inl
;	COMDAT ??0D3DXVECTOR3@@QAE@MMM@Z
_TEXT	SEGMENT
_fx$ = 8						; size = 4
_fy$ = 12						; size = 4
_fz$ = 16						; size = 4
??0D3DXVECTOR3@@QAE@MMM@Z PROC				; D3DXVECTOR3::D3DXVECTOR3, COMDAT
; _this$ = ecx

; 303  : {

  00000	55		 push	 ebp
  00001	8b ec		 mov	 ebp, esp

; 304  :     x = fx;

  00003	f3 0f 10 45 08	 movss	 xmm0, DWORD PTR _fx$[ebp]
  00008	8b c1		 mov	 eax, ecx
  0000a	f3 0f 11 00	 movss	 DWORD PTR [eax], xmm0

; 305  :     y = fy;

  0000e	f3 0f 10 45 0c	 movss	 xmm0, DWORD PTR _fy$[ebp]
  00013	f3 0f 11 40 04	 movss	 DWORD PTR [eax+4], xmm0

; 306  :     z = fz;

  00018	f3 0f 10 45 10	 movss	 xmm0, DWORD PTR _fz$[ebp]
  0001d	f3 0f 11 40 08	 movss	 DWORD PTR [eax+8], xmm0

; 307  : }

  00022	5d		 pop	 ebp
  00023	c2 0c 00	 ret	 12			; 0000000cH
??0D3DXVECTOR3@@QAE@MMM@Z ENDP				; D3DXVECTOR3::D3DXVECTOR3
_TEXT	ENDS
PUBLIC	??HD3DXVECTOR3@@QBE?AU0@ABU0@@Z			; D3DXVECTOR3::operator+
; Function compile flags: /Ogsp
;	COMDAT ??HD3DXVECTOR3@@QBE?AU0@ABU0@@Z
_TEXT	SEGMENT
___$ReturnUdt$ = 8					; size = 4
_v$ = 12						; size = 4
??HD3DXVECTOR3@@QBE?AU0@ABU0@@Z PROC			; D3DXVECTOR3::operator+, COMDAT
; _this$ = ecx

; 380  : {

  00000	55		 push	 ebp
  00001	8b ec		 mov	 ebp, esp

; 381  :     return D3DXVECTOR3(x + v.x, y + v.y, z + v.z);

  00003	8b 55 0c	 mov	 edx, DWORD PTR _v$[ebp]
  00006	f3 0f 10 02	 movss	 xmm0, DWORD PTR [edx]
  0000a	f3 0f 10 09	 movss	 xmm1, DWORD PTR [ecx]
  0000e	8b 45 08	 mov	 eax, DWORD PTR ___$ReturnUdt$[ebp]
  00011	0f 5a c0	 cvtps2pd xmm0, xmm0
  00014	0f 5a c9	 cvtps2pd xmm1, xmm1
  00017	f2 0f 58 c1	 addsd	 xmm0, xmm1
  0001b	f3 0f 10 49 04	 movss	 xmm1, DWORD PTR [ecx+4]
  00020	66 0f 5a c0	 cvtpd2ps xmm0, xmm0
  00024	f3 0f 11 00	 movss	 DWORD PTR [eax], xmm0
  00028	f3 0f 10 42 04	 movss	 xmm0, DWORD PTR [edx+4]
  0002d	0f 5a c0	 cvtps2pd xmm0, xmm0
  00030	0f 5a c9	 cvtps2pd xmm1, xmm1
  00033	f2 0f 58 c1	 addsd	 xmm0, xmm1
  00037	f3 0f 10 49 08	 movss	 xmm1, DWORD PTR [ecx+8]
  0003c	66 0f 5a c0	 cvtpd2ps xmm0, xmm0
  00040	f3 0f 11 40 04	 movss	 DWORD PTR [eax+4], xmm0
  00045	f3 0f 10 42 08	 movss	 xmm0, DWORD PTR [edx+8]
  0004a	0f 5a c0	 cvtps2pd xmm0, xmm0
  0004d	0f 5a c9	 cvtps2pd xmm1, xmm1
  00050	f2 0f 58 c1	 addsd	 xmm0, xmm1
  00054	66 0f 5a c0	 cvtpd2ps xmm0, xmm0
  00058	f3 0f 11 40 08	 movss	 DWORD PTR [eax+8], xmm0

; 382  : }

  0005d	5d		 pop	 ebp
  0005e	c2 08 00	 ret	 8
??HD3DXVECTOR3@@QBE?AU0@ABU0@@Z ENDP			; D3DXVECTOR3::operator+
_TEXT	ENDS
PUBLIC	??DD3DXVECTOR3@@QBE?AU0@M@Z			; D3DXVECTOR3::operator*
; Function compile flags: /Ogsp
;	COMDAT ??DD3DXVECTOR3@@QBE?AU0@M@Z
_TEXT	SEGMENT
___$ReturnUdt$ = 8					; size = 4
_f$ = 12						; size = 4
??DD3DXVECTOR3@@QBE?AU0@M@Z PROC			; D3DXVECTOR3::operator*, COMDAT
; _this$ = ecx

; 392  : {

  00000	55		 push	 ebp
  00001	8b ec		 mov	 ebp, esp

; 393  :     return D3DXVECTOR3(x * f, y * f, z * f);

  00003	f3 0f 10 4d 0c	 movss	 xmm1, DWORD PTR _f$[ebp]
  00008	f3 0f 10 01	 movss	 xmm0, DWORD PTR [ecx]
  0000c	8b 45 08	 mov	 eax, DWORD PTR ___$ReturnUdt$[ebp]
  0000f	0f 5a c0	 cvtps2pd xmm0, xmm0
  00012	0f 5a c9	 cvtps2pd xmm1, xmm1
  00015	f2 0f 59 c1	 mulsd	 xmm0, xmm1
  00019	f3 0f 10 4d 0c	 movss	 xmm1, DWORD PTR _f$[ebp]
  0001e	66 0f 5a c0	 cvtpd2ps xmm0, xmm0
  00022	f3 0f 11 00	 movss	 DWORD PTR [eax], xmm0
  00026	f3 0f 10 41 04	 movss	 xmm0, DWORD PTR [ecx+4]
  0002b	0f 5a c0	 cvtps2pd xmm0, xmm0
  0002e	0f 5a c9	 cvtps2pd xmm1, xmm1
  00031	f2 0f 59 c1	 mulsd	 xmm0, xmm1
  00035	f3 0f 10 4d 0c	 movss	 xmm1, DWORD PTR _f$[ebp]
  0003a	66 0f 5a c0	 cvtpd2ps xmm0, xmm0
  0003e	f3 0f 11 40 04	 movss	 DWORD PTR [eax+4], xmm0
  00043	f3 0f 10 41 08	 movss	 xmm0, DWORD PTR [ecx+8]
  00048	0f 5a c0	 cvtps2pd xmm0, xmm0
  0004b	0f 5a c9	 cvtps2pd xmm1, xmm1
  0004e	f2 0f 59 c1	 mulsd	 xmm0, xmm1
  00052	66 0f 5a c0	 cvtpd2ps xmm0, xmm0
  00056	f3 0f 11 40 08	 movss	 DWORD PTR [eax+8], xmm0

; 394  : }

  0005b	5d		 pop	 ebp
  0005c	c2 08 00	 ret	 8
??DD3DXVECTOR3@@QBE?AU0@M@Z ENDP			; D3DXVECTOR3::operator*
_TEXT	ENDS
PUBLIC	?GetCurState@ioPowerChargeDash@@QAEHXZ		; ioPowerChargeDash::GetCurState
; Function compile flags: /Ogsp
; File d:\lost saga for developer\youtube\tutorial\source\src\lsclient\iopowerchargedash.h
;	COMDAT ?GetCurState@ioPowerChargeDash@@QAEHXZ
_TEXT	SEGMENT
?GetCurState@ioPowerChargeDash@@QAEHXZ PROC		; ioPowerChargeDash::GetCurState, COMDAT
; _this$ = ecx

; 91   : 	int GetCurState() { return m_DashState; }

  00000	8b 41 4c	 mov	 eax, DWORD PTR [ecx+76]
  00003	c3		 ret	 0
?GetCurState@ioPowerChargeDash@@QAEHXZ ENDP		; ioPowerChargeDash::GetCurState
_TEXT	ENDS
PUBLIC	??_R0?AVioExtendDash@@@8			; ioExtendDash `RTTI Type Descriptor'
PUBLIC	??_R0?AVioPowerChargeDash@@@8			; ioPowerChargeDash `RTTI Type Descriptor'
PUBLIC	?ToPowerChargeDash@@YAPAVioPowerChargeDash@@PAVioExtendDash@@@Z ; ToPowerChargeDash
EXTRN	___RTDynamicCast:PROC
EXTRN	??_7type_info@@6B@:QWORD			; type_info::`vftable'
;	COMDAT ??_R0?AVioExtendDash@@@8
_DATA	SEGMENT
??_R0?AVioExtendDash@@@8 DD FLAT:??_7type_info@@6B@	; ioExtendDash `RTTI Type Descriptor'
	DD	00H
	DB	'.?AVioExtendDash@@', 00H
_DATA	ENDS
;	COMDAT ??_R0?AVioPowerChargeDash@@@8
_DATA	SEGMENT
??_R0?AVioPowerChargeDash@@@8 DD FLAT:??_7type_info@@6B@ ; ioPowerChargeDash `RTTI Type Descriptor'
	DD	00H
	DB	'.?AVioPowerChargeDash@@', 00H
; Function compile flags: /Ogsp
_DATA	ENDS
;	COMDAT ?ToPowerChargeDash@@YAPAVioPowerChargeDash@@PAVioExtendDash@@@Z
_TEXT	SEGMENT
_pDash$ = 8						; size = 4
?ToPowerChargeDash@@YAPAVioPowerChargeDash@@PAVioExtendDash@@@Z PROC ; ToPowerChargeDash, COMDAT

; 133  : {

  00000	55		 push	 ebp
  00001	8b ec		 mov	 ebp, esp
  00003	56		 push	 esi

; 134  : 	if( !pDash || pDash->GetType() != DT_POWER_CHARGE )

  00004	8b 75 08	 mov	 esi, DWORD PTR _pDash$[ebp]
  00007	85 f6		 test	 esi, esi
  00009	74 25		 je	 SHORT $LN1@ToPowerCha
  0000b	8b 06		 mov	 eax, DWORD PTR [esi]
  0000d	8b ce		 mov	 ecx, esi
  0000f	ff 50 04	 call	 DWORD PTR [eax+4]
  00012	83 f8 09	 cmp	 eax, 9
  00015	75 19		 jne	 SHORT $LN1@ToPowerCha

; 136  : 
; 137  : 	return dynamic_cast< ioPowerChargeDash* >( pDash );

  00017	6a 00		 push	 0
  00019	68 00 00 00 00	 push	 OFFSET ??_R0?AVioPowerChargeDash@@@8
  0001e	68 00 00 00 00	 push	 OFFSET ??_R0?AVioExtendDash@@@8
  00023	6a 00		 push	 0
  00025	56		 push	 esi
  00026	e8 00 00 00 00	 call	 ___RTDynamicCast
  0002b	83 c4 14	 add	 esp, 20			; 00000014H
  0002e	eb 02		 jmp	 SHORT $LN3@ToPowerCha
$LN1@ToPowerCha:

; 135  : 		return NULL;

  00030	33 c0		 xor	 eax, eax
$LN3@ToPowerCha:
  00032	5e		 pop	 esi

; 138  : }

  00033	5d		 pop	 ebp
  00034	c3		 ret	 0
?ToPowerChargeDash@@YAPAVioPowerChargeDash@@PAVioExtendDash@@@Z ENDP ; ToPowerChargeDash
_TEXT	ENDS
PUBLIC	??_R0?AVioExtendJump@@@8			; ioExtendJump `RTTI Type Descriptor'
PUBLIC	??_R0?AVioChargeComboJump@@@8			; ioChargeComboJump `RTTI Type Descriptor'
PUBLIC	?ToChargeComboJump@@YAPAVioChargeComboJump@@PAVioExtendJump@@@Z ; ToChargeComboJump
;	COMDAT ??_R0?AVioExtendJump@@@8
; File d:\lost saga for developer\youtube\tutorial\source\src\lsclient\iochargecombojump.h
_DATA	SEGMENT
??_R0?AVioExtendJump@@@8 DD FLAT:??_7type_info@@6B@	; ioExtendJump `RTTI Type Descriptor'
	DD	00H
	DB	'.?AVioExtendJump@@', 00H
_DATA	ENDS
;	COMDAT ??_R0?AVioChargeComboJump@@@8
_DATA	SEGMENT
??_R0?AVioChargeComboJump@@@8 DD FLAT:??_7type_info@@6B@ ; ioChargeComboJump `RTTI Type Descriptor'
	DD	00H
	DB	'.?AVioChargeComboJump@@', 00H
; Function compile flags: /Ogsp
_DATA	ENDS
;	COMDAT ?ToChargeComboJump@@YAPAVioChargeComboJump@@PAVioExtendJump@@@Z
_TEXT	SEGMENT
_pJump$ = 8						; size = 4
?ToChargeComboJump@@YAPAVioChargeComboJump@@PAVioExtendJump@@@Z PROC ; ToChargeComboJump, COMDAT

; 276  : {

  00000	55		 push	 ebp
  00001	8b ec		 mov	 ebp, esp
  00003	56		 push	 esi

; 277  : 	if( !pJump || pJump->GetType() != JT_CHARGE_COMBO )

  00004	8b 75 08	 mov	 esi, DWORD PTR _pJump$[ebp]
  00007	85 f6		 test	 esi, esi
  00009	74 25		 je	 SHORT $LN1@ToChargeCo
  0000b	8b 06		 mov	 eax, DWORD PTR [esi]
  0000d	8b ce		 mov	 ecx, esi
  0000f	ff 50 08	 call	 DWORD PTR [eax+8]
  00012	83 f8 11	 cmp	 eax, 17			; 00000011H
  00015	75 19		 jne	 SHORT $LN1@ToChargeCo

; 279  : 
; 280  : 	return dynamic_cast< ioChargeComboJump* >( pJump );

  00017	6a 00		 push	 0
  00019	68 00 00 00 00	 push	 OFFSET ??_R0?AVioChargeComboJump@@@8
  0001e	68 00 00 00 00	 push	 OFFSET ??_R0?AVioExtendJump@@@8
  00023	6a 00		 push	 0
  00025	56		 push	 esi
  00026	e8 00 00 00 00	 call	 ___RTDynamicCast
  0002b	83 c4 14	 add	 esp, 20			; 00000014H
  0002e	eb 02		 jmp	 SHORT $LN3@ToChargeCo
$LN1@ToChargeCo:

; 278  : 		return NULL;

  00030	33 c0		 xor	 eax, eax
$LN3@ToChargeCo:
  00032	5e		 pop	 esi

; 281  : }

  00033	5d		 pop	 ebp
  00034	c3		 ret	 0
?ToChargeComboJump@@YAPAVioChargeComboJump@@PAVioExtendJump@@@Z ENDP ; ToChargeComboJump
_TEXT	ENDS
PUBLIC	??_R0?AVioChargeComboJump2@@@8			; ioChargeComboJump2 `RTTI Type Descriptor'
PUBLIC	?ToChargeComboJump2@@YAPAVioChargeComboJump2@@PAVioExtendJump@@@Z ; ToChargeComboJump2
;	COMDAT ??_R0?AVioChargeComboJump2@@@8
; File d:\lost saga for developer\youtube\tutorial\source\src\lsclient\iochargecombojump2.h
_DATA	SEGMENT
??_R0?AVioChargeComboJump2@@@8 DD FLAT:??_7type_info@@6B@ ; ioChargeComboJump2 `RTTI Type Descriptor'
	DD	00H
	DB	'.?AVioChargeComboJump2@@', 00H
; Function compile flags: /Ogsp
_DATA	ENDS
;	COMDAT ?ToChargeComboJump2@@YAPAVioChargeComboJump2@@PAVioExtendJump@@@Z
_TEXT	SEGMENT
_pJump$ = 8						; size = 4
?ToChargeComboJump2@@YAPAVioChargeComboJump2@@PAVioExtendJump@@@Z PROC ; ToChargeComboJump2, COMDAT

; 686  : {

  00000	55		 push	 ebp
  00001	8b ec		 mov	 ebp, esp
  00003	56		 push	 esi

; 687  : 	if( !pJump || pJump->GetType() != JT_CHARGE_COMBO2 )

  00004	8b 75 08	 mov	 esi, DWORD PTR _pJump$[ebp]
  00007	85 f6		 test	 esi, esi
  00009	74 25		 je	 SHORT $LN1@ToChargeCo@2
  0000b	8b 06		 mov	 eax, DWORD PTR [esi]
  0000d	8b ce		 mov	 ecx, esi
  0000f	ff 50 08	 call	 DWORD PTR [eax+8]
  00012	83 f8 12	 cmp	 eax, 18			; 00000012H
  00015	75 19		 jne	 SHORT $LN1@ToChargeCo@2

; 689  : 
; 690  : 	return dynamic_cast< ioChargeComboJump2* >( pJump );

  00017	6a 00		 push	 0
  00019	68 00 00 00 00	 push	 OFFSET ??_R0?AVioChargeComboJump2@@@8
  0001e	68 00 00 00 00	 push	 OFFSET ??_R0?AVioExtendJump@@@8
  00023	6a 00		 push	 0
  00025	56		 push	 esi
  00026	e8 00 00 00 00	 call	 ___RTDynamicCast
  0002b	83 c4 14	 add	 esp, 20			; 00000014H
  0002e	eb 02		 jmp	 SHORT $LN3@ToChargeCo@2
$LN1@ToChargeCo@2:

; 688  : 		return NULL;

  00030	33 c0		 xor	 eax, eax
$LN3@ToChargeCo@2:
  00032	5e		 pop	 esi

; 691  : }

  00033	5d		 pop	 ebp
  00034	c3		 ret	 0
?ToChargeComboJump2@@YAPAVioChargeComboJump2@@PAVioExtendJump@@@Z ENDP ; ToChargeComboJump2
_TEXT	ENDS
PUBLIC	?InitResource@ioUroborusWeapon@@UAE_NXZ		; ioUroborusWeapon::InitResource
; Function compile flags: /Ogsp
; File d:\lost saga for developer\youtube\tutorial\source\src\lsclient\iouroborusweapon.cpp
;	COMDAT ?InitResource@ioUroborusWeapon@@UAE_NXZ
_TEXT	SEGMENT
?InitResource@ioUroborusWeapon@@UAE_NXZ PROC		; ioUroborusWeapon::InitResource, COMDAT
; _this$ = ecx

; 44   : 	return true;

  00000	b0 01		 mov	 al, 1

; 45   : }

  00002	c3		 ret	 0
?InitResource@ioUroborusWeapon@@UAE_NXZ ENDP		; ioUroborusWeapon::InitResource
_TEXT	ENDS
PUBLIC	?SetWeaponIndex@ioUroborusWeapon@@UAEXK@Z	; ioUroborusWeapon::SetWeaponIndex
; Function compile flags: /Ogsp
;	COMDAT ?SetWeaponIndex@ioUroborusWeapon@@UAEXK@Z
_TEXT	SEGMENT
_dwIndex$ = 8						; size = 4
?SetWeaponIndex@ioUroborusWeapon@@UAEXK@Z PROC		; ioUroborusWeapon::SetWeaponIndex, COMDAT
; _this$ = ecx

; 81   : {

  00000	55		 push	 ebp
  00001	8b ec		 mov	 ebp, esp

; 82   : 	m_dwWeaponIdx = dwIndex;

  00003	8b 45 08	 mov	 eax, DWORD PTR _dwIndex$[ebp]
  00006	89 81 b8 04 00
	00		 mov	 DWORD PTR [ecx+1208], eax

; 83   : }

  0000c	5d		 pop	 ebp
  0000d	c2 04 00	 ret	 4
?SetWeaponIndex@ioUroborusWeapon@@UAEXK@Z ENDP		; ioUroborusWeapon::SetWeaponIndex
_TEXT	ENDS
PUBLIC	?SetMoveDir@ioUroborusWeapon@@UAEXABUD3DXVECTOR3@@@Z ; ioUroborusWeapon::SetMoveDir
EXTRN	?SetOrientation@ioWeapon@@QAEXABUD3DXQUATERNION@@@Z:PROC ; ioWeapon::SetOrientation
EXTRN	?ConvertDirToQuaternion@Help@@YA?AUD3DXQUATERNION@@ABUD3DXVECTOR3@@@Z:PROC ; Help::ConvertDirToQuaternion
EXTRN	_D3DXVec3Normalize@8:PROC
; Function compile flags: /Ogsp
;	COMDAT ?SetMoveDir@ioUroborusWeapon@@UAEXABUD3DXVECTOR3@@@Z
_TEXT	SEGMENT
_qtRot$ = -20						; size = 16
_this$ = -4						; size = 4
_vDir$ = 8						; size = 4
?SetMoveDir@ioUroborusWeapon@@UAEXABUD3DXVECTOR3@@@Z PROC ; ioUroborusWeapon::SetMoveDir, COMDAT
; _this$ = ecx

; 155  : {

  00000	55		 push	 ebp
  00001	8b ec		 mov	 ebp, esp
  00003	83 ec 14	 sub	 esp, 20			; 00000014H
  00006	53		 push	 ebx
  00007	56		 push	 esi

; 156  : 	m_vMoveDir = vDir;

  00008	8b 75 08	 mov	 esi, DWORD PTR _vDir$[ebp]
  0000b	57		 push	 edi
  0000c	8d 99 e4 08 00
	00		 lea	 ebx, DWORD PTR [ecx+2276]
  00012	8b fb		 mov	 edi, ebx
  00014	a5		 movsd
  00015	a5		 movsd

; 157  : 	D3DXVec3Normalize( &m_vMoveDir, &m_vMoveDir );

  00016	53		 push	 ebx
  00017	53		 push	 ebx
  00018	89 4d fc	 mov	 DWORD PTR _this$[ebp], ecx
  0001b	a5		 movsd
  0001c	e8 00 00 00 00	 call	 _D3DXVec3Normalize@8

; 158  : 
; 159  : 	D3DXQUATERNION qtRot = Help::ConvertDirToQuaternion( m_vMoveDir );

  00021	8d 45 ec	 lea	 eax, DWORD PTR _qtRot$[ebp]
  00024	53		 push	 ebx
  00025	50		 push	 eax
  00026	e8 00 00 00 00	 call	 ?ConvertDirToQuaternion@Help@@YA?AUD3DXQUATERNION@@ABUD3DXVECTOR3@@@Z ; Help::ConvertDirToQuaternion
  0002b	59		 pop	 ecx
  0002c	59		 pop	 ecx

; 160  : 	SetOrientation( qtRot );

  0002d	8b 4d fc	 mov	 ecx, DWORD PTR _this$[ebp]
  00030	8d 45 ec	 lea	 eax, DWORD PTR _qtRot$[ebp]
  00033	50		 push	 eax
  00034	e8 00 00 00 00	 call	 ?SetOrientation@ioWeapon@@QAEXABUD3DXQUATERNION@@@Z ; ioWeapon::SetOrientation
  00039	5f		 pop	 edi
  0003a	5e		 pop	 esi
  0003b	5b		 pop	 ebx

; 161  : }

  0003c	c9		 leave
  0003d	c2 04 00	 ret	 4
?SetMoveDir@ioUroborusWeapon@@UAEXABUD3DXVECTOR3@@@Z ENDP ; ioUroborusWeapon::SetMoveDir
_TEXT	ENDS
PUBLIC	?GetMoveDir@ioUroborusWeapon@@UAE?AUD3DXVECTOR3@@XZ ; ioUroborusWeapon::GetMoveDir
; Function compile flags: /Ogsp
;	COMDAT ?GetMoveDir@ioUroborusWeapon@@UAE?AUD3DXVECTOR3@@XZ
_TEXT	SEGMENT
___$ReturnUdt$ = 8					; size = 4
?GetMoveDir@ioUroborusWeapon@@UAE?AUD3DXVECTOR3@@XZ PROC ; ioUroborusWeapon::GetMoveDir, COMDAT
; _this$ = ecx

; 164  : {

  00000	55		 push	 ebp
  00001	8b ec		 mov	 ebp, esp

; 165  : 	return m_vMoveDir;

  00003	8b 45 08	 mov	 eax, DWORD PTR ___$ReturnUdt$[ebp]
  00006	56		 push	 esi
  00007	57		 push	 edi
  00008	8d b1 e4 08 00
	00		 lea	 esi, DWORD PTR [ecx+2276]
  0000e	8b f8		 mov	 edi, eax
  00010	a5		 movsd
  00011	a5		 movsd
  00012	a5		 movsd
  00013	5f		 pop	 edi
  00014	5e		 pop	 esi

; 166  : }

  00015	5d		 pop	 ebp
  00016	c2 04 00	 ret	 4
?GetMoveDir@ioUroborusWeapon@@UAE?AUD3DXVECTOR3@@XZ ENDP ; ioUroborusWeapon::GetMoveDir
_TEXT	ENDS
PUBLIC	?SetStartPosition@ioUroborusWeapon@@UAEXABUD3DXVECTOR3@@PAVioPlayStage@@@Z ; ioUroborusWeapon::SetStartPosition
EXTRN	?SetPosition@ioWeapon@@QAEXABUD3DXVECTOR3@@@Z:PROC ; ioWeapon::SetPosition
EXTRN	__imp_??1ioHashString@@QAE@XZ:PROC
EXTRN	__imp_?HasLinkedSystem@ioEffect@@QBE_NXZ:PROC
EXTRN	__imp_?IsEmpty@ioHashString@@QBE_NXZ:PROC
EXTRN	__imp_?GetSkeletonName@ioEffect@@QBE?AVioHashString@@XZ:PROC
EXTRN	___CxxFrameHandler3:PROC
EXTRN	@__security_check_cookie@4:PROC
EXTRN	__EH_epilog3:PROC
EXTRN	__EH_prolog3:PROC
;	COMDAT xdata$x
xdata$x	SEGMENT
__unwindtable$?SetStartPosition@ioUroborusWeapon@@UAEXABUD3DXVECTOR3@@PAVioPlayStage@@@Z DD 0ffffffffH
	DD	FLAT:__unwindfunclet$?SetStartPosition@ioUroborusWeapon@@UAEXABUD3DXVECTOR3@@PAVioPlayStage@@@Z$0
__ehfuncinfo$?SetStartPosition@ioUroborusWeapon@@UAEXABUD3DXVECTOR3@@PAVioPlayStage@@@Z DD 019930522H
	DD	01H
	DD	FLAT:__unwindtable$?SetStartPosition@ioUroborusWeapon@@UAEXABUD3DXVECTOR3@@PAVioPlayStage@@@Z
	DD	2 DUP(00H)
	DD	2 DUP(00H)
	DD	00H
	DD	01H
; Function compile flags: /Ogsp
xdata$x	ENDS
;	COMDAT ?SetStartPosition@ioUroborusWeapon@@UAEXABUD3DXVECTOR3@@PAVioPlayStage@@@Z
_TEXT	SEGMENT
$T593802 = -32						; size = 16
$T593805 = -16						; size = 4
__$EHRec$ = -12						; size = 12
_vPos$ = 8						; size = 4
_pStage$ = 12						; size = 4
?SetStartPosition@ioUroborusWeapon@@UAEXABUD3DXVECTOR3@@PAVioPlayStage@@@Z PROC ; ioUroborusWeapon::SetStartPosition, COMDAT
; _this$ = ecx

; 169  : {

  00000	6a 14		 push	 20			; 00000014H
  00002	b8 00 00 00 00	 mov	 eax, __ehhandler$?SetStartPosition@ioUroborusWeapon@@UAEXABUD3DXVECTOR3@@PAVioPlayStage@@@Z
  00007	e8 00 00 00 00	 call	 __EH_prolog3
  0000c	8b f1		 mov	 esi, ecx
  0000e	83 65 f0 00	 and	 DWORD PTR $T593805[ebp], 0

; 170  : 	if( m_pFireMesh && m_pFireMesh->GetSkeletonName().IsEmpty() && m_pFireMesh->HasLinkedSystem() )

  00012	8b 8e 98 08 00
	00		 mov	 ecx, DWORD PTR [esi+2200]
  00018	85 c9		 test	 ecx, ecx
  0001a	74 35		 je	 SHORT $LN4@SetStartPo
  0001c	8d 45 e0	 lea	 eax, DWORD PTR $T593802[ebp]
  0001f	50		 push	 eax
  00020	ff 15 00 00 00
	00		 call	 DWORD PTR __imp_?GetSkeletonName@ioEffect@@QBE?AVioHashString@@XZ
  00026	83 65 fc 00	 and	 DWORD PTR __$EHRec$[ebp+8], 0
  0002a	8b c8		 mov	 ecx, eax
  0002c	c7 45 f0 01 00
	00 00		 mov	 DWORD PTR $T593805[ebp], 1
  00033	ff 15 00 00 00
	00		 call	 DWORD PTR __imp_?IsEmpty@ioHashString@@QBE_NXZ
  00039	84 c0		 test	 al, al
  0003b	74 14		 je	 SHORT $LN4@SetStartPo
  0003d	8b 8e 98 08 00
	00		 mov	 ecx, DWORD PTR [esi+2200]
  00043	ff 15 00 00 00
	00		 call	 DWORD PTR __imp_?HasLinkedSystem@ioEffect@@QBE_NXZ
  00049	84 c0		 test	 al, al
  0004b	74 04		 je	 SHORT $LN4@SetStartPo
  0004d	b3 01		 mov	 bl, 1
  0004f	eb 02		 jmp	 SHORT $LN5@SetStartPo
$LN4@SetStartPo:
  00051	32 db		 xor	 bl, bl
$LN5@SetStartPo:
  00053	83 4d fc ff	 or	 DWORD PTR __$EHRec$[ebp+8], -1
  00057	f6 45 f0 01	 test	 BYTE PTR $T593805[ebp], 1
  0005b	74 09		 je	 SHORT $LN8@SetStartPo
  0005d	8d 4d e0	 lea	 ecx, DWORD PTR $T593802[ebp]
  00060	ff 15 00 00 00
	00		 call	 DWORD PTR __imp_??1ioHashString@@QAE@XZ
$LN8@SetStartPo:
  00066	84 db		 test	 bl, bl
  00068	75 0a		 jne	 SHORT $LN2@SetStartPo

; 171  : 		return;
; 172  : 
; 173  : 	SetPosition( vPos );

  0006a	ff 75 08	 push	 DWORD PTR _vPos$[ebp]
  0006d	8b ce		 mov	 ecx, esi
  0006f	e8 00 00 00 00	 call	 ?SetPosition@ioWeapon@@QAEXABUD3DXVECTOR3@@@Z ; ioWeapon::SetPosition
$LN2@SetStartPo:

; 174  : }

  00074	e8 00 00 00 00	 call	 __EH_epilog3
  00079	c2 08 00	 ret	 8
_TEXT	ENDS
;	COMDAT text$x
text$x	SEGMENT
__unwindfunclet$?SetStartPosition@ioUroborusWeapon@@UAEXABUD3DXVECTOR3@@PAVioPlayStage@@@Z$0:
  00000	8b 45 f0	 mov	 eax, DWORD PTR $T593805[ebp]
  00003	83 e0 01	 and	 eax, 1
  00006	0f 84 0d 00 00
	00		 je	 $LN7@SetStartPo
  0000c	83 65 f0 fe	 and	 DWORD PTR $T593805[ebp], -2 ; fffffffeH
  00010	8d 4d e0	 lea	 ecx, DWORD PTR $T593802[ebp]
  00013	ff 25 00 00 00
	00		 jmp	 DWORD PTR __imp_??1ioHashString@@QAE@XZ
$LN7@SetStartPo:
  00019	c3		 ret	 0
__ehhandler$?SetStartPosition@ioUroborusWeapon@@UAEXABUD3DXVECTOR3@@PAVioPlayStage@@@Z:
  0001a	8b 54 24 08	 mov	 edx, DWORD PTR [esp+8]
  0001e	8d 42 0c	 lea	 eax, DWORD PTR [edx+12]
  00021	8b 4a dc	 mov	 ecx, DWORD PTR [edx-36]
  00024	33 c8		 xor	 ecx, eax
  00026	e8 00 00 00 00	 call	 @__security_check_cookie@4
  0002b	b8 00 00 00 00	 mov	 eax, OFFSET __ehfuncinfo$?SetStartPosition@ioUroborusWeapon@@UAEXABUD3DXVECTOR3@@PAVioPlayStage@@@Z
  00030	e9 00 00 00 00	 jmp	 ___CxxFrameHandler3
text$x	ENDS
?SetStartPosition@ioUroborusWeapon@@UAEXABUD3DXVECTOR3@@PAVioPlayStage@@@Z ENDP ; ioUroborusWeapon::SetStartPosition
PUBLIC	?DestroyResource@ioUroborusWeapon@@UAEXPAVioPlayStage@@@Z ; ioUroborusWeapon::DestroyResource
EXTRN	__imp_?DestroyEffect@ioEffectFactory@@QAEXPAVioEffect@@@Z:PROC
EXTRN	__imp_?GetSingleton@ioEffectFactory@@SAAAV1@XZ:PROC
; Function compile flags: /Ogsp
;	COMDAT ?DestroyResource@ioUroborusWeapon@@UAEXPAVioPlayStage@@@Z
_TEXT	SEGMENT
_pStage$ = 8						; size = 4
?DestroyResource@ioUroborusWeapon@@UAEXPAVioPlayStage@@@Z PROC ; ioUroborusWeapon::DestroyResource, COMDAT
; _this$ = ecx

; 294  : {

  00000	56		 push	 esi

; 295  : 	if( m_pFireMesh )

  00001	8d b1 98 08 00
	00		 lea	 esi, DWORD PTR [ecx+2200]
  00007	8b 06		 mov	 eax, DWORD PTR [esi]
  00009	85 c0		 test	 eax, eax
  0000b	74 12		 je	 SHORT $LN1@DestroyRes

; 296  : 	{
; 297  : 		g_EffectFactory.DestroyEffect( m_pFireMesh );

  0000d	50		 push	 eax
  0000e	ff 15 00 00 00
	00		 call	 DWORD PTR __imp_?GetSingleton@ioEffectFactory@@SAAAV1@XZ
  00014	8b c8		 mov	 ecx, eax
  00016	ff 15 00 00 00
	00		 call	 DWORD PTR __imp_?DestroyEffect@ioEffectFactory@@QAEXPAVioEffect@@@Z

; 298  : 		m_pFireMesh = NULL;

  0001c	83 26 00	 and	 DWORD PTR [esi], 0
$LN1@DestroyRes:
  0001f	5e		 pop	 esi

; 299  : 	}
; 300  : }

  00020	c2 04 00	 ret	 4
?DestroyResource@ioUroborusWeapon@@UAEXPAVioPlayStage@@@Z ENDP ; ioUroborusWeapon::DestroyResource
_TEXT	ENDS
PUBLIC	?GetLocalAttackBox@ioUroborusWeapon@@UBEABVioOrientBox@@XZ ; ioUroborusWeapon::GetLocalAttackBox
; Function compile flags: /Ogsp
;	COMDAT ?GetLocalAttackBox@ioUroborusWeapon@@UBEABVioOrientBox@@XZ
_TEXT	SEGMENT
?GetLocalAttackBox@ioUroborusWeapon@@UBEABVioOrientBox@@XZ PROC ; ioUroborusWeapon::GetLocalAttackBox, COMDAT
; _this$ = ecx

; 304  : 	return m_LocalAttackBox;

  00000	8d 81 a0 08 00
	00		 lea	 eax, DWORD PTR [ecx+2208]

; 305  : }

  00006	c3		 ret	 0
?GetLocalAttackBox@ioUroborusWeapon@@UBEABVioOrientBox@@XZ ENDP ; ioUroborusWeapon::GetLocalAttackBox
_TEXT	ENDS
PUBLIC	?GetType@ioUroborusWeapon@@UBE?AW4WeaponType@ioWeapon@@XZ ; ioUroborusWeapon::GetType
; Function compile flags: /Ogsp
;	COMDAT ?GetType@ioUroborusWeapon@@UBE?AW4WeaponType@ioWeapon@@XZ
_TEXT	SEGMENT
?GetType@ioUroborusWeapon@@UBE?AW4WeaponType@ioWeapon@@XZ PROC ; ioUroborusWeapon::GetType, COMDAT
; _this$ = ecx

; 309  : 	return WT_UROBORUS;

  00000	6a 2f		 push	 47			; 0000002fH
  00002	58		 pop	 eax

; 310  : }

  00003	c3		 ret	 0
?GetType@ioUroborusWeapon@@UBE?AW4WeaponType@ioWeapon@@XZ ENDP ; ioUroborusWeapon::GetType
_TEXT	ENDS
PUBLIC	?GetActionStopType@ioUroborusWeapon@@UBE?AW4ActionStopType@@XZ ; ioUroborusWeapon::GetActionStopType
; Function compile flags: /Ogsp
;	COMDAT ?GetActionStopType@ioUroborusWeapon@@UBE?AW4ActionStopType@@XZ
_TEXT	SEGMENT
?GetActionStopType@ioUroborusWeapon@@UBE?AW4ActionStopType@@XZ PROC ; ioUroborusWeapon::GetActionStopType, COMDAT
; _this$ = ecx

; 314  : 	return m_ActionStopType;

  00000	a1 00 00 00 00	 mov	 eax, DWORD PTR ?m_ActionStopType@ioUroborusWeapon@@2W4ActionStopType@@A ; ioUroborusWeapon::m_ActionStopType

; 315  : }

  00005	c3		 ret	 0
?GetActionStopType@ioUroborusWeapon@@UBE?AW4ActionStopType@@XZ ENDP ; ioUroborusWeapon::GetActionStopType
_TEXT	ENDS
PUBLIC	?GetDieActionStopType@ioUroborusWeapon@@UBE?AW4ActionStopType@@XZ ; ioUroborusWeapon::GetDieActionStopType
; Function compile flags: /Ogsp
;	COMDAT ?GetDieActionStopType@ioUroborusWeapon@@UBE?AW4ActionStopType@@XZ
_TEXT	SEGMENT
?GetDieActionStopType@ioUroborusWeapon@@UBE?AW4ActionStopType@@XZ PROC ; ioUroborusWeapon::GetDieActionStopType, COMDAT
; _this$ = ecx

; 319  : 	return m_DieActionStopType;

  00000	a1 00 00 00 00	 mov	 eax, DWORD PTR ?m_DieActionStopType@ioUroborusWeapon@@2W4ActionStopType@@A ; ioUroborusWeapon::m_DieActionStopType

; 320  : }

  00005	c3		 ret	 0
?GetDieActionStopType@ioUroborusWeapon@@UBE?AW4ActionStopType@@XZ ENDP ; ioUroborusWeapon::GetDieActionStopType
_TEXT	ENDS
PUBLIC	?GetCollisionEnableTime@ioUroborusWeapon@@UBEKXZ ; ioUroborusWeapon::GetCollisionEnableTime
EXTRN	__imp_?GetLoopSec@ioFrameTimer@@QBEKXZ:PROC
EXTRN	__imp_?GetSingleton@ioFrameTimer@@SAAAV1@XZ:PROC
; Function compile flags: /Ogsp
;	COMDAT ?GetCollisionEnableTime@ioUroborusWeapon@@UBEKXZ
_TEXT	SEGMENT
?GetCollisionEnableTime@ioUroborusWeapon@@UBEKXZ PROC	; ioUroborusWeapon::GetCollisionEnableTime, COMDAT
; _this$ = ecx

; 496  : {

  00000	56		 push	 esi
  00001	8b f1		 mov	 esi, ecx

; 497  : 	if( m_UroborusState == US_MOVE )

  00003	83 be 94 08 00
	00 00		 cmp	 DWORD PTR [esi+2196], 0
  0000a	75 16		 jne	 SHORT $LN1@GetCollisi

; 498  : 		return m_dwCreatedTime + GetAttribute()->m_dwCollisionDelay;

  0000c	8b 06		 mov	 eax, DWORD PTR [esi]
  0000e	ff 90 3c 01 00
	00		 call	 DWORD PTR [eax+316]
  00014	8b 80 c4 01 00
	00		 mov	 eax, DWORD PTR [eax+452]
  0001a	03 86 d4 04 00
	00		 add	 eax, DWORD PTR [esi+1236]
  00020	5e		 pop	 esi

; 501  : }

  00021	c3		 ret	 0
$LN1@GetCollisi:

; 499  : 
; 500  : 	return FRAMEGETTIME() + 1;

  00022	ff 15 00 00 00
	00		 call	 DWORD PTR __imp_?GetSingleton@ioFrameTimer@@SAAAV1@XZ
  00028	8b c8		 mov	 ecx, eax
  0002a	ff 15 00 00 00
	00		 call	 DWORD PTR __imp_?GetLoopSec@ioFrameTimer@@QBEKXZ
  00030	40		 inc	 eax
  00031	5e		 pop	 esi

; 501  : }

  00032	c3		 ret	 0
?GetCollisionEnableTime@ioUroborusWeapon@@UBEKXZ ENDP	; ioUroborusWeapon::GetCollisionEnableTime
_TEXT	ENDS
PUBLIC	?CheckOwnerState@ioUroborusWeapon@@IAE_NXZ	; ioUroborusWeapon::CheckOwnerState
EXTRN	?GetCurExtendDash@ioAttackableItem@@QAEPAVioExtendDash@@XZ:PROC ; ioAttackableItem::GetCurExtendDash
EXTRN	?GetCurChargeComboState@ioChargeComboJump2@@QAEHXZ:PROC ; ioChargeComboJump2::GetCurChargeComboState
EXTRN	?GetCurChargeComboState@ioChargeComboJump@@QAEHXZ:PROC ; ioChargeComboJump::GetCurChargeComboState
EXTRN	?GetCurExtendJump@ioAttackableItem@@QAEPAVioExtendJump@@XZ:PROC ; ioAttackableItem::GetCurExtendJump
EXTRN	?GetPriorityItem@ioBaseChar@@QBEPAVioAttackableItem@@W4StatePriorityType@@@Z:PROC ; ioBaseChar::GetPriorityItem
EXTRN	?GetOwner@ioWeapon@@QBEPAVioBaseChar@@XZ:PROC	; ioWeapon::GetOwner
; Function compile flags: /Ogsp
;	COMDAT ?CheckOwnerState@ioUroborusWeapon@@IAE_NXZ
_TEXT	SEGMENT
?CheckOwnerState@ioUroborusWeapon@@IAE_NXZ PROC		; ioUroborusWeapon::CheckOwnerState, COMDAT
; _this$ = ecx

; 515  : {

  00000	56		 push	 esi

; 516  : 	ioBaseChar *pOwner = GetOwner();

  00001	e8 00 00 00 00	 call	 ?GetOwner@ioWeapon@@QBEPAVioBaseChar@@XZ ; ioWeapon::GetOwner
  00006	8b f0		 mov	 esi, eax

; 517  : 	if( !pOwner )

  00008	85 f6		 test	 esi, esi
  0000a	75 04		 jne	 SHORT $LN16@CheckOwner
$LN36@CheckOwner:

; 518  : 		return false;

  0000c	32 c0		 xor	 al, al
  0000e	5e		 pop	 esi

; 563  : }

  0000f	c3		 ret	 0
$LN16@CheckOwner:

; 519  : 
; 520  : 	if( pOwner->GetState() == CS_ATTACK )

  00010	8a 86 10 03 00
	00		 mov	 al, BYTE PTR [esi+784]
  00016	3c 05		 cmp	 al, 5
  00018	75 20		 jne	 SHORT $LN15@CheckOwner

; 521  : 	{
; 522  : 		ioAttackableItem *pItem = pOwner->GetPriorityItem( SPT_ATTACK );

  0001a	6a 05		 push	 5
  0001c	8b ce		 mov	 ecx, esi
  0001e	e8 00 00 00 00	 call	 ?GetPriorityItem@ioBaseChar@@QBEPAVioAttackableItem@@W4StatePriorityType@@@Z ; ioBaseChar::GetPriorityItem

; 523  : 		if( pItem && !pItem->IsChargeAttackState( pOwner ) )

  00023	85 c0		 test	 eax, eax
  00025	74 0f		 je	 SHORT $LN14@CheckOwner
  00027	8b 10		 mov	 edx, DWORD PTR [eax]
  00029	56		 push	 esi
  0002a	8b c8		 mov	 ecx, eax
  0002c	ff 92 54 01 00
	00		 call	 DWORD PTR [edx+340]
  00032	84 c0		 test	 al, al

; 524  : 			return false;

  00034	74 d6		 je	 SHORT $LN36@CheckOwner
$LN14@CheckOwner:

; 525  : 
; 526  : 		return true;

  00036	b0 01		 mov	 al, 1
  00038	5e		 pop	 esi

; 563  : }

  00039	c3		 ret	 0
$LN15@CheckOwner:
  0003a	57		 push	 edi

; 527  : 	}
; 528  : 	else if( pOwner->GetState() == CS_JUMP )

  0003b	3c 04		 cmp	 al, 4
  0003d	75 56		 jne	 SHORT $LN12@CheckOwner

; 529  : 	{
; 530  : 		ioAttackableItem *pItem = pOwner->GetPriorityItem( SPT_JUMP );

  0003f	6a 02		 push	 2
  00041	8b ce		 mov	 ecx, esi
  00043	e8 00 00 00 00	 call	 ?GetPriorityItem@ioBaseChar@@QBEPAVioAttackableItem@@W4StatePriorityType@@@Z ; ioBaseChar::GetPriorityItem
  00048	8b f0		 mov	 esi, eax

; 531  : 		if( !pItem )

  0004a	85 f6		 test	 esi, esi

; 532  : 			return false;

  0004c	74 28		 je	 SHORT $LN1@CheckOwner

; 533  : 
; 534  : 		ioChargeComboJump *pJump = ToChargeComboJump( pItem->GetCurExtendJump() );

  0004e	8b ce		 mov	 ecx, esi
  00050	e8 00 00 00 00	 call	 ?GetCurExtendJump@ioAttackableItem@@QAEPAVioExtendJump@@XZ ; ioAttackableItem::GetCurExtendJump
  00055	50		 push	 eax
  00056	e8 00 00 00 00	 call	 ?ToChargeComboJump@@YAPAVioChargeComboJump@@PAVioExtendJump@@@Z ; ToChargeComboJump
  0005b	59		 pop	 ecx

; 535  : 		ioChargeComboJump2 *pJump2 = ToChargeComboJump2( pItem->GetCurExtendJump() );

  0005c	8b ce		 mov	 ecx, esi
  0005e	8b f8		 mov	 edi, eax
  00060	e8 00 00 00 00	 call	 ?GetCurExtendJump@ioAttackableItem@@QAEPAVioExtendJump@@XZ ; ioAttackableItem::GetCurExtendJump
  00065	50		 push	 eax
  00066	e8 00 00 00 00	 call	 ?ToChargeComboJump2@@YAPAVioChargeComboJump2@@PAVioExtendJump@@@Z ; ToChargeComboJump2
  0006b	59		 pop	 ecx
  0006c	8b f0		 mov	 esi, eax

; 536  : 		if( !pJump && !pJump2 )

  0006e	85 ff		 test	 edi, edi
  00070	75 09		 jne	 SHORT $LN30@CheckOwner
$LN33@CheckOwner:
  00072	85 f6		 test	 esi, esi
  00074	75 13		 jne	 SHORT $LN31@CheckOwner
$LN1@CheckOwner:

; 561  : 
; 562  : 	return false;

  00076	32 c0		 xor	 al, al
$LN32@CheckOwner:
  00078	5f		 pop	 edi
  00079	5e		 pop	 esi

; 563  : }

  0007a	c3		 ret	 0
$LN30@CheckOwner:

; 537  : 			return false;
; 538  : 
; 539  : 		if( pJump && pJump->GetCurChargeComboState() == ioChargeComboJump::CCS_GATHER_ATTACK )

  0007b	8b cf		 mov	 ecx, edi
  0007d	e8 00 00 00 00	 call	 ?GetCurChargeComboState@ioChargeComboJump@@QAEHXZ ; ioChargeComboJump::GetCurChargeComboState
  00082	83 f8 04	 cmp	 eax, 4

; 540  : 			return true;

  00085	74 3b		 je	 SHORT $LN35@CheckOwner

; 536  : 		if( !pJump && !pJump2 )

  00087	eb e9		 jmp	 SHORT $LN33@CheckOwner
$LN31@CheckOwner:

; 541  : 
; 542  : 		if( pJump2 && pJump2->GetCurChargeComboState() == ioChargeComboJump2::CCS_TITAN )

  00089	8b ce		 mov	 ecx, esi
  0008b	e8 00 00 00 00	 call	 ?GetCurChargeComboState@ioChargeComboJump2@@QAEHXZ ; ioChargeComboJump2::GetCurChargeComboState
  00090	83 f8 16	 cmp	 eax, 22			; 00000016H

; 543  : 			return true;

  00093	eb 2b		 jmp	 SHORT $LN34@CheckOwner
$LN12@CheckOwner:

; 544  : 	}
; 545  : 	else if( pOwner->GetState() == CS_DASH )

  00095	3c 02		 cmp	 al, 2
  00097	75 25		 jne	 SHORT $LN6@CheckOwner

; 546  : 	{
; 547  : 		ioAttackableItem *pItem = pOwner->GetPriorityItem( SPT_DASH );

  00099	6a 01		 push	 1
  0009b	8b ce		 mov	 ecx, esi
  0009d	e8 00 00 00 00	 call	 ?GetPriorityItem@ioBaseChar@@QBEPAVioAttackableItem@@W4StatePriorityType@@@Z ; ioBaseChar::GetPriorityItem

; 548  : 		if( !pItem )

  000a2	85 c0		 test	 eax, eax

; 549  : 			return false;

  000a4	74 d0		 je	 SHORT $LN1@CheckOwner

; 550  : 
; 551  : 		ioPowerChargeDash *pDash = ToPowerChargeDash( pItem->GetCurExtendDash() );

  000a6	8b c8		 mov	 ecx, eax
  000a8	e8 00 00 00 00	 call	 ?GetCurExtendDash@ioAttackableItem@@QAEPAVioExtendDash@@XZ ; ioAttackableItem::GetCurExtendDash
  000ad	50		 push	 eax
  000ae	e8 00 00 00 00	 call	 ?ToPowerChargeDash@@YAPAVioPowerChargeDash@@PAVioExtendDash@@@Z ; ToPowerChargeDash
  000b3	59		 pop	 ecx

; 552  : 		if( !pDash )

  000b4	85 c0		 test	 eax, eax

; 553  : 			return false;

  000b6	74 be		 je	 SHORT $LN1@CheckOwner

; 554  : 
; 555  : 		if( pDash && pDash->GetCurState() == ioPowerChargeDash::CDS_TITAN )

  000b8	83 78 4c 05	 cmp	 DWORD PTR [eax+76], 5

; 556  : 			return true;

  000bc	eb 02		 jmp	 SHORT $LN34@CheckOwner
$LN6@CheckOwner:

; 557  : 
; 558  : 	}
; 559  : 	else if( pOwner->GetState() == CS_UROBORUS )

  000be	3c 4b		 cmp	 al, 75			; 0000004bH
$LN34@CheckOwner:
  000c0	75 b4		 jne	 SHORT $LN1@CheckOwner
$LN35@CheckOwner:

; 560  : 		return true;

  000c2	b0 01		 mov	 al, 1
  000c4	eb b2		 jmp	 SHORT $LN32@CheckOwner
?CheckOwnerState@ioUroborusWeapon@@IAE_NXZ ENDP		; ioUroborusWeapon::CheckOwnerState
_TEXT	ENDS
PUBLIC	?IsUroborusMove@ioUroborusWeapon@@QAE_NXZ	; ioUroborusWeapon::IsUroborusMove
; Function compile flags: /Ogsp
;	COMDAT ?IsUroborusMove@ioUroborusWeapon@@QAE_NXZ
_TEXT	SEGMENT
?IsUroborusMove@ioUroborusWeapon@@QAE_NXZ PROC		; ioUroborusWeapon::IsUroborusMove, COMDAT
; _this$ = ecx

; 581  : {

  00000	56		 push	 esi
  00001	8b f1		 mov	 esi, ecx

; 582  : 	DWORD dwCurTime = FRAMEGETTIME();

  00003	ff 15 00 00 00
	00		 call	 DWORD PTR __imp_?GetSingleton@ioFrameTimer@@SAAAV1@XZ
  00009	8b c8		 mov	 ecx, eax
  0000b	ff 15 00 00 00
	00		 call	 DWORD PTR __imp_?GetLoopSec@ioFrameTimer@@QBEKXZ

; 583  : 
; 584  : 	if( m_UroborusState == US_MOVE )

  00011	83 be 94 08 00
	00 00		 cmp	 DWORD PTR [esi+2196], 0
  00018	5e		 pop	 esi
  00019	0f 94 c0	 sete	 al

; 585  : 		return true;
; 586  : 
; 587  : 	return false;
; 588  : }

  0001c	c3		 ret	 0
?IsUroborusMove@ioUroborusWeapon@@QAE_NXZ ENDP		; ioUroborusWeapon::IsUroborusMove
_TEXT	ENDS
PUBLIC	?IsUroborusWait@ioUroborusWeapon@@QAE_NXZ	; ioUroborusWeapon::IsUroborusWait
; Function compile flags: /Ogsp
;	COMDAT ?IsUroborusWait@ioUroborusWeapon@@QAE_NXZ
_TEXT	SEGMENT
?IsUroborusWait@ioUroborusWeapon@@QAE_NXZ PROC		; ioUroborusWeapon::IsUroborusWait, COMDAT
; _this$ = ecx

; 591  : {

  00000	56		 push	 esi
  00001	8b f1		 mov	 esi, ecx

; 592  : 	DWORD dwCurTime = FRAMEGETTIME();

  00003	ff 15 00 00 00
	00		 call	 DWORD PTR __imp_?GetSingleton@ioFrameTimer@@SAAAV1@XZ
  00009	8b c8		 mov	 ecx, eax
  0000b	ff 15 00 00 00
	00		 call	 DWORD PTR __imp_?GetLoopSec@ioFrameTimer@@QBEKXZ

; 593  : 
; 594  : 	if( m_UroborusState == US_WAIT )

  00011	83 be 94 08 00
	00 01		 cmp	 DWORD PTR [esi+2196], 1
  00018	5e		 pop	 esi
  00019	0f 94 c0	 sete	 al

; 595  : 		return true;
; 596  : 
; 597  : 	return false;
; 598  : }

  0001c	c3		 ret	 0
?IsUroborusWait@ioUroborusWeapon@@QAE_NXZ ENDP		; ioUroborusWeapon::IsUroborusWait
_TEXT	ENDS
PUBLIC	?ProcessGuidArrow@ioUroborusWeapon@@IAEXXZ	; ioUroborusWeapon::ProcessGuidArrow
EXTRN	?Process@ioUroborusGuideArrow@@QAEXPAVioBaseChar@@UD3DXVECTOR3@@@Z:PROC ; ioUroborusGuideArrow::Process
; Function compile flags: /Ogsp
;	COMDAT ?ProcessGuidArrow@ioUroborusWeapon@@IAEXXZ
_TEXT	SEGMENT
?ProcessGuidArrow@ioUroborusWeapon@@IAEXXZ PROC		; ioUroborusWeapon::ProcessGuidArrow, COMDAT
; _this$ = ecx

; 601  : {

  00000	53		 push	 ebx
  00001	8b d9		 mov	 ebx, ecx

; 602  : 	if( !m_pGuideArrow )

  00003	83 bb 9c 08 00
	00 00		 cmp	 DWORD PTR [ebx+2204], 0
  0000a	56		 push	 esi
  0000b	57		 push	 edi
  0000c	74 22		 je	 SHORT $LN2@ProcessGui

; 603  : 		return;
; 604  : 
; 605  : 	m_pGuideArrow->Process( GetOwner(), GetPosition() );

  0000e	8b 03		 mov	 eax, DWORD PTR [ebx]
  00010	ff 50 70	 call	 DWORD PTR [eax+112]
  00013	83 ec 0c	 sub	 esp, 12			; 0000000cH
  00016	8b f0		 mov	 esi, eax
  00018	8b fc		 mov	 edi, esp
  0001a	a5		 movsd
  0001b	a5		 movsd
  0001c	8b cb		 mov	 ecx, ebx
  0001e	a5		 movsd
  0001f	e8 00 00 00 00	 call	 ?GetOwner@ioWeapon@@QBEPAVioBaseChar@@XZ ; ioWeapon::GetOwner
  00024	8b 8b 9c 08 00
	00		 mov	 ecx, DWORD PTR [ebx+2204]
  0002a	50		 push	 eax
  0002b	e8 00 00 00 00	 call	 ?Process@ioUroborusGuideArrow@@QAEXPAVioBaseChar@@UD3DXVECTOR3@@@Z ; ioUroborusGuideArrow::Process
$LN2@ProcessGui:

; 606  : }

  00030	5f		 pop	 edi
  00031	5e		 pop	 esi
  00032	5b		 pop	 ebx
  00033	c3		 ret	 0
?ProcessGuidArrow@ioUroborusWeapon@@IAEXXZ ENDP		; ioUroborusWeapon::ProcessGuidArrow
_TEXT	ENDS
PUBLIC	?CheckOwnerUroborusState@ioUroborusWeapon@@IAE_NXZ ; ioUroborusWeapon::CheckOwnerUroborusState
; Function compile flags: /Ogsp
;	COMDAT ?CheckOwnerUroborusState@ioUroborusWeapon@@IAE_NXZ
_TEXT	SEGMENT
?CheckOwnerUroborusState@ioUroborusWeapon@@IAE_NXZ PROC	; ioUroborusWeapon::CheckOwnerUroborusState, COMDAT
; _this$ = ecx

; 610  : 	ioBaseChar *pOwner = GetOwner();

  00000	e8 00 00 00 00	 call	 ?GetOwner@ioWeapon@@QBEPAVioBaseChar@@XZ ; ioWeapon::GetOwner

; 611  : 	if( !pOwner )

  00005	85 c0		 test	 eax, eax
  00007	75 03		 jne	 SHORT $LN2@CheckOwner@2

; 612  : 		return false;

  00009	32 c0		 xor	 al, al

; 615  : 		return true;
; 616  : 
; 617  : 	return false;
; 618  : }

  0000b	c3		 ret	 0
$LN2@CheckOwner@2:

; 613  : 
; 614  : 	if( pOwner->GetState() == CS_UROBORUS )

  0000c	80 b8 10 03 00
	00 4b		 cmp	 BYTE PTR [eax+784], 75	; 0000004bH
  00013	0f 94 c0	 sete	 al

; 615  : 		return true;
; 616  : 
; 617  : 	return false;
; 618  : }

  00016	c3		 ret	 0
?CheckOwnerUroborusState@ioUroborusWeapon@@IAE_NXZ ENDP	; ioUroborusWeapon::CheckOwnerUroborusState
_TEXT	ENDS
PUBLIC	?_DECSTR@@YAXPADH@Z				; _DECSTR
; Function compile flags: /Ogsp
; File d:\lost saga for developer\youtube\tutorial\source\src\lsclient\stringprotect.h
;	COMDAT ?_DECSTR@@YAXPADH@Z
_TEXT	SEGMENT
_s$ = 8							; size = 4
_l$ = 12						; size = 4
?_DECSTR@@YAXPADH@Z PROC				; _DECSTR, COMDAT

; 40   : __forceinline void _DECSTR(char* s, int l){int i=0,l4=(l-1)/4,*p=(int*)s;s[l-1]=0;for(;i<l4;++i)*(p++)^=0xEAEBECED;for(i=l4*4;i<l-1;++i)s[i]^=0xED-i%4;}

  00000	55		 push	 ebp
  00001	8b ec		 mov	 ebp, esp
  00003	8b 4d 0c	 mov	 ecx, DWORD PTR _l$[ebp]
  00006	56		 push	 esi
  00007	8b 75 08	 mov	 esi, DWORD PTR _s$[ebp]
  0000a	57		 push	 edi
  0000b	8d 79 ff	 lea	 edi, DWORD PTR [ecx-1]
  0000e	8b c7		 mov	 eax, edi
  00010	99		 cdq
  00011	83 e2 03	 and	 edx, 3
  00014	03 c2		 add	 eax, edx
  00016	c1 f8 02	 sar	 eax, 2
  00019	8b d6		 mov	 edx, esi
  0001b	c6 44 0e ff 00	 mov	 BYTE PTR [esi+ecx-1], 0
  00020	85 c0		 test	 eax, eax
  00022	7e 0e		 jle	 SHORT $LN4@DECSTR
  00024	8b c8		 mov	 ecx, eax
$LL6@DECSTR:
  00026	81 32 ed ec eb
	ea		 xor	 DWORD PTR [edx], -353637139 ; eaebecedH
  0002c	83 c2 04	 add	 edx, 4
  0002f	49		 dec	 ecx
  00030	75 f4		 jne	 SHORT $LL6@DECSTR
$LN4@DECSTR:
  00032	c1 e0 02	 shl	 eax, 2
  00035	eb 17		 jmp	 SHORT $LN14@DECSTR
$LL3@DECSTR:
  00037	8b c8		 mov	 ecx, eax
  00039	81 e1 03 00 00
	80		 and	 ecx, -2147483645	; 80000003H
  0003f	79 05		 jns	 SHORT $LN13@DECSTR
  00041	49		 dec	 ecx
  00042	83 c9 fc	 or	 ecx, -4			; fffffffcH
  00045	41		 inc	 ecx
$LN13@DECSTR:
  00046	b2 ed		 mov	 dl, -19			; ffffffedH
  00048	2a d1		 sub	 dl, cl
  0004a	30 14 30	 xor	 BYTE PTR [eax+esi], dl
  0004d	40		 inc	 eax
$LN14@DECSTR:
  0004e	3b c7		 cmp	 eax, edi
  00050	7c e5		 jl	 SHORT $LL3@DECSTR
  00052	5f		 pop	 edi
  00053	5e		 pop	 esi
  00054	5d		 pop	 ebp
  00055	c3		 ret	 0
?_DECSTR@@YAXPADH@Z ENDP				; _DECSTR
_TEXT	ENDS
PUBLIC	?GetGroup@ioGameEntity@@QBEPAVioEntityGroup@@XZ	; ioGameEntity::GetGroup
; Function compile flags: /Ogsp
; File d:\lost saga for developer\youtube\tutorial\source\src\lsclient\iogameentity.h
;	COMDAT ?GetGroup@ioGameEntity@@QBEPAVioEntityGroup@@XZ
_TEXT	SEGMENT
?GetGroup@ioGameEntity@@QBEPAVioEntityGroup@@XZ PROC	; ioGameEntity::GetGroup, COMDAT
; _this$ = ecx

; 166  : 	inline ioEntityGroup* GetGroup() const { return m_pGroup; }

  00000	8b 41 04	 mov	 eax, DWORD PTR [ecx+4]
  00003	c3		 ret	 0
?GetGroup@ioGameEntity@@QBEPAVioEntityGroup@@XZ ENDP	; ioGameEntity::GetGroup
_TEXT	ENDS
PUBLIC	??_R0?AVioGameEntity@@@8			; ioGameEntity `RTTI Type Descriptor'
PUBLIC	??_R0?AVioPlayEntity@@@8			; ioPlayEntity `RTTI Type Descriptor'
PUBLIC	?ToPlayEntity@@YAPAVioPlayEntity@@PAVioGameEntity@@@Z ; ToPlayEntity
;	COMDAT ??_R0?AVioGameEntity@@@8
; File d:\lost saga for developer\youtube\tutorial\source\src\lsclient\ioplayentity.h
_DATA	SEGMENT
??_R0?AVioGameEntity@@@8 DD FLAT:??_7type_info@@6B@	; ioGameEntity `RTTI Type Descriptor'
	DD	00H
	DB	'.?AVioGameEntity@@', 00H
_DATA	ENDS
;	COMDAT ??_R0?AVioPlayEntity@@@8
_DATA	SEGMENT
??_R0?AVioPlayEntity@@@8 DD FLAT:??_7type_info@@6B@	; ioPlayEntity `RTTI Type Descriptor'
	DD	00H
	DB	'.?AVioPlayEntity@@', 00H
; Function compile flags: /Ogsp
_DATA	ENDS
;	COMDAT ?ToPlayEntity@@YAPAVioPlayEntity@@PAVioGameEntity@@@Z
_TEXT	SEGMENT
_pObj$ = 8						; size = 4
?ToPlayEntity@@YAPAVioPlayEntity@@PAVioGameEntity@@@Z PROC ; ToPlayEntity, COMDAT

; 121  : {

  00000	55		 push	 ebp
  00001	8b ec		 mov	 ebp, esp
  00003	56		 push	 esi

; 122  : 	if( !pObj || pObj->GetTypeID() != ioGameEntity::GET_PLAY_ENTITY )

  00004	8b 75 08	 mov	 esi, DWORD PTR _pObj$[ebp]
  00007	85 f6		 test	 esi, esi
  00009	74 25		 je	 SHORT $LN1@ToPlayEnti
  0000b	8b 06		 mov	 eax, DWORD PTR [esi]
  0000d	8b ce		 mov	 ecx, esi
  0000f	ff 50 10	 call	 DWORD PTR [eax+16]
  00012	83 f8 01	 cmp	 eax, 1
  00015	75 19		 jne	 SHORT $LN1@ToPlayEnti

; 124  : 
; 125  : 	return dynamic_cast< ioPlayEntity* >( pObj );

  00017	6a 00		 push	 0
  00019	68 00 00 00 00	 push	 OFFSET ??_R0?AVioPlayEntity@@@8
  0001e	68 00 00 00 00	 push	 OFFSET ??_R0?AVioGameEntity@@@8
  00023	6a 00		 push	 0
  00025	56		 push	 esi
  00026	e8 00 00 00 00	 call	 ___RTDynamicCast
  0002b	83 c4 14	 add	 esp, 20			; 00000014H
  0002e	eb 02		 jmp	 SHORT $LN3@ToPlayEnti
$LN1@ToPlayEnti:

; 123  : 		return NULL;

  00030	33 c0		 xor	 eax, eax
$LN3@ToPlayEnti:
  00032	5e		 pop	 esi

; 126  : }

  00033	5d		 pop	 ebp
  00034	c3		 ret	 0
?ToPlayEntity@@YAPAVioPlayEntity@@PAVioGameEntity@@@Z ENDP ; ToPlayEntity
_TEXT	ENDS
PUBLIC	?IsLive@ioWeapon@@QBE_NXZ			; ioWeapon::IsLive
; Function compile flags: /Ogsp
; File d:\lost saga for developer\youtube\tutorial\source\src\lsclient\ioweapon.h
;	COMDAT ?IsLive@ioWeapon@@QBE_NXZ
_TEXT	SEGMENT
?IsLive@ioWeapon@@QBE_NXZ PROC				; ioWeapon::IsLive, COMDAT
; _this$ = ecx

; 533  : 	inline bool IsLive() const { return m_bLive; }

  00000	8a 81 82 05 00
	00		 mov	 al, BYTE PTR [ecx+1410]
  00006	c3		 ret	 0
?IsLive@ioWeapon@@QBE_NXZ ENDP				; ioWeapon::IsLive
_TEXT	ENDS
PUBLIC	?GetOwnerName@ioWeapon@@QBEABVioHashString@@XZ	; ioWeapon::GetOwnerName
; Function compile flags: /Ogsp
;	COMDAT ?GetOwnerName@ioWeapon@@QBEABVioHashString@@XZ
_TEXT	SEGMENT
?GetOwnerName@ioWeapon@@QBEABVioHashString@@XZ PROC	; ioWeapon::GetOwnerName, COMDAT
; _this$ = ecx

; 636  : 	inline const ioHashString& GetOwnerName() const { return m_OwnerName; }

  00000	8d 41 10	 lea	 eax, DWORD PTR [ecx+16]
  00003	c3		 ret	 0
?GetOwnerName@ioWeapon@@QBEABVioHashString@@XZ ENDP	; ioWeapon::GetOwnerName
_TEXT	ENDS
PUBLIC	?GetParentSceneNode@ioWeapon@@QBEPAVioSceneNode@@XZ ; ioWeapon::GetParentSceneNode
; Function compile flags: /Ogsp
;	COMDAT ?GetParentSceneNode@ioWeapon@@QBEPAVioSceneNode@@XZ
_TEXT	SEGMENT
?GetParentSceneNode@ioWeapon@@QBEPAVioSceneNode@@XZ PROC ; ioWeapon::GetParentSceneNode, COMDAT
; _this$ = ecx

; 797  : 	ioSceneNode* GetParentSceneNode() const { return m_pSceneNode; }

  00000	8b 41 04	 mov	 eax, DWORD PTR [ecx+4]
  00003	c3		 ret	 0
?GetParentSceneNode@ioWeapon@@QBEPAVioSceneNode@@XZ ENDP ; ioWeapon::GetParentSceneNode
_TEXT	ENDS
PUBLIC	??_7?$CEncrypt@M@@6B@				; CEncrypt<float>::`vftable'
PUBLIC	??1?$CEncrypt@M@@UAE@XZ				; CEncrypt<float>::~CEncrypt<float>
PUBLIC	??_R4?$CEncrypt@M@@6B@				; CEncrypt<float>::`RTTI Complete Object Locator'
PUBLIC	??_R0?AV?$CEncrypt@M@@@8			; CEncrypt<float> `RTTI Type Descriptor'
PUBLIC	??_R3?$CEncrypt@M@@8				; CEncrypt<float>::`RTTI Class Hierarchy Descriptor'
PUBLIC	??_R2?$CEncrypt@M@@8				; CEncrypt<float>::`RTTI Base Class Array'
PUBLIC	??_R1A@?0A@EA@?$CEncrypt@M@@8			; CEncrypt<float>::`RTTI Base Class Descriptor at (0,-1,0,64)'
EXTRN	??1ccddaabb@@UAE@XZ:PROC			; ccddaabb::~ccddaabb
EXTRN	??_E?$CEncrypt@M@@UAEPAXI@Z:PROC		; CEncrypt<float>::`vector deleting destructor'
;	COMDAT ??_R1A@?0A@EA@?$CEncrypt@M@@8
; File d:\lost saga for developer\youtube\tutorial\source\src\lsclient\encryptvalue.h
rdata$r	SEGMENT
??_R1A@?0A@EA@?$CEncrypt@M@@8 DD FLAT:??_R0?AV?$CEncrypt@M@@@8 ; CEncrypt<float>::`RTTI Base Class Descriptor at (0,-1,0,64)'
	DD	00H
	DD	00H
	DD	0ffffffffH
	DD	00H
	DD	040H
	DD	FLAT:??_R3?$CEncrypt@M@@8
rdata$r	ENDS
;	COMDAT ??_R2?$CEncrypt@M@@8
rdata$r	SEGMENT
??_R2?$CEncrypt@M@@8 DD FLAT:??_R1A@?0A@EA@?$CEncrypt@M@@8 ; CEncrypt<float>::`RTTI Base Class Array'
rdata$r	ENDS
;	COMDAT ??_R3?$CEncrypt@M@@8
rdata$r	SEGMENT
??_R3?$CEncrypt@M@@8 DD 00H				; CEncrypt<float>::`RTTI Class Hierarchy Descriptor'
	DD	00H
	DD	01H
	DD	FLAT:??_R2?$CEncrypt@M@@8
rdata$r	ENDS
;	COMDAT ??_R0?AV?$CEncrypt@M@@@8
_DATA	SEGMENT
??_R0?AV?$CEncrypt@M@@@8 DD FLAT:??_7type_info@@6B@	; CEncrypt<float> `RTTI Type Descriptor'
	DD	00H
	DB	'.?AV?$CEncrypt@M@@', 00H
_DATA	ENDS
;	COMDAT ??_R4?$CEncrypt@M@@6B@
rdata$r	SEGMENT
??_R4?$CEncrypt@M@@6B@ DD 00H				; CEncrypt<float>::`RTTI Complete Object Locator'
	DD	00H
	DD	00H
	DD	FLAT:??_R0?AV?$CEncrypt@M@@@8
	DD	FLAT:??_R3?$CEncrypt@M@@8
rdata$r	ENDS
;	COMDAT ??_7?$CEncrypt@M@@6B@
CONST	SEGMENT
??_7?$CEncrypt@M@@6B@ DD FLAT:??_R4?$CEncrypt@M@@6B@	; CEncrypt<float>::`vftable'
	DD	FLAT:??_E?$CEncrypt@M@@UAEPAXI@Z
; Function compile flags: /Ogsp
CONST	ENDS
;	COMDAT ??1?$CEncrypt@M@@UAE@XZ
_TEXT	SEGMENT
??1?$CEncrypt@M@@UAE@XZ PROC				; CEncrypt<float>::~CEncrypt<float>, COMDAT
; _this$ = ecx

; 127  : 	{

  00000	c7 01 00 00 00
	00		 mov	 DWORD PTR [ecx], OFFSET ??_7?$CEncrypt@M@@6B@

; 128  : 	}

  00006	83 c1 0c	 add	 ecx, 12			; 0000000cH
  00009	e9 00 00 00 00	 jmp	 ??1ccddaabb@@UAE@XZ	; ccddaabb::~ccddaabb
??1?$CEncrypt@M@@UAE@XZ ENDP				; CEncrypt<float>::~CEncrypt<float>
_TEXT	ENDS
PUBLIC	??_7?$CEncrypt@K@@6B@				; CEncrypt<unsigned long>::`vftable'
PUBLIC	??1?$CEncrypt@K@@UAE@XZ				; CEncrypt<unsigned long>::~CEncrypt<unsigned long>
PUBLIC	??_R4?$CEncrypt@K@@6B@				; CEncrypt<unsigned long>::`RTTI Complete Object Locator'
PUBLIC	??_R0?AV?$CEncrypt@K@@@8			; CEncrypt<unsigned long> `RTTI Type Descriptor'
PUBLIC	??_R3?$CEncrypt@K@@8				; CEncrypt<unsigned long>::`RTTI Class Hierarchy Descriptor'
PUBLIC	??_R2?$CEncrypt@K@@8				; CEncrypt<unsigned long>::`RTTI Base Class Array'
PUBLIC	??_R1A@?0A@EA@?$CEncrypt@K@@8			; CEncrypt<unsigned long>::`RTTI Base Class Descriptor at (0,-1,0,64)'
EXTRN	??_E?$CEncrypt@K@@UAEPAXI@Z:PROC		; CEncrypt<unsigned long>::`vector deleting destructor'
;	COMDAT ??_R1A@?0A@EA@?$CEncrypt@K@@8
rdata$r	SEGMENT
??_R1A@?0A@EA@?$CEncrypt@K@@8 DD FLAT:??_R0?AV?$CEncrypt@K@@@8 ; CEncrypt<unsigned long>::`RTTI Base Class Descriptor at (0,-1,0,64)'
	DD	00H
	DD	00H
	DD	0ffffffffH
	DD	00H
	DD	040H
	DD	FLAT:??_R3?$CEncrypt@K@@8
rdata$r	ENDS
;	COMDAT ??_R2?$CEncrypt@K@@8
rdata$r	SEGMENT
??_R2?$CEncrypt@K@@8 DD FLAT:??_R1A@?0A@EA@?$CEncrypt@K@@8 ; CEncrypt<unsigned long>::`RTTI Base Class Array'
rdata$r	ENDS
;	COMDAT ??_R3?$CEncrypt@K@@8
rdata$r	SEGMENT
??_R3?$CEncrypt@K@@8 DD 00H				; CEncrypt<unsigned long>::`RTTI Class Hierarchy Descriptor'
	DD	00H
	DD	01H
	DD	FLAT:??_R2?$CEncrypt@K@@8
rdata$r	ENDS
;	COMDAT ??_R0?AV?$CEncrypt@K@@@8
_DATA	SEGMENT
??_R0?AV?$CEncrypt@K@@@8 DD FLAT:??_7type_info@@6B@	; CEncrypt<unsigned long> `RTTI Type Descriptor'
	DD	00H
	DB	'.?AV?$CEncrypt@K@@', 00H
_DATA	ENDS
;	COMDAT ??_R4?$CEncrypt@K@@6B@
rdata$r	SEGMENT
??_R4?$CEncrypt@K@@6B@ DD 00H				; CEncrypt<unsigned long>::`RTTI Complete Object Locator'
	DD	00H
	DD	00H
	DD	FLAT:??_R0?AV?$CEncrypt@K@@@8
	DD	FLAT:??_R3?$CEncrypt@K@@8
rdata$r	ENDS
;	COMDAT ??_7?$CEncrypt@K@@6B@
CONST	SEGMENT
??_7?$CEncrypt@K@@6B@ DD FLAT:??_R4?$CEncrypt@K@@6B@	; CEncrypt<unsigned long>::`vftable'
	DD	FLAT:??_E?$CEncrypt@K@@UAEPAXI@Z
; Function compile flags: /Ogsp
CONST	ENDS
;	COMDAT ??1?$CEncrypt@K@@UAE@XZ
_TEXT	SEGMENT
??1?$CEncrypt@K@@UAE@XZ PROC				; CEncrypt<unsigned long>::~CEncrypt<unsigned long>, COMDAT
; _this$ = ecx

; 127  : 	{

  00000	c7 01 00 00 00
	00		 mov	 DWORD PTR [ecx], OFFSET ??_7?$CEncrypt@K@@6B@

; 128  : 	}

  00006	83 c1 0c	 add	 ecx, 12			; 0000000cH
  00009	e9 00 00 00 00	 jmp	 ??1ccddaabb@@UAE@XZ	; ccddaabb::~ccddaabb
??1?$CEncrypt@K@@UAE@XZ ENDP				; CEncrypt<unsigned long>::~CEncrypt<unsigned long>
_TEXT	ENDS
EXTRN	??3@YAXPAX@Z:PROC				; operator delete
; Function compile flags: /Ogsp
;	COMDAT ??_G?$CEncrypt@M@@UAEPAXI@Z
_TEXT	SEGMENT
___flags$ = 8						; size = 4
??_G?$CEncrypt@M@@UAEPAXI@Z PROC			; CEncrypt<float>::`scalar deleting destructor', COMDAT
; _this$ = ecx
  00000	55		 push	 ebp
  00001	8b ec		 mov	 ebp, esp
  00003	56		 push	 esi
  00004	8b f1		 mov	 esi, ecx
  00006	8d 4e 0c	 lea	 ecx, DWORD PTR [esi+12]
  00009	c7 06 00 00 00
	00		 mov	 DWORD PTR [esi], OFFSET ??_7?$CEncrypt@M@@6B@
  0000f	e8 00 00 00 00	 call	 ??1ccddaabb@@UAE@XZ	; ccddaabb::~ccddaabb
  00014	f6 45 08 01	 test	 BYTE PTR ___flags$[ebp], 1
  00018	74 07		 je	 SHORT $LN1@scalar
  0001a	56		 push	 esi
  0001b	e8 00 00 00 00	 call	 ??3@YAXPAX@Z		; operator delete
  00020	59		 pop	 ecx
$LN1@scalar:
  00021	8b c6		 mov	 eax, esi
  00023	5e		 pop	 esi
  00024	5d		 pop	 ebp
  00025	c2 04 00	 ret	 4
??_G?$CEncrypt@M@@UAEPAXI@Z ENDP			; CEncrypt<float>::`scalar deleting destructor'
; Function compile flags: /Ogsp
_TEXT	ENDS
;	COMDAT ??_G?$CEncrypt@K@@UAEPAXI@Z
_TEXT	SEGMENT
___flags$ = 8						; size = 4
??_G?$CEncrypt@K@@UAEPAXI@Z PROC			; CEncrypt<unsigned long>::`scalar deleting destructor', COMDAT
; _this$ = ecx
  00000	55		 push	 ebp
  00001	8b ec		 mov	 ebp, esp
  00003	56		 push	 esi
  00004	8b f1		 mov	 esi, ecx
  00006	8d 4e 0c	 lea	 ecx, DWORD PTR [esi+12]
  00009	c7 06 00 00 00
	00		 mov	 DWORD PTR [esi], OFFSET ??_7?$CEncrypt@K@@6B@
  0000f	e8 00 00 00 00	 call	 ??1ccddaabb@@UAE@XZ	; ccddaabb::~ccddaabb
  00014	f6 45 08 01	 test	 BYTE PTR ___flags$[ebp], 1
  00018	74 07		 je	 SHORT $LN1@scalar@2
  0001a	56		 push	 esi
  0001b	e8 00 00 00 00	 call	 ??3@YAXPAX@Z		; operator delete
  00020	59		 pop	 ecx
$LN1@scalar@2:
  00021	8b c6		 mov	 eax, esi
  00023	5e		 pop	 esi
  00024	5d		 pop	 ebp
  00025	c2 04 00	 ret	 4
??_G?$CEncrypt@K@@UAEPAXI@Z ENDP			; CEncrypt<unsigned long>::`scalar deleting destructor'
_TEXT	ENDS
PUBLIC	?EncryptValueToPool@?$CEncrypt@M@@AAEXPBD@Z	; CEncrypt<float>::EncryptValueToPool
EXTRN	?EncryptByte@ccddaabb@@QAEXPBDPADH@Z:PROC	; ccddaabb::EncryptByte
; Function compile flags: /Ogsp
;	COMDAT ?EncryptValueToPool@?$CEncrypt@M@@AAEXPBD@Z
_TEXT	SEGMENT
_value$ = 8						; size = 4
?EncryptValueToPool@?$CEncrypt@M@@AAEXPBD@Z PROC	; CEncrypt<float>::EncryptValueToPool, COMDAT
; _this$ = ecx

; 67   : 	{

  00000	55		 push	 ebp
  00001	8b ec		 mov	 ebp, esp

; 68   : 		m_RC5.EncryptByte( value, m_MemPool, max(m_ValueSize, DEFAULT_ENCRYPT) );

  00003	0f b7 41 06	 movzx	 eax, WORD PTR [ecx+6]
  00007	83 f8 04	 cmp	 eax, 4
  0000a	77 03		 ja	 SHORT $LN4@EncryptVal
  0000c	6a 04		 push	 4
  0000e	58		 pop	 eax
$LN4@EncryptVal:
  0000f	50		 push	 eax
  00010	8d 41 1c	 lea	 eax, DWORD PTR [ecx+28]
  00013	50		 push	 eax
  00014	ff 75 08	 push	 DWORD PTR _value$[ebp]
  00017	83 c1 0c	 add	 ecx, 12			; 0000000cH
  0001a	e8 00 00 00 00	 call	 ?EncryptByte@ccddaabb@@QAEXPBDPADH@Z ; ccddaabb::EncryptByte

; 69   : 		
; 70   : 	}

  0001f	5d		 pop	 ebp
  00020	c2 04 00	 ret	 4
?EncryptValueToPool@?$CEncrypt@M@@AAEXPBD@Z ENDP	; CEncrypt<float>::EncryptValueToPool
_TEXT	ENDS
PUBLIC	?Init@?$CEncrypt@M@@AAEXXZ			; CEncrypt<float>::Init
EXTRN	?Setup@ccddaabb@@QAEXPBDHH@Z:PROC		; ccddaabb::Setup
EXTRN	__imp__rand:PROC
EXTRN	__imp__timeGetTime@0:PROC
EXTRN	__imp__GetCurrentProcessId@0:PROC
; Function compile flags: /Ogsp
;	COMDAT ?Init@?$CEncrypt@M@@AAEXXZ
_TEXT	SEGMENT
_pid$ = -8						; size = 4
_tick$ = -4						; size = 4
?Init@?$CEncrypt@M@@AAEXXZ PROC				; CEncrypt<float>::Init, COMDAT
; _this$ = ecx

; 73   : 	{

  00000	55		 push	 ebp
  00001	8b ec		 mov	 ebp, esp
  00003	51		 push	 ecx
  00004	51		 push	 ecx
  00005	53		 push	 ebx
  00006	56		 push	 esi
  00007	57		 push	 edi
  00008	8b f1		 mov	 esi, ecx

; 74   : 		DWORD pid = GetCurrentProcessId();

  0000a	ff 15 00 00 00
	00		 call	 DWORD PTR __imp__GetCurrentProcessId@0
  00010	89 45 f8	 mov	 DWORD PTR _pid$[ebp], eax

; 75   : 		DWORD tick = timeGetTime();

  00013	ff 15 00 00 00
	00		 call	 DWORD PTR __imp__timeGetTime@0

; 76   : 		m_ValueSize    = sizeof(type);
; 77   : 		m_MemPoolPos   = (unsigned short)( rand()+pid+tick )%(MAX_MEM_POOL-m_ValueSize);

  00019	8b 3d 00 00 00
	00		 mov	 edi, DWORD PTR __imp__rand
  0001f	89 45 fc	 mov	 DWORD PTR _tick$[ebp], eax
  00022	6a 04		 push	 4
  00024	58		 pop	 eax
  00025	66 89 46 06	 mov	 WORD PTR [esi+6], ax
  00029	ff d7		 call	 edi
  0002b	03 45 f8	 add	 eax, DWORD PTR _pid$[ebp]
  0002e	0f b7 4e 06	 movzx	 ecx, WORD PTR [esi+6]
  00032	03 45 fc	 add	 eax, DWORD PTR _tick$[ebp]
  00035	6a 0c		 push	 12			; 0000000cH
  00037	0f b7 c0	 movzx	 eax, ax
  0003a	5b		 pop	 ebx
  0003b	99		 cdq
  0003c	2b d9		 sub	 ebx, ecx
  0003e	f7 fb		 idiv	 ebx
  00040	66 89 56 04	 mov	 WORD PTR [esi+4], dx

; 78   : 		m_EncryptSeed  = (char)( rand()+pid+tick )%256;

  00044	ff d7		 call	 edi
  00046	02 45 f8	 add	 al, BYTE PTR _pid$[ebp]
  00049	02 45 fc	 add	 al, BYTE PTR _tick$[ebp]
  0004c	0f be c0	 movsx	 eax, al
  0004f	25 ff 00 00 80	 and	 eax, -2147483393	; 800000ffH
  00054	79 07		 jns	 SHORT $LN8@Init
  00056	48		 dec	 eax
  00057	0d 00 ff ff ff	 or	 eax, -256		; ffffff00H
  0005c	40		 inc	 eax
$LN8@Init:
  0005d	88 46 08	 mov	 BYTE PTR [esi+8], al

; 79   : 
; 80   : 		for (int i = 0; i < MAX_MEM_POOL ; i++)

  00060	33 db		 xor	 ebx, ebx
$LL3@Init:

; 81   : 			m_MemPool[i] = (char)( rand()+pid+tick )%256; // 

  00062	ff d7		 call	 edi
  00064	02 45 f8	 add	 al, BYTE PTR _pid$[ebp]
  00067	02 45 fc	 add	 al, BYTE PTR _tick$[ebp]
  0006a	0f be c0	 movsx	 eax, al
  0006d	25 ff 00 00 80	 and	 eax, -2147483393	; 800000ffH
  00072	79 07		 jns	 SHORT $LN9@Init
  00074	48		 dec	 eax
  00075	0d 00 ff ff ff	 or	 eax, -256		; ffffff00H
  0007a	40		 inc	 eax
$LN9@Init:
  0007b	88 44 1e 1c	 mov	 BYTE PTR [esi+ebx+28], al
  0007f	43		 inc	 ebx
  00080	83 fb 0c	 cmp	 ebx, 12			; 0000000cH
  00083	7c dd		 jl	 SHORT $LL3@Init

; 82   : 
; 83   : 		//UJ 130913, : szKey  
; 84   : 		//char szKey[ccddaabb::KEY_SIZE];//="";
; 85   : 		//for (int i = 0; i < ccddaabb::KEY_SIZE  ; i++)
; 86   : 		//	szKey[i] = (char)( rand()+pid+tick )%256; // 
; 87   : 		m_RC5.Setup( NULL, pid, tick );

  00085	ff 75 fc	 push	 DWORD PTR _tick$[ebp]
  00088	8d 4e 0c	 lea	 ecx, DWORD PTR [esi+12]
  0008b	ff 75 f8	 push	 DWORD PTR _pid$[ebp]
  0008e	6a 00		 push	 0
  00090	e8 00 00 00 00	 call	 ?Setup@ccddaabb@@QAEXPBDHH@Z ; ccddaabb::Setup
  00095	5f		 pop	 edi
  00096	5e		 pop	 esi
  00097	5b		 pop	 ebx

; 88   : 
; 89   : #ifdef _NOTUSE
; 90   : 		m_value        = 0;
; 91   : 		EncryptValueToPool((char*)&m_value);
; 92   : 		Debug();
; 93   : #endif
; 94   : 	}

  00098	c9		 leave
  00099	c3		 ret	 0
?Init@?$CEncrypt@M@@AAEXXZ ENDP				; CEncrypt<float>::Init
_TEXT	ENDS
PUBLIC	?DecryptValueToPool@?$CEncrypt@M@@QAEXPAM@Z	; CEncrypt<float>::DecryptValueToPool
EXTRN	?DecryptByte@ccddaabb@@QBEXPBDPADH@Z:PROC	; ccddaabb::DecryptByte
; Function compile flags: /Ogsp
;	COMDAT ?DecryptValueToPool@?$CEncrypt@M@@QAEXPAM@Z
_TEXT	SEGMENT
_value$ = 8						; size = 4
?DecryptValueToPool@?$CEncrypt@M@@QAEXPAM@Z PROC	; CEncrypt<float>::DecryptValueToPool, COMDAT
; _this$ = ecx

; 1648 : 	{

  00000	55		 push	 ebp
  00001	8b ec		 mov	 ebp, esp
  00003	56		 push	 esi

; 1649 : 		m_RC5.DecryptByte( m_MemPool, m_TempMem, 4 );

  00004	8d 71 28	 lea	 esi, DWORD PTR [ecx+40]
  00007	6a 04		 push	 4
  00009	8d 41 1c	 lea	 eax, DWORD PTR [ecx+28]
  0000c	56		 push	 esi
  0000d	50		 push	 eax
  0000e	83 c1 0c	 add	 ecx, 12			; 0000000cH
  00011	e8 00 00 00 00	 call	 ?DecryptByte@ccddaabb@@QBEXPBDPADH@Z ; ccddaabb::DecryptByte

; 1650 : 		*value = *((float*)m_TempMem);

  00016	d9 06		 fld	 DWORD PTR [esi]
  00018	8b 45 08	 mov	 eax, DWORD PTR _value$[ebp]
  0001b	d9 18		 fstp	 DWORD PTR [eax]
  0001d	5e		 pop	 esi

; 1651 : 	}

  0001e	5d		 pop	 ebp
  0001f	c2 04 00	 ret	 4
?DecryptValueToPool@?$CEncrypt@M@@QAEXPAM@Z ENDP	; CEncrypt<float>::DecryptValueToPool
_TEXT	ENDS
PUBLIC	?EncryptValueToPool@?$CEncrypt@K@@AAEXPBD@Z	; CEncrypt<unsigned long>::EncryptValueToPool
; Function compile flags: /Ogsp
;	COMDAT ?EncryptValueToPool@?$CEncrypt@K@@AAEXPBD@Z
_TEXT	SEGMENT
_value$ = 8						; size = 4
?EncryptValueToPool@?$CEncrypt@K@@AAEXPBD@Z PROC	; CEncrypt<unsigned long>::EncryptValueToPool, COMDAT
; _this$ = ecx

; 67   : 	{

  00000	55		 push	 ebp
  00001	8b ec		 mov	 ebp, esp

; 68   : 		m_RC5.EncryptByte( value, m_MemPool, max(m_ValueSize, DEFAULT_ENCRYPT) );

  00003	0f b7 41 06	 movzx	 eax, WORD PTR [ecx+6]
  00007	83 f8 04	 cmp	 eax, 4
  0000a	77 03		 ja	 SHORT $LN4@EncryptVal@2
  0000c	6a 04		 push	 4
  0000e	58		 pop	 eax
$LN4@EncryptVal@2:
  0000f	50		 push	 eax
  00010	8d 41 1c	 lea	 eax, DWORD PTR [ecx+28]
  00013	50		 push	 eax
  00014	ff 75 08	 push	 DWORD PTR _value$[ebp]
  00017	83 c1 0c	 add	 ecx, 12			; 0000000cH
  0001a	e8 00 00 00 00	 call	 ?EncryptByte@ccddaabb@@QAEXPBDPADH@Z ; ccddaabb::EncryptByte

; 69   : 		
; 70   : 	}

  0001f	5d		 pop	 ebp
  00020	c2 04 00	 ret	 4
?EncryptValueToPool@?$CEncrypt@K@@AAEXPBD@Z ENDP	; CEncrypt<unsigned long>::EncryptValueToPool
_TEXT	ENDS
PUBLIC	?Init@?$CEncrypt@K@@AAEXXZ			; CEncrypt<unsigned long>::Init
; Function compile flags: /Ogsp
;	COMDAT ?Init@?$CEncrypt@K@@AAEXXZ
_TEXT	SEGMENT
_pid$ = -8						; size = 4
_tick$ = -4						; size = 4
?Init@?$CEncrypt@K@@AAEXXZ PROC				; CEncrypt<unsigned long>::Init, COMDAT
; _this$ = ecx

; 73   : 	{

  00000	55		 push	 ebp
  00001	8b ec		 mov	 ebp, esp
  00003	51		 push	 ecx
  00004	51		 push	 ecx
  00005	53		 push	 ebx
  00006	56		 push	 esi
  00007	57		 push	 edi
  00008	8b f1		 mov	 esi, ecx

; 74   : 		DWORD pid = GetCurrentProcessId();

  0000a	ff 15 00 00 00
	00		 call	 DWORD PTR __imp__GetCurrentProcessId@0
  00010	89 45 f8	 mov	 DWORD PTR _pid$[ebp], eax

; 75   : 		DWORD tick = timeGetTime();

  00013	ff 15 00 00 00
	00		 call	 DWORD PTR __imp__timeGetTime@0

; 76   : 		m_ValueSize    = sizeof(type);
; 77   : 		m_MemPoolPos   = (unsigned short)( rand()+pid+tick )%(MAX_MEM_POOL-m_ValueSize);

  00019	8b 3d 00 00 00
	00		 mov	 edi, DWORD PTR __imp__rand
  0001f	89 45 fc	 mov	 DWORD PTR _tick$[ebp], eax
  00022	6a 04		 push	 4
  00024	58		 pop	 eax
  00025	66 89 46 06	 mov	 WORD PTR [esi+6], ax
  00029	ff d7		 call	 edi
  0002b	03 45 f8	 add	 eax, DWORD PTR _pid$[ebp]
  0002e	0f b7 4e 06	 movzx	 ecx, WORD PTR [esi+6]
  00032	03 45 fc	 add	 eax, DWORD PTR _tick$[ebp]
  00035	6a 0c		 push	 12			; 0000000cH
  00037	0f b7 c0	 movzx	 eax, ax
  0003a	5b		 pop	 ebx
  0003b	99		 cdq
  0003c	2b d9		 sub	 ebx, ecx
  0003e	f7 fb		 idiv	 ebx
  00040	66 89 56 04	 mov	 WORD PTR [esi+4], dx

; 78   : 		m_EncryptSeed  = (char)( rand()+pid+tick )%256;

  00044	ff d7		 call	 edi
  00046	02 45 f8	 add	 al, BYTE PTR _pid$[ebp]
  00049	02 45 fc	 add	 al, BYTE PTR _tick$[ebp]
  0004c	0f be c0	 movsx	 eax, al
  0004f	25 ff 00 00 80	 and	 eax, -2147483393	; 800000ffH
  00054	79 07		 jns	 SHORT $LN8@Init@2
  00056	48		 dec	 eax
  00057	0d 00 ff ff ff	 or	 eax, -256		; ffffff00H
  0005c	40		 inc	 eax
$LN8@Init@2:
  0005d	88 46 08	 mov	 BYTE PTR [esi+8], al

; 79   : 
; 80   : 		for (int i = 0; i < MAX_MEM_POOL ; i++)

  00060	33 db		 xor	 ebx, ebx
$LL3@Init@2:

; 81   : 			m_MemPool[i] = (char)( rand()+pid+tick )%256; // 

  00062	ff d7		 call	 edi
  00064	02 45 f8	 add	 al, BYTE PTR _pid$[ebp]
  00067	02 45 fc	 add	 al, BYTE PTR _tick$[ebp]
  0006a	0f be c0	 movsx	 eax, al
  0006d	25 ff 00 00 80	 and	 eax, -2147483393	; 800000ffH
  00072	79 07		 jns	 SHORT $LN9@Init@2
  00074	48		 dec	 eax
  00075	0d 00 ff ff ff	 or	 eax, -256		; ffffff00H
  0007a	40		 inc	 eax
$LN9@Init@2:
  0007b	88 44 1e 1c	 mov	 BYTE PTR [esi+ebx+28], al
  0007f	43		 inc	 ebx
  00080	83 fb 0c	 cmp	 ebx, 12			; 0000000cH
  00083	7c dd		 jl	 SHORT $LL3@Init@2

; 82   : 
; 83   : 		//UJ 130913, : szKey  
; 84   : 		//char szKey[ccddaabb::KEY_SIZE];//="";
; 85   : 		//for (int i = 0; i < ccddaabb::KEY_SIZE  ; i++)
; 86   : 		//	szKey[i] = (char)( rand()+pid+tick )%256; // 
; 87   : 		m_RC5.Setup( NULL, pid, tick );

  00085	ff 75 fc	 push	 DWORD PTR _tick$[ebp]
  00088	8d 4e 0c	 lea	 ecx, DWORD PTR [esi+12]
  0008b	ff 75 f8	 push	 DWORD PTR _pid$[ebp]
  0008e	6a 00		 push	 0
  00090	e8 00 00 00 00	 call	 ?Setup@ccddaabb@@QAEXPBDHH@Z ; ccddaabb::Setup
  00095	5f		 pop	 edi
  00096	5e		 pop	 esi
  00097	5b		 pop	 ebx

; 88   : 
; 89   : #ifdef _NOTUSE
; 90   : 		m_value        = 0;
; 91   : 		EncryptValueToPool((char*)&m_value);
; 92   : 		Debug();
; 93   : #endif
; 94   : 	}

  00098	c9		 leave
  00099	c3		 ret	 0
?Init@?$CEncrypt@K@@AAEXXZ ENDP				; CEncrypt<unsigned long>::Init
_TEXT	ENDS
PUBLIC	?DecryptValueToPool@?$CEncrypt@K@@QAEXPAK@Z	; CEncrypt<unsigned long>::DecryptValueToPool
; Function compile flags: /Ogsp
;	COMDAT ?DecryptValueToPool@?$CEncrypt@K@@QAEXPAK@Z
_TEXT	SEGMENT
_value$ = 8						; size = 4
?DecryptValueToPool@?$CEncrypt@K@@QAEXPAK@Z PROC	; CEncrypt<unsigned long>::DecryptValueToPool, COMDAT
; _this$ = ecx

; 1256 : 	{

  00000	55		 push	 ebp
  00001	8b ec		 mov	 ebp, esp
  00003	56		 push	 esi

; 1257 : 		m_RC5.DecryptByte( m_MemPool, m_TempMem, 4 );

  00004	8d 71 28	 lea	 esi, DWORD PTR [ecx+40]
  00007	6a 04		 push	 4
  00009	8d 41 1c	 lea	 eax, DWORD PTR [ecx+28]
  0000c	56		 push	 esi
  0000d	50		 push	 eax
  0000e	83 c1 0c	 add	 ecx, 12			; 0000000cH
  00011	e8 00 00 00 00	 call	 ?DecryptByte@ccddaabb@@QBEXPBDPADH@Z ; ccddaabb::DecryptByte

; 1258 : 		*value = *((DWORD*)m_TempMem);

  00016	8b 06		 mov	 eax, DWORD PTR [esi]
  00018	8b 4d 08	 mov	 ecx, DWORD PTR _value$[ebp]
  0001b	89 01		 mov	 DWORD PTR [ecx], eax
  0001d	5e		 pop	 esi

; 1259 : 	}

  0001e	5d		 pop	 ebp
  0001f	c2 04 00	 ret	 4
?DecryptValueToPool@?$CEncrypt@K@@QAEXPAK@Z ENDP	; CEncrypt<unsigned long>::DecryptValueToPool
_TEXT	ENDS
PUBLIC	??_R0?AVioBaseChar@@@8				; ioBaseChar `RTTI Type Descriptor'
PUBLIC	?ToBaseChar@@YAPAVioBaseChar@@PAVioGameEntity@@@Z ; ToBaseChar
;	COMDAT ??_R0?AVioBaseChar@@@8
; File d:\lost saga for developer\youtube\tutorial\source\src\lsclient\iobasechar.h
_DATA	SEGMENT
??_R0?AVioBaseChar@@@8 DD FLAT:??_7type_info@@6B@	; ioBaseChar `RTTI Type Descriptor'
	DD	00H
	DB	'.?AVioBaseChar@@', 00H
; Function compile flags: /Ogsp
_DATA	ENDS
;	COMDAT ?ToBaseChar@@YAPAVioBaseChar@@PAVioGameEntity@@@Z
_TEXT	SEGMENT
_pObj$ = 8						; size = 4
?ToBaseChar@@YAPAVioBaseChar@@PAVioGameEntity@@@Z PROC	; ToBaseChar, COMDAT

; 4326 : {

  00000	55		 push	 ebp
  00001	8b ec		 mov	 ebp, esp
  00003	56		 push	 esi

; 4327 : 	ioPlayEntity *pPlay = ToPlayEntity( pObj );

  00004	ff 75 08	 push	 DWORD PTR _pObj$[ebp]
  00007	e8 00 00 00 00	 call	 ?ToPlayEntity@@YAPAVioPlayEntity@@PAVioGameEntity@@@Z ; ToPlayEntity
  0000c	8b f0		 mov	 esi, eax
  0000e	59		 pop	 ecx

; 4328 : 	if( !pPlay || pPlay->GetSubType() != ioPlayEntity::PST_CHAR )

  0000f	85 f6		 test	 esi, esi
  00011	74 25		 je	 SHORT $LN1@ToBaseChar
  00013	8b 06		 mov	 eax, DWORD PTR [esi]
  00015	8b ce		 mov	 ecx, esi
  00017	ff 90 a4 00 00
	00		 call	 DWORD PTR [eax+164]
  0001d	85 c0		 test	 eax, eax
  0001f	75 17		 jne	 SHORT $LN1@ToBaseChar

; 4330 : 
; 4331 : 	return dynamic_cast< ioBaseChar* >( pPlay );

  00021	50		 push	 eax
  00022	68 00 00 00 00	 push	 OFFSET ??_R0?AVioBaseChar@@@8
  00027	68 00 00 00 00	 push	 OFFSET ??_R0?AVioPlayEntity@@@8
  0002c	50		 push	 eax
  0002d	56		 push	 esi
  0002e	e8 00 00 00 00	 call	 ___RTDynamicCast
  00033	83 c4 14	 add	 esp, 20			; 00000014H
  00036	eb 02		 jmp	 SHORT $LN3@ToBaseChar
$LN1@ToBaseChar:

; 4329 : 		return NULL;

  00038	33 c0		 xor	 eax, eax
$LN3@ToBaseChar:
  0003a	5e		 pop	 esi

; 4332 : }

  0003b	5d		 pop	 ebp
  0003c	c3		 ret	 0
?ToBaseChar@@YAPAVioBaseChar@@PAVioGameEntity@@@Z ENDP	; ToBaseChar
_TEXT	ENDS
PUBLIC	??_C@_0DJ@FCJHDHGJ@ioUroborusWeapon?3?3?$HOioUroborusWea@ ; `string'
PUBLIC	??_7ioUroborusWeapon@@6B@			; ioUroborusWeapon::`vftable'
PUBLIC	??1ioUroborusWeapon@@UAE@XZ			; ioUroborusWeapon::~ioUroborusWeapon
PUBLIC	??_R4ioUroborusWeapon@@6B@			; ioUroborusWeapon::`RTTI Complete Object Locator'
PUBLIC	??_R0?AVioUroborusWeapon@@@8			; ioUroborusWeapon `RTTI Type Descriptor'
PUBLIC	??_R3ioUroborusWeapon@@8			; ioUroborusWeapon::`RTTI Class Hierarchy Descriptor'
PUBLIC	??_R2ioUroborusWeapon@@8			; ioUroborusWeapon::`RTTI Base Class Array'
PUBLIC	??_R1A@?0A@EA@ioUroborusWeapon@@8		; ioUroborusWeapon::`RTTI Base Class Descriptor at (0,-1,0,64)'
PUBLIC	??_R1A@?0A@EA@ioWeapon@@8			; ioWeapon::`RTTI Base Class Descriptor at (0,-1,0,64)'
PUBLIC	??_R0?AVioWeapon@@@8				; ioWeapon `RTTI Type Descriptor'
PUBLIC	??_R3ioWeapon@@8				; ioWeapon::`RTTI Class Hierarchy Descriptor'
PUBLIC	??_R2ioWeapon@@8				; ioWeapon::`RTTI Base Class Array'
PUBLIC	?SetOwnerChargeScaleRate@ioUroborusWeapon@@UAEXM@Z ; ioUroborusWeapon::SetOwnerChargeScaleRate
PUBLIC	?SetTeam@ioUroborusWeapon@@UAEXPAVioPlayStage@@W4TeamType@@@Z ; ioUroborusWeapon::SetTeam
PUBLIC	?LoadProperty@ioUroborusWeapon@@UAEXAAVioINILoader@@@Z ; ioUroborusWeapon::LoadProperty
PUBLIC	?Process@ioUroborusWeapon@@UAEXMPAVioPlayStage@@@Z ; ioUroborusWeapon::Process
PUBLIC	?IsCollision@ioUroborusWeapon@@UAE_NPAVioPlayEntity@@_N@Z ; ioUroborusWeapon::IsCollision
PUBLIC	?TestMapCollision@ioUroborusWeapon@@UAE_NPAVioOpcodeShape@@PAVioPlayStage@@PBUD3DXMATRIX@@@Z ; ioUroborusWeapon::TestMapCollision
PUBLIC	?ApplyWeaponSync@ioUroborusWeapon@@UAEXAAVSP2Packet@@PAVioPlayStage@@@Z ; ioUroborusWeapon::ApplyWeaponSync
PUBLIC	?UpdateWorldAttackBox@ioUroborusWeapon@@MAEXM_N@Z ; ioUroborusWeapon::UpdateWorldAttackBox
EXTRN	??1ioWeapon@@UAE@XZ:PROC			; ioWeapon::~ioWeapon
EXTRN	__imp_??1ioOrientBox@@QAE@XZ:PROC
EXTRN	__imp_?PrintTimeAndLog@CLog@@QAAXHPADZZ:PROC
EXTRN	__imp_?LOG@@3VCLog@@A:BYTE
EXTRN	?IsAlreadyCollisioned@ioWeapon@@UAE_NPAVioPlayEntity@@@Z:PROC ; ioWeapon::IsAlreadyCollisioned
EXTRN	?AddCollisionEntity@ioWeapon@@UAEXPAVioPlayEntity@@@Z:PROC ; ioWeapon::AddCollisionEntity
EXTRN	?SetOwnerDamageRate@ioWeapon@@UAEXM@Z:PROC	; ioWeapon::SetOwnerDamageRate
EXTRN	?SetOwnerChargeDamageRate@ioWeapon@@UAEXM@Z:PROC ; ioWeapon::SetOwnerChargeDamageRate
EXTRN	?SetOwnerChargeForceRate@ioWeapon@@UAEXM@Z:PROC	; ioWeapon::SetOwnerChargeForceRate
EXTRN	?SetOwnerChargeRangeRate@ioWeapon@@UAEXM@Z:PROC	; ioWeapon::SetOwnerChargeRangeRate
EXTRN	?SetOwnerChargeSpeedRate@ioWeapon@@UAEXM@Z:PROC	; ioWeapon::SetOwnerChargeSpeedRate
EXTRN	?SetOwnerChargeBlowRate@ioWeapon@@UAEXM@Z:PROC	; ioWeapon::SetOwnerChargeBlowRate
EXTRN	?SetOwnerChargeFloatRate@ioWeapon@@UAEXM@Z:PROC	; ioWeapon::SetOwnerChargeFloatRate
EXTRN	?SetOwnerChargeExplosionRate@ioWeapon@@UAEXM@Z:PROC ; ioWeapon::SetOwnerChargeExplosionRate
EXTRN	?SetOwnerChargeWoundedTimeRate@ioWeapon@@UAEXM@Z:PROC ; ioWeapon::SetOwnerChargeWoundedTimeRate
EXTRN	?SetOwnerChargeLiveTimeRate@ioWeapon@@UAEXM@Z:PROC ; ioWeapon::SetOwnerChargeLiveTimeRate
EXTRN	?SetOwnerChargeBuffLiveTimeRate@ioWeapon@@UAEXM@Z:PROC ; ioWeapon::SetOwnerChargeBuffLiveTimeRate
EXTRN	?SetGrapplingTargetName@ioWeapon@@UAEXABVioHashString@@@Z:PROC ; ioWeapon::SetGrapplingTargetName
EXTRN	?SetCreateItem@ioWeapon@@UAEXABVioHashString@@@Z:PROC ; ioWeapon::SetCreateItem
EXTRN	?CallReserveAreaWeapon@ioWeapon@@UAEXXZ:PROC	; ioWeapon::CallReserveAreaWeapon
EXTRN	?SetWeaponDead@ioWeapon@@UAEXXZ:PROC		; ioWeapon::SetWeaponDead
EXTRN	?PlayExplosionSound@ioWeapon@@UAEXXZ:PROC	; ioWeapon::PlayExplosionSound
EXTRN	?PlayWoundedSound@ioWeapon@@UAEXPAVioPlayEntity@@@Z:PROC ; ioWeapon::PlayWoundedSound
EXTRN	?PlayDefensedSound@ioWeapon@@UAEXPAVioPlayEntity@@@Z:PROC ; ioWeapon::PlayDefensedSound
EXTRN	?PlayLoopSound@ioWeapon@@UAEXXZ:PROC		; ioWeapon::PlayLoopSound
EXTRN	?StopLoopSound@ioWeapon@@UAEXXZ:PROC		; ioWeapon::StopLoopSound
EXTRN	?GetTargetAirBuffList@ioWeapon@@UBEABV?$vector@UBuffInfoStruct@@V?$allocator@UBuffInfoStruct@@@std@@@std@@XZ:PROC ; ioWeapon::GetTargetAirBuffList
EXTRN	?GetTargetBuffList@ioWeapon@@UBEABV?$vector@UBuffInfoStruct@@V?$allocator@UBuffInfoStruct@@@std@@@std@@XZ:PROC ; ioWeapon::GetTargetBuffList
EXTRN	?GetTargetDownBuffList@ioWeapon@@UBEABV?$vector@UBuffInfoStruct@@V?$allocator@UBuffInfoStruct@@@std@@@std@@XZ:PROC ; ioWeapon::GetTargetDownBuffList
EXTRN	?GetPosition@ioWeapon@@UBEABUD3DXVECTOR3@@XZ:PROC ; ioWeapon::GetPosition
EXTRN	?GetBlowType@ioWeapon@@UBE?AW4BlowTargetType@@XZ:PROC ; ioWeapon::GetBlowType
EXTRN	?GetPushPower@ioWeapon@@UBEMM@Z:PROC		; ioWeapon::GetPushPower
EXTRN	?GetBlowPower@ioWeapon@@UBEMM@Z:PROC		; ioWeapon::GetBlowPower
EXTRN	?GetAirPushPower@ioWeapon@@UBEMM@Z:PROC		; ioWeapon::GetAirPushPower
EXTRN	?GetAirBlowPower@ioWeapon@@UBEMM@Z:PROC		; ioWeapon::GetAirBlowPower
EXTRN	?GetDefensePushPower@ioWeapon@@UBEMM@Z:PROC	; ioWeapon::GetDefensePushPower
EXTRN	?SetSylphid@ioWeapon@@UAEHXZ:PROC		; ioWeapon::SetSylphid
EXTRN	?ApplyExtraReserveWeaponByWeaponInfo@ioWeapon@@UAEXPAV1@@Z:PROC ; ioWeapon::ApplyExtraReserveWeaponByWeaponInfo
EXTRN	?SetResistanceAttr@ioWeapon@@UAEXH@Z:PROC	; ioWeapon::SetResistanceAttr
EXTRN	?SetStartCollisionBox@ioWeapon@@UAEXXZ:PROC	; ioWeapon::SetStartCollisionBox
EXTRN	?SetLiveTime@ioWeapon@@UAEXK@Z:PROC		; ioWeapon::SetLiveTime
EXTRN	?SetMoveSpeed@ioWeapon@@UAEXM@Z:PROC		; ioWeapon::SetMoveSpeed
EXTRN	?SetFloatPower@ioWeapon@@UAEXM@Z:PROC		; ioWeapon::SetFloatPower
EXTRN	?CheckPreCollision@ioWeapon@@UAEXPAVioPlayEntity@@PAVioPlayStage@@@Z:PROC ; ioWeapon::CheckPreCollision
EXTRN	?CheckStructAndDummy@ioWeapon@@UAEXPAVioPlayEntity@@PAVioPlayStage@@@Z:PROC ; ioWeapon::CheckStructAndDummy
EXTRN	?GetDamage@ioWeapon@@UAEMPAVioPlayEntity@@@Z:PROC ; ioWeapon::GetDamage
EXTRN	?GetBaseDamage@ioWeapon@@UAEMPAVioPlayEntity@@@Z:PROC ; ioWeapon::GetBaseDamage
EXTRN	?GetPushAngle@ioWeapon@@UBEMXZ:PROC		; ioWeapon::GetPushAngle
EXTRN	?IsResistanceMagic@ioWeapon@@UAEHPAVioBaseChar@@@Z:PROC ; ioWeapon::IsResistanceMagic
EXTRN	?IsResistanceBomb@ioWeapon@@UAEHPAVioBaseChar@@@Z:PROC ; ioWeapon::IsResistanceBomb
EXTRN	?IsCanMineExplosion@ioWeapon@@UAE_NXZ:PROC	; ioWeapon::IsCanMineExplosion
EXTRN	?CheckGrapplingState@ioWeapon@@UAE?AW4GrapplingType@@XZ:PROC ; ioWeapon::CheckGrapplingState
EXTRN	?CheckCurAttribute@ioWeapon@@UAEXPBVioPlayEntity@@@Z:PROC ; ioWeapon::CheckCurAttribute
EXTRN	?CheckItemNotDrop@ioWeapon@@UAE_NPAVioBaseChar@@@Z:PROC ; ioWeapon::CheckItemNotDrop
EXTRN	?GetWorldAttackBoxList@ioWeapon@@UAEXAAV?$vector@VioOrientBox@@V?$allocator@VioOrientBox@@@std@@@std@@@Z:PROC ; ioWeapon::GetWorldAttackBoxList
EXTRN	?GetAttackDir@ioWeapon@@UBE?AUD3DXVECTOR3@@PBVioPlayEntity@@@Z:PROC ; ioWeapon::GetAttackDir
EXTRN	?GetLiveTime@ioWeapon@@UAEKXZ:PROC		; ioWeapon::GetLiveTime
EXTRN	?CheckWeaponCollision@ioWeapon@@UAEXXZ:PROC	; ioWeapon::CheckWeaponCollision
EXTRN	?GetRefreshDuration@ioWeapon@@UAEKXZ:PROC	; ioWeapon::GetRefreshDuration
EXTRN	?GetIgnoreDuration@ioWeapon@@UAEKXZ:PROC	; ioWeapon::GetIgnoreDuration
EXTRN	?GetIgnoreTimeTypeDuration@ioWeapon@@UAEKXZ:PROC ; ioWeapon::GetIgnoreTimeTypeDuration
EXTRN	?GetIgnoreTimeType@ioWeapon@@UAEKXZ:PROC	; ioWeapon::GetIgnoreTimeType
EXTRN	?IsSkillDependency@ioWeapon@@UAE_NABVioHashString@@@Z:PROC ; ioWeapon::IsSkillDependency
EXTRN	?SetSkillDependencyAction@ioWeapon@@UAEXXZ:PROC	; ioWeapon::SetSkillDependencyAction
EXTRN	?GetAttribute@ioWeapon@@MBEPBUWeaponAttribute@@XZ:PROC ; ioWeapon::GetAttribute
EXTRN	?CalcFinalDamage@ioWeapon@@MAEMXZ:PROC		; ioWeapon::CalcFinalDamage
EXTRN	?CalcFinalBoundDamage@ioWeapon@@MAEMXZ:PROC	; ioWeapon::CalcFinalBoundDamage
EXTRN	?CheckPiercing@ioWeapon@@MAE_N_N@Z:PROC		; ioWeapon::CheckPiercing
EXTRN	?ClearCollisionList@ioWeapon@@MAEXXZ:PROC	; ioWeapon::ClearCollisionList
EXTRN	?CheckCreateWeaponList@ioWeapon@@MAEXXZ:PROC	; ioWeapon::CheckCreateWeaponList
EXTRN	?CreateCollisionAreaWeapon@ioWeapon@@MAEXXZ:PROC ; ioWeapon::CreateCollisionAreaWeapon
EXTRN	?SetMapCollision@ioWeapon@@UAEXXZ:PROC		; ioWeapon::SetMapCollision
EXTRN	?IsIgnoreMapCollision@ioWeapon@@UBE_NXZ:PROC	; ioWeapon::IsIgnoreMapCollision
EXTRN	?IsIgnoreTestMapCollision@ioWeapon@@UBE_NXZ:PROC ; ioWeapon::IsIgnoreTestMapCollision
EXTRN	?IsIgnoreMapCollisionEffect@ioWeapon@@UBE_NXZ:PROC ; ioWeapon::IsIgnoreMapCollisionEffect
EXTRN	?AddEffectEvent@ioWeapon@@MAEXPAVioEffect@@@Z:PROC ; ioWeapon::AddEffectEvent
EXTRN	??_EioUroborusWeapon@@UAEPAXI@Z:PROC		; ioUroborusWeapon::`vector deleting destructor'
;	COMDAT ??_R2ioWeapon@@8
; File d:\lost saga for developer\youtube\tutorial\source\src\lsclient\encryptvalue.h
rdata$r	SEGMENT
??_R2ioWeapon@@8 DD FLAT:??_R1A@?0A@EA@ioWeapon@@8	; ioWeapon::`RTTI Base Class Array'
rdata$r	ENDS
;	COMDAT ??_R3ioWeapon@@8
rdata$r	SEGMENT
??_R3ioWeapon@@8 DD 00H					; ioWeapon::`RTTI Class Hierarchy Descriptor'
	DD	00H
	DD	01H
	DD	FLAT:??_R2ioWeapon@@8
rdata$r	ENDS
;	COMDAT ??_R0?AVioWeapon@@@8
_DATA	SEGMENT
??_R0?AVioWeapon@@@8 DD FLAT:??_7type_info@@6B@		; ioWeapon `RTTI Type Descriptor'
	DD	00H
	DB	'.?AVioWeapon@@', 00H
_DATA	ENDS
;	COMDAT ??_R1A@?0A@EA@ioWeapon@@8
rdata$r	SEGMENT
??_R1A@?0A@EA@ioWeapon@@8 DD FLAT:??_R0?AVioWeapon@@@8	; ioWeapon::`RTTI Base Class Descriptor at (0,-1,0,64)'
	DD	00H
	DD	00H
	DD	0ffffffffH
	DD	00H
	DD	040H
	DD	FLAT:??_R3ioWeapon@@8
rdata$r	ENDS
;	COMDAT ??_R1A@?0A@EA@ioUroborusWeapon@@8
rdata$r	SEGMENT
??_R1A@?0A@EA@ioUroborusWeapon@@8 DD FLAT:??_R0?AVioUroborusWeapon@@@8 ; ioUroborusWeapon::`RTTI Base Class Descriptor at (0,-1,0,64)'
	DD	01H
	DD	00H
	DD	0ffffffffH
	DD	00H
	DD	040H
	DD	FLAT:??_R3ioUroborusWeapon@@8
rdata$r	ENDS
;	COMDAT ??_R2ioUroborusWeapon@@8
rdata$r	SEGMENT
??_R2ioUroborusWeapon@@8 DD FLAT:??_R1A@?0A@EA@ioUroborusWeapon@@8 ; ioUroborusWeapon::`RTTI Base Class Array'
	DD	FLAT:??_R1A@?0A@EA@ioWeapon@@8
rdata$r	ENDS
;	COMDAT ??_R3ioUroborusWeapon@@8
rdata$r	SEGMENT
??_R3ioUroborusWeapon@@8 DD 00H				; ioUroborusWeapon::`RTTI Class Hierarchy Descriptor'
	DD	00H
	DD	02H
	DD	FLAT:??_R2ioUroborusWeapon@@8
rdata$r	ENDS
;	COMDAT ??_R0?AVioUroborusWeapon@@@8
_DATA	SEGMENT
??_R0?AVioUroborusWeapon@@@8 DD FLAT:??_7type_info@@6B@	; ioUroborusWeapon `RTTI Type Descriptor'
	DD	00H
	DB	'.?AVioUroborusWeapon@@', 00H
_DATA	ENDS
;	COMDAT ??_R4ioUroborusWeapon@@6B@
rdata$r	SEGMENT
??_R4ioUroborusWeapon@@6B@ DD 00H			; ioUroborusWeapon::`RTTI Complete Object Locator'
	DD	00H
	DD	00H
	DD	FLAT:??_R0?AVioUroborusWeapon@@@8
	DD	FLAT:??_R3ioUroborusWeapon@@8
rdata$r	ENDS
;	COMDAT ??_C@_0DJ@FCJHDHGJ@ioUroborusWeapon?3?3?$HOioUroborusWea@
CONST	SEGMENT
??_C@_0DJ@FCJHDHGJ@ioUroborusWeapon?3?3?$HOioUroborusWea@ DB 'ioUroborusW'
	DB	'eapon::~ioUroborusWeapon - UnReleased Resouce', 00H ; `string'
CONST	ENDS
;	COMDAT ??_7ioUroborusWeapon@@6B@
CONST	SEGMENT
??_7ioUroborusWeapon@@6B@ DD FLAT:??_R4ioUroborusWeapon@@6B@ ; ioUroborusWeapon::`vftable'
	DD	FLAT:?IsAlreadyCollisioned@ioWeapon@@UAE_NPAVioPlayEntity@@@Z
	DD	FLAT:?AddCollisionEntity@ioWeapon@@UAEXPAVioPlayEntity@@@Z
	DD	FLAT:?SetOwnerDamageRate@ioWeapon@@UAEXM@Z
	DD	FLAT:?SetOwnerChargeDamageRate@ioWeapon@@UAEXM@Z
	DD	FLAT:?SetOwnerChargeForceRate@ioWeapon@@UAEXM@Z
	DD	FLAT:?SetOwnerChargeRangeRate@ioWeapon@@UAEXM@Z
	DD	FLAT:?SetOwnerChargeSpeedRate@ioWeapon@@UAEXM@Z
	DD	FLAT:?SetOwnerChargeBlowRate@ioWeapon@@UAEXM@Z
	DD	FLAT:?SetOwnerChargeFloatRate@ioWeapon@@UAEXM@Z
	DD	FLAT:?SetOwnerChargeScaleRate@ioUroborusWeapon@@UAEXM@Z
	DD	FLAT:?SetOwnerChargeExplosionRate@ioWeapon@@UAEXM@Z
	DD	FLAT:?SetOwnerChargeWoundedTimeRate@ioWeapon@@UAEXM@Z
	DD	FLAT:?SetOwnerChargeLiveTimeRate@ioWeapon@@UAEXM@Z
	DD	FLAT:?SetOwnerChargeBuffLiveTimeRate@ioWeapon@@UAEXM@Z
	DD	FLAT:?SetWeaponIndex@ioUroborusWeapon@@UAEXK@Z
	DD	FLAT:?SetGrapplingTargetName@ioWeapon@@UAEXABVioHashString@@@Z
	DD	FLAT:?SetCreateItem@ioWeapon@@UAEXABVioHashString@@@Z
	DD	FLAT:?SetTeam@ioUroborusWeapon@@UAEXPAVioPlayStage@@W4TeamType@@@Z
	DD	FLAT:?CallReserveAreaWeapon@ioWeapon@@UAEXXZ
	DD	FLAT:?SetWeaponDead@ioWeapon@@UAEXXZ
	DD	FLAT:?PlayExplosionSound@ioWeapon@@UAEXXZ
	DD	FLAT:?PlayWoundedSound@ioWeapon@@UAEXPAVioPlayEntity@@@Z
	DD	FLAT:?PlayDefensedSound@ioWeapon@@UAEXPAVioPlayEntity@@@Z
	DD	FLAT:?PlayLoopSound@ioWeapon@@UAEXXZ
	DD	FLAT:?StopLoopSound@ioWeapon@@UAEXXZ
	DD	FLAT:?GetTargetAirBuffList@ioWeapon@@UBEABV?$vector@UBuffInfoStruct@@V?$allocator@UBuffInfoStruct@@@std@@@std@@XZ
	DD	FLAT:?GetTargetBuffList@ioWeapon@@UBEABV?$vector@UBuffInfoStruct@@V?$allocator@UBuffInfoStruct@@@std@@@std@@XZ
	DD	FLAT:?GetTargetDownBuffList@ioWeapon@@UBEABV?$vector@UBuffInfoStruct@@V?$allocator@UBuffInfoStruct@@@std@@@std@@XZ
	DD	FLAT:?GetPosition@ioWeapon@@UBEABUD3DXVECTOR3@@XZ
	DD	FLAT:?GetBlowType@ioWeapon@@UBE?AW4BlowTargetType@@XZ
	DD	FLAT:?GetPushPower@ioWeapon@@UBEMM@Z
	DD	FLAT:?GetBlowPower@ioWeapon@@UBEMM@Z
	DD	FLAT:?GetAirPushPower@ioWeapon@@UBEMM@Z
	DD	FLAT:?GetAirBlowPower@ioWeapon@@UBEMM@Z
	DD	FLAT:?GetDefensePushPower@ioWeapon@@UBEMM@Z
	DD	FLAT:?GetCollisionEnableTime@ioUroborusWeapon@@UBEKXZ
	DD	FLAT:?SetSylphid@ioWeapon@@UAEHXZ
	DD	FLAT:?ApplyExtraReserveWeaponByWeaponInfo@ioWeapon@@UAEXPAV1@@Z
	DD	FLAT:?InitResource@ioUroborusWeapon@@UAE_NXZ
	DD	FLAT:?DestroyResource@ioUroborusWeapon@@UAEXPAVioPlayStage@@@Z
	DD	FLAT:?LoadProperty@ioUroborusWeapon@@UAEXAAVioINILoader@@@Z
	DD	FLAT:?SetResistanceAttr@ioWeapon@@UAEXH@Z
	DD	FLAT:?SetStartCollisionBox@ioWeapon@@UAEXXZ
	DD	FLAT:?SetLiveTime@ioWeapon@@UAEXK@Z
	DD	FLAT:?SetMoveDir@ioUroborusWeapon@@UAEXABUD3DXVECTOR3@@@Z
	DD	FLAT:?SetMoveSpeed@ioWeapon@@UAEXM@Z
	DD	FLAT:?SetFloatPower@ioWeapon@@UAEXM@Z
	DD	FLAT:?SetStartPosition@ioUroborusWeapon@@UAEXABUD3DXVECTOR3@@PAVioPlayStage@@@Z
	DD	FLAT:?Process@ioUroborusWeapon@@UAEXMPAVioPlayStage@@@Z
	DD	FLAT:?IsCollision@ioUroborusWeapon@@UAE_NPAVioPlayEntity@@_N@Z
	DD	FLAT:?TestMapCollision@ioUroborusWeapon@@UAE_NPAVioOpcodeShape@@PAVioPlayStage@@PBUD3DXMATRIX@@@Z
	DD	FLAT:?CheckPreCollision@ioWeapon@@UAEXPAVioPlayEntity@@PAVioPlayStage@@@Z
	DD	FLAT:?CheckStructAndDummy@ioWeapon@@UAEXPAVioPlayEntity@@PAVioPlayStage@@@Z
	DD	FLAT:?GetDamage@ioWeapon@@UAEMPAVioPlayEntity@@@Z
	DD	FLAT:?GetBaseDamage@ioWeapon@@UAEMPAVioPlayEntity@@@Z
	DD	FLAT:?GetPushAngle@ioWeapon@@UBEMXZ
	DD	FLAT:?IsResistanceMagic@ioWeapon@@UAEHPAVioBaseChar@@@Z
	DD	FLAT:?IsResistanceBomb@ioWeapon@@UAEHPAVioBaseChar@@@Z
	DD	FLAT:?IsCanMineExplosion@ioWeapon@@UAE_NXZ
	DD	FLAT:?CheckGrapplingState@ioWeapon@@UAE?AW4GrapplingType@@XZ
	DD	FLAT:?CheckCurAttribute@ioWeapon@@UAEXPBVioPlayEntity@@@Z
	DD	FLAT:?CheckItemNotDrop@ioWeapon@@UAE_NPAVioBaseChar@@@Z
	DD	FLAT:?GetWorldAttackBoxList@ioWeapon@@UAEXAAV?$vector@VioOrientBox@@V?$allocator@VioOrientBox@@@std@@@std@@@Z
	DD	FLAT:?GetAttackDir@ioWeapon@@UBE?AUD3DXVECTOR3@@PBVioPlayEntity@@@Z
	DD	FLAT:?GetLocalAttackBox@ioUroborusWeapon@@UBEABVioOrientBox@@XZ
	DD	FLAT:?GetLiveTime@ioWeapon@@UAEKXZ
	DD	FLAT:?GetMoveDir@ioUroborusWeapon@@UAE?AUD3DXVECTOR3@@XZ
	DD	FLAT:?CheckWeaponCollision@ioWeapon@@UAEXXZ
	DD	FLAT:?GetType@ioUroborusWeapon@@UBE?AW4WeaponType@ioWeapon@@XZ
	DD	FLAT:?GetActionStopType@ioUroborusWeapon@@UBE?AW4ActionStopType@@XZ
	DD	FLAT:?GetDieActionStopType@ioUroborusWeapon@@UBE?AW4ActionStopType@@XZ
	DD	FLAT:?GetRefreshDuration@ioWeapon@@UAEKXZ
	DD	FLAT:?GetIgnoreDuration@ioWeapon@@UAEKXZ
	DD	FLAT:?GetIgnoreTimeTypeDuration@ioWeapon@@UAEKXZ
	DD	FLAT:?GetIgnoreTimeType@ioWeapon@@UAEKXZ
	DD	FLAT:?ApplyWeaponSync@ioUroborusWeapon@@UAEXAAVSP2Packet@@PAVioPlayStage@@@Z
	DD	FLAT:?IsSkillDependency@ioWeapon@@UAE_NABVioHashString@@@Z
	DD	FLAT:?SetSkillDependencyAction@ioWeapon@@UAEXXZ
	DD	FLAT:?UpdateWorldAttackBox@ioUroborusWeapon@@MAEXM_N@Z
	DD	FLAT:?GetAttribute@ioWeapon@@MBEPBUWeaponAttribute@@XZ
	DD	FLAT:?CalcFinalDamage@ioWeapon@@MAEMXZ
	DD	FLAT:?CalcFinalBoundDamage@ioWeapon@@MAEMXZ
	DD	FLAT:?CheckPiercing@ioWeapon@@MAE_N_N@Z
	DD	FLAT:?ClearCollisionList@ioWeapon@@MAEXXZ
	DD	FLAT:?CheckCreateWeaponList@ioWeapon@@MAEXXZ
	DD	FLAT:?CreateCollisionAreaWeapon@ioWeapon@@MAEXXZ
	DD	FLAT:?SetMapCollision@ioWeapon@@UAEXXZ
	DD	FLAT:?IsIgnoreMapCollision@ioWeapon@@UBE_NXZ
	DD	FLAT:?IsIgnoreTestMapCollision@ioWeapon@@UBE_NXZ
	DD	FLAT:?IsIgnoreMapCollisionEffect@ioWeapon@@UBE_NXZ
	DD	FLAT:?AddEffectEvent@ioWeapon@@MAEXPAVioEffect@@@Z
	DD	FLAT:??_EioUroborusWeapon@@UAEPAXI@Z
CONST	ENDS
;	COMDAT xdata$x
xdata$x	SEGMENT
__ehfuncinfo$??1ioUroborusWeapon@@UAE@XZ DD 019930522H
	DD	09H
	DD	FLAT:__unwindtable$??1ioUroborusWeapon@@UAE@XZ
	DD	2 DUP(00H)
	DD	2 DUP(00H)
	DD	00H
	DD	01H
__unwindtable$??1ioUroborusWeapon@@UAE@XZ DD 0ffffffffH
	DD	FLAT:__unwindfunclet$??1ioUroborusWeapon@@UAE@XZ$0
	DD	00H
	DD	FLAT:__unwindfunclet$??1ioUroborusWeapon@@UAE@XZ$1
	DD	01H
	DD	FLAT:__unwindfunclet$??1ioUroborusWeapon@@UAE@XZ$2
	DD	02H
	DD	FLAT:__unwindfunclet$??1ioUroborusWeapon@@UAE@XZ$3
	DD	03H
	DD	FLAT:__unwindfunclet$??1ioUroborusWeapon@@UAE@XZ$4
	DD	04H
	DD	FLAT:__unwindfunclet$??1ioUroborusWeapon@@UAE@XZ$5
	DD	05H
	DD	FLAT:__unwindfunclet$??1ioUroborusWeapon@@UAE@XZ$6
	DD	06H
	DD	FLAT:__unwindfunclet$??1ioUroborusWeapon@@UAE@XZ$7
	DD	07H
	DD	FLAT:__unwindfunclet$??1ioUroborusWeapon@@UAE@XZ$8
; Function compile flags: /Ogsp
; File d:\lost saga for developer\youtube\tutorial\source\src\lsclient\iouroborusweapon.cpp
xdata$x	ENDS
;	COMDAT ??1ioUroborusWeapon@@UAE@XZ
_TEXT	SEGMENT
_this$ = -16						; size = 4
__$EHRec$ = -12						; size = 12
??1ioUroborusWeapon@@UAE@XZ PROC			; ioUroborusWeapon::~ioUroborusWeapon, COMDAT
; _this$ = ecx

; 33   : {

  00000	6a 04		 push	 4
  00002	b8 00 00 00 00	 mov	 eax, __ehhandler$??1ioUroborusWeapon@@UAE@XZ
  00007	e8 00 00 00 00	 call	 __EH_prolog3
  0000c	8b f1		 mov	 esi, ecx
  0000e	89 75 f0	 mov	 DWORD PTR _this$[ebp], esi
  00011	c7 06 00 00 00
	00		 mov	 DWORD PTR [esi], OFFSET ??_7ioUroborusWeapon@@6B@

; 34   : 	if( m_pFireMesh )

  00017	33 db		 xor	 ebx, ebx
  00019	c7 45 fc 08 00
	00 00		 mov	 DWORD PTR __$EHRec$[ebp+8], 8
  00020	39 9e 98 08 00
	00		 cmp	 DWORD PTR [esi+2200], ebx
  00026	74 15		 je	 SHORT $LN2@ioUroborus

; 35   : 	{
; 36   : 		LOG.PrintTimeAndLog( 0, "ioUroborusWeapon::~ioUroborusWeapon - UnReleased Resouce" );

  00028	68 00 00 00 00	 push	 OFFSET ??_C@_0DJ@FCJHDHGJ@ioUroborusWeapon?3?3?$HOioUroborusWea@
  0002d	53		 push	 ebx
  0002e	ff 35 00 00 00
	00		 push	 DWORD PTR __imp_?LOG@@3VCLog@@A
  00034	ff 15 00 00 00
	00		 call	 DWORD PTR __imp_?PrintTimeAndLog@CLog@@QAAXHPADZZ
  0003a	83 c4 0c	 add	 esp, 12			; 0000000cH
$LN2@ioUroborus:

; 37   : 	}
; 38   : 
; 39   : 	SAFEDELETE( m_pGuideArrow );

  0003d	8b 8e 9c 08 00
	00		 mov	 ecx, DWORD PTR [esi+2204]
  00043	3b cb		 cmp	 ecx, ebx
  00045	74 0c		 je	 SHORT $LN1@ioUroborus
  00047	8b 01		 mov	 eax, DWORD PTR [ecx]
  00049	6a 01		 push	 1
  0004b	ff 10		 call	 DWORD PTR [eax]
  0004d	89 9e 9c 08 00
	00		 mov	 DWORD PTR [esi+2204], ebx
$LN1@ioUroborus:

; 40   : }

  00053	bf 00 00 00 00	 mov	 edi, OFFSET ??_7?$CEncrypt@K@@6B@
  00058	8d 8e d0 09 00
	00		 lea	 ecx, DWORD PTR [esi+2512]
  0005e	c6 45 fc 07	 mov	 BYTE PTR __$EHRec$[ebp+8], 7
  00062	89 be c4 09 00
	00		 mov	 DWORD PTR [esi+2500], edi
  00068	e8 00 00 00 00	 call	 ??1ccddaabb@@UAE@XZ	; ccddaabb::~ccddaabb
  0006d	8d 8e 9c 09 00
	00		 lea	 ecx, DWORD PTR [esi+2460]
  00073	c6 45 fc 06	 mov	 BYTE PTR __$EHRec$[ebp+8], 6
  00077	89 be 90 09 00
	00		 mov	 DWORD PTR [esi+2448], edi
  0007d	e8 00 00 00 00	 call	 ??1ccddaabb@@UAE@XZ	; ccddaabb::~ccddaabb
  00082	8b 3d 00 00 00
	00		 mov	 edi, DWORD PTR __imp_??1ioHashString@@QAE@XZ
  00088	8d 8e 80 09 00
	00		 lea	 ecx, DWORD PTR [esi+2432]
  0008e	c6 45 fc 05	 mov	 BYTE PTR __$EHRec$[ebp+8], 5
  00092	ff d7		 call	 edi
  00094	bb 00 00 00 00	 mov	 ebx, OFFSET ??_7?$CEncrypt@M@@6B@
  00099	8d 8e 5c 09 00
	00		 lea	 ecx, DWORD PTR [esi+2396]
  0009f	c6 45 fc 04	 mov	 BYTE PTR __$EHRec$[ebp+8], 4
  000a3	89 9e 50 09 00
	00		 mov	 DWORD PTR [esi+2384], ebx
  000a9	e8 00 00 00 00	 call	 ??1ccddaabb@@UAE@XZ	; ccddaabb::~ccddaabb
  000ae	8d 8e 2c 09 00
	00		 lea	 ecx, DWORD PTR [esi+2348]
  000b4	c6 45 fc 03	 mov	 BYTE PTR __$EHRec$[ebp+8], 3
  000b8	89 9e 20 09 00
	00		 mov	 DWORD PTR [esi+2336], ebx
  000be	e8 00 00 00 00	 call	 ??1ccddaabb@@UAE@XZ	; ccddaabb::~ccddaabb
  000c3	8d 8e 0c 09 00
	00		 lea	 ecx, DWORD PTR [esi+2316]
  000c9	c6 45 fc 02	 mov	 BYTE PTR __$EHRec$[ebp+8], 2
  000cd	ff d7		 call	 edi
  000cf	8d 8e fc 08 00
	00		 lea	 ecx, DWORD PTR [esi+2300]
  000d5	c6 45 fc 01	 mov	 BYTE PTR __$EHRec$[ebp+8], 1
  000d9	ff d7		 call	 edi
  000db	8d 8e a0 08 00
	00		 lea	 ecx, DWORD PTR [esi+2208]
  000e1	c6 45 fc 00	 mov	 BYTE PTR __$EHRec$[ebp+8], 0
  000e5	ff 15 00 00 00
	00		 call	 DWORD PTR __imp_??1ioOrientBox@@QAE@XZ
  000eb	83 4d fc ff	 or	 DWORD PTR __$EHRec$[ebp+8], -1
  000ef	8b ce		 mov	 ecx, esi
  000f1	e8 00 00 00 00	 call	 ??1ioWeapon@@UAE@XZ	; ioWeapon::~ioWeapon
  000f6	e8 00 00 00 00	 call	 __EH_epilog3
  000fb	c3		 ret	 0
_TEXT	ENDS
;	COMDAT text$x
text$x	SEGMENT
__unwindfunclet$??1ioUroborusWeapon@@UAE@XZ$0:
  00000	8b 4d f0	 mov	 ecx, DWORD PTR _this$[ebp]
  00003	e9 00 00 00 00	 jmp	 ??1ioWeapon@@UAE@XZ	; ioWeapon::~ioWeapon
__unwindfunclet$??1ioUroborusWeapon@@UAE@XZ$1:
  00008	8b 4d f0	 mov	 ecx, DWORD PTR _this$[ebp]
  0000b	81 c1 a0 08 00
	00		 add	 ecx, 2208		; 000008a0H
  00011	ff 25 00 00 00
	00		 jmp	 DWORD PTR __imp_??1ioOrientBox@@QAE@XZ
__unwindfunclet$??1ioUroborusWeapon@@UAE@XZ$2:
  00017	8b 4d f0	 mov	 ecx, DWORD PTR _this$[ebp]
  0001a	81 c1 fc 08 00
	00		 add	 ecx, 2300		; 000008fcH
  00020	ff 25 00 00 00
	00		 jmp	 DWORD PTR __imp_??1ioHashString@@QAE@XZ
__unwindfunclet$??1ioUroborusWeapon@@UAE@XZ$3:
  00026	8b 4d f0	 mov	 ecx, DWORD PTR _this$[ebp]
  00029	81 c1 0c 09 00
	00		 add	 ecx, 2316		; 0000090cH
  0002f	ff 25 00 00 00
	00		 jmp	 DWORD PTR __imp_??1ioHashString@@QAE@XZ
__unwindfunclet$??1ioUroborusWeapon@@UAE@XZ$4:
  00035	8b 4d f0	 mov	 ecx, DWORD PTR _this$[ebp]
  00038	81 c1 20 09 00
	00		 add	 ecx, 2336		; 00000920H
  0003e	e9 00 00 00 00	 jmp	 ??1?$CEncrypt@M@@UAE@XZ	; CEncrypt<float>::~CEncrypt<float>
__unwindfunclet$??1ioUroborusWeapon@@UAE@XZ$5:
  00043	8b 4d f0	 mov	 ecx, DWORD PTR _this$[ebp]
  00046	81 c1 50 09 00
	00		 add	 ecx, 2384		; 00000950H
  0004c	e9 00 00 00 00	 jmp	 ??1?$CEncrypt@M@@UAE@XZ	; CEncrypt<float>::~CEncrypt<float>
__unwindfunclet$??1ioUroborusWeapon@@UAE@XZ$6:
  00051	8b 4d f0	 mov	 ecx, DWORD PTR _this$[ebp]
  00054	81 c1 80 09 00
	00		 add	 ecx, 2432		; 00000980H
  0005a	ff 25 00 00 00
	00		 jmp	 DWORD PTR __imp_??1ioHashString@@QAE@XZ
__unwindfunclet$??1ioUroborusWeapon@@UAE@XZ$7:
  00060	8b 4d f0	 mov	 ecx, DWORD PTR _this$[ebp]
  00063	81 c1 90 09 00
	00		 add	 ecx, 2448		; 00000990H
  00069	e9 00 00 00 00	 jmp	 ??1?$CEncrypt@K@@UAE@XZ	; CEncrypt<unsigned long>::~CEncrypt<unsigned long>
__unwindfunclet$??1ioUroborusWeapon@@UAE@XZ$8:
  0006e	8b 4d f0	 mov	 ecx, DWORD PTR _this$[ebp]
  00071	81 c1 c4 09 00
	00		 add	 ecx, 2500		; 000009c4H
  00077	e9 00 00 00 00	 jmp	 ??1?$CEncrypt@K@@UAE@XZ	; CEncrypt<unsigned long>::~CEncrypt<unsigned long>
__ehhandler$??1ioUroborusWeapon@@UAE@XZ:
  0007c	8b 54 24 08	 mov	 edx, DWORD PTR [esp+8]
  00080	8d 42 0c	 lea	 eax, DWORD PTR [edx+12]
  00083	8b 4a ec	 mov	 ecx, DWORD PTR [edx-20]
  00086	33 c8		 xor	 ecx, eax
  00088	e8 00 00 00 00	 call	 @__security_check_cookie@4
  0008d	b8 00 00 00 00	 mov	 eax, OFFSET __ehfuncinfo$??1ioUroborusWeapon@@UAE@XZ
  00092	e9 00 00 00 00	 jmp	 ___CxxFrameHandler3
text$x	ENDS
??1ioUroborusWeapon@@UAE@XZ ENDP			; ioUroborusWeapon::~ioUroborusWeapon
PUBLIC	?SetFireMesh@ioUroborusWeapon@@IAE_NABVioHashString@@@Z ; ioUroborusWeapon::SetFireMesh
EXTRN	__imp_?GetCollisionBox@ioEffect@@QBEABVioOrientBox@@XZ:PROC
EXTRN	__imp_??D@YA?AUD3DXVECTOR3@@ABU0@0@Z:PROC
EXTRN	__imp_??D@YA?AUD3DXVECTOR3@@ABUD3DXQUATERNION@@ABU0@@Z:PROC
EXTRN	__imp_?GetBiped@ioEntityGroup@@QAEPAVioBiped@@ABVioHashString@@@Z:PROC
EXTRN	__imp_?GetFirstLinkOffset@ioEffect@@QAE_NAAVioHashString@@AAUD3DXVECTOR3@@AAUD3DXQUATERNION@@@Z:PROC
EXTRN	__imp_??0ioHashString@@QAE@XZ:PROC
EXTRN	__imp_?UNIT_ALL@ioMath@@2UD3DXVECTOR3@@A:BYTE
EXTRN	__imp_?CreateEffect@ioEffectFactory@@QAEPAVioEffect@@ABVioHashString@@@Z:PROC
EXTRN	__EH_epilog3_GS:PROC
EXTRN	__EH_prolog3_GS:PROC
;	COMDAT xdata$x
; File c:\program files (x86)\microsoft directx sdk (june 2010)\include\d3dx9math.inl
xdata$x	SEGMENT
__unwindtable$?SetFireMesh@ioUroborusWeapon@@IAE_NABVioHashString@@@Z DD 0ffffffffH
	DD	FLAT:__unwindfunclet$?SetFireMesh@ioUroborusWeapon@@IAE_NABVioHashString@@@Z$0
	DD	00H
	DD	FLAT:__unwindfunclet$?SetFireMesh@ioUroborusWeapon@@IAE_NABVioHashString@@@Z$1
__ehfuncinfo$?SetFireMesh@ioUroborusWeapon@@IAE_NABVioHashString@@@Z DD 019930522H
	DD	02H
	DD	FLAT:__unwindtable$?SetFireMesh@ioUroborusWeapon@@IAE_NABVioHashString@@@Z
	DD	2 DUP(00H)
	DD	2 DUP(00H)
	DD	00H
	DD	01H
; Function compile flags: /Ogsp
; File d:\lost saga for developer\youtube\tutorial\source\src\lsclient\iouroborusweapon.cpp
xdata$x	ENDS
;	COMDAT ?SetFireMesh@ioUroborusWeapon@@IAE_NABVioHashString@@@Z
_TEXT	SEGMENT
_qtLinkRotOffset$ = -100				; size = 16
_szLinkBiped$ = -84					; size = 16
$T594009 = -68						; size = 4
_pOwner$ = -64						; size = 4
$T594003 = -57						; size = 1
$T594004 = -56						; size = 16
$T590516 = -52						; size = 12
_vLinkPosOffset$ = -40					; size = 12
$T590517 = -28						; size = 12
$T590515 = -28						; size = 12
$T590514 = -28						; size = 12
$T590513 = -28						; size = 12
__$EHRec$ = -12						; size = 12
_szFileName$ = 8					; size = 4
?SetFireMesh@ioUroborusWeapon@@IAE_NABVioHashString@@@Z PROC ; ioUroborusWeapon::SetFireMesh, COMDAT
; _this$ = ecx

; 121  : {

  00000	6a 58		 push	 88			; 00000058H
  00002	b8 00 00 00 00	 mov	 eax, __ehhandler$?SetFireMesh@ioUroborusWeapon@@IAE_NABVioHashString@@@Z
  00007	e8 00 00 00 00	 call	 __EH_prolog3_GS
  0000c	8b 7d 08	 mov	 edi, DWORD PTR _szFileName$[ebp]
  0000f	33 f6		 xor	 esi, esi
  00011	8b d9		 mov	 ebx, ecx
  00013	89 75 bc	 mov	 DWORD PTR $T594009[ebp], esi

; 122  : 	ioBaseChar *pOwner = GetOwner();

  00016	e8 00 00 00 00	 call	 ?GetOwner@ioWeapon@@QBEPAVioBaseChar@@XZ ; ioWeapon::GetOwner
  0001b	89 45 c0	 mov	 DWORD PTR _pOwner$[ebp], eax

; 123  : 	if( !pOwner )	return false;

  0001e	3b c6		 cmp	 eax, esi
  00020	75 07		 jne	 SHORT $LN4@SetFireMes
$LN35@SetFireMes:
  00022	32 c0		 xor	 al, al
  00024	e9 35 02 00 00	 jmp	 $LN5@SetFireMes
$LN4@SetFireMes:

; 124  : 
; 125  : 	m_pFireMesh = g_EffectFactory.CreateEffect( szFileName );

  00029	57		 push	 edi
  0002a	ff 15 00 00 00
	00		 call	 DWORD PTR __imp_?GetSingleton@ioEffectFactory@@SAAAV1@XZ
  00030	8b c8		 mov	 ecx, eax
  00032	ff 15 00 00 00
	00		 call	 DWORD PTR __imp_?CreateEffect@ioEffectFactory@@QAEPAVioEffect@@ABVioHashString@@@Z
  00038	89 83 98 08 00
	00		 mov	 DWORD PTR [ebx+2200], eax

; 126  : 	if( !m_pFireMesh )	return false;

  0003e	3b c6		 cmp	 eax, esi
  00040	74 e0		 je	 SHORT $LN35@SetFireMes

; 127  : 
; 128  : 	GetParentSceneNode()->AttachObject( m_pFireMesh );

  00042	8b 4b 04	 mov	 ecx, DWORD PTR [ebx+4]
  00045	8b 11		 mov	 edx, DWORD PTR [ecx]
  00047	83 c0 14	 add	 eax, 20			; 00000014H
  0004a	50		 push	 eax
  0004b	ff 92 ac 00 00
	00		 call	 DWORD PTR [edx+172]

; 129  : 	GetParentSceneNode()->SetScale( ioMath::UNIT_ALL );

  00051	8b 4b 04	 mov	 ecx, DWORD PTR [ebx+4]
  00054	ff 35 00 00 00
	00		 push	 DWORD PTR __imp_?UNIT_ALL@ioMath@@2UD3DXVECTOR3@@A
  0005a	8b 01		 mov	 eax, DWORD PTR [ecx]
  0005c	ff 50 20	 call	 DWORD PTR [eax+32]

; 130  : 
; 131  : 	ioHashString szLinkBiped;

  0005f	8d 4d ac	 lea	 ecx, DWORD PTR _szLinkBiped$[ebp]
  00062	ff 15 00 00 00
	00		 call	 DWORD PTR __imp_??0ioHashString@@QAE@XZ

; 132  : 	D3DXVECTOR3 vLinkPosOffset;
; 133  : 	D3DXQUATERNION qtLinkRotOffset;
; 134  : 
; 135  : 	if( m_pFireMesh->GetSkeletonName().IsEmpty() && m_pFireMesh->GetFirstLinkOffset(szLinkBiped, vLinkPosOffset, qtLinkRotOffset ) )

  00068	8b 8b 98 08 00
	00		 mov	 ecx, DWORD PTR [ebx+2200]
  0006e	8d 45 c8	 lea	 eax, DWORD PTR $T594004[ebp]
  00071	50		 push	 eax
  00072	89 75 fc	 mov	 DWORD PTR __$EHRec$[ebp+8], esi
  00075	ff 15 00 00 00
	00		 call	 DWORD PTR __imp_?GetSkeletonName@ioEffect@@QBE?AVioHashString@@XZ
  0007b	8b c8		 mov	 ecx, eax
  0007d	c6 45 fc 01	 mov	 BYTE PTR __$EHRec$[ebp+8], 1
  00081	c7 45 bc 01 00
	00 00		 mov	 DWORD PTR $T594009[ebp], 1
  00088	ff 15 00 00 00
	00		 call	 DWORD PTR __imp_?IsEmpty@ioHashString@@QBE_NXZ
  0008e	84 c0		 test	 al, al
  00090	74 20		 je	 SHORT $LN9@SetFireMes
  00092	8b 8b 98 08 00
	00		 mov	 ecx, DWORD PTR [ebx+2200]
  00098	8d 45 9c	 lea	 eax, DWORD PTR _qtLinkRotOffset$[ebp]
  0009b	50		 push	 eax
  0009c	8d 45 d8	 lea	 eax, DWORD PTR _vLinkPosOffset$[ebp]
  0009f	50		 push	 eax
  000a0	8d 45 ac	 lea	 eax, DWORD PTR _szLinkBiped$[ebp]
  000a3	50		 push	 eax
  000a4	ff 15 00 00 00
	00		 call	 DWORD PTR __imp_?GetFirstLinkOffset@ioEffect@@QAE_NAAVioHashString@@AAUD3DXVECTOR3@@AAUD3DXQUATERNION@@@Z
  000aa	c6 45 c7 01	 mov	 BYTE PTR $T594003[ebp], 1
  000ae	84 c0		 test	 al, al
  000b0	75 04		 jne	 SHORT $LN10@SetFireMes
$LN9@SetFireMes:
  000b2	c6 45 c7 00	 mov	 BYTE PTR $T594003[ebp], 0
$LN10@SetFireMes:
  000b6	8d 4d c8	 lea	 ecx, DWORD PTR $T594004[ebp]
  000b9	89 75 fc	 mov	 DWORD PTR __$EHRec$[ebp+8], esi
  000bc	ff 15 00 00 00
	00		 call	 DWORD PTR __imp_??1ioHashString@@QAE@XZ
  000c2	80 7d c7 00	 cmp	 BYTE PTR $T594003[ebp], 0
  000c6	0f 84 4a 01 00
	00		 je	 $LN1@SetFireMes

; 136  : 	{
; 137  : 		ioBiped *pLinked = pOwner->GetGroup()->GetBiped( szLinkBiped );

  000cc	8b 45 c0	 mov	 eax, DWORD PTR _pOwner$[ebp]
  000cf	8b 48 04	 mov	 ecx, DWORD PTR [eax+4]
  000d2	8d 45 ac	 lea	 eax, DWORD PTR _szLinkBiped$[ebp]
  000d5	50		 push	 eax
  000d6	ff 15 00 00 00
	00		 call	 DWORD PTR __imp_?GetBiped@ioEntityGroup@@QAEPAVioBiped@@ABVioHashString@@@Z
  000dc	8b f8		 mov	 edi, eax

; 138  : 		if( pLinked )

  000de	3b fe		 cmp	 edi, esi
  000e0	0f 84 30 01 00
	00		 je	 $LN1@SetFireMes

; 139  : 		{
; 140  : 			vLinkPosOffset = pLinked->GetDerivedOrientation() * vLinkPosOffset + pLinked->GetDerivedPosition();

  000e6	8b 07		 mov	 eax, DWORD PTR [edi]
  000e8	8b cf		 mov	 ecx, edi
  000ea	ff 50 7c	 call	 DWORD PTR [eax+124]
  000ed	8b f0		 mov	 esi, eax
  000ef	8d 45 d8	 lea	 eax, DWORD PTR _vLinkPosOffset$[ebp]
  000f2	50		 push	 eax
  000f3	8b 07		 mov	 eax, DWORD PTR [edi]
  000f5	8b cf		 mov	 ecx, edi
  000f7	ff 50 78	 call	 DWORD PTR [eax+120]
  000fa	50		 push	 eax
  000fb	8d 45 e4	 lea	 eax, DWORD PTR $T590513[ebp]
  000fe	50		 push	 eax
  000ff	ff 15 00 00 00
	00		 call	 DWORD PTR __imp_??D@YA?AUD3DXVECTOR3@@ABUD3DXQUATERNION@@ABU0@@Z
  00105	f3 0f 10 06	 movss	 xmm0, DWORD PTR [esi]
  00109	f3 0f 10 08	 movss	 xmm1, DWORD PTR [eax]
  0010d	f3 0f 10 50 04	 movss	 xmm2, DWORD PTR [eax+4]
  00112	f3 0f 10 58 08	 movss	 xmm3, DWORD PTR [eax+8]

; 141  : 			vLinkPosOffset = vLinkPosOffset * pOwner->GetWorldScale();

  00117	8b 4d c0	 mov	 ecx, DWORD PTR _pOwner$[ebp]
  0011a	0f 5a c9	 cvtps2pd xmm1, xmm1
  0011d	0f 5a c0	 cvtps2pd xmm0, xmm0
  00120	f2 0f 58 c1	 addsd	 xmm0, xmm1
  00124	f3 0f 10 4e 04	 movss	 xmm1, DWORD PTR [esi+4]
  00129	0f 5a d2	 cvtps2pd xmm2, xmm2
  0012c	0f 5a c9	 cvtps2pd xmm1, xmm1
  0012f	f2 0f 58 ca	 addsd	 xmm1, xmm2
  00133	f3 0f 10 56 08	 movss	 xmm2, DWORD PTR [esi+8]
  00138	0f 5a d2	 cvtps2pd xmm2, xmm2
  0013b	0f 5a db	 cvtps2pd xmm3, xmm3
  0013e	f2 0f 58 d3	 addsd	 xmm2, xmm3
  00142	66 0f 5a c0	 cvtpd2ps xmm0, xmm0
  00146	f3 0f 11 45 e4	 movss	 DWORD PTR $T590514[ebp], xmm0
  0014b	66 0f 5a c9	 cvtpd2ps xmm1, xmm1
  0014f	f3 0f 11 4d e8	 movss	 DWORD PTR $T590514[ebp+4], xmm1
  00154	66 0f 5a d2	 cvtpd2ps xmm2, xmm2
  00158	f3 0f 11 55 ec	 movss	 DWORD PTR $T590514[ebp+8], xmm2
  0015d	8d 75 e4	 lea	 esi, DWORD PTR $T590514[ebp]
  00160	8d 7d d8	 lea	 edi, DWORD PTR _vLinkPosOffset$[ebp]
  00163	a5		 movsd
  00164	a5		 movsd
  00165	a5		 movsd
  00166	8b 01		 mov	 eax, DWORD PTR [ecx]
  00168	83 c4 0c	 add	 esp, 12			; 0000000cH
  0016b	ff 50 78	 call	 DWORD PTR [eax+120]
  0016e	50		 push	 eax
  0016f	8d 45 d8	 lea	 eax, DWORD PTR _vLinkPosOffset$[ebp]
  00172	50		 push	 eax
  00173	8d 45 e4	 lea	 eax, DWORD PTR $T590515[ebp]
  00176	50		 push	 eax
  00177	ff 15 00 00 00
	00		 call	 DWORD PTR __imp_??D@YA?AUD3DXVECTOR3@@ABU0@0@Z
  0017d	8b f0		 mov	 esi, eax
  0017f	8d 7d d8	 lea	 edi, DWORD PTR _vLinkPosOffset$[ebp]
  00182	a5		 movsd
  00183	a5		 movsd
  00184	a5		 movsd

; 142  : 			vLinkPosOffset = pOwner->GetWorldOrientation() * vLinkPosOffset + pOwner->GetWorldPosition();

  00185	8b 7d c0	 mov	 edi, DWORD PTR _pOwner$[ebp]
  00188	8b 07		 mov	 eax, DWORD PTR [edi]
  0018a	83 c4 0c	 add	 esp, 12			; 0000000cH
  0018d	8b cf		 mov	 ecx, edi
  0018f	ff 50 70	 call	 DWORD PTR [eax+112]
  00192	8b f0		 mov	 esi, eax
  00194	8d 45 d8	 lea	 eax, DWORD PTR _vLinkPosOffset$[ebp]
  00197	50		 push	 eax
  00198	8b 07		 mov	 eax, DWORD PTR [edi]
  0019a	8b cf		 mov	 ecx, edi
  0019c	ff 50 74	 call	 DWORD PTR [eax+116]
  0019f	50		 push	 eax
  001a0	8d 45 cc	 lea	 eax, DWORD PTR $T590516[ebp]
  001a3	50		 push	 eax
  001a4	ff 15 00 00 00
	00		 call	 DWORD PTR __imp_??D@YA?AUD3DXVECTOR3@@ABUD3DXQUATERNION@@ABU0@@Z
  001aa	f3 0f 10 00	 movss	 xmm0, DWORD PTR [eax]
  001ae	f3 0f 10 0e	 movss	 xmm1, DWORD PTR [esi]
  001b2	f3 0f 10 50 04	 movss	 xmm2, DWORD PTR [eax+4]
  001b7	0f 5a c9	 cvtps2pd xmm1, xmm1
  001ba	0f 5a c0	 cvtps2pd xmm0, xmm0
  001bd	f2 0f 58 c1	 addsd	 xmm0, xmm1
  001c1	f3 0f 10 4e 04	 movss	 xmm1, DWORD PTR [esi+4]
  001c6	0f 5a c9	 cvtps2pd xmm1, xmm1
  001c9	0f 5a d2	 cvtps2pd xmm2, xmm2
  001cc	83 c4 0c	 add	 esp, 12			; 0000000cH
  001cf	66 0f 5a c0	 cvtpd2ps xmm0, xmm0
  001d3	f2 0f 58 ca	 addsd	 xmm1, xmm2
  001d7	f3 0f 10 56 08	 movss	 xmm2, DWORD PTR [esi+8]
  001dc	f3 0f 10 58 08	 movss	 xmm3, DWORD PTR [eax+8]
  001e1	0f 5a d2	 cvtps2pd xmm2, xmm2
  001e4	0f 5a db	 cvtps2pd xmm3, xmm3
  001e7	f2 0f 58 d3	 addsd	 xmm2, xmm3
  001eb	f3 0f 11 45 e4	 movss	 DWORD PTR $T590517[ebp], xmm0
  001f0	66 0f 5a c9	 cvtpd2ps xmm1, xmm1
  001f4	f3 0f 11 4d e8	 movss	 DWORD PTR $T590517[ebp+4], xmm1
  001f9	66 0f 5a d2	 cvtpd2ps xmm2, xmm2
  001fd	f3 0f 11 55 ec	 movss	 DWORD PTR $T590517[ebp+8], xmm2
  00202	8d 75 e4	 lea	 esi, DWORD PTR $T590517[ebp]
  00205	8d 7d d8	 lea	 edi, DWORD PTR _vLinkPosOffset$[ebp]
  00208	a5		 movsd
  00209	a5		 movsd

; 143  : 			SetPosition( vLinkPosOffset );

  0020a	8d 45 d8	 lea	 eax, DWORD PTR _vLinkPosOffset$[ebp]
  0020d	50		 push	 eax
  0020e	8b cb		 mov	 ecx, ebx
  00210	a5		 movsd
  00211	e8 00 00 00 00	 call	 ?SetPosition@ioWeapon@@QAEXABUD3DXVECTOR3@@@Z ; ioWeapon::SetPosition
$LN1@SetFireMes:

; 144  : 		}
; 145  : 	}
; 146  : 
; 147  : 	m_pFireMesh->UpdateBounds( true );

  00216	8b 8b 98 08 00
	00		 mov	 ecx, DWORD PTR [ebx+2200]
  0021c	83 c1 14	 add	 ecx, 20			; 00000014H
  0021f	8b 01		 mov	 eax, DWORD PTR [ecx]
  00221	6a 01		 push	 1
  00223	ff 50 44	 call	 DWORD PTR [eax+68]

; 148  : 	m_LocalAttackBox = m_pFireMesh->GetCollisionBox();

  00226	8b 8b 98 08 00
	00		 mov	 ecx, DWORD PTR [ebx+2200]
  0022c	ff 15 00 00 00
	00		 call	 DWORD PTR __imp_?GetCollisionBox@ioEffect@@QBEABVioOrientBox@@XZ
  00232	6a 11		 push	 17			; 00000011H
  00234	59		 pop	 ecx

; 149  : 
; 150  : 	AddEffectEvent( m_pFireMesh );

  00235	ff b3 98 08 00
	00		 push	 DWORD PTR [ebx+2200]
  0023b	8b f0		 mov	 esi, eax
  0023d	8b 03		 mov	 eax, DWORD PTR [ebx]
  0023f	8d bb a0 08 00
	00		 lea	 edi, DWORD PTR [ebx+2208]
  00245	f3 a5		 rep movsd
  00247	8b cb		 mov	 ecx, ebx
  00249	ff 90 68 01 00
	00		 call	 DWORD PTR [eax+360]

; 151  : 	return true;

  0024f	83 4d fc ff	 or	 DWORD PTR __$EHRec$[ebp+8], -1
  00253	8d 4d ac	 lea	 ecx, DWORD PTR _szLinkBiped$[ebp]
  00256	ff 15 00 00 00
	00		 call	 DWORD PTR __imp_??1ioHashString@@QAE@XZ
  0025c	b0 01		 mov	 al, 1
$LN5@SetFireMes:

; 152  : }

  0025e	e8 00 00 00 00	 call	 __EH_epilog3_GS
  00263	c2 04 00	 ret	 4
_TEXT	ENDS
;	COMDAT text$x
text$x	SEGMENT
__unwindfunclet$?SetFireMesh@ioUroborusWeapon@@IAE_NABVioHashString@@@Z$0:
  00000	8d 4d ac	 lea	 ecx, DWORD PTR _szLinkBiped$[ebp]
  00003	ff 25 00 00 00
	00		 jmp	 DWORD PTR __imp_??1ioHashString@@QAE@XZ
__unwindfunclet$?SetFireMesh@ioUroborusWeapon@@IAE_NABVioHashString@@@Z$1:
  00009	8b 45 bc	 mov	 eax, DWORD PTR $T594009[ebp]
  0000c	83 e0 01	 and	 eax, 1
  0000f	0f 84 0d 00 00
	00		 je	 $LN13@SetFireMes
  00015	83 65 bc fe	 and	 DWORD PTR $T594009[ebp], -2 ; fffffffeH
  00019	8d 4d c8	 lea	 ecx, DWORD PTR $T594004[ebp]
  0001c	ff 25 00 00 00
	00		 jmp	 DWORD PTR __imp_??1ioHashString@@QAE@XZ
$LN13@SetFireMes:
  00022	c3		 ret	 0
__ehhandler$?SetFireMesh@ioUroborusWeapon@@IAE_NABVioHashString@@@Z:
  00023	8b 54 24 08	 mov	 edx, DWORD PTR [esp+8]
  00027	8d 42 0c	 lea	 eax, DWORD PTR [edx+12]
  0002a	8b 4a 98	 mov	 ecx, DWORD PTR [edx-104]
  0002d	33 c8		 xor	 ecx, eax
  0002f	e8 00 00 00 00	 call	 @__security_check_cookie@4
  00034	8b 4a fc	 mov	 ecx, DWORD PTR [edx-4]
  00037	33 c8		 xor	 ecx, eax
  00039	e8 00 00 00 00	 call	 @__security_check_cookie@4
  0003e	b8 00 00 00 00	 mov	 eax, OFFSET __ehfuncinfo$?SetFireMesh@ioUroborusWeapon@@IAE_NABVioHashString@@@Z
  00043	e9 00 00 00 00	 jmp	 ___CxxFrameHandler3
text$x	ENDS
?SetFireMesh@ioUroborusWeapon@@IAE_NABVioHashString@@@Z ENDP ; ioUroborusWeapon::SetFireMesh
PUBLIC	__$ArrayPad$
PUBLIC	?SetEndState@ioUroborusWeapon@@QAEXPAVioPlayStage@@_N@Z ; ioUroborusWeapon::SetEndState
EXTRN	??1SP2Packet@@UAE@XZ:PROC			; SP2Packet::~SP2Packet
EXTRN	?SendToAllPlayingUser@P2PNetwork@@YAXAAVSP2Packet@@PAVioBaseChar@@@Z:PROC ; P2PNetwork::SendToAllPlayingUser
EXTRN	??6SP2Packet@@QAEAAV0@H@Z:PROC			; SP2Packet::operator<<
EXTRN	??6SP2Packet@@QAEAAV0@K@Z:PROC			; SP2Packet::operator<<
EXTRN	??6SP2Packet@@QAEAAV0@ABVioHashString@@@Z:PROC	; SP2Packet::operator<<
EXTRN	??0SP2Packet@@QAE@K@Z:PROC			; SP2Packet::SP2Packet
EXTRN	__imp_?EndEffectGrace@ioEffect@@QAEXXZ:PROC
EXTRN	?SetWorldOrientation@ioMapEffect@@QAEXABUD3DXQUATERNION@@@Z:PROC ; ioMapEffect::SetWorldOrientation
EXTRN	?GetOrientation@ioWeapon@@QBEABUD3DXQUATERNION@@XZ:PROC ; ioWeapon::GetOrientation
EXTRN	?CreateMapEffect@ioPlayStage@@QAEPAVioMapEffect@@ABVioHashString@@ABUD3DXVECTOR3@@1@Z:PROC ; ioPlayStage::CreateMapEffect
EXTRN	?GetScale@ioWeapon@@QBEABUD3DXVECTOR3@@XZ:PROC	; ioWeapon::GetScale
EXTRN	?GetWeaponEndEffect@ioWeapon@@QBEABVioHashString@@XZ:PROC ; ioWeapon::GetWeaponEndEffect
EXTRN	___security_cookie:DWORD
EXTRN	__chkstk:PROC
;	COMDAT xdata$x
; File d:\lost saga for developer\youtube\tutorial\source\src\lsclient\ioweapon.h
xdata$x	SEGMENT
__unwindtable$?SetEndState@ioUroborusWeapon@@QAEXPAVioPlayStage@@_N@Z DD 0ffffffffH
	DD	FLAT:__unwindfunclet$?SetEndState@ioUroborusWeapon@@QAEXPAVioPlayStage@@_N@Z$0
__ehfuncinfo$?SetEndState@ioUroborusWeapon@@QAEXPAVioPlayStage@@_N@Z DD 019930522H
	DD	01H
	DD	FLAT:__unwindtable$?SetEndState@ioUroborusWeapon@@QAEXPAVioPlayStage@@_N@Z
	DD	2 DUP(00H)
	DD	2 DUP(00H)
	DD	00H
	DD	01H
; Function compile flags: /Ogsp
; File d:\lost saga for developer\youtube\tutorial\source\src\lsclient\iouroborusweapon.cpp
xdata$x	ENDS
;	COMDAT ?SetEndState@ioUroborusWeapon@@QAEXPAVioPlayStage@@_N@Z
_TEXT	SEGMENT
_qtRot$590667 = -32828					; size = 16
_pEndEffect$590665 = -32812				; size = 4
_kPacket$590674 = -32808				; size = 32792
__$ArrayPad$ = -16					; size = 4
__$EHRec$ = -12						; size = 12
_pStage$ = 8						; size = 4
_bSendNet$ = 12						; size = 1
?SetEndState@ioUroborusWeapon@@QAEXPAVioPlayStage@@_N@Z PROC ; ioUroborusWeapon::SetEndState, COMDAT
; _this$ = ecx

; 420  : {

  00000	55		 push	 ebp
  00001	8b ec		 mov	 ebp, esp
  00003	6a ff		 push	 -1
  00005	68 00 00 00 00	 push	 __ehhandler$?SetEndState@ioUroborusWeapon@@QAEXPAVioPlayStage@@_N@Z
  0000a	64 a1 00 00 00
	00		 mov	 eax, DWORD PTR fs:0
  00010	50		 push	 eax
  00011	b8 30 80 00 00	 mov	 eax, 32816		; 00008030H
  00016	e8 00 00 00 00	 call	 __chkstk
  0001b	a1 00 00 00 00	 mov	 eax, DWORD PTR ___security_cookie
  00020	33 c5		 xor	 eax, ebp
  00022	89 45 f0	 mov	 DWORD PTR __$ArrayPad$[ebp], eax
  00025	53		 push	 ebx
  00026	56		 push	 esi
  00027	57		 push	 edi
  00028	50		 push	 eax
  00029	8d 45 f4	 lea	 eax, DWORD PTR __$EHRec$[ebp]
  0002c	64 a3 00 00 00
	00		 mov	 DWORD PTR fs:0, eax
  00032	8b 75 08	 mov	 esi, DWORD PTR _pStage$[ebp]

; 421  : 	if( m_UroborusState == US_END )

  00035	6a 02		 push	 2
  00037	8b d9		 mov	 ebx, ecx
  00039	58		 pop	 eax
  0003a	39 83 94 08 00
	00		 cmp	 DWORD PTR [ebx+2196], eax
  00040	0f 84 12 01 00
	00		 je	 $LN1@SetEndStat

; 422  : 		return;
; 423  : 
; 424  : 	m_UroborusState = US_END;

  00046	89 83 94 08 00
	00		 mov	 DWORD PTR [ebx+2196], eax

; 425  : 
; 426  : 	if( !GetWeaponEndEffect().IsEmpty() )

  0004c	e8 00 00 00 00	 call	 ?GetWeaponEndEffect@ioWeapon@@QBEABVioHashString@@XZ ; ioWeapon::GetWeaponEndEffect
  00051	8b c8		 mov	 ecx, eax
  00053	ff 15 00 00 00
	00		 call	 DWORD PTR __imp_?IsEmpty@ioHashString@@QBE_NXZ
  00059	84 c0		 test	 al, al
  0005b	75 4e		 jne	 SHORT $LN4@SetEndStat

; 427  : 	{
; 428  : 		ioMapEffect *pEndEffect = pStage->CreateMapEffect( GetWeaponEndEffect(), GetPosition(), GetScale() );

  0005d	8b cb		 mov	 ecx, ebx
  0005f	e8 00 00 00 00	 call	 ?GetScale@ioWeapon@@QBEABUD3DXVECTOR3@@XZ ; ioWeapon::GetScale
  00064	50		 push	 eax
  00065	8b 03		 mov	 eax, DWORD PTR [ebx]
  00067	8b cb		 mov	 ecx, ebx
  00069	ff 50 70	 call	 DWORD PTR [eax+112]
  0006c	50		 push	 eax
  0006d	8b cb		 mov	 ecx, ebx
  0006f	e8 00 00 00 00	 call	 ?GetWeaponEndEffect@ioWeapon@@QBEABVioHashString@@XZ ; ioWeapon::GetWeaponEndEffect
  00074	50		 push	 eax
  00075	8b ce		 mov	 ecx, esi
  00077	e8 00 00 00 00	 call	 ?CreateMapEffect@ioPlayStage@@QAEPAVioMapEffect@@ABVioHashString@@ABUD3DXVECTOR3@@1@Z ; ioPlayStage::CreateMapEffect
  0007c	89 85 d4 7f ff
	ff		 mov	 DWORD PTR _pEndEffect$590665[ebp], eax

; 429  : 		if( pEndEffect )

  00082	85 c0		 test	 eax, eax
  00084	74 25		 je	 SHORT $LN4@SetEndStat

; 430  : 		{
; 431  : 			D3DXQUATERNION qtRot = GetOrientation();

  00086	8b cb		 mov	 ecx, ebx
  00088	e8 00 00 00 00	 call	 ?GetOrientation@ioWeapon@@QBEABUD3DXQUATERNION@@XZ ; ioWeapon::GetOrientation

; 432  : 			pEndEffect->SetWorldOrientation( qtRot );

  0008d	8b 8d d4 7f ff
	ff		 mov	 ecx, DWORD PTR _pEndEffect$590665[ebp]
  00093	8b f0		 mov	 esi, eax
  00095	8d bd c4 7f ff
	ff		 lea	 edi, DWORD PTR _qtRot$590667[ebp]
  0009b	a5		 movsd
  0009c	a5		 movsd
  0009d	a5		 movsd
  0009e	8d 85 c4 7f ff
	ff		 lea	 eax, DWORD PTR _qtRot$590667[ebp]
  000a4	50		 push	 eax
  000a5	a5		 movsd
  000a6	e8 00 00 00 00	 call	 ?SetWorldOrientation@ioMapEffect@@QAEXABUD3DXQUATERNION@@@Z ; ioMapEffect::SetWorldOrientation
$LN4@SetEndStat:

; 433  : 		}
; 434  : 	}
; 435  : 
; 436  : 	if( m_pFireMesh )

  000ab	33 ff		 xor	 edi, edi
  000ad	39 bb 98 08 00
	00		 cmp	 DWORD PTR [ebx+2200], edi
  000b3	74 22		 je	 SHORT $LN3@SetEndStat

; 437  : 	{
; 438  : 		SAFEDELETE( m_pGuideArrow );

  000b5	8b 8b 9c 08 00
	00		 mov	 ecx, DWORD PTR [ebx+2204]
  000bb	3b cf		 cmp	 ecx, edi
  000bd	74 0c		 je	 SHORT $LN2@SetEndStat
  000bf	8b 01		 mov	 eax, DWORD PTR [ecx]
  000c1	6a 01		 push	 1
  000c3	ff 10		 call	 DWORD PTR [eax]
  000c5	89 bb 9c 08 00
	00		 mov	 DWORD PTR [ebx+2204], edi
$LN2@SetEndStat:

; 439  : 		m_pFireMesh->EndEffectGrace();

  000cb	8b 8b 98 08 00
	00		 mov	 ecx, DWORD PTR [ebx+2200]
  000d1	ff 15 00 00 00
	00		 call	 DWORD PTR __imp_?EndEffectGrace@ioEffect@@QAEXXZ
$LN3@SetEndStat:

; 440  : 	}
; 441  : 
; 442  : 	ioBaseChar *pOwner = GetOwner();

  000d7	8b cb		 mov	 ecx, ebx
  000d9	e8 00 00 00 00	 call	 ?GetOwner@ioWeapon@@QBEPAVioBaseChar@@XZ ; ioWeapon::GetOwner

; 443  : 	if( bSendNet && pOwner && pOwner->IsNeedSendNetwork() )

  000de	80 7d 0c 00	 cmp	 BYTE PTR _bSendNet$[ebp], 0
  000e2	74 74		 je	 SHORT $LN1@SetEndStat
  000e4	3b c7		 cmp	 eax, edi
  000e6	74 70		 je	 SHORT $LN1@SetEndStat
  000e8	8b 10		 mov	 edx, DWORD PTR [eax]
  000ea	8b c8		 mov	 ecx, eax
  000ec	ff 92 04 01 00
	00		 call	 DWORD PTR [edx+260]
  000f2	84 c0		 test	 al, al
  000f4	74 62		 je	 SHORT $LN1@SetEndStat

; 444  : 	{
; 445  : 		SP2Packet kPacket( CUPK_WEAPON_SYNC );

  000f6	68 16 42 00 00	 push	 16918			; 00004216H
  000fb	8d 8d d8 7f ff
	ff		 lea	 ecx, DWORD PTR _kPacket$590674[ebp]
  00101	e8 00 00 00 00	 call	 ??0SP2Packet@@QAE@K@Z	; SP2Packet::SP2Packet

; 446  : 		kPacket << GetOwnerName();

  00106	8d 43 10	 lea	 eax, DWORD PTR [ebx+16]
  00109	50		 push	 eax
  0010a	8d 8d d8 7f ff
	ff		 lea	 ecx, DWORD PTR _kPacket$590674[ebp]
  00110	89 7d fc	 mov	 DWORD PTR __$EHRec$[ebp+8], edi
  00113	e8 00 00 00 00	 call	 ??6SP2Packet@@QAEAAV0@ABVioHashString@@@Z ; SP2Packet::operator<<

; 447  : 		kPacket << m_dwWeaponIdx;

  00118	ff b3 b8 04 00
	00		 push	 DWORD PTR [ebx+1208]
  0011e	8d 8d d8 7f ff
	ff		 lea	 ecx, DWORD PTR _kPacket$590674[ebp]
  00124	e8 00 00 00 00	 call	 ??6SP2Packet@@QAEAAV0@K@Z ; SP2Packet::operator<<

; 448  : 		kPacket << m_UroborusState;

  00129	ff b3 94 08 00
	00		 push	 DWORD PTR [ebx+2196]
  0012f	8d 8d d8 7f ff
	ff		 lea	 ecx, DWORD PTR _kPacket$590674[ebp]
  00135	e8 00 00 00 00	 call	 ??6SP2Packet@@QAEAAV0@H@Z ; SP2Packet::operator<<

; 449  : 		P2PNetwork::SendToAllPlayingUser( kPacket );

  0013a	8d 85 d8 7f ff
	ff		 lea	 eax, DWORD PTR _kPacket$590674[ebp]
  00140	57		 push	 edi
  00141	50		 push	 eax
  00142	e8 00 00 00 00	 call	 ?SendToAllPlayingUser@P2PNetwork@@YAXAAVSP2Packet@@PAVioBaseChar@@@Z ; P2PNetwork::SendToAllPlayingUser

; 450  : 	}

  00147	83 4d fc ff	 or	 DWORD PTR __$EHRec$[ebp+8], -1
  0014b	59		 pop	 ecx
  0014c	59		 pop	 ecx
  0014d	8d 8d d8 7f ff
	ff		 lea	 ecx, DWORD PTR _kPacket$590674[ebp]
  00153	e8 00 00 00 00	 call	 ??1SP2Packet@@UAE@XZ	; SP2Packet::~SP2Packet
$LN1@SetEndStat:

; 451  : }

  00158	8b 4d f4	 mov	 ecx, DWORD PTR __$EHRec$[ebp]
  0015b	64 89 0d 00 00
	00 00		 mov	 DWORD PTR fs:0, ecx
  00162	59		 pop	 ecx
  00163	5f		 pop	 edi
  00164	5e		 pop	 esi
  00165	5b		 pop	 ebx
  00166	8b 4d f0	 mov	 ecx, DWORD PTR __$ArrayPad$[ebp]
  00169	33 cd		 xor	 ecx, ebp
  0016b	e8 00 00 00 00	 call	 @__security_check_cookie@4
  00170	c9		 leave
  00171	c2 08 00	 ret	 8
_TEXT	ENDS
;	COMDAT text$x
text$x	SEGMENT
__unwindfunclet$?SetEndState@ioUroborusWeapon@@QAEXPAVioPlayStage@@_N@Z$0:
  00000	8d 8d d8 7f ff
	ff		 lea	 ecx, DWORD PTR _kPacket$590674[ebp]
  00006	e9 00 00 00 00	 jmp	 ??1SP2Packet@@UAE@XZ	; SP2Packet::~SP2Packet
__ehhandler$?SetEndState@ioUroborusWeapon@@QAEXPAVioPlayStage@@_N@Z:
  0000b	8b 54 24 08	 mov	 edx, DWORD PTR [esp+8]
  0000f	8d 42 0c	 lea	 eax, DWORD PTR [edx+12]
  00012	8b 8a c0 7f ff
	ff		 mov	 ecx, DWORD PTR [edx-32832]
  00018	33 c8		 xor	 ecx, eax
  0001a	e8 00 00 00 00	 call	 @__security_check_cookie@4
  0001f	8b 4a fc	 mov	 ecx, DWORD PTR [edx-4]
  00022	33 c8		 xor	 ecx, eax
  00024	e8 00 00 00 00	 call	 @__security_check_cookie@4
  00029	b8 00 00 00 00	 mov	 eax, OFFSET __ehfuncinfo$?SetEndState@ioUroborusWeapon@@QAEXPAVioPlayStage@@_N@Z
  0002e	e9 00 00 00 00	 jmp	 ___CxxFrameHandler3
text$x	ENDS
?SetEndState@ioUroborusWeapon@@QAEXPAVioPlayStage@@_N@Z ENDP ; ioUroborusWeapon::SetEndState
PUBLIC	??D?$CEncrypt@M@@QAEMABM@Z			; CEncrypt<float>::operator*
; Function compile flags: /Ogsp
; File d:\lost saga for developer\youtube\tutorial\source\src\lsclient\encryptvalue.h
;	COMDAT ??D?$CEncrypt@M@@QAEMABM@Z
_TEXT	SEGMENT
_value$ = -4						; size = 4
tv130 = 8						; size = 4
_inValue$ = 8						; size = 4
??D?$CEncrypt@M@@QAEMABM@Z PROC				; CEncrypt<float>::operator*, COMDAT
; _this$ = ecx

; 1685 : 	{	

  00000	55		 push	 ebp
  00001	8b ec		 mov	 ebp, esp
  00003	51		 push	 ecx

; 1686 : 		type value;
; 1687 : 		DecryptValueToPool(&value);

  00004	8d 45 fc	 lea	 eax, DWORD PTR _value$[ebp]
  00007	50		 push	 eax
  00008	e8 00 00 00 00	 call	 ?DecryptValueToPool@?$CEncrypt@M@@QAEXPAM@Z ; CEncrypt<float>::DecryptValueToPool

; 1688 : #ifdef _NOTUSE
; 1689 : 		Debug();
; 1690 : #endif
; 1691 : 		return value * inValue;

  0000d	8b 45 08	 mov	 eax, DWORD PTR _inValue$[ebp]
  00010	d9 00		 fld	 DWORD PTR [eax]
  00012	d8 4d fc	 fmul	 DWORD PTR _value$[ebp]
  00015	d9 5d 08	 fstp	 DWORD PTR tv130[ebp]
  00018	d9 45 08	 fld	 DWORD PTR tv130[ebp]

; 1692 : 	}

  0001b	c9		 leave
  0001c	c2 04 00	 ret	 4
??D?$CEncrypt@M@@QAEMABM@Z ENDP				; CEncrypt<float>::operator*
_TEXT	ENDS
PUBLIC	??8?$CEncrypt@M@@QAE_NABM@Z			; CEncrypt<float>::operator==
; Function compile flags: /Ogsp
;	COMDAT ??8?$CEncrypt@M@@QAE_NABM@Z
_TEXT	SEGMENT
_value$ = -4						; size = 4
_inValue$ = 8						; size = 4
??8?$CEncrypt@M@@QAE_NABM@Z PROC			; CEncrypt<float>::operator==, COMDAT
; _this$ = ecx

; 1781 : 	{

  00000	55		 push	 ebp
  00001	8b ec		 mov	 ebp, esp
  00003	51		 push	 ecx

; 1782 : 		type value;
; 1783 : 		DecryptValueToPool(&value);

  00004	8d 45 fc	 lea	 eax, DWORD PTR _value$[ebp]
  00007	50		 push	 eax
  00008	e8 00 00 00 00	 call	 ?DecryptValueToPool@?$CEncrypt@M@@QAEXPAM@Z ; CEncrypt<float>::DecryptValueToPool

; 1784 : #ifdef _NOTUSE
; 1785 : 		Debug();
; 1786 : #endif
; 1787 : 		return (value == inValue);

  0000d	8b 45 08	 mov	 eax, DWORD PTR _inValue$[ebp]
  00010	f3 0f 10 08	 movss	 xmm1, DWORD PTR [eax]
  00014	f3 0f 10 45 fc	 movss	 xmm0, DWORD PTR _value$[ebp]
  00019	0f 5a c0	 cvtps2pd xmm0, xmm0
  0001c	0f 5a c9	 cvtps2pd xmm1, xmm1
  0001f	66 0f 2e c1	 ucomisd xmm0, xmm1
  00023	9f		 lahf
  00024	f6 c4 44	 test	 ah, 68			; 00000044H
  00027	7a 05		 jp	 SHORT $LN3@operator
  00029	33 c0		 xor	 eax, eax
  0002b	40		 inc	 eax
  0002c	eb 02		 jmp	 SHORT $LN4@operator
$LN3@operator:
  0002e	33 c0		 xor	 eax, eax
$LN4@operator:

; 1788 : 	} 

  00030	c9		 leave
  00031	c2 04 00	 ret	 4
??8?$CEncrypt@M@@QAE_NABM@Z ENDP			; CEncrypt<float>::operator==
_TEXT	ENDS
PUBLIC	??M?$CEncrypt@M@@QAE_NABM@Z			; CEncrypt<float>::operator<
; Function compile flags: /Ogsp
;	COMDAT ??M?$CEncrypt@M@@QAE_NABM@Z
_TEXT	SEGMENT
_value$ = -4						; size = 4
_inValue$ = 8						; size = 4
??M?$CEncrypt@M@@QAE_NABM@Z PROC			; CEncrypt<float>::operator<, COMDAT
; _this$ = ecx

; 1791 : 	{

  00000	55		 push	 ebp
  00001	8b ec		 mov	 ebp, esp
  00003	51		 push	 ecx

; 1792 : 		type value;
; 1793 : 		DecryptValueToPool(&value);

  00004	8d 45 fc	 lea	 eax, DWORD PTR _value$[ebp]
  00007	50		 push	 eax
  00008	e8 00 00 00 00	 call	 ?DecryptValueToPool@?$CEncrypt@M@@QAEXPAM@Z ; CEncrypt<float>::DecryptValueToPool

; 1794 : #ifdef _NOTUSE
; 1795 : 		Debug();
; 1796 : #endif
; 1797 : 		return (value < inValue);

  0000d	8b 45 08	 mov	 eax, DWORD PTR _inValue$[ebp]
  00010	f3 0f 10 08	 movss	 xmm1, DWORD PTR [eax]
  00014	f3 0f 10 45 fc	 movss	 xmm0, DWORD PTR _value$[ebp]
  00019	0f 5a c0	 cvtps2pd xmm0, xmm0
  0001c	0f 5a c9	 cvtps2pd xmm1, xmm1
  0001f	33 c0		 xor	 eax, eax
  00021	66 0f 2f c8	 comisd	 xmm1, xmm0
  00025	76 01		 jbe	 SHORT $LN4@operator@2
  00027	40		 inc	 eax
$LN4@operator@2:

; 1798 : 	} 

  00028	c9		 leave
  00029	c2 04 00	 ret	 4
??M?$CEncrypt@M@@QAE_NABM@Z ENDP			; CEncrypt<float>::operator<
_TEXT	ENDS
PUBLIC	??O?$CEncrypt@K@@QAE_NABH@Z			; CEncrypt<unsigned long>::operator>
; Function compile flags: /Ogsp
;	COMDAT ??O?$CEncrypt@K@@QAE_NABH@Z
_TEXT	SEGMENT
_value$ = -4						; size = 4
_inValue$ = 8						; size = 4
??O?$CEncrypt@K@@QAE_NABH@Z PROC			; CEncrypt<unsigned long>::operator>, COMDAT
; _this$ = ecx

; 1009 : 	{

  00000	55		 push	 ebp
  00001	8b ec		 mov	 ebp, esp
  00003	51		 push	 ecx

; 1010 : 		
; 1011 : 		type value;
; 1012 : 		DecryptValueToPool(&value);

  00004	8d 45 fc	 lea	 eax, DWORD PTR _value$[ebp]
  00007	50		 push	 eax
  00008	e8 00 00 00 00	 call	 ?DecryptValueToPool@?$CEncrypt@K@@QAEXPAK@Z ; CEncrypt<unsigned long>::DecryptValueToPool

; 1013 : #ifdef _NOTUSE
; 1014 : 		Debug();
; 1015 : #endif
; 1016 : 		return (value > inValue);

  0000d	8b 45 08	 mov	 eax, DWORD PTR _inValue$[ebp]
  00010	8b 00		 mov	 eax, DWORD PTR [eax]
  00012	3b 45 fc	 cmp	 eax, DWORD PTR _value$[ebp]
  00015	1b c0		 sbb	 eax, eax
  00017	f7 d8		 neg	 eax

; 1017 : 	}		

  00019	c9		 leave
  0001a	c2 04 00	 ret	 4
??O?$CEncrypt@K@@QAE_NABH@Z ENDP			; CEncrypt<unsigned long>::operator>
_TEXT	ENDS
PUBLIC	_this$GSCopy$
PUBLIC	__$ArrayPad$
PUBLIC	??$LoadString_e@$0BA@@ioINILoader@@QAEXAAY0BA@$$CBDAAY00$$CBDPADH@Z ; ioINILoader::LoadString_e<16>
EXTRN	__imp_?LoadStringA@ioINILoader@@QAEXPBD0PADH@Z:PROC
; Function compile flags: /Ogsp
; File d:\lost saga for developer\youtube\tutorial\source\src\io3dengine\ioiniloader.h
;	COMDAT ??$LoadString_e@$0BA@@ioINILoader@@QAEXAAY0BA@$$CBDAAY00$$CBDPADH@Z
_TEXT	SEGMENT
_this$GSCopy$ = -28					; size = 4
__k$ = -24						; size = 16
__$ArrayPad$ = -4					; size = 4
_k$ = 8							; size = 4
_d$ = 12						; size = 4
_b$ = 16						; size = 4
_i$ = 20						; size = 4
??$LoadString_e@$0BA@@ioINILoader@@QAEXAAY0BA@$$CBDAAY00$$CBDPADH@Z PROC ; ioINILoader::LoadString_e<16>, COMDAT
; _this$ = ecx

; 161  : 	{

  00000	55		 push	 ebp
  00001	8b ec		 mov	 ebp, esp
  00003	83 ec 1c	 sub	 esp, 28			; 0000001cH
  00006	a1 00 00 00 00	 mov	 eax, DWORD PTR ___security_cookie
  0000b	33 c5		 xor	 eax, ebp
  0000d	89 45 fc	 mov	 DWORD PTR __$ArrayPad$[ebp], eax
  00010	8b 45 08	 mov	 eax, DWORD PTR _k$[ebp]

; 162  : 		_ENCSTR(k, _k);

  00013	8a 10		 mov	 dl, BYTE PTR [eax]
  00015	56		 push	 esi
  00016	8b 75 0c	 mov	 esi, DWORD PTR _d$[ebp]
  00019	57		 push	 edi
  0001a	8b 7d 10	 mov	 edi, DWORD PTR _b$[ebp]
  0001d	89 4d e4	 mov	 DWORD PTR _this$GSCopy$[ebp], ecx
  00020	84 d2		 test	 dl, dl
  00022	0f 84 8c 01 00
	00		 je	 $LN96@LoadString
  00028	80 f2 ed	 xor	 dl, -19			; ffffffedH
  0002b	88 55 e8	 mov	 BYTE PTR __k$[ebp], dl
  0002e	8a 50 01	 mov	 dl, BYTE PTR [eax+1]
  00031	84 d2		 test	 dl, dl
  00033	0f 84 75 01 00
	00		 je	 $LN95@LoadString
  00039	80 f2 ec	 xor	 dl, -20			; ffffffecH
  0003c	88 55 e9	 mov	 BYTE PTR __k$[ebp+1], dl
  0003f	8a 50 02	 mov	 dl, BYTE PTR [eax+2]
  00042	84 d2		 test	 dl, dl
  00044	0f 84 5e 01 00
	00		 je	 $LN94@LoadString
  0004a	b1 eb		 mov	 cl, -21			; ffffffebH
  0004c	32 d1		 xor	 dl, cl
  0004e	88 55 ea	 mov	 BYTE PTR __k$[ebp+2], dl
  00051	8a 50 03	 mov	 dl, BYTE PTR [eax+3]
  00054	84 d2		 test	 dl, dl
  00056	0f 84 46 01 00
	00		 je	 $LN93@LoadString
  0005c	80 f2 ea	 xor	 dl, -22			; ffffffeaH
  0005f	88 55 eb	 mov	 BYTE PTR __k$[ebp+3], dl
  00062	8a 50 04	 mov	 dl, BYTE PTR [eax+4]
  00065	84 d2		 test	 dl, dl
  00067	0f 84 2f 01 00
	00		 je	 $LN92@LoadString
  0006d	80 f2 ed	 xor	 dl, -19			; ffffffedH
  00070	88 55 ec	 mov	 BYTE PTR __k$[ebp+4], dl
  00073	8a 50 05	 mov	 dl, BYTE PTR [eax+5]
  00076	84 d2		 test	 dl, dl
  00078	0f 84 18 01 00
	00		 je	 $LN91@LoadString
  0007e	80 f2 ec	 xor	 dl, -20			; ffffffecH
  00081	88 55 ed	 mov	 BYTE PTR __k$[ebp+5], dl
  00084	8a 50 06	 mov	 dl, BYTE PTR [eax+6]
  00087	84 d2		 test	 dl, dl
  00089	0f 84 02 01 00
	00		 je	 $LN90@LoadString
  0008f	32 d1		 xor	 dl, cl
  00091	88 55 ee	 mov	 BYTE PTR __k$[ebp+6], dl
  00094	8a 50 07	 mov	 dl, BYTE PTR [eax+7]
  00097	84 d2		 test	 dl, dl
  00099	0f 84 ec 00 00
	00		 je	 $LN89@LoadString
  0009f	80 f2 ea	 xor	 dl, -22			; ffffffeaH
  000a2	88 55 ef	 mov	 BYTE PTR __k$[ebp+7], dl
  000a5	8a 50 08	 mov	 dl, BYTE PTR [eax+8]
  000a8	84 d2		 test	 dl, dl
  000aa	0f 84 d5 00 00
	00		 je	 $LN88@LoadString
  000b0	80 f2 ed	 xor	 dl, -19			; ffffffedH
  000b3	88 55 f0	 mov	 BYTE PTR __k$[ebp+8], dl
  000b6	8a 50 09	 mov	 dl, BYTE PTR [eax+9]
  000b9	84 d2		 test	 dl, dl
  000bb	0f 84 be 00 00
	00		 je	 $LN87@LoadString
  000c1	80 f2 ec	 xor	 dl, -20			; ffffffecH
  000c4	88 55 f1	 mov	 BYTE PTR __k$[ebp+9], dl
  000c7	8a 50 0a	 mov	 dl, BYTE PTR [eax+10]
  000ca	84 d2		 test	 dl, dl
  000cc	0f 84 a8 00 00
	00		 je	 $LN86@LoadString
  000d2	32 d1		 xor	 dl, cl
  000d4	88 55 f2	 mov	 BYTE PTR __k$[ebp+10], dl
  000d7	8a 50 0b	 mov	 dl, BYTE PTR [eax+11]
  000da	84 d2		 test	 dl, dl
  000dc	0f 84 92 00 00
	00		 je	 $LN85@LoadString
  000e2	80 f2 ea	 xor	 dl, -22			; ffffffeaH
  000e5	88 55 f3	 mov	 BYTE PTR __k$[ebp+11], dl
  000e8	8a 50 0c	 mov	 dl, BYTE PTR [eax+12]
  000eb	84 d2		 test	 dl, dl
  000ed	74 7f		 je	 SHORT $LN84@LoadString
  000ef	80 f2 ed	 xor	 dl, -19			; ffffffedH
  000f2	88 55 f4	 mov	 BYTE PTR __k$[ebp+12], dl
  000f5	8a 50 0d	 mov	 dl, BYTE PTR [eax+13]
  000f8	84 d2		 test	 dl, dl
  000fa	74 6c		 je	 SHORT $LN83@LoadString
  000fc	80 f2 ec	 xor	 dl, -20			; ffffffecH
  000ff	88 55 f5	 mov	 BYTE PTR __k$[ebp+13], dl
  00102	8a 50 0e	 mov	 dl, BYTE PTR [eax+14]
  00105	84 d2		 test	 dl, dl
  00107	74 5a		 je	 SHORT $LN82@LoadString
  00109	32 d1		 xor	 dl, cl
  0010b	80 78 0f 00	 cmp	 BYTE PTR [eax+15], 0
  0010f	88 55 f6	 mov	 BYTE PTR __k$[ebp+14], dl
  00112	0f 84 a0 00 00
	00		 je	 $LN111@LoadString
  00118	8a 50 10	 mov	 dl, BYTE PTR [eax+16]
  0011b	84 d2		 test	 dl, dl
  0011d	74 3e		 je	 SHORT $LN80@LoadString
  0011f	80 f2 ed	 xor	 dl, -19			; ffffffedH
  00122	88 55 f8	 mov	 BYTE PTR __k$[ebp+16], dl
  00125	8a 50 11	 mov	 dl, BYTE PTR [eax+17]
  00128	84 d2		 test	 dl, dl
  0012a	74 2b		 je	 SHORT $LN79@LoadString
  0012c	80 f2 ec	 xor	 dl, -20			; ffffffecH
  0012f	88 55 f9	 mov	 BYTE PTR __k$[ebp+17], dl
  00132	8a 50 12	 mov	 dl, BYTE PTR [eax+18]
  00135	84 d2		 test	 dl, dl
  00137	74 19		 je	 SHORT $LN78@LoadString
  00139	8a 40 13	 mov	 al, BYTE PTR [eax+19]
  0013c	32 d1		 xor	 dl, cl
  0013e	88 55 fa	 mov	 BYTE PTR __k$[ebp+18], dl
  00141	84 c0		 test	 al, al
  00143	74 07		 je	 SHORT $LN77@LoadString
  00145	34 ea		 xor	 al, -22			; ffffffeaH
  00147	88 45 fb	 mov	 BYTE PTR __k$[ebp+19], al
  0014a	eb 6c		 jmp	 SHORT $LN111@LoadString
$LN77@LoadString:
  0014c	c6 45 fb ea	 mov	 BYTE PTR __k$[ebp+19], -22 ; ffffffeaH
  00150	eb 66		 jmp	 SHORT $LN111@LoadString
$LN78@LoadString:
  00152	88 4d fa	 mov	 BYTE PTR __k$[ebp+18], cl
  00155	eb 61		 jmp	 SHORT $LN111@LoadString
$LN79@LoadString:
  00157	c6 45 f9 ec	 mov	 BYTE PTR __k$[ebp+17], -20 ; ffffffecH
  0015b	eb 5b		 jmp	 SHORT $LN111@LoadString
$LN80@LoadString:
  0015d	c6 45 f8 ed	 mov	 BYTE PTR __k$[ebp+16], -19 ; ffffffedH
  00161	eb 55		 jmp	 SHORT $LN111@LoadString
$LN82@LoadString:
  00163	88 4d f6	 mov	 BYTE PTR __k$[ebp+14], cl
  00166	eb 50		 jmp	 SHORT $LN111@LoadString
$LN83@LoadString:
  00168	c6 45 f5 ec	 mov	 BYTE PTR __k$[ebp+13], -20 ; ffffffecH
  0016c	eb 4a		 jmp	 SHORT $LN111@LoadString
$LN84@LoadString:
  0016e	c6 45 f4 ed	 mov	 BYTE PTR __k$[ebp+12], -19 ; ffffffedH
  00172	eb 44		 jmp	 SHORT $LN111@LoadString
$LN85@LoadString:
  00174	c6 45 f3 ea	 mov	 BYTE PTR __k$[ebp+11], -22 ; ffffffeaH
  00178	eb 3e		 jmp	 SHORT $LN111@LoadString
$LN86@LoadString:
  0017a	88 4d f2	 mov	 BYTE PTR __k$[ebp+10], cl
  0017d	eb 39		 jmp	 SHORT $LN111@LoadString
$LN87@LoadString:
  0017f	c6 45 f1 ec	 mov	 BYTE PTR __k$[ebp+9], -20 ; ffffffecH
  00183	eb 33		 jmp	 SHORT $LN111@LoadString
$LN88@LoadString:
  00185	c6 45 f0 ed	 mov	 BYTE PTR __k$[ebp+8], -19 ; ffffffedH
  00189	eb 2d		 jmp	 SHORT $LN111@LoadString
$LN89@LoadString:
  0018b	c6 45 ef ea	 mov	 BYTE PTR __k$[ebp+7], -22 ; ffffffeaH
  0018f	eb 27		 jmp	 SHORT $LN111@LoadString
$LN90@LoadString:
  00191	88 4d ee	 mov	 BYTE PTR __k$[ebp+6], cl
  00194	eb 22		 jmp	 SHORT $LN111@LoadString
$LN91@LoadString:
  00196	c6 45 ed ec	 mov	 BYTE PTR __k$[ebp+5], -20 ; ffffffecH
  0019a	eb 1c		 jmp	 SHORT $LN111@LoadString
$LN92@LoadString:
  0019c	c6 45 ec ed	 mov	 BYTE PTR __k$[ebp+4], -19 ; ffffffedH
  001a0	eb 16		 jmp	 SHORT $LN111@LoadString
$LN93@LoadString:
  001a2	c6 45 eb ea	 mov	 BYTE PTR __k$[ebp+3], -22 ; ffffffeaH
  001a6	eb 10		 jmp	 SHORT $LN111@LoadString
$LN94@LoadString:
  001a8	c6 45 ea eb	 mov	 BYTE PTR __k$[ebp+2], -21 ; ffffffebH
  001ac	eb 0a		 jmp	 SHORT $LN111@LoadString
$LN95@LoadString:
  001ae	c6 45 e9 ec	 mov	 BYTE PTR __k$[ebp+1], -20 ; ffffffecH
  001b2	eb 04		 jmp	 SHORT $LN111@LoadString
$LN96@LoadString:
  001b4	c6 45 e8 ed	 mov	 BYTE PTR __k$[ebp], -19	; ffffffedH
$LN111@LoadString:
  001b8	6a 03		 push	 3
  001ba	8d 45 e8	 lea	 eax, DWORD PTR __k$[ebp]
  001bd	c6 45 f7 00	 mov	 BYTE PTR __k$[ebp+15], 0
  001c1	5a		 pop	 edx
$LL104@LoadString:
  001c2	81 30 ed ec eb
	ea		 xor	 DWORD PTR [eax], -353637139 ; eaebecedH
  001c8	83 c0 04	 add	 eax, 4
  001cb	4a		 dec	 edx
  001cc	75 f4		 jne	 SHORT $LL104@LoadString
  001ce	6a 0c		 push	 12			; 0000000cH
  001d0	58		 pop	 eax
$LL101@LoadString:
  001d1	8b c8		 mov	 ecx, eax
  001d3	81 e1 03 00 00
	80		 and	 ecx, -2147483645	; 80000003H
  001d9	79 05		 jns	 SHORT $LN112@LoadString
  001db	49		 dec	 ecx
  001dc	83 c9 fc	 or	 ecx, -4			; fffffffcH
  001df	41		 inc	 ecx
$LN112@LoadString:
  001e0	b2 ed		 mov	 dl, -19			; ffffffedH
  001e2	2a d1		 sub	 dl, cl
  001e4	30 54 05 e8	 xor	 BYTE PTR __k$[ebp+eax], dl
  001e8	40		 inc	 eax
  001e9	83 f8 0f	 cmp	 eax, 15			; 0000000fH
  001ec	7c e3		 jl	 SHORT $LL101@LoadString

; 163  : 		LoadString(_k, d, b, i);

  001ee	ff 75 14	 push	 DWORD PTR _i$[ebp]
  001f1	8b 4d e4	 mov	 ecx, DWORD PTR _this$GSCopy$[ebp]
  001f4	57		 push	 edi
  001f5	56		 push	 esi
  001f6	8d 45 e8	 lea	 eax, DWORD PTR __k$[ebp]
  001f9	50		 push	 eax
  001fa	ff 15 00 00 00
	00		 call	 DWORD PTR __imp_?LoadStringA@ioINILoader@@QAEXPBD0PADH@Z

; 164  : 	}

  00200	8b 4d fc	 mov	 ecx, DWORD PTR __$ArrayPad$[ebp]
  00203	5f		 pop	 edi
  00204	33 cd		 xor	 ecx, ebp
  00206	5e		 pop	 esi
  00207	e8 00 00 00 00	 call	 @__security_check_cookie@4
  0020c	c9		 leave
  0020d	c2 10 00	 ret	 16			; 00000010H
??$LoadString_e@$0BA@@ioINILoader@@QAEXAAY0BA@$$CBDAAY00$$CBDPADH@Z ENDP ; ioINILoader::LoadString_e<16>
_TEXT	ENDS
PUBLIC	_this$GSCopy$
PUBLIC	__$ArrayPad$
PUBLIC	??$LoadString_e@$0BB@@ioINILoader@@QAEXAAY0BB@$$CBDAAY00$$CBDPADH@Z ; ioINILoader::LoadString_e<17>
; Function compile flags: /Ogsp
;	COMDAT ??$LoadString_e@$0BB@@ioINILoader@@QAEXAAY0BB@$$CBDAAY00$$CBDPADH@Z
_TEXT	SEGMENT
_this$GSCopy$ = -32					; size = 4
__k$ = -28						; size = 17
__$ArrayPad$ = -4					; size = 4
_k$ = 8							; size = 4
_d$ = 12						; size = 4
_b$ = 16						; size = 4
_i$ = 20						; size = 4
??$LoadString_e@$0BB@@ioINILoader@@QAEXAAY0BB@$$CBDAAY00$$CBDPADH@Z PROC ; ioINILoader::LoadString_e<17>, COMDAT
; _this$ = ecx

; 161  : 	{

  00000	55		 push	 ebp
  00001	8b ec		 mov	 ebp, esp
  00003	83 ec 20	 sub	 esp, 32			; 00000020H
  00006	a1 00 00 00 00	 mov	 eax, DWORD PTR ___security_cookie
  0000b	33 c5		 xor	 eax, ebp
  0000d	89 45 fc	 mov	 DWORD PTR __$ArrayPad$[ebp], eax
  00010	8b 45 08	 mov	 eax, DWORD PTR _k$[ebp]

; 162  : 		_ENCSTR(k, _k);

  00013	8a 10		 mov	 dl, BYTE PTR [eax]
  00015	56		 push	 esi
  00016	8b 75 0c	 mov	 esi, DWORD PTR _d$[ebp]
  00019	57		 push	 edi
  0001a	8b 7d 10	 mov	 edi, DWORD PTR _b$[ebp]
  0001d	89 4d e0	 mov	 DWORD PTR _this$GSCopy$[ebp], ecx
  00020	84 d2		 test	 dl, dl
  00022	0f 84 a7 01 00
	00		 je	 $LN96@LoadString@2
  00028	80 f2 ed	 xor	 dl, -19			; ffffffedH
  0002b	88 55 e4	 mov	 BYTE PTR __k$[ebp], dl
  0002e	8a 50 01	 mov	 dl, BYTE PTR [eax+1]
  00031	84 d2		 test	 dl, dl
  00033	0f 84 90 01 00
	00		 je	 $LN95@LoadString@2
  00039	b1 ec		 mov	 cl, -20			; ffffffecH
  0003b	32 d1		 xor	 dl, cl
  0003d	88 55 e5	 mov	 BYTE PTR __k$[ebp+1], dl
  00040	8a 50 02	 mov	 dl, BYTE PTR [eax+2]
  00043	84 d2		 test	 dl, dl
  00045	0f 84 78 01 00
	00		 je	 $LN94@LoadString@2
  0004b	80 f2 eb	 xor	 dl, -21			; ffffffebH
  0004e	88 55 e6	 mov	 BYTE PTR __k$[ebp+2], dl
  00051	8a 50 03	 mov	 dl, BYTE PTR [eax+3]
  00054	84 d2		 test	 dl, dl
  00056	0f 84 61 01 00
	00		 je	 $LN93@LoadString@2
  0005c	80 f2 ea	 xor	 dl, -22			; ffffffeaH
  0005f	88 55 e7	 mov	 BYTE PTR __k$[ebp+3], dl
  00062	8a 50 04	 mov	 dl, BYTE PTR [eax+4]
  00065	84 d2		 test	 dl, dl
  00067	0f 84 4a 01 00
	00		 je	 $LN92@LoadString@2
  0006d	80 f2 ed	 xor	 dl, -19			; ffffffedH
  00070	88 55 e8	 mov	 BYTE PTR __k$[ebp+4], dl
  00073	8a 50 05	 mov	 dl, BYTE PTR [eax+5]
  00076	84 d2		 test	 dl, dl
  00078	0f 84 34 01 00
	00		 je	 $LN91@LoadString@2
  0007e	32 d1		 xor	 dl, cl
  00080	88 55 e9	 mov	 BYTE PTR __k$[ebp+5], dl
  00083	8a 50 06	 mov	 dl, BYTE PTR [eax+6]
  00086	84 d2		 test	 dl, dl
  00088	0f 84 1e 01 00
	00		 je	 $LN90@LoadString@2
  0008e	80 f2 eb	 xor	 dl, -21			; ffffffebH
  00091	88 55 ea	 mov	 BYTE PTR __k$[ebp+6], dl
  00094	8a 50 07	 mov	 dl, BYTE PTR [eax+7]
  00097	84 d2		 test	 dl, dl
  00099	0f 84 07 01 00
	00		 je	 $LN89@LoadString@2
  0009f	80 f2 ea	 xor	 dl, -22			; ffffffeaH
  000a2	88 55 eb	 mov	 BYTE PTR __k$[ebp+7], dl
  000a5	8a 50 08	 mov	 dl, BYTE PTR [eax+8]
  000a8	84 d2		 test	 dl, dl
  000aa	0f 84 f0 00 00
	00		 je	 $LN88@LoadString@2
  000b0	80 f2 ed	 xor	 dl, -19			; ffffffedH
  000b3	88 55 ec	 mov	 BYTE PTR __k$[ebp+8], dl
  000b6	8a 50 09	 mov	 dl, BYTE PTR [eax+9]
  000b9	84 d2		 test	 dl, dl
  000bb	0f 84 da 00 00
	00		 je	 $LN87@LoadString@2
  000c1	32 d1		 xor	 dl, cl
  000c3	88 55 ed	 mov	 BYTE PTR __k$[ebp+9], dl
  000c6	8a 50 0a	 mov	 dl, BYTE PTR [eax+10]
  000c9	84 d2		 test	 dl, dl
  000cb	0f 84 c4 00 00
	00		 je	 $LN86@LoadString@2
  000d1	80 f2 eb	 xor	 dl, -21			; ffffffebH
  000d4	88 55 ee	 mov	 BYTE PTR __k$[ebp+10], dl
  000d7	8a 50 0b	 mov	 dl, BYTE PTR [eax+11]
  000da	84 d2		 test	 dl, dl
  000dc	0f 84 ad 00 00
	00		 je	 $LN85@LoadString@2
  000e2	80 f2 ea	 xor	 dl, -22			; ffffffeaH
  000e5	88 55 ef	 mov	 BYTE PTR __k$[ebp+11], dl
  000e8	8a 50 0c	 mov	 dl, BYTE PTR [eax+12]
  000eb	84 d2		 test	 dl, dl
  000ed	0f 84 96 00 00
	00		 je	 $LN84@LoadString@2
  000f3	80 f2 ed	 xor	 dl, -19			; ffffffedH
  000f6	88 55 f0	 mov	 BYTE PTR __k$[ebp+12], dl
  000f9	8a 50 0d	 mov	 dl, BYTE PTR [eax+13]
  000fc	84 d2		 test	 dl, dl
  000fe	0f 84 80 00 00
	00		 je	 $LN83@LoadString@2
  00104	32 d1		 xor	 dl, cl
  00106	88 55 f1	 mov	 BYTE PTR __k$[ebp+13], dl
  00109	8a 50 0e	 mov	 dl, BYTE PTR [eax+14]
  0010c	84 d2		 test	 dl, dl
  0010e	74 6e		 je	 SHORT $LN82@LoadString@2
  00110	80 f2 eb	 xor	 dl, -21			; ffffffebH
  00113	88 55 f2	 mov	 BYTE PTR __k$[ebp+14], dl
  00116	8a 50 0f	 mov	 dl, BYTE PTR [eax+15]
  00119	84 d2		 test	 dl, dl
  0011b	74 5b		 je	 SHORT $LN81@LoadString@2
  0011d	80 f2 ea	 xor	 dl, -22			; ffffffeaH
  00120	80 78 10 00	 cmp	 BYTE PTR [eax+16], 0
  00124	88 55 f3	 mov	 BYTE PTR __k$[ebp+15], dl
  00127	0f 84 a6 00 00
	00		 je	 $LN111@LoadString@2
  0012d	8a 50 11	 mov	 dl, BYTE PTR [eax+17]
  00130	84 d2		 test	 dl, dl
  00132	74 3f		 je	 SHORT $LN79@LoadString@2
  00134	32 d1		 xor	 dl, cl
  00136	88 55 f5	 mov	 BYTE PTR __k$[ebp+17], dl
  00139	8a 50 12	 mov	 dl, BYTE PTR [eax+18]
  0013c	84 d2		 test	 dl, dl
  0013e	74 2d		 je	 SHORT $LN78@LoadString@2
  00140	80 f2 eb	 xor	 dl, -21			; ffffffebH
  00143	88 55 f6	 mov	 BYTE PTR __k$[ebp+18], dl
  00146	8a 50 13	 mov	 dl, BYTE PTR [eax+19]
  00149	84 d2		 test	 dl, dl
  0014b	74 1a		 je	 SHORT $LN77@LoadString@2
  0014d	8a 40 14	 mov	 al, BYTE PTR [eax+20]
  00150	80 f2 ea	 xor	 dl, -22			; ffffffeaH
  00153	88 55 f7	 mov	 BYTE PTR __k$[ebp+19], dl
  00156	84 c0		 test	 al, al
  00158	74 07		 je	 SHORT $LN76@LoadString@2
  0015a	34 ed		 xor	 al, -19			; ffffffedH
  0015c	88 45 f8	 mov	 BYTE PTR __k$[ebp+20], al
  0015f	eb 72		 jmp	 SHORT $LN111@LoadString@2
$LN76@LoadString@2:
  00161	c6 45 f8 ed	 mov	 BYTE PTR __k$[ebp+20], -19 ; ffffffedH
  00165	eb 6c		 jmp	 SHORT $LN111@LoadString@2
$LN77@LoadString@2:
  00167	c6 45 f7 ea	 mov	 BYTE PTR __k$[ebp+19], -22 ; ffffffeaH
  0016b	eb 66		 jmp	 SHORT $LN111@LoadString@2
$LN78@LoadString@2:
  0016d	c6 45 f6 eb	 mov	 BYTE PTR __k$[ebp+18], -21 ; ffffffebH
  00171	eb 60		 jmp	 SHORT $LN111@LoadString@2
$LN79@LoadString@2:
  00173	88 4d f5	 mov	 BYTE PTR __k$[ebp+17], cl
  00176	eb 5b		 jmp	 SHORT $LN111@LoadString@2
$LN81@LoadString@2:
  00178	c6 45 f3 ea	 mov	 BYTE PTR __k$[ebp+15], -22 ; ffffffeaH
  0017c	eb 55		 jmp	 SHORT $LN111@LoadString@2
$LN82@LoadString@2:
  0017e	c6 45 f2 eb	 mov	 BYTE PTR __k$[ebp+14], -21 ; ffffffebH
  00182	eb 4f		 jmp	 SHORT $LN111@LoadString@2
$LN83@LoadString@2:
  00184	88 4d f1	 mov	 BYTE PTR __k$[ebp+13], cl
  00187	eb 4a		 jmp	 SHORT $LN111@LoadString@2
$LN84@LoadString@2:
  00189	c6 45 f0 ed	 mov	 BYTE PTR __k$[ebp+12], -19 ; ffffffedH
  0018d	eb 44		 jmp	 SHORT $LN111@LoadString@2
$LN85@LoadString@2:
  0018f	c6 45 ef ea	 mov	 BYTE PTR __k$[ebp+11], -22 ; ffffffeaH
  00193	eb 3e		 jmp	 SHORT $LN111@LoadString@2
$LN86@LoadString@2:
  00195	c6 45 ee eb	 mov	 BYTE PTR __k$[ebp+10], -21 ; ffffffebH
  00199	eb 38		 jmp	 SHORT $LN111@LoadString@2
$LN87@LoadString@2:
  0019b	88 4d ed	 mov	 BYTE PTR __k$[ebp+9], cl
  0019e	eb 33		 jmp	 SHORT $LN111@LoadString@2
$LN88@LoadString@2:
  001a0	c6 45 ec ed	 mov	 BYTE PTR __k$[ebp+8], -19 ; ffffffedH
  001a4	eb 2d		 jmp	 SHORT $LN111@LoadString@2
$LN89@LoadString@2:
  001a6	c6 45 eb ea	 mov	 BYTE PTR __k$[ebp+7], -22 ; ffffffeaH
  001aa	eb 27		 jmp	 SHORT $LN111@LoadString@2
$LN90@LoadString@2:
  001ac	c6 45 ea eb	 mov	 BYTE PTR __k$[ebp+6], -21 ; ffffffebH
  001b0	eb 21		 jmp	 SHORT $LN111@LoadString@2
$LN91@LoadString@2:
  001b2	88 4d e9	 mov	 BYTE PTR __k$[ebp+5], cl
  001b5	eb 1c		 jmp	 SHORT $LN111@LoadString@2
$LN92@LoadString@2:
  001b7	c6 45 e8 ed	 mov	 BYTE PTR __k$[ebp+4], -19 ; ffffffedH
  001bb	eb 16		 jmp	 SHORT $LN111@LoadString@2
$LN93@LoadString@2:
  001bd	c6 45 e7 ea	 mov	 BYTE PTR __k$[ebp+3], -22 ; ffffffeaH
  001c1	eb 10		 jmp	 SHORT $LN111@LoadString@2
$LN94@LoadString@2:
  001c3	c6 45 e6 eb	 mov	 BYTE PTR __k$[ebp+2], -21 ; ffffffebH
  001c7	eb 0a		 jmp	 SHORT $LN111@LoadString@2
$LN95@LoadString@2:
  001c9	c6 45 e5 ec	 mov	 BYTE PTR __k$[ebp+1], -20 ; ffffffecH
  001cd	eb 04		 jmp	 SHORT $LN111@LoadString@2
$LN96@LoadString@2:
  001cf	c6 45 e4 ed	 mov	 BYTE PTR __k$[ebp], -19	; ffffffedH
$LN111@LoadString@2:
  001d3	6a 04		 push	 4
  001d5	8d 45 e4	 lea	 eax, DWORD PTR __k$[ebp]
  001d8	c6 45 f4 00	 mov	 BYTE PTR __k$[ebp+16], 0
  001dc	5a		 pop	 edx
$LL104@LoadString@2:
  001dd	81 30 ed ec eb
	ea		 xor	 DWORD PTR [eax], -353637139 ; eaebecedH
  001e3	83 c0 04	 add	 eax, 4
  001e6	4a		 dec	 edx
  001e7	75 f4		 jne	 SHORT $LL104@LoadString@2

; 163  : 		LoadString(_k, d, b, i);

  001e9	ff 75 14	 push	 DWORD PTR _i$[ebp]
  001ec	8b 4d e0	 mov	 ecx, DWORD PTR _this$GSCopy$[ebp]
  001ef	57		 push	 edi
  001f0	56		 push	 esi
  001f1	8d 45 e4	 lea	 eax, DWORD PTR __k$[ebp]
  001f4	50		 push	 eax
  001f5	ff 15 00 00 00
	00		 call	 DWORD PTR __imp_?LoadStringA@ioINILoader@@QAEXPBD0PADH@Z

; 164  : 	}

  001fb	8b 4d fc	 mov	 ecx, DWORD PTR __$ArrayPad$[ebp]
  001fe	5f		 pop	 edi
  001ff	33 cd		 xor	 ecx, ebp
  00201	5e		 pop	 esi
  00202	e8 00 00 00 00	 call	 @__security_check_cookie@4
  00207	c9		 leave
  00208	c2 10 00	 ret	 16			; 00000010H
??$LoadString_e@$0BB@@ioINILoader@@QAEXAAY0BB@$$CBDAAY00$$CBDPADH@Z ENDP ; ioINILoader::LoadString_e<17>
_TEXT	ENDS
PUBLIC	_this$GSCopy$
PUBLIC	__$ArrayPad$
PUBLIC	??$LoadString_e@$0M@@ioINILoader@@QAEXAAY0M@$$CBDAAY00$$CBDPADH@Z ; ioINILoader::LoadString_e<12>
; Function compile flags: /Ogsp
;	COMDAT ??$LoadString_e@$0M@@ioINILoader@@QAEXAAY0M@$$CBDAAY00$$CBDPADH@Z
_TEXT	SEGMENT
_this$GSCopy$ = -24					; size = 4
__k$ = -20						; size = 12
__$ArrayPad$ = -4					; size = 4
_k$ = 8							; size = 4
_d$ = 12						; size = 4
_b$ = 16						; size = 4
_i$ = 20						; size = 4
??$LoadString_e@$0M@@ioINILoader@@QAEXAAY0M@$$CBDAAY00$$CBDPADH@Z PROC ; ioINILoader::LoadString_e<12>, COMDAT
; _this$ = ecx

; 161  : 	{

  00000	55		 push	 ebp
  00001	8b ec		 mov	 ebp, esp
  00003	83 ec 18	 sub	 esp, 24			; 00000018H
  00006	a1 00 00 00 00	 mov	 eax, DWORD PTR ___security_cookie
  0000b	33 c5		 xor	 eax, ebp
  0000d	89 45 fc	 mov	 DWORD PTR __$ArrayPad$[ebp], eax
  00010	8b 45 08	 mov	 eax, DWORD PTR _k$[ebp]

; 162  : 		_ENCSTR(k, _k);

  00013	8a 10		 mov	 dl, BYTE PTR [eax]
  00015	56		 push	 esi
  00016	8b 75 0c	 mov	 esi, DWORD PTR _d$[ebp]
  00019	57		 push	 edi
  0001a	8b 7d 10	 mov	 edi, DWORD PTR _b$[ebp]
  0001d	89 4d e8	 mov	 DWORD PTR _this$GSCopy$[ebp], ecx
  00020	84 d2		 test	 dl, dl
  00022	0f 84 32 01 00
	00		 je	 $LN96@LoadString@3
  00028	80 f2 ed	 xor	 dl, -19			; ffffffedH
  0002b	88 55 ec	 mov	 BYTE PTR __k$[ebp], dl
  0002e	8a 50 01	 mov	 dl, BYTE PTR [eax+1]
  00031	84 d2		 test	 dl, dl
  00033	0f 84 1b 01 00
	00		 je	 $LN95@LoadString@3
  00039	80 f2 ec	 xor	 dl, -20			; ffffffecH
  0003c	88 55 ed	 mov	 BYTE PTR __k$[ebp+1], dl
  0003f	8a 50 02	 mov	 dl, BYTE PTR [eax+2]
  00042	84 d2		 test	 dl, dl
  00044	0f 84 04 01 00
	00		 je	 $LN94@LoadString@3
  0004a	b1 eb		 mov	 cl, -21			; ffffffebH
  0004c	32 d1		 xor	 dl, cl
  0004e	88 55 ee	 mov	 BYTE PTR __k$[ebp+2], dl
  00051	8a 50 03	 mov	 dl, BYTE PTR [eax+3]
  00054	84 d2		 test	 dl, dl
  00056	0f 84 ec 00 00
	00		 je	 $LN93@LoadString@3
  0005c	80 f2 ea	 xor	 dl, -22			; ffffffeaH
  0005f	88 55 ef	 mov	 BYTE PTR __k$[ebp+3], dl
  00062	8a 50 04	 mov	 dl, BYTE PTR [eax+4]
  00065	84 d2		 test	 dl, dl
  00067	0f 84 d5 00 00
	00		 je	 $LN92@LoadString@3
  0006d	80 f2 ed	 xor	 dl, -19			; ffffffedH
  00070	88 55 f0	 mov	 BYTE PTR __k$[ebp+4], dl
  00073	8a 50 05	 mov	 dl, BYTE PTR [eax+5]
  00076	84 d2		 test	 dl, dl
  00078	0f 84 be 00 00
	00		 je	 $LN91@LoadString@3
  0007e	80 f2 ec	 xor	 dl, -20			; ffffffecH
  00081	88 55 f1	 mov	 BYTE PTR __k$[ebp+5], dl
  00084	8a 50 06	 mov	 dl, BYTE PTR [eax+6]
  00087	84 d2		 test	 dl, dl
  00089	0f 84 a8 00 00
	00		 je	 $LN90@LoadString@3
  0008f	32 d1		 xor	 dl, cl
  00091	88 55 f2	 mov	 BYTE PTR __k$[ebp+6], dl
  00094	8a 50 07	 mov	 dl, BYTE PTR [eax+7]
  00097	84 d2		 test	 dl, dl
  00099	0f 84 92 00 00
	00		 je	 $LN89@LoadString@3
  0009f	80 f2 ea	 xor	 dl, -22			; ffffffeaH
  000a2	88 55 f3	 mov	 BYTE PTR __k$[ebp+7], dl
  000a5	8a 50 08	 mov	 dl, BYTE PTR [eax+8]
  000a8	84 d2		 test	 dl, dl
  000aa	74 7f		 je	 SHORT $LN88@LoadString@3
  000ac	80 f2 ed	 xor	 dl, -19			; ffffffedH
  000af	88 55 f4	 mov	 BYTE PTR __k$[ebp+8], dl
  000b2	8a 50 09	 mov	 dl, BYTE PTR [eax+9]
  000b5	84 d2		 test	 dl, dl
  000b7	74 6c		 je	 SHORT $LN87@LoadString@3
  000b9	80 f2 ec	 xor	 dl, -20			; ffffffecH
  000bc	88 55 f5	 mov	 BYTE PTR __k$[ebp+9], dl
  000bf	8a 50 0a	 mov	 dl, BYTE PTR [eax+10]
  000c2	84 d2		 test	 dl, dl
  000c4	74 5a		 je	 SHORT $LN86@LoadString@3
  000c6	32 d1		 xor	 dl, cl
  000c8	80 78 0b 00	 cmp	 BYTE PTR [eax+11], 0
  000cc	88 55 f6	 mov	 BYTE PTR __k$[ebp+10], dl
  000cf	0f 84 89 00 00
	00		 je	 $LN111@LoadString@3
  000d5	8a 50 0c	 mov	 dl, BYTE PTR [eax+12]
  000d8	84 d2		 test	 dl, dl
  000da	74 3e		 je	 SHORT $LN84@LoadString@3
  000dc	80 f2 ed	 xor	 dl, -19			; ffffffedH
  000df	88 55 f8	 mov	 BYTE PTR __k$[ebp+12], dl
  000e2	8a 50 0d	 mov	 dl, BYTE PTR [eax+13]
  000e5	84 d2		 test	 dl, dl
  000e7	74 2b		 je	 SHORT $LN83@LoadString@3
  000e9	80 f2 ec	 xor	 dl, -20			; ffffffecH
  000ec	88 55 f9	 mov	 BYTE PTR __k$[ebp+13], dl
  000ef	8a 50 0e	 mov	 dl, BYTE PTR [eax+14]
  000f2	84 d2		 test	 dl, dl
  000f4	74 19		 je	 SHORT $LN82@LoadString@3
  000f6	8a 40 0f	 mov	 al, BYTE PTR [eax+15]
  000f9	32 d1		 xor	 dl, cl
  000fb	88 55 fa	 mov	 BYTE PTR __k$[ebp+14], dl
  000fe	84 c0		 test	 al, al
  00100	74 07		 je	 SHORT $LN81@LoadString@3
  00102	34 ea		 xor	 al, -22			; ffffffeaH
  00104	88 45 fb	 mov	 BYTE PTR __k$[ebp+15], al
  00107	eb 55		 jmp	 SHORT $LN111@LoadString@3
$LN81@LoadString@3:
  00109	c6 45 fb ea	 mov	 BYTE PTR __k$[ebp+15], -22 ; ffffffeaH
  0010d	eb 4f		 jmp	 SHORT $LN111@LoadString@3
$LN82@LoadString@3:
  0010f	88 4d fa	 mov	 BYTE PTR __k$[ebp+14], cl
  00112	eb 4a		 jmp	 SHORT $LN111@LoadString@3
$LN83@LoadString@3:
  00114	c6 45 f9 ec	 mov	 BYTE PTR __k$[ebp+13], -20 ; ffffffecH
  00118	eb 44		 jmp	 SHORT $LN111@LoadString@3
$LN84@LoadString@3:
  0011a	c6 45 f8 ed	 mov	 BYTE PTR __k$[ebp+12], -19 ; ffffffedH
  0011e	eb 3e		 jmp	 SHORT $LN111@LoadString@3
$LN86@LoadString@3:
  00120	88 4d f6	 mov	 BYTE PTR __k$[ebp+10], cl
  00123	eb 39		 jmp	 SHORT $LN111@LoadString@3
$LN87@LoadString@3:
  00125	c6 45 f5 ec	 mov	 BYTE PTR __k$[ebp+9], -20 ; ffffffecH
  00129	eb 33		 jmp	 SHORT $LN111@LoadString@3
$LN88@LoadString@3:
  0012b	c6 45 f4 ed	 mov	 BYTE PTR __k$[ebp+8], -19 ; ffffffedH
  0012f	eb 2d		 jmp	 SHORT $LN111@LoadString@3
$LN89@LoadString@3:
  00131	c6 45 f3 ea	 mov	 BYTE PTR __k$[ebp+7], -22 ; ffffffeaH
  00135	eb 27		 jmp	 SHORT $LN111@LoadString@3
$LN90@LoadString@3:
  00137	88 4d f2	 mov	 BYTE PTR __k$[ebp+6], cl
  0013a	eb 22		 jmp	 SHORT $LN111@LoadString@3
$LN91@LoadString@3:
  0013c	c6 45 f1 ec	 mov	 BYTE PTR __k$[ebp+5], -20 ; ffffffecH
  00140	eb 1c		 jmp	 SHORT $LN111@LoadString@3
$LN92@LoadString@3:
  00142	c6 45 f0 ed	 mov	 BYTE PTR __k$[ebp+4], -19 ; ffffffedH
  00146	eb 16		 jmp	 SHORT $LN111@LoadString@3
$LN93@LoadString@3:
  00148	c6 45 ef ea	 mov	 BYTE PTR __k$[ebp+3], -22 ; ffffffeaH
  0014c	eb 10		 jmp	 SHORT $LN111@LoadString@3
$LN94@LoadString@3:
  0014e	c6 45 ee eb	 mov	 BYTE PTR __k$[ebp+2], -21 ; ffffffebH
  00152	eb 0a		 jmp	 SHORT $LN111@LoadString@3
$LN95@LoadString@3:
  00154	c6 45 ed ec	 mov	 BYTE PTR __k$[ebp+1], -20 ; ffffffecH
  00158	eb 04		 jmp	 SHORT $LN111@LoadString@3
$LN96@LoadString@3:
  0015a	c6 45 ec ed	 mov	 BYTE PTR __k$[ebp], -19	; ffffffedH
$LN111@LoadString@3:
  0015e	6a 02		 push	 2
  00160	8d 45 ec	 lea	 eax, DWORD PTR __k$[ebp]
  00163	c6 45 f7 00	 mov	 BYTE PTR __k$[ebp+11], 0
  00167	5a		 pop	 edx
$LL104@LoadString@3:
  00168	81 30 ed ec eb
	ea		 xor	 DWORD PTR [eax], -353637139 ; eaebecedH
  0016e	83 c0 04	 add	 eax, 4
  00171	4a		 dec	 edx
  00172	75 f4		 jne	 SHORT $LL104@LoadString@3
  00174	6a 08		 push	 8
  00176	58		 pop	 eax
$LL101@LoadString@3:
  00177	8b c8		 mov	 ecx, eax
  00179	81 e1 03 00 00
	80		 and	 ecx, -2147483645	; 80000003H
  0017f	79 05		 jns	 SHORT $LN112@LoadString@3
  00181	49		 dec	 ecx
  00182	83 c9 fc	 or	 ecx, -4			; fffffffcH
  00185	41		 inc	 ecx
$LN112@LoadString@3:
  00186	b2 ed		 mov	 dl, -19			; ffffffedH
  00188	2a d1		 sub	 dl, cl
  0018a	30 54 05 ec	 xor	 BYTE PTR __k$[ebp+eax], dl
  0018e	40		 inc	 eax
  0018f	83 f8 0b	 cmp	 eax, 11			; 0000000bH
  00192	7c e3		 jl	 SHORT $LL101@LoadString@3

; 163  : 		LoadString(_k, d, b, i);

  00194	ff 75 14	 push	 DWORD PTR _i$[ebp]
  00197	8b 4d e8	 mov	 ecx, DWORD PTR _this$GSCopy$[ebp]
  0019a	57		 push	 edi
  0019b	56		 push	 esi
  0019c	8d 45 ec	 lea	 eax, DWORD PTR __k$[ebp]
  0019f	50		 push	 eax
  001a0	ff 15 00 00 00
	00		 call	 DWORD PTR __imp_?LoadStringA@ioINILoader@@QAEXPBD0PADH@Z

; 164  : 	}

  001a6	8b 4d fc	 mov	 ecx, DWORD PTR __$ArrayPad$[ebp]
  001a9	5f		 pop	 edi
  001aa	33 cd		 xor	 ecx, ebp
  001ac	5e		 pop	 esi
  001ad	e8 00 00 00 00	 call	 @__security_check_cookie@4
  001b2	c9		 leave
  001b3	c2 10 00	 ret	 16			; 00000010H
??$LoadString_e@$0M@@ioINILoader@@QAEXAAY0M@$$CBDAAY00$$CBDPADH@Z ENDP ; ioINILoader::LoadString_e<12>
_TEXT	ENDS
PUBLIC	__$ArrayPad$
PUBLIC	??$LoadInt_e@$0BD@@ioINILoader@@QAEHAAY0BD@$$CBDH@Z ; ioINILoader::LoadInt_e<19>
EXTRN	__imp_?LoadInt@ioINILoader@@QAEHPBDH@Z:PROC
; Function compile flags: /Ogsp
;	COMDAT ??$LoadInt_e@$0BD@@ioINILoader@@QAEHAAY0BD@$$CBDH@Z
_TEXT	SEGMENT
__k$ = -28						; size = 19
__$ArrayPad$ = -4					; size = 4
_k$ = 8							; size = 4
_i$ = 12						; size = 4
??$LoadInt_e@$0BD@@ioINILoader@@QAEHAAY0BD@$$CBDH@Z PROC ; ioINILoader::LoadInt_e<19>, COMDAT
; _this$ = ecx

; 118  : 	{

  00000	55		 push	 ebp
  00001	8b ec		 mov	 ebp, esp
  00003	83 ec 1c	 sub	 esp, 28			; 0000001cH
  00006	a1 00 00 00 00	 mov	 eax, DWORD PTR ___security_cookie
  0000b	33 c5		 xor	 eax, ebp
  0000d	89 45 fc	 mov	 DWORD PTR __$ArrayPad$[ebp], eax
  00010	8b 45 08	 mov	 eax, DWORD PTR _k$[ebp]

; 119  : 		_ENCSTR(k, _k);

  00013	8a 10		 mov	 dl, BYTE PTR [eax]
  00015	56		 push	 esi
  00016	8b f1		 mov	 esi, ecx
  00018	84 d2		 test	 dl, dl
  0001a	0f 84 cf 01 00
	00		 je	 $LN96@LoadInt_e
  00020	80 f2 ed	 xor	 dl, -19			; ffffffedH
  00023	88 55 e4	 mov	 BYTE PTR __k$[ebp], dl
  00026	8a 50 01	 mov	 dl, BYTE PTR [eax+1]
  00029	84 d2		 test	 dl, dl
  0002b	0f 84 b8 01 00
	00		 je	 $LN95@LoadInt_e
  00031	b1 ec		 mov	 cl, -20			; ffffffecH
  00033	32 d1		 xor	 dl, cl
  00035	88 55 e5	 mov	 BYTE PTR __k$[ebp+1], dl
  00038	8a 50 02	 mov	 dl, BYTE PTR [eax+2]
  0003b	84 d2		 test	 dl, dl
  0003d	0f 84 a0 01 00
	00		 je	 $LN94@LoadInt_e
  00043	80 f2 eb	 xor	 dl, -21			; ffffffebH
  00046	88 55 e6	 mov	 BYTE PTR __k$[ebp+2], dl
  00049	8a 50 03	 mov	 dl, BYTE PTR [eax+3]
  0004c	84 d2		 test	 dl, dl
  0004e	0f 84 89 01 00
	00		 je	 $LN93@LoadInt_e
  00054	80 f2 ea	 xor	 dl, -22			; ffffffeaH
  00057	88 55 e7	 mov	 BYTE PTR __k$[ebp+3], dl
  0005a	8a 50 04	 mov	 dl, BYTE PTR [eax+4]
  0005d	84 d2		 test	 dl, dl
  0005f	0f 84 72 01 00
	00		 je	 $LN92@LoadInt_e
  00065	80 f2 ed	 xor	 dl, -19			; ffffffedH
  00068	88 55 e8	 mov	 BYTE PTR __k$[ebp+4], dl
  0006b	8a 50 05	 mov	 dl, BYTE PTR [eax+5]
  0006e	84 d2		 test	 dl, dl
  00070	0f 84 5c 01 00
	00		 je	 $LN91@LoadInt_e
  00076	32 d1		 xor	 dl, cl
  00078	88 55 e9	 mov	 BYTE PTR __k$[ebp+5], dl
  0007b	8a 50 06	 mov	 dl, BYTE PTR [eax+6]
  0007e	84 d2		 test	 dl, dl
  00080	0f 84 46 01 00
	00		 je	 $LN90@LoadInt_e
  00086	80 f2 eb	 xor	 dl, -21			; ffffffebH
  00089	88 55 ea	 mov	 BYTE PTR __k$[ebp+6], dl
  0008c	8a 50 07	 mov	 dl, BYTE PTR [eax+7]
  0008f	84 d2		 test	 dl, dl
  00091	0f 84 2f 01 00
	00		 je	 $LN89@LoadInt_e
  00097	80 f2 ea	 xor	 dl, -22			; ffffffeaH
  0009a	88 55 eb	 mov	 BYTE PTR __k$[ebp+7], dl
  0009d	8a 50 08	 mov	 dl, BYTE PTR [eax+8]
  000a0	84 d2		 test	 dl, dl
  000a2	0f 84 18 01 00
	00		 je	 $LN88@LoadInt_e
  000a8	80 f2 ed	 xor	 dl, -19			; ffffffedH
  000ab	88 55 ec	 mov	 BYTE PTR __k$[ebp+8], dl
  000ae	8a 50 09	 mov	 dl, BYTE PTR [eax+9]
  000b1	84 d2		 test	 dl, dl
  000b3	0f 84 02 01 00
	00		 je	 $LN87@LoadInt_e
  000b9	32 d1		 xor	 dl, cl
  000bb	88 55 ed	 mov	 BYTE PTR __k$[ebp+9], dl
  000be	8a 50 0a	 mov	 dl, BYTE PTR [eax+10]
  000c1	84 d2		 test	 dl, dl
  000c3	0f 84 ec 00 00
	00		 je	 $LN86@LoadInt_e
  000c9	80 f2 eb	 xor	 dl, -21			; ffffffebH
  000cc	88 55 ee	 mov	 BYTE PTR __k$[ebp+10], dl
  000cf	8a 50 0b	 mov	 dl, BYTE PTR [eax+11]
  000d2	84 d2		 test	 dl, dl
  000d4	0f 84 d5 00 00
	00		 je	 $LN85@LoadInt_e
  000da	80 f2 ea	 xor	 dl, -22			; ffffffeaH
  000dd	88 55 ef	 mov	 BYTE PTR __k$[ebp+11], dl
  000e0	8a 50 0c	 mov	 dl, BYTE PTR [eax+12]
  000e3	84 d2		 test	 dl, dl
  000e5	0f 84 be 00 00
	00		 je	 $LN84@LoadInt_e
  000eb	80 f2 ed	 xor	 dl, -19			; ffffffedH
  000ee	88 55 f0	 mov	 BYTE PTR __k$[ebp+12], dl
  000f1	8a 50 0d	 mov	 dl, BYTE PTR [eax+13]
  000f4	84 d2		 test	 dl, dl
  000f6	0f 84 a8 00 00
	00		 je	 $LN83@LoadInt_e
  000fc	32 d1		 xor	 dl, cl
  000fe	88 55 f1	 mov	 BYTE PTR __k$[ebp+13], dl
  00101	8a 50 0e	 mov	 dl, BYTE PTR [eax+14]
  00104	84 d2		 test	 dl, dl
  00106	0f 84 92 00 00
	00		 je	 $LN82@LoadInt_e
  0010c	80 f2 eb	 xor	 dl, -21			; ffffffebH
  0010f	88 55 f2	 mov	 BYTE PTR __k$[ebp+14], dl
  00112	8a 50 0f	 mov	 dl, BYTE PTR [eax+15]
  00115	84 d2		 test	 dl, dl
  00117	74 7f		 je	 SHORT $LN81@LoadInt_e
  00119	80 f2 ea	 xor	 dl, -22			; ffffffeaH
  0011c	88 55 f3	 mov	 BYTE PTR __k$[ebp+15], dl
  0011f	8a 50 10	 mov	 dl, BYTE PTR [eax+16]
  00122	84 d2		 test	 dl, dl
  00124	74 6c		 je	 SHORT $LN80@LoadInt_e
  00126	80 f2 ed	 xor	 dl, -19			; ffffffedH
  00129	88 55 f4	 mov	 BYTE PTR __k$[ebp+16], dl
  0012c	8a 50 11	 mov	 dl, BYTE PTR [eax+17]
  0012f	84 d2		 test	 dl, dl
  00131	74 5a		 je	 SHORT $LN79@LoadInt_e
  00133	32 d1		 xor	 dl, cl
  00135	80 78 12 00	 cmp	 BYTE PTR [eax+18], 0
  00139	88 55 f5	 mov	 BYTE PTR __k$[ebp+17], dl
  0013c	0f 84 b1 00 00
	00		 je	 $LN1@LoadInt_e
  00142	8a 50 13	 mov	 dl, BYTE PTR [eax+19]
  00145	84 d2		 test	 dl, dl
  00147	74 3e		 je	 SHORT $LN77@LoadInt_e
  00149	80 f2 ea	 xor	 dl, -22			; ffffffeaH
  0014c	88 55 f7	 mov	 BYTE PTR __k$[ebp+19], dl
  0014f	8a 50 14	 mov	 dl, BYTE PTR [eax+20]
  00152	84 d2		 test	 dl, dl
  00154	74 2b		 je	 SHORT $LN76@LoadInt_e
  00156	80 f2 ed	 xor	 dl, -19			; ffffffedH
  00159	88 55 f8	 mov	 BYTE PTR __k$[ebp+20], dl
  0015c	8a 50 15	 mov	 dl, BYTE PTR [eax+21]
  0015f	84 d2		 test	 dl, dl
  00161	74 19		 je	 SHORT $LN75@LoadInt_e
  00163	8a 40 16	 mov	 al, BYTE PTR [eax+22]
  00166	32 d1		 xor	 dl, cl
  00168	88 55 f9	 mov	 BYTE PTR __k$[ebp+21], dl
  0016b	84 c0		 test	 al, al
  0016d	74 07		 je	 SHORT $LN74@LoadInt_e
  0016f	34 eb		 xor	 al, -21			; ffffffebH
  00171	88 45 fa	 mov	 BYTE PTR __k$[ebp+22], al
  00174	eb 7d		 jmp	 SHORT $LN1@LoadInt_e
$LN74@LoadInt_e:
  00176	c6 45 fa eb	 mov	 BYTE PTR __k$[ebp+22], -21 ; ffffffebH
  0017a	eb 77		 jmp	 SHORT $LN1@LoadInt_e
$LN75@LoadInt_e:
  0017c	88 4d f9	 mov	 BYTE PTR __k$[ebp+21], cl
  0017f	eb 72		 jmp	 SHORT $LN1@LoadInt_e
$LN76@LoadInt_e:
  00181	c6 45 f8 ed	 mov	 BYTE PTR __k$[ebp+20], -19 ; ffffffedH
  00185	eb 6c		 jmp	 SHORT $LN1@LoadInt_e
$LN77@LoadInt_e:
  00187	c6 45 f7 ea	 mov	 BYTE PTR __k$[ebp+19], -22 ; ffffffeaH
  0018b	eb 66		 jmp	 SHORT $LN1@LoadInt_e
$LN79@LoadInt_e:
  0018d	88 4d f5	 mov	 BYTE PTR __k$[ebp+17], cl
  00190	eb 61		 jmp	 SHORT $LN1@LoadInt_e
$LN80@LoadInt_e:
  00192	c6 45 f4 ed	 mov	 BYTE PTR __k$[ebp+16], -19 ; ffffffedH
  00196	eb 5b		 jmp	 SHORT $LN1@LoadInt_e
$LN81@LoadInt_e:
  00198	c6 45 f3 ea	 mov	 BYTE PTR __k$[ebp+15], -22 ; ffffffeaH
  0019c	eb 55		 jmp	 SHORT $LN1@LoadInt_e
$LN82@LoadInt_e:
  0019e	c6 45 f2 eb	 mov	 BYTE PTR __k$[ebp+14], -21 ; ffffffebH
  001a2	eb 4f		 jmp	 SHORT $LN1@LoadInt_e
$LN83@LoadInt_e:
  001a4	88 4d f1	 mov	 BYTE PTR __k$[ebp+13], cl
  001a7	eb 4a		 jmp	 SHORT $LN1@LoadInt_e
$LN84@LoadInt_e:
  001a9	c6 45 f0 ed	 mov	 BYTE PTR __k$[ebp+12], -19 ; ffffffedH
  001ad	eb 44		 jmp	 SHORT $LN1@LoadInt_e
$LN85@LoadInt_e:
  001af	c6 45 ef ea	 mov	 BYTE PTR __k$[ebp+11], -22 ; ffffffeaH
  001b3	eb 3e		 jmp	 SHORT $LN1@LoadInt_e
$LN86@LoadInt_e:
  001b5	c6 45 ee eb	 mov	 BYTE PTR __k$[ebp+10], -21 ; ffffffebH
  001b9	eb 38		 jmp	 SHORT $LN1@LoadInt_e
$LN87@LoadInt_e:
  001bb	88 4d ed	 mov	 BYTE PTR __k$[ebp+9], cl
  001be	eb 33		 jmp	 SHORT $LN1@LoadInt_e
$LN88@LoadInt_e:
  001c0	c6 45 ec ed	 mov	 BYTE PTR __k$[ebp+8], -19 ; ffffffedH
  001c4	eb 2d		 jmp	 SHORT $LN1@LoadInt_e
$LN89@LoadInt_e:
  001c6	c6 45 eb ea	 mov	 BYTE PTR __k$[ebp+7], -22 ; ffffffeaH
  001ca	eb 27		 jmp	 SHORT $LN1@LoadInt_e
$LN90@LoadInt_e:
  001cc	c6 45 ea eb	 mov	 BYTE PTR __k$[ebp+6], -21 ; ffffffebH
  001d0	eb 21		 jmp	 SHORT $LN1@LoadInt_e
$LN91@LoadInt_e:
  001d2	88 4d e9	 mov	 BYTE PTR __k$[ebp+5], cl
  001d5	eb 1c		 jmp	 SHORT $LN1@LoadInt_e
$LN92@LoadInt_e:
  001d7	c6 45 e8 ed	 mov	 BYTE PTR __k$[ebp+4], -19 ; ffffffedH
  001db	eb 16		 jmp	 SHORT $LN1@LoadInt_e
$LN93@LoadInt_e:
  001dd	c6 45 e7 ea	 mov	 BYTE PTR __k$[ebp+3], -22 ; ffffffeaH
  001e1	eb 10		 jmp	 SHORT $LN1@LoadInt_e
$LN94@LoadInt_e:
  001e3	c6 45 e6 eb	 mov	 BYTE PTR __k$[ebp+2], -21 ; ffffffebH
  001e7	eb 0a		 jmp	 SHORT $LN1@LoadInt_e
$LN95@LoadInt_e:
  001e9	c6 45 e5 ec	 mov	 BYTE PTR __k$[ebp+1], -20 ; ffffffecH
  001ed	eb 04		 jmp	 SHORT $LN1@LoadInt_e
$LN96@LoadInt_e:
  001ef	c6 45 e4 ed	 mov	 BYTE PTR __k$[ebp], -19	; ffffffedH
$LN1@LoadInt_e:
  001f3	6a 04		 push	 4
  001f5	8d 45 e4	 lea	 eax, DWORD PTR __k$[ebp]
  001f8	c6 45 f6 00	 mov	 BYTE PTR __k$[ebp+18], 0
  001fc	5a		 pop	 edx
$LL104@LoadInt_e:
  001fd	81 30 ed ec eb
	ea		 xor	 DWORD PTR [eax], -353637139 ; eaebecedH
  00203	83 c0 04	 add	 eax, 4
  00206	4a		 dec	 edx
  00207	75 f4		 jne	 SHORT $LL104@LoadInt_e
  00209	6a 10		 push	 16			; 00000010H
  0020b	58		 pop	 eax
$LL101@LoadInt_e:
  0020c	8b c8		 mov	 ecx, eax
  0020e	81 e1 03 00 00
	80		 and	 ecx, -2147483645	; 80000003H
  00214	79 05		 jns	 SHORT $LN111@LoadInt_e
  00216	49		 dec	 ecx
  00217	83 c9 fc	 or	 ecx, -4			; fffffffcH
  0021a	41		 inc	 ecx
$LN111@LoadInt_e:
  0021b	b2 ed		 mov	 dl, -19			; ffffffedH
  0021d	2a d1		 sub	 dl, cl
  0021f	30 54 05 e4	 xor	 BYTE PTR __k$[ebp+eax], dl
  00223	40		 inc	 eax
  00224	83 f8 12	 cmp	 eax, 18			; 00000012H
  00227	7c e3		 jl	 SHORT $LL101@LoadInt_e

; 120  : 		return LoadInt(_k, i);

  00229	ff 75 0c	 push	 DWORD PTR _i$[ebp]
  0022c	8d 45 e4	 lea	 eax, DWORD PTR __k$[ebp]
  0022f	50		 push	 eax
  00230	8b ce		 mov	 ecx, esi
  00232	ff 15 00 00 00
	00		 call	 DWORD PTR __imp_?LoadInt@ioINILoader@@QAEHPBDH@Z

; 121  : 	}

  00238	8b 4d fc	 mov	 ecx, DWORD PTR __$ArrayPad$[ebp]
  0023b	33 cd		 xor	 ecx, ebp
  0023d	5e		 pop	 esi
  0023e	e8 00 00 00 00	 call	 @__security_check_cookie@4
  00243	c9		 leave
  00244	c2 08 00	 ret	 8
??$LoadInt_e@$0BD@@ioINILoader@@QAEHAAY0BD@$$CBDH@Z ENDP ; ioINILoader::LoadInt_e<19>
_TEXT	ENDS
PUBLIC	__$ArrayPad$
PUBLIC	??$LoadBool_e@$0BC@@ioINILoader@@QAE_NAAY0BC@$$CBD_N@Z ; ioINILoader::LoadBool_e<18>
EXTRN	__imp_?LoadBool@ioINILoader@@QAE_NPBD_N@Z:PROC
; Function compile flags: /Ogsp
;	COMDAT ??$LoadBool_e@$0BC@@ioINILoader@@QAE_NAAY0BC@$$CBD_N@Z
_TEXT	SEGMENT
__k$ = -28						; size = 18
__$ArrayPad$ = -4					; size = 4
_k$ = 8							; size = 4
_b$ = 12						; size = 1
??$LoadBool_e@$0BC@@ioINILoader@@QAE_NAAY0BC@$$CBD_N@Z PROC ; ioINILoader::LoadBool_e<18>, COMDAT
; _this$ = ecx

; 101  : 	{

  00000	55		 push	 ebp
  00001	8b ec		 mov	 ebp, esp
  00003	83 ec 1c	 sub	 esp, 28			; 0000001cH
  00006	a1 00 00 00 00	 mov	 eax, DWORD PTR ___security_cookie
  0000b	33 c5		 xor	 eax, ebp
  0000d	89 45 fc	 mov	 DWORD PTR __$ArrayPad$[ebp], eax
  00010	8b 45 08	 mov	 eax, DWORD PTR _k$[ebp]

; 102  : 		_ENCSTR(k, _k);

  00013	8a 10		 mov	 dl, BYTE PTR [eax]
  00015	56		 push	 esi
  00016	8b f1		 mov	 esi, ecx
  00018	84 d2		 test	 dl, dl
  0001a	0f 84 be 01 00
	00		 je	 $LN96@LoadBool_e
  00020	80 f2 ed	 xor	 dl, -19			; ffffffedH
  00023	88 55 e4	 mov	 BYTE PTR __k$[ebp], dl
  00026	8a 50 01	 mov	 dl, BYTE PTR [eax+1]
  00029	84 d2		 test	 dl, dl
  0002b	0f 84 a7 01 00
	00		 je	 $LN95@LoadBool_e
  00031	80 f2 ec	 xor	 dl, -20			; ffffffecH
  00034	88 55 e5	 mov	 BYTE PTR __k$[ebp+1], dl
  00037	8a 50 02	 mov	 dl, BYTE PTR [eax+2]
  0003a	84 d2		 test	 dl, dl
  0003c	0f 84 90 01 00
	00		 je	 $LN94@LoadBool_e
  00042	b1 eb		 mov	 cl, -21			; ffffffebH
  00044	32 d1		 xor	 dl, cl
  00046	88 55 e6	 mov	 BYTE PTR __k$[ebp+2], dl
  00049	8a 50 03	 mov	 dl, BYTE PTR [eax+3]
  0004c	84 d2		 test	 dl, dl
  0004e	0f 84 78 01 00
	00		 je	 $LN93@LoadBool_e
  00054	80 f2 ea	 xor	 dl, -22			; ffffffeaH
  00057	88 55 e7	 mov	 BYTE PTR __k$[ebp+3], dl
  0005a	8a 50 04	 mov	 dl, BYTE PTR [eax+4]
  0005d	84 d2		 test	 dl, dl
  0005f	0f 84 61 01 00
	00		 je	 $LN92@LoadBool_e
  00065	80 f2 ed	 xor	 dl, -19			; ffffffedH
  00068	88 55 e8	 mov	 BYTE PTR __k$[ebp+4], dl
  0006b	8a 50 05	 mov	 dl, BYTE PTR [eax+5]
  0006e	84 d2		 test	 dl, dl
  00070	0f 84 4a 01 00
	00		 je	 $LN91@LoadBool_e
  00076	80 f2 ec	 xor	 dl, -20			; ffffffecH
  00079	88 55 e9	 mov	 BYTE PTR __k$[ebp+5], dl
  0007c	8a 50 06	 mov	 dl, BYTE PTR [eax+6]
  0007f	84 d2		 test	 dl, dl
  00081	0f 84 34 01 00
	00		 je	 $LN90@LoadBool_e
  00087	32 d1		 xor	 dl, cl
  00089	88 55 ea	 mov	 BYTE PTR __k$[ebp+6], dl
  0008c	8a 50 07	 mov	 dl, BYTE PTR [eax+7]
  0008f	84 d2		 test	 dl, dl
  00091	0f 84 1e 01 00
	00		 je	 $LN89@LoadBool_e
  00097	80 f2 ea	 xor	 dl, -22			; ffffffeaH
  0009a	88 55 eb	 mov	 BYTE PTR __k$[ebp+7], dl
  0009d	8a 50 08	 mov	 dl, BYTE PTR [eax+8]
  000a0	84 d2		 test	 dl, dl
  000a2	0f 84 07 01 00
	00		 je	 $LN88@LoadBool_e
  000a8	80 f2 ed	 xor	 dl, -19			; ffffffedH
  000ab	88 55 ec	 mov	 BYTE PTR __k$[ebp+8], dl
  000ae	8a 50 09	 mov	 dl, BYTE PTR [eax+9]
  000b1	84 d2		 test	 dl, dl
  000b3	0f 84 f0 00 00
	00		 je	 $LN87@LoadBool_e
  000b9	80 f2 ec	 xor	 dl, -20			; ffffffecH
  000bc	88 55 ed	 mov	 BYTE PTR __k$[ebp+9], dl
  000bf	8a 50 0a	 mov	 dl, BYTE PTR [eax+10]
  000c2	84 d2		 test	 dl, dl
  000c4	0f 84 da 00 00
	00		 je	 $LN86@LoadBool_e
  000ca	32 d1		 xor	 dl, cl
  000cc	88 55 ee	 mov	 BYTE PTR __k$[ebp+10], dl
  000cf	8a 50 0b	 mov	 dl, BYTE PTR [eax+11]
  000d2	84 d2		 test	 dl, dl
  000d4	0f 84 c4 00 00
	00		 je	 $LN85@LoadBool_e
  000da	80 f2 ea	 xor	 dl, -22			; ffffffeaH
  000dd	88 55 ef	 mov	 BYTE PTR __k$[ebp+11], dl
  000e0	8a 50 0c	 mov	 dl, BYTE PTR [eax+12]
  000e3	84 d2		 test	 dl, dl
  000e5	0f 84 ad 00 00
	00		 je	 $LN84@LoadBool_e
  000eb	80 f2 ed	 xor	 dl, -19			; ffffffedH
  000ee	88 55 f0	 mov	 BYTE PTR __k$[ebp+12], dl
  000f1	8a 50 0d	 mov	 dl, BYTE PTR [eax+13]
  000f4	84 d2		 test	 dl, dl
  000f6	0f 84 96 00 00
	00		 je	 $LN83@LoadBool_e
  000fc	80 f2 ec	 xor	 dl, -20			; ffffffecH
  000ff	88 55 f1	 mov	 BYTE PTR __k$[ebp+13], dl
  00102	8a 50 0e	 mov	 dl, BYTE PTR [eax+14]
  00105	84 d2		 test	 dl, dl
  00107	0f 84 80 00 00
	00		 je	 $LN82@LoadBool_e
  0010d	32 d1		 xor	 dl, cl
  0010f	88 55 f2	 mov	 BYTE PTR __k$[ebp+14], dl
  00112	8a 50 0f	 mov	 dl, BYTE PTR [eax+15]
  00115	84 d2		 test	 dl, dl
  00117	74 6e		 je	 SHORT $LN81@LoadBool_e
  00119	80 f2 ea	 xor	 dl, -22			; ffffffeaH
  0011c	88 55 f3	 mov	 BYTE PTR __k$[ebp+15], dl
  0011f	8a 50 10	 mov	 dl, BYTE PTR [eax+16]
  00122	84 d2		 test	 dl, dl
  00124	74 5b		 je	 SHORT $LN80@LoadBool_e
  00126	80 f2 ed	 xor	 dl, -19			; ffffffedH
  00129	80 78 11 00	 cmp	 BYTE PTR [eax+17], 0
  0012d	88 55 f4	 mov	 BYTE PTR __k$[ebp+16], dl
  00130	0f 84 ac 00 00
	00		 je	 $LN1@LoadBool_e
  00136	8a 50 12	 mov	 dl, BYTE PTR [eax+18]
  00139	84 d2		 test	 dl, dl
  0013b	74 3f		 je	 SHORT $LN78@LoadBool_e
  0013d	32 d1		 xor	 dl, cl
  0013f	88 55 f6	 mov	 BYTE PTR __k$[ebp+18], dl
  00142	8a 50 13	 mov	 dl, BYTE PTR [eax+19]
  00145	84 d2		 test	 dl, dl
  00147	74 2d		 je	 SHORT $LN77@LoadBool_e
  00149	80 f2 ea	 xor	 dl, -22			; ffffffeaH
  0014c	88 55 f7	 mov	 BYTE PTR __k$[ebp+19], dl
  0014f	8a 50 14	 mov	 dl, BYTE PTR [eax+20]
  00152	84 d2		 test	 dl, dl
  00154	74 1a		 je	 SHORT $LN76@LoadBool_e
  00156	8a 40 15	 mov	 al, BYTE PTR [eax+21]
  00159	80 f2 ed	 xor	 dl, -19			; ffffffedH
  0015c	88 55 f8	 mov	 BYTE PTR __k$[ebp+20], dl
  0015f	84 c0		 test	 al, al
  00161	74 07		 je	 SHORT $LN75@LoadBool_e
  00163	34 ec		 xor	 al, -20			; ffffffecH
  00165	88 45 f9	 mov	 BYTE PTR __k$[ebp+21], al
  00168	eb 78		 jmp	 SHORT $LN1@LoadBool_e
$LN75@LoadBool_e:
  0016a	c6 45 f9 ec	 mov	 BYTE PTR __k$[ebp+21], -20 ; ffffffecH
  0016e	eb 72		 jmp	 SHORT $LN1@LoadBool_e
$LN76@LoadBool_e:
  00170	c6 45 f8 ed	 mov	 BYTE PTR __k$[ebp+20], -19 ; ffffffedH
  00174	eb 6c		 jmp	 SHORT $LN1@LoadBool_e
$LN77@LoadBool_e:
  00176	c6 45 f7 ea	 mov	 BYTE PTR __k$[ebp+19], -22 ; ffffffeaH
  0017a	eb 66		 jmp	 SHORT $LN1@LoadBool_e
$LN78@LoadBool_e:
  0017c	88 4d f6	 mov	 BYTE PTR __k$[ebp+18], cl
  0017f	eb 61		 jmp	 SHORT $LN1@LoadBool_e
$LN80@LoadBool_e:
  00181	c6 45 f4 ed	 mov	 BYTE PTR __k$[ebp+16], -19 ; ffffffedH
  00185	eb 5b		 jmp	 SHORT $LN1@LoadBool_e
$LN81@LoadBool_e:
  00187	c6 45 f3 ea	 mov	 BYTE PTR __k$[ebp+15], -22 ; ffffffeaH
  0018b	eb 55		 jmp	 SHORT $LN1@LoadBool_e
$LN82@LoadBool_e:
  0018d	88 4d f2	 mov	 BYTE PTR __k$[ebp+14], cl
  00190	eb 50		 jmp	 SHORT $LN1@LoadBool_e
$LN83@LoadBool_e:
  00192	c6 45 f1 ec	 mov	 BYTE PTR __k$[ebp+13], -20 ; ffffffecH
  00196	eb 4a		 jmp	 SHORT $LN1@LoadBool_e
$LN84@LoadBool_e:
  00198	c6 45 f0 ed	 mov	 BYTE PTR __k$[ebp+12], -19 ; ffffffedH
  0019c	eb 44		 jmp	 SHORT $LN1@LoadBool_e
$LN85@LoadBool_e:
  0019e	c6 45 ef ea	 mov	 BYTE PTR __k$[ebp+11], -22 ; ffffffeaH
  001a2	eb 3e		 jmp	 SHORT $LN1@LoadBool_e
$LN86@LoadBool_e:
  001a4	88 4d ee	 mov	 BYTE PTR __k$[ebp+10], cl
  001a7	eb 39		 jmp	 SHORT $LN1@LoadBool_e
$LN87@LoadBool_e:
  001a9	c6 45 ed ec	 mov	 BYTE PTR __k$[ebp+9], -20 ; ffffffecH
  001ad	eb 33		 jmp	 SHORT $LN1@LoadBool_e
$LN88@LoadBool_e:
  001af	c6 45 ec ed	 mov	 BYTE PTR __k$[ebp+8], -19 ; ffffffedH
  001b3	eb 2d		 jmp	 SHORT $LN1@LoadBool_e
$LN89@LoadBool_e:
  001b5	c6 45 eb ea	 mov	 BYTE PTR __k$[ebp+7], -22 ; ffffffeaH
  001b9	eb 27		 jmp	 SHORT $LN1@LoadBool_e
$LN90@LoadBool_e:
  001bb	88 4d ea	 mov	 BYTE PTR __k$[ebp+6], cl
  001be	eb 22		 jmp	 SHORT $LN1@LoadBool_e
$LN91@LoadBool_e:
  001c0	c6 45 e9 ec	 mov	 BYTE PTR __k$[ebp+5], -20 ; ffffffecH
  001c4	eb 1c		 jmp	 SHORT $LN1@LoadBool_e
$LN92@LoadBool_e:
  001c6	c6 45 e8 ed	 mov	 BYTE PTR __k$[ebp+4], -19 ; ffffffedH
  001ca	eb 16		 jmp	 SHORT $LN1@LoadBool_e
$LN93@LoadBool_e:
  001cc	c6 45 e7 ea	 mov	 BYTE PTR __k$[ebp+3], -22 ; ffffffeaH
  001d0	eb 10		 jmp	 SHORT $LN1@LoadBool_e
$LN94@LoadBool_e:
  001d2	c6 45 e6 eb	 mov	 BYTE PTR __k$[ebp+2], -21 ; ffffffebH
  001d6	eb 0a		 jmp	 SHORT $LN1@LoadBool_e
$LN95@LoadBool_e:
  001d8	c6 45 e5 ec	 mov	 BYTE PTR __k$[ebp+1], -20 ; ffffffecH
  001dc	eb 04		 jmp	 SHORT $LN1@LoadBool_e
$LN96@LoadBool_e:
  001de	c6 45 e4 ed	 mov	 BYTE PTR __k$[ebp], -19	; ffffffedH
$LN1@LoadBool_e:
  001e2	6a 04		 push	 4
  001e4	8d 45 e4	 lea	 eax, DWORD PTR __k$[ebp]
  001e7	c6 45 f5 00	 mov	 BYTE PTR __k$[ebp+17], 0
  001eb	5a		 pop	 edx
$LL104@LoadBool_e:
  001ec	81 30 ed ec eb
	ea		 xor	 DWORD PTR [eax], -353637139 ; eaebecedH
  001f2	83 c0 04	 add	 eax, 4
  001f5	4a		 dec	 edx
  001f6	75 f4		 jne	 SHORT $LL104@LoadBool_e

; 103  : 		return LoadBool(_k, b);

  001f8	ff 75 0c	 push	 DWORD PTR _b$[ebp]
  001fb	80 75 f4 ed	 xor	 BYTE PTR __k$[ebp+16], -19 ; ffffffedH
  001ff	8d 45 e4	 lea	 eax, DWORD PTR __k$[ebp]
  00202	50		 push	 eax
  00203	8b ce		 mov	 ecx, esi
  00205	ff 15 00 00 00
	00		 call	 DWORD PTR __imp_?LoadBool@ioINILoader@@QAE_NPBD_N@Z

; 104  : 	}

  0020b	8b 4d fc	 mov	 ecx, DWORD PTR __$ArrayPad$[ebp]
  0020e	33 cd		 xor	 ecx, ebp
  00210	5e		 pop	 esi
  00211	e8 00 00 00 00	 call	 @__security_check_cookie@4
  00216	c9		 leave
  00217	c2 08 00	 ret	 8
??$LoadBool_e@$0BC@@ioINILoader@@QAE_NAAY0BC@$$CBD_N@Z ENDP ; ioINILoader::LoadBool_e<18>
_TEXT	ENDS
PUBLIC	??0?$CEncrypt@M@@QAE@XZ				; CEncrypt<float>::CEncrypt<float>
EXTRN	??0ccddaabb@@QAE@XZ:PROC			; ccddaabb::ccddaabb
;	COMDAT xdata$x
; File d:\lost saga for developer\youtube\tutorial\source\src\lsclient\encryptvalue.h
xdata$x	SEGMENT
__unwindtable$??0?$CEncrypt@M@@QAE@XZ DD 0ffffffffH
	DD	FLAT:__unwindfunclet$??0?$CEncrypt@M@@QAE@XZ$0
__ehfuncinfo$??0?$CEncrypt@M@@QAE@XZ DD 019930522H
	DD	01H
	DD	FLAT:__unwindtable$??0?$CEncrypt@M@@QAE@XZ
	DD	2 DUP(00H)
	DD	2 DUP(00H)
	DD	00H
	DD	01H
; Function compile flags: /Ogsp
xdata$x	ENDS
;	COMDAT ??0?$CEncrypt@M@@QAE@XZ
_TEXT	SEGMENT
_this$ = -16						; size = 4
__$EHRec$ = -12						; size = 12
??0?$CEncrypt@M@@QAE@XZ PROC				; CEncrypt<float>::CEncrypt<float>, COMDAT
; _this$ = ecx

; 109  : 	CEncrypt()

  00000	6a 04		 push	 4
  00002	b8 00 00 00 00	 mov	 eax, __ehhandler$??0?$CEncrypt@M@@QAE@XZ
  00007	e8 00 00 00 00	 call	 __EH_prolog3
  0000c	8b f1		 mov	 esi, ecx
  0000e	89 75 f0	 mov	 DWORD PTR _this$[ebp], esi
  00011	8d 4e 0c	 lea	 ecx, DWORD PTR [esi+12]
  00014	c7 06 00 00 00
	00		 mov	 DWORD PTR [esi], OFFSET ??_7?$CEncrypt@M@@6B@
  0001a	e8 00 00 00 00	 call	 ??0ccddaabb@@QAE@XZ	; ccddaabb::ccddaabb
  0001f	83 65 fc 00	 and	 DWORD PTR __$EHRec$[ebp+8], 0

; 110  : 	{
; 111  : 		Init();

  00023	8b ce		 mov	 ecx, esi
  00025	e8 00 00 00 00	 call	 ?Init@?$CEncrypt@M@@AAEXXZ ; CEncrypt<float>::Init

; 112  : 	}

  0002a	8b c6		 mov	 eax, esi
  0002c	e8 00 00 00 00	 call	 __EH_epilog3
  00031	c3		 ret	 0
_TEXT	ENDS
;	COMDAT text$x
text$x	SEGMENT
__unwindfunclet$??0?$CEncrypt@M@@QAE@XZ$0:
  00000	8b 4d f0	 mov	 ecx, DWORD PTR _this$[ebp]
  00003	83 c1 0c	 add	 ecx, 12			; 0000000cH
  00006	e9 00 00 00 00	 jmp	 ??1ccddaabb@@UAE@XZ	; ccddaabb::~ccddaabb
__ehhandler$??0?$CEncrypt@M@@QAE@XZ:
  0000b	8b 54 24 08	 mov	 edx, DWORD PTR [esp+8]
  0000f	8d 42 0c	 lea	 eax, DWORD PTR [edx+12]
  00012	8b 4a ec	 mov	 ecx, DWORD PTR [edx-20]
  00015	33 c8		 xor	 ecx, eax
  00017	e8 00 00 00 00	 call	 @__security_check_cookie@4
  0001c	b8 00 00 00 00	 mov	 eax, OFFSET __ehfuncinfo$??0?$CEncrypt@M@@QAE@XZ
  00021	e9 00 00 00 00	 jmp	 ___CxxFrameHandler3
text$x	ENDS
??0?$CEncrypt@M@@QAE@XZ ENDP				; CEncrypt<float>::CEncrypt<float>
PUBLIC	??B?$CEncrypt@M@@QAEMXZ				; CEncrypt<float>::operator float
; Function compile flags: /Ogsp
;	COMDAT ??B?$CEncrypt@M@@QAEMXZ
_TEXT	SEGMENT
_value$ = -4						; size = 4
??B?$CEncrypt@M@@QAEMXZ PROC				; CEncrypt<float>::operator float, COMDAT
; _this$ = ecx

; 134  : 	{

  00000	55		 push	 ebp
  00001	8b ec		 mov	 ebp, esp
  00003	51		 push	 ecx

; 135  : 		type value;
; 136  : 		DecryptValueToPool(&value);

  00004	8d 45 fc	 lea	 eax, DWORD PTR _value$[ebp]
  00007	50		 push	 eax
  00008	e8 00 00 00 00	 call	 ?DecryptValueToPool@?$CEncrypt@M@@QAEXPAM@Z ; CEncrypt<float>::DecryptValueToPool

; 137  : 
; 138  : #ifdef _NOTUSE
; 139  : 		Debug();
; 140  : #endif
; 141  : 		return value;

  0000d	d9 45 fc	 fld	 DWORD PTR _value$[ebp]

; 142  : 	}

  00010	c9		 leave
  00011	c3		 ret	 0
??B?$CEncrypt@M@@QAEMXZ ENDP				; CEncrypt<float>::operator float
_TEXT	ENDS
PUBLIC	??4?$CEncrypt@M@@QAEMM@Z			; CEncrypt<float>::operator=
; Function compile flags: /Ogsp
;	COMDAT ??4?$CEncrypt@M@@QAEMM@Z
_TEXT	SEGMENT
_value$ = 8						; size = 4
_inValue$ = 8						; size = 4
??4?$CEncrypt@M@@QAEMM@Z PROC				; CEncrypt<float>::operator=, COMDAT
; _this$ = ecx

; 1654 : 	{	

  00000	55		 push	 ebp
  00001	8b ec		 mov	 ebp, esp

; 1655 : 		type value = inValue;

  00003	d9 45 08	 fld	 DWORD PTR _inValue$[ebp]

; 1656 : 		EncryptValueToPool((char*)&value);

  00006	8d 45 08	 lea	 eax, DWORD PTR _value$[ebp]
  00009	50		 push	 eax
  0000a	d9 5d 08	 fstp	 DWORD PTR _value$[ebp]
  0000d	e8 00 00 00 00	 call	 ?EncryptValueToPool@?$CEncrypt@M@@AAEXPBD@Z ; CEncrypt<float>::EncryptValueToPool

; 1657 : #ifdef _NOTUSE
; 1658 : 		m_value = inValue;
; 1659 : 		Debug();
; 1660 : #endif
; 1661 : 		return value;

  00012	d9 45 08	 fld	 DWORD PTR _value$[ebp]

; 1662 : 	}

  00015	5d		 pop	 ebp
  00016	c2 04 00	 ret	 4
??4?$CEncrypt@M@@QAEMM@Z ENDP				; CEncrypt<float>::operator=
_TEXT	ENDS
PUBLIC	??Y?$CEncrypt@M@@QAEAAMABM@Z			; CEncrypt<float>::operator+=
; Function compile flags: /Ogsp
;	COMDAT ??Y?$CEncrypt@M@@QAEAAMABM@Z
_TEXT	SEGMENT
_value$ = -4						; size = 4
_inValue$ = 8						; size = 4
??Y?$CEncrypt@M@@QAEAAMABM@Z PROC			; CEncrypt<float>::operator+=, COMDAT
; _this$ = ecx

; 1715 : 	{

  00000	55		 push	 ebp
  00001	8b ec		 mov	 ebp, esp
  00003	51		 push	 ecx
  00004	56		 push	 esi

; 1716 : 		type value;
; 1717 : 		DecryptValueToPool(&value);

  00005	8d 45 fc	 lea	 eax, DWORD PTR _value$[ebp]
  00008	50		 push	 eax
  00009	8b f1		 mov	 esi, ecx
  0000b	e8 00 00 00 00	 call	 ?DecryptValueToPool@?$CEncrypt@M@@QAEXPAM@Z ; CEncrypt<float>::DecryptValueToPool

; 1718 : 		value += inValue;

  00010	8b 45 08	 mov	 eax, DWORD PTR _inValue$[ebp]
  00013	f3 0f 10 00	 movss	 xmm0, DWORD PTR [eax]
  00017	f3 0f 10 4d fc	 movss	 xmm1, DWORD PTR _value$[ebp]
  0001c	0f 5a c0	 cvtps2pd xmm0, xmm0
  0001f	0f 5a c9	 cvtps2pd xmm1, xmm1

; 1719 : 		EncryptValueToPool((char*)&value);

  00022	8d 45 fc	 lea	 eax, DWORD PTR _value$[ebp]
  00025	f2 0f 58 c1	 addsd	 xmm0, xmm1
  00029	66 0f 5a c0	 cvtpd2ps xmm0, xmm0
  0002d	50		 push	 eax
  0002e	8b ce		 mov	 ecx, esi
  00030	f3 0f 11 45 fc	 movss	 DWORD PTR _value$[ebp], xmm0
  00035	e8 00 00 00 00	 call	 ?EncryptValueToPool@?$CEncrypt@M@@AAEXPBD@Z ; CEncrypt<float>::EncryptValueToPool

; 1720 : #ifdef _NOTUSE
; 1721 : 		m_value += inValue;
; 1722 : 		Debug();
; 1723 : #endif
; 1724 : 		return value;

  0003a	8d 45 fc	 lea	 eax, DWORD PTR _value$[ebp]
  0003d	5e		 pop	 esi

; 1725 : 	} 

  0003e	c9		 leave
  0003f	c2 04 00	 ret	 4
??Y?$CEncrypt@M@@QAEAAMABM@Z ENDP			; CEncrypt<float>::operator+=
_TEXT	ENDS
PUBLIC	??O?$CEncrypt@M@@QAE_NABM@Z			; CEncrypt<float>::operator>
; Function compile flags: /Ogsp
;	COMDAT ??O?$CEncrypt@M@@QAE_NABM@Z
_TEXT	SEGMENT
_value$ = -4						; size = 4
_inValue$ = 8						; size = 4
??O?$CEncrypt@M@@QAE_NABM@Z PROC			; CEncrypt<float>::operator>, COMDAT
; _this$ = ecx

; 1811 : 	{

  00000	55		 push	 ebp
  00001	8b ec		 mov	 ebp, esp
  00003	51		 push	 ecx

; 1812 : 		type value;
; 1813 : 		DecryptValueToPool(&value);

  00004	8d 45 fc	 lea	 eax, DWORD PTR _value$[ebp]
  00007	50		 push	 eax
  00008	e8 00 00 00 00	 call	 ?DecryptValueToPool@?$CEncrypt@M@@QAEXPAM@Z ; CEncrypt<float>::DecryptValueToPool

; 1814 : #ifdef _NOTUSE
; 1815 : 		Debug();
; 1816 : #endif
; 1817 : 		return (value > inValue);

  0000d	8b 45 08	 mov	 eax, DWORD PTR _inValue$[ebp]
  00010	f3 0f 10 08	 movss	 xmm1, DWORD PTR [eax]
  00014	f3 0f 10 45 fc	 movss	 xmm0, DWORD PTR _value$[ebp]
  00019	0f 5a c0	 cvtps2pd xmm0, xmm0
  0001c	0f 5a c9	 cvtps2pd xmm1, xmm1
  0001f	33 c0		 xor	 eax, eax
  00021	66 0f 2f c1	 comisd	 xmm0, xmm1
  00025	76 01		 jbe	 SHORT $LN4@operator@3
  00027	40		 inc	 eax
$LN4@operator@3:

; 1818 : 	}		

  00028	c9		 leave
  00029	c2 04 00	 ret	 4
??O?$CEncrypt@M@@QAE_NABM@Z ENDP			; CEncrypt<float>::operator>
_TEXT	ENDS
PUBLIC	??0?$CEncrypt@K@@QAE@XZ				; CEncrypt<unsigned long>::CEncrypt<unsigned long>
;	COMDAT xdata$x
xdata$x	SEGMENT
__unwindtable$??0?$CEncrypt@K@@QAE@XZ DD 0ffffffffH
	DD	FLAT:__unwindfunclet$??0?$CEncrypt@K@@QAE@XZ$0
__ehfuncinfo$??0?$CEncrypt@K@@QAE@XZ DD 019930522H
	DD	01H
	DD	FLAT:__unwindtable$??0?$CEncrypt@K@@QAE@XZ
	DD	2 DUP(00H)
	DD	2 DUP(00H)
	DD	00H
	DD	01H
; Function compile flags: /Ogsp
xdata$x	ENDS
;	COMDAT ??0?$CEncrypt@K@@QAE@XZ
_TEXT	SEGMENT
_this$ = -16						; size = 4
__$EHRec$ = -12						; size = 12
??0?$CEncrypt@K@@QAE@XZ PROC				; CEncrypt<unsigned long>::CEncrypt<unsigned long>, COMDAT
; _this$ = ecx

; 109  : 	CEncrypt()

  00000	6a 04		 push	 4
  00002	b8 00 00 00 00	 mov	 eax, __ehhandler$??0?$CEncrypt@K@@QAE@XZ
  00007	e8 00 00 00 00	 call	 __EH_prolog3
  0000c	8b f1		 mov	 esi, ecx
  0000e	89 75 f0	 mov	 DWORD PTR _this$[ebp], esi
  00011	8d 4e 0c	 lea	 ecx, DWORD PTR [esi+12]
  00014	c7 06 00 00 00
	00		 mov	 DWORD PTR [esi], OFFSET ??_7?$CEncrypt@K@@6B@
  0001a	e8 00 00 00 00	 call	 ??0ccddaabb@@QAE@XZ	; ccddaabb::ccddaabb
  0001f	83 65 fc 00	 and	 DWORD PTR __$EHRec$[ebp+8], 0

; 110  : 	{
; 111  : 		Init();

  00023	8b ce		 mov	 ecx, esi
  00025	e8 00 00 00 00	 call	 ?Init@?$CEncrypt@K@@AAEXXZ ; CEncrypt<unsigned long>::Init

; 112  : 	}

  0002a	8b c6		 mov	 eax, esi
  0002c	e8 00 00 00 00	 call	 __EH_epilog3
  00031	c3		 ret	 0
_TEXT	ENDS
;	COMDAT text$x
text$x	SEGMENT
__unwindfunclet$??0?$CEncrypt@K@@QAE@XZ$0:
  00000	8b 4d f0	 mov	 ecx, DWORD PTR _this$[ebp]
  00003	83 c1 0c	 add	 ecx, 12			; 0000000cH
  00006	e9 00 00 00 00	 jmp	 ??1ccddaabb@@UAE@XZ	; ccddaabb::~ccddaabb
__ehhandler$??0?$CEncrypt@K@@QAE@XZ:
  0000b	8b 54 24 08	 mov	 edx, DWORD PTR [esp+8]
  0000f	8d 42 0c	 lea	 eax, DWORD PTR [edx+12]
  00012	8b 4a ec	 mov	 ecx, DWORD PTR [edx-20]
  00015	33 c8		 xor	 ecx, eax
  00017	e8 00 00 00 00	 call	 @__security_check_cookie@4
  0001c	b8 00 00 00 00	 mov	 eax, OFFSET __ehfuncinfo$??0?$CEncrypt@K@@QAE@XZ
  00021	e9 00 00 00 00	 jmp	 ___CxxFrameHandler3
text$x	ENDS
??0?$CEncrypt@K@@QAE@XZ ENDP				; CEncrypt<unsigned long>::CEncrypt<unsigned long>
PUBLIC	??B?$CEncrypt@K@@QAEKXZ				; CEncrypt<unsigned long>::operator unsigned long
; Function compile flags: /Ogsp
;	COMDAT ??B?$CEncrypt@K@@QAEKXZ
_TEXT	SEGMENT
_value$ = -4						; size = 4
??B?$CEncrypt@K@@QAEKXZ PROC				; CEncrypt<unsigned long>::operator unsigned long, COMDAT
; _this$ = ecx

; 134  : 	{

  00000	55		 push	 ebp
  00001	8b ec		 mov	 ebp, esp
  00003	51		 push	 ecx

; 135  : 		type value;
; 136  : 		DecryptValueToPool(&value);

  00004	8d 45 fc	 lea	 eax, DWORD PTR _value$[ebp]
  00007	50		 push	 eax
  00008	e8 00 00 00 00	 call	 ?DecryptValueToPool@?$CEncrypt@K@@QAEXPAK@Z ; CEncrypt<unsigned long>::DecryptValueToPool

; 137  : 
; 138  : #ifdef _NOTUSE
; 139  : 		Debug();
; 140  : #endif
; 141  : 		return value;

  0000d	8b 45 fc	 mov	 eax, DWORD PTR _value$[ebp]

; 142  : 	}

  00010	c9		 leave
  00011	c3		 ret	 0
??B?$CEncrypt@K@@QAEKXZ ENDP				; CEncrypt<unsigned long>::operator unsigned long
_TEXT	ENDS
PUBLIC	??4?$CEncrypt@K@@QAEKK@Z			; CEncrypt<unsigned long>::operator=
; Function compile flags: /Ogsp
;	COMDAT ??4?$CEncrypt@K@@QAEKK@Z
_TEXT	SEGMENT
_value$ = 8						; size = 4
_inValue$ = 8						; size = 4
??4?$CEncrypt@K@@QAEKK@Z PROC				; CEncrypt<unsigned long>::operator=, COMDAT
; _this$ = ecx

; 1262 : 	{

  00000	55		 push	 ebp
  00001	8b ec		 mov	 ebp, esp

; 1263 : 		
; 1264 : 		type value = inValue;

  00003	8b 45 08	 mov	 eax, DWORD PTR _inValue$[ebp]
  00006	89 45 08	 mov	 DWORD PTR _value$[ebp], eax

; 1265 : 		EncryptValueToPool((char*)&value);

  00009	8d 45 08	 lea	 eax, DWORD PTR _value$[ebp]
  0000c	50		 push	 eax
  0000d	e8 00 00 00 00	 call	 ?EncryptValueToPool@?$CEncrypt@K@@AAEXPBD@Z ; CEncrypt<unsigned long>::EncryptValueToPool

; 1266 : #ifdef _NOTUSE
; 1267 : 		m_value = inValue;
; 1268 : 		Debug();
; 1269 : #endif
; 1270 : 		return value;

  00012	8b 45 08	 mov	 eax, DWORD PTR _value$[ebp]

; 1271 : 	}

  00015	5d		 pop	 ebp
  00016	c2 04 00	 ret	 4
??4?$CEncrypt@K@@QAEKK@Z ENDP				; CEncrypt<unsigned long>::operator=
_TEXT	ENDS
PUBLIC	??0ioUroborusWeapon@@QAE@PAVioBaseChar@@PBUWeaponAttribute@@@Z ; ioUroborusWeapon::ioUroborusWeapon
EXTRN	__imp_??0ioOrientBox@@QAE@XZ:PROC
EXTRN	??0ioWeapon@@QAE@PAVioBaseChar@@PBUWeaponAttribute@@@Z:PROC ; ioWeapon::ioWeapon
;	COMDAT xdata$x
xdata$x	SEGMENT
__ehfuncinfo$??0ioUroborusWeapon@@QAE@PAVioBaseChar@@PBUWeaponAttribute@@@Z DD 019930522H
	DD	09H
	DD	FLAT:__unwindtable$??0ioUroborusWeapon@@QAE@PAVioBaseChar@@PBUWeaponAttribute@@@Z
	DD	2 DUP(00H)
	DD	2 DUP(00H)
	DD	00H
	DD	01H
__unwindtable$??0ioUroborusWeapon@@QAE@PAVioBaseChar@@PBUWeaponAttribute@@@Z DD 0ffffffffH
	DD	FLAT:__unwindfunclet$??0ioUroborusWeapon@@QAE@PAVioBaseChar@@PBUWeaponAttribute@@@Z$0
	DD	00H
	DD	FLAT:__unwindfunclet$??0ioUroborusWeapon@@QAE@PAVioBaseChar@@PBUWeaponAttribute@@@Z$1
	DD	01H
	DD	FLAT:__unwindfunclet$??0ioUroborusWeapon@@QAE@PAVioBaseChar@@PBUWeaponAttribute@@@Z$2
	DD	02H
	DD	FLAT:__unwindfunclet$??0ioUroborusWeapon@@QAE@PAVioBaseChar@@PBUWeaponAttribute@@@Z$3
	DD	03H
	DD	FLAT:__unwindfunclet$??0ioUroborusWeapon@@QAE@PAVioBaseChar@@PBUWeaponAttribute@@@Z$4
	DD	04H
	DD	FLAT:__unwindfunclet$??0ioUroborusWeapon@@QAE@PAVioBaseChar@@PBUWeaponAttribute@@@Z$5
	DD	05H
	DD	FLAT:__unwindfunclet$??0ioUroborusWeapon@@QAE@PAVioBaseChar@@PBUWeaponAttribute@@@Z$6
	DD	06H
	DD	FLAT:__unwindfunclet$??0ioUroborusWeapon@@QAE@PAVioBaseChar@@PBUWeaponAttribute@@@Z$7
	DD	07H
	DD	FLAT:__unwindfunclet$??0ioUroborusWeapon@@QAE@PAVioBaseChar@@PBUWeaponAttribute@@@Z$8
; Function compile flags: /Ogsp
; File d:\lost saga for developer\youtube\tutorial\source\src\lsclient\iouroborusweapon.cpp
xdata$x	ENDS
;	COMDAT ??0ioUroborusWeapon@@QAE@PAVioBaseChar@@PBUWeaponAttribute@@@Z
_TEXT	SEGMENT
_this$ = -16						; size = 4
__$EHRec$ = -12						; size = 12
_pOwner$ = 8						; size = 4
_value$594276 = 12					; size = 4
_value$594272 = 12					; size = 4
_pAttr$ = 12						; size = 4
??0ioUroborusWeapon@@QAE@PAVioBaseChar@@PBUWeaponAttribute@@@Z PROC ; ioUroborusWeapon::ioUroborusWeapon, COMDAT
; _this$ = ecx

; 17   : {

  00000	6a 04		 push	 4
  00002	b8 00 00 00 00	 mov	 eax, __ehhandler$??0ioUroborusWeapon@@QAE@PAVioBaseChar@@PBUWeaponAttribute@@@Z
  00007	e8 00 00 00 00	 call	 __EH_prolog3
  0000c	8b f1		 mov	 esi, ecx
  0000e	89 75 f0	 mov	 DWORD PTR _this$[ebp], esi
  00011	ff 75 0c	 push	 DWORD PTR _pAttr$[ebp]
  00014	ff 75 08	 push	 DWORD PTR _pOwner$[ebp]
  00017	e8 00 00 00 00	 call	 ??0ioWeapon@@QAE@PAVioBaseChar@@PBUWeaponAttribute@@@Z ; ioWeapon::ioWeapon
  0001c	33 db		 xor	 ebx, ebx
  0001e	8d 8e a0 08 00
	00		 lea	 ecx, DWORD PTR [esi+2208]
  00024	89 5d fc	 mov	 DWORD PTR __$EHRec$[ebp+8], ebx
  00027	c7 06 00 00 00
	00		 mov	 DWORD PTR [esi], OFFSET ??_7ioUroborusWeapon@@6B@
  0002d	ff 15 00 00 00
	00		 call	 DWORD PTR __imp_??0ioOrientBox@@QAE@XZ
  00033	8b 3d 00 00 00
	00		 mov	 edi, DWORD PTR __imp_??0ioHashString@@QAE@XZ
  00039	8d 8e fc 08 00
	00		 lea	 ecx, DWORD PTR [esi+2300]
  0003f	c6 45 fc 01	 mov	 BYTE PTR __$EHRec$[ebp+8], 1
  00043	ff d7		 call	 edi
  00045	8d 8e 0c 09 00
	00		 lea	 ecx, DWORD PTR [esi+2316]
  0004b	c6 45 fc 02	 mov	 BYTE PTR __$EHRec$[ebp+8], 2
  0004f	ff d7		 call	 edi
  00051	8d 8e 20 09 00
	00		 lea	 ecx, DWORD PTR [esi+2336]
  00057	c6 45 fc 03	 mov	 BYTE PTR __$EHRec$[ebp+8], 3
  0005b	e8 00 00 00 00	 call	 ??0?$CEncrypt@M@@QAE@XZ	; CEncrypt<float>::CEncrypt<float>
  00060	8d 8e 50 09 00
	00		 lea	 ecx, DWORD PTR [esi+2384]
  00066	c6 45 fc 04	 mov	 BYTE PTR __$EHRec$[ebp+8], 4
  0006a	e8 00 00 00 00	 call	 ??0?$CEncrypt@M@@QAE@XZ	; CEncrypt<float>::CEncrypt<float>
  0006f	8d 8e 80 09 00
	00		 lea	 ecx, DWORD PTR [esi+2432]
  00075	c6 45 fc 05	 mov	 BYTE PTR __$EHRec$[ebp+8], 5
  00079	ff d7		 call	 edi
  0007b	8d 8e 90 09 00
	00		 lea	 ecx, DWORD PTR [esi+2448]
  00081	c6 45 fc 06	 mov	 BYTE PTR __$EHRec$[ebp+8], 6
  00085	e8 00 00 00 00	 call	 ??0?$CEncrypt@K@@QAE@XZ	; CEncrypt<unsigned long>::CEncrypt<unsigned long>
  0008a	8d 8e c4 09 00
	00		 lea	 ecx, DWORD PTR [esi+2500]
  00090	c6 45 fc 07	 mov	 BYTE PTR __$EHRec$[ebp+8], 7
  00094	e8 00 00 00 00	 call	 ??0?$CEncrypt@K@@QAE@XZ	; CEncrypt<unsigned long>::CEncrypt<unsigned long>

; 18   : 	//SetPeculiarity( WP_WOUND_NO_SOUND | WP_DEF_NO_SOUND );
; 19   : 
; 20   : 	m_pFireMesh = NULL;
; 21   : 	m_UroborusState = US_MOVE;
; 22   : 
; 23   : 	m_bResistance = false;
; 24   : 	m_fCurMoveSpeed = 0.0f;

  00099	0f 57 c0	 xorps	 xmm0, xmm0
  0009c	8d 45 0c	 lea	 eax, DWORD PTR _value$594272[ebp]
  0009f	50		 push	 eax
  000a0	8d 8e 20 09 00
	00		 lea	 ecx, DWORD PTR [esi+2336]
  000a6	c6 45 fc 08	 mov	 BYTE PTR __$EHRec$[ebp+8], 8
  000aa	89 9e 98 08 00
	00		 mov	 DWORD PTR [esi+2200], ebx
  000b0	89 9e 94 08 00
	00		 mov	 DWORD PTR [esi+2196], ebx
  000b6	88 9e 3c 06 00
	00		 mov	 BYTE PTR [esi+1596], bl
  000bc	f3 0f 11 45 0c	 movss	 DWORD PTR _value$594272[ebp], xmm0
  000c1	e8 00 00 00 00	 call	 ?EncryptValueToPool@?$CEncrypt@M@@AAEXPBD@Z ; CEncrypt<float>::EncryptValueToPool

; 25   : 	m_fCurMoveRange = 0.0f;

  000c6	0f 57 c0	 xorps	 xmm0, xmm0
  000c9	8d 45 0c	 lea	 eax, DWORD PTR _value$594276[ebp]
  000cc	50		 push	 eax
  000cd	8d 8e 50 09 00
	00		 lea	 ecx, DWORD PTR [esi+2384]
  000d3	f3 0f 11 45 0c	 movss	 DWORD PTR _value$594276[ebp], xmm0
  000d8	e8 00 00 00 00	 call	 ?EncryptValueToPool@?$CEncrypt@M@@AAEXPBD@Z ; CEncrypt<float>::EncryptValueToPool

; 26   : 
; 27   : 	m_dwUroborusWaitEndTime = 0;

  000dd	89 9e c0 09 00
	00		 mov	 DWORD PTR [esi+2496], ebx

; 28   : 
; 29   : 	m_pGuideArrow = NULL;

  000e3	89 9e 9c 08 00
	00		 mov	 DWORD PTR [esi+2204], ebx

; 30   : }

  000e9	8b c6		 mov	 eax, esi
  000eb	e8 00 00 00 00	 call	 __EH_epilog3
  000f0	c2 08 00	 ret	 8
_TEXT	ENDS
;	COMDAT text$x
text$x	SEGMENT
__unwindfunclet$??0ioUroborusWeapon@@QAE@PAVioBaseChar@@PBUWeaponAttribute@@@Z$0:
  00000	8b 4d f0	 mov	 ecx, DWORD PTR _this$[ebp]
  00003	e9 00 00 00 00	 jmp	 ??1ioWeapon@@UAE@XZ	; ioWeapon::~ioWeapon
__unwindfunclet$??0ioUroborusWeapon@@QAE@PAVioBaseChar@@PBUWeaponAttribute@@@Z$1:
  00008	8b 4d f0	 mov	 ecx, DWORD PTR _this$[ebp]
  0000b	81 c1 a0 08 00
	00		 add	 ecx, 2208		; 000008a0H
  00011	ff 25 00 00 00
	00		 jmp	 DWORD PTR __imp_??1ioOrientBox@@QAE@XZ
__unwindfunclet$??0ioUroborusWeapon@@QAE@PAVioBaseChar@@PBUWeaponAttribute@@@Z$2:
  00017	8b 4d f0	 mov	 ecx, DWORD PTR _this$[ebp]
  0001a	81 c1 fc 08 00
	00		 add	 ecx, 2300		; 000008fcH
  00020	ff 25 00 00 00
	00		 jmp	 DWORD PTR __imp_??1ioHashString@@QAE@XZ
__unwindfunclet$??0ioUroborusWeapon@@QAE@PAVioBaseChar@@PBUWeaponAttribute@@@Z$3:
  00026	8b 4d f0	 mov	 ecx, DWORD PTR _this$[ebp]
  00029	81 c1 0c 09 00
	00		 add	 ecx, 2316		; 0000090cH
  0002f	ff 25 00 00 00
	00		 jmp	 DWORD PTR __imp_??1ioHashString@@QAE@XZ
__unwindfunclet$??0ioUroborusWeapon@@QAE@PAVioBaseChar@@PBUWeaponAttribute@@@Z$4:
  00035	8b 4d f0	 mov	 ecx, DWORD PTR _this$[ebp]
  00038	81 c1 20 09 00
	00		 add	 ecx, 2336		; 00000920H
  0003e	e9 00 00 00 00	 jmp	 ??1?$CEncrypt@M@@UAE@XZ	; CEncrypt<float>::~CEncrypt<float>
__unwindfunclet$??0ioUroborusWeapon@@QAE@PAVioBaseChar@@PBUWeaponAttribute@@@Z$5:
  00043	8b 4d f0	 mov	 ecx, DWORD PTR _this$[ebp]
  00046	81 c1 50 09 00
	00		 add	 ecx, 2384		; 00000950H
  0004c	e9 00 00 00 00	 jmp	 ??1?$CEncrypt@M@@UAE@XZ	; CEncrypt<float>::~CEncrypt<float>
__unwindfunclet$??0ioUroborusWeapon@@QAE@PAVioBaseChar@@PBUWeaponAttribute@@@Z$6:
  00051	8b 4d f0	 mov	 ecx, DWORD PTR _this$[ebp]
  00054	81 c1 80 09 00
	00		 add	 ecx, 2432		; 00000980H
  0005a	ff 25 00 00 00
	00		 jmp	 DWORD PTR __imp_??1ioHashString@@QAE@XZ
__unwindfunclet$??0ioUroborusWeapon@@QAE@PAVioBaseChar@@PBUWeaponAttribute@@@Z$7:
  00060	8b 4d f0	 mov	 ecx, DWORD PTR _this$[ebp]
  00063	81 c1 90 09 00
	00		 add	 ecx, 2448		; 00000990H
  00069	e9 00 00 00 00	 jmp	 ??1?$CEncrypt@K@@UAE@XZ	; CEncrypt<unsigned long>::~CEncrypt<unsigned long>
__unwindfunclet$??0ioUroborusWeapon@@QAE@PAVioBaseChar@@PBUWeaponAttribute@@@Z$8:
  0006e	8b 4d f0	 mov	 ecx, DWORD PTR _this$[ebp]
  00071	81 c1 c4 09 00
	00		 add	 ecx, 2500		; 000009c4H
  00077	e9 00 00 00 00	 jmp	 ??1?$CEncrypt@K@@UAE@XZ	; CEncrypt<unsigned long>::~CEncrypt<unsigned long>
__ehhandler$??0ioUroborusWeapon@@QAE@PAVioBaseChar@@PBUWeaponAttribute@@@Z:
  0007c	8b 54 24 08	 mov	 edx, DWORD PTR [esp+8]
  00080	8d 42 0c	 lea	 eax, DWORD PTR [edx+12]
  00083	8b 4a ec	 mov	 ecx, DWORD PTR [edx-20]
  00086	33 c8		 xor	 ecx, eax
  00088	e8 00 00 00 00	 call	 @__security_check_cookie@4
  0008d	b8 00 00 00 00	 mov	 eax, OFFSET __ehfuncinfo$??0ioUroborusWeapon@@QAE@PAVioBaseChar@@PBUWeaponAttribute@@@Z
  00092	e9 00 00 00 00	 jmp	 ___CxxFrameHandler3
text$x	ENDS
??0ioUroborusWeapon@@QAE@PAVioBaseChar@@PBUWeaponAttribute@@@Z ENDP ; ioUroborusWeapon::ioUroborusWeapon
; Function compile flags: /Ogsp
;	COMDAT ??_GioUroborusWeapon@@UAEPAXI@Z
_TEXT	SEGMENT
___flags$ = 8						; size = 4
??_GioUroborusWeapon@@UAEPAXI@Z PROC			; ioUroborusWeapon::`scalar deleting destructor', COMDAT
; _this$ = ecx
  00000	55		 push	 ebp
  00001	8b ec		 mov	 ebp, esp
  00003	56		 push	 esi
  00004	8b f1		 mov	 esi, ecx
  00006	e8 00 00 00 00	 call	 ??1ioUroborusWeapon@@UAE@XZ ; ioUroborusWeapon::~ioUroborusWeapon
  0000b	f6 45 08 01	 test	 BYTE PTR ___flags$[ebp], 1
  0000f	74 07		 je	 SHORT $LN1@scalar@3
  00011	56		 push	 esi
  00012	e8 00 00 00 00	 call	 ??3@YAXPAX@Z		; operator delete
  00017	59		 pop	 ecx
$LN1@scalar@3:
  00018	8b c6		 mov	 eax, esi
  0001a	5e		 pop	 esi
  0001b	5d		 pop	 ebp
  0001c	c2 04 00	 ret	 4
??_GioUroborusWeapon@@UAEPAXI@Z ENDP			; ioUroborusWeapon::`scalar deleting destructor'
_TEXT	ENDS
EXTRN	__imp_??4ioHashString@@QAEAAV0@ABV0@@Z:PROC
EXTRN	?GetSingleConvertTeam@ioBaseChar@@QAE?AW4TeamType@@XZ:PROC ; ioBaseChar::GetSingleConvertTeam
EXTRN	?SetTeam@ioWeapon@@UAEXPAVioPlayStage@@W4TeamType@@@Z:PROC ; ioWeapon::SetTeam
;	COMDAT xdata$x
xdata$x	SEGMENT
__unwindtable$?SetTeam@ioUroborusWeapon@@UAEXPAVioPlayStage@@W4TeamType@@@Z DD 0ffffffffH
	DD	FLAT:__unwindfunclet$?SetTeam@ioUroborusWeapon@@UAEXPAVioPlayStage@@W4TeamType@@@Z$0
__ehfuncinfo$?SetTeam@ioUroborusWeapon@@UAEXPAVioPlayStage@@W4TeamType@@@Z DD 019930522H
	DD	01H
	DD	FLAT:__unwindtable$?SetTeam@ioUroborusWeapon@@UAEXPAVioPlayStage@@W4TeamType@@@Z
	DD	2 DUP(00H)
	DD	2 DUP(00H)
	DD	00H
	DD	01H
; Function compile flags: /Ogsp
xdata$x	ENDS
;	COMDAT ?SetTeam@ioUroborusWeapon@@UAEXPAVioPlayStage@@W4TeamType@@@Z
_TEXT	SEGMENT
_szCurWeaponEffect$ = -28				; size = 16
__$EHRec$ = -12						; size = 12
_pStage$ = 8						; size = 4
_eType$ = 12						; size = 4
?SetTeam@ioUroborusWeapon@@UAEXPAVioPlayStage@@W4TeamType@@@Z PROC ; ioUroborusWeapon::SetTeam, COMDAT
; _this$ = ecx

; 86   : {

  00000	6a 10		 push	 16			; 00000010H
  00002	b8 00 00 00 00	 mov	 eax, __ehhandler$?SetTeam@ioUroborusWeapon@@UAEXPAVioPlayStage@@W4TeamType@@@Z
  00007	e8 00 00 00 00	 call	 __EH_prolog3
  0000c	8b f1		 mov	 esi, ecx

; 87   : 	if( !pStage ) return;

  0000e	83 7d 08 00	 cmp	 DWORD PTR _pStage$[ebp], 0
  00012	0f 84 8d 00 00
	00		 je	 $LN9@SetTeam

; 88   : 
; 89   : 	ioWeapon::SetTeam( pStage, eType );

  00018	ff 75 0c	 push	 DWORD PTR _eType$[ebp]
  0001b	ff 75 08	 push	 DWORD PTR _pStage$[ebp]
  0001e	e8 00 00 00 00	 call	 ?SetTeam@ioWeapon@@UAEXPAVioPlayStage@@W4TeamType@@@Z ; ioWeapon::SetTeam

; 90   : 
; 91   : 	DestroyResource();

  00023	8b 06		 mov	 eax, DWORD PTR [esi]
  00025	6a 00		 push	 0
  00027	8b ce		 mov	 ecx, esi
  00029	ff 90 9c 00 00
	00		 call	 DWORD PTR [eax+156]

; 92   : 
; 93   : 	ioHashString szCurWeaponEffect;

  0002f	8d 4d e4	 lea	 ecx, DWORD PTR _szCurWeaponEffect$[ebp]
  00032	ff 15 00 00 00
	00		 call	 DWORD PTR __imp_??0ioHashString@@QAE@XZ
  00038	83 65 fc 00	 and	 DWORD PTR __$EHRec$[ebp+8], 0

; 94   : 
; 95   : 	if( eType == TEAM_BLUE )

  0003c	83 7d 0c 02	 cmp	 DWORD PTR _eType$[ebp], 2
  00040	75 08		 jne	 SHORT $LN7@SetTeam

; 96   : 	{
; 97   : 		szCurWeaponEffect = m_BlueTeamEffect;

  00042	8d 86 0c 09 00
	00		 lea	 eax, DWORD PTR [esi+2316]
  00048	eb 29		 jmp	 SHORT $LN13@SetTeam
$LN7@SetTeam:

; 98   : 	}
; 99   : 	else if( eType == TEAM_RED )

  0004a	83 7d 0c 01	 cmp	 DWORD PTR _eType$[ebp], 1

; 100  : 	{
; 101  : 		szCurWeaponEffect = m_RedTeamEffect;
; 102  : 	}
; 103  : 	else //

  0004e	74 1d		 je	 SHORT $LN3@SetTeam

; 104  : 	{
; 105  : 		ioBaseChar *pOwner = GetOwner();

  00050	8b ce		 mov	 ecx, esi
  00052	e8 00 00 00 00	 call	 ?GetOwner@ioWeapon@@QBEPAVioBaseChar@@XZ ; ioWeapon::GetOwner

; 106  : 		if( pOwner && pOwner->GetSingleConvertTeam() == TEAM_BLUE )

  00057	85 c0		 test	 eax, eax
  00059	74 12		 je	 SHORT $LN3@SetTeam
  0005b	8b c8		 mov	 ecx, eax
  0005d	e8 00 00 00 00	 call	 ?GetSingleConvertTeam@ioBaseChar@@QAE?AW4TeamType@@XZ ; ioBaseChar::GetSingleConvertTeam
  00062	83 f8 02	 cmp	 eax, 2

; 107  : 		{
; 108  : 			szCurWeaponEffect = m_BlueTeamEffect;

  00065	8d 86 0c 09 00
	00		 lea	 eax, DWORD PTR [esi+2316]
  0006b	74 06		 je	 SHORT $LN13@SetTeam
$LN3@SetTeam:

; 109  : 		}
; 110  : 		else
; 111  : 		{
; 112  : 			szCurWeaponEffect = m_RedTeamEffect;

  0006d	8d 86 fc 08 00
	00		 lea	 eax, DWORD PTR [esi+2300]
$LN13@SetTeam:
  00073	50		 push	 eax
  00074	8d 4d e4	 lea	 ecx, DWORD PTR _szCurWeaponEffect$[ebp]
  00077	ff 15 00 00 00
	00		 call	 DWORD PTR __imp_??4ioHashString@@QAEAAV0@ABV0@@Z

; 113  : 		}
; 114  : 	}
; 115  : 
; 116  : 	if( !SetFireMesh( szCurWeaponEffect ) )

  0007d	8d 45 e4	 lea	 eax, DWORD PTR _szCurWeaponEffect$[ebp]
  00080	50		 push	 eax
  00081	8b ce		 mov	 ecx, esi
  00083	e8 00 00 00 00	 call	 ?SetFireMesh@ioUroborusWeapon@@IAE_NABVioHashString@@@Z ; ioUroborusWeapon::SetFireMesh
  00088	84 c0		 test	 al, al
  0008a	75 0c		 jne	 SHORT $LN1@SetTeam

; 117  : 		DestroyResource();

  0008c	8b 06		 mov	 eax, DWORD PTR [esi]
  0008e	6a 00		 push	 0
  00090	8b ce		 mov	 ecx, esi
  00092	ff 90 9c 00 00
	00		 call	 DWORD PTR [eax+156]
$LN1@SetTeam:

; 118  : }

  00098	83 4d fc ff	 or	 DWORD PTR __$EHRec$[ebp+8], -1
  0009c	8d 4d e4	 lea	 ecx, DWORD PTR _szCurWeaponEffect$[ebp]
  0009f	ff 15 00 00 00
	00		 call	 DWORD PTR __imp_??1ioHashString@@QAE@XZ
$LN9@SetTeam:
  000a5	e8 00 00 00 00	 call	 __EH_epilog3
  000aa	c2 08 00	 ret	 8
_TEXT	ENDS
;	COMDAT text$x
text$x	SEGMENT
__unwindfunclet$?SetTeam@ioUroborusWeapon@@UAEXPAVioPlayStage@@W4TeamType@@@Z$0:
  00000	8d 4d e4	 lea	 ecx, DWORD PTR _szCurWeaponEffect$[ebp]
  00003	ff 25 00 00 00
	00		 jmp	 DWORD PTR __imp_??1ioHashString@@QAE@XZ
__ehhandler$?SetTeam@ioUroborusWeapon@@UAEXPAVioPlayStage@@W4TeamType@@@Z:
  00009	8b 54 24 08	 mov	 edx, DWORD PTR [esp+8]
  0000d	8d 42 0c	 lea	 eax, DWORD PTR [edx+12]
  00010	8b 4a e0	 mov	 ecx, DWORD PTR [edx-32]
  00013	33 c8		 xor	 ecx, eax
  00015	e8 00 00 00 00	 call	 @__security_check_cookie@4
  0001a	b8 00 00 00 00	 mov	 eax, OFFSET __ehfuncinfo$?SetTeam@ioUroborusWeapon@@UAEXPAVioPlayStage@@W4TeamType@@@Z
  0001f	e9 00 00 00 00	 jmp	 ___CxxFrameHandler3
text$x	ENDS
?SetTeam@ioUroborusWeapon@@UAEXPAVioPlayStage@@W4TeamType@@@Z ENDP ; ioUroborusWeapon::SetTeam
PUBLIC	?OnWaiting@ioUroborusWeapon@@IAEXMPAVioPlayStage@@@Z ; ioUroborusWeapon::OnWaiting
; Function compile flags: /Ogsp
;	COMDAT ?OnWaiting@ioUroborusWeapon@@IAEXMPAVioPlayStage@@@Z
_TEXT	SEGMENT
_fTimePerSec$ = 8					; size = 4
_pStage$ = 12						; size = 4
?OnWaiting@ioUroborusWeapon@@IAEXMPAVioPlayStage@@@Z PROC ; ioUroborusWeapon::OnWaiting, COMDAT
; _this$ = ecx

; 276  : {

  00000	55		 push	 ebp
  00001	8b ec		 mov	 ebp, esp
  00003	56		 push	 esi
  00004	8b f1		 mov	 esi, ecx

; 277  : 	if( !CheckOwnerState() )

  00006	e8 00 00 00 00	 call	 ?CheckOwnerState@ioUroborusWeapon@@IAE_NXZ ; ioUroborusWeapon::CheckOwnerState
  0000b	84 c0		 test	 al, al
  0000d	75 0e		 jne	 SHORT $LN2@OnWaiting

; 278  : 	{
; 279  : 		SetEndState( pStage, false );

  0000f	6a 00		 push	 0
  00011	ff 75 0c	 push	 DWORD PTR _pStage$[ebp]
  00014	8b ce		 mov	 ecx, esi
  00016	e8 00 00 00 00	 call	 ?SetEndState@ioUroborusWeapon@@QAEXPAVioPlayStage@@_N@Z ; ioUroborusWeapon::SetEndState

; 280  : 		return;

  0001b	eb 3a		 jmp	 SHORT $LN3@OnWaiting
$LN2@OnWaiting:
  0001d	57		 push	 edi

; 281  : 	}
; 282  : 
; 283  : 	DWORD dwCurTime = FRAMEGETTIME();

  0001e	ff 15 00 00 00
	00		 call	 DWORD PTR __imp_?GetSingleton@ioFrameTimer@@SAAAV1@XZ
  00024	8b c8		 mov	 ecx, eax
  00026	ff 15 00 00 00
	00		 call	 DWORD PTR __imp_?GetLoopSec@ioFrameTimer@@QBEKXZ

; 284  : 	if( !CheckOwnerUroborusState() && (m_dwUroborusWaitEndTime < dwCurTime) )

  0002c	8b ce		 mov	 ecx, esi
  0002e	8b f8		 mov	 edi, eax
  00030	e8 00 00 00 00	 call	 ?CheckOwnerUroborusState@ioUroborusWeapon@@IAE_NXZ ; ioUroborusWeapon::CheckOwnerUroborusState
  00035	84 c0		 test	 al, al
  00037	75 16		 jne	 SHORT $LN1@OnWaiting
  00039	39 be c0 09 00
	00		 cmp	 DWORD PTR [esi+2496], edi
  0003f	73 0e		 jae	 SHORT $LN1@OnWaiting

; 285  : 	{
; 286  : 		SetEndState( pStage, false );

  00041	6a 00		 push	 0
  00043	ff 75 0c	 push	 DWORD PTR _pStage$[ebp]
  00046	8b ce		 mov	 ecx, esi
  00048	e8 00 00 00 00	 call	 ?SetEndState@ioUroborusWeapon@@QAEXPAVioPlayStage@@_N@Z ; ioUroborusWeapon::SetEndState

; 287  : 		return;

  0004d	eb 07		 jmp	 SHORT $LN5@OnWaiting
$LN1@OnWaiting:

; 288  : 	}
; 289  : 
; 290  : 	ProcessGuidArrow();

  0004f	8b ce		 mov	 ecx, esi
  00051	e8 00 00 00 00	 call	 ?ProcessGuidArrow@ioUroborusWeapon@@IAEXXZ ; ioUroborusWeapon::ProcessGuidArrow
$LN5@OnWaiting:
  00056	5f		 pop	 edi
$LN3@OnWaiting:
  00057	5e		 pop	 esi

; 291  : }

  00058	5d		 pop	 ebp
  00059	c2 08 00	 ret	 8
?OnWaiting@ioUroborusWeapon@@IAEXMPAVioPlayStage@@@Z ENDP ; ioUroborusWeapon::OnWaiting
_TEXT	ENDS
PUBLIC	__real@00000000
PUBLIC	?GetMoveSpeed@ioUroborusWeapon@@IAEMXZ		; ioUroborusWeapon::GetMoveSpeed
;	COMDAT __real@00000000
; File d:\lost saga for developer\youtube\tutorial\source\src\lsclient\encryptvalue.h
CONST	SEGMENT
__real@00000000 DD 000000000r			; 0
; Function compile flags: /Ogsp
; File d:\lost saga for developer\youtube\tutorial\source\src\lsclient\iouroborusweapon.cpp
CONST	ENDS
;	COMDAT ?GetMoveSpeed@ioUroborusWeapon@@IAEMXZ
_TEXT	SEGMENT
tv201 = -8						; size = 4
_value$594321 = -8					; size = 4
_value$594325 = -4					; size = 4
_value$594316 = -4					; size = 4
_value$594308 = -4					; size = 4
_value$594312 = -4					; size = 4
$T594303 = -4						; size = 4
?GetMoveSpeed@ioUroborusWeapon@@IAEMXZ PROC		; ioUroborusWeapon::GetMoveSpeed, COMDAT
; _this$ = ecx

; 323  : {

  00000	55		 push	 ebp
  00001	8b ec		 mov	 ebp, esp
  00003	51		 push	 ecx
  00004	51		 push	 ecx
  00005	53		 push	 ebx
  00006	56		 push	 esi
  00007	57		 push	 edi
  00008	8b f1		 mov	 esi, ecx

; 324  : 	DWORD dwCurTime = FRAMEGETTIME();

  0000a	ff 15 00 00 00
	00		 call	 DWORD PTR __imp_?GetSingleton@ioFrameTimer@@SAAAV1@XZ
  00010	8b c8		 mov	 ecx, eax
  00012	ff 15 00 00 00
	00		 call	 DWORD PTR __imp_?GetLoopSec@ioFrameTimer@@QBEKXZ
  00018	8b d8		 mov	 ebx, eax

; 325  : 	if( m_dwMoveDelayTime > 0 && m_dwCreatedTime+m_dwMoveDelayTime >= dwCurTime )

  0001a	8d 45 fc	 lea	 eax, DWORD PTR _value$594308[ebp]
  0001d	50		 push	 eax
  0001e	8d 8e 28 07 00
	00		 lea	 ecx, DWORD PTR [esi+1832]
  00024	e8 00 00 00 00	 call	 ?DecryptValueToPool@?$CEncrypt@K@@QAEXPAK@Z ; CEncrypt<unsigned long>::DecryptValueToPool
  00029	83 7d fc 00	 cmp	 DWORD PTR _value$594308[ebp], 0
  0002d	76 20		 jbe	 SHORT $LN2@GetMoveSpe
  0002f	8d 45 fc	 lea	 eax, DWORD PTR _value$594312[ebp]
  00032	50		 push	 eax
  00033	8d 8e 28 07 00
	00		 lea	 ecx, DWORD PTR [esi+1832]
  00039	e8 00 00 00 00	 call	 ?DecryptValueToPool@?$CEncrypt@K@@QAEXPAK@Z ; CEncrypt<unsigned long>::DecryptValueToPool
  0003e	8b 86 d4 04 00
	00		 mov	 eax, DWORD PTR [esi+1236]
  00044	03 45 fc	 add	 eax, DWORD PTR _value$594312[ebp]
  00047	3b c3		 cmp	 eax, ebx
  00049	72 04		 jb	 SHORT $LN2@GetMoveSpe

; 326  : 		return 0.0f;

  0004b	d9 ee		 fldz
  0004d	eb 6b		 jmp	 SHORT $LN3@GetMoveSpe
$LN2@GetMoveSpe:

; 327  : 
; 328  : 	if( m_fCurMoveSpeed == 0.0f )

  0004f	0f 57 c0	 xorps	 xmm0, xmm0
  00052	8d 45 fc	 lea	 eax, DWORD PTR $T594303[ebp]
  00055	50		 push	 eax
  00056	8d 8e 20 09 00
	00		 lea	 ecx, DWORD PTR [esi+2336]
  0005c	f3 0f 11 45 fc	 movss	 DWORD PTR $T594303[ebp], xmm0
  00061	e8 00 00 00 00	 call	 ??8?$CEncrypt@M@@QAE_NABM@Z ; CEncrypt<float>::operator==
  00066	84 c0		 test	 al, al
  00068	74 26		 je	 SHORT $LN9@GetMoveSpe

; 329  : 		m_fCurMoveSpeed = GetAttribute()->m_fMoveSpeed;

  0006a	8b 06		 mov	 eax, DWORD PTR [esi]
  0006c	8b ce		 mov	 ecx, esi
  0006e	ff 90 3c 01 00
	00		 call	 DWORD PTR [eax+316]
  00074	f3 0f 10 80 98
	01 00 00	 movss	 xmm0, DWORD PTR [eax+408]
  0007c	8d 45 fc	 lea	 eax, DWORD PTR _value$594316[ebp]
  0007f	50		 push	 eax
  00080	8d 8e 20 09 00
	00		 lea	 ecx, DWORD PTR [esi+2336]
  00086	f3 0f 11 45 fc	 movss	 DWORD PTR _value$594316[ebp], xmm0
  0008b	e8 00 00 00 00	 call	 ?EncryptValueToPool@?$CEncrypt@M@@AAEXPBD@Z ; CEncrypt<float>::EncryptValueToPool
$LN9@GetMoveSpe:

; 330  : 
; 331  : 	return m_fCurMoveSpeed * m_fOwnerChargeSpeedRate;

  00090	8d 45 f8	 lea	 eax, DWORD PTR _value$594321[ebp]
  00093	50		 push	 eax
  00094	8d 8e 20 01 00
	00		 lea	 ecx, DWORD PTR [esi+288]
  0009a	e8 00 00 00 00	 call	 ?DecryptValueToPool@?$CEncrypt@M@@QAEXPAM@Z ; CEncrypt<float>::DecryptValueToPool
  0009f	8d 45 fc	 lea	 eax, DWORD PTR _value$594325[ebp]
  000a2	50		 push	 eax
  000a3	8d 8e 20 09 00
	00		 lea	 ecx, DWORD PTR [esi+2336]
  000a9	e8 00 00 00 00	 call	 ?DecryptValueToPool@?$CEncrypt@M@@QAEXPAM@Z ; CEncrypt<float>::DecryptValueToPool
  000ae	d9 45 fc	 fld	 DWORD PTR _value$594325[ebp]
  000b1	d8 4d f8	 fmul	 DWORD PTR _value$594321[ebp]
  000b4	d9 5d f8	 fstp	 DWORD PTR tv201[ebp]
  000b7	d9 45 f8	 fld	 DWORD PTR tv201[ebp]
$LN3@GetMoveSpe:
  000ba	5f		 pop	 edi
  000bb	5e		 pop	 esi
  000bc	5b		 pop	 ebx

; 332  : }

  000bd	c9		 leave
  000be	c3		 ret	 0
?GetMoveSpeed@ioUroborusWeapon@@IAEMXZ ENDP		; ioUroborusWeapon::GetMoveSpeed
_TEXT	ENDS
PUBLIC	?GetMaxRange@ioUroborusWeapon@@IAEMXZ		; ioUroborusWeapon::GetMaxRange
; Function compile flags: /Ogsp
;	COMDAT ?GetMaxRange@ioUroborusWeapon@@IAEMXZ
_TEXT	SEGMENT
tv136 = -4						; size = 4
_value$594331 = -4					; size = 4
?GetMaxRange@ioUroborusWeapon@@IAEMXZ PROC		; ioUroborusWeapon::GetMaxRange, COMDAT
; _this$ = ecx

; 335  : {

  00000	55		 push	 ebp
  00001	8b ec		 mov	 ebp, esp
  00003	51		 push	 ecx
  00004	56		 push	 esi
  00005	8b f1		 mov	 esi, ecx

; 336  : 	return GetAttribute()->m_fMoveRange * m_fOwnerChargeRangeRate;

  00007	8d 45 fc	 lea	 eax, DWORD PTR _value$594331[ebp]
  0000a	50		 push	 eax
  0000b	8d 8e f0 00 00
	00		 lea	 ecx, DWORD PTR [esi+240]
  00011	e8 00 00 00 00	 call	 ?DecryptValueToPool@?$CEncrypt@M@@QAEXPAM@Z ; CEncrypt<float>::DecryptValueToPool
  00016	8b 06		 mov	 eax, DWORD PTR [esi]
  00018	8b ce		 mov	 ecx, esi
  0001a	ff 90 3c 01 00
	00		 call	 DWORD PTR [eax+316]
  00020	d9 80 9c 01 00
	00		 fld	 DWORD PTR [eax+412]
  00026	d8 4d fc	 fmul	 DWORD PTR _value$594331[ebp]
  00029	5e		 pop	 esi
  0002a	d9 5d fc	 fstp	 DWORD PTR tv136[ebp]
  0002d	d9 45 fc	 fld	 DWORD PTR tv136[ebp]

; 337  : }

  00030	c9		 leave
  00031	c3		 ret	 0
?GetMaxRange@ioUroborusWeapon@@IAEMXZ ENDP		; ioUroborusWeapon::GetMaxRange
_TEXT	ENDS
PUBLIC	__real@4f800000
PUBLIC	__$ArrayPad$
EXTRN	__imp_?SetNull@ioOrientBox@@QAEXXZ:PROC
EXTRN	__imp_?Transform@ioOrientBox@@QAEXABUD3DXVECTOR3@@0ABUD3DXQUATERNION@@@Z:PROC
EXTRN	__imp_?IsNull@ioOrientBox@@QBE_NXZ:PROC
EXTRN	__imp_?SetExtents@ioOrientBox@@QAEXHM@Z:PROC
EXTRN	__imp_?GetExtents@ioOrientBox@@QBEMH@Z:PROC
;	COMDAT __real@4f800000
; File c:\program files (x86)\microsoft directx sdk (june 2010)\include\d3dx9math.inl
CONST	SEGMENT
__real@4f800000 DD 04f800000r			; 4.29497e+009
; Function compile flags: /Ogsp
; File d:\lost saga for developer\youtube\tutorial\source\src\lsclient\iouroborusweapon.cpp
CONST	ENDS
;	COMDAT ?UpdateWorldAttackBox@ioUroborusWeapon@@MAEXM_N@Z
_TEXT	SEGMENT
tv397 = -32						; size = 4
_value$594356 = -32					; size = 4
tv417 = -28						; size = 4
tv399 = -28						; size = 4
_value$594361 = -24					; size = 4
$T594344 = -24						; size = 4
_fMapCollisionRate$ = -24				; size = 4
tv411 = -20						; size = 4
tv405 = -20						; size = 4
_value$594366 = -20					; size = 4
_value$594352 = -20					; size = 4
_vScale$590632 = -16					; size = 12
__$ArrayPad$ = -4					; size = 4
_fTimePerSec$ = 8					; size = 4
_bSetNull$ = 12						; size = 1
?UpdateWorldAttackBox@ioUroborusWeapon@@MAEXM_N@Z PROC	; ioUroborusWeapon::UpdateWorldAttackBox, COMDAT
; _this$ = ecx

; 340  : {

  00000	55		 push	 ebp
  00001	8b ec		 mov	 ebp, esp
  00003	83 ec 20	 sub	 esp, 32			; 00000020H
  00006	a1 00 00 00 00	 mov	 eax, DWORD PTR ___security_cookie
  0000b	33 c5		 xor	 eax, ebp
  0000d	89 45 fc	 mov	 DWORD PTR __$ArrayPad$[ebp], eax
  00010	53		 push	 ebx
  00011	8b d9		 mov	 ebx, ecx

; 341  : 	if( !IsLive() || bSetNull )

  00013	80 bb 82 05 00
	00 00		 cmp	 BYTE PTR [ebx+1410], 0
  0001a	56		 push	 esi
  0001b	57		 push	 edi
  0001c	0f 84 b7 01 00
	00		 je	 $LN4@UpdateWorl
  00022	80 7d 0c 00	 cmp	 BYTE PTR _bSetNull$[ebp], 0
  00026	0f 85 ad 01 00
	00		 jne	 $LN4@UpdateWorl

; 345  : 		return;
; 346  : 	}
; 347  : 
; 348  : 	m_WorldAttackBox = GetLocalAttackBox();

  0002c	8b 03		 mov	 eax, DWORD PTR [ebx]
  0002e	ff 90 00 01 00
	00		 call	 DWORD PTR [eax+256]
  00034	6a 11		 push	 17			; 00000011H
  00036	59		 pop	 ecx
  00037	8b f0		 mov	 esi, eax
  00039	8d bb e8 04 00
	00		 lea	 edi, DWORD PTR [ebx+1256]
  0003f	f3 a5		 rep movsd

; 349  : 	m_WorldAttackBoxForMap = m_WorldAttackBox;

  00041	6a 11		 push	 17			; 00000011H
  00043	8b f0		 mov	 esi, eax

; 350  : 
; 351  : 	float fMapCollisionRate = GetAttribute()->m_fMapCollisionBoxRate;

  00045	8b 03		 mov	 eax, DWORD PTR [ebx]
  00047	59		 pop	 ecx
  00048	8d bb 2c 05 00
	00		 lea	 edi, DWORD PTR [ebx+1324]
  0004e	f3 a5		 rep movsd
  00050	8b cb		 mov	 ecx, ebx
  00052	ff 90 3c 01 00
	00		 call	 DWORD PTR [eax+316]

; 352  : 	m_WorldAttackBoxForMap.SetExtents( 0, m_WorldAttackBox.GetExtents(0)*fMapCollisionRate );

  00058	6a 00		 push	 0
  0005a	d9 80 a8 01 00
	00		 fld	 DWORD PTR [eax+424]
  00060	8d 8b e8 04 00
	00		 lea	 ecx, DWORD PTR [ebx+1256]
  00066	d9 5d e8	 fstp	 DWORD PTR _fMapCollisionRate$[ebp]
  00069	ff 15 00 00 00
	00		 call	 DWORD PTR __imp_?GetExtents@ioOrientBox@@QBEMH@Z
  0006f	d8 4d e8	 fmul	 DWORD PTR _fMapCollisionRate$[ebp]
  00072	8b 35 00 00 00
	00		 mov	 esi, DWORD PTR __imp_?SetExtents@ioOrientBox@@QAEXHM@Z
  00078	51		 push	 ecx
  00079	8d 8b 2c 05 00
	00		 lea	 ecx, DWORD PTR [ebx+1324]
  0007f	d9 5d e4	 fstp	 DWORD PTR tv417[ebp]
  00082	d9 45 e4	 fld	 DWORD PTR tv417[ebp]
  00085	89 4d e4	 mov	 DWORD PTR tv399[ebp], ecx
  00088	d9 1c 24	 fstp	 DWORD PTR [esp]
  0008b	6a 00		 push	 0
  0008d	ff d6		 call	 esi

; 353  : 	m_WorldAttackBoxForMap.SetExtents( 1, m_WorldAttackBox.GetExtents(1)*fMapCollisionRate );

  0008f	6a 01		 push	 1
  00091	8d 8b e8 04 00
	00		 lea	 ecx, DWORD PTR [ebx+1256]
  00097	ff 15 00 00 00
	00		 call	 DWORD PTR __imp_?GetExtents@ioOrientBox@@QBEMH@Z
  0009d	d8 4d e8	 fmul	 DWORD PTR _fMapCollisionRate$[ebp]
  000a0	51		 push	 ecx
  000a1	8b 4d e4	 mov	 ecx, DWORD PTR tv399[ebp]
  000a4	d9 5d ec	 fstp	 DWORD PTR tv411[ebp]
  000a7	d9 45 ec	 fld	 DWORD PTR tv411[ebp]
  000aa	d9 1c 24	 fstp	 DWORD PTR [esp]
  000ad	6a 01		 push	 1
  000af	ff d6		 call	 esi

; 354  : 	m_WorldAttackBoxForMap.SetExtents( 2, m_WorldAttackBox.GetExtents(2)*fMapCollisionRate );

  000b1	6a 02		 push	 2
  000b3	8d 8b e8 04 00
	00		 lea	 ecx, DWORD PTR [ebx+1256]
  000b9	ff 15 00 00 00
	00		 call	 DWORD PTR __imp_?GetExtents@ioOrientBox@@QBEMH@Z
  000bf	d8 4d e8	 fmul	 DWORD PTR _fMapCollisionRate$[ebp]
  000c2	51		 push	 ecx
  000c3	8b 4d e4	 mov	 ecx, DWORD PTR tv399[ebp]
  000c6	d9 5d ec	 fstp	 DWORD PTR tv405[ebp]
  000c9	d9 45 ec	 fld	 DWORD PTR tv405[ebp]
  000cc	d9 1c 24	 fstp	 DWORD PTR [esp]
  000cf	6a 02		 push	 2
  000d1	ff d6		 call	 esi

; 355  : 
; 356  : 	if( !m_WorldAttackBox.IsNull() )

  000d3	8d 8b e8 04 00
	00		 lea	 ecx, DWORD PTR [ebx+1256]
  000d9	ff 15 00 00 00
	00		 call	 DWORD PTR __imp_?IsNull@ioOrientBox@@QBE_NXZ
  000df	84 c0		 test	 al, al
  000e1	0f 85 08 01 00
	00		 jne	 $LN1@UpdateWorl

; 357  : 	{
; 358  : 		if( m_fOwnerChargeScaleRate > FLOAT1 )

  000e7	b8 01 00 00 00	 mov	 eax, 1
  000ec	89 45 e8	 mov	 DWORD PTR $T594344[ebp], eax
  000ef	8d 45 ec	 lea	 eax, DWORD PTR _value$594352[ebp]
  000f2	50		 push	 eax
  000f3	8d 8b b0 01 00
	00		 lea	 ecx, DWORD PTR [ebx+432]
  000f9	e8 00 00 00 00	 call	 ?DecryptValueToPool@?$CEncrypt@M@@QAEXPAM@Z ; CEncrypt<float>::DecryptValueToPool
  000fe	d9 45 ec	 fld	 DWORD PTR _value$594352[ebp]
  00101	8b 45 e8	 mov	 eax, DWORD PTR $T594344[ebp]
  00104	db 45 e8	 fild	 DWORD PTR $T594344[ebp]
  00107	85 c0		 test	 eax, eax
  00109	79 06		 jns	 SHORT $LN25@UpdateWorl
  0010b	d8 05 00 00 00
	00		 fadd	 DWORD PTR __real@4f800000
$LN25@UpdateWorl:
  00111	d9 c9		 fxch	 ST(1)
  00113	df f1		 fcomip	 ST(1)
  00115	dd d8		 fstp	 ST(0)
  00117	0f 86 88 00 00
	00		 jbe	 $LN2@UpdateWorl

; 359  : 		{
; 360  : 			D3DXVECTOR3 vScale( m_fOwnerChargeScaleRate, m_fOwnerChargeScaleRate, m_fOwnerChargeScaleRate );

  0011d	8d 45 e0	 lea	 eax, DWORD PTR _value$594356[ebp]
  00120	50		 push	 eax
  00121	8d 8b b0 01 00
	00		 lea	 ecx, DWORD PTR [ebx+432]
  00127	e8 00 00 00 00	 call	 ?DecryptValueToPool@?$CEncrypt@M@@QAEXPAM@Z ; CEncrypt<float>::DecryptValueToPool
  0012c	8d 45 e8	 lea	 eax, DWORD PTR _value$594361[ebp]
  0012f	50		 push	 eax
  00130	8d 8b b0 01 00
	00		 lea	 ecx, DWORD PTR [ebx+432]
  00136	e8 00 00 00 00	 call	 ?DecryptValueToPool@?$CEncrypt@M@@QAEXPAM@Z ; CEncrypt<float>::DecryptValueToPool
  0013b	8d 45 ec	 lea	 eax, DWORD PTR _value$594366[ebp]
  0013e	50		 push	 eax
  0013f	8d 8b b0 01 00
	00		 lea	 ecx, DWORD PTR [ebx+432]
  00145	e8 00 00 00 00	 call	 ?DecryptValueToPool@?$CEncrypt@M@@QAEXPAM@Z ; CEncrypt<float>::DecryptValueToPool
  0014a	f3 0f 10 45 ec	 movss	 xmm0, DWORD PTR _value$594366[ebp]
  0014f	f3 0f 11 45 f0	 movss	 DWORD PTR _vScale$590632[ebp], xmm0
  00154	f3 0f 10 45 e8	 movss	 xmm0, DWORD PTR _value$594361[ebp]
  00159	f3 0f 11 45 f4	 movss	 DWORD PTR _vScale$590632[ebp+4], xmm0
  0015e	f3 0f 10 45 e0	 movss	 xmm0, DWORD PTR _value$594356[ebp]

; 361  : 			m_WorldAttackBox.Transform( GetPosition(), vScale, GetOrientation() );

  00163	8b cb		 mov	 ecx, ebx
  00165	f3 0f 11 45 f8	 movss	 DWORD PTR _vScale$590632[ebp+8], xmm0
  0016a	e8 00 00 00 00	 call	 ?GetOrientation@ioWeapon@@QBEABUD3DXQUATERNION@@XZ ; ioWeapon::GetOrientation
  0016f	50		 push	 eax
  00170	8d 45 f0	 lea	 eax, DWORD PTR _vScale$590632[ebp]
  00173	50		 push	 eax
  00174	8b 03		 mov	 eax, DWORD PTR [ebx]
  00176	8b cb		 mov	 ecx, ebx
  00178	ff 50 70	 call	 DWORD PTR [eax+112]
  0017b	8b 35 00 00 00
	00		 mov	 esi, DWORD PTR __imp_?Transform@ioOrientBox@@QAEXABUD3DXVECTOR3@@0ABUD3DXQUATERNION@@@Z
  00181	50		 push	 eax
  00182	8d 8b e8 04 00
	00		 lea	 ecx, DWORD PTR [ebx+1256]
  00188	ff d6		 call	 esi

; 362  : 			m_WorldAttackBoxForMap.Transform( GetPosition(), vScale, GetOrientation() );

  0018a	8b cb		 mov	 ecx, ebx
  0018c	e8 00 00 00 00	 call	 ?GetOrientation@ioWeapon@@QBEABUD3DXQUATERNION@@XZ ; ioWeapon::GetOrientation
  00191	50		 push	 eax
  00192	8d 45 f0	 lea	 eax, DWORD PTR _vScale$590632[ebp]
  00195	50		 push	 eax
$LN26@UpdateWorl:
  00196	8b 03		 mov	 eax, DWORD PTR [ebx]
  00198	8b cb		 mov	 ecx, ebx
  0019a	ff 50 70	 call	 DWORD PTR [eax+112]
  0019d	8b 4d e4	 mov	 ecx, DWORD PTR tv399[ebp]
  001a0	50		 push	 eax
  001a1	ff d6		 call	 esi

; 363  : 		}
; 364  : 		else

  001a3	eb 4a		 jmp	 SHORT $LN1@UpdateWorl
$LN2@UpdateWorl:

; 365  : 		{
; 366  : 			m_WorldAttackBox.Transform( GetPosition(), ioMath::UNIT_ALL, GetOrientation() );

  001a5	8b cb		 mov	 ecx, ebx
  001a7	e8 00 00 00 00	 call	 ?GetOrientation@ioWeapon@@QBEABUD3DXQUATERNION@@XZ ; ioWeapon::GetOrientation
  001ac	50		 push	 eax
  001ad	ff 35 00 00 00
	00		 push	 DWORD PTR __imp_?UNIT_ALL@ioMath@@2UD3DXVECTOR3@@A
  001b3	8b 03		 mov	 eax, DWORD PTR [ebx]
  001b5	8b cb		 mov	 ecx, ebx
  001b7	ff 50 70	 call	 DWORD PTR [eax+112]
  001ba	8b 35 00 00 00
	00		 mov	 esi, DWORD PTR __imp_?Transform@ioOrientBox@@QAEXABUD3DXVECTOR3@@0ABUD3DXQUATERNION@@@Z
  001c0	50		 push	 eax
  001c1	8d 8b e8 04 00
	00		 lea	 ecx, DWORD PTR [ebx+1256]
  001c7	ff d6		 call	 esi

; 367  : 			m_WorldAttackBoxForMap.Transform( GetPosition(), ioMath::UNIT_ALL, GetOrientation() );

  001c9	8b cb		 mov	 ecx, ebx
  001cb	e8 00 00 00 00	 call	 ?GetOrientation@ioWeapon@@QBEABUD3DXQUATERNION@@XZ ; ioWeapon::GetOrientation
  001d0	50		 push	 eax
  001d1	ff 35 00 00 00
	00		 push	 DWORD PTR __imp_?UNIT_ALL@ioMath@@2UD3DXVECTOR3@@A
  001d7	eb bd		 jmp	 SHORT $LN26@UpdateWorl
$LN4@UpdateWorl:

; 342  : 	{
; 343  : 		m_WorldAttackBox.SetNull();

  001d9	8b 35 00 00 00
	00		 mov	 esi, DWORD PTR __imp_?SetNull@ioOrientBox@@QAEXXZ
  001df	8d 8b e8 04 00
	00		 lea	 ecx, DWORD PTR [ebx+1256]
  001e5	ff d6		 call	 esi

; 344  : 		m_WorldAttackBoxForMap.SetNull();

  001e7	8d 8b 2c 05 00
	00		 lea	 ecx, DWORD PTR [ebx+1324]
  001ed	ff d6		 call	 esi
$LN1@UpdateWorl:

; 368  : 		}
; 369  : 	}
; 370  : }

  001ef	8b 4d fc	 mov	 ecx, DWORD PTR __$ArrayPad$[ebp]
  001f2	5f		 pop	 edi
  001f3	5e		 pop	 esi
  001f4	33 cd		 xor	 ecx, ebp
  001f6	5b		 pop	 ebx
  001f7	e8 00 00 00 00	 call	 @__security_check_cookie@4
  001fc	c9		 leave
  001fd	c2 08 00	 ret	 8
?UpdateWorldAttackBox@ioUroborusWeapon@@MAEXM_N@Z ENDP	; ioUroborusWeapon::UpdateWorldAttackBox
_TEXT	ENDS
PUBLIC	__$ArrayPad$
PUBLIC	?SetWaitState@ioUroborusWeapon@@QAEX_N@Z	; ioUroborusWeapon::SetWaitState
;	COMDAT xdata$x
; File d:\lost saga for developer\youtube\tutorial\source\src\lsclient\ioweapon.h
xdata$x	SEGMENT
__unwindtable$?SetWaitState@ioUroborusWeapon@@QAEX_N@Z DD 0ffffffffH
	DD	FLAT:__unwindfunclet$?SetWaitState@ioUroborusWeapon@@QAEX_N@Z$0
__ehfuncinfo$?SetWaitState@ioUroborusWeapon@@QAEX_N@Z DD 019930522H
	DD	01H
	DD	FLAT:__unwindtable$?SetWaitState@ioUroborusWeapon@@QAEX_N@Z
	DD	2 DUP(00H)
	DD	2 DUP(00H)
	DD	00H
	DD	01H
; Function compile flags: /Ogsp
; File d:\lost saga for developer\youtube\tutorial\source\src\lsclient\iouroborusweapon.cpp
xdata$x	ENDS
;	COMDAT ?SetWaitState@ioUroborusWeapon@@QAEX_N@Z
_TEXT	SEGMENT
_qtRot$590655 = -32828					; size = 16
_value$594384 = -32812					; size = 4
_pEndEffect$590653 = -32812				; size = 4
_kPacket$590657 = -32808				; size = 32792
__$ArrayPad$ = -16					; size = 4
__$EHRec$ = -12						; size = 12
_bSendNet$ = 8						; size = 1
?SetWaitState@ioUroborusWeapon@@QAEX_N@Z PROC		; ioUroborusWeapon::SetWaitState, COMDAT
; _this$ = ecx

; 389  : {

  00000	55		 push	 ebp
  00001	8b ec		 mov	 ebp, esp
  00003	6a ff		 push	 -1
  00005	68 00 00 00 00	 push	 __ehhandler$?SetWaitState@ioUroborusWeapon@@QAEX_N@Z
  0000a	64 a1 00 00 00
	00		 mov	 eax, DWORD PTR fs:0
  00010	50		 push	 eax
  00011	b8 30 80 00 00	 mov	 eax, 32816		; 00008030H
  00016	e8 00 00 00 00	 call	 __chkstk
  0001b	a1 00 00 00 00	 mov	 eax, DWORD PTR ___security_cookie
  00020	33 c5		 xor	 eax, ebp
  00022	89 45 f0	 mov	 DWORD PTR __$ArrayPad$[ebp], eax
  00025	53		 push	 ebx
  00026	56		 push	 esi
  00027	57		 push	 edi
  00028	50		 push	 eax
  00029	8d 45 f4	 lea	 eax, DWORD PTR __$EHRec$[ebp]
  0002c	64 a3 00 00 00
	00		 mov	 DWORD PTR fs:0, eax

; 390  : 	if( m_UroborusState == US_WAIT )

  00032	33 c0		 xor	 eax, eax
  00034	8b d9		 mov	 ebx, ecx
  00036	40		 inc	 eax
  00037	39 83 94 08 00
	00		 cmp	 DWORD PTR [ebx+2196], eax
  0003d	0f 84 08 01 00
	00		 je	 $LN1@SetWaitSta

; 391  : 		return;
; 392  : 
; 393  : 	m_UroborusState = US_WAIT;

  00043	89 83 94 08 00
	00		 mov	 DWORD PTR [ebx+2196], eax

; 394  : 
; 395  : 	m_dwUroborusWaitEndTime = FRAMEGETTIME() + m_dwUroborusWaitTime;

  00049	8d 85 d4 7f ff
	ff		 lea	 eax, DWORD PTR _value$594384[ebp]
  0004f	50		 push	 eax
  00050	8d 8b 90 09 00
	00		 lea	 ecx, DWORD PTR [ebx+2448]
  00056	e8 00 00 00 00	 call	 ?DecryptValueToPool@?$CEncrypt@K@@QAEXPAK@Z ; CEncrypt<unsigned long>::DecryptValueToPool
  0005b	ff 15 00 00 00
	00		 call	 DWORD PTR __imp_?GetSingleton@ioFrameTimer@@SAAAV1@XZ
  00061	8b c8		 mov	 ecx, eax
  00063	ff 15 00 00 00
	00		 call	 DWORD PTR __imp_?GetLoopSec@ioFrameTimer@@QBEKXZ
  00069	03 85 d4 7f ff
	ff		 add	 eax, DWORD PTR _value$594384[ebp]

; 396  : 
; 397  : 	ioBaseChar *pOwner = GetOwner();

  0006f	8b cb		 mov	 ecx, ebx
  00071	89 83 c0 09 00
	00		 mov	 DWORD PTR [ebx+2496], eax
  00077	e8 00 00 00 00	 call	 ?GetOwner@ioWeapon@@QBEPAVioBaseChar@@XZ ; ioWeapon::GetOwner
  0007c	8b f0		 mov	 esi, eax

; 398  : 
; 399  : 	if( pOwner && !m_WaitEffect.IsEmpty() )

  0007e	85 f6		 test	 esi, esi
  00080	74 5f		 je	 SHORT $LN2@SetWaitSta
  00082	8d bb 80 09 00
	00		 lea	 edi, DWORD PTR [ebx+2432]
  00088	8b cf		 mov	 ecx, edi
  0008a	ff 15 00 00 00
	00		 call	 DWORD PTR __imp_?IsEmpty@ioHashString@@QBE_NXZ
  00090	84 c0		 test	 al, al
  00092	75 4d		 jne	 SHORT $LN2@SetWaitSta

; 400  : 	{
; 401  : 		ioMapEffect *pEndEffect = pOwner->GetCreator()->CreateMapEffect( m_WaitEffect, GetPosition(), GetScale() );

  00094	8b b6 44 03 00
	00		 mov	 esi, DWORD PTR [esi+836]
  0009a	8b cb		 mov	 ecx, ebx
  0009c	e8 00 00 00 00	 call	 ?GetScale@ioWeapon@@QBEABUD3DXVECTOR3@@XZ ; ioWeapon::GetScale
  000a1	50		 push	 eax
  000a2	8b 03		 mov	 eax, DWORD PTR [ebx]
  000a4	8b cb		 mov	 ecx, ebx
  000a6	ff 50 70	 call	 DWORD PTR [eax+112]
  000a9	50		 push	 eax
  000aa	57		 push	 edi
  000ab	8b ce		 mov	 ecx, esi
  000ad	e8 00 00 00 00	 call	 ?CreateMapEffect@ioPlayStage@@QAEPAVioMapEffect@@ABVioHashString@@ABUD3DXVECTOR3@@1@Z ; ioPlayStage::CreateMapEffect
  000b2	89 85 d4 7f ff
	ff		 mov	 DWORD PTR _pEndEffect$590653[ebp], eax

; 402  : 		if( pEndEffect )

  000b8	85 c0		 test	 eax, eax
  000ba	74 25		 je	 SHORT $LN2@SetWaitSta

; 403  : 		{
; 404  : 			D3DXQUATERNION qtRot = GetOrientation();

  000bc	8b cb		 mov	 ecx, ebx
  000be	e8 00 00 00 00	 call	 ?GetOrientation@ioWeapon@@QBEABUD3DXQUATERNION@@XZ ; ioWeapon::GetOrientation

; 405  : 			pEndEffect->SetWorldOrientation( qtRot );

  000c3	8b 8d d4 7f ff
	ff		 mov	 ecx, DWORD PTR _pEndEffect$590653[ebp]
  000c9	8b f0		 mov	 esi, eax
  000cb	8d bd c4 7f ff
	ff		 lea	 edi, DWORD PTR _qtRot$590655[ebp]
  000d1	a5		 movsd
  000d2	a5		 movsd
  000d3	a5		 movsd
  000d4	8d 85 c4 7f ff
	ff		 lea	 eax, DWORD PTR _qtRot$590655[ebp]
  000da	50		 push	 eax
  000db	a5		 movsd
  000dc	e8 00 00 00 00	 call	 ?SetWorldOrientation@ioMapEffect@@QAEXABUD3DXQUATERNION@@@Z ; ioMapEffect::SetWorldOrientation
$LN2@SetWaitSta:

; 406  : 		}
; 407  : 	}
; 408  : 
; 409  : 	if( bSendNet )

  000e1	80 7d 08 00	 cmp	 BYTE PTR _bSendNet$[ebp], 0
  000e5	74 64		 je	 SHORT $LN1@SetWaitSta

; 410  : 	{
; 411  : 		SP2Packet kPacket( CUPK_WEAPON_SYNC );

  000e7	68 16 42 00 00	 push	 16918			; 00004216H
  000ec	8d 8d d8 7f ff
	ff		 lea	 ecx, DWORD PTR _kPacket$590657[ebp]
  000f2	e8 00 00 00 00	 call	 ??0SP2Packet@@QAE@K@Z	; SP2Packet::SP2Packet
  000f7	83 65 fc 00	 and	 DWORD PTR __$EHRec$[ebp+8], 0

; 412  : 		kPacket << GetOwnerName();

  000fb	8d 43 10	 lea	 eax, DWORD PTR [ebx+16]
  000fe	50		 push	 eax
  000ff	8d 8d d8 7f ff
	ff		 lea	 ecx, DWORD PTR _kPacket$590657[ebp]
  00105	e8 00 00 00 00	 call	 ??6SP2Packet@@QAEAAV0@ABVioHashString@@@Z ; SP2Packet::operator<<

; 413  : 		kPacket << m_dwWeaponIdx;

  0010a	ff b3 b8 04 00
	00		 push	 DWORD PTR [ebx+1208]
  00110	8d 8d d8 7f ff
	ff		 lea	 ecx, DWORD PTR _kPacket$590657[ebp]
  00116	e8 00 00 00 00	 call	 ??6SP2Packet@@QAEAAV0@K@Z ; SP2Packet::operator<<

; 414  : 		kPacket << m_UroborusState;

  0011b	ff b3 94 08 00
	00		 push	 DWORD PTR [ebx+2196]
  00121	8d 8d d8 7f ff
	ff		 lea	 ecx, DWORD PTR _kPacket$590657[ebp]
  00127	e8 00 00 00 00	 call	 ??6SP2Packet@@QAEAAV0@H@Z ; SP2Packet::operator<<

; 415  : 		P2PNetwork::SendToAllPlayingUser( kPacket );

  0012c	8d 85 d8 7f ff
	ff		 lea	 eax, DWORD PTR _kPacket$590657[ebp]
  00132	6a 00		 push	 0
  00134	50		 push	 eax
  00135	e8 00 00 00 00	 call	 ?SendToAllPlayingUser@P2PNetwork@@YAXAAVSP2Packet@@PAVioBaseChar@@@Z ; P2PNetwork::SendToAllPlayingUser

; 416  : 	}

  0013a	83 4d fc ff	 or	 DWORD PTR __$EHRec$[ebp+8], -1
  0013e	59		 pop	 ecx
  0013f	59		 pop	 ecx
  00140	8d 8d d8 7f ff
	ff		 lea	 ecx, DWORD PTR _kPacket$590657[ebp]
  00146	e8 00 00 00 00	 call	 ??1SP2Packet@@UAE@XZ	; SP2Packet::~SP2Packet
$LN1@SetWaitSta:

; 417  : }

  0014b	8b 4d f4	 mov	 ecx, DWORD PTR __$EHRec$[ebp]
  0014e	64 89 0d 00 00
	00 00		 mov	 DWORD PTR fs:0, ecx
  00155	59		 pop	 ecx
  00156	5f		 pop	 edi
  00157	5e		 pop	 esi
  00158	5b		 pop	 ebx
  00159	8b 4d f0	 mov	 ecx, DWORD PTR __$ArrayPad$[ebp]
  0015c	33 cd		 xor	 ecx, ebp
  0015e	e8 00 00 00 00	 call	 @__security_check_cookie@4
  00163	c9		 leave
  00164	c2 04 00	 ret	 4
_TEXT	ENDS
;	COMDAT text$x
text$x	SEGMENT
__unwindfunclet$?SetWaitState@ioUroborusWeapon@@QAEX_N@Z$0:
  00000	8d 8d d8 7f ff
	ff		 lea	 ecx, DWORD PTR _kPacket$590657[ebp]
  00006	e9 00 00 00 00	 jmp	 ??1SP2Packet@@UAE@XZ	; SP2Packet::~SP2Packet
__ehhandler$?SetWaitState@ioUroborusWeapon@@QAEX_N@Z:
  0000b	8b 54 24 08	 mov	 edx, DWORD PTR [esp+8]
  0000f	8d 42 0c	 lea	 eax, DWORD PTR [edx+12]
  00012	8b 8a c0 7f ff
	ff		 mov	 ecx, DWORD PTR [edx-32832]
  00018	33 c8		 xor	 ecx, eax
  0001a	e8 00 00 00 00	 call	 @__security_check_cookie@4
  0001f	8b 4a fc	 mov	 ecx, DWORD PTR [edx-4]
  00022	33 c8		 xor	 ecx, eax
  00024	e8 00 00 00 00	 call	 @__security_check_cookie@4
  00029	b8 00 00 00 00	 mov	 eax, OFFSET __ehfuncinfo$?SetWaitState@ioUroborusWeapon@@QAEX_N@Z
  0002e	e9 00 00 00 00	 jmp	 ___CxxFrameHandler3
text$x	ENDS
?SetWaitState@ioUroborusWeapon@@QAEX_N@Z ENDP		; ioUroborusWeapon::SetWaitState
PUBLIC	_bMapCollision$GSCopy$
PUBLIC	__$ArrayPad$
EXTRN	?GetWorldAttackBox@ioWeapon@@QBEABVioOrientBox@@_N@Z:PROC ; ioWeapon::GetWorldAttackBox
; Function compile flags: /Ogsp
;	COMDAT ?IsCollision@ioUroborusWeapon@@UAE_NPAVioPlayEntity@@_N@Z
_TEXT	SEGMENT
_pTarget$ = -32						; size = 4
_bMapCollision$GSCopy$ = -28				; size = 1
_bSend$590692 = -24					; size = 1
_bCollision$ = -20					; size = 1
_vColPoint$ = -16					; size = 12
__$ArrayPad$ = -4					; size = 4
_pEntity$ = 8						; size = 4
_bMapCollision$ = 12					; size = 1
?IsCollision@ioUroborusWeapon@@UAE_NPAVioPlayEntity@@_N@Z PROC ; ioUroborusWeapon::IsCollision, COMDAT
; _this$ = ecx

; 454  : {

  00000	55		 push	 ebp
  00001	8b ec		 mov	 ebp, esp
  00003	83 ec 20	 sub	 esp, 32			; 00000020H
  00006	a1 00 00 00 00	 mov	 eax, DWORD PTR ___security_cookie
  0000b	33 c5		 xor	 eax, ebp
  0000d	89 45 fc	 mov	 DWORD PTR __$ArrayPad$[ebp], eax

; 490  : 	}
; 491  : 
; 492  : 	return bCollision;

  00010	8a 45 0c	 mov	 al, BYTE PTR _bMapCollision$[ebp]
  00013	56		 push	 esi
  00014	8b f1		 mov	 esi, ecx
  00016	83 be 94 08 00
	00 00		 cmp	 DWORD PTR [esi+2196], 0
  0001d	57		 push	 edi
  0001e	8b 7d 08	 mov	 edi, DWORD PTR _pEntity$[ebp]
  00021	88 45 e4	 mov	 BYTE PTR _bMapCollision$GSCopy$[ebp], al
  00024	74 07		 je	 SHORT $LN13@IsCollisio
$LN22@IsCollisio:

; 455  : 	if( m_UroborusState != US_MOVE )
; 456  : 		return false;

  00026	32 c0		 xor	 al, al
  00028	e9 e1 00 00 00	 jmp	 $LN14@IsCollisio
$LN13@IsCollisio:

; 457  : 
; 458  : 	if( CheckOwnerUroborusState() )

  0002d	e8 00 00 00 00	 call	 ?CheckOwnerUroborusState@ioUroborusWeapon@@IAE_NXZ ; ioUroborusWeapon::CheckOwnerUroborusState
  00032	84 c0		 test	 al, al

; 459  : 		return false;

  00034	75 f0		 jne	 SHORT $LN22@IsCollisio

; 460  : 
; 461  : 	ioBaseChar *pTarget = ToBaseChar( pEntity );

  00036	57		 push	 edi
  00037	e8 00 00 00 00	 call	 ?ToBaseChar@@YAPAVioBaseChar@@PAVioGameEntity@@@Z ; ToBaseChar
  0003c	59		 pop	 ecx
  0003d	89 45 e0	 mov	 DWORD PTR _pTarget$[ebp], eax

; 462  : 	if( pTarget && !pTarget->IsNeedProcess() )

  00040	85 c0		 test	 eax, eax
  00042	74 6f		 je	 SHORT $LN19@IsCollisio
$LN23@IsCollisio:
  00044	8b 10		 mov	 edx, DWORD PTR [eax]
  00046	8b c8		 mov	 ecx, eax
  00048	ff 92 00 01 00
	00		 call	 DWORD PTR [edx+256]
  0004e	84 c0		 test	 al, al
  00050	74 d4		 je	 SHORT $LN22@IsCollisio

; 468  : 	}
; 469  : 
; 470  : 	bool bCollision = false;
; 471  : 
; 472  : 	D3DXVECTOR3 vColPoint( 0.0f, 0.0f, 0.0f );

  00052	0f 57 c0	 xorps	 xmm0, xmm0
  00055	53		 push	 ebx

; 473  : 	if( pEntity->IsWoundedCollision( GetWorldAttackBox(bMapCollision), &vColPoint ) )

  00056	8b 1f		 mov	 ebx, DWORD PTR [edi]
  00058	8d 45 f0	 lea	 eax, DWORD PTR _vColPoint$[ebp]
  0005b	50		 push	 eax
  0005c	ff 75 e4	 push	 DWORD PTR _bMapCollision$GSCopy$[ebp]
  0005f	8b ce		 mov	 ecx, esi
  00061	c6 45 ec 00	 mov	 BYTE PTR _bCollision$[ebp], 0
  00065	f3 0f 11 45 f0	 movss	 DWORD PTR _vColPoint$[ebp], xmm0
  0006a	f3 0f 11 45 f4	 movss	 DWORD PTR _vColPoint$[ebp+4], xmm0
  0006f	f3 0f 11 45 f8	 movss	 DWORD PTR _vColPoint$[ebp+8], xmm0
  00074	e8 00 00 00 00	 call	 ?GetWorldAttackBox@ioWeapon@@QBEABVioOrientBox@@_N@Z ; ioWeapon::GetWorldAttackBox
  00079	50		 push	 eax
  0007a	8b cf		 mov	 ecx, edi
  0007c	ff 93 90 00 00
	00		 call	 DWORD PTR [ebx+144]
  00082	5b		 pop	 ebx
  00083	84 c0		 test	 al, al
  00085	74 04		 je	 SHORT $LN20@IsCollisio

; 474  : 		bCollision = true;

  00087	c6 45 ec 01	 mov	 BYTE PTR _bCollision$[ebp], 1
$LN20@IsCollisio:

; 475  : 
; 476  : 	CheckPiercing( bCollision );

  0008b	ff 75 ec	 push	 DWORD PTR _bCollision$[ebp]
  0008e	8b 06		 mov	 eax, DWORD PTR [esi]
  00090	8b ce		 mov	 ecx, esi
  00092	ff 90 48 01 00
	00		 call	 DWORD PTR [eax+328]

; 477  : 
; 478  : 	if( bCollision )

  00098	80 7d ec 00	 cmp	 BYTE PTR _bCollision$[ebp], 0
  0009c	74 6d		 je	 SHORT $LN2@IsCollisio

; 479  : 	{
; 480  : 		bool bSend = false;
; 481  : 		if( pTarget && pTarget->IsNeedSendNetwork() )

  0009e	8b 4d e0	 mov	 ecx, DWORD PTR _pTarget$[ebp]
  000a1	c6 45 e8 00	 mov	 BYTE PTR _bSend$590692[ebp], 0
  000a5	85 c9		 test	 ecx, ecx
  000a7	74 25		 je	 SHORT $LN18@IsCollisio
  000a9	8b 01		 mov	 eax, DWORD PTR [ecx]
  000ab	ff 90 04 01 00
	00		 call	 DWORD PTR [eax+260]

; 482  : 			bSend = true;
; 483  : 		if( !pTarget && GetOwner() && GetOwner()->IsNeedSendNetwork() )

  000b1	eb 37		 jmp	 SHORT $LN21@IsCollisio
$LN19@IsCollisio:

; 463  : 		return false;
; 464  : 	else if( !pTarget )
; 465  : 	{
; 466  : 		if( !GetOwner() || !GetOwner()->IsNeedProcess() )

  000b3	8b ce		 mov	 ecx, esi
  000b5	e8 00 00 00 00	 call	 ?GetOwner@ioWeapon@@QBEPAVioBaseChar@@XZ ; ioWeapon::GetOwner
  000ba	85 c0		 test	 eax, eax
  000bc	0f 84 64 ff ff
	ff		 je	 $LN22@IsCollisio
  000c2	8b ce		 mov	 ecx, esi
  000c4	e8 00 00 00 00	 call	 ?GetOwner@ioWeapon@@QBEPAVioBaseChar@@XZ ; ioWeapon::GetOwner

; 467  : 			return false;

  000c9	e9 76 ff ff ff	 jmp	 $LN23@IsCollisio
$LN18@IsCollisio:

; 482  : 			bSend = true;
; 483  : 		if( !pTarget && GetOwner() && GetOwner()->IsNeedSendNetwork() )

  000ce	8b ce		 mov	 ecx, esi
  000d0	e8 00 00 00 00	 call	 ?GetOwner@ioWeapon@@QBEPAVioBaseChar@@XZ ; ioWeapon::GetOwner
  000d5	85 c0		 test	 eax, eax
  000d7	74 19		 je	 SHORT $LN3@IsCollisio
  000d9	8b ce		 mov	 ecx, esi
  000db	e8 00 00 00 00	 call	 ?GetOwner@ioWeapon@@QBEPAVioBaseChar@@XZ ; ioWeapon::GetOwner
  000e0	8b 10		 mov	 edx, DWORD PTR [eax]
  000e2	8b c8		 mov	 ecx, eax
  000e4	ff 92 04 01 00
	00		 call	 DWORD PTR [edx+260]
$LN21@IsCollisio:
  000ea	84 c0		 test	 al, al
  000ec	74 04		 je	 SHORT $LN3@IsCollisio

; 484  : 			bSend = true;

  000ee	c6 45 e8 01	 mov	 BYTE PTR _bSend$590692[ebp], 1
$LN3@IsCollisio:

; 485  : 
; 486  : 		//  SetWaitState( bSend );
; 487  : 		// if( !m_bPiercingMove || bMapCollision )  
; 488  : 		if( !m_bPiercingMove || bMapCollision )

  000f2	80 be f4 09 00
	00 00		 cmp	 BYTE PTR [esi+2548], 0
  000f9	74 06		 je	 SHORT $LN1@IsCollisio
  000fb	80 7d e4 00	 cmp	 BYTE PTR _bMapCollision$GSCopy$[ebp], 0
  000ff	74 0a		 je	 SHORT $LN2@IsCollisio
$LN1@IsCollisio:

; 489  : 			SetWaitState( bSend );

  00101	ff 75 e8	 push	 DWORD PTR _bSend$590692[ebp]
  00104	8b ce		 mov	 ecx, esi
  00106	e8 00 00 00 00	 call	 ?SetWaitState@ioUroborusWeapon@@QAEX_N@Z ; ioUroborusWeapon::SetWaitState
$LN2@IsCollisio:

; 490  : 	}
; 491  : 
; 492  : 	return bCollision;

  0010b	8a 45 ec	 mov	 al, BYTE PTR _bCollision$[ebp]
$LN14@IsCollisio:

; 493  : }

  0010e	8b 4d fc	 mov	 ecx, DWORD PTR __$ArrayPad$[ebp]
  00111	5f		 pop	 edi
  00112	33 cd		 xor	 ecx, ebp
  00114	5e		 pop	 esi
  00115	e8 00 00 00 00	 call	 @__security_check_cookie@4
  0011a	c9		 leave
  0011b	c2 08 00	 ret	 8
?IsCollision@ioUroborusWeapon@@UAE_NPAVioPlayEntity@@_N@Z ENDP ; ioUroborusWeapon::IsCollision
_TEXT	ENDS
PUBLIC	__$ArrayPad$
; Function compile flags: /Ogsp
;	COMDAT ?SetOwnerChargeScaleRate@ioUroborusWeapon@@UAEXM@Z
_TEXT	SEGMENT
_value$594444 = -28					; size = 4
tv217 = -24						; size = 4
_value$594439 = -24					; size = 4
_value$594449 = -20					; size = 4
_value$594435 = -20					; size = 4
_value$594423 = -20					; size = 4
_vScale$590708 = -16					; size = 12
__$ArrayPad$ = -4					; size = 4
_fRate$ = 8						; size = 4
?SetOwnerChargeScaleRate@ioUroborusWeapon@@UAEXM@Z PROC	; ioUroborusWeapon::SetOwnerChargeScaleRate, COMDAT
; _this$ = ecx

; 504  : {

  00000	55		 push	 ebp
  00001	8b ec		 mov	 ebp, esp
  00003	83 ec 1c	 sub	 esp, 28			; 0000001cH
  00006	a1 00 00 00 00	 mov	 eax, DWORD PTR ___security_cookie
  0000b	33 c5		 xor	 eax, ebp
  0000d	89 45 fc	 mov	 DWORD PTR __$ArrayPad$[ebp], eax

; 505  : 	m_fOwnerChargeScaleRate = fRate;

  00010	f3 0f 10 45 08	 movss	 xmm0, DWORD PTR _fRate$[ebp]
  00015	53		 push	 ebx
  00016	56		 push	 esi
  00017	57		 push	 edi
  00018	8b f9		 mov	 edi, ecx
  0001a	8d 45 ec	 lea	 eax, DWORD PTR _value$594423[ebp]
  0001d	50		 push	 eax
  0001e	8d 8f b0 01 00
	00		 lea	 ecx, DWORD PTR [edi+432]
  00024	f3 0f 11 45 ec	 movss	 DWORD PTR _value$594423[ebp], xmm0
  00029	e8 00 00 00 00	 call	 ?EncryptValueToPool@?$CEncrypt@M@@AAEXPBD@Z ; CEncrypt<float>::EncryptValueToPool

; 506  : 
; 507  : 	if( m_fOwnerChargeScaleRate > FLOAT1 )

  0002e	b8 01 00 00 00	 mov	 eax, 1
  00033	8b d8		 mov	 ebx, eax
  00035	8d 45 ec	 lea	 eax, DWORD PTR _value$594435[ebp]
  00038	50		 push	 eax
  00039	8d 8f b0 01 00
	00		 lea	 ecx, DWORD PTR [edi+432]
  0003f	e8 00 00 00 00	 call	 ?DecryptValueToPool@?$CEncrypt@M@@QAEXPAM@Z ; CEncrypt<float>::DecryptValueToPool
  00044	d9 45 ec	 fld	 DWORD PTR _value$594435[ebp]
  00047	89 5d e8	 mov	 DWORD PTR tv217[ebp], ebx
  0004a	db 45 e8	 fild	 DWORD PTR tv217[ebp]
  0004d	85 db		 test	 ebx, ebx
  0004f	79 06		 jns	 SHORT $LN23@SetOwnerCh
  00051	d8 05 00 00 00
	00		 fadd	 DWORD PTR __real@4f800000
$LN23@SetOwnerCh:
  00057	d9 c9		 fxch	 ST(1)
  00059	df f1		 fcomip	 ST(1)
  0005b	dd d8		 fstp	 ST(0)
  0005d	76 57		 jbe	 SHORT $LN1@SetOwnerCh

; 508  : 	{
; 509  : 		D3DXVECTOR3 vScale( m_fOwnerChargeScaleRate, m_fOwnerChargeScaleRate, m_fOwnerChargeScaleRate );

  0005f	8d 45 e8	 lea	 eax, DWORD PTR _value$594439[ebp]
  00062	50		 push	 eax
  00063	8d 8f b0 01 00
	00		 lea	 ecx, DWORD PTR [edi+432]
  00069	e8 00 00 00 00	 call	 ?DecryptValueToPool@?$CEncrypt@M@@QAEXPAM@Z ; CEncrypt<float>::DecryptValueToPool
  0006e	8d 45 e4	 lea	 eax, DWORD PTR _value$594444[ebp]
  00071	50		 push	 eax
  00072	8d 8f b0 01 00
	00		 lea	 ecx, DWORD PTR [edi+432]
  00078	e8 00 00 00 00	 call	 ?DecryptValueToPool@?$CEncrypt@M@@QAEXPAM@Z ; CEncrypt<float>::DecryptValueToPool
  0007d	8d 45 ec	 lea	 eax, DWORD PTR _value$594449[ebp]
  00080	50		 push	 eax
  00081	8d 8f b0 01 00
	00		 lea	 ecx, DWORD PTR [edi+432]
  00087	e8 00 00 00 00	 call	 ?DecryptValueToPool@?$CEncrypt@M@@QAEXPAM@Z ; CEncrypt<float>::DecryptValueToPool
  0008c	f3 0f 10 45 ec	 movss	 xmm0, DWORD PTR _value$594449[ebp]

; 510  : 		GetParentSceneNode()->SetScale( vScale );

  00091	8b 4f 04	 mov	 ecx, DWORD PTR [edi+4]
  00094	f3 0f 11 45 f0	 movss	 DWORD PTR _vScale$590708[ebp], xmm0
  00099	f3 0f 10 45 e4	 movss	 xmm0, DWORD PTR _value$594444[ebp]
  0009e	f3 0f 11 45 f4	 movss	 DWORD PTR _vScale$590708[ebp+4], xmm0
  000a3	f3 0f 10 45 e8	 movss	 xmm0, DWORD PTR _value$594439[ebp]
  000a8	8d 55 f0	 lea	 edx, DWORD PTR _vScale$590708[ebp]
  000ab	f3 0f 11 45 f8	 movss	 DWORD PTR _vScale$590708[ebp+8], xmm0
  000b0	8b 01		 mov	 eax, DWORD PTR [ecx]
  000b2	52		 push	 edx
  000b3	ff 50 20	 call	 DWORD PTR [eax+32]
$LN1@SetOwnerCh:

; 511  : 	}
; 512  : }

  000b6	8b 4d fc	 mov	 ecx, DWORD PTR __$ArrayPad$[ebp]
  000b9	5f		 pop	 edi
  000ba	5e		 pop	 esi
  000bb	33 cd		 xor	 ecx, ebp
  000bd	5b		 pop	 ebx
  000be	e8 00 00 00 00	 call	 @__security_check_cookie@4
  000c3	c9		 leave
  000c4	c2 04 00	 ret	 4
?SetOwnerChargeScaleRate@ioUroborusWeapon@@UAEXM@Z ENDP	; ioUroborusWeapon::SetOwnerChargeScaleRate
_TEXT	ENDS
PUBLIC	?IsCanUroborusJump@ioUroborusWeapon@@QAE_NXZ	; ioUroborusWeapon::IsCanUroborusJump
; Function compile flags: /Ogsp
;	COMDAT ?IsCanUroborusJump@ioUroborusWeapon@@QAE_NXZ
_TEXT	SEGMENT
_value$594466 = -4					; size = 4
?IsCanUroborusJump@ioUroborusWeapon@@QAE_NXZ PROC	; ioUroborusWeapon::IsCanUroborusJump, COMDAT
; _this$ = ecx

; 566  : {

  00000	55		 push	 ebp
  00001	8b ec		 mov	 ebp, esp
  00003	51		 push	 ecx
  00004	56		 push	 esi
  00005	57		 push	 edi
  00006	8b f1		 mov	 esi, ecx

; 567  : 	DWORD dwCurTime = FRAMEGETTIME();

  00008	ff 15 00 00 00
	00		 call	 DWORD PTR __imp_?GetSingleton@ioFrameTimer@@SAAAV1@XZ
  0000e	8b c8		 mov	 ecx, eax
  00010	ff 15 00 00 00
	00		 call	 DWORD PTR __imp_?GetLoopSec@ioFrameTimer@@QBEKXZ
  00016	8b f8		 mov	 edi, eax

; 568  : 
; 569  : 	switch( m_UroborusState )

  00018	8b 86 94 08 00
	00		 mov	 eax, DWORD PTR [esi+2196]
  0001e	83 f8 01	 cmp	 eax, 1
  00021	77 20		 ja	 SHORT $LN1@IsCanUrobo

; 570  : 	{
; 571  : 	case US_MOVE:
; 572  : 	case US_WAIT:
; 573  : 		if( m_dwCreatedTime+m_dwUroborusJumpTime < dwCurTime )

  00023	8d 45 fc	 lea	 eax, DWORD PTR _value$594466[ebp]
  00026	50		 push	 eax
  00027	8d 8e c4 09 00
	00		 lea	 ecx, DWORD PTR [esi+2500]
  0002d	e8 00 00 00 00	 call	 ?DecryptValueToPool@?$CEncrypt@K@@QAEXPAK@Z ; CEncrypt<unsigned long>::DecryptValueToPool
  00032	8b 86 d4 04 00
	00		 mov	 eax, DWORD PTR [esi+1236]
  00038	03 45 fc	 add	 eax, DWORD PTR _value$594466[ebp]
  0003b	3b c7		 cmp	 eax, edi
  0003d	73 04		 jae	 SHORT $LN1@IsCanUrobo

; 574  : 			return true;

  0003f	b0 01		 mov	 al, 1
  00041	eb 02		 jmp	 SHORT $LN5@IsCanUrobo
$LN1@IsCanUrobo:

; 575  : 	}
; 576  : 
; 577  : 	return false;

  00043	32 c0		 xor	 al, al
$LN5@IsCanUrobo:
  00045	5f		 pop	 edi
  00046	5e		 pop	 esi

; 578  : }

  00047	c9		 leave
  00048	c3		 ret	 0
?IsCanUroborusJump@ioUroborusWeapon@@QAE_NXZ ENDP	; ioUroborusWeapon::IsCanUroborusJump
_TEXT	ENDS
PUBLIC	??_C@_00CNPNBAHC@?$AA@				; `string'
PUBLIC	_rkLoader$GSCopy$
EXTRN	?SetMaxArrowRange@ioUroborusGuideArrow@@QAEXM@Z:PROC ; ioUroborusGuideArrow::SetMaxArrowRange
EXTRN	?Initialize@ioUroborusGuideArrow@@QAEXAAVioINILoader@@@Z:PROC ; ioUroborusGuideArrow::Initialize
EXTRN	??0ioUroborusGuideArrow@@QAE@PAVioPlayStage@@@Z:PROC ; ioUroborusGuideArrow::ioUroborusGuideArrow
EXTRN	??2@YAPAXI@Z:PROC				; operator new
EXTRN	__imp_??4ioHashString@@QAEAAV0@PBD@Z:PROC
EXTRN	?LoadProperty@ioWeapon@@UAEXAAVioINILoader@@@Z:PROC ; ioWeapon::LoadProperty
EXTRN	_memset:PROC
;	COMDAT ??_C@_00CNPNBAHC@?$AA@
; File d:\lost saga for developer\youtube\tutorial\source\src\lsclient\stringprotect.h
CONST	SEGMENT
??_C@_00CNPNBAHC@?$AA@ DB 00H				; `string'
CONST	ENDS
;	COMDAT xdata$x
xdata$x	SEGMENT
__unwindtable$?LoadProperty@ioUroborusWeapon@@UAEXAAVioINILoader@@@Z DD 0ffffffffH
	DD	FLAT:__unwindfunclet$?LoadProperty@ioUroborusWeapon@@UAEXAAVioINILoader@@@Z$0
__ehfuncinfo$?LoadProperty@ioUroborusWeapon@@UAEXAAVioINILoader@@@Z DD 019930522H
	DD	01H
	DD	FLAT:__unwindtable$?LoadProperty@ioUroborusWeapon@@UAEXAAVioINILoader@@@Z
	DD	2 DUP(00H)
	DD	2 DUP(00H)
	DD	00H
	DD	01H
; Function compile flags: /Ogsp
; File d:\lost saga for developer\youtube\tutorial\source\src\lsclient\iouroborusweapon.cpp
xdata$x	ENDS
;	COMDAT ?LoadProperty@ioUroborusWeapon@@UAEXAAVioINILoader@@@Z
_TEXT	SEGMENT
_value$595112 = -332					; size = 4
_value$594982 = -332					; size = 4
$T594475 = -332						; size = 4
_rkLoader$GSCopy$ = -328				; size = 4
_szBuf$ = -324						; size = 260
__k$595182 = -64					; size = 18
__k$595012 = -40					; size = 19
__k$594869 = -40					; size = 19
__k$594619 = -40					; size = 17
__k$594494 = -40					; size = 16
__k$594744 = -36					; size = 12
__$EHRec$ = -12						; size = 12
_rkLoader$ = 8						; size = 4
?LoadProperty@ioUroborusWeapon@@UAEXAAVioINILoader@@@Z PROC ; ioUroborusWeapon::LoadProperty, COMDAT
; _this$ = ecx

; 48   : {

  00000	68 40 01 00 00	 push	 320			; 00000140H
  00005	b8 00 00 00 00	 mov	 eax, __ehhandler$?LoadProperty@ioUroborusWeapon@@UAEXAAVioINILoader@@@Z
  0000a	e8 00 00 00 00	 call	 __EH_prolog3_GS
  0000f	8b 7d 08	 mov	 edi, DWORD PTR _rkLoader$[ebp]

; 49   : 	ioWeapon::LoadProperty( rkLoader );

  00012	57		 push	 edi
  00013	8b f1		 mov	 esi, ecx

; 57   : 
; 58   : 	rkLoader.LoadString_e( "wait_effect", "", szBuf, MAX_PATH );

  00015	89 bd b8 fe ff
	ff		 mov	 DWORD PTR _rkLoader$GSCopy$[ebp], edi
  0001b	e8 00 00 00 00	 call	 ?LoadProperty@ioWeapon@@UAEXAAVioINILoader@@@Z ; ioWeapon::LoadProperty
  00020	68 03 01 00 00	 push	 259			; 00000103H
  00025	8d 85 bd fe ff
	ff		 lea	 eax, DWORD PTR _szBuf$[ebp+1]
  0002b	6a 00		 push	 0
  0002d	50		 push	 eax
  0002e	c6 85 bc fe ff
	ff 00		 mov	 BYTE PTR _szBuf$[ebp], 0
  00035	e8 00 00 00 00	 call	 _memset
  0003a	83 c4 0c	 add	 esp, 12			; 0000000cH
  0003d	6a 03		 push	 3
  0003f	c7 45 d8 9f 89
	8f b5		 mov	 DWORD PTR __k$594494[ebp], -1248884321 ; b58f899fH
  00046	c7 45 dc 99 89
	8a 87		 mov	 DWORD PTR __k$594494[ebp+4], -2020963943 ; 878a8999H
  0004d	c7 45 e0 b2 89
	8d 8c		 mov	 DWORD PTR __k$594494[ebp+8], -1936881230 ; 8c8d89b2H
  00054	8d 45 d8	 lea	 eax, DWORD PTR __k$594494[ebp]
  00057	c7 45 e4 88 8f
	9f 00		 mov	 DWORD PTR __k$594494[ebp+12], 10456968 ; 009f8f88H
  0005e	59		 pop	 ecx
$LL113@LoadProper:

; 50   : 
; 51   : 	char szBuf[MAX_PATH] = "";
; 52   : 
; 53   : 	rkLoader.LoadString_e( "red_team_effect", "", szBuf, MAX_PATH );

  0005f	81 30 ed ec eb
	ea		 xor	 DWORD PTR [eax], -353637139 ; eaebecedH
  00065	83 c0 04	 add	 eax, 4
  00068	49		 dec	 ecx
  00069	75 f4		 jne	 SHORT $LL113@LoadProper
  0006b	6a 0c		 push	 12			; 0000000cH
  0006d	58		 pop	 eax
$LL110@LoadProper:
  0006e	8b c8		 mov	 ecx, eax
  00070	81 e1 03 00 00
	80		 and	 ecx, -2147483645	; 80000003H
  00076	79 05		 jns	 SHORT $LN678@LoadProper
  00078	49		 dec	 ecx
  00079	83 c9 fc	 or	 ecx, -4			; fffffffcH
  0007c	41		 inc	 ecx
$LN678@LoadProper:
  0007d	b2 ed		 mov	 dl, -19			; ffffffedH
  0007f	2a d1		 sub	 dl, cl
  00081	30 54 05 d8	 xor	 BYTE PTR __k$594494[ebp+eax], dl
  00085	40		 inc	 eax
  00086	83 f8 0f	 cmp	 eax, 15			; 0000000fH
  00089	7c e3		 jl	 SHORT $LL110@LoadProper
  0008b	68 04 01 00 00	 push	 260			; 00000104H
  00090	8d 85 bc fe ff
	ff		 lea	 eax, DWORD PTR _szBuf$[ebp]
  00096	50		 push	 eax
  00097	68 00 00 00 00	 push	 OFFSET ??_C@_00CNPNBAHC@?$AA@
  0009c	8d 45 d8	 lea	 eax, DWORD PTR __k$594494[ebp]
  0009f	8b cf		 mov	 ecx, edi
  000a1	8b 3d 00 00 00
	00		 mov	 edi, DWORD PTR __imp_?LoadStringA@ioINILoader@@QAEXPBD0PADH@Z
  000a7	50		 push	 eax
  000a8	ff d7		 call	 edi

; 54   : 	m_RedTeamEffect = szBuf;

  000aa	8b 1d 00 00 00
	00		 mov	 ebx, DWORD PTR __imp_??4ioHashString@@QAEAAV0@PBD@Z
  000b0	8d 85 bc fe ff
	ff		 lea	 eax, DWORD PTR _szBuf$[ebp]
  000b6	50		 push	 eax
  000b7	8d 8e fc 08 00
	00		 lea	 ecx, DWORD PTR [esi+2300]
  000bd	ff d3		 call	 ebx
  000bf	6a 04		 push	 4

; 55   : 	rkLoader.LoadString_e( "blue_team_effect", "", szBuf, MAX_PATH );

  000c1	c7 45 d8 8f 80
	9e 8f		 mov	 DWORD PTR __k$594619[ebp], -1885437809 ; 8f9e808fH
  000c8	c7 45 dc b2 98
	8e 8b		 mov	 DWORD PTR __k$594619[ebp+4], -1953589070 ; 8b8e98b2H
  000cf	c7 45 e0 80 b3
	8e 8c		 mov	 DWORD PTR __k$594619[ebp+8], -1936804992 ; 8c8eb380H
  000d6	c7 45 e4 8b 89
	88 9e		 mov	 DWORD PTR __k$594619[ebp+12], -1635219061 ; 9e88898bH
  000dd	8d 45 d8	 lea	 eax, DWORD PTR __k$594619[ebp]
  000e0	c6 45 e8 00	 mov	 BYTE PTR __k$594619[ebp+16], 0
  000e4	59		 pop	 ecx
$LL219@LoadProper:
  000e5	81 30 ed ec eb
	ea		 xor	 DWORD PTR [eax], -353637139 ; eaebecedH
  000eb	83 c0 04	 add	 eax, 4
  000ee	49		 dec	 ecx
  000ef	75 f4		 jne	 SHORT $LL219@LoadProper
  000f1	8b 8d b8 fe ff
	ff		 mov	 ecx, DWORD PTR _rkLoader$GSCopy$[ebp]
  000f7	68 04 01 00 00	 push	 260			; 00000104H
  000fc	8d 85 bc fe ff
	ff		 lea	 eax, DWORD PTR _szBuf$[ebp]
  00102	50		 push	 eax
  00103	68 00 00 00 00	 push	 OFFSET ??_C@_00CNPNBAHC@?$AA@
  00108	8d 45 d8	 lea	 eax, DWORD PTR __k$594619[ebp]
  0010b	50		 push	 eax
  0010c	ff d7		 call	 edi

; 56   : 	m_BlueTeamEffect = szBuf;

  0010e	8d 85 bc fe ff
	ff		 lea	 eax, DWORD PTR _szBuf$[ebp]
  00114	50		 push	 eax
  00115	8d 8e 0c 09 00
	00		 lea	 ecx, DWORD PTR [esi+2316]
  0011b	ff d3		 call	 ebx
  0011d	6a 02		 push	 2

; 57   : 
; 58   : 	rkLoader.LoadString_e( "wait_effect", "", szBuf, MAX_PATH );

  0011f	c7 45 dc 9a 8d
	82 9e		 mov	 DWORD PTR __k$594744[ebp], -1635611238 ; 9e828d9aH
  00126	c7 45 e0 b2 89
	8d 8c		 mov	 DWORD PTR __k$594744[ebp+4], -1936881230 ; 8c8d89b2H
  0012d	8d 45 dc	 lea	 eax, DWORD PTR __k$594744[ebp]
  00130	c7 45 e4 88 8f
	9f 00		 mov	 DWORD PTR __k$594744[ebp+8], 10456968 ; 009f8f88H
  00137	59		 pop	 ecx
$LL325@LoadProper:
  00138	81 30 ed ec eb
	ea		 xor	 DWORD PTR [eax], -353637139 ; eaebecedH
  0013e	83 c0 04	 add	 eax, 4
  00141	49		 dec	 ecx
  00142	75 f4		 jne	 SHORT $LL325@LoadProper
  00144	6a 08		 push	 8
  00146	58		 pop	 eax
$LL322@LoadProper:
  00147	8b c8		 mov	 ecx, eax
  00149	81 e1 03 00 00
	80		 and	 ecx, -2147483645	; 80000003H
  0014f	79 05		 jns	 SHORT $LN679@LoadProper
  00151	49		 dec	 ecx
  00152	83 c9 fc	 or	 ecx, -4			; fffffffcH
  00155	41		 inc	 ecx
$LN679@LoadProper:
  00156	b2 ed		 mov	 dl, -19			; ffffffedH
  00158	2a d1		 sub	 dl, cl
  0015a	30 54 05 dc	 xor	 BYTE PTR __k$594744[ebp+eax], dl
  0015e	40		 inc	 eax
  0015f	83 f8 0b	 cmp	 eax, 11			; 0000000bH
  00162	7c e3		 jl	 SHORT $LL322@LoadProper
  00164	8b 8d b8 fe ff
	ff		 mov	 ecx, DWORD PTR _rkLoader$GSCopy$[ebp]
  0016a	68 04 01 00 00	 push	 260			; 00000104H
  0016f	8d 85 bc fe ff
	ff		 lea	 eax, DWORD PTR _szBuf$[ebp]
  00175	50		 push	 eax
  00176	68 00 00 00 00	 push	 OFFSET ??_C@_00CNPNBAHC@?$AA@
  0017b	8d 45 dc	 lea	 eax, DWORD PTR __k$594744[ebp]
  0017e	50		 push	 eax
  0017f	ff d7		 call	 edi

; 59   : 	m_WaitEffect = szBuf;

  00181	8d 85 bc fe ff
	ff		 lea	 eax, DWORD PTR _szBuf$[ebp]
  00187	50		 push	 eax
  00188	8d 8e 80 09 00
	00		 lea	 ecx, DWORD PTR [esi+2432]
  0018e	ff d3		 call	 ebx
  00190	6a 04		 push	 4

; 60   : 
; 61   : 	m_dwUroborusWaitTime = (DWORD)rkLoader.LoadInt_e( "uroborus_wait_time", 0 );

  00192	c7 45 d8 98 9e
	84 88		 mov	 DWORD PTR __k$594869[ebp], -2004574568 ; 88849e98H
  00199	c7 45 dc 82 9e
	9e 99		 mov	 DWORD PTR __k$594869[ebp+4], -1717657982 ; 999e9e82H
  001a0	c7 45 e0 b2 9b
	8a 83		 mov	 DWORD PTR __k$594869[ebp+8], -2088068174 ; 838a9bb2H
  001a7	c7 45 e4 99 b3
	9f 83		 mov	 DWORD PTR __k$594869[ebp+12], -2086685799 ; 839fb399H
  001ae	66 c7 45 e8 80
	89		 mov	 WORD PTR __k$594869[ebp+16], 35200 ; 00008980H
  001b4	8d 45 d8	 lea	 eax, DWORD PTR __k$594869[ebp]
  001b7	c6 45 ea 00	 mov	 BYTE PTR __k$594869[ebp+18], 0
  001bb	59		 pop	 ecx
$LL431@LoadProper:
  001bc	81 30 ed ec eb
	ea		 xor	 DWORD PTR [eax], -353637139 ; eaebecedH
  001c2	83 c0 04	 add	 eax, 4
  001c5	49		 dec	 ecx
  001c6	75 f4		 jne	 SHORT $LL431@LoadProper
  001c8	6a 10		 push	 16			; 00000010H
  001ca	58		 pop	 eax
$LL428@LoadProper:
  001cb	8b c8		 mov	 ecx, eax
  001cd	81 e1 03 00 00
	80		 and	 ecx, -2147483645	; 80000003H
  001d3	79 05		 jns	 SHORT $LN680@LoadProper
  001d5	49		 dec	 ecx
  001d6	83 c9 fc	 or	 ecx, -4			; fffffffcH
  001d9	41		 inc	 ecx
$LN680@LoadProper:
  001da	b2 ed		 mov	 dl, -19			; ffffffedH
  001dc	2a d1		 sub	 dl, cl
  001de	30 54 05 d8	 xor	 BYTE PTR __k$594869[ebp+eax], dl
  001e2	40		 inc	 eax
  001e3	83 f8 12	 cmp	 eax, 18			; 00000012H
  001e6	7c e3		 jl	 SHORT $LL428@LoadProper
  001e8	8b 8d b8 fe ff
	ff		 mov	 ecx, DWORD PTR _rkLoader$GSCopy$[ebp]
  001ee	8b 3d 00 00 00
	00		 mov	 edi, DWORD PTR __imp_?LoadInt@ioINILoader@@QAEHPBDH@Z
  001f4	33 db		 xor	 ebx, ebx
  001f6	53		 push	 ebx
  001f7	8d 45 d8	 lea	 eax, DWORD PTR __k$594869[ebp]
  001fa	50		 push	 eax
  001fb	ff d7		 call	 edi
  001fd	89 85 b4 fe ff
	ff		 mov	 DWORD PTR _value$594982[ebp], eax
  00203	8d 85 b4 fe ff
	ff		 lea	 eax, DWORD PTR _value$594982[ebp]
  00209	50		 push	 eax
  0020a	8d 8e 90 09 00
	00		 lea	 ecx, DWORD PTR [esi+2448]
  00210	e8 00 00 00 00	 call	 ?EncryptValueToPool@?$CEncrypt@K@@AAEXPBD@Z ; CEncrypt<unsigned long>::EncryptValueToPool
  00215	6a 04		 push	 4

; 62   : 	m_dwUroborusJumpTime = (DWORD)rkLoader.LoadInt_e( "uroborus_jump_time", 0 );

  00217	c7 45 d8 98 9e
	84 88		 mov	 DWORD PTR __k$595012[ebp], -2004574568 ; 88849e98H
  0021e	c7 45 dc 82 9e
	9e 99		 mov	 DWORD PTR __k$595012[ebp+4], -1717657982 ; 999e9e82H
  00225	c7 45 e0 b2 86
	9e 87		 mov	 DWORD PTR __k$595012[ebp+8], -2019653966 ; 879e86b2H
  0022c	c7 45 e4 9d b3
	9f 83		 mov	 DWORD PTR __k$595012[ebp+12], -2086685795 ; 839fb39dH
  00233	66 c7 45 e8 80
	89		 mov	 WORD PTR __k$595012[ebp+16], 35200 ; 00008980H
  00239	8d 45 d8	 lea	 eax, DWORD PTR __k$595012[ebp]
  0023c	88 5d ea	 mov	 BYTE PTR __k$595012[ebp+18], bl
  0023f	59		 pop	 ecx
$LL539@LoadProper:
  00240	81 30 ed ec eb
	ea		 xor	 DWORD PTR [eax], -353637139 ; eaebecedH
  00246	83 c0 04	 add	 eax, 4
  00249	49		 dec	 ecx
  0024a	75 f4		 jne	 SHORT $LL539@LoadProper
  0024c	6a 10		 push	 16			; 00000010H
  0024e	58		 pop	 eax
$LL536@LoadProper:
  0024f	8b c8		 mov	 ecx, eax
  00251	81 e1 03 00 00
	80		 and	 ecx, -2147483645	; 80000003H
  00257	79 05		 jns	 SHORT $LN681@LoadProper
  00259	49		 dec	 ecx
  0025a	83 c9 fc	 or	 ecx, -4			; fffffffcH
  0025d	41		 inc	 ecx
$LN681@LoadProper:
  0025e	b2 ed		 mov	 dl, -19			; ffffffedH
  00260	2a d1		 sub	 dl, cl
  00262	30 54 05 d8	 xor	 BYTE PTR __k$595012[ebp+eax], dl
  00266	40		 inc	 eax
  00267	83 f8 12	 cmp	 eax, 18			; 00000012H
  0026a	7c e3		 jl	 SHORT $LL536@LoadProper
  0026c	8b 8d b8 fe ff
	ff		 mov	 ecx, DWORD PTR _rkLoader$GSCopy$[ebp]
  00272	53		 push	 ebx
  00273	8d 45 d8	 lea	 eax, DWORD PTR __k$595012[ebp]
  00276	50		 push	 eax
  00277	ff d7		 call	 edi
  00279	89 85 b4 fe ff
	ff		 mov	 DWORD PTR _value$595112[ebp], eax
  0027f	8d 85 b4 fe ff
	ff		 lea	 eax, DWORD PTR _value$595112[ebp]
  00285	50		 push	 eax
  00286	8d 8e c4 09 00
	00		 lea	 ecx, DWORD PTR [esi+2500]
  0028c	e8 00 00 00 00	 call	 ?EncryptValueToPool@?$CEncrypt@K@@AAEXPBD@Z ; CEncrypt<unsigned long>::EncryptValueToPool

; 63   : 
; 64   : 	//
; 65   : 	ioBaseChar *pOwner = GetOwner();

  00291	8b ce		 mov	 ecx, esi
  00293	e8 00 00 00 00	 call	 ?GetOwner@ioWeapon@@QBEPAVioBaseChar@@XZ ; ioWeapon::GetOwner

; 66   : 	if( pOwner )

  00298	3b c3		 cmp	 eax, ebx
  0029a	74 6c		 je	 SHORT $LN2@LoadProper

; 67   : 	{
; 68   : 		ioPlayStage *pStage = pOwner->GetCreator();
; 69   : 
; 70   : 		SAFEDELETE( m_pGuideArrow );

  0029c	8b 8e 9c 08 00
	00		 mov	 ecx, DWORD PTR [esi+2204]
  002a2	8b b8 44 03 00
	00		 mov	 edi, DWORD PTR [eax+836]
  002a8	3b cb		 cmp	 ecx, ebx
  002aa	74 0c		 je	 SHORT $LN1@LoadProper
  002ac	8b 01		 mov	 eax, DWORD PTR [ecx]
  002ae	6a 01		 push	 1
  002b0	ff 10		 call	 DWORD PTR [eax]
  002b2	89 9e 9c 08 00
	00		 mov	 DWORD PTR [esi+2204], ebx
$LN1@LoadProper:

; 71   : 		m_pGuideArrow = new ioUroborusGuideArrow( pStage );

  002b8	6a 64		 push	 100			; 00000064H
  002ba	e8 00 00 00 00	 call	 ??2@YAPAXI@Z		; operator new
  002bf	59		 pop	 ecx
  002c0	89 85 b4 fe ff
	ff		 mov	 DWORD PTR $T594475[ebp], eax
  002c6	89 5d fc	 mov	 DWORD PTR __$EHRec$[ebp+8], ebx
  002c9	3b c3		 cmp	 eax, ebx
  002cb	74 0a		 je	 SHORT $LN7@LoadProper
  002cd	57		 push	 edi
  002ce	8b c8		 mov	 ecx, eax
  002d0	e8 00 00 00 00	 call	 ??0ioUroborusGuideArrow@@QAE@PAVioPlayStage@@@Z ; ioUroborusGuideArrow::ioUroborusGuideArrow
  002d5	eb 02		 jmp	 SHORT $LN8@LoadProper
$LN7@LoadProper:
  002d7	33 c0		 xor	 eax, eax
$LN8@LoadProper:

; 72   : 
; 73   : 		m_pGuideArrow->Initialize( rkLoader );

  002d9	ff b5 b8 fe ff
	ff		 push	 DWORD PTR _rkLoader$GSCopy$[ebp]
  002df	83 4d fc ff	 or	 DWORD PTR __$EHRec$[ebp+8], -1
  002e3	8b c8		 mov	 ecx, eax
  002e5	89 86 9c 08 00
	00		 mov	 DWORD PTR [esi+2204], eax
  002eb	e8 00 00 00 00	 call	 ?Initialize@ioUroborusGuideArrow@@QAEXAAVioINILoader@@@Z ; ioUroborusGuideArrow::Initialize

; 74   : 		m_pGuideArrow->SetMaxArrowRange( GetMaxRange() );

  002f0	8b be 9c 08 00
	00		 mov	 edi, DWORD PTR [esi+2204]
  002f6	8b ce		 mov	 ecx, esi
  002f8	e8 00 00 00 00	 call	 ?GetMaxRange@ioUroborusWeapon@@IAEMXZ ; ioUroborusWeapon::GetMaxRange
  002fd	51		 push	 ecx
  002fe	8b cf		 mov	 ecx, edi
  00300	d9 1c 24	 fstp	 DWORD PTR [esp]
  00303	e8 00 00 00 00	 call	 ?SetMaxArrowRange@ioUroborusGuideArrow@@QAEXM@Z ; ioUroborusGuideArrow::SetMaxArrowRange
$LN2@LoadProper:

; 75   : 	}
; 76   : 
; 77   : 	m_bPiercingMove = rkLoader.LoadBool_e( "col_piercing_move", false );

  00308	6a 04		 push	 4
  0030a	c7 45 c0 8e 83
	87 b5		 mov	 DWORD PTR __k$595182[ebp], -1249410162 ; b587838eH
  00311	c7 45 c4 9d 85
	8e 98		 mov	 DWORD PTR __k$595182[ebp+4], -1735490147 ; 988e859dH
  00318	c7 45 c8 8e 85
	85 8d		 mov	 DWORD PTR __k$595182[ebp+8], -1920629362 ; 8d85858eH
  0031f	c7 45 cc b2 81
	84 9c		 mov	 DWORD PTR __k$595182[ebp+12], -1669037646 ; 9c8481b2H
  00326	8d 45 c0	 lea	 eax, DWORD PTR __k$595182[ebp]
  00329	66 c7 45 d0 88
	00		 mov	 WORD PTR __k$595182[ebp+16], 136 ; 00000088H
  0032f	59		 pop	 ecx
$LL649@LoadProper:
  00330	81 30 ed ec eb
	ea		 xor	 DWORD PTR [eax], -353637139 ; eaebecedH
  00336	83 c0 04	 add	 eax, 4
  00339	49		 dec	 ecx
  0033a	75 f4		 jne	 SHORT $LL649@LoadProper
  0033c	8b 8d b8 fe ff
	ff		 mov	 ecx, DWORD PTR _rkLoader$GSCopy$[ebp]
  00342	80 75 d0 ed	 xor	 BYTE PTR __k$595182[ebp+16], -19 ; ffffffedH
  00346	53		 push	 ebx
  00347	8d 45 c0	 lea	 eax, DWORD PTR __k$595182[ebp]
  0034a	50		 push	 eax
  0034b	ff 15 00 00 00
	00		 call	 DWORD PTR __imp_?LoadBool@ioINILoader@@QAE_NPBD_N@Z
  00351	88 86 f4 09 00
	00		 mov	 BYTE PTR [esi+2548], al

; 78   : }

  00357	e8 00 00 00 00	 call	 __EH_epilog3_GS
  0035c	c2 04 00	 ret	 4
_TEXT	ENDS
;	COMDAT text$x
text$x	SEGMENT
__unwindfunclet$?LoadProperty@ioUroborusWeapon@@UAEXAAVioINILoader@@@Z$0:
  00000	ff b5 b4 fe ff
	ff		 push	 DWORD PTR $T594475[ebp]
  00006	e8 00 00 00 00	 call	 ??3@YAXPAX@Z		; operator delete
  0000b	59		 pop	 ecx
  0000c	c3		 ret	 0
__ehhandler$?LoadProperty@ioUroborusWeapon@@UAEXAAVioINILoader@@@Z:
  0000d	8b 54 24 08	 mov	 edx, DWORD PTR [esp+8]
  00011	8d 42 0c	 lea	 eax, DWORD PTR [edx+12]
  00014	8b 8a b0 fe ff
	ff		 mov	 ecx, DWORD PTR [edx-336]
  0001a	33 c8		 xor	 ecx, eax
  0001c	e8 00 00 00 00	 call	 @__security_check_cookie@4
  00021	8b 4a fc	 mov	 ecx, DWORD PTR [edx-4]
  00024	33 c8		 xor	 ecx, eax
  00026	e8 00 00 00 00	 call	 @__security_check_cookie@4
  0002b	b8 00 00 00 00	 mov	 eax, OFFSET __ehfuncinfo$?LoadProperty@ioUroborusWeapon@@UAEXAAVioINILoader@@@Z
  00030	e9 00 00 00 00	 jmp	 ___CxxFrameHandler3
text$x	ENDS
?LoadProperty@ioUroborusWeapon@@UAEXAAVioINILoader@@@Z ENDP ; ioUroborusWeapon::LoadProperty
EXTRN	?GetExplosionEffectName@ioWeapon@@QBEABVioHashString@@XZ:PROC ; ioWeapon::GetExplosionEffectName
EXTRN	__imp_?GetCenter@ioOrientBox@@QBEABUD3DXVECTOR3@@XZ:PROC
; Function compile flags: /Ogsp
;	COMDAT ?TestMapCollision@ioUroborusWeapon@@UAE_NPAVioOpcodeShape@@PAVioPlayStage@@PBUD3DXMATRIX@@@Z
_TEXT	SEGMENT
_pShape$ = 8						; size = 4
_pStage$ = 12						; size = 4
_pShapeWorldMat$ = 16					; size = 4
?TestMapCollision@ioUroborusWeapon@@UAE_NPAVioOpcodeShape@@PAVioPlayStage@@PBUD3DXMATRIX@@@Z PROC ; ioUroborusWeapon::TestMapCollision, COMDAT
; _this$ = ecx

; 216  : {

  00000	55		 push	 ebp
  00001	8b ec		 mov	 ebp, esp
  00003	56		 push	 esi
  00004	8b f1		 mov	 esi, ecx

; 217  : 	//pShape        TRUE
; 218  : 	//     1   N   TestMapCollision()   
; 219  : 
; 220  : 	if( m_UroborusState != US_MOVE )

  00006	83 be 94 08 00
	00 00		 cmp	 DWORD PTR [esi+2196], 0
  0000d	74 04		 je	 SHORT $LN4@TestMapCol

; 221  : 		return true;

  0000f	b0 01		 mov	 al, 1
  00011	eb 7a		 jmp	 SHORT $LN5@TestMapCol
$LN4@TestMapCol:
  00013	53		 push	 ebx

; 222  : 
; 223  : 	if( pShape->TestIntersection( pShapeWorldMat, GetWorldAttackBox(true) ) )

  00014	8b 5d 08	 mov	 ebx, DWORD PTR _pShape$[ebp]
  00017	57		 push	 edi
  00018	8b 3b		 mov	 edi, DWORD PTR [ebx]
  0001a	6a 01		 push	 1
  0001c	e8 00 00 00 00	 call	 ?GetWorldAttackBox@ioWeapon@@QBEABVioOrientBox@@_N@Z ; ioWeapon::GetWorldAttackBox
  00021	50		 push	 eax
  00022	ff 75 10	 push	 DWORD PTR _pShapeWorldMat$[ebp]
  00025	8b cb		 mov	 ecx, ebx
  00027	ff 57 24	 call	 DWORD PTR [edi+36]
  0002a	84 c0		 test	 al, al
  0002c	74 5b		 je	 SHORT $LN3@TestMapCol

; 224  : 	{
; 225  : 		ioBaseChar *pOwner = GetOwner();

  0002e	8b ce		 mov	 ecx, esi
  00030	e8 00 00 00 00	 call	 ?GetOwner@ioWeapon@@QBEPAVioBaseChar@@XZ ; ioWeapon::GetOwner
  00035	8b f8		 mov	 edi, eax

; 226  : 		if( pOwner )

  00037	85 ff		 test	 edi, edi
  00039	74 4a		 je	 SHORT $LN1@TestMapCol

; 227  : 		{
; 228  : 			pStage->CreateMapEffect( GetExplosionEffectName(), GetWorldAttackBox(true).GetCenter(),GetScale() );

  0003b	8b ce		 mov	 ecx, esi
  0003d	e8 00 00 00 00	 call	 ?GetScale@ioWeapon@@QBEABUD3DXVECTOR3@@XZ ; ioWeapon::GetScale
  00042	50		 push	 eax
  00043	6a 01		 push	 1
  00045	8b ce		 mov	 ecx, esi
  00047	e8 00 00 00 00	 call	 ?GetWorldAttackBox@ioWeapon@@QBEABVioOrientBox@@_N@Z ; ioWeapon::GetWorldAttackBox
  0004c	8b c8		 mov	 ecx, eax
  0004e	ff 15 00 00 00
	00		 call	 DWORD PTR __imp_?GetCenter@ioOrientBox@@QBEABUD3DXVECTOR3@@XZ
  00054	50		 push	 eax
  00055	8b ce		 mov	 ecx, esi
  00057	e8 00 00 00 00	 call	 ?GetExplosionEffectName@ioWeapon@@QBEABVioHashString@@XZ ; ioWeapon::GetExplosionEffectName
  0005c	8b 4d 0c	 mov	 ecx, DWORD PTR _pStage$[ebp]
  0005f	50		 push	 eax
  00060	e8 00 00 00 00	 call	 ?CreateMapEffect@ioPlayStage@@QAEPAVioMapEffect@@ABVioHashString@@ABUD3DXVECTOR3@@1@Z ; ioPlayStage::CreateMapEffect

; 229  : 
; 230  : 			PlayWoundedSound( NULL );

  00065	8b 06		 mov	 eax, DWORD PTR [esi]
  00067	6a 00		 push	 0
  00069	8b ce		 mov	 ecx, esi
  0006b	ff 50 54	 call	 DWORD PTR [eax+84]

; 231  : 
; 232  : 			if( pOwner->IsNeedProcess() )

  0006e	8b 07		 mov	 eax, DWORD PTR [edi]
  00070	8b cf		 mov	 ecx, edi
  00072	ff 90 00 01 00
	00		 call	 DWORD PTR [eax+256]
  00078	84 c0		 test	 al, al
  0007a	74 09		 je	 SHORT $LN1@TestMapCol

; 233  : 				SetWaitState( true );

  0007c	6a 01		 push	 1
  0007e	8b ce		 mov	 ecx, esi
  00080	e8 00 00 00 00	 call	 ?SetWaitState@ioUroborusWeapon@@QAEX_N@Z ; ioUroborusWeapon::SetWaitState
$LN1@TestMapCol:

; 234  : 		}
; 235  : 
; 236  : 		return true;

  00085	b0 01		 mov	 al, 1
  00087	eb 02		 jmp	 SHORT $LN7@TestMapCol
$LN3@TestMapCol:

; 237  : 	}
; 238  : 
; 239  : 	return false;

  00089	32 c0		 xor	 al, al
$LN7@TestMapCol:
  0008b	5f		 pop	 edi
  0008c	5b		 pop	 ebx
$LN5@TestMapCol:
  0008d	5e		 pop	 esi

; 240  : }

  0008e	5d		 pop	 ebp
  0008f	c2 0c 00	 ret	 12			; 0000000cH
?TestMapCollision@ioUroborusWeapon@@UAE_NPAVioOpcodeShape@@PAVioPlayStage@@PBUD3DXMATRIX@@@Z ENDP ; ioUroborusWeapon::TestMapCollision
_TEXT	ENDS
PUBLIC	__$ArrayPad$
PUBLIC	?OnFloating@ioUroborusWeapon@@IAEXMPAVioPlayStage@@@Z ; ioUroborusWeapon::OnFloating
; Function compile flags: /Ogsp
;	COMDAT ?OnFloating@ioUroborusWeapon@@IAEXMPAVioPlayStage@@@Z
_TEXT	SEGMENT
_pOwner$ = -28						; size = 4
_fMaxRange$ = -24					; size = 4
_fMoveDist$ = -24					; size = 4
_value$595328 = -20					; size = 4
_value$595319 = -20					; size = 4
_value$595314 = -20					; size = 4
_vNewPos$ = -16						; size = 12
__$ArrayPad$ = -4					; size = 4
_fTimePerSec$ = 8					; size = 4
_pStage$ = 12						; size = 4
?OnFloating@ioUroborusWeapon@@IAEXMPAVioPlayStage@@@Z PROC ; ioUroborusWeapon::OnFloating, COMDAT
; _this$ = ecx

; 243  : {

  00000	55		 push	 ebp
  00001	8b ec		 mov	 ebp, esp
  00003	83 ec 1c	 sub	 esp, 28			; 0000001cH
  00006	a1 00 00 00 00	 mov	 eax, DWORD PTR ___security_cookie
  0000b	33 c5		 xor	 eax, ebp
  0000d	89 45 fc	 mov	 DWORD PTR __$ArrayPad$[ebp], eax
  00010	53		 push	 ebx
  00011	56		 push	 esi
  00012	8b 75 0c	 mov	 esi, DWORD PTR _pStage$[ebp]
  00015	8b d9		 mov	 ebx, ecx

; 244  : 	if( !CheckOwnerState() )

  00017	e8 00 00 00 00	 call	 ?CheckOwnerState@ioUroborusWeapon@@IAE_NXZ ; ioUroborusWeapon::CheckOwnerState

; 245  : 	{
; 246  : 		SetEndState( pStage, false );

  0001c	8b cb		 mov	 ecx, ebx
  0001e	84 c0		 test	 al, al
  00020	75 0d		 jne	 SHORT $LN4@OnFloating
  00022	6a 00		 push	 0
  00024	56		 push	 esi
  00025	e8 00 00 00 00	 call	 ?SetEndState@ioUroborusWeapon@@QAEXPAVioPlayStage@@_N@Z ; ioUroborusWeapon::SetEndState

; 247  : 		return;

  0002a	e9 62 01 00 00	 jmp	 $LN5@OnFloating
$LN4@OnFloating:
  0002f	57		 push	 edi

; 248  : 	}
; 249  : 
; 250  : 	ioBaseChar *pOwner = GetOwner();

  00030	e8 00 00 00 00	 call	 ?GetOwner@ioWeapon@@QBEPAVioBaseChar@@XZ ; ioWeapon::GetOwner

; 251  : 
; 252  : 	float fCurSpeed = GetMoveSpeed();

  00035	8b cb		 mov	 ecx, ebx
  00037	89 45 e4	 mov	 DWORD PTR _pOwner$[ebp], eax
  0003a	e8 00 00 00 00	 call	 ?GetMoveSpeed@ioUroborusWeapon@@IAEMXZ ; ioUroborusWeapon::GetMoveSpeed

; 253  : 	float fMoveDist = fCurSpeed * fTimePerSec;

  0003f	d8 4d 08	 fmul	 DWORD PTR _fTimePerSec$[ebp]

; 254  : 
; 255  : 	m_vPrePos = GetPosition();

  00042	8b 03		 mov	 eax, DWORD PTR [ebx]
  00044	8b cb		 mov	 ecx, ebx
  00046	d9 5d e8	 fstp	 DWORD PTR _fMoveDist$[ebp]
  00049	ff 50 70	 call	 DWORD PTR [eax+112]

; 256  : 	D3DXVECTOR3 vNewPos = m_vPrePos + (m_vMoveDir * fMoveDist);

  0004c	f3 0f 10 4d e8	 movss	 xmm1, DWORD PTR _fMoveDist$[ebp]
  00051	f3 0f 10 55 e8	 movss	 xmm2, DWORD PTR _fMoveDist$[ebp]
  00056	f3 0f 10 5d e8	 movss	 xmm3, DWORD PTR _fMoveDist$[ebp]
  0005b	8b f0		 mov	 esi, eax
  0005d	8d bb f0 08 00
	00		 lea	 edi, DWORD PTR [ebx+2288]
  00063	a5		 movsd
  00064	a5		 movsd
  00065	a5		 movsd
  00066	f3 0f 10 83 e4
	08 00 00	 movss	 xmm0, DWORD PTR [ebx+2276]
  0006e	0f 5a c0	 cvtps2pd xmm0, xmm0
  00071	0f 5a c9	 cvtps2pd xmm1, xmm1
  00074	f2 0f 59 c1	 mulsd	 xmm0, xmm1
  00078	f3 0f 10 8b e8
	08 00 00	 movss	 xmm1, DWORD PTR [ebx+2280]
  00080	66 0f 5a c0	 cvtpd2ps xmm0, xmm0
  00084	0f 5a c9	 cvtps2pd xmm1, xmm1
  00087	0f 5a d2	 cvtps2pd xmm2, xmm2
  0008a	f2 0f 59 ca	 mulsd	 xmm1, xmm2
  0008e	f3 0f 10 93 ec
	08 00 00	 movss	 xmm2, DWORD PTR [ebx+2284]
  00096	f3 0f 5a c0	 cvtss2sd xmm0, xmm0
  0009a	0f 5a db	 cvtps2pd xmm3, xmm3
  0009d	0f 5a d2	 cvtps2pd xmm2, xmm2
  000a0	f2 0f 59 d3	 mulsd	 xmm2, xmm3
  000a4	f3 0f 10 9b f0
	08 00 00	 movss	 xmm3, DWORD PTR [ebx+2288]
  000ac	0f 5a db	 cvtps2pd xmm3, xmm3
  000af	f2 0f 58 d8	 addsd	 xmm3, xmm0
  000b3	0f 57 c0	 xorps	 xmm0, xmm0
  000b6	66 0f 5a c3	 cvtpd2ps xmm0, xmm3
  000ba	f3 0f 11 45 f0	 movss	 DWORD PTR _vNewPos$[ebp], xmm0
  000bf	f3 0f 10 83 f4
	08 00 00	 movss	 xmm0, DWORD PTR [ebx+2292]
  000c7	0f 5a c0	 cvtps2pd xmm0, xmm0
  000ca	66 0f 5a c9	 cvtpd2ps xmm1, xmm1
  000ce	f3 0f 5a c9	 cvtss2sd xmm1, xmm1
  000d2	f2 0f 58 c1	 addsd	 xmm0, xmm1
  000d6	66 0f 5a c0	 cvtpd2ps xmm0, xmm0
  000da	f3 0f 11 45 f4	 movss	 DWORD PTR _vNewPos$[ebp+4], xmm0
  000df	f3 0f 10 83 f8
	08 00 00	 movss	 xmm0, DWORD PTR [ebx+2296]
  000e7	66 0f 5a d2	 cvtpd2ps xmm2, xmm2
  000eb	0f 5a c0	 cvtps2pd xmm0, xmm0
  000ee	0f 57 c9	 xorps	 xmm1, xmm1
  000f1	f3 0f 5a ca	 cvtss2sd xmm1, xmm2

; 257  : 	m_fCurMoveRange += fMoveDist;

  000f5	8d 45 ec	 lea	 eax, DWORD PTR _value$595314[ebp]
  000f8	f2 0f 58 c1	 addsd	 xmm0, xmm1
  000fc	66 0f 5a c0	 cvtpd2ps xmm0, xmm0
  00100	50		 push	 eax
  00101	8d 8b 50 09 00
	00		 lea	 ecx, DWORD PTR [ebx+2384]
  00107	f3 0f 11 45 f8	 movss	 DWORD PTR _vNewPos$[ebp+8], xmm0
  0010c	e8 00 00 00 00	 call	 ?DecryptValueToPool@?$CEncrypt@M@@QAEXPAM@Z ; CEncrypt<float>::DecryptValueToPool
  00111	d9 45 ec	 fld	 DWORD PTR _value$595314[ebp]
  00114	d8 45 e8	 fadd	 DWORD PTR _fMoveDist$[ebp]
  00117	8d 45 ec	 lea	 eax, DWORD PTR _value$595314[ebp]
  0011a	50		 push	 eax
  0011b	8d 8b 50 09 00
	00		 lea	 ecx, DWORD PTR [ebx+2384]
  00121	d9 5d ec	 fstp	 DWORD PTR _value$595314[ebp]
  00124	e8 00 00 00 00	 call	 ?EncryptValueToPool@?$CEncrypt@M@@AAEXPBD@Z ; CEncrypt<float>::EncryptValueToPool

; 258  : 
; 259  : 	float fMaxRange = GetMaxRange() + m_fGrowthMoveRange;

  00129	8d 45 ec	 lea	 eax, DWORD PTR _value$595319[ebp]
  0012c	50		 push	 eax
  0012d	8d 8b 60 03 00
	00		 lea	 ecx, DWORD PTR [ebx+864]
  00133	e8 00 00 00 00	 call	 ?DecryptValueToPool@?$CEncrypt@M@@QAEXPAM@Z ; CEncrypt<float>::DecryptValueToPool
  00138	8b cb		 mov	 ecx, ebx
  0013a	e8 00 00 00 00	 call	 ?GetMaxRange@ioUroborusWeapon@@IAEMXZ ; ioUroborusWeapon::GetMaxRange
  0013f	d8 45 ec	 fadd	 DWORD PTR _value$595319[ebp]

; 260  : 	if( m_fCurMoveRange < fMaxRange )

  00142	8d 45 ec	 lea	 eax, DWORD PTR _value$595328[ebp]
  00145	50		 push	 eax
  00146	8d 8b 50 09 00
	00		 lea	 ecx, DWORD PTR [ebx+2384]
  0014c	d9 5d e8	 fstp	 DWORD PTR _fMaxRange$[ebp]
  0014f	e8 00 00 00 00	 call	 ?DecryptValueToPool@?$CEncrypt@M@@QAEXPAM@Z ; CEncrypt<float>::DecryptValueToPool
  00154	d9 45 ec	 fld	 DWORD PTR _value$595328[ebp]
  00157	d9 45 e8	 fld	 DWORD PTR _fMaxRange$[ebp]
  0015a	5f		 pop	 edi
  0015b	df f1		 fcomip	 ST(1)
  0015d	dd d8		 fstp	 ST(0)
  0015f	76 0d		 jbe	 SHORT $LN3@OnFloating

; 261  : 	{
; 262  : 		SetPosition( vNewPos );

  00161	8d 45 f0	 lea	 eax, DWORD PTR _vNewPos$[ebp]
  00164	50		 push	 eax
  00165	8b cb		 mov	 ecx, ebx
  00167	e8 00 00 00 00	 call	 ?SetPosition@ioWeapon@@QAEXABUD3DXVECTOR3@@@Z ; ioWeapon::SetPosition

; 263  : 	}
; 264  : 	else

  0016c	eb 1c		 jmp	 SHORT $LN1@OnFloating
$LN3@OnFloating:

; 265  : 	{
; 266  : 		if( pOwner && pOwner->IsNeedProcess() )

  0016e	8b 4d e4	 mov	 ecx, DWORD PTR _pOwner$[ebp]
  00171	85 c9		 test	 ecx, ecx
  00173	74 15		 je	 SHORT $LN1@OnFloating
  00175	8b 01		 mov	 eax, DWORD PTR [ecx]
  00177	ff 90 00 01 00
	00		 call	 DWORD PTR [eax+256]
  0017d	84 c0		 test	 al, al
  0017f	74 09		 je	 SHORT $LN1@OnFloating

; 267  : 		{
; 268  : 			SetWaitState( true );

  00181	6a 01		 push	 1
  00183	8b cb		 mov	 ecx, ebx
  00185	e8 00 00 00 00	 call	 ?SetWaitState@ioUroborusWeapon@@QAEX_N@Z ; ioUroborusWeapon::SetWaitState
$LN1@OnFloating:

; 269  : 		}
; 270  : 	}
; 271  : 
; 272  : 	ProcessGuidArrow();

  0018a	8b cb		 mov	 ecx, ebx
  0018c	e8 00 00 00 00	 call	 ?ProcessGuidArrow@ioUroborusWeapon@@IAEXXZ ; ioUroborusWeapon::ProcessGuidArrow
$LN5@OnFloating:

; 273  : }

  00191	8b 4d fc	 mov	 ecx, DWORD PTR __$ArrayPad$[ebp]
  00194	5e		 pop	 esi
  00195	33 cd		 xor	 ecx, ebp
  00197	5b		 pop	 ebx
  00198	e8 00 00 00 00	 call	 @__security_check_cookie@4
  0019d	c9		 leave
  0019e	c2 08 00	 ret	 8
?OnFloating@ioUroborusWeapon@@IAEXMPAVioPlayStage@@@Z ENDP ; ioUroborusWeapon::OnFloating
_TEXT	ENDS
EXTRN	??5SP2Packet@@QAEAAV0@AAH@Z:PROC		; SP2Packet::operator>>
; Function compile flags: /Ogsp
;	COMDAT ?ApplyWeaponSync@ioUroborusWeapon@@UAEXAAVSP2Packet@@PAVioPlayStage@@@Z
_TEXT	SEGMENT
_iState$ = 8						; size = 4
_rkPacket$ = 8						; size = 4
_pStage$ = 12						; size = 4
?ApplyWeaponSync@ioUroborusWeapon@@UAEXAAVSP2Packet@@PAVioPlayStage@@@Z PROC ; ioUroborusWeapon::ApplyWeaponSync, COMDAT
; _this$ = ecx

; 373  : {

  00000	55		 push	 ebp
  00001	8b ec		 mov	 ebp, esp
  00003	56		 push	 esi

; 374  : 	int iState;
; 375  : 	rkPacket >> iState;

  00004	8d 45 08	 lea	 eax, DWORD PTR _iState$[ebp]
  00007	8b f1		 mov	 esi, ecx
  00009	8b 4d 08	 mov	 ecx, DWORD PTR _rkPacket$[ebp]
  0000c	50		 push	 eax
  0000d	e8 00 00 00 00	 call	 ??5SP2Packet@@QAEAAV0@AAH@Z ; SP2Packet::operator>>

; 376  : 
; 377  : 	switch( iState )

  00012	8b 45 08	 mov	 eax, DWORD PTR _iState$[ebp]
  00015	48		 dec	 eax
  00016	74 10		 je	 SHORT $LN2@ApplyWeapo
  00018	48		 dec	 eax
  00019	75 16		 jne	 SHORT $LN3@ApplyWeapo

; 381  : 		break;
; 382  : 	case US_END:
; 383  : 		SetEndState( pStage, false );

  0001b	50		 push	 eax
  0001c	ff 75 0c	 push	 DWORD PTR _pStage$[ebp]
  0001f	8b ce		 mov	 ecx, esi
  00021	e8 00 00 00 00	 call	 ?SetEndState@ioUroborusWeapon@@QAEXPAVioPlayStage@@_N@Z ; ioUroborusWeapon::SetEndState

; 384  : 		break;

  00026	eb 09		 jmp	 SHORT $LN3@ApplyWeapo
$LN2@ApplyWeapo:

; 378  : 	{
; 379  : 	case US_WAIT:
; 380  : 		SetWaitState( false );

  00028	6a 00		 push	 0
  0002a	8b ce		 mov	 ecx, esi
  0002c	e8 00 00 00 00	 call	 ?SetWaitState@ioUroborusWeapon@@QAEX_N@Z ; ioUroborusWeapon::SetWaitState
$LN3@ApplyWeapo:
  00031	5e		 pop	 esi

; 385  : 	}
; 386  : }

  00032	5d		 pop	 ebp
  00033	c2 08 00	 ret	 8
?ApplyWeaponSync@ioUroborusWeapon@@UAEXAAVSP2Packet@@PAVioPlayStage@@@Z ENDP ; ioUroborusWeapon::ApplyWeaponSync
_TEXT	ENDS
EXTRN	__imp_?IsLive@ioEffect@@QBE_NXZ:PROC
; Function compile flags: /Ogsp
;	COMDAT ?Process@ioUroborusWeapon@@UAEXMPAVioPlayStage@@@Z
_TEXT	SEGMENT
_fTimePerSec$ = 8					; size = 4
tv210 = 12						; size = 4
tv207 = 12						; size = 4
_pStage$ = 12						; size = 4
?Process@ioUroborusWeapon@@UAEXMPAVioPlayStage@@@Z PROC	; ioUroborusWeapon::Process, COMDAT
; _this$ = ecx

; 177  : {

  00000	55		 push	 ebp
  00001	8b ec		 mov	 ebp, esp
  00003	56		 push	 esi
  00004	8b f1		 mov	 esi, ecx

; 178  : 	if( !CheckPiercing() )

  00006	8b 06		 mov	 eax, DWORD PTR [esi]
  00008	6a 00		 push	 0
  0000a	ff 90 48 01 00
	00		 call	 DWORD PTR [eax+328]
  00010	84 c0		 test	 al, al
  00012	0f 84 c5 00 00
	00		 je	 $LN12@Process

; 179  : 		return;
; 180  : 
; 181  : 	if( CheckOwnerUroborusState() )

  00018	8b ce		 mov	 ecx, esi
  0001a	e8 00 00 00 00	 call	 ?CheckOwnerUroborusState@ioUroborusWeapon@@IAE_NXZ ; ioUroborusWeapon::CheckOwnerUroborusState
  0001f	f3 0f 10 45 08	 movss	 xmm0, DWORD PTR _fTimePerSec$[ebp]
  00024	84 c0		 test	 al, al

; 182  : 	{
; 183  : 		OnWaiting( fTimePerSec, pStage );
; 184  : 	}
; 185  : 	else

  00026	75 45		 jne	 SHORT $LN5@Process

; 186  : 	{
; 187  : 		switch( m_UroborusState )

  00028	8b 86 94 08 00
	00		 mov	 eax, DWORD PTR [esi+2196]
  0002e	83 e8 00	 sub	 eax, 0
  00031	74 4c		 je	 SHORT $LN6@Process
  00033	48		 dec	 eax
  00034	74 37		 je	 SHORT $LN5@Process
  00036	48		 dec	 eax
  00037	75 56		 jne	 SHORT $LN16@Process

; 195  : 		case US_END:
; 196  : 			if( !m_pFireMesh || !m_pFireMesh->IsLive() )

  00039	8b 8e 98 08 00
	00		 mov	 ecx, DWORD PTR [esi+2200]
  0003f	85 c9		 test	 ecx, ecx
  00041	74 0a		 je	 SHORT $LN2@Process
  00043	ff 15 00 00 00
	00		 call	 DWORD PTR __imp_?IsLive@ioEffect@@QBE_NXZ
  00049	84 c0		 test	 al, al
  0004b	75 42		 jne	 SHORT $LN16@Process
$LN2@Process:

; 197  : 			{
; 198  : 				CheckCreateWeaponList();

  0004d	8b 06		 mov	 eax, DWORD PTR [esi]
  0004f	8b ce		 mov	 ecx, esi
  00051	ff 90 50 01 00
	00		 call	 DWORD PTR [eax+336]

; 199  : 				DestroyResource( pStage );

  00057	ff 75 0c	 push	 DWORD PTR _pStage$[ebp]
  0005a	8b 06		 mov	 eax, DWORD PTR [esi]
  0005c	8b ce		 mov	 ecx, esi
  0005e	ff 90 9c 00 00
	00		 call	 DWORD PTR [eax+156]

; 200  : 				SetWeaponDead();

  00064	8b 06		 mov	 eax, DWORD PTR [esi]
  00066	8b ce		 mov	 ecx, esi
  00068	ff 50 4c	 call	 DWORD PTR [eax+76]

; 201  : 				return;

  0006b	eb 70		 jmp	 SHORT $LN12@Process
$LN5@Process:

; 191  : 			break;
; 192  : 		case US_WAIT:
; 193  : 			OnWaiting( fTimePerSec, pStage );

  0006d	ff 75 0c	 push	 DWORD PTR _pStage$[ebp]
  00070	51		 push	 ecx
  00071	8b ce		 mov	 ecx, esi
  00073	f3 0f 11 04 24	 movss	 DWORD PTR [esp], xmm0
  00078	e8 00 00 00 00	 call	 ?OnWaiting@ioUroborusWeapon@@IAEXMPAVioPlayStage@@@Z ; ioUroborusWeapon::OnWaiting

; 194  : 			break;

  0007d	eb 10		 jmp	 SHORT $LN16@Process
$LN6@Process:

; 188  : 		{
; 189  : 		case US_MOVE:
; 190  : 			OnFloating( fTimePerSec, pStage );

  0007f	ff 75 0c	 push	 DWORD PTR _pStage$[ebp]
  00082	51		 push	 ecx
  00083	8b ce		 mov	 ecx, esi
  00085	f3 0f 11 04 24	 movss	 DWORD PTR [esp], xmm0
  0008a	e8 00 00 00 00	 call	 ?OnFloating@ioUroborusWeapon@@IAEXMPAVioPlayStage@@@Z ; ioUroborusWeapon::OnFloating
$LN16@Process:

; 202  : 			}
; 203  : 			break;
; 204  : 		}
; 205  : 	}
; 206  : 
; 207  : 	if( m_pFireMesh )

  0008f	8d 8e 98 08 00
	00		 lea	 ecx, DWORD PTR [esi+2200]
  00095	83 39 00	 cmp	 DWORD PTR [ecx], 0
  00098	74 2c		 je	 SHORT $LN1@Process

; 208  : 	{
; 209  : 		m_pFireMesh->Update( fTimePerSec * FLOAT1000 );

  0009a	b8 e8 03 00 00	 mov	 eax, 1000		; 000003e8H
  0009f	8b 09		 mov	 ecx, DWORD PTR [ecx]
  000a1	83 c1 14	 add	 ecx, 20			; 00000014H
  000a4	8b 11		 mov	 edx, DWORD PTR [ecx]
  000a6	89 45 0c	 mov	 DWORD PTR tv210[ebp], eax
  000a9	db 45 0c	 fild	 DWORD PTR tv210[ebp]
  000ac	85 c0		 test	 eax, eax
  000ae	79 06		 jns	 SHORT $LN17@Process
  000b0	d8 05 00 00 00
	00		 fadd	 DWORD PTR __real@4f800000
$LN17@Process:
  000b6	d8 4d 08	 fmul	 DWORD PTR _fTimePerSec$[ebp]
  000b9	51		 push	 ecx
  000ba	d9 5d 0c	 fstp	 DWORD PTR tv207[ebp]
  000bd	d9 45 0c	 fld	 DWORD PTR tv207[ebp]
  000c0	d9 1c 24	 fstp	 DWORD PTR [esp]
  000c3	ff 52 40	 call	 DWORD PTR [edx+64]
$LN1@Process:

; 210  : 	}
; 211  : 
; 212  : 	UpdateWorldAttackBox( fTimePerSec, false );

  000c6	f3 0f 10 45 08	 movss	 xmm0, DWORD PTR _fTimePerSec$[ebp]
  000cb	8b 06		 mov	 eax, DWORD PTR [esi]
  000cd	6a 00		 push	 0
  000cf	51		 push	 ecx
  000d0	8b ce		 mov	 ecx, esi
  000d2	f3 0f 11 04 24	 movss	 DWORD PTR [esp], xmm0
  000d7	ff 90 38 01 00
	00		 call	 DWORD PTR [eax+312]
$LN12@Process:
  000dd	5e		 pop	 esi

; 213  : }

  000de	5d		 pop	 ebp
  000df	c2 08 00	 ret	 8
?Process@ioUroborusWeapon@@UAEXMPAVioPlayStage@@@Z ENDP	; ioUroborusWeapon::Process
_TEXT	ENDS
END
