; Listing generated by Microsoft (R) Optimizing Compiler Version 16.00.30319.01 

	TITLE	D:\Lost Saga For Developer\Youtube\Tutorial\Source\src\LSClient\GUI\ioUserInfoMgr.cpp
	.686P
	.XMM
	include listing.inc
	.model	flat

INCLUDELIB MSVCRT
INCLUDELIB OLDNAMES

PUBLIC	?ms_Singleton@?$Singleton@VioUserInfoMgr@@@@1PAVioUserInfoMgr@@A ; Singleton<ioUserInfoMgr>::ms_Singleton
;	COMDAT ?ms_Singleton@?$Singleton@VioUserInfoMgr@@@@1PAVioUserInfoMgr@@A
_BSS	SEGMENT
?ms_Singleton@?$Singleton@VioUserInfoMgr@@@@1PAVioUserInfoMgr@@A DD 01H DUP (?) ; Singleton<ioUserInfoMgr>::ms_Singleton
_BSS	ENDS
PUBLIC	?return5@@YAIXZ					; return5
; Function compile flags: /Ogsp
; File d:\lost saga for developer\youtube\tutorial\source\src\lsclient\stdafx.h
;	COMDAT ?return5@@YAIXZ
_TEXT	SEGMENT
?return5@@YAIXZ PROC					; return5, COMDAT

; 18   : 	__forceinline unsigned int return5() { __asm mov eax, 5 };

  00000	b8 05 00 00 00	 mov	 eax, 5
  00005	c3		 ret	 0
?return5@@YAIXZ ENDP					; return5
_TEXT	ENDS
PUBLIC	?return10@@YAIXZ				; return10
; Function compile flags: /Ogsp
;	COMDAT ?return10@@YAIXZ
_TEXT	SEGMENT
?return10@@YAIXZ PROC					; return10, COMDAT

; 21   : 	__forceinline unsigned int return10() { __asm mov eax, 10 };

  00000	b8 0a 00 00 00	 mov	 eax, 10			; 0000000aH
  00005	c3		 ret	 0
?return10@@YAIXZ ENDP					; return10
_TEXT	ENDS
PUBLIC	?return100@@YAIXZ				; return100
; Function compile flags: /Ogsp
;	COMDAT ?return100@@YAIXZ
_TEXT	SEGMENT
?return100@@YAIXZ PROC					; return100, COMDAT

; 25   : 	__forceinline unsigned int return100() { __asm mov eax, 100 };

  00000	b8 64 00 00 00	 mov	 eax, 100		; 00000064H
  00005	c3		 ret	 0
?return100@@YAIXZ ENDP					; return100
_TEXT	ENDS
PUBLIC	?SetLeaderMotion@UserInfoCharData@@QAEXK@Z	; UserInfoCharData::SetLeaderMotion
; Function compile flags: /Ogsp
; File d:\lost saga for developer\youtube\tutorial\source\src\lsclient\gui\iouserinfomgr.cpp
;	COMDAT ?SetLeaderMotion@UserInfoCharData@@QAEXK@Z
_TEXT	SEGMENT
_dwEtcItem$ = 8						; size = 4
?SetLeaderMotion@UserInfoCharData@@QAEXK@Z PROC		; UserInfoCharData::SetLeaderMotion, COMDAT
; _this$ = ecx

; 207  : {

  00000	55		 push	 ebp
  00001	8b ec		 mov	 ebp, esp

; 208  : 	m_dwLeaderMotion = dwEtcItem;

  00003	8b 45 08	 mov	 eax, DWORD PTR _dwEtcItem$[ebp]
  00006	89 81 d4 03 00
	00		 mov	 DWORD PTR [ecx+980], eax

; 209  : 	m_LeaderCharData.m_dwMotionEtcItem = dwEtcItem;

  0000c	89 41 14	 mov	 DWORD PTR [ecx+20], eax

; 210  : 	m_LeaderCharData.m_bChangeData = true;

  0000f	c6 81 cc 03 00
	00 01		 mov	 BYTE PTR [ecx+972], 1

; 211  : }

  00016	5d		 pop	 ebp
  00017	c2 04 00	 ret	 4
?SetLeaderMotion@UserInfoCharData@@QAEXK@Z ENDP		; UserInfoCharData::SetLeaderMotion
_TEXT	ENDS
PUBLIC	?GetMaxChar@UserInfoCharData@@QAEHXZ		; UserInfoCharData::GetMaxChar
; Function compile flags: /Ogsp
;	COMDAT ?GetMaxChar@UserInfoCharData@@QAEHXZ
_TEXT	SEGMENT
?GetMaxChar@UserInfoCharData@@QAEHXZ PROC		; UserInfoCharData::GetMaxChar, COMDAT
; _this$ = ecx

; 250  : 	return m_iMaxVirtualCharCount;

  00000	8b 81 e0 03 00
	00		 mov	 eax, DWORD PTR [ecx+992]

; 251  : }

  00006	c3		 ret	 0
?GetMaxChar@UserInfoCharData@@QAEHXZ ENDP		; UserInfoCharData::GetMaxChar
_TEXT	ENDS
PUBLIC	??_7bad_alloc@std@@6B@				; std::bad_alloc::`vftable'
PUBLIC	??0bad_alloc@std@@QAE@PBD@Z			; std::bad_alloc::bad_alloc
PUBLIC	??_R4bad_alloc@std@@6B@				; std::bad_alloc::`RTTI Complete Object Locator'
PUBLIC	??_R0?AVbad_alloc@std@@@8			; std::bad_alloc `RTTI Type Descriptor'
PUBLIC	??_R3bad_alloc@std@@8				; std::bad_alloc::`RTTI Class Hierarchy Descriptor'
PUBLIC	??_R2bad_alloc@std@@8				; std::bad_alloc::`RTTI Base Class Array'
PUBLIC	??_R1A@?0A@EA@bad_alloc@std@@8			; std::bad_alloc::`RTTI Base Class Descriptor at (0,-1,0,64)'
PUBLIC	??_R1A@?0A@EA@exception@std@@8			; std::exception::`RTTI Base Class Descriptor at (0,-1,0,64)'
PUBLIC	??_R0?AVexception@std@@@8			; std::exception `RTTI Type Descriptor'
PUBLIC	??_R3exception@std@@8				; std::exception::`RTTI Class Hierarchy Descriptor'
PUBLIC	??_R2exception@std@@8				; std::exception::`RTTI Base Class Array'
EXTRN	__imp_??0exception@std@@QAE@ABQBD@Z:PROC
EXTRN	??_7type_info@@6B@:QWORD			; type_info::`vftable'
EXTRN	??_Ebad_alloc@std@@UAEPAXI@Z:PROC		; std::bad_alloc::`vector deleting destructor'
EXTRN	?what@exception@std@@UBEPBDXZ:PROC		; std::exception::what
;	COMDAT ??_R2exception@std@@8
; File c:\program files (x86)\microsoft visual studio 10.0\vc\include\exception
rdata$r	SEGMENT
??_R2exception@std@@8 DD FLAT:??_R1A@?0A@EA@exception@std@@8 ; std::exception::`RTTI Base Class Array'
rdata$r	ENDS
;	COMDAT ??_R3exception@std@@8
rdata$r	SEGMENT
??_R3exception@std@@8 DD 00H				; std::exception::`RTTI Class Hierarchy Descriptor'
	DD	00H
	DD	01H
	DD	FLAT:??_R2exception@std@@8
rdata$r	ENDS
;	COMDAT ??_R0?AVexception@std@@@8
_DATA	SEGMENT
??_R0?AVexception@std@@@8 DD FLAT:??_7type_info@@6B@	; std::exception `RTTI Type Descriptor'
	DD	00H
	DB	'.?AVexception@std@@', 00H
_DATA	ENDS
;	COMDAT ??_R1A@?0A@EA@exception@std@@8
rdata$r	SEGMENT
??_R1A@?0A@EA@exception@std@@8 DD FLAT:??_R0?AVexception@std@@@8 ; std::exception::`RTTI Base Class Descriptor at (0,-1,0,64)'
	DD	00H
	DD	00H
	DD	0ffffffffH
	DD	00H
	DD	040H
	DD	FLAT:??_R3exception@std@@8
rdata$r	ENDS
;	COMDAT ??_R1A@?0A@EA@bad_alloc@std@@8
rdata$r	SEGMENT
??_R1A@?0A@EA@bad_alloc@std@@8 DD FLAT:??_R0?AVbad_alloc@std@@@8 ; std::bad_alloc::`RTTI Base Class Descriptor at (0,-1,0,64)'
	DD	01H
	DD	00H
	DD	0ffffffffH
	DD	00H
	DD	040H
	DD	FLAT:??_R3bad_alloc@std@@8
rdata$r	ENDS
;	COMDAT ??_R2bad_alloc@std@@8
rdata$r	SEGMENT
??_R2bad_alloc@std@@8 DD FLAT:??_R1A@?0A@EA@bad_alloc@std@@8 ; std::bad_alloc::`RTTI Base Class Array'
	DD	FLAT:??_R1A@?0A@EA@exception@std@@8
rdata$r	ENDS
;	COMDAT ??_R3bad_alloc@std@@8
rdata$r	SEGMENT
??_R3bad_alloc@std@@8 DD 00H				; std::bad_alloc::`RTTI Class Hierarchy Descriptor'
	DD	00H
	DD	02H
	DD	FLAT:??_R2bad_alloc@std@@8
rdata$r	ENDS
;	COMDAT ??_R0?AVbad_alloc@std@@@8
_DATA	SEGMENT
??_R0?AVbad_alloc@std@@@8 DD FLAT:??_7type_info@@6B@	; std::bad_alloc `RTTI Type Descriptor'
	DD	00H
	DB	'.?AVbad_alloc@std@@', 00H
_DATA	ENDS
;	COMDAT ??_R4bad_alloc@std@@6B@
rdata$r	SEGMENT
??_R4bad_alloc@std@@6B@ DD 00H				; std::bad_alloc::`RTTI Complete Object Locator'
	DD	00H
	DD	00H
	DD	FLAT:??_R0?AVbad_alloc@std@@@8
	DD	FLAT:??_R3bad_alloc@std@@8
rdata$r	ENDS
;	COMDAT ??_7bad_alloc@std@@6B@
CONST	SEGMENT
??_7bad_alloc@std@@6B@ DD FLAT:??_R4bad_alloc@std@@6B@	; std::bad_alloc::`vftable'
	DD	FLAT:??_Ebad_alloc@std@@UAEPAXI@Z
	DD	FLAT:?what@exception@std@@UBEPBDXZ
; Function compile flags: /Ogsp
CONST	ENDS
;	COMDAT ??0bad_alloc@std@@QAE@PBD@Z
_TEXT	SEGMENT
__Message$ = 8						; size = 4
??0bad_alloc@std@@QAE@PBD@Z PROC			; std::bad_alloc::bad_alloc, COMDAT
; _this$ = ecx

; 345  : 		{	// construct from message string

  00000	55		 push	 ebp
  00001	8b ec		 mov	 ebp, esp
  00003	56		 push	 esi
  00004	8d 45 08	 lea	 eax, DWORD PTR __Message$[ebp]
  00007	50		 push	 eax
  00008	8b f1		 mov	 esi, ecx
  0000a	ff 15 00 00 00
	00		 call	 DWORD PTR __imp_??0exception@std@@QAE@ABQBD@Z
  00010	c7 06 00 00 00
	00		 mov	 DWORD PTR [esi], OFFSET ??_7bad_alloc@std@@6B@

; 346  : 		}

  00016	8b c6		 mov	 eax, esi
  00018	5e		 pop	 esi
  00019	5d		 pop	 ebp
  0001a	c2 04 00	 ret	 4
??0bad_alloc@std@@QAE@PBD@Z ENDP			; std::bad_alloc::bad_alloc
_TEXT	ENDS
PUBLIC	??1bad_alloc@std@@UAE@XZ			; std::bad_alloc::~bad_alloc
EXTRN	__imp_??1exception@std@@UAE@XZ:PROC
; Function compile flags: /Ogsp
;	COMDAT ??1bad_alloc@std@@UAE@XZ
_TEXT	SEGMENT
??1bad_alloc@std@@UAE@XZ PROC				; std::bad_alloc::~bad_alloc, COMDAT
; _this$ = ecx

; 354  : 		{	// destroy the object

  00000	c7 01 00 00 00
	00		 mov	 DWORD PTR [ecx], OFFSET ??_7bad_alloc@std@@6B@

; 355  : 		}

  00006	ff 25 00 00 00
	00		 jmp	 DWORD PTR __imp_??1exception@std@@UAE@XZ
??1bad_alloc@std@@UAE@XZ ENDP				; std::bad_alloc::~bad_alloc
_TEXT	ENDS
EXTRN	??3@YAXPAX@Z:PROC				; operator delete
; Function compile flags: /Ogsp
;	COMDAT ??_Gbad_alloc@std@@UAEPAXI@Z
_TEXT	SEGMENT
___flags$ = 8						; size = 4
??_Gbad_alloc@std@@UAEPAXI@Z PROC			; std::bad_alloc::`scalar deleting destructor', COMDAT
; _this$ = ecx
  00000	55		 push	 ebp
  00001	8b ec		 mov	 ebp, esp
  00003	56		 push	 esi
  00004	8b f1		 mov	 esi, ecx
  00006	c7 06 00 00 00
	00		 mov	 DWORD PTR [esi], OFFSET ??_7bad_alloc@std@@6B@
  0000c	ff 15 00 00 00
	00		 call	 DWORD PTR __imp_??1exception@std@@UAE@XZ
  00012	f6 45 08 01	 test	 BYTE PTR ___flags$[ebp], 1
  00016	74 07		 je	 SHORT $LN1@scalar
  00018	56		 push	 esi
  00019	e8 00 00 00 00	 call	 ??3@YAXPAX@Z		; operator delete
  0001e	59		 pop	 ecx
$LN1@scalar:
  0001f	8b c6		 mov	 eax, esi
  00021	5e		 pop	 esi
  00022	5d		 pop	 ebp
  00023	c2 04 00	 ret	 4
??_Gbad_alloc@std@@UAEPAXI@Z ENDP			; std::bad_alloc::`scalar deleting destructor'
_TEXT	ENDS
PUBLIC	??2@YAPAXIPAX@Z					; operator new
; Function compile flags: /Ogsp
; File c:\program files (x86)\microsoft visual studio 10.0\vc\include\new
;	COMDAT ??2@YAPAXIPAX@Z
_TEXT	SEGMENT
___formal$ = 8						; size = 4
__Where$ = 12						; size = 4
??2@YAPAXIPAX@Z PROC					; operator new, COMDAT

; 56   : 	{	// construct array with placement at _Where

  00000	55		 push	 ebp
  00001	8b ec		 mov	 ebp, esp

; 57   : 	return (_Where);

  00003	8b 45 0c	 mov	 eax, DWORD PTR __Where$[ebp]

; 58   : 	}

  00006	5d		 pop	 ebp
  00007	c3		 ret	 0
??2@YAPAXIPAX@Z ENDP					; operator new
_TEXT	ENDS
PUBLIC	??3@YAXPAX0@Z					; operator delete
; Function compile flags: /Ogsp
;	COMDAT ??3@YAXPAX0@Z
_TEXT	SEGMENT
___formal$ = 8						; size = 4
___formal$ = 12						; size = 4
??3@YAXPAX0@Z PROC					; operator delete, COMDAT

; 62   : 	}

  00000	c3		 ret	 0
??3@YAXPAX0@Z ENDP					; operator delete
_TEXT	ENDS
PUBLIC	__real@4f800000
PUBLIC	?GetPartyExp@UserInfoNode@@QAEHXZ		; UserInfoNode::GetPartyExp
EXTRN	?GetNextPartyupExp@ioMyLevelMgr@@QAE_JH@Z:PROC	; ioMyLevelMgr::GetNextPartyupExp
EXTRN	?GetSingleton@ioMyLevelMgr@@SAAAV1@XZ:PROC	; ioMyLevelMgr::GetSingleton
EXTRN	__fltused:DWORD
EXTRN	__ftol2_sse:PROC
;	COMDAT __real@4f800000
; File d:\lost saga for developer\youtube\tutorial\source\src\lsclient\stdafx.h
CONST	SEGMENT
__real@4f800000 DD 04f800000r			; 4.29497e+009
; Function compile flags: /Ogsp
; File d:\lost saga for developer\youtube\tutorial\source\src\lsclient\gui\iouserinfomgr.cpp
CONST	ENDS
;	COMDAT ?GetPartyExp@UserInfoNode@@QAEHXZ
_TEXT	SEGMENT
tv151 = -16						; size = 8
_iPrevExp$ = -16					; size = 8
tv153 = -12						; size = 4
tv135 = -12						; size = 4
_iNeedExp$ = -8						; size = 8
_fRate$514125 = -4					; size = 4
?GetPartyExp@UserInfoNode@@QAEHXZ PROC			; UserInfoNode::GetPartyExp, COMDAT
; _this$ = ecx

; 558  : {

  00000	55		 push	 ebp
  00001	8b ec		 mov	 ebp, esp
  00003	83 ec 10	 sub	 esp, 16			; 00000010H
  00006	53		 push	 ebx

; 559  : 	int iTmpLevel     = m_iPartyLevel;

  00007	8b 59 20	 mov	 ebx, DWORD PTR [ecx+32]
  0000a	56		 push	 esi

; 560  : 	__int64 iTmpExp   = m_iPartyExp;

  0000b	8b 71 28	 mov	 esi, DWORD PTR [ecx+40]
  0000e	57		 push	 edi
  0000f	8b 79 2c	 mov	 edi, DWORD PTR [ecx+44]

; 561  : 
; 562  : 	__int64 iPrevExp = g_LevelMgr.GetNextPartyupExp( iTmpLevel - 1 );

  00012	8d 43 ff	 lea	 eax, DWORD PTR [ebx-1]
  00015	50		 push	 eax
  00016	e8 00 00 00 00	 call	 ?GetSingleton@ioMyLevelMgr@@SAAAV1@XZ ; ioMyLevelMgr::GetSingleton
  0001b	8b c8		 mov	 ecx, eax
  0001d	e8 00 00 00 00	 call	 ?GetNextPartyupExp@ioMyLevelMgr@@QAE_JH@Z ; ioMyLevelMgr::GetNextPartyupExp

; 563  : 	__int64 iNeedExp = g_LevelMgr.GetNextPartyupExp( iTmpLevel ) - iPrevExp;

  00022	53		 push	 ebx
  00023	89 45 f0	 mov	 DWORD PTR _iPrevExp$[ebp], eax
  00026	89 55 f4	 mov	 DWORD PTR _iPrevExp$[ebp+4], edx
  00029	e8 00 00 00 00	 call	 ?GetSingleton@ioMyLevelMgr@@SAAAV1@XZ ; ioMyLevelMgr::GetSingleton
  0002e	8b c8		 mov	 ecx, eax
  00030	e8 00 00 00 00	 call	 ?GetNextPartyupExp@ioMyLevelMgr@@QAE_JH@Z ; ioMyLevelMgr::GetNextPartyupExp
  00035	2b 45 f0	 sub	 eax, DWORD PTR _iPrevExp$[ebp]
  00038	1b 55 f4	 sbb	 edx, DWORD PTR _iPrevExp$[ebp+4]
  0003b	89 45 f8	 mov	 DWORD PTR _iNeedExp$[ebp], eax
  0003e	89 55 fc	 mov	 DWORD PTR _iNeedExp$[ebp+4], edx

; 564  : 
; 565  : 	if( iNeedExp > 0 )

  00041	78 63		 js	 SHORT $LN1@GetPartyEx
  00043	7f 04		 jg	 SHORT $LN10@GetPartyEx
  00045	85 c0		 test	 eax, eax
  00047	74 5d		 je	 SHORT $LN1@GetPartyEx
$LN10@GetPartyEx:

; 566  : 	{
; 567  : 		__int64 iCurExp = ( iTmpExp - iPrevExp );

  00049	2b 75 f0	 sub	 esi, DWORD PTR _iPrevExp$[ebp]
  0004c	1b 7d f4	 sbb	 edi, DWORD PTR _iPrevExp$[ebp+4]

; 568  : 		float fRate = (float)iCurExp / (float)iNeedExp;

  0004f	89 75 f0	 mov	 DWORD PTR tv151[ebp], esi
  00052	89 7d f4	 mov	 DWORD PTR tv151[ebp+4], edi
  00055	df 6d f0	 fild	 QWORD PTR tv151[ebp]
  00058	df 6d f8	 fild	 QWORD PTR _iNeedExp$[ebp]
  0005b	de f9		 fdivp	 ST(1), ST(0)
  0005d	d9 5d fc	 fstp	 DWORD PTR _fRate$514125[ebp]

; 569  : 
; 570  : 		return min( 99, (int)( FLOAT100 * fRate ) );

  00060	b8 64 00 00 00	 mov	 eax, 100		; 00000064H
  00065	89 45 f4	 mov	 DWORD PTR tv135[ebp], eax
  00068	db 45 f4	 fild	 DWORD PTR tv135[ebp]
  0006b	85 c0		 test	 eax, eax
  0006d	79 06		 jns	 SHORT $LN11@GetPartyEx
  0006f	d8 05 00 00 00
	00		 fadd	 DWORD PTR __real@4f800000
$LN11@GetPartyEx:
  00075	d8 4d fc	 fmul	 DWORD PTR _fRate$514125[ebp]
  00078	e8 00 00 00 00	 call	 __ftol2_sse
  0007d	83 f8 63	 cmp	 eax, 99			; 00000063H
  00080	7e 05		 jle	 SHORT $LN4@GetPartyEx
  00082	6a 63		 push	 99			; 00000063H
  00084	58		 pop	 eax
  00085	eb 21		 jmp	 SHORT $LN2@GetPartyEx
$LN4@GetPartyEx:
  00087	b8 64 00 00 00	 mov	 eax, 100		; 00000064H
  0008c	89 45 f4	 mov	 DWORD PTR tv153[ebp], eax
  0008f	db 45 f4	 fild	 DWORD PTR tv153[ebp]
  00092	85 c0		 test	 eax, eax
  00094	79 06		 jns	 SHORT $LN12@GetPartyEx
  00096	d8 05 00 00 00
	00		 fadd	 DWORD PTR __real@4f800000
$LN12@GetPartyEx:
  0009c	d8 4d fc	 fmul	 DWORD PTR _fRate$514125[ebp]
  0009f	e8 00 00 00 00	 call	 __ftol2_sse
  000a4	eb 02		 jmp	 SHORT $LN2@GetPartyEx
$LN1@GetPartyEx:

; 571  : 	}
; 572  : 	return 0;

  000a6	33 c0		 xor	 eax, eax
$LN2@GetPartyEx:
  000a8	5f		 pop	 edi
  000a9	5e		 pop	 esi
  000aa	5b		 pop	 ebx

; 573  : }

  000ab	c9		 leave
  000ac	c3		 ret	 0
?GetPartyExp@UserInfoNode@@QAEHXZ ENDP			; UserInfoNode::GetPartyExp
_TEXT	ENDS
PUBLIC	?GetLadderExp@UserInfoNode@@QAEHXZ		; UserInfoNode::GetLadderExp
EXTRN	?GetNextLadderupExp@ioMyLevelMgr@@QAE_JH@Z:PROC	; ioMyLevelMgr::GetNextLadderupExp
; Function compile flags: /Ogsp
;	COMDAT ?GetLadderExp@UserInfoNode@@QAEHXZ
_TEXT	SEGMENT
tv151 = -16						; size = 8
_iPrevExp$ = -16					; size = 8
tv153 = -12						; size = 4
tv135 = -12						; size = 4
_iNeedExp$ = -8						; size = 8
_fRate$514141 = -4					; size = 4
?GetLadderExp@UserInfoNode@@QAEHXZ PROC			; UserInfoNode::GetLadderExp, COMDAT
; _this$ = ecx

; 576  : {

  00000	55		 push	 ebp
  00001	8b ec		 mov	 ebp, esp
  00003	83 ec 10	 sub	 esp, 16			; 00000010H
  00006	53		 push	 ebx

; 577  : 	int iTmpLevel     = m_iLadderLevel;

  00007	8b 59 30	 mov	 ebx, DWORD PTR [ecx+48]
  0000a	56		 push	 esi

; 578  : 	__int64 iTmpExp   = m_iLadderExp;

  0000b	8b 71 38	 mov	 esi, DWORD PTR [ecx+56]
  0000e	57		 push	 edi
  0000f	8b 79 3c	 mov	 edi, DWORD PTR [ecx+60]

; 579  : 
; 580  : 	__int64 iPrevExp = g_LevelMgr.GetNextLadderupExp( iTmpLevel - 1 );

  00012	8d 43 ff	 lea	 eax, DWORD PTR [ebx-1]
  00015	50		 push	 eax
  00016	e8 00 00 00 00	 call	 ?GetSingleton@ioMyLevelMgr@@SAAAV1@XZ ; ioMyLevelMgr::GetSingleton
  0001b	8b c8		 mov	 ecx, eax
  0001d	e8 00 00 00 00	 call	 ?GetNextLadderupExp@ioMyLevelMgr@@QAE_JH@Z ; ioMyLevelMgr::GetNextLadderupExp

; 581  : 	__int64 iNeedExp = g_LevelMgr.GetNextLadderupExp( iTmpLevel ) - iPrevExp;

  00022	53		 push	 ebx
  00023	89 45 f0	 mov	 DWORD PTR _iPrevExp$[ebp], eax
  00026	89 55 f4	 mov	 DWORD PTR _iPrevExp$[ebp+4], edx
  00029	e8 00 00 00 00	 call	 ?GetSingleton@ioMyLevelMgr@@SAAAV1@XZ ; ioMyLevelMgr::GetSingleton
  0002e	8b c8		 mov	 ecx, eax
  00030	e8 00 00 00 00	 call	 ?GetNextLadderupExp@ioMyLevelMgr@@QAE_JH@Z ; ioMyLevelMgr::GetNextLadderupExp
  00035	2b 45 f0	 sub	 eax, DWORD PTR _iPrevExp$[ebp]
  00038	1b 55 f4	 sbb	 edx, DWORD PTR _iPrevExp$[ebp+4]
  0003b	89 45 f8	 mov	 DWORD PTR _iNeedExp$[ebp], eax
  0003e	89 55 fc	 mov	 DWORD PTR _iNeedExp$[ebp+4], edx

; 582  : 
; 583  : 	if( iNeedExp > 0 )

  00041	78 63		 js	 SHORT $LN1@GetLadderE
  00043	7f 04		 jg	 SHORT $LN10@GetLadderE
  00045	85 c0		 test	 eax, eax
  00047	74 5d		 je	 SHORT $LN1@GetLadderE
$LN10@GetLadderE:

; 584  : 	{
; 585  : 		__int64 iCurExp = ( iTmpExp - iPrevExp );

  00049	2b 75 f0	 sub	 esi, DWORD PTR _iPrevExp$[ebp]
  0004c	1b 7d f4	 sbb	 edi, DWORD PTR _iPrevExp$[ebp+4]

; 586  : 		float fRate = (float)iCurExp / (float)iNeedExp;

  0004f	89 75 f0	 mov	 DWORD PTR tv151[ebp], esi
  00052	89 7d f4	 mov	 DWORD PTR tv151[ebp+4], edi
  00055	df 6d f0	 fild	 QWORD PTR tv151[ebp]
  00058	df 6d f8	 fild	 QWORD PTR _iNeedExp$[ebp]
  0005b	de f9		 fdivp	 ST(1), ST(0)
  0005d	d9 5d fc	 fstp	 DWORD PTR _fRate$514141[ebp]

; 587  : 
; 588  : 		return min( 99, (int)( FLOAT100 * fRate ) );

  00060	b8 64 00 00 00	 mov	 eax, 100		; 00000064H
  00065	89 45 f4	 mov	 DWORD PTR tv135[ebp], eax
  00068	db 45 f4	 fild	 DWORD PTR tv135[ebp]
  0006b	85 c0		 test	 eax, eax
  0006d	79 06		 jns	 SHORT $LN11@GetLadderE
  0006f	d8 05 00 00 00
	00		 fadd	 DWORD PTR __real@4f800000
$LN11@GetLadderE:
  00075	d8 4d fc	 fmul	 DWORD PTR _fRate$514141[ebp]
  00078	e8 00 00 00 00	 call	 __ftol2_sse
  0007d	83 f8 63	 cmp	 eax, 99			; 00000063H
  00080	7e 05		 jle	 SHORT $LN4@GetLadderE
  00082	6a 63		 push	 99			; 00000063H
  00084	58		 pop	 eax
  00085	eb 21		 jmp	 SHORT $LN2@GetLadderE
$LN4@GetLadderE:
  00087	b8 64 00 00 00	 mov	 eax, 100		; 00000064H
  0008c	89 45 f4	 mov	 DWORD PTR tv153[ebp], eax
  0008f	db 45 f4	 fild	 DWORD PTR tv153[ebp]
  00092	85 c0		 test	 eax, eax
  00094	79 06		 jns	 SHORT $LN12@GetLadderE
  00096	d8 05 00 00 00
	00		 fadd	 DWORD PTR __real@4f800000
$LN12@GetLadderE:
  0009c	d8 4d fc	 fmul	 DWORD PTR _fRate$514141[ebp]
  0009f	e8 00 00 00 00	 call	 __ftol2_sse
  000a4	eb 02		 jmp	 SHORT $LN2@GetLadderE
$LN1@GetLadderE:

; 589  : 	}
; 590  : 	return 0;

  000a6	33 c0		 xor	 eax, eax
$LN2@GetLadderE:
  000a8	5f		 pop	 edi
  000a9	5e		 pop	 esi
  000aa	5b		 pop	 ebx

; 591  : }

  000ab	c9		 leave
  000ac	c3		 ret	 0
?GetLadderExp@UserInfoNode@@QAEHXZ ENDP			; UserInfoNode::GetLadderExp
_TEXT	ENDS
PUBLIC	?GetAwardExp@UserInfoNode@@QAEHXZ		; UserInfoNode::GetAwardExp
EXTRN	?GetNextAwardupExp@ioMyLevelMgr@@QAEHH@Z:PROC	; ioMyLevelMgr::GetNextAwardupExp
; Function compile flags: /Ogsp
;	COMDAT ?GetAwardExp@UserInfoNode@@QAEHXZ
_TEXT	SEGMENT
tv171 = -8						; size = 4
tv163 = -8						; size = 4
_fRate$514153 = -4					; size = 4
_iNextExp$ = -4						; size = 4
?GetAwardExp@UserInfoNode@@QAEHXZ PROC			; UserInfoNode::GetAwardExp, COMDAT
; _this$ = ecx

; 594  : {

  00000	55		 push	 ebp
  00001	8b ec		 mov	 ebp, esp
  00003	51		 push	 ecx
  00004	51		 push	 ecx
  00005	56		 push	 esi
  00006	8b f1		 mov	 esi, ecx

; 595  : 	int iNextExp = g_LevelMgr.GetNextAwardupExp( m_iAwardLevel );

  00008	ff 76 40	 push	 DWORD PTR [esi+64]
  0000b	e8 00 00 00 00	 call	 ?GetSingleton@ioMyLevelMgr@@SAAAV1@XZ ; ioMyLevelMgr::GetSingleton
  00010	8b c8		 mov	 ecx, eax
  00012	e8 00 00 00 00	 call	 ?GetNextAwardupExp@ioMyLevelMgr@@QAEHH@Z ; ioMyLevelMgr::GetNextAwardupExp
  00017	89 45 fc	 mov	 DWORD PTR _iNextExp$[ebp], eax

; 596  : 	if( iNextExp > 0 )

  0001a	85 c0		 test	 eax, eax
  0001c	7e 4f		 jle	 SHORT $LN1@GetAwardEx

; 597  : 	{
; 598  : 		float fRate = (float)m_iAwardExp / (float)iNextExp;

  0001e	db 46 44	 fild	 DWORD PTR [esi+68]
  00021	da 75 fc	 fidiv	 DWORD PTR _iNextExp$[ebp]
  00024	d9 5d fc	 fstp	 DWORD PTR _fRate$514153[ebp]

; 599  : 		return min( 99, (int)( FLOAT100 * fRate ) );

  00027	b8 64 00 00 00	 mov	 eax, 100		; 00000064H
  0002c	89 45 f8	 mov	 DWORD PTR tv171[ebp], eax
  0002f	db 45 f8	 fild	 DWORD PTR tv171[ebp]
  00032	85 c0		 test	 eax, eax
  00034	79 06		 jns	 SHORT $LN10@GetAwardEx
  00036	d8 05 00 00 00
	00		 fadd	 DWORD PTR __real@4f800000
$LN10@GetAwardEx:
  0003c	d8 4d fc	 fmul	 DWORD PTR _fRate$514153[ebp]
  0003f	e8 00 00 00 00	 call	 __ftol2_sse
  00044	83 f8 63	 cmp	 eax, 99			; 00000063H
  00047	7e 05		 jle	 SHORT $LN4@GetAwardEx
  00049	6a 63		 push	 99			; 00000063H
  0004b	58		 pop	 eax
  0004c	eb 21		 jmp	 SHORT $LN2@GetAwardEx
$LN4@GetAwardEx:
  0004e	b8 64 00 00 00	 mov	 eax, 100		; 00000064H
  00053	89 45 f8	 mov	 DWORD PTR tv163[ebp], eax
  00056	db 45 f8	 fild	 DWORD PTR tv163[ebp]
  00059	85 c0		 test	 eax, eax
  0005b	79 06		 jns	 SHORT $LN11@GetAwardEx
  0005d	d8 05 00 00 00
	00		 fadd	 DWORD PTR __real@4f800000
$LN11@GetAwardEx:
  00063	d8 4d fc	 fmul	 DWORD PTR _fRate$514153[ebp]
  00066	e8 00 00 00 00	 call	 __ftol2_sse
  0006b	eb 02		 jmp	 SHORT $LN2@GetAwardEx
$LN1@GetAwardEx:

; 600  : 	}
; 601  : 	return 0;

  0006d	33 c0		 xor	 eax, eax
$LN2@GetAwardEx:
  0006f	5e		 pop	 esi

; 602  : }

  00070	c9		 leave
  00071	c3		 ret	 0
?GetAwardExp@UserInfoNode@@QAEHXZ ENDP			; UserInfoNode::GetAwardExp
_TEXT	ENDS
PUBLIC	?GetFishingExp@UserInfoNode@@QAEHXZ		; UserInfoNode::GetFishingExp
EXTRN	?GetNextFishingLevelUpExp@ioMyLevelMgr@@QAEHH@Z:PROC ; ioMyLevelMgr::GetNextFishingLevelUpExp
; Function compile flags: /Ogsp
;	COMDAT ?GetFishingExp@UserInfoNode@@QAEHXZ
_TEXT	SEGMENT
tv171 = -8						; size = 4
tv163 = -8						; size = 4
_fRate$514165 = -4					; size = 4
_iNextExp$ = -4						; size = 4
?GetFishingExp@UserInfoNode@@QAEHXZ PROC		; UserInfoNode::GetFishingExp, COMDAT
; _this$ = ecx

; 605  : {

  00000	55		 push	 ebp
  00001	8b ec		 mov	 ebp, esp
  00003	51		 push	 ecx
  00004	51		 push	 ecx
  00005	56		 push	 esi
  00006	8b f1		 mov	 esi, ecx

; 606  : 	int iNextExp = g_LevelMgr.GetNextFishingLevelUpExp( m_iFishingLevel );

  00008	ff 76 4c	 push	 DWORD PTR [esi+76]
  0000b	e8 00 00 00 00	 call	 ?GetSingleton@ioMyLevelMgr@@SAAAV1@XZ ; ioMyLevelMgr::GetSingleton
  00010	8b c8		 mov	 ecx, eax
  00012	e8 00 00 00 00	 call	 ?GetNextFishingLevelUpExp@ioMyLevelMgr@@QAEHH@Z ; ioMyLevelMgr::GetNextFishingLevelUpExp
  00017	89 45 fc	 mov	 DWORD PTR _iNextExp$[ebp], eax

; 607  : 	if( iNextExp > 0 )

  0001a	85 c0		 test	 eax, eax
  0001c	7e 4f		 jle	 SHORT $LN1@GetFishing

; 608  : 	{
; 609  : 		float fRate = (float)m_iFishingExpert / (float)iNextExp;

  0001e	db 46 50	 fild	 DWORD PTR [esi+80]
  00021	da 75 fc	 fidiv	 DWORD PTR _iNextExp$[ebp]
  00024	d9 5d fc	 fstp	 DWORD PTR _fRate$514165[ebp]

; 610  : 		return min( 99, (int)( FLOAT100 * fRate ) );

  00027	b8 64 00 00 00	 mov	 eax, 100		; 00000064H
  0002c	89 45 f8	 mov	 DWORD PTR tv171[ebp], eax
  0002f	db 45 f8	 fild	 DWORD PTR tv171[ebp]
  00032	85 c0		 test	 eax, eax
  00034	79 06		 jns	 SHORT $LN10@GetFishing
  00036	d8 05 00 00 00
	00		 fadd	 DWORD PTR __real@4f800000
$LN10@GetFishing:
  0003c	d8 4d fc	 fmul	 DWORD PTR _fRate$514165[ebp]
  0003f	e8 00 00 00 00	 call	 __ftol2_sse
  00044	83 f8 63	 cmp	 eax, 99			; 00000063H
  00047	7e 05		 jle	 SHORT $LN4@GetFishing
  00049	6a 63		 push	 99			; 00000063H
  0004b	58		 pop	 eax
  0004c	eb 21		 jmp	 SHORT $LN2@GetFishing
$LN4@GetFishing:
  0004e	b8 64 00 00 00	 mov	 eax, 100		; 00000064H
  00053	89 45 f8	 mov	 DWORD PTR tv163[ebp], eax
  00056	db 45 f8	 fild	 DWORD PTR tv163[ebp]
  00059	85 c0		 test	 eax, eax
  0005b	79 06		 jns	 SHORT $LN11@GetFishing
  0005d	d8 05 00 00 00
	00		 fadd	 DWORD PTR __real@4f800000
$LN11@GetFishing:
  00063	d8 4d fc	 fmul	 DWORD PTR _fRate$514165[ebp]
  00066	e8 00 00 00 00	 call	 __ftol2_sse
  0006b	eb 02		 jmp	 SHORT $LN2@GetFishing
$LN1@GetFishing:

; 611  : 	}
; 612  : 	return 0;

  0006d	33 c0		 xor	 eax, eax
$LN2@GetFishing:
  0006f	5e		 pop	 esi

; 613  : }

  00070	c9		 leave
  00071	c3		 ret	 0
?GetFishingExp@UserInfoNode@@QAEHXZ ENDP		; UserInfoNode::GetFishingExp
_TEXT	ENDS
PUBLIC	?GetExcavationExp@UserInfoNode@@QAEHXZ		; UserInfoNode::GetExcavationExp
EXTRN	?GetNextExcavationLevelUpExp@ioMyLevelMgr@@QAEHH@Z:PROC ; ioMyLevelMgr::GetNextExcavationLevelUpExp
; Function compile flags: /Ogsp
;	COMDAT ?GetExcavationExp@UserInfoNode@@QAEHXZ
_TEXT	SEGMENT
tv171 = -8						; size = 4
tv163 = -8						; size = 4
_fRate$514177 = -4					; size = 4
_iNextExp$ = -4						; size = 4
?GetExcavationExp@UserInfoNode@@QAEHXZ PROC		; UserInfoNode::GetExcavationExp, COMDAT
; _this$ = ecx

; 616  : {

  00000	55		 push	 ebp
  00001	8b ec		 mov	 ebp, esp
  00003	51		 push	 ecx
  00004	51		 push	 ecx
  00005	56		 push	 esi
  00006	8b f1		 mov	 esi, ecx

; 617  : 	int iNextExp = g_LevelMgr.GetNextExcavationLevelUpExp( m_iExcavationLevel );

  00008	ff 76 54	 push	 DWORD PTR [esi+84]
  0000b	e8 00 00 00 00	 call	 ?GetSingleton@ioMyLevelMgr@@SAAAV1@XZ ; ioMyLevelMgr::GetSingleton
  00010	8b c8		 mov	 ecx, eax
  00012	e8 00 00 00 00	 call	 ?GetNextExcavationLevelUpExp@ioMyLevelMgr@@QAEHH@Z ; ioMyLevelMgr::GetNextExcavationLevelUpExp
  00017	89 45 fc	 mov	 DWORD PTR _iNextExp$[ebp], eax

; 618  : 	if( iNextExp > 0 )

  0001a	85 c0		 test	 eax, eax
  0001c	7e 4f		 jle	 SHORT $LN1@GetExcavat

; 619  : 	{
; 620  : 		float fRate = (float)m_iExcavationExpert / (float)iNextExp;

  0001e	db 46 58	 fild	 DWORD PTR [esi+88]
  00021	da 75 fc	 fidiv	 DWORD PTR _iNextExp$[ebp]
  00024	d9 5d fc	 fstp	 DWORD PTR _fRate$514177[ebp]

; 621  : 		return min( 99, (int)( FLOAT100 * fRate ) );

  00027	b8 64 00 00 00	 mov	 eax, 100		; 00000064H
  0002c	89 45 f8	 mov	 DWORD PTR tv171[ebp], eax
  0002f	db 45 f8	 fild	 DWORD PTR tv171[ebp]
  00032	85 c0		 test	 eax, eax
  00034	79 06		 jns	 SHORT $LN10@GetExcavat
  00036	d8 05 00 00 00
	00		 fadd	 DWORD PTR __real@4f800000
$LN10@GetExcavat:
  0003c	d8 4d fc	 fmul	 DWORD PTR _fRate$514177[ebp]
  0003f	e8 00 00 00 00	 call	 __ftol2_sse
  00044	83 f8 63	 cmp	 eax, 99			; 00000063H
  00047	7e 05		 jle	 SHORT $LN4@GetExcavat
  00049	6a 63		 push	 99			; 00000063H
  0004b	58		 pop	 eax
  0004c	eb 21		 jmp	 SHORT $LN2@GetExcavat
$LN4@GetExcavat:
  0004e	b8 64 00 00 00	 mov	 eax, 100		; 00000064H
  00053	89 45 f8	 mov	 DWORD PTR tv163[ebp], eax
  00056	db 45 f8	 fild	 DWORD PTR tv163[ebp]
  00059	85 c0		 test	 eax, eax
  0005b	79 06		 jns	 SHORT $LN11@GetExcavat
  0005d	d8 05 00 00 00
	00		 fadd	 DWORD PTR __real@4f800000
$LN11@GetExcavat:
  00063	d8 4d fc	 fmul	 DWORD PTR _fRate$514177[ebp]
  00066	e8 00 00 00 00	 call	 __ftol2_sse
  0006b	eb 02		 jmp	 SHORT $LN2@GetExcavat
$LN1@GetExcavat:

; 622  : 	}
; 623  : 	return 0;

  0006d	33 c0		 xor	 eax, eax
$LN2@GetExcavat:
  0006f	5e		 pop	 esi

; 624  : }

  00070	c9		 leave
  00071	c3		 ret	 0
?GetExcavationExp@UserInfoNode@@QAEHXZ ENDP		; UserInfoNode::GetExcavationExp
_TEXT	ENDS
PUBLIC	?GetHeroRecordRate@UserInfoNode@@QAEMXZ		; UserInfoNode::GetHeroRecordRate
; Function compile flags: /Ogsp
;	COMDAT ?GetHeroRecordRate@UserInfoNode@@QAEMXZ
_TEXT	SEGMENT
tv140 = -8						; size = 4
tv133 = -8						; size = 4
tv73 = -4						; size = 4
?GetHeroRecordRate@UserInfoNode@@QAEMXZ PROC		; UserInfoNode::GetHeroRecordRate, COMDAT
; _this$ = ecx

; 627  : {

  00000	55		 push	 ebp
  00001	8b ec		 mov	 ebp, esp
  00003	51		 push	 ecx
  00004	51		 push	 ecx

; 628  : 	return (float)m_iHeroWin / (float)max( 1, m_iHeroWin + m_iHeroLose );

  00005	8b 41 5c	 mov	 eax, DWORD PTR [ecx+92]
  00008	8b 49 60	 mov	 ecx, DWORD PTR [ecx+96]
  0000b	89 45 f8	 mov	 DWORD PTR tv133[ebp], eax
  0000e	03 c1		 add	 eax, ecx
  00010	33 c9		 xor	 ecx, ecx
  00012	41		 inc	 ecx
  00013	89 4d fc	 mov	 DWORD PTR tv73[ebp], ecx
  00016	3b c1		 cmp	 eax, ecx
  00018	7c 03		 jl	 SHORT $LN4@GetHeroRec
  0001a	89 45 fc	 mov	 DWORD PTR tv73[ebp], eax
$LN4@GetHeroRec:
  0001d	db 45 f8	 fild	 DWORD PTR tv133[ebp]
  00020	da 75 fc	 fidiv	 DWORD PTR tv73[ebp]
  00023	d9 5d f8	 fstp	 DWORD PTR tv140[ebp]
  00026	d9 45 f8	 fld	 DWORD PTR tv140[ebp]

; 629  : }

  00029	c9		 leave
  0002a	c3		 ret	 0
?GetHeroRecordRate@UserInfoNode@@QAEMXZ ENDP		; UserInfoNode::GetHeroRecordRate
_TEXT	ENDS
PUBLIC	?SetUserID@UserInfoNode@@QAEXABVioHashString@@@Z ; UserInfoNode::SetUserID
EXTRN	__imp_??4ioHashString@@QAEAAV0@ABV0@@Z:PROC
; Function compile flags: /Ogsp
;	COMDAT ?SetUserID@UserInfoNode@@QAEXABVioHashString@@@Z
_TEXT	SEGMENT
_szUserID$ = 8						; size = 4
?SetUserID@UserInfoNode@@QAEXABVioHashString@@@Z PROC	; UserInfoNode::SetUserID, COMDAT
; _this$ = ecx

; 652  : {

  00000	55		 push	 ebp
  00001	8b ec		 mov	 ebp, esp

; 653  : 	m_UserID = szUserID;

  00003	83 c1 08	 add	 ecx, 8

; 654  : }

  00006	5d		 pop	 ebp

; 653  : 	m_UserID = szUserID;

  00007	ff 25 00 00 00
	00		 jmp	 DWORD PTR __imp_??4ioHashString@@QAEAAV0@ABV0@@Z
?SetUserID@UserInfoNode@@QAEXABVioHashString@@@Z ENDP	; UserInfoNode::SetUserID
_TEXT	ENDS
PUBLIC	?SetGrade@UserInfoNode@@QAEXHH@Z		; UserInfoNode::SetGrade
; Function compile flags: /Ogsp
;	COMDAT ?SetGrade@UserInfoNode@@QAEXHH@Z
_TEXT	SEGMENT
_iGradeLevel$ = 8					; size = 4
_iGradeExpPer$ = 12					; size = 4
?SetGrade@UserInfoNode@@QAEXHH@Z PROC			; UserInfoNode::SetGrade, COMDAT
; _this$ = ecx

; 657  : {

  00000	55		 push	 ebp
  00001	8b ec		 mov	 ebp, esp

; 658  : 	m_iGradeLevel = iGradeLevel;

  00003	8b 45 08	 mov	 eax, DWORD PTR _iGradeLevel$[ebp]
  00006	89 41 18	 mov	 DWORD PTR [ecx+24], eax

; 659  : 	m_iGradeExpPer= iGradeExpPer;	

  00009	8b 45 0c	 mov	 eax, DWORD PTR _iGradeExpPer$[ebp]
  0000c	89 41 1c	 mov	 DWORD PTR [ecx+28], eax

; 660  : }

  0000f	5d		 pop	 ebp
  00010	c2 08 00	 ret	 8
?SetGrade@UserInfoNode@@QAEXHH@Z ENDP			; UserInfoNode::SetGrade
_TEXT	ENDS
PUBLIC	?SetPartyExp@UserInfoNode@@QAEX_J@Z		; UserInfoNode::SetPartyExp
; Function compile flags: /Ogsp
;	COMDAT ?SetPartyExp@UserInfoNode@@QAEX_J@Z
_TEXT	SEGMENT
_iPartyExp$ = 8						; size = 8
?SetPartyExp@UserInfoNode@@QAEX_J@Z PROC		; UserInfoNode::SetPartyExp, COMDAT
; _this$ = ecx

; 663  : {

  00000	55		 push	 ebp
  00001	8b ec		 mov	 ebp, esp

; 664  : 	m_iPartyExp = iPartyExp;

  00003	8b 45 08	 mov	 eax, DWORD PTR _iPartyExp$[ebp]
  00006	56		 push	 esi
  00007	8b f1		 mov	 esi, ecx

; 665  : 	for(m_iPartyLevel = 0;m_iPartyLevel < 99;m_iPartyLevel++)

  00009	83 66 20 00	 and	 DWORD PTR [esi+32], 0
  0000d	89 46 28	 mov	 DWORD PTR [esi+40], eax
  00010	8b 45 0c	 mov	 eax, DWORD PTR _iPartyExp$[ebp+4]
  00013	89 46 2c	 mov	 DWORD PTR [esi+44], eax
$LL4@SetPartyEx:

; 666  : 	{
; 667  : 		__int64 iExp = g_LevelMgr.GetNextPartyupExp( m_iPartyLevel );

  00016	ff 76 20	 push	 DWORD PTR [esi+32]
  00019	e8 00 00 00 00	 call	 ?GetSingleton@ioMyLevelMgr@@SAAAV1@XZ ; ioMyLevelMgr::GetSingleton
  0001e	8b c8		 mov	 ecx, eax
  00020	e8 00 00 00 00	 call	 ?GetNextPartyupExp@ioMyLevelMgr@@QAE_JH@Z ; ioMyLevelMgr::GetNextPartyupExp

; 668  : 		if( iExp > m_iPartyExp )

  00025	3b 56 2c	 cmp	 edx, DWORD PTR [esi+44]
  00028	7f 10		 jg	 SHORT $LN8@SetPartyEx
  0002a	7c 05		 jl	 SHORT $LN10@SetPartyEx
  0002c	3b 46 28	 cmp	 eax, DWORD PTR [esi+40]
  0002f	77 09		 ja	 SHORT $LN8@SetPartyEx
$LN10@SetPartyEx:

; 665  : 	for(m_iPartyLevel = 0;m_iPartyLevel < 99;m_iPartyLevel++)

  00031	ff 46 20	 inc	 DWORD PTR [esi+32]
  00034	83 7e 20 63	 cmp	 DWORD PTR [esi+32], 99	; 00000063H
  00038	7c dc		 jl	 SHORT $LL4@SetPartyEx
$LN8@SetPartyEx:
  0003a	5e		 pop	 esi

; 669  : 			break;
; 670  : 	}
; 671  : }

  0003b	5d		 pop	 ebp
  0003c	c2 08 00	 ret	 8
?SetPartyExp@UserInfoNode@@QAEX_J@Z ENDP		; UserInfoNode::SetPartyExp
_TEXT	ENDS
PUBLIC	?SetLadderExp@UserInfoNode@@QAEX_J@Z		; UserInfoNode::SetLadderExp
; Function compile flags: /Ogsp
;	COMDAT ?SetLadderExp@UserInfoNode@@QAEX_J@Z
_TEXT	SEGMENT
_iLadderExp$ = 8					; size = 8
?SetLadderExp@UserInfoNode@@QAEX_J@Z PROC		; UserInfoNode::SetLadderExp, COMDAT
; _this$ = ecx

; 674  : {

  00000	55		 push	 ebp
  00001	8b ec		 mov	 ebp, esp

; 675  : 	m_iLadderExp = iLadderExp;

  00003	8b 45 08	 mov	 eax, DWORD PTR _iLadderExp$[ebp]
  00006	56		 push	 esi
  00007	8b f1		 mov	 esi, ecx

; 676  : 	for(m_iLadderLevel = 0;m_iLadderLevel < 99;m_iLadderLevel++)

  00009	83 66 30 00	 and	 DWORD PTR [esi+48], 0
  0000d	89 46 38	 mov	 DWORD PTR [esi+56], eax
  00010	8b 45 0c	 mov	 eax, DWORD PTR _iLadderExp$[ebp+4]
  00013	89 46 3c	 mov	 DWORD PTR [esi+60], eax
$LL4@SetLadderE:

; 677  : 	{
; 678  : 		__int64 iExp = g_LevelMgr.GetNextLadderupExp( m_iLadderLevel );

  00016	ff 76 30	 push	 DWORD PTR [esi+48]
  00019	e8 00 00 00 00	 call	 ?GetSingleton@ioMyLevelMgr@@SAAAV1@XZ ; ioMyLevelMgr::GetSingleton
  0001e	8b c8		 mov	 ecx, eax
  00020	e8 00 00 00 00	 call	 ?GetNextLadderupExp@ioMyLevelMgr@@QAE_JH@Z ; ioMyLevelMgr::GetNextLadderupExp

; 679  : 		if( iExp > m_iLadderExp )

  00025	3b 56 3c	 cmp	 edx, DWORD PTR [esi+60]
  00028	7f 10		 jg	 SHORT $LN8@SetLadderE
  0002a	7c 05		 jl	 SHORT $LN10@SetLadderE
  0002c	3b 46 38	 cmp	 eax, DWORD PTR [esi+56]
  0002f	77 09		 ja	 SHORT $LN8@SetLadderE
$LN10@SetLadderE:

; 676  : 	for(m_iLadderLevel = 0;m_iLadderLevel < 99;m_iLadderLevel++)

  00031	ff 46 30	 inc	 DWORD PTR [esi+48]
  00034	83 7e 30 63	 cmp	 DWORD PTR [esi+48], 99	; 00000063H
  00038	7c dc		 jl	 SHORT $LL4@SetLadderE
$LN8@SetLadderE:
  0003a	5e		 pop	 esi

; 680  : 			break;
; 681  : 	}
; 682  : }

  0003b	5d		 pop	 ebp
  0003c	c2 08 00	 ret	 8
?SetLadderExp@UserInfoNode@@QAEX_J@Z ENDP		; UserInfoNode::SetLadderExp
_TEXT	ENDS
PUBLIC	?SetAwardExp@UserInfoNode@@QAEXHH@Z		; UserInfoNode::SetAwardExp
; Function compile flags: /Ogsp
;	COMDAT ?SetAwardExp@UserInfoNode@@QAEXHH@Z
_TEXT	SEGMENT
_iAwardLevel$ = 8					; size = 4
_iAwardExp$ = 12					; size = 4
?SetAwardExp@UserInfoNode@@QAEXHH@Z PROC		; UserInfoNode::SetAwardExp, COMDAT
; _this$ = ecx

; 685  : {

  00000	55		 push	 ebp
  00001	8b ec		 mov	 ebp, esp

; 686  : 	m_iAwardLevel = iAwardLevel;

  00003	8b 45 08	 mov	 eax, DWORD PTR _iAwardLevel$[ebp]
  00006	89 41 40	 mov	 DWORD PTR [ecx+64], eax

; 687  : 	m_iAwardExp   = iAwardExp;

  00009	8b 45 0c	 mov	 eax, DWORD PTR _iAwardExp$[ebp]
  0000c	89 41 44	 mov	 DWORD PTR [ecx+68], eax

; 688  : }

  0000f	5d		 pop	 ebp
  00010	c2 08 00	 ret	 8
?SetAwardExp@UserInfoNode@@QAEXHH@Z ENDP		; UserInfoNode::SetAwardExp
_TEXT	ENDS
PUBLIC	?SetFishingExp@UserInfoNode@@QAEXHH@Z		; UserInfoNode::SetFishingExp
; Function compile flags: /Ogsp
;	COMDAT ?SetFishingExp@UserInfoNode@@QAEXHH@Z
_TEXT	SEGMENT
_iFishingLevel$ = 8					; size = 4
_iFishingExp$ = 12					; size = 4
?SetFishingExp@UserInfoNode@@QAEXHH@Z PROC		; UserInfoNode::SetFishingExp, COMDAT
; _this$ = ecx

; 691  : {

  00000	55		 push	 ebp
  00001	8b ec		 mov	 ebp, esp

; 692  : 	m_iFishingLevel  = iFishingLevel;

  00003	8b 45 08	 mov	 eax, DWORD PTR _iFishingLevel$[ebp]
  00006	89 41 4c	 mov	 DWORD PTR [ecx+76], eax

; 693  : 	m_iFishingExpert = iFishingExp;

  00009	8b 45 0c	 mov	 eax, DWORD PTR _iFishingExp$[ebp]
  0000c	89 41 50	 mov	 DWORD PTR [ecx+80], eax

; 694  : }

  0000f	5d		 pop	 ebp
  00010	c2 08 00	 ret	 8
?SetFishingExp@UserInfoNode@@QAEXHH@Z ENDP		; UserInfoNode::SetFishingExp
_TEXT	ENDS
PUBLIC	?SetExcavationExp@UserInfoNode@@QAEXHH@Z	; UserInfoNode::SetExcavationExp
; Function compile flags: /Ogsp
;	COMDAT ?SetExcavationExp@UserInfoNode@@QAEXHH@Z
_TEXT	SEGMENT
_iExcavationLevel$ = 8					; size = 4
_iExcavationExp$ = 12					; size = 4
?SetExcavationExp@UserInfoNode@@QAEXHH@Z PROC		; UserInfoNode::SetExcavationExp, COMDAT
; _this$ = ecx

; 697  : {

  00000	55		 push	 ebp
  00001	8b ec		 mov	 ebp, esp

; 698  : 	m_iExcavationLevel  = iExcavationLevel;

  00003	8b 45 08	 mov	 eax, DWORD PTR _iExcavationLevel$[ebp]
  00006	89 41 54	 mov	 DWORD PTR [ecx+84], eax

; 699  : 	m_iExcavationExpert = iExcavationExp;

  00009	8b 45 0c	 mov	 eax, DWORD PTR _iExcavationExp$[ebp]
  0000c	89 41 58	 mov	 DWORD PTR [ecx+88], eax

; 700  : }

  0000f	5d		 pop	 ebp
  00010	c2 08 00	 ret	 8
?SetExcavationExp@UserInfoNode@@QAEXHH@Z ENDP		; UserInfoNode::SetExcavationExp
_TEXT	ENDS
PUBLIC	?SetHeroWin@UserInfoNode@@QAEXH@Z		; UserInfoNode::SetHeroWin
; Function compile flags: /Ogsp
;	COMDAT ?SetHeroWin@UserInfoNode@@QAEXH@Z
_TEXT	SEGMENT
_iWin$ = 8						; size = 4
?SetHeroWin@UserInfoNode@@QAEXH@Z PROC			; UserInfoNode::SetHeroWin, COMDAT
; _this$ = ecx

; 703  : {

  00000	55		 push	 ebp
  00001	8b ec		 mov	 ebp, esp

; 704  : 	m_iHeroWin = iWin;

  00003	8b 45 08	 mov	 eax, DWORD PTR _iWin$[ebp]
  00006	89 41 5c	 mov	 DWORD PTR [ecx+92], eax

; 705  : }

  00009	5d		 pop	 ebp
  0000a	c2 04 00	 ret	 4
?SetHeroWin@UserInfoNode@@QAEXH@Z ENDP			; UserInfoNode::SetHeroWin
_TEXT	ENDS
PUBLIC	?SetHeroLose@UserInfoNode@@QAEXH@Z		; UserInfoNode::SetHeroLose
; Function compile flags: /Ogsp
;	COMDAT ?SetHeroLose@UserInfoNode@@QAEXH@Z
_TEXT	SEGMENT
_iLose$ = 8						; size = 4
?SetHeroLose@UserInfoNode@@QAEXH@Z PROC			; UserInfoNode::SetHeroLose, COMDAT
; _this$ = ecx

; 708  : {

  00000	55		 push	 ebp
  00001	8b ec		 mov	 ebp, esp

; 709  : 	m_iHeroLose = iLose;

  00003	8b 45 08	 mov	 eax, DWORD PTR _iLose$[ebp]
  00006	89 41 60	 mov	 DWORD PTR [ecx+96], eax

; 710  : }

  00009	5d		 pop	 ebp
  0000a	c2 04 00	 ret	 4
?SetHeroLose@UserInfoNode@@QAEXH@Z ENDP			; UserInfoNode::SetHeroLose
_TEXT	ENDS
PUBLIC	?SetHeroTitle@UserInfoNode@@QAEXH@Z		; UserInfoNode::SetHeroTitle
; Function compile flags: /Ogsp
;	COMDAT ?SetHeroTitle@UserInfoNode@@QAEXH@Z
_TEXT	SEGMENT
_iTitle$ = 8						; size = 4
?SetHeroTitle@UserInfoNode@@QAEXH@Z PROC		; UserInfoNode::SetHeroTitle, COMDAT
; _this$ = ecx

; 713  : {

  00000	55		 push	 ebp
  00001	8b ec		 mov	 ebp, esp

; 714  : 	m_iHeroTitle = iTitle;

  00003	8b 45 08	 mov	 eax, DWORD PTR _iTitle$[ebp]
  00006	89 41 64	 mov	 DWORD PTR [ecx+100], eax

; 715  : }

  00009	5d		 pop	 ebp
  0000a	c2 04 00	 ret	 4
?SetHeroTitle@UserInfoNode@@QAEXH@Z ENDP		; UserInfoNode::SetHeroTitle
_TEXT	ENDS
PUBLIC	?SetHeroRank@UserInfoNode@@QAEXH@Z		; UserInfoNode::SetHeroRank
; Function compile flags: /Ogsp
;	COMDAT ?SetHeroRank@UserInfoNode@@QAEXH@Z
_TEXT	SEGMENT
_iRank$ = 8						; size = 4
?SetHeroRank@UserInfoNode@@QAEXH@Z PROC			; UserInfoNode::SetHeroRank, COMDAT
; _this$ = ecx

; 718  : {

  00000	55		 push	 ebp
  00001	8b ec		 mov	 ebp, esp

; 719  : 	m_iHeroRank = iRank;

  00003	8b 45 08	 mov	 eax, DWORD PTR _iRank$[ebp]
  00006	89 41 68	 mov	 DWORD PTR [ecx+104], eax

; 720  : }

  00009	5d		 pop	 ebp
  0000a	c2 04 00	 ret	 4
?SetHeroRank@UserInfoNode@@QAEXH@Z ENDP			; UserInfoNode::SetHeroRank
_TEXT	ENDS
PUBLIC	?SetBlockType@UserInfoNode@@QAEXH@Z		; UserInfoNode::SetBlockType
; Function compile flags: /Ogsp
;	COMDAT ?SetBlockType@UserInfoNode@@QAEXH@Z
_TEXT	SEGMENT
_iBlockType$ = 8					; size = 4
?SetBlockType@UserInfoNode@@QAEXH@Z PROC		; UserInfoNode::SetBlockType, COMDAT
; _this$ = ecx

; 723  : {

  00000	55		 push	 ebp
  00001	8b ec		 mov	 ebp, esp

; 724  : 	m_eBlockType = (BlockType) iBlockType;

  00003	8b 45 08	 mov	 eax, DWORD PTR _iBlockType$[ebp]
  00006	89 41 6c	 mov	 DWORD PTR [ecx+108], eax

; 725  : }

  00009	5d		 pop	 ebp
  0000a	c2 04 00	 ret	 4
?SetBlockType@UserInfoNode@@QAEXH@Z ENDP		; UserInfoNode::SetBlockType
_TEXT	ENDS
PUBLIC	?SetRanking@UserInfoNode@@QAEXH@Z		; UserInfoNode::SetRanking
; Function compile flags: /Ogsp
;	COMDAT ?SetRanking@UserInfoNode@@QAEXH@Z
_TEXT	SEGMENT
_iRanking$ = 8						; size = 4
?SetRanking@UserInfoNode@@QAEXH@Z PROC			; UserInfoNode::SetRanking, COMDAT
; _this$ = ecx

; 728  : {

  00000	55		 push	 ebp
  00001	8b ec		 mov	 ebp, esp

; 729  : 	m_iUserRank = iRanking;

  00003	8b 45 08	 mov	 eax, DWORD PTR _iRanking$[ebp]
  00006	89 41 70	 mov	 DWORD PTR [ecx+112], eax

; 730  : }

  00009	5d		 pop	 ebp
  0000a	c2 04 00	 ret	 4
?SetRanking@UserInfoNode@@QAEXH@Z ENDP			; UserInfoNode::SetRanking
_TEXT	ENDS
PUBLIC	?SetGuildIndex@UserInfoNode@@QAEXK@Z		; UserInfoNode::SetGuildIndex
; Function compile flags: /Ogsp
;	COMDAT ?SetGuildIndex@UserInfoNode@@QAEXK@Z
_TEXT	SEGMENT
_dwGuildIndex$ = 8					; size = 4
?SetGuildIndex@UserInfoNode@@QAEXK@Z PROC		; UserInfoNode::SetGuildIndex, COMDAT
; _this$ = ecx

; 733  : {

  00000	55		 push	 ebp
  00001	8b ec		 mov	 ebp, esp

; 734  : 	if( dwGuildIndex != m_dwGuildIndex )

  00003	8b 55 08	 mov	 edx, DWORD PTR _dwGuildIndex$[ebp]
  00006	3b 91 80 00 00
	00		 cmp	 edx, DWORD PTR [ecx+128]
  0000c	74 07		 je	 SHORT $LN1@SetGuildIn

; 735  : 		m_bGuildInfoChange = true;

  0000e	c6 81 84 00 00
	00 01		 mov	 BYTE PTR [ecx+132], 1
$LN1@SetGuildIn:

; 736  : 	m_dwGuildIndex = dwGuildIndex;

  00015	89 91 80 00 00
	00		 mov	 DWORD PTR [ecx+128], edx

; 737  : }

  0001b	5d		 pop	 ebp
  0001c	c2 04 00	 ret	 4
?SetGuildIndex@UserInfoNode@@QAEXK@Z ENDP		; UserInfoNode::SetGuildIndex
_TEXT	ENDS
PUBLIC	?SetLadderPoint@UserInfoNode@@QAEXH@Z		; UserInfoNode::SetLadderPoint
; Function compile flags: /Ogsp
;	COMDAT ?SetLadderPoint@UserInfoNode@@QAEXH@Z
_TEXT	SEGMENT
_iLadderPoint$ = 8					; size = 4
?SetLadderPoint@UserInfoNode@@QAEXH@Z PROC		; UserInfoNode::SetLadderPoint, COMDAT
; _this$ = ecx

; 740  : {

  00000	55		 push	 ebp
  00001	8b ec		 mov	 ebp, esp

; 741  : 	// 대회 포인트가 작아지지는 않는다. 단, 0으로 초기화는 된다.
; 742  : 	if( iLadderPoint == 0 || iLadderPoint > m_iLadderPoint )

  00003	8b 45 08	 mov	 eax, DWORD PTR _iLadderPoint$[ebp]
  00006	85 c0		 test	 eax, eax
  00008	74 05		 je	 SHORT $LN1@SetLadderP
  0000a	3b 41 74	 cmp	 eax, DWORD PTR [ecx+116]
  0000d	7e 03		 jle	 SHORT $LN2@SetLadderP
$LN1@SetLadderP:

; 743  : 	{
; 744  : 		m_iLadderPoint = iLadderPoint;

  0000f	89 41 74	 mov	 DWORD PTR [ecx+116], eax
$LN2@SetLadderP:

; 745  : 	}
; 746  : }

  00012	5d		 pop	 ebp
  00013	c2 04 00	 ret	 4
?SetLadderPoint@UserInfoNode@@QAEXH@Z ENDP		; UserInfoNode::SetLadderPoint
_TEXT	ENDS
PUBLIC	?SetCampPosition@UserInfoNode@@QAEXH@Z		; UserInfoNode::SetCampPosition
; Function compile flags: /Ogsp
;	COMDAT ?SetCampPosition@UserInfoNode@@QAEXH@Z
_TEXT	SEGMENT
_iCampPosition$ = 8					; size = 4
?SetCampPosition@UserInfoNode@@QAEXH@Z PROC		; UserInfoNode::SetCampPosition, COMDAT
; _this$ = ecx

; 749  : {

  00000	55		 push	 ebp
  00001	8b ec		 mov	 ebp, esp

; 750  : 	if( m_iCampPosition != iCampPosition )

  00003	8b 45 08	 mov	 eax, DWORD PTR _iCampPosition$[ebp]
  00006	39 41 78	 cmp	 DWORD PTR [ecx+120], eax
  00009	74 04		 je	 SHORT $LN1@SetCampPos

; 751  : 		m_bCampChange = true;

  0000b	c6 41 7c 01	 mov	 BYTE PTR [ecx+124], 1
$LN1@SetCampPos:

; 752  : 	m_iCampPosition = iCampPosition;

  0000f	89 41 78	 mov	 DWORD PTR [ecx+120], eax

; 753  : }

  00012	5d		 pop	 ebp
  00013	c2 04 00	 ret	 4
?SetCampPosition@UserInfoNode@@QAEXH@Z ENDP		; UserInfoNode::SetCampPosition
_TEXT	ENDS
PUBLIC	?SetClassLevel@UserInfoNode@@QAEXH@Z		; UserInfoNode::SetClassLevel
; Function compile flags: /Ogsp
;	COMDAT ?SetClassLevel@UserInfoNode@@QAEXH@Z
_TEXT	SEGMENT
_iClassLevel$ = 8					; size = 4
?SetClassLevel@UserInfoNode@@QAEXH@Z PROC		; UserInfoNode::SetClassLevel, COMDAT
; _this$ = ecx

; 756  : {

  00000	55		 push	 ebp
  00001	8b ec		 mov	 ebp, esp

; 757  : 	m_iClassLevel = iClassLevel;

  00003	8b 45 08	 mov	 eax, DWORD PTR _iClassLevel$[ebp]
  00006	89 81 a8 00 00
	00		 mov	 DWORD PTR [ecx+168], eax

; 758  : }

  0000c	5d		 pop	 ebp
  0000d	c2 04 00	 ret	 4
?SetClassLevel@UserInfoNode@@QAEXH@Z ENDP		; UserInfoNode::SetClassLevel
_TEXT	ENDS
PUBLIC	?SetClassType@UserInfoNode@@QAEXH@Z		; UserInfoNode::SetClassType
; Function compile flags: /Ogsp
;	COMDAT ?SetClassType@UserInfoNode@@QAEXH@Z
_TEXT	SEGMENT
_iClassType$ = 8					; size = 4
?SetClassType@UserInfoNode@@QAEXH@Z PROC		; UserInfoNode::SetClassType, COMDAT
; _this$ = ecx

; 761  : {

  00000	55		 push	 ebp
  00001	8b ec		 mov	 ebp, esp

; 762  : 	m_iClassType = iClassType;

  00003	8b 45 08	 mov	 eax, DWORD PTR _iClassType$[ebp]
  00006	89 81 ac 00 00
	00		 mov	 DWORD PTR [ecx+172], eax

; 763  : }

  0000c	5d		 pop	 ebp
  0000d	c2 04 00	 ret	 4
?SetClassType@UserInfoNode@@QAEXH@Z ENDP		; UserInfoNode::SetClassType
_TEXT	ENDS
PUBLIC	?SetKillDeathLevel@UserInfoNode@@QAEXH@Z	; UserInfoNode::SetKillDeathLevel
; Function compile flags: /Ogsp
;	COMDAT ?SetKillDeathLevel@UserInfoNode@@QAEXH@Z
_TEXT	SEGMENT
_iKillDeathLevel$ = 8					; size = 4
?SetKillDeathLevel@UserInfoNode@@QAEXH@Z PROC		; UserInfoNode::SetKillDeathLevel, COMDAT
; _this$ = ecx

; 776  : {

  00000	55		 push	 ebp
  00001	8b ec		 mov	 ebp, esp

; 777  : 	m_iKillDeathLevel = iKillDeathLevel;

  00003	8b 45 08	 mov	 eax, DWORD PTR _iKillDeathLevel$[ebp]
  00006	89 41 48	 mov	 DWORD PTR [ecx+72], eax

; 778  : }

  00009	5d		 pop	 ebp
  0000a	c2 04 00	 ret	 4
?SetKillDeathLevel@UserInfoNode@@QAEXH@Z ENDP		; UserInfoNode::SetKillDeathLevel
_TEXT	ENDS
PUBLIC	?SetPetCode@UserInfoNode@@QAEXH@Z		; UserInfoNode::SetPetCode
; Function compile flags: /Ogsp
;	COMDAT ?SetPetCode@UserInfoNode@@QAEXH@Z
_TEXT	SEGMENT
_nPetCode$ = 8						; size = 4
?SetPetCode@UserInfoNode@@QAEXH@Z PROC			; UserInfoNode::SetPetCode, COMDAT
; _this$ = ecx

; 781  : {

  00000	55		 push	 ebp
  00001	8b ec		 mov	 ebp, esp

; 782  : 	m_nPetCode = nPetCode;

  00003	8b 45 08	 mov	 eax, DWORD PTR _nPetCode$[ebp]
  00006	89 81 b0 00 00
	00		 mov	 DWORD PTR [ecx+176], eax

; 783  : }

  0000c	5d		 pop	 ebp
  0000d	c2 04 00	 ret	 4
?SetPetCode@UserInfoNode@@QAEXH@Z ENDP			; UserInfoNode::SetPetCode
_TEXT	ENDS
PUBLIC	?SetPetLevel@UserInfoNode@@QAEXH@Z		; UserInfoNode::SetPetLevel
; Function compile flags: /Ogsp
;	COMDAT ?SetPetLevel@UserInfoNode@@QAEXH@Z
_TEXT	SEGMENT
_nPetLevel$ = 8						; size = 4
?SetPetLevel@UserInfoNode@@QAEXH@Z PROC			; UserInfoNode::SetPetLevel, COMDAT
; _this$ = ecx

; 786  : {

  00000	55		 push	 ebp
  00001	8b ec		 mov	 ebp, esp

; 787  : 	m_nPetLevel = nPetLevel;

  00003	8b 45 08	 mov	 eax, DWORD PTR _nPetLevel$[ebp]
  00006	89 81 b4 00 00
	00		 mov	 DWORD PTR [ecx+180], eax

; 788  : }

  0000c	5d		 pop	 ebp
  0000d	c2 04 00	 ret	 4
?SetPetLevel@UserInfoNode@@QAEXH@Z ENDP			; UserInfoNode::SetPetLevel
_TEXT	ENDS
PUBLIC	?SetHouseOpen@UserInfoNode@@QAEX_N@Z		; UserInfoNode::SetHouseOpen
; Function compile flags: /Ogsp
;	COMDAT ?SetHouseOpen@UserInfoNode@@QAEX_N@Z
_TEXT	SEGMENT
_bHouseOpen$ = 8					; size = 1
?SetHouseOpen@UserInfoNode@@QAEX_N@Z PROC		; UserInfoNode::SetHouseOpen, COMDAT
; _this$ = ecx

; 791  : {

  00000	55		 push	 ebp
  00001	8b ec		 mov	 ebp, esp

; 792  : 	m_bHouseOpen = bHouseOpen;

  00003	8a 45 08	 mov	 al, BYTE PTR _bHouseOpen$[ebp]
  00006	88 81 b8 00 00
	00		 mov	 BYTE PTR [ecx+184], al

; 793  : }

  0000c	5d		 pop	 ebp
  0000d	c2 04 00	 ret	 4
?SetHouseOpen@UserInfoNode@@QAEX_N@Z ENDP		; UserInfoNode::SetHouseOpen
_TEXT	ENDS
PUBLIC	?SetNamedTitle@UserInfoNode@@QAEXKHE@Z		; UserInfoNode::SetNamedTitle
; Function compile flags: /Ogsp
;	COMDAT ?SetNamedTitle@UserInfoNode@@QAEXKHE@Z
_TEXT	SEGMENT
_dwNamedTitleCode$ = 8					; size = 4
_nNamedTitleLevel$ = 12					; size = 4
_byNamedTitlePremium$ = 16				; size = 1
?SetNamedTitle@UserInfoNode@@QAEXKHE@Z PROC		; UserInfoNode::SetNamedTitle, COMDAT
; _this$ = ecx

; 796  : {

  00000	55		 push	 ebp
  00001	8b ec		 mov	 ebp, esp

; 797  : 	m_dwNamedTitleCode = dwNamedTitleCode;

  00003	8b 45 08	 mov	 eax, DWORD PTR _dwNamedTitleCode$[ebp]
  00006	89 81 bc 00 00
	00		 mov	 DWORD PTR [ecx+188], eax

; 798  : 	m_nNamedTitleLevel = nNamedTitleLevel;

  0000c	8b 45 0c	 mov	 eax, DWORD PTR _nNamedTitleLevel$[ebp]
  0000f	89 81 c0 00 00
	00		 mov	 DWORD PTR [ecx+192], eax

; 799  : 	m_byNamedTitlePremium = byNamedTitlePremium;

  00015	8a 45 10	 mov	 al, BYTE PTR _byNamedTitlePremium$[ebp]
  00018	88 81 c4 00 00
	00		 mov	 BYTE PTR [ecx+196], al

; 800  : }

  0001e	5d		 pop	 ebp
  0001f	c2 0c 00	 ret	 12			; 0000000cH
?SetNamedTitle@UserInfoNode@@QAEXKHE@Z ENDP		; UserInfoNode::SetNamedTitle
_TEXT	ENDS
PUBLIC	?IsGuildInfoChange@UserInfoNode@@QAE_NXZ	; UserInfoNode::IsGuildInfoChange
; Function compile flags: /Ogsp
;	COMDAT ?IsGuildInfoChange@UserInfoNode@@QAE_NXZ
_TEXT	SEGMENT
?IsGuildInfoChange@UserInfoNode@@QAE_NXZ PROC		; UserInfoNode::IsGuildInfoChange, COMDAT
; _this$ = ecx

; 835  : 	bool bReturn = m_bGuildInfoChange;

  00000	8a 81 84 00 00
	00		 mov	 al, BYTE PTR [ecx+132]

; 836  : 	m_bGuildInfoChange = false;

  00006	c6 81 84 00 00
	00 00		 mov	 BYTE PTR [ecx+132], 0

; 837  : 	return bReturn;
; 838  : }

  0000d	c3		 ret	 0
?IsGuildInfoChange@UserInfoNode@@QAE_NXZ ENDP		; UserInfoNode::IsGuildInfoChange
_TEXT	ENDS
PUBLIC	?IsCampPosChange@UserInfoNode@@QAE_NXZ		; UserInfoNode::IsCampPosChange
; Function compile flags: /Ogsp
;	COMDAT ?IsCampPosChange@UserInfoNode@@QAE_NXZ
_TEXT	SEGMENT
?IsCampPosChange@UserInfoNode@@QAE_NXZ PROC		; UserInfoNode::IsCampPosChange, COMDAT
; _this$ = ecx

; 842  : 	bool bReturn = m_bCampChange;

  00000	8a 41 7c	 mov	 al, BYTE PTR [ecx+124]

; 843  : 	m_bCampChange = false;

  00003	c6 41 7c 00	 mov	 BYTE PTR [ecx+124], 0

; 844  : 	return bReturn;
; 845  : }

  00007	c3		 ret	 0
?IsCampPosChange@UserInfoNode@@QAE_NXZ ENDP		; UserInfoNode::IsCampPosChange
_TEXT	ENDS
PUBLIC	?_Adopt@_Iterator_base0@std@@QAEXPBX@Z		; std::_Iterator_base0::_Adopt
; Function compile flags: /Ogsp
; File c:\program files (x86)\microsoft visual studio 10.0\vc\include\xutility
;	COMDAT ?_Adopt@_Iterator_base0@std@@QAEXPBX@Z
_TEXT	SEGMENT
___formal$ = 8						; size = 4
?_Adopt@_Iterator_base0@std@@QAEXPBX@Z PROC		; std::_Iterator_base0::_Adopt, COMDAT
; _this$ = ecx

; 49   : 		}

  00000	c2 04 00	 ret	 4
?_Adopt@_Iterator_base0@std@@QAEXPBX@Z ENDP		; std::_Iterator_base0::_Adopt
_TEXT	ENDS
PUBLIC	?size@?$vector@UCharInfoData@@V?$allocator@UCharInfoData@@@std@@@std@@QBEIXZ ; std::vector<CharInfoData,std::allocator<CharInfoData> >::size
; Function compile flags: /Ogsp
; File c:\program files (x86)\microsoft visual studio 10.0\vc\include\vector
;	COMDAT ?size@?$vector@UCharInfoData@@V?$allocator@UCharInfoData@@@std@@@std@@QBEIXZ
_TEXT	SEGMENT
?size@?$vector@UCharInfoData@@V?$allocator@UCharInfoData@@@std@@@std@@QBEIXZ PROC ; std::vector<CharInfoData,std::allocator<CharInfoData> >::size, COMDAT
; _this$ = ecx

; 879  : 		return (this->_Mylast - this->_Myfirst);

  00000	8b 41 04	 mov	 eax, DWORD PTR [ecx+4]
  00003	2b 01		 sub	 eax, DWORD PTR [ecx]
  00005	b9 c0 03 00 00	 mov	 ecx, 960		; 000003c0H
  0000a	99		 cdq
  0000b	f7 f9		 idiv	 ecx

; 880  : 		}

  0000d	c3		 ret	 0
?size@?$vector@UCharInfoData@@V?$allocator@UCharInfoData@@@std@@@std@@QBEIXZ ENDP ; std::vector<CharInfoData,std::allocator<CharInfoData> >::size
_TEXT	ENDS
PUBLIC	??A?$vector@UCharInfoData@@V?$allocator@UCharInfoData@@@std@@@std@@QAEAAUCharInfoData@@I@Z ; std::vector<CharInfoData,std::allocator<CharInfoData> >::operator[]
; Function compile flags: /Ogsp
;	COMDAT ??A?$vector@UCharInfoData@@V?$allocator@UCharInfoData@@@std@@@std@@QAEAAUCharInfoData@@I@Z
_TEXT	SEGMENT
__Pos$ = 8						; size = 4
??A?$vector@UCharInfoData@@V?$allocator@UCharInfoData@@@std@@@std@@QAEAAUCharInfoData@@I@Z PROC ; std::vector<CharInfoData,std::allocator<CharInfoData> >::operator[], COMDAT
; _this$ = ecx

; 928  : 		{	// subscript mutable sequence

  00000	55		 push	 ebp
  00001	8b ec		 mov	 ebp, esp

; 929  :  #if _ITERATOR_DEBUG_LEVEL == 2
; 930  : 		if (size() <= _Pos)
; 931  : 			{	// report error
; 932  : 			_DEBUG_ERROR("vector subscript out of range");
; 933  : 			_SCL_SECURE_OUT_OF_RANGE;
; 934  : 			}
; 935  : 
; 936  :  #elif _ITERATOR_DEBUG_LEVEL == 1
; 937  : 		_SCL_SECURE_VALIDATE_RANGE(_Pos < size());
; 938  :  #endif /* _ITERATOR_DEBUG_LEVEL */
; 939  : 
; 940  : 		return (*(this->_Myfirst + _Pos));

  00003	8b 45 08	 mov	 eax, DWORD PTR __Pos$[ebp]
  00006	69 c0 c0 03 00
	00		 imul	 eax, 960		; 000003c0H
  0000c	03 01		 add	 eax, DWORD PTR [ecx]

; 941  : 		}

  0000e	5d		 pop	 ebp
  0000f	c2 04 00	 ret	 4
??A?$vector@UCharInfoData@@V?$allocator@UCharInfoData@@@std@@@std@@QAEAAUCharInfoData@@I@Z ENDP ; std::vector<CharInfoData,std::allocator<CharInfoData> >::operator[]
_TEXT	ENDS
PUBLIC	?size@?$vector@PAVUserInfoNode@@V?$allocator@PAVUserInfoNode@@@std@@@std@@QBEIXZ ; std::vector<UserInfoNode *,std::allocator<UserInfoNode *> >::size
; Function compile flags: /Ogsp
;	COMDAT ?size@?$vector@PAVUserInfoNode@@V?$allocator@PAVUserInfoNode@@@std@@@std@@QBEIXZ
_TEXT	SEGMENT
?size@?$vector@PAVUserInfoNode@@V?$allocator@PAVUserInfoNode@@@std@@@std@@QBEIXZ PROC ; std::vector<UserInfoNode *,std::allocator<UserInfoNode *> >::size, COMDAT
; _this$ = ecx

; 879  : 		return (this->_Mylast - this->_Myfirst);

  00000	8b 41 04	 mov	 eax, DWORD PTR [ecx+4]
  00003	2b 01		 sub	 eax, DWORD PTR [ecx]
  00005	c1 f8 02	 sar	 eax, 2

; 880  : 		}

  00008	c3		 ret	 0
?size@?$vector@PAVUserInfoNode@@V?$allocator@PAVUserInfoNode@@@std@@@std@@QBEIXZ ENDP ; std::vector<UserInfoNode *,std::allocator<UserInfoNode *> >::size
_TEXT	ENDS
PUBLIC	??0?$Singleton@VioUserInfoMgr@@@@QAE@XZ		; Singleton<ioUserInfoMgr>::Singleton<ioUserInfoMgr>
; Function compile flags: /Ogsp
; File d:\lost saga for developer\youtube\tutorial\source\src\io3dengine\iosingleton.h
;	COMDAT ??0?$Singleton@VioUserInfoMgr@@@@QAE@XZ
_TEXT	SEGMENT
??0?$Singleton@VioUserInfoMgr@@@@QAE@XZ PROC		; Singleton<ioUserInfoMgr>::Singleton<ioUserInfoMgr>, COMDAT
; _this$ = ecx

; 27   : 	Singleton()

  00000	8b c1		 mov	 eax, ecx

; 28   : 	{
; 29   : 		assert( !ms_Singleton );
; 30   : 		int offset = (int)(T*)1 - (int)(Singleton <T>*)(T*)1;
; 31   : 		ms_Singleton = (T*)((int)this + offset);

  00002	8d 48 fc	 lea	 ecx, DWORD PTR [eax-4]
  00005	89 0d 00 00 00
	00		 mov	 DWORD PTR ?ms_Singleton@?$Singleton@VioUserInfoMgr@@@@1PAVioUserInfoMgr@@A, ecx ; Singleton<ioUserInfoMgr>::ms_Singleton

; 32   : 	}

  0000b	c3		 ret	 0
??0?$Singleton@VioUserInfoMgr@@@@QAE@XZ ENDP		; Singleton<ioUserInfoMgr>::Singleton<ioUserInfoMgr>
_TEXT	ENDS
PUBLIC	??1?$Singleton@VioUserInfoMgr@@@@QAE@XZ		; Singleton<ioUserInfoMgr>::~Singleton<ioUserInfoMgr>
; Function compile flags: /Ogsp
;	COMDAT ??1?$Singleton@VioUserInfoMgr@@@@QAE@XZ
_TEXT	SEGMENT
??1?$Singleton@VioUserInfoMgr@@@@QAE@XZ PROC		; Singleton<ioUserInfoMgr>::~Singleton<ioUserInfoMgr>, COMDAT
; _this$ = ecx

; 36   : 		assert( ms_Singleton );
; 37   : 		ms_Singleton = 0;

  00000	83 25 00 00 00
	00 00		 and	 DWORD PTR ?ms_Singleton@?$Singleton@VioUserInfoMgr@@@@1PAVioUserInfoMgr@@A, 0 ; Singleton<ioUserInfoMgr>::ms_Singleton

; 38   : 	}

  00007	c3		 ret	 0
??1?$Singleton@VioUserInfoMgr@@@@QAE@XZ ENDP		; Singleton<ioUserInfoMgr>::~Singleton<ioUserInfoMgr>
_TEXT	ENDS
PUBLIC	?GetSingleton@?$Singleton@VioUserInfoMgr@@@@SAAAVioUserInfoMgr@@XZ ; Singleton<ioUserInfoMgr>::GetSingleton
; Function compile flags: /Ogsp
;	COMDAT ?GetSingleton@?$Singleton@VioUserInfoMgr@@@@SAAAVioUserInfoMgr@@XZ
_TEXT	SEGMENT
?GetSingleton@?$Singleton@VioUserInfoMgr@@@@SAAAVioUserInfoMgr@@XZ PROC ; Singleton<ioUserInfoMgr>::GetSingleton, COMDAT

; 42   : 		assert( ms_Singleton );
; 43   : 		return (*ms_Singleton);

  00000	a1 00 00 00 00	 mov	 eax, DWORD PTR ?ms_Singleton@?$Singleton@VioUserInfoMgr@@@@1PAVioUserInfoMgr@@A ; Singleton<ioUserInfoMgr>::ms_Singleton

; 44   : 	}

  00005	c3		 ret	 0
?GetSingleton@?$Singleton@VioUserInfoMgr@@@@SAAAVioUserInfoMgr@@XZ ENDP ; Singleton<ioUserInfoMgr>::GetSingleton
_TEXT	ENDS
PUBLIC	?_Inside@?$vector@HV?$allocator@H@std@@@std@@IBE_NPBH@Z ; std::vector<int,std::allocator<int> >::_Inside
; Function compile flags: /Ogsp
; File c:\program files (x86)\microsoft visual studio 10.0\vc\include\vector
;	COMDAT ?_Inside@?$vector@HV?$allocator@H@std@@@std@@IBE_NPBH@Z
_TEXT	SEGMENT
__Ptr$ = 8						; size = 4
?_Inside@?$vector@HV?$allocator@H@std@@@std@@IBE_NPBH@Z PROC ; std::vector<int,std::allocator<int> >::_Inside, COMDAT
; _this$ = ecx

; 1285 : 		{	// test if _Ptr points inside vector

  00000	55		 push	 ebp
  00001	8b ec		 mov	 ebp, esp

; 1286 : 		return (_Ptr < this->_Mylast && this->_Myfirst <= _Ptr);

  00003	8b 45 08	 mov	 eax, DWORD PTR __Ptr$[ebp]
  00006	3b 41 04	 cmp	 eax, DWORD PTR [ecx+4]
  00009	73 09		 jae	 SHORT $LN3@Inside
  0000b	39 01		 cmp	 DWORD PTR [ecx], eax
  0000d	77 05		 ja	 SHORT $LN3@Inside
  0000f	33 c0		 xor	 eax, eax
  00011	40		 inc	 eax
  00012	eb 02		 jmp	 SHORT $LN4@Inside
$LN3@Inside:
  00014	33 c0		 xor	 eax, eax
$LN4@Inside:

; 1287 : 		}

  00016	5d		 pop	 ebp
  00017	c2 04 00	 ret	 4
?_Inside@?$vector@HV?$allocator@H@std@@@std@@IBE_NPBH@Z ENDP ; std::vector<int,std::allocator<int> >::_Inside
_TEXT	ENDS
PUBLIC	?_Orphan_range@?$vector@HV?$allocator@H@std@@@std@@IBEXPAH0@Z ; std::vector<int,std::allocator<int> >::_Orphan_range
; Function compile flags: /Ogsp
;	COMDAT ?_Orphan_range@?$vector@HV?$allocator@H@std@@@std@@IBEXPAH0@Z
_TEXT	SEGMENT
___formal$ = 8						; size = 4
___formal$ = 12						; size = 4
?_Orphan_range@?$vector@HV?$allocator@H@std@@@std@@IBEXPAH0@Z PROC ; std::vector<int,std::allocator<int> >::_Orphan_range, COMDAT
; _this$ = ecx

; 1454 : 		}

  00000	c2 08 00	 ret	 8
?_Orphan_range@?$vector@HV?$allocator@H@std@@@std@@IBEXPAH0@Z ENDP ; std::vector<int,std::allocator<int> >::_Orphan_range
_TEXT	ENDS
PUBLIC	?_Inside@?$vector@UCharInfoData@@V?$allocator@UCharInfoData@@@std@@@std@@IBE_NPBUCharInfoData@@@Z ; std::vector<CharInfoData,std::allocator<CharInfoData> >::_Inside
; Function compile flags: /Ogsp
;	COMDAT ?_Inside@?$vector@UCharInfoData@@V?$allocator@UCharInfoData@@@std@@@std@@IBE_NPBUCharInfoData@@@Z
_TEXT	SEGMENT
__Ptr$ = 8						; size = 4
?_Inside@?$vector@UCharInfoData@@V?$allocator@UCharInfoData@@@std@@@std@@IBE_NPBUCharInfoData@@@Z PROC ; std::vector<CharInfoData,std::allocator<CharInfoData> >::_Inside, COMDAT
; _this$ = ecx

; 1285 : 		{	// test if _Ptr points inside vector

  00000	55		 push	 ebp
  00001	8b ec		 mov	 ebp, esp

; 1286 : 		return (_Ptr < this->_Mylast && this->_Myfirst <= _Ptr);

  00003	8b 45 08	 mov	 eax, DWORD PTR __Ptr$[ebp]
  00006	3b 41 04	 cmp	 eax, DWORD PTR [ecx+4]
  00009	73 09		 jae	 SHORT $LN3@Inside@2
  0000b	39 01		 cmp	 DWORD PTR [ecx], eax
  0000d	77 05		 ja	 SHORT $LN3@Inside@2
  0000f	33 c0		 xor	 eax, eax
  00011	40		 inc	 eax
  00012	eb 02		 jmp	 SHORT $LN4@Inside@2
$LN3@Inside@2:
  00014	33 c0		 xor	 eax, eax
$LN4@Inside@2:

; 1287 : 		}

  00016	5d		 pop	 ebp
  00017	c2 04 00	 ret	 4
?_Inside@?$vector@UCharInfoData@@V?$allocator@UCharInfoData@@@std@@@std@@IBE_NPBUCharInfoData@@@Z ENDP ; std::vector<CharInfoData,std::allocator<CharInfoData> >::_Inside
_TEXT	ENDS
PUBLIC	?_Orphan_range@?$vector@UCharInfoData@@V?$allocator@UCharInfoData@@@std@@@std@@IBEXPAUCharInfoData@@0@Z ; std::vector<CharInfoData,std::allocator<CharInfoData> >::_Orphan_range
; Function compile flags: /Ogsp
;	COMDAT ?_Orphan_range@?$vector@UCharInfoData@@V?$allocator@UCharInfoData@@@std@@@std@@IBEXPAUCharInfoData@@0@Z
_TEXT	SEGMENT
___formal$ = 8						; size = 4
___formal$ = 12						; size = 4
?_Orphan_range@?$vector@UCharInfoData@@V?$allocator@UCharInfoData@@@std@@@std@@IBEXPAUCharInfoData@@0@Z PROC ; std::vector<CharInfoData,std::allocator<CharInfoData> >::_Orphan_range, COMDAT
; _this$ = ecx

; 1454 : 		}

  00000	c2 08 00	 ret	 8
?_Orphan_range@?$vector@UCharInfoData@@V?$allocator@UCharInfoData@@@std@@@std@@IBEXPAUCharInfoData@@0@Z ENDP ; std::vector<CharInfoData,std::allocator<CharInfoData> >::_Orphan_range
_TEXT	ENDS
PUBLIC	??1?$_Vector_val@UCharInfoData@@V?$allocator@UCharInfoData@@@std@@@std@@QAE@XZ ; std::_Vector_val<CharInfoData,std::allocator<CharInfoData> >::~_Vector_val<CharInfoData,std::allocator<CharInfoData> >
; Function compile flags: /Ogsp
;	COMDAT ??1?$_Vector_val@UCharInfoData@@V?$allocator@UCharInfoData@@@std@@@std@@QAE@XZ
_TEXT	SEGMENT
??1?$_Vector_val@UCharInfoData@@V?$allocator@UCharInfoData@@@std@@@std@@QAE@XZ PROC ; std::_Vector_val<CharInfoData,std::allocator<CharInfoData> >::~_Vector_val<CharInfoData,std::allocator<CharInfoData> >, COMDAT
; _this$ = ecx

; 434  : 		}

  00000	c3		 ret	 0
??1?$_Vector_val@UCharInfoData@@V?$allocator@UCharInfoData@@@std@@@std@@QAE@XZ ENDP ; std::_Vector_val<CharInfoData,std::allocator<CharInfoData> >::~_Vector_val<CharInfoData,std::allocator<CharInfoData> >
_TEXT	ENDS
PUBLIC	??0?$allocator@UCharInfoData@@@std@@QAE@XZ	; std::allocator<CharInfoData>::allocator<CharInfoData>
; Function compile flags: /Ogsp
; File c:\program files (x86)\microsoft visual studio 10.0\vc\include\xmemory
;	COMDAT ??0?$allocator@UCharInfoData@@@std@@QAE@XZ
_TEXT	SEGMENT
??0?$allocator@UCharInfoData@@@std@@QAE@XZ PROC		; std::allocator<CharInfoData>::allocator<CharInfoData>, COMDAT
; _this$ = ecx

; 161  : 	_ALLOCATOR() _THROW0()

  00000	8b c1		 mov	 eax, ecx

; 162  : 		{	// construct default allocator (do nothing)
; 163  : 		}

  00002	c3		 ret	 0
??0?$allocator@UCharInfoData@@@std@@QAE@XZ ENDP		; std::allocator<CharInfoData>::allocator<CharInfoData>
_TEXT	ENDS
PUBLIC	?_Inside@?$vector@PAVUserInfoNode@@V?$allocator@PAVUserInfoNode@@@std@@@std@@IBE_NPBQAVUserInfoNode@@@Z ; std::vector<UserInfoNode *,std::allocator<UserInfoNode *> >::_Inside
; Function compile flags: /Ogsp
; File c:\program files (x86)\microsoft visual studio 10.0\vc\include\vector
;	COMDAT ?_Inside@?$vector@PAVUserInfoNode@@V?$allocator@PAVUserInfoNode@@@std@@@std@@IBE_NPBQAVUserInfoNode@@@Z
_TEXT	SEGMENT
__Ptr$ = 8						; size = 4
?_Inside@?$vector@PAVUserInfoNode@@V?$allocator@PAVUserInfoNode@@@std@@@std@@IBE_NPBQAVUserInfoNode@@@Z PROC ; std::vector<UserInfoNode *,std::allocator<UserInfoNode *> >::_Inside, COMDAT
; _this$ = ecx

; 1285 : 		{	// test if _Ptr points inside vector

  00000	55		 push	 ebp
  00001	8b ec		 mov	 ebp, esp

; 1286 : 		return (_Ptr < this->_Mylast && this->_Myfirst <= _Ptr);

  00003	8b 45 08	 mov	 eax, DWORD PTR __Ptr$[ebp]
  00006	3b 41 04	 cmp	 eax, DWORD PTR [ecx+4]
  00009	73 09		 jae	 SHORT $LN3@Inside@3
  0000b	39 01		 cmp	 DWORD PTR [ecx], eax
  0000d	77 05		 ja	 SHORT $LN3@Inside@3
  0000f	33 c0		 xor	 eax, eax
  00011	40		 inc	 eax
  00012	eb 02		 jmp	 SHORT $LN4@Inside@3
$LN3@Inside@3:
  00014	33 c0		 xor	 eax, eax
$LN4@Inside@3:

; 1287 : 		}

  00016	5d		 pop	 ebp
  00017	c2 04 00	 ret	 4
?_Inside@?$vector@PAVUserInfoNode@@V?$allocator@PAVUserInfoNode@@@std@@@std@@IBE_NPBQAVUserInfoNode@@@Z ENDP ; std::vector<UserInfoNode *,std::allocator<UserInfoNode *> >::_Inside
_TEXT	ENDS
PUBLIC	?_Orphan_range@?$vector@PAVUserInfoNode@@V?$allocator@PAVUserInfoNode@@@std@@@std@@IBEXPAPAVUserInfoNode@@0@Z ; std::vector<UserInfoNode *,std::allocator<UserInfoNode *> >::_Orphan_range
; Function compile flags: /Ogsp
;	COMDAT ?_Orphan_range@?$vector@PAVUserInfoNode@@V?$allocator@PAVUserInfoNode@@@std@@@std@@IBEXPAPAVUserInfoNode@@0@Z
_TEXT	SEGMENT
___formal$ = 8						; size = 4
___formal$ = 12						; size = 4
?_Orphan_range@?$vector@PAVUserInfoNode@@V?$allocator@PAVUserInfoNode@@@std@@@std@@IBEXPAPAVUserInfoNode@@0@Z PROC ; std::vector<UserInfoNode *,std::allocator<UserInfoNode *> >::_Orphan_range, COMDAT
; _this$ = ecx

; 1454 : 		}

  00000	c2 08 00	 ret	 8
?_Orphan_range@?$vector@PAVUserInfoNode@@V?$allocator@PAVUserInfoNode@@@std@@@std@@IBEXPAPAVUserInfoNode@@0@Z ENDP ; std::vector<UserInfoNode *,std::allocator<UserInfoNode *> >::_Orphan_range
_TEXT	ENDS
PUBLIC	??1?$_Vector_val@PAVUserInfoNode@@V?$allocator@PAVUserInfoNode@@@std@@@std@@QAE@XZ ; std::_Vector_val<UserInfoNode *,std::allocator<UserInfoNode *> >::~_Vector_val<UserInfoNode *,std::allocator<UserInfoNode *> >
; Function compile flags: /Ogsp
;	COMDAT ??1?$_Vector_val@PAVUserInfoNode@@V?$allocator@PAVUserInfoNode@@@std@@@std@@QAE@XZ
_TEXT	SEGMENT
??1?$_Vector_val@PAVUserInfoNode@@V?$allocator@PAVUserInfoNode@@@std@@@std@@QAE@XZ PROC ; std::_Vector_val<UserInfoNode *,std::allocator<UserInfoNode *> >::~_Vector_val<UserInfoNode *,std::allocator<UserInfoNode *> >, COMDAT
; _this$ = ecx

; 434  : 		}

  00000	c3		 ret	 0
??1?$_Vector_val@PAVUserInfoNode@@V?$allocator@PAVUserInfoNode@@@std@@@std@@QAE@XZ ENDP ; std::_Vector_val<UserInfoNode *,std::allocator<UserInfoNode *> >::~_Vector_val<UserInfoNode *,std::allocator<UserInfoNode *> >
_TEXT	ENDS
PUBLIC	??0?$allocator@PAVUserInfoNode@@@std@@QAE@XZ	; std::allocator<UserInfoNode *>::allocator<UserInfoNode *>
; Function compile flags: /Ogsp
; File c:\program files (x86)\microsoft visual studio 10.0\vc\include\xmemory
;	COMDAT ??0?$allocator@PAVUserInfoNode@@@std@@QAE@XZ
_TEXT	SEGMENT
??0?$allocator@PAVUserInfoNode@@@std@@QAE@XZ PROC	; std::allocator<UserInfoNode *>::allocator<UserInfoNode *>, COMDAT
; _this$ = ecx

; 161  : 	_ALLOCATOR() _THROW0()

  00000	8b c1		 mov	 eax, ecx

; 162  : 		{	// construct default allocator (do nothing)
; 163  : 		}

  00002	c3		 ret	 0
??0?$allocator@PAVUserInfoNode@@@std@@QAE@XZ ENDP	; std::allocator<UserInfoNode *>::allocator<UserInfoNode *>
_TEXT	ENDS
PUBLIC	??D?$_Vector_const_iterator@V?$_Vector_val@UCharInfoData@@V?$allocator@UCharInfoData@@@std@@@std@@@std@@QBEABUCharInfoData@@XZ ; std::_Vector_const_iterator<std::_Vector_val<CharInfoData,std::allocator<CharInfoData> > >::operator*
; Function compile flags: /Ogsp
; File c:\program files (x86)\microsoft visual studio 10.0\vc\include\vector
;	COMDAT ??D?$_Vector_const_iterator@V?$_Vector_val@UCharInfoData@@V?$allocator@UCharInfoData@@@std@@@std@@@std@@QBEABUCharInfoData@@XZ
_TEXT	SEGMENT
??D?$_Vector_const_iterator@V?$_Vector_val@UCharInfoData@@V?$allocator@UCharInfoData@@@std@@@std@@@std@@QBEABUCharInfoData@@XZ PROC ; std::_Vector_const_iterator<std::_Vector_val<CharInfoData,std::allocator<CharInfoData> > >::operator*, COMDAT
; _this$ = ecx

; 64   :  #if _ITERATOR_DEBUG_LEVEL == 2
; 65   : 		if (this->_Getcont() == 0
; 66   : 			|| this->_Ptr == 0
; 67   : 			|| this->_Ptr < ((_Myvec *)this->_Getcont())->_Myfirst
; 68   : 			|| ((_Myvec *)this->_Getcont())->_Mylast <= this->_Ptr)
; 69   : 			{	// report error
; 70   : 			_DEBUG_ERROR("vector iterator not dereferencable");
; 71   : 			_SCL_SECURE_OUT_OF_RANGE;
; 72   : 			}
; 73   : 
; 74   :  #elif _ITERATOR_DEBUG_LEVEL == 1
; 75   : 		_SCL_SECURE_VALIDATE(this->_Getcont() != 0);
; 76   : 		_SCL_SECURE_VALIDATE_RANGE(
; 77   : 			this->_Ptr != 0
; 78   : 			&& ((_Myvec *)this->_Getcont())->_Myfirst <= this->_Ptr
; 79   : 			&& this->_Ptr < ((_Myvec *)this->_Getcont())->_Mylast);
; 80   :  #endif /* _ITERATOR_DEBUG_LEVEL */
; 81   : 
; 82   : 		__analysis_assume(this->_Ptr != 0);
; 83   : 
; 84   : 		return (*this->_Ptr);

  00000	8b 01		 mov	 eax, DWORD PTR [ecx]

; 85   : 		}

  00002	c3		 ret	 0
??D?$_Vector_const_iterator@V?$_Vector_val@UCharInfoData@@V?$allocator@UCharInfoData@@@std@@@std@@@std@@QBEABUCharInfoData@@XZ ENDP ; std::_Vector_const_iterator<std::_Vector_val<CharInfoData,std::allocator<CharInfoData> > >::operator*
_TEXT	ENDS
PUBLIC	??E?$_Vector_const_iterator@V?$_Vector_val@UCharInfoData@@V?$allocator@UCharInfoData@@@std@@@std@@@std@@QAEAAV01@XZ ; std::_Vector_const_iterator<std::_Vector_val<CharInfoData,std::allocator<CharInfoData> > >::operator++
; Function compile flags: /Ogsp
;	COMDAT ??E?$_Vector_const_iterator@V?$_Vector_val@UCharInfoData@@V?$allocator@UCharInfoData@@@std@@@std@@@std@@QAEAAV01@XZ
_TEXT	SEGMENT
??E?$_Vector_const_iterator@V?$_Vector_val@UCharInfoData@@V?$allocator@UCharInfoData@@@std@@@std@@@std@@QAEAAV01@XZ PROC ; std::_Vector_const_iterator<std::_Vector_val<CharInfoData,std::allocator<CharInfoData> > >::operator++, COMDAT
; _this$ = ecx

; 93   : 		{	// preincrement

  00000	8b c1		 mov	 eax, ecx

; 94   :  #if _ITERATOR_DEBUG_LEVEL == 2
; 95   : 		if (this->_Getcont() == 0
; 96   : 			|| this->_Ptr == 0
; 97   : 			|| ((_Myvec *)this->_Getcont())->_Mylast <= this->_Ptr)
; 98   : 			{	// report error
; 99   : 			_DEBUG_ERROR("vector iterator not incrementable");
; 100  : 			_SCL_SECURE_OUT_OF_RANGE;
; 101  : 			}
; 102  : 
; 103  :  #elif _ITERATOR_DEBUG_LEVEL == 1
; 104  : 		_SCL_SECURE_VALIDATE(this->_Getcont() != 0);
; 105  : 		_SCL_SECURE_VALIDATE_RANGE(
; 106  : 			this->_Ptr != 0
; 107  : 			&& this->_Ptr < ((_Myvec *)this->_Getcont())->_Mylast);
; 108  :  #endif /* _ITERATOR_DEBUG_LEVEL */
; 109  : 
; 110  : 		++this->_Ptr;

  00002	81 00 c0 03 00
	00		 add	 DWORD PTR [eax], 960	; 000003c0H

; 111  : 		return (*this);
; 112  : 		}

  00008	c3		 ret	 0
??E?$_Vector_const_iterator@V?$_Vector_val@UCharInfoData@@V?$allocator@UCharInfoData@@@std@@@std@@@std@@QAEAAV01@XZ ENDP ; std::_Vector_const_iterator<std::_Vector_val<CharInfoData,std::allocator<CharInfoData> > >::operator++
_TEXT	ENDS
PUBLIC	??0?$_Vector_const_iterator@V?$_Vector_val@PAVUserInfoNode@@V?$allocator@PAVUserInfoNode@@@std@@@std@@@std@@QAE@XZ ; std::_Vector_const_iterator<std::_Vector_val<UserInfoNode *,std::allocator<UserInfoNode *> > >::_Vector_const_iterator<std::_Vector_val<UserInfoNode *,std::allocator<UserInfoNode *> > >
; Function compile flags: /Ogsp
;	COMDAT ??0?$_Vector_const_iterator@V?$_Vector_val@PAVUserInfoNode@@V?$allocator@PAVUserInfoNode@@@std@@@std@@@std@@QAE@XZ
_TEXT	SEGMENT
??0?$_Vector_const_iterator@V?$_Vector_val@PAVUserInfoNode@@V?$allocator@PAVUserInfoNode@@@std@@@std@@@std@@QAE@XZ PROC ; std::_Vector_const_iterator<std::_Vector_val<UserInfoNode *,std::allocator<UserInfoNode *> > >::_Vector_const_iterator<std::_Vector_val<UserInfoNode *,std::allocator<UserInfoNode *> > >, COMDAT
; _this$ = ecx

; 40   : 		{	// construct with null pointer

  00000	8b c1		 mov	 eax, ecx
  00002	83 20 00	 and	 DWORD PTR [eax], 0

; 41   : 		}

  00005	c3		 ret	 0
??0?$_Vector_const_iterator@V?$_Vector_val@PAVUserInfoNode@@V?$allocator@PAVUserInfoNode@@@std@@@std@@@std@@QAE@XZ ENDP ; std::_Vector_const_iterator<std::_Vector_val<UserInfoNode *,std::allocator<UserInfoNode *> > >::_Vector_const_iterator<std::_Vector_val<UserInfoNode *,std::allocator<UserInfoNode *> > >
_TEXT	ENDS
PUBLIC	??D?$_Vector_const_iterator@V?$_Vector_val@PAVUserInfoNode@@V?$allocator@PAVUserInfoNode@@@std@@@std@@@std@@QBEABQAVUserInfoNode@@XZ ; std::_Vector_const_iterator<std::_Vector_val<UserInfoNode *,std::allocator<UserInfoNode *> > >::operator*
; Function compile flags: /Ogsp
;	COMDAT ??D?$_Vector_const_iterator@V?$_Vector_val@PAVUserInfoNode@@V?$allocator@PAVUserInfoNode@@@std@@@std@@@std@@QBEABQAVUserInfoNode@@XZ
_TEXT	SEGMENT
??D?$_Vector_const_iterator@V?$_Vector_val@PAVUserInfoNode@@V?$allocator@PAVUserInfoNode@@@std@@@std@@@std@@QBEABQAVUserInfoNode@@XZ PROC ; std::_Vector_const_iterator<std::_Vector_val<UserInfoNode *,std::allocator<UserInfoNode *> > >::operator*, COMDAT
; _this$ = ecx

; 64   :  #if _ITERATOR_DEBUG_LEVEL == 2
; 65   : 		if (this->_Getcont() == 0
; 66   : 			|| this->_Ptr == 0
; 67   : 			|| this->_Ptr < ((_Myvec *)this->_Getcont())->_Myfirst
; 68   : 			|| ((_Myvec *)this->_Getcont())->_Mylast <= this->_Ptr)
; 69   : 			{	// report error
; 70   : 			_DEBUG_ERROR("vector iterator not dereferencable");
; 71   : 			_SCL_SECURE_OUT_OF_RANGE;
; 72   : 			}
; 73   : 
; 74   :  #elif _ITERATOR_DEBUG_LEVEL == 1
; 75   : 		_SCL_SECURE_VALIDATE(this->_Getcont() != 0);
; 76   : 		_SCL_SECURE_VALIDATE_RANGE(
; 77   : 			this->_Ptr != 0
; 78   : 			&& ((_Myvec *)this->_Getcont())->_Myfirst <= this->_Ptr
; 79   : 			&& this->_Ptr < ((_Myvec *)this->_Getcont())->_Mylast);
; 80   :  #endif /* _ITERATOR_DEBUG_LEVEL */
; 81   : 
; 82   : 		__analysis_assume(this->_Ptr != 0);
; 83   : 
; 84   : 		return (*this->_Ptr);

  00000	8b 01		 mov	 eax, DWORD PTR [ecx]

; 85   : 		}

  00002	c3		 ret	 0
??D?$_Vector_const_iterator@V?$_Vector_val@PAVUserInfoNode@@V?$allocator@PAVUserInfoNode@@@std@@@std@@@std@@QBEABQAVUserInfoNode@@XZ ENDP ; std::_Vector_const_iterator<std::_Vector_val<UserInfoNode *,std::allocator<UserInfoNode *> > >::operator*
_TEXT	ENDS
PUBLIC	??E?$_Vector_const_iterator@V?$_Vector_val@PAVUserInfoNode@@V?$allocator@PAVUserInfoNode@@@std@@@std@@@std@@QAEAAV01@XZ ; std::_Vector_const_iterator<std::_Vector_val<UserInfoNode *,std::allocator<UserInfoNode *> > >::operator++
; Function compile flags: /Ogsp
;	COMDAT ??E?$_Vector_const_iterator@V?$_Vector_val@PAVUserInfoNode@@V?$allocator@PAVUserInfoNode@@@std@@@std@@@std@@QAEAAV01@XZ
_TEXT	SEGMENT
??E?$_Vector_const_iterator@V?$_Vector_val@PAVUserInfoNode@@V?$allocator@PAVUserInfoNode@@@std@@@std@@@std@@QAEAAV01@XZ PROC ; std::_Vector_const_iterator<std::_Vector_val<UserInfoNode *,std::allocator<UserInfoNode *> > >::operator++, COMDAT
; _this$ = ecx

; 93   : 		{	// preincrement

  00000	8b c1		 mov	 eax, ecx

; 94   :  #if _ITERATOR_DEBUG_LEVEL == 2
; 95   : 		if (this->_Getcont() == 0
; 96   : 			|| this->_Ptr == 0
; 97   : 			|| ((_Myvec *)this->_Getcont())->_Mylast <= this->_Ptr)
; 98   : 			{	// report error
; 99   : 			_DEBUG_ERROR("vector iterator not incrementable");
; 100  : 			_SCL_SECURE_OUT_OF_RANGE;
; 101  : 			}
; 102  : 
; 103  :  #elif _ITERATOR_DEBUG_LEVEL == 1
; 104  : 		_SCL_SECURE_VALIDATE(this->_Getcont() != 0);
; 105  : 		_SCL_SECURE_VALIDATE_RANGE(
; 106  : 			this->_Ptr != 0
; 107  : 			&& this->_Ptr < ((_Myvec *)this->_Getcont())->_Mylast);
; 108  :  #endif /* _ITERATOR_DEBUG_LEVEL */
; 109  : 
; 110  : 		++this->_Ptr;

  00002	83 00 04	 add	 DWORD PTR [eax], 4

; 111  : 		return (*this);
; 112  : 		}

  00005	c3		 ret	 0
??E?$_Vector_const_iterator@V?$_Vector_val@PAVUserInfoNode@@V?$allocator@PAVUserInfoNode@@@std@@@std@@@std@@QAEAAV01@XZ ENDP ; std::_Vector_const_iterator<std::_Vector_val<UserInfoNode *,std::allocator<UserInfoNode *> > >::operator++
_TEXT	ENDS
PUBLIC	?capacity@?$vector@UCharInfoData@@V?$allocator@UCharInfoData@@@std@@@std@@QBEIXZ ; std::vector<CharInfoData,std::allocator<CharInfoData> >::capacity
; Function compile flags: /Ogsp
;	COMDAT ?capacity@?$vector@UCharInfoData@@V?$allocator@UCharInfoData@@@std@@@std@@QBEIXZ
_TEXT	SEGMENT
?capacity@?$vector@UCharInfoData@@V?$allocator@UCharInfoData@@@std@@@std@@QBEIXZ PROC ; std::vector<CharInfoData,std::allocator<CharInfoData> >::capacity, COMDAT
; _this$ = ecx

; 777  : 		return (this->_Myend - this->_Myfirst);

  00000	8b 41 08	 mov	 eax, DWORD PTR [ecx+8]
  00003	2b 01		 sub	 eax, DWORD PTR [ecx]
  00005	b9 c0 03 00 00	 mov	 ecx, 960		; 000003c0H
  0000a	99		 cdq
  0000b	f7 f9		 idiv	 ecx

; 778  : 		}

  0000d	c3		 ret	 0
?capacity@?$vector@UCharInfoData@@V?$allocator@UCharInfoData@@@std@@@std@@QBEIXZ ENDP ; std::vector<CharInfoData,std::allocator<CharInfoData> >::capacity
_TEXT	ENDS
PUBLIC	??_C@_0BD@OLBABOEK@vector?$DMT?$DO?5too?5long?$AA@ ; `string'
PUBLIC	?_Xlen@?$vector@UCharInfoData@@V?$allocator@UCharInfoData@@@std@@@std@@IBEXXZ ; std::vector<CharInfoData,std::allocator<CharInfoData> >::_Xlen
EXTRN	__imp_?_Xlength_error@std@@YAXPBD@Z:PROC
;	COMDAT ??_C@_0BD@OLBABOEK@vector?$DMT?$DO?5too?5long?$AA@
CONST	SEGMENT
??_C@_0BD@OLBABOEK@vector?$DMT?$DO?5too?5long?$AA@ DB 'vector<T> too long'
	DB	00H						; `string'
; Function compile flags: /Ogsp
CONST	ENDS
;	COMDAT ?_Xlen@?$vector@UCharInfoData@@V?$allocator@UCharInfoData@@@std@@@std@@IBEXXZ
_TEXT	SEGMENT
?_Xlen@?$vector@UCharInfoData@@V?$allocator@UCharInfoData@@@std@@@std@@IBEXXZ PROC ; std::vector<CharInfoData,std::allocator<CharInfoData> >::_Xlen, COMDAT
; _this$ = ecx

; 1427 : 		_Xlength_error("vector<T> too long");

  00000	68 00 00 00 00	 push	 OFFSET ??_C@_0BD@OLBABOEK@vector?$DMT?$DO?5too?5long?$AA@
  00005	ff 15 00 00 00
	00		 call	 DWORD PTR __imp_?_Xlength_error@std@@YAXPBD@Z
$LN4@Xlen:
$LN3@Xlen:
  0000b	cc		 int	 3
?_Xlen@?$vector@UCharInfoData@@V?$allocator@UCharInfoData@@@std@@@std@@IBEXXZ ENDP ; std::vector<CharInfoData,std::allocator<CharInfoData> >::_Xlen
_TEXT	ENDS
PUBLIC	??0?$allocator@UCharInfoData@@@std@@QAE@ABV01@@Z ; std::allocator<CharInfoData>::allocator<CharInfoData>
; Function compile flags: /Ogsp
; File c:\program files (x86)\microsoft visual studio 10.0\vc\include\xmemory
;	COMDAT ??0?$allocator@UCharInfoData@@@std@@QAE@ABV01@@Z
_TEXT	SEGMENT
___formal$ = 8						; size = 4
??0?$allocator@UCharInfoData@@@std@@QAE@ABV01@@Z PROC	; std::allocator<CharInfoData>::allocator<CharInfoData>, COMDAT
; _this$ = ecx

; 165  : 	_ALLOCATOR(const _ALLOCATOR<_Ty>&) _THROW0()

  00000	8b c1		 mov	 eax, ecx

; 166  : 		{	// construct by copying (do nothing)
; 167  : 		}

  00002	c2 04 00	 ret	 4
??0?$allocator@UCharInfoData@@@std@@QAE@ABV01@@Z ENDP	; std::allocator<CharInfoData>::allocator<CharInfoData>
_TEXT	ENDS
PUBLIC	?deallocate@?$allocator@UCharInfoData@@@std@@QAEXPAUCharInfoData@@I@Z ; std::allocator<CharInfoData>::deallocate
; Function compile flags: /Ogsp
;	COMDAT ?deallocate@?$allocator@UCharInfoData@@@std@@QAEXPAUCharInfoData@@I@Z
_TEXT	SEGMENT
__Ptr$ = 8						; size = 4
___formal$ = 12						; size = 4
?deallocate@?$allocator@UCharInfoData@@@std@@QAEXPAUCharInfoData@@I@Z PROC ; std::allocator<CharInfoData>::deallocate, COMDAT
; _this$ = ecx

; 181  : 		{	// deallocate object at _Ptr, ignore size

  00000	55		 push	 ebp
  00001	8b ec		 mov	 ebp, esp

; 182  : 		::operator delete(_Ptr);

  00003	ff 75 08	 push	 DWORD PTR __Ptr$[ebp]
  00006	e8 00 00 00 00	 call	 ??3@YAXPAX@Z		; operator delete
  0000b	59		 pop	 ecx

; 183  : 		}

  0000c	5d		 pop	 ebp
  0000d	c2 08 00	 ret	 8
?deallocate@?$allocator@UCharInfoData@@@std@@QAEXPAUCharInfoData@@I@Z ENDP ; std::allocator<CharInfoData>::deallocate
_TEXT	ENDS
PUBLIC	?capacity@?$vector@PAVUserInfoNode@@V?$allocator@PAVUserInfoNode@@@std@@@std@@QBEIXZ ; std::vector<UserInfoNode *,std::allocator<UserInfoNode *> >::capacity
; Function compile flags: /Ogsp
; File c:\program files (x86)\microsoft visual studio 10.0\vc\include\vector
;	COMDAT ?capacity@?$vector@PAVUserInfoNode@@V?$allocator@PAVUserInfoNode@@@std@@@std@@QBEIXZ
_TEXT	SEGMENT
?capacity@?$vector@PAVUserInfoNode@@V?$allocator@PAVUserInfoNode@@@std@@@std@@QBEIXZ PROC ; std::vector<UserInfoNode *,std::allocator<UserInfoNode *> >::capacity, COMDAT
; _this$ = ecx

; 777  : 		return (this->_Myend - this->_Myfirst);

  00000	8b 41 08	 mov	 eax, DWORD PTR [ecx+8]
  00003	2b 01		 sub	 eax, DWORD PTR [ecx]
  00005	c1 f8 02	 sar	 eax, 2

; 778  : 		}

  00008	c3		 ret	 0
?capacity@?$vector@PAVUserInfoNode@@V?$allocator@PAVUserInfoNode@@@std@@@std@@QBEIXZ ENDP ; std::vector<UserInfoNode *,std::allocator<UserInfoNode *> >::capacity
_TEXT	ENDS
PUBLIC	?_Xlen@?$vector@PAVUserInfoNode@@V?$allocator@PAVUserInfoNode@@@std@@@std@@IBEXXZ ; std::vector<UserInfoNode *,std::allocator<UserInfoNode *> >::_Xlen
; Function compile flags: /Ogsp
;	COMDAT ?_Xlen@?$vector@PAVUserInfoNode@@V?$allocator@PAVUserInfoNode@@@std@@@std@@IBEXXZ
_TEXT	SEGMENT
?_Xlen@?$vector@PAVUserInfoNode@@V?$allocator@PAVUserInfoNode@@@std@@@std@@IBEXXZ PROC ; std::vector<UserInfoNode *,std::allocator<UserInfoNode *> >::_Xlen, COMDAT
; _this$ = ecx

; 1427 : 		_Xlength_error("vector<T> too long");

  00000	68 00 00 00 00	 push	 OFFSET ??_C@_0BD@OLBABOEK@vector?$DMT?$DO?5too?5long?$AA@
  00005	ff 15 00 00 00
	00		 call	 DWORD PTR __imp_?_Xlength_error@std@@YAXPBD@Z
$LN4@Xlen@2:
$LN3@Xlen@2:
  0000b	cc		 int	 3
?_Xlen@?$vector@PAVUserInfoNode@@V?$allocator@PAVUserInfoNode@@@std@@@std@@IBEXXZ ENDP ; std::vector<UserInfoNode *,std::allocator<UserInfoNode *> >::_Xlen
_TEXT	ENDS
PUBLIC	??0?$allocator@PAVUserInfoNode@@@std@@QAE@ABV01@@Z ; std::allocator<UserInfoNode *>::allocator<UserInfoNode *>
; Function compile flags: /Ogsp
; File c:\program files (x86)\microsoft visual studio 10.0\vc\include\xmemory
;	COMDAT ??0?$allocator@PAVUserInfoNode@@@std@@QAE@ABV01@@Z
_TEXT	SEGMENT
___formal$ = 8						; size = 4
??0?$allocator@PAVUserInfoNode@@@std@@QAE@ABV01@@Z PROC	; std::allocator<UserInfoNode *>::allocator<UserInfoNode *>, COMDAT
; _this$ = ecx

; 165  : 	_ALLOCATOR(const _ALLOCATOR<_Ty>&) _THROW0()

  00000	8b c1		 mov	 eax, ecx

; 166  : 		{	// construct by copying (do nothing)
; 167  : 		}

  00002	c2 04 00	 ret	 4
??0?$allocator@PAVUserInfoNode@@@std@@QAE@ABV01@@Z ENDP	; std::allocator<UserInfoNode *>::allocator<UserInfoNode *>
_TEXT	ENDS
PUBLIC	?deallocate@?$allocator@PAVUserInfoNode@@@std@@QAEXPAPAVUserInfoNode@@I@Z ; std::allocator<UserInfoNode *>::deallocate
; Function compile flags: /Ogsp
;	COMDAT ?deallocate@?$allocator@PAVUserInfoNode@@@std@@QAEXPAPAVUserInfoNode@@I@Z
_TEXT	SEGMENT
__Ptr$ = 8						; size = 4
___formal$ = 12						; size = 4
?deallocate@?$allocator@PAVUserInfoNode@@@std@@QAEXPAPAVUserInfoNode@@I@Z PROC ; std::allocator<UserInfoNode *>::deallocate, COMDAT
; _this$ = ecx

; 181  : 		{	// deallocate object at _Ptr, ignore size

  00000	55		 push	 ebp
  00001	8b ec		 mov	 ebp, esp

; 182  : 		::operator delete(_Ptr);

  00003	ff 75 08	 push	 DWORD PTR __Ptr$[ebp]
  00006	e8 00 00 00 00	 call	 ??3@YAXPAX@Z		; operator delete
  0000b	59		 pop	 ecx

; 183  : 		}

  0000c	5d		 pop	 ebp
  0000d	c2 08 00	 ret	 8
?deallocate@?$allocator@PAVUserInfoNode@@@std@@QAEXPAPAVUserInfoNode@@I@Z ENDP ; std::allocator<UserInfoNode *>::deallocate
_TEXT	ENDS
PUBLIC	??0?$_Vector_const_iterator@V?$_Vector_val@UCharInfoData@@V?$allocator@UCharInfoData@@@std@@@std@@@std@@QAE@PAUCharInfoData@@PBU_Container_base0@1@@Z ; std::_Vector_const_iterator<std::_Vector_val<CharInfoData,std::allocator<CharInfoData> > >::_Vector_const_iterator<std::_Vector_val<CharInfoData,std::allocator<CharInfoData> > >
; Function compile flags: /Ogsp
; File c:\program files (x86)\microsoft visual studio 10.0\vc\include\vector
;	COMDAT ??0?$_Vector_const_iterator@V?$_Vector_val@UCharInfoData@@V?$allocator@UCharInfoData@@@std@@@std@@@std@@QAE@PAUCharInfoData@@PBU_Container_base0@1@@Z
_TEXT	SEGMENT
__Parg$ = 8						; size = 4
__Pvector$ = 12						; size = 4
??0?$_Vector_const_iterator@V?$_Vector_val@UCharInfoData@@V?$allocator@UCharInfoData@@@std@@@std@@@std@@QAE@PAUCharInfoData@@PBU_Container_base0@1@@Z PROC ; std::_Vector_const_iterator<std::_Vector_val<CharInfoData,std::allocator<CharInfoData> > >::_Vector_const_iterator<std::_Vector_val<CharInfoData,std::allocator<CharInfoData> > >, COMDAT
; _this$ = ecx

; 45   : 		{	// construct with pointer _Parg

  00000	55		 push	 ebp
  00001	8b ec		 mov	 ebp, esp
  00003	8b c1		 mov	 eax, ecx
  00005	8b 4d 08	 mov	 ecx, DWORD PTR __Parg$[ebp]
  00008	89 08		 mov	 DWORD PTR [eax], ecx

; 46   : 		this->_Adopt(_Pvector);
; 47   : 		}

  0000a	5d		 pop	 ebp
  0000b	c2 08 00	 ret	 8
??0?$_Vector_const_iterator@V?$_Vector_val@UCharInfoData@@V?$allocator@UCharInfoData@@@std@@@std@@@std@@QAE@PAUCharInfoData@@PBU_Container_base0@1@@Z ENDP ; std::_Vector_const_iterator<std::_Vector_val<CharInfoData,std::allocator<CharInfoData> > >::_Vector_const_iterator<std::_Vector_val<CharInfoData,std::allocator<CharInfoData> > >
_TEXT	ENDS
PUBLIC	?_Compat@?$_Vector_const_iterator@V?$_Vector_val@UCharInfoData@@V?$allocator@UCharInfoData@@@std@@@std@@@std@@QBEXABV12@@Z ; std::_Vector_const_iterator<std::_Vector_val<CharInfoData,std::allocator<CharInfoData> > >::_Compat
; Function compile flags: /Ogsp
;	COMDAT ?_Compat@?$_Vector_const_iterator@V?$_Vector_val@UCharInfoData@@V?$allocator@UCharInfoData@@@std@@@std@@@std@@QBEXABV12@@Z
_TEXT	SEGMENT
___formal$ = 8						; size = 4
?_Compat@?$_Vector_const_iterator@V?$_Vector_val@UCharInfoData@@V?$allocator@UCharInfoData@@@std@@@std@@@std@@QBEXABV12@@Z PROC ; std::_Vector_const_iterator<std::_Vector_val<CharInfoData,std::allocator<CharInfoData> > >::_Compat, COMDAT
; _this$ = ecx

; 253  : 		}

  00000	c2 04 00	 ret	 4
?_Compat@?$_Vector_const_iterator@V?$_Vector_val@UCharInfoData@@V?$allocator@UCharInfoData@@@std@@@std@@@std@@QBEXABV12@@Z ENDP ; std::_Vector_const_iterator<std::_Vector_val<CharInfoData,std::allocator<CharInfoData> > >::_Compat
_TEXT	ENDS
PUBLIC	??0?$_Vector_const_iterator@V?$_Vector_val@PAVUserInfoNode@@V?$allocator@PAVUserInfoNode@@@std@@@std@@@std@@QAE@PAPAVUserInfoNode@@PBU_Container_base0@1@@Z ; std::_Vector_const_iterator<std::_Vector_val<UserInfoNode *,std::allocator<UserInfoNode *> > >::_Vector_const_iterator<std::_Vector_val<UserInfoNode *,std::allocator<UserInfoNode *> > >
; Function compile flags: /Ogsp
;	COMDAT ??0?$_Vector_const_iterator@V?$_Vector_val@PAVUserInfoNode@@V?$allocator@PAVUserInfoNode@@@std@@@std@@@std@@QAE@PAPAVUserInfoNode@@PBU_Container_base0@1@@Z
_TEXT	SEGMENT
__Parg$ = 8						; size = 4
__Pvector$ = 12						; size = 4
??0?$_Vector_const_iterator@V?$_Vector_val@PAVUserInfoNode@@V?$allocator@PAVUserInfoNode@@@std@@@std@@@std@@QAE@PAPAVUserInfoNode@@PBU_Container_base0@1@@Z PROC ; std::_Vector_const_iterator<std::_Vector_val<UserInfoNode *,std::allocator<UserInfoNode *> > >::_Vector_const_iterator<std::_Vector_val<UserInfoNode *,std::allocator<UserInfoNode *> > >, COMDAT
; _this$ = ecx

; 45   : 		{	// construct with pointer _Parg

  00000	55		 push	 ebp
  00001	8b ec		 mov	 ebp, esp
  00003	8b c1		 mov	 eax, ecx
  00005	8b 4d 08	 mov	 ecx, DWORD PTR __Parg$[ebp]
  00008	89 08		 mov	 DWORD PTR [eax], ecx

; 46   : 		this->_Adopt(_Pvector);
; 47   : 		}

  0000a	5d		 pop	 ebp
  0000b	c2 08 00	 ret	 8
??0?$_Vector_const_iterator@V?$_Vector_val@PAVUserInfoNode@@V?$allocator@PAVUserInfoNode@@@std@@@std@@@std@@QAE@PAPAVUserInfoNode@@PBU_Container_base0@1@@Z ENDP ; std::_Vector_const_iterator<std::_Vector_val<UserInfoNode *,std::allocator<UserInfoNode *> > >::_Vector_const_iterator<std::_Vector_val<UserInfoNode *,std::allocator<UserInfoNode *> > >
_TEXT	ENDS
PUBLIC	?_Compat@?$_Vector_const_iterator@V?$_Vector_val@PAVUserInfoNode@@V?$allocator@PAVUserInfoNode@@@std@@@std@@@std@@QBEXABV12@@Z ; std::_Vector_const_iterator<std::_Vector_val<UserInfoNode *,std::allocator<UserInfoNode *> > >::_Compat
; Function compile flags: /Ogsp
;	COMDAT ?_Compat@?$_Vector_const_iterator@V?$_Vector_val@PAVUserInfoNode@@V?$allocator@PAVUserInfoNode@@@std@@@std@@@std@@QBEXABV12@@Z
_TEXT	SEGMENT
___formal$ = 8						; size = 4
?_Compat@?$_Vector_const_iterator@V?$_Vector_val@PAVUserInfoNode@@V?$allocator@PAVUserInfoNode@@@std@@@std@@@std@@QBEXABV12@@Z PROC ; std::_Vector_const_iterator<std::_Vector_val<UserInfoNode *,std::allocator<UserInfoNode *> > >::_Compat, COMDAT
; _this$ = ecx

; 253  : 		}

  00000	c2 04 00	 ret	 4
?_Compat@?$_Vector_const_iterator@V?$_Vector_val@PAVUserInfoNode@@V?$allocator@PAVUserInfoNode@@@std@@@std@@@std@@QBEXABV12@@Z ENDP ; std::_Vector_const_iterator<std::_Vector_val<UserInfoNode *,std::allocator<UserInfoNode *> > >::_Compat
_TEXT	ENDS
PUBLIC	?max_size@?$allocator@UCharInfoData@@@std@@QBEIXZ ; std::allocator<CharInfoData>::max_size
; Function compile flags: /Ogsp
; File c:\program files (x86)\microsoft visual studio 10.0\vc\include\xmemory
;	COMDAT ?max_size@?$allocator@UCharInfoData@@@std@@QBEIXZ
_TEXT	SEGMENT
?max_size@?$allocator@UCharInfoData@@@std@@QBEIXZ PROC	; std::allocator<CharInfoData>::max_size, COMDAT
; _this$ = ecx

; 218  : 		_SIZT _Count = (_SIZT)(-1) / sizeof (_Ty);
; 219  : 		return (0 < _Count ? _Count : 1);

  00000	b8 44 44 44 00	 mov	 eax, 4473924		; 00444444H

; 220  : 		}

  00005	c3		 ret	 0
?max_size@?$allocator@UCharInfoData@@@std@@QBEIXZ ENDP	; std::allocator<CharInfoData>::max_size
_TEXT	ENDS
PUBLIC	?max_size@?$allocator@PAVUserInfoNode@@@std@@QBEIXZ ; std::allocator<UserInfoNode *>::max_size
; Function compile flags: /Ogsp
;	COMDAT ?max_size@?$allocator@PAVUserInfoNode@@@std@@QBEIXZ
_TEXT	SEGMENT
?max_size@?$allocator@PAVUserInfoNode@@@std@@QBEIXZ PROC ; std::allocator<UserInfoNode *>::max_size, COMDAT
; _this$ = ecx

; 218  : 		_SIZT _Count = (_SIZT)(-1) / sizeof (_Ty);
; 219  : 		return (0 < _Count ? _Count : 1);

  00000	b8 ff ff ff 3f	 mov	 eax, 1073741823		; 3fffffffH

; 220  : 		}

  00005	c3		 ret	 0
?max_size@?$allocator@PAVUserInfoNode@@@std@@QBEIXZ ENDP ; std::allocator<UserInfoNode *>::max_size
_TEXT	ENDS
PUBLIC	??$addressof@$$CBH@std@@YAPBHABH@Z		; std::addressof<int const >
; Function compile flags: /Ogsp
;	COMDAT ??$addressof@$$CBH@std@@YAPBHABH@Z
_TEXT	SEGMENT
__Val$ = 8						; size = 4
??$addressof@$$CBH@std@@YAPBHABH@Z PROC			; std::addressof<int const >, COMDAT

; 110  : 	{	// return address of _Val

  00000	55		 push	 ebp
  00001	8b ec		 mov	 ebp, esp

; 111  : 	return ((_Ty *) &(char&)_Val);

  00003	8b 45 08	 mov	 eax, DWORD PTR __Val$[ebp]

; 112  : 	}

  00006	5d		 pop	 ebp
  00007	c3		 ret	 0
??$addressof@$$CBH@std@@YAPBHABH@Z ENDP			; std::addressof<int const >
_TEXT	ENDS
PUBLIC	??$addressof@$$CBUCharInfoData@@@std@@YAPBUCharInfoData@@ABU1@@Z ; std::addressof<CharInfoData const >
; Function compile flags: /Ogsp
;	COMDAT ??$addressof@$$CBUCharInfoData@@@std@@YAPBUCharInfoData@@ABU1@@Z
_TEXT	SEGMENT
__Val$ = 8						; size = 4
??$addressof@$$CBUCharInfoData@@@std@@YAPBUCharInfoData@@ABU1@@Z PROC ; std::addressof<CharInfoData const >, COMDAT

; 110  : 	{	// return address of _Val

  00000	55		 push	 ebp
  00001	8b ec		 mov	 ebp, esp

; 111  : 	return ((_Ty *) &(char&)_Val);

  00003	8b 45 08	 mov	 eax, DWORD PTR __Val$[ebp]

; 112  : 	}

  00006	5d		 pop	 ebp
  00007	c3		 ret	 0
??$addressof@$$CBUCharInfoData@@@std@@YAPBUCharInfoData@@ABU1@@Z ENDP ; std::addressof<CharInfoData const >
_TEXT	ENDS
PUBLIC	??$addressof@QAVUserInfoNode@@@std@@YAPBQAVUserInfoNode@@ABQAV1@@Z ; std::addressof<UserInfoNode * const>
; Function compile flags: /Ogsp
;	COMDAT ??$addressof@QAVUserInfoNode@@@std@@YAPBQAVUserInfoNode@@ABQAV1@@Z
_TEXT	SEGMENT
__Val$ = 8						; size = 4
??$addressof@QAVUserInfoNode@@@std@@YAPBQAVUserInfoNode@@ABQAV1@@Z PROC ; std::addressof<UserInfoNode * const>, COMDAT

; 110  : 	{	// return address of _Val

  00000	55		 push	 ebp
  00001	8b ec		 mov	 ebp, esp

; 111  : 	return ((_Ty *) &(char&)_Val);

  00003	8b 45 08	 mov	 eax, DWORD PTR __Val$[ebp]

; 112  : 	}

  00006	5d		 pop	 ebp
  00007	c3		 ret	 0
??$addressof@QAVUserInfoNode@@@std@@YAPBQAVUserInfoNode@@ABQAV1@@Z ENDP ; std::addressof<UserInfoNode * const>
_TEXT	ENDS
PUBLIC	__TI2?AVbad_alloc@std@@
PUBLIC	??$_Allocate@UCharInfoData@@@std@@YAPAUCharInfoData@@IPAU1@@Z ; std::_Allocate<CharInfoData>
PUBLIC	__CTA2?AVbad_alloc@std@@
PUBLIC	__CT??_R0?AVbad_alloc@std@@@8??0bad_alloc@std@@QAE@ABV01@@Z12
PUBLIC	??0bad_alloc@std@@QAE@ABV01@@Z			; std::bad_alloc::bad_alloc
PUBLIC	__CT??_R0?AVexception@std@@@8??0exception@std@@QAE@ABV01@@Z12
EXTRN	??2@YAPAXI@Z:PROC				; operator new
EXTRN	__CxxThrowException@8:PROC
EXTRN	??0exception@std@@QAE@ABV01@@Z:PROC		; std::exception::exception
;	COMDAT __CT??_R0?AVexception@std@@@8??0exception@std@@QAE@ABV01@@Z12
; File c:\program files (x86)\microsoft visual studio 10.0\vc\include\exception
xdata$x	SEGMENT
__CT??_R0?AVexception@std@@@8??0exception@std@@QAE@ABV01@@Z12 DD 00H
	DD	FLAT:??_R0?AVexception@std@@@8
	DD	00H
	DD	0ffffffffH
	ORG $+4
	DD	0cH
	DD	FLAT:??0exception@std@@QAE@ABV01@@Z
xdata$x	ENDS
;	COMDAT __CT??_R0?AVbad_alloc@std@@@8??0bad_alloc@std@@QAE@ABV01@@Z12
xdata$x	SEGMENT
__CT??_R0?AVbad_alloc@std@@@8??0bad_alloc@std@@QAE@ABV01@@Z12 DD 00H
	DD	FLAT:??_R0?AVbad_alloc@std@@@8
	DD	00H
	DD	0ffffffffH
	ORG $+4
	DD	0cH
	DD	FLAT:??0bad_alloc@std@@QAE@ABV01@@Z
xdata$x	ENDS
;	COMDAT __CTA2?AVbad_alloc@std@@
xdata$x	SEGMENT
__CTA2?AVbad_alloc@std@@ DD 02H
	DD	FLAT:__CT??_R0?AVbad_alloc@std@@@8??0bad_alloc@std@@QAE@ABV01@@Z12
	DD	FLAT:__CT??_R0?AVexception@std@@@8??0exception@std@@QAE@ABV01@@Z12
xdata$x	ENDS
;	COMDAT __TI2?AVbad_alloc@std@@
xdata$x	SEGMENT
__TI2?AVbad_alloc@std@@ DD 00H
	DD	FLAT:??1bad_alloc@std@@UAE@XZ
	DD	00H
	DD	FLAT:__CTA2?AVbad_alloc@std@@
; Function compile flags: /Ogsp
; File c:\program files (x86)\microsoft visual studio 10.0\vc\include\xmemory
xdata$x	ENDS
;	COMDAT ??$_Allocate@UCharInfoData@@@std@@YAPAUCharInfoData@@IPAU1@@Z
_TEXT	SEGMENT
$T517963 = -12						; size = 12
$T517968 = 8						; size = 4
__Count$ = 8						; size = 4
___formal$ = 12						; size = 4
??$_Allocate@UCharInfoData@@@std@@YAPAUCharInfoData@@IPAU1@@Z PROC ; std::_Allocate<CharInfoData>, COMDAT

; 30   : 	{	// allocate storage for _Count elements of type _Ty

  00000	55		 push	 ebp
  00001	8b ec		 mov	 ebp, esp

; 31   : 	void *_Ptr = 0;
; 32   : 
; 33   : 	if (_Count <= 0)

  00003	8b 4d 08	 mov	 ecx, DWORD PTR __Count$[ebp]
  00006	83 ec 0c	 sub	 esp, 12			; 0000000cH
  00009	33 c0		 xor	 eax, eax
  0000b	85 c9		 test	 ecx, ecx

; 34   : 		_Count = 0;
; 35   : 	else if (((_SIZT)(-1) / sizeof (_Ty) < _Count)

  0000d	74 3f		 je	 SHORT $LN5@Allocate

; 36   : 		|| (_Ptr = ::operator new(_Count * sizeof (_Ty))) == 0)

  0000f	81 f9 44 44 44
	00		 cmp	 ecx, 4473924		; 00444444H
  00015	77 11		 ja	 SHORT $LN1@Allocate
  00017	69 c9 c0 03 00
	00		 imul	 ecx, 960		; 000003c0H
  0001d	51		 push	 ecx
  0001e	e8 00 00 00 00	 call	 ??2@YAPAXI@Z		; operator new
  00023	59		 pop	 ecx
  00024	85 c0		 test	 eax, eax

; 38   : 
; 39   : 	return ((_Ty _FARQ *)_Ptr);

  00026	75 26		 jne	 SHORT $LN5@Allocate
$LN1@Allocate:

; 37   : 		_THROW_NCEE(bad_alloc, 0);

  00028	83 65 08 00	 and	 DWORD PTR $T517968[ebp], 0
  0002c	8d 45 08	 lea	 eax, DWORD PTR $T517968[ebp]
  0002f	50		 push	 eax
  00030	8d 4d f4	 lea	 ecx, DWORD PTR $T517963[ebp]
  00033	ff 15 00 00 00
	00		 call	 DWORD PTR __imp_??0exception@std@@QAE@ABQBD@Z
  00039	68 00 00 00 00	 push	 OFFSET __TI2?AVbad_alloc@std@@
  0003e	8d 45 f4	 lea	 eax, DWORD PTR $T517963[ebp]
  00041	50		 push	 eax
  00042	c7 45 f4 00 00
	00 00		 mov	 DWORD PTR $T517963[ebp], OFFSET ??_7bad_alloc@std@@6B@
  00049	e8 00 00 00 00	 call	 __CxxThrowException@8
$LN10@Allocate:
$LN5@Allocate:

; 40   : 	}

  0004e	c9		 leave
  0004f	c3		 ret	 0
$LN9@Allocate:
??$_Allocate@UCharInfoData@@@std@@YAPAUCharInfoData@@IPAU1@@Z ENDP ; std::_Allocate<CharInfoData>
_TEXT	ENDS
PUBLIC	??$_Allocate@PAVUserInfoNode@@@std@@YAPAPAVUserInfoNode@@IPAPAV1@@Z ; std::_Allocate<UserInfoNode *>
; Function compile flags: /Ogsp
;	COMDAT ??$_Allocate@PAVUserInfoNode@@@std@@YAPAPAVUserInfoNode@@IPAPAV1@@Z
_TEXT	SEGMENT
$T517973 = -12						; size = 12
$T517977 = 8						; size = 4
__Count$ = 8						; size = 4
___formal$ = 12						; size = 4
??$_Allocate@PAVUserInfoNode@@@std@@YAPAPAVUserInfoNode@@IPAPAV1@@Z PROC ; std::_Allocate<UserInfoNode *>, COMDAT

; 30   : 	{	// allocate storage for _Count elements of type _Ty

  00000	55		 push	 ebp
  00001	8b ec		 mov	 ebp, esp

; 31   : 	void *_Ptr = 0;
; 32   : 
; 33   : 	if (_Count <= 0)

  00003	8b 4d 08	 mov	 ecx, DWORD PTR __Count$[ebp]
  00006	83 ec 0c	 sub	 esp, 12			; 0000000cH
  00009	33 c0		 xor	 eax, eax
  0000b	85 c9		 test	 ecx, ecx

; 34   : 		_Count = 0;
; 35   : 	else if (((_SIZT)(-1) / sizeof (_Ty) < _Count)

  0000d	74 3e		 je	 SHORT $LN5@Allocate@2

; 36   : 		|| (_Ptr = ::operator new(_Count * sizeof (_Ty))) == 0)

  0000f	81 f9 ff ff ff
	3f		 cmp	 ecx, 1073741823		; 3fffffffH
  00015	77 10		 ja	 SHORT $LN1@Allocate@2
  00017	8b c1		 mov	 eax, ecx
  00019	c1 e0 02	 shl	 eax, 2
  0001c	50		 push	 eax
  0001d	e8 00 00 00 00	 call	 ??2@YAPAXI@Z		; operator new
  00022	59		 pop	 ecx
  00023	85 c0		 test	 eax, eax

; 38   : 
; 39   : 	return ((_Ty _FARQ *)_Ptr);

  00025	75 26		 jne	 SHORT $LN5@Allocate@2
$LN1@Allocate@2:

; 37   : 		_THROW_NCEE(bad_alloc, 0);

  00027	83 65 08 00	 and	 DWORD PTR $T517977[ebp], 0
  0002b	8d 45 08	 lea	 eax, DWORD PTR $T517977[ebp]
  0002e	50		 push	 eax
  0002f	8d 4d f4	 lea	 ecx, DWORD PTR $T517973[ebp]
  00032	ff 15 00 00 00
	00		 call	 DWORD PTR __imp_??0exception@std@@QAE@ABQBD@Z
  00038	68 00 00 00 00	 push	 OFFSET __TI2?AVbad_alloc@std@@
  0003d	8d 45 f4	 lea	 eax, DWORD PTR $T517973[ebp]
  00040	50		 push	 eax
  00041	c7 45 f4 00 00
	00 00		 mov	 DWORD PTR $T517973[ebp], OFFSET ??_7bad_alloc@std@@6B@
  00048	e8 00 00 00 00	 call	 __CxxThrowException@8
$LN10@Allocate@2:
$LN5@Allocate@2:

; 40   : 	}

  0004d	c9		 leave
  0004e	c3		 ret	 0
$LN9@Allocate@2:
??$_Allocate@PAVUserInfoNode@@@std@@YAPAPAVUserInfoNode@@IPAPAV1@@Z ENDP ; std::_Allocate<UserInfoNode *>
_TEXT	ENDS
PUBLIC	??G?$_Vector_const_iterator@V?$_Vector_val@UCharInfoData@@V?$allocator@UCharInfoData@@@std@@@std@@@std@@QBEHABV01@@Z ; std::_Vector_const_iterator<std::_Vector_val<CharInfoData,std::allocator<CharInfoData> > >::operator-
; Function compile flags: /Ogsp
; File c:\program files (x86)\microsoft visual studio 10.0\vc\include\vector
;	COMDAT ??G?$_Vector_const_iterator@V?$_Vector_val@UCharInfoData@@V?$allocator@UCharInfoData@@@std@@@std@@@std@@QBEHABV01@@Z
_TEXT	SEGMENT
__Right$ = 8						; size = 4
??G?$_Vector_const_iterator@V?$_Vector_val@UCharInfoData@@V?$allocator@UCharInfoData@@@std@@@std@@@std@@QBEHABV01@@Z PROC ; std::_Vector_const_iterator<std::_Vector_val<CharInfoData,std::allocator<CharInfoData> > >::operator-, COMDAT
; _this$ = ecx

; 190  : 		{	// return difference of iterators

  00000	55		 push	 ebp
  00001	8b ec		 mov	 ebp, esp

; 191  : 		_Compat(_Right);
; 192  : 		return (this->_Ptr - _Right._Ptr);

  00003	8b 01		 mov	 eax, DWORD PTR [ecx]
  00005	8b 4d 08	 mov	 ecx, DWORD PTR __Right$[ebp]
  00008	2b 01		 sub	 eax, DWORD PTR [ecx]
  0000a	b9 c0 03 00 00	 mov	 ecx, 960		; 000003c0H
  0000f	99		 cdq
  00010	f7 f9		 idiv	 ecx

; 193  : 		}

  00012	5d		 pop	 ebp
  00013	c2 04 00	 ret	 4
??G?$_Vector_const_iterator@V?$_Vector_val@UCharInfoData@@V?$allocator@UCharInfoData@@@std@@@std@@@std@@QBEHABV01@@Z ENDP ; std::_Vector_const_iterator<std::_Vector_val<CharInfoData,std::allocator<CharInfoData> > >::operator-
_TEXT	ENDS
PUBLIC	??$_Copy_impl@PAHPAH@std@@YAPAHPAH00U_Scalar_ptr_iterator_tag@0@@Z ; std::_Copy_impl<int *,int *>
EXTRN	__imp__memmove:PROC
; Function compile flags: /Ogsp
; File c:\program files (x86)\microsoft visual studio 10.0\vc\include\xutility
;	COMDAT ??$_Copy_impl@PAHPAH@std@@YAPAHPAH00U_Scalar_ptr_iterator_tag@0@@Z
_TEXT	SEGMENT
__First$ = 8						; size = 4
__Last$ = 12						; size = 4
__Dest$ = 16						; size = 4
___formal$ = 20						; size = 1
??$_Copy_impl@PAHPAH@std@@YAPAHPAH00U_Scalar_ptr_iterator_tag@0@@Z PROC ; std::_Copy_impl<int *,int *>, COMDAT

; 2152 : 	{	// copy [_First, _Last) to [_Dest, ...), pointers to scalars

  00000	55		 push	 ebp
  00001	8b ec		 mov	 ebp, esp
  00003	56		 push	 esi

; 2153 : 	ptrdiff_t _Count = _Last - _First;

  00004	8b 75 0c	 mov	 esi, DWORD PTR __Last$[ebp]
  00007	2b 75 08	 sub	 esi, DWORD PTR __First$[ebp]
  0000a	57		 push	 edi

; 2154 : 	_CSTD memmove(&*_Dest, &*_First,
; 2155 : 		_Count * sizeof (*_First));

  0000b	8b 7d 10	 mov	 edi, DWORD PTR __Dest$[ebp]
  0000e	c1 fe 02	 sar	 esi, 2
  00011	c1 e6 02	 shl	 esi, 2
  00014	56		 push	 esi
  00015	ff 75 08	 push	 DWORD PTR __First$[ebp]
  00018	57		 push	 edi
  00019	ff 15 00 00 00
	00		 call	 DWORD PTR __imp__memmove
  0001f	83 c4 0c	 add	 esp, 12			; 0000000cH

; 2156 : 	return (_Dest + _Count);

  00022	8d 04 3e	 lea	 eax, DWORD PTR [esi+edi]
  00025	5f		 pop	 edi
  00026	5e		 pop	 esi

; 2157 : 	}

  00027	5d		 pop	 ebp
  00028	c3		 ret	 0
??$_Copy_impl@PAHPAH@std@@YAPAHPAH00U_Scalar_ptr_iterator_tag@0@@Z ENDP ; std::_Copy_impl<int *,int *>
_TEXT	ENDS
PUBLIC	??$forward@ABH@std@@YAABHABH@Z			; std::forward<int const &>
; Function compile flags: /Ogsp
; File c:\program files (x86)\microsoft visual studio 10.0\vc\include\utility
;	COMDAT ??$forward@ABH@std@@YAABHABH@Z
_TEXT	SEGMENT
__Arg$ = 8						; size = 4
??$forward@ABH@std@@YAABHABH@Z PROC			; std::forward<int const &>, COMDAT

; 78   : 	{	// forward _Arg, given explicitly specified type parameter

  00000	55		 push	 ebp
  00001	8b ec		 mov	 ebp, esp

; 79   : 	return ((_Ty&&)_Arg);

  00003	8b 45 08	 mov	 eax, DWORD PTR __Arg$[ebp]

; 80   : 	}

  00006	5d		 pop	 ebp
  00007	c3		 ret	 0
??$forward@ABH@std@@YAABHABH@Z ENDP			; std::forward<int const &>
_TEXT	ENDS
PUBLIC	??$forward@AAUCharInfoData@@@std@@YAAAUCharInfoData@@AAU1@@Z ; std::forward<CharInfoData &>
; Function compile flags: /Ogsp
;	COMDAT ??$forward@AAUCharInfoData@@@std@@YAAAUCharInfoData@@AAU1@@Z
_TEXT	SEGMENT
__Arg$ = 8						; size = 4
??$forward@AAUCharInfoData@@@std@@YAAAUCharInfoData@@AAU1@@Z PROC ; std::forward<CharInfoData &>, COMDAT

; 78   : 	{	// forward _Arg, given explicitly specified type parameter

  00000	55		 push	 ebp
  00001	8b ec		 mov	 ebp, esp

; 79   : 	return ((_Ty&&)_Arg);

  00003	8b 45 08	 mov	 eax, DWORD PTR __Arg$[ebp]

; 80   : 	}

  00006	5d		 pop	 ebp
  00007	c3		 ret	 0
??$forward@AAUCharInfoData@@@std@@YAAAUCharInfoData@@AAU1@@Z ENDP ; std::forward<CharInfoData &>
_TEXT	ENDS
PUBLIC	??$forward@ABUCharInfoData@@@std@@YAABUCharInfoData@@ABU1@@Z ; std::forward<CharInfoData const &>
; Function compile flags: /Ogsp
;	COMDAT ??$forward@ABUCharInfoData@@@std@@YAABUCharInfoData@@ABU1@@Z
_TEXT	SEGMENT
__Arg$ = 8						; size = 4
??$forward@ABUCharInfoData@@@std@@YAABUCharInfoData@@ABU1@@Z PROC ; std::forward<CharInfoData const &>, COMDAT

; 78   : 	{	// forward _Arg, given explicitly specified type parameter

  00000	55		 push	 ebp
  00001	8b ec		 mov	 ebp, esp

; 79   : 	return ((_Ty&&)_Arg);

  00003	8b 45 08	 mov	 eax, DWORD PTR __Arg$[ebp]

; 80   : 	}

  00006	5d		 pop	 ebp
  00007	c3		 ret	 0
??$forward@ABUCharInfoData@@@std@@YAABUCharInfoData@@ABU1@@Z ENDP ; std::forward<CharInfoData const &>
_TEXT	ENDS
PUBLIC	??$_Ptr_cat@UCharInfoData@@U1@@std@@YA?AU_Nonscalar_ptr_iterator_tag@0@PAUCharInfoData@@0@Z ; std::_Ptr_cat<CharInfoData,CharInfoData>
; Function compile flags: /Ogsp
; File c:\program files (x86)\microsoft visual studio 10.0\vc\include\xutility
;	COMDAT ??$_Ptr_cat@UCharInfoData@@U1@@std@@YA?AU_Nonscalar_ptr_iterator_tag@0@PAUCharInfoData@@0@Z
_TEXT	SEGMENT
__Cat$ = -1						; size = 1
___formal$ = 8						; size = 4
___formal$ = 12						; size = 4
??$_Ptr_cat@UCharInfoData@@U1@@std@@YA?AU_Nonscalar_ptr_iterator_tag@0@PAUCharInfoData@@0@Z PROC ; std::_Ptr_cat<CharInfoData,CharInfoData>, COMDAT

; 516  : 	{	// return pointer category from pointers

  00000	55		 push	 ebp
  00001	8b ec		 mov	 ebp, esp
  00003	51		 push	 ecx

; 517  : 	typename _Ptr_cat_helper<_Elem1, _Elem2>::_Type _Cat;
; 518  : 	return (_Cat);

  00004	8a 45 ff	 mov	 al, BYTE PTR __Cat$[ebp]

; 519  : 	}

  00007	c9		 leave
  00008	c3		 ret	 0
??$_Ptr_cat@UCharInfoData@@U1@@std@@YA?AU_Nonscalar_ptr_iterator_tag@0@PAUCharInfoData@@0@Z ENDP ; std::_Ptr_cat<CharInfoData,CharInfoData>
_TEXT	ENDS
PUBLIC	??$forward@AAPAVUserInfoNode@@@std@@YAAAPAVUserInfoNode@@AAPAV1@@Z ; std::forward<UserInfoNode * &>
; Function compile flags: /Ogsp
; File c:\program files (x86)\microsoft visual studio 10.0\vc\include\utility
;	COMDAT ??$forward@AAPAVUserInfoNode@@@std@@YAAAPAVUserInfoNode@@AAPAV1@@Z
_TEXT	SEGMENT
__Arg$ = 8						; size = 4
??$forward@AAPAVUserInfoNode@@@std@@YAAAPAVUserInfoNode@@AAPAV1@@Z PROC ; std::forward<UserInfoNode * &>, COMDAT

; 78   : 	{	// forward _Arg, given explicitly specified type parameter

  00000	55		 push	 ebp
  00001	8b ec		 mov	 ebp, esp

; 79   : 	return ((_Ty&&)_Arg);

  00003	8b 45 08	 mov	 eax, DWORD PTR __Arg$[ebp]

; 80   : 	}

  00006	5d		 pop	 ebp
  00007	c3		 ret	 0
??$forward@AAPAVUserInfoNode@@@std@@YAAAPAVUserInfoNode@@AAPAV1@@Z ENDP ; std::forward<UserInfoNode * &>
_TEXT	ENDS
PUBLIC	??$construct@AAPAVUserInfoNode@@@?$allocator@PAVUserInfoNode@@@std@@QAEXPAPAVUserInfoNode@@AAPAV2@@Z ; std::allocator<UserInfoNode *>::construct<UserInfoNode * &>
; Function compile flags: /Ogsp
; File c:\program files (x86)\microsoft visual studio 10.0\vc\include\xmemory
;	COMDAT ??$construct@AAPAVUserInfoNode@@@?$allocator@PAVUserInfoNode@@@std@@QAEXPAPAVUserInfoNode@@AAPAV2@@Z
_TEXT	SEGMENT
__Ptr$ = 8						; size = 4
__Val$ = 12						; size = 4
??$construct@AAPAVUserInfoNode@@@?$allocator@PAVUserInfoNode@@@std@@QAEXPAPAVUserInfoNode@@AAPAV2@@Z PROC ; std::allocator<UserInfoNode *>::construct<UserInfoNode * &>, COMDAT
; _this$ = ecx

; 206  : 		void construct(pointer _Ptr, _Other&& _Val)

  00000	55		 push	 ebp
  00001	8b ec		 mov	 ebp, esp

; 207  : 		{	// construct object at _Ptr with value _Val
; 208  : 		::new ((void _FARQ *)_Ptr) _Ty(_STD forward<_Other>(_Val));

  00003	8b 45 08	 mov	 eax, DWORD PTR __Ptr$[ebp]
  00006	85 c0		 test	 eax, eax
  00008	74 07		 je	 SHORT $LN3@construct
  0000a	8b 4d 0c	 mov	 ecx, DWORD PTR __Val$[ebp]
  0000d	8b 09		 mov	 ecx, DWORD PTR [ecx]
  0000f	89 08		 mov	 DWORD PTR [eax], ecx
$LN3@construct:

; 209  : 		}

  00011	5d		 pop	 ebp
  00012	c2 08 00	 ret	 8
??$construct@AAPAVUserInfoNode@@@?$allocator@PAVUserInfoNode@@@std@@QAEXPAPAVUserInfoNode@@AAPAV2@@Z ENDP ; std::allocator<UserInfoNode *>::construct<UserInfoNode * &>
_TEXT	ENDS
PUBLIC	??$forward@ABQAVUserInfoNode@@@std@@YAABQAVUserInfoNode@@ABQAV1@@Z ; std::forward<UserInfoNode * const &>
; Function compile flags: /Ogsp
; File c:\program files (x86)\microsoft visual studio 10.0\vc\include\utility
;	COMDAT ??$forward@ABQAVUserInfoNode@@@std@@YAABQAVUserInfoNode@@ABQAV1@@Z
_TEXT	SEGMENT
__Arg$ = 8						; size = 4
??$forward@ABQAVUserInfoNode@@@std@@YAABQAVUserInfoNode@@ABQAV1@@Z PROC ; std::forward<UserInfoNode * const &>, COMDAT

; 78   : 	{	// forward _Arg, given explicitly specified type parameter

  00000	55		 push	 ebp
  00001	8b ec		 mov	 ebp, esp

; 79   : 	return ((_Ty&&)_Arg);

  00003	8b 45 08	 mov	 eax, DWORD PTR __Arg$[ebp]

; 80   : 	}

  00006	5d		 pop	 ebp
  00007	c3		 ret	 0
??$forward@ABQAVUserInfoNode@@@std@@YAABQAVUserInfoNode@@ABQAV1@@Z ENDP ; std::forward<UserInfoNode * const &>
_TEXT	ENDS
PUBLIC	??$_Ptr_cat@PAVUserInfoNode@@PAV1@@std@@YA?AU_Scalar_ptr_iterator_tag@0@PAPAVUserInfoNode@@0@Z ; std::_Ptr_cat<UserInfoNode *,UserInfoNode *>
; Function compile flags: /Ogsp
; File c:\program files (x86)\microsoft visual studio 10.0\vc\include\xutility
;	COMDAT ??$_Ptr_cat@PAVUserInfoNode@@PAV1@@std@@YA?AU_Scalar_ptr_iterator_tag@0@PAPAVUserInfoNode@@0@Z
_TEXT	SEGMENT
__Cat$ = -1						; size = 1
___formal$ = 8						; size = 4
___formal$ = 12						; size = 4
??$_Ptr_cat@PAVUserInfoNode@@PAV1@@std@@YA?AU_Scalar_ptr_iterator_tag@0@PAPAVUserInfoNode@@0@Z PROC ; std::_Ptr_cat<UserInfoNode *,UserInfoNode *>, COMDAT

; 516  : 	{	// return pointer category from pointers

  00000	55		 push	 ebp
  00001	8b ec		 mov	 ebp, esp
  00003	51		 push	 ecx

; 517  : 	typename _Ptr_cat_helper<_Elem1, _Elem2>::_Type _Cat;
; 518  : 	return (_Cat);

  00004	8a 45 ff	 mov	 al, BYTE PTR __Cat$[ebp]

; 519  : 	}

  00007	c9		 leave
  00008	c3		 ret	 0
??$_Ptr_cat@PAVUserInfoNode@@PAV1@@std@@YA?AU_Scalar_ptr_iterator_tag@0@PAPAVUserInfoNode@@0@Z ENDP ; std::_Ptr_cat<UserInfoNode *,UserInfoNode *>
_TEXT	ENDS
PUBLIC	??$_Move@PAPAVUserInfoNode@@PAPAV1@@std@@YAPAPAVUserInfoNode@@PAPAV1@00U_Scalar_ptr_iterator_tag@0@@Z ; std::_Move<UserInfoNode * *,UserInfoNode * *>
; Function compile flags: /Ogsp
;	COMDAT ??$_Move@PAPAVUserInfoNode@@PAPAV1@@std@@YAPAPAVUserInfoNode@@PAPAV1@00U_Scalar_ptr_iterator_tag@0@@Z
_TEXT	SEGMENT
__First$ = 8						; size = 4
__Last$ = 12						; size = 4
__Dest$ = 16						; size = 4
___formal$ = 20						; size = 1
??$_Move@PAPAVUserInfoNode@@PAPAV1@@std@@YAPAPAVUserInfoNode@@PAPAV1@00U_Scalar_ptr_iterator_tag@0@@Z PROC ; std::_Move<UserInfoNode * *,UserInfoNode * *>, COMDAT

; 2522 : 	{	// move [_First, _Last) to [_Dest, ...), pointers to scalars

  00000	55		 push	 ebp
  00001	8b ec		 mov	 ebp, esp
  00003	56		 push	 esi

; 2523 : 	ptrdiff_t _Count = _Last - _First;

  00004	8b 75 0c	 mov	 esi, DWORD PTR __Last$[ebp]
  00007	2b 75 08	 sub	 esi, DWORD PTR __First$[ebp]
  0000a	57		 push	 edi

; 2524 : 	_CSTD memmove(&*_Dest, &*_First,
; 2525 : 		_Count * sizeof (*_First));

  0000b	8b 7d 10	 mov	 edi, DWORD PTR __Dest$[ebp]
  0000e	c1 fe 02	 sar	 esi, 2
  00011	c1 e6 02	 shl	 esi, 2
  00014	56		 push	 esi
  00015	ff 75 08	 push	 DWORD PTR __First$[ebp]
  00018	57		 push	 edi
  00019	ff 15 00 00 00
	00		 call	 DWORD PTR __imp__memmove
  0001f	83 c4 0c	 add	 esp, 12			; 0000000cH

; 2526 : 	return (_Dest + _Count);

  00022	8d 04 3e	 lea	 eax, DWORD PTR [esi+edi]
  00025	5f		 pop	 edi
  00026	5e		 pop	 esi

; 2527 : 	}

  00027	5d		 pop	 ebp
  00028	c3		 ret	 0
??$_Move@PAPAVUserInfoNode@@PAPAV1@@std@@YAPAPAVUserInfoNode@@PAPAV1@00U_Scalar_ptr_iterator_tag@0@@Z ENDP ; std::_Move<UserInfoNode * *,UserInfoNode * *>
_TEXT	ENDS
PUBLIC	??$_Destroy_range@V?$allocator@PAVUserInfoNode@@@std@@@std@@YAXPAPAVUserInfoNode@@0AAV?$allocator@PAVUserInfoNode@@@0@U_Scalar_ptr_iterator_tag@0@@Z ; std::_Destroy_range<std::allocator<UserInfoNode *> >
; Function compile flags: /Ogsp
; File c:\program files (x86)\microsoft visual studio 10.0\vc\include\xmemory
;	COMDAT ??$_Destroy_range@V?$allocator@PAVUserInfoNode@@@std@@@std@@YAXPAPAVUserInfoNode@@0AAV?$allocator@PAVUserInfoNode@@@0@U_Scalar_ptr_iterator_tag@0@@Z
_TEXT	SEGMENT
__First$ = 8						; size = 4
__Last$ = 12						; size = 4
__Al$ = 16						; size = 4
___formal$ = 20						; size = 1
??$_Destroy_range@V?$allocator@PAVUserInfoNode@@@std@@@std@@YAXPAPAVUserInfoNode@@0AAV?$allocator@PAVUserInfoNode@@@0@U_Scalar_ptr_iterator_tag@0@@Z PROC ; std::_Destroy_range<std::allocator<UserInfoNode *> >, COMDAT

; 105  : 	}

  00000	c3		 ret	 0
??$_Destroy_range@V?$allocator@PAVUserInfoNode@@@std@@@std@@YAXPAPAVUserInfoNode@@0AAV?$allocator@PAVUserInfoNode@@@0@U_Scalar_ptr_iterator_tag@0@@Z ENDP ; std::_Destroy_range<std::allocator<UserInfoNode *> >
_TEXT	ENDS
PUBLIC	??$_Construct@HABH@std@@YAXPAHABH@Z		; std::_Construct<int,int const &>
; Function compile flags: /Ogsp
;	COMDAT ??$_Construct@HABH@std@@YAXPAHABH@Z
_TEXT	SEGMENT
__Ptr$ = 8						; size = 4
__Val$ = 12						; size = 4
??$_Construct@HABH@std@@YAXPAHABH@Z PROC		; std::_Construct<int,int const &>, COMDAT

; 46   : 	{	// construct object at _Ptr with value _Val

  00000	55		 push	 ebp
  00001	8b ec		 mov	 ebp, esp

; 47   : 	void _FARQ *_Vptr = _Ptr;
; 48   : 	::new (_Vptr) _Ty1(_STD forward<_Ty2>(_Val));

  00003	8b 45 08	 mov	 eax, DWORD PTR __Ptr$[ebp]
  00006	85 c0		 test	 eax, eax
  00008	74 07		 je	 SHORT $LN3@Construct
  0000a	8b 4d 0c	 mov	 ecx, DWORD PTR __Val$[ebp]
  0000d	8b 09		 mov	 ecx, DWORD PTR [ecx]
  0000f	89 08		 mov	 DWORD PTR [eax], ecx
$LN3@Construct:

; 49   : 	}

  00011	5d		 pop	 ebp
  00012	c3		 ret	 0
??$_Construct@HABH@std@@YAXPAHABH@Z ENDP		; std::_Construct<int,int const &>
_TEXT	ENDS
PUBLIC	??$_Construct@PAVUserInfoNode@@ABQAV1@@std@@YAXPAPAVUserInfoNode@@ABQAV1@@Z ; std::_Construct<UserInfoNode *,UserInfoNode * const &>
; Function compile flags: /Ogsp
;	COMDAT ??$_Construct@PAVUserInfoNode@@ABQAV1@@std@@YAXPAPAVUserInfoNode@@ABQAV1@@Z
_TEXT	SEGMENT
__Ptr$ = 8						; size = 4
__Val$ = 12						; size = 4
??$_Construct@PAVUserInfoNode@@ABQAV1@@std@@YAXPAPAVUserInfoNode@@ABQAV1@@Z PROC ; std::_Construct<UserInfoNode *,UserInfoNode * const &>, COMDAT

; 46   : 	{	// construct object at _Ptr with value _Val

  00000	55		 push	 ebp
  00001	8b ec		 mov	 ebp, esp

; 47   : 	void _FARQ *_Vptr = _Ptr;
; 48   : 	::new (_Vptr) _Ty1(_STD forward<_Ty2>(_Val));

  00003	8b 45 08	 mov	 eax, DWORD PTR __Ptr$[ebp]
  00006	85 c0		 test	 eax, eax
  00008	74 07		 je	 SHORT $LN3@Construct@2
  0000a	8b 4d 0c	 mov	 ecx, DWORD PTR __Val$[ebp]
  0000d	8b 09		 mov	 ecx, DWORD PTR [ecx]
  0000f	89 08		 mov	 DWORD PTR [eax], ecx
$LN3@Construct@2:

; 49   : 	}

  00011	5d		 pop	 ebp
  00012	c3		 ret	 0
??$_Construct@PAVUserInfoNode@@ABQAV1@@std@@YAXPAPAVUserInfoNode@@ABQAV1@@Z ENDP ; std::_Construct<UserInfoNode *,UserInfoNode * const &>
_TEXT	ENDS
PUBLIC	??__G@YGXPAX0IHP6EPAX00@Z@Z			; `vector copy constructor iterator'
; Function compile flags: /Ogsp
;	COMDAT ??__G@YGXPAX0IHP6EPAX00@Z@Z
_TEXT	SEGMENT
___t$ = 8						; size = 4
___u$ = 12						; size = 4
___s$ = 16						; size = 4
___n$ = 20						; size = 4
___f$ = 24						; size = 4
??__G@YGXPAX0IHP6EPAX00@Z@Z PROC			; `vector copy constructor iterator', COMDAT
  00000	55		 push	 ebp
  00001	8b ec		 mov	 ebp, esp
  00003	ff 4d 14	 dec	 DWORD PTR ___n$[ebp]
  00006	78 1b		 js	 SHORT $LN1@vector
  00008	56		 push	 esi
  00009	8b 75 0c	 mov	 esi, DWORD PTR ___u$[ebp]
  0000c	57		 push	 edi
  0000d	8b 7d 08	 mov	 edi, DWORD PTR ___t$[ebp]
  00010	2b fe		 sub	 edi, esi
$LL2@vector:
  00012	56		 push	 esi
  00013	8d 0c 37	 lea	 ecx, DWORD PTR [edi+esi]
  00016	ff 55 18	 call	 DWORD PTR ___f$[ebp]
  00019	03 75 10	 add	 esi, DWORD PTR ___s$[ebp]
  0001c	ff 4d 14	 dec	 DWORD PTR ___n$[ebp]
  0001f	79 f1		 jns	 SHORT $LL2@vector
  00021	5f		 pop	 edi
  00022	5e		 pop	 esi
$LN1@vector:
  00023	5d		 pop	 ebp
  00024	c2 14 00	 ret	 20			; 00000014H
??__G@YGXPAX0IHP6EPAX00@Z@Z ENDP			; `vector copy constructor iterator'
_TEXT	ENDS
PUBLIC	?_Unchecked@?$_Vector_iterator@V?$_Vector_val@UCharInfoData@@V?$allocator@UCharInfoData@@@std@@@std@@@std@@QBEPAUCharInfoData@@XZ ; std::_Vector_iterator<std::_Vector_val<CharInfoData,std::allocator<CharInfoData> > >::_Unchecked
; Function compile flags: /Ogsp
; File c:\program files (x86)\microsoft visual studio 10.0\vc\include\vector
;	COMDAT ?_Unchecked@?$_Vector_iterator@V?$_Vector_val@UCharInfoData@@V?$allocator@UCharInfoData@@@std@@@std@@@std@@QBEPAUCharInfoData@@XZ
_TEXT	SEGMENT
?_Unchecked@?$_Vector_iterator@V?$_Vector_val@UCharInfoData@@V?$allocator@UCharInfoData@@@std@@@std@@@std@@QBEPAUCharInfoData@@XZ PROC ; std::_Vector_iterator<std::_Vector_val<CharInfoData,std::allocator<CharInfoData> > >::_Unchecked, COMDAT
; _this$ = ecx

; 317  : 		return (_Unchecked_type(this->_Ptr));

  00000	8b 01		 mov	 eax, DWORD PTR [ecx]

; 318  : 		}

  00002	c3		 ret	 0
?_Unchecked@?$_Vector_iterator@V?$_Vector_val@UCharInfoData@@V?$allocator@UCharInfoData@@@std@@@std@@@std@@QBEPAUCharInfoData@@XZ ENDP ; std::_Vector_iterator<std::_Vector_val<CharInfoData,std::allocator<CharInfoData> > >::_Unchecked
_TEXT	ENDS
PUBLIC	??$_Uninit_copy@HH@std@@YAPAHPAH00AAV?$allocator@H@0@U_Scalar_ptr_iterator_tag@0@@Z ; std::_Uninit_copy<int,int>
; Function compile flags: /Ogsp
; File c:\program files (x86)\microsoft visual studio 10.0\vc\include\memory
;	COMDAT ??$_Uninit_copy@HH@std@@YAPAHPAH00AAV?$allocator@H@0@U_Scalar_ptr_iterator_tag@0@@Z
_TEXT	SEGMENT
__First$ = 8						; size = 4
__Last$ = 12						; size = 4
__Dest$ = 16						; size = 4
___formal$ = 20						; size = 4
___formal$ = 24						; size = 1
??$_Uninit_copy@HH@std@@YAPAHPAH00AAV?$allocator@H@0@U_Scalar_ptr_iterator_tag@0@@Z PROC ; std::_Uninit_copy<int,int>, COMDAT

; 399  : 	{	// copy [_First, _Last) to raw _Dest, scalar type

  00000	55		 push	 ebp
  00001	8b ec		 mov	 ebp, esp
  00003	56		 push	 esi

; 400  : 	_DEBUG_RANGE(_First, _Last);
; 401  : 	_DEBUG_POINTER(_Dest);
; 402  : 	size_t _Count = (size_t)(_Last - _First);

  00004	8b 75 0c	 mov	 esi, DWORD PTR __Last$[ebp]
  00007	2b 75 08	 sub	 esi, DWORD PTR __First$[ebp]
  0000a	c1 fe 02	 sar	 esi, 2

; 403  : 	return ((_Ty2 *)_CSTD memmove(&*_Dest, &*_First,
; 404  : 		_Count * sizeof (*_First)) + _Count);	// NB: non-overlapping move

  0000d	c1 e6 02	 shl	 esi, 2
  00010	56		 push	 esi
  00011	ff 75 08	 push	 DWORD PTR __First$[ebp]
  00014	ff 75 10	 push	 DWORD PTR __Dest$[ebp]
  00017	ff 15 00 00 00
	00		 call	 DWORD PTR __imp__memmove
  0001d	83 c4 0c	 add	 esp, 12			; 0000000cH
  00020	03 c6		 add	 eax, esi
  00022	5e		 pop	 esi

; 405  : 	}

  00023	5d		 pop	 ebp
  00024	c3		 ret	 0
??$_Uninit_copy@HH@std@@YAPAHPAH00AAV?$allocator@H@0@U_Scalar_ptr_iterator_tag@0@@Z ENDP ; std::_Uninit_copy<int,int>
_TEXT	ENDS
PUBLIC	??$move@AAUCharInfoData@@@std@@YA$$QAUCharInfoData@@AAU1@@Z ; std::move<CharInfoData &>
; Function compile flags: /Ogsp
; File c:\program files (x86)\microsoft visual studio 10.0\vc\include\utility
;	COMDAT ??$move@AAUCharInfoData@@@std@@YA$$QAUCharInfoData@@AAU1@@Z
_TEXT	SEGMENT
__Arg$ = 8						; size = 4
??$move@AAUCharInfoData@@@std@@YA$$QAUCharInfoData@@AAU1@@Z PROC ; std::move<CharInfoData &>, COMDAT

; 86   : 	{	// forward _Arg as movable

  00000	55		 push	 ebp
  00001	8b ec		 mov	 ebp, esp

; 87   : 	return ((typename tr1::_Remove_reference<_Ty>::_Type&&)_Arg);

  00003	8b 45 08	 mov	 eax, DWORD PTR __Arg$[ebp]

; 88   : 	}

  00006	5d		 pop	 ebp
  00007	c3		 ret	 0
??$move@AAUCharInfoData@@@std@@YA$$QAUCharInfoData@@AAU1@@Z ENDP ; std::move<CharInfoData &>
_TEXT	ENDS
PUBLIC	??$_Val_type@PAUCharInfoData@@@std@@YAPAUCharInfoData@@PAU1@@Z ; std::_Val_type<CharInfoData *>
; Function compile flags: /Ogsp
; File c:\program files (x86)\microsoft visual studio 10.0\vc\include\xutility
;	COMDAT ??$_Val_type@PAUCharInfoData@@@std@@YAPAUCharInfoData@@PAU1@@Z
_TEXT	SEGMENT
___formal$ = 8						; size = 4
??$_Val_type@PAUCharInfoData@@@std@@YAPAUCharInfoData@@PAU1@@Z PROC ; std::_Val_type<CharInfoData *>, COMDAT

; 790  : 	return (0);

  00000	33 c0		 xor	 eax, eax

; 791  : 	}

  00002	c3		 ret	 0
??$_Val_type@PAUCharInfoData@@@std@@YAPAUCharInfoData@@PAU1@@Z ENDP ; std::_Val_type<CharInfoData *>
_TEXT	ENDS
PUBLIC	??$_Val_type@PAPAVUserInfoNode@@@std@@YAPAPAVUserInfoNode@@PAPAV1@@Z ; std::_Val_type<UserInfoNode * *>
; Function compile flags: /Ogsp
;	COMDAT ??$_Val_type@PAPAVUserInfoNode@@@std@@YAPAPAVUserInfoNode@@PAPAV1@@Z
_TEXT	SEGMENT
___formal$ = 8						; size = 4
??$_Val_type@PAPAVUserInfoNode@@@std@@YAPAPAVUserInfoNode@@PAPAV1@@Z PROC ; std::_Val_type<UserInfoNode * *>, COMDAT

; 790  : 	return (0);

  00000	33 c0		 xor	 eax, eax

; 791  : 	}

  00002	c3		 ret	 0
??$_Val_type@PAPAVUserInfoNode@@@std@@YAPAPAVUserInfoNode@@PAPAV1@@Z ENDP ; std::_Val_type<UserInfoNode * *>
_TEXT	ENDS
PUBLIC	??$_Uninit_move@PAVUserInfoNode@@PAV1@PAV1@@std@@YAPAPAVUserInfoNode@@PAPAV1@00AAV?$allocator@PAVUserInfoNode@@@0@0U_Scalar_ptr_iterator_tag@0@@Z ; std::_Uninit_move<UserInfoNode *,UserInfoNode *,UserInfoNode *>
; Function compile flags: /Ogsp
; File c:\program files (x86)\microsoft visual studio 10.0\vc\include\memory
;	COMDAT ??$_Uninit_move@PAVUserInfoNode@@PAV1@PAV1@@std@@YAPAPAVUserInfoNode@@PAPAV1@00AAV?$allocator@PAVUserInfoNode@@@0@0U_Scalar_ptr_iterator_tag@0@@Z
_TEXT	SEGMENT
__First$ = 8						; size = 4
__Last$ = 12						; size = 4
__Dest$ = 16						; size = 4
___formal$ = 20						; size = 4
___formal$ = 24						; size = 4
___formal$ = 28						; size = 1
??$_Uninit_move@PAVUserInfoNode@@PAV1@PAV1@@std@@YAPAPAVUserInfoNode@@PAPAV1@00AAV?$allocator@PAVUserInfoNode@@@0@0U_Scalar_ptr_iterator_tag@0@@Z PROC ; std::_Uninit_move<UserInfoNode *,UserInfoNode *,UserInfoNode *>, COMDAT

; 456  : 	{	// move [_First, _Last) to raw _Dest, scalar type

  00000	55		 push	 ebp
  00001	8b ec		 mov	 ebp, esp
  00003	56		 push	 esi

; 457  : 	_DEBUG_RANGE(_First, _Last);
; 458  : 	_DEBUG_POINTER(_Dest);
; 459  : 	size_t _Count = (size_t)(_Last - _First);

  00004	8b 75 0c	 mov	 esi, DWORD PTR __Last$[ebp]
  00007	2b 75 08	 sub	 esi, DWORD PTR __First$[ebp]
  0000a	c1 fe 02	 sar	 esi, 2

; 460  : 	return ((_Ty2 *)_CSTD memmove(&*_Dest, &*_First,
; 461  : 		_Count * sizeof (*_First)) + _Count);	// NB: non-overlapping move

  0000d	c1 e6 02	 shl	 esi, 2
  00010	56		 push	 esi
  00011	ff 75 08	 push	 DWORD PTR __First$[ebp]
  00014	ff 75 10	 push	 DWORD PTR __Dest$[ebp]
  00017	ff 15 00 00 00
	00		 call	 DWORD PTR __imp__memmove
  0001d	83 c4 0c	 add	 esp, 12			; 0000000cH
  00020	03 c6		 add	 eax, esi
  00022	5e		 pop	 esi

; 462  : 	}

  00023	5d		 pop	 ebp
  00024	c3		 ret	 0
??$_Uninit_move@PAVUserInfoNode@@PAV1@PAV1@@std@@YAPAPAVUserInfoNode@@PAPAV1@00AAV?$allocator@PAVUserInfoNode@@@0@0U_Scalar_ptr_iterator_tag@0@@Z ENDP ; std::_Uninit_move<UserInfoNode *,UserInfoNode *,UserInfoNode *>
_TEXT	ENDS
PUBLIC	??$_Unchecked@PAUCharInfoData@@@std@@YAPAUCharInfoData@@PAU1@@Z ; std::_Unchecked<CharInfoData *>
; Function compile flags: /Ogsp
; File c:\program files (x86)\microsoft visual studio 10.0\vc\include\xutility
;	COMDAT ??$_Unchecked@PAUCharInfoData@@@std@@YAPAUCharInfoData@@PAU1@@Z
_TEXT	SEGMENT
__Src$ = 8						; size = 4
??$_Unchecked@PAUCharInfoData@@@std@@YAPAUCharInfoData@@PAU1@@Z PROC ; std::_Unchecked<CharInfoData *>, COMDAT

; 266  : 	{	// construct unchecked from checked, generic

  00000	55		 push	 ebp
  00001	8b ec		 mov	 ebp, esp

; 267  : 	return (_Src);

  00003	8b 45 08	 mov	 eax, DWORD PTR __Src$[ebp]

; 268  : 	}

  00006	5d		 pop	 ebp
  00007	c3		 ret	 0
??$_Unchecked@PAUCharInfoData@@@std@@YAPAUCharInfoData@@PAU1@@Z ENDP ; std::_Unchecked<CharInfoData *>
_TEXT	ENDS
PUBLIC	??$_Dist_type@PAUCharInfoData@@@std@@YAPAHPAUCharInfoData@@@Z ; std::_Dist_type<CharInfoData *>
; Function compile flags: /Ogsp
;	COMDAT ??$_Dist_type@PAUCharInfoData@@@std@@YAPAHPAUCharInfoData@@@Z
_TEXT	SEGMENT
___formal$ = 8						; size = 4
??$_Dist_type@PAUCharInfoData@@@std@@YAPAHPAUCharInfoData@@@Z PROC ; std::_Dist_type<CharInfoData *>, COMDAT

; 850  : 	return (0);

  00000	33 c0		 xor	 eax, eax

; 851  : 	}

  00002	c3		 ret	 0
??$_Dist_type@PAUCharInfoData@@@std@@YAPAHPAUCharInfoData@@@Z ENDP ; std::_Dist_type<CharInfoData *>
_TEXT	ENDS
PUBLIC	??$forward@AAPAUCharInfoData@@@std@@YAAAPAUCharInfoData@@AAPAU1@@Z ; std::forward<CharInfoData * &>
; Function compile flags: /Ogsp
; File c:\program files (x86)\microsoft visual studio 10.0\vc\include\utility
;	COMDAT ??$forward@AAPAUCharInfoData@@@std@@YAAAPAUCharInfoData@@AAPAU1@@Z
_TEXT	SEGMENT
__Arg$ = 8						; size = 4
??$forward@AAPAUCharInfoData@@@std@@YAAAPAUCharInfoData@@AAPAU1@@Z PROC ; std::forward<CharInfoData * &>, COMDAT

; 78   : 	{	// forward _Arg, given explicitly specified type parameter

  00000	55		 push	 ebp
  00001	8b ec		 mov	 ebp, esp

; 79   : 	return ((_Ty&&)_Arg);

  00003	8b 45 08	 mov	 eax, DWORD PTR __Arg$[ebp]

; 80   : 	}

  00006	5d		 pop	 ebp
  00007	c3		 ret	 0
??$forward@AAPAUCharInfoData@@@std@@YAAAPAUCharInfoData@@AAPAU1@@Z ENDP ; std::forward<CharInfoData * &>
_TEXT	ENDS
PUBLIC	??$?0AAPAUCharInfoData@@AAPAU0@@?$_Pair_base@PAUCharInfoData@@PAU1@@std@@QAE@AAPAUCharInfoData@@0@Z ; std::_Pair_base<CharInfoData *,CharInfoData *>::_Pair_base<CharInfoData *,CharInfoData *><CharInfoData * &,CharInfoData * &>
; Function compile flags: /Ogsp
;	COMDAT ??$?0AAPAUCharInfoData@@AAPAU0@@?$_Pair_base@PAUCharInfoData@@PAU1@@std@@QAE@AAPAUCharInfoData@@0@Z
_TEXT	SEGMENT
__Val1$ = 8						; size = 4
__Val2$ = 12						; size = 4
??$?0AAPAUCharInfoData@@AAPAU0@@?$_Pair_base@PAUCharInfoData@@PAU1@@std@@QAE@AAPAUCharInfoData@@0@Z PROC ; std::_Pair_base<CharInfoData *,CharInfoData *>::_Pair_base<CharInfoData *,CharInfoData *><CharInfoData * &,CharInfoData * &>, COMDAT
; _this$ = ecx

; 163  : 		{	// construct from moved values

  00000	55		 push	 ebp
  00001	8b ec		 mov	 ebp, esp
  00003	8b c1		 mov	 eax, ecx
  00005	8b 4d 08	 mov	 ecx, DWORD PTR __Val1$[ebp]
  00008	8b 09		 mov	 ecx, DWORD PTR [ecx]
  0000a	89 08		 mov	 DWORD PTR [eax], ecx
  0000c	8b 4d 0c	 mov	 ecx, DWORD PTR __Val2$[ebp]
  0000f	8b 09		 mov	 ecx, DWORD PTR [ecx]
  00011	89 48 04	 mov	 DWORD PTR [eax+4], ecx

; 164  : 		}

  00014	5d		 pop	 ebp
  00015	c2 08 00	 ret	 8
??$?0AAPAUCharInfoData@@AAPAU0@@?$_Pair_base@PAUCharInfoData@@PAU1@@std@@QAE@AAPAUCharInfoData@@0@Z ENDP ; std::_Pair_base<CharInfoData *,CharInfoData *>::_Pair_base<CharInfoData *,CharInfoData *><CharInfoData * &,CharInfoData * &>
_TEXT	ENDS
PUBLIC	??$_Move@AAUCharInfoData@@@std@@YA$$QAUCharInfoData@@AAU1@@Z ; std::_Move<CharInfoData &>
; Function compile flags: /Ogsp
;	COMDAT ??$_Move@AAUCharInfoData@@@std@@YA$$QAUCharInfoData@@AAU1@@Z
_TEXT	SEGMENT
__Arg$ = 8						; size = 4
??$_Move@AAUCharInfoData@@@std@@YA$$QAUCharInfoData@@AAU1@@Z PROC ; std::_Move<CharInfoData &>, COMDAT

; 94   : 	{	// forward _Arg as movable

  00000	55		 push	 ebp
  00001	8b ec		 mov	 ebp, esp

; 95   : 	return ((typename tr1::_Remove_reference<_Ty>::_Type&&)_Arg);

  00003	8b 45 08	 mov	 eax, DWORD PTR __Arg$[ebp]

; 96   : 	}

  00006	5d		 pop	 ebp
  00007	c3		 ret	 0
??$_Move@AAUCharInfoData@@@std@@YA$$QAUCharInfoData@@AAU1@@Z ENDP ; std::_Move<CharInfoData &>
_TEXT	ENDS
PUBLIC	??$forward@UCharInfoData@@@std@@YA$$QAUCharInfoData@@AAU1@@Z ; std::forward<CharInfoData>
; Function compile flags: /Ogsp
;	COMDAT ??$forward@UCharInfoData@@@std@@YA$$QAUCharInfoData@@AAU1@@Z
_TEXT	SEGMENT
__Arg$ = 8						; size = 4
??$forward@UCharInfoData@@@std@@YA$$QAUCharInfoData@@AAU1@@Z PROC ; std::forward<CharInfoData>, COMDAT

; 78   : 	{	// forward _Arg, given explicitly specified type parameter

  00000	55		 push	 ebp
  00001	8b ec		 mov	 ebp, esp

; 79   : 	return ((_Ty&&)_Arg);

  00003	8b 45 08	 mov	 eax, DWORD PTR __Arg$[ebp]

; 80   : 	}

  00006	5d		 pop	 ebp
  00007	c3		 ret	 0
??$forward@UCharInfoData@@@std@@YA$$QAUCharInfoData@@AAU1@@Z ENDP ; std::forward<CharInfoData>
_TEXT	ENDS
PUBLIC	??$_Ptr_cat@V?$_Vector_const_iterator@V?$_Vector_val@HV?$allocator@H@std@@@std@@@std@@PAH@std@@YA?AU_Nonscalar_ptr_iterator_tag@0@AAV?$_Vector_const_iterator@V?$_Vector_val@HV?$allocator@H@std@@@std@@@0@AAPAH@Z ; std::_Ptr_cat<std::_Vector_const_iterator<std::_Vector_val<int,std::allocator<int> > >,int *>
; Function compile flags: /Ogsp
; File c:\program files (x86)\microsoft visual studio 10.0\vc\include\xutility
;	COMDAT ??$_Ptr_cat@V?$_Vector_const_iterator@V?$_Vector_val@HV?$allocator@H@std@@@std@@@std@@PAH@std@@YA?AU_Nonscalar_ptr_iterator_tag@0@AAV?$_Vector_const_iterator@V?$_Vector_val@HV?$allocator@H@std@@@std@@@0@AAPAH@Z
_TEXT	SEGMENT
__Cat$ = -1						; size = 1
___formal$ = 8						; size = 4
___formal$ = 12						; size = 4
??$_Ptr_cat@V?$_Vector_const_iterator@V?$_Vector_val@HV?$allocator@H@std@@@std@@@std@@PAH@std@@YA?AU_Nonscalar_ptr_iterator_tag@0@AAV?$_Vector_const_iterator@V?$_Vector_val@HV?$allocator@H@std@@@std@@@0@AAPAH@Z PROC ; std::_Ptr_cat<std::_Vector_const_iterator<std::_Vector_val<int,std::allocator<int> > >,int *>, COMDAT

; 485  : 	{	// return pointer category from arbitrary arguments

  00000	55		 push	 ebp
  00001	8b ec		 mov	 ebp, esp
  00003	51		 push	 ecx

; 486  : 	_Nonscalar_ptr_iterator_tag _Cat;
; 487  : 	return (_Cat);

  00004	8a 45 ff	 mov	 al, BYTE PTR __Cat$[ebp]

; 488  : 	}

  00007	c9		 leave
  00008	c3		 ret	 0
??$_Ptr_cat@V?$_Vector_const_iterator@V?$_Vector_val@HV?$allocator@H@std@@@std@@@std@@PAH@std@@YA?AU_Nonscalar_ptr_iterator_tag@0@AAV?$_Vector_const_iterator@V?$_Vector_val@HV?$allocator@H@std@@@std@@@0@AAPAH@Z ENDP ; std::_Ptr_cat<std::_Vector_const_iterator<std::_Vector_val<int,std::allocator<int> > >,int *>
_TEXT	ENDS
PUBLIC	??D?$_Vector_const_iterator@V?$_Vector_val@HV?$allocator@H@std@@@std@@@std@@QBEABHXZ ; std::_Vector_const_iterator<std::_Vector_val<int,std::allocator<int> > >::operator*
; Function compile flags: /Ogsp
; File c:\program files (x86)\microsoft visual studio 10.0\vc\include\vector
;	COMDAT ??D?$_Vector_const_iterator@V?$_Vector_val@HV?$allocator@H@std@@@std@@@std@@QBEABHXZ
_TEXT	SEGMENT
??D?$_Vector_const_iterator@V?$_Vector_val@HV?$allocator@H@std@@@std@@@std@@QBEABHXZ PROC ; std::_Vector_const_iterator<std::_Vector_val<int,std::allocator<int> > >::operator*, COMDAT
; _this$ = ecx

; 64   :  #if _ITERATOR_DEBUG_LEVEL == 2
; 65   : 		if (this->_Getcont() == 0
; 66   : 			|| this->_Ptr == 0
; 67   : 			|| this->_Ptr < ((_Myvec *)this->_Getcont())->_Myfirst
; 68   : 			|| ((_Myvec *)this->_Getcont())->_Mylast <= this->_Ptr)
; 69   : 			{	// report error
; 70   : 			_DEBUG_ERROR("vector iterator not dereferencable");
; 71   : 			_SCL_SECURE_OUT_OF_RANGE;
; 72   : 			}
; 73   : 
; 74   :  #elif _ITERATOR_DEBUG_LEVEL == 1
; 75   : 		_SCL_SECURE_VALIDATE(this->_Getcont() != 0);
; 76   : 		_SCL_SECURE_VALIDATE_RANGE(
; 77   : 			this->_Ptr != 0
; 78   : 			&& ((_Myvec *)this->_Getcont())->_Myfirst <= this->_Ptr
; 79   : 			&& this->_Ptr < ((_Myvec *)this->_Getcont())->_Mylast);
; 80   :  #endif /* _ITERATOR_DEBUG_LEVEL */
; 81   : 
; 82   : 		__analysis_assume(this->_Ptr != 0);
; 83   : 
; 84   : 		return (*this->_Ptr);

  00000	8b 01		 mov	 eax, DWORD PTR [ecx]

; 85   : 		}

  00002	c3		 ret	 0
??D?$_Vector_const_iterator@V?$_Vector_val@HV?$allocator@H@std@@@std@@@std@@QBEABHXZ ENDP ; std::_Vector_const_iterator<std::_Vector_val<int,std::allocator<int> > >::operator*
_TEXT	ENDS
PUBLIC	??E?$_Vector_const_iterator@V?$_Vector_val@HV?$allocator@H@std@@@std@@@std@@QAEAAV01@XZ ; std::_Vector_const_iterator<std::_Vector_val<int,std::allocator<int> > >::operator++
; Function compile flags: /Ogsp
;	COMDAT ??E?$_Vector_const_iterator@V?$_Vector_val@HV?$allocator@H@std@@@std@@@std@@QAEAAV01@XZ
_TEXT	SEGMENT
??E?$_Vector_const_iterator@V?$_Vector_val@HV?$allocator@H@std@@@std@@@std@@QAEAAV01@XZ PROC ; std::_Vector_const_iterator<std::_Vector_val<int,std::allocator<int> > >::operator++, COMDAT
; _this$ = ecx

; 93   : 		{	// preincrement

  00000	8b c1		 mov	 eax, ecx

; 94   :  #if _ITERATOR_DEBUG_LEVEL == 2
; 95   : 		if (this->_Getcont() == 0
; 96   : 			|| this->_Ptr == 0
; 97   : 			|| ((_Myvec *)this->_Getcont())->_Mylast <= this->_Ptr)
; 98   : 			{	// report error
; 99   : 			_DEBUG_ERROR("vector iterator not incrementable");
; 100  : 			_SCL_SECURE_OUT_OF_RANGE;
; 101  : 			}
; 102  : 
; 103  :  #elif _ITERATOR_DEBUG_LEVEL == 1
; 104  : 		_SCL_SECURE_VALIDATE(this->_Getcont() != 0);
; 105  : 		_SCL_SECURE_VALIDATE_RANGE(
; 106  : 			this->_Ptr != 0
; 107  : 			&& this->_Ptr < ((_Myvec *)this->_Getcont())->_Mylast);
; 108  :  #endif /* _ITERATOR_DEBUG_LEVEL */
; 109  : 
; 110  : 		++this->_Ptr;

  00002	83 00 04	 add	 DWORD PTR [eax], 4

; 111  : 		return (*this);
; 112  : 		}

  00005	c3		 ret	 0
??E?$_Vector_const_iterator@V?$_Vector_val@HV?$allocator@H@std@@@std@@@std@@QAEAAV01@XZ ENDP ; std::_Vector_const_iterator<std::_Vector_val<int,std::allocator<int> > >::operator++
_TEXT	ENDS
PUBLIC	??$_Destroy@H@std@@YAXPAH@Z			; std::_Destroy<int>
; Function compile flags: /Ogsp
; File c:\program files (x86)\microsoft visual studio 10.0\vc\include\xmemory
;	COMDAT ??$_Destroy@H@std@@YAXPAH@Z
_TEXT	SEGMENT
__Ptr$ = 8						; size = 4
??$_Destroy@H@std@@YAXPAH@Z PROC			; std::_Destroy<int>, COMDAT

; 63   : 	_Ptr->~_Ty();
; 64   : 	}

  00000	c3		 ret	 0
??$_Destroy@H@std@@YAXPAH@Z ENDP			; std::_Destroy<int>
_TEXT	ENDS
PUBLIC	??_H@YGXPAXIHP6EPAX0@Z@Z			; `vector constructor iterator'
; Function compile flags: /Ogsp
;	COMDAT ??_H@YGXPAXIHP6EPAX0@Z@Z
_TEXT	SEGMENT
___t$ = 8						; size = 4
___s$ = 12						; size = 4
___n$ = 16						; size = 4
___f$ = 20						; size = 4
??_H@YGXPAXIHP6EPAX0@Z@Z PROC				; `vector constructor iterator', COMDAT
  00000	55		 push	 ebp
  00001	8b ec		 mov	 ebp, esp
  00003	ff 4d 10	 dec	 DWORD PTR ___n$[ebp]
  00006	78 12		 js	 SHORT $LN1@vector@2
  00008	56		 push	 esi
  00009	8b 75 08	 mov	 esi, DWORD PTR ___t$[ebp]
$LL2@vector@2:
  0000c	8b ce		 mov	 ecx, esi
  0000e	ff 55 14	 call	 DWORD PTR ___f$[ebp]
  00011	03 75 0c	 add	 esi, DWORD PTR ___s$[ebp]
  00014	ff 4d 10	 dec	 DWORD PTR ___n$[ebp]
  00017	79 f3		 jns	 SHORT $LL2@vector@2
  00019	5e		 pop	 esi
$LN1@vector@2:
  0001a	5d		 pop	 ebp
  0001b	c2 10 00	 ret	 16			; 00000010H
??_H@YGXPAXIHP6EPAX0@Z@Z ENDP				; `vector constructor iterator'
_TEXT	ENDS
PUBLIC	?Init@tagCostumeEquipInfo@@QAEXXZ		; tagCostumeEquipInfo::Init
; Function compile flags: /Ogsp
; File d:\lost saga for developer\youtube\tutorial\source\src\lsclient\costumeenumtype.h
;	COMDAT ?Init@tagCostumeEquipInfo@@QAEXXZ
_TEXT	SEGMENT
?Init@tagCostumeEquipInfo@@QAEXXZ PROC			; tagCostumeEquipInfo::Init, COMDAT
; _this$ = ecx

; 31   : 		m_CostumeIdx = 0;

  00000	33 c0		 xor	 eax, eax
  00002	89 01		 mov	 DWORD PTR [ecx], eax

; 32   : 		m_CostumeCode = 0;

  00004	89 41 04	 mov	 DWORD PTR [ecx+4], eax

; 33   : 		m_Costume_Male_Custom = 0;  

  00007	89 41 08	 mov	 DWORD PTR [ecx+8], eax

; 34   : 		m_Costume_Female_Custom = 0;

  0000a	89 41 0c	 mov	 DWORD PTR [ecx+12], eax

; 35   : 	}

  0000d	c3		 ret	 0
?Init@tagCostumeEquipInfo@@QAEXXZ ENDP			; tagCostumeEquipInfo::Init
_TEXT	ENDS
PUBLIC	??0tagCostumeEquipInfo@@QAE@XZ			; tagCostumeEquipInfo::tagCostumeEquipInfo
; Function compile flags: /Ogsp
;	COMDAT ??0tagCostumeEquipInfo@@QAE@XZ
_TEXT	SEGMENT
??0tagCostumeEquipInfo@@QAE@XZ PROC			; tagCostumeEquipInfo::tagCostumeEquipInfo, COMDAT
; _this$ = ecx

; 37   : 	tagCostumeEquipInfo()

  00000	8b c1		 mov	 eax, ecx

; 38   : 	{
; 39   : 		Init();

  00002	33 c9		 xor	 ecx, ecx
  00004	89 08		 mov	 DWORD PTR [eax], ecx
  00006	89 48 04	 mov	 DWORD PTR [eax+4], ecx
  00009	89 48 08	 mov	 DWORD PTR [eax+8], ecx
  0000c	89 48 0c	 mov	 DWORD PTR [eax+12], ecx

; 40   : 	}

  0000f	c3		 ret	 0
??0tagCostumeEquipInfo@@QAE@XZ ENDP			; tagCostumeEquipInfo::tagCostumeEquipInfo
_TEXT	ENDS
PUBLIC	??0tagCostumeEquipInfo@@QAE@ABU0@@Z		; tagCostumeEquipInfo::tagCostumeEquipInfo
; Function compile flags: /Ogsp
;	COMDAT ??0tagCostumeEquipInfo@@QAE@ABU0@@Z
_TEXT	SEGMENT
_rhs$ = 8						; size = 4
??0tagCostumeEquipInfo@@QAE@ABU0@@Z PROC		; tagCostumeEquipInfo::tagCostumeEquipInfo, COMDAT
; _this$ = ecx

; 42   : 	tagCostumeEquipInfo( const tagCostumeEquipInfo &rhs )

  00000	55		 push	 ebp
  00001	8b ec		 mov	 ebp, esp
  00003	8b c1		 mov	 eax, ecx

; 43   : 	{
; 44   : 		m_CostumeIdx = rhs.m_CostumeIdx;

  00005	8b 4d 08	 mov	 ecx, DWORD PTR _rhs$[ebp]
  00008	8b 11		 mov	 edx, DWORD PTR [ecx]
  0000a	89 10		 mov	 DWORD PTR [eax], edx

; 45   : 		m_CostumeCode = rhs.m_CostumeCode;

  0000c	8b 51 04	 mov	 edx, DWORD PTR [ecx+4]
  0000f	89 50 04	 mov	 DWORD PTR [eax+4], edx

; 46   : 		m_Costume_Male_Custom = rhs.m_Costume_Male_Custom;  

  00012	8b 51 08	 mov	 edx, DWORD PTR [ecx+8]
  00015	89 50 08	 mov	 DWORD PTR [eax+8], edx

; 47   : 		m_Costume_Female_Custom = rhs.m_Costume_Female_Custom;

  00018	8b 49 0c	 mov	 ecx, DWORD PTR [ecx+12]
  0001b	89 48 0c	 mov	 DWORD PTR [eax+12], ecx

; 48   : 	}

  0001e	5d		 pop	 ebp
  0001f	c2 04 00	 ret	 4
??0tagCostumeEquipInfo@@QAE@ABU0@@Z ENDP		; tagCostumeEquipInfo::tagCostumeEquipInfo
_TEXT	ENDS
PUBLIC	?Init@tagAccessoryEquipInfo@@QAEXXZ		; tagAccessoryEquipInfo::Init
; Function compile flags: /Ogsp
; File d:\lost saga for developer\youtube\tutorial\source\src\lsclient\accessoryenumtype.h
;	COMDAT ?Init@tagAccessoryEquipInfo@@QAEXXZ
_TEXT	SEGMENT
?Init@tagAccessoryEquipInfo@@QAEXXZ PROC		; tagAccessoryEquipInfo::Init, COMDAT
; _this$ = ecx

; 23   : 		m_iAccessoryIdx = 0;

  00000	33 c0		 xor	 eax, eax
  00002	89 01		 mov	 DWORD PTR [ecx], eax

; 24   : 		m_iAccessoryCode = 0;

  00004	89 41 04	 mov	 DWORD PTR [ecx+4], eax

; 25   : 		m_iRandomNumber = 0;

  00007	89 41 08	 mov	 DWORD PTR [ecx+8], eax

; 26   : 	}

  0000a	c3		 ret	 0
?Init@tagAccessoryEquipInfo@@QAEXXZ ENDP		; tagAccessoryEquipInfo::Init
_TEXT	ENDS
PUBLIC	??0tagAccessoryEquipInfo@@QAE@XZ		; tagAccessoryEquipInfo::tagAccessoryEquipInfo
; Function compile flags: /Ogsp
;	COMDAT ??0tagAccessoryEquipInfo@@QAE@XZ
_TEXT	SEGMENT
??0tagAccessoryEquipInfo@@QAE@XZ PROC			; tagAccessoryEquipInfo::tagAccessoryEquipInfo, COMDAT
; _this$ = ecx

; 28   : 	tagAccessoryEquipInfo()

  00000	8b c1		 mov	 eax, ecx

; 29   : 	{
; 30   : 		Init();

  00002	33 c9		 xor	 ecx, ecx
  00004	89 08		 mov	 DWORD PTR [eax], ecx
  00006	89 48 04	 mov	 DWORD PTR [eax+4], ecx
  00009	89 48 08	 mov	 DWORD PTR [eax+8], ecx

; 31   : 	}

  0000c	c3		 ret	 0
??0tagAccessoryEquipInfo@@QAE@XZ ENDP			; tagAccessoryEquipInfo::tagAccessoryEquipInfo
_TEXT	ENDS
PUBLIC	??0tagAccessoryEquipInfo@@QAE@ABU0@@Z		; tagAccessoryEquipInfo::tagAccessoryEquipInfo
; Function compile flags: /Ogsp
;	COMDAT ??0tagAccessoryEquipInfo@@QAE@ABU0@@Z
_TEXT	SEGMENT
_rhs$ = 8						; size = 4
??0tagAccessoryEquipInfo@@QAE@ABU0@@Z PROC		; tagAccessoryEquipInfo::tagAccessoryEquipInfo, COMDAT
; _this$ = ecx

; 33   : 	tagAccessoryEquipInfo( const tagAccessoryEquipInfo &rhs )

  00000	55		 push	 ebp
  00001	8b ec		 mov	 ebp, esp
  00003	8b c1		 mov	 eax, ecx

; 34   : 	{
; 35   : 		m_iAccessoryIdx = rhs.m_iAccessoryIdx;

  00005	8b 4d 08	 mov	 ecx, DWORD PTR _rhs$[ebp]
  00008	8b 11		 mov	 edx, DWORD PTR [ecx]
  0000a	89 10		 mov	 DWORD PTR [eax], edx

; 36   : 		m_iAccessoryCode = rhs.m_iAccessoryCode;

  0000c	8b 51 04	 mov	 edx, DWORD PTR [ecx+4]
  0000f	89 50 04	 mov	 DWORD PTR [eax+4], edx

; 37   : 		m_iRandomNumber = rhs.m_iRandomNumber;

  00012	8b 49 08	 mov	 ecx, DWORD PTR [ecx+8]
  00015	89 48 08	 mov	 DWORD PTR [eax+8], ecx

; 38   : 	}

  00018	5d		 pop	 ebp
  00019	c2 04 00	 ret	 4
??0tagAccessoryEquipInfo@@QAE@ABU0@@Z ENDP		; tagAccessoryEquipInfo::tagAccessoryEquipInfo
_TEXT	ENDS
PUBLIC	?Initialize@ITEM_DATA@@QAEXXZ			; ITEM_DATA::Initialize
; Function compile flags: /Ogsp
; File d:\lost saga for developer\youtube\tutorial\source\src\lsclient\characterinfo.h
;	COMDAT ?Initialize@ITEM_DATA@@QAEXXZ
_TEXT	SEGMENT
?Initialize@ITEM_DATA@@QAEXXZ PROC			; ITEM_DATA::Initialize, COMDAT
; _this$ = ecx

; 235  : 		m_item_code		 = 0;
; 236  : 		m_item_reinforce = 0;
; 237  : 		m_item_bullet	 = -1;

  00000	83 49 08 ff	 or	 DWORD PTR [ecx+8], -1
  00004	33 c0		 xor	 eax, eax
  00006	89 01		 mov	 DWORD PTR [ecx], eax
  00008	89 41 04	 mov	 DWORD PTR [ecx+4], eax

; 238  : 		m_item_male_custom = m_item_female_custom = 0;

  0000b	89 41 10	 mov	 DWORD PTR [ecx+16], eax
  0000e	89 41 0c	 mov	 DWORD PTR [ecx+12], eax

; 239  : 	}	

  00011	c3		 ret	 0
?Initialize@ITEM_DATA@@QAEXXZ ENDP			; ITEM_DATA::Initialize
_TEXT	ENDS
PUBLIC	??4ITEM_DATA@@QAEAAU0@ABU0@@Z			; ITEM_DATA::operator=
; Function compile flags: /Ogsp
;	COMDAT ??4ITEM_DATA@@QAEAAU0@ABU0@@Z
_TEXT	SEGMENT
_rhs$ = 8						; size = 4
??4ITEM_DATA@@QAEAAU0@ABU0@@Z PROC			; ITEM_DATA::operator=, COMDAT
; _this$ = ecx

; 242  : 	{

  00000	55		 push	 ebp
  00001	8b ec		 mov	 ebp, esp
  00003	8b c1		 mov	 eax, ecx

; 243  : 		m_item_code			= rhs.m_item_code;

  00005	8b 4d 08	 mov	 ecx, DWORD PTR _rhs$[ebp]
  00008	8b 11		 mov	 edx, DWORD PTR [ecx]
  0000a	89 10		 mov	 DWORD PTR [eax], edx

; 244  : 		m_item_reinforce	= rhs.m_item_reinforce;

  0000c	8b 51 04	 mov	 edx, DWORD PTR [ecx+4]
  0000f	89 50 04	 mov	 DWORD PTR [eax+4], edx

; 245  : 		m_item_bullet		= rhs.m_item_bullet;

  00012	8b 51 08	 mov	 edx, DWORD PTR [ecx+8]
  00015	89 50 08	 mov	 DWORD PTR [eax+8], edx

; 246  : 		m_item_male_custom	= rhs.m_item_male_custom;

  00018	8b 51 0c	 mov	 edx, DWORD PTR [ecx+12]
  0001b	89 50 0c	 mov	 DWORD PTR [eax+12], edx

; 247  : 		m_item_female_custom= rhs.m_item_female_custom;

  0001e	8b 49 10	 mov	 ecx, DWORD PTR [ecx+16]
  00021	89 48 10	 mov	 DWORD PTR [eax+16], ecx

; 248  : 		return *this;
; 249  : 	}

  00024	5d		 pop	 ebp
  00025	c2 04 00	 ret	 4
??4ITEM_DATA@@QAEAAU0@ABU0@@Z ENDP			; ITEM_DATA::operator=
_TEXT	ENDS
PUBLIC	?GetPublicID@ioMyInfo@@QBEABVioHashString@@XZ	; ioMyInfo::GetPublicID
; Function compile flags: /Ogsp
; File d:\lost saga for developer\youtube\tutorial\source\src\lsclient\iomyinfo.h
;	COMDAT ?GetPublicID@ioMyInfo@@QBEABVioHashString@@XZ
_TEXT	SEGMENT
?GetPublicID@ioMyInfo@@QBEABVioHashString@@XZ PROC	; ioMyInfo::GetPublicID, COMDAT
; _this$ = ecx

; 517  : 	const ioHashString& GetPublicID() const { return m_user_data.m_public_id; }    

  00000	8d 41 1c	 lea	 eax, DWORD PTR [ecx+28]
  00003	c3		 ret	 0
?GetPublicID@ioMyInfo@@QBEABVioHashString@@XZ ENDP	; ioMyInfo::GetPublicID
_TEXT	ENDS
PUBLIC	?GetGuildMark@ioGuildData@@QAEKXZ		; ioGuildData::GetGuildMark
; Function compile flags: /Ogsp
; File d:\lost saga for developer\youtube\tutorial\source\src\lsclient\ioguildinfo.h
;	COMDAT ?GetGuildMark@ioGuildData@@QAEKXZ
_TEXT	SEGMENT
?GetGuildMark@ioGuildData@@QAEKXZ PROC			; ioGuildData::GetGuildMark, COMDAT
; _this$ = ecx

; 91   : 	inline DWORD GetGuildMark(){ return m_dwGuildMark; }

  00000	8b 41 08	 mov	 eax, DWORD PTR [ecx+8]
  00003	c3		 ret	 0
?GetGuildMark@ioGuildData@@QAEKXZ ENDP			; ioGuildData::GetGuildMark
_TEXT	ENDS
PUBLIC	??RCharInfoSort@@QBE_NABUCharInfoData@@0@Z	; CharInfoSort::operator()
; Function compile flags: /Ogsp
; File d:\lost saga for developer\youtube\tutorial\source\src\lsclient\gui\iouserinfomgr.h
;	COMDAT ??RCharInfoSort@@QBE_NABUCharInfoData@@0@Z
_TEXT	SEGMENT
_lhs$ = 8						; size = 4
_rhs$ = 12						; size = 4
??RCharInfoSort@@QBE_NABUCharInfoData@@0@Z PROC		; CharInfoSort::operator(), COMDAT
; _this$ = ecx

; 129  : 	{

  00000	55		 push	 ebp
  00001	8b ec		 mov	 ebp, esp

; 130  : 		if( lhs.m_CharInfo.m_sRentalType > rhs.m_CharInfo.m_sRentalType )

  00003	8b 55 08	 mov	 edx, DWORD PTR _lhs$[ebp]
  00006	0f b7 82 b2 02
	00 00		 movzx	 eax, WORD PTR [edx+690]
  0000d	56		 push	 esi
  0000e	8b 75 0c	 mov	 esi, DWORD PTR _rhs$[ebp]
  00011	0f b7 8e b2 02
	00 00		 movzx	 ecx, WORD PTR [esi+690]
  00018	66 3b c1	 cmp	 ax, cx
  0001b	7e 04		 jle	 SHORT $LN7@operator
$LN8@operator:

; 131  : 		{
; 132  : 			return true;

  0001d	b0 01		 mov	 al, 1
  0001f	eb 12		 jmp	 SHORT $LN5@operator
$LN7@operator:

; 133  : 		}
; 134  : 		else if( lhs.m_CharInfo.m_sRentalType == rhs.m_CharInfo.m_sRentalType )

  00021	75 0e		 jne	 SHORT $LN1@operator

; 135  : 		{
; 136  : 			if( lhs.m_CharInfo.m_iSlotIndex < rhs.m_CharInfo.m_iSlotIndex )

  00023	8b 82 a8 02 00
	00		 mov	 eax, DWORD PTR [edx+680]
  00029	3b 86 a8 02 00
	00		 cmp	 eax, DWORD PTR [esi+680]

; 137  : 				return true;

  0002f	7c ec		 jl	 SHORT $LN8@operator
$LN1@operator:

; 138  : 		}	
; 139  : 		return false;

  00031	32 c0		 xor	 al, al
$LN5@operator:
  00033	5e		 pop	 esi

; 140  : 	}

  00034	5d		 pop	 ebp
  00035	c2 08 00	 ret	 8
??RCharInfoSort@@QBE_NABUCharInfoData@@0@Z ENDP		; CharInfoSort::operator()
_TEXT	ENDS
PUBLIC	?GetUserID@UserInfoNode@@QAEABVioHashString@@XZ	; UserInfoNode::GetUserID
; Function compile flags: /Ogsp
;	COMDAT ?GetUserID@UserInfoNode@@QAEABVioHashString@@XZ
_TEXT	SEGMENT
?GetUserID@UserInfoNode@@QAEABVioHashString@@XZ PROC	; UserInfoNode::GetUserID, COMDAT
; _this$ = ecx

; 289  : 	inline const ioHashString &GetUserID(){ return m_UserID; }

  00000	8d 41 08	 lea	 eax, DWORD PTR [ecx+8]
  00003	c3		 ret	 0
?GetUserID@UserInfoNode@@QAEABVioHashString@@XZ ENDP	; UserInfoNode::GetUserID
_TEXT	ENDS
PUBLIC	?GetGradeLevel@UserInfoNode@@QAE?BHXZ		; UserInfoNode::GetGradeLevel
; Function compile flags: /Ogsp
;	COMDAT ?GetGradeLevel@UserInfoNode@@QAE?BHXZ
_TEXT	SEGMENT
?GetGradeLevel@UserInfoNode@@QAE?BHXZ PROC		; UserInfoNode::GetGradeLevel, COMDAT
; _this$ = ecx

; 290  : 	inline const int GetGradeLevel(){ return m_iGradeLevel; }

  00000	8b 41 18	 mov	 eax, DWORD PTR [ecx+24]
  00003	c3		 ret	 0
?GetGradeLevel@UserInfoNode@@QAE?BHXZ ENDP		; UserInfoNode::GetGradeLevel
_TEXT	ENDS
PUBLIC	?GetPartyLevel@UserInfoNode@@QAE?BHXZ		; UserInfoNode::GetPartyLevel
; Function compile flags: /Ogsp
;	COMDAT ?GetPartyLevel@UserInfoNode@@QAE?BHXZ
_TEXT	SEGMENT
?GetPartyLevel@UserInfoNode@@QAE?BHXZ PROC		; UserInfoNode::GetPartyLevel, COMDAT
; _this$ = ecx

; 291  : 	inline const int GetPartyLevel(){ return m_iPartyLevel; }

  00000	8b 41 20	 mov	 eax, DWORD PTR [ecx+32]
  00003	c3		 ret	 0
?GetPartyLevel@UserInfoNode@@QAE?BHXZ ENDP		; UserInfoNode::GetPartyLevel
_TEXT	ENDS
PUBLIC	?GetAwardLevel@UserInfoNode@@QAE?BHXZ		; UserInfoNode::GetAwardLevel
; Function compile flags: /Ogsp
;	COMDAT ?GetAwardLevel@UserInfoNode@@QAE?BHXZ
_TEXT	SEGMENT
?GetAwardLevel@UserInfoNode@@QAE?BHXZ PROC		; UserInfoNode::GetAwardLevel, COMDAT
; _this$ = ecx

; 293  : 	inline const int GetAwardLevel(){ return m_iAwardLevel; }

  00000	8b 41 40	 mov	 eax, DWORD PTR [ecx+64]
  00003	c3		 ret	 0
?GetAwardLevel@UserInfoNode@@QAE?BHXZ ENDP		; UserInfoNode::GetAwardLevel
_TEXT	ENDS
PUBLIC	?GetBlockType@UserInfoNode@@QAE?BW4BlockType@@XZ ; UserInfoNode::GetBlockType
; Function compile flags: /Ogsp
;	COMDAT ?GetBlockType@UserInfoNode@@QAE?BW4BlockType@@XZ
_TEXT	SEGMENT
?GetBlockType@UserInfoNode@@QAE?BW4BlockType@@XZ PROC	; UserInfoNode::GetBlockType, COMDAT
; _this$ = ecx

; 301  : 	inline const BlockType GetBlockType(){ return m_eBlockType; }

  00000	8b 41 6c	 mov	 eax, DWORD PTR [ecx+108]
  00003	c3		 ret	 0
?GetBlockType@UserInfoNode@@QAE?BW4BlockType@@XZ ENDP	; UserInfoNode::GetBlockType
_TEXT	ENDS
PUBLIC	?GetGradeExp@UserInfoNode@@QAE?BHXZ		; UserInfoNode::GetGradeExp
; Function compile flags: /Ogsp
;	COMDAT ?GetGradeExp@UserInfoNode@@QAE?BHXZ
_TEXT	SEGMENT
?GetGradeExp@UserInfoNode@@QAE?BHXZ PROC		; UserInfoNode::GetGradeExp, COMDAT
; _this$ = ecx

; 302  : 	inline const int GetGradeExp(){ return m_iGradeExpPer; }

  00000	8b 41 1c	 mov	 eax, DWORD PTR [ecx+28]
  00003	c3		 ret	 0
?GetGradeExp@UserInfoNode@@QAE?BHXZ ENDP		; UserInfoNode::GetGradeExp
_TEXT	ENDS
PUBLIC	?GetGuildIndex@UserInfoNode@@QAE?BKXZ		; UserInfoNode::GetGuildIndex
; Function compile flags: /Ogsp
;	COMDAT ?GetGuildIndex@UserInfoNode@@QAE?BKXZ
_TEXT	SEGMENT
?GetGuildIndex@UserInfoNode@@QAE?BKXZ PROC		; UserInfoNode::GetGuildIndex, COMDAT
; _this$ = ecx

; 304  : 	inline const DWORD GetGuildIndex(){ return m_dwGuildIndex; }

  00000	8b 81 80 00 00
	00		 mov	 eax, DWORD PTR [ecx+128]
  00006	c3		 ret	 0
?GetGuildIndex@UserInfoNode@@QAE?BKXZ ENDP		; UserInfoNode::GetGuildIndex
_TEXT	ENDS
PUBLIC	?GetLadderPoint@UserInfoNode@@QAE?BHXZ		; UserInfoNode::GetLadderPoint
; Function compile flags: /Ogsp
;	COMDAT ?GetLadderPoint@UserInfoNode@@QAE?BHXZ
_TEXT	SEGMENT
?GetLadderPoint@UserInfoNode@@QAE?BHXZ PROC		; UserInfoNode::GetLadderPoint, COMDAT
; _this$ = ecx

; 305  : 	inline const int GetLadderPoint(){ return m_iLadderPoint; }

  00000	8b 41 74	 mov	 eax, DWORD PTR [ecx+116]
  00003	c3		 ret	 0
?GetLadderPoint@UserInfoNode@@QAE?BHXZ ENDP		; UserInfoNode::GetLadderPoint
_TEXT	ENDS
PUBLIC	?GetCampPosition@UserInfoNode@@QAE?BHXZ		; UserInfoNode::GetCampPosition
; Function compile flags: /Ogsp
;	COMDAT ?GetCampPosition@UserInfoNode@@QAE?BHXZ
_TEXT	SEGMENT
?GetCampPosition@UserInfoNode@@QAE?BHXZ PROC		; UserInfoNode::GetCampPosition, COMDAT
; _this$ = ecx

; 306  : 	inline const int GetCampPosition(){ return m_iCampPosition; }

  00000	8b 41 78	 mov	 eax, DWORD PTR [ecx+120]
  00003	c3		 ret	 0
?GetCampPosition@UserInfoNode@@QAE?BHXZ ENDP		; UserInfoNode::GetCampPosition
_TEXT	ENDS
PUBLIC	?GetUserCharData@UserInfoNode@@QAEAAVUserInfoCharData@@XZ ; UserInfoNode::GetUserCharData
; Function compile flags: /Ogsp
;	COMDAT ?GetUserCharData@UserInfoNode@@QAEAAVUserInfoCharData@@XZ
_TEXT	SEGMENT
?GetUserCharData@UserInfoNode@@QAEAAVUserInfoCharData@@XZ PROC ; UserInfoNode::GetUserCharData, COMDAT
; _this$ = ecx

; 330  : 	UserInfoCharData &GetUserCharData(){ return m_UserCharData; }

  00000	8d 81 c8 00 00
	00		 lea	 eax, DWORD PTR [ecx+200]
  00006	c3		 ret	 0
?GetUserCharData@UserInfoNode@@QAEAAVUserInfoCharData@@XZ ENDP ; UserInfoNode::GetUserCharData
_TEXT	ENDS
PUBLIC	?SetSync@UserInfoNode@@QAEX_N@Z			; UserInfoNode::SetSync
; Function compile flags: /Ogsp
;	COMDAT ?SetSync@UserInfoNode@@QAEX_N@Z
_TEXT	SEGMENT
_bSync$ = 8						; size = 1
?SetSync@UserInfoNode@@QAEX_N@Z PROC			; UserInfoNode::SetSync, COMDAT
; _this$ = ecx

; 362  : 	void SetSync( bool bSync ){ m_bSyncInfo = bSync; }

  00000	55		 push	 ebp
  00001	8b ec		 mov	 ebp, esp
  00003	8a 45 08	 mov	 al, BYTE PTR _bSync$[ebp]
  00006	88 81 bc 04 00
	00		 mov	 BYTE PTR [ecx+1212], al
  0000c	5d		 pop	 ebp
  0000d	c2 04 00	 ret	 4
?SetSync@UserInfoNode@@QAEX_N@Z ENDP			; UserInfoNode::SetSync
_TEXT	ENDS
PUBLIC	?SetSyncTime@UserInfoNode@@QAEXK@Z		; UserInfoNode::SetSyncTime
; Function compile flags: /Ogsp
;	COMDAT ?SetSyncTime@UserInfoNode@@QAEXK@Z
_TEXT	SEGMENT
_dwTime$ = 8						; size = 4
?SetSyncTime@UserInfoNode@@QAEXK@Z PROC			; UserInfoNode::SetSyncTime, COMDAT
; _this$ = ecx

; 370  : 	void SetSyncTime( DWORD dwTime ){ m_dwTCPSyncTime = dwTime; }

  00000	55		 push	 ebp
  00001	8b ec		 mov	 ebp, esp
  00003	8b 45 08	 mov	 eax, DWORD PTR _dwTime$[ebp]
  00006	89 81 b4 04 00
	00		 mov	 DWORD PTR [ecx+1204], eax
  0000c	5d		 pop	 ebp
  0000d	c2 04 00	 ret	 4
?SetSyncTime@UserInfoNode@@QAEXK@Z ENDP			; UserInfoNode::SetSyncTime
_TEXT	ENDS
PUBLIC	?size@?$vector@HV?$allocator@H@std@@@std@@QBEIXZ ; std::vector<int,std::allocator<int> >::size
; Function compile flags: /Ogsp
; File c:\program files (x86)\microsoft visual studio 10.0\vc\include\vector
;	COMDAT ?size@?$vector@HV?$allocator@H@std@@@std@@QBEIXZ
_TEXT	SEGMENT
?size@?$vector@HV?$allocator@H@std@@@std@@QBEIXZ PROC	; std::vector<int,std::allocator<int> >::size, COMDAT
; _this$ = ecx

; 879  : 		return (this->_Mylast - this->_Myfirst);

  00000	8b 41 04	 mov	 eax, DWORD PTR [ecx+4]
  00003	2b 01		 sub	 eax, DWORD PTR [ecx]
  00005	c1 f8 02	 sar	 eax, 2

; 880  : 		}

  00008	c3		 ret	 0
?size@?$vector@HV?$allocator@H@std@@@std@@QBEIXZ ENDP	; std::vector<int,std::allocator<int> >::size
_TEXT	ENDS
PUBLIC	?empty@?$vector@HV?$allocator@H@std@@@std@@QBE_NXZ ; std::vector<int,std::allocator<int> >::empty
; Function compile flags: /Ogsp
;	COMDAT ?empty@?$vector@HV?$allocator@H@std@@@std@@QBE_NXZ
_TEXT	SEGMENT
?empty@?$vector@HV?$allocator@H@std@@@std@@QBE_NXZ PROC	; std::vector<int,std::allocator<int> >::empty, COMDAT
; _this$ = ecx

; 889  : 		return (this->_Myfirst == this->_Mylast);

  00000	8b 01		 mov	 eax, DWORD PTR [ecx]
  00002	2b 41 04	 sub	 eax, DWORD PTR [ecx+4]
  00005	f7 d8		 neg	 eax
  00007	1b c0		 sbb	 eax, eax
  00009	40		 inc	 eax

; 890  : 		}

  0000a	c3		 ret	 0
?empty@?$vector@HV?$allocator@H@std@@@std@@QBE_NXZ ENDP	; std::vector<int,std::allocator<int> >::empty
_TEXT	ENDS
PUBLIC	??A?$vector@HV?$allocator@H@std@@@std@@QAEAAHI@Z ; std::vector<int,std::allocator<int> >::operator[]
; Function compile flags: /Ogsp
;	COMDAT ??A?$vector@HV?$allocator@H@std@@@std@@QAEAAHI@Z
_TEXT	SEGMENT
__Pos$ = 8						; size = 4
??A?$vector@HV?$allocator@H@std@@@std@@QAEAAHI@Z PROC	; std::vector<int,std::allocator<int> >::operator[], COMDAT
; _this$ = ecx

; 928  : 		{	// subscript mutable sequence

  00000	55		 push	 ebp
  00001	8b ec		 mov	 ebp, esp

; 929  :  #if _ITERATOR_DEBUG_LEVEL == 2
; 930  : 		if (size() <= _Pos)
; 931  : 			{	// report error
; 932  : 			_DEBUG_ERROR("vector subscript out of range");
; 933  : 			_SCL_SECURE_OUT_OF_RANGE;
; 934  : 			}
; 935  : 
; 936  :  #elif _ITERATOR_DEBUG_LEVEL == 1
; 937  : 		_SCL_SECURE_VALIDATE_RANGE(_Pos < size());
; 938  :  #endif /* _ITERATOR_DEBUG_LEVEL */
; 939  : 
; 940  : 		return (*(this->_Myfirst + _Pos));

  00003	8b 01		 mov	 eax, DWORD PTR [ecx]
  00005	8b 4d 08	 mov	 ecx, DWORD PTR __Pos$[ebp]
  00008	8d 04 88	 lea	 eax, DWORD PTR [eax+ecx*4]

; 941  : 		}

  0000b	5d		 pop	 ebp
  0000c	c2 04 00	 ret	 4
??A?$vector@HV?$allocator@H@std@@@std@@QAEAAHI@Z ENDP	; std::vector<int,std::allocator<int> >::operator[]
_TEXT	ENDS
PUBLIC	??_7?$CEncrypt@H@@6B@				; CEncrypt<int>::`vftable'
PUBLIC	??1?$CEncrypt@H@@UAE@XZ				; CEncrypt<int>::~CEncrypt<int>
PUBLIC	??_R4?$CEncrypt@H@@6B@				; CEncrypt<int>::`RTTI Complete Object Locator'
PUBLIC	??_R0?AV?$CEncrypt@H@@@8			; CEncrypt<int> `RTTI Type Descriptor'
PUBLIC	??_R3?$CEncrypt@H@@8				; CEncrypt<int>::`RTTI Class Hierarchy Descriptor'
PUBLIC	??_R2?$CEncrypt@H@@8				; CEncrypt<int>::`RTTI Base Class Array'
PUBLIC	??_R1A@?0A@EA@?$CEncrypt@H@@8			; CEncrypt<int>::`RTTI Base Class Descriptor at (0,-1,0,64)'
EXTRN	??1ccddaabb@@UAE@XZ:PROC			; ccddaabb::~ccddaabb
EXTRN	??_E?$CEncrypt@H@@UAEPAXI@Z:PROC		; CEncrypt<int>::`vector deleting destructor'
;	COMDAT ??_R1A@?0A@EA@?$CEncrypt@H@@8
; File d:\lost saga for developer\youtube\tutorial\source\src\lsclient\encryptvalue.h
rdata$r	SEGMENT
??_R1A@?0A@EA@?$CEncrypt@H@@8 DD FLAT:??_R0?AV?$CEncrypt@H@@@8 ; CEncrypt<int>::`RTTI Base Class Descriptor at (0,-1,0,64)'
	DD	00H
	DD	00H
	DD	0ffffffffH
	DD	00H
	DD	040H
	DD	FLAT:??_R3?$CEncrypt@H@@8
rdata$r	ENDS
;	COMDAT ??_R2?$CEncrypt@H@@8
rdata$r	SEGMENT
??_R2?$CEncrypt@H@@8 DD FLAT:??_R1A@?0A@EA@?$CEncrypt@H@@8 ; CEncrypt<int>::`RTTI Base Class Array'
rdata$r	ENDS
;	COMDAT ??_R3?$CEncrypt@H@@8
rdata$r	SEGMENT
??_R3?$CEncrypt@H@@8 DD 00H				; CEncrypt<int>::`RTTI Class Hierarchy Descriptor'
	DD	00H
	DD	01H
	DD	FLAT:??_R2?$CEncrypt@H@@8
rdata$r	ENDS
;	COMDAT ??_R0?AV?$CEncrypt@H@@@8
_DATA	SEGMENT
??_R0?AV?$CEncrypt@H@@@8 DD FLAT:??_7type_info@@6B@	; CEncrypt<int> `RTTI Type Descriptor'
	DD	00H
	DB	'.?AV?$CEncrypt@H@@', 00H
_DATA	ENDS
;	COMDAT ??_R4?$CEncrypt@H@@6B@
rdata$r	SEGMENT
??_R4?$CEncrypt@H@@6B@ DD 00H				; CEncrypt<int>::`RTTI Complete Object Locator'
	DD	00H
	DD	00H
	DD	FLAT:??_R0?AV?$CEncrypt@H@@@8
	DD	FLAT:??_R3?$CEncrypt@H@@8
rdata$r	ENDS
;	COMDAT ??_7?$CEncrypt@H@@6B@
CONST	SEGMENT
??_7?$CEncrypt@H@@6B@ DD FLAT:??_R4?$CEncrypt@H@@6B@	; CEncrypt<int>::`vftable'
	DD	FLAT:??_E?$CEncrypt@H@@UAEPAXI@Z
; Function compile flags: /Ogsp
CONST	ENDS
;	COMDAT ??1?$CEncrypt@H@@UAE@XZ
_TEXT	SEGMENT
??1?$CEncrypt@H@@UAE@XZ PROC				; CEncrypt<int>::~CEncrypt<int>, COMDAT
; _this$ = ecx

; 127  : 	{

  00000	c7 01 00 00 00
	00		 mov	 DWORD PTR [ecx], OFFSET ??_7?$CEncrypt@H@@6B@

; 128  : 	}

  00006	83 c1 0c	 add	 ecx, 12			; 0000000cH
  00009	e9 00 00 00 00	 jmp	 ??1ccddaabb@@UAE@XZ	; ccddaabb::~ccddaabb
??1?$CEncrypt@H@@UAE@XZ ENDP				; CEncrypt<int>::~CEncrypt<int>
; Function compile flags: /Ogsp
_TEXT	ENDS
;	COMDAT ??_G?$CEncrypt@H@@UAEPAXI@Z
_TEXT	SEGMENT
___flags$ = 8						; size = 4
??_G?$CEncrypt@H@@UAEPAXI@Z PROC			; CEncrypt<int>::`scalar deleting destructor', COMDAT
; _this$ = ecx
  00000	55		 push	 ebp
  00001	8b ec		 mov	 ebp, esp
  00003	56		 push	 esi
  00004	8b f1		 mov	 esi, ecx
  00006	8d 4e 0c	 lea	 ecx, DWORD PTR [esi+12]
  00009	c7 06 00 00 00
	00		 mov	 DWORD PTR [esi], OFFSET ??_7?$CEncrypt@H@@6B@
  0000f	e8 00 00 00 00	 call	 ??1ccddaabb@@UAE@XZ	; ccddaabb::~ccddaabb
  00014	f6 45 08 01	 test	 BYTE PTR ___flags$[ebp], 1
  00018	74 07		 je	 SHORT $LN1@scalar@2
  0001a	56		 push	 esi
  0001b	e8 00 00 00 00	 call	 ??3@YAXPAX@Z		; operator delete
  00020	59		 pop	 ecx
$LN1@scalar@2:
  00021	8b c6		 mov	 eax, esi
  00023	5e		 pop	 esi
  00024	5d		 pop	 ebp
  00025	c2 04 00	 ret	 4
??_G?$CEncrypt@H@@UAEPAXI@Z ENDP			; CEncrypt<int>::`scalar deleting destructor'
_TEXT	ENDS
PUBLIC	??0?$allocator@H@std@@QAE@XZ			; std::allocator<int>::allocator<int>
; Function compile flags: /Ogsp
; File c:\program files (x86)\microsoft visual studio 10.0\vc\include\xmemory
;	COMDAT ??0?$allocator@H@std@@QAE@XZ
_TEXT	SEGMENT
??0?$allocator@H@std@@QAE@XZ PROC			; std::allocator<int>::allocator<int>, COMDAT
; _this$ = ecx

; 161  : 	_ALLOCATOR() _THROW0()

  00000	8b c1		 mov	 eax, ecx

; 162  : 		{	// construct default allocator (do nothing)
; 163  : 		}

  00002	c3		 ret	 0
??0?$allocator@H@std@@QAE@XZ ENDP			; std::allocator<int>::allocator<int>
_TEXT	ENDS
PUBLIC	??1?$_Vector_val@HV?$allocator@H@std@@@std@@QAE@XZ ; std::_Vector_val<int,std::allocator<int> >::~_Vector_val<int,std::allocator<int> >
; Function compile flags: /Ogsp
; File c:\program files (x86)\microsoft visual studio 10.0\vc\include\vector
;	COMDAT ??1?$_Vector_val@HV?$allocator@H@std@@@std@@QAE@XZ
_TEXT	SEGMENT
??1?$_Vector_val@HV?$allocator@H@std@@@std@@QAE@XZ PROC	; std::_Vector_val<int,std::allocator<int> >::~_Vector_val<int,std::allocator<int> >, COMDAT
; _this$ = ecx

; 434  : 		}

  00000	c3		 ret	 0
??1?$_Vector_val@HV?$allocator@H@std@@@std@@QAE@XZ ENDP	; std::_Vector_val<int,std::allocator<int> >::~_Vector_val<int,std::allocator<int> >
_TEXT	ENDS
PUBLIC	?EncryptValueToPool@?$CEncrypt@H@@AAEXPBD@Z	; CEncrypt<int>::EncryptValueToPool
EXTRN	?EncryptByte@ccddaabb@@QAEXPBDPADH@Z:PROC	; ccddaabb::EncryptByte
; Function compile flags: /Ogsp
; File d:\lost saga for developer\youtube\tutorial\source\src\lsclient\encryptvalue.h
;	COMDAT ?EncryptValueToPool@?$CEncrypt@H@@AAEXPBD@Z
_TEXT	SEGMENT
_value$ = 8						; size = 4
?EncryptValueToPool@?$CEncrypt@H@@AAEXPBD@Z PROC	; CEncrypt<int>::EncryptValueToPool, COMDAT
; _this$ = ecx

; 67   : 	{

  00000	55		 push	 ebp
  00001	8b ec		 mov	 ebp, esp

; 68   : 		m_RC5.EncryptByte( value, m_MemPool, max(m_ValueSize, DEFAULT_ENCRYPT) );

  00003	0f b7 41 06	 movzx	 eax, WORD PTR [ecx+6]
  00007	83 f8 04	 cmp	 eax, 4
  0000a	77 03		 ja	 SHORT $LN4@EncryptVal
  0000c	6a 04		 push	 4
  0000e	58		 pop	 eax
$LN4@EncryptVal:
  0000f	50		 push	 eax
  00010	8d 41 1c	 lea	 eax, DWORD PTR [ecx+28]
  00013	50		 push	 eax
  00014	ff 75 08	 push	 DWORD PTR _value$[ebp]
  00017	83 c1 0c	 add	 ecx, 12			; 0000000cH
  0001a	e8 00 00 00 00	 call	 ?EncryptByte@ccddaabb@@QAEXPBDPADH@Z ; ccddaabb::EncryptByte

; 69   : 		
; 70   : 	}

  0001f	5d		 pop	 ebp
  00020	c2 04 00	 ret	 4
?EncryptValueToPool@?$CEncrypt@H@@AAEXPBD@Z ENDP	; CEncrypt<int>::EncryptValueToPool
_TEXT	ENDS
PUBLIC	?Init@?$CEncrypt@H@@AAEXXZ			; CEncrypt<int>::Init
EXTRN	?Setup@ccddaabb@@QAEXPBDHH@Z:PROC		; ccddaabb::Setup
EXTRN	__imp__rand:PROC
EXTRN	__imp__timeGetTime@0:PROC
EXTRN	__imp__GetCurrentProcessId@0:PROC
; Function compile flags: /Ogsp
;	COMDAT ?Init@?$CEncrypt@H@@AAEXXZ
_TEXT	SEGMENT
_pid$ = -8						; size = 4
_tick$ = -4						; size = 4
?Init@?$CEncrypt@H@@AAEXXZ PROC				; CEncrypt<int>::Init, COMDAT
; _this$ = ecx

; 73   : 	{

  00000	55		 push	 ebp
  00001	8b ec		 mov	 ebp, esp
  00003	51		 push	 ecx
  00004	51		 push	 ecx
  00005	53		 push	 ebx
  00006	56		 push	 esi
  00007	57		 push	 edi
  00008	8b f1		 mov	 esi, ecx

; 74   : 		DWORD pid = GetCurrentProcessId();

  0000a	ff 15 00 00 00
	00		 call	 DWORD PTR __imp__GetCurrentProcessId@0
  00010	89 45 f8	 mov	 DWORD PTR _pid$[ebp], eax

; 75   : 		DWORD tick = timeGetTime();

  00013	ff 15 00 00 00
	00		 call	 DWORD PTR __imp__timeGetTime@0

; 76   : 		m_ValueSize    = sizeof(type);
; 77   : 		m_MemPoolPos   = (unsigned short)( rand()+pid+tick )%(MAX_MEM_POOL-m_ValueSize);

  00019	8b 3d 00 00 00
	00		 mov	 edi, DWORD PTR __imp__rand
  0001f	89 45 fc	 mov	 DWORD PTR _tick$[ebp], eax
  00022	6a 04		 push	 4
  00024	58		 pop	 eax
  00025	66 89 46 06	 mov	 WORD PTR [esi+6], ax
  00029	ff d7		 call	 edi
  0002b	03 45 f8	 add	 eax, DWORD PTR _pid$[ebp]
  0002e	0f b7 4e 06	 movzx	 ecx, WORD PTR [esi+6]
  00032	03 45 fc	 add	 eax, DWORD PTR _tick$[ebp]
  00035	6a 0c		 push	 12			; 0000000cH
  00037	0f b7 c0	 movzx	 eax, ax
  0003a	5b		 pop	 ebx
  0003b	99		 cdq
  0003c	2b d9		 sub	 ebx, ecx
  0003e	f7 fb		 idiv	 ebx
  00040	66 89 56 04	 mov	 WORD PTR [esi+4], dx

; 78   : 		m_EncryptSeed  = (char)( rand()+pid+tick )%256;

  00044	ff d7		 call	 edi
  00046	02 45 f8	 add	 al, BYTE PTR _pid$[ebp]
  00049	02 45 fc	 add	 al, BYTE PTR _tick$[ebp]
  0004c	0f be c0	 movsx	 eax, al
  0004f	25 ff 00 00 80	 and	 eax, -2147483393	; 800000ffH
  00054	79 07		 jns	 SHORT $LN8@Init
  00056	48		 dec	 eax
  00057	0d 00 ff ff ff	 or	 eax, -256		; ffffff00H
  0005c	40		 inc	 eax
$LN8@Init:
  0005d	88 46 08	 mov	 BYTE PTR [esi+8], al

; 79   : 
; 80   : 		for (int i = 0; i < MAX_MEM_POOL ; i++)

  00060	33 db		 xor	 ebx, ebx
$LL3@Init:

; 81   : 			m_MemPool[i] = (char)( rand()+pid+tick )%256; // 더미

  00062	ff d7		 call	 edi
  00064	02 45 f8	 add	 al, BYTE PTR _pid$[ebp]
  00067	02 45 fc	 add	 al, BYTE PTR _tick$[ebp]
  0006a	0f be c0	 movsx	 eax, al
  0006d	25 ff 00 00 80	 and	 eax, -2147483393	; 800000ffH
  00072	79 07		 jns	 SHORT $LN9@Init
  00074	48		 dec	 eax
  00075	0d 00 ff ff ff	 or	 eax, -256		; ffffff00H
  0007a	40		 inc	 eax
$LN9@Init:
  0007b	88 44 1e 1c	 mov	 BYTE PTR [esi+ebx+28], al
  0007f	43		 inc	 ebx
  00080	83 fb 0c	 cmp	 ebx, 12			; 0000000cH
  00083	7c dd		 jl	 SHORT $LL3@Init

; 82   : 
; 83   : 		//UJ 130913, 최적화: szKey 사용안하도록 간략화
; 84   : 		//char szKey[ccddaabb::KEY_SIZE];//="";
; 85   : 		//for (int i = 0; i < ccddaabb::KEY_SIZE  ; i++)
; 86   : 		//	szKey[i] = (char)( rand()+pid+tick )%256; // 더미
; 87   : 		m_RC5.Setup( NULL, pid, tick );

  00085	ff 75 fc	 push	 DWORD PTR _tick$[ebp]
  00088	8d 4e 0c	 lea	 ecx, DWORD PTR [esi+12]
  0008b	ff 75 f8	 push	 DWORD PTR _pid$[ebp]
  0008e	6a 00		 push	 0
  00090	e8 00 00 00 00	 call	 ?Setup@ccddaabb@@QAEXPBDHH@Z ; ccddaabb::Setup
  00095	5f		 pop	 edi
  00096	5e		 pop	 esi
  00097	5b		 pop	 ebx

; 88   : 
; 89   : #ifdef _NOTUSE
; 90   : 		m_value        = 0;
; 91   : 		EncryptValueToPool((char*)&m_value);
; 92   : 		Debug();
; 93   : #endif
; 94   : 	}

  00098	c9		 leave
  00099	c3		 ret	 0
?Init@?$CEncrypt@H@@AAEXXZ ENDP				; CEncrypt<int>::Init
_TEXT	ENDS
PUBLIC	?DecryptValueToPool@?$CEncrypt@H@@QAEXPAH@Z	; CEncrypt<int>::DecryptValueToPool
EXTRN	?DecryptByte@ccddaabb@@QBEXPBDPADH@Z:PROC	; ccddaabb::DecryptByte
; Function compile flags: /Ogsp
;	COMDAT ?DecryptValueToPool@?$CEncrypt@H@@QAEXPAH@Z
_TEXT	SEGMENT
_value$ = 8						; size = 4
?DecryptValueToPool@?$CEncrypt@H@@QAEXPAH@Z PROC	; CEncrypt<int>::DecryptValueToPool, COMDAT
; _this$ = ecx

; 837  : 	{

  00000	55		 push	 ebp
  00001	8b ec		 mov	 ebp, esp
  00003	56		 push	 esi

; 838  : 		m_RC5.DecryptByte( m_MemPool, m_TempMem, 4 );

  00004	8d 71 28	 lea	 esi, DWORD PTR [ecx+40]
  00007	6a 04		 push	 4
  00009	8d 41 1c	 lea	 eax, DWORD PTR [ecx+28]
  0000c	56		 push	 esi
  0000d	50		 push	 eax
  0000e	83 c1 0c	 add	 ecx, 12			; 0000000cH
  00011	e8 00 00 00 00	 call	 ?DecryptByte@ccddaabb@@QBEXPBDPADH@Z ; ccddaabb::DecryptByte

; 839  : 		*value = *((int*)m_TempMem);

  00016	8b 06		 mov	 eax, DWORD PTR [esi]
  00018	8b 4d 08	 mov	 ecx, DWORD PTR _value$[ebp]
  0001b	89 01		 mov	 DWORD PTR [ecx], eax
  0001d	5e		 pop	 esi

; 840  : 	}

  0001e	5d		 pop	 ebp
  0001f	c2 04 00	 ret	 4
?DecryptValueToPool@?$CEncrypt@H@@QAEXPAH@Z ENDP	; CEncrypt<int>::DecryptValueToPool
_TEXT	ENDS
PUBLIC	??0?$_Vector_const_iterator@V?$_Vector_val@HV?$allocator@H@std@@@std@@@std@@QAE@PAHPBU_Container_base0@1@@Z ; std::_Vector_const_iterator<std::_Vector_val<int,std::allocator<int> > >::_Vector_const_iterator<std::_Vector_val<int,std::allocator<int> > >
; Function compile flags: /Ogsp
; File c:\program files (x86)\microsoft visual studio 10.0\vc\include\vector
;	COMDAT ??0?$_Vector_const_iterator@V?$_Vector_val@HV?$allocator@H@std@@@std@@@std@@QAE@PAHPBU_Container_base0@1@@Z
_TEXT	SEGMENT
__Parg$ = 8						; size = 4
__Pvector$ = 12						; size = 4
??0?$_Vector_const_iterator@V?$_Vector_val@HV?$allocator@H@std@@@std@@@std@@QAE@PAHPBU_Container_base0@1@@Z PROC ; std::_Vector_const_iterator<std::_Vector_val<int,std::allocator<int> > >::_Vector_const_iterator<std::_Vector_val<int,std::allocator<int> > >, COMDAT
; _this$ = ecx

; 45   : 		{	// construct with pointer _Parg

  00000	55		 push	 ebp
  00001	8b ec		 mov	 ebp, esp
  00003	8b c1		 mov	 eax, ecx
  00005	8b 4d 08	 mov	 ecx, DWORD PTR __Parg$[ebp]
  00008	89 08		 mov	 DWORD PTR [eax], ecx

; 46   : 		this->_Adopt(_Pvector);
; 47   : 		}

  0000a	5d		 pop	 ebp
  0000b	c2 08 00	 ret	 8
??0?$_Vector_const_iterator@V?$_Vector_val@HV?$allocator@H@std@@@std@@@std@@QAE@PAHPBU_Container_base0@1@@Z ENDP ; std::_Vector_const_iterator<std::_Vector_val<int,std::allocator<int> > >::_Vector_const_iterator<std::_Vector_val<int,std::allocator<int> > >
_TEXT	ENDS
PUBLIC	??0?$_Vector_iterator@V?$_Vector_val@HV?$allocator@H@std@@@std@@@std@@QAE@PAHPBU_Container_base0@1@@Z ; std::_Vector_iterator<std::_Vector_val<int,std::allocator<int> > >::_Vector_iterator<std::_Vector_val<int,std::allocator<int> > >
; Function compile flags: /Ogsp
;	COMDAT ??0?$_Vector_iterator@V?$_Vector_val@HV?$allocator@H@std@@@std@@@std@@QAE@PAHPBU_Container_base0@1@@Z
_TEXT	SEGMENT
__Parg$ = 8						; size = 4
__Pvector$ = 12						; size = 4
??0?$_Vector_iterator@V?$_Vector_val@HV?$allocator@H@std@@@std@@@std@@QAE@PAHPBU_Container_base0@1@@Z PROC ; std::_Vector_iterator<std::_Vector_val<int,std::allocator<int> > >::_Vector_iterator<std::_Vector_val<int,std::allocator<int> > >, COMDAT
; _this$ = ecx

; 304  : 		{	// construct with pointer _Parg

  00000	55		 push	 ebp
  00001	8b ec		 mov	 ebp, esp
  00003	8b c1		 mov	 eax, ecx
  00005	8b 4d 08	 mov	 ecx, DWORD PTR __Parg$[ebp]
  00008	89 08		 mov	 DWORD PTR [eax], ecx

; 305  : 		}

  0000a	5d		 pop	 ebp
  0000b	c2 08 00	 ret	 8
??0?$_Vector_iterator@V?$_Vector_val@HV?$allocator@H@std@@@std@@@std@@QAE@PAHPBU_Container_base0@1@@Z ENDP ; std::_Vector_iterator<std::_Vector_val<int,std::allocator<int> > >::_Vector_iterator<std::_Vector_val<int,std::allocator<int> > >
_TEXT	ENDS
PUBLIC	??0?$allocator@H@std@@QAE@ABV01@@Z		; std::allocator<int>::allocator<int>
; Function compile flags: /Ogsp
; File c:\program files (x86)\microsoft visual studio 10.0\vc\include\xmemory
;	COMDAT ??0?$allocator@H@std@@QAE@ABV01@@Z
_TEXT	SEGMENT
___formal$ = 8						; size = 4
??0?$allocator@H@std@@QAE@ABV01@@Z PROC			; std::allocator<int>::allocator<int>, COMDAT
; _this$ = ecx

; 165  : 	_ALLOCATOR(const _ALLOCATOR<_Ty>&) _THROW0()

  00000	8b c1		 mov	 eax, ecx

; 166  : 		{	// construct by copying (do nothing)
; 167  : 		}

  00002	c2 04 00	 ret	 4
??0?$allocator@H@std@@QAE@ABV01@@Z ENDP			; std::allocator<int>::allocator<int>
_TEXT	ENDS
PUBLIC	?deallocate@?$allocator@H@std@@QAEXPAHI@Z	; std::allocator<int>::deallocate
; Function compile flags: /Ogsp
;	COMDAT ?deallocate@?$allocator@H@std@@QAEXPAHI@Z
_TEXT	SEGMENT
__Ptr$ = 8						; size = 4
___formal$ = 12						; size = 4
?deallocate@?$allocator@H@std@@QAEXPAHI@Z PROC		; std::allocator<int>::deallocate, COMDAT
; _this$ = ecx

; 181  : 		{	// deallocate object at _Ptr, ignore size

  00000	55		 push	 ebp
  00001	8b ec		 mov	 ebp, esp

; 182  : 		::operator delete(_Ptr);

  00003	ff 75 08	 push	 DWORD PTR __Ptr$[ebp]
  00006	e8 00 00 00 00	 call	 ??3@YAXPAX@Z		; operator delete
  0000b	59		 pop	 ecx

; 183  : 		}

  0000c	5d		 pop	 ebp
  0000d	c2 08 00	 ret	 8
?deallocate@?$allocator@H@std@@QAEXPAHI@Z ENDP		; std::allocator<int>::deallocate
_TEXT	ENDS
PUBLIC	?capacity@?$vector@HV?$allocator@H@std@@@std@@QBEIXZ ; std::vector<int,std::allocator<int> >::capacity
; Function compile flags: /Ogsp
; File c:\program files (x86)\microsoft visual studio 10.0\vc\include\vector
;	COMDAT ?capacity@?$vector@HV?$allocator@H@std@@@std@@QBEIXZ
_TEXT	SEGMENT
?capacity@?$vector@HV?$allocator@H@std@@@std@@QBEIXZ PROC ; std::vector<int,std::allocator<int> >::capacity, COMDAT
; _this$ = ecx

; 777  : 		return (this->_Myend - this->_Myfirst);

  00000	8b 41 08	 mov	 eax, DWORD PTR [ecx+8]
  00003	2b 01		 sub	 eax, DWORD PTR [ecx]
  00005	c1 f8 02	 sar	 eax, 2

; 778  : 		}

  00008	c3		 ret	 0
?capacity@?$vector@HV?$allocator@H@std@@@std@@QBEIXZ ENDP ; std::vector<int,std::allocator<int> >::capacity
_TEXT	ENDS
PUBLIC	?_Make_iter@?$vector@HV?$allocator@H@std@@@std@@QBE?AV?$_Vector_iterator@V?$_Vector_val@HV?$allocator@H@std@@@std@@@2@V?$_Vector_const_iterator@V?$_Vector_val@HV?$allocator@H@std@@@std@@@2@@Z ; std::vector<int,std::allocator<int> >::_Make_iter
; Function compile flags: /Ogsp
;	COMDAT ?_Make_iter@?$vector@HV?$allocator@H@std@@@std@@QBE?AV?$_Vector_iterator@V?$_Vector_val@HV?$allocator@H@std@@@std@@@2@V?$_Vector_const_iterator@V?$_Vector_val@HV?$allocator@H@std@@@std@@@2@@Z
_TEXT	SEGMENT
___$ReturnUdt$ = 8					; size = 4
__Where$ = 12						; size = 4
?_Make_iter@?$vector@HV?$allocator@H@std@@@std@@QBE?AV?$_Vector_iterator@V?$_Vector_val@HV?$allocator@H@std@@@std@@@2@V?$_Vector_const_iterator@V?$_Vector_val@HV?$allocator@H@std@@@std@@@2@@Z PROC ; std::vector<int,std::allocator<int> >::_Make_iter, COMDAT
; _this$ = ecx

; 801  : 		{	// make iterator from const_iterator

  00000	55		 push	 ebp
  00001	8b ec		 mov	 ebp, esp

; 802  : 		return (iterator(_Where._Ptr, this));

  00003	8b 45 08	 mov	 eax, DWORD PTR ___$ReturnUdt$[ebp]
  00006	8b 4d 0c	 mov	 ecx, DWORD PTR __Where$[ebp]
  00009	89 08		 mov	 DWORD PTR [eax], ecx

; 803  : 		}

  0000b	5d		 pop	 ebp
  0000c	c2 08 00	 ret	 8
?_Make_iter@?$vector@HV?$allocator@H@std@@@std@@QBE?AV?$_Vector_iterator@V?$_Vector_val@HV?$allocator@H@std@@@std@@@2@V?$_Vector_const_iterator@V?$_Vector_val@HV?$allocator@H@std@@@std@@@2@@Z ENDP ; std::vector<int,std::allocator<int> >::_Make_iter
_TEXT	ENDS
PUBLIC	?_Xlen@?$vector@HV?$allocator@H@std@@@std@@IBEXXZ ; std::vector<int,std::allocator<int> >::_Xlen
; Function compile flags: /Ogsp
;	COMDAT ?_Xlen@?$vector@HV?$allocator@H@std@@@std@@IBEXXZ
_TEXT	SEGMENT
?_Xlen@?$vector@HV?$allocator@H@std@@@std@@IBEXXZ PROC	; std::vector<int,std::allocator<int> >::_Xlen, COMDAT
; _this$ = ecx

; 1427 : 		_Xlength_error("vector<T> too long");

  00000	68 00 00 00 00	 push	 OFFSET ??_C@_0BD@OLBABOEK@vector?$DMT?$DO?5too?5long?$AA@
  00005	ff 15 00 00 00
	00		 call	 DWORD PTR __imp_?_Xlength_error@std@@YAXPBD@Z
$LN4@Xlen@3:
$LN3@Xlen@3:
  0000b	cc		 int	 3
?_Xlen@?$vector@HV?$allocator@H@std@@@std@@IBEXXZ ENDP	; std::vector<int,std::allocator<int> >::_Xlen
_TEXT	ENDS
PUBLIC	?max_size@?$allocator@H@std@@QBEIXZ		; std::allocator<int>::max_size
; Function compile flags: /Ogsp
; File c:\program files (x86)\microsoft visual studio 10.0\vc\include\xmemory
;	COMDAT ?max_size@?$allocator@H@std@@QBEIXZ
_TEXT	SEGMENT
?max_size@?$allocator@H@std@@QBEIXZ PROC		; std::allocator<int>::max_size, COMDAT
; _this$ = ecx

; 218  : 		_SIZT _Count = (_SIZT)(-1) / sizeof (_Ty);
; 219  : 		return (0 < _Count ? _Count : 1);

  00000	b8 ff ff ff 3f	 mov	 eax, 1073741823		; 3fffffffH

; 220  : 		}

  00005	c3		 ret	 0
?max_size@?$allocator@H@std@@QBEIXZ ENDP		; std::allocator<int>::max_size
_TEXT	ENDS
PUBLIC	??Y?$_Vector_const_iterator@V?$_Vector_val@HV?$allocator@H@std@@@std@@@std@@QAEAAV01@H@Z ; std::_Vector_const_iterator<std::_Vector_val<int,std::allocator<int> > >::operator+=
; Function compile flags: /Ogsp
; File c:\program files (x86)\microsoft visual studio 10.0\vc\include\vector
;	COMDAT ??Y?$_Vector_const_iterator@V?$_Vector_val@HV?$allocator@H@std@@@std@@@std@@QAEAAV01@H@Z
_TEXT	SEGMENT
__Off$ = 8						; size = 4
??Y?$_Vector_const_iterator@V?$_Vector_val@HV?$allocator@H@std@@@std@@@std@@QAEAAV01@H@Z PROC ; std::_Vector_const_iterator<std::_Vector_val<int,std::allocator<int> > >::operator+=, COMDAT
; _this$ = ecx

; 151  : 		{	// increment by integer

  00000	55		 push	 ebp
  00001	8b ec		 mov	 ebp, esp
  00003	8b c1		 mov	 eax, ecx

; 152  :  #if _ITERATOR_DEBUG_LEVEL == 2
; 153  : 		if (this->_Getcont() == 0
; 154  : 			|| this->_Ptr + _Off < ((_Myvec *)this->_Getcont())->_Myfirst
; 155  : 			|| ((_Myvec *)this->_Getcont())->_Mylast < this->_Ptr + _Off)
; 156  : 			{	// report error
; 157  : 			_DEBUG_ERROR("vector iterator + offset out of range");
; 158  : 			_SCL_SECURE_OUT_OF_RANGE;
; 159  : 			}
; 160  : 
; 161  :  #elif _ITERATOR_DEBUG_LEVEL == 1
; 162  : 		_SCL_SECURE_VALIDATE(this->_Getcont() != 0);
; 163  : 		_SCL_SECURE_VALIDATE_RANGE(
; 164  : 			((_Myvec *)this->_Getcont())->_Myfirst <= this->_Ptr + _Off
; 165  : 			&& this->_Ptr + _Off <= ((_Myvec *)this->_Getcont())->_Mylast);
; 166  :  #endif /* _ITERATOR_DEBUG_LEVEL */
; 167  : 
; 168  : 		_Ptr += _Off;

  00005	8b 4d 08	 mov	 ecx, DWORD PTR __Off$[ebp]
  00008	c1 e1 02	 shl	 ecx, 2
  0000b	01 08		 add	 DWORD PTR [eax], ecx

; 169  : 		return (*this);
; 170  : 		}

  0000d	5d		 pop	 ebp
  0000e	c2 04 00	 ret	 4
??Y?$_Vector_const_iterator@V?$_Vector_val@HV?$allocator@H@std@@@std@@@std@@QAEAAV01@H@Z ENDP ; std::_Vector_const_iterator<std::_Vector_val<int,std::allocator<int> > >::operator+=
_TEXT	ENDS
PUBLIC	?_Compat@?$_Vector_const_iterator@V?$_Vector_val@HV?$allocator@H@std@@@std@@@std@@QBEXABV12@@Z ; std::_Vector_const_iterator<std::_Vector_val<int,std::allocator<int> > >::_Compat
; Function compile flags: /Ogsp
;	COMDAT ?_Compat@?$_Vector_const_iterator@V?$_Vector_val@HV?$allocator@H@std@@@std@@@std@@QBEXABV12@@Z
_TEXT	SEGMENT
___formal$ = 8						; size = 4
?_Compat@?$_Vector_const_iterator@V?$_Vector_val@HV?$allocator@H@std@@@std@@@std@@QBEXABV12@@Z PROC ; std::_Vector_const_iterator<std::_Vector_val<int,std::allocator<int> > >::_Compat, COMDAT
; _this$ = ecx

; 253  : 		}

  00000	c2 04 00	 ret	 4
?_Compat@?$_Vector_const_iterator@V?$_Vector_val@HV?$allocator@H@std@@@std@@@std@@QBEXABV12@@Z ENDP ; std::_Vector_const_iterator<std::_Vector_val<int,std::allocator<int> > >::_Compat
_TEXT	ENDS
PUBLIC	??$_Allocate@H@std@@YAPAHIPAH@Z			; std::_Allocate<int>
; Function compile flags: /Ogsp
; File c:\program files (x86)\microsoft visual studio 10.0\vc\include\xmemory
;	COMDAT ??$_Allocate@H@std@@YAPAHIPAH@Z
_TEXT	SEGMENT
$T518263 = -12						; size = 12
$T518267 = 8						; size = 4
__Count$ = 8						; size = 4
___formal$ = 12						; size = 4
??$_Allocate@H@std@@YAPAHIPAH@Z PROC			; std::_Allocate<int>, COMDAT

; 30   : 	{	// allocate storage for _Count elements of type _Ty

  00000	55		 push	 ebp
  00001	8b ec		 mov	 ebp, esp

; 31   : 	void *_Ptr = 0;
; 32   : 
; 33   : 	if (_Count <= 0)

  00003	8b 4d 08	 mov	 ecx, DWORD PTR __Count$[ebp]
  00006	83 ec 0c	 sub	 esp, 12			; 0000000cH
  00009	33 c0		 xor	 eax, eax
  0000b	85 c9		 test	 ecx, ecx

; 34   : 		_Count = 0;
; 35   : 	else if (((_SIZT)(-1) / sizeof (_Ty) < _Count)

  0000d	74 3e		 je	 SHORT $LN5@Allocate@3

; 36   : 		|| (_Ptr = ::operator new(_Count * sizeof (_Ty))) == 0)

  0000f	81 f9 ff ff ff
	3f		 cmp	 ecx, 1073741823		; 3fffffffH
  00015	77 10		 ja	 SHORT $LN1@Allocate@3
  00017	8b c1		 mov	 eax, ecx
  00019	c1 e0 02	 shl	 eax, 2
  0001c	50		 push	 eax
  0001d	e8 00 00 00 00	 call	 ??2@YAPAXI@Z		; operator new
  00022	59		 pop	 ecx
  00023	85 c0		 test	 eax, eax

; 38   : 
; 39   : 	return ((_Ty _FARQ *)_Ptr);

  00025	75 26		 jne	 SHORT $LN5@Allocate@3
$LN1@Allocate@3:

; 37   : 		_THROW_NCEE(bad_alloc, 0);

  00027	83 65 08 00	 and	 DWORD PTR $T518267[ebp], 0
  0002b	8d 45 08	 lea	 eax, DWORD PTR $T518267[ebp]
  0002e	50		 push	 eax
  0002f	8d 4d f4	 lea	 ecx, DWORD PTR $T518263[ebp]
  00032	ff 15 00 00 00
	00		 call	 DWORD PTR __imp_??0exception@std@@QAE@ABQBD@Z
  00038	68 00 00 00 00	 push	 OFFSET __TI2?AVbad_alloc@std@@
  0003d	8d 45 f4	 lea	 eax, DWORD PTR $T518263[ebp]
  00040	50		 push	 eax
  00041	c7 45 f4 00 00
	00 00		 mov	 DWORD PTR $T518263[ebp], OFFSET ??_7bad_alloc@std@@6B@
  00048	e8 00 00 00 00	 call	 __CxxThrowException@8
$LN10@Allocate@3:
$LN5@Allocate@3:

; 40   : 	}

  0004d	c9		 leave
  0004e	c3		 ret	 0
$LN9@Allocate@3:
??$_Allocate@H@std@@YAPAHIPAH@Z ENDP			; std::_Allocate<int>
_TEXT	ENDS
EXTRN	__imp_??0exception@std@@QAE@ABV01@@Z:PROC
; Function compile flags: /Ogsp
;	COMDAT ??0bad_alloc@std@@QAE@ABV01@@Z
_TEXT	SEGMENT
___that$ = 8						; size = 4
??0bad_alloc@std@@QAE@ABV01@@Z PROC			; std::bad_alloc::bad_alloc, COMDAT
; _this$ = ecx
  00000	55		 push	 ebp
  00001	8b ec		 mov	 ebp, esp
  00003	56		 push	 esi
  00004	ff 75 08	 push	 DWORD PTR ___that$[ebp]
  00007	8b f1		 mov	 esi, ecx
  00009	ff 15 00 00 00
	00		 call	 DWORD PTR __imp_??0exception@std@@QAE@ABV01@@Z
  0000f	c7 06 00 00 00
	00		 mov	 DWORD PTR [esi], OFFSET ??_7bad_alloc@std@@6B@
  00015	8b c6		 mov	 eax, esi
  00017	5e		 pop	 esi
  00018	5d		 pop	 ebp
  00019	c2 04 00	 ret	 4
??0bad_alloc@std@@QAE@ABV01@@Z ENDP			; std::bad_alloc::bad_alloc
_TEXT	ENDS
PUBLIC	??$forward@AAH@std@@YAAAHAAH@Z			; std::forward<int &>
; Function compile flags: /Ogsp
; File c:\program files (x86)\microsoft visual studio 10.0\vc\include\utility
;	COMDAT ??$forward@AAH@std@@YAAAHAAH@Z
_TEXT	SEGMENT
__Arg$ = 8						; size = 4
??$forward@AAH@std@@YAAAHAAH@Z PROC			; std::forward<int &>, COMDAT

; 78   : 	{	// forward _Arg, given explicitly specified type parameter

  00000	55		 push	 ebp
  00001	8b ec		 mov	 ebp, esp

; 79   : 	return ((_Ty&&)_Arg);

  00003	8b 45 08	 mov	 eax, DWORD PTR __Arg$[ebp]

; 80   : 	}

  00006	5d		 pop	 ebp
  00007	c3		 ret	 0
??$forward@AAH@std@@YAAAHAAH@Z ENDP			; std::forward<int &>
_TEXT	ENDS
PUBLIC	??$_Val_type@PAH@std@@YAPAHPAH@Z		; std::_Val_type<int *>
; Function compile flags: /Ogsp
; File c:\program files (x86)\microsoft visual studio 10.0\vc\include\xutility
;	COMDAT ??$_Val_type@PAH@std@@YAPAHPAH@Z
_TEXT	SEGMENT
___formal$ = 8						; size = 4
??$_Val_type@PAH@std@@YAPAHPAH@Z PROC			; std::_Val_type<int *>, COMDAT

; 790  : 	return (0);

  00000	33 c0		 xor	 eax, eax

; 791  : 	}

  00002	c3		 ret	 0
??$_Val_type@PAH@std@@YAPAHPAH@Z ENDP			; std::_Val_type<int *>
_TEXT	ENDS
PUBLIC	??$_Ptr_cat@HH@std@@YA?AU_Scalar_ptr_iterator_tag@0@PAH0@Z ; std::_Ptr_cat<int,int>
; Function compile flags: /Ogsp
;	COMDAT ??$_Ptr_cat@HH@std@@YA?AU_Scalar_ptr_iterator_tag@0@PAH0@Z
_TEXT	SEGMENT
__Cat$ = -1						; size = 1
___formal$ = 8						; size = 4
___formal$ = 12						; size = 4
??$_Ptr_cat@HH@std@@YA?AU_Scalar_ptr_iterator_tag@0@PAH0@Z PROC ; std::_Ptr_cat<int,int>, COMDAT

; 516  : 	{	// return pointer category from pointers

  00000	55		 push	 ebp
  00001	8b ec		 mov	 ebp, esp
  00003	51		 push	 ecx

; 517  : 	typename _Ptr_cat_helper<_Elem1, _Elem2>::_Type _Cat;
; 518  : 	return (_Cat);

  00004	8a 45 ff	 mov	 al, BYTE PTR __Cat$[ebp]

; 519  : 	}

  00007	c9		 leave
  00008	c3		 ret	 0
??$_Ptr_cat@HH@std@@YA?AU_Scalar_ptr_iterator_tag@0@PAH0@Z ENDP ; std::_Ptr_cat<int,int>
_TEXT	ENDS
PUBLIC	??$_Move@PAHPAH@std@@YAPAHPAH00U_Scalar_ptr_iterator_tag@0@@Z ; std::_Move<int *,int *>
; Function compile flags: /Ogsp
;	COMDAT ??$_Move@PAHPAH@std@@YAPAHPAH00U_Scalar_ptr_iterator_tag@0@@Z
_TEXT	SEGMENT
__First$ = 8						; size = 4
__Last$ = 12						; size = 4
__Dest$ = 16						; size = 4
___formal$ = 20						; size = 1
??$_Move@PAHPAH@std@@YAPAHPAH00U_Scalar_ptr_iterator_tag@0@@Z PROC ; std::_Move<int *,int *>, COMDAT

; 2522 : 	{	// move [_First, _Last) to [_Dest, ...), pointers to scalars

  00000	55		 push	 ebp
  00001	8b ec		 mov	 ebp, esp
  00003	56		 push	 esi

; 2523 : 	ptrdiff_t _Count = _Last - _First;

  00004	8b 75 0c	 mov	 esi, DWORD PTR __Last$[ebp]
  00007	2b 75 08	 sub	 esi, DWORD PTR __First$[ebp]
  0000a	57		 push	 edi

; 2524 : 	_CSTD memmove(&*_Dest, &*_First,
; 2525 : 		_Count * sizeof (*_First));

  0000b	8b 7d 10	 mov	 edi, DWORD PTR __Dest$[ebp]
  0000e	c1 fe 02	 sar	 esi, 2
  00011	c1 e6 02	 shl	 esi, 2
  00014	56		 push	 esi
  00015	ff 75 08	 push	 DWORD PTR __First$[ebp]
  00018	57		 push	 edi
  00019	ff 15 00 00 00
	00		 call	 DWORD PTR __imp__memmove
  0001f	83 c4 0c	 add	 esp, 12			; 0000000cH

; 2526 : 	return (_Dest + _Count);

  00022	8d 04 3e	 lea	 eax, DWORD PTR [esi+edi]
  00025	5f		 pop	 edi
  00026	5e		 pop	 esi

; 2527 : 	}

  00027	5d		 pop	 ebp
  00028	c3		 ret	 0
??$_Move@PAHPAH@std@@YAPAHPAH00U_Scalar_ptr_iterator_tag@0@@Z ENDP ; std::_Move<int *,int *>
_TEXT	ENDS
PUBLIC	??$_Destroy_range@V?$allocator@H@std@@@std@@YAXPAH0AAV?$allocator@H@0@U_Scalar_ptr_iterator_tag@0@@Z ; std::_Destroy_range<std::allocator<int> >
; Function compile flags: /Ogsp
; File c:\program files (x86)\microsoft visual studio 10.0\vc\include\xmemory
;	COMDAT ??$_Destroy_range@V?$allocator@H@std@@@std@@YAXPAH0AAV?$allocator@H@0@U_Scalar_ptr_iterator_tag@0@@Z
_TEXT	SEGMENT
__First$ = 8						; size = 4
__Last$ = 12						; size = 4
__Al$ = 16						; size = 4
___formal$ = 20						; size = 1
??$_Destroy_range@V?$allocator@H@std@@@std@@YAXPAH0AAV?$allocator@H@0@U_Scalar_ptr_iterator_tag@0@@Z PROC ; std::_Destroy_range<std::allocator<int> >, COMDAT

; 105  : 	}

  00000	c3		 ret	 0
??$_Destroy_range@V?$allocator@H@std@@@std@@YAXPAH0AAV?$allocator@H@0@U_Scalar_ptr_iterator_tag@0@@Z ENDP ; std::_Destroy_range<std::allocator<int> >
_TEXT	ENDS
PUBLIC	?_Unchecked@?$_Vector_const_iterator@V?$_Vector_val@HV?$allocator@H@std@@@std@@@std@@QBEPBHXZ ; std::_Vector_const_iterator<std::_Vector_val<int,std::allocator<int> > >::_Unchecked
; Function compile flags: /Ogsp
; File c:\program files (x86)\microsoft visual studio 10.0\vc\include\vector
;	COMDAT ?_Unchecked@?$_Vector_const_iterator@V?$_Vector_val@HV?$allocator@H@std@@@std@@@std@@QBEPBHXZ
_TEXT	SEGMENT
?_Unchecked@?$_Vector_const_iterator@V?$_Vector_val@HV?$allocator@H@std@@@std@@@std@@QBEPBHXZ PROC ; std::_Vector_const_iterator<std::_Vector_val<int,std::allocator<int> > >::_Unchecked, COMDAT
; _this$ = ecx

; 59   : 		return (_Unchecked_type(this->_Ptr));

  00000	8b 01		 mov	 eax, DWORD PTR [ecx]

; 60   : 		}

  00002	c3		 ret	 0
?_Unchecked@?$_Vector_const_iterator@V?$_Vector_val@HV?$allocator@H@std@@@std@@@std@@QBEPBHXZ ENDP ; std::_Vector_const_iterator<std::_Vector_val<int,std::allocator<int> > >::_Unchecked
_TEXT	ENDS
PUBLIC	?_Rechecked@?$_Vector_iterator@V?$_Vector_val@HV?$allocator@H@std@@@std@@@std@@QAEAAV12@PAH@Z ; std::_Vector_iterator<std::_Vector_val<int,std::allocator<int> > >::_Rechecked
; Function compile flags: /Ogsp
;	COMDAT ?_Rechecked@?$_Vector_iterator@V?$_Vector_val@HV?$allocator@H@std@@@std@@@std@@QAEAAV12@PAH@Z
_TEXT	SEGMENT
__Right$ = 8						; size = 4
?_Rechecked@?$_Vector_iterator@V?$_Vector_val@HV?$allocator@H@std@@@std@@@std@@QAEAAV12@PAH@Z PROC ; std::_Vector_iterator<std::_Vector_val<int,std::allocator<int> > >::_Rechecked, COMDAT
; _this$ = ecx

; 310  : 		{	// reset from unchecked iterator

  00000	55		 push	 ebp
  00001	8b ec		 mov	 ebp, esp
  00003	8b c1		 mov	 eax, ecx

; 311  : 		this->_Ptr = _Right;

  00005	8b 4d 08	 mov	 ecx, DWORD PTR __Right$[ebp]
  00008	89 08		 mov	 DWORD PTR [eax], ecx

; 312  : 		return (*this);
; 313  : 		}

  0000a	5d		 pop	 ebp
  0000b	c2 04 00	 ret	 4
?_Rechecked@?$_Vector_iterator@V?$_Vector_val@HV?$allocator@H@std@@@std@@@std@@QAEAAV12@PAH@Z ENDP ; std::_Vector_iterator<std::_Vector_val<int,std::allocator<int> > >::_Rechecked
_TEXT	ENDS
PUBLIC	?_Unchecked@?$_Vector_iterator@V?$_Vector_val@HV?$allocator@H@std@@@std@@@std@@QBEPAHXZ ; std::_Vector_iterator<std::_Vector_val<int,std::allocator<int> > >::_Unchecked
; Function compile flags: /Ogsp
;	COMDAT ?_Unchecked@?$_Vector_iterator@V?$_Vector_val@HV?$allocator@H@std@@@std@@@std@@QBEPAHXZ
_TEXT	SEGMENT
?_Unchecked@?$_Vector_iterator@V?$_Vector_val@HV?$allocator@H@std@@@std@@@std@@QBEPAHXZ PROC ; std::_Vector_iterator<std::_Vector_val<int,std::allocator<int> > >::_Unchecked, COMDAT
; _this$ = ecx

; 317  : 		return (_Unchecked_type(this->_Ptr));

  00000	8b 01		 mov	 eax, DWORD PTR [ecx]

; 318  : 		}

  00002	c3		 ret	 0
?_Unchecked@?$_Vector_iterator@V?$_Vector_val@HV?$allocator@H@std@@@std@@@std@@QBEPAHXZ ENDP ; std::_Vector_iterator<std::_Vector_val<int,std::allocator<int> > >::_Unchecked
_TEXT	ENDS
PUBLIC	??$_Ptr_cat@HH@std@@YA?AU_Scalar_ptr_iterator_tag@0@PBHPAH@Z ; std::_Ptr_cat<int,int>
; Function compile flags: /Ogsp
; File c:\program files (x86)\microsoft visual studio 10.0\vc\include\xutility
;	COMDAT ??$_Ptr_cat@HH@std@@YA?AU_Scalar_ptr_iterator_tag@0@PBHPAH@Z
_TEXT	SEGMENT
__Cat$ = -1						; size = 1
___formal$ = 8						; size = 4
___formal$ = 12						; size = 4
??$_Ptr_cat@HH@std@@YA?AU_Scalar_ptr_iterator_tag@0@PBHPAH@Z PROC ; std::_Ptr_cat<int,int>, COMDAT

; 525  : 	{	// return pointer category from pointers

  00000	55		 push	 ebp
  00001	8b ec		 mov	 ebp, esp
  00003	51		 push	 ecx

; 526  : 	typename _Ptr_cat_helper<_Elem1, _Elem2>::_Type _Cat;
; 527  : 	return (_Cat);

  00004	8a 45 ff	 mov	 al, BYTE PTR __Cat$[ebp]

; 528  : 	}

  00007	c9		 leave
  00008	c3		 ret	 0
??$_Ptr_cat@HH@std@@YA?AU_Scalar_ptr_iterator_tag@0@PBHPAH@Z ENDP ; std::_Ptr_cat<int,int>
_TEXT	ENDS
PUBLIC	??$_Copy_impl@PBHPAH@std@@YAPAHPBH0PAHU_Scalar_ptr_iterator_tag@0@@Z ; std::_Copy_impl<int const *,int *>
; Function compile flags: /Ogsp
;	COMDAT ??$_Copy_impl@PBHPAH@std@@YAPAHPBH0PAHU_Scalar_ptr_iterator_tag@0@@Z
_TEXT	SEGMENT
__First$ = 8						; size = 4
__Last$ = 12						; size = 4
__Dest$ = 16						; size = 4
___formal$ = 20						; size = 1
??$_Copy_impl@PBHPAH@std@@YAPAHPBH0PAHU_Scalar_ptr_iterator_tag@0@@Z PROC ; std::_Copy_impl<int const *,int *>, COMDAT

; 2152 : 	{	// copy [_First, _Last) to [_Dest, ...), pointers to scalars

  00000	55		 push	 ebp
  00001	8b ec		 mov	 ebp, esp
  00003	56		 push	 esi

; 2153 : 	ptrdiff_t _Count = _Last - _First;

  00004	8b 75 0c	 mov	 esi, DWORD PTR __Last$[ebp]
  00007	2b 75 08	 sub	 esi, DWORD PTR __First$[ebp]
  0000a	57		 push	 edi

; 2154 : 	_CSTD memmove(&*_Dest, &*_First,
; 2155 : 		_Count * sizeof (*_First));

  0000b	8b 7d 10	 mov	 edi, DWORD PTR __Dest$[ebp]
  0000e	c1 fe 02	 sar	 esi, 2
  00011	c1 e6 02	 shl	 esi, 2
  00014	56		 push	 esi
  00015	ff 75 08	 push	 DWORD PTR __First$[ebp]
  00018	57		 push	 edi
  00019	ff 15 00 00 00
	00		 call	 DWORD PTR __imp__memmove
  0001f	83 c4 0c	 add	 esp, 12			; 0000000cH

; 2156 : 	return (_Dest + _Count);

  00022	8d 04 3e	 lea	 eax, DWORD PTR [esi+edi]
  00025	5f		 pop	 edi
  00026	5e		 pop	 esi

; 2157 : 	}

  00027	5d		 pop	 ebp
  00028	c3		 ret	 0
??$_Copy_impl@PBHPAH@std@@YAPAHPBH0PAHU_Scalar_ptr_iterator_tag@0@@Z ENDP ; std::_Copy_impl<int const *,int *>
_TEXT	ENDS
PUBLIC	??$_Fill_n@PAHIH@std@@YAXPAHIABH@Z		; std::_Fill_n<int *,unsigned int,int>
; Function compile flags: /Ogsp
;	COMDAT ??$_Fill_n@PAHIH@std@@YAXPAHIABH@Z
_TEXT	SEGMENT
__Dest$ = 8						; size = 4
__Count$ = 12						; size = 4
__Val$ = 16						; size = 4
??$_Fill_n@PAHIH@std@@YAXPAHIABH@Z PROC			; std::_Fill_n<int *,unsigned int,int>, COMDAT

; 2723 : 	{	// copy _Val _Count times through [_Dest, ...)

  00000	55		 push	 ebp
  00001	8b ec		 mov	 ebp, esp

; 2724 : 	for (; 0 < _Count; --_Count, ++_Dest)

  00003	83 7d 0c 00	 cmp	 DWORD PTR __Count$[ebp], 0
  00007	76 16		 jbe	 SHORT $LN1@Fill_n
  00009	8b 45 08	 mov	 eax, DWORD PTR __Dest$[ebp]
$LL3@Fill_n:

; 2725 : 		*_Dest = _Val;

  0000c	8b 4d 10	 mov	 ecx, DWORD PTR __Val$[ebp]
  0000f	8b 09		 mov	 ecx, DWORD PTR [ecx]
  00011	ff 4d 0c	 dec	 DWORD PTR __Count$[ebp]
  00014	89 08		 mov	 DWORD PTR [eax], ecx
  00016	83 c0 04	 add	 eax, 4
  00019	83 7d 0c 00	 cmp	 DWORD PTR __Count$[ebp], 0
  0001d	77 ed		 ja	 SHORT $LL3@Fill_n
$LN1@Fill_n:

; 2726 : 	}

  0001f	5d		 pop	 ebp
  00020	c3		 ret	 0
??$_Fill_n@PAHIH@std@@YAXPAHIABH@Z ENDP			; std::_Fill_n<int *,unsigned int,int>
_TEXT	ENDS
PUBLIC	??$_Uninit_move@HHH@std@@YAPAHPAH00AAV?$allocator@H@0@0U_Scalar_ptr_iterator_tag@0@@Z ; std::_Uninit_move<int,int,int>
; Function compile flags: /Ogsp
; File c:\program files (x86)\microsoft visual studio 10.0\vc\include\memory
;	COMDAT ??$_Uninit_move@HHH@std@@YAPAHPAH00AAV?$allocator@H@0@0U_Scalar_ptr_iterator_tag@0@@Z
_TEXT	SEGMENT
__First$ = 8						; size = 4
__Last$ = 12						; size = 4
__Dest$ = 16						; size = 4
___formal$ = 20						; size = 4
___formal$ = 24						; size = 4
___formal$ = 28						; size = 1
??$_Uninit_move@HHH@std@@YAPAHPAH00AAV?$allocator@H@0@0U_Scalar_ptr_iterator_tag@0@@Z PROC ; std::_Uninit_move<int,int,int>, COMDAT

; 456  : 	{	// move [_First, _Last) to raw _Dest, scalar type

  00000	55		 push	 ebp
  00001	8b ec		 mov	 ebp, esp
  00003	56		 push	 esi

; 457  : 	_DEBUG_RANGE(_First, _Last);
; 458  : 	_DEBUG_POINTER(_Dest);
; 459  : 	size_t _Count = (size_t)(_Last - _First);

  00004	8b 75 0c	 mov	 esi, DWORD PTR __Last$[ebp]
  00007	2b 75 08	 sub	 esi, DWORD PTR __First$[ebp]
  0000a	c1 fe 02	 sar	 esi, 2

; 460  : 	return ((_Ty2 *)_CSTD memmove(&*_Dest, &*_First,
; 461  : 		_Count * sizeof (*_First)) + _Count);	// NB: non-overlapping move

  0000d	c1 e6 02	 shl	 esi, 2
  00010	56		 push	 esi
  00011	ff 75 08	 push	 DWORD PTR __First$[ebp]
  00014	ff 75 10	 push	 DWORD PTR __Dest$[ebp]
  00017	ff 15 00 00 00
	00		 call	 DWORD PTR __imp__memmove
  0001d	83 c4 0c	 add	 esp, 12			; 0000000cH
  00020	03 c6		 add	 eax, esi
  00022	5e		 pop	 esi

; 462  : 	}

  00023	5d		 pop	 ebp
  00024	c3		 ret	 0
??$_Uninit_move@HHH@std@@YAPAHPAH00AAV?$allocator@H@0@0U_Scalar_ptr_iterator_tag@0@@Z ENDP ; std::_Uninit_move<int,int,int>
_TEXT	ENDS
PUBLIC	_rkUserName$GSCopy$
PUBLIC	__$ArrayPad$
PUBLIC	?ScrollSyncCharData@UserInfoCharData@@QAEXABVioHashString@@H@Z ; UserInfoCharData::ScrollSyncCharData
EXTRN	??1SP2Packet@@UAE@XZ:PROC			; SP2Packet::~SP2Packet
EXTRN	?SendToServer@TCPNetwork@@YAXAAVSP2Packet@@@Z:PROC ; TCPNetwork::SendToServer
EXTRN	??6SP2Packet@@QAEAAV0@H@Z:PROC			; SP2Packet::operator<<
EXTRN	??6SP2Packet@@QAEAAV0@ABVioHashString@@@Z:PROC	; SP2Packet::operator<<
EXTRN	??0SP2Packet@@QAE@K@Z:PROC			; SP2Packet::SP2Packet
EXTRN	__imp_?GetLoopSec@ioFrameTimer@@QBEKXZ:PROC
EXTRN	__imp_?GetSingleton@ioFrameTimer@@SAAAV1@XZ:PROC
EXTRN	__imp_??8ioHashString@@QBE_NABV0@@Z:PROC
EXTRN	?GetSingleton@ioMyInfo@@SAAAV1@XZ:PROC		; ioMyInfo::GetSingleton
EXTRN	__imp_?IsEmpty@ioHashString@@QBE_NXZ:PROC
EXTRN	___security_cookie:DWORD
EXTRN	___CxxFrameHandler3:PROC
EXTRN	@__security_check_cookie@4:PROC
EXTRN	__chkstk:PROC
;	COMDAT xdata$x
; File c:\program files (x86)\microsoft visual studio 10.0\vc\include\vector
xdata$x	SEGMENT
__unwindtable$?ScrollSyncCharData@UserInfoCharData@@QAEXABVioHashString@@H@Z DD 0ffffffffH
	DD	FLAT:__unwindfunclet$?ScrollSyncCharData@UserInfoCharData@@QAEXABVioHashString@@H@Z$0
__ehfuncinfo$?ScrollSyncCharData@UserInfoCharData@@QAEXABVioHashString@@H@Z DD 019930522H
	DD	01H
	DD	FLAT:__unwindtable$?ScrollSyncCharData@UserInfoCharData@@QAEXABVioHashString@@H@Z
	DD	2 DUP(00H)
	DD	2 DUP(00H)
	DD	00H
	DD	01H
; Function compile flags: /Ogsp
; File d:\lost saga for developer\youtube\tutorial\source\src\lsclient\gui\iouserinfomgr.cpp
xdata$x	ENDS
;	COMDAT ?ScrollSyncCharData@UserInfoCharData@@QAEXABVioHashString@@H@Z
_TEXT	SEGMENT
_rkUserName$GSCopy$ = -32812				; size = 4
_kPacket$513962 = -32808				; size = 32792
__$ArrayPad$ = -16					; size = 4
__$EHRec$ = -12						; size = 12
_rkUserName$ = 8					; size = 4
_iListArray$ = 12					; size = 4
?ScrollSyncCharData@UserInfoCharData@@QAEXABVioHashString@@H@Z PROC ; UserInfoCharData::ScrollSyncCharData, COMDAT
; _this$ = ecx

; 306  : {

  00000	55		 push	 ebp
  00001	8b ec		 mov	 ebp, esp
  00003	6a ff		 push	 -1
  00005	68 00 00 00 00	 push	 __ehhandler$?ScrollSyncCharData@UserInfoCharData@@QAEXABVioHashString@@H@Z
  0000a	64 a1 00 00 00
	00		 mov	 eax, DWORD PTR fs:0
  00010	50		 push	 eax
  00011	b8 20 80 00 00	 mov	 eax, 32800		; 00008020H
  00016	e8 00 00 00 00	 call	 __chkstk
  0001b	a1 00 00 00 00	 mov	 eax, DWORD PTR ___security_cookie
  00020	33 c5		 xor	 eax, ebp
  00022	89 45 f0	 mov	 DWORD PTR __$ArrayPad$[ebp], eax
  00025	53		 push	 ebx
  00026	56		 push	 esi
  00027	57		 push	 edi
  00028	50		 push	 eax
  00029	8d 45 f4	 lea	 eax, DWORD PTR __$EHRec$[ebp]
  0002c	64 a3 00 00 00
	00		 mov	 DWORD PTR fs:0, eax
  00032	8b 7d 08	 mov	 edi, DWORD PTR _rkUserName$[ebp]
  00035	8b f1		 mov	 esi, ecx

; 307  : 	if( !m_bDataSync ) return;

  00037	80 be dc 03 00
	00 00		 cmp	 BYTE PTR [esi+988], 0

; 326  : 	{
; 327  : 		SP2Packet kPacket( CTPK_USER_CHAR_INFO_REFRESH );

  0003e	89 bd d4 7f ff
	ff		 mov	 DWORD PTR _rkUserName$GSCopy$[ebp], edi
  00044	0f 84 fe 00 00
	00		 je	 $LN1@ScrollSync

; 308  : 	if( rkUserName.IsEmpty() ) return;

  0004a	8b cf		 mov	 ecx, edi
  0004c	ff 15 00 00 00
	00		 call	 DWORD PTR __imp_?IsEmpty@ioHashString@@QBE_NXZ
  00052	84 c0		 test	 al, al
  00054	0f 85 ee 00 00
	00		 jne	 $LN1@ScrollSync

; 309  : 	if( rkUserName == g_MyInfo.GetPublicID() )

  0005a	e8 00 00 00 00	 call	 ?GetSingleton@ioMyInfo@@SAAAV1@XZ ; ioMyInfo::GetSingleton
  0005f	83 c0 1c	 add	 eax, 28			; 0000001cH
  00062	50		 push	 eax
  00063	8b cf		 mov	 ecx, edi
  00065	ff 15 00 00 00
	00		 call	 DWORD PTR __imp_??8ioHashString@@QBE_NABV0@@Z
  0006b	84 c0		 test	 al, al
  0006d	74 20		 je	 SHORT $LN5@ScrollSync

; 310  : 	{
; 311  : 		m_bDataSync = true;

  0006f	c6 86 dc 03 00
	00 01		 mov	 BYTE PTR [esi+988], 1

; 312  : 		m_iMaxVirtualCharCount = m_CharDataList.size();

  00076	8b 46 08	 mov	 eax, DWORD PTR [esi+8]
  00079	2b 46 04	 sub	 eax, DWORD PTR [esi+4]
  0007c	b9 c0 03 00 00	 mov	 ecx, 960		; 000003c0H
  00081	99		 cdq
  00082	f7 f9		 idiv	 ecx
  00084	89 86 e0 03 00
	00		 mov	 DWORD PTR [esi+992], eax

; 313  : 		return;

  0008a	e9 b9 00 00 00	 jmp	 $LN1@ScrollSync
$LN5@ScrollSync:

; 314  : 	}
; 315  : 
; 316  : 	if( m_bScrollSyncBlock )

  0008f	80 be e4 03 00
	00 00		 cmp	 BYTE PTR [esi+996], 0
  00096	8b 3d 00 00 00
	00		 mov	 edi, DWORD PTR __imp_?GetSingleton@ioFrameTimer@@SAAAV1@XZ
  0009c	74 1b		 je	 SHORT $LN3@ScrollSync

; 317  : 	{
; 318  : 		if( FRAMEGETTIME() - m_dwScrollSyncTime < 10000 )

  0009e	ff d7		 call	 edi
  000a0	8b c8		 mov	 ecx, eax
  000a2	ff 15 00 00 00
	00		 call	 DWORD PTR __imp_?GetLoopSec@ioFrameTimer@@QBEKXZ
  000a8	2b 86 e8 03 00
	00		 sub	 eax, DWORD PTR [esi+1000]
  000ae	3d 10 27 00 00	 cmp	 eax, 10000		; 00002710H
  000b3	0f 82 8f 00 00
	00		 jb	 $LN1@ScrollSync
$LN3@ScrollSync:

; 319  : 			return;
; 320  : 	}
; 321  : 	
; 322  : 	if( iListArray <= (int)m_CharDataList.size() )

  000b9	8b 46 08	 mov	 eax, DWORD PTR [esi+8]
  000bc	2b 46 04	 sub	 eax, DWORD PTR [esi+4]
  000bf	bb c0 03 00 00	 mov	 ebx, 960		; 000003c0H
  000c4	99		 cdq
  000c5	8b cb		 mov	 ecx, ebx
  000c7	f7 f9		 idiv	 ecx
  000c9	39 45 0c	 cmp	 DWORD PTR _iListArray$[ebp], eax
  000cc	7e 7a		 jle	 SHORT $LN1@ScrollSync

; 323  : 		return;
; 324  : 
; 325  : 	if( (int)m_CharDataList.size() < m_iMaxVirtualCharCount )

  000ce	3b 86 e0 03 00
	00		 cmp	 eax, DWORD PTR [esi+992]
  000d4	7d 72		 jge	 SHORT $LN1@ScrollSync

; 326  : 	{
; 327  : 		SP2Packet kPacket( CTPK_USER_CHAR_INFO_REFRESH );

  000d6	68 36 02 00 00	 push	 566			; 00000236H
  000db	8d 8d d8 7f ff
	ff		 lea	 ecx, DWORD PTR _kPacket$513962[ebp]
  000e1	e8 00 00 00 00	 call	 ??0SP2Packet@@QAE@K@Z	; SP2Packet::SP2Packet

; 328  : 		kPacket << rkUserName << (int)m_CharDataList.size() << CHARINFODATA_SYNC_COUNT;

  000e6	8b 46 08	 mov	 eax, DWORD PTR [esi+8]
  000e9	2b 46 04	 sub	 eax, DWORD PTR [esi+4]
  000ec	83 65 fc 00	 and	 DWORD PTR __$EHRec$[ebp+8], 0
  000f0	99		 cdq
  000f1	f7 fb		 idiv	 ebx
  000f3	6a 06		 push	 6
  000f5	8d 8d d8 7f ff
	ff		 lea	 ecx, DWORD PTR _kPacket$513962[ebp]
  000fb	50		 push	 eax
  000fc	ff b5 d4 7f ff
	ff		 push	 DWORD PTR _rkUserName$GSCopy$[ebp]
  00102	e8 00 00 00 00	 call	 ??6SP2Packet@@QAEAAV0@ABVioHashString@@@Z ; SP2Packet::operator<<
  00107	8b c8		 mov	 ecx, eax
  00109	e8 00 00 00 00	 call	 ??6SP2Packet@@QAEAAV0@H@Z ; SP2Packet::operator<<
  0010e	8b c8		 mov	 ecx, eax
  00110	e8 00 00 00 00	 call	 ??6SP2Packet@@QAEAAV0@H@Z ; SP2Packet::operator<<

; 329  : 		TCPNetwork::SendToServer( kPacket );

  00115	8d 85 d8 7f ff
	ff		 lea	 eax, DWORD PTR _kPacket$513962[ebp]
  0011b	50		 push	 eax
  0011c	e8 00 00 00 00	 call	 ?SendToServer@TCPNetwork@@YAXAAVSP2Packet@@@Z ; TCPNetwork::SendToServer
  00121	59		 pop	 ecx

; 330  : 		m_bScrollSyncBlock = true;

  00122	c6 86 e4 03 00
	00 01		 mov	 BYTE PTR [esi+996], 1

; 331  : 		m_dwScrollSyncTime = FRAMEGETTIME();

  00129	ff d7		 call	 edi
  0012b	8b c8		 mov	 ecx, eax
  0012d	ff 15 00 00 00
	00		 call	 DWORD PTR __imp_?GetLoopSec@ioFrameTimer@@QBEKXZ

; 332  : 	}

  00133	83 4d fc ff	 or	 DWORD PTR __$EHRec$[ebp+8], -1
  00137	8d 8d d8 7f ff
	ff		 lea	 ecx, DWORD PTR _kPacket$513962[ebp]
  0013d	89 86 e8 03 00
	00		 mov	 DWORD PTR [esi+1000], eax
  00143	e8 00 00 00 00	 call	 ??1SP2Packet@@UAE@XZ	; SP2Packet::~SP2Packet
$LN1@ScrollSync:

; 333  : }

  00148	8b 4d f4	 mov	 ecx, DWORD PTR __$EHRec$[ebp]
  0014b	64 89 0d 00 00
	00 00		 mov	 DWORD PTR fs:0, ecx
  00152	59		 pop	 ecx
  00153	5f		 pop	 edi
  00154	5e		 pop	 esi
  00155	5b		 pop	 ebx
  00156	8b 4d f0	 mov	 ecx, DWORD PTR __$ArrayPad$[ebp]
  00159	33 cd		 xor	 ecx, ebp
  0015b	e8 00 00 00 00	 call	 @__security_check_cookie@4
  00160	c9		 leave
  00161	c2 08 00	 ret	 8
_TEXT	ENDS
;	COMDAT text$x
text$x	SEGMENT
__unwindfunclet$?ScrollSyncCharData@UserInfoCharData@@QAEXABVioHashString@@H@Z$0:
  00000	8d 8d d8 7f ff
	ff		 lea	 ecx, DWORD PTR _kPacket$513962[ebp]
  00006	e9 00 00 00 00	 jmp	 ??1SP2Packet@@UAE@XZ	; SP2Packet::~SP2Packet
__ehhandler$?ScrollSyncCharData@UserInfoCharData@@QAEXABVioHashString@@H@Z:
  0000b	8b 54 24 08	 mov	 edx, DWORD PTR [esp+8]
  0000f	8d 42 0c	 lea	 eax, DWORD PTR [edx+12]
  00012	8b 8a d0 7f ff
	ff		 mov	 ecx, DWORD PTR [edx-32816]
  00018	33 c8		 xor	 ecx, eax
  0001a	e8 00 00 00 00	 call	 @__security_check_cookie@4
  0001f	8b 4a fc	 mov	 ecx, DWORD PTR [edx-4]
  00022	33 c8		 xor	 ecx, eax
  00024	e8 00 00 00 00	 call	 @__security_check_cookie@4
  00029	b8 00 00 00 00	 mov	 eax, OFFSET __ehfuncinfo$?ScrollSyncCharData@UserInfoCharData@@QAEXABVioHashString@@H@Z
  0002e	e9 00 00 00 00	 jmp	 ___CxxFrameHandler3
text$x	ENDS
?ScrollSyncCharData@UserInfoCharData@@QAEXABVioHashString@@H@Z ENDP ; UserInfoCharData::ScrollSyncCharData
PUBLIC	?GetGuildMark@UserInfoNode@@QAEKXZ		; UserInfoNode::GetGuildMark
EXTRN	?GetGuildData@ioGuildInfo@@QAEPAVioGuildData@@K_N@Z:PROC ; ioGuildInfo::GetGuildData
EXTRN	?GetSingleton@ioGuildInfo@@SAAAV1@XZ:PROC	; ioGuildInfo::GetSingleton
; Function compile flags: /Ogsp
;	COMDAT ?GetGuildMark@UserInfoNode@@QAEKXZ
_TEXT	SEGMENT
?GetGuildMark@UserInfoNode@@QAEKXZ PROC			; UserInfoNode::GetGuildMark, COMDAT
; _this$ = ecx

; 633  : 	if( GetGuildIndex() == 0 ) return 0;

  00000	8b 81 80 00 00
	00		 mov	 eax, DWORD PTR [ecx+128]
  00006	85 c0		 test	 eax, eax
  00008	74 17		 je	 SHORT $LN1@GetGuildMa

; 634  : 
; 635  : 	ioGuildData *pGuildData = g_GuildInfo.GetGuildData( GetGuildIndex() );

  0000a	6a 00		 push	 0
  0000c	50		 push	 eax
  0000d	e8 00 00 00 00	 call	 ?GetSingleton@ioGuildInfo@@SAAAV1@XZ ; ioGuildInfo::GetSingleton
  00012	8b c8		 mov	 ecx, eax
  00014	e8 00 00 00 00	 call	 ?GetGuildData@ioGuildInfo@@QAEPAVioGuildData@@K_N@Z ; ioGuildInfo::GetGuildData

; 636  : 	if( pGuildData )

  00019	85 c0		 test	 eax, eax
  0001b	74 04		 je	 SHORT $LN1@GetGuildMa

; 637  : 		return pGuildData->GetGuildMark();

  0001d	8b 40 08	 mov	 eax, DWORD PTR [eax+8]

; 639  : }

  00020	c3		 ret	 0
$LN1@GetGuildMa:

; 638  : 	return 0;

  00021	33 c0		 xor	 eax, eax

; 639  : }

  00023	c3		 ret	 0
?GetGuildMark@UserInfoNode@@QAEKXZ ENDP			; UserInfoNode::GetGuildMark
_TEXT	ENDS
PUBLIC	__$ArrayPad$
PUBLIC	?CheckSyncTime@UserInfoNode@@QAEXXZ		; UserInfoNode::CheckSyncTime
EXTRN	?SendP2PUserInfoSync@P2PNetwork@@YAXABVioHashString@@AAVSP2Packet@@@Z:PROC ; P2PNetwork::SendP2PUserInfoSync
;	COMDAT xdata$x
; File d:\lost saga for developer\youtube\tutorial\source\src\lsclient\iomyinfo.h
xdata$x	SEGMENT
__unwindtable$?CheckSyncTime@UserInfoNode@@QAEXXZ DD 0ffffffffH
	DD	FLAT:__unwindfunclet$?CheckSyncTime@UserInfoNode@@QAEXXZ$0
	DD	0ffffffffH
	DD	FLAT:__unwindfunclet$?CheckSyncTime@UserInfoNode@@QAEXXZ$1
__ehfuncinfo$?CheckSyncTime@UserInfoNode@@QAEXXZ DD 019930522H
	DD	02H
	DD	FLAT:__unwindtable$?CheckSyncTime@UserInfoNode@@QAEXXZ
	DD	2 DUP(00H)
	DD	2 DUP(00H)
	DD	00H
	DD	01H
; Function compile flags: /Ogsp
; File d:\lost saga for developer\youtube\tutorial\source\src\lsclient\gui\iouserinfomgr.cpp
xdata$x	ENDS
;	COMDAT ?CheckSyncTime@UserInfoNode@@QAEXXZ
_TEXT	SEGMENT
_kPacket$514331 = -65600				; size = 32792
_kPacket$514335 = -32808				; size = 32792
__$ArrayPad$ = -16					; size = 4
__$EHRec$ = -12						; size = 12
?CheckSyncTime@UserInfoNode@@QAEXXZ PROC		; UserInfoNode::CheckSyncTime, COMDAT
; _this$ = ecx

; 803  : {

  00000	55		 push	 ebp
  00001	8b ec		 mov	 ebp, esp
  00003	6a ff		 push	 -1
  00005	68 00 00 00 00	 push	 __ehhandler$?CheckSyncTime@UserInfoNode@@QAEXXZ
  0000a	64 a1 00 00 00
	00		 mov	 eax, DWORD PTR fs:0
  00010	50		 push	 eax
  00011	b8 34 00 01 00	 mov	 eax, 65588		; 00010034H
  00016	e8 00 00 00 00	 call	 __chkstk
  0001b	a1 00 00 00 00	 mov	 eax, DWORD PTR ___security_cookie
  00020	33 c5		 xor	 eax, ebp
  00022	89 45 f0	 mov	 DWORD PTR __$ArrayPad$[ebp], eax
  00025	53		 push	 ebx
  00026	56		 push	 esi
  00027	57		 push	 edi
  00028	50		 push	 eax
  00029	8d 45 f4	 lea	 eax, DWORD PTR __$EHRec$[ebp]
  0002c	64 a3 00 00 00
	00		 mov	 DWORD PTR fs:0, eax
  00032	8b f1		 mov	 esi, ecx

; 804  : 	if( m_UserID.IsEmpty() )

  00034	8d 5e 08	 lea	 ebx, DWORD PTR [esi+8]
  00037	8b cb		 mov	 ecx, ebx
  00039	ff 15 00 00 00
	00		 call	 DWORD PTR __imp_?IsEmpty@ioHashString@@QBE_NXZ
  0003f	84 c0		 test	 al, al
  00041	0f 85 2c 01 00
	00		 jne	 $LN8@CheckSyncT

; 805  : 		return;
; 806  : 
; 807  : 	if( m_UserID == g_MyInfo.GetPublicID() )

  00047	e8 00 00 00 00	 call	 ?GetSingleton@ioMyInfo@@SAAAV1@XZ ; ioMyInfo::GetSingleton
  0004c	83 c0 1c	 add	 eax, 28			; 0000001cH
  0004f	50		 push	 eax
  00050	8b cb		 mov	 ecx, ebx
  00052	ff 15 00 00 00
	00		 call	 DWORD PTR __imp_??8ioHashString@@QBE_NABV0@@Z
  00058	84 c0		 test	 al, al
  0005a	0f 85 13 01 00
	00		 jne	 $LN8@CheckSyncT

; 808  : 		return;
; 809  : 	
; 810  : 	if( m_dwTCPSyncTime == 0 || FRAMEGETTIME() - m_dwTCPSyncTime > 600000 )         //10Min 마다 TCP 동기화

  00060	83 be b4 04 00
	00 00		 cmp	 DWORD PTR [esi+1204], 0
  00067	8b 3d 00 00 00
	00		 mov	 edi, DWORD PTR __imp_?GetSingleton@ioFrameTimer@@SAAAV1@XZ
  0006d	0f 84 9d 00 00
	00		 je	 $LN4@CheckSyncT
  00073	ff d7		 call	 edi
  00075	8b c8		 mov	 ecx, eax
  00077	ff 15 00 00 00
	00		 call	 DWORD PTR __imp_?GetLoopSec@ioFrameTimer@@QBEKXZ
  0007d	2b 86 b4 04 00
	00		 sub	 eax, DWORD PTR [esi+1204]
  00083	3d c0 27 09 00	 cmp	 eax, 600000		; 000927c0H
  00088	0f 87 82 00 00
	00		 ja	 $LN4@CheckSyncT

; 820  : 	else if( m_bForceUDPSync == true || m_dwUDPSyncTime == 0 || FRAMEGETTIME() - m_dwUDPSyncTime > 60000 )      //1Min 마다 UDP 동기화

  0008e	80 be bd 04 00
	00 01		 cmp	 BYTE PTR [esi+1213], 1
  00095	74 24		 je	 SHORT $LN1@CheckSyncT
  00097	83 be b8 04 00
	00 00		 cmp	 DWORD PTR [esi+1208], 0
  0009e	74 1b		 je	 SHORT $LN1@CheckSyncT
  000a0	ff d7		 call	 edi
  000a2	8b c8		 mov	 ecx, eax
  000a4	ff 15 00 00 00
	00		 call	 DWORD PTR __imp_?GetLoopSec@ioFrameTimer@@QBEKXZ
  000aa	2b 86 b8 04 00
	00		 sub	 eax, DWORD PTR [esi+1208]
  000b0	3d 60 ea 00 00	 cmp	 eax, 60000		; 0000ea60H
  000b5	0f 86 b1 00 00
	00		 jbe	 $LN2@CheckSyncT
$LN1@CheckSyncT:

; 821  : 	{
; 822  : 		m_dwUDPSyncTime = FRAMEGETTIME();

  000bb	ff d7		 call	 edi
  000bd	8b c8		 mov	 ecx, eax
  000bf	ff 15 00 00 00
	00		 call	 DWORD PTR __imp_?GetLoopSec@ioFrameTimer@@QBEKXZ

; 823  : 
; 824  : 		// 해당 유저에게 정보 요청
; 825  : 		SP2Packet kPacket( CUPK_USER_INFO_REFRESH );

  000c5	68 76 41 00 00	 push	 16758			; 00004176H
  000ca	8d 8d d8 7f ff
	ff		 lea	 ecx, DWORD PTR _kPacket$514335[ebp]
  000d0	89 86 b8 04 00
	00		 mov	 DWORD PTR [esi+1208], eax
  000d6	e8 00 00 00 00	 call	 ??0SP2Packet@@QAE@K@Z	; SP2Packet::SP2Packet
  000db	c7 45 fc 01 00
	00 00		 mov	 DWORD PTR __$EHRec$[ebp+8], 1

; 826  : 		kPacket << g_MyInfo.GetPublicID();

  000e2	e8 00 00 00 00	 call	 ?GetSingleton@ioMyInfo@@SAAAV1@XZ ; ioMyInfo::GetSingleton
  000e7	83 c0 1c	 add	 eax, 28			; 0000001cH
  000ea	50		 push	 eax
  000eb	8d 8d d8 7f ff
	ff		 lea	 ecx, DWORD PTR _kPacket$514335[ebp]
  000f1	e8 00 00 00 00	 call	 ??6SP2Packet@@QAEAAV0@ABVioHashString@@@Z ; SP2Packet::operator<<

; 827  : 		P2PNetwork::SendP2PUserInfoSync( m_UserID, kPacket );

  000f6	8d 85 d8 7f ff
	ff		 lea	 eax, DWORD PTR _kPacket$514335[ebp]
  000fc	50		 push	 eax
  000fd	8d 46 08	 lea	 eax, DWORD PTR [esi+8]
  00100	50		 push	 eax
  00101	e8 00 00 00 00	 call	 ?SendP2PUserInfoSync@P2PNetwork@@YAXABVioHashString@@AAVSP2Packet@@@Z ; P2PNetwork::SendP2PUserInfoSync
  00106	59		 pop	 ecx
  00107	59		 pop	 ecx

; 828  : 	}

  00108	8d 8d d8 7f ff
	ff		 lea	 ecx, DWORD PTR _kPacket$514335[ebp]
  0010e	eb 53		 jmp	 SHORT $LN19@CheckSyncT
$LN4@CheckSyncT:

; 811  : 	{
; 812  : 		SetSyncTime( FRAMEGETTIME() );

  00110	ff d7		 call	 edi
  00112	8b c8		 mov	 ecx, eax
  00114	ff 15 00 00 00
	00		 call	 DWORD PTR __imp_?GetLoopSec@ioFrameTimer@@QBEKXZ
  0011a	89 86 b4 04 00
	00		 mov	 DWORD PTR [esi+1204], eax

; 813  : 		m_dwUDPSyncTime = FRAMEGETTIME();

  00120	ff d7		 call	 edi
  00122	8b c8		 mov	 ecx, eax
  00124	ff 15 00 00 00
	00		 call	 DWORD PTR __imp_?GetLoopSec@ioFrameTimer@@QBEKXZ

; 814  : 
; 815  : 		// 정보 동기화
; 816  : 		SP2Packet kPacket( CTPK_USER_INFO_REFRESH );

  0012a	68 12 01 00 00	 push	 274			; 00000112H
  0012f	8d 8d c0 ff fe
	ff		 lea	 ecx, DWORD PTR _kPacket$514331[ebp]
  00135	89 86 b8 04 00
	00		 mov	 DWORD PTR [esi+1208], eax
  0013b	e8 00 00 00 00	 call	 ??0SP2Packet@@QAE@K@Z	; SP2Packet::SP2Packet
  00140	83 65 fc 00	 and	 DWORD PTR __$EHRec$[ebp+8], 0

; 817  : 		kPacket << m_UserID;

  00144	53		 push	 ebx
  00145	8d 8d c0 ff fe
	ff		 lea	 ecx, DWORD PTR _kPacket$514331[ebp]
  0014b	e8 00 00 00 00	 call	 ??6SP2Packet@@QAEAAV0@ABVioHashString@@@Z ; SP2Packet::operator<<

; 818  : 		TCPNetwork::SendToServer( kPacket );

  00150	8d 85 c0 ff fe
	ff		 lea	 eax, DWORD PTR _kPacket$514331[ebp]
  00156	50		 push	 eax
  00157	e8 00 00 00 00	 call	 ?SendToServer@TCPNetwork@@YAXAAVSP2Packet@@@Z ; TCPNetwork::SendToServer
  0015c	59		 pop	 ecx

; 819  : 	}

  0015d	8d 8d c0 ff fe
	ff		 lea	 ecx, DWORD PTR _kPacket$514331[ebp]
$LN19@CheckSyncT:
  00163	83 4d fc ff	 or	 DWORD PTR __$EHRec$[ebp+8], -1
  00167	e8 00 00 00 00	 call	 ??1SP2Packet@@UAE@XZ	; SP2Packet::~SP2Packet
$LN2@CheckSyncT:

; 829  : 
; 830  : 	m_bForceUDPSync = false;

  0016c	c6 86 bd 04 00
	00 00		 mov	 BYTE PTR [esi+1213], 0
$LN8@CheckSyncT:

; 831  : }

  00173	8b 4d f4	 mov	 ecx, DWORD PTR __$EHRec$[ebp]
  00176	64 89 0d 00 00
	00 00		 mov	 DWORD PTR fs:0, ecx
  0017d	59		 pop	 ecx
  0017e	5f		 pop	 edi
  0017f	5e		 pop	 esi
  00180	5b		 pop	 ebx
  00181	8b 4d f0	 mov	 ecx, DWORD PTR __$ArrayPad$[ebp]
  00184	33 cd		 xor	 ecx, ebp
  00186	e8 00 00 00 00	 call	 @__security_check_cookie@4
  0018b	c9		 leave
  0018c	c3		 ret	 0
_TEXT	ENDS
;	COMDAT text$x
text$x	SEGMENT
__unwindfunclet$?CheckSyncTime@UserInfoNode@@QAEXXZ$1:
  00000	8d 8d d8 7f ff
	ff		 lea	 ecx, DWORD PTR _kPacket$514335[ebp]
  00006	e9 00 00 00 00	 jmp	 ??1SP2Packet@@UAE@XZ	; SP2Packet::~SP2Packet
__unwindfunclet$?CheckSyncTime@UserInfoNode@@QAEXXZ$0:
  0000b	8d 8d c0 ff fe
	ff		 lea	 ecx, DWORD PTR _kPacket$514331[ebp]
  00011	e9 00 00 00 00	 jmp	 ??1SP2Packet@@UAE@XZ	; SP2Packet::~SP2Packet
__ehhandler$?CheckSyncTime@UserInfoNode@@QAEXXZ:
  00016	8b 54 24 08	 mov	 edx, DWORD PTR [esp+8]
  0001a	8d 42 0c	 lea	 eax, DWORD PTR [edx+12]
  0001d	8b 8a bc ff fe
	ff		 mov	 ecx, DWORD PTR [edx-65604]
  00023	33 c8		 xor	 ecx, eax
  00025	e8 00 00 00 00	 call	 @__security_check_cookie@4
  0002a	8b 4a fc	 mov	 ecx, DWORD PTR [edx-4]
  0002d	33 c8		 xor	 ecx, eax
  0002f	e8 00 00 00 00	 call	 @__security_check_cookie@4
  00034	b8 00 00 00 00	 mov	 eax, OFFSET __ehfuncinfo$?CheckSyncTime@UserInfoNode@@QAEXXZ
  00039	e9 00 00 00 00	 jmp	 ___CxxFrameHandler3
text$x	ENDS
?CheckSyncTime@UserInfoNode@@QAEXXZ ENDP		; UserInfoNode::CheckSyncTime
PUBLIC	?GetSoldierSetCnt@UserInfoNode@@QAEHH@Z		; UserInfoNode::GetSoldierSetCnt
; Function compile flags: /Ogsp
;	COMDAT ?GetSoldierSetCnt@UserInfoNode@@QAEHH@Z
_TEXT	SEGMENT
_nSetCode$ = 8						; size = 4
?GetSoldierSetCnt@UserInfoNode@@QAEHH@Z PROC		; UserInfoNode::GetSoldierSetCnt, COMDAT
; _this$ = ecx

; 867  : {

  00000	55		 push	 ebp
  00001	8b ec		 mov	 ebp, esp

; 868  : 	if ( m_vSoldierSetCntVec.empty() || !COMPARE( nSetCode-1, 0, (int)m_vSoldierSetCntVec.size() ))

  00003	8b 91 c4 04 00
	00		 mov	 edx, DWORD PTR [ecx+1220]
  00009	8b 81 c8 04 00
	00		 mov	 eax, DWORD PTR [ecx+1224]
  0000f	56		 push	 esi
  00010	57		 push	 edi
  00011	3b d0		 cmp	 edx, eax
  00013	74 19		 je	 SHORT $LN1@GetSoldier
  00015	8b 7d 08	 mov	 edi, DWORD PTR _nSetCode$[ebp]
  00018	8d 77 ff	 lea	 esi, DWORD PTR [edi-1]
  0001b	85 f6		 test	 esi, esi
  0001d	78 0f		 js	 SHORT $LN1@GetSoldier
  0001f	2b c2		 sub	 eax, edx
  00021	c1 f8 02	 sar	 eax, 2
  00024	3b f0		 cmp	 esi, eax
  00026	7d 06		 jge	 SHORT $LN1@GetSoldier

; 870  : 
; 871  : 	return m_vSoldierSetCntVec[nSetCode-1];

  00028	8b 44 ba fc	 mov	 eax, DWORD PTR [edx+edi*4-4]
  0002c	eb 02		 jmp	 SHORT $LN4@GetSoldier
$LN1@GetSoldier:

; 869  : 		return 0;

  0002e	33 c0		 xor	 eax, eax
$LN4@GetSoldier:
  00030	5f		 pop	 edi
  00031	5e		 pop	 esi

; 872  : }

  00032	5d		 pop	 ebp
  00033	c2 04 00	 ret	 4
?GetSoldierSetCnt@UserInfoNode@@QAEHH@Z ENDP		; UserInfoNode::GetSoldierSetCnt
_TEXT	ENDS
PUBLIC	?GetSingleton@ioUserInfoMgr@@SAAAV1@XZ		; ioUserInfoMgr::GetSingleton
; Function compile flags: /Ogsp
;	COMDAT ?GetSingleton@ioUserInfoMgr@@SAAAV1@XZ
_TEXT	SEGMENT
?GetSingleton@ioUserInfoMgr@@SAAAV1@XZ PROC		; ioUserInfoMgr::GetSingleton, COMDAT

; 894  : 	return Singleton< ioUserInfoMgr >::GetSingleton();

  00000	a1 00 00 00 00	 mov	 eax, DWORD PTR ?ms_Singleton@?$Singleton@VioUserInfoMgr@@@@1PAVioUserInfoMgr@@A ; Singleton<ioUserInfoMgr>::ms_Singleton

; 895  : }

  00005	c3		 ret	 0
?GetSingleton@ioUserInfoMgr@@SAAAV1@XZ ENDP		; ioUserInfoMgr::GetSingleton
_TEXT	ENDS
PUBLIC	??8?$CEncrypt@H@@QAE_NABH@Z			; CEncrypt<int>::operator==
; Function compile flags: /Ogsp
; File d:\lost saga for developer\youtube\tutorial\source\src\lsclient\encryptvalue.h
;	COMDAT ??8?$CEncrypt@H@@QAE_NABH@Z
_TEXT	SEGMENT
_value$ = -4						; size = 4
_inValue$ = 8						; size = 4
??8?$CEncrypt@H@@QAE_NABH@Z PROC			; CEncrypt<int>::operator==, COMDAT
; _this$ = ecx

; 976  : 	{

  00000	55		 push	 ebp
  00001	8b ec		 mov	 ebp, esp
  00003	51		 push	 ecx

; 977  : 		
; 978  : 		type value;
; 979  : 		DecryptValueToPool(&value);

  00004	8d 45 fc	 lea	 eax, DWORD PTR _value$[ebp]
  00007	50		 push	 eax
  00008	e8 00 00 00 00	 call	 ?DecryptValueToPool@?$CEncrypt@H@@QAEXPAH@Z ; CEncrypt<int>::DecryptValueToPool

; 980  : #ifdef _NOTUSE
; 981  : 		Debug();
; 982  : #endif
; 983  : 		return (value == inValue);

  0000d	8b 4d 08	 mov	 ecx, DWORD PTR _inValue$[ebp]
  00010	8b 55 fc	 mov	 edx, DWORD PTR _value$[ebp]
  00013	33 c0		 xor	 eax, eax
  00015	3b 11		 cmp	 edx, DWORD PTR [ecx]
  00017	0f 94 c0	 sete	 al

; 984  : 	} 

  0001a	c9		 leave
  0001b	c2 04 00	 ret	 4
??8?$CEncrypt@H@@QAE_NABH@Z ENDP			; CEncrypt<int>::operator==
_TEXT	ENDS
PUBLIC	??D?$_Vector_iterator@V?$_Vector_val@UCharInfoData@@V?$allocator@UCharInfoData@@@std@@@std@@@std@@QBEAAUCharInfoData@@XZ ; std::_Vector_iterator<std::_Vector_val<CharInfoData,std::allocator<CharInfoData> > >::operator*
; Function compile flags: /Ogsp
; File c:\program files (x86)\microsoft visual studio 10.0\vc\include\vector
;	COMDAT ??D?$_Vector_iterator@V?$_Vector_val@UCharInfoData@@V?$allocator@UCharInfoData@@@std@@@std@@@std@@QBEAAUCharInfoData@@XZ
_TEXT	SEGMENT
??D?$_Vector_iterator@V?$_Vector_val@UCharInfoData@@V?$allocator@UCharInfoData@@@std@@@std@@@std@@QBEAAUCharInfoData@@XZ PROC ; std::_Vector_iterator<std::_Vector_val<CharInfoData,std::allocator<CharInfoData> > >::operator*, COMDAT
; _this$ = ecx

; 322  : 		return ((reference)**(_Mybase *)this);

  00000	8b 01		 mov	 eax, DWORD PTR [ecx]

; 323  : 		}

  00002	c3		 ret	 0
??D?$_Vector_iterator@V?$_Vector_val@UCharInfoData@@V?$allocator@UCharInfoData@@@std@@@std@@@std@@QBEAAUCharInfoData@@XZ ENDP ; std::_Vector_iterator<std::_Vector_val<CharInfoData,std::allocator<CharInfoData> > >::operator*
_TEXT	ENDS
PUBLIC	??E?$_Vector_iterator@V?$_Vector_val@UCharInfoData@@V?$allocator@UCharInfoData@@@std@@@std@@@std@@QAEAAV01@XZ ; std::_Vector_iterator<std::_Vector_val<CharInfoData,std::allocator<CharInfoData> > >::operator++
; Function compile flags: /Ogsp
;	COMDAT ??E?$_Vector_iterator@V?$_Vector_val@UCharInfoData@@V?$allocator@UCharInfoData@@@std@@@std@@@std@@QAEAAV01@XZ
_TEXT	SEGMENT
??E?$_Vector_iterator@V?$_Vector_val@UCharInfoData@@V?$allocator@UCharInfoData@@@std@@@std@@@std@@QAEAAV01@XZ PROC ; std::_Vector_iterator<std::_Vector_val<CharInfoData,std::allocator<CharInfoData> > >::operator++, COMDAT
; _this$ = ecx

; 331  : 		{	// preincrement

  00000	8b c1		 mov	 eax, ecx

; 332  : 		++*(_Mybase *)this;

  00002	81 00 c0 03 00
	00		 add	 DWORD PTR [eax], 960	; 000003c0H

; 333  : 		return (*this);
; 334  : 		}

  00008	c3		 ret	 0
??E?$_Vector_iterator@V?$_Vector_val@UCharInfoData@@V?$allocator@UCharInfoData@@@std@@@std@@@std@@QAEAAV01@XZ ENDP ; std::_Vector_iterator<std::_Vector_val<CharInfoData,std::allocator<CharInfoData> > >::operator++
_TEXT	ENDS
PUBLIC	??0?$_Vector_iterator@V?$_Vector_val@PAVUserInfoNode@@V?$allocator@PAVUserInfoNode@@@std@@@std@@@std@@QAE@XZ ; std::_Vector_iterator<std::_Vector_val<UserInfoNode *,std::allocator<UserInfoNode *> > >::_Vector_iterator<std::_Vector_val<UserInfoNode *,std::allocator<UserInfoNode *> > >
; Function compile flags: /Ogsp
;	COMDAT ??0?$_Vector_iterator@V?$_Vector_val@PAVUserInfoNode@@V?$allocator@PAVUserInfoNode@@@std@@@std@@@std@@QAE@XZ
_TEXT	SEGMENT
??0?$_Vector_iterator@V?$_Vector_val@PAVUserInfoNode@@V?$allocator@PAVUserInfoNode@@@std@@@std@@@std@@QAE@XZ PROC ; std::_Vector_iterator<std::_Vector_val<UserInfoNode *,std::allocator<UserInfoNode *> > >::_Vector_iterator<std::_Vector_val<UserInfoNode *,std::allocator<UserInfoNode *> > >, COMDAT
; _this$ = ecx

; 298  : 	_Vector_iterator()

  00000	8b c1		 mov	 eax, ecx
  00002	83 20 00	 and	 DWORD PTR [eax], 0

; 299  : 		{	// construct with null vector pointer
; 300  : 		}

  00005	c3		 ret	 0
??0?$_Vector_iterator@V?$_Vector_val@PAVUserInfoNode@@V?$allocator@PAVUserInfoNode@@@std@@@std@@@std@@QAE@XZ ENDP ; std::_Vector_iterator<std::_Vector_val<UserInfoNode *,std::allocator<UserInfoNode *> > >::_Vector_iterator<std::_Vector_val<UserInfoNode *,std::allocator<UserInfoNode *> > >
_TEXT	ENDS
PUBLIC	??D?$_Vector_iterator@V?$_Vector_val@PAVUserInfoNode@@V?$allocator@PAVUserInfoNode@@@std@@@std@@@std@@QBEAAPAVUserInfoNode@@XZ ; std::_Vector_iterator<std::_Vector_val<UserInfoNode *,std::allocator<UserInfoNode *> > >::operator*
; Function compile flags: /Ogsp
;	COMDAT ??D?$_Vector_iterator@V?$_Vector_val@PAVUserInfoNode@@V?$allocator@PAVUserInfoNode@@@std@@@std@@@std@@QBEAAPAVUserInfoNode@@XZ
_TEXT	SEGMENT
??D?$_Vector_iterator@V?$_Vector_val@PAVUserInfoNode@@V?$allocator@PAVUserInfoNode@@@std@@@std@@@std@@QBEAAPAVUserInfoNode@@XZ PROC ; std::_Vector_iterator<std::_Vector_val<UserInfoNode *,std::allocator<UserInfoNode *> > >::operator*, COMDAT
; _this$ = ecx

; 322  : 		return ((reference)**(_Mybase *)this);

  00000	8b 01		 mov	 eax, DWORD PTR [ecx]

; 323  : 		}

  00002	c3		 ret	 0
??D?$_Vector_iterator@V?$_Vector_val@PAVUserInfoNode@@V?$allocator@PAVUserInfoNode@@@std@@@std@@@std@@QBEAAPAVUserInfoNode@@XZ ENDP ; std::_Vector_iterator<std::_Vector_val<UserInfoNode *,std::allocator<UserInfoNode *> > >::operator*
_TEXT	ENDS
PUBLIC	??E?$_Vector_iterator@V?$_Vector_val@PAVUserInfoNode@@V?$allocator@PAVUserInfoNode@@@std@@@std@@@std@@QAEAAV01@XZ ; std::_Vector_iterator<std::_Vector_val<UserInfoNode *,std::allocator<UserInfoNode *> > >::operator++
; Function compile flags: /Ogsp
;	COMDAT ??E?$_Vector_iterator@V?$_Vector_val@PAVUserInfoNode@@V?$allocator@PAVUserInfoNode@@@std@@@std@@@std@@QAEAAV01@XZ
_TEXT	SEGMENT
??E?$_Vector_iterator@V?$_Vector_val@PAVUserInfoNode@@V?$allocator@PAVUserInfoNode@@@std@@@std@@@std@@QAEAAV01@XZ PROC ; std::_Vector_iterator<std::_Vector_val<UserInfoNode *,std::allocator<UserInfoNode *> > >::operator++, COMDAT
; _this$ = ecx

; 331  : 		{	// preincrement

  00000	8b c1		 mov	 eax, ecx

; 332  : 		++*(_Mybase *)this;

  00002	83 00 04	 add	 DWORD PTR [eax], 4

; 333  : 		return (*this);
; 334  : 		}

  00005	c3		 ret	 0
??E?$_Vector_iterator@V?$_Vector_val@PAVUserInfoNode@@V?$allocator@PAVUserInfoNode@@@std@@@std@@@std@@QAEAAV01@XZ ENDP ; std::_Vector_iterator<std::_Vector_val<UserInfoNode *,std::allocator<UserInfoNode *> > >::operator++
_TEXT	ENDS
PUBLIC	??0?$_Vector_val@UCharInfoData@@V?$allocator@UCharInfoData@@@std@@@std@@QAE@V?$allocator@UCharInfoData@@@1@@Z ; std::_Vector_val<CharInfoData,std::allocator<CharInfoData> >::_Vector_val<CharInfoData,std::allocator<CharInfoData> >
; Function compile flags: /Ogsp
;	COMDAT ??0?$_Vector_val@UCharInfoData@@V?$allocator@UCharInfoData@@@std@@@std@@QAE@V?$allocator@UCharInfoData@@@1@@Z
_TEXT	SEGMENT
__Al$ = 8						; size = 1
??0?$_Vector_val@UCharInfoData@@V?$allocator@UCharInfoData@@@std@@@std@@QAE@V?$allocator@UCharInfoData@@@1@@Z PROC ; std::_Vector_val<CharInfoData,std::allocator<CharInfoData> >::_Vector_val<CharInfoData,std::allocator<CharInfoData> >, COMDAT
; _this$ = ecx

; 426  : 		{	// construct allocator from _Al

  00000	8b c1		 mov	 eax, ecx

; 427  : 		_Myfirst = 0;

  00002	33 c9		 xor	 ecx, ecx
  00004	89 08		 mov	 DWORD PTR [eax], ecx

; 428  : 		_Mylast = 0;

  00006	89 48 04	 mov	 DWORD PTR [eax+4], ecx

; 429  : 		_Myend = 0;

  00009	89 48 08	 mov	 DWORD PTR [eax+8], ecx

; 430  : 		}

  0000c	c2 04 00	 ret	 4
??0?$_Vector_val@UCharInfoData@@V?$allocator@UCharInfoData@@@std@@@std@@QAE@V?$allocator@UCharInfoData@@@1@@Z ENDP ; std::_Vector_val<CharInfoData,std::allocator<CharInfoData> >::_Vector_val<CharInfoData,std::allocator<CharInfoData> >
_TEXT	ENDS
PUBLIC	??0?$_Vector_val@PAVUserInfoNode@@V?$allocator@PAVUserInfoNode@@@std@@@std@@QAE@V?$allocator@PAVUserInfoNode@@@1@@Z ; std::_Vector_val<UserInfoNode *,std::allocator<UserInfoNode *> >::_Vector_val<UserInfoNode *,std::allocator<UserInfoNode *> >
; Function compile flags: /Ogsp
;	COMDAT ??0?$_Vector_val@PAVUserInfoNode@@V?$allocator@PAVUserInfoNode@@@std@@@std@@QAE@V?$allocator@PAVUserInfoNode@@@1@@Z
_TEXT	SEGMENT
__Al$ = 8						; size = 1
??0?$_Vector_val@PAVUserInfoNode@@V?$allocator@PAVUserInfoNode@@@std@@@std@@QAE@V?$allocator@PAVUserInfoNode@@@1@@Z PROC ; std::_Vector_val<UserInfoNode *,std::allocator<UserInfoNode *> >::_Vector_val<UserInfoNode *,std::allocator<UserInfoNode *> >, COMDAT
; _this$ = ecx

; 426  : 		{	// construct allocator from _Al

  00000	8b c1		 mov	 eax, ecx

; 427  : 		_Myfirst = 0;

  00002	33 c9		 xor	 ecx, ecx
  00004	89 08		 mov	 DWORD PTR [eax], ecx

; 428  : 		_Mylast = 0;

  00006	89 48 04	 mov	 DWORD PTR [eax+4], ecx

; 429  : 		_Myend = 0;

  00009	89 48 08	 mov	 DWORD PTR [eax+8], ecx

; 430  : 		}

  0000c	c2 04 00	 ret	 4
??0?$_Vector_val@PAVUserInfoNode@@V?$allocator@PAVUserInfoNode@@@std@@@std@@QAE@V?$allocator@PAVUserInfoNode@@@1@@Z ENDP ; std::_Vector_val<UserInfoNode *,std::allocator<UserInfoNode *> >::_Vector_val<UserInfoNode *,std::allocator<UserInfoNode *> >
_TEXT	ENDS
PUBLIC	??0?$_Vector_iterator@V?$_Vector_val@UCharInfoData@@V?$allocator@UCharInfoData@@@std@@@std@@@std@@QAE@PAUCharInfoData@@PBU_Container_base0@1@@Z ; std::_Vector_iterator<std::_Vector_val<CharInfoData,std::allocator<CharInfoData> > >::_Vector_iterator<std::_Vector_val<CharInfoData,std::allocator<CharInfoData> > >
; Function compile flags: /Ogsp
;	COMDAT ??0?$_Vector_iterator@V?$_Vector_val@UCharInfoData@@V?$allocator@UCharInfoData@@@std@@@std@@@std@@QAE@PAUCharInfoData@@PBU_Container_base0@1@@Z
_TEXT	SEGMENT
__Parg$ = 8						; size = 4
__Pvector$ = 12						; size = 4
??0?$_Vector_iterator@V?$_Vector_val@UCharInfoData@@V?$allocator@UCharInfoData@@@std@@@std@@@std@@QAE@PAUCharInfoData@@PBU_Container_base0@1@@Z PROC ; std::_Vector_iterator<std::_Vector_val<CharInfoData,std::allocator<CharInfoData> > >::_Vector_iterator<std::_Vector_val<CharInfoData,std::allocator<CharInfoData> > >, COMDAT
; _this$ = ecx

; 304  : 		{	// construct with pointer _Parg

  00000	55		 push	 ebp
  00001	8b ec		 mov	 ebp, esp
  00003	8b c1		 mov	 eax, ecx
  00005	8b 4d 08	 mov	 ecx, DWORD PTR __Parg$[ebp]
  00008	89 08		 mov	 DWORD PTR [eax], ecx

; 305  : 		}

  0000a	5d		 pop	 ebp
  0000b	c2 08 00	 ret	 8
??0?$_Vector_iterator@V?$_Vector_val@UCharInfoData@@V?$allocator@UCharInfoData@@@std@@@std@@@std@@QAE@PAUCharInfoData@@PBU_Container_base0@1@@Z ENDP ; std::_Vector_iterator<std::_Vector_val<CharInfoData,std::allocator<CharInfoData> > >::_Vector_iterator<std::_Vector_val<CharInfoData,std::allocator<CharInfoData> > >
_TEXT	ENDS
PUBLIC	??8?$_Vector_const_iterator@V?$_Vector_val@UCharInfoData@@V?$allocator@UCharInfoData@@@std@@@std@@@std@@QBE_NABV01@@Z ; std::_Vector_const_iterator<std::_Vector_val<CharInfoData,std::allocator<CharInfoData> > >::operator==
; Function compile flags: /Ogsp
;	COMDAT ??8?$_Vector_const_iterator@V?$_Vector_val@UCharInfoData@@V?$allocator@UCharInfoData@@@std@@@std@@@std@@QBE_NABV01@@Z
_TEXT	SEGMENT
__Right$ = 8						; size = 4
??8?$_Vector_const_iterator@V?$_Vector_val@UCharInfoData@@V?$allocator@UCharInfoData@@@std@@@std@@@std@@QBE_NABV01@@Z PROC ; std::_Vector_const_iterator<std::_Vector_val<CharInfoData,std::allocator<CharInfoData> > >::operator==, COMDAT
; _this$ = ecx

; 201  : 		{	// test for iterator equality

  00000	55		 push	 ebp
  00001	8b ec		 mov	 ebp, esp

; 202  : 		_Compat(_Right);
; 203  : 		return (this->_Ptr == _Right._Ptr);

  00003	8b 01		 mov	 eax, DWORD PTR [ecx]
  00005	8b 4d 08	 mov	 ecx, DWORD PTR __Right$[ebp]
  00008	2b 01		 sub	 eax, DWORD PTR [ecx]
  0000a	f7 d8		 neg	 eax
  0000c	1b c0		 sbb	 eax, eax
  0000e	40		 inc	 eax

; 204  : 		}

  0000f	5d		 pop	 ebp
  00010	c2 04 00	 ret	 4
??8?$_Vector_const_iterator@V?$_Vector_val@UCharInfoData@@V?$allocator@UCharInfoData@@@std@@@std@@@std@@QBE_NABV01@@Z ENDP ; std::_Vector_const_iterator<std::_Vector_val<CharInfoData,std::allocator<CharInfoData> > >::operator==
_TEXT	ENDS
PUBLIC	??0?$_Vector_iterator@V?$_Vector_val@PAVUserInfoNode@@V?$allocator@PAVUserInfoNode@@@std@@@std@@@std@@QAE@PAPAVUserInfoNode@@PBU_Container_base0@1@@Z ; std::_Vector_iterator<std::_Vector_val<UserInfoNode *,std::allocator<UserInfoNode *> > >::_Vector_iterator<std::_Vector_val<UserInfoNode *,std::allocator<UserInfoNode *> > >
; Function compile flags: /Ogsp
;	COMDAT ??0?$_Vector_iterator@V?$_Vector_val@PAVUserInfoNode@@V?$allocator@PAVUserInfoNode@@@std@@@std@@@std@@QAE@PAPAVUserInfoNode@@PBU_Container_base0@1@@Z
_TEXT	SEGMENT
__Parg$ = 8						; size = 4
__Pvector$ = 12						; size = 4
??0?$_Vector_iterator@V?$_Vector_val@PAVUserInfoNode@@V?$allocator@PAVUserInfoNode@@@std@@@std@@@std@@QAE@PAPAVUserInfoNode@@PBU_Container_base0@1@@Z PROC ; std::_Vector_iterator<std::_Vector_val<UserInfoNode *,std::allocator<UserInfoNode *> > >::_Vector_iterator<std::_Vector_val<UserInfoNode *,std::allocator<UserInfoNode *> > >, COMDAT
; _this$ = ecx

; 304  : 		{	// construct with pointer _Parg

  00000	55		 push	 ebp
  00001	8b ec		 mov	 ebp, esp
  00003	8b c1		 mov	 eax, ecx
  00005	8b 4d 08	 mov	 ecx, DWORD PTR __Parg$[ebp]
  00008	89 08		 mov	 DWORD PTR [eax], ecx

; 305  : 		}

  0000a	5d		 pop	 ebp
  0000b	c2 08 00	 ret	 8
??0?$_Vector_iterator@V?$_Vector_val@PAVUserInfoNode@@V?$allocator@PAVUserInfoNode@@@std@@@std@@@std@@QAE@PAPAVUserInfoNode@@PBU_Container_base0@1@@Z ENDP ; std::_Vector_iterator<std::_Vector_val<UserInfoNode *,std::allocator<UserInfoNode *> > >::_Vector_iterator<std::_Vector_val<UserInfoNode *,std::allocator<UserInfoNode *> > >
_TEXT	ENDS
PUBLIC	??8?$_Vector_const_iterator@V?$_Vector_val@PAVUserInfoNode@@V?$allocator@PAVUserInfoNode@@@std@@@std@@@std@@QBE_NABV01@@Z ; std::_Vector_const_iterator<std::_Vector_val<UserInfoNode *,std::allocator<UserInfoNode *> > >::operator==
; Function compile flags: /Ogsp
;	COMDAT ??8?$_Vector_const_iterator@V?$_Vector_val@PAVUserInfoNode@@V?$allocator@PAVUserInfoNode@@@std@@@std@@@std@@QBE_NABV01@@Z
_TEXT	SEGMENT
__Right$ = 8						; size = 4
??8?$_Vector_const_iterator@V?$_Vector_val@PAVUserInfoNode@@V?$allocator@PAVUserInfoNode@@@std@@@std@@@std@@QBE_NABV01@@Z PROC ; std::_Vector_const_iterator<std::_Vector_val<UserInfoNode *,std::allocator<UserInfoNode *> > >::operator==, COMDAT
; _this$ = ecx

; 201  : 		{	// test for iterator equality

  00000	55		 push	 ebp
  00001	8b ec		 mov	 ebp, esp

; 202  : 		_Compat(_Right);
; 203  : 		return (this->_Ptr == _Right._Ptr);

  00003	8b 01		 mov	 eax, DWORD PTR [ecx]
  00005	8b 4d 08	 mov	 ecx, DWORD PTR __Right$[ebp]
  00008	2b 01		 sub	 eax, DWORD PTR [ecx]
  0000a	f7 d8		 neg	 eax
  0000c	1b c0		 sbb	 eax, eax
  0000e	40		 inc	 eax

; 204  : 		}

  0000f	5d		 pop	 ebp
  00010	c2 04 00	 ret	 4
??8?$_Vector_const_iterator@V?$_Vector_val@PAVUserInfoNode@@V?$allocator@PAVUserInfoNode@@@std@@@std@@@std@@QBE_NABV01@@Z ENDP ; std::_Vector_const_iterator<std::_Vector_val<UserInfoNode *,std::allocator<UserInfoNode *> > >::operator==
_TEXT	ENDS
PUBLIC	?max_size@?$vector@UCharInfoData@@V?$allocator@UCharInfoData@@@std@@@std@@QBEIXZ ; std::vector<CharInfoData,std::allocator<CharInfoData> >::max_size
; Function compile flags: /Ogsp
;	COMDAT ?max_size@?$vector@UCharInfoData@@V?$allocator@UCharInfoData@@@std@@@std@@QBEIXZ
_TEXT	SEGMENT
?max_size@?$vector@UCharInfoData@@V?$allocator@UCharInfoData@@@std@@@std@@QBEIXZ PROC ; std::vector<CharInfoData,std::allocator<CharInfoData> >::max_size, COMDAT
; _this$ = ecx

; 884  : 		return (this->_Alval.max_size());

  00000	b8 44 44 44 00	 mov	 eax, 4473924		; 00444444H

; 885  : 		}

  00005	c3		 ret	 0
?max_size@?$vector@UCharInfoData@@V?$allocator@UCharInfoData@@@std@@@std@@QBEIXZ ENDP ; std::vector<CharInfoData,std::allocator<CharInfoData> >::max_size
_TEXT	ENDS
PUBLIC	?_Grow_to@?$vector@UCharInfoData@@V?$allocator@UCharInfoData@@@std@@@std@@IBEII@Z ; std::vector<CharInfoData,std::allocator<CharInfoData> >::_Grow_to
; Function compile flags: /Ogsp
;	COMDAT ?_Grow_to@?$vector@UCharInfoData@@V?$allocator@UCharInfoData@@@std@@@std@@IBEII@Z
_TEXT	SEGMENT
__Count$ = 8						; size = 4
?_Grow_to@?$vector@UCharInfoData@@V?$allocator@UCharInfoData@@@std@@@std@@IBEII@Z PROC ; std::vector<CharInfoData,std::allocator<CharInfoData> >::_Grow_to, COMDAT
; _this$ = ecx

; 1274 : 		{	// grow by 50% or at least to _Count

  00000	55		 push	 ebp
  00001	8b ec		 mov	 ebp, esp

; 1275 : 		size_type _Capacity = capacity();

  00003	8b 41 08	 mov	 eax, DWORD PTR [ecx+8]
  00006	2b 01		 sub	 eax, DWORD PTR [ecx]
  00008	b9 c0 03 00 00	 mov	 ecx, 960		; 000003c0H
  0000d	99		 cdq
  0000e	f7 f9		 idiv	 ecx

; 1276 : 
; 1277 : 		_Capacity = max_size() - _Capacity / 2 < _Capacity
; 1278 : 			? 0 : _Capacity + _Capacity / 2;	// try to grow by 50%

  00010	ba 44 44 44 00	 mov	 edx, 4473924		; 00444444H
  00015	8b c8		 mov	 ecx, eax
  00017	d1 e9		 shr	 ecx, 1
  00019	2b d1		 sub	 edx, ecx
  0001b	3b d0		 cmp	 edx, eax
  0001d	73 04		 jae	 SHORT $LN4@Grow_to
  0001f	33 c0		 xor	 eax, eax
  00021	eb 02		 jmp	 SHORT $LN5@Grow_to
$LN4@Grow_to:
  00023	03 c1		 add	 eax, ecx
$LN5@Grow_to:

; 1279 : 		if (_Capacity < _Count)

  00025	3b 45 08	 cmp	 eax, DWORD PTR __Count$[ebp]

; 1280 : 			_Capacity = _Count;

  00028	0f 42 45 08	 cmovb	 eax, DWORD PTR __Count$[ebp]

; 1281 : 		return (_Capacity);
; 1282 : 		}

  0002c	5d		 pop	 ebp
  0002d	c2 04 00	 ret	 4
?_Grow_to@?$vector@UCharInfoData@@V?$allocator@UCharInfoData@@@std@@@std@@IBEII@Z ENDP ; std::vector<CharInfoData,std::allocator<CharInfoData> >::_Grow_to
_TEXT	ENDS
PUBLIC	?_Make_iter@?$vector@PAVUserInfoNode@@V?$allocator@PAVUserInfoNode@@@std@@@std@@QBE?AV?$_Vector_iterator@V?$_Vector_val@PAVUserInfoNode@@V?$allocator@PAVUserInfoNode@@@std@@@std@@@2@V?$_Vector_const_iterator@V?$_Vector_val@PAVUserInfoNode@@V?$allocator@PAVUserInfoNode@@@std@@@std@@@2@@Z ; std::vector<UserInfoNode *,std::allocator<UserInfoNode *> >::_Make_iter
; Function compile flags: /Ogsp
;	COMDAT ?_Make_iter@?$vector@PAVUserInfoNode@@V?$allocator@PAVUserInfoNode@@@std@@@std@@QBE?AV?$_Vector_iterator@V?$_Vector_val@PAVUserInfoNode@@V?$allocator@PAVUserInfoNode@@@std@@@std@@@2@V?$_Vector_const_iterator@V?$_Vector_val@PAVUserInfoNode@@V?$allocator@PAVUserInfoNode@@@std@@@std@@@2@@Z
_TEXT	SEGMENT
___$ReturnUdt$ = 8					; size = 4
__Where$ = 12						; size = 4
?_Make_iter@?$vector@PAVUserInfoNode@@V?$allocator@PAVUserInfoNode@@@std@@@std@@QBE?AV?$_Vector_iterator@V?$_Vector_val@PAVUserInfoNode@@V?$allocator@PAVUserInfoNode@@@std@@@std@@@2@V?$_Vector_const_iterator@V?$_Vector_val@PAVUserInfoNode@@V?$allocator@PAVUserInfoNode@@@std@@@std@@@2@@Z PROC ; std::vector<UserInfoNode *,std::allocator<UserInfoNode *> >::_Make_iter, COMDAT
; _this$ = ecx

; 801  : 		{	// make iterator from const_iterator

  00000	55		 push	 ebp
  00001	8b ec		 mov	 ebp, esp

; 802  : 		return (iterator(_Where._Ptr, this));

  00003	8b 45 08	 mov	 eax, DWORD PTR ___$ReturnUdt$[ebp]
  00006	8b 4d 0c	 mov	 ecx, DWORD PTR __Where$[ebp]
  00009	89 08		 mov	 DWORD PTR [eax], ecx

; 803  : 		}

  0000b	5d		 pop	 ebp
  0000c	c2 08 00	 ret	 8
?_Make_iter@?$vector@PAVUserInfoNode@@V?$allocator@PAVUserInfoNode@@@std@@@std@@QBE?AV?$_Vector_iterator@V?$_Vector_val@PAVUserInfoNode@@V?$allocator@PAVUserInfoNode@@@std@@@std@@@2@V?$_Vector_const_iterator@V?$_Vector_val@PAVUserInfoNode@@V?$allocator@PAVUserInfoNode@@@std@@@std@@@2@@Z ENDP ; std::vector<UserInfoNode *,std::allocator<UserInfoNode *> >::_Make_iter
_TEXT	ENDS
PUBLIC	?max_size@?$vector@PAVUserInfoNode@@V?$allocator@PAVUserInfoNode@@@std@@@std@@QBEIXZ ; std::vector<UserInfoNode *,std::allocator<UserInfoNode *> >::max_size
; Function compile flags: /Ogsp
;	COMDAT ?max_size@?$vector@PAVUserInfoNode@@V?$allocator@PAVUserInfoNode@@@std@@@std@@QBEIXZ
_TEXT	SEGMENT
?max_size@?$vector@PAVUserInfoNode@@V?$allocator@PAVUserInfoNode@@@std@@@std@@QBEIXZ PROC ; std::vector<UserInfoNode *,std::allocator<UserInfoNode *> >::max_size, COMDAT
; _this$ = ecx

; 884  : 		return (this->_Alval.max_size());

  00000	b8 ff ff ff 3f	 mov	 eax, 1073741823		; 3fffffffH

; 885  : 		}

  00005	c3		 ret	 0
?max_size@?$vector@PAVUserInfoNode@@V?$allocator@PAVUserInfoNode@@@std@@@std@@QBEIXZ ENDP ; std::vector<UserInfoNode *,std::allocator<UserInfoNode *> >::max_size
_TEXT	ENDS
PUBLIC	?_Grow_to@?$vector@PAVUserInfoNode@@V?$allocator@PAVUserInfoNode@@@std@@@std@@IBEII@Z ; std::vector<UserInfoNode *,std::allocator<UserInfoNode *> >::_Grow_to
; Function compile flags: /Ogsp
;	COMDAT ?_Grow_to@?$vector@PAVUserInfoNode@@V?$allocator@PAVUserInfoNode@@@std@@@std@@IBEII@Z
_TEXT	SEGMENT
__Count$ = 8						; size = 4
?_Grow_to@?$vector@PAVUserInfoNode@@V?$allocator@PAVUserInfoNode@@@std@@@std@@IBEII@Z PROC ; std::vector<UserInfoNode *,std::allocator<UserInfoNode *> >::_Grow_to, COMDAT
; _this$ = ecx

; 1274 : 		{	// grow by 50% or at least to _Count

  00000	55		 push	 ebp
  00001	8b ec		 mov	 ebp, esp

; 1275 : 		size_type _Capacity = capacity();

  00003	8b 41 08	 mov	 eax, DWORD PTR [ecx+8]
  00006	2b 01		 sub	 eax, DWORD PTR [ecx]

; 1276 : 
; 1277 : 		_Capacity = max_size() - _Capacity / 2 < _Capacity
; 1278 : 			? 0 : _Capacity + _Capacity / 2;	// try to grow by 50%

  00008	ba ff ff ff 3f	 mov	 edx, 1073741823		; 3fffffffH
  0000d	c1 f8 02	 sar	 eax, 2
  00010	8b c8		 mov	 ecx, eax
  00012	d1 e9		 shr	 ecx, 1
  00014	2b d1		 sub	 edx, ecx
  00016	3b d0		 cmp	 edx, eax
  00018	73 04		 jae	 SHORT $LN4@Grow_to@2
  0001a	33 c0		 xor	 eax, eax
  0001c	eb 02		 jmp	 SHORT $LN5@Grow_to@2
$LN4@Grow_to@2:
  0001e	03 c1		 add	 eax, ecx
$LN5@Grow_to@2:

; 1279 : 		if (_Capacity < _Count)

  00020	3b 45 08	 cmp	 eax, DWORD PTR __Count$[ebp]

; 1280 : 			_Capacity = _Count;

  00023	0f 42 45 08	 cmovb	 eax, DWORD PTR __Count$[ebp]

; 1281 : 		return (_Capacity);
; 1282 : 		}

  00027	5d		 pop	 ebp
  00028	c2 04 00	 ret	 4
?_Grow_to@?$vector@PAVUserInfoNode@@V?$allocator@PAVUserInfoNode@@@std@@@std@@IBEII@Z ENDP ; std::vector<UserInfoNode *,std::allocator<UserInfoNode *> >::_Grow_to
_TEXT	ENDS
PUBLIC	?allocate@?$allocator@UCharInfoData@@@std@@QAEPAUCharInfoData@@I@Z ; std::allocator<CharInfoData>::allocate
; Function compile flags: /Ogsp
; File c:\program files (x86)\microsoft visual studio 10.0\vc\include\xmemory
;	COMDAT ?allocate@?$allocator@UCharInfoData@@@std@@QAEPAUCharInfoData@@I@Z
_TEXT	SEGMENT
__Count$ = 8						; size = 4
?allocate@?$allocator@UCharInfoData@@@std@@QAEPAUCharInfoData@@I@Z PROC ; std::allocator<CharInfoData>::allocate, COMDAT
; _this$ = ecx

; 186  : 		{	// allocate array of _Count elements

  00000	55		 push	 ebp
  00001	8b ec		 mov	 ebp, esp

; 187  : 		return (_Allocate(_Count, (pointer)0));

  00003	6a 00		 push	 0
  00005	ff 75 08	 push	 DWORD PTR __Count$[ebp]
  00008	e8 00 00 00 00	 call	 ??$_Allocate@UCharInfoData@@@std@@YAPAUCharInfoData@@IPAU1@@Z ; std::_Allocate<CharInfoData>
  0000d	59		 pop	 ecx
  0000e	59		 pop	 ecx

; 188  : 		}

  0000f	5d		 pop	 ebp
  00010	c2 04 00	 ret	 4
?allocate@?$allocator@UCharInfoData@@@std@@QAEPAUCharInfoData@@I@Z ENDP ; std::allocator<CharInfoData>::allocate
_TEXT	ENDS
PUBLIC	?allocate@?$allocator@PAVUserInfoNode@@@std@@QAEPAPAVUserInfoNode@@I@Z ; std::allocator<UserInfoNode *>::allocate
; Function compile flags: /Ogsp
;	COMDAT ?allocate@?$allocator@PAVUserInfoNode@@@std@@QAEPAPAVUserInfoNode@@I@Z
_TEXT	SEGMENT
__Count$ = 8						; size = 4
?allocate@?$allocator@PAVUserInfoNode@@@std@@QAEPAPAVUserInfoNode@@I@Z PROC ; std::allocator<UserInfoNode *>::allocate, COMDAT
; _this$ = ecx

; 186  : 		{	// allocate array of _Count elements

  00000	55		 push	 ebp
  00001	8b ec		 mov	 ebp, esp

; 187  : 		return (_Allocate(_Count, (pointer)0));

  00003	6a 00		 push	 0
  00005	ff 75 08	 push	 DWORD PTR __Count$[ebp]
  00008	e8 00 00 00 00	 call	 ??$_Allocate@PAVUserInfoNode@@@std@@YAPAPAVUserInfoNode@@IPAPAV1@@Z ; std::_Allocate<UserInfoNode *>
  0000d	59		 pop	 ecx
  0000e	59		 pop	 ecx

; 188  : 		}

  0000f	5d		 pop	 ebp
  00010	c2 04 00	 ret	 4
?allocate@?$allocator@PAVUserInfoNode@@@std@@QAEPAPAVUserInfoNode@@I@Z ENDP ; std::allocator<UserInfoNode *>::allocate
_TEXT	ENDS
PUBLIC	??$_Copy_impl@PAHPAH@std@@YAPAHPAH00@Z		; std::_Copy_impl<int *,int *>
; Function compile flags: /Ogsp
; File c:\program files (x86)\microsoft visual studio 10.0\vc\include\xutility
;	COMDAT ??$_Copy_impl@PAHPAH@std@@YAPAHPAH00@Z
_TEXT	SEGMENT
__Cat$518571 = -4					; size = 1
__First$ = 8						; size = 4
__Last$ = 12						; size = 4
__Dest$ = 16						; size = 4
??$_Copy_impl@PAHPAH@std@@YAPAHPAH00@Z PROC		; std::_Copy_impl<int *,int *>, COMDAT

; 2163 : 	{	// copy [_First, _Last) to [_Dest, ...)

  00000	55		 push	 ebp
  00001	8b ec		 mov	 ebp, esp
  00003	51		 push	 ecx

; 2164 : 	return (_Copy_impl(_First, _Last,
; 2165 : 		_Dest, _Ptr_cat(_First, _Dest)));

  00004	ff 75 fc	 push	 DWORD PTR __Cat$518571[ebp]
  00007	ff 75 10	 push	 DWORD PTR __Dest$[ebp]
  0000a	ff 75 0c	 push	 DWORD PTR __Last$[ebp]
  0000d	ff 75 08	 push	 DWORD PTR __First$[ebp]
  00010	e8 00 00 00 00	 call	 ??$_Copy_impl@PAHPAH@std@@YAPAHPAH00U_Scalar_ptr_iterator_tag@0@@Z ; std::_Copy_impl<int *,int *>
  00015	83 c4 10	 add	 esp, 16			; 00000010H

; 2166 : 	}

  00018	c9		 leave
  00019	c3		 ret	 0
??$_Copy_impl@PAHPAH@std@@YAPAHPAH00@Z ENDP		; std::_Copy_impl<int *,int *>
_TEXT	ENDS
PUBLIC	??$_Cons_val@V?$allocator@PAVUserInfoNode@@@std@@PAVUserInfoNode@@AAPAV3@@std@@YAXAAV?$allocator@PAVUserInfoNode@@@0@PAPAVUserInfoNode@@AAPAV2@@Z ; std::_Cons_val<std::allocator<UserInfoNode *>,UserInfoNode *,UserInfoNode * &>
; Function compile flags: /Ogsp
; File c:\program files (x86)\microsoft visual studio 10.0\vc\include\xmemory
;	COMDAT ??$_Cons_val@V?$allocator@PAVUserInfoNode@@@std@@PAVUserInfoNode@@AAPAV3@@std@@YAXAAV?$allocator@PAVUserInfoNode@@@0@PAPAVUserInfoNode@@AAPAV2@@Z
_TEXT	SEGMENT
__Alval$ = 8						; size = 4
__Pdest$ = 12						; size = 4
__Src$ = 16						; size = 4
??$_Cons_val@V?$allocator@PAVUserInfoNode@@@std@@PAVUserInfoNode@@AAPAV3@@std@@YAXAAV?$allocator@PAVUserInfoNode@@@0@PAPAVUserInfoNode@@AAPAV2@@Z PROC ; std::_Cons_val<std::allocator<UserInfoNode *>,UserInfoNode *,UserInfoNode * &>, COMDAT

; 279  : 	{	// construct using allocator

  00000	55		 push	 ebp
  00001	8b ec		 mov	 ebp, esp

; 280  : 	_Alval.construct(_Pdest, _STD forward<_Ty2>(_Src));

  00003	8b 45 0c	 mov	 eax, DWORD PTR __Pdest$[ebp]
  00006	85 c0		 test	 eax, eax
  00008	74 07		 je	 SHORT $LN7@Cons_val
  0000a	8b 4d 10	 mov	 ecx, DWORD PTR __Src$[ebp]
  0000d	8b 09		 mov	 ecx, DWORD PTR [ecx]
  0000f	89 08		 mov	 DWORD PTR [eax], ecx
$LN7@Cons_val:

; 281  : 	}

  00011	5d		 pop	 ebp
  00012	c3		 ret	 0
??$_Cons_val@V?$allocator@PAVUserInfoNode@@@std@@PAVUserInfoNode@@AAPAV3@@std@@YAXAAV?$allocator@PAVUserInfoNode@@@0@PAPAVUserInfoNode@@AAPAV2@@Z ENDP ; std::_Cons_val<std::allocator<UserInfoNode *>,UserInfoNode *,UserInfoNode * &>
_TEXT	ENDS
PUBLIC	??$_Move@PAPAVUserInfoNode@@PAPAV1@@std@@YAPAPAVUserInfoNode@@PAPAV1@00@Z ; std::_Move<UserInfoNode * *,UserInfoNode * *>
; Function compile flags: /Ogsp
; File c:\program files (x86)\microsoft visual studio 10.0\vc\include\xutility
;	COMDAT ??$_Move@PAPAVUserInfoNode@@PAPAV1@@std@@YAPAPAVUserInfoNode@@PAPAV1@00@Z
_TEXT	SEGMENT
__Cat$518604 = -4					; size = 1
__First$ = 8						; size = 4
__Last$ = 12						; size = 4
__Dest$ = 16						; size = 4
??$_Move@PAPAVUserInfoNode@@PAPAV1@@std@@YAPAPAVUserInfoNode@@PAPAV1@00@Z PROC ; std::_Move<UserInfoNode * *,UserInfoNode * *>, COMDAT

; 2533 : 	{	// move [_First, _Last) to [_Dest, ...), unchecked

  00000	55		 push	 ebp
  00001	8b ec		 mov	 ebp, esp
  00003	51		 push	 ecx

; 2534 : 	return (_Move(_First, _Last,
; 2535 : 		_Dest, _Ptr_cat(_First, _Dest)));

  00004	ff 75 fc	 push	 DWORD PTR __Cat$518604[ebp]
  00007	ff 75 10	 push	 DWORD PTR __Dest$[ebp]
  0000a	ff 75 0c	 push	 DWORD PTR __Last$[ebp]
  0000d	ff 75 08	 push	 DWORD PTR __First$[ebp]
  00010	e8 00 00 00 00	 call	 ??$_Move@PAPAVUserInfoNode@@PAPAV1@@std@@YAPAPAVUserInfoNode@@PAPAV1@00U_Scalar_ptr_iterator_tag@0@@Z ; std::_Move<UserInfoNode * *,UserInfoNode * *>
  00015	83 c4 10	 add	 esp, 16			; 00000010H

; 2536 : 	}

  00018	c9		 leave
  00019	c3		 ret	 0
??$_Move@PAPAVUserInfoNode@@PAPAV1@@std@@YAPAPAVUserInfoNode@@PAPAV1@00@Z ENDP ; std::_Move<UserInfoNode * *,UserInfoNode * *>
_TEXT	ENDS
PUBLIC	??$_Destroy_range@V?$allocator@PAVUserInfoNode@@@std@@@std@@YAXPAPAVUserInfoNode@@0AAV?$allocator@PAVUserInfoNode@@@0@@Z ; std::_Destroy_range<std::allocator<UserInfoNode *> >
; Function compile flags: /Ogsp
; File c:\program files (x86)\microsoft visual studio 10.0\vc\include\xmemory
;	COMDAT ??$_Destroy_range@V?$allocator@PAVUserInfoNode@@@std@@@std@@YAXPAPAVUserInfoNode@@0AAV?$allocator@PAVUserInfoNode@@@0@@Z
_TEXT	SEGMENT
__First$ = 8						; size = 4
__Last$ = 12						; size = 4
__Al$ = 16						; size = 4
??$_Destroy_range@V?$allocator@PAVUserInfoNode@@@std@@@std@@YAXPAPAVUserInfoNode@@0AAV?$allocator@PAVUserInfoNode@@@0@@Z PROC ; std::_Destroy_range<std::allocator<UserInfoNode *> >, COMDAT

; 88   : 	_Destroy_range(_First, _Last, _Al, _Ptr_cat(_First, _Last));
; 89   : 	}

  00000	c3		 ret	 0
??$_Destroy_range@V?$allocator@PAVUserInfoNode@@@std@@@std@@YAXPAPAVUserInfoNode@@0AAV?$allocator@PAVUserInfoNode@@@0@@Z ENDP ; std::_Destroy_range<std::allocator<UserInfoNode *> >
_TEXT	ENDS
PUBLIC	?construct@?$allocator@H@std@@QAEXPAHABH@Z	; std::allocator<int>::construct
; Function compile flags: /Ogsp
;	COMDAT ?construct@?$allocator@H@std@@QAEXPAHABH@Z
_TEXT	SEGMENT
__Ptr$ = 8						; size = 4
__Val$ = 12						; size = 4
?construct@?$allocator@H@std@@QAEXPAHABH@Z PROC		; std::allocator<int>::construct, COMDAT
; _this$ = ecx

; 196  : 		{	// construct object at _Ptr with value _Val

  00000	55		 push	 ebp
  00001	8b ec		 mov	 ebp, esp

; 197  : 		_Construct(_Ptr, _Val);

  00003	8b 45 08	 mov	 eax, DWORD PTR __Ptr$[ebp]
  00006	85 c0		 test	 eax, eax
  00008	74 07		 je	 SHORT $LN5@construct@2
  0000a	8b 4d 0c	 mov	 ecx, DWORD PTR __Val$[ebp]
  0000d	8b 09		 mov	 ecx, DWORD PTR [ecx]
  0000f	89 08		 mov	 DWORD PTR [eax], ecx
$LN5@construct@2:

; 198  : 		}

  00011	5d		 pop	 ebp
  00012	c2 08 00	 ret	 8
?construct@?$allocator@H@std@@QAEXPAHABH@Z ENDP		; std::allocator<int>::construct
_TEXT	ENDS
PUBLIC	?construct@?$allocator@PAVUserInfoNode@@@std@@QAEXPAPAVUserInfoNode@@ABQAV3@@Z ; std::allocator<UserInfoNode *>::construct
; Function compile flags: /Ogsp
;	COMDAT ?construct@?$allocator@PAVUserInfoNode@@@std@@QAEXPAPAVUserInfoNode@@ABQAV3@@Z
_TEXT	SEGMENT
__Ptr$ = 8						; size = 4
__Val$ = 12						; size = 4
?construct@?$allocator@PAVUserInfoNode@@@std@@QAEXPAPAVUserInfoNode@@ABQAV3@@Z PROC ; std::allocator<UserInfoNode *>::construct, COMDAT
; _this$ = ecx

; 196  : 		{	// construct object at _Ptr with value _Val

  00000	55		 push	 ebp
  00001	8b ec		 mov	 ebp, esp

; 197  : 		_Construct(_Ptr, _Val);

  00003	8b 45 08	 mov	 eax, DWORD PTR __Ptr$[ebp]
  00006	85 c0		 test	 eax, eax
  00008	74 07		 je	 SHORT $LN5@construct@3
  0000a	8b 4d 0c	 mov	 ecx, DWORD PTR __Val$[ebp]
  0000d	8b 09		 mov	 ecx, DWORD PTR [ecx]
  0000f	89 08		 mov	 DWORD PTR [eax], ecx
$LN5@construct@3:

; 198  : 		}

  00011	5d		 pop	 ebp
  00012	c2 08 00	 ret	 8
?construct@?$allocator@PAVUserInfoNode@@@std@@QAEXPAPAVUserInfoNode@@ABQAV3@@Z ENDP ; std::allocator<UserInfoNode *>::construct
_TEXT	ENDS
PUBLIC	??G?$_Vector_iterator@V?$_Vector_val@UCharInfoData@@V?$allocator@UCharInfoData@@@std@@@std@@@std@@QBEHABV?$_Vector_const_iterator@V?$_Vector_val@UCharInfoData@@V?$allocator@UCharInfoData@@@std@@@std@@@1@@Z ; std::_Vector_iterator<std::_Vector_val<CharInfoData,std::allocator<CharInfoData> > >::operator-
; Function compile flags: /Ogsp
; File c:\program files (x86)\microsoft visual studio 10.0\vc\include\vector
;	COMDAT ??G?$_Vector_iterator@V?$_Vector_val@UCharInfoData@@V?$allocator@UCharInfoData@@@std@@@std@@@std@@QBEHABV?$_Vector_const_iterator@V?$_Vector_val@UCharInfoData@@V?$allocator@UCharInfoData@@@std@@@std@@@1@@Z
_TEXT	SEGMENT
__Right$ = 8						; size = 4
??G?$_Vector_iterator@V?$_Vector_val@UCharInfoData@@V?$allocator@UCharInfoData@@@std@@@std@@@std@@QBEHABV?$_Vector_const_iterator@V?$_Vector_val@UCharInfoData@@V?$allocator@UCharInfoData@@@std@@@std@@@1@@Z PROC ; std::_Vector_iterator<std::_Vector_val<CharInfoData,std::allocator<CharInfoData> > >::operator-, COMDAT
; _this$ = ecx

; 380  : 		{	// return difference of iterators

  00000	55		 push	 ebp
  00001	8b ec		 mov	 ebp, esp

; 381  : 		return (*(_Mybase *)this - _Right);

  00003	8b 01		 mov	 eax, DWORD PTR [ecx]
  00005	8b 4d 08	 mov	 ecx, DWORD PTR __Right$[ebp]
  00008	2b 01		 sub	 eax, DWORD PTR [ecx]
  0000a	b9 c0 03 00 00	 mov	 ecx, 960		; 000003c0H
  0000f	99		 cdq
  00010	f7 f9		 idiv	 ecx

; 382  : 		}

  00012	5d		 pop	 ebp
  00013	c2 04 00	 ret	 4
??G?$_Vector_iterator@V?$_Vector_val@UCharInfoData@@V?$allocator@UCharInfoData@@@std@@@std@@@std@@QBEHABV?$_Vector_const_iterator@V?$_Vector_val@UCharInfoData@@V?$allocator@UCharInfoData@@@std@@@std@@@1@@Z ENDP ; std::_Vector_iterator<std::_Vector_val<CharInfoData,std::allocator<CharInfoData> > >::operator-
_TEXT	ENDS
PUBLIC	??$_Unchecked@V?$_Vector_val@UCharInfoData@@V?$allocator@UCharInfoData@@@std@@@std@@@std@@YAPAUCharInfoData@@V?$_Vector_iterator@V?$_Vector_val@UCharInfoData@@V?$allocator@UCharInfoData@@@std@@@std@@@0@@Z ; std::_Unchecked<std::_Vector_val<CharInfoData,std::allocator<CharInfoData> > >
; Function compile flags: /Ogsp
;	COMDAT ??$_Unchecked@V?$_Vector_val@UCharInfoData@@V?$allocator@UCharInfoData@@@std@@@std@@@std@@YAPAUCharInfoData@@V?$_Vector_iterator@V?$_Vector_val@UCharInfoData@@V?$allocator@UCharInfoData@@@std@@@std@@@0@@Z
_TEXT	SEGMENT
__Iter$ = 8						; size = 4
??$_Unchecked@V?$_Vector_val@UCharInfoData@@V?$allocator@UCharInfoData@@@std@@@std@@@std@@YAPAUCharInfoData@@V?$_Vector_iterator@V?$_Vector_val@UCharInfoData@@V?$allocator@UCharInfoData@@@std@@@std@@@0@@Z PROC ; std::_Unchecked<std::_Vector_val<CharInfoData,std::allocator<CharInfoData> > >, COMDAT

; 393  : 	{	// convert to unchecked

  00000	55		 push	 ebp
  00001	8b ec		 mov	 ebp, esp

; 394  : 	return (_Iter._Unchecked());

  00003	8b 45 08	 mov	 eax, DWORD PTR __Iter$[ebp]

; 395  : 	}

  00006	5d		 pop	 ebp
  00007	c3		 ret	 0
??$_Unchecked@V?$_Vector_val@UCharInfoData@@V?$allocator@UCharInfoData@@@std@@@std@@@std@@YAPAUCharInfoData@@V?$_Vector_iterator@V?$_Vector_val@UCharInfoData@@V?$allocator@UCharInfoData@@@std@@@std@@@0@@Z ENDP ; std::_Unchecked<std::_Vector_val<CharInfoData,std::allocator<CharInfoData> > >
_TEXT	ENDS
PUBLIC	??$_Uninitialized_copy@PAHPAHV?$allocator@H@std@@@std@@YAPAHPAH00AAV?$allocator@H@0@@Z ; std::_Uninitialized_copy<int *,int *,std::allocator<int> >
; Function compile flags: /Ogsp
; File c:\program files (x86)\microsoft visual studio 10.0\vc\include\memory
;	COMDAT ??$_Uninitialized_copy@PAHPAHV?$allocator@H@std@@@std@@YAPAHPAH00AAV?$allocator@H@0@@Z
_TEXT	SEGMENT
__Cat$518685 = -4					; size = 1
__First$ = 8						; size = 4
__Last$ = 12						; size = 4
__Dest$ = 16						; size = 4
__Al$ = 20						; size = 4
??$_Uninitialized_copy@PAHPAHV?$allocator@H@std@@@std@@YAPAHPAH00AAV?$allocator@H@0@@Z PROC ; std::_Uninitialized_copy<int *,int *,std::allocator<int> >, COMDAT

; 412  : 	{	// copy [_First, _Last) to raw _Dest, using _Al

  00000	55		 push	 ebp
  00001	8b ec		 mov	 ebp, esp
  00003	51		 push	 ecx

; 413  : 	return (_Uninit_copy(_First, _Last, _Dest, _Al,
; 414  : 		_Ptr_cat(_First, _Dest)));

  00004	ff 75 fc	 push	 DWORD PTR __Cat$518685[ebp]
  00007	ff 75 14	 push	 DWORD PTR __Al$[ebp]
  0000a	ff 75 10	 push	 DWORD PTR __Dest$[ebp]
  0000d	ff 75 0c	 push	 DWORD PTR __Last$[ebp]
  00010	ff 75 08	 push	 DWORD PTR __First$[ebp]
  00013	e8 00 00 00 00	 call	 ??$_Uninit_copy@HH@std@@YAPAHPAH00AAV?$allocator@H@0@U_Scalar_ptr_iterator_tag@0@@Z ; std::_Uninit_copy<int,int>
  00018	83 c4 14	 add	 esp, 20			; 00000014H

; 415  : 	}

  0001b	c9		 leave
  0001c	c3		 ret	 0
??$_Uninitialized_copy@PAHPAHV?$allocator@H@std@@@std@@YAPAHPAH00AAV?$allocator@H@0@@Z ENDP ; std::_Uninitialized_copy<int *,int *,std::allocator<int> >
_TEXT	ENDS
PUBLIC	??$construct@AAH@?$allocator@H@std@@QAEXPAHAAH@Z ; std::allocator<int>::construct<int &>
; Function compile flags: /Ogsp
; File c:\program files (x86)\microsoft visual studio 10.0\vc\include\xmemory
;	COMDAT ??$construct@AAH@?$allocator@H@std@@QAEXPAHAAH@Z
_TEXT	SEGMENT
__Ptr$ = 8						; size = 4
__Val$ = 12						; size = 4
??$construct@AAH@?$allocator@H@std@@QAEXPAHAAH@Z PROC	; std::allocator<int>::construct<int &>, COMDAT
; _this$ = ecx

; 206  : 		void construct(pointer _Ptr, _Other&& _Val)

  00000	55		 push	 ebp
  00001	8b ec		 mov	 ebp, esp

; 207  : 		{	// construct object at _Ptr with value _Val
; 208  : 		::new ((void _FARQ *)_Ptr) _Ty(_STD forward<_Other>(_Val));

  00003	8b 45 08	 mov	 eax, DWORD PTR __Ptr$[ebp]
  00006	85 c0		 test	 eax, eax
  00008	74 07		 je	 SHORT $LN3@construct@4
  0000a	8b 4d 0c	 mov	 ecx, DWORD PTR __Val$[ebp]
  0000d	8b 09		 mov	 ecx, DWORD PTR [ecx]
  0000f	89 08		 mov	 DWORD PTR [eax], ecx
$LN3@construct@4:

; 209  : 		}

  00011	5d		 pop	 ebp
  00012	c2 08 00	 ret	 8
??$construct@AAH@?$allocator@H@std@@QAEXPAHAAH@Z ENDP	; std::allocator<int>::construct<int &>
_TEXT	ENDS
PUBLIC	??$_Uninitialized_move@PAPAVUserInfoNode@@PAPAV1@V?$allocator@PAVUserInfoNode@@@std@@@std@@YAPAPAVUserInfoNode@@PAPAV1@00AAV?$allocator@PAVUserInfoNode@@@0@@Z ; std::_Uninitialized_move<UserInfoNode * *,UserInfoNode * *,std::allocator<UserInfoNode *> >
; Function compile flags: /Ogsp
; File c:\program files (x86)\microsoft visual studio 10.0\vc\include\memory
;	COMDAT ??$_Uninitialized_move@PAPAVUserInfoNode@@PAPAV1@V?$allocator@PAVUserInfoNode@@@std@@@std@@YAPAPAVUserInfoNode@@PAPAV1@00AAV?$allocator@PAVUserInfoNode@@@0@@Z
_TEXT	SEGMENT
__First$ = 8						; size = 4
__Last$ = 12						; size = 4
__Dest$ = 16						; size = 4
__Al$ = 20						; size = 4
??$_Uninitialized_move@PAPAVUserInfoNode@@PAPAV1@V?$allocator@PAVUserInfoNode@@@std@@@std@@YAPAPAVUserInfoNode@@PAPAV1@00AAV?$allocator@PAVUserInfoNode@@@0@@Z PROC ; std::_Uninitialized_move<UserInfoNode * *,UserInfoNode * *,std::allocator<UserInfoNode *> >, COMDAT

; 469  : 	{	// move [_First, _Last) to raw _Dest, using _Al

  00000	55		 push	 ebp
  00001	8b ec		 mov	 ebp, esp
  00003	56		 push	 esi

; 470  : 	return (_Uninit_move(_First, _Last, _Dest, _Al,
; 471  : 		_Val_type(_First), _Ptr_cat(_First, _Dest)));

  00004	8b 75 0c	 mov	 esi, DWORD PTR __Last$[ebp]
  00007	2b 75 08	 sub	 esi, DWORD PTR __First$[ebp]
  0000a	c1 fe 02	 sar	 esi, 2
  0000d	c1 e6 02	 shl	 esi, 2
  00010	56		 push	 esi
  00011	ff 75 08	 push	 DWORD PTR __First$[ebp]
  00014	ff 75 10	 push	 DWORD PTR __Dest$[ebp]
  00017	ff 15 00 00 00
	00		 call	 DWORD PTR __imp__memmove
  0001d	83 c4 0c	 add	 esp, 12			; 0000000cH
  00020	03 c6		 add	 eax, esi
  00022	5e		 pop	 esi

; 472  : 	}

  00023	5d		 pop	 ebp
  00024	c3		 ret	 0
??$_Uninitialized_move@PAPAVUserInfoNode@@PAPAV1@V?$allocator@PAVUserInfoNode@@@std@@@std@@YAPAPAVUserInfoNode@@PAPAV1@00AAV?$allocator@PAVUserInfoNode@@@0@@Z ENDP ; std::_Uninitialized_move<UserInfoNode * *,UserInfoNode * *,std::allocator<UserInfoNode *> >
_TEXT	ENDS
PUBLIC	??$?0AAPAUCharInfoData@@AAPAU0@@?$pair@PAUCharInfoData@@PAU1@@std@@QAE@AAPAUCharInfoData@@0@Z ; std::pair<CharInfoData *,CharInfoData *>::pair<CharInfoData *,CharInfoData *><CharInfoData * &,CharInfoData * &>
; Function compile flags: /Ogsp
; File c:\program files (x86)\microsoft visual studio 10.0\vc\include\utility
;	COMDAT ??$?0AAPAUCharInfoData@@AAPAU0@@?$pair@PAUCharInfoData@@PAU1@@std@@QAE@AAPAUCharInfoData@@0@Z
_TEXT	SEGMENT
__Val1$ = 8						; size = 4
__Val2$ = 12						; size = 4
??$?0AAPAUCharInfoData@@AAPAU0@@?$pair@PAUCharInfoData@@PAU1@@std@@QAE@AAPAUCharInfoData@@0@Z PROC ; std::pair<CharInfoData *,CharInfoData *>::pair<CharInfoData *,CharInfoData *><CharInfoData * &,CharInfoData * &>, COMDAT
; _this$ = ecx

; 247  : 		{	// construct from moved values

  00000	55		 push	 ebp
  00001	8b ec		 mov	 ebp, esp
  00003	8b c1		 mov	 eax, ecx
  00005	8b 4d 08	 mov	 ecx, DWORD PTR __Val1$[ebp]
  00008	8b 09		 mov	 ecx, DWORD PTR [ecx]
  0000a	89 08		 mov	 DWORD PTR [eax], ecx
  0000c	8b 4d 0c	 mov	 ecx, DWORD PTR __Val2$[ebp]
  0000f	8b 09		 mov	 ecx, DWORD PTR [ecx]
  00011	89 48 04	 mov	 DWORD PTR [eax+4], ecx

; 248  : 		}

  00014	5d		 pop	 ebp
  00015	c2 08 00	 ret	 8
??$?0AAPAUCharInfoData@@AAPAU0@@?$pair@PAUCharInfoData@@PAU1@@std@@QAE@AAPAUCharInfoData@@0@Z ENDP ; std::pair<CharInfoData *,CharInfoData *>::pair<CharInfoData *,CharInfoData *><CharInfoData * &,CharInfoData * &>
_TEXT	ENDS
PUBLIC	?destroy@?$allocator@H@std@@QAEXPAH@Z		; std::allocator<int>::destroy
; Function compile flags: /Ogsp
; File c:\program files (x86)\microsoft visual studio 10.0\vc\include\xmemory
;	COMDAT ?destroy@?$allocator@H@std@@QAEXPAH@Z
_TEXT	SEGMENT
__Ptr$ = 8						; size = 4
?destroy@?$allocator@H@std@@QAEXPAH@Z PROC		; std::allocator<int>::destroy, COMDAT
; _this$ = ecx

; 213  : 		_Destroy(_Ptr);
; 214  : 		}

  00000	c2 04 00	 ret	 4
?destroy@?$allocator@H@std@@QAEXPAH@Z ENDP		; std::allocator<int>::destroy
_TEXT	ENDS
PUBLIC	??0ITEM_DATA@@QAE@XZ				; ITEM_DATA::ITEM_DATA
; Function compile flags: /Ogsp
; File d:\lost saga for developer\youtube\tutorial\source\src\lsclient\characterinfo.h
;	COMDAT ??0ITEM_DATA@@QAE@XZ
_TEXT	SEGMENT
??0ITEM_DATA@@QAE@XZ PROC				; ITEM_DATA::ITEM_DATA, COMDAT
; _this$ = ecx

; 228  : 	ITEM_DATA()

  00000	8b c1		 mov	 eax, ecx

; 229  : 	{
; 230  : 		Initialize();

  00002	83 48 08 ff	 or	 DWORD PTR [eax+8], -1
  00006	33 c9		 xor	 ecx, ecx
  00008	89 08		 mov	 DWORD PTR [eax], ecx
  0000a	89 48 04	 mov	 DWORD PTR [eax+4], ecx
  0000d	89 48 10	 mov	 DWORD PTR [eax+16], ecx
  00010	89 48 0c	 mov	 DWORD PTR [eax+12], ecx

; 231  : 	}

  00013	c3		 ret	 0
??0ITEM_DATA@@QAE@XZ ENDP				; ITEM_DATA::ITEM_DATA
_TEXT	ENDS
PUBLIC	??1CHARACTER@@QAE@XZ				; CHARACTER::~CHARACTER
EXTRN	??_M@YGXPAXIHP6EX0@Z@Z:PROC			; `eh vector destructor iterator'
EXTRN	__EH_epilog3:PROC
EXTRN	__EH_prolog3:PROC
;	COMDAT xdata$x
xdata$x	SEGMENT
__ehfuncinfo$??1CHARACTER@@QAE@XZ DD 019930522H
	DD	0aH
	DD	FLAT:__unwindtable$??1CHARACTER@@QAE@XZ
	DD	2 DUP(00H)
	DD	2 DUP(00H)
	DD	00H
	DD	01H
__unwindtable$??1CHARACTER@@QAE@XZ DD 0ffffffffH
	DD	FLAT:__unwindfunclet$??1CHARACTER@@QAE@XZ$0
	DD	00H
	DD	FLAT:__unwindfunclet$??1CHARACTER@@QAE@XZ$1
	DD	01H
	DD	FLAT:__unwindfunclet$??1CHARACTER@@QAE@XZ$2
	DD	02H
	DD	FLAT:__unwindfunclet$??1CHARACTER@@QAE@XZ$3
	DD	03H
	DD	FLAT:__unwindfunclet$??1CHARACTER@@QAE@XZ$4
	DD	04H
	DD	FLAT:__unwindfunclet$??1CHARACTER@@QAE@XZ$5
	DD	05H
	DD	FLAT:__unwindfunclet$??1CHARACTER@@QAE@XZ$6
	DD	06H
	DD	FLAT:__unwindfunclet$??1CHARACTER@@QAE@XZ$7
	DD	07H
	DD	FLAT:__unwindfunclet$??1CHARACTER@@QAE@XZ$8
	DD	08H
	DD	FLAT:__unwindfunclet$??1CHARACTER@@QAE@XZ$9
; Function compile flags: /Ogsp
xdata$x	ENDS
;	COMDAT ??1CHARACTER@@QAE@XZ
_TEXT	SEGMENT
_this$ = -16						; size = 4
__$EHRec$ = -12						; size = 12
??1CHARACTER@@QAE@XZ PROC				; CHARACTER::~CHARACTER, COMDAT
; _this$ = ecx
  00000	6a 04		 push	 4
  00002	b8 00 00 00 00	 mov	 eax, __ehhandler$??1CHARACTER@@QAE@XZ
  00007	e8 00 00 00 00	 call	 __EH_prolog3
  0000c	8b f1		 mov	 esi, ecx
  0000e	89 75 f0	 mov	 DWORD PTR _this$[ebp], esi
  00011	68 00 00 00 00	 push	 OFFSET ??1?$CEncrypt@H@@UAE@XZ ; CEncrypt<int>::~CEncrypt<int>
  00016	6a 04		 push	 4
  00018	6a 30		 push	 48			; 00000030H
  0001a	8d 86 e0 01 00
	00		 lea	 eax, DWORD PTR [esi+480]
  00020	50		 push	 eax
  00021	c7 45 fc 09 00
	00 00		 mov	 DWORD PTR __$EHRec$[ebp+8], 9
  00028	e8 00 00 00 00	 call	 ??_M@YGXPAXIHP6EX0@Z@Z
  0002d	bf 00 00 00 00	 mov	 edi, OFFSET ??_7?$CEncrypt@H@@6B@
  00032	8d 8e bc 01 00
	00		 lea	 ecx, DWORD PTR [esi+444]
  00038	c6 45 fc 08	 mov	 BYTE PTR __$EHRec$[ebp+8], 8
  0003c	89 be b0 01 00
	00		 mov	 DWORD PTR [esi+432], edi
  00042	e8 00 00 00 00	 call	 ??1ccddaabb@@UAE@XZ	; ccddaabb::~ccddaabb
  00047	8d 8e 8c 01 00
	00		 lea	 ecx, DWORD PTR [esi+396]
  0004d	c6 45 fc 07	 mov	 BYTE PTR __$EHRec$[ebp+8], 7
