; Listing generated by Microsoft (R) Optimizing Compiler Version 16.00.30319.01 

	TITLE	D:\Lost Saga For Developer\Youtube\Tutorial\Source\src\LSClient\Housing\ioUserBlockStorage.cpp
	.686P
	.XMM
	include listing.inc
	.model	flat

INCLUDELIB MSVCRT
INCLUDELIB OLDNAMES

PUBLIC	??0TilePos@@QAE@HHH@Z				; TilePos::TilePos
; Function compile flags: /Ogsp
; File d:\lost saga for developer\youtube\tutorial\source\src\lsclient\housing\blockdefine.h
;	COMDAT ??0TilePos@@QAE@HHH@Z
_TEXT	SEGMENT
_nX$ = 8						; size = 4
_nY$ = 12						; size = 4
_nZ$ = 16						; size = 4
??0TilePos@@QAE@HHH@Z PROC				; TilePos::TilePos, COMDAT
; _this$ = ecx

; 96   : 	TilePos( int nX, int nY, int nZ )

  00000	55		 push	 ebp
  00001	8b ec		 mov	 ebp, esp
  00003	8b c1		 mov	 eax, ecx

; 97   : 	{
; 98   : 		x		= nX;

  00005	8b 4d 08	 mov	 ecx, DWORD PTR _nX$[ebp]

; 99   : 		y		= nY;
; 100  : 		z		= nZ;
; 101  : 		event	= 0;

  00008	83 60 0c 00	 and	 DWORD PTR [eax+12], 0
  0000c	89 08		 mov	 DWORD PTR [eax], ecx
  0000e	8b 4d 0c	 mov	 ecx, DWORD PTR _nY$[ebp]
  00011	89 48 08	 mov	 DWORD PTR [eax+8], ecx
  00014	8b 4d 10	 mov	 ecx, DWORD PTR _nZ$[ebp]
  00017	89 48 04	 mov	 DWORD PTR [eax+4], ecx

; 102  : 	}

  0001a	5d		 pop	 ebp
  0001b	c2 0c 00	 ret	 12			; 0000000cH
??0TilePos@@QAE@HHH@Z ENDP				; TilePos::TilePos
_TEXT	ENDS
PUBLIC	??0InvenBlockItem@ioUserBlockStorage@@QAE@XZ	; ioUserBlockStorage::InvenBlockItem::InvenBlockItem
EXTRN	__imp_??1ioHashString@@QAE@XZ:PROC
EXTRN	__imp_??0ioHashString@@QAE@XZ:PROC
EXTRN	___CxxFrameHandler3:PROC
EXTRN	@__security_check_cookie@4:PROC
EXTRN	__EH_epilog3:PROC
EXTRN	__EH_prolog3:PROC
;	COMDAT xdata$x
; File d:\lost saga for developer\youtube\tutorial\source\src\lsclient\housing\iouserblockstorage.h
xdata$x	SEGMENT
__unwindtable$??0InvenBlockItem@ioUserBlockStorage@@QAE@XZ DD 0ffffffffH
	DD	FLAT:__unwindfunclet$??0InvenBlockItem@ioUserBlockStorage@@QAE@XZ$0
__ehfuncinfo$??0InvenBlockItem@ioUserBlockStorage@@QAE@XZ DD 019930522H
	DD	01H
	DD	FLAT:__unwindtable$??0InvenBlockItem@ioUserBlockStorage@@QAE@XZ
	DD	2 DUP(00H)
	DD	2 DUP(00H)
	DD	00H
	DD	01H
; Function compile flags: /Ogsp
xdata$x	ENDS
;	COMDAT ??0InvenBlockItem@ioUserBlockStorage@@QAE@XZ
_TEXT	SEGMENT
_this$ = -16						; size = 4
__$EHRec$ = -12						; size = 12
??0InvenBlockItem@ioUserBlockStorage@@QAE@XZ PROC	; ioUserBlockStorage::InvenBlockItem::InvenBlockItem, COMDAT
; _this$ = ecx

; 29   : 		InvenBlockItem()

  00000	6a 04		 push	 4
  00002	b8 00 00 00 00	 mov	 eax, __ehhandler$??0InvenBlockItem@ioUserBlockStorage@@QAE@XZ
  00007	e8 00 00 00 00	 call	 __EH_prolog3
  0000c	8b f1		 mov	 esi, ecx
  0000e	89 75 f0	 mov	 DWORD PTR _this$[ebp], esi
  00011	8b 3d 00 00 00
	00		 mov	 edi, DWORD PTR __imp_??0ioHashString@@QAE@XZ
  00017	ff d7		 call	 edi
  00019	33 db		 xor	 ebx, ebx
  0001b	8d 4e 10	 lea	 ecx, DWORD PTR [esi+16]
  0001e	89 5d fc	 mov	 DWORD PTR __$EHRec$[ebp+8], ebx
  00021	ff d7		 call	 edi

; 30   : 		{
; 31   : 			m_nBlockCode	= 0;

  00023	89 5e 20	 mov	 DWORD PTR [esi+32], ebx

; 32   : 			m_nEtcCode		= 0;			

  00026	89 5e 28	 mov	 DWORD PTR [esi+40], ebx

; 33   : 			m_nManualIdx	= 0;

  00029	89 5e 2c	 mov	 DWORD PTR [esi+44], ebx

; 34   : 			m_nCount		= 0;

  0002c	89 5e 30	 mov	 DWORD PTR [esi+48], ebx

; 35   : 			m_nItemCategory	= 0;

  0002f	89 5e 34	 mov	 DWORD PTR [esi+52], ebx

; 36   : 		}

  00032	8b c6		 mov	 eax, esi
  00034	e8 00 00 00 00	 call	 __EH_epilog3
  00039	c3		 ret	 0
_TEXT	ENDS
;	COMDAT text$x
text$x	SEGMENT
__unwindfunclet$??0InvenBlockItem@ioUserBlockStorage@@QAE@XZ$0:
  00000	8b 4d f0	 mov	 ecx, DWORD PTR _this$[ebp]
  00003	ff 25 00 00 00
	00		 jmp	 DWORD PTR __imp_??1ioHashString@@QAE@XZ
__ehhandler$??0InvenBlockItem@ioUserBlockStorage@@QAE@XZ:
  00009	8b 54 24 08	 mov	 edx, DWORD PTR [esp+8]
  0000d	8d 42 0c	 lea	 eax, DWORD PTR [edx+12]
  00010	8b 4a ec	 mov	 ecx, DWORD PTR [edx-20]
  00013	33 c8		 xor	 ecx, eax
  00015	e8 00 00 00 00	 call	 @__security_check_cookie@4
  0001a	b8 00 00 00 00	 mov	 eax, OFFSET __ehfuncinfo$??0InvenBlockItem@ioUserBlockStorage@@QAE@XZ
  0001f	e9 00 00 00 00	 jmp	 ___CxxFrameHandler3
text$x	ENDS
??0InvenBlockItem@ioUserBlockStorage@@QAE@XZ ENDP	; ioUserBlockStorage::InvenBlockItem::InvenBlockItem
PUBLIC	??RInvenBlockItemSort@ioUserBlockStorage@@QBE_NABUInvenBlockItem@1@0@Z ; ioUserBlockStorage::InvenBlockItemSort::operator()
; Function compile flags: /Ogsp
;	COMDAT ??RInvenBlockItemSort@ioUserBlockStorage@@QBE_NABUInvenBlockItem@1@0@Z
_TEXT	SEGMENT
_lhs$ = 8						; size = 4
_rhs$ = 12						; size = 4
??RInvenBlockItemSort@ioUserBlockStorage@@QBE_NABUInvenBlockItem@1@0@Z PROC ; ioUserBlockStorage::InvenBlockItemSort::operator(), COMDAT
; _this$ = ecx

; 44   : 		{

  00000	55		 push	 ebp
  00001	8b ec		 mov	 ebp, esp

; 45   : 			if( lhs.m_nOrder < rhs.m_nOrder )

  00003	8b 45 08	 mov	 eax, DWORD PTR _lhs$[ebp]
  00006	8b 40 24	 mov	 eax, DWORD PTR [eax+36]
  00009	8b 4d 0c	 mov	 ecx, DWORD PTR _rhs$[ebp]
  0000c	3b 41 24	 cmp	 eax, DWORD PTR [ecx+36]
  0000f	0f 9c c0	 setl	 al

; 46   : 				return true;
; 47   : 
; 48   : 			return false;
; 49   : 		}

  00012	5d		 pop	 ebp
  00013	c2 08 00	 ret	 8
??RInvenBlockItemSort@ioUserBlockStorage@@QBE_NABUInvenBlockItem@1@0@Z ENDP ; ioUserBlockStorage::InvenBlockItemSort::operator()
_TEXT	ENDS
PUBLIC	?GetOrder@ioBlockProperty@@QBEHXZ		; ioBlockProperty::GetOrder
; Function compile flags: /Ogsp
; File d:\lost saga for developer\youtube\tutorial\source\src\lsclient\housing\ioblockproperty.h
;	COMDAT ?GetOrder@ioBlockProperty@@QBEHXZ
_TEXT	SEGMENT
?GetOrder@ioBlockProperty@@QBEHXZ PROC			; ioBlockProperty::GetOrder, COMDAT
; _this$ = ecx

; 134  : 	int GetOrder() const { return m_nOrder; }

  00000	8b 41 08	 mov	 eax, DWORD PTR [ecx+8]
  00003	c3		 ret	 0
?GetOrder@ioBlockProperty@@QBEHXZ ENDP			; ioBlockProperty::GetOrder
_TEXT	ENDS
PUBLIC	?GetItemCategory@ioBlockProperty@@QBE?AW4ItemCategory@1@XZ ; ioBlockProperty::GetItemCategory
; Function compile flags: /Ogsp
;	COMDAT ?GetItemCategory@ioBlockProperty@@QBE?AW4ItemCategory@1@XZ
_TEXT	SEGMENT
?GetItemCategory@ioBlockProperty@@QBE?AW4ItemCategory@1@XZ PROC ; ioBlockProperty::GetItemCategory, COMDAT
; _this$ = ecx

; 137  : 	ioBlockProperty::ItemCategory GetItemCategory() const { return m_eItemCategory; }

  00000	8b 41 10	 mov	 eax, DWORD PTR [ecx+16]
  00003	c3		 ret	 0
?GetItemCategory@ioBlockProperty@@QBE?AW4ItemCategory@1@XZ ENDP ; ioBlockProperty::GetItemCategory
_TEXT	ENDS
PUBLIC	?GetName@ioBlockProperty@@QBEABVioHashString@@XZ ; ioBlockProperty::GetName
; Function compile flags: /Ogsp
;	COMDAT ?GetName@ioBlockProperty@@QBEABVioHashString@@XZ
_TEXT	SEGMENT
?GetName@ioBlockProperty@@QBEABVioHashString@@XZ PROC	; ioBlockProperty::GetName, COMDAT
; _this$ = ecx

; 142  : 	const ioHashString& GetName() const { return m_Name; }

  00000	8d 41 24	 lea	 eax, DWORD PTR [ecx+36]
  00003	c3		 ret	 0
?GetName@ioBlockProperty@@QBEABVioHashString@@XZ ENDP	; ioBlockProperty::GetName
_TEXT	ENDS
PUBLIC	?GetIconName@ioBlockProperty@@QBEABVioHashString@@XZ ; ioBlockProperty::GetIconName
; Function compile flags: /Ogsp
;	COMDAT ?GetIconName@ioBlockProperty@@QBEABVioHashString@@XZ
_TEXT	SEGMENT
?GetIconName@ioBlockProperty@@QBEABVioHashString@@XZ PROC ; ioBlockProperty::GetIconName, COMDAT
; _this$ = ecx

; 144  : 	const ioHashString& GetIconName() const { return m_IconName; }

  00000	8d 41 44	 lea	 eax, DWORD PTR [ecx+68]
  00003	c3		 ret	 0
?GetIconName@ioBlockProperty@@QBEABVioHashString@@XZ ENDP ; ioBlockProperty::GetIconName
_TEXT	ENDS
PUBLIC	?GetBlockDBItemContainer@ioUserBlockStorage@@QAEPAUioBlockDBItemContainer@@XZ ; ioUserBlockStorage::GetBlockDBItemContainer
; Function compile flags: /Ogsp
; File d:\lost saga for developer\youtube\tutorial\source\src\lsclient\housing\iouserblockstorage.cpp
;	COMDAT ?GetBlockDBItemContainer@ioUserBlockStorage@@QAEPAUioBlockDBItemContainer@@XZ
_TEXT	SEGMENT
?GetBlockDBItemContainer@ioUserBlockStorage@@QAEPAUioBlockDBItemContainer@@XZ PROC ; ioUserBlockStorage::GetBlockDBItemContainer, COMDAT
; _this$ = ecx

; 26   : 	return &m_ioBlockDBItemContainer;

  00000	8d 41 04	 lea	 eax, DWORD PTR [ecx+4]

; 27   : }

  00003	c3		 ret	 0
?GetBlockDBItemContainer@ioUserBlockStorage@@QAEPAUioBlockDBItemContainer@@XZ ENDP ; ioUserBlockStorage::GetBlockDBItemContainer
_TEXT	ENDS
PUBLIC	?SendBlockInvenSync@ioUserBlockStorage@@UAEX_N@Z ; ioUserBlockStorage::SendBlockInvenSync
; Function compile flags: /Ogsp
;	COMDAT ?SendBlockInvenSync@ioUserBlockStorage@@UAEX_N@Z
_TEXT	SEGMENT
_bMust$ = 8						; size = 1
?SendBlockInvenSync@ioUserBlockStorage@@UAEX_N@Z PROC	; ioUserBlockStorage::SendBlockInvenSync, COMDAT
; _this$ = ecx

; 31   : }

  00000	c2 04 00	 ret	 4
?SendBlockInvenSync@ioUserBlockStorage@@UAEX_N@Z ENDP	; ioUserBlockStorage::SendBlockInvenSync
_TEXT	ENDS
PUBLIC	?InitInvenBlockItem@ioUserBlockStorage@@UAEXXZ	; ioUserBlockStorage::InitInvenBlockItem
; Function compile flags: /Ogsp
;	COMDAT ?InitInvenBlockItem@ioUserBlockStorage@@UAEXXZ
_TEXT	SEGMENT
?InitInvenBlockItem@ioUserBlockStorage@@UAEXXZ PROC	; ioUserBlockStorage::InitInvenBlockItem, COMDAT
; _this$ = ecx

; 35   : }

  00000	c3		 ret	 0
?InitInvenBlockItem@ioUserBlockStorage@@UAEXXZ ENDP	; ioUserBlockStorage::InitInvenBlockItem
_TEXT	ENDS
PUBLIC	?GetCurrInvenIndex@ioUserBlockStorage@@QAEHXZ	; ioUserBlockStorage::GetCurrInvenIndex
; Function compile flags: /Ogsp
;	COMDAT ?GetCurrInvenIndex@ioUserBlockStorage@@QAEHXZ
_TEXT	SEGMENT
?GetCurrInvenIndex@ioUserBlockStorage@@QAEHXZ PROC	; ioUserBlockStorage::GetCurrInvenIndex, COMDAT
; _this$ = ecx

; 181  : 	return m_CurrInvenItemIndex;

  00000	8b 41 24	 mov	 eax, DWORD PTR [ecx+36]

; 182  : }

  00003	c3		 ret	 0
?GetCurrInvenIndex@ioUserBlockStorage@@QAEHXZ ENDP	; ioUserBlockStorage::GetCurrInvenIndex
_TEXT	ENDS
PUBLIC	?ProcessTCPPacket@ioUserBlockStorage@@UAE_NAAVSP2Packet@@@Z ; ioUserBlockStorage::ProcessTCPPacket
; Function compile flags: /Ogsp
;	COMDAT ?ProcessTCPPacket@ioUserBlockStorage@@UAE_NAAVSP2Packet@@@Z
_TEXT	SEGMENT
_rkPacket$ = 8						; size = 4
?ProcessTCPPacket@ioUserBlockStorage@@UAE_NAAVSP2Packet@@@Z PROC ; ioUserBlockStorage::ProcessTCPPacket, COMDAT
; _this$ = ecx

; 191  : 	return false;

  00000	32 c0		 xor	 al, al

; 192  : }

  00002	c2 04 00	 ret	 4
?ProcessTCPPacket@ioUserBlockStorage@@UAE_NAAVSP2Packet@@@Z ENDP ; ioUserBlockStorage::ProcessTCPPacket
_TEXT	ENDS
PUBLIC	?ProcessUDPPacket@ioUserBlockStorage@@UAE_NAAVSP2Packet@@@Z ; ioUserBlockStorage::ProcessUDPPacket
; Function compile flags: /Ogsp
;	COMDAT ?ProcessUDPPacket@ioUserBlockStorage@@UAE_NAAVSP2Packet@@@Z
_TEXT	SEGMENT
_rkPacket$ = 8						; size = 4
?ProcessUDPPacket@ioUserBlockStorage@@UAE_NAAVSP2Packet@@@Z PROC ; ioUserBlockStorage::ProcessUDPPacket, COMDAT
; _this$ = ecx

; 196  : 	return false;

  00000	32 c0		 xor	 al, al

; 197  : }

  00002	c2 04 00	 ret	 4
?ProcessUDPPacket@ioUserBlockStorage@@UAE_NAAVSP2Packet@@@Z ENDP ; ioUserBlockStorage::ProcessUDPPacket
_TEXT	ENDS
PUBLIC	??1InvenBlockItem@ioUserBlockStorage@@QAE@XZ	; ioUserBlockStorage::InvenBlockItem::~InvenBlockItem
;	COMDAT xdata$x
xdata$x	SEGMENT
__unwindtable$??1InvenBlockItem@ioUserBlockStorage@@QAE@XZ DD 0ffffffffH
	DD	FLAT:__unwindfunclet$??1InvenBlockItem@ioUserBlockStorage@@QAE@XZ$0
__ehfuncinfo$??1InvenBlockItem@ioUserBlockStorage@@QAE@XZ DD 019930522H
	DD	01H
	DD	FLAT:__unwindtable$??1InvenBlockItem@ioUserBlockStorage@@QAE@XZ
	DD	2 DUP(00H)
	DD	2 DUP(00H)
	DD	00H
	DD	01H
; Function compile flags: /Ogsp
xdata$x	ENDS
;	COMDAT ??1InvenBlockItem@ioUserBlockStorage@@QAE@XZ
_TEXT	SEGMENT
_this$ = -16						; size = 4
__$EHRec$ = -12						; size = 12
??1InvenBlockItem@ioUserBlockStorage@@QAE@XZ PROC	; ioUserBlockStorage::InvenBlockItem::~InvenBlockItem, COMDAT
; _this$ = ecx
  00000	6a 04		 push	 4
  00002	b8 00 00 00 00	 mov	 eax, __ehhandler$??1InvenBlockItem@ioUserBlockStorage@@QAE@XZ
  00007	e8 00 00 00 00	 call	 __EH_prolog3
  0000c	8b f9		 mov	 edi, ecx
  0000e	89 7d f0	 mov	 DWORD PTR _this$[ebp], edi
  00011	8b 35 00 00 00
	00		 mov	 esi, DWORD PTR __imp_??1ioHashString@@QAE@XZ
  00017	83 65 fc 00	 and	 DWORD PTR __$EHRec$[ebp+8], 0
  0001b	8d 4f 10	 lea	 ecx, DWORD PTR [edi+16]
  0001e	ff d6		 call	 esi
  00020	83 4d fc ff	 or	 DWORD PTR __$EHRec$[ebp+8], -1
  00024	8b cf		 mov	 ecx, edi
  00026	ff d6		 call	 esi
  00028	e8 00 00 00 00	 call	 __EH_epilog3
  0002d	c3		 ret	 0
_TEXT	ENDS
;	COMDAT text$x
text$x	SEGMENT
__unwindfunclet$??1InvenBlockItem@ioUserBlockStorage@@QAE@XZ$0:
  00000	8b 4d f0	 mov	 ecx, DWORD PTR _this$[ebp]
  00003	ff 25 00 00 00
	00		 jmp	 DWORD PTR __imp_??1ioHashString@@QAE@XZ
__ehhandler$??1InvenBlockItem@ioUserBlockStorage@@QAE@XZ:
  00009	8b 54 24 08	 mov	 edx, DWORD PTR [esp+8]
  0000d	8d 42 0c	 lea	 eax, DWORD PTR [edx+12]
  00010	8b 4a ec	 mov	 ecx, DWORD PTR [edx-20]
  00013	33 c8		 xor	 ecx, eax
  00015	e8 00 00 00 00	 call	 @__security_check_cookie@4
  0001a	b8 00 00 00 00	 mov	 eax, OFFSET __ehfuncinfo$??1InvenBlockItem@ioUserBlockStorage@@QAE@XZ
  0001f	e9 00 00 00 00	 jmp	 ___CxxFrameHandler3
text$x	ENDS
??1InvenBlockItem@ioUserBlockStorage@@QAE@XZ ENDP	; ioUserBlockStorage::InvenBlockItem::~InvenBlockItem
PUBLIC	__$ArrayPad$
PUBLIC	?SendBlockInvenSync@ioGuildBlockStorage@@MAEX_N@Z ; ioGuildBlockStorage::SendBlockInvenSync
EXTRN	??1SP2Packet@@UAE@XZ:PROC			; SP2Packet::~SP2Packet
EXTRN	?SendToServer@TCPNetwork@@YAXAAVSP2Packet@@@Z:PROC ; TCPNetwork::SendToServer
EXTRN	??0SP2Packet@@QAE@K@Z:PROC			; SP2Packet::SP2Packet
EXTRN	?MouseBusy@TCPNetwork@@YAX_N@Z:PROC		; TCPNetwork::MouseBusy
EXTRN	__imp_?GetLoopSec@ioFrameTimer@@QBEKXZ:PROC
EXTRN	__imp_?GetSingleton@ioFrameTimer@@SAAAV1@XZ:PROC
EXTRN	___security_cookie:DWORD
EXTRN	__chkstk:PROC
;	COMDAT xdata$x
xdata$x	SEGMENT
__unwindtable$?SendBlockInvenSync@ioGuildBlockStorage@@MAEX_N@Z DD 0ffffffffH
	DD	FLAT:__unwindfunclet$?SendBlockInvenSync@ioGuildBlockStorage@@MAEX_N@Z$0
__ehfuncinfo$?SendBlockInvenSync@ioGuildBlockStorage@@MAEX_N@Z DD 019930522H
	DD	01H
	DD	FLAT:__unwindtable$?SendBlockInvenSync@ioGuildBlockStorage@@MAEX_N@Z
	DD	2 DUP(00H)
	DD	2 DUP(00H)
	DD	00H
	DD	01H
; Function compile flags: /Ogsp
xdata$x	ENDS
;	COMDAT ?SendBlockInvenSync@ioGuildBlockStorage@@MAEX_N@Z
_TEXT	SEGMENT
_kPacket$508988 = -32808				; size = 32792
__$ArrayPad$ = -16					; size = 4
__$EHRec$ = -12						; size = 12
_bMust$ = 8						; size = 1
?SendBlockInvenSync@ioGuildBlockStorage@@MAEX_N@Z PROC	; ioGuildBlockStorage::SendBlockInvenSync, COMDAT
; _this$ = ecx

; 239  : {

  00000	55		 push	 ebp
  00001	8b ec		 mov	 ebp, esp
  00003	6a ff		 push	 -1
  00005	68 00 00 00 00	 push	 __ehhandler$?SendBlockInvenSync@ioGuildBlockStorage@@MAEX_N@Z
  0000a	64 a1 00 00 00
	00		 mov	 eax, DWORD PTR fs:0
  00010	50		 push	 eax
  00011	b8 1c 80 00 00	 mov	 eax, 32796		; 0000801cH
  00016	e8 00 00 00 00	 call	 __chkstk
  0001b	a1 00 00 00 00	 mov	 eax, DWORD PTR ___security_cookie
  00020	33 c5		 xor	 eax, ebp
  00022	89 45 f0	 mov	 DWORD PTR __$ArrayPad$[ebp], eax
  00025	56		 push	 esi
  00026	50		 push	 eax
  00027	8d 45 f4	 lea	 eax, DWORD PTR __$EHRec$[ebp]
  0002a	64 a3 00 00 00
	00		 mov	 DWORD PTR fs:0, eax
  00030	8b f1		 mov	 esi, ecx

; 240  : 	DWORD dwCurTime = FRAMEGETTIME();

  00032	ff 15 00 00 00
	00		 call	 DWORD PTR __imp_?GetSingleton@ioFrameTimer@@SAAAV1@XZ
  00038	8b c8		 mov	 ecx, eax
  0003a	ff 15 00 00 00
	00		 call	 DWORD PTR __imp_?GetLoopSec@ioFrameTimer@@QBEKXZ

; 241  : 	if( bMust || dwCurTime - m_dwBlockInvenSyncTime > SYNC_TIME )

  00040	80 7d 08 00	 cmp	 BYTE PTR _bMust$[ebp], 0
  00044	75 0d		 jne	 SHORT $LN1@SendBlockI
  00046	8b c8		 mov	 ecx, eax
  00048	2b 4e 28	 sub	 ecx, DWORD PTR [esi+40]
  0004b	81 f9 10 27 00
	00		 cmp	 ecx, 10000		; 00002710H
  00051	76 3c		 jbe	 SHORT $LN2@SendBlockI
$LN1@SendBlockI:

; 242  : 	{
; 243  : 		m_dwBlockInvenSyncTime = dwCurTime;
; 244  : 		TCPNetwork::MouseBusy( true );

  00053	6a 01		 push	 1
  00055	89 46 28	 mov	 DWORD PTR [esi+40], eax
  00058	e8 00 00 00 00	 call	 ?MouseBusy@TCPNetwork@@YAX_N@Z ; TCPNetwork::MouseBusy

; 245  : 		SP2Packet kPacket( CTPK_REQUEST_GUILD_INVEN );

  0005d	8d 8d d8 7f ff
	ff		 lea	 ecx, DWORD PTR _kPacket$508988[ebp]
  00063	c7 04 24 55 03
	00 00		 mov	 DWORD PTR [esp], 853	; 00000355H
  0006a	e8 00 00 00 00	 call	 ??0SP2Packet@@QAE@K@Z	; SP2Packet::SP2Packet
  0006f	83 65 fc 00	 and	 DWORD PTR __$EHRec$[ebp+8], 0

; 246  : 		TCPNetwork::SendToServer( kPacket );

  00073	8d 85 d8 7f ff
	ff		 lea	 eax, DWORD PTR _kPacket$508988[ebp]
  00079	50		 push	 eax
  0007a	e8 00 00 00 00	 call	 ?SendToServer@TCPNetwork@@YAXAAVSP2Packet@@@Z ; TCPNetwork::SendToServer

; 247  : 	}

  0007f	83 4d fc ff	 or	 DWORD PTR __$EHRec$[ebp+8], -1
  00083	59		 pop	 ecx
  00084	8d 8d d8 7f ff
	ff		 lea	 ecx, DWORD PTR _kPacket$508988[ebp]
  0008a	e8 00 00 00 00	 call	 ??1SP2Packet@@UAE@XZ	; SP2Packet::~SP2Packet
$LN2@SendBlockI:

; 248  : }

  0008f	8b 4d f4	 mov	 ecx, DWORD PTR __$EHRec$[ebp]
  00092	64 89 0d 00 00
	00 00		 mov	 DWORD PTR fs:0, ecx
  00099	59		 pop	 ecx
  0009a	5e		 pop	 esi
  0009b	8b 4d f0	 mov	 ecx, DWORD PTR __$ArrayPad$[ebp]
  0009e	33 cd		 xor	 ecx, ebp
  000a0	e8 00 00 00 00	 call	 @__security_check_cookie@4
  000a5	c9		 leave
  000a6	c2 04 00	 ret	 4
_TEXT	ENDS
;	COMDAT text$x
text$x	SEGMENT
__unwindfunclet$?SendBlockInvenSync@ioGuildBlockStorage@@MAEX_N@Z$0:
  00000	8d 8d d8 7f ff
	ff		 lea	 ecx, DWORD PTR _kPacket$508988[ebp]
  00006	e9 00 00 00 00	 jmp	 ??1SP2Packet@@UAE@XZ	; SP2Packet::~SP2Packet
__ehhandler$?SendBlockInvenSync@ioGuildBlockStorage@@MAEX_N@Z:
  0000b	8b 54 24 08	 mov	 edx, DWORD PTR [esp+8]
  0000f	8d 42 0c	 lea	 eax, DWORD PTR [edx+12]
  00012	8b 8a dc 7f ff
	ff		 mov	 ecx, DWORD PTR [edx-32804]
  00018	33 c8		 xor	 ecx, eax
  0001a	e8 00 00 00 00	 call	 @__security_check_cookie@4
  0001f	8b 4a fc	 mov	 ecx, DWORD PTR [edx-4]
  00022	33 c8		 xor	 ecx, eax
  00024	e8 00 00 00 00	 call	 @__security_check_cookie@4
  00029	b8 00 00 00 00	 mov	 eax, OFFSET __ehfuncinfo$?SendBlockInvenSync@ioGuildBlockStorage@@MAEX_N@Z
  0002e	e9 00 00 00 00	 jmp	 ___CxxFrameHandler3
text$x	ENDS
?SendBlockInvenSync@ioGuildBlockStorage@@MAEX_N@Z ENDP	; ioGuildBlockStorage::SendBlockInvenSync
PUBLIC	??_7bad_alloc@std@@6B@				; std::bad_alloc::`vftable'
PUBLIC	??0bad_alloc@std@@QAE@PBD@Z			; std::bad_alloc::bad_alloc
PUBLIC	??_R4bad_alloc@std@@6B@				; std::bad_alloc::`RTTI Complete Object Locator'
PUBLIC	??_R0?AVbad_alloc@std@@@8			; std::bad_alloc `RTTI Type Descriptor'
PUBLIC	??_R3bad_alloc@std@@8				; std::bad_alloc::`RTTI Class Hierarchy Descriptor'
PUBLIC	??_R2bad_alloc@std@@8				; std::bad_alloc::`RTTI Base Class Array'
PUBLIC	??_R1A@?0A@EA@bad_alloc@std@@8			; std::bad_alloc::`RTTI Base Class Descriptor at (0,-1,0,64)'
PUBLIC	??_R1A@?0A@EA@exception@std@@8			; std::exception::`RTTI Base Class Descriptor at (0,-1,0,64)'
PUBLIC	??_R0?AVexception@std@@@8			; std::exception `RTTI Type Descriptor'
PUBLIC	??_R3exception@std@@8				; std::exception::`RTTI Class Hierarchy Descriptor'
PUBLIC	??_R2exception@std@@8				; std::exception::`RTTI Base Class Array'
EXTRN	__imp_??0exception@std@@QAE@ABQBD@Z:PROC
EXTRN	??_7type_info@@6B@:QWORD			; type_info::`vftable'
EXTRN	??_Ebad_alloc@std@@UAEPAXI@Z:PROC		; std::bad_alloc::`vector deleting destructor'
EXTRN	?what@exception@std@@UBEPBDXZ:PROC		; std::exception::what
;	COMDAT ??_R2exception@std@@8
; File c:\program files (x86)\microsoft visual studio 10.0\vc\include\exception
rdata$r	SEGMENT
??_R2exception@std@@8 DD FLAT:??_R1A@?0A@EA@exception@std@@8 ; std::exception::`RTTI Base Class Array'
rdata$r	ENDS
;	COMDAT ??_R3exception@std@@8
rdata$r	SEGMENT
??_R3exception@std@@8 DD 00H				; std::exception::`RTTI Class Hierarchy Descriptor'
	DD	00H
	DD	01H
	DD	FLAT:??_R2exception@std@@8
rdata$r	ENDS
;	COMDAT ??_R0?AVexception@std@@@8
_DATA	SEGMENT
??_R0?AVexception@std@@@8 DD FLAT:??_7type_info@@6B@	; std::exception `RTTI Type Descriptor'
	DD	00H
	DB	'.?AVexception@std@@', 00H
_DATA	ENDS
;	COMDAT ??_R1A@?0A@EA@exception@std@@8
rdata$r	SEGMENT
??_R1A@?0A@EA@exception@std@@8 DD FLAT:??_R0?AVexception@std@@@8 ; std::exception::`RTTI Base Class Descriptor at (0,-1,0,64)'
	DD	00H
	DD	00H
	DD	0ffffffffH
	DD	00H
	DD	040H
	DD	FLAT:??_R3exception@std@@8
rdata$r	ENDS
;	COMDAT ??_R1A@?0A@EA@bad_alloc@std@@8
rdata$r	SEGMENT
??_R1A@?0A@EA@bad_alloc@std@@8 DD FLAT:??_R0?AVbad_alloc@std@@@8 ; std::bad_alloc::`RTTI Base Class Descriptor at (0,-1,0,64)'
	DD	01H
	DD	00H
	DD	0ffffffffH
	DD	00H
	DD	040H
	DD	FLAT:??_R3bad_alloc@std@@8
rdata$r	ENDS
;	COMDAT ??_R2bad_alloc@std@@8
rdata$r	SEGMENT
??_R2bad_alloc@std@@8 DD FLAT:??_R1A@?0A@EA@bad_alloc@std@@8 ; std::bad_alloc::`RTTI Base Class Array'
	DD	FLAT:??_R1A@?0A@EA@exception@std@@8
rdata$r	ENDS
;	COMDAT ??_R3bad_alloc@std@@8
rdata$r	SEGMENT
??_R3bad_alloc@std@@8 DD 00H				; std::bad_alloc::`RTTI Class Hierarchy Descriptor'
	DD	00H
	DD	02H
	DD	FLAT:??_R2bad_alloc@std@@8
rdata$r	ENDS
;	COMDAT ??_R0?AVbad_alloc@std@@@8
_DATA	SEGMENT
??_R0?AVbad_alloc@std@@@8 DD FLAT:??_7type_info@@6B@	; std::bad_alloc `RTTI Type Descriptor'
	DD	00H
	DB	'.?AVbad_alloc@std@@', 00H
_DATA	ENDS
;	COMDAT ??_R4bad_alloc@std@@6B@
rdata$r	SEGMENT
??_R4bad_alloc@std@@6B@ DD 00H				; std::bad_alloc::`RTTI Complete Object Locator'
	DD	00H
	DD	00H
	DD	FLAT:??_R0?AVbad_alloc@std@@@8
	DD	FLAT:??_R3bad_alloc@std@@8
rdata$r	ENDS
;	COMDAT ??_7bad_alloc@std@@6B@
CONST	SEGMENT
??_7bad_alloc@std@@6B@ DD FLAT:??_R4bad_alloc@std@@6B@	; std::bad_alloc::`vftable'
	DD	FLAT:??_Ebad_alloc@std@@UAEPAXI@Z
	DD	FLAT:?what@exception@std@@UBEPBDXZ
; Function compile flags: /Ogsp
CONST	ENDS
;	COMDAT ??0bad_alloc@std@@QAE@PBD@Z
_TEXT	SEGMENT
__Message$ = 8						; size = 4
??0bad_alloc@std@@QAE@PBD@Z PROC			; std::bad_alloc::bad_alloc, COMDAT
; _this$ = ecx

; 345  : 		{	// construct from message string

  00000	55		 push	 ebp
  00001	8b ec		 mov	 ebp, esp
  00003	56		 push	 esi
  00004	8d 45 08	 lea	 eax, DWORD PTR __Message$[ebp]
  00007	50		 push	 eax
  00008	8b f1		 mov	 esi, ecx
  0000a	ff 15 00 00 00
	00		 call	 DWORD PTR __imp_??0exception@std@@QAE@ABQBD@Z
  00010	c7 06 00 00 00
	00		 mov	 DWORD PTR [esi], OFFSET ??_7bad_alloc@std@@6B@

; 346  : 		}

  00016	8b c6		 mov	 eax, esi
  00018	5e		 pop	 esi
  00019	5d		 pop	 ebp
  0001a	c2 04 00	 ret	 4
??0bad_alloc@std@@QAE@PBD@Z ENDP			; std::bad_alloc::bad_alloc
_TEXT	ENDS
PUBLIC	??1bad_alloc@std@@UAE@XZ			; std::bad_alloc::~bad_alloc
EXTRN	__imp_??1exception@std@@UAE@XZ:PROC
; Function compile flags: /Ogsp
;	COMDAT ??1bad_alloc@std@@UAE@XZ
_TEXT	SEGMENT
??1bad_alloc@std@@UAE@XZ PROC				; std::bad_alloc::~bad_alloc, COMDAT
; _this$ = ecx

; 354  : 		{	// destroy the object

  00000	c7 01 00 00 00
	00		 mov	 DWORD PTR [ecx], OFFSET ??_7bad_alloc@std@@6B@

; 355  : 		}

  00006	ff 25 00 00 00
	00		 jmp	 DWORD PTR __imp_??1exception@std@@UAE@XZ
??1bad_alloc@std@@UAE@XZ ENDP				; std::bad_alloc::~bad_alloc
_TEXT	ENDS
EXTRN	??3@YAXPAX@Z:PROC				; operator delete
; Function compile flags: /Ogsp
;	COMDAT ??_Gbad_alloc@std@@UAEPAXI@Z
_TEXT	SEGMENT
___flags$ = 8						; size = 4
??_Gbad_alloc@std@@UAEPAXI@Z PROC			; std::bad_alloc::`scalar deleting destructor', COMDAT
; _this$ = ecx
  00000	55		 push	 ebp
  00001	8b ec		 mov	 ebp, esp
  00003	56		 push	 esi
  00004	8b f1		 mov	 esi, ecx
  00006	c7 06 00 00 00
	00		 mov	 DWORD PTR [esi], OFFSET ??_7bad_alloc@std@@6B@
  0000c	ff 15 00 00 00
	00		 call	 DWORD PTR __imp_??1exception@std@@UAE@XZ
  00012	f6 45 08 01	 test	 BYTE PTR ___flags$[ebp], 1
  00016	74 07		 je	 SHORT $LN1@scalar
  00018	56		 push	 esi
  00019	e8 00 00 00 00	 call	 ??3@YAXPAX@Z		; operator delete
  0001e	59		 pop	 ecx
$LN1@scalar:
  0001f	8b c6		 mov	 eax, esi
  00021	5e		 pop	 esi
  00022	5d		 pop	 ebp
  00023	c2 04 00	 ret	 4
??_Gbad_alloc@std@@UAEPAXI@Z ENDP			; std::bad_alloc::`scalar deleting destructor'
_TEXT	ENDS
PUBLIC	__$ArrayPad$
PUBLIC	?SendBlockInvenSync@ioHomeBlockStorage@@MAEX_N@Z ; ioHomeBlockStorage::SendBlockInvenSync
;	COMDAT xdata$x
; File d:\lost saga for developer\youtube\tutorial\source\src\lsclient\housing\iouserblockstorage.cpp
xdata$x	SEGMENT
__unwindtable$?SendBlockInvenSync@ioHomeBlockStorage@@MAEX_N@Z DD 0ffffffffH
	DD	FLAT:__unwindfunclet$?SendBlockInvenSync@ioHomeBlockStorage@@MAEX_N@Z$0
__ehfuncinfo$?SendBlockInvenSync@ioHomeBlockStorage@@MAEX_N@Z DD 019930522H
	DD	01H
	DD	FLAT:__unwindtable$?SendBlockInvenSync@ioHomeBlockStorage@@MAEX_N@Z
	DD	2 DUP(00H)
	DD	2 DUP(00H)
	DD	00H
	DD	01H
; Function compile flags: /Ogsp
xdata$x	ENDS
;	COMDAT ?SendBlockInvenSync@ioHomeBlockStorage@@MAEX_N@Z
_TEXT	SEGMENT
_kPacket$509070 = -32808				; size = 32792
__$ArrayPad$ = -16					; size = 4
__$EHRec$ = -12						; size = 12
_bMust$ = 8						; size = 1
?SendBlockInvenSync@ioHomeBlockStorage@@MAEX_N@Z PROC	; ioHomeBlockStorage::SendBlockInvenSync, COMDAT
; _this$ = ecx

; 388  : {

  00000	55		 push	 ebp
  00001	8b ec		 mov	 ebp, esp
  00003	6a ff		 push	 -1
  00005	68 00 00 00 00	 push	 __ehhandler$?SendBlockInvenSync@ioHomeBlockStorage@@MAEX_N@Z
  0000a	64 a1 00 00 00
	00		 mov	 eax, DWORD PTR fs:0
  00010	50		 push	 eax
  00011	b8 1c 80 00 00	 mov	 eax, 32796		; 0000801cH
  00016	e8 00 00 00 00	 call	 __chkstk
  0001b	a1 00 00 00 00	 mov	 eax, DWORD PTR ___security_cookie
  00020	33 c5		 xor	 eax, ebp
  00022	89 45 f0	 mov	 DWORD PTR __$ArrayPad$[ebp], eax
  00025	56		 push	 esi
  00026	50		 push	 eax
  00027	8d 45 f4	 lea	 eax, DWORD PTR __$EHRec$[ebp]
  0002a	64 a3 00 00 00
	00		 mov	 DWORD PTR fs:0, eax
  00030	8b f1		 mov	 esi, ecx

; 389  : 	DWORD dwCurTime = FRAMEGETTIME();

  00032	ff 15 00 00 00
	00		 call	 DWORD PTR __imp_?GetSingleton@ioFrameTimer@@SAAAV1@XZ
  00038	8b c8		 mov	 ecx, eax
  0003a	ff 15 00 00 00
	00		 call	 DWORD PTR __imp_?GetLoopSec@ioFrameTimer@@QBEKXZ

; 390  : 	if( bMust || dwCurTime - m_dwBlockInvenSyncTime > SYNC_TIME )

  00040	80 7d 08 00	 cmp	 BYTE PTR _bMust$[ebp], 0
  00044	75 0d		 jne	 SHORT $LN1@SendBlockI@2
  00046	8b c8		 mov	 ecx, eax
  00048	2b 4e 28	 sub	 ecx, DWORD PTR [esi+40]
  0004b	81 f9 10 27 00
	00		 cmp	 ecx, 10000		; 00002710H
  00051	76 3c		 jbe	 SHORT $LN2@SendBlockI@2
$LN1@SendBlockI@2:

; 391  : 	{
; 392  : 		m_dwBlockInvenSyncTime = dwCurTime;
; 393  : 		TCPNetwork::MouseBusy( true );

  00053	6a 01		 push	 1
  00055	89 46 28	 mov	 DWORD PTR [esi+40], eax
  00058	e8 00 00 00 00	 call	 ?MouseBusy@TCPNetwork@@YAX_N@Z ; TCPNetwork::MouseBusy

; 394  : 		SP2Packet kPacket( CTPK_PERSONAL_HQ_INVEN_DATA );

  0005d	8d 8d d8 7f ff
	ff		 lea	 ecx, DWORD PTR _kPacket$509070[ebp]
  00063	c7 04 24 62 03
	00 00		 mov	 DWORD PTR [esp], 866	; 00000362H
  0006a	e8 00 00 00 00	 call	 ??0SP2Packet@@QAE@K@Z	; SP2Packet::SP2Packet
  0006f	83 65 fc 00	 and	 DWORD PTR __$EHRec$[ebp+8], 0

; 395  : 		TCPNetwork::SendToServer( kPacket );

  00073	8d 85 d8 7f ff
	ff		 lea	 eax, DWORD PTR _kPacket$509070[ebp]
  00079	50		 push	 eax
  0007a	e8 00 00 00 00	 call	 ?SendToServer@TCPNetwork@@YAXAAVSP2Packet@@@Z ; TCPNetwork::SendToServer

; 396  : 	}

  0007f	83 4d fc ff	 or	 DWORD PTR __$EHRec$[ebp+8], -1
  00083	59		 pop	 ecx
  00084	8d 8d d8 7f ff
	ff		 lea	 ecx, DWORD PTR _kPacket$509070[ebp]
  0008a	e8 00 00 00 00	 call	 ??1SP2Packet@@UAE@XZ	; SP2Packet::~SP2Packet
$LN2@SendBlockI@2:

; 397  : }

  0008f	8b 4d f4	 mov	 ecx, DWORD PTR __$EHRec$[ebp]
  00092	64 89 0d 00 00
	00 00		 mov	 DWORD PTR fs:0, ecx
  00099	59		 pop	 ecx
  0009a	5e		 pop	 esi
  0009b	8b 4d f0	 mov	 ecx, DWORD PTR __$ArrayPad$[ebp]
  0009e	33 cd		 xor	 ecx, ebp
  000a0	e8 00 00 00 00	 call	 @__security_check_cookie@4
  000a5	c9		 leave
  000a6	c2 04 00	 ret	 4
_TEXT	ENDS
;	COMDAT text$x
text$x	SEGMENT
__unwindfunclet$?SendBlockInvenSync@ioHomeBlockStorage@@MAEX_N@Z$0:
  00000	8d 8d d8 7f ff
	ff		 lea	 ecx, DWORD PTR _kPacket$509070[ebp]
  00006	e9 00 00 00 00	 jmp	 ??1SP2Packet@@UAE@XZ	; SP2Packet::~SP2Packet
__ehhandler$?SendBlockInvenSync@ioHomeBlockStorage@@MAEX_N@Z:
  0000b	8b 54 24 08	 mov	 edx, DWORD PTR [esp+8]
  0000f	8d 42 0c	 lea	 eax, DWORD PTR [edx+12]
  00012	8b 8a dc 7f ff
	ff		 mov	 ecx, DWORD PTR [edx-32804]
  00018	33 c8		 xor	 ecx, eax
  0001a	e8 00 00 00 00	 call	 @__security_check_cookie@4
  0001f	8b 4a fc	 mov	 ecx, DWORD PTR [edx-4]
  00022	33 c8		 xor	 ecx, eax
  00024	e8 00 00 00 00	 call	 @__security_check_cookie@4
  00029	b8 00 00 00 00	 mov	 eax, OFFSET __ehfuncinfo$?SendBlockInvenSync@ioHomeBlockStorage@@MAEX_N@Z
  0002e	e9 00 00 00 00	 jmp	 ___CxxFrameHandler3
text$x	ENDS
?SendBlockInvenSync@ioHomeBlockStorage@@MAEX_N@Z ENDP	; ioHomeBlockStorage::SendBlockInvenSync
PUBLIC	?GetSingleton@?$Singleton@VioEtcItemManager@@@@SAAAVioEtcItemManager@@XZ ; Singleton<ioEtcItemManager>::GetSingleton
EXTRN	?ms_Singleton@?$Singleton@VioEtcItemManager@@@@1PAVioEtcItemManager@@A:DWORD ; Singleton<ioEtcItemManager>::ms_Singleton
; Function compile flags: /Ogsp
; File d:\lost saga for developer\youtube\tutorial\source\src\io3dengine\iosingleton.h
;	COMDAT ?GetSingleton@?$Singleton@VioEtcItemManager@@@@SAAAVioEtcItemManager@@XZ
_TEXT	SEGMENT
?GetSingleton@?$Singleton@VioEtcItemManager@@@@SAAAVioEtcItemManager@@XZ PROC ; Singleton<ioEtcItemManager>::GetSingleton, COMDAT

; 42   : 		assert( ms_Singleton );
; 43   : 		return (*ms_Singleton);

  00000	a1 00 00 00 00	 mov	 eax, DWORD PTR ?ms_Singleton@?$Singleton@VioEtcItemManager@@@@1PAVioEtcItemManager@@A ; Singleton<ioEtcItemManager>::ms_Singleton

; 44   : 	}

  00005	c3		 ret	 0
?GetSingleton@?$Singleton@VioEtcItemManager@@@@SAAAVioEtcItemManager@@XZ ENDP ; Singleton<ioEtcItemManager>::GetSingleton
_TEXT	ENDS
PUBLIC	??2@YAPAXIPAX@Z					; operator new
; Function compile flags: /Ogsp
; File c:\program files (x86)\microsoft visual studio 10.0\vc\include\new
;	COMDAT ??2@YAPAXIPAX@Z
_TEXT	SEGMENT
___formal$ = 8						; size = 4
__Where$ = 12						; size = 4
??2@YAPAXIPAX@Z PROC					; operator new, COMDAT

; 56   : 	{	// construct array with placement at _Where

  00000	55		 push	 ebp
  00001	8b ec		 mov	 ebp, esp

; 57   : 	return (_Where);

  00003	8b 45 0c	 mov	 eax, DWORD PTR __Where$[ebp]

; 58   : 	}

  00006	5d		 pop	 ebp
  00007	c3		 ret	 0
??2@YAPAXIPAX@Z ENDP					; operator new
_TEXT	ENDS
PUBLIC	??3@YAXPAX0@Z					; operator delete
; Function compile flags: /Ogsp
;	COMDAT ??3@YAXPAX0@Z
_TEXT	SEGMENT
___formal$ = 8						; size = 4
___formal$ = 12						; size = 4
??3@YAXPAX0@Z PROC					; operator delete, COMDAT

; 62   : 	}

  00000	c3		 ret	 0
??3@YAXPAX0@Z ENDP					; operator delete
_TEXT	ENDS
PUBLIC	?size@?$vector@UInvenBlockItem@ioUserBlockStorage@@V?$allocator@UInvenBlockItem@ioUserBlockStorage@@@std@@@std@@QBEIXZ ; std::vector<ioUserBlockStorage::InvenBlockItem,std::allocator<ioUserBlockStorage::InvenBlockItem> >::size
; Function compile flags: /Ogsp
; File c:\program files (x86)\microsoft visual studio 10.0\vc\include\vector
;	COMDAT ?size@?$vector@UInvenBlockItem@ioUserBlockStorage@@V?$allocator@UInvenBlockItem@ioUserBlockStorage@@@std@@@std@@QBEIXZ
_TEXT	SEGMENT
?size@?$vector@UInvenBlockItem@ioUserBlockStorage@@V?$allocator@UInvenBlockItem@ioUserBlockStorage@@@std@@@std@@QBEIXZ PROC ; std::vector<ioUserBlockStorage::InvenBlockItem,std::allocator<ioUserBlockStorage::InvenBlockItem> >::size, COMDAT
; _this$ = ecx

; 879  : 		return (this->_Mylast - this->_Myfirst);

  00000	8b 41 04	 mov	 eax, DWORD PTR [ecx+4]
  00003	2b 01		 sub	 eax, DWORD PTR [ecx]
  00005	6a 38		 push	 56			; 00000038H
  00007	99		 cdq
  00008	59		 pop	 ecx
  00009	f7 f9		 idiv	 ecx

; 880  : 		}

  0000b	c3		 ret	 0
?size@?$vector@UInvenBlockItem@ioUserBlockStorage@@V?$allocator@UInvenBlockItem@ioUserBlockStorage@@@std@@@std@@QBEIXZ ENDP ; std::vector<ioUserBlockStorage::InvenBlockItem,std::allocator<ioUserBlockStorage::InvenBlockItem> >::size
_TEXT	ENDS
PUBLIC	?empty@?$vector@UInvenBlockItem@ioUserBlockStorage@@V?$allocator@UInvenBlockItem@ioUserBlockStorage@@@std@@@std@@QBE_NXZ ; std::vector<ioUserBlockStorage::InvenBlockItem,std::allocator<ioUserBlockStorage::InvenBlockItem> >::empty
; Function compile flags: /Ogsp
;	COMDAT ?empty@?$vector@UInvenBlockItem@ioUserBlockStorage@@V?$allocator@UInvenBlockItem@ioUserBlockStorage@@@std@@@std@@QBE_NXZ
_TEXT	SEGMENT
?empty@?$vector@UInvenBlockItem@ioUserBlockStorage@@V?$allocator@UInvenBlockItem@ioUserBlockStorage@@@std@@@std@@QBE_NXZ PROC ; std::vector<ioUserBlockStorage::InvenBlockItem,std::allocator<ioUserBlockStorage::InvenBlockItem> >::empty, COMDAT
; _this$ = ecx

; 889  : 		return (this->_Myfirst == this->_Mylast);

  00000	8b 01		 mov	 eax, DWORD PTR [ecx]
  00002	2b 41 04	 sub	 eax, DWORD PTR [ecx+4]
  00005	f7 d8		 neg	 eax
  00007	1b c0		 sbb	 eax, eax
  00009	40		 inc	 eax

; 890  : 		}

  0000a	c3		 ret	 0
?empty@?$vector@UInvenBlockItem@ioUserBlockStorage@@V?$allocator@UInvenBlockItem@ioUserBlockStorage@@@std@@@std@@QBE_NXZ ENDP ; std::vector<ioUserBlockStorage::InvenBlockItem,std::allocator<ioUserBlockStorage::InvenBlockItem> >::empty
_TEXT	ENDS
PUBLIC	??A?$vector@UInvenBlockItem@ioUserBlockStorage@@V?$allocator@UInvenBlockItem@ioUserBlockStorage@@@std@@@std@@QAEAAUInvenBlockItem@ioUserBlockStorage@@I@Z ; std::vector<ioUserBlockStorage::InvenBlockItem,std::allocator<ioUserBlockStorage::InvenBlockItem> >::operator[]
; Function compile flags: /Ogsp
;	COMDAT ??A?$vector@UInvenBlockItem@ioUserBlockStorage@@V?$allocator@UInvenBlockItem@ioUserBlockStorage@@@std@@@std@@QAEAAUInvenBlockItem@ioUserBlockStorage@@I@Z
_TEXT	SEGMENT
__Pos$ = 8						; size = 4
??A?$vector@UInvenBlockItem@ioUserBlockStorage@@V?$allocator@UInvenBlockItem@ioUserBlockStorage@@@std@@@std@@QAEAAUInvenBlockItem@ioUserBlockStorage@@I@Z PROC ; std::vector<ioUserBlockStorage::InvenBlockItem,std::allocator<ioUserBlockStorage::InvenBlockItem> >::operator[], COMDAT
; _this$ = ecx

; 928  : 		{	// subscript mutable sequence

  00000	55		 push	 ebp
  00001	8b ec		 mov	 ebp, esp

; 929  :  #if _ITERATOR_DEBUG_LEVEL == 2
; 930  : 		if (size() <= _Pos)
; 931  : 			{	// report error
; 932  : 			_DEBUG_ERROR("vector subscript out of range");
; 933  : 			_SCL_SECURE_OUT_OF_RANGE;
; 934  : 			}
; 935  : 
; 936  :  #elif _ITERATOR_DEBUG_LEVEL == 1
; 937  : 		_SCL_SECURE_VALIDATE_RANGE(_Pos < size());
; 938  :  #endif /* _ITERATOR_DEBUG_LEVEL */
; 939  : 
; 940  : 		return (*(this->_Myfirst + _Pos));

  00003	8b 45 08	 mov	 eax, DWORD PTR __Pos$[ebp]
  00006	6b c0 38	 imul	 eax, 56			; 00000038H
  00009	03 01		 add	 eax, DWORD PTR [ecx]

; 941  : 		}

  0000b	5d		 pop	 ebp
  0000c	c2 04 00	 ret	 4
??A?$vector@UInvenBlockItem@ioUserBlockStorage@@V?$allocator@UInvenBlockItem@ioUserBlockStorage@@@std@@@std@@QAEAAUInvenBlockItem@ioUserBlockStorage@@I@Z ENDP ; std::vector<ioUserBlockStorage::InvenBlockItem,std::allocator<ioUserBlockStorage::InvenBlockItem> >::operator[]
_TEXT	ENDS
PUBLIC	?_Inside@?$vector@VioBlockDBItem@@V?$allocator@VioBlockDBItem@@@std@@@std@@IBE_NPBVioBlockDBItem@@@Z ; std::vector<ioBlockDBItem,std::allocator<ioBlockDBItem> >::_Inside
; Function compile flags: /Ogsp
;	COMDAT ?_Inside@?$vector@VioBlockDBItem@@V?$allocator@VioBlockDBItem@@@std@@@std@@IBE_NPBVioBlockDBItem@@@Z
_TEXT	SEGMENT
__Ptr$ = 8						; size = 4
?_Inside@?$vector@VioBlockDBItem@@V?$allocator@VioBlockDBItem@@@std@@@std@@IBE_NPBVioBlockDBItem@@@Z PROC ; std::vector<ioBlockDBItem,std::allocator<ioBlockDBItem> >::_Inside, COMDAT
; _this$ = ecx

; 1285 : 		{	// test if _Ptr points inside vector

  00000	55		 push	 ebp
  00001	8b ec		 mov	 ebp, esp

; 1286 : 		return (_Ptr < this->_Mylast && this->_Myfirst <= _Ptr);

  00003	8b 45 08	 mov	 eax, DWORD PTR __Ptr$[ebp]
  00006	3b 41 04	 cmp	 eax, DWORD PTR [ecx+4]
  00009	73 09		 jae	 SHORT $LN3@Inside
  0000b	39 01		 cmp	 DWORD PTR [ecx], eax
  0000d	77 05		 ja	 SHORT $LN3@Inside
  0000f	33 c0		 xor	 eax, eax
  00011	40		 inc	 eax
  00012	eb 02		 jmp	 SHORT $LN4@Inside
$LN3@Inside:
  00014	33 c0		 xor	 eax, eax
$LN4@Inside:

; 1287 : 		}

  00016	5d		 pop	 ebp
  00017	c2 04 00	 ret	 4
?_Inside@?$vector@VioBlockDBItem@@V?$allocator@VioBlockDBItem@@@std@@@std@@IBE_NPBVioBlockDBItem@@@Z ENDP ; std::vector<ioBlockDBItem,std::allocator<ioBlockDBItem> >::_Inside
_TEXT	ENDS
PUBLIC	?_Orphan_range@?$vector@VioBlockDBItem@@V?$allocator@VioBlockDBItem@@@std@@@std@@IBEXPAVioBlockDBItem@@0@Z ; std::vector<ioBlockDBItem,std::allocator<ioBlockDBItem> >::_Orphan_range
; Function compile flags: /Ogsp
;	COMDAT ?_Orphan_range@?$vector@VioBlockDBItem@@V?$allocator@VioBlockDBItem@@@std@@@std@@IBEXPAVioBlockDBItem@@0@Z
_TEXT	SEGMENT
___formal$ = 8						; size = 4
___formal$ = 12						; size = 4
?_Orphan_range@?$vector@VioBlockDBItem@@V?$allocator@VioBlockDBItem@@@std@@@std@@IBEXPAVioBlockDBItem@@0@Z PROC ; std::vector<ioBlockDBItem,std::allocator<ioBlockDBItem> >::_Orphan_range, COMDAT
; _this$ = ecx

; 1454 : 		}

  00000	c2 08 00	 ret	 8
?_Orphan_range@?$vector@VioBlockDBItem@@V?$allocator@VioBlockDBItem@@@std@@@std@@IBEXPAVioBlockDBItem@@0@Z ENDP ; std::vector<ioBlockDBItem,std::allocator<ioBlockDBItem> >::_Orphan_range
_TEXT	ENDS
PUBLIC	??1?$_Vector_val@VioBlockDBItem@@V?$allocator@VioBlockDBItem@@@std@@@std@@QAE@XZ ; std::_Vector_val<ioBlockDBItem,std::allocator<ioBlockDBItem> >::~_Vector_val<ioBlockDBItem,std::allocator<ioBlockDBItem> >
; Function compile flags: /Ogsp
;	COMDAT ??1?$_Vector_val@VioBlockDBItem@@V?$allocator@VioBlockDBItem@@@std@@@std@@QAE@XZ
_TEXT	SEGMENT
??1?$_Vector_val@VioBlockDBItem@@V?$allocator@VioBlockDBItem@@@std@@@std@@QAE@XZ PROC ; std::_Vector_val<ioBlockDBItem,std::allocator<ioBlockDBItem> >::~_Vector_val<ioBlockDBItem,std::allocator<ioBlockDBItem> >, COMDAT
; _this$ = ecx

; 434  : 		}

  00000	c3		 ret	 0
??1?$_Vector_val@VioBlockDBItem@@V?$allocator@VioBlockDBItem@@@std@@@std@@QAE@XZ ENDP ; std::_Vector_val<ioBlockDBItem,std::allocator<ioBlockDBItem> >::~_Vector_val<ioBlockDBItem,std::allocator<ioBlockDBItem> >
_TEXT	ENDS
PUBLIC	??0?$allocator@VioBlockDBItem@@@std@@QAE@XZ	; std::allocator<ioBlockDBItem>::allocator<ioBlockDBItem>
; Function compile flags: /Ogsp
; File c:\program files (x86)\microsoft visual studio 10.0\vc\include\xmemory
;	COMDAT ??0?$allocator@VioBlockDBItem@@@std@@QAE@XZ
_TEXT	SEGMENT
??0?$allocator@VioBlockDBItem@@@std@@QAE@XZ PROC	; std::allocator<ioBlockDBItem>::allocator<ioBlockDBItem>, COMDAT
; _this$ = ecx

; 161  : 	_ALLOCATOR() _THROW0()

  00000	8b c1		 mov	 eax, ecx

; 162  : 		{	// construct default allocator (do nothing)
; 163  : 		}

  00002	c3		 ret	 0
??0?$allocator@VioBlockDBItem@@@std@@QAE@XZ ENDP	; std::allocator<ioBlockDBItem>::allocator<ioBlockDBItem>
_TEXT	ENDS
PUBLIC	?capacity@?$vector@UInvenBlockItem@ioUserBlockStorage@@V?$allocator@UInvenBlockItem@ioUserBlockStorage@@@std@@@std@@QBEIXZ ; std::vector<ioUserBlockStorage::InvenBlockItem,std::allocator<ioUserBlockStorage::InvenBlockItem> >::capacity
; Function compile flags: /Ogsp
; File c:\program files (x86)\microsoft visual studio 10.0\vc\include\vector
;	COMDAT ?capacity@?$vector@UInvenBlockItem@ioUserBlockStorage@@V?$allocator@UInvenBlockItem@ioUserBlockStorage@@@std@@@std@@QBEIXZ
_TEXT	SEGMENT
?capacity@?$vector@UInvenBlockItem@ioUserBlockStorage@@V?$allocator@UInvenBlockItem@ioUserBlockStorage@@@std@@@std@@QBEIXZ PROC ; std::vector<ioUserBlockStorage::InvenBlockItem,std::allocator<ioUserBlockStorage::InvenBlockItem> >::capacity, COMDAT
; _this$ = ecx

; 777  : 		return (this->_Myend - this->_Myfirst);

  00000	8b 41 08	 mov	 eax, DWORD PTR [ecx+8]
  00003	2b 01		 sub	 eax, DWORD PTR [ecx]
  00005	6a 38		 push	 56			; 00000038H
  00007	99		 cdq
  00008	59		 pop	 ecx
  00009	f7 f9		 idiv	 ecx

; 778  : 		}

  0000b	c3		 ret	 0
?capacity@?$vector@UInvenBlockItem@ioUserBlockStorage@@V?$allocator@UInvenBlockItem@ioUserBlockStorage@@@std@@@std@@QBEIXZ ENDP ; std::vector<ioUserBlockStorage::InvenBlockItem,std::allocator<ioUserBlockStorage::InvenBlockItem> >::capacity
_TEXT	ENDS
PUBLIC	?_Inside@?$vector@UInvenBlockItem@ioUserBlockStorage@@V?$allocator@UInvenBlockItem@ioUserBlockStorage@@@std@@@std@@IBE_NPBUInvenBlockItem@ioUserBlockStorage@@@Z ; std::vector<ioUserBlockStorage::InvenBlockItem,std::allocator<ioUserBlockStorage::InvenBlockItem> >::_Inside
; Function compile flags: /Ogsp
;	COMDAT ?_Inside@?$vector@UInvenBlockItem@ioUserBlockStorage@@V?$allocator@UInvenBlockItem@ioUserBlockStorage@@@std@@@std@@IBE_NPBUInvenBlockItem@ioUserBlockStorage@@@Z
_TEXT	SEGMENT
__Ptr$ = 8						; size = 4
?_Inside@?$vector@UInvenBlockItem@ioUserBlockStorage@@V?$allocator@UInvenBlockItem@ioUserBlockStorage@@@std@@@std@@IBE_NPBUInvenBlockItem@ioUserBlockStorage@@@Z PROC ; std::vector<ioUserBlockStorage::InvenBlockItem,std::allocator<ioUserBlockStorage::InvenBlockItem> >::_Inside, COMDAT
; _this$ = ecx

; 1285 : 		{	// test if _Ptr points inside vector

  00000	55		 push	 ebp
  00001	8b ec		 mov	 ebp, esp

; 1286 : 		return (_Ptr < this->_Mylast && this->_Myfirst <= _Ptr);

  00003	8b 45 08	 mov	 eax, DWORD PTR __Ptr$[ebp]
  00006	3b 41 04	 cmp	 eax, DWORD PTR [ecx+4]
  00009	73 09		 jae	 SHORT $LN3@Inside@2
  0000b	39 01		 cmp	 DWORD PTR [ecx], eax
  0000d	77 05		 ja	 SHORT $LN3@Inside@2
  0000f	33 c0		 xor	 eax, eax
  00011	40		 inc	 eax
  00012	eb 02		 jmp	 SHORT $LN4@Inside@2
$LN3@Inside@2:
  00014	33 c0		 xor	 eax, eax
$LN4@Inside@2:

; 1287 : 		}

  00016	5d		 pop	 ebp
  00017	c2 04 00	 ret	 4
?_Inside@?$vector@UInvenBlockItem@ioUserBlockStorage@@V?$allocator@UInvenBlockItem@ioUserBlockStorage@@@std@@@std@@IBE_NPBUInvenBlockItem@ioUserBlockStorage@@@Z ENDP ; std::vector<ioUserBlockStorage::InvenBlockItem,std::allocator<ioUserBlockStorage::InvenBlockItem> >::_Inside
_TEXT	ENDS
PUBLIC	?_Orphan_range@?$vector@UInvenBlockItem@ioUserBlockStorage@@V?$allocator@UInvenBlockItem@ioUserBlockStorage@@@std@@@std@@IBEXPAUInvenBlockItem@ioUserBlockStorage@@0@Z ; std::vector<ioUserBlockStorage::InvenBlockItem,std::allocator<ioUserBlockStorage::InvenBlockItem> >::_Orphan_range
; Function compile flags: /Ogsp
;	COMDAT ?_Orphan_range@?$vector@UInvenBlockItem@ioUserBlockStorage@@V?$allocator@UInvenBlockItem@ioUserBlockStorage@@@std@@@std@@IBEXPAUInvenBlockItem@ioUserBlockStorage@@0@Z
_TEXT	SEGMENT
___formal$ = 8						; size = 4
___formal$ = 12						; size = 4
?_Orphan_range@?$vector@UInvenBlockItem@ioUserBlockStorage@@V?$allocator@UInvenBlockItem@ioUserBlockStorage@@@std@@@std@@IBEXPAUInvenBlockItem@ioUserBlockStorage@@0@Z PROC ; std::vector<ioUserBlockStorage::InvenBlockItem,std::allocator<ioUserBlockStorage::InvenBlockItem> >::_Orphan_range, COMDAT
; _this$ = ecx

; 1454 : 		}

  00000	c2 08 00	 ret	 8
?_Orphan_range@?$vector@UInvenBlockItem@ioUserBlockStorage@@V?$allocator@UInvenBlockItem@ioUserBlockStorage@@@std@@@std@@IBEXPAUInvenBlockItem@ioUserBlockStorage@@0@Z ENDP ; std::vector<ioUserBlockStorage::InvenBlockItem,std::allocator<ioUserBlockStorage::InvenBlockItem> >::_Orphan_range
_TEXT	ENDS
PUBLIC	??1?$_Vector_val@UInvenBlockItem@ioUserBlockStorage@@V?$allocator@UInvenBlockItem@ioUserBlockStorage@@@std@@@std@@QAE@XZ ; std::_Vector_val<ioUserBlockStorage::InvenBlockItem,std::allocator<ioUserBlockStorage::InvenBlockItem> >::~_Vector_val<ioUserBlockStorage::InvenBlockItem,std::allocator<ioUserBlockStorage::InvenBlockItem> >
; Function compile flags: /Ogsp
;	COMDAT ??1?$_Vector_val@UInvenBlockItem@ioUserBlockStorage@@V?$allocator@UInvenBlockItem@ioUserBlockStorage@@@std@@@std@@QAE@XZ
_TEXT	SEGMENT
??1?$_Vector_val@UInvenBlockItem@ioUserBlockStorage@@V?$allocator@UInvenBlockItem@ioUserBlockStorage@@@std@@@std@@QAE@XZ PROC ; std::_Vector_val<ioUserBlockStorage::InvenBlockItem,std::allocator<ioUserBlockStorage::InvenBlockItem> >::~_Vector_val<ioUserBlockStorage::InvenBlockItem,std::allocator<ioUserBlockStorage::InvenBlockItem> >, COMDAT
; _this$ = ecx

; 434  : 		}

  00000	c3		 ret	 0
??1?$_Vector_val@UInvenBlockItem@ioUserBlockStorage@@V?$allocator@UInvenBlockItem@ioUserBlockStorage@@@std@@@std@@QAE@XZ ENDP ; std::_Vector_val<ioUserBlockStorage::InvenBlockItem,std::allocator<ioUserBlockStorage::InvenBlockItem> >::~_Vector_val<ioUserBlockStorage::InvenBlockItem,std::allocator<ioUserBlockStorage::InvenBlockItem> >
_TEXT	ENDS
PUBLIC	??0?$allocator@UInvenBlockItem@ioUserBlockStorage@@@std@@QAE@XZ ; std::allocator<ioUserBlockStorage::InvenBlockItem>::allocator<ioUserBlockStorage::InvenBlockItem>
; Function compile flags: /Ogsp
; File c:\program files (x86)\microsoft visual studio 10.0\vc\include\xmemory
;	COMDAT ??0?$allocator@UInvenBlockItem@ioUserBlockStorage@@@std@@QAE@XZ
_TEXT	SEGMENT
??0?$allocator@UInvenBlockItem@ioUserBlockStorage@@@std@@QAE@XZ PROC ; std::allocator<ioUserBlockStorage::InvenBlockItem>::allocator<ioUserBlockStorage::InvenBlockItem>, COMDAT
; _this$ = ecx

; 161  : 	_ALLOCATOR() _THROW0()

  00000	8b c1		 mov	 eax, ecx

; 162  : 		{	// construct default allocator (do nothing)
; 163  : 		}

  00002	c3		 ret	 0
??0?$allocator@UInvenBlockItem@ioUserBlockStorage@@@std@@QAE@XZ ENDP ; std::allocator<ioUserBlockStorage::InvenBlockItem>::allocator<ioUserBlockStorage::InvenBlockItem>
_TEXT	ENDS
PUBLIC	?deallocate@?$allocator@UInvenBlockItem@ioUserBlockStorage@@@std@@QAEXPAUInvenBlockItem@ioUserBlockStorage@@I@Z ; std::allocator<ioUserBlockStorage::InvenBlockItem>::deallocate
; Function compile flags: /Ogsp
;	COMDAT ?deallocate@?$allocator@UInvenBlockItem@ioUserBlockStorage@@@std@@QAEXPAUInvenBlockItem@ioUserBlockStorage@@I@Z
_TEXT	SEGMENT
__Ptr$ = 8						; size = 4
___formal$ = 12						; size = 4
?deallocate@?$allocator@UInvenBlockItem@ioUserBlockStorage@@@std@@QAEXPAUInvenBlockItem@ioUserBlockStorage@@I@Z PROC ; std::allocator<ioUserBlockStorage::InvenBlockItem>::deallocate, COMDAT
; _this$ = ecx

; 181  : 		{	// deallocate object at _Ptr, ignore size

  00000	55		 push	 ebp
  00001	8b ec		 mov	 ebp, esp

; 182  : 		::operator delete(_Ptr);

  00003	ff 75 08	 push	 DWORD PTR __Ptr$[ebp]
  00006	e8 00 00 00 00	 call	 ??3@YAXPAX@Z		; operator delete
  0000b	59		 pop	 ecx

; 183  : 		}

  0000c	5d		 pop	 ebp
  0000d	c2 08 00	 ret	 8
?deallocate@?$allocator@UInvenBlockItem@ioUserBlockStorage@@@std@@QAEXPAUInvenBlockItem@ioUserBlockStorage@@I@Z ENDP ; std::allocator<ioUserBlockStorage::InvenBlockItem>::deallocate
_TEXT	ENDS
PUBLIC	??D?$_Vector_const_iterator@V?$_Vector_val@UInvenBlockItem@ioUserBlockStorage@@V?$allocator@UInvenBlockItem@ioUserBlockStorage@@@std@@@std@@@std@@QBEABUInvenBlockItem@ioUserBlockStorage@@XZ ; std::_Vector_const_iterator<std::_Vector_val<ioUserBlockStorage::InvenBlockItem,std::allocator<ioUserBlockStorage::InvenBlockItem> > >::operator*
; Function compile flags: /Ogsp
; File c:\program files (x86)\microsoft visual studio 10.0\vc\include\vector
;	COMDAT ??D?$_Vector_const_iterator@V?$_Vector_val@UInvenBlockItem@ioUserBlockStorage@@V?$allocator@UInvenBlockItem@ioUserBlockStorage@@@std@@@std@@@std@@QBEABUInvenBlockItem@ioUserBlockStorage@@XZ
_TEXT	SEGMENT
??D?$_Vector_const_iterator@V?$_Vector_val@UInvenBlockItem@ioUserBlockStorage@@V?$allocator@UInvenBlockItem@ioUserBlockStorage@@@std@@@std@@@std@@QBEABUInvenBlockItem@ioUserBlockStorage@@XZ PROC ; std::_Vector_const_iterator<std::_Vector_val<ioUserBlockStorage::InvenBlockItem,std::allocator<ioUserBlockStorage::InvenBlockItem> > >::operator*, COMDAT
; _this$ = ecx

; 64   :  #if _ITERATOR_DEBUG_LEVEL == 2
; 65   : 		if (this->_Getcont() == 0
; 66   : 			|| this->_Ptr == 0
; 67   : 			|| this->_Ptr < ((_Myvec *)this->_Getcont())->_Myfirst
; 68   : 			|| ((_Myvec *)this->_Getcont())->_Mylast <= this->_Ptr)
; 69   : 			{	// report error
; 70   : 			_DEBUG_ERROR("vector iterator not dereferencable");
; 71   : 			_SCL_SECURE_OUT_OF_RANGE;
; 72   : 			}
; 73   : 
; 74   :  #elif _ITERATOR_DEBUG_LEVEL == 1
; 75   : 		_SCL_SECURE_VALIDATE(this->_Getcont() != 0);
; 76   : 		_SCL_SECURE_VALIDATE_RANGE(
; 77   : 			this->_Ptr != 0
; 78   : 			&& ((_Myvec *)this->_Getcont())->_Myfirst <= this->_Ptr
; 79   : 			&& this->_Ptr < ((_Myvec *)this->_Getcont())->_Mylast);
; 80   :  #endif /* _ITERATOR_DEBUG_LEVEL */
; 81   : 
; 82   : 		__analysis_assume(this->_Ptr != 0);
; 83   : 
; 84   : 		return (*this->_Ptr);

  00000	8b 01		 mov	 eax, DWORD PTR [ecx]

; 85   : 		}

  00002	c3		 ret	 0
??D?$_Vector_const_iterator@V?$_Vector_val@UInvenBlockItem@ioUserBlockStorage@@V?$allocator@UInvenBlockItem@ioUserBlockStorage@@@std@@@std@@@std@@QBEABUInvenBlockItem@ioUserBlockStorage@@XZ ENDP ; std::_Vector_const_iterator<std::_Vector_val<ioUserBlockStorage::InvenBlockItem,std::allocator<ioUserBlockStorage::InvenBlockItem> > >::operator*
_TEXT	ENDS
PUBLIC	??E?$_Vector_const_iterator@V?$_Vector_val@UInvenBlockItem@ioUserBlockStorage@@V?$allocator@UInvenBlockItem@ioUserBlockStorage@@@std@@@std@@@std@@QAEAAV01@XZ ; std::_Vector_const_iterator<std::_Vector_val<ioUserBlockStorage::InvenBlockItem,std::allocator<ioUserBlockStorage::InvenBlockItem> > >::operator++
; Function compile flags: /Ogsp
;	COMDAT ??E?$_Vector_const_iterator@V?$_Vector_val@UInvenBlockItem@ioUserBlockStorage@@V?$allocator@UInvenBlockItem@ioUserBlockStorage@@@std@@@std@@@std@@QAEAAV01@XZ
_TEXT	SEGMENT
??E?$_Vector_const_iterator@V?$_Vector_val@UInvenBlockItem@ioUserBlockStorage@@V?$allocator@UInvenBlockItem@ioUserBlockStorage@@@std@@@std@@@std@@QAEAAV01@XZ PROC ; std::_Vector_const_iterator<std::_Vector_val<ioUserBlockStorage::InvenBlockItem,std::allocator<ioUserBlockStorage::InvenBlockItem> > >::operator++, COMDAT
; _this$ = ecx

; 93   : 		{	// preincrement

  00000	8b c1		 mov	 eax, ecx

; 94   :  #if _ITERATOR_DEBUG_LEVEL == 2
; 95   : 		if (this->_Getcont() == 0
; 96   : 			|| this->_Ptr == 0
; 97   : 			|| ((_Myvec *)this->_Getcont())->_Mylast <= this->_Ptr)
; 98   : 			{	// report error
; 99   : 			_DEBUG_ERROR("vector iterator not incrementable");
; 100  : 			_SCL_SECURE_OUT_OF_RANGE;
; 101  : 			}
; 102  : 
; 103  :  #elif _ITERATOR_DEBUG_LEVEL == 1
; 104  : 		_SCL_SECURE_VALIDATE(this->_Getcont() != 0);
; 105  : 		_SCL_SECURE_VALIDATE_RANGE(
; 106  : 			this->_Ptr != 0
; 107  : 			&& this->_Ptr < ((_Myvec *)this->_Getcont())->_Mylast);
; 108  :  #endif /* _ITERATOR_DEBUG_LEVEL */
; 109  : 
; 110  : 		++this->_Ptr;

  00002	83 00 38	 add	 DWORD PTR [eax], 56	; 00000038H

; 111  : 		return (*this);
; 112  : 		}

  00005	c3		 ret	 0
??E?$_Vector_const_iterator@V?$_Vector_val@UInvenBlockItem@ioUserBlockStorage@@V?$allocator@UInvenBlockItem@ioUserBlockStorage@@@std@@@std@@@std@@QAEAAV01@XZ ENDP ; std::_Vector_const_iterator<std::_Vector_val<ioUserBlockStorage::InvenBlockItem,std::allocator<ioUserBlockStorage::InvenBlockItem> > >::operator++
_TEXT	ENDS
PUBLIC	?capacity@?$vector@VioBlockDBItem@@V?$allocator@VioBlockDBItem@@@std@@@std@@QBEIXZ ; std::vector<ioBlockDBItem,std::allocator<ioBlockDBItem> >::capacity
; Function compile flags: /Ogsp
;	COMDAT ?capacity@?$vector@VioBlockDBItem@@V?$allocator@VioBlockDBItem@@@std@@@std@@QBEIXZ
_TEXT	SEGMENT
?capacity@?$vector@VioBlockDBItem@@V?$allocator@VioBlockDBItem@@@std@@@std@@QBEIXZ PROC ; std::vector<ioBlockDBItem,std::allocator<ioBlockDBItem> >::capacity, COMDAT
; _this$ = ecx

; 777  : 		return (this->_Myend - this->_Myfirst);

  00000	8b 41 08	 mov	 eax, DWORD PTR [ecx+8]
  00003	2b 01		 sub	 eax, DWORD PTR [ecx]
  00005	6a 28		 push	 40			; 00000028H
  00007	99		 cdq
  00008	59		 pop	 ecx
  00009	f7 f9		 idiv	 ecx

; 778  : 		}

  0000b	c3		 ret	 0
?capacity@?$vector@VioBlockDBItem@@V?$allocator@VioBlockDBItem@@@std@@@std@@QBEIXZ ENDP ; std::vector<ioBlockDBItem,std::allocator<ioBlockDBItem> >::capacity
_TEXT	ENDS
PUBLIC	?size@?$vector@VioBlockDBItem@@V?$allocator@VioBlockDBItem@@@std@@@std@@QBEIXZ ; std::vector<ioBlockDBItem,std::allocator<ioBlockDBItem> >::size
; Function compile flags: /Ogsp
;	COMDAT ?size@?$vector@VioBlockDBItem@@V?$allocator@VioBlockDBItem@@@std@@@std@@QBEIXZ
_TEXT	SEGMENT
?size@?$vector@VioBlockDBItem@@V?$allocator@VioBlockDBItem@@@std@@@std@@QBEIXZ PROC ; std::vector<ioBlockDBItem,std::allocator<ioBlockDBItem> >::size, COMDAT
; _this$ = ecx

; 879  : 		return (this->_Mylast - this->_Myfirst);

  00000	8b 41 04	 mov	 eax, DWORD PTR [ecx+4]
  00003	2b 01		 sub	 eax, DWORD PTR [ecx]
  00005	6a 28		 push	 40			; 00000028H
  00007	99		 cdq
  00008	59		 pop	 ecx
  00009	f7 f9		 idiv	 ecx

; 880  : 		}

  0000b	c3		 ret	 0
?size@?$vector@VioBlockDBItem@@V?$allocator@VioBlockDBItem@@@std@@@std@@QBEIXZ ENDP ; std::vector<ioBlockDBItem,std::allocator<ioBlockDBItem> >::size
_TEXT	ENDS
PUBLIC	??_C@_0BD@OLBABOEK@vector?$DMT?$DO?5too?5long?$AA@ ; `string'
PUBLIC	?_Xlen@?$vector@VioBlockDBItem@@V?$allocator@VioBlockDBItem@@@std@@@std@@IBEXXZ ; std::vector<ioBlockDBItem,std::allocator<ioBlockDBItem> >::_Xlen
EXTRN	__imp_?_Xlength_error@std@@YAXPBD@Z:PROC
;	COMDAT ??_C@_0BD@OLBABOEK@vector?$DMT?$DO?5too?5long?$AA@
CONST	SEGMENT
??_C@_0BD@OLBABOEK@vector?$DMT?$DO?5too?5long?$AA@ DB 'vector<T> too long'
	DB	00H						; `string'
; Function compile flags: /Ogsp
CONST	ENDS
;	COMDAT ?_Xlen@?$vector@VioBlockDBItem@@V?$allocator@VioBlockDBItem@@@std@@@std@@IBEXXZ
_TEXT	SEGMENT
?_Xlen@?$vector@VioBlockDBItem@@V?$allocator@VioBlockDBItem@@@std@@@std@@IBEXXZ PROC ; std::vector<ioBlockDBItem,std::allocator<ioBlockDBItem> >::_Xlen, COMDAT
; _this$ = ecx

; 1427 : 		_Xlength_error("vector<T> too long");

  00000	68 00 00 00 00	 push	 OFFSET ??_C@_0BD@OLBABOEK@vector?$DMT?$DO?5too?5long?$AA@
  00005	ff 15 00 00 00
	00		 call	 DWORD PTR __imp_?_Xlength_error@std@@YAXPBD@Z
$LN4@Xlen:
$LN3@Xlen:
  0000b	cc		 int	 3
?_Xlen@?$vector@VioBlockDBItem@@V?$allocator@VioBlockDBItem@@@std@@@std@@IBEXXZ ENDP ; std::vector<ioBlockDBItem,std::allocator<ioBlockDBItem> >::_Xlen
_TEXT	ENDS
PUBLIC	??0?$allocator@VioBlockDBItem@@@std@@QAE@ABV01@@Z ; std::allocator<ioBlockDBItem>::allocator<ioBlockDBItem>
; Function compile flags: /Ogsp
; File c:\program files (x86)\microsoft visual studio 10.0\vc\include\xmemory
;	COMDAT ??0?$allocator@VioBlockDBItem@@@std@@QAE@ABV01@@Z
_TEXT	SEGMENT
___formal$ = 8						; size = 4
??0?$allocator@VioBlockDBItem@@@std@@QAE@ABV01@@Z PROC	; std::allocator<ioBlockDBItem>::allocator<ioBlockDBItem>, COMDAT
; _this$ = ecx

; 165  : 	_ALLOCATOR(const _ALLOCATOR<_Ty>&) _THROW0()

  00000	8b c1		 mov	 eax, ecx

; 166  : 		{	// construct by copying (do nothing)
; 167  : 		}

  00002	c2 04 00	 ret	 4
??0?$allocator@VioBlockDBItem@@@std@@QAE@ABV01@@Z ENDP	; std::allocator<ioBlockDBItem>::allocator<ioBlockDBItem>
_TEXT	ENDS
PUBLIC	?deallocate@?$allocator@VioBlockDBItem@@@std@@QAEXPAVioBlockDBItem@@I@Z ; std::allocator<ioBlockDBItem>::deallocate
; Function compile flags: /Ogsp
;	COMDAT ?deallocate@?$allocator@VioBlockDBItem@@@std@@QAEXPAVioBlockDBItem@@I@Z
_TEXT	SEGMENT
__Ptr$ = 8						; size = 4
___formal$ = 12						; size = 4
?deallocate@?$allocator@VioBlockDBItem@@@std@@QAEXPAVioBlockDBItem@@I@Z PROC ; std::allocator<ioBlockDBItem>::deallocate, COMDAT
; _this$ = ecx

; 181  : 		{	// deallocate object at _Ptr, ignore size

  00000	55		 push	 ebp
  00001	8b ec		 mov	 ebp, esp

; 182  : 		::operator delete(_Ptr);

  00003	ff 75 08	 push	 DWORD PTR __Ptr$[ebp]
  00006	e8 00 00 00 00	 call	 ??3@YAXPAX@Z		; operator delete
  0000b	59		 pop	 ecx

; 183  : 		}

  0000c	5d		 pop	 ebp
  0000d	c2 08 00	 ret	 8
?deallocate@?$allocator@VioBlockDBItem@@@std@@QAEXPAVioBlockDBItem@@I@Z ENDP ; std::allocator<ioBlockDBItem>::deallocate
_TEXT	ENDS
PUBLIC	?_Adopt@_Iterator_base0@std@@QAEXPBX@Z		; std::_Iterator_base0::_Adopt
; Function compile flags: /Ogsp
; File c:\program files (x86)\microsoft visual studio 10.0\vc\include\xutility
;	COMDAT ?_Adopt@_Iterator_base0@std@@QAEXPBX@Z
_TEXT	SEGMENT
___formal$ = 8						; size = 4
?_Adopt@_Iterator_base0@std@@QAEXPBX@Z PROC		; std::_Iterator_base0::_Adopt, COMDAT
; _this$ = ecx

; 49   : 		}

  00000	c2 04 00	 ret	 4
?_Adopt@_Iterator_base0@std@@QAEXPBX@Z ENDP		; std::_Iterator_base0::_Adopt
_TEXT	ENDS
PUBLIC	?_Xlen@?$vector@UInvenBlockItem@ioUserBlockStorage@@V?$allocator@UInvenBlockItem@ioUserBlockStorage@@@std@@@std@@IBEXXZ ; std::vector<ioUserBlockStorage::InvenBlockItem,std::allocator<ioUserBlockStorage::InvenBlockItem> >::_Xlen
; Function compile flags: /Ogsp
; File c:\program files (x86)\microsoft visual studio 10.0\vc\include\vector
;	COMDAT ?_Xlen@?$vector@UInvenBlockItem@ioUserBlockStorage@@V?$allocator@UInvenBlockItem@ioUserBlockStorage@@@std@@@std@@IBEXXZ
_TEXT	SEGMENT
?_Xlen@?$vector@UInvenBlockItem@ioUserBlockStorage@@V?$allocator@UInvenBlockItem@ioUserBlockStorage@@@std@@@std@@IBEXXZ PROC ; std::vector<ioUserBlockStorage::InvenBlockItem,std::allocator<ioUserBlockStorage::InvenBlockItem> >::_Xlen, COMDAT
; _this$ = ecx

; 1427 : 		_Xlength_error("vector<T> too long");

  00000	68 00 00 00 00	 push	 OFFSET ??_C@_0BD@OLBABOEK@vector?$DMT?$DO?5too?5long?$AA@
  00005	ff 15 00 00 00
	00		 call	 DWORD PTR __imp_?_Xlength_error@std@@YAXPBD@Z
$LN4@Xlen@2:
$LN3@Xlen@2:
  0000b	cc		 int	 3
?_Xlen@?$vector@UInvenBlockItem@ioUserBlockStorage@@V?$allocator@UInvenBlockItem@ioUserBlockStorage@@@std@@@std@@IBEXXZ ENDP ; std::vector<ioUserBlockStorage::InvenBlockItem,std::allocator<ioUserBlockStorage::InvenBlockItem> >::_Xlen
_TEXT	ENDS
PUBLIC	??0?$allocator@UInvenBlockItem@ioUserBlockStorage@@@std@@QAE@ABV01@@Z ; std::allocator<ioUserBlockStorage::InvenBlockItem>::allocator<ioUserBlockStorage::InvenBlockItem>
; Function compile flags: /Ogsp
; File c:\program files (x86)\microsoft visual studio 10.0\vc\include\xmemory
;	COMDAT ??0?$allocator@UInvenBlockItem@ioUserBlockStorage@@@std@@QAE@ABV01@@Z
_TEXT	SEGMENT
___formal$ = 8						; size = 4
??0?$allocator@UInvenBlockItem@ioUserBlockStorage@@@std@@QAE@ABV01@@Z PROC ; std::allocator<ioUserBlockStorage::InvenBlockItem>::allocator<ioUserBlockStorage::InvenBlockItem>, COMDAT
; _this$ = ecx

; 165  : 	_ALLOCATOR(const _ALLOCATOR<_Ty>&) _THROW0()

  00000	8b c1		 mov	 eax, ecx

; 166  : 		{	// construct by copying (do nothing)
; 167  : 		}

  00002	c2 04 00	 ret	 4
??0?$allocator@UInvenBlockItem@ioUserBlockStorage@@@std@@QAE@ABV01@@Z ENDP ; std::allocator<ioUserBlockStorage::InvenBlockItem>::allocator<ioUserBlockStorage::InvenBlockItem>
_TEXT	ENDS
PUBLIC	??0?$_Vector_const_iterator@V?$_Vector_val@UInvenBlockItem@ioUserBlockStorage@@V?$allocator@UInvenBlockItem@ioUserBlockStorage@@@std@@@std@@@std@@QAE@PAUInvenBlockItem@ioUserBlockStorage@@PBU_Container_base0@1@@Z ; std::_Vector_const_iterator<std::_Vector_val<ioUserBlockStorage::InvenBlockItem,std::allocator<ioUserBlockStorage::InvenBlockItem> > >::_Vector_const_iterator<std::_Vector_val<ioUserBlockStorage::InvenBlockItem,std::allocator<ioUserBlockStorage::InvenBlockItem> > >
; Function compile flags: /Ogsp
; File c:\program files (x86)\microsoft visual studio 10.0\vc\include\vector
;	COMDAT ??0?$_Vector_const_iterator@V?$_Vector_val@UInvenBlockItem@ioUserBlockStorage@@V?$allocator@UInvenBlockItem@ioUserBlockStorage@@@std@@@std@@@std@@QAE@PAUInvenBlockItem@ioUserBlockStorage@@PBU_Container_base0@1@@Z
_TEXT	SEGMENT
__Parg$ = 8						; size = 4
__Pvector$ = 12						; size = 4
??0?$_Vector_const_iterator@V?$_Vector_val@UInvenBlockItem@ioUserBlockStorage@@V?$allocator@UInvenBlockItem@ioUserBlockStorage@@@std@@@std@@@std@@QAE@PAUInvenBlockItem@ioUserBlockStorage@@PBU_Container_base0@1@@Z PROC ; std::_Vector_const_iterator<std::_Vector_val<ioUserBlockStorage::InvenBlockItem,std::allocator<ioUserBlockStorage::InvenBlockItem> > >::_Vector_const_iterator<std::_Vector_val<ioUserBlockStorage::InvenBlockItem,std::allocator<ioUserBlockStorage::InvenBlockItem> > >, COMDAT
; _this$ = ecx

; 45   : 		{	// construct with pointer _Parg

  00000	55		 push	 ebp
  00001	8b ec		 mov	 ebp, esp
  00003	8b c1		 mov	 eax, ecx
  00005	8b 4d 08	 mov	 ecx, DWORD PTR __Parg$[ebp]
  00008	89 08		 mov	 DWORD PTR [eax], ecx

; 46   : 		this->_Adopt(_Pvector);
; 47   : 		}

  0000a	5d		 pop	 ebp
  0000b	c2 08 00	 ret	 8
??0?$_Vector_const_iterator@V?$_Vector_val@UInvenBlockItem@ioUserBlockStorage@@V?$allocator@UInvenBlockItem@ioUserBlockStorage@@@std@@@std@@@std@@QAE@PAUInvenBlockItem@ioUserBlockStorage@@PBU_Container_base0@1@@Z ENDP ; std::_Vector_const_iterator<std::_Vector_val<ioUserBlockStorage::InvenBlockItem,std::allocator<ioUserBlockStorage::InvenBlockItem> > >::_Vector_const_iterator<std::_Vector_val<ioUserBlockStorage::InvenBlockItem,std::allocator<ioUserBlockStorage::InvenBlockItem> > >
_TEXT	ENDS
PUBLIC	?_Compat@?$_Vector_const_iterator@V?$_Vector_val@UInvenBlockItem@ioUserBlockStorage@@V?$allocator@UInvenBlockItem@ioUserBlockStorage@@@std@@@std@@@std@@QBEXABV12@@Z ; std::_Vector_const_iterator<std::_Vector_val<ioUserBlockStorage::InvenBlockItem,std::allocator<ioUserBlockStorage::InvenBlockItem> > >::_Compat
; Function compile flags: /Ogsp
;	COMDAT ?_Compat@?$_Vector_const_iterator@V?$_Vector_val@UInvenBlockItem@ioUserBlockStorage@@V?$allocator@UInvenBlockItem@ioUserBlockStorage@@@std@@@std@@@std@@QBEXABV12@@Z
_TEXT	SEGMENT
___formal$ = 8						; size = 4
?_Compat@?$_Vector_const_iterator@V?$_Vector_val@UInvenBlockItem@ioUserBlockStorage@@V?$allocator@UInvenBlockItem@ioUserBlockStorage@@@std@@@std@@@std@@QBEXABV12@@Z PROC ; std::_Vector_const_iterator<std::_Vector_val<ioUserBlockStorage::InvenBlockItem,std::allocator<ioUserBlockStorage::InvenBlockItem> > >::_Compat, COMDAT
; _this$ = ecx

; 253  : 		}

  00000	c2 04 00	 ret	 4
?_Compat@?$_Vector_const_iterator@V?$_Vector_val@UInvenBlockItem@ioUserBlockStorage@@V?$allocator@UInvenBlockItem@ioUserBlockStorage@@@std@@@std@@@std@@QBEXABV12@@Z ENDP ; std::_Vector_const_iterator<std::_Vector_val<ioUserBlockStorage::InvenBlockItem,std::allocator<ioUserBlockStorage::InvenBlockItem> > >::_Compat
_TEXT	ENDS
PUBLIC	?max_size@?$allocator@VioBlockDBItem@@@std@@QBEIXZ ; std::allocator<ioBlockDBItem>::max_size
; Function compile flags: /Ogsp
; File c:\program files (x86)\microsoft visual studio 10.0\vc\include\xmemory
;	COMDAT ?max_size@?$allocator@VioBlockDBItem@@@std@@QBEIXZ
_TEXT	SEGMENT
?max_size@?$allocator@VioBlockDBItem@@@std@@QBEIXZ PROC	; std::allocator<ioBlockDBItem>::max_size, COMDAT
; _this$ = ecx

; 218  : 		_SIZT _Count = (_SIZT)(-1) / sizeof (_Ty);
; 219  : 		return (0 < _Count ? _Count : 1);

  00000	b8 66 66 66 06	 mov	 eax, 107374182		; 06666666H

; 220  : 		}

  00005	c3		 ret	 0
?max_size@?$allocator@VioBlockDBItem@@@std@@QBEIXZ ENDP	; std::allocator<ioBlockDBItem>::max_size
_TEXT	ENDS
PUBLIC	?max_size@?$allocator@UInvenBlockItem@ioUserBlockStorage@@@std@@QBEIXZ ; std::allocator<ioUserBlockStorage::InvenBlockItem>::max_size
; Function compile flags: /Ogsp
;	COMDAT ?max_size@?$allocator@UInvenBlockItem@ioUserBlockStorage@@@std@@QBEIXZ
_TEXT	SEGMENT
?max_size@?$allocator@UInvenBlockItem@ioUserBlockStorage@@@std@@QBEIXZ PROC ; std::allocator<ioUserBlockStorage::InvenBlockItem>::max_size, COMDAT
; _this$ = ecx

; 218  : 		_SIZT _Count = (_SIZT)(-1) / sizeof (_Ty);
; 219  : 		return (0 < _Count ? _Count : 1);

  00000	b8 24 49 92 04	 mov	 eax, 76695844		; 04924924H

; 220  : 		}

  00005	c3		 ret	 0
?max_size@?$allocator@UInvenBlockItem@ioUserBlockStorage@@@std@@QBEIXZ ENDP ; std::allocator<ioUserBlockStorage::InvenBlockItem>::max_size
_TEXT	ENDS
PUBLIC	??0?$_Vector_const_iterator@V?$_Vector_val@VioBlockDBItem@@V?$allocator@VioBlockDBItem@@@std@@@std@@@std@@QAE@PAVioBlockDBItem@@PBU_Container_base0@1@@Z ; std::_Vector_const_iterator<std::_Vector_val<ioBlockDBItem,std::allocator<ioBlockDBItem> > >::_Vector_const_iterator<std::_Vector_val<ioBlockDBItem,std::allocator<ioBlockDBItem> > >
; Function compile flags: /Ogsp
; File c:\program files (x86)\microsoft visual studio 10.0\vc\include\vector
;	COMDAT ??0?$_Vector_const_iterator@V?$_Vector_val@VioBlockDBItem@@V?$allocator@VioBlockDBItem@@@std@@@std@@@std@@QAE@PAVioBlockDBItem@@PBU_Container_base0@1@@Z
_TEXT	SEGMENT
__Parg$ = 8						; size = 4
__Pvector$ = 12						; size = 4
??0?$_Vector_const_iterator@V?$_Vector_val@VioBlockDBItem@@V?$allocator@VioBlockDBItem@@@std@@@std@@@std@@QAE@PAVioBlockDBItem@@PBU_Container_base0@1@@Z PROC ; std::_Vector_const_iterator<std::_Vector_val<ioBlockDBItem,std::allocator<ioBlockDBItem> > >::_Vector_const_iterator<std::_Vector_val<ioBlockDBItem,std::allocator<ioBlockDBItem> > >, COMDAT
; _this$ = ecx

; 45   : 		{	// construct with pointer _Parg

  00000	55		 push	 ebp
  00001	8b ec		 mov	 ebp, esp
  00003	8b c1		 mov	 eax, ecx
  00005	8b 4d 08	 mov	 ecx, DWORD PTR __Parg$[ebp]
  00008	89 08		 mov	 DWORD PTR [eax], ecx

; 46   : 		this->_Adopt(_Pvector);
; 47   : 		}

  0000a	5d		 pop	 ebp
  0000b	c2 08 00	 ret	 8
??0?$_Vector_const_iterator@V?$_Vector_val@VioBlockDBItem@@V?$allocator@VioBlockDBItem@@@std@@@std@@@std@@QAE@PAVioBlockDBItem@@PBU_Container_base0@1@@Z ENDP ; std::_Vector_const_iterator<std::_Vector_val<ioBlockDBItem,std::allocator<ioBlockDBItem> > >::_Vector_const_iterator<std::_Vector_val<ioBlockDBItem,std::allocator<ioBlockDBItem> > >
_TEXT	ENDS
PUBLIC	?_Compat@?$_Vector_const_iterator@V?$_Vector_val@VioBlockDBItem@@V?$allocator@VioBlockDBItem@@@std@@@std@@@std@@QBEXABV12@@Z ; std::_Vector_const_iterator<std::_Vector_val<ioBlockDBItem,std::allocator<ioBlockDBItem> > >::_Compat
; Function compile flags: /Ogsp
;	COMDAT ?_Compat@?$_Vector_const_iterator@V?$_Vector_val@VioBlockDBItem@@V?$allocator@VioBlockDBItem@@@std@@@std@@@std@@QBEXABV12@@Z
_TEXT	SEGMENT
___formal$ = 8						; size = 4
?_Compat@?$_Vector_const_iterator@V?$_Vector_val@VioBlockDBItem@@V?$allocator@VioBlockDBItem@@@std@@@std@@@std@@QBEXABV12@@Z PROC ; std::_Vector_const_iterator<std::_Vector_val<ioBlockDBItem,std::allocator<ioBlockDBItem> > >::_Compat, COMDAT
; _this$ = ecx

; 253  : 		}

  00000	c2 04 00	 ret	 4
?_Compat@?$_Vector_const_iterator@V?$_Vector_val@VioBlockDBItem@@V?$allocator@VioBlockDBItem@@@std@@@std@@@std@@QBEXABV12@@Z ENDP ; std::_Vector_const_iterator<std::_Vector_val<ioBlockDBItem,std::allocator<ioBlockDBItem> > >::_Compat
_TEXT	ENDS
PUBLIC	??$addressof@$$CBVioBlockDBItem@@@std@@YAPBVioBlockDBItem@@ABV1@@Z ; std::addressof<ioBlockDBItem const >
; Function compile flags: /Ogsp
; File c:\program files (x86)\microsoft visual studio 10.0\vc\include\xmemory
;	COMDAT ??$addressof@$$CBVioBlockDBItem@@@std@@YAPBVioBlockDBItem@@ABV1@@Z
_TEXT	SEGMENT
__Val$ = 8						; size = 4
??$addressof@$$CBVioBlockDBItem@@@std@@YAPBVioBlockDBItem@@ABV1@@Z PROC ; std::addressof<ioBlockDBItem const >, COMDAT

; 110  : 	{	// return address of _Val

  00000	55		 push	 ebp
  00001	8b ec		 mov	 ebp, esp

; 111  : 	return ((_Ty *) &(char&)_Val);

  00003	8b 45 08	 mov	 eax, DWORD PTR __Val$[ebp]

; 112  : 	}

  00006	5d		 pop	 ebp
  00007	c3		 ret	 0
??$addressof@$$CBVioBlockDBItem@@@std@@YAPBVioBlockDBItem@@ABV1@@Z ENDP ; std::addressof<ioBlockDBItem const >
_TEXT	ENDS
PUBLIC	??$addressof@$$CBUInvenBlockItem@ioUserBlockStorage@@@std@@YAPBUInvenBlockItem@ioUserBlockStorage@@ABU12@@Z ; std::addressof<ioUserBlockStorage::InvenBlockItem const >
; Function compile flags: /Ogsp
;	COMDAT ??$addressof@$$CBUInvenBlockItem@ioUserBlockStorage@@@std@@YAPBUInvenBlockItem@ioUserBlockStorage@@ABU12@@Z
_TEXT	SEGMENT
__Val$ = 8						; size = 4
??$addressof@$$CBUInvenBlockItem@ioUserBlockStorage@@@std@@YAPBUInvenBlockItem@ioUserBlockStorage@@ABU12@@Z PROC ; std::addressof<ioUserBlockStorage::InvenBlockItem const >, COMDAT

; 110  : 	{	// return address of _Val

  00000	55		 push	 ebp
  00001	8b ec		 mov	 ebp, esp

; 111  : 	return ((_Ty *) &(char&)_Val);

  00003	8b 45 08	 mov	 eax, DWORD PTR __Val$[ebp]

; 112  : 	}

  00006	5d		 pop	 ebp
  00007	c3		 ret	 0
??$addressof@$$CBUInvenBlockItem@ioUserBlockStorage@@@std@@YAPBUInvenBlockItem@ioUserBlockStorage@@ABU12@@Z ENDP ; std::addressof<ioUserBlockStorage::InvenBlockItem const >
_TEXT	ENDS
PUBLIC	__TI2?AVbad_alloc@std@@
PUBLIC	??$_Allocate@UInvenBlockItem@ioUserBlockStorage@@@std@@YAPAUInvenBlockItem@ioUserBlockStorage@@IPAU12@@Z ; std::_Allocate<ioUserBlockStorage::InvenBlockItem>
PUBLIC	__CTA2?AVbad_alloc@std@@
PUBLIC	__CT??_R0?AVbad_alloc@std@@@8??0bad_alloc@std@@QAE@ABV01@@Z12
PUBLIC	??0bad_alloc@std@@QAE@ABV01@@Z			; std::bad_alloc::bad_alloc
PUBLIC	__CT??_R0?AVexception@std@@@8??0exception@std@@QAE@ABV01@@Z12
EXTRN	??2@YAPAXI@Z:PROC				; operator new
EXTRN	__CxxThrowException@8:PROC
EXTRN	??0exception@std@@QAE@ABV01@@Z:PROC		; std::exception::exception
;	COMDAT __CT??_R0?AVexception@std@@@8??0exception@std@@QAE@ABV01@@Z12
; File c:\program files (x86)\microsoft visual studio 10.0\vc\include\exception
xdata$x	SEGMENT
__CT??_R0?AVexception@std@@@8??0exception@std@@QAE@ABV01@@Z12 DD 00H
	DD	FLAT:??_R0?AVexception@std@@@8
	DD	00H
	DD	0ffffffffH
	ORG $+4
	DD	0cH
	DD	FLAT:??0exception@std@@QAE@ABV01@@Z
xdata$x	ENDS
;	COMDAT __CT??_R0?AVbad_alloc@std@@@8??0bad_alloc@std@@QAE@ABV01@@Z12
xdata$x	SEGMENT
__CT??_R0?AVbad_alloc@std@@@8??0bad_alloc@std@@QAE@ABV01@@Z12 DD 00H
	DD	FLAT:??_R0?AVbad_alloc@std@@@8
	DD	00H
	DD	0ffffffffH
	ORG $+4
	DD	0cH
	DD	FLAT:??0bad_alloc@std@@QAE@ABV01@@Z
xdata$x	ENDS
;	COMDAT __CTA2?AVbad_alloc@std@@
xdata$x	SEGMENT
__CTA2?AVbad_alloc@std@@ DD 02H
	DD	FLAT:__CT??_R0?AVbad_alloc@std@@@8??0bad_alloc@std@@QAE@ABV01@@Z12
	DD	FLAT:__CT??_R0?AVexception@std@@@8??0exception@std@@QAE@ABV01@@Z12
xdata$x	ENDS
;	COMDAT __TI2?AVbad_alloc@std@@
xdata$x	SEGMENT
__TI2?AVbad_alloc@std@@ DD 00H
	DD	FLAT:??1bad_alloc@std@@UAE@XZ
	DD	00H
	DD	FLAT:__CTA2?AVbad_alloc@std@@
; Function compile flags: /Ogsp
; File c:\program files (x86)\microsoft visual studio 10.0\vc\include\xmemory
xdata$x	ENDS
;	COMDAT ??$_Allocate@UInvenBlockItem@ioUserBlockStorage@@@std@@YAPAUInvenBlockItem@ioUserBlockStorage@@IPAU12@@Z
_TEXT	SEGMENT
$T511802 = -12						; size = 12
$T511807 = 8						; size = 4
__Count$ = 8						; size = 4
___formal$ = 12						; size = 4
??$_Allocate@UInvenBlockItem@ioUserBlockStorage@@@std@@YAPAUInvenBlockItem@ioUserBlockStorage@@IPAU12@@Z PROC ; std::_Allocate<ioUserBlockStorage::InvenBlockItem>, COMDAT

; 30   : 	{	// allocate storage for _Count elements of type _Ty

  00000	55		 push	 ebp
  00001	8b ec		 mov	 ebp, esp

; 31   : 	void *_Ptr = 0;
; 32   : 
; 33   : 	if (_Count <= 0)

  00003	8b 4d 08	 mov	 ecx, DWORD PTR __Count$[ebp]
  00006	83 ec 0c	 sub	 esp, 12			; 0000000cH
  00009	33 c0		 xor	 eax, eax
  0000b	85 c9		 test	 ecx, ecx

; 34   : 		_Count = 0;
; 35   : 	else if (((_SIZT)(-1) / sizeof (_Ty) < _Count)

  0000d	74 3c		 je	 SHORT $LN5@Allocate

; 36   : 		|| (_Ptr = ::operator new(_Count * sizeof (_Ty))) == 0)

  0000f	81 f9 24 49 92
	04		 cmp	 ecx, 76695844		; 04924924H
  00015	77 0e		 ja	 SHORT $LN1@Allocate
  00017	6b c9 38	 imul	 ecx, 56			; 00000038H
  0001a	51		 push	 ecx
  0001b	e8 00 00 00 00	 call	 ??2@YAPAXI@Z		; operator new
  00020	59		 pop	 ecx
  00021	85 c0		 test	 eax, eax

; 38   : 
; 39   : 	return ((_Ty _FARQ *)_Ptr);

  00023	75 26		 jne	 SHORT $LN5@Allocate
$LN1@Allocate:

; 37   : 		_THROW_NCEE(bad_alloc, 0);

  00025	83 65 08 00	 and	 DWORD PTR $T511807[ebp], 0
  00029	8d 45 08	 lea	 eax, DWORD PTR $T511807[ebp]
  0002c	50		 push	 eax
  0002d	8d 4d f4	 lea	 ecx, DWORD PTR $T511802[ebp]
  00030	ff 15 00 00 00
	00		 call	 DWORD PTR __imp_??0exception@std@@QAE@ABQBD@Z
  00036	68 00 00 00 00	 push	 OFFSET __TI2?AVbad_alloc@std@@
  0003b	8d 45 f4	 lea	 eax, DWORD PTR $T511802[ebp]
  0003e	50		 push	 eax
  0003f	c7 45 f4 00 00
	00 00		 mov	 DWORD PTR $T511802[ebp], OFFSET ??_7bad_alloc@std@@6B@
  00046	e8 00 00 00 00	 call	 __CxxThrowException@8
$LN10@Allocate:
$LN5@Allocate:

; 40   : 	}

  0004b	c9		 leave
  0004c	c3		 ret	 0
$LN9@Allocate:
??$_Allocate@UInvenBlockItem@ioUserBlockStorage@@@std@@YAPAUInvenBlockItem@ioUserBlockStorage@@IPAU12@@Z ENDP ; std::_Allocate<ioUserBlockStorage::InvenBlockItem>
_TEXT	ENDS
PUBLIC	??$_Allocate@VioBlockDBItem@@@std@@YAPAVioBlockDBItem@@IPAV1@@Z ; std::_Allocate<ioBlockDBItem>
; Function compile flags: /Ogsp
;	COMDAT ??$_Allocate@VioBlockDBItem@@@std@@YAPAVioBlockDBItem@@IPAV1@@Z
_TEXT	SEGMENT
$T511812 = -12						; size = 12
$T511816 = 8						; size = 4
__Count$ = 8						; size = 4
___formal$ = 12						; size = 4
??$_Allocate@VioBlockDBItem@@@std@@YAPAVioBlockDBItem@@IPAV1@@Z PROC ; std::_Allocate<ioBlockDBItem>, COMDAT

; 30   : 	{	// allocate storage for _Count elements of type _Ty

  00000	55		 push	 ebp
  00001	8b ec		 mov	 ebp, esp

; 31   : 	void *_Ptr = 0;
; 32   : 
; 33   : 	if (_Count <= 0)

  00003	8b 4d 08	 mov	 ecx, DWORD PTR __Count$[ebp]
  00006	83 ec 0c	 sub	 esp, 12			; 0000000cH
  00009	33 c0		 xor	 eax, eax
  0000b	85 c9		 test	 ecx, ecx

; 34   : 		_Count = 0;
; 35   : 	else if (((_SIZT)(-1) / sizeof (_Ty) < _Count)

  0000d	74 3c		 je	 SHORT $LN5@Allocate@2

; 36   : 		|| (_Ptr = ::operator new(_Count * sizeof (_Ty))) == 0)

  0000f	81 f9 66 66 66
	06		 cmp	 ecx, 107374182		; 06666666H
  00015	77 0e		 ja	 SHORT $LN1@Allocate@2
  00017	6b c9 28	 imul	 ecx, 40			; 00000028H
  0001a	51		 push	 ecx
  0001b	e8 00 00 00 00	 call	 ??2@YAPAXI@Z		; operator new
  00020	59		 pop	 ecx
  00021	85 c0		 test	 eax, eax

; 38   : 
; 39   : 	return ((_Ty _FARQ *)_Ptr);

  00023	75 26		 jne	 SHORT $LN5@Allocate@2
$LN1@Allocate@2:

; 37   : 		_THROW_NCEE(bad_alloc, 0);

  00025	83 65 08 00	 and	 DWORD PTR $T511816[ebp], 0
  00029	8d 45 08	 lea	 eax, DWORD PTR $T511816[ebp]
  0002c	50		 push	 eax
  0002d	8d 4d f4	 lea	 ecx, DWORD PTR $T511812[ebp]
  00030	ff 15 00 00 00
	00		 call	 DWORD PTR __imp_??0exception@std@@QAE@ABQBD@Z
  00036	68 00 00 00 00	 push	 OFFSET __TI2?AVbad_alloc@std@@
  0003b	8d 45 f4	 lea	 eax, DWORD PTR $T511812[ebp]
  0003e	50		 push	 eax
  0003f	c7 45 f4 00 00
	00 00		 mov	 DWORD PTR $T511812[ebp], OFFSET ??_7bad_alloc@std@@6B@
  00046	e8 00 00 00 00	 call	 __CxxThrowException@8
$LN10@Allocate@2:
$LN5@Allocate@2:

; 40   : 	}

  0004b	c9		 leave
  0004c	c3		 ret	 0
$LN9@Allocate@2:
??$_Allocate@VioBlockDBItem@@@std@@YAPAVioBlockDBItem@@IPAV1@@Z ENDP ; std::_Allocate<ioBlockDBItem>
_TEXT	ENDS
PUBLIC	??0?$back_insert_iterator@V?$vector@UInvenBlockItem@ioUserBlockStorage@@V?$allocator@UInvenBlockItem@ioUserBlockStorage@@@std@@@std@@@std@@QAE@AAV?$vector@UInvenBlockItem@ioUserBlockStorage@@V?$allocator@UInvenBlockItem@ioUserBlockStorage@@@std@@@1@@Z ; std::back_insert_iterator<std::vector<ioUserBlockStorage::InvenBlockItem,std::allocator<ioUserBlockStorage::InvenBlockItem> > >::back_insert_iterator<std::vector<ioUserBlockStorage::InvenBlockItem,std::allocator<ioUserBlockStorage::InvenBlockItem> > >
; Function compile flags: /Ogsp
; File c:\program files (x86)\microsoft visual studio 10.0\vc\include\iterator
;	COMDAT ??0?$back_insert_iterator@V?$vector@UInvenBlockItem@ioUserBlockStorage@@V?$allocator@UInvenBlockItem@ioUserBlockStorage@@@std@@@std@@@std@@QAE@AAV?$vector@UInvenBlockItem@ioUserBlockStorage@@V?$allocator@UInvenBlockItem@ioUserBlockStorage@@@std@@@1@@Z
_TEXT	SEGMENT
__Cont$ = 8						; size = 4
??0?$back_insert_iterator@V?$vector@UInvenBlockItem@ioUserBlockStorage@@V?$allocator@UInvenBlockItem@ioUserBlockStorage@@@std@@@std@@@std@@QAE@AAV?$vector@UInvenBlockItem@ioUserBlockStorage@@V?$allocator@UInvenBlockItem@ioUserBlockStorage@@@std@@@1@@Z PROC ; std::back_insert_iterator<std::vector<ioUserBlockStorage::InvenBlockItem,std::allocator<ioUserBlockStorage::InvenBlockItem> > >::back_insert_iterator<std::vector<ioUserBlockStorage::InvenBlockItem,std::allocator<ioUserBlockStorage::InvenBlockItem> > >, COMDAT
; _this$ = ecx

; 26   : 		{	// construct with container

  00000	55		 push	 ebp
  00001	8b ec		 mov	 ebp, esp
  00003	8b c1		 mov	 eax, ecx
  00005	8b 4d 08	 mov	 ecx, DWORD PTR __Cont$[ebp]
  00008	89 08		 mov	 DWORD PTR [eax], ecx

; 27   : 		}

  0000a	5d		 pop	 ebp
  0000b	c2 04 00	 ret	 4
??0?$back_insert_iterator@V?$vector@UInvenBlockItem@ioUserBlockStorage@@V?$allocator@UInvenBlockItem@ioUserBlockStorage@@@std@@@std@@@std@@QAE@AAV?$vector@UInvenBlockItem@ioUserBlockStorage@@V?$allocator@UInvenBlockItem@ioUserBlockStorage@@@std@@@1@@Z ENDP ; std::back_insert_iterator<std::vector<ioUserBlockStorage::InvenBlockItem,std::allocator<ioUserBlockStorage::InvenBlockItem> > >::back_insert_iterator<std::vector<ioUserBlockStorage::InvenBlockItem,std::allocator<ioUserBlockStorage::InvenBlockItem> > >
_TEXT	ENDS
PUBLIC	??G?$_Vector_const_iterator@V?$_Vector_val@UInvenBlockItem@ioUserBlockStorage@@V?$allocator@UInvenBlockItem@ioUserBlockStorage@@@std@@@std@@@std@@QBEHABV01@@Z ; std::_Vector_const_iterator<std::_Vector_val<ioUserBlockStorage::InvenBlockItem,std::allocator<ioUserBlockStorage::InvenBlockItem> > >::operator-
; Function compile flags: /Ogsp
; File c:\program files (x86)\microsoft visual studio 10.0\vc\include\vector
;	COMDAT ??G?$_Vector_const_iterator@V?$_Vector_val@UInvenBlockItem@ioUserBlockStorage@@V?$allocator@UInvenBlockItem@ioUserBlockStorage@@@std@@@std@@@std@@QBEHABV01@@Z
_TEXT	SEGMENT
__Right$ = 8						; size = 4
??G?$_Vector_const_iterator@V?$_Vector_val@UInvenBlockItem@ioUserBlockStorage@@V?$allocator@UInvenBlockItem@ioUserBlockStorage@@@std@@@std@@@std@@QBEHABV01@@Z PROC ; std::_Vector_const_iterator<std::_Vector_val<ioUserBlockStorage::InvenBlockItem,std::allocator<ioUserBlockStorage::InvenBlockItem> > >::operator-, COMDAT
; _this$ = ecx

; 190  : 		{	// return difference of iterators

  00000	55		 push	 ebp
  00001	8b ec		 mov	 ebp, esp

; 191  : 		_Compat(_Right);
; 192  : 		return (this->_Ptr - _Right._Ptr);

  00003	8b 01		 mov	 eax, DWORD PTR [ecx]
  00005	8b 4d 08	 mov	 ecx, DWORD PTR __Right$[ebp]
  00008	2b 01		 sub	 eax, DWORD PTR [ecx]
  0000a	6a 38		 push	 56			; 00000038H
  0000c	99		 cdq
  0000d	59		 pop	 ecx
  0000e	f7 f9		 idiv	 ecx

; 193  : 		}

  00010	5d		 pop	 ebp
  00011	c2 04 00	 ret	 4
??G?$_Vector_const_iterator@V?$_Vector_val@UInvenBlockItem@ioUserBlockStorage@@V?$allocator@UInvenBlockItem@ioUserBlockStorage@@@std@@@std@@@std@@QBEHABV01@@Z ENDP ; std::_Vector_const_iterator<std::_Vector_val<ioUserBlockStorage::InvenBlockItem,std::allocator<ioUserBlockStorage::InvenBlockItem> > >::operator-
_TEXT	ENDS
PUBLIC	??$_Unchecked@V?$back_insert_iterator@V?$vector@UInvenBlockItem@ioUserBlockStorage@@V?$allocator@UInvenBlockItem@ioUserBlockStorage@@@std@@@std@@@std@@@std@@YA?AV?$back_insert_iterator@V?$vector@UInvenBlockItem@ioUserBlockStorage@@V?$allocator@UInvenBlockItem@ioUserBlockStorage@@@std@@@std@@@0@V10@@Z ; std::_Unchecked<std::back_insert_iterator<std::vector<ioUserBlockStorage::InvenBlockItem,std::allocator<ioUserBlockStorage::InvenBlockItem> > > >
; Function compile flags: /Ogsp
; File c:\program files (x86)\microsoft visual studio 10.0\vc\include\xutility
;	COMDAT ??$_Unchecked@V?$back_insert_iterator@V?$vector@UInvenBlockItem@ioUserBlockStorage@@V?$allocator@UInvenBlockItem@ioUserBlockStorage@@@std@@@std@@@std@@@std@@YA?AV?$back_insert_iterator@V?$vector@UInvenBlockItem@ioUserBlockStorage@@V?$allocator@UInvenBlockItem@ioUserBlockStorage@@@std@@@std@@@0@V10@@Z
_TEXT	SEGMENT
___$ReturnUdt$ = 8					; size = 4
__Src$ = 12						; size = 4
??$_Unchecked@V?$back_insert_iterator@V?$vector@UInvenBlockItem@ioUserBlockStorage@@V?$allocator@UInvenBlockItem@ioUserBlockStorage@@@std@@@std@@@std@@@std@@YA?AV?$back_insert_iterator@V?$vector@UInvenBlockItem@ioUserBlockStorage@@V?$allocator@UInvenBlockItem@ioUserBlockStorage@@@std@@@std@@@0@V10@@Z PROC ; std::_Unchecked<std::back_insert_iterator<std::vector<ioUserBlockStorage::InvenBlockItem,std::allocator<ioUserBlockStorage::InvenBlockItem> > > >, COMDAT

; 266  : 	{	// construct unchecked from checked, generic

  00000	55		 push	 ebp
  00001	8b ec		 mov	 ebp, esp

; 267  : 	return (_Src);

  00003	8b 45 08	 mov	 eax, DWORD PTR ___$ReturnUdt$[ebp]
  00006	8b 4d 0c	 mov	 ecx, DWORD PTR __Src$[ebp]
  00009	89 08		 mov	 DWORD PTR [eax], ecx

; 268  : 	}

  0000b	5d		 pop	 ebp
  0000c	c3		 ret	 0
??$_Unchecked@V?$back_insert_iterator@V?$vector@UInvenBlockItem@ioUserBlockStorage@@V?$allocator@UInvenBlockItem@ioUserBlockStorage@@@std@@@std@@@std@@@std@@YA?AV?$back_insert_iterator@V?$vector@UInvenBlockItem@ioUserBlockStorage@@V?$allocator@UInvenBlockItem@ioUserBlockStorage@@@std@@@std@@@0@V10@@Z ENDP ; std::_Unchecked<std::back_insert_iterator<std::vector<ioUserBlockStorage::InvenBlockItem,std::allocator<ioUserBlockStorage::InvenBlockItem> > > >
_TEXT	ENDS
PUBLIC	??$_Rechecked@V?$back_insert_iterator@V?$vector@UInvenBlockItem@ioUserBlockStorage@@V?$allocator@UInvenBlockItem@ioUserBlockStorage@@@std@@@std@@@std@@V12@@std@@YAAAV?$back_insert_iterator@V?$vector@UInvenBlockItem@ioUserBlockStorage@@V?$allocator@UInvenBlockItem@ioUserBlockStorage@@@std@@@std@@@0@AAV10@V10@@Z ; std::_Rechecked<std::back_insert_iterator<std::vector<ioUserBlockStorage::InvenBlockItem,std::allocator<ioUserBlockStorage::InvenBlockItem> > >,std::back_insert_iterator<std::vector<ioUserBlockStorage::InvenBlockItem,std::allocator<ioUserBlockStorage::InvenBlockItem> > > >
; Function compile flags: /Ogsp
;	COMDAT ??$_Rechecked@V?$back_insert_iterator@V?$vector@UInvenBlockItem@ioUserBlockStorage@@V?$allocator@UInvenBlockItem@ioUserBlockStorage@@@std@@@std@@@std@@V12@@std@@YAAAV?$back_insert_iterator@V?$vector@UInvenBlockItem@ioUserBlockStorage@@V?$allocator@UInvenBlockItem@ioUserBlockStorage@@@std@@@std@@@0@AAV10@V10@@Z
_TEXT	SEGMENT
__Dest$ = 8						; size = 4
__Src$ = 12						; size = 4
??$_Rechecked@V?$back_insert_iterator@V?$vector@UInvenBlockItem@ioUserBlockStorage@@V?$allocator@UInvenBlockItem@ioUserBlockStorage@@@std@@@std@@@std@@V12@@std@@YAAAV?$back_insert_iterator@V?$vector@UInvenBlockItem@ioUserBlockStorage@@V?$allocator@UInvenBlockItem@ioUserBlockStorage@@@std@@@std@@@0@AAV10@V10@@Z PROC ; std::_Rechecked<std::back_insert_iterator<std::vector<ioUserBlockStorage::InvenBlockItem,std::allocator<ioUserBlockStorage::InvenBlockItem> > >,std::back_insert_iterator<std::vector<ioUserBlockStorage::InvenBlockItem,std::allocator<ioUserBlockStorage::InvenBlockItem> > > >, COMDAT

; 274  : 	{	// reset checked from unchecked, generic

  00000	55		 push	 ebp
  00001	8b ec		 mov	 ebp, esp

; 275  : 	_Dest = _Src;

  00003	8b 45 08	 mov	 eax, DWORD PTR __Dest$[ebp]
  00006	8b 4d 0c	 mov	 ecx, DWORD PTR __Src$[ebp]
  00009	89 08		 mov	 DWORD PTR [eax], ecx

; 276  : 	return (_Dest);
; 277  : 	}

  0000b	5d		 pop	 ebp
  0000c	c3		 ret	 0
??$_Rechecked@V?$back_insert_iterator@V?$vector@UInvenBlockItem@ioUserBlockStorage@@V?$allocator@UInvenBlockItem@ioUserBlockStorage@@@std@@@std@@@std@@V12@@std@@YAAAV?$back_insert_iterator@V?$vector@UInvenBlockItem@ioUserBlockStorage@@V?$allocator@UInvenBlockItem@ioUserBlockStorage@@@std@@@std@@@0@AAV10@V10@@Z ENDP ; std::_Rechecked<std::back_insert_iterator<std::vector<ioUserBlockStorage::InvenBlockItem,std::allocator<ioUserBlockStorage::InvenBlockItem> > >,std::back_insert_iterator<std::vector<ioUserBlockStorage::InvenBlockItem,std::allocator<ioUserBlockStorage::InvenBlockItem> > > >
_TEXT	ENDS
PUBLIC	??$forward@AAVioBlockDBItem@@@std@@YAAAVioBlockDBItem@@AAV1@@Z ; std::forward<ioBlockDBItem &>
; Function compile flags: /Ogsp
; File c:\program files (x86)\microsoft visual studio 10.0\vc\include\utility
;	COMDAT ??$forward@AAVioBlockDBItem@@@std@@YAAAVioBlockDBItem@@AAV1@@Z
_TEXT	SEGMENT
__Arg$ = 8						; size = 4
??$forward@AAVioBlockDBItem@@@std@@YAAAVioBlockDBItem@@AAV1@@Z PROC ; std::forward<ioBlockDBItem &>, COMDAT

; 78   : 	{	// forward _Arg, given explicitly specified type parameter

  00000	55		 push	 ebp
  00001	8b ec		 mov	 ebp, esp

; 79   : 	return ((_Ty&&)_Arg);

  00003	8b 45 08	 mov	 eax, DWORD PTR __Arg$[ebp]

; 80   : 	}

  00006	5d		 pop	 ebp
  00007	c3		 ret	 0
??$forward@AAVioBlockDBItem@@@std@@YAAAVioBlockDBItem@@AAV1@@Z ENDP ; std::forward<ioBlockDBItem &>
_TEXT	ENDS
PUBLIC	??$forward@ABVioBlockDBItem@@@std@@YAABVioBlockDBItem@@ABV1@@Z ; std::forward<ioBlockDBItem const &>
; Function compile flags: /Ogsp
;	COMDAT ??$forward@ABVioBlockDBItem@@@std@@YAABVioBlockDBItem@@ABV1@@Z
_TEXT	SEGMENT
__Arg$ = 8						; size = 4
??$forward@ABVioBlockDBItem@@@std@@YAABVioBlockDBItem@@ABV1@@Z PROC ; std::forward<ioBlockDBItem const &>, COMDAT

; 78   : 	{	// forward _Arg, given explicitly specified type parameter

  00000	55		 push	 ebp
  00001	8b ec		 mov	 ebp, esp

; 79   : 	return ((_Ty&&)_Arg);

  00003	8b 45 08	 mov	 eax, DWORD PTR __Arg$[ebp]

; 80   : 	}

  00006	5d		 pop	 ebp
  00007	c3		 ret	 0
??$forward@ABVioBlockDBItem@@@std@@YAABVioBlockDBItem@@ABV1@@Z ENDP ; std::forward<ioBlockDBItem const &>
_TEXT	ENDS
PUBLIC	??$_Ptr_cat@UInvenBlockItem@ioUserBlockStorage@@U12@@std@@YA?AU_Nonscalar_ptr_iterator_tag@0@PAUInvenBlockItem@ioUserBlockStorage@@0@Z ; std::_Ptr_cat<ioUserBlockStorage::InvenBlockItem,ioUserBlockStorage::InvenBlockItem>
; Function compile flags: /Ogsp
; File c:\program files (x86)\microsoft visual studio 10.0\vc\include\xutility
;	COMDAT ??$_Ptr_cat@UInvenBlockItem@ioUserBlockStorage@@U12@@std@@YA?AU_Nonscalar_ptr_iterator_tag@0@PAUInvenBlockItem@ioUserBlockStorage@@0@Z
_TEXT	SEGMENT
__Cat$ = -1						; size = 1
___formal$ = 8						; size = 4
___formal$ = 12						; size = 4
??$_Ptr_cat@UInvenBlockItem@ioUserBlockStorage@@U12@@std@@YA?AU_Nonscalar_ptr_iterator_tag@0@PAUInvenBlockItem@ioUserBlockStorage@@0@Z PROC ; std::_Ptr_cat<ioUserBlockStorage::InvenBlockItem,ioUserBlockStorage::InvenBlockItem>, COMDAT

; 516  : 	{	// return pointer category from pointers

  00000	55		 push	 ebp
  00001	8b ec		 mov	 ebp, esp
  00003	51		 push	 ecx

; 517  : 	typename _Ptr_cat_helper<_Elem1, _Elem2>::_Type _Cat;
; 518  : 	return (_Cat);

  00004	8a 45 ff	 mov	 al, BYTE PTR __Cat$[ebp]

; 519  : 	}

  00007	c9		 leave
  00008	c3		 ret	 0
??$_Ptr_cat@UInvenBlockItem@ioUserBlockStorage@@U12@@std@@YA?AU_Nonscalar_ptr_iterator_tag@0@PAUInvenBlockItem@ioUserBlockStorage@@0@Z ENDP ; std::_Ptr_cat<ioUserBlockStorage::InvenBlockItem,ioUserBlockStorage::InvenBlockItem>
_TEXT	ENDS
PUBLIC	??$forward@AAUInvenBlockItem@ioUserBlockStorage@@@std@@YAAAUInvenBlockItem@ioUserBlockStorage@@AAU12@@Z ; std::forward<ioUserBlockStorage::InvenBlockItem &>
; Function compile flags: /Ogsp
; File c:\program files (x86)\microsoft visual studio 10.0\vc\include\utility
;	COMDAT ??$forward@AAUInvenBlockItem@ioUserBlockStorage@@@std@@YAAAUInvenBlockItem@ioUserBlockStorage@@AAU12@@Z
_TEXT	SEGMENT
__Arg$ = 8						; size = 4
??$forward@AAUInvenBlockItem@ioUserBlockStorage@@@std@@YAAAUInvenBlockItem@ioUserBlockStorage@@AAU12@@Z PROC ; std::forward<ioUserBlockStorage::InvenBlockItem &>, COMDAT

; 78   : 	{	// forward _Arg, given explicitly specified type parameter

  00000	55		 push	 ebp
  00001	8b ec		 mov	 ebp, esp

; 79   : 	return ((_Ty&&)_Arg);

  00003	8b 45 08	 mov	 eax, DWORD PTR __Arg$[ebp]

; 80   : 	}

  00006	5d		 pop	 ebp
  00007	c3		 ret	 0
??$forward@AAUInvenBlockItem@ioUserBlockStorage@@@std@@YAAAUInvenBlockItem@ioUserBlockStorage@@AAU12@@Z ENDP ; std::forward<ioUserBlockStorage::InvenBlockItem &>
_TEXT	ENDS
PUBLIC	??$forward@ABUInvenBlockItem@ioUserBlockStorage@@@std@@YAABUInvenBlockItem@ioUserBlockStorage@@ABU12@@Z ; std::forward<ioUserBlockStorage::InvenBlockItem const &>
; Function compile flags: /Ogsp
;	COMDAT ??$forward@ABUInvenBlockItem@ioUserBlockStorage@@@std@@YAABUInvenBlockItem@ioUserBlockStorage@@ABU12@@Z
_TEXT	SEGMENT
__Arg$ = 8						; size = 4
??$forward@ABUInvenBlockItem@ioUserBlockStorage@@@std@@YAABUInvenBlockItem@ioUserBlockStorage@@ABU12@@Z PROC ; std::forward<ioUserBlockStorage::InvenBlockItem const &>, COMDAT

; 78   : 	{	// forward _Arg, given explicitly specified type parameter

  00000	55		 push	 ebp
  00001	8b ec		 mov	 ebp, esp

; 79   : 	return ((_Ty&&)_Arg);

  00003	8b 45 08	 mov	 eax, DWORD PTR __Arg$[ebp]

; 80   : 	}

  00006	5d		 pop	 ebp
  00007	c3		 ret	 0
??$forward@ABUInvenBlockItem@ioUserBlockStorage@@@std@@YAABUInvenBlockItem@ioUserBlockStorage@@ABU12@@Z ENDP ; std::forward<ioUserBlockStorage::InvenBlockItem const &>
_TEXT	ENDS
PUBLIC	??$_Ptr_cat@VioBlockDBItem@@V1@@std@@YA?AU_Nonscalar_ptr_iterator_tag@0@PAVioBlockDBItem@@0@Z ; std::_Ptr_cat<ioBlockDBItem,ioBlockDBItem>
; Function compile flags: /Ogsp
; File c:\program files (x86)\microsoft visual studio 10.0\vc\include\xutility
;	COMDAT ??$_Ptr_cat@VioBlockDBItem@@V1@@std@@YA?AU_Nonscalar_ptr_iterator_tag@0@PAVioBlockDBItem@@0@Z
_TEXT	SEGMENT
__Cat$ = -1						; size = 1
___formal$ = 8						; size = 4
___formal$ = 12						; size = 4
??$_Ptr_cat@VioBlockDBItem@@V1@@std@@YA?AU_Nonscalar_ptr_iterator_tag@0@PAVioBlockDBItem@@0@Z PROC ; std::_Ptr_cat<ioBlockDBItem,ioBlockDBItem>, COMDAT

; 516  : 	{	// return pointer category from pointers

  00000	55		 push	 ebp
  00001	8b ec		 mov	 ebp, esp
  00003	51		 push	 ecx

; 517  : 	typename _Ptr_cat_helper<_Elem1, _Elem2>::_Type _Cat;
; 518  : 	return (_Cat);

  00004	8a 45 ff	 mov	 al, BYTE PTR __Cat$[ebp]

; 519  : 	}

  00007	c9		 leave
  00008	c3		 ret	 0
??$_Ptr_cat@VioBlockDBItem@@V1@@std@@YA?AU_Nonscalar_ptr_iterator_tag@0@PAVioBlockDBItem@@0@Z ENDP ; std::_Ptr_cat<ioBlockDBItem,ioBlockDBItem>
_TEXT	ENDS
PUBLIC	??_7ioBlockDBItem@@6B@				; ioBlockDBItem::`vftable'
PUBLIC	??0ioBlockDBItem@@QAE@ABV0@@Z			; ioBlockDBItem::ioBlockDBItem
PUBLIC	??_R4ioBlockDBItem@@6B@				; ioBlockDBItem::`RTTI Complete Object Locator'
PUBLIC	??_R0?AVioBlockDBItem@@@8			; ioBlockDBItem `RTTI Type Descriptor'
PUBLIC	??_R3ioBlockDBItem@@8				; ioBlockDBItem::`RTTI Class Hierarchy Descriptor'
PUBLIC	??_R2ioBlockDBItem@@8				; ioBlockDBItem::`RTTI Base Class Array'
PUBLIC	??_R1A@?0A@EA@ioBlockDBItem@@8			; ioBlockDBItem::`RTTI Base Class Descriptor at (0,-1,0,64)'
EXTRN	??_EioBlockDBItem@@UAEPAXI@Z:PROC		; ioBlockDBItem::`vector deleting destructor'
;	COMDAT ??_R1A@?0A@EA@ioBlockDBItem@@8
rdata$r	SEGMENT
??_R1A@?0A@EA@ioBlockDBItem@@8 DD FLAT:??_R0?AVioBlockDBItem@@@8 ; ioBlockDBItem::`RTTI Base Class Descriptor at (0,-1,0,64)'
	DD	00H
	DD	00H
	DD	0ffffffffH
	DD	00H
	DD	040H
	DD	FLAT:??_R3ioBlockDBItem@@8
rdata$r	ENDS
;	COMDAT ??_R2ioBlockDBItem@@8
rdata$r	SEGMENT
??_R2ioBlockDBItem@@8 DD FLAT:??_R1A@?0A@EA@ioBlockDBItem@@8 ; ioBlockDBItem::`RTTI Base Class Array'
rdata$r	ENDS
;	COMDAT ??_R3ioBlockDBItem@@8
rdata$r	SEGMENT
??_R3ioBlockDBItem@@8 DD 00H				; ioBlockDBItem::`RTTI Class Hierarchy Descriptor'
	DD	00H
	DD	01H
	DD	FLAT:??_R2ioBlockDBItem@@8
rdata$r	ENDS
;	COMDAT ??_R0?AVioBlockDBItem@@@8
_DATA	SEGMENT
??_R0?AVioBlockDBItem@@@8 DD FLAT:??_7type_info@@6B@	; ioBlockDBItem `RTTI Type Descriptor'
	DD	00H
	DB	'.?AVioBlockDBItem@@', 00H
_DATA	ENDS
;	COMDAT ??_R4ioBlockDBItem@@6B@
rdata$r	SEGMENT
??_R4ioBlockDBItem@@6B@ DD 00H				; ioBlockDBItem::`RTTI Complete Object Locator'
	DD	00H
	DD	00H
	DD	FLAT:??_R0?AVioBlockDBItem@@@8
	DD	FLAT:??_R3ioBlockDBItem@@8
rdata$r	ENDS
;	COMDAT ??_7ioBlockDBItem@@6B@
CONST	SEGMENT
??_7ioBlockDBItem@@6B@ DD FLAT:??_R4ioBlockDBItem@@6B@	; ioBlockDBItem::`vftable'
	DD	FLAT:??_EioBlockDBItem@@UAEPAXI@Z
; Function compile flags: /Ogsp
CONST	ENDS
;	COMDAT ??0ioBlockDBItem@@QAE@ABV0@@Z
_TEXT	SEGMENT
___that$ = 8						; size = 4
??0ioBlockDBItem@@QAE@ABV0@@Z PROC			; ioBlockDBItem::ioBlockDBItem, COMDAT
; _this$ = ecx
  00000	55		 push	 ebp
  00001	8b ec		 mov	 ebp, esp
  00003	8b c1		 mov	 eax, ecx
  00005	8b 4d 08	 mov	 ecx, DWORD PTR ___that$[ebp]
  00008	c7 00 00 00 00
	00		 mov	 DWORD PTR [eax], OFFSET ??_7ioBlockDBItem@@6B@
  0000e	8b 51 08	 mov	 edx, DWORD PTR [ecx+8]
  00011	89 50 08	 mov	 DWORD PTR [eax+8], edx
  00014	8b 51 10	 mov	 edx, DWORD PTR [ecx+16]
  00017	89 50 10	 mov	 DWORD PTR [eax+16], edx
  0001a	8b 51 14	 mov	 edx, DWORD PTR [ecx+20]
  0001d	89 50 14	 mov	 DWORD PTR [eax+20], edx
  00020	8b 51 18	 mov	 edx, DWORD PTR [ecx+24]
  00023	89 50 18	 mov	 DWORD PTR [eax+24], edx
  00026	8b 51 1c	 mov	 edx, DWORD PTR [ecx+28]
  00029	89 50 1c	 mov	 DWORD PTR [eax+28], edx
  0002c	8b 51 20	 mov	 edx, DWORD PTR [ecx+32]
  0002f	89 50 20	 mov	 DWORD PTR [eax+32], edx
  00032	8a 49 24	 mov	 cl, BYTE PTR [ecx+36]
  00035	88 48 24	 mov	 BYTE PTR [eax+36], cl
  00038	5d		 pop	 ebp
  00039	c2 04 00	 ret	 4
??0ioBlockDBItem@@QAE@ABV0@@Z ENDP			; ioBlockDBItem::ioBlockDBItem
_TEXT	ENDS
PUBLIC	??4InvenBlockItem@ioUserBlockStorage@@QAEAAU01@ABU01@@Z ; ioUserBlockStorage::InvenBlockItem::operator=
EXTRN	__imp_??4ioHashString@@QAEAAV0@ABV0@@Z:PROC
; Function compile flags: /Ogsp
;	COMDAT ??4InvenBlockItem@ioUserBlockStorage@@QAEAAU01@ABU01@@Z
_TEXT	SEGMENT
___that$ = 8						; size = 4
??4InvenBlockItem@ioUserBlockStorage@@QAEAAU01@ABU01@@Z PROC ; ioUserBlockStorage::InvenBlockItem::operator=, COMDAT
; _this$ = ecx
  00000	55		 push	 ebp
  00001	8b ec		 mov	 ebp, esp
  00003	53		 push	 ebx
  00004	8b 1d 00 00 00
	00		 mov	 ebx, DWORD PTR __imp_??4ioHashString@@QAEAAV0@ABV0@@Z
  0000a	56		 push	 esi
  0000b	57		 push	 edi
  0000c	8b 7d 08	 mov	 edi, DWORD PTR ___that$[ebp]
  0000f	57		 push	 edi
  00010	8b f1		 mov	 esi, ecx
  00012	ff d3		 call	 ebx
  00014	8d 47 10	 lea	 eax, DWORD PTR [edi+16]
  00017	50		 push	 eax
  00018	8d 4e 10	 lea	 ecx, DWORD PTR [esi+16]
  0001b	ff d3		 call	 ebx
  0001d	8b 47 20	 mov	 eax, DWORD PTR [edi+32]
  00020	89 46 20	 mov	 DWORD PTR [esi+32], eax
  00023	8b 47 24	 mov	 eax, DWORD PTR [edi+36]
  00026	89 46 24	 mov	 DWORD PTR [esi+36], eax
  00029	8b 47 28	 mov	 eax, DWORD PTR [edi+40]
  0002c	89 46 28	 mov	 DWORD PTR [esi+40], eax
  0002f	8b 47 2c	 mov	 eax, DWORD PTR [edi+44]
  00032	89 46 2c	 mov	 DWORD PTR [esi+44], eax
  00035	8b 47 30	 mov	 eax, DWORD PTR [edi+48]
  00038	89 46 30	 mov	 DWORD PTR [esi+48], eax
  0003b	8b 47 34	 mov	 eax, DWORD PTR [edi+52]
  0003e	89 46 34	 mov	 DWORD PTR [esi+52], eax
  00041	5f		 pop	 edi
  00042	8b c6		 mov	 eax, esi
  00044	5e		 pop	 esi
  00045	5b		 pop	 ebx
  00046	5d		 pop	 ebp
  00047	c2 04 00	 ret	 4
??4InvenBlockItem@ioUserBlockStorage@@QAEAAU01@ABU01@@Z ENDP ; ioUserBlockStorage::InvenBlockItem::operator=
_TEXT	ENDS
PUBLIC	??0InvenBlockItem@ioUserBlockStorage@@QAE@ABU01@@Z ; ioUserBlockStorage::InvenBlockItem::InvenBlockItem
EXTRN	__imp_??0ioHashString@@QAE@ABV0@@Z:PROC
;	COMDAT xdata$x
xdata$x	SEGMENT
__unwindtable$??0InvenBlockItem@ioUserBlockStorage@@QAE@ABU01@@Z DD 0ffffffffH
	DD	FLAT:__unwindfunclet$??0InvenBlockItem@ioUserBlockStorage@@QAE@ABU01@@Z$0
__ehfuncinfo$??0InvenBlockItem@ioUserBlockStorage@@QAE@ABU01@@Z DD 019930522H
	DD	01H
	DD	FLAT:__unwindtable$??0InvenBlockItem@ioUserBlockStorage@@QAE@ABU01@@Z
	DD	2 DUP(00H)
	DD	2 DUP(00H)
	DD	00H
	DD	01H
; Function compile flags: /Ogsp
xdata$x	ENDS
;	COMDAT ??0InvenBlockItem@ioUserBlockStorage@@QAE@ABU01@@Z
_TEXT	SEGMENT
_this$ = -16						; size = 4
__$EHRec$ = -12						; size = 12
___that$ = 8						; size = 4
??0InvenBlockItem@ioUserBlockStorage@@QAE@ABU01@@Z PROC	; ioUserBlockStorage::InvenBlockItem::InvenBlockItem, COMDAT
; _this$ = ecx
  00000	6a 04		 push	 4
  00002	b8 00 00 00 00	 mov	 eax, __ehhandler$??0InvenBlockItem@ioUserBlockStorage@@QAE@ABU01@@Z
  00007	e8 00 00 00 00	 call	 __EH_prolog3
  0000c	8b f1		 mov	 esi, ecx
  0000e	89 75 f0	 mov	 DWORD PTR _this$[ebp], esi
  00011	8b 7d 08	 mov	 edi, DWORD PTR ___that$[ebp]
  00014	8b 1d 00 00 00
	00		 mov	 ebx, DWORD PTR __imp_??0ioHashString@@QAE@ABV0@@Z
  0001a	57		 push	 edi
  0001b	ff d3		 call	 ebx
  0001d	83 65 fc 00	 and	 DWORD PTR __$EHRec$[ebp+8], 0
  00021	8d 47 10	 lea	 eax, DWORD PTR [edi+16]
  00024	50		 push	 eax
  00025	8d 4e 10	 lea	 ecx, DWORD PTR [esi+16]
  00028	ff d3		 call	 ebx
  0002a	8b 47 20	 mov	 eax, DWORD PTR [edi+32]
  0002d	89 46 20	 mov	 DWORD PTR [esi+32], eax
  00030	8b 47 24	 mov	 eax, DWORD PTR [edi+36]
  00033	89 46 24	 mov	 DWORD PTR [esi+36], eax
  00036	8b 47 28	 mov	 eax, DWORD PTR [edi+40]
  00039	89 46 28	 mov	 DWORD PTR [esi+40], eax
  0003c	8b 47 2c	 mov	 eax, DWORD PTR [edi+44]
  0003f	89 46 2c	 mov	 DWORD PTR [esi+44], eax
  00042	8b 47 30	 mov	 eax, DWORD PTR [edi+48]
  00045	89 46 30	 mov	 DWORD PTR [esi+48], eax
  00048	8b 47 34	 mov	 eax, DWORD PTR [edi+52]
  0004b	89 46 34	 mov	 DWORD PTR [esi+52], eax
  0004e	8b c6		 mov	 eax, esi
  00050	e8 00 00 00 00	 call	 __EH_epilog3
  00055	c2 04 00	 ret	 4
_TEXT	ENDS
;	COMDAT text$x
text$x	SEGMENT
__unwindfunclet$??0InvenBlockItem@ioUserBlockStorage@@QAE@ABU01@@Z$0:
  00000	8b 4d f0	 mov	 ecx, DWORD PTR _this$[ebp]
  00003	ff 25 00 00 00
	00		 jmp	 DWORD PTR __imp_??1ioHashString@@QAE@XZ
__ehhandler$??0InvenBlockItem@ioUserBlockStorage@@QAE@ABU01@@Z:
  00009	8b 54 24 08	 mov	 edx, DWORD PTR [esp+8]
  0000d	8d 42 0c	 lea	 eax, DWORD PTR [edx+12]
  00010	8b 4a ec	 mov	 ecx, DWORD PTR [edx-20]
  00013	33 c8		 xor	 ecx, eax
  00015	e8 00 00 00 00	 call	 @__security_check_cookie@4
  0001a	b8 00 00 00 00	 mov	 eax, OFFSET __ehfuncinfo$??0InvenBlockItem@ioUserBlockStorage@@QAE@ABU01@@Z
  0001f	e9 00 00 00 00	 jmp	 ___CxxFrameHandler3
text$x	ENDS
??0InvenBlockItem@ioUserBlockStorage@@QAE@ABU01@@Z ENDP	; ioUserBlockStorage::InvenBlockItem::InvenBlockItem
PUBLIC	??4ioBlockDBItem@@QAEAAV0@ABV0@@Z		; ioBlockDBItem::operator=
; Function compile flags: /Ogsp
;	COMDAT ??4ioBlockDBItem@@QAEAAV0@ABV0@@Z
_TEXT	SEGMENT
___that$ = 8						; size = 4
??4ioBlockDBItem@@QAEAAV0@ABV0@@Z PROC			; ioBlockDBItem::operator=, COMDAT
; _this$ = ecx
  00000	55		 push	 ebp
  00001	8b ec		 mov	 ebp, esp
  00003	8b c1		 mov	 eax, ecx
  00005	8b 4d 08	 mov	 ecx, DWORD PTR ___that$[ebp]
  00008	8b 51 08	 mov	 edx, DWORD PTR [ecx+8]
  0000b	89 50 08	 mov	 DWORD PTR [eax+8], edx
  0000e	8b 51 10	 mov	 edx, DWORD PTR [ecx+16]
  00011	89 50 10	 mov	 DWORD PTR [eax+16], edx
  00014	8b 51 14	 mov	 edx, DWORD PTR [ecx+20]
  00017	89 50 14	 mov	 DWORD PTR [eax+20], edx
  0001a	8b 51 18	 mov	 edx, DWORD PTR [ecx+24]
  0001d	89 50 18	 mov	 DWORD PTR [eax+24], edx
  00020	8b 51 1c	 mov	 edx, DWORD PTR [ecx+28]
  00023	89 50 1c	 mov	 DWORD PTR [eax+28], edx
  00026	8b 51 20	 mov	 edx, DWORD PTR [ecx+32]
  00029	89 50 20	 mov	 DWORD PTR [eax+32], edx
  0002c	8a 49 24	 mov	 cl, BYTE PTR [ecx+36]
  0002f	88 48 24	 mov	 BYTE PTR [eax+36], cl
  00032	5d		 pop	 ebp
  00033	c2 04 00	 ret	 4
??4ioBlockDBItem@@QAEAAV0@ABV0@@Z ENDP			; ioBlockDBItem::operator=
_TEXT	ENDS
EXTRN	??1ioBlockDBItem@@UAE@XZ:PROC			; ioBlockDBItem::~ioBlockDBItem
; Function compile flags: /Ogsp
;	COMDAT ??_GioBlockDBItem@@UAEPAXI@Z
_TEXT	SEGMENT
___flags$ = 8						; size = 4
??_GioBlockDBItem@@UAEPAXI@Z PROC			; ioBlockDBItem::`scalar deleting destructor', COMDAT
; _this$ = ecx
  00000	55		 push	 ebp
  00001	8b ec		 mov	 ebp, esp
  00003	56		 push	 esi
  00004	8b f1		 mov	 esi, ecx
  00006	e8 00 00 00 00	 call	 ??1ioBlockDBItem@@UAE@XZ ; ioBlockDBItem::~ioBlockDBItem
  0000b	f6 45 08 01	 test	 BYTE PTR ___flags$[ebp], 1
  0000f	74 07		 je	 SHORT $LN1@scalar@2
  00011	56		 push	 esi
  00012	e8 00 00 00 00	 call	 ??3@YAXPAX@Z		; operator delete
  00017	59		 pop	 ecx
$LN1@scalar@2:
  00018	8b c6		 mov	 eax, esi
  0001a	5e		 pop	 esi
  0001b	5d		 pop	 ebp
  0001c	c2 04 00	 ret	 4
??_GioBlockDBItem@@UAEPAXI@Z ENDP			; ioBlockDBItem::`scalar deleting destructor'
_TEXT	ENDS
PUBLIC	?_Unchecked@?$_Vector_iterator@V?$_Vector_val@UInvenBlockItem@ioUserBlockStorage@@V?$allocator@UInvenBlockItem@ioUserBlockStorage@@@std@@@std@@@std@@QBEPAUInvenBlockItem@ioUserBlockStorage@@XZ ; std::_Vector_iterator<std::_Vector_val<ioUserBlockStorage::InvenBlockItem,std::allocator<ioUserBlockStorage::InvenBlockItem> > >::_Unchecked
; Function compile flags: /Ogsp
; File c:\program files (x86)\microsoft visual studio 10.0\vc\include\vector
;	COMDAT ?_Unchecked@?$_Vector_iterator@V?$_Vector_val@UInvenBlockItem@ioUserBlockStorage@@V?$allocator@UInvenBlockItem@ioUserBlockStorage@@@std@@@std@@@std@@QBEPAUInvenBlockItem@ioUserBlockStorage@@XZ
_TEXT	SEGMENT
?_Unchecked@?$_Vector_iterator@V?$_Vector_val@UInvenBlockItem@ioUserBlockStorage@@V?$allocator@UInvenBlockItem@ioUserBlockStorage@@@std@@@std@@@std@@QBEPAUInvenBlockItem@ioUserBlockStorage@@XZ PROC ; std::_Vector_iterator<std::_Vector_val<ioUserBlockStorage::InvenBlockItem,std::allocator<ioUserBlockStorage::InvenBlockItem> > >::_Unchecked, COMDAT
; _this$ = ecx

; 317  : 		return (_Unchecked_type(this->_Ptr));

  00000	8b 01		 mov	 eax, DWORD PTR [ecx]

; 318  : 		}

  00002	c3		 ret	 0
?_Unchecked@?$_Vector_iterator@V?$_Vector_val@UInvenBlockItem@ioUserBlockStorage@@V?$allocator@UInvenBlockItem@ioUserBlockStorage@@@std@@@std@@@std@@QBEPAUInvenBlockItem@ioUserBlockStorage@@XZ ENDP ; std::_Vector_iterator<std::_Vector_val<ioUserBlockStorage::InvenBlockItem,std::allocator<ioUserBlockStorage::InvenBlockItem> > >::_Unchecked
_TEXT	ENDS
PUBLIC	??$_Ptr_cat@PAUInvenBlockItem@ioUserBlockStorage@@V?$back_insert_iterator@V?$vector@UInvenBlockItem@ioUserBlockStorage@@V?$allocator@UInvenBlockItem@ioUserBlockStorage@@@std@@@std@@@std@@@std@@YA?AU_Nonscalar_ptr_iterator_tag@0@AAPAUInvenBlockItem@ioUserBlockStorage@@AAV?$back_insert_iterator@V?$vector@UInvenBlockItem@ioUserBlockStorage@@V?$allocator@UInvenBlockItem@ioUserBlockStorage@@@std@@@std@@@0@@Z ; std::_Ptr_cat<ioUserBlockStorage::InvenBlockItem *,std::back_insert_iterator<std::vector<ioUserBlockStorage::InvenBlockItem,std::allocator<ioUserBlockStorage::InvenBlockItem> > > >
; Function compile flags: /Ogsp
; File c:\program files (x86)\microsoft visual studio 10.0\vc\include\xutility
;	COMDAT ??$_Ptr_cat@PAUInvenBlockItem@ioUserBlockStorage@@V?$back_insert_iterator@V?$vector@UInvenBlockItem@ioUserBlockStorage@@V?$allocator@UInvenBlockItem@ioUserBlockStorage@@@std@@@std@@@std@@@std@@YA?AU_Nonscalar_ptr_iterator_tag@0@AAPAUInvenBlockItem@ioUserBlockStorage@@AAV?$back_insert_iterator@V?$vector@UInvenBlockItem@ioUserBlockStorage@@V?$allocator@UInvenBlockItem@ioUserBlockStorage@@@std@@@std@@@0@@Z
_TEXT	SEGMENT
__Cat$ = -1						; size = 1
___formal$ = 8						; size = 4
___formal$ = 12						; size = 4
??$_Ptr_cat@PAUInvenBlockItem@ioUserBlockStorage@@V?$back_insert_iterator@V?$vector@UInvenBlockItem@ioUserBlockStorage@@V?$allocator@UInvenBlockItem@ioUserBlockStorage@@@std@@@std@@@std@@@std@@YA?AU_Nonscalar_ptr_iterator_tag@0@AAPAUInvenBlockItem@ioUserBlockStorage@@AAV?$back_insert_iterator@V?$vector@UInvenBlockItem@ioUserBlockStorage@@V?$allocator@UInvenBlockItem@ioUserBlockStorage@@@std@@@std@@@0@@Z PROC ; std::_Ptr_cat<ioUserBlockStorage::InvenBlockItem *,std::back_insert_iterator<std::vector<ioUserBlockStorage::InvenBlockItem,std::allocator<ioUserBlockStorage::InvenBlockItem> > > >, COMDAT

; 485  : 	{	// return pointer category from arbitrary arguments

  00000	55		 push	 ebp
  00001	8b ec		 mov	 ebp, esp
  00003	51		 push	 ecx

; 486  : 	_Nonscalar_ptr_iterator_tag _Cat;
; 487  : 	return (_Cat);

  00004	8a 45 ff	 mov	 al, BYTE PTR __Cat$[ebp]

; 488  : 	}

  00007	c9		 leave
  00008	c3		 ret	 0
??$_Ptr_cat@PAUInvenBlockItem@ioUserBlockStorage@@V?$back_insert_iterator@V?$vector@UInvenBlockItem@ioUserBlockStorage@@V?$allocator@UInvenBlockItem@ioUserBlockStorage@@@std@@@std@@@std@@@std@@YA?AU_Nonscalar_ptr_iterator_tag@0@AAPAUInvenBlockItem@ioUserBlockStorage@@AAV?$back_insert_iterator@V?$vector@UInvenBlockItem@ioUserBlockStorage@@V?$allocator@UInvenBlockItem@ioUserBlockStorage@@@std@@@std@@@0@@Z ENDP ; std::_Ptr_cat<ioUserBlockStorage::InvenBlockItem *,std::back_insert_iterator<std::vector<ioUserBlockStorage::InvenBlockItem,std::allocator<ioUserBlockStorage::InvenBlockItem> > > >
_TEXT	ENDS
PUBLIC	??$move@AAVioBlockDBItem@@@std@@YA$$QAVioBlockDBItem@@AAV1@@Z ; std::move<ioBlockDBItem &>
; Function compile flags: /Ogsp
; File c:\program files (x86)\microsoft visual studio 10.0\vc\include\utility
;	COMDAT ??$move@AAVioBlockDBItem@@@std@@YA$$QAVioBlockDBItem@@AAV1@@Z
_TEXT	SEGMENT
__Arg$ = 8						; size = 4
??$move@AAVioBlockDBItem@@@std@@YA$$QAVioBlockDBItem@@AAV1@@Z PROC ; std::move<ioBlockDBItem &>, COMDAT

; 86   : 	{	// forward _Arg as movable

  00000	55		 push	 ebp
  00001	8b ec		 mov	 ebp, esp

; 87   : 	return ((typename tr1::_Remove_reference<_Ty>::_Type&&)_Arg);

  00003	8b 45 08	 mov	 eax, DWORD PTR __Arg$[ebp]

; 88   : 	}

  00006	5d		 pop	 ebp
  00007	c3		 ret	 0
??$move@AAVioBlockDBItem@@@std@@YA$$QAVioBlockDBItem@@AAV1@@Z ENDP ; std::move<ioBlockDBItem &>
_TEXT	ENDS
PUBLIC	??$move@AAUInvenBlockItem@ioUserBlockStorage@@@std@@YA$$QAUInvenBlockItem@ioUserBlockStorage@@AAU12@@Z ; std::move<ioUserBlockStorage::InvenBlockItem &>
; Function compile flags: /Ogsp
;	COMDAT ??$move@AAUInvenBlockItem@ioUserBlockStorage@@@std@@YA$$QAUInvenBlockItem@ioUserBlockStorage@@AAU12@@Z
_TEXT	SEGMENT
__Arg$ = 8						; size = 4
??$move@AAUInvenBlockItem@ioUserBlockStorage@@@std@@YA$$QAUInvenBlockItem@ioUserBlockStorage@@AAU12@@Z PROC ; std::move<ioUserBlockStorage::InvenBlockItem &>, COMDAT

; 86   : 	{	// forward _Arg as movable

  00000	55		 push	 ebp
  00001	8b ec		 mov	 ebp, esp

; 87   : 	return ((typename tr1::_Remove_reference<_Ty>::_Type&&)_Arg);

  00003	8b 45 08	 mov	 eax, DWORD PTR __Arg$[ebp]

; 88   : 	}

  00006	5d		 pop	 ebp
  00007	c3		 ret	 0
??$move@AAUInvenBlockItem@ioUserBlockStorage@@@std@@YA$$QAUInvenBlockItem@ioUserBlockStorage@@AAU12@@Z ENDP ; std::move<ioUserBlockStorage::InvenBlockItem &>
_TEXT	ENDS
PUBLIC	??$_Val_type@PAVioBlockDBItem@@@std@@YAPAVioBlockDBItem@@PAV1@@Z ; std::_Val_type<ioBlockDBItem *>
; Function compile flags: /Ogsp
; File c:\program files (x86)\microsoft visual studio 10.0\vc\include\xutility
;	COMDAT ??$_Val_type@PAVioBlockDBItem@@@std@@YAPAVioBlockDBItem@@PAV1@@Z
_TEXT	SEGMENT
___formal$ = 8						; size = 4
??$_Val_type@PAVioBlockDBItem@@@std@@YAPAVioBlockDBItem@@PAV1@@Z PROC ; std::_Val_type<ioBlockDBItem *>, COMDAT

; 790  : 	return (0);

  00000	33 c0		 xor	 eax, eax

; 791  : 	}

  00002	c3		 ret	 0
??$_Val_type@PAVioBlockDBItem@@@std@@YAPAVioBlockDBItem@@PAV1@@Z ENDP ; std::_Val_type<ioBlockDBItem *>
_TEXT	ENDS
PUBLIC	??$_Val_type@PAUInvenBlockItem@ioUserBlockStorage@@@std@@YAPAUInvenBlockItem@ioUserBlockStorage@@PAU12@@Z ; std::_Val_type<ioUserBlockStorage::InvenBlockItem *>
; Function compile flags: /Ogsp
;	COMDAT ??$_Val_type@PAUInvenBlockItem@ioUserBlockStorage@@@std@@YAPAUInvenBlockItem@ioUserBlockStorage@@PAU12@@Z
_TEXT	SEGMENT
___formal$ = 8						; size = 4
??$_Val_type@PAUInvenBlockItem@ioUserBlockStorage@@@std@@YAPAUInvenBlockItem@ioUserBlockStorage@@PAU12@@Z PROC ; std::_Val_type<ioUserBlockStorage::InvenBlockItem *>, COMDAT

; 790  : 	return (0);

  00000	33 c0		 xor	 eax, eax

; 791  : 	}

  00002	c3		 ret	 0
??$_Val_type@PAUInvenBlockItem@ioUserBlockStorage@@@std@@YAPAUInvenBlockItem@ioUserBlockStorage@@PAU12@@Z ENDP ; std::_Val_type<ioUserBlockStorage::InvenBlockItem *>
_TEXT	ENDS
PUBLIC	??D?$back_insert_iterator@V?$vector@UInvenBlockItem@ioUserBlockStorage@@V?$allocator@UInvenBlockItem@ioUserBlockStorage@@@std@@@std@@@std@@QAEAAV01@XZ ; std::back_insert_iterator<std::vector<ioUserBlockStorage::InvenBlockItem,std::allocator<ioUserBlockStorage::InvenBlockItem> > >::operator*
; Function compile flags: /Ogsp
; File c:\program files (x86)\microsoft visual studio 10.0\vc\include\iterator
;	COMDAT ??D?$back_insert_iterator@V?$vector@UInvenBlockItem@ioUserBlockStorage@@V?$allocator@UInvenBlockItem@ioUserBlockStorage@@@std@@@std@@@std@@QAEAAV01@XZ
_TEXT	SEGMENT
??D?$back_insert_iterator@V?$vector@UInvenBlockItem@ioUserBlockStorage@@V?$allocator@UInvenBlockItem@ioUserBlockStorage@@@std@@@std@@@std@@QAEAAV01@XZ PROC ; std::back_insert_iterator<std::vector<ioUserBlockStorage::InvenBlockItem,std::allocator<ioUserBlockStorage::InvenBlockItem> > >::operator*, COMDAT
; _this$ = ecx

; 42   : 		{	// pretend to return designated value

  00000	8b c1		 mov	 eax, ecx

; 43   : 		return (*this);
; 44   : 		}

  00002	c3		 ret	 0
??D?$back_insert_iterator@V?$vector@UInvenBlockItem@ioUserBlockStorage@@V?$allocator@UInvenBlockItem@ioUserBlockStorage@@@std@@@std@@@std@@QAEAAV01@XZ ENDP ; std::back_insert_iterator<std::vector<ioUserBlockStorage::InvenBlockItem,std::allocator<ioUserBlockStorage::InvenBlockItem> > >::operator*
_TEXT	ENDS
PUBLIC	??E?$back_insert_iterator@V?$vector@UInvenBlockItem@ioUserBlockStorage@@V?$allocator@UInvenBlockItem@ioUserBlockStorage@@@std@@@std@@@std@@QAEAAV01@XZ ; std::back_insert_iterator<std::vector<ioUserBlockStorage::InvenBlockItem,std::allocator<ioUserBlockStorage::InvenBlockItem> > >::operator++
; Function compile flags: /Ogsp
;	COMDAT ??E?$back_insert_iterator@V?$vector@UInvenBlockItem@ioUserBlockStorage@@V?$allocator@UInvenBlockItem@ioUserBlockStorage@@@std@@@std@@@std@@QAEAAV01@XZ
_TEXT	SEGMENT
??E?$back_insert_iterator@V?$vector@UInvenBlockItem@ioUserBlockStorage@@V?$allocator@UInvenBlockItem@ioUserBlockStorage@@@std@@@std@@@std@@QAEAAV01@XZ PROC ; std::back_insert_iterator<std::vector<ioUserBlockStorage::InvenBlockItem,std::allocator<ioUserBlockStorage::InvenBlockItem> > >::operator++, COMDAT
; _this$ = ecx

; 47   : 		{	// pretend to preincrement

  00000	8b c1		 mov	 eax, ecx

; 48   : 		return (*this);
; 49   : 		}

  00002	c3		 ret	 0
??E?$back_insert_iterator@V?$vector@UInvenBlockItem@ioUserBlockStorage@@V?$allocator@UInvenBlockItem@ioUserBlockStorage@@@std@@@std@@@std@@QAEAAV01@XZ ENDP ; std::back_insert_iterator<std::vector<ioUserBlockStorage::InvenBlockItem,std::allocator<ioUserBlockStorage::InvenBlockItem> > >::operator++
_TEXT	ENDS
PUBLIC	??$_Unchecked@PAUInvenBlockItem@ioUserBlockStorage@@@std@@YAPAUInvenBlockItem@ioUserBlockStorage@@PAU12@@Z ; std::_Unchecked<ioUserBlockStorage::InvenBlockItem *>
; Function compile flags: /Ogsp
; File c:\program files (x86)\microsoft visual studio 10.0\vc\include\xutility
;	COMDAT ??$_Unchecked@PAUInvenBlockItem@ioUserBlockStorage@@@std@@YAPAUInvenBlockItem@ioUserBlockStorage@@PAU12@@Z
_TEXT	SEGMENT
__Src$ = 8						; size = 4
??$_Unchecked@PAUInvenBlockItem@ioUserBlockStorage@@@std@@YAPAUInvenBlockItem@ioUserBlockStorage@@PAU12@@Z PROC ; std::_Unchecked<ioUserBlockStorage::InvenBlockItem *>, COMDAT

; 266  : 	{	// construct unchecked from checked, generic

  00000	55		 push	 ebp
  00001	8b ec		 mov	 ebp, esp

; 267  : 	return (_Src);

  00003	8b 45 08	 mov	 eax, DWORD PTR __Src$[ebp]

; 268  : 	}

  00006	5d		 pop	 ebp
  00007	c3		 ret	 0
??$_Unchecked@PAUInvenBlockItem@ioUserBlockStorage@@@std@@YAPAUInvenBlockItem@ioUserBlockStorage@@PAU12@@Z ENDP ; std::_Unchecked<ioUserBlockStorage::InvenBlockItem *>
_TEXT	ENDS
PUBLIC	??$_Dist_type@PAUInvenBlockItem@ioUserBlockStorage@@@std@@YAPAHPAUInvenBlockItem@ioUserBlockStorage@@@Z ; std::_Dist_type<ioUserBlockStorage::InvenBlockItem *>
; Function compile flags: /Ogsp
;	COMDAT ??$_Dist_type@PAUInvenBlockItem@ioUserBlockStorage@@@std@@YAPAHPAUInvenBlockItem@ioUserBlockStorage@@@Z
_TEXT	SEGMENT
___formal$ = 8						; size = 4
??$_Dist_type@PAUInvenBlockItem@ioUserBlockStorage@@@std@@YAPAHPAUInvenBlockItem@ioUserBlockStorage@@@Z PROC ; std::_Dist_type<ioUserBlockStorage::InvenBlockItem *>, COMDAT

; 850  : 	return (0);

  00000	33 c0		 xor	 eax, eax

; 851  : 	}

  00002	c3		 ret	 0
??$_Dist_type@PAUInvenBlockItem@ioUserBlockStorage@@@std@@YAPAHPAUInvenBlockItem@ioUserBlockStorage@@@Z ENDP ; std::_Dist_type<ioUserBlockStorage::InvenBlockItem *>
_TEXT	ENDS
PUBLIC	??$_Destroy@VioBlockDBItem@@@std@@YAXPAVioBlockDBItem@@@Z ; std::_Destroy<ioBlockDBItem>
; Function compile flags: /Ogsp
; File c:\program files (x86)\microsoft visual studio 10.0\vc\include\xmemory
;	COMDAT ??$_Destroy@VioBlockDBItem@@@std@@YAXPAVioBlockDBItem@@@Z
_TEXT	SEGMENT
__Ptr$ = 8						; size = 4
??$_Destroy@VioBlockDBItem@@@std@@YAXPAVioBlockDBItem@@@Z PROC ; std::_Destroy<ioBlockDBItem>, COMDAT

; 62   : 	{	// destroy object at _Ptr

  00000	55		 push	 ebp
  00001	8b ec		 mov	 ebp, esp

; 63   : 	_Ptr->~_Ty();

  00003	8b 4d 08	 mov	 ecx, DWORD PTR __Ptr$[ebp]
  00006	8b 01		 mov	 eax, DWORD PTR [ecx]
  00008	6a 00		 push	 0
  0000a	ff 10		 call	 DWORD PTR [eax]

; 64   : 	}

  0000c	5d		 pop	 ebp
  0000d	c3		 ret	 0
??$_Destroy@VioBlockDBItem@@@std@@YAXPAVioBlockDBItem@@@Z ENDP ; std::_Destroy<ioBlockDBItem>
_TEXT	ENDS
PUBLIC	??_GInvenBlockItem@ioUserBlockStorage@@QAEPAXI@Z ; ioUserBlockStorage::InvenBlockItem::`scalar deleting destructor'
; Function compile flags: /Ogsp
;	COMDAT ??_GInvenBlockItem@ioUserBlockStorage@@QAEPAXI@Z
_TEXT	SEGMENT
___flags$ = 8						; size = 4
??_GInvenBlockItem@ioUserBlockStorage@@QAEPAXI@Z PROC	; ioUserBlockStorage::InvenBlockItem::`scalar deleting destructor', COMDAT
; _this$ = ecx
  00000	55		 push	 ebp
  00001	8b ec		 mov	 ebp, esp
  00003	56		 push	 esi
  00004	8b f1		 mov	 esi, ecx
  00006	e8 00 00 00 00	 call	 ??1InvenBlockItem@ioUserBlockStorage@@QAE@XZ
  0000b	f6 45 08 01	 test	 BYTE PTR ___flags$[ebp], 1
  0000f	74 07		 je	 SHORT $LN1@scalar@3
  00011	56		 push	 esi
  00012	e8 00 00 00 00	 call	 ??3@YAXPAX@Z		; operator delete
  00017	59		 pop	 ecx
$LN1@scalar@3:
  00018	8b c6		 mov	 eax, esi
  0001a	5e		 pop	 esi
  0001b	5d		 pop	 ebp
  0001c	c2 04 00	 ret	 4
??_GInvenBlockItem@ioUserBlockStorage@@QAEPAXI@Z ENDP	; ioUserBlockStorage::InvenBlockItem::`scalar deleting destructor'
_TEXT	ENDS
PUBLIC	??$forward@AAPAUInvenBlockItem@ioUserBlockStorage@@@std@@YAAAPAUInvenBlockItem@ioUserBlockStorage@@AAPAU12@@Z ; std::forward<ioUserBlockStorage::InvenBlockItem * &>
; Function compile flags: /Ogsp
; File c:\program files (x86)\microsoft visual studio 10.0\vc\include\utility
;	COMDAT ??$forward@AAPAUInvenBlockItem@ioUserBlockStorage@@@std@@YAAAPAUInvenBlockItem@ioUserBlockStorage@@AAPAU12@@Z
_TEXT	SEGMENT
__Arg$ = 8						; size = 4
??$forward@AAPAUInvenBlockItem@ioUserBlockStorage@@@std@@YAAAPAUInvenBlockItem@ioUserBlockStorage@@AAPAU12@@Z PROC ; std::forward<ioUserBlockStorage::InvenBlockItem * &>, COMDAT

; 78   : 	{	// forward _Arg, given explicitly specified type parameter

  00000	55		 push	 ebp
  00001	8b ec		 mov	 ebp, esp

; 79   : 	return ((_Ty&&)_Arg);

  00003	8b 45 08	 mov	 eax, DWORD PTR __Arg$[ebp]

; 80   : 	}

  00006	5d		 pop	 ebp
  00007	c3		 ret	 0
??$forward@AAPAUInvenBlockItem@ioUserBlockStorage@@@std@@YAAAPAUInvenBlockItem@ioUserBlockStorage@@AAPAU12@@Z ENDP ; std::forward<ioUserBlockStorage::InvenBlockItem * &>
_TEXT	ENDS
PUBLIC	??$?0AAPAUInvenBlockItem@ioUserBlockStorage@@AAPAU01@@?$_Pair_base@PAUInvenBlockItem@ioUserBlockStorage@@PAU12@@std@@QAE@AAPAUInvenBlockItem@ioUserBlockStorage@@0@Z ; std::_Pair_base<ioUserBlockStorage::InvenBlockItem *,ioUserBlockStorage::InvenBlockItem *>::_Pair_base<ioUserBlockStorage::InvenBlockItem *,ioUserBlockStorage::InvenBlockItem *><ioUserBlockStorage::InvenBlockItem * &,ioUserBlockStorage::InvenBlockItem * &>
; Function compile flags: /Ogsp
;	COMDAT ??$?0AAPAUInvenBlockItem@ioUserBlockStorage@@AAPAU01@@?$_Pair_base@PAUInvenBlockItem@ioUserBlockStorage@@PAU12@@std@@QAE@AAPAUInvenBlockItem@ioUserBlockStorage@@0@Z
_TEXT	SEGMENT
__Val1$ = 8						; size = 4
__Val2$ = 12						; size = 4
??$?0AAPAUInvenBlockItem@ioUserBlockStorage@@AAPAU01@@?$_Pair_base@PAUInvenBlockItem@ioUserBlockStorage@@PAU12@@std@@QAE@AAPAUInvenBlockItem@ioUserBlockStorage@@0@Z PROC ; std::_Pair_base<ioUserBlockStorage::InvenBlockItem *,ioUserBlockStorage::InvenBlockItem *>::_Pair_base<ioUserBlockStorage::InvenBlockItem *,ioUserBlockStorage::InvenBlockItem *><ioUserBlockStorage::InvenBlockItem * &,ioUserBlockStorage::InvenBlockItem * &>, COMDAT
; _this$ = ecx

; 163  : 		{	// construct from moved values

  00000	55		 push	 ebp
  00001	8b ec		 mov	 ebp, esp
  00003	8b c1		 mov	 eax, ecx
  00005	8b 4d 08	 mov	 ecx, DWORD PTR __Val1$[ebp]
  00008	8b 09		 mov	 ecx, DWORD PTR [ecx]
  0000a	89 08		 mov	 DWORD PTR [eax], ecx
  0000c	8b 4d 0c	 mov	 ecx, DWORD PTR __Val2$[ebp]
  0000f	8b 09		 mov	 ecx, DWORD PTR [ecx]
  00011	89 48 04	 mov	 DWORD PTR [eax+4], ecx

; 164  : 		}

  00014	5d		 pop	 ebp
  00015	c2 08 00	 ret	 8
??$?0AAPAUInvenBlockItem@ioUserBlockStorage@@AAPAU01@@?$_Pair_base@PAUInvenBlockItem@ioUserBlockStorage@@PAU12@@std@@QAE@AAPAUInvenBlockItem@ioUserBlockStorage@@0@Z ENDP ; std::_Pair_base<ioUserBlockStorage::InvenBlockItem *,ioUserBlockStorage::InvenBlockItem *>::_Pair_base<ioUserBlockStorage::InvenBlockItem *,ioUserBlockStorage::InvenBlockItem *><ioUserBlockStorage::InvenBlockItem * &,ioUserBlockStorage::InvenBlockItem * &>
_TEXT	ENDS
PUBLIC	??$_Move@AAUInvenBlockItem@ioUserBlockStorage@@@std@@YA$$QAUInvenBlockItem@ioUserBlockStorage@@AAU12@@Z ; std::_Move<ioUserBlockStorage::InvenBlockItem &>
; Function compile flags: /Ogsp
;	COMDAT ??$_Move@AAUInvenBlockItem@ioUserBlockStorage@@@std@@YA$$QAUInvenBlockItem@ioUserBlockStorage@@AAU12@@Z
_TEXT	SEGMENT
__Arg$ = 8						; size = 4
??$_Move@AAUInvenBlockItem@ioUserBlockStorage@@@std@@YA$$QAUInvenBlockItem@ioUserBlockStorage@@AAU12@@Z PROC ; std::_Move<ioUserBlockStorage::InvenBlockItem &>, COMDAT

; 94   : 	{	// forward _Arg as movable

  00000	55		 push	 ebp
  00001	8b ec		 mov	 ebp, esp

; 95   : 	return ((typename tr1::_Remove_reference<_Ty>::_Type&&)_Arg);

  00003	8b 45 08	 mov	 eax, DWORD PTR __Arg$[ebp]

; 96   : 	}

  00006	5d		 pop	 ebp
  00007	c3		 ret	 0
??$_Move@AAUInvenBlockItem@ioUserBlockStorage@@@std@@YA$$QAUInvenBlockItem@ioUserBlockStorage@@AAU12@@Z ENDP ; std::_Move<ioUserBlockStorage::InvenBlockItem &>
_TEXT	ENDS
PUBLIC	??$forward@VioBlockDBItem@@@std@@YA$$QAVioBlockDBItem@@AAV1@@Z ; std::forward<ioBlockDBItem>
; Function compile flags: /Ogsp
;	COMDAT ??$forward@VioBlockDBItem@@@std@@YA$$QAVioBlockDBItem@@AAV1@@Z
_TEXT	SEGMENT
__Arg$ = 8						; size = 4
??$forward@VioBlockDBItem@@@std@@YA$$QAVioBlockDBItem@@AAV1@@Z PROC ; std::forward<ioBlockDBItem>, COMDAT

; 78   : 	{	// forward _Arg, given explicitly specified type parameter

  00000	55		 push	 ebp
  00001	8b ec		 mov	 ebp, esp

; 79   : 	return ((_Ty&&)_Arg);

  00003	8b 45 08	 mov	 eax, DWORD PTR __Arg$[ebp]

; 80   : 	}

  00006	5d		 pop	 ebp
  00007	c3		 ret	 0
??$forward@VioBlockDBItem@@@std@@YA$$QAVioBlockDBItem@@AAV1@@Z ENDP ; std::forward<ioBlockDBItem>
_TEXT	ENDS
PUBLIC	??$forward@UInvenBlockItem@ioUserBlockStorage@@@std@@YA$$QAUInvenBlockItem@ioUserBlockStorage@@AAU12@@Z ; std::forward<ioUserBlockStorage::InvenBlockItem>
; Function compile flags: /Ogsp
;	COMDAT ??$forward@UInvenBlockItem@ioUserBlockStorage@@@std@@YA$$QAUInvenBlockItem@ioUserBlockStorage@@AAU12@@Z
_TEXT	SEGMENT
__Arg$ = 8						; size = 4
??$forward@UInvenBlockItem@ioUserBlockStorage@@@std@@YA$$QAUInvenBlockItem@ioUserBlockStorage@@AAU12@@Z PROC ; std::forward<ioUserBlockStorage::InvenBlockItem>, COMDAT

; 78   : 	{	// forward _Arg, given explicitly specified type parameter

  00000	55		 push	 ebp
  00001	8b ec		 mov	 ebp, esp

; 79   : 	return ((_Ty&&)_Arg);

  00003	8b 45 08	 mov	 eax, DWORD PTR __Arg$[ebp]

; 80   : 	}

  00006	5d		 pop	 ebp
  00007	c3		 ret	 0
??$forward@UInvenBlockItem@ioUserBlockStorage@@@std@@YA$$QAUInvenBlockItem@ioUserBlockStorage@@AAU12@@Z ENDP ; std::forward<ioUserBlockStorage::InvenBlockItem>
_TEXT	ENDS
PUBLIC	??$_Push_heap@PAUInvenBlockItem@ioUserBlockStorage@@HU12@VInvenBlockItemSort@2@@std@@YAXPAUInvenBlockItem@ioUserBlockStorage@@HH$$QAU12@VInvenBlockItemSort@2@@Z ; std::_Push_heap<ioUserBlockStorage::InvenBlockItem *,int,ioUserBlockStorage::InvenBlockItem,ioUserBlockStorage::InvenBlockItemSort>
; Function compile flags: /Ogsp
; File c:\program files (x86)\microsoft visual studio 10.0\vc\include\algorithm
;	COMDAT ??$_Push_heap@PAUInvenBlockItem@ioUserBlockStorage@@HU12@VInvenBlockItemSort@2@@std@@YAXPAUInvenBlockItem@ioUserBlockStorage@@HH$$QAU12@VInvenBlockItemSort@2@@Z
_TEXT	SEGMENT
__First$ = 8						; size = 4
__Hole$ = 12						; size = 4
__Top$ = 16						; size = 4
__Val$ = 20						; size = 4
__Pred$ = 24						; size = 1
??$_Push_heap@PAUInvenBlockItem@ioUserBlockStorage@@HU12@VInvenBlockItemSort@2@@std@@YAXPAUInvenBlockItem@ioUserBlockStorage@@HH$$QAU12@VInvenBlockItemSort@2@@Z PROC ; std::_Push_heap<ioUserBlockStorage::InvenBlockItem *,int,ioUserBlockStorage::InvenBlockItem,ioUserBlockStorage::InvenBlockItemSort>, COMDAT

; 2455 : 	{	// percolate _Hole to _Top or where _Val belongs, using operator<

  00000	55		 push	 ebp
  00001	8b ec		 mov	 ebp, esp

; 2456 : 	for (_Diff _Idx = (_Hole - 1) / 2;

  00003	8b 4d 0c	 mov	 ecx, DWORD PTR __Hole$[ebp]
  00006	8d 41 ff	 lea	 eax, DWORD PTR [ecx-1]
  00009	53		 push	 ebx

; 2457 : 		_Top < _Hole && _DEBUG_LT_PRED(_Pred, *(_First + _Idx), _Val);
; 2458 : 		_Idx = (_Hole - 1) / 2)

  0000a	8b 5d 14	 mov	 ebx, DWORD PTR __Val$[ebp]
  0000d	99		 cdq
  0000e	56		 push	 esi
  0000f	2b c2		 sub	 eax, edx
  00011	8b f0		 mov	 esi, eax
  00013	57		 push	 edi
  00014	8b 7d 08	 mov	 edi, DWORD PTR __First$[ebp]
  00017	d1 fe		 sar	 esi, 1
  00019	eb 26		 jmp	 SHORT $LN16@Push_heap
$LL3@Push_heap:
  0001b	8b c6		 mov	 eax, esi
  0001d	6b c0 38	 imul	 eax, 56			; 00000038H
  00020	03 c7		 add	 eax, edi
  00022	8b 50 24	 mov	 edx, DWORD PTR [eax+36]
  00025	3b 53 24	 cmp	 edx, DWORD PTR [ebx+36]
  00028	7d 1c		 jge	 SHORT $LN6@Push_heap

; 2459 : 		{	// move _Hole up to parent
; 2460 : 		*(_First + _Hole) = _Move(*(_First + _Idx));

  0002a	6b c9 38	 imul	 ecx, 56			; 00000038H
  0002d	50		 push	 eax
  0002e	03 cf		 add	 ecx, edi
  00030	e8 00 00 00 00	 call	 ??4InvenBlockItem@ioUserBlockStorage@@QAEAAU01@ABU01@@Z
  00035	8d 46 ff	 lea	 eax, DWORD PTR [esi-1]
  00038	99		 cdq
  00039	2b c2		 sub	 eax, edx
  0003b	d1 f8		 sar	 eax, 1

; 2461 : 		_Hole = _Idx;

  0003d	8b ce		 mov	 ecx, esi
  0003f	8b f0		 mov	 esi, eax
$LN16@Push_heap:

; 2457 : 		_Top < _Hole && _DEBUG_LT_PRED(_Pred, *(_First + _Idx), _Val);
; 2458 : 		_Idx = (_Hole - 1) / 2)

  00041	39 4d 10	 cmp	 DWORD PTR __Top$[ebp], ecx
  00044	7c d5		 jl	 SHORT $LL3@Push_heap
$LN6@Push_heap:

; 2462 : 		}
; 2463 : 
; 2464 : 	*(_First + _Hole) = _Move(_Val);	// drop _Val into final hole

  00046	6b c9 38	 imul	 ecx, 56			; 00000038H
  00049	53		 push	 ebx
  0004a	03 cf		 add	 ecx, edi
  0004c	e8 00 00 00 00	 call	 ??4InvenBlockItem@ioUserBlockStorage@@QAEAAU01@ABU01@@Z
  00051	5f		 pop	 edi
  00052	5e		 pop	 esi
  00053	5b		 pop	 ebx

; 2465 : 	}

  00054	5d		 pop	 ebp
  00055	c3		 ret	 0
??$_Push_heap@PAUInvenBlockItem@ioUserBlockStorage@@HU12@VInvenBlockItemSort@2@@std@@YAXPAUInvenBlockItem@ioUserBlockStorage@@HH$$QAU12@VInvenBlockItemSort@2@@Z ENDP ; std::_Push_heap<ioUserBlockStorage::InvenBlockItem *,int,ioUserBlockStorage::InvenBlockItem,ioUserBlockStorage::InvenBlockItemSort>
_TEXT	ENDS
PUBLIC	??$_Move_backward@PAUInvenBlockItem@ioUserBlockStorage@@PAU12@@std@@YAPAUInvenBlockItem@ioUserBlockStorage@@PAU12@00U_Nonscalar_ptr_iterator_tag@0@@Z ; std::_Move_backward<ioUserBlockStorage::InvenBlockItem *,ioUserBlockStorage::InvenBlockItem *>
; Function compile flags: /Ogsp
; File c:\program files (x86)\microsoft visual studio 10.0\vc\include\xutility
;	COMDAT ??$_Move_backward@PAUInvenBlockItem@ioUserBlockStorage@@PAU12@@std@@YAPAUInvenBlockItem@ioUserBlockStorage@@PAU12@00U_Nonscalar_ptr_iterator_tag@0@@Z
_TEXT	SEGMENT
__First$ = 8						; size = 4
__Last$ = 12						; size = 4
__Dest$ = 16						; size = 4
___formal$ = 20						; size = 1
??$_Move_backward@PAUInvenBlockItem@ioUserBlockStorage@@PAU12@@std@@YAPAUInvenBlockItem@ioUserBlockStorage@@PAU12@00U_Nonscalar_ptr_iterator_tag@0@@Z PROC ; std::_Move_backward<ioUserBlockStorage::InvenBlockItem *,ioUserBlockStorage::InvenBlockItem *>, COMDAT

; 2617 : 	{	// move [_First, _Last) backwards to [..., _Dest), arbitrary iterators

  00000	55		 push	 ebp
  00001	8b ec		 mov	 ebp, esp
  00003	56		 push	 esi

; 2618 : 	while (_First != _Last)

  00004	8b 75 0c	 mov	 esi, DWORD PTR __Last$[ebp]
  00007	39 75 08	 cmp	 DWORD PTR __First$[ebp], esi
  0000a	74 15		 je	 SHORT $LN9@Move_backw
$LL2@Move_backw:

; 2619 : 		*--_Dest = _STD move(*--_Last);

  0000c	83 6d 10 38	 sub	 DWORD PTR __Dest$[ebp], 56 ; 00000038H
  00010	8b 4d 10	 mov	 ecx, DWORD PTR __Dest$[ebp]
  00013	83 ee 38	 sub	 esi, 56			; 00000038H
  00016	56		 push	 esi
  00017	e8 00 00 00 00	 call	 ??4InvenBlockItem@ioUserBlockStorage@@QAEAAU01@ABU01@@Z
  0001c	3b 75 08	 cmp	 esi, DWORD PTR __First$[ebp]
  0001f	75 eb		 jne	 SHORT $LL2@Move_backw
$LN9@Move_backw:

; 2620 : 	return (_Dest);

  00021	8b 45 10	 mov	 eax, DWORD PTR __Dest$[ebp]
  00024	5e		 pop	 esi

; 2621 : 	}

  00025	5d		 pop	 ebp
  00026	c3		 ret	 0
??$_Move_backward@PAUInvenBlockItem@ioUserBlockStorage@@PAU12@@std@@YAPAUInvenBlockItem@ioUserBlockStorage@@PAU12@00U_Nonscalar_ptr_iterator_tag@0@@Z ENDP ; std::_Move_backward<ioUserBlockStorage::InvenBlockItem *,ioUserBlockStorage::InvenBlockItem *>
_TEXT	ENDS
PUBLIC	?GetInventoryManual@ioEtcItem@@QBEHXZ		; ioEtcItem::GetInventoryManual
; Function compile flags: /Ogsp
; File d:\lost saga for developer\youtube\tutorial\source\src\lsclient\ioetcitem.h
;	COMDAT ?GetInventoryManual@ioEtcItem@@QBEHXZ
_TEXT	SEGMENT
?GetInventoryManual@ioEtcItem@@QBEHXZ PROC		; ioEtcItem::GetInventoryManual, COMDAT
; _this$ = ecx

; 434  : 	inline int     GetInventoryManual() const { return m_iInventoryManual; }

  00000	8b 41 48	 mov	 eax, DWORD PTR [ecx+72]
  00003	c3		 ret	 0
?GetInventoryManual@ioEtcItem@@QBEHXZ ENDP		; ioEtcItem::GetInventoryManual
_TEXT	ENDS
EXTRN	__imp_??0exception@std@@QAE@ABV01@@Z:PROC
; Function compile flags: /Ogsp
;	COMDAT ??0bad_alloc@std@@QAE@ABV01@@Z
_TEXT	SEGMENT
___that$ = 8						; size = 4
??0bad_alloc@std@@QAE@ABV01@@Z PROC			; std::bad_alloc::bad_alloc, COMDAT
; _this$ = ecx
  00000	55		 push	 ebp
  00001	8b ec		 mov	 ebp, esp
  00003	56		 push	 esi
  00004	ff 75 08	 push	 DWORD PTR ___that$[ebp]
  00007	8b f1		 mov	 esi, ecx
  00009	ff 15 00 00 00
	00		 call	 DWORD PTR __imp_??0exception@std@@QAE@ABV01@@Z
  0000f	c7 06 00 00 00
	00		 mov	 DWORD PTR [esi], OFFSET ??_7bad_alloc@std@@6B@
  00015	8b c6		 mov	 eax, esi
  00017	5e		 pop	 esi
  00018	5d		 pop	 ebp
  00019	c2 04 00	 ret	 4
??0bad_alloc@std@@QAE@ABV01@@Z ENDP			; std::bad_alloc::bad_alloc
_TEXT	ENDS
PUBLIC	?GetInvenBlockItem@ioUserBlockStorage@@QAEPAUInvenBlockItem@1@H_N@Z ; ioUserBlockStorage::GetInvenBlockItem
; Function compile flags: /Ogsp
; File d:\lost saga for developer\youtube\tutorial\source\src\lsclient\housing\iouserblockstorage.cpp
;	COMDAT ?GetInvenBlockItem@ioUserBlockStorage@@QAEPAUInvenBlockItem@1@H_N@Z
_TEXT	SEGMENT
_nIndex$ = 8						; size = 4
_bZeroNtoNull$ = 12					; size = 1
?GetInvenBlockItem@ioUserBlockStorage@@QAEPAUInvenBlockItem@1@H_N@Z PROC ; ioUserBlockStorage::GetInvenBlockItem, COMDAT
; _this$ = ecx

; 68   : {

  00000	55		 push	 ebp
  00001	8b ec		 mov	 ebp, esp
  00003	56		 push	 esi

; 69   : 	if( COMPARE( nIndex, 0, (int)m_InvenBlockItemList.size() ) )

  00004	8b 75 08	 mov	 esi, DWORD PTR _nIndex$[ebp]
  00007	85 f6		 test	 esi, esi
  00009	78 26		 js	 SHORT $LN2@GetInvenBl
  0000b	8b 41 18	 mov	 eax, DWORD PTR [ecx+24]
  0000e	2b 41 14	 sub	 eax, DWORD PTR [ecx+20]
  00011	57		 push	 edi
  00012	6a 38		 push	 56			; 00000038H
  00014	99		 cdq
  00015	5f		 pop	 edi
  00016	f7 ff		 idiv	 edi
  00018	5f		 pop	 edi
  00019	3b f0		 cmp	 esi, eax
  0001b	7d 14		 jge	 SHORT $LN2@GetInvenBl

; 70   : 	{
; 71   : 		InvenBlockItem& Item = m_InvenBlockItemList[nIndex];
; 72   : 		if( 0 < Item.m_nCount || bZeroNtoNull )

  0001d	8b 41 14	 mov	 eax, DWORD PTR [ecx+20]
  00020	6b f6 38	 imul	 esi, 56			; 00000038H
  00023	03 c6		 add	 eax, esi
  00025	83 78 30 00	 cmp	 DWORD PTR [eax+48], 0
  00029	7f 08		 jg	 SHORT $LN4@GetInvenBl
  0002b	80 7d 0c 00	 cmp	 BYTE PTR _bZeroNtoNull$[ebp], 0

; 73   : 			return &m_InvenBlockItemList[nIndex];

  0002f	75 02		 jne	 SHORT $LN4@GetInvenBl
$LN2@GetInvenBl:

; 74   : 	}
; 75   : 
; 76   : 	return NULL;

  00031	33 c0		 xor	 eax, eax
$LN4@GetInvenBl:
  00033	5e		 pop	 esi

; 77   : }

  00034	5d		 pop	 ebp
  00035	c2 08 00	 ret	 8
?GetInvenBlockItem@ioUserBlockStorage@@QAEPAUInvenBlockItem@1@H_N@Z ENDP ; ioUserBlockStorage::GetInvenBlockItem
_TEXT	ENDS
PUBLIC	?GetCurrInvenBlockItem@ioUserBlockStorage@@QAEPAUInvenBlockItem@1@XZ ; ioUserBlockStorage::GetCurrInvenBlockItem
; Function compile flags: /Ogsp
;	COMDAT ?GetCurrInvenBlockItem@ioUserBlockStorage@@QAEPAUInvenBlockItem@1@XZ
_TEXT	SEGMENT
?GetCurrInvenBlockItem@ioUserBlockStorage@@QAEPAUInvenBlockItem@1@XZ PROC ; ioUserBlockStorage::GetCurrInvenBlockItem, COMDAT
; _this$ = ecx

; 102  : 	return GetInvenBlockItem( GetCurrInvenIndex() );

  00000	6a 00		 push	 0
  00002	ff 71 24	 push	 DWORD PTR [ecx+36]
  00005	e8 00 00 00 00	 call	 ?GetInvenBlockItem@ioUserBlockStorage@@QAEPAUInvenBlockItem@1@H_N@Z ; ioUserBlockStorage::GetInvenBlockItem

; 103  : }

  0000a	c3		 ret	 0
?GetCurrInvenBlockItem@ioUserBlockStorage@@QAEPAUInvenBlockItem@1@XZ ENDP ; ioUserBlockStorage::GetCurrInvenBlockItem
_TEXT	ENDS
PUBLIC	?PrevItem@ioUserBlockStorage@@QAEXXZ		; ioUserBlockStorage::PrevItem
; Function compile flags: /Ogsp
;	COMDAT ?PrevItem@ioUserBlockStorage@@QAEXXZ
_TEXT	SEGMENT
?PrevItem@ioUserBlockStorage@@QAEXXZ PROC		; ioUserBlockStorage::PrevItem, COMDAT
; _this$ = ecx

; 135  : 	int iMin = max( 0, m_CurrInvenItemIndex - 1 );

  00000	8b 41 24	 mov	 eax, DWORD PTR [ecx+36]
  00003	48		 dec	 eax
  00004	79 02		 jns	 SHORT $LN8@PrevItem
  00006	33 c0		 xor	 eax, eax
$LN8@PrevItem:
  00008	56		 push	 esi

; 136  : 	for( int i = iMin; i >= 0; --i )

  00009	8b f0		 mov	 esi, eax
  0000b	85 c0		 test	 eax, eax
  0000d	78 32		 js	 SHORT $LN3@PrevItem
  0000f	6b c0 38	 imul	 eax, 56			; 00000038H
  00012	57		 push	 edi
  00013	8b f8		 mov	 edi, eax
  00015	53		 push	 ebx
$LL5@PrevItem:

; 137  : 	{		
; 138  : 		if( COMPARE( i, 0, (int)m_InvenBlockItemList.size() ) )

  00016	85 f6		 test	 esi, esi
  00018	78 1a		 js	 SHORT $LN4@PrevItem
  0001a	8b 41 18	 mov	 eax, DWORD PTR [ecx+24]
  0001d	2b 41 14	 sub	 eax, DWORD PTR [ecx+20]
  00020	6a 38		 push	 56			; 00000038H
  00022	99		 cdq
  00023	5b		 pop	 ebx
  00024	f7 fb		 idiv	 ebx
  00026	3b f0		 cmp	 esi, eax
  00028	7d 0a		 jge	 SHORT $LN4@PrevItem

; 139  : 		{
; 140  : 			InvenBlockItem& Item = m_InvenBlockItemList[i];
; 141  : 			if( Item.m_nCount > 0 )

  0002a	8b 41 14	 mov	 eax, DWORD PTR [ecx+20]
  0002d	83 7c 38 30 00	 cmp	 DWORD PTR [eax+edi+48], 0
  00032	7f 08		 jg	 SHORT $LN15@PrevItem
$LN4@PrevItem:

; 136  : 	for( int i = iMin; i >= 0; --i )

  00034	83 ef 38	 sub	 edi, 56			; 00000038H
  00037	4e		 dec	 esi
  00038	79 dc		 jns	 SHORT $LL5@PrevItem

; 139  : 		{
; 140  : 			InvenBlockItem& Item = m_InvenBlockItemList[i];
; 141  : 			if( Item.m_nCount > 0 )

  0003a	eb 03		 jmp	 SHORT $LN20@PrevItem
$LN15@PrevItem:

; 142  : 			{
; 143  : 				m_CurrInvenItemIndex = i;

  0003c	89 71 24	 mov	 DWORD PTR [ecx+36], esi
$LN20@PrevItem:
  0003f	5b		 pop	 ebx
  00040	5f		 pop	 edi
$LN3@PrevItem:
  00041	5e		 pop	 esi

; 144  : 				return;
; 145  : 			}
; 146  : 		}
; 147  : 	}
; 148  : }

  00042	c3		 ret	 0
?PrevItem@ioUserBlockStorage@@QAEXXZ ENDP		; ioUserBlockStorage::PrevItem
_TEXT	ENDS
PUBLIC	?NextItem@ioUserBlockStorage@@QAEXXZ		; ioUserBlockStorage::NextItem
; Function compile flags: /Ogsp
;	COMDAT ?NextItem@ioUserBlockStorage@@QAEXXZ
_TEXT	SEGMENT
?NextItem@ioUserBlockStorage@@QAEXXZ PROC		; ioUserBlockStorage::NextItem, COMDAT
; _this$ = ecx

; 152  : 	for( int i = m_CurrInvenItemIndex + 1; i < (int)m_InvenBlockItemList.size(); ++i )

  00000	8b 41 18	 mov	 eax, DWORD PTR [ecx+24]
  00003	2b 41 14	 sub	 eax, DWORD PTR [ecx+20]
  00006	56		 push	 esi
  00007	57		 push	 edi
  00008	6a 38		 push	 56			; 00000038H
  0000a	99		 cdq
  0000b	5f		 pop	 edi
  0000c	f7 ff		 idiv	 edi
  0000e	8b 71 24	 mov	 esi, DWORD PTR [ecx+36]
  00011	46		 inc	 esi
  00012	3b f0		 cmp	 esi, eax
  00014	7d 24		 jge	 SHORT $LN3@NextItem
  00016	8b d6		 mov	 edx, esi
  00018	6b d2 38	 imul	 edx, 56			; 00000038H
$LL5@NextItem:

; 153  : 	{
; 154  : 		if( COMPARE( i, 0, (int)m_InvenBlockItemList.size() ) )

  0001b	85 f6		 test	 esi, esi
  0001d	78 0e		 js	 SHORT $LN4@NextItem
  0001f	3b f0		 cmp	 esi, eax
  00021	7d 0a		 jge	 SHORT $LN4@NextItem

; 155  : 		{
; 156  : 			InvenBlockItem& Item = m_InvenBlockItemList[i];
; 157  : 			if( Item.m_nCount > 0 )

  00023	8b 79 14	 mov	 edi, DWORD PTR [ecx+20]
  00026	83 7c 3a 30 00	 cmp	 DWORD PTR [edx+edi+48], 0
  0002b	7f 0a		 jg	 SHORT $LN15@NextItem
$LN4@NextItem:

; 152  : 	for( int i = m_CurrInvenItemIndex + 1; i < (int)m_InvenBlockItemList.size(); ++i )

  0002d	46		 inc	 esi
  0002e	83 c2 38	 add	 edx, 56			; 00000038H
  00031	3b f0		 cmp	 esi, eax
  00033	7c e6		 jl	 SHORT $LL5@NextItem

; 155  : 		{
; 156  : 			InvenBlockItem& Item = m_InvenBlockItemList[i];
; 157  : 			if( Item.m_nCount > 0 )

  00035	eb 03		 jmp	 SHORT $LN3@NextItem
$LN15@NextItem:

; 158  : 			{
; 159  : 				m_CurrInvenItemIndex = i;

  00037	89 71 24	 mov	 DWORD PTR [ecx+36], esi
$LN3@NextItem:
  0003a	5f		 pop	 edi
  0003b	5e		 pop	 esi

; 160  : 				return;
; 161  : 			}
; 162  : 		}
; 163  : 	}
; 164  : }

  0003c	c3		 ret	 0
?NextItem@ioUserBlockStorage@@QAEXXZ ENDP		; ioUserBlockStorage::NextItem
_TEXT	ENDS
PUBLIC	?SelectItem@ioUserBlockStorage@@QAEXH@Z		; ioUserBlockStorage::SelectItem
; Function compile flags: /Ogsp
;	COMDAT ?SelectItem@ioUserBlockStorage@@QAEXH@Z
_TEXT	SEGMENT
_nCode$ = 8						; size = 4
?SelectItem@ioUserBlockStorage@@QAEXH@Z PROC		; ioUserBlockStorage::SelectItem, COMDAT
; _this$ = ecx

; 167  : {

  00000	55		 push	 ebp
  00001	8b ec		 mov	 ebp, esp

; 168  : 	for( int i = 0 ; i < (int)m_InvenBlockItemList.size(); ++i ) 

  00003	8b 41 18	 mov	 eax, DWORD PTR [ecx+24]
  00006	2b 41 14	 sub	 eax, DWORD PTR [ecx+20]
  00009	56		 push	 esi
  0000a	57		 push	 edi
  0000b	6a 38		 push	 56			; 00000038H
  0000d	99		 cdq
  0000e	5f		 pop	 edi
  0000f	f7 ff		 idiv	 edi
  00011	33 f6		 xor	 esi, esi
  00013	85 c0		 test	 eax, eax
  00015	7e 1a		 jle	 SHORT $LN2@SelectItem
  00017	8b 51 14	 mov	 edx, DWORD PTR [ecx+20]
  0001a	83 c2 20	 add	 edx, 32			; 00000020H
$LL4@SelectItem:

; 169  : 	{
; 170  : 		InvenBlockItem& Item = m_InvenBlockItemList[i];
; 171  : 		if( Item.m_nBlockCode == nCode )

  0001d	8b 3a		 mov	 edi, DWORD PTR [edx]
  0001f	3b 7d 08	 cmp	 edi, DWORD PTR _nCode$[ebp]
  00022	74 0a		 je	 SHORT $LN12@SelectItem

; 168  : 	for( int i = 0 ; i < (int)m_InvenBlockItemList.size(); ++i ) 

  00024	46		 inc	 esi
  00025	83 c2 38	 add	 edx, 56			; 00000038H
  00028	3b f0		 cmp	 esi, eax
  0002a	7c f1		 jl	 SHORT $LL4@SelectItem

; 169  : 	{
; 170  : 		InvenBlockItem& Item = m_InvenBlockItemList[i];
; 171  : 		if( Item.m_nBlockCode == nCode )

  0002c	eb 03		 jmp	 SHORT $LN2@SelectItem
$LN12@SelectItem:

; 172  : 		{
; 173  : 			m_CurrInvenItemIndex = i;

  0002e	89 71 24	 mov	 DWORD PTR [ecx+36], esi
$LN2@SelectItem:
  00031	5f		 pop	 edi
  00032	5e		 pop	 esi

; 174  : 			return;
; 175  : 		}
; 176  : 	}
; 177  : }

  00033	5d		 pop	 ebp
  00034	c2 04 00	 ret	 4
?SelectItem@ioUserBlockStorage@@QAEXH@Z ENDP		; ioUserBlockStorage::SelectItem
_TEXT	ENDS
PUBLIC	?GetInvenItemCount@ioUserBlockStorage@@QAEHXZ	; ioUserBlockStorage::GetInvenItemCount
; Function compile flags: /Ogsp
;	COMDAT ?GetInvenItemCount@ioUserBlockStorage@@QAEHXZ
_TEXT	SEGMENT
?GetInvenItemCount@ioUserBlockStorage@@QAEHXZ PROC	; ioUserBlockStorage::GetInvenItemCount, COMDAT
; _this$ = ecx

; 186  : 	return (int)m_InvenBlockItemList.size();

  00000	8b 41 18	 mov	 eax, DWORD PTR [ecx+24]
  00003	2b 41 14	 sub	 eax, DWORD PTR [ecx+20]
  00006	6a 38		 push	 56			; 00000038H
  00008	99		 cdq
  00009	59		 pop	 ecx
  0000a	f7 f9		 idiv	 ecx

; 187  : }

  0000c	c3		 ret	 0
?GetInvenItemCount@ioUserBlockStorage@@QAEHXZ ENDP	; ioUserBlockStorage::GetInvenItemCount
_TEXT	ENDS
PUBLIC	??D?$_Vector_iterator@V?$_Vector_val@UInvenBlockItem@ioUserBlockStorage@@V?$allocator@UInvenBlockItem@ioUserBlockStorage@@@std@@@std@@@std@@QBEAAUInvenBlockItem@ioUserBlockStorage@@XZ ; std::_Vector_iterator<std::_Vector_val<ioUserBlockStorage::InvenBlockItem,std::allocator<ioUserBlockStorage::InvenBlockItem> > >::operator*
; Function compile flags: /Ogsp
; File c:\program files (x86)\microsoft visual studio 10.0\vc\include\vector
;	COMDAT ??D?$_Vector_iterator@V?$_Vector_val@UInvenBlockItem@ioUserBlockStorage@@V?$allocator@UInvenBlockItem@ioUserBlockStorage@@@std@@@std@@@std@@QBEAAUInvenBlockItem@ioUserBlockStorage@@XZ
_TEXT	SEGMENT
??D?$_Vector_iterator@V?$_Vector_val@UInvenBlockItem@ioUserBlockStorage@@V?$allocator@UInvenBlockItem@ioUserBlockStorage@@@std@@@std@@@std@@QBEAAUInvenBlockItem@ioUserBlockStorage@@XZ PROC ; std::_Vector_iterator<std::_Vector_val<ioUserBlockStorage::InvenBlockItem,std::allocator<ioUserBlockStorage::InvenBlockItem> > >::operator*, COMDAT
; _this$ = ecx

; 322  : 		return ((reference)**(_Mybase *)this);

  00000	8b 01		 mov	 eax, DWORD PTR [ecx]

; 323  : 		}

  00002	c3		 ret	 0
??D?$_Vector_iterator@V?$_Vector_val@UInvenBlockItem@ioUserBlockStorage@@V?$allocator@UInvenBlockItem@ioUserBlockStorage@@@std@@@std@@@std@@QBEAAUInvenBlockItem@ioUserBlockStorage@@XZ ENDP ; std::_Vector_iterator<std::_Vector_val<ioUserBlockStorage::InvenBlockItem,std::allocator<ioUserBlockStorage::InvenBlockItem> > >::operator*
_TEXT	ENDS
PUBLIC	??E?$_Vector_iterator@V?$_Vector_val@UInvenBlockItem@ioUserBlockStorage@@V?$allocator@UInvenBlockItem@ioUserBlockStorage@@@std@@@std@@@std@@QAEAAV01@XZ ; std::_Vector_iterator<std::_Vector_val<ioUserBlockStorage::InvenBlockItem,std::allocator<ioUserBlockStorage::InvenBlockItem> > >::operator++
; Function compile flags: /Ogsp
;	COMDAT ??E?$_Vector_iterator@V?$_Vector_val@UInvenBlockItem@ioUserBlockStorage@@V?$allocator@UInvenBlockItem@ioUserBlockStorage@@@std@@@std@@@std@@QAEAAV01@XZ
_TEXT	SEGMENT
??E?$_Vector_iterator@V?$_Vector_val@UInvenBlockItem@ioUserBlockStorage@@V?$allocator@UInvenBlockItem@ioUserBlockStorage@@@std@@@std@@@std@@QAEAAV01@XZ PROC ; std::_Vector_iterator<std::_Vector_val<ioUserBlockStorage::InvenBlockItem,std::allocator<ioUserBlockStorage::InvenBlockItem> > >::operator++, COMDAT
; _this$ = ecx

; 331  : 		{	// preincrement

  00000	8b c1		 mov	 eax, ecx

; 332  : 		++*(_Mybase *)this;

  00002	83 00 38	 add	 DWORD PTR [eax], 56	; 00000038H

; 333  : 		return (*this);
; 334  : 		}

  00005	c3		 ret	 0
??E?$_Vector_iterator@V?$_Vector_val@UInvenBlockItem@ioUserBlockStorage@@V?$allocator@UInvenBlockItem@ioUserBlockStorage@@@std@@@std@@@std@@QAEAAV01@XZ ENDP ; std::_Vector_iterator<std::_Vector_val<ioUserBlockStorage::InvenBlockItem,std::allocator<ioUserBlockStorage::InvenBlockItem> > >::operator++
_TEXT	ENDS
PUBLIC	??0?$_Vector_val@VioBlockDBItem@@V?$allocator@VioBlockDBItem@@@std@@@std@@QAE@V?$allocator@VioBlockDBItem@@@1@@Z ; std::_Vector_val<ioBlockDBItem,std::allocator<ioBlockDBItem> >::_Vector_val<ioBlockDBItem,std::allocator<ioBlockDBItem> >
; Function compile flags: /Ogsp
;	COMDAT ??0?$_Vector_val@VioBlockDBItem@@V?$allocator@VioBlockDBItem@@@std@@@std@@QAE@V?$allocator@VioBlockDBItem@@@1@@Z
_TEXT	SEGMENT
__Al$ = 8						; size = 1
??0?$_Vector_val@VioBlockDBItem@@V?$allocator@VioBlockDBItem@@@std@@@std@@QAE@V?$allocator@VioBlockDBItem@@@1@@Z PROC ; std::_Vector_val<ioBlockDBItem,std::allocator<ioBlockDBItem> >::_Vector_val<ioBlockDBItem,std::allocator<ioBlockDBItem> >, COMDAT
; _this$ = ecx

; 426  : 		{	// construct allocator from _Al

  00000	8b c1		 mov	 eax, ecx

; 427  : 		_Myfirst = 0;

  00002	33 c9		 xor	 ecx, ecx
  00004	89 08		 mov	 DWORD PTR [eax], ecx

; 428  : 		_Mylast = 0;

  00006	89 48 04	 mov	 DWORD PTR [eax+4], ecx

; 429  : 		_Myend = 0;

  00009	89 48 08	 mov	 DWORD PTR [eax+8], ecx

; 430  : 		}

  0000c	c2 04 00	 ret	 4
??0?$_Vector_val@VioBlockDBItem@@V?$allocator@VioBlockDBItem@@@std@@@std@@QAE@V?$allocator@VioBlockDBItem@@@1@@Z ENDP ; std::_Vector_val<ioBlockDBItem,std::allocator<ioBlockDBItem> >::_Vector_val<ioBlockDBItem,std::allocator<ioBlockDBItem> >
_TEXT	ENDS
PUBLIC	??0?$_Vector_val@UInvenBlockItem@ioUserBlockStorage@@V?$allocator@UInvenBlockItem@ioUserBlockStorage@@@std@@@std@@QAE@V?$allocator@UInvenBlockItem@ioUserBlockStorage@@@1@@Z ; std::_Vector_val<ioUserBlockStorage::InvenBlockItem,std::allocator<ioUserBlockStorage::InvenBlockItem> >::_Vector_val<ioUserBlockStorage::InvenBlockItem,std::allocator<ioUserBlockStorage::InvenBlockItem> >
; Function compile flags: /Ogsp
;	COMDAT ??0?$_Vector_val@UInvenBlockItem@ioUserBlockStorage@@V?$allocator@UInvenBlockItem@ioUserBlockStorage@@@std@@@std@@QAE@V?$allocator@UInvenBlockItem@ioUserBlockStorage@@@1@@Z
_TEXT	SEGMENT
__Al$ = 8						; size = 1
??0?$_Vector_val@UInvenBlockItem@ioUserBlockStorage@@V?$allocator@UInvenBlockItem@ioUserBlockStorage@@@std@@@std@@QAE@V?$allocator@UInvenBlockItem@ioUserBlockStorage@@@1@@Z PROC ; std::_Vector_val<ioUserBlockStorage::InvenBlockItem,std::allocator<ioUserBlockStorage::InvenBlockItem> >::_Vector_val<ioUserBlockStorage::InvenBlockItem,std::allocator<ioUserBlockStorage::InvenBlockItem> >, COMDAT
; _this$ = ecx

; 426  : 		{	// construct allocator from _Al

  00000	8b c1		 mov	 eax, ecx

; 427  : 		_Myfirst = 0;

  00002	33 c9		 xor	 ecx, ecx
  00004	89 08		 mov	 DWORD PTR [eax], ecx

; 428  : 		_Mylast = 0;

  00006	89 48 04	 mov	 DWORD PTR [eax+4], ecx

; 429  : 		_Myend = 0;

  00009	89 48 08	 mov	 DWORD PTR [eax+8], ecx

; 430  : 		}

  0000c	c2 04 00	 ret	 4
??0?$_Vector_val@UInvenBlockItem@ioUserBlockStorage@@V?$allocator@UInvenBlockItem@ioUserBlockStorage@@@std@@@std@@QAE@V?$allocator@UInvenBlockItem@ioUserBlockStorage@@@1@@Z ENDP ; std::_Vector_val<ioUserBlockStorage::InvenBlockItem,std::allocator<ioUserBlockStorage::InvenBlockItem> >::_Vector_val<ioUserBlockStorage::InvenBlockItem,std::allocator<ioUserBlockStorage::InvenBlockItem> >
_TEXT	ENDS
PUBLIC	??0?$_Vector_iterator@V?$_Vector_val@UInvenBlockItem@ioUserBlockStorage@@V?$allocator@UInvenBlockItem@ioUserBlockStorage@@@std@@@std@@@std@@QAE@PAUInvenBlockItem@ioUserBlockStorage@@PBU_Container_base0@1@@Z ; std::_Vector_iterator<std::_Vector_val<ioUserBlockStorage::InvenBlockItem,std::allocator<ioUserBlockStorage::InvenBlockItem> > >::_Vector_iterator<std::_Vector_val<ioUserBlockStorage::InvenBlockItem,std::allocator<ioUserBlockStorage::InvenBlockItem> > >
; Function compile flags: /Ogsp
;	COMDAT ??0?$_Vector_iterator@V?$_Vector_val@UInvenBlockItem@ioUserBlockStorage@@V?$allocator@UInvenBlockItem@ioUserBlockStorage@@@std@@@std@@@std@@QAE@PAUInvenBlockItem@ioUserBlockStorage@@PBU_Container_base0@1@@Z
_TEXT	SEGMENT
__Parg$ = 8						; size = 4
__Pvector$ = 12						; size = 4
??0?$_Vector_iterator@V?$_Vector_val@UInvenBlockItem@ioUserBlockStorage@@V?$allocator@UInvenBlockItem@ioUserBlockStorage@@@std@@@std@@@std@@QAE@PAUInvenBlockItem@ioUserBlockStorage@@PBU_Container_base0@1@@Z PROC ; std::_Vector_iterator<std::_Vector_val<ioUserBlockStorage::InvenBlockItem,std::allocator<ioUserBlockStorage::InvenBlockItem> > >::_Vector_iterator<std::_Vector_val<ioUserBlockStorage::InvenBlockItem,std::allocator<ioUserBlockStorage::InvenBlockItem> > >, COMDAT
; _this$ = ecx

; 304  : 		{	// construct with pointer _Parg

  00000	55		 push	 ebp
  00001	8b ec		 mov	 ebp, esp
  00003	8b c1		 mov	 eax, ecx
  00005	8b 4d 08	 mov	 ecx, DWORD PTR __Parg$[ebp]
  00008	89 08		 mov	 DWORD PTR [eax], ecx

; 305  : 		}

  0000a	5d		 pop	 ebp
  0000b	c2 08 00	 ret	 8
??0?$_Vector_iterator@V?$_Vector_val@UInvenBlockItem@ioUserBlockStorage@@V?$allocator@UInvenBlockItem@ioUserBlockStorage@@@std@@@std@@@std@@QAE@PAUInvenBlockItem@ioUserBlockStorage@@PBU_Container_base0@1@@Z ENDP ; std::_Vector_iterator<std::_Vector_val<ioUserBlockStorage::InvenBlockItem,std::allocator<ioUserBlockStorage::InvenBlockItem> > >::_Vector_iterator<std::_Vector_val<ioUserBlockStorage::InvenBlockItem,std::allocator<ioUserBlockStorage::InvenBlockItem> > >
_TEXT	ENDS
PUBLIC	??8?$_Vector_const_iterator@V?$_Vector_val@UInvenBlockItem@ioUserBlockStorage@@V?$allocator@UInvenBlockItem@ioUserBlockStorage@@@std@@@std@@@std@@QBE_NABV01@@Z ; std::_Vector_const_iterator<std::_Vector_val<ioUserBlockStorage::InvenBlockItem,std::allocator<ioUserBlockStorage::InvenBlockItem> > >::operator==
; Function compile flags: /Ogsp
;	COMDAT ??8?$_Vector_const_iterator@V?$_Vector_val@UInvenBlockItem@ioUserBlockStorage@@V?$allocator@UInvenBlockItem@ioUserBlockStorage@@@std@@@std@@@std@@QBE_NABV01@@Z
_TEXT	SEGMENT
__Right$ = 8						; size = 4
??8?$_Vector_const_iterator@V?$_Vector_val@UInvenBlockItem@ioUserBlockStorage@@V?$allocator@UInvenBlockItem@ioUserBlockStorage@@@std@@@std@@@std@@QBE_NABV01@@Z PROC ; std::_Vector_const_iterator<std::_Vector_val<ioUserBlockStorage::InvenBlockItem,std::allocator<ioUserBlockStorage::InvenBlockItem> > >::operator==, COMDAT
; _this$ = ecx

; 201  : 		{	// test for iterator equality

  00000	55		 push	 ebp
  00001	8b ec		 mov	 ebp, esp

; 202  : 		_Compat(_Right);
; 203  : 		return (this->_Ptr == _Right._Ptr);

  00003	8b 01		 mov	 eax, DWORD PTR [ecx]
  00005	8b 4d 08	 mov	 ecx, DWORD PTR __Right$[ebp]
  00008	2b 01		 sub	 eax, DWORD PTR [ecx]
  0000a	f7 d8		 neg	 eax
  0000c	1b c0		 sbb	 eax, eax
  0000e	40		 inc	 eax

; 204  : 		}

  0000f	5d		 pop	 ebp
  00010	c2 04 00	 ret	 4
??8?$_Vector_const_iterator@V?$_Vector_val@UInvenBlockItem@ioUserBlockStorage@@V?$allocator@UInvenBlockItem@ioUserBlockStorage@@@std@@@std@@@std@@QBE_NABV01@@Z ENDP ; std::_Vector_const_iterator<std::_Vector_val<ioUserBlockStorage::InvenBlockItem,std::allocator<ioUserBlockStorage::InvenBlockItem> > >::operator==
_TEXT	ENDS
PUBLIC	?max_size@?$vector@VioBlockDBItem@@V?$allocator@VioBlockDBItem@@@std@@@std@@QBEIXZ ; std::vector<ioBlockDBItem,std::allocator<ioBlockDBItem> >::max_size
; Function compile flags: /Ogsp
;	COMDAT ?max_size@?$vector@VioBlockDBItem@@V?$allocator@VioBlockDBItem@@@std@@@std@@QBEIXZ
_TEXT	SEGMENT
?max_size@?$vector@VioBlockDBItem@@V?$allocator@VioBlockDBItem@@@std@@@std@@QBEIXZ PROC ; std::vector<ioBlockDBItem,std::allocator<ioBlockDBItem> >::max_size, COMDAT
; _this$ = ecx

; 884  : 		return (this->_Alval.max_size());

  00000	b8 66 66 66 06	 mov	 eax, 107374182		; 06666666H

; 885  : 		}

  00005	c3		 ret	 0
?max_size@?$vector@VioBlockDBItem@@V?$allocator@VioBlockDBItem@@@std@@@std@@QBEIXZ ENDP ; std::vector<ioBlockDBItem,std::allocator<ioBlockDBItem> >::max_size
_TEXT	ENDS
PUBLIC	?_Grow_to@?$vector@VioBlockDBItem@@V?$allocator@VioBlockDBItem@@@std@@@std@@IBEII@Z ; std::vector<ioBlockDBItem,std::allocator<ioBlockDBItem> >::_Grow_to
; Function compile flags: /Ogsp
;	COMDAT ?_Grow_to@?$vector@VioBlockDBItem@@V?$allocator@VioBlockDBItem@@@std@@@std@@IBEII@Z
_TEXT	SEGMENT
__Count$ = 8						; size = 4
?_Grow_to@?$vector@VioBlockDBItem@@V?$allocator@VioBlockDBItem@@@std@@@std@@IBEII@Z PROC ; std::vector<ioBlockDBItem,std::allocator<ioBlockDBItem> >::_Grow_to, COMDAT
; _this$ = ecx

; 1274 : 		{	// grow by 50% or at least to _Count

  00000	55		 push	 ebp
  00001	8b ec		 mov	 ebp, esp

; 1275 : 		size_type _Capacity = capacity();

  00003	8b 41 08	 mov	 eax, DWORD PTR [ecx+8]
  00006	2b 01		 sub	 eax, DWORD PTR [ecx]
  00008	6a 28		 push	 40			; 00000028H
  0000a	99		 cdq
  0000b	59		 pop	 ecx
  0000c	f7 f9		 idiv	 ecx

; 1276 : 
; 1277 : 		_Capacity = max_size() - _Capacity / 2 < _Capacity
; 1278 : 			? 0 : _Capacity + _Capacity / 2;	// try to grow by 50%

  0000e	ba 66 66 66 06	 mov	 edx, 107374182		; 06666666H
  00013	8b c8		 mov	 ecx, eax
  00015	d1 e9		 shr	 ecx, 1
  00017	2b d1		 sub	 edx, ecx
  00019	3b d0		 cmp	 edx, eax
  0001b	73 04		 jae	 SHORT $LN4@Grow_to
  0001d	33 c0		 xor	 eax, eax
  0001f	eb 02		 jmp	 SHORT $LN5@Grow_to
$LN4@Grow_to:
  00021	03 c1		 add	 eax, ecx
$LN5@Grow_to:

; 1279 : 		if (_Capacity < _Count)

  00023	3b 45 08	 cmp	 eax, DWORD PTR __Count$[ebp]

; 1280 : 			_Capacity = _Count;

  00026	0f 42 45 08	 cmovb	 eax, DWORD PTR __Count$[ebp]

; 1281 : 		return (_Capacity);
; 1282 : 		}

  0002a	5d		 pop	 ebp
  0002b	c2 04 00	 ret	 4
?_Grow_to@?$vector@VioBlockDBItem@@V?$allocator@VioBlockDBItem@@@std@@@std@@IBEII@Z ENDP ; std::vector<ioBlockDBItem,std::allocator<ioBlockDBItem> >::_Grow_to
_TEXT	ENDS
PUBLIC	?_Make_iter@?$vector@UInvenBlockItem@ioUserBlockStorage@@V?$allocator@UInvenBlockItem@ioUserBlockStorage@@@std@@@std@@QBE?AV?$_Vector_iterator@V?$_Vector_val@UInvenBlockItem@ioUserBlockStorage@@V?$allocator@UInvenBlockItem@ioUserBlockStorage@@@std@@@std@@@2@V?$_Vector_const_iterator@V?$_Vector_val@UInvenBlockItem@ioUserBlockStorage@@V?$allocator@UInvenBlockItem@ioUserBlockStorage@@@std@@@std@@@2@@Z ; std::vector<ioUserBlockStorage::InvenBlockItem,std::allocator<ioUserBlockStorage::InvenBlockItem> >::_Make_iter
; Function compile flags: /Ogsp
;	COMDAT ?_Make_iter@?$vector@UInvenBlockItem@ioUserBlockStorage@@V?$allocator@UInvenBlockItem@ioUserBlockStorage@@@std@@@std@@QBE?AV?$_Vector_iterator@V?$_Vector_val@UInvenBlockItem@ioUserBlockStorage@@V?$allocator@UInvenBlockItem@ioUserBlockStorage@@@std@@@std@@@2@V?$_Vector_const_iterator@V?$_Vector_val@UInvenBlockItem@ioUserBlockStorage@@V?$allocator@UInvenBlockItem@ioUserBlockStorage@@@std@@@std@@@2@@Z
_TEXT	SEGMENT
___$ReturnUdt$ = 8					; size = 4
__Where$ = 12						; size = 4
?_Make_iter@?$vector@UInvenBlockItem@ioUserBlockStorage@@V?$allocator@UInvenBlockItem@ioUserBlockStorage@@@std@@@std@@QBE?AV?$_Vector_iterator@V?$_Vector_val@UInvenBlockItem@ioUserBlockStorage@@V?$allocator@UInvenBlockItem@ioUserBlockStorage@@@std@@@std@@@2@V?$_Vector_const_iterator@V?$_Vector_val@UInvenBlockItem@ioUserBlockStorage@@V?$allocator@UInvenBlockItem@ioUserBlockStorage@@@std@@@std@@@2@@Z PROC ; std::vector<ioUserBlockStorage::InvenBlockItem,std::allocator<ioUserBlockStorage::InvenBlockItem> >::_Make_iter, COMDAT
; _this$ = ecx

; 801  : 		{	// make iterator from const_iterator

  00000	55		 push	 ebp
  00001	8b ec		 mov	 ebp, esp

; 802  : 		return (iterator(_Where._Ptr, this));

  00003	8b 45 08	 mov	 eax, DWORD PTR ___$ReturnUdt$[ebp]
  00006	8b 4d 0c	 mov	 ecx, DWORD PTR __Where$[ebp]
  00009	89 08		 mov	 DWORD PTR [eax], ecx

; 803  : 		}

  0000b	5d		 pop	 ebp
  0000c	c2 08 00	 ret	 8
?_Make_iter@?$vector@UInvenBlockItem@ioUserBlockStorage@@V?$allocator@UInvenBlockItem@ioUserBlockStorage@@@std@@@std@@QBE?AV?$_Vector_iterator@V?$_Vector_val@UInvenBlockItem@ioUserBlockStorage@@V?$allocator@UInvenBlockItem@ioUserBlockStorage@@@std@@@std@@@2@V?$_Vector_const_iterator@V?$_Vector_val@UInvenBlockItem@ioUserBlockStorage@@V?$allocator@UInvenBlockItem@ioUserBlockStorage@@@std@@@std@@@2@@Z ENDP ; std::vector<ioUserBlockStorage::InvenBlockItem,std::allocator<ioUserBlockStorage::InvenBlockItem> >::_Make_iter
_TEXT	ENDS
PUBLIC	?max_size@?$vector@UInvenBlockItem@ioUserBlockStorage@@V?$allocator@UInvenBlockItem@ioUserBlockStorage@@@std@@@std@@QBEIXZ ; std::vector<ioUserBlockStorage::InvenBlockItem,std::allocator<ioUserBlockStorage::InvenBlockItem> >::max_size
; Function compile flags: /Ogsp
;	COMDAT ?max_size@?$vector@UInvenBlockItem@ioUserBlockStorage@@V?$allocator@UInvenBlockItem@ioUserBlockStorage@@@std@@@std@@QBEIXZ
_TEXT	SEGMENT
?max_size@?$vector@UInvenBlockItem@ioUserBlockStorage@@V?$allocator@UInvenBlockItem@ioUserBlockStorage@@@std@@@std@@QBEIXZ PROC ; std::vector<ioUserBlockStorage::InvenBlockItem,std::allocator<ioUserBlockStorage::InvenBlockItem> >::max_size, COMDAT
; _this$ = ecx

; 884  : 		return (this->_Alval.max_size());

  00000	b8 24 49 92 04	 mov	 eax, 76695844		; 04924924H

; 885  : 		}

  00005	c3		 ret	 0
?max_size@?$vector@UInvenBlockItem@ioUserBlockStorage@@V?$allocator@UInvenBlockItem@ioUserBlockStorage@@@std@@@std@@QBEIXZ ENDP ; std::vector<ioUserBlockStorage::InvenBlockItem,std::allocator<ioUserBlockStorage::InvenBlockItem> >::max_size
_TEXT	ENDS
PUBLIC	?_Grow_to@?$vector@UInvenBlockItem@ioUserBlockStorage@@V?$allocator@UInvenBlockItem@ioUserBlockStorage@@@std@@@std@@IBEII@Z ; std::vector<ioUserBlockStorage::InvenBlockItem,std::allocator<ioUserBlockStorage::InvenBlockItem> >::_Grow_to
; Function compile flags: /Ogsp
;	COMDAT ?_Grow_to@?$vector@UInvenBlockItem@ioUserBlockStorage@@V?$allocator@UInvenBlockItem@ioUserBlockStorage@@@std@@@std@@IBEII@Z
_TEXT	SEGMENT
__Count$ = 8						; size = 4
?_Grow_to@?$vector@UInvenBlockItem@ioUserBlockStorage@@V?$allocator@UInvenBlockItem@ioUserBlockStorage@@@std@@@std@@IBEII@Z PROC ; std::vector<ioUserBlockStorage::InvenBlockItem,std::allocator<ioUserBlockStorage::InvenBlockItem> >::_Grow_to, COMDAT
; _this$ = ecx

; 1274 : 		{	// grow by 50% or at least to _Count

  00000	55		 push	 ebp
  00001	8b ec		 mov	 ebp, esp

; 1275 : 		size_type _Capacity = capacity();

  00003	8b 41 08	 mov	 eax, DWORD PTR [ecx+8]
  00006	2b 01		 sub	 eax, DWORD PTR [ecx]
  00008	6a 38		 push	 56			; 00000038H
  0000a	99		 cdq
  0000b	59		 pop	 ecx
  0000c	f7 f9		 idiv	 ecx

; 1276 : 
; 1277 : 		_Capacity = max_size() - _Capacity / 2 < _Capacity
; 1278 : 			? 0 : _Capacity + _Capacity / 2;	// try to grow by 50%

  0000e	ba 24 49 92 04	 mov	 edx, 76695844		; 04924924H
  00013	8b c8		 mov	 ecx, eax
  00015	d1 e9		 shr	 ecx, 1
  00017	2b d1		 sub	 edx, ecx
  00019	3b d0		 cmp	 edx, eax
  0001b	73 04		 jae	 SHORT $LN4@Grow_to@2
  0001d	33 c0		 xor	 eax, eax
  0001f	eb 02		 jmp	 SHORT $LN5@Grow_to@2
$LN4@Grow_to@2:
  00021	03 c1		 add	 eax, ecx
$LN5@Grow_to@2:

; 1279 : 		if (_Capacity < _Count)

  00023	3b 45 08	 cmp	 eax, DWORD PTR __Count$[ebp]

; 1280 : 			_Capacity = _Count;

  00026	0f 42 45 08	 cmovb	 eax, DWORD PTR __Count$[ebp]

; 1281 : 		return (_Capacity);
; 1282 : 		}

  0002a	5d		 pop	 ebp
  0002b	c2 04 00	 ret	 4
?_Grow_to@?$vector@UInvenBlockItem@ioUserBlockStorage@@V?$allocator@UInvenBlockItem@ioUserBlockStorage@@@std@@@std@@IBEII@Z ENDP ; std::vector<ioUserBlockStorage::InvenBlockItem,std::allocator<ioUserBlockStorage::InvenBlockItem> >::_Grow_to
_TEXT	ENDS
PUBLIC	?allocate@?$allocator@UInvenBlockItem@ioUserBlockStorage@@@std@@QAEPAUInvenBlockItem@ioUserBlockStorage@@I@Z ; std::allocator<ioUserBlockStorage::InvenBlockItem>::allocate
; Function compile flags: /Ogsp
; File c:\program files (x86)\microsoft visual studio 10.0\vc\include\xmemory
;	COMDAT ?allocate@?$allocator@UInvenBlockItem@ioUserBlockStorage@@@std@@QAEPAUInvenBlockItem@ioUserBlockStorage@@I@Z
_TEXT	SEGMENT
__Count$ = 8						; size = 4
?allocate@?$allocator@UInvenBlockItem@ioUserBlockStorage@@@std@@QAEPAUInvenBlockItem@ioUserBlockStorage@@I@Z PROC ; std::allocator<ioUserBlockStorage::InvenBlockItem>::allocate, COMDAT
; _this$ = ecx

; 186  : 		{	// allocate array of _Count elements

  00000	55		 push	 ebp
  00001	8b ec		 mov	 ebp, esp

; 187  : 		return (_Allocate(_Count, (pointer)0));

  00003	6a 00		 push	 0
  00005	ff 75 08	 push	 DWORD PTR __Count$[ebp]
  00008	e8 00 00 00 00	 call	 ??$_Allocate@UInvenBlockItem@ioUserBlockStorage@@@std@@YAPAUInvenBlockItem@ioUserBlockStorage@@IPAU12@@Z ; std::_Allocate<ioUserBlockStorage::InvenBlockItem>
  0000d	59		 pop	 ecx
  0000e	59		 pop	 ecx

; 188  : 		}

  0000f	5d		 pop	 ebp
  00010	c2 04 00	 ret	 4
?allocate@?$allocator@UInvenBlockItem@ioUserBlockStorage@@@std@@QAEPAUInvenBlockItem@ioUserBlockStorage@@I@Z ENDP ; std::allocator<ioUserBlockStorage::InvenBlockItem>::allocate
_TEXT	ENDS
PUBLIC	??0?$_Vector_iterator@V?$_Vector_val@VioBlockDBItem@@V?$allocator@VioBlockDBItem@@@std@@@std@@@std@@QAE@PAVioBlockDBItem@@PBU_Container_base0@1@@Z ; std::_Vector_iterator<std::_Vector_val<ioBlockDBItem,std::allocator<ioBlockDBItem> > >::_Vector_iterator<std::_Vector_val<ioBlockDBItem,std::allocator<ioBlockDBItem> > >
; Function compile flags: /Ogsp
; File c:\program files (x86)\microsoft visual studio 10.0\vc\include\vector
;	COMDAT ??0?$_Vector_iterator@V?$_Vector_val@VioBlockDBItem@@V?$allocator@VioBlockDBItem@@@std@@@std@@@std@@QAE@PAVioBlockDBItem@@PBU_Container_base0@1@@Z
_TEXT	SEGMENT
__Parg$ = 8						; size = 4
__Pvector$ = 12						; size = 4
??0?$_Vector_iterator@V?$_Vector_val@VioBlockDBItem@@V?$allocator@VioBlockDBItem@@@std@@@std@@@std@@QAE@PAVioBlockDBItem@@PBU_Container_base0@1@@Z PROC ; std::_Vector_iterator<std::_Vector_val<ioBlockDBItem,std::allocator<ioBlockDBItem> > >::_Vector_iterator<std::_Vector_val<ioBlockDBItem,std::allocator<ioBlockDBItem> > >, COMDAT
; _this$ = ecx

; 304  : 		{	// construct with pointer _Parg

  00000	55		 push	 ebp
  00001	8b ec		 mov	 ebp, esp
  00003	8b c1		 mov	 eax, ecx
  00005	8b 4d 08	 mov	 ecx, DWORD PTR __Parg$[ebp]
  00008	89 08		 mov	 DWORD PTR [eax], ecx

; 305  : 		}

  0000a	5d		 pop	 ebp
  0000b	c2 08 00	 ret	 8
??0?$_Vector_iterator@V?$_Vector_val@VioBlockDBItem@@V?$allocator@VioBlockDBItem@@@std@@@std@@@std@@QAE@PAVioBlockDBItem@@PBU_Container_base0@1@@Z ENDP ; std::_Vector_iterator<std::_Vector_val<ioBlockDBItem,std::allocator<ioBlockDBItem> > >::_Vector_iterator<std::_Vector_val<ioBlockDBItem,std::allocator<ioBlockDBItem> > >
_TEXT	ENDS
PUBLIC	?allocate@?$allocator@VioBlockDBItem@@@std@@QAEPAVioBlockDBItem@@I@Z ; std::allocator<ioBlockDBItem>::allocate
; Function compile flags: /Ogsp
; File c:\program files (x86)\microsoft visual studio 10.0\vc\include\xmemory
;	COMDAT ?allocate@?$allocator@VioBlockDBItem@@@std@@QAEPAVioBlockDBItem@@I@Z
_TEXT	SEGMENT
__Count$ = 8						; size = 4
?allocate@?$allocator@VioBlockDBItem@@@std@@QAEPAVioBlockDBItem@@I@Z PROC ; std::allocator<ioBlockDBItem>::allocate, COMDAT
; _this$ = ecx

; 186  : 		{	// allocate array of _Count elements

  00000	55		 push	 ebp
  00001	8b ec		 mov	 ebp, esp

; 187  : 		return (_Allocate(_Count, (pointer)0));

  00003	6a 00		 push	 0
  00005	ff 75 08	 push	 DWORD PTR __Count$[ebp]
  00008	e8 00 00 00 00	 call	 ??$_Allocate@VioBlockDBItem@@@std@@YAPAVioBlockDBItem@@IPAV1@@Z ; std::_Allocate<ioBlockDBItem>
  0000d	59		 pop	 ecx
  0000e	59		 pop	 ecx

; 188  : 		}

  0000f	5d		 pop	 ebp
  00010	c2 04 00	 ret	 4
?allocate@?$allocator@VioBlockDBItem@@@std@@QAEPAVioBlockDBItem@@I@Z ENDP ; std::allocator<ioBlockDBItem>::allocate
_TEXT	ENDS
PUBLIC	??8?$_Vector_const_iterator@V?$_Vector_val@VioBlockDBItem@@V?$allocator@VioBlockDBItem@@@std@@@std@@@std@@QBE_NABV01@@Z ; std::_Vector_const_iterator<std::_Vector_val<ioBlockDBItem,std::allocator<ioBlockDBItem> > >::operator==
; Function compile flags: /Ogsp
; File c:\program files (x86)\microsoft visual studio 10.0\vc\include\vector
;	COMDAT ??8?$_Vector_const_iterator@V?$_Vector_val@VioBlockDBItem@@V?$allocator@VioBlockDBItem@@@std@@@std@@@std@@QBE_NABV01@@Z
_TEXT	SEGMENT
__Right$ = 8						; size = 4
??8?$_Vector_const_iterator@V?$_Vector_val@VioBlockDBItem@@V?$allocator@VioBlockDBItem@@@std@@@std@@@std@@QBE_NABV01@@Z PROC ; std::_Vector_const_iterator<std::_Vector_val<ioBlockDBItem,std::allocator<ioBlockDBItem> > >::operator==, COMDAT
; _this$ = ecx

; 201  : 		{	// test for iterator equality

  00000	55		 push	 ebp
  00001	8b ec		 mov	 ebp, esp

; 202  : 		_Compat(_Right);
; 203  : 		return (this->_Ptr == _Right._Ptr);

  00003	8b 01		 mov	 eax, DWORD PTR [ecx]
  00005	8b 4d 08	 mov	 ecx, DWORD PTR __Right$[ebp]
  00008	2b 01		 sub	 eax, DWORD PTR [ecx]
  0000a	f7 d8		 neg	 eax
  0000c	1b c0		 sbb	 eax, eax
  0000e	40		 inc	 eax

; 204  : 		}

  0000f	5d		 pop	 ebp
  00010	c2 04 00	 ret	 4
??8?$_Vector_const_iterator@V?$_Vector_val@VioBlockDBItem@@V?$allocator@VioBlockDBItem@@@std@@@std@@@std@@QBE_NABV01@@Z ENDP ; std::_Vector_const_iterator<std::_Vector_val<ioBlockDBItem,std::allocator<ioBlockDBItem> > >::operator==
_TEXT	ENDS
PUBLIC	??$back_inserter@V?$vector@UInvenBlockItem@ioUserBlockStorage@@V?$allocator@UInvenBlockItem@ioUserBlockStorage@@@std@@@std@@@std@@YA?AV?$back_insert_iterator@V?$vector@UInvenBlockItem@ioUserBlockStorage@@V?$allocator@UInvenBlockItem@ioUserBlockStorage@@@std@@@std@@@0@AAV?$vector@UInvenBlockItem@ioUserBlockStorage@@V?$allocator@UInvenBlockItem@ioUserBlockStorage@@@std@@@0@@Z ; std::back_inserter<std::vector<ioUserBlockStorage::InvenBlockItem,std::allocator<ioUserBlockStorage::InvenBlockItem> > >
; Function compile flags: /Ogsp
; File c:\program files (x86)\microsoft visual studio 10.0\vc\include\iterator
;	COMDAT ??$back_inserter@V?$vector@UInvenBlockItem@ioUserBlockStorage@@V?$allocator@UInvenBlockItem@ioUserBlockStorage@@@std@@@std@@@std@@YA?AV?$back_insert_iterator@V?$vector@UInvenBlockItem@ioUserBlockStorage@@V?$allocator@UInvenBlockItem@ioUserBlockStorage@@@std@@@std@@@0@AAV?$vector@UInvenBlockItem@ioUserBlockStorage@@V?$allocator@UInvenBlockItem@ioUserBlockStorage@@@std@@@0@@Z
_TEXT	SEGMENT
___$ReturnUdt$ = 8					; size = 4
__Cont$ = 12						; size = 4
??$back_inserter@V?$vector@UInvenBlockItem@ioUserBlockStorage@@V?$allocator@UInvenBlockItem@ioUserBlockStorage@@@std@@@std@@@std@@YA?AV?$back_insert_iterator@V?$vector@UInvenBlockItem@ioUserBlockStorage@@V?$allocator@UInvenBlockItem@ioUserBlockStorage@@@std@@@std@@@0@AAV?$vector@UInvenBlockItem@ioUserBlockStorage@@V?$allocator@UInvenBlockItem@ioUserBlockStorage@@@std@@@0@@Z PROC ; std::back_inserter<std::vector<ioUserBlockStorage::InvenBlockItem,std::allocator<ioUserBlockStorage::InvenBlockItem> > >, COMDAT

; 69   : 	{	// return a back_insert_iterator

  00000	55		 push	 ebp
  00001	8b ec		 mov	 ebp, esp

; 70   : 	return (_STD back_insert_iterator<_Container>(_Cont));

  00003	8b 45 08	 mov	 eax, DWORD PTR ___$ReturnUdt$[ebp]
  00006	8b 4d 0c	 mov	 ecx, DWORD PTR __Cont$[ebp]
  00009	89 08		 mov	 DWORD PTR [eax], ecx

; 71   : 	}

  0000b	5d		 pop	 ebp
  0000c	c3		 ret	 0
??$back_inserter@V?$vector@UInvenBlockItem@ioUserBlockStorage@@V?$allocator@UInvenBlockItem@ioUserBlockStorage@@@std@@@std@@@std@@YA?AV?$back_insert_iterator@V?$vector@UInvenBlockItem@ioUserBlockStorage@@V?$allocator@UInvenBlockItem@ioUserBlockStorage@@@std@@@std@@@0@AAV?$vector@UInvenBlockItem@ioUserBlockStorage@@V?$allocator@UInvenBlockItem@ioUserBlockStorage@@@std@@@0@@Z ENDP ; std::back_inserter<std::vector<ioUserBlockStorage::InvenBlockItem,std::allocator<ioUserBlockStorage::InvenBlockItem> > >
_TEXT	ENDS
PUBLIC	??G?$_Vector_iterator@V?$_Vector_val@UInvenBlockItem@ioUserBlockStorage@@V?$allocator@UInvenBlockItem@ioUserBlockStorage@@@std@@@std@@@std@@QBEHABV?$_Vector_const_iterator@V?$_Vector_val@UInvenBlockItem@ioUserBlockStorage@@V?$allocator@UInvenBlockItem@ioUserBlockStorage@@@std@@@std@@@1@@Z ; std::_Vector_iterator<std::_Vector_val<ioUserBlockStorage::InvenBlockItem,std::allocator<ioUserBlockStorage::InvenBlockItem> > >::operator-
; Function compile flags: /Ogsp
; File c:\program files (x86)\microsoft visual studio 10.0\vc\include\vector
;	COMDAT ??G?$_Vector_iterator@V?$_Vector_val@UInvenBlockItem@ioUserBlockStorage@@V?$allocator@UInvenBlockItem@ioUserBlockStorage@@@std@@@std@@@std@@QBEHABV?$_Vector_const_iterator@V?$_Vector_val@UInvenBlockItem@ioUserBlockStorage@@V?$allocator@UInvenBlockItem@ioUserBlockStorage@@@std@@@std@@@1@@Z
_TEXT	SEGMENT
__Right$ = 8						; size = 4
??G?$_Vector_iterator@V?$_Vector_val@UInvenBlockItem@ioUserBlockStorage@@V?$allocator@UInvenBlockItem@ioUserBlockStorage@@@std@@@std@@@std@@QBEHABV?$_Vector_const_iterator@V?$_Vector_val@UInvenBlockItem@ioUserBlockStorage@@V?$allocator@UInvenBlockItem@ioUserBlockStorage@@@std@@@std@@@1@@Z PROC ; std::_Vector_iterator<std::_Vector_val<ioUserBlockStorage::InvenBlockItem,std::allocator<ioUserBlockStorage::InvenBlockItem> > >::operator-, COMDAT
; _this$ = ecx

; 380  : 		{	// return difference of iterators

  00000	55		 push	 ebp
  00001	8b ec		 mov	 ebp, esp

; 381  : 		return (*(_Mybase *)this - _Right);

  00003	8b 01		 mov	 eax, DWORD PTR [ecx]
  00005	8b 4d 08	 mov	 ecx, DWORD PTR __Right$[ebp]
  00008	2b 01		 sub	 eax, DWORD PTR [ecx]
  0000a	6a 38		 push	 56			; 00000038H
  0000c	99		 cdq
  0000d	59		 pop	 ecx
  0000e	f7 f9		 idiv	 ecx

; 382  : 		}

  00010	5d		 pop	 ebp
  00011	c2 04 00	 ret	 4
??G?$_Vector_iterator@V?$_Vector_val@UInvenBlockItem@ioUserBlockStorage@@V?$allocator@UInvenBlockItem@ioUserBlockStorage@@@std@@@std@@@std@@QBEHABV?$_Vector_const_iterator@V?$_Vector_val@UInvenBlockItem@ioUserBlockStorage@@V?$allocator@UInvenBlockItem@ioUserBlockStorage@@@std@@@std@@@1@@Z ENDP ; std::_Vector_iterator<std::_Vector_val<ioUserBlockStorage::InvenBlockItem,std::allocator<ioUserBlockStorage::InvenBlockItem> > >::operator-
_TEXT	ENDS
PUBLIC	??$_Unchecked@V?$_Vector_val@UInvenBlockItem@ioUserBlockStorage@@V?$allocator@UInvenBlockItem@ioUserBlockStorage@@@std@@@std@@@std@@YAPAUInvenBlockItem@ioUserBlockStorage@@V?$_Vector_iterator@V?$_Vector_val@UInvenBlockItem@ioUserBlockStorage@@V?$allocator@UInvenBlockItem@ioUserBlockStorage@@@std@@@std@@@0@@Z ; std::_Unchecked<std::_Vector_val<ioUserBlockStorage::InvenBlockItem,std::allocator<ioUserBlockStorage::InvenBlockItem> > >
; Function compile flags: /Ogsp
;	COMDAT ??$_Unchecked@V?$_Vector_val@UInvenBlockItem@ioUserBlockStorage@@V?$allocator@UInvenBlockItem@ioUserBlockStorage@@@std@@@std@@@std@@YAPAUInvenBlockItem@ioUserBlockStorage@@V?$_Vector_iterator@V?$_Vector_val@UInvenBlockItem@ioUserBlockStorage@@V?$allocator@UInvenBlockItem@ioUserBlockStorage@@@std@@@std@@@0@@Z
_TEXT	SEGMENT
__Iter$ = 8						; size = 4
??$_Unchecked@V?$_Vector_val@UInvenBlockItem@ioUserBlockStorage@@V?$allocator@UInvenBlockItem@ioUserBlockStorage@@@std@@@std@@@std@@YAPAUInvenBlockItem@ioUserBlockStorage@@V?$_Vector_iterator@V?$_Vector_val@UInvenBlockItem@ioUserBlockStorage@@V?$allocator@UInvenBlockItem@ioUserBlockStorage@@@std@@@std@@@0@@Z PROC ; std::_Unchecked<std::_Vector_val<ioUserBlockStorage::InvenBlockItem,std::allocator<ioUserBlockStorage::InvenBlockItem> > >, COMDAT

; 393  : 	{	// convert to unchecked

  00000	55		 push	 ebp
  00001	8b ec		 mov	 ebp, esp

; 394  : 	return (_Iter._Unchecked());

  00003	8b 45 08	 mov	 eax, DWORD PTR __Iter$[ebp]

; 395  : 	}

  00006	5d		 pop	 ebp
  00007	c3		 ret	 0
??$_Unchecked@V?$_Vector_val@UInvenBlockItem@ioUserBlockStorage@@V?$allocator@UInvenBlockItem@ioUserBlockStorage@@@std@@@std@@@std@@YAPAUInvenBlockItem@ioUserBlockStorage@@V?$_Vector_iterator@V?$_Vector_val@UInvenBlockItem@ioUserBlockStorage@@V?$allocator@UInvenBlockItem@ioUserBlockStorage@@@std@@@std@@@0@@Z ENDP ; std::_Unchecked<std::_Vector_val<ioUserBlockStorage::InvenBlockItem,std::allocator<ioUserBlockStorage::InvenBlockItem> > >
_TEXT	ENDS
PUBLIC	??$construct@AAVioBlockDBItem@@@?$allocator@VioBlockDBItem@@@std@@QAEXPAVioBlockDBItem@@AAV2@@Z ; std::allocator<ioBlockDBItem>::construct<ioBlockDBItem &>
; Function compile flags: /Ogsp
; File c:\program files (x86)\microsoft visual studio 10.0\vc\include\xmemory
;	COMDAT ??$construct@AAVioBlockDBItem@@@?$allocator@VioBlockDBItem@@@std@@QAEXPAVioBlockDBItem@@AAV2@@Z
_TEXT	SEGMENT
__Ptr$ = 8						; size = 4
__Val$ = 12						; size = 4
??$construct@AAVioBlockDBItem@@@?$allocator@VioBlockDBItem@@@std@@QAEXPAVioBlockDBItem@@AAV2@@Z PROC ; std::allocator<ioBlockDBItem>::construct<ioBlockDBItem &>, COMDAT
; _this$ = ecx

; 206  : 		void construct(pointer _Ptr, _Other&& _Val)

  00000	55		 push	 ebp
  00001	8b ec		 mov	 ebp, esp

; 207  : 		{	// construct object at _Ptr with value _Val
; 208  : 		::new ((void _FARQ *)_Ptr) _Ty(_STD forward<_Other>(_Val));

  00003	8b 4d 08	 mov	 ecx, DWORD PTR __Ptr$[ebp]
  00006	85 c9		 test	 ecx, ecx
  00008	74 08		 je	 SHORT $LN3@construct
  0000a	ff 75 0c	 push	 DWORD PTR __Val$[ebp]
  0000d	e8 00 00 00 00	 call	 ??0ioBlockDBItem@@QAE@ABV0@@Z
$LN3@construct:

; 209  : 		}

  00012	5d		 pop	 ebp
  00013	c2 08 00	 ret	 8
??$construct@AAVioBlockDBItem@@@?$allocator@VioBlockDBItem@@@std@@QAEXPAVioBlockDBItem@@AAV2@@Z ENDP ; std::allocator<ioBlockDBItem>::construct<ioBlockDBItem &>
_TEXT	ENDS
PUBLIC	??$_Copy_impl@PAUInvenBlockItem@ioUserBlockStorage@@PAU12@@std@@YAPAUInvenBlockItem@ioUserBlockStorage@@PAU12@00U_Nonscalar_ptr_iterator_tag@0@@Z ; std::_Copy_impl<ioUserBlockStorage::InvenBlockItem *,ioUserBlockStorage::InvenBlockItem *>
; Function compile flags: /Ogsp
; File c:\program files (x86)\microsoft visual studio 10.0\vc\include\xutility
;	COMDAT ??$_Copy_impl@PAUInvenBlockItem@ioUserBlockStorage@@PAU12@@std@@YAPAUInvenBlockItem@ioUserBlockStorage@@PAU12@00U_Nonscalar_ptr_iterator_tag@0@@Z
_TEXT	SEGMENT
__First$ = 8						; size = 4
__Last$ = 12						; size = 4
__Dest$ = 16						; size = 4
___formal$ = 20						; size = 1
??$_Copy_impl@PAUInvenBlockItem@ioUserBlockStorage@@PAU12@@std@@YAPAUInvenBlockItem@ioUserBlockStorage@@PAU12@00U_Nonscalar_ptr_iterator_tag@0@@Z PROC ; std::_Copy_impl<ioUserBlockStorage::InvenBlockItem *,ioUserBlockStorage::InvenBlockItem *>, COMDAT

; 2142 : 	{	// copy [_First, _Last) to [_Dest, ...), arbitrary iterators

  00000	55		 push	 ebp
  00001	8b ec		 mov	 ebp, esp
  00003	56		 push	 esi

; 2143 : 	for (; _First != _Last; ++_Dest, ++_First)

  00004	8b 75 08	 mov	 esi, DWORD PTR __First$[ebp]
  00007	eb 10		 jmp	 SHORT $LN9@Copy_impl
$LL3@Copy_impl:

; 2144 : 		*_Dest = *_First;

  00009	8b 4d 10	 mov	 ecx, DWORD PTR __Dest$[ebp]
  0000c	56		 push	 esi
  0000d	e8 00 00 00 00	 call	 ??4InvenBlockItem@ioUserBlockStorage@@QAEAAU01@ABU01@@Z
  00012	83 45 10 38	 add	 DWORD PTR __Dest$[ebp], 56 ; 00000038H
  00016	83 c6 38	 add	 esi, 56			; 00000038H
$LN9@Copy_impl:

; 2143 : 	for (; _First != _Last; ++_Dest, ++_First)

  00019	3b 75 0c	 cmp	 esi, DWORD PTR __Last$[ebp]
  0001c	75 eb		 jne	 SHORT $LL3@Copy_impl

; 2145 : 	return (_Dest);

  0001e	8b 45 10	 mov	 eax, DWORD PTR __Dest$[ebp]
  00021	5e		 pop	 esi

; 2146 : 	}

  00022	5d		 pop	 ebp
  00023	c3		 ret	 0
??$_Copy_impl@PAUInvenBlockItem@ioUserBlockStorage@@PAU12@@std@@YAPAUInvenBlockItem@ioUserBlockStorage@@PAU12@00U_Nonscalar_ptr_iterator_tag@0@@Z ENDP ; std::_Copy_impl<ioUserBlockStorage::InvenBlockItem *,ioUserBlockStorage::InvenBlockItem *>
_TEXT	ENDS
PUBLIC	??$construct@AAUInvenBlockItem@ioUserBlockStorage@@@?$allocator@UInvenBlockItem@ioUserBlockStorage@@@std@@QAEXPAUInvenBlockItem@ioUserBlockStorage@@AAU23@@Z ; std::allocator<ioUserBlockStorage::InvenBlockItem>::construct<ioUserBlockStorage::InvenBlockItem &>
;	COMDAT xdata$x
; File c:\program files (x86)\microsoft visual studio 10.0\vc\include\utility
xdata$x	SEGMENT
__unwindtable$??$construct@AAUInvenBlockItem@ioUserBlockStorage@@@?$allocator@UInvenBlockItem@ioUserBlockStorage@@@std@@QAEXPAUInvenBlockItem@ioUserBlockStorage@@AAU23@@Z DD 0ffffffffH
	DD	FLAT:__unwindfunclet$??$construct@AAUInvenBlockItem@ioUserBlockStorage@@@?$allocator@UInvenBlockItem@ioUserBlockStorage@@@std@@QAEXPAUInvenBlockItem@ioUserBlockStorage@@AAU23@@Z$0
__ehfuncinfo$??$construct@AAUInvenBlockItem@ioUserBlockStorage@@@?$allocator@UInvenBlockItem@ioUserBlockStorage@@@std@@QAEXPAUInvenBlockItem@ioUserBlockStorage@@AAU23@@Z DD 019930522H
	DD	01H
	DD	FLAT:__unwindtable$??$construct@AAUInvenBlockItem@ioUserBlockStorage@@@?$allocator@UInvenBlockItem@ioUserBlockStorage@@@std@@QAEXPAUInvenBlockItem@ioUserBlockStorage@@AAU23@@Z
	DD	2 DUP(00H)
	DD	2 DUP(00H)
	DD	00H
	DD	01H
; Function compile flags: /Ogsp
; File c:\program files (x86)\microsoft visual studio 10.0\vc\include\xmemory
xdata$x	ENDS
;	COMDAT ??$construct@AAUInvenBlockItem@ioUserBlockStorage@@@?$allocator@UInvenBlockItem@ioUserBlockStorage@@@std@@QAEXPAUInvenBlockItem@ioUserBlockStorage@@AAU23@@Z
_TEXT	SEGMENT
$T512197 = -16						; size = 4
__$EHRec$ = -12						; size = 12
__Ptr$ = 8						; size = 4
__Val$ = 12						; size = 4
??$construct@AAUInvenBlockItem@ioUserBlockStorage@@@?$allocator@UInvenBlockItem@ioUserBlockStorage@@@std@@QAEXPAUInvenBlockItem@ioUserBlockStorage@@AAU23@@Z PROC ; std::allocator<ioUserBlockStorage::InvenBlockItem>::construct<ioUserBlockStorage::InvenBlockItem &>, COMDAT
; _this$ = ecx

; 206  : 		void construct(pointer _Ptr, _Other&& _Val)

  00000	6a 04		 push	 4
  00002	b8 00 00 00 00	 mov	 eax, __ehhandler$??$construct@AAUInvenBlockItem@ioUserBlockStorage@@@?$allocator@UInvenBlockItem@ioUserBlockStorage@@@std@@QAEXPAUInvenBlockItem@ioUserBlockStorage@@AAU23@@Z
  00007	e8 00 00 00 00	 call	 __EH_prolog3

; 207  : 		{	// construct object at _Ptr with value _Val
; 208  : 		::new ((void _FARQ *)_Ptr) _Ty(_STD forward<_Other>(_Val));

  0000c	8b 4d 08	 mov	 ecx, DWORD PTR __Ptr$[ebp]
  0000f	89 4d f0	 mov	 DWORD PTR $T512197[ebp], ecx
  00012	83 65 fc 00	 and	 DWORD PTR __$EHRec$[ebp+8], 0
  00016	85 c9		 test	 ecx, ecx
  00018	74 08		 je	 SHORT $LN3@construct@2
  0001a	ff 75 0c	 push	 DWORD PTR __Val$[ebp]
  0001d	e8 00 00 00 00	 call	 ??0InvenBlockItem@ioUserBlockStorage@@QAE@ABU01@@Z
$LN3@construct@2:

; 209  : 		}

  00022	e8 00 00 00 00	 call	 __EH_epilog3
  00027	c2 08 00	 ret	 8
_TEXT	ENDS
;	COMDAT text$x
text$x	SEGMENT
__unwindfunclet$??$construct@AAUInvenBlockItem@ioUserBlockStorage@@@?$allocator@UInvenBlockItem@ioUserBlockStorage@@@std@@QAEXPAUInvenBlockItem@ioUserBlockStorage@@AAU23@@Z$0:
  00000	ff 75 08	 push	 DWORD PTR __Ptr$[ebp]
  00003	ff 75 f0	 push	 DWORD PTR $T512197[ebp]
  00006	e8 00 00 00 00	 call	 ??3@YAXPAX0@Z		; operator delete
  0000b	59		 pop	 ecx
  0000c	59		 pop	 ecx
  0000d	c3		 ret	 0
__ehhandler$??$construct@AAUInvenBlockItem@ioUserBlockStorage@@@?$allocator@UInvenBlockItem@ioUserBlockStorage@@@std@@QAEXPAUInvenBlockItem@ioUserBlockStorage@@AAU23@@Z:
  0000e	8b 54 24 08	 mov	 edx, DWORD PTR [esp+8]
  00012	8d 42 0c	 lea	 eax, DWORD PTR [edx+12]
  00015	8b 4a ec	 mov	 ecx, DWORD PTR [edx-20]
  00018	33 c8		 xor	 ecx, eax
  0001a	e8 00 00 00 00	 call	 @__security_check_cookie@4
  0001f	b8 00 00 00 00	 mov	 eax, OFFSET __ehfuncinfo$??$construct@AAUInvenBlockItem@ioUserBlockStorage@@@?$allocator@UInvenBlockItem@ioUserBlockStorage@@@std@@QAEXPAUInvenBlockItem@ioUserBlockStorage@@AAU23@@Z
  00024	e9 00 00 00 00	 jmp	 ___CxxFrameHandler3
text$x	ENDS
??$construct@AAUInvenBlockItem@ioUserBlockStorage@@@?$allocator@UInvenBlockItem@ioUserBlockStorage@@@std@@QAEXPAUInvenBlockItem@ioUserBlockStorage@@AAU23@@Z ENDP ; std::allocator<ioUserBlockStorage::InvenBlockItem>::construct<ioUserBlockStorage::InvenBlockItem &>
PUBLIC	??$_Move@PAVioBlockDBItem@@PAV1@@std@@YAPAVioBlockDBItem@@PAV1@00U_Nonscalar_ptr_iterator_tag@0@@Z ; std::_Move<ioBlockDBItem *,ioBlockDBItem *>
; Function compile flags: /Ogsp
; File c:\program files (x86)\microsoft visual studio 10.0\vc\include\xutility
;	COMDAT ??$_Move@PAVioBlockDBItem@@PAV1@@std@@YAPAVioBlockDBItem@@PAV1@00U_Nonscalar_ptr_iterator_tag@0@@Z
_TEXT	SEGMENT
__First$ = 8						; size = 4
__Last$ = 12						; size = 4
__Dest$ = 16						; size = 4
___formal$ = 20						; size = 1
??$_Move@PAVioBlockDBItem@@PAV1@@std@@YAPAVioBlockDBItem@@PAV1@00U_Nonscalar_ptr_iterator_tag@0@@Z PROC ; std::_Move<ioBlockDBItem *,ioBlockDBItem *>, COMDAT

; 2512 : 	{	// move [_First, _Last) to [_Dest, ...), arbitrary iterators

  00000	55		 push	 ebp
  00001	8b ec		 mov	 ebp, esp
  00003	56		 push	 esi

; 2513 : 	for (; _First != _Last; ++_Dest, ++_First)

  00004	8b 75 08	 mov	 esi, DWORD PTR __First$[ebp]
  00007	eb 10		 jmp	 SHORT $LN11@Move
$LL3@Move:

; 2514 : 		*_Dest = _STD move(*_First);

  00009	8b 4d 10	 mov	 ecx, DWORD PTR __Dest$[ebp]
  0000c	56		 push	 esi
  0000d	e8 00 00 00 00	 call	 ??4ioBlockDBItem@@QAEAAV0@ABV0@@Z
  00012	83 45 10 28	 add	 DWORD PTR __Dest$[ebp], 40 ; 00000028H
  00016	83 c6 28	 add	 esi, 40			; 00000028H
$LN11@Move:

; 2513 : 	for (; _First != _Last; ++_Dest, ++_First)

  00019	3b 75 0c	 cmp	 esi, DWORD PTR __Last$[ebp]
  0001c	75 eb		 jne	 SHORT $LL3@Move

; 2515 : 	return (_Dest);

  0001e	8b 45 10	 mov	 eax, DWORD PTR __Dest$[ebp]
  00021	5e		 pop	 esi

; 2516 : 	}

  00022	5d		 pop	 ebp
  00023	c3		 ret	 0
??$_Move@PAVioBlockDBItem@@PAV1@@std@@YAPAVioBlockDBItem@@PAV1@00U_Nonscalar_ptr_iterator_tag@0@@Z ENDP ; std::_Move<ioBlockDBItem *,ioBlockDBItem *>
_TEXT	ENDS
PUBLIC	??$_Move@PAUInvenBlockItem@ioUserBlockStorage@@PAU12@@std@@YAPAUInvenBlockItem@ioUserBlockStorage@@PAU12@00U_Nonscalar_ptr_iterator_tag@0@@Z ; std::_Move<ioUserBlockStorage::InvenBlockItem *,ioUserBlockStorage::InvenBlockItem *>
; Function compile flags: /Ogsp
;	COMDAT ??$_Move@PAUInvenBlockItem@ioUserBlockStorage@@PAU12@@std@@YAPAUInvenBlockItem@ioUserBlockStorage@@PAU12@00U_Nonscalar_ptr_iterator_tag@0@@Z
_TEXT	SEGMENT
__First$ = 8						; size = 4
__Last$ = 12						; size = 4
__Dest$ = 16						; size = 4
___formal$ = 20						; size = 1
??$_Move@PAUInvenBlockItem@ioUserBlockStorage@@PAU12@@std@@YAPAUInvenBlockItem@ioUserBlockStorage@@PAU12@00U_Nonscalar_ptr_iterator_tag@0@@Z PROC ; std::_Move<ioUserBlockStorage::InvenBlockItem *,ioUserBlockStorage::InvenBlockItem *>, COMDAT

; 2512 : 	{	// move [_First, _Last) to [_Dest, ...), arbitrary iterators

  00000	55		 push	 ebp
  00001	8b ec		 mov	 ebp, esp
  00003	56		 push	 esi

; 2513 : 	for (; _First != _Last; ++_Dest, ++_First)

  00004	8b 75 08	 mov	 esi, DWORD PTR __First$[ebp]
  00007	eb 10		 jmp	 SHORT $LN11@Move@2
$LL3@Move@2:

; 2514 : 		*_Dest = _STD move(*_First);

  00009	8b 4d 10	 mov	 ecx, DWORD PTR __Dest$[ebp]
  0000c	56		 push	 esi
  0000d	e8 00 00 00 00	 call	 ??4InvenBlockItem@ioUserBlockStorage@@QAEAAU01@ABU01@@Z
  00012	83 45 10 38	 add	 DWORD PTR __Dest$[ebp], 56 ; 00000038H
  00016	83 c6 38	 add	 esi, 56			; 00000038H
$LN11@Move@2:

; 2513 : 	for (; _First != _Last; ++_Dest, ++_First)

  00019	3b 75 0c	 cmp	 esi, DWORD PTR __Last$[ebp]
  0001c	75 eb		 jne	 SHORT $LL3@Move@2

; 2515 : 	return (_Dest);

  0001e	8b 45 10	 mov	 eax, DWORD PTR __Dest$[ebp]
  00021	5e		 pop	 esi

; 2516 : 	}

  00022	5d		 pop	 ebp
  00023	c3		 ret	 0
??$_Move@PAUInvenBlockItem@ioUserBlockStorage@@PAU12@@std@@YAPAUInvenBlockItem@ioUserBlockStorage@@PAU12@00U_Nonscalar_ptr_iterator_tag@0@@Z ENDP ; std::_Move<ioUserBlockStorage::InvenBlockItem *,ioUserBlockStorage::InvenBlockItem *>
_TEXT	ENDS
PUBLIC	??$_Construct@VioBlockDBItem@@ABV1@@std@@YAXPAVioBlockDBItem@@ABV1@@Z ; std::_Construct<ioBlockDBItem,ioBlockDBItem const &>
; Function compile flags: /Ogsp
; File c:\program files (x86)\microsoft visual studio 10.0\vc\include\xmemory
;	COMDAT ??$_Construct@VioBlockDBItem@@ABV1@@std@@YAXPAVioBlockDBItem@@ABV1@@Z
_TEXT	SEGMENT
__Ptr$ = 8						; size = 4
__Val$ = 12						; size = 4
??$_Construct@VioBlockDBItem@@ABV1@@std@@YAXPAVioBlockDBItem@@ABV1@@Z PROC ; std::_Construct<ioBlockDBItem,ioBlockDBItem const &>, COMDAT

; 46   : 	{	// construct object at _Ptr with value _Val

  00000	55		 push	 ebp
  00001	8b ec		 mov	 ebp, esp

; 47   : 	void _FARQ *_Vptr = _Ptr;
; 48   : 	::new (_Vptr) _Ty1(_STD forward<_Ty2>(_Val));

  00003	8b 4d 08	 mov	 ecx, DWORD PTR __Ptr$[ebp]
  00006	85 c9		 test	 ecx, ecx
  00008	74 08		 je	 SHORT $LN3@Construct
  0000a	ff 75 0c	 push	 DWORD PTR __Val$[ebp]
  0000d	e8 00 00 00 00	 call	 ??0ioBlockDBItem@@QAE@ABV0@@Z
$LN3@Construct:

; 49   : 	}

  00012	5d		 pop	 ebp
  00013	c3		 ret	 0
??$_Construct@VioBlockDBItem@@ABV1@@std@@YAXPAVioBlockDBItem@@ABV1@@Z ENDP ; std::_Construct<ioBlockDBItem,ioBlockDBItem const &>
_TEXT	ENDS
PUBLIC	??$_Construct@UInvenBlockItem@ioUserBlockStorage@@ABU12@@std@@YAXPAUInvenBlockItem@ioUserBlockStorage@@ABU12@@Z ; std::_Construct<ioUserBlockStorage::InvenBlockItem,ioUserBlockStorage::InvenBlockItem const &>
;	COMDAT xdata$x
; File c:\program files (x86)\microsoft visual studio 10.0\vc\include\utility
xdata$x	SEGMENT
__unwindtable$??$_Construct@UInvenBlockItem@ioUserBlockStorage@@ABU12@@std@@YAXPAUInvenBlockItem@ioUserBlockStorage@@ABU12@@Z DD 0ffffffffH
	DD	FLAT:__unwindfunclet$??$_Construct@UInvenBlockItem@ioUserBlockStorage@@ABU12@@std@@YAXPAUInvenBlockItem@ioUserBlockStorage@@ABU12@@Z$0
__ehfuncinfo$??$_Construct@UInvenBlockItem@ioUserBlockStorage@@ABU12@@std@@YAXPAUInvenBlockItem@ioUserBlockStorage@@ABU12@@Z DD 019930522H
	DD	01H
	DD	FLAT:__unwindtable$??$_Construct@UInvenBlockItem@ioUserBlockStorage@@ABU12@@std@@YAXPAUInvenBlockItem@ioUserBlockStorage@@ABU12@@Z
	DD	2 DUP(00H)
	DD	2 DUP(00H)
	DD	00H
	DD	01H
; Function compile flags: /Ogsp
; File c:\program files (x86)\microsoft visual studio 10.0\vc\include\xmemory
xdata$x	ENDS
;	COMDAT ??$_Construct@UInvenBlockItem@ioUserBlockStorage@@ABU12@@std@@YAXPAUInvenBlockItem@ioUserBlockStorage@@ABU12@@Z
_TEXT	SEGMENT
$T512247 = -16						; size = 4
__$EHRec$ = -12						; size = 12
__Vptr$ = 8						; size = 4
__Ptr$ = 8						; size = 4
__Val$ = 12						; size = 4
??$_Construct@UInvenBlockItem@ioUserBlockStorage@@ABU12@@std@@YAXPAUInvenBlockItem@ioUserBlockStorage@@ABU12@@Z PROC ; std::_Construct<ioUserBlockStorage::InvenBlockItem,ioUserBlockStorage::InvenBlockItem const &>, COMDAT

; 46   : 	{	// construct object at _Ptr with value _Val

  00000	6a 04		 push	 4
  00002	b8 00 00 00 00	 mov	 eax, __ehhandler$??$_Construct@UInvenBlockItem@ioUserBlockStorage@@ABU12@@std@@YAXPAUInvenBlockItem@ioUserBlockStorage@@ABU12@@Z
  00007	e8 00 00 00 00	 call	 __EH_prolog3

; 47   : 	void _FARQ *_Vptr = _Ptr;

  0000c	8b 4d 08	 mov	 ecx, DWORD PTR __Ptr$[ebp]
  0000f	89 4d 08	 mov	 DWORD PTR __Vptr$[ebp], ecx

; 48   : 	::new (_Vptr) _Ty1(_STD forward<_Ty2>(_Val));

  00012	89 4d f0	 mov	 DWORD PTR $T512247[ebp], ecx
  00015	83 65 fc 00	 and	 DWORD PTR __$EHRec$[ebp+8], 0
  00019	85 c9		 test	 ecx, ecx
  0001b	74 08		 je	 SHORT $LN3@Construct@2
  0001d	ff 75 0c	 push	 DWORD PTR __Val$[ebp]
  00020	e8 00 00 00 00	 call	 ??0InvenBlockItem@ioUserBlockStorage@@QAE@ABU01@@Z
$LN3@Construct@2:

; 49   : 	}

  00025	e8 00 00 00 00	 call	 __EH_epilog3
  0002a	c3		 ret	 0
_TEXT	ENDS
;	COMDAT text$x
text$x	SEGMENT
__unwindfunclet$??$_Construct@UInvenBlockItem@ioUserBlockStorage@@ABU12@@std@@YAXPAUInvenBlockItem@ioUserBlockStorage@@ABU12@@Z$0:
  00000	ff 75 08	 push	 DWORD PTR __Vptr$[ebp]
  00003	ff 75 f0	 push	 DWORD PTR $T512247[ebp]
  00006	e8 00 00 00 00	 call	 ??3@YAXPAX0@Z		; operator delete
  0000b	59		 pop	 ecx
  0000c	59		 pop	 ecx
  0000d	c3		 ret	 0
__ehhandler$??$_Construct@UInvenBlockItem@ioUserBlockStorage@@ABU12@@std@@YAXPAUInvenBlockItem@ioUserBlockStorage@@ABU12@@Z:
  0000e	8b 54 24 08	 mov	 edx, DWORD PTR [esp+8]
  00012	8d 42 0c	 lea	 eax, DWORD PTR [edx+12]
  00015	8b 4a ec	 mov	 ecx, DWORD PTR [edx-20]
  00018	33 c8		 xor	 ecx, eax
  0001a	e8 00 00 00 00	 call	 @__security_check_cookie@4
  0001f	b8 00 00 00 00	 mov	 eax, OFFSET __ehfuncinfo$??$_Construct@UInvenBlockItem@ioUserBlockStorage@@ABU12@@std@@YAXPAUInvenBlockItem@ioUserBlockStorage@@ABU12@@Z
  00024	e9 00 00 00 00	 jmp	 ___CxxFrameHandler3
text$x	ENDS
??$_Construct@UInvenBlockItem@ioUserBlockStorage@@ABU12@@std@@YAXPAUInvenBlockItem@ioUserBlockStorage@@ABU12@@Z ENDP ; std::_Construct<ioUserBlockStorage::InvenBlockItem,ioUserBlockStorage::InvenBlockItem const &>
PUBLIC	?destroy@?$allocator@VioBlockDBItem@@@std@@QAEXPAVioBlockDBItem@@@Z ; std::allocator<ioBlockDBItem>::destroy
; Function compile flags: /Ogsp
;	COMDAT ?destroy@?$allocator@VioBlockDBItem@@@std@@QAEXPAVioBlockDBItem@@@Z
_TEXT	SEGMENT
__Ptr$ = 8						; size = 4
?destroy@?$allocator@VioBlockDBItem@@@std@@QAEXPAVioBlockDBItem@@@Z PROC ; std::allocator<ioBlockDBItem>::destroy, COMDAT
; _this$ = ecx

; 212  : 		{	// destroy object at _Ptr

  00000	55		 push	 ebp
  00001	8b ec		 mov	 ebp, esp

; 213  : 		_Destroy(_Ptr);

  00003	8b 4d 08	 mov	 ecx, DWORD PTR __Ptr$[ebp]
  00006	8b 01		 mov	 eax, DWORD PTR [ecx]
  00008	6a 00		 push	 0
  0000a	ff 10		 call	 DWORD PTR [eax]

; 214  : 		}

  0000c	5d		 pop	 ebp
  0000d	c2 04 00	 ret	 4
?destroy@?$allocator@VioBlockDBItem@@@std@@QAEXPAVioBlockDBItem@@@Z ENDP ; std::allocator<ioBlockDBItem>::destroy
_TEXT	ENDS
PUBLIC	??$?0AAPAUInvenBlockItem@ioUserBlockStorage@@AAPAU01@@?$pair@PAUInvenBlockItem@ioUserBlockStorage@@PAU12@@std@@QAE@AAPAUInvenBlockItem@ioUserBlockStorage@@0@Z ; std::pair<ioUserBlockStorage::InvenBlockItem *,ioUserBlockStorage::InvenBlockItem *>::pair<ioUserBlockStorage::InvenBlockItem *,ioUserBlockStorage::InvenBlockItem *><ioUserBlockStorage::InvenBlockItem * &,ioUserBlockStorage::InvenBlockItem * &>
; Function compile flags: /Ogsp
; File c:\program files (x86)\microsoft visual studio 10.0\vc\include\utility
;	COMDAT ??$?0AAPAUInvenBlockItem@ioUserBlockStorage@@AAPAU01@@?$pair@PAUInvenBlockItem@ioUserBlockStorage@@PAU12@@std@@QAE@AAPAUInvenBlockItem@ioUserBlockStorage@@0@Z
_TEXT	SEGMENT
__Val1$ = 8						; size = 4
__Val2$ = 12						; size = 4
??$?0AAPAUInvenBlockItem@ioUserBlockStorage@@AAPAU01@@?$pair@PAUInvenBlockItem@ioUserBlockStorage@@PAU12@@std@@QAE@AAPAUInvenBlockItem@ioUserBlockStorage@@0@Z PROC ; std::pair<ioUserBlockStorage::InvenBlockItem *,ioUserBlockStorage::InvenBlockItem *>::pair<ioUserBlockStorage::InvenBlockItem *,ioUserBlockStorage::InvenBlockItem *><ioUserBlockStorage::InvenBlockItem * &,ioUserBlockStorage::InvenBlockItem * &>, COMDAT
; _this$ = ecx

; 247  : 		{	// construct from moved values

  00000	55		 push	 ebp
  00001	8b ec		 mov	 ebp, esp
  00003	8b c1		 mov	 eax, ecx
  00005	8b 4d 08	 mov	 ecx, DWORD PTR __Val1$[ebp]
  00008	8b 09		 mov	 ecx, DWORD PTR [ecx]
  0000a	89 08		 mov	 DWORD PTR [eax], ecx
  0000c	8b 4d 0c	 mov	 ecx, DWORD PTR __Val2$[ebp]
  0000f	8b 09		 mov	 ecx, DWORD PTR [ecx]
  00011	89 48 04	 mov	 DWORD PTR [eax+4], ecx

; 248  : 		}

  00014	5d		 pop	 ebp
  00015	c2 08 00	 ret	 8
??$?0AAPAUInvenBlockItem@ioUserBlockStorage@@AAPAU01@@?$pair@PAUInvenBlockItem@ioUserBlockStorage@@PAU12@@std@@QAE@AAPAUInvenBlockItem@ioUserBlockStorage@@0@Z ENDP ; std::pair<ioUserBlockStorage::InvenBlockItem *,ioUserBlockStorage::InvenBlockItem *>::pair<ioUserBlockStorage::InvenBlockItem *,ioUserBlockStorage::InvenBlockItem *><ioUserBlockStorage::InvenBlockItem * &,ioUserBlockStorage::InvenBlockItem * &>
_TEXT	ENDS
PUBLIC	??$_Destroy@UInvenBlockItem@ioUserBlockStorage@@@std@@YAXPAUInvenBlockItem@ioUserBlockStorage@@@Z ; std::_Destroy<ioUserBlockStorage::InvenBlockItem>
; Function compile flags: /Ogsp
; File c:\program files (x86)\microsoft visual studio 10.0\vc\include\xmemory
;	COMDAT ??$_Destroy@UInvenBlockItem@ioUserBlockStorage@@@std@@YAXPAUInvenBlockItem@ioUserBlockStorage@@@Z
_TEXT	SEGMENT
__Ptr$ = 8						; size = 4
??$_Destroy@UInvenBlockItem@ioUserBlockStorage@@@std@@YAXPAUInvenBlockItem@ioUserBlockStorage@@@Z PROC ; std::_Destroy<ioUserBlockStorage::InvenBlockItem>, COMDAT

; 62   : 	{	// destroy object at _Ptr

  00000	55		 push	 ebp
  00001	8b ec		 mov	 ebp, esp

; 63   : 	_Ptr->~_Ty();

  00003	8b 4d 08	 mov	 ecx, DWORD PTR __Ptr$[ebp]

; 64   : 	}

  00006	5d		 pop	 ebp

; 63   : 	_Ptr->~_Ty();

  00007	e9 00 00 00 00	 jmp	 ??1InvenBlockItem@ioUserBlockStorage@@QAE@XZ
??$_Destroy@UInvenBlockItem@ioUserBlockStorage@@@std@@YAXPAUInvenBlockItem@ioUserBlockStorage@@@Z ENDP ; std::_Destroy<ioUserBlockStorage::InvenBlockItem>
_TEXT	ENDS
PUBLIC	?construct@?$allocator@VioBlockDBItem@@@std@@QAEXPAVioBlockDBItem@@$$QAV3@@Z ; std::allocator<ioBlockDBItem>::construct
; Function compile flags: /Ogsp
;	COMDAT ?construct@?$allocator@VioBlockDBItem@@@std@@QAEXPAVioBlockDBItem@@$$QAV3@@Z
_TEXT	SEGMENT
__Ptr$ = 8						; size = 4
__Val$ = 12						; size = 4
?construct@?$allocator@VioBlockDBItem@@@std@@QAEXPAVioBlockDBItem@@$$QAV3@@Z PROC ; std::allocator<ioBlockDBItem>::construct, COMDAT
; _this$ = ecx

; 201  : 		{	// construct object at _Ptr with value _Val

  00000	55		 push	 ebp
  00001	8b ec		 mov	 ebp, esp

; 202  : 		::new ((void _FARQ *)_Ptr) _Ty(_STD forward<_Ty>(_Val));

  00003	8b 4d 08	 mov	 ecx, DWORD PTR __Ptr$[ebp]
  00006	85 c9		 test	 ecx, ecx
  00008	74 08		 je	 SHORT $LN3@construct@3
  0000a	ff 75 0c	 push	 DWORD PTR __Val$[ebp]
  0000d	e8 00 00 00 00	 call	 ??0ioBlockDBItem@@QAE@ABV0@@Z
$LN3@construct@3:

; 203  : 		}

  00012	5d		 pop	 ebp
  00013	c2 08 00	 ret	 8
?construct@?$allocator@VioBlockDBItem@@@std@@QAEXPAVioBlockDBItem@@$$QAV3@@Z ENDP ; std::allocator<ioBlockDBItem>::construct
_TEXT	ENDS
PUBLIC	?construct@?$allocator@UInvenBlockItem@ioUserBlockStorage@@@std@@QAEXPAUInvenBlockItem@ioUserBlockStorage@@$$QAU34@@Z ; std::allocator<ioUserBlockStorage::InvenBlockItem>::construct
;	COMDAT xdata$x
; File c:\program files (x86)\microsoft visual studio 10.0\vc\include\utility
xdata$x	SEGMENT
__unwindtable$?construct@?$allocator@UInvenBlockItem@ioUserBlockStorage@@@std@@QAEXPAUInvenBlockItem@ioUserBlockStorage@@$$QAU34@@Z DD 0ffffffffH
	DD	FLAT:__unwindfunclet$?construct@?$allocator@UInvenBlockItem@ioUserBlockStorage@@@std@@QAEXPAUInvenBlockItem@ioUserBlockStorage@@$$QAU34@@Z$0
__ehfuncinfo$?construct@?$allocator@UInvenBlockItem@ioUserBlockStorage@@@std@@QAEXPAUInvenBlockItem@ioUserBlockStorage@@$$QAU34@@Z DD 019930522H
	DD	01H
	DD	FLAT:__unwindtable$?construct@?$allocator@UInvenBlockItem@ioUserBlockStorage@@@std@@QAEXPAUInvenBlockItem@ioUserBlockStorage@@$$QAU34@@Z
	DD	2 DUP(00H)
	DD	2 DUP(00H)
	DD	00H
	DD	01H
; Function compile flags: /Ogsp
; File c:\program files (x86)\microsoft visual studio 10.0\vc\include\xmemory
xdata$x	ENDS
;	COMDAT ?construct@?$allocator@UInvenBlockItem@ioUserBlockStorage@@@std@@QAEXPAUInvenBlockItem@ioUserBlockStorage@@$$QAU34@@Z
_TEXT	SEGMENT
$T512313 = -16						; size = 4
__$EHRec$ = -12						; size = 12
__Ptr$ = 8						; size = 4
__Val$ = 12						; size = 4
?construct@?$allocator@UInvenBlockItem@ioUserBlockStorage@@@std@@QAEXPAUInvenBlockItem@ioUserBlockStorage@@$$QAU34@@Z PROC ; std::allocator<ioUserBlockStorage::InvenBlockItem>::construct, COMDAT
; _this$ = ecx

; 201  : 		{	// construct object at _Ptr with value _Val

  00000	6a 04		 push	 4
  00002	b8 00 00 00 00	 mov	 eax, __ehhandler$?construct@?$allocator@UInvenBlockItem@ioUserBlockStorage@@@std@@QAEXPAUInvenBlockItem@ioUserBlockStorage@@$$QAU34@@Z
  00007	e8 00 00 00 00	 call	 __EH_prolog3

; 202  : 		::new ((void _FARQ *)_Ptr) _Ty(_STD forward<_Ty>(_Val));

  0000c	8b 4d 08	 mov	 ecx, DWORD PTR __Ptr$[ebp]
  0000f	89 4d f0	 mov	 DWORD PTR $T512313[ebp], ecx
  00012	83 65 fc 00	 and	 DWORD PTR __$EHRec$[ebp+8], 0
  00016	85 c9		 test	 ecx, ecx
  00018	74 08		 je	 SHORT $LN3@construct@4
  0001a	ff 75 0c	 push	 DWORD PTR __Val$[ebp]
  0001d	e8 00 00 00 00	 call	 ??0InvenBlockItem@ioUserBlockStorage@@QAE@ABU01@@Z
$LN3@construct@4:

; 203  : 		}

  00022	e8 00 00 00 00	 call	 __EH_epilog3
  00027	c2 08 00	 ret	 8
_TEXT	ENDS
;	COMDAT text$x
text$x	SEGMENT
__unwindfunclet$?construct@?$allocator@UInvenBlockItem@ioUserBlockStorage@@@std@@QAEXPAUInvenBlockItem@ioUserBlockStorage@@$$QAU34@@Z$0:
  00000	ff 75 08	 push	 DWORD PTR __Ptr$[ebp]
  00003	ff 75 f0	 push	 DWORD PTR $T512313[ebp]
  00006	e8 00 00 00 00	 call	 ??3@YAXPAX0@Z		; operator delete
  0000b	59		 pop	 ecx
  0000c	59		 pop	 ecx
  0000d	c3		 ret	 0
__ehhandler$?construct@?$allocator@UInvenBlockItem@ioUserBlockStorage@@@std@@QAEXPAUInvenBlockItem@ioUserBlockStorage@@$$QAU34@@Z:
  0000e	8b 54 24 08	 mov	 edx, DWORD PTR [esp+8]
  00012	8d 42 0c	 lea	 eax, DWORD PTR [edx+12]
  00015	8b 4a ec	 mov	 ecx, DWORD PTR [edx-20]
  00018	33 c8		 xor	 ecx, eax
  0001a	e8 00 00 00 00	 call	 @__security_check_cookie@4
  0001f	b8 00 00 00 00	 mov	 eax, OFFSET __ehfuncinfo$?construct@?$allocator@UInvenBlockItem@ioUserBlockStorage@@@std@@QAEXPAUInvenBlockItem@ioUserBlockStorage@@$$QAU34@@Z
  00024	e9 00 00 00 00	 jmp	 ___CxxFrameHandler3
text$x	ENDS
?construct@?$allocator@UInvenBlockItem@ioUserBlockStorage@@@std@@QAEXPAUInvenBlockItem@ioUserBlockStorage@@$$QAU34@@Z ENDP ; std::allocator<ioUserBlockStorage::InvenBlockItem>::construct
PUBLIC	??$swap@UInvenBlockItem@ioUserBlockStorage@@@std@@YAXAAUInvenBlockItem@ioUserBlockStorage@@0@Z ; std::swap<ioUserBlockStorage::InvenBlockItem>
;	COMDAT xdata$x
; File c:\program files (x86)\microsoft visual studio 10.0\vc\include\utility
xdata$x	SEGMENT
__unwindtable$??$swap@UInvenBlockItem@ioUserBlockStorage@@@std@@YAXAAUInvenBlockItem@ioUserBlockStorage@@0@Z DD 0ffffffffH
	DD	FLAT:__unwindfunclet$??$swap@UInvenBlockItem@ioUserBlockStorage@@@std@@YAXAAUInvenBlockItem@ioUserBlockStorage@@0@Z$0
__ehfuncinfo$??$swap@UInvenBlockItem@ioUserBlockStorage@@@std@@YAXAAUInvenBlockItem@ioUserBlockStorage@@0@Z DD 019930522H
	DD	01H
	DD	FLAT:__unwindtable$??$swap@UInvenBlockItem@ioUserBlockStorage@@@std@@YAXAAUInvenBlockItem@ioUserBlockStorage@@0@Z
	DD	2 DUP(00H)
	DD	2 DUP(00H)
	DD	00H
	DD	01H
; Function compile flags: /Ogsp
xdata$x	ENDS
;	COMDAT ??$swap@UInvenBlockItem@ioUserBlockStorage@@@std@@YAXAAUInvenBlockItem@ioUserBlockStorage@@0@Z
_TEXT	SEGMENT
__Tmp$ = -68						; size = 56
__$EHRec$ = -12						; size = 12
__Left$ = 8						; size = 4
__Right$ = 12						; size = 4
??$swap@UInvenBlockItem@ioUserBlockStorage@@@std@@YAXAAUInvenBlockItem@ioUserBlockStorage@@0@Z PROC ; std::swap<ioUserBlockStorage::InvenBlockItem>, COMDAT

; 101  : 	{	// exchange values stored at _Left and _Right

  00000	6a 38		 push	 56			; 00000038H
  00002	b8 00 00 00 00	 mov	 eax, __ehhandler$??$swap@UInvenBlockItem@ioUserBlockStorage@@@std@@YAXAAUInvenBlockItem@ioUserBlockStorage@@0@Z
  00007	e8 00 00 00 00	 call	 __EH_prolog3

; 102  : 	_Ty _Tmp = _Move(_Left);

  0000c	ff 75 08	 push	 DWORD PTR __Left$[ebp]
  0000f	8d 4d bc	 lea	 ecx, DWORD PTR __Tmp$[ebp]
  00012	e8 00 00 00 00	 call	 ??0InvenBlockItem@ioUserBlockStorage@@QAE@ABU01@@Z

; 103  : 	_Left = _Move(_Right);

  00017	ff 75 0c	 push	 DWORD PTR __Right$[ebp]
  0001a	8b 4d 08	 mov	 ecx, DWORD PTR __Left$[ebp]
  0001d	83 65 fc 00	 and	 DWORD PTR __$EHRec$[ebp+8], 0
  00021	e8 00 00 00 00	 call	 ??4InvenBlockItem@ioUserBlockStorage@@QAEAAU01@ABU01@@Z

; 104  : 	_Right = _Move(_Tmp);

  00026	8b 4d 0c	 mov	 ecx, DWORD PTR __Right$[ebp]
  00029	8d 45 bc	 lea	 eax, DWORD PTR __Tmp$[ebp]
  0002c	50		 push	 eax
  0002d	e8 00 00 00 00	 call	 ??4InvenBlockItem@ioUserBlockStorage@@QAEAAU01@ABU01@@Z

; 105  : 	}

  00032	83 4d fc ff	 or	 DWORD PTR __$EHRec$[ebp+8], -1
  00036	8d 4d bc	 lea	 ecx, DWORD PTR __Tmp$[ebp]
  00039	e8 00 00 00 00	 call	 ??1InvenBlockItem@ioUserBlockStorage@@QAE@XZ
  0003e	e8 00 00 00 00	 call	 __EH_epilog3
  00043	c3		 ret	 0
_TEXT	ENDS
;	COMDAT text$x
text$x	SEGMENT
__unwindfunclet$??$swap@UInvenBlockItem@ioUserBlockStorage@@@std@@YAXAAUInvenBlockItem@ioUserBlockStorage@@0@Z$0:
  00000	8d 4d bc	 lea	 ecx, DWORD PTR __Tmp$[ebp]
  00003	e9 00 00 00 00	 jmp	 ??1InvenBlockItem@ioUserBlockStorage@@QAE@XZ
__ehhandler$??$swap@UInvenBlockItem@ioUserBlockStorage@@@std@@YAXAAUInvenBlockItem@ioUserBlockStorage@@0@Z:
  00008	8b 54 24 08	 mov	 edx, DWORD PTR [esp+8]
  0000c	8d 42 0c	 lea	 eax, DWORD PTR [edx+12]
  0000f	8b 4a b8	 mov	 ecx, DWORD PTR [edx-72]
  00012	33 c8		 xor	 ecx, eax
  00014	e8 00 00 00 00	 call	 @__security_check_cookie@4
  00019	b8 00 00 00 00	 mov	 eax, OFFSET __ehfuncinfo$??$swap@UInvenBlockItem@ioUserBlockStorage@@@std@@YAXAAUInvenBlockItem@ioUserBlockStorage@@0@Z
  0001e	e9 00 00 00 00	 jmp	 ___CxxFrameHandler3
text$x	ENDS
??$swap@UInvenBlockItem@ioUserBlockStorage@@@std@@YAXAAUInvenBlockItem@ioUserBlockStorage@@0@Z ENDP ; std::swap<ioUserBlockStorage::InvenBlockItem>
PUBLIC	??$_Adjust_heap@PAUInvenBlockItem@ioUserBlockStorage@@HU12@VInvenBlockItemSort@2@@std@@YAXPAUInvenBlockItem@ioUserBlockStorage@@HH$$QAU12@VInvenBlockItemSort@2@@Z ; std::_Adjust_heap<ioUserBlockStorage::InvenBlockItem *,int,ioUserBlockStorage::InvenBlockItem,ioUserBlockStorage::InvenBlockItemSort>
; Function compile flags: /Ogsp
; File c:\program files (x86)\microsoft visual studio 10.0\vc\include\algorithm
;	COMDAT ??$_Adjust_heap@PAUInvenBlockItem@ioUserBlockStorage@@HU12@VInvenBlockItemSort@2@@std@@YAXPAUInvenBlockItem@ioUserBlockStorage@@HH$$QAU12@VInvenBlockItemSort@2@@Z
_TEXT	SEGMENT
__First$ = 8						; size = 4
__Top$ = 12						; size = 4
__Hole$ = 12						; size = 4
__Bottom$ = 16						; size = 4
__Val$ = 20						; size = 4
__Pred$ = 24						; size = 1
??$_Adjust_heap@PAUInvenBlockItem@ioUserBlockStorage@@HU12@VInvenBlockItemSort@2@@std@@YAXPAUInvenBlockItem@ioUserBlockStorage@@HH$$QAU12@VInvenBlockItemSort@2@@Z PROC ; std::_Adjust_heap<ioUserBlockStorage::InvenBlockItem *,int,ioUserBlockStorage::InvenBlockItem,ioUserBlockStorage::InvenBlockItemSort>, COMDAT

; 2565 : 	{	// percolate _Hole to _Bottom, then push _Val, using _Pred

  00000	55		 push	 ebp
  00001	8b ec		 mov	 ebp, esp

; 2566 : 	_Diff _Top = _Hole;

  00003	8b 4d 0c	 mov	 ecx, DWORD PTR __Hole$[ebp]
  00006	53		 push	 ebx

; 2567 : 	_Diff _Idx = 2 * _Hole + 2;
; 2568 : 
; 2569 : 	for (; _Idx < _Bottom; _Idx = 2 * _Idx + 2)

  00007	8b 5d 10	 mov	 ebx, DWORD PTR __Bottom$[ebp]
  0000a	56		 push	 esi
  0000b	57		 push	 edi
  0000c	8b 7d 08	 mov	 edi, DWORD PTR __First$[ebp]
  0000f	89 4d 0c	 mov	 DWORD PTR __Top$[ebp], ecx
  00012	8d 74 09 02	 lea	 esi, DWORD PTR [ecx+ecx+2]
  00016	eb 28		 jmp	 SHORT $LN20@Adjust_hea
$LL5@Adjust_hea:

; 2570 : 		{	// move _Hole down to larger child
; 2571 : 		if (_DEBUG_LT_PRED(_Pred, *(_First + _Idx), *(_First + (_Idx - 1))))

  00018	8b c6		 mov	 eax, esi
  0001a	6b c0 38	 imul	 eax, 56			; 00000038H
  0001d	8b 54 38 24	 mov	 edx, DWORD PTR [eax+edi+36]
  00021	3b 54 38 ec	 cmp	 edx, DWORD PTR [eax+edi-20]
  00025	7d 01		 jge	 SHORT $LN2@Adjust_hea

; 2572 : 			--_Idx;

  00027	4e		 dec	 esi
$LN2@Adjust_hea:

; 2573 : 		*(_First + _Hole) = _Move(*(_First + _Idx));

  00028	8b c6		 mov	 eax, esi
  0002a	6b c9 38	 imul	 ecx, 56			; 00000038H
  0002d	6b c0 38	 imul	 eax, 56			; 00000038H
  00030	03 c7		 add	 eax, edi
  00032	50		 push	 eax
  00033	03 cf		 add	 ecx, edi
  00035	e8 00 00 00 00	 call	 ??4InvenBlockItem@ioUserBlockStorage@@QAEAAU01@ABU01@@Z

; 2574 : 		_Hole = _Idx;

  0003a	8b ce		 mov	 ecx, esi
  0003c	8d 74 36 02	 lea	 esi, DWORD PTR [esi+esi+2]
$LN20@Adjust_hea:

; 2567 : 	_Diff _Idx = 2 * _Hole + 2;
; 2568 : 
; 2569 : 	for (; _Idx < _Bottom; _Idx = 2 * _Idx + 2)

  00040	3b f3		 cmp	 esi, ebx
  00042	7c d4		 jl	 SHORT $LL5@Adjust_hea

; 2575 : 		}
; 2576 : 
; 2577 : 	if (_Idx == _Bottom)

  00044	75 17		 jne	 SHORT $LN1@Adjust_hea

; 2578 : 		{	// only child at bottom, move _Hole down to it
; 2579 : 		*(_First + _Hole) = _Move(*(_First + (_Bottom - 1)));

  00046	8b c3		 mov	 eax, ebx
  00048	6b c9 38	 imul	 ecx, 56			; 00000038H
  0004b	6b c0 38	 imul	 eax, 56			; 00000038H
  0004e	8d 44 38 c8	 lea	 eax, DWORD PTR [eax+edi-56]
  00052	50		 push	 eax
  00053	03 cf		 add	 ecx, edi
  00055	e8 00 00 00 00	 call	 ??4InvenBlockItem@ioUserBlockStorage@@QAEAAU01@ABU01@@Z

; 2580 : 		_Hole = _Bottom - 1;

  0005a	8d 4b ff	 lea	 ecx, DWORD PTR [ebx-1]
$LN1@Adjust_hea:

; 2581 : 		}
; 2582 : 	_Push_heap(_First, _Hole, _Top, _Move(_Val), _Pred);

  0005d	ff 75 18	 push	 DWORD PTR __Pred$[ebp]
  00060	ff 75 14	 push	 DWORD PTR __Val$[ebp]
  00063	ff 75 0c	 push	 DWORD PTR __Top$[ebp]
  00066	51		 push	 ecx
  00067	57		 push	 edi
  00068	e8 00 00 00 00	 call	 ??$_Push_heap@PAUInvenBlockItem@ioUserBlockStorage@@HU12@VInvenBlockItemSort@2@@std@@YAXPAUInvenBlockItem@ioUserBlockStorage@@HH$$QAU12@VInvenBlockItemSort@2@@Z ; std::_Push_heap<ioUserBlockStorage::InvenBlockItem *,int,ioUserBlockStorage::InvenBlockItem,ioUserBlockStorage::InvenBlockItemSort>
  0006d	83 c4 14	 add	 esp, 20			; 00000014H
  00070	5f		 pop	 edi
  00071	5e		 pop	 esi
  00072	5b		 pop	 ebx

; 2583 : 	}

  00073	5d		 pop	 ebp
  00074	c3		 ret	 0
??$_Adjust_heap@PAUInvenBlockItem@ioUserBlockStorage@@HU12@VInvenBlockItemSort@2@@std@@YAXPAUInvenBlockItem@ioUserBlockStorage@@HH$$QAU12@VInvenBlockItemSort@2@@Z ENDP ; std::_Adjust_heap<ioUserBlockStorage::InvenBlockItem *,int,ioUserBlockStorage::InvenBlockItem,ioUserBlockStorage::InvenBlockItemSort>
_TEXT	ENDS
PUBLIC	??$_Move_backward@PAUInvenBlockItem@ioUserBlockStorage@@PAU12@@std@@YAPAUInvenBlockItem@ioUserBlockStorage@@PAU12@00@Z ; std::_Move_backward<ioUserBlockStorage::InvenBlockItem *,ioUserBlockStorage::InvenBlockItem *>
; Function compile flags: /Ogsp
; File c:\program files (x86)\microsoft visual studio 10.0\vc\include\xutility
;	COMDAT ??$_Move_backward@PAUInvenBlockItem@ioUserBlockStorage@@PAU12@@std@@YAPAUInvenBlockItem@ioUserBlockStorage@@PAU12@00@Z
_TEXT	SEGMENT
__Cat$512373 = -4					; size = 1
__First$ = 8						; size = 4
__Last$ = 12						; size = 4
__Dest$ = 16						; size = 4
??$_Move_backward@PAUInvenBlockItem@ioUserBlockStorage@@PAU12@@std@@YAPAUInvenBlockItem@ioUserBlockStorage@@PAU12@00@Z PROC ; std::_Move_backward<ioUserBlockStorage::InvenBlockItem *,ioUserBlockStorage::InvenBlockItem *>, COMDAT

; 2638 : 	{	// move [_First, _Last) backwards to [..., _Dest), unchecked

  00000	55		 push	 ebp
  00001	8b ec		 mov	 ebp, esp
  00003	51		 push	 ecx

; 2639 : 	return (_Move_backward(_First, _Last,
; 2640 : 		_Dest, _Ptr_cat(_First, _Dest)));

  00004	ff 75 fc	 push	 DWORD PTR __Cat$512373[ebp]
  00007	ff 75 10	 push	 DWORD PTR __Dest$[ebp]
  0000a	ff 75 0c	 push	 DWORD PTR __Last$[ebp]
  0000d	ff 75 08	 push	 DWORD PTR __First$[ebp]
  00010	e8 00 00 00 00	 call	 ??$_Move_backward@PAUInvenBlockItem@ioUserBlockStorage@@PAU12@@std@@YAPAUInvenBlockItem@ioUserBlockStorage@@PAU12@00U_Nonscalar_ptr_iterator_tag@0@@Z ; std::_Move_backward<ioUserBlockStorage::InvenBlockItem *,ioUserBlockStorage::InvenBlockItem *>
  00015	83 c4 10	 add	 esp, 16			; 00000010H

; 2641 : 	}

  00018	c9		 leave
  00019	c3		 ret	 0
??$_Move_backward@PAUInvenBlockItem@ioUserBlockStorage@@PAU12@@std@@YAPAUInvenBlockItem@ioUserBlockStorage@@PAU12@00@Z ENDP ; std::_Move_backward<ioUserBlockStorage::InvenBlockItem *,ioUserBlockStorage::InvenBlockItem *>
_TEXT	ENDS
PUBLIC	??$_Pop_heap@PAUInvenBlockItem@ioUserBlockStorage@@HU12@VInvenBlockItemSort@2@@std@@YAXPAUInvenBlockItem@ioUserBlockStorage@@00$$QAU12@VInvenBlockItemSort@2@PAH@Z ; std::_Pop_heap<ioUserBlockStorage::InvenBlockItem *,int,ioUserBlockStorage::InvenBlockItem,ioUserBlockStorage::InvenBlockItemSort>
; Function compile flags: /Ogsp
; File c:\program files (x86)\microsoft visual studio 10.0\vc\include\algorithm
;	COMDAT ??$_Pop_heap@PAUInvenBlockItem@ioUserBlockStorage@@HU12@VInvenBlockItemSort@2@@std@@YAXPAUInvenBlockItem@ioUserBlockStorage@@00$$QAU12@VInvenBlockItemSort@2@PAH@Z
_TEXT	SEGMENT
__First$ = 8						; size = 4
__Last$ = 12						; size = 4
__Dest$ = 16						; size = 4
__Val$ = 20						; size = 4
__Pred$ = 24						; size = 1
___formal$ = 28						; size = 4
??$_Pop_heap@PAUInvenBlockItem@ioUserBlockStorage@@HU12@VInvenBlockItemSort@2@@std@@YAXPAUInvenBlockItem@ioUserBlockStorage@@00$$QAU12@VInvenBlockItemSort@2@PAH@Z PROC ; std::_Pop_heap<ioUserBlockStorage::InvenBlockItem *,int,ioUserBlockStorage::InvenBlockItem,ioUserBlockStorage::InvenBlockItemSort>, COMDAT

; 2591 : 	{	// pop *_First to *_Dest and reheap, using _Pred

  00000	55		 push	 ebp
  00001	8b ec		 mov	 ebp, esp

; 2592 : 	*_Dest = _Move(*_First);

  00003	ff 75 08	 push	 DWORD PTR __First$[ebp]
  00006	8b 4d 10	 mov	 ecx, DWORD PTR __Dest$[ebp]
  00009	e8 00 00 00 00	 call	 ??4InvenBlockItem@ioUserBlockStorage@@QAEAAU01@ABU01@@Z

; 2593 : 	_Adjust_heap(_First, _Diff(0), _Diff(_Last - _First),
; 2594 : 		_Move(_Val), _Pred);

  0000e	ff 75 18	 push	 DWORD PTR __Pred$[ebp]
  00011	8b 45 0c	 mov	 eax, DWORD PTR __Last$[ebp]
  00014	ff 75 14	 push	 DWORD PTR __Val$[ebp]
  00017	2b 45 08	 sub	 eax, DWORD PTR __First$[ebp]
  0001a	6a 38		 push	 56			; 00000038H
  0001c	59		 pop	 ecx
  0001d	99		 cdq
  0001e	f7 f9		 idiv	 ecx
  00020	50		 push	 eax
  00021	6a 00		 push	 0
  00023	ff 75 08	 push	 DWORD PTR __First$[ebp]
  00026	e8 00 00 00 00	 call	 ??$_Adjust_heap@PAUInvenBlockItem@ioUserBlockStorage@@HU12@VInvenBlockItemSort@2@@std@@YAXPAUInvenBlockItem@ioUserBlockStorage@@HH$$QAU12@VInvenBlockItemSort@2@@Z ; std::_Adjust_heap<ioUserBlockStorage::InvenBlockItem *,int,ioUserBlockStorage::InvenBlockItem,ioUserBlockStorage::InvenBlockItemSort>
  0002b	83 c4 14	 add	 esp, 20			; 00000014H

; 2595 : 	}

  0002e	5d		 pop	 ebp
  0002f	c3		 ret	 0
??$_Pop_heap@PAUInvenBlockItem@ioUserBlockStorage@@HU12@VInvenBlockItemSort@2@@std@@YAXPAUInvenBlockItem@ioUserBlockStorage@@00$$QAU12@VInvenBlockItemSort@2@PAH@Z ENDP ; std::_Pop_heap<ioUserBlockStorage::InvenBlockItem *,int,ioUserBlockStorage::InvenBlockItem,ioUserBlockStorage::InvenBlockItemSort>
_TEXT	ENDS
PUBLIC	??0?$vector@VioBlockDBItem@@V?$allocator@VioBlockDBItem@@@std@@@std@@QAE@XZ ; std::vector<ioBlockDBItem,std::allocator<ioBlockDBItem> >::vector<ioBlockDBItem,std::allocator<ioBlockDBItem> >
; Function compile flags: /Ogsp
; File c:\program files (x86)\microsoft visual studio 10.0\vc\include\vector
;	COMDAT ??0?$vector@VioBlockDBItem@@V?$allocator@VioBlockDBItem@@@std@@@std@@QAE@XZ
_TEXT	SEGMENT
??0?$vector@VioBlockDBItem@@V?$allocator@VioBlockDBItem@@@std@@@std@@QAE@XZ PROC ; std::vector<ioBlockDBItem,std::allocator<ioBlockDBItem> >::vector<ioBlockDBItem,std::allocator<ioBlockDBItem> >, COMDAT
; _this$ = ecx

; 507  : 		{	// construct empty vector

  00000	8b c1		 mov	 eax, ecx
  00002	33 c9		 xor	 ecx, ecx
  00004	89 08		 mov	 DWORD PTR [eax], ecx
  00006	89 48 04	 mov	 DWORD PTR [eax+4], ecx
  00009	89 48 08	 mov	 DWORD PTR [eax+8], ecx

; 508  : 		}

  0000c	c3		 ret	 0
??0?$vector@VioBlockDBItem@@V?$allocator@VioBlockDBItem@@@std@@@std@@QAE@XZ ENDP ; std::vector<ioBlockDBItem,std::allocator<ioBlockDBItem> >::vector<ioBlockDBItem,std::allocator<ioBlockDBItem> >
_TEXT	ENDS
PUBLIC	??0?$vector@UInvenBlockItem@ioUserBlockStorage@@V?$allocator@UInvenBlockItem@ioUserBlockStorage@@@std@@@std@@QAE@XZ ; std::vector<ioUserBlockStorage::InvenBlockItem,std::allocator<ioUserBlockStorage::InvenBlockItem> >::vector<ioUserBlockStorage::InvenBlockItem,std::allocator<ioUserBlockStorage::InvenBlockItem> >
; Function compile flags: /Ogsp
;	COMDAT ??0?$vector@UInvenBlockItem@ioUserBlockStorage@@V?$allocator@UInvenBlockItem@ioUserBlockStorage@@@std@@@std@@QAE@XZ
_TEXT	SEGMENT
??0?$vector@UInvenBlockItem@ioUserBlockStorage@@V?$allocator@UInvenBlockItem@ioUserBlockStorage@@@std@@@std@@QAE@XZ PROC ; std::vector<ioUserBlockStorage::InvenBlockItem,std::allocator<ioUserBlockStorage::InvenBlockItem> >::vector<ioUserBlockStorage::InvenBlockItem,std::allocator<ioUserBlockStorage::InvenBlockItem> >, COMDAT
; _this$ = ecx

; 507  : 		{	// construct empty vector

  00000	8b c1		 mov	 eax, ecx
  00002	33 c9		 xor	 ecx, ecx
  00004	89 08		 mov	 DWORD PTR [eax], ecx
  00006	89 48 04	 mov	 DWORD PTR [eax+4], ecx
  00009	89 48 08	 mov	 DWORD PTR [eax+8], ecx

; 508  : 		}

  0000c	c3		 ret	 0
??0?$vector@UInvenBlockItem@ioUserBlockStorage@@V?$allocator@UInvenBlockItem@ioUserBlockStorage@@@std@@@std@@QAE@XZ ENDP ; std::vector<ioUserBlockStorage::InvenBlockItem,std::allocator<ioUserBlockStorage::InvenBlockItem> >::vector<ioUserBlockStorage::InvenBlockItem,std::allocator<ioUserBlockStorage::InvenBlockItem> >
_TEXT	ENDS
PUBLIC	?begin@?$vector@UInvenBlockItem@ioUserBlockStorage@@V?$allocator@UInvenBlockItem@ioUserBlockStorage@@@std@@@std@@QAE?AV?$_Vector_iterator@V?$_Vector_val@UInvenBlockItem@ioUserBlockStorage@@V?$allocator@UInvenBlockItem@ioUserBlockStorage@@@std@@@std@@@2@XZ ; std::vector<ioUserBlockStorage::InvenBlockItem,std::allocator<ioUserBlockStorage::InvenBlockItem> >::begin
; Function compile flags: /Ogsp
;	COMDAT ?begin@?$vector@UInvenBlockItem@ioUserBlockStorage@@V?$allocator@UInvenBlockItem@ioUserBlockStorage@@@std@@@std@@QAE?AV?$_Vector_iterator@V?$_Vector_val@UInvenBlockItem@ioUserBlockStorage@@V?$allocator@UInvenBlockItem@ioUserBlockStorage@@@std@@@std@@@2@XZ
_TEXT	SEGMENT
___$ReturnUdt$ = 8					; size = 4
?begin@?$vector@UInvenBlockItem@ioUserBlockStorage@@V?$allocator@UInvenBlockItem@ioUserBlockStorage@@@std@@@std@@QAE?AV?$_Vector_iterator@V?$_Vector_val@UInvenBlockItem@ioUserBlockStorage@@V?$allocator@UInvenBlockItem@ioUserBlockStorage@@@std@@@std@@@2@XZ PROC ; std::vector<ioUserBlockStorage::InvenBlockItem,std::allocator<ioUserBlockStorage::InvenBlockItem> >::begin, COMDAT
; _this$ = ecx

; 781  : 		{	// return iterator for beginning of mutable sequence

  00000	55		 push	 ebp
  00001	8b ec		 mov	 ebp, esp

; 782  : 		return (iterator(this->_Myfirst, this));

  00003	8b 09		 mov	 ecx, DWORD PTR [ecx]
  00005	8b 45 08	 mov	 eax, DWORD PTR ___$ReturnUdt$[ebp]
  00008	89 08		 mov	 DWORD PTR [eax], ecx

; 783  : 		}

  0000a	5d		 pop	 ebp
  0000b	c2 04 00	 ret	 4
?begin@?$vector@UInvenBlockItem@ioUserBlockStorage@@V?$allocator@UInvenBlockItem@ioUserBlockStorage@@@std@@@std@@QAE?AV?$_Vector_iterator@V?$_Vector_val@UInvenBlockItem@ioUserBlockStorage@@V?$allocator@UInvenBlockItem@ioUserBlockStorage@@@std@@@std@@@2@XZ ENDP ; std::vector<ioUserBlockStorage::InvenBlockItem,std::allocator<ioUserBlockStorage::InvenBlockItem> >::begin
_TEXT	ENDS
PUBLIC	?end@?$vector@UInvenBlockItem@ioUserBlockStorage@@V?$allocator@UInvenBlockItem@ioUserBlockStorage@@@std@@@std@@QAE?AV?$_Vector_iterator@V?$_Vector_val@UInvenBlockItem@ioUserBlockStorage@@V?$allocator@UInvenBlockItem@ioUserBlockStorage@@@std@@@std@@@2@XZ ; std::vector<ioUserBlockStorage::InvenBlockItem,std::allocator<ioUserBlockStorage::InvenBlockItem> >::end
; Function compile flags: /Ogsp
;	COMDAT ?end@?$vector@UInvenBlockItem@ioUserBlockStorage@@V?$allocator@UInvenBlockItem@ioUserBlockStorage@@@std@@@std@@QAE?AV?$_Vector_iterator@V?$_Vector_val@UInvenBlockItem@ioUserBlockStorage@@V?$allocator@UInvenBlockItem@ioUserBlockStorage@@@std@@@std@@@2@XZ
_TEXT	SEGMENT
___$ReturnUdt$ = 8					; size = 4
?end@?$vector@UInvenBlockItem@ioUserBlockStorage@@V?$allocator@UInvenBlockItem@ioUserBlockStorage@@@std@@@std@@QAE?AV?$_Vector_iterator@V?$_Vector_val@UInvenBlockItem@ioUserBlockStorage@@V?$allocator@UInvenBlockItem@ioUserBlockStorage@@@std@@@std@@@2@XZ PROC ; std::vector<ioUserBlockStorage::InvenBlockItem,std::allocator<ioUserBlockStorage::InvenBlockItem> >::end, COMDAT
; _this$ = ecx

; 791  : 		{	// return iterator for end of mutable sequence

  00000	55		 push	 ebp
  00001	8b ec		 mov	 ebp, esp

; 792  : 		return (iterator(this->_Mylast, this));

  00003	8b 49 04	 mov	 ecx, DWORD PTR [ecx+4]
  00006	8b 45 08	 mov	 eax, DWORD PTR ___$ReturnUdt$[ebp]
  00009	89 08		 mov	 DWORD PTR [eax], ecx

; 793  : 		}

  0000b	5d		 pop	 ebp
  0000c	c2 04 00	 ret	 4
?end@?$vector@UInvenBlockItem@ioUserBlockStorage@@V?$allocator@UInvenBlockItem@ioUserBlockStorage@@@std@@@std@@QAE?AV?$_Vector_iterator@V?$_Vector_val@UInvenBlockItem@ioUserBlockStorage@@V?$allocator@UInvenBlockItem@ioUserBlockStorage@@@std@@@std@@@2@XZ ENDP ; std::vector<ioUserBlockStorage::InvenBlockItem,std::allocator<ioUserBlockStorage::InvenBlockItem> >::end
_TEXT	ENDS
PUBLIC	??9?$_Vector_const_iterator@V?$_Vector_val@UInvenBlockItem@ioUserBlockStorage@@V?$allocator@UInvenBlockItem@ioUserBlockStorage@@@std@@@std@@@std@@QBE_NABV01@@Z ; std::_Vector_const_iterator<std::_Vector_val<ioUserBlockStorage::InvenBlockItem,std::allocator<ioUserBlockStorage::InvenBlockItem> > >::operator!=
; Function compile flags: /Ogsp
;	COMDAT ??9?$_Vector_const_iterator@V?$_Vector_val@UInvenBlockItem@ioUserBlockStorage@@V?$allocator@UInvenBlockItem@ioUserBlockStorage@@@std@@@std@@@std@@QBE_NABV01@@Z
_TEXT	SEGMENT
__Right$ = 8						; size = 4
??9?$_Vector_const_iterator@V?$_Vector_val@UInvenBlockItem@ioUserBlockStorage@@V?$allocator@UInvenBlockItem@ioUserBlockStorage@@@std@@@std@@@std@@QBE_NABV01@@Z PROC ; std::_Vector_const_iterator<std::_Vector_val<ioUserBlockStorage::InvenBlockItem,std::allocator<ioUserBlockStorage::InvenBlockItem> > >::operator!=, COMDAT
; _this$ = ecx

; 207  : 		{	// test for iterator inequality

  00000	55		 push	 ebp
  00001	8b ec		 mov	 ebp, esp

; 208  : 		return (!(*this == _Right));

  00003	8b 01		 mov	 eax, DWORD PTR [ecx]
  00005	8b 55 08	 mov	 edx, DWORD PTR __Right$[ebp]
  00008	33 c9		 xor	 ecx, ecx
  0000a	3b 02		 cmp	 eax, DWORD PTR [edx]
  0000c	0f 95 c0	 setne	 al

; 209  : 		}

  0000f	5d		 pop	 ebp
  00010	c2 04 00	 ret	 4
??9?$_Vector_const_iterator@V?$_Vector_val@UInvenBlockItem@ioUserBlockStorage@@V?$allocator@UInvenBlockItem@ioUserBlockStorage@@@std@@@std@@@std@@QBE_NABV01@@Z ENDP ; std::_Vector_const_iterator<std::_Vector_val<ioUserBlockStorage::InvenBlockItem,std::allocator<ioUserBlockStorage::InvenBlockItem> > >::operator!=
_TEXT	ENDS
PUBLIC	?begin@?$vector@VioBlockDBItem@@V?$allocator@VioBlockDBItem@@@std@@@std@@QAE?AV?$_Vector_iterator@V?$_Vector_val@VioBlockDBItem@@V?$allocator@VioBlockDBItem@@@std@@@std@@@2@XZ ; std::vector<ioBlockDBItem,std::allocator<ioBlockDBItem> >::begin
; Function compile flags: /Ogsp
;	COMDAT ?begin@?$vector@VioBlockDBItem@@V?$allocator@VioBlockDBItem@@@std@@@std@@QAE?AV?$_Vector_iterator@V?$_Vector_val@VioBlockDBItem@@V?$allocator@VioBlockDBItem@@@std@@@std@@@2@XZ
_TEXT	SEGMENT
___$ReturnUdt$ = 8					; size = 4
?begin@?$vector@VioBlockDBItem@@V?$allocator@VioBlockDBItem@@@std@@@std@@QAE?AV?$_Vector_iterator@V?$_Vector_val@VioBlockDBItem@@V?$allocator@VioBlockDBItem@@@std@@@std@@@2@XZ PROC ; std::vector<ioBlockDBItem,std::allocator<ioBlockDBItem> >::begin, COMDAT
; _this$ = ecx

; 781  : 		{	// return iterator for beginning of mutable sequence

  00000	55		 push	 ebp
  00001	8b ec		 mov	 ebp, esp

; 782  : 		return (iterator(this->_Myfirst, this));

  00003	8b 09		 mov	 ecx, DWORD PTR [ecx]
  00005	8b 45 08	 mov	 eax, DWORD PTR ___$ReturnUdt$[ebp]
  00008	89 08		 mov	 DWORD PTR [eax], ecx

; 783  : 		}

  0000a	5d		 pop	 ebp
  0000b	c2 04 00	 ret	 4
?begin@?$vector@VioBlockDBItem@@V?$allocator@VioBlockDBItem@@@std@@@std@@QAE?AV?$_Vector_iterator@V?$_Vector_val@VioBlockDBItem@@V?$allocator@VioBlockDBItem@@@std@@@std@@@2@XZ ENDP ; std::vector<ioBlockDBItem,std::allocator<ioBlockDBItem> >::begin
_TEXT	ENDS
PUBLIC	?end@?$vector@VioBlockDBItem@@V?$allocator@VioBlockDBItem@@@std@@@std@@QAE?AV?$_Vector_iterator@V?$_Vector_val@VioBlockDBItem@@V?$allocator@VioBlockDBItem@@@std@@@std@@@2@XZ ; std::vector<ioBlockDBItem,std::allocator<ioBlockDBItem> >::end
; Function compile flags: /Ogsp
;	COMDAT ?end@?$vector@VioBlockDBItem@@V?$allocator@VioBlockDBItem@@@std@@@std@@QAE?AV?$_Vector_iterator@V?$_Vector_val@VioBlockDBItem@@V?$allocator@VioBlockDBItem@@@std@@@std@@@2@XZ
_TEXT	SEGMENT
___$ReturnUdt$ = 8					; size = 4
?end@?$vector@VioBlockDBItem@@V?$allocator@VioBlockDBItem@@@std@@@std@@QAE?AV?$_Vector_iterator@V?$_Vector_val@VioBlockDBItem@@V?$allocator@VioBlockDBItem@@@std@@@std@@@2@XZ PROC ; std::vector<ioBlockDBItem,std::allocator<ioBlockDBItem> >::end, COMDAT
; _this$ = ecx

; 791  : 		{	// return iterator for end of mutable sequence

  00000	55		 push	 ebp
  00001	8b ec		 mov	 ebp, esp

; 792  : 		return (iterator(this->_Mylast, this));

  00003	8b 49 04	 mov	 ecx, DWORD PTR [ecx+4]
  00006	8b 45 08	 mov	 eax, DWORD PTR ___$ReturnUdt$[ebp]
  00009	89 08		 mov	 DWORD PTR [eax], ecx

; 793  : 		}

  0000b	5d		 pop	 ebp
  0000c	c2 04 00	 ret	 4
?end@?$vector@VioBlockDBItem@@V?$allocator@VioBlockDBItem@@@std@@@std@@QAE?AV?$_Vector_iterator@V?$_Vector_val@VioBlockDBItem@@V?$allocator@VioBlockDBItem@@@std@@@std@@@2@XZ ENDP ; std::vector<ioBlockDBItem,std::allocator<ioBlockDBItem> >::end
_TEXT	ENDS
PUBLIC	?_Buy@?$vector@UInvenBlockItem@ioUserBlockStorage@@V?$allocator@UInvenBlockItem@ioUserBlockStorage@@@std@@@std@@IAE_NI@Z ; std::vector<ioUserBlockStorage::InvenBlockItem,std::allocator<ioUserBlockStorage::InvenBlockItem> >::_Buy
; Function compile flags: /Ogsp
;	COMDAT ?_Buy@?$vector@UInvenBlockItem@ioUserBlockStorage@@V?$allocator@UInvenBlockItem@ioUserBlockStorage@@@std@@@std@@IAE_NI@Z
_TEXT	SEGMENT
__Capacity$ = 8						; size = 4
?_Buy@?$vector@UInvenBlockItem@ioUserBlockStorage@@V?$allocator@UInvenBlockItem@ioUserBlockStorage@@@std@@@std@@IAE_NI@Z PROC ; std::vector<ioUserBlockStorage::InvenBlockItem,std::allocator<ioUserBlockStorage::InvenBlockItem> >::_Buy, COMDAT
; _this$ = ecx

; 1250 : 		{	// allocate array with _Capacity elements

  00000	55		 push	 ebp
  00001	8b ec		 mov	 ebp, esp
  00003	56		 push	 esi

; 1251 : 		this->_Myfirst = 0;

  00004	33 c0		 xor	 eax, eax
  00006	57		 push	 edi

; 1252 : 		this->_Mylast = 0;
; 1253 : 		this->_Myend = 0;
; 1254 : 
; 1255 : 		if (_Capacity == 0)

  00007	8b 7d 08	 mov	 edi, DWORD PTR __Capacity$[ebp]
  0000a	8b f1		 mov	 esi, ecx
  0000c	89 06		 mov	 DWORD PTR [esi], eax
  0000e	89 46 04	 mov	 DWORD PTR [esi+4], eax
  00011	89 46 08	 mov	 DWORD PTR [esi+8], eax
  00014	3b f8		 cmp	 edi, eax
  00016	75 04		 jne	 SHORT $LN4@Buy

; 1256 : 			return (false);

  00018	32 c0		 xor	 al, al
  0001a	eb 2b		 jmp	 SHORT $LN5@Buy
$LN4@Buy:

; 1257 : 		else if (max_size() < _Capacity)

  0001c	81 ff 24 49 92
	04		 cmp	 edi, 76695844		; 04924924H
  00022	76 0b		 jbe	 SHORT $LN2@Buy

; 1258 : 			_Xlen();	// result too long

  00024	68 00 00 00 00	 push	 OFFSET ??_C@_0BD@OLBABOEK@vector?$DMT?$DO?5too?5long?$AA@
  00029	ff 15 00 00 00
	00		 call	 DWORD PTR __imp_?_Xlength_error@std@@YAXPBD@Z
$LN19@Buy:
$LN2@Buy:

; 1259 : 		else
; 1260 : 			{	// nonempty array, allocate storage
; 1261 : 			this->_Myfirst = this->_Alval.allocate(_Capacity);

  0002f	50		 push	 eax
  00030	57		 push	 edi
  00031	e8 00 00 00 00	 call	 ??$_Allocate@UInvenBlockItem@ioUserBlockStorage@@@std@@YAPAUInvenBlockItem@ioUserBlockStorage@@IPAU12@@Z ; std::_Allocate<ioUserBlockStorage::InvenBlockItem>

; 1262 : 			this->_Mylast = this->_Myfirst;
; 1263 : 			this->_Myend = this->_Myfirst + _Capacity;

  00036	6b ff 38	 imul	 edi, 56			; 00000038H
  00039	03 f8		 add	 edi, eax
  0003b	59		 pop	 ecx
  0003c	89 06		 mov	 DWORD PTR [esi], eax
  0003e	89 46 04	 mov	 DWORD PTR [esi+4], eax
  00041	59		 pop	 ecx
  00042	89 7e 08	 mov	 DWORD PTR [esi+8], edi

; 1264 : 			}
; 1265 : 		return (true);

  00045	b0 01		 mov	 al, 1
$LN5@Buy:
  00047	5f		 pop	 edi
  00048	5e		 pop	 esi

; 1266 : 		}

  00049	5d		 pop	 ebp
  0004a	c2 04 00	 ret	 4
$LN18@Buy:
?_Buy@?$vector@UInvenBlockItem@ioUserBlockStorage@@V?$allocator@UInvenBlockItem@ioUserBlockStorage@@@std@@@std@@IAE_NI@Z ENDP ; std::vector<ioUserBlockStorage::InvenBlockItem,std::allocator<ioUserBlockStorage::InvenBlockItem> >::_Buy
_TEXT	ENDS
PUBLIC	?_Make_iter@?$vector@VioBlockDBItem@@V?$allocator@VioBlockDBItem@@@std@@@std@@QBE?AV?$_Vector_iterator@V?$_Vector_val@VioBlockDBItem@@V?$allocator@VioBlockDBItem@@@std@@@std@@@2@V?$_Vector_const_iterator@V?$_Vector_val@VioBlockDBItem@@V?$allocator@VioBlockDBItem@@@std@@@std@@@2@@Z ; std::vector<ioBlockDBItem,std::allocator<ioBlockDBItem> >::_Make_iter
; Function compile flags: /Ogsp
;	COMDAT ?_Make_iter@?$vector@VioBlockDBItem@@V?$allocator@VioBlockDBItem@@@std@@@std@@QBE?AV?$_Vector_iterator@V?$_Vector_val@VioBlockDBItem@@V?$allocator@VioBlockDBItem@@@std@@@std@@@2@V?$_Vector_const_iterator@V?$_Vector_val@VioBlockDBItem@@V?$allocator@VioBlockDBItem@@@std@@@std@@@2@@Z
_TEXT	SEGMENT
___$ReturnUdt$ = 8					; size = 4
__Where$ = 12						; size = 4
?_Make_iter@?$vector@VioBlockDBItem@@V?$allocator@VioBlockDBItem@@@std@@@std@@QBE?AV?$_Vector_iterator@V?$_Vector_val@VioBlockDBItem@@V?$allocator@VioBlockDBItem@@@std@@@std@@@2@V?$_Vector_const_iterator@V?$_Vector_val@VioBlockDBItem@@V?$allocator@VioBlockDBItem@@@std@@@std@@@2@@Z PROC ; std::vector<ioBlockDBItem,std::allocator<ioBlockDBItem> >::_Make_iter, COMDAT
; _this$ = ecx

; 801  : 		{	// make iterator from const_iterator

  00000	55		 push	 ebp
  00001	8b ec		 mov	 ebp, esp

; 802  : 		return (iterator(_Where._Ptr, this));

  00003	8b 45 08	 mov	 eax, DWORD PTR ___$ReturnUdt$[ebp]
  00006	8b 4d 0c	 mov	 ecx, DWORD PTR __Where$[ebp]
  00009	89 08		 mov	 DWORD PTR [eax], ecx

; 803  : 		}

  0000b	5d		 pop	 ebp
  0000c	c2 08 00	 ret	 8
?_Make_iter@?$vector@VioBlockDBItem@@V?$allocator@VioBlockDBItem@@@std@@@std@@QBE?AV?$_Vector_iterator@V?$_Vector_val@VioBlockDBItem@@V?$allocator@VioBlockDBItem@@@std@@@std@@@2@V?$_Vector_const_iterator@V?$_Vector_val@VioBlockDBItem@@V?$allocator@VioBlockDBItem@@@std@@@std@@@2@@Z ENDP ; std::vector<ioBlockDBItem,std::allocator<ioBlockDBItem> >::_Make_iter
_TEXT	ENDS
PUBLIC	??9?$_Vector_const_iterator@V?$_Vector_val@VioBlockDBItem@@V?$allocator@VioBlockDBItem@@@std@@@std@@@std@@QBE_NABV01@@Z ; std::_Vector_const_iterator<std::_Vector_val<ioBlockDBItem,std::allocator<ioBlockDBItem> > >::operator!=
; Function compile flags: /Ogsp
;	COMDAT ??9?$_Vector_const_iterator@V?$_Vector_val@VioBlockDBItem@@V?$allocator@VioBlockDBItem@@@std@@@std@@@std@@QBE_NABV01@@Z
_TEXT	SEGMENT
__Right$ = 8						; size = 4
??9?$_Vector_const_iterator@V?$_Vector_val@VioBlockDBItem@@V?$allocator@VioBlockDBItem@@@std@@@std@@@std@@QBE_NABV01@@Z PROC ; std::_Vector_const_iterator<std::_Vector_val<ioBlockDBItem,std::allocator<ioBlockDBItem> > >::operator!=, COMDAT
; _this$ = ecx

; 207  : 		{	// test for iterator inequality

  00000	55		 push	 ebp
  00001	8b ec		 mov	 ebp, esp

; 208  : 		return (!(*this == _Right));

  00003	8b 01		 mov	 eax, DWORD PTR [ecx]
  00005	8b 55 08	 mov	 edx, DWORD PTR __Right$[ebp]
  00008	33 c9		 xor	 ecx, ecx
  0000a	3b 02		 cmp	 eax, DWORD PTR [edx]
  0000c	0f 95 c0	 setne	 al

; 209  : 		}

  0000f	5d		 pop	 ebp
  00010	c2 04 00	 ret	 4
??9?$_Vector_const_iterator@V?$_Vector_val@VioBlockDBItem@@V?$allocator@VioBlockDBItem@@@std@@@std@@@std@@QBE_NABV01@@Z ENDP ; std::_Vector_const_iterator<std::_Vector_val<ioBlockDBItem,std::allocator<ioBlockDBItem> > >::operator!=
_TEXT	ENDS
PUBLIC	??$_Cons_val@V?$allocator@VioBlockDBItem@@@std@@VioBlockDBItem@@AAV3@@std@@YAXAAV?$allocator@VioBlockDBItem@@@0@PAVioBlockDBItem@@AAV2@@Z ; std::_Cons_val<std::allocator<ioBlockDBItem>,ioBlockDBItem,ioBlockDBItem &>
; Function compile flags: /Ogsp
; File c:\program files (x86)\microsoft visual studio 10.0\vc\include\xmemory
;	COMDAT ??$_Cons_val@V?$allocator@VioBlockDBItem@@@std@@VioBlockDBItem@@AAV3@@std@@YAXAAV?$allocator@VioBlockDBItem@@@0@PAVioBlockDBItem@@AAV2@@Z
_TEXT	SEGMENT
__Alval$ = 8						; size = 4
__Pdest$ = 12						; size = 4
__Src$ = 16						; size = 4
??$_Cons_val@V?$allocator@VioBlockDBItem@@@std@@VioBlockDBItem@@AAV3@@std@@YAXAAV?$allocator@VioBlockDBItem@@@0@PAVioBlockDBItem@@AAV2@@Z PROC ; std::_Cons_val<std::allocator<ioBlockDBItem>,ioBlockDBItem,ioBlockDBItem &>, COMDAT

; 279  : 	{	// construct using allocator

  00000	55		 push	 ebp
  00001	8b ec		 mov	 ebp, esp

; 280  : 	_Alval.construct(_Pdest, _STD forward<_Ty2>(_Src));

  00003	8b 4d 0c	 mov	 ecx, DWORD PTR __Pdest$[ebp]
  00006	85 c9		 test	 ecx, ecx
  00008	74 08		 je	 SHORT $LN7@Cons_val
  0000a	ff 75 10	 push	 DWORD PTR __Src$[ebp]
  0000d	e8 00 00 00 00	 call	 ??0ioBlockDBItem@@QAE@ABV0@@Z
$LN7@Cons_val:

; 281  : 	}

  00012	5d		 pop	 ebp
  00013	c3		 ret	 0
??$_Cons_val@V?$allocator@VioBlockDBItem@@@std@@VioBlockDBItem@@AAV3@@std@@YAXAAV?$allocator@VioBlockDBItem@@@0@PAVioBlockDBItem@@AAV2@@Z ENDP ; std::_Cons_val<std::allocator<ioBlockDBItem>,ioBlockDBItem,ioBlockDBItem &>
_TEXT	ENDS
PUBLIC	??$_Copy_impl@PAUInvenBlockItem@ioUserBlockStorage@@PAU12@@std@@YAPAUInvenBlockItem@ioUserBlockStorage@@PAU12@00@Z ; std::_Copy_impl<ioUserBlockStorage::InvenBlockItem *,ioUserBlockStorage::InvenBlockItem *>
; Function compile flags: /Ogsp
; File c:\program files (x86)\microsoft visual studio 10.0\vc\include\xutility
;	COMDAT ??$_Copy_impl@PAUInvenBlockItem@ioUserBlockStorage@@PAU12@@std@@YAPAUInvenBlockItem@ioUserBlockStorage@@PAU12@00@Z
_TEXT	SEGMENT
__Cat$512584 = -4					; size = 1
__First$ = 8						; size = 4
__Last$ = 12						; size = 4
__Dest$ = 16						; size = 4
??$_Copy_impl@PAUInvenBlockItem@ioUserBlockStorage@@PAU12@@std@@YAPAUInvenBlockItem@ioUserBlockStorage@@PAU12@00@Z PROC ; std::_Copy_impl<ioUserBlockStorage::InvenBlockItem *,ioUserBlockStorage::InvenBlockItem *>, COMDAT

; 2163 : 	{	// copy [_First, _Last) to [_Dest, ...)

  00000	55		 push	 ebp
  00001	8b ec		 mov	 ebp, esp
  00003	51		 push	 ecx

; 2164 : 	return (_Copy_impl(_First, _Last,
; 2165 : 		_Dest, _Ptr_cat(_First, _Dest)));

  00004	ff 75 fc	 push	 DWORD PTR __Cat$512584[ebp]
  00007	ff 75 10	 push	 DWORD PTR __Dest$[ebp]
  0000a	ff 75 0c	 push	 DWORD PTR __Last$[ebp]
  0000d	ff 75 08	 push	 DWORD PTR __First$[ebp]
  00010	e8 00 00 00 00	 call	 ??$_Copy_impl@PAUInvenBlockItem@ioUserBlockStorage@@PAU12@@std@@YAPAUInvenBlockItem@ioUserBlockStorage@@PAU12@00U_Nonscalar_ptr_iterator_tag@0@@Z ; std::_Copy_impl<ioUserBlockStorage::InvenBlockItem *,ioUserBlockStorage::InvenBlockItem *>
  00015	83 c4 10	 add	 esp, 16			; 00000010H

; 2166 : 	}

  00018	c9		 leave
  00019	c3		 ret	 0
??$_Copy_impl@PAUInvenBlockItem@ioUserBlockStorage@@PAU12@@std@@YAPAUInvenBlockItem@ioUserBlockStorage@@PAU12@00@Z ENDP ; std::_Copy_impl<ioUserBlockStorage::InvenBlockItem *,ioUserBlockStorage::InvenBlockItem *>
_TEXT	ENDS
PUBLIC	??$_Cons_val@V?$allocator@UInvenBlockItem@ioUserBlockStorage@@@std@@UInvenBlockItem@ioUserBlockStorage@@AAU34@@std@@YAXAAV?$allocator@UInvenBlockItem@ioUserBlockStorage@@@0@PAUInvenBlockItem@ioUserBlockStorage@@AAU23@@Z ; std::_Cons_val<std::allocator<ioUserBlockStorage::InvenBlockItem>,ioUserBlockStorage::InvenBlockItem,ioUserBlockStorage::InvenBlockItem &>
;	COMDAT xdata$x
; File c:\program files (x86)\microsoft visual studio 10.0\vc\include\utility
xdata$x	SEGMENT
__unwindtable$??$_Cons_val@V?$allocator@UInvenBlockItem@ioUserBlockStorage@@@std@@UInvenBlockItem@ioUserBlockStorage@@AAU34@@std@@YAXAAV?$allocator@UInvenBlockItem@ioUserBlockStorage@@@0@PAUInvenBlockItem@ioUserBlockStorage@@AAU23@@Z DD 0ffffffffH
	DD	FLAT:__unwindfunclet$??$_Cons_val@V?$allocator@UInvenBlockItem@ioUserBlockStorage@@@std@@UInvenBlockItem@ioUserBlockStorage@@AAU34@@std@@YAXAAV?$allocator@UInvenBlockItem@ioUserBlockStorage@@@0@PAUInvenBlockItem@ioUserBlockStorage@@AAU23@@Z$0
__ehfuncinfo$??$_Cons_val@V?$allocator@UInvenBlockItem@ioUserBlockStorage@@@std@@UInvenBlockItem@ioUserBlockStorage@@AAU34@@std@@YAXAAV?$allocator@UInvenBlockItem@ioUserBlockStorage@@@0@PAUInvenBlockItem@ioUserBlockStorage@@AAU23@@Z DD 019930522H
	DD	01H
	DD	FLAT:__unwindtable$??$_Cons_val@V?$allocator@UInvenBlockItem@ioUserBlockStorage@@@std@@UInvenBlockItem@ioUserBlockStorage@@AAU34@@std@@YAXAAV?$allocator@UInvenBlockItem@ioUserBlockStorage@@@0@PAUInvenBlockItem@ioUserBlockStorage@@AAU23@@Z
	DD	2 DUP(00H)
	DD	2 DUP(00H)
	DD	00H
	DD	01H
; Function compile flags: /Ogsp
; File c:\program files (x86)\microsoft visual studio 10.0\vc\include\xmemory
xdata$x	ENDS
;	COMDAT ??$_Cons_val@V?$allocator@UInvenBlockItem@ioUserBlockStorage@@@std@@UInvenBlockItem@ioUserBlockStorage@@AAU34@@std@@YAXAAV?$allocator@UInvenBlockItem@ioUserBlockStorage@@@0@PAUInvenBlockItem@ioUserBlockStorage@@AAU23@@Z
_TEXT	SEGMENT
$T512604 = -16						; size = 4
__$EHRec$ = -12						; size = 12
__Alval$ = 8						; size = 4
__Pdest$ = 12						; size = 4
__Src$ = 16						; size = 4
??$_Cons_val@V?$allocator@UInvenBlockItem@ioUserBlockStorage@@@std@@UInvenBlockItem@ioUserBlockStorage@@AAU34@@std@@YAXAAV?$allocator@UInvenBlockItem@ioUserBlockStorage@@@0@PAUInvenBlockItem@ioUserBlockStorage@@AAU23@@Z PROC ; std::_Cons_val<std::allocator<ioUserBlockStorage::InvenBlockItem>,ioUserBlockStorage::InvenBlockItem,ioUserBlockStorage::InvenBlockItem &>, COMDAT

; 279  : 	{	// construct using allocator

  00000	6a 04		 push	 4
  00002	b8 00 00 00 00	 mov	 eax, __ehhandler$??$_Cons_val@V?$allocator@UInvenBlockItem@ioUserBlockStorage@@@std@@UInvenBlockItem@ioUserBlockStorage@@AAU34@@std@@YAXAAV?$allocator@UInvenBlockItem@ioUserBlockStorage@@@0@PAUInvenBlockItem@ioUserBlockStorage@@AAU23@@Z
  00007	e8 00 00 00 00	 call	 __EH_prolog3

; 280  : 	_Alval.construct(_Pdest, _STD forward<_Ty2>(_Src));

  0000c	8b 4d 0c	 mov	 ecx, DWORD PTR __Pdest$[ebp]
  0000f	89 4d f0	 mov	 DWORD PTR $T512604[ebp], ecx
  00012	83 65 fc 00	 and	 DWORD PTR __$EHRec$[ebp+8], 0
  00016	85 c9		 test	 ecx, ecx
  00018	74 08		 je	 SHORT $LN7@Cons_val@2
  0001a	ff 75 10	 push	 DWORD PTR __Src$[ebp]
  0001d	e8 00 00 00 00	 call	 ??0InvenBlockItem@ioUserBlockStorage@@QAE@ABU01@@Z
$LN7@Cons_val@2:

; 281  : 	}

  00022	e8 00 00 00 00	 call	 __EH_epilog3
  00027	c3		 ret	 0
_TEXT	ENDS
;	COMDAT text$x
text$x	SEGMENT
__unwindfunclet$??$_Cons_val@V?$allocator@UInvenBlockItem@ioUserBlockStorage@@@std@@UInvenBlockItem@ioUserBlockStorage@@AAU34@@std@@YAXAAV?$allocator@UInvenBlockItem@ioUserBlockStorage@@@0@PAUInvenBlockItem@ioUserBlockStorage@@AAU23@@Z$0:
  00000	ff 75 0c	 push	 DWORD PTR __Pdest$[ebp]
  00003	ff 75 f0	 push	 DWORD PTR $T512604[ebp]
  00006	e8 00 00 00 00	 call	 ??3@YAXPAX0@Z		; operator delete
  0000b	59		 pop	 ecx
  0000c	59		 pop	 ecx
  0000d	c3		 ret	 0
__ehhandler$??$_Cons_val@V?$allocator@UInvenBlockItem@ioUserBlockStorage@@@std@@UInvenBlockItem@ioUserBlockStorage@@AAU34@@std@@YAXAAV?$allocator@UInvenBlockItem@ioUserBlockStorage@@@0@PAUInvenBlockItem@ioUserBlockStorage@@AAU23@@Z:
  0000e	8b 54 24 08	 mov	 edx, DWORD PTR [esp+8]
  00012	8d 42 0c	 lea	 eax, DWORD PTR [edx+12]
  00015	8b 4a ec	 mov	 ecx, DWORD PTR [edx-20]
  00018	33 c8		 xor	 ecx, eax
  0001a	e8 00 00 00 00	 call	 @__security_check_cookie@4
  0001f	b8 00 00 00 00	 mov	 eax, OFFSET __ehfuncinfo$??$_Cons_val@V?$allocator@UInvenBlockItem@ioUserBlockStorage@@@std@@UInvenBlockItem@ioUserBlockStorage@@AAU34@@std@@YAXAAV?$allocator@UInvenBlockItem@ioUserBlockStorage@@@0@PAUInvenBlockItem@ioUserBlockStorage@@AAU23@@Z
  00024	e9 00 00 00 00	 jmp	 ___CxxFrameHandler3
text$x	ENDS
??$_Cons_val@V?$allocator@UInvenBlockItem@ioUserBlockStorage@@@std@@UInvenBlockItem@ioUserBlockStorage@@AAU34@@std@@YAXAAV?$allocator@UInvenBlockItem@ioUserBlockStorage@@@0@PAUInvenBlockItem@ioUserBlockStorage@@AAU23@@Z ENDP ; std::_Cons_val<std::allocator<ioUserBlockStorage::InvenBlockItem>,ioUserBlockStorage::InvenBlockItem,ioUserBlockStorage::InvenBlockItem &>
PUBLIC	??$_Move@PAVioBlockDBItem@@PAV1@@std@@YAPAVioBlockDBItem@@PAV1@00@Z ; std::_Move<ioBlockDBItem *,ioBlockDBItem *>
; Function compile flags: /Ogsp
; File c:\program files (x86)\microsoft visual studio 10.0\vc\include\xutility
;	COMDAT ??$_Move@PAVioBlockDBItem@@PAV1@@std@@YAPAVioBlockDBItem@@PAV1@00@Z
_TEXT	SEGMENT
__Cat$512624 = -4					; size = 1
__First$ = 8						; size = 4
__Last$ = 12						; size = 4
__Dest$ = 16						; size = 4
??$_Move@PAVioBlockDBItem@@PAV1@@std@@YAPAVioBlockDBItem@@PAV1@00@Z PROC ; std::_Move<ioBlockDBItem *,ioBlockDBItem *>, COMDAT

; 2533 : 	{	// move [_First, _Last) to [_Dest, ...), unchecked

  00000	55		 push	 ebp
  00001	8b ec		 mov	 ebp, esp
  00003	51		 push	 ecx

; 2534 : 	return (_Move(_First, _Last,
; 2535 : 		_Dest, _Ptr_cat(_First, _Dest)));

  00004	ff 75 fc	 push	 DWORD PTR __Cat$512624[ebp]
  00007	ff 75 10	 push	 DWORD PTR __Dest$[ebp]
  0000a	ff 75 0c	 push	 DWORD PTR __Last$[ebp]
  0000d	ff 75 08	 push	 DWORD PTR __First$[ebp]
  00010	e8 00 00 00 00	 call	 ??$_Move@PAVioBlockDBItem@@PAV1@@std@@YAPAVioBlockDBItem@@PAV1@00U_Nonscalar_ptr_iterator_tag@0@@Z ; std::_Move<ioBlockDBItem *,ioBlockDBItem *>
  00015	83 c4 10	 add	 esp, 16			; 00000010H

; 2536 : 	}

  00018	c9		 leave
  00019	c3		 ret	 0
??$_Move@PAVioBlockDBItem@@PAV1@@std@@YAPAVioBlockDBItem@@PAV1@00@Z ENDP ; std::_Move<ioBlockDBItem *,ioBlockDBItem *>
_TEXT	ENDS
PUBLIC	??$_Move@PAUInvenBlockItem@ioUserBlockStorage@@PAU12@@std@@YAPAUInvenBlockItem@ioUserBlockStorage@@PAU12@00@Z ; std::_Move<ioUserBlockStorage::InvenBlockItem *,ioUserBlockStorage::InvenBlockItem *>
; Function compile flags: /Ogsp
;	COMDAT ??$_Move@PAUInvenBlockItem@ioUserBlockStorage@@PAU12@@std@@YAPAUInvenBlockItem@ioUserBlockStorage@@PAU12@00@Z
_TEXT	SEGMENT
__Cat$512630 = -4					; size = 1
__First$ = 8						; size = 4
__Last$ = 12						; size = 4
__Dest$ = 16						; size = 4
??$_Move@PAUInvenBlockItem@ioUserBlockStorage@@PAU12@@std@@YAPAUInvenBlockItem@ioUserBlockStorage@@PAU12@00@Z PROC ; std::_Move<ioUserBlockStorage::InvenBlockItem *,ioUserBlockStorage::InvenBlockItem *>, COMDAT

; 2533 : 	{	// move [_First, _Last) to [_Dest, ...), unchecked

  00000	55		 push	 ebp
  00001	8b ec		 mov	 ebp, esp
  00003	51		 push	 ecx

; 2534 : 	return (_Move(_First, _Last,
; 2535 : 		_Dest, _Ptr_cat(_First, _Dest)));

  00004	ff 75 fc	 push	 DWORD PTR __Cat$512630[ebp]
  00007	ff 75 10	 push	 DWORD PTR __Dest$[ebp]
  0000a	ff 75 0c	 push	 DWORD PTR __Last$[ebp]
  0000d	ff 75 08	 push	 DWORD PTR __First$[ebp]
  00010	e8 00 00 00 00	 call	 ??$_Move@PAUInvenBlockItem@ioUserBlockStorage@@PAU12@@std@@YAPAUInvenBlockItem@ioUserBlockStorage@@PAU12@00U_Nonscalar_ptr_iterator_tag@0@@Z ; std::_Move<ioUserBlockStorage::InvenBlockItem *,ioUserBlockStorage::InvenBlockItem *>
  00015	83 c4 10	 add	 esp, 16			; 00000010H

; 2536 : 	}

  00018	c9		 leave
  00019	c3		 ret	 0
??$_Move@PAUInvenBlockItem@ioUserBlockStorage@@PAU12@@std@@YAPAUInvenBlockItem@ioUserBlockStorage@@PAU12@00@Z ENDP ; std::_Move<ioUserBlockStorage::InvenBlockItem *,ioUserBlockStorage::InvenBlockItem *>
_TEXT	ENDS
PUBLIC	?construct@?$allocator@VioBlockDBItem@@@std@@QAEXPAVioBlockDBItem@@ABV3@@Z ; std::allocator<ioBlockDBItem>::construct
; Function compile flags: /Ogsp
; File c:\program files (x86)\microsoft visual studio 10.0\vc\include\xmemory
;	COMDAT ?construct@?$allocator@VioBlockDBItem@@@std@@QAEXPAVioBlockDBItem@@ABV3@@Z
_TEXT	SEGMENT
__Ptr$ = 8						; size = 4
__Val$ = 12						; size = 4
?construct@?$allocator@VioBlockDBItem@@@std@@QAEXPAVioBlockDBItem@@ABV3@@Z PROC ; std::allocator<ioBlockDBItem>::construct, COMDAT
; _this$ = ecx

; 196  : 		{	// construct object at _Ptr with value _Val

  00000	55		 push	 ebp
  00001	8b ec		 mov	 ebp, esp

; 197  : 		_Construct(_Ptr, _Val);

  00003	8b 4d 08	 mov	 ecx, DWORD PTR __Ptr$[ebp]
  00006	85 c9		 test	 ecx, ecx
  00008	74 08		 je	 SHORT $LN5@construct@5
  0000a	ff 75 0c	 push	 DWORD PTR __Val$[ebp]
  0000d	e8 00 00 00 00	 call	 ??0ioBlockDBItem@@QAE@ABV0@@Z
$LN5@construct@5:

; 198  : 		}

  00012	5d		 pop	 ebp
  00013	c2 08 00	 ret	 8
?construct@?$allocator@VioBlockDBItem@@@std@@QAEXPAVioBlockDBItem@@ABV3@@Z ENDP ; std::allocator<ioBlockDBItem>::construct
_TEXT	ENDS
PUBLIC	?construct@?$allocator@UInvenBlockItem@ioUserBlockStorage@@@std@@QAEXPAUInvenBlockItem@ioUserBlockStorage@@ABU34@@Z ; std::allocator<ioUserBlockStorage::InvenBlockItem>::construct
; Function compile flags: /Ogsp
;	COMDAT ?construct@?$allocator@UInvenBlockItem@ioUserBlockStorage@@@std@@QAEXPAUInvenBlockItem@ioUserBlockStorage@@ABU34@@Z
_TEXT	SEGMENT
__Ptr$ = 8						; size = 4
__Val$ = 12						; size = 4
?construct@?$allocator@UInvenBlockItem@ioUserBlockStorage@@@std@@QAEXPAUInvenBlockItem@ioUserBlockStorage@@ABU34@@Z PROC ; std::allocator<ioUserBlockStorage::InvenBlockItem>::construct, COMDAT
; _this$ = ecx

; 196  : 		{	// construct object at _Ptr with value _Val

  00000	55		 push	 ebp
  00001	8b ec		 mov	 ebp, esp

; 197  : 		_Construct(_Ptr, _Val);

  00003	ff 75 0c	 push	 DWORD PTR __Val$[ebp]
  00006	ff 75 08	 push	 DWORD PTR __Ptr$[ebp]
  00009	e8 00 00 00 00	 call	 ??$_Construct@UInvenBlockItem@ioUserBlockStorage@@ABU12@@std@@YAXPAUInvenBlockItem@ioUserBlockStorage@@ABU12@@Z ; std::_Construct<ioUserBlockStorage::InvenBlockItem,ioUserBlockStorage::InvenBlockItem const &>
  0000e	59		 pop	 ecx
  0000f	59		 pop	 ecx

; 198  : 		}

  00010	5d		 pop	 ebp
  00011	c2 08 00	 ret	 8
?construct@?$allocator@UInvenBlockItem@ioUserBlockStorage@@@std@@QAEXPAUInvenBlockItem@ioUserBlockStorage@@ABU34@@Z ENDP ; std::allocator<ioUserBlockStorage::InvenBlockItem>::construct
_TEXT	ENDS
PUBLIC	??$_Dest_val@V?$allocator@VioBlockDBItem@@@std@@VioBlockDBItem@@@std@@YAXAAV?$allocator@VioBlockDBItem@@@0@PAVioBlockDBItem@@@Z ; std::_Dest_val<std::allocator<ioBlockDBItem>,ioBlockDBItem>
; Function compile flags: /Ogsp
;	COMDAT ??$_Dest_val@V?$allocator@VioBlockDBItem@@@std@@VioBlockDBItem@@@std@@YAXAAV?$allocator@VioBlockDBItem@@@0@PAVioBlockDBItem@@@Z
_TEXT	SEGMENT
__Alval$ = 8						; size = 4
__Pdest$ = 12						; size = 4
??$_Dest_val@V?$allocator@VioBlockDBItem@@@std@@VioBlockDBItem@@@std@@YAXAAV?$allocator@VioBlockDBItem@@@0@PAVioBlockDBItem@@@Z PROC ; std::_Dest_val<std::allocator<ioBlockDBItem>,ioBlockDBItem>, COMDAT

; 286  : 	{	// destroy using allocator

  00000	55		 push	 ebp
  00001	8b ec		 mov	 ebp, esp

; 287  : 	_Alval.destroy(_Pdest);

  00003	8b 4d 0c	 mov	 ecx, DWORD PTR __Pdest$[ebp]
  00006	8b 01		 mov	 eax, DWORD PTR [ecx]
  00008	6a 00		 push	 0
  0000a	ff 10		 call	 DWORD PTR [eax]

; 288  : 	}

  0000c	5d		 pop	 ebp
  0000d	c3		 ret	 0
??$_Dest_val@V?$allocator@VioBlockDBItem@@@std@@VioBlockDBItem@@@std@@YAXAAV?$allocator@VioBlockDBItem@@@0@PAVioBlockDBItem@@@Z ENDP ; std::_Dest_val<std::allocator<ioBlockDBItem>,ioBlockDBItem>
_TEXT	ENDS
PUBLIC	?destroy@?$allocator@UInvenBlockItem@ioUserBlockStorage@@@std@@QAEXPAUInvenBlockItem@ioUserBlockStorage@@@Z ; std::allocator<ioUserBlockStorage::InvenBlockItem>::destroy
; Function compile flags: /Ogsp
;	COMDAT ?destroy@?$allocator@UInvenBlockItem@ioUserBlockStorage@@@std@@QAEXPAUInvenBlockItem@ioUserBlockStorage@@@Z
_TEXT	SEGMENT
__Ptr$ = 8						; size = 4
?destroy@?$allocator@UInvenBlockItem@ioUserBlockStorage@@@std@@QAEXPAUInvenBlockItem@ioUserBlockStorage@@@Z PROC ; std::allocator<ioUserBlockStorage::InvenBlockItem>::destroy, COMDAT
; _this$ = ecx

; 212  : 		{	// destroy object at _Ptr

  00000	55		 push	 ebp
  00001	8b ec		 mov	 ebp, esp

; 213  : 		_Destroy(_Ptr);

  00003	8b 4d 08	 mov	 ecx, DWORD PTR __Ptr$[ebp]
  00006	e8 00 00 00 00	 call	 ??1InvenBlockItem@ioUserBlockStorage@@QAE@XZ

; 214  : 		}

  0000b	5d		 pop	 ebp
  0000c	c2 04 00	 ret	 4
?destroy@?$allocator@UInvenBlockItem@ioUserBlockStorage@@@std@@QAEXPAUInvenBlockItem@ioUserBlockStorage@@@Z ENDP ; std::allocator<ioUserBlockStorage::InvenBlockItem>::destroy
_TEXT	ENDS
PUBLIC	??$iter_swap@PAUInvenBlockItem@ioUserBlockStorage@@PAU12@@std@@YAXPAUInvenBlockItem@ioUserBlockStorage@@0@Z ; std::iter_swap<ioUserBlockStorage::InvenBlockItem *,ioUserBlockStorage::InvenBlockItem *>
; Function compile flags: /Ogsp
; File c:\program files (x86)\microsoft visual studio 10.0\vc\include\xutility
;	COMDAT ??$iter_swap@PAUInvenBlockItem@ioUserBlockStorage@@PAU12@@std@@YAXPAUInvenBlockItem@ioUserBlockStorage@@0@Z
_TEXT	SEGMENT
__Left$ = 8						; size = 4
__Right$ = 12						; size = 4
??$iter_swap@PAUInvenBlockItem@ioUserBlockStorage@@PAU12@@std@@YAXPAUInvenBlockItem@ioUserBlockStorage@@0@Z PROC ; std::iter_swap<ioUserBlockStorage::InvenBlockItem *,ioUserBlockStorage::InvenBlockItem *>, COMDAT

; 2133 : 	{	// swap *_Left and *_Right

  00000	55		 push	 ebp
  00001	8b ec		 mov	 ebp, esp

; 2135 : 	}

  00003	5d		 pop	 ebp

; 2134 : 	swap(*_Left, *_Right);

  00004	e9 00 00 00 00	 jmp	 ??$swap@UInvenBlockItem@ioUserBlockStorage@@@std@@YAXAAUInvenBlockItem@ioUserBlockStorage@@0@Z ; std::swap<ioUserBlockStorage::InvenBlockItem>
??$iter_swap@PAUInvenBlockItem@ioUserBlockStorage@@PAU12@@std@@YAXPAUInvenBlockItem@ioUserBlockStorage@@0@Z ENDP ; std::iter_swap<ioUserBlockStorage::InvenBlockItem *,ioUserBlockStorage::InvenBlockItem *>
_TEXT	ENDS
PUBLIC	??$_Make_heap@PAUInvenBlockItem@ioUserBlockStorage@@HU12@VInvenBlockItemSort@2@@std@@YAXPAUInvenBlockItem@ioUserBlockStorage@@0VInvenBlockItemSort@2@PAH0@Z ; std::_Make_heap<ioUserBlockStorage::InvenBlockItem *,int,ioUserBlockStorage::InvenBlockItem,ioUserBlockStorage::InvenBlockItemSort>
;	COMDAT xdata$x
; File c:\program files (x86)\microsoft visual studio 10.0\vc\include\utility
xdata$x	SEGMENT
__unwindtable$??$_Make_heap@PAUInvenBlockItem@ioUserBlockStorage@@HU12@VInvenBlockItemSort@2@@std@@YAXPAUInvenBlockItem@ioUserBlockStorage@@0VInvenBlockItemSort@2@PAH0@Z DD 0ffffffffH
	DD	FLAT:__unwindfunclet$??$_Make_heap@PAUInvenBlockItem@ioUserBlockStorage@@HU12@VInvenBlockItemSort@2@@std@@YAXPAUInvenBlockItem@ioUserBlockStorage@@0VInvenBlockItemSort@2@PAH0@Z$0
__ehfuncinfo$??$_Make_heap@PAUInvenBlockItem@ioUserBlockStorage@@HU12@VInvenBlockItemSort@2@@std@@YAXPAUInvenBlockItem@ioUserBlockStorage@@0VInvenBlockItemSort@2@PAH0@Z DD 019930522H
	DD	01H
	DD	FLAT:__unwindtable$??$_Make_heap@PAUInvenBlockItem@ioUserBlockStorage@@HU12@VInvenBlockItemSort@2@@std@@YAXPAUInvenBlockItem@ioUserBlockStorage@@0VInvenBlockItemSort@2@PAH0@Z
	DD	2 DUP(00H)
	DD	2 DUP(00H)
	DD	00H
	DD	01H
; Function compile flags: /Ogsp
; File c:\program files (x86)\microsoft visual studio 10.0\vc\include\algorithm
xdata$x	ENDS
;	COMDAT ??$_Make_heap@PAUInvenBlockItem@ioUserBlockStorage@@HU12@VInvenBlockItemSort@2@@std@@YAXPAUInvenBlockItem@ioUserBlockStorage@@0VInvenBlockItemSort@2@PAH0@Z
_TEXT	SEGMENT
__Val$511061 = -68					; size = 56
__$EHRec$ = -12						; size = 12
__First$ = 8						; size = 4
__Last$ = 12						; size = 4
__Pred$ = 16						; size = 1
___formal$ = 20						; size = 4
___formal$ = 24						; size = 4
??$_Make_heap@PAUInvenBlockItem@ioUserBlockStorage@@HU12@VInvenBlockItemSort@2@@std@@YAXPAUInvenBlockItem@ioUserBlockStorage@@0VInvenBlockItemSort@2@PAH0@Z PROC ; std::_Make_heap<ioUserBlockStorage::InvenBlockItem *,int,ioUserBlockStorage::InvenBlockItem,ioUserBlockStorage::InvenBlockItemSort>, COMDAT

; 2658 : 	{	// make nontrivial [_First, _Last) into a heap, using _Pred

  00000	6a 38		 push	 56			; 00000038H
  00002	b8 00 00 00 00	 mov	 eax, __ehhandler$??$_Make_heap@PAUInvenBlockItem@ioUserBlockStorage@@HU12@VInvenBlockItemSort@2@@std@@YAXPAUInvenBlockItem@ioUserBlockStorage@@0VInvenBlockItemSort@2@PAH0@Z
  00007	e8 00 00 00 00	 call	 __EH_prolog3

; 2659 : 	_Diff _Bottom = _Last - _First;

  0000c	8b 45 0c	 mov	 eax, DWORD PTR __Last$[ebp]
  0000f	2b 45 08	 sub	 eax, DWORD PTR __First$[ebp]
  00012	6a 38		 push	 56			; 00000038H
  00014	99		 cdq
  00015	59		 pop	 ecx
  00016	f7 f9		 idiv	 ecx
  00018	8b d8		 mov	 ebx, eax

; 2660 : 	for (_Diff _Hole = _Bottom / 2; 0 < _Hole; )

  0001a	99		 cdq
  0001b	2b c2		 sub	 eax, edx
  0001d	8b f0		 mov	 esi, eax
  0001f	d1 fe		 sar	 esi, 1
  00021	85 f6		 test	 esi, esi
  00023	7e 3d		 jle	 SHORT $LN1@Make_heap

; 2659 : 	_Diff _Bottom = _Last - _First;

  00025	8b fe		 mov	 edi, esi
  00027	6b ff 38	 imul	 edi, 56			; 00000038H
  0002a	03 7d 08	 add	 edi, DWORD PTR __First$[ebp]
$LN2@Make_heap:

; 2661 : 		{	// reheap top half, bottom to top
; 2662 : 		--_Hole;

  0002d	83 ef 38	 sub	 edi, 56			; 00000038H

; 2663 : 		_Ty _Val = _Move(*(_First + _Hole));

  00030	57		 push	 edi
  00031	8d 4d bc	 lea	 ecx, DWORD PTR __Val$511061[ebp]
  00034	4e		 dec	 esi
  00035	e8 00 00 00 00	 call	 ??0InvenBlockItem@ioUserBlockStorage@@QAE@ABU01@@Z

; 2664 : 		_Adjust_heap(_First, _Hole, _Bottom,
; 2665 : 			_Move(_Val), _Pred);

  0003a	ff 75 10	 push	 DWORD PTR __Pred$[ebp]
  0003d	83 65 fc 00	 and	 DWORD PTR __$EHRec$[ebp+8], 0
  00041	8d 45 bc	 lea	 eax, DWORD PTR __Val$511061[ebp]
  00044	50		 push	 eax
  00045	53		 push	 ebx
  00046	56		 push	 esi
  00047	ff 75 08	 push	 DWORD PTR __First$[ebp]
  0004a	e8 00 00 00 00	 call	 ??$_Adjust_heap@PAUInvenBlockItem@ioUserBlockStorage@@HU12@VInvenBlockItemSort@2@@std@@YAXPAUInvenBlockItem@ioUserBlockStorage@@HH$$QAU12@VInvenBlockItemSort@2@@Z ; std::_Adjust_heap<ioUserBlockStorage::InvenBlockItem *,int,ioUserBlockStorage::InvenBlockItem,ioUserBlockStorage::InvenBlockItemSort>

; 2666 : 		}

  0004f	83 4d fc ff	 or	 DWORD PTR __$EHRec$[ebp+8], -1
  00053	83 c4 14	 add	 esp, 20			; 00000014H
  00056	8d 4d bc	 lea	 ecx, DWORD PTR __Val$511061[ebp]
  00059	e8 00 00 00 00	 call	 ??1InvenBlockItem@ioUserBlockStorage@@QAE@XZ
  0005e	85 f6		 test	 esi, esi
  00060	7f cb		 jg	 SHORT $LN2@Make_heap
$LN1@Make_heap:

; 2667 : 	}

  00062	e8 00 00 00 00	 call	 __EH_epilog3
  00067	c3		 ret	 0
_TEXT	ENDS
;	COMDAT text$x
text$x	SEGMENT
__unwindfunclet$??$_Make_heap@PAUInvenBlockItem@ioUserBlockStorage@@HU12@VInvenBlockItemSort@2@@std@@YAXPAUInvenBlockItem@ioUserBlockStorage@@0VInvenBlockItemSort@2@PAH0@Z$0:
  00000	8d 4d bc	 lea	 ecx, DWORD PTR __Val$511061[ebp]
  00003	e9 00 00 00 00	 jmp	 ??1InvenBlockItem@ioUserBlockStorage@@QAE@XZ
__ehhandler$??$_Make_heap@PAUInvenBlockItem@ioUserBlockStorage@@HU12@VInvenBlockItemSort@2@@std@@YAXPAUInvenBlockItem@ioUserBlockStorage@@0VInvenBlockItemSort@2@PAH0@Z:
  00008	8b 54 24 08	 mov	 edx, DWORD PTR [esp+8]
  0000c	8d 42 0c	 lea	 eax, DWORD PTR [edx+12]
  0000f	8b 4a b8	 mov	 ecx, DWORD PTR [edx-72]
  00012	33 c8		 xor	 ecx, eax
  00014	e8 00 00 00 00	 call	 @__security_check_cookie@4
  00019	b8 00 00 00 00	 mov	 eax, OFFSET __ehfuncinfo$??$_Make_heap@PAUInvenBlockItem@ioUserBlockStorage@@HU12@VInvenBlockItemSort@2@@std@@YAXPAUInvenBlockItem@ioUserBlockStorage@@0VInvenBlockItemSort@2@PAH0@Z
  0001e	e9 00 00 00 00	 jmp	 ___CxxFrameHandler3
text$x	ENDS
??$_Make_heap@PAUInvenBlockItem@ioUserBlockStorage@@HU12@VInvenBlockItemSort@2@@std@@YAXPAUInvenBlockItem@ioUserBlockStorage@@0VInvenBlockItemSort@2@PAH0@Z ENDP ; std::_Make_heap<ioUserBlockStorage::InvenBlockItem *,int,ioUserBlockStorage::InvenBlockItem,ioUserBlockStorage::InvenBlockItemSort>
PUBLIC	??$_Insertion_sort1@PAUInvenBlockItem@ioUserBlockStorage@@VInvenBlockItemSort@2@U12@@std@@YAXPAUInvenBlockItem@ioUserBlockStorage@@0VInvenBlockItemSort@2@0@Z ; std::_Insertion_sort1<ioUserBlockStorage::InvenBlockItem *,ioUserBlockStorage::InvenBlockItemSort,ioUserBlockStorage::InvenBlockItem>
;	COMDAT xdata$x
; File c:\program files (x86)\microsoft visual studio 10.0\vc\include\utility
xdata$x	SEGMENT
__unwindtable$??$_Insertion_sort1@PAUInvenBlockItem@ioUserBlockStorage@@VInvenBlockItemSort@2@U12@@std@@YAXPAUInvenBlockItem@ioUserBlockStorage@@0VInvenBlockItemSort@2@0@Z DD 0ffffffffH
	DD	FLAT:__unwindfunclet$??$_Insertion_sort1@PAUInvenBlockItem@ioUserBlockStorage@@VInvenBlockItemSort@2@U12@@std@@YAXPAUInvenBlockItem@ioUserBlockStorage@@0VInvenBlockItemSort@2@0@Z$0
__ehfuncinfo$??$_Insertion_sort1@PAUInvenBlockItem@ioUserBlockStorage@@VInvenBlockItemSort@2@U12@@std@@YAXPAUInvenBlockItem@ioUserBlockStorage@@0VInvenBlockItemSort@2@0@Z DD 019930522H
	DD	01H
	DD	FLAT:__unwindtable$??$_Insertion_sort1@PAUInvenBlockItem@ioUserBlockStorage@@VInvenBlockItemSort@2@U12@@std@@YAXPAUInvenBlockItem@ioUserBlockStorage@@0VInvenBlockItemSort@2@0@Z
	DD	2 DUP(00H)
	DD	2 DUP(00H)
	DD	00H
	DD	01H
; Function compile flags: /Ogsp
; File c:\program files (x86)\microsoft visual studio 10.0\vc\include\algorithm
xdata$x	ENDS
;	COMDAT ??$_Insertion_sort1@PAUInvenBlockItem@ioUserBlockStorage@@VInvenBlockItemSort@2@U12@@std@@YAXPAUInvenBlockItem@ioUserBlockStorage@@0VInvenBlockItemSort@2@0@Z
_TEXT	SEGMENT
__Val$511096 = -68					; size = 56
__$EHRec$ = -12						; size = 12
__Next1$511095 = 8					; size = 4
__First$ = 8						; size = 4
__Cat$512723 = 12					; size = 1
__Last$ = 12						; size = 4
__Pred$ = 16						; size = 1
___formal$ = 20						; size = 4
??$_Insertion_sort1@PAUInvenBlockItem@ioUserBlockStorage@@VInvenBlockItemSort@2@U12@@std@@YAXPAUInvenBlockItem@ioUserBlockStorage@@0VInvenBlockItemSort@2@0@Z PROC ; std::_Insertion_sort1<ioUserBlockStorage::InvenBlockItem *,ioUserBlockStorage::InvenBlockItemSort,ioUserBlockStorage::InvenBlockItem>, COMDAT

; 3650 : 	{	// insertion sort [_First, _Last), using _Pred

  00000	6a 38		 push	 56			; 00000038H
  00002	b8 00 00 00 00	 mov	 eax, __ehhandler$??$_Insertion_sort1@PAUInvenBlockItem@ioUserBlockStorage@@VInvenBlockItemSort@2@U12@@std@@YAXPAUInvenBlockItem@ioUserBlockStorage@@0VInvenBlockItemSort@2@0@Z
  00007	e8 00 00 00 00	 call	 __EH_prolog3

; 3651 : 	if (_First != _Last)

  0000c	8b 5d 08	 mov	 ebx, DWORD PTR __First$[ebp]
  0000f	3b 5d 0c	 cmp	 ebx, DWORD PTR __Last$[ebp]
  00012	74 4d		 je	 SHORT $LN6@Insertion_

; 3652 : 		for (_BidIt _Next = _First; ++_Next != _Last; )

  00014	8d 73 38	 lea	 esi, DWORD PTR [ebx+56]
  00017	eb 43		 jmp	 SHORT $LN36@Insertion_
$LL7@Insertion_:

; 3653 : 			{	// order next element
; 3654 : 			_BidIt _Next1 = _Next;
; 3655 : 			_Ty _Val = _Move(*_Next);

  00019	56		 push	 esi
  0001a	8d 4d bc	 lea	 ecx, DWORD PTR __Val$511096[ebp]
  0001d	89 75 08	 mov	 DWORD PTR __Next1$511095[ebp], esi
  00020	e8 00 00 00 00	 call	 ??0InvenBlockItem@ioUserBlockStorage@@QAE@ABU01@@Z

; 3656 : 
; 3657 : 			if (_DEBUG_LT_PRED(_Pred, _Val, *_First))

  00025	8b 45 e0	 mov	 eax, DWORD PTR __Val$511096[ebp+36]
  00028	83 65 fc 00	 and	 DWORD PTR __$EHRec$[ebp+8], 0
  0002c	3b 43 24	 cmp	 eax, DWORD PTR [ebx+36]
  0002f	7d 36		 jge	 SHORT $LN5@Insertion_

; 3658 : 				{	// found new earliest element, move to front
; 3659 : 				_Move_backward(_First, _Next, ++_Next1);

  00031	ff 75 0c	 push	 DWORD PTR __Cat$512723[ebp]
  00034	8d 46 38	 lea	 eax, DWORD PTR [esi+56]
  00037	50		 push	 eax
  00038	56		 push	 esi
  00039	53		 push	 ebx
  0003a	e8 00 00 00 00	 call	 ??$_Move_backward@PAUInvenBlockItem@ioUserBlockStorage@@PAU12@@std@@YAPAUInvenBlockItem@ioUserBlockStorage@@PAU12@00U_Nonscalar_ptr_iterator_tag@0@@Z ; std::_Move_backward<ioUserBlockStorage::InvenBlockItem *,ioUserBlockStorage::InvenBlockItem *>
  0003f	83 c4 10	 add	 esp, 16			; 00000010H

; 3660 : 				*_First = _Move(_Val);

  00042	8b cb		 mov	 ecx, ebx
$LN37@Insertion_:

; 3668 : 				*_Next1 = _Move(_Val);	// insert element in hole

  00044	8d 45 bc	 lea	 eax, DWORD PTR __Val$511096[ebp]
  00047	50		 push	 eax
  00048	e8 00 00 00 00	 call	 ??4InvenBlockItem@ioUserBlockStorage@@QAEAAU01@ABU01@@Z

; 3669 : 				}
; 3670 : 			}

  0004d	83 4d fc ff	 or	 DWORD PTR __$EHRec$[ebp+8], -1
  00051	8d 4d bc	 lea	 ecx, DWORD PTR __Val$511096[ebp]
  00054	e8 00 00 00 00	 call	 ??1InvenBlockItem@ioUserBlockStorage@@QAE@XZ
  00059	83 c6 38	 add	 esi, 56			; 00000038H
$LN36@Insertion_:

; 3652 : 		for (_BidIt _Next = _First; ++_Next != _Last; )

  0005c	3b 75 0c	 cmp	 esi, DWORD PTR __Last$[ebp]
  0005f	75 b8		 jne	 SHORT $LL7@Insertion_
$LN6@Insertion_:

; 3671 : 	}

  00061	e8 00 00 00 00	 call	 __EH_epilog3
  00066	c3		 ret	 0
$LN5@Insertion_:

; 3661 : 				}
; 3662 : 			else
; 3663 : 				{	// look for insertion point after first
; 3664 : 				for (_BidIt _First1 = _Next1;

  00067	8b fe		 mov	 edi, esi
$LL3@Insertion_:

; 3665 : 					_DEBUG_LT_PRED(_Pred, _Val, *--_First1);
; 3666 : 					_Next1 = _First1)

  00069	8b 45 e0	 mov	 eax, DWORD PTR __Val$511096[ebp+36]

; 3667 : 					*_Next1 = _Move(*_First1);	// move hole down

  0006c	8b 4d 08	 mov	 ecx, DWORD PTR __Next1$511095[ebp]
  0006f	83 ef 38	 sub	 edi, 56			; 00000038H
  00072	3b 47 24	 cmp	 eax, DWORD PTR [edi+36]
  00075	7d cd		 jge	 SHORT $LN37@Insertion_
  00077	57		 push	 edi
  00078	e8 00 00 00 00	 call	 ??4InvenBlockItem@ioUserBlockStorage@@QAEAAU01@ABU01@@Z
  0007d	89 7d 08	 mov	 DWORD PTR __Next1$511095[ebp], edi
  00080	eb e7		 jmp	 SHORT $LL3@Insertion_
_TEXT	ENDS
;	COMDAT text$x
text$x	SEGMENT
__unwindfunclet$??$_Insertion_sort1@PAUInvenBlockItem@ioUserBlockStorage@@VInvenBlockItemSort@2@U12@@std@@YAXPAUInvenBlockItem@ioUserBlockStorage@@0VInvenBlockItemSort@2@0@Z$0:
  00000	8d 4d bc	 lea	 ecx, DWORD PTR __Val$511096[ebp]
  00003	e9 00 00 00 00	 jmp	 ??1InvenBlockItem@ioUserBlockStorage@@QAE@XZ
__ehhandler$??$_Insertion_sort1@PAUInvenBlockItem@ioUserBlockStorage@@VInvenBlockItemSort@2@U12@@std@@YAXPAUInvenBlockItem@ioUserBlockStorage@@0VInvenBlockItemSort@2@0@Z:
  00008	8b 54 24 08	 mov	 edx, DWORD PTR [esp+8]
  0000c	8d 42 0c	 lea	 eax, DWORD PTR [edx+12]
  0000f	8b 4a b8	 mov	 ecx, DWORD PTR [edx-72]
  00012	33 c8		 xor	 ecx, eax
  00014	e8 00 00 00 00	 call	 @__security_check_cookie@4
  00019	b8 00 00 00 00	 mov	 eax, OFFSET __ehfuncinfo$??$_Insertion_sort1@PAUInvenBlockItem@ioUserBlockStorage@@VInvenBlockItemSort@2@U12@@std@@YAXPAUInvenBlockItem@ioUserBlockStorage@@0VInvenBlockItemSort@2@0@Z
  0001e	e9 00 00 00 00	 jmp	 ___CxxFrameHandler3
text$x	ENDS
??$_Insertion_sort1@PAUInvenBlockItem@ioUserBlockStorage@@VInvenBlockItemSort@2@U12@@std@@YAXPAUInvenBlockItem@ioUserBlockStorage@@0VInvenBlockItemSort@2@0@Z ENDP ; std::_Insertion_sort1<ioUserBlockStorage::InvenBlockItem *,ioUserBlockStorage::InvenBlockItemSort,ioUserBlockStorage::InvenBlockItem>
PUBLIC	??$_Cons_val@V?$allocator@VioBlockDBItem@@@std@@VioBlockDBItem@@V3@@std@@YAXAAV?$allocator@VioBlockDBItem@@@0@PAVioBlockDBItem@@$$QAV2@@Z ; std::_Cons_val<std::allocator<ioBlockDBItem>,ioBlockDBItem,ioBlockDBItem>
; Function compile flags: /Ogsp
; File c:\program files (x86)\microsoft visual studio 10.0\vc\include\xmemory
;	COMDAT ??$_Cons_val@V?$allocator@VioBlockDBItem@@@std@@VioBlockDBItem@@V3@@std@@YAXAAV?$allocator@VioBlockDBItem@@@0@PAVioBlockDBItem@@$$QAV2@@Z
_TEXT	SEGMENT
__Alval$ = 8						; size = 4
__Pdest$ = 12						; size = 4
__Src$ = 16						; size = 4
??$_Cons_val@V?$allocator@VioBlockDBItem@@@std@@VioBlockDBItem@@V3@@std@@YAXAAV?$allocator@VioBlockDBItem@@@0@PAVioBlockDBItem@@$$QAV2@@Z PROC ; std::_Cons_val<std::allocator<ioBlockDBItem>,ioBlockDBItem,ioBlockDBItem>, COMDAT

; 279  : 	{	// construct using allocator

  00000	55		 push	 ebp
  00001	8b ec		 mov	 ebp, esp

; 280  : 	_Alval.construct(_Pdest, _STD forward<_Ty2>(_Src));

  00003	8b 4d 0c	 mov	 ecx, DWORD PTR __Pdest$[ebp]
  00006	85 c9		 test	 ecx, ecx
  00008	74 08		 je	 SHORT $LN7@Cons_val@3
  0000a	ff 75 10	 push	 DWORD PTR __Src$[ebp]
  0000d	e8 00 00 00 00	 call	 ??0ioBlockDBItem@@QAE@ABV0@@Z
$LN7@Cons_val@3:

; 281  : 	}

  00012	5d		 pop	 ebp
  00013	c3		 ret	 0
