; Listing generated by Microsoft (R) Optimizing Compiler Version 16.00.30319.01 

	TITLE	D:\Lost Saga For Developer\Youtube\Tutorial\Source\src\LSClient\GUI\ioUserInfoMgr.cpp
	.686P
	.XMM
	include listing.inc
	.model	flat

INCLUDELIB MSVCRT
INCLUDELIB OLDNAMES

PUBLIC	?ms_Singleton@?$Singleton@VioUserInfoMgr@@@@1PAVioUserInfoMgr@@A ; Singleton<ioUserInfoMgr>::ms_Singleton
;	COMDAT ?ms_Singleton@?$Singleton@VioUserInfoMgr@@@@1PAVioUserInfoMgr@@A
_BSS	SEGMENT
?ms_Singleton@?$Singleton@VioUserInfoMgr@@@@1PAVioUserInfoMgr@@A DD 01H DUP (?) ; Singleton<ioUserInfoMgr>::ms_Singleton
_BSS	ENDS
PUBLIC	?return5@@YAIXZ					; return5
; Function compile flags: /Ogsp
; File d:\lost saga for developer\youtube\tutorial\source\src\lsclient\stdafx.h
;	COMDAT ?return5@@YAIXZ
_TEXT	SEGMENT
?return5@@YAIXZ PROC					; return5, COMDAT

; 18   : 	__forceinline unsigned int return5() { __asm mov eax, 5 };

  00000	b8 05 00 00 00	 mov	 eax, 5
  00005	c3		 ret	 0
?return5@@YAIXZ ENDP					; return5
_TEXT	ENDS
PUBLIC	?return10@@YAIXZ				; return10
; Function compile flags: /Ogsp
;	COMDAT ?return10@@YAIXZ
_TEXT	SEGMENT
?return10@@YAIXZ PROC					; return10, COMDAT

; 21   : 	__forceinline unsigned int return10() { __asm mov eax, 10 };

  00000	b8 0a 00 00 00	 mov	 eax, 10			; 0000000aH
  00005	c3		 ret	 0
?return10@@YAIXZ ENDP					; return10
_TEXT	ENDS
PUBLIC	?return100@@YAIXZ				; return100
; Function compile flags: /Ogsp
;	COMDAT ?return100@@YAIXZ
_TEXT	SEGMENT
?return100@@YAIXZ PROC					; return100, COMDAT

; 25   : 	__forceinline unsigned int return100() { __asm mov eax, 100 };

  00000	b8 64 00 00 00	 mov	 eax, 100		; 00000064H
  00005	c3		 ret	 0
?return100@@YAIXZ ENDP					; return100
_TEXT	ENDS
PUBLIC	?SetLeaderMotion@UserInfoCharData@@QAEXK@Z	; UserInfoCharData::SetLeaderMotion
; Function compile flags: /Ogsp
; File d:\lost saga for developer\youtube\tutorial\source\src\lsclient\gui\iouserinfomgr.cpp
;	COMDAT ?SetLeaderMotion@UserInfoCharData@@QAEXK@Z
_TEXT	SEGMENT
_dwEtcItem$ = 8						; size = 4
?SetLeaderMotion@UserInfoCharData@@QAEXK@Z PROC		; UserInfoCharData::SetLeaderMotion, COMDAT
; _this$ = ecx

; 207  : {

  00000	55		 push	 ebp
  00001	8b ec		 mov	 ebp, esp

; 208  : 	m_dwLeaderMotion = dwEtcItem;

  00003	8b 45 08	 mov	 eax, DWORD PTR _dwEtcItem$[ebp]
  00006	89 81 d4 03 00
	00		 mov	 DWORD PTR [ecx+980], eax

; 209  : 	m_LeaderCharData.m_dwMotionEtcItem = dwEtcItem;

  0000c	89 41 14	 mov	 DWORD PTR [ecx+20], eax

; 210  : 	m_LeaderCharData.m_bChangeData = true;

  0000f	c6 81 cc 03 00
	00 01		 mov	 BYTE PTR [ecx+972], 1

; 211  : }

  00016	5d		 pop	 ebp
  00017	c2 04 00	 ret	 4
?SetLeaderMotion@UserInfoCharData@@QAEXK@Z ENDP		; UserInfoCharData::SetLeaderMotion
_TEXT	ENDS
PUBLIC	?GetMaxChar@UserInfoCharData@@QAEHXZ		; UserInfoCharData::GetMaxChar
; Function compile flags: /Ogsp
;	COMDAT ?GetMaxChar@UserInfoCharData@@QAEHXZ
_TEXT	SEGMENT
?GetMaxChar@UserInfoCharData@@QAEHXZ PROC		; UserInfoCharData::GetMaxChar, COMDAT
; _this$ = ecx

; 250  : 	return m_iMaxVirtualCharCount;

  00000	8b 81 e0 03 00
	00		 mov	 eax, DWORD PTR [ecx+992]

; 251  : }

  00006	c3		 ret	 0
?GetMaxChar@UserInfoCharData@@QAEHXZ ENDP		; UserInfoCharData::GetMaxChar
_TEXT	ENDS
PUBLIC	??_7bad_alloc@std@@6B@				; std::bad_alloc::`vftable'
PUBLIC	??0bad_alloc@std@@QAE@PBD@Z			; std::bad_alloc::bad_alloc
PUBLIC	??_R4bad_alloc@std@@6B@				; std::bad_alloc::`RTTI Complete Object Locator'
PUBLIC	??_R0?AVbad_alloc@std@@@8			; std::bad_alloc `RTTI Type Descriptor'
PUBLIC	??_R3bad_alloc@std@@8				; std::bad_alloc::`RTTI Class Hierarchy Descriptor'
PUBLIC	??_R2bad_alloc@std@@8				; std::bad_alloc::`RTTI Base Class Array'
PUBLIC	??_R1A@?0A@EA@bad_alloc@std@@8			; std::bad_alloc::`RTTI Base Class Descriptor at (0,-1,0,64)'
PUBLIC	??_R1A@?0A@EA@exception@std@@8			; std::exception::`RTTI Base Class Descriptor at (0,-1,0,64)'
PUBLIC	??_R0?AVexception@std@@@8			; std::exception `RTTI Type Descriptor'
PUBLIC	??_R3exception@std@@8				; std::exception::`RTTI Class Hierarchy Descriptor'
PUBLIC	??_R2exception@std@@8				; std::exception::`RTTI Base Class Array'
EXTRN	__imp_??0exception@std@@QAE@ABQBD@Z:PROC
EXTRN	??_7type_info@@6B@:QWORD			; type_info::`vftable'
EXTRN	??_Ebad_alloc@std@@UAEPAXI@Z:PROC		; std::bad_alloc::`vector deleting destructor'
EXTRN	?what@exception@std@@UBEPBDXZ:PROC		; std::exception::what
;	COMDAT ??_R2exception@std@@8
; File c:\program files (x86)\microsoft visual studio 10.0\vc\include\exception
rdata$r	SEGMENT
??_R2exception@std@@8 DD FLAT:??_R1A@?0A@EA@exception@std@@8 ; std::exception::`RTTI Base Class Array'
rdata$r	ENDS
;	COMDAT ??_R3exception@std@@8
rdata$r	SEGMENT
??_R3exception@std@@8 DD 00H				; std::exception::`RTTI Class Hierarchy Descriptor'
	DD	00H
	DD	01H
	DD	FLAT:??_R2exception@std@@8
rdata$r	ENDS
;	COMDAT ??_R0?AVexception@std@@@8
_DATA	SEGMENT
??_R0?AVexception@std@@@8 DD FLAT:??_7type_info@@6B@	; std::exception `RTTI Type Descriptor'
	DD	00H
	DB	'.?AVexception@std@@', 00H
_DATA	ENDS
;	COMDAT ??_R1A@?0A@EA@exception@std@@8
rdata$r	SEGMENT
??_R1A@?0A@EA@exception@std@@8 DD FLAT:??_R0?AVexception@std@@@8 ; std::exception::`RTTI Base Class Descriptor at (0,-1,0,64)'
	DD	00H
	DD	00H
	DD	0ffffffffH
	DD	00H
	DD	040H
	DD	FLAT:??_R3exception@std@@8
rdata$r	ENDS
;	COMDAT ??_R1A@?0A@EA@bad_alloc@std@@8
rdata$r	SEGMENT
??_R1A@?0A@EA@bad_alloc@std@@8 DD FLAT:??_R0?AVbad_alloc@std@@@8 ; std::bad_alloc::`RTTI Base Class Descriptor at (0,-1,0,64)'
	DD	01H
	DD	00H
	DD	0ffffffffH
	DD	00H
	DD	040H
	DD	FLAT:??_R3bad_alloc@std@@8
rdata$r	ENDS
;	COMDAT ??_R2bad_alloc@std@@8
rdata$r	SEGMENT
??_R2bad_alloc@std@@8 DD FLAT:??_R1A@?0A@EA@bad_alloc@std@@8 ; std::bad_alloc::`RTTI Base Class Array'
	DD	FLAT:??_R1A@?0A@EA@exception@std@@8
rdata$r	ENDS
;	COMDAT ??_R3bad_alloc@std@@8
rdata$r	SEGMENT
??_R3bad_alloc@std@@8 DD 00H				; std::bad_alloc::`RTTI Class Hierarchy Descriptor'
	DD	00H
	DD	02H
	DD	FLAT:??_R2bad_alloc@std@@8
rdata$r	ENDS
;	COMDAT ??_R0?AVbad_alloc@std@@@8
_DATA	SEGMENT
??_R0?AVbad_alloc@std@@@8 DD FLAT:??_7type_info@@6B@	; std::bad_alloc `RTTI Type Descriptor'
	DD	00H
	DB	'.?AVbad_alloc@std@@', 00H
_DATA	ENDS
;	COMDAT ??_R4bad_alloc@std@@6B@
rdata$r	SEGMENT
??_R4bad_alloc@std@@6B@ DD 00H				; std::bad_alloc::`RTTI Complete Object Locator'
	DD	00H
	DD	00H
	DD	FLAT:??_R0?AVbad_alloc@std@@@8
	DD	FLAT:??_R3bad_alloc@std@@8
rdata$r	ENDS
;	COMDAT ??_7bad_alloc@std@@6B@
CONST	SEGMENT
??_7bad_alloc@std@@6B@ DD FLAT:??_R4bad_alloc@std@@6B@	; std::bad_alloc::`vftable'
	DD	FLAT:??_Ebad_alloc@std@@UAEPAXI@Z
	DD	FLAT:?what@exception@std@@UBEPBDXZ
; Function compile flags: /Ogsp
CONST	ENDS
;	COMDAT ??0bad_alloc@std@@QAE@PBD@Z
_TEXT	SEGMENT
__Message$ = 8						; size = 4
??0bad_alloc@std@@QAE@PBD@Z PROC			; std::bad_alloc::bad_alloc, COMDAT
; _this$ = ecx

; 345  : 		{	// construct from message string

  00000	55		 push	 ebp
  00001	8b ec		 mov	 ebp, esp
  00003	56		 push	 esi
  00004	8d 45 08	 lea	 eax, DWORD PTR __Message$[ebp]
  00007	50		 push	 eax
  00008	8b f1		 mov	 esi, ecx
  0000a	ff 15 00 00 00
	00		 call	 DWORD PTR __imp_??0exception@std@@QAE@ABQBD@Z
  00010	c7 06 00 00 00
	00		 mov	 DWORD PTR [esi], OFFSET ??_7bad_alloc@std@@6B@

; 346  : 		}

  00016	8b c6		 mov	 eax, esi
  00018	5e		 pop	 esi
  00019	5d		 pop	 ebp
  0001a	c2 04 00	 ret	 4
??0bad_alloc@std@@QAE@PBD@Z ENDP			; std::bad_alloc::bad_alloc
_TEXT	ENDS
PUBLIC	??1bad_alloc@std@@UAE@XZ			; std::bad_alloc::~bad_alloc
EXTRN	__imp_??1exception@std@@UAE@XZ:PROC
; Function compile flags: /Ogsp
;	COMDAT ??1bad_alloc@std@@UAE@XZ
_TEXT	SEGMENT
??1bad_alloc@std@@UAE@XZ PROC				; std::bad_alloc::~bad_alloc, COMDAT
; _this$ = ecx

; 354  : 		{	// destroy the object

  00000	c7 01 00 00 00
	00		 mov	 DWORD PTR [ecx], OFFSET ??_7bad_alloc@std@@6B@

; 355  : 		}

  00006	ff 25 00 00 00
	00		 jmp	 DWORD PTR __imp_??1exception@std@@UAE@XZ
??1bad_alloc@std@@UAE@XZ ENDP				; std::bad_alloc::~bad_alloc
_TEXT	ENDS
EXTRN	??3@YAXPAX@Z:PROC				; operator delete
; Function compile flags: /Ogsp
;	COMDAT ??_Gbad_alloc@std@@UAEPAXI@Z
_TEXT	SEGMENT
___flags$ = 8						; size = 4
??_Gbad_alloc@std@@UAEPAXI@Z PROC			; std::bad_alloc::`scalar deleting destructor', COMDAT
; _this$ = ecx
  00000	55		 push	 ebp
  00001	8b ec		 mov	 ebp, esp
  00003	56		 push	 esi
  00004	8b f1		 mov	 esi, ecx
  00006	c7 06 00 00 00
	00		 mov	 DWORD PTR [esi], OFFSET ??_7bad_alloc@std@@6B@
  0000c	ff 15 00 00 00
	00		 call	 DWORD PTR __imp_??1exception@std@@UAE@XZ
  00012	f6 45 08 01	 test	 BYTE PTR ___flags$[ebp], 1
  00016	74 07		 je	 SHORT $LN1@scalar
  00018	56		 push	 esi
  00019	e8 00 00 00 00	 call	 ??3@YAXPAX@Z		; operator delete
  0001e	59		 pop	 ecx
$LN1@scalar:
  0001f	8b c6		 mov	 eax, esi
  00021	5e		 pop	 esi
  00022	5d		 pop	 ebp
  00023	c2 04 00	 ret	 4
??_Gbad_alloc@std@@UAEPAXI@Z ENDP			; std::bad_alloc::`scalar deleting destructor'
_TEXT	ENDS
PUBLIC	??2@YAPAXIPAX@Z					; operator new
; Function compile flags: /Ogsp
; File c:\program files (x86)\microsoft visual studio 10.0\vc\include\new
;	COMDAT ??2@YAPAXIPAX@Z
_TEXT	SEGMENT
___formal$ = 8						; size = 4
__Where$ = 12						; size = 4
??2@YAPAXIPAX@Z PROC					; operator new, COMDAT

; 56   : 	{	// construct array with placement at _Where

  00000	55		 push	 ebp
  00001	8b ec		 mov	 ebp, esp

; 57   : 	return (_Where);

  00003	8b 45 0c	 mov	 eax, DWORD PTR __Where$[ebp]

; 58   : 	}

  00006	5d		 pop	 ebp
  00007	c3		 ret	 0
??2@YAPAXIPAX@Z ENDP					; operator new
_TEXT	ENDS
PUBLIC	??3@YAXPAX0@Z					; operator delete
; Function compile flags: /Ogsp
;	COMDAT ??3@YAXPAX0@Z
_TEXT	SEGMENT
___formal$ = 8						; size = 4
___formal$ = 12						; size = 4
??3@YAXPAX0@Z PROC					; operator delete, COMDAT

; 62   : 	}

  00000	c3		 ret	 0
??3@YAXPAX0@Z ENDP					; operator delete
_TEXT	ENDS
PUBLIC	__real@4f800000
PUBLIC	?GetPartyExp@UserInfoNode@@QAEHXZ		; UserInfoNode::GetPartyExp
EXTRN	?GetNextPartyupExp@ioMyLevelMgr@@QAE_JH@Z:PROC	; ioMyLevelMgr::GetNextPartyupExp
EXTRN	?GetSingleton@ioMyLevelMgr@@SAAAV1@XZ:PROC	; ioMyLevelMgr::GetSingleton
EXTRN	__fltused:DWORD
EXTRN	__ftol2_sse:PROC
;	COMDAT __real@4f800000
; File d:\lost saga for developer\youtube\tutorial\source\src\lsclient\stdafx.h
CONST	SEGMENT
__real@4f800000 DD 04f800000r			; 4.29497e+009
; Function compile flags: /Ogsp
; File d:\lost saga for developer\youtube\tutorial\source\src\lsclient\gui\iouserinfomgr.cpp
CONST	ENDS
;	COMDAT ?GetPartyExp@UserInfoNode@@QAEHXZ
_TEXT	SEGMENT
tv151 = -16						; size = 8
_iPrevExp$ = -16					; size = 8
tv153 = -12						; size = 4
tv135 = -12						; size = 4
_iNeedExp$ = -8						; size = 8
_fRate$514125 = -4					; size = 4
?GetPartyExp@UserInfoNode@@QAEHXZ PROC			; UserInfoNode::GetPartyExp, COMDAT
; _this$ = ecx

; 558  : {

  00000	55		 push	 ebp
  00001	8b ec		 mov	 ebp, esp
  00003	83 ec 10	 sub	 esp, 16			; 00000010H
  00006	53		 push	 ebx

; 559  : 	int iTmpLevel     = m_iPartyLevel;

  00007	8b 59 20	 mov	 ebx, DWORD PTR [ecx+32]
  0000a	56		 push	 esi

; 560  : 	__int64 iTmpExp   = m_iPartyExp;

  0000b	8b 71 28	 mov	 esi, DWORD PTR [ecx+40]
  0000e	57		 push	 edi
  0000f	8b 79 2c	 mov	 edi, DWORD PTR [ecx+44]

; 561  : 
; 562  : 	__int64 iPrevExp = g_LevelMgr.GetNextPartyupExp( iTmpLevel - 1 );

  00012	8d 43 ff	 lea	 eax, DWORD PTR [ebx-1]
  00015	50		 push	 eax
  00016	e8 00 00 00 00	 call	 ?GetSingleton@ioMyLevelMgr@@SAAAV1@XZ ; ioMyLevelMgr::GetSingleton
  0001b	8b c8		 mov	 ecx, eax
  0001d	e8 00 00 00 00	 call	 ?GetNextPartyupExp@ioMyLevelMgr@@QAE_JH@Z ; ioMyLevelMgr::GetNextPartyupExp

; 563  : 	__int64 iNeedExp = g_LevelMgr.GetNextPartyupExp( iTmpLevel ) - iPrevExp;

  00022	53		 push	 ebx
  00023	89 45 f0	 mov	 DWORD PTR _iPrevExp$[ebp], eax
  00026	89 55 f4	 mov	 DWORD PTR _iPrevExp$[ebp+4], edx
  00029	e8 00 00 00 00	 call	 ?GetSingleton@ioMyLevelMgr@@SAAAV1@XZ ; ioMyLevelMgr::GetSingleton
  0002e	8b c8		 mov	 ecx, eax
  00030	e8 00 00 00 00	 call	 ?GetNextPartyupExp@ioMyLevelMgr@@QAE_JH@Z ; ioMyLevelMgr::GetNextPartyupExp
  00035	2b 45 f0	 sub	 eax, DWORD PTR _iPrevExp$[ebp]
  00038	1b 55 f4	 sbb	 edx, DWORD PTR _iPrevExp$[ebp+4]
  0003b	89 45 f8	 mov	 DWORD PTR _iNeedExp$[ebp], eax
  0003e	89 55 fc	 mov	 DWORD PTR _iNeedExp$[ebp+4], edx

; 564  : 
; 565  : 	if( iNeedExp > 0 )

  00041	78 63		 js	 SHORT $LN1@GetPartyEx
  00043	7f 04		 jg	 SHORT $LN10@GetPartyEx
  00045	85 c0		 test	 eax, eax
  00047	74 5d		 je	 SHORT $LN1@GetPartyEx
$LN10@GetPartyEx:

; 566  : 	{
; 567  : 		__int64 iCurExp = ( iTmpExp - iPrevExp );

  00049	2b 75 f0	 sub	 esi, DWORD PTR _iPrevExp$[ebp]
  0004c	1b 7d f4	 sbb	 edi, DWORD PTR _iPrevExp$[ebp+4]

; 568  : 		float fRate = (float)iCurExp / (float)iNeedExp;

  0004f	89 75 f0	 mov	 DWORD PTR tv151[ebp], esi
  00052	89 7d f4	 mov	 DWORD PTR tv151[ebp+4], edi
  00055	df 6d f0	 fild	 QWORD PTR tv151[ebp]
  00058	df 6d f8	 fild	 QWORD PTR _iNeedExp$[ebp]
  0005b	de f9		 fdivp	 ST(1), ST(0)
  0005d	d9 5d fc	 fstp	 DWORD PTR _fRate$514125[ebp]

; 569  : 
; 570  : 		return min( 99, (int)( FLOAT100 * fRate ) );

  00060	b8 64 00 00 00	 mov	 eax, 100		; 00000064H
  00065	89 45 f4	 mov	 DWORD PTR tv135[ebp], eax
  00068	db 45 f4	 fild	 DWORD PTR tv135[ebp]
  0006b	85 c0		 test	 eax, eax
  0006d	79 06		 jns	 SHORT $LN11@GetPartyEx
  0006f	d8 05 00 00 00
	00		 fadd	 DWORD PTR __real@4f800000
$LN11@GetPartyEx:
  00075	d8 4d fc	 fmul	 DWORD PTR _fRate$514125[ebp]
  00078	e8 00 00 00 00	 call	 __ftol2_sse
  0007d	83 f8 63	 cmp	 eax, 99			; 00000063H
  00080	7e 05		 jle	 SHORT $LN4@GetPartyEx
  00082	6a 63		 push	 99			; 00000063H
  00084	58		 pop	 eax
  00085	eb 21		 jmp	 SHORT $LN2@GetPartyEx
$LN4@GetPartyEx:
  00087	b8 64 00 00 00	 mov	 eax, 100		; 00000064H
  0008c	89 45 f4	 mov	 DWORD PTR tv153[ebp], eax
  0008f	db 45 f4	 fild	 DWORD PTR tv153[ebp]
  00092	85 c0		 test	 eax, eax
  00094	79 06		 jns	 SHORT $LN12@GetPartyEx
  00096	d8 05 00 00 00
	00		 fadd	 DWORD PTR __real@4f800000
$LN12@GetPartyEx:
  0009c	d8 4d fc	 fmul	 DWORD PTR _fRate$514125[ebp]
  0009f	e8 00 00 00 00	 call	 __ftol2_sse
  000a4	eb 02		 jmp	 SHORT $LN2@GetPartyEx
$LN1@GetPartyEx:

; 571  : 	}
; 572  : 	return 0;

  000a6	33 c0		 xor	 eax, eax
$LN2@GetPartyEx:
  000a8	5f		 pop	 edi
  000a9	5e		 pop	 esi
  000aa	5b		 pop	 ebx

; 573  : }

  000ab	c9		 leave
  000ac	c3		 ret	 0
?GetPartyExp@UserInfoNode@@QAEHXZ ENDP			; UserInfoNode::GetPartyExp
_TEXT	ENDS
PUBLIC	?GetLadderExp@UserInfoNode@@QAEHXZ		; UserInfoNode::GetLadderExp
EXTRN	?GetNextLadderupExp@ioMyLevelMgr@@QAE_JH@Z:PROC	; ioMyLevelMgr::GetNextLadderupExp
; Function compile flags: /Ogsp
;	COMDAT ?GetLadderExp@UserInfoNode@@QAEHXZ
_TEXT	SEGMENT
tv151 = -16						; size = 8
_iPrevExp$ = -16					; size = 8
tv153 = -12						; size = 4
tv135 = -12						; size = 4
_iNeedExp$ = -8						; size = 8
_fRate$514141 = -4					; size = 4
?GetLadderExp@UserInfoNode@@QAEHXZ PROC			; UserInfoNode::GetLadderExp, COMDAT
; _this$ = ecx

; 576  : {

  00000	55		 push	 ebp
  00001	8b ec		 mov	 ebp, esp
  00003	83 ec 10	 sub	 esp, 16			; 00000010H
  00006	53		 push	 ebx

; 577  : 	int iTmpLevel     = m_iLadderLevel;

  00007	8b 59 30	 mov	 ebx, DWORD PTR [ecx+48]
  0000a	56		 push	 esi

; 578  : 	__int64 iTmpExp   = m_iLadderExp;

  0000b	8b 71 38	 mov	 esi, DWORD PTR [ecx+56]
  0000e	57		 push	 edi
  0000f	8b 79 3c	 mov	 edi, DWORD PTR [ecx+60]

; 579  : 
; 580  : 	__int64 iPrevExp = g_LevelMgr.GetNextLadderupExp( iTmpLevel - 1 );

  00012	8d 43 ff	 lea	 eax, DWORD PTR [ebx-1]
  00015	50		 push	 eax
  00016	e8 00 00 00 00	 call	 ?GetSingleton@ioMyLevelMgr@@SAAAV1@XZ ; ioMyLevelMgr::GetSingleton
  0001b	8b c8		 mov	 ecx, eax
  0001d	e8 00 00 00 00	 call	 ?GetNextLadderupExp@ioMyLevelMgr@@QAE_JH@Z ; ioMyLevelMgr::GetNextLadderupExp

; 581  : 	__int64 iNeedExp = g_LevelMgr.GetNextLadderupExp( iTmpLevel ) - iPrevExp;

  00022	53		 push	 ebx
  00023	89 45 f0	 mov	 DWORD PTR _iPrevExp$[ebp], eax
  00026	89 55 f4	 mov	 DWORD PTR _iPrevExp$[ebp+4], edx
  00029	e8 00 00 00 00	 call	 ?GetSingleton@ioMyLevelMgr@@SAAAV1@XZ ; ioMyLevelMgr::GetSingleton
  0002e	8b c8		 mov	 ecx, eax
  00030	e8 00 00 00 00	 call	 ?GetNextLadderupExp@ioMyLevelMgr@@QAE_JH@Z ; ioMyLevelMgr::GetNextLadderupExp
  00035	2b 45 f0	 sub	 eax, DWORD PTR _iPrevExp$[ebp]
  00038	1b 55 f4	 sbb	 edx, DWORD PTR _iPrevExp$[ebp+4]
  0003b	89 45 f8	 mov	 DWORD PTR _iNeedExp$[ebp], eax
  0003e	89 55 fc	 mov	 DWORD PTR _iNeedExp$[ebp+4], edx

; 582  : 
; 583  : 	if( iNeedExp > 0 )

  00041	78 63		 js	 SHORT $LN1@GetLadderE
  00043	7f 04		 jg	 SHORT $LN10@GetLadderE
  00045	85 c0		 test	 eax, eax
  00047	74 5d		 je	 SHORT $LN1@GetLadderE
$LN10@GetLadderE:

; 584  : 	{
; 585  : 		__int64 iCurExp = ( iTmpExp - iPrevExp );

  00049	2b 75 f0	 sub	 esi, DWORD PTR _iPrevExp$[ebp]
  0004c	1b 7d f4	 sbb	 edi, DWORD PTR _iPrevExp$[ebp+4]

; 586  : 		float fRate = (float)iCurExp / (float)iNeedExp;

  0004f	89 75 f0	 mov	 DWORD PTR tv151[ebp], esi
  00052	89 7d f4	 mov	 DWORD PTR tv151[ebp+4], edi
  00055	df 6d f0	 fild	 QWORD PTR tv151[ebp]
  00058	df 6d f8	 fild	 QWORD PTR _iNeedExp$[ebp]
  0005b	de f9		 fdivp	 ST(1), ST(0)
  0005d	d9 5d fc	 fstp	 DWORD PTR _fRate$514141[ebp]

; 587  : 
; 588  : 		return min( 99, (int)( FLOAT100 * fRate ) );

  00060	b8 64 00 00 00	 mov	 eax, 100		; 00000064H
  00065	89 45 f4	 mov	 DWORD PTR tv135[ebp], eax
  00068	db 45 f4	 fild	 DWORD PTR tv135[ebp]
  0006b	85 c0		 test	 eax, eax
  0006d	79 06		 jns	 SHORT $LN11@GetLadderE
  0006f	d8 05 00 00 00
	00		 fadd	 DWORD PTR __real@4f800000
$LN11@GetLadderE:
  00075	d8 4d fc	 fmul	 DWORD PTR _fRate$514141[ebp]
  00078	e8 00 00 00 00	 call	 __ftol2_sse
  0007d	83 f8 63	 cmp	 eax, 99			; 00000063H
  00080	7e 05		 jle	 SHORT $LN4@GetLadderE
  00082	6a 63		 push	 99			; 00000063H
  00084	58		 pop	 eax
  00085	eb 21		 jmp	 SHORT $LN2@GetLadderE
$LN4@GetLadderE:
  00087	b8 64 00 00 00	 mov	 eax, 100		; 00000064H
  0008c	89 45 f4	 mov	 DWORD PTR tv153[ebp], eax
  0008f	db 45 f4	 fild	 DWORD PTR tv153[ebp]
  00092	85 c0		 test	 eax, eax
  00094	79 06		 jns	 SHORT $LN12@GetLadderE
  00096	d8 05 00 00 00
	00		 fadd	 DWORD PTR __real@4f800000
$LN12@GetLadderE:
  0009c	d8 4d fc	 fmul	 DWORD PTR _fRate$514141[ebp]
  0009f	e8 00 00 00 00	 call	 __ftol2_sse
  000a4	eb 02		 jmp	 SHORT $LN2@GetLadderE
$LN1@GetLadderE:

; 589  : 	}
; 590  : 	return 0;

  000a6	33 c0		 xor	 eax, eax
$LN2@GetLadderE:
  000a8	5f		 pop	 edi
  000a9	5e		 pop	 esi
  000aa	5b		 pop	 ebx

; 591  : }

  000ab	c9		 leave
  000ac	c3		 ret	 0
?GetLadderExp@UserInfoNode@@QAEHXZ ENDP			; UserInfoNode::GetLadderExp
_TEXT	ENDS
PUBLIC	?GetAwardExp@UserInfoNode@@QAEHXZ		; UserInfoNode::GetAwardExp
EXTRN	?GetNextAwardupExp@ioMyLevelMgr@@QAEHH@Z:PROC	; ioMyLevelMgr::GetNextAwardupExp
; Function compile flags: /Ogsp
;	COMDAT ?GetAwardExp@UserInfoNode@@QAEHXZ
_TEXT	SEGMENT
tv171 = -8						; size = 4
tv163 = -8						; size = 4
_fRate$514153 = -4					; size = 4
_iNextExp$ = -4						; size = 4
?GetAwardExp@UserInfoNode@@QAEHXZ PROC			; UserInfoNode::GetAwardExp, COMDAT
; _this$ = ecx

; 594  : {

  00000	55		 push	 ebp
  00001	8b ec		 mov	 ebp, esp
  00003	51		 push	 ecx
  00004	51		 push	 ecx
  00005	56		 push	 esi
  00006	8b f1		 mov	 esi, ecx

; 595  : 	int iNextExp = g_LevelMgr.GetNextAwardupExp( m_iAwardLevel );

  00008	ff 76 40	 push	 DWORD PTR [esi+64]
  0000b	e8 00 00 00 00	 call	 ?GetSingleton@ioMyLevelMgr@@SAAAV1@XZ ; ioMyLevelMgr::GetSingleton
  00010	8b c8		 mov	 ecx, eax
  00012	e8 00 00 00 00	 call	 ?GetNextAwardupExp@ioMyLevelMgr@@QAEHH@Z ; ioMyLevelMgr::GetNextAwardupExp
  00017	89 45 fc	 mov	 DWORD PTR _iNextExp$[ebp], eax

; 596  : 	if( iNextExp > 0 )

  0001a	85 c0		 test	 eax, eax
  0001c	7e 4f		 jle	 SHORT $LN1@GetAwardEx

; 597  : 	{
; 598  : 		float fRate = (float)m_iAwardExp / (float)iNextExp;

  0001e	db 46 44	 fild	 DWORD PTR [esi+68]
  00021	da 75 fc	 fidiv	 DWORD PTR _iNextExp$[ebp]
  00024	d9 5d fc	 fstp	 DWORD PTR _fRate$514153[ebp]

; 599  : 		return min( 99, (int)( FLOAT100 * fRate ) );

  00027	b8 64 00 00 00	 mov	 eax, 100		; 00000064H
  0002c	89 45 f8	 mov	 DWORD PTR tv171[ebp], eax
  0002f	db 45 f8	 fild	 DWORD PTR tv171[ebp]
  00032	85 c0		 test	 eax, eax
  00034	79 06		 jns	 SHORT $LN10@GetAwardEx
  00036	d8 05 00 00 00
	00		 fadd	 DWORD PTR __real@4f800000
$LN10@GetAwardEx:
  0003c	d8 4d fc	 fmul	 DWORD PTR _fRate$514153[ebp]
  0003f	e8 00 00 00 00	 call	 __ftol2_sse
  00044	83 f8 63	 cmp	 eax, 99			; 00000063H
  00047	7e 05		 jle	 SHORT $LN4@GetAwardEx
  00049	6a 63		 push	 99			; 00000063H
  0004b	58		 pop	 eax
  0004c	eb 21		 jmp	 SHORT $LN2@GetAwardEx
$LN4@GetAwardEx:
  0004e	b8 64 00 00 00	 mov	 eax, 100		; 00000064H
  00053	89 45 f8	 mov	 DWORD PTR tv163[ebp], eax
  00056	db 45 f8	 fild	 DWORD PTR tv163[ebp]
  00059	85 c0		 test	 eax, eax
  0005b	79 06		 jns	 SHORT $LN11@GetAwardEx
  0005d	d8 05 00 00 00
	00		 fadd	 DWORD PTR __real@4f800000
$LN11@GetAwardEx:
  00063	d8 4d fc	 fmul	 DWORD PTR _fRate$514153[ebp]
  00066	e8 00 00 00 00	 call	 __ftol2_sse
  0006b	eb 02		 jmp	 SHORT $LN2@GetAwardEx
$LN1@GetAwardEx:

; 600  : 	}
; 601  : 	return 0;

  0006d	33 c0		 xor	 eax, eax
$LN2@GetAwardEx:
  0006f	5e		 pop	 esi

; 602  : }

  00070	c9		 leave
  00071	c3		 ret	 0
?GetAwardExp@UserInfoNode@@QAEHXZ ENDP			; UserInfoNode::GetAwardExp
_TEXT	ENDS
PUBLIC	?GetFishingExp@UserInfoNode@@QAEHXZ		; UserInfoNode::GetFishingExp
EXTRN	?GetNextFishingLevelUpExp@ioMyLevelMgr@@QAEHH@Z:PROC ; ioMyLevelMgr::GetNextFishingLevelUpExp
; Function compile flags: /Ogsp
;	COMDAT ?GetFishingExp@UserInfoNode@@QAEHXZ
_TEXT	SEGMENT
tv171 = -8						; size = 4
tv163 = -8						; size = 4
_fRate$514165 = -4					; size = 4
_iNextExp$ = -4						; size = 4
?GetFishingExp@UserInfoNode@@QAEHXZ PROC		; UserInfoNode::GetFishingExp, COMDAT
; _this$ = ecx

; 605  : {

  00000	55		 push	 ebp
  00001	8b ec		 mov	 ebp, esp
  00003	51		 push	 ecx
  00004	51		 push	 ecx
  00005	56		 push	 esi
  00006	8b f1		 mov	 esi, ecx

; 606  : 	int iNextExp = g_LevelMgr.GetNextFishingLevelUpExp( m_iFishingLevel );

  00008	ff 76 4c	 push	 DWORD PTR [esi+76]
  0000b	e8 00 00 00 00	 call	 ?GetSingleton@ioMyLevelMgr@@SAAAV1@XZ ; ioMyLevelMgr::GetSingleton
  00010	8b c8		 mov	 ecx, eax
  00012	e8 00 00 00 00	 call	 ?GetNextFishingLevelUpExp@ioMyLevelMgr@@QAEHH@Z ; ioMyLevelMgr::GetNextFishingLevelUpExp
  00017	89 45 fc	 mov	 DWORD PTR _iNextExp$[ebp], eax

; 607  : 	if( iNextExp > 0 )

  0001a	85 c0		 test	 eax, eax
  0001c	7e 4f		 jle	 SHORT $LN1@GetFishing

; 608  : 	{
; 609  : 		float fRate = (float)m_iFishingExpert / (float)iNextExp;

  0001e	db 46 50	 fild	 DWORD PTR [esi+80]
  00021	da 75 fc	 fidiv	 DWORD PTR _iNextExp$[ebp]
  00024	d9 5d fc	 fstp	 DWORD PTR _fRate$514165[ebp]

; 610  : 		return min( 99, (int)( FLOAT100 * fRate ) );

  00027	b8 64 00 00 00	 mov	 eax, 100		; 00000064H
  0002c	89 45 f8	 mov	 DWORD PTR tv171[ebp], eax
  0002f	db 45 f8	 fild	 DWORD PTR tv171[ebp]
  00032	85 c0		 test	 eax, eax
  00034	79 06		 jns	 SHORT $LN10@GetFishing
  00036	d8 05 00 00 00
	00		 fadd	 DWORD PTR __real@4f800000
$LN10@GetFishing:
  0003c	d8 4d fc	 fmul	 DWORD PTR _fRate$514165[ebp]
  0003f	e8 00 00 00 00	 call	 __ftol2_sse
  00044	83 f8 63	 cmp	 eax, 99			; 00000063H
  00047	7e 05		 jle	 SHORT $LN4@GetFishing
  00049	6a 63		 push	 99			; 00000063H
  0004b	58		 pop	 eax
  0004c	eb 21		 jmp	 SHORT $LN2@GetFishing
$LN4@GetFishing:
  0004e	b8 64 00 00 00	 mov	 eax, 100		; 00000064H
  00053	89 45 f8	 mov	 DWORD PTR tv163[ebp], eax
  00056	db 45 f8	 fild	 DWORD PTR tv163[ebp]
  00059	85 c0		 test	 eax, eax
  0005b	79 06		 jns	 SHORT $LN11@GetFishing
  0005d	d8 05 00 00 00
	00		 fadd	 DWORD PTR __real@4f800000
$LN11@GetFishing:
  00063	d8 4d fc	 fmul	 DWORD PTR _fRate$514165[ebp]
  00066	e8 00 00 00 00	 call	 __ftol2_sse
  0006b	eb 02		 jmp	 SHORT $LN2@GetFishing
$LN1@GetFishing:

; 611  : 	}
; 612  : 	return 0;

  0006d	33 c0		 xor	 eax, eax
$LN2@GetFishing:
  0006f	5e		 pop	 esi

; 613  : }

  00070	c9		 leave
  00071	c3		 ret	 0
?GetFishingExp@UserInfoNode@@QAEHXZ ENDP		; UserInfoNode::GetFishingExp
_TEXT	ENDS
PUBLIC	?GetExcavationExp@UserInfoNode@@QAEHXZ		; UserInfoNode::GetExcavationExp
EXTRN	?GetNextExcavationLevelUpExp@ioMyLevelMgr@@QAEHH@Z:PROC ; ioMyLevelMgr::GetNextExcavationLevelUpExp
; Function compile flags: /Ogsp
;	COMDAT ?GetExcavationExp@UserInfoNode@@QAEHXZ
_TEXT	SEGMENT
tv171 = -8						; size = 4
tv163 = -8						; size = 4
_fRate$514177 = -4					; size = 4
_iNextExp$ = -4						; size = 4
?GetExcavationExp@UserInfoNode@@QAEHXZ PROC		; UserInfoNode::GetExcavationExp, COMDAT
; _this$ = ecx

; 616  : {

  00000	55		 push	 ebp
  00001	8b ec		 mov	 ebp, esp
  00003	51		 push	 ecx
  00004	51		 push	 ecx
  00005	56		 push	 esi
  00006	8b f1		 mov	 esi, ecx

; 617  : 	int iNextExp = g_LevelMgr.GetNextExcavationLevelUpExp( m_iExcavationLevel );

  00008	ff 76 54	 push	 DWORD PTR [esi+84]
  0000b	e8 00 00 00 00	 call	 ?GetSingleton@ioMyLevelMgr@@SAAAV1@XZ ; ioMyLevelMgr::GetSingleton
  00010	8b c8		 mov	 ecx, eax
  00012	e8 00 00 00 00	 call	 ?GetNextExcavationLevelUpExp@ioMyLevelMgr@@QAEHH@Z ; ioMyLevelMgr::GetNextExcavationLevelUpExp
  00017	89 45 fc	 mov	 DWORD PTR _iNextExp$[ebp], eax

; 618  : 	if( iNextExp > 0 )

  0001a	85 c0		 test	 eax, eax
  0001c	7e 4f		 jle	 SHORT $LN1@GetExcavat

; 619  : 	{
; 620  : 		float fRate = (float)m_iExcavationExpert / (float)iNextExp;

  0001e	db 46 58	 fild	 DWORD PTR [esi+88]
  00021	da 75 fc	 fidiv	 DWORD PTR _iNextExp$[ebp]
  00024	d9 5d fc	 fstp	 DWORD PTR _fRate$514177[ebp]

; 621  : 		return min( 99, (int)( FLOAT100 * fRate ) );

  00027	b8 64 00 00 00	 mov	 eax, 100		; 00000064H
  0002c	89 45 f8	 mov	 DWORD PTR tv171[ebp], eax
  0002f	db 45 f8	 fild	 DWORD PTR tv171[ebp]
  00032	85 c0		 test	 eax, eax
  00034	79 06		 jns	 SHORT $LN10@GetExcavat
  00036	d8 05 00 00 00
	00		 fadd	 DWORD PTR __real@4f800000
$LN10@GetExcavat:
  0003c	d8 4d fc	 fmul	 DWORD PTR _fRate$514177[ebp]
  0003f	e8 00 00 00 00	 call	 __ftol2_sse
  00044	83 f8 63	 cmp	 eax, 99			; 00000063H
  00047	7e 05		 jle	 SHORT $LN4@GetExcavat
  00049	6a 63		 push	 99			; 00000063H
  0004b	58		 pop	 eax
  0004c	eb 21		 jmp	 SHORT $LN2@GetExcavat
$LN4@GetExcavat:
  0004e	b8 64 00 00 00	 mov	 eax, 100		; 00000064H
  00053	89 45 f8	 mov	 DWORD PTR tv163[ebp], eax
  00056	db 45 f8	 fild	 DWORD PTR tv163[ebp]
  00059	85 c0		 test	 eax, eax
  0005b	79 06		 jns	 SHORT $LN11@GetExcavat
  0005d	d8 05 00 00 00
	00		 fadd	 DWORD PTR __real@4f800000
$LN11@GetExcavat:
  00063	d8 4d fc	 fmul	 DWORD PTR _fRate$514177[ebp]
  00066	e8 00 00 00 00	 call	 __ftol2_sse
  0006b	eb 02		 jmp	 SHORT $LN2@GetExcavat
$LN1@GetExcavat:

; 622  : 	}
; 623  : 	return 0;

  0006d	33 c0		 xor	 eax, eax
$LN2@GetExcavat:
  0006f	5e		 pop	 esi

; 624  : }

  00070	c9		 leave
  00071	c3		 ret	 0
?GetExcavationExp@UserInfoNode@@QAEHXZ ENDP		; UserInfoNode::GetExcavationExp
_TEXT	ENDS
PUBLIC	?GetHeroRecordRate@UserInfoNode@@QAEMXZ		; UserInfoNode::GetHeroRecordRate
; Function compile flags: /Ogsp
;	COMDAT ?GetHeroRecordRate@UserInfoNode@@QAEMXZ
_TEXT	SEGMENT
tv140 = -8						; size = 4
tv133 = -8						; size = 4
tv73 = -4						; size = 4
?GetHeroRecordRate@UserInfoNode@@QAEMXZ PROC		; UserInfoNode::GetHeroRecordRate, COMDAT
; _this$ = ecx

; 627  : {

  00000	55		 push	 ebp
  00001	8b ec		 mov	 ebp, esp
  00003	51		 push	 ecx
  00004	51		 push	 ecx

; 628  : 	return (float)m_iHeroWin / (float)max( 1, m_iHeroWin + m_iHeroLose );

  00005	8b 41 5c	 mov	 eax, DWORD PTR [ecx+92]
  00008	8b 49 60	 mov	 ecx, DWORD PTR [ecx+96]
  0000b	89 45 f8	 mov	 DWORD PTR tv133[ebp], eax
  0000e	03 c1		 add	 eax, ecx
  00010	33 c9		 xor	 ecx, ecx
  00012	41		 inc	 ecx
  00013	89 4d fc	 mov	 DWORD PTR tv73[ebp], ecx
  00016	3b c1		 cmp	 eax, ecx
  00018	7c 03		 jl	 SHORT $LN4@GetHeroRec
  0001a	89 45 fc	 mov	 DWORD PTR tv73[ebp], eax
$LN4@GetHeroRec:
  0001d	db 45 f8	 fild	 DWORD PTR tv133[ebp]
  00020	da 75 fc	 fidiv	 DWORD PTR tv73[ebp]
  00023	d9 5d f8	 fstp	 DWORD PTR tv140[ebp]
  00026	d9 45 f8	 fld	 DWORD PTR tv140[ebp]

; 629  : }

  00029	c9		 leave
  0002a	c3		 ret	 0
?GetHeroRecordRate@UserInfoNode@@QAEMXZ ENDP		; UserInfoNode::GetHeroRecordRate
_TEXT	ENDS
PUBLIC	?SetUserID@UserInfoNode@@QAEXABVioHashString@@@Z ; UserInfoNode::SetUserID
EXTRN	__imp_??4ioHashString@@QAEAAV0@ABV0@@Z:PROC
; Function compile flags: /Ogsp
;	COMDAT ?SetUserID@UserInfoNode@@QAEXABVioHashString@@@Z
_TEXT	SEGMENT
_szUserID$ = 8						; size = 4
?SetUserID@UserInfoNode@@QAEXABVioHashString@@@Z PROC	; UserInfoNode::SetUserID, COMDAT
; _this$ = ecx

; 652  : {

  00000	55		 push	 ebp
  00001	8b ec		 mov	 ebp, esp

; 653  : 	m_UserID = szUserID;

  00003	83 c1 08	 add	 ecx, 8

; 654  : }

  00006	5d		 pop	 ebp

; 653  : 	m_UserID = szUserID;

  00007	ff 25 00 00 00
	00		 jmp	 DWORD PTR __imp_??4ioHashString@@QAEAAV0@ABV0@@Z
?SetUserID@UserInfoNode@@QAEXABVioHashString@@@Z ENDP	; UserInfoNode::SetUserID
_TEXT	ENDS
PUBLIC	?SetGrade@UserInfoNode@@QAEXHH@Z		; UserInfoNode::SetGrade
; Function compile flags: /Ogsp
;	COMDAT ?SetGrade@UserInfoNode@@QAEXHH@Z
_TEXT	SEGMENT
_iGradeLevel$ = 8					; size = 4
_iGradeExpPer$ = 12					; size = 4
?SetGrade@UserInfoNode@@QAEXHH@Z PROC			; UserInfoNode::SetGrade, COMDAT
; _this$ = ecx

; 657  : {

  00000	55		 push	 ebp
  00001	8b ec		 mov	 ebp, esp

; 658  : 	m_iGradeLevel = iGradeLevel;

  00003	8b 45 08	 mov	 eax, DWORD PTR _iGradeLevel$[ebp]
  00006	89 41 18	 mov	 DWORD PTR [ecx+24], eax

; 659  : 	m_iGradeExpPer= iGradeExpPer;	

  00009	8b 45 0c	 mov	 eax, DWORD PTR _iGradeExpPer$[ebp]
  0000c	89 41 1c	 mov	 DWORD PTR [ecx+28], eax

; 660  : }

  0000f	5d		 pop	 ebp
  00010	c2 08 00	 ret	 8
?SetGrade@UserInfoNode@@QAEXHH@Z ENDP			; UserInfoNode::SetGrade
_TEXT	ENDS
PUBLIC	?SetPartyExp@UserInfoNode@@QAEX_J@Z		; UserInfoNode::SetPartyExp
; Function compile flags: /Ogsp
;	COMDAT ?SetPartyExp@UserInfoNode@@QAEX_J@Z
_TEXT	SEGMENT
_iPartyExp$ = 8						; size = 8
?SetPartyExp@UserInfoNode@@QAEX_J@Z PROC		; UserInfoNode::SetPartyExp, COMDAT
; _this$ = ecx

; 663  : {

  00000	55		 push	 ebp
  00001	8b ec		 mov	 ebp, esp

; 664  : 	m_iPartyExp = iPartyExp;

  00003	8b 45 08	 mov	 eax, DWORD PTR _iPartyExp$[ebp]
  00006	56		 push	 esi
  00007	8b f1		 mov	 esi, ecx

; 665  : 	for(m_iPartyLevel = 0;m_iPartyLevel < 99;m_iPartyLevel++)

  00009	83 66 20 00	 and	 DWORD PTR [esi+32], 0
  0000d	89 46 28	 mov	 DWORD PTR [esi+40], eax
  00010	8b 45 0c	 mov	 eax, DWORD PTR _iPartyExp$[ebp+4]
  00013	89 46 2c	 mov	 DWORD PTR [esi+44], eax
$LL4@SetPartyEx:

; 666  : 	{
; 667  : 		__int64 iExp = g_LevelMgr.GetNextPartyupExp( m_iPartyLevel );

  00016	ff 76 20	 push	 DWORD PTR [esi+32]
  00019	e8 00 00 00 00	 call	 ?GetSingleton@ioMyLevelMgr@@SAAAV1@XZ ; ioMyLevelMgr::GetSingleton
  0001e	8b c8		 mov	 ecx, eax
  00020	e8 00 00 00 00	 call	 ?GetNextPartyupExp@ioMyLevelMgr@@QAE_JH@Z ; ioMyLevelMgr::GetNextPartyupExp

; 668  : 		if( iExp > m_iPartyExp )

  00025	3b 56 2c	 cmp	 edx, DWORD PTR [esi+44]
  00028	7f 10		 jg	 SHORT $LN8@SetPartyEx
  0002a	7c 05		 jl	 SHORT $LN10@SetPartyEx
  0002c	3b 46 28	 cmp	 eax, DWORD PTR [esi+40]
  0002f	77 09		 ja	 SHORT $LN8@SetPartyEx
$LN10@SetPartyEx:

; 665  : 	for(m_iPartyLevel = 0;m_iPartyLevel < 99;m_iPartyLevel++)

  00031	ff 46 20	 inc	 DWORD PTR [esi+32]
  00034	83 7e 20 63	 cmp	 DWORD PTR [esi+32], 99	; 00000063H
  00038	7c dc		 jl	 SHORT $LL4@SetPartyEx
$LN8@SetPartyEx:
  0003a	5e		 pop	 esi

; 669  : 			break;
; 670  : 	}
; 671  : }

  0003b	5d		 pop	 ebp
  0003c	c2 08 00	 ret	 8
?SetPartyExp@UserInfoNode@@QAEX_J@Z ENDP		; UserInfoNode::SetPartyExp
_TEXT	ENDS
PUBLIC	?SetLadderExp@UserInfoNode@@QAEX_J@Z		; UserInfoNode::SetLadderExp
; Function compile flags: /Ogsp
;	COMDAT ?SetLadderExp@UserInfoNode@@QAEX_J@Z
_TEXT	SEGMENT
_iLadderExp$ = 8					; size = 8
?SetLadderExp@UserInfoNode@@QAEX_J@Z PROC		; UserInfoNode::SetLadderExp, COMDAT
; _this$ = ecx

; 674  : {

  00000	55		 push	 ebp
  00001	8b ec		 mov	 ebp, esp

; 675  : 	m_iLadderExp = iLadderExp;

  00003	8b 45 08	 mov	 eax, DWORD PTR _iLadderExp$[ebp]
  00006	56		 push	 esi
  00007	8b f1		 mov	 esi, ecx

; 676  : 	for(m_iLadderLevel = 0;m_iLadderLevel < 99;m_iLadderLevel++)

  00009	83 66 30 00	 and	 DWORD PTR [esi+48], 0
  0000d	89 46 38	 mov	 DWORD PTR [esi+56], eax
  00010	8b 45 0c	 mov	 eax, DWORD PTR _iLadderExp$[ebp+4]
  00013	89 46 3c	 mov	 DWORD PTR [esi+60], eax
$LL4@SetLadderE:

; 677  : 	{
; 678  : 		__int64 iExp = g_LevelMgr.GetNextLadderupExp( m_iLadderLevel );

  00016	ff 76 30	 push	 DWORD PTR [esi+48]
  00019	e8 00 00 00 00	 call	 ?GetSingleton@ioMyLevelMgr@@SAAAV1@XZ ; ioMyLevelMgr::GetSingleton
  0001e	8b c8		 mov	 ecx, eax
  00020	e8 00 00 00 00	 call	 ?GetNextLadderupExp@ioMyLevelMgr@@QAE_JH@Z ; ioMyLevelMgr::GetNextLadderupExp

; 679  : 		if( iExp > m_iLadderExp )

  00025	3b 56 3c	 cmp	 edx, DWORD PTR [esi+60]
  00028	7f 10		 jg	 SHORT $LN8@SetLadderE
  0002a	7c 05		 jl	 SHORT $LN10@SetLadderE
  0002c	3b 46 38	 cmp	 eax, DWORD PTR [esi+56]
  0002f	77 09		 ja	 SHORT $LN8@SetLadderE
$LN10@SetLadderE:

; 676  : 	for(m_iLadderLevel = 0;m_iLadderLevel < 99;m_iLadderLevel++)

  00031	ff 46 30	 inc	 DWORD PTR [esi+48]
  00034	83 7e 30 63	 cmp	 DWORD PTR [esi+48], 99	; 00000063H
  00038	7c dc		 jl	 SHORT $LL4@SetLadderE
$LN8@SetLadderE:
  0003a	5e		 pop	 esi

; 680  : 			break;
; 681  : 	}
; 682  : }

  0003b	5d		 pop	 ebp
  0003c	c2 08 00	 ret	 8
?SetLadderExp@UserInfoNode@@QAEX_J@Z ENDP		; UserInfoNode::SetLadderExp
_TEXT	ENDS
PUBLIC	?SetAwardExp@UserInfoNode@@QAEXHH@Z		; UserInfoNode::SetAwardExp
; Function compile flags: /Ogsp
;	COMDAT ?SetAwardExp@UserInfoNode@@QAEXHH@Z
_TEXT	SEGMENT
_iAwardLevel$ = 8					; size = 4
_iAwardExp$ = 12					; size = 4
?SetAwardExp@UserInfoNode@@QAEXHH@Z PROC		; UserInfoNode::SetAwardExp, COMDAT
; _this$ = ecx

; 685  : {

  00000	55		 push	 ebp
  00001	8b ec		 mov	 ebp, esp

; 686  : 	m_iAwardLevel = iAwardLevel;

  00003	8b 45 08	 mov	 eax, DWORD PTR _iAwardLevel$[ebp]
  00006	89 41 40	 mov	 DWORD PTR [ecx+64], eax

; 687  : 	m_iAwardExp   = iAwardExp;

  00009	8b 45 0c	 mov	 eax, DWORD PTR _iAwardExp$[ebp]
  0000c	89 41 44	 mov	 DWORD PTR [ecx+68], eax

; 688  : }

  0000f	5d		 pop	 ebp
  00010	c2 08 00	 ret	 8
?SetAwardExp@UserInfoNode@@QAEXHH@Z ENDP		; UserInfoNode::SetAwardExp
_TEXT	ENDS
PUBLIC	?SetFishingExp@UserInfoNode@@QAEXHH@Z		; UserInfoNode::SetFishingExp
; Function compile flags: /Ogsp
;	COMDAT ?SetFishingExp@UserInfoNode@@QAEXHH@Z
_TEXT	SEGMENT
_iFishingLevel$ = 8					; size = 4
_iFishingExp$ = 12					; size = 4
?SetFishingExp@UserInfoNode@@QAEXHH@Z PROC		; UserInfoNode::SetFishingExp, COMDAT
; _this$ = ecx

; 691  : {

  00000	55		 push	 ebp
  00001	8b ec		 mov	 ebp, esp

; 692  : 	m_iFishingLevel  = iFishingLevel;

  00003	8b 45 08	 mov	 eax, DWORD PTR _iFishingLevel$[ebp]
  00006	89 41 4c	 mov	 DWORD PTR [ecx+76], eax

; 693  : 	m_iFishingExpert = iFishingExp;

  00009	8b 45 0c	 mov	 eax, DWORD PTR _iFishingExp$[ebp]
  0000c	89 41 50	 mov	 DWORD PTR [ecx+80], eax

; 694  : }

  0000f	5d		 pop	 ebp
  00010	c2 08 00	 ret	 8
?SetFishingExp@UserInfoNode@@QAEXHH@Z ENDP		; UserInfoNode::SetFishingExp
_TEXT	ENDS
PUBLIC	?SetExcavationExp@UserInfoNode@@QAEXHH@Z	; UserInfoNode::SetExcavationExp
; Function compile flags: /Ogsp
;	COMDAT ?SetExcavationExp@UserInfoNode@@QAEXHH@Z
_TEXT	SEGMENT
_iExcavationLevel$ = 8					; size = 4
_iExcavationExp$ = 12					; size = 4
?SetExcavationExp@UserInfoNode@@QAEXHH@Z PROC		; UserInfoNode::SetExcavationExp, COMDAT
; _this$ = ecx

; 697  : {

  00000	55		 push	 ebp
  00001	8b ec		 mov	 ebp, esp

; 698  : 	m_iExcavationLevel  = iExcavationLevel;

  00003	8b 45 08	 mov	 eax, DWORD PTR _iExcavationLevel$[ebp]
  00006	89 41 54	 mov	 DWORD PTR [ecx+84], eax

; 699  : 	m_iExcavationExpert = iExcavationExp;

  00009	8b 45 0c	 mov	 eax, DWORD PTR _iExcavationExp$[ebp]
  0000c	89 41 58	 mov	 DWORD PTR [ecx+88], eax

; 700  : }

  0000f	5d		 pop	 ebp
  00010	c2 08 00	 ret	 8
?SetExcavationExp@UserInfoNode@@QAEXHH@Z ENDP		; UserInfoNode::SetExcavationExp
_TEXT	ENDS
PUBLIC	?SetHeroWin@UserInfoNode@@QAEXH@Z		; UserInfoNode::SetHeroWin
; Function compile flags: /Ogsp
;	COMDAT ?SetHeroWin@UserInfoNode@@QAEXH@Z
_TEXT	SEGMENT
_iWin$ = 8						; size = 4
?SetHeroWin@UserInfoNode@@QAEXH@Z PROC			; UserInfoNode::SetHeroWin, COMDAT
; _this$ = ecx

; 703  : {

  00000	55		 push	 ebp
  00001	8b ec		 mov	 ebp, esp

; 704  : 	m_iHeroWin = iWin;

  00003	8b 45 08	 mov	 eax, DWORD PTR _iWin$[ebp]
  00006	89 41 5c	 mov	 DWORD PTR [ecx+92], eax

; 705  : }

  00009	5d		 pop	 ebp
  0000a	c2 04 00	 ret	 4
?SetHeroWin@UserInfoNode@@QAEXH@Z ENDP			; UserInfoNode::SetHeroWin
_TEXT	ENDS
PUBLIC	?SetHeroLose@UserInfoNode@@QAEXH@Z		; UserInfoNode::SetHeroLose
; Function compile flags: /Ogsp
;	COMDAT ?SetHeroLose@UserInfoNode@@QAEXH@Z
_TEXT	SEGMENT
_iLose$ = 8						; size = 4
?SetHeroLose@UserInfoNode@@QAEXH@Z PROC			; UserInfoNode::SetHeroLose, COMDAT
; _this$ = ecx

; 708  : {

  00000	55		 push	 ebp
  00001	8b ec		 mov	 ebp, esp

; 709  : 	m_iHeroLose = iLose;

  00003	8b 45 08	 mov	 eax, DWORD PTR _iLose$[ebp]
  00006	89 41 60	 mov	 DWORD PTR [ecx+96], eax

; 710  : }

  00009	5d		 pop	 ebp
  0000a	c2 04 00	 ret	 4
?SetHeroLose@UserInfoNode@@QAEXH@Z ENDP			; UserInfoNode::SetHeroLose
_TEXT	ENDS
PUBLIC	?SetHeroTitle@UserInfoNode@@QAEXH@Z		; UserInfoNode::SetHeroTitle
; Function compile flags: /Ogsp
;	COMDAT ?SetHeroTitle@UserInfoNode@@QAEXH@Z
_TEXT	SEGMENT
_iTitle$ = 8						; size = 4
?SetHeroTitle@UserInfoNode@@QAEXH@Z PROC		; UserInfoNode::SetHeroTitle, COMDAT
; _this$ = ecx

; 713  : {

  00000	55		 push	 ebp
  00001	8b ec		 mov	 ebp, esp

; 714  : 	m_iHeroTitle = iTitle;

  00003	8b 45 08	 mov	 eax, DWORD PTR _iTitle$[ebp]
  00006	89 41 64	 mov	 DWORD PTR [ecx+100], eax

; 715  : }

  00009	5d		 pop	 ebp
  0000a	c2 04 00	 ret	 4
?SetHeroTitle@UserInfoNode@@QAEXH@Z ENDP		; UserInfoNode::SetHeroTitle
_TEXT	ENDS
PUBLIC	?SetHeroRank@UserInfoNode@@QAEXH@Z		; UserInfoNode::SetHeroRank
; Function compile flags: /Ogsp
;	COMDAT ?SetHeroRank@UserInfoNode@@QAEXH@Z
_TEXT	SEGMENT
_iRank$ = 8						; size = 4
?SetHeroRank@UserInfoNode@@QAEXH@Z PROC			; UserInfoNode::SetHeroRank, COMDAT
; _this$ = ecx

; 718  : {

  00000	55		 push	 ebp
  00001	8b ec		 mov	 ebp, esp

; 719  : 	m_iHeroRank = iRank;

  00003	8b 45 08	 mov	 eax, DWORD PTR _iRank$[ebp]
  00006	89 41 68	 mov	 DWORD PTR [ecx+104], eax

; 720  : }

  00009	5d		 pop	 ebp
  0000a	c2 04 00	 ret	 4
?SetHeroRank@UserInfoNode@@QAEXH@Z ENDP			; UserInfoNode::SetHeroRank
_TEXT	ENDS
PUBLIC	?SetBlockType@UserInfoNode@@QAEXH@Z		; UserInfoNode::SetBlockType
; Function compile flags: /Ogsp
;	COMDAT ?SetBlockType@UserInfoNode@@QAEXH@Z
_TEXT	SEGMENT
_iBlockType$ = 8					; size = 4
?SetBlockType@UserInfoNode@@QAEXH@Z PROC		; UserInfoNode::SetBlockType, COMDAT
; _this$ = ecx

; 723  : {

  00000	55		 push	 ebp
  00001	8b ec		 mov	 ebp, esp

; 724  : 	m_eBlockType = (BlockType) iBlockType;

  00003	8b 45 08	 mov	 eax, DWORD PTR _iBlockType$[ebp]
  00006	89 41 6c	 mov	 DWORD PTR [ecx+108], eax

; 725  : }

  00009	5d		 pop	 ebp
  0000a	c2 04 00	 ret	 4
?SetBlockType@UserInfoNode@@QAEXH@Z ENDP		; UserInfoNode::SetBlockType
_TEXT	ENDS
PUBLIC	?SetRanking@UserInfoNode@@QAEXH@Z		; UserInfoNode::SetRanking
; Function compile flags: /Ogsp
;	COMDAT ?SetRanking@UserInfoNode@@QAEXH@Z
_TEXT	SEGMENT
_iRanking$ = 8						; size = 4
?SetRanking@UserInfoNode@@QAEXH@Z PROC			; UserInfoNode::SetRanking, COMDAT
; _this$ = ecx

; 728  : {

  00000	55		 push	 ebp
  00001	8b ec		 mov	 ebp, esp

; 729  : 	m_iUserRank = iRanking;

  00003	8b 45 08	 mov	 eax, DWORD PTR _iRanking$[ebp]
  00006	89 41 70	 mov	 DWORD PTR [ecx+112], eax

; 730  : }

  00009	5d		 pop	 ebp
  0000a	c2 04 00	 ret	 4
?SetRanking@UserInfoNode@@QAEXH@Z ENDP			; UserInfoNode::SetRanking
_TEXT	ENDS
PUBLIC	?SetGuildIndex@UserInfoNode@@QAEXK@Z		; UserInfoNode::SetGuildIndex
; Function compile flags: /Ogsp
;	COMDAT ?SetGuildIndex@UserInfoNode@@QAEXK@Z
_TEXT	SEGMENT
_dwGuildIndex$ = 8					; size = 4
?SetGuildIndex@UserInfoNode@@QAEXK@Z PROC		; UserInfoNode::SetGuildIndex, COMDAT
; _this$ = ecx

; 733  : {

  00000	55		 push	 ebp
  00001	8b ec		 mov	 ebp, esp

; 734  : 	if( dwGuildIndex != m_dwGuildIndex )

  00003	8b 55 08	 mov	 edx, DWORD PTR _dwGuildIndex$[ebp]
  00006	3b 91 80 00 00
	00		 cmp	 edx, DWORD PTR [ecx+128]
  0000c	74 07		 je	 SHORT $LN1@SetGuildIn

; 735  : 		m_bGuildInfoChange = true;

  0000e	c6 81 84 00 00
	00 01		 mov	 BYTE PTR [ecx+132], 1
$LN1@SetGuildIn:

; 736  : 	m_dwGuildIndex = dwGuildIndex;

  00015	89 91 80 00 00
	00		 mov	 DWORD PTR [ecx+128], edx

; 737  : }

  0001b	5d		 pop	 ebp
  0001c	c2 04 00	 ret	 4
?SetGuildIndex@UserInfoNode@@QAEXK@Z ENDP		; UserInfoNode::SetGuildIndex
_TEXT	ENDS
PUBLIC	?SetLadderPoint@UserInfoNode@@QAEXH@Z		; UserInfoNode::SetLadderPoint
; Function compile flags: /Ogsp
;	COMDAT ?SetLadderPoint@UserInfoNode@@QAEXH@Z
_TEXT	SEGMENT
_iLadderPoint$ = 8					; size = 4
?SetLadderPoint@UserInfoNode@@QAEXH@Z PROC		; UserInfoNode::SetLadderPoint, COMDAT
; _this$ = ecx

; 740  : {

  00000	55		 push	 ebp
  00001	8b ec		 mov	 ebp, esp

; 741  : 	// 대회 포인트가 작아지지는 않는다. 단, 0으로 초기화는 된다.
; 742  : 	if( iLadderPoint == 0 || iLadderPoint > m_iLadderPoint )

  00003	8b 45 08	 mov	 eax, DWORD PTR _iLadderPoint$[ebp]
  00006	85 c0		 test	 eax, eax
  00008	74 05		 je	 SHORT $LN1@SetLadderP
  0000a	3b 41 74	 cmp	 eax, DWORD PTR [ecx+116]
  0000d	7e 03		 jle	 SHORT $LN2@SetLadderP
$LN1@SetLadderP:

; 743  : 	{
; 744  : 		m_iLadderPoint = iLadderPoint;

  0000f	89 41 74	 mov	 DWORD PTR [ecx+116], eax
$LN2@SetLadderP:

; 745  : 	}
; 746  : }

  00012	5d		 pop	 ebp
  00013	c2 04 00	 ret	 4
?SetLadderPoint@UserInfoNode@@QAEXH@Z ENDP		; UserInfoNode::SetLadderPoint
_TEXT	ENDS
PUBLIC	?SetCampPosition@UserInfoNode@@QAEXH@Z		; UserInfoNode::SetCampPosition
; Function compile flags: /Ogsp
;	COMDAT ?SetCampPosition@UserInfoNode@@QAEXH@Z
_TEXT	SEGMENT
_iCampPosition$ = 8					; size = 4
?SetCampPosition@UserInfoNode@@QAEXH@Z PROC		; UserInfoNode::SetCampPosition, COMDAT
; _this$ = ecx

; 749  : {

  00000	55		 push	 ebp
  00001	8b ec		 mov	 ebp, esp

; 750  : 	if( m_iCampPosition != iCampPosition )

  00003	8b 45 08	 mov	 eax, DWORD PTR _iCampPosition$[ebp]
  00006	39 41 78	 cmp	 DWORD PTR [ecx+120], eax
  00009	74 04		 je	 SHORT $LN1@SetCampPos

; 751  : 		m_bCampChange = true;

  0000b	c6 41 7c 01	 mov	 BYTE PTR [ecx+124], 1
$LN1@SetCampPos:

; 752  : 	m_iCampPosition = iCampPosition;

  0000f	89 41 78	 mov	 DWORD PTR [ecx+120], eax

; 753  : }

  00012	5d		 pop	 ebp
  00013	c2 04 00	 ret	 4
?SetCampPosition@UserInfoNode@@QAEXH@Z ENDP		; UserInfoNode::SetCampPosition
_TEXT	ENDS
PUBLIC	?SetClassLevel@UserInfoNode@@QAEXH@Z		; UserInfoNode::SetClassLevel
; Function compile flags: /Ogsp
;	COMDAT ?SetClassLevel@UserInfoNode@@QAEXH@Z
_TEXT	SEGMENT
_iClassLevel$ = 8					; size = 4
?SetClassLevel@UserInfoNode@@QAEXH@Z PROC		; UserInfoNode::SetClassLevel, COMDAT
; _this$ = ecx

; 756  : {

  00000	55		 push	 ebp
  00001	8b ec		 mov	 ebp, esp

; 757  : 	m_iClassLevel = iClassLevel;

  00003	8b 45 08	 mov	 eax, DWORD PTR _iClassLevel$[ebp]
  00006	89 81 a8 00 00
	00		 mov	 DWORD PTR [ecx+168], eax

; 758  : }

  0000c	5d		 pop	 ebp
  0000d	c2 04 00	 ret	 4
?SetClassLevel@UserInfoNode@@QAEXH@Z ENDP		; UserInfoNode::SetClassLevel
_TEXT	ENDS
PUBLIC	?SetClassType@UserInfoNode@@QAEXH@Z		; UserInfoNode::SetClassType
; Function compile flags: /Ogsp
;	COMDAT ?SetClassType@UserInfoNode@@QAEXH@Z
_TEXT	SEGMENT
_iClassType$ = 8					; size = 4
?SetClassType@UserInfoNode@@QAEXH@Z PROC		; UserInfoNode::SetClassType, COMDAT
; _this$ = ecx

; 761  : {

  00000	55		 push	 ebp
  00001	8b ec		 mov	 ebp, esp

; 762  : 	m_iClassType = iClassType;

  00003	8b 45 08	 mov	 eax, DWORD PTR _iClassType$[ebp]
  00006	89 81 ac 00 00
	00		 mov	 DWORD PTR [ecx+172], eax

; 763  : }

  0000c	5d		 pop	 ebp
  0000d	c2 04 00	 ret	 4
?SetClassType@UserInfoNode@@QAEXH@Z ENDP		; UserInfoNode::SetClassType
_TEXT	ENDS
PUBLIC	?SetKillDeathLevel@UserInfoNode@@QAEXH@Z	; UserInfoNode::SetKillDeathLevel
; Function compile flags: /Ogsp
;	COMDAT ?SetKillDeathLevel@UserInfoNode@@QAEXH@Z
_TEXT	SEGMENT
_iKillDeathLevel$ = 8					; size = 4
?SetKillDeathLevel@UserInfoNode@@QAEXH@Z PROC		; UserInfoNode::SetKillDeathLevel, COMDAT
; _this$ = ecx

; 776  : {

  00000	55		 push	 ebp
  00001	8b ec		 mov	 ebp, esp

; 777  : 	m_iKillDeathLevel = iKillDeathLevel;

  00003	8b 45 08	 mov	 eax, DWORD PTR _iKillDeathLevel$[ebp]
  00006	89 41 48	 mov	 DWORD PTR [ecx+72], eax

; 778  : }

  00009	5d		 pop	 ebp
  0000a	c2 04 00	 ret	 4
?SetKillDeathLevel@UserInfoNode@@QAEXH@Z ENDP		; UserInfoNode::SetKillDeathLevel
_TEXT	ENDS
PUBLIC	?SetPetCode@UserInfoNode@@QAEXH@Z		; UserInfoNode::SetPetCode
; Function compile flags: /Ogsp
;	COMDAT ?SetPetCode@UserInfoNode@@QAEXH@Z
_TEXT	SEGMENT
_nPetCode$ = 8						; size = 4
?SetPetCode@UserInfoNode@@QAEXH@Z PROC			; UserInfoNode::SetPetCode, COMDAT
; _this$ = ecx

; 781  : {

  00000	55		 push	 ebp
  00001	8b ec		 mov	 ebp, esp

; 782  : 	m_nPetCode = nPetCode;

  00003	8b 45 08	 mov	 eax, DWORD PTR _nPetCode$[ebp]
  00006	89 81 b0 00 00
	00		 mov	 DWORD PTR [ecx+176], eax

; 783  : }

  0000c	5d		 pop	 ebp
  0000d	c2 04 00	 ret	 4
?SetPetCode@UserInfoNode@@QAEXH@Z ENDP			; UserInfoNode::SetPetCode
_TEXT	ENDS
PUBLIC	?SetPetLevel@UserInfoNode@@QAEXH@Z		; UserInfoNode::SetPetLevel
; Function compile flags: /Ogsp
;	COMDAT ?SetPetLevel@UserInfoNode@@QAEXH@Z
_TEXT	SEGMENT
_nPetLevel$ = 8						; size = 4
?SetPetLevel@UserInfoNode@@QAEXH@Z PROC			; UserInfoNode::SetPetLevel, COMDAT
; _this$ = ecx

; 786  : {

  00000	55		 push	 ebp
  00001	8b ec		 mov	 ebp, esp

; 787  : 	m_nPetLevel = nPetLevel;

  00003	8b 45 08	 mov	 eax, DWORD PTR _nPetLevel$[ebp]
  00006	89 81 b4 00 00
	00		 mov	 DWORD PTR [ecx+180], eax

; 788  : }

  0000c	5d		 pop	 ebp
  0000d	c2 04 00	 ret	 4
?SetPetLevel@UserInfoNode@@QAEXH@Z ENDP			; UserInfoNode::SetPetLevel
_TEXT	ENDS
PUBLIC	?SetHouseOpen@UserInfoNode@@QAEX_N@Z		; UserInfoNode::SetHouseOpen
; Function compile flags: /Ogsp
;	COMDAT ?SetHouseOpen@UserInfoNode@@QAEX_N@Z
_TEXT	SEGMENT
_bHouseOpen$ = 8					; size = 1
?SetHouseOpen@UserInfoNode@@QAEX_N@Z PROC		; UserInfoNode::SetHouseOpen, COMDAT
; _this$ = ecx

; 791  : {

  00000	55		 push	 ebp
  00001	8b ec		 mov	 ebp, esp

; 792  : 	m_bHouseOpen = bHouseOpen;

  00003	8a 45 08	 mov	 al, BYTE PTR _bHouseOpen$[ebp]
  00006	88 81 b8 00 00
	00		 mov	 BYTE PTR [ecx+184], al

; 793  : }

  0000c	5d		 pop	 ebp
  0000d	c2 04 00	 ret	 4
?SetHouseOpen@UserInfoNode@@QAEX_N@Z ENDP		; UserInfoNode::SetHouseOpen
_TEXT	ENDS
PUBLIC	?SetNamedTitle@UserInfoNode@@QAEXKHE@Z		; UserInfoNode::SetNamedTitle
; Function compile flags: /Ogsp
;	COMDAT ?SetNamedTitle@UserInfoNode@@QAEXKHE@Z
_TEXT	SEGMENT
_dwNamedTitleCode$ = 8					; size = 4
_nNamedTitleLevel$ = 12					; size = 4
_byNamedTitlePremium$ = 16				; size = 1
?SetNamedTitle@UserInfoNode@@QAEXKHE@Z PROC		; UserInfoNode::SetNamedTitle, COMDAT
; _this$ = ecx

; 796  : {

  00000	55		 push	 ebp
  00001	8b ec		 mov	 ebp, esp

; 797  : 	m_dwNamedTitleCode = dwNamedTitleCode;

  00003	8b 45 08	 mov	 eax, DWORD PTR _dwNamedTitleCode$[ebp]
  00006	89 81 bc 00 00
	00		 mov	 DWORD PTR [ecx+188], eax

; 798  : 	m_nNamedTitleLevel = nNamedTitleLevel;

  0000c	8b 45 0c	 mov	 eax, DWORD PTR _nNamedTitleLevel$[ebp]
  0000f	89 81 c0 00 00
	00		 mov	 DWORD PTR [ecx+192], eax

; 799  : 	m_byNamedTitlePremium = byNamedTitlePremium;

  00015	8a 45 10	 mov	 al, BYTE PTR _byNamedTitlePremium$[ebp]
  00018	88 81 c4 00 00
	00		 mov	 BYTE PTR [ecx+196], al

; 800  : }

  0001e	5d		 pop	 ebp
  0001f	c2 0c 00	 ret	 12			; 0000000cH
?SetNamedTitle@UserInfoNode@@QAEXKHE@Z ENDP		; UserInfoNode::SetNamedTitle
_TEXT	ENDS
PUBLIC	?IsGuildInfoChange@UserInfoNode@@QAE_NXZ	; UserInfoNode::IsGuildInfoChange
; Function compile flags: /Ogsp
;	COMDAT ?IsGuildInfoChange@UserInfoNode@@QAE_NXZ
_TEXT	SEGMENT
?IsGuildInfoChange@UserInfoNode@@QAE_NXZ PROC		; UserInfoNode::IsGuildInfoChange, COMDAT
; _this$ = ecx

; 835  : 	bool bReturn = m_bGuildInfoChange;

  00000	8a 81 84 00 00
	00		 mov	 al, BYTE PTR [ecx+132]

; 836  : 	m_bGuildInfoChange = false;

  00006	c6 81 84 00 00
	00 00		 mov	 BYTE PTR [ecx+132], 0

; 837  : 	return bReturn;
; 838  : }

  0000d	c3		 ret	 0
?IsGuildInfoChange@UserInfoNode@@QAE_NXZ ENDP		; UserInfoNode::IsGuildInfoChange
_TEXT	ENDS
PUBLIC	?IsCampPosChange@UserInfoNode@@QAE_NXZ		; UserInfoNode::IsCampPosChange
; Function compile flags: /Ogsp
;	COMDAT ?IsCampPosChange@UserInfoNode@@QAE_NXZ
_TEXT	SEGMENT
?IsCampPosChange@UserInfoNode@@QAE_NXZ PROC		; UserInfoNode::IsCampPosChange, COMDAT
; _this$ = ecx

; 842  : 	bool bReturn = m_bCampChange;

  00000	8a 41 7c	 mov	 al, BYTE PTR [ecx+124]

; 843  : 	m_bCampChange = false;

  00003	c6 41 7c 00	 mov	 BYTE PTR [ecx+124], 0

; 844  : 	return bReturn;
; 845  : }

  00007	c3		 ret	 0
?IsCampPosChange@UserInfoNode@@QAE_NXZ ENDP		; UserInfoNode::IsCampPosChange
_TEXT	ENDS
PUBLIC	?_Adopt@_Iterator_base0@std@@QAEXPBX@Z		; std::_Iterator_base0::_Adopt
; Function compile flags: /Ogsp
; File c:\program files (x86)\microsoft visual studio 10.0\vc\include\xutility
;	COMDAT ?_Adopt@_Iterator_base0@std@@QAEXPBX@Z
_TEXT	SEGMENT
___formal$ = 8						; size = 4
?_Adopt@_Iterator_base0@std@@QAEXPBX@Z PROC		; std::_Iterator_base0::_Adopt, COMDAT
; _this$ = ecx

; 49   : 		}

  00000	c2 04 00	 ret	 4
?_Adopt@_Iterator_base0@std@@QAEXPBX@Z ENDP		; std::_Iterator_base0::_Adopt
_TEXT	ENDS
PUBLIC	?size@?$vector@UCharInfoData@@V?$allocator@UCharInfoData@@@std@@@std@@QBEIXZ ; std::vector<CharInfoData,std::allocator<CharInfoData> >::size
; Function compile flags: /Ogsp
; File c:\program files (x86)\microsoft visual studio 10.0\vc\include\vector
;	COMDAT ?size@?$vector@UCharInfoData@@V?$allocator@UCharInfoData@@@std@@@std@@QBEIXZ
_TEXT	SEGMENT
?size@?$vector@UCharInfoData@@V?$allocator@UCharInfoData@@@std@@@std@@QBEIXZ PROC ; std::vector<CharInfoData,std::allocator<CharInfoData> >::size, COMDAT
; _this$ = ecx

; 879  : 		return (this->_Mylast - this->_Myfirst);

  00000	8b 41 04	 mov	 eax, DWORD PTR [ecx+4]
  00003	2b 01		 sub	 eax, DWORD PTR [ecx]
  00005	b9 c0 03 00 00	 mov	 ecx, 960		; 000003c0H
  0000a	99		 cdq
  0000b	f7 f9		 idiv	 ecx

; 880  : 		}

  0000d	c3		 ret	 0
?size@?$vector@UCharInfoData@@V?$allocator@UCharInfoData@@@std@@@std@@QBEIXZ ENDP ; std::vector<CharInfoData,std::allocator<CharInfoData> >::size
_TEXT	ENDS
PUBLIC	??A?$vector@UCharInfoData@@V?$allocator@UCharInfoData@@@std@@@std@@QAEAAUCharInfoData@@I@Z ; std::vector<CharInfoData,std::allocator<CharInfoData> >::operator[]
; Function compile flags: /Ogsp
;	COMDAT ??A?$vector@UCharInfoData@@V?$allocator@UCharInfoData@@@std@@@std@@QAEAAUCharInfoData@@I@Z
_TEXT	SEGMENT
__Pos$ = 8						; size = 4
??A?$vector@UCharInfoData@@V?$allocator@UCharInfoData@@@std@@@std@@QAEAAUCharInfoData@@I@Z PROC ; std::vector<CharInfoData,std::allocator<CharInfoData> >::operator[], COMDAT
; _this$ = ecx

; 928  : 		{	// subscript mutable sequence

  00000	55		 push	 ebp
  00001	8b ec		 mov	 ebp, esp

; 929  :  #if _ITERATOR_DEBUG_LEVEL == 2
; 930  : 		if (size() <= _Pos)
; 931  : 			{	// report error
; 932  : 			_DEBUG_ERROR("vector subscript out of range");
; 933  : 			_SCL_SECURE_OUT_OF_RANGE;
; 934  : 			}
; 935  : 
; 936  :  #elif _ITERATOR_DEBUG_LEVEL == 1
; 937  : 		_SCL_SECURE_VALIDATE_RANGE(_Pos < size());
; 938  :  #endif /* _ITERATOR_DEBUG_LEVEL */
; 939  : 
; 940  : 		return (*(this->_Myfirst + _Pos));

  00003	8b 45 08	 mov	 eax, DWORD PTR __Pos$[ebp]
  00006	69 c0 c0 03 00
	00		 imul	 eax, 960		; 000003c0H
  0000c	03 01		 add	 eax, DWORD PTR [ecx]

; 941  : 		}

  0000e	5d		 pop	 ebp
  0000f	c2 04 00	 ret	 4
??A?$vector@UCharInfoData@@V?$allocator@UCharInfoData@@@std@@@std@@QAEAAUCharInfoData@@I@Z ENDP ; std::vector<CharInfoData,std::allocator<CharInfoData> >::operator[]
_TEXT	ENDS
PUBLIC	?size@?$vector@PAVUserInfoNode@@V?$allocator@PAVUserInfoNode@@@std@@@std@@QBEIXZ ; std::vector<UserInfoNode *,std::allocator<UserInfoNode *> >::size
; Function compile flags: /Ogsp
;	COMDAT ?size@?$vector@PAVUserInfoNode@@V?$allocator@PAVUserInfoNode@@@std@@@std@@QBEIXZ
_TEXT	SEGMENT
?size@?$vector@PAVUserInfoNode@@V?$allocator@PAVUserInfoNode@@@std@@@std@@QBEIXZ PROC ; std::vector<UserInfoNode *,std::allocator<UserInfoNode *> >::size, COMDAT
; _this$ = ecx

; 879  : 		return (this->_Mylast - this->_Myfirst);

  00000	8b 41 04	 mov	 eax, DWORD PTR [ecx+4]
  00003	2b 01		 sub	 eax, DWORD PTR [ecx]
  00005	c1 f8 02	 sar	 eax, 2

; 880  : 		}

  00008	c3		 ret	 0
?size@?$vector@PAVUserInfoNode@@V?$allocator@PAVUserInfoNode@@@std@@@std@@QBEIXZ ENDP ; std::vector<UserInfoNode *,std::allocator<UserInfoNode *> >::size
_TEXT	ENDS
PUBLIC	??0?$Singleton@VioUserInfoMgr@@@@QAE@XZ		; Singleton<ioUserInfoMgr>::Singleton<ioUserInfoMgr>
; Function compile flags: /Ogsp
; File d:\lost saga for developer\youtube\tutorial\source\src\io3dengine\iosingleton.h
;	COMDAT ??0?$Singleton@VioUserInfoMgr@@@@QAE@XZ
_TEXT	SEGMENT
??0?$Singleton@VioUserInfoMgr@@@@QAE@XZ PROC		; Singleton<ioUserInfoMgr>::Singleton<ioUserInfoMgr>, COMDAT
; _this$ = ecx

; 27   : 	Singleton()

  00000	8b c1		 mov	 eax, ecx

; 28   : 	{
; 29   : 		assert( !ms_Singleton );
; 30   : 		int offset = (int)(T*)1 - (int)(Singleton <T>*)(T*)1;
; 31   : 		ms_Singleton = (T*)((int)this + offset);

  00002	8d 48 fc	 lea	 ecx, DWORD PTR [eax-4]
  00005	89 0d 00 00 00
	00		 mov	 DWORD PTR ?ms_Singleton@?$Singleton@VioUserInfoMgr@@@@1PAVioUserInfoMgr@@A, ecx ; Singleton<ioUserInfoMgr>::ms_Singleton

; 32   : 	}

  0000b	c3		 ret	 0
??0?$Singleton@VioUserInfoMgr@@@@QAE@XZ ENDP		; Singleton<ioUserInfoMgr>::Singleton<ioUserInfoMgr>
_TEXT	ENDS
PUBLIC	??1?$Singleton@VioUserInfoMgr@@@@QAE@XZ		; Singleton<ioUserInfoMgr>::~Singleton<ioUserInfoMgr>
; Function compile flags: /Ogsp
;	COMDAT ??1?$Singleton@VioUserInfoMgr@@@@QAE@XZ
_TEXT	SEGMENT
??1?$Singleton@VioUserInfoMgr@@@@QAE@XZ PROC		; Singleton<ioUserInfoMgr>::~Singleton<ioUserInfoMgr>, COMDAT
; _this$ = ecx

; 36   : 		assert( ms_Singleton );
; 37   : 		ms_Singleton = 0;

  00000	83 25 00 00 00
	00 00		 and	 DWORD PTR ?ms_Singleton@?$Singleton@VioUserInfoMgr@@@@1PAVioUserInfoMgr@@A, 0 ; Singleton<ioUserInfoMgr>::ms_Singleton

; 38   : 	}

  00007	c3		 ret	 0
??1?$Singleton@VioUserInfoMgr@@@@QAE@XZ ENDP		; Singleton<ioUserInfoMgr>::~Singleton<ioUserInfoMgr>
_TEXT	ENDS
PUBLIC	?GetSingleton@?$Singleton@VioUserInfoMgr@@@@SAAAVioUserInfoMgr@@XZ ; Singleton<ioUserInfoMgr>::GetSingleton
; Function compile flags: /Ogsp
;	COMDAT ?GetSingleton@?$Singleton@VioUserInfoMgr@@@@SAAAVioUserInfoMgr@@XZ
_TEXT	SEGMENT
?GetSingleton@?$Singleton@VioUserInfoMgr@@@@SAAAVioUserInfoMgr@@XZ PROC ; Singleton<ioUserInfoMgr>::GetSingleton, COMDAT

; 42   : 		assert( ms_Singleton );
; 43   : 		return (*ms_Singleton);

  00000	a1 00 00 00 00	 mov	 eax, DWORD PTR ?ms_Singleton@?$Singleton@VioUserInfoMgr@@@@1PAVioUserInfoMgr@@A ; Singleton<ioUserInfoMgr>::ms_Singleton

; 44   : 	}

  00005	c3		 ret	 0
?GetSingleton@?$Singleton@VioUserInfoMgr@@@@SAAAVioUserInfoMgr@@XZ ENDP ; Singleton<ioUserInfoMgr>::GetSingleton
_TEXT	ENDS
PUBLIC	?_Inside@?$vector@HV?$allocator@H@std@@@std@@IBE_NPBH@Z ; std::vector<int,std::allocator<int> >::_Inside
; Function compile flags: /Ogsp
; File c:\program files (x86)\microsoft visual studio 10.0\vc\include\vector
;	COMDAT ?_Inside@?$vector@HV?$allocator@H@std@@@std@@IBE_NPBH@Z
_TEXT	SEGMENT
__Ptr$ = 8						; size = 4
?_Inside@?$vector@HV?$allocator@H@std@@@std@@IBE_NPBH@Z PROC ; std::vector<int,std::allocator<int> >::_Inside, COMDAT
; _this$ = ecx

; 1285 : 		{	// test if _Ptr points inside vector

  00000	55		 push	 ebp
  00001	8b ec		 mov	 ebp, esp

; 1286 : 		return (_Ptr < this->_Mylast && this->_Myfirst <= _Ptr);

  00003	8b 45 08	 mov	 eax, DWORD PTR __Ptr$[ebp]
  00006	3b 41 04	 cmp	 eax, DWORD PTR [ecx+4]
  00009	73 09		 jae	 SHORT $LN3@Inside
  0000b	39 01		 cmp	 DWORD PTR [ecx], eax
  0000d	77 05		 ja	 SHORT $LN3@Inside
  0000f	33 c0		 xor	 eax, eax
  00011	40		 inc	 eax
  00012	eb 02		 jmp	 SHORT $LN4@Inside
$LN3@Inside:
  00014	33 c0		 xor	 eax, eax
$LN4@Inside:

; 1287 : 		}

  00016	5d		 pop	 ebp
  00017	c2 04 00	 ret	 4
?_Inside@?$vector@HV?$allocator@H@std@@@std@@IBE_NPBH@Z ENDP ; std::vector<int,std::allocator<int> >::_Inside
_TEXT	ENDS
PUBLIC	?_Orphan_range@?$vector@HV?$allocator@H@std@@@std@@IBEXPAH0@Z ; std::vector<int,std::allocator<int> >::_Orphan_range
; Function compile flags: /Ogsp
;	COMDAT ?_Orphan_range@?$vector@HV?$allocator@H@std@@@std@@IBEXPAH0@Z
_TEXT	SEGMENT
___formal$ = 8						; size = 4
___formal$ = 12						; size = 4
?_Orphan_range@?$vector@HV?$allocator@H@std@@@std@@IBEXPAH0@Z PROC ; std::vector<int,std::allocator<int> >::_Orphan_range, COMDAT
; _this$ = ecx

; 1454 : 		}

  00000	c2 08 00	 ret	 8
?_Orphan_range@?$vector@HV?$allocator@H@std@@@std@@IBEXPAH0@Z ENDP ; std::vector<int,std::allocator<int> >::_Orphan_range
_TEXT	ENDS
PUBLIC	?_Inside@?$vector@UCharInfoData@@V?$allocator@UCharInfoData@@@std@@@std@@IBE_NPBUCharInfoData@@@Z ; std::vector<CharInfoData,std::allocator<CharInfoData> >::_Inside
; Function compile flags: /Ogsp
;	COMDAT ?_Inside@?$vector@UCharInfoData@@V?$allocator@UCharInfoData@@@std@@@std@@IBE_NPBUCharInfoData@@@Z
_TEXT	SEGMENT
__Ptr$ = 8						; size = 4
?_Inside@?$vector@UCharInfoData@@V?$allocator@UCharInfoData@@@std@@@std@@IBE_NPBUCharInfoData@@@Z PROC ; std::vector<CharInfoData,std::allocator<CharInfoData> >::_Inside, COMDAT
; _this$ = ecx

; 1285 : 		{	// test if _Ptr points inside vector

  00000	55		 push	 ebp
  00001	8b ec		 mov	 ebp, esp

; 1286 : 		return (_Ptr < this->_Mylast && this->_Myfirst <= _Ptr);

  00003	8b 45 08	 mov	 eax, DWORD PTR __Ptr$[ebp]
  00006	3b 41 04	 cmp	 eax, DWORD PTR [ecx+4]
  00009	73 09		 jae	 SHORT $LN3@Inside@2
  0000b	39 01		 cmp	 DWORD PTR [ecx], eax
  0000d	77 05		 ja	 SHORT $LN3@Inside@2
  0000f	33 c0		 xor	 eax, eax
  00011	40		 inc	 eax
  00012	eb 02		 jmp	 SHORT $LN4@Inside@2
$LN3@Inside@2:
  00014	33 c0		 xor	 eax, eax
$LN4@Inside@2:

; 1287 : 		}

  00016	5d		 pop	 ebp
  00017	c2 04 00	 ret	 4
?_Inside@?$vector@UCharInfoData@@V?$allocator@UCharInfoData@@@std@@@std@@IBE_NPBUCharInfoData@@@Z ENDP ; std::vector<CharInfoData,std::allocator<CharInfoData> >::_Inside
_TEXT	ENDS
PUBLIC	?_Orphan_range@?$vector@UCharInfoData@@V?$allocator@UCharInfoData@@@std@@@std@@IBEXPAUCharInfoData@@0@Z ; std::vector<CharInfoData,std::allocator<CharInfoData> >::_Orphan_range
; Function compile flags: /Ogsp
;	COMDAT ?_Orphan_range@?$vector@UCharInfoData@@V?$allocator@UCharInfoData@@@std@@@std@@IBEXPAUCharInfoData@@0@Z
_TEXT	SEGMENT
___formal$ = 8						; size = 4
___formal$ = 12						; size = 4
?_Orphan_range@?$vector@UCharInfoData@@V?$allocator@UCharInfoData@@@std@@@std@@IBEXPAUCharInfoData@@0@Z PROC ; std::vector<CharInfoData,std::allocator<CharInfoData> >::_Orphan_range, COMDAT
; _this$ = ecx

; 1454 : 		}

  00000	c2 08 00	 ret	 8
?_Orphan_range@?$vector@UCharInfoData@@V?$allocator@UCharInfoData@@@std@@@std@@IBEXPAUCharInfoData@@0@Z ENDP ; std::vector<CharInfoData,std::allocator<CharInfoData> >::_Orphan_range
_TEXT	ENDS
PUBLIC	??1?$_Vector_val@UCharInfoData@@V?$allocator@UCharInfoData@@@std@@@std@@QAE@XZ ; std::_Vector_val<CharInfoData,std::allocator<CharInfoData> >::~_Vector_val<CharInfoData,std::allocator<CharInfoData> >
; Function compile flags: /Ogsp
;	COMDAT ??1?$_Vector_val@UCharInfoData@@V?$allocator@UCharInfoData@@@std@@@std@@QAE@XZ
_TEXT	SEGMENT
??1?$_Vector_val@UCharInfoData@@V?$allocator@UCharInfoData@@@std@@@std@@QAE@XZ PROC ; std::_Vector_val<CharInfoData,std::allocator<CharInfoData> >::~_Vector_val<CharInfoData,std::allocator<CharInfoData> >, COMDAT
; _this$ = ecx

; 434  : 		}

  00000	c3		 ret	 0
??1?$_Vector_val@UCharInfoData@@V?$allocator@UCharInfoData@@@std@@@std@@QAE@XZ ENDP ; std::_Vector_val<CharInfoData,std::allocator<CharInfoData> >::~_Vector_val<CharInfoData,std::allocator<CharInfoData> >
_TEXT	ENDS
PUBLIC	??0?$allocator@UCharInfoData@@@std@@QAE@XZ	; std::allocator<CharInfoData>::allocator<CharInfoData>
; Function compile flags: /Ogsp
; File c:\program files (x86)\microsoft visual studio 10.0\vc\include\xmemory
;	COMDAT ??0?$allocator@UCharInfoData@@@std@@QAE@XZ
_TEXT	SEGMENT
??0?$allocator@UCharInfoData@@@std@@QAE@XZ PROC		; std::allocator<CharInfoData>::allocator<CharInfoData>, COMDAT
; _this$ = ecx

; 161  : 	_ALLOCATOR() _THROW0()

  00000	8b c1		 mov	 eax, ecx

; 162  : 		{	// construct default allocator (do nothing)
; 163  : 		}

  00002	c3		 ret	 0
??0?$allocator@UCharInfoData@@@std@@QAE@XZ ENDP		; std::allocator<CharInfoData>::allocator<CharInfoData>
_TEXT	ENDS
PUBLIC	?_Inside@?$vector@PAVUserInfoNode@@V?$allocator@PAVUserInfoNode@@@std@@@std@@IBE_NPBQAVUserInfoNode@@@Z ; std::vector<UserInfoNode *,std::allocator<UserInfoNode *> >::_Inside
; Function compile flags: /Ogsp
; File c:\program files (x86)\microsoft visual studio 10.0\vc\include\vector
;	COMDAT ?_Inside@?$vector@PAVUserInfoNode@@V?$allocator@PAVUserInfoNode@@@std@@@std@@IBE_NPBQAVUserInfoNode@@@Z
_TEXT	SEGMENT
__Ptr$ = 8						; size = 4
?_Inside@?$vector@PAVUserInfoNode@@V?$allocator@PAVUserInfoNode@@@std@@@std@@IBE_NPBQAVUserInfoNode@@@Z PROC ; std::vector<UserInfoNode *,std::allocator<UserInfoNode *> >::_Inside, COMDAT
; _this$ = ecx

; 1285 : 		{	// test if _Ptr points inside vector

  00000	55		 push	 ebp
  00001	8b ec		 mov	 ebp, esp

; 1286 : 		return (_Ptr < this->_Mylast && this->_Myfirst <= _Ptr);

  00003	8b 45 08	 mov	 eax, DWORD PTR __Ptr$[ebp]
  00006	3b 41 04	 cmp	 eax, DWORD PTR [ecx+4]
  00009	73 09		 jae	 SHORT $LN3@Inside@3
  0000b	39 01		 cmp	 DWORD PTR [ecx], eax
  0000d	77 05		 ja	 SHORT $LN3@Inside@3
  0000f	33 c0		 xor	 eax, eax
  00011	40		 inc	 eax
  00012	eb 02		 jmp	 SHORT $LN4@Inside@3
$LN3@Inside@3:
  00014	33 c0		 xor	 eax, eax
$LN4@Inside@3:

; 1287 : 		}

  00016	5d		 pop	 ebp
  00017	c2 04 00	 ret	 4
?_Inside@?$vector@PAVUserInfoNode@@V?$allocator@PAVUserInfoNode@@@std@@@std@@IBE_NPBQAVUserInfoNode@@@Z ENDP ; std::vector<UserInfoNode *,std::allocator<UserInfoNode *> >::_Inside
_TEXT	ENDS
PUBLIC	?_Orphan_range@?$vector@PAVUserInfoNode@@V?$allocator@PAVUserInfoNode@@@std@@@std@@IBEXPAPAVUserInfoNode@@0@Z ; std::vector<UserInfoNode *,std::allocator<UserInfoNode *> >::_Orphan_range
; Function compile flags: /Ogsp
;	COMDAT ?_Orphan_range@?$vector@PAVUserInfoNode@@V?$allocator@PAVUserInfoNode@@@std@@@std@@IBEXPAPAVUserInfoNode@@0@Z
_TEXT	SEGMENT
___formal$ = 8						; size = 4
___formal$ = 12						; size = 4
?_Orphan_range@?$vector@PAVUserInfoNode@@V?$allocator@PAVUserInfoNode@@@std@@@std@@IBEXPAPAVUserInfoNode@@0@Z PROC ; std::vector<UserInfoNode *,std::allocator<UserInfoNode *> >::_Orphan_range, COMDAT
; _this$ = ecx

; 1454 : 		}

  00000	c2 08 00	 ret	 8
?_Orphan_range@?$vector@PAVUserInfoNode@@V?$allocator@PAVUserInfoNode@@@std@@@std@@IBEXPAPAVUserInfoNode@@0@Z ENDP ; std::vector<UserInfoNode *,std::allocator<UserInfoNode *> >::_Orphan_range
_TEXT	ENDS
PUBLIC	??1?$_Vector_val@PAVUserInfoNode@@V?$allocator@PAVUserInfoNode@@@std@@@std@@QAE@XZ ; std::_Vector_val<UserInfoNode *,std::allocator<UserInfoNode *> >::~_Vector_val<UserInfoNode *,std::allocator<UserInfoNode *> >
; Function compile flags: /Ogsp
;	COMDAT ??1?$_Vector_val@PAVUserInfoNode@@V?$allocator@PAVUserInfoNode@@@std@@@std@@QAE@XZ
_TEXT	SEGMENT
??1?$_Vector_val@PAVUserInfoNode@@V?$allocator@PAVUserInfoNode@@@std@@@std@@QAE@XZ PROC ; std::_Vector_val<UserInfoNode *,std::allocator<UserInfoNode *> >::~_Vector_val<UserInfoNode *,std::allocator<UserInfoNode *> >, COMDAT
; _this$ = ecx

; 434  : 		}

  00000	c3		 ret	 0
??1?$_Vector_val@PAVUserInfoNode@@V?$allocator@PAVUserInfoNode@@@std@@@std@@QAE@XZ ENDP ; std::_Vector_val<UserInfoNode *,std::allocator<UserInfoNode *> >::~_Vector_val<UserInfoNode *,std::allocator<UserInfoNode *> >
_TEXT	ENDS
PUBLIC	??0?$allocator@PAVUserInfoNode@@@std@@QAE@XZ	; std::allocator<UserInfoNode *>::allocator<UserInfoNode *>
; Function compile flags: /Ogsp
; File c:\program files (x86)\microsoft visual studio 10.0\vc\include\xmemory
;	COMDAT ??0?$allocator@PAVUserInfoNode@@@std@@QAE@XZ
_TEXT	SEGMENT
??0?$allocator@PAVUserInfoNode@@@std@@QAE@XZ PROC	; std::allocator<UserInfoNode *>::allocator<UserInfoNode *>, COMDAT
; _this$ = ecx

; 161  : 	_ALLOCATOR() _THROW0()

  00000	8b c1		 mov	 eax, ecx

; 162  : 		{	// construct default allocator (do nothing)
; 163  : 		}

  00002	c3		 ret	 0
??0?$allocator@PAVUserInfoNode@@@std@@QAE@XZ ENDP	; std::allocator<UserInfoNode *>::allocator<UserInfoNode *>
_TEXT	ENDS
PUBLIC	??D?$_Vector_const_iterator@V?$_Vector_val@UCharInfoData@@V?$allocator@UCharInfoData@@@std@@@std@@@std@@QBEABUCharInfoData@@XZ ; std::_Vector_const_iterator<std::_Vector_val<CharInfoData,std::allocator<CharInfoData> > >::operator*
; Function compile flags: /Ogsp
; File c:\program files (x86)\microsoft visual studio 10.0\vc\include\vector
;	COMDAT ??D?$_Vector_const_iterator@V?$_Vector_val@UCharInfoData@@V?$allocator@UCharInfoData@@@std@@@std@@@std@@QBEABUCharInfoData@@XZ
_TEXT	SEGMENT
??D?$_Vector_const_iterator@V?$_Vector_val@UCharInfoData@@V?$allocator@UCharInfoData@@@std@@@std@@@std@@QBEABUCharInfoData@@XZ PROC ; std::_Vector_const_iterator<std::_Vector_val<CharInfoData,std::allocator<CharInfoData> > >::operator*, COMDAT
; _this$ = ecx

; 64   :  #if _ITERATOR_DEBUG_LEVEL == 2
; 65   : 		if (this->_Getcont() == 0
; 66   : 			|| this->_Ptr == 0
; 67   : 			|| this->_Ptr < ((_Myvec *)this->_Getcont())->_Myfirst
; 68   : 			|| ((_Myvec *)this->_Getcont())->_Mylast <= this->_Ptr)
; 69   : 			{	// report error
; 70   : 			_DEBUG_ERROR("vector iterator not dereferencable");
; 71   : 			_SCL_SECURE_OUT_OF_RANGE;
; 72   : 			}
; 73   : 
; 74   :  #elif _ITERATOR_DEBUG_LEVEL == 1
; 75   : 		_SCL_SECURE_VALIDATE(this->_Getcont() != 0);
; 76   : 		_SCL_SECURE_VALIDATE_RANGE(
; 77   : 			this->_Ptr != 0
; 78   : 			&& ((_Myvec *)this->_Getcont())->_Myfirst <= this->_Ptr
; 79   : 			&& this->_Ptr < ((_Myvec *)this->_Getcont())->_Mylast);
; 80   :  #endif /* _ITERATOR_DEBUG_LEVEL */
; 81   : 
; 82   : 		__analysis_assume(this->_Ptr != 0);
; 83   : 
; 84   : 		return (*this->_Ptr);

  00000	8b 01		 mov	 eax, DWORD PTR [ecx]

; 85   : 		}

  00002	c3		 ret	 0
??D?$_Vector_const_iterator@V?$_Vector_val@UCharInfoData@@V?$allocator@UCharInfoData@@@std@@@std@@@std@@QBEABUCharInfoData@@XZ ENDP ; std::_Vector_const_iterator<std::_Vector_val<CharInfoData,std::allocator<CharInfoData> > >::operator*
_TEXT	ENDS
PUBLIC	??E?$_Vector_const_iterator@V?$_Vector_val@UCharInfoData@@V?$allocator@UCharInfoData@@@std@@@std@@@std@@QAEAAV01@XZ ; std::_Vector_const_iterator<std::_Vector_val<CharInfoData,std::allocator<CharInfoData> > >::operator++
; Function compile flags: /Ogsp
;	COMDAT ??E?$_Vector_const_iterator@V?$_Vector_val@UCharInfoData@@V?$allocator@UCharInfoData@@@std@@@std@@@std@@QAEAAV01@XZ
_TEXT	SEGMENT
??E?$_Vector_const_iterator@V?$_Vector_val@UCharInfoData@@V?$allocator@UCharInfoData@@@std@@@std@@@std@@QAEAAV01@XZ PROC ; std::_Vector_const_iterator<std::_Vector_val<CharInfoData,std::allocator<CharInfoData> > >::operator++, COMDAT
; _this$ = ecx

; 93   : 		{	// preincrement

  00000	8b c1		 mov	 eax, ecx

; 94   :  #if _ITERATOR_DEBUG_LEVEL == 2
; 95   : 		if (this->_Getcont() == 0
; 96   : 			|| this->_Ptr == 0
; 97   : 			|| ((_Myvec *)this->_Getcont())->_Mylast <= this->_Ptr)
; 98   : 			{	// report error
; 99   : 			_DEBUG_ERROR("vector iterator not incrementable");
; 100  : 			_SCL_SECURE_OUT_OF_RANGE;
; 101  : 			}
; 102  : 
; 103  :  #elif _ITERATOR_DEBUG_LEVEL == 1
; 104  : 		_SCL_SECURE_VALIDATE(this->_Getcont() != 0);
; 105  : 		_SCL_SECURE_VALIDATE_RANGE(
; 106  : 			this->_Ptr != 0
; 107  : 			&& this->_Ptr < ((_Myvec *)this->_Getcont())->_Mylast);
; 108  :  #endif /* _ITERATOR_DEBUG_LEVEL */
; 109  : 
; 110  : 		++this->_Ptr;

  00002	81 00 c0 03 00
	00		 add	 DWORD PTR [eax], 960	; 000003c0H

; 111  : 		return (*this);
; 112  : 		}

  00008	c3		 ret	 0
??E?$_Vector_const_iterator@V?$_Vector_val@UCharInfoData@@V?$allocator@UCharInfoData@@@std@@@std@@@std@@QAEAAV01@XZ ENDP ; std::_Vector_const_iterator<std::_Vector_val<CharInfoData,std::allocator<CharInfoData> > >::operator++
_TEXT	ENDS
PUBLIC	??0?$_Vector_const_iterator@V?$_Vector_val@PAVUserInfoNode@@V?$allocator@PAVUserInfoNode@@@std@@@std@@@std@@QAE@XZ ; std::_Vector_const_iterator<std::_Vector_val<UserInfoNode *,std::allocator<UserInfoNode *> > >::_Vector_const_iterator<std::_Vector_val<UserInfoNode *,std::allocator<UserInfoNode *> > >
; Function compile flags: /Ogsp
;	COMDAT ??0?$_Vector_const_iterator@V?$_Vector_val@PAVUserInfoNode@@V?$allocator@PAVUserInfoNode@@@std@@@std@@@std@@QAE@XZ
_TEXT	SEGMENT
??0?$_Vector_const_iterator@V?$_Vector_val@PAVUserInfoNode@@V?$allocator@PAVUserInfoNode@@@std@@@std@@@std@@QAE@XZ PROC ; std::_Vector_const_iterator<std::_Vector_val<UserInfoNode *,std::allocator<UserInfoNode *> > >::_Vector_const_iterator<std::_Vector_val<UserInfoNode *,std::allocator<UserInfoNode *> > >, COMDAT
; _this$ = ecx

; 40   : 		{	// construct with null pointer

  00000	8b c1		 mov	 eax, ecx
  00002	83 20 00	 and	 DWORD PTR [eax], 0

; 41   : 		}

  00005	c3		 ret	 0
??0?$_Vector_const_iterator@V?$_Vector_val@PAVUserInfoNode@@V?$allocator@PAVUserInfoNode@@@std@@@std@@@std@@QAE@XZ ENDP ; std::_Vector_const_iterator<std::_Vector_val<UserInfoNode *,std::allocator<UserInfoNode *> > >::_Vector_const_iterator<std::_Vector_val<UserInfoNode *,std::allocator<UserInfoNode *> > >
_TEXT	ENDS
PUBLIC	??D?$_Vector_const_iterator@V?$_Vector_val@PAVUserInfoNode@@V?$allocator@PAVUserInfoNode@@@std@@@std@@@std@@QBEABQAVUserInfoNode@@XZ ; std::_Vector_const_iterator<std::_Vector_val<UserInfoNode *,std::allocator<UserInfoNode *> > >::operator*
; Function compile flags: /Ogsp
;	COMDAT ??D?$_Vector_const_iterator@V?$_Vector_val@PAVUserInfoNode@@V?$allocator@PAVUserInfoNode@@@std@@@std@@@std@@QBEABQAVUserInfoNode@@XZ
_TEXT	SEGMENT
??D?$_Vector_const_iterator@V?$_Vector_val@PAVUserInfoNode@@V?$allocator@PAVUserInfoNode@@@std@@@std@@@std@@QBEABQAVUserInfoNode@@XZ PROC ; std::_Vector_const_iterator<std::_Vector_val<UserInfoNode *,std::allocator<UserInfoNode *> > >::operator*, COMDAT
; _this$ = ecx

; 64   :  #if _ITERATOR_DEBUG_LEVEL == 2
; 65   : 		if (this->_Getcont() == 0
; 66   : 			|| this->_Ptr == 0
; 67   : 			|| this->_Ptr < ((_Myvec *)this->_Getcont())->_Myfirst
; 68   : 			|| ((_Myvec *)this->_Getcont())->_Mylast <= this->_Ptr)
; 69   : 			{	// report error
; 70   : 			_DEBUG_ERROR("vector iterator not dereferencable");
; 71   : 			_SCL_SECURE_OUT_OF_RANGE;
; 72   : 			}
; 73   : 
; 74   :  #elif _ITERATOR_DEBUG_LEVEL == 1
; 75   : 		_SCL_SECURE_VALIDATE(this->_Getcont() != 0);
; 76   : 		_SCL_SECURE_VALIDATE_RANGE(
; 77   : 			this->_Ptr != 0
; 78   : 			&& ((_Myvec *)this->_Getcont())->_Myfirst <= this->_Ptr
; 79   : 			&& this->_Ptr < ((_Myvec *)this->_Getcont())->_Mylast);
; 80   :  #endif /* _ITERATOR_DEBUG_LEVEL */
; 81   : 
; 82   : 		__analysis_assume(this->_Ptr != 0);
; 83   : 
; 84   : 		return (*this->_Ptr);

  00000	8b 01		 mov	 eax, DWORD PTR [ecx]

; 85   : 		}

  00002	c3		 ret	 0
??D?$_Vector_const_iterator@V?$_Vector_val@PAVUserInfoNode@@V?$allocator@PAVUserInfoNode@@@std@@@std@@@std@@QBEABQAVUserInfoNode@@XZ ENDP ; std::_Vector_const_iterator<std::_Vector_val<UserInfoNode *,std::allocator<UserInfoNode *> > >::operator*
_TEXT	ENDS
PUBLIC	??E?$_Vector_const_iterator@V?$_Vector_val@PAVUserInfoNode@@V?$allocator@PAVUserInfoNode@@@std@@@std@@@std@@QAEAAV01@XZ ; std::_Vector_const_iterator<std::_Vector_val<UserInfoNode *,std::allocator<UserInfoNode *> > >::operator++
; Function compile flags: /Ogsp
;	COMDAT ??E?$_Vector_const_iterator@V?$_Vector_val@PAVUserInfoNode@@V?$allocator@PAVUserInfoNode@@@std@@@std@@@std@@QAEAAV01@XZ
_TEXT	SEGMENT
??E?$_Vector_const_iterator@V?$_Vector_val@PAVUserInfoNode@@V?$allocator@PAVUserInfoNode@@@std@@@std@@@std@@QAEAAV01@XZ PROC ; std::_Vector_const_iterator<std::_Vector_val<UserInfoNode *,std::allocator<UserInfoNode *> > >::operator++, COMDAT
; _this$ = ecx

; 93   : 		{	// preincrement

  00000	8b c1		 mov	 eax, ecx

; 94   :  #if _ITERATOR_DEBUG_LEVEL == 2
; 95   : 		if (this->_Getcont() == 0
; 96   : 			|| this->_Ptr == 0
; 97   : 			|| ((_Myvec *)this->_Getcont())->_Mylast <= this->_Ptr)
; 98   : 			{	// report error
; 99   : 			_DEBUG_ERROR("vector iterator not incrementable");
; 100  : 			_SCL_SECURE_OUT_OF_RANGE;
; 101  : 			}
; 102  : 
; 103  :  #elif _ITERATOR_DEBUG_LEVEL == 1
; 104  : 		_SCL_SECURE_VALIDATE(this->_Getcont() != 0);
; 105  : 		_SCL_SECURE_VALIDATE_RANGE(
; 106  : 			this->_Ptr != 0
; 107  : 			&& this->_Ptr < ((_Myvec *)this->_Getcont())->_Mylast);
; 108  :  #endif /* _ITERATOR_DEBUG_LEVEL */
; 109  : 
; 110  : 		++this->_Ptr;

  00002	83 00 04	 add	 DWORD PTR [eax], 4

; 111  : 		return (*this);
; 112  : 		}

  00005	c3		 ret	 0
??E?$_Vector_const_iterator@V?$_Vector_val@PAVUserInfoNode@@V?$allocator@PAVUserInfoNode@@@std@@@std@@@std@@QAEAAV01@XZ ENDP ; std::_Vector_const_iterator<std::_Vector_val<UserInfoNode *,std::allocator<UserInfoNode *> > >::operator++
_TEXT	ENDS
PUBLIC	?capacity@?$vector@UCharInfoData@@V?$allocator@UCharInfoData@@@std@@@std@@QBEIXZ ; std::vector<CharInfoData,std::allocator<CharInfoData> >::capacity
; Function compile flags: /Ogsp
;	COMDAT ?capacity@?$vector@UCharInfoData@@V?$allocator@UCharInfoData@@@std@@@std@@QBEIXZ
_TEXT	SEGMENT
?capacity@?$vector@UCharInfoData@@V?$allocator@UCharInfoData@@@std@@@std@@QBEIXZ PROC ; std::vector<CharInfoData,std::allocator<CharInfoData> >::capacity, COMDAT
; _this$ = ecx

; 777  : 		return (this->_Myend - this->_Myfirst);

  00000	8b 41 08	 mov	 eax, DWORD PTR [ecx+8]
  00003	2b 01		 sub	 eax, DWORD PTR [ecx]
  00005	b9 c0 03 00 00	 mov	 ecx, 960		; 000003c0H
  0000a	99		 cdq
  0000b	f7 f9		 idiv	 ecx

; 778  : 		}

  0000d	c3		 ret	 0
?capacity@?$vector@UCharInfoData@@V?$allocator@UCharInfoData@@@std@@@std@@QBEIXZ ENDP ; std::vector<CharInfoData,std::allocator<CharInfoData> >::capacity
_TEXT	ENDS
PUBLIC	??_C@_0BD@OLBABOEK@vector?$DMT?$DO?5too?5long?$AA@ ; `string'
PUBLIC	?_Xlen@?$vector@UCharInfoData@@V?$allocator@UCharInfoData@@@std@@@std@@IBEXXZ ; std::vector<CharInfoData,std::allocator<CharInfoData> >::_Xlen
EXTRN	__imp_?_Xlength_error@std@@YAXPBD@Z:PROC
;	COMDAT ??_C@_0BD@OLBABOEK@vector?$DMT?$DO?5too?5long?$AA@
CONST	SEGMENT
??_C@_0BD@OLBABOEK@vector?$DMT?$DO?5too?5long?$AA@ DB 'vector<T> too long'
	DB	00H						; `string'
; Function compile flags: /Ogsp
CONST	ENDS
;	COMDAT ?_Xlen@?$vector@UCharInfoData@@V?$allocator@UCharInfoData@@@std@@@std@@IBEXXZ
_TEXT	SEGMENT
?_Xlen@?$vector@UCharInfoData@@V?$allocator@UCharInfoData@@@std@@@std@@IBEXXZ PROC ; std::vector<CharInfoData,std::allocator<CharInfoData> >::_Xlen, COMDAT
; _this$ = ecx

; 1427 : 		_Xlength_error("vector<T> too long");

  00000	68 00 00 00 00	 push	 OFFSET ??_C@_0BD@OLBABOEK@vector?$DMT?$DO?5too?5long?$AA@
  00005	ff 15 00 00 00
	00		 call	 DWORD PTR __imp_?_Xlength_error@std@@YAXPBD@Z
$LN4@Xlen:
$LN3@Xlen:
  0000b	cc		 int	 3
?_Xlen@?$vector@UCharInfoData@@V?$allocator@UCharInfoData@@@std@@@std@@IBEXXZ ENDP ; std::vector<CharInfoData,std::allocator<CharInfoData> >::_Xlen
_TEXT	ENDS
PUBLIC	??0?$allocator@UCharInfoData@@@std@@QAE@ABV01@@Z ; std::allocator<CharInfoData>::allocator<CharInfoData>
; Function compile flags: /Ogsp
; File c:\program files (x86)\microsoft visual studio 10.0\vc\include\xmemory
;	COMDAT ??0?$allocator@UCharInfoData@@@std@@QAE@ABV01@@Z
_TEXT	SEGMENT
___formal$ = 8						; size = 4
??0?$allocator@UCharInfoData@@@std@@QAE@ABV01@@Z PROC	; std::allocator<CharInfoData>::allocator<CharInfoData>, COMDAT
; _this$ = ecx

; 165  : 	_ALLOCATOR(const _ALLOCATOR<_Ty>&) _THROW0()

  00000	8b c1		 mov	 eax, ecx

; 166  : 		{	// construct by copying (do nothing)
; 167  : 		}

  00002	c2 04 00	 ret	 4
??0?$allocator@UCharInfoData@@@std@@QAE@ABV01@@Z ENDP	; std::allocator<CharInfoData>::allocator<CharInfoData>
_TEXT	ENDS
PUBLIC	?deallocate@?$allocator@UCharInfoData@@@std@@QAEXPAUCharInfoData@@I@Z ; std::allocator<CharInfoData>::deallocate
; Function compile flags: /Ogsp
;	COMDAT ?deallocate@?$allocator@UCharInfoData@@@std@@QAEXPAUCharInfoData@@I@Z
_TEXT	SEGMENT
__Ptr$ = 8						; size = 4
___formal$ = 12						; size = 4
?deallocate@?$allocator@UCharInfoData@@@std@@QAEXPAUCharInfoData@@I@Z PROC ; std::allocator<CharInfoData>::deallocate, COMDAT
; _this$ = ecx

; 181  : 		{	// deallocate object at _Ptr, ignore size

  00000	55		 push	 ebp
  00001	8b ec		 mov	 ebp, esp

; 182  : 		::operator delete(_Ptr);

  00003	ff 75 08	 push	 DWORD PTR __Ptr$[ebp]
  00006	e8 00 00 00 00	 call	 ??3@YAXPAX@Z		; operator delete
  0000b	59		 pop	 ecx

; 183  : 		}

  0000c	5d		 pop	 ebp
  0000d	c2 08 00	 ret	 8
?deallocate@?$allocator@UCharInfoData@@@std@@QAEXPAUCharInfoData@@I@Z ENDP ; std::allocator<CharInfoData>::deallocate
_TEXT	ENDS
PUBLIC	?capacity@?$vector@PAVUserInfoNode@@V?$allocator@PAVUserInfoNode@@@std@@@std@@QBEIXZ ; std::vector<UserInfoNode *,std::allocator<UserInfoNode *> >::capacity
; Function compile flags: /Ogsp
; File c:\program files (x86)\microsoft visual studio 10.0\vc\include\vector
;	COMDAT ?capacity@?$vector@PAVUserInfoNode@@V?$allocator@PAVUserInfoNode@@@std@@@std@@QBEIXZ
_TEXT	SEGMENT
?capacity@?$vector@PAVUserInfoNode@@V?$allocator@PAVUserInfoNode@@@std@@@std@@QBEIXZ PROC ; std::vector<UserInfoNode *,std::allocator<UserInfoNode *> >::capacity, COMDAT
; _this$ = ecx

; 777  : 		return (this->_Myend - this->_Myfirst);

  00000	8b 41 08	 mov	 eax, DWORD PTR [ecx+8]
  00003	2b 01		 sub	 eax, DWORD PTR [ecx]
  00005	c1 f8 02	 sar	 eax, 2

; 778  : 		}

  00008	c3		 ret	 0
?capacity@?$vector@PAVUserInfoNode@@V?$allocator@PAVUserInfoNode@@@std@@@std@@QBEIXZ ENDP ; std::vector<UserInfoNode *,std::allocator<UserInfoNode *> >::capacity
_TEXT	ENDS
PUBLIC	?_Xlen@?$vector@PAVUserInfoNode@@V?$allocator@PAVUserInfoNode@@@std@@@std@@IBEXXZ ; std::vector<UserInfoNode *,std::allocator<UserInfoNode *> >::_Xlen
; Function compile flags: /Ogsp
;	COMDAT ?_Xlen@?$vector@PAVUserInfoNode@@V?$allocator@PAVUserInfoNode@@@std@@@std@@IBEXXZ
_TEXT	SEGMENT
?_Xlen@?$vector@PAVUserInfoNode@@V?$allocator@PAVUserInfoNode@@@std@@@std@@IBEXXZ PROC ; std::vector<UserInfoNode *,std::allocator<UserInfoNode *> >::_Xlen, COMDAT
; _this$ = ecx

; 1427 : 		_Xlength_error("vector<T> too long");

  00000	68 00 00 00 00	 push	 OFFSET ??_C@_0BD@OLBABOEK@vector?$DMT?$DO?5too?5long?$AA@
  00005	ff 15 00 00 00
	00		 call	 DWORD PTR __imp_?_Xlength_error@std@@YAXPBD@Z
$LN4@Xlen@2:
$LN3@Xlen@2:
  0000b	cc		 int	 3
?_Xlen@?$vector@PAVUserInfoNode@@V?$allocator@PAVUserInfoNode@@@std@@@std@@IBEXXZ ENDP ; std::vector<UserInfoNode *,std::allocator<UserInfoNode *> >::_Xlen
_TEXT	ENDS
PUBLIC	??0?$allocator@PAVUserInfoNode@@@std@@QAE@ABV01@@Z ; std::allocator<UserInfoNode *>::allocator<UserInfoNode *>
; Function compile flags: /Ogsp
; File c:\program files (x86)\microsoft visual studio 10.0\vc\include\xmemory
;	COMDAT ??0?$allocator@PAVUserInfoNode@@@std@@QAE@ABV01@@Z
_TEXT	SEGMENT
___formal$ = 8						; size = 4
??0?$allocator@PAVUserInfoNode@@@std@@QAE@ABV01@@Z PROC	; std::allocator<UserInfoNode *>::allocator<UserInfoNode *>, COMDAT
; _this$ = ecx

; 165  : 	_ALLOCATOR(const _ALLOCATOR<_Ty>&) _THROW0()

  00000	8b c1		 mov	 eax, ecx

; 166  : 		{	// construct by copying (do nothing)
; 167  : 		}

  00002	c2 04 00	 ret	 4
??0?$allocator@PAVUserInfoNode@@@std@@QAE@ABV01@@Z ENDP	; std::allocator<UserInfoNode *>::allocator<UserInfoNode *>
_TEXT	ENDS
PUBLIC	?deallocate@?$allocator@PAVUserInfoNode@@@std@@QAEXPAPAVUserInfoNode@@I@Z ; std::allocator<UserInfoNode *>::deallocate
; Function compile flags: /Ogsp
;	COMDAT ?deallocate@?$allocator@PAVUserInfoNode@@@std@@QAEXPAPAVUserInfoNode@@I@Z
_TEXT	SEGMENT
__Ptr$ = 8						; size = 4
___formal$ = 12						; size = 4
?deallocate@?$allocator@PAVUserInfoNode@@@std@@QAEXPAPAVUserInfoNode@@I@Z PROC ; std::allocator<UserInfoNode *>::deallocate, COMDAT
; _this$ = ecx

; 181  : 		{	// deallocate object at _Ptr, ignore size

  00000	55		 push	 ebp
  00001	8b ec		 mov	 ebp, esp

; 182  : 		::operator delete(_Ptr);

  00003	ff 75 08	 push	 DWORD PTR __Ptr$[ebp]
  00006	e8 00 00 00 00	 call	 ??3@YAXPAX@Z		; operator delete
  0000b	59		 pop	 ecx

; 183  : 		}

  0000c	5d		 pop	 ebp
  0000d	c2 08 00	 ret	 8
?deallocate@?$allocator@PAVUserInfoNode@@@std@@QAEXPAPAVUserInfoNode@@I@Z ENDP ; std::allocator<UserInfoNode *>::deallocate
_TEXT	ENDS
PUBLIC	??0?$_Vector_const_iterator@V?$_Vector_val@UCharInfoData@@V?$allocator@UCharInfoData@@@std@@@std@@@std@@QAE@PAUCharInfoData@@PBU_Container_base0@1@@Z ; std::_Vector_const_iterator<std::_Vector_val<CharInfoData,std::allocator<CharInfoData> > >::_Vector_const_iterator<std::_Vector_val<CharInfoData,std::allocator<CharInfoData> > >
; Function compile flags: /Ogsp
; File c:\program files (x86)\microsoft visual studio 10.0\vc\include\vector
;	COMDAT ??0?$_Vector_const_iterator@V?$_Vector_val@UCharInfoData@@V?$allocator@UCharInfoData@@@std@@@std@@@std@@QAE@PAUCharInfoData@@PBU_Container_base0@1@@Z
_TEXT	SEGMENT
__Parg$ = 8						; size = 4
__Pvector$ = 12						; size = 4
??0?$_Vector_const_iterator@V?$_Vector_val@UCharInfoData@@V?$allocator@UCharInfoData@@@std@@@std@@@std@@QAE@PAUCharInfoData@@PBU_Container_base0@1@@Z PROC ; std::_Vector_const_iterator<std::_Vector_val<CharInfoData,std::allocator<CharInfoData> > >::_Vector_const_iterator<std::_Vector_val<CharInfoData,std::allocator<CharInfoData> > >, COMDAT
; _this$ = ecx

; 45   : 		{	// construct with pointer _Parg

  00000	55		 push	 ebp
  00001	8b ec		 mov	 ebp, esp
  00003	8b c1		 mov	 eax, ecx
  00005	8b 4d 08	 mov	 ecx, DWORD PTR __Parg$[ebp]
  00008	89 08		 mov	 DWORD PTR [eax], ecx

; 46   : 		this->_Adopt(_Pvector);
; 47   : 		}

  0000a	5d		 pop	 ebp
  0000b	c2 08 00	 ret	 8
??0?$_Vector_const_iterator@V?$_Vector_val@UCharInfoData@@V?$allocator@UCharInfoData@@@std@@@std@@@std@@QAE@PAUCharInfoData@@PBU_Container_base0@1@@Z ENDP ; std::_Vector_const_iterator<std::_Vector_val<CharInfoData,std::allocator<CharInfoData> > >::_Vector_const_iterator<std::_Vector_val<CharInfoData,std::allocator<CharInfoData> > >
_TEXT	ENDS
PUBLIC	?_Compat@?$_Vector_const_iterator@V?$_Vector_val@UCharInfoData@@V?$allocator@UCharInfoData@@@std@@@std@@@std@@QBEXABV12@@Z ; std::_Vector_const_iterator<std::_Vector_val<CharInfoData,std::allocator<CharInfoData> > >::_Compat
; Function compile flags: /Ogsp
;	COMDAT ?_Compat@?$_Vector_const_iterator@V?$_Vector_val@UCharInfoData@@V?$allocator@UCharInfoData@@@std@@@std@@@std@@QBEXABV12@@Z
_TEXT	SEGMENT
___formal$ = 8						; size = 4
?_Compat@?$_Vector_const_iterator@V?$_Vector_val@UCharInfoData@@V?$allocator@UCharInfoData@@@std@@@std@@@std@@QBEXABV12@@Z PROC ; std::_Vector_const_iterator<std::_Vector_val<CharInfoData,std::allocator<CharInfoData> > >::_Compat, COMDAT
; _this$ = ecx

; 253  : 		}

  00000	c2 04 00	 ret	 4
?_Compat@?$_Vector_const_iterator@V?$_Vector_val@UCharInfoData@@V?$allocator@UCharInfoData@@@std@@@std@@@std@@QBEXABV12@@Z ENDP ; std::_Vector_const_iterator<std::_Vector_val<CharInfoData,std::allocator<CharInfoData> > >::_Compat
_TEXT	ENDS
PUBLIC	??0?$_Vector_const_iterator@V?$_Vector_val@PAVUserInfoNode@@V?$allocator@PAVUserInfoNode@@@std@@@std@@@std@@QAE@PAPAVUserInfoNode@@PBU_Container_base0@1@@Z ; std::_Vector_const_iterator<std::_Vector_val<UserInfoNode *,std::allocator<UserInfoNode *> > >::_Vector_const_iterator<std::_Vector_val<UserInfoNode *,std::allocator<UserInfoNode *> > >
; Function compile flags: /Ogsp
;	COMDAT ??0?$_Vector_const_iterator@V?$_Vector_val@PAVUserInfoNode@@V?$allocator@PAVUserInfoNode@@@std@@@std@@@std@@QAE@PAPAVUserInfoNode@@PBU_Container_base0@1@@Z
_TEXT	SEGMENT
__Parg$ = 8						; size = 4
__Pvector$ = 12						; size = 4
??0?$_Vector_const_iterator@V?$_Vector_val@PAVUserInfoNode@@V?$allocator@PAVUserInfoNode@@@std@@@std@@@std@@QAE@PAPAVUserInfoNode@@PBU_Container_base0@1@@Z PROC ; std::_Vector_const_iterator<std::_Vector_val<UserInfoNode *,std::allocator<UserInfoNode *> > >::_Vector_const_iterator<std::_Vector_val<UserInfoNode *,std::allocator<UserInfoNode *> > >, COMDAT
; _this$ = ecx

; 45   : 		{	// construct with pointer _Parg

  00000	55		 push	 ebp
  00001	8b ec		 mov	 ebp, esp
  00003	8b c1		 mov	 eax, ecx
  00005	8b 4d 08	 mov	 ecx, DWORD PTR __Parg$[ebp]
  00008	89 08		 mov	 DWORD PTR [eax], ecx

; 46   : 		this->_Adopt(_Pvector);
; 47   : 		}

  0000a	5d		 pop	 ebp
  0000b	c2 08 00	 ret	 8
??0?$_Vector_const_iterator@V?$_Vector_val@PAVUserInfoNode@@V?$allocator@PAVUserInfoNode@@@std@@@std@@@std@@QAE@PAPAVUserInfoNode@@PBU_Container_base0@1@@Z ENDP ; std::_Vector_const_iterator<std::_Vector_val<UserInfoNode *,std::allocator<UserInfoNode *> > >::_Vector_const_iterator<std::_Vector_val<UserInfoNode *,std::allocator<UserInfoNode *> > >
_TEXT	ENDS
PUBLIC	?_Compat@?$_Vector_const_iterator@V?$_Vector_val@PAVUserInfoNode@@V?$allocator@PAVUserInfoNode@@@std@@@std@@@std@@QBEXABV12@@Z ; std::_Vector_const_iterator<std::_Vector_val<UserInfoNode *,std::allocator<UserInfoNode *> > >::_Compat
; Function compile flags: /Ogsp
;	COMDAT ?_Compat@?$_Vector_const_iterator@V?$_Vector_val@PAVUserInfoNode@@V?$allocator@PAVUserInfoNode@@@std@@@std@@@std@@QBEXABV12@@Z
_TEXT	SEGMENT
___formal$ = 8						; size = 4
?_Compat@?$_Vector_const_iterator@V?$_Vector_val@PAVUserInfoNode@@V?$allocator@PAVUserInfoNode@@@std@@@std@@@std@@QBEXABV12@@Z PROC ; std::_Vector_const_iterator<std::_Vector_val<UserInfoNode *,std::allocator<UserInfoNode *> > >::_Compat, COMDAT
; _this$ = ecx

; 253  : 		}

  00000	c2 04 00	 ret	 4
?_Compat@?$_Vector_const_iterator@V?$_Vector_val@PAVUserInfoNode@@V?$allocator@PAVUserInfoNode@@@std@@@std@@@std@@QBEXABV12@@Z ENDP ; std::_Vector_const_iterator<std::_Vector_val<UserInfoNode *,std::allocator<UserInfoNode *> > >::_Compat
_TEXT	ENDS
PUBLIC	?max_size@?$allocator@UCharInfoData@@@std@@QBEIXZ ; std::allocator<CharInfoData>::max_size
; Function compile flags: /Ogsp
; File c:\program files (x86)\microsoft visual studio 10.0\vc\include\xmemory
;	COMDAT ?max_size@?$allocator@UCharInfoData@@@std@@QBEIXZ
_TEXT	SEGMENT
?max_size@?$allocator@UCharInfoData@@@std@@QBEIXZ PROC	; std::allocator<CharInfoData>::max_size, COMDAT
; _this$ = ecx

; 218  : 		_SIZT _Count = (_SIZT)(-1) / sizeof (_Ty);
; 219  : 		return (0 < _Count ? _Count : 1);

  00000	b8 44 44 44 00	 mov	 eax, 4473924		; 00444444H

; 220  : 		}

  00005	c3		 ret	 0
?max_size@?$allocator@UCharInfoData@@@std@@QBEIXZ ENDP	; std::allocator<CharInfoData>::max_size
_TEXT	ENDS
PUBLIC	?max_size@?$allocator@PAVUserInfoNode@@@std@@QBEIXZ ; std::allocator<UserInfoNode *>::max_size
; Function compile flags: /Ogsp
;	COMDAT ?max_size@?$allocator@PAVUserInfoNode@@@std@@QBEIXZ
_TEXT	SEGMENT
?max_size@?$allocator@PAVUserInfoNode@@@std@@QBEIXZ PROC ; std::allocator<UserInfoNode *>::max_size, COMDAT
; _this$ = ecx

; 218  : 		_SIZT _Count = (_SIZT)(-1) / sizeof (_Ty);
; 219  : 		return (0 < _Count ? _Count : 1);

  00000	b8 ff ff ff 3f	 mov	 eax, 1073741823		; 3fffffffH

; 220  : 		}

  00005	c3		 ret	 0
?max_size@?$allocator@PAVUserInfoNode@@@std@@QBEIXZ ENDP ; std::allocator<UserInfoNode *>::max_size
_TEXT	ENDS
PUBLIC	??$addressof@$$CBH@std@@YAPBHABH@Z		; std::addressof<int const >
; Function compile flags: /Ogsp
;	COMDAT ??$addressof@$$CBH@std@@YAPBHABH@Z
_TEXT	SEGMENT
__Val$ = 8						; size = 4
??$addressof@$$CBH@std@@YAPBHABH@Z PROC			; std::addressof<int const >, COMDAT

; 110  : 	{	// return address of _Val

  00000	55		 push	 ebp
  00001	8b ec		 mov	 ebp, esp

; 111  : 	return ((_Ty *) &(char&)_Val);

  00003	8b 45 08	 mov	 eax, DWORD PTR __Val$[ebp]

; 112  : 	}

  00006	5d		 pop	 ebp
  00007	c3		 ret	 0
??$addressof@$$CBH@std@@YAPBHABH@Z ENDP			; std::addressof<int const >
_TEXT	ENDS
PUBLIC	??$addressof@$$CBUCharInfoData@@@std@@YAPBUCharInfoData@@ABU1@@Z ; std::addressof<CharInfoData const >
; Function compile flags: /Ogsp
;	COMDAT ??$addressof@$$CBUCharInfoData@@@std@@YAPBUCharInfoData@@ABU1@@Z
_TEXT	SEGMENT
__Val$ = 8						; size = 4
??$addressof@$$CBUCharInfoData@@@std@@YAPBUCharInfoData@@ABU1@@Z PROC ; std::addressof<CharInfoData const >, COMDAT

; 110  : 	{	// return address of _Val

  00000	55		 push	 ebp
  00001	8b ec		 mov	 ebp, esp

; 111  : 	return ((_Ty *) &(char&)_Val);

  00003	8b 45 08	 mov	 eax, DWORD PTR __Val$[ebp]

; 112  : 	}

  00006	5d		 pop	 ebp
  00007	c3		 ret	 0
??$addressof@$$CBUCharInfoData@@@std@@YAPBUCharInfoData@@ABU1@@Z ENDP ; std::addressof<CharInfoData const >
_TEXT	ENDS
PUBLIC	??$addressof@QAVUserInfoNode@@@std@@YAPBQAVUserInfoNode@@ABQAV1@@Z ; std::addressof<UserInfoNode * const>
; Function compile flags: /Ogsp
;	COMDAT ??$addressof@QAVUserInfoNode@@@std@@YAPBQAVUserInfoNode@@ABQAV1@@Z
_TEXT	SEGMENT
__Val$ = 8						; size = 4
??$addressof@QAVUserInfoNode@@@std@@YAPBQAVUserInfoNode@@ABQAV1@@Z PROC ; std::addressof<UserInfoNode * const>, COMDAT

; 110  : 	{	// return address of _Val

  00000	55		 push	 ebp
  00001	8b ec		 mov	 ebp, esp

; 111  : 	return ((_Ty *) &(char&)_Val);

  00003	8b 45 08	 mov	 eax, DWORD PTR __Val$[ebp]

; 112  : 	}

  00006	5d		 pop	 ebp
  00007	c3		 ret	 0
??$addressof@QAVUserInfoNode@@@std@@YAPBQAVUserInfoNode@@ABQAV1@@Z ENDP ; std::addressof<UserInfoNode * const>
_TEXT	ENDS
PUBLIC	__TI2?AVbad_alloc@std@@
PUBLIC	??$_Allocate@UCharInfoData@@@std@@YAPAUCharInfoData@@IPAU1@@Z ; std::_Allocate<CharInfoData>
PUBLIC	__CTA2?AVbad_alloc@std@@
PUBLIC	__CT??_R0?AVbad_alloc@std@@@8??0bad_alloc@std@@QAE@ABV01@@Z12
PUBLIC	??0bad_alloc@std@@QAE@ABV01@@Z			; std::bad_alloc::bad_alloc
PUBLIC	__CT??_R0?AVexception@std@@@8??0exception@std@@QAE@ABV01@@Z12
EXTRN	??2@YAPAXI@Z:PROC				; operator new
EXTRN	__CxxThrowException@8:PROC
EXTRN	??0exception@std@@QAE@ABV01@@Z:PROC		; std::exception::exception
;	COMDAT __CT??_R0?AVexception@std@@@8??0exception@std@@QAE@ABV01@@Z12
; File c:\program files (x86)\microsoft visual studio 10.0\vc\include\exception
xdata$x	SEGMENT
__CT??_R0?AVexception@std@@@8??0exception@std@@QAE@ABV01@@Z12 DD 00H
	DD	FLAT:??_R0?AVexception@std@@@8
	DD	00H
	DD	0ffffffffH
	ORG $+4
	DD	0cH
	DD	FLAT:??0exception@std@@QAE@ABV01@@Z
xdata$x	ENDS
;	COMDAT __CT??_R0?AVbad_alloc@std@@@8??0bad_alloc@std@@QAE@ABV01@@Z12
xdata$x	SEGMENT
__CT??_R0?AVbad_alloc@std@@@8??0bad_alloc@std@@QAE@ABV01@@Z12 DD 00H
	DD	FLAT:??_R0?AVbad_alloc@std@@@8
	DD	00H
	DD	0ffffffffH
	ORG $+4
	DD	0cH
	DD	FLAT:??0bad_alloc@std@@QAE@ABV01@@Z
xdata$x	ENDS
;	COMDAT __CTA2?AVbad_alloc@std@@
xdata$x	SEGMENT
__CTA2?AVbad_alloc@std@@ DD 02H
	DD	FLAT:__CT??_R0?AVbad_alloc@std@@@8??0bad_alloc@std@@QAE@ABV01@@Z12
	DD	FLAT:__CT??_R0?AVexception@std@@@8??0exception@std@@QAE@ABV01@@Z12
xdata$x	ENDS
;	COMDAT __TI2?AVbad_alloc@std@@
xdata$x	SEGMENT
__TI2?AVbad_alloc@std@@ DD 00H
	DD	FLAT:??1bad_alloc@std@@UAE@XZ
	DD	00H
	DD	FLAT:__CTA2?AVbad_alloc@std@@
; Function compile flags: /Ogsp
; File c:\program files (x86)\microsoft visual studio 10.0\vc\include\xmemory
xdata$x	ENDS
;	COMDAT ??$_Allocate@UCharInfoData@@@std@@YAPAUCharInfoData@@IPAU1@@Z
_TEXT	SEGMENT
$T517963 = -12						; size = 12
$T517968 = 8						; size = 4
__Count$ = 8						; size = 4
___formal$ = 12						; size = 4
??$_Allocate@UCharInfoData@@@std@@YAPAUCharInfoData@@IPAU1@@Z PROC ; std::_Allocate<CharInfoData>, COMDAT

; 30   : 	{	// allocate storage for _Count elements of type _Ty

  00000	55		 push	 ebp
  00001	8b ec		 mov	 ebp, esp

; 31   : 	void *_Ptr = 0;
; 32   : 
; 33   : 	if (_Count <= 0)

  00003	8b 4d 08	 mov	 ecx, DWORD PTR __Count$[ebp]
  00006	83 ec 0c	 sub	 esp, 12			; 0000000cH
  00009	33 c0		 xor	 eax, eax
  0000b	85 c9		 test	 ecx, ecx

; 34   : 		_Count = 0;
; 35   : 	else if (((_SIZT)(-1) / sizeof (_Ty) < _Count)

  0000d	74 3f		 je	 SHORT $LN5@Allocate

; 36   : 		|| (_Ptr = ::operator new(_Count * sizeof (_Ty))) == 0)

  0000f	81 f9 44 44 44
	00		 cmp	 ecx, 4473924		; 00444444H
  00015	77 11		 ja	 SHORT $LN1@Allocate
  00017	69 c9 c0 03 00
	00		 imul	 ecx, 960		; 000003c0H
  0001d	51		 push	 ecx
  0001e	e8 00 00 00 00	 call	 ??2@YAPAXI@Z		; operator new
  00023	59		 pop	 ecx
  00024	85 c0		 test	 eax, eax

; 38   : 
; 39   : 	return ((_Ty _FARQ *)_Ptr);

  00026	75 26		 jne	 SHORT $LN5@Allocate
$LN1@Allocate:

; 37   : 		_THROW_NCEE(bad_alloc, 0);

  00028	83 65 08 00	 and	 DWORD PTR $T517968[ebp], 0
  0002c	8d 45 08	 lea	 eax, DWORD PTR $T517968[ebp]
  0002f	50		 push	 eax
  00030	8d 4d f4	 lea	 ecx, DWORD PTR $T517963[ebp]
  00033	ff 15 00 00 00
	00		 call	 DWORD PTR __imp_??0exception@std@@QAE@ABQBD@Z
  00039	68 00 00 00 00	 push	 OFFSET __TI2?AVbad_alloc@std@@
  0003e	8d 45 f4	 lea	 eax, DWORD PTR $T517963[ebp]
  00041	50		 push	 eax
  00042	c7 45 f4 00 00
	00 00		 mov	 DWORD PTR $T517963[ebp], OFFSET ??_7bad_alloc@std@@6B@
  00049	e8 00 00 00 00	 call	 __CxxThrowException@8
$LN10@Allocate:
$LN5@Allocate:

; 40   : 	}

  0004e	c9		 leave
  0004f	c3		 ret	 0
$LN9@Allocate:
??$_Allocate@UCharInfoData@@@std@@YAPAUCharInfoData@@IPAU1@@Z ENDP ; std::_Allocate<CharInfoData>
_TEXT	ENDS
PUBLIC	??$_Allocate@PAVUserInfoNode@@@std@@YAPAPAVUserInfoNode@@IPAPAV1@@Z ; std::_Allocate<UserInfoNode *>
; Function compile flags: /Ogsp
;	COMDAT ??$_Allocate@PAVUserInfoNode@@@std@@YAPAPAVUserInfoNode@@IPAPAV1@@Z
_TEXT	SEGMENT
$T517973 = -12						; size = 12
$T517977 = 8						; size = 4
__Count$ = 8						; size = 4
___formal$ = 12						; size = 4
??$_Allocate@PAVUserInfoNode@@@std@@YAPAPAVUserInfoNode@@IPAPAV1@@Z PROC ; std::_Allocate<UserInfoNode *>, COMDAT

; 30   : 	{	// allocate storage for _Count elements of type _Ty

  00000	55		 push	 ebp
  00001	8b ec		 mov	 ebp, esp

; 31   : 	void *_Ptr = 0;
; 32   : 
; 33   : 	if (_Count <= 0)

  00003	8b 4d 08	 mov	 ecx, DWORD PTR __Count$[ebp]
  00006	83 ec 0c	 sub	 esp, 12			; 0000000cH
  00009	33 c0		 xor	 eax, eax
  0000b	85 c9		 test	 ecx, ecx

; 34   : 		_Count = 0;
; 35   : 	else if (((_SIZT)(-1) / sizeof (_Ty) < _Count)

  0000d	74 3e		 je	 SHORT $LN5@Allocate@2

; 36   : 		|| (_Ptr = ::operator new(_Count * sizeof (_Ty))) == 0)

  0000f	81 f9 ff ff ff
	3f		 cmp	 ecx, 1073741823		; 3fffffffH
  00015	77 10		 ja	 SHORT $LN1@Allocate@2
  00017	8b c1		 mov	 eax, ecx
  00019	c1 e0 02	 shl	 eax, 2
  0001c	50		 push	 eax
  0001d	e8 00 00 00 00	 call	 ??2@YAPAXI@Z		; operator new
  00022	59		 pop	 ecx
  00023	85 c0		 test	 eax, eax

; 38   : 
; 39   : 	return ((_Ty _FARQ *)_Ptr);

  00025	75 26		 jne	 SHORT $LN5@Allocate@2
$LN1@Allocate@2:

; 37   : 		_THROW_NCEE(bad_alloc, 0);

  00027	83 65 08 00	 and	 DWORD PTR $T517977[ebp], 0
  0002b	8d 45 08	 lea	 eax, DWORD PTR $T517977[ebp]
  0002e	50		 push	 eax
  0002f	8d 4d f4	 lea	 ecx, DWORD PTR $T517973[ebp]
  00032	ff 15 00 00 00
	00		 call	 DWORD PTR __imp_??0exception@std@@QAE@ABQBD@Z
  00038	68 00 00 00 00	 push	 OFFSET __TI2?AVbad_alloc@std@@
  0003d	8d 45 f4	 lea	 eax, DWORD PTR $T517973[ebp]
  00040	50		 push	 eax
  00041	c7 45 f4 00 00
	00 00		 mov	 DWORD PTR $T517973[ebp], OFFSET ??_7bad_alloc@std@@6B@
  00048	e8 00 00 00 00	 call	 __CxxThrowException@8
$LN10@Allocate@2:
$LN5@Allocate@2:

; 40   : 	}

  0004d	c9		 leave
  0004e	c3		 ret	 0
$LN9@Allocate@2:
??$_Allocate@PAVUserInfoNode@@@std@@YAPAPAVUserInfoNode@@IPAPAV1@@Z ENDP ; std::_Allocate<UserInfoNode *>
_TEXT	ENDS
PUBLIC	??G?$_Vector_const_iterator@V?$_Vector_val@UCharInfoData@@V?$allocator@UCharInfoData@@@std@@@std@@@std@@QBEHABV01@@Z ; std::_Vector_const_iterator<std::_Vector_val<CharInfoData,std::allocator<CharInfoData> > >::operator-
; Function compile flags: /Ogsp
; File c:\program files (x86)\microsoft visual studio 10.0\vc\include\vector
;	COMDAT ??G?$_Vector_const_iterator@V?$_Vector_val@UCharInfoData@@V?$allocator@UCharInfoData@@@std@@@std@@@std@@QBEHABV01@@Z
_TEXT	SEGMENT
__Right$ = 8						; size = 4
??G?$_Vector_const_iterator@V?$_Vector_val@UCharInfoData@@V?$allocator@UCharInfoData@@@std@@@std@@@std@@QBEHABV01@@Z PROC ; std::_Vector_const_iterator<std::_Vector_val<CharInfoData,std::allocator<CharInfoData> > >::operator-, COMDAT
; _this$ = ecx

; 190  : 		{	// return difference of iterators

  00000	55		 push	 ebp
  00001	8b ec		 mov	 ebp, esp

; 191  : 		_Compat(_Right);
; 192  : 		return (this->_Ptr - _Right._Ptr);

  00003	8b 01		 mov	 eax, DWORD PTR [ecx]
  00005	8b 4d 08	 mov	 ecx, DWORD PTR __Right$[ebp]
  00008	2b 01		 sub	 eax, DWORD PTR [ecx]
  0000a	b9 c0 03 00 00	 mov	 ecx, 960		; 000003c0H
  0000f	99		 cdq
  00010	f7 f9		 idiv	 ecx

; 193  : 		}

  00012	5d		 pop	 ebp
  00013	c2 04 00	 ret	 4
??G?$_Vector_const_iterator@V?$_Vector_val@UCharInfoData@@V?$allocator@UCharInfoData@@@std@@@std@@@std@@QBEHABV01@@Z ENDP ; std::_Vector_const_iterator<std::_Vector_val<CharInfoData,std::allocator<CharInfoData> > >::operator-
_TEXT	ENDS
PUBLIC	??$_Copy_impl@PAHPAH@std@@YAPAHPAH00U_Scalar_ptr_iterator_tag@0@@Z ; std::_Copy_impl<int *,int *>
EXTRN	__imp__memmove:PROC
; Function compile flags: /Ogsp
; File c:\program files (x86)\microsoft visual studio 10.0\vc\include\xutility
;	COMDAT ??$_Copy_impl@PAHPAH@std@@YAPAHPAH00U_Scalar_ptr_iterator_tag@0@@Z
_TEXT	SEGMENT
__First$ = 8						; size = 4
__Last$ = 12						; size = 4
__Dest$ = 16						; size = 4
___formal$ = 20						; size = 1
??$_Copy_impl@PAHPAH@std@@YAPAHPAH00U_Scalar_ptr_iterator_tag@0@@Z PROC ; std::_Copy_impl<int *,int *>, COMDAT

; 2152 : 	{	// copy [_First, _Last) to [_Dest, ...), pointers to scalars

  00000	55		 push	 ebp
  00001	8b ec		 mov	 ebp, esp
  00003	56		 push	 esi

; 2153 : 	ptrdiff_t _Count = _Last - _First;

  00004	8b 75 0c	 mov	 esi, DWORD PTR __Last$[ebp]
  00007	2b 75 08	 sub	 esi, DWORD PTR __First$[ebp]
  0000a	57		 push	 edi

; 2154 : 	_CSTD memmove(&*_Dest, &*_First,
; 2155 : 		_Count * sizeof (*_First));

  0000b	8b 7d 10	 mov	 edi, DWORD PTR __Dest$[ebp]
  0000e	c1 fe 02	 sar	 esi, 2
  00011	c1 e6 02	 shl	 esi, 2
  00014	56		 push	 esi
  00015	ff 75 08	 push	 DWORD PTR __First$[ebp]
  00018	57		 push	 edi
  00019	ff 15 00 00 00
	00		 call	 DWORD PTR __imp__memmove
  0001f	83 c4 0c	 add	 esp, 12			; 0000000cH

; 2156 : 	return (_Dest + _Count);

  00022	8d 04 3e	 lea	 eax, DWORD PTR [esi+edi]
  00025	5f		 pop	 edi
  00026	5e		 pop	 esi

; 2157 : 	}

  00027	5d		 pop	 ebp
  00028	c3		 ret	 0
??$_Copy_impl@PAHPAH@std@@YAPAHPAH00U_Scalar_ptr_iterator_tag@0@@Z ENDP ; std::_Copy_impl<int *,int *>
_TEXT	ENDS
PUBLIC	??$forward@ABH@std@@YAABHABH@Z			; std::forward<int const &>
; Function compile flags: /Ogsp
; File c:\program files (x86)\microsoft visual studio 10.0\vc\include\utility
;	COMDAT ??$forward@ABH@std@@YAABHABH@Z
_TEXT	SEGMENT
__Arg$ = 8						; size = 4
??$forward@ABH@std@@YAABHABH@Z PROC			; std::forward<int const &>, COMDAT

; 78   : 	{	// forward _Arg, given explicitly specified type parameter

  00000	55		 push	 ebp
  00001	8b ec		 mov	 ebp, esp

; 79   : 	return ((_Ty&&)_Arg);

  00003	8b 45 08	 mov	 eax, DWORD PTR __Arg$[ebp]

; 80   : 	}

  00006	5d		 pop	 ebp
  00007	c3		 ret	 0
??$forward@ABH@std@@YAABHABH@Z ENDP			; std::forward<int const &>
_TEXT	ENDS
PUBLIC	??$forward@AAUCharInfoData@@@std@@YAAAUCharInfoData@@AAU1@@Z ; std::forward<CharInfoData &>
; Function compile flags: /Ogsp
;	COMDAT ??$forward@AAUCharInfoData@@@std@@YAAAUCharInfoData@@AAU1@@Z
_TEXT	SEGMENT
__Arg$ = 8						; size = 4
??$forward@AAUCharInfoData@@@std@@YAAAUCharInfoData@@AAU1@@Z PROC ; std::forward<CharInfoData &>, COMDAT

; 78   : 	{	// forward _Arg, given explicitly specified type parameter

  00000	55		 push	 ebp
  00001	8b ec		 mov	 ebp, esp

; 79   : 	return ((_Ty&&)_Arg);

  00003	8b 45 08	 mov	 eax, DWORD PTR __Arg$[ebp]

; 80   : 	}

  00006	5d		 pop	 ebp
  00007	c3		 ret	 0
??$forward@AAUCharInfoData@@@std@@YAAAUCharInfoData@@AAU1@@Z ENDP ; std::forward<CharInfoData &>
_TEXT	ENDS
PUBLIC	??$forward@ABUCharInfoData@@@std@@YAABUCharInfoData@@ABU1@@Z ; std::forward<CharInfoData const &>
; Function compile flags: /Ogsp
;	COMDAT ??$forward@ABUCharInfoData@@@std@@YAABUCharInfoData@@ABU1@@Z
_TEXT	SEGMENT
__Arg$ = 8						; size = 4
??$forward@ABUCharInfoData@@@std@@YAABUCharInfoData@@ABU1@@Z PROC ; std::forward<CharInfoData const &>, COMDAT

; 78   : 	{	// forward _Arg, given explicitly specified type parameter

  00000	55		 push	 ebp
  00001	8b ec		 mov	 ebp, esp

; 79   : 	return ((_Ty&&)_Arg);

  00003	8b 45 08	 mov	 eax, DWORD PTR __Arg$[ebp]

; 80   : 	}

  00006	5d		 pop	 ebp
  00007	c3		 ret	 0
??$forward@ABUCharInfoData@@@std@@YAABUCharInfoData@@ABU1@@Z ENDP ; std::forward<CharInfoData const &>
_TEXT	ENDS
PUBLIC	??$_Ptr_cat@UCharInfoData@@U1@@std@@YA?AU_Nonscalar_ptr_iterator_tag@0@PAUCharInfoData@@0@Z ; std::_Ptr_cat<CharInfoData,CharInfoData>
; Function compile flags: /Ogsp
; File c:\program files (x86)\microsoft visual studio 10.0\vc\include\xutility
;	COMDAT ??$_Ptr_cat@UCharInfoData@@U1@@std@@YA?AU_Nonscalar_ptr_iterator_tag@0@PAUCharInfoData@@0@Z
_TEXT	SEGMENT
__Cat$ = -1						; size = 1
___formal$ = 8						; size = 4
___formal$ = 12						; size = 4
??$_Ptr_cat@UCharInfoData@@U1@@std@@YA?AU_Nonscalar_ptr_iterator_tag@0@PAUCharInfoData@@0@Z PROC ; std::_Ptr_cat<CharInfoData,CharInfoData>, COMDAT

; 516  : 	{	// return pointer category from pointers

  00000	55		 push	 ebp
  00001	8b ec		 mov	 ebp, esp
  00003	51		 push	 ecx

; 517  : 	typename _Ptr_cat_helper<_Elem1, _Elem2>::_Type _Cat;
; 518  : 	return (_Cat);

  00004	8a 45 ff	 mov	 al, BYTE PTR __Cat$[ebp]

; 519  : 	}

  00007	c9		 leave
  00008	c3		 ret	 0
??$_Ptr_cat@UCharInfoData@@U1@@std@@YA?AU_Nonscalar_ptr_iterator_tag@0@PAUCharInfoData@@0@Z ENDP ; std::_Ptr_cat<CharInfoData,CharInfoData>
_TEXT	ENDS
PUBLIC	??$forward@AAPAVUserInfoNode@@@std@@YAAAPAVUserInfoNode@@AAPAV1@@Z ; std::forward<UserInfoNode * &>
; Function compile flags: /Ogsp
; File c:\program files (x86)\microsoft visual studio 10.0\vc\include\utility
;	COMDAT ??$forward@AAPAVUserInfoNode@@@std@@YAAAPAVUserInfoNode@@AAPAV1@@Z
_TEXT	SEGMENT
__Arg$ = 8						; size = 4
??$forward@AAPAVUserInfoNode@@@std@@YAAAPAVUserInfoNode@@AAPAV1@@Z PROC ; std::forward<UserInfoNode * &>, COMDAT

; 78   : 	{	// forward _Arg, given explicitly specified type parameter

  00000	55		 push	 ebp
  00001	8b ec		 mov	 ebp, esp

; 79   : 	return ((_Ty&&)_Arg);

  00003	8b 45 08	 mov	 eax, DWORD PTR __Arg$[ebp]

; 80   : 	}

  00006	5d		 pop	 ebp
  00007	c3		 ret	 0
??$forward@AAPAVUserInfoNode@@@std@@YAAAPAVUserInfoNode@@AAPAV1@@Z ENDP ; std::forward<UserInfoNode * &>
_TEXT	ENDS
PUBLIC	??$construct@AAPAVUserInfoNode@@@?$allocator@PAVUserInfoNode@@@std@@QAEXPAPAVUserInfoNode@@AAPAV2@@Z ; std::allocator<UserInfoNode *>::construct<UserInfoNode * &>
; Function compile flags: /Ogsp
; File c:\program files (x86)\microsoft visual studio 10.0\vc\include\xmemory
;	COMDAT ??$construct@AAPAVUserInfoNode@@@?$allocator@PAVUserInfoNode@@@std@@QAEXPAPAVUserInfoNode@@AAPAV2@@Z
_TEXT	SEGMENT
__Ptr$ = 8						; size = 4
__Val$ = 12						; size = 4
??$construct@AAPAVUserInfoNode@@@?$allocator@PAVUserInfoNode@@@std@@QAEXPAPAVUserInfoNode@@AAPAV2@@Z PROC ; std::allocator<UserInfoNode *>::construct<UserInfoNode * &>, COMDAT
; _this$ = ecx

; 206  : 		void construct(pointer _Ptr, _Other&& _Val)

  00000	55		 push	 ebp
  00001	8b ec		 mov	 ebp, esp

; 207  : 		{	// construct object at _Ptr with value _Val
; 208  : 		::new ((void _FARQ *)_Ptr) _Ty(_STD forward<_Other>(_Val));

  00003	8b 45 08	 mov	 eax, DWORD PTR __Ptr$[ebp]
  00006	85 c0		 test	 eax, eax
  00008	74 07		 je	 SHORT $LN3@construct
  0000a	8b 4d 0c	 mov	 ecx, DWORD PTR __Val$[ebp]
  0000d	8b 09		 mov	 ecx, DWORD PTR [ecx]
  0000f	89 08		 mov	 DWORD PTR [eax], ecx
$LN3@construct:

; 209  : 		}

  00011	5d		 pop	 ebp
  00012	c2 08 00	 ret	 8
??$construct@AAPAVUserInfoNode@@@?$allocator@PAVUserInfoNode@@@std@@QAEXPAPAVUserInfoNode@@AAPAV2@@Z ENDP ; std::allocator<UserInfoNode *>::construct<UserInfoNode * &>
_TEXT	ENDS
PUBLIC	??$forward@ABQAVUserInfoNode@@@std@@YAABQAVUserInfoNode@@ABQAV1@@Z ; std::forward<UserInfoNode * const &>
; Function compile flags: /Ogsp
; File c:\program files (x86)\microsoft visual studio 10.0\vc\include\utility
;	COMDAT ??$forward@ABQAVUserInfoNode@@@std@@YAABQAVUserInfoNode@@ABQAV1@@Z
_TEXT	SEGMENT
__Arg$ = 8						; size = 4
??$forward@ABQAVUserInfoNode@@@std@@YAABQAVUserInfoNode@@ABQAV1@@Z PROC ; std::forward<UserInfoNode * const &>, COMDAT

; 78   : 	{	// forward _Arg, given explicitly specified type parameter

  00000	55		 push	 ebp
  00001	8b ec		 mov	 ebp, esp

; 79   : 	return ((_Ty&&)_Arg);

  00003	8b 45 08	 mov	 eax, DWORD PTR __Arg$[ebp]

; 80   : 	}

  00006	5d		 pop	 ebp
  00007	c3		 ret	 0
??$forward@ABQAVUserInfoNode@@@std@@YAABQAVUserInfoNode@@ABQAV1@@Z ENDP ; std::forward<UserInfoNode * const &>
_TEXT	ENDS
PUBLIC	??$_Ptr_cat@PAVUserInfoNode@@PAV1@@std@@YA?AU_Scalar_ptr_iterator_tag@0@PAPAVUserInfoNode@@0@Z ; std::_Ptr_cat<UserInfoNode *,UserInfoNode *>
; Function compile flags: /Ogsp
; File c:\program files (x86)\microsoft visual studio 10.0\vc\include\xutility
;	COMDAT ??$_Ptr_cat@PAVUserInfoNode@@PAV1@@std@@YA?AU_Scalar_ptr_iterator_tag@0@PAPAVUserInfoNode@@0@Z
_TEXT	SEGMENT
__Cat$ = -1						; size = 1
___formal$ = 8						; size = 4
___formal$ = 12						; size = 4
??$_Ptr_cat@PAVUserInfoNode@@PAV1@@std@@YA?AU_Scalar_ptr_iterator_tag@0@PAPAVUserInfoNode@@0@Z PROC ; std::_Ptr_cat<UserInfoNode *,UserInfoNode *>, COMDAT

; 516  : 	{	// return pointer category from pointers

  00000	55		 push	 ebp
  00001	8b ec		 mov	 ebp, esp
  00003	51		 push	 ecx

; 517  : 	typename _Ptr_cat_helper<_Elem1, _Elem2>::_Type _Cat;
; 518  : 	return (_Cat);

  00004	8a 45 ff	 mov	 al, BYTE PTR __Cat$[ebp]

; 519  : 	}

  00007	c9		 leave
  00008	c3		 ret	 0
??$_Ptr_cat@PAVUserInfoNode@@PAV1@@std@@YA?AU_Scalar_ptr_iterator_tag@0@PAPAVUserInfoNode@@0@Z ENDP ; std::_Ptr_cat<UserInfoNode *,UserInfoNode *>
_TEXT	ENDS
PUBLIC	??$_Move@PAPAVUserInfoNode@@PAPAV1@@std@@YAPAPAVUserInfoNode@@PAPAV1@00U_Scalar_ptr_iterator_tag@0@@Z ; std::_Move<UserInfoNode * *,UserInfoNode * *>
; Function compile flags: /Ogsp
;	COMDAT ??$_Move@PAPAVUserInfoNode@@PAPAV1@@std@@YAPAPAVUserInfoNode@@PAPAV1@00U_Scalar_ptr_iterator_tag@0@@Z
_TEXT	SEGMENT
__First$ = 8						; size = 4
__Last$ = 12						; size = 4
__Dest$ = 16						; size = 4
___formal$ = 20						; size = 1
??$_Move@PAPAVUserInfoNode@@PAPAV1@@std@@YAPAPAVUserInfoNode@@PAPAV1@00U_Scalar_ptr_iterator_tag@0@@Z PROC ; std::_Move<UserInfoNode * *,UserInfoNode * *>, COMDAT

; 2522 : 	{	// move [_First, _Last) to [_Dest, ...), pointers to scalars

  00000	55		 push	 ebp
  00001	8b ec		 mov	 ebp, esp
  00003	56		 push	 esi

; 2523 : 	ptrdiff_t _Count = _Last - _First;

  00004	8b 75 0c	 mov	 esi, DWORD PTR __Last$[ebp]
  00007	2b 75 08	 sub	 esi, DWORD PTR __First$[ebp]
  0000a	57		 push	 edi

; 2524 : 	_CSTD memmove(&*_Dest, &*_First,
; 2525 : 		_Count * sizeof (*_First));

  0000b	8b 7d 10	 mov	 edi, DWORD PTR __Dest$[ebp]
  0000e	c1 fe 02	 sar	 esi, 2
  00011	c1 e6 02	 shl	 esi, 2
  00014	56		 push	 esi
  00015	ff 75 08	 push	 DWORD PTR __First$[ebp]
  00018	57		 push	 edi
  00019	ff 15 00 00 00
	00		 call	 DWORD PTR __imp__memmove
  0001f	83 c4 0c	 add	 esp, 12			; 0000000cH

; 2526 : 	return (_Dest + _Count);

  00022	8d 04 3e	 lea	 eax, DWORD PTR [esi+edi]
  00025	5f		 pop	 edi
  00026	5e		 pop	 esi

; 2527 : 	}

  00027	5d		 pop	 ebp
  00028	c3		 ret	 0
??$_Move@PAPAVUserInfoNode@@PAPAV1@@std@@YAPAPAVUserInfoNode@@PAPAV1@00U_Scalar_ptr_iterator_tag@0@@Z ENDP ; std::_Move<UserInfoNode * *,UserInfoNode * *>
_TEXT	ENDS
PUBLIC	??$_Destroy_range@V?$allocator@PAVUserInfoNode@@@std@@@std@@YAXPAPAVUserInfoNode@@0AAV?$allocator@PAVUserInfoNode@@@0@U_Scalar_ptr_iterator_tag@0@@Z ; std::_Destroy_range<std::allocator<UserInfoNode *> >
; Function compile flags: /Ogsp
; File c:\program files (x86)\microsoft visual studio 10.0\vc\include\xmemory
;	COMDAT ??$_Destroy_range@V?$allocator@PAVUserInfoNode@@@std@@@std@@YAXPAPAVUserInfoNode@@0AAV?$allocator@PAVUserInfoNode@@@0@U_Scalar_ptr_iterator_tag@0@@Z
_TEXT	SEGMENT
__First$ = 8						; size = 4
__Last$ = 12						; size = 4
__Al$ = 16						; size = 4
___formal$ = 20						; size = 1
??$_Destroy_range@V?$allocator@PAVUserInfoNode@@@std@@@std@@YAXPAPAVUserInfoNode@@0AAV?$allocator@PAVUserInfoNode@@@0@U_Scalar_ptr_iterator_tag@0@@Z PROC ; std::_Destroy_range<std::allocator<UserInfoNode *> >, COMDAT

; 105  : 	}

  00000	c3		 ret	 0
??$_Destroy_range@V?$allocator@PAVUserInfoNode@@@std@@@std@@YAXPAPAVUserInfoNode@@0AAV?$allocator@PAVUserInfoNode@@@0@U_Scalar_ptr_iterator_tag@0@@Z ENDP ; std::_Destroy_range<std::allocator<UserInfoNode *> >
_TEXT	ENDS
PUBLIC	??$_Construct@HABH@std@@YAXPAHABH@Z		; std::_Construct<int,int const &>
; Function compile flags: /Ogsp
;	COMDAT ??$_Construct@HABH@std@@YAXPAHABH@Z
_TEXT	SEGMENT
__Ptr$ = 8						; size = 4
__Val$ = 12						; size = 4
??$_Construct@HABH@std@@YAXPAHABH@Z PROC		; std::_Construct<int,int const &>, COMDAT

; 46   : 	{	// construct object at _Ptr with value _Val

  00000	55		 push	 ebp
  00001	8b ec		 mov	 ebp, esp

; 47   : 	void _FARQ *_Vptr = _Ptr;
; 48   : 	::new (_Vptr) _Ty1(_STD forward<_Ty2>(_Val));

  00003	8b 45 08	 mov	 eax, DWORD PTR __Ptr$[ebp]
  00006	85 c0		 test	 eax, eax
  00008	74 07		 je	 SHORT $LN3@Construct
  0000a	8b 4d 0c	 mov	 ecx, DWORD PTR __Val$[ebp]
  0000d	8b 09		 mov	 ecx, DWORD PTR [ecx]
  0000f	89 08		 mov	 DWORD PTR [eax], ecx
$LN3@Construct:

; 49   : 	}

  00011	5d		 pop	 ebp
  00012	c3		 ret	 0
??$_Construct@HABH@std@@YAXPAHABH@Z ENDP		; std::_Construct<int,int const &>
_TEXT	ENDS
PUBLIC	??$_Construct@PAVUserInfoNode@@ABQAV1@@std@@YAXPAPAVUserInfoNode@@ABQAV1@@Z ; std::_Construct<UserInfoNode *,UserInfoNode * const &>
; Function compile flags: /Ogsp
;	COMDAT ??$_Construct@PAVUserInfoNode@@ABQAV1@@std@@YAXPAPAVUserInfoNode@@ABQAV1@@Z
_TEXT	SEGMENT
__Ptr$ = 8						; size = 4
__Val$ = 12						; size = 4
??$_Construct@PAVUserInfoNode@@ABQAV1@@std@@YAXPAPAVUserInfoNode@@ABQAV1@@Z PROC ; std::_Construct<UserInfoNode *,UserInfoNode * const &>, COMDAT

; 46   : 	{	// construct object at _Ptr with value _Val

  00000	55		 push	 ebp
  00001	8b ec		 mov	 ebp, esp

; 47   : 	void _FARQ *_Vptr = _Ptr;
; 48   : 	::new (_Vptr) _Ty1(_STD forward<_Ty2>(_Val));

  00003	8b 45 08	 mov	 eax, DWORD PTR __Ptr$[ebp]
  00006	85 c0		 test	 eax, eax
  00008	74 07		 je	 SHORT $LN3@Construct@2
  0000a	8b 4d 0c	 mov	 ecx, DWORD PTR __Val$[ebp]
  0000d	8b 09		 mov	 ecx, DWORD PTR [ecx]
  0000f	89 08		 mov	 DWORD PTR [eax], ecx
$LN3@Construct@2:

; 49   : 	}

  00011	5d		 pop	 ebp
  00012	c3		 ret	 0
??$_Construct@PAVUserInfoNode@@ABQAV1@@std@@YAXPAPAVUserInfoNode@@ABQAV1@@Z ENDP ; std::_Construct<UserInfoNode *,UserInfoNode * const &>
_TEXT	ENDS
PUBLIC	??__G@YGXPAX0IHP6EPAX00@Z@Z			; `vector copy constructor iterator'
; Function compile flags: /Ogsp
;	COMDAT ??__G@YGXPAX0IHP6EPAX00@Z@Z
_TEXT	SEGMENT
___t$ = 8						; size = 4
___u$ = 12						; size = 4
___s$ = 16						; size = 4
___n$ = 20						; size = 4
___f$ = 24						; size = 4
??__G@YGXPAX0IHP6EPAX00@Z@Z PROC			; `vector copy constructor iterator', COMDAT
  00000	55		 push	 ebp
  00001	8b ec		 mov	 ebp, esp
  00003	ff 4d 14	 dec	 DWORD PTR ___n$[ebp]
  00006	78 1b		 js	 SHORT $LN1@vector
  00008	56		 push	 esi
  00009	8b 75 0c	 mov	 esi, DWORD PTR ___u$[ebp]
  0000c	57		 push	 edi
  0000d	8b 7d 08	 mov	 edi, DWORD PTR ___t$[ebp]
  00010	2b fe		 sub	 edi, esi
$LL2@vector:
  00012	56		 push	 esi
  00013	8d 0c 37	 lea	 ecx, DWORD PTR [edi+esi]
  00016	ff 55 18	 call	 DWORD PTR ___f$[ebp]
  00019	03 75 10	 add	 esi, DWORD PTR ___s$[ebp]
  0001c	ff 4d 14	 dec	 DWORD PTR ___n$[ebp]
  0001f	79 f1		 jns	 SHORT $LL2@vector
  00021	5f		 pop	 edi
  00022	5e		 pop	 esi
$LN1@vector:
  00023	5d		 pop	 ebp
  00024	c2 14 00	 ret	 20			; 00000014H
??__G@YGXPAX0IHP6EPAX00@Z@Z ENDP			; `vector copy constructor iterator'
_TEXT	ENDS
PUBLIC	?_Unchecked@?$_Vector_iterator@V?$_Vector_val@UCharInfoData@@V?$allocator@UCharInfoData@@@std@@@std@@@std@@QBEPAUCharInfoData@@XZ ; std::_Vector_iterator<std::_Vector_val<CharInfoData,std::allocator<CharInfoData> > >::_Unchecked
; Function compile flags: /Ogsp
; File c:\program files (x86)\microsoft visual studio 10.0\vc\include\vector
;	COMDAT ?_Unchecked@?$_Vector_iterator@V?$_Vector_val@UCharInfoData@@V?$allocator@UCharInfoData@@@std@@@std@@@std@@QBEPAUCharInfoData@@XZ
_TEXT	SEGMENT
?_Unchecked@?$_Vector_iterator@V?$_Vector_val@UCharInfoData@@V?$allocator@UCharInfoData@@@std@@@std@@@std@@QBEPAUCharInfoData@@XZ PROC ; std::_Vector_iterator<std::_Vector_val<CharInfoData,std::allocator<CharInfoData> > >::_Unchecked, COMDAT
; _this$ = ecx

; 317  : 		return (_Unchecked_type(this->_Ptr));

  00000	8b 01		 mov	 eax, DWORD PTR [ecx]

; 318  : 		}

  00002	c3		 ret	 0
?_Unchecked@?$_Vector_iterator@V?$_Vector_val@UCharInfoData@@V?$allocator@UCharInfoData@@@std@@@std@@@std@@QBEPAUCharInfoData@@XZ ENDP ; std::_Vector_iterator<std::_Vector_val<CharInfoData,std::allocator<CharInfoData> > >::_Unchecked
_TEXT	ENDS
PUBLIC	??$_Uninit_copy@HH@std@@YAPAHPAH00AAV?$allocator@H@0@U_Scalar_ptr_iterator_tag@0@@Z ; std::_Uninit_copy<int,int>
; Function compile flags: /Ogsp
; File c:\program files (x86)\microsoft visual studio 10.0\vc\include\memory
;	COMDAT ??$_Uninit_copy@HH@std@@YAPAHPAH00AAV?$allocator@H@0@U_Scalar_ptr_iterator_tag@0@@Z
_TEXT	SEGMENT
__First$ = 8						; size = 4
__Last$ = 12						; size = 4
__Dest$ = 16						; size = 4
___formal$ = 20						; size = 4
___formal$ = 24						; size = 1
??$_Uninit_copy@HH@std@@YAPAHPAH00AAV?$allocator@H@0@U_Scalar_ptr_iterator_tag@0@@Z PROC ; std::_Uninit_copy<int,int>, COMDAT

; 399  : 	{	// copy [_First, _Last) to raw _Dest, scalar type

  00000	55		 push	 ebp
  00001	8b ec		 mov	 ebp, esp
  00003	56		 push	 esi

; 400  : 	_DEBUG_RANGE(_First, _Last);
; 401  : 	_DEBUG_POINTER(_Dest);
; 402  : 	size_t _Count = (size_t)(_Last - _First);

  00004	8b 75 0c	 mov	 esi, DWORD PTR __Last$[ebp]
  00007	2b 75 08	 sub	 esi, DWORD PTR __First$[ebp]
  0000a	c1 fe 02	 sar	 esi, 2

; 403  : 	return ((_Ty2 *)_CSTD memmove(&*_Dest, &*_First,
; 404  : 		_Count * sizeof (*_First)) + _Count);	// NB: non-overlapping move

  0000d	c1 e6 02	 shl	 esi, 2
  00010	56		 push	 esi
  00011	ff 75 08	 push	 DWORD PTR __First$[ebp]
  00014	ff 75 10	 push	 DWORD PTR __Dest$[ebp]
  00017	ff 15 00 00 00
	00		 call	 DWORD PTR __imp__memmove
  0001d	83 c4 0c	 add	 esp, 12			; 0000000cH
  00020	03 c6		 add	 eax, esi
  00022	5e		 pop	 esi

; 405  : 	}

  00023	5d		 pop	 ebp
  00024	c3		 ret	 0
??$_Uninit_copy@HH@std@@YAPAHPAH00AAV?$allocator@H@0@U_Scalar_ptr_iterator_tag@0@@Z ENDP ; std::_Uninit_copy<int,int>
_TEXT	ENDS
PUBLIC	??$move@AAUCharInfoData@@@std@@YA$$QAUCharInfoData@@AAU1@@Z ; std::move<CharInfoData &>
; Function compile flags: /Ogsp
; File c:\program files (x86)\microsoft visual studio 10.0\vc\include\utility
;	COMDAT ??$move@AAUCharInfoData@@@std@@YA$$QAUCharInfoData@@AAU1@@Z
_TEXT	SEGMENT
__Arg$ = 8						; size = 4
??$move@AAUCharInfoData@@@std@@YA$$QAUCharInfoData@@AAU1@@Z PROC ; std::move<CharInfoData &>, COMDAT

; 86   : 	{	// forward _Arg as movable

  00000	55		 push	 ebp
  00001	8b ec		 mov	 ebp, esp

; 87   : 	return ((typename tr1::_Remove_reference<_Ty>::_Type&&)_Arg);

  00003	8b 45 08	 mov	 eax, DWORD PTR __Arg$[ebp]

; 88   : 	}

  00006	5d		 pop	 ebp
  00007	c3		 ret	 0
??$move@AAUCharInfoData@@@std@@YA$$QAUCharInfoData@@AAU1@@Z ENDP ; std::move<CharInfoData &>
_TEXT	ENDS
PUBLIC	??$_Val_type@PAUCharInfoData@@@std@@YAPAUCharInfoData@@PAU1@@Z ; std::_Val_type<CharInfoData *>
; Function compile flags: /Ogsp
; File c:\program files (x86)\microsoft visual studio 10.0\vc\include\xutility
;	COMDAT ??$_Val_type@PAUCharInfoData@@@std@@YAPAUCharInfoData@@PAU1@@Z
_TEXT	SEGMENT
___formal$ = 8						; size = 4
??$_Val_type@PAUCharInfoData@@@std@@YAPAUCharInfoData@@PAU1@@Z PROC ; std::_Val_type<CharInfoData *>, COMDAT

; 790  : 	return (0);

  00000	33 c0		 xor	 eax, eax

; 791  : 	}

  00002	c3		 ret	 0
??$_Val_type@PAUCharInfoData@@@std@@YAPAUCharInfoData@@PAU1@@Z ENDP ; std::_Val_type<CharInfoData *>
_TEXT	ENDS
PUBLIC	??$_Val_type@PAPAVUserInfoNode@@@std@@YAPAPAVUserInfoNode@@PAPAV1@@Z ; std::_Val_type<UserInfoNode * *>
; Function compile flags: /Ogsp
;	COMDAT ??$_Val_type@PAPAVUserInfoNode@@@std@@YAPAPAVUserInfoNode@@PAPAV1@@Z
_TEXT	SEGMENT
___formal$ = 8						; size = 4
??$_Val_type@PAPAVUserInfoNode@@@std@@YAPAPAVUserInfoNode@@PAPAV1@@Z PROC ; std::_Val_type<UserInfoNode * *>, COMDAT

; 790  : 	return (0);

  00000	33 c0		 xor	 eax, eax

; 791  : 	}

  00002	c3		 ret	 0
??$_Val_type@PAPAVUserInfoNode@@@std@@YAPAPAVUserInfoNode@@PAPAV1@@Z ENDP ; std::_Val_type<UserInfoNode * *>
_TEXT	ENDS
PUBLIC	??$_Uninit_move@PAVUserInfoNode@@PAV1@PAV1@@std@@YAPAPAVUserInfoNode@@PAPAV1@00AAV?$allocator@PAVUserInfoNode@@@0@0U_Scalar_ptr_iterator_tag@0@@Z ; std::_Uninit_move<UserInfoNode *,UserInfoNode *,UserInfoNode *>
; Function compile flags: /Ogsp
; File c:\program files (x86)\microsoft visual studio 10.0\vc\include\memory
;	COMDAT ??$_Uninit_move@PAVUserInfoNode@@PAV1@PAV1@@std@@YAPAPAVUserInfoNode@@PAPAV1@00AAV?$allocator@PAVUserInfoNode@@@0@0U_Scalar_ptr_iterator_tag@0@@Z
_TEXT	SEGMENT
__First$ = 8						; size = 4
__Last$ = 12						; size = 4
__Dest$ = 16						; size = 4
___formal$ = 20						; size = 4
___formal$ = 24						; size = 4
___formal$ = 28						; size = 1
??$_Uninit_move@PAVUserInfoNode@@PAV1@PAV1@@std@@YAPAPAVUserInfoNode@@PAPAV1@00AAV?$allocator@PAVUserInfoNode@@@0@0U_Scalar_ptr_iterator_tag@0@@Z PROC ; std::_Uninit_move<UserInfoNode *,UserInfoNode *,UserInfoNode *>, COMDAT

; 456  : 	{	// move [_First, _Last) to raw _Dest, scalar type

  00000	55		 push	 ebp
  00001	8b ec		 mov	 ebp, esp
  00003	56		 push	 esi

; 457  : 	_DEBUG_RANGE(_First, _Last);
; 458  : 	_DEBUG_POINTER(_Dest);
; 459  : 	size_t _Count = (size_t)(_Last - _First);

  00004	8b 75 0c	 mov	 esi, DWORD PTR __Last$[ebp]
  00007	2b 75 08	 sub	 esi, DWORD PTR __First$[ebp]
  0000a	c1 fe 02	 sar	 esi, 2

; 460  : 	return ((_Ty2 *)_CSTD memmove(&*_Dest, &*_First,
; 461  : 		_Count * sizeof (*_First)) + _Count);	// NB: non-overlapping move

  0000d	c1 e6 02	 shl	 esi, 2
  00010	56		 push	 esi
  00011	ff 75 08	 push	 DWORD PTR __First$[ebp]
  00014	ff 75 10	 push	 DWORD PTR __Dest$[ebp]
  00017	ff 15 00 00 00
	00		 call	 DWORD PTR __imp__memmove
  0001d	83 c4 0c	 add	 esp, 12			; 0000000cH
  00020	03 c6		 add	 eax, esi
  00022	5e		 pop	 esi

; 462  : 	}

  00023	5d		 pop	 ebp
  00024	c3		 ret	 0
??$_Uninit_move@PAVUserInfoNode@@PAV1@PAV1@@std@@YAPAPAVUserInfoNode@@PAPAV1@00AAV?$allocator@PAVUserInfoNode@@@0@0U_Scalar_ptr_iterator_tag@0@@Z ENDP ; std::_Uninit_move<UserInfoNode *,UserInfoNode *,UserInfoNode *>
_TEXT	ENDS
PUBLIC	??$_Unchecked@PAUCharInfoData@@@std@@YAPAUCharInfoData@@PAU1@@Z ; std::_Unchecked<CharInfoData *>
; Function compile flags: /Ogsp
; File c:\program files (x86)\microsoft visual studio 10.0\vc\include\xutility
;	COMDAT ??$_Unchecked@PAUCharInfoData@@@std@@YAPAUCharInfoData@@PAU1@@Z
_TEXT	SEGMENT
__Src$ = 8						; size = 4
??$_Unchecked@PAUCharInfoData@@@std@@YAPAUCharInfoData@@PAU1@@Z PROC ; std::_Unchecked<CharInfoData *>, COMDAT

; 266  : 	{	// construct unchecked from checked, generic

  00000	55		 push	 ebp
  00001	8b ec		 mov	 ebp, esp

; 267  : 	return (_Src);

  00003	8b 45 08	 mov	 eax, DWORD PTR __Src$[ebp]

; 268  : 	}

  00006	5d		 pop	 ebp
  00007	c3		 ret	 0
??$_Unchecked@PAUCharInfoData@@@std@@YAPAUCharInfoData@@PAU1@@Z ENDP ; std::_Unchecked<CharInfoData *>
_TEXT	ENDS
PUBLIC	??$_Dist_type@PAUCharInfoData@@@std@@YAPAHPAUCharInfoData@@@Z ; std::_Dist_type<CharInfoData *>
; Function compile flags: /Ogsp
;	COMDAT ??$_Dist_type@PAUCharInfoData@@@std@@YAPAHPAUCharInfoData@@@Z
_TEXT	SEGMENT
___formal$ = 8						; size = 4
??$_Dist_type@PAUCharInfoData@@@std@@YAPAHPAUCharInfoData@@@Z PROC ; std::_Dist_type<CharInfoData *>, COMDAT

; 850  : 	return (0);

  00000	33 c0		 xor	 eax, eax

; 851  : 	}

  00002	c3		 ret	 0
??$_Dist_type@PAUCharInfoData@@@std@@YAPAHPAUCharInfoData@@@Z ENDP ; std::_Dist_type<CharInfoData *>
_TEXT	ENDS
PUBLIC	??$forward@AAPAUCharInfoData@@@std@@YAAAPAUCharInfoData@@AAPAU1@@Z ; std::forward<CharInfoData * &>
; Function compile flags: /Ogsp
; File c:\program files (x86)\microsoft visual studio 10.0\vc\include\utility
;	COMDAT ??$forward@AAPAUCharInfoData@@@std@@YAAAPAUCharInfoData@@AAPAU1@@Z
_TEXT	SEGMENT
__Arg$ = 8						; size = 4
??$forward@AAPAUCharInfoData@@@std@@YAAAPAUCharInfoData@@AAPAU1@@Z PROC ; std::forward<CharInfoData * &>, COMDAT

; 78   : 	{	// forward _Arg, given explicitly specified type parameter

  00000	55		 push	 ebp
  00001	8b ec		 mov	 ebp, esp

; 79   : 	return ((_Ty&&)_Arg);

  00003	8b 45 08	 mov	 eax, DWORD PTR __Arg$[ebp]

; 80   : 	}

  00006	5d		 pop	 ebp
  00007	c3		 ret	 0
??$forward@AAPAUCharInfoData@@@std@@YAAAPAUCharInfoData@@AAPAU1@@Z ENDP ; std::forward<CharInfoData * &>
_TEXT	ENDS
PUBLIC	??$?0AAPAUCharInfoData@@AAPAU0@@?$_Pair_base@PAUCharInfoData@@PAU1@@std@@QAE@AAPAUCharInfoData@@0@Z ; std::_Pair_base<CharInfoData *,CharInfoData *>::_Pair_base<CharInfoData *,CharInfoData *><CharInfoData * &,CharInfoData * &>
; Function compile flags: /Ogsp
;	COMDAT ??$?0AAPAUCharInfoData@@AAPAU0@@?$_Pair_base@PAUCharInfoData@@PAU1@@std@@QAE@AAPAUCharInfoData@@0@Z
_TEXT	SEGMENT
__Val1$ = 8						; size = 4
__Val2$ = 12						; size = 4
??$?0AAPAUCharInfoData@@AAPAU0@@?$_Pair_base@PAUCharInfoData@@PAU1@@std@@QAE@AAPAUCharInfoData@@0@Z PROC ; std::_Pair_base<CharInfoData *,CharInfoData *>::_Pair_base<CharInfoData *,CharInfoData *><CharInfoData * &,CharInfoData * &>, COMDAT
; _this$ = ecx

; 163  : 		{	// construct from moved values

  00000	55		 push	 ebp
  00001	8b ec		 mov	 ebp, esp
  00003	8b c1		 mov	 eax, ecx
  00005	8b 4d 08	 mov	 ecx, DWORD PTR __Val1$[ebp]
  00008	8b 09		 mov	 ecx, DWORD PTR [ecx]
  0000a	89 08		 mov	 DWORD PTR [eax], ecx
  0000c	8b 4d 0c	 mov	 ecx, DWORD PTR __Val2$[ebp]
  0000f	8b 09		 mov	 ecx, DWORD PTR [ecx]
  00011	89 48 04	 mov	 DWORD PTR [eax+4], ecx

; 164  : 		}

  00014	5d		 pop	 ebp
  00015	c2 08 00	 ret	 8
??$?0AAPAUCharInfoData@@AAPAU0@@?$_Pair_base@PAUCharInfoData@@PAU1@@std@@QAE@AAPAUCharInfoData@@0@Z ENDP ; std::_Pair_base<CharInfoData *,CharInfoData *>::_Pair_base<CharInfoData *,CharInfoData *><CharInfoData * &,CharInfoData * &>
_TEXT	ENDS
PUBLIC	??$_Move@AAUCharInfoData@@@std@@YA$$QAUCharInfoData@@AAU1@@Z ; std::_Move<CharInfoData &>
; Function compile flags: /Ogsp
;	COMDAT ??$_Move@AAUCharInfoData@@@std@@YA$$QAUCharInfoData@@AAU1@@Z
_TEXT	SEGMENT
__Arg$ = 8						; size = 4
??$_Move@AAUCharInfoData@@@std@@YA$$QAUCharInfoData@@AAU1@@Z PROC ; std::_Move<CharInfoData &>, COMDAT

; 94   : 	{	// forward _Arg as movable

  00000	55		 push	 ebp
  00001	8b ec		 mov	 ebp, esp

; 95   : 	return ((typename tr1::_Remove_reference<_Ty>::_Type&&)_Arg);

  00003	8b 45 08	 mov	 eax, DWORD PTR __Arg$[ebp]

; 96   : 	}

  00006	5d		 pop	 ebp
  00007	c3		 ret	 0
??$_Move@AAUCharInfoData@@@std@@YA$$QAUCharInfoData@@AAU1@@Z ENDP ; std::_Move<CharInfoData &>
_TEXT	ENDS
PUBLIC	??$forward@UCharInfoData@@@std@@YA$$QAUCharInfoData@@AAU1@@Z ; std::forward<CharInfoData>
; Function compile flags: /Ogsp
;	COMDAT ??$forward@UCharInfoData@@@std@@YA$$QAUCharInfoData@@AAU1@@Z
_TEXT	SEGMENT
__Arg$ = 8						; size = 4
??$forward@UCharInfoData@@@std@@YA$$QAUCharInfoData@@AAU1@@Z PROC ; std::forward<CharInfoData>, COMDAT

; 78   : 	{	// forward _Arg, given explicitly specified type parameter

  00000	55		 push	 ebp
  00001	8b ec		 mov	 ebp, esp

; 79   : 	return ((_Ty&&)_Arg);

  00003	8b 45 08	 mov	 eax, DWORD PTR __Arg$[ebp]

; 80   : 	}

  00006	5d		 pop	 ebp
  00007	c3		 ret	 0
??$forward@UCharInfoData@@@std@@YA$$QAUCharInfoData@@AAU1@@Z ENDP ; std::forward<CharInfoData>
_TEXT	ENDS
PUBLIC	??$_Ptr_cat@V?$_Vector_const_iterator@V?$_Vector_val@HV?$allocator@H@std@@@std@@@std@@PAH@std@@YA?AU_Nonscalar_ptr_iterator_tag@0@AAV?$_Vector_const_iterator@V?$_Vector_val@HV?$allocator@H@std@@@std@@@0@AAPAH@Z ; std::_Ptr_cat<std::_Vector_const_iterator<std::_Vector_val<int,std::allocator<int> > >,int *>
; Function compile flags: /Ogsp
; File c:\program files (x86)\microsoft visual studio 10.0\vc\include\xutility
;	COMDAT ??$_Ptr_cat@V?$_Vector_const_iterator@V?$_Vector_val@HV?$allocator@H@std@@@std@@@std@@PAH@std@@YA?AU_Nonscalar_ptr_iterator_tag@0@AAV?$_Vector_const_iterator@V?$_Vector_val@HV?$allocator@H@std@@@std@@@0@AAPAH@Z
_TEXT	SEGMENT
__Cat$ = -1						; size = 1
___formal$ = 8						; size = 4
___formal$ = 12						; size = 4
??$_Ptr_cat@V?$_Vector_const_iterator@V?$_Vector_val@HV?$allocator@H@std@@@std@@@std@@PAH@std@@YA?AU_Nonscalar_ptr_iterator_tag@0@AAV?$_Vector_const_iterator@V?$_Vector_val@HV?$allocator@H@std@@@std@@@0@AAPAH@Z PROC ; std::_Ptr_cat<std::_Vector_const_iterator<std::_Vector_val<int,std::allocator<int> > >,int *>, COMDAT

; 485  : 	{	// return pointer category from arbitrary arguments

  00000	55		 push	 ebp
  00001	8b ec		 mov	 ebp, esp
  00003	51		 push	 ecx

; 486  : 	_Nonscalar_ptr_iterator_tag _Cat;
; 487  : 	return (_Cat);

  00004	8a 45 ff	 mov	 al, BYTE PTR __Cat$[ebp]

; 488  : 	}

  00007	c9		 leave
  00008	c3		 ret	 0
??$_Ptr_cat@V?$_Vector_const_iterator@V?$_Vector_val@HV?$allocator@H@std@@@std@@@std@@PAH@std@@YA?AU_Nonscalar_ptr_iterator_tag@0@AAV?$_Vector_const_iterator@V?$_Vector_val@HV?$allocator@H@std@@@std@@@0@AAPAH@Z ENDP ; std::_Ptr_cat<std::_Vector_const_iterator<std::_Vector_val<int,std::allocator<int> > >,int *>
_TEXT	ENDS
PUBLIC	??D?$_Vector_const_iterator@V?$_Vector_val@HV?$allocator@H@std@@@std@@@std@@QBEABHXZ ; std::_Vector_const_iterator<std::_Vector_val<int,std::allocator<int> > >::operator*
; Function compile flags: /Ogsp
; File c:\program files (x86)\microsoft visual studio 10.0\vc\include\vector
;	COMDAT ??D?$_Vector_const_iterator@V?$_Vector_val@HV?$allocator@H@std@@@std@@@std@@QBEABHXZ
_TEXT	SEGMENT
??D?$_Vector_const_iterator@V?$_Vector_val@HV?$allocator@H@std@@@std@@@std@@QBEABHXZ PROC ; std::_Vector_const_iterator<std::_Vector_val<int,std::allocator<int> > >::operator*, COMDAT
; _this$ = ecx

; 64   :  #if _ITERATOR_DEBUG_LEVEL == 2
; 65   : 		if (this->_Getcont() == 0
; 66   : 			|| this->_Ptr == 0
; 67   : 			|| this->_Ptr < ((_Myvec *)this->_Getcont())->_Myfirst
; 68   : 			|| ((_Myvec *)this->_Getcont())->_Mylast <= this->_Ptr)
; 69   : 			{	// report error
; 70   : 			_DEBUG_ERROR("vector iterator not dereferencable");
; 71   : 			_SCL_SECURE_OUT_OF_RANGE;
; 72   : 			}
; 73   : 
; 74   :  #elif _ITERATOR_DEBUG_LEVEL == 1
; 75   : 		_SCL_SECURE_VALIDATE(this->_Getcont() != 0);
; 76   : 		_SCL_SECURE_VALIDATE_RANGE(
; 77   : 			this->_Ptr != 0
; 78   : 			&& ((_Myvec *)this->_Getcont())->_Myfirst <= this->_Ptr
; 79   : 			&& this->_Ptr < ((_Myvec *)this->_Getcont())->_Mylast);
; 80   :  #endif /* _ITERATOR_DEBUG_LEVEL */
; 81   : 
; 82   : 		__analysis_assume(this->_Ptr != 0);
; 83   : 
; 84   : 		return (*this->_Ptr);

  00000	8b 01		 mov	 eax, DWORD PTR [ecx]

; 85   : 		}

  00002	c3		 ret	 0
??D?$_Vector_const_iterator@V?$_Vector_val@HV?$allocator@H@std@@@std@@@std@@QBEABHXZ ENDP ; std::_Vector_const_iterator<std::_Vector_val<int,std::allocator<int> > >::operator*
_TEXT	ENDS
PUBLIC	??E?$_Vector_const_iterator@V?$_Vector_val@HV?$allocator@H@std@@@std@@@std@@QAEAAV01@XZ ; std::_Vector_const_iterator<std::_Vector_val<int,std::allocator<int> > >::operator++
; Function compile flags: /Ogsp
;	COMDAT ??E?$_Vector_const_iterator@V?$_Vector_val@HV?$allocator@H@std@@@std@@@std@@QAEAAV01@XZ
_TEXT	SEGMENT
??E?$_Vector_const_iterator@V?$_Vector_val@HV?$allocator@H@std@@@std@@@std@@QAEAAV01@XZ PROC ; std::_Vector_const_iterator<std::_Vector_val<int,std::allocator<int> > >::operator++, COMDAT
; _this$ = ecx

; 93   : 		{	// preincrement

  00000	8b c1		 mov	 eax, ecx

; 94   :  #if _ITERATOR_DEBUG_LEVEL == 2
; 95   : 		if (this->_Getcont() == 0
; 96   : 			|| this->_Ptr == 0
; 97   : 			|| ((_Myvec *)this->_Getcont())->_Mylast <= this->_Ptr)
; 98   : 			{	// report error
; 99   : 			_DEBUG_ERROR("vector iterator not incrementable");
; 100  : 			_SCL_SECURE_OUT_OF_RANGE;
; 101  : 			}
; 102  : 
; 103  :  #elif _ITERATOR_DEBUG_LEVEL == 1
; 104  : 		_SCL_SECURE_VALIDATE(this->_Getcont() != 0);
; 105  : 		_SCL_SECURE_VALIDATE_RANGE(
; 106  : 			this->_Ptr != 0
; 107  : 			&& this->_Ptr < ((_Myvec *)this->_Getcont())->_Mylast);
; 108  :  #endif /* _ITERATOR_DEBUG_LEVEL */
; 109  : 
; 110  : 		++this->_Ptr;

  00002	83 00 04	 add	 DWORD PTR [eax], 4

; 111  : 		return (*this);
; 112  : 		}

  00005	c3		 ret	 0
??E?$_Vector_const_iterator@V?$_Vector_val@HV?$allocator@H@std@@@std@@@std@@QAEAAV01@XZ ENDP ; std::_Vector_const_iterator<std::_Vector_val<int,std::allocator<int> > >::operator++
_TEXT	ENDS
PUBLIC	??$_Destroy@H@std@@YAXPAH@Z			; std::_Destroy<int>
; Function compile flags: /Ogsp
; File c:\program files (x86)\microsoft visual studio 10.0\vc\include\xmemory
;	COMDAT ??$_Destroy@H@std@@YAXPAH@Z
_TEXT	SEGMENT
__Ptr$ = 8						; size = 4
??$_Destroy@H@std@@YAXPAH@Z PROC			; std::_Destroy<int>, COMDAT

; 63   : 	_Ptr->~_Ty();
; 64   : 	}

  00000	c3		 ret	 0
??$_Destroy@H@std@@YAXPAH@Z ENDP			; std::_Destroy<int>
_TEXT	ENDS
PUBLIC	??_H@YGXPAXIHP6EPAX0@Z@Z			; `vector constructor iterator'
; Function compile flags: /Ogsp
;	COMDAT ??_H@YGXPAXIHP6EPAX0@Z@Z
_TEXT	SEGMENT
___t$ = 8						; size = 4
___s$ = 12						; size = 4
___n$ = 16						; size = 4
___f$ = 20						; size = 4
??_H@YGXPAXIHP6EPAX0@Z@Z PROC				; `vector constructor iterator', COMDAT
  00000	55		 push	 ebp
  00001	8b ec		 mov	 ebp, esp
  00003	ff 4d 10	 dec	 DWORD PTR ___n$[ebp]
  00006	78 12		 js	 SHORT $LN1@vector@2
  00008	56		 push	 esi
  00009	8b 75 08	 mov	 esi, DWORD PTR ___t$[ebp]
$LL2@vector@2:
  0000c	8b ce		 mov	 ecx, esi
  0000e	ff 55 14	 call	 DWORD PTR ___f$[ebp]
  00011	03 75 0c	 add	 esi, DWORD PTR ___s$[ebp]
  00014	ff 4d 10	 dec	 DWORD PTR ___n$[ebp]
  00017	79 f3		 jns	 SHORT $LL2@vector@2
  00019	5e		 pop	 esi
$LN1@vector@2:
  0001a	5d		 pop	 ebp
  0001b	c2 10 00	 ret	 16			; 00000010H
??_H@YGXPAXIHP6EPAX0@Z@Z ENDP				; `vector constructor iterator'
_TEXT	ENDS
PUBLIC	?Init@tagCostumeEquipInfo@@QAEXXZ		; tagCostumeEquipInfo::Init
; Function compile flags: /Ogsp
; File d:\lost saga for developer\youtube\tutorial\source\src\lsclient\costumeenumtype.h
;	COMDAT ?Init@tagCostumeEquipInfo@@QAEXXZ
_TEXT	SEGMENT
?Init@tagCostumeEquipInfo@@QAEXXZ PROC			; tagCostumeEquipInfo::Init, COMDAT
; _this$ = ecx

; 31   : 		m_CostumeIdx = 0;

  00000	33 c0		 xor	 eax, eax
  00002	89 01		 mov	 DWORD PTR [ecx], eax

; 32   : 		m_CostumeCode = 0;

  00004	89 41 04	 mov	 DWORD PTR [ecx+4], eax

; 33   : 		m_Costume_Male_Custom = 0;  

  00007	89 41 08	 mov	 DWORD PTR [ecx+8], eax

; 34   : 		m_Costume_Female_Custom = 0;

  0000a	89 41 0c	 mov	 DWORD PTR [ecx+12], eax

; 35   : 	}

  0000d	c3		 ret	 0
?Init@tagCostumeEquipInfo@@QAEXXZ ENDP			; tagCostumeEquipInfo::Init
_TEXT	ENDS
PUBLIC	??0tagCostumeEquipInfo@@QAE@XZ			; tagCostumeEquipInfo::tagCostumeEquipInfo
; Function compile flags: /Ogsp
;	COMDAT ??0tagCostumeEquipInfo@@QAE@XZ
_TEXT	SEGMENT
??0tagCostumeEquipInfo@@QAE@XZ PROC			; tagCostumeEquipInfo::tagCostumeEquipInfo, COMDAT
; _this$ = ecx

; 37   : 	tagCostumeEquipInfo()

  00000	8b c1		 mov	 eax, ecx

; 38   : 	{
; 39   : 		Init();

  00002	33 c9		 xor	 ecx, ecx
  00004	89 08		 mov	 DWORD PTR [eax], ecx
  00006	89 48 04	 mov	 DWORD PTR [eax+4], ecx
  00009	89 48 08	 mov	 DWORD PTR [eax+8], ecx
  0000c	89 48 0c	 mov	 DWORD PTR [eax+12], ecx

; 40   : 	}

  0000f	c3		 ret	 0
??0tagCostumeEquipInfo@@QAE@XZ ENDP			; tagCostumeEquipInfo::tagCostumeEquipInfo
_TEXT	ENDS
PUBLIC	??0tagCostumeEquipInfo@@QAE@ABU0@@Z		; tagCostumeEquipInfo::tagCostumeEquipInfo
; Function compile flags: /Ogsp
;	COMDAT ??0tagCostumeEquipInfo@@QAE@ABU0@@Z
_TEXT	SEGMENT
_rhs$ = 8						; size = 4
??0tagCostumeEquipInfo@@QAE@ABU0@@Z PROC		; tagCostumeEquipInfo::tagCostumeEquipInfo, COMDAT
; _this$ = ecx

; 42   : 	tagCostumeEquipInfo( const tagCostumeEquipInfo &rhs )

  00000	55		 push	 ebp
  00001	8b ec		 mov	 ebp, esp
  00003	8b c1		 mov	 eax, ecx

; 43   : 	{
; 44   : 		m_CostumeIdx = rhs.m_CostumeIdx;

  00005	8b 4d 08	 mov	 ecx, DWORD PTR _rhs$[ebp]
  00008	8b 11		 mov	 edx, DWORD PTR [ecx]
  0000a	89 10		 mov	 DWORD PTR [eax], edx

; 45   : 		m_CostumeCode = rhs.m_CostumeCode;

  0000c	8b 51 04	 mov	 edx, DWORD PTR [ecx+4]
  0000f	89 50 04	 mov	 DWORD PTR [eax+4], edx

; 46   : 		m_Costume_Male_Custom = rhs.m_Costume_Male_Custom;  

  00012	8b 51 08	 mov	 edx, DWORD PTR [ecx+8]
  00015	89 50 08	 mov	 DWORD PTR [eax+8], edx

; 47   : 		m_Costume_Female_Custom = rhs.m_Costume_Female_Custom;

  00018	8b 49 0c	 mov	 ecx, DWORD PTR [ecx+12]
  0001b	89 48 0c	 mov	 DWORD PTR [eax+12], ecx

; 48   : 	}

  0001e	5d		 pop	 ebp
  0001f	c2 04 00	 ret	 4
??0tagCostumeEquipInfo@@QAE@ABU0@@Z ENDP		; tagCostumeEquipInfo::tagCostumeEquipInfo
_TEXT	ENDS
PUBLIC	?Init@tagAccessoryEquipInfo@@QAEXXZ		; tagAccessoryEquipInfo::Init
; Function compile flags: /Ogsp
; File d:\lost saga for developer\youtube\tutorial\source\src\lsclient\accessoryenumtype.h
;	COMDAT ?Init@tagAccessoryEquipInfo@@QAEXXZ
_TEXT	SEGMENT
?Init@tagAccessoryEquipInfo@@QAEXXZ PROC		; tagAccessoryEquipInfo::Init, COMDAT
; _this$ = ecx

; 23   : 		m_iAccessoryIdx = 0;

  00000	33 c0		 xor	 eax, eax
  00002	89 01		 mov	 DWORD PTR [ecx], eax

; 24   : 		m_iAccessoryCode = 0;

  00004	89 41 04	 mov	 DWORD PTR [ecx+4], eax

; 25   : 		m_iRandomNumber = 0;

  00007	89 41 08	 mov	 DWORD PTR [ecx+8], eax

; 26   : 	}

  0000a	c3		 ret	 0
?Init@tagAccessoryEquipInfo@@QAEXXZ ENDP		; tagAccessoryEquipInfo::Init
_TEXT	ENDS
PUBLIC	??0tagAccessoryEquipInfo@@QAE@XZ		; tagAccessoryEquipInfo::tagAccessoryEquipInfo
; Function compile flags: /Ogsp
;	COMDAT ??0tagAccessoryEquipInfo@@QAE@XZ
_TEXT	SEGMENT
??0tagAccessoryEquipInfo@@QAE@XZ PROC			; tagAccessoryEquipInfo::tagAccessoryEquipInfo, COMDAT
; _this$ = ecx

; 28   : 	tagAccessoryEquipInfo()

  00000	8b c1		 mov	 eax, ecx

; 29   : 	{
; 30   : 		Init();

  00002	33 c9		 xor	 ecx, ecx
  00004	89 08		 mov	 DWORD PTR [eax], ecx
  00006	89 48 04	 mov	 DWORD PTR [eax+4], ecx
  00009	89 48 08	 mov	 DWORD PTR [eax+8], ecx

; 31   : 	}

  0000c	c3		 ret	 0
??0tagAccessoryEquipInfo@@QAE@XZ ENDP			; tagAccessoryEquipInfo::tagAccessoryEquipInfo
_TEXT	ENDS
PUBLIC	??0tagAccessoryEquipInfo@@QAE@ABU0@@Z		; tagAccessoryEquipInfo::tagAccessoryEquipInfo
; Function compile flags: /Ogsp
;	COMDAT ??0tagAccessoryEquipInfo@@QAE@ABU0@@Z
_TEXT	SEGMENT
_rhs$ = 8						; size = 4
??0tagAccessoryEquipInfo@@QAE@ABU0@@Z PROC		; tagAccessoryEquipInfo::tagAccessoryEquipInfo, COMDAT
; _this$ = ecx

; 33   : 	tagAccessoryEquipInfo( const tagAccessoryEquipInfo &rhs )

  00000	55		 push	 ebp
  00001	8b ec		 mov	 ebp, esp
  00003	8b c1		 mov	 eax, ecx

; 34   : 	{
; 35   : 		m_iAccessoryIdx = rhs.m_iAccessoryIdx;

  00005	8b 4d 08	 mov	 ecx, DWORD PTR _rhs$[ebp]
  00008	8b 11		 mov	 edx, DWORD PTR [ecx]
  0000a	89 10		 mov	 DWORD PTR [eax], edx

; 36   : 		m_iAccessoryCode = rhs.m_iAccessoryCode;

  0000c	8b 51 04	 mov	 edx, DWORD PTR [ecx+4]
  0000f	89 50 04	 mov	 DWORD PTR [eax+4], edx

; 37   : 		m_iRandomNumber = rhs.m_iRandomNumber;

  00012	8b 49 08	 mov	 ecx, DWORD PTR [ecx+8]
  00015	89 48 08	 mov	 DWORD PTR [eax+8], ecx

; 38   : 	}

  00018	5d		 pop	 ebp
  00019	c2 04 00	 ret	 4
??0tagAccessoryEquipInfo@@QAE@ABU0@@Z ENDP		; tagAccessoryEquipInfo::tagAccessoryEquipInfo
_TEXT	ENDS
PUBLIC	?Initialize@ITEM_DATA@@QAEXXZ			; ITEM_DATA::Initialize
; Function compile flags: /Ogsp
; File d:\lost saga for developer\youtube\tutorial\source\src\lsclient\characterinfo.h
;	COMDAT ?Initialize@ITEM_DATA@@QAEXXZ
_TEXT	SEGMENT
?Initialize@ITEM_DATA@@QAEXXZ PROC			; ITEM_DATA::Initialize, COMDAT
; _this$ = ecx

; 235  : 		m_item_code		 = 0;
; 236  : 		m_item_reinforce = 0;
; 237  : 		m_item_bullet	 = -1;

  00000	83 49 08 ff	 or	 DWORD PTR [ecx+8], -1
  00004	33 c0		 xor	 eax, eax
  00006	89 01		 mov	 DWORD PTR [ecx], eax
  00008	89 41 04	 mov	 DWORD PTR [ecx+4], eax

; 238  : 		m_item_male_custom = m_item_female_custom = 0;

  0000b	89 41 10	 mov	 DWORD PTR [ecx+16], eax
  0000e	89 41 0c	 mov	 DWORD PTR [ecx+12], eax

; 239  : 	}	

  00011	c3		 ret	 0
?Initialize@ITEM_DATA@@QAEXXZ ENDP			; ITEM_DATA::Initialize
_TEXT	ENDS
PUBLIC	??4ITEM_DATA@@QAEAAU0@ABU0@@Z			; ITEM_DATA::operator=
; Function compile flags: /Ogsp
;	COMDAT ??4ITEM_DATA@@QAEAAU0@ABU0@@Z
_TEXT	SEGMENT
_rhs$ = 8						; size = 4
??4ITEM_DATA@@QAEAAU0@ABU0@@Z PROC			; ITEM_DATA::operator=, COMDAT
; _this$ = ecx

; 242  : 	{

  00000	55		 push	 ebp
  00001	8b ec		 mov	 ebp, esp
  00003	8b c1		 mov	 eax, ecx

; 243  : 		m_item_code			= rhs.m_item_code;

  00005	8b 4d 08	 mov	 ecx, DWORD PTR _rhs$[ebp]
  00008	8b 11		 mov	 edx, DWORD PTR [ecx]
  0000a	89 10		 mov	 DWORD PTR [eax], edx

; 244  : 		m_item_reinforce	= rhs.m_item_reinforce;

  0000c	8b 51 04	 mov	 edx, DWORD PTR [ecx+4]
  0000f	89 50 04	 mov	 DWORD PTR [eax+4], edx

; 245  : 		m_item_bullet		= rhs.m_item_bullet;

  00012	8b 51 08	 mov	 edx, DWORD PTR [ecx+8]
  00015	89 50 08	 mov	 DWORD PTR [eax+8], edx

; 246  : 		m_item_male_custom	= rhs.m_item_male_custom;

  00018	8b 51 0c	 mov	 edx, DWORD PTR [ecx+12]
  0001b	89 50 0c	 mov	 DWORD PTR [eax+12], edx

; 247  : 		m_item_female_custom= rhs.m_item_female_custom;

  0001e	8b 49 10	 mov	 ecx, DWORD PTR [ecx+16]
  00021	89 48 10	 mov	 DWORD PTR [eax+16], ecx

; 248  : 		return *this;
; 249  : 	}

  00024	5d		 pop	 ebp
  00025	c2 04 00	 ret	 4
??4ITEM_DATA@@QAEAAU0@ABU0@@Z ENDP			; ITEM_DATA::operator=
_TEXT	ENDS
PUBLIC	?GetPublicID@ioMyInfo@@QBEABVioHashString@@XZ	; ioMyInfo::GetPublicID
; Function compile flags: /Ogsp
; File d:\lost saga for developer\youtube\tutorial\source\src\lsclient\iomyinfo.h
;	COMDAT ?GetPublicID@ioMyInfo@@QBEABVioHashString@@XZ
_TEXT	SEGMENT
?GetPublicID@ioMyInfo@@QBEABVioHashString@@XZ PROC	; ioMyInfo::GetPublicID, COMDAT
; _this$ = ecx

; 517  : 	const ioHashString& GetPublicID() const { return m_user_data.m_public_id; }    

  00000	8d 41 1c	 lea	 eax, DWORD PTR [ecx+28]
  00003	c3		 ret	 0
?GetPublicID@ioMyInfo@@QBEABVioHashString@@XZ ENDP	; ioMyInfo::GetPublicID
_TEXT	ENDS
PUBLIC	?GetGuildMark@ioGuildData@@QAEKXZ		; ioGuildData::GetGuildMark
; Function compile flags: /Ogsp
; File d:\lost saga for developer\youtube\tutorial\source\src\lsclient\ioguildinfo.h
;	COMDAT ?GetGuildMark@ioGuildData@@QAEKXZ
_TEXT	SEGMENT
?GetGuildMark@ioGuildData@@QAEKXZ PROC			; ioGuildData::GetGuildMark, COMDAT
; _this$ = ecx

; 91   : 	inline DWORD GetGuildMark(){ return m_dwGuildMark; }

  00000	8b 41 08	 mov	 eax, DWORD PTR [ecx+8]
  00003	c3		 ret	 0
?GetGuildMark@ioGuildData@@QAEKXZ ENDP			; ioGuildData::GetGuildMark
_TEXT	ENDS
PUBLIC	??RCharInfoSort@@QBE_NABUCharInfoData@@0@Z	; CharInfoSort::operator()
; Function compile flags: /Ogsp
; File d:\lost saga for developer\youtube\tutorial\source\src\lsclient\gui\iouserinfomgr.h
;	COMDAT ??RCharInfoSort@@QBE_NABUCharInfoData@@0@Z
_TEXT	SEGMENT
_lhs$ = 8						; size = 4
_rhs$ = 12						; size = 4
??RCharInfoSort@@QBE_NABUCharInfoData@@0@Z PROC		; CharInfoSort::operator(), COMDAT
; _this$ = ecx

; 129  : 	{

  00000	55		 push	 ebp
  00001	8b ec		 mov	 ebp, esp

; 130  : 		if( lhs.m_CharInfo.m_sRentalType > rhs.m_CharInfo.m_sRentalType )

  00003	8b 55 08	 mov	 edx, DWORD PTR _lhs$[ebp]
  00006	0f b7 82 b2 02
	00 00		 movzx	 eax, WORD PTR [edx+690]
  0000d	56		 push	 esi
  0000e	8b 75 0c	 mov	 esi, DWORD PTR _rhs$[ebp]
  00011	0f b7 8e b2 02
	00 00		 movzx	 ecx, WORD PTR [esi+690]
  00018	66 3b c1	 cmp	 ax, cx
  0001b	7e 04		 jle	 SHORT $LN7@operator
$LN8@operator:

; 131  : 		{
; 132  : 			return true;

  0001d	b0 01		 mov	 al, 1
  0001f	eb 12		 jmp	 SHORT $LN5@operator
$LN7@operator:

; 133  : 		}
; 134  : 		else if( lhs.m_CharInfo.m_sRentalType == rhs.m_CharInfo.m_sRentalType )

  00021	75 0e		 jne	 SHORT $LN1@operator

; 135  : 		{
; 136  : 			if( lhs.m_CharInfo.m_iSlotIndex < rhs.m_CharInfo.m_iSlotIndex )

  00023	8b 82 a8 02 00
	00		 mov	 eax, DWORD PTR [edx+680]
  00029	3b 86 a8 02 00
	00		 cmp	 eax, DWORD PTR [esi+680]

; 137  : 				return true;

  0002f	7c ec		 jl	 SHORT $LN8@operator
$LN1@operator:

; 138  : 		}	
; 139  : 		return false;

  00031	32 c0		 xor	 al, al
$LN5@operator:
  00033	5e		 pop	 esi

; 140  : 	}

  00034	5d		 pop	 ebp
  00035	c2 08 00	 ret	 8
??RCharInfoSort@@QBE_NABUCharInfoData@@0@Z ENDP		; CharInfoSort::operator()
_TEXT	ENDS
PUBLIC	?GetUserID@UserInfoNode@@QAEABVioHashString@@XZ	; UserInfoNode::GetUserID
; Function compile flags: /Ogsp
;	COMDAT ?GetUserID@UserInfoNode@@QAEABVioHashString@@XZ
_TEXT	SEGMENT
?GetUserID@UserInfoNode@@QAEABVioHashString@@XZ PROC	; UserInfoNode::GetUserID, COMDAT
; _this$ = ecx

; 289  : 	inline const ioHashString &GetUserID(){ return m_UserID; }

  00000	8d 41 08	 lea	 eax, DWORD PTR [ecx+8]
  00003	c3		 ret	 0
?GetUserID@UserInfoNode@@QAEABVioHashString@@XZ ENDP	; UserInfoNode::GetUserID
_TEXT	ENDS
PUBLIC	?GetGradeLevel@UserInfoNode@@QAE?BHXZ		; UserInfoNode::GetGradeLevel
; Function compile flags: /Ogsp
;	COMDAT ?GetGradeLevel@UserInfoNode@@QAE?BHXZ
_TEXT	SEGMENT
?GetGradeLevel@UserInfoNode@@QAE?BHXZ PROC		; UserInfoNode::GetGradeLevel, COMDAT
; _this$ = ecx

; 290  : 	inline const int GetGradeLevel(){ return m_iGradeLevel; }

  00000	8b 41 18	 mov	 eax, DWORD PTR [ecx+24]
  00003	c3		 ret	 0
?GetGradeLevel@UserInfoNode@@QAE?BHXZ ENDP		; UserInfoNode::GetGradeLevel
_TEXT	ENDS
PUBLIC	?GetPartyLevel@UserInfoNode@@QAE?BHXZ		; UserInfoNode::GetPartyLevel
; Function compile flags: /Ogsp
;	COMDAT ?GetPartyLevel@UserInfoNode@@QAE?BHXZ
_TEXT	SEGMENT
?GetPartyLevel@UserInfoNode@@QAE?BHXZ PROC		; UserInfoNode::GetPartyLevel, COMDAT
; _this$ = ecx

; 291  : 	inline const int GetPartyLevel(){ return m_iPartyLevel; }

  00000	8b 41 20	 mov	 eax, DWORD PTR [ecx+32]
  00003	c3		 ret	 0
?GetPartyLevel@UserInfoNode@@QAE?BHXZ ENDP		; UserInfoNode::GetPartyLevel
_TEXT	ENDS
PUBLIC	?GetAwardLevel@UserInfoNode@@QAE?BHXZ		; UserInfoNode::GetAwardLevel
; Function compile flags: /Ogsp
;	COMDAT ?GetAwardLevel@UserInfoNode@@QAE?BHXZ
_TEXT	SEGMENT
?GetAwardLevel@UserInfoNode@@QAE?BHXZ PROC		; UserInfoNode::GetAwardLevel, COMDAT
; _this$ = ecx

; 293  : 	inline const int GetAwardLevel(){ return m_iAwardLevel; }

  00000	8b 41 40	 mov	 eax, DWORD PTR [ecx+64]
  00003	c3		 ret	 0
?GetAwardLevel@UserInfoNode@@QAE?BHXZ ENDP		; UserInfoNode::GetAwardLevel
_TEXT	ENDS
PUBLIC	?GetBlockType@UserInfoNode@@QAE?BW4BlockType@@XZ ; UserInfoNode::GetBlockType
; Function compile flags: /Ogsp
;	COMDAT ?GetBlockType@UserInfoNode@@QAE?BW4BlockType@@XZ
_TEXT	SEGMENT
?GetBlockType@UserInfoNode@@QAE?BW4BlockType@@XZ PROC	; UserInfoNode::GetBlockType, COMDAT
; _this$ = ecx

; 301  : 	inline const BlockType GetBlockType(){ return m_eBlockType; }

  00000	8b 41 6c	 mov	 eax, DWORD PTR [ecx+108]
  00003	c3		 ret	 0
?GetBlockType@UserInfoNode@@QAE?BW4BlockType@@XZ ENDP	; UserInfoNode::GetBlockType
_TEXT	ENDS
PUBLIC	?GetGradeExp@UserInfoNode@@QAE?BHXZ		; UserInfoNode::GetGradeExp
; Function compile flags: /Ogsp
;	COMDAT ?GetGradeExp@UserInfoNode@@QAE?BHXZ
_TEXT	SEGMENT
?GetGradeExp@UserInfoNode@@QAE?BHXZ PROC		; UserInfoNode::GetGradeExp, COMDAT
; _this$ = ecx

; 302  : 	inline const int GetGradeExp(){ return m_iGradeExpPer; }

  00000	8b 41 1c	 mov	 eax, DWORD PTR [ecx+28]
  00003	c3		 ret	 0
?GetGradeExp@UserInfoNode@@QAE?BHXZ ENDP		; UserInfoNode::GetGradeExp
_TEXT	ENDS
PUBLIC	?GetGuildIndex@UserInfoNode@@QAE?BKXZ		; UserInfoNode::GetGuildIndex
; Function compile flags: /Ogsp
;	COMDAT ?GetGuildIndex@UserInfoNode@@QAE?BKXZ
_TEXT	SEGMENT
?GetGuildIndex@UserInfoNode@@QAE?BKXZ PROC		; UserInfoNode::GetGuildIndex, COMDAT
; _this$ = ecx

; 304  : 	inline const DWORD GetGuildIndex(){ return m_dwGuildIndex; }

  00000	8b 81 80 00 00
	00		 mov	 eax, DWORD PTR [ecx+128]
  00006	c3		 ret	 0
?GetGuildIndex@UserInfoNode@@QAE?BKXZ ENDP		; UserInfoNode::GetGuildIndex
_TEXT	ENDS
PUBLIC	?GetLadderPoint@UserInfoNode@@QAE?BHXZ		; UserInfoNode::GetLadderPoint
; Function compile flags: /Ogsp
;	COMDAT ?GetLadderPoint@UserInfoNode@@QAE?BHXZ
_TEXT	SEGMENT
?GetLadderPoint@UserInfoNode@@QAE?BHXZ PROC		; UserInfoNode::GetLadderPoint, COMDAT
; _this$ = ecx

; 305  : 	inline const int GetLadderPoint(){ return m_iLadderPoint; }

  00000	8b 41 74	 mov	 eax, DWORD PTR [ecx+116]
  00003	c3		 ret	 0
?GetLadderPoint@UserInfoNode@@QAE?BHXZ ENDP		; UserInfoNode::GetLadderPoint
_TEXT	ENDS
PUBLIC	?GetCampPosition@UserInfoNode@@QAE?BHXZ		; UserInfoNode::GetCampPosition
; Function compile flags: /Ogsp
;	COMDAT ?GetCampPosition@UserInfoNode@@QAE?BHXZ
_TEXT	SEGMENT
?GetCampPosition@UserInfoNode@@QAE?BHXZ PROC		; UserInfoNode::GetCampPosition, COMDAT
; _this$ = ecx

; 306  : 	inline const int GetCampPosition(){ return m_iCampPosition; }

  00000	8b 41 78	 mov	 eax, DWORD PTR [ecx+120]
  00003	c3		 ret	 0
?GetCampPosition@UserInfoNode@@QAE?BHXZ ENDP		; UserInfoNode::GetCampPosition
_TEXT	ENDS
PUBLIC	?GetUserCharData@UserInfoNode@@QAEAAVUserInfoCharData@@XZ ; UserInfoNode::GetUserCharData
; Function compile flags: /Ogsp
;	COMDAT ?GetUserCharData@UserInfoNode@@QAEAAVUserInfoCharData@@XZ
_TEXT	SEGMENT
?GetUserCharData@UserInfoNode@@QAEAAVUserInfoCharData@@XZ PROC ; UserInfoNode::GetUserCharData, COMDAT
; _this$ = ecx

; 330  : 	UserInfoCharData &GetUserCharData(){ return m_UserCharData; }

  00000	8d 81 c8 00 00
	00		 lea	 eax, DWORD PTR [ecx+200]
  00006	c3		 ret	 0
?GetUserCharData@UserInfoNode@@QAEAAVUserInfoCharData@@XZ ENDP ; UserInfoNode::GetUserCharData
_TEXT	ENDS
PUBLIC	?SetSync@UserInfoNode@@QAEX_N@Z			; UserInfoNode::SetSync
; Function compile flags: /Ogsp
;	COMDAT ?SetSync@UserInfoNode@@QAEX_N@Z
_TEXT	SEGMENT
_bSync$ = 8						; size = 1
?SetSync@UserInfoNode@@QAEX_N@Z PROC			; UserInfoNode::SetSync, COMDAT
; _this$ = ecx

; 362  : 	void SetSync( bool bSync ){ m_bSyncInfo = bSync; }

  00000	55		 push	 ebp
  00001	8b ec		 mov	 ebp, esp
  00003	8a 45 08	 mov	 al, BYTE PTR _bSync$[ebp]
  00006	88 81 bc 04 00
	00		 mov	 BYTE PTR [ecx+1212], al
  0000c	5d		 pop	 ebp
  0000d	c2 04 00	 ret	 4
?SetSync@UserInfoNode@@QAEX_N@Z ENDP			; UserInfoNode::SetSync
_TEXT	ENDS
PUBLIC	?SetSyncTime@UserInfoNode@@QAEXK@Z		; UserInfoNode::SetSyncTime
; Function compile flags: /Ogsp
;	COMDAT ?SetSyncTime@UserInfoNode@@QAEXK@Z
_TEXT	SEGMENT
_dwTime$ = 8						; size = 4
?SetSyncTime@UserInfoNode@@QAEXK@Z PROC			; UserInfoNode::SetSyncTime, COMDAT
; _this$ = ecx

; 370  : 	void SetSyncTime( DWORD dwTime ){ m_dwTCPSyncTime = dwTime; }

  00000	55		 push	 ebp
  00001	8b ec		 mov	 ebp, esp
  00003	8b 45 08	 mov	 eax, DWORD PTR _dwTime$[ebp]
  00006	89 81 b4 04 00
	00		 mov	 DWORD PTR [ecx+1204], eax
  0000c	5d		 pop	 ebp
  0000d	c2 04 00	 ret	 4
?SetSyncTime@UserInfoNode@@QAEXK@Z ENDP			; UserInfoNode::SetSyncTime
_TEXT	ENDS
PUBLIC	?size@?$vector@HV?$allocator@H@std@@@std@@QBEIXZ ; std::vector<int,std::allocator<int> >::size
; Function compile flags: /Ogsp
; File c:\program files (x86)\microsoft visual studio 10.0\vc\include\vector
;	COMDAT ?size@?$vector@HV?$allocator@H@std@@@std@@QBEIXZ
_TEXT	SEGMENT
?size@?$vector@HV?$allocator@H@std@@@std@@QBEIXZ PROC	; std::vector<int,std::allocator<int> >::size, COMDAT
; _this$ = ecx

; 879  : 		return (this->_Mylast - this->_Myfirst);

  00000	8b 41 04	 mov	 eax, DWORD PTR [ecx+4]
  00003	2b 01		 sub	 eax, DWORD PTR [ecx]
  00005	c1 f8 02	 sar	 eax, 2

; 880  : 		}

  00008	c3		 ret	 0
?size@?$vector@HV?$allocator@H@std@@@std@@QBEIXZ ENDP	; std::vector<int,std::allocator<int> >::size
_TEXT	ENDS
PUBLIC	?empty@?$vector@HV?$allocator@H@std@@@std@@QBE_NXZ ; std::vector<int,std::allocator<int> >::empty
; Function compile flags: /Ogsp
;	COMDAT ?empty@?$vector@HV?$allocator@H@std@@@std@@QBE_NXZ
_TEXT	SEGMENT
?empty@?$vector@HV?$allocator@H@std@@@std@@QBE_NXZ PROC	; std::vector<int,std::allocator<int> >::empty, COMDAT
; _this$ = ecx

; 889  : 		return (this->_Myfirst == this->_Mylast);

  00000	8b 01		 mov	 eax, DWORD PTR [ecx]
  00002	2b 41 04	 sub	 eax, DWORD PTR [ecx+4]
  00005	f7 d8		 neg	 eax
  00007	1b c0		 sbb	 eax, eax
  00009	40		 inc	 eax

; 890  : 		}

  0000a	c3		 ret	 0
?empty@?$vector@HV?$allocator@H@std@@@std@@QBE_NXZ ENDP	; std::vector<int,std::allocator<int> >::empty
_TEXT	ENDS
PUBLIC	??A?$vector@HV?$allocator@H@std@@@std@@QAEAAHI@Z ; std::vector<int,std::allocator<int> >::operator[]
; Function compile flags: /Ogsp
;	COMDAT ??A?$vector@HV?$allocator@H@std@@@std@@QAEAAHI@Z
_TEXT	SEGMENT
__Pos$ = 8						; size = 4
??A?$vector@HV?$allocator@H@std@@@std@@QAEAAHI@Z PROC	; std::vector<int,std::allocator<int> >::operator[], COMDAT
; _this$ = ecx

; 928  : 		{	// subscript mutable sequence

  00000	55		 push	 ebp
  00001	8b ec		 mov	 ebp, esp

; 929  :  #if _ITERATOR_DEBUG_LEVEL == 2
; 930  : 		if (size() <= _Pos)
; 931  : 			{	// report error
; 932  : 			_DEBUG_ERROR("vector subscript out of range");
; 933  : 			_SCL_SECURE_OUT_OF_RANGE;
; 934  : 			}
; 935  : 
; 936  :  #elif _ITERATOR_DEBUG_LEVEL == 1
; 937  : 		_SCL_SECURE_VALIDATE_RANGE(_Pos < size());
; 938  :  #endif /* _ITERATOR_DEBUG_LEVEL */
; 939  : 
; 940  : 		return (*(this->_Myfirst + _Pos));

  00003	8b 01		 mov	 eax, DWORD PTR [ecx]
  00005	8b 4d 08	 mov	 ecx, DWORD PTR __Pos$[ebp]
  00008	8d 04 88	 lea	 eax, DWORD PTR [eax+ecx*4]

; 941  : 		}

  0000b	5d		 pop	 ebp
  0000c	c2 04 00	 ret	 4
??A?$vector@HV?$allocator@H@std@@@std@@QAEAAHI@Z ENDP	; std::vector<int,std::allocator<int> >::operator[]
_TEXT	ENDS
PUBLIC	??_7?$CEncrypt@H@@6B@				; CEncrypt<int>::`vftable'
PUBLIC	??1?$CEncrypt@H@@UAE@XZ				; CEncrypt<int>::~CEncrypt<int>
PUBLIC	??_R4?$CEncrypt@H@@6B@				; CEncrypt<int>::`RTTI Complete Object Locator'
PUBLIC	??_R0?AV?$CEncrypt@H@@@8			; CEncrypt<int> `RTTI Type Descriptor'
PUBLIC	??_R3?$CEncrypt@H@@8				; CEncrypt<int>::`RTTI Class Hierarchy Descriptor'
PUBLIC	??_R2?$CEncrypt@H@@8				; CEncrypt<int>::`RTTI Base Class Array'
PUBLIC	??_R1A@?0A@EA@?$CEncrypt@H@@8			; CEncrypt<int>::`RTTI Base Class Descriptor at (0,-1,0,64)'
EXTRN	??1ccddaabb@@UAE@XZ:PROC			; ccddaabb::~ccddaabb
EXTRN	??_E?$CEncrypt@H@@UAEPAXI@Z:PROC		; CEncrypt<int>::`vector deleting destructor'
;	COMDAT ??_R1A@?0A@EA@?$CEncrypt@H@@8
; File d:\lost saga for developer\youtube\tutorial\source\src\lsclient\encryptvalue.h
rdata$r	SEGMENT
??_R1A@?0A@EA@?$CEncrypt@H@@8 DD FLAT:??_R0?AV?$CEncrypt@H@@@8 ; CEncrypt<int>::`RTTI Base Class Descriptor at (0,-1,0,64)'
	DD	00H
	DD	00H
	DD	0ffffffffH
	DD	00H
	DD	040H
	DD	FLAT:??_R3?$CEncrypt@H@@8
rdata$r	ENDS
;	COMDAT ??_R2?$CEncrypt@H@@8
rdata$r	SEGMENT
??_R2?$CEncrypt@H@@8 DD FLAT:??_R1A@?0A@EA@?$CEncrypt@H@@8 ; CEncrypt<int>::`RTTI Base Class Array'
rdata$r	ENDS
;	COMDAT ??_R3?$CEncrypt@H@@8
rdata$r	SEGMENT
??_R3?$CEncrypt@H@@8 DD 00H				; CEncrypt<int>::`RTTI Class Hierarchy Descriptor'
	DD	00H
	DD	01H
	DD	FLAT:??_R2?$CEncrypt@H@@8
rdata$r	ENDS
;	COMDAT ??_R0?AV?$CEncrypt@H@@@8
_DATA	SEGMENT
??_R0?AV?$CEncrypt@H@@@8 DD FLAT:??_7type_info@@6B@	; CEncrypt<int> `RTTI Type Descriptor'
	DD	00H
	DB	'.?AV?$CEncrypt@H@@', 00H
_DATA	ENDS
;	COMDAT ??_R4?$CEncrypt@H@@6B@
rdata$r	SEGMENT
??_R4?$CEncrypt@H@@6B@ DD 00H				; CEncrypt<int>::`RTTI Complete Object Locator'
	DD	00H
	DD	00H
	DD	FLAT:??_R0?AV?$CEncrypt@H@@@8
	DD	FLAT:??_R3?$CEncrypt@H@@8
rdata$r	ENDS
;	COMDAT ??_7?$CEncrypt@H@@6B@
CONST	SEGMENT
??_7?$CEncrypt@H@@6B@ DD FLAT:??_R4?$CEncrypt@H@@6B@	; CEncrypt<int>::`vftable'
	DD	FLAT:??_E?$CEncrypt@H@@UAEPAXI@Z
; Function compile flags: /Ogsp
CONST	ENDS
;	COMDAT ??1?$CEncrypt@H@@UAE@XZ
_TEXT	SEGMENT
??1?$CEncrypt@H@@UAE@XZ PROC				; CEncrypt<int>::~CEncrypt<int>, COMDAT
; _this$ = ecx

; 127  : 	{

  00000	c7 01 00 00 00
	00		 mov	 DWORD PTR [ecx], OFFSET ??_7?$CEncrypt@H@@6B@

; 128  : 	}

  00006	83 c1 0c	 add	 ecx, 12			; 0000000cH
  00009	e9 00 00 00 00	 jmp	 ??1ccddaabb@@UAE@XZ	; ccddaabb::~ccddaabb
??1?$CEncrypt@H@@UAE@XZ ENDP				; CEncrypt<int>::~CEncrypt<int>
; Function compile flags: /Ogsp
_TEXT	ENDS
;	COMDAT ??_G?$CEncrypt@H@@UAEPAXI@Z
_TEXT	SEGMENT
___flags$ = 8						; size = 4
??_G?$CEncrypt@H@@UAEPAXI@Z PROC			; CEncrypt<int>::`scalar deleting destructor', COMDAT
; _this$ = ecx
  00000	55		 push	 ebp
  00001	8b ec		 mov	 ebp, esp
  00003	56		 push	 esi
  00004	8b f1		 mov	 esi, ecx
  00006	8d 4e 0c	 lea	 ecx, DWORD PTR [esi+12]
  00009	c7 06 00 00 00
	00		 mov	 DWORD PTR [esi], OFFSET ??_7?$CEncrypt@H@@6B@
  0000f	e8 00 00 00 00	 call	 ??1ccddaabb@@UAE@XZ	; ccddaabb::~ccddaabb
  00014	f6 45 08 01	 test	 BYTE PTR ___flags$[ebp], 1
  00018	74 07		 je	 SHORT $LN1@scalar@2
  0001a	56		 push	 esi
  0001b	e8 00 00 00 00	 call	 ??3@YAXPAX@Z		; operator delete
  00020	59		 pop	 ecx
$LN1@scalar@2:
  00021	8b c6		 mov	 eax, esi
  00023	5e		 pop	 esi
  00024	5d		 pop	 ebp
  00025	c2 04 00	 ret	 4
??_G?$CEncrypt@H@@UAEPAXI@Z ENDP			; CEncrypt<int>::`scalar deleting destructor'
_TEXT	ENDS
PUBLIC	??0?$allocator@H@std@@QAE@XZ			; std::allocator<int>::allocator<int>
; Function compile flags: /Ogsp
; File c:\program files (x86)\microsoft visual studio 10.0\vc\include\xmemory
;	COMDAT ??0?$allocator@H@std@@QAE@XZ
_TEXT	SEGMENT
??0?$allocator@H@std@@QAE@XZ PROC			; std::allocator<int>::allocator<int>, COMDAT
; _this$ = ecx

; 161  : 	_ALLOCATOR() _THROW0()

  00000	8b c1		 mov	 eax, ecx

; 162  : 		{	// construct default allocator (do nothing)
; 163  : 		}

  00002	c3		 ret	 0
??0?$allocator@H@std@@QAE@XZ ENDP			; std::allocator<int>::allocator<int>
_TEXT	ENDS
PUBLIC	??1?$_Vector_val@HV?$allocator@H@std@@@std@@QAE@XZ ; std::_Vector_val<int,std::allocator<int> >::~_Vector_val<int,std::allocator<int> >
; Function compile flags: /Ogsp
; File c:\program files (x86)\microsoft visual studio 10.0\vc\include\vector
;	COMDAT ??1?$_Vector_val@HV?$allocator@H@std@@@std@@QAE@XZ
_TEXT	SEGMENT
??1?$_Vector_val@HV?$allocator@H@std@@@std@@QAE@XZ PROC	; std::_Vector_val<int,std::allocator<int> >::~_Vector_val<int,std::allocator<int> >, COMDAT
; _this$ = ecx

; 434  : 		}

  00000	c3		 ret	 0
??1?$_Vector_val@HV?$allocator@H@std@@@std@@QAE@XZ ENDP	; std::_Vector_val<int,std::allocator<int> >::~_Vector_val<int,std::allocator<int> >
_TEXT	ENDS
PUBLIC	?EncryptValueToPool@?$CEncrypt@H@@AAEXPBD@Z	; CEncrypt<int>::EncryptValueToPool
EXTRN	?EncryptByte@ccddaabb@@QAEXPBDPADH@Z:PROC	; ccddaabb::EncryptByte
; Function compile flags: /Ogsp
; File d:\lost saga for developer\youtube\tutorial\source\src\lsclient\encryptvalue.h
;	COMDAT ?EncryptValueToPool@?$CEncrypt@H@@AAEXPBD@Z
_TEXT	SEGMENT
_value$ = 8						; size = 4
?EncryptValueToPool@?$CEncrypt@H@@AAEXPBD@Z PROC	; CEncrypt<int>::EncryptValueToPool, COMDAT
; _this$ = ecx

; 67   : 	{

  00000	55		 push	 ebp
  00001	8b ec		 mov	 ebp, esp

; 68   : 		m_RC5.EncryptByte( value, m_MemPool, max(m_ValueSize, DEFAULT_ENCRYPT) );

  00003	0f b7 41 06	 movzx	 eax, WORD PTR [ecx+6]
  00007	83 f8 04	 cmp	 eax, 4
  0000a	77 03		 ja	 SHORT $LN4@EncryptVal
  0000c	6a 04		 push	 4
  0000e	58		 pop	 eax
$LN4@EncryptVal:
  0000f	50		 push	 eax
  00010	8d 41 1c	 lea	 eax, DWORD PTR [ecx+28]
  00013	50		 push	 eax
  00014	ff 75 08	 push	 DWORD PTR _value$[ebp]
  00017	83 c1 0c	 add	 ecx, 12			; 0000000cH
  0001a	e8 00 00 00 00	 call	 ?EncryptByte@ccddaabb@@QAEXPBDPADH@Z ; ccddaabb::EncryptByte

; 69   : 		
; 70   : 	}

  0001f	5d		 pop	 ebp
  00020	c2 04 00	 ret	 4
?EncryptValueToPool@?$CEncrypt@H@@AAEXPBD@Z ENDP	; CEncrypt<int>::EncryptValueToPool
_TEXT	ENDS
PUBLIC	?Init@?$CEncrypt@H@@AAEXXZ			; CEncrypt<int>::Init
EXTRN	?Setup@ccddaabb@@QAEXPBDHH@Z:PROC		; ccddaabb::Setup
EXTRN	__imp__rand:PROC
EXTRN	__imp__timeGetTime@0:PROC
EXTRN	__imp__GetCurrentProcessId@0:PROC
; Function compile flags: /Ogsp
;	COMDAT ?Init@?$CEncrypt@H@@AAEXXZ
_TEXT	SEGMENT
_pid$ = -8						; size = 4
_tick$ = -4						; size = 4
?Init@?$CEncrypt@H@@AAEXXZ PROC				; CEncrypt<int>::Init, COMDAT
; _this$ = ecx

; 73   : 	{

  00000	55		 push	 ebp
  00001	8b ec		 mov	 ebp, esp
  00003	51		 push	 ecx
  00004	51		 push	 ecx
  00005	53		 push	 ebx
  00006	56		 push	 esi
  00007	57		 push	 edi
  00008	8b f1		 mov	 esi, ecx

; 74   : 		DWORD pid = GetCurrentProcessId();

  0000a	ff 15 00 00 00
	00		 call	 DWORD PTR __imp__GetCurrentProcessId@0
  00010	89 45 f8	 mov	 DWORD PTR _pid$[ebp], eax

; 75   : 		DWORD tick = timeGetTime();

  00013	ff 15 00 00 00
	00		 call	 DWORD PTR __imp__timeGetTime@0

; 76   : 		m_ValueSize    = sizeof(type);
; 77   : 		m_MemPoolPos   = (unsigned short)( rand()+pid+tick )%(MAX_MEM_POOL-m_ValueSize);

  00019	8b 3d 00 00 00
	00		 mov	 edi, DWORD PTR __imp__rand
  0001f	89 45 fc	 mov	 DWORD PTR _tick$[ebp], eax
  00022	6a 04		 push	 4
  00024	58		 pop	 eax
  00025	66 89 46 06	 mov	 WORD PTR [esi+6], ax
  00029	ff d7		 call	 edi
  0002b	03 45 f8	 add	 eax, DWORD PTR _pid$[ebp]
  0002e	0f b7 4e 06	 movzx	 ecx, WORD PTR [esi+6]
  00032	03 45 fc	 add	 eax, DWORD PTR _tick$[ebp]
  00035	6a 0c		 push	 12			; 0000000cH
  00037	0f b7 c0	 movzx	 eax, ax
  0003a	5b		 pop	 ebx
  0003b	99		 cdq
  0003c	2b d9		 sub	 ebx, ecx
  0003e	f7 fb		 idiv	 ebx
  00040	66 89 56 04	 mov	 WORD PTR [esi+4], dx

; 78   : 		m_EncryptSeed  = (char)( rand()+pid+tick )%256;

  00044	ff d7		 call	 edi
  00046	02 45 f8	 add	 al, BYTE PTR _pid$[ebp]
  00049	02 45 fc	 add	 al, BYTE PTR _tick$[ebp]
  0004c	0f be c0	 movsx	 eax, al
  0004f	25 ff 00 00 80	 and	 eax, -2147483393	; 800000ffH
  00054	79 07		 jns	 SHORT $LN8@Init
  00056	48		 dec	 eax
  00057	0d 00 ff ff ff	 or	 eax, -256		; ffffff00H
  0005c	40		 inc	 eax
$LN8@Init:
  0005d	88 46 08	 mov	 BYTE PTR [esi+8], al

; 79   : 
; 80   : 		for (int i = 0; i < MAX_MEM_POOL ; i++)

  00060	33 db		 xor	 ebx, ebx
$LL3@Init:

; 81   : 			m_MemPool[i] = (char)( rand()+pid+tick )%256; // 더미

  00062	ff d7		 call	 edi
  00064	02 45 f8	 add	 al, BYTE PTR _pid$[ebp]
  00067	02 45 fc	 add	 al, BYTE PTR _tick$[ebp]
  0006a	0f be c0	 movsx	 eax, al
  0006d	25 ff 00 00 80	 and	 eax, -2147483393	; 800000ffH
  00072	79 07		 jns	 SHORT $LN9@Init
  00074	48		 dec	 eax
  00075	0d 00 ff ff ff	 or	 eax, -256		; ffffff00H
  0007a	40		 inc	 eax
$LN9@Init:
  0007b	88 44 1e 1c	 mov	 BYTE PTR [esi+ebx+28], al
  0007f	43		 inc	 ebx
  00080	83 fb 0c	 cmp	 ebx, 12			; 0000000cH
  00083	7c dd		 jl	 SHORT $LL3@Init

; 82   : 
; 83   : 		//UJ 130913, 최적화: szKey 사용안하도록 간략화
; 84   : 		//char szKey[ccddaabb::KEY_SIZE];//="";
; 85   : 		//for (int i = 0; i < ccddaabb::KEY_SIZE  ; i++)
; 86   : 		//	szKey[i] = (char)( rand()+pid+tick )%256; // 더미
; 87   : 		m_RC5.Setup( NULL, pid, tick );

  00085	ff 75 fc	 push	 DWORD PTR _tick$[ebp]
  00088	8d 4e 0c	 lea	 ecx, DWORD PTR [esi+12]
  0008b	ff 75 f8	 push	 DWORD PTR _pid$[ebp]
  0008e	6a 00		 push	 0
  00090	e8 00 00 00 00	 call	 ?Setup@ccddaabb@@QAEXPBDHH@Z ; ccddaabb::Setup
  00095	5f		 pop	 edi
  00096	5e		 pop	 esi
  00097	5b		 pop	 ebx

; 88   : 
; 89   : #ifdef _NOTUSE
; 90   : 		m_value        = 0;
; 91   : 		EncryptValueToPool((char*)&m_value);
; 92   : 		Debug();
; 93   : #endif
; 94   : 	}

  00098	c9		 leave
  00099	c3		 ret	 0
?Init@?$CEncrypt@H@@AAEXXZ ENDP				; CEncrypt<int>::Init
_TEXT	ENDS
PUBLIC	?DecryptValueToPool@?$CEncrypt@H@@QAEXPAH@Z	; CEncrypt<int>::DecryptValueToPool
EXTRN	?DecryptByte@ccddaabb@@QBEXPBDPADH@Z:PROC	; ccddaabb::DecryptByte
; Function compile flags: /Ogsp
;	COMDAT ?DecryptValueToPool@?$CEncrypt@H@@QAEXPAH@Z
_TEXT	SEGMENT
_value$ = 8						; size = 4
?DecryptValueToPool@?$CEncrypt@H@@QAEXPAH@Z PROC	; CEncrypt<int>::DecryptValueToPool, COMDAT
; _this$ = ecx

; 837  : 	{

  00000	55		 push	 ebp
  00001	8b ec		 mov	 ebp, esp
  00003	56		 push	 esi

; 838  : 		m_RC5.DecryptByte( m_MemPool, m_TempMem, 4 );

  00004	8d 71 28	 lea	 esi, DWORD PTR [ecx+40]
  00007	6a 04		 push	 4
  00009	8d 41 1c	 lea	 eax, DWORD PTR [ecx+28]
  0000c	56		 push	 esi
  0000d	50		 push	 eax
  0000e	83 c1 0c	 add	 ecx, 12			; 0000000cH
  00011	e8 00 00 00 00	 call	 ?DecryptByte@ccddaabb@@QBEXPBDPADH@Z ; ccddaabb::DecryptByte

; 839  : 		*value = *((int*)m_TempMem);

  00016	8b 06		 mov	 eax, DWORD PTR [esi]
  00018	8b 4d 08	 mov	 ecx, DWORD PTR _value$[ebp]
  0001b	89 01		 mov	 DWORD PTR [ecx], eax
  0001d	5e		 pop	 esi

; 840  : 	}

  0001e	5d		 pop	 ebp
  0001f	c2 04 00	 ret	 4
?DecryptValueToPool@?$CEncrypt@H@@QAEXPAH@Z ENDP	; CEncrypt<int>::DecryptValueToPool
_TEXT	ENDS
PUBLIC	??0?$_Vector_const_iterator@V?$_Vector_val@HV?$allocator@H@std@@@std@@@std@@QAE@PAHPBU_Container_base0@1@@Z ; std::_Vector_const_iterator<std::_Vector_val<int,std::allocator<int> > >::_Vector_const_iterator<std::_Vector_val<int,std::allocator<int> > >
; Function compile flags: /Ogsp
; File c:\program files (x86)\microsoft visual studio 10.0\vc\include\vector
;	COMDAT ??0?$_Vector_const_iterator@V?$_Vector_val@HV?$allocator@H@std@@@std@@@std@@QAE@PAHPBU_Container_base0@1@@Z
_TEXT	SEGMENT
__Parg$ = 8						; size = 4
__Pvector$ = 12						; size = 4
??0?$_Vector_const_iterator@V?$_Vector_val@HV?$allocator@H@std@@@std@@@std@@QAE@PAHPBU_Container_base0@1@@Z PROC ; std::_Vector_const_iterator<std::_Vector_val<int,std::allocator<int> > >::_Vector_const_iterator<std::_Vector_val<int,std::allocator<int> > >, COMDAT
; _this$ = ecx

; 45   : 		{	// construct with pointer _Parg

  00000	55		 push	 ebp
  00001	8b ec		 mov	 ebp, esp
  00003	8b c1		 mov	 eax, ecx
  00005	8b 4d 08	 mov	 ecx, DWORD PTR __Parg$[ebp]
  00008	89 08		 mov	 DWORD PTR [eax], ecx

; 46   : 		this->_Adopt(_Pvector);
; 47   : 		}

  0000a	5d		 pop	 ebp
  0000b	c2 08 00	 ret	 8
??0?$_Vector_const_iterator@V?$_Vector_val@HV?$allocator@H@std@@@std@@@std@@QAE@PAHPBU_Container_base0@1@@Z ENDP ; std::_Vector_const_iterator<std::_Vector_val<int,std::allocator<int> > >::_Vector_const_iterator<std::_Vector_val<int,std::allocator<int> > >
_TEXT	ENDS
PUBLIC	??0?$_Vector_iterator@V?$_Vector_val@HV?$allocator@H@std@@@std@@@std@@QAE@PAHPBU_Container_base0@1@@Z ; std::_Vector_iterator<std::_Vector_val<int,std::allocator<int> > >::_Vector_iterator<std::_Vector_val<int,std::allocator<int> > >
; Function compile flags: /Ogsp
;	COMDAT ??0?$_Vector_iterator@V?$_Vector_val@HV?$allocator@H@std@@@std@@@std@@QAE@PAHPBU_Container_base0@1@@Z
_TEXT	SEGMENT
__Parg$ = 8						; size = 4
__Pvector$ = 12						; size = 4
??0?$_Vector_iterator@V?$_Vector_val@HV?$allocator@H@std@@@std@@@std@@QAE@PAHPBU_Container_base0@1@@Z PROC ; std::_Vector_iterator<std::_Vector_val<int,std::allocator<int> > >::_Vector_iterator<std::_Vector_val<int,std::allocator<int> > >, COMDAT
; _this$ = ecx

; 304  : 		{	// construct with pointer _Parg

  00000	55		 push	 ebp
  00001	8b ec		 mov	 ebp, esp
  00003	8b c1		 mov	 eax, ecx
  00005	8b 4d 08	 mov	 ecx, DWORD PTR __Parg$[ebp]
  00008	89 08		 mov	 DWORD PTR [eax], ecx

; 305  : 		}

  0000a	5d		 pop	 ebp
  0000b	c2 08 00	 ret	 8
??0?$_Vector_iterator@V?$_Vector_val@HV?$allocator@H@std@@@std@@@std@@QAE@PAHPBU_Container_base0@1@@Z ENDP ; std::_Vector_iterator<std::_Vector_val<int,std::allocator<int> > >::_Vector_iterator<std::_Vector_val<int,std::allocator<int> > >
_TEXT	ENDS
PUBLIC	??0?$allocator@H@std@@QAE@ABV01@@Z		; std::allocator<int>::allocator<int>
; Function compile flags: /Ogsp
; File c:\program files (x86)\microsoft visual studio 10.0\vc\include\xmemory
;	COMDAT ??0?$allocator@H@std@@QAE@ABV01@@Z
_TEXT	SEGMENT
___formal$ = 8						; size = 4
??0?$allocator@H@std@@QAE@ABV01@@Z PROC			; std::allocator<int>::allocator<int>, COMDAT
; _this$ = ecx

; 165  : 	_ALLOCATOR(const _ALLOCATOR<_Ty>&) _THROW0()

  00000	8b c1		 mov	 eax, ecx

; 166  : 		{	// construct by copying (do nothing)
; 167  : 		}

  00002	c2 04 00	 ret	 4
??0?$allocator@H@std@@QAE@ABV01@@Z ENDP			; std::allocator<int>::allocator<int>
_TEXT	ENDS
PUBLIC	?deallocate@?$allocator@H@std@@QAEXPAHI@Z	; std::allocator<int>::deallocate
; Function compile flags: /Ogsp
;	COMDAT ?deallocate@?$allocator@H@std@@QAEXPAHI@Z
_TEXT	SEGMENT
__Ptr$ = 8						; size = 4
___formal$ = 12						; size = 4
?deallocate@?$allocator@H@std@@QAEXPAHI@Z PROC		; std::allocator<int>::deallocate, COMDAT
; _this$ = ecx

; 181  : 		{	// deallocate object at _Ptr, ignore size

  00000	55		 push	 ebp
  00001	8b ec		 mov	 ebp, esp

; 182  : 		::operator delete(_Ptr);

  00003	ff 75 08	 push	 DWORD PTR __Ptr$[ebp]
  00006	e8 00 00 00 00	 call	 ??3@YAXPAX@Z		; operator delete
  0000b	59		 pop	 ecx

; 183  : 		}

  0000c	5d		 pop	 ebp
  0000d	c2 08 00	 ret	 8
?deallocate@?$allocator@H@std@@QAEXPAHI@Z ENDP		; std::allocator<int>::deallocate
_TEXT	ENDS
PUBLIC	?capacity@?$vector@HV?$allocator@H@std@@@std@@QBEIXZ ; std::vector<int,std::allocator<int> >::capacity
; Function compile flags: /Ogsp
; File c:\program files (x86)\microsoft visual studio 10.0\vc\include\vector
;	COMDAT ?capacity@?$vector@HV?$allocator@H@std@@@std@@QBEIXZ
_TEXT	SEGMENT
?capacity@?$vector@HV?$allocator@H@std@@@std@@QBEIXZ PROC ; std::vector<int,std::allocator<int> >::capacity, COMDAT
; _this$ = ecx

; 777  : 		return (this->_Myend - this->_Myfirst);

  00000	8b 41 08	 mov	 eax, DWORD PTR [ecx+8]
  00003	2b 01		 sub	 eax, DWORD PTR [ecx]
  00005	c1 f8 02	 sar	 eax, 2

; 778  : 		}

  00008	c3		 ret	 0
?capacity@?$vector@HV?$allocator@H@std@@@std@@QBEIXZ ENDP ; std::vector<int,std::allocator<int> >::capacity
_TEXT	ENDS
PUBLIC	?_Make_iter@?$vector@HV?$allocator@H@std@@@std@@QBE?AV?$_Vector_iterator@V?$_Vector_val@HV?$allocator@H@std@@@std@@@2@V?$_Vector_const_iterator@V?$_Vector_val@HV?$allocator@H@std@@@std@@@2@@Z ; std::vector<int,std::allocator<int> >::_Make_iter
; Function compile flags: /Ogsp
;	COMDAT ?_Make_iter@?$vector@HV?$allocator@H@std@@@std@@QBE?AV?$_Vector_iterator@V?$_Vector_val@HV?$allocator@H@std@@@std@@@2@V?$_Vector_const_iterator@V?$_Vector_val@HV?$allocator@H@std@@@std@@@2@@Z
_TEXT	SEGMENT
___$ReturnUdt$ = 8					; size = 4
__Where$ = 12						; size = 4
?_Make_iter@?$vector@HV?$allocator@H@std@@@std@@QBE?AV?$_Vector_iterator@V?$_Vector_val@HV?$allocator@H@std@@@std@@@2@V?$_Vector_const_iterator@V?$_Vector_val@HV?$allocator@H@std@@@std@@@2@@Z PROC ; std::vector<int,std::allocator<int> >::_Make_iter, COMDAT
; _this$ = ecx

; 801  : 		{	// make iterator from const_iterator

  00000	55		 push	 ebp
  00001	8b ec		 mov	 ebp, esp

; 802  : 		return (iterator(_Where._Ptr, this));

  00003	8b 45 08	 mov	 eax, DWORD PTR ___$ReturnUdt$[ebp]
  00006	8b 4d 0c	 mov	 ecx, DWORD PTR __Where$[ebp]
  00009	89 08		 mov	 DWORD PTR [eax], ecx

; 803  : 		}

  0000b	5d		 pop	 ebp
  0000c	c2 08 00	 ret	 8
?_Make_iter@?$vector@HV?$allocator@H@std@@@std@@QBE?AV?$_Vector_iterator@V?$_Vector_val@HV?$allocator@H@std@@@std@@@2@V?$_Vector_const_iterator@V?$_Vector_val@HV?$allocator@H@std@@@std@@@2@@Z ENDP ; std::vector<int,std::allocator<int> >::_Make_iter
_TEXT	ENDS
PUBLIC	?_Xlen@?$vector@HV?$allocator@H@std@@@std@@IBEXXZ ; std::vector<int,std::allocator<int> >::_Xlen
; Function compile flags: /Ogsp
;	COMDAT ?_Xlen@?$vector@HV?$allocator@H@std@@@std@@IBEXXZ
_TEXT	SEGMENT
?_Xlen@?$vector@HV?$allocator@H@std@@@std@@IBEXXZ PROC	; std::vector<int,std::allocator<int> >::_Xlen, COMDAT
; _this$ = ecx

; 1427 : 		_Xlength_error("vector<T> too long");

  00000	68 00 00 00 00	 push	 OFFSET ??_C@_0BD@OLBABOEK@vector?$DMT?$DO?5too?5long?$AA@
  00005	ff 15 00 00 00
	00		 call	 DWORD PTR __imp_?_Xlength_error@std@@YAXPBD@Z
$LN4@Xlen@3:
$LN3@Xlen@3:
  0000b	cc		 int	 3
?_Xlen@?$vector@HV?$allocator@H@std@@@std@@IBEXXZ ENDP	; std::vector<int,std::allocator<int> >::_Xlen
_TEXT	ENDS
PUBLIC	?max_size@?$allocator@H@std@@QBEIXZ		; std::allocator<int>::max_size
; Function compile flags: /Ogsp
; File c:\program files (x86)\microsoft visual studio 10.0\vc\include\xmemory
;	COMDAT ?max_size@?$allocator@H@std@@QBEIXZ
_TEXT	SEGMENT
?max_size@?$allocator@H@std@@QBEIXZ PROC		; std::allocator<int>::max_size, COMDAT
; _this$ = ecx

; 218  : 		_SIZT _Count = (_SIZT)(-1) / sizeof (_Ty);
; 219  : 		return (0 < _Count ? _Count : 1);

  00000	b8 ff ff ff 3f	 mov	 eax, 1073741823		; 3fffffffH

; 220  : 		}

  00005	c3		 ret	 0
?max_size@?$allocator@H@std@@QBEIXZ ENDP		; std::allocator<int>::max_size
_TEXT	ENDS
PUBLIC	??Y?$_Vector_const_iterator@V?$_Vector_val@HV?$allocator@H@std@@@std@@@std@@QAEAAV01@H@Z ; std::_Vector_const_iterator<std::_Vector_val<int,std::allocator<int> > >::operator+=
; Function compile flags: /Ogsp
; File c:\program files (x86)\microsoft visual studio 10.0\vc\include\vector
;	COMDAT ??Y?$_Vector_const_iterator@V?$_Vector_val@HV?$allocator@H@std@@@std@@@std@@QAEAAV01@H@Z
_TEXT	SEGMENT
__Off$ = 8						; size = 4
??Y?$_Vector_const_iterator@V?$_Vector_val@HV?$allocator@H@std@@@std@@@std@@QAEAAV01@H@Z PROC ; std::_Vector_const_iterator<std::_Vector_val<int,std::allocator<int> > >::operator+=, COMDAT
; _this$ = ecx

; 151  : 		{	// increment by integer

  00000	55		 push	 ebp
  00001	8b ec		 mov	 ebp, esp
  00003	8b c1		 mov	 eax, ecx

; 152  :  #if _ITERATOR_DEBUG_LEVEL == 2
; 153  : 		if (this->_Getcont() == 0
; 154  : 			|| this->_Ptr + _Off < ((_Myvec *)this->_Getcont())->_Myfirst
; 155  : 			|| ((_Myvec *)this->_Getcont())->_Mylast < this->_Ptr + _Off)
; 156  : 			{	// report error
; 157  : 			_DEBUG_ERROR("vector iterator + offset out of range");
; 158  : 			_SCL_SECURE_OUT_OF_RANGE;
; 159  : 			}
; 160  : 
; 161  :  #elif _ITERATOR_DEBUG_LEVEL == 1
; 162  : 		_SCL_SECURE_VALIDATE(this->_Getcont() != 0);
; 163  : 		_SCL_SECURE_VALIDATE_RANGE(
; 164  : 			((_Myvec *)this->_Getcont())->_Myfirst <= this->_Ptr + _Off
; 165  : 			&& this->_Ptr + _Off <= ((_Myvec *)this->_Getcont())->_Mylast);
; 166  :  #endif /* _ITERATOR_DEBUG_LEVEL */
; 167  : 
; 168  : 		_Ptr += _Off;

  00005	8b 4d 08	 mov	 ecx, DWORD PTR __Off$[ebp]
  00008	c1 e1 02	 shl	 ecx, 2
  0000b	01 08		 add	 DWORD PTR [eax], ecx

; 169  : 		return (*this);
; 170  : 		}

  0000d	5d		 pop	 ebp
  0000e	c2 04 00	 ret	 4
??Y?$_Vector_const_iterator@V?$_Vector_val@HV?$allocator@H@std@@@std@@@std@@QAEAAV01@H@Z ENDP ; std::_Vector_const_iterator<std::_Vector_val<int,std::allocator<int> > >::operator+=
_TEXT	ENDS
PUBLIC	?_Compat@?$_Vector_const_iterator@V?$_Vector_val@HV?$allocator@H@std@@@std@@@std@@QBEXABV12@@Z ; std::_Vector_const_iterator<std::_Vector_val<int,std::allocator<int> > >::_Compat
; Function compile flags: /Ogsp
;	COMDAT ?_Compat@?$_Vector_const_iterator@V?$_Vector_val@HV?$allocator@H@std@@@std@@@std@@QBEXABV12@@Z
_TEXT	SEGMENT
___formal$ = 8						; size = 4
?_Compat@?$_Vector_const_iterator@V?$_Vector_val@HV?$allocator@H@std@@@std@@@std@@QBEXABV12@@Z PROC ; std::_Vector_const_iterator<std::_Vector_val<int,std::allocator<int> > >::_Compat, COMDAT
; _this$ = ecx

; 253  : 		}

  00000	c2 04 00	 ret	 4
?_Compat@?$_Vector_const_iterator@V?$_Vector_val@HV?$allocator@H@std@@@std@@@std@@QBEXABV12@@Z ENDP ; std::_Vector_const_iterator<std::_Vector_val<int,std::allocator<int> > >::_Compat
_TEXT	ENDS
PUBLIC	??$_Allocate@H@std@@YAPAHIPAH@Z			; std::_Allocate<int>
; Function compile flags: /Ogsp
; File c:\program files (x86)\microsoft visual studio 10.0\vc\include\xmemory
;	COMDAT ??$_Allocate@H@std@@YAPAHIPAH@Z
_TEXT	SEGMENT
$T518263 = -12						; size = 12
$T518267 = 8						; size = 4
__Count$ = 8						; size = 4
___formal$ = 12						; size = 4
??$_Allocate@H@std@@YAPAHIPAH@Z PROC			; std::_Allocate<int>, COMDAT

; 30   : 	{	// allocate storage for _Count elements of type _Ty

  00000	55		 push	 ebp
  00001	8b ec		 mov	 ebp, esp

; 31   : 	void *_Ptr = 0;
; 32   : 
; 33   : 	if (_Count <= 0)

  00003	8b 4d 08	 mov	 ecx, DWORD PTR __Count$[ebp]
  00006	83 ec 0c	 sub	 esp, 12			; 0000000cH
  00009	33 c0		 xor	 eax, eax
  0000b	85 c9		 test	 ecx, ecx

; 34   : 		_Count = 0;
; 35   : 	else if (((_SIZT)(-1) / sizeof (_Ty) < _Count)

  0000d	74 3e		 je	 SHORT $LN5@Allocate@3

; 36   : 		|| (_Ptr = ::operator new(_Count * sizeof (_Ty))) == 0)

  0000f	81 f9 ff ff ff
	3f		 cmp	 ecx, 1073741823		; 3fffffffH
  00015	77 10		 ja	 SHORT $LN1@Allocate@3
  00017	8b c1		 mov	 eax, ecx
  00019	c1 e0 02	 shl	 eax, 2
  0001c	50		 push	 eax
  0001d	e8 00 00 00 00	 call	 ??2@YAPAXI@Z		; operator new
  00022	59		 pop	 ecx
  00023	85 c0		 test	 eax, eax

; 38   : 
; 39   : 	return ((_Ty _FARQ *)_Ptr);

  00025	75 26		 jne	 SHORT $LN5@Allocate@3
$LN1@Allocate@3:

; 37   : 		_THROW_NCEE(bad_alloc, 0);

  00027	83 65 08 00	 and	 DWORD PTR $T518267[ebp], 0
  0002b	8d 45 08	 lea	 eax, DWORD PTR $T518267[ebp]
  0002e	50		 push	 eax
  0002f	8d 4d f4	 lea	 ecx, DWORD PTR $T518263[ebp]
  00032	ff 15 00 00 00
	00		 call	 DWORD PTR __imp_??0exception@std@@QAE@ABQBD@Z
  00038	68 00 00 00 00	 push	 OFFSET __TI2?AVbad_alloc@std@@
  0003d	8d 45 f4	 lea	 eax, DWORD PTR $T518263[ebp]
  00040	50		 push	 eax
  00041	c7 45 f4 00 00
	00 00		 mov	 DWORD PTR $T518263[ebp], OFFSET ??_7bad_alloc@std@@6B@
  00048	e8 00 00 00 00	 call	 __CxxThrowException@8
$LN10@Allocate@3:
$LN5@Allocate@3:

; 40   : 	}

  0004d	c9		 leave
  0004e	c3		 ret	 0
$LN9@Allocate@3:
??$_Allocate@H@std@@YAPAHIPAH@Z ENDP			; std::_Allocate<int>
_TEXT	ENDS
EXTRN	__imp_??0exception@std@@QAE@ABV01@@Z:PROC
; Function compile flags: /Ogsp
;	COMDAT ??0bad_alloc@std@@QAE@ABV01@@Z
_TEXT	SEGMENT
___that$ = 8						; size = 4
??0bad_alloc@std@@QAE@ABV01@@Z PROC			; std::bad_alloc::bad_alloc, COMDAT
; _this$ = ecx
  00000	55		 push	 ebp
  00001	8b ec		 mov	 ebp, esp
  00003	56		 push	 esi
  00004	ff 75 08	 push	 DWORD PTR ___that$[ebp]
  00007	8b f1		 mov	 esi, ecx
  00009	ff 15 00 00 00
	00		 call	 DWORD PTR __imp_??0exception@std@@QAE@ABV01@@Z
  0000f	c7 06 00 00 00
	00		 mov	 DWORD PTR [esi], OFFSET ??_7bad_alloc@std@@6B@
  00015	8b c6		 mov	 eax, esi
  00017	5e		 pop	 esi
  00018	5d		 pop	 ebp
  00019	c2 04 00	 ret	 4
??0bad_alloc@std@@QAE@ABV01@@Z ENDP			; std::bad_alloc::bad_alloc
_TEXT	ENDS
PUBLIC	??$forward@AAH@std@@YAAAHAAH@Z			; std::forward<int &>
; Function compile flags: /Ogsp
; File c:\program files (x86)\microsoft visual studio 10.0\vc\include\utility
;	COMDAT ??$forward@AAH@std@@YAAAHAAH@Z
_TEXT	SEGMENT
__Arg$ = 8						; size = 4
??$forward@AAH@std@@YAAAHAAH@Z PROC			; std::forward<int &>, COMDAT

; 78   : 	{	// forward _Arg, given explicitly specified type parameter

  00000	55		 push	 ebp
  00001	8b ec		 mov	 ebp, esp

; 79   : 	return ((_Ty&&)_Arg);

  00003	8b 45 08	 mov	 eax, DWORD PTR __Arg$[ebp]

; 80   : 	}

  00006	5d		 pop	 ebp
  00007	c3		 ret	 0
??$forward@AAH@std@@YAAAHAAH@Z ENDP			; std::forward<int &>
_TEXT	ENDS
PUBLIC	??$_Val_type@PAH@std@@YAPAHPAH@Z		; std::_Val_type<int *>
; Function compile flags: /Ogsp
; File c:\program files (x86)\microsoft visual studio 10.0\vc\include\xutility
;	COMDAT ??$_Val_type@PAH@std@@YAPAHPAH@Z
_TEXT	SEGMENT
___formal$ = 8						; size = 4
??$_Val_type@PAH@std@@YAPAHPAH@Z PROC			; std::_Val_type<int *>, COMDAT

; 790  : 	return (0);

  00000	33 c0		 xor	 eax, eax

; 791  : 	}

  00002	c3		 ret	 0
??$_Val_type@PAH@std@@YAPAHPAH@Z ENDP			; std::_Val_type<int *>
_TEXT	ENDS
PUBLIC	??$_Ptr_cat@HH@std@@YA?AU_Scalar_ptr_iterator_tag@0@PAH0@Z ; std::_Ptr_cat<int,int>
; Function compile flags: /Ogsp
;	COMDAT ??$_Ptr_cat@HH@std@@YA?AU_Scalar_ptr_iterator_tag@0@PAH0@Z
_TEXT	SEGMENT
__Cat$ = -1						; size = 1
___formal$ = 8						; size = 4
___formal$ = 12						; size = 4
??$_Ptr_cat@HH@std@@YA?AU_Scalar_ptr_iterator_tag@0@PAH0@Z PROC ; std::_Ptr_cat<int,int>, COMDAT

; 516  : 	{	// return pointer category from pointers

  00000	55		 push	 ebp
  00001	8b ec		 mov	 ebp, esp
  00003	51		 push	 ecx

; 517  : 	typename _Ptr_cat_helper<_Elem1, _Elem2>::_Type _Cat;
; 518  : 	return (_Cat);

  00004	8a 45 ff	 mov	 al, BYTE PTR __Cat$[ebp]

; 519  : 	}

  00007	c9		 leave
  00008	c3		 ret	 0
??$_Ptr_cat@HH@std@@YA?AU_Scalar_ptr_iterator_tag@0@PAH0@Z ENDP ; std::_Ptr_cat<int,int>
_TEXT	ENDS
PUBLIC	??$_Move@PAHPAH@std@@YAPAHPAH00U_Scalar_ptr_iterator_tag@0@@Z ; std::_Move<int *,int *>
; Function compile flags: /Ogsp
;	COMDAT ??$_Move@PAHPAH@std@@YAPAHPAH00U_Scalar_ptr_iterator_tag@0@@Z
_TEXT	SEGMENT
__First$ = 8						; size = 4
__Last$ = 12						; size = 4
__Dest$ = 16						; size = 4
___formal$ = 20						; size = 1
??$_Move@PAHPAH@std@@YAPAHPAH00U_Scalar_ptr_iterator_tag@0@@Z PROC ; std::_Move<int *,int *>, COMDAT

; 2522 : 	{	// move [_First, _Last) to [_Dest, ...), pointers to scalars

  00000	55		 push	 ebp
  00001	8b ec		 mov	 ebp, esp
  00003	56		 push	 esi

; 2523 : 	ptrdiff_t _Count = _Last - _First;

  00004	8b 75 0c	 mov	 esi, DWORD PTR __Last$[ebp]
  00007	2b 75 08	 sub	 esi, DWORD PTR __First$[ebp]
  0000a	57		 push	 edi

; 2524 : 	_CSTD memmove(&*_Dest, &*_First,
; 2525 : 		_Count * sizeof (*_First));

  0000b	8b 7d 10	 mov	 edi, DWORD PTR __Dest$[ebp]
  0000e	c1 fe 02	 sar	 esi, 2
  00011	c1 e6 02	 shl	 esi, 2
  00014	56		 push	 esi
  00015	ff 75 08	 push	 DWORD PTR __First$[ebp]
  00018	57		 push	 edi
  00019	ff 15 00 00 00
	00		 call	 DWORD PTR __imp__memmove
  0001f	83 c4 0c	 add	 esp, 12			; 0000000cH

; 2526 : 	return (_Dest + _Count);

  00022	8d 04 3e	 lea	 eax, DWORD PTR [esi+edi]
  00025	5f		 pop	 edi
  00026	5e		 pop	 esi

; 2527 : 	}

  00027	5d		 pop	 ebp
  00028	c3		 ret	 0
??$_Move@PAHPAH@std@@YAPAHPAH00U_Scalar_ptr_iterator_tag@0@@Z ENDP ; std::_Move<int *,int *>
_TEXT	ENDS
PUBLIC	??$_Destroy_range@V?$allocator@H@std@@@std@@YAXPAH0AAV?$allocator@H@0@U_Scalar_ptr_iterator_tag@0@@Z ; std::_Destroy_range<std::allocator<int> >
; Function compile flags: /Ogsp
; File c:\program files (x86)\microsoft visual studio 10.0\vc\include\xmemory
;	COMDAT ??$_Destroy_range@V?$allocator@H@std@@@std@@YAXPAH0AAV?$allocator@H@0@U_Scalar_ptr_iterator_tag@0@@Z
_TEXT	SEGMENT
__First$ = 8						; size = 4
__Last$ = 12						; size = 4
__Al$ = 16						; size = 4
___formal$ = 20						; size = 1
??$_Destroy_range@V?$allocator@H@std@@@std@@YAXPAH0AAV?$allocator@H@0@U_Scalar_ptr_iterator_tag@0@@Z PROC ; std::_Destroy_range<std::allocator<int> >, COMDAT

; 105  : 	}

  00000	c3		 ret	 0
??$_Destroy_range@V?$allocator@H@std@@@std@@YAXPAH0AAV?$allocator@H@0@U_Scalar_ptr_iterator_tag@0@@Z ENDP ; std::_Destroy_range<std::allocator<int> >
_TEXT	ENDS
PUBLIC	?_Unchecked@?$_Vector_const_iterator@V?$_Vector_val@HV?$allocator@H@std@@@std@@@std@@QBEPBHXZ ; std::_Vector_const_iterator<std::_Vector_val<int,std::allocator<int> > >::_Unchecked
; Function compile flags: /Ogsp
; File c:\program files (x86)\microsoft visual studio 10.0\vc\include\vector
;	COMDAT ?_Unchecked@?$_Vector_const_iterator@V?$_Vector_val@HV?$allocator@H@std@@@std@@@std@@QBEPBHXZ
_TEXT	SEGMENT
?_Unchecked@?$_Vector_const_iterator@V?$_Vector_val@HV?$allocator@H@std@@@std@@@std@@QBEPBHXZ PROC ; std::_Vector_const_iterator<std::_Vector_val<int,std::allocator<int> > >::_Unchecked, COMDAT
; _this$ = ecx

; 59   : 		return (_Unchecked_type(this->_Ptr));

  00000	8b 01		 mov	 eax, DWORD PTR [ecx]

; 60   : 		}

  00002	c3		 ret	 0
?_Unchecked@?$_Vector_const_iterator@V?$_Vector_val@HV?$allocator@H@std@@@std@@@std@@QBEPBHXZ ENDP ; std::_Vector_const_iterator<std::_Vector_val<int,std::allocator<int> > >::_Unchecked
_TEXT	ENDS
PUBLIC	?_Rechecked@?$_Vector_iterator@V?$_Vector_val@HV?$allocator@H@std@@@std@@@std@@QAEAAV12@PAH@Z ; std::_Vector_iterator<std::_Vector_val<int,std::allocator<int> > >::_Rechecked
; Function compile flags: /Ogsp
;	COMDAT ?_Rechecked@?$_Vector_iterator@V?$_Vector_val@HV?$allocator@H@std@@@std@@@std@@QAEAAV12@PAH@Z
_TEXT	SEGMENT
__Right$ = 8						; size = 4
?_Rechecked@?$_Vector_iterator@V?$_Vector_val@HV?$allocator@H@std@@@std@@@std@@QAEAAV12@PAH@Z PROC ; std::_Vector_iterator<std::_Vector_val<int,std::allocator<int> > >::_Rechecked, COMDAT
; _this$ = ecx

; 310  : 		{	// reset from unchecked iterator

  00000	55		 push	 ebp
  00001	8b ec		 mov	 ebp, esp
  00003	8b c1		 mov	 eax, ecx

; 311  : 		this->_Ptr = _Right;

  00005	8b 4d 08	 mov	 ecx, DWORD PTR __Right$[ebp]
  00008	89 08		 mov	 DWORD PTR [eax], ecx

; 312  : 		return (*this);
; 313  : 		}

  0000a	5d		 pop	 ebp
  0000b	c2 04 00	 ret	 4
?_Rechecked@?$_Vector_iterator@V?$_Vector_val@HV?$allocator@H@std@@@std@@@std@@QAEAAV12@PAH@Z ENDP ; std::_Vector_iterator<std::_Vector_val<int,std::allocator<int> > >::_Rechecked
_TEXT	ENDS
PUBLIC	?_Unchecked@?$_Vector_iterator@V?$_Vector_val@HV?$allocator@H@std@@@std@@@std@@QBEPAHXZ ; std::_Vector_iterator<std::_Vector_val<int,std::allocator<int> > >::_Unchecked
; Function compile flags: /Ogsp
;	COMDAT ?_Unchecked@?$_Vector_iterator@V?$_Vector_val@HV?$allocator@H@std@@@std@@@std@@QBEPAHXZ
_TEXT	SEGMENT
?_Unchecked@?$_Vector_iterator@V?$_Vector_val@HV?$allocator@H@std@@@std@@@std@@QBEPAHXZ PROC ; std::_Vector_iterator<std::_Vector_val<int,std::allocator<int> > >::_Unchecked, COMDAT
; _this$ = ecx

; 317  : 		return (_Unchecked_type(this->_Ptr));

  00000	8b 01		 mov	 eax, DWORD PTR [ecx]

; 318  : 		}

  00002	c3		 ret	 0
?_Unchecked@?$_Vector_iterator@V?$_Vector_val@HV?$allocator@H@std@@@std@@@std@@QBEPAHXZ ENDP ; std::_Vector_iterator<std::_Vector_val<int,std::allocator<int> > >::_Unchecked
_TEXT	ENDS
PUBLIC	??$_Ptr_cat@HH@std@@YA?AU_Scalar_ptr_iterator_tag@0@PBHPAH@Z ; std::_Ptr_cat<int,int>
; Function compile flags: /Ogsp
; File c:\program files (x86)\microsoft visual studio 10.0\vc\include\xutility
;	COMDAT ??$_Ptr_cat@HH@std@@YA?AU_Scalar_ptr_iterator_tag@0@PBHPAH@Z
_TEXT	SEGMENT
__Cat$ = -1						; size = 1
___formal$ = 8						; size = 4
___formal$ = 12						; size = 4
??$_Ptr_cat@HH@std@@YA?AU_Scalar_ptr_iterator_tag@0@PBHPAH@Z PROC ; std::_Ptr_cat<int,int>, COMDAT

; 525  : 	{	// return pointer category from pointers

  00000	55		 push	 ebp
  00001	8b ec		 mov	 ebp, esp
  00003	51		 push	 ecx

; 526  : 	typename _Ptr_cat_helper<_Elem1, _Elem2>::_Type _Cat;
; 527  : 	return (_Cat);

  00004	8a 45 ff	 mov	 al, BYTE PTR __Cat$[ebp]

; 528  : 	}

  00007	c9		 leave
  00008	c3		 ret	 0
??$_Ptr_cat@HH@std@@YA?AU_Scalar_ptr_iterator_tag@0@PBHPAH@Z ENDP ; std::_Ptr_cat<int,int>
_TEXT	ENDS
PUBLIC	??$_Copy_impl@PBHPAH@std@@YAPAHPBH0PAHU_Scalar_ptr_iterator_tag@0@@Z ; std::_Copy_impl<int const *,int *>
; Function compile flags: /Ogsp
;	COMDAT ??$_Copy_impl@PBHPAH@std@@YAPAHPBH0PAHU_Scalar_ptr_iterator_tag@0@@Z
_TEXT	SEGMENT
__First$ = 8						; size = 4
__Last$ = 12						; size = 4
__Dest$ = 16						; size = 4
___formal$ = 20						; size = 1
??$_Copy_impl@PBHPAH@std@@YAPAHPBH0PAHU_Scalar_ptr_iterator_tag@0@@Z PROC ; std::_Copy_impl<int const *,int *>, COMDAT

; 2152 : 	{	// copy [_First, _Last) to [_Dest, ...), pointers to scalars

  00000	55		 push	 ebp
  00001	8b ec		 mov	 ebp, esp
  00003	56		 push	 esi

; 2153 : 	ptrdiff_t _Count = _Last - _First;

  00004	8b 75 0c	 mov	 esi, DWORD PTR __Last$[ebp]
  00007	2b 75 08	 sub	 esi, DWORD PTR __First$[ebp]
  0000a	57		 push	 edi

; 2154 : 	_CSTD memmove(&*_Dest, &*_First,
; 2155 : 		_Count * sizeof (*_First));

  0000b	8b 7d 10	 mov	 edi, DWORD PTR __Dest$[ebp]
  0000e	c1 fe 02	 sar	 esi, 2
  00011	c1 e6 02	 shl	 esi, 2
  00014	56		 push	 esi
  00015	ff 75 08	 push	 DWORD PTR __First$[ebp]
  00018	57		 push	 edi
  00019	ff 15 00 00 00
	00		 call	 DWORD PTR __imp__memmove
  0001f	83 c4 0c	 add	 esp, 12			; 0000000cH

; 2156 : 	return (_Dest + _Count);

  00022	8d 04 3e	 lea	 eax, DWORD PTR [esi+edi]
  00025	5f		 pop	 edi
  00026	5e		 pop	 esi

; 2157 : 	}

  00027	5d		 pop	 ebp
  00028	c3		 ret	 0
??$_Copy_impl@PBHPAH@std@@YAPAHPBH0PAHU_Scalar_ptr_iterator_tag@0@@Z ENDP ; std::_Copy_impl<int const *,int *>
_TEXT	ENDS
PUBLIC	??$_Fill_n@PAHIH@std@@YAXPAHIABH@Z		; std::_Fill_n<int *,unsigned int,int>
; Function compile flags: /Ogsp
;	COMDAT ??$_Fill_n@PAHIH@std@@YAXPAHIABH@Z
_TEXT	SEGMENT
__Dest$ = 8						; size = 4
__Count$ = 12						; size = 4
__Val$ = 16						; size = 4
??$_Fill_n@PAHIH@std@@YAXPAHIABH@Z PROC			; std::_Fill_n<int *,unsigned int,int>, COMDAT

; 2723 : 	{	// copy _Val _Count times through [_Dest, ...)

  00000	55		 push	 ebp
  00001	8b ec		 mov	 ebp, esp

; 2724 : 	for (; 0 < _Count; --_Count, ++_Dest)

  00003	83 7d 0c 00	 cmp	 DWORD PTR __Count$[ebp], 0
  00007	76 16		 jbe	 SHORT $LN1@Fill_n
  00009	8b 45 08	 mov	 eax, DWORD PTR __Dest$[ebp]
$LL3@Fill_n:

; 2725 : 		*_Dest = _Val;

  0000c	8b 4d 10	 mov	 ecx, DWORD PTR __Val$[ebp]
  0000f	8b 09		 mov	 ecx, DWORD PTR [ecx]
  00011	ff 4d 0c	 dec	 DWORD PTR __Count$[ebp]
  00014	89 08		 mov	 DWORD PTR [eax], ecx
  00016	83 c0 04	 add	 eax, 4
  00019	83 7d 0c 00	 cmp	 DWORD PTR __Count$[ebp], 0
  0001d	77 ed		 ja	 SHORT $LL3@Fill_n
$LN1@Fill_n:

; 2726 : 	}

  0001f	5d		 pop	 ebp
  00020	c3		 ret	 0
??$_Fill_n@PAHIH@std@@YAXPAHIABH@Z ENDP			; std::_Fill_n<int *,unsigned int,int>
_TEXT	ENDS
PUBLIC	??$_Uninit_move@HHH@std@@YAPAHPAH00AAV?$allocator@H@0@0U_Scalar_ptr_iterator_tag@0@@Z ; std::_Uninit_move<int,int,int>
; Function compile flags: /Ogsp
; File c:\program files (x86)\microsoft visual studio 10.0\vc\include\memory
;	COMDAT ??$_Uninit_move@HHH@std@@YAPAHPAH00AAV?$allocator@H@0@0U_Scalar_ptr_iterator_tag@0@@Z
_TEXT	SEGMENT
__First$ = 8						; size = 4
__Last$ = 12						; size = 4
__Dest$ = 16						; size = 4
___formal$ = 20						; size = 4
___formal$ = 24						; size = 4
___formal$ = 28						; size = 1
??$_Uninit_move@HHH@std@@YAPAHPAH00AAV?$allocator@H@0@0U_Scalar_ptr_iterator_tag@0@@Z PROC ; std::_Uninit_move<int,int,int>, COMDAT

; 456  : 	{	// move [_First, _Last) to raw _Dest, scalar type

  00000	55		 push	 ebp
  00001	8b ec		 mov	 ebp, esp
  00003	56		 push	 esi

; 457  : 	_DEBUG_RANGE(_First, _Last);
; 458  : 	_DEBUG_POINTER(_Dest);
; 459  : 	size_t _Count = (size_t)(_Last - _First);

  00004	8b 75 0c	 mov	 esi, DWORD PTR __Last$[ebp]
  00007	2b 75 08	 sub	 esi, DWORD PTR __First$[ebp]
  0000a	c1 fe 02	 sar	 esi, 2

; 460  : 	return ((_Ty2 *)_CSTD memmove(&*_Dest, &*_First,
; 461  : 		_Count * sizeof (*_First)) + _Count);	// NB: non-overlapping move

  0000d	c1 e6 02	 shl	 esi, 2
  00010	56		 push	 esi
  00011	ff 75 08	 push	 DWORD PTR __First$[ebp]
  00014	ff 75 10	 push	 DWORD PTR __Dest$[ebp]
  00017	ff 15 00 00 00
	00		 call	 DWORD PTR __imp__memmove
  0001d	83 c4 0c	 add	 esp, 12			; 0000000cH
  00020	03 c6		 add	 eax, esi
  00022	5e		 pop	 esi

; 462  : 	}

  00023	5d		 pop	 ebp
  00024	c3		 ret	 0
??$_Uninit_move@HHH@std@@YAPAHPAH00AAV?$allocator@H@0@0U_Scalar_ptr_iterator_tag@0@@Z ENDP ; std::_Uninit_move<int,int,int>
_TEXT	ENDS
PUBLIC	_rkUserName$GSCopy$
PUBLIC	__$ArrayPad$
PUBLIC	?ScrollSyncCharData@UserInfoCharData@@QAEXABVioHashString@@H@Z ; UserInfoCharData::ScrollSyncCharData
EXTRN	??1SP2Packet@@UAE@XZ:PROC			; SP2Packet::~SP2Packet
EXTRN	?SendToServer@TCPNetwork@@YAXAAVSP2Packet@@@Z:PROC ; TCPNetwork::SendToServer
EXTRN	??6SP2Packet@@QAEAAV0@H@Z:PROC			; SP2Packet::operator<<
EXTRN	??6SP2Packet@@QAEAAV0@ABVioHashString@@@Z:PROC	; SP2Packet::operator<<
EXTRN	??0SP2Packet@@QAE@K@Z:PROC			; SP2Packet::SP2Packet
EXTRN	__imp_?GetLoopSec@ioFrameTimer@@QBEKXZ:PROC
EXTRN	__imp_?GetSingleton@ioFrameTimer@@SAAAV1@XZ:PROC
EXTRN	__imp_??8ioHashString@@QBE_NABV0@@Z:PROC
EXTRN	?GetSingleton@ioMyInfo@@SAAAV1@XZ:PROC		; ioMyInfo::GetSingleton
EXTRN	__imp_?IsEmpty@ioHashString@@QBE_NXZ:PROC
EXTRN	___security_cookie:DWORD
EXTRN	___CxxFrameHandler3:PROC
EXTRN	@__security_check_cookie@4:PROC
EXTRN	__chkstk:PROC
;	COMDAT xdata$x
; File c:\program files (x86)\microsoft visual studio 10.0\vc\include\vector
xdata$x	SEGMENT
__unwindtable$?ScrollSyncCharData@UserInfoCharData@@QAEXABVioHashString@@H@Z DD 0ffffffffH
	DD	FLAT:__unwindfunclet$?ScrollSyncCharData@UserInfoCharData@@QAEXABVioHashString@@H@Z$0
__ehfuncinfo$?ScrollSyncCharData@UserInfoCharData@@QAEXABVioHashString@@H@Z DD 019930522H
	DD	01H
	DD	FLAT:__unwindtable$?ScrollSyncCharData@UserInfoCharData@@QAEXABVioHashString@@H@Z
	DD	2 DUP(00H)
	DD	2 DUP(00H)
	DD	00H
	DD	01H
; Function compile flags: /Ogsp
; File d:\lost saga for developer\youtube\tutorial\source\src\lsclient\gui\iouserinfomgr.cpp
xdata$x	ENDS
;	COMDAT ?ScrollSyncCharData@UserInfoCharData@@QAEXABVioHashString@@H@Z
_TEXT	SEGMENT
_rkUserName$GSCopy$ = -32812				; size = 4
_kPacket$513962 = -32808				; size = 32792
__$ArrayPad$ = -16					; size = 4
__$EHRec$ = -12						; size = 12
_rkUserName$ = 8					; size = 4
_iListArray$ = 12					; size = 4
?ScrollSyncCharData@UserInfoCharData@@QAEXABVioHashString@@H@Z PROC ; UserInfoCharData::ScrollSyncCharData, COMDAT
; _this$ = ecx

; 306  : {

  00000	55		 push	 ebp
  00001	8b ec		 mov	 ebp, esp
  00003	6a ff		 push	 -1
  00005	68 00 00 00 00	 push	 __ehhandler$?ScrollSyncCharData@UserInfoCharData@@QAEXABVioHashString@@H@Z
  0000a	64 a1 00 00 00
	00		 mov	 eax, DWORD PTR fs:0
  00010	50		 push	 eax
  00011	b8 20 80 00 00	 mov	 eax, 32800		; 00008020H
  00016	e8 00 00 00 00	 call	 __chkstk
  0001b	a1 00 00 00 00	 mov	 eax, DWORD PTR ___security_cookie
  00020	33 c5		 xor	 eax, ebp
  00022	89 45 f0	 mov	 DWORD PTR __$ArrayPad$[ebp], eax
  00025	53		 push	 ebx
  00026	56		 push	 esi
  00027	57		 push	 edi
  00028	50		 push	 eax
  00029	8d 45 f4	 lea	 eax, DWORD PTR __$EHRec$[ebp]
  0002c	64 a3 00 00 00
	00		 mov	 DWORD PTR fs:0, eax
  00032	8b 7d 08	 mov	 edi, DWORD PTR _rkUserName$[ebp]
  00035	8b f1		 mov	 esi, ecx

; 307  : 	if( !m_bDataSync ) return;

  00037	80 be dc 03 00
	00 00		 cmp	 BYTE PTR [esi+988], 0

; 326  : 	{
; 327  : 		SP2Packet kPacket( CTPK_USER_CHAR_INFO_REFRESH );

  0003e	89 bd d4 7f ff
	ff		 mov	 DWORD PTR _rkUserName$GSCopy$[ebp], edi
  00044	0f 84 fe 00 00
	00		 je	 $LN1@ScrollSync

; 308  : 	if( rkUserName.IsEmpty() ) return;

  0004a	8b cf		 mov	 ecx, edi
  0004c	ff 15 00 00 00
	00		 call	 DWORD PTR __imp_?IsEmpty@ioHashString@@QBE_NXZ
  00052	84 c0		 test	 al, al
  00054	0f 85 ee 00 00
	00		 jne	 $LN1@ScrollSync

; 309  : 	if( rkUserName == g_MyInfo.GetPublicID() )

  0005a	e8 00 00 00 00	 call	 ?GetSingleton@ioMyInfo@@SAAAV1@XZ ; ioMyInfo::GetSingleton
  0005f	83 c0 1c	 add	 eax, 28			; 0000001cH
  00062	50		 push	 eax
  00063	8b cf		 mov	 ecx, edi
  00065	ff 15 00 00 00
	00		 call	 DWORD PTR __imp_??8ioHashString@@QBE_NABV0@@Z
  0006b	84 c0		 test	 al, al
  0006d	74 20		 je	 SHORT $LN5@ScrollSync

; 310  : 	{
; 311  : 		m_bDataSync = true;

  0006f	c6 86 dc 03 00
	00 01		 mov	 BYTE PTR [esi+988], 1

; 312  : 		m_iMaxVirtualCharCount = m_CharDataList.size();

  00076	8b 46 08	 mov	 eax, DWORD PTR [esi+8]
  00079	2b 46 04	 sub	 eax, DWORD PTR [esi+4]
  0007c	b9 c0 03 00 00	 mov	 ecx, 960		; 000003c0H
  00081	99		 cdq
  00082	f7 f9		 idiv	 ecx
  00084	89 86 e0 03 00
	00		 mov	 DWORD PTR [esi+992], eax

; 313  : 		return;

  0008a	e9 b9 00 00 00	 jmp	 $LN1@ScrollSync
$LN5@ScrollSync:

; 314  : 	}
; 315  : 
; 316  : 	if( m_bScrollSyncBlock )

  0008f	80 be e4 03 00
	00 00		 cmp	 BYTE PTR [esi+996], 0
  00096	8b 3d 00 00 00
	00		 mov	 edi, DWORD PTR __imp_?GetSingleton@ioFrameTimer@@SAAAV1@XZ
  0009c	74 1b		 je	 SHORT $LN3@ScrollSync

; 317  : 	{
; 318  : 		if( FRAMEGETTIME() - m_dwScrollSyncTime < 10000 )

  0009e	ff d7		 call	 edi
  000a0	8b c8		 mov	 ecx, eax
  000a2	ff 15 00 00 00
	00		 call	 DWORD PTR __imp_?GetLoopSec@ioFrameTimer@@QBEKXZ
  000a8	2b 86 e8 03 00
	00		 sub	 eax, DWORD PTR [esi+1000]
  000ae	3d 10 27 00 00	 cmp	 eax, 10000		; 00002710H
  000b3	0f 82 8f 00 00
	00		 jb	 $LN1@ScrollSync
$LN3@ScrollSync:

; 319  : 			return;
; 320  : 	}
; 321  : 	
; 322  : 	if( iListArray <= (int)m_CharDataList.size() )

  000b9	8b 46 08	 mov	 eax, DWORD PTR [esi+8]
  000bc	2b 46 04	 sub	 eax, DWORD PTR [esi+4]
  000bf	bb c0 03 00 00	 mov	 ebx, 960		; 000003c0H
  000c4	99		 cdq
  000c5	8b cb		 mov	 ecx, ebx
  000c7	f7 f9		 idiv	 ecx
  000c9	39 45 0c	 cmp	 DWORD PTR _iListArray$[ebp], eax
  000cc	7e 7a		 jle	 SHORT $LN1@ScrollSync

; 323  : 		return;
; 324  : 
; 325  : 	if( (int)m_CharDataList.size() < m_iMaxVirtualCharCount )

  000ce	3b 86 e0 03 00
	00		 cmp	 eax, DWORD PTR [esi+992]
  000d4	7d 72		 jge	 SHORT $LN1@ScrollSync

; 326  : 	{
; 327  : 		SP2Packet kPacket( CTPK_USER_CHAR_INFO_REFRESH );

  000d6	68 36 02 00 00	 push	 566			; 00000236H
  000db	8d 8d d8 7f ff
	ff		 lea	 ecx, DWORD PTR _kPacket$513962[ebp]
  000e1	e8 00 00 00 00	 call	 ??0SP2Packet@@QAE@K@Z	; SP2Packet::SP2Packet

; 328  : 		kPacket << rkUserName << (int)m_CharDataList.size() << CHARINFODATA_SYNC_COUNT;

  000e6	8b 46 08	 mov	 eax, DWORD PTR [esi+8]
  000e9	2b 46 04	 sub	 eax, DWORD PTR [esi+4]
  000ec	83 65 fc 00	 and	 DWORD PTR __$EHRec$[ebp+8], 0
  000f0	99		 cdq
  000f1	f7 fb		 idiv	 ebx
  000f3	6a 06		 push	 6
  000f5	8d 8d d8 7f ff
	ff		 lea	 ecx, DWORD PTR _kPacket$513962[ebp]
  000fb	50		 push	 eax
  000fc	ff b5 d4 7f ff
	ff		 push	 DWORD PTR _rkUserName$GSCopy$[ebp]
  00102	e8 00 00 00 00	 call	 ??6SP2Packet@@QAEAAV0@ABVioHashString@@@Z ; SP2Packet::operator<<
  00107	8b c8		 mov	 ecx, eax
  00109	e8 00 00 00 00	 call	 ??6SP2Packet@@QAEAAV0@H@Z ; SP2Packet::operator<<
  0010e	8b c8		 mov	 ecx, eax
  00110	e8 00 00 00 00	 call	 ??6SP2Packet@@QAEAAV0@H@Z ; SP2Packet::operator<<

; 329  : 		TCPNetwork::SendToServer( kPacket );

  00115	8d 85 d8 7f ff
	ff		 lea	 eax, DWORD PTR _kPacket$513962[ebp]
  0011b	50		 push	 eax
  0011c	e8 00 00 00 00	 call	 ?SendToServer@TCPNetwork@@YAXAAVSP2Packet@@@Z ; TCPNetwork::SendToServer
  00121	59		 pop	 ecx

; 330  : 		m_bScrollSyncBlock = true;

  00122	c6 86 e4 03 00
	00 01		 mov	 BYTE PTR [esi+996], 1

; 331  : 		m_dwScrollSyncTime = FRAMEGETTIME();

  00129	ff d7		 call	 edi
  0012b	8b c8		 mov	 ecx, eax
  0012d	ff 15 00 00 00
	00		 call	 DWORD PTR __imp_?GetLoopSec@ioFrameTimer@@QBEKXZ

; 332  : 	}

  00133	83 4d fc ff	 or	 DWORD PTR __$EHRec$[ebp+8], -1
  00137	8d 8d d8 7f ff
	ff		 lea	 ecx, DWORD PTR _kPacket$513962[ebp]
  0013d	89 86 e8 03 00
	00		 mov	 DWORD PTR [esi+1000], eax
  00143	e8 00 00 00 00	 call	 ??1SP2Packet@@UAE@XZ	; SP2Packet::~SP2Packet
$LN1@ScrollSync:

; 333  : }

  00148	8b 4d f4	 mov	 ecx, DWORD PTR __$EHRec$[ebp]
  0014b	64 89 0d 00 00
	00 00		 mov	 DWORD PTR fs:0, ecx
  00152	59		 pop	 ecx
  00153	5f		 pop	 edi
  00154	5e		 pop	 esi
  00155	5b		 pop	 ebx
  00156	8b 4d f0	 mov	 ecx, DWORD PTR __$ArrayPad$[ebp]
  00159	33 cd		 xor	 ecx, ebp
  0015b	e8 00 00 00 00	 call	 @__security_check_cookie@4
  00160	c9		 leave
  00161	c2 08 00	 ret	 8
_TEXT	ENDS
;	COMDAT text$x
text$x	SEGMENT
__unwindfunclet$?ScrollSyncCharData@UserInfoCharData@@QAEXABVioHashString@@H@Z$0:
  00000	8d 8d d8 7f ff
	ff		 lea	 ecx, DWORD PTR _kPacket$513962[ebp]
  00006	e9 00 00 00 00	 jmp	 ??1SP2Packet@@UAE@XZ	; SP2Packet::~SP2Packet
__ehhandler$?ScrollSyncCharData@UserInfoCharData@@QAEXABVioHashString@@H@Z:
  0000b	8b 54 24 08	 mov	 edx, DWORD PTR [esp+8]
  0000f	8d 42 0c	 lea	 eax, DWORD PTR [edx+12]
  00012	8b 8a d0 7f ff
	ff		 mov	 ecx, DWORD PTR [edx-32816]
  00018	33 c8		 xor	 ecx, eax
  0001a	e8 00 00 00 00	 call	 @__security_check_cookie@4
  0001f	8b 4a fc	 mov	 ecx, DWORD PTR [edx-4]
  00022	33 c8		 xor	 ecx, eax
  00024	e8 00 00 00 00	 call	 @__security_check_cookie@4
  00029	b8 00 00 00 00	 mov	 eax, OFFSET __ehfuncinfo$?ScrollSyncCharData@UserInfoCharData@@QAEXABVioHashString@@H@Z
  0002e	e9 00 00 00 00	 jmp	 ___CxxFrameHandler3
text$x	ENDS
?ScrollSyncCharData@UserInfoCharData@@QAEXABVioHashString@@H@Z ENDP ; UserInfoCharData::ScrollSyncCharData
PUBLIC	?GetGuildMark@UserInfoNode@@QAEKXZ		; UserInfoNode::GetGuildMark
EXTRN	?GetGuildData@ioGuildInfo@@QAEPAVioGuildData@@K_N@Z:PROC ; ioGuildInfo::GetGuildData
EXTRN	?GetSingleton@ioGuildInfo@@SAAAV1@XZ:PROC	; ioGuildInfo::GetSingleton
; Function compile flags: /Ogsp
;	COMDAT ?GetGuildMark@UserInfoNode@@QAEKXZ
_TEXT	SEGMENT
?GetGuildMark@UserInfoNode@@QAEKXZ PROC			; UserInfoNode::GetGuildMark, COMDAT
; _this$ = ecx

; 633  : 	if( GetGuildIndex() == 0 ) return 0;

  00000	8b 81 80 00 00
	00		 mov	 eax, DWORD PTR [ecx+128]
  00006	85 c0		 test	 eax, eax
  00008	74 17		 je	 SHORT $LN1@GetGuildMa

; 634  : 
; 635  : 	ioGuildData *pGuildData = g_GuildInfo.GetGuildData( GetGuildIndex() );

  0000a	6a 00		 push	 0
  0000c	50		 push	 eax
  0000d	e8 00 00 00 00	 call	 ?GetSingleton@ioGuildInfo@@SAAAV1@XZ ; ioGuildInfo::GetSingleton
  00012	8b c8		 mov	 ecx, eax
  00014	e8 00 00 00 00	 call	 ?GetGuildData@ioGuildInfo@@QAEPAVioGuildData@@K_N@Z ; ioGuildInfo::GetGuildData

; 636  : 	if( pGuildData )

  00019	85 c0		 test	 eax, eax
  0001b	74 04		 je	 SHORT $LN1@GetGuildMa

; 637  : 		return pGuildData->GetGuildMark();

  0001d	8b 40 08	 mov	 eax, DWORD PTR [eax+8]

; 639  : }

  00020	c3		 ret	 0
$LN1@GetGuildMa:

; 638  : 	return 0;

  00021	33 c0		 xor	 eax, eax

; 639  : }

  00023	c3		 ret	 0
?GetGuildMark@UserInfoNode@@QAEKXZ ENDP			; UserInfoNode::GetGuildMark
_TEXT	ENDS
PUBLIC	__$ArrayPad$
PUBLIC	?CheckSyncTime@UserInfoNode@@QAEXXZ		; UserInfoNode::CheckSyncTime
EXTRN	?SendP2PUserInfoSync@P2PNetwork@@YAXABVioHashString@@AAVSP2Packet@@@Z:PROC ; P2PNetwork::SendP2PUserInfoSync
;	COMDAT xdata$x
; File d:\lost saga for developer\youtube\tutorial\source\src\lsclient\iomyinfo.h
xdata$x	SEGMENT
__unwindtable$?CheckSyncTime@UserInfoNode@@QAEXXZ DD 0ffffffffH
	DD	FLAT:__unwindfunclet$?CheckSyncTime@UserInfoNode@@QAEXXZ$0
	DD	0ffffffffH
	DD	FLAT:__unwindfunclet$?CheckSyncTime@UserInfoNode@@QAEXXZ$1
__ehfuncinfo$?CheckSyncTime@UserInfoNode@@QAEXXZ DD 019930522H
	DD	02H
	DD	FLAT:__unwindtable$?CheckSyncTime@UserInfoNode@@QAEXXZ
	DD	2 DUP(00H)
	DD	2 DUP(00H)
	DD	00H
	DD	01H
; Function compile flags: /Ogsp
; File d:\lost saga for developer\youtube\tutorial\source\src\lsclient\gui\iouserinfomgr.cpp
xdata$x	ENDS
;	COMDAT ?CheckSyncTime@UserInfoNode@@QAEXXZ
_TEXT	SEGMENT
_kPacket$514331 = -65600				; size = 32792
_kPacket$514335 = -32808				; size = 32792
__$ArrayPad$ = -16					; size = 4
__$EHRec$ = -12						; size = 12
?CheckSyncTime@UserInfoNode@@QAEXXZ PROC		; UserInfoNode::CheckSyncTime, COMDAT
; _this$ = ecx

; 803  : {

  00000	55		 push	 ebp
  00001	8b ec		 mov	 ebp, esp
  00003	6a ff		 push	 -1
  00005	68 00 00 00 00	 push	 __ehhandler$?CheckSyncTime@UserInfoNode@@QAEXXZ
  0000a	64 a1 00 00 00
	00		 mov	 eax, DWORD PTR fs:0
  00010	50		 push	 eax
  00011	b8 34 00 01 00	 mov	 eax, 65588		; 00010034H
  00016	e8 00 00 00 00	 call	 __chkstk
  0001b	a1 00 00 00 00	 mov	 eax, DWORD PTR ___security_cookie
  00020	33 c5		 xor	 eax, ebp
  00022	89 45 f0	 mov	 DWORD PTR __$ArrayPad$[ebp], eax
  00025	53		 push	 ebx
  00026	56		 push	 esi
  00027	57		 push	 edi
  00028	50		 push	 eax
  00029	8d 45 f4	 lea	 eax, DWORD PTR __$EHRec$[ebp]
  0002c	64 a3 00 00 00
	00		 mov	 DWORD PTR fs:0, eax
  00032	8b f1		 mov	 esi, ecx

; 804  : 	if( m_UserID.IsEmpty() )

  00034	8d 5e 08	 lea	 ebx, DWORD PTR [esi+8]
  00037	8b cb		 mov	 ecx, ebx
  00039	ff 15 00 00 00
	00		 call	 DWORD PTR __imp_?IsEmpty@ioHashString@@QBE_NXZ
  0003f	84 c0		 test	 al, al
  00041	0f 85 2c 01 00
	00		 jne	 $LN8@CheckSyncT

; 805  : 		return;
; 806  : 
; 807  : 	if( m_UserID == g_MyInfo.GetPublicID() )

  00047	e8 00 00 00 00	 call	 ?GetSingleton@ioMyInfo@@SAAAV1@XZ ; ioMyInfo::GetSingleton
  0004c	83 c0 1c	 add	 eax, 28			; 0000001cH
  0004f	50		 push	 eax
  00050	8b cb		 mov	 ecx, ebx
  00052	ff 15 00 00 00
	00		 call	 DWORD PTR __imp_??8ioHashString@@QBE_NABV0@@Z
  00058	84 c0		 test	 al, al
  0005a	0f 85 13 01 00
	00		 jne	 $LN8@CheckSyncT

; 808  : 		return;
; 809  : 	
; 810  : 	if( m_dwTCPSyncTime == 0 || FRAMEGETTIME() - m_dwTCPSyncTime > 600000 )         //10Min 마다 TCP 동기화

  00060	83 be b4 04 00
	00 00		 cmp	 DWORD PTR [esi+1204], 0
  00067	8b 3d 00 00 00
	00		 mov	 edi, DWORD PTR __imp_?GetSingleton@ioFrameTimer@@SAAAV1@XZ
  0006d	0f 84 9d 00 00
	00		 je	 $LN4@CheckSyncT
  00073	ff d7		 call	 edi
  00075	8b c8		 mov	 ecx, eax
  00077	ff 15 00 00 00
	00		 call	 DWORD PTR __imp_?GetLoopSec@ioFrameTimer@@QBEKXZ
  0007d	2b 86 b4 04 00
	00		 sub	 eax, DWORD PTR [esi+1204]
  00083	3d c0 27 09 00	 cmp	 eax, 600000		; 000927c0H
  00088	0f 87 82 00 00
	00		 ja	 $LN4@CheckSyncT

; 820  : 	else if( m_bForceUDPSync == true || m_dwUDPSyncTime == 0 || FRAMEGETTIME() - m_dwUDPSyncTime > 60000 )      //1Min 마다 UDP 동기화

  0008e	80 be bd 04 00
	00 01		 cmp	 BYTE PTR [esi+1213], 1
  00095	74 24		 je	 SHORT $LN1@CheckSyncT
  00097	83 be b8 04 00
	00 00		 cmp	 DWORD PTR [esi+1208], 0
  0009e	74 1b		 je	 SHORT $LN1@CheckSyncT
  000a0	ff d7		 call	 edi
  000a2	8b c8		 mov	 ecx, eax
  000a4	ff 15 00 00 00
	00		 call	 DWORD PTR __imp_?GetLoopSec@ioFrameTimer@@QBEKXZ
  000aa	2b 86 b8 04 00
	00		 sub	 eax, DWORD PTR [esi+1208]
  000b0	3d 60 ea 00 00	 cmp	 eax, 60000		; 0000ea60H
  000b5	0f 86 b1 00 00
	00		 jbe	 $LN2@CheckSyncT
$LN1@CheckSyncT:

; 821  : 	{
; 822  : 		m_dwUDPSyncTime = FRAMEGETTIME();

  000bb	ff d7		 call	 edi
  000bd	8b c8		 mov	 ecx, eax
  000bf	ff 15 00 00 00
	00		 call	 DWORD PTR __imp_?GetLoopSec@ioFrameTimer@@QBEKXZ

; 823  : 
; 824  : 		// 해당 유저에게 정보 요청
; 825  : 		SP2Packet kPacket( CUPK_USER_INFO_REFRESH );

  000c5	68 76 41 00 00	 push	 16758			; 00004176H
  000ca	8d 8d d8 7f ff
	ff		 lea	 ecx, DWORD PTR _kPacket$514335[ebp]
  000d0	89 86 b8 04 00
	00		 mov	 DWORD PTR [esi+1208], eax
  000d6	e8 00 00 00 00	 call	 ??0SP2Packet@@QAE@K@Z	; SP2Packet::SP2Packet
  000db	c7 45 fc 01 00
	00 00		 mov	 DWORD PTR __$EHRec$[ebp+8], 1

; 826  : 		kPacket << g_MyInfo.GetPublicID();

  000e2	e8 00 00 00 00	 call	 ?GetSingleton@ioMyInfo@@SAAAV1@XZ ; ioMyInfo::GetSingleton
  000e7	83 c0 1c	 add	 eax, 28			; 0000001cH
  000ea	50		 push	 eax
  000eb	8d 8d d8 7f ff
	ff		 lea	 ecx, DWORD PTR _kPacket$514335[ebp]
  000f1	e8 00 00 00 00	 call	 ??6SP2Packet@@QAEAAV0@ABVioHashString@@@Z ; SP2Packet::operator<<

; 827  : 		P2PNetwork::SendP2PUserInfoSync( m_UserID, kPacket );

  000f6	8d 85 d8 7f ff
	ff		 lea	 eax, DWORD PTR _kPacket$514335[ebp]
  000fc	50		 push	 eax
  000fd	8d 46 08	 lea	 eax, DWORD PTR [esi+8]
  00100	50		 push	 eax
  00101	e8 00 00 00 00	 call	 ?SendP2PUserInfoSync@P2PNetwork@@YAXABVioHashString@@AAVSP2Packet@@@Z ; P2PNetwork::SendP2PUserInfoSync
  00106	59		 pop	 ecx
  00107	59		 pop	 ecx

; 828  : 	}

  00108	8d 8d d8 7f ff
	ff		 lea	 ecx, DWORD PTR _kPacket$514335[ebp]
  0010e	eb 53		 jmp	 SHORT $LN19@CheckSyncT
$LN4@CheckSyncT:

; 811  : 	{
; 812  : 		SetSyncTime( FRAMEGETTIME() );

  00110	ff d7		 call	 edi
  00112	8b c8		 mov	 ecx, eax
  00114	ff 15 00 00 00
	00		 call	 DWORD PTR __imp_?GetLoopSec@ioFrameTimer@@QBEKXZ
  0011a	89 86 b4 04 00
	00		 mov	 DWORD PTR [esi+1204], eax

; 813  : 		m_dwUDPSyncTime = FRAMEGETTIME();

  00120	ff d7		 call	 edi
  00122	8b c8		 mov	 ecx, eax
  00124	ff 15 00 00 00
	00		 call	 DWORD PTR __imp_?GetLoopSec@ioFrameTimer@@QBEKXZ

; 814  : 
; 815  : 		// 정보 동기화
; 816  : 		SP2Packet kPacket( CTPK_USER_INFO_REFRESH );

  0012a	68 12 01 00 00	 push	 274			; 00000112H
  0012f	8d 8d c0 ff fe
	ff		 lea	 ecx, DWORD PTR _kPacket$514331[ebp]
  00135	89 86 b8 04 00
	00		 mov	 DWORD PTR [esi+1208], eax
  0013b	e8 00 00 00 00	 call	 ??0SP2Packet@@QAE@K@Z	; SP2Packet::SP2Packet
  00140	83 65 fc 00	 and	 DWORD PTR __$EHRec$[ebp+8], 0

; 817  : 		kPacket << m_UserID;

  00144	53		 push	 ebx
  00145	8d 8d c0 ff fe
	ff		 lea	 ecx, DWORD PTR _kPacket$514331[ebp]
  0014b	e8 00 00 00 00	 call	 ??6SP2Packet@@QAEAAV0@ABVioHashString@@@Z ; SP2Packet::operator<<

; 818  : 		TCPNetwork::SendToServer( kPacket );

  00150	8d 85 c0 ff fe
	ff		 lea	 eax, DWORD PTR _kPacket$514331[ebp]
  00156	50		 push	 eax
  00157	e8 00 00 00 00	 call	 ?SendToServer@TCPNetwork@@YAXAAVSP2Packet@@@Z ; TCPNetwork::SendToServer
  0015c	59		 pop	 ecx

; 819  : 	}

  0015d	8d 8d c0 ff fe
	ff		 lea	 ecx, DWORD PTR _kPacket$514331[ebp]
$LN19@CheckSyncT:
  00163	83 4d fc ff	 or	 DWORD PTR __$EHRec$[ebp+8], -1
  00167	e8 00 00 00 00	 call	 ??1SP2Packet@@UAE@XZ	; SP2Packet::~SP2Packet
$LN2@CheckSyncT:

; 829  : 
; 830  : 	m_bForceUDPSync = false;

  0016c	c6 86 bd 04 00
	00 00		 mov	 BYTE PTR [esi+1213], 0
$LN8@CheckSyncT:

; 831  : }

  00173	8b 4d f4	 mov	 ecx, DWORD PTR __$EHRec$[ebp]
  00176	64 89 0d 00 00
	00 00		 mov	 DWORD PTR fs:0, ecx
  0017d	59		 pop	 ecx
  0017e	5f		 pop	 edi
  0017f	5e		 pop	 esi
  00180	5b		 pop	 ebx
  00181	8b 4d f0	 mov	 ecx, DWORD PTR __$ArrayPad$[ebp]
  00184	33 cd		 xor	 ecx, ebp
  00186	e8 00 00 00 00	 call	 @__security_check_cookie@4
  0018b	c9		 leave
  0018c	c3		 ret	 0
_TEXT	ENDS
;	COMDAT text$x
text$x	SEGMENT
__unwindfunclet$?CheckSyncTime@UserInfoNode@@QAEXXZ$1:
  00000	8d 8d d8 7f ff
	ff		 lea	 ecx, DWORD PTR _kPacket$514335[ebp]
  00006	e9 00 00 00 00	 jmp	 ??1SP2Packet@@UAE@XZ	; SP2Packet::~SP2Packet
__unwindfunclet$?CheckSyncTime@UserInfoNode@@QAEXXZ$0:
  0000b	8d 8d c0 ff fe
	ff		 lea	 ecx, DWORD PTR _kPacket$514331[ebp]
  00011	e9 00 00 00 00	 jmp	 ??1SP2Packet@@UAE@XZ	; SP2Packet::~SP2Packet
__ehhandler$?CheckSyncTime@UserInfoNode@@QAEXXZ:
  00016	8b 54 24 08	 mov	 edx, DWORD PTR [esp+8]
  0001a	8d 42 0c	 lea	 eax, DWORD PTR [edx+12]
  0001d	8b 8a bc ff fe
	ff		 mov	 ecx, DWORD PTR [edx-65604]
  00023	33 c8		 xor	 ecx, eax
  00025	e8 00 00 00 00	 call	 @__security_check_cookie@4
  0002a	8b 4a fc	 mov	 ecx, DWORD PTR [edx-4]
  0002d	33 c8		 xor	 ecx, eax
  0002f	e8 00 00 00 00	 call	 @__security_check_cookie@4
  00034	b8 00 00 00 00	 mov	 eax, OFFSET __ehfuncinfo$?CheckSyncTime@UserInfoNode@@QAEXXZ
  00039	e9 00 00 00 00	 jmp	 ___CxxFrameHandler3
text$x	ENDS
?CheckSyncTime@UserInfoNode@@QAEXXZ ENDP		; UserInfoNode::CheckSyncTime
PUBLIC	?GetSoldierSetCnt@UserInfoNode@@QAEHH@Z		; UserInfoNode::GetSoldierSetCnt
; Function compile flags: /Ogsp
;	COMDAT ?GetSoldierSetCnt@UserInfoNode@@QAEHH@Z
_TEXT	SEGMENT
_nSetCode$ = 8						; size = 4
?GetSoldierSetCnt@UserInfoNode@@QAEHH@Z PROC		; UserInfoNode::GetSoldierSetCnt, COMDAT
; _this$ = ecx

; 867  : {

  00000	55		 push	 ebp
  00001	8b ec		 mov	 ebp, esp

; 868  : 	if ( m_vSoldierSetCntVec.empty() || !COMPARE( nSetCode-1, 0, (int)m_vSoldierSetCntVec.size() ))

  00003	8b 91 c4 04 00
	00		 mov	 edx, DWORD PTR [ecx+1220]
  00009	8b 81 c8 04 00
	00		 mov	 eax, DWORD PTR [ecx+1224]
  0000f	56		 push	 esi
  00010	57		 push	 edi
  00011	3b d0		 cmp	 edx, eax
  00013	74 19		 je	 SHORT $LN1@GetSoldier
  00015	8b 7d 08	 mov	 edi, DWORD PTR _nSetCode$[ebp]
  00018	8d 77 ff	 lea	 esi, DWORD PTR [edi-1]
  0001b	85 f6		 test	 esi, esi
  0001d	78 0f		 js	 SHORT $LN1@GetSoldier
  0001f	2b c2		 sub	 eax, edx
  00021	c1 f8 02	 sar	 eax, 2
  00024	3b f0		 cmp	 esi, eax
  00026	7d 06		 jge	 SHORT $LN1@GetSoldier

; 870  : 
; 871  : 	return m_vSoldierSetCntVec[nSetCode-1];

  00028	8b 44 ba fc	 mov	 eax, DWORD PTR [edx+edi*4-4]
  0002c	eb 02		 jmp	 SHORT $LN4@GetSoldier
$LN1@GetSoldier:

; 869  : 		return 0;

  0002e	33 c0		 xor	 eax, eax
$LN4@GetSoldier:
  00030	5f		 pop	 edi
  00031	5e		 pop	 esi

; 872  : }

  00032	5d		 pop	 ebp
  00033	c2 04 00	 ret	 4
?GetSoldierSetCnt@UserInfoNode@@QAEHH@Z ENDP		; UserInfoNode::GetSoldierSetCnt
_TEXT	ENDS
PUBLIC	?GetSingleton@ioUserInfoMgr@@SAAAV1@XZ		; ioUserInfoMgr::GetSingleton
; Function compile flags: /Ogsp
;	COMDAT ?GetSingleton@ioUserInfoMgr@@SAAAV1@XZ
_TEXT	SEGMENT
?GetSingleton@ioUserInfoMgr@@SAAAV1@XZ PROC		; ioUserInfoMgr::GetSingleton, COMDAT

; 894  : 	return Singleton< ioUserInfoMgr >::GetSingleton();

  00000	a1 00 00 00 00	 mov	 eax, DWORD PTR ?ms_Singleton@?$Singleton@VioUserInfoMgr@@@@1PAVioUserInfoMgr@@A ; Singleton<ioUserInfoMgr>::ms_Singleton

; 895  : }

  00005	c3		 ret	 0
?GetSingleton@ioUserInfoMgr@@SAAAV1@XZ ENDP		; ioUserInfoMgr::GetSingleton
_TEXT	ENDS
PUBLIC	??8?$CEncrypt@H@@QAE_NABH@Z			; CEncrypt<int>::operator==
; Function compile flags: /Ogsp
; File d:\lost saga for developer\youtube\tutorial\source\src\lsclient\encryptvalue.h
;	COMDAT ??8?$CEncrypt@H@@QAE_NABH@Z
_TEXT	SEGMENT
_value$ = -4						; size = 4
_inValue$ = 8						; size = 4
??8?$CEncrypt@H@@QAE_NABH@Z PROC			; CEncrypt<int>::operator==, COMDAT
; _this$ = ecx

; 976  : 	{

  00000	55		 push	 ebp
  00001	8b ec		 mov	 ebp, esp
  00003	51		 push	 ecx

; 977  : 		
; 978  : 		type value;
; 979  : 		DecryptValueToPool(&value);

  00004	8d 45 fc	 lea	 eax, DWORD PTR _value$[ebp]
  00007	50		 push	 eax
  00008	e8 00 00 00 00	 call	 ?DecryptValueToPool@?$CEncrypt@H@@QAEXPAH@Z ; CEncrypt<int>::DecryptValueToPool

; 980  : #ifdef _NOTUSE
; 981  : 		Debug();
; 982  : #endif
; 983  : 		return (value == inValue);

  0000d	8b 4d 08	 mov	 ecx, DWORD PTR _inValue$[ebp]
  00010	8b 55 fc	 mov	 edx, DWORD PTR _value$[ebp]
  00013	33 c0		 xor	 eax, eax
  00015	3b 11		 cmp	 edx, DWORD PTR [ecx]
  00017	0f 94 c0	 sete	 al

; 984  : 	} 

  0001a	c9		 leave
  0001b	c2 04 00	 ret	 4
??8?$CEncrypt@H@@QAE_NABH@Z ENDP			; CEncrypt<int>::operator==
_TEXT	ENDS
PUBLIC	??D?$_Vector_iterator@V?$_Vector_val@UCharInfoData@@V?$allocator@UCharInfoData@@@std@@@std@@@std@@QBEAAUCharInfoData@@XZ ; std::_Vector_iterator<std::_Vector_val<CharInfoData,std::allocator<CharInfoData> > >::operator*
; Function compile flags: /Ogsp
; File c:\program files (x86)\microsoft visual studio 10.0\vc\include\vector
;	COMDAT ??D?$_Vector_iterator@V?$_Vector_val@UCharInfoData@@V?$allocator@UCharInfoData@@@std@@@std@@@std@@QBEAAUCharInfoData@@XZ
_TEXT	SEGMENT
??D?$_Vector_iterator@V?$_Vector_val@UCharInfoData@@V?$allocator@UCharInfoData@@@std@@@std@@@std@@QBEAAUCharInfoData@@XZ PROC ; std::_Vector_iterator<std::_Vector_val<CharInfoData,std::allocator<CharInfoData> > >::operator*, COMDAT
; _this$ = ecx

; 322  : 		return ((reference)**(_Mybase *)this);

  00000	8b 01		 mov	 eax, DWORD PTR [ecx]

; 323  : 		}

  00002	c3		 ret	 0
??D?$_Vector_iterator@V?$_Vector_val@UCharInfoData@@V?$allocator@UCharInfoData@@@std@@@std@@@std@@QBEAAUCharInfoData@@XZ ENDP ; std::_Vector_iterator<std::_Vector_val<CharInfoData,std::allocator<CharInfoData> > >::operator*
_TEXT	ENDS
PUBLIC	??E?$_Vector_iterator@V?$_Vector_val@UCharInfoData@@V?$allocator@UCharInfoData@@@std@@@std@@@std@@QAEAAV01@XZ ; std::_Vector_iterator<std::_Vector_val<CharInfoData,std::allocator<CharInfoData> > >::operator++
; Function compile flags: /Ogsp
;	COMDAT ??E?$_Vector_iterator@V?$_Vector_val@UCharInfoData@@V?$allocator@UCharInfoData@@@std@@@std@@@std@@QAEAAV01@XZ
_TEXT	SEGMENT
??E?$_Vector_iterator@V?$_Vector_val@UCharInfoData@@V?$allocator@UCharInfoData@@@std@@@std@@@std@@QAEAAV01@XZ PROC ; std::_Vector_iterator<std::_Vector_val<CharInfoData,std::allocator<CharInfoData> > >::operator++, COMDAT
; _this$ = ecx

; 331  : 		{	// preincrement

  00000	8b c1		 mov	 eax, ecx

; 332  : 		++*(_Mybase *)this;

  00002	81 00 c0 03 00
	00		 add	 DWORD PTR [eax], 960	; 000003c0H

; 333  : 		return (*this);
; 334  : 		}

  00008	c3		 ret	 0
??E?$_Vector_iterator@V?$_Vector_val@UCharInfoData@@V?$allocator@UCharInfoData@@@std@@@std@@@std@@QAEAAV01@XZ ENDP ; std::_Vector_iterator<std::_Vector_val<CharInfoData,std::allocator<CharInfoData> > >::operator++
_TEXT	ENDS
PUBLIC	??0?$_Vector_iterator@V?$_Vector_val@PAVUserInfoNode@@V?$allocator@PAVUserInfoNode@@@std@@@std@@@std@@QAE@XZ ; std::_Vector_iterator<std::_Vector_val<UserInfoNode *,std::allocator<UserInfoNode *> > >::_Vector_iterator<std::_Vector_val<UserInfoNode *,std::allocator<UserInfoNode *> > >
; Function compile flags: /Ogsp
;	COMDAT ??0?$_Vector_iterator@V?$_Vector_val@PAVUserInfoNode@@V?$allocator@PAVUserInfoNode@@@std@@@std@@@std@@QAE@XZ
_TEXT	SEGMENT
??0?$_Vector_iterator@V?$_Vector_val@PAVUserInfoNode@@V?$allocator@PAVUserInfoNode@@@std@@@std@@@std@@QAE@XZ PROC ; std::_Vector_iterator<std::_Vector_val<UserInfoNode *,std::allocator<UserInfoNode *> > >::_Vector_iterator<std::_Vector_val<UserInfoNode *,std::allocator<UserInfoNode *> > >, COMDAT
; _this$ = ecx

; 298  : 	_Vector_iterator()

  00000	8b c1		 mov	 eax, ecx
  00002	83 20 00	 and	 DWORD PTR [eax], 0

; 299  : 		{	// construct with null vector pointer
; 300  : 		}

  00005	c3		 ret	 0
??0?$_Vector_iterator@V?$_Vector_val@PAVUserInfoNode@@V?$allocator@PAVUserInfoNode@@@std@@@std@@@std@@QAE@XZ ENDP ; std::_Vector_iterator<std::_Vector_val<UserInfoNode *,std::allocator<UserInfoNode *> > >::_Vector_iterator<std::_Vector_val<UserInfoNode *,std::allocator<UserInfoNode *> > >
_TEXT	ENDS
PUBLIC	??D?$_Vector_iterator@V?$_Vector_val@PAVUserInfoNode@@V?$allocator@PAVUserInfoNode@@@std@@@std@@@std@@QBEAAPAVUserInfoNode@@XZ ; std::_Vector_iterator<std::_Vector_val<UserInfoNode *,std::allocator<UserInfoNode *> > >::operator*
; Function compile flags: /Ogsp
;	COMDAT ??D?$_Vector_iterator@V?$_Vector_val@PAVUserInfoNode@@V?$allocator@PAVUserInfoNode@@@std@@@std@@@std@@QBEAAPAVUserInfoNode@@XZ
_TEXT	SEGMENT
??D?$_Vector_iterator@V?$_Vector_val@PAVUserInfoNode@@V?$allocator@PAVUserInfoNode@@@std@@@std@@@std@@QBEAAPAVUserInfoNode@@XZ PROC ; std::_Vector_iterator<std::_Vector_val<UserInfoNode *,std::allocator<UserInfoNode *> > >::operator*, COMDAT
; _this$ = ecx

; 322  : 		return ((reference)**(_Mybase *)this);

  00000	8b 01		 mov	 eax, DWORD PTR [ecx]

; 323  : 		}

  00002	c3		 ret	 0
??D?$_Vector_iterator@V?$_Vector_val@PAVUserInfoNode@@V?$allocator@PAVUserInfoNode@@@std@@@std@@@std@@QBEAAPAVUserInfoNode@@XZ ENDP ; std::_Vector_iterator<std::_Vector_val<UserInfoNode *,std::allocator<UserInfoNode *> > >::operator*
_TEXT	ENDS
PUBLIC	??E?$_Vector_iterator@V?$_Vector_val@PAVUserInfoNode@@V?$allocator@PAVUserInfoNode@@@std@@@std@@@std@@QAEAAV01@XZ ; std::_Vector_iterator<std::_Vector_val<UserInfoNode *,std::allocator<UserInfoNode *> > >::operator++
; Function compile flags: /Ogsp
;	COMDAT ??E?$_Vector_iterator@V?$_Vector_val@PAVUserInfoNode@@V?$allocator@PAVUserInfoNode@@@std@@@std@@@std@@QAEAAV01@XZ
_TEXT	SEGMENT
??E?$_Vector_iterator@V?$_Vector_val@PAVUserInfoNode@@V?$allocator@PAVUserInfoNode@@@std@@@std@@@std@@QAEAAV01@XZ PROC ; std::_Vector_iterator<std::_Vector_val<UserInfoNode *,std::allocator<UserInfoNode *> > >::operator++, COMDAT
; _this$ = ecx

; 331  : 		{	// preincrement

  00000	8b c1		 mov	 eax, ecx

; 332  : 		++*(_Mybase *)this;

  00002	83 00 04	 add	 DWORD PTR [eax], 4

; 333  : 		return (*this);
; 334  : 		}

  00005	c3		 ret	 0
??E?$_Vector_iterator@V?$_Vector_val@PAVUserInfoNode@@V?$allocator@PAVUserInfoNode@@@std@@@std@@@std@@QAEAAV01@XZ ENDP ; std::_Vector_iterator<std::_Vector_val<UserInfoNode *,std::allocator<UserInfoNode *> > >::operator++
_TEXT	ENDS
PUBLIC	??0?$_Vector_val@UCharInfoData@@V?$allocator@UCharInfoData@@@std@@@std@@QAE@V?$allocator@UCharInfoData@@@1@@Z ; std::_Vector_val<CharInfoData,std::allocator<CharInfoData> >::_Vector_val<CharInfoData,std::allocator<CharInfoData> >
; Function compile flags: /Ogsp
;	COMDAT ??0?$_Vector_val@UCharInfoData@@V?$allocator@UCharInfoData@@@std@@@std@@QAE@V?$allocator@UCharInfoData@@@1@@Z
_TEXT	SEGMENT
__Al$ = 8						; size = 1
??0?$_Vector_val@UCharInfoData@@V?$allocator@UCharInfoData@@@std@@@std@@QAE@V?$allocator@UCharInfoData@@@1@@Z PROC ; std::_Vector_val<CharInfoData,std::allocator<CharInfoData> >::_Vector_val<CharInfoData,std::allocator<CharInfoData> >, COMDAT
; _this$ = ecx

; 426  : 		{	// construct allocator from _Al

  00000	8b c1		 mov	 eax, ecx

; 427  : 		_Myfirst = 0;

  00002	33 c9		 xor	 ecx, ecx
  00004	89 08		 mov	 DWORD PTR [eax], ecx

; 428  : 		_Mylast = 0;

  00006	89 48 04	 mov	 DWORD PTR [eax+4], ecx

; 429  : 		_Myend = 0;

  00009	89 48 08	 mov	 DWORD PTR [eax+8], ecx

; 430  : 		}

  0000c	c2 04 00	 ret	 4
??0?$_Vector_val@UCharInfoData@@V?$allocator@UCharInfoData@@@std@@@std@@QAE@V?$allocator@UCharInfoData@@@1@@Z ENDP ; std::_Vector_val<CharInfoData,std::allocator<CharInfoData> >::_Vector_val<CharInfoData,std::allocator<CharInfoData> >
_TEXT	ENDS
PUBLIC	??0?$_Vector_val@PAVUserInfoNode@@V?$allocator@PAVUserInfoNode@@@std@@@std@@QAE@V?$allocator@PAVUserInfoNode@@@1@@Z ; std::_Vector_val<UserInfoNode *,std::allocator<UserInfoNode *> >::_Vector_val<UserInfoNode *,std::allocator<UserInfoNode *> >
; Function compile flags: /Ogsp
;	COMDAT ??0?$_Vector_val@PAVUserInfoNode@@V?$allocator@PAVUserInfoNode@@@std@@@std@@QAE@V?$allocator@PAVUserInfoNode@@@1@@Z
_TEXT	SEGMENT
__Al$ = 8						; size = 1
??0?$_Vector_val@PAVUserInfoNode@@V?$allocator@PAVUserInfoNode@@@std@@@std@@QAE@V?$allocator@PAVUserInfoNode@@@1@@Z PROC ; std::_Vector_val<UserInfoNode *,std::allocator<UserInfoNode *> >::_Vector_val<UserInfoNode *,std::allocator<UserInfoNode *> >, COMDAT
; _this$ = ecx

; 426  : 		{	// construct allocator from _Al

  00000	8b c1		 mov	 eax, ecx

; 427  : 		_Myfirst = 0;

  00002	33 c9		 xor	 ecx, ecx
  00004	89 08		 mov	 DWORD PTR [eax], ecx

; 428  : 		_Mylast = 0;

  00006	89 48 04	 mov	 DWORD PTR [eax+4], ecx

; 429  : 		_Myend = 0;

  00009	89 48 08	 mov	 DWORD PTR [eax+8], ecx

; 430  : 		}

  0000c	c2 04 00	 ret	 4
??0?$_Vector_val@PAVUserInfoNode@@V?$allocator@PAVUserInfoNode@@@std@@@std@@QAE@V?$allocator@PAVUserInfoNode@@@1@@Z ENDP ; std::_Vector_val<UserInfoNode *,std::allocator<UserInfoNode *> >::_Vector_val<UserInfoNode *,std::allocator<UserInfoNode *> >
_TEXT	ENDS
PUBLIC	??0?$_Vector_iterator@V?$_Vector_val@UCharInfoData@@V?$allocator@UCharInfoData@@@std@@@std@@@std@@QAE@PAUCharInfoData@@PBU_Container_base0@1@@Z ; std::_Vector_iterator<std::_Vector_val<CharInfoData,std::allocator<CharInfoData> > >::_Vector_iterator<std::_Vector_val<CharInfoData,std::allocator<CharInfoData> > >
; Function compile flags: /Ogsp
;	COMDAT ??0?$_Vector_iterator@V?$_Vector_val@UCharInfoData@@V?$allocator@UCharInfoData@@@std@@@std@@@std@@QAE@PAUCharInfoData@@PBU_Container_base0@1@@Z
_TEXT	SEGMENT
__Parg$ = 8						; size = 4
__Pvector$ = 12						; size = 4
??0?$_Vector_iterator@V?$_Vector_val@UCharInfoData@@V?$allocator@UCharInfoData@@@std@@@std@@@std@@QAE@PAUCharInfoData@@PBU_Container_base0@1@@Z PROC ; std::_Vector_iterator<std::_Vector_val<CharInfoData,std::allocator<CharInfoData> > >::_Vector_iterator<std::_Vector_val<CharInfoData,std::allocator<CharInfoData> > >, COMDAT
; _this$ = ecx

; 304  : 		{	// construct with pointer _Parg

  00000	55		 push	 ebp
  00001	8b ec		 mov	 ebp, esp
  00003	8b c1		 mov	 eax, ecx
  00005	8b 4d 08	 mov	 ecx, DWORD PTR __Parg$[ebp]
  00008	89 08		 mov	 DWORD PTR [eax], ecx

; 305  : 		}

  0000a	5d		 pop	 ebp
  0000b	c2 08 00	 ret	 8
??0?$_Vector_iterator@V?$_Vector_val@UCharInfoData@@V?$allocator@UCharInfoData@@@std@@@std@@@std@@QAE@PAUCharInfoData@@PBU_Container_base0@1@@Z ENDP ; std::_Vector_iterator<std::_Vector_val<CharInfoData,std::allocator<CharInfoData> > >::_Vector_iterator<std::_Vector_val<CharInfoData,std::allocator<CharInfoData> > >
_TEXT	ENDS
PUBLIC	??8?$_Vector_const_iterator@V?$_Vector_val@UCharInfoData@@V?$allocator@UCharInfoData@@@std@@@std@@@std@@QBE_NABV01@@Z ; std::_Vector_const_iterator<std::_Vector_val<CharInfoData,std::allocator<CharInfoData> > >::operator==
; Function compile flags: /Ogsp
;	COMDAT ??8?$_Vector_const_iterator@V?$_Vector_val@UCharInfoData@@V?$allocator@UCharInfoData@@@std@@@std@@@std@@QBE_NABV01@@Z
_TEXT	SEGMENT
__Right$ = 8						; size = 4
??8?$_Vector_const_iterator@V?$_Vector_val@UCharInfoData@@V?$allocator@UCharInfoData@@@std@@@std@@@std@@QBE_NABV01@@Z PROC ; std::_Vector_const_iterator<std::_Vector_val<CharInfoData,std::allocator<CharInfoData> > >::operator==, COMDAT
; _this$ = ecx

; 201  : 		{	// test for iterator equality

  00000	55		 push	 ebp
  00001	8b ec		 mov	 ebp, esp

; 202  : 		_Compat(_Right);
; 203  : 		return (this->_Ptr == _Right._Ptr);

  00003	8b 01		 mov	 eax, DWORD PTR [ecx]
  00005	8b 4d 08	 mov	 ecx, DWORD PTR __Right$[ebp]
  00008	2b 01		 sub	 eax, DWORD PTR [ecx]
  0000a	f7 d8		 neg	 eax
  0000c	1b c0		 sbb	 eax, eax
  0000e	40		 inc	 eax

; 204  : 		}

  0000f	5d		 pop	 ebp
  00010	c2 04 00	 ret	 4
??8?$_Vector_const_iterator@V?$_Vector_val@UCharInfoData@@V?$allocator@UCharInfoData@@@std@@@std@@@std@@QBE_NABV01@@Z ENDP ; std::_Vector_const_iterator<std::_Vector_val<CharInfoData,std::allocator<CharInfoData> > >::operator==
_TEXT	ENDS
PUBLIC	??0?$_Vector_iterator@V?$_Vector_val@PAVUserInfoNode@@V?$allocator@PAVUserInfoNode@@@std@@@std@@@std@@QAE@PAPAVUserInfoNode@@PBU_Container_base0@1@@Z ; std::_Vector_iterator<std::_Vector_val<UserInfoNode *,std::allocator<UserInfoNode *> > >::_Vector_iterator<std::_Vector_val<UserInfoNode *,std::allocator<UserInfoNode *> > >
; Function compile flags: /Ogsp
;	COMDAT ??0?$_Vector_iterator@V?$_Vector_val@PAVUserInfoNode@@V?$allocator@PAVUserInfoNode@@@std@@@std@@@std@@QAE@PAPAVUserInfoNode@@PBU_Container_base0@1@@Z
_TEXT	SEGMENT
__Parg$ = 8						; size = 4
__Pvector$ = 12						; size = 4
??0?$_Vector_iterator@V?$_Vector_val@PAVUserInfoNode@@V?$allocator@PAVUserInfoNode@@@std@@@std@@@std@@QAE@PAPAVUserInfoNode@@PBU_Container_base0@1@@Z PROC ; std::_Vector_iterator<std::_Vector_val<UserInfoNode *,std::allocator<UserInfoNode *> > >::_Vector_iterator<std::_Vector_val<UserInfoNode *,std::allocator<UserInfoNode *> > >, COMDAT
; _this$ = ecx

; 304  : 		{	// construct with pointer _Parg

  00000	55		 push	 ebp
  00001	8b ec		 mov	 ebp, esp
  00003	8b c1		 mov	 eax, ecx
  00005	8b 4d 08	 mov	 ecx, DWORD PTR __Parg$[ebp]
  00008	89 08		 mov	 DWORD PTR [eax], ecx

; 305  : 		}

  0000a	5d		 pop	 ebp
  0000b	c2 08 00	 ret	 8
??0?$_Vector_iterator@V?$_Vector_val@PAVUserInfoNode@@V?$allocator@PAVUserInfoNode@@@std@@@std@@@std@@QAE@PAPAVUserInfoNode@@PBU_Container_base0@1@@Z ENDP ; std::_Vector_iterator<std::_Vector_val<UserInfoNode *,std::allocator<UserInfoNode *> > >::_Vector_iterator<std::_Vector_val<UserInfoNode *,std::allocator<UserInfoNode *> > >
_TEXT	ENDS
PUBLIC	??8?$_Vector_const_iterator@V?$_Vector_val@PAVUserInfoNode@@V?$allocator@PAVUserInfoNode@@@std@@@std@@@std@@QBE_NABV01@@Z ; std::_Vector_const_iterator<std::_Vector_val<UserInfoNode *,std::allocator<UserInfoNode *> > >::operator==
; Function compile flags: /Ogsp
;	COMDAT ??8?$_Vector_const_iterator@V?$_Vector_val@PAVUserInfoNode@@V?$allocator@PAVUserInfoNode@@@std@@@std@@@std@@QBE_NABV01@@Z
_TEXT	SEGMENT
__Right$ = 8						; size = 4
??8?$_Vector_const_iterator@V?$_Vector_val@PAVUserInfoNode@@V?$allocator@PAVUserInfoNode@@@std@@@std@@@std@@QBE_NABV01@@Z PROC ; std::_Vector_const_iterator<std::_Vector_val<UserInfoNode *,std::allocator<UserInfoNode *> > >::operator==, COMDAT
; _this$ = ecx

; 201  : 		{	// test for iterator equality

  00000	55		 push	 ebp
  00001	8b ec		 mov	 ebp, esp

; 202  : 		_Compat(_Right);
; 203  : 		return (this->_Ptr == _Right._Ptr);

  00003	8b 01		 mov	 eax, DWORD PTR [ecx]
  00005	8b 4d 08	 mov	 ecx, DWORD PTR __Right$[ebp]
  00008	2b 01		 sub	 eax, DWORD PTR [ecx]
  0000a	f7 d8		 neg	 eax
  0000c	1b c0		 sbb	 eax, eax
  0000e	40		 inc	 eax

; 204  : 		}

  0000f	5d		 pop	 ebp
  00010	c2 04 00	 ret	 4
??8?$_Vector_const_iterator@V?$_Vector_val@PAVUserInfoNode@@V?$allocator@PAVUserInfoNode@@@std@@@std@@@std@@QBE_NABV01@@Z ENDP ; std::_Vector_const_iterator<std::_Vector_val<UserInfoNode *,std::allocator<UserInfoNode *> > >::operator==
_TEXT	ENDS
PUBLIC	?max_size@?$vector@UCharInfoData@@V?$allocator@UCharInfoData@@@std@@@std@@QBEIXZ ; std::vector<CharInfoData,std::allocator<CharInfoData> >::max_size
; Function compile flags: /Ogsp
;	COMDAT ?max_size@?$vector@UCharInfoData@@V?$allocator@UCharInfoData@@@std@@@std@@QBEIXZ
_TEXT	SEGMENT
?max_size@?$vector@UCharInfoData@@V?$allocator@UCharInfoData@@@std@@@std@@QBEIXZ PROC ; std::vector<CharInfoData,std::allocator<CharInfoData> >::max_size, COMDAT
; _this$ = ecx

; 884  : 		return (this->_Alval.max_size());

  00000	b8 44 44 44 00	 mov	 eax, 4473924		; 00444444H

; 885  : 		}

  00005	c3		 ret	 0
?max_size@?$vector@UCharInfoData@@V?$allocator@UCharInfoData@@@std@@@std@@QBEIXZ ENDP ; std::vector<CharInfoData,std::allocator<CharInfoData> >::max_size
_TEXT	ENDS
PUBLIC	?_Grow_to@?$vector@UCharInfoData@@V?$allocator@UCharInfoData@@@std@@@std@@IBEII@Z ; std::vector<CharInfoData,std::allocator<CharInfoData> >::_Grow_to
; Function compile flags: /Ogsp
;	COMDAT ?_Grow_to@?$vector@UCharInfoData@@V?$allocator@UCharInfoData@@@std@@@std@@IBEII@Z
_TEXT	SEGMENT
__Count$ = 8						; size = 4
?_Grow_to@?$vector@UCharInfoData@@V?$allocator@UCharInfoData@@@std@@@std@@IBEII@Z PROC ; std::vector<CharInfoData,std::allocator<CharInfoData> >::_Grow_to, COMDAT
; _this$ = ecx

; 1274 : 		{	// grow by 50% or at least to _Count

  00000	55		 push	 ebp
  00001	8b ec		 mov	 ebp, esp

; 1275 : 		size_type _Capacity = capacity();

  00003	8b 41 08	 mov	 eax, DWORD PTR [ecx+8]
  00006	2b 01		 sub	 eax, DWORD PTR [ecx]
  00008	b9 c0 03 00 00	 mov	 ecx, 960		; 000003c0H
  0000d	99		 cdq
  0000e	f7 f9		 idiv	 ecx

; 1276 : 
; 1277 : 		_Capacity = max_size() - _Capacity / 2 < _Capacity
; 1278 : 			? 0 : _Capacity + _Capacity / 2;	// try to grow by 50%

  00010	ba 44 44 44 00	 mov	 edx, 4473924		; 00444444H
  00015	8b c8		 mov	 ecx, eax
  00017	d1 e9		 shr	 ecx, 1
  00019	2b d1		 sub	 edx, ecx
  0001b	3b d0		 cmp	 edx, eax
  0001d	73 04		 jae	 SHORT $LN4@Grow_to
  0001f	33 c0		 xor	 eax, eax
  00021	eb 02		 jmp	 SHORT $LN5@Grow_to
$LN4@Grow_to:
  00023	03 c1		 add	 eax, ecx
$LN5@Grow_to:

; 1279 : 		if (_Capacity < _Count)

  00025	3b 45 08	 cmp	 eax, DWORD PTR __Count$[ebp]

; 1280 : 			_Capacity = _Count;

  00028	0f 42 45 08	 cmovb	 eax, DWORD PTR __Count$[ebp]

; 1281 : 		return (_Capacity);
; 1282 : 		}

  0002c	5d		 pop	 ebp
  0002d	c2 04 00	 ret	 4
?_Grow_to@?$vector@UCharInfoData@@V?$allocator@UCharInfoData@@@std@@@std@@IBEII@Z ENDP ; std::vector<CharInfoData,std::allocator<CharInfoData> >::_Grow_to
_TEXT	ENDS
PUBLIC	?_Make_iter@?$vector@PAVUserInfoNode@@V?$allocator@PAVUserInfoNode@@@std@@@std@@QBE?AV?$_Vector_iterator@V?$_Vector_val@PAVUserInfoNode@@V?$allocator@PAVUserInfoNode@@@std@@@std@@@2@V?$_Vector_const_iterator@V?$_Vector_val@PAVUserInfoNode@@V?$allocator@PAVUserInfoNode@@@std@@@std@@@2@@Z ; std::vector<UserInfoNode *,std::allocator<UserInfoNode *> >::_Make_iter
; Function compile flags: /Ogsp
;	COMDAT ?_Make_iter@?$vector@PAVUserInfoNode@@V?$allocator@PAVUserInfoNode@@@std@@@std@@QBE?AV?$_Vector_iterator@V?$_Vector_val@PAVUserInfoNode@@V?$allocator@PAVUserInfoNode@@@std@@@std@@@2@V?$_Vector_const_iterator@V?$_Vector_val@PAVUserInfoNode@@V?$allocator@PAVUserInfoNode@@@std@@@std@@@2@@Z
_TEXT	SEGMENT
___$ReturnUdt$ = 8					; size = 4
__Where$ = 12						; size = 4
?_Make_iter@?$vector@PAVUserInfoNode@@V?$allocator@PAVUserInfoNode@@@std@@@std@@QBE?AV?$_Vector_iterator@V?$_Vector_val@PAVUserInfoNode@@V?$allocator@PAVUserInfoNode@@@std@@@std@@@2@V?$_Vector_const_iterator@V?$_Vector_val@PAVUserInfoNode@@V?$allocator@PAVUserInfoNode@@@std@@@std@@@2@@Z PROC ; std::vector<UserInfoNode *,std::allocator<UserInfoNode *> >::_Make_iter, COMDAT
; _this$ = ecx

; 801  : 		{	// make iterator from const_iterator

  00000	55		 push	 ebp
  00001	8b ec		 mov	 ebp, esp

; 802  : 		return (iterator(_Where._Ptr, this));

  00003	8b 45 08	 mov	 eax, DWORD PTR ___$ReturnUdt$[ebp]
  00006	8b 4d 0c	 mov	 ecx, DWORD PTR __Where$[ebp]
  00009	89 08		 mov	 DWORD PTR [eax], ecx

; 803  : 		}

  0000b	5d		 pop	 ebp
  0000c	c2 08 00	 ret	 8
?_Make_iter@?$vector@PAVUserInfoNode@@V?$allocator@PAVUserInfoNode@@@std@@@std@@QBE?AV?$_Vector_iterator@V?$_Vector_val@PAVUserInfoNode@@V?$allocator@PAVUserInfoNode@@@std@@@std@@@2@V?$_Vector_const_iterator@V?$_Vector_val@PAVUserInfoNode@@V?$allocator@PAVUserInfoNode@@@std@@@std@@@2@@Z ENDP ; std::vector<UserInfoNode *,std::allocator<UserInfoNode *> >::_Make_iter
_TEXT	ENDS
PUBLIC	?max_size@?$vector@PAVUserInfoNode@@V?$allocator@PAVUserInfoNode@@@std@@@std@@QBEIXZ ; std::vector<UserInfoNode *,std::allocator<UserInfoNode *> >::max_size
; Function compile flags: /Ogsp
;	COMDAT ?max_size@?$vector@PAVUserInfoNode@@V?$allocator@PAVUserInfoNode@@@std@@@std@@QBEIXZ
_TEXT	SEGMENT
?max_size@?$vector@PAVUserInfoNode@@V?$allocator@PAVUserInfoNode@@@std@@@std@@QBEIXZ PROC ; std::vector<UserInfoNode *,std::allocator<UserInfoNode *> >::max_size, COMDAT
; _this$ = ecx

; 884  : 		return (this->_Alval.max_size());

  00000	b8 ff ff ff 3f	 mov	 eax, 1073741823		; 3fffffffH

; 885  : 		}

  00005	c3		 ret	 0
?max_size@?$vector@PAVUserInfoNode@@V?$allocator@PAVUserInfoNode@@@std@@@std@@QBEIXZ ENDP ; std::vector<UserInfoNode *,std::allocator<UserInfoNode *> >::max_size
_TEXT	ENDS
PUBLIC	?_Grow_to@?$vector@PAVUserInfoNode@@V?$allocator@PAVUserInfoNode@@@std@@@std@@IBEII@Z ; std::vector<UserInfoNode *,std::allocator<UserInfoNode *> >::_Grow_to
; Function compile flags: /Ogsp
;	COMDAT ?_Grow_to@?$vector@PAVUserInfoNode@@V?$allocator@PAVUserInfoNode@@@std@@@std@@IBEII@Z
_TEXT	SEGMENT
__Count$ = 8						; size = 4
?_Grow_to@?$vector@PAVUserInfoNode@@V?$allocator@PAVUserInfoNode@@@std@@@std@@IBEII@Z PROC ; std::vector<UserInfoNode *,std::allocator<UserInfoNode *> >::_Grow_to, COMDAT
; _this$ = ecx

; 1274 : 		{	// grow by 50% or at least to _Count

  00000	55		 push	 ebp
  00001	8b ec		 mov	 ebp, esp

; 1275 : 		size_type _Capacity = capacity();

  00003	8b 41 08	 mov	 eax, DWORD PTR [ecx+8]
  00006	2b 01		 sub	 eax, DWORD PTR [ecx]

; 1276 : 
; 1277 : 		_Capacity = max_size() - _Capacity / 2 < _Capacity
; 1278 : 			? 0 : _Capacity + _Capacity / 2;	// try to grow by 50%

  00008	ba ff ff ff 3f	 mov	 edx, 1073741823		; 3fffffffH
  0000d	c1 f8 02	 sar	 eax, 2
  00010	8b c8		 mov	 ecx, eax
  00012	d1 e9		 shr	 ecx, 1
  00014	2b d1		 sub	 edx, ecx
  00016	3b d0		 cmp	 edx, eax
  00018	73 04		 jae	 SHORT $LN4@Grow_to@2
  0001a	33 c0		 xor	 eax, eax
  0001c	eb 02		 jmp	 SHORT $LN5@Grow_to@2
$LN4@Grow_to@2:
  0001e	03 c1		 add	 eax, ecx
$LN5@Grow_to@2:

; 1279 : 		if (_Capacity < _Count)

  00020	3b 45 08	 cmp	 eax, DWORD PTR __Count$[ebp]

; 1280 : 			_Capacity = _Count;

  00023	0f 42 45 08	 cmovb	 eax, DWORD PTR __Count$[ebp]

; 1281 : 		return (_Capacity);
; 1282 : 		}

  00027	5d		 pop	 ebp
  00028	c2 04 00	 ret	 4
?_Grow_to@?$vector@PAVUserInfoNode@@V?$allocator@PAVUserInfoNode@@@std@@@std@@IBEII@Z ENDP ; std::vector<UserInfoNode *,std::allocator<UserInfoNode *> >::_Grow_to
_TEXT	ENDS
PUBLIC	?allocate@?$allocator@UCharInfoData@@@std@@QAEPAUCharInfoData@@I@Z ; std::allocator<CharInfoData>::allocate
; Function compile flags: /Ogsp
; File c:\program files (x86)\microsoft visual studio 10.0\vc\include\xmemory
;	COMDAT ?allocate@?$allocator@UCharInfoData@@@std@@QAEPAUCharInfoData@@I@Z
_TEXT	SEGMENT
__Count$ = 8						; size = 4
?allocate@?$allocator@UCharInfoData@@@std@@QAEPAUCharInfoData@@I@Z PROC ; std::allocator<CharInfoData>::allocate, COMDAT
; _this$ = ecx

; 186  : 		{	// allocate array of _Count elements

  00000	55		 push	 ebp
  00001	8b ec		 mov	 ebp, esp

; 187  : 		return (_Allocate(_Count, (pointer)0));

  00003	6a 00		 push	 0
  00005	ff 75 08	 push	 DWORD PTR __Count$[ebp]
  00008	e8 00 00 00 00	 call	 ??$_Allocate@UCharInfoData@@@std@@YAPAUCharInfoData@@IPAU1@@Z ; std::_Allocate<CharInfoData>
  0000d	59		 pop	 ecx
  0000e	59		 pop	 ecx

; 188  : 		}

  0000f	5d		 pop	 ebp
  00010	c2 04 00	 ret	 4
?allocate@?$allocator@UCharInfoData@@@std@@QAEPAUCharInfoData@@I@Z ENDP ; std::allocator<CharInfoData>::allocate
_TEXT	ENDS
PUBLIC	?allocate@?$allocator@PAVUserInfoNode@@@std@@QAEPAPAVUserInfoNode@@I@Z ; std::allocator<UserInfoNode *>::allocate
; Function compile flags: /Ogsp
;	COMDAT ?allocate@?$allocator@PAVUserInfoNode@@@std@@QAEPAPAVUserInfoNode@@I@Z
_TEXT	SEGMENT
__Count$ = 8						; size = 4
?allocate@?$allocator@PAVUserInfoNode@@@std@@QAEPAPAVUserInfoNode@@I@Z PROC ; std::allocator<UserInfoNode *>::allocate, COMDAT
; _this$ = ecx

; 186  : 		{	// allocate array of _Count elements

  00000	55		 push	 ebp
  00001	8b ec		 mov	 ebp, esp

; 187  : 		return (_Allocate(_Count, (pointer)0));

  00003	6a 00		 push	 0
  00005	ff 75 08	 push	 DWORD PTR __Count$[ebp]
  00008	e8 00 00 00 00	 call	 ??$_Allocate@PAVUserInfoNode@@@std@@YAPAPAVUserInfoNode@@IPAPAV1@@Z ; std::_Allocate<UserInfoNode *>
  0000d	59		 pop	 ecx
  0000e	59		 pop	 ecx

; 188  : 		}

  0000f	5d		 pop	 ebp
  00010	c2 04 00	 ret	 4
?allocate@?$allocator@PAVUserInfoNode@@@std@@QAEPAPAVUserInfoNode@@I@Z ENDP ; std::allocator<UserInfoNode *>::allocate
_TEXT	ENDS
PUBLIC	??$_Copy_impl@PAHPAH@std@@YAPAHPAH00@Z		; std::_Copy_impl<int *,int *>
; Function compile flags: /Ogsp
; File c:\program files (x86)\microsoft visual studio 10.0\vc\include\xutility
;	COMDAT ??$_Copy_impl@PAHPAH@std@@YAPAHPAH00@Z
_TEXT	SEGMENT
__Cat$518571 = -4					; size = 1
__First$ = 8						; size = 4
__Last$ = 12						; size = 4
__Dest$ = 16						; size = 4
??$_Copy_impl@PAHPAH@std@@YAPAHPAH00@Z PROC		; std::_Copy_impl<int *,int *>, COMDAT

; 2163 : 	{	// copy [_First, _Last) to [_Dest, ...)

  00000	55		 push	 ebp
  00001	8b ec		 mov	 ebp, esp
  00003	51		 push	 ecx

; 2164 : 	return (_Copy_impl(_First, _Last,
; 2165 : 		_Dest, _Ptr_cat(_First, _Dest)));

  00004	ff 75 fc	 push	 DWORD PTR __Cat$518571[ebp]
  00007	ff 75 10	 push	 DWORD PTR __Dest$[ebp]
  0000a	ff 75 0c	 push	 DWORD PTR __Last$[ebp]
  0000d	ff 75 08	 push	 DWORD PTR __First$[ebp]
  00010	e8 00 00 00 00	 call	 ??$_Copy_impl@PAHPAH@std@@YAPAHPAH00U_Scalar_ptr_iterator_tag@0@@Z ; std::_Copy_impl<int *,int *>
  00015	83 c4 10	 add	 esp, 16			; 00000010H

; 2166 : 	}

  00018	c9		 leave
  00019	c3		 ret	 0
??$_Copy_impl@PAHPAH@std@@YAPAHPAH00@Z ENDP		; std::_Copy_impl<int *,int *>
_TEXT	ENDS
PUBLIC	??$_Cons_val@V?$allocator@PAVUserInfoNode@@@std@@PAVUserInfoNode@@AAPAV3@@std@@YAXAAV?$allocator@PAVUserInfoNode@@@0@PAPAVUserInfoNode@@AAPAV2@@Z ; std::_Cons_val<std::allocator<UserInfoNode *>,UserInfoNode *,UserInfoNode * &>
; Function compile flags: /Ogsp
; File c:\program files (x86)\microsoft visual studio 10.0\vc\include\xmemory
;	COMDAT ??$_Cons_val@V?$allocator@PAVUserInfoNode@@@std@@PAVUserInfoNode@@AAPAV3@@std@@YAXAAV?$allocator@PAVUserInfoNode@@@0@PAPAVUserInfoNode@@AAPAV2@@Z
_TEXT	SEGMENT
__Alval$ = 8						; size = 4
__Pdest$ = 12						; size = 4
__Src$ = 16						; size = 4
??$_Cons_val@V?$allocator@PAVUserInfoNode@@@std@@PAVUserInfoNode@@AAPAV3@@std@@YAXAAV?$allocator@PAVUserInfoNode@@@0@PAPAVUserInfoNode@@AAPAV2@@Z PROC ; std::_Cons_val<std::allocator<UserInfoNode *>,UserInfoNode *,UserInfoNode * &>, COMDAT

; 279  : 	{	// construct using allocator

  00000	55		 push	 ebp
  00001	8b ec		 mov	 ebp, esp

; 280  : 	_Alval.construct(_Pdest, _STD forward<_Ty2>(_Src));

  00003	8b 45 0c	 mov	 eax, DWORD PTR __Pdest$[ebp]
  00006	85 c0		 test	 eax, eax
  00008	74 07		 je	 SHORT $LN7@Cons_val
  0000a	8b 4d 10	 mov	 ecx, DWORD PTR __Src$[ebp]
  0000d	8b 09		 mov	 ecx, DWORD PTR [ecx]
  0000f	89 08		 mov	 DWORD PTR [eax], ecx
$LN7@Cons_val:

; 281  : 	}

  00011	5d		 pop	 ebp
  00012	c3		 ret	 0
??$_Cons_val@V?$allocator@PAVUserInfoNode@@@std@@PAVUserInfoNode@@AAPAV3@@std@@YAXAAV?$allocator@PAVUserInfoNode@@@0@PAPAVUserInfoNode@@AAPAV2@@Z ENDP ; std::_Cons_val<std::allocator<UserInfoNode *>,UserInfoNode *,UserInfoNode * &>
_TEXT	ENDS
PUBLIC	??$_Move@PAPAVUserInfoNode@@PAPAV1@@std@@YAPAPAVUserInfoNode@@PAPAV1@00@Z ; std::_Move<UserInfoNode * *,UserInfoNode * *>
; Function compile flags: /Ogsp
; File c:\program files (x86)\microsoft visual studio 10.0\vc\include\xutility
;	COMDAT ??$_Move@PAPAVUserInfoNode@@PAPAV1@@std@@YAPAPAVUserInfoNode@@PAPAV1@00@Z
_TEXT	SEGMENT
__Cat$518604 = -4					; size = 1
__First$ = 8						; size = 4
__Last$ = 12						; size = 4
__Dest$ = 16						; size = 4
??$_Move@PAPAVUserInfoNode@@PAPAV1@@std@@YAPAPAVUserInfoNode@@PAPAV1@00@Z PROC ; std::_Move<UserInfoNode * *,UserInfoNode * *>, COMDAT

; 2533 : 	{	// move [_First, _Last) to [_Dest, ...), unchecked

  00000	55		 push	 ebp
  00001	8b ec		 mov	 ebp, esp
  00003	51		 push	 ecx

; 2534 : 	return (_Move(_First, _Last,
; 2535 : 		_Dest, _Ptr_cat(_First, _Dest)));

  00004	ff 75 fc	 push	 DWORD PTR __Cat$518604[ebp]
  00007	ff 75 10	 push	 DWORD PTR __Dest$[ebp]
  0000a	ff 75 0c	 push	 DWORD PTR __Last$[ebp]
  0000d	ff 75 08	 push	 DWORD PTR __First$[ebp]
  00010	e8 00 00 00 00	 call	 ??$_Move@PAPAVUserInfoNode@@PAPAV1@@std@@YAPAPAVUserInfoNode@@PAPAV1@00U_Scalar_ptr_iterator_tag@0@@Z ; std::_Move<UserInfoNode * *,UserInfoNode * *>
  00015	83 c4 10	 add	 esp, 16			; 00000010H

; 2536 : 	}

  00018	c9		 leave
  00019	c3		 ret	 0
??$_Move@PAPAVUserInfoNode@@PAPAV1@@std@@YAPAPAVUserInfoNode@@PAPAV1@00@Z ENDP ; std::_Move<UserInfoNode * *,UserInfoNode * *>
_TEXT	ENDS
PUBLIC	??$_Destroy_range@V?$allocator@PAVUserInfoNode@@@std@@@std@@YAXPAPAVUserInfoNode@@0AAV?$allocator@PAVUserInfoNode@@@0@@Z ; std::_Destroy_range<std::allocator<UserInfoNode *> >
; Function compile flags: /Ogsp
; File c:\program files (x86)\microsoft visual studio 10.0\vc\include\xmemory
;	COMDAT ??$_Destroy_range@V?$allocator@PAVUserInfoNode@@@std@@@std@@YAXPAPAVUserInfoNode@@0AAV?$allocator@PAVUserInfoNode@@@0@@Z
_TEXT	SEGMENT
__First$ = 8						; size = 4
__Last$ = 12						; size = 4
__Al$ = 16						; size = 4
??$_Destroy_range@V?$allocator@PAVUserInfoNode@@@std@@@std@@YAXPAPAVUserInfoNode@@0AAV?$allocator@PAVUserInfoNode@@@0@@Z PROC ; std::_Destroy_range<std::allocator<UserInfoNode *> >, COMDAT

; 88   : 	_Destroy_range(_First, _Last, _Al, _Ptr_cat(_First, _Last));
; 89   : 	}

  00000	c3		 ret	 0
??$_Destroy_range@V?$allocator@PAVUserInfoNode@@@std@@@std@@YAXPAPAVUserInfoNode@@0AAV?$allocator@PAVUserInfoNode@@@0@@Z ENDP ; std::_Destroy_range<std::allocator<UserInfoNode *> >
_TEXT	ENDS
PUBLIC	?construct@?$allocator@H@std@@QAEXPAHABH@Z	; std::allocator<int>::construct
; Function compile flags: /Ogsp
;	COMDAT ?construct@?$allocator@H@std@@QAEXPAHABH@Z
_TEXT	SEGMENT
__Ptr$ = 8						; size = 4
__Val$ = 12						; size = 4
?construct@?$allocator@H@std@@QAEXPAHABH@Z PROC		; std::allocator<int>::construct, COMDAT
; _this$ = ecx

; 196  : 		{	// construct object at _Ptr with value _Val

  00000	55		 push	 ebp
  00001	8b ec		 mov	 ebp, esp

; 197  : 		_Construct(_Ptr, _Val);

  00003	8b 45 08	 mov	 eax, DWORD PTR __Ptr$[ebp]
  00006	85 c0		 test	 eax, eax
  00008	74 07		 je	 SHORT $LN5@construct@2
  0000a	8b 4d 0c	 mov	 ecx, DWORD PTR __Val$[ebp]
  0000d	8b 09		 mov	 ecx, DWORD PTR [ecx]
  0000f	89 08		 mov	 DWORD PTR [eax], ecx
$LN5@construct@2:

; 198  : 		}

  00011	5d		 pop	 ebp
  00012	c2 08 00	 ret	 8
?construct@?$allocator@H@std@@QAEXPAHABH@Z ENDP		; std::allocator<int>::construct
_TEXT	ENDS
PUBLIC	?construct@?$allocator@PAVUserInfoNode@@@std@@QAEXPAPAVUserInfoNode@@ABQAV3@@Z ; std::allocator<UserInfoNode *>::construct
; Function compile flags: /Ogsp
;	COMDAT ?construct@?$allocator@PAVUserInfoNode@@@std@@QAEXPAPAVUserInfoNode@@ABQAV3@@Z
_TEXT	SEGMENT
__Ptr$ = 8						; size = 4
__Val$ = 12						; size = 4
?construct@?$allocator@PAVUserInfoNode@@@std@@QAEXPAPAVUserInfoNode@@ABQAV3@@Z PROC ; std::allocator<UserInfoNode *>::construct, COMDAT
; _this$ = ecx

; 196  : 		{	// construct object at _Ptr with value _Val

  00000	55		 push	 ebp
  00001	8b ec		 mov	 ebp, esp

; 197  : 		_Construct(_Ptr, _Val);

  00003	8b 45 08	 mov	 eax, DWORD PTR __Ptr$[ebp]
  00006	85 c0		 test	 eax, eax
  00008	74 07		 je	 SHORT $LN5@construct@3
  0000a	8b 4d 0c	 mov	 ecx, DWORD PTR __Val$[ebp]
  0000d	8b 09		 mov	 ecx, DWORD PTR [ecx]
  0000f	89 08		 mov	 DWORD PTR [eax], ecx
$LN5@construct@3:

; 198  : 		}

  00011	5d		 pop	 ebp
  00012	c2 08 00	 ret	 8
?construct@?$allocator@PAVUserInfoNode@@@std@@QAEXPAPAVUserInfoNode@@ABQAV3@@Z ENDP ; std::allocator<UserInfoNode *>::construct
_TEXT	ENDS
PUBLIC	??G?$_Vector_iterator@V?$_Vector_val@UCharInfoData@@V?$allocator@UCharInfoData@@@std@@@std@@@std@@QBEHABV?$_Vector_const_iterator@V?$_Vector_val@UCharInfoData@@V?$allocator@UCharInfoData@@@std@@@std@@@1@@Z ; std::_Vector_iterator<std::_Vector_val<CharInfoData,std::allocator<CharInfoData> > >::operator-
; Function compile flags: /Ogsp
; File c:\program files (x86)\microsoft visual studio 10.0\vc\include\vector
;	COMDAT ??G?$_Vector_iterator@V?$_Vector_val@UCharInfoData@@V?$allocator@UCharInfoData@@@std@@@std@@@std@@QBEHABV?$_Vector_const_iterator@V?$_Vector_val@UCharInfoData@@V?$allocator@UCharInfoData@@@std@@@std@@@1@@Z
_TEXT	SEGMENT
__Right$ = 8						; size = 4
??G?$_Vector_iterator@V?$_Vector_val@UCharInfoData@@V?$allocator@UCharInfoData@@@std@@@std@@@std@@QBEHABV?$_Vector_const_iterator@V?$_Vector_val@UCharInfoData@@V?$allocator@UCharInfoData@@@std@@@std@@@1@@Z PROC ; std::_Vector_iterator<std::_Vector_val<CharInfoData,std::allocator<CharInfoData> > >::operator-, COMDAT
; _this$ = ecx

; 380  : 		{	// return difference of iterators

  00000	55		 push	 ebp
  00001	8b ec		 mov	 ebp, esp

; 381  : 		return (*(_Mybase *)this - _Right);

  00003	8b 01		 mov	 eax, DWORD PTR [ecx]
  00005	8b 4d 08	 mov	 ecx, DWORD PTR __Right$[ebp]
  00008	2b 01		 sub	 eax, DWORD PTR [ecx]
  0000a	b9 c0 03 00 00	 mov	 ecx, 960		; 000003c0H
  0000f	99		 cdq
  00010	f7 f9		 idiv	 ecx

; 382  : 		}

  00012	5d		 pop	 ebp
  00013	c2 04 00	 ret	 4
??G?$_Vector_iterator@V?$_Vector_val@UCharInfoData@@V?$allocator@UCharInfoData@@@std@@@std@@@std@@QBEHABV?$_Vector_const_iterator@V?$_Vector_val@UCharInfoData@@V?$allocator@UCharInfoData@@@std@@@std@@@1@@Z ENDP ; std::_Vector_iterator<std::_Vector_val<CharInfoData,std::allocator<CharInfoData> > >::operator-
_TEXT	ENDS
PUBLIC	??$_Unchecked@V?$_Vector_val@UCharInfoData@@V?$allocator@UCharInfoData@@@std@@@std@@@std@@YAPAUCharInfoData@@V?$_Vector_iterator@V?$_Vector_val@UCharInfoData@@V?$allocator@UCharInfoData@@@std@@@std@@@0@@Z ; std::_Unchecked<std::_Vector_val<CharInfoData,std::allocator<CharInfoData> > >
; Function compile flags: /Ogsp
;	COMDAT ??$_Unchecked@V?$_Vector_val@UCharInfoData@@V?$allocator@UCharInfoData@@@std@@@std@@@std@@YAPAUCharInfoData@@V?$_Vector_iterator@V?$_Vector_val@UCharInfoData@@V?$allocator@UCharInfoData@@@std@@@std@@@0@@Z
_TEXT	SEGMENT
__Iter$ = 8						; size = 4
??$_Unchecked@V?$_Vector_val@UCharInfoData@@V?$allocator@UCharInfoData@@@std@@@std@@@std@@YAPAUCharInfoData@@V?$_Vector_iterator@V?$_Vector_val@UCharInfoData@@V?$allocator@UCharInfoData@@@std@@@std@@@0@@Z PROC ; std::_Unchecked<std::_Vector_val<CharInfoData,std::allocator<CharInfoData> > >, COMDAT

; 393  : 	{	// convert to unchecked

  00000	55		 push	 ebp
  00001	8b ec		 mov	 ebp, esp

; 394  : 	return (_Iter._Unchecked());

  00003	8b 45 08	 mov	 eax, DWORD PTR __Iter$[ebp]

; 395  : 	}

  00006	5d		 pop	 ebp
  00007	c3		 ret	 0
??$_Unchecked@V?$_Vector_val@UCharInfoData@@V?$allocator@UCharInfoData@@@std@@@std@@@std@@YAPAUCharInfoData@@V?$_Vector_iterator@V?$_Vector_val@UCharInfoData@@V?$allocator@UCharInfoData@@@std@@@std@@@0@@Z ENDP ; std::_Unchecked<std::_Vector_val<CharInfoData,std::allocator<CharInfoData> > >
_TEXT	ENDS
PUBLIC	??$_Uninitialized_copy@PAHPAHV?$allocator@H@std@@@std@@YAPAHPAH00AAV?$allocator@H@0@@Z ; std::_Uninitialized_copy<int *,int *,std::allocator<int> >
; Function compile flags: /Ogsp
; File c:\program files (x86)\microsoft visual studio 10.0\vc\include\memory
;	COMDAT ??$_Uninitialized_copy@PAHPAHV?$allocator@H@std@@@std@@YAPAHPAH00AAV?$allocator@H@0@@Z
_TEXT	SEGMENT
__Cat$518685 = -4					; size = 1
__First$ = 8						; size = 4
__Last$ = 12						; size = 4
__Dest$ = 16						; size = 4
__Al$ = 20						; size = 4
??$_Uninitialized_copy@PAHPAHV?$allocator@H@std@@@std@@YAPAHPAH00AAV?$allocator@H@0@@Z PROC ; std::_Uninitialized_copy<int *,int *,std::allocator<int> >, COMDAT

; 412  : 	{	// copy [_First, _Last) to raw _Dest, using _Al

  00000	55		 push	 ebp
  00001	8b ec		 mov	 ebp, esp
  00003	51		 push	 ecx

; 413  : 	return (_Uninit_copy(_First, _Last, _Dest, _Al,
; 414  : 		_Ptr_cat(_First, _Dest)));

  00004	ff 75 fc	 push	 DWORD PTR __Cat$518685[ebp]
  00007	ff 75 14	 push	 DWORD PTR __Al$[ebp]
  0000a	ff 75 10	 push	 DWORD PTR __Dest$[ebp]
  0000d	ff 75 0c	 push	 DWORD PTR __Last$[ebp]
  00010	ff 75 08	 push	 DWORD PTR __First$[ebp]
  00013	e8 00 00 00 00	 call	 ??$_Uninit_copy@HH@std@@YAPAHPAH00AAV?$allocator@H@0@U_Scalar_ptr_iterator_tag@0@@Z ; std::_Uninit_copy<int,int>
  00018	83 c4 14	 add	 esp, 20			; 00000014H

; 415  : 	}

  0001b	c9		 leave
  0001c	c3		 ret	 0
??$_Uninitialized_copy@PAHPAHV?$allocator@H@std@@@std@@YAPAHPAH00AAV?$allocator@H@0@@Z ENDP ; std::_Uninitialized_copy<int *,int *,std::allocator<int> >
_TEXT	ENDS
PUBLIC	??$construct@AAH@?$allocator@H@std@@QAEXPAHAAH@Z ; std::allocator<int>::construct<int &>
; Function compile flags: /Ogsp
; File c:\program files (x86)\microsoft visual studio 10.0\vc\include\xmemory
;	COMDAT ??$construct@AAH@?$allocator@H@std@@QAEXPAHAAH@Z
_TEXT	SEGMENT
__Ptr$ = 8						; size = 4
__Val$ = 12						; size = 4
??$construct@AAH@?$allocator@H@std@@QAEXPAHAAH@Z PROC	; std::allocator<int>::construct<int &>, COMDAT
; _this$ = ecx

; 206  : 		void construct(pointer _Ptr, _Other&& _Val)

  00000	55		 push	 ebp
  00001	8b ec		 mov	 ebp, esp

; 207  : 		{	// construct object at _Ptr with value _Val
; 208  : 		::new ((void _FARQ *)_Ptr) _Ty(_STD forward<_Other>(_Val));

  00003	8b 45 08	 mov	 eax, DWORD PTR __Ptr$[ebp]
  00006	85 c0		 test	 eax, eax
  00008	74 07		 je	 SHORT $LN3@construct@4
  0000a	8b 4d 0c	 mov	 ecx, DWORD PTR __Val$[ebp]
  0000d	8b 09		 mov	 ecx, DWORD PTR [ecx]
  0000f	89 08		 mov	 DWORD PTR [eax], ecx
$LN3@construct@4:

; 209  : 		}

  00011	5d		 pop	 ebp
  00012	c2 08 00	 ret	 8
??$construct@AAH@?$allocator@H@std@@QAEXPAHAAH@Z ENDP	; std::allocator<int>::construct<int &>
_TEXT	ENDS
PUBLIC	??$_Uninitialized_move@PAPAVUserInfoNode@@PAPAV1@V?$allocator@PAVUserInfoNode@@@std@@@std@@YAPAPAVUserInfoNode@@PAPAV1@00AAV?$allocator@PAVUserInfoNode@@@0@@Z ; std::_Uninitialized_move<UserInfoNode * *,UserInfoNode * *,std::allocator<UserInfoNode *> >
; Function compile flags: /Ogsp
; File c:\program files (x86)\microsoft visual studio 10.0\vc\include\memory
;	COMDAT ??$_Uninitialized_move@PAPAVUserInfoNode@@PAPAV1@V?$allocator@PAVUserInfoNode@@@std@@@std@@YAPAPAVUserInfoNode@@PAPAV1@00AAV?$allocator@PAVUserInfoNode@@@0@@Z
_TEXT	SEGMENT
__First$ = 8						; size = 4
__Last$ = 12						; size = 4
__Dest$ = 16						; size = 4
__Al$ = 20						; size = 4
??$_Uninitialized_move@PAPAVUserInfoNode@@PAPAV1@V?$allocator@PAVUserInfoNode@@@std@@@std@@YAPAPAVUserInfoNode@@PAPAV1@00AAV?$allocator@PAVUserInfoNode@@@0@@Z PROC ; std::_Uninitialized_move<UserInfoNode * *,UserInfoNode * *,std::allocator<UserInfoNode *> >, COMDAT

; 469  : 	{	// move [_First, _Last) to raw _Dest, using _Al

  00000	55		 push	 ebp
  00001	8b ec		 mov	 ebp, esp
  00003	56		 push	 esi

; 470  : 	return (_Uninit_move(_First, _Last, _Dest, _Al,
; 471  : 		_Val_type(_First), _Ptr_cat(_First, _Dest)));

  00004	8b 75 0c	 mov	 esi, DWORD PTR __Last$[ebp]
  00007	2b 75 08	 sub	 esi, DWORD PTR __First$[ebp]
  0000a	c1 fe 02	 sar	 esi, 2
  0000d	c1 e6 02	 shl	 esi, 2
  00010	56		 push	 esi
  00011	ff 75 08	 push	 DWORD PTR __First$[ebp]
  00014	ff 75 10	 push	 DWORD PTR __Dest$[ebp]
  00017	ff 15 00 00 00
	00		 call	 DWORD PTR __imp__memmove
  0001d	83 c4 0c	 add	 esp, 12			; 0000000cH
  00020	03 c6		 add	 eax, esi
  00022	5e		 pop	 esi

; 472  : 	}

  00023	5d		 pop	 ebp
  00024	c3		 ret	 0
??$_Uninitialized_move@PAPAVUserInfoNode@@PAPAV1@V?$allocator@PAVUserInfoNode@@@std@@@std@@YAPAPAVUserInfoNode@@PAPAV1@00AAV?$allocator@PAVUserInfoNode@@@0@@Z ENDP ; std::_Uninitialized_move<UserInfoNode * *,UserInfoNode * *,std::allocator<UserInfoNode *> >
_TEXT	ENDS
PUBLIC	??$?0AAPAUCharInfoData@@AAPAU0@@?$pair@PAUCharInfoData@@PAU1@@std@@QAE@AAPAUCharInfoData@@0@Z ; std::pair<CharInfoData *,CharInfoData *>::pair<CharInfoData *,CharInfoData *><CharInfoData * &,CharInfoData * &>
; Function compile flags: /Ogsp
; File c:\program files (x86)\microsoft visual studio 10.0\vc\include\utility
;	COMDAT ??$?0AAPAUCharInfoData@@AAPAU0@@?$pair@PAUCharInfoData@@PAU1@@std@@QAE@AAPAUCharInfoData@@0@Z
_TEXT	SEGMENT
__Val1$ = 8						; size = 4
__Val2$ = 12						; size = 4
??$?0AAPAUCharInfoData@@AAPAU0@@?$pair@PAUCharInfoData@@PAU1@@std@@QAE@AAPAUCharInfoData@@0@Z PROC ; std::pair<CharInfoData *,CharInfoData *>::pair<CharInfoData *,CharInfoData *><CharInfoData * &,CharInfoData * &>, COMDAT
; _this$ = ecx

; 247  : 		{	// construct from moved values

  00000	55		 push	 ebp
  00001	8b ec		 mov	 ebp, esp
  00003	8b c1		 mov	 eax, ecx
  00005	8b 4d 08	 mov	 ecx, DWORD PTR __Val1$[ebp]
  00008	8b 09		 mov	 ecx, DWORD PTR [ecx]
  0000a	89 08		 mov	 DWORD PTR [eax], ecx
  0000c	8b 4d 0c	 mov	 ecx, DWORD PTR __Val2$[ebp]
  0000f	8b 09		 mov	 ecx, DWORD PTR [ecx]
  00011	89 48 04	 mov	 DWORD PTR [eax+4], ecx

; 248  : 		}

  00014	5d		 pop	 ebp
  00015	c2 08 00	 ret	 8
??$?0AAPAUCharInfoData@@AAPAU0@@?$pair@PAUCharInfoData@@PAU1@@std@@QAE@AAPAUCharInfoData@@0@Z ENDP ; std::pair<CharInfoData *,CharInfoData *>::pair<CharInfoData *,CharInfoData *><CharInfoData * &,CharInfoData * &>
_TEXT	ENDS
PUBLIC	?destroy@?$allocator@H@std@@QAEXPAH@Z		; std::allocator<int>::destroy
; Function compile flags: /Ogsp
; File c:\program files (x86)\microsoft visual studio 10.0\vc\include\xmemory
;	COMDAT ?destroy@?$allocator@H@std@@QAEXPAH@Z
_TEXT	SEGMENT
__Ptr$ = 8						; size = 4
?destroy@?$allocator@H@std@@QAEXPAH@Z PROC		; std::allocator<int>::destroy, COMDAT
; _this$ = ecx

; 213  : 		_Destroy(_Ptr);
; 214  : 		}

  00000	c2 04 00	 ret	 4
?destroy@?$allocator@H@std@@QAEXPAH@Z ENDP		; std::allocator<int>::destroy
_TEXT	ENDS
PUBLIC	??0ITEM_DATA@@QAE@XZ				; ITEM_DATA::ITEM_DATA
; Function compile flags: /Ogsp
; File d:\lost saga for developer\youtube\tutorial\source\src\lsclient\characterinfo.h
;	COMDAT ??0ITEM_DATA@@QAE@XZ
_TEXT	SEGMENT
??0ITEM_DATA@@QAE@XZ PROC				; ITEM_DATA::ITEM_DATA, COMDAT
; _this$ = ecx

; 228  : 	ITEM_DATA()

  00000	8b c1		 mov	 eax, ecx

; 229  : 	{
; 230  : 		Initialize();

  00002	83 48 08 ff	 or	 DWORD PTR [eax+8], -1
  00006	33 c9		 xor	 ecx, ecx
  00008	89 08		 mov	 DWORD PTR [eax], ecx
  0000a	89 48 04	 mov	 DWORD PTR [eax+4], ecx
  0000d	89 48 10	 mov	 DWORD PTR [eax+16], ecx
  00010	89 48 0c	 mov	 DWORD PTR [eax+12], ecx

; 231  : 	}

  00013	c3		 ret	 0
??0ITEM_DATA@@QAE@XZ ENDP				; ITEM_DATA::ITEM_DATA
_TEXT	ENDS
PUBLIC	??1CHARACTER@@QAE@XZ				; CHARACTER::~CHARACTER
EXTRN	??_M@YGXPAXIHP6EX0@Z@Z:PROC			; `eh vector destructor iterator'
EXTRN	__EH_epilog3:PROC
EXTRN	__EH_prolog3:PROC
;	COMDAT xdata$x
xdata$x	SEGMENT
__ehfuncinfo$??1CHARACTER@@QAE@XZ DD 019930522H
	DD	0aH
	DD	FLAT:__unwindtable$??1CHARACTER@@QAE@XZ
	DD	2 DUP(00H)
	DD	2 DUP(00H)
	DD	00H
	DD	01H
__unwindtable$??1CHARACTER@@QAE@XZ DD 0ffffffffH
	DD	FLAT:__unwindfunclet$??1CHARACTER@@QAE@XZ$0
	DD	00H
	DD	FLAT:__unwindfunclet$??1CHARACTER@@QAE@XZ$1
	DD	01H
	DD	FLAT:__unwindfunclet$??1CHARACTER@@QAE@XZ$2
	DD	02H
	DD	FLAT:__unwindfunclet$??1CHARACTER@@QAE@XZ$3
	DD	03H
	DD	FLAT:__unwindfunclet$??1CHARACTER@@QAE@XZ$4
	DD	04H
	DD	FLAT:__unwindfunclet$??1CHARACTER@@QAE@XZ$5
	DD	05H
	DD	FLAT:__unwindfunclet$??1CHARACTER@@QAE@XZ$6
	DD	06H
	DD	FLAT:__unwindfunclet$??1CHARACTER@@QAE@XZ$7
	DD	07H
	DD	FLAT:__unwindfunclet$??1CHARACTER@@QAE@XZ$8
	DD	08H
	DD	FLAT:__unwindfunclet$??1CHARACTER@@QAE@XZ$9
; Function compile flags: /Ogsp
xdata$x	ENDS
;	COMDAT ??1CHARACTER@@QAE@XZ
_TEXT	SEGMENT
_this$ = -16						; size = 4
__$EHRec$ = -12						; size = 12
??1CHARACTER@@QAE@XZ PROC				; CHARACTER::~CHARACTER, COMDAT
; _this$ = ecx
  00000	6a 04		 push	 4
  00002	b8 00 00 00 00	 mov	 eax, __ehhandler$??1CHARACTER@@QAE@XZ
  00007	e8 00 00 00 00	 call	 __EH_prolog3
  0000c	8b f1		 mov	 esi, ecx
  0000e	89 75 f0	 mov	 DWORD PTR _this$[ebp], esi
  00011	68 00 00 00 00	 push	 OFFSET ??1?$CEncrypt@H@@UAE@XZ ; CEncrypt<int>::~CEncrypt<int>
  00016	6a 04		 push	 4
  00018	6a 30		 push	 48			; 00000030H
  0001a	8d 86 e0 01 00
	00		 lea	 eax, DWORD PTR [esi+480]
  00020	50		 push	 eax
  00021	c7 45 fc 09 00
	00 00		 mov	 DWORD PTR __$EHRec$[ebp+8], 9
  00028	e8 00 00 00 00	 call	 ??_M@YGXPAXIHP6EX0@Z@Z
  0002d	bf 00 00 00 00	 mov	 edi, OFFSET ??_7?$CEncrypt@H@@6B@
  00032	8d 8e bc 01 00
	00		 lea	 ecx, DWORD PTR [esi+444]
  00038	c6 45 fc 08	 mov	 BYTE PTR __$EHRec$[ebp+8], 8
  0003c	89 be b0 01 00
	00		 mov	 DWORD PTR [esi+432], edi
  00042	e8 00 00 00 00	 call	 ??1ccddaabb@@UAE@XZ	; ccddaabb::~ccddaabb
  00047	8d 8e 8c 01 00
	00		 lea	 ecx, DWORD PTR [esi+396]
  0004d	c6 45 fc 07	 mov	 BYTE PTR __$EHRec$[ebp+8], 7
  00051	89 be 80 01 00
	00		 mov	 DWORD PTR [esi+384], edi
  00057	e8 00 00 00 00	 call	 ??1ccddaabb@@UAE@XZ	; ccddaabb::~ccddaabb
  0005c	8d 8e 5c 01 00
	00		 lea	 ecx, DWORD PTR [esi+348]
  00062	c6 45 fc 06	 mov	 BYTE PTR __$EHRec$[ebp+8], 6
  00066	89 be 50 01 00
	00		 mov	 DWORD PTR [esi+336], edi
  0006c	e8 00 00 00 00	 call	 ??1ccddaabb@@UAE@XZ	; ccddaabb::~ccddaabb
  00071	8d 8e 2c 01 00
	00		 lea	 ecx, DWORD PTR [esi+300]
  00077	c6 45 fc 05	 mov	 BYTE PTR __$EHRec$[ebp+8], 5
  0007b	89 be 20 01 00
	00		 mov	 DWORD PTR [esi+288], edi
  00081	e8 00 00 00 00	 call	 ??1ccddaabb@@UAE@XZ	; ccddaabb::~ccddaabb
  00086	8d 8e fc 00 00
	00		 lea	 ecx, DWORD PTR [esi+252]
  0008c	c6 45 fc 04	 mov	 BYTE PTR __$EHRec$[ebp+8], 4
  00090	89 be f0 00 00
	00		 mov	 DWORD PTR [esi+240], edi
  00096	e8 00 00 00 00	 call	 ??1ccddaabb@@UAE@XZ	; ccddaabb::~ccddaabb
  0009b	8d 8e cc 00 00
	00		 lea	 ecx, DWORD PTR [esi+204]
  000a1	c6 45 fc 03	 mov	 BYTE PTR __$EHRec$[ebp+8], 3
  000a5	89 be c0 00 00
	00		 mov	 DWORD PTR [esi+192], edi
  000ab	e8 00 00 00 00	 call	 ??1ccddaabb@@UAE@XZ	; ccddaabb::~ccddaabb
  000b0	8d 8e 9c 00 00
	00		 lea	 ecx, DWORD PTR [esi+156]
  000b6	c6 45 fc 02	 mov	 BYTE PTR __$EHRec$[ebp+8], 2
  000ba	89 be 90 00 00
	00		 mov	 DWORD PTR [esi+144], edi
  000c0	e8 00 00 00 00	 call	 ??1ccddaabb@@UAE@XZ	; ccddaabb::~ccddaabb
  000c5	8d 4e 6c	 lea	 ecx, DWORD PTR [esi+108]
  000c8	c6 45 fc 01	 mov	 BYTE PTR __$EHRec$[ebp+8], 1
  000cc	89 7e 60	 mov	 DWORD PTR [esi+96], edi
  000cf	e8 00 00 00 00	 call	 ??1ccddaabb@@UAE@XZ	; ccddaabb::~ccddaabb
  000d4	8d 4e 3c	 lea	 ecx, DWORD PTR [esi+60]
  000d7	c6 45 fc 00	 mov	 BYTE PTR __$EHRec$[ebp+8], 0
  000db	89 7e 30	 mov	 DWORD PTR [esi+48], edi
  000de	e8 00 00 00 00	 call	 ??1ccddaabb@@UAE@XZ	; ccddaabb::~ccddaabb
  000e3	83 4d fc ff	 or	 DWORD PTR __$EHRec$[ebp+8], -1
  000e7	8d 4e 0c	 lea	 ecx, DWORD PTR [esi+12]
  000ea	89 3e		 mov	 DWORD PTR [esi], edi
  000ec	e8 00 00 00 00	 call	 ??1ccddaabb@@UAE@XZ	; ccddaabb::~ccddaabb
  000f1	e8 00 00 00 00	 call	 __EH_epilog3
  000f6	c3		 ret	 0
_TEXT	ENDS
;	COMDAT text$x
text$x	SEGMENT
__unwindfunclet$??1CHARACTER@@QAE@XZ$0:
  00000	8b 4d f0	 mov	 ecx, DWORD PTR _this$[ebp]
  00003	e9 00 00 00 00	 jmp	 ??1?$CEncrypt@H@@UAE@XZ	; CEncrypt<int>::~CEncrypt<int>
__unwindfunclet$??1CHARACTER@@QAE@XZ$1:
  00008	8b 4d f0	 mov	 ecx, DWORD PTR _this$[ebp]
  0000b	83 c1 30	 add	 ecx, 48			; 00000030H
  0000e	e9 00 00 00 00	 jmp	 ??1?$CEncrypt@H@@UAE@XZ	; CEncrypt<int>::~CEncrypt<int>
__unwindfunclet$??1CHARACTER@@QAE@XZ$2:
  00013	8b 4d f0	 mov	 ecx, DWORD PTR _this$[ebp]
  00016	83 c1 60	 add	 ecx, 96			; 00000060H
  00019	e9 00 00 00 00	 jmp	 ??1?$CEncrypt@H@@UAE@XZ	; CEncrypt<int>::~CEncrypt<int>
__unwindfunclet$??1CHARACTER@@QAE@XZ$3:
  0001e	8b 4d f0	 mov	 ecx, DWORD PTR _this$[ebp]
  00021	81 c1 90 00 00
	00		 add	 ecx, 144		; 00000090H
  00027	e9 00 00 00 00	 jmp	 ??1?$CEncrypt@H@@UAE@XZ	; CEncrypt<int>::~CEncrypt<int>
__unwindfunclet$??1CHARACTER@@QAE@XZ$4:
  0002c	8b 4d f0	 mov	 ecx, DWORD PTR _this$[ebp]
  0002f	81 c1 c0 00 00
	00		 add	 ecx, 192		; 000000c0H
  00035	e9 00 00 00 00	 jmp	 ??1?$CEncrypt@H@@UAE@XZ	; CEncrypt<int>::~CEncrypt<int>
__unwindfunclet$??1CHARACTER@@QAE@XZ$5:
  0003a	8b 4d f0	 mov	 ecx, DWORD PTR _this$[ebp]
  0003d	81 c1 f0 00 00
	00		 add	 ecx, 240		; 000000f0H
  00043	e9 00 00 00 00	 jmp	 ??1?$CEncrypt@H@@UAE@XZ	; CEncrypt<int>::~CEncrypt<int>
__unwindfunclet$??1CHARACTER@@QAE@XZ$6:
  00048	8b 4d f0	 mov	 ecx, DWORD PTR _this$[ebp]
  0004b	81 c1 20 01 00
	00		 add	 ecx, 288		; 00000120H
  00051	e9 00 00 00 00	 jmp	 ??1?$CEncrypt@H@@UAE@XZ	; CEncrypt<int>::~CEncrypt<int>
__unwindfunclet$??1CHARACTER@@QAE@XZ$7:
  00056	8b 4d f0	 mov	 ecx, DWORD PTR _this$[ebp]
  00059	81 c1 50 01 00
	00		 add	 ecx, 336		; 00000150H
  0005f	e9 00 00 00 00	 jmp	 ??1?$CEncrypt@H@@UAE@XZ	; CEncrypt<int>::~CEncrypt<int>
__unwindfunclet$??1CHARACTER@@QAE@XZ$8:
  00064	8b 4d f0	 mov	 ecx, DWORD PTR _this$[ebp]
  00067	81 c1 80 01 00
	00		 add	 ecx, 384		; 00000180H
  0006d	e9 00 00 00 00	 jmp	 ??1?$CEncrypt@H@@UAE@XZ	; CEncrypt<int>::~CEncrypt<int>
__unwindfunclet$??1CHARACTER@@QAE@XZ$9:
  00072	8b 4d f0	 mov	 ecx, DWORD PTR _this$[ebp]
  00075	81 c1 b0 01 00
	00		 add	 ecx, 432		; 000001b0H
  0007b	e9 00 00 00 00	 jmp	 ??1?$CEncrypt@H@@UAE@XZ	; CEncrypt<int>::~CEncrypt<int>
__ehhandler$??1CHARACTER@@QAE@XZ:
  00080	8b 54 24 08	 mov	 edx, DWORD PTR [esp+8]
  00084	8d 42 0c	 lea	 eax, DWORD PTR [edx+12]
  00087	8b 4a ec	 mov	 ecx, DWORD PTR [edx-20]
  0008a	33 c8		 xor	 ecx, eax
  0008c	e8 00 00 00 00	 call	 @__security_check_cookie@4
  00091	b8 00 00 00 00	 mov	 eax, OFFSET __ehfuncinfo$??1CHARACTER@@QAE@XZ
  00096	e9 00 00 00 00	 jmp	 ___CxxFrameHandler3
text$x	ENDS
??1CHARACTER@@QAE@XZ ENDP				; CHARACTER::~CHARACTER
PUBLIC	?begin@?$vector@HV?$allocator@H@std@@@std@@QAE?AV?$_Vector_iterator@V?$_Vector_val@HV?$allocator@H@std@@@std@@@2@XZ ; std::vector<int,std::allocator<int> >::begin
; Function compile flags: /Ogsp
; File c:\program files (x86)\microsoft visual studio 10.0\vc\include\vector
;	COMDAT ?begin@?$vector@HV?$allocator@H@std@@@std@@QAE?AV?$_Vector_iterator@V?$_Vector_val@HV?$allocator@H@std@@@std@@@2@XZ
_TEXT	SEGMENT
___$ReturnUdt$ = 8					; size = 4
?begin@?$vector@HV?$allocator@H@std@@@std@@QAE?AV?$_Vector_iterator@V?$_Vector_val@HV?$allocator@H@std@@@std@@@2@XZ PROC ; std::vector<int,std::allocator<int> >::begin, COMDAT
; _this$ = ecx

; 781  : 		{	// return iterator for beginning of mutable sequence

  00000	55		 push	 ebp
  00001	8b ec		 mov	 ebp, esp

; 782  : 		return (iterator(this->_Myfirst, this));

  00003	8b 09		 mov	 ecx, DWORD PTR [ecx]
  00005	8b 45 08	 mov	 eax, DWORD PTR ___$ReturnUdt$[ebp]
  00008	89 08		 mov	 DWORD PTR [eax], ecx

; 783  : 		}

  0000a	5d		 pop	 ebp
  0000b	c2 04 00	 ret	 4
?begin@?$vector@HV?$allocator@H@std@@@std@@QAE?AV?$_Vector_iterator@V?$_Vector_val@HV?$allocator@H@std@@@std@@@2@XZ ENDP ; std::vector<int,std::allocator<int> >::begin
_TEXT	ENDS
PUBLIC	?begin@?$vector@HV?$allocator@H@std@@@std@@QBE?AV?$_Vector_const_iterator@V?$_Vector_val@HV?$allocator@H@std@@@std@@@2@XZ ; std::vector<int,std::allocator<int> >::begin
; Function compile flags: /Ogsp
;	COMDAT ?begin@?$vector@HV?$allocator@H@std@@@std@@QBE?AV?$_Vector_const_iterator@V?$_Vector_val@HV?$allocator@H@std@@@std@@@2@XZ
_TEXT	SEGMENT
___$ReturnUdt$ = 8					; size = 4
?begin@?$vector@HV?$allocator@H@std@@@std@@QBE?AV?$_Vector_const_iterator@V?$_Vector_val@HV?$allocator@H@std@@@std@@@2@XZ PROC ; std::vector<int,std::allocator<int> >::begin, COMDAT
; _this$ = ecx

; 786  : 		{	// return iterator for beginning of nonmutable sequence

  00000	55		 push	 ebp
  00001	8b ec		 mov	 ebp, esp

; 787  : 		return (const_iterator(this->_Myfirst, this));

  00003	8b 09		 mov	 ecx, DWORD PTR [ecx]
  00005	8b 45 08	 mov	 eax, DWORD PTR ___$ReturnUdt$[ebp]
  00008	89 08		 mov	 DWORD PTR [eax], ecx

; 788  : 		}

  0000a	5d		 pop	 ebp
  0000b	c2 04 00	 ret	 4
?begin@?$vector@HV?$allocator@H@std@@@std@@QBE?AV?$_Vector_const_iterator@V?$_Vector_val@HV?$allocator@H@std@@@std@@@2@XZ ENDP ; std::vector<int,std::allocator<int> >::begin
_TEXT	ENDS
PUBLIC	?end@?$vector@HV?$allocator@H@std@@@std@@QBE?AV?$_Vector_const_iterator@V?$_Vector_val@HV?$allocator@H@std@@@std@@@2@XZ ; std::vector<int,std::allocator<int> >::end
; Function compile flags: /Ogsp
;	COMDAT ?end@?$vector@HV?$allocator@H@std@@@std@@QBE?AV?$_Vector_const_iterator@V?$_Vector_val@HV?$allocator@H@std@@@std@@@2@XZ
_TEXT	SEGMENT
___$ReturnUdt$ = 8					; size = 4
?end@?$vector@HV?$allocator@H@std@@@std@@QBE?AV?$_Vector_const_iterator@V?$_Vector_val@HV?$allocator@H@std@@@std@@@2@XZ PROC ; std::vector<int,std::allocator<int> >::end, COMDAT
; _this$ = ecx

; 796  : 		{	// return iterator for end of nonmutable sequence

  00000	55		 push	 ebp
  00001	8b ec		 mov	 ebp, esp

; 797  : 		return (const_iterator(this->_Mylast, this));

  00003	8b 49 04	 mov	 ecx, DWORD PTR [ecx+4]
  00006	8b 45 08	 mov	 eax, DWORD PTR ___$ReturnUdt$[ebp]
  00009	89 08		 mov	 DWORD PTR [eax], ecx

; 798  : 		}

  0000b	5d		 pop	 ebp
  0000c	c2 04 00	 ret	 4
?end@?$vector@HV?$allocator@H@std@@@std@@QBE?AV?$_Vector_const_iterator@V?$_Vector_val@HV?$allocator@H@std@@@std@@@2@XZ ENDP ; std::vector<int,std::allocator<int> >::end
_TEXT	ENDS
PUBLIC	??0?$CEncrypt@H@@QAE@XZ				; CEncrypt<int>::CEncrypt<int>
EXTRN	??0ccddaabb@@QAE@XZ:PROC			; ccddaabb::ccddaabb
;	COMDAT xdata$x
; File d:\lost saga for developer\youtube\tutorial\source\src\lsclient\encryptvalue.h
xdata$x	SEGMENT
__unwindtable$??0?$CEncrypt@H@@QAE@XZ DD 0ffffffffH
	DD	FLAT:__unwindfunclet$??0?$CEncrypt@H@@QAE@XZ$0
__ehfuncinfo$??0?$CEncrypt@H@@QAE@XZ DD 019930522H
	DD	01H
	DD	FLAT:__unwindtable$??0?$CEncrypt@H@@QAE@XZ
	DD	2 DUP(00H)
	DD	2 DUP(00H)
	DD	00H
	DD	01H
; Function compile flags: /Ogsp
xdata$x	ENDS
;	COMDAT ??0?$CEncrypt@H@@QAE@XZ
_TEXT	SEGMENT
_this$ = -16						; size = 4
__$EHRec$ = -12						; size = 12
??0?$CEncrypt@H@@QAE@XZ PROC				; CEncrypt<int>::CEncrypt<int>, COMDAT
; _this$ = ecx

; 109  : 	CEncrypt()

  00000	6a 04		 push	 4
  00002	b8 00 00 00 00	 mov	 eax, __ehhandler$??0?$CEncrypt@H@@QAE@XZ
  00007	e8 00 00 00 00	 call	 __EH_prolog3
  0000c	8b f1		 mov	 esi, ecx
  0000e	89 75 f0	 mov	 DWORD PTR _this$[ebp], esi
  00011	8d 4e 0c	 lea	 ecx, DWORD PTR [esi+12]
  00014	c7 06 00 00 00
	00		 mov	 DWORD PTR [esi], OFFSET ??_7?$CEncrypt@H@@6B@
  0001a	e8 00 00 00 00	 call	 ??0ccddaabb@@QAE@XZ	; ccddaabb::ccddaabb
  0001f	83 65 fc 00	 and	 DWORD PTR __$EHRec$[ebp+8], 0

; 110  : 	{
; 111  : 		Init();

  00023	8b ce		 mov	 ecx, esi
  00025	e8 00 00 00 00	 call	 ?Init@?$CEncrypt@H@@AAEXXZ ; CEncrypt<int>::Init

; 112  : 	}

  0002a	8b c6		 mov	 eax, esi
  0002c	e8 00 00 00 00	 call	 __EH_epilog3
  00031	c3		 ret	 0
_TEXT	ENDS
;	COMDAT text$x
text$x	SEGMENT
__unwindfunclet$??0?$CEncrypt@H@@QAE@XZ$0:
  00000	8b 4d f0	 mov	 ecx, DWORD PTR _this$[ebp]
  00003	83 c1 0c	 add	 ecx, 12			; 0000000cH
  00006	e9 00 00 00 00	 jmp	 ??1ccddaabb@@UAE@XZ	; ccddaabb::~ccddaabb
__ehhandler$??0?$CEncrypt@H@@QAE@XZ:
  0000b	8b 54 24 08	 mov	 edx, DWORD PTR [esp+8]
  0000f	8d 42 0c	 lea	 eax, DWORD PTR [edx+12]
  00012	8b 4a ec	 mov	 ecx, DWORD PTR [edx-20]
  00015	33 c8		 xor	 ecx, eax
  00017	e8 00 00 00 00	 call	 @__security_check_cookie@4
  0001c	b8 00 00 00 00	 mov	 eax, OFFSET __ehfuncinfo$??0?$CEncrypt@H@@QAE@XZ
  00021	e9 00 00 00 00	 jmp	 ___CxxFrameHandler3
text$x	ENDS
??0?$CEncrypt@H@@QAE@XZ ENDP				; CEncrypt<int>::CEncrypt<int>
PUBLIC	??B?$CEncrypt@H@@QAEHXZ				; CEncrypt<int>::operator int
; Function compile flags: /Ogsp
;	COMDAT ??B?$CEncrypt@H@@QAEHXZ
_TEXT	SEGMENT
_value$ = -4						; size = 4
??B?$CEncrypt@H@@QAEHXZ PROC				; CEncrypt<int>::operator int, COMDAT
; _this$ = ecx

; 134  : 	{

  00000	55		 push	 ebp
  00001	8b ec		 mov	 ebp, esp
  00003	51		 push	 ecx

; 135  : 		type value;
; 136  : 		DecryptValueToPool(&value);

  00004	8d 45 fc	 lea	 eax, DWORD PTR _value$[ebp]
  00007	50		 push	 eax
  00008	e8 00 00 00 00	 call	 ?DecryptValueToPool@?$CEncrypt@H@@QAEXPAH@Z ; CEncrypt<int>::DecryptValueToPool

; 137  : 
; 138  : #ifdef _NOTUSE
; 139  : 		Debug();
; 140  : #endif
; 141  : 		return value;

  0000d	8b 45 fc	 mov	 eax, DWORD PTR _value$[ebp]

; 142  : 	}

  00010	c9		 leave
  00011	c3		 ret	 0
??B?$CEncrypt@H@@QAEHXZ ENDP				; CEncrypt<int>::operator int
_TEXT	ENDS
PUBLIC	??B?$CEncrypt@H@@QBEHXZ				; CEncrypt<int>::operator int
; Function compile flags: /Ogsp
;	COMDAT ??B?$CEncrypt@H@@QBEHXZ
_TEXT	SEGMENT
_value$ = -4						; size = 4
??B?$CEncrypt@H@@QBEHXZ PROC				; CEncrypt<int>::operator int, COMDAT
; _this$ = ecx

; 145  : 	{

  00000	55		 push	 ebp
  00001	8b ec		 mov	 ebp, esp
  00003	51		 push	 ecx

; 146  : 		//UJ 130829, const도 똑같이 하면 된다 --start
; 147  : 		type value;
; 148  : 		CEncrypt<type>* pThis = const_cast<CEncrypt<type>*>(this);
; 149  : 		pThis->DecryptValueToPool(&value);

  00004	8d 45 fc	 lea	 eax, DWORD PTR _value$[ebp]
  00007	50		 push	 eax
  00008	e8 00 00 00 00	 call	 ?DecryptValueToPool@?$CEncrypt@H@@QAEXPAH@Z ; CEncrypt<int>::DecryptValueToPool

; 150  : 		//// const에서 DecryptValueToPool 사용할 수 없으므로 아래와 같이함.
; 151  :  		//type value;
; 152  : 		//char szTempMem[MAX_ENCRYPT];
; 153  : 		//m_RC5.DecryptByte( m_MemPool, szTempMem, max(m_ValueSize, DEFAULT_ENCRYPT) );
; 154  : 		//memcpy( &value, szTempMem, m_ValueSize );
; 155  : 		//UJ --end
; 156  : 
; 157  : #ifdef _NOTUSE
; 158  : 		Debug();
; 159  : #endif
; 160  : 		return value;

  0000d	8b 45 fc	 mov	 eax, DWORD PTR _value$[ebp]

; 161  : 	}

  00010	c9		 leave
  00011	c3		 ret	 0
??B?$CEncrypt@H@@QBEHXZ ENDP				; CEncrypt<int>::operator int
_TEXT	ENDS
PUBLIC	??4?$CEncrypt@H@@QAEHH@Z			; CEncrypt<int>::operator=
; Function compile flags: /Ogsp
;	COMDAT ??4?$CEncrypt@H@@QAEHH@Z
_TEXT	SEGMENT
_value$ = 8						; size = 4
_inValue$ = 8						; size = 4
??4?$CEncrypt@H@@QAEHH@Z PROC				; CEncrypt<int>::operator=, COMDAT
; _this$ = ecx

; 843  : 	{

  00000	55		 push	 ebp
  00001	8b ec		 mov	 ebp, esp

; 844  : 		type value = inValue;

  00003	8b 45 08	 mov	 eax, DWORD PTR _inValue$[ebp]
  00006	89 45 08	 mov	 DWORD PTR _value$[ebp], eax

; 845  : 		EncryptValueToPool((char*)&value);

  00009	8d 45 08	 lea	 eax, DWORD PTR _value$[ebp]
  0000c	50		 push	 eax
  0000d	e8 00 00 00 00	 call	 ?EncryptValueToPool@?$CEncrypt@H@@AAEXPBD@Z ; CEncrypt<int>::EncryptValueToPool

; 846  : #ifdef _NOTUSE
; 847  : 		m_value = inValue;
; 848  : 		Debug();
; 849  : #endif
; 850  : 		return value;

  00012	8b 45 08	 mov	 eax, DWORD PTR _value$[ebp]

; 851  : 	}

  00015	5d		 pop	 ebp
  00016	c2 04 00	 ret	 4
??4?$CEncrypt@H@@QAEHH@Z ENDP				; CEncrypt<int>::operator=
_TEXT	ENDS
PUBLIC	?end@?$vector@HV?$allocator@H@std@@@std@@QAE?AV?$_Vector_iterator@V?$_Vector_val@HV?$allocator@H@std@@@std@@@2@XZ ; std::vector<int,std::allocator<int> >::end
; Function compile flags: /Ogsp
; File c:\program files (x86)\microsoft visual studio 10.0\vc\include\vector
;	COMDAT ?end@?$vector@HV?$allocator@H@std@@@std@@QAE?AV?$_Vector_iterator@V?$_Vector_val@HV?$allocator@H@std@@@std@@@2@XZ
_TEXT	SEGMENT
___$ReturnUdt$ = 8					; size = 4
?end@?$vector@HV?$allocator@H@std@@@std@@QAE?AV?$_Vector_iterator@V?$_Vector_val@HV?$allocator@H@std@@@std@@@2@XZ PROC ; std::vector<int,std::allocator<int> >::end, COMDAT
; _this$ = ecx

; 791  : 		{	// return iterator for end of mutable sequence

  00000	55		 push	 ebp
  00001	8b ec		 mov	 ebp, esp

; 792  : 		return (iterator(this->_Mylast, this));

  00003	8b 49 04	 mov	 ecx, DWORD PTR [ecx+4]
  00006	8b 45 08	 mov	 eax, DWORD PTR ___$ReturnUdt$[ebp]
  00009	89 08		 mov	 DWORD PTR [eax], ecx

; 793  : 		}

  0000b	5d		 pop	 ebp
  0000c	c2 04 00	 ret	 4
?end@?$vector@HV?$allocator@H@std@@@std@@QAE?AV?$_Vector_iterator@V?$_Vector_val@HV?$allocator@H@std@@@std@@@2@XZ ENDP ; std::vector<int,std::allocator<int> >::end
_TEXT	ENDS
PUBLIC	??0?$_Vector_val@HV?$allocator@H@std@@@std@@QAE@V?$allocator@H@1@@Z ; std::_Vector_val<int,std::allocator<int> >::_Vector_val<int,std::allocator<int> >
; Function compile flags: /Ogsp
;	COMDAT ??0?$_Vector_val@HV?$allocator@H@std@@@std@@QAE@V?$allocator@H@1@@Z
_TEXT	SEGMENT
__Al$ = 8						; size = 1
??0?$_Vector_val@HV?$allocator@H@std@@@std@@QAE@V?$allocator@H@1@@Z PROC ; std::_Vector_val<int,std::allocator<int> >::_Vector_val<int,std::allocator<int> >, COMDAT
; _this$ = ecx

; 426  : 		{	// construct allocator from _Al

  00000	8b c1		 mov	 eax, ecx

; 427  : 		_Myfirst = 0;

  00002	33 c9		 xor	 ecx, ecx
  00004	89 08		 mov	 DWORD PTR [eax], ecx

; 428  : 		_Mylast = 0;

  00006	89 48 04	 mov	 DWORD PTR [eax+4], ecx

; 429  : 		_Myend = 0;

  00009	89 48 08	 mov	 DWORD PTR [eax+8], ecx

; 430  : 		}

  0000c	c2 04 00	 ret	 4
??0?$_Vector_val@HV?$allocator@H@std@@@std@@QAE@V?$allocator@H@1@@Z ENDP ; std::_Vector_val<int,std::allocator<int> >::_Vector_val<int,std::allocator<int> >
_TEXT	ENDS
PUBLIC	?max_size@?$vector@HV?$allocator@H@std@@@std@@QBEIXZ ; std::vector<int,std::allocator<int> >::max_size
; Function compile flags: /Ogsp
;	COMDAT ?max_size@?$vector@HV?$allocator@H@std@@@std@@QBEIXZ
_TEXT	SEGMENT
?max_size@?$vector@HV?$allocator@H@std@@@std@@QBEIXZ PROC ; std::vector<int,std::allocator<int> >::max_size, COMDAT
; _this$ = ecx

; 884  : 		return (this->_Alval.max_size());

  00000	b8 ff ff ff 3f	 mov	 eax, 1073741823		; 3fffffffH

; 885  : 		}

  00005	c3		 ret	 0
?max_size@?$vector@HV?$allocator@H@std@@@std@@QBEIXZ ENDP ; std::vector<int,std::allocator<int> >::max_size
_TEXT	ENDS
PUBLIC	?_Grow_to@?$vector@HV?$allocator@H@std@@@std@@IBEII@Z ; std::vector<int,std::allocator<int> >::_Grow_to
; Function compile flags: /Ogsp
;	COMDAT ?_Grow_to@?$vector@HV?$allocator@H@std@@@std@@IBEII@Z
_TEXT	SEGMENT
__Count$ = 8						; size = 4
?_Grow_to@?$vector@HV?$allocator@H@std@@@std@@IBEII@Z PROC ; std::vector<int,std::allocator<int> >::_Grow_to, COMDAT
; _this$ = ecx

; 1274 : 		{	// grow by 50% or at least to _Count

  00000	55		 push	 ebp
  00001	8b ec		 mov	 ebp, esp

; 1275 : 		size_type _Capacity = capacity();

  00003	8b 41 08	 mov	 eax, DWORD PTR [ecx+8]
  00006	2b 01		 sub	 eax, DWORD PTR [ecx]

; 1276 : 
; 1277 : 		_Capacity = max_size() - _Capacity / 2 < _Capacity
; 1278 : 			? 0 : _Capacity + _Capacity / 2;	// try to grow by 50%

  00008	ba ff ff ff 3f	 mov	 edx, 1073741823		; 3fffffffH
  0000d	c1 f8 02	 sar	 eax, 2
  00010	8b c8		 mov	 ecx, eax
  00012	d1 e9		 shr	 ecx, 1
  00014	2b d1		 sub	 edx, ecx
  00016	3b d0		 cmp	 edx, eax
  00018	73 04		 jae	 SHORT $LN4@Grow_to@3
  0001a	33 c0		 xor	 eax, eax
  0001c	eb 02		 jmp	 SHORT $LN5@Grow_to@3
$LN4@Grow_to@3:
  0001e	03 c1		 add	 eax, ecx
$LN5@Grow_to@3:

; 1279 : 		if (_Capacity < _Count)

  00020	3b 45 08	 cmp	 eax, DWORD PTR __Count$[ebp]

; 1280 : 			_Capacity = _Count;

  00023	0f 42 45 08	 cmovb	 eax, DWORD PTR __Count$[ebp]

; 1281 : 		return (_Capacity);
; 1282 : 		}

  00027	5d		 pop	 ebp
  00028	c2 04 00	 ret	 4
?_Grow_to@?$vector@HV?$allocator@H@std@@@std@@IBEII@Z ENDP ; std::vector<int,std::allocator<int> >::_Grow_to
_TEXT	ENDS
PUBLIC	??Y?$_Vector_iterator@V?$_Vector_val@HV?$allocator@H@std@@@std@@@std@@QAEAAV01@H@Z ; std::_Vector_iterator<std::_Vector_val<int,std::allocator<int> > >::operator+=
; Function compile flags: /Ogsp
;	COMDAT ??Y?$_Vector_iterator@V?$_Vector_val@HV?$allocator@H@std@@@std@@@std@@QAEAAV01@H@Z
_TEXT	SEGMENT
__Off$ = 8						; size = 4
??Y?$_Vector_iterator@V?$_Vector_val@HV?$allocator@H@std@@@std@@@std@@QAEAAV01@H@Z PROC ; std::_Vector_iterator<std::_Vector_val<int,std::allocator<int> > >::operator+=, COMDAT
; _this$ = ecx

; 357  : 		{	// increment by integer

  00000	55		 push	 ebp
  00001	8b ec		 mov	 ebp, esp
  00003	8b c1		 mov	 eax, ecx

; 358  : 		*(_Mybase *)this += _Off;

  00005	8b 4d 08	 mov	 ecx, DWORD PTR __Off$[ebp]
  00008	c1 e1 02	 shl	 ecx, 2
  0000b	01 08		 add	 DWORD PTR [eax], ecx

; 359  : 		return (*this);
; 360  : 		}

  0000d	5d		 pop	 ebp
  0000e	c2 04 00	 ret	 4
??Y?$_Vector_iterator@V?$_Vector_val@HV?$allocator@H@std@@@std@@@std@@QAEAAV01@H@Z ENDP ; std::_Vector_iterator<std::_Vector_val<int,std::allocator<int> > >::operator+=
_TEXT	ENDS
PUBLIC	?allocate@?$allocator@H@std@@QAEPAHI@Z		; std::allocator<int>::allocate
; Function compile flags: /Ogsp
; File c:\program files (x86)\microsoft visual studio 10.0\vc\include\xmemory
;	COMDAT ?allocate@?$allocator@H@std@@QAEPAHI@Z
_TEXT	SEGMENT
__Count$ = 8						; size = 4
?allocate@?$allocator@H@std@@QAEPAHI@Z PROC		; std::allocator<int>::allocate, COMDAT
; _this$ = ecx

; 186  : 		{	// allocate array of _Count elements

  00000	55		 push	 ebp
  00001	8b ec		 mov	 ebp, esp

; 187  : 		return (_Allocate(_Count, (pointer)0));

  00003	6a 00		 push	 0
  00005	ff 75 08	 push	 DWORD PTR __Count$[ebp]
  00008	e8 00 00 00 00	 call	 ??$_Allocate@H@std@@YAPAHIPAH@Z ; std::_Allocate<int>
  0000d	59		 pop	 ecx
  0000e	59		 pop	 ecx

; 188  : 		}

  0000f	5d		 pop	 ebp
  00010	c2 04 00	 ret	 4
?allocate@?$allocator@H@std@@QAEPAHI@Z ENDP		; std::allocator<int>::allocate
_TEXT	ENDS
PUBLIC	??8?$_Vector_const_iterator@V?$_Vector_val@HV?$allocator@H@std@@@std@@@std@@QBE_NABV01@@Z ; std::_Vector_const_iterator<std::_Vector_val<int,std::allocator<int> > >::operator==
; Function compile flags: /Ogsp
; File c:\program files (x86)\microsoft visual studio 10.0\vc\include\vector
;	COMDAT ??8?$_Vector_const_iterator@V?$_Vector_val@HV?$allocator@H@std@@@std@@@std@@QBE_NABV01@@Z
_TEXT	SEGMENT
__Right$ = 8						; size = 4
??8?$_Vector_const_iterator@V?$_Vector_val@HV?$allocator@H@std@@@std@@@std@@QBE_NABV01@@Z PROC ; std::_Vector_const_iterator<std::_Vector_val<int,std::allocator<int> > >::operator==, COMDAT
; _this$ = ecx

; 201  : 		{	// test for iterator equality

  00000	55		 push	 ebp
  00001	8b ec		 mov	 ebp, esp

; 202  : 		_Compat(_Right);
; 203  : 		return (this->_Ptr == _Right._Ptr);

  00003	8b 01		 mov	 eax, DWORD PTR [ecx]
  00005	8b 4d 08	 mov	 ecx, DWORD PTR __Right$[ebp]
  00008	2b 01		 sub	 eax, DWORD PTR [ecx]
  0000a	f7 d8		 neg	 eax
  0000c	1b c0		 sbb	 eax, eax
  0000e	40		 inc	 eax

; 204  : 		}

  0000f	5d		 pop	 ebp
  00010	c2 04 00	 ret	 4
??8?$_Vector_const_iterator@V?$_Vector_val@HV?$allocator@H@std@@@std@@@std@@QBE_NABV01@@Z ENDP ; std::_Vector_const_iterator<std::_Vector_val<int,std::allocator<int> > >::operator==
_TEXT	ENDS
PUBLIC	??$_Move@PAHPAH@std@@YAPAHPAH00@Z		; std::_Move<int *,int *>
; Function compile flags: /Ogsp
; File c:\program files (x86)\microsoft visual studio 10.0\vc\include\xutility
;	COMDAT ??$_Move@PAHPAH@std@@YAPAHPAH00@Z
_TEXT	SEGMENT
__Cat$518947 = -4					; size = 1
__First$ = 8						; size = 4
__Last$ = 12						; size = 4
__Dest$ = 16						; size = 4
??$_Move@PAHPAH@std@@YAPAHPAH00@Z PROC			; std::_Move<int *,int *>, COMDAT

; 2533 : 	{	// move [_First, _Last) to [_Dest, ...), unchecked

  00000	55		 push	 ebp
  00001	8b ec		 mov	 ebp, esp
  00003	51		 push	 ecx

; 2534 : 	return (_Move(_First, _Last,
; 2535 : 		_Dest, _Ptr_cat(_First, _Dest)));

  00004	ff 75 fc	 push	 DWORD PTR __Cat$518947[ebp]
  00007	ff 75 10	 push	 DWORD PTR __Dest$[ebp]
  0000a	ff 75 0c	 push	 DWORD PTR __Last$[ebp]
  0000d	ff 75 08	 push	 DWORD PTR __First$[ebp]
  00010	e8 00 00 00 00	 call	 ??$_Move@PAHPAH@std@@YAPAHPAH00U_Scalar_ptr_iterator_tag@0@@Z ; std::_Move<int *,int *>
  00015	83 c4 10	 add	 esp, 16			; 00000010H

; 2536 : 	}

  00018	c9		 leave
  00019	c3		 ret	 0
??$_Move@PAHPAH@std@@YAPAHPAH00@Z ENDP			; std::_Move<int *,int *>
_TEXT	ENDS
PUBLIC	??$_Destroy_range@V?$allocator@H@std@@@std@@YAXPAH0AAV?$allocator@H@0@@Z ; std::_Destroy_range<std::allocator<int> >
; Function compile flags: /Ogsp
; File c:\program files (x86)\microsoft visual studio 10.0\vc\include\xmemory
;	COMDAT ??$_Destroy_range@V?$allocator@H@std@@@std@@YAXPAH0AAV?$allocator@H@0@@Z
_TEXT	SEGMENT
__First$ = 8						; size = 4
__Last$ = 12						; size = 4
__Al$ = 16						; size = 4
??$_Destroy_range@V?$allocator@H@std@@@std@@YAXPAH0AAV?$allocator@H@0@@Z PROC ; std::_Destroy_range<std::allocator<int> >, COMDAT

; 88   : 	_Destroy_range(_First, _Last, _Al, _Ptr_cat(_First, _Last));
; 89   : 	}

  00000	c3		 ret	 0
??$_Destroy_range@V?$allocator@H@std@@@std@@YAXPAH0AAV?$allocator@H@0@@Z ENDP ; std::_Destroy_range<std::allocator<int> >
_TEXT	ENDS
PUBLIC	??$_Unchecked@V?$_Vector_val@HV?$allocator@H@std@@@std@@@std@@YAPBHV?$_Vector_const_iterator@V?$_Vector_val@HV?$allocator@H@std@@@std@@@0@@Z ; std::_Unchecked<std::_Vector_val<int,std::allocator<int> > >
; Function compile flags: /Ogsp
; File c:\program files (x86)\microsoft visual studio 10.0\vc\include\vector
;	COMDAT ??$_Unchecked@V?$_Vector_val@HV?$allocator@H@std@@@std@@@std@@YAPBHV?$_Vector_const_iterator@V?$_Vector_val@HV?$allocator@H@std@@@std@@@0@@Z
_TEXT	SEGMENT
__Iter$ = 8						; size = 4
??$_Unchecked@V?$_Vector_val@HV?$allocator@H@std@@@std@@@std@@YAPBHV?$_Vector_const_iterator@V?$_Vector_val@HV?$allocator@H@std@@@std@@@0@@Z PROC ; std::_Unchecked<std::_Vector_val<int,std::allocator<int> > >, COMDAT

; 262  : 	{	// convert to unchecked

  00000	55		 push	 ebp
  00001	8b ec		 mov	 ebp, esp

; 263  : 	return (_Iter._Unchecked());

  00003	8b 45 08	 mov	 eax, DWORD PTR __Iter$[ebp]

; 264  : 	}

  00006	5d		 pop	 ebp
  00007	c3		 ret	 0
??$_Unchecked@V?$_Vector_val@HV?$allocator@H@std@@@std@@@std@@YAPBHV?$_Vector_const_iterator@V?$_Vector_val@HV?$allocator@H@std@@@std@@@0@@Z ENDP ; std::_Unchecked<std::_Vector_val<int,std::allocator<int> > >
_TEXT	ENDS
PUBLIC	??$_Unchecked@V?$_Vector_val@HV?$allocator@H@std@@@std@@@std@@YAPAHV?$_Vector_iterator@V?$_Vector_val@HV?$allocator@H@std@@@std@@@0@@Z ; std::_Unchecked<std::_Vector_val<int,std::allocator<int> > >
; Function compile flags: /Ogsp
;	COMDAT ??$_Unchecked@V?$_Vector_val@HV?$allocator@H@std@@@std@@@std@@YAPAHV?$_Vector_iterator@V?$_Vector_val@HV?$allocator@H@std@@@std@@@0@@Z
_TEXT	SEGMENT
__Iter$ = 8						; size = 4
??$_Unchecked@V?$_Vector_val@HV?$allocator@H@std@@@std@@@std@@YAPAHV?$_Vector_iterator@V?$_Vector_val@HV?$allocator@H@std@@@std@@@0@@Z PROC ; std::_Unchecked<std::_Vector_val<int,std::allocator<int> > >, COMDAT

; 393  : 	{	// convert to unchecked

  00000	55		 push	 ebp
  00001	8b ec		 mov	 ebp, esp

; 394  : 	return (_Iter._Unchecked());

  00003	8b 45 08	 mov	 eax, DWORD PTR __Iter$[ebp]

; 395  : 	}

  00006	5d		 pop	 ebp
  00007	c3		 ret	 0
??$_Unchecked@V?$_Vector_val@HV?$allocator@H@std@@@std@@@std@@YAPAHV?$_Vector_iterator@V?$_Vector_val@HV?$allocator@H@std@@@std@@@0@@Z ENDP ; std::_Unchecked<std::_Vector_val<int,std::allocator<int> > >
_TEXT	ENDS
PUBLIC	??$_Copy_impl@PBHPAH@std@@YAPAHPBH0PAH@Z	; std::_Copy_impl<int const *,int *>
; Function compile flags: /Ogsp
; File c:\program files (x86)\microsoft visual studio 10.0\vc\include\xutility
;	COMDAT ??$_Copy_impl@PBHPAH@std@@YAPAHPBH0PAH@Z
_TEXT	SEGMENT
__Cat$518975 = -4					; size = 1
__First$ = 8						; size = 4
__Last$ = 12						; size = 4
__Dest$ = 16						; size = 4
??$_Copy_impl@PBHPAH@std@@YAPAHPBH0PAH@Z PROC		; std::_Copy_impl<int const *,int *>, COMDAT

; 2163 : 	{	// copy [_First, _Last) to [_Dest, ...)

  00000	55		 push	 ebp
  00001	8b ec		 mov	 ebp, esp
  00003	51		 push	 ecx

; 2164 : 	return (_Copy_impl(_First, _Last,
; 2165 : 		_Dest, _Ptr_cat(_First, _Dest)));

  00004	ff 75 fc	 push	 DWORD PTR __Cat$518975[ebp]
  00007	ff 75 10	 push	 DWORD PTR __Dest$[ebp]
  0000a	ff 75 0c	 push	 DWORD PTR __Last$[ebp]
  0000d	ff 75 08	 push	 DWORD PTR __First$[ebp]
  00010	e8 00 00 00 00	 call	 ??$_Copy_impl@PBHPAH@std@@YAPAHPBH0PAHU_Scalar_ptr_iterator_tag@0@@Z ; std::_Copy_impl<int const *,int *>
  00015	83 c4 10	 add	 esp, 16			; 00000010H

; 2166 : 	}

  00018	c9		 leave
  00019	c3		 ret	 0
??$_Copy_impl@PBHPAH@std@@YAPAHPBH0PAH@Z ENDP		; std::_Copy_impl<int const *,int *>
_TEXT	ENDS
PUBLIC	??$_Rechecked@V?$_Vector_val@HV?$allocator@H@std@@@std@@@std@@YAAAV?$_Vector_iterator@V?$_Vector_val@HV?$allocator@H@std@@@std@@@0@AAV10@PAH@Z ; std::_Rechecked<std::_Vector_val<int,std::allocator<int> > >
; Function compile flags: /Ogsp
; File c:\program files (x86)\microsoft visual studio 10.0\vc\include\vector
;	COMDAT ??$_Rechecked@V?$_Vector_val@HV?$allocator@H@std@@@std@@@std@@YAAAV?$_Vector_iterator@V?$_Vector_val@HV?$allocator@H@std@@@std@@@0@AAV10@PAH@Z
_TEXT	SEGMENT
__Iter$ = 8						; size = 4
__Right$ = 12						; size = 4
??$_Rechecked@V?$_Vector_val@HV?$allocator@H@std@@@std@@@std@@YAAAV?$_Vector_iterator@V?$_Vector_val@HV?$allocator@H@std@@@std@@@0@AAV10@PAH@Z PROC ; std::_Rechecked<std::_Vector_val<int,std::allocator<int> > >, COMDAT

; 402  : 	{	// convert to checked

  00000	55		 push	 ebp
  00001	8b ec		 mov	 ebp, esp

; 403  : 	return (_Iter._Rechecked(_Right));

  00003	8b 45 08	 mov	 eax, DWORD PTR __Iter$[ebp]
  00006	8b 4d 0c	 mov	 ecx, DWORD PTR __Right$[ebp]
  00009	89 08		 mov	 DWORD PTR [eax], ecx

; 404  : 	}

  0000b	5d		 pop	 ebp
  0000c	c3		 ret	 0
??$_Rechecked@V?$_Vector_val@HV?$allocator@H@std@@@std@@@std@@YAAAV?$_Vector_iterator@V?$_Vector_val@HV?$allocator@H@std@@@std@@@0@AAV10@PAH@Z ENDP ; std::_Rechecked<std::_Vector_val<int,std::allocator<int> > >
_TEXT	ENDS
PUBLIC	??$_Uninit_def_fill_n@HIHH@std@@YAXPAHIPBHAAV?$allocator@H@0@0U_Scalar_ptr_iterator_tag@0@@Z ; std::_Uninit_def_fill_n<int,unsigned int,int,int>
; Function compile flags: /Ogsp
; File c:\program files (x86)\microsoft visual studio 10.0\vc\include\memory
;	COMDAT ??$_Uninit_def_fill_n@HIHH@std@@YAXPAHIPBHAAV?$allocator@H@0@0U_Scalar_ptr_iterator_tag@0@@Z
_TEXT	SEGMENT
$T518984 = -4						; size = 4
__First$ = 8						; size = 4
__Count$ = 12						; size = 4
___formal$ = 16						; size = 4
___formal$ = 20						; size = 4
___formal$ = 24						; size = 4
___formal$ = 28						; size = 1
??$_Uninit_def_fill_n@HIHH@std@@YAXPAHIPBHAAV?$allocator@H@0@0U_Scalar_ptr_iterator_tag@0@@Z PROC ; std::_Uninit_def_fill_n<int,unsigned int,int,int>, COMDAT

; 660  : 	{	// copy _Count * _Valty() to raw _First, using _Al, scalar type

  00000	55		 push	 ebp
  00001	8b ec		 mov	 ebp, esp
  00003	51		 push	 ecx

; 661  : 	_Fill_n(_First, _Count, (_Valty)0);

  00004	83 65 fc 00	 and	 DWORD PTR $T518984[ebp], 0
  00008	8d 45 fc	 lea	 eax, DWORD PTR $T518984[ebp]
  0000b	50		 push	 eax
  0000c	ff 75 0c	 push	 DWORD PTR __Count$[ebp]
  0000f	ff 75 08	 push	 DWORD PTR __First$[ebp]
  00012	e8 00 00 00 00	 call	 ??$_Fill_n@PAHIH@std@@YAXPAHIABH@Z ; std::_Fill_n<int *,unsigned int,int>
  00017	83 c4 0c	 add	 esp, 12			; 0000000cH

; 662  : 	}

  0001a	c9		 leave
  0001b	c3		 ret	 0
??$_Uninit_def_fill_n@HIHH@std@@YAXPAHIPBHAAV?$allocator@H@0@0U_Scalar_ptr_iterator_tag@0@@Z ENDP ; std::_Uninit_def_fill_n<int,unsigned int,int,int>
_TEXT	ENDS
PUBLIC	??$_Uninitialized_move@PAHPAHV?$allocator@H@std@@@std@@YAPAHPAH00AAV?$allocator@H@0@@Z ; std::_Uninitialized_move<int *,int *,std::allocator<int> >
; Function compile flags: /Ogsp
;	COMDAT ??$_Uninitialized_move@PAHPAHV?$allocator@H@std@@@std@@YAPAHPAH00AAV?$allocator@H@0@@Z
_TEXT	SEGMENT
__First$ = 8						; size = 4
__Last$ = 12						; size = 4
__Dest$ = 16						; size = 4
__Al$ = 20						; size = 4
??$_Uninitialized_move@PAHPAHV?$allocator@H@std@@@std@@YAPAHPAH00AAV?$allocator@H@0@@Z PROC ; std::_Uninitialized_move<int *,int *,std::allocator<int> >, COMDAT

; 469  : 	{	// move [_First, _Last) to raw _Dest, using _Al

  00000	55		 push	 ebp
  00001	8b ec		 mov	 ebp, esp
  00003	56		 push	 esi

; 470  : 	return (_Uninit_move(_First, _Last, _Dest, _Al,
; 471  : 		_Val_type(_First), _Ptr_cat(_First, _Dest)));

  00004	8b 75 0c	 mov	 esi, DWORD PTR __Last$[ebp]
  00007	2b 75 08	 sub	 esi, DWORD PTR __First$[ebp]
  0000a	c1 fe 02	 sar	 esi, 2
  0000d	c1 e6 02	 shl	 esi, 2
  00010	56		 push	 esi
  00011	ff 75 08	 push	 DWORD PTR __First$[ebp]
  00014	ff 75 10	 push	 DWORD PTR __Dest$[ebp]
  00017	ff 15 00 00 00
	00		 call	 DWORD PTR __imp__memmove
  0001d	83 c4 0c	 add	 esp, 12			; 0000000cH
  00020	03 c6		 add	 eax, esi
  00022	5e		 pop	 esi

; 472  : 	}

  00023	5d		 pop	 ebp
  00024	c3		 ret	 0
??$_Uninitialized_move@PAHPAHV?$allocator@H@std@@@std@@YAPAHPAH00AAV?$allocator@H@0@@Z ENDP ; std::_Uninitialized_move<int *,int *,std::allocator<int> >
_TEXT	ENDS
PUBLIC	??0?$vector@UCharInfoData@@V?$allocator@UCharInfoData@@@std@@@std@@QAE@XZ ; std::vector<CharInfoData,std::allocator<CharInfoData> >::vector<CharInfoData,std::allocator<CharInfoData> >
; Function compile flags: /Ogsp
; File c:\program files (x86)\microsoft visual studio 10.0\vc\include\vector
;	COMDAT ??0?$vector@UCharInfoData@@V?$allocator@UCharInfoData@@@std@@@std@@QAE@XZ
_TEXT	SEGMENT
??0?$vector@UCharInfoData@@V?$allocator@UCharInfoData@@@std@@@std@@QAE@XZ PROC ; std::vector<CharInfoData,std::allocator<CharInfoData> >::vector<CharInfoData,std::allocator<CharInfoData> >, COMDAT
; _this$ = ecx

; 507  : 		{	// construct empty vector

  00000	8b c1		 mov	 eax, ecx
  00002	33 c9		 xor	 ecx, ecx
  00004	89 08		 mov	 DWORD PTR [eax], ecx
  00006	89 48 04	 mov	 DWORD PTR [eax+4], ecx
  00009	89 48 08	 mov	 DWORD PTR [eax+8], ecx

; 508  : 		}

  0000c	c3		 ret	 0
??0?$vector@UCharInfoData@@V?$allocator@UCharInfoData@@@std@@@std@@QAE@XZ ENDP ; std::vector<CharInfoData,std::allocator<CharInfoData> >::vector<CharInfoData,std::allocator<CharInfoData> >
_TEXT	ENDS
PUBLIC	?begin@?$vector@UCharInfoData@@V?$allocator@UCharInfoData@@@std@@@std@@QAE?AV?$_Vector_iterator@V?$_Vector_val@UCharInfoData@@V?$allocator@UCharInfoData@@@std@@@std@@@2@XZ ; std::vector<CharInfoData,std::allocator<CharInfoData> >::begin
; Function compile flags: /Ogsp
;	COMDAT ?begin@?$vector@UCharInfoData@@V?$allocator@UCharInfoData@@@std@@@std@@QAE?AV?$_Vector_iterator@V?$_Vector_val@UCharInfoData@@V?$allocator@UCharInfoData@@@std@@@std@@@2@XZ
_TEXT	SEGMENT
___$ReturnUdt$ = 8					; size = 4
?begin@?$vector@UCharInfoData@@V?$allocator@UCharInfoData@@@std@@@std@@QAE?AV?$_Vector_iterator@V?$_Vector_val@UCharInfoData@@V?$allocator@UCharInfoData@@@std@@@std@@@2@XZ PROC ; std::vector<CharInfoData,std::allocator<CharInfoData> >::begin, COMDAT
; _this$ = ecx

; 781  : 		{	// return iterator for beginning of mutable sequence

  00000	55		 push	 ebp
  00001	8b ec		 mov	 ebp, esp

; 782  : 		return (iterator(this->_Myfirst, this));

  00003	8b 09		 mov	 ecx, DWORD PTR [ecx]
  00005	8b 45 08	 mov	 eax, DWORD PTR ___$ReturnUdt$[ebp]
  00008	89 08		 mov	 DWORD PTR [eax], ecx

; 783  : 		}

  0000a	5d		 pop	 ebp
  0000b	c2 04 00	 ret	 4
?begin@?$vector@UCharInfoData@@V?$allocator@UCharInfoData@@@std@@@std@@QAE?AV?$_Vector_iterator@V?$_Vector_val@UCharInfoData@@V?$allocator@UCharInfoData@@@std@@@std@@@2@XZ ENDP ; std::vector<CharInfoData,std::allocator<CharInfoData> >::begin
_TEXT	ENDS
PUBLIC	?end@?$vector@UCharInfoData@@V?$allocator@UCharInfoData@@@std@@@std@@QAE?AV?$_Vector_iterator@V?$_Vector_val@UCharInfoData@@V?$allocator@UCharInfoData@@@std@@@std@@@2@XZ ; std::vector<CharInfoData,std::allocator<CharInfoData> >::end
; Function compile flags: /Ogsp
;	COMDAT ?end@?$vector@UCharInfoData@@V?$allocator@UCharInfoData@@@std@@@std@@QAE?AV?$_Vector_iterator@V?$_Vector_val@UCharInfoData@@V?$allocator@UCharInfoData@@@std@@@std@@@2@XZ
_TEXT	SEGMENT
___$ReturnUdt$ = 8					; size = 4
?end@?$vector@UCharInfoData@@V?$allocator@UCharInfoData@@@std@@@std@@QAE?AV?$_Vector_iterator@V?$_Vector_val@UCharInfoData@@V?$allocator@UCharInfoData@@@std@@@std@@@2@XZ PROC ; std::vector<CharInfoData,std::allocator<CharInfoData> >::end, COMDAT
; _this$ = ecx

; 791  : 		{	// return iterator for end of mutable sequence

  00000	55		 push	 ebp
  00001	8b ec		 mov	 ebp, esp

; 792  : 		return (iterator(this->_Mylast, this));

  00003	8b 49 04	 mov	 ecx, DWORD PTR [ecx+4]
  00006	8b 45 08	 mov	 eax, DWORD PTR ___$ReturnUdt$[ebp]
  00009	89 08		 mov	 DWORD PTR [eax], ecx

; 793  : 		}

  0000b	5d		 pop	 ebp
  0000c	c2 04 00	 ret	 4
?end@?$vector@UCharInfoData@@V?$allocator@UCharInfoData@@@std@@@std@@QAE?AV?$_Vector_iterator@V?$_Vector_val@UCharInfoData@@V?$allocator@UCharInfoData@@@std@@@std@@@2@XZ ENDP ; std::vector<CharInfoData,std::allocator<CharInfoData> >::end
_TEXT	ENDS
PUBLIC	??0?$vector@PAVUserInfoNode@@V?$allocator@PAVUserInfoNode@@@std@@@std@@QAE@XZ ; std::vector<UserInfoNode *,std::allocator<UserInfoNode *> >::vector<UserInfoNode *,std::allocator<UserInfoNode *> >
; Function compile flags: /Ogsp
;	COMDAT ??0?$vector@PAVUserInfoNode@@V?$allocator@PAVUserInfoNode@@@std@@@std@@QAE@XZ
_TEXT	SEGMENT
??0?$vector@PAVUserInfoNode@@V?$allocator@PAVUserInfoNode@@@std@@@std@@QAE@XZ PROC ; std::vector<UserInfoNode *,std::allocator<UserInfoNode *> >::vector<UserInfoNode *,std::allocator<UserInfoNode *> >, COMDAT
; _this$ = ecx

; 507  : 		{	// construct empty vector

  00000	8b c1		 mov	 eax, ecx
  00002	33 c9		 xor	 ecx, ecx
  00004	89 08		 mov	 DWORD PTR [eax], ecx
  00006	89 48 04	 mov	 DWORD PTR [eax+4], ecx
  00009	89 48 08	 mov	 DWORD PTR [eax+8], ecx

; 508  : 		}

  0000c	c3		 ret	 0
??0?$vector@PAVUserInfoNode@@V?$allocator@PAVUserInfoNode@@@std@@@std@@QAE@XZ ENDP ; std::vector<UserInfoNode *,std::allocator<UserInfoNode *> >::vector<UserInfoNode *,std::allocator<UserInfoNode *> >
_TEXT	ENDS
PUBLIC	?begin@?$vector@PAVUserInfoNode@@V?$allocator@PAVUserInfoNode@@@std@@@std@@QAE?AV?$_Vector_iterator@V?$_Vector_val@PAVUserInfoNode@@V?$allocator@PAVUserInfoNode@@@std@@@std@@@2@XZ ; std::vector<UserInfoNode *,std::allocator<UserInfoNode *> >::begin
; Function compile flags: /Ogsp
;	COMDAT ?begin@?$vector@PAVUserInfoNode@@V?$allocator@PAVUserInfoNode@@@std@@@std@@QAE?AV?$_Vector_iterator@V?$_Vector_val@PAVUserInfoNode@@V?$allocator@PAVUserInfoNode@@@std@@@std@@@2@XZ
_TEXT	SEGMENT
___$ReturnUdt$ = 8					; size = 4
?begin@?$vector@PAVUserInfoNode@@V?$allocator@PAVUserInfoNode@@@std@@@std@@QAE?AV?$_Vector_iterator@V?$_Vector_val@PAVUserInfoNode@@V?$allocator@PAVUserInfoNode@@@std@@@std@@@2@XZ PROC ; std::vector<UserInfoNode *,std::allocator<UserInfoNode *> >::begin, COMDAT
; _this$ = ecx

; 781  : 		{	// return iterator for beginning of mutable sequence

  00000	55		 push	 ebp
  00001	8b ec		 mov	 ebp, esp

; 782  : 		return (iterator(this->_Myfirst, this));

  00003	8b 09		 mov	 ecx, DWORD PTR [ecx]
  00005	8b 45 08	 mov	 eax, DWORD PTR ___$ReturnUdt$[ebp]
  00008	89 08		 mov	 DWORD PTR [eax], ecx

; 783  : 		}

  0000a	5d		 pop	 ebp
  0000b	c2 04 00	 ret	 4
?begin@?$vector@PAVUserInfoNode@@V?$allocator@PAVUserInfoNode@@@std@@@std@@QAE?AV?$_Vector_iterator@V?$_Vector_val@PAVUserInfoNode@@V?$allocator@PAVUserInfoNode@@@std@@@std@@@2@XZ ENDP ; std::vector<UserInfoNode *,std::allocator<UserInfoNode *> >::begin
_TEXT	ENDS
PUBLIC	?end@?$vector@PAVUserInfoNode@@V?$allocator@PAVUserInfoNode@@@std@@@std@@QAE?AV?$_Vector_iterator@V?$_Vector_val@PAVUserInfoNode@@V?$allocator@PAVUserInfoNode@@@std@@@std@@@2@XZ ; std::vector<UserInfoNode *,std::allocator<UserInfoNode *> >::end
; Function compile flags: /Ogsp
;	COMDAT ?end@?$vector@PAVUserInfoNode@@V?$allocator@PAVUserInfoNode@@@std@@@std@@QAE?AV?$_Vector_iterator@V?$_Vector_val@PAVUserInfoNode@@V?$allocator@PAVUserInfoNode@@@std@@@std@@@2@XZ
_TEXT	SEGMENT
___$ReturnUdt$ = 8					; size = 4
?end@?$vector@PAVUserInfoNode@@V?$allocator@PAVUserInfoNode@@@std@@@std@@QAE?AV?$_Vector_iterator@V?$_Vector_val@PAVUserInfoNode@@V?$allocator@PAVUserInfoNode@@@std@@@std@@@2@XZ PROC ; std::vector<UserInfoNode *,std::allocator<UserInfoNode *> >::end, COMDAT
; _this$ = ecx

; 791  : 		{	// return iterator for end of mutable sequence

  00000	55		 push	 ebp
  00001	8b ec		 mov	 ebp, esp

; 792  : 		return (iterator(this->_Mylast, this));

  00003	8b 49 04	 mov	 ecx, DWORD PTR [ecx+4]
  00006	8b 45 08	 mov	 eax, DWORD PTR ___$ReturnUdt$[ebp]
  00009	89 08		 mov	 DWORD PTR [eax], ecx

; 793  : 		}

  0000b	5d		 pop	 ebp
  0000c	c2 04 00	 ret	 4
?end@?$vector@PAVUserInfoNode@@V?$allocator@PAVUserInfoNode@@@std@@@std@@QAE?AV?$_Vector_iterator@V?$_Vector_val@PAVUserInfoNode@@V?$allocator@PAVUserInfoNode@@@std@@@std@@@2@XZ ENDP ; std::vector<UserInfoNode *,std::allocator<UserInfoNode *> >::end
_TEXT	ENDS
PUBLIC	??9?$_Vector_const_iterator@V?$_Vector_val@UCharInfoData@@V?$allocator@UCharInfoData@@@std@@@std@@@std@@QBE_NABV01@@Z ; std::_Vector_const_iterator<std::_Vector_val<CharInfoData,std::allocator<CharInfoData> > >::operator!=
; Function compile flags: /Ogsp
;	COMDAT ??9?$_Vector_const_iterator@V?$_Vector_val@UCharInfoData@@V?$allocator@UCharInfoData@@@std@@@std@@@std@@QBE_NABV01@@Z
_TEXT	SEGMENT
__Right$ = 8						; size = 4
??9?$_Vector_const_iterator@V?$_Vector_val@UCharInfoData@@V?$allocator@UCharInfoData@@@std@@@std@@@std@@QBE_NABV01@@Z PROC ; std::_Vector_const_iterator<std::_Vector_val<CharInfoData,std::allocator<CharInfoData> > >::operator!=, COMDAT
; _this$ = ecx

; 207  : 		{	// test for iterator inequality

  00000	55		 push	 ebp
  00001	8b ec		 mov	 ebp, esp

; 208  : 		return (!(*this == _Right));

  00003	8b 01		 mov	 eax, DWORD PTR [ecx]
  00005	8b 55 08	 mov	 edx, DWORD PTR __Right$[ebp]
  00008	33 c9		 xor	 ecx, ecx
  0000a	3b 02		 cmp	 eax, DWORD PTR [edx]
  0000c	0f 95 c0	 setne	 al

; 209  : 		}

  0000f	5d		 pop	 ebp
  00010	c2 04 00	 ret	 4
??9?$_Vector_const_iterator@V?$_Vector_val@UCharInfoData@@V?$allocator@UCharInfoData@@@std@@@std@@@std@@QBE_NABV01@@Z ENDP ; std::_Vector_const_iterator<std::_Vector_val<CharInfoData,std::allocator<CharInfoData> > >::operator!=
_TEXT	ENDS
PUBLIC	??9?$_Vector_const_iterator@V?$_Vector_val@PAVUserInfoNode@@V?$allocator@PAVUserInfoNode@@@std@@@std@@@std@@QBE_NABV01@@Z ; std::_Vector_const_iterator<std::_Vector_val<UserInfoNode *,std::allocator<UserInfoNode *> > >::operator!=
; Function compile flags: /Ogsp
;	COMDAT ??9?$_Vector_const_iterator@V?$_Vector_val@PAVUserInfoNode@@V?$allocator@PAVUserInfoNode@@@std@@@std@@@std@@QBE_NABV01@@Z
_TEXT	SEGMENT
__Right$ = 8						; size = 4
??9?$_Vector_const_iterator@V?$_Vector_val@PAVUserInfoNode@@V?$allocator@PAVUserInfoNode@@@std@@@std@@@std@@QBE_NABV01@@Z PROC ; std::_Vector_const_iterator<std::_Vector_val<UserInfoNode *,std::allocator<UserInfoNode *> > >::operator!=, COMDAT
; _this$ = ecx

; 207  : 		{	// test for iterator inequality

  00000	55		 push	 ebp
  00001	8b ec		 mov	 ebp, esp

; 208  : 		return (!(*this == _Right));

  00003	8b 01		 mov	 eax, DWORD PTR [ecx]
  00005	8b 55 08	 mov	 edx, DWORD PTR __Right$[ebp]
  00008	33 c9		 xor	 ecx, ecx
  0000a	3b 02		 cmp	 eax, DWORD PTR [edx]
  0000c	0f 95 c0	 setne	 al

; 209  : 		}

  0000f	5d		 pop	 ebp
  00010	c2 04 00	 ret	 4
??9?$_Vector_const_iterator@V?$_Vector_val@PAVUserInfoNode@@V?$allocator@PAVUserInfoNode@@@std@@@std@@@std@@QBE_NABV01@@Z ENDP ; std::_Vector_const_iterator<std::_Vector_val<UserInfoNode *,std::allocator<UserInfoNode *> > >::operator!=
_TEXT	ENDS
PUBLIC	?_Buy@?$vector@HV?$allocator@H@std@@@std@@IAE_NI@Z ; std::vector<int,std::allocator<int> >::_Buy
; Function compile flags: /Ogsp
;	COMDAT ?_Buy@?$vector@HV?$allocator@H@std@@@std@@IAE_NI@Z
_TEXT	SEGMENT
__Capacity$ = 8						; size = 4
?_Buy@?$vector@HV?$allocator@H@std@@@std@@IAE_NI@Z PROC	; std::vector<int,std::allocator<int> >::_Buy, COMDAT
; _this$ = ecx

; 1250 : 		{	// allocate array with _Capacity elements

  00000	55		 push	 ebp
  00001	8b ec		 mov	 ebp, esp
  00003	56		 push	 esi

; 1251 : 		this->_Myfirst = 0;

  00004	33 c0		 xor	 eax, eax
  00006	57		 push	 edi

; 1252 : 		this->_Mylast = 0;
; 1253 : 		this->_Myend = 0;
; 1254 : 
; 1255 : 		if (_Capacity == 0)

  00007	8b 7d 08	 mov	 edi, DWORD PTR __Capacity$[ebp]
  0000a	8b f1		 mov	 esi, ecx
  0000c	89 06		 mov	 DWORD PTR [esi], eax
  0000e	89 46 04	 mov	 DWORD PTR [esi+4], eax
  00011	89 46 08	 mov	 DWORD PTR [esi+8], eax
  00014	3b f8		 cmp	 edi, eax
  00016	75 04		 jne	 SHORT $LN4@Buy

; 1256 : 			return (false);

  00018	32 c0		 xor	 al, al
  0001a	eb 29		 jmp	 SHORT $LN5@Buy
$LN4@Buy:

; 1257 : 		else if (max_size() < _Capacity)

  0001c	81 ff ff ff ff
	3f		 cmp	 edi, 1073741823		; 3fffffffH
  00022	76 0b		 jbe	 SHORT $LN2@Buy

; 1258 : 			_Xlen();	// result too long

  00024	68 00 00 00 00	 push	 OFFSET ??_C@_0BD@OLBABOEK@vector?$DMT?$DO?5too?5long?$AA@
  00029	ff 15 00 00 00
	00		 call	 DWORD PTR __imp_?_Xlength_error@std@@YAXPBD@Z
$LN19@Buy:
$LN2@Buy:

; 1259 : 		else
; 1260 : 			{	// nonempty array, allocate storage
; 1261 : 			this->_Myfirst = this->_Alval.allocate(_Capacity);

  0002f	50		 push	 eax
  00030	57		 push	 edi
  00031	e8 00 00 00 00	 call	 ??$_Allocate@H@std@@YAPAHIPAH@Z ; std::_Allocate<int>
  00036	89 06		 mov	 DWORD PTR [esi], eax

; 1262 : 			this->_Mylast = this->_Myfirst;

  00038	89 46 04	 mov	 DWORD PTR [esi+4], eax

; 1263 : 			this->_Myend = this->_Myfirst + _Capacity;

  0003b	8d 04 b8	 lea	 eax, DWORD PTR [eax+edi*4]
  0003e	59		 pop	 ecx
  0003f	89 46 08	 mov	 DWORD PTR [esi+8], eax
  00042	59		 pop	 ecx

; 1264 : 			}
; 1265 : 		return (true);

  00043	b0 01		 mov	 al, 1
$LN5@Buy:
  00045	5f		 pop	 edi
  00046	5e		 pop	 esi

; 1266 : 		}

  00047	5d		 pop	 ebp
  00048	c2 04 00	 ret	 4
$LN18@Buy:
?_Buy@?$vector@HV?$allocator@H@std@@@std@@IAE_NI@Z ENDP	; std::vector<int,std::allocator<int> >::_Buy
_TEXT	ENDS
PUBLIC	?_Make_iter@?$vector@UCharInfoData@@V?$allocator@UCharInfoData@@@std@@@std@@QBE?AV?$_Vector_iterator@V?$_Vector_val@UCharInfoData@@V?$allocator@UCharInfoData@@@std@@@std@@@2@V?$_Vector_const_iterator@V?$_Vector_val@UCharInfoData@@V?$allocator@UCharInfoData@@@std@@@std@@@2@@Z ; std::vector<CharInfoData,std::allocator<CharInfoData> >::_Make_iter
; Function compile flags: /Ogsp
;	COMDAT ?_Make_iter@?$vector@UCharInfoData@@V?$allocator@UCharInfoData@@@std@@@std@@QBE?AV?$_Vector_iterator@V?$_Vector_val@UCharInfoData@@V?$allocator@UCharInfoData@@@std@@@std@@@2@V?$_Vector_const_iterator@V?$_Vector_val@UCharInfoData@@V?$allocator@UCharInfoData@@@std@@@std@@@2@@Z
_TEXT	SEGMENT
___$ReturnUdt$ = 8					; size = 4
__Where$ = 12						; size = 4
?_Make_iter@?$vector@UCharInfoData@@V?$allocator@UCharInfoData@@@std@@@std@@QBE?AV?$_Vector_iterator@V?$_Vector_val@UCharInfoData@@V?$allocator@UCharInfoData@@@std@@@std@@@2@V?$_Vector_const_iterator@V?$_Vector_val@UCharInfoData@@V?$allocator@UCharInfoData@@@std@@@std@@@2@@Z PROC ; std::vector<CharInfoData,std::allocator<CharInfoData> >::_Make_iter, COMDAT
; _this$ = ecx

; 801  : 		{	// make iterator from const_iterator

  00000	55		 push	 ebp
  00001	8b ec		 mov	 ebp, esp

; 802  : 		return (iterator(_Where._Ptr, this));

  00003	8b 45 08	 mov	 eax, DWORD PTR ___$ReturnUdt$[ebp]
  00006	8b 4d 0c	 mov	 ecx, DWORD PTR __Where$[ebp]
  00009	89 08		 mov	 DWORD PTR [eax], ecx

; 803  : 		}

  0000b	5d		 pop	 ebp
  0000c	c2 08 00	 ret	 8
?_Make_iter@?$vector@UCharInfoData@@V?$allocator@UCharInfoData@@@std@@@std@@QBE?AV?$_Vector_iterator@V?$_Vector_val@UCharInfoData@@V?$allocator@UCharInfoData@@@std@@@std@@@2@V?$_Vector_const_iterator@V?$_Vector_val@UCharInfoData@@V?$allocator@UCharInfoData@@@std@@@std@@@2@@Z ENDP ; std::vector<CharInfoData,std::allocator<CharInfoData> >::_Make_iter
_TEXT	ENDS
PUBLIC	?_Destroy@?$vector@PAVUserInfoNode@@V?$allocator@PAVUserInfoNode@@@std@@@std@@IAEXPAPAVUserInfoNode@@0@Z ; std::vector<UserInfoNode *,std::allocator<UserInfoNode *> >::_Destroy
; Function compile flags: /Ogsp
;	COMDAT ?_Destroy@?$vector@PAVUserInfoNode@@V?$allocator@PAVUserInfoNode@@@std@@@std@@IAEXPAPAVUserInfoNode@@0@Z
_TEXT	SEGMENT
__First$ = 8						; size = 4
__Last$ = 12						; size = 4
?_Destroy@?$vector@PAVUserInfoNode@@V?$allocator@PAVUserInfoNode@@@std@@@std@@IAEXPAPAVUserInfoNode@@0@Z PROC ; std::vector<UserInfoNode *,std::allocator<UserInfoNode *> >::_Destroy, COMDAT
; _this$ = ecx

; 1270 : 		_Destroy_range(_First, _Last, this->_Alval);
; 1271 : 		}

  00000	c2 08 00	 ret	 8
?_Destroy@?$vector@PAVUserInfoNode@@V?$allocator@PAVUserInfoNode@@@std@@@std@@IAEXPAPAVUserInfoNode@@0@Z ENDP ; std::vector<UserInfoNode *,std::allocator<UserInfoNode *> >::_Destroy
_TEXT	ENDS
PUBLIC	??$copy@V?$_Vector_iterator@V?$_Vector_val@HV?$allocator@H@std@@@std@@@std@@V12@@std@@YA?AV?$_Vector_iterator@V?$_Vector_val@HV?$allocator@H@std@@@std@@@0@V10@00@Z ; std::copy<std::_Vector_iterator<std::_Vector_val<int,std::allocator<int> > >,std::_Vector_iterator<std::_Vector_val<int,std::allocator<int> > > >
; Function compile flags: /Ogsp
; File c:\program files (x86)\microsoft visual studio 10.0\vc\include\xutility
;	COMDAT ??$copy@V?$_Vector_iterator@V?$_Vector_val@HV?$allocator@H@std@@@std@@@std@@V12@@std@@YA?AV?$_Vector_iterator@V?$_Vector_val@HV?$allocator@H@std@@@std@@@0@V10@00@Z
_TEXT	SEGMENT
___$ReturnUdt$ = 8					; size = 4
__First$ = 12						; size = 4
__Last$ = 16						; size = 4
__Cat$519231 = 20					; size = 1
__Dest$ = 20						; size = 4
??$copy@V?$_Vector_iterator@V?$_Vector_val@HV?$allocator@H@std@@@std@@@std@@V12@@std@@YA?AV?$_Vector_iterator@V?$_Vector_val@HV?$allocator@H@std@@@std@@@0@V10@00@Z PROC ; std::copy<std::_Vector_iterator<std::_Vector_val<int,std::allocator<int> > >,std::_Vector_iterator<std::_Vector_val<int,std::allocator<int> > > >, COMDAT

; 2173 : 	{	// copy [_First, _Last) to [_Dest, ...)

  00000	55		 push	 ebp
  00001	8b ec		 mov	 ebp, esp

; 2174 : 	return (_Rechecked(_Dest,
; 2175 : 		_Copy_impl(_Unchecked(_First), _Unchecked(_Last),
; 2176 : 			_Unchecked(_Dest))));

  00003	ff 75 14	 push	 DWORD PTR __Cat$519231[ebp]
  00006	ff 75 14	 push	 DWORD PTR __Dest$[ebp]
  00009	ff 75 10	 push	 DWORD PTR __Last$[ebp]
  0000c	ff 75 0c	 push	 DWORD PTR __First$[ebp]
  0000f	e8 00 00 00 00	 call	 ??$_Copy_impl@PAHPAH@std@@YAPAHPAH00U_Scalar_ptr_iterator_tag@0@@Z ; std::_Copy_impl<int *,int *>
  00014	8b 4d 08	 mov	 ecx, DWORD PTR ___$ReturnUdt$[ebp]
  00017	89 01		 mov	 DWORD PTR [ecx], eax
  00019	83 c4 10	 add	 esp, 16			; 00000010H
  0001c	8b c1		 mov	 eax, ecx

; 2177 : 	}

  0001e	5d		 pop	 ebp
  0001f	c3		 ret	 0
??$copy@V?$_Vector_iterator@V?$_Vector_val@HV?$allocator@H@std@@@std@@@std@@V12@@std@@YA?AV?$_Vector_iterator@V?$_Vector_val@HV?$allocator@H@std@@@std@@@0@V10@00@Z ENDP ; std::copy<std::_Vector_iterator<std::_Vector_val<int,std::allocator<int> > >,std::_Vector_iterator<std::_Vector_val<int,std::allocator<int> > > >
_TEXT	ENDS
PUBLIC	??$_Ucopy@PAH@?$vector@HV?$allocator@H@std@@@std@@IAEPAHPAH00@Z ; std::vector<int,std::allocator<int> >::_Ucopy<int *>
; Function compile flags: /Ogsp
; File c:\program files (x86)\microsoft visual studio 10.0\vc\include\vector
;	COMDAT ??$_Ucopy@PAH@?$vector@HV?$allocator@H@std@@@std@@IAEPAHPAH00@Z
_TEXT	SEGMENT
__First$ = 8						; size = 4
__Last$ = 12						; size = 4
__Cat$519254 = 16					; size = 1
__Ptr$ = 16						; size = 4
??$_Ucopy@PAH@?$vector@HV?$allocator@H@std@@@std@@IAEPAHPAH00@Z PROC ; std::vector<int,std::allocator<int> >::_Ucopy<int *>, COMDAT
; _this$ = ecx

; 1315 : 		pointer _Ucopy(_Iter _First, _Iter _Last, pointer _Ptr)

  00000	55		 push	 ebp
  00001	8b ec		 mov	 ebp, esp

; 1316 : 		{	// copy initializing [_First, _Last), using allocator
; 1317 : 		return (_Uninitialized_copy(_First, _Last,
; 1318 : 			_Ptr, this->_Alval));

  00003	ff 75 10	 push	 DWORD PTR __Cat$519254[ebp]
  00006	83 c1 0c	 add	 ecx, 12			; 0000000cH
  00009	51		 push	 ecx
  0000a	ff 75 10	 push	 DWORD PTR __Ptr$[ebp]
  0000d	ff 75 0c	 push	 DWORD PTR __Last$[ebp]
  00010	ff 75 08	 push	 DWORD PTR __First$[ebp]
  00013	e8 00 00 00 00	 call	 ??$_Uninit_copy@HH@std@@YAPAHPAH00AAV?$allocator@H@0@U_Scalar_ptr_iterator_tag@0@@Z ; std::_Uninit_copy<int,int>
  00018	83 c4 14	 add	 esp, 20			; 00000014H

; 1319 : 		}

  0001b	5d		 pop	 ebp
  0001c	c2 0c 00	 ret	 12			; 0000000cH
??$_Ucopy@PAH@?$vector@HV?$allocator@H@std@@@std@@IAEPAHPAH00@Z ENDP ; std::vector<int,std::allocator<int> >::_Ucopy<int *>
_TEXT	ENDS
PUBLIC	??$_Cons_val@V?$allocator@H@std@@HAAH@std@@YAXAAV?$allocator@H@0@PAHAAH@Z ; std::_Cons_val<std::allocator<int>,int,int &>
; Function compile flags: /Ogsp
; File c:\program files (x86)\microsoft visual studio 10.0\vc\include\xmemory
;	COMDAT ??$_Cons_val@V?$allocator@H@std@@HAAH@std@@YAXAAV?$allocator@H@0@PAHAAH@Z
_TEXT	SEGMENT
__Alval$ = 8						; size = 4
__Pdest$ = 12						; size = 4
__Src$ = 16						; size = 4
??$_Cons_val@V?$allocator@H@std@@HAAH@std@@YAXAAV?$allocator@H@0@PAHAAH@Z PROC ; std::_Cons_val<std::allocator<int>,int,int &>, COMDAT

; 279  : 	{	// construct using allocator

  00000	55		 push	 ebp
  00001	8b ec		 mov	 ebp, esp

; 280  : 	_Alval.construct(_Pdest, _STD forward<_Ty2>(_Src));

  00003	8b 45 0c	 mov	 eax, DWORD PTR __Pdest$[ebp]
  00006	85 c0		 test	 eax, eax
  00008	74 07		 je	 SHORT $LN7@Cons_val@2
  0000a	8b 4d 10	 mov	 ecx, DWORD PTR __Src$[ebp]
  0000d	8b 09		 mov	 ecx, DWORD PTR [ecx]
  0000f	89 08		 mov	 DWORD PTR [eax], ecx
$LN7@Cons_val@2:

; 281  : 	}

  00011	5d		 pop	 ebp
  00012	c3		 ret	 0
??$_Cons_val@V?$allocator@H@std@@HAAH@std@@YAXAAV?$allocator@H@0@PAHAAH@Z ENDP ; std::_Cons_val<std::allocator<int>,int,int &>
_TEXT	ENDS
PUBLIC	??$_Cons_val@V?$allocator@H@std@@HABH@std@@YAXAAV?$allocator@H@0@PAHABH@Z ; std::_Cons_val<std::allocator<int>,int,int const &>
; Function compile flags: /Ogsp
;	COMDAT ??$_Cons_val@V?$allocator@H@std@@HABH@std@@YAXAAV?$allocator@H@0@PAHABH@Z
_TEXT	SEGMENT
__Alval$ = 8						; size = 4
__Pdest$ = 12						; size = 4
__Src$ = 16						; size = 4
??$_Cons_val@V?$allocator@H@std@@HABH@std@@YAXAAV?$allocator@H@0@PAHABH@Z PROC ; std::_Cons_val<std::allocator<int>,int,int const &>, COMDAT

; 279  : 	{	// construct using allocator

  00000	55		 push	 ebp
  00001	8b ec		 mov	 ebp, esp

; 280  : 	_Alval.construct(_Pdest, _STD forward<_Ty2>(_Src));

  00003	8b 45 0c	 mov	 eax, DWORD PTR __Pdest$[ebp]
  00006	85 c0		 test	 eax, eax
  00008	74 07		 je	 SHORT $LN9@Cons_val@3
  0000a	8b 4d 10	 mov	 ecx, DWORD PTR __Src$[ebp]
  0000d	8b 09		 mov	 ecx, DWORD PTR [ecx]
  0000f	89 08		 mov	 DWORD PTR [eax], ecx
$LN9@Cons_val@3:

; 281  : 	}

  00011	5d		 pop	 ebp
  00012	c3		 ret	 0
??$_Cons_val@V?$allocator@H@std@@HABH@std@@YAXAAV?$allocator@H@0@PAHABH@Z ENDP ; std::_Cons_val<std::allocator<int>,int,int const &>
_TEXT	ENDS
PUBLIC	??$_Cons_val@V?$allocator@PAVUserInfoNode@@@std@@PAVUserInfoNode@@ABQAV3@@std@@YAXAAV?$allocator@PAVUserInfoNode@@@0@PAPAVUserInfoNode@@ABQAV2@@Z ; std::_Cons_val<std::allocator<UserInfoNode *>,UserInfoNode *,UserInfoNode * const &>
; Function compile flags: /Ogsp
;	COMDAT ??$_Cons_val@V?$allocator@PAVUserInfoNode@@@std@@PAVUserInfoNode@@ABQAV3@@std@@YAXAAV?$allocator@PAVUserInfoNode@@@0@PAPAVUserInfoNode@@ABQAV2@@Z
_TEXT	SEGMENT
__Alval$ = 8						; size = 4
__Pdest$ = 12						; size = 4
__Src$ = 16						; size = 4
??$_Cons_val@V?$allocator@PAVUserInfoNode@@@std@@PAVUserInfoNode@@ABQAV3@@std@@YAXAAV?$allocator@PAVUserInfoNode@@@0@PAPAVUserInfoNode@@ABQAV2@@Z PROC ; std::_Cons_val<std::allocator<UserInfoNode *>,UserInfoNode *,UserInfoNode * const &>, COMDAT

; 279  : 	{	// construct using allocator

  00000	55		 push	 ebp
  00001	8b ec		 mov	 ebp, esp

; 280  : 	_Alval.construct(_Pdest, _STD forward<_Ty2>(_Src));

  00003	8b 45 0c	 mov	 eax, DWORD PTR __Pdest$[ebp]
  00006	85 c0		 test	 eax, eax
  00008	74 07		 je	 SHORT $LN9@Cons_val@4
  0000a	8b 4d 10	 mov	 ecx, DWORD PTR __Src$[ebp]
  0000d	8b 09		 mov	 ecx, DWORD PTR [ecx]
  0000f	89 08		 mov	 DWORD PTR [eax], ecx
$LN9@Cons_val@4:

; 281  : 	}

  00011	5d		 pop	 ebp
  00012	c3		 ret	 0
??$_Cons_val@V?$allocator@PAVUserInfoNode@@@std@@PAVUserInfoNode@@ABQAV3@@std@@YAXAAV?$allocator@PAVUserInfoNode@@@0@PAPAVUserInfoNode@@ABQAV2@@Z ENDP ; std::_Cons_val<std::allocator<UserInfoNode *>,UserInfoNode *,UserInfoNode * const &>
_TEXT	ENDS
PUBLIC	??$_Umove@PAPAVUserInfoNode@@@?$vector@PAVUserInfoNode@@V?$allocator@PAVUserInfoNode@@@std@@@std@@IAEPAPAVUserInfoNode@@PAPAV2@00@Z ; std::vector<UserInfoNode *,std::allocator<UserInfoNode *> >::_Umove<UserInfoNode * *>
; Function compile flags: /Ogsp
; File c:\program files (x86)\microsoft visual studio 10.0\vc\include\vector
;	COMDAT ??$_Umove@PAPAVUserInfoNode@@@?$vector@PAVUserInfoNode@@V?$allocator@PAVUserInfoNode@@@std@@@std@@IAEPAPAVUserInfoNode@@PAPAV2@00@Z
_TEXT	SEGMENT
__First$ = 8						; size = 4
__Last$ = 12						; size = 4
__Ptr$ = 16						; size = 4
??$_Umove@PAPAVUserInfoNode@@@?$vector@PAVUserInfoNode@@V?$allocator@PAVUserInfoNode@@@std@@@std@@IAEPAPAVUserInfoNode@@PAPAV2@00@Z PROC ; std::vector<UserInfoNode *,std::allocator<UserInfoNode *> >::_Umove<UserInfoNode * *>, COMDAT
; _this$ = ecx

; 1322 : 		pointer _Umove(_Iter _First, _Iter _Last, pointer _Ptr)

  00000	55		 push	 ebp
  00001	8b ec		 mov	 ebp, esp

; 1323 : 		{	// move initializing [_First, _Last), using allocator
; 1324 : 		return (_Uninitialized_move(_First, _Last,
; 1325 : 			_Ptr, this->_Alval));

  00003	83 c1 0c	 add	 ecx, 12			; 0000000cH
  00006	51		 push	 ecx
  00007	ff 75 10	 push	 DWORD PTR __Ptr$[ebp]
  0000a	ff 75 0c	 push	 DWORD PTR __Last$[ebp]
  0000d	ff 75 08	 push	 DWORD PTR __First$[ebp]
  00010	e8 00 00 00 00	 call	 ??$_Uninitialized_move@PAPAVUserInfoNode@@PAPAV1@V?$allocator@PAVUserInfoNode@@@std@@@std@@YAPAPAVUserInfoNode@@PAPAV1@00AAV?$allocator@PAVUserInfoNode@@@0@@Z ; std::_Uninitialized_move<UserInfoNode * *,UserInfoNode * *,std::allocator<UserInfoNode *> >
  00015	83 c4 10	 add	 esp, 16			; 00000010H

; 1326 : 		}

  00018	5d		 pop	 ebp
  00019	c2 0c 00	 ret	 12			; 0000000cH
??$_Umove@PAPAVUserInfoNode@@@?$vector@PAVUserInfoNode@@V?$allocator@PAVUserInfoNode@@@std@@@std@@IAEPAPAVUserInfoNode@@PAPAV2@00@Z ENDP ; std::vector<UserInfoNode *,std::allocator<UserInfoNode *> >::_Umove<UserInfoNode * *>
_TEXT	ENDS
PUBLIC	??0?$CEncrypt@H@@QAE@ABV0@@Z			; CEncrypt<int>::CEncrypt<int>
;	COMDAT xdata$x
; File d:\lost saga for developer\youtube\tutorial\source\src\lsclient\encryptvalue.h
xdata$x	SEGMENT
__unwindtable$??0?$CEncrypt@H@@QAE@ABV0@@Z DD 0ffffffffH
	DD	FLAT:__unwindfunclet$??0?$CEncrypt@H@@QAE@ABV0@@Z$0
__ehfuncinfo$??0?$CEncrypt@H@@QAE@ABV0@@Z DD 019930522H
	DD	01H
	DD	FLAT:__unwindtable$??0?$CEncrypt@H@@QAE@ABV0@@Z
	DD	2 DUP(00H)
	DD	2 DUP(00H)
	DD	00H
	DD	01H
; Function compile flags: /Ogsp
xdata$x	ENDS
;	COMDAT ??0?$CEncrypt@H@@QAE@ABV0@@Z
_TEXT	SEGMENT
_this$ = -16						; size = 4
__$EHRec$ = -12						; size = 12
_value$519377 = 8					; size = 4
_value$519372 = 8					; size = 4
_inValue$ = 8						; size = 4
??0?$CEncrypt@H@@QAE@ABV0@@Z PROC			; CEncrypt<int>::CEncrypt<int>, COMDAT
; _this$ = ecx

; 120  : 	CEncrypt( const CEncrypt<type> &inValue )   // 선언과 동시에 값을 대입하기 위해서

  00000	6a 04		 push	 4
  00002	b8 00 00 00 00	 mov	 eax, __ehhandler$??0?$CEncrypt@H@@QAE@ABV0@@Z
  00007	e8 00 00 00 00	 call	 __EH_prolog3
  0000c	8b f1		 mov	 esi, ecx
  0000e	89 75 f0	 mov	 DWORD PTR _this$[ebp], esi
  00011	8d 4e 0c	 lea	 ecx, DWORD PTR [esi+12]
  00014	c7 06 00 00 00
	00		 mov	 DWORD PTR [esi], OFFSET ??_7?$CEncrypt@H@@6B@
  0001a	e8 00 00 00 00	 call	 ??0ccddaabb@@QAE@XZ	; ccddaabb::ccddaabb
  0001f	83 65 fc 00	 and	 DWORD PTR __$EHRec$[ebp+8], 0

; 121  : 	{
; 122  : 		Init();

  00023	8b ce		 mov	 ecx, esi
  00025	e8 00 00 00 00	 call	 ?Init@?$CEncrypt@H@@AAEXXZ ; CEncrypt<int>::Init

; 123  : 		*this = inValue;

  0002a	8b 4d 08	 mov	 ecx, DWORD PTR _inValue$[ebp]
  0002d	8d 45 08	 lea	 eax, DWORD PTR _value$519372[ebp]
  00030	50		 push	 eax
  00031	e8 00 00 00 00	 call	 ?DecryptValueToPool@?$CEncrypt@H@@QAEXPAH@Z ; CEncrypt<int>::DecryptValueToPool
  00036	8b 45 08	 mov	 eax, DWORD PTR _value$519372[ebp]
  00039	89 45 08	 mov	 DWORD PTR _value$519377[ebp], eax
  0003c	8d 45 08	 lea	 eax, DWORD PTR _value$519377[ebp]
  0003f	50		 push	 eax
  00040	8b ce		 mov	 ecx, esi
  00042	e8 00 00 00 00	 call	 ?EncryptValueToPool@?$CEncrypt@H@@AAEXPBD@Z ; CEncrypt<int>::EncryptValueToPool

; 124  : 	}

  00047	8b c6		 mov	 eax, esi
  00049	e8 00 00 00 00	 call	 __EH_epilog3
  0004e	c2 04 00	 ret	 4
_TEXT	ENDS
;	COMDAT text$x
text$x	SEGMENT
__unwindfunclet$??0?$CEncrypt@H@@QAE@ABV0@@Z$0:
  00000	8b 4d f0	 mov	 ecx, DWORD PTR _this$[ebp]
  00003	83 c1 0c	 add	 ecx, 12			; 0000000cH
  00006	e9 00 00 00 00	 jmp	 ??1ccddaabb@@UAE@XZ	; ccddaabb::~ccddaabb
__ehhandler$??0?$CEncrypt@H@@QAE@ABV0@@Z:
  0000b	8b 54 24 08	 mov	 edx, DWORD PTR [esp+8]
  0000f	8d 42 0c	 lea	 eax, DWORD PTR [edx+12]
  00012	8b 4a ec	 mov	 ecx, DWORD PTR [edx-20]
  00015	33 c8		 xor	 ecx, eax
  00017	e8 00 00 00 00	 call	 @__security_check_cookie@4
  0001c	b8 00 00 00 00	 mov	 eax, OFFSET __ehfuncinfo$??0?$CEncrypt@H@@QAE@ABV0@@Z
  00021	e9 00 00 00 00	 jmp	 ___CxxFrameHandler3
text$x	ENDS
??0?$CEncrypt@H@@QAE@ABV0@@Z ENDP			; CEncrypt<int>::CEncrypt<int>
PUBLIC	??$_Dest_val@V?$allocator@H@std@@H@std@@YAXAAV?$allocator@H@0@PAH@Z ; std::_Dest_val<std::allocator<int>,int>
; Function compile flags: /Ogsp
; File c:\program files (x86)\microsoft visual studio 10.0\vc\include\xmemory
;	COMDAT ??$_Dest_val@V?$allocator@H@std@@H@std@@YAXAAV?$allocator@H@0@PAH@Z
_TEXT	SEGMENT
__Alval$ = 8						; size = 4
__Pdest$ = 12						; size = 4
??$_Dest_val@V?$allocator@H@std@@H@std@@YAXAAV?$allocator@H@0@PAH@Z PROC ; std::_Dest_val<std::allocator<int>,int>, COMDAT

; 287  : 	_Alval.destroy(_Pdest);
; 288  : 	}

  00000	c3		 ret	 0
??$_Dest_val@V?$allocator@H@std@@H@std@@YAXAAV?$allocator@H@0@PAH@Z ENDP ; std::_Dest_val<std::allocator<int>,int>
_TEXT	ENDS
PUBLIC	?Init@CHARACTER@@QAEXXZ				; CHARACTER::Init
; Function compile flags: /Ogsp
; File d:\lost saga for developer\youtube\tutorial\source\src\lsclient\characterinfo.h
;	COMDAT ?Init@CHARACTER@@QAEXXZ
_TEXT	SEGMENT
_value$519441 = -12					; size = 4
tv151 = -8						; size = 4
_value$519437 = -8					; size = 4
_value$519433 = -8					; size = 4
_value$519429 = -8					; size = 4
_value$519425 = -8					; size = 4
_value$519421 = -8					; size = 4
_value$519417 = -8					; size = 4
_value$519413 = -8					; size = 4
_value$519409 = -8					; size = 4
_value$519405 = -8					; size = 4
_value$519401 = -8					; size = 4
tv307 = -4						; size = 4
?Init@CHARACTER@@QAEXXZ PROC				; CHARACTER::Init, COMDAT
; _this$ = ecx

; 350  : 	{

  00000	55		 push	 ebp
  00001	8b ec		 mov	 ebp, esp
  00003	83 ec 0c	 sub	 esp, 12			; 0000000cH
  00006	53		 push	 ebx
  00007	56		 push	 esi
  00008	57		 push	 edi

; 351  : 		m_class_type	    = 0;

  00009	8d 45 f8	 lea	 eax, DWORD PTR _value$519401[ebp]
  0000c	33 ff		 xor	 edi, edi
  0000e	50		 push	 eax
  0000f	8b f1		 mov	 esi, ecx
  00011	89 7d f8	 mov	 DWORD PTR _value$519401[ebp], edi
  00014	e8 00 00 00 00	 call	 ?EncryptValueToPool@?$CEncrypt@H@@AAEXPBD@Z ; CEncrypt<int>::EncryptValueToPool

; 352  : 		m_kindred			= 1;

  00019	33 db		 xor	 ebx, ebx
  0001b	8d 45 f8	 lea	 eax, DWORD PTR _value$519405[ebp]
  0001e	43		 inc	 ebx
  0001f	50		 push	 eax
  00020	8d 4e 30	 lea	 ecx, DWORD PTR [esi+48]
  00023	89 5d f8	 mov	 DWORD PTR _value$519405[ebp], ebx
  00026	e8 00 00 00 00	 call	 ?EncryptValueToPool@?$CEncrypt@H@@AAEXPBD@Z ; CEncrypt<int>::EncryptValueToPool

; 353  : 		m_sex				= 1;

  0002b	8d 45 f8	 lea	 eax, DWORD PTR _value$519409[ebp]
  0002e	50		 push	 eax
  0002f	8d 4e 60	 lea	 ecx, DWORD PTR [esi+96]
  00032	89 5d f8	 mov	 DWORD PTR _value$519409[ebp], ebx
  00035	e8 00 00 00 00	 call	 ?EncryptValueToPool@?$CEncrypt@H@@AAEXPBD@Z ; CEncrypt<int>::EncryptValueToPool

; 354  : 		m_beard				= 1;

  0003a	8d 45 f8	 lea	 eax, DWORD PTR _value$519413[ebp]
  0003d	50		 push	 eax
  0003e	8d 8e 90 00 00
	00		 lea	 ecx, DWORD PTR [esi+144]
  00044	89 5d f8	 mov	 DWORD PTR _value$519413[ebp], ebx
  00047	e8 00 00 00 00	 call	 ?EncryptValueToPool@?$CEncrypt@H@@AAEXPBD@Z ; CEncrypt<int>::EncryptValueToPool

; 355  : 		m_face				= 1;

  0004c	8d 45 f8	 lea	 eax, DWORD PTR _value$519417[ebp]
  0004f	50		 push	 eax
  00050	8d 8e c0 00 00
	00		 lea	 ecx, DWORD PTR [esi+192]
  00056	89 5d f8	 mov	 DWORD PTR _value$519417[ebp], ebx
  00059	e8 00 00 00 00	 call	 ?EncryptValueToPool@?$CEncrypt@H@@AAEXPBD@Z ; CEncrypt<int>::EncryptValueToPool

; 356  : 		m_hair				= 1;

  0005e	8d 45 f8	 lea	 eax, DWORD PTR _value$519421[ebp]
  00061	50		 push	 eax
  00062	8d 8e f0 00 00
	00		 lea	 ecx, DWORD PTR [esi+240]
  00068	89 5d f8	 mov	 DWORD PTR _value$519421[ebp], ebx
  0006b	e8 00 00 00 00	 call	 ?EncryptValueToPool@?$CEncrypt@H@@AAEXPBD@Z ; CEncrypt<int>::EncryptValueToPool

; 357  : 		m_skin_color		= 1;

  00070	8d 45 f8	 lea	 eax, DWORD PTR _value$519425[ebp]
  00073	50		 push	 eax
  00074	8d 8e 20 01 00
	00		 lea	 ecx, DWORD PTR [esi+288]
  0007a	89 5d f8	 mov	 DWORD PTR _value$519425[ebp], ebx
  0007d	e8 00 00 00 00	 call	 ?EncryptValueToPool@?$CEncrypt@H@@AAEXPBD@Z ; CEncrypt<int>::EncryptValueToPool

; 358  : 		m_hair_color		= 1;

  00082	8d 45 f8	 lea	 eax, DWORD PTR _value$519429[ebp]
  00085	50		 push	 eax
  00086	8d 8e 50 01 00
	00		 lea	 ecx, DWORD PTR [esi+336]
  0008c	89 5d f8	 mov	 DWORD PTR _value$519429[ebp], ebx
  0008f	e8 00 00 00 00	 call	 ?EncryptValueToPool@?$CEncrypt@H@@AAEXPBD@Z ; CEncrypt<int>::EncryptValueToPool

; 359  : 		m_accessories		= 1;

  00094	8d 45 f8	 lea	 eax, DWORD PTR _value$519433[ebp]
  00097	50		 push	 eax
  00098	8d 8e 80 01 00
	00		 lea	 ecx, DWORD PTR [esi+384]
  0009e	89 5d f8	 mov	 DWORD PTR _value$519433[ebp], ebx
  000a1	e8 00 00 00 00	 call	 ?EncryptValueToPool@?$CEncrypt@H@@AAEXPBD@Z ; CEncrypt<int>::EncryptValueToPool

; 360  : 		m_underwear			= 1;

  000a6	8d 45 f8	 lea	 eax, DWORD PTR _value$519437[ebp]
  000a9	50		 push	 eax
  000aa	8d 8e b0 01 00
	00		 lea	 ecx, DWORD PTR [esi+432]
  000b0	89 5d f8	 mov	 DWORD PTR _value$519437[ebp], ebx
  000b3	e8 00 00 00 00	 call	 ?EncryptValueToPool@?$CEncrypt@H@@AAEXPBD@Z ; CEncrypt<int>::EncryptValueToPool
  000b8	8d 86 e0 01 00
	00		 lea	 eax, DWORD PTR [esi+480]
  000be	89 45 fc	 mov	 DWORD PTR tv307[ebp], eax
  000c1	c7 45 f8 04 00
	00 00		 mov	 DWORD PTR tv151[ebp], 4
$LL44@Init@2:

; 361  : 
; 362  : 		for(int i = 0; i < MAX_INVENTORY ; i++ )
; 363  : 			m_extra_item[i]	= 0;

  000c8	8b 4d fc	 mov	 ecx, DWORD PTR tv307[ebp]
  000cb	8d 45 f4	 lea	 eax, DWORD PTR _value$519441[ebp]
  000ce	50		 push	 eax
  000cf	89 7d f4	 mov	 DWORD PTR _value$519441[ebp], edi
  000d2	e8 00 00 00 00	 call	 ?EncryptValueToPool@?$CEncrypt@H@@AAEXPBD@Z ; CEncrypt<int>::EncryptValueToPool
  000d7	83 45 fc 30	 add	 DWORD PTR tv307[ebp], 48 ; 00000030H
  000db	ff 4d f8	 dec	 DWORD PTR tv151[ebp]
  000de	75 e8		 jne	 SHORT $LL44@Init@2

; 364  : 
; 365  : 		m_iSlotIndex		= -1;

  000e0	83 8e a0 02 00
	00 ff		 or	 DWORD PTR [esi+672], -1

; 366  : 		m_iLimitSecond		= 0;
; 367  : 
; 368  : 		m_sLeaderType		= CLT_GENERAL;

  000e7	33 c0		 xor	 eax, eax
  000e9	6a 04		 push	 4
  000eb	66 89 86 a8 02
	00 00		 mov	 WORD PTR [esi+680], ax

; 369  : 		m_sRentalType		= CRT_GENERAL;

  000f2	66 89 86 aa 02
	00 00		 mov	 WORD PTR [esi+682], ax

; 370  : 		m_dwRentalMinute	= 0;
; 371  : 		m_ePeriodType		= CPT_TIME;
; 372  : 
; 373  : 		m_bActive			= true;
; 374  : 		m_chExerciseStyle	= 0x00;

  000f9	66 89 86 b5 02
	00 00		 mov	 WORD PTR [esi+693], ax

; 375  : 
; 376  : 		m_iAwakeType		= AWAKE_NONE;
; 377  : 		m_iAwakeLimitTime	= 0;
; 378  : 
; 379  : 		m_eCharPowerUpType = PUGT_NONE;

  00100	88 86 bc 02 00
	00		 mov	 BYTE PTR [esi+700], al
  00106	89 be a4 02 00
	00		 mov	 DWORD PTR [esi+676], edi
  0010c	89 be ac 02 00
	00		 mov	 DWORD PTR [esi+684], edi
  00112	89 be b0 02 00
	00		 mov	 DWORD PTR [esi+688], edi
  00118	88 9e b4 02 00
	00		 mov	 BYTE PTR [esi+692], bl
  0011e	89 be b8 02 00
	00		 mov	 DWORD PTR [esi+696], edi
  00124	8d 86 c8 02 00
	00		 lea	 eax, DWORD PTR [esi+712]
  0012a	59		 pop	 ecx
$LL6@Init@2:

; 380  : 
; 381  : 		for(int i = 0; i < MAX_INVENTORY ; i++ )
; 382  : 			m_EquipCostume[i].Init();

  0012b	89 78 f8	 mov	 DWORD PTR [eax-8], edi
  0012e	89 78 fc	 mov	 DWORD PTR [eax-4], edi
  00131	89 38		 mov	 DWORD PTR [eax], edi
  00133	89 78 04	 mov	 DWORD PTR [eax+4], edi
  00136	83 c0 10	 add	 eax, 16			; 00000010H
  00139	49		 dec	 ecx
  0013a	75 ef		 jne	 SHORT $LL6@Init@2

; 383  : 		for(int i = 0; i < MAX_ACC_INVENTORY ; i++ )

  0013c	6a 03		 push	 3
  0013e	81 c6 08 03 00
	00		 add	 esi, 776		; 00000308H
  00144	58		 pop	 eax
$LL3@Init@2:

; 384  : 			m_EquipAccessory[i].Init();

  00145	89 7e f8	 mov	 DWORD PTR [esi-8], edi
  00148	89 7e fc	 mov	 DWORD PTR [esi-4], edi
  0014b	89 3e		 mov	 DWORD PTR [esi], edi
  0014d	83 c6 0c	 add	 esi, 12			; 0000000cH
  00150	48		 dec	 eax
  00151	75 f2		 jne	 SHORT $LL3@Init@2
  00153	5f		 pop	 edi
  00154	5e		 pop	 esi
  00155	5b		 pop	 ebx

; 385  : 	}

  00156	c9		 leave
  00157	c3		 ret	 0
?Init@CHARACTER@@QAEXXZ ENDP				; CHARACTER::Init
_TEXT	ENDS
PUBLIC	??4CHARACTER@@QAEAAU0@ABU0@@Z			; CHARACTER::operator=
; Function compile flags: /Ogsp
;	COMDAT ??4CHARACTER@@QAEAAU0@ABU0@@Z
_TEXT	SEGMENT
_value$519567 = -12					; size = 4
_value$519562 = -8					; size = 4
tv153 = -4						; size = 4
tv447 = 8						; size = 4
_value$519557 = 8					; size = 4
_value$519552 = 8					; size = 4
_value$519547 = 8					; size = 4
_value$519542 = 8					; size = 4
_value$519537 = 8					; size = 4
_value$519532 = 8					; size = 4
_value$519527 = 8					; size = 4
_value$519522 = 8					; size = 4
_value$519517 = 8					; size = 4
_value$519512 = 8					; size = 4
_value$519507 = 8					; size = 4
_value$519502 = 8					; size = 4
_value$519497 = 8					; size = 4
_value$519492 = 8					; size = 4
_value$519487 = 8					; size = 4
_value$519482 = 8					; size = 4
_value$519477 = 8					; size = 4
_value$519472 = 8					; size = 4
_value$519467 = 8					; size = 4
_value$519462 = 8					; size = 4
_rhs$ = 8						; size = 4
??4CHARACTER@@QAEAAU0@ABU0@@Z PROC			; CHARACTER::operator=, COMDAT
; _this$ = ecx

; 388  : 	{

  00000	55		 push	 ebp
  00001	8b ec		 mov	 ebp, esp
  00003	83 ec 0c	 sub	 esp, 12			; 0000000cH
  00006	53		 push	 ebx
  00007	56		 push	 esi

; 389  : 		m_class_type		= rhs.m_class_type;

  00008	8b 75 08	 mov	 esi, DWORD PTR _rhs$[ebp]
  0000b	57		 push	 edi
  0000c	8d 45 08	 lea	 eax, DWORD PTR _value$519462[ebp]
  0000f	8b d9		 mov	 ebx, ecx
  00011	50		 push	 eax
  00012	8b ce		 mov	 ecx, esi
  00014	e8 00 00 00 00	 call	 ?DecryptValueToPool@?$CEncrypt@H@@QAEXPAH@Z ; CEncrypt<int>::DecryptValueToPool
  00019	8b 45 08	 mov	 eax, DWORD PTR _value$519462[ebp]
  0001c	89 45 08	 mov	 DWORD PTR _value$519467[ebp], eax
  0001f	8d 45 08	 lea	 eax, DWORD PTR _value$519467[ebp]
  00022	50		 push	 eax
  00023	8b cb		 mov	 ecx, ebx
  00025	e8 00 00 00 00	 call	 ?EncryptValueToPool@?$CEncrypt@H@@AAEXPBD@Z ; CEncrypt<int>::EncryptValueToPool

; 390  : 		m_kindred			= rhs.m_kindred;

  0002a	8d 45 08	 lea	 eax, DWORD PTR _value$519472[ebp]
  0002d	50		 push	 eax
  0002e	8d 4e 30	 lea	 ecx, DWORD PTR [esi+48]
  00031	e8 00 00 00 00	 call	 ?DecryptValueToPool@?$CEncrypt@H@@QAEXPAH@Z ; CEncrypt<int>::DecryptValueToPool
  00036	8b 45 08	 mov	 eax, DWORD PTR _value$519472[ebp]
  00039	89 45 08	 mov	 DWORD PTR _value$519477[ebp], eax
  0003c	8d 45 08	 lea	 eax, DWORD PTR _value$519477[ebp]
  0003f	50		 push	 eax
  00040	8d 4b 30	 lea	 ecx, DWORD PTR [ebx+48]
  00043	e8 00 00 00 00	 call	 ?EncryptValueToPool@?$CEncrypt@H@@AAEXPBD@Z ; CEncrypt<int>::EncryptValueToPool

; 391  : 		m_sex				= rhs.m_sex;

  00048	8d 45 08	 lea	 eax, DWORD PTR _value$519482[ebp]
  0004b	50		 push	 eax
  0004c	8d 4e 60	 lea	 ecx, DWORD PTR [esi+96]
  0004f	e8 00 00 00 00	 call	 ?DecryptValueToPool@?$CEncrypt@H@@QAEXPAH@Z ; CEncrypt<int>::DecryptValueToPool
  00054	8b 45 08	 mov	 eax, DWORD PTR _value$519482[ebp]
  00057	89 45 08	 mov	 DWORD PTR _value$519487[ebp], eax
  0005a	8d 45 08	 lea	 eax, DWORD PTR _value$519487[ebp]
  0005d	50		 push	 eax
  0005e	8d 4b 60	 lea	 ecx, DWORD PTR [ebx+96]
  00061	e8 00 00 00 00	 call	 ?EncryptValueToPool@?$CEncrypt@H@@AAEXPBD@Z ; CEncrypt<int>::EncryptValueToPool

; 392  : 		m_beard				= rhs.m_beard;

  00066	8d 45 08	 lea	 eax, DWORD PTR _value$519492[ebp]
  00069	50		 push	 eax
  0006a	8d 8e 90 00 00
	00		 lea	 ecx, DWORD PTR [esi+144]
  00070	e8 00 00 00 00	 call	 ?DecryptValueToPool@?$CEncrypt@H@@QAEXPAH@Z ; CEncrypt<int>::DecryptValueToPool
  00075	8b 45 08	 mov	 eax, DWORD PTR _value$519492[ebp]
  00078	89 45 08	 mov	 DWORD PTR _value$519497[ebp], eax
  0007b	8d 45 08	 lea	 eax, DWORD PTR _value$519497[ebp]
  0007e	50		 push	 eax
  0007f	8d 8b 90 00 00
	00		 lea	 ecx, DWORD PTR [ebx+144]
  00085	e8 00 00 00 00	 call	 ?EncryptValueToPool@?$CEncrypt@H@@AAEXPBD@Z ; CEncrypt<int>::EncryptValueToPool

; 393  : 		m_face				= rhs.m_face;

  0008a	8d 45 08	 lea	 eax, DWORD PTR _value$519502[ebp]
  0008d	50		 push	 eax
  0008e	8d 8e c0 00 00
	00		 lea	 ecx, DWORD PTR [esi+192]
  00094	e8 00 00 00 00	 call	 ?DecryptValueToPool@?$CEncrypt@H@@QAEXPAH@Z ; CEncrypt<int>::DecryptValueToPool
  00099	8b 45 08	 mov	 eax, DWORD PTR _value$519502[ebp]
  0009c	89 45 08	 mov	 DWORD PTR _value$519507[ebp], eax
  0009f	8d 45 08	 lea	 eax, DWORD PTR _value$519507[ebp]
  000a2	50		 push	 eax
  000a3	8d 8b c0 00 00
	00		 lea	 ecx, DWORD PTR [ebx+192]
  000a9	e8 00 00 00 00	 call	 ?EncryptValueToPool@?$CEncrypt@H@@AAEXPBD@Z ; CEncrypt<int>::EncryptValueToPool

; 394  : 		m_hair				= rhs.m_hair;

  000ae	8d 45 08	 lea	 eax, DWORD PTR _value$519512[ebp]
  000b1	50		 push	 eax
  000b2	8d 8e f0 00 00
	00		 lea	 ecx, DWORD PTR [esi+240]
  000b8	e8 00 00 00 00	 call	 ?DecryptValueToPool@?$CEncrypt@H@@QAEXPAH@Z ; CEncrypt<int>::DecryptValueToPool
  000bd	8b 45 08	 mov	 eax, DWORD PTR _value$519512[ebp]
  000c0	89 45 08	 mov	 DWORD PTR _value$519517[ebp], eax
  000c3	8d 45 08	 lea	 eax, DWORD PTR _value$519517[ebp]
  000c6	50		 push	 eax
  000c7	8d 8b f0 00 00
	00		 lea	 ecx, DWORD PTR [ebx+240]
  000cd	e8 00 00 00 00	 call	 ?EncryptValueToPool@?$CEncrypt@H@@AAEXPBD@Z ; CEncrypt<int>::EncryptValueToPool

; 395  : 		m_skin_color		= rhs.m_skin_color;

  000d2	8d 45 08	 lea	 eax, DWORD PTR _value$519522[ebp]
  000d5	50		 push	 eax
  000d6	8d 8e 20 01 00
	00		 lea	 ecx, DWORD PTR [esi+288]
  000dc	e8 00 00 00 00	 call	 ?DecryptValueToPool@?$CEncrypt@H@@QAEXPAH@Z ; CEncrypt<int>::DecryptValueToPool
  000e1	8b 45 08	 mov	 eax, DWORD PTR _value$519522[ebp]
  000e4	89 45 08	 mov	 DWORD PTR _value$519527[ebp], eax
  000e7	8d 45 08	 lea	 eax, DWORD PTR _value$519527[ebp]
  000ea	50		 push	 eax
  000eb	8d 8b 20 01 00
	00		 lea	 ecx, DWORD PTR [ebx+288]
  000f1	e8 00 00 00 00	 call	 ?EncryptValueToPool@?$CEncrypt@H@@AAEXPBD@Z ; CEncrypt<int>::EncryptValueToPool

; 396  : 		m_hair_color		= rhs.m_hair_color;

  000f6	8d 45 08	 lea	 eax, DWORD PTR _value$519532[ebp]
  000f9	50		 push	 eax
  000fa	8d 8e 50 01 00
	00		 lea	 ecx, DWORD PTR [esi+336]
  00100	e8 00 00 00 00	 call	 ?DecryptValueToPool@?$CEncrypt@H@@QAEXPAH@Z ; CEncrypt<int>::DecryptValueToPool
  00105	8b 45 08	 mov	 eax, DWORD PTR _value$519532[ebp]
  00108	89 45 08	 mov	 DWORD PTR _value$519537[ebp], eax
  0010b	8d 45 08	 lea	 eax, DWORD PTR _value$519537[ebp]
  0010e	50		 push	 eax
  0010f	8d 8b 50 01 00
	00		 lea	 ecx, DWORD PTR [ebx+336]
  00115	e8 00 00 00 00	 call	 ?EncryptValueToPool@?$CEncrypt@H@@AAEXPBD@Z ; CEncrypt<int>::EncryptValueToPool

; 397  : 		m_accessories		= rhs.m_accessories;

  0011a	8d 45 08	 lea	 eax, DWORD PTR _value$519542[ebp]
  0011d	50		 push	 eax
  0011e	8d 8e 80 01 00
	00		 lea	 ecx, DWORD PTR [esi+384]
  00124	e8 00 00 00 00	 call	 ?DecryptValueToPool@?$CEncrypt@H@@QAEXPAH@Z ; CEncrypt<int>::DecryptValueToPool
  00129	8b 45 08	 mov	 eax, DWORD PTR _value$519542[ebp]
  0012c	89 45 08	 mov	 DWORD PTR _value$519547[ebp], eax
  0012f	8d 45 08	 lea	 eax, DWORD PTR _value$519547[ebp]
  00132	50		 push	 eax
  00133	8d 8b 80 01 00
	00		 lea	 ecx, DWORD PTR [ebx+384]
  00139	e8 00 00 00 00	 call	 ?EncryptValueToPool@?$CEncrypt@H@@AAEXPBD@Z ; CEncrypt<int>::EncryptValueToPool

; 398  : 		m_underwear			= rhs.m_underwear;

  0013e	8d 45 08	 lea	 eax, DWORD PTR _value$519552[ebp]
  00141	50		 push	 eax
  00142	8d 8e b0 01 00
	00		 lea	 ecx, DWORD PTR [esi+432]
  00148	e8 00 00 00 00	 call	 ?DecryptValueToPool@?$CEncrypt@H@@QAEXPAH@Z ; CEncrypt<int>::DecryptValueToPool
  0014d	8b 45 08	 mov	 eax, DWORD PTR _value$519552[ebp]
  00150	89 45 08	 mov	 DWORD PTR _value$519557[ebp], eax
  00153	8d 45 08	 lea	 eax, DWORD PTR _value$519557[ebp]
  00156	50		 push	 eax
  00157	8d 8b b0 01 00
	00		 lea	 ecx, DWORD PTR [ebx+432]
  0015d	e8 00 00 00 00	 call	 ?EncryptValueToPool@?$CEncrypt@H@@AAEXPBD@Z ; CEncrypt<int>::EncryptValueToPool

; 399  : 
; 400  : 		for( int i = 0; i < MAX_INVENTORY ; i++ )

  00162	89 75 08	 mov	 DWORD PTR tv447[ebp], esi
  00165	29 5d 08	 sub	 DWORD PTR tv447[ebp], ebx
  00168	8d bb e0 01 00
	00		 lea	 edi, DWORD PTR [ebx+480]
  0016e	c7 45 fc 04 00
	00 00		 mov	 DWORD PTR tv153[ebp], 4
$LL63@operator@2:

; 401  : 			m_extra_item[i]	= rhs.m_extra_item[i];

  00175	8b 4d 08	 mov	 ecx, DWORD PTR tv447[ebp]
  00178	8d 45 f8	 lea	 eax, DWORD PTR _value$519562[ebp]
  0017b	50		 push	 eax
  0017c	8d 0c 39	 lea	 ecx, DWORD PTR [ecx+edi]
  0017f	e8 00 00 00 00	 call	 ?DecryptValueToPool@?$CEncrypt@H@@QAEXPAH@Z ; CEncrypt<int>::DecryptValueToPool
  00184	8b 45 f8	 mov	 eax, DWORD PTR _value$519562[ebp]
  00187	89 45 f4	 mov	 DWORD PTR _value$519567[ebp], eax
  0018a	8d 45 f4	 lea	 eax, DWORD PTR _value$519567[ebp]
  0018d	50		 push	 eax
  0018e	8b cf		 mov	 ecx, edi
  00190	e8 00 00 00 00	 call	 ?EncryptValueToPool@?$CEncrypt@H@@AAEXPBD@Z ; CEncrypt<int>::EncryptValueToPool
  00195	83 c7 30	 add	 edi, 48			; 00000030H
  00198	ff 4d fc	 dec	 DWORD PTR tv153[ebp]
  0019b	75 d8		 jne	 SHORT $LL63@operator@2

; 402  : 
; 403  : 		m_iSlotIndex		= rhs.m_iSlotIndex;

  0019d	8b 86 a0 02 00
	00		 mov	 eax, DWORD PTR [esi+672]
  001a3	89 83 a0 02 00
	00		 mov	 DWORD PTR [ebx+672], eax

; 404  : 		m_iLimitSecond		= rhs.m_iLimitSecond;

  001a9	8b 86 a4 02 00
	00		 mov	 eax, DWORD PTR [esi+676]
  001af	89 83 a4 02 00
	00		 mov	 DWORD PTR [ebx+676], eax

; 405  : 
; 406  : 		m_sLeaderType		= rhs.m_sLeaderType;

  001b5	66 8b 86 a8 02
	00 00		 mov	 ax, WORD PTR [esi+680]
  001bc	66 89 83 a8 02
	00 00		 mov	 WORD PTR [ebx+680], ax

; 407  : 		m_sRentalType		= rhs.m_sRentalType;

  001c3	66 8b 86 aa 02
	00 00		 mov	 ax, WORD PTR [esi+682]
  001ca	66 89 83 aa 02
	00 00		 mov	 WORD PTR [ebx+682], ax

; 408  : 		m_dwRentalMinute	= rhs.m_dwRentalMinute;

  001d1	8b 86 ac 02 00
	00		 mov	 eax, DWORD PTR [esi+684]
  001d7	89 83 ac 02 00
	00		 mov	 DWORD PTR [ebx+684], eax

; 409  : 		m_ePeriodType		= rhs.m_ePeriodType;

  001dd	8b 86 b0 02 00
	00		 mov	 eax, DWORD PTR [esi+688]
  001e3	89 83 b0 02 00
	00		 mov	 DWORD PTR [ebx+688], eax

; 410  : 
; 411  : 		m_bActive			= rhs.m_bActive;

  001e9	8a 86 b4 02 00
	00		 mov	 al, BYTE PTR [esi+692]
  001ef	88 83 b4 02 00
	00		 mov	 BYTE PTR [ebx+692], al

; 412  : 		m_chExerciseStyle	= rhs.m_chExerciseStyle;

  001f5	8a 86 b5 02 00
	00		 mov	 al, BYTE PTR [esi+693]
  001fb	88 83 b5 02 00
	00		 mov	 BYTE PTR [ebx+693], al

; 413  : 
; 414  : 		m_iAwakeType		= rhs.m_iAwakeType;

  00201	8a 86 b6 02 00
	00		 mov	 al, BYTE PTR [esi+694]
  00207	88 83 b6 02 00
	00		 mov	 BYTE PTR [ebx+694], al

; 415  : 		m_iAwakeLimitTime	= rhs.m_iAwakeLimitTime;

  0020d	8b 86 b8 02 00
	00		 mov	 eax, DWORD PTR [esi+696]
  00213	89 83 b8 02 00
	00		 mov	 DWORD PTR [ebx+696], eax

; 416  : 
; 417  : 		m_eCharPowerUpType = rhs.m_eCharPowerUpType;

  00219	8a 86 bc 02 00
	00		 mov	 al, BYTE PTR [esi+700]
  0021f	6a 04		 push	 4
  00221	88 83 bc 02 00
	00		 mov	 BYTE PTR [ebx+700], al
  00227	8d 83 c0 02 00
	00		 lea	 eax, DWORD PTR [ebx+704]
  0022d	59		 pop	 ecx
$LL62@operator@2:

; 418  : 
; 419  : 		for(int i = 0; i < MAX_INVENTORY ; i++ )
; 420  : 			m_EquipCostume[i] = rhs.m_EquipCostume[i];

  0022e	8b 55 08	 mov	 edx, DWORD PTR tv447[ebp]
  00231	8d 34 10	 lea	 esi, DWORD PTR [eax+edx]
  00234	8b f8		 mov	 edi, eax
  00236	a5		 movsd
  00237	a5		 movsd
  00238	a5		 movsd
  00239	83 c0 10	 add	 eax, 16			; 00000010H
  0023c	49		 dec	 ecx
  0023d	a5		 movsd
  0023e	75 ee		 jne	 SHORT $LL62@operator@2

; 421  : 		for(int i = 0; i < MAX_ACC_INVENTORY ; i++ )

  00240	6a 03		 push	 3
  00242	8d 83 00 03 00
	00		 lea	 eax, DWORD PTR [ebx+768]
  00248	59		 pop	 ecx
$LL3@operator@2:

; 422  : 			m_EquipAccessory[i] = rhs.m_EquipAccessory[i];

  00249	8b 55 08	 mov	 edx, DWORD PTR tv447[ebp]
  0024c	8d 34 10	 lea	 esi, DWORD PTR [eax+edx]
  0024f	8b f8		 mov	 edi, eax
  00251	a5		 movsd
  00252	a5		 movsd
  00253	83 c0 0c	 add	 eax, 12			; 0000000cH
  00256	49		 dec	 ecx
  00257	a5		 movsd
  00258	75 ef		 jne	 SHORT $LL3@operator@2

; 423  : 
; 424  : 		return *this;

  0025a	5f		 pop	 edi
  0025b	5e		 pop	 esi
  0025c	8b c3		 mov	 eax, ebx
  0025e	5b		 pop	 ebx

; 425  : 	}

  0025f	c9		 leave
  00260	c2 04 00	 ret	 4
??4CHARACTER@@QAEAAU0@ABU0@@Z ENDP			; CHARACTER::operator=
_TEXT	ENDS
PUBLIC	??0?$vector@HV?$allocator@H@std@@@std@@QAE@XZ	; std::vector<int,std::allocator<int> >::vector<int,std::allocator<int> >
; Function compile flags: /Ogsp
; File c:\program files (x86)\microsoft visual studio 10.0\vc\include\vector
;	COMDAT ??0?$vector@HV?$allocator@H@std@@@std@@QAE@XZ
_TEXT	SEGMENT
??0?$vector@HV?$allocator@H@std@@@std@@QAE@XZ PROC	; std::vector<int,std::allocator<int> >::vector<int,std::allocator<int> >, COMDAT
; _this$ = ecx

; 507  : 		{	// construct empty vector

  00000	8b c1		 mov	 eax, ecx
  00002	33 c9		 xor	 ecx, ecx
  00004	89 08		 mov	 DWORD PTR [eax], ecx
  00006	89 48 04	 mov	 DWORD PTR [eax+4], ecx
  00009	89 48 08	 mov	 DWORD PTR [eax+8], ecx

; 508  : 		}

  0000c	c3		 ret	 0
??0?$vector@HV?$allocator@H@std@@@std@@QAE@XZ ENDP	; std::vector<int,std::allocator<int> >::vector<int,std::allocator<int> >
_TEXT	ENDS
PUBLIC	??H?$_Vector_iterator@V?$_Vector_val@HV?$allocator@H@std@@@std@@@std@@QBE?AV01@H@Z ; std::_Vector_iterator<std::_Vector_val<int,std::allocator<int> > >::operator+
; Function compile flags: /Ogsp
;	COMDAT ??H?$_Vector_iterator@V?$_Vector_val@HV?$allocator@H@std@@@std@@@std@@QBE?AV01@H@Z
_TEXT	SEGMENT
___$ReturnUdt$ = 8					; size = 4
__Off$ = 12						; size = 4
??H?$_Vector_iterator@V?$_Vector_val@HV?$allocator@H@std@@@std@@@std@@QBE?AV01@H@Z PROC ; std::_Vector_iterator<std::_Vector_val<int,std::allocator<int> > >::operator+, COMDAT
; _this$ = ecx

; 363  : 		{	// return this + integer

  00000	55		 push	 ebp
  00001	8b ec		 mov	 ebp, esp

; 364  : 		_Myiter _Tmp = *this;
; 365  : 		return (_Tmp += _Off);

  00003	8b 01		 mov	 eax, DWORD PTR [ecx]
  00005	8b 4d 0c	 mov	 ecx, DWORD PTR __Off$[ebp]
  00008	8d 0c 88	 lea	 ecx, DWORD PTR [eax+ecx*4]
  0000b	8b 45 08	 mov	 eax, DWORD PTR ___$ReturnUdt$[ebp]
  0000e	89 08		 mov	 DWORD PTR [eax], ecx

; 366  : 		}

  00010	5d		 pop	 ebp
  00011	c2 08 00	 ret	 8
??H?$_Vector_iterator@V?$_Vector_val@HV?$allocator@H@std@@@std@@@std@@QBE?AV01@H@Z ENDP ; std::_Vector_iterator<std::_Vector_val<int,std::allocator<int> > >::operator+
_TEXT	ENDS
PUBLIC	?_Destroy@?$vector@HV?$allocator@H@std@@@std@@IAEXPAH0@Z ; std::vector<int,std::allocator<int> >::_Destroy
; Function compile flags: /Ogsp
;	COMDAT ?_Destroy@?$vector@HV?$allocator@H@std@@@std@@IAEXPAH0@Z
_TEXT	SEGMENT
__First$ = 8						; size = 4
__Last$ = 12						; size = 4
?_Destroy@?$vector@HV?$allocator@H@std@@@std@@IAEXPAH0@Z PROC ; std::vector<int,std::allocator<int> >::_Destroy, COMDAT
; _this$ = ecx

; 1270 : 		_Destroy_range(_First, _Last, this->_Alval);
; 1271 : 		}

  00000	c2 08 00	 ret	 8
?_Destroy@?$vector@HV?$allocator@H@std@@@std@@IAEXPAH0@Z ENDP ; std::vector<int,std::allocator<int> >::_Destroy
_TEXT	ENDS
PUBLIC	??9?$_Vector_const_iterator@V?$_Vector_val@HV?$allocator@H@std@@@std@@@std@@QBE_NABV01@@Z ; std::_Vector_const_iterator<std::_Vector_val<int,std::allocator<int> > >::operator!=
; Function compile flags: /Ogsp
;	COMDAT ??9?$_Vector_const_iterator@V?$_Vector_val@HV?$allocator@H@std@@@std@@@std@@QBE_NABV01@@Z
_TEXT	SEGMENT
__Right$ = 8						; size = 4
??9?$_Vector_const_iterator@V?$_Vector_val@HV?$allocator@H@std@@@std@@@std@@QBE_NABV01@@Z PROC ; std::_Vector_const_iterator<std::_Vector_val<int,std::allocator<int> > >::operator!=, COMDAT
; _this$ = ecx

; 207  : 		{	// test for iterator inequality

  00000	55		 push	 ebp
  00001	8b ec		 mov	 ebp, esp

; 208  : 		return (!(*this == _Right));

  00003	8b 01		 mov	 eax, DWORD PTR [ecx]
  00005	8b 55 08	 mov	 edx, DWORD PTR __Right$[ebp]
  00008	33 c9		 xor	 ecx, ecx
  0000a	3b 02		 cmp	 eax, DWORD PTR [edx]
  0000c	0f 95 c0	 setne	 al

; 209  : 		}

  0000f	5d		 pop	 ebp
  00010	c2 04 00	 ret	 4
??9?$_Vector_const_iterator@V?$_Vector_val@HV?$allocator@H@std@@@std@@@std@@QBE_NABV01@@Z ENDP ; std::_Vector_const_iterator<std::_Vector_val<int,std::allocator<int> > >::operator!=
_TEXT	ENDS
PUBLIC	??$copy@V?$_Vector_const_iterator@V?$_Vector_val@HV?$allocator@H@std@@@std@@@std@@V?$_Vector_iterator@V?$_Vector_val@HV?$allocator@H@std@@@std@@@2@@std@@YA?AV?$_Vector_iterator@V?$_Vector_val@HV?$allocator@H@std@@@std@@@0@V?$_Vector_const_iterator@V?$_Vector_val@HV?$allocator@H@std@@@std@@@0@0V10@@Z ; std::copy<std::_Vector_const_iterator<std::_Vector_val<int,std::allocator<int> > >,std::_Vector_iterator<std::_Vector_val<int,std::allocator<int> > > >
; Function compile flags: /Ogsp
; File c:\program files (x86)\microsoft visual studio 10.0\vc\include\xutility
;	COMDAT ??$copy@V?$_Vector_const_iterator@V?$_Vector_val@HV?$allocator@H@std@@@std@@@std@@V?$_Vector_iterator@V?$_Vector_val@HV?$allocator@H@std@@@std@@@2@@std@@YA?AV?$_Vector_iterator@V?$_Vector_val@HV?$allocator@H@std@@@std@@@0@V?$_Vector_const_iterator@V?$_Vector_val@HV?$allocator@H@std@@@std@@@0@0V10@@Z
_TEXT	SEGMENT
___$ReturnUdt$ = 8					; size = 4
__First$ = 12						; size = 4
__Last$ = 16						; size = 4
__Cat$519676 = 20					; size = 1
__Dest$ = 20						; size = 4
??$copy@V?$_Vector_const_iterator@V?$_Vector_val@HV?$allocator@H@std@@@std@@@std@@V?$_Vector_iterator@V?$_Vector_val@HV?$allocator@H@std@@@std@@@2@@std@@YA?AV?$_Vector_iterator@V?$_Vector_val@HV?$allocator@H@std@@@std@@@0@V?$_Vector_const_iterator@V?$_Vector_val@HV?$allocator@H@std@@@std@@@0@0V10@@Z PROC ; std::copy<std::_Vector_const_iterator<std::_Vector_val<int,std::allocator<int> > >,std::_Vector_iterator<std::_Vector_val<int,std::allocator<int> > > >, COMDAT

; 2173 : 	{	// copy [_First, _Last) to [_Dest, ...)

  00000	55		 push	 ebp
  00001	8b ec		 mov	 ebp, esp

; 2174 : 	return (_Rechecked(_Dest,
; 2175 : 		_Copy_impl(_Unchecked(_First), _Unchecked(_Last),
; 2176 : 			_Unchecked(_Dest))));

  00003	ff 75 14	 push	 DWORD PTR __Cat$519676[ebp]
  00006	ff 75 14	 push	 DWORD PTR __Dest$[ebp]
  00009	ff 75 10	 push	 DWORD PTR __Last$[ebp]
  0000c	ff 75 0c	 push	 DWORD PTR __First$[ebp]
  0000f	e8 00 00 00 00	 call	 ??$_Copy_impl@PBHPAH@std@@YAPAHPBH0PAHU_Scalar_ptr_iterator_tag@0@@Z ; std::_Copy_impl<int const *,int *>
  00014	8b 4d 08	 mov	 ecx, DWORD PTR ___$ReturnUdt$[ebp]
  00017	89 01		 mov	 DWORD PTR [ecx], eax
  00019	83 c4 10	 add	 esp, 16			; 00000010H
  0001c	8b c1		 mov	 eax, ecx

; 2177 : 	}

  0001e	5d		 pop	 ebp
  0001f	c3		 ret	 0
??$copy@V?$_Vector_const_iterator@V?$_Vector_val@HV?$allocator@H@std@@@std@@@std@@V?$_Vector_iterator@V?$_Vector_val@HV?$allocator@H@std@@@std@@@2@@std@@YA?AV?$_Vector_iterator@V?$_Vector_val@HV?$allocator@H@std@@@std@@@0@V?$_Vector_const_iterator@V?$_Vector_val@HV?$allocator@H@std@@@std@@@0@0V10@@Z ENDP ; std::copy<std::_Vector_const_iterator<std::_Vector_val<int,std::allocator<int> > >,std::_Vector_iterator<std::_Vector_val<int,std::allocator<int> > > >
_TEXT	ENDS
PUBLIC	??$_Uninitialized_default_fill_n@PAHIHV?$allocator@H@std@@@std@@YAXPAHIPBHAAV?$allocator@H@0@@Z ; std::_Uninitialized_default_fill_n<int *,unsigned int,int,std::allocator<int> >
; Function compile flags: /Ogsp
; File c:\program files (x86)\microsoft visual studio 10.0\vc\include\memory
;	COMDAT ??$_Uninitialized_default_fill_n@PAHIHV?$allocator@H@std@@@std@@YAXPAHIPBHAAV?$allocator@H@0@@Z
_TEXT	SEGMENT
$T519701 = -4						; size = 4
__First$ = 8						; size = 4
__Count$ = 12						; size = 4
__Pval$ = 16						; size = 4
__Al$ = 20						; size = 4
??$_Uninitialized_default_fill_n@PAHIHV?$allocator@H@std@@@std@@YAXPAHIPBHAAV?$allocator@H@0@@Z PROC ; std::_Uninitialized_default_fill_n<int *,unsigned int,int,std::allocator<int> >, COMDAT

; 670  : 	{	// copy _Count * _Val_type(_First)() to raw _First, using _Al

  00000	55		 push	 ebp
  00001	8b ec		 mov	 ebp, esp
  00003	51		 push	 ecx

; 671  : 	_Uninit_def_fill_n(_First, _Count, _Pval, _Al,
; 672  : 		_Val_type(_First), _Ptr_cat(_First, _First));

  00004	83 65 fc 00	 and	 DWORD PTR $T519701[ebp], 0
  00008	8d 45 fc	 lea	 eax, DWORD PTR $T519701[ebp]
  0000b	50		 push	 eax
  0000c	ff 75 0c	 push	 DWORD PTR __Count$[ebp]
  0000f	ff 75 08	 push	 DWORD PTR __First$[ebp]
  00012	e8 00 00 00 00	 call	 ??$_Fill_n@PAHIH@std@@YAXPAHIABH@Z ; std::_Fill_n<int *,unsigned int,int>
  00017	83 c4 0c	 add	 esp, 12			; 0000000cH

; 673  : 	}

  0001a	c9		 leave
  0001b	c3		 ret	 0
??$_Uninitialized_default_fill_n@PAHIHV?$allocator@H@std@@@std@@YAXPAHIPBHAAV?$allocator@H@0@@Z ENDP ; std::_Uninitialized_default_fill_n<int *,unsigned int,int,std::allocator<int> >
_TEXT	ENDS
PUBLIC	??$_Umove@PAH@?$vector@HV?$allocator@H@std@@@std@@IAEPAHPAH00@Z ; std::vector<int,std::allocator<int> >::_Umove<int *>
; Function compile flags: /Ogsp
; File c:\program files (x86)\microsoft visual studio 10.0\vc\include\vector
;	COMDAT ??$_Umove@PAH@?$vector@HV?$allocator@H@std@@@std@@IAEPAHPAH00@Z
_TEXT	SEGMENT
__First$ = 8						; size = 4
__Last$ = 12						; size = 4
__Ptr$ = 16						; size = 4
??$_Umove@PAH@?$vector@HV?$allocator@H@std@@@std@@IAEPAHPAH00@Z PROC ; std::vector<int,std::allocator<int> >::_Umove<int *>, COMDAT
; _this$ = ecx

; 1322 : 		pointer _Umove(_Iter _First, _Iter _Last, pointer _Ptr)

  00000	55		 push	 ebp
  00001	8b ec		 mov	 ebp, esp

; 1323 : 		{	// move initializing [_First, _Last), using allocator
; 1324 : 		return (_Uninitialized_move(_First, _Last,
; 1325 : 			_Ptr, this->_Alval));

  00003	83 c1 0c	 add	 ecx, 12			; 0000000cH
  00006	51		 push	 ecx
  00007	ff 75 10	 push	 DWORD PTR __Ptr$[ebp]
  0000a	ff 75 0c	 push	 DWORD PTR __Last$[ebp]
  0000d	ff 75 08	 push	 DWORD PTR __First$[ebp]
  00010	e8 00 00 00 00	 call	 ??$_Uninitialized_move@PAHPAHV?$allocator@H@std@@@std@@YAPAHPAH00AAV?$allocator@H@0@@Z ; std::_Uninitialized_move<int *,int *,std::allocator<int> >
  00015	83 c4 10	 add	 esp, 16			; 00000010H

; 1326 : 		}

  00018	5d		 pop	 ebp
  00019	c2 0c 00	 ret	 12			; 0000000cH
??$_Umove@PAH@?$vector@HV?$allocator@H@std@@@std@@IAEPAHPAH00@Z ENDP ; std::vector<int,std::allocator<int> >::_Umove<int *>
_TEXT	ENDS
PUBLIC	?SetCharAwake@UserInfoCharData@@QAEXHH@Z	; UserInfoCharData::SetCharAwake
; Function compile flags: /Ogsp
; File d:\lost saga for developer\youtube\tutorial\source\src\lsclient\gui\iouserinfomgr.cpp
;	COMDAT ?SetCharAwake@UserInfoCharData@@QAEXHH@Z
_TEXT	SEGMENT
_value$519791 = -4					; size = 4
_iClassType$ = 8					; size = 4
_iAwakeType$ = 12					; size = 4
?SetCharAwake@UserInfoCharData@@QAEXHH@Z PROC		; UserInfoCharData::SetCharAwake, COMDAT
; _this$ = ecx

; 180  : {

  00000	55		 push	 ebp
  00001	8b ec		 mov	 ebp, esp
  00003	51		 push	 ecx
  00004	56		 push	 esi
  00005	57		 push	 edi
  00006	8b f9		 mov	 edi, ecx

; 181  : 	CharInfoDataVec::iterator iter = m_CharDataList.begin();

  00008	8b 77 04	 mov	 esi, DWORD PTR [edi+4]
  0000b	eb 23		 jmp	 SHORT $LN41@SetCharAwa

; 182  : 	for(;iter != m_CharDataList.end();++iter)

$LL17@SetCharAwa:

; 183  : 	{
; 184  : 		CharInfoData &rkData = *iter;
; 185  : 		if( rkData.m_CharInfo.m_class_type == iClassType )

  0000d	8d 45 fc	 lea	 eax, DWORD PTR _value$519791[ebp]
  00010	50		 push	 eax
  00011	8d 4e 08	 lea	 ecx, DWORD PTR [esi+8]
  00014	e8 00 00 00 00	 call	 ?DecryptValueToPool@?$CEncrypt@H@@QAEXPAH@Z ; CEncrypt<int>::DecryptValueToPool
  00019	8b 45 fc	 mov	 eax, DWORD PTR _value$519791[ebp]
  0001c	3b 45 08	 cmp	 eax, DWORD PTR _iClassType$[ebp]
  0001f	75 09		 jne	 SHORT $LN3@SetCharAwa

; 186  : 		{
; 187  : 			rkData.m_iAwakeType	= iAwakeType;

  00021	8b 45 0c	 mov	 eax, DWORD PTR _iAwakeType$[ebp]
  00024	89 86 bc 03 00
	00		 mov	 DWORD PTR [esi+956], eax
$LN3@SetCharAwa:

; 182  : 	for(;iter != m_CharDataList.end();++iter)

  0002a	81 c6 c0 03 00
	00		 add	 esi, 960		; 000003c0H
$LN41@SetCharAwa:
  00030	3b 77 08	 cmp	 esi, DWORD PTR [edi+8]
  00033	75 d8		 jne	 SHORT $LL17@SetCharAwa
  00035	5f		 pop	 edi
  00036	5e		 pop	 esi

; 188  : 		}
; 189  : 	}
; 190  : }

  00037	c9		 leave
  00038	c2 08 00	 ret	 8
?SetCharAwake@UserInfoCharData@@QAEXHH@Z ENDP		; UserInfoCharData::SetCharAwake
_TEXT	ENDS
PUBLIC	?SetCharPowerUp@UserInfoCharData@@QAEXHH@Z	; UserInfoCharData::SetCharPowerUp
; Function compile flags: /Ogsp
;	COMDAT ?SetCharPowerUp@UserInfoCharData@@QAEXHH@Z
_TEXT	SEGMENT
_value$519882 = -4					; size = 4
_iClassType$ = 8					; size = 4
_iCharPowerUpGrade$ = 12				; size = 4
?SetCharPowerUp@UserInfoCharData@@QAEXHH@Z PROC		; UserInfoCharData::SetCharPowerUp, COMDAT
; _this$ = ecx

; 194  : {

  00000	55		 push	 ebp
  00001	8b ec		 mov	 ebp, esp
  00003	51		 push	 ecx
  00004	56		 push	 esi
  00005	57		 push	 edi
  00006	8b f9		 mov	 edi, ecx

; 195  : 	CharInfoDataVec::iterator iter = m_CharDataList.begin();

  00008	8b 77 04	 mov	 esi, DWORD PTR [edi+4]
  0000b	eb 23		 jmp	 SHORT $LN41@SetCharPow

; 196  : 	for(;iter != m_CharDataList.end();++iter)

$LL17@SetCharPow:

; 197  : 	{
; 198  : 		CharInfoData &rkData = *iter;
; 199  : 		if( rkData.m_CharInfo.m_class_type == iClassType )

  0000d	8d 45 fc	 lea	 eax, DWORD PTR _value$519882[ebp]
  00010	50		 push	 eax
  00011	8d 4e 08	 lea	 ecx, DWORD PTR [esi+8]
  00014	e8 00 00 00 00	 call	 ?DecryptValueToPool@?$CEncrypt@H@@QAEXPAH@Z ; CEncrypt<int>::DecryptValueToPool
  00019	8b 45 fc	 mov	 eax, DWORD PTR _value$519882[ebp]
  0001c	3b 45 08	 cmp	 eax, DWORD PTR _iClassType$[ebp]
  0001f	75 09		 jne	 SHORT $LN3@SetCharPow

; 200  : 		{
; 201  : 			rkData.m_CharInfo.m_eCharPowerUpType = iCharPowerUpGrade;

  00021	8a 45 0c	 mov	 al, BYTE PTR _iCharPowerUpGrade$[ebp]
  00024	88 86 c4 02 00
	00		 mov	 BYTE PTR [esi+708], al
$LN3@SetCharPow:

; 196  : 	for(;iter != m_CharDataList.end();++iter)

  0002a	81 c6 c0 03 00
	00		 add	 esi, 960		; 000003c0H
$LN41@SetCharPow:
  00030	3b 77 08	 cmp	 esi, DWORD PTR [edi+8]
  00033	75 d8		 jne	 SHORT $LL17@SetCharPow
  00035	5f		 pop	 edi
  00036	5e		 pop	 esi

; 202  : 		}
; 203  : 	}
; 204  : }

  00037	c9		 leave
  00038	c2 08 00	 ret	 8
?SetCharPowerUp@UserInfoCharData@@QAEXHH@Z ENDP		; UserInfoCharData::SetCharPowerUp
_TEXT	ENDS
PUBLIC	?UpdateUI@UserInfoCharData@@QAEXXZ		; UserInfoCharData::UpdateUI
; Function compile flags: /Ogsp
;	COMDAT ?UpdateUI@UserInfoCharData@@QAEXXZ
_TEXT	SEGMENT
?UpdateUI@UserInfoCharData@@QAEXXZ PROC			; UserInfoCharData::UpdateUI, COMDAT
; _this$ = ecx

; 240  : 	CharInfoDataVec::iterator iter = m_CharDataList.begin();

  00000	8b 41 04	 mov	 eax, DWORD PTR [ecx+4]
  00003	eb 0c		 jmp	 SHORT $LN38@UpdateUI

; 241  : 	for(;iter != m_CharDataList.end();++iter)

$LL16@UpdateUI:

; 242  : 	{
; 243  : 		CharInfoData &rkData = *iter;
; 244  : 		rkData.m_bChangeData = true;

  00005	c6 80 b8 03 00
	00 01		 mov	 BYTE PTR [eax+952], 1
  0000c	05 c0 03 00 00	 add	 eax, 960		; 000003c0H
$LN38@UpdateUI:

; 241  : 	for(;iter != m_CharDataList.end();++iter)

  00011	3b 41 08	 cmp	 eax, DWORD PTR [ecx+8]
  00014	75 ef		 jne	 SHORT $LL16@UpdateUI

; 245  : 	}
; 246  : }

  00016	c3		 ret	 0
?UpdateUI@UserInfoCharData@@QAEXXZ ENDP			; UserInfoCharData::UpdateUI
_TEXT	ENDS
PUBLIC	__$ArrayPad$
PUBLIC	?SyncSubCharData@UserInfoCharData@@QAEXABVioHashString@@H@Z ; UserInfoCharData::SyncSubCharData
;	COMDAT xdata$x
; File d:\lost saga for developer\youtube\tutorial\source\src\lsclient\encryptvalue.h
xdata$x	SEGMENT
__unwindtable$?SyncSubCharData@UserInfoCharData@@QAEXABVioHashString@@H@Z DD 0ffffffffH
	DD	FLAT:__unwindfunclet$?SyncSubCharData@UserInfoCharData@@QAEXABVioHashString@@H@Z$0
__ehfuncinfo$?SyncSubCharData@UserInfoCharData@@QAEXABVioHashString@@H@Z DD 019930522H
	DD	01H
	DD	FLAT:__unwindtable$?SyncSubCharData@UserInfoCharData@@QAEXABVioHashString@@H@Z
	DD	2 DUP(00H)
	DD	2 DUP(00H)
	DD	00H
	DD	01H
; Function compile flags: /Ogsp
; File d:\lost saga for developer\youtube\tutorial\source\src\lsclient\gui\iouserinfomgr.cpp
xdata$x	ENDS
;	COMDAT ?SyncSubCharData@UserInfoCharData@@QAEXABVioHashString@@H@Z
_TEXT	SEGMENT
_value$520067 = -32812					; size = 4
_kPacket$514012 = -32808				; size = 32792
__$ArrayPad$ = -16					; size = 4
__$EHRec$ = -12						; size = 12
_rkUserName$ = 8					; size = 4
_iClassType$ = 12					; size = 4
?SyncSubCharData@UserInfoCharData@@QAEXABVioHashString@@H@Z PROC ; UserInfoCharData::SyncSubCharData, COMDAT
; _this$ = ecx

; 391  : {

  00000	55		 push	 ebp
  00001	8b ec		 mov	 ebp, esp
  00003	6a ff		 push	 -1
  00005	68 00 00 00 00	 push	 __ehhandler$?SyncSubCharData@UserInfoCharData@@QAEXABVioHashString@@H@Z
  0000a	64 a1 00 00 00
	00		 mov	 eax, DWORD PTR fs:0
  00010	50		 push	 eax
  00011	b8 20 80 00 00	 mov	 eax, 32800		; 00008020H
  00016	e8 00 00 00 00	 call	 __chkstk
  0001b	a1 00 00 00 00	 mov	 eax, DWORD PTR ___security_cookie
  00020	33 c5		 xor	 eax, ebp
  00022	89 45 f0	 mov	 DWORD PTR __$ArrayPad$[ebp], eax
  00025	53		 push	 ebx
  00026	56		 push	 esi
  00027	57		 push	 edi
  00028	50		 push	 eax
  00029	8d 45 f4	 lea	 eax, DWORD PTR __$EHRec$[ebp]
  0002c	64 a3 00 00 00
	00		 mov	 DWORD PTR fs:0, eax
  00032	8b 5d 08	 mov	 ebx, DWORD PTR _rkUserName$[ebp]
  00035	8b f9		 mov	 edi, ecx

; 392  : 	if( rkUserName.IsEmpty() )

  00037	8b cb		 mov	 ecx, ebx
  00039	ff 15 00 00 00
	00		 call	 DWORD PTR __imp_?IsEmpty@ioHashString@@QBE_NXZ
  0003f	84 c0		 test	 al, al
  00041	0f 85 9b 00 00
	00		 jne	 $LN3@SyncSubCha

; 393  : 		return;
; 394  : 
; 395  : 	if( rkUserName == g_MyInfo.GetPublicID() )

  00047	e8 00 00 00 00	 call	 ?GetSingleton@ioMyInfo@@SAAAV1@XZ ; ioMyInfo::GetSingleton
  0004c	83 c0 1c	 add	 eax, 28			; 0000001cH
  0004f	50		 push	 eax
  00050	8b cb		 mov	 ecx, ebx
  00052	ff 15 00 00 00
	00		 call	 DWORD PTR __imp_??8ioHashString@@QBE_NABV0@@Z
  00058	84 c0		 test	 al, al
  0005a	0f 85 82 00 00
	00		 jne	 $LN3@SyncSubCha

; 396  : 		return;
; 397  : 
; 398  : 	CharInfoDataVec::iterator iter = m_CharDataList.begin();

  00060	8b 77 04	 mov	 esi, DWORD PTR [edi+4]
  00063	eb 29		 jmp	 SHORT $LN49@SyncSubCha

; 399  : 	for(;iter != m_CharDataList.end();++iter)

$LL23@SyncSubCha:

; 400  : 	{
; 401  : 		CharInfoData &rkData = *iter;
; 402  : 		if( rkData.m_bSubDataSync )

  00065	80 be 7c 03 00
	00 00		 cmp	 BYTE PTR [esi+892], 0
  0006c	75 1a		 jne	 SHORT $LN4@SyncSubCha

; 403  : 			continue;
; 404  : 
; 405  : 		if( rkData.m_CharInfo.m_class_type == iClassType )

  0006e	8d 85 d4 7f ff
	ff		 lea	 eax, DWORD PTR _value$520067[ebp]
  00074	50		 push	 eax
  00075	8d 4e 08	 lea	 ecx, DWORD PTR [esi+8]
  00078	e8 00 00 00 00	 call	 ?DecryptValueToPool@?$CEncrypt@H@@QAEXPAH@Z ; CEncrypt<int>::DecryptValueToPool
  0007d	8b 45 0c	 mov	 eax, DWORD PTR _iClassType$[ebp]
  00080	39 85 d4 7f ff
	ff		 cmp	 DWORD PTR _value$520067[ebp], eax
  00086	74 0d		 je	 SHORT $LN46@SyncSubCha
$LN4@SyncSubCha:

; 399  : 	for(;iter != m_CharDataList.end();++iter)

  00088	81 c6 c0 03 00
	00		 add	 esi, 960		; 000003c0H
$LN49@SyncSubCha:
  0008e	3b 77 08	 cmp	 esi, DWORD PTR [edi+8]
  00091	75 d2		 jne	 SHORT $LL23@SyncSubCha

; 403  : 			continue;
; 404  : 
; 405  : 		if( rkData.m_CharInfo.m_class_type == iClassType )

  00093	eb 4d		 jmp	 SHORT $LN3@SyncSubCha
$LN46@SyncSubCha:

; 406  : 		{
; 407  : 			rkData.m_bSubDataSync = true;
; 408  : 
; 409  : 			SP2Packet kPacket( CTPK_USER_CHAR_SUB_INFO_REFRESH );

  00095	68 37 02 00 00	 push	 567			; 00000237H
  0009a	8d 8d d8 7f ff
	ff		 lea	 ecx, DWORD PTR _kPacket$514012[ebp]
  000a0	c6 86 7c 03 00
	00 01		 mov	 BYTE PTR [esi+892], 1
  000a7	e8 00 00 00 00	 call	 ??0SP2Packet@@QAE@K@Z	; SP2Packet::SP2Packet

; 410  : 			kPacket << rkUserName << iClassType;

  000ac	ff 75 0c	 push	 DWORD PTR _iClassType$[ebp]
  000af	83 65 fc 00	 and	 DWORD PTR __$EHRec$[ebp+8], 0
  000b3	53		 push	 ebx
  000b4	8d 8d d8 7f ff
	ff		 lea	 ecx, DWORD PTR _kPacket$514012[ebp]
  000ba	e8 00 00 00 00	 call	 ??6SP2Packet@@QAEAAV0@ABVioHashString@@@Z ; SP2Packet::operator<<
  000bf	8b c8		 mov	 ecx, eax
  000c1	e8 00 00 00 00	 call	 ??6SP2Packet@@QAEAAV0@H@Z ; SP2Packet::operator<<

; 411  : 			TCPNetwork::SendToServer( kPacket );

  000c6	8d 85 d8 7f ff
	ff		 lea	 eax, DWORD PTR _kPacket$514012[ebp]
  000cc	50		 push	 eax
  000cd	e8 00 00 00 00	 call	 ?SendToServer@TCPNetwork@@YAXAAVSP2Packet@@@Z ; TCPNetwork::SendToServer

; 412  : 			return;

  000d2	83 4d fc ff	 or	 DWORD PTR __$EHRec$[ebp+8], -1
  000d6	59		 pop	 ecx
  000d7	8d 8d d8 7f ff
	ff		 lea	 ecx, DWORD PTR _kPacket$514012[ebp]
  000dd	e8 00 00 00 00	 call	 ??1SP2Packet@@UAE@XZ	; SP2Packet::~SP2Packet
$LN3@SyncSubCha:

; 413  : 		}
; 414  : 	}
; 415  : }

  000e2	8b 4d f4	 mov	 ecx, DWORD PTR __$EHRec$[ebp]
  000e5	64 89 0d 00 00
	00 00		 mov	 DWORD PTR fs:0, ecx
  000ec	59		 pop	 ecx
  000ed	5f		 pop	 edi
  000ee	5e		 pop	 esi
  000ef	5b		 pop	 ebx
  000f0	8b 4d f0	 mov	 ecx, DWORD PTR __$ArrayPad$[ebp]
  000f3	33 cd		 xor	 ecx, ebp
  000f5	e8 00 00 00 00	 call	 @__security_check_cookie@4
  000fa	c9		 leave
  000fb	c2 08 00	 ret	 8
_TEXT	ENDS
;	COMDAT text$x
text$x	SEGMENT
__unwindfunclet$?SyncSubCharData@UserInfoCharData@@QAEXABVioHashString@@H@Z$0:
  00000	8d 8d d8 7f ff
	ff		 lea	 ecx, DWORD PTR _kPacket$514012[ebp]
  00006	e9 00 00 00 00	 jmp	 ??1SP2Packet@@UAE@XZ	; SP2Packet::~SP2Packet
__ehhandler$?SyncSubCharData@UserInfoCharData@@QAEXABVioHashString@@H@Z:
  0000b	8b 54 24 08	 mov	 edx, DWORD PTR [esp+8]
  0000f	8d 42 0c	 lea	 eax, DWORD PTR [edx+12]
  00012	8b 8a d0 7f ff
	ff		 mov	 ecx, DWORD PTR [edx-32816]
  00018	33 c8		 xor	 ecx, eax
  0001a	e8 00 00 00 00	 call	 @__security_check_cookie@4
  0001f	8b 4a fc	 mov	 ecx, DWORD PTR [edx-4]
  00022	33 c8		 xor	 ecx, eax
  00024	e8 00 00 00 00	 call	 @__security_check_cookie@4
  00029	b8 00 00 00 00	 mov	 eax, OFFSET __ehfuncinfo$?SyncSubCharData@UserInfoCharData@@QAEXABVioHashString@@H@Z
  0002e	e9 00 00 00 00	 jmp	 ___CxxFrameHandler3
text$x	ENDS
?SyncSubCharData@UserInfoCharData@@QAEXABVioHashString@@H@Z ENDP ; UserInfoCharData::SyncSubCharData
PUBLIC	?SetEquipCostumebySubType@UserInfoCharData@@QAEXHHHKK@Z ; UserInfoCharData::SetEquipCostumebySubType
; Function compile flags: /Ogsp
;	COMDAT ?SetEquipCostumebySubType@UserInfoCharData@@QAEXHHHKK@Z
_TEXT	SEGMENT
_value$520167 = -4					; size = 4
_value$520171 = -4					; size = 4
_value$520175 = 8					; size = 4
_iClassType$ = 8					; size = 4
_nSubType$ = 12						; size = 4
_nCostumeCode$ = 16					; size = 4
_dwCustomMale$ = 20					; size = 4
_dwCustomFemale$ = 24					; size = 4
?SetEquipCostumebySubType@UserInfoCharData@@QAEXHHHKK@Z PROC ; UserInfoCharData::SetEquipCostumebySubType, COMDAT
; _this$ = ecx

; 476  : {

  00000	55		 push	 ebp
  00001	8b ec		 mov	 ebp, esp
  00003	51		 push	 ecx
  00004	53		 push	 ebx

; 477  : 	if ( !COMPARE( nSubType, 0, MAX_INVENTORY ) )

  00005	8b 5d 0c	 mov	 ebx, DWORD PTR _nSubType$[ebp]
  00008	56		 push	 esi
  00009	8b f1		 mov	 esi, ecx
  0000b	83 fb 03	 cmp	 ebx, 3
  0000e	0f 87 a6 00 00
	00		 ja	 $LN46@SetEquipCo

; 478  : 		return;
; 479  : 
; 480  : 	CharInfoDataVec::iterator iter = m_CharDataList.begin();

  00014	57		 push	 edi
  00015	8b 7e 04	 mov	 edi, DWORD PTR [esi+4]
  00018	eb 1a		 jmp	 SHORT $LN52@SetEquipCo

; 481  : 	for(;iter != m_CharDataList.end();++iter)

$LL20@SetEquipCo:

; 482  : 	{
; 483  : 		CharInfoData &rkData = *iter;
; 484  : 		if( rkData.m_CharInfo.m_class_type == iClassType )

  0001a	8d 45 fc	 lea	 eax, DWORD PTR _value$520167[ebp]
  0001d	50		 push	 eax
  0001e	8d 4f 08	 lea	 ecx, DWORD PTR [edi+8]
  00021	e8 00 00 00 00	 call	 ?DecryptValueToPool@?$CEncrypt@H@@QAEXPAH@Z ; CEncrypt<int>::DecryptValueToPool
  00026	8b 45 fc	 mov	 eax, DWORD PTR _value$520167[ebp]
  00029	3b 45 08	 cmp	 eax, DWORD PTR _iClassType$[ebp]
  0002c	74 0d		 je	 SHORT $LN49@SetEquipCo

; 481  : 	for(;iter != m_CharDataList.end();++iter)

  0002e	81 c7 c0 03 00
	00		 add	 edi, 960		; 000003c0H
$LN52@SetEquipCo:
  00034	3b 7e 08	 cmp	 edi, DWORD PTR [esi+8]
  00037	75 e1		 jne	 SHORT $LL20@SetEquipCo

; 482  : 	{
; 483  : 		CharInfoData &rkData = *iter;
; 484  : 		if( rkData.m_CharInfo.m_class_type == iClassType )

  00039	eb 7e		 jmp	 SHORT $LN51@SetEquipCo
$LN49@SetEquipCo:

; 485  : 		{
; 486  : 			rkData.m_CharInfo.m_EquipCostume[nSubType].m_CostumeCode = nCostumeCode;

  0003b	8b 45 10	 mov	 eax, DWORD PTR _nCostumeCode$[ebp]

; 487  : 			rkData.m_CharInfo.m_EquipCostume[nSubType].m_Costume_Male_Custom = dwCustomMale;

  0003e	8b 4d 14	 mov	 ecx, DWORD PTR _dwCustomMale$[ebp]
  00041	03 db		 add	 ebx, ebx
  00043	89 84 df cc 02
	00 00		 mov	 DWORD PTR [edi+ebx*8+716], eax
  0004a	8b 45 0c	 mov	 eax, DWORD PTR _nSubType$[ebp]
  0004d	83 c0 2d	 add	 eax, 45			; 0000002dH
  00050	03 c0		 add	 eax, eax
  00052	89 0c c7	 mov	 DWORD PTR [edi+eax*8], ecx

; 488  : 			rkData.m_CharInfo.m_EquipCostume[nSubType].m_Costume_Female_Custom = dwCustomFemale;

  00055	8b 45 18	 mov	 eax, DWORD PTR _dwCustomFemale$[ebp]
  00058	89 84 df d4 02
	00 00		 mov	 DWORD PTR [edi+ebx*8+724], eax

; 489  : 			rkData.m_bChangeData = true;
; 490  : 
; 491  : 			if( rkData.m_CharInfo.m_class_type == m_LeaderCharData.m_CharInfo.m_class_type )

  0005f	8d 45 fc	 lea	 eax, DWORD PTR _value$520171[ebp]
  00062	50		 push	 eax
  00063	8d 4e 1c	 lea	 ecx, DWORD PTR [esi+28]
  00066	c6 87 b8 03 00
	00 01		 mov	 BYTE PTR [edi+952], 1
  0006d	e8 00 00 00 00	 call	 ?DecryptValueToPool@?$CEncrypt@H@@QAEXPAH@Z ; CEncrypt<int>::DecryptValueToPool
  00072	8d 45 08	 lea	 eax, DWORD PTR _value$520175[ebp]
  00075	50		 push	 eax
  00076	8d 4f 08	 lea	 ecx, DWORD PTR [edi+8]
  00079	e8 00 00 00 00	 call	 ?DecryptValueToPool@?$CEncrypt@H@@QAEXPAH@Z ; CEncrypt<int>::DecryptValueToPool
  0007e	8b 45 08	 mov	 eax, DWORD PTR _value$520175[ebp]
  00081	3b 45 fc	 cmp	 eax, DWORD PTR _value$520171[ebp]
  00084	75 33		 jne	 SHORT $LN51@SetEquipCo

; 492  : 			{
; 493  : 				m_LeaderCharData.m_CharInfo.m_EquipCostume[nSubType].m_CostumeCode = nCostumeCode;

  00086	8b 45 0c	 mov	 eax, DWORD PTR _nSubType$[ebp]
  00089	8b 4d 10	 mov	 ecx, DWORD PTR _nCostumeCode$[ebp]
  0008c	83 c0 2e	 add	 eax, 46			; 0000002eH
  0008f	03 c0		 add	 eax, eax
  00091	89 0c c6	 mov	 DWORD PTR [esi+eax*8], ecx

; 494  : 				m_LeaderCharData.m_CharInfo.m_EquipCostume[nSubType].m_Costume_Male_Custom = dwCustomMale;

  00094	8b 4d 14	 mov	 ecx, DWORD PTR _dwCustomMale$[ebp]
  00097	8d 04 de	 lea	 eax, DWORD PTR [esi+ebx*8]
  0009a	89 88 e4 02 00
	00		 mov	 DWORD PTR [eax+740], ecx

; 495  : 				m_LeaderCharData.m_CharInfo.m_EquipCostume[nSubType].m_Costume_Female_Custom = dwCustomFemale;

  000a0	8b 4d 18	 mov	 ecx, DWORD PTR _dwCustomFemale$[ebp]
  000a3	89 88 e8 02 00
	00		 mov	 DWORD PTR [eax+744], ecx

; 496  : 				SetLeaderMotion( m_dwLeaderMotion );

  000a9	8b 86 d4 03 00
	00		 mov	 eax, DWORD PTR [esi+980]
  000af	89 46 14	 mov	 DWORD PTR [esi+20], eax
  000b2	c6 86 cc 03 00
	00 01		 mov	 BYTE PTR [esi+972], 1
$LN51@SetEquipCo:
  000b9	5f		 pop	 edi
$LN46@SetEquipCo:
  000ba	5e		 pop	 esi
  000bb	5b		 pop	 ebx

; 497  : 			}
; 498  : 			break;
; 499  : 		}
; 500  : 	}
; 501  : }

  000bc	c9		 leave
  000bd	c2 14 00	 ret	 20			; 00000014H
?SetEquipCostumebySubType@UserInfoCharData@@QAEXHHHKK@Z ENDP ; UserInfoCharData::SetEquipCostumebySubType
_TEXT	ENDS
PUBLIC	?GetUserInfoNodeExist@ioUserInfoMgr@@QAEPAVUserInfoNode@@ABVioHashString@@@Z ; ioUserInfoMgr::GetUserInfoNodeExist
; Function compile flags: /Ogsp
;	COMDAT ?GetUserInfoNodeExist@ioUserInfoMgr@@QAEPAVUserInfoNode@@ABVioHashString@@@Z
_TEXT	SEGMENT
_szID$ = 8						; size = 4
?GetUserInfoNodeExist@ioUserInfoMgr@@QAEPAVUserInfoNode@@ABVioHashString@@@Z PROC ; ioUserInfoMgr::GetUserInfoNodeExist, COMDAT
; _this$ = ecx

; 936  : {

  00000	55		 push	 ebp
  00001	8b ec		 mov	 ebp, esp
  00003	53		 push	 ebx
  00004	8b d9		 mov	 ebx, ecx

; 937  : 	if( szID.IsEmpty() ) return NULL;

  00006	8b 4d 08	 mov	 ecx, DWORD PTR _szID$[ebp]
  00009	ff 15 00 00 00
	00		 call	 DWORD PTR __imp_?IsEmpty@ioHashString@@QBE_NXZ
  0000f	84 c0		 test	 al, al
  00011	74 04		 je	 SHORT $LN7@GetUserInf
$LN54@GetUserInf:
  00013	33 c0		 xor	 eax, eax
  00015	eb 3f		 jmp	 SHORT $LN8@GetUserInf
$LN7@GetUserInf:

; 938  : 	if( szID == g_MyInfo.GetPublicID() ) return NULL;

  00017	e8 00 00 00 00	 call	 ?GetSingleton@ioMyInfo@@SAAAV1@XZ ; ioMyInfo::GetSingleton
  0001c	8b 4d 08	 mov	 ecx, DWORD PTR _szID$[ebp]
  0001f	83 c0 1c	 add	 eax, 28			; 0000001cH
  00022	50		 push	 eax
  00023	ff 15 00 00 00
	00		 call	 DWORD PTR __imp_??8ioHashString@@QBE_NABV0@@Z
  00029	84 c0		 test	 al, al
  0002b	75 e6		 jne	 SHORT $LN54@GetUserInf

; 939  : 	
; 940  : 	vUserInfoNode_iter iter;
; 941  : 	for( iter=m_vUserInfoList.begin() ; iter!=m_vUserInfoList.end() ; ++iter )

  0002d	56		 push	 esi
  0002e	8b 73 04	 mov	 esi, DWORD PTR [ebx+4]
  00031	57		 push	 edi
  00032	eb 19		 jmp	 SHORT $LN53@GetUserInf
$LL26@GetUserInf:

; 942  : 	{
; 943  : 		UserInfoNode *pUserInfo = *iter;

  00034	8b 3e		 mov	 edi, DWORD PTR [esi]

; 944  : 		if( pUserInfo == NULL ) continue;

  00036	85 ff		 test	 edi, edi
  00038	74 10		 je	 SHORT $LN4@GetUserInf

; 945  : 		if( pUserInfo->GetUserID() == szID )

  0003a	ff 75 08	 push	 DWORD PTR _szID$[ebp]
  0003d	8d 4f 08	 lea	 ecx, DWORD PTR [edi+8]
  00040	ff 15 00 00 00
	00		 call	 DWORD PTR __imp_??8ioHashString@@QBE_NABV0@@Z
  00046	84 c0		 test	 al, al
  00048	75 11		 jne	 SHORT $LN49@GetUserInf
$LN4@GetUserInf:

; 939  : 	
; 940  : 	vUserInfoNode_iter iter;
; 941  : 	for( iter=m_vUserInfoList.begin() ; iter!=m_vUserInfoList.end() ; ++iter )

  0004a	83 c6 04	 add	 esi, 4
$LN53@GetUserInf:
  0004d	3b 73 08	 cmp	 esi, DWORD PTR [ebx+8]
  00050	75 e2		 jne	 SHORT $LL26@GetUserInf

; 948  : 		}
; 949  : 	}
; 950  : 	
; 951  : 	return NULL;

  00052	33 c0		 xor	 eax, eax
$LN51@GetUserInf:
  00054	5f		 pop	 edi
  00055	5e		 pop	 esi
$LN8@GetUserInf:
  00056	5b		 pop	 ebx

; 952  : }

  00057	5d		 pop	 ebp
  00058	c2 04 00	 ret	 4
$LN49@GetUserInf:

; 946  : 		{
; 947  : 			return pUserInfo;

  0005b	8b c7		 mov	 eax, edi
  0005d	eb f5		 jmp	 SHORT $LN51@GetUserInf
?GetUserInfoNodeExist@ioUserInfoMgr@@QAEPAVUserInfoNode@@ABVioHashString@@@Z ENDP ; ioUserInfoMgr::GetUserInfoNodeExist
_TEXT	ENDS
PUBLIC	?erase@?$vector@PAVUserInfoNode@@V?$allocator@PAVUserInfoNode@@@std@@@std@@QAE?AV?$_Vector_iterator@V?$_Vector_val@PAVUserInfoNode@@V?$allocator@PAVUserInfoNode@@@std@@@std@@@2@V?$_Vector_const_iterator@V?$_Vector_val@PAVUserInfoNode@@V?$allocator@PAVUserInfoNode@@@std@@@std@@@2@0@Z ; std::vector<UserInfoNode *,std::allocator<UserInfoNode *> >::erase
; Function compile flags: /Ogsp
; File c:\program files (x86)\microsoft visual studio 10.0\vc\include\vector
;	COMDAT ?erase@?$vector@PAVUserInfoNode@@V?$allocator@PAVUserInfoNode@@@std@@@std@@QAE?AV?$_Vector_iterator@V?$_Vector_val@PAVUserInfoNode@@V?$allocator@PAVUserInfoNode@@@std@@@std@@@2@V?$_Vector_const_iterator@V?$_Vector_val@PAVUserInfoNode@@V?$allocator@PAVUserInfoNode@@@std@@@std@@@2@0@Z
_TEXT	SEGMENT
___$ReturnUdt$ = 8					; size = 4
__First_arg$ = 12					; size = 4
__Cat$520368 = 16					; size = 1
__Last_arg$ = 16					; size = 4
?erase@?$vector@PAVUserInfoNode@@V?$allocator@PAVUserInfoNode@@@std@@@std@@QAE?AV?$_Vector_iterator@V?$_Vector_val@PAVUserInfoNode@@V?$allocator@PAVUserInfoNode@@@std@@@std@@@2@V?$_Vector_const_iterator@V?$_Vector_val@PAVUserInfoNode@@V?$allocator@PAVUserInfoNode@@@std@@@std@@@2@0@Z PROC ; std::vector<UserInfoNode *,std::allocator<UserInfoNode *> >::erase, COMDAT
; _this$ = ecx

; 1190 : 		{	// erase [_First, _Last)

  00000	55		 push	 ebp
  00001	8b ec		 mov	 ebp, esp

; 1191 : 		iterator _First = _Make_iter(_First_arg);

  00003	8b 45 0c	 mov	 eax, DWORD PTR __First_arg$[ebp]
  00006	56		 push	 esi
  00007	57		 push	 edi
  00008	8b 7d 08	 mov	 edi, DWORD PTR ___$ReturnUdt$[ebp]
  0000b	8b f1		 mov	 esi, ecx
  0000d	89 07		 mov	 DWORD PTR [edi], eax

; 1192 : 		iterator _Last = _Make_iter(_Last_arg);
; 1193 : 
; 1194 : 		if (_First != _Last)

  0000f	3b 45 10	 cmp	 eax, DWORD PTR __Last_arg$[ebp]
  00012	74 16		 je	 SHORT $LN1@erase

; 1195 : 			{	// worth doing, copy down over hole
; 1196 :  #if _ITERATOR_DEBUG_LEVEL == 2
; 1197 : 			if (_Last < _First || _VICONT(_First) != this
; 1198 : 				|| _VIPTR(_First) < this->_Myfirst
; 1199 : 				|| this->_Mylast < _VIPTR(_Last))
; 1200 : 				_DEBUG_ERROR("vector erase iterator outside range");
; 1201 : 			pointer _Ptr = _Move(_VIPTR(_Last), this->_Mylast,
; 1202 : 				_VIPTR(_First));
; 1203 : 			_Orphan_range(_VIPTR(_First), this->_Mylast);
; 1204 : 
; 1205 :  #else /* _ITERATOR_DEBUG_LEVEL == 2 */
; 1206 : 			pointer _Ptr = _Move(_VIPTR(_Last), this->_Mylast,
; 1207 : 				_VIPTR(_First));

  00014	ff 75 10	 push	 DWORD PTR __Cat$520368[ebp]
  00017	8b 4e 04	 mov	 ecx, DWORD PTR [esi+4]
  0001a	50		 push	 eax
  0001b	51		 push	 ecx
  0001c	ff 75 10	 push	 DWORD PTR __Last_arg$[ebp]
  0001f	e8 00 00 00 00	 call	 ??$_Move@PAPAVUserInfoNode@@PAPAV1@@std@@YAPAPAVUserInfoNode@@PAPAV1@00U_Scalar_ptr_iterator_tag@0@@Z ; std::_Move<UserInfoNode * *,UserInfoNode * *>
  00024	83 c4 10	 add	 esp, 16			; 00000010H

; 1208 :  #endif /* _ITERATOR_DEBUG_LEVEL == 2 */
; 1209 : 
; 1210 : 			_Destroy(_Ptr, this->_Mylast);
; 1211 : 			this->_Mylast = _Ptr;

  00027	89 46 04	 mov	 DWORD PTR [esi+4], eax
$LN1@erase:

; 1212 : 			}
; 1213 : 		return (_First);

  0002a	8b c7		 mov	 eax, edi
  0002c	5f		 pop	 edi
  0002d	5e		 pop	 esi

; 1214 : 		}

  0002e	5d		 pop	 ebp
  0002f	c2 0c 00	 ret	 12			; 0000000cH
?erase@?$vector@PAVUserInfoNode@@V?$allocator@PAVUserInfoNode@@@std@@@std@@QAE?AV?$_Vector_iterator@V?$_Vector_val@PAVUserInfoNode@@V?$allocator@PAVUserInfoNode@@@std@@@std@@@2@V?$_Vector_const_iterator@V?$_Vector_val@PAVUserInfoNode@@V?$allocator@PAVUserInfoNode@@@std@@@std@@@2@0@Z ENDP ; std::vector<UserInfoNode *,std::allocator<UserInfoNode *> >::erase
_TEXT	ENDS
PUBLIC	?_Tidy@?$vector@PAVUserInfoNode@@V?$allocator@PAVUserInfoNode@@@std@@@std@@IAEXXZ ; std::vector<UserInfoNode *,std::allocator<UserInfoNode *> >::_Tidy
EXTRN	__imp_?_Orphan_all@_Container_base0@std@@QAEXXZ:PROC
; Function compile flags: /Ogsp
;	COMDAT ?_Tidy@?$vector@PAVUserInfoNode@@V?$allocator@PAVUserInfoNode@@@std@@@std@@IAEXXZ
_TEXT	SEGMENT
?_Tidy@?$vector@PAVUserInfoNode@@V?$allocator@PAVUserInfoNode@@@std@@@std@@IAEXXZ PROC ; std::vector<UserInfoNode *,std::allocator<UserInfoNode *> >::_Tidy, COMDAT
; _this$ = ecx

; 1301 : 		{	// free all storage

  00000	56		 push	 esi
  00001	8b f1		 mov	 esi, ecx

; 1302 : 		if (this->_Myfirst != 0)

  00003	83 3e 00	 cmp	 DWORD PTR [esi], 0
  00006	74 0e		 je	 SHORT $LN12@Tidy

; 1303 : 			{	// something to free, destroy and deallocate it
; 1304 : 			this->_Orphan_all();

  00008	ff 15 00 00 00
	00		 call	 DWORD PTR __imp_?_Orphan_all@_Container_base0@std@@QAEXXZ

; 1305 : 			_Destroy(this->_Myfirst, this->_Mylast);
; 1306 : 			this->_Alval.deallocate(this->_Myfirst,
; 1307 : 				this->_Myend - this->_Myfirst);

  0000e	ff 36		 push	 DWORD PTR [esi]
  00010	e8 00 00 00 00	 call	 ??3@YAXPAX@Z		; operator delete
  00015	59		 pop	 ecx
$LN12@Tidy:

; 1308 : 			}
; 1309 : 		this->_Myfirst = 0;

  00016	83 26 00	 and	 DWORD PTR [esi], 0

; 1310 : 		this->_Mylast = 0;

  00019	83 66 04 00	 and	 DWORD PTR [esi+4], 0

; 1311 : 		this->_Myend = 0;

  0001d	83 66 08 00	 and	 DWORD PTR [esi+8], 0
  00021	5e		 pop	 esi

; 1312 : 		}

  00022	c3		 ret	 0
?_Tidy@?$vector@PAVUserInfoNode@@V?$allocator@PAVUserInfoNode@@@std@@@std@@IAEXXZ ENDP ; std::vector<UserInfoNode *,std::allocator<UserInfoNode *> >::_Tidy
_TEXT	ENDS
PUBLIC	?reserve@?$vector@PAVUserInfoNode@@V?$allocator@PAVUserInfoNode@@@std@@@std@@QAEXI@Z ; std::vector<UserInfoNode *,std::allocator<UserInfoNode *> >::reserve
; Function compile flags: /Ogsp
;	COMDAT ?reserve@?$vector@PAVUserInfoNode@@V?$allocator@PAVUserInfoNode@@@std@@@std@@QAEXI@Z
_TEXT	SEGMENT
__Count$ = 8						; size = 4
?reserve@?$vector@PAVUserInfoNode@@V?$allocator@PAVUserInfoNode@@@std@@@std@@QAEXI@Z PROC ; std::vector<UserInfoNode *,std::allocator<UserInfoNode *> >::reserve, COMDAT
; _this$ = ecx

; 746  : 		{	// determine new minimum length of allocated storage

  00000	55		 push	 ebp
  00001	8b ec		 mov	 ebp, esp

; 747  : 		if (max_size() < _Count)

  00003	81 7d 08 ff ff
	ff 3f		 cmp	 DWORD PTR __Count$[ebp], 1073741823 ; 3fffffffH
  0000a	56		 push	 esi
  0000b	8b f1		 mov	 esi, ecx
  0000d	76 0b		 jbe	 SHORT $LN5@reserve

; 748  : 			_Xlen();	// result too long

  0000f	68 00 00 00 00	 push	 OFFSET ??_C@_0BD@OLBABOEK@vector?$DMT?$DO?5too?5long?$AA@
  00014	ff 15 00 00 00
	00		 call	 DWORD PTR __imp_?_Xlength_error@std@@YAXPBD@Z
$LN43@reserve:
$LN5@reserve:

; 749  : 		else if (capacity() < _Count)

  0001a	8b 46 08	 mov	 eax, DWORD PTR [esi+8]
  0001d	2b 06		 sub	 eax, DWORD PTR [esi]
  0001f	c1 f8 02	 sar	 eax, 2
  00022	3b 45 08	 cmp	 eax, DWORD PTR __Count$[ebp]
  00025	73 52		 jae	 SHORT $LN3@reserve

; 750  : 			{	// not enough room, reallocate
; 751  : 			pointer _Ptr = this->_Alval.allocate(_Count);

  00027	53		 push	 ebx
  00028	57		 push	 edi
  00029	6a 00		 push	 0
  0002b	ff 75 08	 push	 DWORD PTR __Count$[ebp]
  0002e	e8 00 00 00 00	 call	 ??$_Allocate@PAVUserInfoNode@@@std@@YAPAPAVUserInfoNode@@IPAPAV1@@Z ; std::_Allocate<UserInfoNode *>

; 752  : 
; 753  : 			_TRY_BEGIN
; 754  : 			_Umove(this->_Myfirst, this->_Mylast, _Ptr);

  00033	8b 0e		 mov	 ecx, DWORD PTR [esi]
  00035	8d 56 0c	 lea	 edx, DWORD PTR [esi+12]
  00038	52		 push	 edx
  00039	8b d8		 mov	 ebx, eax
  0003b	8b 46 04	 mov	 eax, DWORD PTR [esi+4]
  0003e	53		 push	 ebx
  0003f	50		 push	 eax
  00040	51		 push	 ecx
  00041	e8 00 00 00 00	 call	 ??$_Uninitialized_move@PAPAVUserInfoNode@@PAPAV1@V?$allocator@PAVUserInfoNode@@@std@@@std@@YAPAPAVUserInfoNode@@PAPAV1@00AAV?$allocator@PAVUserInfoNode@@@0@@Z ; std::_Uninitialized_move<UserInfoNode * *,UserInfoNode * *,std::allocator<UserInfoNode *> >

; 755  : 			_CATCH_ALL
; 756  : 			this->_Alval.deallocate(_Ptr, _Count);
; 757  : 			_RERAISE;
; 758  : 			_CATCH_END
; 759  : 
; 760  : 			size_type _Size = size();

  00046	8b 06		 mov	 eax, DWORD PTR [esi]
  00048	8b 7e 04	 mov	 edi, DWORD PTR [esi+4]
  0004b	2b f8		 sub	 edi, eax
  0004d	83 c4 18	 add	 esp, 24			; 00000018H
  00050	c1 ff 02	 sar	 edi, 2

; 761  : 			if (this->_Myfirst != 0)

  00053	85 c0		 test	 eax, eax
  00055	74 07		 je	 SHORT $LN39@reserve

; 762  : 				{	// destroy and deallocate old array
; 763  : 				_Destroy(this->_Myfirst, this->_Mylast);
; 764  : 				this->_Alval.deallocate(this->_Myfirst,
; 765  : 					this->_Myend - this->_Myfirst);

  00057	50		 push	 eax
  00058	e8 00 00 00 00	 call	 ??3@YAXPAX@Z		; operator delete
  0005d	59		 pop	 ecx
$LN39@reserve:

; 766  : 				}
; 767  : 
; 768  : 			this->_Orphan_all();

  0005e	8b ce		 mov	 ecx, esi
  00060	ff 15 00 00 00
	00		 call	 DWORD PTR __imp_?_Orphan_all@_Container_base0@std@@QAEXXZ

; 769  : 			this->_Myend = _Ptr + _Count;

  00066	8b 45 08	 mov	 eax, DWORD PTR __Count$[ebp]
  00069	8d 04 83	 lea	 eax, DWORD PTR [ebx+eax*4]
  0006c	89 46 08	 mov	 DWORD PTR [esi+8], eax

; 770  : 			this->_Mylast = _Ptr + _Size;

  0006f	8d 04 bb	 lea	 eax, DWORD PTR [ebx+edi*4]
  00072	5f		 pop	 edi

; 771  : 			this->_Myfirst = _Ptr;

  00073	89 1e		 mov	 DWORD PTR [esi], ebx
  00075	89 46 04	 mov	 DWORD PTR [esi+4], eax
  00078	5b		 pop	 ebx
$LN3@reserve:
  00079	5e		 pop	 esi

; 772  : 			}
; 773  : 		}

  0007a	5d		 pop	 ebp
  0007b	c2 04 00	 ret	 4
$LN42@reserve:
?reserve@?$vector@PAVUserInfoNode@@V?$allocator@PAVUserInfoNode@@@std@@@std@@QAEXI@Z ENDP ; std::vector<UserInfoNode *,std::allocator<UserInfoNode *> >::reserve
_TEXT	ENDS
PUBLIC	??0CHARACTER@@QAE@ABU0@@Z			; CHARACTER::CHARACTER
EXTRN	??__C@YGXPAX0IHP6EX00@ZP6EX0@Z@Z:PROC		; `eh vector copy constructor iterator'
;	COMDAT xdata$x
xdata$x	SEGMENT
__ehfuncinfo$??0CHARACTER@@QAE@ABU0@@Z DD 019930522H
	DD	0aH
	DD	FLAT:__unwindtable$??0CHARACTER@@QAE@ABU0@@Z
	DD	2 DUP(00H)
	DD	2 DUP(00H)
	DD	00H
	DD	01H
__unwindtable$??0CHARACTER@@QAE@ABU0@@Z DD 0ffffffffH
	DD	FLAT:__unwindfunclet$??0CHARACTER@@QAE@ABU0@@Z$0
	DD	00H
	DD	FLAT:__unwindfunclet$??0CHARACTER@@QAE@ABU0@@Z$1
	DD	01H
	DD	FLAT:__unwindfunclet$??0CHARACTER@@QAE@ABU0@@Z$2
	DD	02H
	DD	FLAT:__unwindfunclet$??0CHARACTER@@QAE@ABU0@@Z$3
	DD	03H
	DD	FLAT:__unwindfunclet$??0CHARACTER@@QAE@ABU0@@Z$4
	DD	04H
	DD	FLAT:__unwindfunclet$??0CHARACTER@@QAE@ABU0@@Z$5
	DD	05H
	DD	FLAT:__unwindfunclet$??0CHARACTER@@QAE@ABU0@@Z$6
	DD	06H
	DD	FLAT:__unwindfunclet$??0CHARACTER@@QAE@ABU0@@Z$7
	DD	07H
	DD	FLAT:__unwindfunclet$??0CHARACTER@@QAE@ABU0@@Z$8
	DD	08H
	DD	FLAT:__unwindfunclet$??0CHARACTER@@QAE@ABU0@@Z$9
; Function compile flags: /Ogsp
xdata$x	ENDS
;	COMDAT ??0CHARACTER@@QAE@ABU0@@Z
_TEXT	SEGMENT
_this$ = -16						; size = 4
__$EHRec$ = -12						; size = 12
$T520542 = 8						; size = 4
___that$ = 8						; size = 4
??0CHARACTER@@QAE@ABU0@@Z PROC				; CHARACTER::CHARACTER, COMDAT
; _this$ = ecx
  00000	6a 04		 push	 4
  00002	b8 00 00 00 00	 mov	 eax, __ehhandler$??0CHARACTER@@QAE@ABU0@@Z
  00007	e8 00 00 00 00	 call	 __EH_prolog3
  0000c	8b f9		 mov	 edi, ecx
  0000e	89 7d f0	 mov	 DWORD PTR _this$[ebp], edi
  00011	8b 75 08	 mov	 esi, DWORD PTR ___that$[ebp]
  00014	56		 push	 esi
  00015	e8 00 00 00 00	 call	 ??0?$CEncrypt@H@@QAE@ABV0@@Z ; CEncrypt<int>::CEncrypt<int>
  0001a	83 65 fc 00	 and	 DWORD PTR __$EHRec$[ebp+8], 0
  0001e	8d 46 30	 lea	 eax, DWORD PTR [esi+48]
  00021	50		 push	 eax
  00022	8d 4f 30	 lea	 ecx, DWORD PTR [edi+48]
  00025	e8 00 00 00 00	 call	 ??0?$CEncrypt@H@@QAE@ABV0@@Z ; CEncrypt<int>::CEncrypt<int>
  0002a	8d 46 60	 lea	 eax, DWORD PTR [esi+96]
  0002d	50		 push	 eax
  0002e	8d 4f 60	 lea	 ecx, DWORD PTR [edi+96]
  00031	c6 45 fc 01	 mov	 BYTE PTR __$EHRec$[ebp+8], 1
  00035	e8 00 00 00 00	 call	 ??0?$CEncrypt@H@@QAE@ABV0@@Z ; CEncrypt<int>::CEncrypt<int>
  0003a	8d 86 90 00 00
	00		 lea	 eax, DWORD PTR [esi+144]
  00040	50		 push	 eax
  00041	8d 8f 90 00 00
	00		 lea	 ecx, DWORD PTR [edi+144]
  00047	c6 45 fc 02	 mov	 BYTE PTR __$EHRec$[ebp+8], 2
  0004b	e8 00 00 00 00	 call	 ??0?$CEncrypt@H@@QAE@ABV0@@Z ; CEncrypt<int>::CEncrypt<int>
  00050	8d 86 c0 00 00
	00		 lea	 eax, DWORD PTR [esi+192]
  00056	50		 push	 eax
  00057	8d 8f c0 00 00
	00		 lea	 ecx, DWORD PTR [edi+192]
  0005d	c6 45 fc 03	 mov	 BYTE PTR __$EHRec$[ebp+8], 3
  00061	e8 00 00 00 00	 call	 ??0?$CEncrypt@H@@QAE@ABV0@@Z ; CEncrypt<int>::CEncrypt<int>
  00066	8d 86 f0 00 00
	00		 lea	 eax, DWORD PTR [esi+240]
  0006c	50		 push	 eax
  0006d	8d 8f f0 00 00
	00		 lea	 ecx, DWORD PTR [edi+240]
  00073	c6 45 fc 04	 mov	 BYTE PTR __$EHRec$[ebp+8], 4
  00077	e8 00 00 00 00	 call	 ??0?$CEncrypt@H@@QAE@ABV0@@Z ; CEncrypt<int>::CEncrypt<int>
  0007c	8d 86 20 01 00
	00		 lea	 eax, DWORD PTR [esi+288]
  00082	50		 push	 eax
  00083	8d 8f 20 01 00
	00		 lea	 ecx, DWORD PTR [edi+288]
  00089	c6 45 fc 05	 mov	 BYTE PTR __$EHRec$[ebp+8], 5
  0008d	e8 00 00 00 00	 call	 ??0?$CEncrypt@H@@QAE@ABV0@@Z ; CEncrypt<int>::CEncrypt<int>
  00092	8d 86 50 01 00
	00		 lea	 eax, DWORD PTR [esi+336]
  00098	50		 push	 eax
  00099	8d 8f 50 01 00
	00		 lea	 ecx, DWORD PTR [edi+336]
  0009f	c6 45 fc 06	 mov	 BYTE PTR __$EHRec$[ebp+8], 6
  000a3	e8 00 00 00 00	 call	 ??0?$CEncrypt@H@@QAE@ABV0@@Z ; CEncrypt<int>::CEncrypt<int>
  000a8	8d 86 80 01 00
	00		 lea	 eax, DWORD PTR [esi+384]
  000ae	50		 push	 eax
  000af	8d 8f 80 01 00
	00		 lea	 ecx, DWORD PTR [edi+384]
  000b5	c6 45 fc 07	 mov	 BYTE PTR __$EHRec$[ebp+8], 7
  000b9	e8 00 00 00 00	 call	 ??0?$CEncrypt@H@@QAE@ABV0@@Z ; CEncrypt<int>::CEncrypt<int>
  000be	8d 86 b0 01 00
	00		 lea	 eax, DWORD PTR [esi+432]
  000c4	50		 push	 eax
  000c5	8d 8f b0 01 00
	00		 lea	 ecx, DWORD PTR [edi+432]
  000cb	c6 45 fc 08	 mov	 BYTE PTR __$EHRec$[ebp+8], 8
  000cf	e8 00 00 00 00	 call	 ??0?$CEncrypt@H@@QAE@ABV0@@Z ; CEncrypt<int>::CEncrypt<int>
  000d4	68 00 00 00 00	 push	 OFFSET ??1?$CEncrypt@H@@UAE@XZ ; CEncrypt<int>::~CEncrypt<int>
  000d9	68 00 00 00 00	 push	 OFFSET ??0?$CEncrypt@H@@QAE@ABV0@@Z ; CEncrypt<int>::CEncrypt<int>
  000de	6a 04		 push	 4
  000e0	6a 30		 push	 48			; 00000030H
  000e2	8d 86 e0 01 00
	00		 lea	 eax, DWORD PTR [esi+480]
  000e8	50		 push	 eax
  000e9	8d 87 e0 01 00
	00		 lea	 eax, DWORD PTR [edi+480]
  000ef	50		 push	 eax
  000f0	c6 45 fc 09	 mov	 BYTE PTR __$EHRec$[ebp+8], 9
  000f4	e8 00 00 00 00	 call	 ??__C@YGXPAX0IHP6EX00@ZP6EX0@Z@Z
  000f9	8b 86 a0 02 00
	00		 mov	 eax, DWORD PTR [esi+672]
  000ff	89 87 a0 02 00
	00		 mov	 DWORD PTR [edi+672], eax
  00105	8b 86 a4 02 00
	00		 mov	 eax, DWORD PTR [esi+676]
  0010b	89 87 a4 02 00
	00		 mov	 DWORD PTR [edi+676], eax
  00111	66 8b 86 a8 02
	00 00		 mov	 ax, WORD PTR [esi+680]
  00118	66 89 87 a8 02
	00 00		 mov	 WORD PTR [edi+680], ax
  0011f	66 8b 86 aa 02
	00 00		 mov	 ax, WORD PTR [esi+682]
  00126	66 89 87 aa 02
	00 00		 mov	 WORD PTR [edi+682], ax
  0012d	8b 86 ac 02 00
	00		 mov	 eax, DWORD PTR [esi+684]
  00133	89 87 ac 02 00
	00		 mov	 DWORD PTR [edi+684], eax
  00139	8b 86 b0 02 00
	00		 mov	 eax, DWORD PTR [esi+688]
  0013f	89 87 b0 02 00
	00		 mov	 DWORD PTR [edi+688], eax
  00145	8a 86 b4 02 00
	00		 mov	 al, BYTE PTR [esi+692]
  0014b	88 87 b4 02 00
	00		 mov	 BYTE PTR [edi+692], al
  00151	8a 86 b5 02 00
	00		 mov	 al, BYTE PTR [esi+693]
  00157	88 87 b5 02 00
	00		 mov	 BYTE PTR [edi+693], al
  0015d	8a 86 b6 02 00
	00		 mov	 al, BYTE PTR [esi+694]
  00163	88 87 b6 02 00
	00		 mov	 BYTE PTR [edi+694], al
  00169	8b 86 b8 02 00
	00		 mov	 eax, DWORD PTR [esi+696]
  0016f	89 87 b8 02 00
	00		 mov	 DWORD PTR [edi+696], eax
  00175	8a 86 bc 02 00
	00		 mov	 al, BYTE PTR [esi+700]
  0017b	88 87 bc 02 00
	00		 mov	 BYTE PTR [edi+700], al
  00181	8d 8e c0 02 00
	00		 lea	 ecx, DWORD PTR [esi+704]
  00187	8b c1		 mov	 eax, ecx
  00189	2b c6		 sub	 eax, esi
  0018b	8b d6		 mov	 edx, esi
  0018d	c7 45 08 03 00
	00 00		 mov	 DWORD PTR $T520542[ebp], 3
  00194	8d 44 38 08	 lea	 eax, DWORD PTR [eax+edi+8]
  00198	2b d7		 sub	 edx, edi
$LL14@CHARACTER:
  0019a	8b 19		 mov	 ebx, DWORD PTR [ecx]
  0019c	89 58 f8	 mov	 DWORD PTR [eax-8], ebx
  0019f	8b 59 04	 mov	 ebx, DWORD PTR [ecx+4]
  001a2	89 58 fc	 mov	 DWORD PTR [eax-4], ebx
  001a5	8b 1c 02	 mov	 ebx, DWORD PTR [edx+eax]
  001a8	89 18		 mov	 DWORD PTR [eax], ebx
  001aa	8b 59 0c	 mov	 ebx, DWORD PTR [ecx+12]
  001ad	89 58 04	 mov	 DWORD PTR [eax+4], ebx
  001b0	83 c1 10	 add	 ecx, 16			; 00000010H
  001b3	83 c0 10	 add	 eax, 16			; 00000010H
  001b6	ff 4d 08	 dec	 DWORD PTR $T520542[ebp]
  001b9	79 df		 jns	 SHORT $LL14@CHARACTER
  001bb	8d 8e 00 03 00
	00		 lea	 ecx, DWORD PTR [esi+768]
  001c1	8b c1		 mov	 eax, ecx
  001c3	6a 02		 push	 2
  001c5	2b c6		 sub	 eax, esi
  001c7	5b		 pop	 ebx
  001c8	8d 44 38 08	 lea	 eax, DWORD PTR [eax+edi+8]
$LL20@CHARACTER:
  001cc	8b 31		 mov	 esi, DWORD PTR [ecx]
  001ce	89 70 f8	 mov	 DWORD PTR [eax-8], esi
  001d1	8b 71 04	 mov	 esi, DWORD PTR [ecx+4]
  001d4	89 70 fc	 mov	 DWORD PTR [eax-4], esi
  001d7	8b 34 10	 mov	 esi, DWORD PTR [eax+edx]
  001da	89 30		 mov	 DWORD PTR [eax], esi
  001dc	83 c1 0c	 add	 ecx, 12			; 0000000cH
  001df	83 c0 0c	 add	 eax, 12			; 0000000cH
  001e2	4b		 dec	 ebx
  001e3	79 e7		 jns	 SHORT $LL20@CHARACTER
  001e5	8b c7		 mov	 eax, edi
  001e7	e8 00 00 00 00	 call	 __EH_epilog3
  001ec	c2 04 00	 ret	 4
_TEXT	ENDS
;	COMDAT text$x
text$x	SEGMENT
__unwindfunclet$??0CHARACTER@@QAE@ABU0@@Z$0:
  00000	8b 4d f0	 mov	 ecx, DWORD PTR _this$[ebp]
  00003	e9 00 00 00 00	 jmp	 ??1?$CEncrypt@H@@UAE@XZ	; CEncrypt<int>::~CEncrypt<int>
__unwindfunclet$??0CHARACTER@@QAE@ABU0@@Z$1:
  00008	8b 4d f0	 mov	 ecx, DWORD PTR _this$[ebp]
  0000b	83 c1 30	 add	 ecx, 48			; 00000030H
  0000e	e9 00 00 00 00	 jmp	 ??1?$CEncrypt@H@@UAE@XZ	; CEncrypt<int>::~CEncrypt<int>
__unwindfunclet$??0CHARACTER@@QAE@ABU0@@Z$2:
  00013	8b 4d f0	 mov	 ecx, DWORD PTR _this$[ebp]
  00016	83 c1 60	 add	 ecx, 96			; 00000060H
  00019	e9 00 00 00 00	 jmp	 ??1?$CEncrypt@H@@UAE@XZ	; CEncrypt<int>::~CEncrypt<int>
__unwindfunclet$??0CHARACTER@@QAE@ABU0@@Z$3:
  0001e	8b 4d f0	 mov	 ecx, DWORD PTR _this$[ebp]
  00021	81 c1 90 00 00
	00		 add	 ecx, 144		; 00000090H
  00027	e9 00 00 00 00	 jmp	 ??1?$CEncrypt@H@@UAE@XZ	; CEncrypt<int>::~CEncrypt<int>
__unwindfunclet$??0CHARACTER@@QAE@ABU0@@Z$4:
  0002c	8b 4d f0	 mov	 ecx, DWORD PTR _this$[ebp]
  0002f	81 c1 c0 00 00
	00		 add	 ecx, 192		; 000000c0H
  00035	e9 00 00 00 00	 jmp	 ??1?$CEncrypt@H@@UAE@XZ	; CEncrypt<int>::~CEncrypt<int>
__unwindfunclet$??0CHARACTER@@QAE@ABU0@@Z$5:
  0003a	8b 4d f0	 mov	 ecx, DWORD PTR _this$[ebp]
  0003d	81 c1 f0 00 00
	00		 add	 ecx, 240		; 000000f0H
  00043	e9 00 00 00 00	 jmp	 ??1?$CEncrypt@H@@UAE@XZ	; CEncrypt<int>::~CEncrypt<int>
__unwindfunclet$??0CHARACTER@@QAE@ABU0@@Z$6:
  00048	8b 4d f0	 mov	 ecx, DWORD PTR _this$[ebp]
  0004b	81 c1 20 01 00
	00		 add	 ecx, 288		; 00000120H
  00051	e9 00 00 00 00	 jmp	 ??1?$CEncrypt@H@@UAE@XZ	; CEncrypt<int>::~CEncrypt<int>
__unwindfunclet$??0CHARACTER@@QAE@ABU0@@Z$7:
  00056	8b 4d f0	 mov	 ecx, DWORD PTR _this$[ebp]
  00059	81 c1 50 01 00
	00		 add	 ecx, 336		; 00000150H
  0005f	e9 00 00 00 00	 jmp	 ??1?$CEncrypt@H@@UAE@XZ	; CEncrypt<int>::~CEncrypt<int>
__unwindfunclet$??0CHARACTER@@QAE@ABU0@@Z$8:
  00064	8b 4d f0	 mov	 ecx, DWORD PTR _this$[ebp]
  00067	81 c1 80 01 00
	00		 add	 ecx, 384		; 00000180H
  0006d	e9 00 00 00 00	 jmp	 ??1?$CEncrypt@H@@UAE@XZ	; CEncrypt<int>::~CEncrypt<int>
__unwindfunclet$??0CHARACTER@@QAE@ABU0@@Z$9:
  00072	8b 4d f0	 mov	 ecx, DWORD PTR _this$[ebp]
  00075	81 c1 b0 01 00
	00		 add	 ecx, 432		; 000001b0H
  0007b	e9 00 00 00 00	 jmp	 ??1?$CEncrypt@H@@UAE@XZ	; CEncrypt<int>::~CEncrypt<int>
__ehhandler$??0CHARACTER@@QAE@ABU0@@Z:
  00080	8b 54 24 08	 mov	 edx, DWORD PTR [esp+8]
  00084	8d 42 0c	 lea	 eax, DWORD PTR [edx+12]
  00087	8b 4a ec	 mov	 ecx, DWORD PTR [edx-20]
  0008a	33 c8		 xor	 ecx, eax
  0008c	e8 00 00 00 00	 call	 @__security_check_cookie@4
  00091	b8 00 00 00 00	 mov	 eax, OFFSET __ehfuncinfo$??0CHARACTER@@QAE@ABU0@@Z
  00096	e9 00 00 00 00	 jmp	 ___CxxFrameHandler3
text$x	ENDS
??0CHARACTER@@QAE@ABU0@@Z ENDP				; CHARACTER::CHARACTER
PUBLIC	??$_Uninit_copy@V?$_Vector_const_iterator@V?$_Vector_val@HV?$allocator@H@std@@@std@@@std@@PAHV?$allocator@H@2@@std@@YAPAHV?$_Vector_const_iterator@V?$_Vector_val@HV?$allocator@H@std@@@std@@@0@0PAHAAV?$allocator@H@0@U_Nonscalar_ptr_iterator_tag@0@@Z ; std::_Uninit_copy<std::_Vector_const_iterator<std::_Vector_val<int,std::allocator<int> > >,int *,std::allocator<int> >
; Function compile flags: /Ogsp
; File c:\program files (x86)\microsoft visual studio 10.0\vc\include\memory
;	COMDAT ??$_Uninit_copy@V?$_Vector_const_iterator@V?$_Vector_val@HV?$allocator@H@std@@@std@@@std@@PAHV?$allocator@H@2@@std@@YAPAHV?$_Vector_const_iterator@V?$_Vector_val@HV?$allocator@H@std@@@std@@@0@0PAHAAV?$allocator@H@0@U_Nonscalar_ptr_iterator_tag@0@@Z
_TEXT	SEGMENT
__First$ = 8						; size = 4
__Last$ = 12						; size = 4
__Dest$ = 16						; size = 4
__Al$ = 20						; size = 4
___formal$ = 24						; size = 1
??$_Uninit_copy@V?$_Vector_const_iterator@V?$_Vector_val@HV?$allocator@H@std@@@std@@@std@@PAHV?$allocator@H@2@@std@@YAPAHV?$_Vector_const_iterator@V?$_Vector_val@HV?$allocator@H@std@@@std@@@0@0PAHAAV?$allocator@H@0@U_Nonscalar_ptr_iterator_tag@0@@Z PROC ; std::_Uninit_copy<std::_Vector_const_iterator<std::_Vector_val<int,std::allocator<int> > >,int *,std::allocator<int> >, COMDAT

; 369  : 	{	// copy [_First, _Last) to raw _Dest, using _Al, arbitrary type

  00000	55		 push	 ebp
  00001	8b ec		 mov	 ebp, esp

; 370  : 	_DEBUG_RANGE(_First, _Last);
; 371  : 	_DEBUG_POINTER(_Dest);
; 372  : 	_FwdIt _Next = _Dest;
; 373  : 
; 374  : 	_TRY_BEGIN
; 375  : 	for (; _First != _Last; ++_Dest, ++_First)

  00003	8b 45 08	 mov	 eax, DWORD PTR __First$[ebp]
  00006	eb 17		 jmp	 SHORT $LN48@Uninit_cop
$LL14@Uninit_cop:

; 376  : 		_Cons_val(_Al, _Dest, *_First);

  00008	83 7d 10 00	 cmp	 DWORD PTR __Dest$[ebp], 0
  0000c	74 07		 je	 SHORT $LN32@Uninit_cop
  0000e	8b 08		 mov	 ecx, DWORD PTR [eax]
  00010	8b 55 10	 mov	 edx, DWORD PTR __Dest$[ebp]
  00013	89 0a		 mov	 DWORD PTR [edx], ecx
$LN32@Uninit_cop:

; 370  : 	_DEBUG_RANGE(_First, _Last);
; 371  : 	_DEBUG_POINTER(_Dest);
; 372  : 	_FwdIt _Next = _Dest;
; 373  : 
; 374  : 	_TRY_BEGIN
; 375  : 	for (; _First != _Last; ++_Dest, ++_First)

  00015	83 45 10 04	 add	 DWORD PTR __Dest$[ebp], 4
  00019	83 c0 04	 add	 eax, 4
  0001c	89 45 08	 mov	 DWORD PTR __First$[ebp], eax
$LN48@Uninit_cop:
  0001f	3b 45 0c	 cmp	 eax, DWORD PTR __Last$[ebp]
  00022	75 e4		 jne	 SHORT $LL14@Uninit_cop

; 377  : 	_CATCH_ALL
; 378  : 	for (; _Next != _Dest; ++_Next)
; 379  : 		_Dest_val(_Al, _Next);
; 380  : 	_RERAISE;
; 381  : 	_CATCH_END
; 382  : 	return (_Dest);

  00024	8b 45 10	 mov	 eax, DWORD PTR __Dest$[ebp]

; 383  : 	}

  00027	5d		 pop	 ebp
  00028	c3		 ret	 0
??$_Uninit_copy@V?$_Vector_const_iterator@V?$_Vector_val@HV?$allocator@H@std@@@std@@@std@@PAHV?$allocator@H@2@@std@@YAPAHV?$_Vector_const_iterator@V?$_Vector_val@HV?$allocator@H@std@@@std@@@0@0PAHAAV?$allocator@H@0@U_Nonscalar_ptr_iterator_tag@0@@Z ENDP ; std::_Uninit_copy<std::_Vector_const_iterator<std::_Vector_val<int,std::allocator<int> > >,int *,std::allocator<int> >
_TEXT	ENDS
PUBLIC	??0CHARACTER@@QAE@XZ				; CHARACTER::CHARACTER
EXTRN	??_L@YGXPAXIHP6EX0@Z1@Z:PROC			; `eh vector constructor iterator'
;	COMDAT xdata$x
; File d:\lost saga for developer\youtube\tutorial\source\src\lsclient\accessoryenumtype.h
xdata$x	SEGMENT
__ehfuncinfo$??0CHARACTER@@QAE@XZ DD 019930522H
	DD	0bH
	DD	FLAT:__unwindtable$??0CHARACTER@@QAE@XZ
	DD	2 DUP(00H)
	DD	2 DUP(00H)
	DD	00H
	DD	01H
__unwindtable$??0CHARACTER@@QAE@XZ DD 0ffffffffH
	DD	FLAT:__unwindfunclet$??0CHARACTER@@QAE@XZ$0
	DD	00H
	DD	FLAT:__unwindfunclet$??0CHARACTER@@QAE@XZ$1
	DD	01H
	DD	FLAT:__unwindfunclet$??0CHARACTER@@QAE@XZ$2
	DD	02H
	DD	FLAT:__unwindfunclet$??0CHARACTER@@QAE@XZ$3
	DD	03H
	DD	FLAT:__unwindfunclet$??0CHARACTER@@QAE@XZ$4
	DD	04H
	DD	FLAT:__unwindfunclet$??0CHARACTER@@QAE@XZ$5
	DD	05H
	DD	FLAT:__unwindfunclet$??0CHARACTER@@QAE@XZ$6
	DD	06H
	DD	FLAT:__unwindfunclet$??0CHARACTER@@QAE@XZ$7
	DD	07H
	DD	FLAT:__unwindfunclet$??0CHARACTER@@QAE@XZ$8
	DD	08H
	DD	FLAT:__unwindfunclet$??0CHARACTER@@QAE@XZ$9
	DD	09H
	DD	FLAT:__unwindfunclet$??0CHARACTER@@QAE@XZ$10
; Function compile flags: /Ogsp
; File d:\lost saga for developer\youtube\tutorial\source\src\lsclient\characterinfo.h
xdata$x	ENDS
;	COMDAT ??0CHARACTER@@QAE@XZ
_TEXT	SEGMENT
_this$ = -16						; size = 4
__$EHRec$ = -12						; size = 12
??0CHARACTER@@QAE@XZ PROC				; CHARACTER::CHARACTER, COMDAT
; _this$ = ecx

; 344  : 	CHARACTER()

  00000	6a 04		 push	 4
  00002	b8 00 00 00 00	 mov	 eax, __ehhandler$??0CHARACTER@@QAE@XZ
  00007	e8 00 00 00 00	 call	 __EH_prolog3
  0000c	8b f1		 mov	 esi, ecx
  0000e	89 75 f0	 mov	 DWORD PTR _this$[ebp], esi
  00011	e8 00 00 00 00	 call	 ??0?$CEncrypt@H@@QAE@XZ	; CEncrypt<int>::CEncrypt<int>
  00016	33 ff		 xor	 edi, edi
  00018	8d 4e 30	 lea	 ecx, DWORD PTR [esi+48]
  0001b	89 7d fc	 mov	 DWORD PTR __$EHRec$[ebp+8], edi
  0001e	e8 00 00 00 00	 call	 ??0?$CEncrypt@H@@QAE@XZ	; CEncrypt<int>::CEncrypt<int>
  00023	8d 4e 60	 lea	 ecx, DWORD PTR [esi+96]
  00026	c6 45 fc 01	 mov	 BYTE PTR __$EHRec$[ebp+8], 1
  0002a	e8 00 00 00 00	 call	 ??0?$CEncrypt@H@@QAE@XZ	; CEncrypt<int>::CEncrypt<int>
  0002f	8d 8e 90 00 00
	00		 lea	 ecx, DWORD PTR [esi+144]
  00035	c6 45 fc 02	 mov	 BYTE PTR __$EHRec$[ebp+8], 2
  00039	e8 00 00 00 00	 call	 ??0?$CEncrypt@H@@QAE@XZ	; CEncrypt<int>::CEncrypt<int>
  0003e	8d 8e c0 00 00
	00		 lea	 ecx, DWORD PTR [esi+192]
  00044	c6 45 fc 03	 mov	 BYTE PTR __$EHRec$[ebp+8], 3
  00048	e8 00 00 00 00	 call	 ??0?$CEncrypt@H@@QAE@XZ	; CEncrypt<int>::CEncrypt<int>
  0004d	8d 8e f0 00 00
	00		 lea	 ecx, DWORD PTR [esi+240]
  00053	c6 45 fc 04	 mov	 BYTE PTR __$EHRec$[ebp+8], 4
  00057	e8 00 00 00 00	 call	 ??0?$CEncrypt@H@@QAE@XZ	; CEncrypt<int>::CEncrypt<int>
  0005c	8d 8e 20 01 00
	00		 lea	 ecx, DWORD PTR [esi+288]
  00062	c6 45 fc 05	 mov	 BYTE PTR __$EHRec$[ebp+8], 5
  00066	e8 00 00 00 00	 call	 ??0?$CEncrypt@H@@QAE@XZ	; CEncrypt<int>::CEncrypt<int>
  0006b	8d 8e 50 01 00
	00		 lea	 ecx, DWORD PTR [esi+336]
  00071	c6 45 fc 06	 mov	 BYTE PTR __$EHRec$[ebp+8], 6
  00075	e8 00 00 00 00	 call	 ??0?$CEncrypt@H@@QAE@XZ	; CEncrypt<int>::CEncrypt<int>
  0007a	8d 8e 80 01 00
	00		 lea	 ecx, DWORD PTR [esi+384]
  00080	c6 45 fc 07	 mov	 BYTE PTR __$EHRec$[ebp+8], 7
  00084	e8 00 00 00 00	 call	 ??0?$CEncrypt@H@@QAE@XZ	; CEncrypt<int>::CEncrypt<int>
  00089	8d 8e b0 01 00
	00		 lea	 ecx, DWORD PTR [esi+432]
  0008f	c6 45 fc 08	 mov	 BYTE PTR __$EHRec$[ebp+8], 8
  00093	e8 00 00 00 00	 call	 ??0?$CEncrypt@H@@QAE@XZ	; CEncrypt<int>::CEncrypt<int>
  00098	68 00 00 00 00	 push	 OFFSET ??1?$CEncrypt@H@@UAE@XZ ; CEncrypt<int>::~CEncrypt<int>
  0009d	68 00 00 00 00	 push	 OFFSET ??0?$CEncrypt@H@@QAE@XZ ; CEncrypt<int>::CEncrypt<int>
  000a2	6a 04		 push	 4
  000a4	6a 30		 push	 48			; 00000030H
  000a6	8d 86 e0 01 00
	00		 lea	 eax, DWORD PTR [esi+480]
  000ac	50		 push	 eax
  000ad	c6 45 fc 09	 mov	 BYTE PTR __$EHRec$[ebp+8], 9
  000b1	e8 00 00 00 00	 call	 ??_L@YGXPAXIHP6EX0@Z1@Z
  000b6	6a 03		 push	 3
  000b8	c6 45 fc 0a	 mov	 BYTE PTR __$EHRec$[ebp+8], 10 ; 0000000aH
  000bc	8d 86 c0 02 00
	00		 lea	 eax, DWORD PTR [esi+704]
  000c2	59		 pop	 ecx
$LL15@CHARACTER@2:
  000c3	89 38		 mov	 DWORD PTR [eax], edi
  000c5	89 78 04	 mov	 DWORD PTR [eax+4], edi
  000c8	89 78 08	 mov	 DWORD PTR [eax+8], edi
  000cb	89 78 0c	 mov	 DWORD PTR [eax+12], edi
  000ce	83 c0 10	 add	 eax, 16			; 00000010H
  000d1	49		 dec	 ecx
  000d2	79 ef		 jns	 SHORT $LL15@CHARACTER@2
  000d4	6a 02		 push	 2
  000d6	8d 86 00 03 00
	00		 lea	 eax, DWORD PTR [esi+768]
  000dc	59		 pop	 ecx
$LL23@CHARACTER@2:
  000dd	89 38		 mov	 DWORD PTR [eax], edi
  000df	89 78 04	 mov	 DWORD PTR [eax+4], edi
  000e2	89 78 08	 mov	 DWORD PTR [eax+8], edi
  000e5	83 c0 0c	 add	 eax, 12			; 0000000cH
  000e8	49		 dec	 ecx
  000e9	79 f2		 jns	 SHORT $LL23@CHARACTER@2

; 345  : 	{
; 346  : 		Init();

  000eb	8b ce		 mov	 ecx, esi
  000ed	e8 00 00 00 00	 call	 ?Init@CHARACTER@@QAEXXZ	; CHARACTER::Init

; 347  : 	}

  000f2	8b c6		 mov	 eax, esi
  000f4	e8 00 00 00 00	 call	 __EH_epilog3
  000f9	c3		 ret	 0
_TEXT	ENDS
;	COMDAT text$x
text$x	SEGMENT
__unwindfunclet$??0CHARACTER@@QAE@XZ$0:
  00000	8b 4d f0	 mov	 ecx, DWORD PTR _this$[ebp]
  00003	e9 00 00 00 00	 jmp	 ??1?$CEncrypt@H@@UAE@XZ	; CEncrypt<int>::~CEncrypt<int>
__unwindfunclet$??0CHARACTER@@QAE@XZ$1:
  00008	8b 4d f0	 mov	 ecx, DWORD PTR _this$[ebp]
  0000b	83 c1 30	 add	 ecx, 48			; 00000030H
  0000e	e9 00 00 00 00	 jmp	 ??1?$CEncrypt@H@@UAE@XZ	; CEncrypt<int>::~CEncrypt<int>
__unwindfunclet$??0CHARACTER@@QAE@XZ$2:
  00013	8b 4d f0	 mov	 ecx, DWORD PTR _this$[ebp]
  00016	83 c1 60	 add	 ecx, 96			; 00000060H
  00019	e9 00 00 00 00	 jmp	 ??1?$CEncrypt@H@@UAE@XZ	; CEncrypt<int>::~CEncrypt<int>
__unwindfunclet$??0CHARACTER@@QAE@XZ$3:
  0001e	8b 4d f0	 mov	 ecx, DWORD PTR _this$[ebp]
  00021	81 c1 90 00 00
	00		 add	 ecx, 144		; 00000090H
  00027	e9 00 00 00 00	 jmp	 ??1?$CEncrypt@H@@UAE@XZ	; CEncrypt<int>::~CEncrypt<int>
__unwindfunclet$??0CHARACTER@@QAE@XZ$4:
  0002c	8b 4d f0	 mov	 ecx, DWORD PTR _this$[ebp]
  0002f	81 c1 c0 00 00
	00		 add	 ecx, 192		; 000000c0H
  00035	e9 00 00 00 00	 jmp	 ??1?$CEncrypt@H@@UAE@XZ	; CEncrypt<int>::~CEncrypt<int>
__unwindfunclet$??0CHARACTER@@QAE@XZ$5:
  0003a	8b 4d f0	 mov	 ecx, DWORD PTR _this$[ebp]
  0003d	81 c1 f0 00 00
	00		 add	 ecx, 240		; 000000f0H
  00043	e9 00 00 00 00	 jmp	 ??1?$CEncrypt@H@@UAE@XZ	; CEncrypt<int>::~CEncrypt<int>
__unwindfunclet$??0CHARACTER@@QAE@XZ$6:
  00048	8b 4d f0	 mov	 ecx, DWORD PTR _this$[ebp]
  0004b	81 c1 20 01 00
	00		 add	 ecx, 288		; 00000120H
  00051	e9 00 00 00 00	 jmp	 ??1?$CEncrypt@H@@UAE@XZ	; CEncrypt<int>::~CEncrypt<int>
__unwindfunclet$??0CHARACTER@@QAE@XZ$7:
  00056	8b 4d f0	 mov	 ecx, DWORD PTR _this$[ebp]
  00059	81 c1 50 01 00
	00		 add	 ecx, 336		; 00000150H
  0005f	e9 00 00 00 00	 jmp	 ??1?$CEncrypt@H@@UAE@XZ	; CEncrypt<int>::~CEncrypt<int>
__unwindfunclet$??0CHARACTER@@QAE@XZ$8:
  00064	8b 4d f0	 mov	 ecx, DWORD PTR _this$[ebp]
  00067	81 c1 80 01 00
	00		 add	 ecx, 384		; 00000180H
  0006d	e9 00 00 00 00	 jmp	 ??1?$CEncrypt@H@@UAE@XZ	; CEncrypt<int>::~CEncrypt<int>
__unwindfunclet$??0CHARACTER@@QAE@XZ$9:
  00072	8b 4d f0	 mov	 ecx, DWORD PTR _this$[ebp]
  00075	81 c1 b0 01 00
	00		 add	 ecx, 432		; 000001b0H
  0007b	e9 00 00 00 00	 jmp	 ??1?$CEncrypt@H@@UAE@XZ	; CEncrypt<int>::~CEncrypt<int>
__unwindfunclet$??0CHARACTER@@QAE@XZ$10:
  00080	68 00 00 00 00	 push	 OFFSET ??1?$CEncrypt@H@@UAE@XZ ; CEncrypt<int>::~CEncrypt<int>
  00085	6a 04		 push	 4
  00087	6a 30		 push	 48			; 00000030H
  00089	8b 45 f0	 mov	 eax, DWORD PTR _this$[ebp]
  0008c	05 e0 01 00 00	 add	 eax, 480		; 000001e0H
  00091	50		 push	 eax
  00092	e8 00 00 00 00	 call	 ??_M@YGXPAXIHP6EX0@Z@Z
  00097	c3		 ret	 0
__ehhandler$??0CHARACTER@@QAE@XZ:
  00098	8b 54 24 08	 mov	 edx, DWORD PTR [esp+8]
  0009c	8d 42 0c	 lea	 eax, DWORD PTR [edx+12]
  0009f	8b 4a ec	 mov	 ecx, DWORD PTR [edx-20]
  000a2	33 c8		 xor	 ecx, eax
  000a4	e8 00 00 00 00	 call	 @__security_check_cookie@4
  000a9	b8 00 00 00 00	 mov	 eax, OFFSET __ehfuncinfo$??0CHARACTER@@QAE@XZ
  000ae	e9 00 00 00 00	 jmp	 ___CxxFrameHandler3
text$x	ENDS
??0CHARACTER@@QAE@XZ ENDP				; CHARACTER::CHARACTER
PUBLIC	?erase@?$vector@HV?$allocator@H@std@@@std@@QAE?AV?$_Vector_iterator@V?$_Vector_val@HV?$allocator@H@std@@@std@@@2@V?$_Vector_const_iterator@V?$_Vector_val@HV?$allocator@H@std@@@std@@@2@0@Z ; std::vector<int,std::allocator<int> >::erase
; Function compile flags: /Ogsp
; File c:\program files (x86)\microsoft visual studio 10.0\vc\include\vector
;	COMDAT ?erase@?$vector@HV?$allocator@H@std@@@std@@QAE?AV?$_Vector_iterator@V?$_Vector_val@HV?$allocator@H@std@@@std@@@2@V?$_Vector_const_iterator@V?$_Vector_val@HV?$allocator@H@std@@@std@@@2@0@Z
_TEXT	SEGMENT
___$ReturnUdt$ = 8					; size = 4
__First_arg$ = 12					; size = 4
__Cat$520809 = 16					; size = 1
__Last_arg$ = 16					; size = 4
?erase@?$vector@HV?$allocator@H@std@@@std@@QAE?AV?$_Vector_iterator@V?$_Vector_val@HV?$allocator@H@std@@@std@@@2@V?$_Vector_const_iterator@V?$_Vector_val@HV?$allocator@H@std@@@std@@@2@0@Z PROC ; std::vector<int,std::allocator<int> >::erase, COMDAT
; _this$ = ecx

; 1190 : 		{	// erase [_First, _Last)

  00000	55		 push	 ebp
  00001	8b ec		 mov	 ebp, esp

; 1191 : 		iterator _First = _Make_iter(_First_arg);

  00003	8b 45 0c	 mov	 eax, DWORD PTR __First_arg$[ebp]
  00006	56		 push	 esi
  00007	57		 push	 edi
  00008	8b 7d 08	 mov	 edi, DWORD PTR ___$ReturnUdt$[ebp]
  0000b	8b f1		 mov	 esi, ecx
  0000d	89 07		 mov	 DWORD PTR [edi], eax

; 1192 : 		iterator _Last = _Make_iter(_Last_arg);
; 1193 : 
; 1194 : 		if (_First != _Last)

  0000f	3b 45 10	 cmp	 eax, DWORD PTR __Last_arg$[ebp]
  00012	74 16		 je	 SHORT $LN1@erase@2

; 1195 : 			{	// worth doing, copy down over hole
; 1196 :  #if _ITERATOR_DEBUG_LEVEL == 2
; 1197 : 			if (_Last < _First || _VICONT(_First) != this
; 1198 : 				|| _VIPTR(_First) < this->_Myfirst
; 1199 : 				|| this->_Mylast < _VIPTR(_Last))
; 1200 : 				_DEBUG_ERROR("vector erase iterator outside range");
; 1201 : 			pointer _Ptr = _Move(_VIPTR(_Last), this->_Mylast,
; 1202 : 				_VIPTR(_First));
; 1203 : 			_Orphan_range(_VIPTR(_First), this->_Mylast);
; 1204 : 
; 1205 :  #else /* _ITERATOR_DEBUG_LEVEL == 2 */
; 1206 : 			pointer _Ptr = _Move(_VIPTR(_Last), this->_Mylast,
; 1207 : 				_VIPTR(_First));

  00014	ff 75 10	 push	 DWORD PTR __Cat$520809[ebp]
  00017	8b 4e 04	 mov	 ecx, DWORD PTR [esi+4]
  0001a	50		 push	 eax
  0001b	51		 push	 ecx
  0001c	ff 75 10	 push	 DWORD PTR __Last_arg$[ebp]
  0001f	e8 00 00 00 00	 call	 ??$_Move@PAHPAH@std@@YAPAHPAH00U_Scalar_ptr_iterator_tag@0@@Z ; std::_Move<int *,int *>
  00024	83 c4 10	 add	 esp, 16			; 00000010H

; 1208 :  #endif /* _ITERATOR_DEBUG_LEVEL == 2 */
; 1209 : 
; 1210 : 			_Destroy(_Ptr, this->_Mylast);
; 1211 : 			this->_Mylast = _Ptr;

  00027	89 46 04	 mov	 DWORD PTR [esi+4], eax
$LN1@erase@2:

; 1212 : 			}
; 1213 : 		return (_First);

  0002a	8b c7		 mov	 eax, edi
  0002c	5f		 pop	 edi
  0002d	5e		 pop	 esi

; 1214 : 		}

  0002e	5d		 pop	 ebp
  0002f	c2 0c 00	 ret	 12			; 0000000cH
?erase@?$vector@HV?$allocator@H@std@@@std@@QAE?AV?$_Vector_iterator@V?$_Vector_val@HV?$allocator@H@std@@@std@@@2@V?$_Vector_const_iterator@V?$_Vector_val@HV?$allocator@H@std@@@std@@@2@0@Z ENDP ; std::vector<int,std::allocator<int> >::erase
_TEXT	ENDS
PUBLIC	?_Tidy@?$vector@HV?$allocator@H@std@@@std@@IAEXXZ ; std::vector<int,std::allocator<int> >::_Tidy
; Function compile flags: /Ogsp
;	COMDAT ?_Tidy@?$vector@HV?$allocator@H@std@@@std@@IAEXXZ
_TEXT	SEGMENT
?_Tidy@?$vector@HV?$allocator@H@std@@@std@@IAEXXZ PROC	; std::vector<int,std::allocator<int> >::_Tidy, COMDAT
; _this$ = ecx

; 1301 : 		{	// free all storage

  00000	56		 push	 esi
  00001	8b f1		 mov	 esi, ecx

; 1302 : 		if (this->_Myfirst != 0)

  00003	83 3e 00	 cmp	 DWORD PTR [esi], 0
  00006	74 0e		 je	 SHORT $LN12@Tidy@2

; 1303 : 			{	// something to free, destroy and deallocate it
; 1304 : 			this->_Orphan_all();

  00008	ff 15 00 00 00
	00		 call	 DWORD PTR __imp_?_Orphan_all@_Container_base0@std@@QAEXXZ

; 1305 : 			_Destroy(this->_Myfirst, this->_Mylast);
; 1306 : 			this->_Alval.deallocate(this->_Myfirst,
; 1307 : 				this->_Myend - this->_Myfirst);

  0000e	ff 36		 push	 DWORD PTR [esi]
  00010	e8 00 00 00 00	 call	 ??3@YAXPAX@Z		; operator delete
  00015	59		 pop	 ecx
$LN12@Tidy@2:

; 1308 : 			}
; 1309 : 		this->_Myfirst = 0;

  00016	83 26 00	 and	 DWORD PTR [esi], 0

; 1310 : 		this->_Mylast = 0;

  00019	83 66 04 00	 and	 DWORD PTR [esi+4], 0

; 1311 : 		this->_Myend = 0;

  0001d	83 66 08 00	 and	 DWORD PTR [esi+8], 0
  00021	5e		 pop	 esi

; 1312 : 		}

  00022	c3		 ret	 0
?_Tidy@?$vector@HV?$allocator@H@std@@@std@@IAEXXZ ENDP	; std::vector<int,std::allocator<int> >::_Tidy
_TEXT	ENDS
PUBLIC	?reserve@?$vector@HV?$allocator@H@std@@@std@@QAEXI@Z ; std::vector<int,std::allocator<int> >::reserve
; Function compile flags: /Ogsp
;	COMDAT ?reserve@?$vector@HV?$allocator@H@std@@@std@@QAEXI@Z
_TEXT	SEGMENT
__Count$ = 8						; size = 4
?reserve@?$vector@HV?$allocator@H@std@@@std@@QAEXI@Z PROC ; std::vector<int,std::allocator<int> >::reserve, COMDAT
; _this$ = ecx

; 746  : 		{	// determine new minimum length of allocated storage

  00000	55		 push	 ebp
  00001	8b ec		 mov	 ebp, esp

; 747  : 		if (max_size() < _Count)

  00003	81 7d 08 ff ff
	ff 3f		 cmp	 DWORD PTR __Count$[ebp], 1073741823 ; 3fffffffH
  0000a	56		 push	 esi
  0000b	8b f1		 mov	 esi, ecx
  0000d	76 0b		 jbe	 SHORT $LN5@reserve@2

; 748  : 			_Xlen();	// result too long

  0000f	68 00 00 00 00	 push	 OFFSET ??_C@_0BD@OLBABOEK@vector?$DMT?$DO?5too?5long?$AA@
  00014	ff 15 00 00 00
	00		 call	 DWORD PTR __imp_?_Xlength_error@std@@YAXPBD@Z
$LN43@reserve@2:
$LN5@reserve@2:

; 749  : 		else if (capacity() < _Count)

  0001a	8b 46 08	 mov	 eax, DWORD PTR [esi+8]
  0001d	2b 06		 sub	 eax, DWORD PTR [esi]
  0001f	c1 f8 02	 sar	 eax, 2
  00022	3b 45 08	 cmp	 eax, DWORD PTR __Count$[ebp]
  00025	73 52		 jae	 SHORT $LN3@reserve@2

; 750  : 			{	// not enough room, reallocate
; 751  : 			pointer _Ptr = this->_Alval.allocate(_Count);

  00027	53		 push	 ebx
  00028	57		 push	 edi
  00029	6a 00		 push	 0
  0002b	ff 75 08	 push	 DWORD PTR __Count$[ebp]
  0002e	e8 00 00 00 00	 call	 ??$_Allocate@H@std@@YAPAHIPAH@Z ; std::_Allocate<int>

; 752  : 
; 753  : 			_TRY_BEGIN
; 754  : 			_Umove(this->_Myfirst, this->_Mylast, _Ptr);

  00033	8b 0e		 mov	 ecx, DWORD PTR [esi]
  00035	8d 56 0c	 lea	 edx, DWORD PTR [esi+12]
  00038	52		 push	 edx
  00039	8b d8		 mov	 ebx, eax
  0003b	8b 46 04	 mov	 eax, DWORD PTR [esi+4]
  0003e	53		 push	 ebx
  0003f	50		 push	 eax
  00040	51		 push	 ecx
  00041	e8 00 00 00 00	 call	 ??$_Uninitialized_move@PAHPAHV?$allocator@H@std@@@std@@YAPAHPAH00AAV?$allocator@H@0@@Z ; std::_Uninitialized_move<int *,int *,std::allocator<int> >

; 755  : 			_CATCH_ALL
; 756  : 			this->_Alval.deallocate(_Ptr, _Count);
; 757  : 			_RERAISE;
; 758  : 			_CATCH_END
; 759  : 
; 760  : 			size_type _Size = size();

  00046	8b 06		 mov	 eax, DWORD PTR [esi]
  00048	8b 7e 04	 mov	 edi, DWORD PTR [esi+4]
  0004b	2b f8		 sub	 edi, eax
  0004d	83 c4 18	 add	 esp, 24			; 00000018H
  00050	c1 ff 02	 sar	 edi, 2

; 761  : 			if (this->_Myfirst != 0)

  00053	85 c0		 test	 eax, eax
  00055	74 07		 je	 SHORT $LN39@reserve@2

; 762  : 				{	// destroy and deallocate old array
; 763  : 				_Destroy(this->_Myfirst, this->_Mylast);
; 764  : 				this->_Alval.deallocate(this->_Myfirst,
; 765  : 					this->_Myend - this->_Myfirst);

  00057	50		 push	 eax
  00058	e8 00 00 00 00	 call	 ??3@YAXPAX@Z		; operator delete
  0005d	59		 pop	 ecx
$LN39@reserve@2:

; 766  : 				}
; 767  : 
; 768  : 			this->_Orphan_all();

  0005e	8b ce		 mov	 ecx, esi
  00060	ff 15 00 00 00
	00		 call	 DWORD PTR __imp_?_Orphan_all@_Container_base0@std@@QAEXXZ

; 769  : 			this->_Myend = _Ptr + _Count;

  00066	8b 45 08	 mov	 eax, DWORD PTR __Count$[ebp]
  00069	8d 04 83	 lea	 eax, DWORD PTR [ebx+eax*4]
  0006c	89 46 08	 mov	 DWORD PTR [esi+8], eax

; 770  : 			this->_Mylast = _Ptr + _Size;

  0006f	8d 04 bb	 lea	 eax, DWORD PTR [ebx+edi*4]
  00072	5f		 pop	 edi

; 771  : 			this->_Myfirst = _Ptr;

  00073	89 1e		 mov	 DWORD PTR [esi], ebx
  00075	89 46 04	 mov	 DWORD PTR [esi+4], eax
  00078	5b		 pop	 ebx
$LN3@reserve@2:
  00079	5e		 pop	 esi

; 772  : 			}
; 773  : 		}

  0007a	5d		 pop	 ebp
  0007b	c2 04 00	 ret	 4
$LN42@reserve@2:
?reserve@?$vector@HV?$allocator@H@std@@@std@@QAEXI@Z ENDP ; std::vector<int,std::allocator<int> >::reserve
_TEXT	ENDS
PUBLIC	??1?$vector@PAVUserInfoNode@@V?$allocator@PAVUserInfoNode@@@std@@@std@@QAE@XZ ; std::vector<UserInfoNode *,std::allocator<UserInfoNode *> >::~vector<UserInfoNode *,std::allocator<UserInfoNode *> >
; Function compile flags: /Ogsp
;	COMDAT ??1?$vector@PAVUserInfoNode@@V?$allocator@PAVUserInfoNode@@@std@@@std@@QAE@XZ
_TEXT	SEGMENT
??1?$vector@PAVUserInfoNode@@V?$allocator@PAVUserInfoNode@@@std@@@std@@QAE@XZ PROC ; std::vector<UserInfoNode *,std::allocator<UserInfoNode *> >::~vector<UserInfoNode *,std::allocator<UserInfoNode *> >, COMDAT
; _this$ = ecx

; 705  : 		_Tidy();

  00000	e9 00 00 00 00	 jmp	 ?_Tidy@?$vector@PAVUserInfoNode@@V?$allocator@PAVUserInfoNode@@@std@@@std@@IAEXXZ ; std::vector<UserInfoNode *,std::allocator<UserInfoNode *> >::_Tidy
??1?$vector@PAVUserInfoNode@@V?$allocator@PAVUserInfoNode@@@std@@@std@@QAE@XZ ENDP ; std::vector<UserInfoNode *,std::allocator<UserInfoNode *> >::~vector<UserInfoNode *,std::allocator<UserInfoNode *> >
_TEXT	ENDS
PUBLIC	?clear@?$vector@PAVUserInfoNode@@V?$allocator@PAVUserInfoNode@@@std@@@std@@QAEXXZ ; std::vector<UserInfoNode *,std::allocator<UserInfoNode *> >::clear
; Function compile flags: /Ogsp
;	COMDAT ?clear@?$vector@PAVUserInfoNode@@V?$allocator@PAVUserInfoNode@@@std@@@std@@QAEXXZ
_TEXT	SEGMENT
$T520972 = -4						; size = 4
?clear@?$vector@PAVUserInfoNode@@V?$allocator@PAVUserInfoNode@@@std@@@std@@QAEXXZ PROC ; std::vector<UserInfoNode *,std::allocator<UserInfoNode *> >::clear, COMDAT
; _this$ = ecx

; 1217 : 		{	// erase all

  00000	55		 push	 ebp
  00001	8b ec		 mov	 ebp, esp
  00003	51		 push	 ecx

; 1218 : 		erase(begin(), end());

  00004	8b 41 04	 mov	 eax, DWORD PTR [ecx+4]
  00007	8b 11		 mov	 edx, DWORD PTR [ecx]
  00009	50		 push	 eax
  0000a	52		 push	 edx
  0000b	8d 45 fc	 lea	 eax, DWORD PTR $T520972[ebp]
  0000e	50		 push	 eax
  0000f	e8 00 00 00 00	 call	 ?erase@?$vector@PAVUserInfoNode@@V?$allocator@PAVUserInfoNode@@@std@@@std@@QAE?AV?$_Vector_iterator@V?$_Vector_val@PAVUserInfoNode@@V?$allocator@PAVUserInfoNode@@@std@@@std@@@2@V?$_Vector_const_iterator@V?$_Vector_val@PAVUserInfoNode@@V?$allocator@PAVUserInfoNode@@@std@@@std@@@2@0@Z ; std::vector<UserInfoNode *,std::allocator<UserInfoNode *> >::erase

; 1219 : 		}

  00014	c9		 leave
  00015	c3		 ret	 0
?clear@?$vector@PAVUserInfoNode@@V?$allocator@PAVUserInfoNode@@@std@@@std@@QAEXXZ ENDP ; std::vector<UserInfoNode *,std::allocator<UserInfoNode *> >::clear
_TEXT	ENDS
PUBLIC	?_Reserve@?$vector@PAVUserInfoNode@@V?$allocator@PAVUserInfoNode@@@std@@@std@@IAEXI@Z ; std::vector<UserInfoNode *,std::allocator<UserInfoNode *> >::_Reserve
; Function compile flags: /Ogsp
;	COMDAT ?_Reserve@?$vector@PAVUserInfoNode@@V?$allocator@PAVUserInfoNode@@@std@@@std@@IAEXI@Z
_TEXT	SEGMENT
__Count$ = 8						; size = 4
?_Reserve@?$vector@PAVUserInfoNode@@V?$allocator@PAVUserInfoNode@@@std@@@std@@IAEXI@Z PROC ; std::vector<UserInfoNode *,std::allocator<UserInfoNode *> >::_Reserve, COMDAT
; _this$ = ecx

; 1290 : 		{	// ensure room for _Count new elements, grow exponentially

  00000	55		 push	 ebp
  00001	8b ec		 mov	 ebp, esp
  00003	56		 push	 esi
  00004	8b f1		 mov	 esi, ecx

; 1291 : 		size_type _Size = size();

  00006	8b 0e		 mov	 ecx, DWORD PTR [esi]
  00008	8b 46 04	 mov	 eax, DWORD PTR [esi+4]
  0000b	2b c1		 sub	 eax, ecx

; 1292 : 		if (max_size() - _Count < _Size)

  0000d	ba ff ff ff 3f	 mov	 edx, 1073741823		; 3fffffffH
  00012	2b 55 08	 sub	 edx, DWORD PTR __Count$[ebp]
  00015	c1 f8 02	 sar	 eax, 2
  00018	3b d0		 cmp	 edx, eax
  0001a	73 0b		 jae	 SHORT $LN4@Reserve

; 1293 : 			_Xlen();

  0001c	68 00 00 00 00	 push	 OFFSET ??_C@_0BD@OLBABOEK@vector?$DMT?$DO?5too?5long?$AA@
  00021	ff 15 00 00 00
	00		 call	 DWORD PTR __imp_?_Xlength_error@std@@YAXPBD@Z
$LN21@Reserve:
$LN4@Reserve:

; 1294 : 		else if ((_Size += _Count) <= capacity())

  00027	8b 56 08	 mov	 edx, DWORD PTR [esi+8]
  0002a	03 45 08	 add	 eax, DWORD PTR __Count$[ebp]
  0002d	2b d1		 sub	 edx, ecx
  0002f	c1 fa 02	 sar	 edx, 2
  00032	3b c2		 cmp	 eax, edx
  00034	76 10		 jbe	 SHORT $LN1@Reserve

; 1295 : 			;
; 1296 : 		else
; 1297 : 			reserve(_Grow_to(_Size));

  00036	50		 push	 eax
  00037	8b ce		 mov	 ecx, esi
  00039	e8 00 00 00 00	 call	 ?_Grow_to@?$vector@PAVUserInfoNode@@V?$allocator@PAVUserInfoNode@@@std@@@std@@IBEII@Z ; std::vector<UserInfoNode *,std::allocator<UserInfoNode *> >::_Grow_to
  0003e	50		 push	 eax
  0003f	8b ce		 mov	 ecx, esi
  00041	e8 00 00 00 00	 call	 ?reserve@?$vector@PAVUserInfoNode@@V?$allocator@PAVUserInfoNode@@@std@@@std@@QAEXI@Z ; std::vector<UserInfoNode *,std::allocator<UserInfoNode *> >::reserve
$LN1@Reserve:
  00046	5e		 pop	 esi

; 1298 : 		}

  00047	5d		 pop	 ebp
  00048	c2 04 00	 ret	 4
$LN20@Reserve:
?_Reserve@?$vector@PAVUserInfoNode@@V?$allocator@PAVUserInfoNode@@@std@@@std@@IAEXI@Z ENDP ; std::vector<UserInfoNode *,std::allocator<UserInfoNode *> >::_Reserve
_TEXT	ENDS
PUBLIC	??$_Uninitialized_copy@V?$_Vector_const_iterator@V?$_Vector_val@HV?$allocator@H@std@@@std@@@std@@PAHV?$allocator@H@2@@std@@YAPAHV?$_Vector_const_iterator@V?$_Vector_val@HV?$allocator@H@std@@@std@@@0@0PAHAAV?$allocator@H@0@@Z ; std::_Uninitialized_copy<std::_Vector_const_iterator<std::_Vector_val<int,std::allocator<int> > >,int *,std::allocator<int> >
; Function compile flags: /Ogsp
; File c:\program files (x86)\microsoft visual studio 10.0\vc\include\memory
;	COMDAT ??$_Uninitialized_copy@V?$_Vector_const_iterator@V?$_Vector_val@HV?$allocator@H@std@@@std@@@std@@PAHV?$allocator@H@2@@std@@YAPAHV?$_Vector_const_iterator@V?$_Vector_val@HV?$allocator@H@std@@@std@@@0@0PAHAAV?$allocator@H@0@@Z
_TEXT	SEGMENT
__Cat$521059 = -4					; size = 1
__First$ = 8						; size = 4
__Last$ = 12						; size = 4
__Dest$ = 16						; size = 4
__Al$ = 20						; size = 4
??$_Uninitialized_copy@V?$_Vector_const_iterator@V?$_Vector_val@HV?$allocator@H@std@@@std@@@std@@PAHV?$allocator@H@2@@std@@YAPAHV?$_Vector_const_iterator@V?$_Vector_val@HV?$allocator@H@std@@@std@@@0@0PAHAAV?$allocator@H@0@@Z PROC ; std::_Uninitialized_copy<std::_Vector_const_iterator<std::_Vector_val<int,std::allocator<int> > >,int *,std::allocator<int> >, COMDAT

; 412  : 	{	// copy [_First, _Last) to raw _Dest, using _Al

  00000	55		 push	 ebp
  00001	8b ec		 mov	 ebp, esp
  00003	51		 push	 ecx

; 413  : 	return (_Uninit_copy(_First, _Last, _Dest, _Al,
; 414  : 		_Ptr_cat(_First, _Dest)));

  00004	ff 75 fc	 push	 DWORD PTR __Cat$521059[ebp]
  00007	ff 75 14	 push	 DWORD PTR __Al$[ebp]
  0000a	ff 75 10	 push	 DWORD PTR __Dest$[ebp]
  0000d	ff 75 0c	 push	 DWORD PTR __Last$[ebp]
  00010	ff 75 08	 push	 DWORD PTR __First$[ebp]
  00013	e8 00 00 00 00	 call	 ??$_Uninit_copy@V?$_Vector_const_iterator@V?$_Vector_val@HV?$allocator@H@std@@@std@@@std@@PAHV?$allocator@H@2@@std@@YAPAHV?$_Vector_const_iterator@V?$_Vector_val@HV?$allocator@H@std@@@std@@@0@0PAHAAV?$allocator@H@0@U_Nonscalar_ptr_iterator_tag@0@@Z ; std::_Uninit_copy<std::_Vector_const_iterator<std::_Vector_val<int,std::allocator<int> > >,int *,std::allocator<int> >
  00018	83 c4 14	 add	 esp, 20			; 00000014H

; 415  : 	}

  0001b	c9		 leave
  0001c	c3		 ret	 0
??$_Uninitialized_copy@V?$_Vector_const_iterator@V?$_Vector_val@HV?$allocator@H@std@@@std@@@std@@PAHV?$allocator@H@2@@std@@YAPAHV?$_Vector_const_iterator@V?$_Vector_val@HV?$allocator@H@std@@@std@@@0@0PAHAAV?$allocator@H@0@@Z ENDP ; std::_Uninitialized_copy<std::_Vector_const_iterator<std::_Vector_val<int,std::allocator<int> > >,int *,std::allocator<int> >
_TEXT	ENDS
PUBLIC	??1?$vector@HV?$allocator@H@std@@@std@@QAE@XZ	; std::vector<int,std::allocator<int> >::~vector<int,std::allocator<int> >
; Function compile flags: /Ogsp
; File c:\program files (x86)\microsoft visual studio 10.0\vc\include\vector
;	COMDAT ??1?$vector@HV?$allocator@H@std@@@std@@QAE@XZ
_TEXT	SEGMENT
??1?$vector@HV?$allocator@H@std@@@std@@QAE@XZ PROC	; std::vector<int,std::allocator<int> >::~vector<int,std::allocator<int> >, COMDAT
; _this$ = ecx

; 705  : 		_Tidy();

  00000	e9 00 00 00 00	 jmp	 ?_Tidy@?$vector@HV?$allocator@H@std@@@std@@IAEXXZ ; std::vector<int,std::allocator<int> >::_Tidy
??1?$vector@HV?$allocator@H@std@@@std@@QAE@XZ ENDP	; std::vector<int,std::allocator<int> >::~vector<int,std::allocator<int> >
_TEXT	ENDS
PUBLIC	?clear@?$vector@HV?$allocator@H@std@@@std@@QAEXXZ ; std::vector<int,std::allocator<int> >::clear
; Function compile flags: /Ogsp
;	COMDAT ?clear@?$vector@HV?$allocator@H@std@@@std@@QAEXXZ
_TEXT	SEGMENT
$T521073 = -4						; size = 4
?clear@?$vector@HV?$allocator@H@std@@@std@@QAEXXZ PROC	; std::vector<int,std::allocator<int> >::clear, COMDAT
; _this$ = ecx

; 1217 : 		{	// erase all

  00000	55		 push	 ebp
  00001	8b ec		 mov	 ebp, esp
  00003	51		 push	 ecx

; 1218 : 		erase(begin(), end());

  00004	8b 41 04	 mov	 eax, DWORD PTR [ecx+4]
  00007	8b 11		 mov	 edx, DWORD PTR [ecx]
  00009	50		 push	 eax
  0000a	52		 push	 edx
  0000b	8d 45 fc	 lea	 eax, DWORD PTR $T521073[ebp]
  0000e	50		 push	 eax
  0000f	e8 00 00 00 00	 call	 ?erase@?$vector@HV?$allocator@H@std@@@std@@QAE?AV?$_Vector_iterator@V?$_Vector_val@HV?$allocator@H@std@@@std@@@2@V?$_Vector_const_iterator@V?$_Vector_val@HV?$allocator@H@std@@@std@@@2@0@Z ; std::vector<int,std::allocator<int> >::erase

; 1219 : 		}

  00014	c9		 leave
  00015	c3		 ret	 0
?clear@?$vector@HV?$allocator@H@std@@@std@@QAEXXZ ENDP	; std::vector<int,std::allocator<int> >::clear
_TEXT	ENDS
PUBLIC	?_Reserve@?$vector@HV?$allocator@H@std@@@std@@IAEXI@Z ; std::vector<int,std::allocator<int> >::_Reserve
; Function compile flags: /Ogsp
;	COMDAT ?_Reserve@?$vector@HV?$allocator@H@std@@@std@@IAEXI@Z
_TEXT	SEGMENT
__Count$ = 8						; size = 4
?_Reserve@?$vector@HV?$allocator@H@std@@@std@@IAEXI@Z PROC ; std::vector<int,std::allocator<int> >::_Reserve, COMDAT
; _this$ = ecx

; 1290 : 		{	// ensure room for _Count new elements, grow exponentially

  00000	55		 push	 ebp
  00001	8b ec		 mov	 ebp, esp
  00003	56		 push	 esi
  00004	8b f1		 mov	 esi, ecx

; 1291 : 		size_type _Size = size();

  00006	8b 0e		 mov	 ecx, DWORD PTR [esi]
  00008	8b 46 04	 mov	 eax, DWORD PTR [esi+4]
  0000b	2b c1		 sub	 eax, ecx

; 1292 : 		if (max_size() - _Count < _Size)

  0000d	ba ff ff ff 3f	 mov	 edx, 1073741823		; 3fffffffH
  00012	2b 55 08	 sub	 edx, DWORD PTR __Count$[ebp]
  00015	c1 f8 02	 sar	 eax, 2
  00018	3b d0		 cmp	 edx, eax
  0001a	73 0b		 jae	 SHORT $LN4@Reserve@2

; 1293 : 			_Xlen();

  0001c	68 00 00 00 00	 push	 OFFSET ??_C@_0BD@OLBABOEK@vector?$DMT?$DO?5too?5long?$AA@
  00021	ff 15 00 00 00
	00		 call	 DWORD PTR __imp_?_Xlength_error@std@@YAXPBD@Z
$LN21@Reserve@2:
$LN4@Reserve@2:

; 1294 : 		else if ((_Size += _Count) <= capacity())

  00027	8b 56 08	 mov	 edx, DWORD PTR [esi+8]
  0002a	03 45 08	 add	 eax, DWORD PTR __Count$[ebp]
  0002d	2b d1		 sub	 edx, ecx
  0002f	c1 fa 02	 sar	 edx, 2
  00032	3b c2		 cmp	 eax, edx
  00034	76 10		 jbe	 SHORT $LN1@Reserve@2

; 1295 : 			;
; 1296 : 		else
; 1297 : 			reserve(_Grow_to(_Size));

  00036	50		 push	 eax
  00037	8b ce		 mov	 ecx, esi
  00039	e8 00 00 00 00	 call	 ?_Grow_to@?$vector@HV?$allocator@H@std@@@std@@IBEII@Z ; std::vector<int,std::allocator<int> >::_Grow_to
  0003e	50		 push	 eax
  0003f	8b ce		 mov	 ecx, esi
  00041	e8 00 00 00 00	 call	 ?reserve@?$vector@HV?$allocator@H@std@@@std@@QAEXI@Z ; std::vector<int,std::allocator<int> >::reserve
$LN1@Reserve@2:
  00046	5e		 pop	 esi

; 1298 : 		}

  00047	5d		 pop	 ebp
  00048	c2 04 00	 ret	 4
$LN20@Reserve@2:
?_Reserve@?$vector@HV?$allocator@H@std@@@std@@IAEXI@Z ENDP ; std::vector<int,std::allocator<int> >::_Reserve
_TEXT	ENDS
PUBLIC	??1CharInfoData@@QAE@XZ				; CharInfoData::~CharInfoData
;	COMDAT xdata$x
xdata$x	SEGMENT
__unwindtable$??1CharInfoData@@QAE@XZ DD 0ffffffffH
	DD	FLAT:__unwindfunclet$??1CharInfoData@@QAE@XZ$0
__ehfuncinfo$??1CharInfoData@@QAE@XZ DD 019930522H
	DD	01H
	DD	FLAT:__unwindtable$??1CharInfoData@@QAE@XZ
	DD	2 DUP(00H)
	DD	2 DUP(00H)
	DD	00H
	DD	01H
; Function compile flags: /Ogsp
xdata$x	ENDS
;	COMDAT ??1CharInfoData@@QAE@XZ
_TEXT	SEGMENT
_this$ = -16						; size = 4
__$EHRec$ = -12						; size = 12
??1CharInfoData@@QAE@XZ PROC				; CharInfoData::~CharInfoData, COMDAT
; _this$ = ecx
  00000	6a 04		 push	 4
  00002	b8 00 00 00 00	 mov	 eax, __ehhandler$??1CharInfoData@@QAE@XZ
  00007	e8 00 00 00 00	 call	 __EH_prolog3
  0000c	8b f1		 mov	 esi, ecx
  0000e	89 75 f0	 mov	 DWORD PTR _this$[ebp], esi
  00011	83 65 fc 00	 and	 DWORD PTR __$EHRec$[ebp+8], 0
  00015	8d 8e 80 03 00
	00		 lea	 ecx, DWORD PTR [esi+896]
  0001b	e8 00 00 00 00	 call	 ?_Tidy@?$vector@HV?$allocator@H@std@@@std@@IAEXXZ ; std::vector<int,std::allocator<int> >::_Tidy
  00020	83 4d fc ff	 or	 DWORD PTR __$EHRec$[ebp+8], -1
  00024	8d 4e 08	 lea	 ecx, DWORD PTR [esi+8]
  00027	e8 00 00 00 00	 call	 ??1CHARACTER@@QAE@XZ
  0002c	e8 00 00 00 00	 call	 __EH_epilog3
  00031	c3		 ret	 0
_TEXT	ENDS
;	COMDAT text$x
text$x	SEGMENT
__unwindfunclet$??1CharInfoData@@QAE@XZ$0:
  00000	8b 4d f0	 mov	 ecx, DWORD PTR _this$[ebp]
  00003	83 c1 08	 add	 ecx, 8
  00006	e9 00 00 00 00	 jmp	 ??1CHARACTER@@QAE@XZ
__ehhandler$??1CharInfoData@@QAE@XZ:
  0000b	8b 54 24 08	 mov	 edx, DWORD PTR [esp+8]
  0000f	8d 42 0c	 lea	 eax, DWORD PTR [edx+12]
  00012	8b 4a ec	 mov	 ecx, DWORD PTR [edx-20]
  00015	33 c8		 xor	 ecx, eax
  00017	e8 00 00 00 00	 call	 @__security_check_cookie@4
  0001c	b8 00 00 00 00	 mov	 eax, OFFSET __ehfuncinfo$??1CharInfoData@@QAE@XZ
  00021	e9 00 00 00 00	 jmp	 ___CxxFrameHandler3
text$x	ENDS
??1CharInfoData@@QAE@XZ ENDP				; CharInfoData::~CharInfoData
PUBLIC	??_7ioUserInfoMgr@@6B@				; ioUserInfoMgr::`vftable'
PUBLIC	??0ioUserInfoMgr@@QAE@XZ			; ioUserInfoMgr::ioUserInfoMgr
PUBLIC	??_R4ioUserInfoMgr@@6B@				; ioUserInfoMgr::`RTTI Complete Object Locator'
PUBLIC	??_R0?AVioUserInfoMgr@@@8			; ioUserInfoMgr `RTTI Type Descriptor'
PUBLIC	??_R3ioUserInfoMgr@@8				; ioUserInfoMgr::`RTTI Class Hierarchy Descriptor'
PUBLIC	??_R2ioUserInfoMgr@@8				; ioUserInfoMgr::`RTTI Base Class Array'
PUBLIC	??_R1A@?0A@EA@ioUserInfoMgr@@8			; ioUserInfoMgr::`RTTI Base Class Descriptor at (0,-1,0,64)'
PUBLIC	??_R13?0A@EA@?$Singleton@VioUserInfoMgr@@@@8	; Singleton<ioUserInfoMgr>::`RTTI Base Class Descriptor at (4,-1,0,64)'
PUBLIC	??_R0?AV?$Singleton@VioUserInfoMgr@@@@@8	; Singleton<ioUserInfoMgr> `RTTI Type Descriptor'
PUBLIC	??_R3?$Singleton@VioUserInfoMgr@@@@8		; Singleton<ioUserInfoMgr>::`RTTI Class Hierarchy Descriptor'
PUBLIC	??_R2?$Singleton@VioUserInfoMgr@@@@8		; Singleton<ioUserInfoMgr>::`RTTI Base Class Array'
PUBLIC	??_R1A@?0A@EA@?$Singleton@VioUserInfoMgr@@@@8	; Singleton<ioUserInfoMgr>::`RTTI Base Class Descriptor at (0,-1,0,64)'
EXTRN	__imp_??0ioHashString@@QAE@XZ:PROC
EXTRN	??_EioUserInfoMgr@@UAEPAXI@Z:PROC		; ioUserInfoMgr::`vector deleting destructor'
;	COMDAT ??_R1A@?0A@EA@?$Singleton@VioUserInfoMgr@@@@8
; File c:\program files (x86)\microsoft visual studio 10.0\vc\include\xmemory
rdata$r	SEGMENT
??_R1A@?0A@EA@?$Singleton@VioUserInfoMgr@@@@8 DD FLAT:??_R0?AV?$Singleton@VioUserInfoMgr@@@@@8 ; Singleton<ioUserInfoMgr>::`RTTI Base Class Descriptor at (0,-1,0,64)'
	DD	00H
	DD	00H
	DD	0ffffffffH
	DD	00H
	DD	040H
	DD	FLAT:??_R3?$Singleton@VioUserInfoMgr@@@@8
rdata$r	ENDS
;	COMDAT ??_R2?$Singleton@VioUserInfoMgr@@@@8
rdata$r	SEGMENT
??_R2?$Singleton@VioUserInfoMgr@@@@8 DD FLAT:??_R1A@?0A@EA@?$Singleton@VioUserInfoMgr@@@@8 ; Singleton<ioUserInfoMgr>::`RTTI Base Class Array'
rdata$r	ENDS
;	COMDAT ??_R3?$Singleton@VioUserInfoMgr@@@@8
rdata$r	SEGMENT
??_R3?$Singleton@VioUserInfoMgr@@@@8 DD 00H		; Singleton<ioUserInfoMgr>::`RTTI Class Hierarchy Descriptor'
	DD	00H
	DD	01H
	DD	FLAT:??_R2?$Singleton@VioUserInfoMgr@@@@8
rdata$r	ENDS
;	COMDAT ??_R0?AV?$Singleton@VioUserInfoMgr@@@@@8
_DATA	SEGMENT
??_R0?AV?$Singleton@VioUserInfoMgr@@@@@8 DD FLAT:??_7type_info@@6B@ ; Singleton<ioUserInfoMgr> `RTTI Type Descriptor'
	DD	00H
	DB	'.?AV?$Singleton@VioUserInfoMgr@@@@', 00H
_DATA	ENDS
;	COMDAT ??_R13?0A@EA@?$Singleton@VioUserInfoMgr@@@@8
rdata$r	SEGMENT
??_R13?0A@EA@?$Singleton@VioUserInfoMgr@@@@8 DD FLAT:??_R0?AV?$Singleton@VioUserInfoMgr@@@@@8 ; Singleton<ioUserInfoMgr>::`RTTI Base Class Descriptor at (4,-1,0,64)'
	DD	00H
	DD	04H
	DD	0ffffffffH
	DD	00H
	DD	040H
	DD	FLAT:??_R3?$Singleton@VioUserInfoMgr@@@@8
rdata$r	ENDS
;	COMDAT ??_R1A@?0A@EA@ioUserInfoMgr@@8
rdata$r	SEGMENT
??_R1A@?0A@EA@ioUserInfoMgr@@8 DD FLAT:??_R0?AVioUserInfoMgr@@@8 ; ioUserInfoMgr::`RTTI Base Class Descriptor at (0,-1,0,64)'
	DD	01H
	DD	00H
	DD	0ffffffffH
	DD	00H
	DD	040H
	DD	FLAT:??_R3ioUserInfoMgr@@8
rdata$r	ENDS
;	COMDAT ??_R2ioUserInfoMgr@@8
rdata$r	SEGMENT
??_R2ioUserInfoMgr@@8 DD FLAT:??_R1A@?0A@EA@ioUserInfoMgr@@8 ; ioUserInfoMgr::`RTTI Base Class Array'
	DD	FLAT:??_R13?0A@EA@?$Singleton@VioUserInfoMgr@@@@8
rdata$r	ENDS
;	COMDAT ??_R3ioUserInfoMgr@@8
rdata$r	SEGMENT
??_R3ioUserInfoMgr@@8 DD 00H				; ioUserInfoMgr::`RTTI Class Hierarchy Descriptor'
	DD	00H
	DD	02H
	DD	FLAT:??_R2ioUserInfoMgr@@8
rdata$r	ENDS
;	COMDAT ??_R0?AVioUserInfoMgr@@@8
_DATA	SEGMENT
??_R0?AVioUserInfoMgr@@@8 DD FLAT:??_7type_info@@6B@	; ioUserInfoMgr `RTTI Type Descriptor'
	DD	00H
	DB	'.?AVioUserInfoMgr@@', 00H
_DATA	ENDS
;	COMDAT ??_R4ioUserInfoMgr@@6B@
rdata$r	SEGMENT
??_R4ioUserInfoMgr@@6B@ DD 00H				; ioUserInfoMgr::`RTTI Complete Object Locator'
	DD	00H
	DD	00H
	DD	FLAT:??_R0?AVioUserInfoMgr@@@8
	DD	FLAT:??_R3ioUserInfoMgr@@8
rdata$r	ENDS
;	COMDAT ??_7ioUserInfoMgr@@6B@
CONST	SEGMENT
??_7ioUserInfoMgr@@6B@ DD FLAT:??_R4ioUserInfoMgr@@6B@	; ioUserInfoMgr::`vftable'
	DD	FLAT:??_EioUserInfoMgr@@UAEPAXI@Z
CONST	ENDS
;	COMDAT xdata$x
xdata$x	SEGMENT
__unwindtable$??0ioUserInfoMgr@@QAE@XZ DD 0ffffffffH
	DD	FLAT:__unwindfunclet$??0ioUserInfoMgr@@QAE@XZ$0
	DD	00H
	DD	FLAT:__unwindfunclet$??0ioUserInfoMgr@@QAE@XZ$1
__ehfuncinfo$??0ioUserInfoMgr@@QAE@XZ DD 019930522H
	DD	02H
	DD	FLAT:__unwindtable$??0ioUserInfoMgr@@QAE@XZ
	DD	2 DUP(00H)
	DD	2 DUP(00H)
	DD	00H
	DD	01H
; Function compile flags: /Ogsp
; File d:\lost saga for developer\youtube\tutorial\source\src\lsclient\gui\iouserinfomgr.cpp
xdata$x	ENDS
;	COMDAT ??0ioUserInfoMgr@@QAE@XZ
_TEXT	SEGMENT
_this$ = -16						; size = 4
__$EHRec$ = -12						; size = 12
??0ioUserInfoMgr@@QAE@XZ PROC				; ioUserInfoMgr::ioUserInfoMgr, COMDAT
; _this$ = ecx

; 877  : {

  00000	6a 04		 push	 4
  00002	b8 00 00 00 00	 mov	 eax, __ehhandler$??0ioUserInfoMgr@@QAE@XZ
  00007	e8 00 00 00 00	 call	 __EH_prolog3
  0000c	8b f1		 mov	 esi, ecx
  0000e	89 75 f0	 mov	 DWORD PTR _this$[ebp], esi
  00011	8b c6		 mov	 eax, esi
  00013	a3 00 00 00 00	 mov	 DWORD PTR ?ms_Singleton@?$Singleton@VioUserInfoMgr@@@@1PAVioUserInfoMgr@@A, eax ; Singleton<ioUserInfoMgr>::ms_Singleton
  00018	33 c0		 xor	 eax, eax
  0001a	c7 06 00 00 00
	00		 mov	 DWORD PTR [esi], OFFSET ??_7ioUserInfoMgr@@6B@
  00020	89 45 fc	 mov	 DWORD PTR __$EHRec$[ebp+8], eax
  00023	89 46 04	 mov	 DWORD PTR [esi+4], eax
  00026	89 46 08	 mov	 DWORD PTR [esi+8], eax
  00029	89 46 0c	 mov	 DWORD PTR [esi+12], eax
  0002c	8d 4e 14	 lea	 ecx, DWORD PTR [esi+20]
  0002f	c6 45 fc 01	 mov	 BYTE PTR __$EHRec$[ebp+8], 1
  00033	ff 15 00 00 00
	00		 call	 DWORD PTR __imp_??0ioHashString@@QAE@XZ

; 878  : 	
; 879  : }

  00039	8b c6		 mov	 eax, esi
  0003b	e8 00 00 00 00	 call	 __EH_epilog3
  00040	c3		 ret	 0
_TEXT	ENDS
;	COMDAT text$x
text$x	SEGMENT
__unwindfunclet$??0ioUserInfoMgr@@QAE@XZ$0:
  00000	8b 4d f0	 mov	 ecx, DWORD PTR _this$[ebp]
  00003	83 c1 04	 add	 ecx, 4
  00006	e9 00 00 00 00	 jmp	 ??1?$Singleton@VioUserInfoMgr@@@@QAE@XZ ; Singleton<ioUserInfoMgr>::~Singleton<ioUserInfoMgr>
__unwindfunclet$??0ioUserInfoMgr@@QAE@XZ$1:
  0000b	8b 4d f0	 mov	 ecx, DWORD PTR _this$[ebp]
  0000e	83 c1 04	 add	 ecx, 4
  00011	e9 00 00 00 00	 jmp	 ??1?$vector@PAVUserInfoNode@@V?$allocator@PAVUserInfoNode@@@std@@@std@@QAE@XZ ; std::vector<UserInfoNode *,std::allocator<UserInfoNode *> >::~vector<UserInfoNode *,std::allocator<UserInfoNode *> >
__ehhandler$??0ioUserInfoMgr@@QAE@XZ:
  00016	8b 54 24 08	 mov	 edx, DWORD PTR [esp+8]
  0001a	8d 42 0c	 lea	 eax, DWORD PTR [edx+12]
  0001d	8b 4a ec	 mov	 ecx, DWORD PTR [edx-20]
  00020	33 c8		 xor	 ecx, eax
  00022	e8 00 00 00 00	 call	 @__security_check_cookie@4
  00027	b8 00 00 00 00	 mov	 eax, OFFSET __ehfuncinfo$??0ioUserInfoMgr@@QAE@XZ
  0002c	e9 00 00 00 00	 jmp	 ___CxxFrameHandler3
text$x	ENDS
??0ioUserInfoMgr@@QAE@XZ ENDP				; ioUserInfoMgr::ioUserInfoMgr
PUBLIC	??1ioUserInfoMgr@@UAE@XZ			; ioUserInfoMgr::~ioUserInfoMgr
EXTRN	__imp_??1ioHashString@@QAE@XZ:PROC
;	COMDAT xdata$x
; File d:\lost saga for developer\youtube\tutorial\source\src\io3dengine\iosingleton.h
xdata$x	SEGMENT
__unwindtable$??1ioUserInfoMgr@@UAE@XZ DD 0ffffffffH
	DD	FLAT:__unwindfunclet$??1ioUserInfoMgr@@UAE@XZ$0
	DD	00H
	DD	FLAT:__unwindfunclet$??1ioUserInfoMgr@@UAE@XZ$1
	DD	01H
	DD	FLAT:__unwindfunclet$??1ioUserInfoMgr@@UAE@XZ$2
__ehfuncinfo$??1ioUserInfoMgr@@UAE@XZ DD 019930522H
	DD	03H
	DD	FLAT:__unwindtable$??1ioUserInfoMgr@@UAE@XZ
	DD	2 DUP(00H)
	DD	2 DUP(00H)
	DD	00H
	DD	01H
; Function compile flags: /Ogsp
; File d:\lost saga for developer\youtube\tutorial\source\src\lsclient\gui\iouserinfomgr.cpp
xdata$x	ENDS
;	COMDAT ??1ioUserInfoMgr@@UAE@XZ
_TEXT	SEGMENT
$T521379 = -20						; size = 4
_this$ = -16						; size = 4
__$EHRec$ = -12						; size = 12
??1ioUserInfoMgr@@UAE@XZ PROC				; ioUserInfoMgr::~ioUserInfoMgr, COMDAT
; _this$ = ecx

; 882  : {

  00000	6a 08		 push	 8
  00002	b8 00 00 00 00	 mov	 eax, __ehhandler$??1ioUserInfoMgr@@UAE@XZ
  00007	e8 00 00 00 00	 call	 __EH_prolog3
  0000c	8b f1		 mov	 esi, ecx
  0000e	89 75 f0	 mov	 DWORD PTR _this$[ebp], esi
  00011	c7 06 00 00 00
	00		 mov	 DWORD PTR [esi], OFFSET ??_7ioUserInfoMgr@@6B@

; 883  : 	vUserInfoNode_iter iter;
; 884  : 	for( iter=m_vUserInfoList.begin() ; iter!=m_vUserInfoList.end() ; ++iter )

  00017	8b 5e 04	 mov	 ebx, DWORD PTR [esi+4]
  0001a	c7 45 fc 02 00
	00 00		 mov	 DWORD PTR __$EHRec$[ebp+8], 2
  00021	eb 0f		 jmp	 SHORT $LN73@ioUserInfo
$LL26@ioUserInfo:

; 885  : 	{
; 886  : 		UserInfoNode *pUserInfo = *iter;

  00023	8b 0b		 mov	 ecx, DWORD PTR [ebx]

; 887  : 		SAFEDELETE( pUserInfo );		

  00025	85 c9		 test	 ecx, ecx
  00027	74 06		 je	 SHORT $LN3@ioUserInfo
  00029	8b 01		 mov	 eax, DWORD PTR [ecx]
  0002b	6a 01		 push	 1
  0002d	ff 10		 call	 DWORD PTR [eax]
$LN3@ioUserInfo:

; 883  : 	vUserInfoNode_iter iter;
; 884  : 	for( iter=m_vUserInfoList.begin() ; iter!=m_vUserInfoList.end() ; ++iter )

  0002f	83 c3 04	 add	 ebx, 4
$LN73@ioUserInfo:
  00032	3b 5e 08	 cmp	 ebx, DWORD PTR [esi+8]
  00035	75 ec		 jne	 SHORT $LL26@ioUserInfo

; 888  : 	}
; 889  : 	m_vUserInfoList.clear();

  00037	8b 46 08	 mov	 eax, DWORD PTR [esi+8]
  0003a	8b 4e 04	 mov	 ecx, DWORD PTR [esi+4]
  0003d	50		 push	 eax
  0003e	51		 push	 ecx
  0003f	8d 45 ec	 lea	 eax, DWORD PTR $T521379[ebp]
  00042	50		 push	 eax
  00043	8d 4e 04	 lea	 ecx, DWORD PTR [esi+4]
  00046	e8 00 00 00 00	 call	 ?erase@?$vector@PAVUserInfoNode@@V?$allocator@PAVUserInfoNode@@@std@@@std@@QAE?AV?$_Vector_iterator@V?$_Vector_val@PAVUserInfoNode@@V?$allocator@PAVUserInfoNode@@@std@@@std@@@2@V?$_Vector_const_iterator@V?$_Vector_val@PAVUserInfoNode@@V?$allocator@PAVUserInfoNode@@@std@@@std@@@2@0@Z ; std::vector<UserInfoNode *,std::allocator<UserInfoNode *> >::erase

; 890  : }

  0004b	8d 4e 14	 lea	 ecx, DWORD PTR [esi+20]
  0004e	c6 45 fc 01	 mov	 BYTE PTR __$EHRec$[ebp+8], 1
  00052	ff 15 00 00 00
	00		 call	 DWORD PTR __imp_??1ioHashString@@QAE@XZ
  00058	8d 4e 04	 lea	 ecx, DWORD PTR [esi+4]
  0005b	c6 45 fc 00	 mov	 BYTE PTR __$EHRec$[ebp+8], 0
  0005f	e8 00 00 00 00	 call	 ?_Tidy@?$vector@PAVUserInfoNode@@V?$allocator@PAVUserInfoNode@@@std@@@std@@IAEXXZ ; std::vector<UserInfoNode *,std::allocator<UserInfoNode *> >::_Tidy
  00064	83 25 00 00 00
	00 00		 and	 DWORD PTR ?ms_Singleton@?$Singleton@VioUserInfoMgr@@@@1PAVioUserInfoMgr@@A, 0 ; Singleton<ioUserInfoMgr>::ms_Singleton
  0006b	e8 00 00 00 00	 call	 __EH_epilog3
  00070	c3		 ret	 0
_TEXT	ENDS
;	COMDAT text$x
text$x	SEGMENT
__unwindfunclet$??1ioUserInfoMgr@@UAE@XZ$0:
  00000	8b 4d f0	 mov	 ecx, DWORD PTR _this$[ebp]
  00003	83 c1 04	 add	 ecx, 4
  00006	e9 00 00 00 00	 jmp	 ??1?$Singleton@VioUserInfoMgr@@@@QAE@XZ ; Singleton<ioUserInfoMgr>::~Singleton<ioUserInfoMgr>
__unwindfunclet$??1ioUserInfoMgr@@UAE@XZ$1:
  0000b	8b 4d f0	 mov	 ecx, DWORD PTR _this$[ebp]
  0000e	83 c1 04	 add	 ecx, 4
  00011	e9 00 00 00 00	 jmp	 ??1?$vector@PAVUserInfoNode@@V?$allocator@PAVUserInfoNode@@@std@@@std@@QAE@XZ ; std::vector<UserInfoNode *,std::allocator<UserInfoNode *> >::~vector<UserInfoNode *,std::allocator<UserInfoNode *> >
__unwindfunclet$??1ioUserInfoMgr@@UAE@XZ$2:
  00016	8b 4d f0	 mov	 ecx, DWORD PTR _this$[ebp]
  00019	83 c1 14	 add	 ecx, 20			; 00000014H
  0001c	ff 25 00 00 00
	00		 jmp	 DWORD PTR __imp_??1ioHashString@@QAE@XZ
__ehhandler$??1ioUserInfoMgr@@UAE@XZ:
  00022	8b 54 24 08	 mov	 edx, DWORD PTR [esp+8]
  00026	8d 42 0c	 lea	 eax, DWORD PTR [edx+12]
  00029	8b 4a e8	 mov	 ecx, DWORD PTR [edx-24]
  0002c	33 c8		 xor	 ecx, eax
  0002e	e8 00 00 00 00	 call	 @__security_check_cookie@4
  00033	b8 00 00 00 00	 mov	 eax, OFFSET __ehfuncinfo$??1ioUserInfoMgr@@UAE@XZ
  00038	e9 00 00 00 00	 jmp	 ___CxxFrameHandler3
text$x	ENDS
??1ioUserInfoMgr@@UAE@XZ ENDP				; ioUserInfoMgr::~ioUserInfoMgr
PUBLIC	??4?$vector@HV?$allocator@H@std@@@std@@QAEAAV01@ABV01@@Z ; std::vector<int,std::allocator<int> >::operator=
; Function compile flags: /Ogsp
; File c:\program files (x86)\microsoft visual studio 10.0\vc\include\vector
;	COMDAT ??4?$vector@HV?$allocator@H@std@@@std@@QAEAAV01@ABV01@@Z
_TEXT	SEGMENT
__Cat$521655 = 8					; size = 1
__Cat$521594 = 8					; size = 1
__Cat$521571 = 8					; size = 1
__Cat$521516 = 8					; size = 1
$T521483 = 8						; size = 4
__Right$ = 8						; size = 4
??4?$vector@HV?$allocator@H@std@@@std@@QAEAAV01@ABV01@@Z PROC ; std::vector<int,std::allocator<int> >::operator=, COMDAT
; _this$ = ecx

; 709  : 		{	// assign _Right

  00000	55		 push	 ebp
  00001	8b ec		 mov	 ebp, esp
  00003	56		 push	 esi
  00004	57		 push	 edi

; 710  : 		if (this != &_Right)

  00005	8b 7d 08	 mov	 edi, DWORD PTR __Right$[ebp]
  00008	8b f1		 mov	 esi, ecx
  0000a	3b f7		 cmp	 esi, edi
  0000c	0f 84 c7 00 00
	00		 je	 $LN1@operator@3

; 711  : 			{	// worth doing
; 712  : 			this->_Orphan_all();

  00012	53		 push	 ebx
  00013	ff 15 00 00 00
	00		 call	 DWORD PTR __imp_?_Orphan_all@_Container_base0@std@@QAEXXZ

; 713  : 
; 714  : 			if (_Right.size() == 0)

  00019	8b 5f 04	 mov	 ebx, DWORD PTR [edi+4]

; 715  : 				clear();	// new sequence empty, erase existing sequence

  0001c	8b 46 04	 mov	 eax, DWORD PTR [esi+4]
  0001f	8b cb		 mov	 ecx, ebx
  00021	2b 0f		 sub	 ecx, DWORD PTR [edi]
  00023	c1 f9 02	 sar	 ecx, 2
  00026	85 c9		 test	 ecx, ecx
  00028	75 14		 jne	 SHORT $LN8@operator@3
  0002a	8b 0e		 mov	 ecx, DWORD PTR [esi]
  0002c	50		 push	 eax
  0002d	51		 push	 ecx
  0002e	8d 45 08	 lea	 eax, DWORD PTR $T521483[ebp]
  00031	50		 push	 eax
  00032	8b ce		 mov	 ecx, esi
  00034	e8 00 00 00 00	 call	 ?erase@?$vector@HV?$allocator@H@std@@@std@@QAE?AV?$_Vector_iterator@V?$_Vector_val@HV?$allocator@H@std@@@std@@@2@V?$_Vector_const_iterator@V?$_Vector_val@HV?$allocator@H@std@@@std@@@2@0@Z ; std::vector<int,std::allocator<int> >::erase

; 716  : 			else if (_Right.size() <= size())

  00039	e9 9a 00 00 00	 jmp	 $LN84@operator@3
$LN8@operator@3:
  0003e	8b 16		 mov	 edx, DWORD PTR [esi]
  00040	2b c2		 sub	 eax, edx
  00042	c1 f8 02	 sar	 eax, 2
  00045	3b c8		 cmp	 ecx, eax
  00047	77 1e		 ja	 SHORT $LN6@operator@3

; 717  : 				{	// enough elements, copy new and destroy old
; 718  : 				pointer _Ptr = _STD _Copy_impl(_Right._Myfirst, _Right._Mylast,
; 719  : 					this->_Myfirst);	// copy new

  00049	ff 75 08	 push	 DWORD PTR __Cat$521516[ebp]
  0004c	52		 push	 edx
  0004d	53		 push	 ebx
  0004e	ff 37		 push	 DWORD PTR [edi]
  00050	e8 00 00 00 00	 call	 ??$_Copy_impl@PAHPAH@std@@YAPAHPAH00U_Scalar_ptr_iterator_tag@0@@Z ; std::_Copy_impl<int *,int *>

; 720  : 				_Destroy(_Ptr, this->_Mylast);	// destroy old
; 721  : 				this->_Mylast = this->_Myfirst + _Right.size();

  00055	8b 47 04	 mov	 eax, DWORD PTR [edi+4]
  00058	2b 07		 sub	 eax, DWORD PTR [edi]
  0005a	8b 0e		 mov	 ecx, DWORD PTR [esi]
  0005c	83 c4 10	 add	 esp, 16			; 00000010H
  0005f	c1 f8 02	 sar	 eax, 2
  00062	8d 04 81	 lea	 eax, DWORD PTR [ecx+eax*4]

; 722  : 				}
; 723  : 			else if (_Right.size() <= capacity())

  00065	eb 6e		 jmp	 SHORT $LN85@operator@3
$LN6@operator@3:
  00067	8b 5e 08	 mov	 ebx, DWORD PTR [esi+8]
  0006a	2b da		 sub	 ebx, edx
  0006c	c1 fb 02	 sar	 ebx, 2
  0006f	3b cb		 cmp	 ecx, ebx
  00071	77 2a		 ja	 SHORT $LN4@operator@3

; 724  : 				{	// enough room, copy and construct new
; 725  : 				pointer _Ptr = _Right._Myfirst + size();
; 726  : 				_STD _Copy_impl(_Right._Myfirst, _Ptr, this->_Myfirst);

  00073	ff 75 08	 push	 DWORD PTR __Cat$521571[ebp]
  00076	8b 0f		 mov	 ecx, DWORD PTR [edi]
  00078	52		 push	 edx
  00079	8d 1c 81	 lea	 ebx, DWORD PTR [ecx+eax*4]
  0007c	53		 push	 ebx
  0007d	51		 push	 ecx
  0007e	e8 00 00 00 00	 call	 ??$_Copy_impl@PAHPAH@std@@YAPAHPAH00U_Scalar_ptr_iterator_tag@0@@Z ; std::_Copy_impl<int *,int *>

; 727  : 				this->_Mylast = _Ucopy(_Ptr, _Right._Mylast, this->_Mylast);

  00083	ff 75 08	 push	 DWORD PTR __Cat$521594[ebp]
  00086	8b 46 04	 mov	 eax, DWORD PTR [esi+4]
  00089	8b 7f 04	 mov	 edi, DWORD PTR [edi+4]
  0008c	8d 4e 0c	 lea	 ecx, DWORD PTR [esi+12]
  0008f	51		 push	 ecx
  00090	50		 push	 eax
  00091	57		 push	 edi
  00092	53		 push	 ebx
  00093	e8 00 00 00 00	 call	 ??$_Uninit_copy@HH@std@@YAPAHPAH00AAV?$allocator@H@0@U_Scalar_ptr_iterator_tag@0@@Z ; std::_Uninit_copy<int,int>
  00098	83 c4 24	 add	 esp, 36			; 00000024H

; 728  : 				}
; 729  : 			else

  0009b	eb 38		 jmp	 SHORT $LN85@operator@3
$LN4@operator@3:

; 730  : 				{	// not enough room, allocate new array and construct new
; 731  : 				if (this->_Myfirst != 0)

  0009d	85 d2		 test	 edx, edx
  0009f	74 07		 je	 SHORT $LN74@operator@3

; 732  : 					{	// discard old array
; 733  : 					_Destroy(this->_Myfirst, this->_Mylast);
; 734  : 					this->_Alval.deallocate(this->_Myfirst,
; 735  : 						this->_Myend - this->_Myfirst);

  000a1	52		 push	 edx
  000a2	e8 00 00 00 00	 call	 ??3@YAXPAX@Z		; operator delete
  000a7	59		 pop	 ecx
$LN74@operator@3:

; 736  : 					}
; 737  : 				if (_Buy(_Right.size()))

  000a8	8b 47 04	 mov	 eax, DWORD PTR [edi+4]
  000ab	2b 07		 sub	 eax, DWORD PTR [edi]
  000ad	8b ce		 mov	 ecx, esi
  000af	c1 f8 02	 sar	 eax, 2
  000b2	50		 push	 eax
  000b3	e8 00 00 00 00	 call	 ?_Buy@?$vector@HV?$allocator@H@std@@@std@@IAE_NI@Z ; std::vector<int,std::allocator<int> >::_Buy
  000b8	84 c0		 test	 al, al
  000ba	74 1c		 je	 SHORT $LN84@operator@3

; 738  : 					this->_Mylast = _Ucopy(_Right._Myfirst, _Right._Mylast,
; 739  : 						this->_Myfirst);

  000bc	ff 75 08	 push	 DWORD PTR __Cat$521655[ebp]
  000bf	8b 06		 mov	 eax, DWORD PTR [esi]
  000c1	8b 4f 04	 mov	 ecx, DWORD PTR [edi+4]
  000c4	8b 3f		 mov	 edi, DWORD PTR [edi]
  000c6	8d 56 0c	 lea	 edx, DWORD PTR [esi+12]
  000c9	52		 push	 edx
  000ca	50		 push	 eax
  000cb	51		 push	 ecx
  000cc	57		 push	 edi
  000cd	e8 00 00 00 00	 call	 ??$_Uninit_copy@HH@std@@YAPAHPAH00AAV?$allocator@H@0@U_Scalar_ptr_iterator_tag@0@@Z ; std::_Uninit_copy<int,int>
  000d2	83 c4 14	 add	 esp, 20			; 00000014H
$LN85@operator@3:
  000d5	89 46 04	 mov	 DWORD PTR [esi+4], eax
$LN84@operator@3:
  000d8	5b		 pop	 ebx
$LN1@operator@3:
  000d9	5f		 pop	 edi

; 740  : 				}
; 741  : 			}
; 742  : 		return (*this);

  000da	8b c6		 mov	 eax, esi
  000dc	5e		 pop	 esi

; 743  : 		}

  000dd	5d		 pop	 ebp
  000de	c2 04 00	 ret	 4
??4?$vector@HV?$allocator@H@std@@@std@@QAEAAV01@ABV01@@Z ENDP ; std::vector<int,std::allocator<int> >::operator=
_TEXT	ENDS
PUBLIC	?push_back@?$vector@HV?$allocator@H@std@@@std@@QAEXABH@Z ; std::vector<int,std::allocator<int> >::push_back
; Function compile flags: /Ogsp
;	COMDAT ?push_back@?$vector@HV?$allocator@H@std@@@std@@QAEXABH@Z
_TEXT	SEGMENT
__Val$ = 8						; size = 4
?push_back@?$vector@HV?$allocator@H@std@@@std@@QAEXABH@Z PROC ; std::vector<int,std::allocator<int> >::push_back, COMDAT
; _this$ = ecx

; 976  : 		{	// insert element at end

  00000	55		 push	 ebp
  00001	8b ec		 mov	 ebp, esp
  00003	56		 push	 esi
  00004	8b f1		 mov	 esi, ecx

; 977  : 		if (_Inside(_STD addressof(_Val)))

  00006	8b 46 04	 mov	 eax, DWORD PTR [esi+4]
  00009	57		 push	 edi
  0000a	8b 7d 08	 mov	 edi, DWORD PTR __Val$[ebp]
  0000d	3b f8		 cmp	 edi, eax
  0000f	73 27		 jae	 SHORT $LN4@push_back
  00011	8b 0e		 mov	 ecx, DWORD PTR [esi]
  00013	3b cf		 cmp	 ecx, edi
  00015	77 21		 ja	 SHORT $LN4@push_back

; 978  : 			{	// push back an element
; 979  : 			size_type _Idx = _STD addressof(_Val) - this->_Myfirst;

  00017	2b f9		 sub	 edi, ecx
  00019	c1 ff 02	 sar	 edi, 2

; 980  : 			if (this->_Mylast == this->_Myend)

  0001c	3b 46 08	 cmp	 eax, DWORD PTR [esi+8]
  0001f	75 09		 jne	 SHORT $LN3@push_back

; 981  : 				_Reserve(1);

  00021	6a 01		 push	 1
  00023	8b ce		 mov	 ecx, esi
  00025	e8 00 00 00 00	 call	 ?_Reserve@?$vector@HV?$allocator@H@std@@@std@@IAEXI@Z ; std::vector<int,std::allocator<int> >::_Reserve
$LN3@push_back:

; 982  : 			_Orphan_range(this->_Mylast, this->_Mylast);
; 983  : 			_Cons_val(this->_Alval,
; 984  : 				this->_Mylast,
; 985  : 				this->_Myfirst[_Idx]);

  0002a	8b 46 04	 mov	 eax, DWORD PTR [esi+4]
  0002d	85 c0		 test	 eax, eax
  0002f	74 20		 je	 SHORT $LN39@push_back
  00031	8b 0e		 mov	 ecx, DWORD PTR [esi]
  00033	8b 0c b9	 mov	 ecx, DWORD PTR [ecx+edi*4]

; 986  : 			++this->_Mylast;
; 987  : 			}
; 988  : 		else

  00036	eb 17		 jmp	 SHORT $LN46@push_back
$LN4@push_back:

; 989  : 			{	// push back a non-element
; 990  : 			if (this->_Mylast == this->_Myend)

  00038	3b 46 08	 cmp	 eax, DWORD PTR [esi+8]
  0003b	75 09		 jne	 SHORT $LN1@push_back

; 991  : 				_Reserve(1);

  0003d	6a 01		 push	 1
  0003f	8b ce		 mov	 ecx, esi
  00041	e8 00 00 00 00	 call	 ?_Reserve@?$vector@HV?$allocator@H@std@@@std@@IAEXI@Z ; std::vector<int,std::allocator<int> >::_Reserve
$LN1@push_back:

; 992  : 			_Orphan_range(this->_Mylast, this->_Mylast);
; 993  : 			_Cons_val(this->_Alval,
; 994  : 				this->_Mylast,
; 995  : 				_Val);

  00046	8b 46 04	 mov	 eax, DWORD PTR [esi+4]
  00049	85 c0		 test	 eax, eax
  0004b	74 04		 je	 SHORT $LN39@push_back
  0004d	8b 0f		 mov	 ecx, DWORD PTR [edi]
$LN46@push_back:
  0004f	89 08		 mov	 DWORD PTR [eax], ecx
$LN39@push_back:

; 996  : 			++this->_Mylast;

  00051	83 46 04 04	 add	 DWORD PTR [esi+4], 4
  00055	5f		 pop	 edi
  00056	5e		 pop	 esi

; 997  : 			}
; 998  : 		}

  00057	5d		 pop	 ebp
  00058	c2 04 00	 ret	 4
?push_back@?$vector@HV?$allocator@H@std@@@std@@QAEXABH@Z ENDP ; std::vector<int,std::allocator<int> >::push_back
_TEXT	ENDS
PUBLIC	?push_back@?$vector@PAVUserInfoNode@@V?$allocator@PAVUserInfoNode@@@std@@@std@@QAEXABQAVUserInfoNode@@@Z ; std::vector<UserInfoNode *,std::allocator<UserInfoNode *> >::push_back
; Function compile flags: /Ogsp
;	COMDAT ?push_back@?$vector@PAVUserInfoNode@@V?$allocator@PAVUserInfoNode@@@std@@@std@@QAEXABQAVUserInfoNode@@@Z
_TEXT	SEGMENT
__Val$ = 8						; size = 4
?push_back@?$vector@PAVUserInfoNode@@V?$allocator@PAVUserInfoNode@@@std@@@std@@QAEXABQAVUserInfoNode@@@Z PROC ; std::vector<UserInfoNode *,std::allocator<UserInfoNode *> >::push_back, COMDAT
; _this$ = ecx

; 976  : 		{	// insert element at end

  00000	55		 push	 ebp
  00001	8b ec		 mov	 ebp, esp
  00003	56		 push	 esi
  00004	8b f1		 mov	 esi, ecx

; 977  : 		if (_Inside(_STD addressof(_Val)))

  00006	8b 46 04	 mov	 eax, DWORD PTR [esi+4]
  00009	57		 push	 edi
  0000a	8b 7d 08	 mov	 edi, DWORD PTR __Val$[ebp]
  0000d	3b f8		 cmp	 edi, eax
  0000f	73 27		 jae	 SHORT $LN4@push_back@2
  00011	8b 0e		 mov	 ecx, DWORD PTR [esi]
  00013	3b cf		 cmp	 ecx, edi
  00015	77 21		 ja	 SHORT $LN4@push_back@2

; 978  : 			{	// push back an element
; 979  : 			size_type _Idx = _STD addressof(_Val) - this->_Myfirst;

  00017	2b f9		 sub	 edi, ecx
  00019	c1 ff 02	 sar	 edi, 2

; 980  : 			if (this->_Mylast == this->_Myend)

  0001c	3b 46 08	 cmp	 eax, DWORD PTR [esi+8]
  0001f	75 09		 jne	 SHORT $LN3@push_back@2

; 981  : 				_Reserve(1);

  00021	6a 01		 push	 1
  00023	8b ce		 mov	 ecx, esi
  00025	e8 00 00 00 00	 call	 ?_Reserve@?$vector@PAVUserInfoNode@@V?$allocator@PAVUserInfoNode@@@std@@@std@@IAEXI@Z ; std::vector<UserInfoNode *,std::allocator<UserInfoNode *> >::_Reserve
$LN3@push_back@2:

; 982  : 			_Orphan_range(this->_Mylast, this->_Mylast);
; 983  : 			_Cons_val(this->_Alval,
; 984  : 				this->_Mylast,
; 985  : 				this->_Myfirst[_Idx]);

  0002a	8b 46 04	 mov	 eax, DWORD PTR [esi+4]
  0002d	85 c0		 test	 eax, eax
  0002f	74 20		 je	 SHORT $LN39@push_back@2
  00031	8b 0e		 mov	 ecx, DWORD PTR [esi]
  00033	8b 0c b9	 mov	 ecx, DWORD PTR [ecx+edi*4]

; 986  : 			++this->_Mylast;
; 987  : 			}
; 988  : 		else

  00036	eb 17		 jmp	 SHORT $LN46@push_back@2
$LN4@push_back@2:

; 989  : 			{	// push back a non-element
; 990  : 			if (this->_Mylast == this->_Myend)

  00038	3b 46 08	 cmp	 eax, DWORD PTR [esi+8]
  0003b	75 09		 jne	 SHORT $LN1@push_back@2

; 991  : 				_Reserve(1);

  0003d	6a 01		 push	 1
  0003f	8b ce		 mov	 ecx, esi
  00041	e8 00 00 00 00	 call	 ?_Reserve@?$vector@PAVUserInfoNode@@V?$allocator@PAVUserInfoNode@@@std@@@std@@IAEXI@Z ; std::vector<UserInfoNode *,std::allocator<UserInfoNode *> >::_Reserve
$LN1@push_back@2:

; 992  : 			_Orphan_range(this->_Mylast, this->_Mylast);
; 993  : 			_Cons_val(this->_Alval,
; 994  : 				this->_Mylast,
; 995  : 				_Val);

  00046	8b 46 04	 mov	 eax, DWORD PTR [esi+4]
  00049	85 c0		 test	 eax, eax
  0004b	74 04		 je	 SHORT $LN39@push_back@2
  0004d	8b 0f		 mov	 ecx, DWORD PTR [edi]
$LN46@push_back@2:
  0004f	89 08		 mov	 DWORD PTR [eax], ecx
$LN39@push_back@2:

; 996  : 			++this->_Mylast;

  00051	83 46 04 04	 add	 DWORD PTR [esi+4], 4
  00055	5f		 pop	 edi
  00056	5e		 pop	 esi

; 997  : 			}
; 998  : 		}

  00057	5d		 pop	 ebp
  00058	c2 04 00	 ret	 4
?push_back@?$vector@PAVUserInfoNode@@V?$allocator@PAVUserInfoNode@@@std@@@std@@QAEXABQAVUserInfoNode@@@Z ENDP ; std::vector<UserInfoNode *,std::allocator<UserInfoNode *> >::push_back
_TEXT	ENDS
PUBLIC	??$_Ucopy@V?$_Vector_const_iterator@V?$_Vector_val@HV?$allocator@H@std@@@std@@@std@@@?$vector@HV?$allocator@H@std@@@std@@IAEPAHV?$_Vector_const_iterator@V?$_Vector_val@HV?$allocator@H@std@@@std@@@1@0PAH@Z ; std::vector<int,std::allocator<int> >::_Ucopy<std::_Vector_const_iterator<std::_Vector_val<int,std::allocator<int> > > >
; Function compile flags: /Ogsp
;	COMDAT ??$_Ucopy@V?$_Vector_const_iterator@V?$_Vector_val@HV?$allocator@H@std@@@std@@@std@@@?$vector@HV?$allocator@H@std@@@std@@IAEPAHV?$_Vector_const_iterator@V?$_Vector_val@HV?$allocator@H@std@@@std@@@1@0PAH@Z
_TEXT	SEGMENT
__First$ = 8						; size = 4
__Last$ = 12						; size = 4
__Cat$521918 = 16					; size = 1
__Ptr$ = 16						; size = 4
??$_Ucopy@V?$_Vector_const_iterator@V?$_Vector_val@HV?$allocator@H@std@@@std@@@std@@@?$vector@HV?$allocator@H@std@@@std@@IAEPAHV?$_Vector_const_iterator@V?$_Vector_val@HV?$allocator@H@std@@@std@@@1@0PAH@Z PROC ; std::vector<int,std::allocator<int> >::_Ucopy<std::_Vector_const_iterator<std::_Vector_val<int,std::allocator<int> > > >, COMDAT
; _this$ = ecx

; 1315 : 		pointer _Ucopy(_Iter _First, _Iter _Last, pointer _Ptr)

  00000	55		 push	 ebp
  00001	8b ec		 mov	 ebp, esp

; 1316 : 		{	// copy initializing [_First, _Last), using allocator
; 1317 : 		return (_Uninitialized_copy(_First, _Last,
; 1318 : 			_Ptr, this->_Alval));

  00003	ff 75 10	 push	 DWORD PTR __Cat$521918[ebp]
  00006	83 c1 0c	 add	 ecx, 12			; 0000000cH
  00009	51		 push	 ecx
  0000a	ff 75 10	 push	 DWORD PTR __Ptr$[ebp]
  0000d	ff 75 0c	 push	 DWORD PTR __Last$[ebp]
  00010	ff 75 08	 push	 DWORD PTR __First$[ebp]
  00013	e8 00 00 00 00	 call	 ??$_Uninit_copy@V?$_Vector_const_iterator@V?$_Vector_val@HV?$allocator@H@std@@@std@@@std@@PAHV?$allocator@H@2@@std@@YAPAHV?$_Vector_const_iterator@V?$_Vector_val@HV?$allocator@H@std@@@std@@@0@0PAHAAV?$allocator@H@0@U_Nonscalar_ptr_iterator_tag@0@@Z ; std::_Uninit_copy<std::_Vector_const_iterator<std::_Vector_val<int,std::allocator<int> > >,int *,std::allocator<int> >
  00018	83 c4 14	 add	 esp, 20			; 00000014H

; 1319 : 		}

  0001b	5d		 pop	 ebp
  0001c	c2 0c 00	 ret	 12			; 0000000cH
??$_Ucopy@V?$_Vector_const_iterator@V?$_Vector_val@HV?$allocator@H@std@@@std@@@std@@@?$vector@HV?$allocator@H@std@@@std@@IAEPAHV?$_Vector_const_iterator@V?$_Vector_val@HV?$allocator@H@std@@@std@@@1@0PAH@Z ENDP ; std::vector<int,std::allocator<int> >::_Ucopy<std::_Vector_const_iterator<std::_Vector_val<int,std::allocator<int> > > >
_TEXT	ENDS
PUBLIC	??_GCharInfoData@@QAEPAXI@Z			; CharInfoData::`scalar deleting destructor'
; Function compile flags: /Ogsp
;	COMDAT ??_GCharInfoData@@QAEPAXI@Z
_TEXT	SEGMENT
___flags$ = 8						; size = 4
??_GCharInfoData@@QAEPAXI@Z PROC			; CharInfoData::`scalar deleting destructor', COMDAT
; _this$ = ecx
  00000	55		 push	 ebp
  00001	8b ec		 mov	 ebp, esp
  00003	56		 push	 esi
  00004	8b f1		 mov	 esi, ecx
  00006	e8 00 00 00 00	 call	 ??1CharInfoData@@QAE@XZ
  0000b	f6 45 08 01	 test	 BYTE PTR ___flags$[ebp], 1
  0000f	74 07		 je	 SHORT $LN1@scalar@3
  00011	56		 push	 esi
  00012	e8 00 00 00 00	 call	 ??3@YAXPAX@Z		; operator delete
  00017	59		 pop	 ecx
$LN1@scalar@3:
  00018	8b c6		 mov	 eax, esi
  0001a	5e		 pop	 esi
  0001b	5d		 pop	 ebp
  0001c	c2 04 00	 ret	 4
??_GCharInfoData@@QAEPAXI@Z ENDP			; CharInfoData::`scalar deleting destructor'
_TEXT	ENDS
PUBLIC	?Init@CharInfoData@@QAEXXZ			; CharInfoData::Init
; Function compile flags: /Ogsp
; File d:\lost saga for developer\youtube\tutorial\source\src\lsclient\gui\iouserinfomgr.h
;	COMDAT ?Init@CharInfoData@@QAEXXZ
_TEXT	SEGMENT
$T521992 = -4						; size = 4
?Init@CharInfoData@@QAEXXZ PROC				; CharInfoData::Init, COMDAT
; _this$ = ecx

; 37   : 	{

  00000	55		 push	 ebp
  00001	8b ec		 mov	 ebp, esp
  00003	51		 push	 ecx
  00004	53		 push	 ebx
  00005	56		 push	 esi
  00006	8b f1		 mov	 esi, ecx

; 38   : 		m_dwMotionEtcItem = 0;

  00008	33 db		 xor	 ebx, ebx
  0000a	57		 push	 edi

; 39   : 		m_iClassLevel	  = 0;
; 40   : 		m_CharInfo.Init();

  0000b	8d 4e 08	 lea	 ecx, DWORD PTR [esi+8]
  0000e	89 1e		 mov	 DWORD PTR [esi], ebx
  00010	89 5e 04	 mov	 DWORD PTR [esi+4], ebx
  00013	e8 00 00 00 00	 call	 ?Init@CHARACTER@@QAEXXZ	; CHARACTER::Init
  00018	6a 04		 push	 4
  0001a	8d 86 34 03 00
	00		 lea	 eax, DWORD PTR [esi+820]
  00020	59		 pop	 ecx
$LL9@Init@3:

; 41   : 
; 42   : 		int i = 0;
; 43   : 		for(i = 0;i < MAX_INVENTORY;i++)
; 44   : 			m_EquipItemInfo[i].Initialize();

  00021	83 08 ff	 or	 DWORD PTR [eax], -1
  00024	89 58 f8	 mov	 DWORD PTR [eax-8], ebx
  00027	89 58 fc	 mov	 DWORD PTR [eax-4], ebx
  0002a	89 58 08	 mov	 DWORD PTR [eax+8], ebx
  0002d	89 58 04	 mov	 DWORD PTR [eax+4], ebx
  00030	83 c0 14	 add	 eax, 20			; 00000014H
  00033	49		 dec	 ecx
  00034	75 eb		 jne	 SHORT $LL9@Init@3

; 45   : 
; 46   : 		m_bSubDataSync = false;
; 47   : 		m_EquipMedalItem.clear();

  00036	8d 8e 80 03 00
	00		 lea	 ecx, DWORD PTR [esi+896]
  0003c	88 9e 7c 03 00
	00		 mov	 BYTE PTR [esi+892], bl
  00042	8b 41 04	 mov	 eax, DWORD PTR [ecx+4]
  00045	8b 11		 mov	 edx, DWORD PTR [ecx]
  00047	50		 push	 eax
  00048	52		 push	 edx
  00049	8d 45 fc	 lea	 eax, DWORD PTR $T521992[ebp]
  0004c	50		 push	 eax
  0004d	e8 00 00 00 00	 call	 ?erase@?$vector@HV?$allocator@H@std@@@std@@QAE?AV?$_Vector_iterator@V?$_Vector_val@HV?$allocator@H@std@@@std@@@2@V?$_Vector_const_iterator@V?$_Vector_val@HV?$allocator@H@std@@@std@@@2@0@Z ; std::vector<int,std::allocator<int> >::erase

; 48   : 		for(i = 0;i < MAX_CHAR_GROWTH;i++)
; 49   : 			m_CharGrowth[i] = 0;

  00052	33 c0		 xor	 eax, eax
  00054	8d be 90 03 00
	00		 lea	 edi, DWORD PTR [esi+912]
  0005a	ab		 stosd
  0005b	ab		 stosd
  0005c	ab		 stosd
  0005d	ab		 stosd

; 50   : 		for(i = 0;i < MAX_ITEM_GROWTH;i++)
; 51   : 			m_ItemGrowth[i] = 0;

  0005e	33 c0		 xor	 eax, eax
  00060	8d be a0 03 00
	00		 lea	 edi, DWORD PTR [esi+928]
  00066	ab		 stosd
  00067	ab		 stosd
  00068	ab		 stosd
  00069	ab		 stosd
  0006a	5f		 pop	 edi

; 52   : 
; 53   : 		m_dwCharLoadingTime		= 0;

  0006b	89 9e b0 03 00
	00		 mov	 DWORD PTR [esi+944], ebx

; 54   : 		m_dwRentalRequestTime	= 0;

  00071	89 9e b4 03 00
	00		 mov	 DWORD PTR [esi+948], ebx

; 55   : 		m_bChangeData			= false;

  00077	88 9e b8 03 00
	00		 mov	 BYTE PTR [esi+952], bl

; 56   : 		m_iAwakeType			= 0;

  0007d	89 9e bc 03 00
	00		 mov	 DWORD PTR [esi+956], ebx
  00083	5e		 pop	 esi
  00084	5b		 pop	 ebx

; 57   : 	}

  00085	c9		 leave
  00086	c3		 ret	 0
?Init@CharInfoData@@QAEXXZ ENDP				; CharInfoData::Init
_TEXT	ENDS
PUBLIC	?resize@?$vector@HV?$allocator@H@std@@@std@@QAEXI@Z ; std::vector<int,std::allocator<int> >::resize
; Function compile flags: /Ogsp
; File c:\program files (x86)\microsoft visual studio 10.0\vc\include\vector
;	COMDAT ?resize@?$vector@HV?$allocator@H@std@@@std@@QAEXI@Z
_TEXT	SEGMENT
$T522126 = 8						; size = 4
$T522023 = 8						; size = 4
__Newsize$ = 8						; size = 4
?resize@?$vector@HV?$allocator@H@std@@@std@@QAEXI@Z PROC ; std::vector<int,std::allocator<int> >::resize, COMDAT
; _this$ = ecx

; 857  : 		{	// determine new length, padding with _Ty() elements as needed

  00000	55		 push	 ebp
  00001	8b ec		 mov	 ebp, esp
  00003	56		 push	 esi
  00004	8b f1		 mov	 esi, ecx

; 858  : 		if (_Newsize < size())

  00006	8b 56 04	 mov	 edx, DWORD PTR [esi+4]
  00009	8b 0e		 mov	 ecx, DWORD PTR [esi]
  0000b	8b c2		 mov	 eax, edx
  0000d	2b c1		 sub	 eax, ecx
  0000f	57		 push	 edi
  00010	8b 7d 08	 mov	 edi, DWORD PTR __Newsize$[ebp]
  00013	c1 f8 02	 sar	 eax, 2
  00016	3b c7		 cmp	 eax, edi
  00018	76 12		 jbe	 SHORT $LN46@resize

; 859  : 			erase(begin() + _Newsize, end());

  0001a	8d 04 b9	 lea	 eax, DWORD PTR [ecx+edi*4]
  0001d	52		 push	 edx
  0001e	50		 push	 eax
  0001f	8d 45 08	 lea	 eax, DWORD PTR $T522023[ebp]
  00022	50		 push	 eax
  00023	8b ce		 mov	 ecx, esi
  00025	e8 00 00 00 00	 call	 ?erase@?$vector@HV?$allocator@H@std@@@std@@QAE?AV?$_Vector_iterator@V?$_Vector_val@HV?$allocator@H@std@@@std@@@2@V?$_Vector_const_iterator@V?$_Vector_val@HV?$allocator@H@std@@@std@@@2@0@Z ; std::vector<int,std::allocator<int> >::erase

; 860  : 		else if (size() < _Newsize)

  0002a	eb 40		 jmp	 SHORT $LN1@resize
$LN46@resize:
  0002c	73 3e		 jae	 SHORT $LN1@resize

; 861  : 			{	// pad as needed
; 862  : 			_Reserve(_Newsize - size());

  0002e	8b cf		 mov	 ecx, edi
  00030	2b c8		 sub	 ecx, eax
  00032	51		 push	 ecx
  00033	8b ce		 mov	 ecx, esi
  00035	e8 00 00 00 00	 call	 ?_Reserve@?$vector@HV?$allocator@H@std@@@std@@IAEXI@Z ; std::vector<int,std::allocator<int> >::_Reserve

; 863  : 			_Uninitialized_default_fill_n(this->_Mylast, _Newsize - size(),
; 864  : 				(_Ty *)0, this->_Alval);

  0003a	8b 46 04	 mov	 eax, DWORD PTR [esi+4]
  0003d	83 65 08 00	 and	 DWORD PTR $T522126[ebp], 0
  00041	8d 4d 08	 lea	 ecx, DWORD PTR $T522126[ebp]
  00044	51		 push	 ecx
  00045	8b c8		 mov	 ecx, eax
  00047	2b 0e		 sub	 ecx, DWORD PTR [esi]
  00049	8b d7		 mov	 edx, edi
  0004b	c1 f9 02	 sar	 ecx, 2
  0004e	2b d1		 sub	 edx, ecx
  00050	52		 push	 edx
  00051	50		 push	 eax
  00052	e8 00 00 00 00	 call	 ??$_Fill_n@PAHIH@std@@YAXPAHIABH@Z ; std::_Fill_n<int *,unsigned int,int>

; 865  : 			this->_Mylast += _Newsize - size();

  00057	8b 46 04	 mov	 eax, DWORD PTR [esi+4]
  0005a	8b c8		 mov	 ecx, eax
  0005c	2b 0e		 sub	 ecx, DWORD PTR [esi]
  0005e	83 c4 0c	 add	 esp, 12			; 0000000cH
  00061	c1 f9 02	 sar	 ecx, 2
  00064	2b f9		 sub	 edi, ecx
  00066	8d 04 b8	 lea	 eax, DWORD PTR [eax+edi*4]
  00069	89 46 04	 mov	 DWORD PTR [esi+4], eax
$LN1@resize:
  0006c	5f		 pop	 edi
  0006d	5e		 pop	 esi

; 866  : 			}
; 867  : 		}

  0006e	5d		 pop	 ebp
  0006f	c2 04 00	 ret	 4
?resize@?$vector@HV?$allocator@H@std@@@std@@QAEXI@Z ENDP ; std::vector<int,std::allocator<int> >::resize
_TEXT	ENDS
PUBLIC	?GetMedalItemType@UserInfoNode@@QAEXAAV?$vector@HV?$allocator@H@std@@@std@@@Z ; UserInfoNode::GetMedalItemType
; Function compile flags: /Ogsp
; File d:\lost saga for developer\youtube\tutorial\source\src\lsclient\gui\iouserinfomgr.cpp
;	COMDAT ?GetMedalItemType@UserInfoNode@@QAEXAAV?$vector@HV?$allocator@H@std@@@std@@@Z
_TEXT	SEGMENT
_rvMedalItemTypeVec$ = 8				; size = 4
?GetMedalItemType@UserInfoNode@@QAEXAAV?$vector@HV?$allocator@H@std@@@std@@@Z PROC ; UserInfoNode::GetMedalItemType, COMDAT
; _this$ = ecx

; 642  : {

  00000	55		 push	 ebp
  00001	8b ec		 mov	 ebp, esp

; 643  : 	rvMedalItemTypeVec = m_vMedalItemTypeVec;

  00003	81 c1 98 00 00
	00		 add	 ecx, 152		; 00000098H
  00009	51		 push	 ecx
  0000a	8b 4d 08	 mov	 ecx, DWORD PTR _rvMedalItemTypeVec$[ebp]
  0000d	e8 00 00 00 00	 call	 ??4?$vector@HV?$allocator@H@std@@@std@@QAEAAV01@ABV01@@Z ; std::vector<int,std::allocator<int> >::operator=

; 644  : }

  00012	5d		 pop	 ebp
  00013	c2 04 00	 ret	 4
?GetMedalItemType@UserInfoNode@@QAEXAAV?$vector@HV?$allocator@H@std@@@std@@@Z ENDP ; UserInfoNode::GetMedalItemType
_TEXT	ENDS
PUBLIC	?GetGrowthLevel@UserInfoNode@@QAEXAAV?$vector@HV?$allocator@H@std@@@std@@@Z ; UserInfoNode::GetGrowthLevel
; Function compile flags: /Ogsp
;	COMDAT ?GetGrowthLevel@UserInfoNode@@QAEXAAV?$vector@HV?$allocator@H@std@@@std@@@Z
_TEXT	SEGMENT
_rvGrowthLevelVec$ = 8					; size = 4
?GetGrowthLevel@UserInfoNode@@QAEXAAV?$vector@HV?$allocator@H@std@@@std@@@Z PROC ; UserInfoNode::GetGrowthLevel, COMDAT
; _this$ = ecx

; 647  : {

  00000	55		 push	 ebp
  00001	8b ec		 mov	 ebp, esp

; 648  : 	rvGrowthLevelVec = m_vGrowthLevelVec;

  00003	81 c1 88 00 00
	00		 add	 ecx, 136		; 00000088H
  00009	51		 push	 ecx
  0000a	8b 4d 08	 mov	 ecx, DWORD PTR _rvGrowthLevelVec$[ebp]
  0000d	e8 00 00 00 00	 call	 ??4?$vector@HV?$allocator@H@std@@@std@@QAEAAV01@ABV01@@Z ; std::vector<int,std::allocator<int> >::operator=

; 649  : }

  00012	5d		 pop	 ebp
  00013	c2 04 00	 ret	 4
?GetGrowthLevel@UserInfoNode@@QAEXAAV?$vector@HV?$allocator@H@std@@@std@@@Z ENDP ; UserInfoNode::GetGrowthLevel
_TEXT	ENDS
PUBLIC	?SetMedalItemType@UserInfoNode@@QAEXAAV?$vector@HV?$allocator@H@std@@@std@@@Z ; UserInfoNode::SetMedalItemType
; Function compile flags: /Ogsp
;	COMDAT ?SetMedalItemType@UserInfoNode@@QAEXAAV?$vector@HV?$allocator@H@std@@@std@@@Z
_TEXT	SEGMENT
_rvMedalItemTypeVec$ = 8				; size = 4
?SetMedalItemType@UserInfoNode@@QAEXAAV?$vector@HV?$allocator@H@std@@@std@@@Z PROC ; UserInfoNode::SetMedalItemType, COMDAT
; _this$ = ecx

; 766  : {

  00000	55		 push	 ebp
  00001	8b ec		 mov	 ebp, esp

; 767  : 	m_vMedalItemTypeVec = rvMedalItemTypeVec;

  00003	81 c1 98 00 00
	00		 add	 ecx, 152		; 00000098H

; 768  : }

  00009	5d		 pop	 ebp

; 767  : 	m_vMedalItemTypeVec = rvMedalItemTypeVec;

  0000a	e9 00 00 00 00	 jmp	 ??4?$vector@HV?$allocator@H@std@@@std@@QAEAAV01@ABV01@@Z ; std::vector<int,std::allocator<int> >::operator=
?SetMedalItemType@UserInfoNode@@QAEXAAV?$vector@HV?$allocator@H@std@@@std@@@Z ENDP ; UserInfoNode::SetMedalItemType
_TEXT	ENDS
PUBLIC	?SetGrowthLevel@UserInfoNode@@QAEXAAV?$vector@HV?$allocator@H@std@@@std@@@Z ; UserInfoNode::SetGrowthLevel
; Function compile flags: /Ogsp
;	COMDAT ?SetGrowthLevel@UserInfoNode@@QAEXAAV?$vector@HV?$allocator@H@std@@@std@@@Z
_TEXT	SEGMENT
_rvGrowthLevelVec$ = 8					; size = 4
?SetGrowthLevel@UserInfoNode@@QAEXAAV?$vector@HV?$allocator@H@std@@@std@@@Z PROC ; UserInfoNode::SetGrowthLevel, COMDAT
; _this$ = ecx

; 771  : {

  00000	55		 push	 ebp
  00001	8b ec		 mov	 ebp, esp

; 772  : 	m_vGrowthLevelVec = rvGrowthLevelVec;

  00003	81 c1 88 00 00
	00		 add	 ecx, 136		; 00000088H

; 773  : }

  00009	5d		 pop	 ebp

; 772  : 	m_vGrowthLevelVec = rvGrowthLevelVec;

  0000a	e9 00 00 00 00	 jmp	 ??4?$vector@HV?$allocator@H@std@@@std@@QAEAAV01@ABV01@@Z ; std::vector<int,std::allocator<int> >::operator=
?SetGrowthLevel@UserInfoNode@@QAEXAAV?$vector@HV?$allocator@H@std@@@std@@@Z ENDP ; UserInfoNode::SetGrowthLevel
_TEXT	ENDS
PUBLIC	?SetSoldierSetCnt@UserInfoNode@@QAEXAAV?$vector@HV?$allocator@H@std@@@std@@@Z ; UserInfoNode::SetSoldierSetCnt
; Function compile flags: /Ogsp
;	COMDAT ?SetSoldierSetCnt@UserInfoNode@@QAEXAAV?$vector@HV?$allocator@H@std@@@std@@@Z
_TEXT	SEGMENT
_rvSoldierSetCntVec$ = 8				; size = 4
?SetSoldierSetCnt@UserInfoNode@@QAEXAAV?$vector@HV?$allocator@H@std@@@std@@@Z PROC ; UserInfoNode::SetSoldierSetCnt, COMDAT
; _this$ = ecx

; 862  : {

  00000	55		 push	 ebp
  00001	8b ec		 mov	 ebp, esp

; 863  : 	m_vSoldierSetCntVec = rvSoldierSetCntVec;

  00003	81 c1 c4 04 00
	00		 add	 ecx, 1220		; 000004c4H

; 864  : }

  00009	5d		 pop	 ebp

; 863  : 	m_vSoldierSetCntVec = rvSoldierSetCntVec;

  0000a	e9 00 00 00 00	 jmp	 ??4?$vector@HV?$allocator@H@std@@@std@@QAEAAV01@ABV01@@Z ; std::vector<int,std::allocator<int> >::operator=
?SetSoldierSetCnt@UserInfoNode@@QAEXAAV?$vector@HV?$allocator@H@std@@@std@@@Z ENDP ; UserInfoNode::SetSoldierSetCnt
; Function compile flags: /Ogsp
_TEXT	ENDS
;	COMDAT ??_GioUserInfoMgr@@UAEPAXI@Z
_TEXT	SEGMENT
___flags$ = 8						; size = 4
??_GioUserInfoMgr@@UAEPAXI@Z PROC			; ioUserInfoMgr::`scalar deleting destructor', COMDAT
; _this$ = ecx
  00000	55		 push	 ebp
  00001	8b ec		 mov	 ebp, esp
  00003	56		 push	 esi
  00004	8b f1		 mov	 esi, ecx
  00006	e8 00 00 00 00	 call	 ??1ioUserInfoMgr@@UAE@XZ ; ioUserInfoMgr::~ioUserInfoMgr
  0000b	f6 45 08 01	 test	 BYTE PTR ___flags$[ebp], 1
  0000f	74 07		 je	 SHORT $LN1@scalar@4
  00011	56		 push	 esi
  00012	e8 00 00 00 00	 call	 ??3@YAXPAX@Z		; operator delete
  00017	59		 pop	 ecx
$LN1@scalar@4:
  00018	8b c6		 mov	 eax, esi
  0001a	5e		 pop	 esi
  0001b	5d		 pop	 ebp
  0001c	c2 04 00	 ret	 4
??_GioUserInfoMgr@@UAEPAXI@Z ENDP			; ioUserInfoMgr::`scalar deleting destructor'
_TEXT	ENDS
PUBLIC	??0?$vector@HV?$allocator@H@std@@@std@@QAE@ABV01@@Z ; std::vector<int,std::allocator<int> >::vector<int,std::allocator<int> >
EXTRN	__EH_prolog3_catch:PROC
;	COMDAT xdata$x
; File c:\program files (x86)\microsoft visual studio 10.0\vc\include\xutility
xdata$x	SEGMENT
__catchsym$??0?$vector@HV?$allocator@H@std@@@std@@QAE@ABV01@@Z$2 DD 040H
	DD	00H
	DD	00H
	DD	FLAT:__catch$??0?$vector@HV?$allocator@H@std@@@std@@QAE@ABV01@@Z$0
__unwindtable$??0?$vector@HV?$allocator@H@std@@@std@@QAE@ABV01@@Z DD 0ffffffffH
	DD	00H
	DD	0ffffffffH
	DD	00H
__tryblocktable$??0?$vector@HV?$allocator@H@std@@@std@@QAE@ABV01@@Z DD 00H
	DD	00H
	DD	01H
	DD	01H
	DD	FLAT:__catchsym$??0?$vector@HV?$allocator@H@std@@@std@@QAE@ABV01@@Z$2
__ehfuncinfo$??0?$vector@HV?$allocator@H@std@@@std@@QAE@ABV01@@Z DD 019930522H
	DD	02H
	DD	FLAT:__unwindtable$??0?$vector@HV?$allocator@H@std@@@std@@QAE@ABV01@@Z
	DD	01H
	DD	FLAT:__tryblocktable$??0?$vector@HV?$allocator@H@std@@@std@@QAE@ABV01@@Z
	DD	2 DUP(00H)
	DD	00H
	DD	01H
; Function compile flags: /Ogsp
; File c:\program files (x86)\microsoft visual studio 10.0\vc\include\vector
xdata$x	ENDS
;	COMDAT ??0?$vector@HV?$allocator@H@std@@@std@@QAE@ABV01@@Z
_TEXT	SEGMENT
_this$ = -20						; size = 4
__$EHRec$ = -16						; size = 16
__Cat$522230 = 8					; size = 1
__Right$ = 8						; size = 4
??0?$vector@HV?$allocator@H@std@@@std@@QAE@ABV01@@Z PROC ; std::vector<int,std::allocator<int> >::vector<int,std::allocator<int> >, COMDAT
; _this$ = ecx

; 535  : 		{	// construct by copying _Right

  00000	6a 08		 push	 8
  00002	b8 00 00 00 00	 mov	 eax, __ehhandler$??0?$vector@HV?$allocator@H@std@@@std@@QAE@ABV01@@Z
  00007	e8 00 00 00 00	 call	 __EH_prolog3_catch
  0000c	8b f1		 mov	 esi, ecx
  0000e	89 75 ec	 mov	 DWORD PTR _this$[ebp], esi

; 536  : 		if (_Buy(_Right.size()))

  00011	8b 7d 08	 mov	 edi, DWORD PTR __Right$[ebp]
  00014	33 db		 xor	 ebx, ebx
  00016	89 1e		 mov	 DWORD PTR [esi], ebx
  00018	89 5e 04	 mov	 DWORD PTR [esi+4], ebx
  0001b	89 5e 08	 mov	 DWORD PTR [esi+8], ebx
  0001e	8b 47 04	 mov	 eax, DWORD PTR [edi+4]
  00021	2b 07		 sub	 eax, DWORD PTR [edi]
  00023	c1 f8 02	 sar	 eax, 2
  00026	50		 push	 eax
  00027	e8 00 00 00 00	 call	 ?_Buy@?$vector@HV?$allocator@H@std@@@std@@IAE_NI@Z ; std::vector<int,std::allocator<int> >::_Buy
  0002c	84 c0		 test	 al, al
  0002e	74 1f		 je	 SHORT $LN7@vector@3

; 537  : 			_TRY_BEGIN
; 538  : 			this->_Mylast = _Ucopy(_Right.begin(), _Right.end(),
; 539  : 				this->_Myfirst);

  00030	ff 75 08	 push	 DWORD PTR __Cat$522230[ebp]
  00033	8b 0e		 mov	 ecx, DWORD PTR [esi]
  00035	8b 47 04	 mov	 eax, DWORD PTR [edi+4]
  00038	8b 3f		 mov	 edi, DWORD PTR [edi]
  0003a	8d 56 0c	 lea	 edx, DWORD PTR [esi+12]
  0003d	52		 push	 edx
  0003e	51		 push	 ecx
  0003f	50		 push	 eax
  00040	57		 push	 edi
  00041	89 5d fc	 mov	 DWORD PTR __$EHRec$[ebp+12], ebx
  00044	e8 00 00 00 00	 call	 ??$_Uninit_copy@V?$_Vector_const_iterator@V?$_Vector_val@HV?$allocator@H@std@@@std@@@std@@PAHV?$allocator@H@2@@std@@YAPAHV?$_Vector_const_iterator@V?$_Vector_val@HV?$allocator@H@std@@@std@@@0@0PAHAAV?$allocator@H@0@U_Nonscalar_ptr_iterator_tag@0@@Z ; std::_Uninit_copy<std::_Vector_const_iterator<std::_Vector_val<int,std::allocator<int> > >,int *,std::allocator<int> >
  00049	83 c4 14	 add	 esp, 20			; 00000014H
  0004c	89 46 04	 mov	 DWORD PTR [esi+4], eax
$LN7@vector@3:

; 543  : 			_CATCH_END
; 544  : 		}

  0004f	8b c6		 mov	 eax, esi
  00051	e8 00 00 00 00	 call	 __EH_epilog3
  00056	c2 04 00	 ret	 4
__catch$??0?$vector@HV?$allocator@H@std@@@std@@QAE@ABV01@@Z$0:

; 540  : 			_CATCH_ALL
; 541  : 			_Tidy();

  00059	8b 4d ec	 mov	 ecx, DWORD PTR _this$[ebp]
  0005c	e8 00 00 00 00	 call	 ?_Tidy@?$vector@HV?$allocator@H@std@@@std@@IAEXXZ ; std::vector<int,std::allocator<int> >::_Tidy

; 542  : 			_RERAISE;

  00061	33 db		 xor	 ebx, ebx
  00063	53		 push	 ebx
  00064	53		 push	 ebx
  00065	e8 00 00 00 00	 call	 __CxxThrowException@8
$LN38@vector@3:
$LN37@vector@3:
  0006a	cc		 int	 3
_TEXT	ENDS
;	COMDAT text$x
text$x	SEGMENT
__ehhandler$??0?$vector@HV?$allocator@H@std@@@std@@QAE@ABV01@@Z:
  00000	8b 54 24 08	 mov	 edx, DWORD PTR [esp+8]
  00004	8d 42 0c	 lea	 eax, DWORD PTR [edx+12]
  00007	8b 4a e8	 mov	 ecx, DWORD PTR [edx-24]
  0000a	33 c8		 xor	 ecx, eax
  0000c	e8 00 00 00 00	 call	 @__security_check_cookie@4
  00011	b8 00 00 00 00	 mov	 eax, OFFSET __ehfuncinfo$??0?$vector@HV?$allocator@H@std@@@std@@QAE@ABV01@@Z
  00016	e9 00 00 00 00	 jmp	 ___CxxFrameHandler3
text$x	ENDS
??0?$vector@HV?$allocator@H@std@@@std@@QAE@ABV01@@Z ENDP ; std::vector<int,std::allocator<int> >::vector<int,std::allocator<int> >
PUBLIC	??$_Destroy@UCharInfoData@@@std@@YAXPAUCharInfoData@@@Z ; std::_Destroy<CharInfoData>
; Function compile flags: /Ogsp
; File c:\program files (x86)\microsoft visual studio 10.0\vc\include\xmemory
;	COMDAT ??$_Destroy@UCharInfoData@@@std@@YAXPAUCharInfoData@@@Z
_TEXT	SEGMENT
__Ptr$ = 8						; size = 4
??$_Destroy@UCharInfoData@@@std@@YAXPAUCharInfoData@@@Z PROC ; std::_Destroy<CharInfoData>, COMDAT

; 62   : 	{	// destroy object at _Ptr

  00000	55		 push	 ebp
  00001	8b ec		 mov	 ebp, esp

; 63   : 	_Ptr->~_Ty();

  00003	8b 4d 08	 mov	 ecx, DWORD PTR __Ptr$[ebp]

; 64   : 	}

  00006	5d		 pop	 ebp

; 63   : 	_Ptr->~_Ty();

  00007	e9 00 00 00 00	 jmp	 ??1CharInfoData@@QAE@XZ
??$_Destroy@UCharInfoData@@@std@@YAXPAUCharInfoData@@@Z ENDP ; std::_Destroy<CharInfoData>
_TEXT	ENDS
PUBLIC	??0CharInfoData@@QAE@XZ				; CharInfoData::CharInfoData
;	COMDAT xdata$x
xdata$x	SEGMENT
__unwindtable$??0CharInfoData@@QAE@XZ DD 0ffffffffH
	DD	FLAT:__unwindfunclet$??0CharInfoData@@QAE@XZ$0
	DD	00H
	DD	FLAT:__unwindfunclet$??0CharInfoData@@QAE@XZ$1
__ehfuncinfo$??0CharInfoData@@QAE@XZ DD 019930522H
	DD	02H
	DD	FLAT:__unwindtable$??0CharInfoData@@QAE@XZ
	DD	2 DUP(00H)
	DD	2 DUP(00H)
	DD	00H
	DD	01H
; Function compile flags: /Ogsp
; File d:\lost saga for developer\youtube\tutorial\source\src\lsclient\gui\iouserinfomgr.h
xdata$x	ENDS
;	COMDAT ??0CharInfoData@@QAE@XZ
_TEXT	SEGMENT
_this$ = -16						; size = 4
__$EHRec$ = -12						; size = 12
??0CharInfoData@@QAE@XZ PROC				; CharInfoData::CharInfoData, COMDAT
; _this$ = ecx

; 31   : 	CharInfoData()

  00000	6a 04		 push	 4
  00002	b8 00 00 00 00	 mov	 eax, __ehhandler$??0CharInfoData@@QAE@XZ
  00007	e8 00 00 00 00	 call	 __EH_prolog3
  0000c	8b f1		 mov	 esi, ecx
  0000e	89 75 f0	 mov	 DWORD PTR _this$[ebp], esi
  00011	8d 4e 08	 lea	 ecx, DWORD PTR [esi+8]
  00014	e8 00 00 00 00	 call	 ??0CHARACTER@@QAE@XZ	; CHARACTER::CHARACTER
  00019	33 c9		 xor	 ecx, ecx
  0001b	6a 03		 push	 3
  0001d	89 4d fc	 mov	 DWORD PTR __$EHRec$[ebp+8], ecx
  00020	8d 86 2c 03 00
	00		 lea	 eax, DWORD PTR [esi+812]
  00026	5a		 pop	 edx
$LL6@CharInfoDa:
  00027	83 48 08 ff	 or	 DWORD PTR [eax+8], -1
  0002b	89 08		 mov	 DWORD PTR [eax], ecx
  0002d	89 48 04	 mov	 DWORD PTR [eax+4], ecx
  00030	89 48 10	 mov	 DWORD PTR [eax+16], ecx
  00033	89 48 0c	 mov	 DWORD PTR [eax+12], ecx
  00036	83 c0 14	 add	 eax, 20			; 00000014H
  00039	4a		 dec	 edx
  0003a	79 eb		 jns	 SHORT $LL6@CharInfoDa
  0003c	89 8e 80 03 00
	00		 mov	 DWORD PTR [esi+896], ecx
  00042	89 8e 84 03 00
	00		 mov	 DWORD PTR [esi+900], ecx
  00048	89 8e 88 03 00
	00		 mov	 DWORD PTR [esi+904], ecx

; 32   : 	{
; 33   : 		Init();

  0004e	8b ce		 mov	 ecx, esi
  00050	c6 45 fc 01	 mov	 BYTE PTR __$EHRec$[ebp+8], 1
  00054	e8 00 00 00 00	 call	 ?Init@CharInfoData@@QAEXXZ ; CharInfoData::Init

; 34   : 	}

  00059	8b c6		 mov	 eax, esi
  0005b	e8 00 00 00 00	 call	 __EH_epilog3
  00060	c3		 ret	 0
_TEXT	ENDS
;	COMDAT text$x
text$x	SEGMENT
__unwindfunclet$??0CharInfoData@@QAE@XZ$0:
  00000	8b 4d f0	 mov	 ecx, DWORD PTR _this$[ebp]
  00003	83 c1 08	 add	 ecx, 8
  00006	e9 00 00 00 00	 jmp	 ??1CHARACTER@@QAE@XZ
__unwindfunclet$??0CharInfoData@@QAE@XZ$1:
  0000b	8b 4d f0	 mov	 ecx, DWORD PTR _this$[ebp]
  0000e	81 c1 80 03 00
	00		 add	 ecx, 896		; 00000380H
  00014	e9 00 00 00 00	 jmp	 ??1?$vector@HV?$allocator@H@std@@@std@@QAE@XZ ; std::vector<int,std::allocator<int> >::~vector<int,std::allocator<int> >
__ehhandler$??0CharInfoData@@QAE@XZ:
  00019	8b 54 24 08	 mov	 edx, DWORD PTR [esp+8]
  0001d	8d 42 0c	 lea	 eax, DWORD PTR [edx+12]
  00020	8b 4a ec	 mov	 ecx, DWORD PTR [edx-20]
  00023	33 c8		 xor	 ecx, eax
  00025	e8 00 00 00 00	 call	 @__security_check_cookie@4
  0002a	b8 00 00 00 00	 mov	 eax, OFFSET __ehfuncinfo$??0CharInfoData@@QAE@XZ
  0002f	e9 00 00 00 00	 jmp	 ___CxxFrameHandler3
text$x	ENDS
??0CharInfoData@@QAE@XZ ENDP				; CharInfoData::CharInfoData
PUBLIC	??4CharInfoData@@QAEAAU0@ABU0@@Z		; CharInfoData::operator=
; Function compile flags: /Ogsp
;	COMDAT ??4CharInfoData@@QAEAAU0@ABU0@@Z
_TEXT	SEGMENT
tv284 = -4						; size = 4
tv505 = 8						; size = 4
__Cat$522531 = 8					; size = 1
tv288 = 8						; size = 4
tv231 = 8						; size = 4
$T522378 = 8						; size = 4
_rhs$ = 8						; size = 4
??4CharInfoData@@QAEAAU0@ABU0@@Z PROC			; CharInfoData::operator=, COMDAT
; _this$ = ecx

; 94   : 	{

  00000	55		 push	 ebp
  00001	8b ec		 mov	 ebp, esp
  00003	51		 push	 ecx
  00004	53		 push	 ebx
  00005	56		 push	 esi

; 95   : 		m_CharInfo = rhs.m_CharInfo;

  00006	8b 75 08	 mov	 esi, DWORD PTR _rhs$[ebp]
  00009	57		 push	 edi
  0000a	8b f9		 mov	 edi, ecx
  0000c	8d 46 08	 lea	 eax, DWORD PTR [esi+8]
  0000f	50		 push	 eax
  00010	8d 4f 08	 lea	 ecx, DWORD PTR [edi+8]
  00013	e8 00 00 00 00	 call	 ??4CHARACTER@@QAEAAU0@ABU0@@Z ; CHARACTER::operator=
  00018	8d 8f 2c 03 00
	00		 lea	 ecx, DWORD PTR [edi+812]

; 96   : 		
; 97   : 		int i = 0;
; 98   : 		for(i = 0;i < MAX_INVENTORY;i++)

  0001e	8b de		 mov	 ebx, esi
  00020	89 4d 08	 mov	 DWORD PTR tv505[ebp], ecx
  00023	2b df		 sub	 ebx, edi
  00025	c7 45 fc 04 00
	00 00		 mov	 DWORD PTR tv284[ebp], 4
  0002c	eb 03		 jmp	 SHORT $LN10@operator@4
$LL83@operator@4:

; 95   : 		m_CharInfo = rhs.m_CharInfo;

  0002e	8b 4d 08	 mov	 ecx, DWORD PTR tv505[ebp]
$LN10@operator@4:

; 99   : 			m_EquipItemInfo[i] = rhs.m_EquipItemInfo[i];

  00031	8d 04 0b	 lea	 eax, DWORD PTR [ebx+ecx]
  00034	50		 push	 eax
  00035	e8 00 00 00 00	 call	 ??4ITEM_DATA@@QAEAAU0@ABU0@@Z ; ITEM_DATA::operator=
  0003a	83 45 08 14	 add	 DWORD PTR tv505[ebp], 20 ; 00000014H
  0003e	ff 4d fc	 dec	 DWORD PTR tv284[ebp]
  00041	75 eb		 jne	 SHORT $LL83@operator@4

; 100  : 
; 101  : 		m_dwMotionEtcItem   = rhs.m_dwMotionEtcItem;

  00043	8b 06		 mov	 eax, DWORD PTR [esi]
  00045	89 07		 mov	 DWORD PTR [edi], eax

; 102  : 		m_iClassLevel		= rhs.m_iClassLevel;

  00047	8b 46 04	 mov	 eax, DWORD PTR [esi+4]
  0004a	89 47 04	 mov	 DWORD PTR [edi+4], eax

; 103  : 		m_bChangeData		= rhs.m_bChangeData;

  0004d	8a 86 b8 03 00
	00		 mov	 al, BYTE PTR [esi+952]
  00053	88 87 b8 03 00
	00		 mov	 BYTE PTR [edi+952], al

; 104  : 		m_bSubDataSync		= rhs.m_bSubDataSync;

  00059	8a 86 7c 03 00
	00		 mov	 al, BYTE PTR [esi+892]
  0005f	88 87 7c 03 00
	00		 mov	 BYTE PTR [edi+892], al

; 105  : 		m_dwCharLoadingTime = rhs.m_dwCharLoadingTime;

  00065	8b 86 b0 03 00
	00		 mov	 eax, DWORD PTR [esi+944]
  0006b	6a 04		 push	 4
  0006d	59		 pop	 ecx
  0006e	89 87 b0 03 00
	00		 mov	 DWORD PTR [edi+944], eax
  00074	8d 87 90 03 00
	00		 lea	 eax, DWORD PTR [edi+912]
  0007a	89 4d 08	 mov	 DWORD PTR tv288[ebp], ecx
$LL7@operator@4:

; 106  : 		for(i = 0;i < MAX_CHAR_GROWTH;i++)
; 107  : 			m_CharGrowth[i] = rhs.m_CharGrowth[i];

  0007d	8b 14 18	 mov	 edx, DWORD PTR [eax+ebx]
  00080	89 10		 mov	 DWORD PTR [eax], edx
  00082	03 c1		 add	 eax, ecx
  00084	ff 4d 08	 dec	 DWORD PTR tv288[ebp]
  00087	75 f4		 jne	 SHORT $LL7@operator@4

; 108  : 		for(i = 0;i < MAX_ITEM_GROWTH;i++)

  00089	8d 87 a0 03 00
	00		 lea	 eax, DWORD PTR [edi+928]
  0008f	89 4d 08	 mov	 DWORD PTR tv231[ebp], ecx
$LL4@operator@4:

; 109  : 			m_ItemGrowth[i] = rhs.m_ItemGrowth[i];

  00092	8b 14 18	 mov	 edx, DWORD PTR [eax+ebx]
  00095	89 10		 mov	 DWORD PTR [eax], edx
  00097	03 c1		 add	 eax, ecx
  00099	ff 4d 08	 dec	 DWORD PTR tv231[ebp]
  0009c	75 f4		 jne	 SHORT $LL4@operator@4

; 110  : 
; 111  : 
; 112  : 		m_EquipMedalItem.clear();

  0009e	8b 87 84 03 00
	00		 mov	 eax, DWORD PTR [edi+900]
  000a4	8b 8f 80 03 00
	00		 mov	 ecx, DWORD PTR [edi+896]
  000aa	50		 push	 eax
  000ab	51		 push	 ecx
  000ac	8d 45 08	 lea	 eax, DWORD PTR $T522378[ebp]
  000af	50		 push	 eax
  000b0	8d 8f 80 03 00
	00		 lea	 ecx, DWORD PTR [edi+896]
  000b6	e8 00 00 00 00	 call	 ?erase@?$vector@HV?$allocator@H@std@@@std@@QAE?AV?$_Vector_iterator@V?$_Vector_val@HV?$allocator@H@std@@@std@@@2@V?$_Vector_const_iterator@V?$_Vector_val@HV?$allocator@H@std@@@std@@@2@0@Z ; std::vector<int,std::allocator<int> >::erase

; 113  : 		if( !rhs.m_EquipMedalItem.empty() )

  000bb	8b 8e 80 03 00
	00		 mov	 ecx, DWORD PTR [esi+896]
  000c1	8b 86 84 03 00
	00		 mov	 eax, DWORD PTR [esi+900]
  000c7	3b c8		 cmp	 ecx, eax
  000c9	74 30		 je	 SHORT $LN55@operator@4

; 114  : 		{
; 115  : 			m_EquipMedalItem.resize( rhs.m_EquipMedalItem.size() );

  000cb	2b c1		 sub	 eax, ecx
  000cd	c1 f8 02	 sar	 eax, 2
  000d0	50		 push	 eax
  000d1	8d 8f 80 03 00
	00		 lea	 ecx, DWORD PTR [edi+896]
  000d7	e8 00 00 00 00	 call	 ?resize@?$vector@HV?$allocator@H@std@@@std@@QAEXI@Z ; std::vector<int,std::allocator<int> >::resize

; 116  : 			std::copy( rhs.m_EquipMedalItem.begin(), rhs.m_EquipMedalItem.end(), m_EquipMedalItem.begin() );

  000dc	ff 75 08	 push	 DWORD PTR __Cat$522531[ebp]
  000df	8b 86 84 03 00
	00		 mov	 eax, DWORD PTR [esi+900]
  000e5	ff b7 80 03 00
	00		 push	 DWORD PTR [edi+896]
  000eb	8b 8e 80 03 00
	00		 mov	 ecx, DWORD PTR [esi+896]
  000f1	50		 push	 eax
  000f2	51		 push	 ecx
  000f3	e8 00 00 00 00	 call	 ??$_Copy_impl@PBHPAH@std@@YAPAHPBH0PAHU_Scalar_ptr_iterator_tag@0@@Z ; std::_Copy_impl<int const *,int *>
  000f8	83 c4 10	 add	 esp, 16			; 00000010H
$LN55@operator@4:

; 117  : 		}
; 118  : 
; 119  : 		m_iAwakeType = rhs.m_iAwakeType;

  000fb	8b 86 bc 03 00
	00		 mov	 eax, DWORD PTR [esi+956]
  00101	89 87 bc 03 00
	00		 mov	 DWORD PTR [edi+956], eax

; 120  : 
; 121  : 		return *this;

  00107	8b c7		 mov	 eax, edi
  00109	5f		 pop	 edi
  0010a	5e		 pop	 esi
  0010b	5b		 pop	 ebx

; 122  : 	}

  0010c	c9		 leave
  0010d	c2 04 00	 ret	 4
??4CharInfoData@@QAEAAU0@ABU0@@Z ENDP			; CharInfoData::operator=
_TEXT	ENDS
PUBLIC	?SelectLeader@UserInfoCharData@@IAEXAAUCharInfoData@@@Z ; UserInfoCharData::SelectLeader
; Function compile flags: /Ogsp
; File d:\lost saga for developer\youtube\tutorial\source\src\lsclient\gui\iouserinfomgr.cpp
;	COMDAT ?SelectLeader@UserInfoCharData@@IAEXAAUCharInfoData@@@Z
_TEXT	SEGMENT
_value$522554 = -4					; size = 4
_rkData$ = 8						; size = 4
?SelectLeader@UserInfoCharData@@IAEXAAUCharInfoData@@@Z PROC ; UserInfoCharData::SelectLeader, COMDAT
; _this$ = ecx

; 38   : {

  00000	55		 push	 ebp
  00001	8b ec		 mov	 ebp, esp
  00003	51		 push	 ecx
  00004	56		 push	 esi
  00005	8b f1		 mov	 esi, ecx

; 39   : 	// 리더 결정
; 40   : 	if( m_LeaderCharData.m_CharInfo.m_class_type == 0 )

  00007	8d 45 fc	 lea	 eax, DWORD PTR _value$522554[ebp]
  0000a	50		 push	 eax
  0000b	8d 4e 1c	 lea	 ecx, DWORD PTR [esi+28]
  0000e	e8 00 00 00 00	 call	 ?DecryptValueToPool@?$CEncrypt@H@@QAEXPAH@Z ; CEncrypt<int>::DecryptValueToPool
  00013	83 7d fc 00	 cmp	 DWORD PTR _value$522554[ebp], 0
  00017	75 05		 jne	 SHORT $LN6@SelectLead

; 41   : 	{	
; 42   : 		m_LeaderCharData = rkData;

  00019	ff 75 08	 push	 DWORD PTR _rkData$[ebp]

; 43   : 	}
; 44   : 	else

  0001c	eb 20		 jmp	 SHORT $LN11@SelectLead
$LN6@SelectLead:

; 45   : 	{
; 46   : 		if( rkData.m_CharInfo.m_sLeaderType == CLT_LEADER )

  0001e	8b 45 08	 mov	 eax, DWORD PTR _rkData$[ebp]
  00021	66 83 b8 b0 02
	00 00 01	 cmp	 WORD PTR [eax+688], 1

; 47   : 		{	
; 48   : 			m_LeaderCharData = rkData;

  00029	74 12		 je	 SHORT $LN12@SelectLead

; 49   : 		}
; 50   : 		else if( m_LeaderCharData.m_CharInfo.m_sLeaderType == CLT_NORMAL )

  0002b	66 83 be c4 02
	00 00 00	 cmp	 WORD PTR [esi+708], 0
  00033	75 11		 jne	 SHORT $LN1@SelectLead

; 51   : 		{
; 52   : 			if( m_LeaderCharData.m_iClassLevel < rkData.m_iClassLevel )

  00035	8b 4e 18	 mov	 ecx, DWORD PTR [esi+24]
  00038	3b 48 04	 cmp	 ecx, DWORD PTR [eax+4]
  0003b	7d 09		 jge	 SHORT $LN1@SelectLead
$LN12@SelectLead:

; 53   : 			{	
; 54   : 				m_LeaderCharData = rkData;

  0003d	50		 push	 eax
$LN11@SelectLead:
  0003e	8d 4e 14	 lea	 ecx, DWORD PTR [esi+20]
  00041	e8 00 00 00 00	 call	 ??4CharInfoData@@QAEAAU0@ABU0@@Z ; CharInfoData::operator=
$LN1@SelectLead:

; 55   : 			}
; 56   : 		}	
; 57   : 	}
; 58   : 	m_LeaderCharData.m_dwMotionEtcItem = m_dwLeaderMotion;

  00046	8b 86 d4 03 00
	00		 mov	 eax, DWORD PTR [esi+980]
  0004c	89 46 14	 mov	 DWORD PTR [esi+20], eax
  0004f	5e		 pop	 esi

; 59   : }

  00050	c9		 leave
  00051	c2 04 00	 ret	 4
?SelectLeader@UserInfoCharData@@IAEXAAUCharInfoData@@@Z ENDP ; UserInfoCharData::SelectLeader
_TEXT	ENDS
PUBLIC	?SelectLeader@UserInfoCharData@@IAEXXZ		; UserInfoCharData::SelectLeader
; Function compile flags: /Ogsp
;	COMDAT ?SelectLeader@UserInfoCharData@@IAEXXZ
_TEXT	SEGMENT
?SelectLeader@UserInfoCharData@@IAEXXZ PROC		; UserInfoCharData::SelectLeader, COMDAT
; _this$ = ecx

; 62   : {

  00000	56		 push	 esi
  00001	8b f1		 mov	 esi, ecx
  00003	57		 push	 edi

; 63   : 	m_LeaderCharData.Init();

  00004	8d 4e 14	 lea	 ecx, DWORD PTR [esi+20]
  00007	e8 00 00 00 00	 call	 ?Init@CharInfoData@@QAEXXZ ; CharInfoData::Init

; 64   : 	CharInfoDataVec::iterator iter = m_CharDataList.begin();

  0000c	8b 7e 04	 mov	 edi, DWORD PTR [esi+4]
  0000f	eb 0e		 jmp	 SHORT $LN38@SelectLead@2

; 65   : 	for(;iter != m_CharDataList.end();++iter)

$LL16@SelectLead@2:

; 66   : 	{
; 67   : 		SelectLeader( *iter );

  00011	57		 push	 edi
  00012	8b ce		 mov	 ecx, esi
  00014	e8 00 00 00 00	 call	 ?SelectLeader@UserInfoCharData@@IAEXAAUCharInfoData@@@Z ; UserInfoCharData::SelectLeader
  00019	81 c7 c0 03 00
	00		 add	 edi, 960		; 000003c0H
$LN38@SelectLead@2:

; 65   : 	for(;iter != m_CharDataList.end();++iter)

  0001f	3b 7e 08	 cmp	 edi, DWORD PTR [esi+8]
  00022	75 ed		 jne	 SHORT $LL16@SelectLead@2

; 68   : 	}
; 69   : 	m_LeaderCharData.m_bChangeData = true;

  00024	5f		 pop	 edi
  00025	c6 86 cc 03 00
	00 01		 mov	 BYTE PTR [esi+972], 1
  0002c	5e		 pop	 esi

; 70   : }

  0002d	c3		 ret	 0
?SelectLeader@UserInfoCharData@@IAEXXZ ENDP		; UserInfoCharData::SelectLeader
_TEXT	ENDS
PUBLIC	?SetEquipItem@UserInfoCharData@@QAEXHQBUITEM_DATA@@@Z ; UserInfoCharData::SetEquipItem
; Function compile flags: /Ogsp
;	COMDAT ?SetEquipItem@UserInfoCharData@@QAEXHQBUITEM_DATA@@@Z
_TEXT	SEGMENT
_value$522733 = -4					; size = 4
tv333 = 8						; size = 4
_value$522741 = 8					; size = 4
_iClassType$ = 8					; size = 4
tv208 = 12						; size = 4
_value$522737 = 12					; size = 4
_kEquipItem$ = 12					; size = 4
?SetEquipItem@UserInfoCharData@@QAEXHQBUITEM_DATA@@@Z PROC ; UserInfoCharData::SetEquipItem, COMDAT
; _this$ = ecx

; 102  : {

  00000	55		 push	 ebp
  00001	8b ec		 mov	 ebp, esp
  00003	51		 push	 ecx
  00004	56		 push	 esi
  00005	57		 push	 edi
  00006	8b f9		 mov	 edi, ecx

; 103  : 	CharInfoDataVec::iterator iter = m_CharDataList.begin();

  00008	8b 77 04	 mov	 esi, DWORD PTR [edi+4]
  0000b	eb 1a		 jmp	 SHORT $LN56@SetEquipIt

; 104  : 	for(;iter != m_CharDataList.end();++iter)

$LL21@SetEquipIt:

; 105  : 	{
; 106  : 		CharInfoData &rkData = *iter;
; 107  : 		if( rkData.m_CharInfo.m_class_type == iClassType )

  0000d	8d 45 fc	 lea	 eax, DWORD PTR _value$522733[ebp]
  00010	50		 push	 eax
  00011	8d 4e 08	 lea	 ecx, DWORD PTR [esi+8]
  00014	e8 00 00 00 00	 call	 ?DecryptValueToPool@?$CEncrypt@H@@QAEXPAH@Z ; CEncrypt<int>::DecryptValueToPool
  00019	8b 45 fc	 mov	 eax, DWORD PTR _value$522733[ebp]
  0001c	3b 45 08	 cmp	 eax, DWORD PTR _iClassType$[ebp]
  0001f	74 0d		 je	 SHORT $LN51@SetEquipIt

; 104  : 	for(;iter != m_CharDataList.end();++iter)

  00021	81 c6 c0 03 00
	00		 add	 esi, 960		; 000003c0H
$LN56@SetEquipIt:
  00027	3b 77 08	 cmp	 esi, DWORD PTR [edi+8]
  0002a	75 e1		 jne	 SHORT $LL21@SetEquipIt

; 105  : 	{
; 106  : 		CharInfoData &rkData = *iter;
; 107  : 		if( rkData.m_CharInfo.m_class_type == iClassType )

  0002c	eb 6a		 jmp	 SHORT $LN47@SetEquipIt
$LN51@SetEquipIt:
  0002e	53		 push	 ebx

; 108  : 		{
; 109  : 			for(int i = 0;i < MAX_INVENTORY;i++)

  0002f	8b 5d 0c	 mov	 ebx, DWORD PTR _kEquipItem$[ebp]
  00032	8d 86 2c 03 00
	00		 lea	 eax, DWORD PTR [esi+812]
  00038	89 45 08	 mov	 DWORD PTR tv333[ebp], eax
  0003b	c7 45 0c 04 00
	00 00		 mov	 DWORD PTR tv208[ebp], 4
$LL54@SetEquipIt:

; 110  : 			{
; 111  : 				rkData.m_EquipItemInfo[i] = kEquipItem[i];

  00042	8b 4d 08	 mov	 ecx, DWORD PTR tv333[ebp]
  00045	53		 push	 ebx
  00046	e8 00 00 00 00	 call	 ??4ITEM_DATA@@QAEAAU0@ABU0@@Z ; ITEM_DATA::operator=
  0004b	83 45 08 14	 add	 DWORD PTR tv333[ebp], 20 ; 00000014H
  0004f	83 c3 14	 add	 ebx, 20			; 00000014H
  00052	ff 4d 0c	 dec	 DWORD PTR tv208[ebp]

; 112  : 				rkData.m_bChangeData = true;

  00055	c6 86 b8 03 00
	00 01		 mov	 BYTE PTR [esi+952], 1
  0005c	75 e4		 jne	 SHORT $LL54@SetEquipIt

; 113  : 			}			
; 114  : 
; 115  : 			if( rkData.m_CharInfo.m_class_type == m_LeaderCharData.m_CharInfo.m_class_type )

  0005e	8d 45 0c	 lea	 eax, DWORD PTR _value$522737[ebp]
  00061	50		 push	 eax
  00062	8d 4f 1c	 lea	 ecx, DWORD PTR [edi+28]
  00065	e8 00 00 00 00	 call	 ?DecryptValueToPool@?$CEncrypt@H@@QAEXPAH@Z ; CEncrypt<int>::DecryptValueToPool
  0006a	8d 45 08	 lea	 eax, DWORD PTR _value$522741[ebp]
  0006d	50		 push	 eax
  0006e	8d 4e 08	 lea	 ecx, DWORD PTR [esi+8]
  00071	e8 00 00 00 00	 call	 ?DecryptValueToPool@?$CEncrypt@H@@QAEXPAH@Z ; CEncrypt<int>::DecryptValueToPool
  00076	8b 45 08	 mov	 eax, DWORD PTR _value$522741[ebp]
  00079	3b 45 0c	 cmp	 eax, DWORD PTR _value$522737[ebp]
  0007c	75 19		 jne	 SHORT $LN55@SetEquipIt

; 116  : 			{
; 117  : 				m_LeaderCharData = rkData;

  0007e	56		 push	 esi
  0007f	8d 4f 14	 lea	 ecx, DWORD PTR [edi+20]
  00082	e8 00 00 00 00	 call	 ??4CharInfoData@@QAEAAU0@ABU0@@Z ; CharInfoData::operator=

; 118  : 				SetLeaderMotion( m_dwLeaderMotion );

  00087	8b 87 d4 03 00
	00		 mov	 eax, DWORD PTR [edi+980]
  0008d	89 47 14	 mov	 DWORD PTR [edi+20], eax
  00090	c6 87 cc 03 00
	00 01		 mov	 BYTE PTR [edi+972], 1
$LN55@SetEquipIt:
  00097	5b		 pop	 ebx
$LN47@SetEquipIt:
  00098	5f		 pop	 edi
  00099	5e		 pop	 esi

; 119  : 			}
; 120  : 			break;
; 121  : 		}
; 122  : 	}
; 123  : }

  0009a	c9		 leave
  0009b	c2 08 00	 ret	 8
?SetEquipItem@UserInfoCharData@@QAEXHQBUITEM_DATA@@@Z ENDP ; UserInfoCharData::SetEquipItem
_TEXT	ENDS
PUBLIC	?SetEquipMedal@UserInfoCharData@@QAEXHAAV?$vector@HV?$allocator@H@std@@@std@@@Z ; UserInfoCharData::SetEquipMedal
; Function compile flags: /Ogsp
;	COMDAT ?SetEquipMedal@UserInfoCharData@@QAEXHAAV?$vector@HV?$allocator@H@std@@@std@@@Z
_TEXT	SEGMENT
_value$522846 = -4					; size = 4
_value$523094 = 8					; size = 4
__Cat$523078 = 8					; size = 1
$T522909 = 8						; size = 4
_iClassType$ = 8					; size = 4
_value$523089 = 12					; size = 4
_rkEquipMedal$ = 12					; size = 4
?SetEquipMedal@UserInfoCharData@@QAEXHAAV?$vector@HV?$allocator@H@std@@@std@@@Z PROC ; UserInfoCharData::SetEquipMedal, COMDAT
; _this$ = ecx

; 126  : {

  00000	55		 push	 ebp
  00001	8b ec		 mov	 ebp, esp
  00003	51		 push	 ecx
  00004	51		 push	 ecx
  00005	53		 push	 ebx
  00006	56		 push	 esi
  00007	8b f1		 mov	 esi, ecx

; 127  : 	CharInfoDataVec::iterator iter = m_CharDataList.begin();

  00009	8b 5e 04	 mov	 ebx, DWORD PTR [esi+4]
  0000c	eb 1a		 jmp	 SHORT $LN119@SetEquipMe

; 128  : 	for(;iter != m_CharDataList.end();++iter)

$LL19@SetEquipMe:

; 129  : 	{
; 130  : 		CharInfoData &rkData = *iter;
; 131  : 		if( rkData.m_CharInfo.m_class_type == iClassType )

  0000e	8d 45 fc	 lea	 eax, DWORD PTR _value$522846[ebp]
  00011	50		 push	 eax
  00012	8d 4b 08	 lea	 ecx, DWORD PTR [ebx+8]
  00015	e8 00 00 00 00	 call	 ?DecryptValueToPool@?$CEncrypt@H@@QAEXPAH@Z ; CEncrypt<int>::DecryptValueToPool
  0001a	8b 45 fc	 mov	 eax, DWORD PTR _value$522846[ebp]
  0001d	3b 45 08	 cmp	 eax, DWORD PTR _iClassType$[ebp]
  00020	74 10		 je	 SHORT $LN116@SetEquipMe

; 128  : 	for(;iter != m_CharDataList.end();++iter)

  00022	81 c3 c0 03 00
	00		 add	 ebx, 960		; 000003c0H
$LN119@SetEquipMe:
  00028	3b 5e 08	 cmp	 ebx, DWORD PTR [esi+8]
  0002b	75 e1		 jne	 SHORT $LL19@SetEquipMe

; 129  : 	{
; 130  : 		CharInfoData &rkData = *iter;
; 131  : 		if( rkData.m_CharInfo.m_class_type == iClassType )

  0002d	e9 9b 00 00 00	 jmp	 $LN113@SetEquipMe
$LN116@SetEquipMe:

; 132  : 		{
; 133  : 			rkData.m_EquipMedalItem.clear();

  00032	8b 83 84 03 00
	00		 mov	 eax, DWORD PTR [ebx+900]
  00038	8b 8b 80 03 00
	00		 mov	 ecx, DWORD PTR [ebx+896]
  0003e	57		 push	 edi
  0003f	50		 push	 eax
  00040	51		 push	 ecx
  00041	8d 45 08	 lea	 eax, DWORD PTR $T522909[ebp]
  00044	50		 push	 eax
  00045	8d 8b 80 03 00
	00		 lea	 ecx, DWORD PTR [ebx+896]
  0004b	e8 00 00 00 00	 call	 ?erase@?$vector@HV?$allocator@H@std@@@std@@QAE?AV?$_Vector_iterator@V?$_Vector_val@HV?$allocator@H@std@@@std@@@2@V?$_Vector_const_iterator@V?$_Vector_val@HV?$allocator@H@std@@@std@@@2@0@Z ; std::vector<int,std::allocator<int> >::erase

; 134  : 			if( !rkEquipMedal.empty() )

  00050	8b 7d 0c	 mov	 edi, DWORD PTR _rkEquipMedal$[ebp]
  00053	8b 0f		 mov	 ecx, DWORD PTR [edi]
  00055	8b 47 04	 mov	 eax, DWORD PTR [edi+4]
  00058	3b c8		 cmp	 ecx, eax
  0005a	74 29		 je	 SHORT $LN87@SetEquipMe

; 135  : 			{
; 136  : 				rkData.m_EquipMedalItem.resize( rkEquipMedal.size() );

  0005c	2b c1		 sub	 eax, ecx
  0005e	c1 f8 02	 sar	 eax, 2
  00061	50		 push	 eax
  00062	8d 8b 80 03 00
	00		 lea	 ecx, DWORD PTR [ebx+896]
  00068	e8 00 00 00 00	 call	 ?resize@?$vector@HV?$allocator@H@std@@@std@@QAEXI@Z ; std::vector<int,std::allocator<int> >::resize

; 137  : 				std::copy( rkEquipMedal.begin(), rkEquipMedal.end(), rkData.m_EquipMedalItem.begin() );

  0006d	ff 75 08	 push	 DWORD PTR __Cat$523078[ebp]
  00070	8b 47 04	 mov	 eax, DWORD PTR [edi+4]
  00073	ff b3 80 03 00
	00		 push	 DWORD PTR [ebx+896]
  00079	8b 3f		 mov	 edi, DWORD PTR [edi]
  0007b	50		 push	 eax
  0007c	57		 push	 edi
  0007d	e8 00 00 00 00	 call	 ??$_Copy_impl@PAHPAH@std@@YAPAHPAH00U_Scalar_ptr_iterator_tag@0@@Z ; std::_Copy_impl<int *,int *>
  00082	83 c4 10	 add	 esp, 16			; 00000010H
$LN87@SetEquipMe:

; 138  : 			}
; 139  : 			rkData.m_bChangeData = true;
; 140  : 			rkData.m_bSubDataSync= true;
; 141  : 
; 142  : 			if( rkData.m_CharInfo.m_class_type == m_LeaderCharData.m_CharInfo.m_class_type )

  00085	8d 45 0c	 lea	 eax, DWORD PTR _value$523089[ebp]
  00088	50		 push	 eax
  00089	8d 4e 1c	 lea	 ecx, DWORD PTR [esi+28]
  0008c	c6 83 b8 03 00
	00 01		 mov	 BYTE PTR [ebx+952], 1
  00093	c6 83 7c 03 00
	00 01		 mov	 BYTE PTR [ebx+892], 1
  0009a	e8 00 00 00 00	 call	 ?DecryptValueToPool@?$CEncrypt@H@@QAEXPAH@Z ; CEncrypt<int>::DecryptValueToPool
  0009f	8d 45 08	 lea	 eax, DWORD PTR _value$523094[ebp]
  000a2	50		 push	 eax
  000a3	8d 4b 08	 lea	 ecx, DWORD PTR [ebx+8]
  000a6	e8 00 00 00 00	 call	 ?DecryptValueToPool@?$CEncrypt@H@@QAEXPAH@Z ; CEncrypt<int>::DecryptValueToPool
  000ab	8b 45 08	 mov	 eax, DWORD PTR _value$523094[ebp]
  000ae	3b 45 0c	 cmp	 eax, DWORD PTR _value$523089[ebp]
  000b1	75 19		 jne	 SHORT $LN118@SetEquipMe

; 143  : 			{
; 144  : 				m_LeaderCharData = rkData;

  000b3	53		 push	 ebx
  000b4	8d 4e 14	 lea	 ecx, DWORD PTR [esi+20]
  000b7	e8 00 00 00 00	 call	 ??4CharInfoData@@QAEAAU0@ABU0@@Z ; CharInfoData::operator=

; 145  : 				SetLeaderMotion( m_dwLeaderMotion );

  000bc	8b 86 d4 03 00
	00		 mov	 eax, DWORD PTR [esi+980]
  000c2	89 46 14	 mov	 DWORD PTR [esi+20], eax
  000c5	c6 86 cc 03 00
	00 01		 mov	 BYTE PTR [esi+972], 1
$LN118@SetEquipMe:
  000cc	5f		 pop	 edi
$LN113@SetEquipMe:
  000cd	5e		 pop	 esi
  000ce	5b		 pop	 ebx

; 146  : 			}
; 147  : 			break;
; 148  : 		}
; 149  : 	}
; 150  : }

  000cf	c9		 leave
  000d0	c2 08 00	 ret	 8
?SetEquipMedal@UserInfoCharData@@QAEXHAAV?$vector@HV?$allocator@H@std@@@std@@@Z ENDP ; UserInfoCharData::SetEquipMedal
_TEXT	ENDS
PUBLIC	?SetCharGrowth@UserInfoCharData@@QAEXHQAH0H@Z	; UserInfoCharData::SetCharGrowth
; Function compile flags: /Ogsp
;	COMDAT ?SetCharGrowth@UserInfoCharData@@QAEXHQAH0H@Z
_TEXT	SEGMENT
_value$523192 = -4					; size = 4
_value$523200 = 8					; size = 4
_iClassType$ = 8					; size = 4
_value$523195 = 12					; size = 4
_kCharGrowth$ = 12					; size = 4
_kItemGrowth$ = 16					; size = 4
_iAwakeType$ = 20					; size = 4
?SetCharGrowth@UserInfoCharData@@QAEXHQAH0H@Z PROC	; UserInfoCharData::SetCharGrowth, COMDAT
; _this$ = ecx

; 153  : {

  00000	55		 push	 ebp
  00001	8b ec		 mov	 ebp, esp
  00003	51		 push	 ecx
  00004	56		 push	 esi
  00005	57		 push	 edi
  00006	8b f9		 mov	 edi, ecx

; 154  : 	CharInfoDataVec::iterator iter = m_CharDataList.begin();

  00008	8b 77 04	 mov	 esi, DWORD PTR [edi+4]
  0000b	eb 1a		 jmp	 SHORT $LN60@SetCharGro

; 155  : 	for(;iter != m_CharDataList.end();++iter)

$LL24@SetCharGro:

; 156  : 	{
; 157  : 		CharInfoData &rkData = *iter;
; 158  : 		if( rkData.m_CharInfo.m_class_type == iClassType )

  0000d	8d 45 fc	 lea	 eax, DWORD PTR _value$523192[ebp]
  00010	50		 push	 eax
  00011	8d 4e 08	 lea	 ecx, DWORD PTR [esi+8]
  00014	e8 00 00 00 00	 call	 ?DecryptValueToPool@?$CEncrypt@H@@QAEXPAH@Z ; CEncrypt<int>::DecryptValueToPool
  00019	8b 45 fc	 mov	 eax, DWORD PTR _value$523192[ebp]
  0001c	3b 45 08	 cmp	 eax, DWORD PTR _iClassType$[ebp]
  0001f	74 10		 je	 SHORT $LN55@SetCharGro

; 155  : 	for(;iter != m_CharDataList.end();++iter)

  00021	81 c6 c0 03 00
	00		 add	 esi, 960		; 000003c0H
$LN60@SetCharGro:
  00027	3b 77 08	 cmp	 esi, DWORD PTR [edi+8]
  0002a	75 e1		 jne	 SHORT $LL24@SetCharGro

; 156  : 	{
; 157  : 		CharInfoData &rkData = *iter;
; 158  : 		if( rkData.m_CharInfo.m_class_type == iClassType )

  0002c	e9 83 00 00 00	 jmp	 $LN50@SetCharGro
$LN55@SetCharGro:

; 159  : 		{
; 160  : 			int i = 0;
; 161  : 			for(i = 0;i < MAX_CHAR_GROWTH;i++)

  00031	6a 04		 push	 4
  00033	5a		 pop	 edx
  00034	33 c9		 xor	 ecx, ecx
  00036	8d 86 90 03 00
	00		 lea	 eax, DWORD PTR [esi+912]
  0003c	53		 push	 ebx
$LL7@SetCharGro:

; 162  : 				rkData.m_CharGrowth[i] = kCharGrowth[i];

  0003d	8b 5d 0c	 mov	 ebx, DWORD PTR _kCharGrowth$[ebp]
  00040	8b 1c 8b	 mov	 ebx, DWORD PTR [ebx+ecx*4]
  00043	89 18		 mov	 DWORD PTR [eax], ebx
  00045	41		 inc	 ecx
  00046	03 c2		 add	 eax, edx
  00048	3b ca		 cmp	 ecx, edx
  0004a	7c f1		 jl	 SHORT $LL7@SetCharGro

; 163  : 			for(i = 0;i < MAX_ITEM_GROWTH;i++)

  0004c	33 c9		 xor	 ecx, ecx
  0004e	8d 86 a0 03 00
	00		 lea	 eax, DWORD PTR [esi+928]
$LL4@SetCharGro:

; 164  : 				rkData.m_ItemGrowth[i] = kItemGrowth[i];

  00054	8b 5d 10	 mov	 ebx, DWORD PTR _kItemGrowth$[ebp]
  00057	8b 1c 8b	 mov	 ebx, DWORD PTR [ebx+ecx*4]
  0005a	89 18		 mov	 DWORD PTR [eax], ebx
  0005c	41		 inc	 ecx
  0005d	03 c2		 add	 eax, edx
  0005f	3b ca		 cmp	 ecx, edx
  00061	7c f1		 jl	 SHORT $LL4@SetCharGro

; 165  : 			rkData.m_bChangeData	= true;
; 166  : 			rkData.m_bSubDataSync	= true;
; 167  : 			rkData.m_iAwakeType		= iAwakeType;

  00063	8b 45 14	 mov	 eax, DWORD PTR _iAwakeType$[ebp]
  00066	89 86 bc 03 00
	00		 mov	 DWORD PTR [esi+956], eax

; 168  : 
; 169  : 			if( rkData.m_CharInfo.m_class_type == m_LeaderCharData.m_CharInfo.m_class_type )

  0006c	8d 45 0c	 lea	 eax, DWORD PTR _value$523195[ebp]
  0006f	50		 push	 eax
  00070	8d 4f 1c	 lea	 ecx, DWORD PTR [edi+28]
  00073	c6 86 b8 03 00
	00 01		 mov	 BYTE PTR [esi+952], 1
  0007a	c6 86 7c 03 00
	00 01		 mov	 BYTE PTR [esi+892], 1
  00081	e8 00 00 00 00	 call	 ?DecryptValueToPool@?$CEncrypt@H@@QAEXPAH@Z ; CEncrypt<int>::DecryptValueToPool
  00086	8d 45 08	 lea	 eax, DWORD PTR _value$523200[ebp]
  00089	50		 push	 eax
  0008a	8d 4e 08	 lea	 ecx, DWORD PTR [esi+8]
  0008d	e8 00 00 00 00	 call	 ?DecryptValueToPool@?$CEncrypt@H@@QAEXPAH@Z ; CEncrypt<int>::DecryptValueToPool
  00092	8b 45 08	 mov	 eax, DWORD PTR _value$523200[ebp]
  00095	3b 45 0c	 cmp	 eax, DWORD PTR _value$523195[ebp]
  00098	75 19		 jne	 SHORT $LN59@SetCharGro

; 170  : 			{
; 171  : 				m_LeaderCharData = rkData;

  0009a	56		 push	 esi
  0009b	8d 4f 14	 lea	 ecx, DWORD PTR [edi+20]
  0009e	e8 00 00 00 00	 call	 ??4CharInfoData@@QAEAAU0@ABU0@@Z ; CharInfoData::operator=

; 172  : 				SetLeaderMotion( m_dwLeaderMotion );

  000a3	8b 87 d4 03 00
	00		 mov	 eax, DWORD PTR [edi+980]
  000a9	89 47 14	 mov	 DWORD PTR [edi+20], eax
  000ac	c6 87 cc 03 00
	00 01		 mov	 BYTE PTR [edi+972], 1
$LN59@SetCharGro:
  000b3	5b		 pop	 ebx
$LN50@SetCharGro:
  000b4	5f		 pop	 edi
  000b5	5e		 pop	 esi

; 173  : 			}
; 174  : 			break;
; 175  : 		}
; 176  : 	}
; 177  : }

  000b6	c9		 leave
  000b7	c2 10 00	 ret	 16			; 00000010H
?SetCharGrowth@UserInfoCharData@@QAEXHQAH0H@Z ENDP	; UserInfoCharData::SetCharGrowth
_TEXT	ENDS
PUBLIC	?GetSlotChar@UserInfoCharData@@QAEAAUCharInfoData@@H@Z ; UserInfoCharData::GetSlotChar
EXTRN	_atexit:PROC
;	COMDAT ?kNoneData@?1??GetSlotChar@UserInfoCharData@@QAEAAUCharInfoData@@H@Z@4U3@A
; File c:\program files (x86)\microsoft visual studio 10.0\vc\include\vector
_BSS	SEGMENT
?kNoneData@?1??GetSlotChar@UserInfoCharData@@QAEAAUCharInfoData@@H@Z@4U3@A DB 03c0H DUP (?) ; `UserInfoCharData::GetSlotChar'::`2'::kNoneData
_BSS	ENDS
;	COMDAT ?$S1@?1??GetSlotChar@UserInfoCharData@@QAEAAUCharInfoData@@H@Z@4IA
_BSS	SEGMENT
?$S1@?1??GetSlotChar@UserInfoCharData@@QAEAAUCharInfoData@@H@Z@4IA DD 01H DUP (?) ; `UserInfoCharData::GetSlotChar'::`2'::$S1
_BSS	ENDS
;	COMDAT xdata$x
xdata$x	SEGMENT
__unwindtable$?GetSlotChar@UserInfoCharData@@QAEAAUCharInfoData@@H@Z DD 0ffffffffH
	DD	FLAT:__unwindfunclet$?GetSlotChar@UserInfoCharData@@QAEAAUCharInfoData@@H@Z$0
__ehfuncinfo$?GetSlotChar@UserInfoCharData@@QAEAAUCharInfoData@@H@Z DD 019930522H
	DD	01H
	DD	FLAT:__unwindtable$?GetSlotChar@UserInfoCharData@@QAEAAUCharInfoData@@H@Z
	DD	2 DUP(00H)
	DD	2 DUP(00H)
	DD	00H
	DD	01H
; Function compile flags: /Ogsp
; File d:\lost saga for developer\youtube\tutorial\source\src\lsclient\gui\iouserinfomgr.cpp
xdata$x	ENDS
;	COMDAT ?GetSlotChar@UserInfoCharData@@QAEAAUCharInfoData@@H@Z
_TEXT	SEGMENT
__$EHRec$ = -12						; size = 12
_iListArray$ = 8					; size = 4
?GetSlotChar@UserInfoCharData@@QAEAAUCharInfoData@@H@Z PROC ; UserInfoCharData::GetSlotChar, COMDAT
; _this$ = ecx

; 254  : {

  00000	6a 00		 push	 0
  00002	b8 00 00 00 00	 mov	 eax, __ehhandler$?GetSlotChar@UserInfoCharData@@QAEAAUCharInfoData@@H@Z
  00007	e8 00 00 00 00	 call	 __EH_prolog3
  0000c	8b f1		 mov	 esi, ecx

; 255  : 	static CharInfoData kNoneData;

  0000e	f6 05 00 00 00
	00 01		 test	 BYTE PTR ?$S1@?1??GetSlotChar@UserInfoCharData@@QAEAAUCharInfoData@@H@Z@4IA, 1
  00015	bf 00 00 00 00	 mov	 edi, OFFSET ?kNoneData@?1??GetSlotChar@UserInfoCharData@@QAEAAUCharInfoData@@H@Z@4U3@A
  0001a	75 1d		 jne	 SHORT $LN3@GetSlotCha
  0001c	83 0d 00 00 00
	00 01		 or	 DWORD PTR ?$S1@?1??GetSlotChar@UserInfoCharData@@QAEAAUCharInfoData@@H@Z@4IA, 1
  00023	83 65 fc 00	 and	 DWORD PTR __$EHRec$[ebp+8], 0
  00027	8b cf		 mov	 ecx, edi
  00029	e8 00 00 00 00	 call	 ??0CharInfoData@@QAE@XZ	; CharInfoData::CharInfoData
  0002e	68 00 00 00 00	 push	 OFFSET ??__FkNoneData@?1??GetSlotChar@UserInfoCharData@@QAEAAUCharInfoData@@H@Z@YAXXZ ; `UserInfoCharData::GetSlotChar'::`2'::`dynamic atexit destructor for 'kNoneData''
  00033	e8 00 00 00 00	 call	 _atexit
  00038	59		 pop	 ecx
$LN3@GetSlotCha:

; 256  : 	if( !COMPARE( iListArray, 0, (int)m_CharDataList.size() ) ) return kNoneData;

  00039	83 7d 08 00	 cmp	 DWORD PTR _iListArray$[ebp], 0
  0003d	7c 21		 jl	 SHORT $LN1@GetSlotCha
  0003f	8b 46 08	 mov	 eax, DWORD PTR [esi+8]
  00042	2b 46 04	 sub	 eax, DWORD PTR [esi+4]
  00045	b9 c0 03 00 00	 mov	 ecx, 960		; 000003c0H
  0004a	99		 cdq
  0004b	f7 f9		 idiv	 ecx
  0004d	39 45 08	 cmp	 DWORD PTR _iListArray$[ebp], eax
  00050	7d 0e		 jge	 SHORT $LN1@GetSlotCha

; 257  : 
; 258  : 	return m_CharDataList[iListArray];

  00052	8b 45 08	 mov	 eax, DWORD PTR _iListArray$[ebp]
  00055	69 c0 c0 03 00
	00		 imul	 eax, 960		; 000003c0H
  0005b	03 46 04	 add	 eax, DWORD PTR [esi+4]
  0005e	eb 02		 jmp	 SHORT $LN4@GetSlotCha
$LN1@GetSlotCha:

; 256  : 	if( !COMPARE( iListArray, 0, (int)m_CharDataList.size() ) ) return kNoneData;

  00060	8b c7		 mov	 eax, edi
$LN4@GetSlotCha:

; 259  : }

  00062	e8 00 00 00 00	 call	 __EH_epilog3
  00067	c2 04 00	 ret	 4
_TEXT	ENDS
;	COMDAT text$x
text$x	SEGMENT
__unwindfunclet$?GetSlotChar@UserInfoCharData@@QAEAAUCharInfoData@@H@Z$0:
  00000	a1 00 00 00 00	 mov	 eax, DWORD PTR ?$S1@?1??GetSlotChar@UserInfoCharData@@QAEAAUCharInfoData@@H@Z@4IA
  00005	83 e0 fe	 and	 eax, -2			; fffffffeH
  00008	a3 00 00 00 00	 mov	 DWORD PTR ?$S1@?1??GetSlotChar@UserInfoCharData@@QAEAAUCharInfoData@@H@Z@4IA, eax
  0000d	c3		 ret	 0
__ehhandler$?GetSlotChar@UserInfoCharData@@QAEAAUCharInfoData@@H@Z:
  0000e	8b 54 24 08	 mov	 edx, DWORD PTR [esp+8]
  00012	8d 42 0c	 lea	 eax, DWORD PTR [edx+12]
  00015	8b 4a f0	 mov	 ecx, DWORD PTR [edx-16]
  00018	33 c8		 xor	 ecx, eax
  0001a	e8 00 00 00 00	 call	 @__security_check_cookie@4
  0001f	b8 00 00 00 00	 mov	 eax, OFFSET __ehfuncinfo$?GetSlotChar@UserInfoCharData@@QAEAAUCharInfoData@@H@Z
  00024	e9 00 00 00 00	 jmp	 ___CxxFrameHandler3
text$x	ENDS
?GetSlotChar@UserInfoCharData@@QAEAAUCharInfoData@@H@Z ENDP ; UserInfoCharData::GetSlotChar
PUBLIC	?GetSlotCharToClassType@UserInfoCharData@@QAEAAUCharInfoData@@H@Z ; UserInfoCharData::GetSlotCharToClassType
;	COMDAT ?kNoneData@?6??GetSlotCharToClassType@UserInfoCharData@@QAEAAUCharInfoData@@H@Z@4U3@A
; File d:\lost saga for developer\youtube\tutorial\source\src\lsclient\encryptvalue.h
_BSS	SEGMENT
?kNoneData@?6??GetSlotCharToClassType@UserInfoCharData@@QAEAAUCharInfoData@@H@Z@4U3@A DB 03c0H DUP (?) ; `UserInfoCharData::GetSlotCharToClassType'::`7'::kNoneData
_BSS	ENDS
;	COMDAT ?$S2@?6??GetSlotCharToClassType@UserInfoCharData@@QAEAAUCharInfoData@@H@Z@4IA
_BSS	SEGMENT
?$S2@?6??GetSlotCharToClassType@UserInfoCharData@@QAEAAUCharInfoData@@H@Z@4IA DD 01H DUP (?) ; `UserInfoCharData::GetSlotCharToClassType'::`7'::$S2
_BSS	ENDS
;	COMDAT xdata$x
xdata$x	SEGMENT
__unwindtable$?GetSlotCharToClassType@UserInfoCharData@@QAEAAUCharInfoData@@H@Z DD 0ffffffffH
	DD	FLAT:__unwindfunclet$?GetSlotCharToClassType@UserInfoCharData@@QAEAAUCharInfoData@@H@Z$0
__ehfuncinfo$?GetSlotCharToClassType@UserInfoCharData@@QAEAAUCharInfoData@@H@Z DD 019930522H
	DD	01H
	DD	FLAT:__unwindtable$?GetSlotCharToClassType@UserInfoCharData@@QAEAAUCharInfoData@@H@Z
	DD	2 DUP(00H)
	DD	2 DUP(00H)
	DD	00H
	DD	01H
; Function compile flags: /Ogsp
; File d:\lost saga for developer\youtube\tutorial\source\src\lsclient\gui\iouserinfomgr.cpp
xdata$x	ENDS
;	COMDAT ?GetSlotCharToClassType@UserInfoCharData@@QAEAAUCharInfoData@@H@Z
_TEXT	SEGMENT
_value$523318 = -16					; size = 4
__$EHRec$ = -12						; size = 12
_iClassType$ = 8					; size = 4
?GetSlotCharToClassType@UserInfoCharData@@QAEAAUCharInfoData@@H@Z PROC ; UserInfoCharData::GetSlotCharToClassType, COMDAT
; _this$ = ecx

; 262  : {

  00000	6a 04		 push	 4
  00002	b8 00 00 00 00	 mov	 eax, __ehhandler$?GetSlotCharToClassType@UserInfoCharData@@QAEAAUCharInfoData@@H@Z
  00007	e8 00 00 00 00	 call	 __EH_prolog3
  0000c	8b f1		 mov	 esi, ecx

; 263  : 	CharInfoDataVec::iterator iter = m_CharDataList.begin();

  0000e	8b 7e 04	 mov	 edi, DWORD PTR [esi+4]
  00011	eb 1a		 jmp	 SHORT $LN45@GetSlotCha@2

; 264  : 	for(;iter != m_CharDataList.end();++iter)

$LL19@GetSlotCha@2:

; 265  : 	{
; 266  : 		CharInfoData &rkData = *iter;
; 267  : 		if( rkData.m_CharInfo.m_class_type == iClassType )

  00013	8d 45 f0	 lea	 eax, DWORD PTR _value$523318[ebp]
  00016	50		 push	 eax
  00017	8d 4f 08	 lea	 ecx, DWORD PTR [edi+8]
  0001a	e8 00 00 00 00	 call	 ?DecryptValueToPool@?$CEncrypt@H@@QAEXPAH@Z ; CEncrypt<int>::DecryptValueToPool
  0001f	8b 45 f0	 mov	 eax, DWORD PTR _value$523318[ebp]
  00022	3b 45 08	 cmp	 eax, DWORD PTR _iClassType$[ebp]
  00025	74 40		 je	 SHORT $LN42@GetSlotCha@2

; 264  : 	for(;iter != m_CharDataList.end();++iter)

  00027	81 c7 c0 03 00
	00		 add	 edi, 960		; 000003c0H
$LN45@GetSlotCha@2:
  0002d	3b 7e 08	 cmp	 edi, DWORD PTR [esi+8]
  00030	75 e1		 jne	 SHORT $LL19@GetSlotCha@2

; 270  : 		}
; 271  : 	}
; 272  : 
; 273  : 	static CharInfoData kNoneData;

  00032	f6 05 00 00 00
	00 01		 test	 BYTE PTR ?$S2@?6??GetSlotCharToClassType@UserInfoCharData@@QAEAAUCharInfoData@@H@Z@4IA, 1
  00039	be 00 00 00 00	 mov	 esi, OFFSET ?kNoneData@?6??GetSlotCharToClassType@UserInfoCharData@@QAEAAUCharInfoData@@H@Z@4U3@A
  0003e	75 1d		 jne	 SHORT $LN1@GetSlotCha@2
  00040	83 0d 00 00 00
	00 01		 or	 DWORD PTR ?$S2@?6??GetSlotCharToClassType@UserInfoCharData@@QAEAAUCharInfoData@@H@Z@4IA, 1
  00047	83 65 fc 00	 and	 DWORD PTR __$EHRec$[ebp+8], 0
  0004b	8b ce		 mov	 ecx, esi
  0004d	e8 00 00 00 00	 call	 ??0CharInfoData@@QAE@XZ	; CharInfoData::CharInfoData
  00052	68 00 00 00 00	 push	 OFFSET ??__FkNoneData@?6??GetSlotCharToClassType@UserInfoCharData@@QAEAAUCharInfoData@@H@Z@YAXXZ ; `UserInfoCharData::GetSlotCharToClassType'::`7'::`dynamic atexit destructor for 'kNoneData''
  00057	e8 00 00 00 00	 call	 _atexit
  0005c	59		 pop	 ecx
$LN1@GetSlotCha@2:

; 274  : 	return kNoneData;

  0005d	8b c6		 mov	 eax, esi
$LN6@GetSlotCha@2:

; 275  : }

  0005f	e8 00 00 00 00	 call	 __EH_epilog3
  00064	c2 04 00	 ret	 4
$LN42@GetSlotCha@2:

; 268  : 		{
; 269  : 			return rkData;

  00067	8b c7		 mov	 eax, edi
  00069	eb f4		 jmp	 SHORT $LN6@GetSlotCha@2
_TEXT	ENDS
;	COMDAT text$x
text$x	SEGMENT
__unwindfunclet$?GetSlotCharToClassType@UserInfoCharData@@QAEAAUCharInfoData@@H@Z$0:
  00000	a1 00 00 00 00	 mov	 eax, DWORD PTR ?$S2@?6??GetSlotCharToClassType@UserInfoCharData@@QAEAAUCharInfoData@@H@Z@4IA
  00005	83 e0 fe	 and	 eax, -2			; fffffffeH
  00008	a3 00 00 00 00	 mov	 DWORD PTR ?$S2@?6??GetSlotCharToClassType@UserInfoCharData@@QAEAAUCharInfoData@@H@Z@4IA, eax
  0000d	c3		 ret	 0
__ehhandler$?GetSlotCharToClassType@UserInfoCharData@@QAEAAUCharInfoData@@H@Z:
  0000e	8b 54 24 08	 mov	 edx, DWORD PTR [esp+8]
  00012	8d 42 0c	 lea	 eax, DWORD PTR [edx+12]
  00015	8b 4a ec	 mov	 ecx, DWORD PTR [edx-20]
  00018	33 c8		 xor	 ecx, eax
  0001a	e8 00 00 00 00	 call	 @__security_check_cookie@4
  0001f	b8 00 00 00 00	 mov	 eax, OFFSET __ehfuncinfo$?GetSlotCharToClassType@UserInfoCharData@@QAEAAUCharInfoData@@H@Z
  00024	e9 00 00 00 00	 jmp	 ___CxxFrameHandler3
text$x	ENDS
?GetSlotCharToClassType@UserInfoCharData@@QAEAAUCharInfoData@@H@Z ENDP ; UserInfoCharData::GetSlotCharToClassType
PUBLIC	_this$GSCopy$
PUBLIC	?ApplyCharSubData@UserInfoCharData@@QAEXABVioHashString@@AAVSP2Packet@@@Z ; UserInfoCharData::ApplyCharSubData
EXTRN	??5SP2Packet@@QAEAAV0@AAE@Z:PROC		; SP2Packet::operator>>
EXTRN	??5SP2Packet@@QAEAAV0@AAH@Z:PROC		; SP2Packet::operator>>
EXTRN	__EH_epilog3_GS:PROC
EXTRN	__EH_prolog3_GS:PROC
;	COMDAT xdata$x
; File c:\program files (x86)\microsoft visual studio 10.0\vc\include\vector
xdata$x	SEGMENT
__unwindtable$?ApplyCharSubData@UserInfoCharData@@QAEXABVioHashString@@AAVSP2Packet@@@Z DD 0ffffffffH
	DD	FLAT:__unwindfunclet$?ApplyCharSubData@UserInfoCharData@@QAEXABVioHashString@@AAVSP2Packet@@@Z$0
__ehfuncinfo$?ApplyCharSubData@UserInfoCharData@@QAEXABVioHashString@@AAVSP2Packet@@@Z DD 019930522H
	DD	01H
	DD	FLAT:__unwindtable$?ApplyCharSubData@UserInfoCharData@@QAEXABVioHashString@@AAVSP2Packet@@@Z
	DD	2 DUP(00H)
	DD	2 DUP(00H)
	DD	00H
	DD	01H
; Function compile flags: /Ogsp
; File d:\lost saga for developer\youtube\tutorial\source\src\lsclient\gui\iouserinfomgr.cpp
xdata$x	ENDS
;	COMDAT ?ApplyCharSubData@UserInfoCharData@@QAEXABVioHashString@@AAVSP2Packet@@@Z
_TEXT	SEGMENT
_kMedalList$ = -84					; size = 16
_this$GSCopy$ = -68					; size = 4
_iMaxMedal$ = -64					; size = 4
_iClassType$ = -60					; size = 4
_eAwakeType$ = -53					; size = 1
tv172 = -52						; size = 4
tv137 = -52						; size = 4
_iMedalCode$514036 = -52				; size = 4
_kCharGrowth$ = -48					; size = 16
_kItemGrowth$ = -32					; size = 16
__$EHRec$ = -12						; size = 12
_rkUserName$ = 8					; size = 4
_rkPacket$ = 12						; size = 4
?ApplyCharSubData@UserInfoCharData@@QAEXABVioHashString@@AAVSP2Packet@@@Z PROC ; UserInfoCharData::ApplyCharSubData, COMDAT
; _this$ = ecx

; 418  : {

  00000	6a 48		 push	 72			; 00000048H
  00002	b8 00 00 00 00	 mov	 eax, __ehhandler$?ApplyCharSubData@UserInfoCharData@@QAEXABVioHashString@@AAVSP2Packet@@@Z
  00007	e8 00 00 00 00	 call	 __EH_prolog3_GS
  0000c	8b 75 0c	 mov	 esi, DWORD PTR _rkPacket$[ebp]

; 419  : 	int iClassType;
; 420  : 	rkPacket >> iClassType;

  0000f	8d 45 c4	 lea	 eax, DWORD PTR _iClassType$[ebp]
  00012	89 4d bc	 mov	 DWORD PTR _this$GSCopy$[ebp], ecx
  00015	50		 push	 eax
  00016	8b ce		 mov	 ecx, esi
  00018	e8 00 00 00 00	 call	 ??5SP2Packet@@QAEAAV0@AAH@Z ; SP2Packet::operator>>

; 421  : 
; 422  : 	
; 423  : 	// 성장 정보
; 424  : 	int kCharGrowth[MAX_CHAR_GROWTH];
; 425  : 	for(int i = 0; i < MAX_CHAR_GROWTH; i++ )

  0001d	6a 04		 push	 4
  0001f	5b		 pop	 ebx

; 426  : 		rkPacket >> kCharGrowth[i];

  00020	8d 7d d0	 lea	 edi, DWORD PTR _kCharGrowth$[ebp]
  00023	89 5d cc	 mov	 DWORD PTR tv137[ebp], ebx
$LL9@ApplyCharS:
  00026	57		 push	 edi
  00027	8b ce		 mov	 ecx, esi
  00029	e8 00 00 00 00	 call	 ??5SP2Packet@@QAEAAV0@AAH@Z ; SP2Packet::operator>>
  0002e	03 fb		 add	 edi, ebx
  00030	ff 4d cc	 dec	 DWORD PTR tv137[ebp]
  00033	75 f1		 jne	 SHORT $LL9@ApplyCharS

; 427  : 
; 428  : 	int kItemGrowth[MAX_ITEM_GROWTH];
; 429  : 	for( int i = 0; i < MAX_ITEM_GROWTH; i++ )

  00035	8d 7d e0	 lea	 edi, DWORD PTR _kItemGrowth$[ebp]
  00038	89 5d cc	 mov	 DWORD PTR tv172[ebp], ebx
$LL6@ApplyCharS:

; 430  : 		rkPacket >> kItemGrowth[i];

  0003b	57		 push	 edi
  0003c	8b ce		 mov	 ecx, esi
  0003e	e8 00 00 00 00	 call	 ??5SP2Packet@@QAEAAV0@AAH@Z ; SP2Packet::operator>>
  00043	03 fb		 add	 edi, ebx
  00045	ff 4d cc	 dec	 DWORD PTR tv172[ebp]
  00048	75 f1		 jne	 SHORT $LL6@ApplyCharS

; 431  : 	
; 432  : 	//각성 정보
; 433  : 	byte eAwakeType;
; 434  : 	rkPacket >> eAwakeType;

  0004a	8d 45 cb	 lea	 eax, DWORD PTR _eAwakeType$[ebp]
  0004d	50		 push	 eax
  0004e	8b ce		 mov	 ecx, esi
  00050	e8 00 00 00 00	 call	 ??5SP2Packet@@QAEAAV0@AAE@Z ; SP2Packet::operator>>

; 435  : 
; 436  : 	SetCharGrowth( iClassType, kCharGrowth, kItemGrowth, eAwakeType );

  00055	0f b6 45 cb	 movzx	 eax, BYTE PTR _eAwakeType$[ebp]
  00059	8b 4d bc	 mov	 ecx, DWORD PTR _this$GSCopy$[ebp]
  0005c	50		 push	 eax
  0005d	8d 45 e0	 lea	 eax, DWORD PTR _kItemGrowth$[ebp]
  00060	50		 push	 eax
  00061	8d 45 d0	 lea	 eax, DWORD PTR _kCharGrowth$[ebp]
  00064	50		 push	 eax
  00065	ff 75 c4	 push	 DWORD PTR _iClassType$[ebp]
  00068	e8 00 00 00 00	 call	 ?SetCharGrowth@UserInfoCharData@@QAEXHQAH0H@Z ; UserInfoCharData::SetCharGrowth

; 437  : 
; 438  : 	// 메달 정보
; 439  : 	IntVec kMedalList;

  0006d	33 ff		 xor	 edi, edi
  0006f	89 7d ac	 mov	 DWORD PTR _kMedalList$[ebp], edi
  00072	89 7d b0	 mov	 DWORD PTR _kMedalList$[ebp+4], edi
  00075	89 7d b4	 mov	 DWORD PTR _kMedalList$[ebp+8], edi

; 440  : 	int iMaxMedal;
; 441  : 	rkPacket >> iMaxMedal;

  00078	8d 45 c0	 lea	 eax, DWORD PTR _iMaxMedal$[ebp]
  0007b	50		 push	 eax
  0007c	8b ce		 mov	 ecx, esi
  0007e	89 7d fc	 mov	 DWORD PTR __$EHRec$[ebp+8], edi
  00081	e8 00 00 00 00	 call	 ??5SP2Packet@@QAEAAV0@AAH@Z ; SP2Packet::operator>>

; 442  : 	for( int i = 0; i < iMaxMedal; ++i )

  00086	39 7d c0	 cmp	 DWORD PTR _iMaxMedal$[ebp], edi
  00089	7e 1d		 jle	 SHORT $LN1@ApplyCharS
$LL3@ApplyCharS:

; 443  : 	{
; 444  : 		int iMedalCode;
; 445  : 		rkPacket >> iMedalCode;

  0008b	8d 45 cc	 lea	 eax, DWORD PTR _iMedalCode$514036[ebp]
  0008e	50		 push	 eax
  0008f	8b ce		 mov	 ecx, esi
  00091	e8 00 00 00 00	 call	 ??5SP2Packet@@QAEAAV0@AAH@Z ; SP2Packet::operator>>

; 446  : 		kMedalList.push_back( iMedalCode );

  00096	8d 45 cc	 lea	 eax, DWORD PTR _iMedalCode$514036[ebp]
  00099	50		 push	 eax
  0009a	8d 4d ac	 lea	 ecx, DWORD PTR _kMedalList$[ebp]
  0009d	e8 00 00 00 00	 call	 ?push_back@?$vector@HV?$allocator@H@std@@@std@@QAEXABH@Z ; std::vector<int,std::allocator<int> >::push_back
  000a2	47		 inc	 edi
  000a3	3b 7d c0	 cmp	 edi, DWORD PTR _iMaxMedal$[ebp]
  000a6	7c e3		 jl	 SHORT $LL3@ApplyCharS
$LN1@ApplyCharS:

; 447  : 	}
; 448  : 	SetEquipMedal( iClassType, kMedalList );

  000a8	8b 4d bc	 mov	 ecx, DWORD PTR _this$GSCopy$[ebp]
  000ab	8d 45 ac	 lea	 eax, DWORD PTR _kMedalList$[ebp]
  000ae	50		 push	 eax
  000af	ff 75 c4	 push	 DWORD PTR _iClassType$[ebp]
  000b2	e8 00 00 00 00	 call	 ?SetEquipMedal@UserInfoCharData@@QAEXHAAV?$vector@HV?$allocator@H@std@@@std@@@Z ; UserInfoCharData::SetEquipMedal

; 449  : }

  000b7	83 4d fc ff	 or	 DWORD PTR __$EHRec$[ebp+8], -1
  000bb	8d 4d ac	 lea	 ecx, DWORD PTR _kMedalList$[ebp]
  000be	e8 00 00 00 00	 call	 ?_Tidy@?$vector@HV?$allocator@H@std@@@std@@IAEXXZ ; std::vector<int,std::allocator<int> >::_Tidy
  000c3	e8 00 00 00 00	 call	 __EH_epilog3_GS
  000c8	c2 08 00	 ret	 8
_TEXT	ENDS
;	COMDAT text$x
text$x	SEGMENT
__unwindfunclet$?ApplyCharSubData@UserInfoCharData@@QAEXABVioHashString@@AAVSP2Packet@@@Z$0:
  00000	8d 4d ac	 lea	 ecx, DWORD PTR _kMedalList$[ebp]
  00003	e9 00 00 00 00	 jmp	 ??1?$vector@HV?$allocator@H@std@@@std@@QAE@XZ ; std::vector<int,std::allocator<int> >::~vector<int,std::allocator<int> >
__ehhandler$?ApplyCharSubData@UserInfoCharData@@QAEXABVioHashString@@AAVSP2Packet@@@Z:
  00008	8b 54 24 08	 mov	 edx, DWORD PTR [esp+8]
  0000c	8d 42 0c	 lea	 eax, DWORD PTR [edx+12]
  0000f	8b 4a a8	 mov	 ecx, DWORD PTR [edx-88]
  00012	33 c8		 xor	 ecx, eax
  00014	e8 00 00 00 00	 call	 @__security_check_cookie@4
  00019	8b 4a fc	 mov	 ecx, DWORD PTR [edx-4]
  0001c	33 c8		 xor	 ecx, eax
  0001e	e8 00 00 00 00	 call	 @__security_check_cookie@4
  00023	b8 00 00 00 00	 mov	 eax, OFFSET __ehfuncinfo$?ApplyCharSubData@UserInfoCharData@@QAEXABVioHashString@@AAVSP2Packet@@@Z
  00028	e9 00 00 00 00	 jmp	 ___CxxFrameHandler3
text$x	ENDS
?ApplyCharSubData@UserInfoCharData@@QAEXABVioHashString@@AAVSP2Packet@@@Z ENDP ; UserInfoCharData::ApplyCharSubData
PUBLIC	?SetEquipCostume@UserInfoCharData@@QAEXHQBUtagCostumeEquipInfo@@@Z ; UserInfoCharData::SetEquipCostume
; Function compile flags: /Ogsp
;	COMDAT ?SetEquipCostume@UserInfoCharData@@QAEXHQBUtagCostumeEquipInfo@@@Z
_TEXT	SEGMENT
_this$ = -8						; size = 4
_value$523469 = -4					; size = 4
_value$523477 = 8					; size = 4
_iClassType$ = 8					; size = 4
_value$523473 = 12					; size = 4
_kEquipCostume$ = 12					; size = 4
?SetEquipCostume@UserInfoCharData@@QAEXHQBUtagCostumeEquipInfo@@@Z PROC ; UserInfoCharData::SetEquipCostume, COMDAT
; _this$ = ecx

; 452  : {

  00000	55		 push	 ebp
  00001	8b ec		 mov	 ebp, esp
  00003	51		 push	 ecx
  00004	51		 push	 ecx
  00005	53		 push	 ebx
  00006	56		 push	 esi
  00007	8b f1		 mov	 esi, ecx

; 453  : 	CharInfoDataVec::iterator iter = m_CharDataList.begin();

  00009	8b 5e 04	 mov	 ebx, DWORD PTR [esi+4]
  0000c	89 75 f8	 mov	 DWORD PTR _this$[ebp], esi
  0000f	eb 1a		 jmp	 SHORT $LN55@SetEquipCo@2

; 454  : 	for( ; iter!=m_CharDataList.end(); ++iter )

$LL21@SetEquipCo@2:

; 455  : 	{
; 456  : 		CharInfoData &rkData = *iter;
; 457  : 		if( rkData.m_CharInfo.m_class_type == iClassType )

  00011	8d 45 fc	 lea	 eax, DWORD PTR _value$523469[ebp]
  00014	50		 push	 eax
  00015	8d 4b 08	 lea	 ecx, DWORD PTR [ebx+8]
  00018	e8 00 00 00 00	 call	 ?DecryptValueToPool@?$CEncrypt@H@@QAEXPAH@Z ; CEncrypt<int>::DecryptValueToPool
  0001d	8b 45 fc	 mov	 eax, DWORD PTR _value$523469[ebp]
  00020	3b 45 08	 cmp	 eax, DWORD PTR _iClassType$[ebp]
  00023	74 0d		 je	 SHORT $LN51@SetEquipCo@2

; 454  : 	for( ; iter!=m_CharDataList.end(); ++iter )

  00025	81 c3 c0 03 00
	00		 add	 ebx, 960		; 000003c0H
$LN55@SetEquipCo@2:
  0002b	3b 5e 08	 cmp	 ebx, DWORD PTR [esi+8]
  0002e	75 e1		 jne	 SHORT $LL21@SetEquipCo@2

; 455  : 	{
; 456  : 		CharInfoData &rkData = *iter;
; 457  : 		if( rkData.m_CharInfo.m_class_type == iClassType )

  00030	eb 62		 jmp	 SHORT $LN47@SetEquipCo@2
$LN51@SetEquipCo@2:

; 458  : 		{
; 459  : 			for( int i=0; i<MAX_INVENTORY; i++ )

  00032	8b 45 0c	 mov	 eax, DWORD PTR _kEquipCostume$[ebp]
  00035	6a 04		 push	 4
  00037	5a		 pop	 edx
  00038	8d 8b c8 02 00
	00		 lea	 ecx, DWORD PTR [ebx+712]
  0003e	57		 push	 edi
$LL4@SetEquipCo@2:

; 460  : 			{
; 461  : 				rkData.m_CharInfo.m_EquipCostume[i] = kEquipCostume[i];

  0003f	8b f0		 mov	 esi, eax
  00041	8b f9		 mov	 edi, ecx
  00043	a5		 movsd
  00044	a5		 movsd
  00045	a5		 movsd
  00046	83 c0 10	 add	 eax, 16			; 00000010H
  00049	83 c1 10	 add	 ecx, 16			; 00000010H
  0004c	4a		 dec	 edx
  0004d	a5		 movsd

; 462  : 				rkData.m_bChangeData = true;

  0004e	c6 83 b8 03 00
	00 01		 mov	 BYTE PTR [ebx+952], 1
  00055	75 e8		 jne	 SHORT $LL4@SetEquipCo@2

; 463  : 			}			
; 464  : 
; 465  : 			if( rkData.m_CharInfo.m_class_type == m_LeaderCharData.m_CharInfo.m_class_type )

  00057	8b 75 f8	 mov	 esi, DWORD PTR _this$[ebp]
  0005a	8d 45 0c	 lea	 eax, DWORD PTR _value$523473[ebp]
  0005d	50		 push	 eax
  0005e	8d 4e 1c	 lea	 ecx, DWORD PTR [esi+28]
  00061	e8 00 00 00 00	 call	 ?DecryptValueToPool@?$CEncrypt@H@@QAEXPAH@Z ; CEncrypt<int>::DecryptValueToPool
  00066	8d 45 08	 lea	 eax, DWORD PTR _value$523477[ebp]
  00069	50		 push	 eax
  0006a	8d 4b 08	 lea	 ecx, DWORD PTR [ebx+8]
  0006d	e8 00 00 00 00	 call	 ?DecryptValueToPool@?$CEncrypt@H@@QAEXPAH@Z ; CEncrypt<int>::DecryptValueToPool
  00072	8b 45 08	 mov	 eax, DWORD PTR _value$523477[ebp]
  00075	3b 45 0c	 cmp	 eax, DWORD PTR _value$523473[ebp]
  00078	75 19		 jne	 SHORT $LN54@SetEquipCo@2

; 466  : 			{
; 467  : 				m_LeaderCharData = rkData;

  0007a	53		 push	 ebx
  0007b	8d 4e 14	 lea	 ecx, DWORD PTR [esi+20]
  0007e	e8 00 00 00 00	 call	 ??4CharInfoData@@QAEAAU0@ABU0@@Z ; CharInfoData::operator=

; 468  : 				SetLeaderMotion( m_dwLeaderMotion );

  00083	8b 86 d4 03 00
	00		 mov	 eax, DWORD PTR [esi+980]
  00089	89 46 14	 mov	 DWORD PTR [esi+20], eax
  0008c	c6 86 cc 03 00
	00 01		 mov	 BYTE PTR [esi+972], 1
$LN54@SetEquipCo@2:
  00093	5f		 pop	 edi
$LN47@SetEquipCo@2:
  00094	5e		 pop	 esi
  00095	5b		 pop	 ebx

; 469  : 			}
; 470  : 			break;
; 471  : 		}
; 472  : 	}
; 473  : }

  00096	c9		 leave
  00097	c2 08 00	 ret	 8
?SetEquipCostume@UserInfoCharData@@QAEXHQBUtagCostumeEquipInfo@@@Z ENDP ; UserInfoCharData::SetEquipCostume
_TEXT	ENDS
PUBLIC	?CalcRCharPossessionCount@UserInfoNode@@QAEXXZ	; UserInfoNode::CalcRCharPossessionCount
EXTRN	?IsRSoldierType@ioRSoldierInfoManager@@QAE_NABUCHARACTER@@@Z:PROC ; ioRSoldierInfoManager::IsRSoldierType
EXTRN	?GetSingleton@ioRSoldierInfoManager@@SAAAV1@XZ:PROC ; ioRSoldierInfoManager::GetSingleton
; Function compile flags: /Ogsp
;	COMDAT ?CalcRCharPossessionCount@UserInfoNode@@QAEXXZ
_TEXT	SEGMENT
_i$514349 = -4						; size = 4
?CalcRCharPossessionCount@UserInfoNode@@QAEXXZ PROC	; UserInfoNode::CalcRCharPossessionCount, COMDAT
; _this$ = ecx

; 848  : {

  00000	55		 push	 ebp
  00001	8b ec		 mov	 ebp, esp
  00003	51		 push	 ecx

; 849  : 	m_iRSoldierPossessionCount = 0;
; 850  : 	UserInfoCharData &rkCharData = GetUserCharData();
; 851  : 	int iMaxChar = rkCharData.GetMaxChar();
; 852  : 	for ( int i=0; i<iMaxChar ; ++i )

  00004	83 65 fc 00	 and	 DWORD PTR _i$514349[ebp], 0
  00008	53		 push	 ebx
  00009	56		 push	 esi
  0000a	8b f1		 mov	 esi, ecx
  0000c	83 a6 c0 04 00
	00 00		 and	 DWORD PTR [esi+1216], 0
  00013	8b 9e a8 04 00
	00		 mov	 ebx, DWORD PTR [esi+1192]
  00019	57		 push	 edi
  0001a	85 db		 test	 ebx, ebx
  0001c	7e 30		 jle	 SHORT $LN2@CalcRCharP
$LL13@CalcRCharP:

; 853  : 	{
; 854  : 		const CharInfoData& rkInfo = rkCharData.GetSlotChar( i );

  0001e	ff 75 fc	 push	 DWORD PTR _i$514349[ebp]
  00021	8d 8e c8 00 00
	00		 lea	 ecx, DWORD PTR [esi+200]
  00027	e8 00 00 00 00	 call	 ?GetSlotChar@UserInfoCharData@@QAEAAUCharInfoData@@H@Z ; UserInfoCharData::GetSlotChar

; 855  : 		if ( !g_RSoldierInfoManager.IsRSoldierType( rkInfo.m_CharInfo ) )

  0002c	83 c0 08	 add	 eax, 8
  0002f	50		 push	 eax
  00030	e8 00 00 00 00	 call	 ?GetSingleton@ioRSoldierInfoManager@@SAAAV1@XZ ; ioRSoldierInfoManager::GetSingleton
  00035	8b c8		 mov	 ecx, eax
  00037	e8 00 00 00 00	 call	 ?IsRSoldierType@ioRSoldierInfoManager@@QAE_NABUCHARACTER@@@Z ; ioRSoldierInfoManager::IsRSoldierType
  0003c	84 c0		 test	 al, al
  0003e	74 06		 je	 SHORT $LN3@CalcRCharP

; 856  : 			continue;
; 857  : 		m_iRSoldierPossessionCount++;

  00040	ff 86 c0 04 00
	00		 inc	 DWORD PTR [esi+1216]
$LN3@CalcRCharP:

; 849  : 	m_iRSoldierPossessionCount = 0;
; 850  : 	UserInfoCharData &rkCharData = GetUserCharData();
; 851  : 	int iMaxChar = rkCharData.GetMaxChar();
; 852  : 	for ( int i=0; i<iMaxChar ; ++i )

  00046	ff 45 fc	 inc	 DWORD PTR _i$514349[ebp]
  00049	39 5d fc	 cmp	 DWORD PTR _i$514349[ebp], ebx
  0004c	7c d0		 jl	 SHORT $LL13@CalcRCharP
$LN2@CalcRCharP:
  0004e	5f		 pop	 edi
  0004f	5e		 pop	 esi
  00050	5b		 pop	 ebx

; 858  : 	}
; 859  : }

  00051	c9		 leave
  00052	c3		 ret	 0
?CalcRCharPossessionCount@UserInfoNode@@QAEXXZ ENDP	; UserInfoNode::CalcRCharPossessionCount
_TEXT	ENDS
PUBLIC	??$_Move@PAUCharInfoData@@PAU1@@std@@YAPAUCharInfoData@@PAU1@00U_Nonscalar_ptr_iterator_tag@0@@Z ; std::_Move<CharInfoData *,CharInfoData *>
; Function compile flags: /Ogsp
; File c:\program files (x86)\microsoft visual studio 10.0\vc\include\xutility
;	COMDAT ??$_Move@PAUCharInfoData@@PAU1@@std@@YAPAUCharInfoData@@PAU1@00U_Nonscalar_ptr_iterator_tag@0@@Z
_TEXT	SEGMENT
__First$ = 8						; size = 4
__Last$ = 12						; size = 4
__Dest$ = 16						; size = 4
___formal$ = 20						; size = 1
??$_Move@PAUCharInfoData@@PAU1@@std@@YAPAUCharInfoData@@PAU1@00U_Nonscalar_ptr_iterator_tag@0@@Z PROC ; std::_Move<CharInfoData *,CharInfoData *>, COMDAT

; 2512 : 	{	// move [_First, _Last) to [_Dest, ...), arbitrary iterators

  00000	55		 push	 ebp
  00001	8b ec		 mov	 ebp, esp
  00003	57		 push	 edi

; 2513 : 	for (; _First != _Last; ++_Dest, ++_First)

  00004	8b 7d 08	 mov	 edi, DWORD PTR __First$[ebp]
  00007	3b 7d 0c	 cmp	 edi, DWORD PTR __Last$[ebp]
  0000a	74 1a		 je	 SHORT $LN10@Move
  0000c	56		 push	 esi
  0000d	be c0 03 00 00	 mov	 esi, 960		; 000003c0H
$LL3@Move:

; 2514 : 		*_Dest = _STD move(*_First);

  00012	8b 4d 10	 mov	 ecx, DWORD PTR __Dest$[ebp]
  00015	57		 push	 edi
  00016	e8 00 00 00 00	 call	 ??4CharInfoData@@QAEAAU0@ABU0@@Z ; CharInfoData::operator=
  0001b	01 75 10	 add	 DWORD PTR __Dest$[ebp], esi
  0001e	03 fe		 add	 edi, esi
  00020	3b 7d 0c	 cmp	 edi, DWORD PTR __Last$[ebp]
  00023	75 ed		 jne	 SHORT $LL3@Move
  00025	5e		 pop	 esi
$LN10@Move:

; 2515 : 	return (_Dest);

  00026	8b 45 10	 mov	 eax, DWORD PTR __Dest$[ebp]
  00029	5f		 pop	 edi

; 2516 : 	}

  0002a	5d		 pop	 ebp
  0002b	c3		 ret	 0
??$_Move@PAUCharInfoData@@PAU1@@std@@YAPAUCharInfoData@@PAU1@00U_Nonscalar_ptr_iterator_tag@0@@Z ENDP ; std::_Move<CharInfoData *,CharInfoData *>
_TEXT	ENDS
PUBLIC	??0CharInfoData@@QAE@ABU0@@Z			; CharInfoData::CharInfoData
;	COMDAT xdata$x
xdata$x	SEGMENT
__unwindtable$??0CharInfoData@@QAE@ABU0@@Z DD 0ffffffffH
	DD	FLAT:__unwindfunclet$??0CharInfoData@@QAE@ABU0@@Z$0
__ehfuncinfo$??0CharInfoData@@QAE@ABU0@@Z DD 019930522H
	DD	01H
	DD	FLAT:__unwindtable$??0CharInfoData@@QAE@ABU0@@Z
	DD	2 DUP(00H)
	DD	2 DUP(00H)
	DD	00H
	DD	01H
; Function compile flags: /Ogsp
xdata$x	ENDS
;	COMDAT ??0CharInfoData@@QAE@ABU0@@Z
_TEXT	SEGMENT
_this$ = -16						; size = 4
__$EHRec$ = -12						; size = 12
___that$ = 8						; size = 4
??0CharInfoData@@QAE@ABU0@@Z PROC			; CharInfoData::CharInfoData, COMDAT
; _this$ = ecx
  00000	6a 04		 push	 4
  00002	b8 00 00 00 00	 mov	 eax, __ehhandler$??0CharInfoData@@QAE@ABU0@@Z
  00007	e8 00 00 00 00	 call	 __EH_prolog3
  0000c	8b d9		 mov	 ebx, ecx
  0000e	89 5d f0	 mov	 DWORD PTR _this$[ebp], ebx
  00011	8b 75 08	 mov	 esi, DWORD PTR ___that$[ebp]
  00014	8b 06		 mov	 eax, DWORD PTR [esi]
  00016	89 03		 mov	 DWORD PTR [ebx], eax
  00018	8b 46 04	 mov	 eax, DWORD PTR [esi+4]
  0001b	89 43 04	 mov	 DWORD PTR [ebx+4], eax
  0001e	8d 46 08	 lea	 eax, DWORD PTR [esi+8]
  00021	50		 push	 eax
  00022	8d 4b 08	 lea	 ecx, DWORD PTR [ebx+8]
  00025	e8 00 00 00 00	 call	 ??0CHARACTER@@QAE@ABU0@@Z
  0002a	83 65 fc 00	 and	 DWORD PTR __$EHRec$[ebp+8], 0
  0002e	6a 14		 push	 20			; 00000014H
  00030	59		 pop	 ecx
  00031	81 c6 2c 03 00
	00		 add	 esi, 812		; 0000032cH
  00037	8d bb 2c 03 00
	00		 lea	 edi, DWORD PTR [ebx+812]
  0003d	f3 a5		 rep movsd
  0003f	8b 75 08	 mov	 esi, DWORD PTR ___that$[ebp]
  00042	8a 86 7c 03 00
	00		 mov	 al, BYTE PTR [esi+892]
  00048	88 83 7c 03 00
	00		 mov	 BYTE PTR [ebx+892], al
  0004e	8d 86 80 03 00
	00		 lea	 eax, DWORD PTR [esi+896]
  00054	50		 push	 eax
  00055	8d 8b 80 03 00
	00		 lea	 ecx, DWORD PTR [ebx+896]
  0005b	e8 00 00 00 00	 call	 ??0?$vector@HV?$allocator@H@std@@@std@@QAE@ABV01@@Z ; std::vector<int,std::allocator<int> >::vector<int,std::allocator<int> >
  00060	8b 45 08	 mov	 eax, DWORD PTR ___that$[ebp]
  00063	81 c6 90 03 00
	00		 add	 esi, 912		; 00000390H
  00069	8d bb 90 03 00
	00		 lea	 edi, DWORD PTR [ebx+912]
  0006f	a5		 movsd
  00070	a5		 movsd
  00071	a5		 movsd
  00072	a5		 movsd
  00073	8d b0 a0 03 00
	00		 lea	 esi, DWORD PTR [eax+928]
  00079	8d bb a0 03 00
	00		 lea	 edi, DWORD PTR [ebx+928]
  0007f	a5		 movsd
  00080	a5		 movsd
  00081	a5		 movsd
  00082	a5		 movsd
  00083	8b 88 b0 03 00
	00		 mov	 ecx, DWORD PTR [eax+944]
  00089	89 8b b0 03 00
	00		 mov	 DWORD PTR [ebx+944], ecx
  0008f	8b 88 b4 03 00
	00		 mov	 ecx, DWORD PTR [eax+948]
  00095	89 8b b4 03 00
	00		 mov	 DWORD PTR [ebx+948], ecx
  0009b	8a 88 b8 03 00
	00		 mov	 cl, BYTE PTR [eax+952]
  000a1	88 8b b8 03 00
	00		 mov	 BYTE PTR [ebx+952], cl
  000a7	8b 80 bc 03 00
	00		 mov	 eax, DWORD PTR [eax+956]
  000ad	89 83 bc 03 00
	00		 mov	 DWORD PTR [ebx+956], eax
  000b3	8b c3		 mov	 eax, ebx
  000b5	e8 00 00 00 00	 call	 __EH_epilog3
  000ba	c2 04 00	 ret	 4
_TEXT	ENDS
;	COMDAT text$x
text$x	SEGMENT
__unwindfunclet$??0CharInfoData@@QAE@ABU0@@Z$0:
  00000	8b 4d f0	 mov	 ecx, DWORD PTR _this$[ebp]
  00003	83 c1 08	 add	 ecx, 8
  00006	e9 00 00 00 00	 jmp	 ??1CHARACTER@@QAE@XZ
__ehhandler$??0CharInfoData@@QAE@ABU0@@Z:
  0000b	8b 54 24 08	 mov	 edx, DWORD PTR [esp+8]
  0000f	8d 42 0c	 lea	 eax, DWORD PTR [edx+12]
  00012	8b 4a ec	 mov	 ecx, DWORD PTR [edx-20]
  00015	33 c8		 xor	 ecx, eax
  00017	e8 00 00 00 00	 call	 @__security_check_cookie@4
  0001c	b8 00 00 00 00	 mov	 eax, OFFSET __ehfuncinfo$??0CharInfoData@@QAE@ABU0@@Z
  00021	e9 00 00 00 00	 jmp	 ___CxxFrameHandler3
text$x	ENDS
??0CharInfoData@@QAE@ABU0@@Z ENDP			; CharInfoData::CharInfoData
PUBLIC	?destroy@?$allocator@UCharInfoData@@@std@@QAEXPAUCharInfoData@@@Z ; std::allocator<CharInfoData>::destroy
; Function compile flags: /Ogsp
; File c:\program files (x86)\microsoft visual studio 10.0\vc\include\xmemory
;	COMDAT ?destroy@?$allocator@UCharInfoData@@@std@@QAEXPAUCharInfoData@@@Z
_TEXT	SEGMENT
__Ptr$ = 8						; size = 4
?destroy@?$allocator@UCharInfoData@@@std@@QAEXPAUCharInfoData@@@Z PROC ; std::allocator<CharInfoData>::destroy, COMDAT
; _this$ = ecx

; 212  : 		{	// destroy object at _Ptr

  00000	55		 push	 ebp
  00001	8b ec		 mov	 ebp, esp

; 213  : 		_Destroy(_Ptr);

  00003	8b 4d 08	 mov	 ecx, DWORD PTR __Ptr$[ebp]
  00006	e8 00 00 00 00	 call	 ??1CharInfoData@@QAE@XZ

; 214  : 		}

  0000b	5d		 pop	 ebp
  0000c	c2 04 00	 ret	 4
?destroy@?$allocator@UCharInfoData@@@std@@QAEXPAUCharInfoData@@@Z ENDP ; std::allocator<CharInfoData>::destroy
_TEXT	ENDS
PUBLIC	?construct@?$allocator@UCharInfoData@@@std@@QAEXPAUCharInfoData@@$$QAU3@@Z ; std::allocator<CharInfoData>::construct
;	COMDAT xdata$x
; File c:\program files (x86)\microsoft visual studio 10.0\vc\include\utility
xdata$x	SEGMENT
__unwindtable$?construct@?$allocator@UCharInfoData@@@std@@QAEXPAUCharInfoData@@$$QAU3@@Z DD 0ffffffffH
	DD	FLAT:__unwindfunclet$?construct@?$allocator@UCharInfoData@@@std@@QAEXPAUCharInfoData@@$$QAU3@@Z$0
__ehfuncinfo$?construct@?$allocator@UCharInfoData@@@std@@QAEXPAUCharInfoData@@$$QAU3@@Z DD 019930522H
	DD	01H
	DD	FLAT:__unwindtable$?construct@?$allocator@UCharInfoData@@@std@@QAEXPAUCharInfoData@@$$QAU3@@Z
	DD	2 DUP(00H)
	DD	2 DUP(00H)
	DD	00H
	DD	01H
; Function compile flags: /Ogsp
; File c:\program files (x86)\microsoft visual studio 10.0\vc\include\xmemory
xdata$x	ENDS
;	COMDAT ?construct@?$allocator@UCharInfoData@@@std@@QAEXPAUCharInfoData@@$$QAU3@@Z
_TEXT	SEGMENT
$T523533 = -16						; size = 4
__$EHRec$ = -12						; size = 12
__Ptr$ = 8						; size = 4
__Val$ = 12						; size = 4
?construct@?$allocator@UCharInfoData@@@std@@QAEXPAUCharInfoData@@$$QAU3@@Z PROC ; std::allocator<CharInfoData>::construct, COMDAT
; _this$ = ecx

; 201  : 		{	// construct object at _Ptr with value _Val

  00000	6a 04		 push	 4
  00002	b8 00 00 00 00	 mov	 eax, __ehhandler$?construct@?$allocator@UCharInfoData@@@std@@QAEXPAUCharInfoData@@$$QAU3@@Z
  00007	e8 00 00 00 00	 call	 __EH_prolog3

; 202  : 		::new ((void _FARQ *)_Ptr) _Ty(_STD forward<_Ty>(_Val));

  0000c	8b 4d 08	 mov	 ecx, DWORD PTR __Ptr$[ebp]
  0000f	89 4d f0	 mov	 DWORD PTR $T523533[ebp], ecx
  00012	83 65 fc 00	 and	 DWORD PTR __$EHRec$[ebp+8], 0
  00016	85 c9		 test	 ecx, ecx
  00018	74 08		 je	 SHORT $LN3@construct@5
  0001a	ff 75 0c	 push	 DWORD PTR __Val$[ebp]
  0001d	e8 00 00 00 00	 call	 ??0CharInfoData@@QAE@ABU0@@Z
$LN3@construct@5:

; 203  : 		}

  00022	e8 00 00 00 00	 call	 __EH_epilog3
  00027	c2 08 00	 ret	 8
_TEXT	ENDS
;	COMDAT text$x
text$x	SEGMENT
__unwindfunclet$?construct@?$allocator@UCharInfoData@@@std@@QAEXPAUCharInfoData@@$$QAU3@@Z$0:
  00000	ff 75 08	 push	 DWORD PTR __Ptr$[ebp]
  00003	ff 75 f0	 push	 DWORD PTR $T523533[ebp]
  00006	e8 00 00 00 00	 call	 ??3@YAXPAX0@Z		; operator delete
  0000b	59		 pop	 ecx
  0000c	59		 pop	 ecx
  0000d	c3		 ret	 0
__ehhandler$?construct@?$allocator@UCharInfoData@@@std@@QAEXPAUCharInfoData@@$$QAU3@@Z:
  0000e	8b 54 24 08	 mov	 edx, DWORD PTR [esp+8]
  00012	8d 42 0c	 lea	 eax, DWORD PTR [edx+12]
  00015	8b 4a ec	 mov	 ecx, DWORD PTR [edx-20]
  00018	33 c8		 xor	 ecx, eax
  0001a	e8 00 00 00 00	 call	 @__security_check_cookie@4
  0001f	b8 00 00 00 00	 mov	 eax, OFFSET __ehfuncinfo$?construct@?$allocator@UCharInfoData@@@std@@QAEXPAUCharInfoData@@$$QAU3@@Z
  00024	e9 00 00 00 00	 jmp	 ___CxxFrameHandler3
text$x	ENDS
?construct@?$allocator@UCharInfoData@@@std@@QAEXPAUCharInfoData@@$$QAU3@@Z ENDP ; std::allocator<CharInfoData>::construct
PUBLIC	??$swap@UCharInfoData@@@std@@YAXAAUCharInfoData@@0@Z ; std::swap<CharInfoData>
;	COMDAT xdata$x
; File c:\program files (x86)\microsoft visual studio 10.0\vc\include\utility
xdata$x	SEGMENT
__unwindtable$??$swap@UCharInfoData@@@std@@YAXAAUCharInfoData@@0@Z DD 0ffffffffH
	DD	FLAT:__unwindfunclet$??$swap@UCharInfoData@@@std@@YAXAAUCharInfoData@@0@Z$0
__ehfuncinfo$??$swap@UCharInfoData@@@std@@YAXAAUCharInfoData@@0@Z DD 019930522H
	DD	01H
	DD	FLAT:__unwindtable$??$swap@UCharInfoData@@@std@@YAXAAUCharInfoData@@0@Z
	DD	2 DUP(00H)
	DD	2 DUP(00H)
	DD	00H
	DD	01H
; Function compile flags: /Ogsp
xdata$x	ENDS
;	COMDAT ??$swap@UCharInfoData@@@std@@YAXAAUCharInfoData@@0@Z
_TEXT	SEGMENT
__Tmp$ = -976						; size = 960
__$EHRec$ = -12						; size = 12
__Left$ = 8						; size = 4
__Right$ = 12						; size = 4
??$swap@UCharInfoData@@@std@@YAXAAUCharInfoData@@0@Z PROC ; std::swap<CharInfoData>, COMDAT

; 101  : 	{	// exchange values stored at _Left and _Right

  00000	68 c4 03 00 00	 push	 964			; 000003c4H
  00005	b8 00 00 00 00	 mov	 eax, __ehhandler$??$swap@UCharInfoData@@@std@@YAXAAUCharInfoData@@0@Z
  0000a	e8 00 00 00 00	 call	 __EH_prolog3_GS
  0000f	8b 75 08	 mov	 esi, DWORD PTR __Left$[ebp]
  00012	8b 7d 0c	 mov	 edi, DWORD PTR __Right$[ebp]

; 102  : 	_Ty _Tmp = _Move(_Left);

  00015	56		 push	 esi
  00016	8d 8d 30 fc ff
	ff		 lea	 ecx, DWORD PTR __Tmp$[ebp]
  0001c	e8 00 00 00 00	 call	 ??0CharInfoData@@QAE@ABU0@@Z
  00021	83 65 fc 00	 and	 DWORD PTR __$EHRec$[ebp+8], 0

; 103  : 	_Left = _Move(_Right);

  00025	57		 push	 edi
  00026	8b ce		 mov	 ecx, esi
  00028	e8 00 00 00 00	 call	 ??4CharInfoData@@QAEAAU0@ABU0@@Z ; CharInfoData::operator=

; 104  : 	_Right = _Move(_Tmp);

  0002d	8d 85 30 fc ff
	ff		 lea	 eax, DWORD PTR __Tmp$[ebp]
  00033	50		 push	 eax
  00034	8b cf		 mov	 ecx, edi
  00036	e8 00 00 00 00	 call	 ??4CharInfoData@@QAEAAU0@ABU0@@Z ; CharInfoData::operator=

; 105  : 	}

  0003b	83 4d fc ff	 or	 DWORD PTR __$EHRec$[ebp+8], -1
  0003f	8d 8d 30 fc ff
	ff		 lea	 ecx, DWORD PTR __Tmp$[ebp]
  00045	e8 00 00 00 00	 call	 ??1CharInfoData@@QAE@XZ
  0004a	e8 00 00 00 00	 call	 __EH_epilog3_GS
  0004f	c3		 ret	 0
_TEXT	ENDS
;	COMDAT text$x
text$x	SEGMENT
__unwindfunclet$??$swap@UCharInfoData@@@std@@YAXAAUCharInfoData@@0@Z$0:
  00000	8d 8d 30 fc ff
	ff		 lea	 ecx, DWORD PTR __Tmp$[ebp]
  00006	e9 00 00 00 00	 jmp	 ??1CharInfoData@@QAE@XZ
__ehhandler$??$swap@UCharInfoData@@@std@@YAXAAUCharInfoData@@0@Z:
  0000b	8b 54 24 08	 mov	 edx, DWORD PTR [esp+8]
  0000f	8d 42 0c	 lea	 eax, DWORD PTR [edx+12]
  00012	8b 8a 2c fc ff
	ff		 mov	 ecx, DWORD PTR [edx-980]
  00018	33 c8		 xor	 ecx, eax
  0001a	e8 00 00 00 00	 call	 @__security_check_cookie@4
  0001f	8b 4a fc	 mov	 ecx, DWORD PTR [edx-4]
  00022	33 c8		 xor	 ecx, eax
  00024	e8 00 00 00 00	 call	 @__security_check_cookie@4
  00029	b8 00 00 00 00	 mov	 eax, OFFSET __ehfuncinfo$??$swap@UCharInfoData@@@std@@YAXAAUCharInfoData@@0@Z
  0002e	e9 00 00 00 00	 jmp	 ___CxxFrameHandler3
text$x	ENDS
??$swap@UCharInfoData@@@std@@YAXAAUCharInfoData@@0@Z ENDP ; std::swap<CharInfoData>
PUBLIC	??$_Push_heap@PAUCharInfoData@@HU1@VCharInfoSort@@@std@@YAXPAUCharInfoData@@HH$$QAU1@VCharInfoSort@@@Z ; std::_Push_heap<CharInfoData *,int,CharInfoData,CharInfoSort>
; Function compile flags: /Ogsp
; File c:\program files (x86)\microsoft visual studio 10.0\vc\include\algorithm
;	COMDAT ??$_Push_heap@PAUCharInfoData@@HU1@VCharInfoSort@@@std@@YAXPAUCharInfoData@@HH$$QAU1@VCharInfoSort@@@Z
_TEXT	SEGMENT
__First$ = 8						; size = 4
__Hole$ = 12						; size = 4
__Top$ = 16						; size = 4
__Val$ = 20						; size = 4
__Pred$ = 24						; size = 1
??$_Push_heap@PAUCharInfoData@@HU1@VCharInfoSort@@@std@@YAXPAUCharInfoData@@HH$$QAU1@VCharInfoSort@@@Z PROC ; std::_Push_heap<CharInfoData *,int,CharInfoData,CharInfoSort>, COMDAT

; 2455 : 	{	// percolate _Hole to _Top or where _Val belongs, using operator<

  00000	55		 push	 ebp
  00001	8b ec		 mov	 ebp, esp
  00003	56		 push	 esi
  00004	57		 push	 edi

; 2456 : 	for (_Diff _Idx = (_Hole - 1) / 2;

  00005	8b 7d 0c	 mov	 edi, DWORD PTR __Hole$[ebp]
  00008	8d 47 ff	 lea	 eax, DWORD PTR [edi-1]
  0000b	99		 cdq
  0000c	2b c2		 sub	 eax, edx
  0000e	8b f0		 mov	 esi, eax
  00010	d1 fe		 sar	 esi, 1

; 2457 : 		_Top < _Hole && _DEBUG_LT_PRED(_Pred, *(_First + _Idx), _Val);
; 2458 : 		_Idx = (_Hole - 1) / 2)

  00012	39 7d 10	 cmp	 DWORD PTR __Top$[ebp], edi
  00015	7d 3f		 jge	 SHORT $LN1@Push_heap
  00017	53		 push	 ebx
$LL3@Push_heap:
  00018	ff 75 14	 push	 DWORD PTR __Val$[ebp]
  0001b	8b de		 mov	 ebx, esi
  0001d	69 db c0 03 00
	00		 imul	 ebx, 960		; 000003c0H
  00023	03 5d 08	 add	 ebx, DWORD PTR __First$[ebp]
  00026	8d 4d 18	 lea	 ecx, DWORD PTR __Pred$[ebp]
  00029	53		 push	 ebx
  0002a	e8 00 00 00 00	 call	 ??RCharInfoSort@@QBE_NABUCharInfoData@@0@Z ; CharInfoSort::operator()
  0002f	84 c0		 test	 al, al
  00031	74 22		 je	 SHORT $LN12@Push_heap

; 2459 : 		{	// move _Hole up to parent
; 2460 : 		*(_First + _Hole) = _Move(*(_First + _Idx));

  00033	8b cf		 mov	 ecx, edi
  00035	69 c9 c0 03 00
	00		 imul	 ecx, 960		; 000003c0H
  0003b	03 4d 08	 add	 ecx, DWORD PTR __First$[ebp]
  0003e	53		 push	 ebx
  0003f	e8 00 00 00 00	 call	 ??4CharInfoData@@QAEAAU0@ABU0@@Z ; CharInfoData::operator=
  00044	8d 46 ff	 lea	 eax, DWORD PTR [esi-1]
  00047	99		 cdq
  00048	2b c2		 sub	 eax, edx

; 2461 : 		_Hole = _Idx;

  0004a	8b fe		 mov	 edi, esi
  0004c	d1 f8		 sar	 eax, 1
  0004e	8b f0		 mov	 esi, eax
  00050	39 7d 10	 cmp	 DWORD PTR __Top$[ebp], edi
  00053	7c c3		 jl	 SHORT $LL3@Push_heap
$LN12@Push_heap:
  00055	5b		 pop	 ebx
$LN1@Push_heap:

; 2462 : 		}
; 2463 : 
; 2464 : 	*(_First + _Hole) = _Move(_Val);	// drop _Val into final hole

  00056	ff 75 14	 push	 DWORD PTR __Val$[ebp]
  00059	8b cf		 mov	 ecx, edi
  0005b	69 c9 c0 03 00
	00		 imul	 ecx, 960		; 000003c0H
  00061	03 4d 08	 add	 ecx, DWORD PTR __First$[ebp]
  00064	e8 00 00 00 00	 call	 ??4CharInfoData@@QAEAAU0@ABU0@@Z ; CharInfoData::operator=
  00069	5f		 pop	 edi
  0006a	5e		 pop	 esi

; 2465 : 	}

  0006b	5d		 pop	 ebp
  0006c	c3		 ret	 0
??$_Push_heap@PAUCharInfoData@@HU1@VCharInfoSort@@@std@@YAXPAUCharInfoData@@HH$$QAU1@VCharInfoSort@@@Z ENDP ; std::_Push_heap<CharInfoData *,int,CharInfoData,CharInfoSort>
_TEXT	ENDS
PUBLIC	??$_Move_backward@PAUCharInfoData@@PAU1@@std@@YAPAUCharInfoData@@PAU1@00U_Nonscalar_ptr_iterator_tag@0@@Z ; std::_Move_backward<CharInfoData *,CharInfoData *>
; Function compile flags: /Ogsp
; File c:\program files (x86)\microsoft visual studio 10.0\vc\include\xutility
;	COMDAT ??$_Move_backward@PAUCharInfoData@@PAU1@@std@@YAPAUCharInfoData@@PAU1@00U_Nonscalar_ptr_iterator_tag@0@@Z
_TEXT	SEGMENT
__First$ = 8						; size = 4
__Last$ = 12						; size = 4
__Dest$ = 16						; size = 4
___formal$ = 20						; size = 1
??$_Move_backward@PAUCharInfoData@@PAU1@@std@@YAPAUCharInfoData@@PAU1@00U_Nonscalar_ptr_iterator_tag@0@@Z PROC ; std::_Move_backward<CharInfoData *,CharInfoData *>, COMDAT

; 2617 : 	{	// move [_First, _Last) backwards to [..., _Dest), arbitrary iterators

  00000	55		 push	 ebp
  00001	8b ec		 mov	 ebp, esp
  00003	57		 push	 edi

; 2618 : 	while (_First != _Last)

  00004	8b 7d 0c	 mov	 edi, DWORD PTR __Last$[ebp]
  00007	39 7d 08	 cmp	 DWORD PTR __First$[ebp], edi
  0000a	74 1a		 je	 SHORT $LN9@Move_backw
  0000c	56		 push	 esi
  0000d	be c0 03 00 00	 mov	 esi, 960		; 000003c0H
$LL2@Move_backw:

; 2619 : 		*--_Dest = _STD move(*--_Last);

  00012	29 75 10	 sub	 DWORD PTR __Dest$[ebp], esi
  00015	8b 4d 10	 mov	 ecx, DWORD PTR __Dest$[ebp]
  00018	2b fe		 sub	 edi, esi
  0001a	57		 push	 edi
  0001b	e8 00 00 00 00	 call	 ??4CharInfoData@@QAEAAU0@ABU0@@Z ; CharInfoData::operator=
  00020	3b 7d 08	 cmp	 edi, DWORD PTR __First$[ebp]
  00023	75 ed		 jne	 SHORT $LL2@Move_backw
  00025	5e		 pop	 esi
$LN9@Move_backw:

; 2620 : 	return (_Dest);

  00026	8b 45 10	 mov	 eax, DWORD PTR __Dest$[ebp]
  00029	5f		 pop	 edi

; 2621 : 	}

  0002a	5d		 pop	 ebp
  0002b	c3		 ret	 0
??$_Move_backward@PAUCharInfoData@@PAU1@@std@@YAPAUCharInfoData@@PAU1@00U_Nonscalar_ptr_iterator_tag@0@@Z ENDP ; std::_Move_backward<CharInfoData *,CharInfoData *>
_TEXT	ENDS
PUBLIC	??$_Move@PAUCharInfoData@@PAU1@@std@@YAPAUCharInfoData@@PAU1@00@Z ; std::_Move<CharInfoData *,CharInfoData *>
; Function compile flags: /Ogsp
;	COMDAT ??$_Move@PAUCharInfoData@@PAU1@@std@@YAPAUCharInfoData@@PAU1@00@Z
_TEXT	SEGMENT
__Cat$523594 = -4					; size = 1
__First$ = 8						; size = 4
__Last$ = 12						; size = 4
__Dest$ = 16						; size = 4
??$_Move@PAUCharInfoData@@PAU1@@std@@YAPAUCharInfoData@@PAU1@00@Z PROC ; std::_Move<CharInfoData *,CharInfoData *>, COMDAT

; 2533 : 	{	// move [_First, _Last) to [_Dest, ...), unchecked

  00000	55		 push	 ebp
  00001	8b ec		 mov	 ebp, esp
  00003	51		 push	 ecx

; 2534 : 	return (_Move(_First, _Last,
; 2535 : 		_Dest, _Ptr_cat(_First, _Dest)));

  00004	ff 75 fc	 push	 DWORD PTR __Cat$523594[ebp]
  00007	ff 75 10	 push	 DWORD PTR __Dest$[ebp]
  0000a	ff 75 0c	 push	 DWORD PTR __Last$[ebp]
  0000d	ff 75 08	 push	 DWORD PTR __First$[ebp]
  00010	e8 00 00 00 00	 call	 ??$_Move@PAUCharInfoData@@PAU1@@std@@YAPAUCharInfoData@@PAU1@00U_Nonscalar_ptr_iterator_tag@0@@Z ; std::_Move<CharInfoData *,CharInfoData *>
  00015	83 c4 10	 add	 esp, 16			; 00000010H

; 2536 : 	}

  00018	c9		 leave
  00019	c3		 ret	 0
??$_Move@PAUCharInfoData@@PAU1@@std@@YAPAUCharInfoData@@PAU1@00@Z ENDP ; std::_Move<CharInfoData *,CharInfoData *>
_TEXT	ENDS
PUBLIC	??$construct@AAUCharInfoData@@@?$allocator@UCharInfoData@@@std@@QAEXPAUCharInfoData@@AAU2@@Z ; std::allocator<CharInfoData>::construct<CharInfoData &>
;	COMDAT xdata$x
; File c:\program files (x86)\microsoft visual studio 10.0\vc\include\utility
xdata$x	SEGMENT
__unwindtable$??$construct@AAUCharInfoData@@@?$allocator@UCharInfoData@@@std@@QAEXPAUCharInfoData@@AAU2@@Z DD 0ffffffffH
	DD	FLAT:__unwindfunclet$??$construct@AAUCharInfoData@@@?$allocator@UCharInfoData@@@std@@QAEXPAUCharInfoData@@AAU2@@Z$0
__ehfuncinfo$??$construct@AAUCharInfoData@@@?$allocator@UCharInfoData@@@std@@QAEXPAUCharInfoData@@AAU2@@Z DD 019930522H
	DD	01H
	DD	FLAT:__unwindtable$??$construct@AAUCharInfoData@@@?$allocator@UCharInfoData@@@std@@QAEXPAUCharInfoData@@AAU2@@Z
	DD	2 DUP(00H)
	DD	2 DUP(00H)
	DD	00H
	DD	01H
; Function compile flags: /Ogsp
; File c:\program files (x86)\microsoft visual studio 10.0\vc\include\xmemory
xdata$x	ENDS
;	COMDAT ??$construct@AAUCharInfoData@@@?$allocator@UCharInfoData@@@std@@QAEXPAUCharInfoData@@AAU2@@Z
_TEXT	SEGMENT
$T523599 = -16						; size = 4
__$EHRec$ = -12						; size = 12
__Ptr$ = 8						; size = 4
__Val$ = 12						; size = 4
??$construct@AAUCharInfoData@@@?$allocator@UCharInfoData@@@std@@QAEXPAUCharInfoData@@AAU2@@Z PROC ; std::allocator<CharInfoData>::construct<CharInfoData &>, COMDAT
; _this$ = ecx

; 206  : 		void construct(pointer _Ptr, _Other&& _Val)

  00000	6a 04		 push	 4
  00002	b8 00 00 00 00	 mov	 eax, __ehhandler$??$construct@AAUCharInfoData@@@?$allocator@UCharInfoData@@@std@@QAEXPAUCharInfoData@@AAU2@@Z
  00007	e8 00 00 00 00	 call	 __EH_prolog3

; 207  : 		{	// construct object at _Ptr with value _Val
; 208  : 		::new ((void _FARQ *)_Ptr) _Ty(_STD forward<_Other>(_Val));

  0000c	8b 4d 08	 mov	 ecx, DWORD PTR __Ptr$[ebp]
  0000f	89 4d f0	 mov	 DWORD PTR $T523599[ebp], ecx
  00012	83 65 fc 00	 and	 DWORD PTR __$EHRec$[ebp+8], 0
  00016	85 c9		 test	 ecx, ecx
  00018	74 08		 je	 SHORT $LN3@construct@6
  0001a	ff 75 0c	 push	 DWORD PTR __Val$[ebp]
  0001d	e8 00 00 00 00	 call	 ??0CharInfoData@@QAE@ABU0@@Z
$LN3@construct@6:

; 209  : 		}

  00022	e8 00 00 00 00	 call	 __EH_epilog3
  00027	c2 08 00	 ret	 8
_TEXT	ENDS
;	COMDAT text$x
text$x	SEGMENT
__unwindfunclet$??$construct@AAUCharInfoData@@@?$allocator@UCharInfoData@@@std@@QAEXPAUCharInfoData@@AAU2@@Z$0:
  00000	ff 75 08	 push	 DWORD PTR __Ptr$[ebp]
  00003	ff 75 f0	 push	 DWORD PTR $T523599[ebp]
  00006	e8 00 00 00 00	 call	 ??3@YAXPAX0@Z		; operator delete
  0000b	59		 pop	 ecx
  0000c	59		 pop	 ecx
  0000d	c3		 ret	 0
__ehhandler$??$construct@AAUCharInfoData@@@?$allocator@UCharInfoData@@@std@@QAEXPAUCharInfoData@@AAU2@@Z:
  0000e	8b 54 24 08	 mov	 edx, DWORD PTR [esp+8]
  00012	8d 42 0c	 lea	 eax, DWORD PTR [edx+12]
  00015	8b 4a ec	 mov	 ecx, DWORD PTR [edx-20]
  00018	33 c8		 xor	 ecx, eax
  0001a	e8 00 00 00 00	 call	 @__security_check_cookie@4
  0001f	b8 00 00 00 00	 mov	 eax, OFFSET __ehfuncinfo$??$construct@AAUCharInfoData@@@?$allocator@UCharInfoData@@@std@@QAEXPAUCharInfoData@@AAU2@@Z
  00024	e9 00 00 00 00	 jmp	 ___CxxFrameHandler3
text$x	ENDS
??$construct@AAUCharInfoData@@@?$allocator@UCharInfoData@@@std@@QAEXPAUCharInfoData@@AAU2@@Z ENDP ; std::allocator<CharInfoData>::construct<CharInfoData &>
PUBLIC	??$_Construct@UCharInfoData@@ABU1@@std@@YAXPAUCharInfoData@@ABU1@@Z ; std::_Construct<CharInfoData,CharInfoData const &>
;	COMDAT xdata$x
; File c:\program files (x86)\microsoft visual studio 10.0\vc\include\utility
xdata$x	SEGMENT
__unwindtable$??$_Construct@UCharInfoData@@ABU1@@std@@YAXPAUCharInfoData@@ABU1@@Z DD 0ffffffffH
	DD	FLAT:__unwindfunclet$??$_Construct@UCharInfoData@@ABU1@@std@@YAXPAUCharInfoData@@ABU1@@Z$0
__ehfuncinfo$??$_Construct@UCharInfoData@@ABU1@@std@@YAXPAUCharInfoData@@ABU1@@Z DD 019930522H
	DD	01H
	DD	FLAT:__unwindtable$??$_Construct@UCharInfoData@@ABU1@@std@@YAXPAUCharInfoData@@ABU1@@Z
	DD	2 DUP(00H)
	DD	2 DUP(00H)
	DD	00H
	DD	01H
; Function compile flags: /Ogsp
; File c:\program files (x86)\microsoft visual studio 10.0\vc\include\xmemory
xdata$x	ENDS
;	COMDAT ??$_Construct@UCharInfoData@@ABU1@@std@@YAXPAUCharInfoData@@ABU1@@Z
_TEXT	SEGMENT
$T523618 = -16						; size = 4
__$EHRec$ = -12						; size = 12
__Vptr$ = 8						; size = 4
__Ptr$ = 8						; size = 4
__Val$ = 12						; size = 4
??$_Construct@UCharInfoData@@ABU1@@std@@YAXPAUCharInfoData@@ABU1@@Z PROC ; std::_Construct<CharInfoData,CharInfoData const &>, COMDAT

; 46   : 	{	// construct object at _Ptr with value _Val

  00000	6a 04		 push	 4
  00002	b8 00 00 00 00	 mov	 eax, __ehhandler$??$_Construct@UCharInfoData@@ABU1@@std@@YAXPAUCharInfoData@@ABU1@@Z
  00007	e8 00 00 00 00	 call	 __EH_prolog3

; 47   : 	void _FARQ *_Vptr = _Ptr;

  0000c	8b 4d 08	 mov	 ecx, DWORD PTR __Ptr$[ebp]
  0000f	89 4d 08	 mov	 DWORD PTR __Vptr$[ebp], ecx

; 48   : 	::new (_Vptr) _Ty1(_STD forward<_Ty2>(_Val));

  00012	89 4d f0	 mov	 DWORD PTR $T523618[ebp], ecx
  00015	83 65 fc 00	 and	 DWORD PTR __$EHRec$[ebp+8], 0
  00019	85 c9		 test	 ecx, ecx
  0001b	74 08		 je	 SHORT $LN3@Construct@3
  0001d	ff 75 0c	 push	 DWORD PTR __Val$[ebp]
  00020	e8 00 00 00 00	 call	 ??0CharInfoData@@QAE@ABU0@@Z
$LN3@Construct@3:

; 49   : 	}

  00025	e8 00 00 00 00	 call	 __EH_epilog3
  0002a	c3		 ret	 0
_TEXT	ENDS
;	COMDAT text$x
text$x	SEGMENT
__unwindfunclet$??$_Construct@UCharInfoData@@ABU1@@std@@YAXPAUCharInfoData@@ABU1@@Z$0:
  00000	ff 75 08	 push	 DWORD PTR __Vptr$[ebp]
  00003	ff 75 f0	 push	 DWORD PTR $T523618[ebp]
  00006	e8 00 00 00 00	 call	 ??3@YAXPAX0@Z		; operator delete
  0000b	59		 pop	 ecx
  0000c	59		 pop	 ecx
  0000d	c3		 ret	 0
__ehhandler$??$_Construct@UCharInfoData@@ABU1@@std@@YAXPAUCharInfoData@@ABU1@@Z:
  0000e	8b 54 24 08	 mov	 edx, DWORD PTR [esp+8]
  00012	8d 42 0c	 lea	 eax, DWORD PTR [edx+12]
  00015	8b 4a ec	 mov	 ecx, DWORD PTR [edx-20]
  00018	33 c8		 xor	 ecx, eax
  0001a	e8 00 00 00 00	 call	 @__security_check_cookie@4
  0001f	b8 00 00 00 00	 mov	 eax, OFFSET __ehfuncinfo$??$_Construct@UCharInfoData@@ABU1@@std@@YAXPAUCharInfoData@@ABU1@@Z
  00024	e9 00 00 00 00	 jmp	 ___CxxFrameHandler3
text$x	ENDS
??$_Construct@UCharInfoData@@ABU1@@std@@YAXPAUCharInfoData@@ABU1@@Z ENDP ; std::_Construct<CharInfoData,CharInfoData const &>
PUBLIC	??$_Dest_val@V?$allocator@UCharInfoData@@@std@@UCharInfoData@@@std@@YAXAAV?$allocator@UCharInfoData@@@0@PAUCharInfoData@@@Z ; std::_Dest_val<std::allocator<CharInfoData>,CharInfoData>
; Function compile flags: /Ogsp
;	COMDAT ??$_Dest_val@V?$allocator@UCharInfoData@@@std@@UCharInfoData@@@std@@YAXAAV?$allocator@UCharInfoData@@@0@PAUCharInfoData@@@Z
_TEXT	SEGMENT
__Alval$ = 8						; size = 4
__Pdest$ = 12						; size = 4
??$_Dest_val@V?$allocator@UCharInfoData@@@std@@UCharInfoData@@@std@@YAXAAV?$allocator@UCharInfoData@@@0@PAUCharInfoData@@@Z PROC ; std::_Dest_val<std::allocator<CharInfoData>,CharInfoData>, COMDAT

; 286  : 	{	// destroy using allocator

  00000	55		 push	 ebp
  00001	8b ec		 mov	 ebp, esp

; 287  : 	_Alval.destroy(_Pdest);

  00003	8b 4d 0c	 mov	 ecx, DWORD PTR __Pdest$[ebp]

; 288  : 	}

  00006	5d		 pop	 ebp

; 287  : 	_Alval.destroy(_Pdest);

  00007	e9 00 00 00 00	 jmp	 ??1CharInfoData@@QAE@XZ
??$_Dest_val@V?$allocator@UCharInfoData@@@std@@UCharInfoData@@@std@@YAXAAV?$allocator@UCharInfoData@@@0@PAUCharInfoData@@@Z ENDP ; std::_Dest_val<std::allocator<CharInfoData>,CharInfoData>
_TEXT	ENDS
PUBLIC	??$iter_swap@PAUCharInfoData@@PAU1@@std@@YAXPAUCharInfoData@@0@Z ; std::iter_swap<CharInfoData *,CharInfoData *>
; Function compile flags: /Ogsp
; File c:\program files (x86)\microsoft visual studio 10.0\vc\include\xutility
;	COMDAT ??$iter_swap@PAUCharInfoData@@PAU1@@std@@YAXPAUCharInfoData@@0@Z
_TEXT	SEGMENT
__Left$ = 8						; size = 4
__Right$ = 12						; size = 4
??$iter_swap@PAUCharInfoData@@PAU1@@std@@YAXPAUCharInfoData@@0@Z PROC ; std::iter_swap<CharInfoData *,CharInfoData *>, COMDAT

; 2133 : 	{	// swap *_Left and *_Right

  00000	55		 push	 ebp
  00001	8b ec		 mov	 ebp, esp

; 2135 : 	}

  00003	5d		 pop	 ebp

; 2134 : 	swap(*_Left, *_Right);

  00004	e9 00 00 00 00	 jmp	 ??$swap@UCharInfoData@@@std@@YAXAAUCharInfoData@@0@Z ; std::swap<CharInfoData>
??$iter_swap@PAUCharInfoData@@PAU1@@std@@YAXPAUCharInfoData@@0@Z ENDP ; std::iter_swap<CharInfoData *,CharInfoData *>
_TEXT	ENDS
PUBLIC	??$_Cons_val@V?$allocator@UCharInfoData@@@std@@UCharInfoData@@U3@@std@@YAXAAV?$allocator@UCharInfoData@@@0@PAUCharInfoData@@$$QAU2@@Z ; std::_Cons_val<std::allocator<CharInfoData>,CharInfoData,CharInfoData>
;	COMDAT xdata$x
; File c:\program files (x86)\microsoft visual studio 10.0\vc\include\utility
xdata$x	SEGMENT
__unwindtable$??$_Cons_val@V?$allocator@UCharInfoData@@@std@@UCharInfoData@@U3@@std@@YAXAAV?$allocator@UCharInfoData@@@0@PAUCharInfoData@@$$QAU2@@Z DD 0ffffffffH
	DD	FLAT:__unwindfunclet$??$_Cons_val@V?$allocator@UCharInfoData@@@std@@UCharInfoData@@U3@@std@@YAXAAV?$allocator@UCharInfoData@@@0@PAUCharInfoData@@$$QAU2@@Z$0
__ehfuncinfo$??$_Cons_val@V?$allocator@UCharInfoData@@@std@@UCharInfoData@@U3@@std@@YAXAAV?$allocator@UCharInfoData@@@0@PAUCharInfoData@@$$QAU2@@Z DD 019930522H
	DD	01H
	DD	FLAT:__unwindtable$??$_Cons_val@V?$allocator@UCharInfoData@@@std@@UCharInfoData@@U3@@std@@YAXAAV?$allocator@UCharInfoData@@@0@PAUCharInfoData@@$$QAU2@@Z
	DD	2 DUP(00H)
	DD	2 DUP(00H)
	DD	00H
	DD	01H
; Function compile flags: /Ogsp
; File c:\program files (x86)\microsoft visual studio 10.0\vc\include\xmemory
xdata$x	ENDS
;	COMDAT ??$_Cons_val@V?$allocator@UCharInfoData@@@std@@UCharInfoData@@U3@@std@@YAXAAV?$allocator@UCharInfoData@@@0@PAUCharInfoData@@$$QAU2@@Z
_TEXT	SEGMENT
$T523679 = -16						; size = 4
__$EHRec$ = -12						; size = 12
__Alval$ = 8						; size = 4
__Pdest$ = 12						; size = 4
__Src$ = 16						; size = 4
??$_Cons_val@V?$allocator@UCharInfoData@@@std@@UCharInfoData@@U3@@std@@YAXAAV?$allocator@UCharInfoData@@@0@PAUCharInfoData@@$$QAU2@@Z PROC ; std::_Cons_val<std::allocator<CharInfoData>,CharInfoData,CharInfoData>, COMDAT

; 279  : 	{	// construct using allocator

  00000	6a 04		 push	 4
  00002	b8 00 00 00 00	 mov	 eax, __ehhandler$??$_Cons_val@V?$allocator@UCharInfoData@@@std@@UCharInfoData@@U3@@std@@YAXAAV?$allocator@UCharInfoData@@@0@PAUCharInfoData@@$$QAU2@@Z
  00007	e8 00 00 00 00	 call	 __EH_prolog3

; 280  : 	_Alval.construct(_Pdest, _STD forward<_Ty2>(_Src));

  0000c	8b 4d 0c	 mov	 ecx, DWORD PTR __Pdest$[ebp]
  0000f	89 4d f0	 mov	 DWORD PTR $T523679[ebp], ecx
  00012	83 65 fc 00	 and	 DWORD PTR __$EHRec$[ebp+8], 0
  00016	85 c9		 test	 ecx, ecx
  00018	74 08		 je	 SHORT $LN7@Cons_val@5
  0001a	ff 75 10	 push	 DWORD PTR __Src$[ebp]
  0001d	e8 00 00 00 00	 call	 ??0CharInfoData@@QAE@ABU0@@Z
$LN7@Cons_val@5:

; 281  : 	}

  00022	e8 00 00 00 00	 call	 __EH_epilog3
  00027	c3		 ret	 0
_TEXT	ENDS
;	COMDAT text$x
text$x	SEGMENT
__unwindfunclet$??$_Cons_val@V?$allocator@UCharInfoData@@@std@@UCharInfoData@@U3@@std@@YAXAAV?$allocator@UCharInfoData@@@0@PAUCharInfoData@@$$QAU2@@Z$0:
  00000	ff 75 0c	 push	 DWORD PTR __Pdest$[ebp]
  00003	ff 75 f0	 push	 DWORD PTR $T523679[ebp]
  00006	e8 00 00 00 00	 call	 ??3@YAXPAX0@Z		; operator delete
  0000b	59		 pop	 ecx
  0000c	59		 pop	 ecx
  0000d	c3		 ret	 0
__ehhandler$??$_Cons_val@V?$allocator@UCharInfoData@@@std@@UCharInfoData@@U3@@std@@YAXAAV?$allocator@UCharInfoData@@@0@PAUCharInfoData@@$$QAU2@@Z:
  0000e	8b 54 24 08	 mov	 edx, DWORD PTR [esp+8]
  00012	8d 42 0c	 lea	 eax, DWORD PTR [edx+12]
  00015	8b 4a ec	 mov	 ecx, DWORD PTR [edx-20]
  00018	33 c8		 xor	 ecx, eax
  0001a	e8 00 00 00 00	 call	 @__security_check_cookie@4
  0001f	b8 00 00 00 00	 mov	 eax, OFFSET __ehfuncinfo$??$_Cons_val@V?$allocator@UCharInfoData@@@std@@UCharInfoData@@U3@@std@@YAXAAV?$allocator@UCharInfoData@@@0@PAUCharInfoData@@$$QAU2@@Z
  00024	e9 00 00 00 00	 jmp	 ___CxxFrameHandler3
text$x	ENDS
??$_Cons_val@V?$allocator@UCharInfoData@@@std@@UCharInfoData@@U3@@std@@YAXAAV?$allocator@UCharInfoData@@@0@PAUCharInfoData@@$$QAU2@@Z ENDP ; std::_Cons_val<std::allocator<CharInfoData>,CharInfoData,CharInfoData>
PUBLIC	??$_Med3@PAUCharInfoData@@VCharInfoSort@@@std@@YAXPAUCharInfoData@@00VCharInfoSort@@@Z ; std::_Med3<CharInfoData *,CharInfoSort>
; Function compile flags: /Ogsp
; File c:\program files (x86)\microsoft visual studio 10.0\vc\include\algorithm
;	COMDAT ??$_Med3@PAUCharInfoData@@VCharInfoSort@@@std@@YAXPAUCharInfoData@@00VCharInfoSort@@@Z
_TEXT	SEGMENT
__First$ = 8						; size = 4
__Mid$ = 12						; size = 4
__Last$ = 16						; size = 4
__Pred$ = 20						; size = 1
??$_Med3@PAUCharInfoData@@VCharInfoSort@@@std@@YAXPAUCharInfoData@@00VCharInfoSort@@@Z PROC ; std::_Med3<CharInfoData *,CharInfoSort>, COMDAT

; 3683 : 	{	// sort median of three elements to middle

  00000	55		 push	 ebp
  00001	8b ec		 mov	 ebp, esp
  00003	56		 push	 esi

; 3684 : 	if (_DEBUG_LT_PRED(_Pred, *_Mid, *_First))

  00004	8b 75 0c	 mov	 esi, DWORD PTR __Mid$[ebp]
  00007	57		 push	 edi
  00008	8b 7d 08	 mov	 edi, DWORD PTR __First$[ebp]
  0000b	57		 push	 edi
  0000c	56		 push	 esi
  0000d	8d 4d 14	 lea	 ecx, DWORD PTR __Pred$[ebp]
  00010	e8 00 00 00 00	 call	 ??RCharInfoSort@@QBE_NABUCharInfoData@@0@Z ; CharInfoSort::operator()
  00015	84 c0		 test	 al, al
  00017	74 09		 je	 SHORT $LN6@Med3

; 3685 : 		_STD iter_swap(_Mid, _First);

  00019	57		 push	 edi
  0001a	56		 push	 esi
  0001b	e8 00 00 00 00	 call	 ??$swap@UCharInfoData@@@std@@YAXAAUCharInfoData@@0@Z ; std::swap<CharInfoData>
  00020	59		 pop	 ecx
  00021	59		 pop	 ecx
$LN6@Med3:

; 3686 : 	if (_DEBUG_LT_PRED(_Pred, *_Last, *_Mid))

  00022	56		 push	 esi
  00023	ff 75 10	 push	 DWORD PTR __Last$[ebp]
  00026	8d 4d 14	 lea	 ecx, DWORD PTR __Pred$[ebp]
  00029	e8 00 00 00 00	 call	 ??RCharInfoSort@@QBE_NABUCharInfoData@@0@Z ; CharInfoSort::operator()
  0002e	84 c0		 test	 al, al
  00030	74 0b		 je	 SHORT $LN8@Med3

; 3687 : 		_STD iter_swap(_Last, _Mid);

  00032	56		 push	 esi
  00033	ff 75 10	 push	 DWORD PTR __Last$[ebp]
  00036	e8 00 00 00 00	 call	 ??$swap@UCharInfoData@@@std@@YAXAAUCharInfoData@@0@Z ; std::swap<CharInfoData>
  0003b	59		 pop	 ecx
  0003c	59		 pop	 ecx
$LN8@Med3:

; 3688 : 	if (_DEBUG_LT_PRED(_Pred, *_Mid, *_First))

  0003d	57		 push	 edi
  0003e	56		 push	 esi
  0003f	8d 4d 14	 lea	 ecx, DWORD PTR __Pred$[ebp]
  00042	e8 00 00 00 00	 call	 ??RCharInfoSort@@QBE_NABUCharInfoData@@0@Z ; CharInfoSort::operator()
  00047	84 c0		 test	 al, al
  00049	74 09		 je	 SHORT $LN10@Med3

; 3689 : 		_STD iter_swap(_Mid, _First);

  0004b	57		 push	 edi
  0004c	56		 push	 esi
  0004d	e8 00 00 00 00	 call	 ??$swap@UCharInfoData@@@std@@YAXAAUCharInfoData@@0@Z ; std::swap<CharInfoData>
  00052	59		 pop	 ecx
  00053	59		 pop	 ecx
$LN10@Med3:
  00054	5f		 pop	 edi
  00055	5e		 pop	 esi

; 3690 : 	}

  00056	5d		 pop	 ebp
  00057	c3		 ret	 0
??$_Med3@PAUCharInfoData@@VCharInfoSort@@@std@@YAXPAUCharInfoData@@00VCharInfoSort@@@Z ENDP ; std::_Med3<CharInfoData *,CharInfoSort>
_TEXT	ENDS
PUBLIC	??$_Adjust_heap@PAUCharInfoData@@HU1@VCharInfoSort@@@std@@YAXPAUCharInfoData@@HH$$QAU1@VCharInfoSort@@@Z ; std::_Adjust_heap<CharInfoData *,int,CharInfoData,CharInfoSort>
; Function compile flags: /Ogsp
;	COMDAT ??$_Adjust_heap@PAUCharInfoData@@HU1@VCharInfoSort@@@std@@YAXPAUCharInfoData@@HH$$QAU1@VCharInfoSort@@@Z
_TEXT	SEGMENT
__First$ = 8						; size = 4
__Top$ = 12						; size = 4
__Hole$ = 12						; size = 4
__Bottom$ = 16						; size = 4
__Val$ = 20						; size = 4
__Pred$ = 24						; size = 1
??$_Adjust_heap@PAUCharInfoData@@HU1@VCharInfoSort@@@std@@YAXPAUCharInfoData@@HH$$QAU1@VCharInfoSort@@@Z PROC ; std::_Adjust_heap<CharInfoData *,int,CharInfoData,CharInfoSort>, COMDAT

; 2565 : 	{	// percolate _Hole to _Bottom, then push _Val, using _Pred

  00000	55		 push	 ebp
  00001	8b ec		 mov	 ebp, esp
  00003	53		 push	 ebx

; 2566 : 	_Diff _Top = _Hole;
; 2567 : 	_Diff _Idx = 2 * _Hole + 2;
; 2568 : 
; 2569 : 	for (; _Idx < _Bottom; _Idx = 2 * _Idx + 2)

  00004	8b 5d 08	 mov	 ebx, DWORD PTR __First$[ebp]
  00007	56		 push	 esi
  00008	57		 push	 edi
  00009	8b 7d 0c	 mov	 edi, DWORD PTR __Hole$[ebp]
  0000c	89 7d 0c	 mov	 DWORD PTR __Top$[ebp], edi
  0000f	8d 74 3f 02	 lea	 esi, DWORD PTR [edi+edi+2]
  00013	eb 3f		 jmp	 SHORT $LN16@Adjust_hea
$LL5@Adjust_hea:

; 2570 : 		{	// move _Hole down to larger child
; 2571 : 		if (_DEBUG_LT_PRED(_Pred, *(_First + _Idx), *(_First + (_Idx - 1))))

  00015	8b c6		 mov	 eax, esi
  00017	69 c0 c0 03 00
	00		 imul	 eax, 960		; 000003c0H
  0001d	03 c3		 add	 eax, ebx
  0001f	8d 88 40 fc ff
	ff		 lea	 ecx, DWORD PTR [eax-960]
  00025	51		 push	 ecx
  00026	50		 push	 eax
  00027	8d 4d 18	 lea	 ecx, DWORD PTR __Pred$[ebp]
  0002a	e8 00 00 00 00	 call	 ??RCharInfoSort@@QBE_NABUCharInfoData@@0@Z ; CharInfoSort::operator()
  0002f	84 c0		 test	 al, al
  00031	74 01		 je	 SHORT $LN2@Adjust_hea

; 2572 : 			--_Idx;

  00033	4e		 dec	 esi
$LN2@Adjust_hea:

; 2573 : 		*(_First + _Hole) = _Move(*(_First + _Idx));

  00034	8b c6		 mov	 eax, esi
  00036	69 c0 c0 03 00
	00		 imul	 eax, 960		; 000003c0H
  0003c	8b cf		 mov	 ecx, edi
  0003e	69 c9 c0 03 00
	00		 imul	 ecx, 960		; 000003c0H
  00044	03 c3		 add	 eax, ebx
  00046	50		 push	 eax
  00047	03 cb		 add	 ecx, ebx
  00049	e8 00 00 00 00	 call	 ??4CharInfoData@@QAEAAU0@ABU0@@Z ; CharInfoData::operator=

; 2574 : 		_Hole = _Idx;

  0004e	8b fe		 mov	 edi, esi
  00050	8d 74 36 02	 lea	 esi, DWORD PTR [esi+esi+2]
$LN16@Adjust_hea:

; 2566 : 	_Diff _Top = _Hole;
; 2567 : 	_Diff _Idx = 2 * _Hole + 2;
; 2568 : 
; 2569 : 	for (; _Idx < _Bottom; _Idx = 2 * _Idx + 2)

  00054	3b 75 10	 cmp	 esi, DWORD PTR __Bottom$[ebp]
  00057	7c bc		 jl	 SHORT $LL5@Adjust_hea

; 2575 : 		}
; 2576 : 
; 2577 : 	if (_Idx == _Bottom)

  00059	75 24		 jne	 SHORT $LN1@Adjust_hea

; 2578 : 		{	// only child at bottom, move _Hole down to it
; 2579 : 		*(_First + _Hole) = _Move(*(_First + (_Bottom - 1)));

  0005b	8b 45 10	 mov	 eax, DWORD PTR __Bottom$[ebp]
  0005e	69 c0 c0 03 00
	00		 imul	 eax, 960		; 000003c0H
  00064	8b cf		 mov	 ecx, edi
  00066	69 c9 c0 03 00
	00		 imul	 ecx, 960		; 000003c0H
  0006c	8d 84 18 40 fc
	ff ff		 lea	 eax, DWORD PTR [eax+ebx-960]
  00073	50		 push	 eax
  00074	03 cb		 add	 ecx, ebx
  00076	e8 00 00 00 00	 call	 ??4CharInfoData@@QAEAAU0@ABU0@@Z ; CharInfoData::operator=

; 2580 : 		_Hole = _Bottom - 1;

  0007b	8b 7d 10	 mov	 edi, DWORD PTR __Bottom$[ebp]
  0007e	4f		 dec	 edi
$LN1@Adjust_hea:

; 2581 : 		}
; 2582 : 	_Push_heap(_First, _Hole, _Top, _Move(_Val), _Pred);

  0007f	ff 75 18	 push	 DWORD PTR __Pred$[ebp]
  00082	ff 75 14	 push	 DWORD PTR __Val$[ebp]
  00085	ff 75 0c	 push	 DWORD PTR __Top$[ebp]
  00088	57		 push	 edi
  00089	53		 push	 ebx
  0008a	e8 00 00 00 00	 call	 ??$_Push_heap@PAUCharInfoData@@HU1@VCharInfoSort@@@std@@YAXPAUCharInfoData@@HH$$QAU1@VCharInfoSort@@@Z ; std::_Push_heap<CharInfoData *,int,CharInfoData,CharInfoSort>
  0008f	83 c4 14	 add	 esp, 20			; 00000014H
  00092	5f		 pop	 edi
  00093	5e		 pop	 esi
  00094	5b		 pop	 ebx

; 2583 : 	}

  00095	5d		 pop	 ebp
  00096	c3		 ret	 0
??$_Adjust_heap@PAUCharInfoData@@HU1@VCharInfoSort@@@std@@YAXPAUCharInfoData@@HH$$QAU1@VCharInfoSort@@@Z ENDP ; std::_Adjust_heap<CharInfoData *,int,CharInfoData,CharInfoSort>
_TEXT	ENDS
PUBLIC	??$_Move_backward@PAUCharInfoData@@PAU1@@std@@YAPAUCharInfoData@@PAU1@00@Z ; std::_Move_backward<CharInfoData *,CharInfoData *>
; Function compile flags: /Ogsp
; File c:\program files (x86)\microsoft visual studio 10.0\vc\include\xutility
;	COMDAT ??$_Move_backward@PAUCharInfoData@@PAU1@@std@@YAPAUCharInfoData@@PAU1@00@Z
_TEXT	SEGMENT
__Cat$523723 = -4					; size = 1
__First$ = 8						; size = 4
__Last$ = 12						; size = 4
__Dest$ = 16						; size = 4
??$_Move_backward@PAUCharInfoData@@PAU1@@std@@YAPAUCharInfoData@@PAU1@00@Z PROC ; std::_Move_backward<CharInfoData *,CharInfoData *>, COMDAT

; 2638 : 	{	// move [_First, _Last) backwards to [..., _Dest), unchecked

  00000	55		 push	 ebp
  00001	8b ec		 mov	 ebp, esp
  00003	51		 push	 ecx

; 2639 : 	return (_Move_backward(_First, _Last,
; 2640 : 		_Dest, _Ptr_cat(_First, _Dest)));

  00004	ff 75 fc	 push	 DWORD PTR __Cat$523723[ebp]
  00007	ff 75 10	 push	 DWORD PTR __Dest$[ebp]
  0000a	ff 75 0c	 push	 DWORD PTR __Last$[ebp]
  0000d	ff 75 08	 push	 DWORD PTR __First$[ebp]
  00010	e8 00 00 00 00	 call	 ??$_Move_backward@PAUCharInfoData@@PAU1@@std@@YAPAUCharInfoData@@PAU1@00U_Nonscalar_ptr_iterator_tag@0@@Z ; std::_Move_backward<CharInfoData *,CharInfoData *>
  00015	83 c4 10	 add	 esp, 16			; 00000010H

; 2641 : 	}

  00018	c9		 leave
  00019	c3		 ret	 0
??$_Move_backward@PAUCharInfoData@@PAU1@@std@@YAPAUCharInfoData@@PAU1@00@Z ENDP ; std::_Move_backward<CharInfoData *,CharInfoData *>
_TEXT	ENDS
PUBLIC	??$_Pop_heap@PAUCharInfoData@@HU1@VCharInfoSort@@@std@@YAXPAUCharInfoData@@00$$QAU1@VCharInfoSort@@PAH@Z ; std::_Pop_heap<CharInfoData *,int,CharInfoData,CharInfoSort>
; Function compile flags: /Ogsp
; File c:\program files (x86)\microsoft visual studio 10.0\vc\include\algorithm
;	COMDAT ??$_Pop_heap@PAUCharInfoData@@HU1@VCharInfoSort@@@std@@YAXPAUCharInfoData@@00$$QAU1@VCharInfoSort@@PAH@Z
_TEXT	SEGMENT
__First$ = 8						; size = 4
__Last$ = 12						; size = 4
__Dest$ = 16						; size = 4
__Val$ = 20						; size = 4
__Pred$ = 24						; size = 1
___formal$ = 28						; size = 4
??$_Pop_heap@PAUCharInfoData@@HU1@VCharInfoSort@@@std@@YAXPAUCharInfoData@@00$$QAU1@VCharInfoSort@@PAH@Z PROC ; std::_Pop_heap<CharInfoData *,int,CharInfoData,CharInfoSort>, COMDAT

; 2591 : 	{	// pop *_First to *_Dest and reheap, using _Pred

  00000	55		 push	 ebp
  00001	8b ec		 mov	 ebp, esp

; 2592 : 	*_Dest = _Move(*_First);

  00003	ff 75 08	 push	 DWORD PTR __First$[ebp]
  00006	8b 4d 10	 mov	 ecx, DWORD PTR __Dest$[ebp]
  00009	e8 00 00 00 00	 call	 ??4CharInfoData@@QAEAAU0@ABU0@@Z ; CharInfoData::operator=

; 2593 : 	_Adjust_heap(_First, _Diff(0), _Diff(_Last - _First),
; 2594 : 		_Move(_Val), _Pred);

  0000e	8b 45 0c	 mov	 eax, DWORD PTR __Last$[ebp]
  00011	2b 45 08	 sub	 eax, DWORD PTR __First$[ebp]
  00014	b9 c0 03 00 00	 mov	 ecx, 960		; 000003c0H
  00019	99		 cdq
  0001a	f7 f9		 idiv	 ecx
  0001c	ff 75 18	 push	 DWORD PTR __Pred$[ebp]
  0001f	ff 75 14	 push	 DWORD PTR __Val$[ebp]
  00022	50		 push	 eax
  00023	6a 00		 push	 0
  00025	ff 75 08	 push	 DWORD PTR __First$[ebp]
  00028	e8 00 00 00 00	 call	 ??$_Adjust_heap@PAUCharInfoData@@HU1@VCharInfoSort@@@std@@YAXPAUCharInfoData@@HH$$QAU1@VCharInfoSort@@@Z ; std::_Adjust_heap<CharInfoData *,int,CharInfoData,CharInfoSort>
  0002d	83 c4 14	 add	 esp, 20			; 00000014H

; 2595 : 	}

  00030	5d		 pop	 ebp
  00031	c3		 ret	 0
??$_Pop_heap@PAUCharInfoData@@HU1@VCharInfoSort@@@std@@YAXPAUCharInfoData@@00$$QAU1@VCharInfoSort@@PAH@Z ENDP ; std::_Pop_heap<CharInfoData *,int,CharInfoData,CharInfoSort>
_TEXT	ENDS
PUBLIC	??$_Cons_val@V?$allocator@UCharInfoData@@@std@@UCharInfoData@@AAU3@@std@@YAXAAV?$allocator@UCharInfoData@@@0@PAUCharInfoData@@AAU2@@Z ; std::_Cons_val<std::allocator<CharInfoData>,CharInfoData,CharInfoData &>
;	COMDAT xdata$x
; File c:\program files (x86)\microsoft visual studio 10.0\vc\include\utility
xdata$x	SEGMENT
__unwindtable$??$_Cons_val@V?$allocator@UCharInfoData@@@std@@UCharInfoData@@AAU3@@std@@YAXAAV?$allocator@UCharInfoData@@@0@PAUCharInfoData@@AAU2@@Z DD 0ffffffffH
	DD	FLAT:__unwindfunclet$??$_Cons_val@V?$allocator@UCharInfoData@@@std@@UCharInfoData@@AAU3@@std@@YAXAAV?$allocator@UCharInfoData@@@0@PAUCharInfoData@@AAU2@@Z$0
__ehfuncinfo$??$_Cons_val@V?$allocator@UCharInfoData@@@std@@UCharInfoData@@AAU3@@std@@YAXAAV?$allocator@UCharInfoData@@@0@PAUCharInfoData@@AAU2@@Z DD 019930522H
	DD	01H
	DD	FLAT:__unwindtable$??$_Cons_val@V?$allocator@UCharInfoData@@@std@@UCharInfoData@@AAU3@@std@@YAXAAV?$allocator@UCharInfoData@@@0@PAUCharInfoData@@AAU2@@Z
	DD	2 DUP(00H)
	DD	2 DUP(00H)
	DD	00H
	DD	01H
; Function compile flags: /Ogsp
; File c:\program files (x86)\microsoft visual studio 10.0\vc\include\xmemory
xdata$x	ENDS
;	COMDAT ??$_Cons_val@V?$allocator@UCharInfoData@@@std@@UCharInfoData@@AAU3@@std@@YAXAAV?$allocator@UCharInfoData@@@0@PAUCharInfoData@@AAU2@@Z
_TEXT	SEGMENT
$T523753 = -16						; size = 4
__$EHRec$ = -12						; size = 12
__Alval$ = 8						; size = 4
__Pdest$ = 12						; size = 4
__Src$ = 16						; size = 4
??$_Cons_val@V?$allocator@UCharInfoData@@@std@@UCharInfoData@@AAU3@@std@@YAXAAV?$allocator@UCharInfoData@@@0@PAUCharInfoData@@AAU2@@Z PROC ; std::_Cons_val<std::allocator<CharInfoData>,CharInfoData,CharInfoData &>, COMDAT

; 279  : 	{	// construct using allocator

  00000	6a 04		 push	 4
  00002	b8 00 00 00 00	 mov	 eax, __ehhandler$??$_Cons_val@V?$allocator@UCharInfoData@@@std@@UCharInfoData@@AAU3@@std@@YAXAAV?$allocator@UCharInfoData@@@0@PAUCharInfoData@@AAU2@@Z
  00007	e8 00 00 00 00	 call	 __EH_prolog3

; 280  : 	_Alval.construct(_Pdest, _STD forward<_Ty2>(_Src));

  0000c	8b 4d 0c	 mov	 ecx, DWORD PTR __Pdest$[ebp]
  0000f	89 4d f0	 mov	 DWORD PTR $T523753[ebp], ecx
  00012	83 65 fc 00	 and	 DWORD PTR __$EHRec$[ebp+8], 0
  00016	85 c9		 test	 ecx, ecx
  00018	74 08		 je	 SHORT $LN7@Cons_val@6
  0001a	ff 75 10	 push	 DWORD PTR __Src$[ebp]
  0001d	e8 00 00 00 00	 call	 ??0CharInfoData@@QAE@ABU0@@Z
$LN7@Cons_val@6:

; 281  : 	}

  00022	e8 00 00 00 00	 call	 __EH_epilog3
  00027	c3		 ret	 0
_TEXT	ENDS
;	COMDAT text$x
text$x	SEGMENT
__unwindfunclet$??$_Cons_val@V?$allocator@UCharInfoData@@@std@@UCharInfoData@@AAU3@@std@@YAXAAV?$allocator@UCharInfoData@@@0@PAUCharInfoData@@AAU2@@Z$0:
  00000	ff 75 0c	 push	 DWORD PTR __Pdest$[ebp]
  00003	ff 75 f0	 push	 DWORD PTR $T523753[ebp]
  00006	e8 00 00 00 00	 call	 ??3@YAXPAX0@Z		; operator delete
  0000b	59		 pop	 ecx
  0000c	59		 pop	 ecx
  0000d	c3		 ret	 0
__ehhandler$??$_Cons_val@V?$allocator@UCharInfoData@@@std@@UCharInfoData@@AAU3@@std@@YAXAAV?$allocator@UCharInfoData@@@0@PAUCharInfoData@@AAU2@@Z:
  0000e	8b 54 24 08	 mov	 edx, DWORD PTR [esp+8]
  00012	8d 42 0c	 lea	 eax, DWORD PTR [edx+12]
  00015	8b 4a ec	 mov	 ecx, DWORD PTR [edx-20]
  00018	33 c8		 xor	 ecx, eax
  0001a	e8 00 00 00 00	 call	 @__security_check_cookie@4
  0001f	b8 00 00 00 00	 mov	 eax, OFFSET __ehfuncinfo$??$_Cons_val@V?$allocator@UCharInfoData@@@std@@UCharInfoData@@AAU3@@std@@YAXAAV?$allocator@UCharInfoData@@@0@PAUCharInfoData@@AAU2@@Z
  00024	e9 00 00 00 00	 jmp	 ___CxxFrameHandler3
text$x	ENDS
??$_Cons_val@V?$allocator@UCharInfoData@@@std@@UCharInfoData@@AAU3@@std@@YAXAAV?$allocator@UCharInfoData@@@0@PAUCharInfoData@@AAU2@@Z ENDP ; std::_Cons_val<std::allocator<CharInfoData>,CharInfoData,CharInfoData &>
PUBLIC	?construct@?$allocator@UCharInfoData@@@std@@QAEXPAUCharInfoData@@ABU3@@Z ; std::allocator<CharInfoData>::construct
; Function compile flags: /Ogsp
;	COMDAT ?construct@?$allocator@UCharInfoData@@@std@@QAEXPAUCharInfoData@@ABU3@@Z
_TEXT	SEGMENT
__Ptr$ = 8						; size = 4
__Val$ = 12						; size = 4
?construct@?$allocator@UCharInfoData@@@std@@QAEXPAUCharInfoData@@ABU3@@Z PROC ; std::allocator<CharInfoData>::construct, COMDAT
; _this$ = ecx

; 196  : 		{	// construct object at _Ptr with value _Val

  00000	55		 push	 ebp
  00001	8b ec		 mov	 ebp, esp

; 197  : 		_Construct(_Ptr, _Val);

  00003	ff 75 0c	 push	 DWORD PTR __Val$[ebp]
  00006	ff 75 08	 push	 DWORD PTR __Ptr$[ebp]
  00009	e8 00 00 00 00	 call	 ??$_Construct@UCharInfoData@@ABU1@@std@@YAXPAUCharInfoData@@ABU1@@Z ; std::_Construct<CharInfoData,CharInfoData const &>
  0000e	59		 pop	 ecx
  0000f	59		 pop	 ecx

; 198  : 		}

  00010	5d		 pop	 ebp
  00011	c2 08 00	 ret	 8
?construct@?$allocator@UCharInfoData@@@std@@QAEXPAUCharInfoData@@ABU3@@Z ENDP ; std::allocator<CharInfoData>::construct
_TEXT	ENDS
PUBLIC	??$_Destroy_range@V?$allocator@UCharInfoData@@@std@@@std@@YAXPAUCharInfoData@@0AAV?$allocator@UCharInfoData@@@0@U_Nonscalar_ptr_iterator_tag@0@@Z ; std::_Destroy_range<std::allocator<CharInfoData> >
; Function compile flags: /Ogsp
;	COMDAT ??$_Destroy_range@V?$allocator@UCharInfoData@@@std@@@std@@YAXPAUCharInfoData@@0AAV?$allocator@UCharInfoData@@@0@U_Nonscalar_ptr_iterator_tag@0@@Z
_TEXT	SEGMENT
__First$ = 8						; size = 4
__Last$ = 12						; size = 4
__Al$ = 16						; size = 4
___formal$ = 20						; size = 1
??$_Destroy_range@V?$allocator@UCharInfoData@@@std@@@std@@YAXPAUCharInfoData@@0AAV?$allocator@UCharInfoData@@@0@U_Nonscalar_ptr_iterator_tag@0@@Z PROC ; std::_Destroy_range<std::allocator<CharInfoData> >, COMDAT

; 95   : 	{	// destroy [_First, _Last), arbitrary type

  00000	55		 push	 ebp
  00001	8b ec		 mov	 ebp, esp
  00003	56		 push	 esi

; 96   : 	for (; _First != _Last; ++_First)

  00004	8b 75 08	 mov	 esi, DWORD PTR __First$[ebp]
  00007	eb 0d		 jmp	 SHORT $LN17@Destroy_ra
$LL3@Destroy_ra:

; 97   : 		_Dest_val(_Al, _First);

  00009	8b ce		 mov	 ecx, esi
  0000b	e8 00 00 00 00	 call	 ??1CharInfoData@@QAE@XZ
  00010	81 c6 c0 03 00
	00		 add	 esi, 960		; 000003c0H
$LN17@Destroy_ra:

; 96   : 	for (; _First != _Last; ++_First)

  00016	3b 75 0c	 cmp	 esi, DWORD PTR __Last$[ebp]
  00019	75 ee		 jne	 SHORT $LL3@Destroy_ra
  0001b	5e		 pop	 esi

; 98   : 	}

  0001c	5d		 pop	 ebp
  0001d	c3		 ret	 0
??$_Destroy_range@V?$allocator@UCharInfoData@@@std@@@std@@YAXPAUCharInfoData@@0AAV?$allocator@UCharInfoData@@@0@U_Nonscalar_ptr_iterator_tag@0@@Z ENDP ; std::_Destroy_range<std::allocator<CharInfoData> >
_TEXT	ENDS
PUBLIC	??$_Uninit_move@PAUCharInfoData@@PAU1@V?$allocator@UCharInfoData@@@std@@U1@@std@@YAPAUCharInfoData@@PAU1@00AAV?$allocator@UCharInfoData@@@0@0U_Nonscalar_ptr_iterator_tag@0@@Z ; std::_Uninit_move<CharInfoData *,CharInfoData *,std::allocator<CharInfoData>,CharInfoData>
;	COMDAT xdata$x
xdata$x	SEGMENT
__catchsym$??$_Uninit_move@PAUCharInfoData@@PAU1@V?$allocator@UCharInfoData@@@std@@U1@@std@@YAPAUCharInfoData@@PAU1@00AAV?$allocator@UCharInfoData@@@0@0U_Nonscalar_ptr_iterator_tag@0@@Z$2 DD 040H
	DD	00H
	DD	00H
	DD	FLAT:__catch$??$_Uninit_move@PAUCharInfoData@@PAU1@V?$allocator@UCharInfoData@@@std@@U1@@std@@YAPAUCharInfoData@@PAU1@00AAV?$allocator@UCharInfoData@@@0@0U_Nonscalar_ptr_iterator_tag@0@@Z$0
__unwindtable$??$_Uninit_move@PAUCharInfoData@@PAU1@V?$allocator@UCharInfoData@@@std@@U1@@std@@YAPAUCharInfoData@@PAU1@00AAV?$allocator@UCharInfoData@@@0@0U_Nonscalar_ptr_iterator_tag@0@@Z DD 0ffffffffH
	DD	00H
	DD	0ffffffffH
	DD	00H
__tryblocktable$??$_Uninit_move@PAUCharInfoData@@PAU1@V?$allocator@UCharInfoData@@@std@@U1@@std@@YAPAUCharInfoData@@PAU1@00AAV?$allocator@UCharInfoData@@@0@0U_Nonscalar_ptr_iterator_tag@0@@Z DD 00H
	DD	00H
	DD	01H
	DD	01H
	DD	FLAT:__catchsym$??$_Uninit_move@PAUCharInfoData@@PAU1@V?$allocator@UCharInfoData@@@std@@U1@@std@@YAPAUCharInfoData@@PAU1@00AAV?$allocator@UCharInfoData@@@0@0U_Nonscalar_ptr_iterator_tag@0@@Z$2
__ehfuncinfo$??$_Uninit_move@PAUCharInfoData@@PAU1@V?$allocator@UCharInfoData@@@std@@U1@@std@@YAPAUCharInfoData@@PAU1@00AAV?$allocator@UCharInfoData@@@0@0U_Nonscalar_ptr_iterator_tag@0@@Z DD 019930522H
	DD	02H
	DD	FLAT:__unwindtable$??$_Uninit_move@PAUCharInfoData@@PAU1@V?$allocator@UCharInfoData@@@std@@U1@@std@@YAPAUCharInfoData@@PAU1@00AAV?$allocator@UCharInfoData@@@0@0U_Nonscalar_ptr_iterator_tag@0@@Z
	DD	01H
	DD	FLAT:__tryblocktable$??$_Uninit_move@PAUCharInfoData@@PAU1@V?$allocator@UCharInfoData@@@std@@U1@@std@@YAPAUCharInfoData@@PAU1@00AAV?$allocator@UCharInfoData@@@0@0U_Nonscalar_ptr_iterator_tag@0@@Z
	DD	2 DUP(00H)
	DD	00H
	DD	01H
; Function compile flags: /Ogsp
; File c:\program files (x86)\microsoft visual studio 10.0\vc\include\memory
xdata$x	ENDS
;	COMDAT ??$_Uninit_move@PAUCharInfoData@@PAU1@V?$allocator@UCharInfoData@@@std@@U1@@std@@YAPAUCharInfoData@@PAU1@00AAV?$allocator@UCharInfoData@@@0@0U_Nonscalar_ptr_iterator_tag@0@@Z
_TEXT	SEGMENT
__Next$ = -20						; size = 4
__$EHRec$ = -16						; size = 16
__First$ = 8						; size = 4
__Last$ = 12						; size = 4
__Dest$ = 16						; size = 4
__Al$ = 20						; size = 4
___formal$ = 24						; size = 4
___formal$ = 28						; size = 1
??$_Uninit_move@PAUCharInfoData@@PAU1@V?$allocator@UCharInfoData@@@std@@U1@@std@@YAPAUCharInfoData@@PAU1@00AAV?$allocator@UCharInfoData@@@0@0U_Nonscalar_ptr_iterator_tag@0@@Z PROC ; std::_Uninit_move<CharInfoData *,CharInfoData *,std::allocator<CharInfoData>,CharInfoData>, COMDAT

; 424  : 	{	// move [_First, _Last) to raw _Dest, using _Al, arbitrary type

  00000	6a 08		 push	 8
  00002	b8 00 00 00 00	 mov	 eax, __ehhandler$??$_Uninit_move@PAUCharInfoData@@PAU1@V?$allocator@UCharInfoData@@@std@@U1@@std@@YAPAUCharInfoData@@PAU1@00AAV?$allocator@UCharInfoData@@@0@0U_Nonscalar_ptr_iterator_tag@0@@Z
  00007	e8 00 00 00 00	 call	 __EH_prolog3_catch

; 425  : 	_DEBUG_RANGE(_First, _Last);
; 426  : 	_DEBUG_POINTER(_Dest);
; 427  : 	_FwdIt _Next = _Dest;

  0000c	8b 45 10	 mov	 eax, DWORD PTR __Dest$[ebp]

; 428  : 
; 429  : 	_TRY_BEGIN

  0000f	83 65 fc 00	 and	 DWORD PTR __$EHRec$[ebp+12], 0
  00013	8b 7d 08	 mov	 edi, DWORD PTR __First$[ebp]
  00016	89 45 ec	 mov	 DWORD PTR __Next$[ebp], eax
  00019	be c0 03 00 00	 mov	 esi, 960		; 000003c0H
$LL6@Uninit_mov:

; 430  : 	for (; _First != _Last; ++_Dest, ++_First)

  0001e	3b 7d 0c	 cmp	 edi, DWORD PTR __Last$[ebp]
  00021	74 3a		 je	 SHORT $LN4@Uninit_mov

; 431  : 		_Cons_val(_Al, _Dest, (_Valty &&)*_First);

  00023	57		 push	 edi
  00024	ff 75 10	 push	 DWORD PTR __Dest$[ebp]
  00027	ff 75 14	 push	 DWORD PTR __Al$[ebp]
  0002a	e8 00 00 00 00	 call	 ??$_Cons_val@V?$allocator@UCharInfoData@@@std@@UCharInfoData@@U3@@std@@YAXAAV?$allocator@UCharInfoData@@@0@PAUCharInfoData@@$$QAU2@@Z ; std::_Cons_val<std::allocator<CharInfoData>,CharInfoData,CharInfoData>
  0002f	01 75 10	 add	 DWORD PTR __Dest$[ebp], esi
  00032	83 c4 0c	 add	 esp, 12			; 0000000cH
  00035	03 fe		 add	 edi, esi
  00037	eb e5		 jmp	 SHORT $LL6@Uninit_mov
__catch$??$_Uninit_move@PAUCharInfoData@@PAU1@V?$allocator@UCharInfoData@@@std@@U1@@std@@YAPAUCharInfoData@@PAU1@00AAV?$allocator@UCharInfoData@@@0@0U_Nonscalar_ptr_iterator_tag@0@@Z$0:

; 432  : 	_CATCH_ALL
; 433  : 	for (; _Next != _Dest; ++_Next)

  00039	8b 7d ec	 mov	 edi, DWORD PTR __Next$[ebp]
  0003c	3b 7d 10	 cmp	 edi, DWORD PTR __Dest$[ebp]
  0003f	74 13		 je	 SHORT $LN1@Uninit_mov
  00041	be c0 03 00 00	 mov	 esi, 960		; 000003c0H
$LL3@Uninit_mov:

; 434  : 		_Dest_val(_Al, _Next);

  00046	8b cf		 mov	 ecx, edi
  00048	e8 00 00 00 00	 call	 ??1CharInfoData@@QAE@XZ
  0004d	03 fe		 add	 edi, esi
  0004f	3b 7d 10	 cmp	 edi, DWORD PTR __Dest$[ebp]
  00052	75 f2		 jne	 SHORT $LL3@Uninit_mov
$LN1@Uninit_mov:

; 435  : 	_RERAISE;

  00054	6a 00		 push	 0
  00056	6a 00		 push	 0
  00058	e8 00 00 00 00	 call	 __CxxThrowException@8
$LN29@Uninit_mov:
$LN4@Uninit_mov:

; 436  : 	_CATCH_END
; 437  : 	return (_Dest);

  0005d	8b 45 10	 mov	 eax, DWORD PTR __Dest$[ebp]

; 438  : 	}

  00060	e8 00 00 00 00	 call	 __EH_epilog3
  00065	c3		 ret	 0
$LN28@Uninit_mov:
_TEXT	ENDS
;	COMDAT text$x
text$x	SEGMENT
__ehhandler$??$_Uninit_move@PAUCharInfoData@@PAU1@V?$allocator@UCharInfoData@@@std@@U1@@std@@YAPAUCharInfoData@@PAU1@00AAV?$allocator@UCharInfoData@@@0@0U_Nonscalar_ptr_iterator_tag@0@@Z:
  00000	8b 54 24 08	 mov	 edx, DWORD PTR [esp+8]
  00004	8d 42 0c	 lea	 eax, DWORD PTR [edx+12]
  00007	8b 4a e8	 mov	 ecx, DWORD PTR [edx-24]
  0000a	33 c8		 xor	 ecx, eax
  0000c	e8 00 00 00 00	 call	 @__security_check_cookie@4
  00011	b8 00 00 00 00	 mov	 eax, OFFSET __ehfuncinfo$??$_Uninit_move@PAUCharInfoData@@PAU1@V?$allocator@UCharInfoData@@@std@@U1@@std@@YAPAUCharInfoData@@PAU1@00AAV?$allocator@UCharInfoData@@@0@0U_Nonscalar_ptr_iterator_tag@0@@Z
  00016	e9 00 00 00 00	 jmp	 ___CxxFrameHandler3
text$x	ENDS
??$_Uninit_move@PAUCharInfoData@@PAU1@V?$allocator@UCharInfoData@@@std@@U1@@std@@YAPAUCharInfoData@@PAU1@00AAV?$allocator@UCharInfoData@@@0@0U_Nonscalar_ptr_iterator_tag@0@@Z ENDP ; std::_Uninit_move<CharInfoData *,CharInfoData *,std::allocator<CharInfoData>,CharInfoData>
PUBLIC	??$_Median@PAUCharInfoData@@VCharInfoSort@@@std@@YAXPAUCharInfoData@@00VCharInfoSort@@@Z ; std::_Median<CharInfoData *,CharInfoSort>
; Function compile flags: /Ogsp
; File c:\program files (x86)\microsoft visual studio 10.0\vc\include\algorithm
;	COMDAT ??$_Median@PAUCharInfoData@@VCharInfoSort@@@std@@YAXPAUCharInfoData@@00VCharInfoSort@@@Z
_TEXT	SEGMENT
tv200 = 8						; size = 4
__First$ = 8						; size = 4
__Mid$ = 12						; size = 4
tv203 = 16						; size = 4
__Last$ = 16						; size = 4
__Pred$ = 20						; size = 1
??$_Median@PAUCharInfoData@@VCharInfoSort@@@std@@YAXPAUCharInfoData@@00VCharInfoSort@@@Z PROC ; std::_Median<CharInfoData *,CharInfoSort>, COMDAT

; 3695 : 	{	// sort median element to middle

  00000	55		 push	 ebp
  00001	8b ec		 mov	 ebp, esp

; 3696 : 	if (40 < _Last - _First)

  00003	8b 4d 08	 mov	 ecx, DWORD PTR __First$[ebp]
  00006	53		 push	 ebx
  00007	8b 5d 10	 mov	 ebx, DWORD PTR __Last$[ebp]
  0000a	8b c3		 mov	 eax, ebx
  0000c	2b c1		 sub	 eax, ecx
  0000e	56		 push	 esi
  0000f	99		 cdq
  00010	be c0 03 00 00	 mov	 esi, 960		; 000003c0H
  00015	f7 fe		 idiv	 esi
  00017	83 f8 28	 cmp	 eax, 40			; 00000028H
  0001a	7e 6e		 jle	 SHORT $LN2@Median

; 3697 : 		{	// median of nine
; 3698 : 		size_t _Step = (_Last - _First + 1) / 8;

  0001c	40		 inc	 eax
  0001d	99		 cdq
  0001e	83 e2 07	 and	 edx, 7
  00021	03 c2		 add	 eax, edx
  00023	57		 push	 edi

; 3699 : 		_Med3(_First, _First + _Step, _First + 2 * _Step, _Pred);

  00024	ff 75 14	 push	 DWORD PTR __Pred$[ebp]
  00027	c1 f8 03	 sar	 eax, 3
  0002a	8b f8		 mov	 edi, eax
  0002c	8b f0		 mov	 esi, eax
  0002e	69 ff 80 07 00
	00		 imul	 edi, 1920		; 00000780H
  00034	69 f6 c0 03 00
	00		 imul	 esi, 960		; 000003c0H
  0003a	8d 14 0f	 lea	 edx, DWORD PTR [edi+ecx]
  0003d	8d 04 0e	 lea	 eax, DWORD PTR [esi+ecx]
  00040	52		 push	 edx
  00041	50		 push	 eax
  00042	51		 push	 ecx
  00043	89 45 08	 mov	 DWORD PTR tv200[ebp], eax
  00046	e8 00 00 00 00	 call	 ??$_Med3@PAUCharInfoData@@VCharInfoSort@@@std@@YAXPAUCharInfoData@@00VCharInfoSort@@@Z ; std::_Med3<CharInfoData *,CharInfoSort>

; 3700 : 		_Med3(_Mid - _Step, _Mid, _Mid + _Step, _Pred);

  0004b	ff 75 14	 push	 DWORD PTR __Pred$[ebp]
  0004e	8b 45 0c	 mov	 eax, DWORD PTR __Mid$[ebp]
  00051	8d 0c 06	 lea	 ecx, DWORD PTR [esi+eax]
  00054	51		 push	 ecx
  00055	50		 push	 eax
  00056	2b c6		 sub	 eax, esi
  00058	50		 push	 eax
  00059	e8 00 00 00 00	 call	 ??$_Med3@PAUCharInfoData@@VCharInfoSort@@@std@@YAXPAUCharInfoData@@00VCharInfoSort@@@Z ; std::_Med3<CharInfoData *,CharInfoSort>

; 3701 : 		_Med3(_Last - 2 * _Step, _Last - _Step, _Last, _Pred);

  0005e	ff 75 14	 push	 DWORD PTR __Pred$[ebp]
  00061	89 5d 10	 mov	 DWORD PTR tv203[ebp], ebx
  00064	29 75 10	 sub	 DWORD PTR tv203[ebp], esi
  00067	53		 push	 ebx
  00068	ff 75 10	 push	 DWORD PTR tv203[ebp]
  0006b	2b df		 sub	 ebx, edi
  0006d	53		 push	 ebx
  0006e	e8 00 00 00 00	 call	 ??$_Med3@PAUCharInfoData@@VCharInfoSort@@@std@@YAXPAUCharInfoData@@00VCharInfoSort@@@Z ; std::_Med3<CharInfoData *,CharInfoSort>

; 3702 : 		_Med3(_First + _Step, _Mid, _Last - _Step, _Pred);

  00073	ff 75 14	 push	 DWORD PTR __Pred$[ebp]
  00076	ff 75 10	 push	 DWORD PTR tv203[ebp]
  00079	ff 75 0c	 push	 DWORD PTR __Mid$[ebp]
  0007c	ff 75 08	 push	 DWORD PTR tv200[ebp]
  0007f	e8 00 00 00 00	 call	 ??$_Med3@PAUCharInfoData@@VCharInfoSort@@@std@@YAXPAUCharInfoData@@00VCharInfoSort@@@Z ; std::_Med3<CharInfoData *,CharInfoSort>
  00084	83 c4 40	 add	 esp, 64			; 00000040H
  00087	5f		 pop	 edi

; 3703 : 		}
; 3704 : 	else

  00088	eb 10		 jmp	 SHORT $LN1@Median
$LN2@Median:

; 3705 : 		_Med3(_First, _Mid, _Last, _Pred);

  0008a	ff 75 14	 push	 DWORD PTR __Pred$[ebp]
  0008d	53		 push	 ebx
  0008e	ff 75 0c	 push	 DWORD PTR __Mid$[ebp]
  00091	51		 push	 ecx
  00092	e8 00 00 00 00	 call	 ??$_Med3@PAUCharInfoData@@VCharInfoSort@@@std@@YAXPAUCharInfoData@@00VCharInfoSort@@@Z ; std::_Med3<CharInfoData *,CharInfoSort>
  00097	83 c4 10	 add	 esp, 16			; 00000010H
$LN1@Median:
  0009a	5e		 pop	 esi
  0009b	5b		 pop	 ebx

; 3706 : 	}

  0009c	5d		 pop	 ebp
  0009d	c3		 ret	 0
??$_Median@PAUCharInfoData@@VCharInfoSort@@@std@@YAXPAUCharInfoData@@00VCharInfoSort@@@Z ENDP ; std::_Median<CharInfoData *,CharInfoSort>
_TEXT	ENDS
PUBLIC	__First$GSCopy$
PUBLIC	??$_Make_heap@PAUCharInfoData@@HU1@VCharInfoSort@@@std@@YAXPAUCharInfoData@@0VCharInfoSort@@PAH0@Z ; std::_Make_heap<CharInfoData *,int,CharInfoData,CharInfoSort>
;	COMDAT xdata$x
; File c:\program files (x86)\microsoft visual studio 10.0\vc\include\utility
xdata$x	SEGMENT
__unwindtable$??$_Make_heap@PAUCharInfoData@@HU1@VCharInfoSort@@@std@@YAXPAUCharInfoData@@0VCharInfoSort@@PAH0@Z DD 0ffffffffH
	DD	FLAT:__unwindfunclet$??$_Make_heap@PAUCharInfoData@@HU1@VCharInfoSort@@@std@@YAXPAUCharInfoData@@0VCharInfoSort@@PAH0@Z$0
__ehfuncinfo$??$_Make_heap@PAUCharInfoData@@HU1@VCharInfoSort@@@std@@YAXPAUCharInfoData@@0VCharInfoSort@@PAH0@Z DD 019930522H
	DD	01H
	DD	FLAT:__unwindtable$??$_Make_heap@PAUCharInfoData@@HU1@VCharInfoSort@@@std@@YAXPAUCharInfoData@@0VCharInfoSort@@PAH0@Z
	DD	2 DUP(00H)
	DD	2 DUP(00H)
	DD	00H
	DD	01H
; Function compile flags: /Ogsp
; File c:\program files (x86)\microsoft visual studio 10.0\vc\include\algorithm
xdata$x	ENDS
;	COMDAT ??$_Make_heap@PAUCharInfoData@@HU1@VCharInfoSort@@@std@@YAXPAUCharInfoData@@0VCharInfoSort@@PAH0@Z
_TEXT	SEGMENT
__Bottom$ = -984					; size = 4
__First$GSCopy$ = -980					; size = 4
__Val$516831 = -976					; size = 960
__$EHRec$ = -12						; size = 12
__First$ = 8						; size = 4
__Last$ = 12						; size = 4
__Pred$ = 16						; size = 1
___formal$ = 20						; size = 4
___formal$ = 24						; size = 4
??$_Make_heap@PAUCharInfoData@@HU1@VCharInfoSort@@@std@@YAXPAUCharInfoData@@0VCharInfoSort@@PAH0@Z PROC ; std::_Make_heap<CharInfoData *,int,CharInfoData,CharInfoSort>, COMDAT

; 2658 : 	{	// make nontrivial [_First, _Last) into a heap, using _Pred

  00000	68 cc 03 00 00	 push	 972			; 000003ccH
  00005	b8 00 00 00 00	 mov	 eax, __ehhandler$??$_Make_heap@PAUCharInfoData@@HU1@VCharInfoSort@@@std@@YAXPAUCharInfoData@@0VCharInfoSort@@PAH0@Z
  0000a	e8 00 00 00 00	 call	 __EH_prolog3_GS
  0000f	8b 4d 08	 mov	 ecx, DWORD PTR __First$[ebp]
  00012	8b 45 0c	 mov	 eax, DWORD PTR __Last$[ebp]

; 2659 : 	_Diff _Bottom = _Last - _First;

  00015	2b c1		 sub	 eax, ecx
  00017	99		 cdq
  00018	be c0 03 00 00	 mov	 esi, 960		; 000003c0H
  0001d	f7 fe		 idiv	 esi
  0001f	89 8d 2c fc ff
	ff		 mov	 DWORD PTR __First$GSCopy$[ebp], ecx
  00025	89 85 28 fc ff
	ff		 mov	 DWORD PTR __Bottom$[ebp], eax

; 2660 : 	for (_Diff _Hole = _Bottom / 2; 0 < _Hole; )

  0002b	99		 cdq
  0002c	2b c2		 sub	 eax, edx
  0002e	8b f0		 mov	 esi, eax
  00030	d1 fe		 sar	 esi, 1
  00032	85 f6		 test	 esi, esi
  00034	7e 53		 jle	 SHORT $LN1@Make_heap

; 2661 : 		{	// reheap top half, bottom to top
; 2662 : 		--_Hole;
; 2663 : 		_Ty _Val = _Move(*(_First + _Hole));

  00036	8b fe		 mov	 edi, esi
  00038	69 ff c0 03 00
	00		 imul	 edi, 960		; 000003c0H
  0003e	03 f9		 add	 edi, ecx
$LL2@Make_heap:
  00040	81 ef c0 03 00
	00		 sub	 edi, 960		; 000003c0H
  00046	57		 push	 edi
  00047	8d 8d 30 fc ff
	ff		 lea	 ecx, DWORD PTR __Val$516831[ebp]
  0004d	4e		 dec	 esi
  0004e	e8 00 00 00 00	 call	 ??0CharInfoData@@QAE@ABU0@@Z

; 2664 : 		_Adjust_heap(_First, _Hole, _Bottom,
; 2665 : 			_Move(_Val), _Pred);

  00053	ff 75 10	 push	 DWORD PTR __Pred$[ebp]
  00056	83 65 fc 00	 and	 DWORD PTR __$EHRec$[ebp+8], 0
  0005a	8d 85 30 fc ff
	ff		 lea	 eax, DWORD PTR __Val$516831[ebp]
  00060	50		 push	 eax
  00061	ff b5 28 fc ff
	ff		 push	 DWORD PTR __Bottom$[ebp]
  00067	56		 push	 esi
  00068	ff b5 2c fc ff
	ff		 push	 DWORD PTR __First$GSCopy$[ebp]
  0006e	e8 00 00 00 00	 call	 ??$_Adjust_heap@PAUCharInfoData@@HU1@VCharInfoSort@@@std@@YAXPAUCharInfoData@@HH$$QAU1@VCharInfoSort@@@Z ; std::_Adjust_heap<CharInfoData *,int,CharInfoData,CharInfoSort>

; 2666 : 		}

  00073	83 4d fc ff	 or	 DWORD PTR __$EHRec$[ebp+8], -1
  00077	83 c4 14	 add	 esp, 20			; 00000014H
  0007a	8d 8d 30 fc ff
	ff		 lea	 ecx, DWORD PTR __Val$516831[ebp]
  00080	e8 00 00 00 00	 call	 ??1CharInfoData@@QAE@XZ
  00085	85 f6		 test	 esi, esi
  00087	7f b7		 jg	 SHORT $LL2@Make_heap
$LN1@Make_heap:

; 2667 : 	}

  00089	e8 00 00 00 00	 call	 __EH_epilog3_GS
  0008e	c3		 ret	 0
_TEXT	ENDS
;	COMDAT text$x
text$x	SEGMENT
__unwindfunclet$??$_Make_heap@PAUCharInfoData@@HU1@VCharInfoSort@@@std@@YAXPAUCharInfoData@@0VCharInfoSort@@PAH0@Z$0:
  00000	8d 8d 30 fc ff
	ff		 lea	 ecx, DWORD PTR __Val$516831[ebp]
  00006	e9 00 00 00 00	 jmp	 ??1CharInfoData@@QAE@XZ
__ehhandler$??$_Make_heap@PAUCharInfoData@@HU1@VCharInfoSort@@@std@@YAXPAUCharInfoData@@0VCharInfoSort@@PAH0@Z:
  0000b	8b 54 24 08	 mov	 edx, DWORD PTR [esp+8]
  0000f	8d 42 0c	 lea	 eax, DWORD PTR [edx+12]
  00012	8b 8a 24 fc ff
	ff		 mov	 ecx, DWORD PTR [edx-988]
  00018	33 c8		 xor	 ecx, eax
  0001a	e8 00 00 00 00	 call	 @__security_check_cookie@4
  0001f	8b 4a fc	 mov	 ecx, DWORD PTR [edx-4]
  00022	33 c8		 xor	 ecx, eax
  00024	e8 00 00 00 00	 call	 @__security_check_cookie@4
  00029	b8 00 00 00 00	 mov	 eax, OFFSET __ehfuncinfo$??$_Make_heap@PAUCharInfoData@@HU1@VCharInfoSort@@@std@@YAXPAUCharInfoData@@0VCharInfoSort@@PAH0@Z
  0002e	e9 00 00 00 00	 jmp	 ___CxxFrameHandler3
text$x	ENDS
??$_Make_heap@PAUCharInfoData@@HU1@VCharInfoSort@@@std@@YAXPAUCharInfoData@@0VCharInfoSort@@PAH0@Z ENDP ; std::_Make_heap<CharInfoData *,int,CharInfoData,CharInfoSort>
PUBLIC	__First$GSCopy$
PUBLIC	??$_Insertion_sort1@PAUCharInfoData@@VCharInfoSort@@U1@@std@@YAXPAUCharInfoData@@0VCharInfoSort@@0@Z ; std::_Insertion_sort1<CharInfoData *,CharInfoSort,CharInfoData>
;	COMDAT xdata$x
; File c:\program files (x86)\microsoft visual studio 10.0\vc\include\utility
xdata$x	SEGMENT
__unwindtable$??$_Insertion_sort1@PAUCharInfoData@@VCharInfoSort@@U1@@std@@YAXPAUCharInfoData@@0VCharInfoSort@@0@Z DD 0ffffffffH
	DD	FLAT:__unwindfunclet$??$_Insertion_sort1@PAUCharInfoData@@VCharInfoSort@@U1@@std@@YAXPAUCharInfoData@@0VCharInfoSort@@0@Z$0
__ehfuncinfo$??$_Insertion_sort1@PAUCharInfoData@@VCharInfoSort@@U1@@std@@YAXPAUCharInfoData@@0VCharInfoSort@@0@Z DD 019930522H
	DD	01H
	DD	FLAT:__unwindtable$??$_Insertion_sort1@PAUCharInfoData@@VCharInfoSort@@U1@@std@@YAXPAUCharInfoData@@0VCharInfoSort@@0@Z
	DD	2 DUP(00H)
	DD	2 DUP(00H)
	DD	00H
	DD	01H
; Function compile flags: /Ogsp
; File c:\program files (x86)\microsoft visual studio 10.0\vc\include\algorithm
xdata$x	ENDS
;	COMDAT ??$_Insertion_sort1@PAUCharInfoData@@VCharInfoSort@@U1@@std@@YAXPAUCharInfoData@@0VCharInfoSort@@0@Z
_TEXT	SEGMENT
__First$GSCopy$ = -988					; size = 4
__Cat$523887 = -984					; size = 1
__Next1$516865 = -984					; size = 4
__First1$516876 = -980					; size = 4
__Val$516866 = -976					; size = 960
__$EHRec$ = -12						; size = 12
__First$ = 8						; size = 4
__Last$ = 12						; size = 4
__Pred$ = 16						; size = 1
___formal$ = 20						; size = 4
??$_Insertion_sort1@PAUCharInfoData@@VCharInfoSort@@U1@@std@@YAXPAUCharInfoData@@0VCharInfoSort@@0@Z PROC ; std::_Insertion_sort1<CharInfoData *,CharInfoSort,CharInfoData>, COMDAT

; 3650 : 	{	// insertion sort [_First, _Last), using _Pred

  00000	68 d0 03 00 00	 push	 976			; 000003d0H
  00005	b8 00 00 00 00	 mov	 eax, __ehhandler$??$_Insertion_sort1@PAUCharInfoData@@VCharInfoSort@@U1@@std@@YAXPAUCharInfoData@@0VCharInfoSort@@0@Z
  0000a	e8 00 00 00 00	 call	 __EH_prolog3_GS
  0000f	8b 7d 08	 mov	 edi, DWORD PTR __First$[ebp]

; 3669 : 				}
; 3670 : 			}

  00012	89 bd 24 fc ff
	ff		 mov	 DWORD PTR __First$GSCopy$[ebp], edi
  00018	3b 7d 0c	 cmp	 edi, DWORD PTR __Last$[ebp]
  0001b	0f 84 da 00 00
	00		 je	 $LN6@Insertion_

; 3651 : 	if (_First != _Last)
; 3652 : 		for (_BidIt _Next = _First; ++_Next != _Last; )

  00021	81 c7 c0 03 00
	00		 add	 edi, 960		; 000003c0H
  00027	3b 7d 0c	 cmp	 edi, DWORD PTR __Last$[ebp]
  0002a	0f 84 cb 00 00
	00		 je	 $LN6@Insertion_
  00030	8d 9f 40 fc ff
	ff		 lea	 ebx, DWORD PTR [edi-960]
  00036	be c0 03 00 00	 mov	 esi, 960		; 000003c0H
$LL7@Insertion_:

; 3653 : 			{	// order next element
; 3654 : 			_BidIt _Next1 = _Next;
; 3655 : 			_Ty _Val = _Move(*_Next);

  0003b	57		 push	 edi
  0003c	8d 8d 30 fc ff
	ff		 lea	 ecx, DWORD PTR __Val$516866[ebp]
  00042	89 bd 28 fc ff
	ff		 mov	 DWORD PTR __Next1$516865[ebp], edi
  00048	e8 00 00 00 00	 call	 ??0CharInfoData@@QAE@ABU0@@Z

; 3656 : 
; 3657 : 			if (_DEBUG_LT_PRED(_Pred, _Val, *_First))

  0004d	ff b5 24 fc ff
	ff		 push	 DWORD PTR __First$GSCopy$[ebp]
  00053	83 65 fc 00	 and	 DWORD PTR __$EHRec$[ebp+8], 0
  00057	8d 85 30 fc ff
	ff		 lea	 eax, DWORD PTR __Val$516866[ebp]
  0005d	50		 push	 eax
  0005e	8d 4d 10	 lea	 ecx, DWORD PTR __Pred$[ebp]
  00061	e8 00 00 00 00	 call	 ??RCharInfoSort@@QBE_NABUCharInfoData@@0@Z ; CharInfoSort::operator()
  00066	84 c0		 test	 al, al
  00068	74 24		 je	 SHORT $LN5@Insertion_

; 3658 : 				{	// found new earliest element, move to front
; 3659 : 				_Move_backward(_First, _Next, ++_Next1);

  0006a	ff b5 28 fc ff
	ff		 push	 DWORD PTR __Cat$523887[ebp]
  00070	8d 83 80 07 00
	00		 lea	 eax, DWORD PTR [ebx+1920]
  00076	50		 push	 eax
  00077	57		 push	 edi
  00078	ff b5 24 fc ff
	ff		 push	 DWORD PTR __First$GSCopy$[ebp]
  0007e	e8 00 00 00 00	 call	 ??$_Move_backward@PAUCharInfoData@@PAU1@@std@@YAPAUCharInfoData@@PAU1@00U_Nonscalar_ptr_iterator_tag@0@@Z ; std::_Move_backward<CharInfoData *,CharInfoData *>

; 3660 : 				*_First = _Move(_Val);

  00083	8b 8d 24 fc ff
	ff		 mov	 ecx, DWORD PTR __First$GSCopy$[ebp]
  00089	83 c4 10	 add	 esp, 16			; 00000010H

; 3661 : 				}
; 3662 : 			else

  0008c	eb 45		 jmp	 SHORT $LN29@Insertion_
$LN5@Insertion_:

; 3663 : 				{	// look for insertion point after first
; 3664 : 				for (_BidIt _First1 = _Next1;
; 3665 : 					_DEBUG_LT_PRED(_Pred, _Val, *--_First1);
; 3666 : 					_Next1 = _First1)

  0008e	89 9d 2c fc ff
	ff		 mov	 DWORD PTR __First1$516876[ebp], ebx
  00094	53		 push	 ebx
  00095	eb 23		 jmp	 SHORT $LN31@Insertion_
$LL3@Insertion_:

; 3667 : 					*_Next1 = _Move(*_First1);	// move hole down

  00097	ff b5 2c fc ff
	ff		 push	 DWORD PTR __First1$516876[ebp]
  0009d	e8 00 00 00 00	 call	 ??4CharInfoData@@QAEAAU0@ABU0@@Z ; CharInfoData::operator=
  000a2	8b 85 2c fc ff
	ff		 mov	 eax, DWORD PTR __First1$516876[ebp]
  000a8	29 b5 2c fc ff
	ff		 sub	 DWORD PTR __First1$516876[ebp], esi
  000ae	ff b5 2c fc ff
	ff		 push	 DWORD PTR __First1$516876[ebp]
  000b4	89 85 28 fc ff
	ff		 mov	 DWORD PTR __Next1$516865[ebp], eax
$LN31@Insertion_:

; 3663 : 				{	// look for insertion point after first
; 3664 : 				for (_BidIt _First1 = _Next1;
; 3665 : 					_DEBUG_LT_PRED(_Pred, _Val, *--_First1);
; 3666 : 					_Next1 = _First1)

  000ba	8d 85 30 fc ff
	ff		 lea	 eax, DWORD PTR __Val$516866[ebp]
  000c0	50		 push	 eax
  000c1	8d 4d 10	 lea	 ecx, DWORD PTR __Pred$[ebp]
  000c4	e8 00 00 00 00	 call	 ??RCharInfoSort@@QBE_NABUCharInfoData@@0@Z ; CharInfoSort::operator()

; 3668 : 				*_Next1 = _Move(_Val);	// insert element in hole

  000c9	8b 8d 28 fc ff
	ff		 mov	 ecx, DWORD PTR __Next1$516865[ebp]
  000cf	84 c0		 test	 al, al
  000d1	75 c4		 jne	 SHORT $LL3@Insertion_
$LN29@Insertion_:
  000d3	8d 85 30 fc ff
	ff		 lea	 eax, DWORD PTR __Val$516866[ebp]
  000d9	50		 push	 eax
  000da	e8 00 00 00 00	 call	 ??4CharInfoData@@QAEAAU0@ABU0@@Z ; CharInfoData::operator=

; 3669 : 				}
; 3670 : 			}

  000df	83 4d fc ff	 or	 DWORD PTR __$EHRec$[ebp+8], -1
  000e3	8d 8d 30 fc ff
	ff		 lea	 ecx, DWORD PTR __Val$516866[ebp]
  000e9	e8 00 00 00 00	 call	 ??1CharInfoData@@QAE@XZ
  000ee	03 fe		 add	 edi, esi
  000f0	03 de		 add	 ebx, esi
  000f2	3b 7d 0c	 cmp	 edi, DWORD PTR __Last$[ebp]
  000f5	0f 85 40 ff ff
	ff		 jne	 $LL7@Insertion_
$LN6@Insertion_:

; 3671 : 	}

  000fb	e8 00 00 00 00	 call	 __EH_epilog3_GS
  00100	c3		 ret	 0
_TEXT	ENDS
;	COMDAT text$x
text$x	SEGMENT
__unwindfunclet$??$_Insertion_sort1@PAUCharInfoData@@VCharInfoSort@@U1@@std@@YAXPAUCharInfoData@@0VCharInfoSort@@0@Z$0:
  00000	8d 8d 30 fc ff
	ff		 lea	 ecx, DWORD PTR __Val$516866[ebp]
  00006	e9 00 00 00 00	 jmp	 ??1CharInfoData@@QAE@XZ
__ehhandler$??$_Insertion_sort1@PAUCharInfoData@@VCharInfoSort@@U1@@std@@YAXPAUCharInfoData@@0VCharInfoSort@@0@Z:
  0000b	8b 54 24 08	 mov	 edx, DWORD PTR [esp+8]
  0000f	8d 42 0c	 lea	 eax, DWORD PTR [edx+12]
  00012	8b 8a 20 fc ff
	ff		 mov	 ecx, DWORD PTR [edx-992]
  00018	33 c8		 xor	 ecx, eax
  0001a	e8 00 00 00 00	 call	 @__security_check_cookie@4
  0001f	8b 4a fc	 mov	 ecx, DWORD PTR [edx-4]
  00022	33 c8		 xor	 ecx, eax
  00024	e8 00 00 00 00	 call	 @__security_check_cookie@4
  00029	b8 00 00 00 00	 mov	 eax, OFFSET __ehfuncinfo$??$_Insertion_sort1@PAUCharInfoData@@VCharInfoSort@@U1@@std@@YAXPAUCharInfoData@@0VCharInfoSort@@0@Z
  0002e	e9 00 00 00 00	 jmp	 ___CxxFrameHandler3
text$x	ENDS
??$_Insertion_sort1@PAUCharInfoData@@VCharInfoSort@@U1@@std@@YAXPAUCharInfoData@@0VCharInfoSort@@0@Z ENDP ; std::_Insertion_sort1<CharInfoData *,CharInfoSort,CharInfoData>
PUBLIC	??$_Pop_heap_0@PAUCharInfoData@@U1@VCharInfoSort@@@std@@YAXPAUCharInfoData@@0VCharInfoSort@@0@Z ; std::_Pop_heap_0<CharInfoData *,CharInfoData,CharInfoSort>
;	COMDAT xdata$x
; File c:\program files (x86)\microsoft visual studio 10.0\vc\include\utility
xdata$x	SEGMENT
__unwindtable$??$_Pop_heap_0@PAUCharInfoData@@U1@VCharInfoSort@@@std@@YAXPAUCharInfoData@@0VCharInfoSort@@0@Z DD 0ffffffffH
	DD	FLAT:__unwindfunclet$??$_Pop_heap_0@PAUCharInfoData@@U1@VCharInfoSort@@@std@@YAXPAUCharInfoData@@0VCharInfoSort@@0@Z$0
__ehfuncinfo$??$_Pop_heap_0@PAUCharInfoData@@U1@VCharInfoSort@@@std@@YAXPAUCharInfoData@@0VCharInfoSort@@0@Z DD 019930522H
	DD	01H
	DD	FLAT:__unwindtable$??$_Pop_heap_0@PAUCharInfoData@@U1@VCharInfoSort@@@std@@YAXPAUCharInfoData@@0VCharInfoSort@@0@Z
	DD	2 DUP(00H)
	DD	2 DUP(00H)
	DD	00H
	DD	01H
; Function compile flags: /Ogsp
; File c:\program files (x86)\microsoft visual studio 10.0\vc\include\algorithm
xdata$x	ENDS
;	COMDAT ??$_Pop_heap_0@PAUCharInfoData@@U1@VCharInfoSort@@@std@@YAXPAUCharInfoData@@0VCharInfoSort@@0@Z
_TEXT	SEGMENT
__Val$ = -976						; size = 960
__$EHRec$ = -12						; size = 12
__First$ = 8						; size = 4
__Last$ = 12						; size = 4
__Pred$ = 16						; size = 1
___formal$ = 20						; size = 4
??$_Pop_heap_0@PAUCharInfoData@@U1@VCharInfoSort@@@std@@YAXPAUCharInfoData@@0VCharInfoSort@@0@Z PROC ; std::_Pop_heap_0<CharInfoData *,CharInfoData,CharInfoSort>, COMDAT

; 2601 : 	{	// pop *_First to *(_Last - 1) and reheap, using _Pred

  00000	68 c4 03 00 00	 push	 964			; 000003c4H
  00005	b8 00 00 00 00	 mov	 eax, __ehhandler$??$_Pop_heap_0@PAUCharInfoData@@U1@VCharInfoSort@@@std@@YAXPAUCharInfoData@@0VCharInfoSort@@0@Z
  0000a	e8 00 00 00 00	 call	 __EH_prolog3_GS
  0000f	8b 75 0c	 mov	 esi, DWORD PTR __Last$[ebp]
  00012	8b 7d 08	 mov	 edi, DWORD PTR __First$[ebp]

; 2602 : 	_Ty _Val = _Move(*(_Last - 1));

  00015	81 c6 40 fc ff
	ff		 add	 esi, -960		; fffffc40H
  0001b	56		 push	 esi
  0001c	8d 8d 30 fc ff
	ff		 lea	 ecx, DWORD PTR __Val$[ebp]
  00022	e8 00 00 00 00	 call	 ??0CharInfoData@@QAE@ABU0@@Z
  00027	83 65 fc 00	 and	 DWORD PTR __$EHRec$[ebp+8], 0

; 2603 : 	_Pop_heap(_First, _Last - 1, _Last - 1,
; 2604 : 		_Move(_Val), _Pred, _Dist_type(_First));

  0002b	6a 00		 push	 0
  0002d	ff 75 10	 push	 DWORD PTR __Pred$[ebp]
  00030	8d 85 30 fc ff
	ff		 lea	 eax, DWORD PTR __Val$[ebp]
  00036	50		 push	 eax
  00037	56		 push	 esi
  00038	56		 push	 esi
  00039	57		 push	 edi
  0003a	e8 00 00 00 00	 call	 ??$_Pop_heap@PAUCharInfoData@@HU1@VCharInfoSort@@@std@@YAXPAUCharInfoData@@00$$QAU1@VCharInfoSort@@PAH@Z ; std::_Pop_heap<CharInfoData *,int,CharInfoData,CharInfoSort>

; 2605 : 	}

  0003f	83 4d fc ff	 or	 DWORD PTR __$EHRec$[ebp+8], -1
  00043	83 c4 18	 add	 esp, 24			; 00000018H
  00046	8d 8d 30 fc ff
	ff		 lea	 ecx, DWORD PTR __Val$[ebp]
  0004c	e8 00 00 00 00	 call	 ??1CharInfoData@@QAE@XZ
  00051	e8 00 00 00 00	 call	 __EH_epilog3_GS
  00056	c3		 ret	 0
_TEXT	ENDS
;	COMDAT text$x
text$x	SEGMENT
__unwindfunclet$??$_Pop_heap_0@PAUCharInfoData@@U1@VCharInfoSort@@@std@@YAXPAUCharInfoData@@0VCharInfoSort@@0@Z$0:
  00000	8d 8d 30 fc ff
	ff		 lea	 ecx, DWORD PTR __Val$[ebp]
  00006	e9 00 00 00 00	 jmp	 ??1CharInfoData@@QAE@XZ
__ehhandler$??$_Pop_heap_0@PAUCharInfoData@@U1@VCharInfoSort@@@std@@YAXPAUCharInfoData@@0VCharInfoSort@@0@Z:
  0000b	8b 54 24 08	 mov	 edx, DWORD PTR [esp+8]
  0000f	8d 42 0c	 lea	 eax, DWORD PTR [edx+12]
  00012	8b 8a 2c fc ff
	ff		 mov	 ecx, DWORD PTR [edx-980]
  00018	33 c8		 xor	 ecx, eax
  0001a	e8 00 00 00 00	 call	 @__security_check_cookie@4
  0001f	8b 4a fc	 mov	 ecx, DWORD PTR [edx-4]
  00022	33 c8		 xor	 ecx, eax
  00024	e8 00 00 00 00	 call	 @__security_check_cookie@4
  00029	b8 00 00 00 00	 mov	 eax, OFFSET __ehfuncinfo$??$_Pop_heap_0@PAUCharInfoData@@U1@VCharInfoSort@@@std@@YAXPAUCharInfoData@@0VCharInfoSort@@0@Z
  0002e	e9 00 00 00 00	 jmp	 ___CxxFrameHandler3
text$x	ENDS
??$_Pop_heap_0@PAUCharInfoData@@U1@VCharInfoSort@@@std@@YAXPAUCharInfoData@@0VCharInfoSort@@0@Z ENDP ; std::_Pop_heap_0<CharInfoData *,CharInfoData,CharInfoSort>
PUBLIC	??$_Cons_val@V?$allocator@UCharInfoData@@@std@@UCharInfoData@@ABU3@@std@@YAXAAV?$allocator@UCharInfoData@@@0@PAUCharInfoData@@ABU2@@Z ; std::_Cons_val<std::allocator<CharInfoData>,CharInfoData,CharInfoData const &>
; Function compile flags: /Ogsp
; File c:\program files (x86)\microsoft visual studio 10.0\vc\include\xmemory
;	COMDAT ??$_Cons_val@V?$allocator@UCharInfoData@@@std@@UCharInfoData@@ABU3@@std@@YAXAAV?$allocator@UCharInfoData@@@0@PAUCharInfoData@@ABU2@@Z
_TEXT	SEGMENT
__Alval$ = 8						; size = 4
__Pdest$ = 12						; size = 4
__Src$ = 16						; size = 4
??$_Cons_val@V?$allocator@UCharInfoData@@@std@@UCharInfoData@@ABU3@@std@@YAXAAV?$allocator@UCharInfoData@@@0@PAUCharInfoData@@ABU2@@Z PROC ; std::_Cons_val<std::allocator<CharInfoData>,CharInfoData,CharInfoData const &>, COMDAT

; 279  : 	{	// construct using allocator

  00000	55		 push	 ebp
  00001	8b ec		 mov	 ebp, esp

; 280  : 	_Alval.construct(_Pdest, _STD forward<_Ty2>(_Src));

  00003	ff 75 10	 push	 DWORD PTR __Src$[ebp]
  00006	ff 75 0c	 push	 DWORD PTR __Pdest$[ebp]
  00009	e8 00 00 00 00	 call	 ??$_Construct@UCharInfoData@@ABU1@@std@@YAXPAUCharInfoData@@ABU1@@Z ; std::_Construct<CharInfoData,CharInfoData const &>
  0000e	59		 pop	 ecx
  0000f	59		 pop	 ecx

; 281  : 	}

  00010	5d		 pop	 ebp
  00011	c3		 ret	 0
??$_Cons_val@V?$allocator@UCharInfoData@@@std@@UCharInfoData@@ABU3@@std@@YAXAAV?$allocator@UCharInfoData@@@0@PAUCharInfoData@@ABU2@@Z ENDP ; std::_Cons_val<std::allocator<CharInfoData>,CharInfoData,CharInfoData const &>
_TEXT	ENDS
PUBLIC	??$_Destroy_range@V?$allocator@UCharInfoData@@@std@@@std@@YAXPAUCharInfoData@@0AAV?$allocator@UCharInfoData@@@0@@Z ; std::_Destroy_range<std::allocator<CharInfoData> >
; Function compile flags: /Ogsp
;	COMDAT ??$_Destroy_range@V?$allocator@UCharInfoData@@@std@@@std@@YAXPAUCharInfoData@@0AAV?$allocator@UCharInfoData@@@0@@Z
_TEXT	SEGMENT
__First$ = 8						; size = 4
__Last$ = 12						; size = 4
__Al$ = 16						; size = 4
??$_Destroy_range@V?$allocator@UCharInfoData@@@std@@@std@@YAXPAUCharInfoData@@0AAV?$allocator@UCharInfoData@@@0@@Z PROC ; std::_Destroy_range<std::allocator<CharInfoData> >, COMDAT

; 87   : 	{	// destroy [_First, _Last)

  00000	55		 push	 ebp
  00001	8b ec		 mov	 ebp, esp
  00003	56		 push	 esi

; 88   : 	_Destroy_range(_First, _Last, _Al, _Ptr_cat(_First, _Last));

  00004	8b 75 08	 mov	 esi, DWORD PTR __First$[ebp]
  00007	eb 0d		 jmp	 SHORT $LN21@Destroy_ra@2
$LL7@Destroy_ra@2:
  00009	8b ce		 mov	 ecx, esi
  0000b	e8 00 00 00 00	 call	 ??1CharInfoData@@QAE@XZ
  00010	81 c6 c0 03 00
	00		 add	 esi, 960		; 000003c0H
$LN21@Destroy_ra@2:
  00016	3b 75 0c	 cmp	 esi, DWORD PTR __Last$[ebp]
  00019	75 ee		 jne	 SHORT $LL7@Destroy_ra@2
  0001b	5e		 pop	 esi

; 89   : 	}

  0001c	5d		 pop	 ebp
  0001d	c3		 ret	 0
??$_Destroy_range@V?$allocator@UCharInfoData@@@std@@@std@@YAXPAUCharInfoData@@0AAV?$allocator@UCharInfoData@@@0@@Z ENDP ; std::_Destroy_range<std::allocator<CharInfoData> >
_TEXT	ENDS
PUBLIC	??$_Uninitialized_move@PAUCharInfoData@@PAU1@V?$allocator@UCharInfoData@@@std@@@std@@YAPAUCharInfoData@@PAU1@00AAV?$allocator@UCharInfoData@@@0@@Z ; std::_Uninitialized_move<CharInfoData *,CharInfoData *,std::allocator<CharInfoData> >
; Function compile flags: /Ogsp
; File c:\program files (x86)\microsoft visual studio 10.0\vc\include\memory
;	COMDAT ??$_Uninitialized_move@PAUCharInfoData@@PAU1@V?$allocator@UCharInfoData@@@std@@@std@@YAPAUCharInfoData@@PAU1@00AAV?$allocator@UCharInfoData@@@0@@Z
_TEXT	SEGMENT
__Cat$524001 = -4					; size = 1
__First$ = 8						; size = 4
__Last$ = 12						; size = 4
__Dest$ = 16						; size = 4
__Al$ = 20						; size = 4
??$_Uninitialized_move@PAUCharInfoData@@PAU1@V?$allocator@UCharInfoData@@@std@@@std@@YAPAUCharInfoData@@PAU1@00AAV?$allocator@UCharInfoData@@@0@@Z PROC ; std::_Uninitialized_move<CharInfoData *,CharInfoData *,std::allocator<CharInfoData> >, COMDAT

; 469  : 	{	// move [_First, _Last) to raw _Dest, using _Al

  00000	55		 push	 ebp
  00001	8b ec		 mov	 ebp, esp
  00003	51		 push	 ecx

; 470  : 	return (_Uninit_move(_First, _Last, _Dest, _Al,
; 471  : 		_Val_type(_First), _Ptr_cat(_First, _Dest)));

  00004	ff 75 fc	 push	 DWORD PTR __Cat$524001[ebp]
  00007	6a 00		 push	 0
  00009	ff 75 14	 push	 DWORD PTR __Al$[ebp]
  0000c	ff 75 10	 push	 DWORD PTR __Dest$[ebp]
  0000f	ff 75 0c	 push	 DWORD PTR __Last$[ebp]
  00012	ff 75 08	 push	 DWORD PTR __First$[ebp]
  00015	e8 00 00 00 00	 call	 ??$_Uninit_move@PAUCharInfoData@@PAU1@V?$allocator@UCharInfoData@@@std@@U1@@std@@YAPAUCharInfoData@@PAU1@00AAV?$allocator@UCharInfoData@@@0@0U_Nonscalar_ptr_iterator_tag@0@@Z ; std::_Uninit_move<CharInfoData *,CharInfoData *,std::allocator<CharInfoData>,CharInfoData>
  0001a	83 c4 18	 add	 esp, 24			; 00000018H

; 472  : 	}

  0001d	c9		 leave
  0001e	c3		 ret	 0
??$_Uninitialized_move@PAUCharInfoData@@PAU1@V?$allocator@UCharInfoData@@@std@@@std@@YAPAUCharInfoData@@PAU1@00AAV?$allocator@UCharInfoData@@@0@@Z ENDP ; std::_Uninitialized_move<CharInfoData *,CharInfoData *,std::allocator<CharInfoData> >
_TEXT	ENDS
PUBLIC	??$_Unguarded_partition@PAUCharInfoData@@VCharInfoSort@@@std@@YA?AU?$pair@PAUCharInfoData@@PAU1@@0@PAUCharInfoData@@0VCharInfoSort@@@Z ; std::_Unguarded_partition<CharInfoData *,CharInfoSort>
; Function compile flags: /Ogsp
; File c:\program files (x86)\microsoft visual studio 10.0\vc\include\algorithm
;	COMDAT ??$_Unguarded_partition@PAUCharInfoData@@VCharInfoSort@@@std@@YA?AU?$pair@PAUCharInfoData@@PAU1@@0@PAUCharInfoData@@0VCharInfoSort@@@Z
_TEXT	SEGMENT
tv352 = -12						; size = 4
tv264 = -12						; size = 4
__Glast$ = -8						; size = 4
__Gfirst$ = -4						; size = 4
___$ReturnUdt$ = 8					; size = 4
__First$ = 12						; size = 4
__Last$ = 16						; size = 4
__Pred$ = 20						; size = 1
??$_Unguarded_partition@PAUCharInfoData@@VCharInfoSort@@@std@@YA?AU?$pair@PAUCharInfoData@@PAU1@@0@PAUCharInfoData@@0VCharInfoSort@@@Z PROC ; std::_Unguarded_partition<CharInfoData *,CharInfoSort>, COMDAT

; 3712 : 	{	// partition [_First, _Last), using _Pred

  00000	55		 push	 ebp
  00001	8b ec		 mov	 ebp, esp

; 3713 : 	_RanIt _Mid = _First + (_Last - _First) / 2;

  00003	8b 4d 10	 mov	 ecx, DWORD PTR __Last$[ebp]
  00006	83 ec 0c	 sub	 esp, 12			; 0000000cH
  00009	53		 push	 ebx
  0000a	56		 push	 esi
  0000b	57		 push	 edi
  0000c	8b c1		 mov	 eax, ecx
  0000e	2b 45 0c	 sub	 eax, DWORD PTR __First$[ebp]
  00011	be c0 03 00 00	 mov	 esi, 960		; 000003c0H
  00016	99		 cdq
  00017	8b fe		 mov	 edi, esi
  00019	f7 ff		 idiv	 edi

; 3714 : 	_Median(_First, _Mid, _Last - 1, _Pred);

  0001b	ff 75 14	 push	 DWORD PTR __Pred$[ebp]
  0001e	81 c1 40 fc ff
	ff		 add	 ecx, -960		; fffffc40H
  00024	51		 push	 ecx
  00025	99		 cdq
  00026	2b c2		 sub	 eax, edx
  00028	8b f8		 mov	 edi, eax
  0002a	d1 ff		 sar	 edi, 1
  0002c	69 ff c0 03 00
	00		 imul	 edi, 960		; 000003c0H
  00032	03 7d 0c	 add	 edi, DWORD PTR __First$[ebp]
  00035	57		 push	 edi
  00036	ff 75 0c	 push	 DWORD PTR __First$[ebp]
  00039	e8 00 00 00 00	 call	 ??$_Median@PAUCharInfoData@@VCharInfoSort@@@std@@YAXPAUCharInfoData@@00VCharInfoSort@@@Z ; std::_Median<CharInfoData *,CharInfoSort>
  0003e	83 c4 10	 add	 esp, 16			; 00000010H

; 3715 : 	_RanIt _Pfirst = _Mid;
; 3716 : 	_RanIt _Plast = _Pfirst + 1;

  00041	8d 9f c0 03 00
	00		 lea	 ebx, DWORD PTR [edi+960]
  00047	eb 2a		 jmp	 SHORT $LN75@Unguarded_
$LL27@Unguarded_:

; 3717 : 
; 3718 : 	while (_First < _Pfirst
; 3719 : 		&& !_DEBUG_LT_PRED(_Pred, *(_Pfirst - 1), *_Pfirst)
; 3720 : 		&& !_Pred(*_Pfirst, *(_Pfirst - 1)))

  00049	8d 87 40 fc ff
	ff		 lea	 eax, DWORD PTR [edi-960]
  0004f	57		 push	 edi
  00050	50		 push	 eax
  00051	8d 4d 14	 lea	 ecx, DWORD PTR __Pred$[ebp]
  00054	89 45 f4	 mov	 DWORD PTR tv264[ebp], eax
  00057	e8 00 00 00 00	 call	 ??RCharInfoSort@@QBE_NABUCharInfoData@@0@Z ; CharInfoSort::operator()
  0005c	84 c0		 test	 al, al
  0005e	75 38		 jne	 SHORT $LN76@Unguarded_
  00060	ff 75 f4	 push	 DWORD PTR tv264[ebp]
  00063	8d 4d 14	 lea	 ecx, DWORD PTR __Pred$[ebp]
  00066	57		 push	 edi
  00067	e8 00 00 00 00	 call	 ??RCharInfoSort@@QBE_NABUCharInfoData@@0@Z ; CharInfoSort::operator()
  0006c	84 c0		 test	 al, al
  0006e	75 28		 jne	 SHORT $LN76@Unguarded_

; 3721 : 		--_Pfirst;

  00070	8b 7d f4	 mov	 edi, DWORD PTR tv264[ebp]
$LN75@Unguarded_:

; 3717 : 
; 3718 : 	while (_First < _Pfirst
; 3719 : 		&& !_DEBUG_LT_PRED(_Pred, *(_Pfirst - 1), *_Pfirst)
; 3720 : 		&& !_Pred(*_Pfirst, *(_Pfirst - 1)))

  00073	39 7d 0c	 cmp	 DWORD PTR __First$[ebp], edi
  00076	72 d1		 jb	 SHORT $LL27@Unguarded_

; 3725 : 		++_Plast;

  00078	eb 1e		 jmp	 SHORT $LN76@Unguarded_
$LL25@Unguarded_:

; 3722 : 	while (_Plast < _Last
; 3723 : 		&& !_DEBUG_LT_PRED(_Pred, *_Plast, *_Pfirst)
; 3724 : 		&& !_Pred(*_Pfirst, *_Plast))

  0007a	57		 push	 edi
  0007b	53		 push	 ebx
  0007c	8d 4d 14	 lea	 ecx, DWORD PTR __Pred$[ebp]
  0007f	e8 00 00 00 00	 call	 ??RCharInfoSort@@QBE_NABUCharInfoData@@0@Z ; CharInfoSort::operator()
  00084	84 c0		 test	 al, al
  00086	75 15		 jne	 SHORT $LN70@Unguarded_
  00088	53		 push	 ebx
  00089	57		 push	 edi
  0008a	8d 4d 14	 lea	 ecx, DWORD PTR __Pred$[ebp]
  0008d	e8 00 00 00 00	 call	 ??RCharInfoSort@@QBE_NABUCharInfoData@@0@Z ; CharInfoSort::operator()
  00092	84 c0		 test	 al, al
  00094	75 07		 jne	 SHORT $LN70@Unguarded_

; 3725 : 		++_Plast;

  00096	03 de		 add	 ebx, esi
$LN76@Unguarded_:

; 3722 : 	while (_Plast < _Last
; 3723 : 		&& !_DEBUG_LT_PRED(_Pred, *_Plast, *_Pfirst)
; 3724 : 		&& !_Pred(*_Pfirst, *_Plast))

  00098	3b 5d 10	 cmp	 ebx, DWORD PTR __Last$[ebp]
  0009b	72 dd		 jb	 SHORT $LL25@Unguarded_
$LN70@Unguarded_:

; 3726 : 
; 3727 : 	_RanIt _Gfirst = _Plast;

  0009d	89 5d fc	 mov	 DWORD PTR __Gfirst$[ebp], ebx

; 3728 : 	_RanIt _Glast = _Pfirst;

  000a0	89 7d f8	 mov	 DWORD PTR __Glast$[ebp], edi
$LL23@Unguarded_:

; 3729 : 
; 3730 : 	for (; ; )
; 3731 : 		{	// partition
; 3732 : 		for (; _Gfirst < _Last; ++_Gfirst)

  000a3	8b 45 10	 mov	 eax, DWORD PTR __Last$[ebp]
  000a6	39 45 fc	 cmp	 DWORD PTR __Gfirst$[ebp], eax
  000a9	73 3a		 jae	 SHORT $LN72@Unguarded_
$LL71@Unguarded_:

; 3733 : 			if (_DEBUG_LT_PRED(_Pred, *_Pfirst, *_Gfirst))

  000ab	ff 75 fc	 push	 DWORD PTR __Gfirst$[ebp]
  000ae	8d 4d 14	 lea	 ecx, DWORD PTR __Pred$[ebp]
  000b1	57		 push	 edi
  000b2	e8 00 00 00 00	 call	 ??RCharInfoSort@@QBE_NABUCharInfoData@@0@Z ; CharInfoSort::operator()
  000b7	84 c0		 test	 al, al
  000b9	75 1f		 jne	 SHORT $LN20@Unguarded_

; 3734 : 				;
; 3735 : 			else if (_Pred(*_Gfirst, *_Pfirst))

  000bb	57		 push	 edi
  000bc	ff 75 fc	 push	 DWORD PTR __Gfirst$[ebp]
  000bf	8d 4d 14	 lea	 ecx, DWORD PTR __Pred$[ebp]
  000c2	e8 00 00 00 00	 call	 ??RCharInfoSort@@QBE_NABUCharInfoData@@0@Z ; CharInfoSort::operator()
  000c7	84 c0		 test	 al, al
  000c9	75 1a		 jne	 SHORT $LN72@Unguarded_

; 3736 : 				break;
; 3737 : 			else
; 3738 : 				_STD iter_swap(_Plast++, _Gfirst);

  000cb	ff 75 fc	 push	 DWORD PTR __Gfirst$[ebp]
  000ce	8b c3		 mov	 eax, ebx
  000d0	50		 push	 eax
  000d1	03 de		 add	 ebx, esi
  000d3	e8 00 00 00 00	 call	 ??$swap@UCharInfoData@@@std@@YAXAAUCharInfoData@@0@Z ; std::swap<CharInfoData>
  000d8	59		 pop	 ecx
  000d9	59		 pop	 ecx
$LN20@Unguarded_:

; 3729 : 
; 3730 : 	for (; ; )
; 3731 : 		{	// partition
; 3732 : 		for (; _Gfirst < _Last; ++_Gfirst)

  000da	01 75 fc	 add	 DWORD PTR __Gfirst$[ebp], esi
  000dd	8b 45 fc	 mov	 eax, DWORD PTR __Gfirst$[ebp]
  000e0	3b 45 10	 cmp	 eax, DWORD PTR __Last$[ebp]
  000e3	72 c6		 jb	 SHORT $LL71@Unguarded_
$LN72@Unguarded_:

; 3739 : 		for (; _First < _Glast; --_Glast)

  000e5	8b 45 f8	 mov	 eax, DWORD PTR __Glast$[ebp]
  000e8	39 45 0c	 cmp	 DWORD PTR __First$[ebp], eax
  000eb	73 43		 jae	 SHORT $LN74@Unguarded_
  000ed	05 40 fc ff ff	 add	 eax, -960		; fffffc40H
  000f2	89 45 f4	 mov	 DWORD PTR tv352[ebp], eax
$LL73@Unguarded_:

; 3740 : 			if (_DEBUG_LT_PRED(_Pred, *(_Glast - 1), *_Pfirst))

  000f5	57		 push	 edi
  000f6	ff 75 f4	 push	 DWORD PTR tv352[ebp]
  000f9	8d 4d 14	 lea	 ecx, DWORD PTR __Pred$[ebp]
  000fc	e8 00 00 00 00	 call	 ??RCharInfoSort@@QBE_NABUCharInfoData@@0@Z ; CharInfoSort::operator()
  00101	84 c0		 test	 al, al
  00103	75 1d		 jne	 SHORT $LN13@Unguarded_

; 3741 : 				;
; 3742 : 			else if (_Pred(*_Pfirst, *(_Glast - 1)))

  00105	ff 75 f4	 push	 DWORD PTR tv352[ebp]
  00108	8d 4d 14	 lea	 ecx, DWORD PTR __Pred$[ebp]
  0010b	57		 push	 edi
  0010c	e8 00 00 00 00	 call	 ??RCharInfoSort@@QBE_NABUCharInfoData@@0@Z ; CharInfoSort::operator()
  00111	84 c0		 test	 al, al
  00113	75 1b		 jne	 SHORT $LN74@Unguarded_

; 3743 : 				break;
; 3744 : 			else
; 3745 : 				_STD iter_swap(--_Pfirst, _Glast - 1);

  00115	ff 75 f4	 push	 DWORD PTR tv352[ebp]
  00118	2b fe		 sub	 edi, esi
  0011a	57		 push	 edi
  0011b	e8 00 00 00 00	 call	 ??$swap@UCharInfoData@@@std@@YAXAAUCharInfoData@@0@Z ; std::swap<CharInfoData>
  00120	59		 pop	 ecx
  00121	59		 pop	 ecx
$LN13@Unguarded_:

; 3739 : 		for (; _First < _Glast; --_Glast)

  00122	29 75 f8	 sub	 DWORD PTR __Glast$[ebp], esi
  00125	8b 45 0c	 mov	 eax, DWORD PTR __First$[ebp]
  00128	29 75 f4	 sub	 DWORD PTR tv352[ebp], esi
  0012b	3b 45 f8	 cmp	 eax, DWORD PTR __Glast$[ebp]
  0012e	72 c5		 jb	 SHORT $LL73@Unguarded_
$LN74@Unguarded_:

; 3746 : 		if (_Glast == _First && _Gfirst == _Last)

  00130	8b 45 f8	 mov	 eax, DWORD PTR __Glast$[ebp]
  00133	3b 45 0c	 cmp	 eax, DWORD PTR __First$[ebp]
  00136	75 25		 jne	 SHORT $LN6@Unguarded_
  00138	8b 45 fc	 mov	 eax, DWORD PTR __Gfirst$[ebp]
  0013b	3b 45 10	 cmp	 eax, DWORD PTR __Last$[ebp]
  0013e	74 5a		 je	 SHORT $LN64@Unguarded_

; 3748 : 
; 3749 : 		if (_Glast == _First)
; 3750 : 			{	// no room at bottom, rotate pivot upward
; 3751 : 			if (_Plast != _Gfirst)

  00140	3b d8		 cmp	 ebx, eax
  00142	74 09		 je	 SHORT $LN46@Unguarded_

; 3752 : 				_STD iter_swap(_Pfirst, _Plast);

  00144	53		 push	 ebx
  00145	57		 push	 edi
  00146	e8 00 00 00 00	 call	 ??$swap@UCharInfoData@@@std@@YAXAAUCharInfoData@@0@Z ; std::swap<CharInfoData>
  0014b	59		 pop	 ecx
  0014c	59		 pop	 ecx
$LN46@Unguarded_:

; 3753 : 			++_Plast;
; 3754 : 			_STD iter_swap(_Pfirst++, _Gfirst++);

  0014d	8b 45 fc	 mov	 eax, DWORD PTR __Gfirst$[ebp]
  00150	8b cf		 mov	 ecx, edi
  00152	50		 push	 eax
  00153	03 de		 add	 ebx, esi
  00155	03 fe		 add	 edi, esi
  00157	01 75 fc	 add	 DWORD PTR __Gfirst$[ebp], esi
  0015a	51		 push	 ecx
  0015b	eb 20		 jmp	 SHORT $LN77@Unguarded_
$LN6@Unguarded_:

; 3755 : 			}
; 3756 : 		else if (_Gfirst == _Last)

  0015d	8b 4d fc	 mov	 ecx, DWORD PTR __Gfirst$[ebp]

; 3757 : 			{	// no room at top, rotate pivot downward
; 3758 : 			if (--_Glast != --_Pfirst)

  00160	2b c6		 sub	 eax, esi
  00162	89 45 f8	 mov	 DWORD PTR __Glast$[ebp], eax
  00165	3b 4d 10	 cmp	 ecx, DWORD PTR __Last$[ebp]
  00168	75 1f		 jne	 SHORT $LN3@Unguarded_
  0016a	2b fe		 sub	 edi, esi
  0016c	3b c7		 cmp	 eax, edi
  0016e	74 09		 je	 SHORT $LN50@Unguarded_

; 3759 : 				_STD iter_swap(_Glast, _Pfirst);

  00170	57		 push	 edi
  00171	50		 push	 eax
  00172	e8 00 00 00 00	 call	 ??$swap@UCharInfoData@@@std@@YAXAAUCharInfoData@@0@Z ; std::swap<CharInfoData>
  00177	59		 pop	 ecx
  00178	59		 pop	 ecx
$LN50@Unguarded_:

; 3760 : 			_STD iter_swap(_Pfirst, --_Plast);

  00179	2b de		 sub	 ebx, esi
  0017b	53		 push	 ebx
  0017c	57		 push	 edi
$LN77@Unguarded_:
  0017d	e8 00 00 00 00	 call	 ??$swap@UCharInfoData@@@std@@YAXAAUCharInfoData@@0@Z ; std::swap<CharInfoData>
  00182	59		 pop	 ecx
  00183	59		 pop	 ecx

; 3761 : 			}
; 3762 : 		else

  00184	e9 1a ff ff ff	 jmp	 $LL23@Unguarded_
$LN3@Unguarded_:

; 3763 : 			_STD iter_swap(_Gfirst++, --_Glast);

  00189	50		 push	 eax
  0018a	51		 push	 ecx
  0018b	e8 00 00 00 00	 call	 ??$swap@UCharInfoData@@@std@@YAXAAUCharInfoData@@0@Z ; std::swap<CharInfoData>
  00190	01 75 fc	 add	 DWORD PTR __Gfirst$[ebp], esi
  00193	59		 pop	 ecx
  00194	59		 pop	 ecx

; 3764 : 		}

  00195	e9 09 ff ff ff	 jmp	 $LL23@Unguarded_
$LN64@Unguarded_:

; 3747 : 			return (_STD pair<_RanIt, _RanIt>(_Pfirst, _Plast));

  0019a	8b 45 08	 mov	 eax, DWORD PTR ___$ReturnUdt$[ebp]
  0019d	89 38		 mov	 DWORD PTR [eax], edi
  0019f	5f		 pop	 edi
  001a0	5e		 pop	 esi
  001a1	89 58 04	 mov	 DWORD PTR [eax+4], ebx
  001a4	5b		 pop	 ebx

; 3765 : 	}

  001a5	c9		 leave
  001a6	c3		 ret	 0
??$_Unguarded_partition@PAUCharInfoData@@VCharInfoSort@@@std@@YA?AU?$pair@PAUCharInfoData@@PAU1@@0@PAUCharInfoData@@0VCharInfoSort@@@Z ENDP ; std::_Unguarded_partition<CharInfoData *,CharInfoSort>
_TEXT	ENDS
PUBLIC	??$make_heap@PAUCharInfoData@@VCharInfoSort@@@std@@YAXPAUCharInfoData@@0VCharInfoSort@@@Z ; std::make_heap<CharInfoData *,CharInfoSort>
; Function compile flags: /Ogsp
;	COMDAT ??$make_heap@PAUCharInfoData@@VCharInfoSort@@@std@@YAXPAUCharInfoData@@0VCharInfoSort@@@Z
_TEXT	SEGMENT
__First$ = 8						; size = 4
__Last$ = 12						; size = 4
__Pred$ = 16						; size = 1
??$make_heap@PAUCharInfoData@@VCharInfoSort@@@std@@YAXPAUCharInfoData@@0VCharInfoSort@@@Z PROC ; std::make_heap<CharInfoData *,CharInfoSort>, COMDAT

; 2672 : 	{	// make [_First, _Last) into a heap, using _Pred

  00000	55		 push	 ebp
  00001	8b ec		 mov	 ebp, esp

; 2673 : 	_DEBUG_RANGE(_First, _Last);
; 2674 : 	_DEBUG_POINTER(_Pred);
; 2675 : 	if (1 < _Last - _First)

  00003	8b 45 0c	 mov	 eax, DWORD PTR __Last$[ebp]
  00006	2b 45 08	 sub	 eax, DWORD PTR __First$[ebp]
  00009	b9 c0 03 00 00	 mov	 ecx, 960		; 000003c0H
  0000e	99		 cdq
  0000f	f7 f9		 idiv	 ecx
  00011	83 f8 01	 cmp	 eax, 1
  00014	7e 15		 jle	 SHORT $LN1@make_heap

; 2676 : 		_Make_heap(_Unchecked(_First), _Unchecked(_Last), _Pred,
; 2677 : 			_Dist_type(_First), _Val_type(_First));

  00016	6a 00		 push	 0
  00018	6a 00		 push	 0
  0001a	ff 75 10	 push	 DWORD PTR __Pred$[ebp]
  0001d	ff 75 0c	 push	 DWORD PTR __Last$[ebp]
  00020	ff 75 08	 push	 DWORD PTR __First$[ebp]
  00023	e8 00 00 00 00	 call	 ??$_Make_heap@PAUCharInfoData@@HU1@VCharInfoSort@@@std@@YAXPAUCharInfoData@@0VCharInfoSort@@PAH0@Z ; std::_Make_heap<CharInfoData *,int,CharInfoData,CharInfoSort>
  00028	83 c4 14	 add	 esp, 20			; 00000014H
$LN1@make_heap:

; 2678 : 	}

  0002b	5d		 pop	 ebp
  0002c	c3		 ret	 0
??$make_heap@PAUCharInfoData@@VCharInfoSort@@@std@@YAXPAUCharInfoData@@0VCharInfoSort@@@Z ENDP ; std::make_heap<CharInfoData *,CharInfoSort>
_TEXT	ENDS
PUBLIC	??$_Insertion_sort@PAUCharInfoData@@VCharInfoSort@@@std@@YAXPAUCharInfoData@@0VCharInfoSort@@@Z ; std::_Insertion_sort<CharInfoData *,CharInfoSort>
; Function compile flags: /Ogsp
;	COMDAT ??$_Insertion_sort@PAUCharInfoData@@VCharInfoSort@@@std@@YAXPAUCharInfoData@@0VCharInfoSort@@@Z
_TEXT	SEGMENT
__First$ = 8						; size = 4
__Last$ = 12						; size = 4
__Pred$ = 16						; size = 1
??$_Insertion_sort@PAUCharInfoData@@VCharInfoSort@@@std@@YAXPAUCharInfoData@@0VCharInfoSort@@@Z PROC ; std::_Insertion_sort<CharInfoData *,CharInfoSort>, COMDAT

; 3676 : 	{	// insertion sort [_First, _Last), using _Pred

  00000	55		 push	 ebp
  00001	8b ec		 mov	 ebp, esp

; 3677 : 	_Insertion_sort1(_First, _Last, _Pred, _Val_type(_First));

  00003	6a 00		 push	 0
  00005	ff 75 10	 push	 DWORD PTR __Pred$[ebp]
  00008	ff 75 0c	 push	 DWORD PTR __Last$[ebp]
  0000b	ff 75 08	 push	 DWORD PTR __First$[ebp]
  0000e	e8 00 00 00 00	 call	 ??$_Insertion_sort1@PAUCharInfoData@@VCharInfoSort@@U1@@std@@YAXPAUCharInfoData@@0VCharInfoSort@@0@Z ; std::_Insertion_sort1<CharInfoData *,CharInfoSort,CharInfoData>
  00013	83 c4 10	 add	 esp, 16			; 00000010H

; 3678 : 	}

  00016	5d		 pop	 ebp
  00017	c3		 ret	 0
??$_Insertion_sort@PAUCharInfoData@@VCharInfoSort@@@std@@YAXPAUCharInfoData@@0VCharInfoSort@@@Z ENDP ; std::_Insertion_sort<CharInfoData *,CharInfoSort>
_TEXT	ENDS
PUBLIC	??$_Pop_heap@PAUCharInfoData@@VCharInfoSort@@@std@@YAXPAUCharInfoData@@0VCharInfoSort@@@Z ; std::_Pop_heap<CharInfoData *,CharInfoSort>
; Function compile flags: /Ogsp
;	COMDAT ??$_Pop_heap@PAUCharInfoData@@VCharInfoSort@@@std@@YAXPAUCharInfoData@@0VCharInfoSort@@@Z
_TEXT	SEGMENT
__First$ = 8						; size = 4
__Last$ = 12						; size = 4
__Pred$ = 16						; size = 1
??$_Pop_heap@PAUCharInfoData@@VCharInfoSort@@@std@@YAXPAUCharInfoData@@0VCharInfoSort@@@Z PROC ; std::_Pop_heap<CharInfoData *,CharInfoSort>, COMDAT

; 2610 : 	{	// pop *_First to *(_Last - 1) and reheap, using _Pred

  00000	55		 push	 ebp
  00001	8b ec		 mov	 ebp, esp

; 2611 : 	_Pop_heap_0(_Unchecked(_First), _Unchecked(_Last), _Pred,
; 2612 : 		_Val_type(_First));

  00003	6a 00		 push	 0
  00005	ff 75 10	 push	 DWORD PTR __Pred$[ebp]
  00008	ff 75 0c	 push	 DWORD PTR __Last$[ebp]
  0000b	ff 75 08	 push	 DWORD PTR __First$[ebp]
  0000e	e8 00 00 00 00	 call	 ??$_Pop_heap_0@PAUCharInfoData@@U1@VCharInfoSort@@@std@@YAXPAUCharInfoData@@0VCharInfoSort@@0@Z ; std::_Pop_heap_0<CharInfoData *,CharInfoData,CharInfoSort>
  00013	83 c4 10	 add	 esp, 16			; 00000010H

; 2613 : 	}

  00016	5d		 pop	 ebp
  00017	c3		 ret	 0
??$_Pop_heap@PAUCharInfoData@@VCharInfoSort@@@std@@YAXPAUCharInfoData@@0VCharInfoSort@@@Z ENDP ; std::_Pop_heap<CharInfoData *,CharInfoSort>
_TEXT	ENDS
PUBLIC	?_Destroy@?$vector@UCharInfoData@@V?$allocator@UCharInfoData@@@std@@@std@@IAEXPAUCharInfoData@@0@Z ; std::vector<CharInfoData,std::allocator<CharInfoData> >::_Destroy
; Function compile flags: /Ogsp
; File c:\program files (x86)\microsoft visual studio 10.0\vc\include\vector
;	COMDAT ?_Destroy@?$vector@UCharInfoData@@V?$allocator@UCharInfoData@@@std@@@std@@IAEXPAUCharInfoData@@0@Z
_TEXT	SEGMENT
__First$ = 8						; size = 4
__Last$ = 12						; size = 4
?_Destroy@?$vector@UCharInfoData@@V?$allocator@UCharInfoData@@@std@@@std@@IAEXPAUCharInfoData@@0@Z PROC ; std::vector<CharInfoData,std::allocator<CharInfoData> >::_Destroy, COMDAT
; _this$ = ecx

; 1269 : 		{	// destroy [_First, _Last) using allocator

  00000	55		 push	 ebp
  00001	8b ec		 mov	 ebp, esp

; 1270 : 		_Destroy_range(_First, _Last, this->_Alval);

  00003	83 c1 0c	 add	 ecx, 12			; 0000000cH
  00006	51		 push	 ecx
  00007	ff 75 0c	 push	 DWORD PTR __Last$[ebp]
  0000a	ff 75 08	 push	 DWORD PTR __First$[ebp]
  0000d	e8 00 00 00 00	 call	 ??$_Destroy_range@V?$allocator@UCharInfoData@@@std@@@std@@YAXPAUCharInfoData@@0AAV?$allocator@UCharInfoData@@@0@@Z ; std::_Destroy_range<std::allocator<CharInfoData> >
  00012	83 c4 0c	 add	 esp, 12			; 0000000cH

; 1271 : 		}

  00015	5d		 pop	 ebp
  00016	c2 08 00	 ret	 8
?_Destroy@?$vector@UCharInfoData@@V?$allocator@UCharInfoData@@@std@@@std@@IAEXPAUCharInfoData@@0@Z ENDP ; std::vector<CharInfoData,std::allocator<CharInfoData> >::_Destroy
_TEXT	ENDS
PUBLIC	?_Tidy@?$vector@UCharInfoData@@V?$allocator@UCharInfoData@@@std@@@std@@IAEXXZ ; std::vector<CharInfoData,std::allocator<CharInfoData> >::_Tidy
; Function compile flags: /Ogsp
;	COMDAT ?_Tidy@?$vector@UCharInfoData@@V?$allocator@UCharInfoData@@@std@@@std@@IAEXXZ
_TEXT	SEGMENT
?_Tidy@?$vector@UCharInfoData@@V?$allocator@UCharInfoData@@@std@@@std@@IAEXXZ PROC ; std::vector<CharInfoData,std::allocator<CharInfoData> >::_Tidy, COMDAT
; _this$ = ecx

; 1301 : 		{	// free all storage

  00000	56		 push	 esi
  00001	8b f1		 mov	 esi, ecx

; 1302 : 		if (this->_Myfirst != 0)

  00003	83 3e 00	 cmp	 DWORD PTR [esi], 0
  00006	74 1e		 je	 SHORT $LN6@Tidy@3

; 1303 : 			{	// something to free, destroy and deallocate it
; 1304 : 			this->_Orphan_all();

  00008	ff 15 00 00 00
	00		 call	 DWORD PTR __imp_?_Orphan_all@_Container_base0@std@@QAEXXZ

; 1305 : 			_Destroy(this->_Myfirst, this->_Mylast);

  0000e	8d 46 0c	 lea	 eax, DWORD PTR [esi+12]
  00011	50		 push	 eax
  00012	ff 76 04	 push	 DWORD PTR [esi+4]
  00015	ff 36		 push	 DWORD PTR [esi]
  00017	e8 00 00 00 00	 call	 ??$_Destroy_range@V?$allocator@UCharInfoData@@@std@@@std@@YAXPAUCharInfoData@@0AAV?$allocator@UCharInfoData@@@0@@Z ; std::_Destroy_range<std::allocator<CharInfoData> >

; 1306 : 			this->_Alval.deallocate(this->_Myfirst,
; 1307 : 				this->_Myend - this->_Myfirst);

  0001c	ff 36		 push	 DWORD PTR [esi]
  0001e	e8 00 00 00 00	 call	 ??3@YAXPAX@Z		; operator delete
  00023	83 c4 10	 add	 esp, 16			; 00000010H
$LN6@Tidy@3:

; 1308 : 			}
; 1309 : 		this->_Myfirst = 0;

  00026	83 26 00	 and	 DWORD PTR [esi], 0

; 1310 : 		this->_Mylast = 0;

  00029	83 66 04 00	 and	 DWORD PTR [esi+4], 0

; 1311 : 		this->_Myend = 0;

  0002d	83 66 08 00	 and	 DWORD PTR [esi+8], 0
  00031	5e		 pop	 esi

; 1312 : 		}

  00032	c3		 ret	 0
?_Tidy@?$vector@UCharInfoData@@V?$allocator@UCharInfoData@@@std@@@std@@IAEXXZ ENDP ; std::vector<CharInfoData,std::allocator<CharInfoData> >::_Tidy
_TEXT	ENDS
PUBLIC	??$_Umove@PAUCharInfoData@@@?$vector@UCharInfoData@@V?$allocator@UCharInfoData@@@std@@@std@@IAEPAUCharInfoData@@PAU2@00@Z ; std::vector<CharInfoData,std::allocator<CharInfoData> >::_Umove<CharInfoData *>
; Function compile flags: /Ogsp
;	COMDAT ??$_Umove@PAUCharInfoData@@@?$vector@UCharInfoData@@V?$allocator@UCharInfoData@@@std@@@std@@IAEPAUCharInfoData@@PAU2@00@Z
_TEXT	SEGMENT
__First$ = 8						; size = 4
__Last$ = 12						; size = 4
__Ptr$ = 16						; size = 4
??$_Umove@PAUCharInfoData@@@?$vector@UCharInfoData@@V?$allocator@UCharInfoData@@@std@@@std@@IAEPAUCharInfoData@@PAU2@00@Z PROC ; std::vector<CharInfoData,std::allocator<CharInfoData> >::_Umove<CharInfoData *>, COMDAT
; _this$ = ecx

; 1322 : 		pointer _Umove(_Iter _First, _Iter _Last, pointer _Ptr)

  00000	55		 push	 ebp
  00001	8b ec		 mov	 ebp, esp

; 1323 : 		{	// move initializing [_First, _Last), using allocator
; 1324 : 		return (_Uninitialized_move(_First, _Last,
; 1325 : 			_Ptr, this->_Alval));

  00003	83 c1 0c	 add	 ecx, 12			; 0000000cH
  00006	51		 push	 ecx
  00007	ff 75 10	 push	 DWORD PTR __Ptr$[ebp]
  0000a	ff 75 0c	 push	 DWORD PTR __Last$[ebp]
  0000d	ff 75 08	 push	 DWORD PTR __First$[ebp]
  00010	e8 00 00 00 00	 call	 ??$_Uninitialized_move@PAUCharInfoData@@PAU1@V?$allocator@UCharInfoData@@@std@@@std@@YAPAUCharInfoData@@PAU1@00AAV?$allocator@UCharInfoData@@@0@@Z ; std::_Uninitialized_move<CharInfoData *,CharInfoData *,std::allocator<CharInfoData> >
  00015	83 c4 10	 add	 esp, 16			; 00000010H

; 1326 : 		}

  00018	5d		 pop	 ebp
  00019	c2 0c 00	 ret	 12			; 0000000cH
??$_Umove@PAUCharInfoData@@@?$vector@UCharInfoData@@V?$allocator@UCharInfoData@@@std@@@std@@IAEPAUCharInfoData@@PAU2@00@Z ENDP ; std::vector<CharInfoData,std::allocator<CharInfoData> >::_Umove<CharInfoData *>
_TEXT	ENDS
PUBLIC	??$_Sort_heap@PAUCharInfoData@@VCharInfoSort@@@std@@YAXPAUCharInfoData@@0VCharInfoSort@@@Z ; std::_Sort_heap<CharInfoData *,CharInfoSort>
; Function compile flags: /Ogsp
; File c:\program files (x86)\microsoft visual studio 10.0\vc\include\algorithm
;	COMDAT ??$_Sort_heap@PAUCharInfoData@@VCharInfoSort@@@std@@YAXPAUCharInfoData@@0VCharInfoSort@@@Z
_TEXT	SEGMENT
__First$ = 8						; size = 4
__Last$ = 12						; size = 4
__Pred$ = 16						; size = 1
??$_Sort_heap@PAUCharInfoData@@VCharInfoSort@@@std@@YAXPAUCharInfoData@@0VCharInfoSort@@@Z PROC ; std::_Sort_heap<CharInfoData *,CharInfoSort>, COMDAT

; 2700 : 	{	// order heap by repeatedly popping, using _Pred

  00000	55		 push	 ebp
  00001	8b ec		 mov	 ebp, esp

; 2701 : 	for (; 1 < _Last - _First; --_Last)

  00003	8b 4d 0c	 mov	 ecx, DWORD PTR __Last$[ebp]
  00006	2b 4d 08	 sub	 ecx, DWORD PTR __First$[ebp]
  00009	56		 push	 esi
  0000a	8b c1		 mov	 eax, ecx
  0000c	be c0 03 00 00	 mov	 esi, 960		; 000003c0H
  00011	57		 push	 edi
  00012	99		 cdq
  00013	8b fe		 mov	 edi, esi
  00015	f7 ff		 idiv	 edi
  00017	83 f8 01	 cmp	 eax, 1
  0001a	7e 26		 jle	 SHORT $LN1@Sort_heap
  0001c	8b f9		 mov	 edi, ecx
$LL3@Sort_heap:

; 2702 : 		_Pop_heap(_First, _Last, _Pred);

  0001e	6a 00		 push	 0
  00020	ff 75 10	 push	 DWORD PTR __Pred$[ebp]
  00023	ff 75 0c	 push	 DWORD PTR __Last$[ebp]
  00026	ff 75 08	 push	 DWORD PTR __First$[ebp]
  00029	e8 00 00 00 00	 call	 ??$_Pop_heap_0@PAUCharInfoData@@U1@VCharInfoSort@@@std@@YAXPAUCharInfoData@@0VCharInfoSort@@0@Z ; std::_Pop_heap_0<CharInfoData *,CharInfoData,CharInfoSort>
  0002e	2b fe		 sub	 edi, esi
  00030	8b c7		 mov	 eax, edi
  00032	99		 cdq
  00033	8b ce		 mov	 ecx, esi
  00035	f7 f9		 idiv	 ecx
  00037	29 75 0c	 sub	 DWORD PTR __Last$[ebp], esi
  0003a	83 c4 10	 add	 esp, 16			; 00000010H
  0003d	83 f8 01	 cmp	 eax, 1
  00040	7f dc		 jg	 SHORT $LL3@Sort_heap
$LN1@Sort_heap:
  00042	5f		 pop	 edi
  00043	5e		 pop	 esi

; 2703 : 	}

  00044	5d		 pop	 ebp
  00045	c3		 ret	 0
??$_Sort_heap@PAUCharInfoData@@VCharInfoSort@@@std@@YAXPAUCharInfoData@@0VCharInfoSort@@@Z ENDP ; std::_Sort_heap<CharInfoData *,CharInfoSort>
_TEXT	ENDS
PUBLIC	??1?$vector@UCharInfoData@@V?$allocator@UCharInfoData@@@std@@@std@@QAE@XZ ; std::vector<CharInfoData,std::allocator<CharInfoData> >::~vector<CharInfoData,std::allocator<CharInfoData> >
; Function compile flags: /Ogsp
; File c:\program files (x86)\microsoft visual studio 10.0\vc\include\vector
;	COMDAT ??1?$vector@UCharInfoData@@V?$allocator@UCharInfoData@@@std@@@std@@QAE@XZ
_TEXT	SEGMENT
??1?$vector@UCharInfoData@@V?$allocator@UCharInfoData@@@std@@@std@@QAE@XZ PROC ; std::vector<CharInfoData,std::allocator<CharInfoData> >::~vector<CharInfoData,std::allocator<CharInfoData> >, COMDAT
; _this$ = ecx

; 705  : 		_Tidy();

  00000	e9 00 00 00 00	 jmp	 ?_Tidy@?$vector@UCharInfoData@@V?$allocator@UCharInfoData@@@std@@@std@@IAEXXZ ; std::vector<CharInfoData,std::allocator<CharInfoData> >::_Tidy
??1?$vector@UCharInfoData@@V?$allocator@UCharInfoData@@@std@@@std@@QAE@XZ ENDP ; std::vector<CharInfoData,std::allocator<CharInfoData> >::~vector<CharInfoData,std::allocator<CharInfoData> >
_TEXT	ENDS
PUBLIC	?erase@?$vector@UCharInfoData@@V?$allocator@UCharInfoData@@@std@@@std@@QAE?AV?$_Vector_iterator@V?$_Vector_val@UCharInfoData@@V?$allocator@UCharInfoData@@@std@@@std@@@2@V?$_Vector_const_iterator@V?$_Vector_val@UCharInfoData@@V?$allocator@UCharInfoData@@@std@@@std@@@2@@Z ; std::vector<CharInfoData,std::allocator<CharInfoData> >::erase
; Function compile flags: /Ogsp
;	COMDAT ?erase@?$vector@UCharInfoData@@V?$allocator@UCharInfoData@@@std@@@std@@QAE?AV?$_Vector_iterator@V?$_Vector_val@UCharInfoData@@V?$allocator@UCharInfoData@@@std@@@std@@@2@V?$_Vector_const_iterator@V?$_Vector_val@UCharInfoData@@V?$allocator@UCharInfoData@@@std@@@std@@@2@@Z
_TEXT	SEGMENT
___$ReturnUdt$ = 8					; size = 4
__Cat$524181 = 12					; size = 1
__Where$ = 12						; size = 4
?erase@?$vector@UCharInfoData@@V?$allocator@UCharInfoData@@@std@@@std@@QAE?AV?$_Vector_iterator@V?$_Vector_val@UCharInfoData@@V?$allocator@UCharInfoData@@@std@@@std@@@2@V?$_Vector_const_iterator@V?$_Vector_val@UCharInfoData@@V?$allocator@UCharInfoData@@@std@@@std@@@2@@Z PROC ; std::vector<CharInfoData,std::allocator<CharInfoData> >::erase, COMDAT
; _this$ = ecx

; 1179 : 		{	// erase element at where

  00000	55		 push	 ebp
  00001	8b ec		 mov	 ebp, esp

; 1180 : 		_Move(_VIPTR(_Where) + 1, this->_Mylast,
; 1181 : 			_VIPTR(_Where));

  00003	8b 45 0c	 mov	 eax, DWORD PTR __Where$[ebp]
  00006	56		 push	 esi
  00007	ff 75 0c	 push	 DWORD PTR __Cat$524181[ebp]
  0000a	8b f1		 mov	 esi, ecx
  0000c	50		 push	 eax
  0000d	ff 76 04	 push	 DWORD PTR [esi+4]
  00010	05 c0 03 00 00	 add	 eax, 960		; 000003c0H
  00015	50		 push	 eax
  00016	e8 00 00 00 00	 call	 ??$_Move@PAUCharInfoData@@PAU1@@std@@YAPAUCharInfoData@@PAU1@00U_Nonscalar_ptr_iterator_tag@0@@Z ; std::_Move<CharInfoData *,CharInfoData *>

; 1182 : 		_Destroy(this->_Mylast - 1, this->_Mylast);

  0001b	8b 46 04	 mov	 eax, DWORD PTR [esi+4]
  0001e	8d 4e 0c	 lea	 ecx, DWORD PTR [esi+12]
  00021	51		 push	 ecx
  00022	50		 push	 eax
  00023	05 40 fc ff ff	 add	 eax, -960		; fffffc40H
  00028	50		 push	 eax
  00029	e8 00 00 00 00	 call	 ??$_Destroy_range@V?$allocator@UCharInfoData@@@std@@@std@@YAXPAUCharInfoData@@0AAV?$allocator@UCharInfoData@@@0@@Z ; std::_Destroy_range<std::allocator<CharInfoData> >

; 1183 : 		--this->_Mylast;
; 1184 : 		return (_Make_iter(_Where));

  0002e	8b 45 08	 mov	 eax, DWORD PTR ___$ReturnUdt$[ebp]
  00031	8b 4d 0c	 mov	 ecx, DWORD PTR __Where$[ebp]
  00034	83 c4 1c	 add	 esp, 28			; 0000001cH
  00037	81 46 04 40 fc
	ff ff		 add	 DWORD PTR [esi+4], -960	; fffffc40H
  0003e	89 08		 mov	 DWORD PTR [eax], ecx
  00040	5e		 pop	 esi

; 1185 : 		}

  00041	5d		 pop	 ebp
  00042	c2 08 00	 ret	 8
?erase@?$vector@UCharInfoData@@V?$allocator@UCharInfoData@@@std@@@std@@QAE?AV?$_Vector_iterator@V?$_Vector_val@UCharInfoData@@V?$allocator@UCharInfoData@@@std@@@std@@@2@V?$_Vector_const_iterator@V?$_Vector_val@UCharInfoData@@V?$allocator@UCharInfoData@@@std@@@std@@@2@@Z ENDP ; std::vector<CharInfoData,std::allocator<CharInfoData> >::erase
_TEXT	ENDS
PUBLIC	?erase@?$vector@UCharInfoData@@V?$allocator@UCharInfoData@@@std@@@std@@QAE?AV?$_Vector_iterator@V?$_Vector_val@UCharInfoData@@V?$allocator@UCharInfoData@@@std@@@std@@@2@V?$_Vector_const_iterator@V?$_Vector_val@UCharInfoData@@V?$allocator@UCharInfoData@@@std@@@std@@@2@0@Z ; std::vector<CharInfoData,std::allocator<CharInfoData> >::erase
; Function compile flags: /Ogsp
;	COMDAT ?erase@?$vector@UCharInfoData@@V?$allocator@UCharInfoData@@@std@@@std@@QAE?AV?$_Vector_iterator@V?$_Vector_val@UCharInfoData@@V?$allocator@UCharInfoData@@@std@@@std@@@2@V?$_Vector_const_iterator@V?$_Vector_val@UCharInfoData@@V?$allocator@UCharInfoData@@@std@@@std@@@2@0@Z
_TEXT	SEGMENT
___$ReturnUdt$ = 8					; size = 4
__First_arg$ = 12					; size = 4
__Cat$524288 = 16					; size = 1
__Last_arg$ = 16					; size = 4
?erase@?$vector@UCharInfoData@@V?$allocator@UCharInfoData@@@std@@@std@@QAE?AV?$_Vector_iterator@V?$_Vector_val@UCharInfoData@@V?$allocator@UCharInfoData@@@std@@@std@@@2@V?$_Vector_const_iterator@V?$_Vector_val@UCharInfoData@@V?$allocator@UCharInfoData@@@std@@@std@@@2@0@Z PROC ; std::vector<CharInfoData,std::allocator<CharInfoData> >::erase, COMDAT
; _this$ = ecx

; 1190 : 		{	// erase [_First, _Last)

  00000	55		 push	 ebp
  00001	8b ec		 mov	 ebp, esp

; 1191 : 		iterator _First = _Make_iter(_First_arg);

  00003	8b 45 0c	 mov	 eax, DWORD PTR __First_arg$[ebp]
  00006	53		 push	 ebx
  00007	8b 5d 08	 mov	 ebx, DWORD PTR ___$ReturnUdt$[ebp]
  0000a	56		 push	 esi
  0000b	8b f1		 mov	 esi, ecx
  0000d	89 03		 mov	 DWORD PTR [ebx], eax

; 1192 : 		iterator _Last = _Make_iter(_Last_arg);
; 1193 : 
; 1194 : 		if (_First != _Last)

  0000f	3b 45 10	 cmp	 eax, DWORD PTR __Last_arg$[ebp]
  00012	74 27		 je	 SHORT $LN1@erase@3

; 1195 : 			{	// worth doing, copy down over hole
; 1196 :  #if _ITERATOR_DEBUG_LEVEL == 2
; 1197 : 			if (_Last < _First || _VICONT(_First) != this
; 1198 : 				|| _VIPTR(_First) < this->_Myfirst
; 1199 : 				|| this->_Mylast < _VIPTR(_Last))
; 1200 : 				_DEBUG_ERROR("vector erase iterator outside range");
; 1201 : 			pointer _Ptr = _Move(_VIPTR(_Last), this->_Mylast,
; 1202 : 				_VIPTR(_First));
; 1203 : 			_Orphan_range(_VIPTR(_First), this->_Mylast);
; 1204 : 
; 1205 :  #else /* _ITERATOR_DEBUG_LEVEL == 2 */
; 1206 : 			pointer _Ptr = _Move(_VIPTR(_Last), this->_Mylast,
; 1207 : 				_VIPTR(_First));

  00014	8b 4e 04	 mov	 ecx, DWORD PTR [esi+4]
  00017	57		 push	 edi
  00018	ff 75 10	 push	 DWORD PTR __Cat$524288[ebp]
  0001b	50		 push	 eax
  0001c	51		 push	 ecx
  0001d	ff 75 10	 push	 DWORD PTR __Last_arg$[ebp]
  00020	e8 00 00 00 00	 call	 ??$_Move@PAUCharInfoData@@PAU1@@std@@YAPAUCharInfoData@@PAU1@00U_Nonscalar_ptr_iterator_tag@0@@Z ; std::_Move<CharInfoData *,CharInfoData *>
  00025	8b f8		 mov	 edi, eax

; 1208 :  #endif /* _ITERATOR_DEBUG_LEVEL == 2 */
; 1209 : 
; 1210 : 			_Destroy(_Ptr, this->_Mylast);

  00027	8d 46 0c	 lea	 eax, DWORD PTR [esi+12]
  0002a	50		 push	 eax
  0002b	ff 76 04	 push	 DWORD PTR [esi+4]
  0002e	57		 push	 edi
  0002f	e8 00 00 00 00	 call	 ??$_Destroy_range@V?$allocator@UCharInfoData@@@std@@@std@@YAXPAUCharInfoData@@0AAV?$allocator@UCharInfoData@@@0@@Z ; std::_Destroy_range<std::allocator<CharInfoData> >
  00034	83 c4 1c	 add	 esp, 28			; 0000001cH

; 1211 : 			this->_Mylast = _Ptr;

  00037	89 7e 04	 mov	 DWORD PTR [esi+4], edi
  0003a	5f		 pop	 edi
$LN1@erase@3:

; 1212 : 			}
; 1213 : 		return (_First);

  0003b	5e		 pop	 esi
  0003c	8b c3		 mov	 eax, ebx
  0003e	5b		 pop	 ebx

; 1214 : 		}

  0003f	5d		 pop	 ebp
  00040	c2 0c 00	 ret	 12			; 0000000cH
?erase@?$vector@UCharInfoData@@V?$allocator@UCharInfoData@@@std@@@std@@QAE?AV?$_Vector_iterator@V?$_Vector_val@UCharInfoData@@V?$allocator@UCharInfoData@@@std@@@std@@@2@V?$_Vector_const_iterator@V?$_Vector_val@UCharInfoData@@V?$allocator@UCharInfoData@@@std@@@std@@@2@0@Z ENDP ; std::vector<CharInfoData,std::allocator<CharInfoData> >::erase
_TEXT	ENDS
PUBLIC	?reserve@?$vector@UCharInfoData@@V?$allocator@UCharInfoData@@@std@@@std@@QAEXI@Z ; std::vector<CharInfoData,std::allocator<CharInfoData> >::reserve
;	COMDAT xdata$x
; File c:\program files (x86)\microsoft visual studio 10.0\vc\include\xmemory
xdata$x	SEGMENT
__catchsym$?reserve@?$vector@UCharInfoData@@V?$allocator@UCharInfoData@@@std@@@std@@QAEXI@Z$2 DD 040H
	DD	00H
	DD	00H
	DD	FLAT:__catch$?reserve@?$vector@UCharInfoData@@V?$allocator@UCharInfoData@@@std@@@std@@QAEXI@Z$0
__unwindtable$?reserve@?$vector@UCharInfoData@@V?$allocator@UCharInfoData@@@std@@@std@@QAEXI@Z DD 0ffffffffH
	DD	00H
	DD	0ffffffffH
	DD	00H
__tryblocktable$?reserve@?$vector@UCharInfoData@@V?$allocator@UCharInfoData@@@std@@@std@@QAEXI@Z DD 00H
	DD	00H
	DD	01H
	DD	01H
	DD	FLAT:__catchsym$?reserve@?$vector@UCharInfoData@@V?$allocator@UCharInfoData@@@std@@@std@@QAEXI@Z$2
__ehfuncinfo$?reserve@?$vector@UCharInfoData@@V?$allocator@UCharInfoData@@@std@@@std@@QAEXI@Z DD 019930522H
	DD	02H
	DD	FLAT:__unwindtable$?reserve@?$vector@UCharInfoData@@V?$allocator@UCharInfoData@@@std@@@std@@QAEXI@Z
	DD	01H
	DD	FLAT:__tryblocktable$?reserve@?$vector@UCharInfoData@@V?$allocator@UCharInfoData@@@std@@@std@@QAEXI@Z
	DD	2 DUP(00H)
	DD	00H
	DD	01H
; Function compile flags: /Ogsp
; File c:\program files (x86)\microsoft visual studio 10.0\vc\include\vector
xdata$x	ENDS
;	COMDAT ?reserve@?$vector@UCharInfoData@@V?$allocator@UCharInfoData@@@std@@@std@@QAEXI@Z
_TEXT	SEGMENT
__$EHRec$ = -16						; size = 16
__Ptr$515339 = 8					; size = 4
__Count$ = 8						; size = 4
?reserve@?$vector@UCharInfoData@@V?$allocator@UCharInfoData@@@std@@@std@@QAEXI@Z PROC ; std::vector<CharInfoData,std::allocator<CharInfoData> >::reserve, COMDAT
; _this$ = ecx

; 746  : 		{	// determine new minimum length of allocated storage

  00000	6a 04		 push	 4
  00002	b8 00 00 00 00	 mov	 eax, __ehhandler$?reserve@?$vector@UCharInfoData@@V?$allocator@UCharInfoData@@@std@@@std@@QAEXI@Z
  00007	e8 00 00 00 00	 call	 __EH_prolog3_catch
  0000c	8b f1		 mov	 esi, ecx

; 747  : 		if (max_size() < _Count)

  0000e	8b 5d 08	 mov	 ebx, DWORD PTR __Count$[ebp]
  00011	81 fb 44 44 44
	00		 cmp	 ebx, 4473924		; 00444444H
  00017	76 0b		 jbe	 SHORT $LN5@reserve@3

; 748  : 			_Xlen();	// result too long

  00019	68 00 00 00 00	 push	 OFFSET ??_C@_0BD@OLBABOEK@vector?$DMT?$DO?5too?5long?$AA@
  0001e	ff 15 00 00 00
	00		 call	 DWORD PTR __imp_?_Xlength_error@std@@YAXPBD@Z
$LN38@reserve@3:
$LN5@reserve@3:

; 749  : 		else if (capacity() < _Count)

  00024	8b 46 08	 mov	 eax, DWORD PTR [esi+8]
  00027	2b 06		 sub	 eax, DWORD PTR [esi]
  00029	b9 c0 03 00 00	 mov	 ecx, 960		; 000003c0H
  0002e	99		 cdq
  0002f	f7 f9		 idiv	 ecx
  00031	3b c3		 cmp	 eax, ebx
  00033	73 78		 jae	 SHORT $LN3@reserve@3

; 750  : 			{	// not enough room, reallocate
; 751  : 			pointer _Ptr = this->_Alval.allocate(_Count);

  00035	6a 00		 push	 0
  00037	53		 push	 ebx
  00038	e8 00 00 00 00	 call	 ??$_Allocate@UCharInfoData@@@std@@YAPAUCharInfoData@@IPAU1@@Z ; std::_Allocate<CharInfoData>

; 752  : 
; 753  : 			_TRY_BEGIN
; 754  : 			_Umove(this->_Myfirst, this->_Mylast, _Ptr);

  0003d	8b 0e		 mov	 ecx, DWORD PTR [esi]
  0003f	83 65 fc 00	 and	 DWORD PTR __$EHRec$[ebp+12], 0
  00043	8d 56 0c	 lea	 edx, DWORD PTR [esi+12]
  00046	52		 push	 edx
  00047	89 45 08	 mov	 DWORD PTR __Ptr$515339[ebp], eax
  0004a	ff 75 08	 push	 DWORD PTR __Ptr$515339[ebp]
  0004d	8b 46 04	 mov	 eax, DWORD PTR [esi+4]
  00050	50		 push	 eax
  00051	51		 push	 ecx
  00052	e8 00 00 00 00	 call	 ??$_Uninitialized_move@PAUCharInfoData@@PAU1@V?$allocator@UCharInfoData@@@std@@@std@@YAPAUCharInfoData@@PAU1@00AAV?$allocator@UCharInfoData@@@0@@Z ; std::_Uninitialized_move<CharInfoData *,CharInfoData *,std::allocator<CharInfoData> >

; 758  : 			_CATCH_END
; 759  : 
; 760  : 			size_type _Size = size();

  00057	8b 0e		 mov	 ecx, DWORD PTR [esi]
  00059	8b 46 04	 mov	 eax, DWORD PTR [esi+4]
  0005c	2b c1		 sub	 eax, ecx
  0005e	99		 cdq
  0005f	bf c0 03 00 00	 mov	 edi, 960		; 000003c0H
  00064	f7 ff		 idiv	 edi
  00066	83 4d fc ff	 or	 DWORD PTR __$EHRec$[ebp+12], -1
  0006a	83 c4 18	 add	 esp, 24			; 00000018H
  0006d	8b f8		 mov	 edi, eax
  0006f	85 c9		 test	 ecx, ecx
  00071	74 17		 je	 SHORT $LN33@reserve@3

; 761  : 			if (this->_Myfirst != 0)
; 762  : 				{	// destroy and deallocate old array
; 763  : 				_Destroy(this->_Myfirst, this->_Mylast);

  00073	8d 46 0c	 lea	 eax, DWORD PTR [esi+12]
  00076	50		 push	 eax
  00077	ff 76 04	 push	 DWORD PTR [esi+4]
  0007a	51		 push	 ecx
  0007b	e8 00 00 00 00	 call	 ??$_Destroy_range@V?$allocator@UCharInfoData@@@std@@@std@@YAXPAUCharInfoData@@0AAV?$allocator@UCharInfoData@@@0@@Z ; std::_Destroy_range<std::allocator<CharInfoData> >

; 764  : 				this->_Alval.deallocate(this->_Myfirst,
; 765  : 					this->_Myend - this->_Myfirst);

  00080	ff 36		 push	 DWORD PTR [esi]
  00082	e8 00 00 00 00	 call	 ??3@YAXPAX@Z		; operator delete
  00087	83 c4 10	 add	 esp, 16			; 00000010H
$LN33@reserve@3:

; 766  : 				}
; 767  : 
; 768  : 			this->_Orphan_all();

  0008a	8b ce		 mov	 ecx, esi
  0008c	ff 15 00 00 00
	00		 call	 DWORD PTR __imp_?_Orphan_all@_Container_base0@std@@QAEXXZ

; 769  : 			this->_Myend = _Ptr + _Count;

  00092	69 db c0 03 00
	00		 imul	 ebx, 960		; 000003c0H

; 770  : 			this->_Mylast = _Ptr + _Size;

  00098	69 ff c0 03 00
	00		 imul	 edi, 960		; 000003c0H
  0009e	8b 45 08	 mov	 eax, DWORD PTR __Ptr$515339[ebp]
  000a1	03 d8		 add	 ebx, eax
  000a3	03 f8		 add	 edi, eax
  000a5	89 5e 08	 mov	 DWORD PTR [esi+8], ebx
  000a8	89 7e 04	 mov	 DWORD PTR [esi+4], edi

; 771  : 			this->_Myfirst = _Ptr;

  000ab	89 06		 mov	 DWORD PTR [esi], eax
$LN3@reserve@3:

; 772  : 			}
; 773  : 		}

  000ad	e8 00 00 00 00	 call	 __EH_epilog3
  000b2	c2 04 00	 ret	 4
__catch$?reserve@?$vector@UCharInfoData@@V?$allocator@UCharInfoData@@@std@@@std@@QAEXI@Z$0:

; 755  : 			_CATCH_ALL
; 756  : 			this->_Alval.deallocate(_Ptr, _Count);

  000b5	ff 75 08	 push	 DWORD PTR __Ptr$515339[ebp]
  000b8	e8 00 00 00 00	 call	 ??3@YAXPAX@Z		; operator delete
  000bd	59		 pop	 ecx

; 757  : 			_RERAISE;

  000be	6a 00		 push	 0
  000c0	6a 00		 push	 0
  000c2	e8 00 00 00 00	 call	 __CxxThrowException@8
$LN39@reserve@3:
$LN37@reserve@3:
  000c7	cc		 int	 3
_TEXT	ENDS
;	COMDAT text$x
text$x	SEGMENT
__ehhandler$?reserve@?$vector@UCharInfoData@@V?$allocator@UCharInfoData@@@std@@@std@@QAEXI@Z:
  00000	8b 54 24 08	 mov	 edx, DWORD PTR [esp+8]
  00004	8d 42 0c	 lea	 eax, DWORD PTR [edx+12]
  00007	8b 4a ec	 mov	 ecx, DWORD PTR [edx-20]
  0000a	33 c8		 xor	 ecx, eax
  0000c	e8 00 00 00 00	 call	 @__security_check_cookie@4
  00011	b8 00 00 00 00	 mov	 eax, OFFSET __ehfuncinfo$?reserve@?$vector@UCharInfoData@@V?$allocator@UCharInfoData@@@std@@@std@@QAEXI@Z
  00016	e9 00 00 00 00	 jmp	 ___CxxFrameHandler3
text$x	ENDS
?reserve@?$vector@UCharInfoData@@V?$allocator@UCharInfoData@@@std@@@std@@QAEXI@Z ENDP ; std::vector<CharInfoData,std::allocator<CharInfoData> >::reserve
PUBLIC	??$sort_heap@PAUCharInfoData@@VCharInfoSort@@@std@@YAXPAUCharInfoData@@0VCharInfoSort@@@Z ; std::sort_heap<CharInfoData *,CharInfoSort>
; Function compile flags: /Ogsp
; File c:\program files (x86)\microsoft visual studio 10.0\vc\include\algorithm
;	COMDAT ??$sort_heap@PAUCharInfoData@@VCharInfoSort@@@std@@YAXPAUCharInfoData@@0VCharInfoSort@@@Z
_TEXT	SEGMENT
__First$ = 8						; size = 4
__Last$ = 12						; size = 4
__Pred$ = 16						; size = 1
??$sort_heap@PAUCharInfoData@@VCharInfoSort@@@std@@YAXPAUCharInfoData@@0VCharInfoSort@@@Z PROC ; std::sort_heap<CharInfoData *,CharInfoSort>, COMDAT

; 2708 : 	{	// order heap by repeatedly popping, using _Pred

  00000	55		 push	 ebp
  00001	8b ec		 mov	 ebp, esp

; 2709 : 	_DEBUG_RANGE(_First, _Last);
; 2710 : 	_DEBUG_POINTER(_Pred);
; 2711 : 	_DEBUG_HEAP_PRED(_First, _Last, _Pred);
; 2712 : 	_Sort_heap(_Unchecked(_First), _Unchecked(_Last), _Pred);

  00003	ff 75 10	 push	 DWORD PTR __Pred$[ebp]
  00006	ff 75 0c	 push	 DWORD PTR __Last$[ebp]
  00009	ff 75 08	 push	 DWORD PTR __First$[ebp]
  0000c	e8 00 00 00 00	 call	 ??$_Sort_heap@PAUCharInfoData@@VCharInfoSort@@@std@@YAXPAUCharInfoData@@0VCharInfoSort@@@Z ; std::_Sort_heap<CharInfoData *,CharInfoSort>
  00011	83 c4 0c	 add	 esp, 12			; 0000000cH

; 2713 : 	}

  00014	5d		 pop	 ebp
  00015	c3		 ret	 0
??$sort_heap@PAUCharInfoData@@VCharInfoSort@@@std@@YAXPAUCharInfoData@@0VCharInfoSort@@@Z ENDP ; std::sort_heap<CharInfoData *,CharInfoSort>
_TEXT	ENDS
PUBLIC	??_7UserInfoCharData@@6B@			; UserInfoCharData::`vftable'
PUBLIC	??0UserInfoCharData@@QAE@XZ			; UserInfoCharData::UserInfoCharData
PUBLIC	??_R4UserInfoCharData@@6B@			; UserInfoCharData::`RTTI Complete Object Locator'
PUBLIC	??_R0?AVUserInfoCharData@@@8			; UserInfoCharData `RTTI Type Descriptor'
PUBLIC	??_R3UserInfoCharData@@8			; UserInfoCharData::`RTTI Class Hierarchy Descriptor'
PUBLIC	??_R2UserInfoCharData@@8			; UserInfoCharData::`RTTI Base Class Array'
PUBLIC	??_R1A@?0A@EA@UserInfoCharData@@8		; UserInfoCharData::`RTTI Base Class Descriptor at (0,-1,0,64)'
EXTRN	??_EUserInfoCharData@@UAEPAXI@Z:PROC		; UserInfoCharData::`vector deleting destructor'
;	COMDAT ??_R1A@?0A@EA@UserInfoCharData@@8
; File c:\program files (x86)\microsoft visual studio 10.0\vc\include\xmemory
rdata$r	SEGMENT
??_R1A@?0A@EA@UserInfoCharData@@8 DD FLAT:??_R0?AVUserInfoCharData@@@8 ; UserInfoCharData::`RTTI Base Class Descriptor at (0,-1,0,64)'
	DD	00H
	DD	00H
	DD	0ffffffffH
	DD	00H
	DD	040H
	DD	FLAT:??_R3UserInfoCharData@@8
rdata$r	ENDS
;	COMDAT ??_R2UserInfoCharData@@8
rdata$r	SEGMENT
??_R2UserInfoCharData@@8 DD FLAT:??_R1A@?0A@EA@UserInfoCharData@@8 ; UserInfoCharData::`RTTI Base Class Array'
rdata$r	ENDS
;	COMDAT ??_R3UserInfoCharData@@8
rdata$r	SEGMENT
??_R3UserInfoCharData@@8 DD 00H				; UserInfoCharData::`RTTI Class Hierarchy Descriptor'
	DD	00H
	DD	01H
	DD	FLAT:??_R2UserInfoCharData@@8
rdata$r	ENDS
;	COMDAT ??_R0?AVUserInfoCharData@@@8
_DATA	SEGMENT
??_R0?AVUserInfoCharData@@@8 DD FLAT:??_7type_info@@6B@	; UserInfoCharData `RTTI Type Descriptor'
	DD	00H
	DB	'.?AVUserInfoCharData@@', 00H
_DATA	ENDS
;	COMDAT ??_R4UserInfoCharData@@6B@
rdata$r	SEGMENT
??_R4UserInfoCharData@@6B@ DD 00H			; UserInfoCharData::`RTTI Complete Object Locator'
	DD	00H
	DD	00H
	DD	FLAT:??_R0?AVUserInfoCharData@@@8
	DD	FLAT:??_R3UserInfoCharData@@8
rdata$r	ENDS
;	COMDAT ??_7UserInfoCharData@@6B@
CONST	SEGMENT
??_7UserInfoCharData@@6B@ DD FLAT:??_R4UserInfoCharData@@6B@ ; UserInfoCharData::`vftable'
	DD	FLAT:??_EUserInfoCharData@@UAEPAXI@Z
CONST	ENDS
;	COMDAT xdata$x
xdata$x	SEGMENT
__unwindtable$??0UserInfoCharData@@QAE@XZ DD 0ffffffffH
	DD	FLAT:__unwindfunclet$??0UserInfoCharData@@QAE@XZ$0
__ehfuncinfo$??0UserInfoCharData@@QAE@XZ DD 019930522H
	DD	01H
	DD	FLAT:__unwindtable$??0UserInfoCharData@@QAE@XZ
	DD	2 DUP(00H)
	DD	2 DUP(00H)
	DD	00H
	DD	01H
; Function compile flags: /Ogsp
; File d:\lost saga for developer\youtube\tutorial\source\src\lsclient\gui\iouserinfomgr.cpp
xdata$x	ENDS
;	COMDAT ??0UserInfoCharData@@QAE@XZ
_TEXT	SEGMENT
_this$ = -16						; size = 4
__$EHRec$ = -12						; size = 12
??0UserInfoCharData@@QAE@XZ PROC			; UserInfoCharData::UserInfoCharData, COMDAT
; _this$ = ecx

; 23   : {

  00000	6a 04		 push	 4
  00002	b8 00 00 00 00	 mov	 eax, __ehhandler$??0UserInfoCharData@@QAE@XZ
  00007	e8 00 00 00 00	 call	 __EH_prolog3
  0000c	8b f1		 mov	 esi, ecx
  0000e	89 75 f0	 mov	 DWORD PTR _this$[ebp], esi
  00011	33 db		 xor	 ebx, ebx
  00013	c7 06 00 00 00
	00		 mov	 DWORD PTR [esi], OFFSET ??_7UserInfoCharData@@6B@
  00019	89 5e 04	 mov	 DWORD PTR [esi+4], ebx
  0001c	89 5e 08	 mov	 DWORD PTR [esi+8], ebx
  0001f	89 5e 0c	 mov	 DWORD PTR [esi+12], ebx
  00022	8d 4e 14	 lea	 ecx, DWORD PTR [esi+20]
  00025	89 5d fc	 mov	 DWORD PTR __$EHRec$[ebp+8], ebx
  00028	e8 00 00 00 00	 call	 ??0CharInfoData@@QAE@XZ	; CharInfoData::CharInfoData

; 24   : 	m_dwSyncCheckTime      = 0;

  0002d	89 9e d8 03 00
	00		 mov	 DWORD PTR [esi+984], ebx

; 25   : 	m_bDataSync			   = false;

  00033	88 9e dc 03 00
	00		 mov	 BYTE PTR [esi+988], bl

; 26   : 	m_iMaxVirtualCharCount = 0;

  00039	89 9e e0 03 00
	00		 mov	 DWORD PTR [esi+992], ebx

; 27   : 	m_bScrollSyncBlock	   = false;

  0003f	88 9e e4 03 00
	00		 mov	 BYTE PTR [esi+996], bl

; 28   : 	m_dwScrollSyncTime     = 0;

  00045	89 9e e8 03 00
	00		 mov	 DWORD PTR [esi+1000], ebx

; 29   : 	m_dwLeaderMotion       = 0;

  0004b	89 9e d4 03 00
	00		 mov	 DWORD PTR [esi+980], ebx

; 30   : }

  00051	8b c6		 mov	 eax, esi
  00053	e8 00 00 00 00	 call	 __EH_epilog3
  00058	c3		 ret	 0
_TEXT	ENDS
;	COMDAT text$x
text$x	SEGMENT
__unwindfunclet$??0UserInfoCharData@@QAE@XZ$0:
  00000	8b 4d f0	 mov	 ecx, DWORD PTR _this$[ebp]
  00003	83 c1 04	 add	 ecx, 4
  00006	e9 00 00 00 00	 jmp	 ??1?$vector@UCharInfoData@@V?$allocator@UCharInfoData@@@std@@@std@@QAE@XZ ; std::vector<CharInfoData,std::allocator<CharInfoData> >::~vector<CharInfoData,std::allocator<CharInfoData> >
__ehhandler$??0UserInfoCharData@@QAE@XZ:
  0000b	8b 54 24 08	 mov	 edx, DWORD PTR [esp+8]
  0000f	8d 42 0c	 lea	 eax, DWORD PTR [edx+12]
  00012	8b 4a ec	 mov	 ecx, DWORD PTR [edx-20]
  00015	33 c8		 xor	 ecx, eax
  00017	e8 00 00 00 00	 call	 @__security_check_cookie@4
  0001c	b8 00 00 00 00	 mov	 eax, OFFSET __ehfuncinfo$??0UserInfoCharData@@QAE@XZ
  00021	e9 00 00 00 00	 jmp	 ___CxxFrameHandler3
text$x	ENDS
??0UserInfoCharData@@QAE@XZ ENDP			; UserInfoCharData::UserInfoCharData
PUBLIC	??1UserInfoCharData@@UAE@XZ			; UserInfoCharData::~UserInfoCharData
;	COMDAT xdata$x
; File c:\program files (x86)\microsoft visual studio 10.0\vc\include\vector
xdata$x	SEGMENT
__unwindtable$??1UserInfoCharData@@UAE@XZ DD 0ffffffffH
	DD	FLAT:__unwindfunclet$??1UserInfoCharData@@UAE@XZ$0
__ehfuncinfo$??1UserInfoCharData@@UAE@XZ DD 019930522H
	DD	01H
	DD	FLAT:__unwindtable$??1UserInfoCharData@@UAE@XZ
	DD	2 DUP(00H)
	DD	2 DUP(00H)
	DD	00H
	DD	01H
; Function compile flags: /Ogsp
; File d:\lost saga for developer\youtube\tutorial\source\src\lsclient\gui\iouserinfomgr.cpp
xdata$x	ENDS
;	COMDAT ??1UserInfoCharData@@UAE@XZ
_TEXT	SEGMENT
_this$ = -16						; size = 4
__$EHRec$ = -12						; size = 12
??1UserInfoCharData@@UAE@XZ PROC			; UserInfoCharData::~UserInfoCharData, COMDAT
; _this$ = ecx

; 33   : {

  00000	6a 04		 push	 4
  00002	b8 00 00 00 00	 mov	 eax, __ehhandler$??1UserInfoCharData@@UAE@XZ
  00007	e8 00 00 00 00	 call	 __EH_prolog3
  0000c	8b f1		 mov	 esi, ecx
  0000e	89 75 f0	 mov	 DWORD PTR _this$[ebp], esi
  00011	c7 06 00 00 00
	00		 mov	 DWORD PTR [esi], OFFSET ??_7UserInfoCharData@@6B@
  00017	83 65 fc 00	 and	 DWORD PTR __$EHRec$[ebp+8], 0

; 34   : 
; 35   : }

  0001b	8d 4e 14	 lea	 ecx, DWORD PTR [esi+20]
  0001e	e8 00 00 00 00	 call	 ??1CharInfoData@@QAE@XZ
  00023	83 4d fc ff	 or	 DWORD PTR __$EHRec$[ebp+8], -1
  00027	8d 4e 04	 lea	 ecx, DWORD PTR [esi+4]
  0002a	e8 00 00 00 00	 call	 ?_Tidy@?$vector@UCharInfoData@@V?$allocator@UCharInfoData@@@std@@@std@@IAEXXZ ; std::vector<CharInfoData,std::allocator<CharInfoData> >::_Tidy
  0002f	e8 00 00 00 00	 call	 __EH_epilog3
  00034	c3		 ret	 0
_TEXT	ENDS
;	COMDAT text$x
text$x	SEGMENT
__unwindfunclet$??1UserInfoCharData@@UAE@XZ$0:
  00000	8b 4d f0	 mov	 ecx, DWORD PTR _this$[ebp]
  00003	83 c1 04	 add	 ecx, 4
  00006	e9 00 00 00 00	 jmp	 ??1?$vector@UCharInfoData@@V?$allocator@UCharInfoData@@@std@@@std@@QAE@XZ ; std::vector<CharInfoData,std::allocator<CharInfoData> >::~vector<CharInfoData,std::allocator<CharInfoData> >
__ehhandler$??1UserInfoCharData@@UAE@XZ:
  0000b	8b 54 24 08	 mov	 edx, DWORD PTR [esp+8]
  0000f	8d 42 0c	 lea	 eax, DWORD PTR [edx+12]
  00012	8b 4a ec	 mov	 ecx, DWORD PTR [edx-20]
  00015	33 c8		 xor	 ecx, eax
  00017	e8 00 00 00 00	 call	 @__security_check_cookie@4
  0001c	b8 00 00 00 00	 mov	 eax, OFFSET __ehfuncinfo$??1UserInfoCharData@@UAE@XZ
  00021	e9 00 00 00 00	 jmp	 ___CxxFrameHandler3
text$x	ENDS
??1UserInfoCharData@@UAE@XZ ENDP			; UserInfoCharData::~UserInfoCharData
PUBLIC	?DeleteCharData@UserInfoCharData@@QAEXH@Z	; UserInfoCharData::DeleteCharData
; Function compile flags: /Ogsp
;	COMDAT ?DeleteCharData@UserInfoCharData@@QAEXH@Z
_TEXT	SEGMENT
_value$524512 = -4					; size = 4
_value$524516 = -4					; size = 4
$T524427 = -4						; size = 4
_iClassType$ = 8					; size = 4
?DeleteCharData@UserInfoCharData@@QAEXH@Z PROC		; UserInfoCharData::DeleteCharData, COMDAT
; _this$ = ecx

; 214  : {

  00000	55		 push	 ebp
  00001	8b ec		 mov	 ebp, esp
  00003	51		 push	 ecx
  00004	53		 push	 ebx
  00005	56		 push	 esi
  00006	57		 push	 edi
  00007	8b f9		 mov	 edi, ecx

; 215  : 	CharInfoDataVec::iterator iter = m_CharDataList.begin();

  00009	8b 77 04	 mov	 esi, DWORD PTR [edi+4]
  0000c	eb 1a		 jmp	 SHORT $LN45@DeleteChar

; 216  : 	for(;iter != m_CharDataList.end();++iter)

$LL18@DeleteChar:

; 217  : 	{
; 218  : 		CharInfoData &rkData = *iter;
; 219  : 		if( rkData.m_CharInfo.m_class_type == iClassType )

  0000e	8d 45 fc	 lea	 eax, DWORD PTR _value$524512[ebp]
  00011	50		 push	 eax
  00012	8d 4e 08	 lea	 ecx, DWORD PTR [esi+8]
  00015	e8 00 00 00 00	 call	 ?DecryptValueToPool@?$CEncrypt@H@@QAEXPAH@Z ; CEncrypt<int>::DecryptValueToPool
  0001a	8b 45 08	 mov	 eax, DWORD PTR _iClassType$[ebp]
  0001d	39 45 fc	 cmp	 DWORD PTR _value$524512[ebp], eax
  00020	74 0d		 je	 SHORT $LN43@DeleteChar

; 216  : 	for(;iter != m_CharDataList.end();++iter)

  00022	81 c6 c0 03 00
	00		 add	 esi, 960		; 000003c0H
$LN45@DeleteChar:
  00028	3b 77 08	 cmp	 esi, DWORD PTR [edi+8]
  0002b	75 e1		 jne	 SHORT $LL18@DeleteChar

; 217  : 	{
; 218  : 		CharInfoData &rkData = *iter;
; 219  : 		if( rkData.m_CharInfo.m_class_type == iClassType )

  0002d	eb 0d		 jmp	 SHORT $LN3@DeleteChar
$LN43@DeleteChar:

; 220  : 		{
; 221  : 			m_CharDataList.erase( iter );

  0002f	56		 push	 esi
  00030	8d 45 fc	 lea	 eax, DWORD PTR $T524427[ebp]
  00033	50		 push	 eax
  00034	8d 4f 04	 lea	 ecx, DWORD PTR [edi+4]
  00037	e8 00 00 00 00	 call	 ?erase@?$vector@UCharInfoData@@V?$allocator@UCharInfoData@@@std@@@std@@QAE?AV?$_Vector_iterator@V?$_Vector_val@UCharInfoData@@V?$allocator@UCharInfoData@@@std@@@std@@@2@V?$_Vector_const_iterator@V?$_Vector_val@UCharInfoData@@V?$allocator@UCharInfoData@@@std@@@std@@@2@@Z ; std::vector<CharInfoData,std::allocator<CharInfoData> >::erase
$LN3@DeleteChar:

; 222  : 			break;
; 223  : 		}
; 224  : 	}
; 225  : 
; 226  : 	// 리더 캐릭터 삭제되었음
; 227  : 	if( m_LeaderCharData.m_CharInfo.m_class_type == iClassType )

  0003c	8d 45 fc	 lea	 eax, DWORD PTR _value$524516[ebp]
  0003f	50		 push	 eax
  00040	8d 4f 1c	 lea	 ecx, DWORD PTR [edi+28]
  00043	e8 00 00 00 00	 call	 ?DecryptValueToPool@?$CEncrypt@H@@QAEXPAH@Z ; CEncrypt<int>::DecryptValueToPool
  00048	8b 45 08	 mov	 eax, DWORD PTR _iClassType$[ebp]
  0004b	39 45 fc	 cmp	 DWORD PTR _value$524516[ebp], eax
  0004e	75 07		 jne	 SHORT $LN1@DeleteChar

; 228  : 		SelectLeader();

  00050	8b cf		 mov	 ecx, edi
  00052	e8 00 00 00 00	 call	 ?SelectLeader@UserInfoCharData@@IAEXXZ ; UserInfoCharData::SelectLeader
$LN1@DeleteChar:
  00057	5f		 pop	 edi
  00058	5e		 pop	 esi
  00059	5b		 pop	 ebx

; 229  : }

  0005a	c9		 leave
  0005b	c2 04 00	 ret	 4
?DeleteCharData@UserInfoCharData@@QAEXH@Z ENDP		; UserInfoCharData::DeleteCharData
_TEXT	ENDS
PUBLIC	??_7UserInfoNode@@6B@				; UserInfoNode::`vftable'
PUBLIC	??0UserInfoNode@@QAE@ABVioHashString@@HH_J1HHHHHHHHHHHHHHHHHAAV?$vector@HV?$allocator@H@std@@@std@@2HHKHE2@Z ; UserInfoNode::UserInfoNode
PUBLIC	??_R4UserInfoNode@@6B@				; UserInfoNode::`RTTI Complete Object Locator'
PUBLIC	??_R0?AVUserInfoNode@@@8			; UserInfoNode `RTTI Type Descriptor'
PUBLIC	??_R3UserInfoNode@@8				; UserInfoNode::`RTTI Class Hierarchy Descriptor'
PUBLIC	??_R2UserInfoNode@@8				; UserInfoNode::`RTTI Base Class Array'
PUBLIC	??_R1A@?0A@EA@UserInfoNode@@8			; UserInfoNode::`RTTI Base Class Descriptor at (0,-1,0,64)'
EXTRN	??_EUserInfoNode@@UAEPAXI@Z:PROC		; UserInfoNode::`vector deleting destructor'
;	COMDAT ??_R1A@?0A@EA@UserInfoNode@@8
rdata$r	SEGMENT
??_R1A@?0A@EA@UserInfoNode@@8 DD FLAT:??_R0?AVUserInfoNode@@@8 ; UserInfoNode::`RTTI Base Class Descriptor at (0,-1,0,64)'
	DD	00H
	DD	00H
	DD	0ffffffffH
	DD	00H
	DD	040H
	DD	FLAT:??_R3UserInfoNode@@8
rdata$r	ENDS
;	COMDAT ??_R2UserInfoNode@@8
rdata$r	SEGMENT
??_R2UserInfoNode@@8 DD FLAT:??_R1A@?0A@EA@UserInfoNode@@8 ; UserInfoNode::`RTTI Base Class Array'
rdata$r	ENDS
;	COMDAT ??_R3UserInfoNode@@8
rdata$r	SEGMENT
??_R3UserInfoNode@@8 DD 00H				; UserInfoNode::`RTTI Class Hierarchy Descriptor'
	DD	00H
	DD	01H
	DD	FLAT:??_R2UserInfoNode@@8
rdata$r	ENDS
;	COMDAT ??_R0?AVUserInfoNode@@@8
_DATA	SEGMENT
??_R0?AVUserInfoNode@@@8 DD FLAT:??_7type_info@@6B@	; UserInfoNode `RTTI Type Descriptor'
	DD	00H
	DB	'.?AVUserInfoNode@@', 00H
_DATA	ENDS
;	COMDAT ??_R4UserInfoNode@@6B@
rdata$r	SEGMENT
??_R4UserInfoNode@@6B@ DD 00H				; UserInfoNode::`RTTI Complete Object Locator'
	DD	00H
	DD	00H
	DD	FLAT:??_R0?AVUserInfoNode@@@8
	DD	FLAT:??_R3UserInfoNode@@8
rdata$r	ENDS
;	COMDAT ??_7UserInfoNode@@6B@
CONST	SEGMENT
??_7UserInfoNode@@6B@ DD FLAT:??_R4UserInfoNode@@6B@	; UserInfoNode::`vftable'
	DD	FLAT:??_EUserInfoNode@@UAEPAXI@Z
CONST	ENDS
;	COMDAT xdata$x
xdata$x	SEGMENT
__ehfuncinfo$??0UserInfoNode@@QAE@ABVioHashString@@HH_J1HHHHHHHHHHHHHHHHHAAV?$vector@HV?$allocator@H@std@@@std@@2HHKHE2@Z DD 019930522H
	DD	05H
	DD	FLAT:__unwindtable$??0UserInfoNode@@QAE@ABVioHashString@@HH_J1HHHHHHHHHHHHHHHHHAAV?$vector@HV?$allocator@H@std@@@std@@2HHKHE2@Z
	DD	2 DUP(00H)
	DD	2 DUP(00H)
	DD	00H
	DD	01H
__unwindtable$??0UserInfoNode@@QAE@ABVioHashString@@HH_J1HHHHHHHHHHHHHHHHHAAV?$vector@HV?$allocator@H@std@@@std@@2HHKHE2@Z DD 0ffffffffH
	DD	FLAT:__unwindfunclet$??0UserInfoNode@@QAE@ABVioHashString@@HH_J1HHHHHHHHHHHHHHHHHAAV?$vector@HV?$allocator@H@std@@@std@@2HHKHE2@Z$0
	DD	00H
	DD	FLAT:__unwindfunclet$??0UserInfoNode@@QAE@ABVioHashString@@HH_J1HHHHHHHHHHHHHHHHHAAV?$vector@HV?$allocator@H@std@@@std@@2HHKHE2@Z$1
	DD	01H
	DD	FLAT:__unwindfunclet$??0UserInfoNode@@QAE@ABVioHashString@@HH_J1HHHHHHHHHHHHHHHHHAAV?$vector@HV?$allocator@H@std@@@std@@2HHKHE2@Z$2
	DD	02H
	DD	FLAT:__unwindfunclet$??0UserInfoNode@@QAE@ABVioHashString@@HH_J1HHHHHHHHHHHHHHHHHAAV?$vector@HV?$allocator@H@std@@@std@@2HHKHE2@Z$3
	DD	03H
	DD	FLAT:__unwindfunclet$??0UserInfoNode@@QAE@ABVioHashString@@HH_J1HHHHHHHHHHHHHHHHHAAV?$vector@HV?$allocator@H@std@@@std@@2HHKHE2@Z$4
; Function compile flags: /Ogsp
xdata$x	ENDS
;	COMDAT ??0UserInfoNode@@QAE@ABVioHashString@@HH_J1HHHHHHHHHHHHHHHHHAAV?$vector@HV?$allocator@H@std@@@std@@2HHKHE2@Z
_TEXT	SEGMENT
_this$ = -16						; size = 4
__$EHRec$ = -12						; size = 12
_szUserID$ = 8						; size = 4
_iGradeLevel$ = 12					; size = 4
_iGradeExpPer$ = 16					; size = 4
_iPartyExp$ = 20					; size = 8
_iLadderExp$ = 28					; size = 8
_iAwardLevel$ = 36					; size = 4
_iAwardExp$ = 40					; size = 4
_iKillDeathLevel$ = 44					; size = 4
_iFishingLevel$ = 48					; size = 4
_iFishingExp$ = 52					; size = 4
_iExcavationLevel$ = 56					; size = 4
_iExcavationExp$ = 60					; size = 4
_iHeroWin$ = 64						; size = 4
_iHeroLose$ = 68					; size = 4
_iHeroTitle$ = 72					; size = 4
_iHeroRank$ = 76					; size = 4
_iBlockType$ = 80					; size = 4
_iRanking$ = 84						; size = 4
_iCampPosition$ = 88					; size = 4
_iLadderPoint$ = 92					; size = 4
_iClassLevel$ = 96					; size = 4
_iClassType$ = 100					; size = 4
_rvMedalItemTypeVec$ = 104				; size = 4
_rvGrowthLevelVec$ = 108				; size = 4
_nPetCode$ = 112					; size = 4
_nPetLevel$ = 116					; size = 4
_dwNamedTitleCode$ = 120				; size = 4
_nNamedTitleLevel$ = 124				; size = 4
_byNamedTitlePremium$ = 128				; size = 1
_rvSoldierSetCntVec$ = 132				; size = 4
??0UserInfoNode@@QAE@ABVioHashString@@HH_J1HHHHHHHHHHHHHHHHHAAV?$vector@HV?$allocator@H@std@@@std@@2HHKHE2@Z PROC ; UserInfoNode::UserInfoNode, COMDAT
; _this$ = ecx

; 509  : {

  00000	6a 04		 push	 4
  00002	b8 00 00 00 00	 mov	 eax, __ehhandler$??0UserInfoNode@@QAE@ABVioHashString@@HH_J1HHHHHHHHHHHHHHHHHAAV?$vector@HV?$allocator@H@std@@@std@@2HHKHE2@Z
  00007	e8 00 00 00 00	 call	 __EH_prolog3
  0000c	8b f1		 mov	 esi, ecx
  0000e	89 75 f0	 mov	 DWORD PTR _this$[ebp], esi
  00011	8d 4e 08	 lea	 ecx, DWORD PTR [esi+8]
  00014	c7 06 00 00 00
	00		 mov	 DWORD PTR [esi], OFFSET ??_7UserInfoNode@@6B@
  0001a	ff 15 00 00 00
	00		 call	 DWORD PTR __imp_??0ioHashString@@QAE@XZ
  00020	33 db		 xor	 ebx, ebx
  00022	89 5d fc	 mov	 DWORD PTR __$EHRec$[ebp+8], ebx
  00025	89 9e 88 00 00
	00		 mov	 DWORD PTR [esi+136], ebx
  0002b	89 9e 8c 00 00
	00		 mov	 DWORD PTR [esi+140], ebx
  00031	89 9e 90 00 00
	00		 mov	 DWORD PTR [esi+144], ebx
  00037	89 9e 98 00 00
	00		 mov	 DWORD PTR [esi+152], ebx
  0003d	89 9e 9c 00 00
	00		 mov	 DWORD PTR [esi+156], ebx
  00043	89 9e a0 00 00
	00		 mov	 DWORD PTR [esi+160], ebx
  00049	8d 8e c8 00 00
	00		 lea	 ecx, DWORD PTR [esi+200]
  0004f	c6 45 fc 02	 mov	 BYTE PTR __$EHRec$[ebp+8], 2
  00053	e8 00 00 00 00	 call	 ??0UserInfoCharData@@QAE@XZ ; UserInfoCharData::UserInfoCharData
  00058	89 9e c4 04 00
	00		 mov	 DWORD PTR [esi+1220], ebx
  0005e	89 9e c8 04 00
	00		 mov	 DWORD PTR [esi+1224], ebx
  00064	89 9e cc 04 00
	00		 mov	 DWORD PTR [esi+1228], ebx

; 510  : 	m_iPartyLevel	  = 0;
; 511  : 	m_iLadderLevel    = 0;
; 512  : 	m_iAwardLevel	  = 0;
; 513  : 	m_iFishingLevel   = 0;
; 514  : 	m_iExcavationLevel= 0;
; 515  : 
; 516  : 	m_dwGuildIndex  = 0;
; 517  : 	m_iLadderPoint  = 0;
; 518  : 	m_iClassLevel   = 0;
; 519  : 	m_iClassType    = 0;
; 520  : 
; 521  : 	m_UserID		= szUserID;

  0006a	ff 75 08	 push	 DWORD PTR _szUserID$[ebp]
  0006d	8d 4e 08	 lea	 ecx, DWORD PTR [esi+8]
  00070	c6 45 fc 04	 mov	 BYTE PTR __$EHRec$[ebp+8], 4
  00074	89 5e 20	 mov	 DWORD PTR [esi+32], ebx
  00077	89 5e 30	 mov	 DWORD PTR [esi+48], ebx
  0007a	89 5e 40	 mov	 DWORD PTR [esi+64], ebx
  0007d	89 5e 4c	 mov	 DWORD PTR [esi+76], ebx
  00080	89 5e 54	 mov	 DWORD PTR [esi+84], ebx
  00083	89 9e 80 00 00
	00		 mov	 DWORD PTR [esi+128], ebx
  00089	89 5e 74	 mov	 DWORD PTR [esi+116], ebx
  0008c	89 9e a8 00 00
	00		 mov	 DWORD PTR [esi+168], ebx
  00092	89 9e ac 00 00
	00		 mov	 DWORD PTR [esi+172], ebx
  00098	ff 15 00 00 00
	00		 call	 DWORD PTR __imp_??4ioHashString@@QAEAAV0@ABV0@@Z

; 522  : 	SetGrade( iGradeLevel, iGradeExpPer );

  0009e	8b 45 0c	 mov	 eax, DWORD PTR _iGradeLevel$[ebp]

; 523  : 	SetPartyExp( iPartyExp );

  000a1	ff 75 18	 push	 DWORD PTR _iPartyExp$[ebp+4]
  000a4	89 46 18	 mov	 DWORD PTR [esi+24], eax
  000a7	8b 45 10	 mov	 eax, DWORD PTR _iGradeExpPer$[ebp]
  000aa	ff 75 14	 push	 DWORD PTR _iPartyExp$[ebp]
  000ad	8b ce		 mov	 ecx, esi
  000af	89 46 1c	 mov	 DWORD PTR [esi+28], eax
  000b2	e8 00 00 00 00	 call	 ?SetPartyExp@UserInfoNode@@QAEX_J@Z ; UserInfoNode::SetPartyExp

; 524  : 	SetLadderExp( iLadderExp );

  000b7	ff 75 20	 push	 DWORD PTR _iLadderExp$[ebp+4]
  000ba	8b ce		 mov	 ecx, esi
  000bc	ff 75 1c	 push	 DWORD PTR _iLadderExp$[ebp]
  000bf	e8 00 00 00 00	 call	 ?SetLadderExp@UserInfoNode@@QAEX_J@Z ; UserInfoNode::SetLadderExp

; 525  : 	SetAwardExp( iAwardLevel, iAwardExp );

  000c4	8b 45 24	 mov	 eax, DWORD PTR _iAwardLevel$[ebp]
  000c7	89 46 40	 mov	 DWORD PTR [esi+64], eax
  000ca	8b 45 28	 mov	 eax, DWORD PTR _iAwardExp$[ebp]
  000cd	89 46 44	 mov	 DWORD PTR [esi+68], eax

; 526  : 	SetFishingExp( iFishingLevel, iFishingExp );

  000d0	8b 45 30	 mov	 eax, DWORD PTR _iFishingLevel$[ebp]
  000d3	89 46 4c	 mov	 DWORD PTR [esi+76], eax
  000d6	8b 45 34	 mov	 eax, DWORD PTR _iFishingExp$[ebp]

; 527  : 	SetExcavationExp( iExcavationLevel, iExcavationExp );
; 528  : 	SetHeroWin( iHeroWin );
; 529  : 	SetHeroLose( iHeroLose );
; 530  : 	SetHeroTitle( iHeroTitle );
; 531  : 	SetHeroRank( iHeroRank );
; 532  : 	SetBlockType( iBlockType );
; 533  : 	SetRanking( iRanking );
; 534  : 	SetCampPosition( iCampPosition );

  000d9	ff 75 58	 push	 DWORD PTR _iCampPosition$[ebp]
  000dc	89 46 50	 mov	 DWORD PTR [esi+80], eax
  000df	8b 45 38	 mov	 eax, DWORD PTR _iExcavationLevel$[ebp]
  000e2	89 46 54	 mov	 DWORD PTR [esi+84], eax
  000e5	8b 45 3c	 mov	 eax, DWORD PTR _iExcavationExp$[ebp]
  000e8	89 46 58	 mov	 DWORD PTR [esi+88], eax
  000eb	8b 45 40	 mov	 eax, DWORD PTR _iHeroWin$[ebp]
  000ee	89 46 5c	 mov	 DWORD PTR [esi+92], eax
  000f1	8b 45 44	 mov	 eax, DWORD PTR _iHeroLose$[ebp]
  000f4	89 46 60	 mov	 DWORD PTR [esi+96], eax
  000f7	8b 45 48	 mov	 eax, DWORD PTR _iHeroTitle$[ebp]
  000fa	89 46 64	 mov	 DWORD PTR [esi+100], eax
  000fd	8b 45 4c	 mov	 eax, DWORD PTR _iHeroRank$[ebp]
  00100	89 46 68	 mov	 DWORD PTR [esi+104], eax
  00103	8b 45 50	 mov	 eax, DWORD PTR _iBlockType$[ebp]
  00106	89 46 6c	 mov	 DWORD PTR [esi+108], eax
  00109	8b 45 54	 mov	 eax, DWORD PTR _iRanking$[ebp]
  0010c	8b ce		 mov	 ecx, esi
  0010e	89 46 70	 mov	 DWORD PTR [esi+112], eax
  00111	e8 00 00 00 00	 call	 ?SetCampPosition@UserInfoNode@@QAEXH@Z ; UserInfoNode::SetCampPosition

; 535  : 	SetLadderPoint( iLadderPoint );

  00116	ff 75 5c	 push	 DWORD PTR _iLadderPoint$[ebp]
  00119	e8 00 00 00 00	 call	 ?SetLadderPoint@UserInfoNode@@QAEXH@Z ; UserInfoNode::SetLadderPoint

; 536  : 	SetClassLevel( iClassLevel );

  0011e	8b 45 60	 mov	 eax, DWORD PTR _iClassLevel$[ebp]

; 537  : 	SetClassType( iClassType );
; 538  : 	SetMedalItemType( rvMedalItemTypeVec );

  00121	ff 75 68	 push	 DWORD PTR _rvMedalItemTypeVec$[ebp]
  00124	89 86 a8 00 00
	00		 mov	 DWORD PTR [esi+168], eax
  0012a	8b 45 64	 mov	 eax, DWORD PTR _iClassType$[ebp]
  0012d	89 86 ac 00 00
	00		 mov	 DWORD PTR [esi+172], eax
  00133	8d 8e 98 00 00
	00		 lea	 ecx, DWORD PTR [esi+152]
  00139	e8 00 00 00 00	 call	 ??4?$vector@HV?$allocator@H@std@@@std@@QAEAAV01@ABV01@@Z ; std::vector<int,std::allocator<int> >::operator=

; 539  : 	SetGrowthLevel( rvGrowthLevelVec );

  0013e	ff 75 6c	 push	 DWORD PTR _rvGrowthLevelVec$[ebp]
  00141	8d 8e 88 00 00
	00		 lea	 ecx, DWORD PTR [esi+136]
  00147	e8 00 00 00 00	 call	 ??4?$vector@HV?$allocator@H@std@@@std@@QAEAAV01@ABV01@@Z ; std::vector<int,std::allocator<int> >::operator=

; 540  : 	SetKillDeathLevel( iKillDeathLevel );

  0014c	8b 45 2c	 mov	 eax, DWORD PTR _iKillDeathLevel$[ebp]

; 541  : 	SetPetCode( nPetCode );
; 542  : 	SetPetLevel( nPetLevel );
; 543  : 	SetNamedTitle( dwNamedTitleCode, nNamedTitleLevel, byNamedTitlePremium );
; 544  : 	SetSoldierSetCnt( rvSoldierSetCntVec );

  0014f	ff b5 84 00 00
	00		 push	 DWORD PTR _rvSoldierSetCntVec$[ebp]
  00155	89 46 48	 mov	 DWORD PTR [esi+72], eax
  00158	8b 45 70	 mov	 eax, DWORD PTR _nPetCode$[ebp]
  0015b	89 86 b0 00 00
	00		 mov	 DWORD PTR [esi+176], eax
  00161	8b 45 74	 mov	 eax, DWORD PTR _nPetLevel$[ebp]
  00164	89 86 b4 00 00
	00		 mov	 DWORD PTR [esi+180], eax
  0016a	8b 45 78	 mov	 eax, DWORD PTR _dwNamedTitleCode$[ebp]
  0016d	89 86 bc 00 00
	00		 mov	 DWORD PTR [esi+188], eax
  00173	8b 45 7c	 mov	 eax, DWORD PTR _nNamedTitleLevel$[ebp]
  00176	89 86 c0 00 00
	00		 mov	 DWORD PTR [esi+192], eax
  0017c	8a 85 80 00 00
	00		 mov	 al, BYTE PTR _byNamedTitlePremium$[ebp]
  00182	8d 8e c4 04 00
	00		 lea	 ecx, DWORD PTR [esi+1220]
  00188	88 86 c4 00 00
	00		 mov	 BYTE PTR [esi+196], al
  0018e	e8 00 00 00 00	 call	 ??4?$vector@HV?$allocator@H@std@@@std@@QAEAAV01@ABV01@@Z ; std::vector<int,std::allocator<int> >::operator=

; 545  : 
; 546  : 	m_dwTCPSyncTime = 0;

  00193	89 9e b4 04 00
	00		 mov	 DWORD PTR [esi+1204], ebx

; 547  : 	m_dwUDPSyncTime = 0;

  00199	89 9e b8 04 00
	00		 mov	 DWORD PTR [esi+1208], ebx

; 548  : 	m_bSyncInfo     = false;
; 549  : 	m_bGuildInfoChange = false;

  0019f	88 9e 84 00 00
	00		 mov	 BYTE PTR [esi+132], bl

; 550  : 	m_bCampChange   = false;

  001a5	88 5e 7c	 mov	 BYTE PTR [esi+124], bl
  001a8	66 89 9e bc 04
	00 00		 mov	 WORD PTR [esi+1212], bx

; 551  : 	m_bForceUDPSync    = false;
; 552  : 	m_iRSoldierPossessionCount = 0;

  001af	89 9e c0 04 00
	00		 mov	 DWORD PTR [esi+1216], ebx

; 553  : }

  001b5	8b c6		 mov	 eax, esi
  001b7	e8 00 00 00 00	 call	 __EH_epilog3
  001bc	c2 80 00	 ret	 128			; 00000080H
_TEXT	ENDS
;	COMDAT text$x
text$x	SEGMENT
__unwindfunclet$??0UserInfoNode@@QAE@ABVioHashString@@HH_J1HHHHHHHHHHHHHHHHHAAV?$vector@HV?$allocator@H@std@@@std@@2HHKHE2@Z$0:
  00000	8b 4d f0	 mov	 ecx, DWORD PTR _this$[ebp]
  00003	83 c1 08	 add	 ecx, 8
  00006	ff 25 00 00 00
	00		 jmp	 DWORD PTR __imp_??1ioHashString@@QAE@XZ
__unwindfunclet$??0UserInfoNode@@QAE@ABVioHashString@@HH_J1HHHHHHHHHHHHHHHHHAAV?$vector@HV?$allocator@H@std@@@std@@2HHKHE2@Z$1:
  0000c	8b 4d f0	 mov	 ecx, DWORD PTR _this$[ebp]
  0000f	81 c1 88 00 00
	00		 add	 ecx, 136		; 00000088H
  00015	e9 00 00 00 00	 jmp	 ??1?$vector@HV?$allocator@H@std@@@std@@QAE@XZ ; std::vector<int,std::allocator<int> >::~vector<int,std::allocator<int> >
__unwindfunclet$??0UserInfoNode@@QAE@ABVioHashString@@HH_J1HHHHHHHHHHHHHHHHHAAV?$vector@HV?$allocator@H@std@@@std@@2HHKHE2@Z$2:
  0001a	8b 4d f0	 mov	 ecx, DWORD PTR _this$[ebp]
  0001d	81 c1 98 00 00
	00		 add	 ecx, 152		; 00000098H
  00023	e9 00 00 00 00	 jmp	 ??1?$vector@HV?$allocator@H@std@@@std@@QAE@XZ ; std::vector<int,std::allocator<int> >::~vector<int,std::allocator<int> >
__unwindfunclet$??0UserInfoNode@@QAE@ABVioHashString@@HH_J1HHHHHHHHHHHHHHHHHAAV?$vector@HV?$allocator@H@std@@@std@@2HHKHE2@Z$3:
  00028	8b 4d f0	 mov	 ecx, DWORD PTR _this$[ebp]
  0002b	81 c1 c8 00 00
	00		 add	 ecx, 200		; 000000c8H
  00031	e9 00 00 00 00	 jmp	 ??1UserInfoCharData@@UAE@XZ ; UserInfoCharData::~UserInfoCharData
__unwindfunclet$??0UserInfoNode@@QAE@ABVioHashString@@HH_J1HHHHHHHHHHHHHHHHHAAV?$vector@HV?$allocator@H@std@@@std@@2HHKHE2@Z$4:
  00036	8b 4d f0	 mov	 ecx, DWORD PTR _this$[ebp]
  00039	81 c1 c4 04 00
	00		 add	 ecx, 1220		; 000004c4H
  0003f	e9 00 00 00 00	 jmp	 ??1?$vector@HV?$allocator@H@std@@@std@@QAE@XZ ; std::vector<int,std::allocator<int> >::~vector<int,std::allocator<int> >
__ehhandler$??0UserInfoNode@@QAE@ABVioHashString@@HH_J1HHHHHHHHHHHHHHHHHAAV?$vector@HV?$allocator@H@std@@@std@@2HHKHE2@Z:
  00044	8b 54 24 08	 mov	 edx, DWORD PTR [esp+8]
  00048	8d 42 0c	 lea	 eax, DWORD PTR [edx+12]
  0004b	8b 4a ec	 mov	 ecx, DWORD PTR [edx-20]
  0004e	33 c8		 xor	 ecx, eax
  00050	e8 00 00 00 00	 call	 @__security_check_cookie@4
  00055	b8 00 00 00 00	 mov	 eax, OFFSET __ehfuncinfo$??0UserInfoNode@@QAE@ABVioHashString@@HH_J1HHHHHHHHHHHHHHHHHAAV?$vector@HV?$allocator@H@std@@@std@@2HHKHE2@Z
  0005a	e9 00 00 00 00	 jmp	 ___CxxFrameHandler3
text$x	ENDS
??0UserInfoNode@@QAE@ABVioHashString@@HH_J1HHHHHHHHHHHHHHHHHAAV?$vector@HV?$allocator@H@std@@@std@@2HHKHE2@Z ENDP ; UserInfoNode::UserInfoNode
PUBLIC	??1UserInfoNode@@UAE@XZ				; UserInfoNode::~UserInfoNode
;	COMDAT xdata$x
; File c:\program files (x86)\microsoft visual studio 10.0\vc\include\vector
xdata$x	SEGMENT
__unwindtable$??1UserInfoNode@@UAE@XZ DD 0ffffffffH
	DD	FLAT:__unwindfunclet$??1UserInfoNode@@UAE@XZ$0
	DD	00H
	DD	FLAT:__unwindfunclet$??1UserInfoNode@@UAE@XZ$1
	DD	01H
	DD	FLAT:__unwindfunclet$??1UserInfoNode@@UAE@XZ$2
	DD	02H
	DD	FLAT:__unwindfunclet$??1UserInfoNode@@UAE@XZ$3
__ehfuncinfo$??1UserInfoNode@@UAE@XZ DD 019930522H
	DD	04H
	DD	FLAT:__unwindtable$??1UserInfoNode@@UAE@XZ
	DD	2 DUP(00H)
	DD	2 DUP(00H)
	DD	00H
	DD	01H
; Function compile flags: /Ogsp
; File d:\lost saga for developer\youtube\tutorial\source\src\lsclient\gui\iouserinfomgr.cpp
xdata$x	ENDS
;	COMDAT ??1UserInfoNode@@UAE@XZ
_TEXT	SEGMENT
_this$ = -16						; size = 4
__$EHRec$ = -12						; size = 12
??1UserInfoNode@@UAE@XZ PROC				; UserInfoNode::~UserInfoNode, COMDAT
; _this$ = ecx

; 555  : UserInfoNode::~UserInfoNode(){}

  00000	6a 04		 push	 4
  00002	b8 00 00 00 00	 mov	 eax, __ehhandler$??1UserInfoNode@@UAE@XZ
  00007	e8 00 00 00 00	 call	 __EH_prolog3
  0000c	8b f1		 mov	 esi, ecx
  0000e	89 75 f0	 mov	 DWORD PTR _this$[ebp], esi
  00011	c7 06 00 00 00
	00		 mov	 DWORD PTR [esi], OFFSET ??_7UserInfoNode@@6B@
  00017	8d 8e c4 04 00
	00		 lea	 ecx, DWORD PTR [esi+1220]
  0001d	c7 45 fc 03 00
	00 00		 mov	 DWORD PTR __$EHRec$[ebp+8], 3
  00024	e8 00 00 00 00	 call	 ?_Tidy@?$vector@HV?$allocator@H@std@@@std@@IAEXXZ ; std::vector<int,std::allocator<int> >::_Tidy
  00029	8d 8e c8 00 00
	00		 lea	 ecx, DWORD PTR [esi+200]
  0002f	c6 45 fc 02	 mov	 BYTE PTR __$EHRec$[ebp+8], 2
  00033	e8 00 00 00 00	 call	 ??1UserInfoCharData@@UAE@XZ ; UserInfoCharData::~UserInfoCharData
  00038	8d 8e 98 00 00
	00		 lea	 ecx, DWORD PTR [esi+152]
  0003e	c6 45 fc 01	 mov	 BYTE PTR __$EHRec$[ebp+8], 1
  00042	e8 00 00 00 00	 call	 ?_Tidy@?$vector@HV?$allocator@H@std@@@std@@IAEXXZ ; std::vector<int,std::allocator<int> >::_Tidy
  00047	8d 8e 88 00 00
	00		 lea	 ecx, DWORD PTR [esi+136]
  0004d	c6 45 fc 00	 mov	 BYTE PTR __$EHRec$[ebp+8], 0
  00051	e8 00 00 00 00	 call	 ?_Tidy@?$vector@HV?$allocator@H@std@@@std@@IAEXXZ ; std::vector<int,std::allocator<int> >::_Tidy
  00056	83 4d fc ff	 or	 DWORD PTR __$EHRec$[ebp+8], -1
  0005a	8d 4e 08	 lea	 ecx, DWORD PTR [esi+8]
  0005d	ff 15 00 00 00
	00		 call	 DWORD PTR __imp_??1ioHashString@@QAE@XZ
  00063	e8 00 00 00 00	 call	 __EH_epilog3
  00068	c3		 ret	 0
_TEXT	ENDS
;	COMDAT text$x
text$x	SEGMENT
__unwindfunclet$??1UserInfoNode@@UAE@XZ$0:
  00000	8b 4d f0	 mov	 ecx, DWORD PTR _this$[ebp]
  00003	83 c1 08	 add	 ecx, 8
  00006	ff 25 00 00 00
	00		 jmp	 DWORD PTR __imp_??1ioHashString@@QAE@XZ
__unwindfunclet$??1UserInfoNode@@UAE@XZ$1:
  0000c	8b 4d f0	 mov	 ecx, DWORD PTR _this$[ebp]
  0000f	81 c1 88 00 00
	00		 add	 ecx, 136		; 00000088H
  00015	e9 00 00 00 00	 jmp	 ??1?$vector@HV?$allocator@H@std@@@std@@QAE@XZ ; std::vector<int,std::allocator<int> >::~vector<int,std::allocator<int> >
__unwindfunclet$??1UserInfoNode@@UAE@XZ$2:
  0001a	8b 4d f0	 mov	 ecx, DWORD PTR _this$[ebp]
  0001d	81 c1 98 00 00
	00		 add	 ecx, 152		; 00000098H
  00023	e9 00 00 00 00	 jmp	 ??1?$vector@HV?$allocator@H@std@@@std@@QAE@XZ ; std::vector<int,std::allocator<int> >::~vector<int,std::allocator<int> >
__unwindfunclet$??1UserInfoNode@@UAE@XZ$3:
  00028	8b 4d f0	 mov	 ecx, DWORD PTR _this$[ebp]
  0002b	81 c1 c8 00 00
	00		 add	 ecx, 200		; 000000c8H
  00031	e9 00 00 00 00	 jmp	 ??1UserInfoCharData@@UAE@XZ ; UserInfoCharData::~UserInfoCharData
__ehhandler$??1UserInfoNode@@UAE@XZ:
  00036	8b 54 24 08	 mov	 edx, DWORD PTR [esp+8]
  0003a	8d 42 0c	 lea	 eax, DWORD PTR [edx+12]
  0003d	8b 4a ec	 mov	 ecx, DWORD PTR [edx-20]
  00040	33 c8		 xor	 ecx, eax
  00042	e8 00 00 00 00	 call	 @__security_check_cookie@4
  00047	b8 00 00 00 00	 mov	 eax, OFFSET __ehfuncinfo$??1UserInfoNode@@UAE@XZ
  0004c	e9 00 00 00 00	 jmp	 ___CxxFrameHandler3
text$x	ENDS
??1UserInfoNode@@UAE@XZ ENDP				; UserInfoNode::~UserInfoNode
PUBLIC	?GetUserInfoNode@ioUserInfoMgr@@QAEPAVUserInfoNode@@ABVioHashString@@_N@Z ; ioUserInfoMgr::GetUserInfoNode
;	COMDAT xdata$x
; File c:\program files (x86)\microsoft visual studio 10.0\vc\include\vector
xdata$x	SEGMENT
__unwindtable$?GetUserInfoNode@ioUserInfoMgr@@QAEPAVUserInfoNode@@ABVioHashString@@_N@Z DD 0ffffffffH
	DD	FLAT:__unwindfunclet$?GetUserInfoNode@ioUserInfoMgr@@QAEPAVUserInfoNode@@ABVioHashString@@_N@Z$0
	DD	00H
	DD	FLAT:__unwindfunclet$?GetUserInfoNode@ioUserInfoMgr@@QAEPAVUserInfoNode@@ABVioHashString@@_N@Z$1
	DD	01H
	DD	FLAT:__unwindfunclet$?GetUserInfoNode@ioUserInfoMgr@@QAEPAVUserInfoNode@@ABVioHashString@@_N@Z$2
	DD	02H
	DD	FLAT:__unwindfunclet$?GetUserInfoNode@ioUserInfoMgr@@QAEPAVUserInfoNode@@ABVioHashString@@_N@Z$3
__ehfuncinfo$?GetUserInfoNode@ioUserInfoMgr@@QAEPAVUserInfoNode@@ABVioHashString@@_N@Z DD 019930522H
	DD	04H
	DD	FLAT:__unwindtable$?GetUserInfoNode@ioUserInfoMgr@@QAEPAVUserInfoNode@@ABVioHashString@@_N@Z
	DD	2 DUP(00H)
	DD	2 DUP(00H)
	DD	00H
	DD	01H
; Function compile flags: /Ogsp
; File d:\lost saga for developer\youtube\tutorial\source\src\lsclient\gui\iouserinfomgr.cpp
xdata$x	ENDS
;	COMDAT ?GetUserInfoNode@ioUserInfoMgr@@QAEPAVUserInfoNode@@ABVioHashString@@_N@Z
_TEXT	SEGMENT
_vMedalItemVec$ = -68					; size = 16
_vGrowthItemVec$ = -52					; size = 16
_vSoldierVec$ = -36					; size = 16
tv385 = -20						; size = 4
$T524708 = -16						; size = 4
_pUserInfo$514545 = -16					; size = 4
__$EHRec$ = -12						; size = 12
_pUserInfo$ = 8						; size = 4
_szID$ = 8						; size = 4
_bNetwork$ = 12						; size = 1
?GetUserInfoNode@ioUserInfoMgr@@QAEPAVUserInfoNode@@ABVioHashString@@_N@Z PROC ; ioUserInfoMgr::GetUserInfoNode, COMDAT
; _this$ = ecx

; 898  : {

  00000	6a 38		 push	 56			; 00000038H
  00002	b8 00 00 00 00	 mov	 eax, __ehhandler$?GetUserInfoNode@ioUserInfoMgr@@QAEPAVUserInfoNode@@ABVioHashString@@_N@Z
  00007	e8 00 00 00 00	 call	 __EH_prolog3
  0000c	8b f1		 mov	 esi, ecx

; 899  : 	if( szID.IsEmpty() ) 

  0000e	8b 4d 08	 mov	 ecx, DWORD PTR _szID$[ebp]
  00011	ff 15 00 00 00
	00		 call	 DWORD PTR __imp_?IsEmpty@ioHashString@@QBE_NXZ
  00017	84 c0		 test	 al, al
  00019	74 07		 je	 SHORT $LN9@GetUserInf@2
$LN98@GetUserInf@2:

; 900  : 		return NULL;

  0001b	33 c0		 xor	 eax, eax
  0001d	e9 0e 01 00 00	 jmp	 $LN10@GetUserInf@2
$LN9@GetUserInf@2:

; 901  : 
; 902  : 	vUserInfoNode_iter iter;
; 903  : 	for( iter=m_vUserInfoList.begin() ; iter!=m_vUserInfoList.end() ; ++iter )

  00022	8d 46 04	 lea	 eax, DWORD PTR [esi+4]
  00025	8b 38		 mov	 edi, DWORD PTR [eax]
  00027	89 45 ec	 mov	 DWORD PTR tv385[ebp], eax
  0002a	33 db		 xor	 ebx, ebx
  0002c	eb 20		 jmp	 SHORT $LN97@GetUserInf@2
$LL32@GetUserInf@2:

; 904  : 	{
; 905  : 		UserInfoNode *pUserInfo = *iter;

  0002e	8b 07		 mov	 eax, DWORD PTR [edi]
  00030	89 45 f0	 mov	 DWORD PTR _pUserInfo$514545[ebp], eax

; 906  : 		if( pUserInfo == NULL )

  00033	3b c3		 cmp	 eax, ebx
  00035	74 14		 je	 SHORT $LN7@GetUserInf@2

; 907  : 			continue;
; 908  : 
; 909  : 		if( pUserInfo->GetUserID() == szID )

  00037	ff 75 08	 push	 DWORD PTR _szID$[ebp]
  0003a	8d 48 08	 lea	 ecx, DWORD PTR [eax+8]
  0003d	ff 15 00 00 00
	00		 call	 DWORD PTR __imp_??8ioHashString@@QBE_NABV0@@Z
  00043	84 c0		 test	 al, al
  00045	0f 85 8b 00 00
	00		 jne	 $LN93@GetUserInf@2
$LN7@GetUserInf@2:

; 901  : 
; 902  : 	vUserInfoNode_iter iter;
; 903  : 	for( iter=m_vUserInfoList.begin() ; iter!=m_vUserInfoList.end() ; ++iter )

  0004b	83 c7 04	 add	 edi, 4
$LN97@GetUserInf@2:
  0004e	3b 7e 08	 cmp	 edi, DWORD PTR [esi+8]
  00051	75 db		 jne	 SHORT $LL32@GetUserInf@2

; 915  : 		}
; 916  : 	}
; 917  : 
; 918  : 	if( szID == g_MyInfo.GetPublicID() )

  00053	e8 00 00 00 00	 call	 ?GetSingleton@ioMyInfo@@SAAAV1@XZ ; ioMyInfo::GetSingleton
  00058	8b 4d 08	 mov	 ecx, DWORD PTR _szID$[ebp]
  0005b	83 c0 1c	 add	 eax, 28			; 0000001cH
  0005e	50		 push	 eax
  0005f	ff 15 00 00 00
	00		 call	 DWORD PTR __imp_??8ioHashString@@QBE_NABV0@@Z
  00065	84 c0		 test	 al, al

; 919  : 		return NULL;

  00067	75 b2		 jne	 SHORT $LN98@GetUserInf@2

; 920  :     
; 921  : 	IntVec vMedalItemVec;

  00069	89 5d bc	 mov	 DWORD PTR _vMedalItemVec$[ebp], ebx
  0006c	89 5d c0	 mov	 DWORD PTR _vMedalItemVec$[ebp+4], ebx
  0006f	89 5d c4	 mov	 DWORD PTR _vMedalItemVec$[ebp+8], ebx
  00072	89 5d fc	 mov	 DWORD PTR __$EHRec$[ebp+8], ebx

; 922  : 	IntVec vGrowthItemVec;

  00075	89 5d cc	 mov	 DWORD PTR _vGrowthItemVec$[ebp], ebx
  00078	89 5d d0	 mov	 DWORD PTR _vGrowthItemVec$[ebp+4], ebx
  0007b	89 5d d4	 mov	 DWORD PTR _vGrowthItemVec$[ebp+8], ebx

; 923  : 	IntVec vSoldierVec;

  0007e	89 5d dc	 mov	 DWORD PTR _vSoldierVec$[ebp], ebx
  00081	89 5d e0	 mov	 DWORD PTR _vSoldierVec$[ebp+4], ebx
  00084	89 5d e4	 mov	 DWORD PTR _vSoldierVec$[ebp+8], ebx

; 924  : 	UserInfoNode *pUserInfo = new UserInfoNode( szID, -1, 0, 0, 0, 0, 0, 0, 0, 0, 0, 0, 0, 0, 0, 0, 0, 0, 0, 0, 0, 0, vMedalItemVec, vGrowthItemVec, 0, 0, 0, 0, 0, vSoldierVec );

  00087	68 d8 04 00 00	 push	 1240			; 000004d8H
  0008c	c6 45 fc 02	 mov	 BYTE PTR __$EHRec$[ebp+8], 2
  00090	e8 00 00 00 00	 call	 ??2@YAPAXI@Z		; operator new
  00095	59		 pop	 ecx
  00096	89 45 f0	 mov	 DWORD PTR $T524708[ebp], eax
  00099	c6 45 fc 03	 mov	 BYTE PTR __$EHRec$[ebp+8], 3
  0009d	3b c3		 cmp	 eax, ebx
  0009f	74 47		 je	 SHORT $LN12@GetUserInf@2
  000a1	8d 4d dc	 lea	 ecx, DWORD PTR _vSoldierVec$[ebp]
  000a4	51		 push	 ecx
  000a5	53		 push	 ebx
  000a6	53		 push	 ebx
  000a7	53		 push	 ebx
  000a8	53		 push	 ebx
  000a9	53		 push	 ebx
  000aa	8d 4d cc	 lea	 ecx, DWORD PTR _vGrowthItemVec$[ebp]
  000ad	51		 push	 ecx
  000ae	8d 4d bc	 lea	 ecx, DWORD PTR _vMedalItemVec$[ebp]
  000b1	51		 push	 ecx
  000b2	53		 push	 ebx
  000b3	53		 push	 ebx
  000b4	53		 push	 ebx
  000b5	53		 push	 ebx
  000b6	53		 push	 ebx
  000b7	53		 push	 ebx
  000b8	53		 push	 ebx
  000b9	53		 push	 ebx
  000ba	53		 push	 ebx
  000bb	53		 push	 ebx
  000bc	53		 push	 ebx
  000bd	53		 push	 ebx
  000be	53		 push	 ebx
  000bf	53		 push	 ebx
  000c0	53		 push	 ebx
  000c1	53		 push	 ebx
  000c2	53		 push	 ebx
  000c3	53		 push	 ebx
  000c4	53		 push	 ebx
  000c5	53		 push	 ebx
  000c6	53		 push	 ebx
  000c7	53		 push	 ebx
  000c8	6a ff		 push	 -1
  000ca	ff 75 08	 push	 DWORD PTR _szID$[ebp]
  000cd	8b c8		 mov	 ecx, eax
  000cf	e8 00 00 00 00	 call	 ??0UserInfoNode@@QAE@ABVioHashString@@HH_J1HHHHHHHHHHHHHHHHHAAV?$vector@HV?$allocator@H@std@@@std@@2HHKHE2@Z ; UserInfoNode::UserInfoNode
  000d4	eb 14		 jmp	 SHORT $LN13@GetUserInf@2
$LN93@GetUserInf@2:

; 910  : 		{
; 911  : 			if( bNetwork )

  000d6	38 5d 0c	 cmp	 BYTE PTR _bNetwork$[ebp], bl
  000d9	74 08		 je	 SHORT $LN3@GetUserInf@2

; 912  : 				pUserInfo->CheckSyncTime();

  000db	8b 4d f0	 mov	 ecx, DWORD PTR _pUserInfo$514545[ebp]
  000de	e8 00 00 00 00	 call	 ?CheckSyncTime@UserInfoNode@@QAEXXZ ; UserInfoNode::CheckSyncTime
$LN3@GetUserInf@2:

; 913  : 
; 914  : 			return pUserInfo;

  000e3	8b 45 f0	 mov	 eax, DWORD PTR _pUserInfo$514545[ebp]
  000e6	eb 48		 jmp	 SHORT $LN10@GetUserInf@2
$LN12@GetUserInf@2:

; 924  : 	UserInfoNode *pUserInfo = new UserInfoNode( szID, -1, 0, 0, 0, 0, 0, 0, 0, 0, 0, 0, 0, 0, 0, 0, 0, 0, 0, 0, 0, 0, vMedalItemVec, vGrowthItemVec, 0, 0, 0, 0, 0, vSoldierVec );

  000e8	33 c0		 xor	 eax, eax
$LN13@GetUserInf@2:

; 925  : 
; 926  : 	m_vUserInfoList.push_back( pUserInfo );

  000ea	8b 4d ec	 mov	 ecx, DWORD PTR tv385[ebp]
  000ed	89 45 08	 mov	 DWORD PTR _pUserInfo$[ebp], eax
  000f0	8d 45 08	 lea	 eax, DWORD PTR _pUserInfo$[ebp]
  000f3	50		 push	 eax
  000f4	c6 45 fc 02	 mov	 BYTE PTR __$EHRec$[ebp+8], 2
  000f8	e8 00 00 00 00	 call	 ?push_back@?$vector@PAVUserInfoNode@@V?$allocator@PAVUserInfoNode@@@std@@@std@@QAEXABQAVUserInfoNode@@@Z ; std::vector<UserInfoNode *,std::allocator<UserInfoNode *> >::push_back

; 927  : 	
; 928  : 	// 정보 요청
; 929  : 	if( bNetwork )

  000fd	38 5d 0c	 cmp	 BYTE PTR _bNetwork$[ebp], bl
  00100	74 08		 je	 SHORT $LN1@GetUserInf@2

; 930  : 		pUserInfo->CheckSyncTime();

  00102	8b 4d 08	 mov	 ecx, DWORD PTR _pUserInfo$[ebp]
  00105	e8 00 00 00 00	 call	 ?CheckSyncTime@UserInfoNode@@QAEXXZ ; UserInfoNode::CheckSyncTime
$LN1@GetUserInf@2:

; 931  : 
; 932  : 	return pUserInfo;

  0010a	8d 4d dc	 lea	 ecx, DWORD PTR _vSoldierVec$[ebp]
  0010d	c6 45 fc 01	 mov	 BYTE PTR __$EHRec$[ebp+8], 1
  00111	e8 00 00 00 00	 call	 ?_Tidy@?$vector@HV?$allocator@H@std@@@std@@IAEXXZ ; std::vector<int,std::allocator<int> >::_Tidy
  00116	8d 4d cc	 lea	 ecx, DWORD PTR _vGrowthItemVec$[ebp]
  00119	88 5d fc	 mov	 BYTE PTR __$EHRec$[ebp+8], bl
  0011c	e8 00 00 00 00	 call	 ?_Tidy@?$vector@HV?$allocator@H@std@@@std@@IAEXXZ ; std::vector<int,std::allocator<int> >::_Tidy
  00121	83 4d fc ff	 or	 DWORD PTR __$EHRec$[ebp+8], -1
  00125	8d 4d bc	 lea	 ecx, DWORD PTR _vMedalItemVec$[ebp]
  00128	e8 00 00 00 00	 call	 ?_Tidy@?$vector@HV?$allocator@H@std@@@std@@IAEXXZ ; std::vector<int,std::allocator<int> >::_Tidy
  0012d	8b 45 08	 mov	 eax, DWORD PTR _pUserInfo$[ebp]
$LN10@GetUserInf@2:

; 933  : }

  00130	e8 00 00 00 00	 call	 __EH_epilog3
  00135	c2 08 00	 ret	 8
_TEXT	ENDS
;	COMDAT text$x
text$x	SEGMENT
__unwindfunclet$?GetUserInfoNode@ioUserInfoMgr@@QAEPAVUserInfoNode@@ABVioHashString@@_N@Z$0:
  00000	8d 4d bc	 lea	 ecx, DWORD PTR _vMedalItemVec$[ebp]
  00003	e9 00 00 00 00	 jmp	 ??1?$vector@HV?$allocator@H@std@@@std@@QAE@XZ ; std::vector<int,std::allocator<int> >::~vector<int,std::allocator<int> >
__unwindfunclet$?GetUserInfoNode@ioUserInfoMgr@@QAEPAVUserInfoNode@@ABVioHashString@@_N@Z$1:
  00008	8d 4d cc	 lea	 ecx, DWORD PTR _vGrowthItemVec$[ebp]
  0000b	e9 00 00 00 00	 jmp	 ??1?$vector@HV?$allocator@H@std@@@std@@QAE@XZ ; std::vector<int,std::allocator<int> >::~vector<int,std::allocator<int> >
__unwindfunclet$?GetUserInfoNode@ioUserInfoMgr@@QAEPAVUserInfoNode@@ABVioHashString@@_N@Z$2:
  00010	8d 4d dc	 lea	 ecx, DWORD PTR _vSoldierVec$[ebp]
  00013	e9 00 00 00 00	 jmp	 ??1?$vector@HV?$allocator@H@std@@@std@@QAE@XZ ; std::vector<int,std::allocator<int> >::~vector<int,std::allocator<int> >
__unwindfunclet$?GetUserInfoNode@ioUserInfoMgr@@QAEPAVUserInfoNode@@ABVioHashString@@_N@Z$3:
  00018	ff 75 f0	 push	 DWORD PTR $T524708[ebp]
  0001b	e8 00 00 00 00	 call	 ??3@YAXPAX@Z		; operator delete
  00020	59		 pop	 ecx
  00021	c3		 ret	 0
__ehhandler$?GetUserInfoNode@ioUserInfoMgr@@QAEPAVUserInfoNode@@ABVioHashString@@_N@Z:
  00022	8b 54 24 08	 mov	 edx, DWORD PTR [esp+8]
  00026	8d 42 0c	 lea	 eax, DWORD PTR [edx+12]
  00029	8b 4a b8	 mov	 ecx, DWORD PTR [edx-72]
  0002c	33 c8		 xor	 ecx, eax
  0002e	e8 00 00 00 00	 call	 @__security_check_cookie@4
  00033	b8 00 00 00 00	 mov	 eax, OFFSET __ehfuncinfo$?GetUserInfoNode@ioUserInfoMgr@@QAEPAVUserInfoNode@@ABVioHashString@@_N@Z
  00038	e9 00 00 00 00	 jmp	 ___CxxFrameHandler3
text$x	ENDS
?GetUserInfoNode@ioUserInfoMgr@@QAEPAVUserInfoNode@@ABVioHashString@@_N@Z ENDP ; ioUserInfoMgr::GetUserInfoNode
PUBLIC	?SetUserInfo@ioUserInfoMgr@@QAEXABVioHashString@@HH_J1HHHHHHHHHHHHHHHHHAAV?$vector@HV?$allocator@H@std@@@std@@2HH_NKHE2@Z ; ioUserInfoMgr::SetUserInfo
;	COMDAT xdata$x
; File d:\lost saga for developer\youtube\tutorial\source\src\lsclient\gui\iouserinfomgr.h
xdata$x	SEGMENT
__unwindtable$?SetUserInfo@ioUserInfoMgr@@QAEXABVioHashString@@HH_J1HHHHHHHHHHHHHHHHHAAV?$vector@HV?$allocator@H@std@@@std@@2HH_NKHE2@Z DD 0ffffffffH
	DD	FLAT:__unwindfunclet$?SetUserInfo@ioUserInfoMgr@@QAEXABVioHashString@@HH_J1HHHHHHHHHHHHHHHHHAAV?$vector@HV?$allocator@H@std@@@std@@2HH_NKHE2@Z$0
__ehfuncinfo$?SetUserInfo@ioUserInfoMgr@@QAEXABVioHashString@@HH_J1HHHHHHHHHHHHHHHHHAAV?$vector@HV?$allocator@H@std@@@std@@2HH_NKHE2@Z DD 019930522H
	DD	01H
	DD	FLAT:__unwindtable$?SetUserInfo@ioUserInfoMgr@@QAEXABVioHashString@@HH_J1HHHHHHHHHHHHHHHHHAAV?$vector@HV?$allocator@H@std@@@std@@2HH_NKHE2@Z
	DD	2 DUP(00H)
	DD	2 DUP(00H)
	DD	00H
	DD	01H
; Function compile flags: /Ogsp
; File d:\lost saga for developer\youtube\tutorial\source\src\lsclient\gui\iouserinfomgr.cpp
xdata$x	ENDS
;	COMDAT ?SetUserInfo@ioUserInfoMgr@@QAEXABVioHashString@@HH_J1HHHHHHHHHHHHHHHHHAAV?$vector@HV?$allocator@H@std@@@std@@2HH_NKHE2@Z
_TEXT	SEGMENT
__$EHRec$ = -12						; size = 12
_szUserID$ = 8						; size = 4
_iGradeLevel$ = 12					; size = 4
_iGradeExpPer$ = 16					; size = 4
_iPartyExp$ = 20					; size = 8
_iLadderExp$ = 28					; size = 8
_iAwardLevel$ = 36					; size = 4
_iAwardExp$ = 40					; size = 4
_iKillDeathLevel$ = 44					; size = 4
_iFishingLevel$ = 48					; size = 4
_iFishingExp$ = 52					; size = 4
_iExcavationLevel$ = 56					; size = 4
_iExcavationExp$ = 60					; size = 4
_iHeroWin$ = 64						; size = 4
_iHeroLose$ = 68					; size = 4
_iHeroTitle$ = 72					; size = 4
_iHeroRank$ = 76					; size = 4
_iBlockType$ = 80					; size = 4
_iRanking$ = 84						; size = 4
_iCampPosition$ = 88					; size = 4
_iLadderPoint$ = 92					; size = 4
_iClassLevel$ = 96					; size = 4
_iClassType$ = 100					; size = 4
_rvMedalItemTypeVec$ = 104				; size = 4
_rvGrowthLevelVec$ = 108				; size = 4
_nPetCode$ = 112					; size = 4
_nPetLevel$ = 116					; size = 4
$T524923 = 120						; size = 4
_NewInfo$514612 = 120					; size = 4
_bHouseOpen$ = 120					; size = 1
_dwNamedTitleCode$ = 124				; size = 4
_nNamedTitleLevel$ = 128				; size = 4
_byNamedTitlePremium$ = 132				; size = 1
_rvSoldierSetCntVec$ = 136				; size = 4
?SetUserInfo@ioUserInfoMgr@@QAEXABVioHashString@@HH_J1HHHHHHHHHHHHHHHHHAAV?$vector@HV?$allocator@H@std@@@std@@2HH_NKHE2@Z PROC ; ioUserInfoMgr::SetUserInfo, COMDAT
; _this$ = ecx

; 958  : {

  00000	6a 00		 push	 0
  00002	b8 00 00 00 00	 mov	 eax, __ehhandler$?SetUserInfo@ioUserInfoMgr@@QAEXABVioHashString@@HH_J1HHHHHHHHHHHHHHHHHAAV?$vector@HV?$allocator@H@std@@@std@@2HH_NKHE2@Z
  00007	e8 00 00 00 00	 call	 __EH_prolog3
  0000c	8b f9		 mov	 edi, ecx

; 959  : 	UserInfoNode *pUserInfoNode = GetUserInfoNode( szUserID );

  0000e	6a 01		 push	 1
  00010	ff 75 08	 push	 DWORD PTR _szUserID$[ebp]
  00013	e8 00 00 00 00	 call	 ?GetUserInfoNode@ioUserInfoMgr@@QAEPAVUserInfoNode@@ABVioHashString@@_N@Z ; ioUserInfoMgr::GetUserInfoNode
  00018	8b f0		 mov	 esi, eax

; 960  : 	if( pUserInfoNode )

  0001a	85 f6		 test	 esi, esi
  0001c	0f 84 0d 01 00
	00		 je	 $LN2@SetUserInf

; 961  : 	{
; 962  : 		pUserInfoNode->SetGrade( iGradeLevel, iGradeExpPer );

  00022	8b 45 0c	 mov	 eax, DWORD PTR _iGradeLevel$[ebp]

; 963  : 		pUserInfoNode->SetPartyExp( iPartyExp );

  00025	ff 75 18	 push	 DWORD PTR _iPartyExp$[ebp+4]
  00028	89 46 18	 mov	 DWORD PTR [esi+24], eax
  0002b	8b 45 10	 mov	 eax, DWORD PTR _iGradeExpPer$[ebp]
  0002e	ff 75 14	 push	 DWORD PTR _iPartyExp$[ebp]
  00031	8b ce		 mov	 ecx, esi
  00033	89 46 1c	 mov	 DWORD PTR [esi+28], eax
  00036	e8 00 00 00 00	 call	 ?SetPartyExp@UserInfoNode@@QAEX_J@Z ; UserInfoNode::SetPartyExp

; 964  : 		pUserInfoNode->SetLadderExp( iLadderExp );

  0003b	ff 75 20	 push	 DWORD PTR _iLadderExp$[ebp+4]
  0003e	8b ce		 mov	 ecx, esi
  00040	ff 75 1c	 push	 DWORD PTR _iLadderExp$[ebp]
  00043	e8 00 00 00 00	 call	 ?SetLadderExp@UserInfoNode@@QAEX_J@Z ; UserInfoNode::SetLadderExp

; 965  : 		pUserInfoNode->SetAwardExp( iAwardLevel, iAwardExp );

  00048	8b 45 24	 mov	 eax, DWORD PTR _iAwardLevel$[ebp]
  0004b	89 46 40	 mov	 DWORD PTR [esi+64], eax
  0004e	8b 45 28	 mov	 eax, DWORD PTR _iAwardExp$[ebp]
  00051	89 46 44	 mov	 DWORD PTR [esi+68], eax

; 966  : 		pUserInfoNode->SetFishingExp( iFishingLevel, iFishingExp );

  00054	8b 45 30	 mov	 eax, DWORD PTR _iFishingLevel$[ebp]
  00057	89 46 4c	 mov	 DWORD PTR [esi+76], eax
  0005a	8b 45 34	 mov	 eax, DWORD PTR _iFishingExp$[ebp]

; 967  : 		pUserInfoNode->SetExcavationExp( iExcavationLevel, iExcavationExp );
; 968  : 		pUserInfoNode->SetHeroWin( iHeroWin );
; 969  : 		pUserInfoNode->SetHeroLose( iHeroLose );
; 970  : 		pUserInfoNode->SetHeroTitle( iHeroTitle );
; 971  : 		pUserInfoNode->SetHeroRank( iHeroRank );
; 972  : 		pUserInfoNode->SetBlockType( iBlockType );
; 973  : 		pUserInfoNode->SetRanking( iRanking );
; 974  : 		pUserInfoNode->SetCampPosition( iCampPosition );

  0005d	ff 75 58	 push	 DWORD PTR _iCampPosition$[ebp]
  00060	89 46 50	 mov	 DWORD PTR [esi+80], eax
  00063	8b 45 38	 mov	 eax, DWORD PTR _iExcavationLevel$[ebp]
  00066	89 46 54	 mov	 DWORD PTR [esi+84], eax
  00069	8b 45 3c	 mov	 eax, DWORD PTR _iExcavationExp$[ebp]
  0006c	89 46 58	 mov	 DWORD PTR [esi+88], eax
  0006f	8b 45 40	 mov	 eax, DWORD PTR _iHeroWin$[ebp]
  00072	89 46 5c	 mov	 DWORD PTR [esi+92], eax
  00075	8b 45 44	 mov	 eax, DWORD PTR _iHeroLose$[ebp]
  00078	89 46 60	 mov	 DWORD PTR [esi+96], eax
  0007b	8b 45 48	 mov	 eax, DWORD PTR _iHeroTitle$[ebp]
  0007e	89 46 64	 mov	 DWORD PTR [esi+100], eax
  00081	8b 45 4c	 mov	 eax, DWORD PTR _iHeroRank$[ebp]
  00084	89 46 68	 mov	 DWORD PTR [esi+104], eax
  00087	8b 45 50	 mov	 eax, DWORD PTR _iBlockType$[ebp]
  0008a	89 46 6c	 mov	 DWORD PTR [esi+108], eax
  0008d	8b 45 54	 mov	 eax, DWORD PTR _iRanking$[ebp]
  00090	8b ce		 mov	 ecx, esi
  00092	89 46 70	 mov	 DWORD PTR [esi+112], eax
  00095	e8 00 00 00 00	 call	 ?SetCampPosition@UserInfoNode@@QAEXH@Z ; UserInfoNode::SetCampPosition

; 975  : 		pUserInfoNode->SetLadderPoint( iLadderPoint );

  0009a	ff 75 5c	 push	 DWORD PTR _iLadderPoint$[ebp]
  0009d	e8 00 00 00 00	 call	 ?SetLadderPoint@UserInfoNode@@QAEXH@Z ; UserInfoNode::SetLadderPoint

; 976  : 		pUserInfoNode->SetClassLevel( iClassLevel );

  000a2	8b 45 60	 mov	 eax, DWORD PTR _iClassLevel$[ebp]

; 977  : 		pUserInfoNode->SetClassType( iClassType );
; 978  : 		pUserInfoNode->SetMedalItemType( rvMedalItemTypeVec );

  000a5	ff 75 68	 push	 DWORD PTR _rvMedalItemTypeVec$[ebp]
  000a8	89 86 a8 00 00
	00		 mov	 DWORD PTR [esi+168], eax
  000ae	8b 45 64	 mov	 eax, DWORD PTR _iClassType$[ebp]
  000b1	8d 8e 98 00 00
	00		 lea	 ecx, DWORD PTR [esi+152]
  000b7	89 86 ac 00 00
	00		 mov	 DWORD PTR [esi+172], eax
  000bd	e8 00 00 00 00	 call	 ??4?$vector@HV?$allocator@H@std@@@std@@QAEAAV01@ABV01@@Z ; std::vector<int,std::allocator<int> >::operator=

; 979  : 		pUserInfoNode->SetGrowthLevel( rvGrowthLevelVec );

  000c2	ff 75 6c	 push	 DWORD PTR _rvGrowthLevelVec$[ebp]
  000c5	8d 8e 88 00 00
	00		 lea	 ecx, DWORD PTR [esi+136]
  000cb	e8 00 00 00 00	 call	 ??4?$vector@HV?$allocator@H@std@@@std@@QAEAAV01@ABV01@@Z ; std::vector<int,std::allocator<int> >::operator=

; 980  : 		pUserInfoNode->SetKillDeathLevel( iKillDeathLevel );

  000d0	8b 45 2c	 mov	 eax, DWORD PTR _iKillDeathLevel$[ebp]

; 981  : 		pUserInfoNode->SetPetCode( nPetCode );
; 982  : 		pUserInfoNode->SetPetLevel( nPetLevel );
; 983  : 		pUserInfoNode->SetHouseOpen( bHouseOpen );
; 984  : 		pUserInfoNode->SetNamedTitle( dwNamedTitleCode, nNamedTitleLevel, byNamedTitlePremium );
; 985  : 		pUserInfoNode->SetSoldierSetCnt( rvSoldierSetCntVec );

  000d3	ff b5 88 00 00
	00		 push	 DWORD PTR _rvSoldierSetCntVec$[ebp]
  000d9	89 46 48	 mov	 DWORD PTR [esi+72], eax
  000dc	8b 45 70	 mov	 eax, DWORD PTR _nPetCode$[ebp]
  000df	89 86 b0 00 00
	00		 mov	 DWORD PTR [esi+176], eax
  000e5	8b 45 74	 mov	 eax, DWORD PTR _nPetLevel$[ebp]
  000e8	89 86 b4 00 00
	00		 mov	 DWORD PTR [esi+180], eax
  000ee	8a 45 78	 mov	 al, BYTE PTR _bHouseOpen$[ebp]
  000f1	88 86 b8 00 00
	00		 mov	 BYTE PTR [esi+184], al
  000f7	8b 45 7c	 mov	 eax, DWORD PTR _dwNamedTitleCode$[ebp]
  000fa	89 86 bc 00 00
	00		 mov	 DWORD PTR [esi+188], eax
  00100	8b 85 80 00 00
	00		 mov	 eax, DWORD PTR _nNamedTitleLevel$[ebp]
  00106	89 86 c0 00 00
	00		 mov	 DWORD PTR [esi+192], eax
  0010c	8a 85 84 00 00
	00		 mov	 al, BYTE PTR _byNamedTitlePremium$[ebp]
  00112	8d 8e c4 04 00
	00		 lea	 ecx, DWORD PTR [esi+1220]
  00118	88 86 c4 00 00
	00		 mov	 BYTE PTR [esi+196], al
  0011e	e8 00 00 00 00	 call	 ??4?$vector@HV?$allocator@H@std@@@std@@QAEAAV01@ABV01@@Z ; std::vector<int,std::allocator<int> >::operator=

; 986  : 		pUserInfoNode->SetSync( true );

  00123	c6 86 bc 04 00
	00 01		 mov	 BYTE PTR [esi+1212], 1

; 987  : 	}
; 988  : 	else

  0012a	e9 a4 00 00 00	 jmp	 $LN1@SetUserInf
$LN2@SetUserInf:

; 989  : 	{
; 990  : 		UserInfoNode *NewInfo = new UserInfoNode( szUserID, iGradeLevel, iGradeExpPer, iPartyExp, iLadderExp, iAwardLevel, iAwardExp, 
; 991  : 			iKillDeathLevel, iFishingLevel, iFishingExp, iExcavationLevel, iExcavationExp, iHeroWin, iHeroLose,
; 992  : 			iHeroTitle, iHeroRank, iBlockType, iRanking, iCampPosition, iLadderPoint, iClassLevel, iClassType, 
; 993  : 			rvMedalItemTypeVec, rvGrowthLevelVec, nPetCode, nPetLevel, dwNamedTitleCode, nNamedTitleLevel, byNamedTitlePremium, rvSoldierSetCntVec );

  0012f	68 d8 04 00 00	 push	 1240			; 000004d8H
  00134	e8 00 00 00 00	 call	 ??2@YAPAXI@Z		; operator new
  00139	59		 pop	 ecx
  0013a	8b c8		 mov	 ecx, eax
  0013c	89 4d 78	 mov	 DWORD PTR $T524923[ebp], ecx
  0013f	83 65 fc 00	 and	 DWORD PTR __$EHRec$[ebp+8], 0
  00143	85 c9		 test	 ecx, ecx
  00145	74 70		 je	 SHORT $LN5@SetUserInf
  00147	ff b5 88 00 00
	00		 push	 DWORD PTR _rvSoldierSetCntVec$[ebp]
  0014d	ff b5 84 00 00
	00		 push	 DWORD PTR _byNamedTitlePremium$[ebp]
  00153	ff b5 80 00 00
	00		 push	 DWORD PTR _nNamedTitleLevel$[ebp]
  00159	ff 75 7c	 push	 DWORD PTR _dwNamedTitleCode$[ebp]
  0015c	ff 75 74	 push	 DWORD PTR _nPetLevel$[ebp]
  0015f	ff 75 70	 push	 DWORD PTR _nPetCode$[ebp]
  00162	ff 75 6c	 push	 DWORD PTR _rvGrowthLevelVec$[ebp]
  00165	ff 75 68	 push	 DWORD PTR _rvMedalItemTypeVec$[ebp]
  00168	ff 75 64	 push	 DWORD PTR _iClassType$[ebp]
  0016b	ff 75 60	 push	 DWORD PTR _iClassLevel$[ebp]
  0016e	ff 75 5c	 push	 DWORD PTR _iLadderPoint$[ebp]
  00171	ff 75 58	 push	 DWORD PTR _iCampPosition$[ebp]
  00174	ff 75 54	 push	 DWORD PTR _iRanking$[ebp]
  00177	ff 75 50	 push	 DWORD PTR _iBlockType$[ebp]
  0017a	ff 75 4c	 push	 DWORD PTR _iHeroRank$[ebp]
  0017d	ff 75 48	 push	 DWORD PTR _iHeroTitle$[ebp]
  00180	ff 75 44	 push	 DWORD PTR _iHeroLose$[ebp]
  00183	ff 75 40	 push	 DWORD PTR _iHeroWin$[ebp]
  00186	ff 75 3c	 push	 DWORD PTR _iExcavationExp$[ebp]
  00189	ff 75 38	 push	 DWORD PTR _iExcavationLevel$[ebp]
  0018c	ff 75 34	 push	 DWORD PTR _iFishingExp$[ebp]
  0018f	ff 75 30	 push	 DWORD PTR _iFishingLevel$[ebp]
  00192	ff 75 2c	 push	 DWORD PTR _iKillDeathLevel$[ebp]
  00195	ff 75 28	 push	 DWORD PTR _iAwardExp$[ebp]
  00198	ff 75 24	 push	 DWORD PTR _iAwardLevel$[ebp]
  0019b	ff 75 20	 push	 DWORD PTR _iLadderExp$[ebp+4]
  0019e	ff 75 1c	 push	 DWORD PTR _iLadderExp$[ebp]
  001a1	ff 75 18	 push	 DWORD PTR _iPartyExp$[ebp+4]
  001a4	ff 75 14	 push	 DWORD PTR _iPartyExp$[ebp]
  001a7	ff 75 10	 push	 DWORD PTR _iGradeExpPer$[ebp]
  001aa	ff 75 0c	 push	 DWORD PTR _iGradeLevel$[ebp]
  001ad	ff 75 08	 push	 DWORD PTR _szUserID$[ebp]
  001b0	e8 00 00 00 00	 call	 ??0UserInfoNode@@QAE@ABVioHashString@@HH_J1HHHHHHHHHHHHHHHHHAAV?$vector@HV?$allocator@H@std@@@std@@2HHKHE2@Z ; UserInfoNode::UserInfoNode
  001b5	eb 02		 jmp	 SHORT $LN6@SetUserInf
$LN5@SetUserInf:
  001b7	33 c0		 xor	 eax, eax
$LN6@SetUserInf:
  001b9	83 4d fc ff	 or	 DWORD PTR __$EHRec$[ebp+8], -1
  001bd	89 45 78	 mov	 DWORD PTR _NewInfo$514612[ebp], eax

; 994  : 		NewInfo->SetSync( true );

  001c0	c6 80 bc 04 00
	00 01		 mov	 BYTE PTR [eax+1212], 1

; 995  : 		m_vUserInfoList.push_back( NewInfo );

  001c7	8d 45 78	 lea	 eax, DWORD PTR _NewInfo$514612[ebp]
  001ca	50		 push	 eax
  001cb	8d 4f 04	 lea	 ecx, DWORD PTR [edi+4]
  001ce	e8 00 00 00 00	 call	 ?push_back@?$vector@PAVUserInfoNode@@V?$allocator@PAVUserInfoNode@@@std@@@std@@QAEXABQAVUserInfoNode@@@Z ; std::vector<UserInfoNode *,std::allocator<UserInfoNode *> >::push_back
$LN1@SetUserInf:

; 996  : 	}
; 997  : }

  001d3	e8 00 00 00 00	 call	 __EH_epilog3
  001d8	c2 84 00	 ret	 132			; 00000084H
_TEXT	ENDS
;	COMDAT text$x
text$x	SEGMENT
__unwindfunclet$?SetUserInfo@ioUserInfoMgr@@QAEXABVioHashString@@HH_J1HHHHHHHHHHHHHHHHHAAV?$vector@HV?$allocator@H@std@@@std@@2HH_NKHE2@Z$0:
  00000	ff 75 78	 push	 DWORD PTR $T524923[ebp]
  00003	e8 00 00 00 00	 call	 ??3@YAXPAX@Z		; operator delete
  00008	59		 pop	 ecx
  00009	c3		 ret	 0
__ehhandler$?SetUserInfo@ioUserInfoMgr@@QAEXABVioHashString@@HH_J1HHHHHHHHHHHHHHHHHAAV?$vector@HV?$allocator@H@std@@@std@@2HH_NKHE2@Z:
  0000a	8b 54 24 08	 mov	 edx, DWORD PTR [esp+8]
  0000e	8d 42 0c	 lea	 eax, DWORD PTR [edx+12]
  00011	8b 4a f0	 mov	 ecx, DWORD PTR [edx-16]
  00014	33 c8		 xor	 ecx, eax
  00016	e8 00 00 00 00	 call	 @__security_check_cookie@4
  0001b	b8 00 00 00 00	 mov	 eax, OFFSET __ehfuncinfo$?SetUserInfo@ioUserInfoMgr@@QAEXABVioHashString@@HH_J1HHHHHHHHHHHHHHHHHAAV?$vector@HV?$allocator@H@std@@@std@@2HH_NKHE2@Z
  00020	e9 00 00 00 00	 jmp	 ___CxxFrameHandler3
text$x	ENDS
?SetUserInfo@ioUserInfoMgr@@QAEXABVioHashString@@HH_J1HHHHHHHHHHHHHHHHHAAV?$vector@HV?$allocator@H@std@@@std@@2HH_NKHE2@Z ENDP ; ioUserInfoMgr::SetUserInfo
PUBLIC	?ChangeName@ioUserInfoMgr@@QAEXABVioHashString@@0@Z ; ioUserInfoMgr::ChangeName
; Function compile flags: /Ogsp
;	COMDAT ?ChangeName@ioUserInfoMgr@@QAEXABVioHashString@@0@Z
_TEXT	SEGMENT
_szUserID$ = 8						; size = 4
_szChangeID$ = 12					; size = 4
?ChangeName@ioUserInfoMgr@@QAEXABVioHashString@@0@Z PROC ; ioUserInfoMgr::ChangeName, COMDAT
; _this$ = ecx

; 1000 : {

  00000	55		 push	 ebp
  00001	8b ec		 mov	 ebp, esp

; 1001 : 	UserInfoNode *pUserInfoNode = GetUserInfoNode( szUserID, false );

  00003	6a 00		 push	 0
  00005	ff 75 08	 push	 DWORD PTR _szUserID$[ebp]
  00008	e8 00 00 00 00	 call	 ?GetUserInfoNode@ioUserInfoMgr@@QAEPAVUserInfoNode@@ABVioHashString@@_N@Z ; ioUserInfoMgr::GetUserInfoNode

; 1002 : 	if( pUserInfoNode )

  0000d	85 c0		 test	 eax, eax
  0000f	74 0c		 je	 SHORT $LN4@ChangeName

; 1003 : 		pUserInfoNode->SetUserID( szChangeID );

  00011	ff 75 0c	 push	 DWORD PTR _szChangeID$[ebp]
  00014	8d 48 08	 lea	 ecx, DWORD PTR [eax+8]
  00017	ff 15 00 00 00
	00		 call	 DWORD PTR __imp_??4ioHashString@@QAEAAV0@ABV0@@Z
$LN4@ChangeName:

; 1004 : }

  0001d	5d		 pop	 ebp
  0001e	c2 08 00	 ret	 8
?ChangeName@ioUserInfoMgr@@QAEXABVioHashString@@0@Z ENDP ; ioUserInfoMgr::ChangeName
_TEXT	ENDS
PUBLIC	?SetGrade@ioUserInfoMgr@@QAEXABVioHashString@@H@Z ; ioUserInfoMgr::SetGrade
; Function compile flags: /Ogsp
;	COMDAT ?SetGrade@ioUserInfoMgr@@QAEXABVioHashString@@H@Z
_TEXT	SEGMENT
_szUserID$ = 8						; size = 4
_iGradeLevel$ = 12					; size = 4
?SetGrade@ioUserInfoMgr@@QAEXABVioHashString@@H@Z PROC	; ioUserInfoMgr::SetGrade, COMDAT
; _this$ = ecx

; 1007 : {

  00000	55		 push	 ebp
  00001	8b ec		 mov	 ebp, esp

; 1008 : 	UserInfoNode *pUserInfoNode = GetUserInfoNode( szUserID, false );

  00003	6a 00		 push	 0
  00005	ff 75 08	 push	 DWORD PTR _szUserID$[ebp]
  00008	e8 00 00 00 00	 call	 ?GetUserInfoNode@ioUserInfoMgr@@QAEPAVUserInfoNode@@ABVioHashString@@_N@Z ; ioUserInfoMgr::GetUserInfoNode

; 1009 : 	if( pUserInfoNode )

  0000d	85 c0		 test	 eax, eax
  0000f	74 06		 je	 SHORT $LN6@SetGrade

; 1010 : 		pUserInfoNode->SetGrade( iGradeLevel, pUserInfoNode->GetGradeExp() );

  00011	8b 4d 0c	 mov	 ecx, DWORD PTR _iGradeLevel$[ebp]
  00014	89 48 18	 mov	 DWORD PTR [eax+24], ecx
$LN6@SetGrade:

; 1011 : }

  00017	5d		 pop	 ebp
  00018	c2 08 00	 ret	 8
?SetGrade@ioUserInfoMgr@@QAEXABVioHashString@@H@Z ENDP	; ioUserInfoMgr::SetGrade
_TEXT	ENDS
PUBLIC	?SetGrade@ioUserInfoMgr@@QAEXABVioHashString@@HH@Z ; ioUserInfoMgr::SetGrade
; Function compile flags: /Ogsp
;	COMDAT ?SetGrade@ioUserInfoMgr@@QAEXABVioHashString@@HH@Z
_TEXT	SEGMENT
_szUserID$ = 8						; size = 4
_iGradeLevel$ = 12					; size = 4
_iGradeExpPer$ = 16					; size = 4
?SetGrade@ioUserInfoMgr@@QAEXABVioHashString@@HH@Z PROC	; ioUserInfoMgr::SetGrade, COMDAT
; _this$ = ecx

; 1014 : {

  00000	55		 push	 ebp
  00001	8b ec		 mov	 ebp, esp

; 1015 : 	UserInfoNode *pUserInfoNode = GetUserInfoNode( szUserID, false );

  00003	6a 00		 push	 0
  00005	ff 75 08	 push	 DWORD PTR _szUserID$[ebp]
  00008	e8 00 00 00 00	 call	 ?GetUserInfoNode@ioUserInfoMgr@@QAEPAVUserInfoNode@@ABVioHashString@@_N@Z ; ioUserInfoMgr::GetUserInfoNode

; 1016 : 	if( pUserInfoNode )

  0000d	85 c0		 test	 eax, eax
  0000f	74 0c		 je	 SHORT $LN4@SetGrade@2

; 1017 : 		pUserInfoNode->SetGrade( iGradeLevel, iGradeExpPer );

  00011	8b 4d 0c	 mov	 ecx, DWORD PTR _iGradeLevel$[ebp]
  00014	89 48 18	 mov	 DWORD PTR [eax+24], ecx
  00017	8b 4d 10	 mov	 ecx, DWORD PTR _iGradeExpPer$[ebp]
  0001a	89 48 1c	 mov	 DWORD PTR [eax+28], ecx
$LN4@SetGrade@2:

; 1018 : }

  0001d	5d		 pop	 ebp
  0001e	c2 0c 00	 ret	 12			; 0000000cH
?SetGrade@ioUserInfoMgr@@QAEXABVioHashString@@HH@Z ENDP	; ioUserInfoMgr::SetGrade
_TEXT	ENDS
PUBLIC	?SetPartyExp@ioUserInfoMgr@@QAEXABVioHashString@@_J@Z ; ioUserInfoMgr::SetPartyExp
; Function compile flags: /Ogsp
;	COMDAT ?SetPartyExp@ioUserInfoMgr@@QAEXABVioHashString@@_J@Z
_TEXT	SEGMENT
_szUserID$ = 8						; size = 4
_iPartyExp$ = 12					; size = 8
?SetPartyExp@ioUserInfoMgr@@QAEXABVioHashString@@_J@Z PROC ; ioUserInfoMgr::SetPartyExp, COMDAT
; _this$ = ecx

; 1021 : {

  00000	55		 push	 ebp
  00001	8b ec		 mov	 ebp, esp

; 1022 : 	UserInfoNode *pUserInfoNode = GetUserInfoNode( szUserID, false );

  00003	6a 00		 push	 0
  00005	ff 75 08	 push	 DWORD PTR _szUserID$[ebp]
  00008	e8 00 00 00 00	 call	 ?GetUserInfoNode@ioUserInfoMgr@@QAEPAVUserInfoNode@@ABVioHashString@@_N@Z ; ioUserInfoMgr::GetUserInfoNode

; 1023 : 	if( pUserInfoNode )

  0000d	85 c0		 test	 eax, eax
  0000f	74 0d		 je	 SHORT $LN1@SetPartyEx@2

; 1024 : 		pUserInfoNode->SetPartyExp( iPartyExp );

  00011	ff 75 10	 push	 DWORD PTR _iPartyExp$[ebp+4]
  00014	8b c8		 mov	 ecx, eax
  00016	ff 75 0c	 push	 DWORD PTR _iPartyExp$[ebp]
  00019	e8 00 00 00 00	 call	 ?SetPartyExp@UserInfoNode@@QAEX_J@Z ; UserInfoNode::SetPartyExp
$LN1@SetPartyEx@2:

; 1025 : }

  0001e	5d		 pop	 ebp
  0001f	c2 0c 00	 ret	 12			; 0000000cH
?SetPartyExp@ioUserInfoMgr@@QAEXABVioHashString@@_J@Z ENDP ; ioUserInfoMgr::SetPartyExp
_TEXT	ENDS
PUBLIC	?SetLadderExp@ioUserInfoMgr@@QAEXABVioHashString@@_J@Z ; ioUserInfoMgr::SetLadderExp
; Function compile flags: /Ogsp
;	COMDAT ?SetLadderExp@ioUserInfoMgr@@QAEXABVioHashString@@_J@Z
_TEXT	SEGMENT
_szUserID$ = 8						; size = 4
_iLadderExp$ = 12					; size = 8
?SetLadderExp@ioUserInfoMgr@@QAEXABVioHashString@@_J@Z PROC ; ioUserInfoMgr::SetLadderExp, COMDAT
; _this$ = ecx

; 1028 : {

  00000	55		 push	 ebp
  00001	8b ec		 mov	 ebp, esp

; 1029 : 	UserInfoNode *pUserInfoNode = GetUserInfoNode( szUserID, false );

  00003	6a 00		 push	 0
  00005	ff 75 08	 push	 DWORD PTR _szUserID$[ebp]
  00008	e8 00 00 00 00	 call	 ?GetUserInfoNode@ioUserInfoMgr@@QAEPAVUserInfoNode@@ABVioHashString@@_N@Z ; ioUserInfoMgr::GetUserInfoNode

; 1030 : 	if( pUserInfoNode )

  0000d	85 c0		 test	 eax, eax
  0000f	74 0d		 je	 SHORT $LN1@SetLadderE@2

; 1031 : 		pUserInfoNode->SetLadderExp( iLadderExp );

  00011	ff 75 10	 push	 DWORD PTR _iLadderExp$[ebp+4]
  00014	8b c8		 mov	 ecx, eax
  00016	ff 75 0c	 push	 DWORD PTR _iLadderExp$[ebp]
  00019	e8 00 00 00 00	 call	 ?SetLadderExp@UserInfoNode@@QAEX_J@Z ; UserInfoNode::SetLadderExp
$LN1@SetLadderE@2:

; 1032 : }

  0001e	5d		 pop	 ebp
  0001f	c2 0c 00	 ret	 12			; 0000000cH
?SetLadderExp@ioUserInfoMgr@@QAEXABVioHashString@@_J@Z ENDP ; ioUserInfoMgr::SetLadderExp
_TEXT	ENDS
PUBLIC	?SetAwardExp@ioUserInfoMgr@@QAEXABVioHashString@@HH@Z ; ioUserInfoMgr::SetAwardExp
; Function compile flags: /Ogsp
;	COMDAT ?SetAwardExp@ioUserInfoMgr@@QAEXABVioHashString@@HH@Z
_TEXT	SEGMENT
_szUserID$ = 8						; size = 4
_iAwardLevel$ = 12					; size = 4
_iAwardExp$ = 16					; size = 4
?SetAwardExp@ioUserInfoMgr@@QAEXABVioHashString@@HH@Z PROC ; ioUserInfoMgr::SetAwardExp, COMDAT
; _this$ = ecx

; 1035 : {

  00000	55		 push	 ebp
  00001	8b ec		 mov	 ebp, esp

; 1036 : 	UserInfoNode *pUserInfoNode = GetUserInfoNode( szUserID, false );

  00003	6a 00		 push	 0
  00005	ff 75 08	 push	 DWORD PTR _szUserID$[ebp]
  00008	e8 00 00 00 00	 call	 ?GetUserInfoNode@ioUserInfoMgr@@QAEPAVUserInfoNode@@ABVioHashString@@_N@Z ; ioUserInfoMgr::GetUserInfoNode

; 1037 : 	if( pUserInfoNode )

  0000d	85 c0		 test	 eax, eax
  0000f	74 0c		 je	 SHORT $LN4@SetAwardEx

; 1038 : 		pUserInfoNode->SetAwardExp( iAwardLevel, iAwardExp );

  00011	8b 4d 0c	 mov	 ecx, DWORD PTR _iAwardLevel$[ebp]
  00014	89 48 40	 mov	 DWORD PTR [eax+64], ecx
  00017	8b 4d 10	 mov	 ecx, DWORD PTR _iAwardExp$[ebp]
  0001a	89 48 44	 mov	 DWORD PTR [eax+68], ecx
$LN4@SetAwardEx:

; 1039 : }

  0001d	5d		 pop	 ebp
  0001e	c2 0c 00	 ret	 12			; 0000000cH
?SetAwardExp@ioUserInfoMgr@@QAEXABVioHashString@@HH@Z ENDP ; ioUserInfoMgr::SetAwardExp
_TEXT	ENDS
PUBLIC	?SetFishingExp@ioUserInfoMgr@@QAEXABVioHashString@@HH@Z ; ioUserInfoMgr::SetFishingExp
; Function compile flags: /Ogsp
;	COMDAT ?SetFishingExp@ioUserInfoMgr@@QAEXABVioHashString@@HH@Z
_TEXT	SEGMENT
_szUserID$ = 8						; size = 4
_iFishingLevel$ = 12					; size = 4
_iFishingExp$ = 16					; size = 4
?SetFishingExp@ioUserInfoMgr@@QAEXABVioHashString@@HH@Z PROC ; ioUserInfoMgr::SetFishingExp, COMDAT
; _this$ = ecx

; 1042 : {

  00000	55		 push	 ebp
  00001	8b ec		 mov	 ebp, esp

; 1043 : 	UserInfoNode *pUserInfoNode = GetUserInfoNode( szUserID, false );

  00003	6a 00		 push	 0
  00005	ff 75 08	 push	 DWORD PTR _szUserID$[ebp]
  00008	e8 00 00 00 00	 call	 ?GetUserInfoNode@ioUserInfoMgr@@QAEPAVUserInfoNode@@ABVioHashString@@_N@Z ; ioUserInfoMgr::GetUserInfoNode

; 1044 : 	if( pUserInfoNode )

  0000d	85 c0		 test	 eax, eax
  0000f	74 0c		 je	 SHORT $LN4@SetFishing

; 1045 : 		pUserInfoNode->SetFishingExp( iFishingLevel, iFishingExp );

  00011	8b 4d 0c	 mov	 ecx, DWORD PTR _iFishingLevel$[ebp]
  00014	89 48 4c	 mov	 DWORD PTR [eax+76], ecx
  00017	8b 4d 10	 mov	 ecx, DWORD PTR _iFishingExp$[ebp]
  0001a	89 48 50	 mov	 DWORD PTR [eax+80], ecx
$LN4@SetFishing:

; 1046 : }

  0001d	5d		 pop	 ebp
  0001e	c2 0c 00	 ret	 12			; 0000000cH
?SetFishingExp@ioUserInfoMgr@@QAEXABVioHashString@@HH@Z ENDP ; ioUserInfoMgr::SetFishingExp
_TEXT	ENDS
PUBLIC	?SetExcavationExp@ioUserInfoMgr@@QAEXABVioHashString@@HH@Z ; ioUserInfoMgr::SetExcavationExp
; Function compile flags: /Ogsp
;	COMDAT ?SetExcavationExp@ioUserInfoMgr@@QAEXABVioHashString@@HH@Z
_TEXT	SEGMENT
_szUserID$ = 8						; size = 4
_iExcavationLevel$ = 12					; size = 4
_iExcavationExp$ = 16					; size = 4
?SetExcavationExp@ioUserInfoMgr@@QAEXABVioHashString@@HH@Z PROC ; ioUserInfoMgr::SetExcavationExp, COMDAT
; _this$ = ecx

; 1049 : {

  00000	55		 push	 ebp
  00001	8b ec		 mov	 ebp, esp

; 1050 : 	UserInfoNode *pUserInfoNode = GetUserInfoNode( szUserID, false );

  00003	6a 00		 push	 0
  00005	ff 75 08	 push	 DWORD PTR _szUserID$[ebp]
  00008	e8 00 00 00 00	 call	 ?GetUserInfoNode@ioUserInfoMgr@@QAEPAVUserInfoNode@@ABVioHashString@@_N@Z ; ioUserInfoMgr::GetUserInfoNode

; 1051 : 	if( pUserInfoNode )

  0000d	85 c0		 test	 eax, eax
  0000f	74 0c		 je	 SHORT $LN4@SetExcavat

; 1052 : 		pUserInfoNode->SetExcavationExp( iExcavationLevel, iExcavationExp );

  00011	8b 4d 0c	 mov	 ecx, DWORD PTR _iExcavationLevel$[ebp]
  00014	89 48 54	 mov	 DWORD PTR [eax+84], ecx
  00017	8b 4d 10	 mov	 ecx, DWORD PTR _iExcavationExp$[ebp]
  0001a	89 48 58	 mov	 DWORD PTR [eax+88], ecx
$LN4@SetExcavat:

; 1053 : }

  0001d	5d		 pop	 ebp
  0001e	c2 0c 00	 ret	 12			; 0000000cH
?SetExcavationExp@ioUserInfoMgr@@QAEXABVioHashString@@HH@Z ENDP ; ioUserInfoMgr::SetExcavationExp
_TEXT	ENDS
PUBLIC	?SetHeroWin@ioUserInfoMgr@@QAEXABVioHashString@@H@Z ; ioUserInfoMgr::SetHeroWin
; Function compile flags: /Ogsp
;	COMDAT ?SetHeroWin@ioUserInfoMgr@@QAEXABVioHashString@@H@Z
_TEXT	SEGMENT
_szUserID$ = 8						; size = 4
_iWin$ = 12						; size = 4
?SetHeroWin@ioUserInfoMgr@@QAEXABVioHashString@@H@Z PROC ; ioUserInfoMgr::SetHeroWin, COMDAT
; _this$ = ecx

; 1056 : {

  00000	55		 push	 ebp
  00001	8b ec		 mov	 ebp, esp

; 1057 : 	UserInfoNode *pUserInfoNode = GetUserInfoNode( szUserID, false );

  00003	6a 00		 push	 0
  00005	ff 75 08	 push	 DWORD PTR _szUserID$[ebp]
  00008	e8 00 00 00 00	 call	 ?GetUserInfoNode@ioUserInfoMgr@@QAEPAVUserInfoNode@@ABVioHashString@@_N@Z ; ioUserInfoMgr::GetUserInfoNode

; 1058 : 	if( pUserInfoNode )

  0000d	85 c0		 test	 eax, eax
  0000f	74 06		 je	 SHORT $LN4@SetHeroWin

; 1059 : 		pUserInfoNode->SetHeroWin( iWin );

  00011	8b 4d 0c	 mov	 ecx, DWORD PTR _iWin$[ebp]
  00014	89 48 5c	 mov	 DWORD PTR [eax+92], ecx
$LN4@SetHeroWin:

; 1060 : }

  00017	5d		 pop	 ebp
  00018	c2 08 00	 ret	 8
?SetHeroWin@ioUserInfoMgr@@QAEXABVioHashString@@H@Z ENDP ; ioUserInfoMgr::SetHeroWin
_TEXT	ENDS
PUBLIC	?SetHeroLose@ioUserInfoMgr@@QAEXABVioHashString@@H@Z ; ioUserInfoMgr::SetHeroLose
; Function compile flags: /Ogsp
;	COMDAT ?SetHeroLose@ioUserInfoMgr@@QAEXABVioHashString@@H@Z
_TEXT	SEGMENT
_szUserID$ = 8						; size = 4
_iLose$ = 12						; size = 4
?SetHeroLose@ioUserInfoMgr@@QAEXABVioHashString@@H@Z PROC ; ioUserInfoMgr::SetHeroLose, COMDAT
; _this$ = ecx

; 1063 : {

  00000	55		 push	 ebp
  00001	8b ec		 mov	 ebp, esp

; 1064 : 	UserInfoNode *pUserInfoNode = GetUserInfoNode( szUserID, false );

  00003	6a 00		 push	 0
  00005	ff 75 08	 push	 DWORD PTR _szUserID$[ebp]
  00008	e8 00 00 00 00	 call	 ?GetUserInfoNode@ioUserInfoMgr@@QAEPAVUserInfoNode@@ABVioHashString@@_N@Z ; ioUserInfoMgr::GetUserInfoNode

; 1065 : 	if( pUserInfoNode )

  0000d	85 c0		 test	 eax, eax
  0000f	74 06		 je	 SHORT $LN4@SetHeroLos

; 1066 : 		pUserInfoNode->SetHeroLose( iLose );

  00011	8b 4d 0c	 mov	 ecx, DWORD PTR _iLose$[ebp]
  00014	89 48 60	 mov	 DWORD PTR [eax+96], ecx
$LN4@SetHeroLos:

; 1067 : }

  00017	5d		 pop	 ebp
  00018	c2 08 00	 ret	 8
?SetHeroLose@ioUserInfoMgr@@QAEXABVioHashString@@H@Z ENDP ; ioUserInfoMgr::SetHeroLose
_TEXT	ENDS
PUBLIC	?SetHeroTitle@ioUserInfoMgr@@QAEXABVioHashString@@H@Z ; ioUserInfoMgr::SetHeroTitle
; Function compile flags: /Ogsp
;	COMDAT ?SetHeroTitle@ioUserInfoMgr@@QAEXABVioHashString@@H@Z
_TEXT	SEGMENT
_szUserID$ = 8						; size = 4
_iTitle$ = 12						; size = 4
?SetHeroTitle@ioUserInfoMgr@@QAEXABVioHashString@@H@Z PROC ; ioUserInfoMgr::SetHeroTitle, COMDAT
; _this$ = ecx

; 1070 : {

  00000	55		 push	 ebp
  00001	8b ec		 mov	 ebp, esp

; 1071 : 	UserInfoNode *pUserInfoNode = GetUserInfoNode( szUserID, false );

  00003	6a 00		 push	 0
  00005	ff 75 08	 push	 DWORD PTR _szUserID$[ebp]
  00008	e8 00 00 00 00	 call	 ?GetUserInfoNode@ioUserInfoMgr@@QAEPAVUserInfoNode@@ABVioHashString@@_N@Z ; ioUserInfoMgr::GetUserInfoNode

; 1072 : 	if( pUserInfoNode )

  0000d	85 c0		 test	 eax, eax
  0000f	74 06		 je	 SHORT $LN4@SetHeroTit

; 1073 : 		pUserInfoNode->SetHeroTitle( iTitle );

  00011	8b 4d 0c	 mov	 ecx, DWORD PTR _iTitle$[ebp]
  00014	89 48 64	 mov	 DWORD PTR [eax+100], ecx
$LN4@SetHeroTit:

; 1074 : }

  00017	5d		 pop	 ebp
  00018	c2 08 00	 ret	 8
?SetHeroTitle@ioUserInfoMgr@@QAEXABVioHashString@@H@Z ENDP ; ioUserInfoMgr::SetHeroTitle
_TEXT	ENDS
PUBLIC	?SetHeroRank@ioUserInfoMgr@@QAEXABVioHashString@@H@Z ; ioUserInfoMgr::SetHeroRank
; Function compile flags: /Ogsp
;	COMDAT ?SetHeroRank@ioUserInfoMgr@@QAEXABVioHashString@@H@Z
_TEXT	SEGMENT
_szUserID$ = 8						; size = 4
_iRank$ = 12						; size = 4
?SetHeroRank@ioUserInfoMgr@@QAEXABVioHashString@@H@Z PROC ; ioUserInfoMgr::SetHeroRank, COMDAT
; _this$ = ecx

; 1077 : {

  00000	55		 push	 ebp
  00001	8b ec		 mov	 ebp, esp

; 1078 : 	UserInfoNode *pUserInfoNode = GetUserInfoNode( szUserID, false );

  00003	6a 00		 push	 0
  00005	ff 75 08	 push	 DWORD PTR _szUserID$[ebp]
  00008	e8 00 00 00 00	 call	 ?GetUserInfoNode@ioUserInfoMgr@@QAEPAVUserInfoNode@@ABVioHashString@@_N@Z ; ioUserInfoMgr::GetUserInfoNode

; 1079 : 	if( pUserInfoNode )

  0000d	85 c0		 test	 eax, eax
  0000f	74 06		 je	 SHORT $LN4@SetHeroRan

; 1080 : 		pUserInfoNode->SetHeroRank( iRank );

  00011	8b 4d 0c	 mov	 ecx, DWORD PTR _iRank$[ebp]
  00014	89 48 68	 mov	 DWORD PTR [eax+104], ecx
$LN4@SetHeroRan:

; 1081 : }

  00017	5d		 pop	 ebp
  00018	c2 08 00	 ret	 8
?SetHeroRank@ioUserInfoMgr@@QAEXABVioHashString@@H@Z ENDP ; ioUserInfoMgr::SetHeroRank
_TEXT	ENDS
PUBLIC	?SetBlockType@ioUserInfoMgr@@QAEXABVioHashString@@H@Z ; ioUserInfoMgr::SetBlockType
; Function compile flags: /Ogsp
;	COMDAT ?SetBlockType@ioUserInfoMgr@@QAEXABVioHashString@@H@Z
_TEXT	SEGMENT
_szUserID$ = 8						; size = 4
_iBlockType$ = 12					; size = 4
?SetBlockType@ioUserInfoMgr@@QAEXABVioHashString@@H@Z PROC ; ioUserInfoMgr::SetBlockType, COMDAT
; _this$ = ecx

; 1084 : {

  00000	55		 push	 ebp
  00001	8b ec		 mov	 ebp, esp

; 1085 : 	UserInfoNode *pUserInfoNode = GetUserInfoNode( szUserID, false );

  00003	6a 00		 push	 0
  00005	ff 75 08	 push	 DWORD PTR _szUserID$[ebp]
  00008	e8 00 00 00 00	 call	 ?GetUserInfoNode@ioUserInfoMgr@@QAEPAVUserInfoNode@@ABVioHashString@@_N@Z ; ioUserInfoMgr::GetUserInfoNode

; 1086 : 	if( pUserInfoNode )

  0000d	85 c0		 test	 eax, eax
  0000f	74 06		 je	 SHORT $LN4@SetBlockTy

; 1087 : 		pUserInfoNode->SetBlockType( iBlockType );

  00011	8b 4d 0c	 mov	 ecx, DWORD PTR _iBlockType$[ebp]
  00014	89 48 6c	 mov	 DWORD PTR [eax+108], ecx
$LN4@SetBlockTy:

; 1088 : }

  00017	5d		 pop	 ebp
  00018	c2 08 00	 ret	 8
?SetBlockType@ioUserInfoMgr@@QAEXABVioHashString@@H@Z ENDP ; ioUserInfoMgr::SetBlockType
_TEXT	ENDS
PUBLIC	?SetRanking@ioUserInfoMgr@@QAEXABVioHashString@@H@Z ; ioUserInfoMgr::SetRanking
; Function compile flags: /Ogsp
;	COMDAT ?SetRanking@ioUserInfoMgr@@QAEXABVioHashString@@H@Z
_TEXT	SEGMENT
_szUserID$ = 8						; size = 4
_iRanking$ = 12						; size = 4
?SetRanking@ioUserInfoMgr@@QAEXABVioHashString@@H@Z PROC ; ioUserInfoMgr::SetRanking, COMDAT
; _this$ = ecx

; 1092 : {

  00000	55		 push	 ebp
  00001	8b ec		 mov	 ebp, esp

; 1093 : 	UserInfoNode *pUserInfoNode = GetUserInfoNode( szUserID, false );

  00003	6a 00		 push	 0
  00005	ff 75 08	 push	 DWORD PTR _szUserID$[ebp]
  00008	e8 00 00 00 00	 call	 ?GetUserInfoNode@ioUserInfoMgr@@QAEPAVUserInfoNode@@ABVioHashString@@_N@Z ; ioUserInfoMgr::GetUserInfoNode

; 1094 : 	if( pUserInfoNode )

  0000d	85 c0		 test	 eax, eax
  0000f	74 06		 je	 SHORT $LN4@SetRanking

; 1095 : 		pUserInfoNode->SetRanking( iRanking );

  00011	8b 4d 0c	 mov	 ecx, DWORD PTR _iRanking$[ebp]
  00014	89 48 70	 mov	 DWORD PTR [eax+112], ecx
$LN4@SetRanking:

; 1096 : }

  00017	5d		 pop	 ebp
  00018	c2 08 00	 ret	 8
?SetRanking@ioUserInfoMgr@@QAEXABVioHashString@@H@Z ENDP ; ioUserInfoMgr::SetRanking
_TEXT	ENDS
PUBLIC	?SetGuildIndex@ioUserInfoMgr@@QAEXABVioHashString@@K@Z ; ioUserInfoMgr::SetGuildIndex
; Function compile flags: /Ogsp
;	COMDAT ?SetGuildIndex@ioUserInfoMgr@@QAEXABVioHashString@@K@Z
_TEXT	SEGMENT
_szUserID$ = 8						; size = 4
_dwGuildIndex$ = 12					; size = 4
?SetGuildIndex@ioUserInfoMgr@@QAEXABVioHashString@@K@Z PROC ; ioUserInfoMgr::SetGuildIndex, COMDAT
; _this$ = ecx

; 1099 : {

  00000	55		 push	 ebp
  00001	8b ec		 mov	 ebp, esp

; 1100 : 	UserInfoNode *pUserInfoNode = GetUserInfoNode( szUserID, false );

  00003	6a 00		 push	 0
  00005	ff 75 08	 push	 DWORD PTR _szUserID$[ebp]
  00008	e8 00 00 00 00	 call	 ?GetUserInfoNode@ioUserInfoMgr@@QAEPAVUserInfoNode@@ABVioHashString@@_N@Z ; ioUserInfoMgr::GetUserInfoNode

; 1101 : 	if( pUserInfoNode )

  0000d	85 c0		 test	 eax, eax
  0000f	74 0a		 je	 SHORT $LN1@SetGuildIn@2

; 1102 : 		pUserInfoNode->SetGuildIndex( dwGuildIndex );

  00011	ff 75 0c	 push	 DWORD PTR _dwGuildIndex$[ebp]
  00014	8b c8		 mov	 ecx, eax
  00016	e8 00 00 00 00	 call	 ?SetGuildIndex@UserInfoNode@@QAEXK@Z ; UserInfoNode::SetGuildIndex
$LN1@SetGuildIn@2:

; 1103 : }

  0001b	5d		 pop	 ebp
  0001c	c2 08 00	 ret	 8
?SetGuildIndex@ioUserInfoMgr@@QAEXABVioHashString@@K@Z ENDP ; ioUserInfoMgr::SetGuildIndex
_TEXT	ENDS
PUBLIC	?SetSyncTime@ioUserInfoMgr@@QAEXABVioHashString@@K@Z ; ioUserInfoMgr::SetSyncTime
; Function compile flags: /Ogsp
;	COMDAT ?SetSyncTime@ioUserInfoMgr@@QAEXABVioHashString@@K@Z
_TEXT	SEGMENT
_szUserID$ = 8						; size = 4
_dwTime$ = 12						; size = 4
?SetSyncTime@ioUserInfoMgr@@QAEXABVioHashString@@K@Z PROC ; ioUserInfoMgr::SetSyncTime, COMDAT
; _this$ = ecx

; 1106 : {

  00000	55		 push	 ebp
  00001	8b ec		 mov	 ebp, esp

; 1107 : 	UserInfoNode *pUserInfoNode = GetUserInfoNode( szUserID, false );

  00003	6a 00		 push	 0
  00005	ff 75 08	 push	 DWORD PTR _szUserID$[ebp]
  00008	e8 00 00 00 00	 call	 ?GetUserInfoNode@ioUserInfoMgr@@QAEPAVUserInfoNode@@ABVioHashString@@_N@Z ; ioUserInfoMgr::GetUserInfoNode

; 1108 : 	if( pUserInfoNode )

  0000d	85 c0		 test	 eax, eax
  0000f	74 09		 je	 SHORT $LN4@SetSyncTim

; 1109 : 		pUserInfoNode->SetSyncTime( dwTime );

  00011	8b 4d 0c	 mov	 ecx, DWORD PTR _dwTime$[ebp]
  00014	89 88 b4 04 00
	00		 mov	 DWORD PTR [eax+1204], ecx
$LN4@SetSyncTim:

; 1110 : }

  0001a	5d		 pop	 ebp
  0001b	c2 08 00	 ret	 8
?SetSyncTime@ioUserInfoMgr@@QAEXABVioHashString@@K@Z ENDP ; ioUserInfoMgr::SetSyncTime
_TEXT	ENDS
PUBLIC	?SetLadderPoint@ioUserInfoMgr@@QAEXABVioHashString@@H@Z ; ioUserInfoMgr::SetLadderPoint
; Function compile flags: /Ogsp
;	COMDAT ?SetLadderPoint@ioUserInfoMgr@@QAEXABVioHashString@@H@Z
_TEXT	SEGMENT
_szUserID$ = 8						; size = 4
_iLadderPoint$ = 12					; size = 4
?SetLadderPoint@ioUserInfoMgr@@QAEXABVioHashString@@H@Z PROC ; ioUserInfoMgr::SetLadderPoint, COMDAT
; _this$ = ecx

; 1113 : {

  00000	55		 push	 ebp
  00001	8b ec		 mov	 ebp, esp

; 1114 : 	UserInfoNode *pUserInfoNode = GetUserInfoNode( szUserID, false );

  00003	6a 00		 push	 0
  00005	ff 75 08	 push	 DWORD PTR _szUserID$[ebp]
  00008	e8 00 00 00 00	 call	 ?GetUserInfoNode@ioUserInfoMgr@@QAEPAVUserInfoNode@@ABVioHashString@@_N@Z ; ioUserInfoMgr::GetUserInfoNode

; 1115 : 	if( pUserInfoNode )

  0000d	85 c0		 test	 eax, eax
  0000f	74 0a		 je	 SHORT $LN1@SetLadderP@2

; 1116 : 		pUserInfoNode->SetLadderPoint( iLadderPoint );

  00011	ff 75 0c	 push	 DWORD PTR _iLadderPoint$[ebp]
  00014	8b c8		 mov	 ecx, eax
  00016	e8 00 00 00 00	 call	 ?SetLadderPoint@UserInfoNode@@QAEXH@Z ; UserInfoNode::SetLadderPoint
$LN1@SetLadderP@2:

; 1117 : }

  0001b	5d		 pop	 ebp
  0001c	c2 08 00	 ret	 8
?SetLadderPoint@ioUserInfoMgr@@QAEXABVioHashString@@H@Z ENDP ; ioUserInfoMgr::SetLadderPoint
_TEXT	ENDS
PUBLIC	?SetEnterRoomUserSync@ioUserInfoMgr@@QAEXABVioHashString@@HH@Z ; ioUserInfoMgr::SetEnterRoomUserSync
; Function compile flags: /Ogsp
;	COMDAT ?SetEnterRoomUserSync@ioUserInfoMgr@@QAEXABVioHashString@@HH@Z
_TEXT	SEGMENT
_szUserID$ = 8						; size = 4
_iGradeLevel$ = 12					; size = 4
_iLadderPoint$ = 16					; size = 4
?SetEnterRoomUserSync@ioUserInfoMgr@@QAEXABVioHashString@@HH@Z PROC ; ioUserInfoMgr::SetEnterRoomUserSync, COMDAT
; _this$ = ecx

; 1120 : {

  00000	55		 push	 ebp
  00001	8b ec		 mov	 ebp, esp

; 1121 : 	UserInfoNode *pUserInfoNode = GetUserInfoNode( szUserID, false );

  00003	6a 00		 push	 0
  00005	ff 75 08	 push	 DWORD PTR _szUserID$[ebp]
  00008	e8 00 00 00 00	 call	 ?GetUserInfoNode@ioUserInfoMgr@@QAEPAVUserInfoNode@@ABVioHashString@@_N@Z ; ioUserInfoMgr::GetUserInfoNode

; 1122 : 	if( pUserInfoNode )

  0000d	85 c0		 test	 eax, eax
  0000f	74 14		 je	 SHORT $LN1@SetEnterRo

; 1123 : 	{
; 1124 : 		pUserInfoNode->SetGrade( iGradeLevel, 0 );

  00011	8b 4d 0c	 mov	 ecx, DWORD PTR _iGradeLevel$[ebp]

; 1125 : 		pUserInfoNode->SetLadderPoint( iLadderPoint );

  00014	ff 75 10	 push	 DWORD PTR _iLadderPoint$[ebp]
  00017	83 60 1c 00	 and	 DWORD PTR [eax+28], 0
  0001b	89 48 18	 mov	 DWORD PTR [eax+24], ecx
  0001e	8b c8		 mov	 ecx, eax
  00020	e8 00 00 00 00	 call	 ?SetLadderPoint@UserInfoNode@@QAEXH@Z ; UserInfoNode::SetLadderPoint
$LN1@SetEnterRo:

; 1126 : 	}
; 1127 : }

  00025	5d		 pop	 ebp
  00026	c2 0c 00	 ret	 12			; 0000000cH
?SetEnterRoomUserSync@ioUserInfoMgr@@QAEXABVioHashString@@HH@Z ENDP ; ioUserInfoMgr::SetEnterRoomUserSync
_TEXT	ENDS
PUBLIC	?SetCampPosition@ioUserInfoMgr@@QAEXABVioHashString@@H@Z ; ioUserInfoMgr::SetCampPosition
; Function compile flags: /Ogsp
;	COMDAT ?SetCampPosition@ioUserInfoMgr@@QAEXABVioHashString@@H@Z
_TEXT	SEGMENT
_szUserID$ = 8						; size = 4
_iCampPosition$ = 12					; size = 4
?SetCampPosition@ioUserInfoMgr@@QAEXABVioHashString@@H@Z PROC ; ioUserInfoMgr::SetCampPosition, COMDAT
; _this$ = ecx

; 1130 : {

  00000	55		 push	 ebp
  00001	8b ec		 mov	 ebp, esp

; 1131 : 	UserInfoNode *pUserInfoNode = GetUserInfoNode( szUserID, false );

  00003	6a 00		 push	 0
  00005	ff 75 08	 push	 DWORD PTR _szUserID$[ebp]
  00008	e8 00 00 00 00	 call	 ?GetUserInfoNode@ioUserInfoMgr@@QAEPAVUserInfoNode@@ABVioHashString@@_N@Z ; ioUserInfoMgr::GetUserInfoNode

; 1132 : 	if( pUserInfoNode )

  0000d	85 c0		 test	 eax, eax
  0000f	74 0a		 je	 SHORT $LN1@SetCampPos@2

; 1133 : 	{
; 1134 : 		pUserInfoNode->SetCampPosition( iCampPosition );

  00011	ff 75 0c	 push	 DWORD PTR _iCampPosition$[ebp]
  00014	8b c8		 mov	 ecx, eax
  00016	e8 00 00 00 00	 call	 ?SetCampPosition@UserInfoNode@@QAEXH@Z ; UserInfoNode::SetCampPosition
$LN1@SetCampPos@2:

; 1135 : 	}
; 1136 : }

  0001b	5d		 pop	 ebp
  0001c	c2 08 00	 ret	 8
?SetCampPosition@ioUserInfoMgr@@QAEXABVioHashString@@H@Z ENDP ; ioUserInfoMgr::SetCampPosition
_TEXT	ENDS
PUBLIC	?SetClassLevel@ioUserInfoMgr@@QAEXABVioHashString@@H@Z ; ioUserInfoMgr::SetClassLevel
; Function compile flags: /Ogsp
;	COMDAT ?SetClassLevel@ioUserInfoMgr@@QAEXABVioHashString@@H@Z
_TEXT	SEGMENT
_szUserID$ = 8						; size = 4
_iClassLevel$ = 12					; size = 4
?SetClassLevel@ioUserInfoMgr@@QAEXABVioHashString@@H@Z PROC ; ioUserInfoMgr::SetClassLevel, COMDAT
; _this$ = ecx

; 1139 : {

  00000	55		 push	 ebp
  00001	8b ec		 mov	 ebp, esp

; 1140 : 	UserInfoNode *pUserInfoNode = GetUserInfoNode( szUserID, false );

  00003	6a 00		 push	 0
  00005	ff 75 08	 push	 DWORD PTR _szUserID$[ebp]
  00008	e8 00 00 00 00	 call	 ?GetUserInfoNode@ioUserInfoMgr@@QAEPAVUserInfoNode@@ABVioHashString@@_N@Z ; ioUserInfoMgr::GetUserInfoNode

; 1141 : 	if( pUserInfoNode )

  0000d	85 c0		 test	 eax, eax
  0000f	74 09		 je	 SHORT $LN4@SetClassLe

; 1142 : 	{
; 1143 : 		pUserInfoNode->SetClassLevel( iClassLevel );

  00011	8b 4d 0c	 mov	 ecx, DWORD PTR _iClassLevel$[ebp]
  00014	89 88 a8 00 00
	00		 mov	 DWORD PTR [eax+168], ecx
$LN4@SetClassLe:

; 1144 : 	}
; 1145 : }

  0001a	5d		 pop	 ebp
  0001b	c2 08 00	 ret	 8
?SetClassLevel@ioUserInfoMgr@@QAEXABVioHashString@@H@Z ENDP ; ioUserInfoMgr::SetClassLevel
_TEXT	ENDS
PUBLIC	?SetClassType@ioUserInfoMgr@@QAEXABVioHashString@@H@Z ; ioUserInfoMgr::SetClassType
; Function compile flags: /Ogsp
;	COMDAT ?SetClassType@ioUserInfoMgr@@QAEXABVioHashString@@H@Z
_TEXT	SEGMENT
_szUserID$ = 8						; size = 4
_iClassType$ = 12					; size = 4
?SetClassType@ioUserInfoMgr@@QAEXABVioHashString@@H@Z PROC ; ioUserInfoMgr::SetClassType, COMDAT
; _this$ = ecx

; 1148 : {

  00000	55		 push	 ebp
  00001	8b ec		 mov	 ebp, esp

; 1149 : 	UserInfoNode *pUserInfoNode = GetUserInfoNode( szUserID, false );

  00003	6a 00		 push	 0
  00005	ff 75 08	 push	 DWORD PTR _szUserID$[ebp]
  00008	e8 00 00 00 00	 call	 ?GetUserInfoNode@ioUserInfoMgr@@QAEPAVUserInfoNode@@ABVioHashString@@_N@Z ; ioUserInfoMgr::GetUserInfoNode

; 1150 : 	if( pUserInfoNode )

  0000d	85 c0		 test	 eax, eax
  0000f	74 09		 je	 SHORT $LN4@SetClassTy

; 1151 : 	{
; 1152 : 		pUserInfoNode->SetClassType( iClassType );

  00011	8b 4d 0c	 mov	 ecx, DWORD PTR _iClassType$[ebp]
  00014	89 88 ac 00 00
	00		 mov	 DWORD PTR [eax+172], ecx
$LN4@SetClassTy:

; 1153 : 	}
; 1154 : }

  0001a	5d		 pop	 ebp
  0001b	c2 08 00	 ret	 8
?SetClassType@ioUserInfoMgr@@QAEXABVioHashString@@H@Z ENDP ; ioUserInfoMgr::SetClassType
_TEXT	ENDS
PUBLIC	?SetMedalItemType@ioUserInfoMgr@@QAEXABVioHashString@@AAV?$vector@HV?$allocator@H@std@@@std@@@Z ; ioUserInfoMgr::SetMedalItemType
; Function compile flags: /Ogsp
;	COMDAT ?SetMedalItemType@ioUserInfoMgr@@QAEXABVioHashString@@AAV?$vector@HV?$allocator@H@std@@@std@@@Z
_TEXT	SEGMENT
_szUserID$ = 8						; size = 4
_rvMedalItemTypeVec$ = 12				; size = 4
?SetMedalItemType@ioUserInfoMgr@@QAEXABVioHashString@@AAV?$vector@HV?$allocator@H@std@@@std@@@Z PROC ; ioUserInfoMgr::SetMedalItemType, COMDAT
; _this$ = ecx

; 1157 : {

  00000	55		 push	 ebp
  00001	8b ec		 mov	 ebp, esp

; 1158 : 	UserInfoNode *pUserInfoNode = GetUserInfoNode( szUserID, false );

  00003	6a 00		 push	 0
  00005	ff 75 08	 push	 DWORD PTR _szUserID$[ebp]
  00008	e8 00 00 00 00	 call	 ?GetUserInfoNode@ioUserInfoMgr@@QAEPAVUserInfoNode@@ABVioHashString@@_N@Z ; ioUserInfoMgr::GetUserInfoNode

; 1159 : 	if( pUserInfoNode )

  0000d	85 c0		 test	 eax, eax
  0000f	74 0e		 je	 SHORT $LN4@SetMedalIt

; 1160 : 	{
; 1161 : 		pUserInfoNode->SetMedalItemType( rvMedalItemTypeVec );

  00011	ff 75 0c	 push	 DWORD PTR _rvMedalItemTypeVec$[ebp]
  00014	8d 88 98 00 00
	00		 lea	 ecx, DWORD PTR [eax+152]
  0001a	e8 00 00 00 00	 call	 ??4?$vector@HV?$allocator@H@std@@@std@@QAEAAV01@ABV01@@Z ; std::vector<int,std::allocator<int> >::operator=
$LN4@SetMedalIt:

; 1162 : 	}
; 1163 : }

  0001f	5d		 pop	 ebp
  00020	c2 08 00	 ret	 8
?SetMedalItemType@ioUserInfoMgr@@QAEXABVioHashString@@AAV?$vector@HV?$allocator@H@std@@@std@@@Z ENDP ; ioUserInfoMgr::SetMedalItemType
_TEXT	ENDS
PUBLIC	?SetGrowthLevel@ioUserInfoMgr@@QAEXABVioHashString@@AAV?$vector@HV?$allocator@H@std@@@std@@@Z ; ioUserInfoMgr::SetGrowthLevel
; Function compile flags: /Ogsp
;	COMDAT ?SetGrowthLevel@ioUserInfoMgr@@QAEXABVioHashString@@AAV?$vector@HV?$allocator@H@std@@@std@@@Z
_TEXT	SEGMENT
_szUserID$ = 8						; size = 4
_rvGrowthLevelVec$ = 12					; size = 4
?SetGrowthLevel@ioUserInfoMgr@@QAEXABVioHashString@@AAV?$vector@HV?$allocator@H@std@@@std@@@Z PROC ; ioUserInfoMgr::SetGrowthLevel, COMDAT
; _this$ = ecx

; 1166 : {

  00000	55		 push	 ebp
  00001	8b ec		 mov	 ebp, esp

; 1167 : 	UserInfoNode *pUserInfoNode = GetUserInfoNode( szUserID, false );

  00003	6a 00		 push	 0
  00005	ff 75 08	 push	 DWORD PTR _szUserID$[ebp]
  00008	e8 00 00 00 00	 call	 ?GetUserInfoNode@ioUserInfoMgr@@QAEPAVUserInfoNode@@ABVioHashString@@_N@Z ; ioUserInfoMgr::GetUserInfoNode

; 1168 : 	if( pUserInfoNode )

  0000d	85 c0		 test	 eax, eax
  0000f	74 0e		 je	 SHORT $LN4@SetGrowthL

; 1169 : 	{
; 1170 : 		pUserInfoNode->SetGrowthLevel( rvGrowthLevelVec );

  00011	ff 75 0c	 push	 DWORD PTR _rvGrowthLevelVec$[ebp]
  00014	8d 88 88 00 00
	00		 lea	 ecx, DWORD PTR [eax+136]
  0001a	e8 00 00 00 00	 call	 ??4?$vector@HV?$allocator@H@std@@@std@@QAEAAV01@ABV01@@Z ; std::vector<int,std::allocator<int> >::operator=
$LN4@SetGrowthL:

; 1171 : 	}
; 1172 : }

  0001f	5d		 pop	 ebp
  00020	c2 08 00	 ret	 8
?SetGrowthLevel@ioUserInfoMgr@@QAEXABVioHashString@@AAV?$vector@HV?$allocator@H@std@@@std@@@Z ENDP ; ioUserInfoMgr::SetGrowthLevel
_TEXT	ENDS
PUBLIC	?SetKillDeathLevel@ioUserInfoMgr@@QAEXABVioHashString@@H@Z ; ioUserInfoMgr::SetKillDeathLevel
; Function compile flags: /Ogsp
;	COMDAT ?SetKillDeathLevel@ioUserInfoMgr@@QAEXABVioHashString@@H@Z
_TEXT	SEGMENT
_szUserID$ = 8						; size = 4
_iKillDeathLevel$ = 12					; size = 4
?SetKillDeathLevel@ioUserInfoMgr@@QAEXABVioHashString@@H@Z PROC ; ioUserInfoMgr::SetKillDeathLevel, COMDAT
; _this$ = ecx

; 1175 : {

  00000	55		 push	 ebp
  00001	8b ec		 mov	 ebp, esp

; 1176 : 	UserInfoNode *pUserInfoNode = GetUserInfoNode( szUserID, false );

  00003	6a 00		 push	 0
  00005	ff 75 08	 push	 DWORD PTR _szUserID$[ebp]
  00008	e8 00 00 00 00	 call	 ?GetUserInfoNode@ioUserInfoMgr@@QAEPAVUserInfoNode@@ABVioHashString@@_N@Z ; ioUserInfoMgr::GetUserInfoNode

; 1177 : 	if( pUserInfoNode )

  0000d	85 c0		 test	 eax, eax
  0000f	74 06		 je	 SHORT $LN4@SetKillDea

; 1178 : 	{
; 1179 : 		pUserInfoNode->SetKillDeathLevel( iKillDeathLevel );

  00011	8b 4d 0c	 mov	 ecx, DWORD PTR _iKillDeathLevel$[ebp]
  00014	89 48 48	 mov	 DWORD PTR [eax+72], ecx
$LN4@SetKillDea:

; 1180 : 	}
; 1181 : }

  00017	5d		 pop	 ebp
  00018	c2 08 00	 ret	 8
?SetKillDeathLevel@ioUserInfoMgr@@QAEXABVioHashString@@H@Z ENDP ; ioUserInfoMgr::SetKillDeathLevel
_TEXT	ENDS
PUBLIC	?SetEquipItem@ioUserInfoMgr@@QAEXABVioHashString@@HQBUITEM_DATA@@@Z ; ioUserInfoMgr::SetEquipItem
; Function compile flags: /Ogsp
;	COMDAT ?SetEquipItem@ioUserInfoMgr@@QAEXABVioHashString@@HQBUITEM_DATA@@@Z
_TEXT	SEGMENT
_szUserID$ = 8						; size = 4
_iClassType$ = 12					; size = 4
_kEquipItem$ = 16					; size = 4
?SetEquipItem@ioUserInfoMgr@@QAEXABVioHashString@@HQBUITEM_DATA@@@Z PROC ; ioUserInfoMgr::SetEquipItem, COMDAT
; _this$ = ecx

; 1195 : {

  00000	55		 push	 ebp
  00001	8b ec		 mov	 ebp, esp

; 1196 : 	UserInfoNode *pUserInfoNode = GetUserInfoNode( szUserID, false );

  00003	6a 00		 push	 0
  00005	ff 75 08	 push	 DWORD PTR _szUserID$[ebp]
  00008	e8 00 00 00 00	 call	 ?GetUserInfoNode@ioUserInfoMgr@@QAEPAVUserInfoNode@@ABVioHashString@@_N@Z ; ioUserInfoMgr::GetUserInfoNode

; 1197 : 	if( pUserInfoNode )

  0000d	85 c0		 test	 eax, eax
  0000f	74 11		 je	 SHORT $LN1@SetEquipIt@2

; 1198 : 	{
; 1199 : 		UserInfoCharData &rkCharData = pUserInfoNode->GetUserCharData();
; 1200 : 		rkCharData.SetEquipItem( iClassType, kEquipItem );

  00011	ff 75 10	 push	 DWORD PTR _kEquipItem$[ebp]
  00014	8d 88 c8 00 00
	00		 lea	 ecx, DWORD PTR [eax+200]
  0001a	ff 75 0c	 push	 DWORD PTR _iClassType$[ebp]
  0001d	e8 00 00 00 00	 call	 ?SetEquipItem@UserInfoCharData@@QAEXHQBUITEM_DATA@@@Z ; UserInfoCharData::SetEquipItem
$LN1@SetEquipIt@2:

; 1201 : 	}
; 1202 : }

  00022	5d		 pop	 ebp
  00023	c2 0c 00	 ret	 12			; 0000000cH
?SetEquipItem@ioUserInfoMgr@@QAEXABVioHashString@@HQBUITEM_DATA@@@Z ENDP ; ioUserInfoMgr::SetEquipItem
_TEXT	ENDS
PUBLIC	?SetEquipMedal@ioUserInfoMgr@@QAEXABVioHashString@@HAAV?$vector@HV?$allocator@H@std@@@std@@@Z ; ioUserInfoMgr::SetEquipMedal
; Function compile flags: /Ogsp
;	COMDAT ?SetEquipMedal@ioUserInfoMgr@@QAEXABVioHashString@@HAAV?$vector@HV?$allocator@H@std@@@std@@@Z
_TEXT	SEGMENT
_szUserID$ = 8						; size = 4
_iClassType$ = 12					; size = 4
_rkEquipMedal$ = 16					; size = 4
?SetEquipMedal@ioUserInfoMgr@@QAEXABVioHashString@@HAAV?$vector@HV?$allocator@H@std@@@std@@@Z PROC ; ioUserInfoMgr::SetEquipMedal, COMDAT
; _this$ = ecx

; 1205 : {

  00000	55		 push	 ebp
  00001	8b ec		 mov	 ebp, esp

; 1206 : 	UserInfoNode *pUserInfoNode = GetUserInfoNode( szUserID, false );

  00003	6a 00		 push	 0
  00005	ff 75 08	 push	 DWORD PTR _szUserID$[ebp]
  00008	e8 00 00 00 00	 call	 ?GetUserInfoNode@ioUserInfoMgr@@QAEPAVUserInfoNode@@ABVioHashString@@_N@Z ; ioUserInfoMgr::GetUserInfoNode

; 1207 : 	if( pUserInfoNode )

  0000d	85 c0		 test	 eax, eax
  0000f	74 11		 je	 SHORT $LN1@SetEquipMe@2

; 1208 : 	{
; 1209 : 		UserInfoCharData &rkCharData = pUserInfoNode->GetUserCharData();
; 1210 : 		rkCharData.SetEquipMedal( iClassType, rkEquipMedal );

  00011	ff 75 10	 push	 DWORD PTR _rkEquipMedal$[ebp]
  00014	8d 88 c8 00 00
	00		 lea	 ecx, DWORD PTR [eax+200]
  0001a	ff 75 0c	 push	 DWORD PTR _iClassType$[ebp]
  0001d	e8 00 00 00 00	 call	 ?SetEquipMedal@UserInfoCharData@@QAEXHAAV?$vector@HV?$allocator@H@std@@@std@@@Z ; UserInfoCharData::SetEquipMedal
$LN1@SetEquipMe@2:

; 1211 : 	}
; 1212 : }

  00022	5d		 pop	 ebp
  00023	c2 0c 00	 ret	 12			; 0000000cH
?SetEquipMedal@ioUserInfoMgr@@QAEXABVioHashString@@HAAV?$vector@HV?$allocator@H@std@@@std@@@Z ENDP ; ioUserInfoMgr::SetEquipMedal
_TEXT	ENDS
PUBLIC	?SetCharGrowth@ioUserInfoMgr@@QAEXABVioHashString@@HQAH1H@Z ; ioUserInfoMgr::SetCharGrowth
; Function compile flags: /Ogsp
;	COMDAT ?SetCharGrowth@ioUserInfoMgr@@QAEXABVioHashString@@HQAH1H@Z
_TEXT	SEGMENT
_szUserID$ = 8						; size = 4
_iClassType$ = 12					; size = 4
_kCharGrowth$ = 16					; size = 4
_kItemGrowth$ = 20					; size = 4
_iAwakeType$ = 24					; size = 4
?SetCharGrowth@ioUserInfoMgr@@QAEXABVioHashString@@HQAH1H@Z PROC ; ioUserInfoMgr::SetCharGrowth, COMDAT
; _this$ = ecx

; 1215 : {

  00000	55		 push	 ebp
  00001	8b ec		 mov	 ebp, esp

; 1216 : 	UserInfoNode *pUserInfoNode = GetUserInfoNode( szUserID, false );

  00003	6a 00		 push	 0
  00005	ff 75 08	 push	 DWORD PTR _szUserID$[ebp]
  00008	e8 00 00 00 00	 call	 ?GetUserInfoNode@ioUserInfoMgr@@QAEPAVUserInfoNode@@ABVioHashString@@_N@Z ; ioUserInfoMgr::GetUserInfoNode

; 1217 : 	if( pUserInfoNode )

  0000d	85 c0		 test	 eax, eax
  0000f	74 17		 je	 SHORT $LN1@SetCharGro@2

; 1218 : 	{
; 1219 : 		UserInfoCharData &rkCharData = pUserInfoNode->GetUserCharData();
; 1220 : 		rkCharData.SetCharGrowth( iClassType, kCharGrowth, kItemGrowth, iAwakeType );

  00011	ff 75 18	 push	 DWORD PTR _iAwakeType$[ebp]
  00014	8d 88 c8 00 00
	00		 lea	 ecx, DWORD PTR [eax+200]
  0001a	ff 75 14	 push	 DWORD PTR _kItemGrowth$[ebp]
  0001d	ff 75 10	 push	 DWORD PTR _kCharGrowth$[ebp]
  00020	ff 75 0c	 push	 DWORD PTR _iClassType$[ebp]
  00023	e8 00 00 00 00	 call	 ?SetCharGrowth@UserInfoCharData@@QAEXHQAH0H@Z ; UserInfoCharData::SetCharGrowth
$LN1@SetCharGro@2:

; 1221 : 	}
; 1222 : }

  00028	5d		 pop	 ebp
  00029	c2 14 00	 ret	 20			; 00000014H
?SetCharGrowth@ioUserInfoMgr@@QAEXABVioHashString@@HQAH1H@Z ENDP ; ioUserInfoMgr::SetCharGrowth
_TEXT	ENDS
PUBLIC	?SetCharAwake@ioUserInfoMgr@@QAEXABVioHashString@@HH@Z ; ioUserInfoMgr::SetCharAwake
; Function compile flags: /Ogsp
;	COMDAT ?SetCharAwake@ioUserInfoMgr@@QAEXABVioHashString@@HH@Z
_TEXT	SEGMENT
_szUserID$ = 8						; size = 4
_iClassType$ = 12					; size = 4
_iAwakeType$ = 16					; size = 4
?SetCharAwake@ioUserInfoMgr@@QAEXABVioHashString@@HH@Z PROC ; ioUserInfoMgr::SetCharAwake, COMDAT
; _this$ = ecx

; 1225 : {

  00000	55		 push	 ebp
  00001	8b ec		 mov	 ebp, esp

; 1226 : 	UserInfoNode *pUserInfoNode = GetUserInfoNode( szUserID, false );

  00003	6a 00		 push	 0
  00005	ff 75 08	 push	 DWORD PTR _szUserID$[ebp]
  00008	e8 00 00 00 00	 call	 ?GetUserInfoNode@ioUserInfoMgr@@QAEPAVUserInfoNode@@ABVioHashString@@_N@Z ; ioUserInfoMgr::GetUserInfoNode

; 1227 : 	if( pUserInfoNode )

  0000d	85 c0		 test	 eax, eax
  0000f	74 11		 je	 SHORT $LN1@SetCharAwa@2

; 1228 : 	{
; 1229 : 		UserInfoCharData &rkCharData = pUserInfoNode->GetUserCharData();
; 1230 : 		rkCharData.SetCharAwake( iClassType, iAwakeType );

  00011	ff 75 10	 push	 DWORD PTR _iAwakeType$[ebp]
  00014	8d 88 c8 00 00
	00		 lea	 ecx, DWORD PTR [eax+200]
  0001a	ff 75 0c	 push	 DWORD PTR _iClassType$[ebp]
  0001d	e8 00 00 00 00	 call	 ?SetCharAwake@UserInfoCharData@@QAEXHH@Z ; UserInfoCharData::SetCharAwake
$LN1@SetCharAwa@2:

; 1231 : 	}
; 1232 : }

  00022	5d		 pop	 ebp
  00023	c2 0c 00	 ret	 12			; 0000000cH
?SetCharAwake@ioUserInfoMgr@@QAEXABVioHashString@@HH@Z ENDP ; ioUserInfoMgr::SetCharAwake
_TEXT	ENDS
PUBLIC	?SetEquipPet@ioUserInfoMgr@@QAEXABVioHashString@@HH@Z ; ioUserInfoMgr::SetEquipPet
; Function compile flags: /Ogsp
;	COMDAT ?SetEquipPet@ioUserInfoMgr@@QAEXABVioHashString@@HH@Z
_TEXT	SEGMENT
_szUserID$ = 8						; size = 4
_nPetCode$ = 12						; size = 4
_nPetLevel$ = 16					; size = 4
?SetEquipPet@ioUserInfoMgr@@QAEXABVioHashString@@HH@Z PROC ; ioUserInfoMgr::SetEquipPet, COMDAT
; _this$ = ecx

; 1235 : {

  00000	55		 push	 ebp
  00001	8b ec		 mov	 ebp, esp

; 1236 : 	UserInfoNode *pUserInfoNode = GetUserInfoNode( szUserID, false );

  00003	6a 00		 push	 0
  00005	ff 75 08	 push	 DWORD PTR _szUserID$[ebp]
  00008	e8 00 00 00 00	 call	 ?GetUserInfoNode@ioUserInfoMgr@@QAEPAVUserInfoNode@@ABVioHashString@@_N@Z ; ioUserInfoMgr::GetUserInfoNode

; 1237 : 	if( pUserInfoNode )

  0000d	85 c0		 test	 eax, eax
  0000f	74 12		 je	 SHORT $LN6@SetEquipPe

; 1238 : 	{
; 1239 : 		pUserInfoNode->SetPetCode( nPetCode );

  00011	8b 4d 0c	 mov	 ecx, DWORD PTR _nPetCode$[ebp]
  00014	89 88 b0 00 00
	00		 mov	 DWORD PTR [eax+176], ecx

; 1240 : 		pUserInfoNode->SetPetLevel( nPetLevel );

  0001a	8b 4d 10	 mov	 ecx, DWORD PTR _nPetLevel$[ebp]
  0001d	89 88 b4 00 00
	00		 mov	 DWORD PTR [eax+180], ecx
$LN6@SetEquipPe:

; 1241 : 	}
; 1242 : }

  00023	5d		 pop	 ebp
  00024	c2 0c 00	 ret	 12			; 0000000cH
?SetEquipPet@ioUserInfoMgr@@QAEXABVioHashString@@HH@Z ENDP ; ioUserInfoMgr::SetEquipPet
_TEXT	ENDS
PUBLIC	?SetCharPowerUp@ioUserInfoMgr@@QAEXABVioHashString@@HH@Z ; ioUserInfoMgr::SetCharPowerUp
; Function compile flags: /Ogsp
;	COMDAT ?SetCharPowerUp@ioUserInfoMgr@@QAEXABVioHashString@@HH@Z
_TEXT	SEGMENT
_szUserID$ = 8						; size = 4
_iClassType$ = 12					; size = 4
_iCharPowerUpGrade$ = 16				; size = 4
?SetCharPowerUp@ioUserInfoMgr@@QAEXABVioHashString@@HH@Z PROC ; ioUserInfoMgr::SetCharPowerUp, COMDAT
; _this$ = ecx

; 1245 : {

  00000	55		 push	 ebp
  00001	8b ec		 mov	 ebp, esp

; 1246 : 	UserInfoNode *pUserInfoNode = GetUserInfoNode( szUserID, false );

  00003	6a 00		 push	 0
  00005	ff 75 08	 push	 DWORD PTR _szUserID$[ebp]
  00008	e8 00 00 00 00	 call	 ?GetUserInfoNode@ioUserInfoMgr@@QAEPAVUserInfoNode@@ABVioHashString@@_N@Z ; ioUserInfoMgr::GetUserInfoNode

; 1247 : 	if( pUserInfoNode )

  0000d	85 c0		 test	 eax, eax
  0000f	74 11		 je	 SHORT $LN1@SetCharPow@2

; 1248 : 	{
; 1249 : 		UserInfoCharData &rkCharData = pUserInfoNode->GetUserCharData();
; 1250 : 		rkCharData.SetCharPowerUp( iClassType, iCharPowerUpGrade );

  00011	ff 75 10	 push	 DWORD PTR _iCharPowerUpGrade$[ebp]
  00014	8d 88 c8 00 00
	00		 lea	 ecx, DWORD PTR [eax+200]
  0001a	ff 75 0c	 push	 DWORD PTR _iClassType$[ebp]
  0001d	e8 00 00 00 00	 call	 ?SetCharPowerUp@UserInfoCharData@@QAEXHH@Z ; UserInfoCharData::SetCharPowerUp
$LN1@SetCharPow@2:

; 1251 : 	}
; 1252 : }

  00022	5d		 pop	 ebp
  00023	c2 0c 00	 ret	 12			; 0000000cH
?SetCharPowerUp@ioUserInfoMgr@@QAEXABVioHashString@@HH@Z ENDP ; ioUserInfoMgr::SetCharPowerUp
_TEXT	ENDS
PUBLIC	?SetLeaderMotion@ioUserInfoMgr@@QAEXABVioHashString@@K@Z ; ioUserInfoMgr::SetLeaderMotion
; Function compile flags: /Ogsp
;	COMDAT ?SetLeaderMotion@ioUserInfoMgr@@QAEXABVioHashString@@K@Z
_TEXT	SEGMENT
_szUserID$ = 8						; size = 4
_dwEtcItem$ = 12					; size = 4
?SetLeaderMotion@ioUserInfoMgr@@QAEXABVioHashString@@K@Z PROC ; ioUserInfoMgr::SetLeaderMotion, COMDAT
; _this$ = ecx

; 1255 : {

  00000	55		 push	 ebp
  00001	8b ec		 mov	 ebp, esp

; 1256 : 	UserInfoNode *pUserInfoNode = GetUserInfoNode( szUserID, false );

  00003	6a 00		 push	 0
  00005	ff 75 08	 push	 DWORD PTR _szUserID$[ebp]
  00008	e8 00 00 00 00	 call	 ?GetUserInfoNode@ioUserInfoMgr@@QAEPAVUserInfoNode@@ABVioHashString@@_N@Z ; ioUserInfoMgr::GetUserInfoNode

; 1257 : 	if( pUserInfoNode )

  0000d	85 c0		 test	 eax, eax
  0000f	74 16		 je	 SHORT $LN6@SetLeaderM

; 1258 : 	{
; 1259 : 		UserInfoCharData &rkCharData = pUserInfoNode->GetUserCharData();
; 1260 : 		rkCharData.SetLeaderMotion( dwEtcItem );

  00011	8b 4d 0c	 mov	 ecx, DWORD PTR _dwEtcItem$[ebp]
  00014	89 88 9c 04 00
	00		 mov	 DWORD PTR [eax+1180], ecx
  0001a	89 88 dc 00 00
	00		 mov	 DWORD PTR [eax+220], ecx
  00020	c6 80 94 04 00
	00 01		 mov	 BYTE PTR [eax+1172], 1
$LN6@SetLeaderM:

; 1261 : 	}
; 1262 : }

  00027	5d		 pop	 ebp
  00028	c2 08 00	 ret	 8
?SetLeaderMotion@ioUserInfoMgr@@QAEXABVioHashString@@K@Z ENDP ; ioUserInfoMgr::SetLeaderMotion
_TEXT	ENDS
PUBLIC	?DeleteCharData@ioUserInfoMgr@@QAEXABVioHashString@@H@Z ; ioUserInfoMgr::DeleteCharData
; Function compile flags: /Ogsp
;	COMDAT ?DeleteCharData@ioUserInfoMgr@@QAEXABVioHashString@@H@Z
_TEXT	SEGMENT
_szUserID$ = 8						; size = 4
_iClassType$ = 12					; size = 4
?DeleteCharData@ioUserInfoMgr@@QAEXABVioHashString@@H@Z PROC ; ioUserInfoMgr::DeleteCharData, COMDAT
; _this$ = ecx

; 1265 : {

  00000	55		 push	 ebp
  00001	8b ec		 mov	 ebp, esp

; 1266 : 	UserInfoNode *pUserInfoNode = GetUserInfoNode( szUserID, false );

  00003	6a 00		 push	 0
  00005	ff 75 08	 push	 DWORD PTR _szUserID$[ebp]
  00008	e8 00 00 00 00	 call	 ?GetUserInfoNode@ioUserInfoMgr@@QAEPAVUserInfoNode@@ABVioHashString@@_N@Z ; ioUserInfoMgr::GetUserInfoNode

; 1267 : 	if( pUserInfoNode )

  0000d	85 c0		 test	 eax, eax
  0000f	74 0e		 je	 SHORT $LN1@DeleteChar@2

; 1268 : 	{
; 1269 : 		UserInfoCharData &rkCharData = pUserInfoNode->GetUserCharData();
; 1270 : 		rkCharData.DeleteCharData( iClassType );

  00011	ff 75 0c	 push	 DWORD PTR _iClassType$[ebp]
  00014	8d 88 c8 00 00
	00		 lea	 ecx, DWORD PTR [eax+200]
  0001a	e8 00 00 00 00	 call	 ?DeleteCharData@UserInfoCharData@@QAEXH@Z ; UserInfoCharData::DeleteCharData
$LN1@DeleteChar@2:

; 1271 : 	}
; 1272 : }

  0001f	5d		 pop	 ebp
  00020	c2 08 00	 ret	 8
?DeleteCharData@ioUserInfoMgr@@QAEXABVioHashString@@H@Z ENDP ; ioUserInfoMgr::DeleteCharData
_TEXT	ENDS
PUBLIC	?GetUserBlockType@ioUserInfoMgr@@QAE?AW4BlockType@@ABVioHashString@@@Z ; ioUserInfoMgr::GetUserBlockType
; Function compile flags: /Ogsp
;	COMDAT ?GetUserBlockType@ioUserInfoMgr@@QAE?AW4BlockType@@ABVioHashString@@@Z
_TEXT	SEGMENT
_szID$ = 8						; size = 4
?GetUserBlockType@ioUserInfoMgr@@QAE?AW4BlockType@@ABVioHashString@@@Z PROC ; ioUserInfoMgr::GetUserBlockType, COMDAT
; _this$ = ecx

; 1275 : {

  00000	55		 push	 ebp
  00001	8b ec		 mov	 ebp, esp

; 1276 : 	UserInfoNode *pUserInfoNode = GetUserInfoNode( szID, false );

  00003	6a 00		 push	 0
  00005	ff 75 08	 push	 DWORD PTR _szID$[ebp]
  00008	e8 00 00 00 00	 call	 ?GetUserInfoNode@ioUserInfoMgr@@QAEPAVUserInfoNode@@ABVioHashString@@_N@Z ; ioUserInfoMgr::GetUserInfoNode

; 1277 : 	if( pUserInfoNode )

  0000d	85 c0		 test	 eax, eax
  0000f	74 05		 je	 SHORT $LN1@GetUserBlo

; 1278 : 		return pUserInfoNode->GetBlockType();

  00011	8b 40 6c	 mov	 eax, DWORD PTR [eax+108]
  00014	eb 03		 jmp	 SHORT $LN2@GetUserBlo
$LN1@GetUserBlo:

; 1279 : 
; 1280 : 	return BKT_NONE;

  00016	83 c8 ff	 or	 eax, -1
$LN2@GetUserBlo:

; 1281 : }

  00019	5d		 pop	 ebp
  0001a	c2 04 00	 ret	 4
?GetUserBlockType@ioUserInfoMgr@@QAE?AW4BlockType@@ABVioHashString@@@Z ENDP ; ioUserInfoMgr::GetUserBlockType
_TEXT	ENDS
PUBLIC	?GetGuildIndex@ioUserInfoMgr@@QAEKABVioHashString@@@Z ; ioUserInfoMgr::GetGuildIndex
; Function compile flags: /Ogsp
;	COMDAT ?GetGuildIndex@ioUserInfoMgr@@QAEKABVioHashString@@@Z
_TEXT	SEGMENT
_szID$ = 8						; size = 4
?GetGuildIndex@ioUserInfoMgr@@QAEKABVioHashString@@@Z PROC ; ioUserInfoMgr::GetGuildIndex, COMDAT
; _this$ = ecx

; 1284 : {

  00000	55		 push	 ebp
  00001	8b ec		 mov	 ebp, esp

; 1285 : 	UserInfoNode *pUserInfoNode = GetUserInfoNode( szID, false );

  00003	6a 00		 push	 0
  00005	ff 75 08	 push	 DWORD PTR _szID$[ebp]
  00008	e8 00 00 00 00	 call	 ?GetUserInfoNode@ioUserInfoMgr@@QAEPAVUserInfoNode@@ABVioHashString@@_N@Z ; ioUserInfoMgr::GetUserInfoNode

; 1286 : 	if( pUserInfoNode )

  0000d	85 c0		 test	 eax, eax
  0000f	74 08		 je	 SHORT $LN1@GetGuildIn

; 1287 : 		return pUserInfoNode->GetGuildIndex();

  00011	8b 80 80 00 00
	00		 mov	 eax, DWORD PTR [eax+128]
  00017	eb 02		 jmp	 SHORT $LN2@GetGuildIn
$LN1@GetGuildIn:

; 1288 : 
; 1289 : 	return 0;

  00019	33 c0		 xor	 eax, eax
$LN2@GetGuildIn:

; 1290 : }

  0001b	5d		 pop	 ebp
  0001c	c2 04 00	 ret	 4
?GetGuildIndex@ioUserInfoMgr@@QAEKABVioHashString@@@Z ENDP ; ioUserInfoMgr::GetGuildIndex
_TEXT	ENDS
PUBLIC	?GetGuildMark@ioUserInfoMgr@@QAEKABVioHashString@@@Z ; ioUserInfoMgr::GetGuildMark
; Function compile flags: /Ogsp
;	COMDAT ?GetGuildMark@ioUserInfoMgr@@QAEKABVioHashString@@@Z
_TEXT	SEGMENT
_szID$ = 8						; size = 4
?GetGuildMark@ioUserInfoMgr@@QAEKABVioHashString@@@Z PROC ; ioUserInfoMgr::GetGuildMark, COMDAT
; _this$ = ecx

; 1293 : {

  00000	55		 push	 ebp
  00001	8b ec		 mov	 ebp, esp

; 1294 : 	UserInfoNode *pUserInfoNode = GetUserInfoNode( szID, false );

  00003	6a 00		 push	 0
  00005	ff 75 08	 push	 DWORD PTR _szID$[ebp]
  00008	e8 00 00 00 00	 call	 ?GetUserInfoNode@ioUserInfoMgr@@QAEPAVUserInfoNode@@ABVioHashString@@_N@Z ; ioUserInfoMgr::GetUserInfoNode

; 1295 : 	if( pUserInfoNode )

  0000d	85 c0		 test	 eax, eax
  0000f	74 09		 je	 SHORT $LN1@GetGuildMa@2

; 1296 : 		return pUserInfoNode->GetGuildMark();

  00011	8b c8		 mov	 ecx, eax
  00013	e8 00 00 00 00	 call	 ?GetGuildMark@UserInfoNode@@QAEKXZ ; UserInfoNode::GetGuildMark
  00018	eb 02		 jmp	 SHORT $LN2@GetGuildMa@2
$LN1@GetGuildMa@2:

; 1297 : 
; 1298 : 	return 0;

  0001a	33 c0		 xor	 eax, eax
$LN2@GetGuildMa@2:

; 1299 : }

  0001c	5d		 pop	 ebp
  0001d	c2 04 00	 ret	 4
?GetGuildMark@ioUserInfoMgr@@QAEKABVioHashString@@@Z ENDP ; ioUserInfoMgr::GetGuildMark
_TEXT	ENDS
PUBLIC	?GetGuildInfo@ioUserInfoMgr@@QAEXABVioHashString@@AAK1@Z ; ioUserInfoMgr::GetGuildInfo
; Function compile flags: /Ogsp
;	COMDAT ?GetGuildInfo@ioUserInfoMgr@@QAEXABVioHashString@@AAK1@Z
_TEXT	SEGMENT
_szID$ = 8						; size = 4
_dwGuildIndex$ = 12					; size = 4
_dwGuildMark$ = 16					; size = 4
?GetGuildInfo@ioUserInfoMgr@@QAEXABVioHashString@@AAK1@Z PROC ; ioUserInfoMgr::GetGuildInfo, COMDAT
; _this$ = ecx

; 1302 : {

  00000	55		 push	 ebp
  00001	8b ec		 mov	 ebp, esp
  00003	56		 push	 esi

; 1303 : 	dwGuildIndex = dwGuildMark = 0;

  00004	8b 75 10	 mov	 esi, DWORD PTR _dwGuildMark$[ebp]
  00007	83 26 00	 and	 DWORD PTR [esi], 0
  0000a	57		 push	 edi
  0000b	8b 7d 0c	 mov	 edi, DWORD PTR _dwGuildIndex$[ebp]
  0000e	83 27 00	 and	 DWORD PTR [edi], 0

; 1304 : 	UserInfoNode *pUserInfoNode = GetUserInfoNode( szID, false );

  00011	6a 00		 push	 0
  00013	ff 75 08	 push	 DWORD PTR _szID$[ebp]
  00016	e8 00 00 00 00	 call	 ?GetUserInfoNode@ioUserInfoMgr@@QAEPAVUserInfoNode@@ABVioHashString@@_N@Z ; ioUserInfoMgr::GetUserInfoNode

; 1305 : 	if( pUserInfoNode )

  0001b	85 c0		 test	 eax, eax
  0001d	74 11		 je	 SHORT $LN1@GetGuildIn@2

; 1306 : 	{
; 1307 : 		dwGuildIndex = pUserInfoNode->GetGuildIndex();

  0001f	8b 88 80 00 00
	00		 mov	 ecx, DWORD PTR [eax+128]
  00025	89 0f		 mov	 DWORD PTR [edi], ecx

; 1308 : 		dwGuildMark  = pUserInfoNode->GetGuildMark();

  00027	8b c8		 mov	 ecx, eax
  00029	e8 00 00 00 00	 call	 ?GetGuildMark@UserInfoNode@@QAEKXZ ; UserInfoNode::GetGuildMark
  0002e	89 06		 mov	 DWORD PTR [esi], eax
$LN1@GetGuildIn@2:
  00030	5f		 pop	 edi
  00031	5e		 pop	 esi

; 1309 : 	}
; 1310 : }

  00032	5d		 pop	 ebp
  00033	c2 0c 00	 ret	 12			; 0000000cH
?GetGuildInfo@ioUserInfoMgr@@QAEXABVioHashString@@AAK1@Z ENDP ; ioUserInfoMgr::GetGuildInfo
_TEXT	ENDS
PUBLIC	?GetLadderPoint@ioUserInfoMgr@@QAEHABVioHashString@@@Z ; ioUserInfoMgr::GetLadderPoint
; Function compile flags: /Ogsp
;	COMDAT ?GetLadderPoint@ioUserInfoMgr@@QAEHABVioHashString@@@Z
_TEXT	SEGMENT
_szID$ = 8						; size = 4
?GetLadderPoint@ioUserInfoMgr@@QAEHABVioHashString@@@Z PROC ; ioUserInfoMgr::GetLadderPoint, COMDAT
; _this$ = ecx

; 1313 : {

  00000	55		 push	 ebp
  00001	8b ec		 mov	 ebp, esp

; 1314 : 	UserInfoNode *pUserInfoNode = GetUserInfoNode( szID, false );

  00003	6a 00		 push	 0
  00005	ff 75 08	 push	 DWORD PTR _szID$[ebp]
  00008	e8 00 00 00 00	 call	 ?GetUserInfoNode@ioUserInfoMgr@@QAEPAVUserInfoNode@@ABVioHashString@@_N@Z ; ioUserInfoMgr::GetUserInfoNode

; 1315 : 	if( pUserInfoNode )

  0000d	85 c0		 test	 eax, eax
  0000f	74 05		 je	 SHORT $LN1@GetLadderP

; 1316 : 		return pUserInfoNode->GetLadderPoint();

  00011	8b 40 74	 mov	 eax, DWORD PTR [eax+116]
  00014	eb 02		 jmp	 SHORT $LN2@GetLadderP
$LN1@GetLadderP:

; 1317 : 
; 1318 : 	return 0;

  00016	33 c0		 xor	 eax, eax
$LN2@GetLadderP:

; 1319 : }

  00018	5d		 pop	 ebp
  00019	c2 04 00	 ret	 4
?GetLadderPoint@ioUserInfoMgr@@QAEHABVioHashString@@@Z ENDP ; ioUserInfoMgr::GetLadderPoint
_TEXT	ENDS
PUBLIC	?GetCampPosition@ioUserInfoMgr@@QAEHABVioHashString@@@Z ; ioUserInfoMgr::GetCampPosition
; Function compile flags: /Ogsp
;	COMDAT ?GetCampPosition@ioUserInfoMgr@@QAEHABVioHashString@@@Z
_TEXT	SEGMENT
_szID$ = 8						; size = 4
?GetCampPosition@ioUserInfoMgr@@QAEHABVioHashString@@@Z PROC ; ioUserInfoMgr::GetCampPosition, COMDAT
; _this$ = ecx

; 1322 : {

  00000	55		 push	 ebp
  00001	8b ec		 mov	 ebp, esp

; 1323 : 	UserInfoNode *pUserInfoNode = GetUserInfoNode( szID, false );

  00003	6a 00		 push	 0
  00005	ff 75 08	 push	 DWORD PTR _szID$[ebp]
  00008	e8 00 00 00 00	 call	 ?GetUserInfoNode@ioUserInfoMgr@@QAEPAVUserInfoNode@@ABVioHashString@@_N@Z ; ioUserInfoMgr::GetUserInfoNode

; 1324 : 	if( pUserInfoNode )

  0000d	85 c0		 test	 eax, eax
  0000f	74 05		 je	 SHORT $LN1@GetCampPos

; 1325 : 		return pUserInfoNode->GetCampPosition();

  00011	8b 40 78	 mov	 eax, DWORD PTR [eax+120]
  00014	eb 02		 jmp	 SHORT $LN2@GetCampPos
$LN1@GetCampPos:

; 1326 : 
; 1327 : 	return 0;

  00016	33 c0		 xor	 eax, eax
$LN2@GetCampPos:

; 1328 : }

  00018	5d		 pop	 ebp
  00019	c2 04 00	 ret	 4
?GetCampPosition@ioUserInfoMgr@@QAEHABVioHashString@@@Z ENDP ; ioUserInfoMgr::GetCampPosition
_TEXT	ENDS
PUBLIC	??_C@_0BK@CPOHJPNL@ioUserInfoMgr?3?3TestRender?$AA@ ; `string'
PUBLIC	??_C@_00CNPNBAHC@?$AA@				; `string'
PUBLIC	?TestRender@ioUserInfoMgr@@QAEXHH@Z		; ioUserInfoMgr::TestRender
EXTRN	__imp_?Clear@ioHashString@@QAEXXZ:PROC
EXTRN	__imp_?PrintText@ioFontManager@@QAEXMMMPBDI@Z:PROC
EXTRN	__imp_?PrintText@ioFontManager@@QAEXMMMPBDH@Z:PROC
EXTRN	__imp_?PrintText@ioFontManager@@QAEXMMMPBDHH@Z:PROC
EXTRN	__imp_?PrintText@ioFontManager@@QAEXMMMPBD0HH@Z:PROC
EXTRN	__imp_?GetString@ioStringManager@@QAEPADPBD0HW4FileNamePrefix@1@@Z:PROC
EXTRN	__imp_?GetSingleton@ioStringManager@@SAAAV1@XZ:PROC
EXTRN	__imp_?c_str@ioHashString@@QBEPBDXZ:PROC
EXTRN	__imp_?SetTextColor@ioFontManager@@QAEXK@Z:PROC
EXTRN	__imp_?SetBkColor@ioFontManager@@QAEXHHH@Z:PROC
EXTRN	__imp_?SetTextStyle@ioFontManager@@QAEXW4TextStyle@@@Z:PROC
EXTRN	__imp_?SetAlignType@ioFontManager@@QAEXW4TextAlignType@@@Z:PROC
EXTRN	__imp_?GetSingleton@ioFontManager@@SAAAV1@XZ:PROC
;	COMDAT ??_C@_0BK@CPOHJPNL@ioUserInfoMgr?3?3TestRender?$AA@
; File d:\lost saga for developer\youtube\tutorial\source\src\lsclient\stdafx.h
CONST	SEGMENT
??_C@_0BK@CPOHJPNL@ioUserInfoMgr?3?3TestRender?$AA@ DB 'ioUserInfoMgr::Te'
	DB	'stRender', 00H				; `string'
CONST	ENDS
;	COMDAT ??_C@_00CNPNBAHC@?$AA@
CONST	SEGMENT
??_C@_00CNPNBAHC@?$AA@ DB 00H				; `string'
; Function compile flags: /Ogsp
; File d:\lost saga for developer\youtube\tutorial\source\src\lsclient\gui\iouserinfomgr.cpp
CONST	ENDS
;	COMDAT ?TestRender@ioUserInfoMgr@@QAEXHH@Z
_TEXT	SEGMENT
tv352 = -20						; size = 4
tv318 = -16						; size = 4
tv314 = -16						; size = 4
tv310 = -16						; size = 4
$T525252 = -16						; size = 4
_this$ = -16						; size = 4
tv397 = -12						; size = 4
tv393 = -12						; size = 4
tv371 = -12						; size = 4
tv367 = -12						; size = 4
tv354 = -12						; size = 4
tv339 = -12						; size = 4
tv335 = -12						; size = 4
tv331 = -12						; size = 4
tv220 = -12						; size = 4
tv147 = -12						; size = 4
$T525256 = -12						; size = 4
$T525239 = -12						; size = 4
$T525223 = -12						; size = 4
$T525219 = -12						; size = 4
tv389 = -8						; size = 4
tv376 = -8						; size = 4
$T525243 = -8						; size = 4
$T525227 = -8						; size = 4
$T525211 = -8						; size = 4
$T525207 = -8						; size = 4
$T525231 = -4						; size = 4
$T525215 = -4						; size = 4
$T525203 = -4						; size = 4
tv374 = 8						; size = 4
_iXPos$ = 8						; size = 4
_iYPos$ = 12						; size = 4
?TestRender@ioUserInfoMgr@@QAEXHH@Z PROC		; ioUserInfoMgr::TestRender, COMDAT
; _this$ = ecx

; 1331 : {

  00000	55		 push	 ebp
  00001	8b ec		 mov	 ebp, esp
  00003	83 ec 14	 sub	 esp, 20			; 00000014H
  00006	56		 push	 esi
  00007	8b f1		 mov	 esi, ecx
  00009	57		 push	 edi

; 1332 : 	if( m_szOverUserID.IsEmpty() ) return;

  0000a	8d 7e 14	 lea	 edi, DWORD PTR [esi+20]
  0000d	8b cf		 mov	 ecx, edi
  0000f	89 75 f0	 mov	 DWORD PTR _this$[ebp], esi
  00012	89 7d ec	 mov	 DWORD PTR tv352[ebp], edi
  00015	ff 15 00 00 00
	00		 call	 DWORD PTR __imp_?IsEmpty@ioHashString@@QBE_NXZ
  0001b	84 c0		 test	 al, al
  0001d	0f 85 2e 03 00
	00		 jne	 $LN3@TestRender

; 1333 : 
; 1334 : 	UserInfoNode *pUserInfoNode = GetUserInfoNode( m_szOverUserID );

  00023	53		 push	 ebx
  00024	6a 01		 push	 1
  00026	57		 push	 edi
  00027	8b ce		 mov	 ecx, esi
  00029	e8 00 00 00 00	 call	 ?GetUserInfoNode@ioUserInfoMgr@@QAEPAVUserInfoNode@@ABVioHashString@@_N@Z ; ioUserInfoMgr::GetUserInfoNode
  0002e	8b f8		 mov	 edi, eax

; 1335 : 	if( !pUserInfoNode ) return;

  00030	33 db		 xor	 ebx, ebx
  00032	3b fb		 cmp	 edi, ebx
  00034	0f 84 16 03 00
	00		 je	 $LN39@TestRender

; 1336 : 
; 1337 : 	g_FontMgr.SetAlignType( TAT_LEFT );

  0003a	8b 35 00 00 00
	00		 mov	 esi, DWORD PTR __imp_?GetSingleton@ioFontManager@@SAAAV1@XZ
  00040	53		 push	 ebx
  00041	ff d6		 call	 esi
  00043	8b c8		 mov	 ecx, eax
  00045	ff 15 00 00 00
	00		 call	 DWORD PTR __imp_?SetAlignType@ioFontManager@@QAEXW4TextAlignType@@@Z

; 1338 : 	g_FontMgr.SetTextStyle( TS_NORMAL );

  0004b	53		 push	 ebx
  0004c	ff d6		 call	 esi
  0004e	8b c8		 mov	 ecx, eax
  00050	ff 15 00 00 00
	00		 call	 DWORD PTR __imp_?SetTextStyle@ioFontManager@@QAEXW4TextStyle@@@Z

; 1339 : 	g_FontMgr.SetBkColor( 0, 0, 0 );

  00056	53		 push	 ebx
  00057	53		 push	 ebx
  00058	53		 push	 ebx
  00059	ff d6		 call	 esi
  0005b	8b c8		 mov	 ecx, eax
  0005d	ff 15 00 00 00
	00		 call	 DWORD PTR __imp_?SetBkColor@ioFontManager@@QAEXHHH@Z

; 1340 : 	g_FontMgr.SetTextColor( TCT_DEFAULT_GRAY );

  00063	68 6e 6e 6e ff	 push	 -9539986		; ff6e6e6eH
  00068	ff d6		 call	 esi
  0006a	8b c8		 mov	 ecx, eax
  0006c	ff 15 00 00 00
	00		 call	 DWORD PTR __imp_?SetTextColor@ioFontManager@@QAEXK@Z

; 1341 : 	g_FontMgr.PrintText( iXPos + 10, iYPos + 10, FLOAT05, STR(1), pUserInfoNode->GetUserID().c_str(), pUserInfoNode->GetGradeLevel(), pUserInfoNode->GetGradeExp() );

  00072	8b 4f 1c	 mov	 ecx, DWORD PTR [edi+28]
  00075	8b 57 18	 mov	 edx, DWORD PTR [edi+24]
  00078	b8 05 00 00 00	 mov	 eax, 5
  0007d	89 45 fc	 mov	 DWORD PTR $T525203[ebp], eax
  00080	b8 0a 00 00 00	 mov	 eax, 10			; 0000000aH
  00085	89 45 f8	 mov	 DWORD PTR $T525207[ebp], eax
  00088	8b 45 08	 mov	 eax, DWORD PTR _iXPos$[ebp]
  0008b	51		 push	 ecx
  0008c	83 c0 0a	 add	 eax, 10			; 0000000aH
  0008f	0f 57 c0	 xorps	 xmm0, xmm0
  00092	f3 0f 2a c0	 cvtsi2ss xmm0, eax
  00096	52		 push	 edx
  00097	8d 4f 08	 lea	 ecx, DWORD PTR [edi+8]
  0009a	f3 0f 11 45 08	 movss	 DWORD PTR tv374[ebp], xmm0
  0009f	ff 15 00 00 00
	00		 call	 DWORD PTR __imp_?c_str@ioHashString@@QBEPBDXZ
  000a5	50		 push	 eax
  000a6	53		 push	 ebx
  000a7	8b 1d 00 00 00
	00		 mov	 ebx, DWORD PTR __imp_?GetSingleton@ioStringManager@@SAAAV1@XZ
  000ad	6a 01		 push	 1
  000af	68 00 00 00 00	 push	 OFFSET ??_C@_00CNPNBAHC@?$AA@
  000b4	68 00 00 00 00	 push	 OFFSET ??_C@_0BK@CPOHJPNL@ioUserInfoMgr?3?3TestRender?$AA@
  000b9	ff d3		 call	 ebx
  000bb	8b c8		 mov	 ecx, eax
  000bd	ff 15 00 00 00
	00		 call	 DWORD PTR __imp_?GetString@ioStringManager@@QAEPADPBD0HW4FileNamePrefix@1@@Z
  000c3	db 45 fc	 fild	 DWORD PTR $T525203[ebp]
  000c6	50		 push	 eax
  000c7	8b 45 fc	 mov	 eax, DWORD PTR $T525203[ebp]
  000ca	85 c0		 test	 eax, eax
  000cc	79 06		 jns	 SHORT $LN40@TestRender
  000ce	d8 05 00 00 00
	00		 fadd	 DWORD PTR __real@4f800000
$LN40@TestRender:
  000d4	8b 45 f8	 mov	 eax, DWORD PTR $T525207[ebp]
  000d7	db 45 f8	 fild	 DWORD PTR $T525207[ebp]
  000da	85 c0		 test	 eax, eax
  000dc	79 06		 jns	 SHORT $LN41@TestRender
  000de	d8 05 00 00 00
	00		 fadd	 DWORD PTR __real@4f800000
$LN41@TestRender:
  000e4	de f9		 fdivp	 ST(1), ST(0)
  000e6	8b 45 0c	 mov	 eax, DWORD PTR _iYPos$[ebp]
  000e9	83 ec 0c	 sub	 esp, 12			; 0000000cH
  000ec	83 c0 0a	 add	 eax, 10			; 0000000aH
  000ef	0f 57 c0	 xorps	 xmm0, xmm0
  000f2	f3 0f 2a c0	 cvtsi2ss xmm0, eax
  000f6	d9 5d f8	 fstp	 DWORD PTR tv389[ebp]
  000f9	d9 45 f8	 fld	 DWORD PTR tv389[ebp]
  000fc	d9 5c 24 08	 fstp	 DWORD PTR [esp+8]
  00100	f3 0f 11 44 24
	04		 movss	 DWORD PTR [esp+4], xmm0
  00106	f3 0f 10 45 08	 movss	 xmm0, DWORD PTR tv374[ebp]
  0010b	f3 0f 11 04 24	 movss	 DWORD PTR [esp], xmm0
  00110	ff d6		 call	 esi
  00112	8b c8		 mov	 ecx, eax
  00114	ff 15 00 00 00
	00		 call	 DWORD PTR __imp_?PrintText@ioFontManager@@QAEXMMMPBD0HH@Z

; 1342 : 	g_FontMgr.PrintText( iXPos + 10, iYPos + 24, FLOAT05, STR(2), pUserInfoNode->GetPartyLevel(), pUserInfoNode->GetPartyExp() );	

  0011a	8b 47 20	 mov	 eax, DWORD PTR [edi+32]
  0011d	89 45 f8	 mov	 DWORD PTR $T525211[ebp], eax
  00120	b8 05 00 00 00	 mov	 eax, 5
  00125	89 45 fc	 mov	 DWORD PTR $T525215[ebp], eax
  00128	b8 0a 00 00 00	 mov	 eax, 10			; 0000000aH
  0012d	8b cf		 mov	 ecx, edi
  0012f	89 45 f4	 mov	 DWORD PTR $T525219[ebp], eax
  00132	e8 00 00 00 00	 call	 ?GetPartyExp@UserInfoNode@@QAEHXZ ; UserInfoNode::GetPartyExp
  00137	50		 push	 eax
  00138	ff 75 f8	 push	 DWORD PTR $T525211[ebp]
  0013b	6a 00		 push	 0
  0013d	6a 02		 push	 2
  0013f	68 00 00 00 00	 push	 OFFSET ??_C@_00CNPNBAHC@?$AA@
  00144	68 00 00 00 00	 push	 OFFSET ??_C@_0BK@CPOHJPNL@ioUserInfoMgr?3?3TestRender?$AA@
  00149	ff d3		 call	 ebx
  0014b	8b c8		 mov	 ecx, eax
  0014d	ff 15 00 00 00
	00		 call	 DWORD PTR __imp_?GetString@ioStringManager@@QAEPADPBD0HW4FileNamePrefix@1@@Z
  00153	db 45 fc	 fild	 DWORD PTR $T525215[ebp]
  00156	50		 push	 eax
  00157	8b 45 fc	 mov	 eax, DWORD PTR $T525215[ebp]
  0015a	85 c0		 test	 eax, eax
  0015c	79 06		 jns	 SHORT $LN42@TestRender
  0015e	d8 05 00 00 00
	00		 fadd	 DWORD PTR __real@4f800000
$LN42@TestRender:
  00164	8b 45 f4	 mov	 eax, DWORD PTR $T525219[ebp]
  00167	db 45 f4	 fild	 DWORD PTR $T525219[ebp]
  0016a	85 c0		 test	 eax, eax
  0016c	79 06		 jns	 SHORT $LN43@TestRender
  0016e	d8 05 00 00 00
	00		 fadd	 DWORD PTR __real@4f800000
$LN43@TestRender:
  00174	de f9		 fdivp	 ST(1), ST(0)
  00176	8b 45 0c	 mov	 eax, DWORD PTR _iYPos$[ebp]
  00179	83 ec 0c	 sub	 esp, 12			; 0000000cH
  0017c	83 c0 18	 add	 eax, 24			; 00000018H
  0017f	0f 57 c0	 xorps	 xmm0, xmm0
  00182	f3 0f 2a c0	 cvtsi2ss xmm0, eax
  00186	d9 5d f4	 fstp	 DWORD PTR tv367[ebp]
  00189	d9 45 f4	 fld	 DWORD PTR tv367[ebp]
  0018c	d9 5c 24 08	 fstp	 DWORD PTR [esp+8]
  00190	f3 0f 11 44 24
	04		 movss	 DWORD PTR [esp+4], xmm0
  00196	f3 0f 10 45 08	 movss	 xmm0, DWORD PTR tv374[ebp]
  0019b	f3 0f 11 04 24	 movss	 DWORD PTR [esp], xmm0
  001a0	ff d6		 call	 esi
  001a2	8b c8		 mov	 ecx, eax
  001a4	ff 15 00 00 00
	00		 call	 DWORD PTR __imp_?PrintText@ioFontManager@@QAEXMMMPBDHH@Z

; 1343 : 	g_FontMgr.PrintText( iXPos + 10, iYPos + 52, FLOAT05, STR(3), pUserInfoNode->GetAwardLevel(), pUserInfoNode->GetAwardExp() );

  001aa	8b 47 40	 mov	 eax, DWORD PTR [edi+64]
  001ad	89 45 f4	 mov	 DWORD PTR $T525223[ebp], eax
  001b0	b8 05 00 00 00	 mov	 eax, 5
  001b5	89 45 f8	 mov	 DWORD PTR $T525227[ebp], eax
  001b8	b8 0a 00 00 00	 mov	 eax, 10			; 0000000aH
  001bd	8b cf		 mov	 ecx, edi
  001bf	89 45 fc	 mov	 DWORD PTR $T525231[ebp], eax
  001c2	e8 00 00 00 00	 call	 ?GetAwardExp@UserInfoNode@@QAEHXZ ; UserInfoNode::GetAwardExp
  001c7	50		 push	 eax
  001c8	ff 75 f4	 push	 DWORD PTR $T525223[ebp]
  001cb	6a 00		 push	 0
  001cd	6a 03		 push	 3
  001cf	68 00 00 00 00	 push	 OFFSET ??_C@_00CNPNBAHC@?$AA@
  001d4	68 00 00 00 00	 push	 OFFSET ??_C@_0BK@CPOHJPNL@ioUserInfoMgr?3?3TestRender?$AA@
  001d9	ff d3		 call	 ebx
  001db	8b c8		 mov	 ecx, eax
  001dd	ff 15 00 00 00
	00		 call	 DWORD PTR __imp_?GetString@ioStringManager@@QAEPADPBD0HW4FileNamePrefix@1@@Z
  001e3	db 45 f8	 fild	 DWORD PTR $T525227[ebp]
  001e6	50		 push	 eax
  001e7	8b 45 f8	 mov	 eax, DWORD PTR $T525227[ebp]
  001ea	85 c0		 test	 eax, eax
  001ec	79 06		 jns	 SHORT $LN44@TestRender
  001ee	d8 05 00 00 00
	00		 fadd	 DWORD PTR __real@4f800000
$LN44@TestRender:
  001f4	8b 45 fc	 mov	 eax, DWORD PTR $T525231[ebp]
  001f7	db 45 fc	 fild	 DWORD PTR $T525231[ebp]
  001fa	85 c0		 test	 eax, eax
  001fc	79 06		 jns	 SHORT $LN45@TestRender
  001fe	d8 05 00 00 00
	00		 fadd	 DWORD PTR __real@4f800000
$LN45@TestRender:
  00204	de f9		 fdivp	 ST(1), ST(0)
  00206	8b 45 0c	 mov	 eax, DWORD PTR _iYPos$[ebp]
  00209	83 ec 0c	 sub	 esp, 12			; 0000000cH
  0020c	83 c0 34	 add	 eax, 52			; 00000034H
  0020f	0f 57 c0	 xorps	 xmm0, xmm0
  00212	f3 0f 2a c0	 cvtsi2ss xmm0, eax
  00216	d9 5d f4	 fstp	 DWORD PTR tv147[ebp]
  00219	d9 45 f4	 fld	 DWORD PTR tv147[ebp]
  0021c	d9 5c 24 08	 fstp	 DWORD PTR [esp+8]
  00220	f3 0f 11 44 24
	04		 movss	 DWORD PTR [esp+4], xmm0
  00226	f3 0f 10 45 08	 movss	 xmm0, DWORD PTR tv374[ebp]
  0022b	f3 0f 11 04 24	 movss	 DWORD PTR [esp], xmm0
  00230	ff d6		 call	 esi
  00232	8b c8		 mov	 ecx, eax
  00234	ff 15 00 00 00
	00		 call	 DWORD PTR __imp_?PrintText@ioFontManager@@QAEXMMMPBDHH@Z

; 1344 : //	g_FontMgr.PrintText( iXPos + 10, iYPos + 66, FLOAT05, STR(4), pUserInfoNode->GetMedalLevel(), pUserInfoNode->GetMedalExp() );
; 1345 : 	g_FontMgr.PrintText( iXPos + 10, iYPos + 80, FLOAT05, STR(5), pUserInfoNode->GetBlockType() );

  0023a	8b 7f 6c	 mov	 edi, DWORD PTR [edi+108]
  0023d	b8 05 00 00 00	 mov	 eax, 5
  00242	89 45 f4	 mov	 DWORD PTR $T525239[ebp], eax
  00245	b8 0a 00 00 00	 mov	 eax, 10			; 0000000aH
  0024a	57		 push	 edi
  0024b	6a 00		 push	 0
  0024d	6a 05		 push	 5
  0024f	68 00 00 00 00	 push	 OFFSET ??_C@_00CNPNBAHC@?$AA@
  00254	68 00 00 00 00	 push	 OFFSET ??_C@_0BK@CPOHJPNL@ioUserInfoMgr?3?3TestRender?$AA@
  00259	89 45 f8	 mov	 DWORD PTR $T525243[ebp], eax
  0025c	ff d3		 call	 ebx
  0025e	8b 3d 00 00 00
	00		 mov	 edi, DWORD PTR __imp_?GetString@ioStringManager@@QAEPADPBD0HW4FileNamePrefix@1@@Z
  00264	8b c8		 mov	 ecx, eax
  00266	ff d7		 call	 edi
  00268	db 45 f4	 fild	 DWORD PTR $T525239[ebp]
  0026b	50		 push	 eax
  0026c	8b 45 f4	 mov	 eax, DWORD PTR $T525239[ebp]
  0026f	85 c0		 test	 eax, eax
  00271	79 06		 jns	 SHORT $LN46@TestRender
  00273	d8 05 00 00 00
	00		 fadd	 DWORD PTR __real@4f800000
$LN46@TestRender:
  00279	8b 45 f8	 mov	 eax, DWORD PTR $T525243[ebp]
  0027c	db 45 f8	 fild	 DWORD PTR $T525243[ebp]
  0027f	85 c0		 test	 eax, eax
  00281	79 06		 jns	 SHORT $LN47@TestRender
  00283	d8 05 00 00 00
	00		 fadd	 DWORD PTR __real@4f800000
$LN47@TestRender:
  00289	de f9		 fdivp	 ST(1), ST(0)
  0028b	8b 45 0c	 mov	 eax, DWORD PTR _iYPos$[ebp]
  0028e	83 ec 0c	 sub	 esp, 12			; 0000000cH
  00291	83 c0 50	 add	 eax, 80			; 00000050H
  00294	0f 57 c0	 xorps	 xmm0, xmm0
  00297	f3 0f 2a c0	 cvtsi2ss xmm0, eax
  0029b	d9 5d f4	 fstp	 DWORD PTR tv331[ebp]
  0029e	d9 45 f4	 fld	 DWORD PTR tv331[ebp]
  002a1	d9 5c 24 08	 fstp	 DWORD PTR [esp+8]
  002a5	f3 0f 11 44 24
	04		 movss	 DWORD PTR [esp+4], xmm0
  002ab	f3 0f 10 45 08	 movss	 xmm0, DWORD PTR tv374[ebp]
  002b0	f3 0f 11 04 24	 movss	 DWORD PTR [esp], xmm0
  002b5	ff d6		 call	 esi
  002b7	8b c8		 mov	 ecx, eax
  002b9	ff 15 00 00 00
	00		 call	 DWORD PTR __imp_?PrintText@ioFontManager@@QAEXMMMPBDH@Z

; 1346 : 	g_FontMgr.PrintText( iXPos + 10, iYPos + 94, FLOAT05, STR(6), m_vUserInfoList.size() );

  002bf	8b 45 f0	 mov	 eax, DWORD PTR _this$[ebp]
  002c2	8b 48 08	 mov	 ecx, DWORD PTR [eax+8]
  002c5	2b 48 04	 sub	 ecx, DWORD PTR [eax+4]
  002c8	c1 f9 02	 sar	 ecx, 2
  002cb	b8 05 00 00 00	 mov	 eax, 5
  002d0	89 45 f0	 mov	 DWORD PTR $T525252[ebp], eax
  002d3	b8 0a 00 00 00	 mov	 eax, 10			; 0000000aH
  002d8	51		 push	 ecx
  002d9	6a 00		 push	 0
  002db	6a 06		 push	 6
  002dd	68 00 00 00 00	 push	 OFFSET ??_C@_00CNPNBAHC@?$AA@
  002e2	68 00 00 00 00	 push	 OFFSET ??_C@_0BK@CPOHJPNL@ioUserInfoMgr?3?3TestRender?$AA@
  002e7	89 45 f4	 mov	 DWORD PTR $T525256[ebp], eax
  002ea	ff d3		 call	 ebx
  002ec	8b c8		 mov	 ecx, eax
  002ee	ff d7		 call	 edi
  002f0	db 45 f0	 fild	 DWORD PTR $T525252[ebp]
  002f3	50		 push	 eax
  002f4	8b 45 f0	 mov	 eax, DWORD PTR $T525252[ebp]
  002f7	85 c0		 test	 eax, eax
  002f9	79 06		 jns	 SHORT $LN48@TestRender
  002fb	d8 05 00 00 00
	00		 fadd	 DWORD PTR __real@4f800000
$LN48@TestRender:
  00301	8b 45 f4	 mov	 eax, DWORD PTR $T525256[ebp]
  00304	db 45 f4	 fild	 DWORD PTR $T525256[ebp]
  00307	85 c0		 test	 eax, eax
  00309	79 06		 jns	 SHORT $LN49@TestRender
  0030b	d8 05 00 00 00
	00		 fadd	 DWORD PTR __real@4f800000
$LN49@TestRender:
  00311	de f9		 fdivp	 ST(1), ST(0)
  00313	8b 45 0c	 mov	 eax, DWORD PTR _iYPos$[ebp]
  00316	83 ec 0c	 sub	 esp, 12			; 0000000cH
  00319	83 c0 5e	 add	 eax, 94			; 0000005eH
  0031c	0f 57 c0	 xorps	 xmm0, xmm0
  0031f	f3 0f 2a c0	 cvtsi2ss xmm0, eax
  00323	d9 5d f0	 fstp	 DWORD PTR tv310[ebp]
  00326	d9 45 f0	 fld	 DWORD PTR tv310[ebp]
  00329	d9 5c 24 08	 fstp	 DWORD PTR [esp+8]
  0032d	f3 0f 11 44 24
	04		 movss	 DWORD PTR [esp+4], xmm0
  00333	f3 0f 10 45 08	 movss	 xmm0, DWORD PTR tv374[ebp]
  00338	f3 0f 11 04 24	 movss	 DWORD PTR [esp], xmm0
  0033d	ff d6		 call	 esi
  0033f	8b c8		 mov	 ecx, eax
  00341	ff 15 00 00 00
	00		 call	 DWORD PTR __imp_?PrintText@ioFontManager@@QAEXMMMPBDI@Z

; 1347 : 	m_szOverUserID.Clear();

  00347	8b 4d ec	 mov	 ecx, DWORD PTR tv352[ebp]
  0034a	ff 15 00 00 00
	00		 call	 DWORD PTR __imp_?Clear@ioHashString@@QAEXXZ
$LN39@TestRender:
  00350	5b		 pop	 ebx
$LN3@TestRender:
  00351	5f		 pop	 edi
  00352	5e		 pop	 esi

; 1348 : }

  00353	c9		 leave
  00354	c2 08 00	 ret	 8
?TestRender@ioUserInfoMgr@@QAEXHH@Z ENDP		; ioUserInfoMgr::TestRender
_TEXT	ENDS
PUBLIC	?ApplyUserInfoCharSubDataSync@ioUserInfoMgr@@QAEXAAVSP2Packet@@@Z ; ioUserInfoMgr::ApplyUserInfoCharSubDataSync
EXTRN	??5SP2Packet@@QAEAAV0@AAVioHashString@@@Z:PROC	; SP2Packet::operator>>
;	COMDAT xdata$x
; File d:\lost saga for developer\youtube\tutorial\source\src\lsclient\gui\iouserinfomgr.h
xdata$x	SEGMENT
__unwindtable$?ApplyUserInfoCharSubDataSync@ioUserInfoMgr@@QAEXAAVSP2Packet@@@Z DD 0ffffffffH
	DD	FLAT:__unwindfunclet$?ApplyUserInfoCharSubDataSync@ioUserInfoMgr@@QAEXAAVSP2Packet@@@Z$0
__ehfuncinfo$?ApplyUserInfoCharSubDataSync@ioUserInfoMgr@@QAEXAAVSP2Packet@@@Z DD 019930522H
	DD	01H
	DD	FLAT:__unwindtable$?ApplyUserInfoCharSubDataSync@ioUserInfoMgr@@QAEXAAVSP2Packet@@@Z
	DD	2 DUP(00H)
	DD	2 DUP(00H)
	DD	00H
	DD	01H
; Function compile flags: /Ogsp
; File d:\lost saga for developer\youtube\tutorial\source\src\lsclient\gui\iouserinfomgr.cpp
xdata$x	ENDS
;	COMDAT ?ApplyUserInfoCharSubDataSync@ioUserInfoMgr@@QAEXAAVSP2Packet@@@Z
_TEXT	SEGMENT
_kUserID$ = -28						; size = 16
__$EHRec$ = -12						; size = 12
_rkPacket$ = 8						; size = 4
?ApplyUserInfoCharSubDataSync@ioUserInfoMgr@@QAEXAAVSP2Packet@@@Z PROC ; ioUserInfoMgr::ApplyUserInfoCharSubDataSync, COMDAT
; _this$ = ecx

; 1375 : {

  00000	6a 10		 push	 16			; 00000010H
  00002	b8 00 00 00 00	 mov	 eax, __ehhandler$?ApplyUserInfoCharSubDataSync@ioUserInfoMgr@@QAEXAAVSP2Packet@@@Z
  00007	e8 00 00 00 00	 call	 __EH_prolog3
  0000c	8b f1		 mov	 esi, ecx

; 1376 : 	ioHashString kUserID;

  0000e	8d 4d e4	 lea	 ecx, DWORD PTR _kUserID$[ebp]
  00011	ff 15 00 00 00
	00		 call	 DWORD PTR __imp_??0ioHashString@@QAE@XZ

; 1377 : 	rkPacket >> kUserID;

  00017	8b 4d 08	 mov	 ecx, DWORD PTR _rkPacket$[ebp]
  0001a	83 65 fc 00	 and	 DWORD PTR __$EHRec$[ebp+8], 0
  0001e	8d 45 e4	 lea	 eax, DWORD PTR _kUserID$[ebp]
  00021	50		 push	 eax
  00022	e8 00 00 00 00	 call	 ??5SP2Packet@@QAEAAV0@AAVioHashString@@@Z ; SP2Packet::operator>>

; 1378 : 
; 1379 : 	UserInfoNode *pUserInfoNode = GetUserInfoNode( kUserID, false );

  00027	6a 00		 push	 0
  00029	8d 45 e4	 lea	 eax, DWORD PTR _kUserID$[ebp]
  0002c	50		 push	 eax
  0002d	8b ce		 mov	 ecx, esi
  0002f	e8 00 00 00 00	 call	 ?GetUserInfoNode@ioUserInfoMgr@@QAEPAVUserInfoNode@@ABVioHashString@@_N@Z ; ioUserInfoMgr::GetUserInfoNode

; 1380 : 	if( pUserInfoNode )

  00034	85 c0		 test	 eax, eax
  00036	74 12		 je	 SHORT $LN1@ApplyUserI

; 1381 : 	{
; 1382 : 		UserInfoCharData &rkCharData = pUserInfoNode->GetUserCharData();
; 1383 : 		rkCharData.ApplyCharSubData( kUserID, rkPacket );

  00038	ff 75 08	 push	 DWORD PTR _rkPacket$[ebp]
  0003b	8d 88 c8 00 00
	00		 lea	 ecx, DWORD PTR [eax+200]
  00041	8d 45 e4	 lea	 eax, DWORD PTR _kUserID$[ebp]
  00044	50		 push	 eax
  00045	e8 00 00 00 00	 call	 ?ApplyCharSubData@UserInfoCharData@@QAEXABVioHashString@@AAVSP2Packet@@@Z ; UserInfoCharData::ApplyCharSubData
$LN1@ApplyUserI:

; 1384 : 	}
; 1385 : }

  0004a	83 4d fc ff	 or	 DWORD PTR __$EHRec$[ebp+8], -1
  0004e	8d 4d e4	 lea	 ecx, DWORD PTR _kUserID$[ebp]
  00051	ff 15 00 00 00
	00		 call	 DWORD PTR __imp_??1ioHashString@@QAE@XZ
  00057	e8 00 00 00 00	 call	 __EH_epilog3
  0005c	c2 04 00	 ret	 4
_TEXT	ENDS
;	COMDAT text$x
text$x	SEGMENT
__unwindfunclet$?ApplyUserInfoCharSubDataSync@ioUserInfoMgr@@QAEXAAVSP2Packet@@@Z$0:
  00000	8d 4d e4	 lea	 ecx, DWORD PTR _kUserID$[ebp]
  00003	ff 25 00 00 00
	00		 jmp	 DWORD PTR __imp_??1ioHashString@@QAE@XZ
__ehhandler$?ApplyUserInfoCharSubDataSync@ioUserInfoMgr@@QAEXAAVSP2Packet@@@Z:
  00009	8b 54 24 08	 mov	 edx, DWORD PTR [esp+8]
  0000d	8d 42 0c	 lea	 eax, DWORD PTR [edx+12]
  00010	8b 4a e0	 mov	 ecx, DWORD PTR [edx-32]
  00013	33 c8		 xor	 ecx, eax
  00015	e8 00 00 00 00	 call	 @__security_check_cookie@4
  0001a	b8 00 00 00 00	 mov	 eax, OFFSET __ehfuncinfo$?ApplyUserInfoCharSubDataSync@ioUserInfoMgr@@QAEXAAVSP2Packet@@@Z
  0001f	e9 00 00 00 00	 jmp	 ___CxxFrameHandler3
text$x	ENDS
?ApplyUserInfoCharSubDataSync@ioUserInfoMgr@@QAEXAAVSP2Packet@@@Z ENDP ; ioUserInfoMgr::ApplyUserInfoCharSubDataSync
PUBLIC	?SetEquipCostume@ioUserInfoMgr@@QAEXABVioHashString@@HQBUtagCostumeEquipInfo@@@Z ; ioUserInfoMgr::SetEquipCostume
; Function compile flags: /Ogsp
;	COMDAT ?SetEquipCostume@ioUserInfoMgr@@QAEXABVioHashString@@HQBUtagCostumeEquipInfo@@@Z
_TEXT	SEGMENT
_szUserID$ = 8						; size = 4
_iClassType$ = 12					; size = 4
_kEquipCostume$ = 16					; size = 4
?SetEquipCostume@ioUserInfoMgr@@QAEXABVioHashString@@HQBUtagCostumeEquipInfo@@@Z PROC ; ioUserInfoMgr::SetEquipCostume, COMDAT
; _this$ = ecx

; 1388 : {

  00000	55		 push	 ebp
  00001	8b ec		 mov	 ebp, esp

; 1389 : 	UserInfoNode *pUserInfoNode = GetUserInfoNode( szUserID, false );

  00003	6a 00		 push	 0
  00005	ff 75 08	 push	 DWORD PTR _szUserID$[ebp]
  00008	e8 00 00 00 00	 call	 ?GetUserInfoNode@ioUserInfoMgr@@QAEPAVUserInfoNode@@ABVioHashString@@_N@Z ; ioUserInfoMgr::GetUserInfoNode

; 1390 : 	if( pUserInfoNode )

  0000d	85 c0		 test	 eax, eax
  0000f	74 11		 je	 SHORT $LN1@SetEquipCo@3

; 1391 : 	{
; 1392 : 		UserInfoCharData &rkCharData = pUserInfoNode->GetUserCharData();
; 1393 : 		rkCharData.SetEquipCostume( iClassType, kEquipCostume );

  00011	ff 75 10	 push	 DWORD PTR _kEquipCostume$[ebp]
  00014	8d 88 c8 00 00
	00		 lea	 ecx, DWORD PTR [eax+200]
  0001a	ff 75 0c	 push	 DWORD PTR _iClassType$[ebp]
  0001d	e8 00 00 00 00	 call	 ?SetEquipCostume@UserInfoCharData@@QAEXHQBUtagCostumeEquipInfo@@@Z ; UserInfoCharData::SetEquipCostume
$LN1@SetEquipCo@3:

; 1394 : 	}
; 1395 : }

  00022	5d		 pop	 ebp
  00023	c2 0c 00	 ret	 12			; 0000000cH
?SetEquipCostume@ioUserInfoMgr@@QAEXABVioHashString@@HQBUtagCostumeEquipInfo@@@Z ENDP ; ioUserInfoMgr::SetEquipCostume
_TEXT	ENDS
PUBLIC	?SetEquipCostumebySubType@ioUserInfoMgr@@QAEXABVioHashString@@HHHKK@Z ; ioUserInfoMgr::SetEquipCostumebySubType
; Function compile flags: /Ogsp
;	COMDAT ?SetEquipCostumebySubType@ioUserInfoMgr@@QAEXABVioHashString@@HHHKK@Z
_TEXT	SEGMENT
_szUserID$ = 8						; size = 4
_nClassType$ = 12					; size = 4
_nSubType$ = 16						; size = 4
_nCostumeCode$ = 20					; size = 4
_dwCustomMale$ = 24					; size = 4
_dwCustomFemale$ = 28					; size = 4
?SetEquipCostumebySubType@ioUserInfoMgr@@QAEXABVioHashString@@HHHKK@Z PROC ; ioUserInfoMgr::SetEquipCostumebySubType, COMDAT
; _this$ = ecx

; 1398 : {

  00000	55		 push	 ebp
  00001	8b ec		 mov	 ebp, esp

; 1399 : 	UserInfoNode *pUserInfoNode = GetUserInfoNode( szUserID, false );

  00003	6a 00		 push	 0
  00005	ff 75 08	 push	 DWORD PTR _szUserID$[ebp]
  00008	e8 00 00 00 00	 call	 ?GetUserInfoNode@ioUserInfoMgr@@QAEPAVUserInfoNode@@ABVioHashString@@_N@Z ; ioUserInfoMgr::GetUserInfoNode

; 1400 : 	if( pUserInfoNode )

  0000d	85 c0		 test	 eax, eax
  0000f	74 1a		 je	 SHORT $LN1@SetEquipCo@4

; 1401 : 	{
; 1402 : 		UserInfoCharData &rkCharData = pUserInfoNode->GetUserCharData();
; 1403 : 		rkCharData.SetEquipCostumebySubType( nClassType, nSubType, nCostumeCode, dwCustomMale, dwCustomFemale );

  00011	ff 75 1c	 push	 DWORD PTR _dwCustomFemale$[ebp]
  00014	8d 88 c8 00 00
	00		 lea	 ecx, DWORD PTR [eax+200]
  0001a	ff 75 18	 push	 DWORD PTR _dwCustomMale$[ebp]
  0001d	ff 75 14	 push	 DWORD PTR _nCostumeCode$[ebp]
  00020	ff 75 10	 push	 DWORD PTR _nSubType$[ebp]
  00023	ff 75 0c	 push	 DWORD PTR _nClassType$[ebp]
  00026	e8 00 00 00 00	 call	 ?SetEquipCostumebySubType@UserInfoCharData@@QAEXHHHKK@Z ; UserInfoCharData::SetEquipCostumebySubType
$LN1@SetEquipCo@4:

; 1404 : 	}
; 1405 : }

  0002b	5d		 pop	 ebp
  0002c	c2 18 00	 ret	 24			; 00000018H
?SetEquipCostumebySubType@ioUserInfoMgr@@QAEXABVioHashString@@HHHKK@Z ENDP ; ioUserInfoMgr::SetEquipCostumebySubType
_TEXT	ENDS
PUBLIC	?clear@?$vector@UCharInfoData@@V?$allocator@UCharInfoData@@@std@@@std@@QAEXXZ ; std::vector<CharInfoData,std::allocator<CharInfoData> >::clear
; Function compile flags: /Ogsp
; File c:\program files (x86)\microsoft visual studio 10.0\vc\include\vector
;	COMDAT ?clear@?$vector@UCharInfoData@@V?$allocator@UCharInfoData@@@std@@@std@@QAEXXZ
_TEXT	SEGMENT
$T525296 = -4						; size = 4
?clear@?$vector@UCharInfoData@@V?$allocator@UCharInfoData@@@std@@@std@@QAEXXZ PROC ; std::vector<CharInfoData,std::allocator<CharInfoData> >::clear, COMDAT
; _this$ = ecx

; 1217 : 		{	// erase all

  00000	55		 push	 ebp
  00001	8b ec		 mov	 ebp, esp
  00003	51		 push	 ecx

; 1218 : 		erase(begin(), end());

  00004	8b 41 04	 mov	 eax, DWORD PTR [ecx+4]
  00007	8b 11		 mov	 edx, DWORD PTR [ecx]
  00009	50		 push	 eax
  0000a	52		 push	 edx
  0000b	8d 45 fc	 lea	 eax, DWORD PTR $T525296[ebp]
  0000e	50		 push	 eax
  0000f	e8 00 00 00 00	 call	 ?erase@?$vector@UCharInfoData@@V?$allocator@UCharInfoData@@@std@@@std@@QAE?AV?$_Vector_iterator@V?$_Vector_val@UCharInfoData@@V?$allocator@UCharInfoData@@@std@@@std@@@2@V?$_Vector_const_iterator@V?$_Vector_val@UCharInfoData@@V?$allocator@UCharInfoData@@@std@@@std@@@2@0@Z ; std::vector<CharInfoData,std::allocator<CharInfoData> >::erase

; 1219 : 		}

  00014	c9		 leave
  00015	c3		 ret	 0
?clear@?$vector@UCharInfoData@@V?$allocator@UCharInfoData@@@std@@@std@@QAEXXZ ENDP ; std::vector<CharInfoData,std::allocator<CharInfoData> >::clear
_TEXT	ENDS
PUBLIC	?_Reserve@?$vector@UCharInfoData@@V?$allocator@UCharInfoData@@@std@@@std@@IAEXI@Z ; std::vector<CharInfoData,std::allocator<CharInfoData> >::_Reserve
; Function compile flags: /Ogsp
;	COMDAT ?_Reserve@?$vector@UCharInfoData@@V?$allocator@UCharInfoData@@@std@@@std@@IAEXI@Z
_TEXT	SEGMENT
__Count$ = 8						; size = 4
?_Reserve@?$vector@UCharInfoData@@V?$allocator@UCharInfoData@@@std@@@std@@IAEXI@Z PROC ; std::vector<CharInfoData,std::allocator<CharInfoData> >::_Reserve, COMDAT
; _this$ = ecx

; 1290 : 		{	// ensure room for _Count new elements, grow exponentially

  00000	55		 push	 ebp
  00001	8b ec		 mov	 ebp, esp
  00003	53		 push	 ebx
  00004	56		 push	 esi
  00005	8b f1		 mov	 esi, ecx

; 1291 : 		size_type _Size = size();

  00007	8b 46 04	 mov	 eax, DWORD PTR [esi+4]
  0000a	57		 push	 edi
  0000b	8b 3e		 mov	 edi, DWORD PTR [esi]
  0000d	2b c7		 sub	 eax, edi
  0000f	99		 cdq
  00010	b9 c0 03 00 00	 mov	 ecx, 960		; 000003c0H
  00015	8b d9		 mov	 ebx, ecx
  00017	f7 fb		 idiv	 ebx
  00019	8b d8		 mov	 ebx, eax

; 1292 : 		if (max_size() - _Count < _Size)

  0001b	b8 44 44 44 00	 mov	 eax, 4473924		; 00444444H
  00020	2b 45 08	 sub	 eax, DWORD PTR __Count$[ebp]
  00023	3b c3		 cmp	 eax, ebx
  00025	73 0b		 jae	 SHORT $LN4@Reserve@3

; 1293 : 			_Xlen();

  00027	68 00 00 00 00	 push	 OFFSET ??_C@_0BD@OLBABOEK@vector?$DMT?$DO?5too?5long?$AA@
  0002c	ff 15 00 00 00
	00		 call	 DWORD PTR __imp_?_Xlength_error@std@@YAXPBD@Z
$LN21@Reserve@3:
$LN4@Reserve@3:

; 1294 : 		else if ((_Size += _Count) <= capacity())

  00032	8b 46 08	 mov	 eax, DWORD PTR [esi+8]
  00035	2b c7		 sub	 eax, edi
  00037	99		 cdq
  00038	f7 f9		 idiv	 ecx
  0003a	03 5d 08	 add	 ebx, DWORD PTR __Count$[ebp]
  0003d	3b d8		 cmp	 ebx, eax
  0003f	76 10		 jbe	 SHORT $LN1@Reserve@3

; 1295 : 			;
; 1296 : 		else
; 1297 : 			reserve(_Grow_to(_Size));

  00041	53		 push	 ebx
  00042	8b ce		 mov	 ecx, esi
  00044	e8 00 00 00 00	 call	 ?_Grow_to@?$vector@UCharInfoData@@V?$allocator@UCharInfoData@@@std@@@std@@IBEII@Z ; std::vector<CharInfoData,std::allocator<CharInfoData> >::_Grow_to
  00049	50		 push	 eax
  0004a	8b ce		 mov	 ecx, esi
  0004c	e8 00 00 00 00	 call	 ?reserve@?$vector@UCharInfoData@@V?$allocator@UCharInfoData@@@std@@@std@@QAEXI@Z ; std::vector<CharInfoData,std::allocator<CharInfoData> >::reserve
$LN1@Reserve@3:
  00051	5f		 pop	 edi
  00052	5e		 pop	 esi
  00053	5b		 pop	 ebx

; 1298 : 		}

  00054	5d		 pop	 ebp
  00055	c2 04 00	 ret	 4
$LN20@Reserve@3:
?_Reserve@?$vector@UCharInfoData@@V?$allocator@UCharInfoData@@@std@@@std@@IAEXI@Z ENDP ; std::vector<CharInfoData,std::allocator<CharInfoData> >::_Reserve
_TEXT	ENDS
PUBLIC	??$_Sort@PAUCharInfoData@@HVCharInfoSort@@@std@@YAXPAUCharInfoData@@0HVCharInfoSort@@@Z ; std::_Sort<CharInfoData *,int,CharInfoSort>
; Function compile flags: /Ogsp
; File c:\program files (x86)\microsoft visual studio 10.0\vc\include\algorithm
;	COMDAT ??$_Sort@PAUCharInfoData@@HVCharInfoSort@@@std@@YAXPAUCharInfoData@@0HVCharInfoSort@@@Z
_TEXT	SEGMENT
__Mid$516280 = -8					; size = 8
__First$ = 8						; size = 4
__Last$ = 12						; size = 4
__Ideal$ = 16						; size = 4
__Pred$ = 20						; size = 1
??$_Sort@PAUCharInfoData@@HVCharInfoSort@@@std@@YAXPAUCharInfoData@@0HVCharInfoSort@@@Z PROC ; std::_Sort<CharInfoData *,int,CharInfoSort>, COMDAT

; 3771 : 	{	// order [_First, _Last), using _Pred

  00000	55		 push	 ebp
  00001	8b ec		 mov	 ebp, esp
  00003	51		 push	 ecx
  00004	51		 push	 ecx
  00005	53		 push	 ebx

; 3772 : 	_Diff _Count;
; 3773 : 	for (; _ISORT_MAX < (_Count = _Last - _First) && 0 < _Ideal; )

  00006	8b 5d 0c	 mov	 ebx, DWORD PTR __Last$[ebp]
  00009	8b c3		 mov	 eax, ebx
  0000b	2b 45 08	 sub	 eax, DWORD PTR __First$[ebp]
  0000e	56		 push	 esi
  0000f	be c0 03 00 00	 mov	 esi, 960		; 000003c0H
  00014	99		 cdq
  00015	8b ce		 mov	 ecx, esi
  00017	f7 f9		 idiv	 ecx
  00019	83 f8 20	 cmp	 eax, 32			; 00000020H
  0001c	0f 8e a6 00 00
	00		 jle	 $LN22@Sort
  00022	57		 push	 edi
  00023	8b 7d 10	 mov	 edi, DWORD PTR __Ideal$[ebp]
$LL7@Sort:
  00026	85 ff		 test	 edi, edi
  00028	7e 7b		 jle	 SHORT $LN6@Sort

; 3774 : 		{	// divide and conquer by quicksort
; 3775 : 		_STD pair<_RanIt, _RanIt> _Mid =
; 3776 : 			_Unguarded_partition(_First, _Last, _Pred);

  0002a	ff 75 14	 push	 DWORD PTR __Pred$[ebp]
  0002d	8d 45 f8	 lea	 eax, DWORD PTR __Mid$516280[ebp]
  00030	53		 push	 ebx
  00031	ff 75 08	 push	 DWORD PTR __First$[ebp]
  00034	50		 push	 eax
  00035	e8 00 00 00 00	 call	 ??$_Unguarded_partition@PAUCharInfoData@@VCharInfoSort@@@std@@YA?AU?$pair@PAUCharInfoData@@PAU1@@0@PAUCharInfoData@@0VCharInfoSort@@@Z ; std::_Unguarded_partition<CharInfoData *,CharInfoSort>

; 3777 : 		_Ideal /= 2, _Ideal += _Ideal / 2;	// allow 1.5 log2(N) divisions

  0003a	8b c7		 mov	 eax, edi
  0003c	99		 cdq
  0003d	2b c2		 sub	 eax, edx
  0003f	d1 f8		 sar	 eax, 1
  00041	8b f8		 mov	 edi, eax
  00043	99		 cdq
  00044	2b c2		 sub	 eax, edx
  00046	d1 f8		 sar	 eax, 1
  00048	03 f8		 add	 edi, eax

; 3778 : 
; 3779 : 		if (_Mid.first - _First < _Last - _Mid.second)

  0004a	8b c3		 mov	 eax, ebx
  0004c	2b 45 fc	 sub	 eax, DWORD PTR __Mid$516280[ebp+4]
  0004f	8b ce		 mov	 ecx, esi
  00051	99		 cdq
  00052	f7 f9		 idiv	 ecx
  00054	8b de		 mov	 ebx, esi
  00056	83 c4 10	 add	 esp, 16			; 00000010H

; 3780 : 			{	// loop on second half
; 3781 : 			_Sort(_First, _Mid.first, _Ideal, _Pred);

  00059	ff 75 14	 push	 DWORD PTR __Pred$[ebp]
  0005c	57		 push	 edi
  0005d	8b c8		 mov	 ecx, eax
  0005f	8b 45 f8	 mov	 eax, DWORD PTR __Mid$516280[ebp]
  00062	2b 45 08	 sub	 eax, DWORD PTR __First$[ebp]
  00065	99		 cdq
  00066	f7 fb		 idiv	 ebx
  00068	3b c1		 cmp	 eax, ecx
  0006a	7d 16		 jge	 SHORT $LN5@Sort
  0006c	ff 75 f8	 push	 DWORD PTR __Mid$516280[ebp]
  0006f	ff 75 08	 push	 DWORD PTR __First$[ebp]
  00072	e8 00 00 00 00	 call	 ??$_Sort@PAUCharInfoData@@HVCharInfoSort@@@std@@YAXPAUCharInfoData@@0HVCharInfoSort@@@Z ; std::_Sort<CharInfoData *,int,CharInfoSort>

; 3782 : 			_First = _Mid.second;

  00077	8b 45 fc	 mov	 eax, DWORD PTR __Mid$516280[ebp+4]

; 3783 : 			}
; 3784 : 		else

  0007a	8b 5d 0c	 mov	 ebx, DWORD PTR __Last$[ebp]
  0007d	89 45 08	 mov	 DWORD PTR __First$[ebp], eax
  00080	eb 11		 jmp	 SHORT $LN23@Sort
$LN5@Sort:

; 3785 : 			{	// loop on first half
; 3786 : 			_Sort(_Mid.second, _Last, _Ideal, _Pred);

  00082	ff 75 0c	 push	 DWORD PTR __Last$[ebp]
  00085	ff 75 fc	 push	 DWORD PTR __Mid$516280[ebp+4]
  00088	e8 00 00 00 00	 call	 ??$_Sort@PAUCharInfoData@@HVCharInfoSort@@@std@@YAXPAUCharInfoData@@0HVCharInfoSort@@@Z ; std::_Sort<CharInfoData *,int,CharInfoSort>

; 3787 : 			_Last = _Mid.first;

  0008d	8b 5d f8	 mov	 ebx, DWORD PTR __Mid$516280[ebp]
  00090	89 5d 0c	 mov	 DWORD PTR __Last$[ebp], ebx
$LN23@Sort:

; 3772 : 	_Diff _Count;
; 3773 : 	for (; _ISORT_MAX < (_Count = _Last - _First) && 0 < _Ideal; )

  00093	8b c3		 mov	 eax, ebx
  00095	2b 45 08	 sub	 eax, DWORD PTR __First$[ebp]
  00098	8b ce		 mov	 ecx, esi
  0009a	99		 cdq
  0009b	f7 f9		 idiv	 ecx

; 3785 : 			{	// loop on first half
; 3786 : 			_Sort(_Mid.second, _Last, _Ideal, _Pred);

  0009d	83 c4 10	 add	 esp, 16			; 00000010H
  000a0	83 f8 20	 cmp	 eax, 32			; 00000020H
  000a3	7f 81		 jg	 SHORT $LL7@Sort
$LN6@Sort:
  000a5	5f		 pop	 edi

; 3788 : 			}
; 3789 : 		}
; 3790 : 
; 3791 : 	if (_ISORT_MAX < _Count)

  000a6	83 f8 20	 cmp	 eax, 32			; 00000020H
  000a9	7e 1d		 jle	 SHORT $LN22@Sort

; 3792 : 		{	// heap sort if too many divisions
; 3793 : 		_STD make_heap(_First, _Last, _Pred);

  000ab	ff 75 14	 push	 DWORD PTR __Pred$[ebp]
  000ae	53		 push	 ebx
  000af	ff 75 08	 push	 DWORD PTR __First$[ebp]
  000b2	e8 00 00 00 00	 call	 ??$make_heap@PAUCharInfoData@@VCharInfoSort@@@std@@YAXPAUCharInfoData@@0VCharInfoSort@@@Z ; std::make_heap<CharInfoData *,CharInfoSort>

; 3794 : 		_STD sort_heap(_First, _Last, _Pred);

  000b7	ff 75 14	 push	 DWORD PTR __Pred$[ebp]
  000ba	53		 push	 ebx
  000bb	ff 75 08	 push	 DWORD PTR __First$[ebp]
  000be	e8 00 00 00 00	 call	 ??$_Sort_heap@PAUCharInfoData@@VCharInfoSort@@@std@@YAXPAUCharInfoData@@0VCharInfoSort@@@Z ; std::_Sort_heap<CharInfoData *,CharInfoSort>
  000c3	83 c4 18	 add	 esp, 24			; 00000018H
  000c6	eb 16		 jmp	 SHORT $LN16@Sort
$LN22@Sort:

; 3795 : 		}
; 3796 : 	else if (1 < _Count)

  000c8	83 f8 01	 cmp	 eax, 1
  000cb	7e 11		 jle	 SHORT $LN16@Sort

; 3797 : 		_Insertion_sort(_First, _Last, _Pred);	// small

  000cd	6a 00		 push	 0
  000cf	ff 75 14	 push	 DWORD PTR __Pred$[ebp]
  000d2	53		 push	 ebx
  000d3	ff 75 08	 push	 DWORD PTR __First$[ebp]
  000d6	e8 00 00 00 00	 call	 ??$_Insertion_sort1@PAUCharInfoData@@VCharInfoSort@@U1@@std@@YAXPAUCharInfoData@@0VCharInfoSort@@0@Z ; std::_Insertion_sort1<CharInfoData *,CharInfoSort,CharInfoData>
  000db	83 c4 10	 add	 esp, 16			; 00000010H
$LN16@Sort:
  000de	5e		 pop	 esi
  000df	5b		 pop	 ebx

; 3798 : 	}

  000e0	c9		 leave
  000e1	c3		 ret	 0
??$_Sort@PAUCharInfoData@@HVCharInfoSort@@@std@@YAXPAUCharInfoData@@0HVCharInfoSort@@@Z ENDP ; std::_Sort<CharInfoData *,int,CharInfoSort>
; Function compile flags: /Ogsp
_TEXT	ENDS
;	COMDAT ??_GUserInfoCharData@@UAEPAXI@Z
_TEXT	SEGMENT
___flags$ = 8						; size = 4
??_GUserInfoCharData@@UAEPAXI@Z PROC			; UserInfoCharData::`scalar deleting destructor', COMDAT
; _this$ = ecx
  00000	55		 push	 ebp
  00001	8b ec		 mov	 ebp, esp
  00003	56		 push	 esi
  00004	8b f1		 mov	 esi, ecx
  00006	e8 00 00 00 00	 call	 ??1UserInfoCharData@@UAE@XZ ; UserInfoCharData::~UserInfoCharData
  0000b	f6 45 08 01	 test	 BYTE PTR ___flags$[ebp], 1
  0000f	74 07		 je	 SHORT $LN1@scalar@5
  00011	56		 push	 esi
  00012	e8 00 00 00 00	 call	 ??3@YAXPAX@Z		; operator delete
  00017	59		 pop	 ecx
$LN1@scalar@5:
  00018	8b c6		 mov	 eax, esi
  0001a	5e		 pop	 esi
  0001b	5d		 pop	 ebp
  0001c	c2 04 00	 ret	 4
??_GUserInfoCharData@@UAEPAXI@Z ENDP			; UserInfoCharData::`scalar deleting destructor'
_TEXT	ENDS
PUBLIC	_rkUserName$GSCopy$
PUBLIC	__$ArrayPad$
PUBLIC	?SyncCharData@UserInfoCharData@@QAEXABVioHashString@@_N@Z ; UserInfoCharData::SyncCharData
;	COMDAT xdata$x
; File c:\program files (x86)\microsoft visual studio 10.0\vc\include\xutility
xdata$x	SEGMENT
__unwindtable$?SyncCharData@UserInfoCharData@@QAEXABVioHashString@@_N@Z DD 0ffffffffH
	DD	FLAT:__unwindfunclet$?SyncCharData@UserInfoCharData@@QAEXABVioHashString@@_N@Z$0
__ehfuncinfo$?SyncCharData@UserInfoCharData@@QAEXABVioHashString@@_N@Z DD 019930522H
	DD	01H
	DD	FLAT:__unwindtable$?SyncCharData@UserInfoCharData@@QAEXABVioHashString@@_N@Z
	DD	2 DUP(00H)
	DD	2 DUP(00H)
	DD	00H
	DD	01H
; Function compile flags: /Ogsp
; File d:\lost saga for developer\youtube\tutorial\source\src\lsclient\gui\iouserinfomgr.cpp
xdata$x	ENDS
;	COMDAT ?SyncCharData@UserInfoCharData@@QAEXABVioHashString@@_N@Z
_TEXT	SEGMENT
_rkUserName$GSCopy$ = -32812				; size = 4
$T525480 = -32812					; size = 4
_kPacket$ = -32808					; size = 32792
__$ArrayPad$ = -16					; size = 4
__$EHRec$ = -12						; size = 12
_rkUserName$ = 8					; size = 4
_bOnline$ = 12						; size = 1
?SyncCharData@UserInfoCharData@@QAEXABVioHashString@@_N@Z PROC ; UserInfoCharData::SyncCharData, COMDAT
; _this$ = ecx

; 278  : {

  00000	55		 push	 ebp
  00001	8b ec		 mov	 ebp, esp
  00003	6a ff		 push	 -1
  00005	68 00 00 00 00	 push	 __ehhandler$?SyncCharData@UserInfoCharData@@QAEXABVioHashString@@_N@Z
  0000a	64 a1 00 00 00
	00		 mov	 eax, DWORD PTR fs:0
  00010	50		 push	 eax
  00011	b8 20 80 00 00	 mov	 eax, 32800		; 00008020H
  00016	e8 00 00 00 00	 call	 __chkstk
  0001b	a1 00 00 00 00	 mov	 eax, DWORD PTR ___security_cookie
  00020	33 c5		 xor	 eax, ebp
  00022	89 45 f0	 mov	 DWORD PTR __$ArrayPad$[ebp], eax
  00025	53		 push	 ebx
  00026	56		 push	 esi
  00027	57		 push	 edi
  00028	50		 push	 eax
  00029	8d 45 f4	 lea	 eax, DWORD PTR __$EHRec$[ebp]
  0002c	64 a3 00 00 00
	00		 mov	 DWORD PTR fs:0, eax
  00032	8b 7d 08	 mov	 edi, DWORD PTR _rkUserName$[ebp]
  00035	8b f1		 mov	 esi, ecx

; 279  : 	if( rkUserName.IsEmpty() )

  00037	8b cf		 mov	 ecx, edi

; 290  : 		return;
; 291  : 
; 292  : 	m_dwSyncCheckTime = FRAMEGETTIME();

  00039	89 bd d4 7f ff
	ff		 mov	 DWORD PTR _rkUserName$GSCopy$[ebp], edi
  0003f	ff 15 00 00 00
	00		 call	 DWORD PTR __imp_?IsEmpty@ioHashString@@QBE_NXZ
  00045	84 c0		 test	 al, al
  00047	0f 85 eb 00 00
	00		 jne	 $LN4@SyncCharDa

; 280  : 		return;
; 281  : 
; 282  : 	if( rkUserName == g_MyInfo.GetPublicID() )

  0004d	e8 00 00 00 00	 call	 ?GetSingleton@ioMyInfo@@SAAAV1@XZ ; ioMyInfo::GetSingleton
  00052	83 c0 1c	 add	 eax, 28			; 0000001cH
  00055	50		 push	 eax
  00056	8b cf		 mov	 ecx, edi
  00058	ff 15 00 00 00
	00		 call	 DWORD PTR __imp_??8ioHashString@@QBE_NABV0@@Z
  0005e	84 c0		 test	 al, al
  00060	74 20		 je	 SHORT $LN2@SyncCharDa

; 283  : 	{
; 284  : 		m_bDataSync = true;

  00062	c6 86 dc 03 00
	00 01		 mov	 BYTE PTR [esi+988], 1

; 285  : 		m_iMaxVirtualCharCount = m_CharDataList.size();

  00069	8b 46 08	 mov	 eax, DWORD PTR [esi+8]
  0006c	2b 46 04	 sub	 eax, DWORD PTR [esi+4]
  0006f	b9 c0 03 00 00	 mov	 ecx, 960		; 000003c0H
  00074	99		 cdq
  00075	f7 f9		 idiv	 ecx
  00077	89 86 e0 03 00
	00		 mov	 DWORD PTR [esi+992], eax

; 286  : 		return;

  0007d	e9 b6 00 00 00	 jmp	 $LN4@SyncCharDa
$LN2@SyncCharDa:

; 287  : 	}
; 288  : 
; 289  : 	if( m_dwSyncCheckTime != 0 && FRAMEGETTIME() - m_dwSyncCheckTime < 20000 )

  00082	8b 3d 00 00 00
	00		 mov	 edi, DWORD PTR __imp_?GetSingleton@ioFrameTimer@@SAAAV1@XZ
  00088	33 db		 xor	 ebx, ebx
  0008a	39 9e d8 03 00
	00		 cmp	 DWORD PTR [esi+984], ebx
  00090	74 1b		 je	 SHORT $LN1@SyncCharDa
  00092	ff d7		 call	 edi
  00094	8b c8		 mov	 ecx, eax
  00096	ff 15 00 00 00
	00		 call	 DWORD PTR __imp_?GetLoopSec@ioFrameTimer@@QBEKXZ
  0009c	2b 86 d8 03 00
	00		 sub	 eax, DWORD PTR [esi+984]
  000a2	3d 20 4e 00 00	 cmp	 eax, 20000		; 00004e20H
  000a7	0f 82 8b 00 00
	00		 jb	 $LN4@SyncCharDa
$LN1@SyncCharDa:

; 290  : 		return;
; 291  : 
; 292  : 	m_dwSyncCheckTime = FRAMEGETTIME();

  000ad	ff d7		 call	 edi
  000af	8b c8		 mov	 ecx, eax
  000b1	ff 15 00 00 00
	00		 call	 DWORD PTR __imp_?GetLoopSec@ioFrameTimer@@QBEKXZ

; 293  : 	
; 294  : 	SP2Packet kPacket( CTPK_USER_CHAR_INFO_REFRESH );

  000b7	68 36 02 00 00	 push	 566			; 00000236H
  000bc	8d 8d d8 7f ff
	ff		 lea	 ecx, DWORD PTR _kPacket$[ebp]
  000c2	89 86 d8 03 00
	00		 mov	 DWORD PTR [esi+984], eax
  000c8	e8 00 00 00 00	 call	 ??0SP2Packet@@QAE@K@Z	; SP2Packet::SP2Packet

; 295  : 	kPacket << rkUserName << 0 << CHARINFODATA_SYNC_COUNT;

  000cd	6a 06		 push	 6
  000cf	53		 push	 ebx
  000d0	ff b5 d4 7f ff
	ff		 push	 DWORD PTR _rkUserName$GSCopy$[ebp]
  000d6	8d 8d d8 7f ff
	ff		 lea	 ecx, DWORD PTR _kPacket$[ebp]
  000dc	89 5d fc	 mov	 DWORD PTR __$EHRec$[ebp+8], ebx
  000df	e8 00 00 00 00	 call	 ??6SP2Packet@@QAEAAV0@ABVioHashString@@@Z ; SP2Packet::operator<<
  000e4	8b c8		 mov	 ecx, eax
  000e6	e8 00 00 00 00	 call	 ??6SP2Packet@@QAEAAV0@H@Z ; SP2Packet::operator<<
  000eb	8b c8		 mov	 ecx, eax
  000ed	e8 00 00 00 00	 call	 ??6SP2Packet@@QAEAAV0@H@Z ; SP2Packet::operator<<

; 296  : 	TCPNetwork::SendToServer( kPacket );

  000f2	8d 85 d8 7f ff
	ff		 lea	 eax, DWORD PTR _kPacket$[ebp]
  000f8	50		 push	 eax
  000f9	e8 00 00 00 00	 call	 ?SendToServer@TCPNetwork@@YAXAAVSP2Packet@@@Z ; TCPNetwork::SendToServer
  000fe	59		 pop	 ecx

; 297  : 
; 298  : 	// 첫 동기화할 때 데이터 초기화
; 299  : 	m_bDataSync = false;
; 300  : 	m_CharDataList.clear();

  000ff	8d 4e 04	 lea	 ecx, DWORD PTR [esi+4]
  00102	88 9e dc 03 00
	00		 mov	 BYTE PTR [esi+988], bl
  00108	8b 41 04	 mov	 eax, DWORD PTR [ecx+4]
  0010b	8b 11		 mov	 edx, DWORD PTR [ecx]
  0010d	50		 push	 eax
  0010e	52		 push	 edx
  0010f	8d 85 d4 7f ff
	ff		 lea	 eax, DWORD PTR $T525480[ebp]
  00115	50		 push	 eax
  00116	e8 00 00 00 00	 call	 ?erase@?$vector@UCharInfoData@@V?$allocator@UCharInfoData@@@std@@@std@@QAE?AV?$_Vector_iterator@V?$_Vector_val@UCharInfoData@@V?$allocator@UCharInfoData@@@std@@@std@@@2@V?$_Vector_const_iterator@V?$_Vector_val@UCharInfoData@@V?$allocator@UCharInfoData@@@std@@@std@@@2@0@Z ; std::vector<CharInfoData,std::allocator<CharInfoData> >::erase

; 301  : 	m_LeaderCharData.Init();

  0011b	8d 4e 14	 lea	 ecx, DWORD PTR [esi+20]
  0011e	e8 00 00 00 00	 call	 ?Init@CharInfoData@@QAEXXZ ; CharInfoData::Init

; 302  : 	m_iMaxVirtualCharCount = 0;
; 303  : }

  00123	83 4d fc ff	 or	 DWORD PTR __$EHRec$[ebp+8], -1
  00127	8d 8d d8 7f ff
	ff		 lea	 ecx, DWORD PTR _kPacket$[ebp]
  0012d	89 9e e0 03 00
	00		 mov	 DWORD PTR [esi+992], ebx
  00133	e8 00 00 00 00	 call	 ??1SP2Packet@@UAE@XZ	; SP2Packet::~SP2Packet
$LN4@SyncCharDa:
  00138	8b 4d f4	 mov	 ecx, DWORD PTR __$EHRec$[ebp]
  0013b	64 89 0d 00 00
	00 00		 mov	 DWORD PTR fs:0, ecx
  00142	59		 pop	 ecx
  00143	5f		 pop	 edi
  00144	5e		 pop	 esi
  00145	5b		 pop	 ebx
  00146	8b 4d f0	 mov	 ecx, DWORD PTR __$ArrayPad$[ebp]
  00149	33 cd		 xor	 ecx, ebp
  0014b	e8 00 00 00 00	 call	 @__security_check_cookie@4
  00150	c9		 leave
  00151	c2 08 00	 ret	 8
_TEXT	ENDS
;	COMDAT text$x
text$x	SEGMENT
__unwindfunclet$?SyncCharData@UserInfoCharData@@QAEXABVioHashString@@_N@Z$0:
  00000	8d 8d d8 7f ff
	ff		 lea	 ecx, DWORD PTR _kPacket$[ebp]
  00006	e9 00 00 00 00	 jmp	 ??1SP2Packet@@UAE@XZ	; SP2Packet::~SP2Packet
__ehhandler$?SyncCharData@UserInfoCharData@@QAEXABVioHashString@@_N@Z:
  0000b	8b 54 24 08	 mov	 edx, DWORD PTR [esp+8]
  0000f	8d 42 0c	 lea	 eax, DWORD PTR [edx+12]
  00012	8b 8a d0 7f ff
	ff		 mov	 ecx, DWORD PTR [edx-32816]
  00018	33 c8		 xor	 ecx, eax
  0001a	e8 00 00 00 00	 call	 @__security_check_cookie@4
  0001f	8b 4a fc	 mov	 ecx, DWORD PTR [edx-4]
  00022	33 c8		 xor	 ecx, eax
  00024	e8 00 00 00 00	 call	 @__security_check_cookie@4
  00029	b8 00 00 00 00	 mov	 eax, OFFSET __ehfuncinfo$?SyncCharData@UserInfoCharData@@QAEXABVioHashString@@_N@Z
  0002e	e9 00 00 00 00	 jmp	 ___CxxFrameHandler3
text$x	ENDS
?SyncCharData@UserInfoCharData@@QAEXABVioHashString@@_N@Z ENDP ; UserInfoCharData::SyncCharData
; Function compile flags: /Ogsp
;	COMDAT ??_GUserInfoNode@@UAEPAXI@Z
_TEXT	SEGMENT
___flags$ = 8						; size = 4
??_GUserInfoNode@@UAEPAXI@Z PROC			; UserInfoNode::`scalar deleting destructor', COMDAT
; _this$ = ecx
  00000	55		 push	 ebp
  00001	8b ec		 mov	 ebp, esp
  00003	56		 push	 esi
  00004	8b f1		 mov	 esi, ecx
  00006	e8 00 00 00 00	 call	 ??1UserInfoNode@@UAE@XZ	; UserInfoNode::~UserInfoNode
  0000b	f6 45 08 01	 test	 BYTE PTR ___flags$[ebp], 1
  0000f	74 07		 je	 SHORT $LN1@scalar@6
  00011	56		 push	 esi
  00012	e8 00 00 00 00	 call	 ??3@YAXPAX@Z		; operator delete
  00017	59		 pop	 ecx
$LN1@scalar@6:
  00018	8b c6		 mov	 eax, esi
  0001a	5e		 pop	 esi
  0001b	5d		 pop	 ebp
  0001c	c2 04 00	 ret	 4
??_GUserInfoNode@@UAEPAXI@Z ENDP			; UserInfoNode::`scalar deleting destructor'
_TEXT	ENDS
PUBLIC	?UserInfoCharDataSync@ioUserInfoMgr@@QAEXABVioHashString@@_N@Z ; ioUserInfoMgr::UserInfoCharDataSync
; Function compile flags: /Ogsp
;	COMDAT ?UserInfoCharDataSync@ioUserInfoMgr@@QAEXABVioHashString@@_N@Z
_TEXT	SEGMENT
_szID$ = 8						; size = 4
_bOnline$ = 12						; size = 1
?UserInfoCharDataSync@ioUserInfoMgr@@QAEXABVioHashString@@_N@Z PROC ; ioUserInfoMgr::UserInfoCharDataSync, COMDAT
; _this$ = ecx

; 1351 : {

  00000	55		 push	 ebp
  00001	8b ec		 mov	 ebp, esp

; 1352 : 	UserInfoNode *pUserInfoNode = GetUserInfoNode( szID, false );

  00003	6a 00		 push	 0
  00005	ff 75 08	 push	 DWORD PTR _szID$[ebp]
  00008	e8 00 00 00 00	 call	 ?GetUserInfoNode@ioUserInfoMgr@@QAEPAVUserInfoNode@@ABVioHashString@@_N@Z ; ioUserInfoMgr::GetUserInfoNode

; 1353 : 	if( pUserInfoNode )

  0000d	85 c0		 test	 eax, eax
  0000f	74 0c		 je	 SHORT $LN1@UserInfoCh

; 1354 : 	{
; 1355 : 		UserInfoCharData &rkCharData = pUserInfoNode->GetUserCharData();

  00011	8d 88 c8 00 00
	00		 lea	 ecx, DWORD PTR [eax+200]

; 1357 : 	}
; 1358 : }

  00017	5d		 pop	 ebp

; 1356 : 		rkCharData.SyncCharData( szID, bOnline );

  00018	e9 00 00 00 00	 jmp	 ?SyncCharData@UserInfoCharData@@QAEXABVioHashString@@_N@Z ; UserInfoCharData::SyncCharData
$LN1@UserInfoCh:

; 1357 : 	}
; 1358 : }

  0001d	5d		 pop	 ebp
  0001e	c2 08 00	 ret	 8
?UserInfoCharDataSync@ioUserInfoMgr@@QAEXABVioHashString@@_N@Z ENDP ; ioUserInfoMgr::UserInfoCharDataSync
_TEXT	ENDS
PUBLIC	?push_back@?$vector@UCharInfoData@@V?$allocator@UCharInfoData@@@std@@@std@@QAEXABUCharInfoData@@@Z ; std::vector<CharInfoData,std::allocator<CharInfoData> >::push_back
; Function compile flags: /Ogsp
; File c:\program files (x86)\microsoft visual studio 10.0\vc\include\vector
;	COMDAT ?push_back@?$vector@UCharInfoData@@V?$allocator@UCharInfoData@@@std@@@std@@QAEXABUCharInfoData@@@Z
_TEXT	SEGMENT
__Val$ = 8						; size = 4
?push_back@?$vector@UCharInfoData@@V?$allocator@UCharInfoData@@@std@@@std@@QAEXABUCharInfoData@@@Z PROC ; std::vector<CharInfoData,std::allocator<CharInfoData> >::push_back, COMDAT
; _this$ = ecx

; 976  : 		{	// insert element at end

  00000	55		 push	 ebp
  00001	8b ec		 mov	 ebp, esp
  00003	56		 push	 esi
  00004	8b f1		 mov	 esi, ecx

; 977  : 		if (_Inside(_STD addressof(_Val)))

  00006	8b 4e 04	 mov	 ecx, DWORD PTR [esi+4]
  00009	57		 push	 edi
  0000a	8b 7d 08	 mov	 edi, DWORD PTR __Val$[ebp]
  0000d	3b f9		 cmp	 edi, ecx
  0000f	73 3c		 jae	 SHORT $LN4@push_back@3
  00011	8b 16		 mov	 edx, DWORD PTR [esi]
  00013	3b d7		 cmp	 edx, edi
  00015	77 36		 ja	 SHORT $LN4@push_back@3

; 978  : 			{	// push back an element
; 979  : 			size_type _Idx = _STD addressof(_Val) - this->_Myfirst;

  00017	8b c7		 mov	 eax, edi
  00019	2b c2		 sub	 eax, edx
  0001b	99		 cdq
  0001c	bf c0 03 00 00	 mov	 edi, 960		; 000003c0H
  00021	f7 ff		 idiv	 edi
  00023	8b f8		 mov	 edi, eax

; 980  : 			if (this->_Mylast == this->_Myend)

  00025	3b 4e 08	 cmp	 ecx, DWORD PTR [esi+8]
  00028	75 09		 jne	 SHORT $LN3@push_back@3

; 981  : 				_Reserve(1);

  0002a	6a 01		 push	 1
  0002c	8b ce		 mov	 ecx, esi
  0002e	e8 00 00 00 00	 call	 ?_Reserve@?$vector@UCharInfoData@@V?$allocator@UCharInfoData@@@std@@@std@@IAEXI@Z ; std::vector<CharInfoData,std::allocator<CharInfoData> >::_Reserve
$LN3@push_back@3:

; 982  : 			_Orphan_range(this->_Mylast, this->_Mylast);
; 983  : 			_Cons_val(this->_Alval,
; 984  : 				this->_Mylast,
; 985  : 				this->_Myfirst[_Idx]);

  00033	69 ff c0 03 00
	00		 imul	 edi, 960		; 000003c0H
  00039	03 3e		 add	 edi, DWORD PTR [esi]
  0003b	8d 46 0c	 lea	 eax, DWORD PTR [esi+12]
  0003e	57		 push	 edi
  0003f	ff 76 04	 push	 DWORD PTR [esi+4]
  00042	50		 push	 eax
  00043	e8 00 00 00 00	 call	 ??$_Cons_val@V?$allocator@UCharInfoData@@@std@@UCharInfoData@@AAU3@@std@@YAXAAV?$allocator@UCharInfoData@@@0@PAUCharInfoData@@AAU2@@Z ; std::_Cons_val<std::allocator<CharInfoData>,CharInfoData,CharInfoData &>
  00048	83 c4 0c	 add	 esp, 12			; 0000000cH

; 986  : 			++this->_Mylast;
; 987  : 			}
; 988  : 		else

  0004b	eb 19		 jmp	 SHORT $LN26@push_back@3
$LN4@push_back@3:

; 989  : 			{	// push back a non-element
; 990  : 			if (this->_Mylast == this->_Myend)

  0004d	3b 4e 08	 cmp	 ecx, DWORD PTR [esi+8]
  00050	75 09		 jne	 SHORT $LN1@push_back@3

; 991  : 				_Reserve(1);

  00052	6a 01		 push	 1
  00054	8b ce		 mov	 ecx, esi
  00056	e8 00 00 00 00	 call	 ?_Reserve@?$vector@UCharInfoData@@V?$allocator@UCharInfoData@@@std@@@std@@IAEXI@Z ; std::vector<CharInfoData,std::allocator<CharInfoData> >::_Reserve
$LN1@push_back@3:

; 992  : 			_Orphan_range(this->_Mylast, this->_Mylast);
; 993  : 			_Cons_val(this->_Alval,
; 994  : 				this->_Mylast,
; 995  : 				_Val);

  0005b	57		 push	 edi
  0005c	ff 76 04	 push	 DWORD PTR [esi+4]
  0005f	e8 00 00 00 00	 call	 ??$_Construct@UCharInfoData@@ABU1@@std@@YAXPAUCharInfoData@@ABU1@@Z ; std::_Construct<CharInfoData,CharInfoData const &>
  00064	59		 pop	 ecx
  00065	59		 pop	 ecx
$LN26@push_back@3:

; 996  : 			++this->_Mylast;

  00066	81 46 04 c0 03
	00 00		 add	 DWORD PTR [esi+4], 960	; 000003c0H
  0006d	5f		 pop	 edi
  0006e	5e		 pop	 esi

; 997  : 			}
; 998  : 		}

  0006f	5d		 pop	 ebp
  00070	c2 04 00	 ret	 4
?push_back@?$vector@UCharInfoData@@V?$allocator@UCharInfoData@@@std@@@std@@QAEXABUCharInfoData@@@Z ENDP ; std::vector<CharInfoData,std::allocator<CharInfoData> >::push_back
_TEXT	ENDS
PUBLIC	??$sort@V?$_Vector_iterator@V?$_Vector_val@UCharInfoData@@V?$allocator@UCharInfoData@@@std@@@std@@@std@@VCharInfoSort@@@std@@YAXV?$_Vector_iterator@V?$_Vector_val@UCharInfoData@@V?$allocator@UCharInfoData@@@std@@@std@@@0@0VCharInfoSort@@@Z ; std::sort<std::_Vector_iterator<std::_Vector_val<CharInfoData,std::allocator<CharInfoData> > >,CharInfoSort>
; Function compile flags: /Ogsp
; File c:\program files (x86)\microsoft visual studio 10.0\vc\include\algorithm
;	COMDAT ??$sort@V?$_Vector_iterator@V?$_Vector_val@UCharInfoData@@V?$allocator@UCharInfoData@@@std@@@std@@@std@@VCharInfoSort@@@std@@YAXV?$_Vector_iterator@V?$_Vector_val@UCharInfoData@@V?$allocator@UCharInfoData@@@std@@@std@@@0@0VCharInfoSort@@@Z
_TEXT	SEGMENT
__First$ = 8						; size = 4
__Last$ = 12						; size = 4
__Pred$ = 16						; size = 1
??$sort@V?$_Vector_iterator@V?$_Vector_val@UCharInfoData@@V?$allocator@UCharInfoData@@@std@@@std@@@std@@VCharInfoSort@@@std@@YAXV?$_Vector_iterator@V?$_Vector_val@UCharInfoData@@V?$allocator@UCharInfoData@@@std@@@std@@@0@0VCharInfoSort@@@Z PROC ; std::sort<std::_Vector_iterator<std::_Vector_val<CharInfoData,std::allocator<CharInfoData> > >,CharInfoSort>, COMDAT

; 3803 : 	{	// order [_First, _Last), using _Pred

  00000	55		 push	 ebp
  00001	8b ec		 mov	 ebp, esp

; 3804 : 	_DEBUG_RANGE(_First, _Last);
; 3805 : 	_DEBUG_POINTER(_Pred);
; 3806 : 	_Sort(_Unchecked(_First), _Unchecked(_Last), _Last - _First, _Pred);

  00003	8b 45 0c	 mov	 eax, DWORD PTR __Last$[ebp]
  00006	2b 45 08	 sub	 eax, DWORD PTR __First$[ebp]
  00009	b9 c0 03 00 00	 mov	 ecx, 960		; 000003c0H
  0000e	99		 cdq
  0000f	f7 f9		 idiv	 ecx
  00011	ff 75 10	 push	 DWORD PTR __Pred$[ebp]
  00014	50		 push	 eax
  00015	ff 75 0c	 push	 DWORD PTR __Last$[ebp]
  00018	ff 75 08	 push	 DWORD PTR __First$[ebp]
  0001b	e8 00 00 00 00	 call	 ??$_Sort@PAUCharInfoData@@HVCharInfoSort@@@std@@YAXPAUCharInfoData@@0HVCharInfoSort@@@Z ; std::_Sort<CharInfoData *,int,CharInfoSort>
  00020	83 c4 10	 add	 esp, 16			; 00000010H

; 3807 : 	}

  00023	5d		 pop	 ebp
  00024	c3		 ret	 0
??$sort@V?$_Vector_iterator@V?$_Vector_val@UCharInfoData@@V?$allocator@UCharInfoData@@@std@@@std@@@std@@VCharInfoSort@@@std@@YAXV?$_Vector_iterator@V?$_Vector_val@UCharInfoData@@V?$allocator@UCharInfoData@@@std@@@std@@@0@0VCharInfoSort@@@Z ENDP ; std::sort<std::_Vector_iterator<std::_Vector_val<CharInfoData,std::allocator<CharInfoData> > >,CharInfoSort>
_TEXT	ENDS
PUBLIC	?CharacterSort@UserInfoCharData@@QAEXXZ		; UserInfoCharData::CharacterSort
; Function compile flags: /Ogsp
; File d:\lost saga for developer\youtube\tutorial\source\src\lsclient\gui\iouserinfomgr.cpp
;	COMDAT ?CharacterSort@UserInfoCharData@@QAEXXZ
_TEXT	SEGMENT
$T525589 = -4						; size = 1
?CharacterSort@UserInfoCharData@@QAEXXZ PROC		; UserInfoCharData::CharacterSort, COMDAT
; _this$ = ecx

; 232  : {

  00000	55		 push	 ebp
  00001	8b ec		 mov	 ebp, esp
  00003	51		 push	 ecx
  00004	56		 push	 esi

; 233  : 	//
; 234  : 	std::sort( m_CharDataList.begin(), m_CharDataList.end(), CharInfoSort() );

  00005	ff 75 fc	 push	 DWORD PTR $T525589[ebp]
  00008	8b f1		 mov	 esi, ecx
  0000a	8b 46 08	 mov	 eax, DWORD PTR [esi+8]
  0000d	8b 4e 04	 mov	 ecx, DWORD PTR [esi+4]
  00010	50		 push	 eax
  00011	51		 push	 ecx
  00012	e8 00 00 00 00	 call	 ??$sort@V?$_Vector_iterator@V?$_Vector_val@UCharInfoData@@V?$allocator@UCharInfoData@@@std@@@std@@@std@@VCharInfoSort@@@std@@YAXV?$_Vector_iterator@V?$_Vector_val@UCharInfoData@@V?$allocator@UCharInfoData@@@std@@@std@@@0@0VCharInfoSort@@@Z ; std::sort<std::_Vector_iterator<std::_Vector_val<CharInfoData,std::allocator<CharInfoData> > >,CharInfoSort>
  00017	83 c4 0c	 add	 esp, 12			; 0000000cH

; 235  : 	UpdateUI();

  0001a	8b ce		 mov	 ecx, esi
  0001c	e8 00 00 00 00	 call	 ?UpdateUI@UserInfoCharData@@QAEXXZ ; UserInfoCharData::UpdateUI
  00021	5e		 pop	 esi

; 236  : }

  00022	c9		 leave
  00023	c3		 ret	 0
?CharacterSort@UserInfoCharData@@QAEXXZ ENDP		; UserInfoCharData::CharacterSort
_TEXT	ENDS
PUBLIC	_rkCharInfo$GSCopy$
PUBLIC	?SetCharacter@UserInfoCharData@@QAEXABUCHARACTER@@H@Z ; UserInfoCharData::SetCharacter
;	COMDAT xdata$x
; File d:\lost saga for developer\youtube\tutorial\source\src\lsclient\encryptvalue.h
xdata$x	SEGMENT
__unwindtable$?SetCharacter@UserInfoCharData@@QAEXABUCHARACTER@@H@Z DD 0ffffffffH
	DD	FLAT:__unwindfunclet$?SetCharacter@UserInfoCharData@@QAEXABUCHARACTER@@H@Z$0
__ehfuncinfo$?SetCharacter@UserInfoCharData@@QAEXABUCHARACTER@@H@Z DD 019930522H
	DD	01H
	DD	FLAT:__unwindtable$?SetCharacter@UserInfoCharData@@QAEXABUCHARACTER@@H@Z
	DD	2 DUP(00H)
	DD	2 DUP(00H)
	DD	00H
	DD	01H
; Function compile flags: /Ogsp
; File d:\lost saga for developer\youtube\tutorial\source\src\lsclient\gui\iouserinfomgr.cpp
xdata$x	ENDS
;	COMDAT ?SetCharacter@UserInfoCharData@@QAEXABUCHARACTER@@H@Z
_TEXT	SEGMENT
_value$525732 = -988					; size = 4
_value$525737 = -984					; size = 4
_rkCharInfo$GSCopy$ = -980				; size = 4
_kData$ = -976						; size = 960
__$EHRec$ = -12						; size = 12
_rkCharInfo$ = 8					; size = 4
_iClassLevel$ = 12					; size = 4
?SetCharacter@UserInfoCharData@@QAEXABUCHARACTER@@H@Z PROC ; UserInfoCharData::SetCharacter, COMDAT
; _this$ = ecx

; 73   : {

  00000	68 d0 03 00 00	 push	 976			; 000003d0H
  00005	b8 00 00 00 00	 mov	 eax, __ehhandler$?SetCharacter@UserInfoCharData@@QAEXABUCHARACTER@@H@Z
  0000a	e8 00 00 00 00	 call	 __EH_prolog3_GS

; 76   : 	{
; 77   : 		CharInfoData &rkData = *iter;
; 78   : 		if( rkData.m_CharInfo.m_class_type == rkCharInfo.m_class_type )

  0000f	8b 45 08	 mov	 eax, DWORD PTR _rkCharInfo$[ebp]
  00012	8b f9		 mov	 edi, ecx
  00014	8b 77 04	 mov	 esi, DWORD PTR [edi+4]
  00017	89 85 2c fc ff
	ff		 mov	 DWORD PTR _rkCharInfo$GSCopy$[ebp], eax
  0001d	eb 35		 jmp	 SHORT $LN47@SetCharact

; 74   : 	CharInfoDataVec::iterator iter = m_CharDataList.begin();
; 75   : 	for( ; iter != m_CharDataList.end(); ++iter )

$LN18@SetCharact:

; 76   : 	{
; 77   : 		CharInfoData &rkData = *iter;
; 78   : 		if( rkData.m_CharInfo.m_class_type == rkCharInfo.m_class_type )

  0001f	8b 8d 2c fc ff
	ff		 mov	 ecx, DWORD PTR _rkCharInfo$GSCopy$[ebp]
  00025	8d 85 24 fc ff
	ff		 lea	 eax, DWORD PTR _value$525732[ebp]
  0002b	50		 push	 eax
  0002c	e8 00 00 00 00	 call	 ?DecryptValueToPool@?$CEncrypt@H@@QAEXPAH@Z ; CEncrypt<int>::DecryptValueToPool
  00031	8d 85 28 fc ff
	ff		 lea	 eax, DWORD PTR _value$525737[ebp]
  00037	50		 push	 eax
  00038	8d 4e 08	 lea	 ecx, DWORD PTR [esi+8]
  0003b	e8 00 00 00 00	 call	 ?DecryptValueToPool@?$CEncrypt@H@@QAEXPAH@Z ; CEncrypt<int>::DecryptValueToPool
  00040	8b 85 28 fc ff
	ff		 mov	 eax, DWORD PTR _value$525737[ebp]
  00046	3b 85 24 fc ff
	ff		 cmp	 eax, DWORD PTR _value$525732[ebp]
  0004c	74 73		 je	 SHORT $LN43@SetCharact

; 74   : 	CharInfoDataVec::iterator iter = m_CharDataList.begin();
; 75   : 	for( ; iter != m_CharDataList.end(); ++iter )

  0004e	81 c6 c0 03 00
	00		 add	 esi, 960		; 000003c0H
$LN47@SetCharact:
  00054	3b 77 08	 cmp	 esi, DWORD PTR [edi+8]
  00057	75 c6		 jne	 SHORT $LN18@SetCharact

; 88   : 		}
; 89   : 	}
; 90   : 
; 91   : 	CharInfoData kData;

  00059	8d 8d 30 fc ff
	ff		 lea	 ecx, DWORD PTR _kData$[ebp]
  0005f	e8 00 00 00 00	 call	 ??0CharInfoData@@QAE@XZ	; CharInfoData::CharInfoData

; 92   : 	kData.m_iClassLevel		  = iClassLevel;

  00064	8b 45 0c	 mov	 eax, DWORD PTR _iClassLevel$[ebp]

; 93   : 	kData.m_CharInfo		  = rkCharInfo;

  00067	ff b5 2c fc ff
	ff		 push	 DWORD PTR _rkCharInfo$GSCopy$[ebp]
  0006d	83 65 fc 00	 and	 DWORD PTR __$EHRec$[ebp+8], 0
  00071	8d 8d 38 fc ff
	ff		 lea	 ecx, DWORD PTR _kData$[ebp+8]
  00077	89 85 34 fc ff
	ff		 mov	 DWORD PTR _kData$[ebp+4], eax
  0007d	e8 00 00 00 00	 call	 ??4CHARACTER@@QAEAAU0@ABU0@@Z ; CHARACTER::operator=

; 94   : 	kData.m_bChangeData		  = true;
; 95   : 
; 96   : 	m_CharDataList.push_back( kData );

  00082	8d 85 30 fc ff
	ff		 lea	 eax, DWORD PTR _kData$[ebp]
  00088	50		 push	 eax
  00089	8d 4f 04	 lea	 ecx, DWORD PTR [edi+4]
  0008c	c6 45 e8 01	 mov	 BYTE PTR _kData$[ebp+952], 1
  00090	e8 00 00 00 00	 call	 ?push_back@?$vector@UCharInfoData@@V?$allocator@UCharInfoData@@@std@@@std@@QAEXABUCharInfoData@@@Z ; std::vector<CharInfoData,std::allocator<CharInfoData> >::push_back

; 97   : 	SelectLeader( kData );

  00095	8d 85 30 fc ff
	ff		 lea	 eax, DWORD PTR _kData$[ebp]
  0009b	50		 push	 eax
  0009c	8b cf		 mov	 ecx, edi
  0009e	e8 00 00 00 00	 call	 ?SelectLeader@UserInfoCharData@@IAEXAAUCharInfoData@@@Z ; UserInfoCharData::SelectLeader

; 98   : 	CharacterSort();

  000a3	8b cf		 mov	 ecx, edi
  000a5	e8 00 00 00 00	 call	 ?CharacterSort@UserInfoCharData@@QAEXXZ ; UserInfoCharData::CharacterSort

; 99   : }

  000aa	83 4d fc ff	 or	 DWORD PTR __$EHRec$[ebp+8], -1
  000ae	8d 8d 30 fc ff
	ff		 lea	 ecx, DWORD PTR _kData$[ebp]
  000b4	e8 00 00 00 00	 call	 ??1CharInfoData@@QAE@XZ
$LN5@SetCharact:
  000b9	e8 00 00 00 00	 call	 __EH_epilog3_GS
  000be	c2 08 00	 ret	 8
$LN43@SetCharact:

; 79   : 		{
; 80   : 			rkData.m_iClassLevel	= iClassLevel;

  000c1	8b 45 0c	 mov	 eax, DWORD PTR _iClassLevel$[ebp]

; 81   : 			rkData.m_CharInfo		= rkCharInfo;

  000c4	8b 9d 2c fc ff
	ff		 mov	 ebx, DWORD PTR _rkCharInfo$GSCopy$[ebp]
  000ca	53		 push	 ebx
  000cb	8d 4e 08	 lea	 ecx, DWORD PTR [esi+8]
  000ce	89 46 04	 mov	 DWORD PTR [esi+4], eax
  000d1	e8 00 00 00 00	 call	 ??4CHARACTER@@QAEAAU0@ABU0@@Z ; CHARACTER::operator=

; 82   : 			rkData.m_bChangeData	= true;

  000d6	c6 86 b8 03 00
	00 01		 mov	 BYTE PTR [esi+952], 1

; 83   : 			rkData.m_iAwakeType		= rkCharInfo.m_iAwakeType;

  000dd	0f b6 83 b6 02
	00 00		 movzx	 eax, BYTE PTR [ebx+694]

; 84   : 
; 85   : 			SelectLeader( rkData );

  000e4	56		 push	 esi
  000e5	8b cf		 mov	 ecx, edi
  000e7	89 86 bc 03 00
	00		 mov	 DWORD PTR [esi+956], eax
  000ed	e8 00 00 00 00	 call	 ?SelectLeader@UserInfoCharData@@IAEXAAUCharInfoData@@@Z ; UserInfoCharData::SelectLeader

; 86   : 			CharacterSort();

  000f2	8b cf		 mov	 ecx, edi
  000f4	e8 00 00 00 00	 call	 ?CharacterSort@UserInfoCharData@@QAEXXZ ; UserInfoCharData::CharacterSort

; 87   : 			return;

  000f9	eb be		 jmp	 SHORT $LN5@SetCharact
_TEXT	ENDS
;	COMDAT text$x
text$x	SEGMENT
__unwindfunclet$?SetCharacter@UserInfoCharData@@QAEXABUCHARACTER@@H@Z$0:
  00000	8d 8d 30 fc ff
	ff		 lea	 ecx, DWORD PTR _kData$[ebp]
  00006	e9 00 00 00 00	 jmp	 ??1CharInfoData@@QAE@XZ
__ehhandler$?SetCharacter@UserInfoCharData@@QAEXABUCHARACTER@@H@Z:
  0000b	8b 54 24 08	 mov	 edx, DWORD PTR [esp+8]
  0000f	8d 42 0c	 lea	 eax, DWORD PTR [edx+12]
  00012	8b 8a 20 fc ff
	ff		 mov	 ecx, DWORD PTR [edx-992]
  00018	33 c8		 xor	 ecx, eax
  0001a	e8 00 00 00 00	 call	 @__security_check_cookie@4
  0001f	8b 4a fc	 mov	 ecx, DWORD PTR [edx-4]
  00022	33 c8		 xor	 ecx, eax
  00024	e8 00 00 00 00	 call	 @__security_check_cookie@4
  00029	b8 00 00 00 00	 mov	 eax, OFFSET __ehfuncinfo$?SetCharacter@UserInfoCharData@@QAEXABUCHARACTER@@H@Z
  0002e	e9 00 00 00 00	 jmp	 ___CxxFrameHandler3
text$x	ENDS
?SetCharacter@UserInfoCharData@@QAEXABUCHARACTER@@H@Z ENDP ; UserInfoCharData::SetCharacter
PUBLIC	?ApplyCharData@UserInfoCharData@@QAEXABVioHashString@@AAVSP2Packet@@@Z ; UserInfoCharData::ApplyCharData
EXTRN	??5SP2Packet@@QAEAAV0@AAUCHARACTER@@@Z:PROC	; SP2Packet::operator>>
EXTRN	??5SP2Packet@@QAEAAV0@AAK@Z:PROC		; SP2Packet::operator>>
EXTRN	??5SP2Packet@@QAEAAV0@AA_N@Z:PROC		; SP2Packet::operator>>
;	COMDAT xdata$x
; File d:\lost saga for developer\youtube\tutorial\source\src\lsclient\encryptvalue.h
xdata$x	SEGMENT
__unwindtable$?ApplyCharData@UserInfoCharData@@QAEXABVioHashString@@AAVSP2Packet@@@Z DD 0ffffffffH
	DD	FLAT:__unwindfunclet$?ApplyCharData@UserInfoCharData@@QAEXABVioHashString@@AAVSP2Packet@@@Z$0
	DD	0ffffffffH
	DD	FLAT:__unwindfunclet$?ApplyCharData@UserInfoCharData@@QAEXABVioHashString@@AAVSP2Packet@@@Z$1
__ehfuncinfo$?ApplyCharData@UserInfoCharData@@QAEXABVioHashString@@AAVSP2Packet@@@Z DD 019930522H
	DD	02H
	DD	FLAT:__unwindtable$?ApplyCharData@UserInfoCharData@@QAEXABVioHashString@@AAVSP2Packet@@@Z
	DD	2 DUP(00H)
	DD	2 DUP(00H)
	DD	00H
	DD	01H
; Function compile flags: /Ogsp
; File d:\lost saga for developer\youtube\tutorial\source\src\lsclient\gui\iouserinfomgr.cpp
xdata$x	ENDS
;	COMDAT ?ApplyCharData@UserInfoCharData@@QAEXABVioHashString@@AAVSP2Packet@@@Z
_TEXT	SEGMENT
_iStartArray$ = -1728					; size = 4
_iClassLevel$513988 = -1724				; size = 4
_iCurSize$ = -1720					; size = 4
tv713 = -1716						; size = 4
_iClassLevel$513974 = -1716				; size = 4
tv538 = -1712						; size = 4
_i$513982 = -1712					; size = 4
_bOK$513972 = -1706					; size = 1
_bOK$513986 = -1705					; size = 1
_kCharInfo$513975 = -1704				; size = 804
_kCharInfo$513989 = -900				; size = 804
_kEquipItem$513990 = -96				; size = 80
_kEquipItem$513976 = -96				; size = 80
__$EHRec$ = -12						; size = 12
_rkUserName$ = 8					; size = 4
_rkPacket$ = 12						; size = 4
?ApplyCharData@UserInfoCharData@@QAEXABVioHashString@@AAVSP2Packet@@@Z PROC ; UserInfoCharData::ApplyCharData, COMDAT
; _this$ = ecx

; 336  : {

  00000	68 b4 06 00 00	 push	 1716			; 000006b4H
  00005	b8 00 00 00 00	 mov	 eax, __ehhandler$?ApplyCharData@UserInfoCharData@@QAEXABVioHashString@@AAVSP2Packet@@@Z
  0000a	e8 00 00 00 00	 call	 __EH_prolog3_GS
  0000f	8b 5d 0c	 mov	 ebx, DWORD PTR _rkPacket$[ebp]
  00012	8b f1		 mov	 esi, ecx

; 337  : 	int iStartArray, iCurSize;
; 338  : 	rkPacket >> iStartArray >> m_iMaxVirtualCharCount >> iCurSize;

  00014	8d 85 48 f9 ff
	ff		 lea	 eax, DWORD PTR _iCurSize$[ebp]
  0001a	50		 push	 eax
  0001b	8d 86 e0 03 00
	00		 lea	 eax, DWORD PTR [esi+992]
  00021	50		 push	 eax
  00022	8d 85 40 f9 ff
	ff		 lea	 eax, DWORD PTR _iStartArray$[ebp]
  00028	50		 push	 eax
  00029	8b cb		 mov	 ecx, ebx
  0002b	e8 00 00 00 00	 call	 ??5SP2Packet@@QAEAAV0@AAH@Z ; SP2Packet::operator>>
  00030	8b c8		 mov	 ecx, eax
  00032	e8 00 00 00 00	 call	 ??5SP2Packet@@QAEAAV0@AAH@Z ; SP2Packet::operator>>
  00037	8b c8		 mov	 ecx, eax
  00039	e8 00 00 00 00	 call	 ??5SP2Packet@@QAEAAV0@AAH@Z ; SP2Packet::operator>>

; 339  : 
; 340  : 	if( iStartArray == 0 )

  0003e	33 ff		 xor	 edi, edi
  00040	39 bd 40 f9 ff
	ff		 cmp	 DWORD PTR _iStartArray$[ebp], edi
  00046	0f 85 ea 00 00
	00		 jne	 $LN11@ApplyCharD

; 341  : 	{
; 342  : 		// 첫 동기화때 대표 캐릭 가져온다. - 대표 캐릭은 리스트에 포함시키지 않음
; 343  : 		bool bOK;
; 344  : 		rkPacket >> bOK;		

  0004c	8d 85 56 f9 ff
	ff		 lea	 eax, DWORD PTR _bOK$513972[ebp]
  00052	50		 push	 eax
  00053	8b cb		 mov	 ecx, ebx
  00055	e8 00 00 00 00	 call	 ??5SP2Packet@@QAEAAV0@AA_N@Z ; SP2Packet::operator>>

; 345  : 		if( bOK )

  0005a	80 bd 56 f9 ff
	ff 00		 cmp	 BYTE PTR _bOK$513972[ebp], 0
  00061	0f 84 cf 00 00
	00		 je	 $LN11@ApplyCharD

; 346  : 		{
; 347  : 			rkPacket >> m_dwLeaderMotion;

  00067	8d be d4 03 00
	00		 lea	 edi, DWORD PTR [esi+980]
  0006d	57		 push	 edi
  0006e	8b cb		 mov	 ecx, ebx
  00070	e8 00 00 00 00	 call	 ??5SP2Packet@@QAEAAV0@AAK@Z ; SP2Packet::operator>>

; 348  : 
; 349  : 			int iClassLevel;
; 350  : 			CHARACTER kCharInfo;

  00075	8d 8d 58 f9 ff
	ff		 lea	 ecx, DWORD PTR _kCharInfo$513975[ebp]
  0007b	e8 00 00 00 00	 call	 ??0CHARACTER@@QAE@XZ	; CHARACTER::CHARACTER
  00080	83 65 fc 00	 and	 DWORD PTR __$EHRec$[ebp+8], 0

; 351  : 			rkPacket >> kCharInfo >> iClassLevel;

  00084	8d 85 4c f9 ff
	ff		 lea	 eax, DWORD PTR _iClassLevel$513974[ebp]
  0008a	50		 push	 eax
  0008b	8d 85 58 f9 ff
	ff		 lea	 eax, DWORD PTR _kCharInfo$513975[ebp]
  00091	50		 push	 eax
  00092	8b cb		 mov	 ecx, ebx
  00094	e8 00 00 00 00	 call	 ??5SP2Packet@@QAEAAV0@AAUCHARACTER@@@Z ; SP2Packet::operator>>
  00099	8b c8		 mov	 ecx, eax
  0009b	e8 00 00 00 00	 call	 ??5SP2Packet@@QAEAAV0@AAH@Z ; SP2Packet::operator>>

; 352  : 			m_LeaderCharData.m_dwMotionEtcItem	= m_dwLeaderMotion;

  000a0	8b 07		 mov	 eax, DWORD PTR [edi]
  000a2	89 46 14	 mov	 DWORD PTR [esi+20], eax

; 353  : 			m_LeaderCharData.m_iClassLevel		= iClassLevel;

  000a5	8b 85 4c f9 ff
	ff		 mov	 eax, DWORD PTR _iClassLevel$513974[ebp]
  000ab	89 46 18	 mov	 DWORD PTR [esi+24], eax

; 354  : 			m_LeaderCharData.m_CharInfo			= kCharInfo;

  000ae	8d 85 58 f9 ff
	ff		 lea	 eax, DWORD PTR _kCharInfo$513975[ebp]
  000b4	50		 push	 eax
  000b5	8d 4e 1c	 lea	 ecx, DWORD PTR [esi+28]
  000b8	e8 00 00 00 00	 call	 ??4CHARACTER@@QAEAAU0@ABU0@@Z ; CHARACTER::operator=

; 355  : 			m_LeaderCharData.m_bChangeData		= true;
; 356  : 
; 357  : 			ITEM_DATA kEquipItem[MAX_INVENTORY];

  000bd	6a 03		 push	 3
  000bf	c6 86 cc 03 00
	00 01		 mov	 BYTE PTR [esi+972], 1
  000c6	59		 pop	 ecx
  000c7	8d 45 a8	 lea	 eax, DWORD PTR _kEquipItem$513976[ebp+8]
$LL18@ApplyCharD:
  000ca	83 08 ff	 or	 DWORD PTR [eax], -1
  000cd	33 d2		 xor	 edx, edx
  000cf	89 50 f8	 mov	 DWORD PTR [eax-8], edx
  000d2	89 50 fc	 mov	 DWORD PTR [eax-4], edx
  000d5	89 50 08	 mov	 DWORD PTR [eax+8], edx
  000d8	89 50 04	 mov	 DWORD PTR [eax+4], edx
  000db	83 c0 14	 add	 eax, 20			; 00000014H
  000de	49		 dec	 ecx
  000df	79 e9		 jns	 SHORT $LL18@ApplyCharD

; 358  : 			for(int k = 0;k < MAX_INVENTORY;k++)

  000e1	8d be 4c 03 00
	00		 lea	 edi, DWORD PTR [esi+844]
  000e7	c7 85 50 f9 ff
	ff 04 00 00 00	 mov	 DWORD PTR tv538[ebp], 4
$LL10@ApplyCharD:

; 359  : 			{
; 360  : 				rkPacket >> m_LeaderCharData.m_EquipItemInfo[k].m_item_code >> m_LeaderCharData.m_EquipItemInfo[k].m_item_reinforce 
; 361  : 						 >> m_LeaderCharData.m_EquipItemInfo[k].m_item_male_custom >> m_LeaderCharData.m_EquipItemInfo[k].m_item_female_custom;

  000f1	8d 47 04	 lea	 eax, DWORD PTR [edi+4]
  000f4	50		 push	 eax
  000f5	57		 push	 edi
  000f6	8d 47 f8	 lea	 eax, DWORD PTR [edi-8]
  000f9	50		 push	 eax
  000fa	8d 47 f4	 lea	 eax, DWORD PTR [edi-12]
  000fd	50		 push	 eax
  000fe	8b cb		 mov	 ecx, ebx
  00100	e8 00 00 00 00	 call	 ??5SP2Packet@@QAEAAV0@AAH@Z ; SP2Packet::operator>>
  00105	8b c8		 mov	 ecx, eax
  00107	e8 00 00 00 00	 call	 ??5SP2Packet@@QAEAAV0@AAH@Z ; SP2Packet::operator>>
  0010c	8b c8		 mov	 ecx, eax
  0010e	e8 00 00 00 00	 call	 ??5SP2Packet@@QAEAAV0@AAK@Z ; SP2Packet::operator>>
  00113	8b c8		 mov	 ecx, eax
  00115	e8 00 00 00 00	 call	 ??5SP2Packet@@QAEAAV0@AAK@Z ; SP2Packet::operator>>
  0011a	83 c7 14	 add	 edi, 20			; 00000014H
  0011d	ff 8d 50 f9 ff
	ff		 dec	 DWORD PTR tv538[ebp]
  00123	75 cc		 jne	 SHORT $LL10@ApplyCharD

; 362  : 			}
; 363  : 		}

  00125	83 4d fc ff	 or	 DWORD PTR __$EHRec$[ebp+8], -1
  00129	8d 8d 58 f9 ff
	ff		 lea	 ecx, DWORD PTR _kCharInfo$513975[ebp]
  0012f	e8 00 00 00 00	 call	 ??1CHARACTER@@QAE@XZ
  00134	33 ff		 xor	 edi, edi
$LN11@ApplyCharD:

; 364  : 	}
; 365  : 		
; 366  : 	for(int i = 0;i < iCurSize;i++)

  00136	89 bd 50 f9 ff
	ff		 mov	 DWORD PTR _i$513982[ebp], edi
  0013c	39 bd 48 f9 ff
	ff		 cmp	 DWORD PTR _iCurSize$[ebp], edi
  00142	0f 8e 0e 01 00
	00		 jle	 $LN5@ApplyCharD
$LL7@ApplyCharD:

; 367  : 	{
; 368  : 		bool bOK;
; 369  : 		rkPacket >> bOK;

  00148	8d 85 57 f9 ff
	ff		 lea	 eax, DWORD PTR _bOK$513986[ebp]
  0014e	50		 push	 eax
  0014f	8b cb		 mov	 ecx, ebx
  00151	e8 00 00 00 00	 call	 ??5SP2Packet@@QAEAAV0@AA_N@Z ; SP2Packet::operator>>

; 370  : 		if( bOK )

  00156	80 bd 57 f9 ff
	ff 00		 cmp	 BYTE PTR _bOK$513986[ebp], 0
  0015d	0f 84 db 00 00
	00		 je	 $LN6@ApplyCharD

; 371  : 		{
; 372  : 			int iClassLevel;
; 373  : 			CHARACTER kCharInfo;

  00163	8d 8d 7c fc ff
	ff		 lea	 ecx, DWORD PTR _kCharInfo$513989[ebp]
  00169	e8 00 00 00 00	 call	 ??0CHARACTER@@QAE@XZ	; CHARACTER::CHARACTER

; 374  : 			rkPacket >> kCharInfo >> iClassLevel;		

  0016e	8d 85 44 f9 ff
	ff		 lea	 eax, DWORD PTR _iClassLevel$513988[ebp]
  00174	50		 push	 eax
  00175	8d 85 7c fc ff
	ff		 lea	 eax, DWORD PTR _kCharInfo$513989[ebp]
  0017b	50		 push	 eax
  0017c	8b cb		 mov	 ecx, ebx
  0017e	c7 45 fc 01 00
	00 00		 mov	 DWORD PTR __$EHRec$[ebp+8], 1
  00185	e8 00 00 00 00	 call	 ??5SP2Packet@@QAEAAV0@AAUCHARACTER@@@Z ; SP2Packet::operator>>
  0018a	8b c8		 mov	 ecx, eax
  0018c	e8 00 00 00 00	 call	 ??5SP2Packet@@QAEAAV0@AAH@Z ; SP2Packet::operator>>

; 375  : 
; 376  : 			SetCharacter( kCharInfo, iClassLevel );

  00191	ff b5 44 f9 ff
	ff		 push	 DWORD PTR _iClassLevel$513988[ebp]
  00197	8d 85 7c fc ff
	ff		 lea	 eax, DWORD PTR _kCharInfo$513989[ebp]
  0019d	50		 push	 eax
  0019e	8b ce		 mov	 ecx, esi
  001a0	e8 00 00 00 00	 call	 ?SetCharacter@UserInfoCharData@@QAEXABUCHARACTER@@H@Z ; UserInfoCharData::SetCharacter

; 377  : 
; 378  : 			ITEM_DATA kEquipItem[MAX_INVENTORY];

  001a5	6a 03		 push	 3
  001a7	59		 pop	 ecx
  001a8	8d 45 a8	 lea	 eax, DWORD PTR _kEquipItem$513990[ebp+8]
$LL26@ApplyCharD:
  001ab	83 08 ff	 or	 DWORD PTR [eax], -1
  001ae	89 78 f8	 mov	 DWORD PTR [eax-8], edi
  001b1	89 78 fc	 mov	 DWORD PTR [eax-4], edi
  001b4	89 78 08	 mov	 DWORD PTR [eax+8], edi
  001b7	89 78 04	 mov	 DWORD PTR [eax+4], edi
  001ba	83 c0 14	 add	 eax, 20			; 00000014H
  001bd	49		 dec	 ecx
  001be	79 eb		 jns	 SHORT $LL26@ApplyCharD

; 379  : 			for(int k = 0;k < MAX_INVENTORY;k++)

  001c0	8d 7d ac	 lea	 edi, DWORD PTR _kEquipItem$513990[ebp+12]
  001c3	c7 85 4c f9 ff
	ff 04 00 00 00	 mov	 DWORD PTR tv713[ebp], 4
$LL3@ApplyCharD:

; 380  : 			{
; 381  : 				rkPacket >> kEquipItem[k].m_item_code >> kEquipItem[k].m_item_reinforce >> kEquipItem[k].m_item_male_custom >> kEquipItem[k].m_item_female_custom;

  001cd	8d 47 04	 lea	 eax, DWORD PTR [edi+4]
  001d0	50		 push	 eax
  001d1	57		 push	 edi
  001d2	8d 47 f8	 lea	 eax, DWORD PTR [edi-8]
  001d5	50		 push	 eax
  001d6	8d 47 f4	 lea	 eax, DWORD PTR [edi-12]
  001d9	50		 push	 eax
  001da	8b cb		 mov	 ecx, ebx
  001dc	e8 00 00 00 00	 call	 ??5SP2Packet@@QAEAAV0@AAH@Z ; SP2Packet::operator>>
  001e1	8b c8		 mov	 ecx, eax
  001e3	e8 00 00 00 00	 call	 ??5SP2Packet@@QAEAAV0@AAH@Z ; SP2Packet::operator>>
  001e8	8b c8		 mov	 ecx, eax
  001ea	e8 00 00 00 00	 call	 ??5SP2Packet@@QAEAAV0@AAK@Z ; SP2Packet::operator>>
  001ef	8b c8		 mov	 ecx, eax
  001f1	e8 00 00 00 00	 call	 ??5SP2Packet@@QAEAAV0@AAK@Z ; SP2Packet::operator>>
  001f6	83 c7 14	 add	 edi, 20			; 00000014H
  001f9	ff 8d 4c f9 ff
	ff		 dec	 DWORD PTR tv713[ebp]
  001ff	75 cc		 jne	 SHORT $LL3@ApplyCharD

; 382  : 			}
; 383  : 			SetEquipItem( kCharInfo.m_class_type, kEquipItem );

  00201	6a 04		 push	 4
  00203	8d 85 a4 fc ff
	ff		 lea	 eax, DWORD PTR _kCharInfo$513989[ebp+40]
  00209	50		 push	 eax
  0020a	8d 85 98 fc ff
	ff		 lea	 eax, DWORD PTR _kCharInfo$513989[ebp+28]
  00210	50		 push	 eax
  00211	8d 8d 88 fc ff
	ff		 lea	 ecx, DWORD PTR _kCharInfo$513989[ebp+12]
  00217	e8 00 00 00 00	 call	 ?DecryptByte@ccddaabb@@QBEXPBDPADH@Z ; ccddaabb::DecryptByte
  0021c	8d 45 a0	 lea	 eax, DWORD PTR _kEquipItem$513990[ebp]
  0021f	50		 push	 eax
  00220	ff b5 a4 fc ff
	ff		 push	 DWORD PTR _kCharInfo$513989[ebp+40]
  00226	8b ce		 mov	 ecx, esi
  00228	e8 00 00 00 00	 call	 ?SetEquipItem@UserInfoCharData@@QAEXHQBUITEM_DATA@@@Z ; UserInfoCharData::SetEquipItem

; 384  : 		}

  0022d	83 4d fc ff	 or	 DWORD PTR __$EHRec$[ebp+8], -1
  00231	8d 8d 7c fc ff
	ff		 lea	 ecx, DWORD PTR _kCharInfo$513989[ebp]
  00237	e8 00 00 00 00	 call	 ??1CHARACTER@@QAE@XZ
  0023c	33 ff		 xor	 edi, edi
$LN6@ApplyCharD:

; 364  : 	}
; 365  : 		
; 366  : 	for(int i = 0;i < iCurSize;i++)

  0023e	ff 85 50 f9 ff
	ff		 inc	 DWORD PTR _i$513982[ebp]
  00244	8b 85 50 f9 ff
	ff		 mov	 eax, DWORD PTR _i$513982[ebp]
  0024a	3b 85 48 f9 ff
	ff		 cmp	 eax, DWORD PTR _iCurSize$[ebp]
  00250	0f 8c f2 fe ff
	ff		 jl	 $LL7@ApplyCharD
$LN5@ApplyCharD:

; 385  : 	}
; 386  : 	m_bDataSync = true;

  00256	c6 86 dc 03 00
	00 01		 mov	 BYTE PTR [esi+988], 1

; 387  : 	m_bScrollSyncBlock = false;

  0025d	c6 86 e4 03 00
	00 00		 mov	 BYTE PTR [esi+996], 0

; 388  : }

  00264	e8 00 00 00 00	 call	 __EH_epilog3_GS
  00269	c2 08 00	 ret	 8
_TEXT	ENDS
;	COMDAT text$x
text$x	SEGMENT
__unwindfunclet$?ApplyCharData@UserInfoCharData@@QAEXABVioHashString@@AAVSP2Packet@@@Z$0:
  00000	8d 8d 58 f9 ff
	ff		 lea	 ecx, DWORD PTR _kCharInfo$513975[ebp]
  00006	e9 00 00 00 00	 jmp	 ??1CHARACTER@@QAE@XZ
__unwindfunclet$?ApplyCharData@UserInfoCharData@@QAEXABVioHashString@@AAVSP2Packet@@@Z$1:
  0000b	8d 8d 7c fc ff
	ff		 lea	 ecx, DWORD PTR _kCharInfo$513989[ebp]
  00011	e9 00 00 00 00	 jmp	 ??1CHARACTER@@QAE@XZ
__ehhandler$?ApplyCharData@UserInfoCharData@@QAEXABVioHashString@@AAVSP2Packet@@@Z:
  00016	8b 54 24 08	 mov	 edx, DWORD PTR [esp+8]
  0001a	8d 42 0c	 lea	 eax, DWORD PTR [edx+12]
  0001d	8b 8a 3c f9 ff
	ff		 mov	 ecx, DWORD PTR [edx-1732]
  00023	33 c8		 xor	 ecx, eax
  00025	e8 00 00 00 00	 call	 @__security_check_cookie@4
  0002a	8b 4a fc	 mov	 ecx, DWORD PTR [edx-4]
  0002d	33 c8		 xor	 ecx, eax
  0002f	e8 00 00 00 00	 call	 @__security_check_cookie@4
  00034	b8 00 00 00 00	 mov	 eax, OFFSET __ehfuncinfo$?ApplyCharData@UserInfoCharData@@QAEXABVioHashString@@AAVSP2Packet@@@Z
  00039	e9 00 00 00 00	 jmp	 ___CxxFrameHandler3
text$x	ENDS
?ApplyCharData@UserInfoCharData@@QAEXABVioHashString@@AAVSP2Packet@@@Z ENDP ; UserInfoCharData::ApplyCharData
PUBLIC	?SetCharacter@ioUserInfoMgr@@QAEXABVioHashString@@ABUCHARACTER@@H@Z ; ioUserInfoMgr::SetCharacter
; Function compile flags: /Ogsp
;	COMDAT ?SetCharacter@ioUserInfoMgr@@QAEXABVioHashString@@ABUCHARACTER@@H@Z
_TEXT	SEGMENT
_szUserID$ = 8						; size = 4
_rkCharInfo$ = 12					; size = 4
_iClassLevel$ = 16					; size = 4
?SetCharacter@ioUserInfoMgr@@QAEXABVioHashString@@ABUCHARACTER@@H@Z PROC ; ioUserInfoMgr::SetCharacter, COMDAT
; _this$ = ecx

; 1185 : {

  00000	55		 push	 ebp
  00001	8b ec		 mov	 ebp, esp

; 1186 : 	UserInfoNode *pUserInfoNode = GetUserInfoNode( szUserID, false );

  00003	6a 00		 push	 0
  00005	ff 75 08	 push	 DWORD PTR _szUserID$[ebp]
  00008	e8 00 00 00 00	 call	 ?GetUserInfoNode@ioUserInfoMgr@@QAEPAVUserInfoNode@@ABVioHashString@@_N@Z ; ioUserInfoMgr::GetUserInfoNode

; 1187 : 	if( pUserInfoNode )

  0000d	85 c0		 test	 eax, eax
  0000f	74 11		 je	 SHORT $LN1@SetCharact@2

; 1188 : 	{
; 1189 : 		UserInfoCharData &rkCharData = pUserInfoNode->GetUserCharData();
; 1190 : 		rkCharData.SetCharacter( rkCharInfo, iClassLevel );

  00011	ff 75 10	 push	 DWORD PTR _iClassLevel$[ebp]
  00014	8d 88 c8 00 00
	00		 lea	 ecx, DWORD PTR [eax+200]
  0001a	ff 75 0c	 push	 DWORD PTR _rkCharInfo$[ebp]
  0001d	e8 00 00 00 00	 call	 ?SetCharacter@UserInfoCharData@@QAEXABUCHARACTER@@H@Z ; UserInfoCharData::SetCharacter
$LN1@SetCharact@2:

; 1191 : 	}
; 1192 : }

  00022	5d		 pop	 ebp
  00023	c2 0c 00	 ret	 12			; 0000000cH
?SetCharacter@ioUserInfoMgr@@QAEXABVioHashString@@ABUCHARACTER@@H@Z ENDP ; ioUserInfoMgr::SetCharacter
_TEXT	ENDS
PUBLIC	?ApplyUserInfoCharDataSync@ioUserInfoMgr@@QAEXAAVSP2Packet@@@Z ; ioUserInfoMgr::ApplyUserInfoCharDataSync
;	COMDAT xdata$x
; File d:\lost saga for developer\youtube\tutorial\source\src\lsclient\gui\iouserinfomgr.h
xdata$x	SEGMENT
__unwindtable$?ApplyUserInfoCharDataSync@ioUserInfoMgr@@QAEXAAVSP2Packet@@@Z DD 0ffffffffH
	DD	FLAT:__unwindfunclet$?ApplyUserInfoCharDataSync@ioUserInfoMgr@@QAEXAAVSP2Packet@@@Z$0
__ehfuncinfo$?ApplyUserInfoCharDataSync@ioUserInfoMgr@@QAEXAAVSP2Packet@@@Z DD 019930522H
	DD	01H
	DD	FLAT:__unwindtable$?ApplyUserInfoCharDataSync@ioUserInfoMgr@@QAEXAAVSP2Packet@@@Z
	DD	2 DUP(00H)
	DD	2 DUP(00H)
	DD	00H
	DD	01H
; Function compile flags: /Ogsp
; File d:\lost saga for developer\youtube\tutorial\source\src\lsclient\gui\iouserinfomgr.cpp
xdata$x	ENDS
;	COMDAT ?ApplyUserInfoCharDataSync@ioUserInfoMgr@@QAEXAAVSP2Packet@@@Z
_TEXT	SEGMENT
_kUserID$ = -28						; size = 16
__$EHRec$ = -12						; size = 12
_rkPacket$ = 8						; size = 4
?ApplyUserInfoCharDataSync@ioUserInfoMgr@@QAEXAAVSP2Packet@@@Z PROC ; ioUserInfoMgr::ApplyUserInfoCharDataSync, COMDAT
; _this$ = ecx

; 1361 : {

  00000	6a 10		 push	 16			; 00000010H
  00002	b8 00 00 00 00	 mov	 eax, __ehhandler$?ApplyUserInfoCharDataSync@ioUserInfoMgr@@QAEXAAVSP2Packet@@@Z
  00007	e8 00 00 00 00	 call	 __EH_prolog3
  0000c	8b f1		 mov	 esi, ecx

; 1362 : 	ioHashString kUserID;

  0000e	8d 4d e4	 lea	 ecx, DWORD PTR _kUserID$[ebp]
  00011	ff 15 00 00 00
	00		 call	 DWORD PTR __imp_??0ioHashString@@QAE@XZ

; 1363 : 	rkPacket >> kUserID;

  00017	8b 4d 08	 mov	 ecx, DWORD PTR _rkPacket$[ebp]
  0001a	83 65 fc 00	 and	 DWORD PTR __$EHRec$[ebp+8], 0
  0001e	8d 45 e4	 lea	 eax, DWORD PTR _kUserID$[ebp]
  00021	50		 push	 eax
  00022	e8 00 00 00 00	 call	 ??5SP2Packet@@QAEAAV0@AAVioHashString@@@Z ; SP2Packet::operator>>

; 1364 : 
; 1365 : 	UserInfoNode *pUserInfoNode = GetUserInfoNode( kUserID, false );

  00027	6a 00		 push	 0
  00029	8d 45 e4	 lea	 eax, DWORD PTR _kUserID$[ebp]
  0002c	50		 push	 eax
  0002d	8b ce		 mov	 ecx, esi
  0002f	e8 00 00 00 00	 call	 ?GetUserInfoNode@ioUserInfoMgr@@QAEPAVUserInfoNode@@ABVioHashString@@_N@Z ; ioUserInfoMgr::GetUserInfoNode
  00034	8b f0		 mov	 esi, eax

; 1366 : 	if( pUserInfoNode )

  00036	85 f6		 test	 esi, esi
  00038	74 19		 je	 SHORT $LN1@ApplyUserI@2

; 1367 : 	{
; 1368 : 		UserInfoCharData &rkCharData = pUserInfoNode->GetUserCharData();
; 1369 : 		rkCharData.ApplyCharData( kUserID, rkPacket );

  0003a	ff 75 08	 push	 DWORD PTR _rkPacket$[ebp]
  0003d	8d 45 e4	 lea	 eax, DWORD PTR _kUserID$[ebp]
  00040	8d 8e c8 00 00
	00		 lea	 ecx, DWORD PTR [esi+200]
  00046	50		 push	 eax
  00047	e8 00 00 00 00	 call	 ?ApplyCharData@UserInfoCharData@@QAEXABVioHashString@@AAVSP2Packet@@@Z ; UserInfoCharData::ApplyCharData

; 1370 : 		pUserInfoNode->CalcRCharPossessionCount();

  0004c	8b ce		 mov	 ecx, esi
  0004e	e8 00 00 00 00	 call	 ?CalcRCharPossessionCount@UserInfoNode@@QAEXXZ ; UserInfoNode::CalcRCharPossessionCount
$LN1@ApplyUserI@2:

; 1371 : 	}
; 1372 : }

  00053	83 4d fc ff	 or	 DWORD PTR __$EHRec$[ebp+8], -1
  00057	8d 4d e4	 lea	 ecx, DWORD PTR _kUserID$[ebp]
  0005a	ff 15 00 00 00
	00		 call	 DWORD PTR __imp_??1ioHashString@@QAE@XZ
  00060	e8 00 00 00 00	 call	 __EH_epilog3
  00065	c2 04 00	 ret	 4
_TEXT	ENDS
;	COMDAT text$x
text$x	SEGMENT
__unwindfunclet$?ApplyUserInfoCharDataSync@ioUserInfoMgr@@QAEXAAVSP2Packet@@@Z$0:
  00000	8d 4d e4	 lea	 ecx, DWORD PTR _kUserID$[ebp]
  00003	ff 25 00 00 00
	00		 jmp	 DWORD PTR __imp_??1ioHashString@@QAE@XZ
__ehhandler$?ApplyUserInfoCharDataSync@ioUserInfoMgr@@QAEXAAVSP2Packet@@@Z:
  00009	8b 54 24 08	 mov	 edx, DWORD PTR [esp+8]
  0000d	8d 42 0c	 lea	 eax, DWORD PTR [edx+12]
  00010	8b 4a e0	 mov	 ecx, DWORD PTR [edx-32]
  00013	33 c8		 xor	 ecx, eax
  00015	e8 00 00 00 00	 call	 @__security_check_cookie@4
  0001a	b8 00 00 00 00	 mov	 eax, OFFSET __ehfuncinfo$?ApplyUserInfoCharDataSync@ioUserInfoMgr@@QAEXAAVSP2Packet@@@Z
  0001f	e9 00 00 00 00	 jmp	 ___CxxFrameHandler3
text$x	ENDS
?ApplyUserInfoCharDataSync@ioUserInfoMgr@@QAEXAAVSP2Packet@@@Z ENDP ; ioUserInfoMgr::ApplyUserInfoCharDataSync
; Function compile flags: /Ogsp
;	COMDAT ??__FkNoneData@?1??GetSlotChar@UserInfoCharData@@QAEAAUCharInfoData@@H@Z@YAXXZ
text$yd	SEGMENT
??__FkNoneData@?1??GetSlotChar@UserInfoCharData@@QAEAAUCharInfoData@@H@Z@YAXXZ PROC ; `UserInfoCharData::GetSlotChar'::`2'::`dynamic atexit destructor for 'kNoneData'', COMDAT
  00000	b9 00 00 00 00	 mov	 ecx, OFFSET ?kNoneData@?1??GetSlotChar@UserInfoCharData@@QAEAAUCharInfoData@@H@Z@4U3@A
  00005	e9 00 00 00 00	 jmp	 ??1CharInfoData@@QAE@XZ
??__FkNoneData@?1??GetSlotChar@UserInfoCharData@@QAEAAUCharInfoData@@H@Z@YAXXZ ENDP ; `UserInfoCharData::GetSlotChar'::`2'::`dynamic atexit destructor for 'kNoneData''
; Function compile flags: /Ogsp
text$yd	ENDS
;	COMDAT ??__FkNoneData@?6??GetSlotCharToClassType@UserInfoCharData@@QAEAAUCharInfoData@@H@Z@YAXXZ
text$yd	SEGMENT
??__FkNoneData@?6??GetSlotCharToClassType@UserInfoCharData@@QAEAAUCharInfoData@@H@Z@YAXXZ PROC ; `UserInfoCharData::GetSlotCharToClassType'::`7'::`dynamic atexit destructor for 'kNoneData'', COMDAT
  00000	b9 00 00 00 00	 mov	 ecx, OFFSET ?kNoneData@?6??GetSlotCharToClassType@UserInfoCharData@@QAEAAUCharInfoData@@H@Z@4U3@A
  00005	e9 00 00 00 00	 jmp	 ??1CharInfoData@@QAE@XZ
??__FkNoneData@?6??GetSlotCharToClassType@UserInfoCharData@@QAEAAUCharInfoData@@H@Z@YAXXZ ENDP ; `UserInfoCharData::GetSlotCharToClassType'::`7'::`dynamic atexit destructor for 'kNoneData''
text$yd	ENDS
END
