; Listing generated by Microsoft (R) Optimizing Compiler Version 16.00.30319.01 

	TITLE	D:\Lost Saga For Developer\Youtube\Tutorial\Source\src\LSClient\ioUserAccessory.cpp
	.686P
	.XMM
	include listing.inc
	.model	flat

INCLUDELIB MSVCRT
INCLUDELIB OLDNAMES

PUBLIC	??1tagAccessorySlot@@QAE@XZ			; tagAccessorySlot::~tagAccessorySlot
EXTRN	__imp_??1ioHashString@@QAE@XZ:PROC
EXTRN	___CxxFrameHandler3:PROC
EXTRN	@__security_check_cookie@4:PROC
EXTRN	__EH_epilog3:PROC
EXTRN	__EH_prolog3:PROC
;	COMDAT xdata$x
xdata$x	SEGMENT
__unwindtable$??1tagAccessorySlot@@QAE@XZ DD 0ffffffffH
	DD	FLAT:__unwindfunclet$??1tagAccessorySlot@@QAE@XZ$0
__ehfuncinfo$??1tagAccessorySlot@@QAE@XZ DD 019930522H
	DD	01H
	DD	FLAT:__unwindtable$??1tagAccessorySlot@@QAE@XZ
	DD	2 DUP(00H)
	DD	2 DUP(00H)
	DD	00H
	DD	01H
; Function compile flags: /Ogsp
xdata$x	ENDS
;	COMDAT ??1tagAccessorySlot@@QAE@XZ
_TEXT	SEGMENT
_this$ = -16						; size = 4
__$EHRec$ = -12						; size = 12
??1tagAccessorySlot@@QAE@XZ PROC			; tagAccessorySlot::~tagAccessorySlot, COMDAT
; _this$ = ecx
  00000	6a 04		 push	 4
  00002	b8 00 00 00 00	 mov	 eax, __ehhandler$??1tagAccessorySlot@@QAE@XZ
  00007	e8 00 00 00 00	 call	 __EH_prolog3
  0000c	8b f9		 mov	 edi, ecx
  0000e	89 7d f0	 mov	 DWORD PTR _this$[ebp], edi
  00011	8b 35 00 00 00
	00		 mov	 esi, DWORD PTR __imp_??1ioHashString@@QAE@XZ
  00017	83 65 fc 00	 and	 DWORD PTR __$EHRec$[ebp+8], 0
  0001b	8d 4f 34	 lea	 ecx, DWORD PTR [edi+52]
  0001e	ff d6		 call	 esi
  00020	83 4d fc ff	 or	 DWORD PTR __$EHRec$[ebp+8], -1
  00024	8d 4f 24	 lea	 ecx, DWORD PTR [edi+36]
  00027	ff d6		 call	 esi
  00029	e8 00 00 00 00	 call	 __EH_epilog3
  0002e	c3		 ret	 0
_TEXT	ENDS
;	COMDAT text$x
text$x	SEGMENT
__unwindfunclet$??1tagAccessorySlot@@QAE@XZ$0:
  00000	8b 4d f0	 mov	 ecx, DWORD PTR _this$[ebp]
  00003	83 c1 24	 add	 ecx, 36			; 00000024H
  00006	ff 25 00 00 00
	00		 jmp	 DWORD PTR __imp_??1ioHashString@@QAE@XZ
__ehhandler$??1tagAccessorySlot@@QAE@XZ:
  0000c	8b 54 24 08	 mov	 edx, DWORD PTR [esp+8]
  00010	8d 42 0c	 lea	 eax, DWORD PTR [edx+12]
  00013	8b 4a ec	 mov	 ecx, DWORD PTR [edx-20]
  00016	33 c8		 xor	 ecx, eax
  00018	e8 00 00 00 00	 call	 @__security_check_cookie@4
  0001d	b8 00 00 00 00	 mov	 eax, OFFSET __ehfuncinfo$??1tagAccessorySlot@@QAE@XZ
  00022	e9 00 00 00 00	 jmp	 ___CxxFrameHandler3
text$x	ENDS
??1tagAccessorySlot@@QAE@XZ ENDP			; tagAccessorySlot::~tagAccessorySlot
PUBLIC	??4tagAccessorySlot@@QAEAAU0@ABU0@@Z		; tagAccessorySlot::operator=
EXTRN	__imp_??4ioHashString@@QAEAAV0@ABV0@@Z:PROC
; Function compile flags: /Ogsp
;	COMDAT ??4tagAccessorySlot@@QAEAAU0@ABU0@@Z
_TEXT	SEGMENT
___that$ = 8						; size = 4
??4tagAccessorySlot@@QAEAAU0@ABU0@@Z PROC		; tagAccessorySlot::operator=, COMDAT
; _this$ = ecx
  00000	55		 push	 ebp
  00001	8b ec		 mov	 ebp, esp
  00003	53		 push	 ebx
  00004	56		 push	 esi
  00005	8b f1		 mov	 esi, ecx
  00007	57		 push	 edi
  00008	8b 7d 08	 mov	 edi, DWORD PTR ___that$[ebp]
  0000b	8b 07		 mov	 eax, DWORD PTR [edi]
  0000d	89 06		 mov	 DWORD PTR [esi], eax
  0000f	8b 47 04	 mov	 eax, DWORD PTR [edi+4]
  00012	89 46 04	 mov	 DWORD PTR [esi+4], eax
  00015	8b 47 08	 mov	 eax, DWORD PTR [edi+8]
  00018	8b 1d 00 00 00
	00		 mov	 ebx, DWORD PTR __imp_??4ioHashString@@QAEAAV0@ABV0@@Z
  0001e	89 46 08	 mov	 DWORD PTR [esi+8], eax
  00021	8a 47 0c	 mov	 al, BYTE PTR [edi+12]
  00024	88 46 0c	 mov	 BYTE PTR [esi+12], al
  00027	8b 47 10	 mov	 eax, DWORD PTR [edi+16]
  0002a	89 46 10	 mov	 DWORD PTR [esi+16], eax
  0002d	8b 47 14	 mov	 eax, DWORD PTR [edi+20]
  00030	89 46 14	 mov	 DWORD PTR [esi+20], eax
  00033	8b 47 18	 mov	 eax, DWORD PTR [edi+24]
  00036	89 46 18	 mov	 DWORD PTR [esi+24], eax
  00039	8b 47 1c	 mov	 eax, DWORD PTR [edi+28]
  0003c	89 46 1c	 mov	 DWORD PTR [esi+28], eax
  0003f	8a 47 20	 mov	 al, BYTE PTR [edi+32]
  00042	88 46 20	 mov	 BYTE PTR [esi+32], al
  00045	8d 47 24	 lea	 eax, DWORD PTR [edi+36]
  00048	50		 push	 eax
  00049	8d 4e 24	 lea	 ecx, DWORD PTR [esi+36]
  0004c	ff d3		 call	 ebx
  0004e	83 c7 34	 add	 edi, 52			; 00000034H
  00051	57		 push	 edi
  00052	8d 4e 34	 lea	 ecx, DWORD PTR [esi+52]
  00055	ff d3		 call	 ebx
  00057	5f		 pop	 edi
  00058	8b c6		 mov	 eax, esi
  0005a	5e		 pop	 esi
  0005b	5b		 pop	 ebx
  0005c	5d		 pop	 ebp
  0005d	c2 04 00	 ret	 4
??4tagAccessorySlot@@QAEAAU0@ABU0@@Z ENDP		; tagAccessorySlot::operator=
_TEXT	ENDS
PUBLIC	??0tagAccessorySlot@@QAE@ABU0@@Z		; tagAccessorySlot::tagAccessorySlot
EXTRN	__imp_??0ioHashString@@QAE@ABV0@@Z:PROC
;	COMDAT xdata$x
xdata$x	SEGMENT
__unwindtable$??0tagAccessorySlot@@QAE@ABU0@@Z DD 0ffffffffH
	DD	FLAT:__unwindfunclet$??0tagAccessorySlot@@QAE@ABU0@@Z$0
__ehfuncinfo$??0tagAccessorySlot@@QAE@ABU0@@Z DD 019930522H
	DD	01H
	DD	FLAT:__unwindtable$??0tagAccessorySlot@@QAE@ABU0@@Z
	DD	2 DUP(00H)
	DD	2 DUP(00H)
	DD	00H
	DD	01H
; Function compile flags: /Ogsp
xdata$x	ENDS
;	COMDAT ??0tagAccessorySlot@@QAE@ABU0@@Z
_TEXT	SEGMENT
_this$ = -16						; size = 4
__$EHRec$ = -12						; size = 12
___that$ = 8						; size = 4
??0tagAccessorySlot@@QAE@ABU0@@Z PROC			; tagAccessorySlot::tagAccessorySlot, COMDAT
; _this$ = ecx
  00000	6a 04		 push	 4
  00002	b8 00 00 00 00	 mov	 eax, __ehhandler$??0tagAccessorySlot@@QAE@ABU0@@Z
  00007	e8 00 00 00 00	 call	 __EH_prolog3
  0000c	8b f1		 mov	 esi, ecx
  0000e	89 75 f0	 mov	 DWORD PTR _this$[ebp], esi
  00011	8b 7d 08	 mov	 edi, DWORD PTR ___that$[ebp]
  00014	8b 07		 mov	 eax, DWORD PTR [edi]
  00016	89 06		 mov	 DWORD PTR [esi], eax
  00018	8b 47 04	 mov	 eax, DWORD PTR [edi+4]
  0001b	89 46 04	 mov	 DWORD PTR [esi+4], eax
  0001e	8b 47 08	 mov	 eax, DWORD PTR [edi+8]
  00021	8b 1d 00 00 00
	00		 mov	 ebx, DWORD PTR __imp_??0ioHashString@@QAE@ABV0@@Z
  00027	89 46 08	 mov	 DWORD PTR [esi+8], eax
  0002a	8a 47 0c	 mov	 al, BYTE PTR [edi+12]
  0002d	88 46 0c	 mov	 BYTE PTR [esi+12], al
  00030	8b 47 10	 mov	 eax, DWORD PTR [edi+16]
  00033	89 46 10	 mov	 DWORD PTR [esi+16], eax
  00036	8b 47 14	 mov	 eax, DWORD PTR [edi+20]
  00039	89 46 14	 mov	 DWORD PTR [esi+20], eax
  0003c	8b 47 18	 mov	 eax, DWORD PTR [edi+24]
  0003f	89 46 18	 mov	 DWORD PTR [esi+24], eax
  00042	8b 47 1c	 mov	 eax, DWORD PTR [edi+28]
  00045	89 46 1c	 mov	 DWORD PTR [esi+28], eax
  00048	8a 47 20	 mov	 al, BYTE PTR [edi+32]
  0004b	88 46 20	 mov	 BYTE PTR [esi+32], al
  0004e	8d 47 24	 lea	 eax, DWORD PTR [edi+36]
  00051	50		 push	 eax
  00052	8d 4e 24	 lea	 ecx, DWORD PTR [esi+36]
  00055	ff d3		 call	 ebx
  00057	83 65 fc 00	 and	 DWORD PTR __$EHRec$[ebp+8], 0
  0005b	83 c7 34	 add	 edi, 52			; 00000034H
  0005e	57		 push	 edi
  0005f	8d 4e 34	 lea	 ecx, DWORD PTR [esi+52]
  00062	ff d3		 call	 ebx
  00064	8b c6		 mov	 eax, esi
  00066	e8 00 00 00 00	 call	 __EH_epilog3
  0006b	c2 04 00	 ret	 4
_TEXT	ENDS
;	COMDAT text$x
text$x	SEGMENT
__unwindfunclet$??0tagAccessorySlot@@QAE@ABU0@@Z$0:
  00000	8b 4d f0	 mov	 ecx, DWORD PTR _this$[ebp]
  00003	83 c1 24	 add	 ecx, 36			; 00000024H
  00006	ff 25 00 00 00
	00		 jmp	 DWORD PTR __imp_??1ioHashString@@QAE@XZ
__ehhandler$??0tagAccessorySlot@@QAE@ABU0@@Z:
  0000c	8b 54 24 08	 mov	 edx, DWORD PTR [esp+8]
  00010	8d 42 0c	 lea	 eax, DWORD PTR [edx+12]
  00013	8b 4a ec	 mov	 ecx, DWORD PTR [edx-20]
  00016	33 c8		 xor	 ecx, eax
  00018	e8 00 00 00 00	 call	 @__security_check_cookie@4
  0001d	b8 00 00 00 00	 mov	 eax, OFFSET __ehfuncinfo$??0tagAccessorySlot@@QAE@ABU0@@Z
  00022	e9 00 00 00 00	 jmp	 ___CxxFrameHandler3
text$x	ENDS
??0tagAccessorySlot@@QAE@ABU0@@Z ENDP			; tagAccessorySlot::tagAccessorySlot
PUBLIC	?size@?$vector@UtagAccessorySlot@@V?$allocator@UtagAccessorySlot@@@std@@@std@@QBEIXZ ; std::vector<tagAccessorySlot,std::allocator<tagAccessorySlot> >::size
; Function compile flags: /Ogsp
; File c:\program files (x86)\microsoft visual studio 10.0\vc\include\vector
;	COMDAT ?size@?$vector@UtagAccessorySlot@@V?$allocator@UtagAccessorySlot@@@std@@@std@@QBEIXZ
_TEXT	SEGMENT
?size@?$vector@UtagAccessorySlot@@V?$allocator@UtagAccessorySlot@@@std@@@std@@QBEIXZ PROC ; std::vector<tagAccessorySlot,std::allocator<tagAccessorySlot> >::size, COMDAT
; _this$ = ecx

; 879  : 		return (this->_Mylast - this->_Myfirst);

  00000	8b 41 04	 mov	 eax, DWORD PTR [ecx+4]
  00003	2b 01		 sub	 eax, DWORD PTR [ecx]
  00005	6a 44		 push	 68			; 00000044H
  00007	99		 cdq
  00008	59		 pop	 ecx
  00009	f7 f9		 idiv	 ecx

; 880  : 		}

  0000b	c3		 ret	 0
?size@?$vector@UtagAccessorySlot@@V?$allocator@UtagAccessorySlot@@@std@@@std@@QBEIXZ ENDP ; std::vector<tagAccessorySlot,std::allocator<tagAccessorySlot> >::size
_TEXT	ENDS
PUBLIC	?empty@?$vector@UtagAccessorySlot@@V?$allocator@UtagAccessorySlot@@@std@@@std@@QBE_NXZ ; std::vector<tagAccessorySlot,std::allocator<tagAccessorySlot> >::empty
; Function compile flags: /Ogsp
;	COMDAT ?empty@?$vector@UtagAccessorySlot@@V?$allocator@UtagAccessorySlot@@@std@@@std@@QBE_NXZ
_TEXT	SEGMENT
?empty@?$vector@UtagAccessorySlot@@V?$allocator@UtagAccessorySlot@@@std@@@std@@QBE_NXZ PROC ; std::vector<tagAccessorySlot,std::allocator<tagAccessorySlot> >::empty, COMDAT
; _this$ = ecx

; 889  : 		return (this->_Myfirst == this->_Mylast);

  00000	8b 01		 mov	 eax, DWORD PTR [ecx]
  00002	2b 41 04	 sub	 eax, DWORD PTR [ecx+4]
  00005	f7 d8		 neg	 eax
  00007	1b c0		 sbb	 eax, eax
  00009	40		 inc	 eax

; 890  : 		}

  0000a	c3		 ret	 0
?empty@?$vector@UtagAccessorySlot@@V?$allocator@UtagAccessorySlot@@@std@@@std@@QBE_NXZ ENDP ; std::vector<tagAccessorySlot,std::allocator<tagAccessorySlot> >::empty
_TEXT	ENDS
PUBLIC	??A?$vector@UtagAccessorySlot@@V?$allocator@UtagAccessorySlot@@@std@@@std@@QAEAAUtagAccessorySlot@@I@Z ; std::vector<tagAccessorySlot,std::allocator<tagAccessorySlot> >::operator[]
; Function compile flags: /Ogsp
;	COMDAT ??A?$vector@UtagAccessorySlot@@V?$allocator@UtagAccessorySlot@@@std@@@std@@QAEAAUtagAccessorySlot@@I@Z
_TEXT	SEGMENT
__Pos$ = 8						; size = 4
??A?$vector@UtagAccessorySlot@@V?$allocator@UtagAccessorySlot@@@std@@@std@@QAEAAUtagAccessorySlot@@I@Z PROC ; std::vector<tagAccessorySlot,std::allocator<tagAccessorySlot> >::operator[], COMDAT
; _this$ = ecx

; 928  : 		{	// subscript mutable sequence

  00000	55		 push	 ebp
  00001	8b ec		 mov	 ebp, esp

; 929  :  #if _ITERATOR_DEBUG_LEVEL == 2
; 930  : 		if (size() <= _Pos)
; 931  : 			{	// report error
; 932  : 			_DEBUG_ERROR("vector subscript out of range");
; 933  : 			_SCL_SECURE_OUT_OF_RANGE;
; 934  : 			}
; 935  : 
; 936  :  #elif _ITERATOR_DEBUG_LEVEL == 1
; 937  : 		_SCL_SECURE_VALIDATE_RANGE(_Pos < size());
; 938  :  #endif /* _ITERATOR_DEBUG_LEVEL */
; 939  : 
; 940  : 		return (*(this->_Myfirst + _Pos));

  00003	8b 45 08	 mov	 eax, DWORD PTR __Pos$[ebp]
  00006	6b c0 44	 imul	 eax, 68			; 00000044H
  00009	03 01		 add	 eax, DWORD PTR [ecx]

; 941  : 		}

  0000b	5d		 pop	 ebp
  0000c	c2 04 00	 ret	 4
??A?$vector@UtagAccessorySlot@@V?$allocator@UtagAccessorySlot@@@std@@@std@@QAEAAUtagAccessorySlot@@I@Z ENDP ; std::vector<tagAccessorySlot,std::allocator<tagAccessorySlot> >::operator[]
_TEXT	ENDS
PUBLIC	?_Inside@?$vector@UtagAccessorySlot@@V?$allocator@UtagAccessorySlot@@@std@@@std@@IBE_NPBUtagAccessorySlot@@@Z ; std::vector<tagAccessorySlot,std::allocator<tagAccessorySlot> >::_Inside
; Function compile flags: /Ogsp
;	COMDAT ?_Inside@?$vector@UtagAccessorySlot@@V?$allocator@UtagAccessorySlot@@@std@@@std@@IBE_NPBUtagAccessorySlot@@@Z
_TEXT	SEGMENT
__Ptr$ = 8						; size = 4
?_Inside@?$vector@UtagAccessorySlot@@V?$allocator@UtagAccessorySlot@@@std@@@std@@IBE_NPBUtagAccessorySlot@@@Z PROC ; std::vector<tagAccessorySlot,std::allocator<tagAccessorySlot> >::_Inside, COMDAT
; _this$ = ecx

; 1285 : 		{	// test if _Ptr points inside vector

  00000	55		 push	 ebp
  00001	8b ec		 mov	 ebp, esp

; 1286 : 		return (_Ptr < this->_Mylast && this->_Myfirst <= _Ptr);

  00003	8b 45 08	 mov	 eax, DWORD PTR __Ptr$[ebp]
  00006	3b 41 04	 cmp	 eax, DWORD PTR [ecx+4]
  00009	73 09		 jae	 SHORT $LN3@Inside
  0000b	39 01		 cmp	 DWORD PTR [ecx], eax
  0000d	77 05		 ja	 SHORT $LN3@Inside
  0000f	33 c0		 xor	 eax, eax
  00011	40		 inc	 eax
  00012	eb 02		 jmp	 SHORT $LN4@Inside
$LN3@Inside:
  00014	33 c0		 xor	 eax, eax
$LN4@Inside:

; 1287 : 		}

  00016	5d		 pop	 ebp
  00017	c2 04 00	 ret	 4
?_Inside@?$vector@UtagAccessorySlot@@V?$allocator@UtagAccessorySlot@@@std@@@std@@IBE_NPBUtagAccessorySlot@@@Z ENDP ; std::vector<tagAccessorySlot,std::allocator<tagAccessorySlot> >::_Inside
_TEXT	ENDS
PUBLIC	?_Orphan_range@?$vector@UtagAccessorySlot@@V?$allocator@UtagAccessorySlot@@@std@@@std@@IBEXPAUtagAccessorySlot@@0@Z ; std::vector<tagAccessorySlot,std::allocator<tagAccessorySlot> >::_Orphan_range
; Function compile flags: /Ogsp
;	COMDAT ?_Orphan_range@?$vector@UtagAccessorySlot@@V?$allocator@UtagAccessorySlot@@@std@@@std@@IBEXPAUtagAccessorySlot@@0@Z
_TEXT	SEGMENT
___formal$ = 8						; size = 4
___formal$ = 12						; size = 4
?_Orphan_range@?$vector@UtagAccessorySlot@@V?$allocator@UtagAccessorySlot@@@std@@@std@@IBEXPAUtagAccessorySlot@@0@Z PROC ; std::vector<tagAccessorySlot,std::allocator<tagAccessorySlot> >::_Orphan_range, COMDAT
; _this$ = ecx

; 1454 : 		}

  00000	c2 08 00	 ret	 8
?_Orphan_range@?$vector@UtagAccessorySlot@@V?$allocator@UtagAccessorySlot@@@std@@@std@@IBEXPAUtagAccessorySlot@@0@Z ENDP ; std::vector<tagAccessorySlot,std::allocator<tagAccessorySlot> >::_Orphan_range
_TEXT	ENDS
PUBLIC	??1?$_Vector_val@UtagAccessorySlot@@V?$allocator@UtagAccessorySlot@@@std@@@std@@QAE@XZ ; std::_Vector_val<tagAccessorySlot,std::allocator<tagAccessorySlot> >::~_Vector_val<tagAccessorySlot,std::allocator<tagAccessorySlot> >
; Function compile flags: /Ogsp
;	COMDAT ??1?$_Vector_val@UtagAccessorySlot@@V?$allocator@UtagAccessorySlot@@@std@@@std@@QAE@XZ
_TEXT	SEGMENT
??1?$_Vector_val@UtagAccessorySlot@@V?$allocator@UtagAccessorySlot@@@std@@@std@@QAE@XZ PROC ; std::_Vector_val<tagAccessorySlot,std::allocator<tagAccessorySlot> >::~_Vector_val<tagAccessorySlot,std::allocator<tagAccessorySlot> >, COMDAT
; _this$ = ecx

; 434  : 		}

  00000	c3		 ret	 0
??1?$_Vector_val@UtagAccessorySlot@@V?$allocator@UtagAccessorySlot@@@std@@@std@@QAE@XZ ENDP ; std::_Vector_val<tagAccessorySlot,std::allocator<tagAccessorySlot> >::~_Vector_val<tagAccessorySlot,std::allocator<tagAccessorySlot> >
_TEXT	ENDS
PUBLIC	??0?$allocator@UtagAccessorySlot@@@std@@QAE@XZ	; std::allocator<tagAccessorySlot>::allocator<tagAccessorySlot>
; Function compile flags: /Ogsp
; File c:\program files (x86)\microsoft visual studio 10.0\vc\include\xmemory
;	COMDAT ??0?$allocator@UtagAccessorySlot@@@std@@QAE@XZ
_TEXT	SEGMENT
??0?$allocator@UtagAccessorySlot@@@std@@QAE@XZ PROC	; std::allocator<tagAccessorySlot>::allocator<tagAccessorySlot>, COMDAT
; _this$ = ecx

; 161  : 	_ALLOCATOR() _THROW0()

  00000	8b c1		 mov	 eax, ecx

; 162  : 		{	// construct default allocator (do nothing)
; 163  : 		}

  00002	c3		 ret	 0
??0?$allocator@UtagAccessorySlot@@@std@@QAE@XZ ENDP	; std::allocator<tagAccessorySlot>::allocator<tagAccessorySlot>
_TEXT	ENDS
PUBLIC	??E?$_Vector_const_iterator@V?$_Vector_val@UtagAccessorySlot@@V?$allocator@UtagAccessorySlot@@@std@@@std@@@std@@QAEAAV01@XZ ; std::_Vector_const_iterator<std::_Vector_val<tagAccessorySlot,std::allocator<tagAccessorySlot> > >::operator++
; Function compile flags: /Ogsp
; File c:\program files (x86)\microsoft visual studio 10.0\vc\include\vector
;	COMDAT ??E?$_Vector_const_iterator@V?$_Vector_val@UtagAccessorySlot@@V?$allocator@UtagAccessorySlot@@@std@@@std@@@std@@QAEAAV01@XZ
_TEXT	SEGMENT
??E?$_Vector_const_iterator@V?$_Vector_val@UtagAccessorySlot@@V?$allocator@UtagAccessorySlot@@@std@@@std@@@std@@QAEAAV01@XZ PROC ; std::_Vector_const_iterator<std::_Vector_val<tagAccessorySlot,std::allocator<tagAccessorySlot> > >::operator++, COMDAT
; _this$ = ecx

; 93   : 		{	// preincrement

  00000	8b c1		 mov	 eax, ecx

; 94   :  #if _ITERATOR_DEBUG_LEVEL == 2
; 95   : 		if (this->_Getcont() == 0
; 96   : 			|| this->_Ptr == 0
; 97   : 			|| ((_Myvec *)this->_Getcont())->_Mylast <= this->_Ptr)
; 98   : 			{	// report error
; 99   : 			_DEBUG_ERROR("vector iterator not incrementable");
; 100  : 			_SCL_SECURE_OUT_OF_RANGE;
; 101  : 			}
; 102  : 
; 103  :  #elif _ITERATOR_DEBUG_LEVEL == 1
; 104  : 		_SCL_SECURE_VALIDATE(this->_Getcont() != 0);
; 105  : 		_SCL_SECURE_VALIDATE_RANGE(
; 106  : 			this->_Ptr != 0
; 107  : 			&& this->_Ptr < ((_Myvec *)this->_Getcont())->_Mylast);
; 108  :  #endif /* _ITERATOR_DEBUG_LEVEL */
; 109  : 
; 110  : 		++this->_Ptr;

  00002	83 00 44	 add	 DWORD PTR [eax], 68	; 00000044H

; 111  : 		return (*this);
; 112  : 		}

  00005	c3		 ret	 0
??E?$_Vector_const_iterator@V?$_Vector_val@UtagAccessorySlot@@V?$allocator@UtagAccessorySlot@@@std@@@std@@@std@@QAEAAV01@XZ ENDP ; std::_Vector_const_iterator<std::_Vector_val<tagAccessorySlot,std::allocator<tagAccessorySlot> > >::operator++
_TEXT	ENDS
PUBLIC	?capacity@?$vector@UtagAccessorySlot@@V?$allocator@UtagAccessorySlot@@@std@@@std@@QBEIXZ ; std::vector<tagAccessorySlot,std::allocator<tagAccessorySlot> >::capacity
; Function compile flags: /Ogsp
;	COMDAT ?capacity@?$vector@UtagAccessorySlot@@V?$allocator@UtagAccessorySlot@@@std@@@std@@QBEIXZ
_TEXT	SEGMENT
?capacity@?$vector@UtagAccessorySlot@@V?$allocator@UtagAccessorySlot@@@std@@@std@@QBEIXZ PROC ; std::vector<tagAccessorySlot,std::allocator<tagAccessorySlot> >::capacity, COMDAT
; _this$ = ecx

; 777  : 		return (this->_Myend - this->_Myfirst);

  00000	8b 41 08	 mov	 eax, DWORD PTR [ecx+8]
  00003	2b 01		 sub	 eax, DWORD PTR [ecx]
  00005	6a 44		 push	 68			; 00000044H
  00007	99		 cdq
  00008	59		 pop	 ecx
  00009	f7 f9		 idiv	 ecx

; 778  : 		}

  0000b	c3		 ret	 0
?capacity@?$vector@UtagAccessorySlot@@V?$allocator@UtagAccessorySlot@@@std@@@std@@QBEIXZ ENDP ; std::vector<tagAccessorySlot,std::allocator<tagAccessorySlot> >::capacity
_TEXT	ENDS
PUBLIC	??_C@_0BD@OLBABOEK@vector?$DMT?$DO?5too?5long?$AA@ ; `string'
PUBLIC	?_Xlen@?$vector@UtagAccessorySlot@@V?$allocator@UtagAccessorySlot@@@std@@@std@@IBEXXZ ; std::vector<tagAccessorySlot,std::allocator<tagAccessorySlot> >::_Xlen
EXTRN	__imp_?_Xlength_error@std@@YAXPBD@Z:PROC
;	COMDAT ??_C@_0BD@OLBABOEK@vector?$DMT?$DO?5too?5long?$AA@
CONST	SEGMENT
??_C@_0BD@OLBABOEK@vector?$DMT?$DO?5too?5long?$AA@ DB 'vector<T> too long'
	DB	00H						; `string'
; Function compile flags: /Ogsp
CONST	ENDS
;	COMDAT ?_Xlen@?$vector@UtagAccessorySlot@@V?$allocator@UtagAccessorySlot@@@std@@@std@@IBEXXZ
_TEXT	SEGMENT
?_Xlen@?$vector@UtagAccessorySlot@@V?$allocator@UtagAccessorySlot@@@std@@@std@@IBEXXZ PROC ; std::vector<tagAccessorySlot,std::allocator<tagAccessorySlot> >::_Xlen, COMDAT
; _this$ = ecx

; 1427 : 		_Xlength_error("vector<T> too long");

  00000	68 00 00 00 00	 push	 OFFSET ??_C@_0BD@OLBABOEK@vector?$DMT?$DO?5too?5long?$AA@
  00005	ff 15 00 00 00
	00		 call	 DWORD PTR __imp_?_Xlength_error@std@@YAXPBD@Z
$LN4@Xlen:
$LN3@Xlen:
  0000b	cc		 int	 3
?_Xlen@?$vector@UtagAccessorySlot@@V?$allocator@UtagAccessorySlot@@@std@@@std@@IBEXXZ ENDP ; std::vector<tagAccessorySlot,std::allocator<tagAccessorySlot> >::_Xlen
_TEXT	ENDS
PUBLIC	??0?$allocator@UtagAccessorySlot@@@std@@QAE@ABV01@@Z ; std::allocator<tagAccessorySlot>::allocator<tagAccessorySlot>
; Function compile flags: /Ogsp
; File c:\program files (x86)\microsoft visual studio 10.0\vc\include\xmemory
;	COMDAT ??0?$allocator@UtagAccessorySlot@@@std@@QAE@ABV01@@Z
_TEXT	SEGMENT
___formal$ = 8						; size = 4
??0?$allocator@UtagAccessorySlot@@@std@@QAE@ABV01@@Z PROC ; std::allocator<tagAccessorySlot>::allocator<tagAccessorySlot>, COMDAT
; _this$ = ecx

; 165  : 	_ALLOCATOR(const _ALLOCATOR<_Ty>&) _THROW0()

  00000	8b c1		 mov	 eax, ecx

; 166  : 		{	// construct by copying (do nothing)
; 167  : 		}

  00002	c2 04 00	 ret	 4
??0?$allocator@UtagAccessorySlot@@@std@@QAE@ABV01@@Z ENDP ; std::allocator<tagAccessorySlot>::allocator<tagAccessorySlot>
_TEXT	ENDS
PUBLIC	?deallocate@?$allocator@UtagAccessorySlot@@@std@@QAEXPAUtagAccessorySlot@@I@Z ; std::allocator<tagAccessorySlot>::deallocate
EXTRN	??3@YAXPAX@Z:PROC				; operator delete
; Function compile flags: /Ogsp
;	COMDAT ?deallocate@?$allocator@UtagAccessorySlot@@@std@@QAEXPAUtagAccessorySlot@@I@Z
_TEXT	SEGMENT
__Ptr$ = 8						; size = 4
___formal$ = 12						; size = 4
?deallocate@?$allocator@UtagAccessorySlot@@@std@@QAEXPAUtagAccessorySlot@@I@Z PROC ; std::allocator<tagAccessorySlot>::deallocate, COMDAT
; _this$ = ecx

; 181  : 		{	// deallocate object at _Ptr, ignore size

  00000	55		 push	 ebp
  00001	8b ec		 mov	 ebp, esp

; 182  : 		::operator delete(_Ptr);

  00003	ff 75 08	 push	 DWORD PTR __Ptr$[ebp]
  00006	e8 00 00 00 00	 call	 ??3@YAXPAX@Z		; operator delete
  0000b	59		 pop	 ecx

; 183  : 		}

  0000c	5d		 pop	 ebp
  0000d	c2 08 00	 ret	 8
?deallocate@?$allocator@UtagAccessorySlot@@@std@@QAEXPAUtagAccessorySlot@@I@Z ENDP ; std::allocator<tagAccessorySlot>::deallocate
_TEXT	ENDS
PUBLIC	??D?$_Vector_const_iterator@V?$_Vector_val@UtagAccessorySlot@@V?$allocator@UtagAccessorySlot@@@std@@@std@@@std@@QBEABUtagAccessorySlot@@XZ ; std::_Vector_const_iterator<std::_Vector_val<tagAccessorySlot,std::allocator<tagAccessorySlot> > >::operator*
; Function compile flags: /Ogsp
; File c:\program files (x86)\microsoft visual studio 10.0\vc\include\vector
;	COMDAT ??D?$_Vector_const_iterator@V?$_Vector_val@UtagAccessorySlot@@V?$allocator@UtagAccessorySlot@@@std@@@std@@@std@@QBEABUtagAccessorySlot@@XZ
_TEXT	SEGMENT
??D?$_Vector_const_iterator@V?$_Vector_val@UtagAccessorySlot@@V?$allocator@UtagAccessorySlot@@@std@@@std@@@std@@QBEABUtagAccessorySlot@@XZ PROC ; std::_Vector_const_iterator<std::_Vector_val<tagAccessorySlot,std::allocator<tagAccessorySlot> > >::operator*, COMDAT
; _this$ = ecx

; 64   :  #if _ITERATOR_DEBUG_LEVEL == 2
; 65   : 		if (this->_Getcont() == 0
; 66   : 			|| this->_Ptr == 0
; 67   : 			|| this->_Ptr < ((_Myvec *)this->_Getcont())->_Myfirst
; 68   : 			|| ((_Myvec *)this->_Getcont())->_Mylast <= this->_Ptr)
; 69   : 			{	// report error
; 70   : 			_DEBUG_ERROR("vector iterator not dereferencable");
; 71   : 			_SCL_SECURE_OUT_OF_RANGE;
; 72   : 			}
; 73   : 
; 74   :  #elif _ITERATOR_DEBUG_LEVEL == 1
; 75   : 		_SCL_SECURE_VALIDATE(this->_Getcont() != 0);
; 76   : 		_SCL_SECURE_VALIDATE_RANGE(
; 77   : 			this->_Ptr != 0
; 78   : 			&& ((_Myvec *)this->_Getcont())->_Myfirst <= this->_Ptr
; 79   : 			&& this->_Ptr < ((_Myvec *)this->_Getcont())->_Mylast);
; 80   :  #endif /* _ITERATOR_DEBUG_LEVEL */
; 81   : 
; 82   : 		__analysis_assume(this->_Ptr != 0);
; 83   : 
; 84   : 		return (*this->_Ptr);

  00000	8b 01		 mov	 eax, DWORD PTR [ecx]

; 85   : 		}

  00002	c3		 ret	 0
??D?$_Vector_const_iterator@V?$_Vector_val@UtagAccessorySlot@@V?$allocator@UtagAccessorySlot@@@std@@@std@@@std@@QBEABUtagAccessorySlot@@XZ ENDP ; std::_Vector_const_iterator<std::_Vector_val<tagAccessorySlot,std::allocator<tagAccessorySlot> > >::operator*
_TEXT	ENDS
PUBLIC	?_Compat@?$_Vector_const_iterator@V?$_Vector_val@UtagAccessorySlot@@V?$allocator@UtagAccessorySlot@@@std@@@std@@@std@@QBEXABV12@@Z ; std::_Vector_const_iterator<std::_Vector_val<tagAccessorySlot,std::allocator<tagAccessorySlot> > >::_Compat
; Function compile flags: /Ogsp
;	COMDAT ?_Compat@?$_Vector_const_iterator@V?$_Vector_val@UtagAccessorySlot@@V?$allocator@UtagAccessorySlot@@@std@@@std@@@std@@QBEXABV12@@Z
_TEXT	SEGMENT
___formal$ = 8						; size = 4
?_Compat@?$_Vector_const_iterator@V?$_Vector_val@UtagAccessorySlot@@V?$allocator@UtagAccessorySlot@@@std@@@std@@@std@@QBEXABV12@@Z PROC ; std::_Vector_const_iterator<std::_Vector_val<tagAccessorySlot,std::allocator<tagAccessorySlot> > >::_Compat, COMDAT
; _this$ = ecx

; 253  : 		}

  00000	c2 04 00	 ret	 4
?_Compat@?$_Vector_const_iterator@V?$_Vector_val@UtagAccessorySlot@@V?$allocator@UtagAccessorySlot@@@std@@@std@@@std@@QBEXABV12@@Z ENDP ; std::_Vector_const_iterator<std::_Vector_val<tagAccessorySlot,std::allocator<tagAccessorySlot> > >::_Compat
_TEXT	ENDS
PUBLIC	??_7bad_alloc@std@@6B@				; std::bad_alloc::`vftable'
PUBLIC	??0bad_alloc@std@@QAE@PBD@Z			; std::bad_alloc::bad_alloc
PUBLIC	??_R4bad_alloc@std@@6B@				; std::bad_alloc::`RTTI Complete Object Locator'
PUBLIC	??_R0?AVbad_alloc@std@@@8			; std::bad_alloc `RTTI Type Descriptor'
PUBLIC	??_R3bad_alloc@std@@8				; std::bad_alloc::`RTTI Class Hierarchy Descriptor'
PUBLIC	??_R2bad_alloc@std@@8				; std::bad_alloc::`RTTI Base Class Array'
PUBLIC	??_R1A@?0A@EA@bad_alloc@std@@8			; std::bad_alloc::`RTTI Base Class Descriptor at (0,-1,0,64)'
PUBLIC	??_R1A@?0A@EA@exception@std@@8			; std::exception::`RTTI Base Class Descriptor at (0,-1,0,64)'
PUBLIC	??_R0?AVexception@std@@@8			; std::exception `RTTI Type Descriptor'
PUBLIC	??_R3exception@std@@8				; std::exception::`RTTI Class Hierarchy Descriptor'
PUBLIC	??_R2exception@std@@8				; std::exception::`RTTI Base Class Array'
EXTRN	__imp_??0exception@std@@QAE@ABQBD@Z:PROC
EXTRN	??_7type_info@@6B@:QWORD			; type_info::`vftable'
EXTRN	??_Ebad_alloc@std@@UAEPAXI@Z:PROC		; std::bad_alloc::`vector deleting destructor'
EXTRN	?what@exception@std@@UBEPBDXZ:PROC		; std::exception::what
;	COMDAT ??_R2exception@std@@8
; File c:\program files (x86)\microsoft visual studio 10.0\vc\include\exception
rdata$r	SEGMENT
??_R2exception@std@@8 DD FLAT:??_R1A@?0A@EA@exception@std@@8 ; std::exception::`RTTI Base Class Array'
rdata$r	ENDS
;	COMDAT ??_R3exception@std@@8
rdata$r	SEGMENT
??_R3exception@std@@8 DD 00H				; std::exception::`RTTI Class Hierarchy Descriptor'
	DD	00H
	DD	01H
	DD	FLAT:??_R2exception@std@@8
rdata$r	ENDS
;	COMDAT ??_R0?AVexception@std@@@8
_DATA	SEGMENT
??_R0?AVexception@std@@@8 DD FLAT:??_7type_info@@6B@	; std::exception `RTTI Type Descriptor'
	DD	00H
	DB	'.?AVexception@std@@', 00H
_DATA	ENDS
;	COMDAT ??_R1A@?0A@EA@exception@std@@8
rdata$r	SEGMENT
??_R1A@?0A@EA@exception@std@@8 DD FLAT:??_R0?AVexception@std@@@8 ; std::exception::`RTTI Base Class Descriptor at (0,-1,0,64)'
	DD	00H
	DD	00H
	DD	0ffffffffH
	DD	00H
	DD	040H
	DD	FLAT:??_R3exception@std@@8
rdata$r	ENDS
;	COMDAT ??_R1A@?0A@EA@bad_alloc@std@@8
rdata$r	SEGMENT
??_R1A@?0A@EA@bad_alloc@std@@8 DD FLAT:??_R0?AVbad_alloc@std@@@8 ; std::bad_alloc::`RTTI Base Class Descriptor at (0,-1,0,64)'
	DD	01H
	DD	00H
	DD	0ffffffffH
	DD	00H
	DD	040H
	DD	FLAT:??_R3bad_alloc@std@@8
rdata$r	ENDS
;	COMDAT ??_R2bad_alloc@std@@8
rdata$r	SEGMENT
??_R2bad_alloc@std@@8 DD FLAT:??_R1A@?0A@EA@bad_alloc@std@@8 ; std::bad_alloc::`RTTI Base Class Array'
	DD	FLAT:??_R1A@?0A@EA@exception@std@@8
rdata$r	ENDS
;	COMDAT ??_R3bad_alloc@std@@8
rdata$r	SEGMENT
??_R3bad_alloc@std@@8 DD 00H				; std::bad_alloc::`RTTI Class Hierarchy Descriptor'
	DD	00H
	DD	02H
	DD	FLAT:??_R2bad_alloc@std@@8
rdata$r	ENDS
;	COMDAT ??_R0?AVbad_alloc@std@@@8
_DATA	SEGMENT
??_R0?AVbad_alloc@std@@@8 DD FLAT:??_7type_info@@6B@	; std::bad_alloc `RTTI Type Descriptor'
	DD	00H
	DB	'.?AVbad_alloc@std@@', 00H
_DATA	ENDS
;	COMDAT ??_R4bad_alloc@std@@6B@
rdata$r	SEGMENT
??_R4bad_alloc@std@@6B@ DD 00H				; std::bad_alloc::`RTTI Complete Object Locator'
	DD	00H
	DD	00H
	DD	FLAT:??_R0?AVbad_alloc@std@@@8
	DD	FLAT:??_R3bad_alloc@std@@8
rdata$r	ENDS
;	COMDAT ??_7bad_alloc@std@@6B@
CONST	SEGMENT
??_7bad_alloc@std@@6B@ DD FLAT:??_R4bad_alloc@std@@6B@	; std::bad_alloc::`vftable'
	DD	FLAT:??_Ebad_alloc@std@@UAEPAXI@Z
	DD	FLAT:?what@exception@std@@UBEPBDXZ
; Function compile flags: /Ogsp
CONST	ENDS
;	COMDAT ??0bad_alloc@std@@QAE@PBD@Z
_TEXT	SEGMENT
__Message$ = 8						; size = 4
??0bad_alloc@std@@QAE@PBD@Z PROC			; std::bad_alloc::bad_alloc, COMDAT
; _this$ = ecx

; 345  : 		{	// construct from message string

  00000	55		 push	 ebp
  00001	8b ec		 mov	 ebp, esp
  00003	56		 push	 esi
  00004	8d 45 08	 lea	 eax, DWORD PTR __Message$[ebp]
  00007	50		 push	 eax
  00008	8b f1		 mov	 esi, ecx
  0000a	ff 15 00 00 00
	00		 call	 DWORD PTR __imp_??0exception@std@@QAE@ABQBD@Z
  00010	c7 06 00 00 00
	00		 mov	 DWORD PTR [esi], OFFSET ??_7bad_alloc@std@@6B@

; 346  : 		}

  00016	8b c6		 mov	 eax, esi
  00018	5e		 pop	 esi
  00019	5d		 pop	 ebp
  0001a	c2 04 00	 ret	 4
??0bad_alloc@std@@QAE@PBD@Z ENDP			; std::bad_alloc::bad_alloc
_TEXT	ENDS
PUBLIC	?max_size@?$allocator@UtagAccessorySlot@@@std@@QBEIXZ ; std::allocator<tagAccessorySlot>::max_size
; Function compile flags: /Ogsp
; File c:\program files (x86)\microsoft visual studio 10.0\vc\include\xmemory
;	COMDAT ?max_size@?$allocator@UtagAccessorySlot@@@std@@QBEIXZ
_TEXT	SEGMENT
?max_size@?$allocator@UtagAccessorySlot@@@std@@QBEIXZ PROC ; std::allocator<tagAccessorySlot>::max_size, COMDAT
; _this$ = ecx

; 218  : 		_SIZT _Count = (_SIZT)(-1) / sizeof (_Ty);
; 219  : 		return (0 < _Count ? _Count : 1);

  00000	b8 c3 c3 c3 03	 mov	 eax, 63161283		; 03c3c3c3H

; 220  : 		}

  00005	c3		 ret	 0
?max_size@?$allocator@UtagAccessorySlot@@@std@@QBEIXZ ENDP ; std::allocator<tagAccessorySlot>::max_size
_TEXT	ENDS
PUBLIC	??1bad_alloc@std@@UAE@XZ			; std::bad_alloc::~bad_alloc
EXTRN	__imp_??1exception@std@@UAE@XZ:PROC
; Function compile flags: /Ogsp
; File c:\program files (x86)\microsoft visual studio 10.0\vc\include\exception
;	COMDAT ??1bad_alloc@std@@UAE@XZ
_TEXT	SEGMENT
??1bad_alloc@std@@UAE@XZ PROC				; std::bad_alloc::~bad_alloc, COMDAT
; _this$ = ecx

; 354  : 		{	// destroy the object

  00000	c7 01 00 00 00
	00		 mov	 DWORD PTR [ecx], OFFSET ??_7bad_alloc@std@@6B@

; 355  : 		}

  00006	ff 25 00 00 00
	00		 jmp	 DWORD PTR __imp_??1exception@std@@UAE@XZ
??1bad_alloc@std@@UAE@XZ ENDP				; std::bad_alloc::~bad_alloc
_TEXT	ENDS
PUBLIC	??$addressof@$$CBUtagAccessorySlot@@@std@@YAPBUtagAccessorySlot@@ABU1@@Z ; std::addressof<tagAccessorySlot const >
; Function compile flags: /Ogsp
; File c:\program files (x86)\microsoft visual studio 10.0\vc\include\xmemory
;	COMDAT ??$addressof@$$CBUtagAccessorySlot@@@std@@YAPBUtagAccessorySlot@@ABU1@@Z
_TEXT	SEGMENT
__Val$ = 8						; size = 4
??$addressof@$$CBUtagAccessorySlot@@@std@@YAPBUtagAccessorySlot@@ABU1@@Z PROC ; std::addressof<tagAccessorySlot const >, COMDAT

; 110  : 	{	// return address of _Val

  00000	55		 push	 ebp
  00001	8b ec		 mov	 ebp, esp

; 111  : 	return ((_Ty *) &(char&)_Val);

  00003	8b 45 08	 mov	 eax, DWORD PTR __Val$[ebp]

; 112  : 	}

  00006	5d		 pop	 ebp
  00007	c3		 ret	 0
??$addressof@$$CBUtagAccessorySlot@@@std@@YAPBUtagAccessorySlot@@ABU1@@Z ENDP ; std::addressof<tagAccessorySlot const >
; Function compile flags: /Ogsp
_TEXT	ENDS
;	COMDAT ??_Gbad_alloc@std@@UAEPAXI@Z
_TEXT	SEGMENT
___flags$ = 8						; size = 4
??_Gbad_alloc@std@@UAEPAXI@Z PROC			; std::bad_alloc::`scalar deleting destructor', COMDAT
; _this$ = ecx
  00000	55		 push	 ebp
  00001	8b ec		 mov	 ebp, esp
  00003	56		 push	 esi
  00004	8b f1		 mov	 esi, ecx
  00006	c7 06 00 00 00
	00		 mov	 DWORD PTR [esi], OFFSET ??_7bad_alloc@std@@6B@
  0000c	ff 15 00 00 00
	00		 call	 DWORD PTR __imp_??1exception@std@@UAE@XZ
  00012	f6 45 08 01	 test	 BYTE PTR ___flags$[ebp], 1
  00016	74 07		 je	 SHORT $LN1@scalar
  00018	56		 push	 esi
  00019	e8 00 00 00 00	 call	 ??3@YAXPAX@Z		; operator delete
  0001e	59		 pop	 ecx
$LN1@scalar:
  0001f	8b c6		 mov	 eax, esi
  00021	5e		 pop	 esi
  00022	5d		 pop	 ebp
  00023	c2 04 00	 ret	 4
??_Gbad_alloc@std@@UAEPAXI@Z ENDP			; std::bad_alloc::`scalar deleting destructor'
_TEXT	ENDS
PUBLIC	__TI2?AVbad_alloc@std@@
PUBLIC	??$_Allocate@UtagAccessorySlot@@@std@@YAPAUtagAccessorySlot@@IPAU1@@Z ; std::_Allocate<tagAccessorySlot>
PUBLIC	__CTA2?AVbad_alloc@std@@
PUBLIC	__CT??_R0?AVbad_alloc@std@@@8??0bad_alloc@std@@QAE@ABV01@@Z12
PUBLIC	??0bad_alloc@std@@QAE@ABV01@@Z			; std::bad_alloc::bad_alloc
PUBLIC	__CT??_R0?AVexception@std@@@8??0exception@std@@QAE@ABV01@@Z12
EXTRN	??2@YAPAXI@Z:PROC				; operator new
EXTRN	__CxxThrowException@8:PROC
EXTRN	??0exception@std@@QAE@ABV01@@Z:PROC		; std::exception::exception
;	COMDAT __CT??_R0?AVexception@std@@@8??0exception@std@@QAE@ABV01@@Z12
; File c:\program files (x86)\microsoft visual studio 10.0\vc\include\exception
xdata$x	SEGMENT
__CT??_R0?AVexception@std@@@8??0exception@std@@QAE@ABV01@@Z12 DD 00H
	DD	FLAT:??_R0?AVexception@std@@@8
	DD	00H
	DD	0ffffffffH
	ORG $+4
	DD	0cH
	DD	FLAT:??0exception@std@@QAE@ABV01@@Z
xdata$x	ENDS
;	COMDAT __CT??_R0?AVbad_alloc@std@@@8??0bad_alloc@std@@QAE@ABV01@@Z12
xdata$x	SEGMENT
__CT??_R0?AVbad_alloc@std@@@8??0bad_alloc@std@@QAE@ABV01@@Z12 DD 00H
	DD	FLAT:??_R0?AVbad_alloc@std@@@8
	DD	00H
	DD	0ffffffffH
	ORG $+4
	DD	0cH
	DD	FLAT:??0bad_alloc@std@@QAE@ABV01@@Z
xdata$x	ENDS
;	COMDAT __CTA2?AVbad_alloc@std@@
xdata$x	SEGMENT
__CTA2?AVbad_alloc@std@@ DD 02H
	DD	FLAT:__CT??_R0?AVbad_alloc@std@@@8??0bad_alloc@std@@QAE@ABV01@@Z12
	DD	FLAT:__CT??_R0?AVexception@std@@@8??0exception@std@@QAE@ABV01@@Z12
xdata$x	ENDS
;	COMDAT __TI2?AVbad_alloc@std@@
xdata$x	SEGMENT
__TI2?AVbad_alloc@std@@ DD 00H
	DD	FLAT:??1bad_alloc@std@@UAE@XZ
	DD	00H
	DD	FLAT:__CTA2?AVbad_alloc@std@@
; Function compile flags: /Ogsp
; File c:\program files (x86)\microsoft visual studio 10.0\vc\include\xmemory
xdata$x	ENDS
;	COMDAT ??$_Allocate@UtagAccessorySlot@@@std@@YAPAUtagAccessorySlot@@IPAU1@@Z
_TEXT	SEGMENT
$T506801 = -12						; size = 12
$T506806 = 8						; size = 4
__Count$ = 8						; size = 4
___formal$ = 12						; size = 4
??$_Allocate@UtagAccessorySlot@@@std@@YAPAUtagAccessorySlot@@IPAU1@@Z PROC ; std::_Allocate<tagAccessorySlot>, COMDAT

; 30   : 	{	// allocate storage for _Count elements of type _Ty

  00000	55		 push	 ebp
  00001	8b ec		 mov	 ebp, esp

; 31   : 	void *_Ptr = 0;
; 32   : 
; 33   : 	if (_Count <= 0)

  00003	8b 4d 08	 mov	 ecx, DWORD PTR __Count$[ebp]
  00006	83 ec 0c	 sub	 esp, 12			; 0000000cH
  00009	33 c0		 xor	 eax, eax
  0000b	85 c9		 test	 ecx, ecx

; 34   : 		_Count = 0;
; 35   : 	else if (((_SIZT)(-1) / sizeof (_Ty) < _Count)

  0000d	74 3c		 je	 SHORT $LN5@Allocate

; 36   : 		|| (_Ptr = ::operator new(_Count * sizeof (_Ty))) == 0)

  0000f	81 f9 c3 c3 c3
	03		 cmp	 ecx, 63161283		; 03c3c3c3H
  00015	77 0e		 ja	 SHORT $LN1@Allocate
  00017	6b c9 44	 imul	 ecx, 68			; 00000044H
  0001a	51		 push	 ecx
  0001b	e8 00 00 00 00	 call	 ??2@YAPAXI@Z		; operator new
  00020	59		 pop	 ecx
  00021	85 c0		 test	 eax, eax

; 38   : 
; 39   : 	return ((_Ty _FARQ *)_Ptr);

  00023	75 26		 jne	 SHORT $LN5@Allocate
$LN1@Allocate:

; 37   : 		_THROW_NCEE(bad_alloc, 0);

  00025	83 65 08 00	 and	 DWORD PTR $T506806[ebp], 0
  00029	8d 45 08	 lea	 eax, DWORD PTR $T506806[ebp]
  0002c	50		 push	 eax
  0002d	8d 4d f4	 lea	 ecx, DWORD PTR $T506801[ebp]
  00030	ff 15 00 00 00
	00		 call	 DWORD PTR __imp_??0exception@std@@QAE@ABQBD@Z
  00036	68 00 00 00 00	 push	 OFFSET __TI2?AVbad_alloc@std@@
  0003b	8d 45 f4	 lea	 eax, DWORD PTR $T506801[ebp]
  0003e	50		 push	 eax
  0003f	c7 45 f4 00 00
	00 00		 mov	 DWORD PTR $T506801[ebp], OFFSET ??_7bad_alloc@std@@6B@
  00046	e8 00 00 00 00	 call	 __CxxThrowException@8
$LN10@Allocate:
$LN5@Allocate:

; 40   : 	}

  0004b	c9		 leave
  0004c	c3		 ret	 0
$LN9@Allocate:
??$_Allocate@UtagAccessorySlot@@@std@@YAPAUtagAccessorySlot@@IPAU1@@Z ENDP ; std::_Allocate<tagAccessorySlot>
_TEXT	ENDS
PUBLIC	??G?$_Vector_const_iterator@V?$_Vector_val@UtagAccessorySlot@@V?$allocator@UtagAccessorySlot@@@std@@@std@@@std@@QBEHABV01@@Z ; std::_Vector_const_iterator<std::_Vector_val<tagAccessorySlot,std::allocator<tagAccessorySlot> > >::operator-
; Function compile flags: /Ogsp
; File c:\program files (x86)\microsoft visual studio 10.0\vc\include\vector
;	COMDAT ??G?$_Vector_const_iterator@V?$_Vector_val@UtagAccessorySlot@@V?$allocator@UtagAccessorySlot@@@std@@@std@@@std@@QBEHABV01@@Z
_TEXT	SEGMENT
__Right$ = 8						; size = 4
??G?$_Vector_const_iterator@V?$_Vector_val@UtagAccessorySlot@@V?$allocator@UtagAccessorySlot@@@std@@@std@@@std@@QBEHABV01@@Z PROC ; std::_Vector_const_iterator<std::_Vector_val<tagAccessorySlot,std::allocator<tagAccessorySlot> > >::operator-, COMDAT
; _this$ = ecx

; 190  : 		{	// return difference of iterators

  00000	55		 push	 ebp
  00001	8b ec		 mov	 ebp, esp

; 191  : 		_Compat(_Right);
; 192  : 		return (this->_Ptr - _Right._Ptr);

  00003	8b 01		 mov	 eax, DWORD PTR [ecx]
  00005	8b 4d 08	 mov	 ecx, DWORD PTR __Right$[ebp]
  00008	2b 01		 sub	 eax, DWORD PTR [ecx]
  0000a	6a 44		 push	 68			; 00000044H
  0000c	99		 cdq
  0000d	59		 pop	 ecx
  0000e	f7 f9		 idiv	 ecx

; 193  : 		}

  00010	5d		 pop	 ebp
  00011	c2 04 00	 ret	 4
??G?$_Vector_const_iterator@V?$_Vector_val@UtagAccessorySlot@@V?$allocator@UtagAccessorySlot@@@std@@@std@@@std@@QBEHABV01@@Z ENDP ; std::_Vector_const_iterator<std::_Vector_val<tagAccessorySlot,std::allocator<tagAccessorySlot> > >::operator-
_TEXT	ENDS
PUBLIC	??$forward@AAUtagAccessorySlot@@@std@@YAAAUtagAccessorySlot@@AAU1@@Z ; std::forward<tagAccessorySlot &>
; Function compile flags: /Ogsp
; File c:\program files (x86)\microsoft visual studio 10.0\vc\include\utility
;	COMDAT ??$forward@AAUtagAccessorySlot@@@std@@YAAAUtagAccessorySlot@@AAU1@@Z
_TEXT	SEGMENT
__Arg$ = 8						; size = 4
??$forward@AAUtagAccessorySlot@@@std@@YAAAUtagAccessorySlot@@AAU1@@Z PROC ; std::forward<tagAccessorySlot &>, COMDAT

; 78   : 	{	// forward _Arg, given explicitly specified type parameter

  00000	55		 push	 ebp
  00001	8b ec		 mov	 ebp, esp

; 79   : 	return ((_Ty&&)_Arg);

  00003	8b 45 08	 mov	 eax, DWORD PTR __Arg$[ebp]

; 80   : 	}

  00006	5d		 pop	 ebp
  00007	c3		 ret	 0
??$forward@AAUtagAccessorySlot@@@std@@YAAAUtagAccessorySlot@@AAU1@@Z ENDP ; std::forward<tagAccessorySlot &>
_TEXT	ENDS
PUBLIC	??2@YAPAXIPAX@Z					; operator new
; Function compile flags: /Ogsp
; File c:\program files (x86)\microsoft visual studio 10.0\vc\include\new
;	COMDAT ??2@YAPAXIPAX@Z
_TEXT	SEGMENT
___formal$ = 8						; size = 4
__Where$ = 12						; size = 4
??2@YAPAXIPAX@Z PROC					; operator new, COMDAT

; 56   : 	{	// construct array with placement at _Where

  00000	55		 push	 ebp
  00001	8b ec		 mov	 ebp, esp

; 57   : 	return (_Where);

  00003	8b 45 0c	 mov	 eax, DWORD PTR __Where$[ebp]

; 58   : 	}

  00006	5d		 pop	 ebp
  00007	c3		 ret	 0
??2@YAPAXIPAX@Z ENDP					; operator new
_TEXT	ENDS
PUBLIC	??3@YAXPAX0@Z					; operator delete
; Function compile flags: /Ogsp
;	COMDAT ??3@YAXPAX0@Z
_TEXT	SEGMENT
___formal$ = 8						; size = 4
___formal$ = 12						; size = 4
??3@YAXPAX0@Z PROC					; operator delete, COMDAT

; 62   : 	}

  00000	c3		 ret	 0
??3@YAXPAX0@Z ENDP					; operator delete
_TEXT	ENDS
PUBLIC	??$forward@ABUtagAccessorySlot@@@std@@YAABUtagAccessorySlot@@ABU1@@Z ; std::forward<tagAccessorySlot const &>
; Function compile flags: /Ogsp
; File c:\program files (x86)\microsoft visual studio 10.0\vc\include\utility
;	COMDAT ??$forward@ABUtagAccessorySlot@@@std@@YAABUtagAccessorySlot@@ABU1@@Z
_TEXT	SEGMENT
__Arg$ = 8						; size = 4
??$forward@ABUtagAccessorySlot@@@std@@YAABUtagAccessorySlot@@ABU1@@Z PROC ; std::forward<tagAccessorySlot const &>, COMDAT

; 78   : 	{	// forward _Arg, given explicitly specified type parameter

  00000	55		 push	 ebp
  00001	8b ec		 mov	 ebp, esp

; 79   : 	return ((_Ty&&)_Arg);

  00003	8b 45 08	 mov	 eax, DWORD PTR __Arg$[ebp]

; 80   : 	}

  00006	5d		 pop	 ebp
  00007	c3		 ret	 0
??$forward@ABUtagAccessorySlot@@@std@@YAABUtagAccessorySlot@@ABU1@@Z ENDP ; std::forward<tagAccessorySlot const &>
_TEXT	ENDS
PUBLIC	??$_Ptr_cat@UtagAccessorySlot@@U1@@std@@YA?AU_Nonscalar_ptr_iterator_tag@0@PAUtagAccessorySlot@@0@Z ; std::_Ptr_cat<tagAccessorySlot,tagAccessorySlot>
; Function compile flags: /Ogsp
; File c:\program files (x86)\microsoft visual studio 10.0\vc\include\xutility
;	COMDAT ??$_Ptr_cat@UtagAccessorySlot@@U1@@std@@YA?AU_Nonscalar_ptr_iterator_tag@0@PAUtagAccessorySlot@@0@Z
_TEXT	SEGMENT
__Cat$ = -1						; size = 1
___formal$ = 8						; size = 4
___formal$ = 12						; size = 4
??$_Ptr_cat@UtagAccessorySlot@@U1@@std@@YA?AU_Nonscalar_ptr_iterator_tag@0@PAUtagAccessorySlot@@0@Z PROC ; std::_Ptr_cat<tagAccessorySlot,tagAccessorySlot>, COMDAT

; 516  : 	{	// return pointer category from pointers

  00000	55		 push	 ebp
  00001	8b ec		 mov	 ebp, esp
  00003	51		 push	 ecx

; 517  : 	typename _Ptr_cat_helper<_Elem1, _Elem2>::_Type _Cat;
; 518  : 	return (_Cat);

  00004	8a 45 ff	 mov	 al, BYTE PTR __Cat$[ebp]

; 519  : 	}

  00007	c9		 leave
  00008	c3		 ret	 0
??$_Ptr_cat@UtagAccessorySlot@@U1@@std@@YA?AU_Nonscalar_ptr_iterator_tag@0@PAUtagAccessorySlot@@0@Z ENDP ; std::_Ptr_cat<tagAccessorySlot,tagAccessorySlot>
_TEXT	ENDS
PUBLIC	??$_Construct@UtagAccessorySlot@@ABU1@@std@@YAXPAUtagAccessorySlot@@ABU1@@Z ; std::_Construct<tagAccessorySlot,tagAccessorySlot const &>
;	COMDAT xdata$x
; File c:\program files (x86)\microsoft visual studio 10.0\vc\include\utility
xdata$x	SEGMENT
__unwindtable$??$_Construct@UtagAccessorySlot@@ABU1@@std@@YAXPAUtagAccessorySlot@@ABU1@@Z DD 0ffffffffH
	DD	FLAT:__unwindfunclet$??$_Construct@UtagAccessorySlot@@ABU1@@std@@YAXPAUtagAccessorySlot@@ABU1@@Z$0
__ehfuncinfo$??$_Construct@UtagAccessorySlot@@ABU1@@std@@YAXPAUtagAccessorySlot@@ABU1@@Z DD 019930522H
	DD	01H
	DD	FLAT:__unwindtable$??$_Construct@UtagAccessorySlot@@ABU1@@std@@YAXPAUtagAccessorySlot@@ABU1@@Z
	DD	2 DUP(00H)
	DD	2 DUP(00H)
	DD	00H
	DD	01H
; Function compile flags: /Ogsp
; File c:\program files (x86)\microsoft visual studio 10.0\vc\include\xmemory
xdata$x	ENDS
;	COMDAT ??$_Construct@UtagAccessorySlot@@ABU1@@std@@YAXPAUtagAccessorySlot@@ABU1@@Z
_TEXT	SEGMENT
$T506828 = -16						; size = 4
__$EHRec$ = -12						; size = 12
__Vptr$ = 8						; size = 4
__Ptr$ = 8						; size = 4
__Val$ = 12						; size = 4
??$_Construct@UtagAccessorySlot@@ABU1@@std@@YAXPAUtagAccessorySlot@@ABU1@@Z PROC ; std::_Construct<tagAccessorySlot,tagAccessorySlot const &>, COMDAT

; 46   : 	{	// construct object at _Ptr with value _Val

  00000	6a 04		 push	 4
  00002	b8 00 00 00 00	 mov	 eax, __ehhandler$??$_Construct@UtagAccessorySlot@@ABU1@@std@@YAXPAUtagAccessorySlot@@ABU1@@Z
  00007	e8 00 00 00 00	 call	 __EH_prolog3

; 47   : 	void _FARQ *_Vptr = _Ptr;

  0000c	8b 4d 08	 mov	 ecx, DWORD PTR __Ptr$[ebp]
  0000f	89 4d 08	 mov	 DWORD PTR __Vptr$[ebp], ecx

; 48   : 	::new (_Vptr) _Ty1(_STD forward<_Ty2>(_Val));

  00012	89 4d f0	 mov	 DWORD PTR $T506828[ebp], ecx
  00015	83 65 fc 00	 and	 DWORD PTR __$EHRec$[ebp+8], 0
  00019	85 c9		 test	 ecx, ecx
  0001b	74 08		 je	 SHORT $LN3@Construct
  0001d	ff 75 0c	 push	 DWORD PTR __Val$[ebp]
  00020	e8 00 00 00 00	 call	 ??0tagAccessorySlot@@QAE@ABU0@@Z
$LN3@Construct:

; 49   : 	}

  00025	e8 00 00 00 00	 call	 __EH_epilog3
  0002a	c3		 ret	 0
_TEXT	ENDS
;	COMDAT text$x
text$x	SEGMENT
__unwindfunclet$??$_Construct@UtagAccessorySlot@@ABU1@@std@@YAXPAUtagAccessorySlot@@ABU1@@Z$0:
  00000	ff 75 08	 push	 DWORD PTR __Vptr$[ebp]
  00003	ff 75 f0	 push	 DWORD PTR $T506828[ebp]
  00006	e8 00 00 00 00	 call	 ??3@YAXPAX0@Z		; operator delete
  0000b	59		 pop	 ecx
  0000c	59		 pop	 ecx
  0000d	c3		 ret	 0
__ehhandler$??$_Construct@UtagAccessorySlot@@ABU1@@std@@YAXPAUtagAccessorySlot@@ABU1@@Z:
  0000e	8b 54 24 08	 mov	 edx, DWORD PTR [esp+8]
  00012	8d 42 0c	 lea	 eax, DWORD PTR [edx+12]
  00015	8b 4a ec	 mov	 ecx, DWORD PTR [edx-20]
  00018	33 c8		 xor	 ecx, eax
  0001a	e8 00 00 00 00	 call	 @__security_check_cookie@4
  0001f	b8 00 00 00 00	 mov	 eax, OFFSET __ehfuncinfo$??$_Construct@UtagAccessorySlot@@ABU1@@std@@YAXPAUtagAccessorySlot@@ABU1@@Z
  00024	e9 00 00 00 00	 jmp	 ___CxxFrameHandler3
text$x	ENDS
??$_Construct@UtagAccessorySlot@@ABU1@@std@@YAXPAUtagAccessorySlot@@ABU1@@Z ENDP ; std::_Construct<tagAccessorySlot,tagAccessorySlot const &>
PUBLIC	?_Unchecked@?$_Vector_iterator@V?$_Vector_val@UtagAccessorySlot@@V?$allocator@UtagAccessorySlot@@@std@@@std@@@std@@QBEPAUtagAccessorySlot@@XZ ; std::_Vector_iterator<std::_Vector_val<tagAccessorySlot,std::allocator<tagAccessorySlot> > >::_Unchecked
; Function compile flags: /Ogsp
; File c:\program files (x86)\microsoft visual studio 10.0\vc\include\vector
;	COMDAT ?_Unchecked@?$_Vector_iterator@V?$_Vector_val@UtagAccessorySlot@@V?$allocator@UtagAccessorySlot@@@std@@@std@@@std@@QBEPAUtagAccessorySlot@@XZ
_TEXT	SEGMENT
?_Unchecked@?$_Vector_iterator@V?$_Vector_val@UtagAccessorySlot@@V?$allocator@UtagAccessorySlot@@@std@@@std@@@std@@QBEPAUtagAccessorySlot@@XZ PROC ; std::_Vector_iterator<std::_Vector_val<tagAccessorySlot,std::allocator<tagAccessorySlot> > >::_Unchecked, COMDAT
; _this$ = ecx

; 317  : 		return (_Unchecked_type(this->_Ptr));

  00000	8b 01		 mov	 eax, DWORD PTR [ecx]

; 318  : 		}

  00002	c3		 ret	 0
?_Unchecked@?$_Vector_iterator@V?$_Vector_val@UtagAccessorySlot@@V?$allocator@UtagAccessorySlot@@@std@@@std@@@std@@QBEPAUtagAccessorySlot@@XZ ENDP ; std::_Vector_iterator<std::_Vector_val<tagAccessorySlot,std::allocator<tagAccessorySlot> > >::_Unchecked
_TEXT	ENDS
PUBLIC	??$move@AAUtagAccessorySlot@@@std@@YA$$QAUtagAccessorySlot@@AAU1@@Z ; std::move<tagAccessorySlot &>
; Function compile flags: /Ogsp
; File c:\program files (x86)\microsoft visual studio 10.0\vc\include\utility
;	COMDAT ??$move@AAUtagAccessorySlot@@@std@@YA$$QAUtagAccessorySlot@@AAU1@@Z
_TEXT	SEGMENT
__Arg$ = 8						; size = 4
??$move@AAUtagAccessorySlot@@@std@@YA$$QAUtagAccessorySlot@@AAU1@@Z PROC ; std::move<tagAccessorySlot &>, COMDAT

; 86   : 	{	// forward _Arg as movable

  00000	55		 push	 ebp
  00001	8b ec		 mov	 ebp, esp

; 87   : 	return ((typename tr1::_Remove_reference<_Ty>::_Type&&)_Arg);

  00003	8b 45 08	 mov	 eax, DWORD PTR __Arg$[ebp]

; 88   : 	}

  00006	5d		 pop	 ebp
  00007	c3		 ret	 0
??$move@AAUtagAccessorySlot@@@std@@YA$$QAUtagAccessorySlot@@AAU1@@Z ENDP ; std::move<tagAccessorySlot &>
_TEXT	ENDS
PUBLIC	??$_Val_type@PAUtagAccessorySlot@@@std@@YAPAUtagAccessorySlot@@PAU1@@Z ; std::_Val_type<tagAccessorySlot *>
; Function compile flags: /Ogsp
; File c:\program files (x86)\microsoft visual studio 10.0\vc\include\xutility
;	COMDAT ??$_Val_type@PAUtagAccessorySlot@@@std@@YAPAUtagAccessorySlot@@PAU1@@Z
_TEXT	SEGMENT
___formal$ = 8						; size = 4
??$_Val_type@PAUtagAccessorySlot@@@std@@YAPAUtagAccessorySlot@@PAU1@@Z PROC ; std::_Val_type<tagAccessorySlot *>, COMDAT

; 790  : 	return (0);

  00000	33 c0		 xor	 eax, eax

; 791  : 	}

  00002	c3		 ret	 0
??$_Val_type@PAUtagAccessorySlot@@@std@@YAPAUtagAccessorySlot@@PAU1@@Z ENDP ; std::_Val_type<tagAccessorySlot *>
_TEXT	ENDS
PUBLIC	??$_Unchecked@PAUtagAccessorySlot@@@std@@YAPAUtagAccessorySlot@@PAU1@@Z ; std::_Unchecked<tagAccessorySlot *>
; Function compile flags: /Ogsp
;	COMDAT ??$_Unchecked@PAUtagAccessorySlot@@@std@@YAPAUtagAccessorySlot@@PAU1@@Z
_TEXT	SEGMENT
__Src$ = 8						; size = 4
??$_Unchecked@PAUtagAccessorySlot@@@std@@YAPAUtagAccessorySlot@@PAU1@@Z PROC ; std::_Unchecked<tagAccessorySlot *>, COMDAT

; 266  : 	{	// construct unchecked from checked, generic

  00000	55		 push	 ebp
  00001	8b ec		 mov	 ebp, esp

; 267  : 	return (_Src);

  00003	8b 45 08	 mov	 eax, DWORD PTR __Src$[ebp]

; 268  : 	}

  00006	5d		 pop	 ebp
  00007	c3		 ret	 0
??$_Unchecked@PAUtagAccessorySlot@@@std@@YAPAUtagAccessorySlot@@PAU1@@Z ENDP ; std::_Unchecked<tagAccessorySlot *>
_TEXT	ENDS
PUBLIC	??$_Dist_type@PAUtagAccessorySlot@@@std@@YAPAHPAUtagAccessorySlot@@@Z ; std::_Dist_type<tagAccessorySlot *>
; Function compile flags: /Ogsp
;	COMDAT ??$_Dist_type@PAUtagAccessorySlot@@@std@@YAPAHPAUtagAccessorySlot@@@Z
_TEXT	SEGMENT
___formal$ = 8						; size = 4
??$_Dist_type@PAUtagAccessorySlot@@@std@@YAPAHPAUtagAccessorySlot@@@Z PROC ; std::_Dist_type<tagAccessorySlot *>, COMDAT

; 850  : 	return (0);

  00000	33 c0		 xor	 eax, eax

; 851  : 	}

  00002	c3		 ret	 0
??$_Dist_type@PAUtagAccessorySlot@@@std@@YAPAHPAUtagAccessorySlot@@@Z ENDP ; std::_Dist_type<tagAccessorySlot *>
_TEXT	ENDS
PUBLIC	??_GtagAccessorySlot@@QAEPAXI@Z			; tagAccessorySlot::`scalar deleting destructor'
; Function compile flags: /Ogsp
;	COMDAT ??_GtagAccessorySlot@@QAEPAXI@Z
_TEXT	SEGMENT
___flags$ = 8						; size = 4
??_GtagAccessorySlot@@QAEPAXI@Z PROC			; tagAccessorySlot::`scalar deleting destructor', COMDAT
; _this$ = ecx
  00000	55		 push	 ebp
  00001	8b ec		 mov	 ebp, esp
  00003	56		 push	 esi
  00004	8b f1		 mov	 esi, ecx
  00006	e8 00 00 00 00	 call	 ??1tagAccessorySlot@@QAE@XZ
  0000b	f6 45 08 01	 test	 BYTE PTR ___flags$[ebp], 1
  0000f	74 07		 je	 SHORT $LN1@scalar@2
  00011	56		 push	 esi
  00012	e8 00 00 00 00	 call	 ??3@YAXPAX@Z		; operator delete
  00017	59		 pop	 ecx
$LN1@scalar@2:
  00018	8b c6		 mov	 eax, esi
  0001a	5e		 pop	 esi
  0001b	5d		 pop	 ebp
  0001c	c2 04 00	 ret	 4
??_GtagAccessorySlot@@QAEPAXI@Z ENDP			; tagAccessorySlot::`scalar deleting destructor'
_TEXT	ENDS
PUBLIC	??$forward@AAPAUtagAccessorySlot@@@std@@YAAAPAUtagAccessorySlot@@AAPAU1@@Z ; std::forward<tagAccessorySlot * &>
; Function compile flags: /Ogsp
; File c:\program files (x86)\microsoft visual studio 10.0\vc\include\utility
;	COMDAT ??$forward@AAPAUtagAccessorySlot@@@std@@YAAAPAUtagAccessorySlot@@AAPAU1@@Z
_TEXT	SEGMENT
__Arg$ = 8						; size = 4
??$forward@AAPAUtagAccessorySlot@@@std@@YAAAPAUtagAccessorySlot@@AAPAU1@@Z PROC ; std::forward<tagAccessorySlot * &>, COMDAT

; 78   : 	{	// forward _Arg, given explicitly specified type parameter

  00000	55		 push	 ebp
  00001	8b ec		 mov	 ebp, esp

; 79   : 	return ((_Ty&&)_Arg);

  00003	8b 45 08	 mov	 eax, DWORD PTR __Arg$[ebp]

; 80   : 	}

  00006	5d		 pop	 ebp
  00007	c3		 ret	 0
??$forward@AAPAUtagAccessorySlot@@@std@@YAAAPAUtagAccessorySlot@@AAPAU1@@Z ENDP ; std::forward<tagAccessorySlot * &>
_TEXT	ENDS
PUBLIC	??$?0AAPAUtagAccessorySlot@@AAPAU0@@?$_Pair_base@PAUtagAccessorySlot@@PAU1@@std@@QAE@AAPAUtagAccessorySlot@@0@Z ; std::_Pair_base<tagAccessorySlot *,tagAccessorySlot *>::_Pair_base<tagAccessorySlot *,tagAccessorySlot *><tagAccessorySlot * &,tagAccessorySlot * &>
; Function compile flags: /Ogsp
;	COMDAT ??$?0AAPAUtagAccessorySlot@@AAPAU0@@?$_Pair_base@PAUtagAccessorySlot@@PAU1@@std@@QAE@AAPAUtagAccessorySlot@@0@Z
_TEXT	SEGMENT
__Val1$ = 8						; size = 4
__Val2$ = 12						; size = 4
??$?0AAPAUtagAccessorySlot@@AAPAU0@@?$_Pair_base@PAUtagAccessorySlot@@PAU1@@std@@QAE@AAPAUtagAccessorySlot@@0@Z PROC ; std::_Pair_base<tagAccessorySlot *,tagAccessorySlot *>::_Pair_base<tagAccessorySlot *,tagAccessorySlot *><tagAccessorySlot * &,tagAccessorySlot * &>, COMDAT
; _this$ = ecx

; 163  : 		{	// construct from moved values

  00000	55		 push	 ebp
  00001	8b ec		 mov	 ebp, esp
  00003	8b c1		 mov	 eax, ecx
  00005	8b 4d 08	 mov	 ecx, DWORD PTR __Val1$[ebp]
  00008	8b 09		 mov	 ecx, DWORD PTR [ecx]
  0000a	89 08		 mov	 DWORD PTR [eax], ecx
  0000c	8b 4d 0c	 mov	 ecx, DWORD PTR __Val2$[ebp]
  0000f	8b 09		 mov	 ecx, DWORD PTR [ecx]
  00011	89 48 04	 mov	 DWORD PTR [eax+4], ecx

; 164  : 		}

  00014	5d		 pop	 ebp
  00015	c2 08 00	 ret	 8
??$?0AAPAUtagAccessorySlot@@AAPAU0@@?$_Pair_base@PAUtagAccessorySlot@@PAU1@@std@@QAE@AAPAUtagAccessorySlot@@0@Z ENDP ; std::_Pair_base<tagAccessorySlot *,tagAccessorySlot *>::_Pair_base<tagAccessorySlot *,tagAccessorySlot *><tagAccessorySlot * &,tagAccessorySlot * &>
_TEXT	ENDS
PUBLIC	??$_Move@AAUtagAccessorySlot@@@std@@YA$$QAUtagAccessorySlot@@AAU1@@Z ; std::_Move<tagAccessorySlot &>
; Function compile flags: /Ogsp
;	COMDAT ??$_Move@AAUtagAccessorySlot@@@std@@YA$$QAUtagAccessorySlot@@AAU1@@Z
_TEXT	SEGMENT
__Arg$ = 8						; size = 4
??$_Move@AAUtagAccessorySlot@@@std@@YA$$QAUtagAccessorySlot@@AAU1@@Z PROC ; std::_Move<tagAccessorySlot &>, COMDAT

; 94   : 	{	// forward _Arg as movable

  00000	55		 push	 ebp
  00001	8b ec		 mov	 ebp, esp

; 95   : 	return ((typename tr1::_Remove_reference<_Ty>::_Type&&)_Arg);

  00003	8b 45 08	 mov	 eax, DWORD PTR __Arg$[ebp]

; 96   : 	}

  00006	5d		 pop	 ebp
  00007	c3		 ret	 0
??$_Move@AAUtagAccessorySlot@@@std@@YA$$QAUtagAccessorySlot@@AAU1@@Z ENDP ; std::_Move<tagAccessorySlot &>
_TEXT	ENDS
PUBLIC	??$forward@UtagAccessorySlot@@@std@@YA$$QAUtagAccessorySlot@@AAU1@@Z ; std::forward<tagAccessorySlot>
; Function compile flags: /Ogsp
;	COMDAT ??$forward@UtagAccessorySlot@@@std@@YA$$QAUtagAccessorySlot@@AAU1@@Z
_TEXT	SEGMENT
__Arg$ = 8						; size = 4
??$forward@UtagAccessorySlot@@@std@@YA$$QAUtagAccessorySlot@@AAU1@@Z PROC ; std::forward<tagAccessorySlot>, COMDAT

; 78   : 	{	// forward _Arg, given explicitly specified type parameter

  00000	55		 push	 ebp
  00001	8b ec		 mov	 ebp, esp

; 79   : 	return ((_Ty&&)_Arg);

  00003	8b 45 08	 mov	 eax, DWORD PTR __Arg$[ebp]

; 80   : 	}

  00006	5d		 pop	 ebp
  00007	c3		 ret	 0
??$forward@UtagAccessorySlot@@@std@@YA$$QAUtagAccessorySlot@@AAU1@@Z ENDP ; std::forward<tagAccessorySlot>
_TEXT	ENDS
PUBLIC	??$_Move_backward@PAUtagAccessorySlot@@PAU1@@std@@YAPAUtagAccessorySlot@@PAU1@00U_Nonscalar_ptr_iterator_tag@0@@Z ; std::_Move_backward<tagAccessorySlot *,tagAccessorySlot *>
; Function compile flags: /Ogsp
; File c:\program files (x86)\microsoft visual studio 10.0\vc\include\xutility
;	COMDAT ??$_Move_backward@PAUtagAccessorySlot@@PAU1@@std@@YAPAUtagAccessorySlot@@PAU1@00U_Nonscalar_ptr_iterator_tag@0@@Z
_TEXT	SEGMENT
__First$ = 8						; size = 4
__Last$ = 12						; size = 4
__Dest$ = 16						; size = 4
___formal$ = 20						; size = 1
??$_Move_backward@PAUtagAccessorySlot@@PAU1@@std@@YAPAUtagAccessorySlot@@PAU1@00U_Nonscalar_ptr_iterator_tag@0@@Z PROC ; std::_Move_backward<tagAccessorySlot *,tagAccessorySlot *>, COMDAT

; 2617 : 	{	// move [_First, _Last) backwards to [..., _Dest), arbitrary iterators

  00000	55		 push	 ebp
  00001	8b ec		 mov	 ebp, esp
  00003	56		 push	 esi

; 2618 : 	while (_First != _Last)

  00004	8b 75 0c	 mov	 esi, DWORD PTR __Last$[ebp]
  00007	39 75 08	 cmp	 DWORD PTR __First$[ebp], esi
  0000a	74 15		 je	 SHORT $LN9@Move_backw
$LL2@Move_backw:

; 2619 : 		*--_Dest = _STD move(*--_Last);

  0000c	83 6d 10 44	 sub	 DWORD PTR __Dest$[ebp], 68 ; 00000044H
  00010	8b 4d 10	 mov	 ecx, DWORD PTR __Dest$[ebp]
  00013	83 ee 44	 sub	 esi, 68			; 00000044H
  00016	56		 push	 esi
  00017	e8 00 00 00 00	 call	 ??4tagAccessorySlot@@QAEAAU0@ABU0@@Z
  0001c	3b 75 08	 cmp	 esi, DWORD PTR __First$[ebp]
  0001f	75 eb		 jne	 SHORT $LL2@Move_backw
$LN9@Move_backw:

; 2620 : 	return (_Dest);

  00021	8b 45 10	 mov	 eax, DWORD PTR __Dest$[ebp]
  00024	5e		 pop	 esi

; 2621 : 	}

  00025	5d		 pop	 ebp
  00026	c3		 ret	 0
??$_Move_backward@PAUtagAccessorySlot@@PAU1@@std@@YAPAUtagAccessorySlot@@PAU1@00U_Nonscalar_ptr_iterator_tag@0@@Z ENDP ; std::_Move_backward<tagAccessorySlot *,tagAccessorySlot *>
_TEXT	ENDS
PUBLIC	?_Adopt@_Iterator_base0@std@@QAEXPBX@Z		; std::_Iterator_base0::_Adopt
; Function compile flags: /Ogsp
;	COMDAT ?_Adopt@_Iterator_base0@std@@QAEXPBX@Z
_TEXT	SEGMENT
___formal$ = 8						; size = 4
?_Adopt@_Iterator_base0@std@@QAEXPBX@Z PROC		; std::_Iterator_base0::_Adopt, COMDAT
; _this$ = ecx

; 49   : 		}

  00000	c2 04 00	 ret	 4
?_Adopt@_Iterator_base0@std@@QAEXPBX@Z ENDP		; std::_Iterator_base0::_Adopt
_TEXT	ENDS
PUBLIC	?Init@tagAccessorySlot@@QAEXXZ			; tagAccessorySlot::Init
EXTRN	__imp_?Clear@ioHashString@@QAEXXZ:PROC
; Function compile flags: /Ogsp
; File d:\lost saga for developer\youtube\tutorial\source\src\lsclient\accessoryenumtype.h
;	COMDAT ?Init@tagAccessorySlot@@QAEXXZ
_TEXT	SEGMENT
?Init@tagAccessorySlot@@QAEXXZ PROC			; tagAccessorySlot::Init, COMDAT
; _this$ = ecx

; 216  : 		m_iAccessoryCode = 0;

  00000	33 c0		 xor	 eax, eax
  00002	56		 push	 esi
  00003	8b f1		 mov	 esi, ecx
  00005	57		 push	 edi

; 217  : 		m_iIndex = 0;
; 218  : 		m_iRandomNumber = 0;
; 219  : 
; 220  : 		m_PeriodType = ACCPT_TIME;
; 221  : 		m_iValue1 = 0;
; 222  : 		m_iValue2 = 0;
; 223  : 		m_dwMaleCustom = 0;
; 224  : 		m_dwFemaleCustom = 0;
; 225  : 
; 226  : 		m_bEquip = false;
; 227  : 		m_Name.Clear();

  00006	8b 3d 00 00 00
	00		 mov	 edi, DWORD PTR __imp_?Clear@ioHashString@@QAEXXZ
  0000c	8d 4e 24	 lea	 ecx, DWORD PTR [esi+36]
  0000f	89 06		 mov	 DWORD PTR [esi], eax
  00011	89 46 04	 mov	 DWORD PTR [esi+4], eax
  00014	89 46 08	 mov	 DWORD PTR [esi+8], eax
  00017	88 46 0c	 mov	 BYTE PTR [esi+12], al
  0001a	89 46 10	 mov	 DWORD PTR [esi+16], eax
  0001d	89 46 14	 mov	 DWORD PTR [esi+20], eax
  00020	89 46 18	 mov	 DWORD PTR [esi+24], eax
  00023	89 46 1c	 mov	 DWORD PTR [esi+28], eax
  00026	88 46 20	 mov	 BYTE PTR [esi+32], al
  00029	ff d7		 call	 edi

; 228  : 		m_IconName.Clear();

  0002b	8d 4e 34	 lea	 ecx, DWORD PTR [esi+52]
  0002e	ff d7		 call	 edi
  00030	5f		 pop	 edi
  00031	5e		 pop	 esi

; 229  : 	}

  00032	c3		 ret	 0
?Init@tagAccessorySlot@@QAEXXZ ENDP			; tagAccessorySlot::Init
_TEXT	ENDS
PUBLIC	?GetYear@tagAccessorySlot@@QAEFXZ		; tagAccessorySlot::GetYear
; Function compile flags: /Ogsp
;	COMDAT ?GetYear@tagAccessorySlot@@QAEFXZ
_TEXT	SEGMENT
?GetYear@tagAccessorySlot@@QAEFXZ PROC			; tagAccessorySlot::GetYear, COMDAT
; _this$ = ecx

; 234  : 		return m_iValue1/10000;           // [2009]0715

  00000	8b 41 10	 mov	 eax, DWORD PTR [ecx+16]
  00003	99		 cdq
  00004	b9 10 27 00 00	 mov	 ecx, 10000		; 00002710H
  00009	f7 f9		 idiv	 ecx

; 235  : 	}

  0000b	c3		 ret	 0
?GetYear@tagAccessorySlot@@QAEFXZ ENDP			; tagAccessorySlot::GetYear
_TEXT	ENDS
PUBLIC	?GetMonth@tagAccessorySlot@@QAEFXZ		; tagAccessorySlot::GetMonth
; Function compile flags: /Ogsp
;	COMDAT ?GetMonth@tagAccessorySlot@@QAEFXZ
_TEXT	SEGMENT
?GetMonth@tagAccessorySlot@@QAEFXZ PROC			; tagAccessorySlot::GetMonth, COMDAT
; _this$ = ecx

; 238  : 		return ( m_iValue1/100 ) % 100;   //  2009[07]15

  00000	8b 41 10	 mov	 eax, DWORD PTR [ecx+16]
  00003	99		 cdq
  00004	6a 64		 push	 100			; 00000064H
  00006	59		 pop	 ecx
  00007	f7 f9		 idiv	 ecx
  00009	99		 cdq
  0000a	f7 f9		 idiv	 ecx
  0000c	66 8b c2	 mov	 ax, dx

; 239  : 	}

  0000f	c3		 ret	 0
?GetMonth@tagAccessorySlot@@QAEFXZ ENDP			; tagAccessorySlot::GetMonth
_TEXT	ENDS
PUBLIC	?GetDay@tagAccessorySlot@@QAEFXZ		; tagAccessorySlot::GetDay
; Function compile flags: /Ogsp
;	COMDAT ?GetDay@tagAccessorySlot@@QAEFXZ
_TEXT	SEGMENT
?GetDay@tagAccessorySlot@@QAEFXZ PROC			; tagAccessorySlot::GetDay, COMDAT
; _this$ = ecx

; 242  : 		return m_iValue1 % 100;           //  200907[15]

  00000	8b 41 10	 mov	 eax, DWORD PTR [ecx+16]
  00003	99		 cdq
  00004	6a 64		 push	 100			; 00000064H
  00006	59		 pop	 ecx
  00007	f7 f9		 idiv	 ecx
  00009	66 8b c2	 mov	 ax, dx

; 243  : 	}

  0000c	c3		 ret	 0
?GetDay@tagAccessorySlot@@QAEFXZ ENDP			; tagAccessorySlot::GetDay
_TEXT	ENDS
PUBLIC	?GetHour@tagAccessorySlot@@QAEFXZ		; tagAccessorySlot::GetHour
; Function compile flags: /Ogsp
;	COMDAT ?GetHour@tagAccessorySlot@@QAEFXZ
_TEXT	SEGMENT
?GetHour@tagAccessorySlot@@QAEFXZ PROC			; tagAccessorySlot::GetHour, COMDAT
; _this$ = ecx

; 246  : 		return m_iValue2 / 100;           //  [21]23   ( 21 23 )

  00000	8b 41 14	 mov	 eax, DWORD PTR [ecx+20]
  00003	6a 64		 push	 100			; 00000064H
  00005	99		 cdq
  00006	59		 pop	 ecx
  00007	f7 f9		 idiv	 ecx

; 247  : 	}

  00009	c3		 ret	 0
?GetHour@tagAccessorySlot@@QAEFXZ ENDP			; tagAccessorySlot::GetHour
_TEXT	ENDS
PUBLIC	?GetMinute@tagAccessorySlot@@QAEFXZ		; tagAccessorySlot::GetMinute
; Function compile flags: /Ogsp
;	COMDAT ?GetMinute@tagAccessorySlot@@QAEFXZ
_TEXT	SEGMENT
?GetMinute@tagAccessorySlot@@QAEFXZ PROC		; tagAccessorySlot::GetMinute, COMDAT
; _this$ = ecx

; 250  : 		return m_iValue2 % 100;           //  21[23]

  00000	8b 41 14	 mov	 eax, DWORD PTR [ecx+20]
  00003	99		 cdq
  00004	6a 64		 push	 100			; 00000064H
  00006	59		 pop	 ecx
  00007	f7 f9		 idiv	 ecx
  00009	66 8b c2	 mov	 ax, dx

; 251  : 	}

  0000c	c3		 ret	 0
?GetMinute@tagAccessorySlot@@QAEFXZ ENDP		; tagAccessorySlot::GetMinute
_TEXT	ENDS
PUBLIC	??RAccessorySlotSort@@QBE_NABUtagAccessorySlot@@0@Z ; AccessorySlotSort::operator()
; Function compile flags: /Ogsp
;	COMDAT ??RAccessorySlotSort@@QBE_NABUtagAccessorySlot@@0@Z
_TEXT	SEGMENT
_lhs$ = 8						; size = 4
_rhs$ = 12						; size = 4
??RAccessorySlotSort@@QBE_NABUtagAccessorySlot@@0@Z PROC ; AccessorySlotSort::operator(), COMDAT
; _this$ = ecx

; 267  : 	{

  00000	55		 push	 ebp
  00001	8b ec		 mov	 ebp, esp

; 268  : 		if( lhs.m_bEquip )

  00003	8b 45 08	 mov	 eax, DWORD PTR _lhs$[ebp]
  00006	80 78 20 00	 cmp	 BYTE PTR [eax+32], 0
  0000a	74 04		 je	 SHORT $LN4@operator

; 269  : 			return true;

  0000c	b0 01		 mov	 al, 1
  0000e	eb 20		 jmp	 SHORT $LN5@operator
$LN4@operator:

; 270  : 
; 271  : 		if( lhs.m_iAccessoryCode < rhs.m_iAccessoryCode )

  00010	8b 08		 mov	 ecx, DWORD PTR [eax]
  00012	56		 push	 esi
  00013	8b 75 0c	 mov	 esi, DWORD PTR _rhs$[ebp]
  00016	8b 16		 mov	 edx, DWORD PTR [esi]
  00018	3b ca		 cmp	 ecx, edx
  0001a	7d 04		 jge	 SHORT $LN8@operator

; 272  : 			return true;	

  0001c	b0 01		 mov	 al, 1
  0001e	eb 0f		 jmp	 SHORT $LN7@operator
$LN8@operator:

; 273  : 
; 274  : 		if( lhs.m_iAccessoryCode == rhs.m_iAccessoryCode )

  00020	75 0b		 jne	 SHORT $LN2@operator

; 275  : 		{
; 276  : 			if( lhs.m_iIndex > rhs.m_iIndex )

  00022	8b 40 04	 mov	 eax, DWORD PTR [eax+4]
  00025	3b 46 04	 cmp	 eax, DWORD PTR [esi+4]
  00028	0f 9f c0	 setg	 al

; 277  : 				return true;	
; 278  : 			return false;

  0002b	eb 02		 jmp	 SHORT $LN7@operator
$LN2@operator:

; 279  : 		}
; 280  : 		return false;	

  0002d	32 c0		 xor	 al, al
$LN7@operator:
  0002f	5e		 pop	 esi
$LN5@operator:

; 281  : 	}

  00030	5d		 pop	 ebp
  00031	c2 08 00	 ret	 8
??RAccessorySlotSort@@QBE_NABUtagAccessorySlot@@0@Z ENDP ; AccessorySlotSort::operator()
_TEXT	ENDS
PUBLIC	?GetName@ioItem@@QBEABVioHashString@@XZ		; ioItem::GetName
; Function compile flags: /Ogsp
; File d:\lost saga for developer\youtube\tutorial\source\src\lsclient\ioitem.h
;	COMDAT ?GetName@ioItem@@QBEABVioHashString@@XZ
_TEXT	SEGMENT
?GetName@ioItem@@QBEABVioHashString@@XZ PROC		; ioItem::GetName, COMDAT
; _this$ = ecx

; 269  : 	inline const ioHashString& GetName() const { return m_Name; }

  00000	8d 81 34 01 00
	00		 lea	 eax, DWORD PTR [ecx+308]
  00006	c3		 ret	 0
?GetName@ioItem@@QBEABVioHashString@@XZ ENDP		; ioItem::GetName
_TEXT	ENDS
EXTRN	__imp_??0exception@std@@QAE@ABV01@@Z:PROC
; Function compile flags: /Ogsp
;	COMDAT ??0bad_alloc@std@@QAE@ABV01@@Z
_TEXT	SEGMENT
___that$ = 8						; size = 4
??0bad_alloc@std@@QAE@ABV01@@Z PROC			; std::bad_alloc::bad_alloc, COMDAT
; _this$ = ecx
  00000	55		 push	 ebp
  00001	8b ec		 mov	 ebp, esp
  00003	56		 push	 esi
  00004	ff 75 08	 push	 DWORD PTR ___that$[ebp]
  00007	8b f1		 mov	 esi, ecx
  00009	ff 15 00 00 00
	00		 call	 DWORD PTR __imp_??0exception@std@@QAE@ABV01@@Z
  0000f	c7 06 00 00 00
	00		 mov	 DWORD PTR [esi], OFFSET ??_7bad_alloc@std@@6B@
  00015	8b c6		 mov	 eax, esi
  00017	5e		 pop	 esi
  00018	5d		 pop	 ebp
  00019	c2 04 00	 ret	 4
??0bad_alloc@std@@QAE@ABV01@@Z ENDP			; std::bad_alloc::bad_alloc
_TEXT	ENDS
PUBLIC	?GetAccessorySlotCnt@ioUserAccessory@@QAEHXZ	; ioUserAccessory::GetAccessorySlotCnt
; Function compile flags: /Ogsp
; File d:\lost saga for developer\youtube\tutorial\source\src\lsclient\iouseraccessory.cpp
;	COMDAT ?GetAccessorySlotCnt@ioUserAccessory@@QAEHXZ
_TEXT	SEGMENT
?GetAccessorySlotCnt@ioUserAccessory@@QAEHXZ PROC	; ioUserAccessory::GetAccessorySlotCnt, COMDAT
; _this$ = ecx

; 61   : 	return (int)m_AccessorySlotList.size();

  00000	8b 41 04	 mov	 eax, DWORD PTR [ecx+4]
  00003	2b 01		 sub	 eax, DWORD PTR [ecx]
  00005	6a 44		 push	 68			; 00000044H
  00007	99		 cdq
  00008	59		 pop	 ecx
  00009	f7 f9		 idiv	 ecx

; 62   : }

  0000b	c3		 ret	 0
?GetAccessorySlotCnt@ioUserAccessory@@QAEHXZ ENDP	; ioUserAccessory::GetAccessorySlotCnt
_TEXT	ENDS
PUBLIC	?GetAccessorySlotArray@ioUserAccessory@@QAE_NHAAUtagAccessorySlot@@@Z ; ioUserAccessory::GetAccessorySlotArray
; Function compile flags: /Ogsp
;	COMDAT ?GetAccessorySlotArray@ioUserAccessory@@QAE_NHAAUtagAccessorySlot@@@Z
_TEXT	SEGMENT
_iArray$ = 8						; size = 4
_sAccessorySlot$ = 12					; size = 4
?GetAccessorySlotArray@ioUserAccessory@@QAE_NHAAUtagAccessorySlot@@@Z PROC ; ioUserAccessory::GetAccessorySlotArray, COMDAT
; _this$ = ecx

; 65   : {

  00000	55		 push	 ebp
  00001	8b ec		 mov	 ebp, esp

; 66   : 	if ( m_AccessorySlotList.empty() )

  00003	8b 41 04	 mov	 eax, DWORD PTR [ecx+4]
  00006	57		 push	 edi
  00007	8b 39		 mov	 edi, DWORD PTR [ecx]
  00009	3b f8		 cmp	 edi, eax
  0000b	75 04		 jne	 SHORT $LN2@GetAccesso

; 67   : 		return false;

  0000d	32 c0		 xor	 al, al
  0000f	eb 29		 jmp	 SHORT $LN3@GetAccesso
$LN2@GetAccesso:
  00011	56		 push	 esi

; 68   : 
; 69   : 	if( COMPARE( iArray, 0, (int)m_AccessorySlotList.size() ) )

  00012	8b 75 08	 mov	 esi, DWORD PTR _iArray$[ebp]
  00015	85 f6		 test	 esi, esi
  00017	78 1e		 js	 SHORT $LN1@GetAccesso
  00019	2b c7		 sub	 eax, edi
  0001b	6a 44		 push	 68			; 00000044H
  0001d	99		 cdq
  0001e	59		 pop	 ecx
  0001f	f7 f9		 idiv	 ecx
  00021	3b f0		 cmp	 esi, eax
  00023	7d 12		 jge	 SHORT $LN1@GetAccesso

; 70   : 	{
; 71   : 		sAccessorySlot = m_AccessorySlotList[iArray];

  00025	8b 4d 0c	 mov	 ecx, DWORD PTR _sAccessorySlot$[ebp]
  00028	6b f6 44	 imul	 esi, 68			; 00000044H
  0002b	03 f7		 add	 esi, edi
  0002d	56		 push	 esi
  0002e	e8 00 00 00 00	 call	 ??4tagAccessorySlot@@QAEAAU0@ABU0@@Z

; 72   : 		return true;

  00033	b0 01		 mov	 al, 1
  00035	eb 02		 jmp	 SHORT $LN11@GetAccesso
$LN1@GetAccesso:

; 73   : 	}
; 74   : 
; 75   : 	return false;

  00037	32 c0		 xor	 al, al
$LN11@GetAccesso:
  00039	5e		 pop	 esi
$LN3@GetAccesso:
  0003a	5f		 pop	 edi

; 76   : }

  0003b	5d		 pop	 ebp
  0003c	c2 08 00	 ret	 8
?GetAccessorySlotArray@ioUserAccessory@@QAE_NHAAUtagAccessorySlot@@@Z ENDP ; ioUserAccessory::GetAccessorySlotArray
_TEXT	ENDS
PUBLIC	?GetAccessorySlot@ioUserAccessory@@QAE_NHAAUtagAccessorySlot@@@Z ; ioUserAccessory::GetAccessorySlot
; Function compile flags: /Ogsp
;	COMDAT ?GetAccessorySlot@ioUserAccessory@@QAE_NHAAUtagAccessorySlot@@@Z
_TEXT	SEGMENT
_iSlotIndex$ = 8					; size = 4
_sAccessorySlot$ = 12					; size = 4
?GetAccessorySlot@ioUserAccessory@@QAE_NHAAUtagAccessorySlot@@@Z PROC ; ioUserAccessory::GetAccessorySlot, COMDAT
; _this$ = ecx

; 79   : {

  00000	55		 push	 ebp
  00001	8b ec		 mov	 ebp, esp

; 80   : 	if ( m_AccessorySlotList.empty() )

  00003	8b 41 04	 mov	 eax, DWORD PTR [ecx+4]
  00006	56		 push	 esi
  00007	8b 31		 mov	 esi, DWORD PTR [ecx]
  00009	3b f0		 cmp	 esi, eax
  0000b	75 04		 jne	 SHORT $LN5@GetAccesso@2

; 81   : 		return false;

  0000d	32 c0		 xor	 al, al
  0000f	eb 24		 jmp	 SHORT $LN6@GetAccesso@2
$LN5@GetAccesso@2:
  00011	57		 push	 edi

; 82   : 
; 83   : 	int nSize = (int)m_AccessorySlotList.size();

  00012	2b c6		 sub	 eax, esi
  00014	6a 44		 push	 68			; 00000044H
  00016	99		 cdq
  00017	59		 pop	 ecx
  00018	f7 f9		 idiv	 ecx

; 84   : 	for( int i=0; i < nSize; ++i )

  0001a	33 c9		 xor	 ecx, ecx
  0001c	85 c0		 test	 eax, eax
  0001e	7e 12		 jle	 SHORT $LN2@GetAccesso@2

; 82   : 
; 83   : 	int nSize = (int)m_AccessorySlotList.size();

  00020	8d 56 04	 lea	 edx, DWORD PTR [esi+4]
$LL4@GetAccesso@2:

; 85   : 	{
; 86   : 		if( m_AccessorySlotList[i].m_iIndex == iSlotIndex )

  00023	8b 3a		 mov	 edi, DWORD PTR [edx]
  00025	3b 7d 08	 cmp	 edi, DWORD PTR _iSlotIndex$[ebp]
  00028	74 10		 je	 SHORT $LN17@GetAccesso@2

; 84   : 	for( int i=0; i < nSize; ++i )

  0002a	41		 inc	 ecx
  0002b	83 c2 44	 add	 edx, 68			; 00000044H
  0002e	3b c8		 cmp	 ecx, eax
  00030	7c f1		 jl	 SHORT $LL4@GetAccesso@2
$LN2@GetAccesso@2:

; 90   : 		}
; 91   : 	}
; 92   : 
; 93   : 	return false;

  00032	32 c0		 xor	 al, al
$LN19@GetAccesso@2:
  00034	5f		 pop	 edi
$LN6@GetAccesso@2:
  00035	5e		 pop	 esi

; 94   : }

  00036	5d		 pop	 ebp
  00037	c2 08 00	 ret	 8
$LN17@GetAccesso@2:

; 87   : 		{
; 88   : 			sAccessorySlot = m_AccessorySlotList[i];

  0003a	6b c9 44	 imul	 ecx, 68			; 00000044H
  0003d	03 ce		 add	 ecx, esi
  0003f	51		 push	 ecx
  00040	8b 4d 0c	 mov	 ecx, DWORD PTR _sAccessorySlot$[ebp]
  00043	e8 00 00 00 00	 call	 ??4tagAccessorySlot@@QAEAAU0@ABU0@@Z

; 89   : 			return true;

  00048	b0 01		 mov	 al, 1
  0004a	eb e8		 jmp	 SHORT $LN19@GetAccesso@2
?GetAccessorySlot@ioUserAccessory@@QAE_NHAAUtagAccessorySlot@@@Z ENDP ; ioUserAccessory::GetAccessorySlot
_TEXT	ENDS
PUBLIC	?IsSlotFull@ioUserAccessory@@QAE_NXZ		; ioUserAccessory::IsSlotFull
; Function compile flags: /Ogsp
;	COMDAT ?IsSlotFull@ioUserAccessory@@QAE_NXZ
_TEXT	SEGMENT
?IsSlotFull@ioUserAccessory@@QAE_NXZ PROC		; ioUserAccessory::IsSlotFull, COMDAT
; _this$ = ecx

; 113  : 	if( GetAccessorySlotCnt() >= MAX_SLOT_CNT )

  00000	8b 41 04	 mov	 eax, DWORD PTR [ecx+4]
  00003	2b 01		 sub	 eax, DWORD PTR [ecx]
  00005	6a 44		 push	 68			; 00000044H
  00007	99		 cdq
  00008	59		 pop	 ecx
  00009	f7 f9		 idiv	 ecx
  0000b	3d f4 01 00 00	 cmp	 eax, 500		; 000001f4H
  00010	0f 9d c0	 setge	 al

; 114  : 		return true;
; 115  : 	return false;
; 116  : }

  00013	c3		 ret	 0
?IsSlotFull@ioUserAccessory@@QAE_NXZ ENDP		; ioUserAccessory::IsSlotFull
_TEXT	ENDS
PUBLIC	?GetAccessoryCode@ioUserAccessory@@QAEHH@Z	; ioUserAccessory::GetAccessoryCode
; Function compile flags: /Ogsp
;	COMDAT ?GetAccessoryCode@ioUserAccessory@@QAEHH@Z
_TEXT	SEGMENT
_iSlotIndex$ = 8					; size = 4
?GetAccessoryCode@ioUserAccessory@@QAEHH@Z PROC		; ioUserAccessory::GetAccessoryCode, COMDAT
; _this$ = ecx

; 119  : {

  00000	55		 push	 ebp
  00001	8b ec		 mov	 ebp, esp

; 120  : 	if ( m_AccessorySlotList.empty() )

  00003	8b 41 04	 mov	 eax, DWORD PTR [ecx+4]
  00006	56		 push	 esi
  00007	8b 31		 mov	 esi, DWORD PTR [ecx]
  00009	3b f0		 cmp	 esi, eax
  0000b	75 04		 jne	 SHORT $LN5@GetAccesso@3

; 121  : 		return 0;

  0000d	33 c0		 xor	 eax, eax
  0000f	eb 24		 jmp	 SHORT $LN6@GetAccesso@3
$LN5@GetAccesso@3:
  00011	57		 push	 edi

; 122  : 
; 123  : 	int nSize = (int)m_AccessorySlotList.size();

  00012	2b c6		 sub	 eax, esi
  00014	6a 44		 push	 68			; 00000044H
  00016	99		 cdq
  00017	59		 pop	 ecx
  00018	f7 f9		 idiv	 ecx

; 124  : 	for( int i=0; i < nSize; ++i )

  0001a	33 c9		 xor	 ecx, ecx
  0001c	85 c0		 test	 eax, eax
  0001e	7e 12		 jle	 SHORT $LN2@GetAccesso@3

; 122  : 
; 123  : 	int nSize = (int)m_AccessorySlotList.size();

  00020	8d 56 04	 lea	 edx, DWORD PTR [esi+4]
$LL4@GetAccesso@3:

; 125  : 	{
; 126  : 		if( m_AccessorySlotList[i].m_iIndex == iSlotIndex )

  00023	8b 3a		 mov	 edi, DWORD PTR [edx]
  00025	3b 7d 08	 cmp	 edi, DWORD PTR _iSlotIndex$[ebp]
  00028	74 10		 je	 SHORT $LN17@GetAccesso@3

; 124  : 	for( int i=0; i < nSize; ++i )

  0002a	41		 inc	 ecx
  0002b	83 c2 44	 add	 edx, 68			; 00000044H
  0002e	3b c8		 cmp	 ecx, eax
  00030	7c f1		 jl	 SHORT $LL4@GetAccesso@3
$LN2@GetAccesso@3:

; 128  : 	}
; 129  : 
; 130  : 	return 0;

  00032	33 c0		 xor	 eax, eax
$LN19@GetAccesso@3:
  00034	5f		 pop	 edi
$LN6@GetAccesso@3:
  00035	5e		 pop	 esi

; 131  : }

  00036	5d		 pop	 ebp
  00037	c2 04 00	 ret	 4
$LN17@GetAccesso@3:

; 127  : 			return  m_AccessorySlotList[i].m_iAccessoryCode;

  0003a	6b c9 44	 imul	 ecx, 68			; 00000044H
  0003d	8b 04 31	 mov	 eax, DWORD PTR [ecx+esi]
  00040	eb f2		 jmp	 SHORT $LN19@GetAccesso@3
?GetAccessoryCode@ioUserAccessory@@QAEHH@Z ENDP		; ioUserAccessory::GetAccessoryCode
_TEXT	ENDS
PUBLIC	?SetAccessoryEquip@ioUserAccessory@@QAEXH_N@Z	; ioUserAccessory::SetAccessoryEquip
; Function compile flags: /Ogsp
;	COMDAT ?SetAccessoryEquip@ioUserAccessory@@QAEXH_N@Z
_TEXT	SEGMENT
_iSlotIndex$ = 8					; size = 4
_bEquip$ = 12						; size = 1
?SetAccessoryEquip@ioUserAccessory@@QAEXH_N@Z PROC	; ioUserAccessory::SetAccessoryEquip, COMDAT
; _this$ = ecx

; 134  : {

  00000	55		 push	 ebp
  00001	8b ec		 mov	 ebp, esp

; 135  : 	int nSize = (int)m_AccessorySlotList.size();

  00003	8b 41 04	 mov	 eax, DWORD PTR [ecx+4]
  00006	2b 01		 sub	 eax, DWORD PTR [ecx]
  00008	56		 push	 esi
  00009	6a 44		 push	 68			; 00000044H
  0000b	99		 cdq
  0000c	5e		 pop	 esi
  0000d	f7 fe		 idiv	 esi

; 136  : 	for( int i=0; i<nSize; ++i )

  0000f	85 c0		 test	 eax, eax
  00011	7e 1e		 jle	 SHORT $LN2@SetAccesso

; 135  : 	int nSize = (int)m_AccessorySlotList.size();

  00013	57		 push	 edi
  00014	33 f6		 xor	 esi, esi
  00016	8b f8		 mov	 edi, eax
$LL4@SetAccesso:

; 137  : 	{
; 138  : 		if( m_AccessorySlotList[i].m_iIndex == iSlotIndex )

  00018	8b 01		 mov	 eax, DWORD PTR [ecx]
  0001a	8b 54 30 04	 mov	 edx, DWORD PTR [eax+esi+4]
  0001e	3b 55 08	 cmp	 edx, DWORD PTR _iSlotIndex$[ebp]
  00021	75 07		 jne	 SHORT $LN3@SetAccesso

; 139  : 			m_AccessorySlotList[i].m_bEquip = bEquip;

  00023	8a 55 0c	 mov	 dl, BYTE PTR _bEquip$[ebp]
  00026	88 54 30 20	 mov	 BYTE PTR [eax+esi+32], dl
$LN3@SetAccesso:

; 136  : 	for( int i=0; i<nSize; ++i )

  0002a	83 c6 44	 add	 esi, 68			; 00000044H
  0002d	4f		 dec	 edi
  0002e	75 e8		 jne	 SHORT $LL4@SetAccesso
  00030	5f		 pop	 edi
$LN2@SetAccesso:
  00031	5e		 pop	 esi

; 140  : 	}
; 141  : }

  00032	5d		 pop	 ebp
  00033	c2 08 00	 ret	 8
?SetAccessoryEquip@ioUserAccessory@@QAEXH_N@Z ENDP	; ioUserAccessory::SetAccessoryEquip
_TEXT	ENDS
PUBLIC	?SetAccessorySlot@ioUserAccessory@@QAEXABUtagAccessorySlot@@@Z ; ioUserAccessory::SetAccessorySlot
; Function compile flags: /Ogsp
;	COMDAT ?SetAccessorySlot@ioUserAccessory@@QAEXABUtagAccessorySlot@@@Z
_TEXT	SEGMENT
_sAccessorySlot$ = 8					; size = 4
?SetAccessorySlot@ioUserAccessory@@QAEXABUtagAccessorySlot@@@Z PROC ; ioUserAccessory::SetAccessorySlot, COMDAT
; _this$ = ecx

; 175  : {

  00000	55		 push	 ebp
  00001	8b ec		 mov	 ebp, esp

; 176  : 	int nSize = (int)m_AccessorySlotList.size();

  00003	8b 41 04	 mov	 eax, DWORD PTR [ecx+4]
  00006	56		 push	 esi
  00007	8b 31		 mov	 esi, DWORD PTR [ecx]
  00009	2b c6		 sub	 eax, esi
  0000b	6a 44		 push	 68			; 00000044H
  0000d	99		 cdq
  0000e	59		 pop	 ecx
  0000f	f7 f9		 idiv	 ecx

; 177  : 	for( int i=0; i < nSize; ++i )

  00011	33 c9		 xor	 ecx, ecx
  00013	85 c0		 test	 eax, eax
  00015	7e 26		 jle	 SHORT $LN2@SetAccesso@2
  00017	53		 push	 ebx
  00018	8b 5d 08	 mov	 ebx, DWORD PTR _sAccessorySlot$[ebp]
  0001b	57		 push	 edi
  0001c	8b 7b 04	 mov	 edi, DWORD PTR [ebx+4]
  0001f	8d 56 04	 lea	 edx, DWORD PTR [esi+4]
$LL4@SetAccesso@2:

; 178  : 	{
; 179  : 		if( m_AccessorySlotList[i].m_iIndex == sAccessorySlot.m_iIndex )

  00022	39 3a		 cmp	 DWORD PTR [edx], edi
  00024	74 0a		 je	 SHORT $LN14@SetAccesso@2

; 177  : 	for( int i=0; i < nSize; ++i )

  00026	41		 inc	 ecx
  00027	83 c2 44	 add	 edx, 68			; 00000044H
  0002a	3b c8		 cmp	 ecx, eax
  0002c	7c f4		 jl	 SHORT $LL4@SetAccesso@2

; 178  : 	{
; 179  : 		if( m_AccessorySlotList[i].m_iIndex == sAccessorySlot.m_iIndex )

  0002e	eb 0b		 jmp	 SHORT $LN16@SetAccesso@2
$LN14@SetAccesso@2:

; 180  : 		{
; 181  : 			m_AccessorySlotList[i] = sAccessorySlot;

  00030	6b c9 44	 imul	 ecx, 68			; 00000044H
  00033	53		 push	 ebx
  00034	03 ce		 add	 ecx, esi
  00036	e8 00 00 00 00	 call	 ??4tagAccessorySlot@@QAEAAU0@ABU0@@Z
$LN16@SetAccesso@2:
  0003b	5f		 pop	 edi
  0003c	5b		 pop	 ebx
$LN2@SetAccesso@2:
  0003d	5e		 pop	 esi

; 182  : 			return;
; 183  : 		}
; 184  : 	}
; 185  : }

  0003e	5d		 pop	 ebp
  0003f	c2 04 00	 ret	 4
?SetAccessorySlot@ioUserAccessory@@QAEXABUtagAccessorySlot@@@Z ENDP ; ioUserAccessory::SetAccessorySlot
_TEXT	ENDS
PUBLIC	??E?$_Vector_iterator@V?$_Vector_val@UtagAccessorySlot@@V?$allocator@UtagAccessorySlot@@@std@@@std@@@std@@QAEAAV01@XZ ; std::_Vector_iterator<std::_Vector_val<tagAccessorySlot,std::allocator<tagAccessorySlot> > >::operator++
; Function compile flags: /Ogsp
; File c:\program files (x86)\microsoft visual studio 10.0\vc\include\vector
;	COMDAT ??E?$_Vector_iterator@V?$_Vector_val@UtagAccessorySlot@@V?$allocator@UtagAccessorySlot@@@std@@@std@@@std@@QAEAAV01@XZ
_TEXT	SEGMENT
??E?$_Vector_iterator@V?$_Vector_val@UtagAccessorySlot@@V?$allocator@UtagAccessorySlot@@@std@@@std@@@std@@QAEAAV01@XZ PROC ; std::_Vector_iterator<std::_Vector_val<tagAccessorySlot,std::allocator<tagAccessorySlot> > >::operator++, COMDAT
; _this$ = ecx

; 331  : 		{	// preincrement

  00000	8b c1		 mov	 eax, ecx

; 332  : 		++*(_Mybase *)this;

  00002	83 00 44	 add	 DWORD PTR [eax], 68	; 00000044H

; 333  : 		return (*this);
; 334  : 		}

  00005	c3		 ret	 0
??E?$_Vector_iterator@V?$_Vector_val@UtagAccessorySlot@@V?$allocator@UtagAccessorySlot@@@std@@@std@@@std@@QAEAAV01@XZ ENDP ; std::_Vector_iterator<std::_Vector_val<tagAccessorySlot,std::allocator<tagAccessorySlot> > >::operator++
_TEXT	ENDS
PUBLIC	??0?$_Vector_val@UtagAccessorySlot@@V?$allocator@UtagAccessorySlot@@@std@@@std@@QAE@V?$allocator@UtagAccessorySlot@@@1@@Z ; std::_Vector_val<tagAccessorySlot,std::allocator<tagAccessorySlot> >::_Vector_val<tagAccessorySlot,std::allocator<tagAccessorySlot> >
; Function compile flags: /Ogsp
;	COMDAT ??0?$_Vector_val@UtagAccessorySlot@@V?$allocator@UtagAccessorySlot@@@std@@@std@@QAE@V?$allocator@UtagAccessorySlot@@@1@@Z
_TEXT	SEGMENT
__Al$ = 8						; size = 1
??0?$_Vector_val@UtagAccessorySlot@@V?$allocator@UtagAccessorySlot@@@std@@@std@@QAE@V?$allocator@UtagAccessorySlot@@@1@@Z PROC ; std::_Vector_val<tagAccessorySlot,std::allocator<tagAccessorySlot> >::_Vector_val<tagAccessorySlot,std::allocator<tagAccessorySlot> >, COMDAT
; _this$ = ecx

; 426  : 		{	// construct allocator from _Al

  00000	8b c1		 mov	 eax, ecx

; 427  : 		_Myfirst = 0;

  00002	33 c9		 xor	 ecx, ecx
  00004	89 08		 mov	 DWORD PTR [eax], ecx

; 428  : 		_Mylast = 0;

  00006	89 48 04	 mov	 DWORD PTR [eax+4], ecx

; 429  : 		_Myend = 0;

  00009	89 48 08	 mov	 DWORD PTR [eax+8], ecx

; 430  : 		}

  0000c	c2 04 00	 ret	 4
??0?$_Vector_val@UtagAccessorySlot@@V?$allocator@UtagAccessorySlot@@@std@@@std@@QAE@V?$allocator@UtagAccessorySlot@@@1@@Z ENDP ; std::_Vector_val<tagAccessorySlot,std::allocator<tagAccessorySlot> >::_Vector_val<tagAccessorySlot,std::allocator<tagAccessorySlot> >
_TEXT	ENDS
PUBLIC	??D?$_Vector_iterator@V?$_Vector_val@UtagAccessorySlot@@V?$allocator@UtagAccessorySlot@@@std@@@std@@@std@@QBEAAUtagAccessorySlot@@XZ ; std::_Vector_iterator<std::_Vector_val<tagAccessorySlot,std::allocator<tagAccessorySlot> > >::operator*
; Function compile flags: /Ogsp
;	COMDAT ??D?$_Vector_iterator@V?$_Vector_val@UtagAccessorySlot@@V?$allocator@UtagAccessorySlot@@@std@@@std@@@std@@QBEAAUtagAccessorySlot@@XZ
_TEXT	SEGMENT
??D?$_Vector_iterator@V?$_Vector_val@UtagAccessorySlot@@V?$allocator@UtagAccessorySlot@@@std@@@std@@@std@@QBEAAUtagAccessorySlot@@XZ PROC ; std::_Vector_iterator<std::_Vector_val<tagAccessorySlot,std::allocator<tagAccessorySlot> > >::operator*, COMDAT
; _this$ = ecx

; 322  : 		return ((reference)**(_Mybase *)this);

  00000	8b 01		 mov	 eax, DWORD PTR [ecx]

; 323  : 		}

  00002	c3		 ret	 0
??D?$_Vector_iterator@V?$_Vector_val@UtagAccessorySlot@@V?$allocator@UtagAccessorySlot@@@std@@@std@@@std@@QBEAAUtagAccessorySlot@@XZ ENDP ; std::_Vector_iterator<std::_Vector_val<tagAccessorySlot,std::allocator<tagAccessorySlot> > >::operator*
_TEXT	ENDS
PUBLIC	??8?$_Vector_const_iterator@V?$_Vector_val@UtagAccessorySlot@@V?$allocator@UtagAccessorySlot@@@std@@@std@@@std@@QBE_NABV01@@Z ; std::_Vector_const_iterator<std::_Vector_val<tagAccessorySlot,std::allocator<tagAccessorySlot> > >::operator==
; Function compile flags: /Ogsp
;	COMDAT ??8?$_Vector_const_iterator@V?$_Vector_val@UtagAccessorySlot@@V?$allocator@UtagAccessorySlot@@@std@@@std@@@std@@QBE_NABV01@@Z
_TEXT	SEGMENT
__Right$ = 8						; size = 4
??8?$_Vector_const_iterator@V?$_Vector_val@UtagAccessorySlot@@V?$allocator@UtagAccessorySlot@@@std@@@std@@@std@@QBE_NABV01@@Z PROC ; std::_Vector_const_iterator<std::_Vector_val<tagAccessorySlot,std::allocator<tagAccessorySlot> > >::operator==, COMDAT
; _this$ = ecx

; 201  : 		{	// test for iterator equality

  00000	55		 push	 ebp
  00001	8b ec		 mov	 ebp, esp

; 202  : 		_Compat(_Right);
; 203  : 		return (this->_Ptr == _Right._Ptr);

  00003	8b 01		 mov	 eax, DWORD PTR [ecx]
  00005	8b 4d 08	 mov	 ecx, DWORD PTR __Right$[ebp]
  00008	2b 01		 sub	 eax, DWORD PTR [ecx]
  0000a	f7 d8		 neg	 eax
  0000c	1b c0		 sbb	 eax, eax
  0000e	40		 inc	 eax

; 204  : 		}

  0000f	5d		 pop	 ebp
  00010	c2 04 00	 ret	 4
??8?$_Vector_const_iterator@V?$_Vector_val@UtagAccessorySlot@@V?$allocator@UtagAccessorySlot@@@std@@@std@@@std@@QBE_NABV01@@Z ENDP ; std::_Vector_const_iterator<std::_Vector_val<tagAccessorySlot,std::allocator<tagAccessorySlot> > >::operator==
_TEXT	ENDS
PUBLIC	?max_size@?$vector@UtagAccessorySlot@@V?$allocator@UtagAccessorySlot@@@std@@@std@@QBEIXZ ; std::vector<tagAccessorySlot,std::allocator<tagAccessorySlot> >::max_size
; Function compile flags: /Ogsp
;	COMDAT ?max_size@?$vector@UtagAccessorySlot@@V?$allocator@UtagAccessorySlot@@@std@@@std@@QBEIXZ
_TEXT	SEGMENT
?max_size@?$vector@UtagAccessorySlot@@V?$allocator@UtagAccessorySlot@@@std@@@std@@QBEIXZ PROC ; std::vector<tagAccessorySlot,std::allocator<tagAccessorySlot> >::max_size, COMDAT
; _this$ = ecx

; 884  : 		return (this->_Alval.max_size());

  00000	b8 c3 c3 c3 03	 mov	 eax, 63161283		; 03c3c3c3H

; 885  : 		}

  00005	c3		 ret	 0
?max_size@?$vector@UtagAccessorySlot@@V?$allocator@UtagAccessorySlot@@@std@@@std@@QBEIXZ ENDP ; std::vector<tagAccessorySlot,std::allocator<tagAccessorySlot> >::max_size
_TEXT	ENDS
PUBLIC	?_Grow_to@?$vector@UtagAccessorySlot@@V?$allocator@UtagAccessorySlot@@@std@@@std@@IBEII@Z ; std::vector<tagAccessorySlot,std::allocator<tagAccessorySlot> >::_Grow_to
; Function compile flags: /Ogsp
;	COMDAT ?_Grow_to@?$vector@UtagAccessorySlot@@V?$allocator@UtagAccessorySlot@@@std@@@std@@IBEII@Z
_TEXT	SEGMENT
__Count$ = 8						; size = 4
?_Grow_to@?$vector@UtagAccessorySlot@@V?$allocator@UtagAccessorySlot@@@std@@@std@@IBEII@Z PROC ; std::vector<tagAccessorySlot,std::allocator<tagAccessorySlot> >::_Grow_to, COMDAT
; _this$ = ecx

; 1274 : 		{	// grow by 50% or at least to _Count

  00000	55		 push	 ebp
  00001	8b ec		 mov	 ebp, esp

; 1275 : 		size_type _Capacity = capacity();

  00003	8b 41 08	 mov	 eax, DWORD PTR [ecx+8]
  00006	2b 01		 sub	 eax, DWORD PTR [ecx]
  00008	6a 44		 push	 68			; 00000044H
  0000a	99		 cdq
  0000b	59		 pop	 ecx
  0000c	f7 f9		 idiv	 ecx

; 1276 : 
; 1277 : 		_Capacity = max_size() - _Capacity / 2 < _Capacity
; 1278 : 			? 0 : _Capacity + _Capacity / 2;	// try to grow by 50%

  0000e	ba c3 c3 c3 03	 mov	 edx, 63161283		; 03c3c3c3H
  00013	8b c8		 mov	 ecx, eax
  00015	d1 e9		 shr	 ecx, 1
  00017	2b d1		 sub	 edx, ecx
  00019	3b d0		 cmp	 edx, eax
  0001b	73 04		 jae	 SHORT $LN4@Grow_to
  0001d	33 c0		 xor	 eax, eax
  0001f	eb 02		 jmp	 SHORT $LN5@Grow_to
$LN4@Grow_to:
  00021	03 c1		 add	 eax, ecx
$LN5@Grow_to:

; 1279 : 		if (_Capacity < _Count)

  00023	3b 45 08	 cmp	 eax, DWORD PTR __Count$[ebp]

; 1280 : 			_Capacity = _Count;

  00026	0f 42 45 08	 cmovb	 eax, DWORD PTR __Count$[ebp]

; 1281 : 		return (_Capacity);
; 1282 : 		}

  0002a	5d		 pop	 ebp
  0002b	c2 04 00	 ret	 4
?_Grow_to@?$vector@UtagAccessorySlot@@V?$allocator@UtagAccessorySlot@@@std@@@std@@IBEII@Z ENDP ; std::vector<tagAccessorySlot,std::allocator<tagAccessorySlot> >::_Grow_to
_TEXT	ENDS
PUBLIC	??0?$_Vector_const_iterator@V?$_Vector_val@UtagAccessorySlot@@V?$allocator@UtagAccessorySlot@@@std@@@std@@@std@@QAE@PAUtagAccessorySlot@@PBU_Container_base0@1@@Z ; std::_Vector_const_iterator<std::_Vector_val<tagAccessorySlot,std::allocator<tagAccessorySlot> > >::_Vector_const_iterator<std::_Vector_val<tagAccessorySlot,std::allocator<tagAccessorySlot> > >
; Function compile flags: /Ogsp
;	COMDAT ??0?$_Vector_const_iterator@V?$_Vector_val@UtagAccessorySlot@@V?$allocator@UtagAccessorySlot@@@std@@@std@@@std@@QAE@PAUtagAccessorySlot@@PBU_Container_base0@1@@Z
_TEXT	SEGMENT
__Parg$ = 8						; size = 4
__Pvector$ = 12						; size = 4
??0?$_Vector_const_iterator@V?$_Vector_val@UtagAccessorySlot@@V?$allocator@UtagAccessorySlot@@@std@@@std@@@std@@QAE@PAUtagAccessorySlot@@PBU_Container_base0@1@@Z PROC ; std::_Vector_const_iterator<std::_Vector_val<tagAccessorySlot,std::allocator<tagAccessorySlot> > >::_Vector_const_iterator<std::_Vector_val<tagAccessorySlot,std::allocator<tagAccessorySlot> > >, COMDAT
; _this$ = ecx

; 45   : 		{	// construct with pointer _Parg

  00000	55		 push	 ebp
  00001	8b ec		 mov	 ebp, esp
  00003	8b c1		 mov	 eax, ecx
  00005	8b 4d 08	 mov	 ecx, DWORD PTR __Parg$[ebp]
  00008	89 08		 mov	 DWORD PTR [eax], ecx

; 46   : 		this->_Adopt(_Pvector);
; 47   : 		}

  0000a	5d		 pop	 ebp
  0000b	c2 08 00	 ret	 8
??0?$_Vector_const_iterator@V?$_Vector_val@UtagAccessorySlot@@V?$allocator@UtagAccessorySlot@@@std@@@std@@@std@@QAE@PAUtagAccessorySlot@@PBU_Container_base0@1@@Z ENDP ; std::_Vector_const_iterator<std::_Vector_val<tagAccessorySlot,std::allocator<tagAccessorySlot> > >::_Vector_const_iterator<std::_Vector_val<tagAccessorySlot,std::allocator<tagAccessorySlot> > >
_TEXT	ENDS
PUBLIC	?allocate@?$allocator@UtagAccessorySlot@@@std@@QAEPAUtagAccessorySlot@@I@Z ; std::allocator<tagAccessorySlot>::allocate
; Function compile flags: /Ogsp
; File c:\program files (x86)\microsoft visual studio 10.0\vc\include\xmemory
;	COMDAT ?allocate@?$allocator@UtagAccessorySlot@@@std@@QAEPAUtagAccessorySlot@@I@Z
_TEXT	SEGMENT
__Count$ = 8						; size = 4
?allocate@?$allocator@UtagAccessorySlot@@@std@@QAEPAUtagAccessorySlot@@I@Z PROC ; std::allocator<tagAccessorySlot>::allocate, COMDAT
; _this$ = ecx

; 186  : 		{	// allocate array of _Count elements

  00000	55		 push	 ebp
  00001	8b ec		 mov	 ebp, esp

; 187  : 		return (_Allocate(_Count, (pointer)0));

  00003	6a 00		 push	 0
  00005	ff 75 08	 push	 DWORD PTR __Count$[ebp]
  00008	e8 00 00 00 00	 call	 ??$_Allocate@UtagAccessorySlot@@@std@@YAPAUtagAccessorySlot@@IPAU1@@Z ; std::_Allocate<tagAccessorySlot>
  0000d	59		 pop	 ecx
  0000e	59		 pop	 ecx

; 188  : 		}

  0000f	5d		 pop	 ebp
  00010	c2 04 00	 ret	 4
?allocate@?$allocator@UtagAccessorySlot@@@std@@QAEPAUtagAccessorySlot@@I@Z ENDP ; std::allocator<tagAccessorySlot>::allocate
_TEXT	ENDS
PUBLIC	?construct@?$allocator@UtagAccessorySlot@@@std@@QAEXPAUtagAccessorySlot@@ABU3@@Z ; std::allocator<tagAccessorySlot>::construct
; Function compile flags: /Ogsp
;	COMDAT ?construct@?$allocator@UtagAccessorySlot@@@std@@QAEXPAUtagAccessorySlot@@ABU3@@Z
_TEXT	SEGMENT
__Ptr$ = 8						; size = 4
__Val$ = 12						; size = 4
?construct@?$allocator@UtagAccessorySlot@@@std@@QAEXPAUtagAccessorySlot@@ABU3@@Z PROC ; std::allocator<tagAccessorySlot>::construct, COMDAT
; _this$ = ecx

; 196  : 		{	// construct object at _Ptr with value _Val

  00000	55		 push	 ebp
  00001	8b ec		 mov	 ebp, esp

; 197  : 		_Construct(_Ptr, _Val);

  00003	ff 75 0c	 push	 DWORD PTR __Val$[ebp]
  00006	ff 75 08	 push	 DWORD PTR __Ptr$[ebp]
  00009	e8 00 00 00 00	 call	 ??$_Construct@UtagAccessorySlot@@ABU1@@std@@YAXPAUtagAccessorySlot@@ABU1@@Z ; std::_Construct<tagAccessorySlot,tagAccessorySlot const &>
  0000e	59		 pop	 ecx
  0000f	59		 pop	 ecx

; 198  : 		}

  00010	5d		 pop	 ebp
  00011	c2 08 00	 ret	 8
?construct@?$allocator@UtagAccessorySlot@@@std@@QAEXPAUtagAccessorySlot@@ABU3@@Z ENDP ; std::allocator<tagAccessorySlot>::construct
_TEXT	ENDS
PUBLIC	??G?$_Vector_iterator@V?$_Vector_val@UtagAccessorySlot@@V?$allocator@UtagAccessorySlot@@@std@@@std@@@std@@QBEHABV?$_Vector_const_iterator@V?$_Vector_val@UtagAccessorySlot@@V?$allocator@UtagAccessorySlot@@@std@@@std@@@1@@Z ; std::_Vector_iterator<std::_Vector_val<tagAccessorySlot,std::allocator<tagAccessorySlot> > >::operator-
; Function compile flags: /Ogsp
; File c:\program files (x86)\microsoft visual studio 10.0\vc\include\vector
;	COMDAT ??G?$_Vector_iterator@V?$_Vector_val@UtagAccessorySlot@@V?$allocator@UtagAccessorySlot@@@std@@@std@@@std@@QBEHABV?$_Vector_const_iterator@V?$_Vector_val@UtagAccessorySlot@@V?$allocator@UtagAccessorySlot@@@std@@@std@@@1@@Z
_TEXT	SEGMENT
__Right$ = 8						; size = 4
??G?$_Vector_iterator@V?$_Vector_val@UtagAccessorySlot@@V?$allocator@UtagAccessorySlot@@@std@@@std@@@std@@QBEHABV?$_Vector_const_iterator@V?$_Vector_val@UtagAccessorySlot@@V?$allocator@UtagAccessorySlot@@@std@@@std@@@1@@Z PROC ; std::_Vector_iterator<std::_Vector_val<tagAccessorySlot,std::allocator<tagAccessorySlot> > >::operator-, COMDAT
; _this$ = ecx

; 380  : 		{	// return difference of iterators

  00000	55		 push	 ebp
  00001	8b ec		 mov	 ebp, esp

; 381  : 		return (*(_Mybase *)this - _Right);

  00003	8b 01		 mov	 eax, DWORD PTR [ecx]
  00005	8b 4d 08	 mov	 ecx, DWORD PTR __Right$[ebp]
  00008	2b 01		 sub	 eax, DWORD PTR [ecx]
  0000a	6a 44		 push	 68			; 00000044H
  0000c	99		 cdq
  0000d	59		 pop	 ecx
  0000e	f7 f9		 idiv	 ecx

; 382  : 		}

  00010	5d		 pop	 ebp
  00011	c2 04 00	 ret	 4
??G?$_Vector_iterator@V?$_Vector_val@UtagAccessorySlot@@V?$allocator@UtagAccessorySlot@@@std@@@std@@@std@@QBEHABV?$_Vector_const_iterator@V?$_Vector_val@UtagAccessorySlot@@V?$allocator@UtagAccessorySlot@@@std@@@std@@@1@@Z ENDP ; std::_Vector_iterator<std::_Vector_val<tagAccessorySlot,std::allocator<tagAccessorySlot> > >::operator-
_TEXT	ENDS
PUBLIC	??$_Unchecked@V?$_Vector_val@UtagAccessorySlot@@V?$allocator@UtagAccessorySlot@@@std@@@std@@@std@@YAPAUtagAccessorySlot@@V?$_Vector_iterator@V?$_Vector_val@UtagAccessorySlot@@V?$allocator@UtagAccessorySlot@@@std@@@std@@@0@@Z ; std::_Unchecked<std::_Vector_val<tagAccessorySlot,std::allocator<tagAccessorySlot> > >
; Function compile flags: /Ogsp
;	COMDAT ??$_Unchecked@V?$_Vector_val@UtagAccessorySlot@@V?$allocator@UtagAccessorySlot@@@std@@@std@@@std@@YAPAUtagAccessorySlot@@V?$_Vector_iterator@V?$_Vector_val@UtagAccessorySlot@@V?$allocator@UtagAccessorySlot@@@std@@@std@@@0@@Z
_TEXT	SEGMENT
__Iter$ = 8						; size = 4
??$_Unchecked@V?$_Vector_val@UtagAccessorySlot@@V?$allocator@UtagAccessorySlot@@@std@@@std@@@std@@YAPAUtagAccessorySlot@@V?$_Vector_iterator@V?$_Vector_val@UtagAccessorySlot@@V?$allocator@UtagAccessorySlot@@@std@@@std@@@0@@Z PROC ; std::_Unchecked<std::_Vector_val<tagAccessorySlot,std::allocator<tagAccessorySlot> > >, COMDAT

; 393  : 	{	// convert to unchecked

  00000	55		 push	 ebp
  00001	8b ec		 mov	 ebp, esp

; 394  : 	return (_Iter._Unchecked());

  00003	8b 45 08	 mov	 eax, DWORD PTR __Iter$[ebp]

; 395  : 	}

  00006	5d		 pop	 ebp
  00007	c3		 ret	 0
??$_Unchecked@V?$_Vector_val@UtagAccessorySlot@@V?$allocator@UtagAccessorySlot@@@std@@@std@@@std@@YAPAUtagAccessorySlot@@V?$_Vector_iterator@V?$_Vector_val@UtagAccessorySlot@@V?$allocator@UtagAccessorySlot@@@std@@@std@@@0@@Z ENDP ; std::_Unchecked<std::_Vector_val<tagAccessorySlot,std::allocator<tagAccessorySlot> > >
_TEXT	ENDS
PUBLIC	??$construct@AAUtagAccessorySlot@@@?$allocator@UtagAccessorySlot@@@std@@QAEXPAUtagAccessorySlot@@AAU2@@Z ; std::allocator<tagAccessorySlot>::construct<tagAccessorySlot &>
;	COMDAT xdata$x
; File c:\program files (x86)\microsoft visual studio 10.0\vc\include\utility
xdata$x	SEGMENT
__unwindtable$??$construct@AAUtagAccessorySlot@@@?$allocator@UtagAccessorySlot@@@std@@QAEXPAUtagAccessorySlot@@AAU2@@Z DD 0ffffffffH
	DD	FLAT:__unwindfunclet$??$construct@AAUtagAccessorySlot@@@?$allocator@UtagAccessorySlot@@@std@@QAEXPAUtagAccessorySlot@@AAU2@@Z$0
__ehfuncinfo$??$construct@AAUtagAccessorySlot@@@?$allocator@UtagAccessorySlot@@@std@@QAEXPAUtagAccessorySlot@@AAU2@@Z DD 019930522H
	DD	01H
	DD	FLAT:__unwindtable$??$construct@AAUtagAccessorySlot@@@?$allocator@UtagAccessorySlot@@@std@@QAEXPAUtagAccessorySlot@@AAU2@@Z
	DD	2 DUP(00H)
	DD	2 DUP(00H)
	DD	00H
	DD	01H
; Function compile flags: /Ogsp
; File c:\program files (x86)\microsoft visual studio 10.0\vc\include\xmemory
xdata$x	ENDS
;	COMDAT ??$construct@AAUtagAccessorySlot@@@?$allocator@UtagAccessorySlot@@@std@@QAEXPAUtagAccessorySlot@@AAU2@@Z
_TEXT	SEGMENT
$T507091 = -16						; size = 4
__$EHRec$ = -12						; size = 12
__Ptr$ = 8						; size = 4
__Val$ = 12						; size = 4
??$construct@AAUtagAccessorySlot@@@?$allocator@UtagAccessorySlot@@@std@@QAEXPAUtagAccessorySlot@@AAU2@@Z PROC ; std::allocator<tagAccessorySlot>::construct<tagAccessorySlot &>, COMDAT
; _this$ = ecx

; 206  : 		void construct(pointer _Ptr, _Other&& _Val)

  00000	6a 04		 push	 4
  00002	b8 00 00 00 00	 mov	 eax, __ehhandler$??$construct@AAUtagAccessorySlot@@@?$allocator@UtagAccessorySlot@@@std@@QAEXPAUtagAccessorySlot@@AAU2@@Z
  00007	e8 00 00 00 00	 call	 __EH_prolog3

; 207  : 		{	// construct object at _Ptr with value _Val
; 208  : 		::new ((void _FARQ *)_Ptr) _Ty(_STD forward<_Other>(_Val));

  0000c	8b 4d 08	 mov	 ecx, DWORD PTR __Ptr$[ebp]
  0000f	89 4d f0	 mov	 DWORD PTR $T507091[ebp], ecx
  00012	83 65 fc 00	 and	 DWORD PTR __$EHRec$[ebp+8], 0
  00016	85 c9		 test	 ecx, ecx
  00018	74 08		 je	 SHORT $LN3@construct
  0001a	ff 75 0c	 push	 DWORD PTR __Val$[ebp]
  0001d	e8 00 00 00 00	 call	 ??0tagAccessorySlot@@QAE@ABU0@@Z
$LN3@construct:

; 209  : 		}

  00022	e8 00 00 00 00	 call	 __EH_epilog3
  00027	c2 08 00	 ret	 8
_TEXT	ENDS
;	COMDAT text$x
text$x	SEGMENT
__unwindfunclet$??$construct@AAUtagAccessorySlot@@@?$allocator@UtagAccessorySlot@@@std@@QAEXPAUtagAccessorySlot@@AAU2@@Z$0:
  00000	ff 75 08	 push	 DWORD PTR __Ptr$[ebp]
  00003	ff 75 f0	 push	 DWORD PTR $T507091[ebp]
  00006	e8 00 00 00 00	 call	 ??3@YAXPAX0@Z		; operator delete
  0000b	59		 pop	 ecx
  0000c	59		 pop	 ecx
  0000d	c3		 ret	 0
__ehhandler$??$construct@AAUtagAccessorySlot@@@?$allocator@UtagAccessorySlot@@@std@@QAEXPAUtagAccessorySlot@@AAU2@@Z:
  0000e	8b 54 24 08	 mov	 edx, DWORD PTR [esp+8]
  00012	8d 42 0c	 lea	 eax, DWORD PTR [edx+12]
  00015	8b 4a ec	 mov	 ecx, DWORD PTR [edx-20]
  00018	33 c8		 xor	 ecx, eax
  0001a	e8 00 00 00 00	 call	 @__security_check_cookie@4
  0001f	b8 00 00 00 00	 mov	 eax, OFFSET __ehfuncinfo$??$construct@AAUtagAccessorySlot@@@?$allocator@UtagAccessorySlot@@@std@@QAEXPAUtagAccessorySlot@@AAU2@@Z
  00024	e9 00 00 00 00	 jmp	 ___CxxFrameHandler3
text$x	ENDS
??$construct@AAUtagAccessorySlot@@@?$allocator@UtagAccessorySlot@@@std@@QAEXPAUtagAccessorySlot@@AAU2@@Z ENDP ; std::allocator<tagAccessorySlot>::construct<tagAccessorySlot &>
PUBLIC	??$_Move@PAUtagAccessorySlot@@PAU1@@std@@YAPAUtagAccessorySlot@@PAU1@00U_Nonscalar_ptr_iterator_tag@0@@Z ; std::_Move<tagAccessorySlot *,tagAccessorySlot *>
; Function compile flags: /Ogsp
; File c:\program files (x86)\microsoft visual studio 10.0\vc\include\xutility
;	COMDAT ??$_Move@PAUtagAccessorySlot@@PAU1@@std@@YAPAUtagAccessorySlot@@PAU1@00U_Nonscalar_ptr_iterator_tag@0@@Z
_TEXT	SEGMENT
__First$ = 8						; size = 4
__Last$ = 12						; size = 4
__Dest$ = 16						; size = 4
___formal$ = 20						; size = 1
??$_Move@PAUtagAccessorySlot@@PAU1@@std@@YAPAUtagAccessorySlot@@PAU1@00U_Nonscalar_ptr_iterator_tag@0@@Z PROC ; std::_Move<tagAccessorySlot *,tagAccessorySlot *>, COMDAT

; 2512 : 	{	// move [_First, _Last) to [_Dest, ...), arbitrary iterators

  00000	55		 push	 ebp
  00001	8b ec		 mov	 ebp, esp
  00003	56		 push	 esi

; 2513 : 	for (; _First != _Last; ++_Dest, ++_First)

  00004	8b 75 08	 mov	 esi, DWORD PTR __First$[ebp]
  00007	eb 10		 jmp	 SHORT $LN11@Move
$LL3@Move:

; 2514 : 		*_Dest = _STD move(*_First);

  00009	8b 4d 10	 mov	 ecx, DWORD PTR __Dest$[ebp]
  0000c	56		 push	 esi
  0000d	e8 00 00 00 00	 call	 ??4tagAccessorySlot@@QAEAAU0@ABU0@@Z
  00012	83 45 10 44	 add	 DWORD PTR __Dest$[ebp], 68 ; 00000044H
  00016	83 c6 44	 add	 esi, 68			; 00000044H
$LN11@Move:

; 2513 : 	for (; _First != _Last; ++_Dest, ++_First)

  00019	3b 75 0c	 cmp	 esi, DWORD PTR __Last$[ebp]
  0001c	75 eb		 jne	 SHORT $LL3@Move

; 2515 : 	return (_Dest);

  0001e	8b 45 10	 mov	 eax, DWORD PTR __Dest$[ebp]
  00021	5e		 pop	 esi

; 2516 : 	}

  00022	5d		 pop	 ebp
  00023	c3		 ret	 0
??$_Move@PAUtagAccessorySlot@@PAU1@@std@@YAPAUtagAccessorySlot@@PAU1@00U_Nonscalar_ptr_iterator_tag@0@@Z ENDP ; std::_Move<tagAccessorySlot *,tagAccessorySlot *>
_TEXT	ENDS
PUBLIC	??$?0AAPAUtagAccessorySlot@@AAPAU0@@?$pair@PAUtagAccessorySlot@@PAU1@@std@@QAE@AAPAUtagAccessorySlot@@0@Z ; std::pair<tagAccessorySlot *,tagAccessorySlot *>::pair<tagAccessorySlot *,tagAccessorySlot *><tagAccessorySlot * &,tagAccessorySlot * &>
; Function compile flags: /Ogsp
; File c:\program files (x86)\microsoft visual studio 10.0\vc\include\utility
;	COMDAT ??$?0AAPAUtagAccessorySlot@@AAPAU0@@?$pair@PAUtagAccessorySlot@@PAU1@@std@@QAE@AAPAUtagAccessorySlot@@0@Z
_TEXT	SEGMENT
__Val1$ = 8						; size = 4
__Val2$ = 12						; size = 4
??$?0AAPAUtagAccessorySlot@@AAPAU0@@?$pair@PAUtagAccessorySlot@@PAU1@@std@@QAE@AAPAUtagAccessorySlot@@0@Z PROC ; std::pair<tagAccessorySlot *,tagAccessorySlot *>::pair<tagAccessorySlot *,tagAccessorySlot *><tagAccessorySlot * &,tagAccessorySlot * &>, COMDAT
; _this$ = ecx

; 247  : 		{	// construct from moved values

  00000	55		 push	 ebp
  00001	8b ec		 mov	 ebp, esp
  00003	8b c1		 mov	 eax, ecx
  00005	8b 4d 08	 mov	 ecx, DWORD PTR __Val1$[ebp]
  00008	8b 09		 mov	 ecx, DWORD PTR [ecx]
  0000a	89 08		 mov	 DWORD PTR [eax], ecx
  0000c	8b 4d 0c	 mov	 ecx, DWORD PTR __Val2$[ebp]
  0000f	8b 09		 mov	 ecx, DWORD PTR [ecx]
  00011	89 48 04	 mov	 DWORD PTR [eax+4], ecx

; 248  : 		}

  00014	5d		 pop	 ebp
  00015	c2 08 00	 ret	 8
??$?0AAPAUtagAccessorySlot@@AAPAU0@@?$pair@PAUtagAccessorySlot@@PAU1@@std@@QAE@AAPAUtagAccessorySlot@@0@Z ENDP ; std::pair<tagAccessorySlot *,tagAccessorySlot *>::pair<tagAccessorySlot *,tagAccessorySlot *><tagAccessorySlot * &,tagAccessorySlot * &>
_TEXT	ENDS
PUBLIC	??$_Destroy@UtagAccessorySlot@@@std@@YAXPAUtagAccessorySlot@@@Z ; std::_Destroy<tagAccessorySlot>
; Function compile flags: /Ogsp
; File c:\program files (x86)\microsoft visual studio 10.0\vc\include\xmemory
;	COMDAT ??$_Destroy@UtagAccessorySlot@@@std@@YAXPAUtagAccessorySlot@@@Z
_TEXT	SEGMENT
__Ptr$ = 8						; size = 4
??$_Destroy@UtagAccessorySlot@@@std@@YAXPAUtagAccessorySlot@@@Z PROC ; std::_Destroy<tagAccessorySlot>, COMDAT

; 62   : 	{	// destroy object at _Ptr

  00000	55		 push	 ebp
  00001	8b ec		 mov	 ebp, esp

; 63   : 	_Ptr->~_Ty();

  00003	8b 4d 08	 mov	 ecx, DWORD PTR __Ptr$[ebp]

; 64   : 	}

  00006	5d		 pop	 ebp

; 63   : 	_Ptr->~_Ty();

  00007	e9 00 00 00 00	 jmp	 ??1tagAccessorySlot@@QAE@XZ
??$_Destroy@UtagAccessorySlot@@@std@@YAXPAUtagAccessorySlot@@@Z ENDP ; std::_Destroy<tagAccessorySlot>
_TEXT	ENDS
PUBLIC	?construct@?$allocator@UtagAccessorySlot@@@std@@QAEXPAUtagAccessorySlot@@$$QAU3@@Z ; std::allocator<tagAccessorySlot>::construct
;	COMDAT xdata$x
; File c:\program files (x86)\microsoft visual studio 10.0\vc\include\utility
xdata$x	SEGMENT
__unwindtable$?construct@?$allocator@UtagAccessorySlot@@@std@@QAEXPAUtagAccessorySlot@@$$QAU3@@Z DD 0ffffffffH
	DD	FLAT:__unwindfunclet$?construct@?$allocator@UtagAccessorySlot@@@std@@QAEXPAUtagAccessorySlot@@$$QAU3@@Z$0
__ehfuncinfo$?construct@?$allocator@UtagAccessorySlot@@@std@@QAEXPAUtagAccessorySlot@@$$QAU3@@Z DD 019930522H
	DD	01H
	DD	FLAT:__unwindtable$?construct@?$allocator@UtagAccessorySlot@@@std@@QAEXPAUtagAccessorySlot@@$$QAU3@@Z
	DD	2 DUP(00H)
	DD	2 DUP(00H)
	DD	00H
	DD	01H
; Function compile flags: /Ogsp
; File c:\program files (x86)\microsoft visual studio 10.0\vc\include\xmemory
xdata$x	ENDS
;	COMDAT ?construct@?$allocator@UtagAccessorySlot@@@std@@QAEXPAUtagAccessorySlot@@$$QAU3@@Z
_TEXT	SEGMENT
$T507148 = -16						; size = 4
__$EHRec$ = -12						; size = 12
__Ptr$ = 8						; size = 4
__Val$ = 12						; size = 4
?construct@?$allocator@UtagAccessorySlot@@@std@@QAEXPAUtagAccessorySlot@@$$QAU3@@Z PROC ; std::allocator<tagAccessorySlot>::construct, COMDAT
; _this$ = ecx

; 201  : 		{	// construct object at _Ptr with value _Val

  00000	6a 04		 push	 4
  00002	b8 00 00 00 00	 mov	 eax, __ehhandler$?construct@?$allocator@UtagAccessorySlot@@@std@@QAEXPAUtagAccessorySlot@@$$QAU3@@Z
  00007	e8 00 00 00 00	 call	 __EH_prolog3

; 202  : 		::new ((void _FARQ *)_Ptr) _Ty(_STD forward<_Ty>(_Val));

  0000c	8b 4d 08	 mov	 ecx, DWORD PTR __Ptr$[ebp]
  0000f	89 4d f0	 mov	 DWORD PTR $T507148[ebp], ecx
  00012	83 65 fc 00	 and	 DWORD PTR __$EHRec$[ebp+8], 0
  00016	85 c9		 test	 ecx, ecx
  00018	74 08		 je	 SHORT $LN3@construct@2
  0001a	ff 75 0c	 push	 DWORD PTR __Val$[ebp]
  0001d	e8 00 00 00 00	 call	 ??0tagAccessorySlot@@QAE@ABU0@@Z
$LN3@construct@2:

; 203  : 		}

  00022	e8 00 00 00 00	 call	 __EH_epilog3
  00027	c2 08 00	 ret	 8
_TEXT	ENDS
;	COMDAT text$x
text$x	SEGMENT
__unwindfunclet$?construct@?$allocator@UtagAccessorySlot@@@std@@QAEXPAUtagAccessorySlot@@$$QAU3@@Z$0:
  00000	ff 75 08	 push	 DWORD PTR __Ptr$[ebp]
  00003	ff 75 f0	 push	 DWORD PTR $T507148[ebp]
  00006	e8 00 00 00 00	 call	 ??3@YAXPAX0@Z		; operator delete
  0000b	59		 pop	 ecx
  0000c	59		 pop	 ecx
  0000d	c3		 ret	 0
__ehhandler$?construct@?$allocator@UtagAccessorySlot@@@std@@QAEXPAUtagAccessorySlot@@$$QAU3@@Z:
  0000e	8b 54 24 08	 mov	 edx, DWORD PTR [esp+8]
  00012	8d 42 0c	 lea	 eax, DWORD PTR [edx+12]
  00015	8b 4a ec	 mov	 ecx, DWORD PTR [edx-20]
  00018	33 c8		 xor	 ecx, eax
  0001a	e8 00 00 00 00	 call	 @__security_check_cookie@4
  0001f	b8 00 00 00 00	 mov	 eax, OFFSET __ehfuncinfo$?construct@?$allocator@UtagAccessorySlot@@@std@@QAEXPAUtagAccessorySlot@@$$QAU3@@Z
  00024	e9 00 00 00 00	 jmp	 ___CxxFrameHandler3
text$x	ENDS
?construct@?$allocator@UtagAccessorySlot@@@std@@QAEXPAUtagAccessorySlot@@$$QAU3@@Z ENDP ; std::allocator<tagAccessorySlot>::construct
PUBLIC	??$swap@UtagAccessorySlot@@@std@@YAXAAUtagAccessorySlot@@0@Z ; std::swap<tagAccessorySlot>
;	COMDAT xdata$x
; File c:\program files (x86)\microsoft visual studio 10.0\vc\include\utility
xdata$x	SEGMENT
__unwindtable$??$swap@UtagAccessorySlot@@@std@@YAXAAUtagAccessorySlot@@0@Z DD 0ffffffffH
	DD	FLAT:__unwindfunclet$??$swap@UtagAccessorySlot@@@std@@YAXAAUtagAccessorySlot@@0@Z$0
__ehfuncinfo$??$swap@UtagAccessorySlot@@@std@@YAXAAUtagAccessorySlot@@0@Z DD 019930522H
	DD	01H
	DD	FLAT:__unwindtable$??$swap@UtagAccessorySlot@@@std@@YAXAAUtagAccessorySlot@@0@Z
	DD	2 DUP(00H)
	DD	2 DUP(00H)
	DD	00H
	DD	01H
; Function compile flags: /Ogsp
xdata$x	ENDS
;	COMDAT ??$swap@UtagAccessorySlot@@@std@@YAXAAUtagAccessorySlot@@0@Z
_TEXT	SEGMENT
__Tmp$ = -80						; size = 68
__$EHRec$ = -12						; size = 12
__Left$ = 8						; size = 4
__Right$ = 12						; size = 4
??$swap@UtagAccessorySlot@@@std@@YAXAAUtagAccessorySlot@@0@Z PROC ; std::swap<tagAccessorySlot>, COMDAT

; 101  : 	{	// exchange values stored at _Left and _Right

  00000	6a 44		 push	 68			; 00000044H
  00002	b8 00 00 00 00	 mov	 eax, __ehhandler$??$swap@UtagAccessorySlot@@@std@@YAXAAUtagAccessorySlot@@0@Z
  00007	e8 00 00 00 00	 call	 __EH_prolog3

; 102  : 	_Ty _Tmp = _Move(_Left);

  0000c	ff 75 08	 push	 DWORD PTR __Left$[ebp]
  0000f	8d 4d b0	 lea	 ecx, DWORD PTR __Tmp$[ebp]
  00012	e8 00 00 00 00	 call	 ??0tagAccessorySlot@@QAE@ABU0@@Z

; 103  : 	_Left = _Move(_Right);

  00017	ff 75 0c	 push	 DWORD PTR __Right$[ebp]
  0001a	8b 4d 08	 mov	 ecx, DWORD PTR __Left$[ebp]
  0001d	83 65 fc 00	 and	 DWORD PTR __$EHRec$[ebp+8], 0
  00021	e8 00 00 00 00	 call	 ??4tagAccessorySlot@@QAEAAU0@ABU0@@Z

; 104  : 	_Right = _Move(_Tmp);

  00026	8b 4d 0c	 mov	 ecx, DWORD PTR __Right$[ebp]
  00029	8d 45 b0	 lea	 eax, DWORD PTR __Tmp$[ebp]
  0002c	50		 push	 eax
  0002d	e8 00 00 00 00	 call	 ??4tagAccessorySlot@@QAEAAU0@ABU0@@Z

; 105  : 	}

  00032	83 4d fc ff	 or	 DWORD PTR __$EHRec$[ebp+8], -1
  00036	8d 4d b0	 lea	 ecx, DWORD PTR __Tmp$[ebp]
  00039	e8 00 00 00 00	 call	 ??1tagAccessorySlot@@QAE@XZ
  0003e	e8 00 00 00 00	 call	 __EH_epilog3
  00043	c3		 ret	 0
_TEXT	ENDS
;	COMDAT text$x
text$x	SEGMENT
__unwindfunclet$??$swap@UtagAccessorySlot@@@std@@YAXAAUtagAccessorySlot@@0@Z$0:
  00000	8d 4d b0	 lea	 ecx, DWORD PTR __Tmp$[ebp]
  00003	e9 00 00 00 00	 jmp	 ??1tagAccessorySlot@@QAE@XZ
__ehhandler$??$swap@UtagAccessorySlot@@@std@@YAXAAUtagAccessorySlot@@0@Z:
  00008	8b 54 24 08	 mov	 edx, DWORD PTR [esp+8]
  0000c	8d 42 0c	 lea	 eax, DWORD PTR [edx+12]
  0000f	8b 4a ac	 mov	 ecx, DWORD PTR [edx-84]
  00012	33 c8		 xor	 ecx, eax
  00014	e8 00 00 00 00	 call	 @__security_check_cookie@4
  00019	b8 00 00 00 00	 mov	 eax, OFFSET __ehfuncinfo$??$swap@UtagAccessorySlot@@@std@@YAXAAUtagAccessorySlot@@0@Z
  0001e	e9 00 00 00 00	 jmp	 ___CxxFrameHandler3
text$x	ENDS
??$swap@UtagAccessorySlot@@@std@@YAXAAUtagAccessorySlot@@0@Z ENDP ; std::swap<tagAccessorySlot>
PUBLIC	??$_Move_backward@PAUtagAccessorySlot@@PAU1@@std@@YAPAUtagAccessorySlot@@PAU1@00@Z ; std::_Move_backward<tagAccessorySlot *,tagAccessorySlot *>
; Function compile flags: /Ogsp
; File c:\program files (x86)\microsoft visual studio 10.0\vc\include\xutility
;	COMDAT ??$_Move_backward@PAUtagAccessorySlot@@PAU1@@std@@YAPAUtagAccessorySlot@@PAU1@00@Z
_TEXT	SEGMENT
__Cat$507187 = -4					; size = 1
__First$ = 8						; size = 4
__Last$ = 12						; size = 4
__Dest$ = 16						; size = 4
??$_Move_backward@PAUtagAccessorySlot@@PAU1@@std@@YAPAUtagAccessorySlot@@PAU1@00@Z PROC ; std::_Move_backward<tagAccessorySlot *,tagAccessorySlot *>, COMDAT

; 2638 : 	{	// move [_First, _Last) backwards to [..., _Dest), unchecked

  00000	55		 push	 ebp
  00001	8b ec		 mov	 ebp, esp
  00003	51		 push	 ecx

; 2639 : 	return (_Move_backward(_First, _Last,
; 2640 : 		_Dest, _Ptr_cat(_First, _Dest)));

  00004	ff 75 fc	 push	 DWORD PTR __Cat$507187[ebp]
  00007	ff 75 10	 push	 DWORD PTR __Dest$[ebp]
  0000a	ff 75 0c	 push	 DWORD PTR __Last$[ebp]
  0000d	ff 75 08	 push	 DWORD PTR __First$[ebp]
  00010	e8 00 00 00 00	 call	 ??$_Move_backward@PAUtagAccessorySlot@@PAU1@@std@@YAPAUtagAccessorySlot@@PAU1@00U_Nonscalar_ptr_iterator_tag@0@@Z ; std::_Move_backward<tagAccessorySlot *,tagAccessorySlot *>
  00015	83 c4 10	 add	 esp, 16			; 00000010H

; 2641 : 	}

  00018	c9		 leave
  00019	c3		 ret	 0
??$_Move_backward@PAUtagAccessorySlot@@PAU1@@std@@YAPAUtagAccessorySlot@@PAU1@00@Z ENDP ; std::_Move_backward<tagAccessorySlot *,tagAccessorySlot *>
_TEXT	ENDS
PUBLIC	??$_Push_heap@PAUtagAccessorySlot@@HU1@VAccessorySlotSort@@@std@@YAXPAUtagAccessorySlot@@HH$$QAU1@VAccessorySlotSort@@@Z ; std::_Push_heap<tagAccessorySlot *,int,tagAccessorySlot,AccessorySlotSort>
; Function compile flags: /Ogsp
; File c:\program files (x86)\microsoft visual studio 10.0\vc\include\algorithm
;	COMDAT ??$_Push_heap@PAUtagAccessorySlot@@HU1@VAccessorySlotSort@@@std@@YAXPAUtagAccessorySlot@@HH$$QAU1@VAccessorySlotSort@@@Z
_TEXT	SEGMENT
__First$ = 8						; size = 4
__Hole$ = 12						; size = 4
__Top$ = 16						; size = 4
__Val$ = 20						; size = 4
__Pred$ = 24						; size = 1
??$_Push_heap@PAUtagAccessorySlot@@HU1@VAccessorySlotSort@@@std@@YAXPAUtagAccessorySlot@@HH$$QAU1@VAccessorySlotSort@@@Z PROC ; std::_Push_heap<tagAccessorySlot *,int,tagAccessorySlot,AccessorySlotSort>, COMDAT

; 2455 : 	{	// percolate _Hole to _Top or where _Val belongs, using operator<

  00000	55		 push	 ebp
  00001	8b ec		 mov	 ebp, esp
  00003	56		 push	 esi
  00004	57		 push	 edi

; 2456 : 	for (_Diff _Idx = (_Hole - 1) / 2;

  00005	8b 7d 0c	 mov	 edi, DWORD PTR __Hole$[ebp]
  00008	8d 47 ff	 lea	 eax, DWORD PTR [edi-1]
  0000b	99		 cdq
  0000c	2b c2		 sub	 eax, edx
  0000e	8b f0		 mov	 esi, eax
  00010	d1 fe		 sar	 esi, 1

; 2457 : 		_Top < _Hole && _DEBUG_LT_PRED(_Pred, *(_First + _Idx), _Val);
; 2458 : 		_Idx = (_Hole - 1) / 2)

  00012	39 7d 10	 cmp	 DWORD PTR __Top$[ebp], edi
  00015	7d 39		 jge	 SHORT $LN1@Push_heap
  00017	53		 push	 ebx
$LL3@Push_heap:
  00018	ff 75 14	 push	 DWORD PTR __Val$[ebp]
  0001b	8b de		 mov	 ebx, esi
  0001d	6b db 44	 imul	 ebx, 68			; 00000044H
  00020	03 5d 08	 add	 ebx, DWORD PTR __First$[ebp]
  00023	8d 4d 18	 lea	 ecx, DWORD PTR __Pred$[ebp]
  00026	53		 push	 ebx
  00027	e8 00 00 00 00	 call	 ??RAccessorySlotSort@@QBE_NABUtagAccessorySlot@@0@Z ; AccessorySlotSort::operator()
  0002c	84 c0		 test	 al, al
  0002e	74 1f		 je	 SHORT $LN12@Push_heap

; 2459 : 		{	// move _Hole up to parent
; 2460 : 		*(_First + _Hole) = _Move(*(_First + _Idx));

  00030	8b cf		 mov	 ecx, edi
  00032	6b c9 44	 imul	 ecx, 68			; 00000044H
  00035	03 4d 08	 add	 ecx, DWORD PTR __First$[ebp]
  00038	53		 push	 ebx
  00039	e8 00 00 00 00	 call	 ??4tagAccessorySlot@@QAEAAU0@ABU0@@Z
  0003e	8d 46 ff	 lea	 eax, DWORD PTR [esi-1]
  00041	99		 cdq
  00042	2b c2		 sub	 eax, edx

; 2461 : 		_Hole = _Idx;

  00044	8b fe		 mov	 edi, esi
  00046	d1 f8		 sar	 eax, 1
  00048	8b f0		 mov	 esi, eax
  0004a	39 7d 10	 cmp	 DWORD PTR __Top$[ebp], edi
  0004d	7c c9		 jl	 SHORT $LL3@Push_heap
$LN12@Push_heap:
  0004f	5b		 pop	 ebx
$LN1@Push_heap:

; 2462 : 		}
; 2463 : 
; 2464 : 	*(_First + _Hole) = _Move(_Val);	// drop _Val into final hole

  00050	ff 75 14	 push	 DWORD PTR __Val$[ebp]
  00053	8b cf		 mov	 ecx, edi
  00055	6b c9 44	 imul	 ecx, 68			; 00000044H
  00058	03 4d 08	 add	 ecx, DWORD PTR __First$[ebp]
  0005b	e8 00 00 00 00	 call	 ??4tagAccessorySlot@@QAEAAU0@ABU0@@Z
  00060	5f		 pop	 edi
  00061	5e		 pop	 esi

; 2465 : 	}

  00062	5d		 pop	 ebp
  00063	c3		 ret	 0
??$_Push_heap@PAUtagAccessorySlot@@HU1@VAccessorySlotSort@@@std@@YAXPAUtagAccessorySlot@@HH$$QAU1@VAccessorySlotSort@@@Z ENDP ; std::_Push_heap<tagAccessorySlot *,int,tagAccessorySlot,AccessorySlotSort>
_TEXT	ENDS
PUBLIC	??0tagAccessorySlot@@QAE@XZ			; tagAccessorySlot::tagAccessorySlot
EXTRN	__imp_??0ioHashString@@QAE@XZ:PROC
;	COMDAT xdata$x
; File d:\lost saga for developer\youtube\tutorial\source\src\lsclient\accessoryenumtype.h
xdata$x	SEGMENT
__unwindtable$??0tagAccessorySlot@@QAE@XZ DD 0ffffffffH
	DD	FLAT:__unwindfunclet$??0tagAccessorySlot@@QAE@XZ$0
	DD	00H
	DD	FLAT:__unwindfunclet$??0tagAccessorySlot@@QAE@XZ$1
__ehfuncinfo$??0tagAccessorySlot@@QAE@XZ DD 019930522H
	DD	02H
	DD	FLAT:__unwindtable$??0tagAccessorySlot@@QAE@XZ
	DD	2 DUP(00H)
	DD	2 DUP(00H)
	DD	00H
	DD	01H
; Function compile flags: /Ogsp
xdata$x	ENDS
;	COMDAT ??0tagAccessorySlot@@QAE@XZ
_TEXT	SEGMENT
_this$ = -16						; size = 4
__$EHRec$ = -12						; size = 12
??0tagAccessorySlot@@QAE@XZ PROC			; tagAccessorySlot::tagAccessorySlot, COMDAT
; _this$ = ecx

; 209  : 	tagAccessorySlot()

  00000	6a 04		 push	 4
  00002	b8 00 00 00 00	 mov	 eax, __ehhandler$??0tagAccessorySlot@@QAE@XZ
  00007	e8 00 00 00 00	 call	 __EH_prolog3
  0000c	8b f1		 mov	 esi, ecx
  0000e	89 75 f0	 mov	 DWORD PTR _this$[ebp], esi
  00011	8b 3d 00 00 00
	00		 mov	 edi, DWORD PTR __imp_??0ioHashString@@QAE@XZ
  00017	8d 4e 24	 lea	 ecx, DWORD PTR [esi+36]
  0001a	ff d7		 call	 edi
  0001c	83 65 fc 00	 and	 DWORD PTR __$EHRec$[ebp+8], 0
  00020	8d 4e 34	 lea	 ecx, DWORD PTR [esi+52]
  00023	ff d7		 call	 edi

; 210  : 	{
; 211  : 		Init();

  00025	8b ce		 mov	 ecx, esi
  00027	c6 45 fc 01	 mov	 BYTE PTR __$EHRec$[ebp+8], 1
  0002b	e8 00 00 00 00	 call	 ?Init@tagAccessorySlot@@QAEXXZ ; tagAccessorySlot::Init

; 212  : 	}

  00030	8b c6		 mov	 eax, esi
  00032	e8 00 00 00 00	 call	 __EH_epilog3
  00037	c3		 ret	 0
_TEXT	ENDS
;	COMDAT text$x
text$x	SEGMENT
__unwindfunclet$??0tagAccessorySlot@@QAE@XZ$0:
  00000	8b 4d f0	 mov	 ecx, DWORD PTR _this$[ebp]
  00003	83 c1 24	 add	 ecx, 36			; 00000024H
  00006	ff 25 00 00 00
	00		 jmp	 DWORD PTR __imp_??1ioHashString@@QAE@XZ
__unwindfunclet$??0tagAccessorySlot@@QAE@XZ$1:
  0000c	8b 4d f0	 mov	 ecx, DWORD PTR _this$[ebp]
  0000f	83 c1 34	 add	 ecx, 52			; 00000034H
  00012	ff 25 00 00 00
	00		 jmp	 DWORD PTR __imp_??1ioHashString@@QAE@XZ
__ehhandler$??0tagAccessorySlot@@QAE@XZ:
  00018	8b 54 24 08	 mov	 edx, DWORD PTR [esp+8]
  0001c	8d 42 0c	 lea	 eax, DWORD PTR [edx+12]
  0001f	8b 4a ec	 mov	 ecx, DWORD PTR [edx-20]
  00022	33 c8		 xor	 ecx, eax
  00024	e8 00 00 00 00	 call	 @__security_check_cookie@4
  00029	b8 00 00 00 00	 mov	 eax, OFFSET __ehfuncinfo$??0tagAccessorySlot@@QAE@XZ
  0002e	e9 00 00 00 00	 jmp	 ___CxxFrameHandler3
text$x	ENDS
??0tagAccessorySlot@@QAE@XZ ENDP			; tagAccessorySlot::tagAccessorySlot
PUBLIC	??_C@_0BM@HPLACCCG@ioUserAccessory?3?3GetUseInfo?$AA@ ; `string'
PUBLIC	??_C@_00CNPNBAHC@?$AA@				; `string'
PUBLIC	?GetUseInfo@ioUserAccessory@@QAEXHAAVioHashString@@@Z ; ioUserAccessory::GetUseInfo
EXTRN	__imp_??4ioHashString@@QAEAAV0@PBD@Z:PROC
EXTRN	?GetRemainTime@Help@@YAXHHHHHPADH@Z:PROC	; Help::GetRemainTime
EXTRN	__imp_?SafeSprintf@@YAXPADHPBDZZ:PROC
EXTRN	__imp_?GetString@ioStringManager@@QAEPADPBD0HW4FileNamePrefix@1@@Z:PROC
EXTRN	__imp_?GetSingleton@ioStringManager@@SAAAV1@XZ:PROC
EXTRN	__EH_epilog3_GS:PROC
EXTRN	__EH_prolog3_GS:PROC
EXTRN	_memset:PROC
;	COMDAT ??_C@_0BM@HPLACCCG@ioUserAccessory?3?3GetUseInfo?$AA@
CONST	SEGMENT
??_C@_0BM@HPLACCCG@ioUserAccessory?3?3GetUseInfo?$AA@ DB 'ioUserAccessory'
	DB	'::GetUseInfo', 00H				; `string'
CONST	ENDS
;	COMDAT ??_C@_00CNPNBAHC@?$AA@
CONST	SEGMENT
??_C@_00CNPNBAHC@?$AA@ DB 00H				; `string'
CONST	ENDS
;	COMDAT xdata$x
xdata$x	SEGMENT
__unwindtable$?GetUseInfo@ioUserAccessory@@QAEXHAAVioHashString@@@Z DD 0ffffffffH
	DD	FLAT:__unwindfunclet$?GetUseInfo@ioUserAccessory@@QAEXHAAVioHashString@@@Z$0
__ehfuncinfo$?GetUseInfo@ioUserAccessory@@QAEXHAAVioHashString@@@Z DD 019930522H
	DD	01H
	DD	FLAT:__unwindtable$?GetUseInfo@ioUserAccessory@@QAEXHAAVioHashString@@@Z
	DD	2 DUP(00H)
	DD	2 DUP(00H)
	DD	00H
	DD	01H
; Function compile flags: /Ogsp
; File d:\lost saga for developer\youtube\tutorial\source\src\lsclient\iouseraccessory.cpp
xdata$x	ENDS
;	COMDAT ?GetUseInfo@ioUserAccessory@@QAEXHAAVioHashString@@@Z
_TEXT	SEGMENT
_kSlot$ = -344						; size = 68
_szText$ = -276						; size = 260
__$EHRec$ = -12						; size = 12
_iSlotIndex$ = 8					; size = 4
_rsInfo$ = 12						; size = 4
?GetUseInfo@ioUserAccessory@@QAEXHAAVioHashString@@@Z PROC ; ioUserAccessory::GetUseInfo, COMDAT
; _this$ = ecx

; 97   : {

  00000	68 4c 01 00 00	 push	 332			; 0000014cH
  00005	b8 00 00 00 00	 mov	 eax, __ehhandler$?GetUseInfo@ioUserAccessory@@QAEXHAAVioHashString@@@Z
  0000a	e8 00 00 00 00	 call	 __EH_prolog3_GS
  0000f	8b 7d 0c	 mov	 edi, DWORD PTR _rsInfo$[ebp]
  00012	8b f1		 mov	 esi, ecx

; 98   : 	AccessorySlot kSlot;

  00014	8d 8d a8 fe ff
	ff		 lea	 ecx, DWORD PTR _kSlot$[ebp]
  0001a	e8 00 00 00 00	 call	 ??0tagAccessorySlot@@QAE@XZ ; tagAccessorySlot::tagAccessorySlot

; 99   : 	if( !GetAccessorySlot( iSlotIndex, kSlot ) )

  0001f	8d 85 a8 fe ff
	ff		 lea	 eax, DWORD PTR _kSlot$[ebp]
  00025	50		 push	 eax
  00026	ff 75 08	 push	 DWORD PTR _iSlotIndex$[ebp]
  00029	33 db		 xor	 ebx, ebx
  0002b	8b ce		 mov	 ecx, esi
  0002d	89 5d fc	 mov	 DWORD PTR __$EHRec$[ebp+8], ebx
  00030	e8 00 00 00 00	 call	 ?GetAccessorySlot@ioUserAccessory@@QAE_NHAAUtagAccessorySlot@@@Z ; ioUserAccessory::GetAccessorySlot
  00035	84 c0		 test	 al, al

; 100  : 		return;

  00037	0f 84 bc 00 00
	00		 je	 $LN18@GetUseInfo

; 101  : 
; 102  : 	char szText[MAX_PATH]="";

  0003d	68 03 01 00 00	 push	 259			; 00000103H
  00042	8d 85 ed fe ff
	ff		 lea	 eax, DWORD PTR _szText$[ebp+1]
  00048	53		 push	 ebx
  00049	50		 push	 eax
  0004a	88 9d ec fe ff
	ff		 mov	 BYTE PTR _szText$[ebp], bl
  00050	e8 00 00 00 00	 call	 _memset
  00055	83 c4 0c	 add	 esp, 12			; 0000000cH

; 103  : 	if( kSlot.m_PeriodType == ACCPT_MORTMAIN )

  00058	80 bd b4 fe ff
	ff 01		 cmp	 BYTE PTR _kSlot$[ebp+12], 1
  0005f	75 33		 jne	 SHORT $LN2@GetUseInfo

; 104  : 		SafeSprintf( szText, sizeof( szText ), STR(1) );

  00061	53		 push	 ebx
  00062	6a 01		 push	 1
  00064	68 00 00 00 00	 push	 OFFSET ??_C@_00CNPNBAHC@?$AA@
  00069	68 00 00 00 00	 push	 OFFSET ??_C@_0BM@HPLACCCG@ioUserAccessory?3?3GetUseInfo?$AA@
  0006e	ff 15 00 00 00
	00		 call	 DWORD PTR __imp_?GetSingleton@ioStringManager@@SAAAV1@XZ
  00074	8b c8		 mov	 ecx, eax
  00076	ff 15 00 00 00
	00		 call	 DWORD PTR __imp_?GetString@ioStringManager@@QAEPADPBD0HW4FileNamePrefix@1@@Z
  0007c	50		 push	 eax
  0007d	8d 85 ec fe ff
	ff		 lea	 eax, DWORD PTR _szText$[ebp]
  00083	68 04 01 00 00	 push	 260			; 00000104H
  00088	50		 push	 eax
  00089	ff 15 00 00 00
	00		 call	 DWORD PTR __imp_?SafeSprintf@@YAXPADHPBDZZ
  0008f	83 c4 0c	 add	 esp, 12			; 0000000cH

; 105  : 	else 

  00092	eb 56		 jmp	 SHORT $LN1@GetUseInfo
$LN2@GetUseInfo:

; 106  : 		Help::GetRemainTime( kSlot.GetYear(), kSlot.GetMonth(), kSlot.GetDay(), kSlot.GetHour(), kSlot.GetMinute(), szText, sizeof( szText ) );

  00094	8b 85 bc fe ff
	ff		 mov	 eax, DWORD PTR _kSlot$[ebp+20]
  0009a	6a 64		 push	 100			; 00000064H
  0009c	99		 cdq
  0009d	59		 pop	 ecx
  0009e	f7 f9		 idiv	 ecx
  000a0	6a 64		 push	 100			; 00000064H
  000a2	5b		 pop	 ebx
  000a3	68 04 01 00 00	 push	 260			; 00000104H
  000a8	8b f0		 mov	 esi, eax
  000aa	8b 85 b8 fe ff
	ff		 mov	 eax, DWORD PTR _kSlot$[ebp+16]
  000b0	8b ca		 mov	 ecx, edx
  000b2	99		 cdq
  000b3	f7 fb		 idiv	 ebx
  000b5	0f bf c9	 movsx	 ecx, cx
  000b8	8d 9d ec fe ff
	ff		 lea	 ebx, DWORD PTR _szText$[ebp]
  000be	53		 push	 ebx
  000bf	51		 push	 ecx
  000c0	0f bf ce	 movsx	 ecx, si
  000c3	51		 push	 ecx
  000c4	0f bf ca	 movsx	 ecx, dx
  000c7	51		 push	 ecx
  000c8	99		 cdq
  000c9	6a 64		 push	 100			; 00000064H
  000cb	59		 pop	 ecx
  000cc	f7 f9		 idiv	 ecx
  000ce	b9 10 27 00 00	 mov	 ecx, 10000		; 00002710H
  000d3	0f bf c2	 movsx	 eax, dx
  000d6	50		 push	 eax
  000d7	8b 85 b8 fe ff
	ff		 mov	 eax, DWORD PTR _kSlot$[ebp+16]
  000dd	99		 cdq
  000de	f7 f9		 idiv	 ecx
  000e0	98		 cwde
  000e1	50		 push	 eax
  000e2	e8 00 00 00 00	 call	 ?GetRemainTime@Help@@YAXHHHHHPADH@Z ; Help::GetRemainTime
  000e7	83 c4 1c	 add	 esp, 28			; 0000001cH
$LN1@GetUseInfo:

; 107  : 
; 108  : 	rsInfo = szText;

  000ea	8d 85 ec fe ff
	ff		 lea	 eax, DWORD PTR _szText$[ebp]
  000f0	50		 push	 eax
  000f1	8b cf		 mov	 ecx, edi
  000f3	ff 15 00 00 00
	00		 call	 DWORD PTR __imp_??4ioHashString@@QAEAAV0@PBD@Z
$LN18@GetUseInfo:

; 109  : }

  000f9	83 4d fc ff	 or	 DWORD PTR __$EHRec$[ebp+8], -1
  000fd	8d 8d a8 fe ff
	ff		 lea	 ecx, DWORD PTR _kSlot$[ebp]
  00103	e8 00 00 00 00	 call	 ??1tagAccessorySlot@@QAE@XZ
  00108	e8 00 00 00 00	 call	 __EH_epilog3_GS
  0010d	c2 08 00	 ret	 8
_TEXT	ENDS
;	COMDAT text$x
text$x	SEGMENT
__unwindfunclet$?GetUseInfo@ioUserAccessory@@QAEXHAAVioHashString@@@Z$0:
  00000	8d 8d a8 fe ff
	ff		 lea	 ecx, DWORD PTR _kSlot$[ebp]
  00006	e9 00 00 00 00	 jmp	 ??1tagAccessorySlot@@QAE@XZ
__ehhandler$?GetUseInfo@ioUserAccessory@@QAEXHAAVioHashString@@@Z:
  0000b	8b 54 24 08	 mov	 edx, DWORD PTR [esp+8]
  0000f	8d 42 0c	 lea	 eax, DWORD PTR [edx+12]
  00012	8b 8a a4 fe ff
	ff		 mov	 ecx, DWORD PTR [edx-348]
  00018	33 c8		 xor	 ecx, eax
  0001a	e8 00 00 00 00	 call	 @__security_check_cookie@4
  0001f	8b 4a fc	 mov	 ecx, DWORD PTR [edx-4]
  00022	33 c8		 xor	 ecx, eax
  00024	e8 00 00 00 00	 call	 @__security_check_cookie@4
  00029	b8 00 00 00 00	 mov	 eax, OFFSET __ehfuncinfo$?GetUseInfo@ioUserAccessory@@QAEXHAAVioHashString@@@Z
  0002e	e9 00 00 00 00	 jmp	 ___CxxFrameHandler3
text$x	ENDS
?GetUseInfo@ioUserAccessory@@QAEXHAAVioHashString@@@Z ENDP ; ioUserAccessory::GetUseInfo
PUBLIC	??0?$vector@UtagAccessorySlot@@V?$allocator@UtagAccessorySlot@@@std@@@std@@QAE@XZ ; std::vector<tagAccessorySlot,std::allocator<tagAccessorySlot> >::vector<tagAccessorySlot,std::allocator<tagAccessorySlot> >
; Function compile flags: /Ogsp
; File c:\program files (x86)\microsoft visual studio 10.0\vc\include\vector
;	COMDAT ??0?$vector@UtagAccessorySlot@@V?$allocator@UtagAccessorySlot@@@std@@@std@@QAE@XZ
_TEXT	SEGMENT
??0?$vector@UtagAccessorySlot@@V?$allocator@UtagAccessorySlot@@@std@@@std@@QAE@XZ PROC ; std::vector<tagAccessorySlot,std::allocator<tagAccessorySlot> >::vector<tagAccessorySlot,std::allocator<tagAccessorySlot> >, COMDAT
; _this$ = ecx

; 507  : 		{	// construct empty vector

  00000	8b c1		 mov	 eax, ecx
  00002	33 c9		 xor	 ecx, ecx
  00004	89 08		 mov	 DWORD PTR [eax], ecx
  00006	89 48 04	 mov	 DWORD PTR [eax+4], ecx
  00009	89 48 08	 mov	 DWORD PTR [eax+8], ecx

; 508  : 		}

  0000c	c3		 ret	 0
??0?$vector@UtagAccessorySlot@@V?$allocator@UtagAccessorySlot@@@std@@@std@@QAE@XZ ENDP ; std::vector<tagAccessorySlot,std::allocator<tagAccessorySlot> >::vector<tagAccessorySlot,std::allocator<tagAccessorySlot> >
_TEXT	ENDS
PUBLIC	??C?$_Vector_iterator@V?$_Vector_val@UtagAccessorySlot@@V?$allocator@UtagAccessorySlot@@@std@@@std@@@std@@QBEPAUtagAccessorySlot@@XZ ; std::_Vector_iterator<std::_Vector_val<tagAccessorySlot,std::allocator<tagAccessorySlot> > >::operator->
; Function compile flags: /Ogsp
;	COMDAT ??C?$_Vector_iterator@V?$_Vector_val@UtagAccessorySlot@@V?$allocator@UtagAccessorySlot@@@std@@@std@@@std@@QBEPAUtagAccessorySlot@@XZ
_TEXT	SEGMENT
??C?$_Vector_iterator@V?$_Vector_val@UtagAccessorySlot@@V?$allocator@UtagAccessorySlot@@@std@@@std@@@std@@QBEPAUtagAccessorySlot@@XZ PROC ; std::_Vector_iterator<std::_Vector_val<tagAccessorySlot,std::allocator<tagAccessorySlot> > >::operator->, COMDAT
; _this$ = ecx

; 327  : 		return (&**this);

  00000	8b 01		 mov	 eax, DWORD PTR [ecx]

; 328  : 		}

  00002	c3		 ret	 0
??C?$_Vector_iterator@V?$_Vector_val@UtagAccessorySlot@@V?$allocator@UtagAccessorySlot@@@std@@@std@@@std@@QBEPAUtagAccessorySlot@@XZ ENDP ; std::_Vector_iterator<std::_Vector_val<tagAccessorySlot,std::allocator<tagAccessorySlot> > >::operator->
_TEXT	ENDS
PUBLIC	??9?$_Vector_const_iterator@V?$_Vector_val@UtagAccessorySlot@@V?$allocator@UtagAccessorySlot@@@std@@@std@@@std@@QBE_NABV01@@Z ; std::_Vector_const_iterator<std::_Vector_val<tagAccessorySlot,std::allocator<tagAccessorySlot> > >::operator!=
; Function compile flags: /Ogsp
;	COMDAT ??9?$_Vector_const_iterator@V?$_Vector_val@UtagAccessorySlot@@V?$allocator@UtagAccessorySlot@@@std@@@std@@@std@@QBE_NABV01@@Z
_TEXT	SEGMENT
__Right$ = 8						; size = 4
??9?$_Vector_const_iterator@V?$_Vector_val@UtagAccessorySlot@@V?$allocator@UtagAccessorySlot@@@std@@@std@@@std@@QBE_NABV01@@Z PROC ; std::_Vector_const_iterator<std::_Vector_val<tagAccessorySlot,std::allocator<tagAccessorySlot> > >::operator!=, COMDAT
; _this$ = ecx

; 207  : 		{	// test for iterator inequality

  00000	55		 push	 ebp
  00001	8b ec		 mov	 ebp, esp

; 208  : 		return (!(*this == _Right));

  00003	8b 01		 mov	 eax, DWORD PTR [ecx]
  00005	8b 55 08	 mov	 edx, DWORD PTR __Right$[ebp]
  00008	33 c9		 xor	 ecx, ecx
  0000a	3b 02		 cmp	 eax, DWORD PTR [edx]
  0000c	0f 95 c0	 setne	 al

; 209  : 		}

  0000f	5d		 pop	 ebp
  00010	c2 04 00	 ret	 4
??9?$_Vector_const_iterator@V?$_Vector_val@UtagAccessorySlot@@V?$allocator@UtagAccessorySlot@@@std@@@std@@@std@@QBE_NABV01@@Z ENDP ; std::_Vector_const_iterator<std::_Vector_val<tagAccessorySlot,std::allocator<tagAccessorySlot> > >::operator!=
_TEXT	ENDS
PUBLIC	??0?$_Vector_iterator@V?$_Vector_val@UtagAccessorySlot@@V?$allocator@UtagAccessorySlot@@@std@@@std@@@std@@QAE@PAUtagAccessorySlot@@PBU_Container_base0@1@@Z ; std::_Vector_iterator<std::_Vector_val<tagAccessorySlot,std::allocator<tagAccessorySlot> > >::_Vector_iterator<std::_Vector_val<tagAccessorySlot,std::allocator<tagAccessorySlot> > >
; Function compile flags: /Ogsp
;	COMDAT ??0?$_Vector_iterator@V?$_Vector_val@UtagAccessorySlot@@V?$allocator@UtagAccessorySlot@@@std@@@std@@@std@@QAE@PAUtagAccessorySlot@@PBU_Container_base0@1@@Z
_TEXT	SEGMENT
__Parg$ = 8						; size = 4
__Pvector$ = 12						; size = 4
??0?$_Vector_iterator@V?$_Vector_val@UtagAccessorySlot@@V?$allocator@UtagAccessorySlot@@@std@@@std@@@std@@QAE@PAUtagAccessorySlot@@PBU_Container_base0@1@@Z PROC ; std::_Vector_iterator<std::_Vector_val<tagAccessorySlot,std::allocator<tagAccessorySlot> > >::_Vector_iterator<std::_Vector_val<tagAccessorySlot,std::allocator<tagAccessorySlot> > >, COMDAT
; _this$ = ecx

; 304  : 		{	// construct with pointer _Parg

  00000	55		 push	 ebp
  00001	8b ec		 mov	 ebp, esp
  00003	8b c1		 mov	 eax, ecx
  00005	8b 4d 08	 mov	 ecx, DWORD PTR __Parg$[ebp]
  00008	89 08		 mov	 DWORD PTR [eax], ecx

; 305  : 		}

  0000a	5d		 pop	 ebp
  0000b	c2 08 00	 ret	 8
??0?$_Vector_iterator@V?$_Vector_val@UtagAccessorySlot@@V?$allocator@UtagAccessorySlot@@@std@@@std@@@std@@QAE@PAUtagAccessorySlot@@PBU_Container_base0@1@@Z ENDP ; std::_Vector_iterator<std::_Vector_val<tagAccessorySlot,std::allocator<tagAccessorySlot> > >::_Vector_iterator<std::_Vector_val<tagAccessorySlot,std::allocator<tagAccessorySlot> > >
_TEXT	ENDS
PUBLIC	??$_Cons_val@V?$allocator@UtagAccessorySlot@@@std@@UtagAccessorySlot@@AAU3@@std@@YAXAAV?$allocator@UtagAccessorySlot@@@0@PAUtagAccessorySlot@@AAU2@@Z ; std::_Cons_val<std::allocator<tagAccessorySlot>,tagAccessorySlot,tagAccessorySlot &>
;	COMDAT xdata$x
; File c:\program files (x86)\microsoft visual studio 10.0\vc\include\utility
xdata$x	SEGMENT
__unwindtable$??$_Cons_val@V?$allocator@UtagAccessorySlot@@@std@@UtagAccessorySlot@@AAU3@@std@@YAXAAV?$allocator@UtagAccessorySlot@@@0@PAUtagAccessorySlot@@AAU2@@Z DD 0ffffffffH
	DD	FLAT:__unwindfunclet$??$_Cons_val@V?$allocator@UtagAccessorySlot@@@std@@UtagAccessorySlot@@AAU3@@std@@YAXAAV?$allocator@UtagAccessorySlot@@@0@PAUtagAccessorySlot@@AAU2@@Z$0
__ehfuncinfo$??$_Cons_val@V?$allocator@UtagAccessorySlot@@@std@@UtagAccessorySlot@@AAU3@@std@@YAXAAV?$allocator@UtagAccessorySlot@@@0@PAUtagAccessorySlot@@AAU2@@Z DD 019930522H
	DD	01H
	DD	FLAT:__unwindtable$??$_Cons_val@V?$allocator@UtagAccessorySlot@@@std@@UtagAccessorySlot@@AAU3@@std@@YAXAAV?$allocator@UtagAccessorySlot@@@0@PAUtagAccessorySlot@@AAU2@@Z
	DD	2 DUP(00H)
	DD	2 DUP(00H)
	DD	00H
	DD	01H
; Function compile flags: /Ogsp
; File c:\program files (x86)\microsoft visual studio 10.0\vc\include\xmemory
xdata$x	ENDS
;	COMDAT ??$_Cons_val@V?$allocator@UtagAccessorySlot@@@std@@UtagAccessorySlot@@AAU3@@std@@YAXAAV?$allocator@UtagAccessorySlot@@@0@PAUtagAccessorySlot@@AAU2@@Z
_TEXT	SEGMENT
$T507310 = -16						; size = 4
__$EHRec$ = -12						; size = 12
__Alval$ = 8						; size = 4
__Pdest$ = 12						; size = 4
__Src$ = 16						; size = 4
??$_Cons_val@V?$allocator@UtagAccessorySlot@@@std@@UtagAccessorySlot@@AAU3@@std@@YAXAAV?$allocator@UtagAccessorySlot@@@0@PAUtagAccessorySlot@@AAU2@@Z PROC ; std::_Cons_val<std::allocator<tagAccessorySlot>,tagAccessorySlot,tagAccessorySlot &>, COMDAT

; 279  : 	{	// construct using allocator

  00000	6a 04		 push	 4
  00002	b8 00 00 00 00	 mov	 eax, __ehhandler$??$_Cons_val@V?$allocator@UtagAccessorySlot@@@std@@UtagAccessorySlot@@AAU3@@std@@YAXAAV?$allocator@UtagAccessorySlot@@@0@PAUtagAccessorySlot@@AAU2@@Z
  00007	e8 00 00 00 00	 call	 __EH_prolog3

; 280  : 	_Alval.construct(_Pdest, _STD forward<_Ty2>(_Src));

  0000c	8b 4d 0c	 mov	 ecx, DWORD PTR __Pdest$[ebp]
  0000f	89 4d f0	 mov	 DWORD PTR $T507310[ebp], ecx
  00012	83 65 fc 00	 and	 DWORD PTR __$EHRec$[ebp+8], 0
  00016	85 c9		 test	 ecx, ecx
  00018	74 08		 je	 SHORT $LN7@Cons_val
  0001a	ff 75 10	 push	 DWORD PTR __Src$[ebp]
  0001d	e8 00 00 00 00	 call	 ??0tagAccessorySlot@@QAE@ABU0@@Z
$LN7@Cons_val:

; 281  : 	}

  00022	e8 00 00 00 00	 call	 __EH_epilog3
  00027	c3		 ret	 0
_TEXT	ENDS
;	COMDAT text$x
text$x	SEGMENT
__unwindfunclet$??$_Cons_val@V?$allocator@UtagAccessorySlot@@@std@@UtagAccessorySlot@@AAU3@@std@@YAXAAV?$allocator@UtagAccessorySlot@@@0@PAUtagAccessorySlot@@AAU2@@Z$0:
  00000	ff 75 0c	 push	 DWORD PTR __Pdest$[ebp]
  00003	ff 75 f0	 push	 DWORD PTR $T507310[ebp]
  00006	e8 00 00 00 00	 call	 ??3@YAXPAX0@Z		; operator delete
  0000b	59		 pop	 ecx
  0000c	59		 pop	 ecx
  0000d	c3		 ret	 0
__ehhandler$??$_Cons_val@V?$allocator@UtagAccessorySlot@@@std@@UtagAccessorySlot@@AAU3@@std@@YAXAAV?$allocator@UtagAccessorySlot@@@0@PAUtagAccessorySlot@@AAU2@@Z:
  0000e	8b 54 24 08	 mov	 edx, DWORD PTR [esp+8]
  00012	8d 42 0c	 lea	 eax, DWORD PTR [edx+12]
  00015	8b 4a ec	 mov	 ecx, DWORD PTR [edx-20]
  00018	33 c8		 xor	 ecx, eax
  0001a	e8 00 00 00 00	 call	 @__security_check_cookie@4
  0001f	b8 00 00 00 00	 mov	 eax, OFFSET __ehfuncinfo$??$_Cons_val@V?$allocator@UtagAccessorySlot@@@std@@UtagAccessorySlot@@AAU3@@std@@YAXAAV?$allocator@UtagAccessorySlot@@@0@PAUtagAccessorySlot@@AAU2@@Z
  00024	e9 00 00 00 00	 jmp	 ___CxxFrameHandler3
text$x	ENDS
??$_Cons_val@V?$allocator@UtagAccessorySlot@@@std@@UtagAccessorySlot@@AAU3@@std@@YAXAAV?$allocator@UtagAccessorySlot@@@0@PAUtagAccessorySlot@@AAU2@@Z ENDP ; std::_Cons_val<std::allocator<tagAccessorySlot>,tagAccessorySlot,tagAccessorySlot &>
PUBLIC	??$_Cons_val@V?$allocator@UtagAccessorySlot@@@std@@UtagAccessorySlot@@ABU3@@std@@YAXAAV?$allocator@UtagAccessorySlot@@@0@PAUtagAccessorySlot@@ABU2@@Z ; std::_Cons_val<std::allocator<tagAccessorySlot>,tagAccessorySlot,tagAccessorySlot const &>
; Function compile flags: /Ogsp
;	COMDAT ??$_Cons_val@V?$allocator@UtagAccessorySlot@@@std@@UtagAccessorySlot@@ABU3@@std@@YAXAAV?$allocator@UtagAccessorySlot@@@0@PAUtagAccessorySlot@@ABU2@@Z
_TEXT	SEGMENT
__Alval$ = 8						; size = 4
__Pdest$ = 12						; size = 4
__Src$ = 16						; size = 4
??$_Cons_val@V?$allocator@UtagAccessorySlot@@@std@@UtagAccessorySlot@@ABU3@@std@@YAXAAV?$allocator@UtagAccessorySlot@@@0@PAUtagAccessorySlot@@ABU2@@Z PROC ; std::_Cons_val<std::allocator<tagAccessorySlot>,tagAccessorySlot,tagAccessorySlot const &>, COMDAT

; 279  : 	{	// construct using allocator

  00000	55		 push	 ebp
  00001	8b ec		 mov	 ebp, esp

; 280  : 	_Alval.construct(_Pdest, _STD forward<_Ty2>(_Src));

  00003	ff 75 10	 push	 DWORD PTR __Src$[ebp]
  00006	ff 75 0c	 push	 DWORD PTR __Pdest$[ebp]
  00009	e8 00 00 00 00	 call	 ??$_Construct@UtagAccessorySlot@@ABU1@@std@@YAXPAUtagAccessorySlot@@ABU1@@Z ; std::_Construct<tagAccessorySlot,tagAccessorySlot const &>
  0000e	59		 pop	 ecx
  0000f	59		 pop	 ecx

; 281  : 	}

  00010	5d		 pop	 ebp
  00011	c3		 ret	 0
??$_Cons_val@V?$allocator@UtagAccessorySlot@@@std@@UtagAccessorySlot@@ABU3@@std@@YAXAAV?$allocator@UtagAccessorySlot@@@0@PAUtagAccessorySlot@@ABU2@@Z ENDP ; std::_Cons_val<std::allocator<tagAccessorySlot>,tagAccessorySlot,tagAccessorySlot const &>
_TEXT	ENDS
PUBLIC	??$_Move@PAUtagAccessorySlot@@PAU1@@std@@YAPAUtagAccessorySlot@@PAU1@00@Z ; std::_Move<tagAccessorySlot *,tagAccessorySlot *>
; Function compile flags: /Ogsp
; File c:\program files (x86)\microsoft visual studio 10.0\vc\include\xutility
;	COMDAT ??$_Move@PAUtagAccessorySlot@@PAU1@@std@@YAPAUtagAccessorySlot@@PAU1@00@Z
_TEXT	SEGMENT
__Cat$507336 = -4					; size = 1
__First$ = 8						; size = 4
__Last$ = 12						; size = 4
__Dest$ = 16						; size = 4
??$_Move@PAUtagAccessorySlot@@PAU1@@std@@YAPAUtagAccessorySlot@@PAU1@00@Z PROC ; std::_Move<tagAccessorySlot *,tagAccessorySlot *>, COMDAT

; 2533 : 	{	// move [_First, _Last) to [_Dest, ...), unchecked

  00000	55		 push	 ebp
  00001	8b ec		 mov	 ebp, esp
  00003	51		 push	 ecx

; 2534 : 	return (_Move(_First, _Last,
; 2535 : 		_Dest, _Ptr_cat(_First, _Dest)));

  00004	ff 75 fc	 push	 DWORD PTR __Cat$507336[ebp]
  00007	ff 75 10	 push	 DWORD PTR __Dest$[ebp]
  0000a	ff 75 0c	 push	 DWORD PTR __Last$[ebp]
  0000d	ff 75 08	 push	 DWORD PTR __First$[ebp]
  00010	e8 00 00 00 00	 call	 ??$_Move@PAUtagAccessorySlot@@PAU1@@std@@YAPAUtagAccessorySlot@@PAU1@00U_Nonscalar_ptr_iterator_tag@0@@Z ; std::_Move<tagAccessorySlot *,tagAccessorySlot *>
  00015	83 c4 10	 add	 esp, 16			; 00000010H

; 2536 : 	}

  00018	c9		 leave
  00019	c3		 ret	 0
??$_Move@PAUtagAccessorySlot@@PAU1@@std@@YAPAUtagAccessorySlot@@PAU1@00@Z ENDP ; std::_Move<tagAccessorySlot *,tagAccessorySlot *>
_TEXT	ENDS
PUBLIC	?destroy@?$allocator@UtagAccessorySlot@@@std@@QAEXPAUtagAccessorySlot@@@Z ; std::allocator<tagAccessorySlot>::destroy
; Function compile flags: /Ogsp
; File c:\program files (x86)\microsoft visual studio 10.0\vc\include\xmemory
;	COMDAT ?destroy@?$allocator@UtagAccessorySlot@@@std@@QAEXPAUtagAccessorySlot@@@Z
_TEXT	SEGMENT
__Ptr$ = 8						; size = 4
?destroy@?$allocator@UtagAccessorySlot@@@std@@QAEXPAUtagAccessorySlot@@@Z PROC ; std::allocator<tagAccessorySlot>::destroy, COMDAT
; _this$ = ecx

; 212  : 		{	// destroy object at _Ptr

  00000	55		 push	 ebp
  00001	8b ec		 mov	 ebp, esp

; 213  : 		_Destroy(_Ptr);

  00003	8b 4d 08	 mov	 ecx, DWORD PTR __Ptr$[ebp]
  00006	e8 00 00 00 00	 call	 ??1tagAccessorySlot@@QAE@XZ

; 214  : 		}

  0000b	5d		 pop	 ebp
  0000c	c2 04 00	 ret	 4
?destroy@?$allocator@UtagAccessorySlot@@@std@@QAEXPAUtagAccessorySlot@@@Z ENDP ; std::allocator<tagAccessorySlot>::destroy
_TEXT	ENDS
PUBLIC	??$iter_swap@PAUtagAccessorySlot@@PAU1@@std@@YAXPAUtagAccessorySlot@@0@Z ; std::iter_swap<tagAccessorySlot *,tagAccessorySlot *>
; Function compile flags: /Ogsp
; File c:\program files (x86)\microsoft visual studio 10.0\vc\include\xutility
;	COMDAT ??$iter_swap@PAUtagAccessorySlot@@PAU1@@std@@YAXPAUtagAccessorySlot@@0@Z
_TEXT	SEGMENT
__Left$ = 8						; size = 4
__Right$ = 12						; size = 4
??$iter_swap@PAUtagAccessorySlot@@PAU1@@std@@YAXPAUtagAccessorySlot@@0@Z PROC ; std::iter_swap<tagAccessorySlot *,tagAccessorySlot *>, COMDAT

; 2133 : 	{	// swap *_Left and *_Right

  00000	55		 push	 ebp
  00001	8b ec		 mov	 ebp, esp

; 2135 : 	}

  00003	5d		 pop	 ebp

; 2134 : 	swap(*_Left, *_Right);

  00004	e9 00 00 00 00	 jmp	 ??$swap@UtagAccessorySlot@@@std@@YAXAAUtagAccessorySlot@@0@Z ; std::swap<tagAccessorySlot>
??$iter_swap@PAUtagAccessorySlot@@PAU1@@std@@YAXPAUtagAccessorySlot@@0@Z ENDP ; std::iter_swap<tagAccessorySlot *,tagAccessorySlot *>
_TEXT	ENDS
PUBLIC	??$_Insertion_sort1@PAUtagAccessorySlot@@VAccessorySlotSort@@U1@@std@@YAXPAUtagAccessorySlot@@0VAccessorySlotSort@@0@Z ; std::_Insertion_sort1<tagAccessorySlot *,AccessorySlotSort,tagAccessorySlot>
;	COMDAT xdata$x
; File c:\program files (x86)\microsoft visual studio 10.0\vc\include\utility
xdata$x	SEGMENT
__unwindtable$??$_Insertion_sort1@PAUtagAccessorySlot@@VAccessorySlotSort@@U1@@std@@YAXPAUtagAccessorySlot@@0VAccessorySlotSort@@0@Z DD 0ffffffffH
	DD	FLAT:__unwindfunclet$??$_Insertion_sort1@PAUtagAccessorySlot@@VAccessorySlotSort@@U1@@std@@YAXPAUtagAccessorySlot@@0VAccessorySlotSort@@0@Z$0
__ehfuncinfo$??$_Insertion_sort1@PAUtagAccessorySlot@@VAccessorySlotSort@@U1@@std@@YAXPAUtagAccessorySlot@@0VAccessorySlotSort@@0@Z DD 019930522H
	DD	01H
	DD	FLAT:__unwindtable$??$_Insertion_sort1@PAUtagAccessorySlot@@VAccessorySlotSort@@U1@@std@@YAXPAUtagAccessorySlot@@0VAccessorySlotSort@@0@Z
	DD	2 DUP(00H)
	DD	2 DUP(00H)
	DD	00H
	DD	01H
; Function compile flags: /Ogsp
; File c:\program files (x86)\microsoft visual studio 10.0\vc\include\algorithm
xdata$x	ENDS
;	COMDAT ??$_Insertion_sort1@PAUtagAccessorySlot@@VAccessorySlotSort@@U1@@std@@YAXPAUtagAccessorySlot@@0VAccessorySlotSort@@0@Z
_TEXT	SEGMENT
__Val$506402 = -84					; size = 68
__Next1$506401 = -16					; size = 4
__$EHRec$ = -12						; size = 12
__First$ = 8						; size = 4
__Cat$507369 = 12					; size = 1
__Last$ = 12						; size = 4
__Pred$ = 16						; size = 1
___formal$ = 20						; size = 4
??$_Insertion_sort1@PAUtagAccessorySlot@@VAccessorySlotSort@@U1@@std@@YAXPAUtagAccessorySlot@@0VAccessorySlotSort@@0@Z PROC ; std::_Insertion_sort1<tagAccessorySlot *,AccessorySlotSort,tagAccessorySlot>, COMDAT

; 3650 : 	{	// insertion sort [_First, _Last), using _Pred

  00000	6a 48		 push	 72			; 00000048H
  00002	b8 00 00 00 00	 mov	 eax, __ehhandler$??$_Insertion_sort1@PAUtagAccessorySlot@@VAccessorySlotSort@@U1@@std@@YAXPAUtagAccessorySlot@@0VAccessorySlotSort@@0@Z
  00007	e8 00 00 00 00	 call	 __EH_prolog3

; 3651 : 	if (_First != _Last)

  0000c	8b 5d 08	 mov	 ebx, DWORD PTR __First$[ebp]
  0000f	3b 5d 0c	 cmp	 ebx, DWORD PTR __Last$[ebp]
  00012	0f 84 9d 00 00
	00		 je	 $LN6@Insertion_

; 3652 : 		for (_BidIt _Next = _First; ++_Next != _Last; )

  00018	8d 73 44	 lea	 esi, DWORD PTR [ebx+68]
  0001b	3b 75 0c	 cmp	 esi, DWORD PTR __Last$[ebp]
  0001e	0f 84 91 00 00
	00		 je	 $LN6@Insertion_
  00024	8d 7e bc	 lea	 edi, DWORD PTR [esi-68]
$LL7@Insertion_:

; 3653 : 			{	// order next element
; 3654 : 			_BidIt _Next1 = _Next;
; 3655 : 			_Ty _Val = _Move(*_Next);

  00027	56		 push	 esi
  00028	8d 4d ac	 lea	 ecx, DWORD PTR __Val$506402[ebp]
  0002b	89 75 f0	 mov	 DWORD PTR __Next1$506401[ebp], esi
  0002e	e8 00 00 00 00	 call	 ??0tagAccessorySlot@@QAE@ABU0@@Z
  00033	83 65 fc 00	 and	 DWORD PTR __$EHRec$[ebp+8], 0

; 3656 : 
; 3657 : 			if (_DEBUG_LT_PRED(_Pred, _Val, *_First))

  00037	53		 push	 ebx
  00038	8d 45 ac	 lea	 eax, DWORD PTR __Val$506402[ebp]
  0003b	50		 push	 eax
  0003c	8d 4d 10	 lea	 ecx, DWORD PTR __Pred$[ebp]
  0003f	e8 00 00 00 00	 call	 ??RAccessorySlotSort@@QBE_NABUtagAccessorySlot@@0@Z ; AccessorySlotSort::operator()
  00044	84 c0		 test	 al, al
  00046	74 21		 je	 SHORT $LN5@Insertion_

; 3658 : 				{	// found new earliest element, move to front
; 3659 : 				_Move_backward(_First, _Next, ++_Next1);

  00048	ff 75 0c	 push	 DWORD PTR __Cat$507369[ebp]
  0004b	8d 87 88 00 00
	00		 lea	 eax, DWORD PTR [edi+136]
  00051	50		 push	 eax
  00052	56		 push	 esi
  00053	53		 push	 ebx
  00054	e8 00 00 00 00	 call	 ??$_Move_backward@PAUtagAccessorySlot@@PAU1@@std@@YAPAUtagAccessorySlot@@PAU1@00U_Nonscalar_ptr_iterator_tag@0@@Z ; std::_Move_backward<tagAccessorySlot *,tagAccessorySlot *>
  00059	83 c4 10	 add	 esp, 16			; 00000010H

; 3660 : 				*_First = _Move(_Val);

  0005c	8d 45 ac	 lea	 eax, DWORD PTR __Val$506402[ebp]
  0005f	50		 push	 eax
  00060	8b cb		 mov	 ecx, ebx
  00062	e8 00 00 00 00	 call	 ??4tagAccessorySlot@@QAEAAU0@ABU0@@Z

; 3661 : 				}
; 3662 : 			else

  00067	eb 31		 jmp	 SHORT $LN4@Insertion_
$LN5@Insertion_:

; 3663 : 				{	// look for insertion point after first
; 3664 : 				for (_BidIt _First1 = _Next1;
; 3665 : 					_DEBUG_LT_PRED(_Pred, _Val, *--_First1);
; 3666 : 					_Next1 = _First1)

  00069	8b df		 mov	 ebx, edi
  0006b	57		 push	 edi
  0006c	eb 0d		 jmp	 SHORT $LN30@Insertion_
$LL3@Insertion_:

; 3667 : 					*_Next1 = _Move(*_First1);	// move hole down

  0006e	53		 push	 ebx
  0006f	e8 00 00 00 00	 call	 ??4tagAccessorySlot@@QAEAAU0@ABU0@@Z
  00074	89 5d f0	 mov	 DWORD PTR __Next1$506401[ebp], ebx
  00077	83 eb 44	 sub	 ebx, 68			; 00000044H
  0007a	53		 push	 ebx
$LN30@Insertion_:

; 3663 : 				{	// look for insertion point after first
; 3664 : 				for (_BidIt _First1 = _Next1;
; 3665 : 					_DEBUG_LT_PRED(_Pred, _Val, *--_First1);
; 3666 : 					_Next1 = _First1)

  0007b	8d 45 ac	 lea	 eax, DWORD PTR __Val$506402[ebp]
  0007e	50		 push	 eax
  0007f	8d 4d 10	 lea	 ecx, DWORD PTR __Pred$[ebp]
  00082	e8 00 00 00 00	 call	 ??RAccessorySlotSort@@QBE_NABUtagAccessorySlot@@0@Z ; AccessorySlotSort::operator()

; 3668 : 				*_Next1 = _Move(_Val);	// insert element in hole

  00087	8b 4d f0	 mov	 ecx, DWORD PTR __Next1$506401[ebp]
  0008a	84 c0		 test	 al, al
  0008c	75 e0		 jne	 SHORT $LL3@Insertion_
  0008e	8d 45 ac	 lea	 eax, DWORD PTR __Val$506402[ebp]
  00091	50		 push	 eax
  00092	e8 00 00 00 00	 call	 ??4tagAccessorySlot@@QAEAAU0@ABU0@@Z
  00097	8b 5d 08	 mov	 ebx, DWORD PTR __First$[ebp]
$LN4@Insertion_:

; 3669 : 				}
; 3670 : 			}

  0009a	83 4d fc ff	 or	 DWORD PTR __$EHRec$[ebp+8], -1
  0009e	8d 4d ac	 lea	 ecx, DWORD PTR __Val$506402[ebp]
  000a1	e8 00 00 00 00	 call	 ??1tagAccessorySlot@@QAE@XZ
  000a6	83 c6 44	 add	 esi, 68			; 00000044H
  000a9	83 c7 44	 add	 edi, 68			; 00000044H
  000ac	3b 75 0c	 cmp	 esi, DWORD PTR __Last$[ebp]
  000af	0f 85 72 ff ff
	ff		 jne	 $LL7@Insertion_
$LN6@Insertion_:

; 3671 : 	}

  000b5	e8 00 00 00 00	 call	 __EH_epilog3
  000ba	c3		 ret	 0
_TEXT	ENDS
;	COMDAT text$x
text$x	SEGMENT
__unwindfunclet$??$_Insertion_sort1@PAUtagAccessorySlot@@VAccessorySlotSort@@U1@@std@@YAXPAUtagAccessorySlot@@0VAccessorySlotSort@@0@Z$0:
  00000	8d 4d ac	 lea	 ecx, DWORD PTR __Val$506402[ebp]
  00003	e9 00 00 00 00	 jmp	 ??1tagAccessorySlot@@QAE@XZ
__ehhandler$??$_Insertion_sort1@PAUtagAccessorySlot@@VAccessorySlotSort@@U1@@std@@YAXPAUtagAccessorySlot@@0VAccessorySlotSort@@0@Z:
  00008	8b 54 24 08	 mov	 edx, DWORD PTR [esp+8]
  0000c	8d 42 0c	 lea	 eax, DWORD PTR [edx+12]
  0000f	8b 4a a8	 mov	 ecx, DWORD PTR [edx-88]
  00012	33 c8		 xor	 ecx, eax
  00014	e8 00 00 00 00	 call	 @__security_check_cookie@4
  00019	b8 00 00 00 00	 mov	 eax, OFFSET __ehfuncinfo$??$_Insertion_sort1@PAUtagAccessorySlot@@VAccessorySlotSort@@U1@@std@@YAXPAUtagAccessorySlot@@0VAccessorySlotSort@@0@Z
  0001e	e9 00 00 00 00	 jmp	 ___CxxFrameHandler3
text$x	ENDS
??$_Insertion_sort1@PAUtagAccessorySlot@@VAccessorySlotSort@@U1@@std@@YAXPAUtagAccessorySlot@@0VAccessorySlotSort@@0@Z ENDP ; std::_Insertion_sort1<tagAccessorySlot *,AccessorySlotSort,tagAccessorySlot>
PUBLIC	??$_Cons_val@V?$allocator@UtagAccessorySlot@@@std@@UtagAccessorySlot@@U3@@std@@YAXAAV?$allocator@UtagAccessorySlot@@@0@PAUtagAccessorySlot@@$$QAU2@@Z ; std::_Cons_val<std::allocator<tagAccessorySlot>,tagAccessorySlot,tagAccessorySlot>
;	COMDAT xdata$x
; File c:\program files (x86)\microsoft visual studio 10.0\vc\include\utility
xdata$x	SEGMENT
__unwindtable$??$_Cons_val@V?$allocator@UtagAccessorySlot@@@std@@UtagAccessorySlot@@U3@@std@@YAXAAV?$allocator@UtagAccessorySlot@@@0@PAUtagAccessorySlot@@$$QAU2@@Z DD 0ffffffffH
	DD	FLAT:__unwindfunclet$??$_Cons_val@V?$allocator@UtagAccessorySlot@@@std@@UtagAccessorySlot@@U3@@std@@YAXAAV?$allocator@UtagAccessorySlot@@@0@PAUtagAccessorySlot@@$$QAU2@@Z$0
__ehfuncinfo$??$_Cons_val@V?$allocator@UtagAccessorySlot@@@std@@UtagAccessorySlot@@U3@@std@@YAXAAV?$allocator@UtagAccessorySlot@@@0@PAUtagAccessorySlot@@$$QAU2@@Z DD 019930522H
	DD	01H
	DD	FLAT:__unwindtable$??$_Cons_val@V?$allocator@UtagAccessorySlot@@@std@@UtagAccessorySlot@@U3@@std@@YAXAAV?$allocator@UtagAccessorySlot@@@0@PAUtagAccessorySlot@@$$QAU2@@Z
	DD	2 DUP(00H)
	DD	2 DUP(00H)
	DD	00H
	DD	01H
; Function compile flags: /Ogsp
; File c:\program files (x86)\microsoft visual studio 10.0\vc\include\xmemory
xdata$x	ENDS
;	COMDAT ??$_Cons_val@V?$allocator@UtagAccessorySlot@@@std@@UtagAccessorySlot@@U3@@std@@YAXAAV?$allocator@UtagAccessorySlot@@@0@PAUtagAccessorySlot@@$$QAU2@@Z
_TEXT	SEGMENT
$T507412 = -16						; size = 4
__$EHRec$ = -12						; size = 12
__Alval$ = 8						; size = 4
__Pdest$ = 12						; size = 4
__Src$ = 16						; size = 4
??$_Cons_val@V?$allocator@UtagAccessorySlot@@@std@@UtagAccessorySlot@@U3@@std@@YAXAAV?$allocator@UtagAccessorySlot@@@0@PAUtagAccessorySlot@@$$QAU2@@Z PROC ; std::_Cons_val<std::allocator<tagAccessorySlot>,tagAccessorySlot,tagAccessorySlot>, COMDAT

; 279  : 	{	// construct using allocator

  00000	6a 04		 push	 4
  00002	b8 00 00 00 00	 mov	 eax, __ehhandler$??$_Cons_val@V?$allocator@UtagAccessorySlot@@@std@@UtagAccessorySlot@@U3@@std@@YAXAAV?$allocator@UtagAccessorySlot@@@0@PAUtagAccessorySlot@@$$QAU2@@Z
  00007	e8 00 00 00 00	 call	 __EH_prolog3

; 280  : 	_Alval.construct(_Pdest, _STD forward<_Ty2>(_Src));

  0000c	8b 4d 0c	 mov	 ecx, DWORD PTR __Pdest$[ebp]
  0000f	89 4d f0	 mov	 DWORD PTR $T507412[ebp], ecx
  00012	83 65 fc 00	 and	 DWORD PTR __$EHRec$[ebp+8], 0
  00016	85 c9		 test	 ecx, ecx
  00018	74 08		 je	 SHORT $LN7@Cons_val@2
  0001a	ff 75 10	 push	 DWORD PTR __Src$[ebp]
  0001d	e8 00 00 00 00	 call	 ??0tagAccessorySlot@@QAE@ABU0@@Z
$LN7@Cons_val@2:

; 281  : 	}

  00022	e8 00 00 00 00	 call	 __EH_epilog3
  00027	c3		 ret	 0
_TEXT	ENDS
;	COMDAT text$x
text$x	SEGMENT
__unwindfunclet$??$_Cons_val@V?$allocator@UtagAccessorySlot@@@std@@UtagAccessorySlot@@U3@@std@@YAXAAV?$allocator@UtagAccessorySlot@@@0@PAUtagAccessorySlot@@$$QAU2@@Z$0:
  00000	ff 75 0c	 push	 DWORD PTR __Pdest$[ebp]
  00003	ff 75 f0	 push	 DWORD PTR $T507412[ebp]
  00006	e8 00 00 00 00	 call	 ??3@YAXPAX0@Z		; operator delete
  0000b	59		 pop	 ecx
  0000c	59		 pop	 ecx
  0000d	c3		 ret	 0
__ehhandler$??$_Cons_val@V?$allocator@UtagAccessorySlot@@@std@@UtagAccessorySlot@@U3@@std@@YAXAAV?$allocator@UtagAccessorySlot@@@0@PAUtagAccessorySlot@@$$QAU2@@Z:
  0000e	8b 54 24 08	 mov	 edx, DWORD PTR [esp+8]
  00012	8d 42 0c	 lea	 eax, DWORD PTR [edx+12]
  00015	8b 4a ec	 mov	 ecx, DWORD PTR [edx-20]
  00018	33 c8		 xor	 ecx, eax
  0001a	e8 00 00 00 00	 call	 @__security_check_cookie@4
  0001f	b8 00 00 00 00	 mov	 eax, OFFSET __ehfuncinfo$??$_Cons_val@V?$allocator@UtagAccessorySlot@@@std@@UtagAccessorySlot@@U3@@std@@YAXAAV?$allocator@UtagAccessorySlot@@@0@PAUtagAccessorySlot@@$$QAU2@@Z
  00024	e9 00 00 00 00	 jmp	 ___CxxFrameHandler3
text$x	ENDS
??$_Cons_val@V?$allocator@UtagAccessorySlot@@@std@@UtagAccessorySlot@@U3@@std@@YAXAAV?$allocator@UtagAccessorySlot@@@0@PAUtagAccessorySlot@@$$QAU2@@Z ENDP ; std::_Cons_val<std::allocator<tagAccessorySlot>,tagAccessorySlot,tagAccessorySlot>
PUBLIC	??$_Med3@PAUtagAccessorySlot@@VAccessorySlotSort@@@std@@YAXPAUtagAccessorySlot@@00VAccessorySlotSort@@@Z ; std::_Med3<tagAccessorySlot *,AccessorySlotSort>
; Function compile flags: /Ogsp
; File c:\program files (x86)\microsoft visual studio 10.0\vc\include\algorithm
;	COMDAT ??$_Med3@PAUtagAccessorySlot@@VAccessorySlotSort@@@std@@YAXPAUtagAccessorySlot@@00VAccessorySlotSort@@@Z
_TEXT	SEGMENT
__First$ = 8						; size = 4
__Mid$ = 12						; size = 4
__Last$ = 16						; size = 4
__Pred$ = 20						; size = 1
??$_Med3@PAUtagAccessorySlot@@VAccessorySlotSort@@@std@@YAXPAUtagAccessorySlot@@00VAccessorySlotSort@@@Z PROC ; std::_Med3<tagAccessorySlot *,AccessorySlotSort>, COMDAT

; 3683 : 	{	// sort median of three elements to middle

  00000	55		 push	 ebp
  00001	8b ec		 mov	 ebp, esp
  00003	56		 push	 esi

; 3684 : 	if (_DEBUG_LT_PRED(_Pred, *_Mid, *_First))

  00004	8b 75 0c	 mov	 esi, DWORD PTR __Mid$[ebp]
  00007	57		 push	 edi
  00008	8b 7d 08	 mov	 edi, DWORD PTR __First$[ebp]
  0000b	57		 push	 edi
  0000c	56		 push	 esi
  0000d	8d 4d 14	 lea	 ecx, DWORD PTR __Pred$[ebp]
  00010	e8 00 00 00 00	 call	 ??RAccessorySlotSort@@QBE_NABUtagAccessorySlot@@0@Z ; AccessorySlotSort::operator()
  00015	84 c0		 test	 al, al
  00017	74 09		 je	 SHORT $LN6@Med3

; 3685 : 		_STD iter_swap(_Mid, _First);

  00019	57		 push	 edi
  0001a	56		 push	 esi
  0001b	e8 00 00 00 00	 call	 ??$swap@UtagAccessorySlot@@@std@@YAXAAUtagAccessorySlot@@0@Z ; std::swap<tagAccessorySlot>
  00020	59		 pop	 ecx
  00021	59		 pop	 ecx
$LN6@Med3:

; 3686 : 	if (_DEBUG_LT_PRED(_Pred, *_Last, *_Mid))

  00022	56		 push	 esi
  00023	ff 75 10	 push	 DWORD PTR __Last$[ebp]
  00026	8d 4d 14	 lea	 ecx, DWORD PTR __Pred$[ebp]
  00029	e8 00 00 00 00	 call	 ??RAccessorySlotSort@@QBE_NABUtagAccessorySlot@@0@Z ; AccessorySlotSort::operator()
  0002e	84 c0		 test	 al, al
  00030	74 0b		 je	 SHORT $LN8@Med3

; 3687 : 		_STD iter_swap(_Last, _Mid);

  00032	56		 push	 esi
  00033	ff 75 10	 push	 DWORD PTR __Last$[ebp]
  00036	e8 00 00 00 00	 call	 ??$swap@UtagAccessorySlot@@@std@@YAXAAUtagAccessorySlot@@0@Z ; std::swap<tagAccessorySlot>
  0003b	59		 pop	 ecx
  0003c	59		 pop	 ecx
$LN8@Med3:

; 3688 : 	if (_DEBUG_LT_PRED(_Pred, *_Mid, *_First))

  0003d	57		 push	 edi
  0003e	56		 push	 esi
  0003f	8d 4d 14	 lea	 ecx, DWORD PTR __Pred$[ebp]
  00042	e8 00 00 00 00	 call	 ??RAccessorySlotSort@@QBE_NABUtagAccessorySlot@@0@Z ; AccessorySlotSort::operator()
  00047	84 c0		 test	 al, al
  00049	74 09		 je	 SHORT $LN10@Med3

; 3689 : 		_STD iter_swap(_Mid, _First);

  0004b	57		 push	 edi
  0004c	56		 push	 esi
  0004d	e8 00 00 00 00	 call	 ??$swap@UtagAccessorySlot@@@std@@YAXAAUtagAccessorySlot@@0@Z ; std::swap<tagAccessorySlot>
  00052	59		 pop	 ecx
  00053	59		 pop	 ecx
$LN10@Med3:
  00054	5f		 pop	 edi
  00055	5e		 pop	 esi

; 3690 : 	}

  00056	5d		 pop	 ebp
  00057	c3		 ret	 0
??$_Med3@PAUtagAccessorySlot@@VAccessorySlotSort@@@std@@YAXPAUtagAccessorySlot@@00VAccessorySlotSort@@@Z ENDP ; std::_Med3<tagAccessorySlot *,AccessorySlotSort>
_TEXT	ENDS
PUBLIC	??$_Adjust_heap@PAUtagAccessorySlot@@HU1@VAccessorySlotSort@@@std@@YAXPAUtagAccessorySlot@@HH$$QAU1@VAccessorySlotSort@@@Z ; std::_Adjust_heap<tagAccessorySlot *,int,tagAccessorySlot,AccessorySlotSort>
; Function compile flags: /Ogsp
;	COMDAT ??$_Adjust_heap@PAUtagAccessorySlot@@HU1@VAccessorySlotSort@@@std@@YAXPAUtagAccessorySlot@@HH$$QAU1@VAccessorySlotSort@@@Z
_TEXT	SEGMENT
__First$ = 8						; size = 4
__Top$ = 12						; size = 4
__Hole$ = 12						; size = 4
__Bottom$ = 16						; size = 4
__Val$ = 20						; size = 4
__Pred$ = 24						; size = 1
??$_Adjust_heap@PAUtagAccessorySlot@@HU1@VAccessorySlotSort@@@std@@YAXPAUtagAccessorySlot@@HH$$QAU1@VAccessorySlotSort@@@Z PROC ; std::_Adjust_heap<tagAccessorySlot *,int,tagAccessorySlot,AccessorySlotSort>, COMDAT

; 2565 : 	{	// percolate _Hole to _Bottom, then push _Val, using _Pred

  00000	55		 push	 ebp
  00001	8b ec		 mov	 ebp, esp
  00003	53		 push	 ebx

; 2566 : 	_Diff _Top = _Hole;
; 2567 : 	_Diff _Idx = 2 * _Hole + 2;
; 2568 : 
; 2569 : 	for (; _Idx < _Bottom; _Idx = 2 * _Idx + 2)

  00004	8b 5d 08	 mov	 ebx, DWORD PTR __First$[ebp]
  00007	56		 push	 esi
  00008	57		 push	 edi
  00009	8b 7d 0c	 mov	 edi, DWORD PTR __Hole$[ebp]
  0000c	89 7d 0c	 mov	 DWORD PTR __Top$[ebp], edi
  0000f	8d 74 3f 02	 lea	 esi, DWORD PTR [edi+edi+2]
  00013	eb 33		 jmp	 SHORT $LN16@Adjust_hea
$LL5@Adjust_hea:

; 2570 : 		{	// move _Hole down to larger child
; 2571 : 		if (_DEBUG_LT_PRED(_Pred, *(_First + _Idx), *(_First + (_Idx - 1))))

  00015	8b c6		 mov	 eax, esi
  00017	6b c0 44	 imul	 eax, 68			; 00000044H
  0001a	03 c3		 add	 eax, ebx
  0001c	8d 48 bc	 lea	 ecx, DWORD PTR [eax-68]
  0001f	51		 push	 ecx
  00020	50		 push	 eax
  00021	8d 4d 18	 lea	 ecx, DWORD PTR __Pred$[ebp]
  00024	e8 00 00 00 00	 call	 ??RAccessorySlotSort@@QBE_NABUtagAccessorySlot@@0@Z ; AccessorySlotSort::operator()
  00029	84 c0		 test	 al, al
  0002b	74 01		 je	 SHORT $LN2@Adjust_hea

; 2572 : 			--_Idx;

  0002d	4e		 dec	 esi
$LN2@Adjust_hea:

; 2573 : 		*(_First + _Hole) = _Move(*(_First + _Idx));

  0002e	8b c6		 mov	 eax, esi
  00030	6b c0 44	 imul	 eax, 68			; 00000044H
  00033	8b cf		 mov	 ecx, edi
  00035	6b c9 44	 imul	 ecx, 68			; 00000044H
  00038	03 c3		 add	 eax, ebx
  0003a	50		 push	 eax
  0003b	03 cb		 add	 ecx, ebx
  0003d	e8 00 00 00 00	 call	 ??4tagAccessorySlot@@QAEAAU0@ABU0@@Z

; 2574 : 		_Hole = _Idx;

  00042	8b fe		 mov	 edi, esi
  00044	8d 74 36 02	 lea	 esi, DWORD PTR [esi+esi+2]
$LN16@Adjust_hea:

; 2566 : 	_Diff _Top = _Hole;
; 2567 : 	_Diff _Idx = 2 * _Hole + 2;
; 2568 : 
; 2569 : 	for (; _Idx < _Bottom; _Idx = 2 * _Idx + 2)

  00048	3b 75 10	 cmp	 esi, DWORD PTR __Bottom$[ebp]
  0004b	7c c8		 jl	 SHORT $LL5@Adjust_hea

; 2575 : 		}
; 2576 : 
; 2577 : 	if (_Idx == _Bottom)

  0004d	75 1b		 jne	 SHORT $LN1@Adjust_hea

; 2578 : 		{	// only child at bottom, move _Hole down to it
; 2579 : 		*(_First + _Hole) = _Move(*(_First + (_Bottom - 1)));

  0004f	8b 45 10	 mov	 eax, DWORD PTR __Bottom$[ebp]
  00052	6b c0 44	 imul	 eax, 68			; 00000044H
  00055	8b cf		 mov	 ecx, edi
  00057	6b c9 44	 imul	 ecx, 68			; 00000044H
  0005a	8d 44 18 bc	 lea	 eax, DWORD PTR [eax+ebx-68]
  0005e	50		 push	 eax
  0005f	03 cb		 add	 ecx, ebx
  00061	e8 00 00 00 00	 call	 ??4tagAccessorySlot@@QAEAAU0@ABU0@@Z

; 2580 : 		_Hole = _Bottom - 1;

  00066	8b 7d 10	 mov	 edi, DWORD PTR __Bottom$[ebp]
  00069	4f		 dec	 edi
$LN1@Adjust_hea:

; 2581 : 		}
; 2582 : 	_Push_heap(_First, _Hole, _Top, _Move(_Val), _Pred);

  0006a	ff 75 18	 push	 DWORD PTR __Pred$[ebp]
  0006d	ff 75 14	 push	 DWORD PTR __Val$[ebp]
  00070	ff 75 0c	 push	 DWORD PTR __Top$[ebp]
  00073	57		 push	 edi
  00074	53		 push	 ebx
  00075	e8 00 00 00 00	 call	 ??$_Push_heap@PAUtagAccessorySlot@@HU1@VAccessorySlotSort@@@std@@YAXPAUtagAccessorySlot@@HH$$QAU1@VAccessorySlotSort@@@Z ; std::_Push_heap<tagAccessorySlot *,int,tagAccessorySlot,AccessorySlotSort>
  0007a	83 c4 14	 add	 esp, 20			; 00000014H
  0007d	5f		 pop	 edi
  0007e	5e		 pop	 esi
  0007f	5b		 pop	 ebx

; 2583 : 	}

  00080	5d		 pop	 ebp
  00081	c3		 ret	 0
??$_Adjust_heap@PAUtagAccessorySlot@@HU1@VAccessorySlotSort@@@std@@YAXPAUtagAccessorySlot@@HH$$QAU1@VAccessorySlotSort@@@Z ENDP ; std::_Adjust_heap<tagAccessorySlot *,int,tagAccessorySlot,AccessorySlotSort>
_TEXT	ENDS
PUBLIC	??$_Pop_heap@PAUtagAccessorySlot@@HU1@VAccessorySlotSort@@@std@@YAXPAUtagAccessorySlot@@00$$QAU1@VAccessorySlotSort@@PAH@Z ; std::_Pop_heap<tagAccessorySlot *,int,tagAccessorySlot,AccessorySlotSort>
; Function compile flags: /Ogsp
;	COMDAT ??$_Pop_heap@PAUtagAccessorySlot@@HU1@VAccessorySlotSort@@@std@@YAXPAUtagAccessorySlot@@00$$QAU1@VAccessorySlotSort@@PAH@Z
_TEXT	SEGMENT
__First$ = 8						; size = 4
__Last$ = 12						; size = 4
__Dest$ = 16						; size = 4
__Val$ = 20						; size = 4
__Pred$ = 24						; size = 1
___formal$ = 28						; size = 4
??$_Pop_heap@PAUtagAccessorySlot@@HU1@VAccessorySlotSort@@@std@@YAXPAUtagAccessorySlot@@00$$QAU1@VAccessorySlotSort@@PAH@Z PROC ; std::_Pop_heap<tagAccessorySlot *,int,tagAccessorySlot,AccessorySlotSort>, COMDAT

; 2591 : 	{	// pop *_First to *_Dest and reheap, using _Pred

  00000	55		 push	 ebp
  00001	8b ec		 mov	 ebp, esp

; 2592 : 	*_Dest = _Move(*_First);

  00003	ff 75 08	 push	 DWORD PTR __First$[ebp]
  00006	8b 4d 10	 mov	 ecx, DWORD PTR __Dest$[ebp]
  00009	e8 00 00 00 00	 call	 ??4tagAccessorySlot@@QAEAAU0@ABU0@@Z

; 2593 : 	_Adjust_heap(_First, _Diff(0), _Diff(_Last - _First),
; 2594 : 		_Move(_Val), _Pred);

  0000e	ff 75 18	 push	 DWORD PTR __Pred$[ebp]
  00011	8b 45 0c	 mov	 eax, DWORD PTR __Last$[ebp]
  00014	ff 75 14	 push	 DWORD PTR __Val$[ebp]
  00017	2b 45 08	 sub	 eax, DWORD PTR __First$[ebp]
  0001a	6a 44		 push	 68			; 00000044H
  0001c	59		 pop	 ecx
  0001d	99		 cdq
  0001e	f7 f9		 idiv	 ecx
  00020	50		 push	 eax
  00021	6a 00		 push	 0
  00023	ff 75 08	 push	 DWORD PTR __First$[ebp]
  00026	e8 00 00 00 00	 call	 ??$_Adjust_heap@PAUtagAccessorySlot@@HU1@VAccessorySlotSort@@@std@@YAXPAUtagAccessorySlot@@HH$$QAU1@VAccessorySlotSort@@@Z ; std::_Adjust_heap<tagAccessorySlot *,int,tagAccessorySlot,AccessorySlotSort>
  0002b	83 c4 14	 add	 esp, 20			; 00000014H

; 2595 : 	}

  0002e	5d		 pop	 ebp
  0002f	c3		 ret	 0
??$_Pop_heap@PAUtagAccessorySlot@@HU1@VAccessorySlotSort@@@std@@YAXPAUtagAccessorySlot@@00$$QAU1@VAccessorySlotSort@@PAH@Z ENDP ; std::_Pop_heap<tagAccessorySlot *,int,tagAccessorySlot,AccessorySlotSort>
_TEXT	ENDS
PUBLIC	?begin@?$vector@UtagAccessorySlot@@V?$allocator@UtagAccessorySlot@@@std@@@std@@QAE?AV?$_Vector_iterator@V?$_Vector_val@UtagAccessorySlot@@V?$allocator@UtagAccessorySlot@@@std@@@std@@@2@XZ ; std::vector<tagAccessorySlot,std::allocator<tagAccessorySlot> >::begin
; Function compile flags: /Ogsp
; File c:\program files (x86)\microsoft visual studio 10.0\vc\include\vector
;	COMDAT ?begin@?$vector@UtagAccessorySlot@@V?$allocator@UtagAccessorySlot@@@std@@@std@@QAE?AV?$_Vector_iterator@V?$_Vector_val@UtagAccessorySlot@@V?$allocator@UtagAccessorySlot@@@std@@@std@@@2@XZ
_TEXT	SEGMENT
___$ReturnUdt$ = 8					; size = 4
?begin@?$vector@UtagAccessorySlot@@V?$allocator@UtagAccessorySlot@@@std@@@std@@QAE?AV?$_Vector_iterator@V?$_Vector_val@UtagAccessorySlot@@V?$allocator@UtagAccessorySlot@@@std@@@std@@@2@XZ PROC ; std::vector<tagAccessorySlot,std::allocator<tagAccessorySlot> >::begin, COMDAT
; _this$ = ecx

; 781  : 		{	// return iterator for beginning of mutable sequence

  00000	55		 push	 ebp
  00001	8b ec		 mov	 ebp, esp

; 782  : 		return (iterator(this->_Myfirst, this));

  00003	8b 09		 mov	 ecx, DWORD PTR [ecx]
  00005	8b 45 08	 mov	 eax, DWORD PTR ___$ReturnUdt$[ebp]
  00008	89 08		 mov	 DWORD PTR [eax], ecx

; 783  : 		}

  0000a	5d		 pop	 ebp
  0000b	c2 04 00	 ret	 4
?begin@?$vector@UtagAccessorySlot@@V?$allocator@UtagAccessorySlot@@@std@@@std@@QAE?AV?$_Vector_iterator@V?$_Vector_val@UtagAccessorySlot@@V?$allocator@UtagAccessorySlot@@@std@@@std@@@2@XZ ENDP ; std::vector<tagAccessorySlot,std::allocator<tagAccessorySlot> >::begin
_TEXT	ENDS
PUBLIC	?end@?$vector@UtagAccessorySlot@@V?$allocator@UtagAccessorySlot@@@std@@@std@@QAE?AV?$_Vector_iterator@V?$_Vector_val@UtagAccessorySlot@@V?$allocator@UtagAccessorySlot@@@std@@@std@@@2@XZ ; std::vector<tagAccessorySlot,std::allocator<tagAccessorySlot> >::end
; Function compile flags: /Ogsp
;	COMDAT ?end@?$vector@UtagAccessorySlot@@V?$allocator@UtagAccessorySlot@@@std@@@std@@QAE?AV?$_Vector_iterator@V?$_Vector_val@UtagAccessorySlot@@V?$allocator@UtagAccessorySlot@@@std@@@std@@@2@XZ
_TEXT	SEGMENT
___$ReturnUdt$ = 8					; size = 4
?end@?$vector@UtagAccessorySlot@@V?$allocator@UtagAccessorySlot@@@std@@@std@@QAE?AV?$_Vector_iterator@V?$_Vector_val@UtagAccessorySlot@@V?$allocator@UtagAccessorySlot@@@std@@@std@@@2@XZ PROC ; std::vector<tagAccessorySlot,std::allocator<tagAccessorySlot> >::end, COMDAT
; _this$ = ecx

; 791  : 		{	// return iterator for end of mutable sequence

  00000	55		 push	 ebp
  00001	8b ec		 mov	 ebp, esp

; 792  : 		return (iterator(this->_Mylast, this));

  00003	8b 49 04	 mov	 ecx, DWORD PTR [ecx+4]
  00006	8b 45 08	 mov	 eax, DWORD PTR ___$ReturnUdt$[ebp]
  00009	89 08		 mov	 DWORD PTR [eax], ecx

; 793  : 		}

  0000b	5d		 pop	 ebp
  0000c	c2 04 00	 ret	 4
?end@?$vector@UtagAccessorySlot@@V?$allocator@UtagAccessorySlot@@@std@@@std@@QAE?AV?$_Vector_iterator@V?$_Vector_val@UtagAccessorySlot@@V?$allocator@UtagAccessorySlot@@@std@@@std@@@2@XZ ENDP ; std::vector<tagAccessorySlot,std::allocator<tagAccessorySlot> >::end
_TEXT	ENDS
PUBLIC	?_Make_iter@?$vector@UtagAccessorySlot@@V?$allocator@UtagAccessorySlot@@@std@@@std@@QBE?AV?$_Vector_iterator@V?$_Vector_val@UtagAccessorySlot@@V?$allocator@UtagAccessorySlot@@@std@@@std@@@2@V?$_Vector_const_iterator@V?$_Vector_val@UtagAccessorySlot@@V?$allocator@UtagAccessorySlot@@@std@@@std@@@2@@Z ; std::vector<tagAccessorySlot,std::allocator<tagAccessorySlot> >::_Make_iter
; Function compile flags: /Ogsp
;	COMDAT ?_Make_iter@?$vector@UtagAccessorySlot@@V?$allocator@UtagAccessorySlot@@@std@@@std@@QBE?AV?$_Vector_iterator@V?$_Vector_val@UtagAccessorySlot@@V?$allocator@UtagAccessorySlot@@@std@@@std@@@2@V?$_Vector_const_iterator@V?$_Vector_val@UtagAccessorySlot@@V?$allocator@UtagAccessorySlot@@@std@@@std@@@2@@Z
_TEXT	SEGMENT
___$ReturnUdt$ = 8					; size = 4
__Where$ = 12						; size = 4
?_Make_iter@?$vector@UtagAccessorySlot@@V?$allocator@UtagAccessorySlot@@@std@@@std@@QBE?AV?$_Vector_iterator@V?$_Vector_val@UtagAccessorySlot@@V?$allocator@UtagAccessorySlot@@@std@@@std@@@2@V?$_Vector_const_iterator@V?$_Vector_val@UtagAccessorySlot@@V?$allocator@UtagAccessorySlot@@@std@@@std@@@2@@Z PROC ; std::vector<tagAccessorySlot,std::allocator<tagAccessorySlot> >::_Make_iter, COMDAT
; _this$ = ecx

; 801  : 		{	// make iterator from const_iterator

  00000	55		 push	 ebp
  00001	8b ec		 mov	 ebp, esp

; 802  : 		return (iterator(_Where._Ptr, this));

  00003	8b 45 08	 mov	 eax, DWORD PTR ___$ReturnUdt$[ebp]
  00006	8b 4d 0c	 mov	 ecx, DWORD PTR __Where$[ebp]
  00009	89 08		 mov	 DWORD PTR [eax], ecx

; 803  : 		}

  0000b	5d		 pop	 ebp
  0000c	c2 08 00	 ret	 8
?_Make_iter@?$vector@UtagAccessorySlot@@V?$allocator@UtagAccessorySlot@@@std@@@std@@QBE?AV?$_Vector_iterator@V?$_Vector_val@UtagAccessorySlot@@V?$allocator@UtagAccessorySlot@@@std@@@std@@@2@V?$_Vector_const_iterator@V?$_Vector_val@UtagAccessorySlot@@V?$allocator@UtagAccessorySlot@@@std@@@std@@@2@@Z ENDP ; std::vector<tagAccessorySlot,std::allocator<tagAccessorySlot> >::_Make_iter
_TEXT	ENDS
PUBLIC	??$_Insertion_sort@PAUtagAccessorySlot@@VAccessorySlotSort@@@std@@YAXPAUtagAccessorySlot@@0VAccessorySlotSort@@@Z ; std::_Insertion_sort<tagAccessorySlot *,AccessorySlotSort>
; Function compile flags: /Ogsp
; File c:\program files (x86)\microsoft visual studio 10.0\vc\include\algorithm
;	COMDAT ??$_Insertion_sort@PAUtagAccessorySlot@@VAccessorySlotSort@@@std@@YAXPAUtagAccessorySlot@@0VAccessorySlotSort@@@Z
_TEXT	SEGMENT
__First$ = 8						; size = 4
__Last$ = 12						; size = 4
__Pred$ = 16						; size = 1
??$_Insertion_sort@PAUtagAccessorySlot@@VAccessorySlotSort@@@std@@YAXPAUtagAccessorySlot@@0VAccessorySlotSort@@@Z PROC ; std::_Insertion_sort<tagAccessorySlot *,AccessorySlotSort>, COMDAT

; 3676 : 	{	// insertion sort [_First, _Last), using _Pred

  00000	55		 push	 ebp
  00001	8b ec		 mov	 ebp, esp

; 3677 : 	_Insertion_sort1(_First, _Last, _Pred, _Val_type(_First));

  00003	6a 00		 push	 0
  00005	ff 75 10	 push	 DWORD PTR __Pred$[ebp]
  00008	ff 75 0c	 push	 DWORD PTR __Last$[ebp]
  0000b	ff 75 08	 push	 DWORD PTR __First$[ebp]
  0000e	e8 00 00 00 00	 call	 ??$_Insertion_sort1@PAUtagAccessorySlot@@VAccessorySlotSort@@U1@@std@@YAXPAUtagAccessorySlot@@0VAccessorySlotSort@@0@Z ; std::_Insertion_sort1<tagAccessorySlot *,AccessorySlotSort,tagAccessorySlot>
  00013	83 c4 10	 add	 esp, 16			; 00000010H

; 3678 : 	}

  00016	5d		 pop	 ebp
  00017	c3		 ret	 0
??$_Insertion_sort@PAUtagAccessorySlot@@VAccessorySlotSort@@@std@@YAXPAUtagAccessorySlot@@0VAccessorySlotSort@@@Z ENDP ; std::_Insertion_sort<tagAccessorySlot *,AccessorySlotSort>
_TEXT	ENDS
PUBLIC	??$_Dest_val@V?$allocator@UtagAccessorySlot@@@std@@UtagAccessorySlot@@@std@@YAXAAV?$allocator@UtagAccessorySlot@@@0@PAUtagAccessorySlot@@@Z ; std::_Dest_val<std::allocator<tagAccessorySlot>,tagAccessorySlot>
; Function compile flags: /Ogsp
; File c:\program files (x86)\microsoft visual studio 10.0\vc\include\xmemory
;	COMDAT ??$_Dest_val@V?$allocator@UtagAccessorySlot@@@std@@UtagAccessorySlot@@@std@@YAXAAV?$allocator@UtagAccessorySlot@@@0@PAUtagAccessorySlot@@@Z
_TEXT	SEGMENT
__Alval$ = 8						; size = 4
__Pdest$ = 12						; size = 4
??$_Dest_val@V?$allocator@UtagAccessorySlot@@@std@@UtagAccessorySlot@@@std@@YAXAAV?$allocator@UtagAccessorySlot@@@0@PAUtagAccessorySlot@@@Z PROC ; std::_Dest_val<std::allocator<tagAccessorySlot>,tagAccessorySlot>, COMDAT

; 286  : 	{	// destroy using allocator

  00000	55		 push	 ebp
  00001	8b ec		 mov	 ebp, esp

; 287  : 	_Alval.destroy(_Pdest);

  00003	8b 4d 0c	 mov	 ecx, DWORD PTR __Pdest$[ebp]

; 288  : 	}

  00006	5d		 pop	 ebp

; 287  : 	_Alval.destroy(_Pdest);

  00007	e9 00 00 00 00	 jmp	 ??1tagAccessorySlot@@QAE@XZ
??$_Dest_val@V?$allocator@UtagAccessorySlot@@@std@@UtagAccessorySlot@@@std@@YAXAAV?$allocator@UtagAccessorySlot@@@0@PAUtagAccessorySlot@@@Z ENDP ; std::_Dest_val<std::allocator<tagAccessorySlot>,tagAccessorySlot>
_TEXT	ENDS
PUBLIC	??$_Uninit_move@PAUtagAccessorySlot@@PAU1@V?$allocator@UtagAccessorySlot@@@std@@U1@@std@@YAPAUtagAccessorySlot@@PAU1@00AAV?$allocator@UtagAccessorySlot@@@0@0U_Nonscalar_ptr_iterator_tag@0@@Z ; std::_Uninit_move<tagAccessorySlot *,tagAccessorySlot *,std::allocator<tagAccessorySlot>,tagAccessorySlot>
EXTRN	__EH_prolog3_catch:PROC
;	COMDAT xdata$x
xdata$x	SEGMENT
__catchsym$??$_Uninit_move@PAUtagAccessorySlot@@PAU1@V?$allocator@UtagAccessorySlot@@@std@@U1@@std@@YAPAUtagAccessorySlot@@PAU1@00AAV?$allocator@UtagAccessorySlot@@@0@0U_Nonscalar_ptr_iterator_tag@0@@Z$2 DD 040H
	DD	00H
	DD	00H
	DD	FLAT:__catch$??$_Uninit_move@PAUtagAccessorySlot@@PAU1@V?$allocator@UtagAccessorySlot@@@std@@U1@@std@@YAPAUtagAccessorySlot@@PAU1@00AAV?$allocator@UtagAccessorySlot@@@0@0U_Nonscalar_ptr_iterator_tag@0@@Z$0
__unwindtable$??$_Uninit_move@PAUtagAccessorySlot@@PAU1@V?$allocator@UtagAccessorySlot@@@std@@U1@@std@@YAPAUtagAccessorySlot@@PAU1@00AAV?$allocator@UtagAccessorySlot@@@0@0U_Nonscalar_ptr_iterator_tag@0@@Z DD 0ffffffffH
	DD	00H
	DD	0ffffffffH
	DD	00H
__tryblocktable$??$_Uninit_move@PAUtagAccessorySlot@@PAU1@V?$allocator@UtagAccessorySlot@@@std@@U1@@std@@YAPAUtagAccessorySlot@@PAU1@00AAV?$allocator@UtagAccessorySlot@@@0@0U_Nonscalar_ptr_iterator_tag@0@@Z DD 00H
	DD	00H
	DD	01H
	DD	01H
	DD	FLAT:__catchsym$??$_Uninit_move@PAUtagAccessorySlot@@PAU1@V?$allocator@UtagAccessorySlot@@@std@@U1@@std@@YAPAUtagAccessorySlot@@PAU1@00AAV?$allocator@UtagAccessorySlot@@@0@0U_Nonscalar_ptr_iterator_tag@0@@Z$2
__ehfuncinfo$??$_Uninit_move@PAUtagAccessorySlot@@PAU1@V?$allocator@UtagAccessorySlot@@@std@@U1@@std@@YAPAUtagAccessorySlot@@PAU1@00AAV?$allocator@UtagAccessorySlot@@@0@0U_Nonscalar_ptr_iterator_tag@0@@Z DD 019930522H
	DD	02H
	DD	FLAT:__unwindtable$??$_Uninit_move@PAUtagAccessorySlot@@PAU1@V?$allocator@UtagAccessorySlot@@@std@@U1@@std@@YAPAUtagAccessorySlot@@PAU1@00AAV?$allocator@UtagAccessorySlot@@@0@0U_Nonscalar_ptr_iterator_tag@0@@Z
	DD	01H
	DD	FLAT:__tryblocktable$??$_Uninit_move@PAUtagAccessorySlot@@PAU1@V?$allocator@UtagAccessorySlot@@@std@@U1@@std@@YAPAUtagAccessorySlot@@PAU1@00AAV?$allocator@UtagAccessorySlot@@@0@0U_Nonscalar_ptr_iterator_tag@0@@Z
	DD	2 DUP(00H)
	DD	00H
	DD	01H
; Function compile flags: /Ogsp
; File c:\program files (x86)\microsoft visual studio 10.0\vc\include\memory
xdata$x	ENDS
;	COMDAT ??$_Uninit_move@PAUtagAccessorySlot@@PAU1@V?$allocator@UtagAccessorySlot@@@std@@U1@@std@@YAPAUtagAccessorySlot@@PAU1@00AAV?$allocator@UtagAccessorySlot@@@0@0U_Nonscalar_ptr_iterator_tag@0@@Z
_TEXT	SEGMENT
__Next$ = -20						; size = 4
__$EHRec$ = -16						; size = 16
__First$ = 8						; size = 4
__Last$ = 12						; size = 4
__Dest$ = 16						; size = 4
__Al$ = 20						; size = 4
___formal$ = 24						; size = 4
___formal$ = 28						; size = 1
??$_Uninit_move@PAUtagAccessorySlot@@PAU1@V?$allocator@UtagAccessorySlot@@@std@@U1@@std@@YAPAUtagAccessorySlot@@PAU1@00AAV?$allocator@UtagAccessorySlot@@@0@0U_Nonscalar_ptr_iterator_tag@0@@Z PROC ; std::_Uninit_move<tagAccessorySlot *,tagAccessorySlot *,std::allocator<tagAccessorySlot>,tagAccessorySlot>, COMDAT

; 424  : 	{	// move [_First, _Last) to raw _Dest, using _Al, arbitrary type

  00000	6a 08		 push	 8
  00002	b8 00 00 00 00	 mov	 eax, __ehhandler$??$_Uninit_move@PAUtagAccessorySlot@@PAU1@V?$allocator@UtagAccessorySlot@@@std@@U1@@std@@YAPAUtagAccessorySlot@@PAU1@00AAV?$allocator@UtagAccessorySlot@@@0@0U_Nonscalar_ptr_iterator_tag@0@@Z
  00007	e8 00 00 00 00	 call	 __EH_prolog3_catch

; 425  : 	_DEBUG_RANGE(_First, _Last);
; 426  : 	_DEBUG_POINTER(_Dest);
; 427  : 	_FwdIt _Next = _Dest;

  0000c	8b 45 10	 mov	 eax, DWORD PTR __Dest$[ebp]

; 428  : 
; 429  : 	_TRY_BEGIN

  0000f	83 65 fc 00	 and	 DWORD PTR __$EHRec$[ebp+12], 0
  00013	8b 75 08	 mov	 esi, DWORD PTR __First$[ebp]
  00016	89 45 ec	 mov	 DWORD PTR __Next$[ebp], eax
$LL6@Uninit_mov:

; 430  : 	for (; _First != _Last; ++_Dest, ++_First)

  00019	3b 75 0c	 cmp	 esi, DWORD PTR __Last$[ebp]
  0001c	74 35		 je	 SHORT $LN4@Uninit_mov

; 431  : 		_Cons_val(_Al, _Dest, (_Valty &&)*_First);

  0001e	56		 push	 esi
  0001f	ff 75 10	 push	 DWORD PTR __Dest$[ebp]
  00022	ff 75 14	 push	 DWORD PTR __Al$[ebp]
  00025	e8 00 00 00 00	 call	 ??$_Cons_val@V?$allocator@UtagAccessorySlot@@@std@@UtagAccessorySlot@@U3@@std@@YAXAAV?$allocator@UtagAccessorySlot@@@0@PAUtagAccessorySlot@@$$QAU2@@Z ; std::_Cons_val<std::allocator<tagAccessorySlot>,tagAccessorySlot,tagAccessorySlot>
  0002a	83 45 10 44	 add	 DWORD PTR __Dest$[ebp], 68 ; 00000044H
  0002e	83 c4 0c	 add	 esp, 12			; 0000000cH
  00031	83 c6 44	 add	 esi, 68			; 00000044H
  00034	eb e3		 jmp	 SHORT $LL6@Uninit_mov
__catch$??$_Uninit_move@PAUtagAccessorySlot@@PAU1@V?$allocator@UtagAccessorySlot@@@std@@U1@@std@@YAPAUtagAccessorySlot@@PAU1@00AAV?$allocator@UtagAccessorySlot@@@0@0U_Nonscalar_ptr_iterator_tag@0@@Z$0:

; 432  : 	_CATCH_ALL
; 433  : 	for (; _Next != _Dest; ++_Next)

  00036	8b 75 ec	 mov	 esi, DWORD PTR __Next$[ebp]
  00039	eb 0a		 jmp	 SHORT $LN29@Uninit_mov
$LL3@Uninit_mov:

; 434  : 		_Dest_val(_Al, _Next);

  0003b	8b ce		 mov	 ecx, esi
  0003d	e8 00 00 00 00	 call	 ??1tagAccessorySlot@@QAE@XZ
  00042	83 c6 44	 add	 esi, 68			; 00000044H
$LN29@Uninit_mov:

; 432  : 	_CATCH_ALL
; 433  : 	for (; _Next != _Dest; ++_Next)

  00045	3b 75 10	 cmp	 esi, DWORD PTR __Dest$[ebp]
  00048	75 f1		 jne	 SHORT $LL3@Uninit_mov

; 435  : 	_RERAISE;

  0004a	6a 00		 push	 0
  0004c	6a 00		 push	 0
  0004e	e8 00 00 00 00	 call	 __CxxThrowException@8
$LN30@Uninit_mov:
$LN4@Uninit_mov:

; 436  : 	_CATCH_END
; 437  : 	return (_Dest);

  00053	8b 45 10	 mov	 eax, DWORD PTR __Dest$[ebp]

; 438  : 	}

  00056	e8 00 00 00 00	 call	 __EH_epilog3
  0005b	c3		 ret	 0
$LN28@Uninit_mov:
_TEXT	ENDS
;	COMDAT text$x
text$x	SEGMENT
__ehhandler$??$_Uninit_move@PAUtagAccessorySlot@@PAU1@V?$allocator@UtagAccessorySlot@@@std@@U1@@std@@YAPAUtagAccessorySlot@@PAU1@00AAV?$allocator@UtagAccessorySlot@@@0@0U_Nonscalar_ptr_iterator_tag@0@@Z:
  00000	8b 54 24 08	 mov	 edx, DWORD PTR [esp+8]
  00004	8d 42 0c	 lea	 eax, DWORD PTR [edx+12]
  00007	8b 4a e8	 mov	 ecx, DWORD PTR [edx-24]
  0000a	33 c8		 xor	 ecx, eax
  0000c	e8 00 00 00 00	 call	 @__security_check_cookie@4
  00011	b8 00 00 00 00	 mov	 eax, OFFSET __ehfuncinfo$??$_Uninit_move@PAUtagAccessorySlot@@PAU1@V?$allocator@UtagAccessorySlot@@@std@@U1@@std@@YAPAUtagAccessorySlot@@PAU1@00AAV?$allocator@UtagAccessorySlot@@@0@0U_Nonscalar_ptr_iterator_tag@0@@Z
  00016	e9 00 00 00 00	 jmp	 ___CxxFrameHandler3
text$x	ENDS
??$_Uninit_move@PAUtagAccessorySlot@@PAU1@V?$allocator@UtagAccessorySlot@@@std@@U1@@std@@YAPAUtagAccessorySlot@@PAU1@00AAV?$allocator@UtagAccessorySlot@@@0@0U_Nonscalar_ptr_iterator_tag@0@@Z ENDP ; std::_Uninit_move<tagAccessorySlot *,tagAccessorySlot *,std::allocator<tagAccessorySlot>,tagAccessorySlot>
PUBLIC	??$_Median@PAUtagAccessorySlot@@VAccessorySlotSort@@@std@@YAXPAUtagAccessorySlot@@00VAccessorySlotSort@@@Z ; std::_Median<tagAccessorySlot *,AccessorySlotSort>
; Function compile flags: /Ogsp
; File c:\program files (x86)\microsoft visual studio 10.0\vc\include\algorithm
;	COMDAT ??$_Median@PAUtagAccessorySlot@@VAccessorySlotSort@@@std@@YAXPAUtagAccessorySlot@@00VAccessorySlotSort@@@Z
_TEXT	SEGMENT
tv200 = 8						; size = 4
__First$ = 8						; size = 4
__Mid$ = 12						; size = 4
tv203 = 16						; size = 4
__Last$ = 16						; size = 4
__Pred$ = 20						; size = 1
??$_Median@PAUtagAccessorySlot@@VAccessorySlotSort@@@std@@YAXPAUtagAccessorySlot@@00VAccessorySlotSort@@@Z PROC ; std::_Median<tagAccessorySlot *,AccessorySlotSort>, COMDAT

; 3695 : 	{	// sort median element to middle

  00000	55		 push	 ebp
  00001	8b ec		 mov	 ebp, esp

; 3696 : 	if (40 < _Last - _First)

  00003	8b 4d 08	 mov	 ecx, DWORD PTR __First$[ebp]
  00006	53		 push	 ebx
  00007	8b 5d 10	 mov	 ebx, DWORD PTR __Last$[ebp]
  0000a	56		 push	 esi
  0000b	8b c3		 mov	 eax, ebx
  0000d	2b c1		 sub	 eax, ecx
  0000f	6a 44		 push	 68			; 00000044H
  00011	99		 cdq
  00012	5e		 pop	 esi
  00013	f7 fe		 idiv	 esi
  00015	83 f8 28	 cmp	 eax, 40			; 00000028H
  00018	7e 6b		 jle	 SHORT $LN2@Median

; 3697 : 		{	// median of nine
; 3698 : 		size_t _Step = (_Last - _First + 1) / 8;

  0001a	40		 inc	 eax
  0001b	99		 cdq
  0001c	83 e2 07	 and	 edx, 7
  0001f	03 c2		 add	 eax, edx
  00021	57		 push	 edi

; 3699 : 		_Med3(_First, _First + _Step, _First + 2 * _Step, _Pred);

  00022	ff 75 14	 push	 DWORD PTR __Pred$[ebp]
  00025	c1 f8 03	 sar	 eax, 3
  00028	8b f8		 mov	 edi, eax
  0002a	8b f0		 mov	 esi, eax
  0002c	69 ff 88 00 00
	00		 imul	 edi, 136		; 00000088H
  00032	6b f6 44	 imul	 esi, 68			; 00000044H
  00035	8d 14 0f	 lea	 edx, DWORD PTR [edi+ecx]
  00038	8d 04 0e	 lea	 eax, DWORD PTR [esi+ecx]
  0003b	52		 push	 edx
  0003c	50		 push	 eax
  0003d	51		 push	 ecx
  0003e	89 45 08	 mov	 DWORD PTR tv200[ebp], eax
  00041	e8 00 00 00 00	 call	 ??$_Med3@PAUtagAccessorySlot@@VAccessorySlotSort@@@std@@YAXPAUtagAccessorySlot@@00VAccessorySlotSort@@@Z ; std::_Med3<tagAccessorySlot *,AccessorySlotSort>

; 3700 : 		_Med3(_Mid - _Step, _Mid, _Mid + _Step, _Pred);

  00046	ff 75 14	 push	 DWORD PTR __Pred$[ebp]
  00049	8b 45 0c	 mov	 eax, DWORD PTR __Mid$[ebp]
  0004c	8d 0c 06	 lea	 ecx, DWORD PTR [esi+eax]
  0004f	51		 push	 ecx
  00050	50		 push	 eax
  00051	2b c6		 sub	 eax, esi
  00053	50		 push	 eax
  00054	e8 00 00 00 00	 call	 ??$_Med3@PAUtagAccessorySlot@@VAccessorySlotSort@@@std@@YAXPAUtagAccessorySlot@@00VAccessorySlotSort@@@Z ; std::_Med3<tagAccessorySlot *,AccessorySlotSort>

; 3701 : 		_Med3(_Last - 2 * _Step, _Last - _Step, _Last, _Pred);

  00059	ff 75 14	 push	 DWORD PTR __Pred$[ebp]
  0005c	89 5d 10	 mov	 DWORD PTR tv203[ebp], ebx
  0005f	29 75 10	 sub	 DWORD PTR tv203[ebp], esi
  00062	53		 push	 ebx
  00063	ff 75 10	 push	 DWORD PTR tv203[ebp]
  00066	2b df		 sub	 ebx, edi
  00068	53		 push	 ebx
  00069	e8 00 00 00 00	 call	 ??$_Med3@PAUtagAccessorySlot@@VAccessorySlotSort@@@std@@YAXPAUtagAccessorySlot@@00VAccessorySlotSort@@@Z ; std::_Med3<tagAccessorySlot *,AccessorySlotSort>

; 3702 : 		_Med3(_First + _Step, _Mid, _Last - _Step, _Pred);

  0006e	ff 75 14	 push	 DWORD PTR __Pred$[ebp]
  00071	ff 75 10	 push	 DWORD PTR tv203[ebp]
  00074	ff 75 0c	 push	 DWORD PTR __Mid$[ebp]
  00077	ff 75 08	 push	 DWORD PTR tv200[ebp]
  0007a	e8 00 00 00 00	 call	 ??$_Med3@PAUtagAccessorySlot@@VAccessorySlotSort@@@std@@YAXPAUtagAccessorySlot@@00VAccessorySlotSort@@@Z ; std::_Med3<tagAccessorySlot *,AccessorySlotSort>
  0007f	83 c4 40	 add	 esp, 64			; 00000040H
  00082	5f		 pop	 edi

; 3703 : 		}
; 3704 : 	else

  00083	eb 10		 jmp	 SHORT $LN1@Median
$LN2@Median:

; 3705 : 		_Med3(_First, _Mid, _Last, _Pred);

  00085	ff 75 14	 push	 DWORD PTR __Pred$[ebp]
  00088	53		 push	 ebx
  00089	ff 75 0c	 push	 DWORD PTR __Mid$[ebp]
  0008c	51		 push	 ecx
  0008d	e8 00 00 00 00	 call	 ??$_Med3@PAUtagAccessorySlot@@VAccessorySlotSort@@@std@@YAXPAUtagAccessorySlot@@00VAccessorySlotSort@@@Z ; std::_Med3<tagAccessorySlot *,AccessorySlotSort>
  00092	83 c4 10	 add	 esp, 16			; 00000010H
$LN1@Median:
  00095	5e		 pop	 esi
  00096	5b		 pop	 ebx

; 3706 : 	}

  00097	5d		 pop	 ebp
  00098	c3		 ret	 0
??$_Median@PAUtagAccessorySlot@@VAccessorySlotSort@@@std@@YAXPAUtagAccessorySlot@@00VAccessorySlotSort@@@Z ENDP ; std::_Median<tagAccessorySlot *,AccessorySlotSort>
_TEXT	ENDS
PUBLIC	??$_Make_heap@PAUtagAccessorySlot@@HU1@VAccessorySlotSort@@@std@@YAXPAUtagAccessorySlot@@0VAccessorySlotSort@@PAH0@Z ; std::_Make_heap<tagAccessorySlot *,int,tagAccessorySlot,AccessorySlotSort>
;	COMDAT xdata$x
; File c:\program files (x86)\microsoft visual studio 10.0\vc\include\utility
xdata$x	SEGMENT
__unwindtable$??$_Make_heap@PAUtagAccessorySlot@@HU1@VAccessorySlotSort@@@std@@YAXPAUtagAccessorySlot@@0VAccessorySlotSort@@PAH0@Z DD 0ffffffffH
	DD	FLAT:__unwindfunclet$??$_Make_heap@PAUtagAccessorySlot@@HU1@VAccessorySlotSort@@@std@@YAXPAUtagAccessorySlot@@0VAccessorySlotSort@@PAH0@Z$0
__ehfuncinfo$??$_Make_heap@PAUtagAccessorySlot@@HU1@VAccessorySlotSort@@@std@@YAXPAUtagAccessorySlot@@0VAccessorySlotSort@@PAH0@Z DD 019930522H
	DD	01H
	DD	FLAT:__unwindtable$??$_Make_heap@PAUtagAccessorySlot@@HU1@VAccessorySlotSort@@@std@@YAXPAUtagAccessorySlot@@0VAccessorySlotSort@@PAH0@Z
	DD	2 DUP(00H)
	DD	2 DUP(00H)
	DD	00H
	DD	01H
; Function compile flags: /Ogsp
; File c:\program files (x86)\microsoft visual studio 10.0\vc\include\algorithm
xdata$x	ENDS
;	COMDAT ??$_Make_heap@PAUtagAccessorySlot@@HU1@VAccessorySlotSort@@@std@@YAXPAUtagAccessorySlot@@0VAccessorySlotSort@@PAH0@Z
_TEXT	SEGMENT
__Val$506367 = -80					; size = 68
__$EHRec$ = -12						; size = 12
__First$ = 8						; size = 4
__Last$ = 12						; size = 4
__Pred$ = 16						; size = 1
___formal$ = 20						; size = 4
___formal$ = 24						; size = 4
??$_Make_heap@PAUtagAccessorySlot@@HU1@VAccessorySlotSort@@@std@@YAXPAUtagAccessorySlot@@0VAccessorySlotSort@@PAH0@Z PROC ; std::_Make_heap<tagAccessorySlot *,int,tagAccessorySlot,AccessorySlotSort>, COMDAT

; 2658 : 	{	// make nontrivial [_First, _Last) into a heap, using _Pred

  00000	6a 44		 push	 68			; 00000044H
  00002	b8 00 00 00 00	 mov	 eax, __ehhandler$??$_Make_heap@PAUtagAccessorySlot@@HU1@VAccessorySlotSort@@@std@@YAXPAUtagAccessorySlot@@0VAccessorySlotSort@@PAH0@Z
  00007	e8 00 00 00 00	 call	 __EH_prolog3

; 2659 : 	_Diff _Bottom = _Last - _First;

  0000c	8b 45 0c	 mov	 eax, DWORD PTR __Last$[ebp]
  0000f	2b 45 08	 sub	 eax, DWORD PTR __First$[ebp]
  00012	6a 44		 push	 68			; 00000044H
  00014	99		 cdq
  00015	59		 pop	 ecx
  00016	f7 f9		 idiv	 ecx
  00018	8b d8		 mov	 ebx, eax

; 2660 : 	for (_Diff _Hole = _Bottom / 2; 0 < _Hole; )

  0001a	99		 cdq
  0001b	2b c2		 sub	 eax, edx
  0001d	8b f0		 mov	 esi, eax
  0001f	d1 fe		 sar	 esi, 1
  00021	85 f6		 test	 esi, esi
  00023	7e 3d		 jle	 SHORT $LN1@Make_heap

; 2659 : 	_Diff _Bottom = _Last - _First;

  00025	8b fe		 mov	 edi, esi
  00027	6b ff 44	 imul	 edi, 68			; 00000044H
  0002a	03 7d 08	 add	 edi, DWORD PTR __First$[ebp]
$LN2@Make_heap:

; 2661 : 		{	// reheap top half, bottom to top
; 2662 : 		--_Hole;

  0002d	83 ef 44	 sub	 edi, 68			; 00000044H

; 2663 : 		_Ty _Val = _Move(*(_First + _Hole));

  00030	57		 push	 edi
  00031	8d 4d b0	 lea	 ecx, DWORD PTR __Val$506367[ebp]
  00034	4e		 dec	 esi
  00035	e8 00 00 00 00	 call	 ??0tagAccessorySlot@@QAE@ABU0@@Z

; 2664 : 		_Adjust_heap(_First, _Hole, _Bottom,
; 2665 : 			_Move(_Val), _Pred);

  0003a	ff 75 10	 push	 DWORD PTR __Pred$[ebp]
  0003d	83 65 fc 00	 and	 DWORD PTR __$EHRec$[ebp+8], 0
  00041	8d 45 b0	 lea	 eax, DWORD PTR __Val$506367[ebp]
  00044	50		 push	 eax
  00045	53		 push	 ebx
  00046	56		 push	 esi
  00047	ff 75 08	 push	 DWORD PTR __First$[ebp]
  0004a	e8 00 00 00 00	 call	 ??$_Adjust_heap@PAUtagAccessorySlot@@HU1@VAccessorySlotSort@@@std@@YAXPAUtagAccessorySlot@@HH$$QAU1@VAccessorySlotSort@@@Z ; std::_Adjust_heap<tagAccessorySlot *,int,tagAccessorySlot,AccessorySlotSort>

; 2666 : 		}

  0004f	83 4d fc ff	 or	 DWORD PTR __$EHRec$[ebp+8], -1
  00053	83 c4 14	 add	 esp, 20			; 00000014H
  00056	8d 4d b0	 lea	 ecx, DWORD PTR __Val$506367[ebp]
  00059	e8 00 00 00 00	 call	 ??1tagAccessorySlot@@QAE@XZ
  0005e	85 f6		 test	 esi, esi
  00060	7f cb		 jg	 SHORT $LN2@Make_heap
$LN1@Make_heap:

; 2667 : 	}

  00062	e8 00 00 00 00	 call	 __EH_epilog3
  00067	c3		 ret	 0
_TEXT	ENDS
;	COMDAT text$x
text$x	SEGMENT
__unwindfunclet$??$_Make_heap@PAUtagAccessorySlot@@HU1@VAccessorySlotSort@@@std@@YAXPAUtagAccessorySlot@@0VAccessorySlotSort@@PAH0@Z$0:
  00000	8d 4d b0	 lea	 ecx, DWORD PTR __Val$506367[ebp]
  00003	e9 00 00 00 00	 jmp	 ??1tagAccessorySlot@@QAE@XZ
__ehhandler$??$_Make_heap@PAUtagAccessorySlot@@HU1@VAccessorySlotSort@@@std@@YAXPAUtagAccessorySlot@@0VAccessorySlotSort@@PAH0@Z:
  00008	8b 54 24 08	 mov	 edx, DWORD PTR [esp+8]
  0000c	8d 42 0c	 lea	 eax, DWORD PTR [edx+12]
  0000f	8b 4a ac	 mov	 ecx, DWORD PTR [edx-84]
  00012	33 c8		 xor	 ecx, eax
  00014	e8 00 00 00 00	 call	 @__security_check_cookie@4
  00019	b8 00 00 00 00	 mov	 eax, OFFSET __ehfuncinfo$??$_Make_heap@PAUtagAccessorySlot@@HU1@VAccessorySlotSort@@@std@@YAXPAUtagAccessorySlot@@0VAccessorySlotSort@@PAH0@Z
  0001e	e9 00 00 00 00	 jmp	 ___CxxFrameHandler3
text$x	ENDS
??$_Make_heap@PAUtagAccessorySlot@@HU1@VAccessorySlotSort@@@std@@YAXPAUtagAccessorySlot@@0VAccessorySlotSort@@PAH0@Z ENDP ; std::_Make_heap<tagAccessorySlot *,int,tagAccessorySlot,AccessorySlotSort>
PUBLIC	??$_Pop_heap_0@PAUtagAccessorySlot@@U1@VAccessorySlotSort@@@std@@YAXPAUtagAccessorySlot@@0VAccessorySlotSort@@0@Z ; std::_Pop_heap_0<tagAccessorySlot *,tagAccessorySlot,AccessorySlotSort>
;	COMDAT xdata$x
; File c:\program files (x86)\microsoft visual studio 10.0\vc\include\utility
xdata$x	SEGMENT
__unwindtable$??$_Pop_heap_0@PAUtagAccessorySlot@@U1@VAccessorySlotSort@@@std@@YAXPAUtagAccessorySlot@@0VAccessorySlotSort@@0@Z DD 0ffffffffH
	DD	FLAT:__unwindfunclet$??$_Pop_heap_0@PAUtagAccessorySlot@@U1@VAccessorySlotSort@@@std@@YAXPAUtagAccessorySlot@@0VAccessorySlotSort@@0@Z$0
__ehfuncinfo$??$_Pop_heap_0@PAUtagAccessorySlot@@U1@VAccessorySlotSort@@@std@@YAXPAUtagAccessorySlot@@0VAccessorySlotSort@@0@Z DD 019930522H
	DD	01H
	DD	FLAT:__unwindtable$??$_Pop_heap_0@PAUtagAccessorySlot@@U1@VAccessorySlotSort@@@std@@YAXPAUtagAccessorySlot@@0VAccessorySlotSort@@0@Z
	DD	2 DUP(00H)
	DD	2 DUP(00H)
	DD	00H
	DD	01H
; Function compile flags: /Ogsp
; File c:\program files (x86)\microsoft visual studio 10.0\vc\include\algorithm
xdata$x	ENDS
;	COMDAT ??$_Pop_heap_0@PAUtagAccessorySlot@@U1@VAccessorySlotSort@@@std@@YAXPAUtagAccessorySlot@@0VAccessorySlotSort@@0@Z
_TEXT	SEGMENT
__Val$ = -80						; size = 68
__$EHRec$ = -12						; size = 12
__First$ = 8						; size = 4
__Last$ = 12						; size = 4
__Pred$ = 16						; size = 1
___formal$ = 20						; size = 4
??$_Pop_heap_0@PAUtagAccessorySlot@@U1@VAccessorySlotSort@@@std@@YAXPAUtagAccessorySlot@@0VAccessorySlotSort@@0@Z PROC ; std::_Pop_heap_0<tagAccessorySlot *,tagAccessorySlot,AccessorySlotSort>, COMDAT

; 2601 : 	{	// pop *_First to *(_Last - 1) and reheap, using _Pred

  00000	6a 44		 push	 68			; 00000044H
  00002	b8 00 00 00 00	 mov	 eax, __ehhandler$??$_Pop_heap_0@PAUtagAccessorySlot@@U1@VAccessorySlotSort@@@std@@YAXPAUtagAccessorySlot@@0VAccessorySlotSort@@0@Z
  00007	e8 00 00 00 00	 call	 __EH_prolog3

; 2602 : 	_Ty _Val = _Move(*(_Last - 1));

  0000c	8b 75 0c	 mov	 esi, DWORD PTR __Last$[ebp]
  0000f	83 c6 bc	 add	 esi, -68		; ffffffbcH
  00012	56		 push	 esi
  00013	8d 4d b0	 lea	 ecx, DWORD PTR __Val$[ebp]
  00016	e8 00 00 00 00	 call	 ??0tagAccessorySlot@@QAE@ABU0@@Z
  0001b	83 65 fc 00	 and	 DWORD PTR __$EHRec$[ebp+8], 0

; 2603 : 	_Pop_heap(_First, _Last - 1, _Last - 1,
; 2604 : 		_Move(_Val), _Pred, _Dist_type(_First));

  0001f	6a 00		 push	 0
  00021	ff 75 10	 push	 DWORD PTR __Pred$[ebp]
  00024	8d 45 b0	 lea	 eax, DWORD PTR __Val$[ebp]
  00027	50		 push	 eax
  00028	56		 push	 esi
  00029	56		 push	 esi
  0002a	ff 75 08	 push	 DWORD PTR __First$[ebp]
  0002d	e8 00 00 00 00	 call	 ??$_Pop_heap@PAUtagAccessorySlot@@HU1@VAccessorySlotSort@@@std@@YAXPAUtagAccessorySlot@@00$$QAU1@VAccessorySlotSort@@PAH@Z ; std::_Pop_heap<tagAccessorySlot *,int,tagAccessorySlot,AccessorySlotSort>

; 2605 : 	}

  00032	83 4d fc ff	 or	 DWORD PTR __$EHRec$[ebp+8], -1
  00036	83 c4 18	 add	 esp, 24			; 00000018H
  00039	8d 4d b0	 lea	 ecx, DWORD PTR __Val$[ebp]
  0003c	e8 00 00 00 00	 call	 ??1tagAccessorySlot@@QAE@XZ
  00041	e8 00 00 00 00	 call	 __EH_epilog3
  00046	c3		 ret	 0
_TEXT	ENDS
;	COMDAT text$x
text$x	SEGMENT
__unwindfunclet$??$_Pop_heap_0@PAUtagAccessorySlot@@U1@VAccessorySlotSort@@@std@@YAXPAUtagAccessorySlot@@0VAccessorySlotSort@@0@Z$0:
  00000	8d 4d b0	 lea	 ecx, DWORD PTR __Val$[ebp]
  00003	e9 00 00 00 00	 jmp	 ??1tagAccessorySlot@@QAE@XZ
__ehhandler$??$_Pop_heap_0@PAUtagAccessorySlot@@U1@VAccessorySlotSort@@@std@@YAXPAUtagAccessorySlot@@0VAccessorySlotSort@@0@Z:
  00008	8b 54 24 08	 mov	 edx, DWORD PTR [esp+8]
  0000c	8d 42 0c	 lea	 eax, DWORD PTR [edx+12]
  0000f	8b 4a ac	 mov	 ecx, DWORD PTR [edx-84]
  00012	33 c8		 xor	 ecx, eax
  00014	e8 00 00 00 00	 call	 @__security_check_cookie@4
  00019	b8 00 00 00 00	 mov	 eax, OFFSET __ehfuncinfo$??$_Pop_heap_0@PAUtagAccessorySlot@@U1@VAccessorySlotSort@@@std@@YAXPAUtagAccessorySlot@@0VAccessorySlotSort@@0@Z
  0001e	e9 00 00 00 00	 jmp	 ___CxxFrameHandler3
text$x	ENDS
??$_Pop_heap_0@PAUtagAccessorySlot@@U1@VAccessorySlotSort@@@std@@YAXPAUtagAccessorySlot@@0VAccessorySlotSort@@0@Z ENDP ; std::_Pop_heap_0<tagAccessorySlot *,tagAccessorySlot,AccessorySlotSort>
PUBLIC	??$_Destroy_range@V?$allocator@UtagAccessorySlot@@@std@@@std@@YAXPAUtagAccessorySlot@@0AAV?$allocator@UtagAccessorySlot@@@0@U_Nonscalar_ptr_iterator_tag@0@@Z ; std::_Destroy_range<std::allocator<tagAccessorySlot> >
; Function compile flags: /Ogsp
; File c:\program files (x86)\microsoft visual studio 10.0\vc\include\xmemory
;	COMDAT ??$_Destroy_range@V?$allocator@UtagAccessorySlot@@@std@@@std@@YAXPAUtagAccessorySlot@@0AAV?$allocator@UtagAccessorySlot@@@0@U_Nonscalar_ptr_iterator_tag@0@@Z
_TEXT	SEGMENT
__First$ = 8						; size = 4
__Last$ = 12						; size = 4
__Al$ = 16						; size = 4
___formal$ = 20						; size = 1
??$_Destroy_range@V?$allocator@UtagAccessorySlot@@@std@@@std@@YAXPAUtagAccessorySlot@@0AAV?$allocator@UtagAccessorySlot@@@0@U_Nonscalar_ptr_iterator_tag@0@@Z PROC ; std::_Destroy_range<std::allocator<tagAccessorySlot> >, COMDAT

; 95   : 	{	// destroy [_First, _Last), arbitrary type

  00000	55		 push	 ebp
  00001	8b ec		 mov	 ebp, esp
  00003	56		 push	 esi

; 96   : 	for (; _First != _Last; ++_First)

  00004	8b 75 08	 mov	 esi, DWORD PTR __First$[ebp]
  00007	eb 0a		 jmp	 SHORT $LN17@Destroy_ra
$LL3@Destroy_ra:

; 97   : 		_Dest_val(_Al, _First);

  00009	8b ce		 mov	 ecx, esi
  0000b	e8 00 00 00 00	 call	 ??1tagAccessorySlot@@QAE@XZ
  00010	83 c6 44	 add	 esi, 68			; 00000044H
$LN17@Destroy_ra:

; 96   : 	for (; _First != _Last; ++_First)

  00013	3b 75 0c	 cmp	 esi, DWORD PTR __Last$[ebp]
  00016	75 f1		 jne	 SHORT $LL3@Destroy_ra
  00018	5e		 pop	 esi

; 98   : 	}

  00019	5d		 pop	 ebp
  0001a	c3		 ret	 0
??$_Destroy_range@V?$allocator@UtagAccessorySlot@@@std@@@std@@YAXPAUtagAccessorySlot@@0AAV?$allocator@UtagAccessorySlot@@@0@U_Nonscalar_ptr_iterator_tag@0@@Z ENDP ; std::_Destroy_range<std::allocator<tagAccessorySlot> >
_TEXT	ENDS
PUBLIC	??$_Uninitialized_move@PAUtagAccessorySlot@@PAU1@V?$allocator@UtagAccessorySlot@@@std@@@std@@YAPAUtagAccessorySlot@@PAU1@00AAV?$allocator@UtagAccessorySlot@@@0@@Z ; std::_Uninitialized_move<tagAccessorySlot *,tagAccessorySlot *,std::allocator<tagAccessorySlot> >
; Function compile flags: /Ogsp
; File c:\program files (x86)\microsoft visual studio 10.0\vc\include\memory
;	COMDAT ??$_Uninitialized_move@PAUtagAccessorySlot@@PAU1@V?$allocator@UtagAccessorySlot@@@std@@@std@@YAPAUtagAccessorySlot@@PAU1@00AAV?$allocator@UtagAccessorySlot@@@0@@Z
_TEXT	SEGMENT
__Cat$507665 = -4					; size = 1
__First$ = 8						; size = 4
__Last$ = 12						; size = 4
__Dest$ = 16						; size = 4
__Al$ = 20						; size = 4
??$_Uninitialized_move@PAUtagAccessorySlot@@PAU1@V?$allocator@UtagAccessorySlot@@@std@@@std@@YAPAUtagAccessorySlot@@PAU1@00AAV?$allocator@UtagAccessorySlot@@@0@@Z PROC ; std::_Uninitialized_move<tagAccessorySlot *,tagAccessorySlot *,std::allocator<tagAccessorySlot> >, COMDAT

; 469  : 	{	// move [_First, _Last) to raw _Dest, using _Al

  00000	55		 push	 ebp
  00001	8b ec		 mov	 ebp, esp
  00003	51		 push	 ecx

; 470  : 	return (_Uninit_move(_First, _Last, _Dest, _Al,
; 471  : 		_Val_type(_First), _Ptr_cat(_First, _Dest)));

  00004	ff 75 fc	 push	 DWORD PTR __Cat$507665[ebp]
  00007	6a 00		 push	 0
  00009	ff 75 14	 push	 DWORD PTR __Al$[ebp]
  0000c	ff 75 10	 push	 DWORD PTR __Dest$[ebp]
  0000f	ff 75 0c	 push	 DWORD PTR __Last$[ebp]
  00012	ff 75 08	 push	 DWORD PTR __First$[ebp]
  00015	e8 00 00 00 00	 call	 ??$_Uninit_move@PAUtagAccessorySlot@@PAU1@V?$allocator@UtagAccessorySlot@@@std@@U1@@std@@YAPAUtagAccessorySlot@@PAU1@00AAV?$allocator@UtagAccessorySlot@@@0@0U_Nonscalar_ptr_iterator_tag@0@@Z ; std::_Uninit_move<tagAccessorySlot *,tagAccessorySlot *,std::allocator<tagAccessorySlot>,tagAccessorySlot>
  0001a	83 c4 18	 add	 esp, 24			; 00000018H

; 472  : 	}

  0001d	c9		 leave
  0001e	c3		 ret	 0
??$_Uninitialized_move@PAUtagAccessorySlot@@PAU1@V?$allocator@UtagAccessorySlot@@@std@@@std@@YAPAUtagAccessorySlot@@PAU1@00AAV?$allocator@UtagAccessorySlot@@@0@@Z ENDP ; std::_Uninitialized_move<tagAccessorySlot *,tagAccessorySlot *,std::allocator<tagAccessorySlot> >
_TEXT	ENDS
PUBLIC	??$_Unguarded_partition@PAUtagAccessorySlot@@VAccessorySlotSort@@@std@@YA?AU?$pair@PAUtagAccessorySlot@@PAU1@@0@PAUtagAccessorySlot@@0VAccessorySlotSort@@@Z ; std::_Unguarded_partition<tagAccessorySlot *,AccessorySlotSort>
; Function compile flags: /Ogsp
; File c:\program files (x86)\microsoft visual studio 10.0\vc\include\algorithm
;	COMDAT ??$_Unguarded_partition@PAUtagAccessorySlot@@VAccessorySlotSort@@@std@@YA?AU?$pair@PAUtagAccessorySlot@@PAU1@@0@PAUtagAccessorySlot@@0VAccessorySlotSort@@@Z
_TEXT	SEGMENT
tv352 = -8						; size = 4
tv264 = -8						; size = 4
__Glast$ = -4						; size = 4
___$ReturnUdt$ = 8					; size = 4
__First$ = 12						; size = 4
__Last$ = 16						; size = 4
__Pred$ = 20						; size = 1
??$_Unguarded_partition@PAUtagAccessorySlot@@VAccessorySlotSort@@@std@@YA?AU?$pair@PAUtagAccessorySlot@@PAU1@@0@PAUtagAccessorySlot@@0VAccessorySlotSort@@@Z PROC ; std::_Unguarded_partition<tagAccessorySlot *,AccessorySlotSort>, COMDAT

; 3712 : 	{	// partition [_First, _Last), using _Pred

  00000	55		 push	 ebp
  00001	8b ec		 mov	 ebp, esp
  00003	51		 push	 ecx
  00004	51		 push	 ecx

; 3713 : 	_RanIt _Mid = _First + (_Last - _First) / 2;

  00005	8b 4d 10	 mov	 ecx, DWORD PTR __Last$[ebp]
  00008	53		 push	 ebx
  00009	8b 5d 0c	 mov	 ebx, DWORD PTR __First$[ebp]
  0000c	56		 push	 esi
  0000d	57		 push	 edi
  0000e	8b c1		 mov	 eax, ecx
  00010	2b c3		 sub	 eax, ebx
  00012	6a 44		 push	 68			; 00000044H
  00014	5e		 pop	 esi
  00015	99		 cdq
  00016	f7 fe		 idiv	 esi

; 3714 : 	_Median(_First, _Mid, _Last - 1, _Pred);

  00018	ff 75 14	 push	 DWORD PTR __Pred$[ebp]
  0001b	83 c1 bc	 add	 ecx, -68		; ffffffbcH
  0001e	51		 push	 ecx
  0001f	99		 cdq
  00020	2b c2		 sub	 eax, edx
  00022	8b f0		 mov	 esi, eax
  00024	d1 fe		 sar	 esi, 1
  00026	6b f6 44	 imul	 esi, 68			; 00000044H
  00029	03 f3		 add	 esi, ebx
  0002b	56		 push	 esi
  0002c	53		 push	 ebx
  0002d	e8 00 00 00 00	 call	 ??$_Median@PAUtagAccessorySlot@@VAccessorySlotSort@@@std@@YAXPAUtagAccessorySlot@@00VAccessorySlotSort@@@Z ; std::_Median<tagAccessorySlot *,AccessorySlotSort>
  00032	83 c4 10	 add	 esp, 16			; 00000010H

; 3715 : 	_RanIt _Pfirst = _Mid;
; 3716 : 	_RanIt _Plast = _Pfirst + 1;

  00035	8d 7e 44	 lea	 edi, DWORD PTR [esi+68]
  00038	eb 27		 jmp	 SHORT $LN72@Unguarded_
$LL27@Unguarded_:

; 3717 : 
; 3718 : 	while (_First < _Pfirst
; 3719 : 		&& !_DEBUG_LT_PRED(_Pred, *(_Pfirst - 1), *_Pfirst)
; 3720 : 		&& !_Pred(*_Pfirst, *(_Pfirst - 1)))

  0003a	8d 46 bc	 lea	 eax, DWORD PTR [esi-68]
  0003d	56		 push	 esi
  0003e	50		 push	 eax
  0003f	8d 4d 14	 lea	 ecx, DWORD PTR __Pred$[ebp]
  00042	89 45 f8	 mov	 DWORD PTR tv264[ebp], eax
  00045	e8 00 00 00 00	 call	 ??RAccessorySlotSort@@QBE_NABUtagAccessorySlot@@0@Z ; AccessorySlotSort::operator()
  0004a	84 c0		 test	 al, al
  0004c	75 38		 jne	 SHORT $LN73@Unguarded_
  0004e	ff 75 f8	 push	 DWORD PTR tv264[ebp]
  00051	8d 4d 14	 lea	 ecx, DWORD PTR __Pred$[ebp]
  00054	56		 push	 esi
  00055	e8 00 00 00 00	 call	 ??RAccessorySlotSort@@QBE_NABUtagAccessorySlot@@0@Z ; AccessorySlotSort::operator()
  0005a	84 c0		 test	 al, al
  0005c	75 28		 jne	 SHORT $LN73@Unguarded_

; 3721 : 		--_Pfirst;

  0005e	8b 75 f8	 mov	 esi, DWORD PTR tv264[ebp]
$LN72@Unguarded_:

; 3717 : 
; 3718 : 	while (_First < _Pfirst
; 3719 : 		&& !_DEBUG_LT_PRED(_Pred, *(_Pfirst - 1), *_Pfirst)
; 3720 : 		&& !_Pred(*_Pfirst, *(_Pfirst - 1)))

  00061	3b de		 cmp	 ebx, esi
  00063	72 d5		 jb	 SHORT $LL27@Unguarded_

; 3725 : 		++_Plast;

  00065	eb 1f		 jmp	 SHORT $LN73@Unguarded_
$LL25@Unguarded_:

; 3722 : 	while (_Plast < _Last
; 3723 : 		&& !_DEBUG_LT_PRED(_Pred, *_Plast, *_Pfirst)
; 3724 : 		&& !_Pred(*_Pfirst, *_Plast))

  00067	56		 push	 esi
  00068	57		 push	 edi
  00069	8d 4d 14	 lea	 ecx, DWORD PTR __Pred$[ebp]
  0006c	e8 00 00 00 00	 call	 ??RAccessorySlotSort@@QBE_NABUtagAccessorySlot@@0@Z ; AccessorySlotSort::operator()
  00071	84 c0		 test	 al, al
  00073	75 16		 jne	 SHORT $LN24@Unguarded_
  00075	57		 push	 edi
  00076	56		 push	 esi
  00077	8d 4d 14	 lea	 ecx, DWORD PTR __Pred$[ebp]
  0007a	e8 00 00 00 00	 call	 ??RAccessorySlotSort@@QBE_NABUtagAccessorySlot@@0@Z ; AccessorySlotSort::operator()
  0007f	84 c0		 test	 al, al
  00081	75 08		 jne	 SHORT $LN24@Unguarded_

; 3725 : 		++_Plast;

  00083	83 c7 44	 add	 edi, 68			; 00000044H
$LN73@Unguarded_:

; 3722 : 	while (_Plast < _Last
; 3723 : 		&& !_DEBUG_LT_PRED(_Pred, *_Plast, *_Pfirst)
; 3724 : 		&& !_Pred(*_Pfirst, *_Plast))

  00086	3b 7d 10	 cmp	 edi, DWORD PTR __Last$[ebp]
  00089	72 dc		 jb	 SHORT $LL25@Unguarded_
$LN24@Unguarded_:

; 3726 : 
; 3727 : 	_RanIt _Gfirst = _Plast;

  0008b	8b df		 mov	 ebx, edi

; 3728 : 	_RanIt _Glast = _Pfirst;

  0008d	89 75 fc	 mov	 DWORD PTR __Glast$[ebp], esi

; 3729 : 
; 3730 : 	for (; ; )
; 3731 : 		{	// partition
; 3732 : 		for (; _Gfirst < _Last; ++_Gfirst)

  00090	eb 2d		 jmp	 SHORT $LN75@Unguarded_
$LL21@Unguarded_:

; 3733 : 			if (_DEBUG_LT_PRED(_Pred, *_Pfirst, *_Gfirst))

  00092	53		 push	 ebx
  00093	56		 push	 esi
  00094	8d 4d 14	 lea	 ecx, DWORD PTR __Pred$[ebp]
  00097	e8 00 00 00 00	 call	 ??RAccessorySlotSort@@QBE_NABUtagAccessorySlot@@0@Z ; AccessorySlotSort::operator()
  0009c	84 c0		 test	 al, al
  0009e	75 1c		 jne	 SHORT $LN20@Unguarded_

; 3734 : 				;
; 3735 : 			else if (_Pred(*_Gfirst, *_Pfirst))

  000a0	56		 push	 esi
  000a1	53		 push	 ebx
  000a2	8d 4d 14	 lea	 ecx, DWORD PTR __Pred$[ebp]
  000a5	e8 00 00 00 00	 call	 ??RAccessorySlotSort@@QBE_NABUtagAccessorySlot@@0@Z ; AccessorySlotSort::operator()
  000aa	84 c0		 test	 al, al
  000ac	75 16		 jne	 SHORT $LN69@Unguarded_

; 3736 : 				break;
; 3737 : 			else
; 3738 : 				_STD iter_swap(_Plast++, _Gfirst);

  000ae	8b c7		 mov	 eax, edi
  000b0	53		 push	 ebx
  000b1	83 c7 44	 add	 edi, 68			; 00000044H
  000b4	50		 push	 eax
$LN76@Unguarded_:
  000b5	e8 00 00 00 00	 call	 ??$swap@UtagAccessorySlot@@@std@@YAXAAUtagAccessorySlot@@0@Z ; std::swap<tagAccessorySlot>
  000ba	59		 pop	 ecx
  000bb	59		 pop	 ecx
$LN20@Unguarded_:

; 3729 : 
; 3730 : 	for (; ; )
; 3731 : 		{	// partition
; 3732 : 		for (; _Gfirst < _Last; ++_Gfirst)

  000bc	83 c3 44	 add	 ebx, 68			; 00000044H
$LN75@Unguarded_:
  000bf	3b 5d 10	 cmp	 ebx, DWORD PTR __Last$[ebp]
  000c2	72 ce		 jb	 SHORT $LL21@Unguarded_
$LN69@Unguarded_:

; 3739 : 		for (; _First < _Glast; --_Glast)

  000c4	8b 45 fc	 mov	 eax, DWORD PTR __Glast$[ebp]
  000c7	39 45 0c	 cmp	 DWORD PTR __First$[ebp], eax
  000ca	73 44		 jae	 SHORT $LN71@Unguarded_
  000cc	83 c0 bc	 add	 eax, -68		; ffffffbcH
  000cf	89 45 f8	 mov	 DWORD PTR tv352[ebp], eax
$LL70@Unguarded_:

; 3740 : 			if (_DEBUG_LT_PRED(_Pred, *(_Glast - 1), *_Pfirst))

  000d2	56		 push	 esi
  000d3	ff 75 f8	 push	 DWORD PTR tv352[ebp]
  000d6	8d 4d 14	 lea	 ecx, DWORD PTR __Pred$[ebp]
  000d9	e8 00 00 00 00	 call	 ??RAccessorySlotSort@@QBE_NABUtagAccessorySlot@@0@Z ; AccessorySlotSort::operator()
  000de	84 c0		 test	 al, al
  000e0	75 1e		 jne	 SHORT $LN13@Unguarded_

; 3741 : 				;
; 3742 : 			else if (_Pred(*_Pfirst, *(_Glast - 1)))

  000e2	ff 75 f8	 push	 DWORD PTR tv352[ebp]
  000e5	8d 4d 14	 lea	 ecx, DWORD PTR __Pred$[ebp]
  000e8	56		 push	 esi
  000e9	e8 00 00 00 00	 call	 ??RAccessorySlotSort@@QBE_NABUtagAccessorySlot@@0@Z ; AccessorySlotSort::operator()
  000ee	84 c0		 test	 al, al
  000f0	75 1e		 jne	 SHORT $LN71@Unguarded_

; 3743 : 				break;
; 3744 : 			else
; 3745 : 				_STD iter_swap(--_Pfirst, _Glast - 1);

  000f2	ff 75 f8	 push	 DWORD PTR tv352[ebp]
  000f5	83 ee 44	 sub	 esi, 68			; 00000044H
  000f8	56		 push	 esi
  000f9	e8 00 00 00 00	 call	 ??$swap@UtagAccessorySlot@@@std@@YAXAAUtagAccessorySlot@@0@Z ; std::swap<tagAccessorySlot>
  000fe	59		 pop	 ecx
  000ff	59		 pop	 ecx
$LN13@Unguarded_:

; 3739 : 		for (; _First < _Glast; --_Glast)

  00100	83 6d fc 44	 sub	 DWORD PTR __Glast$[ebp], 68 ; 00000044H
  00104	8b 45 0c	 mov	 eax, DWORD PTR __First$[ebp]
  00107	83 6d f8 44	 sub	 DWORD PTR tv352[ebp], 68 ; 00000044H
  0010b	3b 45 fc	 cmp	 eax, DWORD PTR __Glast$[ebp]
  0010e	72 c2		 jb	 SHORT $LL70@Unguarded_
$LN71@Unguarded_:

; 3746 : 		if (_Glast == _First && _Gfirst == _Last)

  00110	8b 45 fc	 mov	 eax, DWORD PTR __Glast$[ebp]
  00113	3b 45 0c	 cmp	 eax, DWORD PTR __First$[ebp]
  00116	75 1f		 jne	 SHORT $LN6@Unguarded_
  00118	3b 5d 10	 cmp	 ebx, DWORD PTR __Last$[ebp]
  0011b	74 4d		 je	 SHORT $LN64@Unguarded_

; 3748 : 
; 3749 : 		if (_Glast == _First)
; 3750 : 			{	// no room at bottom, rotate pivot upward
; 3751 : 			if (_Plast != _Gfirst)

  0011d	3b fb		 cmp	 edi, ebx
  0011f	74 09		 je	 SHORT $LN46@Unguarded_

; 3752 : 				_STD iter_swap(_Pfirst, _Plast);

  00121	57		 push	 edi
  00122	56		 push	 esi
  00123	e8 00 00 00 00	 call	 ??$swap@UtagAccessorySlot@@@std@@YAXAAUtagAccessorySlot@@0@Z ; std::swap<tagAccessorySlot>
  00128	59		 pop	 ecx
  00129	59		 pop	 ecx
$LN46@Unguarded_:

; 3753 : 			++_Plast;
; 3754 : 			_STD iter_swap(_Pfirst++, _Gfirst++);

  0012a	53		 push	 ebx
  0012b	56		 push	 esi
  0012c	83 c7 44	 add	 edi, 68			; 00000044H
  0012f	83 c6 44	 add	 esi, 68			; 00000044H
  00132	83 c3 44	 add	 ebx, 68			; 00000044H
  00135	eb 20		 jmp	 SHORT $LN74@Unguarded_
$LN6@Unguarded_:

; 3755 : 			}
; 3756 : 		else if (_Gfirst == _Last)
; 3757 : 			{	// no room at top, rotate pivot downward
; 3758 : 			if (--_Glast != --_Pfirst)

  00137	83 e8 44	 sub	 eax, 68			; 00000044H
  0013a	89 45 fc	 mov	 DWORD PTR __Glast$[ebp], eax
  0013d	3b 5d 10	 cmp	 ebx, DWORD PTR __Last$[ebp]
  00140	75 21		 jne	 SHORT $LN3@Unguarded_
  00142	83 ee 44	 sub	 esi, 68			; 00000044H
  00145	3b c6		 cmp	 eax, esi
  00147	74 09		 je	 SHORT $LN50@Unguarded_

; 3759 : 				_STD iter_swap(_Glast, _Pfirst);

  00149	56		 push	 esi
  0014a	50		 push	 eax
  0014b	e8 00 00 00 00	 call	 ??$swap@UtagAccessorySlot@@@std@@YAXAAUtagAccessorySlot@@0@Z ; std::swap<tagAccessorySlot>
  00150	59		 pop	 ecx
  00151	59		 pop	 ecx
$LN50@Unguarded_:

; 3760 : 			_STD iter_swap(_Pfirst, --_Plast);

  00152	83 ef 44	 sub	 edi, 68			; 00000044H
  00155	57		 push	 edi
  00156	56		 push	 esi
$LN74@Unguarded_:
  00157	e8 00 00 00 00	 call	 ??$swap@UtagAccessorySlot@@@std@@YAXAAUtagAccessorySlot@@0@Z ; std::swap<tagAccessorySlot>
  0015c	59		 pop	 ecx
  0015d	59		 pop	 ecx

; 3761 : 			}
; 3762 : 		else

  0015e	e9 5c ff ff ff	 jmp	 $LN75@Unguarded_
$LN3@Unguarded_:

; 3763 : 			_STD iter_swap(_Gfirst++, --_Glast);

  00163	50		 push	 eax
  00164	53		 push	 ebx

; 3764 : 		}

  00165	e9 4b ff ff ff	 jmp	 $LN76@Unguarded_
$LN64@Unguarded_:

; 3747 : 			return (_STD pair<_RanIt, _RanIt>(_Pfirst, _Plast));

  0016a	8b 45 08	 mov	 eax, DWORD PTR ___$ReturnUdt$[ebp]
  0016d	89 78 04	 mov	 DWORD PTR [eax+4], edi
  00170	5f		 pop	 edi
  00171	89 30		 mov	 DWORD PTR [eax], esi
  00173	5e		 pop	 esi
  00174	5b		 pop	 ebx

; 3765 : 	}

  00175	c9		 leave
  00176	c3		 ret	 0
??$_Unguarded_partition@PAUtagAccessorySlot@@VAccessorySlotSort@@@std@@YA?AU?$pair@PAUtagAccessorySlot@@PAU1@@0@PAUtagAccessorySlot@@0VAccessorySlotSort@@@Z ENDP ; std::_Unguarded_partition<tagAccessorySlot *,AccessorySlotSort>
_TEXT	ENDS
PUBLIC	??$make_heap@PAUtagAccessorySlot@@VAccessorySlotSort@@@std@@YAXPAUtagAccessorySlot@@0VAccessorySlotSort@@@Z ; std::make_heap<tagAccessorySlot *,AccessorySlotSort>
; Function compile flags: /Ogsp
;	COMDAT ??$make_heap@PAUtagAccessorySlot@@VAccessorySlotSort@@@std@@YAXPAUtagAccessorySlot@@0VAccessorySlotSort@@@Z
_TEXT	SEGMENT
__First$ = 8						; size = 4
__Last$ = 12						; size = 4
__Pred$ = 16						; size = 1
??$make_heap@PAUtagAccessorySlot@@VAccessorySlotSort@@@std@@YAXPAUtagAccessorySlot@@0VAccessorySlotSort@@@Z PROC ; std::make_heap<tagAccessorySlot *,AccessorySlotSort>, COMDAT

; 2672 : 	{	// make [_First, _Last) into a heap, using _Pred

  00000	55		 push	 ebp
  00001	8b ec		 mov	 ebp, esp

; 2673 : 	_DEBUG_RANGE(_First, _Last);
; 2674 : 	_DEBUG_POINTER(_Pred);
; 2675 : 	if (1 < _Last - _First)

  00003	8b 45 0c	 mov	 eax, DWORD PTR __Last$[ebp]
  00006	2b 45 08	 sub	 eax, DWORD PTR __First$[ebp]
  00009	6a 44		 push	 68			; 00000044H
  0000b	99		 cdq
  0000c	59		 pop	 ecx
  0000d	f7 f9		 idiv	 ecx
  0000f	83 f8 01	 cmp	 eax, 1
  00012	7e 15		 jle	 SHORT $LN1@make_heap

; 2676 : 		_Make_heap(_Unchecked(_First), _Unchecked(_Last), _Pred,
; 2677 : 			_Dist_type(_First), _Val_type(_First));

  00014	6a 00		 push	 0
  00016	6a 00		 push	 0
  00018	ff 75 10	 push	 DWORD PTR __Pred$[ebp]
  0001b	ff 75 0c	 push	 DWORD PTR __Last$[ebp]
  0001e	ff 75 08	 push	 DWORD PTR __First$[ebp]
  00021	e8 00 00 00 00	 call	 ??$_Make_heap@PAUtagAccessorySlot@@HU1@VAccessorySlotSort@@@std@@YAXPAUtagAccessorySlot@@0VAccessorySlotSort@@PAH0@Z ; std::_Make_heap<tagAccessorySlot *,int,tagAccessorySlot,AccessorySlotSort>
  00026	83 c4 14	 add	 esp, 20			; 00000014H
$LN1@make_heap:

; 2678 : 	}

  00029	5d		 pop	 ebp
  0002a	c3		 ret	 0
??$make_heap@PAUtagAccessorySlot@@VAccessorySlotSort@@@std@@YAXPAUtagAccessorySlot@@0VAccessorySlotSort@@@Z ENDP ; std::make_heap<tagAccessorySlot *,AccessorySlotSort>
_TEXT	ENDS
PUBLIC	??$_Pop_heap@PAUtagAccessorySlot@@VAccessorySlotSort@@@std@@YAXPAUtagAccessorySlot@@0VAccessorySlotSort@@@Z ; std::_Pop_heap<tagAccessorySlot *,AccessorySlotSort>
; Function compile flags: /Ogsp
;	COMDAT ??$_Pop_heap@PAUtagAccessorySlot@@VAccessorySlotSort@@@std@@YAXPAUtagAccessorySlot@@0VAccessorySlotSort@@@Z
_TEXT	SEGMENT
__First$ = 8						; size = 4
__Last$ = 12						; size = 4
__Pred$ = 16						; size = 1
??$_Pop_heap@PAUtagAccessorySlot@@VAccessorySlotSort@@@std@@YAXPAUtagAccessorySlot@@0VAccessorySlotSort@@@Z PROC ; std::_Pop_heap<tagAccessorySlot *,AccessorySlotSort>, COMDAT

; 2610 : 	{	// pop *_First to *(_Last - 1) and reheap, using _Pred

  00000	55		 push	 ebp
  00001	8b ec		 mov	 ebp, esp

; 2611 : 	_Pop_heap_0(_Unchecked(_First), _Unchecked(_Last), _Pred,
; 2612 : 		_Val_type(_First));

  00003	6a 00		 push	 0
  00005	ff 75 10	 push	 DWORD PTR __Pred$[ebp]
  00008	ff 75 0c	 push	 DWORD PTR __Last$[ebp]
  0000b	ff 75 08	 push	 DWORD PTR __First$[ebp]
  0000e	e8 00 00 00 00	 call	 ??$_Pop_heap_0@PAUtagAccessorySlot@@U1@VAccessorySlotSort@@@std@@YAXPAUtagAccessorySlot@@0VAccessorySlotSort@@0@Z ; std::_Pop_heap_0<tagAccessorySlot *,tagAccessorySlot,AccessorySlotSort>
  00013	83 c4 10	 add	 esp, 16			; 00000010H

; 2613 : 	}

  00016	5d		 pop	 ebp
  00017	c3		 ret	 0
??$_Pop_heap@PAUtagAccessorySlot@@VAccessorySlotSort@@@std@@YAXPAUtagAccessorySlot@@0VAccessorySlotSort@@@Z ENDP ; std::_Pop_heap<tagAccessorySlot *,AccessorySlotSort>
_TEXT	ENDS
PUBLIC	??$_Destroy_range@V?$allocator@UtagAccessorySlot@@@std@@@std@@YAXPAUtagAccessorySlot@@0AAV?$allocator@UtagAccessorySlot@@@0@@Z ; std::_Destroy_range<std::allocator<tagAccessorySlot> >
; Function compile flags: /Ogsp
; File c:\program files (x86)\microsoft visual studio 10.0\vc\include\xmemory
;	COMDAT ??$_Destroy_range@V?$allocator@UtagAccessorySlot@@@std@@@std@@YAXPAUtagAccessorySlot@@0AAV?$allocator@UtagAccessorySlot@@@0@@Z
_TEXT	SEGMENT
__First$ = 8						; size = 4
__Last$ = 12						; size = 4
__Al$ = 16						; size = 4
??$_Destroy_range@V?$allocator@UtagAccessorySlot@@@std@@@std@@YAXPAUtagAccessorySlot@@0AAV?$allocator@UtagAccessorySlot@@@0@@Z PROC ; std::_Destroy_range<std::allocator<tagAccessorySlot> >, COMDAT

; 87   : 	{	// destroy [_First, _Last)

  00000	55		 push	 ebp
  00001	8b ec		 mov	 ebp, esp
  00003	56		 push	 esi

; 88   : 	_Destroy_range(_First, _Last, _Al, _Ptr_cat(_First, _Last));

  00004	8b 75 08	 mov	 esi, DWORD PTR __First$[ebp]
  00007	eb 0a		 jmp	 SHORT $LN21@Destroy_ra@2
$LL7@Destroy_ra@2:
  00009	8b ce		 mov	 ecx, esi
  0000b	e8 00 00 00 00	 call	 ??1tagAccessorySlot@@QAE@XZ
  00010	83 c6 44	 add	 esi, 68			; 00000044H
$LN21@Destroy_ra@2:
  00013	3b 75 0c	 cmp	 esi, DWORD PTR __Last$[ebp]
  00016	75 f1		 jne	 SHORT $LL7@Destroy_ra@2
  00018	5e		 pop	 esi

; 89   : 	}

  00019	5d		 pop	 ebp
  0001a	c3		 ret	 0
??$_Destroy_range@V?$allocator@UtagAccessorySlot@@@std@@@std@@YAXPAUtagAccessorySlot@@0AAV?$allocator@UtagAccessorySlot@@@0@@Z ENDP ; std::_Destroy_range<std::allocator<tagAccessorySlot> >
_TEXT	ENDS
PUBLIC	??$_Umove@PAUtagAccessorySlot@@@?$vector@UtagAccessorySlot@@V?$allocator@UtagAccessorySlot@@@std@@@std@@IAEPAUtagAccessorySlot@@PAU2@00@Z ; std::vector<tagAccessorySlot,std::allocator<tagAccessorySlot> >::_Umove<tagAccessorySlot *>
; Function compile flags: /Ogsp
; File c:\program files (x86)\microsoft visual studio 10.0\vc\include\vector
;	COMDAT ??$_Umove@PAUtagAccessorySlot@@@?$vector@UtagAccessorySlot@@V?$allocator@UtagAccessorySlot@@@std@@@std@@IAEPAUtagAccessorySlot@@PAU2@00@Z
_TEXT	SEGMENT
__First$ = 8						; size = 4
__Last$ = 12						; size = 4
__Ptr$ = 16						; size = 4
??$_Umove@PAUtagAccessorySlot@@@?$vector@UtagAccessorySlot@@V?$allocator@UtagAccessorySlot@@@std@@@std@@IAEPAUtagAccessorySlot@@PAU2@00@Z PROC ; std::vector<tagAccessorySlot,std::allocator<tagAccessorySlot> >::_Umove<tagAccessorySlot *>, COMDAT
; _this$ = ecx

; 1322 : 		pointer _Umove(_Iter _First, _Iter _Last, pointer _Ptr)

  00000	55		 push	 ebp
  00001	8b ec		 mov	 ebp, esp

; 1323 : 		{	// move initializing [_First, _Last), using allocator
; 1324 : 		return (_Uninitialized_move(_First, _Last,
; 1325 : 			_Ptr, this->_Alval));

  00003	83 c1 0c	 add	 ecx, 12			; 0000000cH
  00006	51		 push	 ecx
  00007	ff 75 10	 push	 DWORD PTR __Ptr$[ebp]
  0000a	ff 75 0c	 push	 DWORD PTR __Last$[ebp]
  0000d	ff 75 08	 push	 DWORD PTR __First$[ebp]
  00010	e8 00 00 00 00	 call	 ??$_Uninitialized_move@PAUtagAccessorySlot@@PAU1@V?$allocator@UtagAccessorySlot@@@std@@@std@@YAPAUtagAccessorySlot@@PAU1@00AAV?$allocator@UtagAccessorySlot@@@0@@Z ; std::_Uninitialized_move<tagAccessorySlot *,tagAccessorySlot *,std::allocator<tagAccessorySlot> >
  00015	83 c4 10	 add	 esp, 16			; 00000010H

; 1326 : 		}

  00018	5d		 pop	 ebp
  00019	c2 0c 00	 ret	 12			; 0000000cH
??$_Umove@PAUtagAccessorySlot@@@?$vector@UtagAccessorySlot@@V?$allocator@UtagAccessorySlot@@@std@@@std@@IAEPAUtagAccessorySlot@@PAU2@00@Z ENDP ; std::vector<tagAccessorySlot,std::allocator<tagAccessorySlot> >::_Umove<tagAccessorySlot *>
_TEXT	ENDS
PUBLIC	??$_Sort_heap@PAUtagAccessorySlot@@VAccessorySlotSort@@@std@@YAXPAUtagAccessorySlot@@0VAccessorySlotSort@@@Z ; std::_Sort_heap<tagAccessorySlot *,AccessorySlotSort>
; Function compile flags: /Ogsp
; File c:\program files (x86)\microsoft visual studio 10.0\vc\include\algorithm
;	COMDAT ??$_Sort_heap@PAUtagAccessorySlot@@VAccessorySlotSort@@@std@@YAXPAUtagAccessorySlot@@0VAccessorySlotSort@@@Z
_TEXT	SEGMENT
__First$ = 8						; size = 4
__Last$ = 12						; size = 4
__Pred$ = 16						; size = 1
??$_Sort_heap@PAUtagAccessorySlot@@VAccessorySlotSort@@@std@@YAXPAUtagAccessorySlot@@0VAccessorySlotSort@@@Z PROC ; std::_Sort_heap<tagAccessorySlot *,AccessorySlotSort>, COMDAT

; 2700 : 	{	// order heap by repeatedly popping, using _Pred

  00000	55		 push	 ebp
  00001	8b ec		 mov	 ebp, esp

; 2701 : 	for (; 1 < _Last - _First; --_Last)

  00003	8b 4d 0c	 mov	 ecx, DWORD PTR __Last$[ebp]
  00006	2b 4d 08	 sub	 ecx, DWORD PTR __First$[ebp]
  00009	57		 push	 edi
  0000a	8b c1		 mov	 eax, ecx
  0000c	6a 44		 push	 68			; 00000044H
  0000e	99		 cdq
  0000f	5f		 pop	 edi
  00010	f7 ff		 idiv	 edi
  00012	83 f8 01	 cmp	 eax, 1
  00015	7e 29		 jle	 SHORT $LN1@Sort_heap
  00017	8b f9		 mov	 edi, ecx
$LL3@Sort_heap:

; 2702 : 		_Pop_heap(_First, _Last, _Pred);

  00019	6a 00		 push	 0
  0001b	ff 75 10	 push	 DWORD PTR __Pred$[ebp]
  0001e	ff 75 0c	 push	 DWORD PTR __Last$[ebp]
  00021	ff 75 08	 push	 DWORD PTR __First$[ebp]
  00024	e8 00 00 00 00	 call	 ??$_Pop_heap_0@PAUtagAccessorySlot@@U1@VAccessorySlotSort@@@std@@YAXPAUtagAccessorySlot@@0VAccessorySlotSort@@0@Z ; std::_Pop_heap_0<tagAccessorySlot *,tagAccessorySlot,AccessorySlotSort>
  00029	83 c4 10	 add	 esp, 16			; 00000010H
  0002c	83 ef 44	 sub	 edi, 68			; 00000044H
  0002f	8b c7		 mov	 eax, edi
  00031	6a 44		 push	 68			; 00000044H
  00033	99		 cdq
  00034	59		 pop	 ecx
  00035	f7 f9		 idiv	 ecx
  00037	83 6d 0c 44	 sub	 DWORD PTR __Last$[ebp], 68 ; 00000044H
  0003b	83 f8 01	 cmp	 eax, 1
  0003e	7f d9		 jg	 SHORT $LL3@Sort_heap
$LN1@Sort_heap:
  00040	5f		 pop	 edi

; 2703 : 	}

  00041	5d		 pop	 ebp
  00042	c3		 ret	 0
??$_Sort_heap@PAUtagAccessorySlot@@VAccessorySlotSort@@@std@@YAXPAUtagAccessorySlot@@0VAccessorySlotSort@@@Z ENDP ; std::_Sort_heap<tagAccessorySlot *,AccessorySlotSort>
_TEXT	ENDS
PUBLIC	?_Destroy@?$vector@UtagAccessorySlot@@V?$allocator@UtagAccessorySlot@@@std@@@std@@IAEXPAUtagAccessorySlot@@0@Z ; std::vector<tagAccessorySlot,std::allocator<tagAccessorySlot> >::_Destroy
; Function compile flags: /Ogsp
; File c:\program files (x86)\microsoft visual studio 10.0\vc\include\vector
;	COMDAT ?_Destroy@?$vector@UtagAccessorySlot@@V?$allocator@UtagAccessorySlot@@@std@@@std@@IAEXPAUtagAccessorySlot@@0@Z
_TEXT	SEGMENT
__First$ = 8						; size = 4
__Last$ = 12						; size = 4
?_Destroy@?$vector@UtagAccessorySlot@@V?$allocator@UtagAccessorySlot@@@std@@@std@@IAEXPAUtagAccessorySlot@@0@Z PROC ; std::vector<tagAccessorySlot,std::allocator<tagAccessorySlot> >::_Destroy, COMDAT
; _this$ = ecx

; 1269 : 		{	// destroy [_First, _Last) using allocator

  00000	55		 push	 ebp
  00001	8b ec		 mov	 ebp, esp
  00003	56		 push	 esi

; 1270 : 		_Destroy_range(_First, _Last, this->_Alval);

  00004	8b 75 08	 mov	 esi, DWORD PTR __First$[ebp]
  00007	eb 0a		 jmp	 SHORT $LN23@Destroy
$LL9@Destroy:
  00009	8b ce		 mov	 ecx, esi
  0000b	e8 00 00 00 00	 call	 ??1tagAccessorySlot@@QAE@XZ
  00010	83 c6 44	 add	 esi, 68			; 00000044H
$LN23@Destroy:
  00013	3b 75 0c	 cmp	 esi, DWORD PTR __Last$[ebp]
  00016	75 f1		 jne	 SHORT $LL9@Destroy
  00018	5e		 pop	 esi

; 1271 : 		}

  00019	5d		 pop	 ebp
  0001a	c2 08 00	 ret	 8
?_Destroy@?$vector@UtagAccessorySlot@@V?$allocator@UtagAccessorySlot@@@std@@@std@@IAEXPAUtagAccessorySlot@@0@Z ENDP ; std::vector<tagAccessorySlot,std::allocator<tagAccessorySlot> >::_Destroy
_TEXT	ENDS
PUBLIC	?_Tidy@?$vector@UtagAccessorySlot@@V?$allocator@UtagAccessorySlot@@@std@@@std@@IAEXXZ ; std::vector<tagAccessorySlot,std::allocator<tagAccessorySlot> >::_Tidy
EXTRN	__imp_?_Orphan_all@_Container_base0@std@@QAEXXZ:PROC
; Function compile flags: /Ogsp
;	COMDAT ?_Tidy@?$vector@UtagAccessorySlot@@V?$allocator@UtagAccessorySlot@@@std@@@std@@IAEXXZ
_TEXT	SEGMENT
?_Tidy@?$vector@UtagAccessorySlot@@V?$allocator@UtagAccessorySlot@@@std@@@std@@IAEXXZ PROC ; std::vector<tagAccessorySlot,std::allocator<tagAccessorySlot> >::_Tidy, COMDAT
; _this$ = ecx

; 1301 : 		{	// free all storage

  00000	56		 push	 esi
  00001	8b f1		 mov	 esi, ecx

; 1302 : 		if (this->_Myfirst != 0)

  00003	83 3e 00	 cmp	 DWORD PTR [esi], 0
  00006	74 27		 je	 SHORT $LN24@Tidy

; 1303 : 			{	// something to free, destroy and deallocate it
; 1304 : 			this->_Orphan_all();

  00008	53		 push	 ebx
  00009	57		 push	 edi
  0000a	ff 15 00 00 00
	00		 call	 DWORD PTR __imp_?_Orphan_all@_Container_base0@std@@QAEXXZ

; 1305 : 			_Destroy(this->_Myfirst, this->_Mylast);

  00010	8b 5e 04	 mov	 ebx, DWORD PTR [esi+4]
  00013	8b 3e		 mov	 edi, DWORD PTR [esi]
  00015	eb 0a		 jmp	 SHORT $LN28@Tidy
$LL12@Tidy:
  00017	8b cf		 mov	 ecx, edi
  00019	e8 00 00 00 00	 call	 ??1tagAccessorySlot@@QAE@XZ
  0001e	83 c7 44	 add	 edi, 68			; 00000044H
$LN28@Tidy:
  00021	3b fb		 cmp	 edi, ebx
  00023	75 f2		 jne	 SHORT $LL12@Tidy

; 1306 : 			this->_Alval.deallocate(this->_Myfirst,
; 1307 : 				this->_Myend - this->_Myfirst);

  00025	ff 36		 push	 DWORD PTR [esi]
  00027	e8 00 00 00 00	 call	 ??3@YAXPAX@Z		; operator delete
  0002c	59		 pop	 ecx
  0002d	5f		 pop	 edi
  0002e	5b		 pop	 ebx
$LN24@Tidy:

; 1308 : 			}
; 1309 : 		this->_Myfirst = 0;

  0002f	33 c0		 xor	 eax, eax
  00031	89 06		 mov	 DWORD PTR [esi], eax

; 1310 : 		this->_Mylast = 0;

  00033	89 46 04	 mov	 DWORD PTR [esi+4], eax

; 1311 : 		this->_Myend = 0;

  00036	89 46 08	 mov	 DWORD PTR [esi+8], eax
  00039	5e		 pop	 esi

; 1312 : 		}

  0003a	c3		 ret	 0
?_Tidy@?$vector@UtagAccessorySlot@@V?$allocator@UtagAccessorySlot@@@std@@@std@@IAEXXZ ENDP ; std::vector<tagAccessorySlot,std::allocator<tagAccessorySlot> >::_Tidy
_TEXT	ENDS
PUBLIC	?reserve@?$vector@UtagAccessorySlot@@V?$allocator@UtagAccessorySlot@@@std@@@std@@QAEXI@Z ; std::vector<tagAccessorySlot,std::allocator<tagAccessorySlot> >::reserve
;	COMDAT xdata$x
; File c:\program files (x86)\microsoft visual studio 10.0\vc\include\xmemory
xdata$x	SEGMENT
__catchsym$?reserve@?$vector@UtagAccessorySlot@@V?$allocator@UtagAccessorySlot@@@std@@@std@@QAEXI@Z$2 DD 040H
	DD	00H
	DD	00H
	DD	FLAT:__catch$?reserve@?$vector@UtagAccessorySlot@@V?$allocator@UtagAccessorySlot@@@std@@@std@@QAEXI@Z$0
__unwindtable$?reserve@?$vector@UtagAccessorySlot@@V?$allocator@UtagAccessorySlot@@@std@@@std@@QAEXI@Z DD 0ffffffffH
	DD	00H
	DD	0ffffffffH
	DD	00H
__tryblocktable$?reserve@?$vector@UtagAccessorySlot@@V?$allocator@UtagAccessorySlot@@@std@@@std@@QAEXI@Z DD 00H
	DD	00H
	DD	01H
	DD	01H
	DD	FLAT:__catchsym$?reserve@?$vector@UtagAccessorySlot@@V?$allocator@UtagAccessorySlot@@@std@@@std@@QAEXI@Z$2
__ehfuncinfo$?reserve@?$vector@UtagAccessorySlot@@V?$allocator@UtagAccessorySlot@@@std@@@std@@QAEXI@Z DD 019930522H
	DD	02H
	DD	FLAT:__unwindtable$?reserve@?$vector@UtagAccessorySlot@@V?$allocator@UtagAccessorySlot@@@std@@@std@@QAEXI@Z
	DD	01H
	DD	FLAT:__tryblocktable$?reserve@?$vector@UtagAccessorySlot@@V?$allocator@UtagAccessorySlot@@@std@@@std@@QAEXI@Z
	DD	2 DUP(00H)
	DD	00H
	DD	01H
; Function compile flags: /Ogsp
; File c:\program files (x86)\microsoft visual studio 10.0\vc\include\vector
xdata$x	ENDS
;	COMDAT ?reserve@?$vector@UtagAccessorySlot@@V?$allocator@UtagAccessorySlot@@@std@@@std@@QAEXI@Z
_TEXT	SEGMENT
__Ptr$505506 = -24					; size = 4
$T508133 = -20						; size = 4
__$EHRec$ = -16						; size = 16
__Count$ = 8						; size = 4
?reserve@?$vector@UtagAccessorySlot@@V?$allocator@UtagAccessorySlot@@@std@@@std@@QAEXI@Z PROC ; std::vector<tagAccessorySlot,std::allocator<tagAccessorySlot> >::reserve, COMDAT
; _this$ = ecx

; 746  : 		{	// determine new minimum length of allocated storage

  00000	6a 0c		 push	 12			; 0000000cH
  00002	b8 00 00 00 00	 mov	 eax, __ehhandler$?reserve@?$vector@UtagAccessorySlot@@V?$allocator@UtagAccessorySlot@@@std@@@std@@QAEXI@Z
  00007	e8 00 00 00 00	 call	 __EH_prolog3_catch
  0000c	8b f1		 mov	 esi, ecx

; 747  : 		if (max_size() < _Count)

  0000e	81 7d 08 c3 c3
	c3 03		 cmp	 DWORD PTR __Count$[ebp], 63161283 ; 03c3c3c3H
  00015	76 0b		 jbe	 SHORT $LN5@reserve

; 748  : 			_Xlen();	// result too long

  00017	68 00 00 00 00	 push	 OFFSET ??_C@_0BD@OLBABOEK@vector?$DMT?$DO?5too?5long?$AA@
  0001c	ff 15 00 00 00
	00		 call	 DWORD PTR __imp_?_Xlength_error@std@@YAXPBD@Z
$LN59@reserve:
$LN5@reserve:

; 749  : 		else if (capacity() < _Count)

  00022	8b 46 08	 mov	 eax, DWORD PTR [esi+8]
  00025	2b 06		 sub	 eax, DWORD PTR [esi]
  00027	6a 44		 push	 68			; 00000044H
  00029	99		 cdq
  0002a	59		 pop	 ecx
  0002b	f7 f9		 idiv	 ecx
  0002d	3b 45 08	 cmp	 eax, DWORD PTR __Count$[ebp]
  00030	0f 83 80 00 00
	00		 jae	 $LN3@reserve

; 750  : 			{	// not enough room, reallocate
; 751  : 			pointer _Ptr = this->_Alval.allocate(_Count);

  00036	6a 00		 push	 0
  00038	ff 75 08	 push	 DWORD PTR __Count$[ebp]
  0003b	e8 00 00 00 00	 call	 ??$_Allocate@UtagAccessorySlot@@@std@@YAPAUtagAccessorySlot@@IPAU1@@Z ; std::_Allocate<tagAccessorySlot>

; 752  : 
; 753  : 			_TRY_BEGIN
; 754  : 			_Umove(this->_Myfirst, this->_Mylast, _Ptr);

  00040	8b 0e		 mov	 ecx, DWORD PTR [esi]
  00042	83 65 fc 00	 and	 DWORD PTR __$EHRec$[ebp+12], 0
  00046	8d 56 0c	 lea	 edx, DWORD PTR [esi+12]
  00049	52		 push	 edx
  0004a	89 45 e8	 mov	 DWORD PTR __Ptr$505506[ebp], eax
  0004d	ff 75 e8	 push	 DWORD PTR __Ptr$505506[ebp]
  00050	8b 46 04	 mov	 eax, DWORD PTR [esi+4]
  00053	50		 push	 eax
  00054	51		 push	 ecx
  00055	e8 00 00 00 00	 call	 ??$_Uninitialized_move@PAUtagAccessorySlot@@PAU1@V?$allocator@UtagAccessorySlot@@@std@@@std@@YAPAUtagAccessorySlot@@PAU1@00AAV?$allocator@UtagAccessorySlot@@@0@@Z ; std::_Uninitialized_move<tagAccessorySlot *,tagAccessorySlot *,std::allocator<tagAccessorySlot> >

; 758  : 			_CATCH_END
; 759  : 
; 760  : 			size_type _Size = size();

  0005a	8b 5e 04	 mov	 ebx, DWORD PTR [esi+4]
  0005d	8b 0e		 mov	 ecx, DWORD PTR [esi]
  0005f	83 c4 18	 add	 esp, 24			; 00000018H
  00062	8b c3		 mov	 eax, ebx
  00064	2b c1		 sub	 eax, ecx
  00066	6a 44		 push	 68			; 00000044H
  00068	99		 cdq
  00069	5f		 pop	 edi
  0006a	f7 ff		 idiv	 edi
  0006c	83 4d fc ff	 or	 DWORD PTR __$EHRec$[ebp+12], -1
  00070	8b f8		 mov	 edi, eax
  00072	85 c9		 test	 ecx, ecx
  00074	74 20		 je	 SHORT $LN51@reserve

; 761  : 			if (this->_Myfirst != 0)
; 762  : 				{	// destroy and deallocate old array
; 763  : 				_Destroy(this->_Myfirst, this->_Mylast);

  00076	89 4d ec	 mov	 DWORD PTR $T508133[ebp], ecx
  00079	3b cb		 cmp	 ecx, ebx
  0007b	74 11		 je	 SHORT $LN37@reserve
$LN39@reserve:
  0007d	8b 4d ec	 mov	 ecx, DWORD PTR $T508133[ebp]
  00080	e8 00 00 00 00	 call	 ??1tagAccessorySlot@@QAE@XZ
  00085	83 45 ec 44	 add	 DWORD PTR $T508133[ebp], 68 ; 00000044H
  00089	39 5d ec	 cmp	 DWORD PTR $T508133[ebp], ebx
  0008c	75 ef		 jne	 SHORT $LN39@reserve
$LN37@reserve:

; 764  : 				this->_Alval.deallocate(this->_Myfirst,
; 765  : 					this->_Myend - this->_Myfirst);

  0008e	ff 36		 push	 DWORD PTR [esi]
  00090	e8 00 00 00 00	 call	 ??3@YAXPAX@Z		; operator delete
  00095	59		 pop	 ecx
$LN51@reserve:

; 766  : 				}
; 767  : 
; 768  : 			this->_Orphan_all();

  00096	8b ce		 mov	 ecx, esi
  00098	ff 15 00 00 00
	00		 call	 DWORD PTR __imp_?_Orphan_all@_Container_base0@std@@QAEXXZ

; 769  : 			this->_Myend = _Ptr + _Count;
; 770  : 			this->_Mylast = _Ptr + _Size;

  0009e	6b ff 44	 imul	 edi, 68			; 00000044H
  000a1	8b 45 08	 mov	 eax, DWORD PTR __Count$[ebp]
  000a4	8b 4d e8	 mov	 ecx, DWORD PTR __Ptr$505506[ebp]
  000a7	6b c0 44	 imul	 eax, 68			; 00000044H
  000aa	03 c1		 add	 eax, ecx
  000ac	03 f9		 add	 edi, ecx
  000ae	89 46 08	 mov	 DWORD PTR [esi+8], eax
  000b1	89 7e 04	 mov	 DWORD PTR [esi+4], edi

; 771  : 			this->_Myfirst = _Ptr;

  000b4	89 0e		 mov	 DWORD PTR [esi], ecx
$LN3@reserve:

; 772  : 			}
; 773  : 		}

  000b6	e8 00 00 00 00	 call	 __EH_epilog3
  000bb	c2 04 00	 ret	 4
__catch$?reserve@?$vector@UtagAccessorySlot@@V?$allocator@UtagAccessorySlot@@@std@@@std@@QAEXI@Z$0:

; 755  : 			_CATCH_ALL
; 756  : 			this->_Alval.deallocate(_Ptr, _Count);

  000be	ff 75 e8	 push	 DWORD PTR __Ptr$505506[ebp]
  000c1	e8 00 00 00 00	 call	 ??3@YAXPAX@Z		; operator delete
  000c6	59		 pop	 ecx

; 757  : 			_RERAISE;

  000c7	6a 00		 push	 0
  000c9	6a 00		 push	 0
  000cb	e8 00 00 00 00	 call	 __CxxThrowException@8
$LN60@reserve:
$LN58@reserve:
  000d0	cc		 int	 3
_TEXT	ENDS
;	COMDAT text$x
text$x	SEGMENT
__ehhandler$?reserve@?$vector@UtagAccessorySlot@@V?$allocator@UtagAccessorySlot@@@std@@@std@@QAEXI@Z:
  00000	8b 54 24 08	 mov	 edx, DWORD PTR [esp+8]
  00004	8d 42 0c	 lea	 eax, DWORD PTR [edx+12]
  00007	8b 4a e4	 mov	 ecx, DWORD PTR [edx-28]
  0000a	33 c8		 xor	 ecx, eax
  0000c	e8 00 00 00 00	 call	 @__security_check_cookie@4
  00011	b8 00 00 00 00	 mov	 eax, OFFSET __ehfuncinfo$?reserve@?$vector@UtagAccessorySlot@@V?$allocator@UtagAccessorySlot@@@std@@@std@@QAEXI@Z
  00016	e9 00 00 00 00	 jmp	 ___CxxFrameHandler3
text$x	ENDS
?reserve@?$vector@UtagAccessorySlot@@V?$allocator@UtagAccessorySlot@@@std@@@std@@QAEXI@Z ENDP ; std::vector<tagAccessorySlot,std::allocator<tagAccessorySlot> >::reserve
PUBLIC	??$sort_heap@PAUtagAccessorySlot@@VAccessorySlotSort@@@std@@YAXPAUtagAccessorySlot@@0VAccessorySlotSort@@@Z ; std::sort_heap<tagAccessorySlot *,AccessorySlotSort>
; Function compile flags: /Ogsp
; File c:\program files (x86)\microsoft visual studio 10.0\vc\include\algorithm
;	COMDAT ??$sort_heap@PAUtagAccessorySlot@@VAccessorySlotSort@@@std@@YAXPAUtagAccessorySlot@@0VAccessorySlotSort@@@Z
_TEXT	SEGMENT
__First$ = 8						; size = 4
__Last$ = 12						; size = 4
__Pred$ = 16						; size = 1
??$sort_heap@PAUtagAccessorySlot@@VAccessorySlotSort@@@std@@YAXPAUtagAccessorySlot@@0VAccessorySlotSort@@@Z PROC ; std::sort_heap<tagAccessorySlot *,AccessorySlotSort>, COMDAT

; 2708 : 	{	// order heap by repeatedly popping, using _Pred

  00000	55		 push	 ebp
  00001	8b ec		 mov	 ebp, esp

; 2709 : 	_DEBUG_RANGE(_First, _Last);
; 2710 : 	_DEBUG_POINTER(_Pred);
; 2711 : 	_DEBUG_HEAP_PRED(_First, _Last, _Pred);
; 2712 : 	_Sort_heap(_Unchecked(_First), _Unchecked(_Last), _Pred);

  00003	ff 75 10	 push	 DWORD PTR __Pred$[ebp]
  00006	ff 75 0c	 push	 DWORD PTR __Last$[ebp]
  00009	ff 75 08	 push	 DWORD PTR __First$[ebp]
  0000c	e8 00 00 00 00	 call	 ??$_Sort_heap@PAUtagAccessorySlot@@VAccessorySlotSort@@@std@@YAXPAUtagAccessorySlot@@0VAccessorySlotSort@@@Z ; std::_Sort_heap<tagAccessorySlot *,AccessorySlotSort>
  00011	83 c4 0c	 add	 esp, 12			; 0000000cH

; 2713 : 	}

  00014	5d		 pop	 ebp
  00015	c3		 ret	 0
??$sort_heap@PAUtagAccessorySlot@@VAccessorySlotSort@@@std@@YAXPAUtagAccessorySlot@@0VAccessorySlotSort@@@Z ENDP ; std::sort_heap<tagAccessorySlot *,AccessorySlotSort>
_TEXT	ENDS
PUBLIC	??1?$vector@UtagAccessorySlot@@V?$allocator@UtagAccessorySlot@@@std@@@std@@QAE@XZ ; std::vector<tagAccessorySlot,std::allocator<tagAccessorySlot> >::~vector<tagAccessorySlot,std::allocator<tagAccessorySlot> >
; Function compile flags: /Ogsp
; File c:\program files (x86)\microsoft visual studio 10.0\vc\include\vector
;	COMDAT ??1?$vector@UtagAccessorySlot@@V?$allocator@UtagAccessorySlot@@@std@@@std@@QAE@XZ
_TEXT	SEGMENT
??1?$vector@UtagAccessorySlot@@V?$allocator@UtagAccessorySlot@@@std@@@std@@QAE@XZ PROC ; std::vector<tagAccessorySlot,std::allocator<tagAccessorySlot> >::~vector<tagAccessorySlot,std::allocator<tagAccessorySlot> >, COMDAT
; _this$ = ecx

; 705  : 		_Tidy();

  00000	e9 00 00 00 00	 jmp	 ?_Tidy@?$vector@UtagAccessorySlot@@V?$allocator@UtagAccessorySlot@@@std@@@std@@IAEXXZ ; std::vector<tagAccessorySlot,std::allocator<tagAccessorySlot> >::_Tidy
??1?$vector@UtagAccessorySlot@@V?$allocator@UtagAccessorySlot@@@std@@@std@@QAE@XZ ENDP ; std::vector<tagAccessorySlot,std::allocator<tagAccessorySlot> >::~vector<tagAccessorySlot,std::allocator<tagAccessorySlot> >
_TEXT	ENDS
PUBLIC	?erase@?$vector@UtagAccessorySlot@@V?$allocator@UtagAccessorySlot@@@std@@@std@@QAE?AV?$_Vector_iterator@V?$_Vector_val@UtagAccessorySlot@@V?$allocator@UtagAccessorySlot@@@std@@@std@@@2@V?$_Vector_const_iterator@V?$_Vector_val@UtagAccessorySlot@@V?$allocator@UtagAccessorySlot@@@std@@@std@@@2@@Z ; std::vector<tagAccessorySlot,std::allocator<tagAccessorySlot> >::erase
; Function compile flags: /Ogsp
;	COMDAT ?erase@?$vector@UtagAccessorySlot@@V?$allocator@UtagAccessorySlot@@@std@@@std@@QAE?AV?$_Vector_iterator@V?$_Vector_val@UtagAccessorySlot@@V?$allocator@UtagAccessorySlot@@@std@@@std@@@2@V?$_Vector_const_iterator@V?$_Vector_val@UtagAccessorySlot@@V?$allocator@UtagAccessorySlot@@@std@@@std@@@2@@Z
_TEXT	SEGMENT
___$ReturnUdt$ = 8					; size = 4
__Cat$508224 = 12					; size = 1
__Where$ = 12						; size = 4
?erase@?$vector@UtagAccessorySlot@@V?$allocator@UtagAccessorySlot@@@std@@@std@@QAE?AV?$_Vector_iterator@V?$_Vector_val@UtagAccessorySlot@@V?$allocator@UtagAccessorySlot@@@std@@@std@@@2@V?$_Vector_const_iterator@V?$_Vector_val@UtagAccessorySlot@@V?$allocator@UtagAccessorySlot@@@std@@@std@@@2@@Z PROC ; std::vector<tagAccessorySlot,std::allocator<tagAccessorySlot> >::erase, COMDAT
; _this$ = ecx

; 1179 : 		{	// erase element at where

  00000	55		 push	 ebp
  00001	8b ec		 mov	 ebp, esp

; 1180 : 		_Move(_VIPTR(_Where) + 1, this->_Mylast,
; 1181 : 			_VIPTR(_Where));

  00003	8b 45 0c	 mov	 eax, DWORD PTR __Where$[ebp]
  00006	53		 push	 ebx
  00007	56		 push	 esi
  00008	57		 push	 edi
  00009	ff 75 0c	 push	 DWORD PTR __Cat$508224[ebp]
  0000c	8b f1		 mov	 esi, ecx
  0000e	50		 push	 eax
  0000f	ff 76 04	 push	 DWORD PTR [esi+4]
  00012	83 c0 44	 add	 eax, 68			; 00000044H
  00015	50		 push	 eax
  00016	e8 00 00 00 00	 call	 ??$_Move@PAUtagAccessorySlot@@PAU1@@std@@YAPAUtagAccessorySlot@@PAU1@00U_Nonscalar_ptr_iterator_tag@0@@Z ; std::_Move<tagAccessorySlot *,tagAccessorySlot *>

; 1182 : 		_Destroy(this->_Mylast - 1, this->_Mylast);

  0001b	8b 7e 04	 mov	 edi, DWORD PTR [esi+4]
  0001e	83 c4 10	 add	 esp, 16			; 00000010H
  00021	8d 5f bc	 lea	 ebx, DWORD PTR [edi-68]
  00024	eb 0a		 jmp	 SHORT $LN37@erase
$LL15@erase:
  00026	8b cb		 mov	 ecx, ebx
  00028	e8 00 00 00 00	 call	 ??1tagAccessorySlot@@QAE@XZ
  0002d	83 c3 44	 add	 ebx, 68			; 00000044H
$LN37@erase:
  00030	3b df		 cmp	 ebx, edi
  00032	75 f2		 jne	 SHORT $LL15@erase

; 1183 : 		--this->_Mylast;

  00034	83 46 04 bc	 add	 DWORD PTR [esi+4], -68	; ffffffbcH

; 1184 : 		return (_Make_iter(_Where));

  00038	8b 45 08	 mov	 eax, DWORD PTR ___$ReturnUdt$[ebp]
  0003b	8b 4d 0c	 mov	 ecx, DWORD PTR __Where$[ebp]
  0003e	5f		 pop	 edi
  0003f	5e		 pop	 esi
  00040	89 08		 mov	 DWORD PTR [eax], ecx
  00042	5b		 pop	 ebx

; 1185 : 		}

  00043	5d		 pop	 ebp
  00044	c2 08 00	 ret	 8
?erase@?$vector@UtagAccessorySlot@@V?$allocator@UtagAccessorySlot@@@std@@@std@@QAE?AV?$_Vector_iterator@V?$_Vector_val@UtagAccessorySlot@@V?$allocator@UtagAccessorySlot@@@std@@@std@@@2@V?$_Vector_const_iterator@V?$_Vector_val@UtagAccessorySlot@@V?$allocator@UtagAccessorySlot@@@std@@@std@@@2@@Z ENDP ; std::vector<tagAccessorySlot,std::allocator<tagAccessorySlot> >::erase
_TEXT	ENDS
PUBLIC	?erase@?$vector@UtagAccessorySlot@@V?$allocator@UtagAccessorySlot@@@std@@@std@@QAE?AV?$_Vector_iterator@V?$_Vector_val@UtagAccessorySlot@@V?$allocator@UtagAccessorySlot@@@std@@@std@@@2@V?$_Vector_const_iterator@V?$_Vector_val@UtagAccessorySlot@@V?$allocator@UtagAccessorySlot@@@std@@@std@@@2@0@Z ; std::vector<tagAccessorySlot,std::allocator<tagAccessorySlot> >::erase
; Function compile flags: /Ogsp
;	COMDAT ?erase@?$vector@UtagAccessorySlot@@V?$allocator@UtagAccessorySlot@@@std@@@std@@QAE?AV?$_Vector_iterator@V?$_Vector_val@UtagAccessorySlot@@V?$allocator@UtagAccessorySlot@@@std@@@std@@@2@V?$_Vector_const_iterator@V?$_Vector_val@UtagAccessorySlot@@V?$allocator@UtagAccessorySlot@@@std@@@std@@@2@0@Z
_TEXT	SEGMENT
$T508480 = -4						; size = 4
___$ReturnUdt$ = 8					; size = 4
__First_arg$ = 12					; size = 4
__Cat$508424 = 16					; size = 1
__Last_arg$ = 16					; size = 4
?erase@?$vector@UtagAccessorySlot@@V?$allocator@UtagAccessorySlot@@@std@@@std@@QAE?AV?$_Vector_iterator@V?$_Vector_val@UtagAccessorySlot@@V?$allocator@UtagAccessorySlot@@@std@@@std@@@2@V?$_Vector_const_iterator@V?$_Vector_val@UtagAccessorySlot@@V?$allocator@UtagAccessorySlot@@@std@@@std@@@2@0@Z PROC ; std::vector<tagAccessorySlot,std::allocator<tagAccessorySlot> >::erase, COMDAT
; _this$ = ecx

; 1190 : 		{	// erase [_First, _Last)

  00000	55		 push	 ebp
  00001	8b ec		 mov	 ebp, esp
  00003	51		 push	 ecx

; 1191 : 		iterator _First = _Make_iter(_First_arg);

  00004	8b 45 08	 mov	 eax, DWORD PTR ___$ReturnUdt$[ebp]
  00007	56		 push	 esi
  00008	8b f1		 mov	 esi, ecx
  0000a	8b 4d 0c	 mov	 ecx, DWORD PTR __First_arg$[ebp]
  0000d	89 08		 mov	 DWORD PTR [eax], ecx

; 1192 : 		iterator _Last = _Make_iter(_Last_arg);
; 1193 : 
; 1194 : 		if (_First != _Last)

  0000f	3b 4d 10	 cmp	 ecx, DWORD PTR __Last_arg$[ebp]
  00012	74 37		 je	 SHORT $LN1@erase@2

; 1195 : 			{	// worth doing, copy down over hole
; 1196 :  #if _ITERATOR_DEBUG_LEVEL == 2
; 1197 : 			if (_Last < _First || _VICONT(_First) != this
; 1198 : 				|| _VIPTR(_First) < this->_Myfirst
; 1199 : 				|| this->_Mylast < _VIPTR(_Last))
; 1200 : 				_DEBUG_ERROR("vector erase iterator outside range");
; 1201 : 			pointer _Ptr = _Move(_VIPTR(_Last), this->_Mylast,
; 1202 : 				_VIPTR(_First));
; 1203 : 			_Orphan_range(_VIPTR(_First), this->_Mylast);
; 1204 : 
; 1205 :  #else /* _ITERATOR_DEBUG_LEVEL == 2 */
; 1206 : 			pointer _Ptr = _Move(_VIPTR(_Last), this->_Mylast,
; 1207 : 				_VIPTR(_First));

  00014	8b 46 04	 mov	 eax, DWORD PTR [esi+4]
  00017	53		 push	 ebx
  00018	57		 push	 edi
  00019	ff 75 10	 push	 DWORD PTR __Cat$508424[ebp]
  0001c	51		 push	 ecx
  0001d	50		 push	 eax
  0001e	ff 75 10	 push	 DWORD PTR __Last_arg$[ebp]
  00021	e8 00 00 00 00	 call	 ??$_Move@PAUtagAccessorySlot@@PAU1@@std@@YAPAUtagAccessorySlot@@PAU1@00U_Nonscalar_ptr_iterator_tag@0@@Z ; std::_Move<tagAccessorySlot *,tagAccessorySlot *>

; 1208 :  #endif /* _ITERATOR_DEBUG_LEVEL == 2 */
; 1209 : 
; 1210 : 			_Destroy(_Ptr, this->_Mylast);

  00026	8b 7e 04	 mov	 edi, DWORD PTR [esi+4]
  00029	8b d8		 mov	 ebx, eax
  0002b	83 c4 10	 add	 esp, 16			; 00000010H
  0002e	89 5d fc	 mov	 DWORD PTR $T508480[ebp], ebx
  00031	3b df		 cmp	 ebx, edi
  00033	74 11		 je	 SHORT $LN36@erase@2
$LL52@erase@2:
  00035	8b 4d fc	 mov	 ecx, DWORD PTR $T508480[ebp]
  00038	e8 00 00 00 00	 call	 ??1tagAccessorySlot@@QAE@XZ
  0003d	83 45 fc 44	 add	 DWORD PTR $T508480[ebp], 68 ; 00000044H
  00041	39 7d fc	 cmp	 DWORD PTR $T508480[ebp], edi
  00044	75 ef		 jne	 SHORT $LL52@erase@2
$LN36@erase@2:

; 1211 : 			this->_Mylast = _Ptr;

  00046	5f		 pop	 edi
  00047	89 5e 04	 mov	 DWORD PTR [esi+4], ebx
  0004a	5b		 pop	 ebx
$LN1@erase@2:

; 1212 : 			}
; 1213 : 		return (_First);

  0004b	8b 45 08	 mov	 eax, DWORD PTR ___$ReturnUdt$[ebp]
  0004e	5e		 pop	 esi

; 1214 : 		}

  0004f	c9		 leave
  00050	c2 0c 00	 ret	 12			; 0000000cH
?erase@?$vector@UtagAccessorySlot@@V?$allocator@UtagAccessorySlot@@@std@@@std@@QAE?AV?$_Vector_iterator@V?$_Vector_val@UtagAccessorySlot@@V?$allocator@UtagAccessorySlot@@@std@@@std@@@2@V?$_Vector_const_iterator@V?$_Vector_val@UtagAccessorySlot@@V?$allocator@UtagAccessorySlot@@@std@@@std@@@2@0@Z ENDP ; std::vector<tagAccessorySlot,std::allocator<tagAccessorySlot> >::erase
_TEXT	ENDS
PUBLIC	?_Reserve@?$vector@UtagAccessorySlot@@V?$allocator@UtagAccessorySlot@@@std@@@std@@IAEXI@Z ; std::vector<tagAccessorySlot,std::allocator<tagAccessorySlot> >::_Reserve
; Function compile flags: /Ogsp
;	COMDAT ?_Reserve@?$vector@UtagAccessorySlot@@V?$allocator@UtagAccessorySlot@@@std@@@std@@IAEXI@Z
_TEXT	SEGMENT
__Count$ = 8						; size = 4
?_Reserve@?$vector@UtagAccessorySlot@@V?$allocator@UtagAccessorySlot@@@std@@@std@@IAEXI@Z PROC ; std::vector<tagAccessorySlot,std::allocator<tagAccessorySlot> >::_Reserve, COMDAT
; _this$ = ecx

; 1290 : 		{	// ensure room for _Count new elements, grow exponentially

  00000	55		 push	 ebp
  00001	8b ec		 mov	 ebp, esp
  00003	56		 push	 esi
  00004	8b f1		 mov	 esi, ecx

; 1291 : 		size_type _Size = size();

  00006	8b 0e		 mov	 ecx, DWORD PTR [esi]
  00008	8b 46 04	 mov	 eax, DWORD PTR [esi+4]
  0000b	2b c1		 sub	 eax, ecx
  0000d	57		 push	 edi
  0000e	99		 cdq
  0000f	6a 44		 push	 68			; 00000044H
  00011	5f		 pop	 edi
  00012	f7 ff		 idiv	 edi
  00014	8b f8		 mov	 edi, eax

; 1292 : 		if (max_size() - _Count < _Size)

  00016	b8 c3 c3 c3 03	 mov	 eax, 63161283		; 03c3c3c3H
  0001b	2b 45 08	 sub	 eax, DWORD PTR __Count$[ebp]
  0001e	3b c7		 cmp	 eax, edi
  00020	73 0b		 jae	 SHORT $LN4@Reserve

; 1293 : 			_Xlen();

  00022	68 00 00 00 00	 push	 OFFSET ??_C@_0BD@OLBABOEK@vector?$DMT?$DO?5too?5long?$AA@
  00027	ff 15 00 00 00
	00		 call	 DWORD PTR __imp_?_Xlength_error@std@@YAXPBD@Z
$LN21@Reserve:
$LN4@Reserve:

; 1294 : 		else if ((_Size += _Count) <= capacity())

  0002d	8b 46 08	 mov	 eax, DWORD PTR [esi+8]
  00030	2b c1		 sub	 eax, ecx
  00032	6a 44		 push	 68			; 00000044H
  00034	99		 cdq
  00035	59		 pop	 ecx
  00036	f7 f9		 idiv	 ecx
  00038	03 7d 08	 add	 edi, DWORD PTR __Count$[ebp]
  0003b	3b f8		 cmp	 edi, eax
  0003d	76 10		 jbe	 SHORT $LN1@Reserve

; 1295 : 			;
; 1296 : 		else
; 1297 : 			reserve(_Grow_to(_Size));

  0003f	57		 push	 edi
  00040	8b ce		 mov	 ecx, esi
  00042	e8 00 00 00 00	 call	 ?_Grow_to@?$vector@UtagAccessorySlot@@V?$allocator@UtagAccessorySlot@@@std@@@std@@IBEII@Z ; std::vector<tagAccessorySlot,std::allocator<tagAccessorySlot> >::_Grow_to
  00047	50		 push	 eax
  00048	8b ce		 mov	 ecx, esi
  0004a	e8 00 00 00 00	 call	 ?reserve@?$vector@UtagAccessorySlot@@V?$allocator@UtagAccessorySlot@@@std@@@std@@QAEXI@Z ; std::vector<tagAccessorySlot,std::allocator<tagAccessorySlot> >::reserve
$LN1@Reserve:
  0004f	5f		 pop	 edi
  00050	5e		 pop	 esi

; 1298 : 		}

  00051	5d		 pop	 ebp
  00052	c2 04 00	 ret	 4
$LN20@Reserve:
?_Reserve@?$vector@UtagAccessorySlot@@V?$allocator@UtagAccessorySlot@@@std@@@std@@IAEXI@Z ENDP ; std::vector<tagAccessorySlot,std::allocator<tagAccessorySlot> >::_Reserve
_TEXT	ENDS
PUBLIC	??$_Sort@PAUtagAccessorySlot@@HVAccessorySlotSort@@@std@@YAXPAUtagAccessorySlot@@0HVAccessorySlotSort@@@Z ; std::_Sort<tagAccessorySlot *,int,AccessorySlotSort>
; Function compile flags: /Ogsp
; File c:\program files (x86)\microsoft visual studio 10.0\vc\include\algorithm
;	COMDAT ??$_Sort@PAUtagAccessorySlot@@HVAccessorySlotSort@@@std@@YAXPAUtagAccessorySlot@@0HVAccessorySlotSort@@@Z
_TEXT	SEGMENT
__Mid$506015 = -8					; size = 8
__First$ = 8						; size = 4
__Last$ = 12						; size = 4
__Ideal$ = 16						; size = 4
__Pred$ = 20						; size = 1
??$_Sort@PAUtagAccessorySlot@@HVAccessorySlotSort@@@std@@YAXPAUtagAccessorySlot@@0HVAccessorySlotSort@@@Z PROC ; std::_Sort<tagAccessorySlot *,int,AccessorySlotSort>, COMDAT

; 3771 : 	{	// order [_First, _Last), using _Pred

  00000	55		 push	 ebp
  00001	8b ec		 mov	 ebp, esp
  00003	51		 push	 ecx
  00004	51		 push	 ecx
  00005	53		 push	 ebx

; 3772 : 	_Diff _Count;
; 3773 : 	for (; _ISORT_MAX < (_Count = _Last - _First) && 0 < _Ideal; )

  00006	8b 5d 08	 mov	 ebx, DWORD PTR __First$[ebp]
  00009	57		 push	 edi
  0000a	8b 7d 0c	 mov	 edi, DWORD PTR __Last$[ebp]
  0000d	8b c7		 mov	 eax, edi
  0000f	2b c3		 sub	 eax, ebx
  00011	6a 44		 push	 68			; 00000044H
  00013	99		 cdq
  00014	59		 pop	 ecx
  00015	f7 f9		 idiv	 ecx
  00017	83 f8 20	 cmp	 eax, 32			; 00000020H
  0001a	0f 8e 9c 00 00
	00		 jle	 $LN22@Sort
  00020	56		 push	 esi
  00021	8b 75 10	 mov	 esi, DWORD PTR __Ideal$[ebp]
$LL7@Sort:
  00024	85 f6		 test	 esi, esi
  00026	7e 75		 jle	 SHORT $LN6@Sort

; 3774 : 		{	// divide and conquer by quicksort
; 3775 : 		_STD pair<_RanIt, _RanIt> _Mid =
; 3776 : 			_Unguarded_partition(_First, _Last, _Pred);

  00028	ff 75 14	 push	 DWORD PTR __Pred$[ebp]
  0002b	8d 45 f8	 lea	 eax, DWORD PTR __Mid$506015[ebp]
  0002e	57		 push	 edi
  0002f	53		 push	 ebx
  00030	50		 push	 eax
  00031	e8 00 00 00 00	 call	 ??$_Unguarded_partition@PAUtagAccessorySlot@@VAccessorySlotSort@@@std@@YA?AU?$pair@PAUtagAccessorySlot@@PAU1@@0@PAUtagAccessorySlot@@0VAccessorySlotSort@@@Z ; std::_Unguarded_partition<tagAccessorySlot *,AccessorySlotSort>

; 3777 : 		_Ideal /= 2, _Ideal += _Ideal / 2;	// allow 1.5 log2(N) divisions

  00036	8b c6		 mov	 eax, esi
  00038	99		 cdq
  00039	2b c2		 sub	 eax, edx
  0003b	d1 f8		 sar	 eax, 1
  0003d	8b f0		 mov	 esi, eax
  0003f	99		 cdq
  00040	2b c2		 sub	 eax, edx
  00042	d1 f8		 sar	 eax, 1
  00044	03 f0		 add	 esi, eax
  00046	83 c4 10	 add	 esp, 16			; 00000010H

; 3778 : 
; 3779 : 		if (_Mid.first - _First < _Last - _Mid.second)

  00049	8b c7		 mov	 eax, edi
  0004b	2b 45 fc	 sub	 eax, DWORD PTR __Mid$506015[ebp+4]
  0004e	6a 44		 push	 68			; 00000044H
  00050	99		 cdq
  00051	59		 pop	 ecx
  00052	f7 f9		 idiv	 ecx
  00054	6a 44		 push	 68			; 00000044H
  00056	8b c8		 mov	 ecx, eax
  00058	8b 45 f8	 mov	 eax, DWORD PTR __Mid$506015[ebp]
  0005b	2b c3		 sub	 eax, ebx
  0005d	5b		 pop	 ebx
  0005e	99		 cdq
  0005f	f7 fb		 idiv	 ebx

; 3780 : 			{	// loop on second half
; 3781 : 			_Sort(_First, _Mid.first, _Ideal, _Pred);

  00061	ff 75 14	 push	 DWORD PTR __Pred$[ebp]
  00064	56		 push	 esi
  00065	3b c1		 cmp	 eax, ecx
  00067	7d 13		 jge	 SHORT $LN5@Sort
  00069	ff 75 f8	 push	 DWORD PTR __Mid$506015[ebp]
  0006c	ff 75 08	 push	 DWORD PTR __First$[ebp]
  0006f	e8 00 00 00 00	 call	 ??$_Sort@PAUtagAccessorySlot@@HVAccessorySlotSort@@@std@@YAXPAUtagAccessorySlot@@0HVAccessorySlotSort@@@Z ; std::_Sort<tagAccessorySlot *,int,AccessorySlotSort>

; 3782 : 			_First = _Mid.second;

  00074	8b 5d fc	 mov	 ebx, DWORD PTR __Mid$506015[ebp+4]
  00077	89 5d 08	 mov	 DWORD PTR __First$[ebp], ebx

; 3783 : 			}
; 3784 : 		else

  0007a	eb 0f		 jmp	 SHORT $LN23@Sort
$LN5@Sort:

; 3785 : 			{	// loop on first half
; 3786 : 			_Sort(_Mid.second, _Last, _Ideal, _Pred);

  0007c	57		 push	 edi
  0007d	ff 75 fc	 push	 DWORD PTR __Mid$506015[ebp+4]
  00080	e8 00 00 00 00	 call	 ??$_Sort@PAUtagAccessorySlot@@HVAccessorySlotSort@@@std@@YAXPAUtagAccessorySlot@@0HVAccessorySlotSort@@@Z ; std::_Sort<tagAccessorySlot *,int,AccessorySlotSort>

; 3787 : 			_Last = _Mid.first;

  00085	8b 7d f8	 mov	 edi, DWORD PTR __Mid$506015[ebp]
  00088	8b 5d 08	 mov	 ebx, DWORD PTR __First$[ebp]
$LN23@Sort:

; 3772 : 	_Diff _Count;
; 3773 : 	for (; _ISORT_MAX < (_Count = _Last - _First) && 0 < _Ideal; )

  0008b	83 c4 10	 add	 esp, 16			; 00000010H
  0008e	8b c7		 mov	 eax, edi
  00090	2b c3		 sub	 eax, ebx
  00092	6a 44		 push	 68			; 00000044H
  00094	99		 cdq
  00095	59		 pop	 ecx
  00096	f7 f9		 idiv	 ecx
  00098	83 f8 20	 cmp	 eax, 32			; 00000020H
  0009b	7f 87		 jg	 SHORT $LL7@Sort
$LN6@Sort:
  0009d	5e		 pop	 esi

; 3788 : 			}
; 3789 : 		}
; 3790 : 
; 3791 : 	if (_ISORT_MAX < _Count)

  0009e	83 f8 20	 cmp	 eax, 32			; 00000020H
  000a1	7e 19		 jle	 SHORT $LN22@Sort

; 3792 : 		{	// heap sort if too many divisions
; 3793 : 		_STD make_heap(_First, _Last, _Pred);

  000a3	ff 75 14	 push	 DWORD PTR __Pred$[ebp]
  000a6	57		 push	 edi
  000a7	53		 push	 ebx
  000a8	e8 00 00 00 00	 call	 ??$make_heap@PAUtagAccessorySlot@@VAccessorySlotSort@@@std@@YAXPAUtagAccessorySlot@@0VAccessorySlotSort@@@Z ; std::make_heap<tagAccessorySlot *,AccessorySlotSort>

; 3794 : 		_STD sort_heap(_First, _Last, _Pred);

  000ad	ff 75 14	 push	 DWORD PTR __Pred$[ebp]
  000b0	57		 push	 edi
  000b1	53		 push	 ebx
  000b2	e8 00 00 00 00	 call	 ??$_Sort_heap@PAUtagAccessorySlot@@VAccessorySlotSort@@@std@@YAXPAUtagAccessorySlot@@0VAccessorySlotSort@@@Z ; std::_Sort_heap<tagAccessorySlot *,AccessorySlotSort>
  000b7	83 c4 18	 add	 esp, 24			; 00000018H
  000ba	eb 14		 jmp	 SHORT $LN16@Sort
$LN22@Sort:

; 3795 : 		}
; 3796 : 	else if (1 < _Count)

  000bc	83 f8 01	 cmp	 eax, 1
  000bf	7e 0f		 jle	 SHORT $LN16@Sort

; 3797 : 		_Insertion_sort(_First, _Last, _Pred);	// small

  000c1	6a 00		 push	 0
  000c3	ff 75 14	 push	 DWORD PTR __Pred$[ebp]
  000c6	57		 push	 edi
  000c7	53		 push	 ebx
  000c8	e8 00 00 00 00	 call	 ??$_Insertion_sort1@PAUtagAccessorySlot@@VAccessorySlotSort@@U1@@std@@YAXPAUtagAccessorySlot@@0VAccessorySlotSort@@0@Z ; std::_Insertion_sort1<tagAccessorySlot *,AccessorySlotSort,tagAccessorySlot>
  000cd	83 c4 10	 add	 esp, 16			; 00000010H
$LN16@Sort:
  000d0	5f		 pop	 edi
  000d1	5b		 pop	 ebx

; 3798 : 	}

  000d2	c9		 leave
  000d3	c3		 ret	 0
??$_Sort@PAUtagAccessorySlot@@HVAccessorySlotSort@@@std@@YAXPAUtagAccessorySlot@@0HVAccessorySlotSort@@@Z ENDP ; std::_Sort<tagAccessorySlot *,int,AccessorySlotSort>
_TEXT	ENDS
PUBLIC	?DeleteAccessorySlotData@ioUserAccessory@@QAE_NH@Z ; ioUserAccessory::DeleteAccessorySlotData
; Function compile flags: /Ogsp
; File d:\lost saga for developer\youtube\tutorial\source\src\lsclient\iouseraccessory.cpp
;	COMDAT ?DeleteAccessorySlotData@ioUserAccessory@@QAE_NH@Z
_TEXT	SEGMENT
$T508588 = 8						; size = 4
_iSlotIndex$ = 8					; size = 4
?DeleteAccessorySlotData@ioUserAccessory@@QAE_NH@Z PROC	; ioUserAccessory::DeleteAccessorySlotData, COMDAT
; _this$ = ecx

; 158  : {

  00000	55		 push	 ebp
  00001	8b ec		 mov	 ebp, esp

; 159  : 	AccessorySlotList::iterator iter = m_AccessorySlotList.begin();

  00003	8b 01		 mov	 eax, DWORD PTR [ecx]

; 160  : 	while( iter != m_AccessorySlotList.end() )

  00005	8b 51 04	 mov	 edx, DWORD PTR [ecx+4]
  00008	56		 push	 esi
  00009	eb 0b		 jmp	 SHORT $LN41@DeleteAcce
$LL4@DeleteAcce:

; 161  : 	{
; 162  : 		if( iter->m_iIndex == iSlotIndex )

  0000b	8b 70 04	 mov	 esi, DWORD PTR [eax+4]
  0000e	3b 75 08	 cmp	 esi, DWORD PTR _iSlotIndex$[ebp]
  00011	74 0e		 je	 SHORT $LN40@DeleteAcce

; 166  : 		}
; 167  : 		else
; 168  : 			++iter;

  00013	83 c0 44	 add	 eax, 68			; 00000044H
$LN41@DeleteAcce:

; 160  : 	while( iter != m_AccessorySlotList.end() )

  00016	3b c2		 cmp	 eax, edx
  00018	75 f1		 jne	 SHORT $LL4@DeleteAcce

; 169  : 	}
; 170  : 
; 171  : 	return false;

  0001a	32 c0		 xor	 al, al
$LN5@DeleteAcce:
  0001c	5e		 pop	 esi

; 172  : }

  0001d	5d		 pop	 ebp
  0001e	c2 04 00	 ret	 4
$LN40@DeleteAcce:

; 163  : 		{
; 164  : 			iter = m_AccessorySlotList.erase( iter );

  00021	50		 push	 eax
  00022	8d 45 08	 lea	 eax, DWORD PTR $T508588[ebp]
  00025	50		 push	 eax
  00026	e8 00 00 00 00	 call	 ?erase@?$vector@UtagAccessorySlot@@V?$allocator@UtagAccessorySlot@@@std@@@std@@QAE?AV?$_Vector_iterator@V?$_Vector_val@UtagAccessorySlot@@V?$allocator@UtagAccessorySlot@@@std@@@std@@@2@V?$_Vector_const_iterator@V?$_Vector_val@UtagAccessorySlot@@V?$allocator@UtagAccessorySlot@@@std@@@std@@@2@@Z ; std::vector<tagAccessorySlot,std::allocator<tagAccessorySlot> >::erase

; 165  : 			return true;

  0002b	b0 01		 mov	 al, 1
  0002d	eb ed		 jmp	 SHORT $LN5@DeleteAcce
?DeleteAccessorySlotData@ioUserAccessory@@QAE_NH@Z ENDP	; ioUserAccessory::DeleteAccessorySlotData
_TEXT	ENDS
PUBLIC	?push_back@?$vector@UtagAccessorySlot@@V?$allocator@UtagAccessorySlot@@@std@@@std@@QAEXABUtagAccessorySlot@@@Z ; std::vector<tagAccessorySlot,std::allocator<tagAccessorySlot> >::push_back
; Function compile flags: /Ogsp
; File c:\program files (x86)\microsoft visual studio 10.0\vc\include\vector
;	COMDAT ?push_back@?$vector@UtagAccessorySlot@@V?$allocator@UtagAccessorySlot@@@std@@@std@@QAEXABUtagAccessorySlot@@@Z
_TEXT	SEGMENT
__Val$ = 8						; size = 4
?push_back@?$vector@UtagAccessorySlot@@V?$allocator@UtagAccessorySlot@@@std@@@std@@QAEXABUtagAccessorySlot@@@Z PROC ; std::vector<tagAccessorySlot,std::allocator<tagAccessorySlot> >::push_back, COMDAT
; _this$ = ecx

; 976  : 		{	// insert element at end

  00000	55		 push	 ebp
  00001	8b ec		 mov	 ebp, esp
  00003	56		 push	 esi
  00004	8b f1		 mov	 esi, ecx

; 977  : 		if (_Inside(_STD addressof(_Val)))

  00006	8b 4e 04	 mov	 ecx, DWORD PTR [esi+4]
  00009	57		 push	 edi
  0000a	8b 7d 08	 mov	 edi, DWORD PTR __Val$[ebp]
  0000d	3b f9		 cmp	 edi, ecx
  0000f	73 37		 jae	 SHORT $LN4@push_back
  00011	8b 16		 mov	 edx, DWORD PTR [esi]
  00013	3b d7		 cmp	 edx, edi
  00015	77 31		 ja	 SHORT $LN4@push_back

; 978  : 			{	// push back an element
; 979  : 			size_type _Idx = _STD addressof(_Val) - this->_Myfirst;

  00017	8b c7		 mov	 eax, edi
  00019	2b c2		 sub	 eax, edx
  0001b	6a 44		 push	 68			; 00000044H
  0001d	99		 cdq
  0001e	5f		 pop	 edi
  0001f	f7 ff		 idiv	 edi
  00021	8b f8		 mov	 edi, eax

; 980  : 			if (this->_Mylast == this->_Myend)

  00023	3b 4e 08	 cmp	 ecx, DWORD PTR [esi+8]
  00026	75 09		 jne	 SHORT $LN3@push_back

; 981  : 				_Reserve(1);

  00028	6a 01		 push	 1
  0002a	8b ce		 mov	 ecx, esi
  0002c	e8 00 00 00 00	 call	 ?_Reserve@?$vector@UtagAccessorySlot@@V?$allocator@UtagAccessorySlot@@@std@@@std@@IAEXI@Z ; std::vector<tagAccessorySlot,std::allocator<tagAccessorySlot> >::_Reserve
$LN3@push_back:

; 982  : 			_Orphan_range(this->_Mylast, this->_Mylast);
; 983  : 			_Cons_val(this->_Alval,
; 984  : 				this->_Mylast,
; 985  : 				this->_Myfirst[_Idx]);

  00031	6b ff 44	 imul	 edi, 68			; 00000044H
  00034	03 3e		 add	 edi, DWORD PTR [esi]
  00036	8d 46 0c	 lea	 eax, DWORD PTR [esi+12]
  00039	57		 push	 edi
  0003a	ff 76 04	 push	 DWORD PTR [esi+4]
  0003d	50		 push	 eax
  0003e	e8 00 00 00 00	 call	 ??$_Cons_val@V?$allocator@UtagAccessorySlot@@@std@@UtagAccessorySlot@@AAU3@@std@@YAXAAV?$allocator@UtagAccessorySlot@@@0@PAUtagAccessorySlot@@AAU2@@Z ; std::_Cons_val<std::allocator<tagAccessorySlot>,tagAccessorySlot,tagAccessorySlot &>
  00043	83 c4 0c	 add	 esp, 12			; 0000000cH

; 986  : 			++this->_Mylast;
; 987  : 			}
; 988  : 		else

  00046	eb 19		 jmp	 SHORT $LN26@push_back
$LN4@push_back:

; 989  : 			{	// push back a non-element
; 990  : 			if (this->_Mylast == this->_Myend)

  00048	3b 4e 08	 cmp	 ecx, DWORD PTR [esi+8]
  0004b	75 09		 jne	 SHORT $LN1@push_back

; 991  : 				_Reserve(1);

  0004d	6a 01		 push	 1
  0004f	8b ce		 mov	 ecx, esi
  00051	e8 00 00 00 00	 call	 ?_Reserve@?$vector@UtagAccessorySlot@@V?$allocator@UtagAccessorySlot@@@std@@@std@@IAEXI@Z ; std::vector<tagAccessorySlot,std::allocator<tagAccessorySlot> >::_Reserve
$LN1@push_back:

; 992  : 			_Orphan_range(this->_Mylast, this->_Mylast);
; 993  : 			_Cons_val(this->_Alval,
; 994  : 				this->_Mylast,
; 995  : 				_Val);

  00056	57		 push	 edi
  00057	ff 76 04	 push	 DWORD PTR [esi+4]
  0005a	e8 00 00 00 00	 call	 ??$_Construct@UtagAccessorySlot@@ABU1@@std@@YAXPAUtagAccessorySlot@@ABU1@@Z ; std::_Construct<tagAccessorySlot,tagAccessorySlot const &>
  0005f	59		 pop	 ecx
  00060	59		 pop	 ecx
$LN26@push_back:

; 996  : 			++this->_Mylast;

  00061	83 46 04 44	 add	 DWORD PTR [esi+4], 68	; 00000044H
  00065	5f		 pop	 edi
  00066	5e		 pop	 esi

; 997  : 			}
; 998  : 		}

  00067	5d		 pop	 ebp
  00068	c2 04 00	 ret	 4
?push_back@?$vector@UtagAccessorySlot@@V?$allocator@UtagAccessorySlot@@@std@@@std@@QAEXABUtagAccessorySlot@@@Z ENDP ; std::vector<tagAccessorySlot,std::allocator<tagAccessorySlot> >::push_back
_TEXT	ENDS
PUBLIC	?clear@?$vector@UtagAccessorySlot@@V?$allocator@UtagAccessorySlot@@@std@@@std@@QAEXXZ ; std::vector<tagAccessorySlot,std::allocator<tagAccessorySlot> >::clear
; Function compile flags: /Ogsp
;	COMDAT ?clear@?$vector@UtagAccessorySlot@@V?$allocator@UtagAccessorySlot@@@std@@@std@@QAEXXZ
_TEXT	SEGMENT
$T508723 = -4						; size = 4
?clear@?$vector@UtagAccessorySlot@@V?$allocator@UtagAccessorySlot@@@std@@@std@@QAEXXZ PROC ; std::vector<tagAccessorySlot,std::allocator<tagAccessorySlot> >::clear, COMDAT
; _this$ = ecx

; 1217 : 		{	// erase all

  00000	55		 push	 ebp
  00001	8b ec		 mov	 ebp, esp
  00003	51		 push	 ecx

; 1218 : 		erase(begin(), end());

  00004	8b 41 04	 mov	 eax, DWORD PTR [ecx+4]
  00007	8b 11		 mov	 edx, DWORD PTR [ecx]
  00009	50		 push	 eax
  0000a	52		 push	 edx
  0000b	8d 45 fc	 lea	 eax, DWORD PTR $T508723[ebp]
  0000e	50		 push	 eax
  0000f	e8 00 00 00 00	 call	 ?erase@?$vector@UtagAccessorySlot@@V?$allocator@UtagAccessorySlot@@@std@@@std@@QAE?AV?$_Vector_iterator@V?$_Vector_val@UtagAccessorySlot@@V?$allocator@UtagAccessorySlot@@@std@@@std@@@2@V?$_Vector_const_iterator@V?$_Vector_val@UtagAccessorySlot@@V?$allocator@UtagAccessorySlot@@@std@@@std@@@2@0@Z ; std::vector<tagAccessorySlot,std::allocator<tagAccessorySlot> >::erase

; 1219 : 		}

  00014	c9		 leave
  00015	c3		 ret	 0
?clear@?$vector@UtagAccessorySlot@@V?$allocator@UtagAccessorySlot@@@std@@@std@@QAEXXZ ENDP ; std::vector<tagAccessorySlot,std::allocator<tagAccessorySlot> >::clear
_TEXT	ENDS
PUBLIC	??$sort@V?$_Vector_iterator@V?$_Vector_val@UtagAccessorySlot@@V?$allocator@UtagAccessorySlot@@@std@@@std@@@std@@VAccessorySlotSort@@@std@@YAXV?$_Vector_iterator@V?$_Vector_val@UtagAccessorySlot@@V?$allocator@UtagAccessorySlot@@@std@@@std@@@0@0VAccessorySlotSort@@@Z ; std::sort<std::_Vector_iterator<std::_Vector_val<tagAccessorySlot,std::allocator<tagAccessorySlot> > >,AccessorySlotSort>
; Function compile flags: /Ogsp
; File c:\program files (x86)\microsoft visual studio 10.0\vc\include\algorithm
;	COMDAT ??$sort@V?$_Vector_iterator@V?$_Vector_val@UtagAccessorySlot@@V?$allocator@UtagAccessorySlot@@@std@@@std@@@std@@VAccessorySlotSort@@@std@@YAXV?$_Vector_iterator@V?$_Vector_val@UtagAccessorySlot@@V?$allocator@UtagAccessorySlot@@@std@@@std@@@0@0VAccessorySlotSort@@@Z
_TEXT	SEGMENT
__First$ = 8						; size = 4
__Last$ = 12						; size = 4
__Pred$ = 16						; size = 1
??$sort@V?$_Vector_iterator@V?$_Vector_val@UtagAccessorySlot@@V?$allocator@UtagAccessorySlot@@@std@@@std@@@std@@VAccessorySlotSort@@@std@@YAXV?$_Vector_iterator@V?$_Vector_val@UtagAccessorySlot@@V?$allocator@UtagAccessorySlot@@@std@@@std@@@0@0VAccessorySlotSort@@@Z PROC ; std::sort<std::_Vector_iterator<std::_Vector_val<tagAccessorySlot,std::allocator<tagAccessorySlot> > >,AccessorySlotSort>, COMDAT

; 3803 : 	{	// order [_First, _Last), using _Pred

  00000	55		 push	 ebp
  00001	8b ec		 mov	 ebp, esp

; 3804 : 	_DEBUG_RANGE(_First, _Last);
; 3805 : 	_DEBUG_POINTER(_Pred);
; 3806 : 	_Sort(_Unchecked(_First), _Unchecked(_Last), _Last - _First, _Pred);

  00003	ff 75 10	 push	 DWORD PTR __Pred$[ebp]
  00006	8b 45 0c	 mov	 eax, DWORD PTR __Last$[ebp]
  00009	2b 45 08	 sub	 eax, DWORD PTR __First$[ebp]
  0000c	6a 44		 push	 68			; 00000044H
  0000e	59		 pop	 ecx
  0000f	99		 cdq
  00010	f7 f9		 idiv	 ecx
  00012	50		 push	 eax
  00013	ff 75 0c	 push	 DWORD PTR __Last$[ebp]
  00016	ff 75 08	 push	 DWORD PTR __First$[ebp]
  00019	e8 00 00 00 00	 call	 ??$_Sort@PAUtagAccessorySlot@@HVAccessorySlotSort@@@std@@YAXPAUtagAccessorySlot@@0HVAccessorySlotSort@@@Z ; std::_Sort<tagAccessorySlot *,int,AccessorySlotSort>
  0001e	83 c4 10	 add	 esp, 16			; 00000010H

; 3807 : 	}

  00021	5d		 pop	 ebp
  00022	c3		 ret	 0
??$sort@V?$_Vector_iterator@V?$_Vector_val@UtagAccessorySlot@@V?$allocator@UtagAccessorySlot@@@std@@@std@@@std@@VAccessorySlotSort@@@std@@YAXV?$_Vector_iterator@V?$_Vector_val@UtagAccessorySlot@@V?$allocator@UtagAccessorySlot@@@std@@@std@@@0@0VAccessorySlotSort@@@Z ENDP ; std::sort<std::_Vector_iterator<std::_Vector_val<tagAccessorySlot,std::allocator<tagAccessorySlot> > >,AccessorySlotSort>
_TEXT	ENDS
PUBLIC	??0ioUserAccessory@@QAE@XZ			; ioUserAccessory::ioUserAccessory
;	COMDAT xdata$x
; File c:\program files (x86)\microsoft visual studio 10.0\vc\include\xutility
xdata$x	SEGMENT
__unwindtable$??0ioUserAccessory@@QAE@XZ DD 0ffffffffH
	DD	FLAT:__unwindfunclet$??0ioUserAccessory@@QAE@XZ$0
__ehfuncinfo$??0ioUserAccessory@@QAE@XZ DD 019930522H
	DD	01H
	DD	FLAT:__unwindtable$??0ioUserAccessory@@QAE@XZ
	DD	2 DUP(00H)
	DD	2 DUP(00H)
	DD	00H
	DD	01H
; Function compile flags: /Ogsp
; File d:\lost saga for developer\youtube\tutorial\source\src\lsclient\iouseraccessory.cpp
xdata$x	ENDS
;	COMDAT ??0ioUserAccessory@@QAE@XZ
_TEXT	SEGMENT
$T508898 = -20						; size = 4
_this$ = -16						; size = 4
__$EHRec$ = -12						; size = 12
??0ioUserAccessory@@QAE@XZ PROC				; ioUserAccessory::ioUserAccessory, COMDAT
; _this$ = ecx

; 6    : {

  00000	6a 08		 push	 8
  00002	b8 00 00 00 00	 mov	 eax, __ehhandler$??0ioUserAccessory@@QAE@XZ
  00007	e8 00 00 00 00	 call	 __EH_prolog3
  0000c	8b f1		 mov	 esi, ecx
  0000e	89 75 f0	 mov	 DWORD PTR _this$[ebp], esi
  00011	33 c0		 xor	 eax, eax
  00013	89 06		 mov	 DWORD PTR [esi], eax
  00015	89 46 04	 mov	 DWORD PTR [esi+4], eax
  00018	89 46 08	 mov	 DWORD PTR [esi+8], eax

; 7    : 	m_AccessorySlotList.clear();

  0001b	33 c9		 xor	 ecx, ecx
  0001d	51		 push	 ecx
  0001e	50		 push	 eax
  0001f	89 45 fc	 mov	 DWORD PTR __$EHRec$[ebp+8], eax
  00022	8d 45 ec	 lea	 eax, DWORD PTR $T508898[ebp]
  00025	50		 push	 eax
  00026	8b ce		 mov	 ecx, esi
  00028	e8 00 00 00 00	 call	 ?erase@?$vector@UtagAccessorySlot@@V?$allocator@UtagAccessorySlot@@@std@@@std@@QAE?AV?$_Vector_iterator@V?$_Vector_val@UtagAccessorySlot@@V?$allocator@UtagAccessorySlot@@@std@@@std@@@2@V?$_Vector_const_iterator@V?$_Vector_val@UtagAccessorySlot@@V?$allocator@UtagAccessorySlot@@@std@@@std@@@2@0@Z ; std::vector<tagAccessorySlot,std::allocator<tagAccessorySlot> >::erase

; 8    : 	
; 9    : 	
; 10   : }

  0002d	8b c6		 mov	 eax, esi
  0002f	e8 00 00 00 00	 call	 __EH_epilog3
  00034	c3		 ret	 0
_TEXT	ENDS
;	COMDAT text$x
text$x	SEGMENT
__unwindfunclet$??0ioUserAccessory@@QAE@XZ$0:
  00000	8b 4d f0	 mov	 ecx, DWORD PTR _this$[ebp]
  00003	e9 00 00 00 00	 jmp	 ??1?$vector@UtagAccessorySlot@@V?$allocator@UtagAccessorySlot@@@std@@@std@@QAE@XZ ; std::vector<tagAccessorySlot,std::allocator<tagAccessorySlot> >::~vector<tagAccessorySlot,std::allocator<tagAccessorySlot> >
__ehhandler$??0ioUserAccessory@@QAE@XZ:
  00008	8b 54 24 08	 mov	 edx, DWORD PTR [esp+8]
  0000c	8d 42 0c	 lea	 eax, DWORD PTR [edx+12]
  0000f	8b 4a e8	 mov	 ecx, DWORD PTR [edx-24]
  00012	33 c8		 xor	 ecx, eax
  00014	e8 00 00 00 00	 call	 @__security_check_cookie@4
  00019	b8 00 00 00 00	 mov	 eax, OFFSET __ehfuncinfo$??0ioUserAccessory@@QAE@XZ
  0001e	e9 00 00 00 00	 jmp	 ___CxxFrameHandler3
text$x	ENDS
??0ioUserAccessory@@QAE@XZ ENDP				; ioUserAccessory::ioUserAccessory
PUBLIC	??1ioUserAccessory@@QAE@XZ			; ioUserAccessory::~ioUserAccessory
;	COMDAT xdata$x
; File c:\program files (x86)\microsoft visual studio 10.0\vc\include\vector
xdata$x	SEGMENT
__unwindtable$??1ioUserAccessory@@QAE@XZ DD 0ffffffffH
	DD	FLAT:__unwindfunclet$??1ioUserAccessory@@QAE@XZ$0
__ehfuncinfo$??1ioUserAccessory@@QAE@XZ DD 019930522H
	DD	01H
	DD	FLAT:__unwindtable$??1ioUserAccessory@@QAE@XZ
	DD	2 DUP(00H)
	DD	2 DUP(00H)
	DD	00H
	DD	01H
; Function compile flags: /Ogsp
; File d:\lost saga for developer\youtube\tutorial\source\src\lsclient\iouseraccessory.cpp
xdata$x	ENDS
;	COMDAT ??1ioUserAccessory@@QAE@XZ
_TEXT	SEGMENT
$T508981 = -20						; size = 4
_this$ = -16						; size = 4
__$EHRec$ = -12						; size = 12
??1ioUserAccessory@@QAE@XZ PROC				; ioUserAccessory::~ioUserAccessory, COMDAT
; _this$ = ecx

; 14   : {

  00000	6a 08		 push	 8
  00002	b8 00 00 00 00	 mov	 eax, __ehhandler$??1ioUserAccessory@@QAE@XZ
  00007	e8 00 00 00 00	 call	 __EH_prolog3
  0000c	8b f1		 mov	 esi, ecx
  0000e	89 75 f0	 mov	 DWORD PTR _this$[ebp], esi

; 15   : 	m_AccessorySlotList.clear();

  00011	8b 46 04	 mov	 eax, DWORD PTR [esi+4]
  00014	8b 0e		 mov	 ecx, DWORD PTR [esi]
  00016	83 65 fc 00	 and	 DWORD PTR __$EHRec$[ebp+8], 0
  0001a	50		 push	 eax
  0001b	51		 push	 ecx
  0001c	8d 45 ec	 lea	 eax, DWORD PTR $T508981[ebp]
  0001f	50		 push	 eax
  00020	8b ce		 mov	 ecx, esi
  00022	e8 00 00 00 00	 call	 ?erase@?$vector@UtagAccessorySlot@@V?$allocator@UtagAccessorySlot@@@std@@@std@@QAE?AV?$_Vector_iterator@V?$_Vector_val@UtagAccessorySlot@@V?$allocator@UtagAccessorySlot@@@std@@@std@@@2@V?$_Vector_const_iterator@V?$_Vector_val@UtagAccessorySlot@@V?$allocator@UtagAccessorySlot@@@std@@@std@@@2@0@Z ; std::vector<tagAccessorySlot,std::allocator<tagAccessorySlot> >::erase

; 16   : }

  00027	83 4d fc ff	 or	 DWORD PTR __$EHRec$[ebp+8], -1
  0002b	8b ce		 mov	 ecx, esi
  0002d	e8 00 00 00 00	 call	 ?_Tidy@?$vector@UtagAccessorySlot@@V?$allocator@UtagAccessorySlot@@@std@@@std@@IAEXXZ ; std::vector<tagAccessorySlot,std::allocator<tagAccessorySlot> >::_Tidy
  00032	e8 00 00 00 00	 call	 __EH_epilog3
  00037	c3		 ret	 0
_TEXT	ENDS
;	COMDAT text$x
text$x	SEGMENT
__unwindfunclet$??1ioUserAccessory@@QAE@XZ$0:
  00000	8b 4d f0	 mov	 ecx, DWORD PTR _this$[ebp]
  00003	e9 00 00 00 00	 jmp	 ??1?$vector@UtagAccessorySlot@@V?$allocator@UtagAccessorySlot@@@std@@@std@@QAE@XZ ; std::vector<tagAccessorySlot,std::allocator<tagAccessorySlot> >::~vector<tagAccessorySlot,std::allocator<tagAccessorySlot> >
__ehhandler$??1ioUserAccessory@@QAE@XZ:
  00008	8b 54 24 08	 mov	 edx, DWORD PTR [esp+8]
  0000c	8d 42 0c	 lea	 eax, DWORD PTR [edx+12]
  0000f	8b 4a e8	 mov	 ecx, DWORD PTR [edx-24]
  00012	33 c8		 xor	 ecx, eax
  00014	e8 00 00 00 00	 call	 @__security_check_cookie@4
  00019	b8 00 00 00 00	 mov	 eax, OFFSET __ehfuncinfo$??1ioUserAccessory@@QAE@XZ
  0001e	e9 00 00 00 00	 jmp	 ___CxxFrameHandler3
text$x	ENDS
??1ioUserAccessory@@QAE@XZ ENDP				; ioUserAccessory::~ioUserAccessory
PUBLIC	??_C@_0CI@CFBEOHGD@ioUserAccessory?3?3ApplyAccessoryS@ ; `string'
PUBLIC	?ApplyAccessorySlotData@ioUserAccessory@@QAEXAAVSP2Packet@@@Z ; ioUserAccessory::ApplyAccessorySlotData
EXTRN	?EquipAccessoryInit@ioMyInfo@@QAEXHHABUtagAccessorySlot@@@Z:PROC ; ioMyInfo::EquipAccessoryInit
EXTRN	?GetClassArray@ioMyInfo@@QAEHH@Z:PROC		; ioMyInfo::GetClassArray
EXTRN	?GetSingleton@ioMyInfo@@SAAAV1@XZ:PROC		; ioMyInfo::GetSingleton
EXTRN	__imp_?IsEmpty@ioHashString@@QBE_NXZ:PROC
EXTRN	?GetItemLargeIcon@ioItemMaker@@QBEABVioHashString@@KK@Z:PROC ; ioItemMaker::GetItemLargeIcon
EXTRN	?GetItemConst@ioItemMaker@@QBEPBVioItem@@KABVioHashString@@@Z:PROC ; ioItemMaker::GetItemConst
EXTRN	?GetSingleton@ioItemMaker@@SAAAV1@XZ:PROC	; ioItemMaker::GetSingleton
EXTRN	__imp_??0ioHashString@@QAE@PBD@Z:PROC
EXTRN	??5SP2Packet@@QAEAAV0@AAE@Z:PROC		; SP2Packet::operator>>
EXTRN	??5SP2Packet@@QAEAAV0@AAH@Z:PROC		; SP2Packet::operator>>
;	COMDAT ??_C@_0CI@CFBEOHGD@ioUserAccessory?3?3ApplyAccessoryS@
; File c:\program files (x86)\microsoft visual studio 10.0\vc\include\xutility
CONST	SEGMENT
??_C@_0CI@CFBEOHGD@ioUserAccessory?3?3ApplyAccessoryS@ DB 'ioUserAccessor'
	DB	'y::ApplyAccessorySlotData', 00H		; `string'
CONST	ENDS
;	COMDAT xdata$x
xdata$x	SEGMENT
__unwindtable$?ApplyAccessorySlotData@ioUserAccessory@@QAEXAAVSP2Packet@@@Z DD 0ffffffffH
	DD	FLAT:__unwindfunclet$?ApplyAccessorySlotData@ioUserAccessory@@QAEXAAVSP2Packet@@@Z$0
	DD	00H
	DD	FLAT:__unwindfunclet$?ApplyAccessorySlotData@ioUserAccessory@@QAEXAAVSP2Packet@@@Z$1
__ehfuncinfo$?ApplyAccessorySlotData@ioUserAccessory@@QAEXAAVSP2Packet@@@Z DD 019930522H
	DD	02H
	DD	FLAT:__unwindtable$?ApplyAccessorySlotData@ioUserAccessory@@QAEXAAVSP2Packet@@@Z
	DD	2 DUP(00H)
	DD	2 DUP(00H)
	DD	00H
	DD	01H
; Function compile flags: /Ogsp
; File d:\lost saga for developer\youtube\tutorial\source\src\lsclient\iouseraccessory.cpp
xdata$x	ENDS
;	COMDAT ?ApplyAccessorySlotData@ioUserAccessory@@QAEXAAVSP2Packet@@@Z
_TEXT	SEGMENT
_sAccessorySlot$505087 = -104				; size = 68
$T509019 = -36						; size = 16
_nSize$ = -20						; size = 4
$T509086 = -16						; size = 4
_i$505082 = -16						; size = 4
__$EHRec$ = -12						; size = 12
$T509020 = 8						; size = 1
_nEquipClassType$505086 = 8				; size = 4
_rkPacket$ = 8						; size = 4
?ApplyAccessorySlotData@ioUserAccessory@@QAEXAAVSP2Packet@@@Z PROC ; ioUserAccessory::ApplyAccessorySlotData, COMDAT
; _this$ = ecx

; 19   : {

  00000	6a 5c		 push	 92			; 0000005cH
  00002	b8 00 00 00 00	 mov	 eax, __ehhandler$?ApplyAccessorySlotData@ioUserAccessory@@QAEXAAVSP2Packet@@@Z
  00007	e8 00 00 00 00	 call	 __EH_prolog3
  0000c	8b f1		 mov	 esi, ecx

; 20   : 	m_AccessorySlotList.clear();

  0000e	8b 46 04	 mov	 eax, DWORD PTR [esi+4]
  00011	8b 0e		 mov	 ecx, DWORD PTR [esi]
  00013	50		 push	 eax
  00014	51		 push	 ecx
  00015	8d 45 f0	 lea	 eax, DWORD PTR $T509086[ebp]
  00018	50		 push	 eax
  00019	8b ce		 mov	 ecx, esi
  0001b	e8 00 00 00 00	 call	 ?erase@?$vector@UtagAccessorySlot@@V?$allocator@UtagAccessorySlot@@@std@@@std@@QAE?AV?$_Vector_iterator@V?$_Vector_val@UtagAccessorySlot@@V?$allocator@UtagAccessorySlot@@@std@@@std@@@2@V?$_Vector_const_iterator@V?$_Vector_val@UtagAccessorySlot@@V?$allocator@UtagAccessorySlot@@@std@@@std@@@2@0@Z ; std::vector<tagAccessorySlot,std::allocator<tagAccessorySlot> >::erase

; 21   : 
; 22   : 	int nSize;
; 23   : 	rkPacket >> nSize;

  00020	8b 5d 08	 mov	 ebx, DWORD PTR _rkPacket$[ebp]
  00023	8d 45 ec	 lea	 eax, DWORD PTR _nSize$[ebp]
  00026	50		 push	 eax
  00027	8b cb		 mov	 ecx, ebx
  00029	e8 00 00 00 00	 call	 ??5SP2Packet@@QAEAAV0@AAH@Z ; SP2Packet::operator>>

; 24   : 
; 25   : 	for( int i=0; i<nSize; ++i )

  0002e	83 65 f0 00	 and	 DWORD PTR _i$505082[ebp], 0
  00032	83 7d ec 00	 cmp	 DWORD PTR _nSize$[ebp], 0
  00036	0f 8e 39 01 00
	00		 jle	 $LN5@ApplyAcces
$LN7@ApplyAcces:

; 26   : 	{
; 27   : 		int nEquipClassType = 0;

  0003c	83 65 08 00	 and	 DWORD PTR _nEquipClassType$505086[ebp], 0

; 28   : 		AccessorySlot sAccessorySlot;

  00040	8d 4d 98	 lea	 ecx, DWORD PTR _sAccessorySlot$505087[ebp]
  00043	e8 00 00 00 00	 call	 ??0tagAccessorySlot@@QAE@XZ ; tagAccessorySlot::tagAccessorySlot
  00048	83 65 fc 00	 and	 DWORD PTR __$EHRec$[ebp+8], 0

; 29   : 
; 30   : 		rkPacket >> sAccessorySlot.m_iIndex>> sAccessorySlot.m_iAccessoryCode;

  0004c	8d 45 98	 lea	 eax, DWORD PTR _sAccessorySlot$505087[ebp]
  0004f	50		 push	 eax
  00050	8d 45 9c	 lea	 eax, DWORD PTR _sAccessorySlot$505087[ebp+4]
  00053	50		 push	 eax
  00054	8b cb		 mov	 ecx, ebx
  00056	e8 00 00 00 00	 call	 ??5SP2Packet@@QAEAAV0@AAH@Z ; SP2Packet::operator>>
  0005b	8b c8		 mov	 ecx, eax
  0005d	e8 00 00 00 00	 call	 ??5SP2Packet@@QAEAAV0@AAH@Z ; SP2Packet::operator>>

; 31   : 		rkPacket >> sAccessorySlot.m_PeriodType;

  00062	8d 45 a4	 lea	 eax, DWORD PTR _sAccessorySlot$505087[ebp+12]
  00065	50		 push	 eax
  00066	8b cb		 mov	 ecx, ebx
  00068	e8 00 00 00 00	 call	 ??5SP2Packet@@QAEAAV0@AAE@Z ; SP2Packet::operator>>

; 32   : 		rkPacket >> sAccessorySlot.m_iValue1 >> sAccessorySlot.m_iValue2;

  0006d	8d 45 ac	 lea	 eax, DWORD PTR _sAccessorySlot$505087[ebp+20]
  00070	50		 push	 eax
  00071	8d 45 a8	 lea	 eax, DWORD PTR _sAccessorySlot$505087[ebp+16]
  00074	50		 push	 eax
  00075	8b cb		 mov	 ecx, ebx
  00077	e8 00 00 00 00	 call	 ??5SP2Packet@@QAEAAV0@AAH@Z ; SP2Packet::operator>>
  0007c	8b c8		 mov	 ecx, eax
  0007e	e8 00 00 00 00	 call	 ??5SP2Packet@@QAEAAV0@AAH@Z ; SP2Packet::operator>>

; 33   : 		rkPacket >> nEquipClassType;

  00083	8d 45 08	 lea	 eax, DWORD PTR _nEquipClassType$505086[ebp]
  00086	50		 push	 eax
  00087	8b cb		 mov	 ecx, ebx
  00089	e8 00 00 00 00	 call	 ??5SP2Packet@@QAEAAV0@AAH@Z ; SP2Packet::operator>>

; 34   : 		rkPacket >> sAccessorySlot.m_iRandomNumber;

  0008e	8d 45 a0	 lea	 eax, DWORD PTR _sAccessorySlot$505087[ebp+8]
  00091	50		 push	 eax
  00092	8b cb		 mov	 ecx, ebx
  00094	e8 00 00 00 00	 call	 ??5SP2Packet@@QAEAAV0@AAH@Z ; SP2Packet::operator>>

; 35   : 
; 36   : 		const ioItem *pItem = g_ItemMaker.GetItemConst( sAccessorySlot.m_iAccessoryCode, __FUNCTION__ );

  00099	68 00 00 00 00	 push	 OFFSET ??_C@_0CI@CFBEOHGD@ioUserAccessory?3?3ApplyAccessoryS@
  0009e	8d 4d dc	 lea	 ecx, DWORD PTR $T509019[ebp]
  000a1	ff 15 00 00 00
	00		 call	 DWORD PTR __imp_??0ioHashString@@QAE@PBD@Z
  000a7	8d 45 dc	 lea	 eax, DWORD PTR $T509019[ebp]
  000aa	50		 push	 eax
  000ab	ff 75 98	 push	 DWORD PTR _sAccessorySlot$505087[ebp]
  000ae	c6 45 fc 01	 mov	 BYTE PTR __$EHRec$[ebp+8], 1
  000b2	e8 00 00 00 00	 call	 ?GetSingleton@ioItemMaker@@SAAAV1@XZ ; ioItemMaker::GetSingleton
  000b7	8b c8		 mov	 ecx, eax
  000b9	e8 00 00 00 00	 call	 ?GetItemConst@ioItemMaker@@QBEPBVioItem@@KABVioHashString@@@Z ; ioItemMaker::GetItemConst
  000be	8d 4d dc	 lea	 ecx, DWORD PTR $T509019[ebp]
  000c1	8b f8		 mov	 edi, eax
  000c3	c6 45 fc 00	 mov	 BYTE PTR __$EHRec$[ebp+8], 0
  000c7	ff 15 00 00 00
	00		 call	 DWORD PTR __imp_??1ioHashString@@QAE@XZ

; 37   : 		if( pItem )

  000cd	85 ff		 test	 edi, edi
  000cf	74 10		 je	 SHORT $LN4@ApplyAcces

; 38   : 			sAccessorySlot.m_Name = pItem->GetName();

  000d1	81 c7 34 01 00
	00		 add	 edi, 308		; 00000134H
  000d7	57		 push	 edi
  000d8	8d 4d bc	 lea	 ecx, DWORD PTR _sAccessorySlot$505087[ebp+36]
  000db	ff 15 00 00 00
	00		 call	 DWORD PTR __imp_??4ioHashString@@QAEAAV0@ABV0@@Z
$LN4@ApplyAcces:

; 39   : 		sAccessorySlot.m_IconName = g_ItemMaker.GetItemLargeIcon( sAccessorySlot.m_iAccessoryCode, 0 );

  000e1	6a 00		 push	 0
  000e3	ff 75 98	 push	 DWORD PTR _sAccessorySlot$505087[ebp]
  000e6	e8 00 00 00 00	 call	 ?GetSingleton@ioItemMaker@@SAAAV1@XZ ; ioItemMaker::GetSingleton
  000eb	8b c8		 mov	 ecx, eax
  000ed	e8 00 00 00 00	 call	 ?GetItemLargeIcon@ioItemMaker@@QBEABVioHashString@@KK@Z ; ioItemMaker::GetItemLargeIcon
  000f2	50		 push	 eax
  000f3	8d 4d cc	 lea	 ecx, DWORD PTR _sAccessorySlot$505087[ebp+52]
  000f6	ff 15 00 00 00
	00		 call	 DWORD PTR __imp_??4ioHashString@@QAEAAV0@ABV0@@Z

; 40   : 
; 41   : 		if ( sAccessorySlot.m_Name.IsEmpty() || sAccessorySlot.m_IconName.IsEmpty() )

  000fc	8d 4d bc	 lea	 ecx, DWORD PTR _sAccessorySlot$505087[ebp+36]
  000ff	ff 15 00 00 00
	00		 call	 DWORD PTR __imp_?IsEmpty@ioHashString@@QBE_NXZ
  00105	84 c0		 test	 al, al
  00107	75 51		 jne	 SHORT $LN2@ApplyAcces
  00109	8d 4d cc	 lea	 ecx, DWORD PTR _sAccessorySlot$505087[ebp+52]
  0010c	ff 15 00 00 00
	00		 call	 DWORD PTR __imp_?IsEmpty@ioHashString@@QBE_NXZ
  00112	84 c0		 test	 al, al
  00114	75 44		 jne	 SHORT $LN2@ApplyAcces

; 43   : 
; 44   : 		if ( nEquipClassType > 0 )

  00116	83 7d 08 00	 cmp	 DWORD PTR _nEquipClassType$505086[ebp], 0
  0011a	7e 33		 jle	 SHORT $LN1@ApplyAcces

; 45   : 		{
; 46   : 			sAccessorySlot.m_bEquip = true;
; 47   : 
; 48   : 			int nCharArray = g_MyInfo.GetClassArray( nEquipClassType );

  0011c	ff 75 08	 push	 DWORD PTR _nEquipClassType$505086[ebp]
  0011f	c6 45 b8 01	 mov	 BYTE PTR _sAccessorySlot$505087[ebp+32], 1
  00123	e8 00 00 00 00	 call	 ?GetSingleton@ioMyInfo@@SAAAV1@XZ ; ioMyInfo::GetSingleton
  00128	8b c8		 mov	 ecx, eax
  0012a	e8 00 00 00 00	 call	 ?GetClassArray@ioMyInfo@@QAEHH@Z ; ioMyInfo::GetClassArray
  0012f	8b c8		 mov	 ecx, eax

; 49   : 			int nSlot = sAccessorySlot.m_iAccessoryCode/DEFAULT_BASIC_ACCESSORY_CODE - 1;

  00131	8b 45 98	 mov	 eax, DWORD PTR _sAccessorySlot$505087[ebp]
  00134	99		 cdq
  00135	bf 40 42 0f 00	 mov	 edi, 1000000		; 000f4240H
  0013a	f7 ff		 idiv	 edi

; 50   : 			g_MyInfo.EquipAccessoryInit( nCharArray, nSlot, sAccessorySlot );

  0013c	8d 55 98	 lea	 edx, DWORD PTR _sAccessorySlot$505087[ebp]
  0013f	52		 push	 edx
  00140	48		 dec	 eax
  00141	50		 push	 eax
  00142	51		 push	 ecx
  00143	e8 00 00 00 00	 call	 ?GetSingleton@ioMyInfo@@SAAAV1@XZ ; ioMyInfo::GetSingleton
  00148	8b c8		 mov	 ecx, eax
  0014a	e8 00 00 00 00	 call	 ?EquipAccessoryInit@ioMyInfo@@QAEXHHABUtagAccessorySlot@@@Z ; ioMyInfo::EquipAccessoryInit
$LN1@ApplyAcces:

; 51   : 		}
; 52   : 
; 53   : 		m_AccessorySlotList.push_back( sAccessorySlot );

  0014f	8d 45 98	 lea	 eax, DWORD PTR _sAccessorySlot$505087[ebp]
  00152	50		 push	 eax
  00153	8b ce		 mov	 ecx, esi
  00155	e8 00 00 00 00	 call	 ?push_back@?$vector@UtagAccessorySlot@@V?$allocator@UtagAccessorySlot@@@std@@@std@@QAEXABUtagAccessorySlot@@@Z ; std::vector<tagAccessorySlot,std::allocator<tagAccessorySlot> >::push_back
$LN2@ApplyAcces:

; 42   : 			continue;

  0015a	83 4d fc ff	 or	 DWORD PTR __$EHRec$[ebp+8], -1
  0015e	8d 4d 98	 lea	 ecx, DWORD PTR _sAccessorySlot$505087[ebp]
  00161	e8 00 00 00 00	 call	 ??1tagAccessorySlot@@QAE@XZ
  00166	ff 45 f0	 inc	 DWORD PTR _i$505082[ebp]
  00169	8b 45 f0	 mov	 eax, DWORD PTR _i$505082[ebp]
  0016c	3b 45 ec	 cmp	 eax, DWORD PTR _nSize$[ebp]
  0016f	0f 8c c7 fe ff
	ff		 jl	 $LN7@ApplyAcces
$LN5@ApplyAcces:

; 54   : 	}
; 55   : 
; 56   : 	std::sort( m_AccessorySlotList.begin(), m_AccessorySlotList.end(), AccessorySlotSort() );

  00175	8b 46 04	 mov	 eax, DWORD PTR [esi+4]
  00178	ff 75 08	 push	 DWORD PTR $T509020[ebp]
  0017b	8b 36		 mov	 esi, DWORD PTR [esi]
  0017d	50		 push	 eax
  0017e	56		 push	 esi
  0017f	e8 00 00 00 00	 call	 ??$sort@V?$_Vector_iterator@V?$_Vector_val@UtagAccessorySlot@@V?$allocator@UtagAccessorySlot@@@std@@@std@@@std@@VAccessorySlotSort@@@std@@YAXV?$_Vector_iterator@V?$_Vector_val@UtagAccessorySlot@@V?$allocator@UtagAccessorySlot@@@std@@@std@@@0@0VAccessorySlotSort@@@Z ; std::sort<std::_Vector_iterator<std::_Vector_val<tagAccessorySlot,std::allocator<tagAccessorySlot> > >,AccessorySlotSort>
  00184	83 c4 0c	 add	 esp, 12			; 0000000cH

; 57   : }

  00187	e8 00 00 00 00	 call	 __EH_epilog3
  0018c	c2 04 00	 ret	 4
_TEXT	ENDS
;	COMDAT text$x
text$x	SEGMENT
__unwindfunclet$?ApplyAccessorySlotData@ioUserAccessory@@QAEXAAVSP2Packet@@@Z$0:
  00000	8d 4d 98	 lea	 ecx, DWORD PTR _sAccessorySlot$505087[ebp]
  00003	e9 00 00 00 00	 jmp	 ??1tagAccessorySlot@@QAE@XZ
__unwindfunclet$?ApplyAccessorySlotData@ioUserAccessory@@QAEXAAVSP2Packet@@@Z$1:
  00008	8d 4d dc	 lea	 ecx, DWORD PTR $T509019[ebp]
  0000b	ff 25 00 00 00
	00		 jmp	 DWORD PTR __imp_??1ioHashString@@QAE@XZ
__ehhandler$?ApplyAccessorySlotData@ioUserAccessory@@QAEXAAVSP2Packet@@@Z:
  00011	8b 54 24 08	 mov	 edx, DWORD PTR [esp+8]
  00015	8d 42 0c	 lea	 eax, DWORD PTR [edx+12]
  00018	8b 4a 94	 mov	 ecx, DWORD PTR [edx-108]
  0001b	33 c8		 xor	 ecx, eax
  0001d	e8 00 00 00 00	 call	 @__security_check_cookie@4
  00022	b8 00 00 00 00	 mov	 eax, OFFSET __ehfuncinfo$?ApplyAccessorySlotData@ioUserAccessory@@QAEXAAVSP2Packet@@@Z
  00027	e9 00 00 00 00	 jmp	 ___CxxFrameHandler3
text$x	ENDS
?ApplyAccessorySlotData@ioUserAccessory@@QAEXAAVSP2Packet@@@Z ENDP ; ioUserAccessory::ApplyAccessorySlotData
PUBLIC	??_C@_0CG@PKCCBFCH@ioUserAccessory?3?3AddAccessorySlo@ ; `string'
PUBLIC	?AddAccessorySlotData@ioUserAccessory@@QAEXABUtagAccessorySlot@@@Z ; ioUserAccessory::AddAccessorySlotData
;	COMDAT ??_C@_0CG@PKCCBFCH@ioUserAccessory?3?3AddAccessorySlo@
; File d:\lost saga for developer\youtube\tutorial\source\src\lsclient\ioitem.h
CONST	SEGMENT
??_C@_0CG@PKCCBFCH@ioUserAccessory?3?3AddAccessorySlo@ DB 'ioUserAccessor'
	DB	'y::AddAccessorySlotData', 00H		; `string'
CONST	ENDS
;	COMDAT xdata$x
xdata$x	SEGMENT
__unwindtable$?AddAccessorySlotData@ioUserAccessory@@QAEXABUtagAccessorySlot@@@Z DD 0ffffffffH
	DD	FLAT:__unwindfunclet$?AddAccessorySlotData@ioUserAccessory@@QAEXABUtagAccessorySlot@@@Z$0
	DD	00H
	DD	FLAT:__unwindfunclet$?AddAccessorySlotData@ioUserAccessory@@QAEXABUtagAccessorySlot@@@Z$1
__ehfuncinfo$?AddAccessorySlotData@ioUserAccessory@@QAEXABUtagAccessorySlot@@@Z DD 019930522H
	DD	02H
	DD	FLAT:__unwindtable$?AddAccessorySlotData@ioUserAccessory@@QAEXABUtagAccessorySlot@@@Z
	DD	2 DUP(00H)
	DD	2 DUP(00H)
	DD	00H
	DD	01H
; Function compile flags: /Ogsp
; File d:\lost saga for developer\youtube\tutorial\source\src\lsclient\iouseraccessory.cpp
xdata$x	ENDS
;	COMDAT ?AddAccessorySlotData@ioUserAccessory@@QAEXABUtagAccessorySlot@@@Z
_TEXT	SEGMENT
_sAccessorySlot$ = -100					; size = 68
$T509169 = -32						; size = 16
_this$ = -16						; size = 4
__$EHRec$ = -12						; size = 12
_sNewSlot$ = 8						; size = 4
?AddAccessorySlotData@ioUserAccessory@@QAEXABUtagAccessorySlot@@@Z PROC ; ioUserAccessory::AddAccessorySlotData, COMDAT
; _this$ = ecx

; 144  : {

  00000	6a 58		 push	 88			; 00000058H
  00002	b8 00 00 00 00	 mov	 eax, __ehhandler$?AddAccessorySlotData@ioUserAccessory@@QAEXABUtagAccessorySlot@@@Z
  00007	e8 00 00 00 00	 call	 __EH_prolog3
  0000c	89 4d f0	 mov	 DWORD PTR _this$[ebp], ecx

; 145  : 	if ( IsSlotFull() )

  0000f	8b 41 04	 mov	 eax, DWORD PTR [ecx+4]
  00012	2b 01		 sub	 eax, DWORD PTR [ecx]
  00014	6a 44		 push	 68			; 00000044H
  00016	99		 cdq
  00017	59		 pop	 ecx
  00018	f7 f9		 idiv	 ecx
  0001a	3d f4 01 00 00	 cmp	 eax, 500		; 000001f4H
  0001f	0f 8d 87 00 00
	00		 jge	 $LN3@AddAccesso

; 146  : 		return;
; 147  : 
; 148  : 	AccessorySlot sAccessorySlot = sNewSlot;

  00025	8b 75 08	 mov	 esi, DWORD PTR _sNewSlot$[ebp]
  00028	56		 push	 esi
  00029	8d 4d 9c	 lea	 ecx, DWORD PTR _sAccessorySlot$[ebp]
  0002c	e8 00 00 00 00	 call	 ??0tagAccessorySlot@@QAE@ABU0@@Z
  00031	83 65 fc 00	 and	 DWORD PTR __$EHRec$[ebp+8], 0

; 149  : 	const ioItem *pItem = g_ItemMaker.GetItemConst( sNewSlot.m_iAccessoryCode, __FUNCTION__ );

  00035	68 00 00 00 00	 push	 OFFSET ??_C@_0CG@PKCCBFCH@ioUserAccessory?3?3AddAccessorySlo@
  0003a	8d 4d e0	 lea	 ecx, DWORD PTR $T509169[ebp]
  0003d	ff 15 00 00 00
	00		 call	 DWORD PTR __imp_??0ioHashString@@QAE@PBD@Z
  00043	8d 45 e0	 lea	 eax, DWORD PTR $T509169[ebp]
  00046	50		 push	 eax
  00047	ff 36		 push	 DWORD PTR [esi]
  00049	c6 45 fc 01	 mov	 BYTE PTR __$EHRec$[ebp+8], 1
  0004d	e8 00 00 00 00	 call	 ?GetSingleton@ioItemMaker@@SAAAV1@XZ ; ioItemMaker::GetSingleton
  00052	8b c8		 mov	 ecx, eax
  00054	e8 00 00 00 00	 call	 ?GetItemConst@ioItemMaker@@QBEPBVioItem@@KABVioHashString@@@Z ; ioItemMaker::GetItemConst
  00059	8d 4d e0	 lea	 ecx, DWORD PTR $T509169[ebp]
  0005c	8b d8		 mov	 ebx, eax
  0005e	c6 45 fc 00	 mov	 BYTE PTR __$EHRec$[ebp+8], 0
  00062	ff 15 00 00 00
	00		 call	 DWORD PTR __imp_??1ioHashString@@QAE@XZ

; 150  : 	if( pItem )

  00068	8b 3d 00 00 00
	00		 mov	 edi, DWORD PTR __imp_??4ioHashString@@QAEAAV0@ABV0@@Z
  0006e	85 db		 test	 ebx, ebx
  00070	74 0c		 je	 SHORT $LN1@AddAccesso

; 151  : 		sAccessorySlot.m_Name = pItem->GetName();

  00072	81 c3 34 01 00
	00		 add	 ebx, 308		; 00000134H
  00078	53		 push	 ebx
  00079	8d 4d c0	 lea	 ecx, DWORD PTR _sAccessorySlot$[ebp+36]
  0007c	ff d7		 call	 edi
$LN1@AddAccesso:

; 152  : 	sAccessorySlot.m_IconName = g_ItemMaker.GetItemLargeIcon( sNewSlot.m_iAccessoryCode, 0 );

  0007e	6a 00		 push	 0
  00080	ff 36		 push	 DWORD PTR [esi]
  00082	e8 00 00 00 00	 call	 ?GetSingleton@ioItemMaker@@SAAAV1@XZ ; ioItemMaker::GetSingleton
  00087	8b c8		 mov	 ecx, eax
  00089	e8 00 00 00 00	 call	 ?GetItemLargeIcon@ioItemMaker@@QBEABVioHashString@@KK@Z ; ioItemMaker::GetItemLargeIcon
  0008e	50		 push	 eax
  0008f	8d 4d d0	 lea	 ecx, DWORD PTR _sAccessorySlot$[ebp+52]
  00092	ff d7		 call	 edi

; 153  : 
; 154  : 	m_AccessorySlotList.push_back( sAccessorySlot );

  00094	8b 4d f0	 mov	 ecx, DWORD PTR _this$[ebp]
  00097	8d 45 9c	 lea	 eax, DWORD PTR _sAccessorySlot$[ebp]
  0009a	50		 push	 eax
  0009b	e8 00 00 00 00	 call	 ?push_back@?$vector@UtagAccessorySlot@@V?$allocator@UtagAccessorySlot@@@std@@@std@@QAEXABUtagAccessorySlot@@@Z ; std::vector<tagAccessorySlot,std::allocator<tagAccessorySlot> >::push_back

; 155  : }

  000a0	83 4d fc ff	 or	 DWORD PTR __$EHRec$[ebp+8], -1
  000a4	8d 4d 9c	 lea	 ecx, DWORD PTR _sAccessorySlot$[ebp]
  000a7	e8 00 00 00 00	 call	 ??1tagAccessorySlot@@QAE@XZ
$LN3@AddAccesso:
  000ac	e8 00 00 00 00	 call	 __EH_epilog3
  000b1	c2 04 00	 ret	 4
_TEXT	ENDS
;	COMDAT text$x
text$x	SEGMENT
__unwindfunclet$?AddAccessorySlotData@ioUserAccessory@@QAEXABUtagAccessorySlot@@@Z$0:
  00000	8d 4d 9c	 lea	 ecx, DWORD PTR _sAccessorySlot$[ebp]
  00003	e9 00 00 00 00	 jmp	 ??1tagAccessorySlot@@QAE@XZ
__unwindfunclet$?AddAccessorySlotData@ioUserAccessory@@QAEXABUtagAccessorySlot@@@Z$1:
  00008	8d 4d e0	 lea	 ecx, DWORD PTR $T509169[ebp]
  0000b	ff 25 00 00 00
	00		 jmp	 DWORD PTR __imp_??1ioHashString@@QAE@XZ
__ehhandler$?AddAccessorySlotData@ioUserAccessory@@QAEXABUtagAccessorySlot@@@Z:
  00011	8b 54 24 08	 mov	 edx, DWORD PTR [esp+8]
  00015	8d 42 0c	 lea	 eax, DWORD PTR [edx+12]
  00018	8b 4a 98	 mov	 ecx, DWORD PTR [edx-104]
  0001b	33 c8		 xor	 ecx, eax
  0001d	e8 00 00 00 00	 call	 @__security_check_cookie@4
  00022	b8 00 00 00 00	 mov	 eax, OFFSET __ehfuncinfo$?AddAccessorySlotData@ioUserAccessory@@QAEXABUtagAccessorySlot@@@Z
  00027	e9 00 00 00 00	 jmp	 ___CxxFrameHandler3
text$x	ENDS
?AddAccessorySlotData@ioUserAccessory@@QAEXABUtagAccessorySlot@@@Z ENDP ; ioUserAccessory::AddAccessorySlotData
END
