; Listing generated by Microsoft (R) Optimizing Compiler Version 16.00.30319.01 

	TITLE	D:\Lost Saga For Developer\Youtube\Tutorial\Source\src\LSClient\ioUserTournament.cpp
	.686P
	.XMM
	include listing.inc
	.model	flat

INCLUDELIB MSVCRT
INCLUDELIB OLDNAMES

PUBLIC	?GetTourIndex@TeamGlobalData@@QAEKXZ		; TeamGlobalData::GetTourIndex
; Function compile flags: /Ogsp
; File d:\lost saga for developer\youtube\tutorial\source\src\lsclient\iotournamentteammanager.h
;	COMDAT ?GetTourIndex@TeamGlobalData@@QAEKXZ
_TEXT	SEGMENT
?GetTourIndex@TeamGlobalData@@QAEKXZ PROC		; TeamGlobalData::GetTourIndex, COMDAT
; _this$ = ecx

; 35   : 	inline DWORD GetTourIndex(){ return m_DefaultData.m_dwTourIndex; }

  00000	8b 41 04	 mov	 eax, DWORD PTR [ecx+4]
  00003	c3		 ret	 0
?GetTourIndex@TeamGlobalData@@QAEKXZ ENDP		; TeamGlobalData::GetTourIndex
_TEXT	ENDS
PUBLIC	?GetTeamIndex@TeamGlobalData@@QAEKXZ		; TeamGlobalData::GetTeamIndex
; Function compile flags: /Ogsp
;	COMDAT ?GetTeamIndex@TeamGlobalData@@QAEKXZ
_TEXT	SEGMENT
?GetTeamIndex@TeamGlobalData@@QAEKXZ PROC		; TeamGlobalData::GetTeamIndex, COMDAT
; _this$ = ecx

; 36   : 	inline DWORD GetTeamIndex(){ return m_DefaultData.m_dwTeamIndex; }

  00000	8b 41 08	 mov	 eax, DWORD PTR [ecx+8]
  00003	c3		 ret	 0
?GetTeamIndex@TeamGlobalData@@QAEKXZ ENDP		; TeamGlobalData::GetTeamIndex
_TEXT	ENDS
PUBLIC	?GetTeamName@TeamGlobalData@@QAEAAVioHashString@@XZ ; TeamGlobalData::GetTeamName
; Function compile flags: /Ogsp
;	COMDAT ?GetTeamName@TeamGlobalData@@QAEAAVioHashString@@XZ
_TEXT	SEGMENT
?GetTeamName@TeamGlobalData@@QAEAAVioHashString@@XZ PROC ; TeamGlobalData::GetTeamName, COMDAT
; _this$ = ecx

; 38   : 	inline ioHashString &GetTeamName(){ return m_DefaultData.m_szTeamName; }

  00000	8d 41 10	 lea	 eax, DWORD PTR [ecx+16]
  00003	c3		 ret	 0
?GetTeamName@TeamGlobalData@@QAEAAVioHashString@@XZ ENDP ; TeamGlobalData::GetTeamName
_TEXT	ENDS
PUBLIC	?GetCampPos@TeamGlobalData@@QAEEXZ		; TeamGlobalData::GetCampPos
; Function compile flags: /Ogsp
;	COMDAT ?GetCampPos@TeamGlobalData@@QAEEXZ
_TEXT	SEGMENT
?GetCampPos@TeamGlobalData@@QAEEXZ PROC			; TeamGlobalData::GetCampPos, COMDAT
; _this$ = ecx

; 45   : 	inline BYTE  GetCampPos(){ return m_CampPos; }

  00000	8a 41 40	 mov	 al, BYTE PTR [ecx+64]
  00003	c3		 ret	 0
?GetCampPos@TeamGlobalData@@QAEEXZ ENDP			; TeamGlobalData::GetCampPos
_TEXT	ENDS
PUBLIC	?SetPosition@TeamGlobalData@@QAEXF@Z		; TeamGlobalData::SetPosition
; Function compile flags: /Ogsp
;	COMDAT ?SetPosition@TeamGlobalData@@QAEXF@Z
_TEXT	SEGMENT
_Position$ = 8						; size = 2
?SetPosition@TeamGlobalData@@QAEXF@Z PROC		; TeamGlobalData::SetPosition, COMDAT
; _this$ = ecx

; 49   : 	void SetPosition( SHORT Position ){ m_Position = Position; }

  00000	55		 push	 ebp
  00001	8b ec		 mov	 ebp, esp
  00003	66 8b 45 08	 mov	 ax, WORD PTR _Position$[ebp]
  00007	66 89 41 30	 mov	 WORD PTR [ecx+48], ax
  0000b	5d		 pop	 ebp
  0000c	c2 04 00	 ret	 4
?SetPosition@TeamGlobalData@@QAEXF@Z ENDP		; TeamGlobalData::SetPosition
_TEXT	ENDS
PUBLIC	?SetTourPos@TeamGlobalData@@QAEXE@Z		; TeamGlobalData::SetTourPos
; Function compile flags: /Ogsp
;	COMDAT ?SetTourPos@TeamGlobalData@@QAEXE@Z
_TEXT	SEGMENT
_TourPos$ = 8						; size = 1
?SetTourPos@TeamGlobalData@@QAEXE@Z PROC		; TeamGlobalData::SetTourPos, COMDAT
; _this$ = ecx

; 50   : 	void SetTourPos( BYTE TourPos ){ m_TourPos = TourPos; }

  00000	55		 push	 ebp
  00001	8b ec		 mov	 ebp, esp
  00003	8a 45 08	 mov	 al, BYTE PTR _TourPos$[ebp]
  00006	88 41 38	 mov	 BYTE PTR [ecx+56], al
  00009	5d		 pop	 ebp
  0000a	c2 04 00	 ret	 4
?SetTourPos@TeamGlobalData@@QAEXE@Z ENDP		; TeamGlobalData::SetTourPos
_TEXT	ENDS
PUBLIC	??0TeamUserData@@QAE@ABU0@@Z			; TeamUserData::TeamUserData
EXTRN	__imp_??0ioHashString@@QAE@ABV0@@Z:PROC
; Function compile flags: /Ogsp
;	COMDAT ??0TeamUserData@@QAE@ABU0@@Z
_TEXT	SEGMENT
___that$ = 8						; size = 4
??0TeamUserData@@QAE@ABU0@@Z PROC			; TeamUserData::TeamUserData, COMDAT
; _this$ = ecx
  00000	55		 push	 ebp
  00001	8b ec		 mov	 ebp, esp
  00003	8b 45 08	 mov	 eax, DWORD PTR ___that$[ebp]
  00006	56		 push	 esi
  00007	8b f1		 mov	 esi, ecx
  00009	8b 08		 mov	 ecx, DWORD PTR [eax]
  0000b	89 0e		 mov	 DWORD PTR [esi], ecx
  0000d	8b 48 04	 mov	 ecx, DWORD PTR [eax+4]
  00010	83 c0 08	 add	 eax, 8
  00013	89 4e 04	 mov	 DWORD PTR [esi+4], ecx
  00016	50		 push	 eax
  00017	8d 4e 08	 lea	 ecx, DWORD PTR [esi+8]
  0001a	ff 15 00 00 00
	00		 call	 DWORD PTR __imp_??0ioHashString@@QAE@ABV0@@Z
  00020	8b c6		 mov	 eax, esi
  00022	5e		 pop	 esi
  00023	5d		 pop	 ebp
  00024	c2 04 00	 ret	 4
??0TeamUserData@@QAE@ABU0@@Z ENDP			; TeamUserData::TeamUserData
_TEXT	ENDS
PUBLIC	??_7bad_alloc@std@@6B@				; std::bad_alloc::`vftable'
PUBLIC	??0bad_alloc@std@@QAE@PBD@Z			; std::bad_alloc::bad_alloc
PUBLIC	??_R4bad_alloc@std@@6B@				; std::bad_alloc::`RTTI Complete Object Locator'
PUBLIC	??_R0?AVbad_alloc@std@@@8			; std::bad_alloc `RTTI Type Descriptor'
PUBLIC	??_R3bad_alloc@std@@8				; std::bad_alloc::`RTTI Class Hierarchy Descriptor'
PUBLIC	??_R2bad_alloc@std@@8				; std::bad_alloc::`RTTI Base Class Array'
PUBLIC	??_R1A@?0A@EA@bad_alloc@std@@8			; std::bad_alloc::`RTTI Base Class Descriptor at (0,-1,0,64)'
PUBLIC	??_R1A@?0A@EA@exception@std@@8			; std::exception::`RTTI Base Class Descriptor at (0,-1,0,64)'
PUBLIC	??_R0?AVexception@std@@@8			; std::exception `RTTI Type Descriptor'
PUBLIC	??_R3exception@std@@8				; std::exception::`RTTI Class Hierarchy Descriptor'
PUBLIC	??_R2exception@std@@8				; std::exception::`RTTI Base Class Array'
EXTRN	__imp_??0exception@std@@QAE@ABQBD@Z:PROC
EXTRN	??_7type_info@@6B@:QWORD			; type_info::`vftable'
EXTRN	??_Ebad_alloc@std@@UAEPAXI@Z:PROC		; std::bad_alloc::`vector deleting destructor'
EXTRN	?what@exception@std@@UBEPBDXZ:PROC		; std::exception::what
;	COMDAT ??_R2exception@std@@8
; File c:\program files (x86)\microsoft visual studio 10.0\vc\include\exception
rdata$r	SEGMENT
??_R2exception@std@@8 DD FLAT:??_R1A@?0A@EA@exception@std@@8 ; std::exception::`RTTI Base Class Array'
rdata$r	ENDS
;	COMDAT ??_R3exception@std@@8
rdata$r	SEGMENT
??_R3exception@std@@8 DD 00H				; std::exception::`RTTI Class Hierarchy Descriptor'
	DD	00H
	DD	01H
	DD	FLAT:??_R2exception@std@@8
rdata$r	ENDS
;	COMDAT ??_R0?AVexception@std@@@8
_DATA	SEGMENT
??_R0?AVexception@std@@@8 DD FLAT:??_7type_info@@6B@	; std::exception `RTTI Type Descriptor'
	DD	00H
	DB	'.?AVexception@std@@', 00H
_DATA	ENDS
;	COMDAT ??_R1A@?0A@EA@exception@std@@8
rdata$r	SEGMENT
??_R1A@?0A@EA@exception@std@@8 DD FLAT:??_R0?AVexception@std@@@8 ; std::exception::`RTTI Base Class Descriptor at (0,-1,0,64)'
	DD	00H
	DD	00H
	DD	0ffffffffH
	DD	00H
	DD	040H
	DD	FLAT:??_R3exception@std@@8
rdata$r	ENDS
;	COMDAT ??_R1A@?0A@EA@bad_alloc@std@@8
rdata$r	SEGMENT
??_R1A@?0A@EA@bad_alloc@std@@8 DD FLAT:??_R0?AVbad_alloc@std@@@8 ; std::bad_alloc::`RTTI Base Class Descriptor at (0,-1,0,64)'
	DD	01H
	DD	00H
	DD	0ffffffffH
	DD	00H
	DD	040H
	DD	FLAT:??_R3bad_alloc@std@@8
rdata$r	ENDS
;	COMDAT ??_R2bad_alloc@std@@8
rdata$r	SEGMENT
??_R2bad_alloc@std@@8 DD FLAT:??_R1A@?0A@EA@bad_alloc@std@@8 ; std::bad_alloc::`RTTI Base Class Array'
	DD	FLAT:??_R1A@?0A@EA@exception@std@@8
rdata$r	ENDS
;	COMDAT ??_R3bad_alloc@std@@8
rdata$r	SEGMENT
??_R3bad_alloc@std@@8 DD 00H				; std::bad_alloc::`RTTI Class Hierarchy Descriptor'
	DD	00H
	DD	02H
	DD	FLAT:??_R2bad_alloc@std@@8
rdata$r	ENDS
;	COMDAT ??_R0?AVbad_alloc@std@@@8
_DATA	SEGMENT
??_R0?AVbad_alloc@std@@@8 DD FLAT:??_7type_info@@6B@	; std::bad_alloc `RTTI Type Descriptor'
	DD	00H
	DB	'.?AVbad_alloc@std@@', 00H
_DATA	ENDS
;	COMDAT ??_R4bad_alloc@std@@6B@
rdata$r	SEGMENT
??_R4bad_alloc@std@@6B@ DD 00H				; std::bad_alloc::`RTTI Complete Object Locator'
	DD	00H
	DD	00H
	DD	FLAT:??_R0?AVbad_alloc@std@@@8
	DD	FLAT:??_R3bad_alloc@std@@8
rdata$r	ENDS
;	COMDAT ??_7bad_alloc@std@@6B@
CONST	SEGMENT
??_7bad_alloc@std@@6B@ DD FLAT:??_R4bad_alloc@std@@6B@	; std::bad_alloc::`vftable'
	DD	FLAT:??_Ebad_alloc@std@@UAEPAXI@Z
	DD	FLAT:?what@exception@std@@UBEPBDXZ
; Function compile flags: /Ogsp
CONST	ENDS
;	COMDAT ??0bad_alloc@std@@QAE@PBD@Z
_TEXT	SEGMENT
__Message$ = 8						; size = 4
??0bad_alloc@std@@QAE@PBD@Z PROC			; std::bad_alloc::bad_alloc, COMDAT
; _this$ = ecx

; 345  : 		{	// construct from message string

  00000	55		 push	 ebp
  00001	8b ec		 mov	 ebp, esp
  00003	56		 push	 esi
  00004	8d 45 08	 lea	 eax, DWORD PTR __Message$[ebp]
  00007	50		 push	 eax
  00008	8b f1		 mov	 esi, ecx
  0000a	ff 15 00 00 00
	00		 call	 DWORD PTR __imp_??0exception@std@@QAE@ABQBD@Z
  00010	c7 06 00 00 00
	00		 mov	 DWORD PTR [esi], OFFSET ??_7bad_alloc@std@@6B@

; 346  : 		}

  00016	8b c6		 mov	 eax, esi
  00018	5e		 pop	 esi
  00019	5d		 pop	 ebp
  0001a	c2 04 00	 ret	 4
??0bad_alloc@std@@QAE@PBD@Z ENDP			; std::bad_alloc::bad_alloc
_TEXT	ENDS
PUBLIC	??1bad_alloc@std@@UAE@XZ			; std::bad_alloc::~bad_alloc
EXTRN	__imp_??1exception@std@@UAE@XZ:PROC
; Function compile flags: /Ogsp
;	COMDAT ??1bad_alloc@std@@UAE@XZ
_TEXT	SEGMENT
??1bad_alloc@std@@UAE@XZ PROC				; std::bad_alloc::~bad_alloc, COMDAT
; _this$ = ecx

; 354  : 		{	// destroy the object

  00000	c7 01 00 00 00
	00		 mov	 DWORD PTR [ecx], OFFSET ??_7bad_alloc@std@@6B@

; 355  : 		}

  00006	ff 25 00 00 00
	00		 jmp	 DWORD PTR __imp_??1exception@std@@UAE@XZ
??1bad_alloc@std@@UAE@XZ ENDP				; std::bad_alloc::~bad_alloc
_TEXT	ENDS
EXTRN	??3@YAXPAX@Z:PROC				; operator delete
; Function compile flags: /Ogsp
;	COMDAT ??_Gbad_alloc@std@@UAEPAXI@Z
_TEXT	SEGMENT
___flags$ = 8						; size = 4
??_Gbad_alloc@std@@UAEPAXI@Z PROC			; std::bad_alloc::`scalar deleting destructor', COMDAT
; _this$ = ecx
  00000	55		 push	 ebp
  00001	8b ec		 mov	 ebp, esp
  00003	56		 push	 esi
  00004	8b f1		 mov	 esi, ecx
  00006	c7 06 00 00 00
	00		 mov	 DWORD PTR [esi], OFFSET ??_7bad_alloc@std@@6B@
  0000c	ff 15 00 00 00
	00		 call	 DWORD PTR __imp_??1exception@std@@UAE@XZ
  00012	f6 45 08 01	 test	 BYTE PTR ___flags$[ebp], 1
  00016	74 07		 je	 SHORT $LN1@scalar
  00018	56		 push	 esi
  00019	e8 00 00 00 00	 call	 ??3@YAXPAX@Z		; operator delete
  0001e	59		 pop	 ecx
$LN1@scalar:
  0001f	8b c6		 mov	 eax, esi
  00021	5e		 pop	 esi
  00022	5d		 pop	 ebp
  00023	c2 04 00	 ret	 4
??_Gbad_alloc@std@@UAEPAXI@Z ENDP			; std::bad_alloc::`scalar deleting destructor'
_TEXT	ENDS
PUBLIC	?IsUpdateMainUI@ioUserTournament@@QAE_NXZ	; ioUserTournament::IsUpdateMainUI
; Function compile flags: /Ogsp
; File d:\lost saga for developer\youtube\tutorial\source\src\lsclient\iousertournament.cpp
;	COMDAT ?IsUpdateMainUI@ioUserTournament@@QAE_NXZ
_TEXT	SEGMENT
?IsUpdateMainUI@ioUserTournament@@QAE_NXZ PROC		; ioUserTournament::IsUpdateMainUI, COMDAT
; _this$ = ecx

; 426  : 	bool bReturn = m_bUpdateMainUI;

  00000	8a 41 24	 mov	 al, BYTE PTR [ecx+36]

; 427  : 	m_bUpdateMainUI = false;

  00003	c6 41 24 00	 mov	 BYTE PTR [ecx+36], 0

; 428  : 
; 429  : 	return bReturn;
; 430  : }

  00007	c3		 ret	 0
?IsUpdateMainUI@ioUserTournament@@QAE_NXZ ENDP		; ioUserTournament::IsUpdateMainUI
_TEXT	ENDS
PUBLIC	?IsUpdateSubUI@ioUserTournament@@QAE_NXZ	; ioUserTournament::IsUpdateSubUI
; Function compile flags: /Ogsp
;	COMDAT ?IsUpdateSubUI@ioUserTournament@@QAE_NXZ
_TEXT	SEGMENT
?IsUpdateSubUI@ioUserTournament@@QAE_NXZ PROC		; ioUserTournament::IsUpdateSubUI, COMDAT
; _this$ = ecx

; 434  : 	bool bReturn = m_bUpdateSubUI;

  00000	8a 41 25	 mov	 al, BYTE PTR [ecx+37]

; 435  : 	m_bUpdateSubUI = false;

  00003	c6 41 25 00	 mov	 BYTE PTR [ecx+37], 0

; 436  : 
; 437  : 	return bReturn;
; 438  : }

  00007	c3		 ret	 0
?IsUpdateSubUI@ioUserTournament@@QAE_NXZ ENDP		; ioUserTournament::IsUpdateSubUI
_TEXT	ENDS
PUBLIC	??2@YAPAXIPAX@Z					; operator new
; Function compile flags: /Ogsp
; File c:\program files (x86)\microsoft visual studio 10.0\vc\include\new
;	COMDAT ??2@YAPAXIPAX@Z
_TEXT	SEGMENT
___formal$ = 8						; size = 4
__Where$ = 12						; size = 4
??2@YAPAXIPAX@Z PROC					; operator new, COMDAT

; 56   : 	{	// construct array with placement at _Where

  00000	55		 push	 ebp
  00001	8b ec		 mov	 ebp, esp

; 57   : 	return (_Where);

  00003	8b 45 0c	 mov	 eax, DWORD PTR __Where$[ebp]

; 58   : 	}

  00006	5d		 pop	 ebp
  00007	c3		 ret	 0
??2@YAPAXIPAX@Z ENDP					; operator new
_TEXT	ENDS
PUBLIC	??3@YAXPAX0@Z					; operator delete
; Function compile flags: /Ogsp
;	COMDAT ??3@YAXPAX0@Z
_TEXT	SEGMENT
___formal$ = 8						; size = 4
___formal$ = 12						; size = 4
??3@YAXPAX0@Z PROC					; operator delete, COMDAT

; 62   : 	}

  00000	c3		 ret	 0
??3@YAXPAX0@Z ENDP					; operator delete
_TEXT	ENDS
PUBLIC	?size@?$vector@UTeamUserData@@V?$allocator@UTeamUserData@@@std@@@std@@QBEIXZ ; std::vector<TeamUserData,std::allocator<TeamUserData> >::size
; Function compile flags: /Ogsp
; File c:\program files (x86)\microsoft visual studio 10.0\vc\include\vector
;	COMDAT ?size@?$vector@UTeamUserData@@V?$allocator@UTeamUserData@@@std@@@std@@QBEIXZ
_TEXT	SEGMENT
?size@?$vector@UTeamUserData@@V?$allocator@UTeamUserData@@@std@@@std@@QBEIXZ PROC ; std::vector<TeamUserData,std::allocator<TeamUserData> >::size, COMDAT
; _this$ = ecx

; 879  : 		return (this->_Mylast - this->_Myfirst);

  00000	8b 41 04	 mov	 eax, DWORD PTR [ecx+4]
  00003	2b 01		 sub	 eax, DWORD PTR [ecx]
  00005	6a 18		 push	 24			; 00000018H
  00007	99		 cdq
  00008	59		 pop	 ecx
  00009	f7 f9		 idiv	 ecx

; 880  : 		}

  0000b	c3		 ret	 0
?size@?$vector@UTeamUserData@@V?$allocator@UTeamUserData@@@std@@@std@@QBEIXZ ENDP ; std::vector<TeamUserData,std::allocator<TeamUserData> >::size
_TEXT	ENDS
PUBLIC	??D?$_Vector_const_iterator@V?$_Vector_val@UCheerTeamInfo@@V?$allocator@UCheerTeamInfo@@@std@@@std@@@std@@QBEABUCheerTeamInfo@@XZ ; std::_Vector_const_iterator<std::_Vector_val<CheerTeamInfo,std::allocator<CheerTeamInfo> > >::operator*
; Function compile flags: /Ogsp
;	COMDAT ??D?$_Vector_const_iterator@V?$_Vector_val@UCheerTeamInfo@@V?$allocator@UCheerTeamInfo@@@std@@@std@@@std@@QBEABUCheerTeamInfo@@XZ
_TEXT	SEGMENT
??D?$_Vector_const_iterator@V?$_Vector_val@UCheerTeamInfo@@V?$allocator@UCheerTeamInfo@@@std@@@std@@@std@@QBEABUCheerTeamInfo@@XZ PROC ; std::_Vector_const_iterator<std::_Vector_val<CheerTeamInfo,std::allocator<CheerTeamInfo> > >::operator*, COMDAT
; _this$ = ecx

; 64   :  #if _ITERATOR_DEBUG_LEVEL == 2
; 65   : 		if (this->_Getcont() == 0
; 66   : 			|| this->_Ptr == 0
; 67   : 			|| this->_Ptr < ((_Myvec *)this->_Getcont())->_Myfirst
; 68   : 			|| ((_Myvec *)this->_Getcont())->_Mylast <= this->_Ptr)
; 69   : 			{	// report error
; 70   : 			_DEBUG_ERROR("vector iterator not dereferencable");
; 71   : 			_SCL_SECURE_OUT_OF_RANGE;
; 72   : 			}
; 73   : 
; 74   :  #elif _ITERATOR_DEBUG_LEVEL == 1
; 75   : 		_SCL_SECURE_VALIDATE(this->_Getcont() != 0);
; 76   : 		_SCL_SECURE_VALIDATE_RANGE(
; 77   : 			this->_Ptr != 0
; 78   : 			&& ((_Myvec *)this->_Getcont())->_Myfirst <= this->_Ptr
; 79   : 			&& this->_Ptr < ((_Myvec *)this->_Getcont())->_Mylast);
; 80   :  #endif /* _ITERATOR_DEBUG_LEVEL */
; 81   : 
; 82   : 		__analysis_assume(this->_Ptr != 0);
; 83   : 
; 84   : 		return (*this->_Ptr);

  00000	8b 01		 mov	 eax, DWORD PTR [ecx]

; 85   : 		}

  00002	c3		 ret	 0
??D?$_Vector_const_iterator@V?$_Vector_val@UCheerTeamInfo@@V?$allocator@UCheerTeamInfo@@@std@@@std@@@std@@QBEABUCheerTeamInfo@@XZ ENDP ; std::_Vector_const_iterator<std::_Vector_val<CheerTeamInfo,std::allocator<CheerTeamInfo> > >::operator*
_TEXT	ENDS
PUBLIC	??E?$_Vector_const_iterator@V?$_Vector_val@UCheerTeamInfo@@V?$allocator@UCheerTeamInfo@@@std@@@std@@@std@@QAEAAV01@XZ ; std::_Vector_const_iterator<std::_Vector_val<CheerTeamInfo,std::allocator<CheerTeamInfo> > >::operator++
; Function compile flags: /Ogsp
;	COMDAT ??E?$_Vector_const_iterator@V?$_Vector_val@UCheerTeamInfo@@V?$allocator@UCheerTeamInfo@@@std@@@std@@@std@@QAEAAV01@XZ
_TEXT	SEGMENT
??E?$_Vector_const_iterator@V?$_Vector_val@UCheerTeamInfo@@V?$allocator@UCheerTeamInfo@@@std@@@std@@@std@@QAEAAV01@XZ PROC ; std::_Vector_const_iterator<std::_Vector_val<CheerTeamInfo,std::allocator<CheerTeamInfo> > >::operator++, COMDAT
; _this$ = ecx

; 93   : 		{	// preincrement

  00000	8b c1		 mov	 eax, ecx

; 94   :  #if _ITERATOR_DEBUG_LEVEL == 2
; 95   : 		if (this->_Getcont() == 0
; 96   : 			|| this->_Ptr == 0
; 97   : 			|| ((_Myvec *)this->_Getcont())->_Mylast <= this->_Ptr)
; 98   : 			{	// report error
; 99   : 			_DEBUG_ERROR("vector iterator not incrementable");
; 100  : 			_SCL_SECURE_OUT_OF_RANGE;
; 101  : 			}
; 102  : 
; 103  :  #elif _ITERATOR_DEBUG_LEVEL == 1
; 104  : 		_SCL_SECURE_VALIDATE(this->_Getcont() != 0);
; 105  : 		_SCL_SECURE_VALIDATE_RANGE(
; 106  : 			this->_Ptr != 0
; 107  : 			&& this->_Ptr < ((_Myvec *)this->_Getcont())->_Mylast);
; 108  :  #endif /* _ITERATOR_DEBUG_LEVEL */
; 109  : 
; 110  : 		++this->_Ptr;

  00002	83 00 10	 add	 DWORD PTR [eax], 16	; 00000010H

; 111  : 		return (*this);
; 112  : 		}

  00005	c3		 ret	 0
??E?$_Vector_const_iterator@V?$_Vector_val@UCheerTeamInfo@@V?$allocator@UCheerTeamInfo@@@std@@@std@@@std@@QAEAAV01@XZ ENDP ; std::_Vector_const_iterator<std::_Vector_val<CheerTeamInfo,std::allocator<CheerTeamInfo> > >::operator++
_TEXT	ENDS
PUBLIC	??D?$_Vector_iterator@V?$_Vector_val@UCheerTeamInfo@@V?$allocator@UCheerTeamInfo@@@std@@@std@@@std@@QBEAAUCheerTeamInfo@@XZ ; std::_Vector_iterator<std::_Vector_val<CheerTeamInfo,std::allocator<CheerTeamInfo> > >::operator*
; Function compile flags: /Ogsp
;	COMDAT ??D?$_Vector_iterator@V?$_Vector_val@UCheerTeamInfo@@V?$allocator@UCheerTeamInfo@@@std@@@std@@@std@@QBEAAUCheerTeamInfo@@XZ
_TEXT	SEGMENT
??D?$_Vector_iterator@V?$_Vector_val@UCheerTeamInfo@@V?$allocator@UCheerTeamInfo@@@std@@@std@@@std@@QBEAAUCheerTeamInfo@@XZ PROC ; std::_Vector_iterator<std::_Vector_val<CheerTeamInfo,std::allocator<CheerTeamInfo> > >::operator*, COMDAT
; _this$ = ecx

; 322  : 		return ((reference)**(_Mybase *)this);

  00000	8b 01		 mov	 eax, DWORD PTR [ecx]

; 323  : 		}

  00002	c3		 ret	 0
??D?$_Vector_iterator@V?$_Vector_val@UCheerTeamInfo@@V?$allocator@UCheerTeamInfo@@@std@@@std@@@std@@QBEAAUCheerTeamInfo@@XZ ENDP ; std::_Vector_iterator<std::_Vector_val<CheerTeamInfo,std::allocator<CheerTeamInfo> > >::operator*
_TEXT	ENDS
PUBLIC	??E?$_Vector_iterator@V?$_Vector_val@UCheerTeamInfo@@V?$allocator@UCheerTeamInfo@@@std@@@std@@@std@@QAEAAV01@XZ ; std::_Vector_iterator<std::_Vector_val<CheerTeamInfo,std::allocator<CheerTeamInfo> > >::operator++
; Function compile flags: /Ogsp
;	COMDAT ??E?$_Vector_iterator@V?$_Vector_val@UCheerTeamInfo@@V?$allocator@UCheerTeamInfo@@@std@@@std@@@std@@QAEAAV01@XZ
_TEXT	SEGMENT
??E?$_Vector_iterator@V?$_Vector_val@UCheerTeamInfo@@V?$allocator@UCheerTeamInfo@@@std@@@std@@@std@@QAEAAV01@XZ PROC ; std::_Vector_iterator<std::_Vector_val<CheerTeamInfo,std::allocator<CheerTeamInfo> > >::operator++, COMDAT
; _this$ = ecx

; 331  : 		{	// preincrement

  00000	8b c1		 mov	 eax, ecx

; 332  : 		++*(_Mybase *)this;

  00002	83 00 10	 add	 DWORD PTR [eax], 16	; 00000010H

; 333  : 		return (*this);
; 334  : 		}

  00005	c3		 ret	 0
??E?$_Vector_iterator@V?$_Vector_val@UCheerTeamInfo@@V?$allocator@UCheerTeamInfo@@@std@@@std@@@std@@QAEAAV01@XZ ENDP ; std::_Vector_iterator<std::_Vector_val<CheerTeamInfo,std::allocator<CheerTeamInfo> > >::operator++
_TEXT	ENDS
PUBLIC	?_Inside@?$vector@UTeamUserData@@V?$allocator@UTeamUserData@@@std@@@std@@IBE_NPBUTeamUserData@@@Z ; std::vector<TeamUserData,std::allocator<TeamUserData> >::_Inside
; Function compile flags: /Ogsp
;	COMDAT ?_Inside@?$vector@UTeamUserData@@V?$allocator@UTeamUserData@@@std@@@std@@IBE_NPBUTeamUserData@@@Z
_TEXT	SEGMENT
__Ptr$ = 8						; size = 4
?_Inside@?$vector@UTeamUserData@@V?$allocator@UTeamUserData@@@std@@@std@@IBE_NPBUTeamUserData@@@Z PROC ; std::vector<TeamUserData,std::allocator<TeamUserData> >::_Inside, COMDAT
; _this$ = ecx

; 1285 : 		{	// test if _Ptr points inside vector

  00000	55		 push	 ebp
  00001	8b ec		 mov	 ebp, esp

; 1286 : 		return (_Ptr < this->_Mylast && this->_Myfirst <= _Ptr);

  00003	8b 45 08	 mov	 eax, DWORD PTR __Ptr$[ebp]
  00006	3b 41 04	 cmp	 eax, DWORD PTR [ecx+4]
  00009	73 09		 jae	 SHORT $LN3@Inside
  0000b	39 01		 cmp	 DWORD PTR [ecx], eax
  0000d	77 05		 ja	 SHORT $LN3@Inside
  0000f	33 c0		 xor	 eax, eax
  00011	40		 inc	 eax
  00012	eb 02		 jmp	 SHORT $LN4@Inside
$LN3@Inside:
  00014	33 c0		 xor	 eax, eax
$LN4@Inside:

; 1287 : 		}

  00016	5d		 pop	 ebp
  00017	c2 04 00	 ret	 4
?_Inside@?$vector@UTeamUserData@@V?$allocator@UTeamUserData@@@std@@@std@@IBE_NPBUTeamUserData@@@Z ENDP ; std::vector<TeamUserData,std::allocator<TeamUserData> >::_Inside
_TEXT	ENDS
PUBLIC	?_Orphan_range@?$vector@UTeamUserData@@V?$allocator@UTeamUserData@@@std@@@std@@IBEXPAUTeamUserData@@0@Z ; std::vector<TeamUserData,std::allocator<TeamUserData> >::_Orphan_range
; Function compile flags: /Ogsp
;	COMDAT ?_Orphan_range@?$vector@UTeamUserData@@V?$allocator@UTeamUserData@@@std@@@std@@IBEXPAUTeamUserData@@0@Z
_TEXT	SEGMENT
___formal$ = 8						; size = 4
___formal$ = 12						; size = 4
?_Orphan_range@?$vector@UTeamUserData@@V?$allocator@UTeamUserData@@@std@@@std@@IBEXPAUTeamUserData@@0@Z PROC ; std::vector<TeamUserData,std::allocator<TeamUserData> >::_Orphan_range, COMDAT
; _this$ = ecx

; 1454 : 		}

  00000	c2 08 00	 ret	 8
?_Orphan_range@?$vector@UTeamUserData@@V?$allocator@UTeamUserData@@@std@@@std@@IBEXPAUTeamUserData@@0@Z ENDP ; std::vector<TeamUserData,std::allocator<TeamUserData> >::_Orphan_range
_TEXT	ENDS
PUBLIC	?_Inside@?$vector@UTeamData@@V?$allocator@UTeamData@@@std@@@std@@IBE_NPBUTeamData@@@Z ; std::vector<TeamData,std::allocator<TeamData> >::_Inside
; Function compile flags: /Ogsp
;	COMDAT ?_Inside@?$vector@UTeamData@@V?$allocator@UTeamData@@@std@@@std@@IBE_NPBUTeamData@@@Z
_TEXT	SEGMENT
__Ptr$ = 8						; size = 4
?_Inside@?$vector@UTeamData@@V?$allocator@UTeamData@@@std@@@std@@IBE_NPBUTeamData@@@Z PROC ; std::vector<TeamData,std::allocator<TeamData> >::_Inside, COMDAT
; _this$ = ecx

; 1285 : 		{	// test if _Ptr points inside vector

  00000	55		 push	 ebp
  00001	8b ec		 mov	 ebp, esp

; 1286 : 		return (_Ptr < this->_Mylast && this->_Myfirst <= _Ptr);

  00003	8b 45 08	 mov	 eax, DWORD PTR __Ptr$[ebp]
  00006	3b 41 04	 cmp	 eax, DWORD PTR [ecx+4]
  00009	73 09		 jae	 SHORT $LN3@Inside@2
  0000b	39 01		 cmp	 DWORD PTR [ecx], eax
  0000d	77 05		 ja	 SHORT $LN3@Inside@2
  0000f	33 c0		 xor	 eax, eax
  00011	40		 inc	 eax
  00012	eb 02		 jmp	 SHORT $LN4@Inside@2
$LN3@Inside@2:
  00014	33 c0		 xor	 eax, eax
$LN4@Inside@2:

; 1287 : 		}

  00016	5d		 pop	 ebp
  00017	c2 04 00	 ret	 4
?_Inside@?$vector@UTeamData@@V?$allocator@UTeamData@@@std@@@std@@IBE_NPBUTeamData@@@Z ENDP ; std::vector<TeamData,std::allocator<TeamData> >::_Inside
_TEXT	ENDS
PUBLIC	?_Orphan_range@?$vector@UTeamData@@V?$allocator@UTeamData@@@std@@@std@@IBEXPAUTeamData@@0@Z ; std::vector<TeamData,std::allocator<TeamData> >::_Orphan_range
; Function compile flags: /Ogsp
;	COMDAT ?_Orphan_range@?$vector@UTeamData@@V?$allocator@UTeamData@@@std@@@std@@IBEXPAUTeamData@@0@Z
_TEXT	SEGMENT
___formal$ = 8						; size = 4
___formal$ = 12						; size = 4
?_Orphan_range@?$vector@UTeamData@@V?$allocator@UTeamData@@@std@@@std@@IBEXPAUTeamData@@0@Z PROC ; std::vector<TeamData,std::allocator<TeamData> >::_Orphan_range, COMDAT
; _this$ = ecx

; 1454 : 		}

  00000	c2 08 00	 ret	 8
?_Orphan_range@?$vector@UTeamData@@V?$allocator@UTeamData@@@std@@@std@@IBEXPAUTeamData@@0@Z ENDP ; std::vector<TeamData,std::allocator<TeamData> >::_Orphan_range
_TEXT	ENDS
PUBLIC	??1?$_Vector_val@UTeamData@@V?$allocator@UTeamData@@@std@@@std@@QAE@XZ ; std::_Vector_val<TeamData,std::allocator<TeamData> >::~_Vector_val<TeamData,std::allocator<TeamData> >
; Function compile flags: /Ogsp
;	COMDAT ??1?$_Vector_val@UTeamData@@V?$allocator@UTeamData@@@std@@@std@@QAE@XZ
_TEXT	SEGMENT
??1?$_Vector_val@UTeamData@@V?$allocator@UTeamData@@@std@@@std@@QAE@XZ PROC ; std::_Vector_val<TeamData,std::allocator<TeamData> >::~_Vector_val<TeamData,std::allocator<TeamData> >, COMDAT
; _this$ = ecx

; 434  : 		}

  00000	c3		 ret	 0
??1?$_Vector_val@UTeamData@@V?$allocator@UTeamData@@@std@@@std@@QAE@XZ ENDP ; std::_Vector_val<TeamData,std::allocator<TeamData> >::~_Vector_val<TeamData,std::allocator<TeamData> >
_TEXT	ENDS
PUBLIC	??0?$allocator@UTeamData@@@std@@QAE@XZ		; std::allocator<TeamData>::allocator<TeamData>
; Function compile flags: /Ogsp
; File c:\program files (x86)\microsoft visual studio 10.0\vc\include\xmemory
;	COMDAT ??0?$allocator@UTeamData@@@std@@QAE@XZ
_TEXT	SEGMENT
??0?$allocator@UTeamData@@@std@@QAE@XZ PROC		; std::allocator<TeamData>::allocator<TeamData>, COMDAT
; _this$ = ecx

; 161  : 	_ALLOCATOR() _THROW0()

  00000	8b c1		 mov	 eax, ecx

; 162  : 		{	// construct default allocator (do nothing)
; 163  : 		}

  00002	c3		 ret	 0
??0?$allocator@UTeamData@@@std@@QAE@XZ ENDP		; std::allocator<TeamData>::allocator<TeamData>
_TEXT	ENDS
PUBLIC	?_Inside@?$vector@UCheerTeamInfo@@V?$allocator@UCheerTeamInfo@@@std@@@std@@IBE_NPBUCheerTeamInfo@@@Z ; std::vector<CheerTeamInfo,std::allocator<CheerTeamInfo> >::_Inside
; Function compile flags: /Ogsp
; File c:\program files (x86)\microsoft visual studio 10.0\vc\include\vector
;	COMDAT ?_Inside@?$vector@UCheerTeamInfo@@V?$allocator@UCheerTeamInfo@@@std@@@std@@IBE_NPBUCheerTeamInfo@@@Z
_TEXT	SEGMENT
__Ptr$ = 8						; size = 4
?_Inside@?$vector@UCheerTeamInfo@@V?$allocator@UCheerTeamInfo@@@std@@@std@@IBE_NPBUCheerTeamInfo@@@Z PROC ; std::vector<CheerTeamInfo,std::allocator<CheerTeamInfo> >::_Inside, COMDAT
; _this$ = ecx

; 1285 : 		{	// test if _Ptr points inside vector

  00000	55		 push	 ebp
  00001	8b ec		 mov	 ebp, esp

; 1286 : 		return (_Ptr < this->_Mylast && this->_Myfirst <= _Ptr);

  00003	8b 45 08	 mov	 eax, DWORD PTR __Ptr$[ebp]
  00006	3b 41 04	 cmp	 eax, DWORD PTR [ecx+4]
  00009	73 09		 jae	 SHORT $LN3@Inside@3
  0000b	39 01		 cmp	 DWORD PTR [ecx], eax
  0000d	77 05		 ja	 SHORT $LN3@Inside@3
  0000f	33 c0		 xor	 eax, eax
  00011	40		 inc	 eax
  00012	eb 02		 jmp	 SHORT $LN4@Inside@3
$LN3@Inside@3:
  00014	33 c0		 xor	 eax, eax
$LN4@Inside@3:

; 1287 : 		}

  00016	5d		 pop	 ebp
  00017	c2 04 00	 ret	 4
?_Inside@?$vector@UCheerTeamInfo@@V?$allocator@UCheerTeamInfo@@@std@@@std@@IBE_NPBUCheerTeamInfo@@@Z ENDP ; std::vector<CheerTeamInfo,std::allocator<CheerTeamInfo> >::_Inside
_TEXT	ENDS
PUBLIC	?_Orphan_range@?$vector@UCheerTeamInfo@@V?$allocator@UCheerTeamInfo@@@std@@@std@@IBEXPAUCheerTeamInfo@@0@Z ; std::vector<CheerTeamInfo,std::allocator<CheerTeamInfo> >::_Orphan_range
; Function compile flags: /Ogsp
;	COMDAT ?_Orphan_range@?$vector@UCheerTeamInfo@@V?$allocator@UCheerTeamInfo@@@std@@@std@@IBEXPAUCheerTeamInfo@@0@Z
_TEXT	SEGMENT
___formal$ = 8						; size = 4
___formal$ = 12						; size = 4
?_Orphan_range@?$vector@UCheerTeamInfo@@V?$allocator@UCheerTeamInfo@@@std@@@std@@IBEXPAUCheerTeamInfo@@0@Z PROC ; std::vector<CheerTeamInfo,std::allocator<CheerTeamInfo> >::_Orphan_range, COMDAT
; _this$ = ecx

; 1454 : 		}

  00000	c2 08 00	 ret	 8
?_Orphan_range@?$vector@UCheerTeamInfo@@V?$allocator@UCheerTeamInfo@@@std@@@std@@IBEXPAUCheerTeamInfo@@0@Z ENDP ; std::vector<CheerTeamInfo,std::allocator<CheerTeamInfo> >::_Orphan_range
_TEXT	ENDS
PUBLIC	?_Adopt@_Iterator_base0@std@@QAEXPBX@Z		; std::_Iterator_base0::_Adopt
; Function compile flags: /Ogsp
; File c:\program files (x86)\microsoft visual studio 10.0\vc\include\xutility
;	COMDAT ?_Adopt@_Iterator_base0@std@@QAEXPBX@Z
_TEXT	SEGMENT
___formal$ = 8						; size = 4
?_Adopt@_Iterator_base0@std@@QAEXPBX@Z PROC		; std::_Iterator_base0::_Adopt, COMDAT
; _this$ = ecx

; 49   : 		}

  00000	c2 04 00	 ret	 4
?_Adopt@_Iterator_base0@std@@QAEXPBX@Z ENDP		; std::_Iterator_base0::_Adopt
_TEXT	ENDS
PUBLIC	??1?$_Vector_val@UCheerTeamInfo@@V?$allocator@UCheerTeamInfo@@@std@@@std@@QAE@XZ ; std::_Vector_val<CheerTeamInfo,std::allocator<CheerTeamInfo> >::~_Vector_val<CheerTeamInfo,std::allocator<CheerTeamInfo> >
; Function compile flags: /Ogsp
; File c:\program files (x86)\microsoft visual studio 10.0\vc\include\vector
;	COMDAT ??1?$_Vector_val@UCheerTeamInfo@@V?$allocator@UCheerTeamInfo@@@std@@@std@@QAE@XZ
_TEXT	SEGMENT
??1?$_Vector_val@UCheerTeamInfo@@V?$allocator@UCheerTeamInfo@@@std@@@std@@QAE@XZ PROC ; std::_Vector_val<CheerTeamInfo,std::allocator<CheerTeamInfo> >::~_Vector_val<CheerTeamInfo,std::allocator<CheerTeamInfo> >, COMDAT
; _this$ = ecx

; 434  : 		}

  00000	c3		 ret	 0
??1?$_Vector_val@UCheerTeamInfo@@V?$allocator@UCheerTeamInfo@@@std@@@std@@QAE@XZ ENDP ; std::_Vector_val<CheerTeamInfo,std::allocator<CheerTeamInfo> >::~_Vector_val<CheerTeamInfo,std::allocator<CheerTeamInfo> >
_TEXT	ENDS
PUBLIC	??0?$allocator@UCheerTeamInfo@@@std@@QAE@XZ	; std::allocator<CheerTeamInfo>::allocator<CheerTeamInfo>
; Function compile flags: /Ogsp
; File c:\program files (x86)\microsoft visual studio 10.0\vc\include\xmemory
;	COMDAT ??0?$allocator@UCheerTeamInfo@@@std@@QAE@XZ
_TEXT	SEGMENT
??0?$allocator@UCheerTeamInfo@@@std@@QAE@XZ PROC	; std::allocator<CheerTeamInfo>::allocator<CheerTeamInfo>, COMDAT
; _this$ = ecx

; 161  : 	_ALLOCATOR() _THROW0()

  00000	8b c1		 mov	 eax, ecx

; 162  : 		{	// construct default allocator (do nothing)
; 163  : 		}

  00002	c3		 ret	 0
??0?$allocator@UCheerTeamInfo@@@std@@QAE@XZ ENDP	; std::allocator<CheerTeamInfo>::allocator<CheerTeamInfo>
_TEXT	ENDS
PUBLIC	??D?$_Vector_const_iterator@V?$_Vector_val@UTeamData@@V?$allocator@UTeamData@@@std@@@std@@@std@@QBEABUTeamData@@XZ ; std::_Vector_const_iterator<std::_Vector_val<TeamData,std::allocator<TeamData> > >::operator*
; Function compile flags: /Ogsp
; File c:\program files (x86)\microsoft visual studio 10.0\vc\include\vector
;	COMDAT ??D?$_Vector_const_iterator@V?$_Vector_val@UTeamData@@V?$allocator@UTeamData@@@std@@@std@@@std@@QBEABUTeamData@@XZ
_TEXT	SEGMENT
??D?$_Vector_const_iterator@V?$_Vector_val@UTeamData@@V?$allocator@UTeamData@@@std@@@std@@@std@@QBEABUTeamData@@XZ PROC ; std::_Vector_const_iterator<std::_Vector_val<TeamData,std::allocator<TeamData> > >::operator*, COMDAT
; _this$ = ecx

; 64   :  #if _ITERATOR_DEBUG_LEVEL == 2
; 65   : 		if (this->_Getcont() == 0
; 66   : 			|| this->_Ptr == 0
; 67   : 			|| this->_Ptr < ((_Myvec *)this->_Getcont())->_Myfirst
; 68   : 			|| ((_Myvec *)this->_Getcont())->_Mylast <= this->_Ptr)
; 69   : 			{	// report error
; 70   : 			_DEBUG_ERROR("vector iterator not dereferencable");
; 71   : 			_SCL_SECURE_OUT_OF_RANGE;
; 72   : 			}
; 73   : 
; 74   :  #elif _ITERATOR_DEBUG_LEVEL == 1
; 75   : 		_SCL_SECURE_VALIDATE(this->_Getcont() != 0);
; 76   : 		_SCL_SECURE_VALIDATE_RANGE(
; 77   : 			this->_Ptr != 0
; 78   : 			&& ((_Myvec *)this->_Getcont())->_Myfirst <= this->_Ptr
; 79   : 			&& this->_Ptr < ((_Myvec *)this->_Getcont())->_Mylast);
; 80   :  #endif /* _ITERATOR_DEBUG_LEVEL */
; 81   : 
; 82   : 		__analysis_assume(this->_Ptr != 0);
; 83   : 
; 84   : 		return (*this->_Ptr);

  00000	8b 01		 mov	 eax, DWORD PTR [ecx]

; 85   : 		}

  00002	c3		 ret	 0
??D?$_Vector_const_iterator@V?$_Vector_val@UTeamData@@V?$allocator@UTeamData@@@std@@@std@@@std@@QBEABUTeamData@@XZ ENDP ; std::_Vector_const_iterator<std::_Vector_val<TeamData,std::allocator<TeamData> > >::operator*
_TEXT	ENDS
PUBLIC	??E?$_Vector_const_iterator@V?$_Vector_val@UTeamData@@V?$allocator@UTeamData@@@std@@@std@@@std@@QAEAAV01@XZ ; std::_Vector_const_iterator<std::_Vector_val<TeamData,std::allocator<TeamData> > >::operator++
; Function compile flags: /Ogsp
;	COMDAT ??E?$_Vector_const_iterator@V?$_Vector_val@UTeamData@@V?$allocator@UTeamData@@@std@@@std@@@std@@QAEAAV01@XZ
_TEXT	SEGMENT
??E?$_Vector_const_iterator@V?$_Vector_val@UTeamData@@V?$allocator@UTeamData@@@std@@@std@@@std@@QAEAAV01@XZ PROC ; std::_Vector_const_iterator<std::_Vector_val<TeamData,std::allocator<TeamData> > >::operator++, COMDAT
; _this$ = ecx

; 93   : 		{	// preincrement

  00000	8b c1		 mov	 eax, ecx

; 94   :  #if _ITERATOR_DEBUG_LEVEL == 2
; 95   : 		if (this->_Getcont() == 0
; 96   : 			|| this->_Ptr == 0
; 97   : 			|| ((_Myvec *)this->_Getcont())->_Mylast <= this->_Ptr)
; 98   : 			{	// report error
; 99   : 			_DEBUG_ERROR("vector iterator not incrementable");
; 100  : 			_SCL_SECURE_OUT_OF_RANGE;
; 101  : 			}
; 102  : 
; 103  :  #elif _ITERATOR_DEBUG_LEVEL == 1
; 104  : 		_SCL_SECURE_VALIDATE(this->_Getcont() != 0);
; 105  : 		_SCL_SECURE_VALIDATE_RANGE(
; 106  : 			this->_Ptr != 0
; 107  : 			&& this->_Ptr < ((_Myvec *)this->_Getcont())->_Mylast);
; 108  :  #endif /* _ITERATOR_DEBUG_LEVEL */
; 109  : 
; 110  : 		++this->_Ptr;

  00002	83 00 2c	 add	 DWORD PTR [eax], 44	; 0000002cH

; 111  : 		return (*this);
; 112  : 		}

  00005	c3		 ret	 0
??E?$_Vector_const_iterator@V?$_Vector_val@UTeamData@@V?$allocator@UTeamData@@@std@@@std@@@std@@QAEAAV01@XZ ENDP ; std::_Vector_const_iterator<std::_Vector_val<TeamData,std::allocator<TeamData> > >::operator++
_TEXT	ENDS
PUBLIC	??D?$_Vector_const_iterator@V?$_Vector_val@UTeamUserData@@V?$allocator@UTeamUserData@@@std@@@std@@@std@@QBEABUTeamUserData@@XZ ; std::_Vector_const_iterator<std::_Vector_val<TeamUserData,std::allocator<TeamUserData> > >::operator*
; Function compile flags: /Ogsp
;	COMDAT ??D?$_Vector_const_iterator@V?$_Vector_val@UTeamUserData@@V?$allocator@UTeamUserData@@@std@@@std@@@std@@QBEABUTeamUserData@@XZ
_TEXT	SEGMENT
??D?$_Vector_const_iterator@V?$_Vector_val@UTeamUserData@@V?$allocator@UTeamUserData@@@std@@@std@@@std@@QBEABUTeamUserData@@XZ PROC ; std::_Vector_const_iterator<std::_Vector_val<TeamUserData,std::allocator<TeamUserData> > >::operator*, COMDAT
; _this$ = ecx

; 64   :  #if _ITERATOR_DEBUG_LEVEL == 2
; 65   : 		if (this->_Getcont() == 0
; 66   : 			|| this->_Ptr == 0
; 67   : 			|| this->_Ptr < ((_Myvec *)this->_Getcont())->_Myfirst
; 68   : 			|| ((_Myvec *)this->_Getcont())->_Mylast <= this->_Ptr)
; 69   : 			{	// report error
; 70   : 			_DEBUG_ERROR("vector iterator not dereferencable");
; 71   : 			_SCL_SECURE_OUT_OF_RANGE;
; 72   : 			}
; 73   : 
; 74   :  #elif _ITERATOR_DEBUG_LEVEL == 1
; 75   : 		_SCL_SECURE_VALIDATE(this->_Getcont() != 0);
; 76   : 		_SCL_SECURE_VALIDATE_RANGE(
; 77   : 			this->_Ptr != 0
; 78   : 			&& ((_Myvec *)this->_Getcont())->_Myfirst <= this->_Ptr
; 79   : 			&& this->_Ptr < ((_Myvec *)this->_Getcont())->_Mylast);
; 80   :  #endif /* _ITERATOR_DEBUG_LEVEL */
; 81   : 
; 82   : 		__analysis_assume(this->_Ptr != 0);
; 83   : 
; 84   : 		return (*this->_Ptr);

  00000	8b 01		 mov	 eax, DWORD PTR [ecx]

; 85   : 		}

  00002	c3		 ret	 0
??D?$_Vector_const_iterator@V?$_Vector_val@UTeamUserData@@V?$allocator@UTeamUserData@@@std@@@std@@@std@@QBEABUTeamUserData@@XZ ENDP ; std::_Vector_const_iterator<std::_Vector_val<TeamUserData,std::allocator<TeamUserData> > >::operator*
_TEXT	ENDS
PUBLIC	??E?$_Vector_const_iterator@V?$_Vector_val@UTeamUserData@@V?$allocator@UTeamUserData@@@std@@@std@@@std@@QAEAAV01@XZ ; std::_Vector_const_iterator<std::_Vector_val<TeamUserData,std::allocator<TeamUserData> > >::operator++
; Function compile flags: /Ogsp
;	COMDAT ??E?$_Vector_const_iterator@V?$_Vector_val@UTeamUserData@@V?$allocator@UTeamUserData@@@std@@@std@@@std@@QAEAAV01@XZ
_TEXT	SEGMENT
??E?$_Vector_const_iterator@V?$_Vector_val@UTeamUserData@@V?$allocator@UTeamUserData@@@std@@@std@@@std@@QAEAAV01@XZ PROC ; std::_Vector_const_iterator<std::_Vector_val<TeamUserData,std::allocator<TeamUserData> > >::operator++, COMDAT
; _this$ = ecx

; 93   : 		{	// preincrement

  00000	8b c1		 mov	 eax, ecx

; 94   :  #if _ITERATOR_DEBUG_LEVEL == 2
; 95   : 		if (this->_Getcont() == 0
; 96   : 			|| this->_Ptr == 0
; 97   : 			|| ((_Myvec *)this->_Getcont())->_Mylast <= this->_Ptr)
; 98   : 			{	// report error
; 99   : 			_DEBUG_ERROR("vector iterator not incrementable");
; 100  : 			_SCL_SECURE_OUT_OF_RANGE;
; 101  : 			}
; 102  : 
; 103  :  #elif _ITERATOR_DEBUG_LEVEL == 1
; 104  : 		_SCL_SECURE_VALIDATE(this->_Getcont() != 0);
; 105  : 		_SCL_SECURE_VALIDATE_RANGE(
; 106  : 			this->_Ptr != 0
; 107  : 			&& this->_Ptr < ((_Myvec *)this->_Getcont())->_Mylast);
; 108  :  #endif /* _ITERATOR_DEBUG_LEVEL */
; 109  : 
; 110  : 		++this->_Ptr;

  00002	83 00 18	 add	 DWORD PTR [eax], 24	; 00000018H

; 111  : 		return (*this);
; 112  : 		}

  00005	c3		 ret	 0
??E?$_Vector_const_iterator@V?$_Vector_val@UTeamUserData@@V?$allocator@UTeamUserData@@@std@@@std@@@std@@QAEAAV01@XZ ENDP ; std::_Vector_const_iterator<std::_Vector_val<TeamUserData,std::allocator<TeamUserData> > >::operator++
_TEXT	ENDS
PUBLIC	?capacity@?$vector@UTeamUserData@@V?$allocator@UTeamUserData@@@std@@@std@@QBEIXZ ; std::vector<TeamUserData,std::allocator<TeamUserData> >::capacity
; Function compile flags: /Ogsp
;	COMDAT ?capacity@?$vector@UTeamUserData@@V?$allocator@UTeamUserData@@@std@@@std@@QBEIXZ
_TEXT	SEGMENT
?capacity@?$vector@UTeamUserData@@V?$allocator@UTeamUserData@@@std@@@std@@QBEIXZ PROC ; std::vector<TeamUserData,std::allocator<TeamUserData> >::capacity, COMDAT
; _this$ = ecx

; 777  : 		return (this->_Myend - this->_Myfirst);

  00000	8b 41 08	 mov	 eax, DWORD PTR [ecx+8]
  00003	2b 01		 sub	 eax, DWORD PTR [ecx]
  00005	6a 18		 push	 24			; 00000018H
  00007	99		 cdq
  00008	59		 pop	 ecx
  00009	f7 f9		 idiv	 ecx

; 778  : 		}

  0000b	c3		 ret	 0
?capacity@?$vector@UTeamUserData@@V?$allocator@UTeamUserData@@@std@@@std@@QBEIXZ ENDP ; std::vector<TeamUserData,std::allocator<TeamUserData> >::capacity
_TEXT	ENDS
PUBLIC	??_C@_0BD@OLBABOEK@vector?$DMT?$DO?5too?5long?$AA@ ; `string'
PUBLIC	?_Xlen@?$vector@UTeamUserData@@V?$allocator@UTeamUserData@@@std@@@std@@IBEXXZ ; std::vector<TeamUserData,std::allocator<TeamUserData> >::_Xlen
EXTRN	__imp_?_Xlength_error@std@@YAXPBD@Z:PROC
;	COMDAT ??_C@_0BD@OLBABOEK@vector?$DMT?$DO?5too?5long?$AA@
CONST	SEGMENT
??_C@_0BD@OLBABOEK@vector?$DMT?$DO?5too?5long?$AA@ DB 'vector<T> too long'
	DB	00H						; `string'
; Function compile flags: /Ogsp
CONST	ENDS
;	COMDAT ?_Xlen@?$vector@UTeamUserData@@V?$allocator@UTeamUserData@@@std@@@std@@IBEXXZ
_TEXT	SEGMENT
?_Xlen@?$vector@UTeamUserData@@V?$allocator@UTeamUserData@@@std@@@std@@IBEXXZ PROC ; std::vector<TeamUserData,std::allocator<TeamUserData> >::_Xlen, COMDAT
; _this$ = ecx

; 1427 : 		_Xlength_error("vector<T> too long");

  00000	68 00 00 00 00	 push	 OFFSET ??_C@_0BD@OLBABOEK@vector?$DMT?$DO?5too?5long?$AA@
  00005	ff 15 00 00 00
	00		 call	 DWORD PTR __imp_?_Xlength_error@std@@YAXPBD@Z
$LN4@Xlen:
$LN3@Xlen:
  0000b	cc		 int	 3
?_Xlen@?$vector@UTeamUserData@@V?$allocator@UTeamUserData@@@std@@@std@@IBEXXZ ENDP ; std::vector<TeamUserData,std::allocator<TeamUserData> >::_Xlen
_TEXT	ENDS
PUBLIC	?capacity@?$vector@UTeamData@@V?$allocator@UTeamData@@@std@@@std@@QBEIXZ ; std::vector<TeamData,std::allocator<TeamData> >::capacity
; Function compile flags: /Ogsp
;	COMDAT ?capacity@?$vector@UTeamData@@V?$allocator@UTeamData@@@std@@@std@@QBEIXZ
_TEXT	SEGMENT
?capacity@?$vector@UTeamData@@V?$allocator@UTeamData@@@std@@@std@@QBEIXZ PROC ; std::vector<TeamData,std::allocator<TeamData> >::capacity, COMDAT
; _this$ = ecx

; 777  : 		return (this->_Myend - this->_Myfirst);

  00000	8b 41 08	 mov	 eax, DWORD PTR [ecx+8]
  00003	2b 01		 sub	 eax, DWORD PTR [ecx]
  00005	6a 2c		 push	 44			; 0000002cH
  00007	99		 cdq
  00008	59		 pop	 ecx
  00009	f7 f9		 idiv	 ecx

; 778  : 		}

  0000b	c3		 ret	 0
?capacity@?$vector@UTeamData@@V?$allocator@UTeamData@@@std@@@std@@QBEIXZ ENDP ; std::vector<TeamData,std::allocator<TeamData> >::capacity
_TEXT	ENDS
PUBLIC	?size@?$vector@UTeamData@@V?$allocator@UTeamData@@@std@@@std@@QBEIXZ ; std::vector<TeamData,std::allocator<TeamData> >::size
; Function compile flags: /Ogsp
;	COMDAT ?size@?$vector@UTeamData@@V?$allocator@UTeamData@@@std@@@std@@QBEIXZ
_TEXT	SEGMENT
?size@?$vector@UTeamData@@V?$allocator@UTeamData@@@std@@@std@@QBEIXZ PROC ; std::vector<TeamData,std::allocator<TeamData> >::size, COMDAT
; _this$ = ecx

; 879  : 		return (this->_Mylast - this->_Myfirst);

  00000	8b 41 04	 mov	 eax, DWORD PTR [ecx+4]
  00003	2b 01		 sub	 eax, DWORD PTR [ecx]
  00005	6a 2c		 push	 44			; 0000002cH
  00007	99		 cdq
  00008	59		 pop	 ecx
  00009	f7 f9		 idiv	 ecx

; 880  : 		}

  0000b	c3		 ret	 0
?size@?$vector@UTeamData@@V?$allocator@UTeamData@@@std@@@std@@QBEIXZ ENDP ; std::vector<TeamData,std::allocator<TeamData> >::size
_TEXT	ENDS
PUBLIC	?_Xlen@?$vector@UTeamData@@V?$allocator@UTeamData@@@std@@@std@@IBEXXZ ; std::vector<TeamData,std::allocator<TeamData> >::_Xlen
; Function compile flags: /Ogsp
;	COMDAT ?_Xlen@?$vector@UTeamData@@V?$allocator@UTeamData@@@std@@@std@@IBEXXZ
_TEXT	SEGMENT
?_Xlen@?$vector@UTeamData@@V?$allocator@UTeamData@@@std@@@std@@IBEXXZ PROC ; std::vector<TeamData,std::allocator<TeamData> >::_Xlen, COMDAT
; _this$ = ecx

; 1427 : 		_Xlength_error("vector<T> too long");

  00000	68 00 00 00 00	 push	 OFFSET ??_C@_0BD@OLBABOEK@vector?$DMT?$DO?5too?5long?$AA@
  00005	ff 15 00 00 00
	00		 call	 DWORD PTR __imp_?_Xlength_error@std@@YAXPBD@Z
$LN4@Xlen@2:
$LN3@Xlen@2:
  0000b	cc		 int	 3
?_Xlen@?$vector@UTeamData@@V?$allocator@UTeamData@@@std@@@std@@IBEXXZ ENDP ; std::vector<TeamData,std::allocator<TeamData> >::_Xlen
_TEXT	ENDS
PUBLIC	??0?$allocator@UTeamData@@@std@@QAE@ABV01@@Z	; std::allocator<TeamData>::allocator<TeamData>
; Function compile flags: /Ogsp
; File c:\program files (x86)\microsoft visual studio 10.0\vc\include\xmemory
;	COMDAT ??0?$allocator@UTeamData@@@std@@QAE@ABV01@@Z
_TEXT	SEGMENT
___formal$ = 8						; size = 4
??0?$allocator@UTeamData@@@std@@QAE@ABV01@@Z PROC	; std::allocator<TeamData>::allocator<TeamData>, COMDAT
; _this$ = ecx

; 165  : 	_ALLOCATOR(const _ALLOCATOR<_Ty>&) _THROW0()

  00000	8b c1		 mov	 eax, ecx

; 166  : 		{	// construct by copying (do nothing)
; 167  : 		}

  00002	c2 04 00	 ret	 4
??0?$allocator@UTeamData@@@std@@QAE@ABV01@@Z ENDP	; std::allocator<TeamData>::allocator<TeamData>
_TEXT	ENDS
PUBLIC	?deallocate@?$allocator@UTeamData@@@std@@QAEXPAUTeamData@@I@Z ; std::allocator<TeamData>::deallocate
; Function compile flags: /Ogsp
;	COMDAT ?deallocate@?$allocator@UTeamData@@@std@@QAEXPAUTeamData@@I@Z
_TEXT	SEGMENT
__Ptr$ = 8						; size = 4
___formal$ = 12						; size = 4
?deallocate@?$allocator@UTeamData@@@std@@QAEXPAUTeamData@@I@Z PROC ; std::allocator<TeamData>::deallocate, COMDAT
; _this$ = ecx

; 181  : 		{	// deallocate object at _Ptr, ignore size

  00000	55		 push	 ebp
  00001	8b ec		 mov	 ebp, esp

; 182  : 		::operator delete(_Ptr);

  00003	ff 75 08	 push	 DWORD PTR __Ptr$[ebp]
  00006	e8 00 00 00 00	 call	 ??3@YAXPAX@Z		; operator delete
  0000b	59		 pop	 ecx

; 183  : 		}

  0000c	5d		 pop	 ebp
  0000d	c2 08 00	 ret	 8
?deallocate@?$allocator@UTeamData@@@std@@QAEXPAUTeamData@@I@Z ENDP ; std::allocator<TeamData>::deallocate
_TEXT	ENDS
PUBLIC	?capacity@?$vector@UCheerTeamInfo@@V?$allocator@UCheerTeamInfo@@@std@@@std@@QBEIXZ ; std::vector<CheerTeamInfo,std::allocator<CheerTeamInfo> >::capacity
; Function compile flags: /Ogsp
; File c:\program files (x86)\microsoft visual studio 10.0\vc\include\vector
;	COMDAT ?capacity@?$vector@UCheerTeamInfo@@V?$allocator@UCheerTeamInfo@@@std@@@std@@QBEIXZ
_TEXT	SEGMENT
?capacity@?$vector@UCheerTeamInfo@@V?$allocator@UCheerTeamInfo@@@std@@@std@@QBEIXZ PROC ; std::vector<CheerTeamInfo,std::allocator<CheerTeamInfo> >::capacity, COMDAT
; _this$ = ecx

; 777  : 		return (this->_Myend - this->_Myfirst);

  00000	8b 41 08	 mov	 eax, DWORD PTR [ecx+8]
  00003	2b 01		 sub	 eax, DWORD PTR [ecx]
  00005	c1 f8 04	 sar	 eax, 4

; 778  : 		}

  00008	c3		 ret	 0
?capacity@?$vector@UCheerTeamInfo@@V?$allocator@UCheerTeamInfo@@@std@@@std@@QBEIXZ ENDP ; std::vector<CheerTeamInfo,std::allocator<CheerTeamInfo> >::capacity
_TEXT	ENDS
PUBLIC	?size@?$vector@UCheerTeamInfo@@V?$allocator@UCheerTeamInfo@@@std@@@std@@QBEIXZ ; std::vector<CheerTeamInfo,std::allocator<CheerTeamInfo> >::size
; Function compile flags: /Ogsp
;	COMDAT ?size@?$vector@UCheerTeamInfo@@V?$allocator@UCheerTeamInfo@@@std@@@std@@QBEIXZ
_TEXT	SEGMENT
?size@?$vector@UCheerTeamInfo@@V?$allocator@UCheerTeamInfo@@@std@@@std@@QBEIXZ PROC ; std::vector<CheerTeamInfo,std::allocator<CheerTeamInfo> >::size, COMDAT
; _this$ = ecx

; 879  : 		return (this->_Mylast - this->_Myfirst);

  00000	8b 41 04	 mov	 eax, DWORD PTR [ecx+4]
  00003	2b 01		 sub	 eax, DWORD PTR [ecx]
  00005	c1 f8 04	 sar	 eax, 4

; 880  : 		}

  00008	c3		 ret	 0
?size@?$vector@UCheerTeamInfo@@V?$allocator@UCheerTeamInfo@@@std@@@std@@QBEIXZ ENDP ; std::vector<CheerTeamInfo,std::allocator<CheerTeamInfo> >::size
_TEXT	ENDS
PUBLIC	?_Xlen@?$vector@UCheerTeamInfo@@V?$allocator@UCheerTeamInfo@@@std@@@std@@IBEXXZ ; std::vector<CheerTeamInfo,std::allocator<CheerTeamInfo> >::_Xlen
; Function compile flags: /Ogsp
;	COMDAT ?_Xlen@?$vector@UCheerTeamInfo@@V?$allocator@UCheerTeamInfo@@@std@@@std@@IBEXXZ
_TEXT	SEGMENT
?_Xlen@?$vector@UCheerTeamInfo@@V?$allocator@UCheerTeamInfo@@@std@@@std@@IBEXXZ PROC ; std::vector<CheerTeamInfo,std::allocator<CheerTeamInfo> >::_Xlen, COMDAT
; _this$ = ecx

; 1427 : 		_Xlength_error("vector<T> too long");

  00000	68 00 00 00 00	 push	 OFFSET ??_C@_0BD@OLBABOEK@vector?$DMT?$DO?5too?5long?$AA@
  00005	ff 15 00 00 00
	00		 call	 DWORD PTR __imp_?_Xlength_error@std@@YAXPBD@Z
$LN4@Xlen@3:
$LN3@Xlen@3:
  0000b	cc		 int	 3
?_Xlen@?$vector@UCheerTeamInfo@@V?$allocator@UCheerTeamInfo@@@std@@@std@@IBEXXZ ENDP ; std::vector<CheerTeamInfo,std::allocator<CheerTeamInfo> >::_Xlen
_TEXT	ENDS
PUBLIC	??0?$allocator@UCheerTeamInfo@@@std@@QAE@ABV01@@Z ; std::allocator<CheerTeamInfo>::allocator<CheerTeamInfo>
; Function compile flags: /Ogsp
; File c:\program files (x86)\microsoft visual studio 10.0\vc\include\xmemory
;	COMDAT ??0?$allocator@UCheerTeamInfo@@@std@@QAE@ABV01@@Z
_TEXT	SEGMENT
___formal$ = 8						; size = 4
??0?$allocator@UCheerTeamInfo@@@std@@QAE@ABV01@@Z PROC	; std::allocator<CheerTeamInfo>::allocator<CheerTeamInfo>, COMDAT
; _this$ = ecx

; 165  : 	_ALLOCATOR(const _ALLOCATOR<_Ty>&) _THROW0()

  00000	8b c1		 mov	 eax, ecx

; 166  : 		{	// construct by copying (do nothing)
; 167  : 		}

  00002	c2 04 00	 ret	 4
??0?$allocator@UCheerTeamInfo@@@std@@QAE@ABV01@@Z ENDP	; std::allocator<CheerTeamInfo>::allocator<CheerTeamInfo>
_TEXT	ENDS
PUBLIC	?deallocate@?$allocator@UCheerTeamInfo@@@std@@QAEXPAUCheerTeamInfo@@I@Z ; std::allocator<CheerTeamInfo>::deallocate
; Function compile flags: /Ogsp
;	COMDAT ?deallocate@?$allocator@UCheerTeamInfo@@@std@@QAEXPAUCheerTeamInfo@@I@Z
_TEXT	SEGMENT
__Ptr$ = 8						; size = 4
___formal$ = 12						; size = 4
?deallocate@?$allocator@UCheerTeamInfo@@@std@@QAEXPAUCheerTeamInfo@@I@Z PROC ; std::allocator<CheerTeamInfo>::deallocate, COMDAT
; _this$ = ecx

; 181  : 		{	// deallocate object at _Ptr, ignore size

  00000	55		 push	 ebp
  00001	8b ec		 mov	 ebp, esp

; 182  : 		::operator delete(_Ptr);

  00003	ff 75 08	 push	 DWORD PTR __Ptr$[ebp]
  00006	e8 00 00 00 00	 call	 ??3@YAXPAX@Z		; operator delete
  0000b	59		 pop	 ecx

; 183  : 		}

  0000c	5d		 pop	 ebp
  0000d	c2 08 00	 ret	 8
?deallocate@?$allocator@UCheerTeamInfo@@@std@@QAEXPAUCheerTeamInfo@@I@Z ENDP ; std::allocator<CheerTeamInfo>::deallocate
_TEXT	ENDS
PUBLIC	??0?$_Vector_const_iterator@V?$_Vector_val@UTeamData@@V?$allocator@UTeamData@@@std@@@std@@@std@@QAE@PAUTeamData@@PBU_Container_base0@1@@Z ; std::_Vector_const_iterator<std::_Vector_val<TeamData,std::allocator<TeamData> > >::_Vector_const_iterator<std::_Vector_val<TeamData,std::allocator<TeamData> > >
; Function compile flags: /Ogsp
; File c:\program files (x86)\microsoft visual studio 10.0\vc\include\vector
;	COMDAT ??0?$_Vector_const_iterator@V?$_Vector_val@UTeamData@@V?$allocator@UTeamData@@@std@@@std@@@std@@QAE@PAUTeamData@@PBU_Container_base0@1@@Z
_TEXT	SEGMENT
__Parg$ = 8						; size = 4
__Pvector$ = 12						; size = 4
??0?$_Vector_const_iterator@V?$_Vector_val@UTeamData@@V?$allocator@UTeamData@@@std@@@std@@@std@@QAE@PAUTeamData@@PBU_Container_base0@1@@Z PROC ; std::_Vector_const_iterator<std::_Vector_val<TeamData,std::allocator<TeamData> > >::_Vector_const_iterator<std::_Vector_val<TeamData,std::allocator<TeamData> > >, COMDAT
; _this$ = ecx

; 45   : 		{	// construct with pointer _Parg

  00000	55		 push	 ebp
  00001	8b ec		 mov	 ebp, esp
  00003	8b c1		 mov	 eax, ecx
  00005	8b 4d 08	 mov	 ecx, DWORD PTR __Parg$[ebp]
  00008	89 08		 mov	 DWORD PTR [eax], ecx

; 46   : 		this->_Adopt(_Pvector);
; 47   : 		}

  0000a	5d		 pop	 ebp
  0000b	c2 08 00	 ret	 8
??0?$_Vector_const_iterator@V?$_Vector_val@UTeamData@@V?$allocator@UTeamData@@@std@@@std@@@std@@QAE@PAUTeamData@@PBU_Container_base0@1@@Z ENDP ; std::_Vector_const_iterator<std::_Vector_val<TeamData,std::allocator<TeamData> > >::_Vector_const_iterator<std::_Vector_val<TeamData,std::allocator<TeamData> > >
_TEXT	ENDS
PUBLIC	?_Compat@?$_Vector_const_iterator@V?$_Vector_val@UTeamData@@V?$allocator@UTeamData@@@std@@@std@@@std@@QBEXABV12@@Z ; std::_Vector_const_iterator<std::_Vector_val<TeamData,std::allocator<TeamData> > >::_Compat
; Function compile flags: /Ogsp
;	COMDAT ?_Compat@?$_Vector_const_iterator@V?$_Vector_val@UTeamData@@V?$allocator@UTeamData@@@std@@@std@@@std@@QBEXABV12@@Z
_TEXT	SEGMENT
___formal$ = 8						; size = 4
?_Compat@?$_Vector_const_iterator@V?$_Vector_val@UTeamData@@V?$allocator@UTeamData@@@std@@@std@@@std@@QBEXABV12@@Z PROC ; std::_Vector_const_iterator<std::_Vector_val<TeamData,std::allocator<TeamData> > >::_Compat, COMDAT
; _this$ = ecx

; 253  : 		}

  00000	c2 04 00	 ret	 4
?_Compat@?$_Vector_const_iterator@V?$_Vector_val@UTeamData@@V?$allocator@UTeamData@@@std@@@std@@@std@@QBEXABV12@@Z ENDP ; std::_Vector_const_iterator<std::_Vector_val<TeamData,std::allocator<TeamData> > >::_Compat
_TEXT	ENDS
PUBLIC	??0?$_Vector_const_iterator@V?$_Vector_val@UTeamUserData@@V?$allocator@UTeamUserData@@@std@@@std@@@std@@QAE@PAUTeamUserData@@PBU_Container_base0@1@@Z ; std::_Vector_const_iterator<std::_Vector_val<TeamUserData,std::allocator<TeamUserData> > >::_Vector_const_iterator<std::_Vector_val<TeamUserData,std::allocator<TeamUserData> > >
; Function compile flags: /Ogsp
;	COMDAT ??0?$_Vector_const_iterator@V?$_Vector_val@UTeamUserData@@V?$allocator@UTeamUserData@@@std@@@std@@@std@@QAE@PAUTeamUserData@@PBU_Container_base0@1@@Z
_TEXT	SEGMENT
__Parg$ = 8						; size = 4
__Pvector$ = 12						; size = 4
??0?$_Vector_const_iterator@V?$_Vector_val@UTeamUserData@@V?$allocator@UTeamUserData@@@std@@@std@@@std@@QAE@PAUTeamUserData@@PBU_Container_base0@1@@Z PROC ; std::_Vector_const_iterator<std::_Vector_val<TeamUserData,std::allocator<TeamUserData> > >::_Vector_const_iterator<std::_Vector_val<TeamUserData,std::allocator<TeamUserData> > >, COMDAT
; _this$ = ecx

; 45   : 		{	// construct with pointer _Parg

  00000	55		 push	 ebp
  00001	8b ec		 mov	 ebp, esp
  00003	8b c1		 mov	 eax, ecx
  00005	8b 4d 08	 mov	 ecx, DWORD PTR __Parg$[ebp]
  00008	89 08		 mov	 DWORD PTR [eax], ecx

; 46   : 		this->_Adopt(_Pvector);
; 47   : 		}

  0000a	5d		 pop	 ebp
  0000b	c2 08 00	 ret	 8
??0?$_Vector_const_iterator@V?$_Vector_val@UTeamUserData@@V?$allocator@UTeamUserData@@@std@@@std@@@std@@QAE@PAUTeamUserData@@PBU_Container_base0@1@@Z ENDP ; std::_Vector_const_iterator<std::_Vector_val<TeamUserData,std::allocator<TeamUserData> > >::_Vector_const_iterator<std::_Vector_val<TeamUserData,std::allocator<TeamUserData> > >
_TEXT	ENDS
PUBLIC	?_Compat@?$_Vector_const_iterator@V?$_Vector_val@UTeamUserData@@V?$allocator@UTeamUserData@@@std@@@std@@@std@@QBEXABV12@@Z ; std::_Vector_const_iterator<std::_Vector_val<TeamUserData,std::allocator<TeamUserData> > >::_Compat
; Function compile flags: /Ogsp
;	COMDAT ?_Compat@?$_Vector_const_iterator@V?$_Vector_val@UTeamUserData@@V?$allocator@UTeamUserData@@@std@@@std@@@std@@QBEXABV12@@Z
_TEXT	SEGMENT
___formal$ = 8						; size = 4
?_Compat@?$_Vector_const_iterator@V?$_Vector_val@UTeamUserData@@V?$allocator@UTeamUserData@@@std@@@std@@@std@@QBEXABV12@@Z PROC ; std::_Vector_const_iterator<std::_Vector_val<TeamUserData,std::allocator<TeamUserData> > >::_Compat, COMDAT
; _this$ = ecx

; 253  : 		}

  00000	c2 04 00	 ret	 4
?_Compat@?$_Vector_const_iterator@V?$_Vector_val@UTeamUserData@@V?$allocator@UTeamUserData@@@std@@@std@@@std@@QBEXABV12@@Z ENDP ; std::_Vector_const_iterator<std::_Vector_val<TeamUserData,std::allocator<TeamUserData> > >::_Compat
_TEXT	ENDS
PUBLIC	??0?$_Vector_const_iterator@V?$_Vector_val@UCheerTeamInfo@@V?$allocator@UCheerTeamInfo@@@std@@@std@@@std@@QAE@PAUCheerTeamInfo@@PBU_Container_base0@1@@Z ; std::_Vector_const_iterator<std::_Vector_val<CheerTeamInfo,std::allocator<CheerTeamInfo> > >::_Vector_const_iterator<std::_Vector_val<CheerTeamInfo,std::allocator<CheerTeamInfo> > >
; Function compile flags: /Ogsp
;	COMDAT ??0?$_Vector_const_iterator@V?$_Vector_val@UCheerTeamInfo@@V?$allocator@UCheerTeamInfo@@@std@@@std@@@std@@QAE@PAUCheerTeamInfo@@PBU_Container_base0@1@@Z
_TEXT	SEGMENT
__Parg$ = 8						; size = 4
__Pvector$ = 12						; size = 4
??0?$_Vector_const_iterator@V?$_Vector_val@UCheerTeamInfo@@V?$allocator@UCheerTeamInfo@@@std@@@std@@@std@@QAE@PAUCheerTeamInfo@@PBU_Container_base0@1@@Z PROC ; std::_Vector_const_iterator<std::_Vector_val<CheerTeamInfo,std::allocator<CheerTeamInfo> > >::_Vector_const_iterator<std::_Vector_val<CheerTeamInfo,std::allocator<CheerTeamInfo> > >, COMDAT
; _this$ = ecx

; 45   : 		{	// construct with pointer _Parg

  00000	55		 push	 ebp
  00001	8b ec		 mov	 ebp, esp
  00003	8b c1		 mov	 eax, ecx
  00005	8b 4d 08	 mov	 ecx, DWORD PTR __Parg$[ebp]
  00008	89 08		 mov	 DWORD PTR [eax], ecx

; 46   : 		this->_Adopt(_Pvector);
; 47   : 		}

  0000a	5d		 pop	 ebp
  0000b	c2 08 00	 ret	 8
??0?$_Vector_const_iterator@V?$_Vector_val@UCheerTeamInfo@@V?$allocator@UCheerTeamInfo@@@std@@@std@@@std@@QAE@PAUCheerTeamInfo@@PBU_Container_base0@1@@Z ENDP ; std::_Vector_const_iterator<std::_Vector_val<CheerTeamInfo,std::allocator<CheerTeamInfo> > >::_Vector_const_iterator<std::_Vector_val<CheerTeamInfo,std::allocator<CheerTeamInfo> > >
_TEXT	ENDS
PUBLIC	?_Compat@?$_Vector_const_iterator@V?$_Vector_val@UCheerTeamInfo@@V?$allocator@UCheerTeamInfo@@@std@@@std@@@std@@QBEXABV12@@Z ; std::_Vector_const_iterator<std::_Vector_val<CheerTeamInfo,std::allocator<CheerTeamInfo> > >::_Compat
; Function compile flags: /Ogsp
;	COMDAT ?_Compat@?$_Vector_const_iterator@V?$_Vector_val@UCheerTeamInfo@@V?$allocator@UCheerTeamInfo@@@std@@@std@@@std@@QBEXABV12@@Z
_TEXT	SEGMENT
___formal$ = 8						; size = 4
?_Compat@?$_Vector_const_iterator@V?$_Vector_val@UCheerTeamInfo@@V?$allocator@UCheerTeamInfo@@@std@@@std@@@std@@QBEXABV12@@Z PROC ; std::_Vector_const_iterator<std::_Vector_val<CheerTeamInfo,std::allocator<CheerTeamInfo> > >::_Compat, COMDAT
; _this$ = ecx

; 253  : 		}

  00000	c2 04 00	 ret	 4
?_Compat@?$_Vector_const_iterator@V?$_Vector_val@UCheerTeamInfo@@V?$allocator@UCheerTeamInfo@@@std@@@std@@@std@@QBEXABV12@@Z ENDP ; std::_Vector_const_iterator<std::_Vector_val<CheerTeamInfo,std::allocator<CheerTeamInfo> > >::_Compat
_TEXT	ENDS
PUBLIC	?max_size@?$allocator@UTeamUserData@@@std@@QBEIXZ ; std::allocator<TeamUserData>::max_size
; Function compile flags: /Ogsp
; File c:\program files (x86)\microsoft visual studio 10.0\vc\include\xmemory
;	COMDAT ?max_size@?$allocator@UTeamUserData@@@std@@QBEIXZ
_TEXT	SEGMENT
?max_size@?$allocator@UTeamUserData@@@std@@QBEIXZ PROC	; std::allocator<TeamUserData>::max_size, COMDAT
; _this$ = ecx

; 218  : 		_SIZT _Count = (_SIZT)(-1) / sizeof (_Ty);
; 219  : 		return (0 < _Count ? _Count : 1);

  00000	b8 aa aa aa 0a	 mov	 eax, 178956970		; 0aaaaaaaH

; 220  : 		}

  00005	c3		 ret	 0
?max_size@?$allocator@UTeamUserData@@@std@@QBEIXZ ENDP	; std::allocator<TeamUserData>::max_size
_TEXT	ENDS
PUBLIC	?max_size@?$allocator@UTeamData@@@std@@QBEIXZ	; std::allocator<TeamData>::max_size
; Function compile flags: /Ogsp
;	COMDAT ?max_size@?$allocator@UTeamData@@@std@@QBEIXZ
_TEXT	SEGMENT
?max_size@?$allocator@UTeamData@@@std@@QBEIXZ PROC	; std::allocator<TeamData>::max_size, COMDAT
; _this$ = ecx

; 218  : 		_SIZT _Count = (_SIZT)(-1) / sizeof (_Ty);
; 219  : 		return (0 < _Count ? _Count : 1);

  00000	b8 5d 74 d1 05	 mov	 eax, 97612893		; 05d1745dH

; 220  : 		}

  00005	c3		 ret	 0
?max_size@?$allocator@UTeamData@@@std@@QBEIXZ ENDP	; std::allocator<TeamData>::max_size
_TEXT	ENDS
PUBLIC	?max_size@?$allocator@UCheerTeamInfo@@@std@@QBEIXZ ; std::allocator<CheerTeamInfo>::max_size
; Function compile flags: /Ogsp
;	COMDAT ?max_size@?$allocator@UCheerTeamInfo@@@std@@QBEIXZ
_TEXT	SEGMENT
?max_size@?$allocator@UCheerTeamInfo@@@std@@QBEIXZ PROC	; std::allocator<CheerTeamInfo>::max_size, COMDAT
; _this$ = ecx

; 218  : 		_SIZT _Count = (_SIZT)(-1) / sizeof (_Ty);
; 219  : 		return (0 < _Count ? _Count : 1);

  00000	b8 ff ff ff 0f	 mov	 eax, 268435455		; 0fffffffH

; 220  : 		}

  00005	c3		 ret	 0
?max_size@?$allocator@UCheerTeamInfo@@@std@@QBEIXZ ENDP	; std::allocator<CheerTeamInfo>::max_size
_TEXT	ENDS
PUBLIC	??$addressof@$$CBUTeamUserData@@@std@@YAPBUTeamUserData@@ABU1@@Z ; std::addressof<TeamUserData const >
; Function compile flags: /Ogsp
;	COMDAT ??$addressof@$$CBUTeamUserData@@@std@@YAPBUTeamUserData@@ABU1@@Z
_TEXT	SEGMENT
__Val$ = 8						; size = 4
??$addressof@$$CBUTeamUserData@@@std@@YAPBUTeamUserData@@ABU1@@Z PROC ; std::addressof<TeamUserData const >, COMDAT

; 110  : 	{	// return address of _Val

  00000	55		 push	 ebp
  00001	8b ec		 mov	 ebp, esp

; 111  : 	return ((_Ty *) &(char&)_Val);

  00003	8b 45 08	 mov	 eax, DWORD PTR __Val$[ebp]

; 112  : 	}

  00006	5d		 pop	 ebp
  00007	c3		 ret	 0
??$addressof@$$CBUTeamUserData@@@std@@YAPBUTeamUserData@@ABU1@@Z ENDP ; std::addressof<TeamUserData const >
_TEXT	ENDS
PUBLIC	??$addressof@$$CBUTeamData@@@std@@YAPBUTeamData@@ABU1@@Z ; std::addressof<TeamData const >
; Function compile flags: /Ogsp
;	COMDAT ??$addressof@$$CBUTeamData@@@std@@YAPBUTeamData@@ABU1@@Z
_TEXT	SEGMENT
__Val$ = 8						; size = 4
??$addressof@$$CBUTeamData@@@std@@YAPBUTeamData@@ABU1@@Z PROC ; std::addressof<TeamData const >, COMDAT

; 110  : 	{	// return address of _Val

  00000	55		 push	 ebp
  00001	8b ec		 mov	 ebp, esp

; 111  : 	return ((_Ty *) &(char&)_Val);

  00003	8b 45 08	 mov	 eax, DWORD PTR __Val$[ebp]

; 112  : 	}

  00006	5d		 pop	 ebp
  00007	c3		 ret	 0
??$addressof@$$CBUTeamData@@@std@@YAPBUTeamData@@ABU1@@Z ENDP ; std::addressof<TeamData const >
_TEXT	ENDS
PUBLIC	??$addressof@$$CBUCheerTeamInfo@@@std@@YAPBUCheerTeamInfo@@ABU1@@Z ; std::addressof<CheerTeamInfo const >
; Function compile flags: /Ogsp
;	COMDAT ??$addressof@$$CBUCheerTeamInfo@@@std@@YAPBUCheerTeamInfo@@ABU1@@Z
_TEXT	SEGMENT
__Val$ = 8						; size = 4
??$addressof@$$CBUCheerTeamInfo@@@std@@YAPBUCheerTeamInfo@@ABU1@@Z PROC ; std::addressof<CheerTeamInfo const >, COMDAT

; 110  : 	{	// return address of _Val

  00000	55		 push	 ebp
  00001	8b ec		 mov	 ebp, esp

; 111  : 	return ((_Ty *) &(char&)_Val);

  00003	8b 45 08	 mov	 eax, DWORD PTR __Val$[ebp]

; 112  : 	}

  00006	5d		 pop	 ebp
  00007	c3		 ret	 0
??$addressof@$$CBUCheerTeamInfo@@@std@@YAPBUCheerTeamInfo@@ABU1@@Z ENDP ; std::addressof<CheerTeamInfo const >
_TEXT	ENDS
PUBLIC	__TI2?AVbad_alloc@std@@
PUBLIC	??$_Allocate@UTeamUserData@@@std@@YAPAUTeamUserData@@IPAU1@@Z ; std::_Allocate<TeamUserData>
PUBLIC	__CTA2?AVbad_alloc@std@@
PUBLIC	__CT??_R0?AVbad_alloc@std@@@8??0bad_alloc@std@@QAE@ABV01@@Z12
PUBLIC	??0bad_alloc@std@@QAE@ABV01@@Z			; std::bad_alloc::bad_alloc
PUBLIC	__CT??_R0?AVexception@std@@@8??0exception@std@@QAE@ABV01@@Z12
EXTRN	??2@YAPAXI@Z:PROC				; operator new
EXTRN	__CxxThrowException@8:PROC
EXTRN	??0exception@std@@QAE@ABV01@@Z:PROC		; std::exception::exception
;	COMDAT __CT??_R0?AVexception@std@@@8??0exception@std@@QAE@ABV01@@Z12
; File c:\program files (x86)\microsoft visual studio 10.0\vc\include\exception
xdata$x	SEGMENT
__CT??_R0?AVexception@std@@@8??0exception@std@@QAE@ABV01@@Z12 DD 00H
	DD	FLAT:??_R0?AVexception@std@@@8
	DD	00H
	DD	0ffffffffH
	ORG $+4
	DD	0cH
	DD	FLAT:??0exception@std@@QAE@ABV01@@Z
xdata$x	ENDS
;	COMDAT __CT??_R0?AVbad_alloc@std@@@8??0bad_alloc@std@@QAE@ABV01@@Z12
xdata$x	SEGMENT
__CT??_R0?AVbad_alloc@std@@@8??0bad_alloc@std@@QAE@ABV01@@Z12 DD 00H
	DD	FLAT:??_R0?AVbad_alloc@std@@@8
	DD	00H
	DD	0ffffffffH
	ORG $+4
	DD	0cH
	DD	FLAT:??0bad_alloc@std@@QAE@ABV01@@Z
xdata$x	ENDS
;	COMDAT __CTA2?AVbad_alloc@std@@
xdata$x	SEGMENT
__CTA2?AVbad_alloc@std@@ DD 02H
	DD	FLAT:__CT??_R0?AVbad_alloc@std@@@8??0bad_alloc@std@@QAE@ABV01@@Z12
	DD	FLAT:__CT??_R0?AVexception@std@@@8??0exception@std@@QAE@ABV01@@Z12
xdata$x	ENDS
;	COMDAT __TI2?AVbad_alloc@std@@
xdata$x	SEGMENT
__TI2?AVbad_alloc@std@@ DD 00H
	DD	FLAT:??1bad_alloc@std@@UAE@XZ
	DD	00H
	DD	FLAT:__CTA2?AVbad_alloc@std@@
; Function compile flags: /Ogsp
; File c:\program files (x86)\microsoft visual studio 10.0\vc\include\xmemory
xdata$x	ENDS
;	COMDAT ??$_Allocate@UTeamUserData@@@std@@YAPAUTeamUserData@@IPAU1@@Z
_TEXT	SEGMENT
$T510954 = -12						; size = 12
$T510959 = 8						; size = 4
__Count$ = 8						; size = 4
___formal$ = 12						; size = 4
??$_Allocate@UTeamUserData@@@std@@YAPAUTeamUserData@@IPAU1@@Z PROC ; std::_Allocate<TeamUserData>, COMDAT

; 30   : 	{	// allocate storage for _Count elements of type _Ty

  00000	55		 push	 ebp
  00001	8b ec		 mov	 ebp, esp

; 31   : 	void *_Ptr = 0;
; 32   : 
; 33   : 	if (_Count <= 0)

  00003	8b 4d 08	 mov	 ecx, DWORD PTR __Count$[ebp]
  00006	83 ec 0c	 sub	 esp, 12			; 0000000cH
  00009	33 c0		 xor	 eax, eax
  0000b	85 c9		 test	 ecx, ecx

; 34   : 		_Count = 0;
; 35   : 	else if (((_SIZT)(-1) / sizeof (_Ty) < _Count)

  0000d	74 3c		 je	 SHORT $LN5@Allocate

; 36   : 		|| (_Ptr = ::operator new(_Count * sizeof (_Ty))) == 0)

  0000f	81 f9 aa aa aa
	0a		 cmp	 ecx, 178956970		; 0aaaaaaaH
  00015	77 0e		 ja	 SHORT $LN1@Allocate
  00017	6b c9 18	 imul	 ecx, 24			; 00000018H
  0001a	51		 push	 ecx
  0001b	e8 00 00 00 00	 call	 ??2@YAPAXI@Z		; operator new
  00020	59		 pop	 ecx
  00021	85 c0		 test	 eax, eax

; 38   : 
; 39   : 	return ((_Ty _FARQ *)_Ptr);

  00023	75 26		 jne	 SHORT $LN5@Allocate
$LN1@Allocate:

; 37   : 		_THROW_NCEE(bad_alloc, 0);

  00025	83 65 08 00	 and	 DWORD PTR $T510959[ebp], 0
  00029	8d 45 08	 lea	 eax, DWORD PTR $T510959[ebp]
  0002c	50		 push	 eax
  0002d	8d 4d f4	 lea	 ecx, DWORD PTR $T510954[ebp]
  00030	ff 15 00 00 00
	00		 call	 DWORD PTR __imp_??0exception@std@@QAE@ABQBD@Z
  00036	68 00 00 00 00	 push	 OFFSET __TI2?AVbad_alloc@std@@
  0003b	8d 45 f4	 lea	 eax, DWORD PTR $T510954[ebp]
  0003e	50		 push	 eax
  0003f	c7 45 f4 00 00
	00 00		 mov	 DWORD PTR $T510954[ebp], OFFSET ??_7bad_alloc@std@@6B@
  00046	e8 00 00 00 00	 call	 __CxxThrowException@8
$LN10@Allocate:
$LN5@Allocate:

; 40   : 	}

  0004b	c9		 leave
  0004c	c3		 ret	 0
$LN9@Allocate:
??$_Allocate@UTeamUserData@@@std@@YAPAUTeamUserData@@IPAU1@@Z ENDP ; std::_Allocate<TeamUserData>
_TEXT	ENDS
PUBLIC	??$_Allocate@UTeamData@@@std@@YAPAUTeamData@@IPAU1@@Z ; std::_Allocate<TeamData>
; Function compile flags: /Ogsp
;	COMDAT ??$_Allocate@UTeamData@@@std@@YAPAUTeamData@@IPAU1@@Z
_TEXT	SEGMENT
$T510964 = -12						; size = 12
$T510968 = 8						; size = 4
__Count$ = 8						; size = 4
___formal$ = 12						; size = 4
??$_Allocate@UTeamData@@@std@@YAPAUTeamData@@IPAU1@@Z PROC ; std::_Allocate<TeamData>, COMDAT

; 30   : 	{	// allocate storage for _Count elements of type _Ty

  00000	55		 push	 ebp
  00001	8b ec		 mov	 ebp, esp

; 31   : 	void *_Ptr = 0;
; 32   : 
; 33   : 	if (_Count <= 0)

  00003	8b 4d 08	 mov	 ecx, DWORD PTR __Count$[ebp]
  00006	83 ec 0c	 sub	 esp, 12			; 0000000cH
  00009	33 c0		 xor	 eax, eax
  0000b	85 c9		 test	 ecx, ecx

; 34   : 		_Count = 0;
; 35   : 	else if (((_SIZT)(-1) / sizeof (_Ty) < _Count)

  0000d	74 3c		 je	 SHORT $LN5@Allocate@2

; 36   : 		|| (_Ptr = ::operator new(_Count * sizeof (_Ty))) == 0)

  0000f	81 f9 5d 74 d1
	05		 cmp	 ecx, 97612893		; 05d1745dH
  00015	77 0e		 ja	 SHORT $LN1@Allocate@2
  00017	6b c9 2c	 imul	 ecx, 44			; 0000002cH
  0001a	51		 push	 ecx
  0001b	e8 00 00 00 00	 call	 ??2@YAPAXI@Z		; operator new
  00020	59		 pop	 ecx
  00021	85 c0		 test	 eax, eax

; 38   : 
; 39   : 	return ((_Ty _FARQ *)_Ptr);

  00023	75 26		 jne	 SHORT $LN5@Allocate@2
$LN1@Allocate@2:

; 37   : 		_THROW_NCEE(bad_alloc, 0);

  00025	83 65 08 00	 and	 DWORD PTR $T510968[ebp], 0
  00029	8d 45 08	 lea	 eax, DWORD PTR $T510968[ebp]
  0002c	50		 push	 eax
  0002d	8d 4d f4	 lea	 ecx, DWORD PTR $T510964[ebp]
  00030	ff 15 00 00 00
	00		 call	 DWORD PTR __imp_??0exception@std@@QAE@ABQBD@Z
  00036	68 00 00 00 00	 push	 OFFSET __TI2?AVbad_alloc@std@@
  0003b	8d 45 f4	 lea	 eax, DWORD PTR $T510964[ebp]
  0003e	50		 push	 eax
  0003f	c7 45 f4 00 00
	00 00		 mov	 DWORD PTR $T510964[ebp], OFFSET ??_7bad_alloc@std@@6B@
  00046	e8 00 00 00 00	 call	 __CxxThrowException@8
$LN10@Allocate@2:
$LN5@Allocate@2:

; 40   : 	}

  0004b	c9		 leave
  0004c	c3		 ret	 0
$LN9@Allocate@2:
??$_Allocate@UTeamData@@@std@@YAPAUTeamData@@IPAU1@@Z ENDP ; std::_Allocate<TeamData>
_TEXT	ENDS
PUBLIC	??$_Allocate@UCheerTeamInfo@@@std@@YAPAUCheerTeamInfo@@IPAU1@@Z ; std::_Allocate<CheerTeamInfo>
; Function compile flags: /Ogsp
;	COMDAT ??$_Allocate@UCheerTeamInfo@@@std@@YAPAUCheerTeamInfo@@IPAU1@@Z
_TEXT	SEGMENT
$T510973 = -12						; size = 12
$T510977 = 8						; size = 4
__Count$ = 8						; size = 4
___formal$ = 12						; size = 4
??$_Allocate@UCheerTeamInfo@@@std@@YAPAUCheerTeamInfo@@IPAU1@@Z PROC ; std::_Allocate<CheerTeamInfo>, COMDAT

; 30   : 	{	// allocate storage for _Count elements of type _Ty

  00000	55		 push	 ebp
  00001	8b ec		 mov	 ebp, esp

; 31   : 	void *_Ptr = 0;
; 32   : 
; 33   : 	if (_Count <= 0)

  00003	8b 4d 08	 mov	 ecx, DWORD PTR __Count$[ebp]
  00006	83 ec 0c	 sub	 esp, 12			; 0000000cH
  00009	33 c0		 xor	 eax, eax
  0000b	85 c9		 test	 ecx, ecx

; 34   : 		_Count = 0;
; 35   : 	else if (((_SIZT)(-1) / sizeof (_Ty) < _Count)

  0000d	74 3c		 je	 SHORT $LN5@Allocate@3

; 36   : 		|| (_Ptr = ::operator new(_Count * sizeof (_Ty))) == 0)

  0000f	81 f9 ff ff ff
	0f		 cmp	 ecx, 268435455		; 0fffffffH
  00015	77 0e		 ja	 SHORT $LN1@Allocate@3
  00017	c1 e1 04	 shl	 ecx, 4
  0001a	51		 push	 ecx
  0001b	e8 00 00 00 00	 call	 ??2@YAPAXI@Z		; operator new
  00020	59		 pop	 ecx
  00021	85 c0		 test	 eax, eax

; 38   : 
; 39   : 	return ((_Ty _FARQ *)_Ptr);

  00023	75 26		 jne	 SHORT $LN5@Allocate@3
$LN1@Allocate@3:

; 37   : 		_THROW_NCEE(bad_alloc, 0);

  00025	83 65 08 00	 and	 DWORD PTR $T510977[ebp], 0
  00029	8d 45 08	 lea	 eax, DWORD PTR $T510977[ebp]
  0002c	50		 push	 eax
  0002d	8d 4d f4	 lea	 ecx, DWORD PTR $T510973[ebp]
  00030	ff 15 00 00 00
	00		 call	 DWORD PTR __imp_??0exception@std@@QAE@ABQBD@Z
  00036	68 00 00 00 00	 push	 OFFSET __TI2?AVbad_alloc@std@@
  0003b	8d 45 f4	 lea	 eax, DWORD PTR $T510973[ebp]
  0003e	50		 push	 eax
  0003f	c7 45 f4 00 00
	00 00		 mov	 DWORD PTR $T510973[ebp], OFFSET ??_7bad_alloc@std@@6B@
  00046	e8 00 00 00 00	 call	 __CxxThrowException@8
$LN10@Allocate@3:
$LN5@Allocate@3:

; 40   : 	}

  0004b	c9		 leave
  0004c	c3		 ret	 0
$LN9@Allocate@3:
??$_Allocate@UCheerTeamInfo@@@std@@YAPAUCheerTeamInfo@@IPAU1@@Z ENDP ; std::_Allocate<CheerTeamInfo>
_TEXT	ENDS
PUBLIC	??$forward@AAUTeamUserData@@@std@@YAAAUTeamUserData@@AAU1@@Z ; std::forward<TeamUserData &>
; Function compile flags: /Ogsp
; File c:\program files (x86)\microsoft visual studio 10.0\vc\include\utility
;	COMDAT ??$forward@AAUTeamUserData@@@std@@YAAAUTeamUserData@@AAU1@@Z
_TEXT	SEGMENT
__Arg$ = 8						; size = 4
??$forward@AAUTeamUserData@@@std@@YAAAUTeamUserData@@AAU1@@Z PROC ; std::forward<TeamUserData &>, COMDAT

; 78   : 	{	// forward _Arg, given explicitly specified type parameter

  00000	55		 push	 ebp
  00001	8b ec		 mov	 ebp, esp

; 79   : 	return ((_Ty&&)_Arg);

  00003	8b 45 08	 mov	 eax, DWORD PTR __Arg$[ebp]

; 80   : 	}

  00006	5d		 pop	 ebp
  00007	c3		 ret	 0
??$forward@AAUTeamUserData@@@std@@YAAAUTeamUserData@@AAU1@@Z ENDP ; std::forward<TeamUserData &>
_TEXT	ENDS
PUBLIC	??$construct@AAUTeamUserData@@@?$allocator@UTeamUserData@@@std@@QAEXPAUTeamUserData@@AAU2@@Z ; std::allocator<TeamUserData>::construct<TeamUserData &>
EXTRN	___CxxFrameHandler3:PROC
EXTRN	@__security_check_cookie@4:PROC
EXTRN	__EH_epilog3:PROC
EXTRN	__EH_prolog3:PROC
;	COMDAT xdata$x
xdata$x	SEGMENT
__unwindtable$??$construct@AAUTeamUserData@@@?$allocator@UTeamUserData@@@std@@QAEXPAUTeamUserData@@AAU2@@Z DD 0ffffffffH
	DD	FLAT:__unwindfunclet$??$construct@AAUTeamUserData@@@?$allocator@UTeamUserData@@@std@@QAEXPAUTeamUserData@@AAU2@@Z$0
__ehfuncinfo$??$construct@AAUTeamUserData@@@?$allocator@UTeamUserData@@@std@@QAEXPAUTeamUserData@@AAU2@@Z DD 019930522H
	DD	01H
	DD	FLAT:__unwindtable$??$construct@AAUTeamUserData@@@?$allocator@UTeamUserData@@@std@@QAEXPAUTeamUserData@@AAU2@@Z
	DD	2 DUP(00H)
	DD	2 DUP(00H)
	DD	00H
	DD	01H
; Function compile flags: /Ogsp
; File c:\program files (x86)\microsoft visual studio 10.0\vc\include\xmemory
xdata$x	ENDS
;	COMDAT ??$construct@AAUTeamUserData@@@?$allocator@UTeamUserData@@@std@@QAEXPAUTeamUserData@@AAU2@@Z
_TEXT	SEGMENT
$T510985 = -16						; size = 4
__$EHRec$ = -12						; size = 12
__Ptr$ = 8						; size = 4
__Val$ = 12						; size = 4
??$construct@AAUTeamUserData@@@?$allocator@UTeamUserData@@@std@@QAEXPAUTeamUserData@@AAU2@@Z PROC ; std::allocator<TeamUserData>::construct<TeamUserData &>, COMDAT
; _this$ = ecx

; 206  : 		void construct(pointer _Ptr, _Other&& _Val)

  00000	6a 04		 push	 4
  00002	b8 00 00 00 00	 mov	 eax, __ehhandler$??$construct@AAUTeamUserData@@@?$allocator@UTeamUserData@@@std@@QAEXPAUTeamUserData@@AAU2@@Z
  00007	e8 00 00 00 00	 call	 __EH_prolog3

; 207  : 		{	// construct object at _Ptr with value _Val
; 208  : 		::new ((void _FARQ *)_Ptr) _Ty(_STD forward<_Other>(_Val));

  0000c	8b 4d 08	 mov	 ecx, DWORD PTR __Ptr$[ebp]
  0000f	89 4d f0	 mov	 DWORD PTR $T510985[ebp], ecx
  00012	83 65 fc 00	 and	 DWORD PTR __$EHRec$[ebp+8], 0
  00016	85 c9		 test	 ecx, ecx
  00018	74 08		 je	 SHORT $LN3@construct
  0001a	ff 75 0c	 push	 DWORD PTR __Val$[ebp]
  0001d	e8 00 00 00 00	 call	 ??0TeamUserData@@QAE@ABU0@@Z
$LN3@construct:

; 209  : 		}

  00022	e8 00 00 00 00	 call	 __EH_epilog3
  00027	c2 08 00	 ret	 8
_TEXT	ENDS
;	COMDAT text$x
text$x	SEGMENT
__unwindfunclet$??$construct@AAUTeamUserData@@@?$allocator@UTeamUserData@@@std@@QAEXPAUTeamUserData@@AAU2@@Z$0:
  00000	ff 75 08	 push	 DWORD PTR __Ptr$[ebp]
  00003	ff 75 f0	 push	 DWORD PTR $T510985[ebp]
  00006	e8 00 00 00 00	 call	 ??3@YAXPAX0@Z		; operator delete
  0000b	59		 pop	 ecx
  0000c	59		 pop	 ecx
  0000d	c3		 ret	 0
__ehhandler$??$construct@AAUTeamUserData@@@?$allocator@UTeamUserData@@@std@@QAEXPAUTeamUserData@@AAU2@@Z:
  0000e	8b 54 24 08	 mov	 edx, DWORD PTR [esp+8]
  00012	8d 42 0c	 lea	 eax, DWORD PTR [edx+12]
  00015	8b 4a ec	 mov	 ecx, DWORD PTR [edx-20]
  00018	33 c8		 xor	 ecx, eax
  0001a	e8 00 00 00 00	 call	 @__security_check_cookie@4
  0001f	b8 00 00 00 00	 mov	 eax, OFFSET __ehfuncinfo$??$construct@AAUTeamUserData@@@?$allocator@UTeamUserData@@@std@@QAEXPAUTeamUserData@@AAU2@@Z
  00024	e9 00 00 00 00	 jmp	 ___CxxFrameHandler3
text$x	ENDS
??$construct@AAUTeamUserData@@@?$allocator@UTeamUserData@@@std@@QAEXPAUTeamUserData@@AAU2@@Z ENDP ; std::allocator<TeamUserData>::construct<TeamUserData &>
PUBLIC	??$forward@ABUTeamUserData@@@std@@YAABUTeamUserData@@ABU1@@Z ; std::forward<TeamUserData const &>
; Function compile flags: /Ogsp
; File c:\program files (x86)\microsoft visual studio 10.0\vc\include\utility
;	COMDAT ??$forward@ABUTeamUserData@@@std@@YAABUTeamUserData@@ABU1@@Z
_TEXT	SEGMENT
__Arg$ = 8						; size = 4
??$forward@ABUTeamUserData@@@std@@YAABUTeamUserData@@ABU1@@Z PROC ; std::forward<TeamUserData const &>, COMDAT

; 78   : 	{	// forward _Arg, given explicitly specified type parameter

  00000	55		 push	 ebp
  00001	8b ec		 mov	 ebp, esp

; 79   : 	return ((_Ty&&)_Arg);

  00003	8b 45 08	 mov	 eax, DWORD PTR __Arg$[ebp]

; 80   : 	}

  00006	5d		 pop	 ebp
  00007	c3		 ret	 0
??$forward@ABUTeamUserData@@@std@@YAABUTeamUserData@@ABU1@@Z ENDP ; std::forward<TeamUserData const &>
_TEXT	ENDS
PUBLIC	??$forward@AAUTeamData@@@std@@YAAAUTeamData@@AAU1@@Z ; std::forward<TeamData &>
; Function compile flags: /Ogsp
;	COMDAT ??$forward@AAUTeamData@@@std@@YAAAUTeamData@@AAU1@@Z
_TEXT	SEGMENT
__Arg$ = 8						; size = 4
??$forward@AAUTeamData@@@std@@YAAAUTeamData@@AAU1@@Z PROC ; std::forward<TeamData &>, COMDAT

; 78   : 	{	// forward _Arg, given explicitly specified type parameter

  00000	55		 push	 ebp
  00001	8b ec		 mov	 ebp, esp

; 79   : 	return ((_Ty&&)_Arg);

  00003	8b 45 08	 mov	 eax, DWORD PTR __Arg$[ebp]

; 80   : 	}

  00006	5d		 pop	 ebp
  00007	c3		 ret	 0
??$forward@AAUTeamData@@@std@@YAAAUTeamData@@AAU1@@Z ENDP ; std::forward<TeamData &>
_TEXT	ENDS
PUBLIC	??$forward@ABUTeamData@@@std@@YAABUTeamData@@ABU1@@Z ; std::forward<TeamData const &>
; Function compile flags: /Ogsp
;	COMDAT ??$forward@ABUTeamData@@@std@@YAABUTeamData@@ABU1@@Z
_TEXT	SEGMENT
__Arg$ = 8						; size = 4
??$forward@ABUTeamData@@@std@@YAABUTeamData@@ABU1@@Z PROC ; std::forward<TeamData const &>, COMDAT

; 78   : 	{	// forward _Arg, given explicitly specified type parameter

  00000	55		 push	 ebp
  00001	8b ec		 mov	 ebp, esp

; 79   : 	return ((_Ty&&)_Arg);

  00003	8b 45 08	 mov	 eax, DWORD PTR __Arg$[ebp]

; 80   : 	}

  00006	5d		 pop	 ebp
  00007	c3		 ret	 0
??$forward@ABUTeamData@@@std@@YAABUTeamData@@ABU1@@Z ENDP ; std::forward<TeamData const &>
_TEXT	ENDS
PUBLIC	??$_Ptr_cat@UTeamData@@U1@@std@@YA?AU_Nonscalar_ptr_iterator_tag@0@PAUTeamData@@0@Z ; std::_Ptr_cat<TeamData,TeamData>
; Function compile flags: /Ogsp
; File c:\program files (x86)\microsoft visual studio 10.0\vc\include\xutility
;	COMDAT ??$_Ptr_cat@UTeamData@@U1@@std@@YA?AU_Nonscalar_ptr_iterator_tag@0@PAUTeamData@@0@Z
_TEXT	SEGMENT
__Cat$ = -1						; size = 1
___formal$ = 8						; size = 4
___formal$ = 12						; size = 4
??$_Ptr_cat@UTeamData@@U1@@std@@YA?AU_Nonscalar_ptr_iterator_tag@0@PAUTeamData@@0@Z PROC ; std::_Ptr_cat<TeamData,TeamData>, COMDAT

; 516  : 	{	// return pointer category from pointers

  00000	55		 push	 ebp
  00001	8b ec		 mov	 ebp, esp
  00003	51		 push	 ecx

; 517  : 	typename _Ptr_cat_helper<_Elem1, _Elem2>::_Type _Cat;
; 518  : 	return (_Cat);

  00004	8a 45 ff	 mov	 al, BYTE PTR __Cat$[ebp]

; 519  : 	}

  00007	c9		 leave
  00008	c3		 ret	 0
??$_Ptr_cat@UTeamData@@U1@@std@@YA?AU_Nonscalar_ptr_iterator_tag@0@PAUTeamData@@0@Z ENDP ; std::_Ptr_cat<TeamData,TeamData>
_TEXT	ENDS
PUBLIC	??$forward@AAUCheerTeamInfo@@@std@@YAAAUCheerTeamInfo@@AAU1@@Z ; std::forward<CheerTeamInfo &>
; Function compile flags: /Ogsp
; File c:\program files (x86)\microsoft visual studio 10.0\vc\include\utility
;	COMDAT ??$forward@AAUCheerTeamInfo@@@std@@YAAAUCheerTeamInfo@@AAU1@@Z
_TEXT	SEGMENT
__Arg$ = 8						; size = 4
??$forward@AAUCheerTeamInfo@@@std@@YAAAUCheerTeamInfo@@AAU1@@Z PROC ; std::forward<CheerTeamInfo &>, COMDAT

; 78   : 	{	// forward _Arg, given explicitly specified type parameter

  00000	55		 push	 ebp
  00001	8b ec		 mov	 ebp, esp

; 79   : 	return ((_Ty&&)_Arg);

  00003	8b 45 08	 mov	 eax, DWORD PTR __Arg$[ebp]

; 80   : 	}

  00006	5d		 pop	 ebp
  00007	c3		 ret	 0
??$forward@AAUCheerTeamInfo@@@std@@YAAAUCheerTeamInfo@@AAU1@@Z ENDP ; std::forward<CheerTeamInfo &>
_TEXT	ENDS
PUBLIC	??$construct@AAUCheerTeamInfo@@@?$allocator@UCheerTeamInfo@@@std@@QAEXPAUCheerTeamInfo@@AAU2@@Z ; std::allocator<CheerTeamInfo>::construct<CheerTeamInfo &>
; Function compile flags: /Ogsp
; File c:\program files (x86)\microsoft visual studio 10.0\vc\include\xmemory
;	COMDAT ??$construct@AAUCheerTeamInfo@@@?$allocator@UCheerTeamInfo@@@std@@QAEXPAUCheerTeamInfo@@AAU2@@Z
_TEXT	SEGMENT
__Ptr$ = 8						; size = 4
__Val$ = 12						; size = 4
??$construct@AAUCheerTeamInfo@@@?$allocator@UCheerTeamInfo@@@std@@QAEXPAUCheerTeamInfo@@AAU2@@Z PROC ; std::allocator<CheerTeamInfo>::construct<CheerTeamInfo &>, COMDAT
; _this$ = ecx

; 206  : 		void construct(pointer _Ptr, _Other&& _Val)

  00000	55		 push	 ebp
  00001	8b ec		 mov	 ebp, esp
  00003	57		 push	 edi

; 207  : 		{	// construct object at _Ptr with value _Val
; 208  : 		::new ((void _FARQ *)_Ptr) _Ty(_STD forward<_Other>(_Val));

  00004	8b 7d 08	 mov	 edi, DWORD PTR __Ptr$[ebp]
  00007	85 ff		 test	 edi, edi
  00009	74 09		 je	 SHORT $LN3@construct@2
  0000b	56		 push	 esi
  0000c	8b 75 0c	 mov	 esi, DWORD PTR __Val$[ebp]
  0000f	a5		 movsd
  00010	a5		 movsd
  00011	a5		 movsd
  00012	a5		 movsd
  00013	5e		 pop	 esi
$LN3@construct@2:
  00014	5f		 pop	 edi

; 209  : 		}

  00015	5d		 pop	 ebp
  00016	c2 08 00	 ret	 8
??$construct@AAUCheerTeamInfo@@@?$allocator@UCheerTeamInfo@@@std@@QAEXPAUCheerTeamInfo@@AAU2@@Z ENDP ; std::allocator<CheerTeamInfo>::construct<CheerTeamInfo &>
_TEXT	ENDS
PUBLIC	??$forward@ABUCheerTeamInfo@@@std@@YAABUCheerTeamInfo@@ABU1@@Z ; std::forward<CheerTeamInfo const &>
; Function compile flags: /Ogsp
; File c:\program files (x86)\microsoft visual studio 10.0\vc\include\utility
;	COMDAT ??$forward@ABUCheerTeamInfo@@@std@@YAABUCheerTeamInfo@@ABU1@@Z
_TEXT	SEGMENT
__Arg$ = 8						; size = 4
??$forward@ABUCheerTeamInfo@@@std@@YAABUCheerTeamInfo@@ABU1@@Z PROC ; std::forward<CheerTeamInfo const &>, COMDAT

; 78   : 	{	// forward _Arg, given explicitly specified type parameter

  00000	55		 push	 ebp
  00001	8b ec		 mov	 ebp, esp

; 79   : 	return ((_Ty&&)_Arg);

  00003	8b 45 08	 mov	 eax, DWORD PTR __Arg$[ebp]

; 80   : 	}

  00006	5d		 pop	 ebp
  00007	c3		 ret	 0
??$forward@ABUCheerTeamInfo@@@std@@YAABUCheerTeamInfo@@ABU1@@Z ENDP ; std::forward<CheerTeamInfo const &>
_TEXT	ENDS
PUBLIC	??$_Ptr_cat@UCheerTeamInfo@@U1@@std@@YA?AU_Nonscalar_ptr_iterator_tag@0@PAUCheerTeamInfo@@0@Z ; std::_Ptr_cat<CheerTeamInfo,CheerTeamInfo>
; Function compile flags: /Ogsp
; File c:\program files (x86)\microsoft visual studio 10.0\vc\include\xutility
;	COMDAT ??$_Ptr_cat@UCheerTeamInfo@@U1@@std@@YA?AU_Nonscalar_ptr_iterator_tag@0@PAUCheerTeamInfo@@0@Z
_TEXT	SEGMENT
__Cat$ = -1						; size = 1
___formal$ = 8						; size = 4
___formal$ = 12						; size = 4
??$_Ptr_cat@UCheerTeamInfo@@U1@@std@@YA?AU_Nonscalar_ptr_iterator_tag@0@PAUCheerTeamInfo@@0@Z PROC ; std::_Ptr_cat<CheerTeamInfo,CheerTeamInfo>, COMDAT

; 516  : 	{	// return pointer category from pointers

  00000	55		 push	 ebp
  00001	8b ec		 mov	 ebp, esp
  00003	51		 push	 ecx

; 517  : 	typename _Ptr_cat_helper<_Elem1, _Elem2>::_Type _Cat;
; 518  : 	return (_Cat);

  00004	8a 45 ff	 mov	 al, BYTE PTR __Cat$[ebp]

; 519  : 	}

  00007	c9		 leave
  00008	c3		 ret	 0
??$_Ptr_cat@UCheerTeamInfo@@U1@@std@@YA?AU_Nonscalar_ptr_iterator_tag@0@PAUCheerTeamInfo@@0@Z ENDP ; std::_Ptr_cat<CheerTeamInfo,CheerTeamInfo>
_TEXT	ENDS
PUBLIC	??$_Construct@UTeamUserData@@ABU1@@std@@YAXPAUTeamUserData@@ABU1@@Z ; std::_Construct<TeamUserData,TeamUserData const &>
;	COMDAT xdata$x
; File c:\program files (x86)\microsoft visual studio 10.0\vc\include\utility
xdata$x	SEGMENT
__unwindtable$??$_Construct@UTeamUserData@@ABU1@@std@@YAXPAUTeamUserData@@ABU1@@Z DD 0ffffffffH
	DD	FLAT:__unwindfunclet$??$_Construct@UTeamUserData@@ABU1@@std@@YAXPAUTeamUserData@@ABU1@@Z$0
__ehfuncinfo$??$_Construct@UTeamUserData@@ABU1@@std@@YAXPAUTeamUserData@@ABU1@@Z DD 019930522H
	DD	01H
	DD	FLAT:__unwindtable$??$_Construct@UTeamUserData@@ABU1@@std@@YAXPAUTeamUserData@@ABU1@@Z
	DD	2 DUP(00H)
	DD	2 DUP(00H)
	DD	00H
	DD	01H
; Function compile flags: /Ogsp
; File c:\program files (x86)\microsoft visual studio 10.0\vc\include\xmemory
xdata$x	ENDS
;	COMDAT ??$_Construct@UTeamUserData@@ABU1@@std@@YAXPAUTeamUserData@@ABU1@@Z
_TEXT	SEGMENT
$T511037 = -16						; size = 4
__$EHRec$ = -12						; size = 12
__Vptr$ = 8						; size = 4
__Ptr$ = 8						; size = 4
__Val$ = 12						; size = 4
??$_Construct@UTeamUserData@@ABU1@@std@@YAXPAUTeamUserData@@ABU1@@Z PROC ; std::_Construct<TeamUserData,TeamUserData const &>, COMDAT

; 46   : 	{	// construct object at _Ptr with value _Val

  00000	6a 04		 push	 4
  00002	b8 00 00 00 00	 mov	 eax, __ehhandler$??$_Construct@UTeamUserData@@ABU1@@std@@YAXPAUTeamUserData@@ABU1@@Z
  00007	e8 00 00 00 00	 call	 __EH_prolog3

; 47   : 	void _FARQ *_Vptr = _Ptr;

  0000c	8b 4d 08	 mov	 ecx, DWORD PTR __Ptr$[ebp]
  0000f	89 4d 08	 mov	 DWORD PTR __Vptr$[ebp], ecx

; 48   : 	::new (_Vptr) _Ty1(_STD forward<_Ty2>(_Val));

  00012	89 4d f0	 mov	 DWORD PTR $T511037[ebp], ecx
  00015	83 65 fc 00	 and	 DWORD PTR __$EHRec$[ebp+8], 0
  00019	85 c9		 test	 ecx, ecx
  0001b	74 08		 je	 SHORT $LN3@Construct
  0001d	ff 75 0c	 push	 DWORD PTR __Val$[ebp]
  00020	e8 00 00 00 00	 call	 ??0TeamUserData@@QAE@ABU0@@Z
$LN3@Construct:

; 49   : 	}

  00025	e8 00 00 00 00	 call	 __EH_epilog3
  0002a	c3		 ret	 0
_TEXT	ENDS
;	COMDAT text$x
text$x	SEGMENT
__unwindfunclet$??$_Construct@UTeamUserData@@ABU1@@std@@YAXPAUTeamUserData@@ABU1@@Z$0:
  00000	ff 75 08	 push	 DWORD PTR __Vptr$[ebp]
  00003	ff 75 f0	 push	 DWORD PTR $T511037[ebp]
  00006	e8 00 00 00 00	 call	 ??3@YAXPAX0@Z		; operator delete
  0000b	59		 pop	 ecx
  0000c	59		 pop	 ecx
  0000d	c3		 ret	 0
__ehhandler$??$_Construct@UTeamUserData@@ABU1@@std@@YAXPAUTeamUserData@@ABU1@@Z:
  0000e	8b 54 24 08	 mov	 edx, DWORD PTR [esp+8]
  00012	8d 42 0c	 lea	 eax, DWORD PTR [edx+12]
  00015	8b 4a ec	 mov	 ecx, DWORD PTR [edx-20]
  00018	33 c8		 xor	 ecx, eax
  0001a	e8 00 00 00 00	 call	 @__security_check_cookie@4
  0001f	b8 00 00 00 00	 mov	 eax, OFFSET __ehfuncinfo$??$_Construct@UTeamUserData@@ABU1@@std@@YAXPAUTeamUserData@@ABU1@@Z
  00024	e9 00 00 00 00	 jmp	 ___CxxFrameHandler3
text$x	ENDS
??$_Construct@UTeamUserData@@ABU1@@std@@YAXPAUTeamUserData@@ABU1@@Z ENDP ; std::_Construct<TeamUserData,TeamUserData const &>
PUBLIC	??$_Construct@UCheerTeamInfo@@ABU1@@std@@YAXPAUCheerTeamInfo@@ABU1@@Z ; std::_Construct<CheerTeamInfo,CheerTeamInfo const &>
; Function compile flags: /Ogsp
;	COMDAT ??$_Construct@UCheerTeamInfo@@ABU1@@std@@YAXPAUCheerTeamInfo@@ABU1@@Z
_TEXT	SEGMENT
__Ptr$ = 8						; size = 4
__Val$ = 12						; size = 4
??$_Construct@UCheerTeamInfo@@ABU1@@std@@YAXPAUCheerTeamInfo@@ABU1@@Z PROC ; std::_Construct<CheerTeamInfo,CheerTeamInfo const &>, COMDAT

; 46   : 	{	// construct object at _Ptr with value _Val

  00000	55		 push	 ebp
  00001	8b ec		 mov	 ebp, esp
  00003	57		 push	 edi

; 47   : 	void _FARQ *_Vptr = _Ptr;
; 48   : 	::new (_Vptr) _Ty1(_STD forward<_Ty2>(_Val));

  00004	8b 7d 08	 mov	 edi, DWORD PTR __Ptr$[ebp]
  00007	85 ff		 test	 edi, edi
  00009	74 09		 je	 SHORT $LN3@Construct@2
  0000b	56		 push	 esi
  0000c	8b 75 0c	 mov	 esi, DWORD PTR __Val$[ebp]
  0000f	a5		 movsd
  00010	a5		 movsd
  00011	a5		 movsd
  00012	a5		 movsd
  00013	5e		 pop	 esi
$LN3@Construct@2:
  00014	5f		 pop	 edi

; 49   : 	}

  00015	5d		 pop	 ebp
  00016	c3		 ret	 0
??$_Construct@UCheerTeamInfo@@ABU1@@std@@YAXPAUCheerTeamInfo@@ABU1@@Z ENDP ; std::_Construct<CheerTeamInfo,CheerTeamInfo const &>
_TEXT	ENDS
PUBLIC	??4TeamUserData@@QAEAAU0@ABU0@@Z		; TeamUserData::operator=
EXTRN	__imp_??4ioHashString@@QAEAAV0@ABV0@@Z:PROC
; Function compile flags: /Ogsp
;	COMDAT ??4TeamUserData@@QAEAAU0@ABU0@@Z
_TEXT	SEGMENT
___that$ = 8						; size = 4
??4TeamUserData@@QAEAAU0@ABU0@@Z PROC			; TeamUserData::operator=, COMDAT
; _this$ = ecx
  00000	55		 push	 ebp
  00001	8b ec		 mov	 ebp, esp
  00003	8b 45 08	 mov	 eax, DWORD PTR ___that$[ebp]
  00006	56		 push	 esi
  00007	8b f1		 mov	 esi, ecx
  00009	8b 08		 mov	 ecx, DWORD PTR [eax]
  0000b	89 0e		 mov	 DWORD PTR [esi], ecx
  0000d	8b 48 04	 mov	 ecx, DWORD PTR [eax+4]
  00010	83 c0 08	 add	 eax, 8
  00013	89 4e 04	 mov	 DWORD PTR [esi+4], ecx
  00016	50		 push	 eax
  00017	8d 4e 08	 lea	 ecx, DWORD PTR [esi+8]
  0001a	ff 15 00 00 00
	00		 call	 DWORD PTR __imp_??4ioHashString@@QAEAAV0@ABV0@@Z
  00020	8b c6		 mov	 eax, esi
  00022	5e		 pop	 esi
  00023	5d		 pop	 ebp
  00024	c2 04 00	 ret	 4
??4TeamUserData@@QAEAAU0@ABU0@@Z ENDP			; TeamUserData::operator=
_TEXT	ENDS
PUBLIC	?begin@?$vector@UTeamUserData@@V?$allocator@UTeamUserData@@@std@@@std@@QBE?AV?$_Vector_const_iterator@V?$_Vector_val@UTeamUserData@@V?$allocator@UTeamUserData@@@std@@@std@@@2@XZ ; std::vector<TeamUserData,std::allocator<TeamUserData> >::begin
; Function compile flags: /Ogsp
; File c:\program files (x86)\microsoft visual studio 10.0\vc\include\vector
;	COMDAT ?begin@?$vector@UTeamUserData@@V?$allocator@UTeamUserData@@@std@@@std@@QBE?AV?$_Vector_const_iterator@V?$_Vector_val@UTeamUserData@@V?$allocator@UTeamUserData@@@std@@@std@@@2@XZ
_TEXT	SEGMENT
___$ReturnUdt$ = 8					; size = 4
?begin@?$vector@UTeamUserData@@V?$allocator@UTeamUserData@@@std@@@std@@QBE?AV?$_Vector_const_iterator@V?$_Vector_val@UTeamUserData@@V?$allocator@UTeamUserData@@@std@@@std@@@2@XZ PROC ; std::vector<TeamUserData,std::allocator<TeamUserData> >::begin, COMDAT
; _this$ = ecx

; 786  : 		{	// return iterator for beginning of nonmutable sequence

  00000	55		 push	 ebp
  00001	8b ec		 mov	 ebp, esp

; 787  : 		return (const_iterator(this->_Myfirst, this));

  00003	8b 09		 mov	 ecx, DWORD PTR [ecx]
  00005	8b 45 08	 mov	 eax, DWORD PTR ___$ReturnUdt$[ebp]
  00008	89 08		 mov	 DWORD PTR [eax], ecx

; 788  : 		}

  0000a	5d		 pop	 ebp
  0000b	c2 04 00	 ret	 4
?begin@?$vector@UTeamUserData@@V?$allocator@UTeamUserData@@@std@@@std@@QBE?AV?$_Vector_const_iterator@V?$_Vector_val@UTeamUserData@@V?$allocator@UTeamUserData@@@std@@@std@@@2@XZ ENDP ; std::vector<TeamUserData,std::allocator<TeamUserData> >::begin
_TEXT	ENDS
PUBLIC	?end@?$vector@UTeamUserData@@V?$allocator@UTeamUserData@@@std@@@std@@QBE?AV?$_Vector_const_iterator@V?$_Vector_val@UTeamUserData@@V?$allocator@UTeamUserData@@@std@@@std@@@2@XZ ; std::vector<TeamUserData,std::allocator<TeamUserData> >::end
; Function compile flags: /Ogsp
;	COMDAT ?end@?$vector@UTeamUserData@@V?$allocator@UTeamUserData@@@std@@@std@@QBE?AV?$_Vector_const_iterator@V?$_Vector_val@UTeamUserData@@V?$allocator@UTeamUserData@@@std@@@std@@@2@XZ
_TEXT	SEGMENT
___$ReturnUdt$ = 8					; size = 4
?end@?$vector@UTeamUserData@@V?$allocator@UTeamUserData@@@std@@@std@@QBE?AV?$_Vector_const_iterator@V?$_Vector_val@UTeamUserData@@V?$allocator@UTeamUserData@@@std@@@std@@@2@XZ PROC ; std::vector<TeamUserData,std::allocator<TeamUserData> >::end, COMDAT
; _this$ = ecx

; 796  : 		{	// return iterator for end of nonmutable sequence

  00000	55		 push	 ebp
  00001	8b ec		 mov	 ebp, esp

; 797  : 		return (const_iterator(this->_Mylast, this));

  00003	8b 49 04	 mov	 ecx, DWORD PTR [ecx+4]
  00006	8b 45 08	 mov	 eax, DWORD PTR ___$ReturnUdt$[ebp]
  00009	89 08		 mov	 DWORD PTR [eax], ecx

; 798  : 		}

  0000b	5d		 pop	 ebp
  0000c	c2 04 00	 ret	 4
?end@?$vector@UTeamUserData@@V?$allocator@UTeamUserData@@@std@@@std@@QBE?AV?$_Vector_const_iterator@V?$_Vector_val@UTeamUserData@@V?$allocator@UTeamUserData@@@std@@@std@@@2@XZ ENDP ; std::vector<TeamUserData,std::allocator<TeamUserData> >::end
_TEXT	ENDS
PUBLIC	??$move@AAUTeamUserData@@@std@@YA$$QAUTeamUserData@@AAU1@@Z ; std::move<TeamUserData &>
; Function compile flags: /Ogsp
; File c:\program files (x86)\microsoft visual studio 10.0\vc\include\utility
;	COMDAT ??$move@AAUTeamUserData@@@std@@YA$$QAUTeamUserData@@AAU1@@Z
_TEXT	SEGMENT
__Arg$ = 8						; size = 4
??$move@AAUTeamUserData@@@std@@YA$$QAUTeamUserData@@AAU1@@Z PROC ; std::move<TeamUserData &>, COMDAT

; 86   : 	{	// forward _Arg as movable

  00000	55		 push	 ebp
  00001	8b ec		 mov	 ebp, esp

; 87   : 	return ((typename tr1::_Remove_reference<_Ty>::_Type&&)_Arg);

  00003	8b 45 08	 mov	 eax, DWORD PTR __Arg$[ebp]

; 88   : 	}

  00006	5d		 pop	 ebp
  00007	c3		 ret	 0
??$move@AAUTeamUserData@@@std@@YA$$QAUTeamUserData@@AAU1@@Z ENDP ; std::move<TeamUserData &>
_TEXT	ENDS
PUBLIC	??$move@AAUTeamData@@@std@@YA$$QAUTeamData@@AAU1@@Z ; std::move<TeamData &>
; Function compile flags: /Ogsp
;	COMDAT ??$move@AAUTeamData@@@std@@YA$$QAUTeamData@@AAU1@@Z
_TEXT	SEGMENT
__Arg$ = 8						; size = 4
??$move@AAUTeamData@@@std@@YA$$QAUTeamData@@AAU1@@Z PROC ; std::move<TeamData &>, COMDAT

; 86   : 	{	// forward _Arg as movable

  00000	55		 push	 ebp
  00001	8b ec		 mov	 ebp, esp

; 87   : 	return ((typename tr1::_Remove_reference<_Ty>::_Type&&)_Arg);

  00003	8b 45 08	 mov	 eax, DWORD PTR __Arg$[ebp]

; 88   : 	}

  00006	5d		 pop	 ebp
  00007	c3		 ret	 0
??$move@AAUTeamData@@@std@@YA$$QAUTeamData@@AAU1@@Z ENDP ; std::move<TeamData &>
_TEXT	ENDS
PUBLIC	??$move@AAUCheerTeamInfo@@@std@@YA$$QAUCheerTeamInfo@@AAU1@@Z ; std::move<CheerTeamInfo &>
; Function compile flags: /Ogsp
;	COMDAT ??$move@AAUCheerTeamInfo@@@std@@YA$$QAUCheerTeamInfo@@AAU1@@Z
_TEXT	SEGMENT
__Arg$ = 8						; size = 4
??$move@AAUCheerTeamInfo@@@std@@YA$$QAUCheerTeamInfo@@AAU1@@Z PROC ; std::move<CheerTeamInfo &>, COMDAT

; 86   : 	{	// forward _Arg as movable

  00000	55		 push	 ebp
  00001	8b ec		 mov	 ebp, esp

; 87   : 	return ((typename tr1::_Remove_reference<_Ty>::_Type&&)_Arg);

  00003	8b 45 08	 mov	 eax, DWORD PTR __Arg$[ebp]

; 88   : 	}

  00006	5d		 pop	 ebp
  00007	c3		 ret	 0
??$move@AAUCheerTeamInfo@@@std@@YA$$QAUCheerTeamInfo@@AAU1@@Z ENDP ; std::move<CheerTeamInfo &>
_TEXT	ENDS
PUBLIC	??$_Val_type@PAUTeamUserData@@@std@@YAPAUTeamUserData@@PAU1@@Z ; std::_Val_type<TeamUserData *>
; Function compile flags: /Ogsp
; File c:\program files (x86)\microsoft visual studio 10.0\vc\include\xutility
;	COMDAT ??$_Val_type@PAUTeamUserData@@@std@@YAPAUTeamUserData@@PAU1@@Z
_TEXT	SEGMENT
___formal$ = 8						; size = 4
??$_Val_type@PAUTeamUserData@@@std@@YAPAUTeamUserData@@PAU1@@Z PROC ; std::_Val_type<TeamUserData *>, COMDAT

; 790  : 	return (0);

  00000	33 c0		 xor	 eax, eax

; 791  : 	}

  00002	c3		 ret	 0
??$_Val_type@PAUTeamUserData@@@std@@YAPAUTeamUserData@@PAU1@@Z ENDP ; std::_Val_type<TeamUserData *>
_TEXT	ENDS
PUBLIC	??$_Val_type@PAUTeamData@@@std@@YAPAUTeamData@@PAU1@@Z ; std::_Val_type<TeamData *>
; Function compile flags: /Ogsp
;	COMDAT ??$_Val_type@PAUTeamData@@@std@@YAPAUTeamData@@PAU1@@Z
_TEXT	SEGMENT
___formal$ = 8						; size = 4
??$_Val_type@PAUTeamData@@@std@@YAPAUTeamData@@PAU1@@Z PROC ; std::_Val_type<TeamData *>, COMDAT

; 790  : 	return (0);

  00000	33 c0		 xor	 eax, eax

; 791  : 	}

  00002	c3		 ret	 0
??$_Val_type@PAUTeamData@@@std@@YAPAUTeamData@@PAU1@@Z ENDP ; std::_Val_type<TeamData *>
_TEXT	ENDS
PUBLIC	??$_Val_type@PAUCheerTeamInfo@@@std@@YAPAUCheerTeamInfo@@PAU1@@Z ; std::_Val_type<CheerTeamInfo *>
; Function compile flags: /Ogsp
;	COMDAT ??$_Val_type@PAUCheerTeamInfo@@@std@@YAPAUCheerTeamInfo@@PAU1@@Z
_TEXT	SEGMENT
___formal$ = 8						; size = 4
??$_Val_type@PAUCheerTeamInfo@@@std@@YAPAUCheerTeamInfo@@PAU1@@Z PROC ; std::_Val_type<CheerTeamInfo *>, COMDAT

; 790  : 	return (0);

  00000	33 c0		 xor	 eax, eax

; 791  : 	}

  00002	c3		 ret	 0
??$_Val_type@PAUCheerTeamInfo@@@std@@YAPAUCheerTeamInfo@@PAU1@@Z ENDP ; std::_Val_type<CheerTeamInfo *>
_TEXT	ENDS
PUBLIC	??$_Copy_impl@PAUTeamUserData@@PAU1@@std@@YAPAUTeamUserData@@PAU1@00U_Nonscalar_ptr_iterator_tag@0@@Z ; std::_Copy_impl<TeamUserData *,TeamUserData *>
; Function compile flags: /Ogsp
;	COMDAT ??$_Copy_impl@PAUTeamUserData@@PAU1@@std@@YAPAUTeamUserData@@PAU1@00U_Nonscalar_ptr_iterator_tag@0@@Z
_TEXT	SEGMENT
__First$ = 8						; size = 4
__Last$ = 12						; size = 4
__Dest$ = 16						; size = 4
___formal$ = 20						; size = 1
??$_Copy_impl@PAUTeamUserData@@PAU1@@std@@YAPAUTeamUserData@@PAU1@00U_Nonscalar_ptr_iterator_tag@0@@Z PROC ; std::_Copy_impl<TeamUserData *,TeamUserData *>, COMDAT

; 2142 : 	{	// copy [_First, _Last) to [_Dest, ...), arbitrary iterators

  00000	55		 push	 ebp
  00001	8b ec		 mov	 ebp, esp
  00003	56		 push	 esi

; 2143 : 	for (; _First != _Last; ++_Dest, ++_First)

  00004	8b 75 08	 mov	 esi, DWORD PTR __First$[ebp]
  00007	eb 10		 jmp	 SHORT $LN9@Copy_impl
$LL3@Copy_impl:

; 2144 : 		*_Dest = *_First;

  00009	8b 4d 10	 mov	 ecx, DWORD PTR __Dest$[ebp]
  0000c	56		 push	 esi
  0000d	e8 00 00 00 00	 call	 ??4TeamUserData@@QAEAAU0@ABU0@@Z
  00012	83 45 10 18	 add	 DWORD PTR __Dest$[ebp], 24 ; 00000018H
  00016	83 c6 18	 add	 esi, 24			; 00000018H
$LN9@Copy_impl:

; 2143 : 	for (; _First != _Last; ++_Dest, ++_First)

  00019	3b 75 0c	 cmp	 esi, DWORD PTR __Last$[ebp]
  0001c	75 eb		 jne	 SHORT $LL3@Copy_impl

; 2145 : 	return (_Dest);

  0001e	8b 45 10	 mov	 eax, DWORD PTR __Dest$[ebp]
  00021	5e		 pop	 esi

; 2146 : 	}

  00022	5d		 pop	 ebp
  00023	c3		 ret	 0
??$_Copy_impl@PAUTeamUserData@@PAU1@@std@@YAPAUTeamUserData@@PAU1@00U_Nonscalar_ptr_iterator_tag@0@@Z ENDP ; std::_Copy_impl<TeamUserData *,TeamUserData *>
_TEXT	ENDS
PUBLIC	??$_Destroy@UCheerTeamInfo@@@std@@YAXPAUCheerTeamInfo@@@Z ; std::_Destroy<CheerTeamInfo>
; Function compile flags: /Ogsp
; File c:\program files (x86)\microsoft visual studio 10.0\vc\include\xmemory
;	COMDAT ??$_Destroy@UCheerTeamInfo@@@std@@YAXPAUCheerTeamInfo@@@Z
_TEXT	SEGMENT
__Ptr$ = 8						; size = 4
??$_Destroy@UCheerTeamInfo@@@std@@YAXPAUCheerTeamInfo@@@Z PROC ; std::_Destroy<CheerTeamInfo>, COMDAT

; 63   : 	_Ptr->~_Ty();
; 64   : 	}

  00000	c3		 ret	 0
??$_Destroy@UCheerTeamInfo@@@std@@YAXPAUCheerTeamInfo@@@Z ENDP ; std::_Destroy<CheerTeamInfo>
_TEXT	ENDS
PUBLIC	??$forward@UTeamUserData@@@std@@YA$$QAUTeamUserData@@AAU1@@Z ; std::forward<TeamUserData>
; Function compile flags: /Ogsp
; File c:\program files (x86)\microsoft visual studio 10.0\vc\include\utility
;	COMDAT ??$forward@UTeamUserData@@@std@@YA$$QAUTeamUserData@@AAU1@@Z
_TEXT	SEGMENT
__Arg$ = 8						; size = 4
??$forward@UTeamUserData@@@std@@YA$$QAUTeamUserData@@AAU1@@Z PROC ; std::forward<TeamUserData>, COMDAT

; 78   : 	{	// forward _Arg, given explicitly specified type parameter

  00000	55		 push	 ebp
  00001	8b ec		 mov	 ebp, esp

; 79   : 	return ((_Ty&&)_Arg);

  00003	8b 45 08	 mov	 eax, DWORD PTR __Arg$[ebp]

; 80   : 	}

  00006	5d		 pop	 ebp
  00007	c3		 ret	 0
??$forward@UTeamUserData@@@std@@YA$$QAUTeamUserData@@AAU1@@Z ENDP ; std::forward<TeamUserData>
_TEXT	ENDS
PUBLIC	??$forward@UTeamData@@@std@@YA$$QAUTeamData@@AAU1@@Z ; std::forward<TeamData>
; Function compile flags: /Ogsp
;	COMDAT ??$forward@UTeamData@@@std@@YA$$QAUTeamData@@AAU1@@Z
_TEXT	SEGMENT
__Arg$ = 8						; size = 4
??$forward@UTeamData@@@std@@YA$$QAUTeamData@@AAU1@@Z PROC ; std::forward<TeamData>, COMDAT

; 78   : 	{	// forward _Arg, given explicitly specified type parameter

  00000	55		 push	 ebp
  00001	8b ec		 mov	 ebp, esp

; 79   : 	return ((_Ty&&)_Arg);

  00003	8b 45 08	 mov	 eax, DWORD PTR __Arg$[ebp]

; 80   : 	}

  00006	5d		 pop	 ebp
  00007	c3		 ret	 0
??$forward@UTeamData@@@std@@YA$$QAUTeamData@@AAU1@@Z ENDP ; std::forward<TeamData>
_TEXT	ENDS
PUBLIC	??$forward@UCheerTeamInfo@@@std@@YA$$QAUCheerTeamInfo@@AAU1@@Z ; std::forward<CheerTeamInfo>
; Function compile flags: /Ogsp
;	COMDAT ??$forward@UCheerTeamInfo@@@std@@YA$$QAUCheerTeamInfo@@AAU1@@Z
_TEXT	SEGMENT
__Arg$ = 8						; size = 4
??$forward@UCheerTeamInfo@@@std@@YA$$QAUCheerTeamInfo@@AAU1@@Z PROC ; std::forward<CheerTeamInfo>, COMDAT

; 78   : 	{	// forward _Arg, given explicitly specified type parameter

  00000	55		 push	 ebp
  00001	8b ec		 mov	 ebp, esp

; 79   : 	return ((_Ty&&)_Arg);

  00003	8b 45 08	 mov	 eax, DWORD PTR __Arg$[ebp]

; 80   : 	}

  00006	5d		 pop	 ebp
  00007	c3		 ret	 0
??$forward@UCheerTeamInfo@@@std@@YA$$QAUCheerTeamInfo@@AAU1@@Z ENDP ; std::forward<CheerTeamInfo>
_TEXT	ENDS
PUBLIC	??$_Ptr_cat@V?$_Vector_const_iterator@V?$_Vector_val@UTeamUserData@@V?$allocator@UTeamUserData@@@std@@@std@@@std@@PAUTeamUserData@@@std@@YA?AU_Nonscalar_ptr_iterator_tag@0@AAV?$_Vector_const_iterator@V?$_Vector_val@UTeamUserData@@V?$allocator@UTeamUserData@@@std@@@std@@@0@AAPAUTeamUserData@@@Z ; std::_Ptr_cat<std::_Vector_const_iterator<std::_Vector_val<TeamUserData,std::allocator<TeamUserData> > >,TeamUserData *>
; Function compile flags: /Ogsp
; File c:\program files (x86)\microsoft visual studio 10.0\vc\include\xutility
;	COMDAT ??$_Ptr_cat@V?$_Vector_const_iterator@V?$_Vector_val@UTeamUserData@@V?$allocator@UTeamUserData@@@std@@@std@@@std@@PAUTeamUserData@@@std@@YA?AU_Nonscalar_ptr_iterator_tag@0@AAV?$_Vector_const_iterator@V?$_Vector_val@UTeamUserData@@V?$allocator@UTeamUserData@@@std@@@std@@@0@AAPAUTeamUserData@@@Z
_TEXT	SEGMENT
__Cat$ = -1						; size = 1
___formal$ = 8						; size = 4
___formal$ = 12						; size = 4
??$_Ptr_cat@V?$_Vector_const_iterator@V?$_Vector_val@UTeamUserData@@V?$allocator@UTeamUserData@@@std@@@std@@@std@@PAUTeamUserData@@@std@@YA?AU_Nonscalar_ptr_iterator_tag@0@AAV?$_Vector_const_iterator@V?$_Vector_val@UTeamUserData@@V?$allocator@UTeamUserData@@@std@@@std@@@0@AAPAUTeamUserData@@@Z PROC ; std::_Ptr_cat<std::_Vector_const_iterator<std::_Vector_val<TeamUserData,std::allocator<TeamUserData> > >,TeamUserData *>, COMDAT

; 485  : 	{	// return pointer category from arbitrary arguments

  00000	55		 push	 ebp
  00001	8b ec		 mov	 ebp, esp
  00003	51		 push	 ecx

; 486  : 	_Nonscalar_ptr_iterator_tag _Cat;
; 487  : 	return (_Cat);

  00004	8a 45 ff	 mov	 al, BYTE PTR __Cat$[ebp]

; 488  : 	}

  00007	c9		 leave
  00008	c3		 ret	 0
??$_Ptr_cat@V?$_Vector_const_iterator@V?$_Vector_val@UTeamUserData@@V?$allocator@UTeamUserData@@@std@@@std@@@std@@PAUTeamUserData@@@std@@YA?AU_Nonscalar_ptr_iterator_tag@0@AAV?$_Vector_const_iterator@V?$_Vector_val@UTeamUserData@@V?$allocator@UTeamUserData@@@std@@@std@@@0@AAPAUTeamUserData@@@Z ENDP ; std::_Ptr_cat<std::_Vector_const_iterator<std::_Vector_val<TeamUserData,std::allocator<TeamUserData> > >,TeamUserData *>
_TEXT	ENDS
PUBLIC	??0TeamUserData@@QAE@XZ				; TeamUserData::TeamUserData
EXTRN	__imp_??0ioHashString@@QAE@XZ:PROC
; Function compile flags: /Ogsp
; File d:\lost saga for developer\youtube\tutorial\source\src\lsclient\iousertournament.h
;	COMDAT ??0TeamUserData@@QAE@XZ
_TEXT	SEGMENT
??0TeamUserData@@QAE@XZ PROC				; TeamUserData::TeamUserData, COMDAT
; _this$ = ecx

; 11   : 	TeamUserData()

  00000	56		 push	 esi
  00001	8b f1		 mov	 esi, ecx
  00003	8d 4e 08	 lea	 ecx, DWORD PTR [esi+8]
  00006	ff 15 00 00 00
	00		 call	 DWORD PTR __imp_??0ioHashString@@QAE@XZ

; 12   : 	{
; 13   : 		m_dwTableIndex = m_dwUserIndex = 0;

  0000c	83 66 04 00	 and	 DWORD PTR [esi+4], 0
  00010	83 26 00	 and	 DWORD PTR [esi], 0

; 14   : 	}

  00013	8b c6		 mov	 eax, esi
  00015	5e		 pop	 esi
  00016	c3		 ret	 0
??0TeamUserData@@QAE@XZ ENDP				; TeamUserData::TeamUserData
_TEXT	ENDS
PUBLIC	??0CheerTeamInfo@@QAE@XZ			; CheerTeamInfo::CheerTeamInfo
; Function compile flags: /Ogsp
;	COMDAT ??0CheerTeamInfo@@QAE@XZ
_TEXT	SEGMENT
??0CheerTeamInfo@@QAE@XZ PROC				; CheerTeamInfo::CheerTeamInfo, COMDAT
; _this$ = ecx

; 40   : 	CheerTeamInfo()

  00000	8b c1		 mov	 eax, ecx

; 41   : 	{
; 42   : 		m_dwTourIndex = 0;
; 43   : 		m_dwTeamIndex = 0;
; 44   : 		m_iCheerCnt   = 0;
; 45   : 		m_iMyCheerTeamPage = -1;

  00002	83 48 0c ff	 or	 DWORD PTR [eax+12], -1
  00006	33 c9		 xor	 ecx, ecx
  00008	89 08		 mov	 DWORD PTR [eax], ecx
  0000a	89 48 04	 mov	 DWORD PTR [eax+4], ecx
  0000d	89 48 08	 mov	 DWORD PTR [eax+8], ecx

; 46   : 	}

  00010	c3		 ret	 0
??0CheerTeamInfo@@QAE@XZ ENDP				; CheerTeamInfo::CheerTeamInfo
_TEXT	ENDS
PUBLIC	?GetUserIndex@ioMyInfo@@QBEABKXZ		; ioMyInfo::GetUserIndex
; Function compile flags: /Ogsp
; File d:\lost saga for developer\youtube\tutorial\source\src\lsclient\iomyinfo.h
;	COMDAT ?GetUserIndex@ioMyInfo@@QBEABKXZ
_TEXT	SEGMENT
?GetUserIndex@ioMyInfo@@QBEABKXZ PROC			; ioMyInfo::GetUserIndex, COMDAT
; _this$ = ecx

; 515  : 	const DWORD& GetUserIndex() const { return m_user_data.m_user_idx; }

  00000	8d 41 08	 lea	 eax, DWORD PTR [ecx+8]
  00003	c3		 ret	 0
?GetUserIndex@ioMyInfo@@QBEABKXZ ENDP			; ioMyInfo::GetUserIndex
_TEXT	ENDS
PUBLIC	??1?$_Vector_val@UTeamUserData@@V?$allocator@UTeamUserData@@@std@@@std@@QAE@XZ ; std::_Vector_val<TeamUserData,std::allocator<TeamUserData> >::~_Vector_val<TeamUserData,std::allocator<TeamUserData> >
; Function compile flags: /Ogsp
; File c:\program files (x86)\microsoft visual studio 10.0\vc\include\vector
;	COMDAT ??1?$_Vector_val@UTeamUserData@@V?$allocator@UTeamUserData@@@std@@@std@@QAE@XZ
_TEXT	SEGMENT
??1?$_Vector_val@UTeamUserData@@V?$allocator@UTeamUserData@@@std@@@std@@QAE@XZ PROC ; std::_Vector_val<TeamUserData,std::allocator<TeamUserData> >::~_Vector_val<TeamUserData,std::allocator<TeamUserData> >, COMDAT
; _this$ = ecx

; 434  : 		}

  00000	c3		 ret	 0
??1?$_Vector_val@UTeamUserData@@V?$allocator@UTeamUserData@@@std@@@std@@QAE@XZ ENDP ; std::_Vector_val<TeamUserData,std::allocator<TeamUserData> >::~_Vector_val<TeamUserData,std::allocator<TeamUserData> >
_TEXT	ENDS
PUBLIC	??0?$allocator@UTeamUserData@@@std@@QAE@XZ	; std::allocator<TeamUserData>::allocator<TeamUserData>
; Function compile flags: /Ogsp
; File c:\program files (x86)\microsoft visual studio 10.0\vc\include\xmemory
;	COMDAT ??0?$allocator@UTeamUserData@@@std@@QAE@XZ
_TEXT	SEGMENT
??0?$allocator@UTeamUserData@@@std@@QAE@XZ PROC		; std::allocator<TeamUserData>::allocator<TeamUserData>, COMDAT
; _this$ = ecx

; 161  : 	_ALLOCATOR() _THROW0()

  00000	8b c1		 mov	 eax, ecx

; 162  : 		{	// construct default allocator (do nothing)
; 163  : 		}

  00002	c3		 ret	 0
??0?$allocator@UTeamUserData@@@std@@QAE@XZ ENDP		; std::allocator<TeamUserData>::allocator<TeamUserData>
_TEXT	ENDS
PUBLIC	??0?$allocator@UTeamUserData@@@std@@QAE@ABV01@@Z ; std::allocator<TeamUserData>::allocator<TeamUserData>
; Function compile flags: /Ogsp
;	COMDAT ??0?$allocator@UTeamUserData@@@std@@QAE@ABV01@@Z
_TEXT	SEGMENT
___formal$ = 8						; size = 4
??0?$allocator@UTeamUserData@@@std@@QAE@ABV01@@Z PROC	; std::allocator<TeamUserData>::allocator<TeamUserData>, COMDAT
; _this$ = ecx

; 165  : 	_ALLOCATOR(const _ALLOCATOR<_Ty>&) _THROW0()

  00000	8b c1		 mov	 eax, ecx

; 166  : 		{	// construct by copying (do nothing)
; 167  : 		}

  00002	c2 04 00	 ret	 4
??0?$allocator@UTeamUserData@@@std@@QAE@ABV01@@Z ENDP	; std::allocator<TeamUserData>::allocator<TeamUserData>
_TEXT	ENDS
PUBLIC	?deallocate@?$allocator@UTeamUserData@@@std@@QAEXPAUTeamUserData@@I@Z ; std::allocator<TeamUserData>::deallocate
; Function compile flags: /Ogsp
;	COMDAT ?deallocate@?$allocator@UTeamUserData@@@std@@QAEXPAUTeamUserData@@I@Z
_TEXT	SEGMENT
__Ptr$ = 8						; size = 4
___formal$ = 12						; size = 4
?deallocate@?$allocator@UTeamUserData@@@std@@QAEXPAUTeamUserData@@I@Z PROC ; std::allocator<TeamUserData>::deallocate, COMDAT
; _this$ = ecx

; 181  : 		{	// deallocate object at _Ptr, ignore size

  00000	55		 push	 ebp
  00001	8b ec		 mov	 ebp, esp

; 182  : 		::operator delete(_Ptr);

  00003	ff 75 08	 push	 DWORD PTR __Ptr$[ebp]
  00006	e8 00 00 00 00	 call	 ??3@YAXPAX@Z		; operator delete
  0000b	59		 pop	 ecx

; 183  : 		}

  0000c	5d		 pop	 ebp
  0000d	c2 08 00	 ret	 8
?deallocate@?$allocator@UTeamUserData@@@std@@QAEXPAUTeamUserData@@I@Z ENDP ; std::allocator<TeamUserData>::deallocate
_TEXT	ENDS
EXTRN	__imp_??0exception@std@@QAE@ABV01@@Z:PROC
; Function compile flags: /Ogsp
;	COMDAT ??0bad_alloc@std@@QAE@ABV01@@Z
_TEXT	SEGMENT
___that$ = 8						; size = 4
??0bad_alloc@std@@QAE@ABV01@@Z PROC			; std::bad_alloc::bad_alloc, COMDAT
; _this$ = ecx
  00000	55		 push	 ebp
  00001	8b ec		 mov	 ebp, esp
  00003	56		 push	 esi
  00004	ff 75 08	 push	 DWORD PTR ___that$[ebp]
  00007	8b f1		 mov	 esi, ecx
  00009	ff 15 00 00 00
	00		 call	 DWORD PTR __imp_??0exception@std@@QAE@ABV01@@Z
  0000f	c7 06 00 00 00
	00		 mov	 DWORD PTR [esi], OFFSET ??_7bad_alloc@std@@6B@
  00015	8b c6		 mov	 eax, esi
  00017	5e		 pop	 esi
  00018	5d		 pop	 ebp
  00019	c2 04 00	 ret	 4
??0bad_alloc@std@@QAE@ABV01@@Z ENDP			; std::bad_alloc::bad_alloc
_TEXT	ENDS
PUBLIC	??$_Ptr_cat@UTeamUserData@@U1@@std@@YA?AU_Nonscalar_ptr_iterator_tag@0@PAUTeamUserData@@0@Z ; std::_Ptr_cat<TeamUserData,TeamUserData>
; Function compile flags: /Ogsp
; File c:\program files (x86)\microsoft visual studio 10.0\vc\include\xutility
;	COMDAT ??$_Ptr_cat@UTeamUserData@@U1@@std@@YA?AU_Nonscalar_ptr_iterator_tag@0@PAUTeamUserData@@0@Z
_TEXT	SEGMENT
__Cat$ = -1						; size = 1
___formal$ = 8						; size = 4
___formal$ = 12						; size = 4
??$_Ptr_cat@UTeamUserData@@U1@@std@@YA?AU_Nonscalar_ptr_iterator_tag@0@PAUTeamUserData@@0@Z PROC ; std::_Ptr_cat<TeamUserData,TeamUserData>, COMDAT

; 516  : 	{	// return pointer category from pointers

  00000	55		 push	 ebp
  00001	8b ec		 mov	 ebp, esp
  00003	51		 push	 ecx

; 517  : 	typename _Ptr_cat_helper<_Elem1, _Elem2>::_Type _Cat;
; 518  : 	return (_Cat);

  00004	8a 45 ff	 mov	 al, BYTE PTR __Cat$[ebp]

; 519  : 	}

  00007	c9		 leave
  00008	c3		 ret	 0
??$_Ptr_cat@UTeamUserData@@U1@@std@@YA?AU_Nonscalar_ptr_iterator_tag@0@PAUTeamUserData@@0@Z ENDP ; std::_Ptr_cat<TeamUserData,TeamUserData>
_TEXT	ENDS
PUBLIC	??1TeamUserData@@QAE@XZ				; TeamUserData::~TeamUserData
EXTRN	__imp_??1ioHashString@@QAE@XZ:PROC
; Function compile flags: /Ogsp
;	COMDAT ??1TeamUserData@@QAE@XZ
_TEXT	SEGMENT
??1TeamUserData@@QAE@XZ PROC				; TeamUserData::~TeamUserData, COMDAT
; _this$ = ecx
  00000	83 c1 08	 add	 ecx, 8
  00003	ff 25 00 00 00
	00		 jmp	 DWORD PTR __imp_??1ioHashString@@QAE@XZ
??1TeamUserData@@QAE@XZ ENDP				; TeamUserData::~TeamUserData
_TEXT	ENDS
PUBLIC	??D?$_Vector_iterator@V?$_Vector_val@UTeamData@@V?$allocator@UTeamData@@@std@@@std@@@std@@QBEAAUTeamData@@XZ ; std::_Vector_iterator<std::_Vector_val<TeamData,std::allocator<TeamData> > >::operator*
; Function compile flags: /Ogsp
; File c:\program files (x86)\microsoft visual studio 10.0\vc\include\vector
;	COMDAT ??D?$_Vector_iterator@V?$_Vector_val@UTeamData@@V?$allocator@UTeamData@@@std@@@std@@@std@@QBEAAUTeamData@@XZ
_TEXT	SEGMENT
??D?$_Vector_iterator@V?$_Vector_val@UTeamData@@V?$allocator@UTeamData@@@std@@@std@@@std@@QBEAAUTeamData@@XZ PROC ; std::_Vector_iterator<std::_Vector_val<TeamData,std::allocator<TeamData> > >::operator*, COMDAT
; _this$ = ecx

; 322  : 		return ((reference)**(_Mybase *)this);

  00000	8b 01		 mov	 eax, DWORD PTR [ecx]

; 323  : 		}

  00002	c3		 ret	 0
??D?$_Vector_iterator@V?$_Vector_val@UTeamData@@V?$allocator@UTeamData@@@std@@@std@@@std@@QBEAAUTeamData@@XZ ENDP ; std::_Vector_iterator<std::_Vector_val<TeamData,std::allocator<TeamData> > >::operator*
_TEXT	ENDS
PUBLIC	??E?$_Vector_iterator@V?$_Vector_val@UTeamData@@V?$allocator@UTeamData@@@std@@@std@@@std@@QAEAAV01@XZ ; std::_Vector_iterator<std::_Vector_val<TeamData,std::allocator<TeamData> > >::operator++
; Function compile flags: /Ogsp
;	COMDAT ??E?$_Vector_iterator@V?$_Vector_val@UTeamData@@V?$allocator@UTeamData@@@std@@@std@@@std@@QAEAAV01@XZ
_TEXT	SEGMENT
??E?$_Vector_iterator@V?$_Vector_val@UTeamData@@V?$allocator@UTeamData@@@std@@@std@@@std@@QAEAAV01@XZ PROC ; std::_Vector_iterator<std::_Vector_val<TeamData,std::allocator<TeamData> > >::operator++, COMDAT
; _this$ = ecx

; 331  : 		{	// preincrement

  00000	8b c1		 mov	 eax, ecx

; 332  : 		++*(_Mybase *)this;

  00002	83 00 2c	 add	 DWORD PTR [eax], 44	; 0000002cH

; 333  : 		return (*this);
; 334  : 		}

  00005	c3		 ret	 0
??E?$_Vector_iterator@V?$_Vector_val@UTeamData@@V?$allocator@UTeamData@@@std@@@std@@@std@@QAEAAV01@XZ ENDP ; std::_Vector_iterator<std::_Vector_val<TeamData,std::allocator<TeamData> > >::operator++
_TEXT	ENDS
PUBLIC	??E?$_Vector_iterator@V?$_Vector_val@UTeamData@@V?$allocator@UTeamData@@@std@@@std@@@std@@QAE?AV01@H@Z ; std::_Vector_iterator<std::_Vector_val<TeamData,std::allocator<TeamData> > >::operator++
; Function compile flags: /Ogsp
;	COMDAT ??E?$_Vector_iterator@V?$_Vector_val@UTeamData@@V?$allocator@UTeamData@@@std@@@std@@@std@@QAE?AV01@H@Z
_TEXT	SEGMENT
___$ReturnUdt$ = 8					; size = 4
___formal$ = 12						; size = 4
??E?$_Vector_iterator@V?$_Vector_val@UTeamData@@V?$allocator@UTeamData@@@std@@@std@@@std@@QAE?AV01@H@Z PROC ; std::_Vector_iterator<std::_Vector_val<TeamData,std::allocator<TeamData> > >::operator++, COMDAT
; _this$ = ecx

; 337  : 		{	// postincrement

  00000	55		 push	 ebp
  00001	8b ec		 mov	 ebp, esp

; 338  : 		_Myiter _Tmp = *this;

  00003	8b 11		 mov	 edx, DWORD PTR [ecx]
  00005	8b 45 08	 mov	 eax, DWORD PTR ___$ReturnUdt$[ebp]
  00008	89 10		 mov	 DWORD PTR [eax], edx

; 339  : 		++*this;

  0000a	83 c2 2c	 add	 edx, 44			; 0000002cH
  0000d	89 11		 mov	 DWORD PTR [ecx], edx

; 340  : 		return (_Tmp);
; 341  : 		}

  0000f	5d		 pop	 ebp
  00010	c2 08 00	 ret	 8
??E?$_Vector_iterator@V?$_Vector_val@UTeamData@@V?$allocator@UTeamData@@@std@@@std@@@std@@QAE?AV01@H@Z ENDP ; std::_Vector_iterator<std::_Vector_val<TeamData,std::allocator<TeamData> > >::operator++
_TEXT	ENDS
PUBLIC	??D?$_Vector_iterator@V?$_Vector_val@UTeamUserData@@V?$allocator@UTeamUserData@@@std@@@std@@@std@@QBEAAUTeamUserData@@XZ ; std::_Vector_iterator<std::_Vector_val<TeamUserData,std::allocator<TeamUserData> > >::operator*
; Function compile flags: /Ogsp
;	COMDAT ??D?$_Vector_iterator@V?$_Vector_val@UTeamUserData@@V?$allocator@UTeamUserData@@@std@@@std@@@std@@QBEAAUTeamUserData@@XZ
_TEXT	SEGMENT
??D?$_Vector_iterator@V?$_Vector_val@UTeamUserData@@V?$allocator@UTeamUserData@@@std@@@std@@@std@@QBEAAUTeamUserData@@XZ PROC ; std::_Vector_iterator<std::_Vector_val<TeamUserData,std::allocator<TeamUserData> > >::operator*, COMDAT
; _this$ = ecx

; 322  : 		return ((reference)**(_Mybase *)this);

  00000	8b 01		 mov	 eax, DWORD PTR [ecx]

; 323  : 		}

  00002	c3		 ret	 0
??D?$_Vector_iterator@V?$_Vector_val@UTeamUserData@@V?$allocator@UTeamUserData@@@std@@@std@@@std@@QBEAAUTeamUserData@@XZ ENDP ; std::_Vector_iterator<std::_Vector_val<TeamUserData,std::allocator<TeamUserData> > >::operator*
_TEXT	ENDS
PUBLIC	??E?$_Vector_iterator@V?$_Vector_val@UTeamUserData@@V?$allocator@UTeamUserData@@@std@@@std@@@std@@QAEAAV01@XZ ; std::_Vector_iterator<std::_Vector_val<TeamUserData,std::allocator<TeamUserData> > >::operator++
; Function compile flags: /Ogsp
;	COMDAT ??E?$_Vector_iterator@V?$_Vector_val@UTeamUserData@@V?$allocator@UTeamUserData@@@std@@@std@@@std@@QAEAAV01@XZ
_TEXT	SEGMENT
??E?$_Vector_iterator@V?$_Vector_val@UTeamUserData@@V?$allocator@UTeamUserData@@@std@@@std@@@std@@QAEAAV01@XZ PROC ; std::_Vector_iterator<std::_Vector_val<TeamUserData,std::allocator<TeamUserData> > >::operator++, COMDAT
; _this$ = ecx

; 331  : 		{	// preincrement

  00000	8b c1		 mov	 eax, ecx

; 332  : 		++*(_Mybase *)this;

  00002	83 00 18	 add	 DWORD PTR [eax], 24	; 00000018H

; 333  : 		return (*this);
; 334  : 		}

  00005	c3		 ret	 0
??E?$_Vector_iterator@V?$_Vector_val@UTeamUserData@@V?$allocator@UTeamUserData@@@std@@@std@@@std@@QAEAAV01@XZ ENDP ; std::_Vector_iterator<std::_Vector_val<TeamUserData,std::allocator<TeamUserData> > >::operator++
_TEXT	ENDS
PUBLIC	??E?$_Vector_iterator@V?$_Vector_val@UTeamUserData@@V?$allocator@UTeamUserData@@@std@@@std@@@std@@QAE?AV01@H@Z ; std::_Vector_iterator<std::_Vector_val<TeamUserData,std::allocator<TeamUserData> > >::operator++
; Function compile flags: /Ogsp
;	COMDAT ??E?$_Vector_iterator@V?$_Vector_val@UTeamUserData@@V?$allocator@UTeamUserData@@@std@@@std@@@std@@QAE?AV01@H@Z
_TEXT	SEGMENT
___$ReturnUdt$ = 8					; size = 4
___formal$ = 12						; size = 4
??E?$_Vector_iterator@V?$_Vector_val@UTeamUserData@@V?$allocator@UTeamUserData@@@std@@@std@@@std@@QAE?AV01@H@Z PROC ; std::_Vector_iterator<std::_Vector_val<TeamUserData,std::allocator<TeamUserData> > >::operator++, COMDAT
; _this$ = ecx

; 337  : 		{	// postincrement

  00000	55		 push	 ebp
  00001	8b ec		 mov	 ebp, esp

; 338  : 		_Myiter _Tmp = *this;

  00003	8b 11		 mov	 edx, DWORD PTR [ecx]
  00005	8b 45 08	 mov	 eax, DWORD PTR ___$ReturnUdt$[ebp]
  00008	89 10		 mov	 DWORD PTR [eax], edx

; 339  : 		++*this;

  0000a	83 c2 18	 add	 edx, 24			; 00000018H
  0000d	89 11		 mov	 DWORD PTR [ecx], edx

; 340  : 		return (_Tmp);
; 341  : 		}

  0000f	5d		 pop	 ebp
  00010	c2 08 00	 ret	 8
??E?$_Vector_iterator@V?$_Vector_val@UTeamUserData@@V?$allocator@UTeamUserData@@@std@@@std@@@std@@QAE?AV01@H@Z ENDP ; std::_Vector_iterator<std::_Vector_val<TeamUserData,std::allocator<TeamUserData> > >::operator++
_TEXT	ENDS
PUBLIC	??0?$_Vector_val@UTeamData@@V?$allocator@UTeamData@@@std@@@std@@QAE@V?$allocator@UTeamData@@@1@@Z ; std::_Vector_val<TeamData,std::allocator<TeamData> >::_Vector_val<TeamData,std::allocator<TeamData> >
; Function compile flags: /Ogsp
;	COMDAT ??0?$_Vector_val@UTeamData@@V?$allocator@UTeamData@@@std@@@std@@QAE@V?$allocator@UTeamData@@@1@@Z
_TEXT	SEGMENT
__Al$ = 8						; size = 1
??0?$_Vector_val@UTeamData@@V?$allocator@UTeamData@@@std@@@std@@QAE@V?$allocator@UTeamData@@@1@@Z PROC ; std::_Vector_val<TeamData,std::allocator<TeamData> >::_Vector_val<TeamData,std::allocator<TeamData> >, COMDAT
; _this$ = ecx

; 426  : 		{	// construct allocator from _Al

  00000	8b c1		 mov	 eax, ecx

; 427  : 		_Myfirst = 0;

  00002	33 c9		 xor	 ecx, ecx
  00004	89 08		 mov	 DWORD PTR [eax], ecx

; 428  : 		_Mylast = 0;

  00006	89 48 04	 mov	 DWORD PTR [eax+4], ecx

; 429  : 		_Myend = 0;

  00009	89 48 08	 mov	 DWORD PTR [eax+8], ecx

; 430  : 		}

  0000c	c2 04 00	 ret	 4
??0?$_Vector_val@UTeamData@@V?$allocator@UTeamData@@@std@@@std@@QAE@V?$allocator@UTeamData@@@1@@Z ENDP ; std::_Vector_val<TeamData,std::allocator<TeamData> >::_Vector_val<TeamData,std::allocator<TeamData> >
_TEXT	ENDS
PUBLIC	??0?$_Vector_val@UCheerTeamInfo@@V?$allocator@UCheerTeamInfo@@@std@@@std@@QAE@V?$allocator@UCheerTeamInfo@@@1@@Z ; std::_Vector_val<CheerTeamInfo,std::allocator<CheerTeamInfo> >::_Vector_val<CheerTeamInfo,std::allocator<CheerTeamInfo> >
; Function compile flags: /Ogsp
;	COMDAT ??0?$_Vector_val@UCheerTeamInfo@@V?$allocator@UCheerTeamInfo@@@std@@@std@@QAE@V?$allocator@UCheerTeamInfo@@@1@@Z
_TEXT	SEGMENT
__Al$ = 8						; size = 1
??0?$_Vector_val@UCheerTeamInfo@@V?$allocator@UCheerTeamInfo@@@std@@@std@@QAE@V?$allocator@UCheerTeamInfo@@@1@@Z PROC ; std::_Vector_val<CheerTeamInfo,std::allocator<CheerTeamInfo> >::_Vector_val<CheerTeamInfo,std::allocator<CheerTeamInfo> >, COMDAT
; _this$ = ecx

; 426  : 		{	// construct allocator from _Al

  00000	8b c1		 mov	 eax, ecx

; 427  : 		_Myfirst = 0;

  00002	33 c9		 xor	 ecx, ecx
  00004	89 08		 mov	 DWORD PTR [eax], ecx

; 428  : 		_Mylast = 0;

  00006	89 48 04	 mov	 DWORD PTR [eax+4], ecx

; 429  : 		_Myend = 0;

  00009	89 48 08	 mov	 DWORD PTR [eax+8], ecx

; 430  : 		}

  0000c	c2 04 00	 ret	 4
??0?$_Vector_val@UCheerTeamInfo@@V?$allocator@UCheerTeamInfo@@@std@@@std@@QAE@V?$allocator@UCheerTeamInfo@@@1@@Z ENDP ; std::_Vector_val<CheerTeamInfo,std::allocator<CheerTeamInfo> >::_Vector_val<CheerTeamInfo,std::allocator<CheerTeamInfo> >
_TEXT	ENDS
PUBLIC	??0?$_Vector_iterator@V?$_Vector_val@UTeamData@@V?$allocator@UTeamData@@@std@@@std@@@std@@QAE@PAUTeamData@@PBU_Container_base0@1@@Z ; std::_Vector_iterator<std::_Vector_val<TeamData,std::allocator<TeamData> > >::_Vector_iterator<std::_Vector_val<TeamData,std::allocator<TeamData> > >
; Function compile flags: /Ogsp
;	COMDAT ??0?$_Vector_iterator@V?$_Vector_val@UTeamData@@V?$allocator@UTeamData@@@std@@@std@@@std@@QAE@PAUTeamData@@PBU_Container_base0@1@@Z
_TEXT	SEGMENT
__Parg$ = 8						; size = 4
__Pvector$ = 12						; size = 4
??0?$_Vector_iterator@V?$_Vector_val@UTeamData@@V?$allocator@UTeamData@@@std@@@std@@@std@@QAE@PAUTeamData@@PBU_Container_base0@1@@Z PROC ; std::_Vector_iterator<std::_Vector_val<TeamData,std::allocator<TeamData> > >::_Vector_iterator<std::_Vector_val<TeamData,std::allocator<TeamData> > >, COMDAT
; _this$ = ecx

; 304  : 		{	// construct with pointer _Parg

  00000	55		 push	 ebp
  00001	8b ec		 mov	 ebp, esp
  00003	8b c1		 mov	 eax, ecx
  00005	8b 4d 08	 mov	 ecx, DWORD PTR __Parg$[ebp]
  00008	89 08		 mov	 DWORD PTR [eax], ecx

; 305  : 		}

  0000a	5d		 pop	 ebp
  0000b	c2 08 00	 ret	 8
??0?$_Vector_iterator@V?$_Vector_val@UTeamData@@V?$allocator@UTeamData@@@std@@@std@@@std@@QAE@PAUTeamData@@PBU_Container_base0@1@@Z ENDP ; std::_Vector_iterator<std::_Vector_val<TeamData,std::allocator<TeamData> > >::_Vector_iterator<std::_Vector_val<TeamData,std::allocator<TeamData> > >
_TEXT	ENDS
PUBLIC	??8?$_Vector_const_iterator@V?$_Vector_val@UTeamData@@V?$allocator@UTeamData@@@std@@@std@@@std@@QBE_NABV01@@Z ; std::_Vector_const_iterator<std::_Vector_val<TeamData,std::allocator<TeamData> > >::operator==
; Function compile flags: /Ogsp
;	COMDAT ??8?$_Vector_const_iterator@V?$_Vector_val@UTeamData@@V?$allocator@UTeamData@@@std@@@std@@@std@@QBE_NABV01@@Z
_TEXT	SEGMENT
__Right$ = 8						; size = 4
??8?$_Vector_const_iterator@V?$_Vector_val@UTeamData@@V?$allocator@UTeamData@@@std@@@std@@@std@@QBE_NABV01@@Z PROC ; std::_Vector_const_iterator<std::_Vector_val<TeamData,std::allocator<TeamData> > >::operator==, COMDAT
; _this$ = ecx

; 201  : 		{	// test for iterator equality

  00000	55		 push	 ebp
  00001	8b ec		 mov	 ebp, esp

; 202  : 		_Compat(_Right);
; 203  : 		return (this->_Ptr == _Right._Ptr);

  00003	8b 01		 mov	 eax, DWORD PTR [ecx]
  00005	8b 4d 08	 mov	 ecx, DWORD PTR __Right$[ebp]
  00008	2b 01		 sub	 eax, DWORD PTR [ecx]
  0000a	f7 d8		 neg	 eax
  0000c	1b c0		 sbb	 eax, eax
  0000e	40		 inc	 eax

; 204  : 		}

  0000f	5d		 pop	 ebp
  00010	c2 04 00	 ret	 4
??8?$_Vector_const_iterator@V?$_Vector_val@UTeamData@@V?$allocator@UTeamData@@@std@@@std@@@std@@QBE_NABV01@@Z ENDP ; std::_Vector_const_iterator<std::_Vector_val<TeamData,std::allocator<TeamData> > >::operator==
_TEXT	ENDS
PUBLIC	??0?$_Vector_iterator@V?$_Vector_val@UTeamUserData@@V?$allocator@UTeamUserData@@@std@@@std@@@std@@QAE@PAUTeamUserData@@PBU_Container_base0@1@@Z ; std::_Vector_iterator<std::_Vector_val<TeamUserData,std::allocator<TeamUserData> > >::_Vector_iterator<std::_Vector_val<TeamUserData,std::allocator<TeamUserData> > >
; Function compile flags: /Ogsp
;	COMDAT ??0?$_Vector_iterator@V?$_Vector_val@UTeamUserData@@V?$allocator@UTeamUserData@@@std@@@std@@@std@@QAE@PAUTeamUserData@@PBU_Container_base0@1@@Z
_TEXT	SEGMENT
__Parg$ = 8						; size = 4
__Pvector$ = 12						; size = 4
??0?$_Vector_iterator@V?$_Vector_val@UTeamUserData@@V?$allocator@UTeamUserData@@@std@@@std@@@std@@QAE@PAUTeamUserData@@PBU_Container_base0@1@@Z PROC ; std::_Vector_iterator<std::_Vector_val<TeamUserData,std::allocator<TeamUserData> > >::_Vector_iterator<std::_Vector_val<TeamUserData,std::allocator<TeamUserData> > >, COMDAT
; _this$ = ecx

; 304  : 		{	// construct with pointer _Parg

  00000	55		 push	 ebp
  00001	8b ec		 mov	 ebp, esp
  00003	8b c1		 mov	 eax, ecx
  00005	8b 4d 08	 mov	 ecx, DWORD PTR __Parg$[ebp]
  00008	89 08		 mov	 DWORD PTR [eax], ecx

; 305  : 		}

  0000a	5d		 pop	 ebp
  0000b	c2 08 00	 ret	 8
??0?$_Vector_iterator@V?$_Vector_val@UTeamUserData@@V?$allocator@UTeamUserData@@@std@@@std@@@std@@QAE@PAUTeamUserData@@PBU_Container_base0@1@@Z ENDP ; std::_Vector_iterator<std::_Vector_val<TeamUserData,std::allocator<TeamUserData> > >::_Vector_iterator<std::_Vector_val<TeamUserData,std::allocator<TeamUserData> > >
_TEXT	ENDS
PUBLIC	??8?$_Vector_const_iterator@V?$_Vector_val@UTeamUserData@@V?$allocator@UTeamUserData@@@std@@@std@@@std@@QBE_NABV01@@Z ; std::_Vector_const_iterator<std::_Vector_val<TeamUserData,std::allocator<TeamUserData> > >::operator==
; Function compile flags: /Ogsp
;	COMDAT ??8?$_Vector_const_iterator@V?$_Vector_val@UTeamUserData@@V?$allocator@UTeamUserData@@@std@@@std@@@std@@QBE_NABV01@@Z
_TEXT	SEGMENT
__Right$ = 8						; size = 4
??8?$_Vector_const_iterator@V?$_Vector_val@UTeamUserData@@V?$allocator@UTeamUserData@@@std@@@std@@@std@@QBE_NABV01@@Z PROC ; std::_Vector_const_iterator<std::_Vector_val<TeamUserData,std::allocator<TeamUserData> > >::operator==, COMDAT
; _this$ = ecx

; 201  : 		{	// test for iterator equality

  00000	55		 push	 ebp
  00001	8b ec		 mov	 ebp, esp

; 202  : 		_Compat(_Right);
; 203  : 		return (this->_Ptr == _Right._Ptr);

  00003	8b 01		 mov	 eax, DWORD PTR [ecx]
  00005	8b 4d 08	 mov	 ecx, DWORD PTR __Right$[ebp]
  00008	2b 01		 sub	 eax, DWORD PTR [ecx]
  0000a	f7 d8		 neg	 eax
  0000c	1b c0		 sbb	 eax, eax
  0000e	40		 inc	 eax

; 204  : 		}

  0000f	5d		 pop	 ebp
  00010	c2 04 00	 ret	 4
??8?$_Vector_const_iterator@V?$_Vector_val@UTeamUserData@@V?$allocator@UTeamUserData@@@std@@@std@@@std@@QBE_NABV01@@Z ENDP ; std::_Vector_const_iterator<std::_Vector_val<TeamUserData,std::allocator<TeamUserData> > >::operator==
_TEXT	ENDS
PUBLIC	??8?$_Vector_const_iterator@V?$_Vector_val@UCheerTeamInfo@@V?$allocator@UCheerTeamInfo@@@std@@@std@@@std@@QBE_NABV01@@Z ; std::_Vector_const_iterator<std::_Vector_val<CheerTeamInfo,std::allocator<CheerTeamInfo> > >::operator==
; Function compile flags: /Ogsp
;	COMDAT ??8?$_Vector_const_iterator@V?$_Vector_val@UCheerTeamInfo@@V?$allocator@UCheerTeamInfo@@@std@@@std@@@std@@QBE_NABV01@@Z
_TEXT	SEGMENT
__Right$ = 8						; size = 4
??8?$_Vector_const_iterator@V?$_Vector_val@UCheerTeamInfo@@V?$allocator@UCheerTeamInfo@@@std@@@std@@@std@@QBE_NABV01@@Z PROC ; std::_Vector_const_iterator<std::_Vector_val<CheerTeamInfo,std::allocator<CheerTeamInfo> > >::operator==, COMDAT
; _this$ = ecx

; 201  : 		{	// test for iterator equality

  00000	55		 push	 ebp
  00001	8b ec		 mov	 ebp, esp

; 202  : 		_Compat(_Right);
; 203  : 		return (this->_Ptr == _Right._Ptr);

  00003	8b 01		 mov	 eax, DWORD PTR [ecx]
  00005	8b 4d 08	 mov	 ecx, DWORD PTR __Right$[ebp]
  00008	2b 01		 sub	 eax, DWORD PTR [ecx]
  0000a	f7 d8		 neg	 eax
  0000c	1b c0		 sbb	 eax, eax
  0000e	40		 inc	 eax

; 204  : 		}

  0000f	5d		 pop	 ebp
  00010	c2 04 00	 ret	 4
??8?$_Vector_const_iterator@V?$_Vector_val@UCheerTeamInfo@@V?$allocator@UCheerTeamInfo@@@std@@@std@@@std@@QBE_NABV01@@Z ENDP ; std::_Vector_const_iterator<std::_Vector_val<CheerTeamInfo,std::allocator<CheerTeamInfo> > >::operator==
_TEXT	ENDS
PUBLIC	??0?$_Vector_iterator@V?$_Vector_val@UCheerTeamInfo@@V?$allocator@UCheerTeamInfo@@@std@@@std@@@std@@QAE@PAUCheerTeamInfo@@PBU_Container_base0@1@@Z ; std::_Vector_iterator<std::_Vector_val<CheerTeamInfo,std::allocator<CheerTeamInfo> > >::_Vector_iterator<std::_Vector_val<CheerTeamInfo,std::allocator<CheerTeamInfo> > >
; Function compile flags: /Ogsp
;	COMDAT ??0?$_Vector_iterator@V?$_Vector_val@UCheerTeamInfo@@V?$allocator@UCheerTeamInfo@@@std@@@std@@@std@@QAE@PAUCheerTeamInfo@@PBU_Container_base0@1@@Z
_TEXT	SEGMENT
__Parg$ = 8						; size = 4
__Pvector$ = 12						; size = 4
??0?$_Vector_iterator@V?$_Vector_val@UCheerTeamInfo@@V?$allocator@UCheerTeamInfo@@@std@@@std@@@std@@QAE@PAUCheerTeamInfo@@PBU_Container_base0@1@@Z PROC ; std::_Vector_iterator<std::_Vector_val<CheerTeamInfo,std::allocator<CheerTeamInfo> > >::_Vector_iterator<std::_Vector_val<CheerTeamInfo,std::allocator<CheerTeamInfo> > >, COMDAT
; _this$ = ecx

; 304  : 		{	// construct with pointer _Parg

  00000	55		 push	 ebp
  00001	8b ec		 mov	 ebp, esp
  00003	8b c1		 mov	 eax, ecx
  00005	8b 4d 08	 mov	 ecx, DWORD PTR __Parg$[ebp]
  00008	89 08		 mov	 DWORD PTR [eax], ecx

; 305  : 		}

  0000a	5d		 pop	 ebp
  0000b	c2 08 00	 ret	 8
??0?$_Vector_iterator@V?$_Vector_val@UCheerTeamInfo@@V?$allocator@UCheerTeamInfo@@@std@@@std@@@std@@QAE@PAUCheerTeamInfo@@PBU_Container_base0@1@@Z ENDP ; std::_Vector_iterator<std::_Vector_val<CheerTeamInfo,std::allocator<CheerTeamInfo> > >::_Vector_iterator<std::_Vector_val<CheerTeamInfo,std::allocator<CheerTeamInfo> > >
_TEXT	ENDS
PUBLIC	?max_size@?$vector@UTeamUserData@@V?$allocator@UTeamUserData@@@std@@@std@@QBEIXZ ; std::vector<TeamUserData,std::allocator<TeamUserData> >::max_size
; Function compile flags: /Ogsp
;	COMDAT ?max_size@?$vector@UTeamUserData@@V?$allocator@UTeamUserData@@@std@@@std@@QBEIXZ
_TEXT	SEGMENT
?max_size@?$vector@UTeamUserData@@V?$allocator@UTeamUserData@@@std@@@std@@QBEIXZ PROC ; std::vector<TeamUserData,std::allocator<TeamUserData> >::max_size, COMDAT
; _this$ = ecx

; 884  : 		return (this->_Alval.max_size());

  00000	b8 aa aa aa 0a	 mov	 eax, 178956970		; 0aaaaaaaH

; 885  : 		}

  00005	c3		 ret	 0
?max_size@?$vector@UTeamUserData@@V?$allocator@UTeamUserData@@@std@@@std@@QBEIXZ ENDP ; std::vector<TeamUserData,std::allocator<TeamUserData> >::max_size
_TEXT	ENDS
PUBLIC	?_Grow_to@?$vector@UTeamUserData@@V?$allocator@UTeamUserData@@@std@@@std@@IBEII@Z ; std::vector<TeamUserData,std::allocator<TeamUserData> >::_Grow_to
; Function compile flags: /Ogsp
;	COMDAT ?_Grow_to@?$vector@UTeamUserData@@V?$allocator@UTeamUserData@@@std@@@std@@IBEII@Z
_TEXT	SEGMENT
__Count$ = 8						; size = 4
?_Grow_to@?$vector@UTeamUserData@@V?$allocator@UTeamUserData@@@std@@@std@@IBEII@Z PROC ; std::vector<TeamUserData,std::allocator<TeamUserData> >::_Grow_to, COMDAT
; _this$ = ecx

; 1274 : 		{	// grow by 50% or at least to _Count

  00000	55		 push	 ebp
  00001	8b ec		 mov	 ebp, esp

; 1275 : 		size_type _Capacity = capacity();

  00003	8b 41 08	 mov	 eax, DWORD PTR [ecx+8]
  00006	2b 01		 sub	 eax, DWORD PTR [ecx]
  00008	6a 18		 push	 24			; 00000018H
  0000a	99		 cdq
  0000b	59		 pop	 ecx
  0000c	f7 f9		 idiv	 ecx

; 1276 : 
; 1277 : 		_Capacity = max_size() - _Capacity / 2 < _Capacity
; 1278 : 			? 0 : _Capacity + _Capacity / 2;	// try to grow by 50%

  0000e	ba aa aa aa 0a	 mov	 edx, 178956970		; 0aaaaaaaH
  00013	8b c8		 mov	 ecx, eax
  00015	d1 e9		 shr	 ecx, 1
  00017	2b d1		 sub	 edx, ecx
  00019	3b d0		 cmp	 edx, eax
  0001b	73 04		 jae	 SHORT $LN4@Grow_to
  0001d	33 c0		 xor	 eax, eax
  0001f	eb 02		 jmp	 SHORT $LN5@Grow_to
$LN4@Grow_to:
  00021	03 c1		 add	 eax, ecx
$LN5@Grow_to:

; 1279 : 		if (_Capacity < _Count)

  00023	3b 45 08	 cmp	 eax, DWORD PTR __Count$[ebp]

; 1280 : 			_Capacity = _Count;

  00026	0f 42 45 08	 cmovb	 eax, DWORD PTR __Count$[ebp]

; 1281 : 		return (_Capacity);
; 1282 : 		}

  0002a	5d		 pop	 ebp
  0002b	c2 04 00	 ret	 4
?_Grow_to@?$vector@UTeamUserData@@V?$allocator@UTeamUserData@@@std@@@std@@IBEII@Z ENDP ; std::vector<TeamUserData,std::allocator<TeamUserData> >::_Grow_to
_TEXT	ENDS
PUBLIC	?max_size@?$vector@UTeamData@@V?$allocator@UTeamData@@@std@@@std@@QBEIXZ ; std::vector<TeamData,std::allocator<TeamData> >::max_size
; Function compile flags: /Ogsp
;	COMDAT ?max_size@?$vector@UTeamData@@V?$allocator@UTeamData@@@std@@@std@@QBEIXZ
_TEXT	SEGMENT
?max_size@?$vector@UTeamData@@V?$allocator@UTeamData@@@std@@@std@@QBEIXZ PROC ; std::vector<TeamData,std::allocator<TeamData> >::max_size, COMDAT
; _this$ = ecx

; 884  : 		return (this->_Alval.max_size());

  00000	b8 5d 74 d1 05	 mov	 eax, 97612893		; 05d1745dH

; 885  : 		}

  00005	c3		 ret	 0
?max_size@?$vector@UTeamData@@V?$allocator@UTeamData@@@std@@@std@@QBEIXZ ENDP ; std::vector<TeamData,std::allocator<TeamData> >::max_size
_TEXT	ENDS
PUBLIC	?_Grow_to@?$vector@UTeamData@@V?$allocator@UTeamData@@@std@@@std@@IBEII@Z ; std::vector<TeamData,std::allocator<TeamData> >::_Grow_to
; Function compile flags: /Ogsp
;	COMDAT ?_Grow_to@?$vector@UTeamData@@V?$allocator@UTeamData@@@std@@@std@@IBEII@Z
_TEXT	SEGMENT
__Count$ = 8						; size = 4
?_Grow_to@?$vector@UTeamData@@V?$allocator@UTeamData@@@std@@@std@@IBEII@Z PROC ; std::vector<TeamData,std::allocator<TeamData> >::_Grow_to, COMDAT
; _this$ = ecx

; 1274 : 		{	// grow by 50% or at least to _Count

  00000	55		 push	 ebp
  00001	8b ec		 mov	 ebp, esp

; 1275 : 		size_type _Capacity = capacity();

  00003	8b 41 08	 mov	 eax, DWORD PTR [ecx+8]
  00006	2b 01		 sub	 eax, DWORD PTR [ecx]
  00008	6a 2c		 push	 44			; 0000002cH
  0000a	99		 cdq
  0000b	59		 pop	 ecx
  0000c	f7 f9		 idiv	 ecx

; 1276 : 
; 1277 : 		_Capacity = max_size() - _Capacity / 2 < _Capacity
; 1278 : 			? 0 : _Capacity + _Capacity / 2;	// try to grow by 50%

  0000e	ba 5d 74 d1 05	 mov	 edx, 97612893		; 05d1745dH
  00013	8b c8		 mov	 ecx, eax
  00015	d1 e9		 shr	 ecx, 1
  00017	2b d1		 sub	 edx, ecx
  00019	3b d0		 cmp	 edx, eax
  0001b	73 04		 jae	 SHORT $LN4@Grow_to@2
  0001d	33 c0		 xor	 eax, eax
  0001f	eb 02		 jmp	 SHORT $LN5@Grow_to@2
$LN4@Grow_to@2:
  00021	03 c1		 add	 eax, ecx
$LN5@Grow_to@2:

; 1279 : 		if (_Capacity < _Count)

  00023	3b 45 08	 cmp	 eax, DWORD PTR __Count$[ebp]

; 1280 : 			_Capacity = _Count;

  00026	0f 42 45 08	 cmovb	 eax, DWORD PTR __Count$[ebp]

; 1281 : 		return (_Capacity);
; 1282 : 		}

  0002a	5d		 pop	 ebp
  0002b	c2 04 00	 ret	 4
?_Grow_to@?$vector@UTeamData@@V?$allocator@UTeamData@@@std@@@std@@IBEII@Z ENDP ; std::vector<TeamData,std::allocator<TeamData> >::_Grow_to
_TEXT	ENDS
PUBLIC	?max_size@?$vector@UCheerTeamInfo@@V?$allocator@UCheerTeamInfo@@@std@@@std@@QBEIXZ ; std::vector<CheerTeamInfo,std::allocator<CheerTeamInfo> >::max_size
; Function compile flags: /Ogsp
;	COMDAT ?max_size@?$vector@UCheerTeamInfo@@V?$allocator@UCheerTeamInfo@@@std@@@std@@QBEIXZ
_TEXT	SEGMENT
?max_size@?$vector@UCheerTeamInfo@@V?$allocator@UCheerTeamInfo@@@std@@@std@@QBEIXZ PROC ; std::vector<CheerTeamInfo,std::allocator<CheerTeamInfo> >::max_size, COMDAT
; _this$ = ecx

; 884  : 		return (this->_Alval.max_size());

  00000	b8 ff ff ff 0f	 mov	 eax, 268435455		; 0fffffffH

; 885  : 		}

  00005	c3		 ret	 0
?max_size@?$vector@UCheerTeamInfo@@V?$allocator@UCheerTeamInfo@@@std@@@std@@QBEIXZ ENDP ; std::vector<CheerTeamInfo,std::allocator<CheerTeamInfo> >::max_size
_TEXT	ENDS
PUBLIC	?_Grow_to@?$vector@UCheerTeamInfo@@V?$allocator@UCheerTeamInfo@@@std@@@std@@IBEII@Z ; std::vector<CheerTeamInfo,std::allocator<CheerTeamInfo> >::_Grow_to
; Function compile flags: /Ogsp
;	COMDAT ?_Grow_to@?$vector@UCheerTeamInfo@@V?$allocator@UCheerTeamInfo@@@std@@@std@@IBEII@Z
_TEXT	SEGMENT
__Count$ = 8						; size = 4
?_Grow_to@?$vector@UCheerTeamInfo@@V?$allocator@UCheerTeamInfo@@@std@@@std@@IBEII@Z PROC ; std::vector<CheerTeamInfo,std::allocator<CheerTeamInfo> >::_Grow_to, COMDAT
; _this$ = ecx

; 1274 : 		{	// grow by 50% or at least to _Count

  00000	55		 push	 ebp
  00001	8b ec		 mov	 ebp, esp

; 1275 : 		size_type _Capacity = capacity();

  00003	8b 41 08	 mov	 eax, DWORD PTR [ecx+8]
  00006	2b 01		 sub	 eax, DWORD PTR [ecx]

; 1276 : 
; 1277 : 		_Capacity = max_size() - _Capacity / 2 < _Capacity
; 1278 : 			? 0 : _Capacity + _Capacity / 2;	// try to grow by 50%

  00008	ba ff ff ff 0f	 mov	 edx, 268435455		; 0fffffffH
  0000d	c1 f8 04	 sar	 eax, 4
  00010	8b c8		 mov	 ecx, eax
  00012	d1 e9		 shr	 ecx, 1
  00014	2b d1		 sub	 edx, ecx
  00016	3b d0		 cmp	 edx, eax
  00018	73 04		 jae	 SHORT $LN4@Grow_to@3
  0001a	33 c0		 xor	 eax, eax
  0001c	eb 02		 jmp	 SHORT $LN5@Grow_to@3
$LN4@Grow_to@3:
  0001e	03 c1		 add	 eax, ecx
$LN5@Grow_to@3:

; 1279 : 		if (_Capacity < _Count)

  00020	3b 45 08	 cmp	 eax, DWORD PTR __Count$[ebp]

; 1280 : 			_Capacity = _Count;

  00023	0f 42 45 08	 cmovb	 eax, DWORD PTR __Count$[ebp]

; 1281 : 		return (_Capacity);
; 1282 : 		}

  00027	5d		 pop	 ebp
  00028	c2 04 00	 ret	 4
?_Grow_to@?$vector@UCheerTeamInfo@@V?$allocator@UCheerTeamInfo@@@std@@@std@@IBEII@Z ENDP ; std::vector<CheerTeamInfo,std::allocator<CheerTeamInfo> >::_Grow_to
_TEXT	ENDS
PUBLIC	?allocate@?$allocator@UTeamUserData@@@std@@QAEPAUTeamUserData@@I@Z ; std::allocator<TeamUserData>::allocate
; Function compile flags: /Ogsp
; File c:\program files (x86)\microsoft visual studio 10.0\vc\include\xmemory
;	COMDAT ?allocate@?$allocator@UTeamUserData@@@std@@QAEPAUTeamUserData@@I@Z
_TEXT	SEGMENT
__Count$ = 8						; size = 4
?allocate@?$allocator@UTeamUserData@@@std@@QAEPAUTeamUserData@@I@Z PROC ; std::allocator<TeamUserData>::allocate, COMDAT
; _this$ = ecx

; 186  : 		{	// allocate array of _Count elements

  00000	55		 push	 ebp
  00001	8b ec		 mov	 ebp, esp

; 187  : 		return (_Allocate(_Count, (pointer)0));

  00003	6a 00		 push	 0
  00005	ff 75 08	 push	 DWORD PTR __Count$[ebp]
  00008	e8 00 00 00 00	 call	 ??$_Allocate@UTeamUserData@@@std@@YAPAUTeamUserData@@IPAU1@@Z ; std::_Allocate<TeamUserData>
  0000d	59		 pop	 ecx
  0000e	59		 pop	 ecx

; 188  : 		}

  0000f	5d		 pop	 ebp
  00010	c2 04 00	 ret	 4
?allocate@?$allocator@UTeamUserData@@@std@@QAEPAUTeamUserData@@I@Z ENDP ; std::allocator<TeamUserData>::allocate
_TEXT	ENDS
PUBLIC	?allocate@?$allocator@UTeamData@@@std@@QAEPAUTeamData@@I@Z ; std::allocator<TeamData>::allocate
; Function compile flags: /Ogsp
;	COMDAT ?allocate@?$allocator@UTeamData@@@std@@QAEPAUTeamData@@I@Z
_TEXT	SEGMENT
__Count$ = 8						; size = 4
?allocate@?$allocator@UTeamData@@@std@@QAEPAUTeamData@@I@Z PROC ; std::allocator<TeamData>::allocate, COMDAT
; _this$ = ecx

; 186  : 		{	// allocate array of _Count elements

  00000	55		 push	 ebp
  00001	8b ec		 mov	 ebp, esp

; 187  : 		return (_Allocate(_Count, (pointer)0));

  00003	6a 00		 push	 0
  00005	ff 75 08	 push	 DWORD PTR __Count$[ebp]
  00008	e8 00 00 00 00	 call	 ??$_Allocate@UTeamData@@@std@@YAPAUTeamData@@IPAU1@@Z ; std::_Allocate<TeamData>
  0000d	59		 pop	 ecx
  0000e	59		 pop	 ecx

; 188  : 		}

  0000f	5d		 pop	 ebp
  00010	c2 04 00	 ret	 4
?allocate@?$allocator@UTeamData@@@std@@QAEPAUTeamData@@I@Z ENDP ; std::allocator<TeamData>::allocate
_TEXT	ENDS
PUBLIC	?allocate@?$allocator@UCheerTeamInfo@@@std@@QAEPAUCheerTeamInfo@@I@Z ; std::allocator<CheerTeamInfo>::allocate
; Function compile flags: /Ogsp
;	COMDAT ?allocate@?$allocator@UCheerTeamInfo@@@std@@QAEPAUCheerTeamInfo@@I@Z
_TEXT	SEGMENT
__Count$ = 8						; size = 4
?allocate@?$allocator@UCheerTeamInfo@@@std@@QAEPAUCheerTeamInfo@@I@Z PROC ; std::allocator<CheerTeamInfo>::allocate, COMDAT
; _this$ = ecx

; 186  : 		{	// allocate array of _Count elements

  00000	55		 push	 ebp
  00001	8b ec		 mov	 ebp, esp

; 187  : 		return (_Allocate(_Count, (pointer)0));

  00003	6a 00		 push	 0
  00005	ff 75 08	 push	 DWORD PTR __Count$[ebp]
  00008	e8 00 00 00 00	 call	 ??$_Allocate@UCheerTeamInfo@@@std@@YAPAUCheerTeamInfo@@IPAU1@@Z ; std::_Allocate<CheerTeamInfo>
  0000d	59		 pop	 ecx
  0000e	59		 pop	 ecx

; 188  : 		}

  0000f	5d		 pop	 ebp
  00010	c2 04 00	 ret	 4
?allocate@?$allocator@UCheerTeamInfo@@@std@@QAEPAUCheerTeamInfo@@I@Z ENDP ; std::allocator<CheerTeamInfo>::allocate
_TEXT	ENDS
PUBLIC	??$_Cons_val@V?$allocator@UTeamUserData@@@std@@UTeamUserData@@AAU3@@std@@YAXAAV?$allocator@UTeamUserData@@@0@PAUTeamUserData@@AAU2@@Z ; std::_Cons_val<std::allocator<TeamUserData>,TeamUserData,TeamUserData &>
;	COMDAT xdata$x
; File c:\program files (x86)\microsoft visual studio 10.0\vc\include\utility
xdata$x	SEGMENT
__unwindtable$??$_Cons_val@V?$allocator@UTeamUserData@@@std@@UTeamUserData@@AAU3@@std@@YAXAAV?$allocator@UTeamUserData@@@0@PAUTeamUserData@@AAU2@@Z DD 0ffffffffH
	DD	FLAT:__unwindfunclet$??$_Cons_val@V?$allocator@UTeamUserData@@@std@@UTeamUserData@@AAU3@@std@@YAXAAV?$allocator@UTeamUserData@@@0@PAUTeamUserData@@AAU2@@Z$0
__ehfuncinfo$??$_Cons_val@V?$allocator@UTeamUserData@@@std@@UTeamUserData@@AAU3@@std@@YAXAAV?$allocator@UTeamUserData@@@0@PAUTeamUserData@@AAU2@@Z DD 019930522H
	DD	01H
	DD	FLAT:__unwindtable$??$_Cons_val@V?$allocator@UTeamUserData@@@std@@UTeamUserData@@AAU3@@std@@YAXAAV?$allocator@UTeamUserData@@@0@PAUTeamUserData@@AAU2@@Z
	DD	2 DUP(00H)
	DD	2 DUP(00H)
	DD	00H
	DD	01H
; Function compile flags: /Ogsp
; File c:\program files (x86)\microsoft visual studio 10.0\vc\include\xmemory
xdata$x	ENDS
;	COMDAT ??$_Cons_val@V?$allocator@UTeamUserData@@@std@@UTeamUserData@@AAU3@@std@@YAXAAV?$allocator@UTeamUserData@@@0@PAUTeamUserData@@AAU2@@Z
_TEXT	SEGMENT
$T511382 = -16						; size = 4
__$EHRec$ = -12						; size = 12
__Alval$ = 8						; size = 4
__Pdest$ = 12						; size = 4
__Src$ = 16						; size = 4
??$_Cons_val@V?$allocator@UTeamUserData@@@std@@UTeamUserData@@AAU3@@std@@YAXAAV?$allocator@UTeamUserData@@@0@PAUTeamUserData@@AAU2@@Z PROC ; std::_Cons_val<std::allocator<TeamUserData>,TeamUserData,TeamUserData &>, COMDAT

; 279  : 	{	// construct using allocator

  00000	6a 04		 push	 4
  00002	b8 00 00 00 00	 mov	 eax, __ehhandler$??$_Cons_val@V?$allocator@UTeamUserData@@@std@@UTeamUserData@@AAU3@@std@@YAXAAV?$allocator@UTeamUserData@@@0@PAUTeamUserData@@AAU2@@Z
  00007	e8 00 00 00 00	 call	 __EH_prolog3

; 280  : 	_Alval.construct(_Pdest, _STD forward<_Ty2>(_Src));

  0000c	8b 4d 0c	 mov	 ecx, DWORD PTR __Pdest$[ebp]
  0000f	89 4d f0	 mov	 DWORD PTR $T511382[ebp], ecx
  00012	83 65 fc 00	 and	 DWORD PTR __$EHRec$[ebp+8], 0
  00016	85 c9		 test	 ecx, ecx
  00018	74 08		 je	 SHORT $LN7@Cons_val
  0001a	ff 75 10	 push	 DWORD PTR __Src$[ebp]
  0001d	e8 00 00 00 00	 call	 ??0TeamUserData@@QAE@ABU0@@Z
$LN7@Cons_val:

; 281  : 	}

  00022	e8 00 00 00 00	 call	 __EH_epilog3
  00027	c3		 ret	 0
_TEXT	ENDS
;	COMDAT text$x
text$x	SEGMENT
__unwindfunclet$??$_Cons_val@V?$allocator@UTeamUserData@@@std@@UTeamUserData@@AAU3@@std@@YAXAAV?$allocator@UTeamUserData@@@0@PAUTeamUserData@@AAU2@@Z$0:
  00000	ff 75 0c	 push	 DWORD PTR __Pdest$[ebp]
  00003	ff 75 f0	 push	 DWORD PTR $T511382[ebp]
  00006	e8 00 00 00 00	 call	 ??3@YAXPAX0@Z		; operator delete
  0000b	59		 pop	 ecx
  0000c	59		 pop	 ecx
  0000d	c3		 ret	 0
__ehhandler$??$_Cons_val@V?$allocator@UTeamUserData@@@std@@UTeamUserData@@AAU3@@std@@YAXAAV?$allocator@UTeamUserData@@@0@PAUTeamUserData@@AAU2@@Z:
  0000e	8b 54 24 08	 mov	 edx, DWORD PTR [esp+8]
  00012	8d 42 0c	 lea	 eax, DWORD PTR [edx+12]
  00015	8b 4a ec	 mov	 ecx, DWORD PTR [edx-20]
  00018	33 c8		 xor	 ecx, eax
  0001a	e8 00 00 00 00	 call	 @__security_check_cookie@4
  0001f	b8 00 00 00 00	 mov	 eax, OFFSET __ehfuncinfo$??$_Cons_val@V?$allocator@UTeamUserData@@@std@@UTeamUserData@@AAU3@@std@@YAXAAV?$allocator@UTeamUserData@@@0@PAUTeamUserData@@AAU2@@Z
  00024	e9 00 00 00 00	 jmp	 ___CxxFrameHandler3
text$x	ENDS
??$_Cons_val@V?$allocator@UTeamUserData@@@std@@UTeamUserData@@AAU3@@std@@YAXAAV?$allocator@UTeamUserData@@@0@PAUTeamUserData@@AAU2@@Z ENDP ; std::_Cons_val<std::allocator<TeamUserData>,TeamUserData,TeamUserData &>
PUBLIC	??$_Cons_val@V?$allocator@UCheerTeamInfo@@@std@@UCheerTeamInfo@@AAU3@@std@@YAXAAV?$allocator@UCheerTeamInfo@@@0@PAUCheerTeamInfo@@AAU2@@Z ; std::_Cons_val<std::allocator<CheerTeamInfo>,CheerTeamInfo,CheerTeamInfo &>
; Function compile flags: /Ogsp
;	COMDAT ??$_Cons_val@V?$allocator@UCheerTeamInfo@@@std@@UCheerTeamInfo@@AAU3@@std@@YAXAAV?$allocator@UCheerTeamInfo@@@0@PAUCheerTeamInfo@@AAU2@@Z
_TEXT	SEGMENT
__Alval$ = 8						; size = 4
__Pdest$ = 12						; size = 4
__Src$ = 16						; size = 4
??$_Cons_val@V?$allocator@UCheerTeamInfo@@@std@@UCheerTeamInfo@@AAU3@@std@@YAXAAV?$allocator@UCheerTeamInfo@@@0@PAUCheerTeamInfo@@AAU2@@Z PROC ; std::_Cons_val<std::allocator<CheerTeamInfo>,CheerTeamInfo,CheerTeamInfo &>, COMDAT

; 279  : 	{	// construct using allocator

  00000	55		 push	 ebp
  00001	8b ec		 mov	 ebp, esp
  00003	57		 push	 edi

; 280  : 	_Alval.construct(_Pdest, _STD forward<_Ty2>(_Src));

  00004	8b 7d 0c	 mov	 edi, DWORD PTR __Pdest$[ebp]
  00007	85 ff		 test	 edi, edi
  00009	74 09		 je	 SHORT $LN7@Cons_val@2
  0000b	56		 push	 esi
  0000c	8b 75 10	 mov	 esi, DWORD PTR __Src$[ebp]
  0000f	a5		 movsd
  00010	a5		 movsd
  00011	a5		 movsd
  00012	a5		 movsd
  00013	5e		 pop	 esi
$LN7@Cons_val@2:
  00014	5f		 pop	 edi

; 281  : 	}

  00015	5d		 pop	 ebp
  00016	c3		 ret	 0
??$_Cons_val@V?$allocator@UCheerTeamInfo@@@std@@UCheerTeamInfo@@AAU3@@std@@YAXAAV?$allocator@UCheerTeamInfo@@@0@PAUCheerTeamInfo@@AAU2@@Z ENDP ; std::_Cons_val<std::allocator<CheerTeamInfo>,CheerTeamInfo,CheerTeamInfo &>
_TEXT	ENDS
PUBLIC	?construct@?$allocator@UTeamUserData@@@std@@QAEXPAUTeamUserData@@ABU3@@Z ; std::allocator<TeamUserData>::construct
; Function compile flags: /Ogsp
;	COMDAT ?construct@?$allocator@UTeamUserData@@@std@@QAEXPAUTeamUserData@@ABU3@@Z
_TEXT	SEGMENT
__Ptr$ = 8						; size = 4
__Val$ = 12						; size = 4
?construct@?$allocator@UTeamUserData@@@std@@QAEXPAUTeamUserData@@ABU3@@Z PROC ; std::allocator<TeamUserData>::construct, COMDAT
; _this$ = ecx

; 196  : 		{	// construct object at _Ptr with value _Val

  00000	55		 push	 ebp
  00001	8b ec		 mov	 ebp, esp

; 197  : 		_Construct(_Ptr, _Val);

  00003	ff 75 0c	 push	 DWORD PTR __Val$[ebp]
  00006	ff 75 08	 push	 DWORD PTR __Ptr$[ebp]
  00009	e8 00 00 00 00	 call	 ??$_Construct@UTeamUserData@@ABU1@@std@@YAXPAUTeamUserData@@ABU1@@Z ; std::_Construct<TeamUserData,TeamUserData const &>
  0000e	59		 pop	 ecx
  0000f	59		 pop	 ecx

; 198  : 		}

  00010	5d		 pop	 ebp
  00011	c2 08 00	 ret	 8
?construct@?$allocator@UTeamUserData@@@std@@QAEXPAUTeamUserData@@ABU3@@Z ENDP ; std::allocator<TeamUserData>::construct
_TEXT	ENDS
PUBLIC	?construct@?$allocator@UCheerTeamInfo@@@std@@QAEXPAUCheerTeamInfo@@ABU3@@Z ; std::allocator<CheerTeamInfo>::construct
; Function compile flags: /Ogsp
;	COMDAT ?construct@?$allocator@UCheerTeamInfo@@@std@@QAEXPAUCheerTeamInfo@@ABU3@@Z
_TEXT	SEGMENT
__Ptr$ = 8						; size = 4
__Val$ = 12						; size = 4
?construct@?$allocator@UCheerTeamInfo@@@std@@QAEXPAUCheerTeamInfo@@ABU3@@Z PROC ; std::allocator<CheerTeamInfo>::construct, COMDAT
; _this$ = ecx

; 196  : 		{	// construct object at _Ptr with value _Val

  00000	55		 push	 ebp
  00001	8b ec		 mov	 ebp, esp
  00003	57		 push	 edi

; 197  : 		_Construct(_Ptr, _Val);

  00004	8b 7d 08	 mov	 edi, DWORD PTR __Ptr$[ebp]
  00007	85 ff		 test	 edi, edi
  00009	74 09		 je	 SHORT $LN5@construct@3
  0000b	56		 push	 esi
  0000c	8b 75 0c	 mov	 esi, DWORD PTR __Val$[ebp]
  0000f	a5		 movsd
  00010	a5		 movsd
  00011	a5		 movsd
  00012	a5		 movsd
  00013	5e		 pop	 esi
$LN5@construct@3:
  00014	5f		 pop	 edi

; 198  : 		}

  00015	5d		 pop	 ebp
  00016	c2 08 00	 ret	 8
?construct@?$allocator@UCheerTeamInfo@@@std@@QAEXPAUCheerTeamInfo@@ABU3@@Z ENDP ; std::allocator<CheerTeamInfo>::construct
_TEXT	ENDS
PUBLIC	??$_Move@PAUTeamUserData@@PAU1@@std@@YAPAUTeamUserData@@PAU1@00U_Nonscalar_ptr_iterator_tag@0@@Z ; std::_Move<TeamUserData *,TeamUserData *>
; Function compile flags: /Ogsp
; File c:\program files (x86)\microsoft visual studio 10.0\vc\include\xutility
;	COMDAT ??$_Move@PAUTeamUserData@@PAU1@@std@@YAPAUTeamUserData@@PAU1@00U_Nonscalar_ptr_iterator_tag@0@@Z
_TEXT	SEGMENT
__First$ = 8						; size = 4
__Last$ = 12						; size = 4
__Dest$ = 16						; size = 4
___formal$ = 20						; size = 1
??$_Move@PAUTeamUserData@@PAU1@@std@@YAPAUTeamUserData@@PAU1@00U_Nonscalar_ptr_iterator_tag@0@@Z PROC ; std::_Move<TeamUserData *,TeamUserData *>, COMDAT

; 2512 : 	{	// move [_First, _Last) to [_Dest, ...), arbitrary iterators

  00000	55		 push	 ebp
  00001	8b ec		 mov	 ebp, esp
  00003	56		 push	 esi

; 2513 : 	for (; _First != _Last; ++_Dest, ++_First)

  00004	8b 75 08	 mov	 esi, DWORD PTR __First$[ebp]
  00007	eb 10		 jmp	 SHORT $LN11@Move
$LL3@Move:

; 2514 : 		*_Dest = _STD move(*_First);

  00009	8b 4d 10	 mov	 ecx, DWORD PTR __Dest$[ebp]
  0000c	56		 push	 esi
  0000d	e8 00 00 00 00	 call	 ??4TeamUserData@@QAEAAU0@ABU0@@Z
  00012	83 45 10 18	 add	 DWORD PTR __Dest$[ebp], 24 ; 00000018H
  00016	83 c6 18	 add	 esi, 24			; 00000018H
$LN11@Move:

; 2513 : 	for (; _First != _Last; ++_Dest, ++_First)

  00019	3b 75 0c	 cmp	 esi, DWORD PTR __Last$[ebp]
  0001c	75 eb		 jne	 SHORT $LL3@Move

; 2515 : 	return (_Dest);

  0001e	8b 45 10	 mov	 eax, DWORD PTR __Dest$[ebp]
  00021	5e		 pop	 esi

; 2516 : 	}

  00022	5d		 pop	 ebp
  00023	c3		 ret	 0
??$_Move@PAUTeamUserData@@PAU1@@std@@YAPAUTeamUserData@@PAU1@00U_Nonscalar_ptr_iterator_tag@0@@Z ENDP ; std::_Move<TeamUserData *,TeamUserData *>
_TEXT	ENDS
PUBLIC	??$_Move@PAUCheerTeamInfo@@PAU1@@std@@YAPAUCheerTeamInfo@@PAU1@00U_Nonscalar_ptr_iterator_tag@0@@Z ; std::_Move<CheerTeamInfo *,CheerTeamInfo *>
; Function compile flags: /Ogsp
;	COMDAT ??$_Move@PAUCheerTeamInfo@@PAU1@@std@@YAPAUCheerTeamInfo@@PAU1@00U_Nonscalar_ptr_iterator_tag@0@@Z
_TEXT	SEGMENT
__First$ = 8						; size = 4
__Last$ = 12						; size = 4
__Dest$ = 16						; size = 4
___formal$ = 20						; size = 1
??$_Move@PAUCheerTeamInfo@@PAU1@@std@@YAPAUCheerTeamInfo@@PAU1@00U_Nonscalar_ptr_iterator_tag@0@@Z PROC ; std::_Move<CheerTeamInfo *,CheerTeamInfo *>, COMDAT

; 2512 : 	{	// move [_First, _Last) to [_Dest, ...), arbitrary iterators

  00000	55		 push	 ebp
  00001	8b ec		 mov	 ebp, esp

; 2513 : 	for (; _First != _Last; ++_Dest, ++_First)

  00003	8b 45 08	 mov	 eax, DWORD PTR __First$[ebp]
  00006	3b 45 0c	 cmp	 eax, DWORD PTR __Last$[ebp]
  00009	74 19		 je	 SHORT $LN10@Move@2
  0000b	56		 push	 esi
  0000c	57		 push	 edi
$LL3@Move@2:

; 2514 : 		*_Dest = _STD move(*_First);

  0000d	8b 7d 10	 mov	 edi, DWORD PTR __Dest$[ebp]
  00010	83 45 10 10	 add	 DWORD PTR __Dest$[ebp], 16 ; 00000010H
  00014	8b f0		 mov	 esi, eax
  00016	a5		 movsd
  00017	a5		 movsd
  00018	a5		 movsd
  00019	83 c0 10	 add	 eax, 16			; 00000010H
  0001c	a5		 movsd
  0001d	3b 45 0c	 cmp	 eax, DWORD PTR __Last$[ebp]
  00020	75 eb		 jne	 SHORT $LL3@Move@2
  00022	5f		 pop	 edi
  00023	5e		 pop	 esi
$LN10@Move@2:

; 2515 : 	return (_Dest);

  00024	8b 45 10	 mov	 eax, DWORD PTR __Dest$[ebp]

; 2516 : 	}

  00027	5d		 pop	 ebp
  00028	c3		 ret	 0
??$_Move@PAUCheerTeamInfo@@PAU1@@std@@YAPAUCheerTeamInfo@@PAU1@00U_Nonscalar_ptr_iterator_tag@0@@Z ENDP ; std::_Move<CheerTeamInfo *,CheerTeamInfo *>
_TEXT	ENDS
PUBLIC	?_Buy@?$vector@UTeamUserData@@V?$allocator@UTeamUserData@@@std@@@std@@IAE_NI@Z ; std::vector<TeamUserData,std::allocator<TeamUserData> >::_Buy
; Function compile flags: /Ogsp
; File c:\program files (x86)\microsoft visual studio 10.0\vc\include\vector
;	COMDAT ?_Buy@?$vector@UTeamUserData@@V?$allocator@UTeamUserData@@@std@@@std@@IAE_NI@Z
_TEXT	SEGMENT
__Capacity$ = 8						; size = 4
?_Buy@?$vector@UTeamUserData@@V?$allocator@UTeamUserData@@@std@@@std@@IAE_NI@Z PROC ; std::vector<TeamUserData,std::allocator<TeamUserData> >::_Buy, COMDAT
; _this$ = ecx

; 1250 : 		{	// allocate array with _Capacity elements

  00000	55		 push	 ebp
  00001	8b ec		 mov	 ebp, esp
  00003	56		 push	 esi

; 1251 : 		this->_Myfirst = 0;

  00004	33 c0		 xor	 eax, eax
  00006	57		 push	 edi

; 1252 : 		this->_Mylast = 0;
; 1253 : 		this->_Myend = 0;
; 1254 : 
; 1255 : 		if (_Capacity == 0)

  00007	8b 7d 08	 mov	 edi, DWORD PTR __Capacity$[ebp]
  0000a	8b f1		 mov	 esi, ecx
  0000c	89 06		 mov	 DWORD PTR [esi], eax
  0000e	89 46 04	 mov	 DWORD PTR [esi+4], eax
  00011	89 46 08	 mov	 DWORD PTR [esi+8], eax
  00014	3b f8		 cmp	 edi, eax
  00016	75 04		 jne	 SHORT $LN4@Buy

; 1256 : 			return (false);

  00018	32 c0		 xor	 al, al
  0001a	eb 2b		 jmp	 SHORT $LN5@Buy
$LN4@Buy:

; 1257 : 		else if (max_size() < _Capacity)

  0001c	81 ff aa aa aa
	0a		 cmp	 edi, 178956970		; 0aaaaaaaH
  00022	76 0b		 jbe	 SHORT $LN2@Buy

; 1258 : 			_Xlen();	// result too long

  00024	68 00 00 00 00	 push	 OFFSET ??_C@_0BD@OLBABOEK@vector?$DMT?$DO?5too?5long?$AA@
  00029	ff 15 00 00 00
	00		 call	 DWORD PTR __imp_?_Xlength_error@std@@YAXPBD@Z
$LN19@Buy:
$LN2@Buy:

; 1259 : 		else
; 1260 : 			{	// nonempty array, allocate storage
; 1261 : 			this->_Myfirst = this->_Alval.allocate(_Capacity);

  0002f	50		 push	 eax
  00030	57		 push	 edi
  00031	e8 00 00 00 00	 call	 ??$_Allocate@UTeamUserData@@@std@@YAPAUTeamUserData@@IPAU1@@Z ; std::_Allocate<TeamUserData>

; 1262 : 			this->_Mylast = this->_Myfirst;
; 1263 : 			this->_Myend = this->_Myfirst + _Capacity;

  00036	6b ff 18	 imul	 edi, 24			; 00000018H
  00039	03 f8		 add	 edi, eax
  0003b	59		 pop	 ecx
  0003c	89 06		 mov	 DWORD PTR [esi], eax
  0003e	89 46 04	 mov	 DWORD PTR [esi+4], eax
  00041	59		 pop	 ecx
  00042	89 7e 08	 mov	 DWORD PTR [esi+8], edi

; 1264 : 			}
; 1265 : 		return (true);

  00045	b0 01		 mov	 al, 1
$LN5@Buy:
  00047	5f		 pop	 edi
  00048	5e		 pop	 esi

; 1266 : 		}

  00049	5d		 pop	 ebp
  0004a	c2 04 00	 ret	 4
$LN18@Buy:
?_Buy@?$vector@UTeamUserData@@V?$allocator@UTeamUserData@@@std@@@std@@IAE_NI@Z ENDP ; std::vector<TeamUserData,std::allocator<TeamUserData> >::_Buy
_TEXT	ENDS
PUBLIC	??$_Copy_impl@PAUTeamUserData@@PAU1@@std@@YAPAUTeamUserData@@PAU1@00@Z ; std::_Copy_impl<TeamUserData *,TeamUserData *>
; Function compile flags: /Ogsp
; File c:\program files (x86)\microsoft visual studio 10.0\vc\include\xutility
;	COMDAT ??$_Copy_impl@PAUTeamUserData@@PAU1@@std@@YAPAUTeamUserData@@PAU1@00@Z
_TEXT	SEGMENT
__Cat$511498 = -4					; size = 1
__First$ = 8						; size = 4
__Last$ = 12						; size = 4
__Dest$ = 16						; size = 4
??$_Copy_impl@PAUTeamUserData@@PAU1@@std@@YAPAUTeamUserData@@PAU1@00@Z PROC ; std::_Copy_impl<TeamUserData *,TeamUserData *>, COMDAT

; 2163 : 	{	// copy [_First, _Last) to [_Dest, ...)

  00000	55		 push	 ebp
  00001	8b ec		 mov	 ebp, esp
  00003	51		 push	 ecx

; 2164 : 	return (_Copy_impl(_First, _Last,
; 2165 : 		_Dest, _Ptr_cat(_First, _Dest)));

  00004	ff 75 fc	 push	 DWORD PTR __Cat$511498[ebp]
  00007	ff 75 10	 push	 DWORD PTR __Dest$[ebp]
  0000a	ff 75 0c	 push	 DWORD PTR __Last$[ebp]
  0000d	ff 75 08	 push	 DWORD PTR __First$[ebp]
  00010	e8 00 00 00 00	 call	 ??$_Copy_impl@PAUTeamUserData@@PAU1@@std@@YAPAUTeamUserData@@PAU1@00U_Nonscalar_ptr_iterator_tag@0@@Z ; std::_Copy_impl<TeamUserData *,TeamUserData *>
  00015	83 c4 10	 add	 esp, 16			; 00000010H

; 2166 : 	}

  00018	c9		 leave
  00019	c3		 ret	 0
??$_Copy_impl@PAUTeamUserData@@PAU1@@std@@YAPAUTeamUserData@@PAU1@00@Z ENDP ; std::_Copy_impl<TeamUserData *,TeamUserData *>
_TEXT	ENDS
PUBLIC	?destroy@?$allocator@UCheerTeamInfo@@@std@@QAEXPAUCheerTeamInfo@@@Z ; std::allocator<CheerTeamInfo>::destroy
; Function compile flags: /Ogsp
; File c:\program files (x86)\microsoft visual studio 10.0\vc\include\xmemory
;	COMDAT ?destroy@?$allocator@UCheerTeamInfo@@@std@@QAEXPAUCheerTeamInfo@@@Z
_TEXT	SEGMENT
__Ptr$ = 8						; size = 4
?destroy@?$allocator@UCheerTeamInfo@@@std@@QAEXPAUCheerTeamInfo@@@Z PROC ; std::allocator<CheerTeamInfo>::destroy, COMDAT
; _this$ = ecx

; 213  : 		_Destroy(_Ptr);
; 214  : 		}

  00000	c2 04 00	 ret	 4
?destroy@?$allocator@UCheerTeamInfo@@@std@@QAEXPAUCheerTeamInfo@@@Z ENDP ; std::allocator<CheerTeamInfo>::destroy
_TEXT	ENDS
PUBLIC	?construct@?$allocator@UTeamUserData@@@std@@QAEXPAUTeamUserData@@$$QAU3@@Z ; std::allocator<TeamUserData>::construct
;	COMDAT xdata$x
; File c:\program files (x86)\microsoft visual studio 10.0\vc\include\utility
xdata$x	SEGMENT
__unwindtable$?construct@?$allocator@UTeamUserData@@@std@@QAEXPAUTeamUserData@@$$QAU3@@Z DD 0ffffffffH
	DD	FLAT:__unwindfunclet$?construct@?$allocator@UTeamUserData@@@std@@QAEXPAUTeamUserData@@$$QAU3@@Z$0
__ehfuncinfo$?construct@?$allocator@UTeamUserData@@@std@@QAEXPAUTeamUserData@@$$QAU3@@Z DD 019930522H
	DD	01H
	DD	FLAT:__unwindtable$?construct@?$allocator@UTeamUserData@@@std@@QAEXPAUTeamUserData@@$$QAU3@@Z
	DD	2 DUP(00H)
	DD	2 DUP(00H)
	DD	00H
	DD	01H
; Function compile flags: /Ogsp
; File c:\program files (x86)\microsoft visual studio 10.0\vc\include\xmemory
xdata$x	ENDS
;	COMDAT ?construct@?$allocator@UTeamUserData@@@std@@QAEXPAUTeamUserData@@$$QAU3@@Z
_TEXT	SEGMENT
$T511508 = -16						; size = 4
__$EHRec$ = -12						; size = 12
__Ptr$ = 8						; size = 4
__Val$ = 12						; size = 4
?construct@?$allocator@UTeamUserData@@@std@@QAEXPAUTeamUserData@@$$QAU3@@Z PROC ; std::allocator<TeamUserData>::construct, COMDAT
; _this$ = ecx

; 201  : 		{	// construct object at _Ptr with value _Val

  00000	6a 04		 push	 4
  00002	b8 00 00 00 00	 mov	 eax, __ehhandler$?construct@?$allocator@UTeamUserData@@@std@@QAEXPAUTeamUserData@@$$QAU3@@Z
  00007	e8 00 00 00 00	 call	 __EH_prolog3

; 202  : 		::new ((void _FARQ *)_Ptr) _Ty(_STD forward<_Ty>(_Val));

  0000c	8b 4d 08	 mov	 ecx, DWORD PTR __Ptr$[ebp]
  0000f	89 4d f0	 mov	 DWORD PTR $T511508[ebp], ecx
  00012	83 65 fc 00	 and	 DWORD PTR __$EHRec$[ebp+8], 0
  00016	85 c9		 test	 ecx, ecx
  00018	74 08		 je	 SHORT $LN3@construct@4
  0001a	ff 75 0c	 push	 DWORD PTR __Val$[ebp]
  0001d	e8 00 00 00 00	 call	 ??0TeamUserData@@QAE@ABU0@@Z
$LN3@construct@4:

; 203  : 		}

  00022	e8 00 00 00 00	 call	 __EH_epilog3
  00027	c2 08 00	 ret	 8
_TEXT	ENDS
;	COMDAT text$x
text$x	SEGMENT
__unwindfunclet$?construct@?$allocator@UTeamUserData@@@std@@QAEXPAUTeamUserData@@$$QAU3@@Z$0:
  00000	ff 75 08	 push	 DWORD PTR __Ptr$[ebp]
  00003	ff 75 f0	 push	 DWORD PTR $T511508[ebp]
  00006	e8 00 00 00 00	 call	 ??3@YAXPAX0@Z		; operator delete
  0000b	59		 pop	 ecx
  0000c	59		 pop	 ecx
  0000d	c3		 ret	 0
__ehhandler$?construct@?$allocator@UTeamUserData@@@std@@QAEXPAUTeamUserData@@$$QAU3@@Z:
  0000e	8b 54 24 08	 mov	 edx, DWORD PTR [esp+8]
  00012	8d 42 0c	 lea	 eax, DWORD PTR [edx+12]
  00015	8b 4a ec	 mov	 ecx, DWORD PTR [edx-20]
  00018	33 c8		 xor	 ecx, eax
  0001a	e8 00 00 00 00	 call	 @__security_check_cookie@4
  0001f	b8 00 00 00 00	 mov	 eax, OFFSET __ehfuncinfo$?construct@?$allocator@UTeamUserData@@@std@@QAEXPAUTeamUserData@@$$QAU3@@Z
  00024	e9 00 00 00 00	 jmp	 ___CxxFrameHandler3
text$x	ENDS
?construct@?$allocator@UTeamUserData@@@std@@QAEXPAUTeamUserData@@$$QAU3@@Z ENDP ; std::allocator<TeamUserData>::construct
PUBLIC	?construct@?$allocator@UCheerTeamInfo@@@std@@QAEXPAUCheerTeamInfo@@$$QAU3@@Z ; std::allocator<CheerTeamInfo>::construct
; Function compile flags: /Ogsp
;	COMDAT ?construct@?$allocator@UCheerTeamInfo@@@std@@QAEXPAUCheerTeamInfo@@$$QAU3@@Z
_TEXT	SEGMENT
__Ptr$ = 8						; size = 4
__Val$ = 12						; size = 4
?construct@?$allocator@UCheerTeamInfo@@@std@@QAEXPAUCheerTeamInfo@@$$QAU3@@Z PROC ; std::allocator<CheerTeamInfo>::construct, COMDAT
; _this$ = ecx

; 201  : 		{	// construct object at _Ptr with value _Val

  00000	55		 push	 ebp
  00001	8b ec		 mov	 ebp, esp
  00003	57		 push	 edi

; 202  : 		::new ((void _FARQ *)_Ptr) _Ty(_STD forward<_Ty>(_Val));

  00004	8b 7d 08	 mov	 edi, DWORD PTR __Ptr$[ebp]
  00007	85 ff		 test	 edi, edi
  00009	74 09		 je	 SHORT $LN3@construct@5
  0000b	56		 push	 esi
  0000c	8b 75 0c	 mov	 esi, DWORD PTR __Val$[ebp]
  0000f	a5		 movsd
  00010	a5		 movsd
  00011	a5		 movsd
  00012	a5		 movsd
  00013	5e		 pop	 esi
$LN3@construct@5:
  00014	5f		 pop	 edi

; 203  : 		}

  00015	5d		 pop	 ebp
  00016	c2 08 00	 ret	 8
?construct@?$allocator@UCheerTeamInfo@@@std@@QAEXPAUCheerTeamInfo@@$$QAU3@@Z ENDP ; std::allocator<CheerTeamInfo>::construct
_TEXT	ENDS
PUBLIC	??0?$_Vector_val@UTeamUserData@@V?$allocator@UTeamUserData@@@std@@@std@@QAE@V?$allocator@UTeamUserData@@@1@@Z ; std::_Vector_val<TeamUserData,std::allocator<TeamUserData> >::_Vector_val<TeamUserData,std::allocator<TeamUserData> >
; Function compile flags: /Ogsp
; File c:\program files (x86)\microsoft visual studio 10.0\vc\include\vector
;	COMDAT ??0?$_Vector_val@UTeamUserData@@V?$allocator@UTeamUserData@@@std@@@std@@QAE@V?$allocator@UTeamUserData@@@1@@Z
_TEXT	SEGMENT
__Al$ = 8						; size = 1
??0?$_Vector_val@UTeamUserData@@V?$allocator@UTeamUserData@@@std@@@std@@QAE@V?$allocator@UTeamUserData@@@1@@Z PROC ; std::_Vector_val<TeamUserData,std::allocator<TeamUserData> >::_Vector_val<TeamUserData,std::allocator<TeamUserData> >, COMDAT
; _this$ = ecx

; 426  : 		{	// construct allocator from _Al

  00000	8b c1		 mov	 eax, ecx

; 427  : 		_Myfirst = 0;

  00002	33 c9		 xor	 ecx, ecx
  00004	89 08		 mov	 DWORD PTR [eax], ecx

; 428  : 		_Mylast = 0;

  00006	89 48 04	 mov	 DWORD PTR [eax+4], ecx

; 429  : 		_Myend = 0;

  00009	89 48 08	 mov	 DWORD PTR [eax+8], ecx

; 430  : 		}

  0000c	c2 04 00	 ret	 4
??0?$_Vector_val@UTeamUserData@@V?$allocator@UTeamUserData@@@std@@@std@@QAE@V?$allocator@UTeamUserData@@@1@@Z ENDP ; std::_Vector_val<TeamUserData,std::allocator<TeamUserData> >::_Vector_val<TeamUserData,std::allocator<TeamUserData> >
_TEXT	ENDS
PUBLIC	??_GTeamUserData@@QAEPAXI@Z			; TeamUserData::`scalar deleting destructor'
; Function compile flags: /Ogsp
;	COMDAT ??_GTeamUserData@@QAEPAXI@Z
_TEXT	SEGMENT
___flags$ = 8						; size = 4
??_GTeamUserData@@QAEPAXI@Z PROC			; TeamUserData::`scalar deleting destructor', COMDAT
; _this$ = ecx
  00000	55		 push	 ebp
  00001	8b ec		 mov	 ebp, esp
  00003	56		 push	 esi
  00004	8b f1		 mov	 esi, ecx
  00006	8d 4e 08	 lea	 ecx, DWORD PTR [esi+8]
  00009	ff 15 00 00 00
	00		 call	 DWORD PTR __imp_??1ioHashString@@QAE@XZ
  0000f	f6 45 08 01	 test	 BYTE PTR ___flags$[ebp], 1
  00013	74 07		 je	 SHORT $LN1@scalar@2
  00015	56		 push	 esi
  00016	e8 00 00 00 00	 call	 ??3@YAXPAX@Z		; operator delete
  0001b	59		 pop	 ecx
$LN1@scalar@2:
  0001c	8b c6		 mov	 eax, esi
  0001e	5e		 pop	 esi
  0001f	5d		 pop	 ebp
  00020	c2 04 00	 ret	 4
??_GTeamUserData@@QAEPAXI@Z ENDP			; TeamUserData::`scalar deleting destructor'
_TEXT	ENDS
PUBLIC	?begin@?$vector@UTeamUserData@@V?$allocator@UTeamUserData@@@std@@@std@@QAE?AV?$_Vector_iterator@V?$_Vector_val@UTeamUserData@@V?$allocator@UTeamUserData@@@std@@@std@@@2@XZ ; std::vector<TeamUserData,std::allocator<TeamUserData> >::begin
; Function compile flags: /Ogsp
;	COMDAT ?begin@?$vector@UTeamUserData@@V?$allocator@UTeamUserData@@@std@@@std@@QAE?AV?$_Vector_iterator@V?$_Vector_val@UTeamUserData@@V?$allocator@UTeamUserData@@@std@@@std@@@2@XZ
_TEXT	SEGMENT
___$ReturnUdt$ = 8					; size = 4
?begin@?$vector@UTeamUserData@@V?$allocator@UTeamUserData@@@std@@@std@@QAE?AV?$_Vector_iterator@V?$_Vector_val@UTeamUserData@@V?$allocator@UTeamUserData@@@std@@@std@@@2@XZ PROC ; std::vector<TeamUserData,std::allocator<TeamUserData> >::begin, COMDAT
; _this$ = ecx

; 781  : 		{	// return iterator for beginning of mutable sequence

  00000	55		 push	 ebp
  00001	8b ec		 mov	 ebp, esp

; 782  : 		return (iterator(this->_Myfirst, this));

  00003	8b 09		 mov	 ecx, DWORD PTR [ecx]
  00005	8b 45 08	 mov	 eax, DWORD PTR ___$ReturnUdt$[ebp]
  00008	89 08		 mov	 DWORD PTR [eax], ecx

; 783  : 		}

  0000a	5d		 pop	 ebp
  0000b	c2 04 00	 ret	 4
?begin@?$vector@UTeamUserData@@V?$allocator@UTeamUserData@@@std@@@std@@QAE?AV?$_Vector_iterator@V?$_Vector_val@UTeamUserData@@V?$allocator@UTeamUserData@@@std@@@std@@@2@XZ ENDP ; std::vector<TeamUserData,std::allocator<TeamUserData> >::begin
_TEXT	ENDS
PUBLIC	?end@?$vector@UTeamUserData@@V?$allocator@UTeamUserData@@@std@@@std@@QAE?AV?$_Vector_iterator@V?$_Vector_val@UTeamUserData@@V?$allocator@UTeamUserData@@@std@@@std@@@2@XZ ; std::vector<TeamUserData,std::allocator<TeamUserData> >::end
; Function compile flags: /Ogsp
;	COMDAT ?end@?$vector@UTeamUserData@@V?$allocator@UTeamUserData@@@std@@@std@@QAE?AV?$_Vector_iterator@V?$_Vector_val@UTeamUserData@@V?$allocator@UTeamUserData@@@std@@@std@@@2@XZ
_TEXT	SEGMENT
___$ReturnUdt$ = 8					; size = 4
?end@?$vector@UTeamUserData@@V?$allocator@UTeamUserData@@@std@@@std@@QAE?AV?$_Vector_iterator@V?$_Vector_val@UTeamUserData@@V?$allocator@UTeamUserData@@@std@@@std@@@2@XZ PROC ; std::vector<TeamUserData,std::allocator<TeamUserData> >::end, COMDAT
; _this$ = ecx

; 791  : 		{	// return iterator for end of mutable sequence

  00000	55		 push	 ebp
  00001	8b ec		 mov	 ebp, esp

; 792  : 		return (iterator(this->_Mylast, this));

  00003	8b 49 04	 mov	 ecx, DWORD PTR [ecx+4]
  00006	8b 45 08	 mov	 eax, DWORD PTR ___$ReturnUdt$[ebp]
  00009	89 08		 mov	 DWORD PTR [eax], ecx

; 793  : 		}

  0000b	5d		 pop	 ebp
  0000c	c2 04 00	 ret	 4
?end@?$vector@UTeamUserData@@V?$allocator@UTeamUserData@@@std@@@std@@QAE?AV?$_Vector_iterator@V?$_Vector_val@UTeamUserData@@V?$allocator@UTeamUserData@@@std@@@std@@@2@XZ ENDP ; std::vector<TeamUserData,std::allocator<TeamUserData> >::end
_TEXT	ENDS
PUBLIC	??0?$vector@UTeamData@@V?$allocator@UTeamData@@@std@@@std@@QAE@XZ ; std::vector<TeamData,std::allocator<TeamData> >::vector<TeamData,std::allocator<TeamData> >
; Function compile flags: /Ogsp
;	COMDAT ??0?$vector@UTeamData@@V?$allocator@UTeamData@@@std@@@std@@QAE@XZ
_TEXT	SEGMENT
??0?$vector@UTeamData@@V?$allocator@UTeamData@@@std@@@std@@QAE@XZ PROC ; std::vector<TeamData,std::allocator<TeamData> >::vector<TeamData,std::allocator<TeamData> >, COMDAT
; _this$ = ecx

; 507  : 		{	// construct empty vector

  00000	8b c1		 mov	 eax, ecx
  00002	33 c9		 xor	 ecx, ecx
  00004	89 08		 mov	 DWORD PTR [eax], ecx
  00006	89 48 04	 mov	 DWORD PTR [eax+4], ecx
  00009	89 48 08	 mov	 DWORD PTR [eax+8], ecx

; 508  : 		}

  0000c	c3		 ret	 0
??0?$vector@UTeamData@@V?$allocator@UTeamData@@@std@@@std@@QAE@XZ ENDP ; std::vector<TeamData,std::allocator<TeamData> >::vector<TeamData,std::allocator<TeamData> >
_TEXT	ENDS
PUBLIC	?begin@?$vector@UTeamData@@V?$allocator@UTeamData@@@std@@@std@@QAE?AV?$_Vector_iterator@V?$_Vector_val@UTeamData@@V?$allocator@UTeamData@@@std@@@std@@@2@XZ ; std::vector<TeamData,std::allocator<TeamData> >::begin
; Function compile flags: /Ogsp
;	COMDAT ?begin@?$vector@UTeamData@@V?$allocator@UTeamData@@@std@@@std@@QAE?AV?$_Vector_iterator@V?$_Vector_val@UTeamData@@V?$allocator@UTeamData@@@std@@@std@@@2@XZ
_TEXT	SEGMENT
___$ReturnUdt$ = 8					; size = 4
?begin@?$vector@UTeamData@@V?$allocator@UTeamData@@@std@@@std@@QAE?AV?$_Vector_iterator@V?$_Vector_val@UTeamData@@V?$allocator@UTeamData@@@std@@@std@@@2@XZ PROC ; std::vector<TeamData,std::allocator<TeamData> >::begin, COMDAT
; _this$ = ecx

; 781  : 		{	// return iterator for beginning of mutable sequence

  00000	55		 push	 ebp
  00001	8b ec		 mov	 ebp, esp

; 782  : 		return (iterator(this->_Myfirst, this));

  00003	8b 09		 mov	 ecx, DWORD PTR [ecx]
  00005	8b 45 08	 mov	 eax, DWORD PTR ___$ReturnUdt$[ebp]
  00008	89 08		 mov	 DWORD PTR [eax], ecx

; 783  : 		}

  0000a	5d		 pop	 ebp
  0000b	c2 04 00	 ret	 4
?begin@?$vector@UTeamData@@V?$allocator@UTeamData@@@std@@@std@@QAE?AV?$_Vector_iterator@V?$_Vector_val@UTeamData@@V?$allocator@UTeamData@@@std@@@std@@@2@XZ ENDP ; std::vector<TeamData,std::allocator<TeamData> >::begin
_TEXT	ENDS
PUBLIC	?end@?$vector@UTeamData@@V?$allocator@UTeamData@@@std@@@std@@QAE?AV?$_Vector_iterator@V?$_Vector_val@UTeamData@@V?$allocator@UTeamData@@@std@@@std@@@2@XZ ; std::vector<TeamData,std::allocator<TeamData> >::end
; Function compile flags: /Ogsp
;	COMDAT ?end@?$vector@UTeamData@@V?$allocator@UTeamData@@@std@@@std@@QAE?AV?$_Vector_iterator@V?$_Vector_val@UTeamData@@V?$allocator@UTeamData@@@std@@@std@@@2@XZ
_TEXT	SEGMENT
___$ReturnUdt$ = 8					; size = 4
?end@?$vector@UTeamData@@V?$allocator@UTeamData@@@std@@@std@@QAE?AV?$_Vector_iterator@V?$_Vector_val@UTeamData@@V?$allocator@UTeamData@@@std@@@std@@@2@XZ PROC ; std::vector<TeamData,std::allocator<TeamData> >::end, COMDAT
; _this$ = ecx

; 791  : 		{	// return iterator for end of mutable sequence

  00000	55		 push	 ebp
  00001	8b ec		 mov	 ebp, esp

; 792  : 		return (iterator(this->_Mylast, this));

  00003	8b 49 04	 mov	 ecx, DWORD PTR [ecx+4]
  00006	8b 45 08	 mov	 eax, DWORD PTR ___$ReturnUdt$[ebp]
  00009	89 08		 mov	 DWORD PTR [eax], ecx

; 793  : 		}

  0000b	5d		 pop	 ebp
  0000c	c2 04 00	 ret	 4
?end@?$vector@UTeamData@@V?$allocator@UTeamData@@@std@@@std@@QAE?AV?$_Vector_iterator@V?$_Vector_val@UTeamData@@V?$allocator@UTeamData@@@std@@@std@@@2@XZ ENDP ; std::vector<TeamData,std::allocator<TeamData> >::end
_TEXT	ENDS
PUBLIC	??0?$vector@UCheerTeamInfo@@V?$allocator@UCheerTeamInfo@@@std@@@std@@QAE@XZ ; std::vector<CheerTeamInfo,std::allocator<CheerTeamInfo> >::vector<CheerTeamInfo,std::allocator<CheerTeamInfo> >
; Function compile flags: /Ogsp
;	COMDAT ??0?$vector@UCheerTeamInfo@@V?$allocator@UCheerTeamInfo@@@std@@@std@@QAE@XZ
_TEXT	SEGMENT
??0?$vector@UCheerTeamInfo@@V?$allocator@UCheerTeamInfo@@@std@@@std@@QAE@XZ PROC ; std::vector<CheerTeamInfo,std::allocator<CheerTeamInfo> >::vector<CheerTeamInfo,std::allocator<CheerTeamInfo> >, COMDAT
; _this$ = ecx

; 507  : 		{	// construct empty vector

  00000	8b c1		 mov	 eax, ecx
  00002	33 c9		 xor	 ecx, ecx
  00004	89 08		 mov	 DWORD PTR [eax], ecx
  00006	89 48 04	 mov	 DWORD PTR [eax+4], ecx
  00009	89 48 08	 mov	 DWORD PTR [eax+8], ecx

; 508  : 		}

  0000c	c3		 ret	 0
??0?$vector@UCheerTeamInfo@@V?$allocator@UCheerTeamInfo@@@std@@@std@@QAE@XZ ENDP ; std::vector<CheerTeamInfo,std::allocator<CheerTeamInfo> >::vector<CheerTeamInfo,std::allocator<CheerTeamInfo> >
_TEXT	ENDS
PUBLIC	?begin@?$vector@UCheerTeamInfo@@V?$allocator@UCheerTeamInfo@@@std@@@std@@QAE?AV?$_Vector_iterator@V?$_Vector_val@UCheerTeamInfo@@V?$allocator@UCheerTeamInfo@@@std@@@std@@@2@XZ ; std::vector<CheerTeamInfo,std::allocator<CheerTeamInfo> >::begin
; Function compile flags: /Ogsp
;	COMDAT ?begin@?$vector@UCheerTeamInfo@@V?$allocator@UCheerTeamInfo@@@std@@@std@@QAE?AV?$_Vector_iterator@V?$_Vector_val@UCheerTeamInfo@@V?$allocator@UCheerTeamInfo@@@std@@@std@@@2@XZ
_TEXT	SEGMENT
___$ReturnUdt$ = 8					; size = 4
?begin@?$vector@UCheerTeamInfo@@V?$allocator@UCheerTeamInfo@@@std@@@std@@QAE?AV?$_Vector_iterator@V?$_Vector_val@UCheerTeamInfo@@V?$allocator@UCheerTeamInfo@@@std@@@std@@@2@XZ PROC ; std::vector<CheerTeamInfo,std::allocator<CheerTeamInfo> >::begin, COMDAT
; _this$ = ecx

; 781  : 		{	// return iterator for beginning of mutable sequence

  00000	55		 push	 ebp
  00001	8b ec		 mov	 ebp, esp

; 782  : 		return (iterator(this->_Myfirst, this));

  00003	8b 09		 mov	 ecx, DWORD PTR [ecx]
  00005	8b 45 08	 mov	 eax, DWORD PTR ___$ReturnUdt$[ebp]
  00008	89 08		 mov	 DWORD PTR [eax], ecx

; 783  : 		}

  0000a	5d		 pop	 ebp
  0000b	c2 04 00	 ret	 4
?begin@?$vector@UCheerTeamInfo@@V?$allocator@UCheerTeamInfo@@@std@@@std@@QAE?AV?$_Vector_iterator@V?$_Vector_val@UCheerTeamInfo@@V?$allocator@UCheerTeamInfo@@@std@@@std@@@2@XZ ENDP ; std::vector<CheerTeamInfo,std::allocator<CheerTeamInfo> >::begin
_TEXT	ENDS
PUBLIC	?end@?$vector@UCheerTeamInfo@@V?$allocator@UCheerTeamInfo@@@std@@@std@@QAE?AV?$_Vector_iterator@V?$_Vector_val@UCheerTeamInfo@@V?$allocator@UCheerTeamInfo@@@std@@@std@@@2@XZ ; std::vector<CheerTeamInfo,std::allocator<CheerTeamInfo> >::end
; Function compile flags: /Ogsp
;	COMDAT ?end@?$vector@UCheerTeamInfo@@V?$allocator@UCheerTeamInfo@@@std@@@std@@QAE?AV?$_Vector_iterator@V?$_Vector_val@UCheerTeamInfo@@V?$allocator@UCheerTeamInfo@@@std@@@std@@@2@XZ
_TEXT	SEGMENT
___$ReturnUdt$ = 8					; size = 4
?end@?$vector@UCheerTeamInfo@@V?$allocator@UCheerTeamInfo@@@std@@@std@@QAE?AV?$_Vector_iterator@V?$_Vector_val@UCheerTeamInfo@@V?$allocator@UCheerTeamInfo@@@std@@@std@@@2@XZ PROC ; std::vector<CheerTeamInfo,std::allocator<CheerTeamInfo> >::end, COMDAT
; _this$ = ecx

; 791  : 		{	// return iterator for end of mutable sequence

  00000	55		 push	 ebp
  00001	8b ec		 mov	 ebp, esp

; 792  : 		return (iterator(this->_Mylast, this));

  00003	8b 49 04	 mov	 ecx, DWORD PTR [ecx+4]
  00006	8b 45 08	 mov	 eax, DWORD PTR ___$ReturnUdt$[ebp]
  00009	89 08		 mov	 DWORD PTR [eax], ecx

; 793  : 		}

  0000b	5d		 pop	 ebp
  0000c	c2 04 00	 ret	 4
?end@?$vector@UCheerTeamInfo@@V?$allocator@UCheerTeamInfo@@@std@@@std@@QAE?AV?$_Vector_iterator@V?$_Vector_val@UCheerTeamInfo@@V?$allocator@UCheerTeamInfo@@@std@@@std@@@2@XZ ENDP ; std::vector<CheerTeamInfo,std::allocator<CheerTeamInfo> >::end
_TEXT	ENDS
PUBLIC	??9?$_Vector_const_iterator@V?$_Vector_val@UTeamData@@V?$allocator@UTeamData@@@std@@@std@@@std@@QBE_NABV01@@Z ; std::_Vector_const_iterator<std::_Vector_val<TeamData,std::allocator<TeamData> > >::operator!=
; Function compile flags: /Ogsp
;	COMDAT ??9?$_Vector_const_iterator@V?$_Vector_val@UTeamData@@V?$allocator@UTeamData@@@std@@@std@@@std@@QBE_NABV01@@Z
_TEXT	SEGMENT
__Right$ = 8						; size = 4
??9?$_Vector_const_iterator@V?$_Vector_val@UTeamData@@V?$allocator@UTeamData@@@std@@@std@@@std@@QBE_NABV01@@Z PROC ; std::_Vector_const_iterator<std::_Vector_val<TeamData,std::allocator<TeamData> > >::operator!=, COMDAT
; _this$ = ecx

; 207  : 		{	// test for iterator inequality

  00000	55		 push	 ebp
  00001	8b ec		 mov	 ebp, esp

; 208  : 		return (!(*this == _Right));

  00003	8b 01		 mov	 eax, DWORD PTR [ecx]
  00005	8b 55 08	 mov	 edx, DWORD PTR __Right$[ebp]
  00008	33 c9		 xor	 ecx, ecx
  0000a	3b 02		 cmp	 eax, DWORD PTR [edx]
  0000c	0f 95 c0	 setne	 al

; 209  : 		}

  0000f	5d		 pop	 ebp
  00010	c2 04 00	 ret	 4
??9?$_Vector_const_iterator@V?$_Vector_val@UTeamData@@V?$allocator@UTeamData@@@std@@@std@@@std@@QBE_NABV01@@Z ENDP ; std::_Vector_const_iterator<std::_Vector_val<TeamData,std::allocator<TeamData> > >::operator!=
_TEXT	ENDS
PUBLIC	??9?$_Vector_const_iterator@V?$_Vector_val@UTeamUserData@@V?$allocator@UTeamUserData@@@std@@@std@@@std@@QBE_NABV01@@Z ; std::_Vector_const_iterator<std::_Vector_val<TeamUserData,std::allocator<TeamUserData> > >::operator!=
; Function compile flags: /Ogsp
;	COMDAT ??9?$_Vector_const_iterator@V?$_Vector_val@UTeamUserData@@V?$allocator@UTeamUserData@@@std@@@std@@@std@@QBE_NABV01@@Z
_TEXT	SEGMENT
__Right$ = 8						; size = 4
??9?$_Vector_const_iterator@V?$_Vector_val@UTeamUserData@@V?$allocator@UTeamUserData@@@std@@@std@@@std@@QBE_NABV01@@Z PROC ; std::_Vector_const_iterator<std::_Vector_val<TeamUserData,std::allocator<TeamUserData> > >::operator!=, COMDAT
; _this$ = ecx

; 207  : 		{	// test for iterator inequality

  00000	55		 push	 ebp
  00001	8b ec		 mov	 ebp, esp

; 208  : 		return (!(*this == _Right));

  00003	8b 01		 mov	 eax, DWORD PTR [ecx]
  00005	8b 55 08	 mov	 edx, DWORD PTR __Right$[ebp]
  00008	33 c9		 xor	 ecx, ecx
  0000a	3b 02		 cmp	 eax, DWORD PTR [edx]
  0000c	0f 95 c0	 setne	 al

; 209  : 		}

  0000f	5d		 pop	 ebp
  00010	c2 04 00	 ret	 4
??9?$_Vector_const_iterator@V?$_Vector_val@UTeamUserData@@V?$allocator@UTeamUserData@@@std@@@std@@@std@@QBE_NABV01@@Z ENDP ; std::_Vector_const_iterator<std::_Vector_val<TeamUserData,std::allocator<TeamUserData> > >::operator!=
_TEXT	ENDS
PUBLIC	??9?$_Vector_const_iterator@V?$_Vector_val@UCheerTeamInfo@@V?$allocator@UCheerTeamInfo@@@std@@@std@@@std@@QBE_NABV01@@Z ; std::_Vector_const_iterator<std::_Vector_val<CheerTeamInfo,std::allocator<CheerTeamInfo> > >::operator!=
; Function compile flags: /Ogsp
;	COMDAT ??9?$_Vector_const_iterator@V?$_Vector_val@UCheerTeamInfo@@V?$allocator@UCheerTeamInfo@@@std@@@std@@@std@@QBE_NABV01@@Z
_TEXT	SEGMENT
__Right$ = 8						; size = 4
??9?$_Vector_const_iterator@V?$_Vector_val@UCheerTeamInfo@@V?$allocator@UCheerTeamInfo@@@std@@@std@@@std@@QBE_NABV01@@Z PROC ; std::_Vector_const_iterator<std::_Vector_val<CheerTeamInfo,std::allocator<CheerTeamInfo> > >::operator!=, COMDAT
; _this$ = ecx

; 207  : 		{	// test for iterator inequality

  00000	55		 push	 ebp
  00001	8b ec		 mov	 ebp, esp

; 208  : 		return (!(*this == _Right));

  00003	8b 01		 mov	 eax, DWORD PTR [ecx]
  00005	8b 55 08	 mov	 edx, DWORD PTR __Right$[ebp]
  00008	33 c9		 xor	 ecx, ecx
  0000a	3b 02		 cmp	 eax, DWORD PTR [edx]
  0000c	0f 95 c0	 setne	 al

; 209  : 		}

  0000f	5d		 pop	 ebp
  00010	c2 04 00	 ret	 4
??9?$_Vector_const_iterator@V?$_Vector_val@UCheerTeamInfo@@V?$allocator@UCheerTeamInfo@@@std@@@std@@@std@@QBE_NABV01@@Z ENDP ; std::_Vector_const_iterator<std::_Vector_val<CheerTeamInfo,std::allocator<CheerTeamInfo> > >::operator!=
_TEXT	ENDS
PUBLIC	?_Make_iter@?$vector@UTeamUserData@@V?$allocator@UTeamUserData@@@std@@@std@@QBE?AV?$_Vector_iterator@V?$_Vector_val@UTeamUserData@@V?$allocator@UTeamUserData@@@std@@@std@@@2@V?$_Vector_const_iterator@V?$_Vector_val@UTeamUserData@@V?$allocator@UTeamUserData@@@std@@@std@@@2@@Z ; std::vector<TeamUserData,std::allocator<TeamUserData> >::_Make_iter
; Function compile flags: /Ogsp
;	COMDAT ?_Make_iter@?$vector@UTeamUserData@@V?$allocator@UTeamUserData@@@std@@@std@@QBE?AV?$_Vector_iterator@V?$_Vector_val@UTeamUserData@@V?$allocator@UTeamUserData@@@std@@@std@@@2@V?$_Vector_const_iterator@V?$_Vector_val@UTeamUserData@@V?$allocator@UTeamUserData@@@std@@@std@@@2@@Z
_TEXT	SEGMENT
___$ReturnUdt$ = 8					; size = 4
__Where$ = 12						; size = 4
?_Make_iter@?$vector@UTeamUserData@@V?$allocator@UTeamUserData@@@std@@@std@@QBE?AV?$_Vector_iterator@V?$_Vector_val@UTeamUserData@@V?$allocator@UTeamUserData@@@std@@@std@@@2@V?$_Vector_const_iterator@V?$_Vector_val@UTeamUserData@@V?$allocator@UTeamUserData@@@std@@@std@@@2@@Z PROC ; std::vector<TeamUserData,std::allocator<TeamUserData> >::_Make_iter, COMDAT
; _this$ = ecx

; 801  : 		{	// make iterator from const_iterator

  00000	55		 push	 ebp
  00001	8b ec		 mov	 ebp, esp

; 802  : 		return (iterator(_Where._Ptr, this));

  00003	8b 45 08	 mov	 eax, DWORD PTR ___$ReturnUdt$[ebp]
  00006	8b 4d 0c	 mov	 ecx, DWORD PTR __Where$[ebp]
  00009	89 08		 mov	 DWORD PTR [eax], ecx

; 803  : 		}

  0000b	5d		 pop	 ebp
  0000c	c2 08 00	 ret	 8
?_Make_iter@?$vector@UTeamUserData@@V?$allocator@UTeamUserData@@@std@@@std@@QBE?AV?$_Vector_iterator@V?$_Vector_val@UTeamUserData@@V?$allocator@UTeamUserData@@@std@@@std@@@2@V?$_Vector_const_iterator@V?$_Vector_val@UTeamUserData@@V?$allocator@UTeamUserData@@@std@@@std@@@2@@Z ENDP ; std::vector<TeamUserData,std::allocator<TeamUserData> >::_Make_iter
_TEXT	ENDS
PUBLIC	?_Make_iter@?$vector@UTeamData@@V?$allocator@UTeamData@@@std@@@std@@QBE?AV?$_Vector_iterator@V?$_Vector_val@UTeamData@@V?$allocator@UTeamData@@@std@@@std@@@2@V?$_Vector_const_iterator@V?$_Vector_val@UTeamData@@V?$allocator@UTeamData@@@std@@@std@@@2@@Z ; std::vector<TeamData,std::allocator<TeamData> >::_Make_iter
; Function compile flags: /Ogsp
;	COMDAT ?_Make_iter@?$vector@UTeamData@@V?$allocator@UTeamData@@@std@@@std@@QBE?AV?$_Vector_iterator@V?$_Vector_val@UTeamData@@V?$allocator@UTeamData@@@std@@@std@@@2@V?$_Vector_const_iterator@V?$_Vector_val@UTeamData@@V?$allocator@UTeamData@@@std@@@std@@@2@@Z
_TEXT	SEGMENT
___$ReturnUdt$ = 8					; size = 4
__Where$ = 12						; size = 4
?_Make_iter@?$vector@UTeamData@@V?$allocator@UTeamData@@@std@@@std@@QBE?AV?$_Vector_iterator@V?$_Vector_val@UTeamData@@V?$allocator@UTeamData@@@std@@@std@@@2@V?$_Vector_const_iterator@V?$_Vector_val@UTeamData@@V?$allocator@UTeamData@@@std@@@std@@@2@@Z PROC ; std::vector<TeamData,std::allocator<TeamData> >::_Make_iter, COMDAT
; _this$ = ecx

; 801  : 		{	// make iterator from const_iterator

  00000	55		 push	 ebp
  00001	8b ec		 mov	 ebp, esp

; 802  : 		return (iterator(_Where._Ptr, this));

  00003	8b 45 08	 mov	 eax, DWORD PTR ___$ReturnUdt$[ebp]
  00006	8b 4d 0c	 mov	 ecx, DWORD PTR __Where$[ebp]
  00009	89 08		 mov	 DWORD PTR [eax], ecx

; 803  : 		}

  0000b	5d		 pop	 ebp
  0000c	c2 08 00	 ret	 8
?_Make_iter@?$vector@UTeamData@@V?$allocator@UTeamData@@@std@@@std@@QBE?AV?$_Vector_iterator@V?$_Vector_val@UTeamData@@V?$allocator@UTeamData@@@std@@@std@@@2@V?$_Vector_const_iterator@V?$_Vector_val@UTeamData@@V?$allocator@UTeamData@@@std@@@std@@@2@@Z ENDP ; std::vector<TeamData,std::allocator<TeamData> >::_Make_iter
_TEXT	ENDS
PUBLIC	?_Make_iter@?$vector@UCheerTeamInfo@@V?$allocator@UCheerTeamInfo@@@std@@@std@@QBE?AV?$_Vector_iterator@V?$_Vector_val@UCheerTeamInfo@@V?$allocator@UCheerTeamInfo@@@std@@@std@@@2@V?$_Vector_const_iterator@V?$_Vector_val@UCheerTeamInfo@@V?$allocator@UCheerTeamInfo@@@std@@@std@@@2@@Z ; std::vector<CheerTeamInfo,std::allocator<CheerTeamInfo> >::_Make_iter
; Function compile flags: /Ogsp
;	COMDAT ?_Make_iter@?$vector@UCheerTeamInfo@@V?$allocator@UCheerTeamInfo@@@std@@@std@@QBE?AV?$_Vector_iterator@V?$_Vector_val@UCheerTeamInfo@@V?$allocator@UCheerTeamInfo@@@std@@@std@@@2@V?$_Vector_const_iterator@V?$_Vector_val@UCheerTeamInfo@@V?$allocator@UCheerTeamInfo@@@std@@@std@@@2@@Z
_TEXT	SEGMENT
___$ReturnUdt$ = 8					; size = 4
__Where$ = 12						; size = 4
?_Make_iter@?$vector@UCheerTeamInfo@@V?$allocator@UCheerTeamInfo@@@std@@@std@@QBE?AV?$_Vector_iterator@V?$_Vector_val@UCheerTeamInfo@@V?$allocator@UCheerTeamInfo@@@std@@@std@@@2@V?$_Vector_const_iterator@V?$_Vector_val@UCheerTeamInfo@@V?$allocator@UCheerTeamInfo@@@std@@@std@@@2@@Z PROC ; std::vector<CheerTeamInfo,std::allocator<CheerTeamInfo> >::_Make_iter, COMDAT
; _this$ = ecx

; 801  : 		{	// make iterator from const_iterator

  00000	55		 push	 ebp
  00001	8b ec		 mov	 ebp, esp

; 802  : 		return (iterator(_Where._Ptr, this));

  00003	8b 45 08	 mov	 eax, DWORD PTR ___$ReturnUdt$[ebp]
  00006	8b 4d 0c	 mov	 ecx, DWORD PTR __Where$[ebp]
  00009	89 08		 mov	 DWORD PTR [eax], ecx

; 803  : 		}

  0000b	5d		 pop	 ebp
  0000c	c2 08 00	 ret	 8
?_Make_iter@?$vector@UCheerTeamInfo@@V?$allocator@UCheerTeamInfo@@@std@@@std@@QBE?AV?$_Vector_iterator@V?$_Vector_val@UCheerTeamInfo@@V?$allocator@UCheerTeamInfo@@@std@@@std@@@2@V?$_Vector_const_iterator@V?$_Vector_val@UCheerTeamInfo@@V?$allocator@UCheerTeamInfo@@@std@@@std@@@2@@Z ENDP ; std::vector<CheerTeamInfo,std::allocator<CheerTeamInfo> >::_Make_iter
_TEXT	ENDS
PUBLIC	??$_Cons_val@V?$allocator@UTeamUserData@@@std@@UTeamUserData@@ABU3@@std@@YAXAAV?$allocator@UTeamUserData@@@0@PAUTeamUserData@@ABU2@@Z ; std::_Cons_val<std::allocator<TeamUserData>,TeamUserData,TeamUserData const &>
; Function compile flags: /Ogsp
; File c:\program files (x86)\microsoft visual studio 10.0\vc\include\xmemory
;	COMDAT ??$_Cons_val@V?$allocator@UTeamUserData@@@std@@UTeamUserData@@ABU3@@std@@YAXAAV?$allocator@UTeamUserData@@@0@PAUTeamUserData@@ABU2@@Z
_TEXT	SEGMENT
__Alval$ = 8						; size = 4
__Pdest$ = 12						; size = 4
__Src$ = 16						; size = 4
??$_Cons_val@V?$allocator@UTeamUserData@@@std@@UTeamUserData@@ABU3@@std@@YAXAAV?$allocator@UTeamUserData@@@0@PAUTeamUserData@@ABU2@@Z PROC ; std::_Cons_val<std::allocator<TeamUserData>,TeamUserData,TeamUserData const &>, COMDAT

; 279  : 	{	// construct using allocator

  00000	55		 push	 ebp
  00001	8b ec		 mov	 ebp, esp

; 280  : 	_Alval.construct(_Pdest, _STD forward<_Ty2>(_Src));

  00003	ff 75 10	 push	 DWORD PTR __Src$[ebp]
  00006	ff 75 0c	 push	 DWORD PTR __Pdest$[ebp]
  00009	e8 00 00 00 00	 call	 ??$_Construct@UTeamUserData@@ABU1@@std@@YAXPAUTeamUserData@@ABU1@@Z ; std::_Construct<TeamUserData,TeamUserData const &>
  0000e	59		 pop	 ecx
  0000f	59		 pop	 ecx

; 281  : 	}

  00010	5d		 pop	 ebp
  00011	c3		 ret	 0
??$_Cons_val@V?$allocator@UTeamUserData@@@std@@UTeamUserData@@ABU3@@std@@YAXAAV?$allocator@UTeamUserData@@@0@PAUTeamUserData@@ABU2@@Z ENDP ; std::_Cons_val<std::allocator<TeamUserData>,TeamUserData,TeamUserData const &>
_TEXT	ENDS
PUBLIC	??$_Move@PAUTeamUserData@@PAU1@@std@@YAPAUTeamUserData@@PAU1@00@Z ; std::_Move<TeamUserData *,TeamUserData *>
; Function compile flags: /Ogsp
; File c:\program files (x86)\microsoft visual studio 10.0\vc\include\xutility
;	COMDAT ??$_Move@PAUTeamUserData@@PAU1@@std@@YAPAUTeamUserData@@PAU1@00@Z
_TEXT	SEGMENT
__Cat$511786 = -4					; size = 1
__First$ = 8						; size = 4
__Last$ = 12						; size = 4
__Dest$ = 16						; size = 4
??$_Move@PAUTeamUserData@@PAU1@@std@@YAPAUTeamUserData@@PAU1@00@Z PROC ; std::_Move<TeamUserData *,TeamUserData *>, COMDAT

; 2533 : 	{	// move [_First, _Last) to [_Dest, ...), unchecked

  00000	55		 push	 ebp
  00001	8b ec		 mov	 ebp, esp
  00003	51		 push	 ecx

; 2534 : 	return (_Move(_First, _Last,
; 2535 : 		_Dest, _Ptr_cat(_First, _Dest)));

  00004	ff 75 fc	 push	 DWORD PTR __Cat$511786[ebp]
  00007	ff 75 10	 push	 DWORD PTR __Dest$[ebp]
  0000a	ff 75 0c	 push	 DWORD PTR __Last$[ebp]
  0000d	ff 75 08	 push	 DWORD PTR __First$[ebp]
  00010	e8 00 00 00 00	 call	 ??$_Move@PAUTeamUserData@@PAU1@@std@@YAPAUTeamUserData@@PAU1@00U_Nonscalar_ptr_iterator_tag@0@@Z ; std::_Move<TeamUserData *,TeamUserData *>
  00015	83 c4 10	 add	 esp, 16			; 00000010H

; 2536 : 	}

  00018	c9		 leave
  00019	c3		 ret	 0
??$_Move@PAUTeamUserData@@PAU1@@std@@YAPAUTeamUserData@@PAU1@00@Z ENDP ; std::_Move<TeamUserData *,TeamUserData *>
_TEXT	ENDS
PUBLIC	??$_Cons_val@V?$allocator@UCheerTeamInfo@@@std@@UCheerTeamInfo@@ABU3@@std@@YAXAAV?$allocator@UCheerTeamInfo@@@0@PAUCheerTeamInfo@@ABU2@@Z ; std::_Cons_val<std::allocator<CheerTeamInfo>,CheerTeamInfo,CheerTeamInfo const &>
; Function compile flags: /Ogsp
; File c:\program files (x86)\microsoft visual studio 10.0\vc\include\xmemory
;	COMDAT ??$_Cons_val@V?$allocator@UCheerTeamInfo@@@std@@UCheerTeamInfo@@ABU3@@std@@YAXAAV?$allocator@UCheerTeamInfo@@@0@PAUCheerTeamInfo@@ABU2@@Z
_TEXT	SEGMENT
__Alval$ = 8						; size = 4
__Pdest$ = 12						; size = 4
__Src$ = 16						; size = 4
??$_Cons_val@V?$allocator@UCheerTeamInfo@@@std@@UCheerTeamInfo@@ABU3@@std@@YAXAAV?$allocator@UCheerTeamInfo@@@0@PAUCheerTeamInfo@@ABU2@@Z PROC ; std::_Cons_val<std::allocator<CheerTeamInfo>,CheerTeamInfo,CheerTeamInfo const &>, COMDAT

; 279  : 	{	// construct using allocator

  00000	55		 push	 ebp
  00001	8b ec		 mov	 ebp, esp
  00003	57		 push	 edi

; 280  : 	_Alval.construct(_Pdest, _STD forward<_Ty2>(_Src));

  00004	8b 7d 0c	 mov	 edi, DWORD PTR __Pdest$[ebp]
  00007	85 ff		 test	 edi, edi
  00009	74 09		 je	 SHORT $LN9@Cons_val@3
  0000b	56		 push	 esi
  0000c	8b 75 10	 mov	 esi, DWORD PTR __Src$[ebp]
  0000f	a5		 movsd
  00010	a5		 movsd
  00011	a5		 movsd
  00012	a5		 movsd
  00013	5e		 pop	 esi
$LN9@Cons_val@3:
  00014	5f		 pop	 edi

; 281  : 	}

  00015	5d		 pop	 ebp
  00016	c3		 ret	 0
??$_Cons_val@V?$allocator@UCheerTeamInfo@@@std@@UCheerTeamInfo@@ABU3@@std@@YAXAAV?$allocator@UCheerTeamInfo@@@0@PAUCheerTeamInfo@@ABU2@@Z ENDP ; std::_Cons_val<std::allocator<CheerTeamInfo>,CheerTeamInfo,CheerTeamInfo const &>
_TEXT	ENDS
PUBLIC	??$_Move@PAUCheerTeamInfo@@PAU1@@std@@YAPAUCheerTeamInfo@@PAU1@00@Z ; std::_Move<CheerTeamInfo *,CheerTeamInfo *>
; Function compile flags: /Ogsp
; File c:\program files (x86)\microsoft visual studio 10.0\vc\include\xutility
;	COMDAT ??$_Move@PAUCheerTeamInfo@@PAU1@@std@@YAPAUCheerTeamInfo@@PAU1@00@Z
_TEXT	SEGMENT
__Cat$511834 = -4					; size = 1
__First$ = 8						; size = 4
__Last$ = 12						; size = 4
__Dest$ = 16						; size = 4
??$_Move@PAUCheerTeamInfo@@PAU1@@std@@YAPAUCheerTeamInfo@@PAU1@00@Z PROC ; std::_Move<CheerTeamInfo *,CheerTeamInfo *>, COMDAT

; 2533 : 	{	// move [_First, _Last) to [_Dest, ...), unchecked

  00000	55		 push	 ebp
  00001	8b ec		 mov	 ebp, esp
  00003	51		 push	 ecx

; 2534 : 	return (_Move(_First, _Last,
; 2535 : 		_Dest, _Ptr_cat(_First, _Dest)));

  00004	ff 75 fc	 push	 DWORD PTR __Cat$511834[ebp]
  00007	ff 75 10	 push	 DWORD PTR __Dest$[ebp]
  0000a	ff 75 0c	 push	 DWORD PTR __Last$[ebp]
  0000d	ff 75 08	 push	 DWORD PTR __First$[ebp]
  00010	e8 00 00 00 00	 call	 ??$_Move@PAUCheerTeamInfo@@PAU1@@std@@YAPAUCheerTeamInfo@@PAU1@00U_Nonscalar_ptr_iterator_tag@0@@Z ; std::_Move<CheerTeamInfo *,CheerTeamInfo *>
  00015	83 c4 10	 add	 esp, 16			; 00000010H

; 2536 : 	}

  00018	c9		 leave
  00019	c3		 ret	 0
??$_Move@PAUCheerTeamInfo@@PAU1@@std@@YAPAUCheerTeamInfo@@PAU1@00@Z ENDP ; std::_Move<CheerTeamInfo *,CheerTeamInfo *>
_TEXT	ENDS
PUBLIC	??$_Dest_val@V?$allocator@UCheerTeamInfo@@@std@@UCheerTeamInfo@@@std@@YAXAAV?$allocator@UCheerTeamInfo@@@0@PAUCheerTeamInfo@@@Z ; std::_Dest_val<std::allocator<CheerTeamInfo>,CheerTeamInfo>
; Function compile flags: /Ogsp
; File c:\program files (x86)\microsoft visual studio 10.0\vc\include\xmemory
;	COMDAT ??$_Dest_val@V?$allocator@UCheerTeamInfo@@@std@@UCheerTeamInfo@@@std@@YAXAAV?$allocator@UCheerTeamInfo@@@0@PAUCheerTeamInfo@@@Z
_TEXT	SEGMENT
__Alval$ = 8						; size = 4
__Pdest$ = 12						; size = 4
??$_Dest_val@V?$allocator@UCheerTeamInfo@@@std@@UCheerTeamInfo@@@std@@YAXAAV?$allocator@UCheerTeamInfo@@@0@PAUCheerTeamInfo@@@Z PROC ; std::_Dest_val<std::allocator<CheerTeamInfo>,CheerTeamInfo>, COMDAT

; 287  : 	_Alval.destroy(_Pdest);
; 288  : 	}

  00000	c3		 ret	 0
??$_Dest_val@V?$allocator@UCheerTeamInfo@@@std@@UCheerTeamInfo@@@std@@YAXAAV?$allocator@UCheerTeamInfo@@@0@PAUCheerTeamInfo@@@Z ENDP ; std::_Dest_val<std::allocator<CheerTeamInfo>,CheerTeamInfo>
_TEXT	ENDS
PUBLIC	??$_Cons_val@V?$allocator@UTeamUserData@@@std@@UTeamUserData@@U3@@std@@YAXAAV?$allocator@UTeamUserData@@@0@PAUTeamUserData@@$$QAU2@@Z ; std::_Cons_val<std::allocator<TeamUserData>,TeamUserData,TeamUserData>
;	COMDAT xdata$x
; File c:\program files (x86)\microsoft visual studio 10.0\vc\include\utility
xdata$x	SEGMENT
__unwindtable$??$_Cons_val@V?$allocator@UTeamUserData@@@std@@UTeamUserData@@U3@@std@@YAXAAV?$allocator@UTeamUserData@@@0@PAUTeamUserData@@$$QAU2@@Z DD 0ffffffffH
	DD	FLAT:__unwindfunclet$??$_Cons_val@V?$allocator@UTeamUserData@@@std@@UTeamUserData@@U3@@std@@YAXAAV?$allocator@UTeamUserData@@@0@PAUTeamUserData@@$$QAU2@@Z$0
__ehfuncinfo$??$_Cons_val@V?$allocator@UTeamUserData@@@std@@UTeamUserData@@U3@@std@@YAXAAV?$allocator@UTeamUserData@@@0@PAUTeamUserData@@$$QAU2@@Z DD 019930522H
	DD	01H
	DD	FLAT:__unwindtable$??$_Cons_val@V?$allocator@UTeamUserData@@@std@@UTeamUserData@@U3@@std@@YAXAAV?$allocator@UTeamUserData@@@0@PAUTeamUserData@@$$QAU2@@Z
	DD	2 DUP(00H)
	DD	2 DUP(00H)
	DD	00H
	DD	01H
; Function compile flags: /Ogsp
; File c:\program files (x86)\microsoft visual studio 10.0\vc\include\xmemory
xdata$x	ENDS
;	COMDAT ??$_Cons_val@V?$allocator@UTeamUserData@@@std@@UTeamUserData@@U3@@std@@YAXAAV?$allocator@UTeamUserData@@@0@PAUTeamUserData@@$$QAU2@@Z
_TEXT	SEGMENT
$T511866 = -16						; size = 4
__$EHRec$ = -12						; size = 12
__Alval$ = 8						; size = 4
__Pdest$ = 12						; size = 4
__Src$ = 16						; size = 4
??$_Cons_val@V?$allocator@UTeamUserData@@@std@@UTeamUserData@@U3@@std@@YAXAAV?$allocator@UTeamUserData@@@0@PAUTeamUserData@@$$QAU2@@Z PROC ; std::_Cons_val<std::allocator<TeamUserData>,TeamUserData,TeamUserData>, COMDAT

; 279  : 	{	// construct using allocator

  00000	6a 04		 push	 4
  00002	b8 00 00 00 00	 mov	 eax, __ehhandler$??$_Cons_val@V?$allocator@UTeamUserData@@@std@@UTeamUserData@@U3@@std@@YAXAAV?$allocator@UTeamUserData@@@0@PAUTeamUserData@@$$QAU2@@Z
  00007	e8 00 00 00 00	 call	 __EH_prolog3

; 280  : 	_Alval.construct(_Pdest, _STD forward<_Ty2>(_Src));

  0000c	8b 4d 0c	 mov	 ecx, DWORD PTR __Pdest$[ebp]
  0000f	89 4d f0	 mov	 DWORD PTR $T511866[ebp], ecx
  00012	83 65 fc 00	 and	 DWORD PTR __$EHRec$[ebp+8], 0
  00016	85 c9		 test	 ecx, ecx
  00018	74 08		 je	 SHORT $LN7@Cons_val@4
  0001a	ff 75 10	 push	 DWORD PTR __Src$[ebp]
  0001d	e8 00 00 00 00	 call	 ??0TeamUserData@@QAE@ABU0@@Z
$LN7@Cons_val@4:

; 281  : 	}

  00022	e8 00 00 00 00	 call	 __EH_epilog3
  00027	c3		 ret	 0
_TEXT	ENDS
;	COMDAT text$x
text$x	SEGMENT
__unwindfunclet$??$_Cons_val@V?$allocator@UTeamUserData@@@std@@UTeamUserData@@U3@@std@@YAXAAV?$allocator@UTeamUserData@@@0@PAUTeamUserData@@$$QAU2@@Z$0:
  00000	ff 75 0c	 push	 DWORD PTR __Pdest$[ebp]
  00003	ff 75 f0	 push	 DWORD PTR $T511866[ebp]
  00006	e8 00 00 00 00	 call	 ??3@YAXPAX0@Z		; operator delete
  0000b	59		 pop	 ecx
  0000c	59		 pop	 ecx
  0000d	c3		 ret	 0
__ehhandler$??$_Cons_val@V?$allocator@UTeamUserData@@@std@@UTeamUserData@@U3@@std@@YAXAAV?$allocator@UTeamUserData@@@0@PAUTeamUserData@@$$QAU2@@Z:
  0000e	8b 54 24 08	 mov	 edx, DWORD PTR [esp+8]
  00012	8d 42 0c	 lea	 eax, DWORD PTR [edx+12]
  00015	8b 4a ec	 mov	 ecx, DWORD PTR [edx-20]
  00018	33 c8		 xor	 ecx, eax
  0001a	e8 00 00 00 00	 call	 @__security_check_cookie@4
  0001f	b8 00 00 00 00	 mov	 eax, OFFSET __ehfuncinfo$??$_Cons_val@V?$allocator@UTeamUserData@@@std@@UTeamUserData@@U3@@std@@YAXAAV?$allocator@UTeamUserData@@@0@PAUTeamUserData@@$$QAU2@@Z
  00024	e9 00 00 00 00	 jmp	 ___CxxFrameHandler3
text$x	ENDS
??$_Cons_val@V?$allocator@UTeamUserData@@@std@@UTeamUserData@@U3@@std@@YAXAAV?$allocator@UTeamUserData@@@0@PAUTeamUserData@@$$QAU2@@Z ENDP ; std::_Cons_val<std::allocator<TeamUserData>,TeamUserData,TeamUserData>
PUBLIC	??$_Cons_val@V?$allocator@UCheerTeamInfo@@@std@@UCheerTeamInfo@@U3@@std@@YAXAAV?$allocator@UCheerTeamInfo@@@0@PAUCheerTeamInfo@@$$QAU2@@Z ; std::_Cons_val<std::allocator<CheerTeamInfo>,CheerTeamInfo,CheerTeamInfo>
; Function compile flags: /Ogsp
;	COMDAT ??$_Cons_val@V?$allocator@UCheerTeamInfo@@@std@@UCheerTeamInfo@@U3@@std@@YAXAAV?$allocator@UCheerTeamInfo@@@0@PAUCheerTeamInfo@@$$QAU2@@Z
_TEXT	SEGMENT
__Alval$ = 8						; size = 4
__Pdest$ = 12						; size = 4
__Src$ = 16						; size = 4
??$_Cons_val@V?$allocator@UCheerTeamInfo@@@std@@UCheerTeamInfo@@U3@@std@@YAXAAV?$allocator@UCheerTeamInfo@@@0@PAUCheerTeamInfo@@$$QAU2@@Z PROC ; std::_Cons_val<std::allocator<CheerTeamInfo>,CheerTeamInfo,CheerTeamInfo>, COMDAT

; 279  : 	{	// construct using allocator

  00000	55		 push	 ebp
  00001	8b ec		 mov	 ebp, esp
  00003	57		 push	 edi

; 280  : 	_Alval.construct(_Pdest, _STD forward<_Ty2>(_Src));

  00004	8b 7d 0c	 mov	 edi, DWORD PTR __Pdest$[ebp]
  00007	85 ff		 test	 edi, edi
  00009	74 09		 je	 SHORT $LN7@Cons_val@5
  0000b	56		 push	 esi
  0000c	8b 75 10	 mov	 esi, DWORD PTR __Src$[ebp]
  0000f	a5		 movsd
  00010	a5		 movsd
  00011	a5		 movsd
  00012	a5		 movsd
  00013	5e		 pop	 esi
$LN7@Cons_val@5:
  00014	5f		 pop	 edi

; 281  : 	}

  00015	5d		 pop	 ebp
  00016	c3		 ret	 0
??$_Cons_val@V?$allocator@UCheerTeamInfo@@@std@@UCheerTeamInfo@@U3@@std@@YAXAAV?$allocator@UCheerTeamInfo@@@0@PAUCheerTeamInfo@@$$QAU2@@Z ENDP ; std::_Cons_val<std::allocator<CheerTeamInfo>,CheerTeamInfo,CheerTeamInfo>
_TEXT	ENDS
PUBLIC	??0?$vector@UTeamUserData@@V?$allocator@UTeamUserData@@@std@@@std@@QAE@XZ ; std::vector<TeamUserData,std::allocator<TeamUserData> >::vector<TeamUserData,std::allocator<TeamUserData> >
; Function compile flags: /Ogsp
; File c:\program files (x86)\microsoft visual studio 10.0\vc\include\vector
;	COMDAT ??0?$vector@UTeamUserData@@V?$allocator@UTeamUserData@@@std@@@std@@QAE@XZ
_TEXT	SEGMENT
??0?$vector@UTeamUserData@@V?$allocator@UTeamUserData@@@std@@@std@@QAE@XZ PROC ; std::vector<TeamUserData,std::allocator<TeamUserData> >::vector<TeamUserData,std::allocator<TeamUserData> >, COMDAT
; _this$ = ecx

; 507  : 		{	// construct empty vector

  00000	8b c1		 mov	 eax, ecx
  00002	33 c9		 xor	 ecx, ecx
  00004	89 08		 mov	 DWORD PTR [eax], ecx
  00006	89 48 04	 mov	 DWORD PTR [eax+4], ecx
  00009	89 48 08	 mov	 DWORD PTR [eax+8], ecx

; 508  : 		}

  0000c	c3		 ret	 0
??0?$vector@UTeamUserData@@V?$allocator@UTeamUserData@@@std@@@std@@QAE@XZ ENDP ; std::vector<TeamUserData,std::allocator<TeamUserData> >::vector<TeamUserData,std::allocator<TeamUserData> >
_TEXT	ENDS
PUBLIC	??$_Destroy@UTeamUserData@@@std@@YAXPAUTeamUserData@@@Z ; std::_Destroy<TeamUserData>
; Function compile flags: /Ogsp
; File c:\program files (x86)\microsoft visual studio 10.0\vc\include\xmemory
;	COMDAT ??$_Destroy@UTeamUserData@@@std@@YAXPAUTeamUserData@@@Z
_TEXT	SEGMENT
__Ptr$ = 8						; size = 4
??$_Destroy@UTeamUserData@@@std@@YAXPAUTeamUserData@@@Z PROC ; std::_Destroy<TeamUserData>, COMDAT

; 62   : 	{	// destroy object at _Ptr

  00000	55		 push	 ebp
  00001	8b ec		 mov	 ebp, esp

; 63   : 	_Ptr->~_Ty();

  00003	8b 4d 08	 mov	 ecx, DWORD PTR __Ptr$[ebp]
  00006	83 c1 08	 add	 ecx, 8

; 64   : 	}

  00009	5d		 pop	 ebp

; 63   : 	_Ptr->~_Ty();

  0000a	ff 25 00 00 00
	00		 jmp	 DWORD PTR __imp_??1ioHashString@@QAE@XZ
??$_Destroy@UTeamUserData@@@std@@YAXPAUTeamUserData@@@Z ENDP ; std::_Destroy<TeamUserData>
_TEXT	ENDS
PUBLIC	?IsAlreadyTeam@ioUserTournament@@QAE_NK@Z	; ioUserTournament::IsAlreadyTeam
; Function compile flags: /Ogsp
; File d:\lost saga for developer\youtube\tutorial\source\src\lsclient\iousertournament.cpp
;	COMDAT ?IsAlreadyTeam@ioUserTournament@@QAE_NK@Z
_TEXT	SEGMENT
_dwTeamIndex$ = 8					; size = 4
?IsAlreadyTeam@ioUserTournament@@QAE_NK@Z PROC		; ioUserTournament::IsAlreadyTeam, COMDAT
; _this$ = ecx

; 27   : {

  00000	55		 push	 ebp
  00001	8b ec		 mov	 ebp, esp

; 28   : 	TeamDataVec::iterator iter = m_TeamDataList.begin();

  00003	8b 41 04	 mov	 eax, DWORD PTR [ecx+4]

; 29   : 	for(;iter != m_TeamDataList.end();iter++)

  00006	8b 49 08	 mov	 ecx, DWORD PTR [ecx+8]
  00009	eb 0b		 jmp	 SHORT $LN42@IsAlreadyT
$LL19@IsAlreadyT:

; 30   : 	{
; 31   : 		TeamData &rkTeamData = *iter;
; 32   : 		if( rkTeamData.m_dwTeamIndex == dwTeamIndex )

  0000b	8b 50 04	 mov	 edx, DWORD PTR [eax+4]
  0000e	3b 55 08	 cmp	 edx, DWORD PTR _dwTeamIndex$[ebp]
  00011	74 0d		 je	 SHORT $LN40@IsAlreadyT

; 29   : 	for(;iter != m_TeamDataList.end();iter++)

  00013	83 c0 2c	 add	 eax, 44			; 0000002cH
$LN42@IsAlreadyT:
  00016	3b c1		 cmp	 eax, ecx
  00018	75 f1		 jne	 SHORT $LL19@IsAlreadyT

; 34   : 	}
; 35   : 	return false;

  0001a	32 c0		 xor	 al, al
$LN5@IsAlreadyT:

; 36   : }

  0001c	5d		 pop	 ebp
  0001d	c2 04 00	 ret	 4
$LN40@IsAlreadyT:

; 33   : 			return true;

  00020	b0 01		 mov	 al, 1
  00022	eb f8		 jmp	 SHORT $LN5@IsAlreadyT
?IsAlreadyTeam@ioUserTournament@@QAE_NK@Z ENDP		; ioUserTournament::IsAlreadyTeam
_TEXT	ENDS
PUBLIC	?IsAlreadyUser@ioUserTournament@@QAE_NKK@Z	; ioUserTournament::IsAlreadyUser
; Function compile flags: /Ogsp
;	COMDAT ?IsAlreadyUser@ioUserTournament@@QAE_NKK@Z
_TEXT	SEGMENT
_dwTeamIndex$ = 8					; size = 4
_dwUserIndex$ = 12					; size = 4
?IsAlreadyUser@ioUserTournament@@QAE_NKK@Z PROC		; ioUserTournament::IsAlreadyUser, COMDAT
; _this$ = ecx

; 39   : {

  00000	55		 push	 ebp
  00001	8b ec		 mov	 ebp, esp

; 40   : 	TeamDataVec::iterator iter = m_TeamDataList.begin();

  00003	8b 41 04	 mov	 eax, DWORD PTR [ecx+4]
  00006	56		 push	 esi

; 41   : 	for(;iter != m_TeamDataList.end();iter++)

  00007	8b 71 08	 mov	 esi, DWORD PTR [ecx+8]
  0000a	57		 push	 edi
  0000b	eb 22		 jmp	 SHORT $LN80@IsAlreadyU
$LL23@IsAlreadyU:

; 42   : 	{
; 43   : 		TeamData &rkTeamData = *iter;
; 44   : 		if( rkTeamData.m_dwTeamIndex == dwTeamIndex )

  0000d	8b 48 04	 mov	 ecx, DWORD PTR [eax+4]
  00010	3b 4d 08	 cmp	 ecx, DWORD PTR _dwTeamIndex$[ebp]
  00013	75 17		 jne	 SHORT $LN7@IsAlreadyU

; 45   : 		{
; 46   : 			TeamUserVec::iterator iter2 = rkTeamData.m_TeamUserList.begin();

  00015	8b 48 1c	 mov	 ecx, DWORD PTR [eax+28]

; 47   : 			for(;iter2 != rkTeamData.m_TeamUserList.end();iter2++)

  00018	8b 50 20	 mov	 edx, DWORD PTR [eax+32]
  0001b	eb 0b		 jmp	 SHORT $LN81@IsAlreadyU
$LL55@IsAlreadyU:

; 48   : 			{
; 49   : 				TeamUserData &rkUserData = *iter2;
; 50   : 				if( rkUserData.m_dwUserIndex == dwUserIndex )

  0001d	8b 79 04	 mov	 edi, DWORD PTR [ecx+4]
  00020	3b 7d 0c	 cmp	 edi, DWORD PTR _dwUserIndex$[ebp]
  00023	74 16		 je	 SHORT $LN77@IsAlreadyU

; 47   : 			for(;iter2 != rkTeamData.m_TeamUserList.end();iter2++)

  00025	83 c1 18	 add	 ecx, 24			; 00000018H
$LN81@IsAlreadyU:
  00028	3b ca		 cmp	 ecx, edx
  0002a	75 f1		 jne	 SHORT $LL55@IsAlreadyU
$LN7@IsAlreadyU:

; 41   : 	for(;iter != m_TeamDataList.end();iter++)

  0002c	83 c0 2c	 add	 eax, 44			; 0000002cH
$LN80@IsAlreadyU:
  0002f	3b c6		 cmp	 eax, esi
  00031	75 da		 jne	 SHORT $LL23@IsAlreadyU

; 52   : 			}
; 53   : 		}
; 54   : 	}
; 55   : 	return false;

  00033	32 c0		 xor	 al, al
$LN9@IsAlreadyU:
  00035	5f		 pop	 edi
  00036	5e		 pop	 esi

; 56   : }

  00037	5d		 pop	 ebp
  00038	c2 08 00	 ret	 8
$LN77@IsAlreadyU:

; 51   : 					return true;

  0003b	b0 01		 mov	 al, 1
  0003d	eb f6		 jmp	 SHORT $LN9@IsAlreadyU
?IsAlreadyUser@ioUserTournament@@QAE_NKK@Z ENDP		; ioUserTournament::IsAlreadyUser
_TEXT	ENDS
PUBLIC	?GetTeamIndex@ioUserTournament@@QAEKK@Z		; ioUserTournament::GetTeamIndex
; Function compile flags: /Ogsp
;	COMDAT ?GetTeamIndex@ioUserTournament@@QAEKK@Z
_TEXT	SEGMENT
_dwTourIndex$ = 8					; size = 4
?GetTeamIndex@ioUserTournament@@QAEKK@Z PROC		; ioUserTournament::GetTeamIndex, COMDAT
; _this$ = ecx

; 336  : {

  00000	55		 push	 ebp
  00001	8b ec		 mov	 ebp, esp

; 337  : 	TeamDataVec::iterator iter = m_TeamDataList.begin();

  00003	8b 41 04	 mov	 eax, DWORD PTR [ecx+4]

; 338  : 	for(;iter != m_TeamDataList.end();++iter)

  00006	8b 49 08	 mov	 ecx, DWORD PTR [ecx+8]
  00009	eb 0a		 jmp	 SHORT $LN40@GetTeamInd
$LL17@GetTeamInd:

; 339  : 	{
; 340  : 		TeamData &rkTeamData = *iter;
; 341  : 		if( rkTeamData.m_dwTourIndex == dwTourIndex )

  0000b	8b 10		 mov	 edx, DWORD PTR [eax]
  0000d	3b 55 08	 cmp	 edx, DWORD PTR _dwTourIndex$[ebp]
  00010	74 0d		 je	 SHORT $LN38@GetTeamInd

; 338  : 	for(;iter != m_TeamDataList.end();++iter)

  00012	83 c0 2c	 add	 eax, 44			; 0000002cH
$LN40@GetTeamInd:
  00015	3b c1		 cmp	 eax, ecx
  00017	75 f2		 jne	 SHORT $LL17@GetTeamInd

; 343  : 	}
; 344  : 	return 0;

  00019	33 c0		 xor	 eax, eax
$LN5@GetTeamInd:

; 345  : }

  0001b	5d		 pop	 ebp
  0001c	c2 04 00	 ret	 4
$LN38@GetTeamInd:

; 342  : 			return rkTeamData.m_dwTeamIndex;

  0001f	8b 40 04	 mov	 eax, DWORD PTR [eax+4]
  00022	eb f7		 jmp	 SHORT $LN5@GetTeamInd
?GetTeamIndex@ioUserTournament@@QAEKK@Z ENDP		; ioUserTournament::GetTeamIndex
_TEXT	ENDS
PUBLIC	?GetTeamUserData@ioUserTournament@@QAE?AUTeamUserData@@KABVioHashString@@@Z ; ioUserTournament::GetTeamUserData
EXTRN	_atexit:PROC
EXTRN	__imp_??8ioHashString@@QBE_NABV0@@Z:PROC
;	COMDAT ?stNull@?L@??GetTeamUserData@ioUserTournament@@QAE?AUTeamUserData@@KABVioHashString@@@Z@4U3@A
; File d:\lost saga for developer\youtube\tutorial\source\src\lsclient\iousertournament.h
_BSS	SEGMENT
?stNull@?L@??GetTeamUserData@ioUserTournament@@QAE?AUTeamUserData@@KABVioHashString@@@Z@4U3@A DB 018H DUP (?) ; `ioUserTournament::GetTeamUserData'::`11'::stNull
_BSS	ENDS
;	COMDAT ?$S2@?L@??GetTeamUserData@ioUserTournament@@QAE?AUTeamUserData@@KABVioHashString@@@Z@4IA
_BSS	SEGMENT
?$S2@?L@??GetTeamUserData@ioUserTournament@@QAE?AUTeamUserData@@KABVioHashString@@@Z@4IA DD 01H DUP (?) ; `ioUserTournament::GetTeamUserData'::`11'::$S2
_BSS	ENDS
;	COMDAT xdata$x
xdata$x	SEGMENT
__unwindtable$?GetTeamUserData@ioUserTournament@@QAE?AUTeamUserData@@KABVioHashString@@@Z DD 0ffffffffH
	DD	FLAT:__unwindfunclet$?GetTeamUserData@ioUserTournament@@QAE?AUTeamUserData@@KABVioHashString@@@Z$1
__ehfuncinfo$?GetTeamUserData@ioUserTournament@@QAE?AUTeamUserData@@KABVioHashString@@@Z DD 019930522H
	DD	01H
	DD	FLAT:__unwindtable$?GetTeamUserData@ioUserTournament@@QAE?AUTeamUserData@@KABVioHashString@@@Z
	DD	2 DUP(00H)
	DD	2 DUP(00H)
	DD	00H
	DD	01H
; Function compile flags: /Ogsp
; File d:\lost saga for developer\youtube\tutorial\source\src\lsclient\iousertournament.cpp
xdata$x	ENDS
;	COMDAT ?GetTeamUserData@ioUserTournament@@QAE?AUTeamUserData@@KABVioHashString@@@Z
_TEXT	SEGMENT
$T512316 = -16						; size = 4
__$EHRec$ = -12						; size = 12
___$ReturnUdt$ = 8					; size = 4
_dwTeamIndex$ = 12					; size = 4
_rkName$ = 16						; size = 4
?GetTeamUserData@ioUserTournament@@QAE?AUTeamUserData@@KABVioHashString@@@Z PROC ; ioUserTournament::GetTeamUserData, COMDAT
; _this$ = ecx

; 348  : {

  00000	6a 04		 push	 4
  00002	b8 00 00 00 00	 mov	 eax, __ehhandler$?GetTeamUserData@ioUserTournament@@QAE?AUTeamUserData@@KABVioHashString@@@Z
  00007	e8 00 00 00 00	 call	 __EH_prolog3
  0000c	8b d9		 mov	 ebx, ecx
  0000e	83 65 f0 00	 and	 DWORD PTR $T512316[ebp], 0

; 349  : 	TeamDataVec::iterator iter = m_TeamDataList.begin();

  00012	8b 73 04	 mov	 esi, DWORD PTR [ebx+4]
  00015	eb 28		 jmp	 SHORT $LN85@GetTeamUse

; 350  : 	for(;iter != m_TeamDataList.end();++iter)

$LL25@GetTeamUse:

; 351  : 	{
; 352  : 		TeamData &rkTeamData = *iter;
; 353  : 		if( rkTeamData.m_dwTeamIndex == dwTeamIndex )

  00017	8b 46 04	 mov	 eax, DWORD PTR [esi+4]
  0001a	3b 45 0c	 cmp	 eax, DWORD PTR _dwTeamIndex$[ebp]
  0001d	75 1d		 jne	 SHORT $LN8@GetTeamUse

; 354  : 		{
; 355  : 			TeamUserVec::iterator iter2 = rkTeamData.m_TeamUserList.begin();

  0001f	8b 7e 1c	 mov	 edi, DWORD PTR [esi+28]
  00022	eb 13		 jmp	 SHORT $LN86@GetTeamUse

; 356  : 			for(;iter2 != rkTeamData.m_TeamUserList.end();++iter2)

$LL55@GetTeamUse:

; 357  : 			{
; 358  : 				TeamUserData &rkUserData = *iter2;
; 359  : 				if( rkUserData.m_szNick == rkName )

  00024	ff 75 10	 push	 DWORD PTR _rkName$[ebp]
  00027	8d 4f 08	 lea	 ecx, DWORD PTR [edi+8]
  0002a	ff 15 00 00 00
	00		 call	 DWORD PTR __imp_??8ioHashString@@QBE_NABV0@@Z
  00030	84 c0		 test	 al, al
  00032	75 63		 jne	 SHORT $LN80@GetTeamUse

; 356  : 			for(;iter2 != rkTeamData.m_TeamUserList.end();++iter2)

  00034	83 c7 18	 add	 edi, 24			; 00000018H
$LN86@GetTeamUse:
  00037	3b 7e 20	 cmp	 edi, DWORD PTR [esi+32]
  0003a	75 e8		 jne	 SHORT $LL55@GetTeamUse
$LN8@GetTeamUse:

; 350  : 	for(;iter != m_TeamDataList.end();++iter)

  0003c	83 c6 2c	 add	 esi, 44			; 0000002cH
$LN85@GetTeamUse:
  0003f	3b 73 08	 cmp	 esi, DWORD PTR [ebx+8]
  00042	75 d3		 jne	 SHORT $LL25@GetTeamUse

; 361  : 			}
; 362  : 		}
; 363  : 	}
; 364  : 
; 365  : 	static TeamUserData stNull;

  00044	f6 05 00 00 00
	00 01		 test	 BYTE PTR ?$S2@?L@??GetTeamUserData@ioUserTournament@@QAE?AUTeamUserData@@KABVioHashString@@@Z@4IA, 1
  0004b	75 32		 jne	 SHORT $LN1@GetTeamUse
  0004d	83 0d 00 00 00
	00 01		 or	 DWORD PTR ?$S2@?L@??GetTeamUserData@ioUserTournament@@QAE?AUTeamUserData@@KABVioHashString@@@Z@4IA, 1
  00054	33 f6		 xor	 esi, esi
  00056	b9 08 00 00 00	 mov	 ecx, OFFSET ?stNull@?L@??GetTeamUserData@ioUserTournament@@QAE?AUTeamUserData@@KABVioHashString@@@Z@4U3@A+8
  0005b	89 75 fc	 mov	 DWORD PTR __$EHRec$[ebp+8], esi
  0005e	ff 15 00 00 00
	00		 call	 DWORD PTR __imp_??0ioHashString@@QAE@XZ
  00064	68 00 00 00 00	 push	 OFFSET ??__FstNull@?L@??GetTeamUserData@ioUserTournament@@QAE?AUTeamUserData@@KABVioHashString@@@Z@YAXXZ ; `ioUserTournament::GetTeamUserData'::`11'::`dynamic atexit destructor for 'stNull''
  00069	89 35 04 00 00
	00		 mov	 DWORD PTR ?stNull@?L@??GetTeamUserData@ioUserTournament@@QAE?AUTeamUserData@@KABVioHashString@@@Z@4U3@A+4, esi
  0006f	89 35 00 00 00
	00		 mov	 DWORD PTR ?stNull@?L@??GetTeamUserData@ioUserTournament@@QAE?AUTeamUserData@@KABVioHashString@@@Z@4U3@A, esi
  00075	e8 00 00 00 00	 call	 _atexit
  0007a	83 4d fc ff	 or	 DWORD PTR __$EHRec$[ebp+8], -1
  0007e	59		 pop	 ecx
$LN1@GetTeamUse:

; 366  : 	return stNull;

  0007f	68 00 00 00 00	 push	 OFFSET ?stNull@?L@??GetTeamUserData@ioUserTournament@@QAE?AUTeamUserData@@KABVioHashString@@@Z@4U3@A
$LN87@GetTeamUse:
  00084	8b 4d 08	 mov	 ecx, DWORD PTR ___$ReturnUdt$[ebp]
  00087	e8 00 00 00 00	 call	 ??0TeamUserData@@QAE@ABU0@@Z
  0008c	8b 45 08	 mov	 eax, DWORD PTR ___$ReturnUdt$[ebp]

; 367  : }

  0008f	e8 00 00 00 00	 call	 __EH_epilog3
  00094	c2 0c 00	 ret	 12			; 0000000cH
$LN80@GetTeamUse:

; 360  : 					return rkUserData;

  00097	57		 push	 edi
  00098	eb ea		 jmp	 SHORT $LN87@GetTeamUse
_TEXT	ENDS
;	COMDAT text$x
text$x	SEGMENT
__unwindfunclet$?GetTeamUserData@ioUserTournament@@QAE?AUTeamUserData@@KABVioHashString@@@Z$1:
  00000	a1 00 00 00 00	 mov	 eax, DWORD PTR ?$S2@?L@??GetTeamUserData@ioUserTournament@@QAE?AUTeamUserData@@KABVioHashString@@@Z@4IA
  00005	83 e0 fe	 and	 eax, -2			; fffffffeH
  00008	a3 00 00 00 00	 mov	 DWORD PTR ?$S2@?L@??GetTeamUserData@ioUserTournament@@QAE?AUTeamUserData@@KABVioHashString@@@Z@4IA, eax
  0000d	c3		 ret	 0
__ehhandler$?GetTeamUserData@ioUserTournament@@QAE?AUTeamUserData@@KABVioHashString@@@Z:
  0000e	8b 54 24 08	 mov	 edx, DWORD PTR [esp+8]
  00012	8d 42 0c	 lea	 eax, DWORD PTR [edx+12]
  00015	8b 4a ec	 mov	 ecx, DWORD PTR [edx-20]
  00018	33 c8		 xor	 ecx, eax
  0001a	e8 00 00 00 00	 call	 @__security_check_cookie@4
  0001f	b8 00 00 00 00	 mov	 eax, OFFSET __ehfuncinfo$?GetTeamUserData@ioUserTournament@@QAE?AUTeamUserData@@KABVioHashString@@@Z
  00024	e9 00 00 00 00	 jmp	 ___CxxFrameHandler3
text$x	ENDS
?GetTeamUserData@ioUserTournament@@QAE?AUTeamUserData@@KABVioHashString@@@Z ENDP ; ioUserTournament::GetTeamUserData
PUBLIC	?GetTeamUserName@ioUserTournament@@QAEAAVioHashString@@KK@Z ; ioUserTournament::GetTeamUserName
;	COMDAT ?stNull@?L@??GetTeamUserName@ioUserTournament@@QAEAAVioHashString@@KK@Z@4V3@A
; File c:\program files (x86)\microsoft visual studio 10.0\vc\include\vector
_BSS	SEGMENT
?stNull@?L@??GetTeamUserName@ioUserTournament@@QAEAAVioHashString@@KK@Z@4V3@A DB 010H DUP (?) ; `ioUserTournament::GetTeamUserName'::`11'::stNull
_BSS	ENDS
;	COMDAT ?$S3@?L@??GetTeamUserName@ioUserTournament@@QAEAAVioHashString@@KK@Z@4IA
_BSS	SEGMENT
?$S3@?L@??GetTeamUserName@ioUserTournament@@QAEAAVioHashString@@KK@Z@4IA DD 01H DUP (?) ; `ioUserTournament::GetTeamUserName'::`11'::$S3
_BSS	ENDS
;	COMDAT xdata$x
xdata$x	SEGMENT
__unwindtable$?GetTeamUserName@ioUserTournament@@QAEAAVioHashString@@KK@Z DD 0ffffffffH
	DD	FLAT:__unwindfunclet$?GetTeamUserName@ioUserTournament@@QAEAAVioHashString@@KK@Z$0
__ehfuncinfo$?GetTeamUserName@ioUserTournament@@QAEAAVioHashString@@KK@Z DD 019930522H
	DD	01H
	DD	FLAT:__unwindtable$?GetTeamUserName@ioUserTournament@@QAEAAVioHashString@@KK@Z
	DD	2 DUP(00H)
	DD	2 DUP(00H)
	DD	00H
	DD	01H
; Function compile flags: /Ogsp
; File d:\lost saga for developer\youtube\tutorial\source\src\lsclient\iousertournament.cpp
xdata$x	ENDS
;	COMDAT ?GetTeamUserName@ioUserTournament@@QAEAAVioHashString@@KK@Z
_TEXT	SEGMENT
__$EHRec$ = -12						; size = 12
_dwTeamIndex$ = 8					; size = 4
_dwUserIndex$ = 12					; size = 4
?GetTeamUserName@ioUserTournament@@QAEAAVioHashString@@KK@Z PROC ; ioUserTournament::GetTeamUserName, COMDAT
; _this$ = ecx

; 370  : {

  00000	6a 00		 push	 0
  00002	b8 00 00 00 00	 mov	 eax, __ehhandler$?GetTeamUserName@ioUserTournament@@QAEAAVioHashString@@KK@Z
  00007	e8 00 00 00 00	 call	 __EH_prolog3

; 371  : 	TeamDataVec::iterator iter = m_TeamDataList.begin();

  0000c	8b 41 04	 mov	 eax, DWORD PTR [ecx+4]

; 372  : 	for(;iter != m_TeamDataList.end();++iter)

  0000f	8b 71 08	 mov	 esi, DWORD PTR [ecx+8]
  00012	eb 22		 jmp	 SHORT $LN79@GetTeamUse@2
$LL23@GetTeamUse@2:

; 373  : 	{
; 374  : 		TeamData &rkTeamData = *iter;
; 375  : 		if( rkTeamData.m_dwTeamIndex == dwTeamIndex )

  00014	8b 48 04	 mov	 ecx, DWORD PTR [eax+4]
  00017	3b 4d 08	 cmp	 ecx, DWORD PTR _dwTeamIndex$[ebp]
  0001a	75 17		 jne	 SHORT $LN8@GetTeamUse@2

; 376  : 		{
; 377  : 			TeamUserVec::iterator iter2 = rkTeamData.m_TeamUserList.begin();

  0001c	8b 48 1c	 mov	 ecx, DWORD PTR [eax+28]

; 378  : 			for(;iter2 != rkTeamData.m_TeamUserList.end();++iter2)

  0001f	8b 50 20	 mov	 edx, DWORD PTR [eax+32]
  00022	eb 0b		 jmp	 SHORT $LN80@GetTeamUse@2
$LL53@GetTeamUse@2:

; 379  : 			{
; 380  : 				TeamUserData &rkUserData = *iter2;
; 381  : 				if( rkUserData.m_dwUserIndex == dwUserIndex )

  00024	8b 79 04	 mov	 edi, DWORD PTR [ecx+4]
  00027	3b 7d 0c	 cmp	 edi, DWORD PTR _dwUserIndex$[ebp]
  0002a	74 44		 je	 SHORT $LN75@GetTeamUse@2

; 378  : 			for(;iter2 != rkTeamData.m_TeamUserList.end();++iter2)

  0002c	83 c1 18	 add	 ecx, 24			; 00000018H
$LN80@GetTeamUse@2:
  0002f	3b ca		 cmp	 ecx, edx
  00031	75 f1		 jne	 SHORT $LL53@GetTeamUse@2
$LN8@GetTeamUse@2:

; 372  : 	for(;iter != m_TeamDataList.end();++iter)

  00033	83 c0 2c	 add	 eax, 44			; 0000002cH
$LN79@GetTeamUse@2:
  00036	3b c6		 cmp	 eax, esi
  00038	75 da		 jne	 SHORT $LL23@GetTeamUse@2

; 383  : 			}
; 384  : 		}
; 385  : 	}
; 386  : 
; 387  : 	static ioHashString stNull;

  0003a	f6 05 00 00 00
	00 01		 test	 BYTE PTR ?$S3@?L@??GetTeamUserName@ioUserTournament@@QAEAAVioHashString@@KK@Z@4IA, 1
  00041	be 00 00 00 00	 mov	 esi, OFFSET ?stNull@?L@??GetTeamUserName@ioUserTournament@@QAEAAVioHashString@@KK@Z@4V3@A
  00046	75 1e		 jne	 SHORT $LN1@GetTeamUse@2
  00048	83 0d 00 00 00
	00 01		 or	 DWORD PTR ?$S3@?L@??GetTeamUserName@ioUserTournament@@QAEAAVioHashString@@KK@Z@4IA, 1
  0004f	83 65 fc 00	 and	 DWORD PTR __$EHRec$[ebp+8], 0
  00053	8b ce		 mov	 ecx, esi
  00055	ff 15 00 00 00
	00		 call	 DWORD PTR __imp_??0ioHashString@@QAE@XZ
  0005b	68 00 00 00 00	 push	 OFFSET ??__FstNull@?L@??GetTeamUserName@ioUserTournament@@QAEAAVioHashString@@KK@Z@YAXXZ ; `ioUserTournament::GetTeamUserName'::`11'::`dynamic atexit destructor for 'stNull''
  00060	e8 00 00 00 00	 call	 _atexit
  00065	59		 pop	 ecx
$LN1@GetTeamUse@2:

; 388  : 	return stNull;

  00066	8b c6		 mov	 eax, esi
$LN10@GetTeamUse@2:

; 389  : }

  00068	e8 00 00 00 00	 call	 __EH_epilog3
  0006d	c2 08 00	 ret	 8
$LN75@GetTeamUse@2:

; 382  : 					return rkUserData.m_szNick;

  00070	8d 41 08	 lea	 eax, DWORD PTR [ecx+8]
  00073	eb f3		 jmp	 SHORT $LN10@GetTeamUse@2
_TEXT	ENDS
;	COMDAT text$x
text$x	SEGMENT
__unwindfunclet$?GetTeamUserName@ioUserTournament@@QAEAAVioHashString@@KK@Z$0:
  00000	a1 00 00 00 00	 mov	 eax, DWORD PTR ?$S3@?L@??GetTeamUserName@ioUserTournament@@QAEAAVioHashString@@KK@Z@4IA
  00005	83 e0 fe	 and	 eax, -2			; fffffffeH
  00008	a3 00 00 00 00	 mov	 DWORD PTR ?$S3@?L@??GetTeamUserName@ioUserTournament@@QAEAAVioHashString@@KK@Z@4IA, eax
  0000d	c3		 ret	 0
__ehhandler$?GetTeamUserName@ioUserTournament@@QAEAAVioHashString@@KK@Z:
  0000e	8b 54 24 08	 mov	 edx, DWORD PTR [esp+8]
  00012	8d 42 0c	 lea	 eax, DWORD PTR [edx+12]
  00015	8b 4a f0	 mov	 ecx, DWORD PTR [edx-16]
  00018	33 c8		 xor	 ecx, eax
  0001a	e8 00 00 00 00	 call	 @__security_check_cookie@4
  0001f	b8 00 00 00 00	 mov	 eax, OFFSET __ehfuncinfo$?GetTeamUserName@ioUserTournament@@QAEAAVioHashString@@KK@Z
  00024	e9 00 00 00 00	 jmp	 ___CxxFrameHandler3
text$x	ENDS
?GetTeamUserName@ioUserTournament@@QAEAAVioHashString@@KK@Z ENDP ; ioUserTournament::GetTeamUserName
PUBLIC	?GetCurrentTeamUserCount@ioUserTournament@@QAEHK@Z ; ioUserTournament::GetCurrentTeamUserCount
; Function compile flags: /Ogsp
;	COMDAT ?GetCurrentTeamUserCount@ioUserTournament@@QAEHK@Z
_TEXT	SEGMENT
_dwTourIndex$ = 8					; size = 4
?GetCurrentTeamUserCount@ioUserTournament@@QAEHK@Z PROC	; ioUserTournament::GetCurrentTeamUserCount, COMDAT
; _this$ = ecx

; 401  : {

  00000	55		 push	 ebp
  00001	8b ec		 mov	 ebp, esp

; 402  : 	TeamDataVec::iterator iter = m_TeamDataList.begin();

  00003	8b 51 04	 mov	 edx, DWORD PTR [ecx+4]

; 403  : 	for(;iter != m_TeamDataList.end();++iter)

  00006	8b 49 08	 mov	 ecx, DWORD PTR [ecx+8]
  00009	eb 0a		 jmp	 SHORT $LN42@GetCurrent
$LL17@GetCurrent:

; 404  : 	{
; 405  : 		TeamData &rkTeamData = *iter;
; 406  : 		if( rkTeamData.m_dwTourIndex == dwTourIndex )

  0000b	8b 02		 mov	 eax, DWORD PTR [edx]
  0000d	3b 45 08	 cmp	 eax, DWORD PTR _dwTourIndex$[ebp]
  00010	74 0d		 je	 SHORT $LN40@GetCurrent

; 403  : 	for(;iter != m_TeamDataList.end();++iter)

  00012	83 c2 2c	 add	 edx, 44			; 0000002cH
$LN42@GetCurrent:
  00015	3b d1		 cmp	 edx, ecx
  00017	75 f2		 jne	 SHORT $LL17@GetCurrent

; 408  : 	}
; 409  : 	return 0;

  00019	33 c0		 xor	 eax, eax
$LN5@GetCurrent:

; 410  : }

  0001b	5d		 pop	 ebp
  0001c	c2 04 00	 ret	 4
$LN40@GetCurrent:

; 407  : 			return rkTeamData.m_TeamUserList.size();

  0001f	8b 42 20	 mov	 eax, DWORD PTR [edx+32]
  00022	2b 42 1c	 sub	 eax, DWORD PTR [edx+28]
  00025	6a 18		 push	 24			; 00000018H
  00027	99		 cdq
  00028	59		 pop	 ecx
  00029	f7 f9		 idiv	 ecx
  0002b	eb ee		 jmp	 SHORT $LN5@GetCurrent
?GetCurrentTeamUserCount@ioUserTournament@@QAEHK@Z ENDP	; ioUserTournament::GetCurrentTeamUserCount
_TEXT	ENDS
PUBLIC	?IsTourTeam@ioUserTournament@@QAE_NK@Z		; ioUserTournament::IsTourTeam
; Function compile flags: /Ogsp
;	COMDAT ?IsTourTeam@ioUserTournament@@QAE_NK@Z
_TEXT	SEGMENT
_dwTourIndex$ = 8					; size = 4
?IsTourTeam@ioUserTournament@@QAE_NK@Z PROC		; ioUserTournament::IsTourTeam, COMDAT
; _this$ = ecx

; 413  : {

  00000	55		 push	 ebp
  00001	8b ec		 mov	 ebp, esp

; 414  : 	TeamDataVec::iterator iter = m_TeamDataList.begin();

  00003	8b 41 04	 mov	 eax, DWORD PTR [ecx+4]

; 415  : 	for(;iter != m_TeamDataList.end(); ++iter)

  00006	8b 49 08	 mov	 ecx, DWORD PTR [ecx+8]
  00009	eb 0a		 jmp	 SHORT $LN40@IsTourTeam
$LL17@IsTourTeam:

; 416  : 	{
; 417  : 		TeamData &rkTeamData = *iter;
; 418  : 		if( rkTeamData.m_dwTourIndex == dwTourIndex )

  0000b	8b 10		 mov	 edx, DWORD PTR [eax]
  0000d	3b 55 08	 cmp	 edx, DWORD PTR _dwTourIndex$[ebp]
  00010	74 0d		 je	 SHORT $LN38@IsTourTeam

; 415  : 	for(;iter != m_TeamDataList.end(); ++iter)

  00012	83 c0 2c	 add	 eax, 44			; 0000002cH
$LN40@IsTourTeam:
  00015	3b c1		 cmp	 eax, ecx
  00017	75 f2		 jne	 SHORT $LL17@IsTourTeam

; 420  : 	}
; 421  : 	return false;

  00019	32 c0		 xor	 al, al
$LN5@IsTourTeam:

; 422  : }

  0001b	5d		 pop	 ebp
  0001c	c2 04 00	 ret	 4
$LN38@IsTourTeam:

; 419  : 			return true;

  0001f	b0 01		 mov	 al, 1
  00021	eb f8		 jmp	 SHORT $LN5@IsTourTeam
?IsTourTeam@ioUserTournament@@QAE_NK@Z ENDP		; ioUserTournament::IsTourTeam
_TEXT	ENDS
PUBLIC	?IsCheerTeam@ioUserTournament@@QAE_NKK@Z	; ioUserTournament::IsCheerTeam
; Function compile flags: /Ogsp
;	COMDAT ?IsCheerTeam@ioUserTournament@@QAE_NKK@Z
_TEXT	SEGMENT
_dwTourIdx$ = 8						; size = 4
_dwTeamIdx$ = 12					; size = 4
?IsCheerTeam@ioUserTournament@@QAE_NKK@Z PROC		; ioUserTournament::IsCheerTeam, COMDAT
; _this$ = ecx

; 441  : {

  00000	55		 push	 ebp
  00001	8b ec		 mov	 ebp, esp

; 442  : 	CheerTeamInfoVec::const_iterator iter = m_CheerList.begin();

  00003	8b 41 14	 mov	 eax, DWORD PTR [ecx+20]

; 443  : 	for( ; iter != m_CheerList.end(); ++iter )

  00006	8b 49 18	 mov	 ecx, DWORD PTR [ecx+24]
  00009	eb 12		 jmp	 SHORT $LN36@IsCheerTea
$LL15@IsCheerTea:

; 444  : 	{
; 445  : 		const CheerTeamInfo& rkCheerData = *iter;
; 446  : 		if( rkCheerData.m_dwTourIndex == dwTourIdx && rkCheerData.m_dwTeamIndex == dwTeamIdx )

  0000b	8b 10		 mov	 edx, DWORD PTR [eax]
  0000d	3b 55 08	 cmp	 edx, DWORD PTR _dwTourIdx$[ebp]
  00010	75 08		 jne	 SHORT $LN3@IsCheerTea
  00012	8b 50 04	 mov	 edx, DWORD PTR [eax+4]
  00015	3b 55 0c	 cmp	 edx, DWORD PTR _dwTeamIdx$[ebp]
  00018	74 0d		 je	 SHORT $LN34@IsCheerTea
$LN3@IsCheerTea:

; 443  : 	for( ; iter != m_CheerList.end(); ++iter )

  0001a	83 c0 10	 add	 eax, 16			; 00000010H
$LN36@IsCheerTea:
  0001d	3b c1		 cmp	 eax, ecx
  0001f	75 ea		 jne	 SHORT $LL15@IsCheerTea

; 448  : 	}
; 449  : 
; 450  : 	return false;

  00021	32 c0		 xor	 al, al
$LN5@IsCheerTea:

; 451  : }

  00023	5d		 pop	 ebp
  00024	c2 08 00	 ret	 8
$LN34@IsCheerTea:

; 447  : 			return true;

  00027	b0 01		 mov	 al, 1
  00029	eb f8		 jmp	 SHORT $LN5@IsCheerTea
?IsCheerTeam@ioUserTournament@@QAE_NKK@Z ENDP		; ioUserTournament::IsCheerTeam
_TEXT	ENDS
PUBLIC	?IsCheerTournament@ioUserTournament@@QAE_NK@Z	; ioUserTournament::IsCheerTournament
; Function compile flags: /Ogsp
;	COMDAT ?IsCheerTournament@ioUserTournament@@QAE_NK@Z
_TEXT	SEGMENT
_dwTourIdx$ = 8						; size = 4
?IsCheerTournament@ioUserTournament@@QAE_NK@Z PROC	; ioUserTournament::IsCheerTournament, COMDAT
; _this$ = ecx

; 454  : {

  00000	55		 push	 ebp
  00001	8b ec		 mov	 ebp, esp

; 455  : 	CheerTeamInfoVec::const_iterator iter = m_CheerList.begin();

  00003	8b 41 14	 mov	 eax, DWORD PTR [ecx+20]

; 456  : 	for( ; iter != m_CheerList.end(); ++iter )

  00006	8b 49 18	 mov	 ecx, DWORD PTR [ecx+24]
  00009	eb 0a		 jmp	 SHORT $LN36@IsCheerTou
$LL15@IsCheerTou:

; 457  : 	{
; 458  : 		const CheerTeamInfo& rkCheerData = *iter;
; 459  : 		if( rkCheerData.m_dwTourIndex == dwTourIdx )

  0000b	8b 10		 mov	 edx, DWORD PTR [eax]
  0000d	3b 55 08	 cmp	 edx, DWORD PTR _dwTourIdx$[ebp]
  00010	74 0d		 je	 SHORT $LN34@IsCheerTou

; 456  : 	for( ; iter != m_CheerList.end(); ++iter )

  00012	83 c0 10	 add	 eax, 16			; 00000010H
$LN36@IsCheerTou:
  00015	3b c1		 cmp	 eax, ecx
  00017	75 f2		 jne	 SHORT $LL15@IsCheerTou

; 461  : 	}
; 462  : 
; 463  : 	return false;

  00019	32 c0		 xor	 al, al
$LN5@IsCheerTou:

; 464  : }

  0001b	5d		 pop	 ebp
  0001c	c2 04 00	 ret	 4
$LN34@IsCheerTou:

; 460  : 			return true;

  0001f	b0 01		 mov	 al, 1
  00021	eb f8		 jmp	 SHORT $LN5@IsCheerTou
?IsCheerTournament@ioUserTournament@@QAE_NK@Z ENDP	; ioUserTournament::IsCheerTournament
_TEXT	ENDS
PUBLIC	?GetCheerTeam@ioUserTournament@@QAEABUCheerTeamInfo@@K@Z ; ioUserTournament::GetCheerTeam
;	COMDAT ?kNnone@?1??GetCheerTeam@ioUserTournament@@QAEABUCheerTeamInfo@@K@Z@4U3@A
; File c:\program files (x86)\microsoft visual studio 10.0\vc\include\vector
_BSS	SEGMENT
?kNnone@?1??GetCheerTeam@ioUserTournament@@QAEABUCheerTeamInfo@@K@Z@4U3@A DB 010H DUP (?) ; `ioUserTournament::GetCheerTeam'::`2'::kNnone
_BSS	ENDS
;	COMDAT ?$S4@?1??GetCheerTeam@ioUserTournament@@QAEABUCheerTeamInfo@@K@Z@4IA
_BSS	SEGMENT
?$S4@?1??GetCheerTeam@ioUserTournament@@QAEABUCheerTeamInfo@@K@Z@4IA DD 01H DUP (?) ; `ioUserTournament::GetCheerTeam'::`2'::$S4
; Function compile flags: /Ogsp
; File d:\lost saga for developer\youtube\tutorial\source\src\lsclient\iousertournament.cpp
_BSS	ENDS
;	COMDAT ?GetCheerTeam@ioUserTournament@@QAEABUCheerTeamInfo@@K@Z
_TEXT	SEGMENT
_dwTourIdx$ = 8						; size = 4
?GetCheerTeam@ioUserTournament@@QAEABUCheerTeamInfo@@K@Z PROC ; ioUserTournament::GetCheerTeam, COMDAT
; _this$ = ecx

; 490  : {

  00000	55		 push	 ebp
  00001	8b ec		 mov	 ebp, esp

; 491  : 	static CheerTeamInfo kNnone;

  00003	f6 05 00 00 00
	00 01		 test	 BYTE PTR ?$S4@?1??GetCheerTeam@ioUserTournament@@QAEABUCheerTeamInfo@@K@Z@4IA, 1
  0000a	75 1f		 jne	 SHORT $LN9@GetCheerTe
  0000c	83 0d 00 00 00
	00 01		 or	 DWORD PTR ?$S4@?1??GetCheerTeam@ioUserTournament@@QAEABUCheerTeamInfo@@K@Z@4IA, 1
  00013	33 c0		 xor	 eax, eax
  00015	83 0d 0c 00 00
	00 ff		 or	 DWORD PTR ?kNnone@?1??GetCheerTeam@ioUserTournament@@QAEABUCheerTeamInfo@@K@Z@4U3@A+12, -1
  0001c	a3 00 00 00 00	 mov	 DWORD PTR ?kNnone@?1??GetCheerTeam@ioUserTournament@@QAEABUCheerTeamInfo@@K@Z@4U3@A, eax
  00021	a3 04 00 00 00	 mov	 DWORD PTR ?kNnone@?1??GetCheerTeam@ioUserTournament@@QAEABUCheerTeamInfo@@K@Z@4U3@A+4, eax
  00026	a3 08 00 00 00	 mov	 DWORD PTR ?kNnone@?1??GetCheerTeam@ioUserTournament@@QAEABUCheerTeamInfo@@K@Z@4U3@A+8, eax
$LN9@GetCheerTe:

; 492  : 	CheerTeamInfoVec::const_iterator iter = m_CheerList.begin();

  0002b	8b 41 14	 mov	 eax, DWORD PTR [ecx+20]

; 493  : 	for( ; iter != m_CheerList.end(); ++iter )

  0002e	8b 49 18	 mov	 ecx, DWORD PTR [ecx+24]
  00031	eb 0a		 jmp	 SHORT $LN40@GetCheerTe
$LL19@GetCheerTe:

; 494  : 	{
; 495  : 		const CheerTeamInfo& rkCheerData = *iter;
; 496  : 		if( rkCheerData.m_dwTourIndex == dwTourIdx )

  00033	8b 10		 mov	 edx, DWORD PTR [eax]
  00035	3b 55 08	 cmp	 edx, DWORD PTR _dwTourIdx$[ebp]
  00038	74 0c		 je	 SHORT $LN6@GetCheerTe

; 493  : 	for( ; iter != m_CheerList.end(); ++iter )

  0003a	83 c0 10	 add	 eax, 16			; 00000010H
$LN40@GetCheerTe:
  0003d	3b c1		 cmp	 eax, ecx
  0003f	75 f2		 jne	 SHORT $LL19@GetCheerTe

; 497  : 			return rkCheerData;
; 498  : 	}
; 499  : 
; 500  : 	return kNnone;

  00041	b8 00 00 00 00	 mov	 eax, OFFSET ?kNnone@?1??GetCheerTeam@ioUserTournament@@QAEABUCheerTeamInfo@@K@Z@4U3@A
$LN6@GetCheerTe:

; 501  : }

  00046	5d		 pop	 ebp
  00047	c2 04 00	 ret	 4
?GetCheerTeam@ioUserTournament@@QAEABUCheerTeamInfo@@K@Z ENDP ; ioUserTournament::GetCheerTeam
_TEXT	ENDS
PUBLIC	?GetCheerTeamNotConst@ioUserTournament@@QAEAAUCheerTeamInfo@@K@Z ; ioUserTournament::GetCheerTeamNotConst
;	COMDAT ?kNnone@?1??GetCheerTeamNotConst@ioUserTournament@@QAEAAUCheerTeamInfo@@K@Z@4U3@A
; File c:\program files (x86)\microsoft visual studio 10.0\vc\include\vector
_BSS	SEGMENT
?kNnone@?1??GetCheerTeamNotConst@ioUserTournament@@QAEAAUCheerTeamInfo@@K@Z@4U3@A DB 010H DUP (?) ; `ioUserTournament::GetCheerTeamNotConst'::`2'::kNnone
_BSS	ENDS
;	COMDAT ?$S5@?1??GetCheerTeamNotConst@ioUserTournament@@QAEAAUCheerTeamInfo@@K@Z@4IA
_BSS	SEGMENT
?$S5@?1??GetCheerTeamNotConst@ioUserTournament@@QAEAAUCheerTeamInfo@@K@Z@4IA DD 01H DUP (?) ; `ioUserTournament::GetCheerTeamNotConst'::`2'::$S5
; Function compile flags: /Ogsp
; File d:\lost saga for developer\youtube\tutorial\source\src\lsclient\iousertournament.cpp
_BSS	ENDS
;	COMDAT ?GetCheerTeamNotConst@ioUserTournament@@QAEAAUCheerTeamInfo@@K@Z
_TEXT	SEGMENT
_dwTourIdx$ = 8						; size = 4
?GetCheerTeamNotConst@ioUserTournament@@QAEAAUCheerTeamInfo@@K@Z PROC ; ioUserTournament::GetCheerTeamNotConst, COMDAT
; _this$ = ecx

; 504  : {

  00000	55		 push	 ebp
  00001	8b ec		 mov	 ebp, esp

; 505  : 	static CheerTeamInfo kNnone;

  00003	f6 05 00 00 00
	00 01		 test	 BYTE PTR ?$S5@?1??GetCheerTeamNotConst@ioUserTournament@@QAEAAUCheerTeamInfo@@K@Z@4IA, 1
  0000a	75 1f		 jne	 SHORT $LN9@GetCheerTe@2
  0000c	83 0d 00 00 00
	00 01		 or	 DWORD PTR ?$S5@?1??GetCheerTeamNotConst@ioUserTournament@@QAEAAUCheerTeamInfo@@K@Z@4IA, 1
  00013	33 c0		 xor	 eax, eax
  00015	83 0d 0c 00 00
	00 ff		 or	 DWORD PTR ?kNnone@?1??GetCheerTeamNotConst@ioUserTournament@@QAEAAUCheerTeamInfo@@K@Z@4U3@A+12, -1
  0001c	a3 00 00 00 00	 mov	 DWORD PTR ?kNnone@?1??GetCheerTeamNotConst@ioUserTournament@@QAEAAUCheerTeamInfo@@K@Z@4U3@A, eax
  00021	a3 04 00 00 00	 mov	 DWORD PTR ?kNnone@?1??GetCheerTeamNotConst@ioUserTournament@@QAEAAUCheerTeamInfo@@K@Z@4U3@A+4, eax
  00026	a3 08 00 00 00	 mov	 DWORD PTR ?kNnone@?1??GetCheerTeamNotConst@ioUserTournament@@QAEAAUCheerTeamInfo@@K@Z@4U3@A+8, eax
$LN9@GetCheerTe@2:

; 506  : 	CheerTeamInfoVec::iterator iter = m_CheerList.begin();

  0002b	8b 41 14	 mov	 eax, DWORD PTR [ecx+20]

; 507  : 	for( ; iter != m_CheerList.end(); ++iter )

  0002e	8b 49 18	 mov	 ecx, DWORD PTR [ecx+24]
  00031	eb 0a		 jmp	 SHORT $LN44@GetCheerTe@2
$LL21@GetCheerTe@2:

; 508  : 	{
; 509  : 		CheerTeamInfo& rkCheerData = *iter;
; 510  : 		if( rkCheerData.m_dwTourIndex == dwTourIdx )

  00033	8b 10		 mov	 edx, DWORD PTR [eax]
  00035	3b 55 08	 cmp	 edx, DWORD PTR _dwTourIdx$[ebp]
  00038	74 0c		 je	 SHORT $LN6@GetCheerTe@2

; 507  : 	for( ; iter != m_CheerList.end(); ++iter )

  0003a	83 c0 10	 add	 eax, 16			; 00000010H
$LN44@GetCheerTe@2:
  0003d	3b c1		 cmp	 eax, ecx
  0003f	75 f2		 jne	 SHORT $LL21@GetCheerTe@2

; 511  : 			return rkCheerData;
; 512  : 	}
; 513  : 
; 514  : 	return kNnone;

  00041	b8 00 00 00 00	 mov	 eax, OFFSET ?kNnone@?1??GetCheerTeamNotConst@ioUserTournament@@QAEAAUCheerTeamInfo@@K@Z@4U3@A
$LN6@GetCheerTe@2:

; 515  : }

  00046	5d		 pop	 ebp
  00047	c2 04 00	 ret	 4
?GetCheerTeamNotConst@ioUserTournament@@QAEAAUCheerTeamInfo@@K@Z ENDP ; ioUserTournament::GetCheerTeamNotConst
_TEXT	ENDS
PUBLIC	??$_Destroy_range@V?$allocator@UCheerTeamInfo@@@std@@@std@@YAXPAUCheerTeamInfo@@0AAV?$allocator@UCheerTeamInfo@@@0@U_Nonscalar_ptr_iterator_tag@0@@Z ; std::_Destroy_range<std::allocator<CheerTeamInfo> >
; Function compile flags: /Ogsp
; File c:\program files (x86)\microsoft visual studio 10.0\vc\include\xmemory
;	COMDAT ??$_Destroy_range@V?$allocator@UCheerTeamInfo@@@std@@@std@@YAXPAUCheerTeamInfo@@0AAV?$allocator@UCheerTeamInfo@@@0@U_Nonscalar_ptr_iterator_tag@0@@Z
_TEXT	SEGMENT
__First$ = 8						; size = 4
__Last$ = 12						; size = 4
__Al$ = 16						; size = 4
___formal$ = 20						; size = 1
??$_Destroy_range@V?$allocator@UCheerTeamInfo@@@std@@@std@@YAXPAUCheerTeamInfo@@0AAV?$allocator@UCheerTeamInfo@@@0@U_Nonscalar_ptr_iterator_tag@0@@Z PROC ; std::_Destroy_range<std::allocator<CheerTeamInfo> >, COMDAT

; 96   : 	for (; _First != _Last; ++_First)
; 97   : 		_Dest_val(_Al, _First);
; 98   : 	}

  00000	c3		 ret	 0
??$_Destroy_range@V?$allocator@UCheerTeamInfo@@@std@@@std@@YAXPAUCheerTeamInfo@@0AAV?$allocator@UCheerTeamInfo@@@0@U_Nonscalar_ptr_iterator_tag@0@@Z ENDP ; std::_Destroy_range<std::allocator<CheerTeamInfo> >
_TEXT	ENDS
PUBLIC	??$_Uninit_move@PAUCheerTeamInfo@@PAU1@V?$allocator@UCheerTeamInfo@@@std@@U1@@std@@YAPAUCheerTeamInfo@@PAU1@00AAV?$allocator@UCheerTeamInfo@@@0@0U_Nonscalar_ptr_iterator_tag@0@@Z ; std::_Uninit_move<CheerTeamInfo *,CheerTeamInfo *,std::allocator<CheerTeamInfo>,CheerTeamInfo>
; Function compile flags: /Ogsp
; File c:\program files (x86)\microsoft visual studio 10.0\vc\include\memory
;	COMDAT ??$_Uninit_move@PAUCheerTeamInfo@@PAU1@V?$allocator@UCheerTeamInfo@@@std@@U1@@std@@YAPAUCheerTeamInfo@@PAU1@00AAV?$allocator@UCheerTeamInfo@@@0@0U_Nonscalar_ptr_iterator_tag@0@@Z
_TEXT	SEGMENT
__First$ = 8						; size = 4
__Last$ = 12						; size = 4
__Dest$ = 16						; size = 4
__Al$ = 20						; size = 4
___formal$ = 24						; size = 4
___formal$ = 28						; size = 1
??$_Uninit_move@PAUCheerTeamInfo@@PAU1@V?$allocator@UCheerTeamInfo@@@std@@U1@@std@@YAPAUCheerTeamInfo@@PAU1@00AAV?$allocator@UCheerTeamInfo@@@0@0U_Nonscalar_ptr_iterator_tag@0@@Z PROC ; std::_Uninit_move<CheerTeamInfo *,CheerTeamInfo *,std::allocator<CheerTeamInfo>,CheerTeamInfo>, COMDAT

; 424  : 	{	// move [_First, _Last) to raw _Dest, using _Al, arbitrary type

  00000	55		 push	 ebp
  00001	8b ec		 mov	 ebp, esp
  00003	56		 push	 esi

; 425  : 	_DEBUG_RANGE(_First, _Last);
; 426  : 	_DEBUG_POINTER(_Dest);
; 427  : 	_FwdIt _Next = _Dest;
; 428  : 
; 429  : 	_TRY_BEGIN
; 430  : 	for (; _First != _Last; ++_Dest, ++_First)

  00004	8b 75 08	 mov	 esi, DWORD PTR __First$[ebp]
  00007	eb 16		 jmp	 SHORT $LN24@Uninit_mov
$LL6@Uninit_mov:

; 431  : 		_Cons_val(_Al, _Dest, (_Valty &&)*_First);

  00009	56		 push	 esi
  0000a	ff 75 10	 push	 DWORD PTR __Dest$[ebp]
  0000d	ff 75 14	 push	 DWORD PTR __Al$[ebp]
  00010	e8 00 00 00 00	 call	 ??$_Cons_val@V?$allocator@UCheerTeamInfo@@@std@@UCheerTeamInfo@@U3@@std@@YAXAAV?$allocator@UCheerTeamInfo@@@0@PAUCheerTeamInfo@@$$QAU2@@Z ; std::_Cons_val<std::allocator<CheerTeamInfo>,CheerTeamInfo,CheerTeamInfo>
  00015	83 45 10 10	 add	 DWORD PTR __Dest$[ebp], 16 ; 00000010H
  00019	83 c4 0c	 add	 esp, 12			; 0000000cH
  0001c	83 c6 10	 add	 esi, 16			; 00000010H
$LN24@Uninit_mov:

; 425  : 	_DEBUG_RANGE(_First, _Last);
; 426  : 	_DEBUG_POINTER(_Dest);
; 427  : 	_FwdIt _Next = _Dest;
; 428  : 
; 429  : 	_TRY_BEGIN
; 430  : 	for (; _First != _Last; ++_Dest, ++_First)

  0001f	3b 75 0c	 cmp	 esi, DWORD PTR __Last$[ebp]
  00022	75 e5		 jne	 SHORT $LL6@Uninit_mov

; 432  : 	_CATCH_ALL
; 433  : 	for (; _Next != _Dest; ++_Next)
; 434  : 		_Dest_val(_Al, _Next);
; 435  : 	_RERAISE;
; 436  : 	_CATCH_END
; 437  : 	return (_Dest);

  00024	8b 45 10	 mov	 eax, DWORD PTR __Dest$[ebp]
  00027	5e		 pop	 esi

; 438  : 	}

  00028	5d		 pop	 ebp
  00029	c3		 ret	 0
??$_Uninit_move@PAUCheerTeamInfo@@PAU1@V?$allocator@UCheerTeamInfo@@@std@@U1@@std@@YAPAUCheerTeamInfo@@PAU1@00AAV?$allocator@UCheerTeamInfo@@@0@0U_Nonscalar_ptr_iterator_tag@0@@Z ENDP ; std::_Uninit_move<CheerTeamInfo *,CheerTeamInfo *,std::allocator<CheerTeamInfo>,CheerTeamInfo>
_TEXT	ENDS
PUBLIC	?destroy@?$allocator@UTeamUserData@@@std@@QAEXPAUTeamUserData@@@Z ; std::allocator<TeamUserData>::destroy
; Function compile flags: /Ogsp
; File c:\program files (x86)\microsoft visual studio 10.0\vc\include\xmemory
;	COMDAT ?destroy@?$allocator@UTeamUserData@@@std@@QAEXPAUTeamUserData@@@Z
_TEXT	SEGMENT
__Ptr$ = 8						; size = 4
?destroy@?$allocator@UTeamUserData@@@std@@QAEXPAUTeamUserData@@@Z PROC ; std::allocator<TeamUserData>::destroy, COMDAT
; _this$ = ecx

; 212  : 		{	// destroy object at _Ptr

  00000	55		 push	 ebp
  00001	8b ec		 mov	 ebp, esp

; 213  : 		_Destroy(_Ptr);

  00003	8b 4d 08	 mov	 ecx, DWORD PTR __Ptr$[ebp]
  00006	83 c1 08	 add	 ecx, 8
  00009	ff 15 00 00 00
	00		 call	 DWORD PTR __imp_??1ioHashString@@QAE@XZ

; 214  : 		}

  0000f	5d		 pop	 ebp
  00010	c2 04 00	 ret	 4
?destroy@?$allocator@UTeamUserData@@@std@@QAEXPAUTeamUserData@@@Z ENDP ; std::allocator<TeamUserData>::destroy
_TEXT	ENDS
PUBLIC	?UpdateCheerTeamPage@ioUserTournament@@QAEXKH@Z	; ioUserTournament::UpdateCheerTeamPage
; Function compile flags: /Ogsp
; File d:\lost saga for developer\youtube\tutorial\source\src\lsclient\iousertournament.cpp
;	COMDAT ?UpdateCheerTeamPage@ioUserTournament@@QAEXKH@Z
_TEXT	SEGMENT
_dwTourIdx$ = 8						; size = 4
_iUpdatePage$ = 12					; size = 4
?UpdateCheerTeamPage@ioUserTournament@@QAEXKH@Z PROC	; ioUserTournament::UpdateCheerTeamPage, COMDAT
; _this$ = ecx

; 478  : {

  00000	55		 push	 ebp
  00001	8b ec		 mov	 ebp, esp
  00003	57		 push	 edi

; 479  : 	if( !IsCheerTournament( dwTourIdx ) )

  00004	ff 75 08	 push	 DWORD PTR _dwTourIdx$[ebp]
  00007	8b f9		 mov	 edi, ecx
  00009	e8 00 00 00 00	 call	 ?IsCheerTournament@ioUserTournament@@QAE_NK@Z ; ioUserTournament::IsCheerTournament
  0000e	84 c0		 test	 al, al
  00010	74 16		 je	 SHORT $LN3@UpdateChee

; 480  : 		return;
; 481  : 
; 482  : 	if( iUpdatePage < 0 )

  00012	56		 push	 esi
  00013	8b 75 0c	 mov	 esi, DWORD PTR _iUpdatePage$[ebp]
  00016	85 f6		 test	 esi, esi
  00018	78 0d		 js	 SHORT $LN5@UpdateChee

; 483  : 		return;
; 484  : 
; 485  : 	CheerTeamInfo& kCheerTeam = GetCheerTeamNotConst( dwTourIdx );	

  0001a	ff 75 08	 push	 DWORD PTR _dwTourIdx$[ebp]
  0001d	8b cf		 mov	 ecx, edi
  0001f	e8 00 00 00 00	 call	 ?GetCheerTeamNotConst@ioUserTournament@@QAEAAUCheerTeamInfo@@K@Z ; ioUserTournament::GetCheerTeamNotConst

; 486  : 	kCheerTeam.m_iMyCheerTeamPage = iUpdatePage;

  00024	89 70 0c	 mov	 DWORD PTR [eax+12], esi
$LN5@UpdateChee:
  00027	5e		 pop	 esi
$LN3@UpdateChee:
  00028	5f		 pop	 edi

; 487  : }

  00029	5d		 pop	 ebp
  0002a	c2 08 00	 ret	 8
?UpdateCheerTeamPage@ioUserTournament@@QAEXKH@Z ENDP	; ioUserTournament::UpdateCheerTeamPage
_TEXT	ENDS
PUBLIC	??$_Destroy_range@V?$allocator@UCheerTeamInfo@@@std@@@std@@YAXPAUCheerTeamInfo@@0AAV?$allocator@UCheerTeamInfo@@@0@@Z ; std::_Destroy_range<std::allocator<CheerTeamInfo> >
; Function compile flags: /Ogsp
; File c:\program files (x86)\microsoft visual studio 10.0\vc\include\xmemory
;	COMDAT ??$_Destroy_range@V?$allocator@UCheerTeamInfo@@@std@@@std@@YAXPAUCheerTeamInfo@@0AAV?$allocator@UCheerTeamInfo@@@0@@Z
_TEXT	SEGMENT
__First$ = 8						; size = 4
__Last$ = 12						; size = 4
__Al$ = 16						; size = 4
??$_Destroy_range@V?$allocator@UCheerTeamInfo@@@std@@@std@@YAXPAUCheerTeamInfo@@0AAV?$allocator@UCheerTeamInfo@@@0@@Z PROC ; std::_Destroy_range<std::allocator<CheerTeamInfo> >, COMDAT

; 88   : 	_Destroy_range(_First, _Last, _Al, _Ptr_cat(_First, _Last));
; 89   : 	}

  00000	c3		 ret	 0
??$_Destroy_range@V?$allocator@UCheerTeamInfo@@@std@@@std@@YAXPAUCheerTeamInfo@@0AAV?$allocator@UCheerTeamInfo@@@0@@Z ENDP ; std::_Destroy_range<std::allocator<CheerTeamInfo> >
_TEXT	ENDS
PUBLIC	??$_Uninitialized_move@PAUCheerTeamInfo@@PAU1@V?$allocator@UCheerTeamInfo@@@std@@@std@@YAPAUCheerTeamInfo@@PAU1@00AAV?$allocator@UCheerTeamInfo@@@0@@Z ; std::_Uninitialized_move<CheerTeamInfo *,CheerTeamInfo *,std::allocator<CheerTeamInfo> >
; Function compile flags: /Ogsp
; File c:\program files (x86)\microsoft visual studio 10.0\vc\include\memory
;	COMDAT ??$_Uninitialized_move@PAUCheerTeamInfo@@PAU1@V?$allocator@UCheerTeamInfo@@@std@@@std@@YAPAUCheerTeamInfo@@PAU1@00AAV?$allocator@UCheerTeamInfo@@@0@@Z
_TEXT	SEGMENT
__Cat$513308 = -4					; size = 1
__First$ = 8						; size = 4
__Last$ = 12						; size = 4
__Dest$ = 16						; size = 4
__Al$ = 20						; size = 4
??$_Uninitialized_move@PAUCheerTeamInfo@@PAU1@V?$allocator@UCheerTeamInfo@@@std@@@std@@YAPAUCheerTeamInfo@@PAU1@00AAV?$allocator@UCheerTeamInfo@@@0@@Z PROC ; std::_Uninitialized_move<CheerTeamInfo *,CheerTeamInfo *,std::allocator<CheerTeamInfo> >, COMDAT

; 469  : 	{	// move [_First, _Last) to raw _Dest, using _Al

  00000	55		 push	 ebp
  00001	8b ec		 mov	 ebp, esp
  00003	51		 push	 ecx

; 470  : 	return (_Uninit_move(_First, _Last, _Dest, _Al,
; 471  : 		_Val_type(_First), _Ptr_cat(_First, _Dest)));

  00004	ff 75 fc	 push	 DWORD PTR __Cat$513308[ebp]
  00007	6a 00		 push	 0
  00009	ff 75 14	 push	 DWORD PTR __Al$[ebp]
  0000c	ff 75 10	 push	 DWORD PTR __Dest$[ebp]
  0000f	ff 75 0c	 push	 DWORD PTR __Last$[ebp]
  00012	ff 75 08	 push	 DWORD PTR __First$[ebp]
  00015	e8 00 00 00 00	 call	 ??$_Uninit_move@PAUCheerTeamInfo@@PAU1@V?$allocator@UCheerTeamInfo@@@std@@U1@@std@@YAPAUCheerTeamInfo@@PAU1@00AAV?$allocator@UCheerTeamInfo@@@0@0U_Nonscalar_ptr_iterator_tag@0@@Z ; std::_Uninit_move<CheerTeamInfo *,CheerTeamInfo *,std::allocator<CheerTeamInfo>,CheerTeamInfo>
  0001a	83 c4 18	 add	 esp, 24			; 00000018H

; 472  : 	}

  0001d	c9		 leave
  0001e	c3		 ret	 0
??$_Uninitialized_move@PAUCheerTeamInfo@@PAU1@V?$allocator@UCheerTeamInfo@@@std@@@std@@YAPAUCheerTeamInfo@@PAU1@00AAV?$allocator@UCheerTeamInfo@@@0@@Z ENDP ; std::_Uninitialized_move<CheerTeamInfo *,CheerTeamInfo *,std::allocator<CheerTeamInfo> >
_TEXT	ENDS
PUBLIC	??$_Dest_val@V?$allocator@UTeamUserData@@@std@@UTeamUserData@@@std@@YAXAAV?$allocator@UTeamUserData@@@0@PAUTeamUserData@@@Z ; std::_Dest_val<std::allocator<TeamUserData>,TeamUserData>
; Function compile flags: /Ogsp
; File c:\program files (x86)\microsoft visual studio 10.0\vc\include\xmemory
;	COMDAT ??$_Dest_val@V?$allocator@UTeamUserData@@@std@@UTeamUserData@@@std@@YAXAAV?$allocator@UTeamUserData@@@0@PAUTeamUserData@@@Z
_TEXT	SEGMENT
__Alval$ = 8						; size = 4
__Pdest$ = 12						; size = 4
??$_Dest_val@V?$allocator@UTeamUserData@@@std@@UTeamUserData@@@std@@YAXAAV?$allocator@UTeamUserData@@@0@PAUTeamUserData@@@Z PROC ; std::_Dest_val<std::allocator<TeamUserData>,TeamUserData>, COMDAT

; 286  : 	{	// destroy using allocator

  00000	55		 push	 ebp
  00001	8b ec		 mov	 ebp, esp

; 287  : 	_Alval.destroy(_Pdest);

  00003	8b 4d 0c	 mov	 ecx, DWORD PTR __Pdest$[ebp]
  00006	83 c1 08	 add	 ecx, 8

; 288  : 	}

  00009	5d		 pop	 ebp

; 287  : 	_Alval.destroy(_Pdest);

  0000a	ff 25 00 00 00
	00		 jmp	 DWORD PTR __imp_??1ioHashString@@QAE@XZ
??$_Dest_val@V?$allocator@UTeamUserData@@@std@@UTeamUserData@@@std@@YAXAAV?$allocator@UTeamUserData@@@0@PAUTeamUserData@@@Z ENDP ; std::_Dest_val<std::allocator<TeamUserData>,TeamUserData>
_TEXT	ENDS
PUBLIC	?_Destroy@?$vector@UCheerTeamInfo@@V?$allocator@UCheerTeamInfo@@@std@@@std@@IAEXPAUCheerTeamInfo@@0@Z ; std::vector<CheerTeamInfo,std::allocator<CheerTeamInfo> >::_Destroy
; Function compile flags: /Ogsp
; File c:\program files (x86)\microsoft visual studio 10.0\vc\include\vector
;	COMDAT ?_Destroy@?$vector@UCheerTeamInfo@@V?$allocator@UCheerTeamInfo@@@std@@@std@@IAEXPAUCheerTeamInfo@@0@Z
_TEXT	SEGMENT
__First$ = 8						; size = 4
__Last$ = 12						; size = 4
?_Destroy@?$vector@UCheerTeamInfo@@V?$allocator@UCheerTeamInfo@@@std@@@std@@IAEXPAUCheerTeamInfo@@0@Z PROC ; std::vector<CheerTeamInfo,std::allocator<CheerTeamInfo> >::_Destroy, COMDAT
; _this$ = ecx

; 1270 : 		_Destroy_range(_First, _Last, this->_Alval);
; 1271 : 		}

  00000	c2 08 00	 ret	 8
?_Destroy@?$vector@UCheerTeamInfo@@V?$allocator@UCheerTeamInfo@@@std@@@std@@IAEXPAUCheerTeamInfo@@0@Z ENDP ; std::vector<CheerTeamInfo,std::allocator<CheerTeamInfo> >::_Destroy
_TEXT	ENDS
PUBLIC	?_Tidy@?$vector@UCheerTeamInfo@@V?$allocator@UCheerTeamInfo@@@std@@@std@@IAEXXZ ; std::vector<CheerTeamInfo,std::allocator<CheerTeamInfo> >::_Tidy
EXTRN	__imp_?_Orphan_all@_Container_base0@std@@QAEXXZ:PROC
; Function compile flags: /Ogsp
;	COMDAT ?_Tidy@?$vector@UCheerTeamInfo@@V?$allocator@UCheerTeamInfo@@@std@@@std@@IAEXXZ
_TEXT	SEGMENT
?_Tidy@?$vector@UCheerTeamInfo@@V?$allocator@UCheerTeamInfo@@@std@@@std@@IAEXXZ PROC ; std::vector<CheerTeamInfo,std::allocator<CheerTeamInfo> >::_Tidy, COMDAT
; _this$ = ecx

; 1301 : 		{	// free all storage

  00000	56		 push	 esi
  00001	8b f1		 mov	 esi, ecx

; 1302 : 		if (this->_Myfirst != 0)

  00003	83 3e 00	 cmp	 DWORD PTR [esi], 0
  00006	74 0e		 je	 SHORT $LN21@Tidy

; 1303 : 			{	// something to free, destroy and deallocate it
; 1304 : 			this->_Orphan_all();

  00008	ff 15 00 00 00
	00		 call	 DWORD PTR __imp_?_Orphan_all@_Container_base0@std@@QAEXXZ

; 1305 : 			_Destroy(this->_Myfirst, this->_Mylast);
; 1306 : 			this->_Alval.deallocate(this->_Myfirst,
; 1307 : 				this->_Myend - this->_Myfirst);

  0000e	ff 36		 push	 DWORD PTR [esi]
  00010	e8 00 00 00 00	 call	 ??3@YAXPAX@Z		; operator delete
  00015	59		 pop	 ecx
$LN21@Tidy:

; 1308 : 			}
; 1309 : 		this->_Myfirst = 0;

  00016	83 26 00	 and	 DWORD PTR [esi], 0

; 1310 : 		this->_Mylast = 0;

  00019	83 66 04 00	 and	 DWORD PTR [esi+4], 0

; 1311 : 		this->_Myend = 0;

  0001d	83 66 08 00	 and	 DWORD PTR [esi+8], 0
  00021	5e		 pop	 esi

; 1312 : 		}

  00022	c3		 ret	 0
?_Tidy@?$vector@UCheerTeamInfo@@V?$allocator@UCheerTeamInfo@@@std@@@std@@IAEXXZ ENDP ; std::vector<CheerTeamInfo,std::allocator<CheerTeamInfo> >::_Tidy
_TEXT	ENDS
PUBLIC	??$_Umove@PAUCheerTeamInfo@@@?$vector@UCheerTeamInfo@@V?$allocator@UCheerTeamInfo@@@std@@@std@@IAEPAUCheerTeamInfo@@PAU2@00@Z ; std::vector<CheerTeamInfo,std::allocator<CheerTeamInfo> >::_Umove<CheerTeamInfo *>
; Function compile flags: /Ogsp
;	COMDAT ??$_Umove@PAUCheerTeamInfo@@@?$vector@UCheerTeamInfo@@V?$allocator@UCheerTeamInfo@@@std@@@std@@IAEPAUCheerTeamInfo@@PAU2@00@Z
_TEXT	SEGMENT
__First$ = 8						; size = 4
__Last$ = 12						; size = 4
__Ptr$ = 16						; size = 4
??$_Umove@PAUCheerTeamInfo@@@?$vector@UCheerTeamInfo@@V?$allocator@UCheerTeamInfo@@@std@@@std@@IAEPAUCheerTeamInfo@@PAU2@00@Z PROC ; std::vector<CheerTeamInfo,std::allocator<CheerTeamInfo> >::_Umove<CheerTeamInfo *>, COMDAT
; _this$ = ecx

; 1322 : 		pointer _Umove(_Iter _First, _Iter _Last, pointer _Ptr)

  00000	55		 push	 ebp
  00001	8b ec		 mov	 ebp, esp

; 1323 : 		{	// move initializing [_First, _Last), using allocator
; 1324 : 		return (_Uninitialized_move(_First, _Last,
; 1325 : 			_Ptr, this->_Alval));

  00003	83 c1 0c	 add	 ecx, 12			; 0000000cH
  00006	51		 push	 ecx
  00007	ff 75 10	 push	 DWORD PTR __Ptr$[ebp]
  0000a	ff 75 0c	 push	 DWORD PTR __Last$[ebp]
  0000d	ff 75 08	 push	 DWORD PTR __First$[ebp]
  00010	e8 00 00 00 00	 call	 ??$_Uninitialized_move@PAUCheerTeamInfo@@PAU1@V?$allocator@UCheerTeamInfo@@@std@@@std@@YAPAUCheerTeamInfo@@PAU1@00AAV?$allocator@UCheerTeamInfo@@@0@@Z ; std::_Uninitialized_move<CheerTeamInfo *,CheerTeamInfo *,std::allocator<CheerTeamInfo> >
  00015	83 c4 10	 add	 esp, 16			; 00000010H

; 1326 : 		}

  00018	5d		 pop	 ebp
  00019	c2 0c 00	 ret	 12			; 0000000cH
??$_Umove@PAUCheerTeamInfo@@@?$vector@UCheerTeamInfo@@V?$allocator@UCheerTeamInfo@@@std@@@std@@IAEPAUCheerTeamInfo@@PAU2@00@Z ENDP ; std::vector<CheerTeamInfo,std::allocator<CheerTeamInfo> >::_Umove<CheerTeamInfo *>
_TEXT	ENDS
PUBLIC	??$_Uninit_move@PAUTeamUserData@@PAU1@V?$allocator@UTeamUserData@@@std@@U1@@std@@YAPAUTeamUserData@@PAU1@00AAV?$allocator@UTeamUserData@@@0@0U_Nonscalar_ptr_iterator_tag@0@@Z ; std::_Uninit_move<TeamUserData *,TeamUserData *,std::allocator<TeamUserData>,TeamUserData>
EXTRN	__EH_prolog3_catch:PROC
;	COMDAT xdata$x
xdata$x	SEGMENT
__catchsym$??$_Uninit_move@PAUTeamUserData@@PAU1@V?$allocator@UTeamUserData@@@std@@U1@@std@@YAPAUTeamUserData@@PAU1@00AAV?$allocator@UTeamUserData@@@0@0U_Nonscalar_ptr_iterator_tag@0@@Z$3 DD 040H
	DD	00H
	DD	00H
	DD	FLAT:__catch$??$_Uninit_move@PAUTeamUserData@@PAU1@V?$allocator@UTeamUserData@@@std@@U1@@std@@YAPAUTeamUserData@@PAU1@00AAV?$allocator@UTeamUserData@@@0@0U_Nonscalar_ptr_iterator_tag@0@@Z$0
__unwindtable$??$_Uninit_move@PAUTeamUserData@@PAU1@V?$allocator@UTeamUserData@@@std@@U1@@std@@YAPAUTeamUserData@@PAU1@00AAV?$allocator@UTeamUserData@@@0@0U_Nonscalar_ptr_iterator_tag@0@@Z DD 0ffffffffH
	DD	00H
	DD	0ffffffffH
	DD	00H
__tryblocktable$??$_Uninit_move@PAUTeamUserData@@PAU1@V?$allocator@UTeamUserData@@@std@@U1@@std@@YAPAUTeamUserData@@PAU1@00AAV?$allocator@UTeamUserData@@@0@0U_Nonscalar_ptr_iterator_tag@0@@Z DD 00H
	DD	00H
	DD	01H
	DD	01H
	DD	FLAT:__catchsym$??$_Uninit_move@PAUTeamUserData@@PAU1@V?$allocator@UTeamUserData@@@std@@U1@@std@@YAPAUTeamUserData@@PAU1@00AAV?$allocator@UTeamUserData@@@0@0U_Nonscalar_ptr_iterator_tag@0@@Z$3
__ehfuncinfo$??$_Uninit_move@PAUTeamUserData@@PAU1@V?$allocator@UTeamUserData@@@std@@U1@@std@@YAPAUTeamUserData@@PAU1@00AAV?$allocator@UTeamUserData@@@0@0U_Nonscalar_ptr_iterator_tag@0@@Z DD 019930522H
	DD	02H
	DD	FLAT:__unwindtable$??$_Uninit_move@PAUTeamUserData@@PAU1@V?$allocator@UTeamUserData@@@std@@U1@@std@@YAPAUTeamUserData@@PAU1@00AAV?$allocator@UTeamUserData@@@0@0U_Nonscalar_ptr_iterator_tag@0@@Z
	DD	01H
	DD	FLAT:__tryblocktable$??$_Uninit_move@PAUTeamUserData@@PAU1@V?$allocator@UTeamUserData@@@std@@U1@@std@@YAPAUTeamUserData@@PAU1@00AAV?$allocator@UTeamUserData@@@0@0U_Nonscalar_ptr_iterator_tag@0@@Z
	DD	2 DUP(00H)
	DD	00H
	DD	01H
; Function compile flags: /Ogsp
; File c:\program files (x86)\microsoft visual studio 10.0\vc\include\memory
xdata$x	ENDS
;	COMDAT ??$_Uninit_move@PAUTeamUserData@@PAU1@V?$allocator@UTeamUserData@@@std@@U1@@std@@YAPAUTeamUserData@@PAU1@00AAV?$allocator@UTeamUserData@@@0@0U_Nonscalar_ptr_iterator_tag@0@@Z
_TEXT	SEGMENT
__Next$ = -20						; size = 4
__$EHRec$ = -16						; size = 16
__First$ = 8						; size = 4
__Last$ = 12						; size = 4
__Dest$ = 16						; size = 4
__Al$ = 20						; size = 4
___formal$ = 24						; size = 4
___formal$ = 28						; size = 1
??$_Uninit_move@PAUTeamUserData@@PAU1@V?$allocator@UTeamUserData@@@std@@U1@@std@@YAPAUTeamUserData@@PAU1@00AAV?$allocator@UTeamUserData@@@0@0U_Nonscalar_ptr_iterator_tag@0@@Z PROC ; std::_Uninit_move<TeamUserData *,TeamUserData *,std::allocator<TeamUserData>,TeamUserData>, COMDAT

; 424  : 	{	// move [_First, _Last) to raw _Dest, using _Al, arbitrary type

  00000	6a 08		 push	 8
  00002	b8 00 00 00 00	 mov	 eax, __ehhandler$??$_Uninit_move@PAUTeamUserData@@PAU1@V?$allocator@UTeamUserData@@@std@@U1@@std@@YAPAUTeamUserData@@PAU1@00AAV?$allocator@UTeamUserData@@@0@0U_Nonscalar_ptr_iterator_tag@0@@Z
  00007	e8 00 00 00 00	 call	 __EH_prolog3_catch

; 425  : 	_DEBUG_RANGE(_First, _Last);
; 426  : 	_DEBUG_POINTER(_Dest);
; 427  : 	_FwdIt _Next = _Dest;

  0000c	8b 45 10	 mov	 eax, DWORD PTR __Dest$[ebp]

; 428  : 
; 429  : 	_TRY_BEGIN

  0000f	83 65 fc 00	 and	 DWORD PTR __$EHRec$[ebp+12], 0
  00013	8b 75 08	 mov	 esi, DWORD PTR __First$[ebp]
  00016	89 45 ec	 mov	 DWORD PTR __Next$[ebp], eax
$LL6@Uninit_mov@2:

; 430  : 	for (; _First != _Last; ++_Dest, ++_First)

  00019	3b 75 0c	 cmp	 esi, DWORD PTR __Last$[ebp]
  0001c	74 37		 je	 SHORT $LN4@Uninit_mov@2

; 431  : 		_Cons_val(_Al, _Dest, (_Valty &&)*_First);

  0001e	56		 push	 esi
  0001f	ff 75 10	 push	 DWORD PTR __Dest$[ebp]
  00022	ff 75 14	 push	 DWORD PTR __Al$[ebp]
  00025	e8 00 00 00 00	 call	 ??$_Cons_val@V?$allocator@UTeamUserData@@@std@@UTeamUserData@@U3@@std@@YAXAAV?$allocator@UTeamUserData@@@0@PAUTeamUserData@@$$QAU2@@Z ; std::_Cons_val<std::allocator<TeamUserData>,TeamUserData,TeamUserData>
  0002a	83 45 10 18	 add	 DWORD PTR __Dest$[ebp], 24 ; 00000018H
  0002e	83 c4 0c	 add	 esp, 12			; 0000000cH
  00031	83 c6 18	 add	 esi, 24			; 00000018H
  00034	eb e3		 jmp	 SHORT $LL6@Uninit_mov@2
__catch$??$_Uninit_move@PAUTeamUserData@@PAU1@V?$allocator@UTeamUserData@@@std@@U1@@std@@YAPAUTeamUserData@@PAU1@00AAV?$allocator@UTeamUserData@@@0@0U_Nonscalar_ptr_iterator_tag@0@@Z$0:

; 432  : 	_CATCH_ALL
; 433  : 	for (; _Next != _Dest; ++_Next)

  00036	8b 75 ec	 mov	 esi, DWORD PTR __Next$[ebp]
  00039	eb 0c		 jmp	 SHORT $LN32@Uninit_mov@2
$LL3@Uninit_mov@2:

; 434  : 		_Dest_val(_Al, _Next);

  0003b	8d 4e 08	 lea	 ecx, DWORD PTR [esi+8]
  0003e	ff 15 00 00 00
	00		 call	 DWORD PTR __imp_??1ioHashString@@QAE@XZ
  00044	83 c6 18	 add	 esi, 24			; 00000018H
$LN32@Uninit_mov@2:

; 432  : 	_CATCH_ALL
; 433  : 	for (; _Next != _Dest; ++_Next)

  00047	3b 75 10	 cmp	 esi, DWORD PTR __Dest$[ebp]
  0004a	75 ef		 jne	 SHORT $LL3@Uninit_mov@2

; 435  : 	_RERAISE;

  0004c	6a 00		 push	 0
  0004e	6a 00		 push	 0
  00050	e8 00 00 00 00	 call	 __CxxThrowException@8
$LN33@Uninit_mov@2:
$LN4@Uninit_mov@2:

; 436  : 	_CATCH_END
; 437  : 	return (_Dest);

  00055	8b 45 10	 mov	 eax, DWORD PTR __Dest$[ebp]

; 438  : 	}

  00058	e8 00 00 00 00	 call	 __EH_epilog3
  0005d	c3		 ret	 0
$LN31@Uninit_mov@2:
_TEXT	ENDS
;	COMDAT text$x
text$x	SEGMENT
__ehhandler$??$_Uninit_move@PAUTeamUserData@@PAU1@V?$allocator@UTeamUserData@@@std@@U1@@std@@YAPAUTeamUserData@@PAU1@00AAV?$allocator@UTeamUserData@@@0@0U_Nonscalar_ptr_iterator_tag@0@@Z:
  00000	8b 54 24 08	 mov	 edx, DWORD PTR [esp+8]
  00004	8d 42 0c	 lea	 eax, DWORD PTR [edx+12]
  00007	8b 4a e8	 mov	 ecx, DWORD PTR [edx-24]
  0000a	33 c8		 xor	 ecx, eax
  0000c	e8 00 00 00 00	 call	 @__security_check_cookie@4
  00011	b8 00 00 00 00	 mov	 eax, OFFSET __ehfuncinfo$??$_Uninit_move@PAUTeamUserData@@PAU1@V?$allocator@UTeamUserData@@@std@@U1@@std@@YAPAUTeamUserData@@PAU1@00AAV?$allocator@UTeamUserData@@@0@0U_Nonscalar_ptr_iterator_tag@0@@Z
  00016	e9 00 00 00 00	 jmp	 ___CxxFrameHandler3
text$x	ENDS
??$_Uninit_move@PAUTeamUserData@@PAU1@V?$allocator@UTeamUserData@@@std@@U1@@std@@YAPAUTeamUserData@@PAU1@00AAV?$allocator@UTeamUserData@@@0@0U_Nonscalar_ptr_iterator_tag@0@@Z ENDP ; std::_Uninit_move<TeamUserData *,TeamUserData *,std::allocator<TeamUserData>,TeamUserData>
PUBLIC	??$_Uninit_copy@V?$_Vector_const_iterator@V?$_Vector_val@UTeamUserData@@V?$allocator@UTeamUserData@@@std@@@std@@@std@@PAUTeamUserData@@V?$allocator@UTeamUserData@@@2@@std@@YAPAUTeamUserData@@V?$_Vector_const_iterator@V?$_Vector_val@UTeamUserData@@V?$allocator@UTeamUserData@@@std@@@std@@@0@0PAU1@AAV?$allocator@UTeamUserData@@@0@U_Nonscalar_ptr_iterator_tag@0@@Z ; std::_Uninit_copy<std::_Vector_const_iterator<std::_Vector_val<TeamUserData,std::allocator<TeamUserData> > >,TeamUserData *,std::allocator<TeamUserData> >
;	COMDAT xdata$x
; File c:\program files (x86)\microsoft visual studio 10.0\vc\include\vector
xdata$x	SEGMENT
__catchsym$??$_Uninit_copy@V?$_Vector_const_iterator@V?$_Vector_val@UTeamUserData@@V?$allocator@UTeamUserData@@@std@@@std@@@std@@PAUTeamUserData@@V?$allocator@UTeamUserData@@@2@@std@@YAPAUTeamUserData@@V?$_Vector_const_iterator@V?$_Vector_val@UTeamUserData@@V?$allocator@UTeamUserData@@@std@@@std@@@0@0PAU1@AAV?$allocator@UTeamUserData@@@0@U_Nonscalar_ptr_iterator_tag@0@@Z$3 DD 040H
	DD	00H
	DD	00H
	DD	FLAT:__catch$??$_Uninit_copy@V?$_Vector_const_iterator@V?$_Vector_val@UTeamUserData@@V?$allocator@UTeamUserData@@@std@@@std@@@std@@PAUTeamUserData@@V?$allocator@UTeamUserData@@@2@@std@@YAPAUTeamUserData@@V?$_Vector_const_iterator@V?$_Vector_val@UTeamUserData@@V?$allocator@UTeamUserData@@@std@@@std@@@0@0PAU1@AAV?$allocator@UTeamUserData@@@0@U_Nonscalar_ptr_iterator_tag@0@@Z$0
__unwindtable$??$_Uninit_copy@V?$_Vector_const_iterator@V?$_Vector_val@UTeamUserData@@V?$allocator@UTeamUserData@@@std@@@std@@@std@@PAUTeamUserData@@V?$allocator@UTeamUserData@@@2@@std@@YAPAUTeamUserData@@V?$_Vector_const_iterator@V?$_Vector_val@UTeamUserData@@V?$allocator@UTeamUserData@@@std@@@std@@@0@0PAU1@AAV?$allocator@UTeamUserData@@@0@U_Nonscalar_ptr_iterator_tag@0@@Z DD 0ffffffffH
	DD	00H
	DD	0ffffffffH
	DD	00H
__tryblocktable$??$_Uninit_copy@V?$_Vector_const_iterator@V?$_Vector_val@UTeamUserData@@V?$allocator@UTeamUserData@@@std@@@std@@@std@@PAUTeamUserData@@V?$allocator@UTeamUserData@@@2@@std@@YAPAUTeamUserData@@V?$_Vector_const_iterator@V?$_Vector_val@UTeamUserData@@V?$allocator@UTeamUserData@@@std@@@std@@@0@0PAU1@AAV?$allocator@UTeamUserData@@@0@U_Nonscalar_ptr_iterator_tag@0@@Z DD 00H
	DD	00H
	DD	01H
	DD	01H
	DD	FLAT:__catchsym$??$_Uninit_copy@V?$_Vector_const_iterator@V?$_Vector_val@UTeamUserData@@V?$allocator@UTeamUserData@@@std@@@std@@@std@@PAUTeamUserData@@V?$allocator@UTeamUserData@@@2@@std@@YAPAUTeamUserData@@V?$_Vector_const_iterator@V?$_Vector_val@UTeamUserData@@V?$allocator@UTeamUserData@@@std@@@std@@@0@0PAU1@AAV?$allocator@UTeamUserData@@@0@U_Nonscalar_ptr_iterator_tag@0@@Z$3
__ehfuncinfo$??$_Uninit_copy@V?$_Vector_const_iterator@V?$_Vector_val@UTeamUserData@@V?$allocator@UTeamUserData@@@std@@@std@@@std@@PAUTeamUserData@@V?$allocator@UTeamUserData@@@2@@std@@YAPAUTeamUserData@@V?$_Vector_const_iterator@V?$_Vector_val@UTeamUserData@@V?$allocator@UTeamUserData@@@std@@@std@@@0@0PAU1@AAV?$allocator@UTeamUserData@@@0@U_Nonscalar_ptr_iterator_tag@0@@Z DD 019930522H
	DD	02H
	DD	FLAT:__unwindtable$??$_Uninit_copy@V?$_Vector_const_iterator@V?$_Vector_val@UTeamUserData@@V?$allocator@UTeamUserData@@@std@@@std@@@std@@PAUTeamUserData@@V?$allocator@UTeamUserData@@@2@@std@@YAPAUTeamUserData@@V?$_Vector_const_iterator@V?$_Vector_val@UTeamUserData@@V?$allocator@UTeamUserData@@@std@@@std@@@0@0PAU1@AAV?$allocator@UTeamUserData@@@0@U_Nonscalar_ptr_iterator_tag@0@@Z
	DD	01H
	DD	FLAT:__tryblocktable$??$_Uninit_copy@V?$_Vector_const_iterator@V?$_Vector_val@UTeamUserData@@V?$allocator@UTeamUserData@@@std@@@std@@@std@@PAUTeamUserData@@V?$allocator@UTeamUserData@@@2@@std@@YAPAUTeamUserData@@V?$_Vector_const_iterator@V?$_Vector_val@UTeamUserData@@V?$allocator@UTeamUserData@@@std@@@std@@@0@0PAU1@AAV?$allocator@UTeamUserData@@@0@U_Nonscalar_ptr_iterator_tag@0@@Z
	DD	2 DUP(00H)
	DD	00H
	DD	01H
; Function compile flags: /Ogsp
; File c:\program files (x86)\microsoft visual studio 10.0\vc\include\memory
xdata$x	ENDS
;	COMDAT ??$_Uninit_copy@V?$_Vector_const_iterator@V?$_Vector_val@UTeamUserData@@V?$allocator@UTeamUserData@@@std@@@std@@@std@@PAUTeamUserData@@V?$allocator@UTeamUserData@@@2@@std@@YAPAUTeamUserData@@V?$_Vector_const_iterator@V?$_Vector_val@UTeamUserData@@V?$allocator@UTeamUserData@@@std@@@std@@@0@0PAU1@AAV?$allocator@UTeamUserData@@@0@U_Nonscalar_ptr_iterator_tag@0@@Z
_TEXT	SEGMENT
__Next$ = -20						; size = 4
__$EHRec$ = -16						; size = 16
__First$ = 8						; size = 4
__Last$ = 12						; size = 4
__Dest$ = 16						; size = 4
__Al$ = 20						; size = 4
___formal$ = 24						; size = 1
??$_Uninit_copy@V?$_Vector_const_iterator@V?$_Vector_val@UTeamUserData@@V?$allocator@UTeamUserData@@@std@@@std@@@std@@PAUTeamUserData@@V?$allocator@UTeamUserData@@@2@@std@@YAPAUTeamUserData@@V?$_Vector_const_iterator@V?$_Vector_val@UTeamUserData@@V?$allocator@UTeamUserData@@@std@@@std@@@0@0PAU1@AAV?$allocator@UTeamUserData@@@0@U_Nonscalar_ptr_iterator_tag@0@@Z PROC ; std::_Uninit_copy<std::_Vector_const_iterator<std::_Vector_val<TeamUserData,std::allocator<TeamUserData> > >,TeamUserData *,std::allocator<TeamUserData> >, COMDAT

; 369  : 	{	// copy [_First, _Last) to raw _Dest, using _Al, arbitrary type

  00000	6a 08		 push	 8
  00002	b8 00 00 00 00	 mov	 eax, __ehhandler$??$_Uninit_copy@V?$_Vector_const_iterator@V?$_Vector_val@UTeamUserData@@V?$allocator@UTeamUserData@@@std@@@std@@@std@@PAUTeamUserData@@V?$allocator@UTeamUserData@@@2@@std@@YAPAUTeamUserData@@V?$_Vector_const_iterator@V?$_Vector_val@UTeamUserData@@V?$allocator@UTeamUserData@@@std@@@std@@@0@0PAU1@AAV?$allocator@UTeamUserData@@@0@U_Nonscalar_ptr_iterator_tag@0@@Z
  00007	e8 00 00 00 00	 call	 __EH_prolog3_catch

; 370  : 	_DEBUG_RANGE(_First, _Last);
; 371  : 	_DEBUG_POINTER(_Dest);
; 372  : 	_FwdIt _Next = _Dest;

  0000c	8b 45 10	 mov	 eax, DWORD PTR __Dest$[ebp]

; 373  : 
; 374  : 	_TRY_BEGIN

  0000f	83 65 fc 00	 and	 DWORD PTR __$EHRec$[ebp+12], 0
  00013	89 45 ec	 mov	 DWORD PTR __Next$[ebp], eax

; 375  : 	for (; _First != _Last; ++_Dest, ++_First)

$LL14@Uninit_cop:
  00016	8b 45 08	 mov	 eax, DWORD PTR __First$[ebp]
  00019	3b 45 0c	 cmp	 eax, DWORD PTR __Last$[ebp]
  0001c	74 34		 je	 SHORT $LN4@Uninit_cop

; 376  : 		_Cons_val(_Al, _Dest, *_First);

  0001e	50		 push	 eax
  0001f	ff 75 10	 push	 DWORD PTR __Dest$[ebp]
  00022	e8 00 00 00 00	 call	 ??$_Construct@UTeamUserData@@ABU1@@std@@YAXPAUTeamUserData@@ABU1@@Z ; std::_Construct<TeamUserData,TeamUserData const &>
  00027	83 45 10 18	 add	 DWORD PTR __Dest$[ebp], 24 ; 00000018H
  0002b	83 45 08 18	 add	 DWORD PTR __First$[ebp], 24 ; 00000018H
  0002f	59		 pop	 ecx
  00030	59		 pop	 ecx
  00031	eb e3		 jmp	 SHORT $LL14@Uninit_cop
__catch$??$_Uninit_copy@V?$_Vector_const_iterator@V?$_Vector_val@UTeamUserData@@V?$allocator@UTeamUserData@@@std@@@std@@@std@@PAUTeamUserData@@V?$allocator@UTeamUserData@@@2@@std@@YAPAUTeamUserData@@V?$_Vector_const_iterator@V?$_Vector_val@UTeamUserData@@V?$allocator@UTeamUserData@@@std@@@std@@@0@0PAU1@AAV?$allocator@UTeamUserData@@@0@U_Nonscalar_ptr_iterator_tag@0@@Z$0:

; 377  : 	_CATCH_ALL
; 378  : 	for (; _Next != _Dest; ++_Next)

  00033	8b 75 ec	 mov	 esi, DWORD PTR __Next$[ebp]
  00036	eb 0c		 jmp	 SHORT $LN48@Uninit_cop
$LL3@Uninit_cop:

; 379  : 		_Dest_val(_Al, _Next);

  00038	8d 4e 08	 lea	 ecx, DWORD PTR [esi+8]
  0003b	ff 15 00 00 00
	00		 call	 DWORD PTR __imp_??1ioHashString@@QAE@XZ
  00041	83 c6 18	 add	 esi, 24			; 00000018H
$LN48@Uninit_cop:

; 377  : 	_CATCH_ALL
; 378  : 	for (; _Next != _Dest; ++_Next)

  00044	3b 75 10	 cmp	 esi, DWORD PTR __Dest$[ebp]
  00047	75 ef		 jne	 SHORT $LL3@Uninit_cop

; 380  : 	_RERAISE;

  00049	6a 00		 push	 0
  0004b	6a 00		 push	 0
  0004d	e8 00 00 00 00	 call	 __CxxThrowException@8
$LN49@Uninit_cop:
$LN4@Uninit_cop:

; 381  : 	_CATCH_END
; 382  : 	return (_Dest);

  00052	8b 45 10	 mov	 eax, DWORD PTR __Dest$[ebp]

; 383  : 	}

  00055	e8 00 00 00 00	 call	 __EH_epilog3
  0005a	c3		 ret	 0
$LN47@Uninit_cop:
_TEXT	ENDS
;	COMDAT text$x
text$x	SEGMENT
__ehhandler$??$_Uninit_copy@V?$_Vector_const_iterator@V?$_Vector_val@UTeamUserData@@V?$allocator@UTeamUserData@@@std@@@std@@@std@@PAUTeamUserData@@V?$allocator@UTeamUserData@@@2@@std@@YAPAUTeamUserData@@V?$_Vector_const_iterator@V?$_Vector_val@UTeamUserData@@V?$allocator@UTeamUserData@@@std@@@std@@@0@0PAU1@AAV?$allocator@UTeamUserData@@@0@U_Nonscalar_ptr_iterator_tag@0@@Z:
  00000	8b 54 24 08	 mov	 edx, DWORD PTR [esp+8]
  00004	8d 42 0c	 lea	 eax, DWORD PTR [edx+12]
  00007	8b 4a e8	 mov	 ecx, DWORD PTR [edx-24]
  0000a	33 c8		 xor	 ecx, eax
  0000c	e8 00 00 00 00	 call	 @__security_check_cookie@4
  00011	b8 00 00 00 00	 mov	 eax, OFFSET __ehfuncinfo$??$_Uninit_copy@V?$_Vector_const_iterator@V?$_Vector_val@UTeamUserData@@V?$allocator@UTeamUserData@@@std@@@std@@@std@@PAUTeamUserData@@V?$allocator@UTeamUserData@@@2@@std@@YAPAUTeamUserData@@V?$_Vector_const_iterator@V?$_Vector_val@UTeamUserData@@V?$allocator@UTeamUserData@@@std@@@std@@@0@0PAU1@AAV?$allocator@UTeamUserData@@@0@U_Nonscalar_ptr_iterator_tag@0@@Z
  00016	e9 00 00 00 00	 jmp	 ___CxxFrameHandler3
text$x	ENDS
??$_Uninit_copy@V?$_Vector_const_iterator@V?$_Vector_val@UTeamUserData@@V?$allocator@UTeamUserData@@@std@@@std@@@std@@PAUTeamUserData@@V?$allocator@UTeamUserData@@@2@@std@@YAPAUTeamUserData@@V?$_Vector_const_iterator@V?$_Vector_val@UTeamUserData@@V?$allocator@UTeamUserData@@@std@@@std@@@0@0PAU1@AAV?$allocator@UTeamUserData@@@0@U_Nonscalar_ptr_iterator_tag@0@@Z ENDP ; std::_Uninit_copy<std::_Vector_const_iterator<std::_Vector_val<TeamUserData,std::allocator<TeamUserData> > >,TeamUserData *,std::allocator<TeamUserData> >
PUBLIC	??$_Uninit_copy@PAUTeamUserData@@PAU1@V?$allocator@UTeamUserData@@@std@@@std@@YAPAUTeamUserData@@PAU1@00AAV?$allocator@UTeamUserData@@@0@U_Nonscalar_ptr_iterator_tag@0@@Z ; std::_Uninit_copy<TeamUserData *,TeamUserData *,std::allocator<TeamUserData> >
;	COMDAT xdata$x
; File c:\program files (x86)\microsoft visual studio 10.0\vc\include\vector
xdata$x	SEGMENT
__catchsym$??$_Uninit_copy@PAUTeamUserData@@PAU1@V?$allocator@UTeamUserData@@@std@@@std@@YAPAUTeamUserData@@PAU1@00AAV?$allocator@UTeamUserData@@@0@U_Nonscalar_ptr_iterator_tag@0@@Z$3 DD 040H
	DD	00H
	DD	00H
	DD	FLAT:__catch$??$_Uninit_copy@PAUTeamUserData@@PAU1@V?$allocator@UTeamUserData@@@std@@@std@@YAPAUTeamUserData@@PAU1@00AAV?$allocator@UTeamUserData@@@0@U_Nonscalar_ptr_iterator_tag@0@@Z$0
__unwindtable$??$_Uninit_copy@PAUTeamUserData@@PAU1@V?$allocator@UTeamUserData@@@std@@@std@@YAPAUTeamUserData@@PAU1@00AAV?$allocator@UTeamUserData@@@0@U_Nonscalar_ptr_iterator_tag@0@@Z DD 0ffffffffH
	DD	00H
	DD	0ffffffffH
	DD	00H
__tryblocktable$??$_Uninit_copy@PAUTeamUserData@@PAU1@V?$allocator@UTeamUserData@@@std@@@std@@YAPAUTeamUserData@@PAU1@00AAV?$allocator@UTeamUserData@@@0@U_Nonscalar_ptr_iterator_tag@0@@Z DD 00H
	DD	00H
	DD	01H
	DD	01H
	DD	FLAT:__catchsym$??$_Uninit_copy@PAUTeamUserData@@PAU1@V?$allocator@UTeamUserData@@@std@@@std@@YAPAUTeamUserData@@PAU1@00AAV?$allocator@UTeamUserData@@@0@U_Nonscalar_ptr_iterator_tag@0@@Z$3
__ehfuncinfo$??$_Uninit_copy@PAUTeamUserData@@PAU1@V?$allocator@UTeamUserData@@@std@@@std@@YAPAUTeamUserData@@PAU1@00AAV?$allocator@UTeamUserData@@@0@U_Nonscalar_ptr_iterator_tag@0@@Z DD 019930522H
	DD	02H
	DD	FLAT:__unwindtable$??$_Uninit_copy@PAUTeamUserData@@PAU1@V?$allocator@UTeamUserData@@@std@@@std@@YAPAUTeamUserData@@PAU1@00AAV?$allocator@UTeamUserData@@@0@U_Nonscalar_ptr_iterator_tag@0@@Z
	DD	01H
	DD	FLAT:__tryblocktable$??$_Uninit_copy@PAUTeamUserData@@PAU1@V?$allocator@UTeamUserData@@@std@@@std@@YAPAUTeamUserData@@PAU1@00AAV?$allocator@UTeamUserData@@@0@U_Nonscalar_ptr_iterator_tag@0@@Z
	DD	2 DUP(00H)
	DD	00H
	DD	01H
; Function compile flags: /Ogsp
; File c:\program files (x86)\microsoft visual studio 10.0\vc\include\memory
xdata$x	ENDS
;	COMDAT ??$_Uninit_copy@PAUTeamUserData@@PAU1@V?$allocator@UTeamUserData@@@std@@@std@@YAPAUTeamUserData@@PAU1@00AAV?$allocator@UTeamUserData@@@0@U_Nonscalar_ptr_iterator_tag@0@@Z
_TEXT	SEGMENT
__Next$ = -20						; size = 4
__$EHRec$ = -16						; size = 16
__First$ = 8						; size = 4
__Last$ = 12						; size = 4
__Dest$ = 16						; size = 4
__Al$ = 20						; size = 4
___formal$ = 24						; size = 1
??$_Uninit_copy@PAUTeamUserData@@PAU1@V?$allocator@UTeamUserData@@@std@@@std@@YAPAUTeamUserData@@PAU1@00AAV?$allocator@UTeamUserData@@@0@U_Nonscalar_ptr_iterator_tag@0@@Z PROC ; std::_Uninit_copy<TeamUserData *,TeamUserData *,std::allocator<TeamUserData> >, COMDAT

; 369  : 	{	// copy [_First, _Last) to raw _Dest, using _Al, arbitrary type

  00000	6a 08		 push	 8
  00002	b8 00 00 00 00	 mov	 eax, __ehhandler$??$_Uninit_copy@PAUTeamUserData@@PAU1@V?$allocator@UTeamUserData@@@std@@@std@@YAPAUTeamUserData@@PAU1@00AAV?$allocator@UTeamUserData@@@0@U_Nonscalar_ptr_iterator_tag@0@@Z
  00007	e8 00 00 00 00	 call	 __EH_prolog3_catch

; 370  : 	_DEBUG_RANGE(_First, _Last);
; 371  : 	_DEBUG_POINTER(_Dest);
; 372  : 	_FwdIt _Next = _Dest;

  0000c	8b 45 10	 mov	 eax, DWORD PTR __Dest$[ebp]

; 373  : 
; 374  : 	_TRY_BEGIN

  0000f	83 65 fc 00	 and	 DWORD PTR __$EHRec$[ebp+12], 0
  00013	8b 75 08	 mov	 esi, DWORD PTR __First$[ebp]
  00016	89 45 ec	 mov	 DWORD PTR __Next$[ebp], eax
$LL6@Uninit_cop@2:

; 375  : 	for (; _First != _Last; ++_Dest, ++_First)

  00019	3b 75 0c	 cmp	 esi, DWORD PTR __Last$[ebp]
  0001c	74 37		 je	 SHORT $LN4@Uninit_cop@2

; 376  : 		_Cons_val(_Al, _Dest, *_First);

  0001e	56		 push	 esi
  0001f	ff 75 10	 push	 DWORD PTR __Dest$[ebp]
  00022	ff 75 14	 push	 DWORD PTR __Al$[ebp]
  00025	e8 00 00 00 00	 call	 ??$_Cons_val@V?$allocator@UTeamUserData@@@std@@UTeamUserData@@AAU3@@std@@YAXAAV?$allocator@UTeamUserData@@@0@PAUTeamUserData@@AAU2@@Z ; std::_Cons_val<std::allocator<TeamUserData>,TeamUserData,TeamUserData &>
  0002a	83 45 10 18	 add	 DWORD PTR __Dest$[ebp], 24 ; 00000018H
  0002e	83 c4 0c	 add	 esp, 12			; 0000000cH
  00031	83 c6 18	 add	 esi, 24			; 00000018H
  00034	eb e3		 jmp	 SHORT $LL6@Uninit_cop@2
__catch$??$_Uninit_copy@PAUTeamUserData@@PAU1@V?$allocator@UTeamUserData@@@std@@@std@@YAPAUTeamUserData@@PAU1@00AAV?$allocator@UTeamUserData@@@0@U_Nonscalar_ptr_iterator_tag@0@@Z$0:

; 377  : 	_CATCH_ALL
; 378  : 	for (; _Next != _Dest; ++_Next)

  00036	8b 75 ec	 mov	 esi, DWORD PTR __Next$[ebp]
  00039	eb 0c		 jmp	 SHORT $LN32@Uninit_cop@2
$LL3@Uninit_cop@2:

; 379  : 		_Dest_val(_Al, _Next);

  0003b	8d 4e 08	 lea	 ecx, DWORD PTR [esi+8]
  0003e	ff 15 00 00 00
	00		 call	 DWORD PTR __imp_??1ioHashString@@QAE@XZ
  00044	83 c6 18	 add	 esi, 24			; 00000018H
$LN32@Uninit_cop@2:

; 377  : 	_CATCH_ALL
; 378  : 	for (; _Next != _Dest; ++_Next)

  00047	3b 75 10	 cmp	 esi, DWORD PTR __Dest$[ebp]
  0004a	75 ef		 jne	 SHORT $LL3@Uninit_cop@2

; 380  : 	_RERAISE;

  0004c	6a 00		 push	 0
  0004e	6a 00		 push	 0
  00050	e8 00 00 00 00	 call	 __CxxThrowException@8
$LN33@Uninit_cop@2:
$LN4@Uninit_cop@2:

; 381  : 	_CATCH_END
; 382  : 	return (_Dest);

  00055	8b 45 10	 mov	 eax, DWORD PTR __Dest$[ebp]

; 383  : 	}

  00058	e8 00 00 00 00	 call	 __EH_epilog3
  0005d	c3		 ret	 0
$LN31@Uninit_cop@2:
_TEXT	ENDS
;	COMDAT text$x
text$x	SEGMENT
__ehhandler$??$_Uninit_copy@PAUTeamUserData@@PAU1@V?$allocator@UTeamUserData@@@std@@@std@@YAPAUTeamUserData@@PAU1@00AAV?$allocator@UTeamUserData@@@0@U_Nonscalar_ptr_iterator_tag@0@@Z:
  00000	8b 54 24 08	 mov	 edx, DWORD PTR [esp+8]
  00004	8d 42 0c	 lea	 eax, DWORD PTR [edx+12]
  00007	8b 4a e8	 mov	 ecx, DWORD PTR [edx-24]
  0000a	33 c8		 xor	 ecx, eax
  0000c	e8 00 00 00 00	 call	 @__security_check_cookie@4
  00011	b8 00 00 00 00	 mov	 eax, OFFSET __ehfuncinfo$??$_Uninit_copy@PAUTeamUserData@@PAU1@V?$allocator@UTeamUserData@@@std@@@std@@YAPAUTeamUserData@@PAU1@00AAV?$allocator@UTeamUserData@@@0@U_Nonscalar_ptr_iterator_tag@0@@Z
  00016	e9 00 00 00 00	 jmp	 ___CxxFrameHandler3
text$x	ENDS
??$_Uninit_copy@PAUTeamUserData@@PAU1@V?$allocator@UTeamUserData@@@std@@@std@@YAPAUTeamUserData@@PAU1@00AAV?$allocator@UTeamUserData@@@0@U_Nonscalar_ptr_iterator_tag@0@@Z ENDP ; std::_Uninit_copy<TeamUserData *,TeamUserData *,std::allocator<TeamUserData> >
PUBLIC	??$_Destroy_range@V?$allocator@UTeamUserData@@@std@@@std@@YAXPAUTeamUserData@@0AAV?$allocator@UTeamUserData@@@0@U_Nonscalar_ptr_iterator_tag@0@@Z ; std::_Destroy_range<std::allocator<TeamUserData> >
; Function compile flags: /Ogsp
; File c:\program files (x86)\microsoft visual studio 10.0\vc\include\xmemory
;	COMDAT ??$_Destroy_range@V?$allocator@UTeamUserData@@@std@@@std@@YAXPAUTeamUserData@@0AAV?$allocator@UTeamUserData@@@0@U_Nonscalar_ptr_iterator_tag@0@@Z
_TEXT	SEGMENT
__First$ = 8						; size = 4
__Last$ = 12						; size = 4
__Al$ = 16						; size = 4
___formal$ = 20						; size = 1
??$_Destroy_range@V?$allocator@UTeamUserData@@@std@@@std@@YAXPAUTeamUserData@@0AAV?$allocator@UTeamUserData@@@0@U_Nonscalar_ptr_iterator_tag@0@@Z PROC ; std::_Destroy_range<std::allocator<TeamUserData> >, COMDAT

; 95   : 	{	// destroy [_First, _Last), arbitrary type

  00000	55		 push	 ebp
  00001	8b ec		 mov	 ebp, esp
  00003	56		 push	 esi

; 96   : 	for (; _First != _Last; ++_First)

  00004	8b 75 08	 mov	 esi, DWORD PTR __First$[ebp]
  00007	eb 0c		 jmp	 SHORT $LN20@Destroy_ra
$LL3@Destroy_ra:

; 97   : 		_Dest_val(_Al, _First);

  00009	8d 4e 08	 lea	 ecx, DWORD PTR [esi+8]
  0000c	ff 15 00 00 00
	00		 call	 DWORD PTR __imp_??1ioHashString@@QAE@XZ
  00012	83 c6 18	 add	 esi, 24			; 00000018H
$LN20@Destroy_ra:

; 96   : 	for (; _First != _Last; ++_First)

  00015	3b 75 0c	 cmp	 esi, DWORD PTR __Last$[ebp]
  00018	75 ef		 jne	 SHORT $LL3@Destroy_ra
  0001a	5e		 pop	 esi

; 98   : 	}

  0001b	5d		 pop	 ebp
  0001c	c3		 ret	 0
??$_Destroy_range@V?$allocator@UTeamUserData@@@std@@@std@@YAXPAUTeamUserData@@0AAV?$allocator@UTeamUserData@@@0@U_Nonscalar_ptr_iterator_tag@0@@Z ENDP ; std::_Destroy_range<std::allocator<TeamUserData> >
_TEXT	ENDS
PUBLIC	??1?$vector@UCheerTeamInfo@@V?$allocator@UCheerTeamInfo@@@std@@@std@@QAE@XZ ; std::vector<CheerTeamInfo,std::allocator<CheerTeamInfo> >::~vector<CheerTeamInfo,std::allocator<CheerTeamInfo> >
; Function compile flags: /Ogsp
; File c:\program files (x86)\microsoft visual studio 10.0\vc\include\vector
;	COMDAT ??1?$vector@UCheerTeamInfo@@V?$allocator@UCheerTeamInfo@@@std@@@std@@QAE@XZ
_TEXT	SEGMENT
??1?$vector@UCheerTeamInfo@@V?$allocator@UCheerTeamInfo@@@std@@@std@@QAE@XZ PROC ; std::vector<CheerTeamInfo,std::allocator<CheerTeamInfo> >::~vector<CheerTeamInfo,std::allocator<CheerTeamInfo> >, COMDAT
; _this$ = ecx

; 705  : 		_Tidy();

  00000	e9 00 00 00 00	 jmp	 ?_Tidy@?$vector@UCheerTeamInfo@@V?$allocator@UCheerTeamInfo@@@std@@@std@@IAEXXZ ; std::vector<CheerTeamInfo,std::allocator<CheerTeamInfo> >::_Tidy
??1?$vector@UCheerTeamInfo@@V?$allocator@UCheerTeamInfo@@@std@@@std@@QAE@XZ ENDP ; std::vector<CheerTeamInfo,std::allocator<CheerTeamInfo> >::~vector<CheerTeamInfo,std::allocator<CheerTeamInfo> >
_TEXT	ENDS
PUBLIC	?erase@?$vector@UCheerTeamInfo@@V?$allocator@UCheerTeamInfo@@@std@@@std@@QAE?AV?$_Vector_iterator@V?$_Vector_val@UCheerTeamInfo@@V?$allocator@UCheerTeamInfo@@@std@@@std@@@2@V?$_Vector_const_iterator@V?$_Vector_val@UCheerTeamInfo@@V?$allocator@UCheerTeamInfo@@@std@@@std@@@2@@Z ; std::vector<CheerTeamInfo,std::allocator<CheerTeamInfo> >::erase
; Function compile flags: /Ogsp
;	COMDAT ?erase@?$vector@UCheerTeamInfo@@V?$allocator@UCheerTeamInfo@@@std@@@std@@QAE?AV?$_Vector_iterator@V?$_Vector_val@UCheerTeamInfo@@V?$allocator@UCheerTeamInfo@@@std@@@std@@@2@V?$_Vector_const_iterator@V?$_Vector_val@UCheerTeamInfo@@V?$allocator@UCheerTeamInfo@@@std@@@std@@@2@@Z
_TEXT	SEGMENT
___$ReturnUdt$ = 8					; size = 4
__Cat$513766 = 12					; size = 1
__Where$ = 12						; size = 4
?erase@?$vector@UCheerTeamInfo@@V?$allocator@UCheerTeamInfo@@@std@@@std@@QAE?AV?$_Vector_iterator@V?$_Vector_val@UCheerTeamInfo@@V?$allocator@UCheerTeamInfo@@@std@@@std@@@2@V?$_Vector_const_iterator@V?$_Vector_val@UCheerTeamInfo@@V?$allocator@UCheerTeamInfo@@@std@@@std@@@2@@Z PROC ; std::vector<CheerTeamInfo,std::allocator<CheerTeamInfo> >::erase, COMDAT
; _this$ = ecx

; 1179 : 		{	// erase element at where

  00000	55		 push	 ebp
  00001	8b ec		 mov	 ebp, esp

; 1180 : 		_Move(_VIPTR(_Where) + 1, this->_Mylast,
; 1181 : 			_VIPTR(_Where));

  00003	8b 45 0c	 mov	 eax, DWORD PTR __Where$[ebp]
  00006	56		 push	 esi
  00007	ff 75 0c	 push	 DWORD PTR __Cat$513766[ebp]
  0000a	8b f1		 mov	 esi, ecx
  0000c	50		 push	 eax
  0000d	ff 76 04	 push	 DWORD PTR [esi+4]
  00010	83 c0 10	 add	 eax, 16			; 00000010H
  00013	50		 push	 eax
  00014	e8 00 00 00 00	 call	 ??$_Move@PAUCheerTeamInfo@@PAU1@@std@@YAPAUCheerTeamInfo@@PAU1@00U_Nonscalar_ptr_iterator_tag@0@@Z ; std::_Move<CheerTeamInfo *,CheerTeamInfo *>

; 1182 : 		_Destroy(this->_Mylast - 1, this->_Mylast);
; 1183 : 		--this->_Mylast;
; 1184 : 		return (_Make_iter(_Where));

  00019	8b 45 08	 mov	 eax, DWORD PTR ___$ReturnUdt$[ebp]
  0001c	8b 4d 0c	 mov	 ecx, DWORD PTR __Where$[ebp]
  0001f	83 c4 10	 add	 esp, 16			; 00000010H
  00022	83 46 04 f0	 add	 DWORD PTR [esi+4], -16	; fffffff0H
  00026	89 08		 mov	 DWORD PTR [eax], ecx
  00028	5e		 pop	 esi

; 1185 : 		}

  00029	5d		 pop	 ebp
  0002a	c2 08 00	 ret	 8
?erase@?$vector@UCheerTeamInfo@@V?$allocator@UCheerTeamInfo@@@std@@@std@@QAE?AV?$_Vector_iterator@V?$_Vector_val@UCheerTeamInfo@@V?$allocator@UCheerTeamInfo@@@std@@@std@@@2@V?$_Vector_const_iterator@V?$_Vector_val@UCheerTeamInfo@@V?$allocator@UCheerTeamInfo@@@std@@@std@@@2@@Z ENDP ; std::vector<CheerTeamInfo,std::allocator<CheerTeamInfo> >::erase
_TEXT	ENDS
PUBLIC	?reserve@?$vector@UCheerTeamInfo@@V?$allocator@UCheerTeamInfo@@@std@@@std@@QAEXI@Z ; std::vector<CheerTeamInfo,std::allocator<CheerTeamInfo> >::reserve
;	COMDAT xdata$x
; File c:\program files (x86)\microsoft visual studio 10.0\vc\include\xmemory
xdata$x	SEGMENT
__catchsym$?reserve@?$vector@UCheerTeamInfo@@V?$allocator@UCheerTeamInfo@@@std@@@std@@QAEXI@Z$2 DD 040H
	DD	00H
	DD	00H
	DD	FLAT:__catch$?reserve@?$vector@UCheerTeamInfo@@V?$allocator@UCheerTeamInfo@@@std@@@std@@QAEXI@Z$0
__unwindtable$?reserve@?$vector@UCheerTeamInfo@@V?$allocator@UCheerTeamInfo@@@std@@@std@@QAEXI@Z DD 0ffffffffH
	DD	00H
	DD	0ffffffffH
	DD	00H
__tryblocktable$?reserve@?$vector@UCheerTeamInfo@@V?$allocator@UCheerTeamInfo@@@std@@@std@@QAEXI@Z DD 00H
	DD	00H
	DD	01H
	DD	01H
	DD	FLAT:__catchsym$?reserve@?$vector@UCheerTeamInfo@@V?$allocator@UCheerTeamInfo@@@std@@@std@@QAEXI@Z$2
__ehfuncinfo$?reserve@?$vector@UCheerTeamInfo@@V?$allocator@UCheerTeamInfo@@@std@@@std@@QAEXI@Z DD 019930522H
	DD	02H
	DD	FLAT:__unwindtable$?reserve@?$vector@UCheerTeamInfo@@V?$allocator@UCheerTeamInfo@@@std@@@std@@QAEXI@Z
	DD	01H
	DD	FLAT:__tryblocktable$?reserve@?$vector@UCheerTeamInfo@@V?$allocator@UCheerTeamInfo@@@std@@@std@@QAEXI@Z
	DD	2 DUP(00H)
	DD	00H
	DD	01H
; Function compile flags: /Ogsp
; File c:\program files (x86)\microsoft visual studio 10.0\vc\include\vector
xdata$x	ENDS
;	COMDAT ?reserve@?$vector@UCheerTeamInfo@@V?$allocator@UCheerTeamInfo@@@std@@@std@@QAEXI@Z
_TEXT	SEGMENT
__$EHRec$ = -16						; size = 16
__Ptr$508970 = 8					; size = 4
__Count$ = 8						; size = 4
?reserve@?$vector@UCheerTeamInfo@@V?$allocator@UCheerTeamInfo@@@std@@@std@@QAEXI@Z PROC ; std::vector<CheerTeamInfo,std::allocator<CheerTeamInfo> >::reserve, COMDAT
; _this$ = ecx

; 746  : 		{	// determine new minimum length of allocated storage

  00000	6a 04		 push	 4
  00002	b8 00 00 00 00	 mov	 eax, __ehhandler$?reserve@?$vector@UCheerTeamInfo@@V?$allocator@UCheerTeamInfo@@@std@@@std@@QAEXI@Z
  00007	e8 00 00 00 00	 call	 __EH_prolog3_catch
  0000c	8b f1		 mov	 esi, ecx

; 747  : 		if (max_size() < _Count)

  0000e	8b 5d 08	 mov	 ebx, DWORD PTR __Count$[ebp]
  00011	81 fb ff ff ff
	0f		 cmp	 ebx, 268435455		; 0fffffffH
  00017	76 0b		 jbe	 SHORT $LN5@reserve

; 748  : 			_Xlen();	// result too long

  00019	68 00 00 00 00	 push	 OFFSET ??_C@_0BD@OLBABOEK@vector?$DMT?$DO?5too?5long?$AA@
  0001e	ff 15 00 00 00
	00		 call	 DWORD PTR __imp_?_Xlength_error@std@@YAXPBD@Z
$LN56@reserve:
$LN5@reserve:

; 749  : 		else if (capacity() < _Count)

  00024	8b 46 08	 mov	 eax, DWORD PTR [esi+8]
  00027	2b 06		 sub	 eax, DWORD PTR [esi]
  00029	c1 f8 04	 sar	 eax, 4
  0002c	3b c3		 cmp	 eax, ebx
  0002e	73 64		 jae	 SHORT $LN3@reserve

; 750  : 			{	// not enough room, reallocate
; 751  : 			pointer _Ptr = this->_Alval.allocate(_Count);

  00030	6a 00		 push	 0
  00032	53		 push	 ebx
  00033	e8 00 00 00 00	 call	 ??$_Allocate@UCheerTeamInfo@@@std@@YAPAUCheerTeamInfo@@IPAU1@@Z ; std::_Allocate<CheerTeamInfo>

; 752  : 
; 753  : 			_TRY_BEGIN
; 754  : 			_Umove(this->_Myfirst, this->_Mylast, _Ptr);

  00038	8b 0e		 mov	 ecx, DWORD PTR [esi]
  0003a	83 65 fc 00	 and	 DWORD PTR __$EHRec$[ebp+12], 0
  0003e	8d 56 0c	 lea	 edx, DWORD PTR [esi+12]
  00041	52		 push	 edx
  00042	89 45 08	 mov	 DWORD PTR __Ptr$508970[ebp], eax
  00045	ff 75 08	 push	 DWORD PTR __Ptr$508970[ebp]
  00048	8b 46 04	 mov	 eax, DWORD PTR [esi+4]
  0004b	50		 push	 eax
  0004c	51		 push	 ecx
  0004d	e8 00 00 00 00	 call	 ??$_Uninitialized_move@PAUCheerTeamInfo@@PAU1@V?$allocator@UCheerTeamInfo@@@std@@@std@@YAPAUCheerTeamInfo@@PAU1@00AAV?$allocator@UCheerTeamInfo@@@0@@Z ; std::_Uninitialized_move<CheerTeamInfo *,CheerTeamInfo *,std::allocator<CheerTeamInfo> >

; 758  : 			_CATCH_END
; 759  : 
; 760  : 			size_type _Size = size();

  00052	8b 4e 04	 mov	 ecx, DWORD PTR [esi+4]
  00055	8b 06		 mov	 eax, DWORD PTR [esi]
  00057	83 4d fc ff	 or	 DWORD PTR __$EHRec$[ebp+12], -1
  0005b	8b f9		 mov	 edi, ecx
  0005d	83 c4 18	 add	 esp, 24			; 00000018H
  00060	2b f8		 sub	 edi, eax
  00062	85 c0		 test	 eax, eax
  00064	74 11		 je	 SHORT $LN48@reserve

; 761  : 			if (this->_Myfirst != 0)

  00066	eb 03		 jmp	 SHORT $LN55@reserve

; 762  : 				{	// destroy and deallocate old array
; 763  : 				_Destroy(this->_Myfirst, this->_Mylast);

$LL39@reserve:
  00068	83 c0 10	 add	 eax, 16			; 00000010H
$LN55@reserve:
  0006b	3b c1		 cmp	 eax, ecx
  0006d	75 f9		 jne	 SHORT $LL39@reserve

; 764  : 				this->_Alval.deallocate(this->_Myfirst,
; 765  : 					this->_Myend - this->_Myfirst);

  0006f	ff 36		 push	 DWORD PTR [esi]
  00071	e8 00 00 00 00	 call	 ??3@YAXPAX@Z		; operator delete
  00076	59		 pop	 ecx
$LN48@reserve:

; 766  : 				}
; 767  : 
; 768  : 			this->_Orphan_all();

  00077	8b ce		 mov	 ecx, esi
  00079	ff 15 00 00 00
	00		 call	 DWORD PTR __imp_?_Orphan_all@_Container_base0@std@@QAEXXZ

; 769  : 			this->_Myend = _Ptr + _Count;

  0007f	8b 45 08	 mov	 eax, DWORD PTR __Ptr$508970[ebp]
  00082	c1 e3 04	 shl	 ebx, 4
  00085	03 d8		 add	 ebx, eax

; 770  : 			this->_Mylast = _Ptr + _Size;

  00087	83 e7 f0	 and	 edi, -16		; fffffff0H
  0008a	03 f8		 add	 edi, eax
  0008c	89 5e 08	 mov	 DWORD PTR [esi+8], ebx
  0008f	89 7e 04	 mov	 DWORD PTR [esi+4], edi

; 771  : 			this->_Myfirst = _Ptr;

  00092	89 06		 mov	 DWORD PTR [esi], eax
$LN3@reserve:

; 772  : 			}
; 773  : 		}

  00094	e8 00 00 00 00	 call	 __EH_epilog3
  00099	c2 04 00	 ret	 4
__catch$?reserve@?$vector@UCheerTeamInfo@@V?$allocator@UCheerTeamInfo@@@std@@@std@@QAEXI@Z$0:

; 755  : 			_CATCH_ALL
; 756  : 			this->_Alval.deallocate(_Ptr, _Count);

  0009c	ff 75 08	 push	 DWORD PTR __Ptr$508970[ebp]
  0009f	e8 00 00 00 00	 call	 ??3@YAXPAX@Z		; operator delete
  000a4	59		 pop	 ecx

; 757  : 			_RERAISE;

  000a5	6a 00		 push	 0
  000a7	6a 00		 push	 0
  000a9	e8 00 00 00 00	 call	 __CxxThrowException@8
$LN57@reserve:
$LN54@reserve:
  000ae	cc		 int	 3
_TEXT	ENDS
;	COMDAT text$x
text$x	SEGMENT
__ehhandler$?reserve@?$vector@UCheerTeamInfo@@V?$allocator@UCheerTeamInfo@@@std@@@std@@QAEXI@Z:
  00000	8b 54 24 08	 mov	 edx, DWORD PTR [esp+8]
  00004	8d 42 0c	 lea	 eax, DWORD PTR [edx+12]
  00007	8b 4a ec	 mov	 ecx, DWORD PTR [edx-20]
  0000a	33 c8		 xor	 ecx, eax
  0000c	e8 00 00 00 00	 call	 @__security_check_cookie@4
  00011	b8 00 00 00 00	 mov	 eax, OFFSET __ehfuncinfo$?reserve@?$vector@UCheerTeamInfo@@V?$allocator@UCheerTeamInfo@@@std@@@std@@QAEXI@Z
  00016	e9 00 00 00 00	 jmp	 ___CxxFrameHandler3
text$x	ENDS
?reserve@?$vector@UCheerTeamInfo@@V?$allocator@UCheerTeamInfo@@@std@@@std@@QAEXI@Z ENDP ; std::vector<CheerTeamInfo,std::allocator<CheerTeamInfo> >::reserve
PUBLIC	??$_Uninitialized_move@PAUTeamUserData@@PAU1@V?$allocator@UTeamUserData@@@std@@@std@@YAPAUTeamUserData@@PAU1@00AAV?$allocator@UTeamUserData@@@0@@Z ; std::_Uninitialized_move<TeamUserData *,TeamUserData *,std::allocator<TeamUserData> >
; Function compile flags: /Ogsp
; File c:\program files (x86)\microsoft visual studio 10.0\vc\include\memory
;	COMDAT ??$_Uninitialized_move@PAUTeamUserData@@PAU1@V?$allocator@UTeamUserData@@@std@@@std@@YAPAUTeamUserData@@PAU1@00AAV?$allocator@UTeamUserData@@@0@@Z
_TEXT	SEGMENT
__Cat$514005 = -4					; size = 1
__First$ = 8						; size = 4
__Last$ = 12						; size = 4
__Dest$ = 16						; size = 4
__Al$ = 20						; size = 4
??$_Uninitialized_move@PAUTeamUserData@@PAU1@V?$allocator@UTeamUserData@@@std@@@std@@YAPAUTeamUserData@@PAU1@00AAV?$allocator@UTeamUserData@@@0@@Z PROC ; std::_Uninitialized_move<TeamUserData *,TeamUserData *,std::allocator<TeamUserData> >, COMDAT

; 469  : 	{	// move [_First, _Last) to raw _Dest, using _Al

  00000	55		 push	 ebp
  00001	8b ec		 mov	 ebp, esp
  00003	51		 push	 ecx

; 470  : 	return (_Uninit_move(_First, _Last, _Dest, _Al,
; 471  : 		_Val_type(_First), _Ptr_cat(_First, _Dest)));

  00004	ff 75 fc	 push	 DWORD PTR __Cat$514005[ebp]
  00007	6a 00		 push	 0
  00009	ff 75 14	 push	 DWORD PTR __Al$[ebp]
  0000c	ff 75 10	 push	 DWORD PTR __Dest$[ebp]
  0000f	ff 75 0c	 push	 DWORD PTR __Last$[ebp]
  00012	ff 75 08	 push	 DWORD PTR __First$[ebp]
  00015	e8 00 00 00 00	 call	 ??$_Uninit_move@PAUTeamUserData@@PAU1@V?$allocator@UTeamUserData@@@std@@U1@@std@@YAPAUTeamUserData@@PAU1@00AAV?$allocator@UTeamUserData@@@0@0U_Nonscalar_ptr_iterator_tag@0@@Z ; std::_Uninit_move<TeamUserData *,TeamUserData *,std::allocator<TeamUserData>,TeamUserData>
  0001a	83 c4 18	 add	 esp, 24			; 00000018H

; 472  : 	}

  0001d	c9		 leave
  0001e	c3		 ret	 0
??$_Uninitialized_move@PAUTeamUserData@@PAU1@V?$allocator@UTeamUserData@@@std@@@std@@YAPAUTeamUserData@@PAU1@00AAV?$allocator@UTeamUserData@@@0@@Z ENDP ; std::_Uninitialized_move<TeamUserData *,TeamUserData *,std::allocator<TeamUserData> >
_TEXT	ENDS
PUBLIC	??$_Uninitialized_copy@V?$_Vector_const_iterator@V?$_Vector_val@UTeamUserData@@V?$allocator@UTeamUserData@@@std@@@std@@@std@@PAUTeamUserData@@V?$allocator@UTeamUserData@@@2@@std@@YAPAUTeamUserData@@V?$_Vector_const_iterator@V?$_Vector_val@UTeamUserData@@V?$allocator@UTeamUserData@@@std@@@std@@@0@0PAU1@AAV?$allocator@UTeamUserData@@@0@@Z ; std::_Uninitialized_copy<std::_Vector_const_iterator<std::_Vector_val<TeamUserData,std::allocator<TeamUserData> > >,TeamUserData *,std::allocator<TeamUserData> >
; Function compile flags: /Ogsp
;	COMDAT ??$_Uninitialized_copy@V?$_Vector_const_iterator@V?$_Vector_val@UTeamUserData@@V?$allocator@UTeamUserData@@@std@@@std@@@std@@PAUTeamUserData@@V?$allocator@UTeamUserData@@@2@@std@@YAPAUTeamUserData@@V?$_Vector_const_iterator@V?$_Vector_val@UTeamUserData@@V?$allocator@UTeamUserData@@@std@@@std@@@0@0PAU1@AAV?$allocator@UTeamUserData@@@0@@Z
_TEXT	SEGMENT
__Cat$514014 = -4					; size = 1
__First$ = 8						; size = 4
__Last$ = 12						; size = 4
__Dest$ = 16						; size = 4
__Al$ = 20						; size = 4
??$_Uninitialized_copy@V?$_Vector_const_iterator@V?$_Vector_val@UTeamUserData@@V?$allocator@UTeamUserData@@@std@@@std@@@std@@PAUTeamUserData@@V?$allocator@UTeamUserData@@@2@@std@@YAPAUTeamUserData@@V?$_Vector_const_iterator@V?$_Vector_val@UTeamUserData@@V?$allocator@UTeamUserData@@@std@@@std@@@0@0PAU1@AAV?$allocator@UTeamUserData@@@0@@Z PROC ; std::_Uninitialized_copy<std::_Vector_const_iterator<std::_Vector_val<TeamUserData,std::allocator<TeamUserData> > >,TeamUserData *,std::allocator<TeamUserData> >, COMDAT

; 412  : 	{	// copy [_First, _Last) to raw _Dest, using _Al

  00000	55		 push	 ebp
  00001	8b ec		 mov	 ebp, esp
  00003	51		 push	 ecx

; 413  : 	return (_Uninit_copy(_First, _Last, _Dest, _Al,
; 414  : 		_Ptr_cat(_First, _Dest)));

  00004	ff 75 fc	 push	 DWORD PTR __Cat$514014[ebp]
  00007	ff 75 14	 push	 DWORD PTR __Al$[ebp]
  0000a	ff 75 10	 push	 DWORD PTR __Dest$[ebp]
  0000d	ff 75 0c	 push	 DWORD PTR __Last$[ebp]
  00010	ff 75 08	 push	 DWORD PTR __First$[ebp]
  00013	e8 00 00 00 00	 call	 ??$_Uninit_copy@V?$_Vector_const_iterator@V?$_Vector_val@UTeamUserData@@V?$allocator@UTeamUserData@@@std@@@std@@@std@@PAUTeamUserData@@V?$allocator@UTeamUserData@@@2@@std@@YAPAUTeamUserData@@V?$_Vector_const_iterator@V?$_Vector_val@UTeamUserData@@V?$allocator@UTeamUserData@@@std@@@std@@@0@0PAU1@AAV?$allocator@UTeamUserData@@@0@U_Nonscalar_ptr_iterator_tag@0@@Z ; std::_Uninit_copy<std::_Vector_const_iterator<std::_Vector_val<TeamUserData,std::allocator<TeamUserData> > >,TeamUserData *,std::allocator<TeamUserData> >
  00018	83 c4 14	 add	 esp, 20			; 00000014H

; 415  : 	}

  0001b	c9		 leave
  0001c	c3		 ret	 0
??$_Uninitialized_copy@V?$_Vector_const_iterator@V?$_Vector_val@UTeamUserData@@V?$allocator@UTeamUserData@@@std@@@std@@@std@@PAUTeamUserData@@V?$allocator@UTeamUserData@@@2@@std@@YAPAUTeamUserData@@V?$_Vector_const_iterator@V?$_Vector_val@UTeamUserData@@V?$allocator@UTeamUserData@@@std@@@std@@@0@0PAU1@AAV?$allocator@UTeamUserData@@@0@@Z ENDP ; std::_Uninitialized_copy<std::_Vector_const_iterator<std::_Vector_val<TeamUserData,std::allocator<TeamUserData> > >,TeamUserData *,std::allocator<TeamUserData> >
_TEXT	ENDS
PUBLIC	??$_Uninitialized_copy@PAUTeamUserData@@PAU1@V?$allocator@UTeamUserData@@@std@@@std@@YAPAUTeamUserData@@PAU1@00AAV?$allocator@UTeamUserData@@@0@@Z ; std::_Uninitialized_copy<TeamUserData *,TeamUserData *,std::allocator<TeamUserData> >
; Function compile flags: /Ogsp
;	COMDAT ??$_Uninitialized_copy@PAUTeamUserData@@PAU1@V?$allocator@UTeamUserData@@@std@@@std@@YAPAUTeamUserData@@PAU1@00AAV?$allocator@UTeamUserData@@@0@@Z
_TEXT	SEGMENT
__Cat$514022 = -4					; size = 1
__First$ = 8						; size = 4
__Last$ = 12						; size = 4
__Dest$ = 16						; size = 4
__Al$ = 20						; size = 4
??$_Uninitialized_copy@PAUTeamUserData@@PAU1@V?$allocator@UTeamUserData@@@std@@@std@@YAPAUTeamUserData@@PAU1@00AAV?$allocator@UTeamUserData@@@0@@Z PROC ; std::_Uninitialized_copy<TeamUserData *,TeamUserData *,std::allocator<TeamUserData> >, COMDAT

; 412  : 	{	// copy [_First, _Last) to raw _Dest, using _Al

  00000	55		 push	 ebp
  00001	8b ec		 mov	 ebp, esp
  00003	51		 push	 ecx

; 413  : 	return (_Uninit_copy(_First, _Last, _Dest, _Al,
; 414  : 		_Ptr_cat(_First, _Dest)));

  00004	ff 75 fc	 push	 DWORD PTR __Cat$514022[ebp]
  00007	ff 75 14	 push	 DWORD PTR __Al$[ebp]
  0000a	ff 75 10	 push	 DWORD PTR __Dest$[ebp]
  0000d	ff 75 0c	 push	 DWORD PTR __Last$[ebp]
  00010	ff 75 08	 push	 DWORD PTR __First$[ebp]
  00013	e8 00 00 00 00	 call	 ??$_Uninit_copy@PAUTeamUserData@@PAU1@V?$allocator@UTeamUserData@@@std@@@std@@YAPAUTeamUserData@@PAU1@00AAV?$allocator@UTeamUserData@@@0@U_Nonscalar_ptr_iterator_tag@0@@Z ; std::_Uninit_copy<TeamUserData *,TeamUserData *,std::allocator<TeamUserData> >
  00018	83 c4 14	 add	 esp, 20			; 00000014H

; 415  : 	}

  0001b	c9		 leave
  0001c	c3		 ret	 0
??$_Uninitialized_copy@PAUTeamUserData@@PAU1@V?$allocator@UTeamUserData@@@std@@@std@@YAPAUTeamUserData@@PAU1@00AAV?$allocator@UTeamUserData@@@0@@Z ENDP ; std::_Uninitialized_copy<TeamUserData *,TeamUserData *,std::allocator<TeamUserData> >
_TEXT	ENDS
PUBLIC	??$_Destroy_range@V?$allocator@UTeamUserData@@@std@@@std@@YAXPAUTeamUserData@@0AAV?$allocator@UTeamUserData@@@0@@Z ; std::_Destroy_range<std::allocator<TeamUserData> >
; Function compile flags: /Ogsp
; File c:\program files (x86)\microsoft visual studio 10.0\vc\include\xmemory
;	COMDAT ??$_Destroy_range@V?$allocator@UTeamUserData@@@std@@@std@@YAXPAUTeamUserData@@0AAV?$allocator@UTeamUserData@@@0@@Z
_TEXT	SEGMENT
__First$ = 8						; size = 4
__Last$ = 12						; size = 4
__Al$ = 16						; size = 4
??$_Destroy_range@V?$allocator@UTeamUserData@@@std@@@std@@YAXPAUTeamUserData@@0AAV?$allocator@UTeamUserData@@@0@@Z PROC ; std::_Destroy_range<std::allocator<TeamUserData> >, COMDAT

; 87   : 	{	// destroy [_First, _Last)

  00000	55		 push	 ebp
  00001	8b ec		 mov	 ebp, esp
  00003	56		 push	 esi

; 88   : 	_Destroy_range(_First, _Last, _Al, _Ptr_cat(_First, _Last));

  00004	8b 75 08	 mov	 esi, DWORD PTR __First$[ebp]
  00007	eb 0c		 jmp	 SHORT $LN24@Destroy_ra@2
$LL7@Destroy_ra@2:
  00009	8d 4e 08	 lea	 ecx, DWORD PTR [esi+8]
  0000c	ff 15 00 00 00
	00		 call	 DWORD PTR __imp_??1ioHashString@@QAE@XZ
  00012	83 c6 18	 add	 esi, 24			; 00000018H
$LN24@Destroy_ra@2:
  00015	3b 75 0c	 cmp	 esi, DWORD PTR __Last$[ebp]
  00018	75 ef		 jne	 SHORT $LL7@Destroy_ra@2
  0001a	5e		 pop	 esi

; 89   : 	}

  0001b	5d		 pop	 ebp
  0001c	c3		 ret	 0
??$_Destroy_range@V?$allocator@UTeamUserData@@@std@@@std@@YAXPAUTeamUserData@@0AAV?$allocator@UTeamUserData@@@0@@Z ENDP ; std::_Destroy_range<std::allocator<TeamUserData> >
_TEXT	ENDS
PUBLIC	?DeleteCheerTeam@ioUserTournament@@QAEXK@Z	; ioUserTournament::DeleteCheerTeam
; Function compile flags: /Ogsp
; File d:\lost saga for developer\youtube\tutorial\source\src\lsclient\iousertournament.cpp
;	COMDAT ?DeleteCheerTeam@ioUserTournament@@QAEXK@Z
_TEXT	SEGMENT
$T514095 = -4						; size = 4
_dwTourIdx$ = 8						; size = 4
?DeleteCheerTeam@ioUserTournament@@QAEXK@Z PROC		; ioUserTournament::DeleteCheerTeam, COMDAT
; _this$ = ecx

; 518  : {

  00000	55		 push	 ebp
  00001	8b ec		 mov	 ebp, esp
  00003	51		 push	 ecx
  00004	56		 push	 esi
  00005	8b f1		 mov	 esi, ecx

; 519  : 	for(CheerTeamInfoVec::iterator iter = m_CheerList.begin(); iter != m_CheerList.end(); )

  00007	8b 46 14	 mov	 eax, DWORD PTR [esi+20]
  0000a	57		 push	 edi
  0000b	eb 1b		 jmp	 SHORT $LN38@DeleteChee
$LL4@DeleteChee:

; 520  : 	{
; 521  : 		CheerTeamInfo& rkCheerData = *iter;
; 522  : 		if( rkCheerData.m_dwTourIndex == dwTourIdx )

  0000d	8b 08		 mov	 ecx, DWORD PTR [eax]
  0000f	3b 4d 08	 cmp	 ecx, DWORD PTR _dwTourIdx$[ebp]
  00012	75 11		 jne	 SHORT $LN2@DeleteChee

; 523  : 		{
; 524  : 			iter = m_CheerList.erase( iter );

  00014	50		 push	 eax
  00015	8d 45 fc	 lea	 eax, DWORD PTR $T514095[ebp]
  00018	50		 push	 eax
  00019	8d 4e 14	 lea	 ecx, DWORD PTR [esi+20]
  0001c	e8 00 00 00 00	 call	 ?erase@?$vector@UCheerTeamInfo@@V?$allocator@UCheerTeamInfo@@@std@@@std@@QAE?AV?$_Vector_iterator@V?$_Vector_val@UCheerTeamInfo@@V?$allocator@UCheerTeamInfo@@@std@@@std@@@2@V?$_Vector_const_iterator@V?$_Vector_val@UCheerTeamInfo@@V?$allocator@UCheerTeamInfo@@@std@@@std@@@2@@Z ; std::vector<CheerTeamInfo,std::allocator<CheerTeamInfo> >::erase
  00021	8b 00		 mov	 eax, DWORD PTR [eax]

; 525  : 		}
; 526  : 		else

  00023	eb 03		 jmp	 SHORT $LN38@DeleteChee
$LN2@DeleteChee:

; 527  : 		{
; 528  : 			++iter;

  00025	83 c0 10	 add	 eax, 16			; 00000010H
$LN38@DeleteChee:

; 519  : 	for(CheerTeamInfoVec::iterator iter = m_CheerList.begin(); iter != m_CheerList.end(); )

  00028	3b 46 18	 cmp	 eax, DWORD PTR [esi+24]
  0002b	75 e0		 jne	 SHORT $LL4@DeleteChee
  0002d	5f		 pop	 edi
  0002e	5e		 pop	 esi

; 529  : 		}
; 530  : 	}
; 531  : }

  0002f	c9		 leave
  00030	c2 04 00	 ret	 4
?DeleteCheerTeam@ioUserTournament@@QAEXK@Z ENDP		; ioUserTournament::DeleteCheerTeam
_TEXT	ENDS
PUBLIC	?_Reserve@?$vector@UCheerTeamInfo@@V?$allocator@UCheerTeamInfo@@@std@@@std@@IAEXI@Z ; std::vector<CheerTeamInfo,std::allocator<CheerTeamInfo> >::_Reserve
; Function compile flags: /Ogsp
; File c:\program files (x86)\microsoft visual studio 10.0\vc\include\vector
;	COMDAT ?_Reserve@?$vector@UCheerTeamInfo@@V?$allocator@UCheerTeamInfo@@@std@@@std@@IAEXI@Z
_TEXT	SEGMENT
__Count$ = 8						; size = 4
?_Reserve@?$vector@UCheerTeamInfo@@V?$allocator@UCheerTeamInfo@@@std@@@std@@IAEXI@Z PROC ; std::vector<CheerTeamInfo,std::allocator<CheerTeamInfo> >::_Reserve, COMDAT
; _this$ = ecx

; 1290 : 		{	// ensure room for _Count new elements, grow exponentially

  00000	55		 push	 ebp
  00001	8b ec		 mov	 ebp, esp
  00003	56		 push	 esi
  00004	8b f1		 mov	 esi, ecx

; 1291 : 		size_type _Size = size();

  00006	8b 0e		 mov	 ecx, DWORD PTR [esi]
  00008	8b 46 04	 mov	 eax, DWORD PTR [esi+4]
  0000b	2b c1		 sub	 eax, ecx

; 1292 : 		if (max_size() - _Count < _Size)

  0000d	ba ff ff ff 0f	 mov	 edx, 268435455		; 0fffffffH
  00012	2b 55 08	 sub	 edx, DWORD PTR __Count$[ebp]
  00015	c1 f8 04	 sar	 eax, 4
  00018	3b d0		 cmp	 edx, eax
  0001a	73 0b		 jae	 SHORT $LN4@Reserve

; 1293 : 			_Xlen();

  0001c	68 00 00 00 00	 push	 OFFSET ??_C@_0BD@OLBABOEK@vector?$DMT?$DO?5too?5long?$AA@
  00021	ff 15 00 00 00
	00		 call	 DWORD PTR __imp_?_Xlength_error@std@@YAXPBD@Z
$LN21@Reserve:
$LN4@Reserve:

; 1294 : 		else if ((_Size += _Count) <= capacity())

  00027	8b 56 08	 mov	 edx, DWORD PTR [esi+8]
  0002a	03 45 08	 add	 eax, DWORD PTR __Count$[ebp]
  0002d	2b d1		 sub	 edx, ecx
  0002f	c1 fa 04	 sar	 edx, 4
  00032	3b c2		 cmp	 eax, edx
  00034	76 10		 jbe	 SHORT $LN1@Reserve

; 1295 : 			;
; 1296 : 		else
; 1297 : 			reserve(_Grow_to(_Size));

  00036	50		 push	 eax
  00037	8b ce		 mov	 ecx, esi
  00039	e8 00 00 00 00	 call	 ?_Grow_to@?$vector@UCheerTeamInfo@@V?$allocator@UCheerTeamInfo@@@std@@@std@@IBEII@Z ; std::vector<CheerTeamInfo,std::allocator<CheerTeamInfo> >::_Grow_to
  0003e	50		 push	 eax
  0003f	8b ce		 mov	 ecx, esi
  00041	e8 00 00 00 00	 call	 ?reserve@?$vector@UCheerTeamInfo@@V?$allocator@UCheerTeamInfo@@@std@@@std@@QAEXI@Z ; std::vector<CheerTeamInfo,std::allocator<CheerTeamInfo> >::reserve
$LN1@Reserve:
  00046	5e		 pop	 esi

; 1298 : 		}

  00047	5d		 pop	 ebp
  00048	c2 04 00	 ret	 4
$LN20@Reserve:
?_Reserve@?$vector@UCheerTeamInfo@@V?$allocator@UCheerTeamInfo@@@std@@@std@@IAEXI@Z ENDP ; std::vector<CheerTeamInfo,std::allocator<CheerTeamInfo> >::_Reserve
_TEXT	ENDS
PUBLIC	??$_Umove@PAUTeamUserData@@@?$vector@UTeamUserData@@V?$allocator@UTeamUserData@@@std@@@std@@IAEPAUTeamUserData@@PAU2@00@Z ; std::vector<TeamUserData,std::allocator<TeamUserData> >::_Umove<TeamUserData *>
; Function compile flags: /Ogsp
;	COMDAT ??$_Umove@PAUTeamUserData@@@?$vector@UTeamUserData@@V?$allocator@UTeamUserData@@@std@@@std@@IAEPAUTeamUserData@@PAU2@00@Z
_TEXT	SEGMENT
__First$ = 8						; size = 4
__Last$ = 12						; size = 4
__Ptr$ = 16						; size = 4
??$_Umove@PAUTeamUserData@@@?$vector@UTeamUserData@@V?$allocator@UTeamUserData@@@std@@@std@@IAEPAUTeamUserData@@PAU2@00@Z PROC ; std::vector<TeamUserData,std::allocator<TeamUserData> >::_Umove<TeamUserData *>, COMDAT
; _this$ = ecx

; 1322 : 		pointer _Umove(_Iter _First, _Iter _Last, pointer _Ptr)

  00000	55		 push	 ebp
  00001	8b ec		 mov	 ebp, esp

; 1323 : 		{	// move initializing [_First, _Last), using allocator
; 1324 : 		return (_Uninitialized_move(_First, _Last,
; 1325 : 			_Ptr, this->_Alval));

  00003	83 c1 0c	 add	 ecx, 12			; 0000000cH
  00006	51		 push	 ecx
  00007	ff 75 10	 push	 DWORD PTR __Ptr$[ebp]
  0000a	ff 75 0c	 push	 DWORD PTR __Last$[ebp]
  0000d	ff 75 08	 push	 DWORD PTR __First$[ebp]
  00010	e8 00 00 00 00	 call	 ??$_Uninitialized_move@PAUTeamUserData@@PAU1@V?$allocator@UTeamUserData@@@std@@@std@@YAPAUTeamUserData@@PAU1@00AAV?$allocator@UTeamUserData@@@0@@Z ; std::_Uninitialized_move<TeamUserData *,TeamUserData *,std::allocator<TeamUserData> >
  00015	83 c4 10	 add	 esp, 16			; 00000010H

; 1326 : 		}

  00018	5d		 pop	 ebp
  00019	c2 0c 00	 ret	 12			; 0000000cH
??$_Umove@PAUTeamUserData@@@?$vector@UTeamUserData@@V?$allocator@UTeamUserData@@@std@@@std@@IAEPAUTeamUserData@@PAU2@00@Z ENDP ; std::vector<TeamUserData,std::allocator<TeamUserData> >::_Umove<TeamUserData *>
_TEXT	ENDS
PUBLIC	??$_Ucopy@V?$_Vector_const_iterator@V?$_Vector_val@UTeamUserData@@V?$allocator@UTeamUserData@@@std@@@std@@@std@@@?$vector@UTeamUserData@@V?$allocator@UTeamUserData@@@std@@@std@@IAEPAUTeamUserData@@V?$_Vector_const_iterator@V?$_Vector_val@UTeamUserData@@V?$allocator@UTeamUserData@@@std@@@std@@@1@0PAU2@@Z ; std::vector<TeamUserData,std::allocator<TeamUserData> >::_Ucopy<std::_Vector_const_iterator<std::_Vector_val<TeamUserData,std::allocator<TeamUserData> > > >
; Function compile flags: /Ogsp
;	COMDAT ??$_Ucopy@V?$_Vector_const_iterator@V?$_Vector_val@UTeamUserData@@V?$allocator@UTeamUserData@@@std@@@std@@@std@@@?$vector@UTeamUserData@@V?$allocator@UTeamUserData@@@std@@@std@@IAEPAUTeamUserData@@V?$_Vector_const_iterator@V?$_Vector_val@UTeamUserData@@V?$allocator@UTeamUserData@@@std@@@std@@@1@0PAU2@@Z
_TEXT	SEGMENT
__First$ = 8						; size = 4
__Last$ = 12						; size = 4
__Cat$514223 = 16					; size = 1
__Ptr$ = 16						; size = 4
??$_Ucopy@V?$_Vector_const_iterator@V?$_Vector_val@UTeamUserData@@V?$allocator@UTeamUserData@@@std@@@std@@@std@@@?$vector@UTeamUserData@@V?$allocator@UTeamUserData@@@std@@@std@@IAEPAUTeamUserData@@V?$_Vector_const_iterator@V?$_Vector_val@UTeamUserData@@V?$allocator@UTeamUserData@@@std@@@std@@@1@0PAU2@@Z PROC ; std::vector<TeamUserData,std::allocator<TeamUserData> >::_Ucopy<std::_Vector_const_iterator<std::_Vector_val<TeamUserData,std::allocator<TeamUserData> > > >, COMDAT
; _this$ = ecx

; 1315 : 		pointer _Ucopy(_Iter _First, _Iter _Last, pointer _Ptr)

  00000	55		 push	 ebp
  00001	8b ec		 mov	 ebp, esp

; 1316 : 		{	// copy initializing [_First, _Last), using allocator
; 1317 : 		return (_Uninitialized_copy(_First, _Last,
; 1318 : 			_Ptr, this->_Alval));

  00003	ff 75 10	 push	 DWORD PTR __Cat$514223[ebp]
  00006	83 c1 0c	 add	 ecx, 12			; 0000000cH
  00009	51		 push	 ecx
  0000a	ff 75 10	 push	 DWORD PTR __Ptr$[ebp]
  0000d	ff 75 0c	 push	 DWORD PTR __Last$[ebp]
  00010	ff 75 08	 push	 DWORD PTR __First$[ebp]
  00013	e8 00 00 00 00	 call	 ??$_Uninit_copy@V?$_Vector_const_iterator@V?$_Vector_val@UTeamUserData@@V?$allocator@UTeamUserData@@@std@@@std@@@std@@PAUTeamUserData@@V?$allocator@UTeamUserData@@@2@@std@@YAPAUTeamUserData@@V?$_Vector_const_iterator@V?$_Vector_val@UTeamUserData@@V?$allocator@UTeamUserData@@@std@@@std@@@0@0PAU1@AAV?$allocator@UTeamUserData@@@0@U_Nonscalar_ptr_iterator_tag@0@@Z ; std::_Uninit_copy<std::_Vector_const_iterator<std::_Vector_val<TeamUserData,std::allocator<TeamUserData> > >,TeamUserData *,std::allocator<TeamUserData> >
  00018	83 c4 14	 add	 esp, 20			; 00000014H

; 1319 : 		}

  0001b	5d		 pop	 ebp
  0001c	c2 0c 00	 ret	 12			; 0000000cH
??$_Ucopy@V?$_Vector_const_iterator@V?$_Vector_val@UTeamUserData@@V?$allocator@UTeamUserData@@@std@@@std@@@std@@@?$vector@UTeamUserData@@V?$allocator@UTeamUserData@@@std@@@std@@IAEPAUTeamUserData@@V?$_Vector_const_iterator@V?$_Vector_val@UTeamUserData@@V?$allocator@UTeamUserData@@@std@@@std@@@1@0PAU2@@Z ENDP ; std::vector<TeamUserData,std::allocator<TeamUserData> >::_Ucopy<std::_Vector_const_iterator<std::_Vector_val<TeamUserData,std::allocator<TeamUserData> > > >
_TEXT	ENDS
PUBLIC	??$_Ucopy@PAUTeamUserData@@@?$vector@UTeamUserData@@V?$allocator@UTeamUserData@@@std@@@std@@IAEPAUTeamUserData@@PAU2@00@Z ; std::vector<TeamUserData,std::allocator<TeamUserData> >::_Ucopy<TeamUserData *>
; Function compile flags: /Ogsp
;	COMDAT ??$_Ucopy@PAUTeamUserData@@@?$vector@UTeamUserData@@V?$allocator@UTeamUserData@@@std@@@std@@IAEPAUTeamUserData@@PAU2@00@Z
_TEXT	SEGMENT
__First$ = 8						; size = 4
__Last$ = 12						; size = 4
__Cat$514239 = 16					; size = 1
__Ptr$ = 16						; size = 4
??$_Ucopy@PAUTeamUserData@@@?$vector@UTeamUserData@@V?$allocator@UTeamUserData@@@std@@@std@@IAEPAUTeamUserData@@PAU2@00@Z PROC ; std::vector<TeamUserData,std::allocator<TeamUserData> >::_Ucopy<TeamUserData *>, COMDAT
; _this$ = ecx

; 1315 : 		pointer _Ucopy(_Iter _First, _Iter _Last, pointer _Ptr)

  00000	55		 push	 ebp
  00001	8b ec		 mov	 ebp, esp

; 1316 : 		{	// copy initializing [_First, _Last), using allocator
; 1317 : 		return (_Uninitialized_copy(_First, _Last,
; 1318 : 			_Ptr, this->_Alval));

  00003	ff 75 10	 push	 DWORD PTR __Cat$514239[ebp]
  00006	83 c1 0c	 add	 ecx, 12			; 0000000cH
  00009	51		 push	 ecx
  0000a	ff 75 10	 push	 DWORD PTR __Ptr$[ebp]
  0000d	ff 75 0c	 push	 DWORD PTR __Last$[ebp]
  00010	ff 75 08	 push	 DWORD PTR __First$[ebp]
  00013	e8 00 00 00 00	 call	 ??$_Uninit_copy@PAUTeamUserData@@PAU1@V?$allocator@UTeamUserData@@@std@@@std@@YAPAUTeamUserData@@PAU1@00AAV?$allocator@UTeamUserData@@@0@U_Nonscalar_ptr_iterator_tag@0@@Z ; std::_Uninit_copy<TeamUserData *,TeamUserData *,std::allocator<TeamUserData> >
  00018	83 c4 14	 add	 esp, 20			; 00000014H

; 1319 : 		}

  0001b	5d		 pop	 ebp
  0001c	c2 0c 00	 ret	 12			; 0000000cH
??$_Ucopy@PAUTeamUserData@@@?$vector@UTeamUserData@@V?$allocator@UTeamUserData@@@std@@@std@@IAEPAUTeamUserData@@PAU2@00@Z ENDP ; std::vector<TeamUserData,std::allocator<TeamUserData> >::_Ucopy<TeamUserData *>
_TEXT	ENDS
PUBLIC	?_Destroy@?$vector@UTeamUserData@@V?$allocator@UTeamUserData@@@std@@@std@@IAEXPAUTeamUserData@@0@Z ; std::vector<TeamUserData,std::allocator<TeamUserData> >::_Destroy
; Function compile flags: /Ogsp
;	COMDAT ?_Destroy@?$vector@UTeamUserData@@V?$allocator@UTeamUserData@@@std@@@std@@IAEXPAUTeamUserData@@0@Z
_TEXT	SEGMENT
__First$ = 8						; size = 4
__Last$ = 12						; size = 4
?_Destroy@?$vector@UTeamUserData@@V?$allocator@UTeamUserData@@@std@@@std@@IAEXPAUTeamUserData@@0@Z PROC ; std::vector<TeamUserData,std::allocator<TeamUserData> >::_Destroy, COMDAT
; _this$ = ecx

; 1269 : 		{	// destroy [_First, _Last) using allocator

  00000	55		 push	 ebp
  00001	8b ec		 mov	 ebp, esp

; 1270 : 		_Destroy_range(_First, _Last, this->_Alval);

  00003	83 c1 0c	 add	 ecx, 12			; 0000000cH
  00006	51		 push	 ecx
  00007	ff 75 0c	 push	 DWORD PTR __Last$[ebp]
  0000a	ff 75 08	 push	 DWORD PTR __First$[ebp]
  0000d	e8 00 00 00 00	 call	 ??$_Destroy_range@V?$allocator@UTeamUserData@@@std@@@std@@YAXPAUTeamUserData@@0AAV?$allocator@UTeamUserData@@@0@@Z ; std::_Destroy_range<std::allocator<TeamUserData> >
  00012	83 c4 0c	 add	 esp, 12			; 0000000cH

; 1271 : 		}

  00015	5d		 pop	 ebp
  00016	c2 08 00	 ret	 8
?_Destroy@?$vector@UTeamUserData@@V?$allocator@UTeamUserData@@@std@@@std@@IAEXPAUTeamUserData@@0@Z ENDP ; std::vector<TeamUserData,std::allocator<TeamUserData> >::_Destroy
_TEXT	ENDS
PUBLIC	?erase@?$vector@UTeamUserData@@V?$allocator@UTeamUserData@@@std@@@std@@QAE?AV?$_Vector_iterator@V?$_Vector_val@UTeamUserData@@V?$allocator@UTeamUserData@@@std@@@std@@@2@V?$_Vector_const_iterator@V?$_Vector_val@UTeamUserData@@V?$allocator@UTeamUserData@@@std@@@std@@@2@@Z ; std::vector<TeamUserData,std::allocator<TeamUserData> >::erase
; Function compile flags: /Ogsp
;	COMDAT ?erase@?$vector@UTeamUserData@@V?$allocator@UTeamUserData@@@std@@@std@@QAE?AV?$_Vector_iterator@V?$_Vector_val@UTeamUserData@@V?$allocator@UTeamUserData@@@std@@@std@@@2@V?$_Vector_const_iterator@V?$_Vector_val@UTeamUserData@@V?$allocator@UTeamUserData@@@std@@@std@@@2@@Z
_TEXT	SEGMENT
___$ReturnUdt$ = 8					; size = 4
__Cat$514256 = 12					; size = 1
__Where$ = 12						; size = 4
?erase@?$vector@UTeamUserData@@V?$allocator@UTeamUserData@@@std@@@std@@QAE?AV?$_Vector_iterator@V?$_Vector_val@UTeamUserData@@V?$allocator@UTeamUserData@@@std@@@std@@@2@V?$_Vector_const_iterator@V?$_Vector_val@UTeamUserData@@V?$allocator@UTeamUserData@@@std@@@std@@@2@@Z PROC ; std::vector<TeamUserData,std::allocator<TeamUserData> >::erase, COMDAT
; _this$ = ecx

; 1179 : 		{	// erase element at where

  00000	55		 push	 ebp
  00001	8b ec		 mov	 ebp, esp

; 1180 : 		_Move(_VIPTR(_Where) + 1, this->_Mylast,
; 1181 : 			_VIPTR(_Where));

  00003	8b 45 0c	 mov	 eax, DWORD PTR __Where$[ebp]
  00006	56		 push	 esi
  00007	ff 75 0c	 push	 DWORD PTR __Cat$514256[ebp]
  0000a	8b f1		 mov	 esi, ecx
  0000c	50		 push	 eax
  0000d	ff 76 04	 push	 DWORD PTR [esi+4]
  00010	83 c0 18	 add	 eax, 24			; 00000018H
  00013	50		 push	 eax
  00014	e8 00 00 00 00	 call	 ??$_Move@PAUTeamUserData@@PAU1@@std@@YAPAUTeamUserData@@PAU1@00U_Nonscalar_ptr_iterator_tag@0@@Z ; std::_Move<TeamUserData *,TeamUserData *>

; 1182 : 		_Destroy(this->_Mylast - 1, this->_Mylast);

  00019	8b 46 04	 mov	 eax, DWORD PTR [esi+4]
  0001c	8d 4e 0c	 lea	 ecx, DWORD PTR [esi+12]
  0001f	51		 push	 ecx
  00020	50		 push	 eax
  00021	83 c0 e8	 add	 eax, -24		; ffffffe8H
  00024	50		 push	 eax
  00025	e8 00 00 00 00	 call	 ??$_Destroy_range@V?$allocator@UTeamUserData@@@std@@@std@@YAXPAUTeamUserData@@0AAV?$allocator@UTeamUserData@@@0@@Z ; std::_Destroy_range<std::allocator<TeamUserData> >

; 1183 : 		--this->_Mylast;
; 1184 : 		return (_Make_iter(_Where));

  0002a	8b 45 08	 mov	 eax, DWORD PTR ___$ReturnUdt$[ebp]
  0002d	8b 4d 0c	 mov	 ecx, DWORD PTR __Where$[ebp]
  00030	83 c4 1c	 add	 esp, 28			; 0000001cH
  00033	83 46 04 e8	 add	 DWORD PTR [esi+4], -24	; ffffffe8H
  00037	89 08		 mov	 DWORD PTR [eax], ecx
  00039	5e		 pop	 esi

; 1185 : 		}

  0003a	5d		 pop	 ebp
  0003b	c2 08 00	 ret	 8
?erase@?$vector@UTeamUserData@@V?$allocator@UTeamUserData@@@std@@@std@@QAE?AV?$_Vector_iterator@V?$_Vector_val@UTeamUserData@@V?$allocator@UTeamUserData@@@std@@@std@@@2@V?$_Vector_const_iterator@V?$_Vector_val@UTeamUserData@@V?$allocator@UTeamUserData@@@std@@@std@@@2@@Z ENDP ; std::vector<TeamUserData,std::allocator<TeamUserData> >::erase
_TEXT	ENDS
PUBLIC	?push_back@?$vector@UCheerTeamInfo@@V?$allocator@UCheerTeamInfo@@@std@@@std@@QAEXABUCheerTeamInfo@@@Z ; std::vector<CheerTeamInfo,std::allocator<CheerTeamInfo> >::push_back
; Function compile flags: /Ogsp
;	COMDAT ?push_back@?$vector@UCheerTeamInfo@@V?$allocator@UCheerTeamInfo@@@std@@@std@@QAEXABUCheerTeamInfo@@@Z
_TEXT	SEGMENT
__Val$ = 8						; size = 4
?push_back@?$vector@UCheerTeamInfo@@V?$allocator@UCheerTeamInfo@@@std@@@std@@QAEXABUCheerTeamInfo@@@Z PROC ; std::vector<CheerTeamInfo,std::allocator<CheerTeamInfo> >::push_back, COMDAT
; _this$ = ecx

; 976  : 		{	// insert element at end

  00000	55		 push	 ebp
  00001	8b ec		 mov	 ebp, esp
  00003	56		 push	 esi
  00004	8b f1		 mov	 esi, ecx

; 977  : 		if (_Inside(_STD addressof(_Val)))

  00006	8b 46 04	 mov	 eax, DWORD PTR [esi+4]
  00009	57		 push	 edi
  0000a	8b 7d 08	 mov	 edi, DWORD PTR __Val$[ebp]
  0000d	3b f8		 cmp	 edi, eax
  0000f	73 2a		 jae	 SHORT $LN4@push_back
  00011	8b 0e		 mov	 ecx, DWORD PTR [esi]
  00013	3b cf		 cmp	 ecx, edi
  00015	77 24		 ja	 SHORT $LN4@push_back

; 978  : 			{	// push back an element
; 979  : 			size_type _Idx = _STD addressof(_Val) - this->_Myfirst;

  00017	2b f9		 sub	 edi, ecx

; 980  : 			if (this->_Mylast == this->_Myend)

  00019	3b 46 08	 cmp	 eax, DWORD PTR [esi+8]
  0001c	75 09		 jne	 SHORT $LN3@push_back

; 981  : 				_Reserve(1);

  0001e	6a 01		 push	 1
  00020	8b ce		 mov	 ecx, esi
  00022	e8 00 00 00 00	 call	 ?_Reserve@?$vector@UCheerTeamInfo@@V?$allocator@UCheerTeamInfo@@@std@@@std@@IAEXI@Z ; std::vector<CheerTeamInfo,std::allocator<CheerTeamInfo> >::_Reserve
$LN3@push_back:

; 982  : 			_Orphan_range(this->_Mylast, this->_Mylast);
; 983  : 			_Cons_val(this->_Alval,
; 984  : 				this->_Mylast,
; 985  : 				this->_Myfirst[_Idx]);

  00027	83 e7 f0	 and	 edi, -16		; fffffff0H
  0002a	03 3e		 add	 edi, DWORD PTR [esi]
  0002c	8d 46 0c	 lea	 eax, DWORD PTR [esi+12]
  0002f	57		 push	 edi
  00030	ff 76 04	 push	 DWORD PTR [esi+4]
  00033	50		 push	 eax
  00034	e8 00 00 00 00	 call	 ??$_Cons_val@V?$allocator@UCheerTeamInfo@@@std@@UCheerTeamInfo@@AAU3@@std@@YAXAAV?$allocator@UCheerTeamInfo@@@0@PAUCheerTeamInfo@@AAU2@@Z ; std::_Cons_val<std::allocator<CheerTeamInfo>,CheerTeamInfo,CheerTeamInfo &>

; 986  : 			++this->_Mylast;
; 987  : 			}
; 988  : 		else

  00039	eb 1b		 jmp	 SHORT $LN20@push_back
$LN4@push_back:

; 989  : 			{	// push back a non-element
; 990  : 			if (this->_Mylast == this->_Myend)

  0003b	3b 46 08	 cmp	 eax, DWORD PTR [esi+8]
  0003e	75 09		 jne	 SHORT $LN1@push_back

; 991  : 				_Reserve(1);

  00040	6a 01		 push	 1
  00042	8b ce		 mov	 ecx, esi
  00044	e8 00 00 00 00	 call	 ?_Reserve@?$vector@UCheerTeamInfo@@V?$allocator@UCheerTeamInfo@@@std@@@std@@IAEXI@Z ; std::vector<CheerTeamInfo,std::allocator<CheerTeamInfo> >::_Reserve
$LN1@push_back:

; 992  : 			_Orphan_range(this->_Mylast, this->_Mylast);
; 993  : 			_Cons_val(this->_Alval,
; 994  : 				this->_Mylast,
; 995  : 				_Val);

  00049	57		 push	 edi
  0004a	ff 76 04	 push	 DWORD PTR [esi+4]
  0004d	8d 46 0c	 lea	 eax, DWORD PTR [esi+12]
  00050	50		 push	 eax
  00051	e8 00 00 00 00	 call	 ??$_Cons_val@V?$allocator@UCheerTeamInfo@@@std@@UCheerTeamInfo@@ABU3@@std@@YAXAAV?$allocator@UCheerTeamInfo@@@0@PAUCheerTeamInfo@@ABU2@@Z ; std::_Cons_val<std::allocator<CheerTeamInfo>,CheerTeamInfo,CheerTeamInfo const &>
$LN20@push_back:
  00056	83 c4 0c	 add	 esp, 12			; 0000000cH

; 996  : 			++this->_Mylast;

  00059	83 46 04 10	 add	 DWORD PTR [esi+4], 16	; 00000010H
  0005d	5f		 pop	 edi
  0005e	5e		 pop	 esi

; 997  : 			}
; 998  : 		}

  0005f	5d		 pop	 ebp
  00060	c2 04 00	 ret	 4
?push_back@?$vector@UCheerTeamInfo@@V?$allocator@UCheerTeamInfo@@@std@@@std@@QAEXABUCheerTeamInfo@@@Z ENDP ; std::vector<CheerTeamInfo,std::allocator<CheerTeamInfo> >::push_back
_TEXT	ENDS
PUBLIC	?erase@?$vector@UTeamUserData@@V?$allocator@UTeamUserData@@@std@@@std@@QAE?AV?$_Vector_iterator@V?$_Vector_val@UTeamUserData@@V?$allocator@UTeamUserData@@@std@@@std@@@2@V?$_Vector_const_iterator@V?$_Vector_val@UTeamUserData@@V?$allocator@UTeamUserData@@@std@@@std@@@2@0@Z ; std::vector<TeamUserData,std::allocator<TeamUserData> >::erase
; Function compile flags: /Ogsp
;	COMDAT ?erase@?$vector@UTeamUserData@@V?$allocator@UTeamUserData@@@std@@@std@@QAE?AV?$_Vector_iterator@V?$_Vector_val@UTeamUserData@@V?$allocator@UTeamUserData@@@std@@@std@@@2@V?$_Vector_const_iterator@V?$_Vector_val@UTeamUserData@@V?$allocator@UTeamUserData@@@std@@@std@@@2@0@Z
_TEXT	SEGMENT
___$ReturnUdt$ = 8					; size = 4
__First_arg$ = 12					; size = 4
__Cat$514386 = 16					; size = 1
__Last_arg$ = 16					; size = 4
?erase@?$vector@UTeamUserData@@V?$allocator@UTeamUserData@@@std@@@std@@QAE?AV?$_Vector_iterator@V?$_Vector_val@UTeamUserData@@V?$allocator@UTeamUserData@@@std@@@std@@@2@V?$_Vector_const_iterator@V?$_Vector_val@UTeamUserData@@V?$allocator@UTeamUserData@@@std@@@std@@@2@0@Z PROC ; std::vector<TeamUserData,std::allocator<TeamUserData> >::erase, COMDAT
; _this$ = ecx

; 1190 : 		{	// erase [_First, _Last)

  00000	55		 push	 ebp
  00001	8b ec		 mov	 ebp, esp

; 1191 : 		iterator _First = _Make_iter(_First_arg);

  00003	8b 45 0c	 mov	 eax, DWORD PTR __First_arg$[ebp]
  00006	53		 push	 ebx
  00007	8b 5d 08	 mov	 ebx, DWORD PTR ___$ReturnUdt$[ebp]
  0000a	56		 push	 esi
  0000b	8b f1		 mov	 esi, ecx
  0000d	89 03		 mov	 DWORD PTR [ebx], eax

; 1192 : 		iterator _Last = _Make_iter(_Last_arg);
; 1193 : 
; 1194 : 		if (_First != _Last)

  0000f	3b 45 10	 cmp	 eax, DWORD PTR __Last_arg$[ebp]
  00012	74 27		 je	 SHORT $LN1@erase

; 1195 : 			{	// worth doing, copy down over hole
; 1196 :  #if _ITERATOR_DEBUG_LEVEL == 2
; 1197 : 			if (_Last < _First || _VICONT(_First) != this
; 1198 : 				|| _VIPTR(_First) < this->_Myfirst
; 1199 : 				|| this->_Mylast < _VIPTR(_Last))
; 1200 : 				_DEBUG_ERROR("vector erase iterator outside range");
; 1201 : 			pointer _Ptr = _Move(_VIPTR(_Last), this->_Mylast,
; 1202 : 				_VIPTR(_First));
; 1203 : 			_Orphan_range(_VIPTR(_First), this->_Mylast);
; 1204 : 
; 1205 :  #else /* _ITERATOR_DEBUG_LEVEL == 2 */
; 1206 : 			pointer _Ptr = _Move(_VIPTR(_Last), this->_Mylast,
; 1207 : 				_VIPTR(_First));

  00014	8b 4e 04	 mov	 ecx, DWORD PTR [esi+4]
  00017	57		 push	 edi
  00018	ff 75 10	 push	 DWORD PTR __Cat$514386[ebp]
  0001b	50		 push	 eax
  0001c	51		 push	 ecx
  0001d	ff 75 10	 push	 DWORD PTR __Last_arg$[ebp]
  00020	e8 00 00 00 00	 call	 ??$_Move@PAUTeamUserData@@PAU1@@std@@YAPAUTeamUserData@@PAU1@00U_Nonscalar_ptr_iterator_tag@0@@Z ; std::_Move<TeamUserData *,TeamUserData *>
  00025	8b f8		 mov	 edi, eax

; 1208 :  #endif /* _ITERATOR_DEBUG_LEVEL == 2 */
; 1209 : 
; 1210 : 			_Destroy(_Ptr, this->_Mylast);

  00027	8d 46 0c	 lea	 eax, DWORD PTR [esi+12]
  0002a	50		 push	 eax
  0002b	ff 76 04	 push	 DWORD PTR [esi+4]
  0002e	57		 push	 edi
  0002f	e8 00 00 00 00	 call	 ??$_Destroy_range@V?$allocator@UTeamUserData@@@std@@@std@@YAXPAUTeamUserData@@0AAV?$allocator@UTeamUserData@@@0@@Z ; std::_Destroy_range<std::allocator<TeamUserData> >
  00034	83 c4 1c	 add	 esp, 28			; 0000001cH

; 1211 : 			this->_Mylast = _Ptr;

  00037	89 7e 04	 mov	 DWORD PTR [esi+4], edi
  0003a	5f		 pop	 edi
$LN1@erase:

; 1212 : 			}
; 1213 : 		return (_First);

  0003b	5e		 pop	 esi
  0003c	8b c3		 mov	 eax, ebx
  0003e	5b		 pop	 ebx

; 1214 : 		}

  0003f	5d		 pop	 ebp
  00040	c2 0c 00	 ret	 12			; 0000000cH
?erase@?$vector@UTeamUserData@@V?$allocator@UTeamUserData@@@std@@@std@@QAE?AV?$_Vector_iterator@V?$_Vector_val@UTeamUserData@@V?$allocator@UTeamUserData@@@std@@@std@@@2@V?$_Vector_const_iterator@V?$_Vector_val@UTeamUserData@@V?$allocator@UTeamUserData@@@std@@@std@@@2@0@Z ENDP ; std::vector<TeamUserData,std::allocator<TeamUserData> >::erase
_TEXT	ENDS
PUBLIC	?reserve@?$vector@UTeamUserData@@V?$allocator@UTeamUserData@@@std@@@std@@QAEXI@Z ; std::vector<TeamUserData,std::allocator<TeamUserData> >::reserve
;	COMDAT xdata$x
; File c:\program files (x86)\microsoft visual studio 10.0\vc\include\xmemory
xdata$x	SEGMENT
__catchsym$?reserve@?$vector@UTeamUserData@@V?$allocator@UTeamUserData@@@std@@@std@@QAEXI@Z$2 DD 040H
	DD	00H
	DD	00H
	DD	FLAT:__catch$?reserve@?$vector@UTeamUserData@@V?$allocator@UTeamUserData@@@std@@@std@@QAEXI@Z$0
__unwindtable$?reserve@?$vector@UTeamUserData@@V?$allocator@UTeamUserData@@@std@@@std@@QAEXI@Z DD 0ffffffffH
	DD	00H
	DD	0ffffffffH
	DD	00H
__tryblocktable$?reserve@?$vector@UTeamUserData@@V?$allocator@UTeamUserData@@@std@@@std@@QAEXI@Z DD 00H
	DD	00H
	DD	01H
	DD	01H
	DD	FLAT:__catchsym$?reserve@?$vector@UTeamUserData@@V?$allocator@UTeamUserData@@@std@@@std@@QAEXI@Z$2
__ehfuncinfo$?reserve@?$vector@UTeamUserData@@V?$allocator@UTeamUserData@@@std@@@std@@QAEXI@Z DD 019930522H
	DD	02H
	DD	FLAT:__unwindtable$?reserve@?$vector@UTeamUserData@@V?$allocator@UTeamUserData@@@std@@@std@@QAEXI@Z
	DD	01H
	DD	FLAT:__tryblocktable$?reserve@?$vector@UTeamUserData@@V?$allocator@UTeamUserData@@@std@@@std@@QAEXI@Z
	DD	2 DUP(00H)
	DD	00H
	DD	01H
; Function compile flags: /Ogsp
; File c:\program files (x86)\microsoft visual studio 10.0\vc\include\vector
xdata$x	ENDS
;	COMDAT ?reserve@?$vector@UTeamUserData@@V?$allocator@UTeamUserData@@@std@@@std@@QAEXI@Z
_TEXT	SEGMENT
__$EHRec$ = -16						; size = 16
__Ptr$508916 = 8					; size = 4
__Count$ = 8						; size = 4
?reserve@?$vector@UTeamUserData@@V?$allocator@UTeamUserData@@@std@@@std@@QAEXI@Z PROC ; std::vector<TeamUserData,std::allocator<TeamUserData> >::reserve, COMDAT
; _this$ = ecx

; 746  : 		{	// determine new minimum length of allocated storage

  00000	6a 04		 push	 4
  00002	b8 00 00 00 00	 mov	 eax, __ehhandler$?reserve@?$vector@UTeamUserData@@V?$allocator@UTeamUserData@@@std@@@std@@QAEXI@Z
  00007	e8 00 00 00 00	 call	 __EH_prolog3_catch
  0000c	8b f1		 mov	 esi, ecx

; 747  : 		if (max_size() < _Count)

  0000e	8b 5d 08	 mov	 ebx, DWORD PTR __Count$[ebp]
  00011	81 fb aa aa aa
	0a		 cmp	 ebx, 178956970		; 0aaaaaaaH
  00017	76 0b		 jbe	 SHORT $LN5@reserve@2

; 748  : 			_Xlen();	// result too long

  00019	68 00 00 00 00	 push	 OFFSET ??_C@_0BD@OLBABOEK@vector?$DMT?$DO?5too?5long?$AA@
  0001e	ff 15 00 00 00
	00		 call	 DWORD PTR __imp_?_Xlength_error@std@@YAXPBD@Z
$LN38@reserve@2:
$LN5@reserve@2:

; 749  : 		else if (capacity() < _Count)

  00024	8b 46 08	 mov	 eax, DWORD PTR [esi+8]
  00027	2b 06		 sub	 eax, DWORD PTR [esi]
  00029	6a 18		 push	 24			; 00000018H
  0002b	99		 cdq
  0002c	59		 pop	 ecx
  0002d	f7 f9		 idiv	 ecx
  0002f	3b c3		 cmp	 eax, ebx
  00031	73 70		 jae	 SHORT $LN3@reserve@2

; 750  : 			{	// not enough room, reallocate
; 751  : 			pointer _Ptr = this->_Alval.allocate(_Count);

  00033	6a 00		 push	 0
  00035	53		 push	 ebx
  00036	e8 00 00 00 00	 call	 ??$_Allocate@UTeamUserData@@@std@@YAPAUTeamUserData@@IPAU1@@Z ; std::_Allocate<TeamUserData>

; 752  : 
; 753  : 			_TRY_BEGIN
; 754  : 			_Umove(this->_Myfirst, this->_Mylast, _Ptr);

  0003b	8b 0e		 mov	 ecx, DWORD PTR [esi]
  0003d	83 65 fc 00	 and	 DWORD PTR __$EHRec$[ebp+12], 0
  00041	8d 56 0c	 lea	 edx, DWORD PTR [esi+12]
  00044	52		 push	 edx
  00045	89 45 08	 mov	 DWORD PTR __Ptr$508916[ebp], eax
  00048	ff 75 08	 push	 DWORD PTR __Ptr$508916[ebp]
  0004b	8b 46 04	 mov	 eax, DWORD PTR [esi+4]
  0004e	50		 push	 eax
  0004f	51		 push	 ecx
  00050	e8 00 00 00 00	 call	 ??$_Uninitialized_move@PAUTeamUserData@@PAU1@V?$allocator@UTeamUserData@@@std@@@std@@YAPAUTeamUserData@@PAU1@00AAV?$allocator@UTeamUserData@@@0@@Z ; std::_Uninitialized_move<TeamUserData *,TeamUserData *,std::allocator<TeamUserData> >

; 758  : 			_CATCH_END
; 759  : 
; 760  : 			size_type _Size = size();

  00055	8b 0e		 mov	 ecx, DWORD PTR [esi]
  00057	8b 46 04	 mov	 eax, DWORD PTR [esi+4]
  0005a	83 c4 18	 add	 esp, 24			; 00000018H
  0005d	2b c1		 sub	 eax, ecx
  0005f	6a 18		 push	 24			; 00000018H
  00061	99		 cdq
  00062	5f		 pop	 edi
  00063	f7 ff		 idiv	 edi
  00065	83 4d fc ff	 or	 DWORD PTR __$EHRec$[ebp+12], -1
  00069	8b f8		 mov	 edi, eax
  0006b	85 c9		 test	 ecx, ecx
  0006d	74 17		 je	 SHORT $LN33@reserve@2

; 761  : 			if (this->_Myfirst != 0)
; 762  : 				{	// destroy and deallocate old array
; 763  : 				_Destroy(this->_Myfirst, this->_Mylast);

  0006f	8d 46 0c	 lea	 eax, DWORD PTR [esi+12]
  00072	50		 push	 eax
  00073	ff 76 04	 push	 DWORD PTR [esi+4]
  00076	51		 push	 ecx
  00077	e8 00 00 00 00	 call	 ??$_Destroy_range@V?$allocator@UTeamUserData@@@std@@@std@@YAXPAUTeamUserData@@0AAV?$allocator@UTeamUserData@@@0@@Z ; std::_Destroy_range<std::allocator<TeamUserData> >

; 764  : 				this->_Alval.deallocate(this->_Myfirst,
; 765  : 					this->_Myend - this->_Myfirst);

  0007c	ff 36		 push	 DWORD PTR [esi]
  0007e	e8 00 00 00 00	 call	 ??3@YAXPAX@Z		; operator delete
  00083	83 c4 10	 add	 esp, 16			; 00000010H
$LN33@reserve@2:

; 766  : 				}
; 767  : 
; 768  : 			this->_Orphan_all();

  00086	8b ce		 mov	 ecx, esi
  00088	ff 15 00 00 00
	00		 call	 DWORD PTR __imp_?_Orphan_all@_Container_base0@std@@QAEXXZ

; 769  : 			this->_Myend = _Ptr + _Count;

  0008e	6b db 18	 imul	 ebx, 24			; 00000018H

; 770  : 			this->_Mylast = _Ptr + _Size;

  00091	6b ff 18	 imul	 edi, 24			; 00000018H
  00094	8b 45 08	 mov	 eax, DWORD PTR __Ptr$508916[ebp]
  00097	03 d8		 add	 ebx, eax
  00099	03 f8		 add	 edi, eax
  0009b	89 5e 08	 mov	 DWORD PTR [esi+8], ebx
  0009e	89 7e 04	 mov	 DWORD PTR [esi+4], edi

; 771  : 			this->_Myfirst = _Ptr;

  000a1	89 06		 mov	 DWORD PTR [esi], eax
$LN3@reserve@2:

; 772  : 			}
; 773  : 		}

  000a3	e8 00 00 00 00	 call	 __EH_epilog3
  000a8	c2 04 00	 ret	 4
__catch$?reserve@?$vector@UTeamUserData@@V?$allocator@UTeamUserData@@@std@@@std@@QAEXI@Z$0:

; 755  : 			_CATCH_ALL
; 756  : 			this->_Alval.deallocate(_Ptr, _Count);

  000ab	ff 75 08	 push	 DWORD PTR __Ptr$508916[ebp]
  000ae	e8 00 00 00 00	 call	 ??3@YAXPAX@Z		; operator delete
  000b3	59		 pop	 ecx

; 757  : 			_RERAISE;

  000b4	6a 00		 push	 0
  000b6	6a 00		 push	 0
  000b8	e8 00 00 00 00	 call	 __CxxThrowException@8
$LN39@reserve@2:
$LN37@reserve@2:
  000bd	cc		 int	 3
_TEXT	ENDS
;	COMDAT text$x
text$x	SEGMENT
__ehhandler$?reserve@?$vector@UTeamUserData@@V?$allocator@UTeamUserData@@@std@@@std@@QAEXI@Z:
  00000	8b 54 24 08	 mov	 edx, DWORD PTR [esp+8]
  00004	8d 42 0c	 lea	 eax, DWORD PTR [edx+12]
  00007	8b 4a ec	 mov	 ecx, DWORD PTR [edx-20]
  0000a	33 c8		 xor	 ecx, eax
  0000c	e8 00 00 00 00	 call	 @__security_check_cookie@4
  00011	b8 00 00 00 00	 mov	 eax, OFFSET __ehfuncinfo$?reserve@?$vector@UTeamUserData@@V?$allocator@UTeamUserData@@@std@@@std@@QAEXI@Z
  00016	e9 00 00 00 00	 jmp	 ___CxxFrameHandler3
text$x	ENDS
?reserve@?$vector@UTeamUserData@@V?$allocator@UTeamUserData@@@std@@@std@@QAEXI@Z ENDP ; std::vector<TeamUserData,std::allocator<TeamUserData> >::reserve
PUBLIC	?_Tidy@?$vector@UTeamUserData@@V?$allocator@UTeamUserData@@@std@@@std@@IAEXXZ ; std::vector<TeamUserData,std::allocator<TeamUserData> >::_Tidy
; Function compile flags: /Ogsp
;	COMDAT ?_Tidy@?$vector@UTeamUserData@@V?$allocator@UTeamUserData@@@std@@@std@@IAEXXZ
_TEXT	SEGMENT
?_Tidy@?$vector@UTeamUserData@@V?$allocator@UTeamUserData@@@std@@@std@@IAEXXZ PROC ; std::vector<TeamUserData,std::allocator<TeamUserData> >::_Tidy, COMDAT
; _this$ = ecx

; 1301 : 		{	// free all storage

  00000	56		 push	 esi
  00001	8b f1		 mov	 esi, ecx

; 1302 : 		if (this->_Myfirst != 0)

  00003	83 3e 00	 cmp	 DWORD PTR [esi], 0
  00006	74 1e		 je	 SHORT $LN6@Tidy@2

; 1303 : 			{	// something to free, destroy and deallocate it
; 1304 : 			this->_Orphan_all();

  00008	ff 15 00 00 00
	00		 call	 DWORD PTR __imp_?_Orphan_all@_Container_base0@std@@QAEXXZ

; 1305 : 			_Destroy(this->_Myfirst, this->_Mylast);

  0000e	8d 46 0c	 lea	 eax, DWORD PTR [esi+12]
  00011	50		 push	 eax
  00012	ff 76 04	 push	 DWORD PTR [esi+4]
  00015	ff 36		 push	 DWORD PTR [esi]
  00017	e8 00 00 00 00	 call	 ??$_Destroy_range@V?$allocator@UTeamUserData@@@std@@@std@@YAXPAUTeamUserData@@0AAV?$allocator@UTeamUserData@@@0@@Z ; std::_Destroy_range<std::allocator<TeamUserData> >

; 1306 : 			this->_Alval.deallocate(this->_Myfirst,
; 1307 : 				this->_Myend - this->_Myfirst);

  0001c	ff 36		 push	 DWORD PTR [esi]
  0001e	e8 00 00 00 00	 call	 ??3@YAXPAX@Z		; operator delete
  00023	83 c4 10	 add	 esp, 16			; 00000010H
$LN6@Tidy@2:

; 1308 : 			}
; 1309 : 		this->_Myfirst = 0;

  00026	83 26 00	 and	 DWORD PTR [esi], 0

; 1310 : 		this->_Mylast = 0;

  00029	83 66 04 00	 and	 DWORD PTR [esi+4], 0

; 1311 : 		this->_Myend = 0;

  0002d	83 66 08 00	 and	 DWORD PTR [esi+8], 0
  00031	5e		 pop	 esi

; 1312 : 		}

  00032	c3		 ret	 0
?_Tidy@?$vector@UTeamUserData@@V?$allocator@UTeamUserData@@@std@@@std@@IAEXXZ ENDP ; std::vector<TeamUserData,std::allocator<TeamUserData> >::_Tidy
_TEXT	ENDS
PUBLIC	?LeaveTeamUser@ioUserTournament@@QAEXKK@Z	; ioUserTournament::LeaveTeamUser
EXTRN	?DeleteTeamUserData@ioTournamentTeamManager@@QAEXKK@Z:PROC ; ioTournamentTeamManager::DeleteTeamUserData
EXTRN	?GetSingleton@ioTournamentTeamManager@@SAAAV1@XZ:PROC ; ioTournamentTeamManager::GetSingleton
; Function compile flags: /Ogsp
; File d:\lost saga for developer\youtube\tutorial\source\src\lsclient\iousertournament.cpp
;	COMDAT ?LeaveTeamUser@ioUserTournament@@QAEXKK@Z
_TEXT	SEGMENT
$T514477 = 8						; size = 4
_dwTeamIndex$ = 8					; size = 4
_dwLeaveIndex$ = 12					; size = 4
?LeaveTeamUser@ioUserTournament@@QAEXKK@Z PROC		; ioUserTournament::LeaveTeamUser, COMDAT
; _this$ = ecx

; 296  : {

  00000	55		 push	 ebp
  00001	8b ec		 mov	 ebp, esp
  00003	53		 push	 ebx
  00004	8b d9		 mov	 ebx, ecx
  00006	56		 push	 esi

; 297  : 	TeamDataVec::iterator iter = m_TeamDataList.begin();

  00007	8b 73 04	 mov	 esi, DWORD PTR [ebx+4]

; 298  : 	for(;iter != m_TeamDataList.end();++iter)

  0000a	3b 73 08	 cmp	 esi, DWORD PTR [ebx+8]
  0000d	74 4e		 je	 SHORT $LN6@LeaveTeamU
  0000f	57		 push	 edi
$LL21@LeaveTeamU:

; 299  : 	{
; 300  : 		TeamData &rkTeamData = *iter;
; 301  : 		if( rkTeamData.m_dwTeamIndex == dwTeamIndex )

  00010	8b 46 04	 mov	 eax, DWORD PTR [esi+4]
  00013	3b 45 08	 cmp	 eax, DWORD PTR _dwTeamIndex$[ebp]
  00016	75 17		 jne	 SHORT $LN7@LeaveTeamU

; 302  : 		{
; 303  : 			TeamUserVec::iterator iter2 = rkTeamData.m_TeamUserList.begin();

  00018	8b 7e 1c	 mov	 edi, DWORD PTR [esi+28]

; 304  : 			for(;iter2 != rkTeamData.m_TeamUserList.end();++iter2)

  0001b	8b 46 20	 mov	 eax, DWORD PTR [esi+32]
  0001e	eb 0b		 jmp	 SHORT $LN77@LeaveTeamU
$LL51@LeaveTeamU:

; 305  : 			{
; 306  : 				TeamUserData &rkUserData = *iter2;
; 307  : 				if( rkUserData.m_dwUserIndex == dwLeaveIndex )

  00020	8b 4f 04	 mov	 ecx, DWORD PTR [edi+4]
  00023	3b 4d 0c	 cmp	 ecx, DWORD PTR _dwLeaveIndex$[ebp]
  00026	74 11		 je	 SHORT $LN73@LeaveTeamU

; 304  : 			for(;iter2 != rkTeamData.m_TeamUserList.end();++iter2)

  00028	83 c7 18	 add	 edi, 24			; 00000018H
$LN77@LeaveTeamU:
  0002b	3b f8		 cmp	 edi, eax
  0002d	75 f1		 jne	 SHORT $LL51@LeaveTeamU
$LN7@LeaveTeamU:

; 298  : 	for(;iter != m_TeamDataList.end();++iter)

  0002f	83 c6 2c	 add	 esi, 44			; 0000002cH
  00032	3b 73 08	 cmp	 esi, DWORD PTR [ebx+8]
  00035	75 d9		 jne	 SHORT $LL21@LeaveTeamU

; 305  : 			{
; 306  : 				TeamUserData &rkUserData = *iter2;
; 307  : 				if( rkUserData.m_dwUserIndex == dwLeaveIndex )

  00037	eb 23		 jmp	 SHORT $LN76@LeaveTeamU
$LN73@LeaveTeamU:

; 308  : 				{
; 309  : 					g_TournamentTeamMgr.DeleteTeamUserData( rkTeamData.m_dwTeamIndex, rkUserData.m_dwUserIndex );

  00039	51		 push	 ecx
  0003a	ff 76 04	 push	 DWORD PTR [esi+4]
  0003d	e8 00 00 00 00	 call	 ?GetSingleton@ioTournamentTeamManager@@SAAAV1@XZ ; ioTournamentTeamManager::GetSingleton
  00042	8b c8		 mov	 ecx, eax
  00044	e8 00 00 00 00	 call	 ?DeleteTeamUserData@ioTournamentTeamManager@@QAEXKK@Z ; ioTournamentTeamManager::DeleteTeamUserData

; 310  : 
; 311  : 					rkTeamData.m_TeamUserList.erase( iter2 );

  00049	57		 push	 edi
  0004a	8d 45 08	 lea	 eax, DWORD PTR $T514477[ebp]
  0004d	50		 push	 eax
  0004e	8d 4e 1c	 lea	 ecx, DWORD PTR [esi+28]
  00051	e8 00 00 00 00	 call	 ?erase@?$vector@UTeamUserData@@V?$allocator@UTeamUserData@@@std@@@std@@QAE?AV?$_Vector_iterator@V?$_Vector_val@UTeamUserData@@V?$allocator@UTeamUserData@@@std@@@std@@@2@V?$_Vector_const_iterator@V?$_Vector_val@UTeamUserData@@V?$allocator@UTeamUserData@@@std@@@std@@@2@@Z ; std::vector<TeamUserData,std::allocator<TeamUserData> >::erase

; 312  : 					m_bUpdateMainUI = true;

  00056	66 c7 43 24 01
	01		 mov	 WORD PTR [ebx+36], 257	; 00000101H
$LN76@LeaveTeamU:
  0005c	5f		 pop	 edi
$LN6@LeaveTeamU:
  0005d	5e		 pop	 esi
  0005e	5b		 pop	 ebx

; 313  : 					m_bUpdateSubUI  = true;
; 314  : 					return;
; 315  : 				}
; 316  : 			}		
; 317  : 		}
; 318  : 	}
; 319  : }

  0005f	5d		 pop	 ebp
  00060	c2 08 00	 ret	 8
?LeaveTeamUser@ioUserTournament@@QAEXKK@Z ENDP		; ioUserTournament::LeaveTeamUser
_TEXT	ENDS
PUBLIC	?AddCheerTeamList@ioUserTournament@@QAEXKK@Z	; ioUserTournament::AddCheerTeamList
; Function compile flags: /Ogsp
;	COMDAT ?AddCheerTeamList@ioUserTournament@@QAEXKK@Z
_TEXT	SEGMENT
_CheerData$ = -16					; size = 16
_dwTourIdx$ = 8						; size = 4
_dwTeamIdx$ = 12					; size = 4
?AddCheerTeamList@ioUserTournament@@QAEXKK@Z PROC	; ioUserTournament::AddCheerTeamList, COMDAT
; _this$ = ecx

; 467  : {

  00000	55		 push	 ebp
  00001	8b ec		 mov	 ebp, esp
  00003	83 ec 10	 sub	 esp, 16			; 00000010H
  00006	56		 push	 esi
  00007	57		 push	 edi

; 468  : 	if( IsCheerTournament( dwTourIdx ) )

  00008	8b 7d 08	 mov	 edi, DWORD PTR _dwTourIdx$[ebp]
  0000b	57		 push	 edi
  0000c	8b f1		 mov	 esi, ecx
  0000e	e8 00 00 00 00	 call	 ?IsCheerTournament@ioUserTournament@@QAE_NK@Z ; ioUserTournament::IsCheerTournament
  00013	84 c0		 test	 al, al
  00015	75 1d		 jne	 SHORT $LN2@AddCheerTe

; 469  : 		return;
; 470  : 
; 471  : 	CheerTeamInfo CheerData;
; 472  : 	CheerData.m_dwTourIndex = dwTourIdx;
; 473  : 	CheerData.m_dwTeamIndex = dwTeamIdx;

  00017	8b 45 0c	 mov	 eax, DWORD PTR _dwTeamIdx$[ebp]
  0001a	83 65 f8 00	 and	 DWORD PTR _CheerData$[ebp+8], 0
  0001e	83 4d fc ff	 or	 DWORD PTR _CheerData$[ebp+12], -1
  00022	89 45 f4	 mov	 DWORD PTR _CheerData$[ebp+4], eax

; 474  : 	m_CheerList.push_back( CheerData );

  00025	8d 45 f0	 lea	 eax, DWORD PTR _CheerData$[ebp]
  00028	50		 push	 eax
  00029	8d 4e 14	 lea	 ecx, DWORD PTR [esi+20]
  0002c	89 7d f0	 mov	 DWORD PTR _CheerData$[ebp], edi
  0002f	e8 00 00 00 00	 call	 ?push_back@?$vector@UCheerTeamInfo@@V?$allocator@UCheerTeamInfo@@@std@@@std@@QAEXABUCheerTeamInfo@@@Z ; std::vector<CheerTeamInfo,std::allocator<CheerTeamInfo> >::push_back
$LN2@AddCheerTe:
  00034	5f		 pop	 edi
  00035	5e		 pop	 esi

; 475  : }

  00036	c9		 leave
  00037	c2 08 00	 ret	 8
?AddCheerTeamList@ioUserTournament@@QAEXKK@Z ENDP	; ioUserTournament::AddCheerTeamList
_TEXT	ENDS
PUBLIC	?clear@?$vector@UTeamUserData@@V?$allocator@UTeamUserData@@@std@@@std@@QAEXXZ ; std::vector<TeamUserData,std::allocator<TeamUserData> >::clear
; Function compile flags: /Ogsp
; File c:\program files (x86)\microsoft visual studio 10.0\vc\include\vector
;	COMDAT ?clear@?$vector@UTeamUserData@@V?$allocator@UTeamUserData@@@std@@@std@@QAEXXZ
_TEXT	SEGMENT
$T514658 = -4						; size = 4
?clear@?$vector@UTeamUserData@@V?$allocator@UTeamUserData@@@std@@@std@@QAEXXZ PROC ; std::vector<TeamUserData,std::allocator<TeamUserData> >::clear, COMDAT
; _this$ = ecx

; 1217 : 		{	// erase all

  00000	55		 push	 ebp
  00001	8b ec		 mov	 ebp, esp
  00003	51		 push	 ecx

; 1218 : 		erase(begin(), end());

  00004	8b 41 04	 mov	 eax, DWORD PTR [ecx+4]
  00007	8b 11		 mov	 edx, DWORD PTR [ecx]
  00009	50		 push	 eax
  0000a	52		 push	 edx
  0000b	8d 45 fc	 lea	 eax, DWORD PTR $T514658[ebp]
  0000e	50		 push	 eax
  0000f	e8 00 00 00 00	 call	 ?erase@?$vector@UTeamUserData@@V?$allocator@UTeamUserData@@@std@@@std@@QAE?AV?$_Vector_iterator@V?$_Vector_val@UTeamUserData@@V?$allocator@UTeamUserData@@@std@@@std@@@2@V?$_Vector_const_iterator@V?$_Vector_val@UTeamUserData@@V?$allocator@UTeamUserData@@@std@@@std@@@2@0@Z ; std::vector<TeamUserData,std::allocator<TeamUserData> >::erase

; 1219 : 		}

  00014	c9		 leave
  00015	c3		 ret	 0
?clear@?$vector@UTeamUserData@@V?$allocator@UTeamUserData@@@std@@@std@@QAEXXZ ENDP ; std::vector<TeamUserData,std::allocator<TeamUserData> >::clear
_TEXT	ENDS
PUBLIC	?_Reserve@?$vector@UTeamUserData@@V?$allocator@UTeamUserData@@@std@@@std@@IAEXI@Z ; std::vector<TeamUserData,std::allocator<TeamUserData> >::_Reserve
; Function compile flags: /Ogsp
;	COMDAT ?_Reserve@?$vector@UTeamUserData@@V?$allocator@UTeamUserData@@@std@@@std@@IAEXI@Z
_TEXT	SEGMENT
__Count$ = 8						; size = 4
?_Reserve@?$vector@UTeamUserData@@V?$allocator@UTeamUserData@@@std@@@std@@IAEXI@Z PROC ; std::vector<TeamUserData,std::allocator<TeamUserData> >::_Reserve, COMDAT
; _this$ = ecx

; 1290 : 		{	// ensure room for _Count new elements, grow exponentially

  00000	55		 push	 ebp
  00001	8b ec		 mov	 ebp, esp
  00003	56		 push	 esi
  00004	8b f1		 mov	 esi, ecx

; 1291 : 		size_type _Size = size();

  00006	8b 0e		 mov	 ecx, DWORD PTR [esi]
  00008	8b 46 04	 mov	 eax, DWORD PTR [esi+4]
  0000b	2b c1		 sub	 eax, ecx
  0000d	57		 push	 edi
  0000e	99		 cdq
  0000f	6a 18		 push	 24			; 00000018H
  00011	5f		 pop	 edi
  00012	f7 ff		 idiv	 edi
  00014	8b f8		 mov	 edi, eax

; 1292 : 		if (max_size() - _Count < _Size)

  00016	b8 aa aa aa 0a	 mov	 eax, 178956970		; 0aaaaaaaH
  0001b	2b 45 08	 sub	 eax, DWORD PTR __Count$[ebp]
  0001e	3b c7		 cmp	 eax, edi
  00020	73 0b		 jae	 SHORT $LN4@Reserve@2

; 1293 : 			_Xlen();

  00022	68 00 00 00 00	 push	 OFFSET ??_C@_0BD@OLBABOEK@vector?$DMT?$DO?5too?5long?$AA@
  00027	ff 15 00 00 00
	00		 call	 DWORD PTR __imp_?_Xlength_error@std@@YAXPBD@Z
$LN21@Reserve@2:
$LN4@Reserve@2:

; 1294 : 		else if ((_Size += _Count) <= capacity())

  0002d	8b 46 08	 mov	 eax, DWORD PTR [esi+8]
  00030	2b c1		 sub	 eax, ecx
  00032	6a 18		 push	 24			; 00000018H
  00034	99		 cdq
  00035	59		 pop	 ecx
  00036	f7 f9		 idiv	 ecx
  00038	03 7d 08	 add	 edi, DWORD PTR __Count$[ebp]
  0003b	3b f8		 cmp	 edi, eax
  0003d	76 10		 jbe	 SHORT $LN1@Reserve@2

; 1295 : 			;
; 1296 : 		else
; 1297 : 			reserve(_Grow_to(_Size));

  0003f	57		 push	 edi
  00040	8b ce		 mov	 ecx, esi
  00042	e8 00 00 00 00	 call	 ?_Grow_to@?$vector@UTeamUserData@@V?$allocator@UTeamUserData@@@std@@@std@@IBEII@Z ; std::vector<TeamUserData,std::allocator<TeamUserData> >::_Grow_to
  00047	50		 push	 eax
  00048	8b ce		 mov	 ecx, esi
  0004a	e8 00 00 00 00	 call	 ?reserve@?$vector@UTeamUserData@@V?$allocator@UTeamUserData@@@std@@@std@@QAEXI@Z ; std::vector<TeamUserData,std::allocator<TeamUserData> >::reserve
$LN1@Reserve@2:
  0004f	5f		 pop	 edi
  00050	5e		 pop	 esi

; 1298 : 		}

  00051	5d		 pop	 ebp
  00052	c2 04 00	 ret	 4
$LN20@Reserve@2:
?_Reserve@?$vector@UTeamUserData@@V?$allocator@UTeamUserData@@@std@@@std@@IAEXI@Z ENDP ; std::vector<TeamUserData,std::allocator<TeamUserData> >::_Reserve
_TEXT	ENDS
PUBLIC	??0?$vector@UTeamUserData@@V?$allocator@UTeamUserData@@@std@@@std@@QAE@ABV01@@Z ; std::vector<TeamUserData,std::allocator<TeamUserData> >::vector<TeamUserData,std::allocator<TeamUserData> >
;	COMDAT xdata$x
; File c:\program files (x86)\microsoft visual studio 10.0\vc\include\xutility
xdata$x	SEGMENT
__catchsym$??0?$vector@UTeamUserData@@V?$allocator@UTeamUserData@@@std@@@std@@QAE@ABV01@@Z$2 DD 040H
	DD	00H
	DD	00H
	DD	FLAT:__catch$??0?$vector@UTeamUserData@@V?$allocator@UTeamUserData@@@std@@@std@@QAE@ABV01@@Z$0
__unwindtable$??0?$vector@UTeamUserData@@V?$allocator@UTeamUserData@@@std@@@std@@QAE@ABV01@@Z DD 0ffffffffH
	DD	00H
	DD	0ffffffffH
	DD	00H
__tryblocktable$??0?$vector@UTeamUserData@@V?$allocator@UTeamUserData@@@std@@@std@@QAE@ABV01@@Z DD 00H
	DD	00H
	DD	01H
	DD	01H
	DD	FLAT:__catchsym$??0?$vector@UTeamUserData@@V?$allocator@UTeamUserData@@@std@@@std@@QAE@ABV01@@Z$2
__ehfuncinfo$??0?$vector@UTeamUserData@@V?$allocator@UTeamUserData@@@std@@@std@@QAE@ABV01@@Z DD 019930522H
	DD	02H
	DD	FLAT:__unwindtable$??0?$vector@UTeamUserData@@V?$allocator@UTeamUserData@@@std@@@std@@QAE@ABV01@@Z
	DD	01H
	DD	FLAT:__tryblocktable$??0?$vector@UTeamUserData@@V?$allocator@UTeamUserData@@@std@@@std@@QAE@ABV01@@Z
	DD	2 DUP(00H)
	DD	00H
	DD	01H
; Function compile flags: /Ogsp
; File c:\program files (x86)\microsoft visual studio 10.0\vc\include\vector
xdata$x	ENDS
;	COMDAT ??0?$vector@UTeamUserData@@V?$allocator@UTeamUserData@@@std@@@std@@QAE@ABV01@@Z
_TEXT	SEGMENT
_this$ = -20						; size = 4
__$EHRec$ = -16						; size = 16
__Cat$514818 = 8					; size = 1
__Right$ = 8						; size = 4
??0?$vector@UTeamUserData@@V?$allocator@UTeamUserData@@@std@@@std@@QAE@ABV01@@Z PROC ; std::vector<TeamUserData,std::allocator<TeamUserData> >::vector<TeamUserData,std::allocator<TeamUserData> >, COMDAT
; _this$ = ecx

; 535  : 		{	// construct by copying _Right

  00000	6a 08		 push	 8
  00002	b8 00 00 00 00	 mov	 eax, __ehhandler$??0?$vector@UTeamUserData@@V?$allocator@UTeamUserData@@@std@@@std@@QAE@ABV01@@Z
  00007	e8 00 00 00 00	 call	 __EH_prolog3_catch
  0000c	8b f1		 mov	 esi, ecx
  0000e	89 75 ec	 mov	 DWORD PTR _this$[ebp], esi

; 536  : 		if (_Buy(_Right.size()))

  00011	8b 7d 08	 mov	 edi, DWORD PTR __Right$[ebp]
  00014	33 db		 xor	 ebx, ebx
  00016	89 1e		 mov	 DWORD PTR [esi], ebx
  00018	89 5e 04	 mov	 DWORD PTR [esi+4], ebx
  0001b	89 5e 08	 mov	 DWORD PTR [esi+8], ebx
  0001e	8b 47 04	 mov	 eax, DWORD PTR [edi+4]
  00021	2b 07		 sub	 eax, DWORD PTR [edi]
  00023	6a 18		 push	 24			; 00000018H
  00025	59		 pop	 ecx
  00026	99		 cdq
  00027	f7 f9		 idiv	 ecx
  00029	8b ce		 mov	 ecx, esi
  0002b	50		 push	 eax
  0002c	e8 00 00 00 00	 call	 ?_Buy@?$vector@UTeamUserData@@V?$allocator@UTeamUserData@@@std@@@std@@IAE_NI@Z ; std::vector<TeamUserData,std::allocator<TeamUserData> >::_Buy
  00031	84 c0		 test	 al, al
  00033	74 1f		 je	 SHORT $LN7@vector

; 537  : 			_TRY_BEGIN
; 538  : 			this->_Mylast = _Ucopy(_Right.begin(), _Right.end(),
; 539  : 				this->_Myfirst);

  00035	ff 75 08	 push	 DWORD PTR __Cat$514818[ebp]
  00038	8b 0e		 mov	 ecx, DWORD PTR [esi]
  0003a	8b 47 04	 mov	 eax, DWORD PTR [edi+4]
  0003d	8b 3f		 mov	 edi, DWORD PTR [edi]
  0003f	8d 56 0c	 lea	 edx, DWORD PTR [esi+12]
  00042	52		 push	 edx
  00043	51		 push	 ecx
  00044	50		 push	 eax
  00045	57		 push	 edi
  00046	89 5d fc	 mov	 DWORD PTR __$EHRec$[ebp+12], ebx
  00049	e8 00 00 00 00	 call	 ??$_Uninit_copy@V?$_Vector_const_iterator@V?$_Vector_val@UTeamUserData@@V?$allocator@UTeamUserData@@@std@@@std@@@std@@PAUTeamUserData@@V?$allocator@UTeamUserData@@@2@@std@@YAPAUTeamUserData@@V?$_Vector_const_iterator@V?$_Vector_val@UTeamUserData@@V?$allocator@UTeamUserData@@@std@@@std@@@0@0PAU1@AAV?$allocator@UTeamUserData@@@0@U_Nonscalar_ptr_iterator_tag@0@@Z ; std::_Uninit_copy<std::_Vector_const_iterator<std::_Vector_val<TeamUserData,std::allocator<TeamUserData> > >,TeamUserData *,std::allocator<TeamUserData> >
  0004e	83 c4 14	 add	 esp, 20			; 00000014H
  00051	89 46 04	 mov	 DWORD PTR [esi+4], eax
$LN7@vector:

; 543  : 			_CATCH_END
; 544  : 		}

  00054	8b c6		 mov	 eax, esi
  00056	e8 00 00 00 00	 call	 __EH_epilog3
  0005b	c2 04 00	 ret	 4
__catch$??0?$vector@UTeamUserData@@V?$allocator@UTeamUserData@@@std@@@std@@QAE@ABV01@@Z$0:

; 540  : 			_CATCH_ALL
; 541  : 			_Tidy();

  0005e	8b 4d ec	 mov	 ecx, DWORD PTR _this$[ebp]
  00061	e8 00 00 00 00	 call	 ?_Tidy@?$vector@UTeamUserData@@V?$allocator@UTeamUserData@@@std@@@std@@IAEXXZ ; std::vector<TeamUserData,std::allocator<TeamUserData> >::_Tidy

; 542  : 			_RERAISE;

  00066	33 db		 xor	 ebx, ebx
  00068	53		 push	 ebx
  00069	53		 push	 ebx
  0006a	e8 00 00 00 00	 call	 __CxxThrowException@8
$LN38@vector:
$LN37@vector:
  0006f	cc		 int	 3
_TEXT	ENDS
;	COMDAT text$x
text$x	SEGMENT
__ehhandler$??0?$vector@UTeamUserData@@V?$allocator@UTeamUserData@@@std@@@std@@QAE@ABV01@@Z:
  00000	8b 54 24 08	 mov	 edx, DWORD PTR [esp+8]
  00004	8d 42 0c	 lea	 eax, DWORD PTR [edx+12]
  00007	8b 4a e8	 mov	 ecx, DWORD PTR [edx-24]
  0000a	33 c8		 xor	 ecx, eax
  0000c	e8 00 00 00 00	 call	 @__security_check_cookie@4
  00011	b8 00 00 00 00	 mov	 eax, OFFSET __ehfuncinfo$??0?$vector@UTeamUserData@@V?$allocator@UTeamUserData@@@std@@@std@@QAE@ABV01@@Z
  00016	e9 00 00 00 00	 jmp	 ___CxxFrameHandler3
text$x	ENDS
??0?$vector@UTeamUserData@@V?$allocator@UTeamUserData@@@std@@@std@@QAE@ABV01@@Z ENDP ; std::vector<TeamUserData,std::allocator<TeamUserData> >::vector<TeamUserData,std::allocator<TeamUserData> >
PUBLIC	??4?$vector@UTeamUserData@@V?$allocator@UTeamUserData@@@std@@@std@@QAEAAV01@ABV01@@Z ; std::vector<TeamUserData,std::allocator<TeamUserData> >::operator=
; Function compile flags: /Ogsp
;	COMDAT ??4?$vector@UTeamUserData@@V?$allocator@UTeamUserData@@@std@@@std@@QAEAAV01@ABV01@@Z
_TEXT	SEGMENT
tv551 = 8						; size = 4
__Cat$515026 = 8					; size = 1
__Cat$514989 = 8					; size = 1
__Cat$514966 = 8					; size = 1
__Cat$514935 = 8					; size = 1
$T514901 = 8						; size = 4
__Right$ = 8						; size = 4
??4?$vector@UTeamUserData@@V?$allocator@UTeamUserData@@@std@@@std@@QAEAAV01@ABV01@@Z PROC ; std::vector<TeamUserData,std::allocator<TeamUserData> >::operator=, COMDAT
; _this$ = ecx

; 709  : 		{	// assign _Right

  00000	55		 push	 ebp
  00001	8b ec		 mov	 ebp, esp
  00003	56		 push	 esi
  00004	57		 push	 edi

; 710  : 		if (this != &_Right)

  00005	8b 7d 08	 mov	 edi, DWORD PTR __Right$[ebp]
  00008	8b f1		 mov	 esi, ecx
  0000a	3b f7		 cmp	 esi, edi
  0000c	0f 84 03 01 00
	00		 je	 $LN1@operator

; 711  : 			{	// worth doing
; 712  : 			this->_Orphan_all();

  00012	ff 15 00 00 00
	00		 call	 DWORD PTR __imp_?_Orphan_all@_Container_base0@std@@QAEXXZ

; 713  : 
; 714  : 			if (_Right.size() == 0)

  00018	8b 47 04	 mov	 eax, DWORD PTR [edi+4]
  0001b	2b 07		 sub	 eax, DWORD PTR [edi]
  0001d	6a 18		 push	 24			; 00000018H
  0001f	99		 cdq
  00020	59		 pop	 ecx
  00021	f7 f9		 idiv	 ecx
  00023	89 45 08	 mov	 DWORD PTR tv551[ebp], eax
  00026	85 c0		 test	 eax, eax

; 715  : 				clear();	// new sequence empty, erase existing sequence

  00028	8b 46 04	 mov	 eax, DWORD PTR [esi+4]
  0002b	75 14		 jne	 SHORT $LN8@operator
  0002d	8b 0e		 mov	 ecx, DWORD PTR [esi]
  0002f	50		 push	 eax
  00030	51		 push	 ecx
  00031	8d 45 08	 lea	 eax, DWORD PTR $T514901[ebp]
  00034	50		 push	 eax
  00035	8b ce		 mov	 ecx, esi
  00037	e8 00 00 00 00	 call	 ?erase@?$vector@UTeamUserData@@V?$allocator@UTeamUserData@@@std@@@std@@QAE?AV?$_Vector_iterator@V?$_Vector_val@UTeamUserData@@V?$allocator@UTeamUserData@@@std@@@std@@@2@V?$_Vector_const_iterator@V?$_Vector_val@UTeamUserData@@V?$allocator@UTeamUserData@@@std@@@std@@@2@0@Z ; std::vector<TeamUserData,std::allocator<TeamUserData> >::erase

; 716  : 			else if (_Right.size() <= size())

  0003c	e9 d4 00 00 00	 jmp	 $LN1@operator
$LN8@operator:
  00041	53		 push	 ebx
  00042	8b 1e		 mov	 ebx, DWORD PTR [esi]
  00044	2b c3		 sub	 eax, ebx
  00046	6a 18		 push	 24			; 00000018H
  00048	99		 cdq
  00049	59		 pop	 ecx
  0004a	f7 f9		 idiv	 ecx
  0004c	8b c8		 mov	 ecx, eax
  0004e	39 4d 08	 cmp	 DWORD PTR tv551[ebp], ecx
  00051	77 33		 ja	 SHORT $LN6@operator

; 717  : 				{	// enough elements, copy new and destroy old
; 718  : 				pointer _Ptr = _STD _Copy_impl(_Right._Myfirst, _Right._Mylast,
; 719  : 					this->_Myfirst);	// copy new

  00053	ff 75 08	 push	 DWORD PTR __Cat$514935[ebp]
  00056	53		 push	 ebx
  00057	ff 77 04	 push	 DWORD PTR [edi+4]
  0005a	ff 37		 push	 DWORD PTR [edi]
  0005c	e8 00 00 00 00	 call	 ??$_Copy_impl@PAUTeamUserData@@PAU1@@std@@YAPAUTeamUserData@@PAU1@00U_Nonscalar_ptr_iterator_tag@0@@Z ; std::_Copy_impl<TeamUserData *,TeamUserData *>

; 720  : 				_Destroy(_Ptr, this->_Mylast);	// destroy old

  00061	8d 4e 0c	 lea	 ecx, DWORD PTR [esi+12]
  00064	51		 push	 ecx
  00065	ff 76 04	 push	 DWORD PTR [esi+4]
  00068	50		 push	 eax
  00069	e8 00 00 00 00	 call	 ??$_Destroy_range@V?$allocator@UTeamUserData@@@std@@@std@@YAXPAUTeamUserData@@0AAV?$allocator@UTeamUserData@@@0@@Z ; std::_Destroy_range<std::allocator<TeamUserData> >

; 721  : 				this->_Mylast = this->_Myfirst + _Right.size();

  0006e	8b 47 04	 mov	 eax, DWORD PTR [edi+4]
  00071	2b 07		 sub	 eax, DWORD PTR [edi]
  00073	83 c4 1c	 add	 esp, 28			; 0000001cH
  00076	99		 cdq
  00077	6a 18		 push	 24			; 00000018H
  00079	59		 pop	 ecx
  0007a	f7 f9		 idiv	 ecx
  0007c	6b c0 18	 imul	 eax, 24			; 00000018H
  0007f	03 06		 add	 eax, DWORD PTR [esi]

; 722  : 				}
; 723  : 			else if (_Right.size() <= capacity())

  00081	e9 8b 00 00 00	 jmp	 $LN73@operator
$LN6@operator:
  00086	8b 46 08	 mov	 eax, DWORD PTR [esi+8]
  00089	2b c3		 sub	 eax, ebx
  0008b	6a 18		 push	 24			; 00000018H
  0008d	99		 cdq
  0008e	5b		 pop	 ebx
  0008f	f7 fb		 idiv	 ebx
  00091	39 45 08	 cmp	 DWORD PTR tv551[ebp], eax
  00094	77 2e		 ja	 SHORT $LN4@operator

; 724  : 				{	// enough room, copy and construct new
; 725  : 				pointer _Ptr = _Right._Myfirst + size();
; 726  : 				_STD _Copy_impl(_Right._Myfirst, _Ptr, this->_Myfirst);

  00096	ff 75 08	 push	 DWORD PTR __Cat$514966[ebp]
  00099	6b c9 18	 imul	 ecx, 24			; 00000018H
  0009c	8b 07		 mov	 eax, DWORD PTR [edi]
  0009e	ff 36		 push	 DWORD PTR [esi]
  000a0	8d 1c 08	 lea	 ebx, DWORD PTR [eax+ecx]
  000a3	53		 push	 ebx
  000a4	50		 push	 eax
  000a5	e8 00 00 00 00	 call	 ??$_Copy_impl@PAUTeamUserData@@PAU1@@std@@YAPAUTeamUserData@@PAU1@00U_Nonscalar_ptr_iterator_tag@0@@Z ; std::_Copy_impl<TeamUserData *,TeamUserData *>

; 727  : 				this->_Mylast = _Ucopy(_Ptr, _Right._Mylast, this->_Mylast);

  000aa	ff 75 08	 push	 DWORD PTR __Cat$514989[ebp]
  000ad	8b 46 04	 mov	 eax, DWORD PTR [esi+4]
  000b0	8b 7f 04	 mov	 edi, DWORD PTR [edi+4]
  000b3	8d 4e 0c	 lea	 ecx, DWORD PTR [esi+12]
  000b6	51		 push	 ecx
  000b7	50		 push	 eax
  000b8	57		 push	 edi
  000b9	53		 push	 ebx
  000ba	e8 00 00 00 00	 call	 ??$_Uninit_copy@PAUTeamUserData@@PAU1@V?$allocator@UTeamUserData@@@std@@@std@@YAPAUTeamUserData@@PAU1@00AAV?$allocator@UTeamUserData@@@0@U_Nonscalar_ptr_iterator_tag@0@@Z ; std::_Uninit_copy<TeamUserData *,TeamUserData *,std::allocator<TeamUserData> >
  000bf	83 c4 24	 add	 esp, 36			; 00000024H

; 728  : 				}
; 729  : 			else

  000c2	eb 4d		 jmp	 SHORT $LN73@operator
$LN4@operator:

; 730  : 				{	// not enough room, allocate new array and construct new
; 731  : 				if (this->_Myfirst != 0)

  000c4	8b 06		 mov	 eax, DWORD PTR [esi]
  000c6	85 c0		 test	 eax, eax
  000c8	74 17		 je	 SHORT $LN62@operator

; 732  : 					{	// discard old array
; 733  : 					_Destroy(this->_Myfirst, this->_Mylast);

  000ca	8d 4e 0c	 lea	 ecx, DWORD PTR [esi+12]
  000cd	51		 push	 ecx
  000ce	ff 76 04	 push	 DWORD PTR [esi+4]
  000d1	50		 push	 eax
  000d2	e8 00 00 00 00	 call	 ??$_Destroy_range@V?$allocator@UTeamUserData@@@std@@@std@@YAXPAUTeamUserData@@0AAV?$allocator@UTeamUserData@@@0@@Z ; std::_Destroy_range<std::allocator<TeamUserData> >

; 734  : 					this->_Alval.deallocate(this->_Myfirst,
; 735  : 						this->_Myend - this->_Myfirst);

  000d7	ff 36		 push	 DWORD PTR [esi]
  000d9	e8 00 00 00 00	 call	 ??3@YAXPAX@Z		; operator delete
  000de	83 c4 10	 add	 esp, 16			; 00000010H
$LN62@operator:

; 736  : 					}
; 737  : 				if (_Buy(_Right.size()))

  000e1	8b 47 04	 mov	 eax, DWORD PTR [edi+4]
  000e4	2b 07		 sub	 eax, DWORD PTR [edi]
  000e6	6a 18		 push	 24			; 00000018H
  000e8	59		 pop	 ecx
  000e9	99		 cdq
  000ea	f7 f9		 idiv	 ecx
  000ec	8b ce		 mov	 ecx, esi
  000ee	50		 push	 eax
  000ef	e8 00 00 00 00	 call	 ?_Buy@?$vector@UTeamUserData@@V?$allocator@UTeamUserData@@@std@@@std@@IAE_NI@Z ; std::vector<TeamUserData,std::allocator<TeamUserData> >::_Buy
  000f4	84 c0		 test	 al, al
  000f6	74 1c		 je	 SHORT $LN72@operator

; 738  : 					this->_Mylast = _Ucopy(_Right._Myfirst, _Right._Mylast,
; 739  : 						this->_Myfirst);

  000f8	ff 75 08	 push	 DWORD PTR __Cat$515026[ebp]
  000fb	8b 06		 mov	 eax, DWORD PTR [esi]
  000fd	8b 4f 04	 mov	 ecx, DWORD PTR [edi+4]
  00100	8b 3f		 mov	 edi, DWORD PTR [edi]
  00102	8d 56 0c	 lea	 edx, DWORD PTR [esi+12]
  00105	52		 push	 edx
  00106	50		 push	 eax
  00107	51		 push	 ecx
  00108	57		 push	 edi
  00109	e8 00 00 00 00	 call	 ??$_Uninit_copy@PAUTeamUserData@@PAU1@V?$allocator@UTeamUserData@@@std@@@std@@YAPAUTeamUserData@@PAU1@00AAV?$allocator@UTeamUserData@@@0@U_Nonscalar_ptr_iterator_tag@0@@Z ; std::_Uninit_copy<TeamUserData *,TeamUserData *,std::allocator<TeamUserData> >
  0010e	83 c4 14	 add	 esp, 20			; 00000014H
$LN73@operator:
  00111	89 46 04	 mov	 DWORD PTR [esi+4], eax
$LN72@operator:
  00114	5b		 pop	 ebx
$LN1@operator:
  00115	5f		 pop	 edi

; 740  : 				}
; 741  : 			}
; 742  : 		return (*this);

  00116	8b c6		 mov	 eax, esi
  00118	5e		 pop	 esi

; 743  : 		}

  00119	5d		 pop	 ebp
  0011a	c2 04 00	 ret	 4
??4?$vector@UTeamUserData@@V?$allocator@UTeamUserData@@@std@@@std@@QAEAAV01@ABV01@@Z ENDP ; std::vector<TeamUserData,std::allocator<TeamUserData> >::operator=
_TEXT	ENDS
PUBLIC	??1?$vector@UTeamUserData@@V?$allocator@UTeamUserData@@@std@@@std@@QAE@XZ ; std::vector<TeamUserData,std::allocator<TeamUserData> >::~vector<TeamUserData,std::allocator<TeamUserData> >
; Function compile flags: /Ogsp
;	COMDAT ??1?$vector@UTeamUserData@@V?$allocator@UTeamUserData@@@std@@@std@@QAE@XZ
_TEXT	SEGMENT
??1?$vector@UTeamUserData@@V?$allocator@UTeamUserData@@@std@@@std@@QAE@XZ PROC ; std::vector<TeamUserData,std::allocator<TeamUserData> >::~vector<TeamUserData,std::allocator<TeamUserData> >, COMDAT
; _this$ = ecx

; 705  : 		_Tidy();

  00000	e9 00 00 00 00	 jmp	 ?_Tidy@?$vector@UTeamUserData@@V?$allocator@UTeamUserData@@@std@@@std@@IAEXXZ ; std::vector<TeamUserData,std::allocator<TeamUserData> >::_Tidy
??1?$vector@UTeamUserData@@V?$allocator@UTeamUserData@@@std@@@std@@QAE@XZ ENDP ; std::vector<TeamUserData,std::allocator<TeamUserData> >::~vector<TeamUserData,std::allocator<TeamUserData> >
_TEXT	ENDS
PUBLIC	??1TeamData@@QAE@XZ				; TeamData::~TeamData
;	COMDAT xdata$x
xdata$x	SEGMENT
__unwindtable$??1TeamData@@QAE@XZ DD 0ffffffffH
	DD	FLAT:__unwindfunclet$??1TeamData@@QAE@XZ$0
__ehfuncinfo$??1TeamData@@QAE@XZ DD 019930522H
	DD	01H
	DD	FLAT:__unwindtable$??1TeamData@@QAE@XZ
	DD	2 DUP(00H)
	DD	2 DUP(00H)
	DD	00H
	DD	01H
; Function compile flags: /Ogsp
xdata$x	ENDS
;	COMDAT ??1TeamData@@QAE@XZ
_TEXT	SEGMENT
_this$ = -16						; size = 4
__$EHRec$ = -12						; size = 12
??1TeamData@@QAE@XZ PROC				; TeamData::~TeamData, COMDAT
; _this$ = ecx
  00000	6a 04		 push	 4
  00002	b8 00 00 00 00	 mov	 eax, __ehhandler$??1TeamData@@QAE@XZ
  00007	e8 00 00 00 00	 call	 __EH_prolog3
  0000c	8b f1		 mov	 esi, ecx
  0000e	89 75 f0	 mov	 DWORD PTR _this$[ebp], esi
  00011	83 65 fc 00	 and	 DWORD PTR __$EHRec$[ebp+8], 0
  00015	8d 4e 1c	 lea	 ecx, DWORD PTR [esi+28]
  00018	e8 00 00 00 00	 call	 ?_Tidy@?$vector@UTeamUserData@@V?$allocator@UTeamUserData@@@std@@@std@@IAEXXZ ; std::vector<TeamUserData,std::allocator<TeamUserData> >::_Tidy
  0001d	83 4d fc ff	 or	 DWORD PTR __$EHRec$[ebp+8], -1
  00021	8d 4e 0c	 lea	 ecx, DWORD PTR [esi+12]
  00024	ff 15 00 00 00
	00		 call	 DWORD PTR __imp_??1ioHashString@@QAE@XZ
  0002a	e8 00 00 00 00	 call	 __EH_epilog3
  0002f	c3		 ret	 0
_TEXT	ENDS
;	COMDAT text$x
text$x	SEGMENT
__unwindfunclet$??1TeamData@@QAE@XZ$0:
  00000	8b 4d f0	 mov	 ecx, DWORD PTR _this$[ebp]
  00003	83 c1 0c	 add	 ecx, 12			; 0000000cH
  00006	ff 25 00 00 00
	00		 jmp	 DWORD PTR __imp_??1ioHashString@@QAE@XZ
__ehhandler$??1TeamData@@QAE@XZ:
  0000c	8b 54 24 08	 mov	 edx, DWORD PTR [esp+8]
  00010	8d 42 0c	 lea	 eax, DWORD PTR [edx+12]
  00013	8b 4a ec	 mov	 ecx, DWORD PTR [edx-20]
  00016	33 c8		 xor	 ecx, eax
  00018	e8 00 00 00 00	 call	 @__security_check_cookie@4
  0001d	b8 00 00 00 00	 mov	 eax, OFFSET __ehfuncinfo$??1TeamData@@QAE@XZ
  00022	e9 00 00 00 00	 jmp	 ___CxxFrameHandler3
text$x	ENDS
??1TeamData@@QAE@XZ ENDP				; TeamData::~TeamData
PUBLIC	?push_back@?$vector@UTeamUserData@@V?$allocator@UTeamUserData@@@std@@@std@@QAEXABUTeamUserData@@@Z ; std::vector<TeamUserData,std::allocator<TeamUserData> >::push_back
; Function compile flags: /Ogsp
;	COMDAT ?push_back@?$vector@UTeamUserData@@V?$allocator@UTeamUserData@@@std@@@std@@QAEXABUTeamUserData@@@Z
_TEXT	SEGMENT
__Val$ = 8						; size = 4
?push_back@?$vector@UTeamUserData@@V?$allocator@UTeamUserData@@@std@@@std@@QAEXABUTeamUserData@@@Z PROC ; std::vector<TeamUserData,std::allocator<TeamUserData> >::push_back, COMDAT
; _this$ = ecx

; 976  : 		{	// insert element at end

  00000	55		 push	 ebp
  00001	8b ec		 mov	 ebp, esp
  00003	56		 push	 esi
  00004	8b f1		 mov	 esi, ecx

; 977  : 		if (_Inside(_STD addressof(_Val)))

  00006	8b 4e 04	 mov	 ecx, DWORD PTR [esi+4]
  00009	57		 push	 edi
  0000a	8b 7d 08	 mov	 edi, DWORD PTR __Val$[ebp]
  0000d	3b f9		 cmp	 edi, ecx
  0000f	73 37		 jae	 SHORT $LN4@push_back@2
  00011	8b 16		 mov	 edx, DWORD PTR [esi]
  00013	3b d7		 cmp	 edx, edi
  00015	77 31		 ja	 SHORT $LN4@push_back@2

; 978  : 			{	// push back an element
; 979  : 			size_type _Idx = _STD addressof(_Val) - this->_Myfirst;

  00017	8b c7		 mov	 eax, edi
  00019	2b c2		 sub	 eax, edx
  0001b	6a 18		 push	 24			; 00000018H
  0001d	99		 cdq
  0001e	5f		 pop	 edi
  0001f	f7 ff		 idiv	 edi
  00021	8b f8		 mov	 edi, eax

; 980  : 			if (this->_Mylast == this->_Myend)

  00023	3b 4e 08	 cmp	 ecx, DWORD PTR [esi+8]
  00026	75 09		 jne	 SHORT $LN3@push_back@2

; 981  : 				_Reserve(1);

  00028	6a 01		 push	 1
  0002a	8b ce		 mov	 ecx, esi
  0002c	e8 00 00 00 00	 call	 ?_Reserve@?$vector@UTeamUserData@@V?$allocator@UTeamUserData@@@std@@@std@@IAEXI@Z ; std::vector<TeamUserData,std::allocator<TeamUserData> >::_Reserve
$LN3@push_back@2:

; 982  : 			_Orphan_range(this->_Mylast, this->_Mylast);
; 983  : 			_Cons_val(this->_Alval,
; 984  : 				this->_Mylast,
; 985  : 				this->_Myfirst[_Idx]);

  00031	6b ff 18	 imul	 edi, 24			; 00000018H
  00034	03 3e		 add	 edi, DWORD PTR [esi]
  00036	8d 46 0c	 lea	 eax, DWORD PTR [esi+12]
  00039	57		 push	 edi
  0003a	ff 76 04	 push	 DWORD PTR [esi+4]
  0003d	50		 push	 eax
  0003e	e8 00 00 00 00	 call	 ??$_Cons_val@V?$allocator@UTeamUserData@@@std@@UTeamUserData@@AAU3@@std@@YAXAAV?$allocator@UTeamUserData@@@0@PAUTeamUserData@@AAU2@@Z ; std::_Cons_val<std::allocator<TeamUserData>,TeamUserData,TeamUserData &>
  00043	83 c4 0c	 add	 esp, 12			; 0000000cH

; 986  : 			++this->_Mylast;
; 987  : 			}
; 988  : 		else

  00046	eb 19		 jmp	 SHORT $LN26@push_back@2
$LN4@push_back@2:

; 989  : 			{	// push back a non-element
; 990  : 			if (this->_Mylast == this->_Myend)

  00048	3b 4e 08	 cmp	 ecx, DWORD PTR [esi+8]
  0004b	75 09		 jne	 SHORT $LN1@push_back@2

; 991  : 				_Reserve(1);

  0004d	6a 01		 push	 1
  0004f	8b ce		 mov	 ecx, esi
  00051	e8 00 00 00 00	 call	 ?_Reserve@?$vector@UTeamUserData@@V?$allocator@UTeamUserData@@@std@@@std@@IAEXI@Z ; std::vector<TeamUserData,std::allocator<TeamUserData> >::_Reserve
$LN1@push_back@2:

; 992  : 			_Orphan_range(this->_Mylast, this->_Mylast);
; 993  : 			_Cons_val(this->_Alval,
; 994  : 				this->_Mylast,
; 995  : 				_Val);

  00056	57		 push	 edi
  00057	ff 76 04	 push	 DWORD PTR [esi+4]
  0005a	e8 00 00 00 00	 call	 ??$_Construct@UTeamUserData@@ABU1@@std@@YAXPAUTeamUserData@@ABU1@@Z ; std::_Construct<TeamUserData,TeamUserData const &>
  0005f	59		 pop	 ecx
  00060	59		 pop	 ecx
$LN26@push_back@2:

; 996  : 			++this->_Mylast;

  00061	83 46 04 18	 add	 DWORD PTR [esi+4], 24	; 00000018H
  00065	5f		 pop	 edi
  00066	5e		 pop	 esi

; 997  : 			}
; 998  : 		}

  00067	5d		 pop	 ebp
  00068	c2 04 00	 ret	 4
?push_back@?$vector@UTeamUserData@@V?$allocator@UTeamUserData@@@std@@@std@@QAEXABUTeamUserData@@@Z ENDP ; std::vector<TeamUserData,std::allocator<TeamUserData> >::push_back
_TEXT	ENDS
PUBLIC	??0TeamData@@QAE@ABU0@@Z			; TeamData::TeamData
;	COMDAT xdata$x
xdata$x	SEGMENT
__unwindtable$??0TeamData@@QAE@ABU0@@Z DD 0ffffffffH
	DD	FLAT:__unwindfunclet$??0TeamData@@QAE@ABU0@@Z$0
__ehfuncinfo$??0TeamData@@QAE@ABU0@@Z DD 019930522H
	DD	01H
	DD	FLAT:__unwindtable$??0TeamData@@QAE@ABU0@@Z
	DD	2 DUP(00H)
	DD	2 DUP(00H)
	DD	00H
	DD	01H
; Function compile flags: /Ogsp
xdata$x	ENDS
;	COMDAT ??0TeamData@@QAE@ABU0@@Z
_TEXT	SEGMENT
_this$ = -16						; size = 4
__$EHRec$ = -12						; size = 12
___that$ = 8						; size = 4
??0TeamData@@QAE@ABU0@@Z PROC				; TeamData::TeamData, COMDAT
; _this$ = ecx
  00000	6a 04		 push	 4
  00002	b8 00 00 00 00	 mov	 eax, __ehhandler$??0TeamData@@QAE@ABU0@@Z
  00007	e8 00 00 00 00	 call	 __EH_prolog3
  0000c	8b f1		 mov	 esi, ecx
  0000e	89 75 f0	 mov	 DWORD PTR _this$[ebp], esi
  00011	8b 7d 08	 mov	 edi, DWORD PTR ___that$[ebp]
  00014	8b 07		 mov	 eax, DWORD PTR [edi]
  00016	89 06		 mov	 DWORD PTR [esi], eax
  00018	8b 47 04	 mov	 eax, DWORD PTR [edi+4]
  0001b	89 46 04	 mov	 DWORD PTR [esi+4], eax
  0001e	8b 47 08	 mov	 eax, DWORD PTR [edi+8]
  00021	89 46 08	 mov	 DWORD PTR [esi+8], eax
  00024	8d 47 0c	 lea	 eax, DWORD PTR [edi+12]
  00027	50		 push	 eax
  00028	8d 4e 0c	 lea	 ecx, DWORD PTR [esi+12]
  0002b	ff 15 00 00 00
	00		 call	 DWORD PTR __imp_??0ioHashString@@QAE@ABV0@@Z
  00031	83 65 fc 00	 and	 DWORD PTR __$EHRec$[ebp+8], 0
  00035	83 c7 1c	 add	 edi, 28			; 0000001cH
  00038	57		 push	 edi
  00039	8d 4e 1c	 lea	 ecx, DWORD PTR [esi+28]
  0003c	e8 00 00 00 00	 call	 ??0?$vector@UTeamUserData@@V?$allocator@UTeamUserData@@@std@@@std@@QAE@ABV01@@Z ; std::vector<TeamUserData,std::allocator<TeamUserData> >::vector<TeamUserData,std::allocator<TeamUserData> >
  00041	8b c6		 mov	 eax, esi
  00043	e8 00 00 00 00	 call	 __EH_epilog3
  00048	c2 04 00	 ret	 4
_TEXT	ENDS
;	COMDAT text$x
text$x	SEGMENT
__unwindfunclet$??0TeamData@@QAE@ABU0@@Z$0:
  00000	8b 4d f0	 mov	 ecx, DWORD PTR _this$[ebp]
  00003	83 c1 0c	 add	 ecx, 12			; 0000000cH
  00006	ff 25 00 00 00
	00		 jmp	 DWORD PTR __imp_??1ioHashString@@QAE@XZ
__ehhandler$??0TeamData@@QAE@ABU0@@Z:
  0000c	8b 54 24 08	 mov	 edx, DWORD PTR [esp+8]
  00010	8d 42 0c	 lea	 eax, DWORD PTR [edx+12]
  00013	8b 4a ec	 mov	 ecx, DWORD PTR [edx-20]
  00016	33 c8		 xor	 ecx, eax
  00018	e8 00 00 00 00	 call	 @__security_check_cookie@4
  0001d	b8 00 00 00 00	 mov	 eax, OFFSET __ehfuncinfo$??0TeamData@@QAE@ABU0@@Z
  00022	e9 00 00 00 00	 jmp	 ___CxxFrameHandler3
text$x	ENDS
??0TeamData@@QAE@ABU0@@Z ENDP				; TeamData::TeamData
PUBLIC	??4TeamData@@QAEAAU0@ABU0@@Z			; TeamData::operator=
; Function compile flags: /Ogsp
;	COMDAT ??4TeamData@@QAEAAU0@ABU0@@Z
_TEXT	SEGMENT
___that$ = 8						; size = 4
??4TeamData@@QAEAAU0@ABU0@@Z PROC			; TeamData::operator=, COMDAT
; _this$ = ecx
  00000	55		 push	 ebp
  00001	8b ec		 mov	 ebp, esp
  00003	56		 push	 esi
  00004	57		 push	 edi
  00005	8b 7d 08	 mov	 edi, DWORD PTR ___that$[ebp]
  00008	8b 07		 mov	 eax, DWORD PTR [edi]
  0000a	8b f1		 mov	 esi, ecx
  0000c	89 06		 mov	 DWORD PTR [esi], eax
  0000e	8b 47 04	 mov	 eax, DWORD PTR [edi+4]
  00011	89 46 04	 mov	 DWORD PTR [esi+4], eax
  00014	8b 47 08	 mov	 eax, DWORD PTR [edi+8]
  00017	89 46 08	 mov	 DWORD PTR [esi+8], eax
  0001a	8d 47 0c	 lea	 eax, DWORD PTR [edi+12]
  0001d	50		 push	 eax
  0001e	8d 4e 0c	 lea	 ecx, DWORD PTR [esi+12]
  00021	ff 15 00 00 00
	00		 call	 DWORD PTR __imp_??4ioHashString@@QAEAAV0@ABV0@@Z
  00027	83 c7 1c	 add	 edi, 28			; 0000001cH
  0002a	57		 push	 edi
  0002b	8d 4e 1c	 lea	 ecx, DWORD PTR [esi+28]
  0002e	e8 00 00 00 00	 call	 ??4?$vector@UTeamUserData@@V?$allocator@UTeamUserData@@@std@@@std@@QAEAAV01@ABV01@@Z ; std::vector<TeamUserData,std::allocator<TeamUserData> >::operator=
  00033	5f		 pop	 edi
  00034	8b c6		 mov	 eax, esi
  00036	5e		 pop	 esi
  00037	5d		 pop	 ebp
  00038	c2 04 00	 ret	 4
??4TeamData@@QAEAAU0@ABU0@@Z ENDP			; TeamData::operator=
_TEXT	ENDS
PUBLIC	??_GTeamData@@QAEPAXI@Z				; TeamData::`scalar deleting destructor'
; Function compile flags: /Ogsp
;	COMDAT ??_GTeamData@@QAEPAXI@Z
_TEXT	SEGMENT
___flags$ = 8						; size = 4
??_GTeamData@@QAEPAXI@Z PROC				; TeamData::`scalar deleting destructor', COMDAT
; _this$ = ecx
  00000	55		 push	 ebp
  00001	8b ec		 mov	 ebp, esp
  00003	56		 push	 esi
  00004	8b f1		 mov	 esi, ecx
  00006	e8 00 00 00 00	 call	 ??1TeamData@@QAE@XZ
  0000b	f6 45 08 01	 test	 BYTE PTR ___flags$[ebp], 1
  0000f	74 07		 je	 SHORT $LN1@scalar@3
  00011	56		 push	 esi
  00012	e8 00 00 00 00	 call	 ??3@YAXPAX@Z		; operator delete
  00017	59		 pop	 ecx
$LN1@scalar@3:
  00018	8b c6		 mov	 eax, esi
  0001a	5e		 pop	 esi
  0001b	5d		 pop	 ebp
  0001c	c2 04 00	 ret	 4
??_GTeamData@@QAEPAXI@Z ENDP				; TeamData::`scalar deleting destructor'
_TEXT	ENDS
PUBLIC	?construct@?$allocator@UTeamData@@@std@@QAEXPAUTeamData@@$$QAU3@@Z ; std::allocator<TeamData>::construct
;	COMDAT xdata$x
; File c:\program files (x86)\microsoft visual studio 10.0\vc\include\utility
xdata$x	SEGMENT
__unwindtable$?construct@?$allocator@UTeamData@@@std@@QAEXPAUTeamData@@$$QAU3@@Z DD 0ffffffffH
	DD	FLAT:__unwindfunclet$?construct@?$allocator@UTeamData@@@std@@QAEXPAUTeamData@@$$QAU3@@Z$0
__ehfuncinfo$?construct@?$allocator@UTeamData@@@std@@QAEXPAUTeamData@@$$QAU3@@Z DD 019930522H
	DD	01H
	DD	FLAT:__unwindtable$?construct@?$allocator@UTeamData@@@std@@QAEXPAUTeamData@@$$QAU3@@Z
	DD	2 DUP(00H)
	DD	2 DUP(00H)
	DD	00H
	DD	01H
; Function compile flags: /Ogsp
; File c:\program files (x86)\microsoft visual studio 10.0\vc\include\xmemory
xdata$x	ENDS
;	COMDAT ?construct@?$allocator@UTeamData@@@std@@QAEXPAUTeamData@@$$QAU3@@Z
_TEXT	SEGMENT
$T515111 = -16						; size = 4
__$EHRec$ = -12						; size = 12
__Ptr$ = 8						; size = 4
__Val$ = 12						; size = 4
?construct@?$allocator@UTeamData@@@std@@QAEXPAUTeamData@@$$QAU3@@Z PROC ; std::allocator<TeamData>::construct, COMDAT
; _this$ = ecx

; 201  : 		{	// construct object at _Ptr with value _Val

  00000	6a 04		 push	 4
  00002	b8 00 00 00 00	 mov	 eax, __ehhandler$?construct@?$allocator@UTeamData@@@std@@QAEXPAUTeamData@@$$QAU3@@Z
  00007	e8 00 00 00 00	 call	 __EH_prolog3

; 202  : 		::new ((void _FARQ *)_Ptr) _Ty(_STD forward<_Ty>(_Val));

  0000c	8b 4d 08	 mov	 ecx, DWORD PTR __Ptr$[ebp]
  0000f	89 4d f0	 mov	 DWORD PTR $T515111[ebp], ecx
  00012	83 65 fc 00	 and	 DWORD PTR __$EHRec$[ebp+8], 0
  00016	85 c9		 test	 ecx, ecx
  00018	74 08		 je	 SHORT $LN3@construct@6
  0001a	ff 75 0c	 push	 DWORD PTR __Val$[ebp]
  0001d	e8 00 00 00 00	 call	 ??0TeamData@@QAE@ABU0@@Z
$LN3@construct@6:

; 203  : 		}

  00022	e8 00 00 00 00	 call	 __EH_epilog3
  00027	c2 08 00	 ret	 8
_TEXT	ENDS
;	COMDAT text$x
text$x	SEGMENT
__unwindfunclet$?construct@?$allocator@UTeamData@@@std@@QAEXPAUTeamData@@$$QAU3@@Z$0:
  00000	ff 75 08	 push	 DWORD PTR __Ptr$[ebp]
  00003	ff 75 f0	 push	 DWORD PTR $T515111[ebp]
  00006	e8 00 00 00 00	 call	 ??3@YAXPAX0@Z		; operator delete
  0000b	59		 pop	 ecx
  0000c	59		 pop	 ecx
  0000d	c3		 ret	 0
__ehhandler$?construct@?$allocator@UTeamData@@@std@@QAEXPAUTeamData@@$$QAU3@@Z:
  0000e	8b 54 24 08	 mov	 edx, DWORD PTR [esp+8]
  00012	8d 42 0c	 lea	 eax, DWORD PTR [edx+12]
  00015	8b 4a ec	 mov	 ecx, DWORD PTR [edx-20]
  00018	33 c8		 xor	 ecx, eax
  0001a	e8 00 00 00 00	 call	 @__security_check_cookie@4
  0001f	b8 00 00 00 00	 mov	 eax, OFFSET __ehfuncinfo$?construct@?$allocator@UTeamData@@@std@@QAEXPAUTeamData@@$$QAU3@@Z
  00024	e9 00 00 00 00	 jmp	 ___CxxFrameHandler3
text$x	ENDS
?construct@?$allocator@UTeamData@@@std@@QAEXPAUTeamData@@$$QAU3@@Z ENDP ; std::allocator<TeamData>::construct
PUBLIC	??0TeamData@@QAE@XZ				; TeamData::TeamData
; Function compile flags: /Ogsp
; File d:\lost saga for developer\youtube\tutorial\source\src\lsclient\iousertournament.h
;	COMDAT ??0TeamData@@QAE@XZ
_TEXT	SEGMENT
??0TeamData@@QAE@XZ PROC				; TeamData::TeamData, COMDAT
; _this$ = ecx

; 26   : 	TeamData()

  00000	56		 push	 esi
  00001	8b f1		 mov	 esi, ecx
  00003	8d 4e 0c	 lea	 ecx, DWORD PTR [esi+12]
  00006	ff 15 00 00 00
	00		 call	 DWORD PTR __imp_??0ioHashString@@QAE@XZ
  0000c	33 c0		 xor	 eax, eax
  0000e	89 46 1c	 mov	 DWORD PTR [esi+28], eax
  00011	89 46 20	 mov	 DWORD PTR [esi+32], eax
  00014	89 46 24	 mov	 DWORD PTR [esi+36], eax

; 27   : 	{
; 28   : 		m_dwTourIndex = m_dwTeamIndex = m_dwTeamOwnerIndex = 0;

  00017	89 46 08	 mov	 DWORD PTR [esi+8], eax
  0001a	89 46 04	 mov	 DWORD PTR [esi+4], eax
  0001d	89 06		 mov	 DWORD PTR [esi], eax

; 29   : 	}

  0001f	8b c6		 mov	 eax, esi
  00021	5e		 pop	 esi
  00022	c3		 ret	 0
??0TeamData@@QAE@XZ ENDP				; TeamData::TeamData
_TEXT	ENDS
PUBLIC	??_R0?AVioWnd@@@8				; ioWnd `RTTI Type Descriptor'
PUBLIC	??_R0?AVTournamentTeamAlarmWnd@@@8		; TournamentTeamAlarmWnd `RTTI Type Descriptor'
PUBLIC	??_C@_0CB@MBFLGNPM@ioUserTournament?3?3SetTeamUserAdd@ ; `string'
PUBLIC	??_C@_00CNPNBAHC@?$AA@				; `string'
PUBLIC	?SetTeamUserAdd@ioUserTournament@@QAEXKAAVSP2Packet@@@Z ; ioUserTournament::SetTeamUserAdd
EXTRN	?SetAlarmData@TournamentTeamAlarmWnd@@QAEXKKK@Z:PROC ; TournamentTeamAlarmWnd::SetAlarmData
EXTRN	__imp_?FindWnd@ioGUIManager@@QAEPAVioWnd@@K@Z:PROC
EXTRN	?SetMsgBox@ioSP2GUIManager@@QAAXHPAVioWnd@@PBDZZ:PROC ; ioSP2GUIManager::SetMsgBox
EXTRN	?GetSingleton@ioSP2GUIManager@@SAAAV1@XZ:PROC	; ioSP2GUIManager::GetSingleton
EXTRN	__imp_?GetString@ioStringManager@@QAEPADPBD0HW4FileNamePrefix@1@@Z:PROC
EXTRN	__imp_?GetSingleton@ioStringManager@@SAAAV1@XZ:PROC
EXTRN	?GetSingleton@ioMyInfo@@SAAAV1@XZ:PROC		; ioMyInfo::GetSingleton
EXTRN	?AddTeamUserData@ioTournamentTeamManager@@QAEPAVTeamGlobalData@@KKABVioHashString@@@Z:PROC ; ioTournamentTeamManager::AddTeamUserData
EXTRN	?SetLadderPoint@ioUserInfoMgr@@QAEXABVioHashString@@H@Z:PROC ; ioUserInfoMgr::SetLadderPoint
EXTRN	?SetGuildIndex@ioUserInfoMgr@@QAEXABVioHashString@@K@Z:PROC ; ioUserInfoMgr::SetGuildIndex
EXTRN	?SetGrade@ioUserInfoMgr@@QAEXABVioHashString@@H@Z:PROC ; ioUserInfoMgr::SetGrade
EXTRN	?GetSingleton@ioUserInfoMgr@@SAAAV1@XZ:PROC	; ioUserInfoMgr::GetSingleton
EXTRN	??5SP2Packet@@QAEAAV0@AAH@Z:PROC		; SP2Packet::operator>>
EXTRN	??5SP2Packet@@QAEAAV0@AAVioHashString@@@Z:PROC	; SP2Packet::operator>>
EXTRN	??5SP2Packet@@QAEAAV0@AAK@Z:PROC		; SP2Packet::operator>>
EXTRN	___RTDynamicCast:PROC
;	COMDAT ??_R0?AVioWnd@@@8
; File d:\lost saga for developer\youtube\tutorial\source\src\lsclient\iomyinfo.h
_DATA	SEGMENT
??_R0?AVioWnd@@@8 DD FLAT:??_7type_info@@6B@		; ioWnd `RTTI Type Descriptor'
	DD	00H
	DB	'.?AVioWnd@@', 00H
_DATA	ENDS
;	COMDAT ??_R0?AVTournamentTeamAlarmWnd@@@8
_DATA	SEGMENT
??_R0?AVTournamentTeamAlarmWnd@@@8 DD FLAT:??_7type_info@@6B@ ; TournamentTeamAlarmWnd `RTTI Type Descriptor'
	DD	00H
	DB	'.?AVTournamentTeamAlarmWnd@@', 00H
_DATA	ENDS
;	COMDAT ??_C@_0CB@MBFLGNPM@ioUserTournament?3?3SetTeamUserAdd@
CONST	SEGMENT
??_C@_0CB@MBFLGNPM@ioUserTournament?3?3SetTeamUserAdd@ DB 'ioUserTourname'
	DB	'nt::SetTeamUserAdd', 00H			; `string'
CONST	ENDS
;	COMDAT ??_C@_00CNPNBAHC@?$AA@
CONST	SEGMENT
??_C@_00CNPNBAHC@?$AA@ DB 00H				; `string'
CONST	ENDS
;	COMDAT xdata$x
xdata$x	SEGMENT
__unwindtable$?SetTeamUserAdd@ioUserTournament@@QAEXKAAVSP2Packet@@@Z DD 0ffffffffH
	DD	FLAT:__unwindfunclet$?SetTeamUserAdd@ioUserTournament@@QAEXKAAVSP2Packet@@@Z$0
	DD	00H
	DD	FLAT:__unwindfunclet$?SetTeamUserAdd@ioUserTournament@@QAEXKAAVSP2Packet@@@Z$1
__ehfuncinfo$?SetTeamUserAdd@ioUserTournament@@QAEXKAAVSP2Packet@@@Z DD 019930522H
	DD	02H
	DD	FLAT:__unwindtable$?SetTeamUserAdd@ioUserTournament@@QAEXKAAVSP2Packet@@@Z
	DD	2 DUP(00H)
	DD	2 DUP(00H)
	DD	00H
	DD	01H
; Function compile flags: /Ogsp
; File d:\lost saga for developer\youtube\tutorial\source\src\lsclient\iousertournament.cpp
xdata$x	ENDS
;	COMDAT ?SetTeamUserAdd@ioUserTournament@@QAEXKAAVSP2Packet@@@Z
_TEXT	SEGMENT
_kUserData$508101 = -72					; size = 24
_szNick$508094 = -48					; size = 16
_dwTableIndex$508095 = -32				; size = 4
_iLadderPoint$508098 = -28				; size = 4
_dwGuildIndex$508099 = -24				; size = 4
_iGradeLevel$508097 = -20				; size = 4
_dwUserIndex$508096 = -16				; size = 4
__$EHRec$ = -12						; size = 12
_dwTeamIndex$ = 8					; size = 4
_rkPacket$ = 12						; size = 4
?SetTeamUserAdd@ioUserTournament@@QAEXKAAVSP2Packet@@@Z PROC ; ioUserTournament::SetTeamUserAdd, COMDAT
; _this$ = ecx

; 201  : {

  00000	6a 3c		 push	 60			; 0000003cH
  00002	b8 00 00 00 00	 mov	 eax, __ehhandler$?SetTeamUserAdd@ioUserTournament@@QAEXKAAVSP2Packet@@@Z
  00007	e8 00 00 00 00	 call	 __EH_prolog3
  0000c	8b d9		 mov	 ebx, ecx

; 202  : 	TeamDataVec::iterator iter = m_TeamDataList.begin();

  0000e	8b 7b 04	 mov	 edi, DWORD PTR [ebx+4]
  00011	eb 0b		 jmp	 SHORT $LN59@SetTeamUse

; 203  : 	for(;iter != m_TeamDataList.end();++iter)

$LL24@SetTeamUse:

; 204  : 	{
; 205  : 		TeamData &rkTeamData = *iter;
; 206  : 		if( rkTeamData.m_dwTeamIndex == dwTeamIndex )

  00013	8b 45 08	 mov	 eax, DWORD PTR _dwTeamIndex$[ebp]
  00016	39 47 04	 cmp	 DWORD PTR [edi+4], eax
  00019	74 0d		 je	 SHORT $LN55@SetTeamUse

; 203  : 	for(;iter != m_TeamDataList.end();++iter)

  0001b	83 c7 2c	 add	 edi, 44			; 0000002cH
$LN59@SetTeamUse:
  0001e	3b 7b 08	 cmp	 edi, DWORD PTR [ebx+8]
  00021	75 f0		 jne	 SHORT $LL24@SetTeamUse

; 204  : 	{
; 205  : 		TeamData &rkTeamData = *iter;
; 206  : 		if( rkTeamData.m_dwTeamIndex == dwTeamIndex )

  00023	e9 8e 01 00 00	 jmp	 $LN7@SetTeamUse
$LN55@SetTeamUse:

; 207  : 		{
; 208  : 			ioHashString szNick;

  00028	8b 35 00 00 00
	00		 mov	 esi, DWORD PTR __imp_??0ioHashString@@QAE@XZ
  0002e	8d 4d d0	 lea	 ecx, DWORD PTR _szNick$508094[ebp]
  00031	ff d6		 call	 esi

; 209  : 			DWORD dwTableIndex, dwUserIndex;
; 210  : 			int iGradeLevel, iLadderPoint, dwGuildIndex;
; 211  : 			rkPacket >> dwTableIndex >> dwUserIndex >> szNick >> iGradeLevel >> iLadderPoint >> dwGuildIndex;

  00033	8b 4d 0c	 mov	 ecx, DWORD PTR _rkPacket$[ebp]
  00036	83 65 fc 00	 and	 DWORD PTR __$EHRec$[ebp+8], 0
  0003a	8d 45 e8	 lea	 eax, DWORD PTR _dwGuildIndex$508099[ebp]
  0003d	50		 push	 eax
  0003e	8d 45 e4	 lea	 eax, DWORD PTR _iLadderPoint$508098[ebp]
  00041	50		 push	 eax
  00042	8d 45 ec	 lea	 eax, DWORD PTR _iGradeLevel$508097[ebp]
  00045	50		 push	 eax
  00046	8d 45 d0	 lea	 eax, DWORD PTR _szNick$508094[ebp]
  00049	50		 push	 eax
  0004a	8d 45 f0	 lea	 eax, DWORD PTR _dwUserIndex$508096[ebp]
  0004d	50		 push	 eax
  0004e	8d 45 e0	 lea	 eax, DWORD PTR _dwTableIndex$508095[ebp]
  00051	50		 push	 eax
  00052	e8 00 00 00 00	 call	 ??5SP2Packet@@QAEAAV0@AAK@Z ; SP2Packet::operator>>
  00057	8b c8		 mov	 ecx, eax
  00059	e8 00 00 00 00	 call	 ??5SP2Packet@@QAEAAV0@AAK@Z ; SP2Packet::operator>>
  0005e	8b c8		 mov	 ecx, eax
  00060	e8 00 00 00 00	 call	 ??5SP2Packet@@QAEAAV0@AAVioHashString@@@Z ; SP2Packet::operator>>
  00065	8b c8		 mov	 ecx, eax
  00067	e8 00 00 00 00	 call	 ??5SP2Packet@@QAEAAV0@AAH@Z ; SP2Packet::operator>>
  0006c	8b c8		 mov	 ecx, eax
  0006e	e8 00 00 00 00	 call	 ??5SP2Packet@@QAEAAV0@AAH@Z ; SP2Packet::operator>>
  00073	8b c8		 mov	 ecx, eax
  00075	e8 00 00 00 00	 call	 ??5SP2Packet@@QAEAAV0@AAH@Z ; SP2Packet::operator>>

; 212  : 
; 213  : 			g_UserInfoMgr.SetGrade( szNick, iGradeLevel );

  0007a	ff 75 ec	 push	 DWORD PTR _iGradeLevel$508097[ebp]
  0007d	8d 45 d0	 lea	 eax, DWORD PTR _szNick$508094[ebp]
  00080	50		 push	 eax
  00081	e8 00 00 00 00	 call	 ?GetSingleton@ioUserInfoMgr@@SAAAV1@XZ ; ioUserInfoMgr::GetSingleton
  00086	8b c8		 mov	 ecx, eax
  00088	e8 00 00 00 00	 call	 ?SetGrade@ioUserInfoMgr@@QAEXABVioHashString@@H@Z ; ioUserInfoMgr::SetGrade

; 214  : 			g_UserInfoMgr.SetGuildIndex( szNick, dwGuildIndex );

  0008d	ff 75 e8	 push	 DWORD PTR _dwGuildIndex$508099[ebp]
  00090	8d 45 d0	 lea	 eax, DWORD PTR _szNick$508094[ebp]
  00093	50		 push	 eax
  00094	e8 00 00 00 00	 call	 ?GetSingleton@ioUserInfoMgr@@SAAAV1@XZ ; ioUserInfoMgr::GetSingleton
  00099	8b c8		 mov	 ecx, eax
  0009b	e8 00 00 00 00	 call	 ?SetGuildIndex@ioUserInfoMgr@@QAEXABVioHashString@@K@Z ; ioUserInfoMgr::SetGuildIndex

; 215  : 			g_UserInfoMgr.SetLadderPoint( szNick, iLadderPoint );

  000a0	ff 75 e4	 push	 DWORD PTR _iLadderPoint$508098[ebp]
  000a3	8d 45 d0	 lea	 eax, DWORD PTR _szNick$508094[ebp]
  000a6	50		 push	 eax
  000a7	e8 00 00 00 00	 call	 ?GetSingleton@ioUserInfoMgr@@SAAAV1@XZ ; ioUserInfoMgr::GetSingleton
  000ac	8b c8		 mov	 ecx, eax
  000ae	e8 00 00 00 00	 call	 ?SetLadderPoint@ioUserInfoMgr@@QAEXABVioHashString@@H@Z ; ioUserInfoMgr::SetLadderPoint

; 216  : 
; 217  : 			if( !IsAlreadyUser( dwTeamIndex, dwUserIndex ) )

  000b3	ff 75 f0	 push	 DWORD PTR _dwUserIndex$508096[ebp]
  000b6	8b cb		 mov	 ecx, ebx
  000b8	ff 75 08	 push	 DWORD PTR _dwTeamIndex$[ebp]
  000bb	e8 00 00 00 00	 call	 ?IsAlreadyUser@ioUserTournament@@QAE_NKK@Z ; ioUserTournament::IsAlreadyUser
  000c0	84 c0		 test	 al, al
  000c2	75 5b		 jne	 SHORT $LN57@SetTeamUse

; 218  : 			{
; 219  : 				TeamUserData kUserData;

  000c4	8d 4d c0	 lea	 ecx, DWORD PTR _kUserData$508101[ebp+8]
  000c7	ff d6		 call	 esi
  000c9	33 f6		 xor	 esi, esi
  000cb	89 75 bc	 mov	 DWORD PTR _kUserData$508101[ebp+4], esi
  000ce	89 75 b8	 mov	 DWORD PTR _kUserData$508101[ebp], esi

; 220  : 				kUserData.m_szNick       = szNick;

  000d1	8d 45 d0	 lea	 eax, DWORD PTR _szNick$508094[ebp]
  000d4	50		 push	 eax
  000d5	8d 4d c0	 lea	 ecx, DWORD PTR _kUserData$508101[ebp+8]
  000d8	c6 45 fc 01	 mov	 BYTE PTR __$EHRec$[ebp+8], 1
  000dc	ff 15 00 00 00
	00		 call	 DWORD PTR __imp_??4ioHashString@@QAEAAV0@ABV0@@Z

; 221  : 				kUserData.m_dwTableIndex = dwTableIndex;

  000e2	8b 45 e0	 mov	 eax, DWORD PTR _dwTableIndex$508095[ebp]
  000e5	89 45 b8	 mov	 DWORD PTR _kUserData$508101[ebp], eax

; 222  : 				kUserData.m_dwUserIndex  = dwUserIndex;

  000e8	8b 45 f0	 mov	 eax, DWORD PTR _dwUserIndex$508096[ebp]
  000eb	89 45 bc	 mov	 DWORD PTR _kUserData$508101[ebp+4], eax

; 223  : 				rkTeamData.m_TeamUserList.push_back( kUserData );		

  000ee	8d 45 b8	 lea	 eax, DWORD PTR _kUserData$508101[ebp]
  000f1	50		 push	 eax
  000f2	8d 4f 1c	 lea	 ecx, DWORD PTR [edi+28]
  000f5	e8 00 00 00 00	 call	 ?push_back@?$vector@UTeamUserData@@V?$allocator@UTeamUserData@@@std@@@std@@QAEXABUTeamUserData@@@Z ; std::vector<TeamUserData,std::allocator<TeamUserData> >::push_back

; 224  : 
; 225  : 				g_TournamentTeamMgr.AddTeamUserData( dwTeamIndex, dwUserIndex, szNick );

  000fa	8d 45 d0	 lea	 eax, DWORD PTR _szNick$508094[ebp]
  000fd	50		 push	 eax
  000fe	ff 75 f0	 push	 DWORD PTR _dwUserIndex$508096[ebp]
  00101	ff 75 08	 push	 DWORD PTR _dwTeamIndex$[ebp]
  00104	e8 00 00 00 00	 call	 ?GetSingleton@ioTournamentTeamManager@@SAAAV1@XZ ; ioTournamentTeamManager::GetSingleton
  00109	8b c8		 mov	 ecx, eax
  0010b	e8 00 00 00 00	 call	 ?AddTeamUserData@ioTournamentTeamManager@@QAEPAVTeamGlobalData@@KKABVioHashString@@@Z ; ioTournamentTeamManager::AddTeamUserData

; 226  : 			}

  00110	8d 4d c0	 lea	 ecx, DWORD PTR _kUserData$508101[ebp+8]
  00113	c6 45 fc 00	 mov	 BYTE PTR __$EHRec$[ebp+8], 0
  00117	ff 15 00 00 00
	00		 call	 DWORD PTR __imp_??1ioHashString@@QAE@XZ
  0011d	eb 02		 jmp	 SHORT $LN5@SetTeamUse
$LN57@SetTeamUse:
  0011f	33 f6		 xor	 esi, esi
$LN5@SetTeamUse:

; 227  : 
; 228  : 			if( rkTeamData.m_dwTeamOwnerIndex == g_MyInfo.GetUserIndex() )

  00121	e8 00 00 00 00	 call	 ?GetSingleton@ioMyInfo@@SAAAV1@XZ ; ioMyInfo::GetSingleton
  00126	8b 4f 08	 mov	 ecx, DWORD PTR [edi+8]
  00129	3b 48 08	 cmp	 ecx, DWORD PTR [eax+8]
  0012c	75 2e		 jne	 SHORT $LN4@SetTeamUse

; 229  : 			{
; 230  : 				//   UI 
; 231  : 				g_GUIMgr.SetMsgBox( MB_OK, NULL, STR(2) );

  0012e	56		 push	 esi
  0012f	6a 02		 push	 2
  00131	68 00 00 00 00	 push	 OFFSET ??_C@_00CNPNBAHC@?$AA@
  00136	68 00 00 00 00	 push	 OFFSET ??_C@_0CB@MBFLGNPM@ioUserTournament?3?3SetTeamUserAdd@
  0013b	ff 15 00 00 00
	00		 call	 DWORD PTR __imp_?GetSingleton@ioStringManager@@SAAAV1@XZ
  00141	8b c8		 mov	 ecx, eax
  00143	ff 15 00 00 00
	00		 call	 DWORD PTR __imp_?GetString@ioStringManager@@QAEPADPBD0HW4FileNamePrefix@1@@Z
  00149	50		 push	 eax
  0014a	56		 push	 esi
  0014b	56		 push	 esi
  0014c	e8 00 00 00 00	 call	 ?GetSingleton@ioSP2GUIManager@@SAAAV1@XZ ; ioSP2GUIManager::GetSingleton
  00151	50		 push	 eax
  00152	e8 00 00 00 00	 call	 ?SetMsgBox@ioSP2GUIManager@@QAAXHPAVioWnd@@PBDZZ ; ioSP2GUIManager::SetMsgBox
  00157	83 c4 10	 add	 esp, 16			; 00000010H
  0015a	eb 47		 jmp	 SHORT $LN1@SetTeamUse
$LN4@SetTeamUse:

; 232  : 			}
; 233  : 			else if( dwUserIndex != g_MyInfo.GetUserIndex() )

  0015c	e8 00 00 00 00	 call	 ?GetSingleton@ioMyInfo@@SAAAV1@XZ ; ioMyInfo::GetSingleton
  00161	8b 4d f0	 mov	 ecx, DWORD PTR _dwUserIndex$508096[ebp]
  00164	3b 48 08	 cmp	 ecx, DWORD PTR [eax+8]
  00167	74 3a		 je	 SHORT $LN1@SetTeamUse

; 234  : 			{
; 235  : 				TournamentTeamAlarmWnd *pTeamAlarmWnd = dynamic_cast< TournamentTeamAlarmWnd * >( g_GUIMgr.FindWnd( TOURNAMENT_TEAM_ALARM_WND ) );

  00169	56		 push	 esi
  0016a	68 00 00 00 00	 push	 OFFSET ??_R0?AVTournamentTeamAlarmWnd@@@8
  0016f	68 00 00 00 00	 push	 OFFSET ??_R0?AVioWnd@@@8
  00174	56		 push	 esi
  00175	68 35 18 00 00	 push	 6197			; 00001835H
  0017a	e8 00 00 00 00	 call	 ?GetSingleton@ioSP2GUIManager@@SAAAV1@XZ ; ioSP2GUIManager::GetSingleton
  0017f	8b c8		 mov	 ecx, eax
  00181	ff 15 00 00 00
	00		 call	 DWORD PTR __imp_?FindWnd@ioGUIManager@@QAEPAVioWnd@@K@Z
  00187	50		 push	 eax
  00188	e8 00 00 00 00	 call	 ___RTDynamicCast
  0018d	83 c4 14	 add	 esp, 20			; 00000014H

; 236  : 				if( pTeamAlarmWnd )

  00190	3b c6		 cmp	 eax, esi
  00192	74 0f		 je	 SHORT $LN1@SetTeamUse

; 237  : 				{
; 238  : 					pTeamAlarmWnd->SetAlarmData( dwTeamIndex, dwUserIndex, TournamentTeamAlarmWnd::ALARM_TYPE_JOIN_USER );

  00194	6a 01		 push	 1
  00196	ff 75 f0	 push	 DWORD PTR _dwUserIndex$508096[ebp]
  00199	8b c8		 mov	 ecx, eax
  0019b	ff 75 08	 push	 DWORD PTR _dwTeamIndex$[ebp]
  0019e	e8 00 00 00 00	 call	 ?SetAlarmData@TournamentTeamAlarmWnd@@QAEXKKK@Z ; TournamentTeamAlarmWnd::SetAlarmData
$LN1@SetTeamUse:

; 239  : 				}
; 240  : 			}
; 241  : 
; 242  : 			m_bUpdateMainUI = true;
; 243  : 			m_bUpdateSubUI  = true;
; 244  : 			return;

  001a3	83 4d fc ff	 or	 DWORD PTR __$EHRec$[ebp+8], -1
  001a7	8d 4d d0	 lea	 ecx, DWORD PTR _szNick$508094[ebp]
  001aa	66 c7 43 24 01
	01		 mov	 WORD PTR [ebx+36], 257	; 00000101H
  001b0	ff 15 00 00 00
	00		 call	 DWORD PTR __imp_??1ioHashString@@QAE@XZ
$LN7@SetTeamUse:

; 245  : 		}
; 246  : 	}
; 247  : }

  001b6	e8 00 00 00 00	 call	 __EH_epilog3
  001bb	c2 08 00	 ret	 8
_TEXT	ENDS
;	COMDAT text$x
text$x	SEGMENT
__unwindfunclet$?SetTeamUserAdd@ioUserTournament@@QAEXKAAVSP2Packet@@@Z$0:
  00000	8d 4d d0	 lea	 ecx, DWORD PTR _szNick$508094[ebp]
  00003	ff 25 00 00 00
	00		 jmp	 DWORD PTR __imp_??1ioHashString@@QAE@XZ
__unwindfunclet$?SetTeamUserAdd@ioUserTournament@@QAEXKAAVSP2Packet@@@Z$1:
  00009	8d 4d b8	 lea	 ecx, DWORD PTR _kUserData$508101[ebp]
  0000c	e9 00 00 00 00	 jmp	 ??1TeamUserData@@QAE@XZ
__ehhandler$?SetTeamUserAdd@ioUserTournament@@QAEXKAAVSP2Packet@@@Z:
  00011	8b 54 24 08	 mov	 edx, DWORD PTR [esp+8]
  00015	8d 42 0c	 lea	 eax, DWORD PTR [edx+12]
  00018	8b 4a b4	 mov	 ecx, DWORD PTR [edx-76]
  0001b	33 c8		 xor	 ecx, eax
  0001d	e8 00 00 00 00	 call	 @__security_check_cookie@4
  00022	b8 00 00 00 00	 mov	 eax, OFFSET __ehfuncinfo$?SetTeamUserAdd@ioUserTournament@@QAEXKAAVSP2Packet@@@Z
  00027	e9 00 00 00 00	 jmp	 ___CxxFrameHandler3
text$x	ENDS
?SetTeamUserAdd@ioUserTournament@@QAEXKAAVSP2Packet@@@Z ENDP ; ioUserTournament::SetTeamUserAdd
PUBLIC	?GetTeamData@ioUserTournament@@QAEAAUTeamData@@K@Z ; ioUserTournament::GetTeamData
;	COMDAT ?stNull@?5??GetTeamData@ioUserTournament@@QAEAAUTeamData@@K@Z@4U3@A
; File c:\program files (x86)\microsoft visual studio 10.0\vc\include\vector
_BSS	SEGMENT
?stNull@?5??GetTeamData@ioUserTournament@@QAEAAUTeamData@@K@Z@4U3@A DB 02cH DUP (?) ; `ioUserTournament::GetTeamData'::`6'::stNull
_BSS	ENDS
;	COMDAT ?$S1@?5??GetTeamData@ioUserTournament@@QAEAAUTeamData@@K@Z@4IA
_BSS	SEGMENT
?$S1@?5??GetTeamData@ioUserTournament@@QAEAAUTeamData@@K@Z@4IA DD 01H DUP (?) ; `ioUserTournament::GetTeamData'::`6'::$S1
_BSS	ENDS
;	COMDAT xdata$x
xdata$x	SEGMENT
__unwindtable$?GetTeamData@ioUserTournament@@QAEAAUTeamData@@K@Z DD 0ffffffffH
	DD	FLAT:__unwindfunclet$?GetTeamData@ioUserTournament@@QAEAAUTeamData@@K@Z$0
__ehfuncinfo$?GetTeamData@ioUserTournament@@QAEAAUTeamData@@K@Z DD 019930522H
	DD	01H
	DD	FLAT:__unwindtable$?GetTeamData@ioUserTournament@@QAEAAUTeamData@@K@Z
	DD	2 DUP(00H)
	DD	2 DUP(00H)
	DD	00H
	DD	01H
; Function compile flags: /Ogsp
; File d:\lost saga for developer\youtube\tutorial\source\src\lsclient\iousertournament.cpp
xdata$x	ENDS
;	COMDAT ?GetTeamData@ioUserTournament@@QAEAAUTeamData@@K@Z
_TEXT	SEGMENT
__$EHRec$ = -12						; size = 12
_dwTeamIndex$ = 8					; size = 4
?GetTeamData@ioUserTournament@@QAEAAUTeamData@@K@Z PROC	; ioUserTournament::GetTeamData, COMDAT
; _this$ = ecx

; 322  : {

  00000	6a 00		 push	 0
  00002	b8 00 00 00 00	 mov	 eax, __ehhandler$?GetTeamData@ioUserTournament@@QAEAAUTeamData@@K@Z
  00007	e8 00 00 00 00	 call	 __EH_prolog3

; 323  : 	TeamDataVec::iterator iter = m_TeamDataList.begin();

  0000c	8b 41 04	 mov	 eax, DWORD PTR [ecx+4]

; 324  : 	for(;iter != m_TeamDataList.end();++iter)

  0000f	8b 49 08	 mov	 ecx, DWORD PTR [ecx+8]
  00012	eb 0b		 jmp	 SHORT $LN43@GetTeamDat
$LL19@GetTeamDat:

; 325  : 	{
; 326  : 		TeamData &rkTeamData = *iter;
; 327  : 		if( rkTeamData.m_dwTeamIndex == dwTeamIndex )

  00014	8b 50 04	 mov	 edx, DWORD PTR [eax+4]
  00017	3b 55 08	 cmp	 edx, DWORD PTR _dwTeamIndex$[ebp]
  0001a	74 34		 je	 SHORT $LN6@GetTeamDat

; 324  : 	for(;iter != m_TeamDataList.end();++iter)

  0001c	83 c0 2c	 add	 eax, 44			; 0000002cH
$LN43@GetTeamDat:
  0001f	3b c1		 cmp	 eax, ecx
  00021	75 f1		 jne	 SHORT $LL19@GetTeamDat

; 328  : 			return rkTeamData;
; 329  : 	}
; 330  : 
; 331  : 	static TeamData stNull;

  00023	f6 05 00 00 00
	00 01		 test	 BYTE PTR ?$S1@?5??GetTeamData@ioUserTournament@@QAEAAUTeamData@@K@Z@4IA, 1
  0002a	be 00 00 00 00	 mov	 esi, OFFSET ?stNull@?5??GetTeamData@ioUserTournament@@QAEAAUTeamData@@K@Z@4U3@A
  0002f	75 1d		 jne	 SHORT $LN1@GetTeamDat
  00031	83 0d 00 00 00
	00 01		 or	 DWORD PTR ?$S1@?5??GetTeamData@ioUserTournament@@QAEAAUTeamData@@K@Z@4IA, 1
  00038	83 65 fc 00	 and	 DWORD PTR __$EHRec$[ebp+8], 0
  0003c	8b ce		 mov	 ecx, esi
  0003e	e8 00 00 00 00	 call	 ??0TeamData@@QAE@XZ	; TeamData::TeamData
  00043	68 00 00 00 00	 push	 OFFSET ??__FstNull@?5??GetTeamData@ioUserTournament@@QAEAAUTeamData@@K@Z@YAXXZ ; `ioUserTournament::GetTeamData'::`6'::`dynamic atexit destructor for 'stNull''
  00048	e8 00 00 00 00	 call	 _atexit
  0004d	59		 pop	 ecx
$LN1@GetTeamDat:

; 332  : 	return stNull;

  0004e	8b c6		 mov	 eax, esi
$LN6@GetTeamDat:

; 333  : }

  00050	e8 00 00 00 00	 call	 __EH_epilog3
  00055	c2 04 00	 ret	 4
_TEXT	ENDS
;	COMDAT text$x
text$x	SEGMENT
__unwindfunclet$?GetTeamData@ioUserTournament@@QAEAAUTeamData@@K@Z$0:
  00000	a1 00 00 00 00	 mov	 eax, DWORD PTR ?$S1@?5??GetTeamData@ioUserTournament@@QAEAAUTeamData@@K@Z@4IA
  00005	83 e0 fe	 and	 eax, -2			; fffffffeH
  00008	a3 00 00 00 00	 mov	 DWORD PTR ?$S1@?5??GetTeamData@ioUserTournament@@QAEAAUTeamData@@K@Z@4IA, eax
  0000d	c3		 ret	 0
__ehhandler$?GetTeamData@ioUserTournament@@QAEAAUTeamData@@K@Z:
  0000e	8b 54 24 08	 mov	 edx, DWORD PTR [esp+8]
  00012	8d 42 0c	 lea	 eax, DWORD PTR [edx+12]
  00015	8b 4a f0	 mov	 ecx, DWORD PTR [edx-16]
  00018	33 c8		 xor	 ecx, eax
  0001a	e8 00 00 00 00	 call	 @__security_check_cookie@4
  0001f	b8 00 00 00 00	 mov	 eax, OFFSET __ehfuncinfo$?GetTeamData@ioUserTournament@@QAEAAUTeamData@@K@Z
  00024	e9 00 00 00 00	 jmp	 ___CxxFrameHandler3
text$x	ENDS
?GetTeamData@ioUserTournament@@QAEAAUTeamData@@K@Z ENDP	; ioUserTournament::GetTeamData
PUBLIC	??$construct@AAUTeamData@@@?$allocator@UTeamData@@@std@@QAEXPAUTeamData@@AAU2@@Z ; std::allocator<TeamData>::construct<TeamData &>
;	COMDAT xdata$x
; File c:\program files (x86)\microsoft visual studio 10.0\vc\include\utility
xdata$x	SEGMENT
__unwindtable$??$construct@AAUTeamData@@@?$allocator@UTeamData@@@std@@QAEXPAUTeamData@@AAU2@@Z DD 0ffffffffH
	DD	FLAT:__unwindfunclet$??$construct@AAUTeamData@@@?$allocator@UTeamData@@@std@@QAEXPAUTeamData@@AAU2@@Z$0
__ehfuncinfo$??$construct@AAUTeamData@@@?$allocator@UTeamData@@@std@@QAEXPAUTeamData@@AAU2@@Z DD 019930522H
	DD	01H
	DD	FLAT:__unwindtable$??$construct@AAUTeamData@@@?$allocator@UTeamData@@@std@@QAEXPAUTeamData@@AAU2@@Z
	DD	2 DUP(00H)
	DD	2 DUP(00H)
	DD	00H
	DD	01H
; Function compile flags: /Ogsp
; File c:\program files (x86)\microsoft visual studio 10.0\vc\include\xmemory
xdata$x	ENDS
;	COMDAT ??$construct@AAUTeamData@@@?$allocator@UTeamData@@@std@@QAEXPAUTeamData@@AAU2@@Z
_TEXT	SEGMENT
$T515369 = -16						; size = 4
__$EHRec$ = -12						; size = 12
__Ptr$ = 8						; size = 4
__Val$ = 12						; size = 4
??$construct@AAUTeamData@@@?$allocator@UTeamData@@@std@@QAEXPAUTeamData@@AAU2@@Z PROC ; std::allocator<TeamData>::construct<TeamData &>, COMDAT
; _this$ = ecx

; 206  : 		void construct(pointer _Ptr, _Other&& _Val)

  00000	6a 04		 push	 4
  00002	b8 00 00 00 00	 mov	 eax, __ehhandler$??$construct@AAUTeamData@@@?$allocator@UTeamData@@@std@@QAEXPAUTeamData@@AAU2@@Z
  00007	e8 00 00 00 00	 call	 __EH_prolog3

; 207  : 		{	// construct object at _Ptr with value _Val
; 208  : 		::new ((void _FARQ *)_Ptr) _Ty(_STD forward<_Other>(_Val));

  0000c	8b 4d 08	 mov	 ecx, DWORD PTR __Ptr$[ebp]
  0000f	89 4d f0	 mov	 DWORD PTR $T515369[ebp], ecx
  00012	83 65 fc 00	 and	 DWORD PTR __$EHRec$[ebp+8], 0
  00016	85 c9		 test	 ecx, ecx
  00018	74 08		 je	 SHORT $LN3@construct@7
  0001a	ff 75 0c	 push	 DWORD PTR __Val$[ebp]
  0001d	e8 00 00 00 00	 call	 ??0TeamData@@QAE@ABU0@@Z
$LN3@construct@7:

; 209  : 		}

  00022	e8 00 00 00 00	 call	 __EH_epilog3
  00027	c2 08 00	 ret	 8
_TEXT	ENDS
;	COMDAT text$x
text$x	SEGMENT
__unwindfunclet$??$construct@AAUTeamData@@@?$allocator@UTeamData@@@std@@QAEXPAUTeamData@@AAU2@@Z$0:
  00000	ff 75 08	 push	 DWORD PTR __Ptr$[ebp]
  00003	ff 75 f0	 push	 DWORD PTR $T515369[ebp]
  00006	e8 00 00 00 00	 call	 ??3@YAXPAX0@Z		; operator delete
  0000b	59		 pop	 ecx
  0000c	59		 pop	 ecx
  0000d	c3		 ret	 0
__ehhandler$??$construct@AAUTeamData@@@?$allocator@UTeamData@@@std@@QAEXPAUTeamData@@AAU2@@Z:
  0000e	8b 54 24 08	 mov	 edx, DWORD PTR [esp+8]
  00012	8d 42 0c	 lea	 eax, DWORD PTR [edx+12]
  00015	8b 4a ec	 mov	 ecx, DWORD PTR [edx-20]
  00018	33 c8		 xor	 ecx, eax
  0001a	e8 00 00 00 00	 call	 @__security_check_cookie@4
  0001f	b8 00 00 00 00	 mov	 eax, OFFSET __ehfuncinfo$??$construct@AAUTeamData@@@?$allocator@UTeamData@@@std@@QAEXPAUTeamData@@AAU2@@Z
  00024	e9 00 00 00 00	 jmp	 ___CxxFrameHandler3
text$x	ENDS
??$construct@AAUTeamData@@@?$allocator@UTeamData@@@std@@QAEXPAUTeamData@@AAU2@@Z ENDP ; std::allocator<TeamData>::construct<TeamData &>
PUBLIC	??$_Move@PAUTeamData@@PAU1@@std@@YAPAUTeamData@@PAU1@00U_Nonscalar_ptr_iterator_tag@0@@Z ; std::_Move<TeamData *,TeamData *>
; Function compile flags: /Ogsp
; File c:\program files (x86)\microsoft visual studio 10.0\vc\include\xutility
;	COMDAT ??$_Move@PAUTeamData@@PAU1@@std@@YAPAUTeamData@@PAU1@00U_Nonscalar_ptr_iterator_tag@0@@Z
_TEXT	SEGMENT
__First$ = 8						; size = 4
__Last$ = 12						; size = 4
__Dest$ = 16						; size = 4
___formal$ = 20						; size = 1
??$_Move@PAUTeamData@@PAU1@@std@@YAPAUTeamData@@PAU1@00U_Nonscalar_ptr_iterator_tag@0@@Z PROC ; std::_Move<TeamData *,TeamData *>, COMDAT

; 2512 : 	{	// move [_First, _Last) to [_Dest, ...), arbitrary iterators

  00000	55		 push	 ebp
  00001	8b ec		 mov	 ebp, esp
  00003	56		 push	 esi

; 2513 : 	for (; _First != _Last; ++_Dest, ++_First)

  00004	8b 75 08	 mov	 esi, DWORD PTR __First$[ebp]
  00007	eb 10		 jmp	 SHORT $LN11@Move@3
$LL3@Move@3:

; 2514 : 		*_Dest = _STD move(*_First);

  00009	8b 4d 10	 mov	 ecx, DWORD PTR __Dest$[ebp]
  0000c	56		 push	 esi
  0000d	e8 00 00 00 00	 call	 ??4TeamData@@QAEAAU0@ABU0@@Z
  00012	83 45 10 2c	 add	 DWORD PTR __Dest$[ebp], 44 ; 0000002cH
  00016	83 c6 2c	 add	 esi, 44			; 0000002cH
$LN11@Move@3:

; 2513 : 	for (; _First != _Last; ++_Dest, ++_First)

  00019	3b 75 0c	 cmp	 esi, DWORD PTR __Last$[ebp]
  0001c	75 eb		 jne	 SHORT $LL3@Move@3

; 2515 : 	return (_Dest);

  0001e	8b 45 10	 mov	 eax, DWORD PTR __Dest$[ebp]
  00021	5e		 pop	 esi

; 2516 : 	}

  00022	5d		 pop	 ebp
  00023	c3		 ret	 0
??$_Move@PAUTeamData@@PAU1@@std@@YAPAUTeamData@@PAU1@00U_Nonscalar_ptr_iterator_tag@0@@Z ENDP ; std::_Move<TeamData *,TeamData *>
_TEXT	ENDS
PUBLIC	??$_Construct@UTeamData@@ABU1@@std@@YAXPAUTeamData@@ABU1@@Z ; std::_Construct<TeamData,TeamData const &>
;	COMDAT xdata$x
; File c:\program files (x86)\microsoft visual studio 10.0\vc\include\utility
xdata$x	SEGMENT
__unwindtable$??$_Construct@UTeamData@@ABU1@@std@@YAXPAUTeamData@@ABU1@@Z DD 0ffffffffH
	DD	FLAT:__unwindfunclet$??$_Construct@UTeamData@@ABU1@@std@@YAXPAUTeamData@@ABU1@@Z$0
__ehfuncinfo$??$_Construct@UTeamData@@ABU1@@std@@YAXPAUTeamData@@ABU1@@Z DD 019930522H
	DD	01H
	DD	FLAT:__unwindtable$??$_Construct@UTeamData@@ABU1@@std@@YAXPAUTeamData@@ABU1@@Z
	DD	2 DUP(00H)
	DD	2 DUP(00H)
	DD	00H
	DD	01H
; Function compile flags: /Ogsp
; File c:\program files (x86)\microsoft visual studio 10.0\vc\include\xmemory
xdata$x	ENDS
;	COMDAT ??$_Construct@UTeamData@@ABU1@@std@@YAXPAUTeamData@@ABU1@@Z
_TEXT	SEGMENT
$T515397 = -16						; size = 4
__$EHRec$ = -12						; size = 12
__Vptr$ = 8						; size = 4
__Ptr$ = 8						; size = 4
__Val$ = 12						; size = 4
??$_Construct@UTeamData@@ABU1@@std@@YAXPAUTeamData@@ABU1@@Z PROC ; std::_Construct<TeamData,TeamData const &>, COMDAT

; 46   : 	{	// construct object at _Ptr with value _Val

  00000	6a 04		 push	 4
  00002	b8 00 00 00 00	 mov	 eax, __ehhandler$??$_Construct@UTeamData@@ABU1@@std@@YAXPAUTeamData@@ABU1@@Z
  00007	e8 00 00 00 00	 call	 __EH_prolog3

; 47   : 	void _FARQ *_Vptr = _Ptr;

  0000c	8b 4d 08	 mov	 ecx, DWORD PTR __Ptr$[ebp]
  0000f	89 4d 08	 mov	 DWORD PTR __Vptr$[ebp], ecx

; 48   : 	::new (_Vptr) _Ty1(_STD forward<_Ty2>(_Val));

  00012	89 4d f0	 mov	 DWORD PTR $T515397[ebp], ecx
  00015	83 65 fc 00	 and	 DWORD PTR __$EHRec$[ebp+8], 0
  00019	85 c9		 test	 ecx, ecx
  0001b	74 08		 je	 SHORT $LN3@Construct@3
  0001d	ff 75 0c	 push	 DWORD PTR __Val$[ebp]
  00020	e8 00 00 00 00	 call	 ??0TeamData@@QAE@ABU0@@Z
$LN3@Construct@3:

; 49   : 	}

  00025	e8 00 00 00 00	 call	 __EH_epilog3
  0002a	c3		 ret	 0
_TEXT	ENDS
;	COMDAT text$x
text$x	SEGMENT
__unwindfunclet$??$_Construct@UTeamData@@ABU1@@std@@YAXPAUTeamData@@ABU1@@Z$0:
  00000	ff 75 08	 push	 DWORD PTR __Vptr$[ebp]
  00003	ff 75 f0	 push	 DWORD PTR $T515397[ebp]
  00006	e8 00 00 00 00	 call	 ??3@YAXPAX0@Z		; operator delete
  0000b	59		 pop	 ecx
  0000c	59		 pop	 ecx
  0000d	c3		 ret	 0
__ehhandler$??$_Construct@UTeamData@@ABU1@@std@@YAXPAUTeamData@@ABU1@@Z:
  0000e	8b 54 24 08	 mov	 edx, DWORD PTR [esp+8]
  00012	8d 42 0c	 lea	 eax, DWORD PTR [edx+12]
  00015	8b 4a ec	 mov	 ecx, DWORD PTR [edx-20]
  00018	33 c8		 xor	 ecx, eax
  0001a	e8 00 00 00 00	 call	 @__security_check_cookie@4
  0001f	b8 00 00 00 00	 mov	 eax, OFFSET __ehfuncinfo$??$_Construct@UTeamData@@ABU1@@std@@YAXPAUTeamData@@ABU1@@Z
  00024	e9 00 00 00 00	 jmp	 ___CxxFrameHandler3
text$x	ENDS
??$_Construct@UTeamData@@ABU1@@std@@YAXPAUTeamData@@ABU1@@Z ENDP ; std::_Construct<TeamData,TeamData const &>
PUBLIC	??$_Cons_val@V?$allocator@UTeamData@@@std@@UTeamData@@U3@@std@@YAXAAV?$allocator@UTeamData@@@0@PAUTeamData@@$$QAU2@@Z ; std::_Cons_val<std::allocator<TeamData>,TeamData,TeamData>
;	COMDAT xdata$x
; File c:\program files (x86)\microsoft visual studio 10.0\vc\include\utility
xdata$x	SEGMENT
__unwindtable$??$_Cons_val@V?$allocator@UTeamData@@@std@@UTeamData@@U3@@std@@YAXAAV?$allocator@UTeamData@@@0@PAUTeamData@@$$QAU2@@Z DD 0ffffffffH
	DD	FLAT:__unwindfunclet$??$_Cons_val@V?$allocator@UTeamData@@@std@@UTeamData@@U3@@std@@YAXAAV?$allocator@UTeamData@@@0@PAUTeamData@@$$QAU2@@Z$0
__ehfuncinfo$??$_Cons_val@V?$allocator@UTeamData@@@std@@UTeamData@@U3@@std@@YAXAAV?$allocator@UTeamData@@@0@PAUTeamData@@$$QAU2@@Z DD 019930522H
	DD	01H
	DD	FLAT:__unwindtable$??$_Cons_val@V?$allocator@UTeamData@@@std@@UTeamData@@U3@@std@@YAXAAV?$allocator@UTeamData@@@0@PAUTeamData@@$$QAU2@@Z
	DD	2 DUP(00H)
	DD	2 DUP(00H)
	DD	00H
	DD	01H
; Function compile flags: /Ogsp
; File c:\program files (x86)\microsoft visual studio 10.0\vc\include\xmemory
xdata$x	ENDS
;	COMDAT ??$_Cons_val@V?$allocator@UTeamData@@@std@@UTeamData@@U3@@std@@YAXAAV?$allocator@UTeamData@@@0@PAUTeamData@@$$QAU2@@Z
_TEXT	SEGMENT
$T515432 = -16						; size = 4
__$EHRec$ = -12						; size = 12
__Alval$ = 8						; size = 4
__Pdest$ = 12						; size = 4
__Src$ = 16						; size = 4
??$_Cons_val@V?$allocator@UTeamData@@@std@@UTeamData@@U3@@std@@YAXAAV?$allocator@UTeamData@@@0@PAUTeamData@@$$QAU2@@Z PROC ; std::_Cons_val<std::allocator<TeamData>,TeamData,TeamData>, COMDAT

; 279  : 	{	// construct using allocator

  00000	6a 04		 push	 4
  00002	b8 00 00 00 00	 mov	 eax, __ehhandler$??$_Cons_val@V?$allocator@UTeamData@@@std@@UTeamData@@U3@@std@@YAXAAV?$allocator@UTeamData@@@0@PAUTeamData@@$$QAU2@@Z
  00007	e8 00 00 00 00	 call	 __EH_prolog3

; 280  : 	_Alval.construct(_Pdest, _STD forward<_Ty2>(_Src));

  0000c	8b 4d 0c	 mov	 ecx, DWORD PTR __Pdest$[ebp]
  0000f	89 4d f0	 mov	 DWORD PTR $T515432[ebp], ecx
  00012	83 65 fc 00	 and	 DWORD PTR __$EHRec$[ebp+8], 0
  00016	85 c9		 test	 ecx, ecx
  00018	74 08		 je	 SHORT $LN7@Cons_val@6
  0001a	ff 75 10	 push	 DWORD PTR __Src$[ebp]
  0001d	e8 00 00 00 00	 call	 ??0TeamData@@QAE@ABU0@@Z
$LN7@Cons_val@6:

; 281  : 	}

  00022	e8 00 00 00 00	 call	 __EH_epilog3
  00027	c3		 ret	 0
_TEXT	ENDS
;	COMDAT text$x
text$x	SEGMENT
__unwindfunclet$??$_Cons_val@V?$allocator@UTeamData@@@std@@UTeamData@@U3@@std@@YAXAAV?$allocator@UTeamData@@@0@PAUTeamData@@$$QAU2@@Z$0:
  00000	ff 75 0c	 push	 DWORD PTR __Pdest$[ebp]
  00003	ff 75 f0	 push	 DWORD PTR $T515432[ebp]
  00006	e8 00 00 00 00	 call	 ??3@YAXPAX0@Z		; operator delete
  0000b	59		 pop	 ecx
  0000c	59		 pop	 ecx
  0000d	c3		 ret	 0
__ehhandler$??$_Cons_val@V?$allocator@UTeamData@@@std@@UTeamData@@U3@@std@@YAXAAV?$allocator@UTeamData@@@0@PAUTeamData@@$$QAU2@@Z:
  0000e	8b 54 24 08	 mov	 edx, DWORD PTR [esp+8]
  00012	8d 42 0c	 lea	 eax, DWORD PTR [edx+12]
  00015	8b 4a ec	 mov	 ecx, DWORD PTR [edx-20]
  00018	33 c8		 xor	 ecx, eax
  0001a	e8 00 00 00 00	 call	 @__security_check_cookie@4
  0001f	b8 00 00 00 00	 mov	 eax, OFFSET __ehfuncinfo$??$_Cons_val@V?$allocator@UTeamData@@@std@@UTeamData@@U3@@std@@YAXAAV?$allocator@UTeamData@@@0@PAUTeamData@@$$QAU2@@Z
  00024	e9 00 00 00 00	 jmp	 ___CxxFrameHandler3
text$x	ENDS
??$_Cons_val@V?$allocator@UTeamData@@@std@@UTeamData@@U3@@std@@YAXAAV?$allocator@UTeamData@@@0@PAUTeamData@@$$QAU2@@Z ENDP ; std::_Cons_val<std::allocator<TeamData>,TeamData,TeamData>
PUBLIC	??$_Destroy@UTeamData@@@std@@YAXPAUTeamData@@@Z	; std::_Destroy<TeamData>
; Function compile flags: /Ogsp
;	COMDAT ??$_Destroy@UTeamData@@@std@@YAXPAUTeamData@@@Z
_TEXT	SEGMENT
__Ptr$ = 8						; size = 4
??$_Destroy@UTeamData@@@std@@YAXPAUTeamData@@@Z PROC	; std::_Destroy<TeamData>, COMDAT

; 62   : 	{	// destroy object at _Ptr

  00000	55		 push	 ebp
  00001	8b ec		 mov	 ebp, esp

; 63   : 	_Ptr->~_Ty();

  00003	8b 4d 08	 mov	 ecx, DWORD PTR __Ptr$[ebp]

; 64   : 	}

  00006	5d		 pop	 ebp

; 63   : 	_Ptr->~_Ty();

  00007	e9 00 00 00 00	 jmp	 ??1TeamData@@QAE@XZ
??$_Destroy@UTeamData@@@std@@YAXPAUTeamData@@@Z ENDP	; std::_Destroy<TeamData>
_TEXT	ENDS
PUBLIC	?ApplyUserData@ioUserTournament@@QAEXKAAVSP2Packet@@@Z ; ioUserTournament::ApplyUserData
EXTRN	?ClearTeamUserData@ioTournamentTeamManager@@QAEXK@Z:PROC ; ioTournamentTeamManager::ClearTeamUserData
;	COMDAT xdata$x
; File c:\program files (x86)\microsoft visual studio 10.0\vc\include\vector
xdata$x	SEGMENT
__unwindtable$?ApplyUserData@ioUserTournament@@QAEXKAAVSP2Packet@@@Z DD 0ffffffffH
	DD	FLAT:__unwindfunclet$?ApplyUserData@ioUserTournament@@QAEXKAAVSP2Packet@@@Z$0
	DD	00H
	DD	FLAT:__unwindfunclet$?ApplyUserData@ioUserTournament@@QAEXKAAVSP2Packet@@@Z$1
__ehfuncinfo$?ApplyUserData@ioUserTournament@@QAEXKAAVSP2Packet@@@Z DD 019930522H
	DD	02H
	DD	FLAT:__unwindtable$?ApplyUserData@ioUserTournament@@QAEXKAAVSP2Packet@@@Z
	DD	2 DUP(00H)
	DD	2 DUP(00H)
	DD	00H
	DD	01H
; Function compile flags: /Ogsp
; File d:\lost saga for developer\youtube\tutorial\source\src\lsclient\iousertournament.cpp
xdata$x	ENDS
;	COMDAT ?ApplyUserData@ioUserTournament@@QAEXKAAVSP2Packet@@@Z
_TEXT	SEGMENT
_kUserData$508050 = -84					; size = 24
_szNick$508042 = -60					; size = 16
_dwTableIndex$508043 = -44				; size = 4
_iLadderPoint$508046 = -40				; size = 4
_dwGuildIndex$508047 = -36				; size = 4
_iGradeLevel$508045 = -32				; size = 4
_this$ = -28						; size = 4
_iUserSize$ = -24					; size = 4
$T515519 = -20						; size = 4
_i$508038 = -20						; size = 4
_dwUserIndex$508044 = -16				; size = 4
__$EHRec$ = -12						; size = 12
_dwTeamIndex$ = 8					; size = 4
_rkPacket$ = 12						; size = 4
?ApplyUserData@ioUserTournament@@QAEXKAAVSP2Packet@@@Z PROC ; ioUserTournament::ApplyUserData, COMDAT
; _this$ = ecx

; 98   : {

  00000	6a 48		 push	 72			; 00000048H
  00002	b8 00 00 00 00	 mov	 eax, __ehhandler$?ApplyUserData@ioUserTournament@@QAEXKAAVSP2Packet@@@Z
  00007	e8 00 00 00 00	 call	 __EH_prolog3
  0000c	8b d9		 mov	 ebx, ecx
  0000e	89 5d e4	 mov	 DWORD PTR _this$[ebp], ebx

; 99   : 	TeamData &rkTeamData = GetTeamData( dwTeamIndex );

  00011	8b 7d 08	 mov	 edi, DWORD PTR _dwTeamIndex$[ebp]
  00014	57		 push	 edi
  00015	e8 00 00 00 00	 call	 ?GetTeamData@ioUserTournament@@QAEAAUTeamData@@K@Z ; ioUserTournament::GetTeamData
  0001a	8b f0		 mov	 esi, eax

; 100  : 
; 101  : 	if( rkTeamData.m_dwTeamIndex == dwTeamIndex )

  0001c	39 7e 04	 cmp	 DWORD PTR [esi+4], edi
  0001f	75 13		 jne	 SHORT $LN11@ApplyUserD

; 102  : 		rkTeamData.m_TeamUserList.clear();

  00021	8d 4e 1c	 lea	 ecx, DWORD PTR [esi+28]
  00024	8b 41 04	 mov	 eax, DWORD PTR [ecx+4]
  00027	8b 11		 mov	 edx, DWORD PTR [ecx]
  00029	50		 push	 eax
  0002a	52		 push	 edx
  0002b	8d 45 ec	 lea	 eax, DWORD PTR $T515519[ebp]
  0002e	50		 push	 eax
  0002f	e8 00 00 00 00	 call	 ?erase@?$vector@UTeamUserData@@V?$allocator@UTeamUserData@@@std@@@std@@QAE?AV?$_Vector_iterator@V?$_Vector_val@UTeamUserData@@V?$allocator@UTeamUserData@@@std@@@std@@@2@V?$_Vector_const_iterator@V?$_Vector_val@UTeamUserData@@V?$allocator@UTeamUserData@@@std@@@std@@@2@0@Z ; std::vector<TeamUserData,std::allocator<TeamUserData> >::erase
$LN11@ApplyUserD:

; 103  : 	
; 104  : 	g_TournamentTeamMgr.ClearTeamUserData( dwTeamIndex );

  00034	57		 push	 edi
  00035	e8 00 00 00 00	 call	 ?GetSingleton@ioTournamentTeamManager@@SAAAV1@XZ ; ioTournamentTeamManager::GetSingleton
  0003a	8b c8		 mov	 ecx, eax
  0003c	e8 00 00 00 00	 call	 ?ClearTeamUserData@ioTournamentTeamManager@@QAEXK@Z ; ioTournamentTeamManager::ClearTeamUserData

; 105  : 
; 106  : 	int iUserSize;
; 107  : 	rkPacket >> iUserSize;

  00041	8b 4d 0c	 mov	 ecx, DWORD PTR _rkPacket$[ebp]
  00044	8d 45 e8	 lea	 eax, DWORD PTR _iUserSize$[ebp]
  00047	50		 push	 eax
  00048	e8 00 00 00 00	 call	 ??5SP2Packet@@QAEAAV0@AAH@Z ; SP2Packet::operator>>

; 108  : 	for(int i = 0;i < iUserSize;i++)

  0004d	83 65 ec 00	 and	 DWORD PTR _i$508038[ebp], 0
  00051	83 7d e8 00	 cmp	 DWORD PTR _iUserSize$[ebp], 0
  00055	0f 8e 19 01 00
	00		 jle	 $LN3@ApplyUserD
  0005b	8b 3d 00 00 00
	00		 mov	 edi, DWORD PTR __imp_??0ioHashString@@QAE@XZ
  00061	8b 1d 00 00 00
	00		 mov	 ebx, DWORD PTR __imp_??1ioHashString@@QAE@XZ
$LL5@ApplyUserD:

; 109  : 	{
; 110  : 		ioHashString szNick;

  00067	8d 4d c4	 lea	 ecx, DWORD PTR _szNick$508042[ebp]
  0006a	ff d7		 call	 edi

; 111  : 		DWORD dwTableIndex, dwUserIndex;
; 112  : 		int iGradeLevel, iLadderPoint, dwGuildIndex;
; 113  : 
; 114  : 		rkPacket >> dwTableIndex >> dwUserIndex >> szNick >> iGradeLevel >> iLadderPoint >> dwGuildIndex;

  0006c	8b 4d 0c	 mov	 ecx, DWORD PTR _rkPacket$[ebp]
  0006f	83 65 fc 00	 and	 DWORD PTR __$EHRec$[ebp+8], 0
  00073	8d 45 dc	 lea	 eax, DWORD PTR _dwGuildIndex$508047[ebp]
  00076	50		 push	 eax
  00077	8d 45 d8	 lea	 eax, DWORD PTR _iLadderPoint$508046[ebp]
  0007a	50		 push	 eax
  0007b	8d 45 e0	 lea	 eax, DWORD PTR _iGradeLevel$508045[ebp]
  0007e	50		 push	 eax
  0007f	8d 45 c4	 lea	 eax, DWORD PTR _szNick$508042[ebp]
  00082	50		 push	 eax
  00083	8d 45 f0	 lea	 eax, DWORD PTR _dwUserIndex$508044[ebp]
  00086	50		 push	 eax
  00087	8d 45 d4	 lea	 eax, DWORD PTR _dwTableIndex$508043[ebp]
  0008a	50		 push	 eax
  0008b	e8 00 00 00 00	 call	 ??5SP2Packet@@QAEAAV0@AAK@Z ; SP2Packet::operator>>
  00090	8b c8		 mov	 ecx, eax
  00092	e8 00 00 00 00	 call	 ??5SP2Packet@@QAEAAV0@AAK@Z ; SP2Packet::operator>>
  00097	8b c8		 mov	 ecx, eax
  00099	e8 00 00 00 00	 call	 ??5SP2Packet@@QAEAAV0@AAVioHashString@@@Z ; SP2Packet::operator>>
  0009e	8b c8		 mov	 ecx, eax
  000a0	e8 00 00 00 00	 call	 ??5SP2Packet@@QAEAAV0@AAH@Z ; SP2Packet::operator>>
  000a5	8b c8		 mov	 ecx, eax
  000a7	e8 00 00 00 00	 call	 ??5SP2Packet@@QAEAAV0@AAH@Z ; SP2Packet::operator>>
  000ac	8b c8		 mov	 ecx, eax
  000ae	e8 00 00 00 00	 call	 ??5SP2Packet@@QAEAAV0@AAH@Z ; SP2Packet::operator>>

; 115  : 
; 116  : 		g_UserInfoMgr.SetGrade( szNick, iGradeLevel );

  000b3	ff 75 e0	 push	 DWORD PTR _iGradeLevel$508045[ebp]
  000b6	8d 45 c4	 lea	 eax, DWORD PTR _szNick$508042[ebp]
  000b9	50		 push	 eax
  000ba	e8 00 00 00 00	 call	 ?GetSingleton@ioUserInfoMgr@@SAAAV1@XZ ; ioUserInfoMgr::GetSingleton
  000bf	8b c8		 mov	 ecx, eax
  000c1	e8 00 00 00 00	 call	 ?SetGrade@ioUserInfoMgr@@QAEXABVioHashString@@H@Z ; ioUserInfoMgr::SetGrade

; 117  : 		g_UserInfoMgr.SetGuildIndex( szNick, dwGuildIndex );

  000c6	ff 75 dc	 push	 DWORD PTR _dwGuildIndex$508047[ebp]
  000c9	8d 45 c4	 lea	 eax, DWORD PTR _szNick$508042[ebp]
  000cc	50		 push	 eax
  000cd	e8 00 00 00 00	 call	 ?GetSingleton@ioUserInfoMgr@@SAAAV1@XZ ; ioUserInfoMgr::GetSingleton
  000d2	8b c8		 mov	 ecx, eax
  000d4	e8 00 00 00 00	 call	 ?SetGuildIndex@ioUserInfoMgr@@QAEXABVioHashString@@K@Z ; ioUserInfoMgr::SetGuildIndex

; 118  : 		g_UserInfoMgr.SetLadderPoint( szNick, iLadderPoint );

  000d9	ff 75 d8	 push	 DWORD PTR _iLadderPoint$508046[ebp]
  000dc	8d 45 c4	 lea	 eax, DWORD PTR _szNick$508042[ebp]
  000df	50		 push	 eax
  000e0	e8 00 00 00 00	 call	 ?GetSingleton@ioUserInfoMgr@@SAAAV1@XZ ; ioUserInfoMgr::GetSingleton
  000e5	8b c8		 mov	 ecx, eax
  000e7	e8 00 00 00 00	 call	 ?SetLadderPoint@ioUserInfoMgr@@QAEXABVioHashString@@H@Z ; ioUserInfoMgr::SetLadderPoint

; 119  : 		if( rkTeamData.m_dwTeamIndex == dwTeamIndex )                 //   

  000ec	8b 45 08	 mov	 eax, DWORD PTR _dwTeamIndex$[ebp]
  000ef	39 46 04	 cmp	 DWORD PTR [esi+4], eax
  000f2	75 4f		 jne	 SHORT $LN1@ApplyUserD

; 120  : 		{
; 121  : 			if( !IsAlreadyUser( dwTeamIndex, dwUserIndex ) )

  000f4	ff 75 f0	 push	 DWORD PTR _dwUserIndex$508044[ebp]
  000f7	8b 4d e4	 mov	 ecx, DWORD PTR _this$[ebp]
  000fa	50		 push	 eax
  000fb	e8 00 00 00 00	 call	 ?IsAlreadyUser@ioUserTournament@@QAE_NKK@Z ; ioUserTournament::IsAlreadyUser
  00100	84 c0		 test	 al, al
  00102	75 3f		 jne	 SHORT $LN1@ApplyUserD

; 122  : 			{
; 123  : 				TeamUserData kUserData;

  00104	8d 4d b4	 lea	 ecx, DWORD PTR _kUserData$508050[ebp+8]
  00107	ff d7		 call	 edi
  00109	83 65 b0 00	 and	 DWORD PTR _kUserData$508050[ebp+4], 0
  0010d	83 65 ac 00	 and	 DWORD PTR _kUserData$508050[ebp], 0

; 124  : 				kUserData.m_szNick       = szNick;

  00111	8d 45 c4	 lea	 eax, DWORD PTR _szNick$508042[ebp]
  00114	50		 push	 eax
  00115	8d 4d b4	 lea	 ecx, DWORD PTR _kUserData$508050[ebp+8]
  00118	c6 45 fc 01	 mov	 BYTE PTR __$EHRec$[ebp+8], 1
  0011c	ff 15 00 00 00
	00		 call	 DWORD PTR __imp_??4ioHashString@@QAEAAV0@ABV0@@Z

; 125  : 				kUserData.m_dwTableIndex = dwTableIndex;

  00122	8b 45 d4	 mov	 eax, DWORD PTR _dwTableIndex$508043[ebp]
  00125	89 45 ac	 mov	 DWORD PTR _kUserData$508050[ebp], eax

; 126  : 				kUserData.m_dwUserIndex  = dwUserIndex;

  00128	8b 45 f0	 mov	 eax, DWORD PTR _dwUserIndex$508044[ebp]
  0012b	89 45 b0	 mov	 DWORD PTR _kUserData$508050[ebp+4], eax

; 127  : 				rkTeamData.m_TeamUserList.push_back( kUserData );		

  0012e	8d 45 ac	 lea	 eax, DWORD PTR _kUserData$508050[ebp]
  00131	8d 4e 1c	 lea	 ecx, DWORD PTR [esi+28]
  00134	50		 push	 eax
  00135	e8 00 00 00 00	 call	 ?push_back@?$vector@UTeamUserData@@V?$allocator@UTeamUserData@@@std@@@std@@QAEXABUTeamUserData@@@Z ; std::vector<TeamUserData,std::allocator<TeamUserData> >::push_back

; 128  : 			}

  0013a	8d 4d b4	 lea	 ecx, DWORD PTR _kUserData$508050[ebp+8]
  0013d	c6 45 fc 00	 mov	 BYTE PTR __$EHRec$[ebp+8], 0
  00141	ff d3		 call	 ebx
$LN1@ApplyUserD:

; 129  : 		}
; 130  : 		g_TournamentTeamMgr.AddTeamUserData( dwTeamIndex, dwUserIndex, szNick );

  00143	8d 45 c4	 lea	 eax, DWORD PTR _szNick$508042[ebp]
  00146	50		 push	 eax
  00147	ff 75 f0	 push	 DWORD PTR _dwUserIndex$508044[ebp]
  0014a	ff 75 08	 push	 DWORD PTR _dwTeamIndex$[ebp]
  0014d	e8 00 00 00 00	 call	 ?GetSingleton@ioTournamentTeamManager@@SAAAV1@XZ ; ioTournamentTeamManager::GetSingleton
  00152	8b c8		 mov	 ecx, eax
  00154	e8 00 00 00 00	 call	 ?AddTeamUserData@ioTournamentTeamManager@@QAEPAVTeamGlobalData@@KKABVioHashString@@@Z ; ioTournamentTeamManager::AddTeamUserData

; 131  : 	}

  00159	83 4d fc ff	 or	 DWORD PTR __$EHRec$[ebp+8], -1
  0015d	8d 4d c4	 lea	 ecx, DWORD PTR _szNick$508042[ebp]
  00160	ff d3		 call	 ebx
  00162	ff 45 ec	 inc	 DWORD PTR _i$508038[ebp]
  00165	8b 45 ec	 mov	 eax, DWORD PTR _i$508038[ebp]
  00168	3b 45 e8	 cmp	 eax, DWORD PTR _iUserSize$[ebp]
  0016b	0f 8c f6 fe ff
	ff		 jl	 $LL5@ApplyUserD

; 108  : 	for(int i = 0;i < iUserSize;i++)

  00171	8b 5d e4	 mov	 ebx, DWORD PTR _this$[ebp]
$LN3@ApplyUserD:

; 132  : 	m_bUpdateMainUI = true;

  00174	66 c7 43 24 01
	01		 mov	 WORD PTR [ebx+36], 257	; 00000101H

; 133  : 	m_bUpdateSubUI  = true;
; 134  : }

  0017a	e8 00 00 00 00	 call	 __EH_epilog3
  0017f	c2 08 00	 ret	 8
_TEXT	ENDS
;	COMDAT text$x
text$x	SEGMENT
__unwindfunclet$?ApplyUserData@ioUserTournament@@QAEXKAAVSP2Packet@@@Z$0:
  00000	8d 4d c4	 lea	 ecx, DWORD PTR _szNick$508042[ebp]
  00003	ff 25 00 00 00
	00		 jmp	 DWORD PTR __imp_??1ioHashString@@QAE@XZ
__unwindfunclet$?ApplyUserData@ioUserTournament@@QAEXKAAVSP2Packet@@@Z$1:
  00009	8d 4d ac	 lea	 ecx, DWORD PTR _kUserData$508050[ebp]
  0000c	e9 00 00 00 00	 jmp	 ??1TeamUserData@@QAE@XZ
__ehhandler$?ApplyUserData@ioUserTournament@@QAEXKAAVSP2Packet@@@Z:
  00011	8b 54 24 08	 mov	 edx, DWORD PTR [esp+8]
  00015	8d 42 0c	 lea	 eax, DWORD PTR [edx+12]
  00018	8b 4a a8	 mov	 ecx, DWORD PTR [edx-88]
  0001b	33 c8		 xor	 ecx, eax
  0001d	e8 00 00 00 00	 call	 @__security_check_cookie@4
  00022	b8 00 00 00 00	 mov	 eax, OFFSET __ehfuncinfo$?ApplyUserData@ioUserTournament@@QAEXKAAVSP2Packet@@@Z
  00027	e9 00 00 00 00	 jmp	 ___CxxFrameHandler3
text$x	ENDS
?ApplyUserData@ioUserTournament@@QAEXKAAVSP2Packet@@@Z ENDP ; ioUserTournament::ApplyUserData
PUBLIC	??$_Cons_val@V?$allocator@UTeamData@@@std@@UTeamData@@AAU3@@std@@YAXAAV?$allocator@UTeamData@@@0@PAUTeamData@@AAU2@@Z ; std::_Cons_val<std::allocator<TeamData>,TeamData,TeamData &>
;	COMDAT xdata$x
; File c:\program files (x86)\microsoft visual studio 10.0\vc\include\utility
xdata$x	SEGMENT
__unwindtable$??$_Cons_val@V?$allocator@UTeamData@@@std@@UTeamData@@AAU3@@std@@YAXAAV?$allocator@UTeamData@@@0@PAUTeamData@@AAU2@@Z DD 0ffffffffH
	DD	FLAT:__unwindfunclet$??$_Cons_val@V?$allocator@UTeamData@@@std@@UTeamData@@AAU3@@std@@YAXAAV?$allocator@UTeamData@@@0@PAUTeamData@@AAU2@@Z$0
__ehfuncinfo$??$_Cons_val@V?$allocator@UTeamData@@@std@@UTeamData@@AAU3@@std@@YAXAAV?$allocator@UTeamData@@@0@PAUTeamData@@AAU2@@Z DD 019930522H
	DD	01H
	DD	FLAT:__unwindtable$??$_Cons_val@V?$allocator@UTeamData@@@std@@UTeamData@@AAU3@@std@@YAXAAV?$allocator@UTeamData@@@0@PAUTeamData@@AAU2@@Z
	DD	2 DUP(00H)
	DD	2 DUP(00H)
	DD	00H
	DD	01H
; Function compile flags: /Ogsp
; File c:\program files (x86)\microsoft visual studio 10.0\vc\include\xmemory
xdata$x	ENDS
;	COMDAT ??$_Cons_val@V?$allocator@UTeamData@@@std@@UTeamData@@AAU3@@std@@YAXAAV?$allocator@UTeamData@@@0@PAUTeamData@@AAU2@@Z
_TEXT	SEGMENT
$T515575 = -16						; size = 4
__$EHRec$ = -12						; size = 12
__Alval$ = 8						; size = 4
__Pdest$ = 12						; size = 4
__Src$ = 16						; size = 4
??$_Cons_val@V?$allocator@UTeamData@@@std@@UTeamData@@AAU3@@std@@YAXAAV?$allocator@UTeamData@@@0@PAUTeamData@@AAU2@@Z PROC ; std::_Cons_val<std::allocator<TeamData>,TeamData,TeamData &>, COMDAT

; 279  : 	{	// construct using allocator

  00000	6a 04		 push	 4
  00002	b8 00 00 00 00	 mov	 eax, __ehhandler$??$_Cons_val@V?$allocator@UTeamData@@@std@@UTeamData@@AAU3@@std@@YAXAAV?$allocator@UTeamData@@@0@PAUTeamData@@AAU2@@Z
  00007	e8 00 00 00 00	 call	 __EH_prolog3

; 280  : 	_Alval.construct(_Pdest, _STD forward<_Ty2>(_Src));

  0000c	8b 4d 0c	 mov	 ecx, DWORD PTR __Pdest$[ebp]
  0000f	89 4d f0	 mov	 DWORD PTR $T515575[ebp], ecx
  00012	83 65 fc 00	 and	 DWORD PTR __$EHRec$[ebp+8], 0
  00016	85 c9		 test	 ecx, ecx
  00018	74 08		 je	 SHORT $LN7@Cons_val@7
  0001a	ff 75 10	 push	 DWORD PTR __Src$[ebp]
  0001d	e8 00 00 00 00	 call	 ??0TeamData@@QAE@ABU0@@Z
$LN7@Cons_val@7:

; 281  : 	}

  00022	e8 00 00 00 00	 call	 __EH_epilog3
  00027	c3		 ret	 0
_TEXT	ENDS
;	COMDAT text$x
text$x	SEGMENT
__unwindfunclet$??$_Cons_val@V?$allocator@UTeamData@@@std@@UTeamData@@AAU3@@std@@YAXAAV?$allocator@UTeamData@@@0@PAUTeamData@@AAU2@@Z$0:
  00000	ff 75 0c	 push	 DWORD PTR __Pdest$[ebp]
  00003	ff 75 f0	 push	 DWORD PTR $T515575[ebp]
  00006	e8 00 00 00 00	 call	 ??3@YAXPAX0@Z		; operator delete
  0000b	59		 pop	 ecx
  0000c	59		 pop	 ecx
  0000d	c3		 ret	 0
__ehhandler$??$_Cons_val@V?$allocator@UTeamData@@@std@@UTeamData@@AAU3@@std@@YAXAAV?$allocator@UTeamData@@@0@PAUTeamData@@AAU2@@Z:
  0000e	8b 54 24 08	 mov	 edx, DWORD PTR [esp+8]
  00012	8d 42 0c	 lea	 eax, DWORD PTR [edx+12]
  00015	8b 4a ec	 mov	 ecx, DWORD PTR [edx-20]
  00018	33 c8		 xor	 ecx, eax
  0001a	e8 00 00 00 00	 call	 @__security_check_cookie@4
  0001f	b8 00 00 00 00	 mov	 eax, OFFSET __ehfuncinfo$??$_Cons_val@V?$allocator@UTeamData@@@std@@UTeamData@@AAU3@@std@@YAXAAV?$allocator@UTeamData@@@0@PAUTeamData@@AAU2@@Z
  00024	e9 00 00 00 00	 jmp	 ___CxxFrameHandler3
text$x	ENDS
??$_Cons_val@V?$allocator@UTeamData@@@std@@UTeamData@@AAU3@@std@@YAXAAV?$allocator@UTeamData@@@0@PAUTeamData@@AAU2@@Z ENDP ; std::_Cons_val<std::allocator<TeamData>,TeamData,TeamData &>
PUBLIC	??$_Move@PAUTeamData@@PAU1@@std@@YAPAUTeamData@@PAU1@00@Z ; std::_Move<TeamData *,TeamData *>
; Function compile flags: /Ogsp
; File c:\program files (x86)\microsoft visual studio 10.0\vc\include\xutility
;	COMDAT ??$_Move@PAUTeamData@@PAU1@@std@@YAPAUTeamData@@PAU1@00@Z
_TEXT	SEGMENT
__Cat$515595 = -4					; size = 1
__First$ = 8						; size = 4
__Last$ = 12						; size = 4
__Dest$ = 16						; size = 4
??$_Move@PAUTeamData@@PAU1@@std@@YAPAUTeamData@@PAU1@00@Z PROC ; std::_Move<TeamData *,TeamData *>, COMDAT

; 2533 : 	{	// move [_First, _Last) to [_Dest, ...), unchecked

  00000	55		 push	 ebp
  00001	8b ec		 mov	 ebp, esp
  00003	51		 push	 ecx

; 2534 : 	return (_Move(_First, _Last,
; 2535 : 		_Dest, _Ptr_cat(_First, _Dest)));

  00004	ff 75 fc	 push	 DWORD PTR __Cat$515595[ebp]
  00007	ff 75 10	 push	 DWORD PTR __Dest$[ebp]
  0000a	ff 75 0c	 push	 DWORD PTR __Last$[ebp]
  0000d	ff 75 08	 push	 DWORD PTR __First$[ebp]
  00010	e8 00 00 00 00	 call	 ??$_Move@PAUTeamData@@PAU1@@std@@YAPAUTeamData@@PAU1@00U_Nonscalar_ptr_iterator_tag@0@@Z ; std::_Move<TeamData *,TeamData *>
  00015	83 c4 10	 add	 esp, 16			; 00000010H

; 2536 : 	}

  00018	c9		 leave
  00019	c3		 ret	 0
??$_Move@PAUTeamData@@PAU1@@std@@YAPAUTeamData@@PAU1@00@Z ENDP ; std::_Move<TeamData *,TeamData *>
_TEXT	ENDS
PUBLIC	?construct@?$allocator@UTeamData@@@std@@QAEXPAUTeamData@@ABU3@@Z ; std::allocator<TeamData>::construct
; Function compile flags: /Ogsp
; File c:\program files (x86)\microsoft visual studio 10.0\vc\include\xmemory
;	COMDAT ?construct@?$allocator@UTeamData@@@std@@QAEXPAUTeamData@@ABU3@@Z
_TEXT	SEGMENT
__Ptr$ = 8						; size = 4
__Val$ = 12						; size = 4
?construct@?$allocator@UTeamData@@@std@@QAEXPAUTeamData@@ABU3@@Z PROC ; std::allocator<TeamData>::construct, COMDAT
; _this$ = ecx

; 196  : 		{	// construct object at _Ptr with value _Val

  00000	55		 push	 ebp
  00001	8b ec		 mov	 ebp, esp

; 197  : 		_Construct(_Ptr, _Val);

  00003	ff 75 0c	 push	 DWORD PTR __Val$[ebp]
  00006	ff 75 08	 push	 DWORD PTR __Ptr$[ebp]
  00009	e8 00 00 00 00	 call	 ??$_Construct@UTeamData@@ABU1@@std@@YAXPAUTeamData@@ABU1@@Z ; std::_Construct<TeamData,TeamData const &>
  0000e	59		 pop	 ecx
  0000f	59		 pop	 ecx

; 198  : 		}

  00010	5d		 pop	 ebp
  00011	c2 08 00	 ret	 8
?construct@?$allocator@UTeamData@@@std@@QAEXPAUTeamData@@ABU3@@Z ENDP ; std::allocator<TeamData>::construct
_TEXT	ENDS
PUBLIC	?destroy@?$allocator@UTeamData@@@std@@QAEXPAUTeamData@@@Z ; std::allocator<TeamData>::destroy
; Function compile flags: /Ogsp
;	COMDAT ?destroy@?$allocator@UTeamData@@@std@@QAEXPAUTeamData@@@Z
_TEXT	SEGMENT
__Ptr$ = 8						; size = 4
?destroy@?$allocator@UTeamData@@@std@@QAEXPAUTeamData@@@Z PROC ; std::allocator<TeamData>::destroy, COMDAT
; _this$ = ecx

; 212  : 		{	// destroy object at _Ptr

  00000	55		 push	 ebp
  00001	8b ec		 mov	 ebp, esp

; 213  : 		_Destroy(_Ptr);

  00003	8b 4d 08	 mov	 ecx, DWORD PTR __Ptr$[ebp]
  00006	e8 00 00 00 00	 call	 ??1TeamData@@QAE@XZ

; 214  : 		}

  0000b	5d		 pop	 ebp
  0000c	c2 04 00	 ret	 4
?destroy@?$allocator@UTeamData@@@std@@QAEXPAUTeamData@@@Z ENDP ; std::allocator<TeamData>::destroy
_TEXT	ENDS
PUBLIC	??$_Cons_val@V?$allocator@UTeamData@@@std@@UTeamData@@ABU3@@std@@YAXAAV?$allocator@UTeamData@@@0@PAUTeamData@@ABU2@@Z ; std::_Cons_val<std::allocator<TeamData>,TeamData,TeamData const &>
; Function compile flags: /Ogsp
;	COMDAT ??$_Cons_val@V?$allocator@UTeamData@@@std@@UTeamData@@ABU3@@std@@YAXAAV?$allocator@UTeamData@@@0@PAUTeamData@@ABU2@@Z
_TEXT	SEGMENT
__Alval$ = 8						; size = 4
__Pdest$ = 12						; size = 4
__Src$ = 16						; size = 4
??$_Cons_val@V?$allocator@UTeamData@@@std@@UTeamData@@ABU3@@std@@YAXAAV?$allocator@UTeamData@@@0@PAUTeamData@@ABU2@@Z PROC ; std::_Cons_val<std::allocator<TeamData>,TeamData,TeamData const &>, COMDAT

; 279  : 	{	// construct using allocator

  00000	55		 push	 ebp
  00001	8b ec		 mov	 ebp, esp

; 280  : 	_Alval.construct(_Pdest, _STD forward<_Ty2>(_Src));

  00003	ff 75 10	 push	 DWORD PTR __Src$[ebp]
  00006	ff 75 0c	 push	 DWORD PTR __Pdest$[ebp]
  00009	e8 00 00 00 00	 call	 ??$_Construct@UTeamData@@ABU1@@std@@YAXPAUTeamData@@ABU1@@Z ; std::_Construct<TeamData,TeamData const &>
  0000e	59		 pop	 ecx
  0000f	59		 pop	 ecx

; 281  : 	}

  00010	5d		 pop	 ebp
  00011	c3		 ret	 0
??$_Cons_val@V?$allocator@UTeamData@@@std@@UTeamData@@ABU3@@std@@YAXAAV?$allocator@UTeamData@@@0@PAUTeamData@@ABU2@@Z ENDP ; std::_Cons_val<std::allocator<TeamData>,TeamData,TeamData const &>
_TEXT	ENDS
PUBLIC	??$_Dest_val@V?$allocator@UTeamData@@@std@@UTeamData@@@std@@YAXAAV?$allocator@UTeamData@@@0@PAUTeamData@@@Z ; std::_Dest_val<std::allocator<TeamData>,TeamData>
; Function compile flags: /Ogsp
;	COMDAT ??$_Dest_val@V?$allocator@UTeamData@@@std@@UTeamData@@@std@@YAXAAV?$allocator@UTeamData@@@0@PAUTeamData@@@Z
_TEXT	SEGMENT
__Alval$ = 8						; size = 4
__Pdest$ = 12						; size = 4
??$_Dest_val@V?$allocator@UTeamData@@@std@@UTeamData@@@std@@YAXAAV?$allocator@UTeamData@@@0@PAUTeamData@@@Z PROC ; std::_Dest_val<std::allocator<TeamData>,TeamData>, COMDAT

; 286  : 	{	// destroy using allocator

  00000	55		 push	 ebp
  00001	8b ec		 mov	 ebp, esp

; 287  : 	_Alval.destroy(_Pdest);

  00003	8b 4d 0c	 mov	 ecx, DWORD PTR __Pdest$[ebp]

; 288  : 	}

  00006	5d		 pop	 ebp

; 287  : 	_Alval.destroy(_Pdest);

  00007	e9 00 00 00 00	 jmp	 ??1TeamData@@QAE@XZ
??$_Dest_val@V?$allocator@UTeamData@@@std@@UTeamData@@@std@@YAXAAV?$allocator@UTeamData@@@0@PAUTeamData@@@Z ENDP ; std::_Dest_val<std::allocator<TeamData>,TeamData>
_TEXT	ENDS
PUBLIC	??$_Uninit_move@PAUTeamData@@PAU1@V?$allocator@UTeamData@@@std@@U1@@std@@YAPAUTeamData@@PAU1@00AAV?$allocator@UTeamData@@@0@0U_Nonscalar_ptr_iterator_tag@0@@Z ; std::_Uninit_move<TeamData *,TeamData *,std::allocator<TeamData>,TeamData>
;	COMDAT xdata$x
xdata$x	SEGMENT
__catchsym$??$_Uninit_move@PAUTeamData@@PAU1@V?$allocator@UTeamData@@@std@@U1@@std@@YAPAUTeamData@@PAU1@00AAV?$allocator@UTeamData@@@0@0U_Nonscalar_ptr_iterator_tag@0@@Z$2 DD 040H
	DD	00H
	DD	00H
	DD	FLAT:__catch$??$_Uninit_move@PAUTeamData@@PAU1@V?$allocator@UTeamData@@@std@@U1@@std@@YAPAUTeamData@@PAU1@00AAV?$allocator@UTeamData@@@0@0U_Nonscalar_ptr_iterator_tag@0@@Z$0
__unwindtable$??$_Uninit_move@PAUTeamData@@PAU1@V?$allocator@UTeamData@@@std@@U1@@std@@YAPAUTeamData@@PAU1@00AAV?$allocator@UTeamData@@@0@0U_Nonscalar_ptr_iterator_tag@0@@Z DD 0ffffffffH
	DD	00H
	DD	0ffffffffH
	DD	00H
__tryblocktable$??$_Uninit_move@PAUTeamData@@PAU1@V?$allocator@UTeamData@@@std@@U1@@std@@YAPAUTeamData@@PAU1@00AAV?$allocator@UTeamData@@@0@0U_Nonscalar_ptr_iterator_tag@0@@Z DD 00H
	DD	00H
	DD	01H
	DD	01H
	DD	FLAT:__catchsym$??$_Uninit_move@PAUTeamData@@PAU1@V?$allocator@UTeamData@@@std@@U1@@std@@YAPAUTeamData@@PAU1@00AAV?$allocator@UTeamData@@@0@0U_Nonscalar_ptr_iterator_tag@0@@Z$2
__ehfuncinfo$??$_Uninit_move@PAUTeamData@@PAU1@V?$allocator@UTeamData@@@std@@U1@@std@@YAPAUTeamData@@PAU1@00AAV?$allocator@UTeamData@@@0@0U_Nonscalar_ptr_iterator_tag@0@@Z DD 019930522H
	DD	02H
	DD	FLAT:__unwindtable$??$_Uninit_move@PAUTeamData@@PAU1@V?$allocator@UTeamData@@@std@@U1@@std@@YAPAUTeamData@@PAU1@00AAV?$allocator@UTeamData@@@0@0U_Nonscalar_ptr_iterator_tag@0@@Z
	DD	01H
	DD	FLAT:__tryblocktable$??$_Uninit_move@PAUTeamData@@PAU1@V?$allocator@UTeamData@@@std@@U1@@std@@YAPAUTeamData@@PAU1@00AAV?$allocator@UTeamData@@@0@0U_Nonscalar_ptr_iterator_tag@0@@Z
	DD	2 DUP(00H)
	DD	00H
	DD	01H
; Function compile flags: /Ogsp
; File c:\program files (x86)\microsoft visual studio 10.0\vc\include\memory
xdata$x	ENDS
;	COMDAT ??$_Uninit_move@PAUTeamData@@PAU1@V?$allocator@UTeamData@@@std@@U1@@std@@YAPAUTeamData@@PAU1@00AAV?$allocator@UTeamData@@@0@0U_Nonscalar_ptr_iterator_tag@0@@Z
_TEXT	SEGMENT
__Next$ = -20						; size = 4
__$EHRec$ = -16						; size = 16
__First$ = 8						; size = 4
__Last$ = 12						; size = 4
__Dest$ = 16						; size = 4
__Al$ = 20						; size = 4
___formal$ = 24						; size = 4
___formal$ = 28						; size = 1
??$_Uninit_move@PAUTeamData@@PAU1@V?$allocator@UTeamData@@@std@@U1@@std@@YAPAUTeamData@@PAU1@00AAV?$allocator@UTeamData@@@0@0U_Nonscalar_ptr_iterator_tag@0@@Z PROC ; std::_Uninit_move<TeamData *,TeamData *,std::allocator<TeamData>,TeamData>, COMDAT

; 424  : 	{	// move [_First, _Last) to raw _Dest, using _Al, arbitrary type

  00000	6a 08		 push	 8
  00002	b8 00 00 00 00	 mov	 eax, __ehhandler$??$_Uninit_move@PAUTeamData@@PAU1@V?$allocator@UTeamData@@@std@@U1@@std@@YAPAUTeamData@@PAU1@00AAV?$allocator@UTeamData@@@0@0U_Nonscalar_ptr_iterator_tag@0@@Z
  00007	e8 00 00 00 00	 call	 __EH_prolog3_catch

; 425  : 	_DEBUG_RANGE(_First, _Last);
; 426  : 	_DEBUG_POINTER(_Dest);
; 427  : 	_FwdIt _Next = _Dest;

  0000c	8b 45 10	 mov	 eax, DWORD PTR __Dest$[ebp]

; 428  : 
; 429  : 	_TRY_BEGIN

  0000f	83 65 fc 00	 and	 DWORD PTR __$EHRec$[ebp+12], 0
  00013	8b 75 08	 mov	 esi, DWORD PTR __First$[ebp]
  00016	89 45 ec	 mov	 DWORD PTR __Next$[ebp], eax
$LL6@Uninit_mov@3:

; 430  : 	for (; _First != _Last; ++_Dest, ++_First)

  00019	3b 75 0c	 cmp	 esi, DWORD PTR __Last$[ebp]
  0001c	74 35		 je	 SHORT $LN4@Uninit_mov@3

; 431  : 		_Cons_val(_Al, _Dest, (_Valty &&)*_First);

  0001e	56		 push	 esi
  0001f	ff 75 10	 push	 DWORD PTR __Dest$[ebp]
  00022	ff 75 14	 push	 DWORD PTR __Al$[ebp]
  00025	e8 00 00 00 00	 call	 ??$_Cons_val@V?$allocator@UTeamData@@@std@@UTeamData@@U3@@std@@YAXAAV?$allocator@UTeamData@@@0@PAUTeamData@@$$QAU2@@Z ; std::_Cons_val<std::allocator<TeamData>,TeamData,TeamData>
  0002a	83 45 10 2c	 add	 DWORD PTR __Dest$[ebp], 44 ; 0000002cH
  0002e	83 c4 0c	 add	 esp, 12			; 0000000cH
  00031	83 c6 2c	 add	 esi, 44			; 0000002cH
  00034	eb e3		 jmp	 SHORT $LL6@Uninit_mov@3
__catch$??$_Uninit_move@PAUTeamData@@PAU1@V?$allocator@UTeamData@@@std@@U1@@std@@YAPAUTeamData@@PAU1@00AAV?$allocator@UTeamData@@@0@0U_Nonscalar_ptr_iterator_tag@0@@Z$0:

; 432  : 	_CATCH_ALL
; 433  : 	for (; _Next != _Dest; ++_Next)

  00036	8b 75 ec	 mov	 esi, DWORD PTR __Next$[ebp]
  00039	eb 0a		 jmp	 SHORT $LN29@Uninit_mov@3
$LL3@Uninit_mov@3:

; 434  : 		_Dest_val(_Al, _Next);

  0003b	8b ce		 mov	 ecx, esi
  0003d	e8 00 00 00 00	 call	 ??1TeamData@@QAE@XZ
  00042	83 c6 2c	 add	 esi, 44			; 0000002cH
$LN29@Uninit_mov@3:

; 432  : 	_CATCH_ALL
; 433  : 	for (; _Next != _Dest; ++_Next)

  00045	3b 75 10	 cmp	 esi, DWORD PTR __Dest$[ebp]
  00048	75 f1		 jne	 SHORT $LL3@Uninit_mov@3

; 435  : 	_RERAISE;

  0004a	6a 00		 push	 0
  0004c	6a 00		 push	 0
  0004e	e8 00 00 00 00	 call	 __CxxThrowException@8
$LN30@Uninit_mov@3:
$LN4@Uninit_mov@3:

; 436  : 	_CATCH_END
; 437  : 	return (_Dest);

  00053	8b 45 10	 mov	 eax, DWORD PTR __Dest$[ebp]

; 438  : 	}

  00056	e8 00 00 00 00	 call	 __EH_epilog3
  0005b	c3		 ret	 0
$LN28@Uninit_mov@3:
_TEXT	ENDS
;	COMDAT text$x
text$x	SEGMENT
__ehhandler$??$_Uninit_move@PAUTeamData@@PAU1@V?$allocator@UTeamData@@@std@@U1@@std@@YAPAUTeamData@@PAU1@00AAV?$allocator@UTeamData@@@0@0U_Nonscalar_ptr_iterator_tag@0@@Z:
  00000	8b 54 24 08	 mov	 edx, DWORD PTR [esp+8]
  00004	8d 42 0c	 lea	 eax, DWORD PTR [edx+12]
  00007	8b 4a e8	 mov	 ecx, DWORD PTR [edx-24]
  0000a	33 c8		 xor	 ecx, eax
  0000c	e8 00 00 00 00	 call	 @__security_check_cookie@4
  00011	b8 00 00 00 00	 mov	 eax, OFFSET __ehfuncinfo$??$_Uninit_move@PAUTeamData@@PAU1@V?$allocator@UTeamData@@@std@@U1@@std@@YAPAUTeamData@@PAU1@00AAV?$allocator@UTeamData@@@0@0U_Nonscalar_ptr_iterator_tag@0@@Z
  00016	e9 00 00 00 00	 jmp	 ___CxxFrameHandler3
text$x	ENDS
??$_Uninit_move@PAUTeamData@@PAU1@V?$allocator@UTeamData@@@std@@U1@@std@@YAPAUTeamData@@PAU1@00AAV?$allocator@UTeamData@@@0@0U_Nonscalar_ptr_iterator_tag@0@@Z ENDP ; std::_Uninit_move<TeamData *,TeamData *,std::allocator<TeamData>,TeamData>
PUBLIC	??$_Destroy_range@V?$allocator@UTeamData@@@std@@@std@@YAXPAUTeamData@@0AAV?$allocator@UTeamData@@@0@U_Nonscalar_ptr_iterator_tag@0@@Z ; std::_Destroy_range<std::allocator<TeamData> >
; Function compile flags: /Ogsp
; File c:\program files (x86)\microsoft visual studio 10.0\vc\include\xmemory
;	COMDAT ??$_Destroy_range@V?$allocator@UTeamData@@@std@@@std@@YAXPAUTeamData@@0AAV?$allocator@UTeamData@@@0@U_Nonscalar_ptr_iterator_tag@0@@Z
_TEXT	SEGMENT
__First$ = 8						; size = 4
__Last$ = 12						; size = 4
__Al$ = 16						; size = 4
___formal$ = 20						; size = 1
??$_Destroy_range@V?$allocator@UTeamData@@@std@@@std@@YAXPAUTeamData@@0AAV?$allocator@UTeamData@@@0@U_Nonscalar_ptr_iterator_tag@0@@Z PROC ; std::_Destroy_range<std::allocator<TeamData> >, COMDAT

; 95   : 	{	// destroy [_First, _Last), arbitrary type

  00000	55		 push	 ebp
  00001	8b ec		 mov	 ebp, esp
  00003	56		 push	 esi

; 96   : 	for (; _First != _Last; ++_First)

  00004	8b 75 08	 mov	 esi, DWORD PTR __First$[ebp]
  00007	eb 0a		 jmp	 SHORT $LN17@Destroy_ra@3
$LL3@Destroy_ra@3:

; 97   : 		_Dest_val(_Al, _First);

  00009	8b ce		 mov	 ecx, esi
  0000b	e8 00 00 00 00	 call	 ??1TeamData@@QAE@XZ
  00010	83 c6 2c	 add	 esi, 44			; 0000002cH
$LN17@Destroy_ra@3:

; 96   : 	for (; _First != _Last; ++_First)

  00013	3b 75 0c	 cmp	 esi, DWORD PTR __Last$[ebp]
  00016	75 f1		 jne	 SHORT $LL3@Destroy_ra@3
  00018	5e		 pop	 esi

; 98   : 	}

  00019	5d		 pop	 ebp
  0001a	c3		 ret	 0
??$_Destroy_range@V?$allocator@UTeamData@@@std@@@std@@YAXPAUTeamData@@0AAV?$allocator@UTeamData@@@0@U_Nonscalar_ptr_iterator_tag@0@@Z ENDP ; std::_Destroy_range<std::allocator<TeamData> >
_TEXT	ENDS
PUBLIC	??$_Uninitialized_move@PAUTeamData@@PAU1@V?$allocator@UTeamData@@@std@@@std@@YAPAUTeamData@@PAU1@00AAV?$allocator@UTeamData@@@0@@Z ; std::_Uninitialized_move<TeamData *,TeamData *,std::allocator<TeamData> >
; Function compile flags: /Ogsp
; File c:\program files (x86)\microsoft visual studio 10.0\vc\include\memory
;	COMDAT ??$_Uninitialized_move@PAUTeamData@@PAU1@V?$allocator@UTeamData@@@std@@@std@@YAPAUTeamData@@PAU1@00AAV?$allocator@UTeamData@@@0@@Z
_TEXT	SEGMENT
__Cat$515728 = -4					; size = 1
__First$ = 8						; size = 4
__Last$ = 12						; size = 4
__Dest$ = 16						; size = 4
__Al$ = 20						; size = 4
??$_Uninitialized_move@PAUTeamData@@PAU1@V?$allocator@UTeamData@@@std@@@std@@YAPAUTeamData@@PAU1@00AAV?$allocator@UTeamData@@@0@@Z PROC ; std::_Uninitialized_move<TeamData *,TeamData *,std::allocator<TeamData> >, COMDAT

; 469  : 	{	// move [_First, _Last) to raw _Dest, using _Al

  00000	55		 push	 ebp
  00001	8b ec		 mov	 ebp, esp
  00003	51		 push	 ecx

; 470  : 	return (_Uninit_move(_First, _Last, _Dest, _Al,
; 471  : 		_Val_type(_First), _Ptr_cat(_First, _Dest)));

  00004	ff 75 fc	 push	 DWORD PTR __Cat$515728[ebp]
  00007	6a 00		 push	 0
  00009	ff 75 14	 push	 DWORD PTR __Al$[ebp]
  0000c	ff 75 10	 push	 DWORD PTR __Dest$[ebp]
  0000f	ff 75 0c	 push	 DWORD PTR __Last$[ebp]
  00012	ff 75 08	 push	 DWORD PTR __First$[ebp]
  00015	e8 00 00 00 00	 call	 ??$_Uninit_move@PAUTeamData@@PAU1@V?$allocator@UTeamData@@@std@@U1@@std@@YAPAUTeamData@@PAU1@00AAV?$allocator@UTeamData@@@0@0U_Nonscalar_ptr_iterator_tag@0@@Z ; std::_Uninit_move<TeamData *,TeamData *,std::allocator<TeamData>,TeamData>
  0001a	83 c4 18	 add	 esp, 24			; 00000018H

; 472  : 	}

  0001d	c9		 leave
  0001e	c3		 ret	 0
??$_Uninitialized_move@PAUTeamData@@PAU1@V?$allocator@UTeamData@@@std@@@std@@YAPAUTeamData@@PAU1@00AAV?$allocator@UTeamData@@@0@@Z ENDP ; std::_Uninitialized_move<TeamData *,TeamData *,std::allocator<TeamData> >
_TEXT	ENDS
PUBLIC	??$_Destroy_range@V?$allocator@UTeamData@@@std@@@std@@YAXPAUTeamData@@0AAV?$allocator@UTeamData@@@0@@Z ; std::_Destroy_range<std::allocator<TeamData> >
; Function compile flags: /Ogsp
; File c:\program files (x86)\microsoft visual studio 10.0\vc\include\xmemory
;	COMDAT ??$_Destroy_range@V?$allocator@UTeamData@@@std@@@std@@YAXPAUTeamData@@0AAV?$allocator@UTeamData@@@0@@Z
_TEXT	SEGMENT
__First$ = 8						; size = 4
__Last$ = 12						; size = 4
__Al$ = 16						; size = 4
??$_Destroy_range@V?$allocator@UTeamData@@@std@@@std@@YAXPAUTeamData@@0AAV?$allocator@UTeamData@@@0@@Z PROC ; std::_Destroy_range<std::allocator<TeamData> >, COMDAT

; 87   : 	{	// destroy [_First, _Last)

  00000	55		 push	 ebp
  00001	8b ec		 mov	 ebp, esp
  00003	56		 push	 esi

; 88   : 	_Destroy_range(_First, _Last, _Al, _Ptr_cat(_First, _Last));

  00004	8b 75 08	 mov	 esi, DWORD PTR __First$[ebp]
  00007	eb 0a		 jmp	 SHORT $LN21@Destroy_ra@4
$LL7@Destroy_ra@4:
  00009	8b ce		 mov	 ecx, esi
  0000b	e8 00 00 00 00	 call	 ??1TeamData@@QAE@XZ
  00010	83 c6 2c	 add	 esi, 44			; 0000002cH
$LN21@Destroy_ra@4:
  00013	3b 75 0c	 cmp	 esi, DWORD PTR __Last$[ebp]
  00016	75 f1		 jne	 SHORT $LL7@Destroy_ra@4
  00018	5e		 pop	 esi

; 89   : 	}

  00019	5d		 pop	 ebp
  0001a	c3		 ret	 0
??$_Destroy_range@V?$allocator@UTeamData@@@std@@@std@@YAXPAUTeamData@@0AAV?$allocator@UTeamData@@@0@@Z ENDP ; std::_Destroy_range<std::allocator<TeamData> >
_TEXT	ENDS
PUBLIC	??$_Umove@PAUTeamData@@@?$vector@UTeamData@@V?$allocator@UTeamData@@@std@@@std@@IAEPAUTeamData@@PAU2@00@Z ; std::vector<TeamData,std::allocator<TeamData> >::_Umove<TeamData *>
; Function compile flags: /Ogsp
; File c:\program files (x86)\microsoft visual studio 10.0\vc\include\vector
;	COMDAT ??$_Umove@PAUTeamData@@@?$vector@UTeamData@@V?$allocator@UTeamData@@@std@@@std@@IAEPAUTeamData@@PAU2@00@Z
_TEXT	SEGMENT
__First$ = 8						; size = 4
__Last$ = 12						; size = 4
__Ptr$ = 16						; size = 4
??$_Umove@PAUTeamData@@@?$vector@UTeamData@@V?$allocator@UTeamData@@@std@@@std@@IAEPAUTeamData@@PAU2@00@Z PROC ; std::vector<TeamData,std::allocator<TeamData> >::_Umove<TeamData *>, COMDAT
; _this$ = ecx

; 1322 : 		pointer _Umove(_Iter _First, _Iter _Last, pointer _Ptr)

  00000	55		 push	 ebp
  00001	8b ec		 mov	 ebp, esp

; 1323 : 		{	// move initializing [_First, _Last), using allocator
; 1324 : 		return (_Uninitialized_move(_First, _Last,
; 1325 : 			_Ptr, this->_Alval));

  00003	83 c1 0c	 add	 ecx, 12			; 0000000cH
  00006	51		 push	 ecx
  00007	ff 75 10	 push	 DWORD PTR __Ptr$[ebp]
  0000a	ff 75 0c	 push	 DWORD PTR __Last$[ebp]
  0000d	ff 75 08	 push	 DWORD PTR __First$[ebp]
  00010	e8 00 00 00 00	 call	 ??$_Uninitialized_move@PAUTeamData@@PAU1@V?$allocator@UTeamData@@@std@@@std@@YAPAUTeamData@@PAU1@00AAV?$allocator@UTeamData@@@0@@Z ; std::_Uninitialized_move<TeamData *,TeamData *,std::allocator<TeamData> >
  00015	83 c4 10	 add	 esp, 16			; 00000010H

; 1326 : 		}

  00018	5d		 pop	 ebp
  00019	c2 0c 00	 ret	 12			; 0000000cH
??$_Umove@PAUTeamData@@@?$vector@UTeamData@@V?$allocator@UTeamData@@@std@@@std@@IAEPAUTeamData@@PAU2@00@Z ENDP ; std::vector<TeamData,std::allocator<TeamData> >::_Umove<TeamData *>
_TEXT	ENDS
PUBLIC	?_Destroy@?$vector@UTeamData@@V?$allocator@UTeamData@@@std@@@std@@IAEXPAUTeamData@@0@Z ; std::vector<TeamData,std::allocator<TeamData> >::_Destroy
; Function compile flags: /Ogsp
;	COMDAT ?_Destroy@?$vector@UTeamData@@V?$allocator@UTeamData@@@std@@@std@@IAEXPAUTeamData@@0@Z
_TEXT	SEGMENT
__First$ = 8						; size = 4
__Last$ = 12						; size = 4
?_Destroy@?$vector@UTeamData@@V?$allocator@UTeamData@@@std@@@std@@IAEXPAUTeamData@@0@Z PROC ; std::vector<TeamData,std::allocator<TeamData> >::_Destroy, COMDAT
; _this$ = ecx

; 1269 : 		{	// destroy [_First, _Last) using allocator

  00000	55		 push	 ebp
  00001	8b ec		 mov	 ebp, esp
  00003	56		 push	 esi

; 1270 : 		_Destroy_range(_First, _Last, this->_Alval);

  00004	8b 75 08	 mov	 esi, DWORD PTR __First$[ebp]
  00007	eb 0a		 jmp	 SHORT $LN23@Destroy
$LL9@Destroy:
  00009	8b ce		 mov	 ecx, esi
  0000b	e8 00 00 00 00	 call	 ??1TeamData@@QAE@XZ
  00010	83 c6 2c	 add	 esi, 44			; 0000002cH
$LN23@Destroy:
  00013	3b 75 0c	 cmp	 esi, DWORD PTR __Last$[ebp]
  00016	75 f1		 jne	 SHORT $LL9@Destroy
  00018	5e		 pop	 esi

; 1271 : 		}

  00019	5d		 pop	 ebp
  0001a	c2 08 00	 ret	 8
?_Destroy@?$vector@UTeamData@@V?$allocator@UTeamData@@@std@@@std@@IAEXPAUTeamData@@0@Z ENDP ; std::vector<TeamData,std::allocator<TeamData> >::_Destroy
_TEXT	ENDS
PUBLIC	?_Tidy@?$vector@UTeamData@@V?$allocator@UTeamData@@@std@@@std@@IAEXXZ ; std::vector<TeamData,std::allocator<TeamData> >::_Tidy
; Function compile flags: /Ogsp
;	COMDAT ?_Tidy@?$vector@UTeamData@@V?$allocator@UTeamData@@@std@@@std@@IAEXXZ
_TEXT	SEGMENT
?_Tidy@?$vector@UTeamData@@V?$allocator@UTeamData@@@std@@@std@@IAEXXZ PROC ; std::vector<TeamData,std::allocator<TeamData> >::_Tidy, COMDAT
; _this$ = ecx

; 1301 : 		{	// free all storage

  00000	56		 push	 esi
  00001	8b f1		 mov	 esi, ecx

; 1302 : 		if (this->_Myfirst != 0)

  00003	83 3e 00	 cmp	 DWORD PTR [esi], 0
  00006	74 27		 je	 SHORT $LN24@Tidy@3

; 1303 : 			{	// something to free, destroy and deallocate it
; 1304 : 			this->_Orphan_all();

  00008	53		 push	 ebx
  00009	57		 push	 edi
  0000a	ff 15 00 00 00
	00		 call	 DWORD PTR __imp_?_Orphan_all@_Container_base0@std@@QAEXXZ

; 1305 : 			_Destroy(this->_Myfirst, this->_Mylast);

  00010	8b 5e 04	 mov	 ebx, DWORD PTR [esi+4]
  00013	8b 3e		 mov	 edi, DWORD PTR [esi]
  00015	eb 0a		 jmp	 SHORT $LN28@Tidy@3
$LL12@Tidy@3:
  00017	8b cf		 mov	 ecx, edi
  00019	e8 00 00 00 00	 call	 ??1TeamData@@QAE@XZ
  0001e	83 c7 2c	 add	 edi, 44			; 0000002cH
$LN28@Tidy@3:
  00021	3b fb		 cmp	 edi, ebx
  00023	75 f2		 jne	 SHORT $LL12@Tidy@3

; 1306 : 			this->_Alval.deallocate(this->_Myfirst,
; 1307 : 				this->_Myend - this->_Myfirst);

  00025	ff 36		 push	 DWORD PTR [esi]
  00027	e8 00 00 00 00	 call	 ??3@YAXPAX@Z		; operator delete
  0002c	59		 pop	 ecx
  0002d	5f		 pop	 edi
  0002e	5b		 pop	 ebx
$LN24@Tidy@3:

; 1308 : 			}
; 1309 : 		this->_Myfirst = 0;

  0002f	33 c0		 xor	 eax, eax
  00031	89 06		 mov	 DWORD PTR [esi], eax

; 1310 : 		this->_Mylast = 0;

  00033	89 46 04	 mov	 DWORD PTR [esi+4], eax

; 1311 : 		this->_Myend = 0;

  00036	89 46 08	 mov	 DWORD PTR [esi+8], eax
  00039	5e		 pop	 esi

; 1312 : 		}

  0003a	c3		 ret	 0
?_Tidy@?$vector@UTeamData@@V?$allocator@UTeamData@@@std@@@std@@IAEXXZ ENDP ; std::vector<TeamData,std::allocator<TeamData> >::_Tidy
_TEXT	ENDS
PUBLIC	?reserve@?$vector@UTeamData@@V?$allocator@UTeamData@@@std@@@std@@QAEXI@Z ; std::vector<TeamData,std::allocator<TeamData> >::reserve
;	COMDAT xdata$x
; File c:\program files (x86)\microsoft visual studio 10.0\vc\include\xmemory
xdata$x	SEGMENT
__catchsym$?reserve@?$vector@UTeamData@@V?$allocator@UTeamData@@@std@@@std@@QAEXI@Z$2 DD 040H
	DD	00H
	DD	00H
	DD	FLAT:__catch$?reserve@?$vector@UTeamData@@V?$allocator@UTeamData@@@std@@@std@@QAEXI@Z$0
__unwindtable$?reserve@?$vector@UTeamData@@V?$allocator@UTeamData@@@std@@@std@@QAEXI@Z DD 0ffffffffH
	DD	00H
	DD	0ffffffffH
	DD	00H
__tryblocktable$?reserve@?$vector@UTeamData@@V?$allocator@UTeamData@@@std@@@std@@QAEXI@Z DD 00H
	DD	00H
	DD	01H
	DD	01H
	DD	FLAT:__catchsym$?reserve@?$vector@UTeamData@@V?$allocator@UTeamData@@@std@@@std@@QAEXI@Z$2
__ehfuncinfo$?reserve@?$vector@UTeamData@@V?$allocator@UTeamData@@@std@@@std@@QAEXI@Z DD 019930522H
	DD	02H
	DD	FLAT:__unwindtable$?reserve@?$vector@UTeamData@@V?$allocator@UTeamData@@@std@@@std@@QAEXI@Z
	DD	01H
	DD	FLAT:__tryblocktable$?reserve@?$vector@UTeamData@@V?$allocator@UTeamData@@@std@@@std@@QAEXI@Z
	DD	2 DUP(00H)
	DD	00H
	DD	01H
; Function compile flags: /Ogsp
; File c:\program files (x86)\microsoft visual studio 10.0\vc\include\vector
xdata$x	ENDS
;	COMDAT ?reserve@?$vector@UTeamData@@V?$allocator@UTeamData@@@std@@@std@@QAEXI@Z
_TEXT	SEGMENT
__Ptr$508940 = -24					; size = 4
$T516062 = -20						; size = 4
__$EHRec$ = -16						; size = 16
__Count$ = 8						; size = 4
?reserve@?$vector@UTeamData@@V?$allocator@UTeamData@@@std@@@std@@QAEXI@Z PROC ; std::vector<TeamData,std::allocator<TeamData> >::reserve, COMDAT
; _this$ = ecx

; 746  : 		{	// determine new minimum length of allocated storage

  00000	6a 0c		 push	 12			; 0000000cH
  00002	b8 00 00 00 00	 mov	 eax, __ehhandler$?reserve@?$vector@UTeamData@@V?$allocator@UTeamData@@@std@@@std@@QAEXI@Z
  00007	e8 00 00 00 00	 call	 __EH_prolog3_catch
  0000c	8b f1		 mov	 esi, ecx

; 747  : 		if (max_size() < _Count)

  0000e	81 7d 08 5d 74
	d1 05		 cmp	 DWORD PTR __Count$[ebp], 97612893 ; 05d1745dH
  00015	76 0b		 jbe	 SHORT $LN5@reserve@3

; 748  : 			_Xlen();	// result too long

  00017	68 00 00 00 00	 push	 OFFSET ??_C@_0BD@OLBABOEK@vector?$DMT?$DO?5too?5long?$AA@
  0001c	ff 15 00 00 00
	00		 call	 DWORD PTR __imp_?_Xlength_error@std@@YAXPBD@Z
$LN59@reserve@3:
$LN5@reserve@3:

; 749  : 		else if (capacity() < _Count)

  00022	8b 46 08	 mov	 eax, DWORD PTR [esi+8]
  00025	2b 06		 sub	 eax, DWORD PTR [esi]
  00027	6a 2c		 push	 44			; 0000002cH
  00029	99		 cdq
  0002a	59		 pop	 ecx
  0002b	f7 f9		 idiv	 ecx
  0002d	3b 45 08	 cmp	 eax, DWORD PTR __Count$[ebp]
  00030	0f 83 80 00 00
	00		 jae	 $LN3@reserve@3

; 750  : 			{	// not enough room, reallocate
; 751  : 			pointer _Ptr = this->_Alval.allocate(_Count);

  00036	6a 00		 push	 0
  00038	ff 75 08	 push	 DWORD PTR __Count$[ebp]
  0003b	e8 00 00 00 00	 call	 ??$_Allocate@UTeamData@@@std@@YAPAUTeamData@@IPAU1@@Z ; std::_Allocate<TeamData>

; 752  : 
; 753  : 			_TRY_BEGIN
; 754  : 			_Umove(this->_Myfirst, this->_Mylast, _Ptr);

  00040	8b 0e		 mov	 ecx, DWORD PTR [esi]
  00042	83 65 fc 00	 and	 DWORD PTR __$EHRec$[ebp+12], 0
  00046	8d 56 0c	 lea	 edx, DWORD PTR [esi+12]
  00049	52		 push	 edx
  0004a	89 45 e8	 mov	 DWORD PTR __Ptr$508940[ebp], eax
  0004d	ff 75 e8	 push	 DWORD PTR __Ptr$508940[ebp]
  00050	8b 46 04	 mov	 eax, DWORD PTR [esi+4]
  00053	50		 push	 eax
  00054	51		 push	 ecx
  00055	e8 00 00 00 00	 call	 ??$_Uninitialized_move@PAUTeamData@@PAU1@V?$allocator@UTeamData@@@std@@@std@@YAPAUTeamData@@PAU1@00AAV?$allocator@UTeamData@@@0@@Z ; std::_Uninitialized_move<TeamData *,TeamData *,std::allocator<TeamData> >

; 758  : 			_CATCH_END
; 759  : 
; 760  : 			size_type _Size = size();

  0005a	8b 5e 04	 mov	 ebx, DWORD PTR [esi+4]
  0005d	8b 0e		 mov	 ecx, DWORD PTR [esi]
  0005f	83 c4 18	 add	 esp, 24			; 00000018H
  00062	8b c3		 mov	 eax, ebx
  00064	2b c1		 sub	 eax, ecx
  00066	6a 2c		 push	 44			; 0000002cH
  00068	99		 cdq
  00069	5f		 pop	 edi
  0006a	f7 ff		 idiv	 edi
  0006c	83 4d fc ff	 or	 DWORD PTR __$EHRec$[ebp+12], -1
  00070	8b f8		 mov	 edi, eax
  00072	85 c9		 test	 ecx, ecx
  00074	74 20		 je	 SHORT $LN51@reserve@3

; 761  : 			if (this->_Myfirst != 0)
; 762  : 				{	// destroy and deallocate old array
; 763  : 				_Destroy(this->_Myfirst, this->_Mylast);

  00076	89 4d ec	 mov	 DWORD PTR $T516062[ebp], ecx
  00079	3b cb		 cmp	 ecx, ebx
  0007b	74 11		 je	 SHORT $LN37@reserve@3
$LN39@reserve@3:
  0007d	8b 4d ec	 mov	 ecx, DWORD PTR $T516062[ebp]
  00080	e8 00 00 00 00	 call	 ??1TeamData@@QAE@XZ
  00085	83 45 ec 2c	 add	 DWORD PTR $T516062[ebp], 44 ; 0000002cH
  00089	39 5d ec	 cmp	 DWORD PTR $T516062[ebp], ebx
  0008c	75 ef		 jne	 SHORT $LN39@reserve@3
$LN37@reserve@3:

; 764  : 				this->_Alval.deallocate(this->_Myfirst,
; 765  : 					this->_Myend - this->_Myfirst);

  0008e	ff 36		 push	 DWORD PTR [esi]
  00090	e8 00 00 00 00	 call	 ??3@YAXPAX@Z		; operator delete
  00095	59		 pop	 ecx
$LN51@reserve@3:

; 766  : 				}
; 767  : 
; 768  : 			this->_Orphan_all();

  00096	8b ce		 mov	 ecx, esi
  00098	ff 15 00 00 00
	00		 call	 DWORD PTR __imp_?_Orphan_all@_Container_base0@std@@QAEXXZ

; 769  : 			this->_Myend = _Ptr + _Count;
; 770  : 			this->_Mylast = _Ptr + _Size;

  0009e	6b ff 2c	 imul	 edi, 44			; 0000002cH
  000a1	8b 45 08	 mov	 eax, DWORD PTR __Count$[ebp]
  000a4	8b 4d e8	 mov	 ecx, DWORD PTR __Ptr$508940[ebp]
  000a7	6b c0 2c	 imul	 eax, 44			; 0000002cH
  000aa	03 c1		 add	 eax, ecx
  000ac	03 f9		 add	 edi, ecx
  000ae	89 46 08	 mov	 DWORD PTR [esi+8], eax
  000b1	89 7e 04	 mov	 DWORD PTR [esi+4], edi

; 771  : 			this->_Myfirst = _Ptr;

  000b4	89 0e		 mov	 DWORD PTR [esi], ecx
$LN3@reserve@3:

; 772  : 			}
; 773  : 		}

  000b6	e8 00 00 00 00	 call	 __EH_epilog3
  000bb	c2 04 00	 ret	 4
__catch$?reserve@?$vector@UTeamData@@V?$allocator@UTeamData@@@std@@@std@@QAEXI@Z$0:

; 755  : 			_CATCH_ALL
; 756  : 			this->_Alval.deallocate(_Ptr, _Count);

  000be	ff 75 e8	 push	 DWORD PTR __Ptr$508940[ebp]
  000c1	e8 00 00 00 00	 call	 ??3@YAXPAX@Z		; operator delete
  000c6	59		 pop	 ecx

; 757  : 			_RERAISE;

  000c7	6a 00		 push	 0
  000c9	6a 00		 push	 0
  000cb	e8 00 00 00 00	 call	 __CxxThrowException@8
$LN60@reserve@3:
$LN58@reserve@3:
  000d0	cc		 int	 3
_TEXT	ENDS
;	COMDAT text$x
text$x	SEGMENT
__ehhandler$?reserve@?$vector@UTeamData@@V?$allocator@UTeamData@@@std@@@std@@QAEXI@Z:
  00000	8b 54 24 08	 mov	 edx, DWORD PTR [esp+8]
  00004	8d 42 0c	 lea	 eax, DWORD PTR [edx+12]
  00007	8b 4a e4	 mov	 ecx, DWORD PTR [edx-28]
  0000a	33 c8		 xor	 ecx, eax
  0000c	e8 00 00 00 00	 call	 @__security_check_cookie@4
  00011	b8 00 00 00 00	 mov	 eax, OFFSET __ehfuncinfo$?reserve@?$vector@UTeamData@@V?$allocator@UTeamData@@@std@@@std@@QAEXI@Z
  00016	e9 00 00 00 00	 jmp	 ___CxxFrameHandler3
text$x	ENDS
?reserve@?$vector@UTeamData@@V?$allocator@UTeamData@@@std@@@std@@QAEXI@Z ENDP ; std::vector<TeamData,std::allocator<TeamData> >::reserve
PUBLIC	??1?$vector@UTeamData@@V?$allocator@UTeamData@@@std@@@std@@QAE@XZ ; std::vector<TeamData,std::allocator<TeamData> >::~vector<TeamData,std::allocator<TeamData> >
; Function compile flags: /Ogsp
;	COMDAT ??1?$vector@UTeamData@@V?$allocator@UTeamData@@@std@@@std@@QAE@XZ
_TEXT	SEGMENT
??1?$vector@UTeamData@@V?$allocator@UTeamData@@@std@@@std@@QAE@XZ PROC ; std::vector<TeamData,std::allocator<TeamData> >::~vector<TeamData,std::allocator<TeamData> >, COMDAT
; _this$ = ecx

; 705  : 		_Tidy();

  00000	e9 00 00 00 00	 jmp	 ?_Tidy@?$vector@UTeamData@@V?$allocator@UTeamData@@@std@@@std@@IAEXXZ ; std::vector<TeamData,std::allocator<TeamData> >::_Tidy
??1?$vector@UTeamData@@V?$allocator@UTeamData@@@std@@@std@@QAE@XZ ENDP ; std::vector<TeamData,std::allocator<TeamData> >::~vector<TeamData,std::allocator<TeamData> >
_TEXT	ENDS
PUBLIC	?erase@?$vector@UTeamData@@V?$allocator@UTeamData@@@std@@@std@@QAE?AV?$_Vector_iterator@V?$_Vector_val@UTeamData@@V?$allocator@UTeamData@@@std@@@std@@@2@V?$_Vector_const_iterator@V?$_Vector_val@UTeamData@@V?$allocator@UTeamData@@@std@@@std@@@2@@Z ; std::vector<TeamData,std::allocator<TeamData> >::erase
; Function compile flags: /Ogsp
;	COMDAT ?erase@?$vector@UTeamData@@V?$allocator@UTeamData@@@std@@@std@@QAE?AV?$_Vector_iterator@V?$_Vector_val@UTeamData@@V?$allocator@UTeamData@@@std@@@std@@@2@V?$_Vector_const_iterator@V?$_Vector_val@UTeamData@@V?$allocator@UTeamData@@@std@@@std@@@2@@Z
_TEXT	SEGMENT
___$ReturnUdt$ = 8					; size = 4
__Cat$516146 = 12					; size = 1
__Where$ = 12						; size = 4
?erase@?$vector@UTeamData@@V?$allocator@UTeamData@@@std@@@std@@QAE?AV?$_Vector_iterator@V?$_Vector_val@UTeamData@@V?$allocator@UTeamData@@@std@@@std@@@2@V?$_Vector_const_iterator@V?$_Vector_val@UTeamData@@V?$allocator@UTeamData@@@std@@@std@@@2@@Z PROC ; std::vector<TeamData,std::allocator<TeamData> >::erase, COMDAT
; _this$ = ecx

; 1179 : 		{	// erase element at where

  00000	55		 push	 ebp
  00001	8b ec		 mov	 ebp, esp

; 1180 : 		_Move(_VIPTR(_Where) + 1, this->_Mylast,
; 1181 : 			_VIPTR(_Where));

  00003	8b 45 0c	 mov	 eax, DWORD PTR __Where$[ebp]
  00006	53		 push	 ebx
  00007	56		 push	 esi
  00008	57		 push	 edi
  00009	ff 75 0c	 push	 DWORD PTR __Cat$516146[ebp]
  0000c	8b f1		 mov	 esi, ecx
  0000e	50		 push	 eax
  0000f	ff 76 04	 push	 DWORD PTR [esi+4]
  00012	83 c0 2c	 add	 eax, 44			; 0000002cH
  00015	50		 push	 eax
  00016	e8 00 00 00 00	 call	 ??$_Move@PAUTeamData@@PAU1@@std@@YAPAUTeamData@@PAU1@00U_Nonscalar_ptr_iterator_tag@0@@Z ; std::_Move<TeamData *,TeamData *>

; 1182 : 		_Destroy(this->_Mylast - 1, this->_Mylast);

  0001b	8b 7e 04	 mov	 edi, DWORD PTR [esi+4]
  0001e	83 c4 10	 add	 esp, 16			; 00000010H
  00021	8d 5f d4	 lea	 ebx, DWORD PTR [edi-44]
  00024	eb 0a		 jmp	 SHORT $LN37@erase@2
$LL15@erase@2:
  00026	8b cb		 mov	 ecx, ebx
  00028	e8 00 00 00 00	 call	 ??1TeamData@@QAE@XZ
  0002d	83 c3 2c	 add	 ebx, 44			; 0000002cH
$LN37@erase@2:
  00030	3b df		 cmp	 ebx, edi
  00032	75 f2		 jne	 SHORT $LL15@erase@2

; 1183 : 		--this->_Mylast;

  00034	83 46 04 d4	 add	 DWORD PTR [esi+4], -44	; ffffffd4H

; 1184 : 		return (_Make_iter(_Where));

  00038	8b 45 08	 mov	 eax, DWORD PTR ___$ReturnUdt$[ebp]
  0003b	8b 4d 0c	 mov	 ecx, DWORD PTR __Where$[ebp]
  0003e	5f		 pop	 edi
  0003f	5e		 pop	 esi
  00040	89 08		 mov	 DWORD PTR [eax], ecx
  00042	5b		 pop	 ebx

; 1185 : 		}

  00043	5d		 pop	 ebp
  00044	c2 08 00	 ret	 8
?erase@?$vector@UTeamData@@V?$allocator@UTeamData@@@std@@@std@@QAE?AV?$_Vector_iterator@V?$_Vector_val@UTeamData@@V?$allocator@UTeamData@@@std@@@std@@@2@V?$_Vector_const_iterator@V?$_Vector_val@UTeamData@@V?$allocator@UTeamData@@@std@@@std@@@2@@Z ENDP ; std::vector<TeamData,std::allocator<TeamData> >::erase
_TEXT	ENDS
PUBLIC	?erase@?$vector@UTeamData@@V?$allocator@UTeamData@@@std@@@std@@QAE?AV?$_Vector_iterator@V?$_Vector_val@UTeamData@@V?$allocator@UTeamData@@@std@@@std@@@2@V?$_Vector_const_iterator@V?$_Vector_val@UTeamData@@V?$allocator@UTeamData@@@std@@@std@@@2@0@Z ; std::vector<TeamData,std::allocator<TeamData> >::erase
; Function compile flags: /Ogsp
;	COMDAT ?erase@?$vector@UTeamData@@V?$allocator@UTeamData@@@std@@@std@@QAE?AV?$_Vector_iterator@V?$_Vector_val@UTeamData@@V?$allocator@UTeamData@@@std@@@std@@@2@V?$_Vector_const_iterator@V?$_Vector_val@UTeamData@@V?$allocator@UTeamData@@@std@@@std@@@2@0@Z
_TEXT	SEGMENT
$T516401 = -4						; size = 4
___$ReturnUdt$ = 8					; size = 4
__First_arg$ = 12					; size = 4
__Cat$516347 = 16					; size = 1
__Last_arg$ = 16					; size = 4
?erase@?$vector@UTeamData@@V?$allocator@UTeamData@@@std@@@std@@QAE?AV?$_Vector_iterator@V?$_Vector_val@UTeamData@@V?$allocator@UTeamData@@@std@@@std@@@2@V?$_Vector_const_iterator@V?$_Vector_val@UTeamData@@V?$allocator@UTeamData@@@std@@@std@@@2@0@Z PROC ; std::vector<TeamData,std::allocator<TeamData> >::erase, COMDAT
; _this$ = ecx

; 1190 : 		{	// erase [_First, _Last)

  00000	55		 push	 ebp
  00001	8b ec		 mov	 ebp, esp
  00003	51		 push	 ecx

; 1191 : 		iterator _First = _Make_iter(_First_arg);

  00004	8b 45 08	 mov	 eax, DWORD PTR ___$ReturnUdt$[ebp]
  00007	56		 push	 esi
  00008	8b f1		 mov	 esi, ecx
  0000a	8b 4d 0c	 mov	 ecx, DWORD PTR __First_arg$[ebp]
  0000d	89 08		 mov	 DWORD PTR [eax], ecx

; 1192 : 		iterator _Last = _Make_iter(_Last_arg);
; 1193 : 
; 1194 : 		if (_First != _Last)

  0000f	3b 4d 10	 cmp	 ecx, DWORD PTR __Last_arg$[ebp]
  00012	74 37		 je	 SHORT $LN1@erase@3

; 1195 : 			{	// worth doing, copy down over hole
; 1196 :  #if _ITERATOR_DEBUG_LEVEL == 2
; 1197 : 			if (_Last < _First || _VICONT(_First) != this
; 1198 : 				|| _VIPTR(_First) < this->_Myfirst
; 1199 : 				|| this->_Mylast < _VIPTR(_Last))
; 1200 : 				_DEBUG_ERROR("vector erase iterator outside range");
; 1201 : 			pointer _Ptr = _Move(_VIPTR(_Last), this->_Mylast,
; 1202 : 				_VIPTR(_First));
; 1203 : 			_Orphan_range(_VIPTR(_First), this->_Mylast);
; 1204 : 
; 1205 :  #else /* _ITERATOR_DEBUG_LEVEL == 2 */
; 1206 : 			pointer _Ptr = _Move(_VIPTR(_Last), this->_Mylast,
; 1207 : 				_VIPTR(_First));

  00014	8b 46 04	 mov	 eax, DWORD PTR [esi+4]
  00017	53		 push	 ebx
  00018	57		 push	 edi
  00019	ff 75 10	 push	 DWORD PTR __Cat$516347[ebp]
  0001c	51		 push	 ecx
  0001d	50		 push	 eax
  0001e	ff 75 10	 push	 DWORD PTR __Last_arg$[ebp]
  00021	e8 00 00 00 00	 call	 ??$_Move@PAUTeamData@@PAU1@@std@@YAPAUTeamData@@PAU1@00U_Nonscalar_ptr_iterator_tag@0@@Z ; std::_Move<TeamData *,TeamData *>

; 1208 :  #endif /* _ITERATOR_DEBUG_LEVEL == 2 */
; 1209 : 
; 1210 : 			_Destroy(_Ptr, this->_Mylast);

  00026	8b 7e 04	 mov	 edi, DWORD PTR [esi+4]
  00029	8b d8		 mov	 ebx, eax
  0002b	83 c4 10	 add	 esp, 16			; 00000010H
  0002e	89 5d fc	 mov	 DWORD PTR $T516401[ebp], ebx
  00031	3b df		 cmp	 ebx, edi
  00033	74 11		 je	 SHORT $LN36@erase@3
$LL52@erase@3:
  00035	8b 4d fc	 mov	 ecx, DWORD PTR $T516401[ebp]
  00038	e8 00 00 00 00	 call	 ??1TeamData@@QAE@XZ
  0003d	83 45 fc 2c	 add	 DWORD PTR $T516401[ebp], 44 ; 0000002cH
  00041	39 7d fc	 cmp	 DWORD PTR $T516401[ebp], edi
  00044	75 ef		 jne	 SHORT $LL52@erase@3
$LN36@erase@3:

; 1211 : 			this->_Mylast = _Ptr;

  00046	5f		 pop	 edi
  00047	89 5e 04	 mov	 DWORD PTR [esi+4], ebx
  0004a	5b		 pop	 ebx
$LN1@erase@3:

; 1212 : 			}
; 1213 : 		return (_First);

  0004b	8b 45 08	 mov	 eax, DWORD PTR ___$ReturnUdt$[ebp]
  0004e	5e		 pop	 esi

; 1214 : 		}

  0004f	c9		 leave
  00050	c2 0c 00	 ret	 12			; 0000000cH
?erase@?$vector@UTeamData@@V?$allocator@UTeamData@@@std@@@std@@QAE?AV?$_Vector_iterator@V?$_Vector_val@UTeamData@@V?$allocator@UTeamData@@@std@@@std@@@2@V?$_Vector_const_iterator@V?$_Vector_val@UTeamData@@V?$allocator@UTeamData@@@std@@@std@@@2@0@Z ENDP ; std::vector<TeamData,std::allocator<TeamData> >::erase
_TEXT	ENDS
PUBLIC	?_Reserve@?$vector@UTeamData@@V?$allocator@UTeamData@@@std@@@std@@IAEXI@Z ; std::vector<TeamData,std::allocator<TeamData> >::_Reserve
; Function compile flags: /Ogsp
;	COMDAT ?_Reserve@?$vector@UTeamData@@V?$allocator@UTeamData@@@std@@@std@@IAEXI@Z
_TEXT	SEGMENT
__Count$ = 8						; size = 4
?_Reserve@?$vector@UTeamData@@V?$allocator@UTeamData@@@std@@@std@@IAEXI@Z PROC ; std::vector<TeamData,std::allocator<TeamData> >::_Reserve, COMDAT
; _this$ = ecx

; 1290 : 		{	// ensure room for _Count new elements, grow exponentially

  00000	55		 push	 ebp
  00001	8b ec		 mov	 ebp, esp
  00003	56		 push	 esi
  00004	8b f1		 mov	 esi, ecx

; 1291 : 		size_type _Size = size();

  00006	8b 0e		 mov	 ecx, DWORD PTR [esi]
  00008	8b 46 04	 mov	 eax, DWORD PTR [esi+4]
  0000b	2b c1		 sub	 eax, ecx
  0000d	57		 push	 edi
  0000e	99		 cdq
  0000f	6a 2c		 push	 44			; 0000002cH
  00011	5f		 pop	 edi
  00012	f7 ff		 idiv	 edi
  00014	8b f8		 mov	 edi, eax

; 1292 : 		if (max_size() - _Count < _Size)

  00016	b8 5d 74 d1 05	 mov	 eax, 97612893		; 05d1745dH
  0001b	2b 45 08	 sub	 eax, DWORD PTR __Count$[ebp]
  0001e	3b c7		 cmp	 eax, edi
  00020	73 0b		 jae	 SHORT $LN4@Reserve@3

; 1293 : 			_Xlen();

  00022	68 00 00 00 00	 push	 OFFSET ??_C@_0BD@OLBABOEK@vector?$DMT?$DO?5too?5long?$AA@
  00027	ff 15 00 00 00
	00		 call	 DWORD PTR __imp_?_Xlength_error@std@@YAXPBD@Z
$LN21@Reserve@3:
$LN4@Reserve@3:

; 1294 : 		else if ((_Size += _Count) <= capacity())

  0002d	8b 46 08	 mov	 eax, DWORD PTR [esi+8]
  00030	2b c1		 sub	 eax, ecx
  00032	6a 2c		 push	 44			; 0000002cH
  00034	99		 cdq
  00035	59		 pop	 ecx
  00036	f7 f9		 idiv	 ecx
  00038	03 7d 08	 add	 edi, DWORD PTR __Count$[ebp]
  0003b	3b f8		 cmp	 edi, eax
  0003d	76 10		 jbe	 SHORT $LN1@Reserve@3

; 1295 : 			;
; 1296 : 		else
; 1297 : 			reserve(_Grow_to(_Size));

  0003f	57		 push	 edi
  00040	8b ce		 mov	 ecx, esi
  00042	e8 00 00 00 00	 call	 ?_Grow_to@?$vector@UTeamData@@V?$allocator@UTeamData@@@std@@@std@@IBEII@Z ; std::vector<TeamData,std::allocator<TeamData> >::_Grow_to
  00047	50		 push	 eax
  00048	8b ce		 mov	 ecx, esi
  0004a	e8 00 00 00 00	 call	 ?reserve@?$vector@UTeamData@@V?$allocator@UTeamData@@@std@@@std@@QAEXI@Z ; std::vector<TeamData,std::allocator<TeamData> >::reserve
$LN1@Reserve@3:
  0004f	5f		 pop	 edi
  00050	5e		 pop	 esi

; 1298 : 		}

  00051	5d		 pop	 ebp
  00052	c2 04 00	 ret	 4
$LN20@Reserve@3:
?_Reserve@?$vector@UTeamData@@V?$allocator@UTeamData@@@std@@@std@@IAEXI@Z ENDP ; std::vector<TeamData,std::allocator<TeamData> >::_Reserve
_TEXT	ENDS
PUBLIC	??_7ioUserTournament@@6B@			; ioUserTournament::`vftable'
PUBLIC	??0ioUserTournament@@QAE@XZ			; ioUserTournament::ioUserTournament
PUBLIC	??_R4ioUserTournament@@6B@			; ioUserTournament::`RTTI Complete Object Locator'
PUBLIC	??_R0?AVioUserTournament@@@8			; ioUserTournament `RTTI Type Descriptor'
PUBLIC	??_R3ioUserTournament@@8			; ioUserTournament::`RTTI Class Hierarchy Descriptor'
PUBLIC	??_R2ioUserTournament@@8			; ioUserTournament::`RTTI Base Class Array'
PUBLIC	??_R1A@?0A@EA@ioUserTournament@@8		; ioUserTournament::`RTTI Base Class Descriptor at (0,-1,0,64)'
EXTRN	??_EioUserTournament@@UAEPAXI@Z:PROC		; ioUserTournament::`vector deleting destructor'
;	COMDAT ??_R1A@?0A@EA@ioUserTournament@@8
; File c:\program files (x86)\microsoft visual studio 10.0\vc\include\xmemory
rdata$r	SEGMENT
??_R1A@?0A@EA@ioUserTournament@@8 DD FLAT:??_R0?AVioUserTournament@@@8 ; ioUserTournament::`RTTI Base Class Descriptor at (0,-1,0,64)'
	DD	00H
	DD	00H
	DD	0ffffffffH
	DD	00H
	DD	040H
	DD	FLAT:??_R3ioUserTournament@@8
rdata$r	ENDS
;	COMDAT ??_R2ioUserTournament@@8
rdata$r	SEGMENT
??_R2ioUserTournament@@8 DD FLAT:??_R1A@?0A@EA@ioUserTournament@@8 ; ioUserTournament::`RTTI Base Class Array'
rdata$r	ENDS
;	COMDAT ??_R3ioUserTournament@@8
rdata$r	SEGMENT
??_R3ioUserTournament@@8 DD 00H				; ioUserTournament::`RTTI Class Hierarchy Descriptor'
	DD	00H
	DD	01H
	DD	FLAT:??_R2ioUserTournament@@8
rdata$r	ENDS
;	COMDAT ??_R0?AVioUserTournament@@@8
_DATA	SEGMENT
??_R0?AVioUserTournament@@@8 DD FLAT:??_7type_info@@6B@	; ioUserTournament `RTTI Type Descriptor'
	DD	00H
	DB	'.?AVioUserTournament@@', 00H
_DATA	ENDS
;	COMDAT ??_R4ioUserTournament@@6B@
rdata$r	SEGMENT
??_R4ioUserTournament@@6B@ DD 00H			; ioUserTournament::`RTTI Complete Object Locator'
	DD	00H
	DD	00H
	DD	FLAT:??_R0?AVioUserTournament@@@8
	DD	FLAT:??_R3ioUserTournament@@8
rdata$r	ENDS
;	COMDAT ??_7ioUserTournament@@6B@
CONST	SEGMENT
??_7ioUserTournament@@6B@ DD FLAT:??_R4ioUserTournament@@6B@ ; ioUserTournament::`vftable'
	DD	FLAT:??_EioUserTournament@@UAEPAXI@Z
; Function compile flags: /Ogsp
; File d:\lost saga for developer\youtube\tutorial\source\src\lsclient\iousertournament.cpp
CONST	ENDS
;	COMDAT ??0ioUserTournament@@QAE@XZ
_TEXT	SEGMENT
??0ioUserTournament@@QAE@XZ PROC			; ioUserTournament::ioUserTournament, COMDAT
; _this$ = ecx

; 10   : {

  00000	8b c1		 mov	 eax, ecx
  00002	33 c9		 xor	 ecx, ecx
  00004	c7 00 00 00 00
	00		 mov	 DWORD PTR [eax], OFFSET ??_7ioUserTournament@@6B@
  0000a	89 48 04	 mov	 DWORD PTR [eax+4], ecx
  0000d	89 48 08	 mov	 DWORD PTR [eax+8], ecx
  00010	89 48 0c	 mov	 DWORD PTR [eax+12], ecx
  00013	89 48 14	 mov	 DWORD PTR [eax+20], ecx
  00016	89 48 18	 mov	 DWORD PTR [eax+24], ecx
  00019	89 48 1c	 mov	 DWORD PTR [eax+28], ecx

; 11   : 	m_bUpdateMainUI= false;

  0001c	66 89 48 24	 mov	 WORD PTR [eax+36], cx

; 12   : 	m_bUpdateSubUI = false;
; 13   : }

  00020	c3		 ret	 0
??0ioUserTournament@@QAE@XZ ENDP			; ioUserTournament::ioUserTournament
_TEXT	ENDS
PUBLIC	?DeleteTeam@ioUserTournament@@QAEXK@Z		; ioUserTournament::DeleteTeam
; Function compile flags: /Ogsp
;	COMDAT ?DeleteTeam@ioUserTournament@@QAEXK@Z
_TEXT	SEGMENT
$T516537 = 8						; size = 4
_dwTeamIndex$ = 8					; size = 4
?DeleteTeam@ioUserTournament@@QAEXK@Z PROC		; ioUserTournament::DeleteTeam, COMDAT
; _this$ = ecx

; 250  : {

  00000	55		 push	 ebp
  00001	8b ec		 mov	 ebp, esp
  00003	56		 push	 esi
  00004	8b f1		 mov	 esi, ecx

; 251  : 	TeamDataVec::iterator iter = m_TeamDataList.begin();

  00006	8d 4e 04	 lea	 ecx, DWORD PTR [esi+4]
  00009	8b 01		 mov	 eax, DWORD PTR [ecx]

; 252  : 	for(;iter != m_TeamDataList.end();++iter)

  0000b	3b 46 08	 cmp	 eax, DWORD PTR [esi+8]
  0000e	74 39		 je	 SHORT $LN2@DeleteTeam
  00010	57		 push	 edi
  00011	8b 7d 08	 mov	 edi, DWORD PTR _dwTeamIndex$[ebp]
$LL17@DeleteTeam:

; 253  : 	{
; 254  : 		TeamData &rkTeamData = *iter;
; 255  : 		if( rkTeamData.m_dwTeamIndex == dwTeamIndex )

  00014	39 78 04	 cmp	 DWORD PTR [eax+4], edi
  00017	74 0a		 je	 SHORT $LN40@DeleteTeam

; 252  : 	for(;iter != m_TeamDataList.end();++iter)

  00019	83 c0 2c	 add	 eax, 44			; 0000002cH
  0001c	3b 46 08	 cmp	 eax, DWORD PTR [esi+8]
  0001f	75 f3		 jne	 SHORT $LL17@DeleteTeam

; 253  : 	{
; 254  : 		TeamData &rkTeamData = *iter;
; 255  : 		if( rkTeamData.m_dwTeamIndex == dwTeamIndex )

  00021	eb 25		 jmp	 SHORT $LN42@DeleteTeam
$LN40@DeleteTeam:

; 256  : 		{
; 257  : 			m_TeamDataList.erase( iter );

  00023	50		 push	 eax
  00024	8d 45 08	 lea	 eax, DWORD PTR $T516537[ebp]
  00027	50		 push	 eax
  00028	e8 00 00 00 00	 call	 ?erase@?$vector@UTeamData@@V?$allocator@UTeamData@@@std@@@std@@QAE?AV?$_Vector_iterator@V?$_Vector_val@UTeamData@@V?$allocator@UTeamData@@@std@@@std@@@2@V?$_Vector_const_iterator@V?$_Vector_val@UTeamData@@V?$allocator@UTeamData@@@std@@@std@@@2@@Z ; std::vector<TeamData,std::allocator<TeamData> >::erase

; 258  : 			m_bUpdateMainUI = true;

  0002d	66 c7 46 24 01
	01		 mov	 WORD PTR [esi+36], 257	; 00000101H

; 259  : 			m_bUpdateSubUI  = true;
; 260  : 
; 261  : 			g_TournamentTeamMgr.DeleteTeamUserData( dwTeamIndex, g_MyInfo.GetUserIndex() );

  00033	e8 00 00 00 00	 call	 ?GetSingleton@ioMyInfo@@SAAAV1@XZ ; ioMyInfo::GetSingleton
  00038	ff 70 08	 push	 DWORD PTR [eax+8]
  0003b	57		 push	 edi
  0003c	e8 00 00 00 00	 call	 ?GetSingleton@ioTournamentTeamManager@@SAAAV1@XZ ; ioTournamentTeamManager::GetSingleton
  00041	8b c8		 mov	 ecx, eax
  00043	e8 00 00 00 00	 call	 ?DeleteTeamUserData@ioTournamentTeamManager@@QAEXKK@Z ; ioTournamentTeamManager::DeleteTeamUserData
$LN42@DeleteTeam:
  00048	5f		 pop	 edi
$LN2@DeleteTeam:
  00049	5e		 pop	 esi

; 262  : 			return;
; 263  : 		}
; 264  : 	}
; 265  : }

  0004a	5d		 pop	 ebp
  0004b	c2 04 00	 ret	 4
?DeleteTeam@ioUserTournament@@QAEXK@Z ENDP		; ioUserTournament::DeleteTeam
_TEXT	ENDS
PUBLIC	??_R0?AVTournamentTeamEventWnd@@@8		; TournamentTeamEventWnd `RTTI Type Descriptor'
PUBLIC	?TournamentEndDeleteTeam@ioUserTournament@@QAE_NK@Z ; ioUserTournament::TournamentEndDeleteTeam
EXTRN	?DeleteTournamentTeam@ioTournamentTeamManager@@QAEXK@Z:PROC ; ioTournamentTeamManager::DeleteTournamentTeam
EXTRN	?SetTeamEventData@TournamentTeamEventWnd@@QAEXKKK@Z:PROC ; TournamentTeamEventWnd::SetTeamEventData
;	COMDAT ??_R0?AVTournamentTeamEventWnd@@@8
; File c:\program files (x86)\microsoft visual studio 10.0\vc\include\vector
_DATA	SEGMENT
??_R0?AVTournamentTeamEventWnd@@@8 DD FLAT:??_7type_info@@6B@ ; TournamentTeamEventWnd `RTTI Type Descriptor'
	DD	00H
	DB	'.?AVTournamentTeamEventWnd@@', 00H
; Function compile flags: /Ogsp
; File d:\lost saga for developer\youtube\tutorial\source\src\lsclient\iousertournament.cpp
_DATA	ENDS
;	COMDAT ?TournamentEndDeleteTeam@ioUserTournament@@QAE_NK@Z
_TEXT	SEGMENT
$T516631 = -4						; size = 4
_dwTourIndex$ = 8					; size = 4
?TournamentEndDeleteTeam@ioUserTournament@@QAE_NK@Z PROC ; ioUserTournament::TournamentEndDeleteTeam, COMDAT
; _this$ = ecx

; 268  : {

  00000	55		 push	 ebp
  00001	8b ec		 mov	 ebp, esp
  00003	51		 push	 ecx
  00004	53		 push	 ebx
  00005	56		 push	 esi
  00006	8b f1		 mov	 esi, ecx
  00008	57		 push	 edi

; 269  : 	TeamDataVec::iterator iter = m_TeamDataList.begin();

  00009	8b 7e 04	 mov	 edi, DWORD PTR [esi+4]
  0000c	eb 0a		 jmp	 SHORT $LN41@Tournament

; 270  : 	for(;iter != m_TeamDataList.end();++iter)

$LL18@Tournament:

; 271  : 	{
; 272  : 		TeamData &rkTeamData = *iter;
; 273  : 		if( rkTeamData.m_dwTourIndex == dwTourIndex )

  0000e	8b 45 08	 mov	 eax, DWORD PTR _dwTourIndex$[ebp]
  00011	39 07		 cmp	 DWORD PTR [edi], eax
  00013	74 11		 je	 SHORT $LN39@Tournament

; 270  : 	for(;iter != m_TeamDataList.end();++iter)

  00015	83 c7 2c	 add	 edi, 44			; 0000002cH
$LN41@Tournament:
  00018	3b 7e 08	 cmp	 edi, DWORD PTR [esi+8]
  0001b	75 f1		 jne	 SHORT $LL18@Tournament

; 290  : 		}
; 291  : 	}
; 292  : 	return false;

  0001d	32 c0		 xor	 al, al
$LN6@Tournament:
  0001f	5f		 pop	 edi
  00020	5e		 pop	 esi
  00021	5b		 pop	 ebx

; 293  : }

  00022	c9		 leave
  00023	c2 04 00	 ret	 4
$LN39@Tournament:

; 274  : 		{
; 275  : 			TournamentTeamEventWnd *pTeamEventWnd = dynamic_cast< TournamentTeamEventWnd * >( g_GUIMgr.FindWnd( TOURNAMENT_TEAM_EVENT_WND ) );

  00026	6a 00		 push	 0
  00028	68 00 00 00 00	 push	 OFFSET ??_R0?AVTournamentTeamEventWnd@@@8
  0002d	68 00 00 00 00	 push	 OFFSET ??_R0?AVioWnd@@@8
  00032	6a 00		 push	 0
  00034	68 34 18 00 00	 push	 6196			; 00001834H
  00039	e8 00 00 00 00	 call	 ?GetSingleton@ioSP2GUIManager@@SAAAV1@XZ ; ioSP2GUIManager::GetSingleton
  0003e	8b c8		 mov	 ecx, eax
  00040	ff 15 00 00 00
	00		 call	 DWORD PTR __imp_?FindWnd@ioGUIManager@@QAEPAVioWnd@@K@Z
  00046	50		 push	 eax
  00047	e8 00 00 00 00	 call	 ___RTDynamicCast
  0004c	83 c4 14	 add	 esp, 20			; 00000014H

; 276  : 			if( pTeamEventWnd )

  0004f	85 c0		 test	 eax, eax
  00051	74 0e		 je	 SHORT $LN1@Tournament

; 277  : 			{				
; 278  : 				//     .
; 279  : 				pTeamEventWnd->SetTeamEventData( rkTeamData.m_dwTourIndex, rkTeamData.m_dwTeamIndex, TournamentTeamEventWnd::EVENT_TYPE_TEAM_DELETE );

  00053	6a 02		 push	 2
  00055	ff 77 04	 push	 DWORD PTR [edi+4]
  00058	8b c8		 mov	 ecx, eax
  0005a	ff 37		 push	 DWORD PTR [edi]
  0005c	e8 00 00 00 00	 call	 ?SetTeamEventData@TournamentTeamEventWnd@@QAEXKKK@Z ; TournamentTeamEventWnd::SetTeamEventData
$LN1@Tournament:

; 280  : 			}
; 281  : 
; 282  : 			m_TeamDataList.erase( iter );

  00061	57		 push	 edi
  00062	8d 45 fc	 lea	 eax, DWORD PTR $T516631[ebp]
  00065	50		 push	 eax
  00066	8d 4e 04	 lea	 ecx, DWORD PTR [esi+4]
  00069	e8 00 00 00 00	 call	 ?erase@?$vector@UTeamData@@V?$allocator@UTeamData@@@std@@@std@@QAE?AV?$_Vector_iterator@V?$_Vector_val@UTeamData@@V?$allocator@UTeamData@@@std@@@std@@@2@V?$_Vector_const_iterator@V?$_Vector_val@UTeamData@@V?$allocator@UTeamData@@@std@@@std@@@2@@Z ; std::vector<TeamData,std::allocator<TeamData> >::erase

; 283  : 			m_bUpdateMainUI = true;
; 284  : 			m_bUpdateSubUI  = true;
; 285  : 
; 286  : 			g_TournamentTeamMgr.DeleteTournamentTeam( dwTourIndex );

  0006e	ff 75 08	 push	 DWORD PTR _dwTourIndex$[ebp]
  00071	66 c7 46 24 01
	01		 mov	 WORD PTR [esi+36], 257	; 00000101H
  00077	e8 00 00 00 00	 call	 ?GetSingleton@ioTournamentTeamManager@@SAAAV1@XZ ; ioTournamentTeamManager::GetSingleton
  0007c	8b c8		 mov	 ecx, eax
  0007e	e8 00 00 00 00	 call	 ?DeleteTournamentTeam@ioTournamentTeamManager@@QAEXK@Z ; ioTournamentTeamManager::DeleteTournamentTeam

; 287  : 			DeleteCheerTeam( dwTourIndex ); 

  00083	ff 75 08	 push	 DWORD PTR _dwTourIndex$[ebp]
  00086	8b ce		 mov	 ecx, esi
  00088	e8 00 00 00 00	 call	 ?DeleteCheerTeam@ioUserTournament@@QAEXK@Z ; ioUserTournament::DeleteCheerTeam

; 288  : 
; 289  : 			return true;

  0008d	b0 01		 mov	 al, 1
  0008f	eb 8e		 jmp	 SHORT $LN6@Tournament
?TournamentEndDeleteTeam@ioUserTournament@@QAE_NK@Z ENDP ; ioUserTournament::TournamentEndDeleteTeam
_TEXT	ENDS
PUBLIC	?push_back@?$vector@UTeamData@@V?$allocator@UTeamData@@@std@@@std@@QAEXABUTeamData@@@Z ; std::vector<TeamData,std::allocator<TeamData> >::push_back
; Function compile flags: /Ogsp
; File c:\program files (x86)\microsoft visual studio 10.0\vc\include\vector
;	COMDAT ?push_back@?$vector@UTeamData@@V?$allocator@UTeamData@@@std@@@std@@QAEXABUTeamData@@@Z
_TEXT	SEGMENT
__Val$ = 8						; size = 4
?push_back@?$vector@UTeamData@@V?$allocator@UTeamData@@@std@@@std@@QAEXABUTeamData@@@Z PROC ; std::vector<TeamData,std::allocator<TeamData> >::push_back, COMDAT
; _this$ = ecx

; 976  : 		{	// insert element at end

  00000	55		 push	 ebp
  00001	8b ec		 mov	 ebp, esp
  00003	56		 push	 esi
  00004	8b f1		 mov	 esi, ecx

; 977  : 		if (_Inside(_STD addressof(_Val)))

  00006	8b 4e 04	 mov	 ecx, DWORD PTR [esi+4]
  00009	57		 push	 edi
  0000a	8b 7d 08	 mov	 edi, DWORD PTR __Val$[ebp]
  0000d	3b f9		 cmp	 edi, ecx
  0000f	73 37		 jae	 SHORT $LN4@push_back@3
  00011	8b 16		 mov	 edx, DWORD PTR [esi]
  00013	3b d7		 cmp	 edx, edi
  00015	77 31		 ja	 SHORT $LN4@push_back@3

; 978  : 			{	// push back an element
; 979  : 			size_type _Idx = _STD addressof(_Val) - this->_Myfirst;

  00017	8b c7		 mov	 eax, edi
  00019	2b c2		 sub	 eax, edx
  0001b	6a 2c		 push	 44			; 0000002cH
  0001d	99		 cdq
  0001e	5f		 pop	 edi
  0001f	f7 ff		 idiv	 edi
  00021	8b f8		 mov	 edi, eax

; 980  : 			if (this->_Mylast == this->_Myend)

  00023	3b 4e 08	 cmp	 ecx, DWORD PTR [esi+8]
  00026	75 09		 jne	 SHORT $LN3@push_back@3

; 981  : 				_Reserve(1);

  00028	6a 01		 push	 1
  0002a	8b ce		 mov	 ecx, esi
  0002c	e8 00 00 00 00	 call	 ?_Reserve@?$vector@UTeamData@@V?$allocator@UTeamData@@@std@@@std@@IAEXI@Z ; std::vector<TeamData,std::allocator<TeamData> >::_Reserve
$LN3@push_back@3:

; 982  : 			_Orphan_range(this->_Mylast, this->_Mylast);
; 983  : 			_Cons_val(this->_Alval,
; 984  : 				this->_Mylast,
; 985  : 				this->_Myfirst[_Idx]);

  00031	6b ff 2c	 imul	 edi, 44			; 0000002cH
  00034	03 3e		 add	 edi, DWORD PTR [esi]
  00036	8d 46 0c	 lea	 eax, DWORD PTR [esi+12]
  00039	57		 push	 edi
  0003a	ff 76 04	 push	 DWORD PTR [esi+4]
  0003d	50		 push	 eax
  0003e	e8 00 00 00 00	 call	 ??$_Cons_val@V?$allocator@UTeamData@@@std@@UTeamData@@AAU3@@std@@YAXAAV?$allocator@UTeamData@@@0@PAUTeamData@@AAU2@@Z ; std::_Cons_val<std::allocator<TeamData>,TeamData,TeamData &>
  00043	83 c4 0c	 add	 esp, 12			; 0000000cH

; 986  : 			++this->_Mylast;
; 987  : 			}
; 988  : 		else

  00046	eb 19		 jmp	 SHORT $LN26@push_back@3
$LN4@push_back@3:

; 989  : 			{	// push back a non-element
; 990  : 			if (this->_Mylast == this->_Myend)

  00048	3b 4e 08	 cmp	 ecx, DWORD PTR [esi+8]
  0004b	75 09		 jne	 SHORT $LN1@push_back@3

; 991  : 				_Reserve(1);

  0004d	6a 01		 push	 1
  0004f	8b ce		 mov	 ecx, esi
  00051	e8 00 00 00 00	 call	 ?_Reserve@?$vector@UTeamData@@V?$allocator@UTeamData@@@std@@@std@@IAEXI@Z ; std::vector<TeamData,std::allocator<TeamData> >::_Reserve
$LN1@push_back@3:

; 992  : 			_Orphan_range(this->_Mylast, this->_Mylast);
; 993  : 			_Cons_val(this->_Alval,
; 994  : 				this->_Mylast,
; 995  : 				_Val);

  00056	57		 push	 edi
  00057	ff 76 04	 push	 DWORD PTR [esi+4]
  0005a	e8 00 00 00 00	 call	 ??$_Construct@UTeamData@@ABU1@@std@@YAXPAUTeamData@@ABU1@@Z ; std::_Construct<TeamData,TeamData const &>
  0005f	59		 pop	 ecx
  00060	59		 pop	 ecx
$LN26@push_back@3:

; 996  : 			++this->_Mylast;

  00061	83 46 04 2c	 add	 DWORD PTR [esi+4], 44	; 0000002cH
  00065	5f		 pop	 edi
  00066	5e		 pop	 esi

; 997  : 			}
; 998  : 		}

  00067	5d		 pop	 ebp
  00068	c2 04 00	 ret	 4
?push_back@?$vector@UTeamData@@V?$allocator@UTeamData@@@std@@@std@@QAEXABUTeamData@@@Z ENDP ; std::vector<TeamData,std::allocator<TeamData> >::push_back
_TEXT	ENDS
PUBLIC	?clear@?$vector@UTeamData@@V?$allocator@UTeamData@@@std@@@std@@QAEXXZ ; std::vector<TeamData,std::allocator<TeamData> >::clear
; Function compile flags: /Ogsp
;	COMDAT ?clear@?$vector@UTeamData@@V?$allocator@UTeamData@@@std@@@std@@QAEXXZ
_TEXT	SEGMENT
$T516760 = -4						; size = 4
?clear@?$vector@UTeamData@@V?$allocator@UTeamData@@@std@@@std@@QAEXXZ PROC ; std::vector<TeamData,std::allocator<TeamData> >::clear, COMDAT
; _this$ = ecx

; 1217 : 		{	// erase all

  00000	55		 push	 ebp
  00001	8b ec		 mov	 ebp, esp
  00003	51		 push	 ecx

; 1218 : 		erase(begin(), end());

  00004	8b 41 04	 mov	 eax, DWORD PTR [ecx+4]
  00007	8b 11		 mov	 edx, DWORD PTR [ecx]
  00009	50		 push	 eax
  0000a	52		 push	 edx
  0000b	8d 45 fc	 lea	 eax, DWORD PTR $T516760[ebp]
  0000e	50		 push	 eax
  0000f	e8 00 00 00 00	 call	 ?erase@?$vector@UTeamData@@V?$allocator@UTeamData@@@std@@@std@@QAE?AV?$_Vector_iterator@V?$_Vector_val@UTeamData@@V?$allocator@UTeamData@@@std@@@std@@@2@V?$_Vector_const_iterator@V?$_Vector_val@UTeamData@@V?$allocator@UTeamData@@@std@@@std@@@2@0@Z ; std::vector<TeamData,std::allocator<TeamData> >::erase

; 1219 : 		}

  00014	c9		 leave
  00015	c3		 ret	 0
?clear@?$vector@UTeamData@@V?$allocator@UTeamData@@@std@@@std@@QAEXXZ ENDP ; std::vector<TeamData,std::allocator<TeamData> >::clear
_TEXT	ENDS
PUBLIC	??1ioUserTournament@@UAE@XZ			; ioUserTournament::~ioUserTournament
;	COMDAT xdata$x
xdata$x	SEGMENT
__unwindtable$??1ioUserTournament@@UAE@XZ DD 0ffffffffH
	DD	FLAT:__unwindfunclet$??1ioUserTournament@@UAE@XZ$0
	DD	00H
	DD	FLAT:__unwindfunclet$??1ioUserTournament@@UAE@XZ$1
__ehfuncinfo$??1ioUserTournament@@UAE@XZ DD 019930522H
	DD	02H
	DD	FLAT:__unwindtable$??1ioUserTournament@@UAE@XZ
	DD	2 DUP(00H)
	DD	2 DUP(00H)
	DD	00H
	DD	01H
; Function compile flags: /Ogsp
; File d:\lost saga for developer\youtube\tutorial\source\src\lsclient\iousertournament.cpp
xdata$x	ENDS
;	COMDAT ??1ioUserTournament@@UAE@XZ
_TEXT	SEGMENT
$T517048 = -20						; size = 4
$T516968 = -20						; size = 4
_this$ = -16						; size = 4
__$EHRec$ = -12						; size = 12
??1ioUserTournament@@UAE@XZ PROC			; ioUserTournament::~ioUserTournament, COMDAT
; _this$ = ecx

; 16   : {

  00000	6a 08		 push	 8
  00002	b8 00 00 00 00	 mov	 eax, __ehhandler$??1ioUserTournament@@UAE@XZ
  00007	e8 00 00 00 00	 call	 __EH_prolog3
  0000c	8b f1		 mov	 esi, ecx
  0000e	89 75 f0	 mov	 DWORD PTR _this$[ebp], esi
  00011	c7 06 00 00 00
	00		 mov	 DWORD PTR [esi], OFFSET ??_7ioUserTournament@@6B@

; 17   : 	TeamDataVec::iterator iter = m_TeamDataList.begin();

  00017	8b 7e 04	 mov	 edi, DWORD PTR [esi+4]
  0001a	c7 45 fc 01 00
	00 00		 mov	 DWORD PTR __$EHRec$[ebp+8], 1
  00021	eb 16		 jmp	 SHORT $LN87@ioUserTour

; 18   : 	for(;iter != m_TeamDataList.end();iter++)

$LL20@ioUserTour:

; 19   : 	{
; 20   : 		TeamData &rkTeamData = *iter;
; 21   : 		rkTeamData.m_TeamUserList.clear();

  00023	8b 47 20	 mov	 eax, DWORD PTR [edi+32]
  00026	8d 4f 1c	 lea	 ecx, DWORD PTR [edi+28]
  00029	8b 11		 mov	 edx, DWORD PTR [ecx]
  0002b	50		 push	 eax
  0002c	52		 push	 edx
  0002d	8d 45 ec	 lea	 eax, DWORD PTR $T516968[ebp]
  00030	50		 push	 eax
  00031	e8 00 00 00 00	 call	 ?erase@?$vector@UTeamUserData@@V?$allocator@UTeamUserData@@@std@@@std@@QAE?AV?$_Vector_iterator@V?$_Vector_val@UTeamUserData@@V?$allocator@UTeamUserData@@@std@@@std@@@2@V?$_Vector_const_iterator@V?$_Vector_val@UTeamUserData@@V?$allocator@UTeamUserData@@@std@@@std@@@2@0@Z ; std::vector<TeamUserData,std::allocator<TeamUserData> >::erase
  00036	83 c7 2c	 add	 edi, 44			; 0000002cH
$LN87@ioUserTour:

; 18   : 	for(;iter != m_TeamDataList.end();iter++)

  00039	3b 7e 08	 cmp	 edi, DWORD PTR [esi+8]
  0003c	75 e5		 jne	 SHORT $LL20@ioUserTour

; 22   : 	}
; 23   : 	m_TeamDataList.clear();

  0003e	8b 46 08	 mov	 eax, DWORD PTR [esi+8]
  00041	8b 4e 04	 mov	 ecx, DWORD PTR [esi+4]
  00044	50		 push	 eax
  00045	51		 push	 ecx
  00046	8d 45 ec	 lea	 eax, DWORD PTR $T517048[ebp]
  00049	50		 push	 eax
  0004a	8d 4e 04	 lea	 ecx, DWORD PTR [esi+4]
  0004d	e8 00 00 00 00	 call	 ?erase@?$vector@UTeamData@@V?$allocator@UTeamData@@@std@@@std@@QAE?AV?$_Vector_iterator@V?$_Vector_val@UTeamData@@V?$allocator@UTeamData@@@std@@@std@@@2@V?$_Vector_const_iterator@V?$_Vector_val@UTeamData@@V?$allocator@UTeamData@@@std@@@std@@@2@0@Z ; std::vector<TeamData,std::allocator<TeamData> >::erase

; 24   : }

  00052	8d 4e 14	 lea	 ecx, DWORD PTR [esi+20]
  00055	c6 45 fc 00	 mov	 BYTE PTR __$EHRec$[ebp+8], 0
  00059	e8 00 00 00 00	 call	 ?_Tidy@?$vector@UCheerTeamInfo@@V?$allocator@UCheerTeamInfo@@@std@@@std@@IAEXXZ ; std::vector<CheerTeamInfo,std::allocator<CheerTeamInfo> >::_Tidy
  0005e	83 4d fc ff	 or	 DWORD PTR __$EHRec$[ebp+8], -1
  00062	8d 4e 04	 lea	 ecx, DWORD PTR [esi+4]
  00065	e8 00 00 00 00	 call	 ?_Tidy@?$vector@UTeamData@@V?$allocator@UTeamData@@@std@@@std@@IAEXXZ ; std::vector<TeamData,std::allocator<TeamData> >::_Tidy
  0006a	e8 00 00 00 00	 call	 __EH_epilog3
  0006f	c3		 ret	 0
_TEXT	ENDS
;	COMDAT text$x
text$x	SEGMENT
__unwindfunclet$??1ioUserTournament@@UAE@XZ$0:
  00000	8b 4d f0	 mov	 ecx, DWORD PTR _this$[ebp]
  00003	83 c1 04	 add	 ecx, 4
  00006	e9 00 00 00 00	 jmp	 ??1?$vector@UTeamData@@V?$allocator@UTeamData@@@std@@@std@@QAE@XZ ; std::vector<TeamData,std::allocator<TeamData> >::~vector<TeamData,std::allocator<TeamData> >
__unwindfunclet$??1ioUserTournament@@UAE@XZ$1:
  0000b	8b 4d f0	 mov	 ecx, DWORD PTR _this$[ebp]
  0000e	83 c1 14	 add	 ecx, 20			; 00000014H
  00011	e9 00 00 00 00	 jmp	 ??1?$vector@UCheerTeamInfo@@V?$allocator@UCheerTeamInfo@@@std@@@std@@QAE@XZ ; std::vector<CheerTeamInfo,std::allocator<CheerTeamInfo> >::~vector<CheerTeamInfo,std::allocator<CheerTeamInfo> >
__ehhandler$??1ioUserTournament@@UAE@XZ:
  00016	8b 54 24 08	 mov	 edx, DWORD PTR [esp+8]
  0001a	8d 42 0c	 lea	 eax, DWORD PTR [edx+12]
  0001d	8b 4a e8	 mov	 ecx, DWORD PTR [edx-24]
  00020	33 c8		 xor	 ecx, eax
  00022	e8 00 00 00 00	 call	 @__security_check_cookie@4
  00027	b8 00 00 00 00	 mov	 eax, OFFSET __ehfuncinfo$??1ioUserTournament@@UAE@XZ
  0002c	e9 00 00 00 00	 jmp	 ___CxxFrameHandler3
text$x	ENDS
??1ioUserTournament@@UAE@XZ ENDP			; ioUserTournament::~ioUserTournament
PUBLIC	__$ArrayPad$
PUBLIC	?ApplyTeamData@ioUserTournament@@QAEXAAVSP2Packet@@@Z ; ioUserTournament::ApplyTeamData
EXTRN	??1SP2Packet@@UAE@XZ:PROC			; SP2Packet::~SP2Packet
EXTRN	?SendToServer@TCPNetwork@@YAXAAVSP2Packet@@@Z:PROC ; TCPNetwork::SendToServer
EXTRN	??6SP2Packet@@QAEAAV0@_N@Z:PROC			; SP2Packet::operator<<
EXTRN	??6SP2Packet@@QAEAAV0@K@Z:PROC			; SP2Packet::operator<<
EXTRN	??0SP2Packet@@QAE@K@Z:PROC			; SP2Packet::SP2Packet
EXTRN	?SetDefaultData@ioTournamentTeamManager@@QAEPAVTeamGlobalData@@AAUTeamData@@_N@Z:PROC ; ioTournamentTeamManager::SetDefaultData
EXTRN	??5SP2Packet@@QAEAAV0@AAE@Z:PROC		; SP2Packet::operator>>
EXTRN	??5SP2Packet@@QAEAAV0@AAF@Z:PROC		; SP2Packet::operator>>
EXTRN	___security_cookie:DWORD
EXTRN	__chkstk:PROC
;	COMDAT xdata$x
; File d:\lost saga for developer\youtube\tutorial\source\src\lsclient\iomyinfo.h
xdata$x	SEGMENT
__unwindtable$?ApplyTeamData@ioUserTournament@@QAEXAAVSP2Packet@@@Z DD 0ffffffffH
	DD	FLAT:__unwindfunclet$?ApplyTeamData@ioUserTournament@@QAEXAAVSP2Packet@@@Z$0
	DD	00H
	DD	FLAT:__unwindfunclet$?ApplyTeamData@ioUserTournament@@QAEXAAVSP2Packet@@@Z$1
__ehfuncinfo$?ApplyTeamData@ioUserTournament@@QAEXAAVSP2Packet@@@Z DD 019930522H
	DD	02H
	DD	FLAT:__unwindtable$?ApplyTeamData@ioUserTournament@@QAEXAAVSP2Packet@@@Z
	DD	2 DUP(00H)
	DD	2 DUP(00H)
	DD	00H
	DD	01H
; Function compile flags: /Ogsp
; File d:\lost saga for developer\youtube\tutorial\source\src\lsclient\iousertournament.cpp
xdata$x	ENDS
;	COMDAT ?ApplyTeamData@ioUserTournament@@QAEXAAVSP2Packet@@@Z
_TEXT	SEGMENT
_kTeamData$508021 = -32872				; size = 44
_iTeamSize$ = -32828					; size = 4
_bEntryMemberCall$508025 = -32824			; size = 1
_i$508015 = -32820					; size = 4
_Position$508020 = -32816				; size = 2
_TourPos$508019 = -32809				; size = 1
_kPacket$508027 = -32808				; size = 32792
__$ArrayPad$ = -16					; size = 4
__$EHRec$ = -12						; size = 12
_rkPacket$ = 8						; size = 4
?ApplyTeamData@ioUserTournament@@QAEXAAVSP2Packet@@@Z PROC ; ioUserTournament::ApplyTeamData, COMDAT
; _this$ = ecx

; 59   : {

  00000	55		 push	 ebp
  00001	8b ec		 mov	 ebp, esp
  00003	6a ff		 push	 -1
  00005	68 00 00 00 00	 push	 __ehhandler$?ApplyTeamData@ioUserTournament@@QAEXAAVSP2Packet@@@Z
  0000a	64 a1 00 00 00
	00		 mov	 eax, DWORD PTR fs:0
  00010	50		 push	 eax
  00011	b8 5c 80 00 00	 mov	 eax, 32860		; 0000805cH
  00016	e8 00 00 00 00	 call	 __chkstk
  0001b	a1 00 00 00 00	 mov	 eax, DWORD PTR ___security_cookie
  00020	33 c5		 xor	 eax, ebp
  00022	89 45 f0	 mov	 DWORD PTR __$ArrayPad$[ebp], eax
  00025	53		 push	 ebx
  00026	56		 push	 esi
  00027	57		 push	 edi
  00028	50		 push	 eax
  00029	8d 45 f4	 lea	 eax, DWORD PTR __$EHRec$[ebp]
  0002c	64 a3 00 00 00
	00		 mov	 DWORD PTR fs:0, eax
  00032	8b 7d 08	 mov	 edi, DWORD PTR _rkPacket$[ebp]

; 60   : 	//  1  
; 61   : 
; 62   : 	int iTeamSize;
; 63   : 	rkPacket >> iTeamSize;

  00035	8d 85 c4 7f ff
	ff		 lea	 eax, DWORD PTR _iTeamSize$[ebp]
  0003b	8b f1		 mov	 esi, ecx
  0003d	50		 push	 eax
  0003e	8b cf		 mov	 ecx, edi
  00040	e8 00 00 00 00	 call	 ??5SP2Packet@@QAEAAV0@AAH@Z ; SP2Packet::operator>>

; 64   : 
; 65   : 	for(int i = 0;i < iTeamSize;i++)

  00045	33 db		 xor	 ebx, ebx
  00047	89 9d cc 7f ff
	ff		 mov	 DWORD PTR _i$508015[ebp], ebx
  0004d	39 9d c4 7f ff
	ff		 cmp	 DWORD PTR _iTeamSize$[ebp], ebx
  00053	0f 8e 50 01 00
	00		 jle	 $LN4@ApplyTeamD
$LL6@ApplyTeamD:

; 66   : 	{
; 67   : 		BYTE  TourPos;
; 68   : 		SHORT Position;
; 69   : 		TeamData kTeamData;

  00059	8d 8d 98 7f ff
	ff		 lea	 ecx, DWORD PTR _kTeamData$508021[ebp]
  0005f	e8 00 00 00 00	 call	 ??0TeamData@@QAE@XZ	; TeamData::TeamData

; 70   : 		rkPacket >> kTeamData.m_dwTourIndex >> kTeamData.m_dwTeamIndex >> kTeamData.m_szTeamName >> kTeamData.m_dwTeamOwnerIndex >> Position >> TourPos;		

  00064	8d 85 d7 7f ff
	ff		 lea	 eax, DWORD PTR _TourPos$508019[ebp]
  0006a	50		 push	 eax
  0006b	8d 85 d0 7f ff
	ff		 lea	 eax, DWORD PTR _Position$508020[ebp]
  00071	50		 push	 eax
  00072	8d 85 a0 7f ff
	ff		 lea	 eax, DWORD PTR _kTeamData$508021[ebp+8]
  00078	50		 push	 eax
  00079	8d 85 a4 7f ff
	ff		 lea	 eax, DWORD PTR _kTeamData$508021[ebp+12]
  0007f	50		 push	 eax
  00080	8d 85 9c 7f ff
	ff		 lea	 eax, DWORD PTR _kTeamData$508021[ebp+4]
  00086	50		 push	 eax
  00087	8d 85 98 7f ff
	ff		 lea	 eax, DWORD PTR _kTeamData$508021[ebp]
  0008d	50		 push	 eax
  0008e	8b cf		 mov	 ecx, edi
  00090	89 5d fc	 mov	 DWORD PTR __$EHRec$[ebp+8], ebx
  00093	e8 00 00 00 00	 call	 ??5SP2Packet@@QAEAAV0@AAK@Z ; SP2Packet::operator>>
  00098	8b c8		 mov	 ecx, eax
  0009a	e8 00 00 00 00	 call	 ??5SP2Packet@@QAEAAV0@AAK@Z ; SP2Packet::operator>>
  0009f	8b c8		 mov	 ecx, eax
  000a1	e8 00 00 00 00	 call	 ??5SP2Packet@@QAEAAV0@AAVioHashString@@@Z ; SP2Packet::operator>>
  000a6	8b c8		 mov	 ecx, eax
  000a8	e8 00 00 00 00	 call	 ??5SP2Packet@@QAEAAV0@AAK@Z ; SP2Packet::operator>>
  000ad	8b c8		 mov	 ecx, eax
  000af	e8 00 00 00 00	 call	 ??5SP2Packet@@QAEAAV0@AAF@Z ; SP2Packet::operator>>
  000b4	8b c8		 mov	 ecx, eax
  000b6	e8 00 00 00 00	 call	 ??5SP2Packet@@QAEAAV0@AAE@Z ; SP2Packet::operator>>

; 71   : 
; 72   : 		if( IsAlreadyTeam( kTeamData.m_dwTeamIndex ) ) continue;

  000bb	ff b5 9c 7f ff
	ff		 push	 DWORD PTR _kTeamData$508021[ebp+4]
  000c1	8b ce		 mov	 ecx, esi
  000c3	e8 00 00 00 00	 call	 ?IsAlreadyTeam@ioUserTournament@@QAE_NK@Z ; ioUserTournament::IsAlreadyTeam
  000c8	84 c0		 test	 al, al
  000ca	0f 85 b2 00 00
	00		 jne	 $LN20@ApplyTeamD

; 73   : 
; 74   : 		m_TeamDataList.push_back( kTeamData );

  000d0	8d 85 98 7f ff
	ff		 lea	 eax, DWORD PTR _kTeamData$508021[ebp]
  000d6	50		 push	 eax
  000d7	8d 4e 04	 lea	 ecx, DWORD PTR [esi+4]
  000da	e8 00 00 00 00	 call	 ?push_back@?$vector@UTeamData@@V?$allocator@UTeamData@@@std@@@std@@QAEXABUTeamData@@@Z ; std::vector<TeamData,std::allocator<TeamData> >::push_back

; 75   : 
; 76   : 		// 
; 77   : 		TeamGlobalData *pTeamGlobalData = g_TournamentTeamMgr.SetDefaultData( kTeamData );

  000df	8d 85 98 7f ff
	ff		 lea	 eax, DWORD PTR _kTeamData$508021[ebp]
  000e5	53		 push	 ebx
  000e6	50		 push	 eax
  000e7	e8 00 00 00 00	 call	 ?GetSingleton@ioTournamentTeamManager@@SAAAV1@XZ ; ioTournamentTeamManager::GetSingleton
  000ec	8b c8		 mov	 ecx, eax
  000ee	e8 00 00 00 00	 call	 ?SetDefaultData@ioTournamentTeamManager@@QAEPAVTeamGlobalData@@AAUTeamData@@_N@Z ; ioTournamentTeamManager::SetDefaultData

; 78   : 		if( pTeamGlobalData )

  000f3	3b c3		 cmp	 eax, ebx
  000f5	74 14		 je	 SHORT $LN13@ApplyTeamD

; 79   : 		{
; 80   : 			pTeamGlobalData->SetPosition( Position );

  000f7	66 8b 8d d0 7f
	ff ff		 mov	 cx, WORD PTR _Position$508020[ebp]
  000fe	66 89 48 30	 mov	 WORD PTR [eax+48], cx

; 81   : 			pTeamGlobalData->SetTourPos( TourPos );

  00102	8a 8d d7 7f ff
	ff		 mov	 cl, BYTE PTR _TourPos$508019[ebp]
  00108	88 48 38	 mov	 BYTE PTR [eax+56], cl
$LN13@ApplyTeamD:

; 82   : 		}
; 83   : 		
; 84   : 		//   
; 85   : 		bool bEntryMemberCall = false;

  0010b	88 9d c8 7f ff
	ff		 mov	 BYTE PTR _bEntryMemberCall$508025[ebp], bl

; 86   : 		if( kTeamData.m_dwTeamOwnerIndex == g_MyInfo.GetUserIndex() )

  00111	e8 00 00 00 00	 call	 ?GetSingleton@ioMyInfo@@SAAAV1@XZ ; ioMyInfo::GetSingleton
  00116	8b 8d a0 7f ff
	ff		 mov	 ecx, DWORD PTR _kTeamData$508021[ebp+8]
  0011c	3b 48 08	 cmp	 ecx, DWORD PTR [eax+8]
  0011f	75 07		 jne	 SHORT $LN1@ApplyTeamD

; 87   : 			bEntryMemberCall = true;

  00121	c6 85 c8 7f ff
	ff 01		 mov	 BYTE PTR _bEntryMemberCall$508025[ebp], 1
$LN1@ApplyTeamD:

; 88   : 		
; 89   : 		SP2Packet kPacket( CTPK_TOURNAMENT_TEAM_USER_LIST );

  00128	68 72 02 00 00	 push	 626			; 00000272H
  0012d	8d 8d d8 7f ff
	ff		 lea	 ecx, DWORD PTR _kPacket$508027[ebp]
  00133	e8 00 00 00 00	 call	 ??0SP2Packet@@QAE@K@Z	; SP2Packet::SP2Packet

; 90   : 		kPacket << kTeamData.m_dwTourIndex << kTeamData.m_dwTeamIndex << bEntryMemberCall;

  00138	ff b5 c8 7f ff
	ff		 push	 DWORD PTR _bEntryMemberCall$508025[ebp]
  0013e	8d 8d d8 7f ff
	ff		 lea	 ecx, DWORD PTR _kPacket$508027[ebp]
  00144	ff b5 9c 7f ff
	ff		 push	 DWORD PTR _kTeamData$508021[ebp+4]
  0014a	c6 45 fc 01	 mov	 BYTE PTR __$EHRec$[ebp+8], 1
  0014e	ff b5 98 7f ff
	ff		 push	 DWORD PTR _kTeamData$508021[ebp]
  00154	e8 00 00 00 00	 call	 ??6SP2Packet@@QAEAAV0@K@Z ; SP2Packet::operator<<
  00159	8b c8		 mov	 ecx, eax
  0015b	e8 00 00 00 00	 call	 ??6SP2Packet@@QAEAAV0@K@Z ; SP2Packet::operator<<
  00160	8b c8		 mov	 ecx, eax
  00162	e8 00 00 00 00	 call	 ??6SP2Packet@@QAEAAV0@_N@Z ; SP2Packet::operator<<

; 91   : 		TCPNetwork::SendToServer( kPacket );

  00167	8d 85 d8 7f ff
	ff		 lea	 eax, DWORD PTR _kPacket$508027[ebp]
  0016d	50		 push	 eax
  0016e	e8 00 00 00 00	 call	 ?SendToServer@TCPNetwork@@YAXAAVSP2Packet@@@Z ; TCPNetwork::SendToServer
  00173	59		 pop	 ecx

; 92   : 	}

  00174	8d 8d d8 7f ff
	ff		 lea	 ecx, DWORD PTR _kPacket$508027[ebp]
  0017a	88 5d fc	 mov	 BYTE PTR __$EHRec$[ebp+8], bl
  0017d	e8 00 00 00 00	 call	 ??1SP2Packet@@UAE@XZ	; SP2Packet::~SP2Packet
$LN20@ApplyTeamD:
  00182	83 4d fc ff	 or	 DWORD PTR __$EHRec$[ebp+8], -1
  00186	8d 8d 98 7f ff
	ff		 lea	 ecx, DWORD PTR _kTeamData$508021[ebp]
  0018c	e8 00 00 00 00	 call	 ??1TeamData@@QAE@XZ
  00191	ff 85 cc 7f ff
	ff		 inc	 DWORD PTR _i$508015[ebp]
  00197	8b 85 cc 7f ff
	ff		 mov	 eax, DWORD PTR _i$508015[ebp]
  0019d	3b 85 c4 7f ff
	ff		 cmp	 eax, DWORD PTR _iTeamSize$[ebp]
  001a3	0f 8c b0 fe ff
	ff		 jl	 $LL6@ApplyTeamD
$LN4@ApplyTeamD:

; 93   : 	m_bUpdateMainUI = true;

  001a9	66 c7 46 24 01
	01		 mov	 WORD PTR [esi+36], 257	; 00000101H

; 94   : 	m_bUpdateSubUI  = true;
; 95   : }

  001af	8b 4d f4	 mov	 ecx, DWORD PTR __$EHRec$[ebp]
  001b2	64 89 0d 00 00
	00 00		 mov	 DWORD PTR fs:0, ecx
  001b9	59		 pop	 ecx
  001ba	5f		 pop	 edi
  001bb	5e		 pop	 esi
  001bc	5b		 pop	 ebx
  001bd	8b 4d f0	 mov	 ecx, DWORD PTR __$ArrayPad$[ebp]
  001c0	33 cd		 xor	 ecx, ebp
  001c2	e8 00 00 00 00	 call	 @__security_check_cookie@4
  001c7	c9		 leave
  001c8	c2 04 00	 ret	 4
_TEXT	ENDS
;	COMDAT text$x
text$x	SEGMENT
__unwindfunclet$?ApplyTeamData@ioUserTournament@@QAEXAAVSP2Packet@@@Z$0:
  00000	8d 8d 98 7f ff
	ff		 lea	 ecx, DWORD PTR _kTeamData$508021[ebp]
  00006	e9 00 00 00 00	 jmp	 ??1TeamData@@QAE@XZ
__unwindfunclet$?ApplyTeamData@ioUserTournament@@QAEXAAVSP2Packet@@@Z$1:
  0000b	8d 8d d8 7f ff
	ff		 lea	 ecx, DWORD PTR _kPacket$508027[ebp]
  00011	e9 00 00 00 00	 jmp	 ??1SP2Packet@@UAE@XZ	; SP2Packet::~SP2Packet
__ehhandler$?ApplyTeamData@ioUserTournament@@QAEXAAVSP2Packet@@@Z:
  00016	8b 54 24 08	 mov	 edx, DWORD PTR [esp+8]
  0001a	8d 42 0c	 lea	 eax, DWORD PTR [edx+12]
  0001d	8b 8a 94 7f ff
	ff		 mov	 ecx, DWORD PTR [edx-32876]
  00023	33 c8		 xor	 ecx, eax
  00025	e8 00 00 00 00	 call	 @__security_check_cookie@4
  0002a	8b 4a fc	 mov	 ecx, DWORD PTR [edx-4]
  0002d	33 c8		 xor	 ecx, eax
  0002f	e8 00 00 00 00	 call	 @__security_check_cookie@4
  00034	b8 00 00 00 00	 mov	 eax, OFFSET __ehfuncinfo$?ApplyTeamData@ioUserTournament@@QAEXAAVSP2Packet@@@Z
  00039	e9 00 00 00 00	 jmp	 ___CxxFrameHandler3
text$x	ENDS
?ApplyTeamData@ioUserTournament@@QAEXAAVSP2Packet@@@Z ENDP ; ioUserTournament::ApplyTeamData
PUBLIC	??_R0?AVTournamentTeamCreateComplete@@@8	; TournamentTeamCreateComplete `RTTI Type Descriptor'
PUBLIC	__$ArrayPad$
PUBLIC	?CreateTeamData@ioUserTournament@@QAEXAAVSP2Packet@@@Z ; ioUserTournament::CreateTeamData
EXTRN	?SetTeamData@TournamentTeamCreateComplete@@QAEXKKAAVioHashString@@E@Z:PROC ; TournamentTeamCreateComplete::SetTeamData
EXTRN	?SetSyncData@ioTournamentTeamManager@@QAEPAVTeamGlobalData@@KAAVSP2Packet@@@Z:PROC ; ioTournamentTeamManager::SetSyncData
;	COMDAT ??_R0?AVTournamentTeamCreateComplete@@@8
; File d:\lost saga for developer\youtube\tutorial\source\src\lsclient\iotournamentteammanager.h
_DATA	SEGMENT
??_R0?AVTournamentTeamCreateComplete@@@8 DD FLAT:??_7type_info@@6B@ ; TournamentTeamCreateComplete `RTTI Type Descriptor'
	DD	00H
	DB	'.?AVTournamentTeamCreateComplete@@', 00H
_DATA	ENDS
;	COMDAT xdata$x
xdata$x	SEGMENT
__unwindtable$?CreateTeamData@ioUserTournament@@QAEXAAVSP2Packet@@@Z DD 0ffffffffH
	DD	FLAT:__unwindfunclet$?CreateTeamData@ioUserTournament@@QAEXAAVSP2Packet@@@Z$0
	DD	00H
	DD	FLAT:__unwindfunclet$?CreateTeamData@ioUserTournament@@QAEXAAVSP2Packet@@@Z$1
__ehfuncinfo$?CreateTeamData@ioUserTournament@@QAEXAAVSP2Packet@@@Z DD 019930522H
	DD	02H
	DD	FLAT:__unwindtable$?CreateTeamData@ioUserTournament@@QAEXAAVSP2Packet@@@Z
	DD	2 DUP(00H)
	DD	2 DUP(00H)
	DD	00H
	DD	01H
; Function compile flags: /Ogsp
; File d:\lost saga for developer\youtube\tutorial\source\src\lsclient\iousertournament.cpp
xdata$x	ENDS
;	COMDAT ?CreateTeamData@ioUserTournament@@QAEXAAVSP2Packet@@@Z
_TEXT	SEGMENT
_kTeamData$ = -32856					; size = 44
$T517129 = -32812					; size = 1
_kPacket$ = -32808					; size = 32792
__$ArrayPad$ = -16					; size = 4
__$EHRec$ = -12						; size = 12
_rkPacket$ = 8						; size = 4
?CreateTeamData@ioUserTournament@@QAEXAAVSP2Packet@@@Z PROC ; ioUserTournament::CreateTeamData, COMDAT
; _this$ = ecx

; 137  : {

  00000	55		 push	 ebp
  00001	8b ec		 mov	 ebp, esp
  00003	6a ff		 push	 -1
  00005	68 00 00 00 00	 push	 __ehhandler$?CreateTeamData@ioUserTournament@@QAEXAAVSP2Packet@@@Z
  0000a	64 a1 00 00 00
	00		 mov	 eax, DWORD PTR fs:0
  00010	50		 push	 eax
  00011	b8 4c 80 00 00	 mov	 eax, 32844		; 0000804cH
  00016	e8 00 00 00 00	 call	 __chkstk
  0001b	a1 00 00 00 00	 mov	 eax, DWORD PTR ___security_cookie
  00020	33 c5		 xor	 eax, ebp
  00022	89 45 f0	 mov	 DWORD PTR __$ArrayPad$[ebp], eax
  00025	53		 push	 ebx
  00026	56		 push	 esi
  00027	57		 push	 edi
  00028	50		 push	 eax
  00029	8d 45 f4	 lea	 eax, DWORD PTR __$EHRec$[ebp]
  0002c	64 a3 00 00 00
	00		 mov	 DWORD PTR fs:0, eax
  00032	8b 75 08	 mov	 esi, DWORD PTR _rkPacket$[ebp]
  00035	8b f9		 mov	 edi, ecx

; 138  : 	TeamData kTeamData;

  00037	8d 8d a8 7f ff
	ff		 lea	 ecx, DWORD PTR _kTeamData$[ebp]
  0003d	e8 00 00 00 00	 call	 ??0TeamData@@QAE@XZ	; TeamData::TeamData

; 139  : 	rkPacket >> kTeamData.m_dwTourIndex >> kTeamData.m_dwTeamIndex >> kTeamData.m_szTeamName >> kTeamData.m_dwTeamOwnerIndex;

  00042	8d 85 b0 7f ff
	ff		 lea	 eax, DWORD PTR _kTeamData$[ebp+8]
  00048	50		 push	 eax
  00049	8d 85 b4 7f ff
	ff		 lea	 eax, DWORD PTR _kTeamData$[ebp+12]
  0004f	50		 push	 eax
  00050	8d 85 ac 7f ff
	ff		 lea	 eax, DWORD PTR _kTeamData$[ebp+4]
  00056	50		 push	 eax
  00057	8d 85 a8 7f ff
	ff		 lea	 eax, DWORD PTR _kTeamData$[ebp]
  0005d	33 db		 xor	 ebx, ebx
  0005f	50		 push	 eax
  00060	8b ce		 mov	 ecx, esi
  00062	89 5d fc	 mov	 DWORD PTR __$EHRec$[ebp+8], ebx
  00065	e8 00 00 00 00	 call	 ??5SP2Packet@@QAEAAV0@AAK@Z ; SP2Packet::operator>>
  0006a	8b c8		 mov	 ecx, eax
  0006c	e8 00 00 00 00	 call	 ??5SP2Packet@@QAEAAV0@AAK@Z ; SP2Packet::operator>>
  00071	8b c8		 mov	 ecx, eax
  00073	e8 00 00 00 00	 call	 ??5SP2Packet@@QAEAAV0@AAVioHashString@@@Z ; SP2Packet::operator>>
  00078	8b c8		 mov	 ecx, eax
  0007a	e8 00 00 00 00	 call	 ??5SP2Packet@@QAEAAV0@AAK@Z ; SP2Packet::operator>>

; 140  : 
; 141  : 	if( IsAlreadyTeam( kTeamData.m_dwTeamIndex ) ) return;

  0007f	ff b5 ac 7f ff
	ff		 push	 DWORD PTR _kTeamData$[ebp+4]
  00085	8b cf		 mov	 ecx, edi
  00087	e8 00 00 00 00	 call	 ?IsAlreadyTeam@ioUserTournament@@QAE_NK@Z ; ioUserTournament::IsAlreadyTeam
  0008c	84 c0		 test	 al, al
  0008e	0f 85 e4 00 00
	00		 jne	 $LN17@CreateTeam

; 142  : 
; 143  : 	m_TeamDataList.push_back( kTeamData );

  00094	8d 85 a8 7f ff
	ff		 lea	 eax, DWORD PTR _kTeamData$[ebp]
  0009a	50		 push	 eax
  0009b	8d 4f 04	 lea	 ecx, DWORD PTR [edi+4]
  0009e	e8 00 00 00 00	 call	 ?push_back@?$vector@UTeamData@@V?$allocator@UTeamData@@@std@@@std@@QAEXABUTeamData@@@Z ; std::vector<TeamData,std::allocator<TeamData> >::push_back

; 144  : 
; 145  : 	g_TournamentTeamMgr.SetDefaultData( kTeamData );

  000a3	8d 85 a8 7f ff
	ff		 lea	 eax, DWORD PTR _kTeamData$[ebp]
  000a9	53		 push	 ebx
  000aa	50		 push	 eax
  000ab	e8 00 00 00 00	 call	 ?GetSingleton@ioTournamentTeamManager@@SAAAV1@XZ ; ioTournamentTeamManager::GetSingleton
  000b0	8b c8		 mov	 ecx, eax
  000b2	e8 00 00 00 00	 call	 ?SetDefaultData@ioTournamentTeamManager@@QAEPAVTeamGlobalData@@AAUTeamData@@_N@Z ; ioTournamentTeamManager::SetDefaultData

; 146  : 	TeamGlobalData *pSynData = g_TournamentTeamMgr.SetSyncData( kTeamData.m_dwTeamIndex, rkPacket );

  000b7	56		 push	 esi
  000b8	ff b5 ac 7f ff
	ff		 push	 DWORD PTR _kTeamData$[ebp+4]
  000be	e8 00 00 00 00	 call	 ?GetSingleton@ioTournamentTeamManager@@SAAAV1@XZ ; ioTournamentTeamManager::GetSingleton
  000c3	8b c8		 mov	 ecx, eax
  000c5	e8 00 00 00 00	 call	 ?SetSyncData@ioTournamentTeamManager@@QAEPAVTeamGlobalData@@KAAVSP2Packet@@@Z ; ioTournamentTeamManager::SetSyncData

; 147  : 
; 148  : 	m_bUpdateMainUI = true;
; 149  : 	m_bUpdateSubUI  = true;
; 150  : 
; 151  : 	bool bEntryMemberCall = false;
; 152  : 	SP2Packet kPacket( CTPK_TOURNAMENT_TEAM_USER_LIST );

  000ca	68 72 02 00 00	 push	 626			; 00000272H
  000cf	8d 8d d8 7f ff
	ff		 lea	 ecx, DWORD PTR _kPacket$[ebp]
  000d5	8b f0		 mov	 esi, eax
  000d7	66 c7 47 24 01
	01		 mov	 WORD PTR [edi+36], 257	; 00000101H
  000dd	e8 00 00 00 00	 call	 ??0SP2Packet@@QAE@K@Z	; SP2Packet::SP2Packet

; 153  : 	kPacket << kTeamData.m_dwTourIndex << kTeamData.m_dwTeamIndex << bEntryMemberCall;

  000e2	53		 push	 ebx
  000e3	ff b5 ac 7f ff
	ff		 push	 DWORD PTR _kTeamData$[ebp+4]
  000e9	8d 8d d8 7f ff
	ff		 lea	 ecx, DWORD PTR _kPacket$[ebp]
  000ef	ff b5 a8 7f ff
	ff		 push	 DWORD PTR _kTeamData$[ebp]
  000f5	c6 45 fc 01	 mov	 BYTE PTR __$EHRec$[ebp+8], 1
  000f9	e8 00 00 00 00	 call	 ??6SP2Packet@@QAEAAV0@K@Z ; SP2Packet::operator<<
  000fe	8b c8		 mov	 ecx, eax
  00100	e8 00 00 00 00	 call	 ??6SP2Packet@@QAEAAV0@K@Z ; SP2Packet::operator<<
  00105	8b c8		 mov	 ecx, eax
  00107	e8 00 00 00 00	 call	 ??6SP2Packet@@QAEAAV0@_N@Z ; SP2Packet::operator<<

; 154  : 	TCPNetwork::SendToServer( kPacket );

  0010c	8d 85 d8 7f ff
	ff		 lea	 eax, DWORD PTR _kPacket$[ebp]
  00112	50		 push	 eax
  00113	e8 00 00 00 00	 call	 ?SendToServer@TCPNetwork@@YAXAAVSP2Packet@@@Z ; TCPNetwork::SendToServer
  00118	59		 pop	 ecx

; 155  : 
; 156  : 	if( pSynData )

  00119	3b f3		 cmp	 esi, ebx
  0011b	74 4d		 je	 SHORT $LN1@CreateTeam

; 157  : 	{
; 158  : 		TournamentTeamCreateComplete *pCreateComplete = dynamic_cast< TournamentTeamCreateComplete * >( g_GUIMgr.FindWnd( TOURNAMENT_TEAM_CREATE_COMPLETE ) );

  0011d	53		 push	 ebx
  0011e	68 00 00 00 00	 push	 OFFSET ??_R0?AVTournamentTeamCreateComplete@@@8
  00123	68 00 00 00 00	 push	 OFFSET ??_R0?AVioWnd@@@8
  00128	53		 push	 ebx
  00129	68 38 18 00 00	 push	 6200			; 00001838H
  0012e	e8 00 00 00 00	 call	 ?GetSingleton@ioSP2GUIManager@@SAAAV1@XZ ; ioSP2GUIManager::GetSingleton
  00133	8b c8		 mov	 ecx, eax
  00135	ff 15 00 00 00
	00		 call	 DWORD PTR __imp_?FindWnd@ioGUIManager@@QAEPAVioWnd@@K@Z
  0013b	50		 push	 eax
  0013c	e8 00 00 00 00	 call	 ___RTDynamicCast
  00141	83 c4 14	 add	 esp, 20			; 00000014H

; 159  : 		if( pCreateComplete )

  00144	3b c3		 cmp	 eax, ebx
  00146	74 22		 je	 SHORT $LN1@CreateTeam

; 160  : 		{
; 161  : 			pCreateComplete->SetTeamData( pSynData->GetTourIndex(), pSynData->GetTeamIndex(), pSynData->GetTeamName(), pSynData->GetCampPos() );

  00148	8a 4e 40	 mov	 cl, BYTE PTR [esi+64]
  0014b	8b 56 08	 mov	 edx, DWORD PTR [esi+8]
  0014e	8b 7e 04	 mov	 edi, DWORD PTR [esi+4]
  00151	88 8d d4 7f ff
	ff		 mov	 BYTE PTR $T517129[ebp], cl
  00157	ff b5 d4 7f ff
	ff		 push	 DWORD PTR $T517129[ebp]
  0015d	83 c6 10	 add	 esi, 16			; 00000010H
  00160	56		 push	 esi
  00161	52		 push	 edx
  00162	57		 push	 edi
  00163	8b c8		 mov	 ecx, eax
  00165	e8 00 00 00 00	 call	 ?SetTeamData@TournamentTeamCreateComplete@@QAEXKKAAVioHashString@@E@Z ; TournamentTeamCreateComplete::SetTeamData
$LN1@CreateTeam:

; 162  : 		}
; 163  : 	}
; 164  : }

  0016a	8d 8d d8 7f ff
	ff		 lea	 ecx, DWORD PTR _kPacket$[ebp]
  00170	88 5d fc	 mov	 BYTE PTR __$EHRec$[ebp+8], bl
  00173	e8 00 00 00 00	 call	 ??1SP2Packet@@UAE@XZ	; SP2Packet::~SP2Packet
$LN17@CreateTeam:
  00178	83 4d fc ff	 or	 DWORD PTR __$EHRec$[ebp+8], -1
  0017c	8d 8d a8 7f ff
	ff		 lea	 ecx, DWORD PTR _kTeamData$[ebp]
  00182	e8 00 00 00 00	 call	 ??1TeamData@@QAE@XZ
  00187	8b 4d f4	 mov	 ecx, DWORD PTR __$EHRec$[ebp]
  0018a	64 89 0d 00 00
	00 00		 mov	 DWORD PTR fs:0, ecx
  00191	59		 pop	 ecx
  00192	5f		 pop	 edi
  00193	5e		 pop	 esi
  00194	5b		 pop	 ebx
  00195	8b 4d f0	 mov	 ecx, DWORD PTR __$ArrayPad$[ebp]
  00198	33 cd		 xor	 ecx, ebp
  0019a	e8 00 00 00 00	 call	 @__security_check_cookie@4
  0019f	c9		 leave
  001a0	c2 04 00	 ret	 4
_TEXT	ENDS
;	COMDAT text$x
text$x	SEGMENT
__unwindfunclet$?CreateTeamData@ioUserTournament@@QAEXAAVSP2Packet@@@Z$0:
  00000	8d 8d a8 7f ff
	ff		 lea	 ecx, DWORD PTR _kTeamData$[ebp]
  00006	e9 00 00 00 00	 jmp	 ??1TeamData@@QAE@XZ
__unwindfunclet$?CreateTeamData@ioUserTournament@@QAEXAAVSP2Packet@@@Z$1:
  0000b	8d 8d d8 7f ff
	ff		 lea	 ecx, DWORD PTR _kPacket$[ebp]
  00011	e9 00 00 00 00	 jmp	 ??1SP2Packet@@UAE@XZ	; SP2Packet::~SP2Packet
__ehhandler$?CreateTeamData@ioUserTournament@@QAEXAAVSP2Packet@@@Z:
  00016	8b 54 24 08	 mov	 edx, DWORD PTR [esp+8]
  0001a	8d 42 0c	 lea	 eax, DWORD PTR [edx+12]
  0001d	8b 8a a4 7f ff
	ff		 mov	 ecx, DWORD PTR [edx-32860]
  00023	33 c8		 xor	 ecx, eax
  00025	e8 00 00 00 00	 call	 @__security_check_cookie@4
  0002a	8b 4a fc	 mov	 ecx, DWORD PTR [edx-4]
  0002d	33 c8		 xor	 ecx, eax
  0002f	e8 00 00 00 00	 call	 @__security_check_cookie@4
  00034	b8 00 00 00 00	 mov	 eax, OFFSET __ehfuncinfo$?CreateTeamData@ioUserTournament@@QAEXAAVSP2Packet@@@Z
  00039	e9 00 00 00 00	 jmp	 ___CxxFrameHandler3
text$x	ENDS
?CreateTeamData@ioUserTournament@@QAEXAAVSP2Packet@@@Z ENDP ; ioUserTournament::CreateTeamData
PUBLIC	__$ArrayPad$
PUBLIC	?JoinTeamData@ioUserTournament@@QAEXAAVSP2Packet@@@Z ; ioUserTournament::JoinTeamData
EXTRN	?GetTeamData@ioTournamentTeamManager@@QAEPAVTeamGlobalData@@K_N@Z:PROC ; ioTournamentTeamManager::GetTeamData
;	COMDAT xdata$x
; File d:\lost saga for developer\youtube\tutorial\source\src\lsclient\iotournamentteammanager.h
xdata$x	SEGMENT
__unwindtable$?JoinTeamData@ioUserTournament@@QAEXAAVSP2Packet@@@Z DD 0ffffffffH
	DD	FLAT:__unwindfunclet$?JoinTeamData@ioUserTournament@@QAEXAAVSP2Packet@@@Z$0
	DD	00H
	DD	FLAT:__unwindfunclet$?JoinTeamData@ioUserTournament@@QAEXAAVSP2Packet@@@Z$1
__ehfuncinfo$?JoinTeamData@ioUserTournament@@QAEXAAVSP2Packet@@@Z DD 019930522H
	DD	02H
	DD	FLAT:__unwindtable$?JoinTeamData@ioUserTournament@@QAEXAAVSP2Packet@@@Z
	DD	2 DUP(00H)
	DD	2 DUP(00H)
	DD	00H
	DD	01H
; Function compile flags: /Ogsp
; File d:\lost saga for developer\youtube\tutorial\source\src\lsclient\iousertournament.cpp
xdata$x	ENDS
;	COMDAT ?JoinTeamData@ioUserTournament@@QAEXAAVSP2Packet@@@Z
_TEXT	SEGMENT
_kTeamData$ = -32860					; size = 44
_Position$ = -32816					; size = 2
_TourPos$ = -32809					; size = 1
_kPacket$ = -32808					; size = 32792
__$ArrayPad$ = -16					; size = 4
__$EHRec$ = -12						; size = 12
_rkPacket$ = 8						; size = 4
?JoinTeamData@ioUserTournament@@QAEXAAVSP2Packet@@@Z PROC ; ioUserTournament::JoinTeamData, COMDAT
; _this$ = ecx

; 167  : {

  00000	55		 push	 ebp
  00001	8b ec		 mov	 ebp, esp
  00003	6a ff		 push	 -1
  00005	68 00 00 00 00	 push	 __ehhandler$?JoinTeamData@ioUserTournament@@QAEXAAVSP2Packet@@@Z
  0000a	64 a1 00 00 00
	00		 mov	 eax, DWORD PTR fs:0
  00010	50		 push	 eax
  00011	b8 50 80 00 00	 mov	 eax, 32848		; 00008050H
  00016	e8 00 00 00 00	 call	 __chkstk
  0001b	a1 00 00 00 00	 mov	 eax, DWORD PTR ___security_cookie
  00020	33 c5		 xor	 eax, ebp
  00022	89 45 f0	 mov	 DWORD PTR __$ArrayPad$[ebp], eax
  00025	53		 push	 ebx
  00026	56		 push	 esi
  00027	57		 push	 edi
  00028	50		 push	 eax
  00029	8d 45 f4	 lea	 eax, DWORD PTR __$EHRec$[ebp]
  0002c	64 a3 00 00 00
	00		 mov	 DWORD PTR fs:0, eax
  00032	8b 7d 08	 mov	 edi, DWORD PTR _rkPacket$[ebp]
  00035	8b f1		 mov	 esi, ecx

; 168  : 	BYTE  TourPos;
; 169  : 	SHORT Position;
; 170  : 	TeamData kTeamData;

  00037	8d 8d a4 7f ff
	ff		 lea	 ecx, DWORD PTR _kTeamData$[ebp]
  0003d	e8 00 00 00 00	 call	 ??0TeamData@@QAE@XZ	; TeamData::TeamData

; 171  : 	rkPacket >> kTeamData.m_dwTourIndex >> kTeamData.m_dwTeamIndex >> kTeamData.m_szTeamName >> kTeamData.m_dwTeamOwnerIndex >> Position >> TourPos;	

  00042	8d 85 d7 7f ff
	ff		 lea	 eax, DWORD PTR _TourPos$[ebp]
  00048	50		 push	 eax
  00049	8d 85 d0 7f ff
	ff		 lea	 eax, DWORD PTR _Position$[ebp]
  0004f	50		 push	 eax
  00050	8d 85 ac 7f ff
	ff		 lea	 eax, DWORD PTR _kTeamData$[ebp+8]
  00056	50		 push	 eax
  00057	8d 85 b0 7f ff
	ff		 lea	 eax, DWORD PTR _kTeamData$[ebp+12]
  0005d	50		 push	 eax
  0005e	8d 85 a8 7f ff
	ff		 lea	 eax, DWORD PTR _kTeamData$[ebp+4]
  00064	50		 push	 eax
  00065	8d 85 a4 7f ff
	ff		 lea	 eax, DWORD PTR _kTeamData$[ebp]
  0006b	33 db		 xor	 ebx, ebx
  0006d	50		 push	 eax
  0006e	8b cf		 mov	 ecx, edi
  00070	89 5d fc	 mov	 DWORD PTR __$EHRec$[ebp+8], ebx
  00073	e8 00 00 00 00	 call	 ??5SP2Packet@@QAEAAV0@AAK@Z ; SP2Packet::operator>>
  00078	8b c8		 mov	 ecx, eax
  0007a	e8 00 00 00 00	 call	 ??5SP2Packet@@QAEAAV0@AAK@Z ; SP2Packet::operator>>
  0007f	8b c8		 mov	 ecx, eax
  00081	e8 00 00 00 00	 call	 ??5SP2Packet@@QAEAAV0@AAVioHashString@@@Z ; SP2Packet::operator>>
  00086	8b c8		 mov	 ecx, eax
  00088	e8 00 00 00 00	 call	 ??5SP2Packet@@QAEAAV0@AAK@Z ; SP2Packet::operator>>
  0008d	8b c8		 mov	 ecx, eax
  0008f	e8 00 00 00 00	 call	 ??5SP2Packet@@QAEAAV0@AAF@Z ; SP2Packet::operator>>
  00094	8b c8		 mov	 ecx, eax
  00096	e8 00 00 00 00	 call	 ??5SP2Packet@@QAEAAV0@AAE@Z ; SP2Packet::operator>>

; 172  : 
; 173  : 	TeamGlobalData *pTeamGlobalData = g_TournamentTeamMgr.GetTeamData( kTeamData.m_dwTeamIndex, false );

  0009b	53		 push	 ebx
  0009c	ff b5 a8 7f ff
	ff		 push	 DWORD PTR _kTeamData$[ebp+4]
  000a2	e8 00 00 00 00	 call	 ?GetSingleton@ioTournamentTeamManager@@SAAAV1@XZ ; ioTournamentTeamManager::GetSingleton
  000a7	8b c8		 mov	 ecx, eax
  000a9	e8 00 00 00 00	 call	 ?GetTeamData@ioTournamentTeamManager@@QAEPAVTeamGlobalData@@K_N@Z ; ioTournamentTeamManager::GetTeamData

; 174  : 	if( pTeamGlobalData )

  000ae	3b c3		 cmp	 eax, ebx
  000b0	74 14		 je	 SHORT $LN10@JoinTeamDa

; 175  : 	{
; 176  : 		pTeamGlobalData->SetPosition( Position );

  000b2	66 8b 8d d0 7f
	ff ff		 mov	 cx, WORD PTR _Position$[ebp]
  000b9	66 89 48 30	 mov	 WORD PTR [eax+48], cx

; 177  : 		pTeamGlobalData->SetTourPos( TourPos );

  000bd	8a 8d d7 7f ff
	ff		 mov	 cl, BYTE PTR _TourPos$[ebp]
  000c3	88 48 38	 mov	 BYTE PTR [eax+56], cl
$LN10@JoinTeamDa:

; 178  : 	}
; 179  : 
; 180  : 	if( IsAlreadyTeam( kTeamData.m_dwTeamIndex ) ) return;

  000c6	ff b5 a8 7f ff
	ff		 push	 DWORD PTR _kTeamData$[ebp+4]
  000cc	8b ce		 mov	 ecx, esi
  000ce	e8 00 00 00 00	 call	 ?IsAlreadyTeam@ioUserTournament@@QAE_NK@Z ; ioUserTournament::IsAlreadyTeam
  000d3	84 c0		 test	 al, al
  000d5	0f 85 aa 00 00
	00		 jne	 $LN13@JoinTeamDa

; 181  : 
; 182  : 	m_TeamDataList.push_back( kTeamData );

  000db	8d 85 a4 7f ff
	ff		 lea	 eax, DWORD PTR _kTeamData$[ebp]
  000e1	50		 push	 eax
  000e2	8d 4e 04	 lea	 ecx, DWORD PTR [esi+4]
  000e5	e8 00 00 00 00	 call	 ?push_back@?$vector@UTeamData@@V?$allocator@UTeamData@@@std@@@std@@QAEXABUTeamData@@@Z ; std::vector<TeamData,std::allocator<TeamData> >::push_back

; 183  : 	
; 184  : 	m_bUpdateMainUI = true;
; 185  : 	m_bUpdateSubUI  = true;
; 186  : 
; 187  : 	bool bEntryMemberCall = false;
; 188  : 	SP2Packet kPacket( CTPK_TOURNAMENT_TEAM_USER_LIST );

  000ea	68 72 02 00 00	 push	 626			; 00000272H
  000ef	8d 8d d8 7f ff
	ff		 lea	 ecx, DWORD PTR _kPacket$[ebp]
  000f5	66 c7 46 24 01
	01		 mov	 WORD PTR [esi+36], 257	; 00000101H
  000fb	e8 00 00 00 00	 call	 ??0SP2Packet@@QAE@K@Z	; SP2Packet::SP2Packet

; 189  : 	kPacket << kTeamData.m_dwTourIndex << kTeamData.m_dwTeamIndex << bEntryMemberCall;

  00100	53		 push	 ebx
  00101	ff b5 a8 7f ff
	ff		 push	 DWORD PTR _kTeamData$[ebp+4]
  00107	8d 8d d8 7f ff
	ff		 lea	 ecx, DWORD PTR _kPacket$[ebp]
  0010d	ff b5 a4 7f ff
	ff		 push	 DWORD PTR _kTeamData$[ebp]
  00113	c6 45 fc 01	 mov	 BYTE PTR __$EHRec$[ebp+8], 1
  00117	e8 00 00 00 00	 call	 ??6SP2Packet@@QAEAAV0@K@Z ; SP2Packet::operator<<
  0011c	8b c8		 mov	 ecx, eax
  0011e	e8 00 00 00 00	 call	 ??6SP2Packet@@QAEAAV0@K@Z ; SP2Packet::operator<<
  00123	8b c8		 mov	 ecx, eax
  00125	e8 00 00 00 00	 call	 ??6SP2Packet@@QAEAAV0@_N@Z ; SP2Packet::operator<<

; 190  : 	TCPNetwork::SendToServer( kPacket );

  0012a	8d 85 d8 7f ff
	ff		 lea	 eax, DWORD PTR _kPacket$[ebp]
  00130	50		 push	 eax
  00131	e8 00 00 00 00	 call	 ?SendToServer@TCPNetwork@@YAXAAVSP2Packet@@@Z ; TCPNetwork::SendToServer
  00136	59		 pop	 ecx

; 191  : 
; 192  : 	//  UI 
; 193  : 	TournamentTeamEventWnd *pTeamEventWnd = dynamic_cast< TournamentTeamEventWnd * >( g_GUIMgr.FindWnd( TOURNAMENT_TEAM_EVENT_WND ) );

  00137	53		 push	 ebx
  00138	68 00 00 00 00	 push	 OFFSET ??_R0?AVTournamentTeamEventWnd@@@8
  0013d	68 00 00 00 00	 push	 OFFSET ??_R0?AVioWnd@@@8
  00142	53		 push	 ebx
  00143	68 34 18 00 00	 push	 6196			; 00001834H
  00148	e8 00 00 00 00	 call	 ?GetSingleton@ioSP2GUIManager@@SAAAV1@XZ ; ioSP2GUIManager::GetSingleton
  0014d	8b c8		 mov	 ecx, eax
  0014f	ff 15 00 00 00
	00		 call	 DWORD PTR __imp_?FindWnd@ioGUIManager@@QAEPAVioWnd@@K@Z
  00155	50		 push	 eax
  00156	e8 00 00 00 00	 call	 ___RTDynamicCast
  0015b	83 c4 14	 add	 esp, 20			; 00000014H

; 194  : 	if( pTeamEventWnd )

  0015e	3b c3		 cmp	 eax, ebx
  00160	74 15		 je	 SHORT $LN1@JoinTeamDa

; 195  : 	{
; 196  : 		pTeamEventWnd->SetTeamEventData( kTeamData.m_dwTourIndex, kTeamData.m_dwTeamIndex, TournamentTeamEventWnd::EVENT_TYPE_JOIN );

  00162	6a 01		 push	 1
  00164	ff b5 a8 7f ff
	ff		 push	 DWORD PTR _kTeamData$[ebp+4]
  0016a	8b c8		 mov	 ecx, eax
  0016c	ff b5 a4 7f ff
	ff		 push	 DWORD PTR _kTeamData$[ebp]
  00172	e8 00 00 00 00	 call	 ?SetTeamEventData@TournamentTeamEventWnd@@QAEXKKK@Z ; TournamentTeamEventWnd::SetTeamEventData
$LN1@JoinTeamDa:

; 197  : 	}
; 198  : }

  00177	8d 8d d8 7f ff
	ff		 lea	 ecx, DWORD PTR _kPacket$[ebp]
  0017d	88 5d fc	 mov	 BYTE PTR __$EHRec$[ebp+8], bl
  00180	e8 00 00 00 00	 call	 ??1SP2Packet@@UAE@XZ	; SP2Packet::~SP2Packet
$LN13@JoinTeamDa:
  00185	83 4d fc ff	 or	 DWORD PTR __$EHRec$[ebp+8], -1
  00189	8d 8d a4 7f ff
	ff		 lea	 ecx, DWORD PTR _kTeamData$[ebp]
  0018f	e8 00 00 00 00	 call	 ??1TeamData@@QAE@XZ
  00194	8b 4d f4	 mov	 ecx, DWORD PTR __$EHRec$[ebp]
  00197	64 89 0d 00 00
	00 00		 mov	 DWORD PTR fs:0, ecx
  0019e	59		 pop	 ecx
  0019f	5f		 pop	 edi
  001a0	5e		 pop	 esi
  001a1	5b		 pop	 ebx
  001a2	8b 4d f0	 mov	 ecx, DWORD PTR __$ArrayPad$[ebp]
  001a5	33 cd		 xor	 ecx, ebp
  001a7	e8 00 00 00 00	 call	 @__security_check_cookie@4
  001ac	c9		 leave
  001ad	c2 04 00	 ret	 4
_TEXT	ENDS
;	COMDAT text$x
text$x	SEGMENT
__unwindfunclet$?JoinTeamData@ioUserTournament@@QAEXAAVSP2Packet@@@Z$0:
  00000	8d 8d a4 7f ff
	ff		 lea	 ecx, DWORD PTR _kTeamData$[ebp]
  00006	e9 00 00 00 00	 jmp	 ??1TeamData@@QAE@XZ
__unwindfunclet$?JoinTeamData@ioUserTournament@@QAEXAAVSP2Packet@@@Z$1:
  0000b	8d 8d d8 7f ff
	ff		 lea	 ecx, DWORD PTR _kPacket$[ebp]
  00011	e9 00 00 00 00	 jmp	 ??1SP2Packet@@UAE@XZ	; SP2Packet::~SP2Packet
__ehhandler$?JoinTeamData@ioUserTournament@@QAEXAAVSP2Packet@@@Z:
  00016	8b 54 24 08	 mov	 edx, DWORD PTR [esp+8]
  0001a	8d 42 0c	 lea	 eax, DWORD PTR [edx+12]
  0001d	8b 8a a0 7f ff
	ff		 mov	 ecx, DWORD PTR [edx-32864]
  00023	33 c8		 xor	 ecx, eax
  00025	e8 00 00 00 00	 call	 @__security_check_cookie@4
  0002a	8b 4a fc	 mov	 ecx, DWORD PTR [edx-4]
  0002d	33 c8		 xor	 ecx, eax
  0002f	e8 00 00 00 00	 call	 @__security_check_cookie@4
  00034	b8 00 00 00 00	 mov	 eax, OFFSET __ehfuncinfo$?JoinTeamData@ioUserTournament@@QAEXAAVSP2Packet@@@Z
  00039	e9 00 00 00 00	 jmp	 ___CxxFrameHandler3
text$x	ENDS
?JoinTeamData@ioUserTournament@@QAEXAAVSP2Packet@@@Z ENDP ; ioUserTournament::JoinTeamData
PUBLIC	?GetTeamList@ioUserTournament@@QAEXAAV?$vector@UTeamData@@V?$allocator@UTeamData@@@std@@@std@@@Z ; ioUserTournament::GetTeamList
; Function compile flags: /Ogsp
;	COMDAT ?GetTeamList@ioUserTournament@@QAEXAAV?$vector@UTeamData@@V?$allocator@UTeamData@@@std@@@std@@@Z
_TEXT	SEGMENT
_rkTeamList$ = 8					; size = 4
?GetTeamList@ioUserTournament@@QAEXAAV?$vector@UTeamData@@V?$allocator@UTeamData@@@std@@@std@@@Z PROC ; ioUserTournament::GetTeamList, COMDAT
; _this$ = ecx

; 392  : {

  00000	55		 push	 ebp
  00001	8b ec		 mov	 ebp, esp
  00003	56		 push	 esi
  00004	57		 push	 edi
  00005	8b f9		 mov	 edi, ecx

; 393  : 	TeamDataVec::iterator iter = m_TeamDataList.begin();

  00007	8b 77 04	 mov	 esi, DWORD PTR [edi+4]
  0000a	eb 0c		 jmp	 SHORT $LN38@GetTeamLis

; 394  : 	for(;iter != m_TeamDataList.end();++iter)

$LL16@GetTeamLis:

; 395  : 	{
; 396  : 		rkTeamList.push_back( *iter );

  0000c	8b 4d 08	 mov	 ecx, DWORD PTR _rkTeamList$[ebp]
  0000f	56		 push	 esi
  00010	e8 00 00 00 00	 call	 ?push_back@?$vector@UTeamData@@V?$allocator@UTeamData@@@std@@@std@@QAEXABUTeamData@@@Z ; std::vector<TeamData,std::allocator<TeamData> >::push_back
  00015	83 c6 2c	 add	 esi, 44			; 0000002cH
$LN38@GetTeamLis:

; 394  : 	for(;iter != m_TeamDataList.end();++iter)

  00018	3b 77 08	 cmp	 esi, DWORD PTR [edi+8]
  0001b	75 ef		 jne	 SHORT $LL16@GetTeamLis
  0001d	5f		 pop	 edi
  0001e	5e		 pop	 esi

; 397  : 	}
; 398  : }

  0001f	5d		 pop	 ebp
  00020	c2 04 00	 ret	 4
?GetTeamList@ioUserTournament@@QAEXAAV?$vector@UTeamData@@V?$allocator@UTeamData@@@std@@@std@@@Z ENDP ; ioUserTournament::GetTeamList
; Function compile flags: /Ogsp
_TEXT	ENDS
;	COMDAT ??_GioUserTournament@@UAEPAXI@Z
_TEXT	SEGMENT
___flags$ = 8						; size = 4
??_GioUserTournament@@UAEPAXI@Z PROC			; ioUserTournament::`scalar deleting destructor', COMDAT
; _this$ = ecx
  00000	55		 push	 ebp
  00001	8b ec		 mov	 ebp, esp
  00003	56		 push	 esi
  00004	8b f1		 mov	 esi, ecx
  00006	e8 00 00 00 00	 call	 ??1ioUserTournament@@UAE@XZ ; ioUserTournament::~ioUserTournament
  0000b	f6 45 08 01	 test	 BYTE PTR ___flags$[ebp], 1
  0000f	74 07		 je	 SHORT $LN1@scalar@4
  00011	56		 push	 esi
  00012	e8 00 00 00 00	 call	 ??3@YAXPAX@Z		; operator delete
  00017	59		 pop	 ecx
$LN1@scalar@4:
  00018	8b c6		 mov	 eax, esi
  0001a	5e		 pop	 esi
  0001b	5d		 pop	 ebp
  0001c	c2 04 00	 ret	 4
??_GioUserTournament@@UAEPAXI@Z ENDP			; ioUserTournament::`scalar deleting destructor'
; Function compile flags: /Ogsp
_TEXT	ENDS
;	COMDAT ??__FstNull@?L@??GetTeamUserName@ioUserTournament@@QAEAAVioHashString@@KK@Z@YAXXZ
text$yd	SEGMENT
??__FstNull@?L@??GetTeamUserName@ioUserTournament@@QAEAAVioHashString@@KK@Z@YAXXZ PROC ; `ioUserTournament::GetTeamUserName'::`11'::`dynamic atexit destructor for 'stNull'', COMDAT
  00000	b9 00 00 00 00	 mov	 ecx, OFFSET ?stNull@?L@??GetTeamUserName@ioUserTournament@@QAEAAVioHashString@@KK@Z@4V3@A
  00005	ff 25 00 00 00
	00		 jmp	 DWORD PTR __imp_??1ioHashString@@QAE@XZ
??__FstNull@?L@??GetTeamUserName@ioUserTournament@@QAEAAVioHashString@@KK@Z@YAXXZ ENDP ; `ioUserTournament::GetTeamUserName'::`11'::`dynamic atexit destructor for 'stNull''
; Function compile flags: /Ogsp
text$yd	ENDS
;	COMDAT ??__FstNull@?L@??GetTeamUserData@ioUserTournament@@QAE?AUTeamUserData@@KABVioHashString@@@Z@YAXXZ
text$yd	SEGMENT
??__FstNull@?L@??GetTeamUserData@ioUserTournament@@QAE?AUTeamUserData@@KABVioHashString@@@Z@YAXXZ PROC ; `ioUserTournament::GetTeamUserData'::`11'::`dynamic atexit destructor for 'stNull'', COMDAT
  00000	b9 08 00 00 00	 mov	 ecx, OFFSET ?stNull@?L@??GetTeamUserData@ioUserTournament@@QAE?AUTeamUserData@@KABVioHashString@@@Z@4U3@A+8
  00005	ff 25 00 00 00
	00		 jmp	 DWORD PTR __imp_??1ioHashString@@QAE@XZ
??__FstNull@?L@??GetTeamUserData@ioUserTournament@@QAE?AUTeamUserData@@KABVioHashString@@@Z@YAXXZ ENDP ; `ioUserTournament::GetTeamUserData'::`11'::`dynamic atexit destructor for 'stNull''
; Function compile flags: /Ogsp
text$yd	ENDS
;	COMDAT ??__FstNull@?5??GetTeamData@ioUserTournament@@QAEAAUTeamData@@K@Z@YAXXZ
text$yd	SEGMENT
??__FstNull@?5??GetTeamData@ioUserTournament@@QAEAAUTeamData@@K@Z@YAXXZ PROC ; `ioUserTournament::GetTeamData'::`6'::`dynamic atexit destructor for 'stNull'', COMDAT
  00000	b9 00 00 00 00	 mov	 ecx, OFFSET ?stNull@?5??GetTeamData@ioUserTournament@@QAEAAUTeamData@@K@Z@4U3@A
  00005	e9 00 00 00 00	 jmp	 ??1TeamData@@QAE@XZ
??__FstNull@?5??GetTeamData@ioUserTournament@@QAEAAUTeamData@@K@Z@YAXXZ ENDP ; `ioUserTournament::GetTeamData'::`6'::`dynamic atexit destructor for 'stNull''
text$yd	ENDS
END
