; Listing generated by Microsoft (R) Optimizing Compiler Version 16.00.30319.01 

	TITLE	D:\Lost Saga For Developer\Youtube\Tutorial\Source\src\LSClient\Housing\ioUserBlockStorage.cpp
	.686P
	.XMM
	include listing.inc
	.model	flat

INCLUDELIB MSVCRT
INCLUDELIB OLDNAMES

PUBLIC	??0TilePos@@QAE@HHH@Z				; TilePos::TilePos
; Function compile flags: /Ogsp
; File d:\lost saga for developer\youtube\tutorial\source\src\lsclient\housing\blockdefine.h
;	COMDAT ??0TilePos@@QAE@HHH@Z
_TEXT	SEGMENT
_nX$ = 8						; size = 4
_nY$ = 12						; size = 4
_nZ$ = 16						; size = 4
??0TilePos@@QAE@HHH@Z PROC				; TilePos::TilePos, COMDAT
; _this$ = ecx

; 96   : 	TilePos( int nX, int nY, int nZ )

  00000	55		 push	 ebp
  00001	8b ec		 mov	 ebp, esp
  00003	8b c1		 mov	 eax, ecx

; 97   : 	{
; 98   : 		x		= nX;

  00005	8b 4d 08	 mov	 ecx, DWORD PTR _nX$[ebp]

; 99   : 		y		= nY;
; 100  : 		z		= nZ;
; 101  : 		event	= 0;

  00008	83 60 0c 00	 and	 DWORD PTR [eax+12], 0
  0000c	89 08		 mov	 DWORD PTR [eax], ecx
  0000e	8b 4d 0c	 mov	 ecx, DWORD PTR _nY$[ebp]
  00011	89 48 08	 mov	 DWORD PTR [eax+8], ecx
  00014	8b 4d 10	 mov	 ecx, DWORD PTR _nZ$[ebp]
  00017	89 48 04	 mov	 DWORD PTR [eax+4], ecx

; 102  : 	}

  0001a	5d		 pop	 ebp
  0001b	c2 0c 00	 ret	 12			; 0000000cH
??0TilePos@@QAE@HHH@Z ENDP				; TilePos::TilePos
_TEXT	ENDS
PUBLIC	??0InvenBlockItem@ioUserBlockStorage@@QAE@XZ	; ioUserBlockStorage::InvenBlockItem::InvenBlockItem
EXTRN	__imp_??1ioHashString@@QAE@XZ:PROC
EXTRN	__imp_??0ioHashString@@QAE@XZ:PROC
EXTRN	___CxxFrameHandler3:PROC
EXTRN	@__security_check_cookie@4:PROC
EXTRN	__EH_epilog3:PROC
EXTRN	__EH_prolog3:PROC
;	COMDAT xdata$x
; File d:\lost saga for developer\youtube\tutorial\source\src\lsclient\housing\iouserblockstorage.h
xdata$x	SEGMENT
__unwindtable$??0InvenBlockItem@ioUserBlockStorage@@QAE@XZ DD 0ffffffffH
	DD	FLAT:__unwindfunclet$??0InvenBlockItem@ioUserBlockStorage@@QAE@XZ$0
__ehfuncinfo$??0InvenBlockItem@ioUserBlockStorage@@QAE@XZ DD 019930522H
	DD	01H
	DD	FLAT:__unwindtable$??0InvenBlockItem@ioUserBlockStorage@@QAE@XZ
	DD	2 DUP(00H)
	DD	2 DUP(00H)
	DD	00H
	DD	01H
; Function compile flags: /Ogsp
xdata$x	ENDS
;	COMDAT ??0InvenBlockItem@ioUserBlockStorage@@QAE@XZ
_TEXT	SEGMENT
_this$ = -16						; size = 4
__$EHRec$ = -12						; size = 12
??0InvenBlockItem@ioUserBlockStorage@@QAE@XZ PROC	; ioUserBlockStorage::InvenBlockItem::InvenBlockItem, COMDAT
; _this$ = ecx

; 29   : 		InvenBlockItem()

  00000	6a 04		 push	 4
  00002	b8 00 00 00 00	 mov	 eax, __ehhandler$??0InvenBlockItem@ioUserBlockStorage@@QAE@XZ
  00007	e8 00 00 00 00	 call	 __EH_prolog3
  0000c	8b f1		 mov	 esi, ecx
  0000e	89 75 f0	 mov	 DWORD PTR _this$[ebp], esi
  00011	8b 3d 00 00 00
	00		 mov	 edi, DWORD PTR __imp_??0ioHashString@@QAE@XZ
  00017	ff d7		 call	 edi
  00019	33 db		 xor	 ebx, ebx
  0001b	8d 4e 10	 lea	 ecx, DWORD PTR [esi+16]
  0001e	89 5d fc	 mov	 DWORD PTR __$EHRec$[ebp+8], ebx
  00021	ff d7		 call	 edi

; 30   : 		{
; 31   : 			m_nBlockCode	= 0;

  00023	89 5e 20	 mov	 DWORD PTR [esi+32], ebx

; 32   : 			m_nEtcCode		= 0;			

  00026	89 5e 28	 mov	 DWORD PTR [esi+40], ebx

; 33   : 			m_nManualIdx	= 0;

  00029	89 5e 2c	 mov	 DWORD PTR [esi+44], ebx

; 34   : 			m_nCount		= 0;

  0002c	89 5e 30	 mov	 DWORD PTR [esi+48], ebx

; 35   : 			m_nItemCategory	= 0;

  0002f	89 5e 34	 mov	 DWORD PTR [esi+52], ebx

; 36   : 		}

  00032	8b c6		 mov	 eax, esi
  00034	e8 00 00 00 00	 call	 __EH_epilog3
  00039	c3		 ret	 0
_TEXT	ENDS
;	COMDAT text$x
text$x	SEGMENT
__unwindfunclet$??0InvenBlockItem@ioUserBlockStorage@@QAE@XZ$0:
  00000	8b 4d f0	 mov	 ecx, DWORD PTR _this$[ebp]
  00003	ff 25 00 00 00
	00		 jmp	 DWORD PTR __imp_??1ioHashString@@QAE@XZ
__ehhandler$??0InvenBlockItem@ioUserBlockStorage@@QAE@XZ:
  00009	8b 54 24 08	 mov	 edx, DWORD PTR [esp+8]
  0000d	8d 42 0c	 lea	 eax, DWORD PTR [edx+12]
  00010	8b 4a ec	 mov	 ecx, DWORD PTR [edx-20]
  00013	33 c8		 xor	 ecx, eax
  00015	e8 00 00 00 00	 call	 @__security_check_cookie@4
  0001a	b8 00 00 00 00	 mov	 eax, OFFSET __ehfuncinfo$??0InvenBlockItem@ioUserBlockStorage@@QAE@XZ
  0001f	e9 00 00 00 00	 jmp	 ___CxxFrameHandler3
text$x	ENDS
??0InvenBlockItem@ioUserBlockStorage@@QAE@XZ ENDP	; ioUserBlockStorage::InvenBlockItem::InvenBlockItem
PUBLIC	??RInvenBlockItemSort@ioUserBlockStorage@@QBE_NABUInvenBlockItem@1@0@Z ; ioUserBlockStorage::InvenBlockItemSort::operator()
; Function compile flags: /Ogsp
;	COMDAT ??RInvenBlockItemSort@ioUserBlockStorage@@QBE_NABUInvenBlockItem@1@0@Z
_TEXT	SEGMENT
_lhs$ = 8						; size = 4
_rhs$ = 12						; size = 4
??RInvenBlockItemSort@ioUserBlockStorage@@QBE_NABUInvenBlockItem@1@0@Z PROC ; ioUserBlockStorage::InvenBlockItemSort::operator(), COMDAT
; _this$ = ecx

; 44   : 		{

  00000	55		 push	 ebp
  00001	8b ec		 mov	 ebp, esp

; 45   : 			if( lhs.m_nOrder < rhs.m_nOrder )

  00003	8b 45 08	 mov	 eax, DWORD PTR _lhs$[ebp]
  00006	8b 40 24	 mov	 eax, DWORD PTR [eax+36]
  00009	8b 4d 0c	 mov	 ecx, DWORD PTR _rhs$[ebp]
  0000c	3b 41 24	 cmp	 eax, DWORD PTR [ecx+36]
  0000f	0f 9c c0	 setl	 al

; 46   : 				return true;
; 47   : 
; 48   : 			return false;
; 49   : 		}

  00012	5d		 pop	 ebp
  00013	c2 08 00	 ret	 8
??RInvenBlockItemSort@ioUserBlockStorage@@QBE_NABUInvenBlockItem@1@0@Z ENDP ; ioUserBlockStorage::InvenBlockItemSort::operator()
_TEXT	ENDS
PUBLIC	?GetOrder@ioBlockProperty@@QBEHXZ		; ioBlockProperty::GetOrder
; Function compile flags: /Ogsp
; File d:\lost saga for developer\youtube\tutorial\source\src\lsclient\housing\ioblockproperty.h
;	COMDAT ?GetOrder@ioBlockProperty@@QBEHXZ
_TEXT	SEGMENT
?GetOrder@ioBlockProperty@@QBEHXZ PROC			; ioBlockProperty::GetOrder, COMDAT
; _this$ = ecx

; 134  : 	int GetOrder() const { return m_nOrder; }

  00000	8b 41 08	 mov	 eax, DWORD PTR [ecx+8]
  00003	c3		 ret	 0
?GetOrder@ioBlockProperty@@QBEHXZ ENDP			; ioBlockProperty::GetOrder
_TEXT	ENDS
PUBLIC	?GetItemCategory@ioBlockProperty@@QBE?AW4ItemCategory@1@XZ ; ioBlockProperty::GetItemCategory
; Function compile flags: /Ogsp
;	COMDAT ?GetItemCategory@ioBlockProperty@@QBE?AW4ItemCategory@1@XZ
_TEXT	SEGMENT
?GetItemCategory@ioBlockProperty@@QBE?AW4ItemCategory@1@XZ PROC ; ioBlockProperty::GetItemCategory, COMDAT
; _this$ = ecx

; 137  : 	ioBlockProperty::ItemCategory GetItemCategory() const { return m_eItemCategory; }

  00000	8b 41 10	 mov	 eax, DWORD PTR [ecx+16]
  00003	c3		 ret	 0
?GetItemCategory@ioBlockProperty@@QBE?AW4ItemCategory@1@XZ ENDP ; ioBlockProperty::GetItemCategory
_TEXT	ENDS
PUBLIC	?GetName@ioBlockProperty@@QBEABVioHashString@@XZ ; ioBlockProperty::GetName
; Function compile flags: /Ogsp
;	COMDAT ?GetName@ioBlockProperty@@QBEABVioHashString@@XZ
_TEXT	SEGMENT
?GetName@ioBlockProperty@@QBEABVioHashString@@XZ PROC	; ioBlockProperty::GetName, COMDAT
; _this$ = ecx

; 142  : 	const ioHashString& GetName() const { return m_Name; }

  00000	8d 41 24	 lea	 eax, DWORD PTR [ecx+36]
  00003	c3		 ret	 0
?GetName@ioBlockProperty@@QBEABVioHashString@@XZ ENDP	; ioBlockProperty::GetName
_TEXT	ENDS
PUBLIC	?GetIconName@ioBlockProperty@@QBEABVioHashString@@XZ ; ioBlockProperty::GetIconName
; Function compile flags: /Ogsp
;	COMDAT ?GetIconName@ioBlockProperty@@QBEABVioHashString@@XZ
_TEXT	SEGMENT
?GetIconName@ioBlockProperty@@QBEABVioHashString@@XZ PROC ; ioBlockProperty::GetIconName, COMDAT
; _this$ = ecx

; 144  : 	const ioHashString& GetIconName() const { return m_IconName; }

  00000	8d 41 44	 lea	 eax, DWORD PTR [ecx+68]
  00003	c3		 ret	 0
?GetIconName@ioBlockProperty@@QBEABVioHashString@@XZ ENDP ; ioBlockProperty::GetIconName
_TEXT	ENDS
PUBLIC	?GetBlockDBItemContainer@ioUserBlockStorage@@QAEPAUioBlockDBItemContainer@@XZ ; ioUserBlockStorage::GetBlockDBItemContainer
; Function compile flags: /Ogsp
; File d:\lost saga for developer\youtube\tutorial\source\src\lsclient\housing\iouserblockstorage.cpp
;	COMDAT ?GetBlockDBItemContainer@ioUserBlockStorage@@QAEPAUioBlockDBItemContainer@@XZ
_TEXT	SEGMENT
?GetBlockDBItemContainer@ioUserBlockStorage@@QAEPAUioBlockDBItemContainer@@XZ PROC ; ioUserBlockStorage::GetBlockDBItemContainer, COMDAT
; _this$ = ecx

; 26   : 	return &m_ioBlockDBItemContainer;

  00000	8d 41 04	 lea	 eax, DWORD PTR [ecx+4]

; 27   : }

  00003	c3		 ret	 0
?GetBlockDBItemContainer@ioUserBlockStorage@@QAEPAUioBlockDBItemContainer@@XZ ENDP ; ioUserBlockStorage::GetBlockDBItemContainer
_TEXT	ENDS
PUBLIC	?SendBlockInvenSync@ioUserBlockStorage@@UAEX_N@Z ; ioUserBlockStorage::SendBlockInvenSync
; Function compile flags: /Ogsp
;	COMDAT ?SendBlockInvenSync@ioUserBlockStorage@@UAEX_N@Z
_TEXT	SEGMENT
_bMust$ = 8						; size = 1
?SendBlockInvenSync@ioUserBlockStorage@@UAEX_N@Z PROC	; ioUserBlockStorage::SendBlockInvenSync, COMDAT
; _this$ = ecx

; 31   : }

  00000	c2 04 00	 ret	 4
?SendBlockInvenSync@ioUserBlockStorage@@UAEX_N@Z ENDP	; ioUserBlockStorage::SendBlockInvenSync
_TEXT	ENDS
PUBLIC	?InitInvenBlockItem@ioUserBlockStorage@@UAEXXZ	; ioUserBlockStorage::InitInvenBlockItem
; Function compile flags: /Ogsp
;	COMDAT ?InitInvenBlockItem@ioUserBlockStorage@@UAEXXZ
_TEXT	SEGMENT
?InitInvenBlockItem@ioUserBlockStorage@@UAEXXZ PROC	; ioUserBlockStorage::InitInvenBlockItem, COMDAT
; _this$ = ecx

; 35   : }

  00000	c3		 ret	 0
?InitInvenBlockItem@ioUserBlockStorage@@UAEXXZ ENDP	; ioUserBlockStorage::InitInvenBlockItem
_TEXT	ENDS
PUBLIC	?GetCurrInvenIndex@ioUserBlockStorage@@QAEHXZ	; ioUserBlockStorage::GetCurrInvenIndex
; Function compile flags: /Ogsp
;	COMDAT ?GetCurrInvenIndex@ioUserBlockStorage@@QAEHXZ
_TEXT	SEGMENT
?GetCurrInvenIndex@ioUserBlockStorage@@QAEHXZ PROC	; ioUserBlockStorage::GetCurrInvenIndex, COMDAT
; _this$ = ecx

; 181  : 	return m_CurrInvenItemIndex;

  00000	8b 41 24	 mov	 eax, DWORD PTR [ecx+36]

; 182  : }

  00003	c3		 ret	 0
?GetCurrInvenIndex@ioUserBlockStorage@@QAEHXZ ENDP	; ioUserBlockStorage::GetCurrInvenIndex
_TEXT	ENDS
PUBLIC	?ProcessTCPPacket@ioUserBlockStorage@@UAE_NAAVSP2Packet@@@Z ; ioUserBlockStorage::ProcessTCPPacket
; Function compile flags: /Ogsp
;	COMDAT ?ProcessTCPPacket@ioUserBlockStorage@@UAE_NAAVSP2Packet@@@Z
_TEXT	SEGMENT
_rkPacket$ = 8						; size = 4
?ProcessTCPPacket@ioUserBlockStorage@@UAE_NAAVSP2Packet@@@Z PROC ; ioUserBlockStorage::ProcessTCPPacket, COMDAT
; _this$ = ecx

; 191  : 	return false;

  00000	32 c0		 xor	 al, al

; 192  : }

  00002	c2 04 00	 ret	 4
?ProcessTCPPacket@ioUserBlockStorage@@UAE_NAAVSP2Packet@@@Z ENDP ; ioUserBlockStorage::ProcessTCPPacket
_TEXT	ENDS
PUBLIC	?ProcessUDPPacket@ioUserBlockStorage@@UAE_NAAVSP2Packet@@@Z ; ioUserBlockStorage::ProcessUDPPacket
; Function compile flags: /Ogsp
;	COMDAT ?ProcessUDPPacket@ioUserBlockStorage@@UAE_NAAVSP2Packet@@@Z
_TEXT	SEGMENT
_rkPacket$ = 8						; size = 4
?ProcessUDPPacket@ioUserBlockStorage@@UAE_NAAVSP2Packet@@@Z PROC ; ioUserBlockStorage::ProcessUDPPacket, COMDAT
; _this$ = ecx

; 196  : 	return false;

  00000	32 c0		 xor	 al, al

; 197  : }

  00002	c2 04 00	 ret	 4
?ProcessUDPPacket@ioUserBlockStorage@@UAE_NAAVSP2Packet@@@Z ENDP ; ioUserBlockStorage::ProcessUDPPacket
_TEXT	ENDS
PUBLIC	??1InvenBlockItem@ioUserBlockStorage@@QAE@XZ	; ioUserBlockStorage::InvenBlockItem::~InvenBlockItem
;	COMDAT xdata$x
xdata$x	SEGMENT
__unwindtable$??1InvenBlockItem@ioUserBlockStorage@@QAE@XZ DD 0ffffffffH
	DD	FLAT:__unwindfunclet$??1InvenBlockItem@ioUserBlockStorage@@QAE@XZ$0
__ehfuncinfo$??1InvenBlockItem@ioUserBlockStorage@@QAE@XZ DD 019930522H
	DD	01H
	DD	FLAT:__unwindtable$??1InvenBlockItem@ioUserBlockStorage@@QAE@XZ
	DD	2 DUP(00H)
	DD	2 DUP(00H)
	DD	00H
	DD	01H
; Function compile flags: /Ogsp
xdata$x	ENDS
;	COMDAT ??1InvenBlockItem@ioUserBlockStorage@@QAE@XZ
_TEXT	SEGMENT
_this$ = -16						; size = 4
__$EHRec$ = -12						; size = 12
??1InvenBlockItem@ioUserBlockStorage@@QAE@XZ PROC	; ioUserBlockStorage::InvenBlockItem::~InvenBlockItem, COMDAT
; _this$ = ecx
  00000	6a 04		 push	 4
  00002	b8 00 00 00 00	 mov	 eax, __ehhandler$??1InvenBlockItem@ioUserBlockStorage@@QAE@XZ
  00007	e8 00 00 00 00	 call	 __EH_prolog3
  0000c	8b f9		 mov	 edi, ecx
  0000e	89 7d f0	 mov	 DWORD PTR _this$[ebp], edi
  00011	8b 35 00 00 00
	00		 mov	 esi, DWORD PTR __imp_??1ioHashString@@QAE@XZ
  00017	83 65 fc 00	 and	 DWORD PTR __$EHRec$[ebp+8], 0
  0001b	8d 4f 10	 lea	 ecx, DWORD PTR [edi+16]
  0001e	ff d6		 call	 esi
  00020	83 4d fc ff	 or	 DWORD PTR __$EHRec$[ebp+8], -1
  00024	8b cf		 mov	 ecx, edi
  00026	ff d6		 call	 esi
  00028	e8 00 00 00 00	 call	 __EH_epilog3
  0002d	c3		 ret	 0
_TEXT	ENDS
;	COMDAT text$x
text$x	SEGMENT
__unwindfunclet$??1InvenBlockItem@ioUserBlockStorage@@QAE@XZ$0:
  00000	8b 4d f0	 mov	 ecx, DWORD PTR _this$[ebp]
  00003	ff 25 00 00 00
	00		 jmp	 DWORD PTR __imp_??1ioHashString@@QAE@XZ
__ehhandler$??1InvenBlockItem@ioUserBlockStorage@@QAE@XZ:
  00009	8b 54 24 08	 mov	 edx, DWORD PTR [esp+8]
  0000d	8d 42 0c	 lea	 eax, DWORD PTR [edx+12]
  00010	8b 4a ec	 mov	 ecx, DWORD PTR [edx-20]
  00013	33 c8		 xor	 ecx, eax
  00015	e8 00 00 00 00	 call	 @__security_check_cookie@4
  0001a	b8 00 00 00 00	 mov	 eax, OFFSET __ehfuncinfo$??1InvenBlockItem@ioUserBlockStorage@@QAE@XZ
  0001f	e9 00 00 00 00	 jmp	 ___CxxFrameHandler3
text$x	ENDS
??1InvenBlockItem@ioUserBlockStorage@@QAE@XZ ENDP	; ioUserBlockStorage::InvenBlockItem::~InvenBlockItem
PUBLIC	__$ArrayPad$
PUBLIC	?SendBlockInvenSync@ioGuildBlockStorage@@MAEX_N@Z ; ioGuildBlockStorage::SendBlockInvenSync
EXTRN	??1SP2Packet@@UAE@XZ:PROC			; SP2Packet::~SP2Packet
EXTRN	?SendToServer@TCPNetwork@@YAXAAVSP2Packet@@@Z:PROC ; TCPNetwork::SendToServer
EXTRN	??0SP2Packet@@QAE@K@Z:PROC			; SP2Packet::SP2Packet
EXTRN	?MouseBusy@TCPNetwork@@YAX_N@Z:PROC		; TCPNetwork::MouseBusy
EXTRN	__imp_?GetLoopSec@ioFrameTimer@@QBEKXZ:PROC
EXTRN	__imp_?GetSingleton@ioFrameTimer@@SAAAV1@XZ:PROC
EXTRN	___security_cookie:DWORD
EXTRN	__chkstk:PROC
;	COMDAT xdata$x
xdata$x	SEGMENT
__unwindtable$?SendBlockInvenSync@ioGuildBlockStorage@@MAEX_N@Z DD 0ffffffffH
	DD	FLAT:__unwindfunclet$?SendBlockInvenSync@ioGuildBlockStorage@@MAEX_N@Z$0
__ehfuncinfo$?SendBlockInvenSync@ioGuildBlockStorage@@MAEX_N@Z DD 019930522H
	DD	01H
	DD	FLAT:__unwindtable$?SendBlockInvenSync@ioGuildBlockStorage@@MAEX_N@Z
	DD	2 DUP(00H)
	DD	2 DUP(00H)
	DD	00H
	DD	01H
; Function compile flags: /Ogsp
xdata$x	ENDS
;	COMDAT ?SendBlockInvenSync@ioGuildBlockStorage@@MAEX_N@Z
_TEXT	SEGMENT
_kPacket$508988 = -32808				; size = 32792
__$ArrayPad$ = -16					; size = 4
__$EHRec$ = -12						; size = 12
_bMust$ = 8						; size = 1
?SendBlockInvenSync@ioGuildBlockStorage@@MAEX_N@Z PROC	; ioGuildBlockStorage::SendBlockInvenSync, COMDAT
; _this$ = ecx

; 239  : {

  00000	55		 push	 ebp
  00001	8b ec		 mov	 ebp, esp
  00003	6a ff		 push	 -1
  00005	68 00 00 00 00	 push	 __ehhandler$?SendBlockInvenSync@ioGuildBlockStorage@@MAEX_N@Z
  0000a	64 a1 00 00 00
	00		 mov	 eax, DWORD PTR fs:0
  00010	50		 push	 eax
  00011	b8 1c 80 00 00	 mov	 eax, 32796		; 0000801cH
  00016	e8 00 00 00 00	 call	 __chkstk
  0001b	a1 00 00 00 00	 mov	 eax, DWORD PTR ___security_cookie
  00020	33 c5		 xor	 eax, ebp
  00022	89 45 f0	 mov	 DWORD PTR __$ArrayPad$[ebp], eax
  00025	56		 push	 esi
  00026	50		 push	 eax
  00027	8d 45 f4	 lea	 eax, DWORD PTR __$EHRec$[ebp]
  0002a	64 a3 00 00 00
	00		 mov	 DWORD PTR fs:0, eax
  00030	8b f1		 mov	 esi, ecx

; 240  : 	DWORD dwCurTime = FRAMEGETTIME();

  00032	ff 15 00 00 00
	00		 call	 DWORD PTR __imp_?GetSingleton@ioFrameTimer@@SAAAV1@XZ
  00038	8b c8		 mov	 ecx, eax
  0003a	ff 15 00 00 00
	00		 call	 DWORD PTR __imp_?GetLoopSec@ioFrameTimer@@QBEKXZ

; 241  : 	if( bMust || dwCurTime - m_dwBlockInvenSyncTime > SYNC_TIME )

  00040	80 7d 08 00	 cmp	 BYTE PTR _bMust$[ebp], 0
  00044	75 0d		 jne	 SHORT $LN1@SendBlockI
  00046	8b c8		 mov	 ecx, eax
  00048	2b 4e 28	 sub	 ecx, DWORD PTR [esi+40]
  0004b	81 f9 10 27 00
	00		 cmp	 ecx, 10000		; 00002710H
  00051	76 3c		 jbe	 SHORT $LN2@SendBlockI
$LN1@SendBlockI:

; 242  : 	{
; 243  : 		m_dwBlockInvenSyncTime = dwCurTime;
; 244  : 		TCPNetwork::MouseBusy( true );

  00053	6a 01		 push	 1
  00055	89 46 28	 mov	 DWORD PTR [esi+40], eax
  00058	e8 00 00 00 00	 call	 ?MouseBusy@TCPNetwork@@YAX_N@Z ; TCPNetwork::MouseBusy

; 245  : 		SP2Packet kPacket( CTPK_REQUEST_GUILD_INVEN );

  0005d	8d 8d d8 7f ff
	ff		 lea	 ecx, DWORD PTR _kPacket$508988[ebp]
  00063	c7 04 24 55 03
	00 00		 mov	 DWORD PTR [esp], 853	; 00000355H
  0006a	e8 00 00 00 00	 call	 ??0SP2Packet@@QAE@K@Z	; SP2Packet::SP2Packet
  0006f	83 65 fc 00	 and	 DWORD PTR __$EHRec$[ebp+8], 0

; 246  : 		TCPNetwork::SendToServer( kPacket );

  00073	8d 85 d8 7f ff
	ff		 lea	 eax, DWORD PTR _kPacket$508988[ebp]
  00079	50		 push	 eax
  0007a	e8 00 00 00 00	 call	 ?SendToServer@TCPNetwork@@YAXAAVSP2Packet@@@Z ; TCPNetwork::SendToServer

; 247  : 	}

  0007f	83 4d fc ff	 or	 DWORD PTR __$EHRec$[ebp+8], -1
  00083	59		 pop	 ecx
  00084	8d 8d d8 7f ff
	ff		 lea	 ecx, DWORD PTR _kPacket$508988[ebp]
  0008a	e8 00 00 00 00	 call	 ??1SP2Packet@@UAE@XZ	; SP2Packet::~SP2Packet
$LN2@SendBlockI:

; 248  : }

  0008f	8b 4d f4	 mov	 ecx, DWORD PTR __$EHRec$[ebp]
  00092	64 89 0d 00 00
	00 00		 mov	 DWORD PTR fs:0, ecx
  00099	59		 pop	 ecx
  0009a	5e		 pop	 esi
  0009b	8b 4d f0	 mov	 ecx, DWORD PTR __$ArrayPad$[ebp]
  0009e	33 cd		 xor	 ecx, ebp
  000a0	e8 00 00 00 00	 call	 @__security_check_cookie@4
  000a5	c9		 leave
  000a6	c2 04 00	 ret	 4
_TEXT	ENDS
;	COMDAT text$x
text$x	SEGMENT
__unwindfunclet$?SendBlockInvenSync@ioGuildBlockStorage@@MAEX_N@Z$0:
  00000	8d 8d d8 7f ff
	ff		 lea	 ecx, DWORD PTR _kPacket$508988[ebp]
  00006	e9 00 00 00 00	 jmp	 ??1SP2Packet@@UAE@XZ	; SP2Packet::~SP2Packet
__ehhandler$?SendBlockInvenSync@ioGuildBlockStorage@@MAEX_N@Z:
  0000b	8b 54 24 08	 mov	 edx, DWORD PTR [esp+8]
  0000f	8d 42 0c	 lea	 eax, DWORD PTR [edx+12]
  00012	8b 8a dc 7f ff
	ff		 mov	 ecx, DWORD PTR [edx-32804]
  00018	33 c8		 xor	 ecx, eax
  0001a	e8 00 00 00 00	 call	 @__security_check_cookie@4
  0001f	8b 4a fc	 mov	 ecx, DWORD PTR [edx-4]
  00022	33 c8		 xor	 ecx, eax
  00024	e8 00 00 00 00	 call	 @__security_check_cookie@4
  00029	b8 00 00 00 00	 mov	 eax, OFFSET __ehfuncinfo$?SendBlockInvenSync@ioGuildBlockStorage@@MAEX_N@Z
  0002e	e9 00 00 00 00	 jmp	 ___CxxFrameHandler3
text$x	ENDS
?SendBlockInvenSync@ioGuildBlockStorage@@MAEX_N@Z ENDP	; ioGuildBlockStorage::SendBlockInvenSync
PUBLIC	??_7bad_alloc@std@@6B@				; std::bad_alloc::`vftable'
PUBLIC	??0bad_alloc@std@@QAE@PBD@Z			; std::bad_alloc::bad_alloc
PUBLIC	??_R4bad_alloc@std@@6B@				; std::bad_alloc::`RTTI Complete Object Locator'
PUBLIC	??_R0?AVbad_alloc@std@@@8			; std::bad_alloc `RTTI Type Descriptor'
PUBLIC	??_R3bad_alloc@std@@8				; std::bad_alloc::`RTTI Class Hierarchy Descriptor'
PUBLIC	??_R2bad_alloc@std@@8				; std::bad_alloc::`RTTI Base Class Array'
PUBLIC	??_R1A@?0A@EA@bad_alloc@std@@8			; std::bad_alloc::`RTTI Base Class Descriptor at (0,-1,0,64)'
PUBLIC	??_R1A@?0A@EA@exception@std@@8			; std::exception::`RTTI Base Class Descriptor at (0,-1,0,64)'
PUBLIC	??_R0?AVexception@std@@@8			; std::exception `RTTI Type Descriptor'
PUBLIC	??_R3exception@std@@8				; std::exception::`RTTI Class Hierarchy Descriptor'
PUBLIC	??_R2exception@std@@8				; std::exception::`RTTI Base Class Array'
EXTRN	__imp_??0exception@std@@QAE@ABQBD@Z:PROC
EXTRN	??_7type_info@@6B@:QWORD			; type_info::`vftable'
EXTRN	??_Ebad_alloc@std@@UAEPAXI@Z:PROC		; std::bad_alloc::`vector deleting destructor'
EXTRN	?what@exception@std@@UBEPBDXZ:PROC		; std::exception::what
;	COMDAT ??_R2exception@std@@8
; File c:\program files (x86)\microsoft visual studio 10.0\vc\include\exception
rdata$r	SEGMENT
??_R2exception@std@@8 DD FLAT:??_R1A@?0A@EA@exception@std@@8 ; std::exception::`RTTI Base Class Array'
rdata$r	ENDS
;	COMDAT ??_R3exception@std@@8
rdata$r	SEGMENT
??_R3exception@std@@8 DD 00H				; std::exception::`RTTI Class Hierarchy Descriptor'
	DD	00H
	DD	01H
	DD	FLAT:??_R2exception@std@@8
rdata$r	ENDS
;	COMDAT ??_R0?AVexception@std@@@8
_DATA	SEGMENT
??_R0?AVexception@std@@@8 DD FLAT:??_7type_info@@6B@	; std::exception `RTTI Type Descriptor'
	DD	00H
	DB	'.?AVexception@std@@', 00H
_DATA	ENDS
;	COMDAT ??_R1A@?0A@EA@exception@std@@8
rdata$r	SEGMENT
??_R1A@?0A@EA@exception@std@@8 DD FLAT:??_R0?AVexception@std@@@8 ; std::exception::`RTTI Base Class Descriptor at (0,-1,0,64)'
	DD	00H
	DD	00H
	DD	0ffffffffH
	DD	00H
	DD	040H
	DD	FLAT:??_R3exception@std@@8
rdata$r	ENDS
;	COMDAT ??_R1A@?0A@EA@bad_alloc@std@@8
rdata$r	SEGMENT
??_R1A@?0A@EA@bad_alloc@std@@8 DD FLAT:??_R0?AVbad_alloc@std@@@8 ; std::bad_alloc::`RTTI Base Class Descriptor at (0,-1,0,64)'
	DD	01H
	DD	00H
	DD	0ffffffffH
	DD	00H
	DD	040H
	DD	FLAT:??_R3bad_alloc@std@@8
rdata$r	ENDS
;	COMDAT ??_R2bad_alloc@std@@8
rdata$r	SEGMENT
??_R2bad_alloc@std@@8 DD FLAT:??_R1A@?0A@EA@bad_alloc@std@@8 ; std::bad_alloc::`RTTI Base Class Array'
	DD	FLAT:??_R1A@?0A@EA@exception@std@@8
rdata$r	ENDS
;	COMDAT ??_R3bad_alloc@std@@8
rdata$r	SEGMENT
??_R3bad_alloc@std@@8 DD 00H				; std::bad_alloc::`RTTI Class Hierarchy Descriptor'
	DD	00H
	DD	02H
	DD	FLAT:??_R2bad_alloc@std@@8
rdata$r	ENDS
;	COMDAT ??_R0?AVbad_alloc@std@@@8
_DATA	SEGMENT
??_R0?AVbad_alloc@std@@@8 DD FLAT:??_7type_info@@6B@	; std::bad_alloc `RTTI Type Descriptor'
	DD	00H
	DB	'.?AVbad_alloc@std@@', 00H
_DATA	ENDS
;	COMDAT ??_R4bad_alloc@std@@6B@
rdata$r	SEGMENT
??_R4bad_alloc@std@@6B@ DD 00H				; std::bad_alloc::`RTTI Complete Object Locator'
	DD	00H
	DD	00H
	DD	FLAT:??_R0?AVbad_alloc@std@@@8
	DD	FLAT:??_R3bad_alloc@std@@8
rdata$r	ENDS
;	COMDAT ??_7bad_alloc@std@@6B@
CONST	SEGMENT
??_7bad_alloc@std@@6B@ DD FLAT:??_R4bad_alloc@std@@6B@	; std::bad_alloc::`vftable'
	DD	FLAT:??_Ebad_alloc@std@@UAEPAXI@Z
	DD	FLAT:?what@exception@std@@UBEPBDXZ
; Function compile flags: /Ogsp
CONST	ENDS
;	COMDAT ??0bad_alloc@std@@QAE@PBD@Z
_TEXT	SEGMENT
__Message$ = 8						; size = 4
??0bad_alloc@std@@QAE@PBD@Z PROC			; std::bad_alloc::bad_alloc, COMDAT
; _this$ = ecx

; 345  : 		{	// construct from message string

  00000	55		 push	 ebp
  00001	8b ec		 mov	 ebp, esp
  00003	56		 push	 esi
  00004	8d 45 08	 lea	 eax, DWORD PTR __Message$[ebp]
  00007	50		 push	 eax
  00008	8b f1		 mov	 esi, ecx
  0000a	ff 15 00 00 00
	00		 call	 DWORD PTR __imp_??0exception@std@@QAE@ABQBD@Z
  00010	c7 06 00 00 00
	00		 mov	 DWORD PTR [esi], OFFSET ??_7bad_alloc@std@@6B@

; 346  : 		}

  00016	8b c6		 mov	 eax, esi
  00018	5e		 pop	 esi
  00019	5d		 pop	 ebp
  0001a	c2 04 00	 ret	 4
??0bad_alloc@std@@QAE@PBD@Z ENDP			; std::bad_alloc::bad_alloc
_TEXT	ENDS
PUBLIC	??1bad_alloc@std@@UAE@XZ			; std::bad_alloc::~bad_alloc
EXTRN	__imp_??1exception@std@@UAE@XZ:PROC
; Function compile flags: /Ogsp
;	COMDAT ??1bad_alloc@std@@UAE@XZ
_TEXT	SEGMENT
??1bad_alloc@std@@UAE@XZ PROC				; std::bad_alloc::~bad_alloc, COMDAT
; _this$ = ecx

; 354  : 		{	// destroy the object

  00000	c7 01 00 00 00
	00		 mov	 DWORD PTR [ecx], OFFSET ??_7bad_alloc@std@@6B@

; 355  : 		}

  00006	ff 25 00 00 00
	00		 jmp	 DWORD PTR __imp_??1exception@std@@UAE@XZ
??1bad_alloc@std@@UAE@XZ ENDP				; std::bad_alloc::~bad_alloc
_TEXT	ENDS
EXTRN	??3@YAXPAX@Z:PROC				; operator delete
; Function compile flags: /Ogsp
;	COMDAT ??_Gbad_alloc@std@@UAEPAXI@Z
_TEXT	SEGMENT
___flags$ = 8						; size = 4
??_Gbad_alloc@std@@UAEPAXI@Z PROC			; std::bad_alloc::`scalar deleting destructor', COMDAT
; _this$ = ecx
  00000	55		 push	 ebp
  00001	8b ec		 mov	 ebp, esp
  00003	56		 push	 esi
  00004	8b f1		 mov	 esi, ecx
  00006	c7 06 00 00 00
	00		 mov	 DWORD PTR [esi], OFFSET ??_7bad_alloc@std@@6B@
  0000c	ff 15 00 00 00
	00		 call	 DWORD PTR __imp_??1exception@std@@UAE@XZ
  00012	f6 45 08 01	 test	 BYTE PTR ___flags$[ebp], 1
  00016	74 07		 je	 SHORT $LN1@scalar
  00018	56		 push	 esi
  00019	e8 00 00 00 00	 call	 ??3@YAXPAX@Z		; operator delete
  0001e	59		 pop	 ecx
$LN1@scalar:
  0001f	8b c6		 mov	 eax, esi
  00021	5e		 pop	 esi
  00022	5d		 pop	 ebp
  00023	c2 04 00	 ret	 4
??_Gbad_alloc@std@@UAEPAXI@Z ENDP			; std::bad_alloc::`scalar deleting destructor'
_TEXT	ENDS
PUBLIC	__$ArrayPad$
PUBLIC	?SendBlockInvenSync@ioHomeBlockStorage@@MAEX_N@Z ; ioHomeBlockStorage::SendBlockInvenSync
;	COMDAT xdata$x
; File d:\lost saga for developer\youtube\tutorial\source\src\lsclient\housing\iouserblockstorage.cpp
xdata$x	SEGMENT
__unwindtable$?SendBlockInvenSync@ioHomeBlockStorage@@MAEX_N@Z DD 0ffffffffH
	DD	FLAT:__unwindfunclet$?SendBlockInvenSync@ioHomeBlockStorage@@MAEX_N@Z$0
__ehfuncinfo$?SendBlockInvenSync@ioHomeBlockStorage@@MAEX_N@Z DD 019930522H
	DD	01H
	DD	FLAT:__unwindtable$?SendBlockInvenSync@ioHomeBlockStorage@@MAEX_N@Z
	DD	2 DUP(00H)
	DD	2 DUP(00H)
	DD	00H
	DD	01H
; Function compile flags: /Ogsp
xdata$x	ENDS
;	COMDAT ?SendBlockInvenSync@ioHomeBlockStorage@@MAEX_N@Z
_TEXT	SEGMENT
_kPacket$509070 = -32808				; size = 32792
__$ArrayPad$ = -16					; size = 4
__$EHRec$ = -12						; size = 12
_bMust$ = 8						; size = 1
?SendBlockInvenSync@ioHomeBlockStorage@@MAEX_N@Z PROC	; ioHomeBlockStorage::SendBlockInvenSync, COMDAT
; _this$ = ecx

; 388  : {

  00000	55		 push	 ebp
  00001	8b ec		 mov	 ebp, esp
  00003	6a ff		 push	 -1
  00005	68 00 00 00 00	 push	 __ehhandler$?SendBlockInvenSync@ioHomeBlockStorage@@MAEX_N@Z
  0000a	64 a1 00 00 00
	00		 mov	 eax, DWORD PTR fs:0
  00010	50		 push	 eax
  00011	b8 1c 80 00 00	 mov	 eax, 32796		; 0000801cH
  00016	e8 00 00 00 00	 call	 __chkstk
  0001b	a1 00 00 00 00	 mov	 eax, DWORD PTR ___security_cookie
  00020	33 c5		 xor	 eax, ebp
  00022	89 45 f0	 mov	 DWORD PTR __$ArrayPad$[ebp], eax
  00025	56		 push	 esi
  00026	50		 push	 eax
  00027	8d 45 f4	 lea	 eax, DWORD PTR __$EHRec$[ebp]
  0002a	64 a3 00 00 00
	00		 mov	 DWORD PTR fs:0, eax
  00030	8b f1		 mov	 esi, ecx

; 389  : 	DWORD dwCurTime = FRAMEGETTIME();

  00032	ff 15 00 00 00
	00		 call	 DWORD PTR __imp_?GetSingleton@ioFrameTimer@@SAAAV1@XZ
  00038	8b c8		 mov	 ecx, eax
  0003a	ff 15 00 00 00
	00		 call	 DWORD PTR __imp_?GetLoopSec@ioFrameTimer@@QBEKXZ

; 390  : 	if( bMust || dwCurTime - m_dwBlockInvenSyncTime > SYNC_TIME )

  00040	80 7d 08 00	 cmp	 BYTE PTR _bMust$[ebp], 0
  00044	75 0d		 jne	 SHORT $LN1@SendBlockI@2
  00046	8b c8		 mov	 ecx, eax
  00048	2b 4e 28	 sub	 ecx, DWORD PTR [esi+40]
  0004b	81 f9 10 27 00
	00		 cmp	 ecx, 10000		; 00002710H
  00051	76 3c		 jbe	 SHORT $LN2@SendBlockI@2
$LN1@SendBlockI@2:

; 391  : 	{
; 392  : 		m_dwBlockInvenSyncTime = dwCurTime;
; 393  : 		TCPNetwork::MouseBusy( true );

  00053	6a 01		 push	 1
  00055	89 46 28	 mov	 DWORD PTR [esi+40], eax
  00058	e8 00 00 00 00	 call	 ?MouseBusy@TCPNetwork@@YAX_N@Z ; TCPNetwork::MouseBusy

; 394  : 		SP2Packet kPacket( CTPK_PERSONAL_HQ_INVEN_DATA );

  0005d	8d 8d d8 7f ff
	ff		 lea	 ecx, DWORD PTR _kPacket$509070[ebp]
  00063	c7 04 24 62 03
	00 00		 mov	 DWORD PTR [esp], 866	; 00000362H
  0006a	e8 00 00 00 00	 call	 ??0SP2Packet@@QAE@K@Z	; SP2Packet::SP2Packet
  0006f	83 65 fc 00	 and	 DWORD PTR __$EHRec$[ebp+8], 0

; 395  : 		TCPNetwork::SendToServer( kPacket );

  00073	8d 85 d8 7f ff
	ff		 lea	 eax, DWORD PTR _kPacket$509070[ebp]
  00079	50		 push	 eax
  0007a	e8 00 00 00 00	 call	 ?SendToServer@TCPNetwork@@YAXAAVSP2Packet@@@Z ; TCPNetwork::SendToServer

; 396  : 	}

  0007f	83 4d fc ff	 or	 DWORD PTR __$EHRec$[ebp+8], -1
  00083	59		 pop	 ecx
  00084	8d 8d d8 7f ff
	ff		 lea	 ecx, DWORD PTR _kPacket$509070[ebp]
  0008a	e8 00 00 00 00	 call	 ??1SP2Packet@@UAE@XZ	; SP2Packet::~SP2Packet
$LN2@SendBlockI@2:

; 397  : }

  0008f	8b 4d f4	 mov	 ecx, DWORD PTR __$EHRec$[ebp]
  00092	64 89 0d 00 00
	00 00		 mov	 DWORD PTR fs:0, ecx
  00099	59		 pop	 ecx
  0009a	5e		 pop	 esi
  0009b	8b 4d f0	 mov	 ecx, DWORD PTR __$ArrayPad$[ebp]
  0009e	33 cd		 xor	 ecx, ebp
  000a0	e8 00 00 00 00	 call	 @__security_check_cookie@4
  000a5	c9		 leave
  000a6	c2 04 00	 ret	 4
_TEXT	ENDS
;	COMDAT text$x
text$x	SEGMENT
__unwindfunclet$?SendBlockInvenSync@ioHomeBlockStorage@@MAEX_N@Z$0:
  00000	8d 8d d8 7f ff
	ff		 lea	 ecx, DWORD PTR _kPacket$509070[ebp]
  00006	e9 00 00 00 00	 jmp	 ??1SP2Packet@@UAE@XZ	; SP2Packet::~SP2Packet
__ehhandler$?SendBlockInvenSync@ioHomeBlockStorage@@MAEX_N@Z:
  0000b	8b 54 24 08	 mov	 edx, DWORD PTR [esp+8]
  0000f	8d 42 0c	 lea	 eax, DWORD PTR [edx+12]
  00012	8b 8a dc 7f ff
	ff		 mov	 ecx, DWORD PTR [edx-32804]
  00018	33 c8		 xor	 ecx, eax
  0001a	e8 00 00 00 00	 call	 @__security_check_cookie@4
  0001f	8b 4a fc	 mov	 ecx, DWORD PTR [edx-4]
  00022	33 c8		 xor	 ecx, eax
  00024	e8 00 00 00 00	 call	 @__security_check_cookie@4
  00029	b8 00 00 00 00	 mov	 eax, OFFSET __ehfuncinfo$?SendBlockInvenSync@ioHomeBlockStorage@@MAEX_N@Z
  0002e	e9 00 00 00 00	 jmp	 ___CxxFrameHandler3
text$x	ENDS
?SendBlockInvenSync@ioHomeBlockStorage@@MAEX_N@Z ENDP	; ioHomeBlockStorage::SendBlockInvenSync
PUBLIC	?GetSingleton@?$Singleton@VioEtcItemManager@@@@SAAAVioEtcItemManager@@XZ ; Singleton<ioEtcItemManager>::GetSingleton
EXTRN	?ms_Singleton@?$Singleton@VioEtcItemManager@@@@1PAVioEtcItemManager@@A:DWORD ; Singleton<ioEtcItemManager>::ms_Singleton
; Function compile flags: /Ogsp
; File d:\lost saga for developer\youtube\tutorial\source\src\io3dengine\iosingleton.h
;	COMDAT ?GetSingleton@?$Singleton@VioEtcItemManager@@@@SAAAVioEtcItemManager@@XZ
_TEXT	SEGMENT
?GetSingleton@?$Singleton@VioEtcItemManager@@@@SAAAVioEtcItemManager@@XZ PROC ; Singleton<ioEtcItemManager>::GetSingleton, COMDAT

; 42   : 		assert( ms_Singleton );
; 43   : 		return (*ms_Singleton);

  00000	a1 00 00 00 00	 mov	 eax, DWORD PTR ?ms_Singleton@?$Singleton@VioEtcItemManager@@@@1PAVioEtcItemManager@@A ; Singleton<ioEtcItemManager>::ms_Singleton

; 44   : 	}

  00005	c3		 ret	 0
?GetSingleton@?$Singleton@VioEtcItemManager@@@@SAAAVioEtcItemManager@@XZ ENDP ; Singleton<ioEtcItemManager>::GetSingleton
_TEXT	ENDS
PUBLIC	??2@YAPAXIPAX@Z					; operator new
; Function compile flags: /Ogsp
; File c:\program files (x86)\microsoft visual studio 10.0\vc\include\new
;	COMDAT ??2@YAPAXIPAX@Z
_TEXT	SEGMENT
___formal$ = 8						; size = 4
__Where$ = 12						; size = 4
??2@YAPAXIPAX@Z PROC					; operator new, COMDAT

; 56   : 	{	// construct array with placement at _Where

  00000	55		 push	 ebp
  00001	8b ec		 mov	 ebp, esp

; 57   : 	return (_Where);

  00003	8b 45 0c	 mov	 eax, DWORD PTR __Where$[ebp]

; 58   : 	}

  00006	5d		 pop	 ebp
  00007	c3		 ret	 0
??2@YAPAXIPAX@Z ENDP					; operator new
_TEXT	ENDS
PUBLIC	??3@YAXPAX0@Z					; operator delete
; Function compile flags: /Ogsp
;	COMDAT ??3@YAXPAX0@Z
_TEXT	SEGMENT
___formal$ = 8						; size = 4
___formal$ = 12						; size = 4
??3@YAXPAX0@Z PROC					; operator delete, COMDAT

; 62   : 	}

  00000	c3		 ret	 0
??3@YAXPAX0@Z ENDP					; operator delete
_TEXT	ENDS
PUBLIC	?size@?$vector@UInvenBlockItem@ioUserBlockStorage@@V?$allocator@UInvenBlockItem@ioUserBlockStorage@@@std@@@std@@QBEIXZ ; std::vector<ioUserBlockStorage::InvenBlockItem,std::allocator<ioUserBlockStorage::InvenBlockItem> >::size
; Function compile flags: /Ogsp
; File c:\program files (x86)\microsoft visual studio 10.0\vc\include\vector
;	COMDAT ?size@?$vector@UInvenBlockItem@ioUserBlockStorage@@V?$allocator@UInvenBlockItem@ioUserBlockStorage@@@std@@@std@@QBEIXZ
_TEXT	SEGMENT
?size@?$vector@UInvenBlockItem@ioUserBlockStorage@@V?$allocator@UInvenBlockItem@ioUserBlockStorage@@@std@@@std@@QBEIXZ PROC ; std::vector<ioUserBlockStorage::InvenBlockItem,std::allocator<ioUserBlockStorage::InvenBlockItem> >::size, COMDAT
; _this$ = ecx

; 879  : 		return (this->_Mylast - this->_Myfirst);

  00000	8b 41 04	 mov	 eax, DWORD PTR [ecx+4]
  00003	2b 01		 sub	 eax, DWORD PTR [ecx]
  00005	6a 38		 push	 56			; 00000038H
  00007	99		 cdq
  00008	59		 pop	 ecx
  00009	f7 f9		 idiv	 ecx

; 880  : 		}

  0000b	c3		 ret	 0
?size@?$vector@UInvenBlockItem@ioUserBlockStorage@@V?$allocator@UInvenBlockItem@ioUserBlockStorage@@@std@@@std@@QBEIXZ ENDP ; std::vector<ioUserBlockStorage::InvenBlockItem,std::allocator<ioUserBlockStorage::InvenBlockItem> >::size
_TEXT	ENDS
PUBLIC	?empty@?$vector@UInvenBlockItem@ioUserBlockStorage@@V?$allocator@UInvenBlockItem@ioUserBlockStorage@@@std@@@std@@QBE_NXZ ; std::vector<ioUserBlockStorage::InvenBlockItem,std::allocator<ioUserBlockStorage::InvenBlockItem> >::empty
; Function compile flags: /Ogsp
;	COMDAT ?empty@?$vector@UInvenBlockItem@ioUserBlockStorage@@V?$allocator@UInvenBlockItem@ioUserBlockStorage@@@std@@@std@@QBE_NXZ
_TEXT	SEGMENT
?empty@?$vector@UInvenBlockItem@ioUserBlockStorage@@V?$allocator@UInvenBlockItem@ioUserBlockStorage@@@std@@@std@@QBE_NXZ PROC ; std::vector<ioUserBlockStorage::InvenBlockItem,std::allocator<ioUserBlockStorage::InvenBlockItem> >::empty, COMDAT
; _this$ = ecx

; 889  : 		return (this->_Myfirst == this->_Mylast);

  00000	8b 01		 mov	 eax, DWORD PTR [ecx]
  00002	2b 41 04	 sub	 eax, DWORD PTR [ecx+4]
  00005	f7 d8		 neg	 eax
  00007	1b c0		 sbb	 eax, eax
  00009	40		 inc	 eax

; 890  : 		}

  0000a	c3		 ret	 0
?empty@?$vector@UInvenBlockItem@ioUserBlockStorage@@V?$allocator@UInvenBlockItem@ioUserBlockStorage@@@std@@@std@@QBE_NXZ ENDP ; std::vector<ioUserBlockStorage::InvenBlockItem,std::allocator<ioUserBlockStorage::InvenBlockItem> >::empty
_TEXT	ENDS
PUBLIC	??A?$vector@UInvenBlockItem@ioUserBlockStorage@@V?$allocator@UInvenBlockItem@ioUserBlockStorage@@@std@@@std@@QAEAAUInvenBlockItem@ioUserBlockStorage@@I@Z ; std::vector<ioUserBlockStorage::InvenBlockItem,std::allocator<ioUserBlockStorage::InvenBlockItem> >::operator[]
; Function compile flags: /Ogsp
;	COMDAT ??A?$vector@UInvenBlockItem@ioUserBlockStorage@@V?$allocator@UInvenBlockItem@ioUserBlockStorage@@@std@@@std@@QAEAAUInvenBlockItem@ioUserBlockStorage@@I@Z
_TEXT	SEGMENT
__Pos$ = 8						; size = 4
??A?$vector@UInvenBlockItem@ioUserBlockStorage@@V?$allocator@UInvenBlockItem@ioUserBlockStorage@@@std@@@std@@QAEAAUInvenBlockItem@ioUserBlockStorage@@I@Z PROC ; std::vector<ioUserBlockStorage::InvenBlockItem,std::allocator<ioUserBlockStorage::InvenBlockItem> >::operator[], COMDAT
; _this$ = ecx

; 928  : 		{	// subscript mutable sequence

  00000	55		 push	 ebp
  00001	8b ec		 mov	 ebp, esp

; 929  :  #if _ITERATOR_DEBUG_LEVEL == 2
; 930  : 		if (size() <= _Pos)
; 931  : 			{	// report error
; 932  : 			_DEBUG_ERROR("vector subscript out of range");
; 933  : 			_SCL_SECURE_OUT_OF_RANGE;
; 934  : 			}
; 935  : 
; 936  :  #elif _ITERATOR_DEBUG_LEVEL == 1
; 937  : 		_SCL_SECURE_VALIDATE_RANGE(_Pos < size());
; 938  :  #endif /* _ITERATOR_DEBUG_LEVEL */
; 939  : 
; 940  : 		return (*(this->_Myfirst + _Pos));

  00003	8b 45 08	 mov	 eax, DWORD PTR __Pos$[ebp]
  00006	6b c0 38	 imul	 eax, 56			; 00000038H
  00009	03 01		 add	 eax, DWORD PTR [ecx]

; 941  : 		}

  0000b	5d		 pop	 ebp
  0000c	c2 04 00	 ret	 4
??A?$vector@UInvenBlockItem@ioUserBlockStorage@@V?$allocator@UInvenBlockItem@ioUserBlockStorage@@@std@@@std@@QAEAAUInvenBlockItem@ioUserBlockStorage@@I@Z ENDP ; std::vector<ioUserBlockStorage::InvenBlockItem,std::allocator<ioUserBlockStorage::InvenBlockItem> >::operator[]
_TEXT	ENDS
PUBLIC	?_Inside@?$vector@VioBlockDBItem@@V?$allocator@VioBlockDBItem@@@std@@@std@@IBE_NPBVioBlockDBItem@@@Z ; std::vector<ioBlockDBItem,std::allocator<ioBlockDBItem> >::_Inside
; Function compile flags: /Ogsp
;	COMDAT ?_Inside@?$vector@VioBlockDBItem@@V?$allocator@VioBlockDBItem@@@std@@@std@@IBE_NPBVioBlockDBItem@@@Z
_TEXT	SEGMENT
__Ptr$ = 8						; size = 4
?_Inside@?$vector@VioBlockDBItem@@V?$allocator@VioBlockDBItem@@@std@@@std@@IBE_NPBVioBlockDBItem@@@Z PROC ; std::vector<ioBlockDBItem,std::allocator<ioBlockDBItem> >::_Inside, COMDAT
; _this$ = ecx

; 1285 : 		{	// test if _Ptr points inside vector

  00000	55		 push	 ebp
  00001	8b ec		 mov	 ebp, esp

; 1286 : 		return (_Ptr < this->_Mylast && this->_Myfirst <= _Ptr);

  00003	8b 45 08	 mov	 eax, DWORD PTR __Ptr$[ebp]
  00006	3b 41 04	 cmp	 eax, DWORD PTR [ecx+4]
  00009	73 09		 jae	 SHORT $LN3@Inside
  0000b	39 01		 cmp	 DWORD PTR [ecx], eax
  0000d	77 05		 ja	 SHORT $LN3@Inside
  0000f	33 c0		 xor	 eax, eax
  00011	40		 inc	 eax
  00012	eb 02		 jmp	 SHORT $LN4@Inside
$LN3@Inside:
  00014	33 c0		 xor	 eax, eax
$LN4@Inside:

; 1287 : 		}

  00016	5d		 pop	 ebp
  00017	c2 04 00	 ret	 4
?_Inside@?$vector@VioBlockDBItem@@V?$allocator@VioBlockDBItem@@@std@@@std@@IBE_NPBVioBlockDBItem@@@Z ENDP ; std::vector<ioBlockDBItem,std::allocator<ioBlockDBItem> >::_Inside
_TEXT	ENDS
PUBLIC	?_Orphan_range@?$vector@VioBlockDBItem@@V?$allocator@VioBlockDBItem@@@std@@@std@@IBEXPAVioBlockDBItem@@0@Z ; std::vector<ioBlockDBItem,std::allocator<ioBlockDBItem> >::_Orphan_range
; Function compile flags: /Ogsp
;	COMDAT ?_Orphan_range@?$vector@VioBlockDBItem@@V?$allocator@VioBlockDBItem@@@std@@@std@@IBEXPAVioBlockDBItem@@0@Z
_TEXT	SEGMENT
___formal$ = 8						; size = 4
___formal$ = 12						; size = 4
?_Orphan_range@?$vector@VioBlockDBItem@@V?$allocator@VioBlockDBItem@@@std@@@std@@IBEXPAVioBlockDBItem@@0@Z PROC ; std::vector<ioBlockDBItem,std::allocator<ioBlockDBItem> >::_Orphan_range, COMDAT
; _this$ = ecx

; 1454 : 		}

  00000	c2 08 00	 ret	 8
?_Orphan_range@?$vector@VioBlockDBItem@@V?$allocator@VioBlockDBItem@@@std@@@std@@IBEXPAVioBlockDBItem@@0@Z ENDP ; std::vector<ioBlockDBItem,std::allocator<ioBlockDBItem> >::_Orphan_range
_TEXT	ENDS
PUBLIC	??1?$_Vector_val@VioBlockDBItem@@V?$allocator@VioBlockDBItem@@@std@@@std@@QAE@XZ ; std::_Vector_val<ioBlockDBItem,std::allocator<ioBlockDBItem> >::~_Vector_val<ioBlockDBItem,std::allocator<ioBlockDBItem> >
; Function compile flags: /Ogsp
;	COMDAT ??1?$_Vector_val@VioBlockDBItem@@V?$allocator@VioBlockDBItem@@@std@@@std@@QAE@XZ
_TEXT	SEGMENT
??1?$_Vector_val@VioBlockDBItem@@V?$allocator@VioBlockDBItem@@@std@@@std@@QAE@XZ PROC ; std::_Vector_val<ioBlockDBItem,std::allocator<ioBlockDBItem> >::~_Vector_val<ioBlockDBItem,std::allocator<ioBlockDBItem> >, COMDAT
; _this$ = ecx

; 434  : 		}

  00000	c3		 ret	 0
??1?$_Vector_val@VioBlockDBItem@@V?$allocator@VioBlockDBItem@@@std@@@std@@QAE@XZ ENDP ; std::_Vector_val<ioBlockDBItem,std::allocator<ioBlockDBItem> >::~_Vector_val<ioBlockDBItem,std::allocator<ioBlockDBItem> >
_TEXT	ENDS
PUBLIC	??0?$allocator@VioBlockDBItem@@@std@@QAE@XZ	; std::allocator<ioBlockDBItem>::allocator<ioBlockDBItem>
; Function compile flags: /Ogsp
; File c:\program files (x86)\microsoft visual studio 10.0\vc\include\xmemory
;	COMDAT ??0?$allocator@VioBlockDBItem@@@std@@QAE@XZ
_TEXT	SEGMENT
??0?$allocator@VioBlockDBItem@@@std@@QAE@XZ PROC	; std::allocator<ioBlockDBItem>::allocator<ioBlockDBItem>, COMDAT
; _this$ = ecx

; 161  : 	_ALLOCATOR() _THROW0()

  00000	8b c1		 mov	 eax, ecx

; 162  : 		{	// construct default allocator (do nothing)
; 163  : 		}

  00002	c3		 ret	 0
??0?$allocator@VioBlockDBItem@@@std@@QAE@XZ ENDP	; std::allocator<ioBlockDBItem>::allocator<ioBlockDBItem>
_TEXT	ENDS
PUBLIC	?capacity@?$vector@UInvenBlockItem@ioUserBlockStorage@@V?$allocator@UInvenBlockItem@ioUserBlockStorage@@@std@@@std@@QBEIXZ ; std::vector<ioUserBlockStorage::InvenBlockItem,std::allocator<ioUserBlockStorage::InvenBlockItem> >::capacity
; Function compile flags: /Ogsp
; File c:\program files (x86)\microsoft visual studio 10.0\vc\include\vector
;	COMDAT ?capacity@?$vector@UInvenBlockItem@ioUserBlockStorage@@V?$allocator@UInvenBlockItem@ioUserBlockStorage@@@std@@@std@@QBEIXZ
_TEXT	SEGMENT
?capacity@?$vector@UInvenBlockItem@ioUserBlockStorage@@V?$allocator@UInvenBlockItem@ioUserBlockStorage@@@std@@@std@@QBEIXZ PROC ; std::vector<ioUserBlockStorage::InvenBlockItem,std::allocator<ioUserBlockStorage::InvenBlockItem> >::capacity, COMDAT
; _this$ = ecx

; 777  : 		return (this->_Myend - this->_Myfirst);

  00000	8b 41 08	 mov	 eax, DWORD PTR [ecx+8]
  00003	2b 01		 sub	 eax, DWORD PTR [ecx]
  00005	6a 38		 push	 56			; 00000038H
  00007	99		 cdq
  00008	59		 pop	 ecx
  00009	f7 f9		 idiv	 ecx

; 778  : 		}

  0000b	c3		 ret	 0
?capacity@?$vector@UInvenBlockItem@ioUserBlockStorage@@V?$allocator@UInvenBlockItem@ioUserBlockStorage@@@std@@@std@@QBEIXZ ENDP ; std::vector<ioUserBlockStorage::InvenBlockItem,std::allocator<ioUserBlockStorage::InvenBlockItem> >::capacity
_TEXT	ENDS
PUBLIC	?_Inside@?$vector@UInvenBlockItem@ioUserBlockStorage@@V?$allocator@UInvenBlockItem@ioUserBlockStorage@@@std@@@std@@IBE_NPBUInvenBlockItem@ioUserBlockStorage@@@Z ; std::vector<ioUserBlockStorage::InvenBlockItem,std::allocator<ioUserBlockStorage::InvenBlockItem> >::_Inside
; Function compile flags: /Ogsp
;	COMDAT ?_Inside@?$vector@UInvenBlockItem@ioUserBlockStorage@@V?$allocator@UInvenBlockItem@ioUserBlockStorage@@@std@@@std@@IBE_NPBUInvenBlockItem@ioUserBlockStorage@@@Z
_TEXT	SEGMENT
__Ptr$ = 8						; size = 4
?_Inside@?$vector@UInvenBlockItem@ioUserBlockStorage@@V?$allocator@UInvenBlockItem@ioUserBlockStorage@@@std@@@std@@IBE_NPBUInvenBlockItem@ioUserBlockStorage@@@Z PROC ; std::vector<ioUserBlockStorage::InvenBlockItem,std::allocator<ioUserBlockStorage::InvenBlockItem> >::_Inside, COMDAT
; _this$ = ecx

; 1285 : 		{	// test if _Ptr points inside vector

  00000	55		 push	 ebp
  00001	8b ec		 mov	 ebp, esp

; 1286 : 		return (_Ptr < this->_Mylast && this->_Myfirst <= _Ptr);

  00003	8b 45 08	 mov	 eax, DWORD PTR __Ptr$[ebp]
  00006	3b 41 04	 cmp	 eax, DWORD PTR [ecx+4]
  00009	73 09		 jae	 SHORT $LN3@Inside@2
  0000b	39 01		 cmp	 DWORD PTR [ecx], eax
  0000d	77 05		 ja	 SHORT $LN3@Inside@2
  0000f	33 c0		 xor	 eax, eax
  00011	40		 inc	 eax
  00012	eb 02		 jmp	 SHORT $LN4@Inside@2
$LN3@Inside@2:
  00014	33 c0		 xor	 eax, eax
$LN4@Inside@2:

; 1287 : 		}

  00016	5d		 pop	 ebp
  00017	c2 04 00	 ret	 4
?_Inside@?$vector@UInvenBlockItem@ioUserBlockStorage@@V?$allocator@UInvenBlockItem@ioUserBlockStorage@@@std@@@std@@IBE_NPBUInvenBlockItem@ioUserBlockStorage@@@Z ENDP ; std::vector<ioUserBlockStorage::InvenBlockItem,std::allocator<ioUserBlockStorage::InvenBlockItem> >::_Inside
_TEXT	ENDS
PUBLIC	?_Orphan_range@?$vector@UInvenBlockItem@ioUserBlockStorage@@V?$allocator@UInvenBlockItem@ioUserBlockStorage@@@std@@@std@@IBEXPAUInvenBlockItem@ioUserBlockStorage@@0@Z ; std::vector<ioUserBlockStorage::InvenBlockItem,std::allocator<ioUserBlockStorage::InvenBlockItem> >::_Orphan_range
; Function compile flags: /Ogsp
;	COMDAT ?_Orphan_range@?$vector@UInvenBlockItem@ioUserBlockStorage@@V?$allocator@UInvenBlockItem@ioUserBlockStorage@@@std@@@std@@IBEXPAUInvenBlockItem@ioUserBlockStorage@@0@Z
_TEXT	SEGMENT
___formal$ = 8						; size = 4
___formal$ = 12						; size = 4
?_Orphan_range@?$vector@UInvenBlockItem@ioUserBlockStorage@@V?$allocator@UInvenBlockItem@ioUserBlockStorage@@@std@@@std@@IBEXPAUInvenBlockItem@ioUserBlockStorage@@0@Z PROC ; std::vector<ioUserBlockStorage::InvenBlockItem,std::allocator<ioUserBlockStorage::InvenBlockItem> >::_Orphan_range, COMDAT
; _this$ = ecx

; 1454 : 		}

  00000	c2 08 00	 ret	 8
?_Orphan_range@?$vector@UInvenBlockItem@ioUserBlockStorage@@V?$allocator@UInvenBlockItem@ioUserBlockStorage@@@std@@@std@@IBEXPAUInvenBlockItem@ioUserBlockStorage@@0@Z ENDP ; std::vector<ioUserBlockStorage::InvenBlockItem,std::allocator<ioUserBlockStorage::InvenBlockItem> >::_Orphan_range
_TEXT	ENDS
PUBLIC	??1?$_Vector_val@UInvenBlockItem@ioUserBlockStorage@@V?$allocator@UInvenBlockItem@ioUserBlockStorage@@@std@@@std@@QAE@XZ ; std::_Vector_val<ioUserBlockStorage::InvenBlockItem,std::allocator<ioUserBlockStorage::InvenBlockItem> >::~_Vector_val<ioUserBlockStorage::InvenBlockItem,std::allocator<ioUserBlockStorage::InvenBlockItem> >
; Function compile flags: /Ogsp
;	COMDAT ??1?$_Vector_val@UInvenBlockItem@ioUserBlockStorage@@V?$allocator@UInvenBlockItem@ioUserBlockStorage@@@std@@@std@@QAE@XZ
_TEXT	SEGMENT
??1?$_Vector_val@UInvenBlockItem@ioUserBlockStorage@@V?$allocator@UInvenBlockItem@ioUserBlockStorage@@@std@@@std@@QAE@XZ PROC ; std::_Vector_val<ioUserBlockStorage::InvenBlockItem,std::allocator<ioUserBlockStorage::InvenBlockItem> >::~_Vector_val<ioUserBlockStorage::InvenBlockItem,std::allocator<ioUserBlockStorage::InvenBlockItem> >, COMDAT
; _this$ = ecx

; 434  : 		}

  00000	c3		 ret	 0
??1?$_Vector_val@UInvenBlockItem@ioUserBlockStorage@@V?$allocator@UInvenBlockItem@ioUserBlockStorage@@@std@@@std@@QAE@XZ ENDP ; std::_Vector_val<ioUserBlockStorage::InvenBlockItem,std::allocator<ioUserBlockStorage::InvenBlockItem> >::~_Vector_val<ioUserBlockStorage::InvenBlockItem,std::allocator<ioUserBlockStorage::InvenBlockItem> >
_TEXT	ENDS
PUBLIC	??0?$allocator@UInvenBlockItem@ioUserBlockStorage@@@std@@QAE@XZ ; std::allocator<ioUserBlockStorage::InvenBlockItem>::allocator<ioUserBlockStorage::InvenBlockItem>
; Function compile flags: /Ogsp
; File c:\program files (x86)\microsoft visual studio 10.0\vc\include\xmemory
;	COMDAT ??0?$allocator@UInvenBlockItem@ioUserBlockStorage@@@std@@QAE@XZ
_TEXT	SEGMENT
??0?$allocator@UInvenBlockItem@ioUserBlockStorage@@@std@@QAE@XZ PROC ; std::allocator<ioUserBlockStorage::InvenBlockItem>::allocator<ioUserBlockStorage::InvenBlockItem>, COMDAT
; _this$ = ecx

; 161  : 	_ALLOCATOR() _THROW0()

  00000	8b c1		 mov	 eax, ecx

; 162  : 		{	// construct default allocator (do nothing)
; 163  : 		}

  00002	c3		 ret	 0
??0?$allocator@UInvenBlockItem@ioUserBlockStorage@@@std@@QAE@XZ ENDP ; std::allocator<ioUserBlockStorage::InvenBlockItem>::allocator<ioUserBlockStorage::InvenBlockItem>
_TEXT	ENDS
PUBLIC	?deallocate@?$allocator@UInvenBlockItem@ioUserBlockStorage@@@std@@QAEXPAUInvenBlockItem@ioUserBlockStorage@@I@Z ; std::allocator<ioUserBlockStorage::InvenBlockItem>::deallocate
; Function compile flags: /Ogsp
;	COMDAT ?deallocate@?$allocator@UInvenBlockItem@ioUserBlockStorage@@@std@@QAEXPAUInvenBlockItem@ioUserBlockStorage@@I@Z
_TEXT	SEGMENT
__Ptr$ = 8						; size = 4
___formal$ = 12						; size = 4
?deallocate@?$allocator@UInvenBlockItem@ioUserBlockStorage@@@std@@QAEXPAUInvenBlockItem@ioUserBlockStorage@@I@Z PROC ; std::allocator<ioUserBlockStorage::InvenBlockItem>::deallocate, COMDAT
; _this$ = ecx

; 181  : 		{	// deallocate object at _Ptr, ignore size

  00000	55		 push	 ebp
  00001	8b ec		 mov	 ebp, esp

; 182  : 		::operator delete(_Ptr);

  00003	ff 75 08	 push	 DWORD PTR __Ptr$[ebp]
  00006	e8 00 00 00 00	 call	 ??3@YAXPAX@Z		; operator delete
  0000b	59		 pop	 ecx

; 183  : 		}

  0000c	5d		 pop	 ebp
  0000d	c2 08 00	 ret	 8
?deallocate@?$allocator@UInvenBlockItem@ioUserBlockStorage@@@std@@QAEXPAUInvenBlockItem@ioUserBlockStorage@@I@Z ENDP ; std::allocator<ioUserBlockStorage::InvenBlockItem>::deallocate
_TEXT	ENDS
PUBLIC	??D?$_Vector_const_iterator@V?$_Vector_val@UInvenBlockItem@ioUserBlockStorage@@V?$allocator@UInvenBlockItem@ioUserBlockStorage@@@std@@@std@@@std@@QBEABUInvenBlockItem@ioUserBlockStorage@@XZ ; std::_Vector_const_iterator<std::_Vector_val<ioUserBlockStorage::InvenBlockItem,std::allocator<ioUserBlockStorage::InvenBlockItem> > >::operator*
; Function compile flags: /Ogsp
; File c:\program files (x86)\microsoft visual studio 10.0\vc\include\vector
;	COMDAT ??D?$_Vector_const_iterator@V?$_Vector_val@UInvenBlockItem@ioUserBlockStorage@@V?$allocator@UInvenBlockItem@ioUserBlockStorage@@@std@@@std@@@std@@QBEABUInvenBlockItem@ioUserBlockStorage@@XZ
_TEXT	SEGMENT
??D?$_Vector_const_iterator@V?$_Vector_val@UInvenBlockItem@ioUserBlockStorage@@V?$allocator@UInvenBlockItem@ioUserBlockStorage@@@std@@@std@@@std@@QBEABUInvenBlockItem@ioUserBlockStorage@@XZ PROC ; std::_Vector_const_iterator<std::_Vector_val<ioUserBlockStorage::InvenBlockItem,std::allocator<ioUserBlockStorage::InvenBlockItem> > >::operator*, COMDAT
; _this$ = ecx

; 64   :  #if _ITERATOR_DEBUG_LEVEL == 2
; 65   : 		if (this->_Getcont() == 0
; 66   : 			|| this->_Ptr == 0
; 67   : 			|| this->_Ptr < ((_Myvec *)this->_Getcont())->_Myfirst
; 68   : 			|| ((_Myvec *)this->_Getcont())->_Mylast <= this->_Ptr)
; 69   : 			{	// report error
; 70   : 			_DEBUG_ERROR("vector iterator not dereferencable");
; 71   : 			_SCL_SECURE_OUT_OF_RANGE;
; 72   : 			}
; 73   : 
; 74   :  #elif _ITERATOR_DEBUG_LEVEL == 1
; 75   : 		_SCL_SECURE_VALIDATE(this->_Getcont() != 0);
; 76   : 		_SCL_SECURE_VALIDATE_RANGE(
; 77   : 			this->_Ptr != 0
; 78   : 			&& ((_Myvec *)this->_Getcont())->_Myfirst <= this->_Ptr
; 79   : 			&& this->_Ptr < ((_Myvec *)this->_Getcont())->_Mylast);
; 80   :  #endif /* _ITERATOR_DEBUG_LEVEL */
; 81   : 
; 82   : 		__analysis_assume(this->_Ptr != 0);
; 83   : 
; 84   : 		return (*this->_Ptr);

  00000	8b 01		 mov	 eax, DWORD PTR [ecx]

; 85   : 		}

  00002	c3		 ret	 0
??D?$_Vector_const_iterator@V?$_Vector_val@UInvenBlockItem@ioUserBlockStorage@@V?$allocator@UInvenBlockItem@ioUserBlockStorage@@@std@@@std@@@std@@QBEABUInvenBlockItem@ioUserBlockStorage@@XZ ENDP ; std::_Vector_const_iterator<std::_Vector_val<ioUserBlockStorage::InvenBlockItem,std::allocator<ioUserBlockStorage::InvenBlockItem> > >::operator*
_TEXT	ENDS
PUBLIC	??E?$_Vector_const_iterator@V?$_Vector_val@UInvenBlockItem@ioUserBlockStorage@@V?$allocator@UInvenBlockItem@ioUserBlockStorage@@@std@@@std@@@std@@QAEAAV01@XZ ; std::_Vector_const_iterator<std::_Vector_val<ioUserBlockStorage::InvenBlockItem,std::allocator<ioUserBlockStorage::InvenBlockItem> > >::operator++
; Function compile flags: /Ogsp
;	COMDAT ??E?$_Vector_const_iterator@V?$_Vector_val@UInvenBlockItem@ioUserBlockStorage@@V?$allocator@UInvenBlockItem@ioUserBlockStorage@@@std@@@std@@@std@@QAEAAV01@XZ
_TEXT	SEGMENT
??E?$_Vector_const_iterator@V?$_Vector_val@UInvenBlockItem@ioUserBlockStorage@@V?$allocator@UInvenBlockItem@ioUserBlockStorage@@@std@@@std@@@std@@QAEAAV01@XZ PROC ; std::_Vector_const_iterator<std::_Vector_val<ioUserBlockStorage::InvenBlockItem,std::allocator<ioUserBlockStorage::InvenBlockItem> > >::operator++, COMDAT
; _this$ = ecx

; 93   : 		{	// preincrement

  00000	8b c1		 mov	 eax, ecx

; 94   :  #if _ITERATOR_DEBUG_LEVEL == 2
; 95   : 		if (this->_Getcont() == 0
; 96   : 			|| this->_Ptr == 0
; 97   : 			|| ((_Myvec *)this->_Getcont())->_Mylast <= this->_Ptr)
; 98   : 			{	// report error
; 99   : 			_DEBUG_ERROR("vector iterator not incrementable");
; 100  : 			_SCL_SECURE_OUT_OF_RANGE;
; 101  : 			}
; 102  : 
; 103  :  #elif _ITERATOR_DEBUG_LEVEL == 1
; 104  : 		_SCL_SECURE_VALIDATE(this->_Getcont() != 0);
; 105  : 		_SCL_SECURE_VALIDATE_RANGE(
; 106  : 			this->_Ptr != 0
; 107  : 			&& this->_Ptr < ((_Myvec *)this->_Getcont())->_Mylast);
; 108  :  #endif /* _ITERATOR_DEBUG_LEVEL */
; 109  : 
; 110  : 		++this->_Ptr;

  00002	83 00 38	 add	 DWORD PTR [eax], 56	; 00000038H

; 111  : 		return (*this);
; 112  : 		}

  00005	c3		 ret	 0
??E?$_Vector_const_iterator@V?$_Vector_val@UInvenBlockItem@ioUserBlockStorage@@V?$allocator@UInvenBlockItem@ioUserBlockStorage@@@std@@@std@@@std@@QAEAAV01@XZ ENDP ; std::_Vector_const_iterator<std::_Vector_val<ioUserBlockStorage::InvenBlockItem,std::allocator<ioUserBlockStorage::InvenBlockItem> > >::operator++
_TEXT	ENDS
PUBLIC	?capacity@?$vector@VioBlockDBItem@@V?$allocator@VioBlockDBItem@@@std@@@std@@QBEIXZ ; std::vector<ioBlockDBItem,std::allocator<ioBlockDBItem> >::capacity
; Function compile flags: /Ogsp
;	COMDAT ?capacity@?$vector@VioBlockDBItem@@V?$allocator@VioBlockDBItem@@@std@@@std@@QBEIXZ
_TEXT	SEGMENT
?capacity@?$vector@VioBlockDBItem@@V?$allocator@VioBlockDBItem@@@std@@@std@@QBEIXZ PROC ; std::vector<ioBlockDBItem,std::allocator<ioBlockDBItem> >::capacity, COMDAT
; _this$ = ecx

; 777  : 		return (this->_Myend - this->_Myfirst);

  00000	8b 41 08	 mov	 eax, DWORD PTR [ecx+8]
  00003	2b 01		 sub	 eax, DWORD PTR [ecx]
  00005	6a 28		 push	 40			; 00000028H
  00007	99		 cdq
  00008	59		 pop	 ecx
  00009	f7 f9		 idiv	 ecx

; 778  : 		}

  0000b	c3		 ret	 0
?capacity@?$vector@VioBlockDBItem@@V?$allocator@VioBlockDBItem@@@std@@@std@@QBEIXZ ENDP ; std::vector<ioBlockDBItem,std::allocator<ioBlockDBItem> >::capacity
_TEXT	ENDS
PUBLIC	?size@?$vector@VioBlockDBItem@@V?$allocator@VioBlockDBItem@@@std@@@std@@QBEIXZ ; std::vector<ioBlockDBItem,std::allocator<ioBlockDBItem> >::size
; Function compile flags: /Ogsp
;	COMDAT ?size@?$vector@VioBlockDBItem@@V?$allocator@VioBlockDBItem@@@std@@@std@@QBEIXZ
_TEXT	SEGMENT
?size@?$vector@VioBlockDBItem@@V?$allocator@VioBlockDBItem@@@std@@@std@@QBEIXZ PROC ; std::vector<ioBlockDBItem,std::allocator<ioBlockDBItem> >::size, COMDAT
; _this$ = ecx

; 879  : 		return (this->_Mylast - this->_Myfirst);

  00000	8b 41 04	 mov	 eax, DWORD PTR [ecx+4]
  00003	2b 01		 sub	 eax, DWORD PTR [ecx]
  00005	6a 28		 push	 40			; 00000028H
  00007	99		 cdq
  00008	59		 pop	 ecx
  00009	f7 f9		 idiv	 ecx

; 880  : 		}

  0000b	c3		 ret	 0
?size@?$vector@VioBlockDBItem@@V?$allocator@VioBlockDBItem@@@std@@@std@@QBEIXZ ENDP ; std::vector<ioBlockDBItem,std::allocator<ioBlockDBItem> >::size
_TEXT	ENDS
PUBLIC	??_C@_0BD@OLBABOEK@vector?$DMT?$DO?5too?5long?$AA@ ; `string'
PUBLIC	?_Xlen@?$vector@VioBlockDBItem@@V?$allocator@VioBlockDBItem@@@std@@@std@@IBEXXZ ; std::vector<ioBlockDBItem,std::allocator<ioBlockDBItem> >::_Xlen
EXTRN	__imp_?_Xlength_error@std@@YAXPBD@Z:PROC
;	COMDAT ??_C@_0BD@OLBABOEK@vector?$DMT?$DO?5too?5long?$AA@
CONST	SEGMENT
??_C@_0BD@OLBABOEK@vector?$DMT?$DO?5too?5long?$AA@ DB 'vector<T> too long'
	DB	00H						; `string'
; Function compile flags: /Ogsp
CONST	ENDS
;	COMDAT ?_Xlen@?$vector@VioBlockDBItem@@V?$allocator@VioBlockDBItem@@@std@@@std@@IBEXXZ
_TEXT	SEGMENT
?_Xlen@?$vector@VioBlockDBItem@@V?$allocator@VioBlockDBItem@@@std@@@std@@IBEXXZ PROC ; std::vector<ioBlockDBItem,std::allocator<ioBlockDBItem> >::_Xlen, COMDAT
; _this$ = ecx

; 1427 : 		_Xlength_error("vector<T> too long");

  00000	68 00 00 00 00	 push	 OFFSET ??_C@_0BD@OLBABOEK@vector?$DMT?$DO?5too?5long?$AA@
  00005	ff 15 00 00 00
	00		 call	 DWORD PTR __imp_?_Xlength_error@std@@YAXPBD@Z
$LN4@Xlen:
$LN3@Xlen:
  0000b	cc		 int	 3
?_Xlen@?$vector@VioBlockDBItem@@V?$allocator@VioBlockDBItem@@@std@@@std@@IBEXXZ ENDP ; std::vector<ioBlockDBItem,std::allocator<ioBlockDBItem> >::_Xlen
_TEXT	ENDS
PUBLIC	??0?$allocator@VioBlockDBItem@@@std@@QAE@ABV01@@Z ; std::allocator<ioBlockDBItem>::allocator<ioBlockDBItem>
; Function compile flags: /Ogsp
; File c:\program files (x86)\microsoft visual studio 10.0\vc\include\xmemory
;	COMDAT ??0?$allocator@VioBlockDBItem@@@std@@QAE@ABV01@@Z
_TEXT	SEGMENT
___formal$ = 8						; size = 4
??0?$allocator@VioBlockDBItem@@@std@@QAE@ABV01@@Z PROC	; std::allocator<ioBlockDBItem>::allocator<ioBlockDBItem>, COMDAT
; _this$ = ecx

; 165  : 	_ALLOCATOR(const _ALLOCATOR<_Ty>&) _THROW0()

  00000	8b c1		 mov	 eax, ecx

; 166  : 		{	// construct by copying (do nothing)
; 167  : 		}

  00002	c2 04 00	 ret	 4
??0?$allocator@VioBlockDBItem@@@std@@QAE@ABV01@@Z ENDP	; std::allocator<ioBlockDBItem>::allocator<ioBlockDBItem>
_TEXT	ENDS
PUBLIC	?deallocate@?$allocator@VioBlockDBItem@@@std@@QAEXPAVioBlockDBItem@@I@Z ; std::allocator<ioBlockDBItem>::deallocate
; Function compile flags: /Ogsp
;	COMDAT ?deallocate@?$allocator@VioBlockDBItem@@@std@@QAEXPAVioBlockDBItem@@I@Z
_TEXT	SEGMENT
__Ptr$ = 8						; size = 4
___formal$ = 12						; size = 4
?deallocate@?$allocator@VioBlockDBItem@@@std@@QAEXPAVioBlockDBItem@@I@Z PROC ; std::allocator<ioBlockDBItem>::deallocate, COMDAT
; _this$ = ecx

; 181  : 		{	// deallocate object at _Ptr, ignore size

  00000	55		 push	 ebp
  00001	8b ec		 mov	 ebp, esp

; 182  : 		::operator delete(_Ptr);

  00003	ff 75 08	 push	 DWORD PTR __Ptr$[ebp]
  00006	e8 00 00 00 00	 call	 ??3@YAXPAX@Z		; operator delete
  0000b	59		 pop	 ecx

; 183  : 		}

  0000c	5d		 pop	 ebp
  0000d	c2 08 00	 ret	 8
?deallocate@?$allocator@VioBlockDBItem@@@std@@QAEXPAVioBlockDBItem@@I@Z ENDP ; std::allocator<ioBlockDBItem>::deallocate
_TEXT	ENDS
PUBLIC	?_Adopt@_Iterator_base0@std@@QAEXPBX@Z		; std::_Iterator_base0::_Adopt
; Function compile flags: /Ogsp
; File c:\program files (x86)\microsoft visual studio 10.0\vc\include\xutility
;	COMDAT ?_Adopt@_Iterator_base0@std@@QAEXPBX@Z
_TEXT	SEGMENT
___formal$ = 8						; size = 4
?_Adopt@_Iterator_base0@std@@QAEXPBX@Z PROC		; std::_Iterator_base0::_Adopt, COMDAT
; _this$ = ecx

; 49   : 		}

  00000	c2 04 00	 ret	 4
?_Adopt@_Iterator_base0@std@@QAEXPBX@Z ENDP		; std::_Iterator_base0::_Adopt
_TEXT	ENDS
PUBLIC	?_Xlen@?$vector@UInvenBlockItem@ioUserBlockStorage@@V?$allocator@UInvenBlockItem@ioUserBlockStorage@@@std@@@std@@IBEXXZ ; std::vector<ioUserBlockStorage::InvenBlockItem,std::allocator<ioUserBlockStorage::InvenBlockItem> >::_Xlen
; Function compile flags: /Ogsp
; File c:\program files (x86)\microsoft visual studio 10.0\vc\include\vector
;	COMDAT ?_Xlen@?$vector@UInvenBlockItem@ioUserBlockStorage@@V?$allocator@UInvenBlockItem@ioUserBlockStorage@@@std@@@std@@IBEXXZ
_TEXT	SEGMENT
?_Xlen@?$vector@UInvenBlockItem@ioUserBlockStorage@@V?$allocator@UInvenBlockItem@ioUserBlockStorage@@@std@@@std@@IBEXXZ PROC ; std::vector<ioUserBlockStorage::InvenBlockItem,std::allocator<ioUserBlockStorage::InvenBlockItem> >::_Xlen, COMDAT
; _this$ = ecx

; 1427 : 		_Xlength_error("vector<T> too long");

  00000	68 00 00 00 00	 push	 OFFSET ??_C@_0BD@OLBABOEK@vector?$DMT?$DO?5too?5long?$AA@
  00005	ff 15 00 00 00
	00		 call	 DWORD PTR __imp_?_Xlength_error@std@@YAXPBD@Z
$LN4@Xlen@2:
$LN3@Xlen@2:
  0000b	cc		 int	 3
?_Xlen@?$vector@UInvenBlockItem@ioUserBlockStorage@@V?$allocator@UInvenBlockItem@ioUserBlockStorage@@@std@@@std@@IBEXXZ ENDP ; std::vector<ioUserBlockStorage::InvenBlockItem,std::allocator<ioUserBlockStorage::InvenBlockItem> >::_Xlen
_TEXT	ENDS
PUBLIC	??0?$allocator@UInvenBlockItem@ioUserBlockStorage@@@std@@QAE@ABV01@@Z ; std::allocator<ioUserBlockStorage::InvenBlockItem>::allocator<ioUserBlockStorage::InvenBlockItem>
; Function compile flags: /Ogsp
; File c:\program files (x86)\microsoft visual studio 10.0\vc\include\xmemory
;	COMDAT ??0?$allocator@UInvenBlockItem@ioUserBlockStorage@@@std@@QAE@ABV01@@Z
_TEXT	SEGMENT
___formal$ = 8						; size = 4
??0?$allocator@UInvenBlockItem@ioUserBlockStorage@@@std@@QAE@ABV01@@Z PROC ; std::allocator<ioUserBlockStorage::InvenBlockItem>::allocator<ioUserBlockStorage::InvenBlockItem>, COMDAT
; _this$ = ecx

; 165  : 	_ALLOCATOR(const _ALLOCATOR<_Ty>&) _THROW0()

  00000	8b c1		 mov	 eax, ecx

; 166  : 		{	// construct by copying (do nothing)
; 167  : 		}

  00002	c2 04 00	 ret	 4
??0?$allocator@UInvenBlockItem@ioUserBlockStorage@@@std@@QAE@ABV01@@Z ENDP ; std::allocator<ioUserBlockStorage::InvenBlockItem>::allocator<ioUserBlockStorage::InvenBlockItem>
_TEXT	ENDS
PUBLIC	??0?$_Vector_const_iterator@V?$_Vector_val@UInvenBlockItem@ioUserBlockStorage@@V?$allocator@UInvenBlockItem@ioUserBlockStorage@@@std@@@std@@@std@@QAE@PAUInvenBlockItem@ioUserBlockStorage@@PBU_Container_base0@1@@Z ; std::_Vector_const_iterator<std::_Vector_val<ioUserBlockStorage::InvenBlockItem,std::allocator<ioUserBlockStorage::InvenBlockItem> > >::_Vector_const_iterator<std::_Vector_val<ioUserBlockStorage::InvenBlockItem,std::allocator<ioUserBlockStorage::InvenBlockItem> > >
; Function compile flags: /Ogsp
; File c:\program files (x86)\microsoft visual studio 10.0\vc\include\vector
;	COMDAT ??0?$_Vector_const_iterator@V?$_Vector_val@UInvenBlockItem@ioUserBlockStorage@@V?$allocator@UInvenBlockItem@ioUserBlockStorage@@@std@@@std@@@std@@QAE@PAUInvenBlockItem@ioUserBlockStorage@@PBU_Container_base0@1@@Z
_TEXT	SEGMENT
__Parg$ = 8						; size = 4
__Pvector$ = 12						; size = 4
??0?$_Vector_const_iterator@V?$_Vector_val@UInvenBlockItem@ioUserBlockStorage@@V?$allocator@UInvenBlockItem@ioUserBlockStorage@@@std@@@std@@@std@@QAE@PAUInvenBlockItem@ioUserBlockStorage@@PBU_Container_base0@1@@Z PROC ; std::_Vector_const_iterator<std::_Vector_val<ioUserBlockStorage::InvenBlockItem,std::allocator<ioUserBlockStorage::InvenBlockItem> > >::_Vector_const_iterator<std::_Vector_val<ioUserBlockStorage::InvenBlockItem,std::allocator<ioUserBlockStorage::InvenBlockItem> > >, COMDAT
; _this$ = ecx

; 45   : 		{	// construct with pointer _Parg

  00000	55		 push	 ebp
  00001	8b ec		 mov	 ebp, esp
  00003	8b c1		 mov	 eax, ecx
  00005	8b 4d 08	 mov	 ecx, DWORD PTR __Parg$[ebp]
  00008	89 08		 mov	 DWORD PTR [eax], ecx

; 46   : 		this->_Adopt(_Pvector);
; 47   : 		}

  0000a	5d		 pop	 ebp
  0000b	c2 08 00	 ret	 8
??0?$_Vector_const_iterator@V?$_Vector_val@UInvenBlockItem@ioUserBlockStorage@@V?$allocator@UInvenBlockItem@ioUserBlockStorage@@@std@@@std@@@std@@QAE@PAUInvenBlockItem@ioUserBlockStorage@@PBU_Container_base0@1@@Z ENDP ; std::_Vector_const_iterator<std::_Vector_val<ioUserBlockStorage::InvenBlockItem,std::allocator<ioUserBlockStorage::InvenBlockItem> > >::_Vector_const_iterator<std::_Vector_val<ioUserBlockStorage::InvenBlockItem,std::allocator<ioUserBlockStorage::InvenBlockItem> > >
_TEXT	ENDS
PUBLIC	?_Compat@?$_Vector_const_iterator@V?$_Vector_val@UInvenBlockItem@ioUserBlockStorage@@V?$allocator@UInvenBlockItem@ioUserBlockStorage@@@std@@@std@@@std@@QBEXABV12@@Z ; std::_Vector_const_iterator<std::_Vector_val<ioUserBlockStorage::InvenBlockItem,std::allocator<ioUserBlockStorage::InvenBlockItem> > >::_Compat
; Function compile flags: /Ogsp
;	COMDAT ?_Compat@?$_Vector_const_iterator@V?$_Vector_val@UInvenBlockItem@ioUserBlockStorage@@V?$allocator@UInvenBlockItem@ioUserBlockStorage@@@std@@@std@@@std@@QBEXABV12@@Z
_TEXT	SEGMENT
___formal$ = 8						; size = 4
?_Compat@?$_Vector_const_iterator@V?$_Vector_val@UInvenBlockItem@ioUserBlockStorage@@V?$allocator@UInvenBlockItem@ioUserBlockStorage@@@std@@@std@@@std@@QBEXABV12@@Z PROC ; std::_Vector_const_iterator<std::_Vector_val<ioUserBlockStorage::InvenBlockItem,std::allocator<ioUserBlockStorage::InvenBlockItem> > >::_Compat, COMDAT
; _this$ = ecx

; 253  : 		}

  00000	c2 04 00	 ret	 4
?_Compat@?$_Vector_const_iterator@V?$_Vector_val@UInvenBlockItem@ioUserBlockStorage@@V?$allocator@UInvenBlockItem@ioUserBlockStorage@@@std@@@std@@@std@@QBEXABV12@@Z ENDP ; std::_Vector_const_iterator<std::_Vector_val<ioUserBlockStorage::InvenBlockItem,std::allocator<ioUserBlockStorage::InvenBlockItem> > >::_Compat
_TEXT	ENDS
PUBLIC	?max_size@?$allocator@VioBlockDBItem@@@std@@QBEIXZ ; std::allocator<ioBlockDBItem>::max_size
; Function compile flags: /Ogsp
; File c:\program files (x86)\microsoft visual studio 10.0\vc\include\xmemory
;	COMDAT ?max_size@?$allocator@VioBlockDBItem@@@std@@QBEIXZ
_TEXT	SEGMENT
?max_size@?$allocator@VioBlockDBItem@@@std@@QBEIXZ PROC	; std::allocator<ioBlockDBItem>::max_size, COMDAT
; _this$ = ecx

; 218  : 		_SIZT _Count = (_SIZT)(-1) / sizeof (_Ty);
; 219  : 		return (0 < _Count ? _Count : 1);

  00000	b8 66 66 66 06	 mov	 eax, 107374182		; 06666666H

; 220  : 		}

  00005	c3		 ret	 0
?max_size@?$allocator@VioBlockDBItem@@@std@@QBEIXZ ENDP	; std::allocator<ioBlockDBItem>::max_size
_TEXT	ENDS
PUBLIC	?max_size@?$allocator@UInvenBlockItem@ioUserBlockStorage@@@std@@QBEIXZ ; std::allocator<ioUserBlockStorage::InvenBlockItem>::max_size
; Function compile flags: /Ogsp
;	COMDAT ?max_size@?$allocator@UInvenBlockItem@ioUserBlockStorage@@@std@@QBEIXZ
_TEXT	SEGMENT
?max_size@?$allocator@UInvenBlockItem@ioUserBlockStorage@@@std@@QBEIXZ PROC ; std::allocator<ioUserBlockStorage::InvenBlockItem>::max_size, COMDAT
; _this$ = ecx

; 218  : 		_SIZT _Count = (_SIZT)(-1) / sizeof (_Ty);
; 219  : 		return (0 < _Count ? _Count : 1);

  00000	b8 24 49 92 04	 mov	 eax, 76695844		; 04924924H

; 220  : 		}

  00005	c3		 ret	 0
?max_size@?$allocator@UInvenBlockItem@ioUserBlockStorage@@@std@@QBEIXZ ENDP ; std::allocator<ioUserBlockStorage::InvenBlockItem>::max_size
_TEXT	ENDS
PUBLIC	??0?$_Vector_const_iterator@V?$_Vector_val@VioBlockDBItem@@V?$allocator@VioBlockDBItem@@@std@@@std@@@std@@QAE@PAVioBlockDBItem@@PBU_Container_base0@1@@Z ; std::_Vector_const_iterator<std::_Vector_val<ioBlockDBItem,std::allocator<ioBlockDBItem> > >::_Vector_const_iterator<std::_Vector_val<ioBlockDBItem,std::allocator<ioBlockDBItem> > >
; Function compile flags: /Ogsp
; File c:\program files (x86)\microsoft visual studio 10.0\vc\include\vector
;	COMDAT ??0?$_Vector_const_iterator@V?$_Vector_val@VioBlockDBItem@@V?$allocator@VioBlockDBItem@@@std@@@std@@@std@@QAE@PAVioBlockDBItem@@PBU_Container_base0@1@@Z
_TEXT	SEGMENT
__Parg$ = 8						; size = 4
__Pvector$ = 12						; size = 4
??0?$_Vector_const_iterator@V?$_Vector_val@VioBlockDBItem@@V?$allocator@VioBlockDBItem@@@std@@@std@@@std@@QAE@PAVioBlockDBItem@@PBU_Container_base0@1@@Z PROC ; std::_Vector_const_iterator<std::_Vector_val<ioBlockDBItem,std::allocator<ioBlockDBItem> > >::_Vector_const_iterator<std::_Vector_val<ioBlockDBItem,std::allocator<ioBlockDBItem> > >, COMDAT
; _this$ = ecx

; 45   : 		{	// construct with pointer _Parg

  00000	55		 push	 ebp
  00001	8b ec		 mov	 ebp, esp
  00003	8b c1		 mov	 eax, ecx
  00005	8b 4d 08	 mov	 ecx, DWORD PTR __Parg$[ebp]
  00008	89 08		 mov	 DWORD PTR [eax], ecx

; 46   : 		this->_Adopt(_Pvector);
; 47   : 		}

  0000a	5d		 pop	 ebp
  0000b	c2 08 00	 ret	 8
??0?$_Vector_const_iterator@V?$_Vector_val@VioBlockDBItem@@V?$allocator@VioBlockDBItem@@@std@@@std@@@std@@QAE@PAVioBlockDBItem@@PBU_Container_base0@1@@Z ENDP ; std::_Vector_const_iterator<std::_Vector_val<ioBlockDBItem,std::allocator<ioBlockDBItem> > >::_Vector_const_iterator<std::_Vector_val<ioBlockDBItem,std::allocator<ioBlockDBItem> > >
_TEXT	ENDS
PUBLIC	?_Compat@?$_Vector_const_iterator@V?$_Vector_val@VioBlockDBItem@@V?$allocator@VioBlockDBItem@@@std@@@std@@@std@@QBEXABV12@@Z ; std::_Vector_const_iterator<std::_Vector_val<ioBlockDBItem,std::allocator<ioBlockDBItem> > >::_Compat
; Function compile flags: /Ogsp
;	COMDAT ?_Compat@?$_Vector_const_iterator@V?$_Vector_val@VioBlockDBItem@@V?$allocator@VioBlockDBItem@@@std@@@std@@@std@@QBEXABV12@@Z
_TEXT	SEGMENT
___formal$ = 8						; size = 4
?_Compat@?$_Vector_const_iterator@V?$_Vector_val@VioBlockDBItem@@V?$allocator@VioBlockDBItem@@@std@@@std@@@std@@QBEXABV12@@Z PROC ; std::_Vector_const_iterator<std::_Vector_val<ioBlockDBItem,std::allocator<ioBlockDBItem> > >::_Compat, COMDAT
; _this$ = ecx

; 253  : 		}

  00000	c2 04 00	 ret	 4
?_Compat@?$_Vector_const_iterator@V?$_Vector_val@VioBlockDBItem@@V?$allocator@VioBlockDBItem@@@std@@@std@@@std@@QBEXABV12@@Z ENDP ; std::_Vector_const_iterator<std::_Vector_val<ioBlockDBItem,std::allocator<ioBlockDBItem> > >::_Compat
_TEXT	ENDS
PUBLIC	??$addressof@$$CBVioBlockDBItem@@@std@@YAPBVioBlockDBItem@@ABV1@@Z ; std::addressof<ioBlockDBItem const >
; Function compile flags: /Ogsp
; File c:\program files (x86)\microsoft visual studio 10.0\vc\include\xmemory
;	COMDAT ??$addressof@$$CBVioBlockDBItem@@@std@@YAPBVioBlockDBItem@@ABV1@@Z
_TEXT	SEGMENT
__Val$ = 8						; size = 4
??$addressof@$$CBVioBlockDBItem@@@std@@YAPBVioBlockDBItem@@ABV1@@Z PROC ; std::addressof<ioBlockDBItem const >, COMDAT

; 110  : 	{	// return address of _Val

  00000	55		 push	 ebp
  00001	8b ec		 mov	 ebp, esp

; 111  : 	return ((_Ty *) &(char&)_Val);

  00003	8b 45 08	 mov	 eax, DWORD PTR __Val$[ebp]

; 112  : 	}

  00006	5d		 pop	 ebp
  00007	c3		 ret	 0
??$addressof@$$CBVioBlockDBItem@@@std@@YAPBVioBlockDBItem@@ABV1@@Z ENDP ; std::addressof<ioBlockDBItem const >
_TEXT	ENDS
PUBLIC	??$addressof@$$CBUInvenBlockItem@ioUserBlockStorage@@@std@@YAPBUInvenBlockItem@ioUserBlockStorage@@ABU12@@Z ; std::addressof<ioUserBlockStorage::InvenBlockItem const >
; Function compile flags: /Ogsp
;	COMDAT ??$addressof@$$CBUInvenBlockItem@ioUserBlockStorage@@@std@@YAPBUInvenBlockItem@ioUserBlockStorage@@ABU12@@Z
_TEXT	SEGMENT
__Val$ = 8						; size = 4
??$addressof@$$CBUInvenBlockItem@ioUserBlockStorage@@@std@@YAPBUInvenBlockItem@ioUserBlockStorage@@ABU12@@Z PROC ; std::addressof<ioUserBlockStorage::InvenBlockItem const >, COMDAT

; 110  : 	{	// return address of _Val

  00000	55		 push	 ebp
  00001	8b ec		 mov	 ebp, esp

; 111  : 	return ((_Ty *) &(char&)_Val);

  00003	8b 45 08	 mov	 eax, DWORD PTR __Val$[ebp]

; 112  : 	}

  00006	5d		 pop	 ebp
  00007	c3		 ret	 0
??$addressof@$$CBUInvenBlockItem@ioUserBlockStorage@@@std@@YAPBUInvenBlockItem@ioUserBlockStorage@@ABU12@@Z ENDP ; std::addressof<ioUserBlockStorage::InvenBlockItem const >
_TEXT	ENDS
PUBLIC	__TI2?AVbad_alloc@std@@
PUBLIC	??$_Allocate@UInvenBlockItem@ioUserBlockStorage@@@std@@YAPAUInvenBlockItem@ioUserBlockStorage@@IPAU12@@Z ; std::_Allocate<ioUserBlockStorage::InvenBlockItem>
PUBLIC	__CTA2?AVbad_alloc@std@@
PUBLIC	__CT??_R0?AVbad_alloc@std@@@8??0bad_alloc@std@@QAE@ABV01@@Z12
PUBLIC	??0bad_alloc@std@@QAE@ABV01@@Z			; std::bad_alloc::bad_alloc
PUBLIC	__CT??_R0?AVexception@std@@@8??0exception@std@@QAE@ABV01@@Z12
EXTRN	??2@YAPAXI@Z:PROC				; operator new
EXTRN	__CxxThrowException@8:PROC
EXTRN	??0exception@std@@QAE@ABV01@@Z:PROC		; std::exception::exception
;	COMDAT __CT??_R0?AVexception@std@@@8??0exception@std@@QAE@ABV01@@Z12
; File c:\program files (x86)\microsoft visual studio 10.0\vc\include\exception
xdata$x	SEGMENT
__CT??_R0?AVexception@std@@@8??0exception@std@@QAE@ABV01@@Z12 DD 00H
	DD	FLAT:??_R0?AVexception@std@@@8
	DD	00H
	DD	0ffffffffH
	ORG $+4
	DD	0cH
	DD	FLAT:??0exception@std@@QAE@ABV01@@Z
xdata$x	ENDS
;	COMDAT __CT??_R0?AVbad_alloc@std@@@8??0bad_alloc@std@@QAE@ABV01@@Z12
xdata$x	SEGMENT
__CT??_R0?AVbad_alloc@std@@@8??0bad_alloc@std@@QAE@ABV01@@Z12 DD 00H
	DD	FLAT:??_R0?AVbad_alloc@std@@@8
	DD	00H
	DD	0ffffffffH
	ORG $+4
	DD	0cH
	DD	FLAT:??0bad_alloc@std@@QAE@ABV01@@Z
xdata$x	ENDS
;	COMDAT __CTA2?AVbad_alloc@std@@
xdata$x	SEGMENT
__CTA2?AVbad_alloc@std@@ DD 02H
	DD	FLAT:__CT??_R0?AVbad_alloc@std@@@8??0bad_alloc@std@@QAE@ABV01@@Z12
	DD	FLAT:__CT??_R0?AVexception@std@@@8??0exception@std@@QAE@ABV01@@Z12
xdata$x	ENDS
;	COMDAT __TI2?AVbad_alloc@std@@
xdata$x	SEGMENT
__TI2?AVbad_alloc@std@@ DD 00H
	DD	FLAT:??1bad_alloc@std@@UAE@XZ
	DD	00H
	DD	FLAT:__CTA2?AVbad_alloc@std@@
; Function compile flags: /Ogsp
; File c:\program files (x86)\microsoft visual studio 10.0\vc\include\xmemory
xdata$x	ENDS
;	COMDAT ??$_Allocate@UInvenBlockItem@ioUserBlockStorage@@@std@@YAPAUInvenBlockItem@ioUserBlockStorage@@IPAU12@@Z
_TEXT	SEGMENT
$T511802 = -12						; size = 12
$T511807 = 8						; size = 4
__Count$ = 8						; size = 4
___formal$ = 12						; size = 4
??$_Allocate@UInvenBlockItem@ioUserBlockStorage@@@std@@YAPAUInvenBlockItem@ioUserBlockStorage@@IPAU12@@Z PROC ; std::_Allocate<ioUserBlockStorage::InvenBlockItem>, COMDAT

; 30   : 	{	// allocate storage for _Count elements of type _Ty

  00000	55		 push	 ebp
  00001	8b ec		 mov	 ebp, esp

; 31   : 	void *_Ptr = 0;
; 32   : 
; 33   : 	if (_Count <= 0)

  00003	8b 4d 08	 mov	 ecx, DWORD PTR __Count$[ebp]
  00006	83 ec 0c	 sub	 esp, 12			; 0000000cH
  00009	33 c0		 xor	 eax, eax
  0000b	85 c9		 test	 ecx, ecx

; 34   : 		_Count = 0;
; 35   : 	else if (((_SIZT)(-1) / sizeof (_Ty) < _Count)

  0000d	74 3c		 je	 SHORT $LN5@Allocate

; 36   : 		|| (_Ptr = ::operator new(_Count * sizeof (_Ty))) == 0)

  0000f	81 f9 24 49 92
	04		 cmp	 ecx, 76695844		; 04924924H
  00015	77 0e		 ja	 SHORT $LN1@Allocate
  00017	6b c9 38	 imul	 ecx, 56			; 00000038H
  0001a	51		 push	 ecx
  0001b	e8 00 00 00 00	 call	 ??2@YAPAXI@Z		; operator new
  00020	59		 pop	 ecx
  00021	85 c0		 test	 eax, eax

; 38   : 
; 39   : 	return ((_Ty _FARQ *)_Ptr);

  00023	75 26		 jne	 SHORT $LN5@Allocate
$LN1@Allocate:

; 37   : 		_THROW_NCEE(bad_alloc, 0);

  00025	83 65 08 00	 and	 DWORD PTR $T511807[ebp], 0
  00029	8d 45 08	 lea	 eax, DWORD PTR $T511807[ebp]
  0002c	50		 push	 eax
  0002d	8d 4d f4	 lea	 ecx, DWORD PTR $T511802[ebp]
  00030	ff 15 00 00 00
	00		 call	 DWORD PTR __imp_??0exception@std@@QAE@ABQBD@Z
  00036	68 00 00 00 00	 push	 OFFSET __TI2?AVbad_alloc@std@@
  0003b	8d 45 f4	 lea	 eax, DWORD PTR $T511802[ebp]
  0003e	50		 push	 eax
  0003f	c7 45 f4 00 00
	00 00		 mov	 DWORD PTR $T511802[ebp], OFFSET ??_7bad_alloc@std@@6B@
  00046	e8 00 00 00 00	 call	 __CxxThrowException@8
$LN10@Allocate:
$LN5@Allocate:

; 40   : 	}

  0004b	c9		 leave
  0004c	c3		 ret	 0
$LN9@Allocate:
??$_Allocate@UInvenBlockItem@ioUserBlockStorage@@@std@@YAPAUInvenBlockItem@ioUserBlockStorage@@IPAU12@@Z ENDP ; std::_Allocate<ioUserBlockStorage::InvenBlockItem>
_TEXT	ENDS
PUBLIC	??$_Allocate@VioBlockDBItem@@@std@@YAPAVioBlockDBItem@@IPAV1@@Z ; std::_Allocate<ioBlockDBItem>
; Function compile flags: /Ogsp
;	COMDAT ??$_Allocate@VioBlockDBItem@@@std@@YAPAVioBlockDBItem@@IPAV1@@Z
_TEXT	SEGMENT
$T511812 = -12						; size = 12
$T511816 = 8						; size = 4
__Count$ = 8						; size = 4
___formal$ = 12						; size = 4
??$_Allocate@VioBlockDBItem@@@std@@YAPAVioBlockDBItem@@IPAV1@@Z PROC ; std::_Allocate<ioBlockDBItem>, COMDAT

; 30   : 	{	// allocate storage for _Count elements of type _Ty

  00000	55		 push	 ebp
  00001	8b ec		 mov	 ebp, esp

; 31   : 	void *_Ptr = 0;
; 32   : 
; 33   : 	if (_Count <= 0)

  00003	8b 4d 08	 mov	 ecx, DWORD PTR __Count$[ebp]
  00006	83 ec 0c	 sub	 esp, 12			; 0000000cH
  00009	33 c0		 xor	 eax, eax
  0000b	85 c9		 test	 ecx, ecx

; 34   : 		_Count = 0;
; 35   : 	else if (((_SIZT)(-1) / sizeof (_Ty) < _Count)

  0000d	74 3c		 je	 SHORT $LN5@Allocate@2

; 36   : 		|| (_Ptr = ::operator new(_Count * sizeof (_Ty))) == 0)

  0000f	81 f9 66 66 66
	06		 cmp	 ecx, 107374182		; 06666666H
  00015	77 0e		 ja	 SHORT $LN1@Allocate@2
  00017	6b c9 28	 imul	 ecx, 40			; 00000028H
  0001a	51		 push	 ecx
  0001b	e8 00 00 00 00	 call	 ??2@YAPAXI@Z		; operator new
  00020	59		 pop	 ecx
  00021	85 c0		 test	 eax, eax

; 38   : 
; 39   : 	return ((_Ty _FARQ *)_Ptr);

  00023	75 26		 jne	 SHORT $LN5@Allocate@2
$LN1@Allocate@2:

; 37   : 		_THROW_NCEE(bad_alloc, 0);

  00025	83 65 08 00	 and	 DWORD PTR $T511816[ebp], 0
  00029	8d 45 08	 lea	 eax, DWORD PTR $T511816[ebp]
  0002c	50		 push	 eax
  0002d	8d 4d f4	 lea	 ecx, DWORD PTR $T511812[ebp]
  00030	ff 15 00 00 00
	00		 call	 DWORD PTR __imp_??0exception@std@@QAE@ABQBD@Z
  00036	68 00 00 00 00	 push	 OFFSET __TI2?AVbad_alloc@std@@
  0003b	8d 45 f4	 lea	 eax, DWORD PTR $T511812[ebp]
  0003e	50		 push	 eax
  0003f	c7 45 f4 00 00
	00 00		 mov	 DWORD PTR $T511812[ebp], OFFSET ??_7bad_alloc@std@@6B@
  00046	e8 00 00 00 00	 call	 __CxxThrowException@8
$LN10@Allocate@2:
$LN5@Allocate@2:

; 40   : 	}

  0004b	c9		 leave
  0004c	c3		 ret	 0
$LN9@Allocate@2:
??$_Allocate@VioBlockDBItem@@@std@@YAPAVioBlockDBItem@@IPAV1@@Z ENDP ; std::_Allocate<ioBlockDBItem>
_TEXT	ENDS
PUBLIC	??0?$back_insert_iterator@V?$vector@UInvenBlockItem@ioUserBlockStorage@@V?$allocator@UInvenBlockItem@ioUserBlockStorage@@@std@@@std@@@std@@QAE@AAV?$vector@UInvenBlockItem@ioUserBlockStorage@@V?$allocator@UInvenBlockItem@ioUserBlockStorage@@@std@@@1@@Z ; std::back_insert_iterator<std::vector<ioUserBlockStorage::InvenBlockItem,std::allocator<ioUserBlockStorage::InvenBlockItem> > >::back_insert_iterator<std::vector<ioUserBlockStorage::InvenBlockItem,std::allocator<ioUserBlockStorage::InvenBlockItem> > >
; Function compile flags: /Ogsp
; File c:\program files (x86)\microsoft visual studio 10.0\vc\include\iterator
;	COMDAT ??0?$back_insert_iterator@V?$vector@UInvenBlockItem@ioUserBlockStorage@@V?$allocator@UInvenBlockItem@ioUserBlockStorage@@@std@@@std@@@std@@QAE@AAV?$vector@UInvenBlockItem@ioUserBlockStorage@@V?$allocator@UInvenBlockItem@ioUserBlockStorage@@@std@@@1@@Z
_TEXT	SEGMENT
__Cont$ = 8						; size = 4
??0?$back_insert_iterator@V?$vector@UInvenBlockItem@ioUserBlockStorage@@V?$allocator@UInvenBlockItem@ioUserBlockStorage@@@std@@@std@@@std@@QAE@AAV?$vector@UInvenBlockItem@ioUserBlockStorage@@V?$allocator@UInvenBlockItem@ioUserBlockStorage@@@std@@@1@@Z PROC ; std::back_insert_iterator<std::vector<ioUserBlockStorage::InvenBlockItem,std::allocator<ioUserBlockStorage::InvenBlockItem> > >::back_insert_iterator<std::vector<ioUserBlockStorage::InvenBlockItem,std::allocator<ioUserBlockStorage::InvenBlockItem> > >, COMDAT
; _this$ = ecx

; 26   : 		{	// construct with container

  00000	55		 push	 ebp
  00001	8b ec		 mov	 ebp, esp
  00003	8b c1		 mov	 eax, ecx
  00005	8b 4d 08	 mov	 ecx, DWORD PTR __Cont$[ebp]
  00008	89 08		 mov	 DWORD PTR [eax], ecx

; 27   : 		}

  0000a	5d		 pop	 ebp
  0000b	c2 04 00	 ret	 4
??0?$back_insert_iterator@V?$vector@UInvenBlockItem@ioUserBlockStorage@@V?$allocator@UInvenBlockItem@ioUserBlockStorage@@@std@@@std@@@std@@QAE@AAV?$vector@UInvenBlockItem@ioUserBlockStorage@@V?$allocator@UInvenBlockItem@ioUserBlockStorage@@@std@@@1@@Z ENDP ; std::back_insert_iterator<std::vector<ioUserBlockStorage::InvenBlockItem,std::allocator<ioUserBlockStorage::InvenBlockItem> > >::back_insert_iterator<std::vector<ioUserBlockStorage::InvenBlockItem,std::allocator<ioUserBlockStorage::InvenBlockItem> > >
_TEXT	ENDS
PUBLIC	??G?$_Vector_const_iterator@V?$_Vector_val@UInvenBlockItem@ioUserBlockStorage@@V?$allocator@UInvenBlockItem@ioUserBlockStorage@@@std@@@std@@@std@@QBEHABV01@@Z ; std::_Vector_const_iterator<std::_Vector_val<ioUserBlockStorage::InvenBlockItem,std::allocator<ioUserBlockStorage::InvenBlockItem> > >::operator-
; Function compile flags: /Ogsp
; File c:\program files (x86)\microsoft visual studio 10.0\vc\include\vector
;	COMDAT ??G?$_Vector_const_iterator@V?$_Vector_val@UInvenBlockItem@ioUserBlockStorage@@V?$allocator@UInvenBlockItem@ioUserBlockStorage@@@std@@@std@@@std@@QBEHABV01@@Z
_TEXT	SEGMENT
__Right$ = 8						; size = 4
??G?$_Vector_const_iterator@V?$_Vector_val@UInvenBlockItem@ioUserBlockStorage@@V?$allocator@UInvenBlockItem@ioUserBlockStorage@@@std@@@std@@@std@@QBEHABV01@@Z PROC ; std::_Vector_const_iterator<std::_Vector_val<ioUserBlockStorage::InvenBlockItem,std::allocator<ioUserBlockStorage::InvenBlockItem> > >::operator-, COMDAT
; _this$ = ecx

; 190  : 		{	// return difference of iterators

  00000	55		 push	 ebp
  00001	8b ec		 mov	 ebp, esp

; 191  : 		_Compat(_Right);
; 192  : 		return (this->_Ptr - _Right._Ptr);

  00003	8b 01		 mov	 eax, DWORD PTR [ecx]
  00005	8b 4d 08	 mov	 ecx, DWORD PTR __Right$[ebp]
  00008	2b 01		 sub	 eax, DWORD PTR [ecx]
  0000a	6a 38		 push	 56			; 00000038H
  0000c	99		 cdq
  0000d	59		 pop	 ecx
  0000e	f7 f9		 idiv	 ecx

; 193  : 		}

  00010	5d		 pop	 ebp
  00011	c2 04 00	 ret	 4
??G?$_Vector_const_iterator@V?$_Vector_val@UInvenBlockItem@ioUserBlockStorage@@V?$allocator@UInvenBlockItem@ioUserBlockStorage@@@std@@@std@@@std@@QBEHABV01@@Z ENDP ; std::_Vector_const_iterator<std::_Vector_val<ioUserBlockStorage::InvenBlockItem,std::allocator<ioUserBlockStorage::InvenBlockItem> > >::operator-
_TEXT	ENDS
PUBLIC	??$_Unchecked@V?$back_insert_iterator@V?$vector@UInvenBlockItem@ioUserBlockStorage@@V?$allocator@UInvenBlockItem@ioUserBlockStorage@@@std@@@std@@@std@@@std@@YA?AV?$back_insert_iterator@V?$vector@UInvenBlockItem@ioUserBlockStorage@@V?$allocator@UInvenBlockItem@ioUserBlockStorage@@@std@@@std@@@0@V10@@Z ; std::_Unchecked<std::back_insert_iterator<std::vector<ioUserBlockStorage::InvenBlockItem,std::allocator<ioUserBlockStorage::InvenBlockItem> > > >
; Function compile flags: /Ogsp
; File c:\program files (x86)\microsoft visual studio 10.0\vc\include\xutility
;	COMDAT ??$_Unchecked@V?$back_insert_iterator@V?$vector@UInvenBlockItem@ioUserBlockStorage@@V?$allocator@UInvenBlockItem@ioUserBlockStorage@@@std@@@std@@@std@@@std@@YA?AV?$back_insert_iterator@V?$vector@UInvenBlockItem@ioUserBlockStorage@@V?$allocator@UInvenBlockItem@ioUserBlockStorage@@@std@@@std@@@0@V10@@Z
_TEXT	SEGMENT
___$ReturnUdt$ = 8					; size = 4
__Src$ = 12						; size = 4
??$_Unchecked@V?$back_insert_iterator@V?$vector@UInvenBlockItem@ioUserBlockStorage@@V?$allocator@UInvenBlockItem@ioUserBlockStorage@@@std@@@std@@@std@@@std@@YA?AV?$back_insert_iterator@V?$vector@UInvenBlockItem@ioUserBlockStorage@@V?$allocator@UInvenBlockItem@ioUserBlockStorage@@@std@@@std@@@0@V10@@Z PROC ; std::_Unchecked<std::back_insert_iterator<std::vector<ioUserBlockStorage::InvenBlockItem,std::allocator<ioUserBlockStorage::InvenBlockItem> > > >, COMDAT

; 266  : 	{	// construct unchecked from checked, generic

  00000	55		 push	 ebp
  00001	8b ec		 mov	 ebp, esp

; 267  : 	return (_Src);

  00003	8b 45 08	 mov	 eax, DWORD PTR ___$ReturnUdt$[ebp]
  00006	8b 4d 0c	 mov	 ecx, DWORD PTR __Src$[ebp]
  00009	89 08		 mov	 DWORD PTR [eax], ecx

; 268  : 	}

  0000b	5d		 pop	 ebp
  0000c	c3		 ret	 0
??$_Unchecked@V?$back_insert_iterator@V?$vector@UInvenBlockItem@ioUserBlockStorage@@V?$allocator@UInvenBlockItem@ioUserBlockStorage@@@std@@@std@@@std@@@std@@YA?AV?$back_insert_iterator@V?$vector@UInvenBlockItem@ioUserBlockStorage@@V?$allocator@UInvenBlockItem@ioUserBlockStorage@@@std@@@std@@@0@V10@@Z ENDP ; std::_Unchecked<std::back_insert_iterator<std::vector<ioUserBlockStorage::InvenBlockItem,std::allocator<ioUserBlockStorage::InvenBlockItem> > > >
_TEXT	ENDS
PUBLIC	??$_Rechecked@V?$back_insert_iterator@V?$vector@UInvenBlockItem@ioUserBlockStorage@@V?$allocator@UInvenBlockItem@ioUserBlockStorage@@@std@@@std@@@std@@V12@@std@@YAAAV?$back_insert_iterator@V?$vector@UInvenBlockItem@ioUserBlockStorage@@V?$allocator@UInvenBlockItem@ioUserBlockStorage@@@std@@@std@@@0@AAV10@V10@@Z ; std::_Rechecked<std::back_insert_iterator<std::vector<ioUserBlockStorage::InvenBlockItem,std::allocator<ioUserBlockStorage::InvenBlockItem> > >,std::back_insert_iterator<std::vector<ioUserBlockStorage::InvenBlockItem,std::allocator<ioUserBlockStorage::InvenBlockItem> > > >
; Function compile flags: /Ogsp
;	COMDAT ??$_Rechecked@V?$back_insert_iterator@V?$vector@UInvenBlockItem@ioUserBlockStorage@@V?$allocator@UInvenBlockItem@ioUserBlockStorage@@@std@@@std@@@std@@V12@@std@@YAAAV?$back_insert_iterator@V?$vector@UInvenBlockItem@ioUserBlockStorage@@V?$allocator@UInvenBlockItem@ioUserBlockStorage@@@std@@@std@@@0@AAV10@V10@@Z
_TEXT	SEGMENT
__Dest$ = 8						; size = 4
__Src$ = 12						; size = 4
??$_Rechecked@V?$back_insert_iterator@V?$vector@UInvenBlockItem@ioUserBlockStorage@@V?$allocator@UInvenBlockItem@ioUserBlockStorage@@@std@@@std@@@std@@V12@@std@@YAAAV?$back_insert_iterator@V?$vector@UInvenBlockItem@ioUserBlockStorage@@V?$allocator@UInvenBlockItem@ioUserBlockStorage@@@std@@@std@@@0@AAV10@V10@@Z PROC ; std::_Rechecked<std::back_insert_iterator<std::vector<ioUserBlockStorage::InvenBlockItem,std::allocator<ioUserBlockStorage::InvenBlockItem> > >,std::back_insert_iterator<std::vector<ioUserBlockStorage::InvenBlockItem,std::allocator<ioUserBlockStorage::InvenBlockItem> > > >, COMDAT

; 274  : 	{	// reset checked from unchecked, generic

  00000	55		 push	 ebp
  00001	8b ec		 mov	 ebp, esp

; 275  : 	_Dest = _Src;

  00003	8b 45 08	 mov	 eax, DWORD PTR __Dest$[ebp]
  00006	8b 4d 0c	 mov	 ecx, DWORD PTR __Src$[ebp]
  00009	89 08		 mov	 DWORD PTR [eax], ecx

; 276  : 	return (_Dest);
; 277  : 	}

  0000b	5d		 pop	 ebp
  0000c	c3		 ret	 0
??$_Rechecked@V?$back_insert_iterator@V?$vector@UInvenBlockItem@ioUserBlockStorage@@V?$allocator@UInvenBlockItem@ioUserBlockStorage@@@std@@@std@@@std@@V12@@std@@YAAAV?$back_insert_iterator@V?$vector@UInvenBlockItem@ioUserBlockStorage@@V?$allocator@UInvenBlockItem@ioUserBlockStorage@@@std@@@std@@@0@AAV10@V10@@Z ENDP ; std::_Rechecked<std::back_insert_iterator<std::vector<ioUserBlockStorage::InvenBlockItem,std::allocator<ioUserBlockStorage::InvenBlockItem> > >,std::back_insert_iterator<std::vector<ioUserBlockStorage::InvenBlockItem,std::allocator<ioUserBlockStorage::InvenBlockItem> > > >
_TEXT	ENDS
PUBLIC	??$forward@AAVioBlockDBItem@@@std@@YAAAVioBlockDBItem@@AAV1@@Z ; std::forward<ioBlockDBItem &>
; Function compile flags: /Ogsp
; File c:\program files (x86)\microsoft visual studio 10.0\vc\include\utility
;	COMDAT ??$forward@AAVioBlockDBItem@@@std@@YAAAVioBlockDBItem@@AAV1@@Z
_TEXT	SEGMENT
__Arg$ = 8						; size = 4
??$forward@AAVioBlockDBItem@@@std@@YAAAVioBlockDBItem@@AAV1@@Z PROC ; std::forward<ioBlockDBItem &>, COMDAT

; 78   : 	{	// forward _Arg, given explicitly specified type parameter

  00000	55		 push	 ebp
  00001	8b ec		 mov	 ebp, esp

; 79   : 	return ((_Ty&&)_Arg);

  00003	8b 45 08	 mov	 eax, DWORD PTR __Arg$[ebp]

; 80   : 	}

  00006	5d		 pop	 ebp
  00007	c3		 ret	 0
??$forward@AAVioBlockDBItem@@@std@@YAAAVioBlockDBItem@@AAV1@@Z ENDP ; std::forward<ioBlockDBItem &>
_TEXT	ENDS
PUBLIC	??$forward@ABVioBlockDBItem@@@std@@YAABVioBlockDBItem@@ABV1@@Z ; std::forward<ioBlockDBItem const &>
; Function compile flags: /Ogsp
;	COMDAT ??$forward@ABVioBlockDBItem@@@std@@YAABVioBlockDBItem@@ABV1@@Z
_TEXT	SEGMENT
__Arg$ = 8						; size = 4
??$forward@ABVioBlockDBItem@@@std@@YAABVioBlockDBItem@@ABV1@@Z PROC ; std::forward<ioBlockDBItem const &>, COMDAT

; 78   : 	{	// forward _Arg, given explicitly specified type parameter

  00000	55		 push	 ebp
  00001	8b ec		 mov	 ebp, esp

; 79   : 	return ((_Ty&&)_Arg);

  00003	8b 45 08	 mov	 eax, DWORD PTR __Arg$[ebp]

; 80   : 	}

  00006	5d		 pop	 ebp
  00007	c3		 ret	 0
??$forward@ABVioBlockDBItem@@@std@@YAABVioBlockDBItem@@ABV1@@Z ENDP ; std::forward<ioBlockDBItem const &>
_TEXT	ENDS
PUBLIC	??$_Ptr_cat@UInvenBlockItem@ioUserBlockStorage@@U12@@std@@YA?AU_Nonscalar_ptr_iterator_tag@0@PAUInvenBlockItem@ioUserBlockStorage@@0@Z ; std::_Ptr_cat<ioUserBlockStorage::InvenBlockItem,ioUserBlockStorage::InvenBlockItem>
; Function compile flags: /Ogsp
; File c:\program files (x86)\microsoft visual studio 10.0\vc\include\xutility
;	COMDAT ??$_Ptr_cat@UInvenBlockItem@ioUserBlockStorage@@U12@@std@@YA?AU_Nonscalar_ptr_iterator_tag@0@PAUInvenBlockItem@ioUserBlockStorage@@0@Z
_TEXT	SEGMENT
__Cat$ = -1						; size = 1
___formal$ = 8						; size = 4
___formal$ = 12						; size = 4
??$_Ptr_cat@UInvenBlockItem@ioUserBlockStorage@@U12@@std@@YA?AU_Nonscalar_ptr_iterator_tag@0@PAUInvenBlockItem@ioUserBlockStorage@@0@Z PROC ; std::_Ptr_cat<ioUserBlockStorage::InvenBlockItem,ioUserBlockStorage::InvenBlockItem>, COMDAT

; 516  : 	{	// return pointer category from pointers

  00000	55		 push	 ebp
  00001	8b ec		 mov	 ebp, esp
  00003	51		 push	 ecx

; 517  : 	typename _Ptr_cat_helper<_Elem1, _Elem2>::_Type _Cat;
; 518  : 	return (_Cat);

  00004	8a 45 ff	 mov	 al, BYTE PTR __Cat$[ebp]

; 519  : 	}

  00007	c9		 leave
  00008	c3		 ret	 0
??$_Ptr_cat@UInvenBlockItem@ioUserBlockStorage@@U12@@std@@YA?AU_Nonscalar_ptr_iterator_tag@0@PAUInvenBlockItem@ioUserBlockStorage@@0@Z ENDP ; std::_Ptr_cat<ioUserBlockStorage::InvenBlockItem,ioUserBlockStorage::InvenBlockItem>
_TEXT	ENDS
PUBLIC	??$forward@AAUInvenBlockItem@ioUserBlockStorage@@@std@@YAAAUInvenBlockItem@ioUserBlockStorage@@AAU12@@Z ; std::forward<ioUserBlockStorage::InvenBlockItem &>
; Function compile flags: /Ogsp
; File c:\program files (x86)\microsoft visual studio 10.0\vc\include\utility
;	COMDAT ??$forward@AAUInvenBlockItem@ioUserBlockStorage@@@std@@YAAAUInvenBlockItem@ioUserBlockStorage@@AAU12@@Z
_TEXT	SEGMENT
__Arg$ = 8						; size = 4
??$forward@AAUInvenBlockItem@ioUserBlockStorage@@@std@@YAAAUInvenBlockItem@ioUserBlockStorage@@AAU12@@Z PROC ; std::forward<ioUserBlockStorage::InvenBlockItem &>, COMDAT

; 78   : 	{	// forward _Arg, given explicitly specified type parameter

  00000	55		 push	 ebp
  00001	8b ec		 mov	 ebp, esp

; 79   : 	return ((_Ty&&)_Arg);

  00003	8b 45 08	 mov	 eax, DWORD PTR __Arg$[ebp]

; 80   : 	}

  00006	5d		 pop	 ebp
  00007	c3		 ret	 0
??$forward@AAUInvenBlockItem@ioUserBlockStorage@@@std@@YAAAUInvenBlockItem@ioUserBlockStorage@@AAU12@@Z ENDP ; std::forward<ioUserBlockStorage::InvenBlockItem &>
_TEXT	ENDS
PUBLIC	??$forward@ABUInvenBlockItem@ioUserBlockStorage@@@std@@YAABUInvenBlockItem@ioUserBlockStorage@@ABU12@@Z ; std::forward<ioUserBlockStorage::InvenBlockItem const &>
; Function compile flags: /Ogsp
;	COMDAT ??$forward@ABUInvenBlockItem@ioUserBlockStorage@@@std@@YAABUInvenBlockItem@ioUserBlockStorage@@ABU12@@Z
_TEXT	SEGMENT
__Arg$ = 8						; size = 4
??$forward@ABUInvenBlockItem@ioUserBlockStorage@@@std@@YAABUInvenBlockItem@ioUserBlockStorage@@ABU12@@Z PROC ; std::forward<ioUserBlockStorage::InvenBlockItem const &>, COMDAT

; 78   : 	{	// forward _Arg, given explicitly specified type parameter

  00000	55		 push	 ebp
  00001	8b ec		 mov	 ebp, esp

; 79   : 	return ((_Ty&&)_Arg);

  00003	8b 45 08	 mov	 eax, DWORD PTR __Arg$[ebp]

; 80   : 	}

  00006	5d		 pop	 ebp
  00007	c3		 ret	 0
??$forward@ABUInvenBlockItem@ioUserBlockStorage@@@std@@YAABUInvenBlockItem@ioUserBlockStorage@@ABU12@@Z ENDP ; std::forward<ioUserBlockStorage::InvenBlockItem const &>
_TEXT	ENDS
PUBLIC	??$_Ptr_cat@VioBlockDBItem@@V1@@std@@YA?AU_Nonscalar_ptr_iterator_tag@0@PAVioBlockDBItem@@0@Z ; std::_Ptr_cat<ioBlockDBItem,ioBlockDBItem>
; Function compile flags: /Ogsp
; File c:\program files (x86)\microsoft visual studio 10.0\vc\include\xutility
;	COMDAT ??$_Ptr_cat@VioBlockDBItem@@V1@@std@@YA?AU_Nonscalar_ptr_iterator_tag@0@PAVioBlockDBItem@@0@Z
_TEXT	SEGMENT
__Cat$ = -1						; size = 1
___formal$ = 8						; size = 4
___formal$ = 12						; size = 4
??$_Ptr_cat@VioBlockDBItem@@V1@@std@@YA?AU_Nonscalar_ptr_iterator_tag@0@PAVioBlockDBItem@@0@Z PROC ; std::_Ptr_cat<ioBlockDBItem,ioBlockDBItem>, COMDAT

; 516  : 	{	// return pointer category from pointers

  00000	55		 push	 ebp
  00001	8b ec		 mov	 ebp, esp
  00003	51		 push	 ecx

; 517  : 	typename _Ptr_cat_helper<_Elem1, _Elem2>::_Type _Cat;
; 518  : 	return (_Cat);

  00004	8a 45 ff	 mov	 al, BYTE PTR __Cat$[ebp]

; 519  : 	}

  00007	c9		 leave
  00008	c3		 ret	 0
??$_Ptr_cat@VioBlockDBItem@@V1@@std@@YA?AU_Nonscalar_ptr_iterator_tag@0@PAVioBlockDBItem@@0@Z ENDP ; std::_Ptr_cat<ioBlockDBItem,ioBlockDBItem>
_TEXT	ENDS
PUBLIC	??_7ioBlockDBItem@@6B@				; ioBlockDBItem::`vftable'
PUBLIC	??0ioBlockDBItem@@QAE@ABV0@@Z			; ioBlockDBItem::ioBlockDBItem
PUBLIC	??_R4ioBlockDBItem@@6B@				; ioBlockDBItem::`RTTI Complete Object Locator'
PUBLIC	??_R0?AVioBlockDBItem@@@8			; ioBlockDBItem `RTTI Type Descriptor'
PUBLIC	??_R3ioBlockDBItem@@8				; ioBlockDBItem::`RTTI Class Hierarchy Descriptor'
PUBLIC	??_R2ioBlockDBItem@@8				; ioBlockDBItem::`RTTI Base Class Array'
PUBLIC	??_R1A@?0A@EA@ioBlockDBItem@@8			; ioBlockDBItem::`RTTI Base Class Descriptor at (0,-1,0,64)'
EXTRN	??_EioBlockDBItem@@UAEPAXI@Z:PROC		; ioBlockDBItem::`vector deleting destructor'
;	COMDAT ??_R1A@?0A@EA@ioBlockDBItem@@8
rdata$r	SEGMENT
??_R1A@?0A@EA@ioBlockDBItem@@8 DD FLAT:??_R0?AVioBlockDBItem@@@8 ; ioBlockDBItem::`RTTI Base Class Descriptor at (0,-1,0,64)'
	DD	00H
	DD	00H
	DD	0ffffffffH
	DD	00H
	DD	040H
	DD	FLAT:??_R3ioBlockDBItem@@8
rdata$r	ENDS
;	COMDAT ??_R2ioBlockDBItem@@8
rdata$r	SEGMENT
??_R2ioBlockDBItem@@8 DD FLAT:??_R1A@?0A@EA@ioBlockDBItem@@8 ; ioBlockDBItem::`RTTI Base Class Array'
rdata$r	ENDS
;	COMDAT ??_R3ioBlockDBItem@@8
rdata$r	SEGMENT
??_R3ioBlockDBItem@@8 DD 00H				; ioBlockDBItem::`RTTI Class Hierarchy Descriptor'
	DD	00H
	DD	01H
	DD	FLAT:??_R2ioBlockDBItem@@8
rdata$r	ENDS
;	COMDAT ??_R0?AVioBlockDBItem@@@8
_DATA	SEGMENT
??_R0?AVioBlockDBItem@@@8 DD FLAT:??_7type_info@@6B@	; ioBlockDBItem `RTTI Type Descriptor'
	DD	00H
	DB	'.?AVioBlockDBItem@@', 00H
_DATA	ENDS
;	COMDAT ??_R4ioBlockDBItem@@6B@
rdata$r	SEGMENT
??_R4ioBlockDBItem@@6B@ DD 00H				; ioBlockDBItem::`RTTI Complete Object Locator'
	DD	00H
	DD	00H
	DD	FLAT:??_R0?AVioBlockDBItem@@@8
	DD	FLAT:??_R3ioBlockDBItem@@8
rdata$r	ENDS
;	COMDAT ??_7ioBlockDBItem@@6B@
CONST	SEGMENT
??_7ioBlockDBItem@@6B@ DD FLAT:??_R4ioBlockDBItem@@6B@	; ioBlockDBItem::`vftable'
	DD	FLAT:??_EioBlockDBItem@@UAEPAXI@Z
; Function compile flags: /Ogsp
CONST	ENDS
;	COMDAT ??0ioBlockDBItem@@QAE@ABV0@@Z
_TEXT	SEGMENT
___that$ = 8						; size = 4
??0ioBlockDBItem@@QAE@ABV0@@Z PROC			; ioBlockDBItem::ioBlockDBItem, COMDAT
; _this$ = ecx
  00000	55		 push	 ebp
  00001	8b ec		 mov	 ebp, esp
  00003	8b c1		 mov	 eax, ecx
  00005	8b 4d 08	 mov	 ecx, DWORD PTR ___that$[ebp]
  00008	c7 00 00 00 00
	00		 mov	 DWORD PTR [eax], OFFSET ??_7ioBlockDBItem@@6B@
  0000e	8b 51 08	 mov	 edx, DWORD PTR [ecx+8]
  00011	89 50 08	 mov	 DWORD PTR [eax+8], edx
  00014	8b 51 10	 mov	 edx, DWORD PTR [ecx+16]
  00017	89 50 10	 mov	 DWORD PTR [eax+16], edx
  0001a	8b 51 14	 mov	 edx, DWORD PTR [ecx+20]
  0001d	89 50 14	 mov	 DWORD PTR [eax+20], edx
  00020	8b 51 18	 mov	 edx, DWORD PTR [ecx+24]
  00023	89 50 18	 mov	 DWORD PTR [eax+24], edx
  00026	8b 51 1c	 mov	 edx, DWORD PTR [ecx+28]
  00029	89 50 1c	 mov	 DWORD PTR [eax+28], edx
  0002c	8b 51 20	 mov	 edx, DWORD PTR [ecx+32]
  0002f	89 50 20	 mov	 DWORD PTR [eax+32], edx
  00032	8a 49 24	 mov	 cl, BYTE PTR [ecx+36]
  00035	88 48 24	 mov	 BYTE PTR [eax+36], cl
  00038	5d		 pop	 ebp
  00039	c2 04 00	 ret	 4
??0ioBlockDBItem@@QAE@ABV0@@Z ENDP			; ioBlockDBItem::ioBlockDBItem
_TEXT	ENDS
PUBLIC	??4InvenBlockItem@ioUserBlockStorage@@QAEAAU01@ABU01@@Z ; ioUserBlockStorage::InvenBlockItem::operator=
EXTRN	__imp_??4ioHashString@@QAEAAV0@ABV0@@Z:PROC
; Function compile flags: /Ogsp
;	COMDAT ??4InvenBlockItem@ioUserBlockStorage@@QAEAAU01@ABU01@@Z
_TEXT	SEGMENT
___that$ = 8						; size = 4
??4InvenBlockItem@ioUserBlockStorage@@QAEAAU01@ABU01@@Z PROC ; ioUserBlockStorage::InvenBlockItem::operator=, COMDAT
; _this$ = ecx
  00000	55		 push	 ebp
  00001	8b ec		 mov	 ebp, esp
  00003	53		 push	 ebx
  00004	8b 1d 00 00 00
	00		 mov	 ebx, DWORD PTR __imp_??4ioHashString@@QAEAAV0@ABV0@@Z
  0000a	56		 push	 esi
  0000b	57		 push	 edi
  0000c	8b 7d 08	 mov	 edi, DWORD PTR ___that$[ebp]
  0000f	57		 push	 edi
  00010	8b f1		 mov	 esi, ecx
  00012	ff d3		 call	 ebx
  00014	8d 47 10	 lea	 eax, DWORD PTR [edi+16]
  00017	50		 push	 eax
  00018	8d 4e 10	 lea	 ecx, DWORD PTR [esi+16]
  0001b	ff d3		 call	 ebx
  0001d	8b 47 20	 mov	 eax, DWORD PTR [edi+32]
  00020	89 46 20	 mov	 DWORD PTR [esi+32], eax
  00023	8b 47 24	 mov	 eax, DWORD PTR [edi+36]
  00026	89 46 24	 mov	 DWORD PTR [esi+36], eax
  00029	8b 47 28	 mov	 eax, DWORD PTR [edi+40]
  0002c	89 46 28	 mov	 DWORD PTR [esi+40], eax
  0002f	8b 47 2c	 mov	 eax, DWORD PTR [edi+44]
  00032	89 46 2c	 mov	 DWORD PTR [esi+44], eax
  00035	8b 47 30	 mov	 eax, DWORD PTR [edi+48]
  00038	89 46 30	 mov	 DWORD PTR [esi+48], eax
  0003b	8b 47 34	 mov	 eax, DWORD PTR [edi+52]
  0003e	89 46 34	 mov	 DWORD PTR [esi+52], eax
  00041	5f		 pop	 edi
  00042	8b c6		 mov	 eax, esi
  00044	5e		 pop	 esi
  00045	5b		 pop	 ebx
  00046	5d		 pop	 ebp
  00047	c2 04 00	 ret	 4
??4InvenBlockItem@ioUserBlockStorage@@QAEAAU01@ABU01@@Z ENDP ; ioUserBlockStorage::InvenBlockItem::operator=
_TEXT	ENDS
PUBLIC	??0InvenBlockItem@ioUserBlockStorage@@QAE@ABU01@@Z ; ioUserBlockStorage::InvenBlockItem::InvenBlockItem
EXTRN	__imp_??0ioHashString@@QAE@ABV0@@Z:PROC
;	COMDAT xdata$x
xdata$x	SEGMENT
__unwindtable$??0InvenBlockItem@ioUserBlockStorage@@QAE@ABU01@@Z DD 0ffffffffH
	DD	FLAT:__unwindfunclet$??0InvenBlockItem@ioUserBlockStorage@@QAE@ABU01@@Z$0
__ehfuncinfo$??0InvenBlockItem@ioUserBlockStorage@@QAE@ABU01@@Z DD 019930522H
	DD	01H
	DD	FLAT:__unwindtable$??0InvenBlockItem@ioUserBlockStorage@@QAE@ABU01@@Z
	DD	2 DUP(00H)
	DD	2 DUP(00H)
	DD	00H
	DD	01H
; Function compile flags: /Ogsp
xdata$x	ENDS
;	COMDAT ??0InvenBlockItem@ioUserBlockStorage@@QAE@ABU01@@Z
_TEXT	SEGMENT
_this$ = -16						; size = 4
__$EHRec$ = -12						; size = 12
___that$ = 8						; size = 4
??0InvenBlockItem@ioUserBlockStorage@@QAE@ABU01@@Z PROC	; ioUserBlockStorage::InvenBlockItem::InvenBlockItem, COMDAT
; _this$ = ecx
  00000	6a 04		 push	 4
  00002	b8 00 00 00 00	 mov	 eax, __ehhandler$??0InvenBlockItem@ioUserBlockStorage@@QAE@ABU01@@Z
  00007	e8 00 00 00 00	 call	 __EH_prolog3
  0000c	8b f1		 mov	 esi, ecx
  0000e	89 75 f0	 mov	 DWORD PTR _this$[ebp], esi
  00011	8b 7d 08	 mov	 edi, DWORD PTR ___that$[ebp]
  00014	8b 1d 00 00 00
	00		 mov	 ebx, DWORD PTR __imp_??0ioHashString@@QAE@ABV0@@Z
  0001a	57		 push	 edi
  0001b	ff d3		 call	 ebx
  0001d	83 65 fc 00	 and	 DWORD PTR __$EHRec$[ebp+8], 0
  00021	8d 47 10	 lea	 eax, DWORD PTR [edi+16]
  00024	50		 push	 eax
  00025	8d 4e 10	 lea	 ecx, DWORD PTR [esi+16]
  00028	ff d3		 call	 ebx
  0002a	8b 47 20	 mov	 eax, DWORD PTR [edi+32]
  0002d	89 46 20	 mov	 DWORD PTR [esi+32], eax
  00030	8b 47 24	 mov	 eax, DWORD PTR [edi+36]
  00033	89 46 24	 mov	 DWORD PTR [esi+36], eax
  00036	8b 47 28	 mov	 eax, DWORD PTR [edi+40]
  00039	89 46 28	 mov	 DWORD PTR [esi+40], eax
  0003c	8b 47 2c	 mov	 eax, DWORD PTR [edi+44]
  0003f	89 46 2c	 mov	 DWORD PTR [esi+44], eax
  00042	8b 47 30	 mov	 eax, DWORD PTR [edi+48]
  00045	89 46 30	 mov	 DWORD PTR [esi+48], eax
  00048	8b 47 34	 mov	 eax, DWORD PTR [edi+52]
  0004b	89 46 34	 mov	 DWORD PTR [esi+52], eax
  0004e	8b c6		 mov	 eax, esi
  00050	e8 00 00 00 00	 call	 __EH_epilog3
  00055	c2 04 00	 ret	 4
_TEXT	ENDS
;	COMDAT text$x
text$x	SEGMENT
__unwindfunclet$??0InvenBlockItem@ioUserBlockStorage@@QAE@ABU01@@Z$0:
  00000	8b 4d f0	 mov	 ecx, DWORD PTR _this$[ebp]
  00003	ff 25 00 00 00
	00		 jmp	 DWORD PTR __imp_??1ioHashString@@QAE@XZ
__ehhandler$??0InvenBlockItem@ioUserBlockStorage@@QAE@ABU01@@Z:
  00009	8b 54 24 08	 mov	 edx, DWORD PTR [esp+8]
  0000d	8d 42 0c	 lea	 eax, DWORD PTR [edx+12]
  00010	8b 4a ec	 mov	 ecx, DWORD PTR [edx-20]
  00013	33 c8		 xor	 ecx, eax
  00015	e8 00 00 00 00	 call	 @__security_check_cookie@4
  0001a	b8 00 00 00 00	 mov	 eax, OFFSET __ehfuncinfo$??0InvenBlockItem@ioUserBlockStorage@@QAE@ABU01@@Z
  0001f	e9 00 00 00 00	 jmp	 ___CxxFrameHandler3
text$x	ENDS
??0InvenBlockItem@ioUserBlockStorage@@QAE@ABU01@@Z ENDP	; ioUserBlockStorage::InvenBlockItem::InvenBlockItem
PUBLIC	??4ioBlockDBItem@@QAEAAV0@ABV0@@Z		; ioBlockDBItem::operator=
; Function compile flags: /Ogsp
;	COMDAT ??4ioBlockDBItem@@QAEAAV0@ABV0@@Z
_TEXT	SEGMENT
___that$ = 8						; size = 4
??4ioBlockDBItem@@QAEAAV0@ABV0@@Z PROC			; ioBlockDBItem::operator=, COMDAT
; _this$ = ecx
  00000	55		 push	 ebp
  00001	8b ec		 mov	 ebp, esp
  00003	8b c1		 mov	 eax, ecx
  00005	8b 4d 08	 mov	 ecx, DWORD PTR ___that$[ebp]
  00008	8b 51 08	 mov	 edx, DWORD PTR [ecx+8]
  0000b	89 50 08	 mov	 DWORD PTR [eax+8], edx
  0000e	8b 51 10	 mov	 edx, DWORD PTR [ecx+16]
  00011	89 50 10	 mov	 DWORD PTR [eax+16], edx
  00014	8b 51 14	 mov	 edx, DWORD PTR [ecx+20]
  00017	89 50 14	 mov	 DWORD PTR [eax+20], edx
  0001a	8b 51 18	 mov	 edx, DWORD PTR [ecx+24]
  0001d	89 50 18	 mov	 DWORD PTR [eax+24], edx
  00020	8b 51 1c	 mov	 edx, DWORD PTR [ecx+28]
  00023	89 50 1c	 mov	 DWORD PTR [eax+28], edx
  00026	8b 51 20	 mov	 edx, DWORD PTR [ecx+32]
  00029	89 50 20	 mov	 DWORD PTR [eax+32], edx
  0002c	8a 49 24	 mov	 cl, BYTE PTR [ecx+36]
  0002f	88 48 24	 mov	 BYTE PTR [eax+36], cl
  00032	5d		 pop	 ebp
  00033	c2 04 00	 ret	 4
??4ioBlockDBItem@@QAEAAV0@ABV0@@Z ENDP			; ioBlockDBItem::operator=
_TEXT	ENDS
EXTRN	??1ioBlockDBItem@@UAE@XZ:PROC			; ioBlockDBItem::~ioBlockDBItem
; Function compile flags: /Ogsp
;	COMDAT ??_GioBlockDBItem@@UAEPAXI@Z
_TEXT	SEGMENT
___flags$ = 8						; size = 4
??_GioBlockDBItem@@UAEPAXI@Z PROC			; ioBlockDBItem::`scalar deleting destructor', COMDAT
; _this$ = ecx
  00000	55		 push	 ebp
  00001	8b ec		 mov	 ebp, esp
  00003	56		 push	 esi
  00004	8b f1		 mov	 esi, ecx
  00006	e8 00 00 00 00	 call	 ??1ioBlockDBItem@@UAE@XZ ; ioBlockDBItem::~ioBlockDBItem
  0000b	f6 45 08 01	 test	 BYTE PTR ___flags$[ebp], 1
  0000f	74 07		 je	 SHORT $LN1@scalar@2
  00011	56		 push	 esi
  00012	e8 00 00 00 00	 call	 ??3@YAXPAX@Z		; operator delete
  00017	59		 pop	 ecx
$LN1@scalar@2:
  00018	8b c6		 mov	 eax, esi
  0001a	5e		 pop	 esi
  0001b	5d		 pop	 ebp
  0001c	c2 04 00	 ret	 4
??_GioBlockDBItem@@UAEPAXI@Z ENDP			; ioBlockDBItem::`scalar deleting destructor'
_TEXT	ENDS
PUBLIC	?_Unchecked@?$_Vector_iterator@V?$_Vector_val@UInvenBlockItem@ioUserBlockStorage@@V?$allocator@UInvenBlockItem@ioUserBlockStorage@@@std@@@std@@@std@@QBEPAUInvenBlockItem@ioUserBlockStorage@@XZ ; std::_Vector_iterator<std::_Vector_val<ioUserBlockStorage::InvenBlockItem,std::allocator<ioUserBlockStorage::InvenBlockItem> > >::_Unchecked
; Function compile flags: /Ogsp
; File c:\program files (x86)\microsoft visual studio 10.0\vc\include\vector
;	COMDAT ?_Unchecked@?$_Vector_iterator@V?$_Vector_val@UInvenBlockItem@ioUserBlockStorage@@V?$allocator@UInvenBlockItem@ioUserBlockStorage@@@std@@@std@@@std@@QBEPAUInvenBlockItem@ioUserBlockStorage@@XZ
_TEXT	SEGMENT
?_Unchecked@?$_Vector_iterator@V?$_Vector_val@UInvenBlockItem@ioUserBlockStorage@@V?$allocator@UInvenBlockItem@ioUserBlockStorage@@@std@@@std@@@std@@QBEPAUInvenBlockItem@ioUserBlockStorage@@XZ PROC ; std::_Vector_iterator<std::_Vector_val<ioUserBlockStorage::InvenBlockItem,std::allocator<ioUserBlockStorage::InvenBlockItem> > >::_Unchecked, COMDAT
; _this$ = ecx

; 317  : 		return (_Unchecked_type(this->_Ptr));

  00000	8b 01		 mov	 eax, DWORD PTR [ecx]

; 318  : 		}

  00002	c3		 ret	 0
?_Unchecked@?$_Vector_iterator@V?$_Vector_val@UInvenBlockItem@ioUserBlockStorage@@V?$allocator@UInvenBlockItem@ioUserBlockStorage@@@std@@@std@@@std@@QBEPAUInvenBlockItem@ioUserBlockStorage@@XZ ENDP ; std::_Vector_iterator<std::_Vector_val<ioUserBlockStorage::InvenBlockItem,std::allocator<ioUserBlockStorage::InvenBlockItem> > >::_Unchecked
_TEXT	ENDS
PUBLIC	??$_Ptr_cat@PAUInvenBlockItem@ioUserBlockStorage@@V?$back_insert_iterator@V?$vector@UInvenBlockItem@ioUserBlockStorage@@V?$allocator@UInvenBlockItem@ioUserBlockStorage@@@std@@@std@@@std@@@std@@YA?AU_Nonscalar_ptr_iterator_tag@0@AAPAUInvenBlockItem@ioUserBlockStorage@@AAV?$back_insert_iterator@V?$vector@UInvenBlockItem@ioUserBlockStorage@@V?$allocator@UInvenBlockItem@ioUserBlockStorage@@@std@@@std@@@0@@Z ; std::_Ptr_cat<ioUserBlockStorage::InvenBlockItem *,std::back_insert_iterator<std::vector<ioUserBlockStorage::InvenBlockItem,std::allocator<ioUserBlockStorage::InvenBlockItem> > > >
; Function compile flags: /Ogsp
; File c:\program files (x86)\microsoft visual studio 10.0\vc\include\xutility
;	COMDAT ??$_Ptr_cat@PAUInvenBlockItem@ioUserBlockStorage@@V?$back_insert_iterator@V?$vector@UInvenBlockItem@ioUserBlockStorage@@V?$allocator@UInvenBlockItem@ioUserBlockStorage@@@std@@@std@@@std@@@std@@YA?AU_Nonscalar_ptr_iterator_tag@0@AAPAUInvenBlockItem@ioUserBlockStorage@@AAV?$back_insert_iterator@V?$vector@UInvenBlockItem@ioUserBlockStorage@@V?$allocator@UInvenBlockItem@ioUserBlockStorage@@@std@@@std@@@0@@Z
_TEXT	SEGMENT
__Cat$ = -1						; size = 1
___formal$ = 8						; size = 4
___formal$ = 12						; size = 4
??$_Ptr_cat@PAUInvenBlockItem@ioUserBlockStorage@@V?$back_insert_iterator@V?$vector@UInvenBlockItem@ioUserBlockStorage@@V?$allocator@UInvenBlockItem@ioUserBlockStorage@@@std@@@std@@@std@@@std@@YA?AU_Nonscalar_ptr_iterator_tag@0@AAPAUInvenBlockItem@ioUserBlockStorage@@AAV?$back_insert_iterator@V?$vector@UInvenBlockItem@ioUserBlockStorage@@V?$allocator@UInvenBlockItem@ioUserBlockStorage@@@std@@@std@@@0@@Z PROC ; std::_Ptr_cat<ioUserBlockStorage::InvenBlockItem *,std::back_insert_iterator<std::vector<ioUserBlockStorage::InvenBlockItem,std::allocator<ioUserBlockStorage::InvenBlockItem> > > >, COMDAT

; 485  : 	{	// return pointer category from arbitrary arguments

  00000	55		 push	 ebp
  00001	8b ec		 mov	 ebp, esp
  00003	51		 push	 ecx

; 486  : 	_Nonscalar_ptr_iterator_tag _Cat;
; 487  : 	return (_Cat);

  00004	8a 45 ff	 mov	 al, BYTE PTR __Cat$[ebp]

; 488  : 	}

  00007	c9		 leave
  00008	c3		 ret	 0
??$_Ptr_cat@PAUInvenBlockItem@ioUserBlockStorage@@V?$back_insert_iterator@V?$vector@UInvenBlockItem@ioUserBlockStorage@@V?$allocator@UInvenBlockItem@ioUserBlockStorage@@@std@@@std@@@std@@@std@@YA?AU_Nonscalar_ptr_iterator_tag@0@AAPAUInvenBlockItem@ioUserBlockStorage@@AAV?$back_insert_iterator@V?$vector@UInvenBlockItem@ioUserBlockStorage@@V?$allocator@UInvenBlockItem@ioUserBlockStorage@@@std@@@std@@@0@@Z ENDP ; std::_Ptr_cat<ioUserBlockStorage::InvenBlockItem *,std::back_insert_iterator<std::vector<ioUserBlockStorage::InvenBlockItem,std::allocator<ioUserBlockStorage::InvenBlockItem> > > >
_TEXT	ENDS
PUBLIC	??$move@AAVioBlockDBItem@@@std@@YA$$QAVioBlockDBItem@@AAV1@@Z ; std::move<ioBlockDBItem &>
; Function compile flags: /Ogsp
; File c:\program files (x86)\microsoft visual studio 10.0\vc\include\utility
;	COMDAT ??$move@AAVioBlockDBItem@@@std@@YA$$QAVioBlockDBItem@@AAV1@@Z
_TEXT	SEGMENT
__Arg$ = 8						; size = 4
??$move@AAVioBlockDBItem@@@std@@YA$$QAVioBlockDBItem@@AAV1@@Z PROC ; std::move<ioBlockDBItem &>, COMDAT

; 86   : 	{	// forward _Arg as movable

  00000	55		 push	 ebp
  00001	8b ec		 mov	 ebp, esp

; 87   : 	return ((typename tr1::_Remove_reference<_Ty>::_Type&&)_Arg);

  00003	8b 45 08	 mov	 eax, DWORD PTR __Arg$[ebp]

; 88   : 	}

  00006	5d		 pop	 ebp
  00007	c3		 ret	 0
??$move@AAVioBlockDBItem@@@std@@YA$$QAVioBlockDBItem@@AAV1@@Z ENDP ; std::move<ioBlockDBItem &>
_TEXT	ENDS
PUBLIC	??$move@AAUInvenBlockItem@ioUserBlockStorage@@@std@@YA$$QAUInvenBlockItem@ioUserBlockStorage@@AAU12@@Z ; std::move<ioUserBlockStorage::InvenBlockItem &>
; Function compile flags: /Ogsp
;	COMDAT ??$move@AAUInvenBlockItem@ioUserBlockStorage@@@std@@YA$$QAUInvenBlockItem@ioUserBlockStorage@@AAU12@@Z
_TEXT	SEGMENT
__Arg$ = 8						; size = 4
??$move@AAUInvenBlockItem@ioUserBlockStorage@@@std@@YA$$QAUInvenBlockItem@ioUserBlockStorage@@AAU12@@Z PROC ; std::move<ioUserBlockStorage::InvenBlockItem &>, COMDAT

; 86   : 	{	// forward _Arg as movable

  00000	55		 push	 ebp
  00001	8b ec		 mov	 ebp, esp

; 87   : 	return ((typename tr1::_Remove_reference<_Ty>::_Type&&)_Arg);

  00003	8b 45 08	 mov	 eax, DWORD PTR __Arg$[ebp]

; 88   : 	}

  00006	5d		 pop	 ebp
  00007	c3		 ret	 0
??$move@AAUInvenBlockItem@ioUserBlockStorage@@@std@@YA$$QAUInvenBlockItem@ioUserBlockStorage@@AAU12@@Z ENDP ; std::move<ioUserBlockStorage::InvenBlockItem &>
_TEXT	ENDS
PUBLIC	??$_Val_type@PAVioBlockDBItem@@@std@@YAPAVioBlockDBItem@@PAV1@@Z ; std::_Val_type<ioBlockDBItem *>
; Function compile flags: /Ogsp
; File c:\program files (x86)\microsoft visual studio 10.0\vc\include\xutility
;	COMDAT ??$_Val_type@PAVioBlockDBItem@@@std@@YAPAVioBlockDBItem@@PAV1@@Z
_TEXT	SEGMENT
___formal$ = 8						; size = 4
??$_Val_type@PAVioBlockDBItem@@@std@@YAPAVioBlockDBItem@@PAV1@@Z PROC ; std::_Val_type<ioBlockDBItem *>, COMDAT

; 790  : 	return (0);

  00000	33 c0		 xor	 eax, eax

; 791  : 	}

  00002	c3		 ret	 0
??$_Val_type@PAVioBlockDBItem@@@std@@YAPAVioBlockDBItem@@PAV1@@Z ENDP ; std::_Val_type<ioBlockDBItem *>
_TEXT	ENDS
PUBLIC	??$_Val_type@PAUInvenBlockItem@ioUserBlockStorage@@@std@@YAPAUInvenBlockItem@ioUserBlockStorage@@PAU12@@Z ; std::_Val_type<ioUserBlockStorage::InvenBlockItem *>
; Function compile flags: /Ogsp
;	COMDAT ??$_Val_type@PAUInvenBlockItem@ioUserBlockStorage@@@std@@YAPAUInvenBlockItem@ioUserBlockStorage@@PAU12@@Z
_TEXT	SEGMENT
___formal$ = 8						; size = 4
??$_Val_type@PAUInvenBlockItem@ioUserBlockStorage@@@std@@YAPAUInvenBlockItem@ioUserBlockStorage@@PAU12@@Z PROC ; std::_Val_type<ioUserBlockStorage::InvenBlockItem *>, COMDAT

; 790  : 	return (0);

  00000	33 c0		 xor	 eax, eax

; 791  : 	}

  00002	c3		 ret	 0
??$_Val_type@PAUInvenBlockItem@ioUserBlockStorage@@@std@@YAPAUInvenBlockItem@ioUserBlockStorage@@PAU12@@Z ENDP ; std::_Val_type<ioUserBlockStorage::InvenBlockItem *>
_TEXT	ENDS
PUBLIC	??D?$back_insert_iterator@V?$vector@UInvenBlockItem@ioUserBlockStorage@@V?$allocator@UInvenBlockItem@ioUserBlockStorage@@@std@@@std@@@std@@QAEAAV01@XZ ; std::back_insert_iterator<std::vector<ioUserBlockStorage::InvenBlockItem,std::allocator<ioUserBlockStorage::InvenBlockItem> > >::operator*
; Function compile flags: /Ogsp
; File c:\program files (x86)\microsoft visual studio 10.0\vc\include\iterator
;	COMDAT ??D?$back_insert_iterator@V?$vector@UInvenBlockItem@ioUserBlockStorage@@V?$allocator@UInvenBlockItem@ioUserBlockStorage@@@std@@@std@@@std@@QAEAAV01@XZ
_TEXT	SEGMENT
??D?$back_insert_iterator@V?$vector@UInvenBlockItem@ioUserBlockStorage@@V?$allocator@UInvenBlockItem@ioUserBlockStorage@@@std@@@std@@@std@@QAEAAV01@XZ PROC ; std::back_insert_iterator<std::vector<ioUserBlockStorage::InvenBlockItem,std::allocator<ioUserBlockStorage::InvenBlockItem> > >::operator*, COMDAT
; _this$ = ecx

; 42   : 		{	// pretend to return designated value

  00000	8b c1		 mov	 eax, ecx

; 43   : 		return (*this);
; 44   : 		}

  00002	c3		 ret	 0
??D?$back_insert_iterator@V?$vector@UInvenBlockItem@ioUserBlockStorage@@V?$allocator@UInvenBlockItem@ioUserBlockStorage@@@std@@@std@@@std@@QAEAAV01@XZ ENDP ; std::back_insert_iterator<std::vector<ioUserBlockStorage::InvenBlockItem,std::allocator<ioUserBlockStorage::InvenBlockItem> > >::operator*
_TEXT	ENDS
PUBLIC	??E?$back_insert_iterator@V?$vector@UInvenBlockItem@ioUserBlockStorage@@V?$allocator@UInvenBlockItem@ioUserBlockStorage@@@std@@@std@@@std@@QAEAAV01@XZ ; std::back_insert_iterator<std::vector<ioUserBlockStorage::InvenBlockItem,std::allocator<ioUserBlockStorage::InvenBlockItem> > >::operator++
; Function compile flags: /Ogsp
;	COMDAT ??E?$back_insert_iterator@V?$vector@UInvenBlockItem@ioUserBlockStorage@@V?$allocator@UInvenBlockItem@ioUserBlockStorage@@@std@@@std@@@std@@QAEAAV01@XZ
_TEXT	SEGMENT
??E?$back_insert_iterator@V?$vector@UInvenBlockItem@ioUserBlockStorage@@V?$allocator@UInvenBlockItem@ioUserBlockStorage@@@std@@@std@@@std@@QAEAAV01@XZ PROC ; std::back_insert_iterator<std::vector<ioUserBlockStorage::InvenBlockItem,std::allocator<ioUserBlockStorage::InvenBlockItem> > >::operator++, COMDAT
; _this$ = ecx

; 47   : 		{	// pretend to preincrement

  00000	8b c1		 mov	 eax, ecx

; 48   : 		return (*this);
; 49   : 		}

  00002	c3		 ret	 0
??E?$back_insert_iterator@V?$vector@UInvenBlockItem@ioUserBlockStorage@@V?$allocator@UInvenBlockItem@ioUserBlockStorage@@@std@@@std@@@std@@QAEAAV01@XZ ENDP ; std::back_insert_iterator<std::vector<ioUserBlockStorage::InvenBlockItem,std::allocator<ioUserBlockStorage::InvenBlockItem> > >::operator++
_TEXT	ENDS
PUBLIC	??$_Unchecked@PAUInvenBlockItem@ioUserBlockStorage@@@std@@YAPAUInvenBlockItem@ioUserBlockStorage@@PAU12@@Z ; std::_Unchecked<ioUserBlockStorage::InvenBlockItem *>
; Function compile flags: /Ogsp
; File c:\program files (x86)\microsoft visual studio 10.0\vc\include\xutility
;	COMDAT ??$_Unchecked@PAUInvenBlockItem@ioUserBlockStorage@@@std@@YAPAUInvenBlockItem@ioUserBlockStorage@@PAU12@@Z
_TEXT	SEGMENT
__Src$ = 8						; size = 4
??$_Unchecked@PAUInvenBlockItem@ioUserBlockStorage@@@std@@YAPAUInvenBlockItem@ioUserBlockStorage@@PAU12@@Z PROC ; std::_Unchecked<ioUserBlockStorage::InvenBlockItem *>, COMDAT

; 266  : 	{	// construct unchecked from checked, generic

  00000	55		 push	 ebp
  00001	8b ec		 mov	 ebp, esp

; 267  : 	return (_Src);

  00003	8b 45 08	 mov	 eax, DWORD PTR __Src$[ebp]

; 268  : 	}

  00006	5d		 pop	 ebp
  00007	c3		 ret	 0
??$_Unchecked@PAUInvenBlockItem@ioUserBlockStorage@@@std@@YAPAUInvenBlockItem@ioUserBlockStorage@@PAU12@@Z ENDP ; std::_Unchecked<ioUserBlockStorage::InvenBlockItem *>
_TEXT	ENDS
PUBLIC	??$_Dist_type@PAUInvenBlockItem@ioUserBlockStorage@@@std@@YAPAHPAUInvenBlockItem@ioUserBlockStorage@@@Z ; std::_Dist_type<ioUserBlockStorage::InvenBlockItem *>
; Function compile flags: /Ogsp
;	COMDAT ??$_Dist_type@PAUInvenBlockItem@ioUserBlockStorage@@@std@@YAPAHPAUInvenBlockItem@ioUserBlockStorage@@@Z
_TEXT	SEGMENT
___formal$ = 8						; size = 4
??$_Dist_type@PAUInvenBlockItem@ioUserBlockStorage@@@std@@YAPAHPAUInvenBlockItem@ioUserBlockStorage@@@Z PROC ; std::_Dist_type<ioUserBlockStorage::InvenBlockItem *>, COMDAT

; 850  : 	return (0);

  00000	33 c0		 xor	 eax, eax

; 851  : 	}

  00002	c3		 ret	 0
??$_Dist_type@PAUInvenBlockItem@ioUserBlockStorage@@@std@@YAPAHPAUInvenBlockItem@ioUserBlockStorage@@@Z ENDP ; std::_Dist_type<ioUserBlockStorage::InvenBlockItem *>
_TEXT	ENDS
PUBLIC	??$_Destroy@VioBlockDBItem@@@std@@YAXPAVioBlockDBItem@@@Z ; std::_Destroy<ioBlockDBItem>
; Function compile flags: /Ogsp
; File c:\program files (x86)\microsoft visual studio 10.0\vc\include\xmemory
;	COMDAT ??$_Destroy@VioBlockDBItem@@@std@@YAXPAVioBlockDBItem@@@Z
_TEXT	SEGMENT
__Ptr$ = 8						; size = 4
??$_Destroy@VioBlockDBItem@@@std@@YAXPAVioBlockDBItem@@@Z PROC ; std::_Destroy<ioBlockDBItem>, COMDAT

; 62   : 	{	// destroy object at _Ptr

  00000	55		 push	 ebp
  00001	8b ec		 mov	 ebp, esp

; 63   : 	_Ptr->~_Ty();

  00003	8b 4d 08	 mov	 ecx, DWORD PTR __Ptr$[ebp]
  00006	8b 01		 mov	 eax, DWORD PTR [ecx]
  00008	6a 00		 push	 0
  0000a	ff 10		 call	 DWORD PTR [eax]

; 64   : 	}

  0000c	5d		 pop	 ebp
  0000d	c3		 ret	 0
??$_Destroy@VioBlockDBItem@@@std@@YAXPAVioBlockDBItem@@@Z ENDP ; std::_Destroy<ioBlockDBItem>
_TEXT	ENDS
PUBLIC	??_GInvenBlockItem@ioUserBlockStorage@@QAEPAXI@Z ; ioUserBlockStorage::InvenBlockItem::`scalar deleting destructor'
; Function compile flags: /Ogsp
;	COMDAT ??_GInvenBlockItem@ioUserBlockStorage@@QAEPAXI@Z
_TEXT	SEGMENT
___flags$ = 8						; size = 4
??_GInvenBlockItem@ioUserBlockStorage@@QAEPAXI@Z PROC	; ioUserBlockStorage::InvenBlockItem::`scalar deleting destructor', COMDAT
; _this$ = ecx
  00000	55		 push	 ebp
  00001	8b ec		 mov	 ebp, esp
  00003	56		 push	 esi
  00004	8b f1		 mov	 esi, ecx
  00006	e8 00 00 00 00	 call	 ??1InvenBlockItem@ioUserBlockStorage@@QAE@XZ
  0000b	f6 45 08 01	 test	 BYTE PTR ___flags$[ebp], 1
  0000f	74 07		 je	 SHORT $LN1@scalar@3
  00011	56		 push	 esi
  00012	e8 00 00 00 00	 call	 ??3@YAXPAX@Z		; operator delete
  00017	59		 pop	 ecx
$LN1@scalar@3:
  00018	8b c6		 mov	 eax, esi
  0001a	5e		 pop	 esi
  0001b	5d		 pop	 ebp
  0001c	c2 04 00	 ret	 4
??_GInvenBlockItem@ioUserBlockStorage@@QAEPAXI@Z ENDP	; ioUserBlockStorage::InvenBlockItem::`scalar deleting destructor'
_TEXT	ENDS
PUBLIC	??$forward@AAPAUInvenBlockItem@ioUserBlockStorage@@@std@@YAAAPAUInvenBlockItem@ioUserBlockStorage@@AAPAU12@@Z ; std::forward<ioUserBlockStorage::InvenBlockItem * &>
; Function compile flags: /Ogsp
; File c:\program files (x86)\microsoft visual studio 10.0\vc\include\utility
;	COMDAT ??$forward@AAPAUInvenBlockItem@ioUserBlockStorage@@@std@@YAAAPAUInvenBlockItem@ioUserBlockStorage@@AAPAU12@@Z
_TEXT	SEGMENT
__Arg$ = 8						; size = 4
??$forward@AAPAUInvenBlockItem@ioUserBlockStorage@@@std@@YAAAPAUInvenBlockItem@ioUserBlockStorage@@AAPAU12@@Z PROC ; std::forward<ioUserBlockStorage::InvenBlockItem * &>, COMDAT

; 78   : 	{	// forward _Arg, given explicitly specified type parameter

  00000	55		 push	 ebp
  00001	8b ec		 mov	 ebp, esp

; 79   : 	return ((_Ty&&)_Arg);

  00003	8b 45 08	 mov	 eax, DWORD PTR __Arg$[ebp]

; 80   : 	}

  00006	5d		 pop	 ebp
  00007	c3		 ret	 0
??$forward@AAPAUInvenBlockItem@ioUserBlockStorage@@@std@@YAAAPAUInvenBlockItem@ioUserBlockStorage@@AAPAU12@@Z ENDP ; std::forward<ioUserBlockStorage::InvenBlockItem * &>
_TEXT	ENDS
PUBLIC	??$?0AAPAUInvenBlockItem@ioUserBlockStorage@@AAPAU01@@?$_Pair_base@PAUInvenBlockItem@ioUserBlockStorage@@PAU12@@std@@QAE@AAPAUInvenBlockItem@ioUserBlockStorage@@0@Z ; std::_Pair_base<ioUserBlockStorage::InvenBlockItem *,ioUserBlockStorage::InvenBlockItem *>::_Pair_base<ioUserBlockStorage::InvenBlockItem *,ioUserBlockStorage::InvenBlockItem *><ioUserBlockStorage::InvenBlockItem * &,ioUserBlockStorage::InvenBlockItem * &>
; Function compile flags: /Ogsp
;	COMDAT ??$?0AAPAUInvenBlockItem@ioUserBlockStorage@@AAPAU01@@?$_Pair_base@PAUInvenBlockItem@ioUserBlockStorage@@PAU12@@std@@QAE@AAPAUInvenBlockItem@ioUserBlockStorage@@0@Z
_TEXT	SEGMENT
__Val1$ = 8						; size = 4
__Val2$ = 12						; size = 4
??$?0AAPAUInvenBlockItem@ioUserBlockStorage@@AAPAU01@@?$_Pair_base@PAUInvenBlockItem@ioUserBlockStorage@@PAU12@@std@@QAE@AAPAUInvenBlockItem@ioUserBlockStorage@@0@Z PROC ; std::_Pair_base<ioUserBlockStorage::InvenBlockItem *,ioUserBlockStorage::InvenBlockItem *>::_Pair_base<ioUserBlockStorage::InvenBlockItem *,ioUserBlockStorage::InvenBlockItem *><ioUserBlockStorage::InvenBlockItem * &,ioUserBlockStorage::InvenBlockItem * &>, COMDAT
; _this$ = ecx

; 163  : 		{	// construct from moved values

  00000	55		 push	 ebp
  00001	8b ec		 mov	 ebp, esp
  00003	8b c1		 mov	 eax, ecx
  00005	8b 4d 08	 mov	 ecx, DWORD PTR __Val1$[ebp]
  00008	8b 09		 mov	 ecx, DWORD PTR [ecx]
  0000a	89 08		 mov	 DWORD PTR [eax], ecx
  0000c	8b 4d 0c	 mov	 ecx, DWORD PTR __Val2$[ebp]
  0000f	8b 09		 mov	 ecx, DWORD PTR [ecx]
  00011	89 48 04	 mov	 DWORD PTR [eax+4], ecx

; 164  : 		}

  00014	5d		 pop	 ebp
  00015	c2 08 00	 ret	 8
??$?0AAPAUInvenBlockItem@ioUserBlockStorage@@AAPAU01@@?$_Pair_base@PAUInvenBlockItem@ioUserBlockStorage@@PAU12@@std@@QAE@AAPAUInvenBlockItem@ioUserBlockStorage@@0@Z ENDP ; std::_Pair_base<ioUserBlockStorage::InvenBlockItem *,ioUserBlockStorage::InvenBlockItem *>::_Pair_base<ioUserBlockStorage::InvenBlockItem *,ioUserBlockStorage::InvenBlockItem *><ioUserBlockStorage::InvenBlockItem * &,ioUserBlockStorage::InvenBlockItem * &>
_TEXT	ENDS
PUBLIC	??$_Move@AAUInvenBlockItem@ioUserBlockStorage@@@std@@YA$$QAUInvenBlockItem@ioUserBlockStorage@@AAU12@@Z ; std::_Move<ioUserBlockStorage::InvenBlockItem &>
; Function compile flags: /Ogsp
;	COMDAT ??$_Move@AAUInvenBlockItem@ioUserBlockStorage@@@std@@YA$$QAUInvenBlockItem@ioUserBlockStorage@@AAU12@@Z
_TEXT	SEGMENT
__Arg$ = 8						; size = 4
??$_Move@AAUInvenBlockItem@ioUserBlockStorage@@@std@@YA$$QAUInvenBlockItem@ioUserBlockStorage@@AAU12@@Z PROC ; std::_Move<ioUserBlockStorage::InvenBlockItem &>, COMDAT

; 94   : 	{	// forward _Arg as movable

  00000	55		 push	 ebp
  00001	8b ec		 mov	 ebp, esp

; 95   : 	return ((typename tr1::_Remove_reference<_Ty>::_Type&&)_Arg);

  00003	8b 45 08	 mov	 eax, DWORD PTR __Arg$[ebp]

; 96   : 	}

  00006	5d		 pop	 ebp
  00007	c3		 ret	 0
??$_Move@AAUInvenBlockItem@ioUserBlockStorage@@@std@@YA$$QAUInvenBlockItem@ioUserBlockStorage@@AAU12@@Z ENDP ; std::_Move<ioUserBlockStorage::InvenBlockItem &>
_TEXT	ENDS
PUBLIC	??$forward@VioBlockDBItem@@@std@@YA$$QAVioBlockDBItem@@AAV1@@Z ; std::forward<ioBlockDBItem>
; Function compile flags: /Ogsp
;	COMDAT ??$forward@VioBlockDBItem@@@std@@YA$$QAVioBlockDBItem@@AAV1@@Z
_TEXT	SEGMENT
__Arg$ = 8						; size = 4
??$forward@VioBlockDBItem@@@std@@YA$$QAVioBlockDBItem@@AAV1@@Z PROC ; std::forward<ioBlockDBItem>, COMDAT

; 78   : 	{	// forward _Arg, given explicitly specified type parameter

  00000	55		 push	 ebp
  00001	8b ec		 mov	 ebp, esp

; 79   : 	return ((_Ty&&)_Arg);

  00003	8b 45 08	 mov	 eax, DWORD PTR __Arg$[ebp]

; 80   : 	}

  00006	5d		 pop	 ebp
  00007	c3		 ret	 0
??$forward@VioBlockDBItem@@@std@@YA$$QAVioBlockDBItem@@AAV1@@Z ENDP ; std::forward<ioBlockDBItem>
_TEXT	ENDS
PUBLIC	??$forward@UInvenBlockItem@ioUserBlockStorage@@@std@@YA$$QAUInvenBlockItem@ioUserBlockStorage@@AAU12@@Z ; std::forward<ioUserBlockStorage::InvenBlockItem>
; Function compile flags: /Ogsp
;	COMDAT ??$forward@UInvenBlockItem@ioUserBlockStorage@@@std@@YA$$QAUInvenBlockItem@ioUserBlockStorage@@AAU12@@Z
_TEXT	SEGMENT
__Arg$ = 8						; size = 4
??$forward@UInvenBlockItem@ioUserBlockStorage@@@std@@YA$$QAUInvenBlockItem@ioUserBlockStorage@@AAU12@@Z PROC ; std::forward<ioUserBlockStorage::InvenBlockItem>, COMDAT

; 78   : 	{	// forward _Arg, given explicitly specified type parameter

  00000	55		 push	 ebp
  00001	8b ec		 mov	 ebp, esp

; 79   : 	return ((_Ty&&)_Arg);

  00003	8b 45 08	 mov	 eax, DWORD PTR __Arg$[ebp]

; 80   : 	}

  00006	5d		 pop	 ebp
  00007	c3		 ret	 0
??$forward@UInvenBlockItem@ioUserBlockStorage@@@std@@YA$$QAUInvenBlockItem@ioUserBlockStorage@@AAU12@@Z ENDP ; std::forward<ioUserBlockStorage::InvenBlockItem>
_TEXT	ENDS
PUBLIC	??$_Push_heap@PAUInvenBlockItem@ioUserBlockStorage@@HU12@VInvenBlockItemSort@2@@std@@YAXPAUInvenBlockItem@ioUserBlockStorage@@HH$$QAU12@VInvenBlockItemSort@2@@Z ; std::_Push_heap<ioUserBlockStorage::InvenBlockItem *,int,ioUserBlockStorage::InvenBlockItem,ioUserBlockStorage::InvenBlockItemSort>
; Function compile flags: /Ogsp
; File c:\program files (x86)\microsoft visual studio 10.0\vc\include\algorithm
;	COMDAT ??$_Push_heap@PAUInvenBlockItem@ioUserBlockStorage@@HU12@VInvenBlockItemSort@2@@std@@YAXPAUInvenBlockItem@ioUserBlockStorage@@HH$$QAU12@VInvenBlockItemSort@2@@Z
_TEXT	SEGMENT
__First$ = 8						; size = 4
__Hole$ = 12						; size = 4
__Top$ = 16						; size = 4
__Val$ = 20						; size = 4
__Pred$ = 24						; size = 1
??$_Push_heap@PAUInvenBlockItem@ioUserBlockStorage@@HU12@VInvenBlockItemSort@2@@std@@YAXPAUInvenBlockItem@ioUserBlockStorage@@HH$$QAU12@VInvenBlockItemSort@2@@Z PROC ; std::_Push_heap<ioUserBlockStorage::InvenBlockItem *,int,ioUserBlockStorage::InvenBlockItem,ioUserBlockStorage::InvenBlockItemSort>, COMDAT

; 2455 : 	{	// percolate _Hole to _Top or where _Val belongs, using operator<

  00000	55		 push	 ebp
  00001	8b ec		 mov	 ebp, esp

; 2456 : 	for (_Diff _Idx = (_Hole - 1) / 2;

  00003	8b 4d 0c	 mov	 ecx, DWORD PTR __Hole$[ebp]
  00006	8d 41 ff	 lea	 eax, DWORD PTR [ecx-1]
  00009	53		 push	 ebx

; 2457 : 		_Top < _Hole && _DEBUG_LT_PRED(_Pred, *(_First + _Idx), _Val);
; 2458 : 		_Idx = (_Hole - 1) / 2)

  0000a	8b 5d 14	 mov	 ebx, DWORD PTR __Val$[ebp]
  0000d	99		 cdq
  0000e	56		 push	 esi
  0000f	2b c2		 sub	 eax, edx
  00011	8b f0		 mov	 esi, eax
  00013	57		 push	 edi
  00014	8b 7d 08	 mov	 edi, DWORD PTR __First$[ebp]
  00017	d1 fe		 sar	 esi, 1
  00019	eb 26		 jmp	 SHORT $LN16@Push_heap
$LL3@Push_heap:
  0001b	8b c6		 mov	 eax, esi
  0001d	6b c0 38	 imul	 eax, 56			; 00000038H
  00020	03 c7		 add	 eax, edi
  00022	8b 50 24	 mov	 edx, DWORD PTR [eax+36]
  00025	3b 53 24	 cmp	 edx, DWORD PTR [ebx+36]
  00028	7d 1c		 jge	 SHORT $LN6@Push_heap

; 2459 : 		{	// move _Hole up to parent
; 2460 : 		*(_First + _Hole) = _Move(*(_First + _Idx));

  0002a	6b c9 38	 imul	 ecx, 56			; 00000038H
  0002d	50		 push	 eax
  0002e	03 cf		 add	 ecx, edi
  00030	e8 00 00 00 00	 call	 ??4InvenBlockItem@ioUserBlockStorage@@QAEAAU01@ABU01@@Z
  00035	8d 46 ff	 lea	 eax, DWORD PTR [esi-1]
  00038	99		 cdq
  00039	2b c2		 sub	 eax, edx
  0003b	d1 f8		 sar	 eax, 1

; 2461 : 		_Hole = _Idx;

  0003d	8b ce		 mov	 ecx, esi
  0003f	8b f0		 mov	 esi, eax
$LN16@Push_heap:

; 2457 : 		_Top < _Hole && _DEBUG_LT_PRED(_Pred, *(_First + _Idx), _Val);
; 2458 : 		_Idx = (_Hole - 1) / 2)

  00041	39 4d 10	 cmp	 DWORD PTR __Top$[ebp], ecx
  00044	7c d5		 jl	 SHORT $LL3@Push_heap
$LN6@Push_heap:

; 2462 : 		}
; 2463 : 
; 2464 : 	*(_First + _Hole) = _Move(_Val);	// drop _Val into final hole

  00046	6b c9 38	 imul	 ecx, 56			; 00000038H
  00049	53		 push	 ebx
  0004a	03 cf		 add	 ecx, edi
  0004c	e8 00 00 00 00	 call	 ??4InvenBlockItem@ioUserBlockStorage@@QAEAAU01@ABU01@@Z
  00051	5f		 pop	 edi
  00052	5e		 pop	 esi
  00053	5b		 pop	 ebx

; 2465 : 	}

  00054	5d		 pop	 ebp
  00055	c3		 ret	 0
??$_Push_heap@PAUInvenBlockItem@ioUserBlockStorage@@HU12@VInvenBlockItemSort@2@@std@@YAXPAUInvenBlockItem@ioUserBlockStorage@@HH$$QAU12@VInvenBlockItemSort@2@@Z ENDP ; std::_Push_heap<ioUserBlockStorage::InvenBlockItem *,int,ioUserBlockStorage::InvenBlockItem,ioUserBlockStorage::InvenBlockItemSort>
_TEXT	ENDS
PUBLIC	??$_Move_backward@PAUInvenBlockItem@ioUserBlockStorage@@PAU12@@std@@YAPAUInvenBlockItem@ioUserBlockStorage@@PAU12@00U_Nonscalar_ptr_iterator_tag@0@@Z ; std::_Move_backward<ioUserBlockStorage::InvenBlockItem *,ioUserBlockStorage::InvenBlockItem *>
; Function compile flags: /Ogsp
; File c:\program files (x86)\microsoft visual studio 10.0\vc\include\xutility
;	COMDAT ??$_Move_backward@PAUInvenBlockItem@ioUserBlockStorage@@PAU12@@std@@YAPAUInvenBlockItem@ioUserBlockStorage@@PAU12@00U_Nonscalar_ptr_iterator_tag@0@@Z
_TEXT	SEGMENT
__First$ = 8						; size = 4
__Last$ = 12						; size = 4
__Dest$ = 16						; size = 4
___formal$ = 20						; size = 1
??$_Move_backward@PAUInvenBlockItem@ioUserBlockStorage@@PAU12@@std@@YAPAUInvenBlockItem@ioUserBlockStorage@@PAU12@00U_Nonscalar_ptr_iterator_tag@0@@Z PROC ; std::_Move_backward<ioUserBlockStorage::InvenBlockItem *,ioUserBlockStorage::InvenBlockItem *>, COMDAT

; 2617 : 	{	// move [_First, _Last) backwards to [..., _Dest), arbitrary iterators

  00000	55		 push	 ebp
  00001	8b ec		 mov	 ebp, esp
  00003	56		 push	 esi

; 2618 : 	while (_First != _Last)

  00004	8b 75 0c	 mov	 esi, DWORD PTR __Last$[ebp]
  00007	39 75 08	 cmp	 DWORD PTR __First$[ebp], esi
  0000a	74 15		 je	 SHORT $LN9@Move_backw
$LL2@Move_backw:

; 2619 : 		*--_Dest = _STD move(*--_Last);

  0000c	83 6d 10 38	 sub	 DWORD PTR __Dest$[ebp], 56 ; 00000038H
  00010	8b 4d 10	 mov	 ecx, DWORD PTR __Dest$[ebp]
  00013	83 ee 38	 sub	 esi, 56			; 00000038H
  00016	56		 push	 esi
  00017	e8 00 00 00 00	 call	 ??4InvenBlockItem@ioUserBlockStorage@@QAEAAU01@ABU01@@Z
  0001c	3b 75 08	 cmp	 esi, DWORD PTR __First$[ebp]
  0001f	75 eb		 jne	 SHORT $LL2@Move_backw
$LN9@Move_backw:

; 2620 : 	return (_Dest);

  00021	8b 45 10	 mov	 eax, DWORD PTR __Dest$[ebp]
  00024	5e		 pop	 esi

; 2621 : 	}

  00025	5d		 pop	 ebp
  00026	c3		 ret	 0
??$_Move_backward@PAUInvenBlockItem@ioUserBlockStorage@@PAU12@@std@@YAPAUInvenBlockItem@ioUserBlockStorage@@PAU12@00U_Nonscalar_ptr_iterator_tag@0@@Z ENDP ; std::_Move_backward<ioUserBlockStorage::InvenBlockItem *,ioUserBlockStorage::InvenBlockItem *>
_TEXT	ENDS
PUBLIC	?GetInventoryManual@ioEtcItem@@QBEHXZ		; ioEtcItem::GetInventoryManual
; Function compile flags: /Ogsp
; File d:\lost saga for developer\youtube\tutorial\source\src\lsclient\ioetcitem.h
;	COMDAT ?GetInventoryManual@ioEtcItem@@QBEHXZ
_TEXT	SEGMENT
?GetInventoryManual@ioEtcItem@@QBEHXZ PROC		; ioEtcItem::GetInventoryManual, COMDAT
; _this$ = ecx

; 434  : 	inline int     GetInventoryManual() const { return m_iInventoryManual; }

  00000	8b 41 48	 mov	 eax, DWORD PTR [ecx+72]
  00003	c3		 ret	 0
?GetInventoryManual@ioEtcItem@@QBEHXZ ENDP		; ioEtcItem::GetInventoryManual
_TEXT	ENDS
EXTRN	__imp_??0exception@std@@QAE@ABV01@@Z:PROC
; Function compile flags: /Ogsp
;	COMDAT ??0bad_alloc@std@@QAE@ABV01@@Z
_TEXT	SEGMENT
___that$ = 8						; size = 4
??0bad_alloc@std@@QAE@ABV01@@Z PROC			; std::bad_alloc::bad_alloc, COMDAT
; _this$ = ecx
  00000	55		 push	 ebp
  00001	8b ec		 mov	 ebp, esp
  00003	56		 push	 esi
  00004	ff 75 08	 push	 DWORD PTR ___that$[ebp]
  00007	8b f1		 mov	 esi, ecx
  00009	ff 15 00 00 00
	00		 call	 DWORD PTR __imp_??0exception@std@@QAE@ABV01@@Z
  0000f	c7 06 00 00 00
	00		 mov	 DWORD PTR [esi], OFFSET ??_7bad_alloc@std@@6B@
  00015	8b c6		 mov	 eax, esi
  00017	5e		 pop	 esi
  00018	5d		 pop	 ebp
  00019	c2 04 00	 ret	 4
??0bad_alloc@std@@QAE@ABV01@@Z ENDP			; std::bad_alloc::bad_alloc
_TEXT	ENDS
PUBLIC	?GetInvenBlockItem@ioUserBlockStorage@@QAEPAUInvenBlockItem@1@H_N@Z ; ioUserBlockStorage::GetInvenBlockItem
; Function compile flags: /Ogsp
; File d:\lost saga for developer\youtube\tutorial\source\src\lsclient\housing\iouserblockstorage.cpp
;	COMDAT ?GetInvenBlockItem@ioUserBlockStorage@@QAEPAUInvenBlockItem@1@H_N@Z
_TEXT	SEGMENT
_nIndex$ = 8						; size = 4
_bZeroNtoNull$ = 12					; size = 1
?GetInvenBlockItem@ioUserBlockStorage@@QAEPAUInvenBlockItem@1@H_N@Z PROC ; ioUserBlockStorage::GetInvenBlockItem, COMDAT
; _this$ = ecx

; 68   : {

  00000	55		 push	 ebp
  00001	8b ec		 mov	 ebp, esp
  00003	56		 push	 esi

; 69   : 	if( COMPARE( nIndex, 0, (int)m_InvenBlockItemList.size() ) )

  00004	8b 75 08	 mov	 esi, DWORD PTR _nIndex$[ebp]
  00007	85 f6		 test	 esi, esi
  00009	78 26		 js	 SHORT $LN2@GetInvenBl
  0000b	8b 41 18	 mov	 eax, DWORD PTR [ecx+24]
  0000e	2b 41 14	 sub	 eax, DWORD PTR [ecx+20]
  00011	57		 push	 edi
  00012	6a 38		 push	 56			; 00000038H
  00014	99		 cdq
  00015	5f		 pop	 edi
  00016	f7 ff		 idiv	 edi
  00018	5f		 pop	 edi
  00019	3b f0		 cmp	 esi, eax
  0001b	7d 14		 jge	 SHORT $LN2@GetInvenBl

; 70   : 	{
; 71   : 		InvenBlockItem& Item = m_InvenBlockItemList[nIndex];
; 72   : 		if( 0 < Item.m_nCount || bZeroNtoNull )

  0001d	8b 41 14	 mov	 eax, DWORD PTR [ecx+20]
  00020	6b f6 38	 imul	 esi, 56			; 00000038H
  00023	03 c6		 add	 eax, esi
  00025	83 78 30 00	 cmp	 DWORD PTR [eax+48], 0
  00029	7f 08		 jg	 SHORT $LN4@GetInvenBl
  0002b	80 7d 0c 00	 cmp	 BYTE PTR _bZeroNtoNull$[ebp], 0

; 73   : 			return &m_InvenBlockItemList[nIndex];

  0002f	75 02		 jne	 SHORT $LN4@GetInvenBl
$LN2@GetInvenBl:

; 74   : 	}
; 75   : 
; 76   : 	return NULL;

  00031	33 c0		 xor	 eax, eax
$LN4@GetInvenBl:
  00033	5e		 pop	 esi

; 77   : }

  00034	5d		 pop	 ebp
  00035	c2 08 00	 ret	 8
?GetInvenBlockItem@ioUserBlockStorage@@QAEPAUInvenBlockItem@1@H_N@Z ENDP ; ioUserBlockStorage::GetInvenBlockItem
_TEXT	ENDS
PUBLIC	?GetCurrInvenBlockItem@ioUserBlockStorage@@QAEPAUInvenBlockItem@1@XZ ; ioUserBlockStorage::GetCurrInvenBlockItem
; Function compile flags: /Ogsp
;	COMDAT ?GetCurrInvenBlockItem@ioUserBlockStorage@@QAEPAUInvenBlockItem@1@XZ
_TEXT	SEGMENT
?GetCurrInvenBlockItem@ioUserBlockStorage@@QAEPAUInvenBlockItem@1@XZ PROC ; ioUserBlockStorage::GetCurrInvenBlockItem, COMDAT
; _this$ = ecx

; 102  : 	return GetInvenBlockItem( GetCurrInvenIndex() );

  00000	6a 00		 push	 0
  00002	ff 71 24	 push	 DWORD PTR [ecx+36]
  00005	e8 00 00 00 00	 call	 ?GetInvenBlockItem@ioUserBlockStorage@@QAEPAUInvenBlockItem@1@H_N@Z ; ioUserBlockStorage::GetInvenBlockItem

; 103  : }

  0000a	c3		 ret	 0
?GetCurrInvenBlockItem@ioUserBlockStorage@@QAEPAUInvenBlockItem@1@XZ ENDP ; ioUserBlockStorage::GetCurrInvenBlockItem
_TEXT	ENDS
PUBLIC	?PrevItem@ioUserBlockStorage@@QAEXXZ		; ioUserBlockStorage::PrevItem
; Function compile flags: /Ogsp
;	COMDAT ?PrevItem@ioUserBlockStorage@@QAEXXZ
_TEXT	SEGMENT
?PrevItem@ioUserBlockStorage@@QAEXXZ PROC		; ioUserBlockStorage::PrevItem, COMDAT
; _this$ = ecx

; 135  : 	int iMin = max( 0, m_CurrInvenItemIndex - 1 );

  00000	8b 41 24	 mov	 eax, DWORD PTR [ecx+36]
  00003	48		 dec	 eax
  00004	79 02		 jns	 SHORT $LN8@PrevItem
  00006	33 c0		 xor	 eax, eax
$LN8@PrevItem:
  00008	56		 push	 esi

; 136  : 	for( int i = iMin; i >= 0; --i )

  00009	8b f0		 mov	 esi, eax
  0000b	85 c0		 test	 eax, eax
  0000d	78 32		 js	 SHORT $LN3@PrevItem
  0000f	6b c0 38	 imul	 eax, 56			; 00000038H
  00012	57		 push	 edi
  00013	8b f8		 mov	 edi, eax
  00015	53		 push	 ebx
$LL5@PrevItem:

; 137  : 	{		
; 138  : 		if( COMPARE( i, 0, (int)m_InvenBlockItemList.size() ) )

  00016	85 f6		 test	 esi, esi
  00018	78 1a		 js	 SHORT $LN4@PrevItem
  0001a	8b 41 18	 mov	 eax, DWORD PTR [ecx+24]
  0001d	2b 41 14	 sub	 eax, DWORD PTR [ecx+20]
  00020	6a 38		 push	 56			; 00000038H
  00022	99		 cdq
  00023	5b		 pop	 ebx
  00024	f7 fb		 idiv	 ebx
  00026	3b f0		 cmp	 esi, eax
  00028	7d 0a		 jge	 SHORT $LN4@PrevItem

; 139  : 		{
; 140  : 			InvenBlockItem& Item = m_InvenBlockItemList[i];
; 141  : 			if( Item.m_nCount > 0 )

  0002a	8b 41 14	 mov	 eax, DWORD PTR [ecx+20]
  0002d	83 7c 38 30 00	 cmp	 DWORD PTR [eax+edi+48], 0
  00032	7f 08		 jg	 SHORT $LN15@PrevItem
$LN4@PrevItem:

; 136  : 	for( int i = iMin; i >= 0; --i )

  00034	83 ef 38	 sub	 edi, 56			; 00000038H
  00037	4e		 dec	 esi
  00038	79 dc		 jns	 SHORT $LL5@PrevItem

; 139  : 		{
; 140  : 			InvenBlockItem& Item = m_InvenBlockItemList[i];
; 141  : 			if( Item.m_nCount > 0 )

  0003a	eb 03		 jmp	 SHORT $LN20@PrevItem
$LN15@PrevItem:

; 142  : 			{
; 143  : 				m_CurrInvenItemIndex = i;

  0003c	89 71 24	 mov	 DWORD PTR [ecx+36], esi
$LN20@PrevItem:
  0003f	5b		 pop	 ebx
  00040	5f		 pop	 edi
$LN3@PrevItem:
  00041	5e		 pop	 esi

; 144  : 				return;
; 145  : 			}
; 146  : 		}
; 147  : 	}
; 148  : }

  00042	c3		 ret	 0
?PrevItem@ioUserBlockStorage@@QAEXXZ ENDP		; ioUserBlockStorage::PrevItem
_TEXT	ENDS
PUBLIC	?NextItem@ioUserBlockStorage@@QAEXXZ		; ioUserBlockStorage::NextItem
; Function compile flags: /Ogsp
;	COMDAT ?NextItem@ioUserBlockStorage@@QAEXXZ
_TEXT	SEGMENT
?NextItem@ioUserBlockStorage@@QAEXXZ PROC		; ioUserBlockStorage::NextItem, COMDAT
; _this$ = ecx

; 152  : 	for( int i = m_CurrInvenItemIndex + 1; i < (int)m_InvenBlockItemList.size(); ++i )

  00000	8b 41 18	 mov	 eax, DWORD PTR [ecx+24]
  00003	2b 41 14	 sub	 eax, DWORD PTR [ecx+20]
  00006	56		 push	 esi
  00007	57		 push	 edi
  00008	6a 38		 push	 56			; 00000038H
  0000a	99		 cdq
  0000b	5f		 pop	 edi
  0000c	f7 ff		 idiv	 edi
  0000e	8b 71 24	 mov	 esi, DWORD PTR [ecx+36]
  00011	46		 inc	 esi
  00012	3b f0		 cmp	 esi, eax
  00014	7d 24		 jge	 SHORT $LN3@NextItem
  00016	8b d6		 mov	 edx, esi
  00018	6b d2 38	 imul	 edx, 56			; 00000038H
$LL5@NextItem:

; 153  : 	{
; 154  : 		if( COMPARE( i, 0, (int)m_InvenBlockItemList.size() ) )

  0001b	85 f6		 test	 esi, esi
  0001d	78 0e		 js	 SHORT $LN4@NextItem
  0001f	3b f0		 cmp	 esi, eax
  00021	7d 0a		 jge	 SHORT $LN4@NextItem

; 155  : 		{
; 156  : 			InvenBlockItem& Item = m_InvenBlockItemList[i];
; 157  : 			if( Item.m_nCount > 0 )

  00023	8b 79 14	 mov	 edi, DWORD PTR [ecx+20]
  00026	83 7c 3a 30 00	 cmp	 DWORD PTR [edx+edi+48], 0
  0002b	7f 0a		 jg	 SHORT $LN15@NextItem
$LN4@NextItem:

; 152  : 	for( int i = m_CurrInvenItemIndex + 1; i < (int)m_InvenBlockItemList.size(); ++i )

  0002d	46		 inc	 esi
  0002e	83 c2 38	 add	 edx, 56			; 00000038H
  00031	3b f0		 cmp	 esi, eax
  00033	7c e6		 jl	 SHORT $LL5@NextItem

; 155  : 		{
; 156  : 			InvenBlockItem& Item = m_InvenBlockItemList[i];
; 157  : 			if( Item.m_nCount > 0 )

  00035	eb 03		 jmp	 SHORT $LN3@NextItem
$LN15@NextItem:

; 158  : 			{
; 159  : 				m_CurrInvenItemIndex = i;

  00037	89 71 24	 mov	 DWORD PTR [ecx+36], esi
$LN3@NextItem:
  0003a	5f		 pop	 edi
  0003b	5e		 pop	 esi

; 160  : 				return;
; 161  : 			}
; 162  : 		}
; 163  : 	}
; 164  : }

  0003c	c3		 ret	 0
?NextItem@ioUserBlockStorage@@QAEXXZ ENDP		; ioUserBlockStorage::NextItem
_TEXT	ENDS
PUBLIC	?SelectItem@ioUserBlockStorage@@QAEXH@Z		; ioUserBlockStorage::SelectItem
; Function compile flags: /Ogsp
;	COMDAT ?SelectItem@ioUserBlockStorage@@QAEXH@Z
_TEXT	SEGMENT
_nCode$ = 8						; size = 4
?SelectItem@ioUserBlockStorage@@QAEXH@Z PROC		; ioUserBlockStorage::SelectItem, COMDAT
; _this$ = ecx

; 167  : {

  00000	55		 push	 ebp
  00001	8b ec		 mov	 ebp, esp

; 168  : 	for( int i = 0 ; i < (int)m_InvenBlockItemList.size(); ++i ) 

  00003	8b 41 18	 mov	 eax, DWORD PTR [ecx+24]
  00006	2b 41 14	 sub	 eax, DWORD PTR [ecx+20]
  00009	56		 push	 esi
  0000a	57		 push	 edi
  0000b	6a 38		 push	 56			; 00000038H
  0000d	99		 cdq
  0000e	5f		 pop	 edi
  0000f	f7 ff		 idiv	 edi
  00011	33 f6		 xor	 esi, esi
  00013	85 c0		 test	 eax, eax
  00015	7e 1a		 jle	 SHORT $LN2@SelectItem
  00017	8b 51 14	 mov	 edx, DWORD PTR [ecx+20]
  0001a	83 c2 20	 add	 edx, 32			; 00000020H
$LL4@SelectItem:

; 169  : 	{
; 170  : 		InvenBlockItem& Item = m_InvenBlockItemList[i];
; 171  : 		if( Item.m_nBlockCode == nCode )

  0001d	8b 3a		 mov	 edi, DWORD PTR [edx]
  0001f	3b 7d 08	 cmp	 edi, DWORD PTR _nCode$[ebp]
  00022	74 0a		 je	 SHORT $LN12@SelectItem

; 168  : 	for( int i = 0 ; i < (int)m_InvenBlockItemList.size(); ++i ) 

  00024	46		 inc	 esi
  00025	83 c2 38	 add	 edx, 56			; 00000038H
  00028	3b f0		 cmp	 esi, eax
  0002a	7c f1		 jl	 SHORT $LL4@SelectItem

; 169  : 	{
; 170  : 		InvenBlockItem& Item = m_InvenBlockItemList[i];
; 171  : 		if( Item.m_nBlockCode == nCode )

  0002c	eb 03		 jmp	 SHORT $LN2@SelectItem
$LN12@SelectItem:

; 172  : 		{
; 173  : 			m_CurrInvenItemIndex = i;

  0002e	89 71 24	 mov	 DWORD PTR [ecx+36], esi
$LN2@SelectItem:
  00031	5f		 pop	 edi
  00032	5e		 pop	 esi

; 174  : 			return;
; 175  : 		}
; 176  : 	}
; 177  : }

  00033	5d		 pop	 ebp
  00034	c2 04 00	 ret	 4
?SelectItem@ioUserBlockStorage@@QAEXH@Z ENDP		; ioUserBlockStorage::SelectItem
_TEXT	ENDS
PUBLIC	?GetInvenItemCount@ioUserBlockStorage@@QAEHXZ	; ioUserBlockStorage::GetInvenItemCount
; Function compile flags: /Ogsp
;	COMDAT ?GetInvenItemCount@ioUserBlockStorage@@QAEHXZ
_TEXT	SEGMENT
?GetInvenItemCount@ioUserBlockStorage@@QAEHXZ PROC	; ioUserBlockStorage::GetInvenItemCount, COMDAT
; _this$ = ecx

; 186  : 	return (int)m_InvenBlockItemList.size();

  00000	8b 41 18	 mov	 eax, DWORD PTR [ecx+24]
  00003	2b 41 14	 sub	 eax, DWORD PTR [ecx+20]
  00006	6a 38		 push	 56			; 00000038H
  00008	99		 cdq
  00009	59		 pop	 ecx
  0000a	f7 f9		 idiv	 ecx

; 187  : }

  0000c	c3		 ret	 0
?GetInvenItemCount@ioUserBlockStorage@@QAEHXZ ENDP	; ioUserBlockStorage::GetInvenItemCount
_TEXT	ENDS
PUBLIC	??D?$_Vector_iterator@V?$_Vector_val@UInvenBlockItem@ioUserBlockStorage@@V?$allocator@UInvenBlockItem@ioUserBlockStorage@@@std@@@std@@@std@@QBEAAUInvenBlockItem@ioUserBlockStorage@@XZ ; std::_Vector_iterator<std::_Vector_val<ioUserBlockStorage::InvenBlockItem,std::allocator<ioUserBlockStorage::InvenBlockItem> > >::operator*
; Function compile flags: /Ogsp
; File c:\program files (x86)\microsoft visual studio 10.0\vc\include\vector
;	COMDAT ??D?$_Vector_iterator@V?$_Vector_val@UInvenBlockItem@ioUserBlockStorage@@V?$allocator@UInvenBlockItem@ioUserBlockStorage@@@std@@@std@@@std@@QBEAAUInvenBlockItem@ioUserBlockStorage@@XZ
_TEXT	SEGMENT
??D?$_Vector_iterator@V?$_Vector_val@UInvenBlockItem@ioUserBlockStorage@@V?$allocator@UInvenBlockItem@ioUserBlockStorage@@@std@@@std@@@std@@QBEAAUInvenBlockItem@ioUserBlockStorage@@XZ PROC ; std::_Vector_iterator<std::_Vector_val<ioUserBlockStorage::InvenBlockItem,std::allocator<ioUserBlockStorage::InvenBlockItem> > >::operator*, COMDAT
; _this$ = ecx

; 322  : 		return ((reference)**(_Mybase *)this);

  00000	8b 01		 mov	 eax, DWORD PTR [ecx]

; 323  : 		}

  00002	c3		 ret	 0
??D?$_Vector_iterator@V?$_Vector_val@UInvenBlockItem@ioUserBlockStorage@@V?$allocator@UInvenBlockItem@ioUserBlockStorage@@@std@@@std@@@std@@QBEAAUInvenBlockItem@ioUserBlockStorage@@XZ ENDP ; std::_Vector_iterator<std::_Vector_val<ioUserBlockStorage::InvenBlockItem,std::allocator<ioUserBlockStorage::InvenBlockItem> > >::operator*
_TEXT	ENDS
PUBLIC	??E?$_Vector_iterator@V?$_Vector_val@UInvenBlockItem@ioUserBlockStorage@@V?$allocator@UInvenBlockItem@ioUserBlockStorage@@@std@@@std@@@std@@QAEAAV01@XZ ; std::_Vector_iterator<std::_Vector_val<ioUserBlockStorage::InvenBlockItem,std::allocator<ioUserBlockStorage::InvenBlockItem> > >::operator++
; Function compile flags: /Ogsp
;	COMDAT ??E?$_Vector_iterator@V?$_Vector_val@UInvenBlockItem@ioUserBlockStorage@@V?$allocator@UInvenBlockItem@ioUserBlockStorage@@@std@@@std@@@std@@QAEAAV01@XZ
_TEXT	SEGMENT
??E?$_Vector_iterator@V?$_Vector_val@UInvenBlockItem@ioUserBlockStorage@@V?$allocator@UInvenBlockItem@ioUserBlockStorage@@@std@@@std@@@std@@QAEAAV01@XZ PROC ; std::_Vector_iterator<std::_Vector_val<ioUserBlockStorage::InvenBlockItem,std::allocator<ioUserBlockStorage::InvenBlockItem> > >::operator++, COMDAT
; _this$ = ecx

; 331  : 		{	// preincrement

  00000	8b c1		 mov	 eax, ecx

; 332  : 		++*(_Mybase *)this;

  00002	83 00 38	 add	 DWORD PTR [eax], 56	; 00000038H

; 333  : 		return (*this);
; 334  : 		}

  00005	c3		 ret	 0
??E?$_Vector_iterator@V?$_Vector_val@UInvenBlockItem@ioUserBlockStorage@@V?$allocator@UInvenBlockItem@ioUserBlockStorage@@@std@@@std@@@std@@QAEAAV01@XZ ENDP ; std::_Vector_iterator<std::_Vector_val<ioUserBlockStorage::InvenBlockItem,std::allocator<ioUserBlockStorage::InvenBlockItem> > >::operator++
_TEXT	ENDS
PUBLIC	??0?$_Vector_val@VioBlockDBItem@@V?$allocator@VioBlockDBItem@@@std@@@std@@QAE@V?$allocator@VioBlockDBItem@@@1@@Z ; std::_Vector_val<ioBlockDBItem,std::allocator<ioBlockDBItem> >::_Vector_val<ioBlockDBItem,std::allocator<ioBlockDBItem> >
; Function compile flags: /Ogsp
;	COMDAT ??0?$_Vector_val@VioBlockDBItem@@V?$allocator@VioBlockDBItem@@@std@@@std@@QAE@V?$allocator@VioBlockDBItem@@@1@@Z
_TEXT	SEGMENT
__Al$ = 8						; size = 1
??0?$_Vector_val@VioBlockDBItem@@V?$allocator@VioBlockDBItem@@@std@@@std@@QAE@V?$allocator@VioBlockDBItem@@@1@@Z PROC ; std::_Vector_val<ioBlockDBItem,std::allocator<ioBlockDBItem> >::_Vector_val<ioBlockDBItem,std::allocator<ioBlockDBItem> >, COMDAT
; _this$ = ecx

; 426  : 		{	// construct allocator from _Al

  00000	8b c1		 mov	 eax, ecx

; 427  : 		_Myfirst = 0;

  00002	33 c9		 xor	 ecx, ecx
  00004	89 08		 mov	 DWORD PTR [eax], ecx

; 428  : 		_Mylast = 0;

  00006	89 48 04	 mov	 DWORD PTR [eax+4], ecx

; 429  : 		_Myend = 0;

  00009	89 48 08	 mov	 DWORD PTR [eax+8], ecx

; 430  : 		}

  0000c	c2 04 00	 ret	 4
??0?$_Vector_val@VioBlockDBItem@@V?$allocator@VioBlockDBItem@@@std@@@std@@QAE@V?$allocator@VioBlockDBItem@@@1@@Z ENDP ; std::_Vector_val<ioBlockDBItem,std::allocator<ioBlockDBItem> >::_Vector_val<ioBlockDBItem,std::allocator<ioBlockDBItem> >
_TEXT	ENDS
PUBLIC	??0?$_Vector_val@UInvenBlockItem@ioUserBlockStorage@@V?$allocator@UInvenBlockItem@ioUserBlockStorage@@@std@@@std@@QAE@V?$allocator@UInvenBlockItem@ioUserBlockStorage@@@1@@Z ; std::_Vector_val<ioUserBlockStorage::InvenBlockItem,std::allocator<ioUserBlockStorage::InvenBlockItem> >::_Vector_val<ioUserBlockStorage::InvenBlockItem,std::allocator<ioUserBlockStorage::InvenBlockItem> >
; Function compile flags: /Ogsp
;	COMDAT ??0?$_Vector_val@UInvenBlockItem@ioUserBlockStorage@@V?$allocator@UInvenBlockItem@ioUserBlockStorage@@@std@@@std@@QAE@V?$allocator@UInvenBlockItem@ioUserBlockStorage@@@1@@Z
_TEXT	SEGMENT
__Al$ = 8						; size = 1
??0?$_Vector_val@UInvenBlockItem@ioUserBlockStorage@@V?$allocator@UInvenBlockItem@ioUserBlockStorage@@@std@@@std@@QAE@V?$allocator@UInvenBlockItem@ioUserBlockStorage@@@1@@Z PROC ; std::_Vector_val<ioUserBlockStorage::InvenBlockItem,std::allocator<ioUserBlockStorage::InvenBlockItem> >::_Vector_val<ioUserBlockStorage::InvenBlockItem,std::allocator<ioUserBlockStorage::InvenBlockItem> >, COMDAT
; _this$ = ecx

; 426  : 		{	// construct allocator from _Al

  00000	8b c1		 mov	 eax, ecx

; 427  : 		_Myfirst = 0;

  00002	33 c9		 xor	 ecx, ecx
  00004	89 08		 mov	 DWORD PTR [eax], ecx

; 428  : 		_Mylast = 0;

  00006	89 48 04	 mov	 DWORD PTR [eax+4], ecx

; 429  : 		_Myend = 0;

  00009	89 48 08	 mov	 DWORD PTR [eax+8], ecx

; 430  : 		}

  0000c	c2 04 00	 ret	 4
??0?$_Vector_val@UInvenBlockItem@ioUserBlockStorage@@V?$allocator@UInvenBlockItem@ioUserBlockStorage@@@std@@@std@@QAE@V?$allocator@UInvenBlockItem@ioUserBlockStorage@@@1@@Z ENDP ; std::_Vector_val<ioUserBlockStorage::InvenBlockItem,std::allocator<ioUserBlockStorage::InvenBlockItem> >::_Vector_val<ioUserBlockStorage::InvenBlockItem,std::allocator<ioUserBlockStorage::InvenBlockItem> >
_TEXT	ENDS
PUBLIC	??0?$_Vector_iterator@V?$_Vector_val@UInvenBlockItem@ioUserBlockStorage@@V?$allocator@UInvenBlockItem@ioUserBlockStorage@@@std@@@std@@@std@@QAE@PAUInvenBlockItem@ioUserBlockStorage@@PBU_Container_base0@1@@Z ; std::_Vector_iterator<std::_Vector_val<ioUserBlockStorage::InvenBlockItem,std::allocator<ioUserBlockStorage::InvenBlockItem> > >::_Vector_iterator<std::_Vector_val<ioUserBlockStorage::InvenBlockItem,std::allocator<ioUserBlockStorage::InvenBlockItem> > >
; Function compile flags: /Ogsp
;	COMDAT ??0?$_Vector_iterator@V?$_Vector_val@UInvenBlockItem@ioUserBlockStorage@@V?$allocator@UInvenBlockItem@ioUserBlockStorage@@@std@@@std@@@std@@QAE@PAUInvenBlockItem@ioUserBlockStorage@@PBU_Container_base0@1@@Z
_TEXT	SEGMENT
__Parg$ = 8						; size = 4
__Pvector$ = 12						; size = 4
??0?$_Vector_iterator@V?$_Vector_val@UInvenBlockItem@ioUserBlockStorage@@V?$allocator@UInvenBlockItem@ioUserBlockStorage@@@std@@@std@@@std@@QAE@PAUInvenBlockItem@ioUserBlockStorage@@PBU_Container_base0@1@@Z PROC ; std::_Vector_iterator<std::_Vector_val<ioUserBlockStorage::InvenBlockItem,std::allocator<ioUserBlockStorage::InvenBlockItem> > >::_Vector_iterator<std::_Vector_val<ioUserBlockStorage::InvenBlockItem,std::allocator<ioUserBlockStorage::InvenBlockItem> > >, COMDAT
; _this$ = ecx

; 304  : 		{	// construct with pointer _Parg

  00000	55		 push	 ebp
  00001	8b ec		 mov	 ebp, esp
  00003	8b c1		 mov	 eax, ecx
  00005	8b 4d 08	 mov	 ecx, DWORD PTR __Parg$[ebp]
  00008	89 08		 mov	 DWORD PTR [eax], ecx

; 305  : 		}

  0000a	5d		 pop	 ebp
  0000b	c2 08 00	 ret	 8
??0?$_Vector_iterator@V?$_Vector_val@UInvenBlockItem@ioUserBlockStorage@@V?$allocator@UInvenBlockItem@ioUserBlockStorage@@@std@@@std@@@std@@QAE@PAUInvenBlockItem@ioUserBlockStorage@@PBU_Container_base0@1@@Z ENDP ; std::_Vector_iterator<std::_Vector_val<ioUserBlockStorage::InvenBlockItem,std::allocator<ioUserBlockStorage::InvenBlockItem> > >::_Vector_iterator<std::_Vector_val<ioUserBlockStorage::InvenBlockItem,std::allocator<ioUserBlockStorage::InvenBlockItem> > >
_TEXT	ENDS
PUBLIC	??8?$_Vector_const_iterator@V?$_Vector_val@UInvenBlockItem@ioUserBlockStorage@@V?$allocator@UInvenBlockItem@ioUserBlockStorage@@@std@@@std@@@std@@QBE_NABV01@@Z ; std::_Vector_const_iterator<std::_Vector_val<ioUserBlockStorage::InvenBlockItem,std::allocator<ioUserBlockStorage::InvenBlockItem> > >::operator==
; Function compile flags: /Ogsp
;	COMDAT ??8?$_Vector_const_iterator@V?$_Vector_val@UInvenBlockItem@ioUserBlockStorage@@V?$allocator@UInvenBlockItem@ioUserBlockStorage@@@std@@@std@@@std@@QBE_NABV01@@Z
_TEXT	SEGMENT
__Right$ = 8						; size = 4
??8?$_Vector_const_iterator@V?$_Vector_val@UInvenBlockItem@ioUserBlockStorage@@V?$allocator@UInvenBlockItem@ioUserBlockStorage@@@std@@@std@@@std@@QBE_NABV01@@Z PROC ; std::_Vector_const_iterator<std::_Vector_val<ioUserBlockStorage::InvenBlockItem,std::allocator<ioUserBlockStorage::InvenBlockItem> > >::operator==, COMDAT
; _this$ = ecx

; 201  : 		{	// test for iterator equality

  00000	55		 push	 ebp
  00001	8b ec		 mov	 ebp, esp

; 202  : 		_Compat(_Right);
; 203  : 		return (this->_Ptr == _Right._Ptr);

  00003	8b 01		 mov	 eax, DWORD PTR [ecx]
  00005	8b 4d 08	 mov	 ecx, DWORD PTR __Right$[ebp]
  00008	2b 01		 sub	 eax, DWORD PTR [ecx]
  0000a	f7 d8		 neg	 eax
  0000c	1b c0		 sbb	 eax, eax
  0000e	40		 inc	 eax

; 204  : 		}

  0000f	5d		 pop	 ebp
  00010	c2 04 00	 ret	 4
??8?$_Vector_const_iterator@V?$_Vector_val@UInvenBlockItem@ioUserBlockStorage@@V?$allocator@UInvenBlockItem@ioUserBlockStorage@@@std@@@std@@@std@@QBE_NABV01@@Z ENDP ; std::_Vector_const_iterator<std::_Vector_val<ioUserBlockStorage::InvenBlockItem,std::allocator<ioUserBlockStorage::InvenBlockItem> > >::operator==
_TEXT	ENDS
PUBLIC	?max_size@?$vector@VioBlockDBItem@@V?$allocator@VioBlockDBItem@@@std@@@std@@QBEIXZ ; std::vector<ioBlockDBItem,std::allocator<ioBlockDBItem> >::max_size
; Function compile flags: /Ogsp
;	COMDAT ?max_size@?$vector@VioBlockDBItem@@V?$allocator@VioBlockDBItem@@@std@@@std@@QBEIXZ
_TEXT	SEGMENT
?max_size@?$vector@VioBlockDBItem@@V?$allocator@VioBlockDBItem@@@std@@@std@@QBEIXZ PROC ; std::vector<ioBlockDBItem,std::allocator<ioBlockDBItem> >::max_size, COMDAT
; _this$ = ecx

; 884  : 		return (this->_Alval.max_size());

  00000	b8 66 66 66 06	 mov	 eax, 107374182		; 06666666H

; 885  : 		}

  00005	c3		 ret	 0
?max_size@?$vector@VioBlockDBItem@@V?$allocator@VioBlockDBItem@@@std@@@std@@QBEIXZ ENDP ; std::vector<ioBlockDBItem,std::allocator<ioBlockDBItem> >::max_size
_TEXT	ENDS
PUBLIC	?_Grow_to@?$vector@VioBlockDBItem@@V?$allocator@VioBlockDBItem@@@std@@@std@@IBEII@Z ; std::vector<ioBlockDBItem,std::allocator<ioBlockDBItem> >::_Grow_to
; Function compile flags: /Ogsp
;	COMDAT ?_Grow_to@?$vector@VioBlockDBItem@@V?$allocator@VioBlockDBItem@@@std@@@std@@IBEII@Z
_TEXT	SEGMENT
__Count$ = 8						; size = 4
?_Grow_to@?$vector@VioBlockDBItem@@V?$allocator@VioBlockDBItem@@@std@@@std@@IBEII@Z PROC ; std::vector<ioBlockDBItem,std::allocator<ioBlockDBItem> >::_Grow_to, COMDAT
; _this$ = ecx

; 1274 : 		{	// grow by 50% or at least to _Count

  00000	55		 push	 ebp
  00001	8b ec		 mov	 ebp, esp

; 1275 : 		size_type _Capacity = capacity();

  00003	8b 41 08	 mov	 eax, DWORD PTR [ecx+8]
  00006	2b 01		 sub	 eax, DWORD PTR [ecx]
  00008	6a 28		 push	 40			; 00000028H
  0000a	99		 cdq
  0000b	59		 pop	 ecx
  0000c	f7 f9		 idiv	 ecx

; 1276 : 
; 1277 : 		_Capacity = max_size() - _Capacity / 2 < _Capacity
; 1278 : 			? 0 : _Capacity + _Capacity / 2;	// try to grow by 50%

  0000e	ba 66 66 66 06	 mov	 edx, 107374182		; 06666666H
  00013	8b c8		 mov	 ecx, eax
  00015	d1 e9		 shr	 ecx, 1
  00017	2b d1		 sub	 edx, ecx
  00019	3b d0		 cmp	 edx, eax
  0001b	73 04		 jae	 SHORT $LN4@Grow_to
  0001d	33 c0		 xor	 eax, eax
  0001f	eb 02		 jmp	 SHORT $LN5@Grow_to
$LN4@Grow_to:
  00021	03 c1		 add	 eax, ecx
$LN5@Grow_to:

; 1279 : 		if (_Capacity < _Count)

  00023	3b 45 08	 cmp	 eax, DWORD PTR __Count$[ebp]

; 1280 : 			_Capacity = _Count;

  00026	0f 42 45 08	 cmovb	 eax, DWORD PTR __Count$[ebp]

; 1281 : 		return (_Capacity);
; 1282 : 		}

  0002a	5d		 pop	 ebp
  0002b	c2 04 00	 ret	 4
?_Grow_to@?$vector@VioBlockDBItem@@V?$allocator@VioBlockDBItem@@@std@@@std@@IBEII@Z ENDP ; std::vector<ioBlockDBItem,std::allocator<ioBlockDBItem> >::_Grow_to
_TEXT	ENDS
PUBLIC	?_Make_iter@?$vector@UInvenBlockItem@ioUserBlockStorage@@V?$allocator@UInvenBlockItem@ioUserBlockStorage@@@std@@@std@@QBE?AV?$_Vector_iterator@V?$_Vector_val@UInvenBlockItem@ioUserBlockStorage@@V?$allocator@UInvenBlockItem@ioUserBlockStorage@@@std@@@std@@@2@V?$_Vector_const_iterator@V?$_Vector_val@UInvenBlockItem@ioUserBlockStorage@@V?$allocator@UInvenBlockItem@ioUserBlockStorage@@@std@@@std@@@2@@Z ; std::vector<ioUserBlockStorage::InvenBlockItem,std::allocator<ioUserBlockStorage::InvenBlockItem> >::_Make_iter
; Function compile flags: /Ogsp
;	COMDAT ?_Make_iter@?$vector@UInvenBlockItem@ioUserBlockStorage@@V?$allocator@UInvenBlockItem@ioUserBlockStorage@@@std@@@std@@QBE?AV?$_Vector_iterator@V?$_Vector_val@UInvenBlockItem@ioUserBlockStorage@@V?$allocator@UInvenBlockItem@ioUserBlockStorage@@@std@@@std@@@2@V?$_Vector_const_iterator@V?$_Vector_val@UInvenBlockItem@ioUserBlockStorage@@V?$allocator@UInvenBlockItem@ioUserBlockStorage@@@std@@@std@@@2@@Z
_TEXT	SEGMENT
___$ReturnUdt$ = 8					; size = 4
__Where$ = 12						; size = 4
?_Make_iter@?$vector@UInvenBlockItem@ioUserBlockStorage@@V?$allocator@UInvenBlockItem@ioUserBlockStorage@@@std@@@std@@QBE?AV?$_Vector_iterator@V?$_Vector_val@UInvenBlockItem@ioUserBlockStorage@@V?$allocator@UInvenBlockItem@ioUserBlockStorage@@@std@@@std@@@2@V?$_Vector_const_iterator@V?$_Vector_val@UInvenBlockItem@ioUserBlockStorage@@V?$allocator@UInvenBlockItem@ioUserBlockStorage@@@std@@@std@@@2@@Z PROC ; std::vector<ioUserBlockStorage::InvenBlockItem,std::allocator<ioUserBlockStorage::InvenBlockItem> >::_Make_iter, COMDAT
; _this$ = ecx

; 801  : 		{	// make iterator from const_iterator

  00000	55		 push	 ebp
  00001	8b ec		 mov	 ebp, esp

; 802  : 		return (iterator(_Where._Ptr, this));

  00003	8b 45 08	 mov	 eax, DWORD PTR ___$ReturnUdt$[ebp]
  00006	8b 4d 0c	 mov	 ecx, DWORD PTR __Where$[ebp]
  00009	89 08		 mov	 DWORD PTR [eax], ecx

; 803  : 		}

  0000b	5d		 pop	 ebp
  0000c	c2 08 00	 ret	 8
?_Make_iter@?$vector@UInvenBlockItem@ioUserBlockStorage@@V?$allocator@UInvenBlockItem@ioUserBlockStorage@@@std@@@std@@QBE?AV?$_Vector_iterator@V?$_Vector_val@UInvenBlockItem@ioUserBlockStorage@@V?$allocator@UInvenBlockItem@ioUserBlockStorage@@@std@@@std@@@2@V?$_Vector_const_iterator@V?$_Vector_val@UInvenBlockItem@ioUserBlockStorage@@V?$allocator@UInvenBlockItem@ioUserBlockStorage@@@std@@@std@@@2@@Z ENDP ; std::vector<ioUserBlockStorage::InvenBlockItem,std::allocator<ioUserBlockStorage::InvenBlockItem> >::_Make_iter
_TEXT	ENDS
PUBLIC	?max_size@?$vector@UInvenBlockItem@ioUserBlockStorage@@V?$allocator@UInvenBlockItem@ioUserBlockStorage@@@std@@@std@@QBEIXZ ; std::vector<ioUserBlockStorage::InvenBlockItem,std::allocator<ioUserBlockStorage::InvenBlockItem> >::max_size
; Function compile flags: /Ogsp
;	COMDAT ?max_size@?$vector@UInvenBlockItem@ioUserBlockStorage@@V?$allocator@UInvenBlockItem@ioUserBlockStorage@@@std@@@std@@QBEIXZ
_TEXT	SEGMENT
?max_size@?$vector@UInvenBlockItem@ioUserBlockStorage@@V?$allocator@UInvenBlockItem@ioUserBlockStorage@@@std@@@std@@QBEIXZ PROC ; std::vector<ioUserBlockStorage::InvenBlockItem,std::allocator<ioUserBlockStorage::InvenBlockItem> >::max_size, COMDAT
; _this$ = ecx

; 884  : 		return (this->_Alval.max_size());

  00000	b8 24 49 92 04	 mov	 eax, 76695844		; 04924924H

; 885  : 		}

  00005	c3		 ret	 0
?max_size@?$vector@UInvenBlockItem@ioUserBlockStorage@@V?$allocator@UInvenBlockItem@ioUserBlockStorage@@@std@@@std@@QBEIXZ ENDP ; std::vector<ioUserBlockStorage::InvenBlockItem,std::allocator<ioUserBlockStorage::InvenBlockItem> >::max_size
_TEXT	ENDS
PUBLIC	?_Grow_to@?$vector@UInvenBlockItem@ioUserBlockStorage@@V?$allocator@UInvenBlockItem@ioUserBlockStorage@@@std@@@std@@IBEII@Z ; std::vector<ioUserBlockStorage::InvenBlockItem,std::allocator<ioUserBlockStorage::InvenBlockItem> >::_Grow_to
; Function compile flags: /Ogsp
;	COMDAT ?_Grow_to@?$vector@UInvenBlockItem@ioUserBlockStorage@@V?$allocator@UInvenBlockItem@ioUserBlockStorage@@@std@@@std@@IBEII@Z
_TEXT	SEGMENT
__Count$ = 8						; size = 4
?_Grow_to@?$vector@UInvenBlockItem@ioUserBlockStorage@@V?$allocator@UInvenBlockItem@ioUserBlockStorage@@@std@@@std@@IBEII@Z PROC ; std::vector<ioUserBlockStorage::InvenBlockItem,std::allocator<ioUserBlockStorage::InvenBlockItem> >::_Grow_to, COMDAT
; _this$ = ecx

; 1274 : 		{	// grow by 50% or at least to _Count

  00000	55		 push	 ebp
  00001	8b ec		 mov	 ebp, esp

; 1275 : 		size_type _Capacity = capacity();

  00003	8b 41 08	 mov	 eax, DWORD PTR [ecx+8]
  00006	2b 01		 sub	 eax, DWORD PTR [ecx]
  00008	6a 38		 push	 56			; 00000038H
  0000a	99		 cdq
  0000b	59		 pop	 ecx
  0000c	f7 f9		 idiv	 ecx

; 1276 : 
; 1277 : 		_Capacity = max_size() - _Capacity / 2 < _Capacity
; 1278 : 			? 0 : _Capacity + _Capacity / 2;	// try to grow by 50%

  0000e	ba 24 49 92 04	 mov	 edx, 76695844		; 04924924H
  00013	8b c8		 mov	 ecx, eax
  00015	d1 e9		 shr	 ecx, 1
  00017	2b d1		 sub	 edx, ecx
  00019	3b d0		 cmp	 edx, eax
  0001b	73 04		 jae	 SHORT $LN4@Grow_to@2
  0001d	33 c0		 xor	 eax, eax
  0001f	eb 02		 jmp	 SHORT $LN5@Grow_to@2
$LN4@Grow_to@2:
  00021	03 c1		 add	 eax, ecx
$LN5@Grow_to@2:

; 1279 : 		if (_Capacity < _Count)

  00023	3b 45 08	 cmp	 eax, DWORD PTR __Count$[ebp]

; 1280 : 			_Capacity = _Count;

  00026	0f 42 45 08	 cmovb	 eax, DWORD PTR __Count$[ebp]

; 1281 : 		return (_Capacity);
; 1282 : 		}

  0002a	5d		 pop	 ebp
  0002b	c2 04 00	 ret	 4
?_Grow_to@?$vector@UInvenBlockItem@ioUserBlockStorage@@V?$allocator@UInvenBlockItem@ioUserBlockStorage@@@std@@@std@@IBEII@Z ENDP ; std::vector<ioUserBlockStorage::InvenBlockItem,std::allocator<ioUserBlockStorage::InvenBlockItem> >::_Grow_to
_TEXT	ENDS
PUBLIC	?allocate@?$allocator@UInvenBlockItem@ioUserBlockStorage@@@std@@QAEPAUInvenBlockItem@ioUserBlockStorage@@I@Z ; std::allocator<ioUserBlockStorage::InvenBlockItem>::allocate
; Function compile flags: /Ogsp
; File c:\program files (x86)\microsoft visual studio 10.0\vc\include\xmemory
;	COMDAT ?allocate@?$allocator@UInvenBlockItem@ioUserBlockStorage@@@std@@QAEPAUInvenBlockItem@ioUserBlockStorage@@I@Z
_TEXT	SEGMENT
__Count$ = 8						; size = 4
?allocate@?$allocator@UInvenBlockItem@ioUserBlockStorage@@@std@@QAEPAUInvenBlockItem@ioUserBlockStorage@@I@Z PROC ; std::allocator<ioUserBlockStorage::InvenBlockItem>::allocate, COMDAT
; _this$ = ecx

; 186  : 		{	// allocate array of _Count elements

  00000	55		 push	 ebp
  00001	8b ec		 mov	 ebp, esp

; 187  : 		return (_Allocate(_Count, (pointer)0));

  00003	6a 00		 push	 0
  00005	ff 75 08	 push	 DWORD PTR __Count$[ebp]
  00008	e8 00 00 00 00	 call	 ??$_Allocate@UInvenBlockItem@ioUserBlockStorage@@@std@@YAPAUInvenBlockItem@ioUserBlockStorage@@IPAU12@@Z ; std::_Allocate<ioUserBlockStorage::InvenBlockItem>
  0000d	59		 pop	 ecx
  0000e	59		 pop	 ecx

; 188  : 		}

  0000f	5d		 pop	 ebp
  00010	c2 04 00	 ret	 4
?allocate@?$allocator@UInvenBlockItem@ioUserBlockStorage@@@std@@QAEPAUInvenBlockItem@ioUserBlockStorage@@I@Z ENDP ; std::allocator<ioUserBlockStorage::InvenBlockItem>::allocate
_TEXT	ENDS
PUBLIC	??0?$_Vector_iterator@V?$_Vector_val@VioBlockDBItem@@V?$allocator@VioBlockDBItem@@@std@@@std@@@std@@QAE@PAVioBlockDBItem@@PBU_Container_base0@1@@Z ; std::_Vector_iterator<std::_Vector_val<ioBlockDBItem,std::allocator<ioBlockDBItem> > >::_Vector_iterator<std::_Vector_val<ioBlockDBItem,std::allocator<ioBlockDBItem> > >
; Function compile flags: /Ogsp
; File c:\program files (x86)\microsoft visual studio 10.0\vc\include\vector
;	COMDAT ??0?$_Vector_iterator@V?$_Vector_val@VioBlockDBItem@@V?$allocator@VioBlockDBItem@@@std@@@std@@@std@@QAE@PAVioBlockDBItem@@PBU_Container_base0@1@@Z
_TEXT	SEGMENT
__Parg$ = 8						; size = 4
__Pvector$ = 12						; size = 4
??0?$_Vector_iterator@V?$_Vector_val@VioBlockDBItem@@V?$allocator@VioBlockDBItem@@@std@@@std@@@std@@QAE@PAVioBlockDBItem@@PBU_Container_base0@1@@Z PROC ; std::_Vector_iterator<std::_Vector_val<ioBlockDBItem,std::allocator<ioBlockDBItem> > >::_Vector_iterator<std::_Vector_val<ioBlockDBItem,std::allocator<ioBlockDBItem> > >, COMDAT
; _this$ = ecx

; 304  : 		{	// construct with pointer _Parg

  00000	55		 push	 ebp
  00001	8b ec		 mov	 ebp, esp
  00003	8b c1		 mov	 eax, ecx
  00005	8b 4d 08	 mov	 ecx, DWORD PTR __Parg$[ebp]
  00008	89 08		 mov	 DWORD PTR [eax], ecx

; 305  : 		}

  0000a	5d		 pop	 ebp
  0000b	c2 08 00	 ret	 8
??0?$_Vector_iterator@V?$_Vector_val@VioBlockDBItem@@V?$allocator@VioBlockDBItem@@@std@@@std@@@std@@QAE@PAVioBlockDBItem@@PBU_Container_base0@1@@Z ENDP ; std::_Vector_iterator<std::_Vector_val<ioBlockDBItem,std::allocator<ioBlockDBItem> > >::_Vector_iterator<std::_Vector_val<ioBlockDBItem,std::allocator<ioBlockDBItem> > >
_TEXT	ENDS
PUBLIC	?allocate@?$allocator@VioBlockDBItem@@@std@@QAEPAVioBlockDBItem@@I@Z ; std::allocator<ioBlockDBItem>::allocate
; Function compile flags: /Ogsp
; File c:\program files (x86)\microsoft visual studio 10.0\vc\include\xmemory
;	COMDAT ?allocate@?$allocator@VioBlockDBItem@@@std@@QAEPAVioBlockDBItem@@I@Z
_TEXT	SEGMENT
__Count$ = 8						; size = 4
?allocate@?$allocator@VioBlockDBItem@@@std@@QAEPAVioBlockDBItem@@I@Z PROC ; std::allocator<ioBlockDBItem>::allocate, COMDAT
; _this$ = ecx

; 186  : 		{	// allocate array of _Count elements

  00000	55		 push	 ebp
  00001	8b ec		 mov	 ebp, esp

; 187  : 		return (_Allocate(_Count, (pointer)0));

  00003	6a 00		 push	 0
  00005	ff 75 08	 push	 DWORD PTR __Count$[ebp]
  00008	e8 00 00 00 00	 call	 ??$_Allocate@VioBlockDBItem@@@std@@YAPAVioBlockDBItem@@IPAV1@@Z ; std::_Allocate<ioBlockDBItem>
  0000d	59		 pop	 ecx
  0000e	59		 pop	 ecx

; 188  : 		}

  0000f	5d		 pop	 ebp
  00010	c2 04 00	 ret	 4
?allocate@?$allocator@VioBlockDBItem@@@std@@QAEPAVioBlockDBItem@@I@Z ENDP ; std::allocator<ioBlockDBItem>::allocate
_TEXT	ENDS
PUBLIC	??8?$_Vector_const_iterator@V?$_Vector_val@VioBlockDBItem@@V?$allocator@VioBlockDBItem@@@std@@@std@@@std@@QBE_NABV01@@Z ; std::_Vector_const_iterator<std::_Vector_val<ioBlockDBItem,std::allocator<ioBlockDBItem> > >::operator==
; Function compile flags: /Ogsp
; File c:\program files (x86)\microsoft visual studio 10.0\vc\include\vector
;	COMDAT ??8?$_Vector_const_iterator@V?$_Vector_val@VioBlockDBItem@@V?$allocator@VioBlockDBItem@@@std@@@std@@@std@@QBE_NABV01@@Z
_TEXT	SEGMENT
__Right$ = 8						; size = 4
??8?$_Vector_const_iterator@V?$_Vector_val@VioBlockDBItem@@V?$allocator@VioBlockDBItem@@@std@@@std@@@std@@QBE_NABV01@@Z PROC ; std::_Vector_const_iterator<std::_Vector_val<ioBlockDBItem,std::allocator<ioBlockDBItem> > >::operator==, COMDAT
; _this$ = ecx

; 201  : 		{	// test for iterator equality

  00000	55		 push	 ebp
  00001	8b ec		 mov	 ebp, esp

; 202  : 		_Compat(_Right);
; 203  : 		return (this->_Ptr == _Right._Ptr);

  00003	8b 01		 mov	 eax, DWORD PTR [ecx]
  00005	8b 4d 08	 mov	 ecx, DWORD PTR __Right$[ebp]
  00008	2b 01		 sub	 eax, DWORD PTR [ecx]
  0000a	f7 d8		 neg	 eax
  0000c	1b c0		 sbb	 eax, eax
  0000e	40		 inc	 eax

; 204  : 		}

  0000f	5d		 pop	 ebp
  00010	c2 04 00	 ret	 4
??8?$_Vector_const_iterator@V?$_Vector_val@VioBlockDBItem@@V?$allocator@VioBlockDBItem@@@std@@@std@@@std@@QBE_NABV01@@Z ENDP ; std::_Vector_const_iterator<std::_Vector_val<ioBlockDBItem,std::allocator<ioBlockDBItem> > >::operator==
_TEXT	ENDS
PUBLIC	??$back_inserter@V?$vector@UInvenBlockItem@ioUserBlockStorage@@V?$allocator@UInvenBlockItem@ioUserBlockStorage@@@std@@@std@@@std@@YA?AV?$back_insert_iterator@V?$vector@UInvenBlockItem@ioUserBlockStorage@@V?$allocator@UInvenBlockItem@ioUserBlockStorage@@@std@@@std@@@0@AAV?$vector@UInvenBlockItem@ioUserBlockStorage@@V?$allocator@UInvenBlockItem@ioUserBlockStorage@@@std@@@0@@Z ; std::back_inserter<std::vector<ioUserBlockStorage::InvenBlockItem,std::allocator<ioUserBlockStorage::InvenBlockItem> > >
; Function compile flags: /Ogsp
; File c:\program files (x86)\microsoft visual studio 10.0\vc\include\iterator
;	COMDAT ??$back_inserter@V?$vector@UInvenBlockItem@ioUserBlockStorage@@V?$allocator@UInvenBlockItem@ioUserBlockStorage@@@std@@@std@@@std@@YA?AV?$back_insert_iterator@V?$vector@UInvenBlockItem@ioUserBlockStorage@@V?$allocator@UInvenBlockItem@ioUserBlockStorage@@@std@@@std@@@0@AAV?$vector@UInvenBlockItem@ioUserBlockStorage@@V?$allocator@UInvenBlockItem@ioUserBlockStorage@@@std@@@0@@Z
_TEXT	SEGMENT
___$ReturnUdt$ = 8					; size = 4
__Cont$ = 12						; size = 4
??$back_inserter@V?$vector@UInvenBlockItem@ioUserBlockStorage@@V?$allocator@UInvenBlockItem@ioUserBlockStorage@@@std@@@std@@@std@@YA?AV?$back_insert_iterator@V?$vector@UInvenBlockItem@ioUserBlockStorage@@V?$allocator@UInvenBlockItem@ioUserBlockStorage@@@std@@@std@@@0@AAV?$vector@UInvenBlockItem@ioUserBlockStorage@@V?$allocator@UInvenBlockItem@ioUserBlockStorage@@@std@@@0@@Z PROC ; std::back_inserter<std::vector<ioUserBlockStorage::InvenBlockItem,std::allocator<ioUserBlockStorage::InvenBlockItem> > >, COMDAT

; 69   : 	{	// return a back_insert_iterator

  00000	55		 push	 ebp
  00001	8b ec		 mov	 ebp, esp

; 70   : 	return (_STD back_insert_iterator<_Container>(_Cont));

  00003	8b 45 08	 mov	 eax, DWORD PTR ___$ReturnUdt$[ebp]
  00006	8b 4d 0c	 mov	 ecx, DWORD PTR __Cont$[ebp]
  00009	89 08		 mov	 DWORD PTR [eax], ecx

; 71   : 	}

  0000b	5d		 pop	 ebp
  0000c	c3		 ret	 0
??$back_inserter@V?$vector@UInvenBlockItem@ioUserBlockStorage@@V?$allocator@UInvenBlockItem@ioUserBlockStorage@@@std@@@std@@@std@@YA?AV?$back_insert_iterator@V?$vector@UInvenBlockItem@ioUserBlockStorage@@V?$allocator@UInvenBlockItem@ioUserBlockStorage@@@std@@@std@@@0@AAV?$vector@UInvenBlockItem@ioUserBlockStorage@@V?$allocator@UInvenBlockItem@ioUserBlockStorage@@@std@@@0@@Z ENDP ; std::back_inserter<std::vector<ioUserBlockStorage::InvenBlockItem,std::allocator<ioUserBlockStorage::InvenBlockItem> > >
_TEXT	ENDS
PUBLIC	??G?$_Vector_iterator@V?$_Vector_val@UInvenBlockItem@ioUserBlockStorage@@V?$allocator@UInvenBlockItem@ioUserBlockStorage@@@std@@@std@@@std@@QBEHABV?$_Vector_const_iterator@V?$_Vector_val@UInvenBlockItem@ioUserBlockStorage@@V?$allocator@UInvenBlockItem@ioUserBlockStorage@@@std@@@std@@@1@@Z ; std::_Vector_iterator<std::_Vector_val<ioUserBlockStorage::InvenBlockItem,std::allocator<ioUserBlockStorage::InvenBlockItem> > >::operator-
; Function compile flags: /Ogsp
; File c:\program files (x86)\microsoft visual studio 10.0\vc\include\vector
;	COMDAT ??G?$_Vector_iterator@V?$_Vector_val@UInvenBlockItem@ioUserBlockStorage@@V?$allocator@UInvenBlockItem@ioUserBlockStorage@@@std@@@std@@@std@@QBEHABV?$_Vector_const_iterator@V?$_Vector_val@UInvenBlockItem@ioUserBlockStorage@@V?$allocator@UInvenBlockItem@ioUserBlockStorage@@@std@@@std@@@1@@Z
_TEXT	SEGMENT
__Right$ = 8						; size = 4
??G?$_Vector_iterator@V?$_Vector_val@UInvenBlockItem@ioUserBlockStorage@@V?$allocator@UInvenBlockItem@ioUserBlockStorage@@@std@@@std@@@std@@QBEHABV?$_Vector_const_iterator@V?$_Vector_val@UInvenBlockItem@ioUserBlockStorage@@V?$allocator@UInvenBlockItem@ioUserBlockStorage@@@std@@@std@@@1@@Z PROC ; std::_Vector_iterator<std::_Vector_val<ioUserBlockStorage::InvenBlockItem,std::allocator<ioUserBlockStorage::InvenBlockItem> > >::operator-, COMDAT
; _this$ = ecx

; 380  : 		{	// return difference of iterators

  00000	55		 push	 ebp
  00001	8b ec		 mov	 ebp, esp

; 381  : 		return (*(_Mybase *)this - _Right);

  00003	8b 01		 mov	 eax, DWORD PTR [ecx]
  00005	8b 4d 08	 mov	 ecx, DWORD PTR __Right$[ebp]
  00008	2b 01		 sub	 eax, DWORD PTR [ecx]
  0000a	6a 38		 push	 56			; 00000038H
  0000c	99		 cdq
  0000d	59		 pop	 ecx
  0000e	f7 f9		 idiv	 ecx

; 382  : 		}

  00010	5d		 pop	 ebp
  00011	c2 04 00	 ret	 4
??G?$_Vector_iterator@V?$_Vector_val@UInvenBlockItem@ioUserBlockStorage@@V?$allocator@UInvenBlockItem@ioUserBlockStorage@@@std@@@std@@@std@@QBEHABV?$_Vector_const_iterator@V?$_Vector_val@UInvenBlockItem@ioUserBlockStorage@@V?$allocator@UInvenBlockItem@ioUserBlockStorage@@@std@@@std@@@1@@Z ENDP ; std::_Vector_iterator<std::_Vector_val<ioUserBlockStorage::InvenBlockItem,std::allocator<ioUserBlockStorage::InvenBlockItem> > >::operator-
_TEXT	ENDS
PUBLIC	??$_Unchecked@V?$_Vector_val@UInvenBlockItem@ioUserBlockStorage@@V?$allocator@UInvenBlockItem@ioUserBlockStorage@@@std@@@std@@@std@@YAPAUInvenBlockItem@ioUserBlockStorage@@V?$_Vector_iterator@V?$_Vector_val@UInvenBlockItem@ioUserBlockStorage@@V?$allocator@UInvenBlockItem@ioUserBlockStorage@@@std@@@std@@@0@@Z ; std::_Unchecked<std::_Vector_val<ioUserBlockStorage::InvenBlockItem,std::allocator<ioUserBlockStorage::InvenBlockItem> > >
; Function compile flags: /Ogsp
;	COMDAT ??$_Unchecked@V?$_Vector_val@UInvenBlockItem@ioUserBlockStorage@@V?$allocator@UInvenBlockItem@ioUserBlockStorage@@@std@@@std@@@std@@YAPAUInvenBlockItem@ioUserBlockStorage@@V?$_Vector_iterator@V?$_Vector_val@UInvenBlockItem@ioUserBlockStorage@@V?$allocator@UInvenBlockItem@ioUserBlockStorage@@@std@@@std@@@0@@Z
_TEXT	SEGMENT
__Iter$ = 8						; size = 4
??$_Unchecked@V?$_Vector_val@UInvenBlockItem@ioUserBlockStorage@@V?$allocator@UInvenBlockItem@ioUserBlockStorage@@@std@@@std@@@std@@YAPAUInvenBlockItem@ioUserBlockStorage@@V?$_Vector_iterator@V?$_Vector_val@UInvenBlockItem@ioUserBlockStorage@@V?$allocator@UInvenBlockItem@ioUserBlockStorage@@@std@@@std@@@0@@Z PROC ; std::_Unchecked<std::_Vector_val<ioUserBlockStorage::InvenBlockItem,std::allocator<ioUserBlockStorage::InvenBlockItem> > >, COMDAT

; 393  : 	{	// convert to unchecked

  00000	55		 push	 ebp
  00001	8b ec		 mov	 ebp, esp

; 394  : 	return (_Iter._Unchecked());

  00003	8b 45 08	 mov	 eax, DWORD PTR __Iter$[ebp]

; 395  : 	}

  00006	5d		 pop	 ebp
  00007	c3		 ret	 0
??$_Unchecked@V?$_Vector_val@UInvenBlockItem@ioUserBlockStorage@@V?$allocator@UInvenBlockItem@ioUserBlockStorage@@@std@@@std@@@std@@YAPAUInvenBlockItem@ioUserBlockStorage@@V?$_Vector_iterator@V?$_Vector_val@UInvenBlockItem@ioUserBlockStorage@@V?$allocator@UInvenBlockItem@ioUserBlockStorage@@@std@@@std@@@0@@Z ENDP ; std::_Unchecked<std::_Vector_val<ioUserBlockStorage::InvenBlockItem,std::allocator<ioUserBlockStorage::InvenBlockItem> > >
_TEXT	ENDS
PUBLIC	??$construct@AAVioBlockDBItem@@@?$allocator@VioBlockDBItem@@@std@@QAEXPAVioBlockDBItem@@AAV2@@Z ; std::allocator<ioBlockDBItem>::construct<ioBlockDBItem &>
; Function compile flags: /Ogsp
; File c:\program files (x86)\microsoft visual studio 10.0\vc\include\xmemory
;	COMDAT ??$construct@AAVioBlockDBItem@@@?$allocator@VioBlockDBItem@@@std@@QAEXPAVioBlockDBItem@@AAV2@@Z
_TEXT	SEGMENT
__Ptr$ = 8						; size = 4
__Val$ = 12						; size = 4
??$construct@AAVioBlockDBItem@@@?$allocator@VioBlockDBItem@@@std@@QAEXPAVioBlockDBItem@@AAV2@@Z PROC ; std::allocator<ioBlockDBItem>::construct<ioBlockDBItem &>, COMDAT
; _this$ = ecx

; 206  : 		void construct(pointer _Ptr, _Other&& _Val)

  00000	55		 push	 ebp
  00001	8b ec		 mov	 ebp, esp

; 207  : 		{	// construct object at _Ptr with value _Val
; 208  : 		::new ((void _FARQ *)_Ptr) _Ty(_STD forward<_Other>(_Val));

  00003	8b 4d 08	 mov	 ecx, DWORD PTR __Ptr$[ebp]
  00006	85 c9		 test	 ecx, ecx
  00008	74 08		 je	 SHORT $LN3@construct
  0000a	ff 75 0c	 push	 DWORD PTR __Val$[ebp]
  0000d	e8 00 00 00 00	 call	 ??0ioBlockDBItem@@QAE@ABV0@@Z
$LN3@construct:

; 209  : 		}

  00012	5d		 pop	 ebp
  00013	c2 08 00	 ret	 8
??$construct@AAVioBlockDBItem@@@?$allocator@VioBlockDBItem@@@std@@QAEXPAVioBlockDBItem@@AAV2@@Z ENDP ; std::allocator<ioBlockDBItem>::construct<ioBlockDBItem &>
_TEXT	ENDS
PUBLIC	??$_Copy_impl@PAUInvenBlockItem@ioUserBlockStorage@@PAU12@@std@@YAPAUInvenBlockItem@ioUserBlockStorage@@PAU12@00U_Nonscalar_ptr_iterator_tag@0@@Z ; std::_Copy_impl<ioUserBlockStorage::InvenBlockItem *,ioUserBlockStorage::InvenBlockItem *>
; Function compile flags: /Ogsp
; File c:\program files (x86)\microsoft visual studio 10.0\vc\include\xutility
;	COMDAT ??$_Copy_impl@PAUInvenBlockItem@ioUserBlockStorage@@PAU12@@std@@YAPAUInvenBlockItem@ioUserBlockStorage@@PAU12@00U_Nonscalar_ptr_iterator_tag@0@@Z
_TEXT	SEGMENT
__First$ = 8						; size = 4
__Last$ = 12						; size = 4
__Dest$ = 16						; size = 4
___formal$ = 20						; size = 1
??$_Copy_impl@PAUInvenBlockItem@ioUserBlockStorage@@PAU12@@std@@YAPAUInvenBlockItem@ioUserBlockStorage@@PAU12@00U_Nonscalar_ptr_iterator_tag@0@@Z PROC ; std::_Copy_impl<ioUserBlockStorage::InvenBlockItem *,ioUserBlockStorage::InvenBlockItem *>, COMDAT

; 2142 : 	{	// copy [_First, _Last) to [_Dest, ...), arbitrary iterators

  00000	55		 push	 ebp
  00001	8b ec		 mov	 ebp, esp
  00003	56		 push	 esi

; 2143 : 	for (; _First != _Last; ++_Dest, ++_First)

  00004	8b 75 08	 mov	 esi, DWORD PTR __First$[ebp]
  00007	eb 10		 jmp	 SHORT $LN9@Copy_impl
$LL3@Copy_impl:

; 2144 : 		*_Dest = *_First;

  00009	8b 4d 10	 mov	 ecx, DWORD PTR __Dest$[ebp]
  0000c	56		 push	 esi
  0000d	e8 00 00 00 00	 call	 ??4InvenBlockItem@ioUserBlockStorage@@QAEAAU01@ABU01@@Z
  00012	83 45 10 38	 add	 DWORD PTR __Dest$[ebp], 56 ; 00000038H
  00016	83 c6 38	 add	 esi, 56			; 00000038H
$LN9@Copy_impl:

; 2143 : 	for (; _First != _Last; ++_Dest, ++_First)

  00019	3b 75 0c	 cmp	 esi, DWORD PTR __Last$[ebp]
  0001c	75 eb		 jne	 SHORT $LL3@Copy_impl

; 2145 : 	return (_Dest);

  0001e	8b 45 10	 mov	 eax, DWORD PTR __Dest$[ebp]
  00021	5e		 pop	 esi

; 2146 : 	}

  00022	5d		 pop	 ebp
  00023	c3		 ret	 0
??$_Copy_impl@PAUInvenBlockItem@ioUserBlockStorage@@PAU12@@std@@YAPAUInvenBlockItem@ioUserBlockStorage@@PAU12@00U_Nonscalar_ptr_iterator_tag@0@@Z ENDP ; std::_Copy_impl<ioUserBlockStorage::InvenBlockItem *,ioUserBlockStorage::InvenBlockItem *>
_TEXT	ENDS
PUBLIC	??$construct@AAUInvenBlockItem@ioUserBlockStorage@@@?$allocator@UInvenBlockItem@ioUserBlockStorage@@@std@@QAEXPAUInvenBlockItem@ioUserBlockStorage@@AAU23@@Z ; std::allocator<ioUserBlockStorage::InvenBlockItem>::construct<ioUserBlockStorage::InvenBlockItem &>
;	COMDAT xdata$x
; File c:\program files (x86)\microsoft visual studio 10.0\vc\include\utility
xdata$x	SEGMENT
__unwindtable$??$construct@AAUInvenBlockItem@ioUserBlockStorage@@@?$allocator@UInvenBlockItem@ioUserBlockStorage@@@std@@QAEXPAUInvenBlockItem@ioUserBlockStorage@@AAU23@@Z DD 0ffffffffH
	DD	FLAT:__unwindfunclet$??$construct@AAUInvenBlockItem@ioUserBlockStorage@@@?$allocator@UInvenBlockItem@ioUserBlockStorage@@@std@@QAEXPAUInvenBlockItem@ioUserBlockStorage@@AAU23@@Z$0
__ehfuncinfo$??$construct@AAUInvenBlockItem@ioUserBlockStorage@@@?$allocator@UInvenBlockItem@ioUserBlockStorage@@@std@@QAEXPAUInvenBlockItem@ioUserBlockStorage@@AAU23@@Z DD 019930522H
	DD	01H
	DD	FLAT:__unwindtable$??$construct@AAUInvenBlockItem@ioUserBlockStorage@@@?$allocator@UInvenBlockItem@ioUserBlockStorage@@@std@@QAEXPAUInvenBlockItem@ioUserBlockStorage@@AAU23@@Z
	DD	2 DUP(00H)
	DD	2 DUP(00H)
	DD	00H
	DD	01H
; Function compile flags: /Ogsp
; File c:\program files (x86)\microsoft visual studio 10.0\vc\include\xmemory
xdata$x	ENDS
;	COMDAT ??$construct@AAUInvenBlockItem@ioUserBlockStorage@@@?$allocator@UInvenBlockItem@ioUserBlockStorage@@@std@@QAEXPAUInvenBlockItem@ioUserBlockStorage@@AAU23@@Z
_TEXT	SEGMENT
$T512197 = -16						; size = 4
__$EHRec$ = -12						; size = 12
__Ptr$ = 8						; size = 4
__Val$ = 12						; size = 4
??$construct@AAUInvenBlockItem@ioUserBlockStorage@@@?$allocator@UInvenBlockItem@ioUserBlockStorage@@@std@@QAEXPAUInvenBlockItem@ioUserBlockStorage@@AAU23@@Z PROC ; std::allocator<ioUserBlockStorage::InvenBlockItem>::construct<ioUserBlockStorage::InvenBlockItem &>, COMDAT
; _this$ = ecx

; 206  : 		void construct(pointer _Ptr, _Other&& _Val)

  00000	6a 04		 push	 4
  00002	b8 00 00 00 00	 mov	 eax, __ehhandler$??$construct@AAUInvenBlockItem@ioUserBlockStorage@@@?$allocator@UInvenBlockItem@ioUserBlockStorage@@@std@@QAEXPAUInvenBlockItem@ioUserBlockStorage@@AAU23@@Z
  00007	e8 00 00 00 00	 call	 __EH_prolog3

; 207  : 		{	// construct object at _Ptr with value _Val
; 208  : 		::new ((void _FARQ *)_Ptr) _Ty(_STD forward<_Other>(_Val));

  0000c	8b 4d 08	 mov	 ecx, DWORD PTR __Ptr$[ebp]
  0000f	89 4d f0	 mov	 DWORD PTR $T512197[ebp], ecx
  00012	83 65 fc 00	 and	 DWORD PTR __$EHRec$[ebp+8], 0
  00016	85 c9		 test	 ecx, ecx
  00018	74 08		 je	 SHORT $LN3@construct@2
  0001a	ff 75 0c	 push	 DWORD PTR __Val$[ebp]
  0001d	e8 00 00 00 00	 call	 ??0InvenBlockItem@ioUserBlockStorage@@QAE@ABU01@@Z
$LN3@construct@2:

; 209  : 		}

  00022	e8 00 00 00 00	 call	 __EH_epilog3
  00027	c2 08 00	 ret	 8
_TEXT	ENDS
;	COMDAT text$x
text$x	SEGMENT
__unwindfunclet$??$construct@AAUInvenBlockItem@ioUserBlockStorage@@@?$allocator@UInvenBlockItem@ioUserBlockStorage@@@std@@QAEXPAUInvenBlockItem@ioUserBlockStorage@@AAU23@@Z$0:
  00000	ff 75 08	 push	 DWORD PTR __Ptr$[ebp]
  00003	ff 75 f0	 push	 DWORD PTR $T512197[ebp]
  00006	e8 00 00 00 00	 call	 ??3@YAXPAX0@Z		; operator delete
  0000b	59		 pop	 ecx
  0000c	59		 pop	 ecx
  0000d	c3		 ret	 0
__ehhandler$??$construct@AAUInvenBlockItem@ioUserBlockStorage@@@?$allocator@UInvenBlockItem@ioUserBlockStorage@@@std@@QAEXPAUInvenBlockItem@ioUserBlockStorage@@AAU23@@Z:
  0000e	8b 54 24 08	 mov	 edx, DWORD PTR [esp+8]
  00012	8d 42 0c	 lea	 eax, DWORD PTR [edx+12]
  00015	8b 4a ec	 mov	 ecx, DWORD PTR [edx-20]
  00018	33 c8		 xor	 ecx, eax
  0001a	e8 00 00 00 00	 call	 @__security_check_cookie@4
  0001f	b8 00 00 00 00	 mov	 eax, OFFSET __ehfuncinfo$??$construct@AAUInvenBlockItem@ioUserBlockStorage@@@?$allocator@UInvenBlockItem@ioUserBlockStorage@@@std@@QAEXPAUInvenBlockItem@ioUserBlockStorage@@AAU23@@Z
  00024	e9 00 00 00 00	 jmp	 ___CxxFrameHandler3
text$x	ENDS
??$construct@AAUInvenBlockItem@ioUserBlockStorage@@@?$allocator@UInvenBlockItem@ioUserBlockStorage@@@std@@QAEXPAUInvenBlockItem@ioUserBlockStorage@@AAU23@@Z ENDP ; std::allocator<ioUserBlockStorage::InvenBlockItem>::construct<ioUserBlockStorage::InvenBlockItem &>
PUBLIC	??$_Move@PAVioBlockDBItem@@PAV1@@std@@YAPAVioBlockDBItem@@PAV1@00U_Nonscalar_ptr_iterator_tag@0@@Z ; std::_Move<ioBlockDBItem *,ioBlockDBItem *>
; Function compile flags: /Ogsp
; File c:\program files (x86)\microsoft visual studio 10.0\vc\include\xutility
;	COMDAT ??$_Move@PAVioBlockDBItem@@PAV1@@std@@YAPAVioBlockDBItem@@PAV1@00U_Nonscalar_ptr_iterator_tag@0@@Z
_TEXT	SEGMENT
__First$ = 8						; size = 4
__Last$ = 12						; size = 4
__Dest$ = 16						; size = 4
___formal$ = 20						; size = 1
??$_Move@PAVioBlockDBItem@@PAV1@@std@@YAPAVioBlockDBItem@@PAV1@00U_Nonscalar_ptr_iterator_tag@0@@Z PROC ; std::_Move<ioBlockDBItem *,ioBlockDBItem *>, COMDAT

; 2512 : 	{	// move [_First, _Last) to [_Dest, ...), arbitrary iterators

  00000	55		 push	 ebp
  00001	8b ec		 mov	 ebp, esp
  00003	56		 push	 esi

; 2513 : 	for (; _First != _Last; ++_Dest, ++_First)

  00004	8b 75 08	 mov	 esi, DWORD PTR __First$[ebp]
  00007	eb 10		 jmp	 SHORT $LN11@Move
$LL3@Move:

; 2514 : 		*_Dest = _STD move(*_First);

  00009	8b 4d 10	 mov	 ecx, DWORD PTR __Dest$[ebp]
  0000c	56		 push	 esi
  0000d	e8 00 00 00 00	 call	 ??4ioBlockDBItem@@QAEAAV0@ABV0@@Z
  00012	83 45 10 28	 add	 DWORD PTR __Dest$[ebp], 40 ; 00000028H
  00016	83 c6 28	 add	 esi, 40			; 00000028H
$LN11@Move:

; 2513 : 	for (; _First != _Last; ++_Dest, ++_First)

  00019	3b 75 0c	 cmp	 esi, DWORD PTR __Last$[ebp]
  0001c	75 eb		 jne	 SHORT $LL3@Move

; 2515 : 	return (_Dest);

  0001e	8b 45 10	 mov	 eax, DWORD PTR __Dest$[ebp]
  00021	5e		 pop	 esi

; 2516 : 	}

  00022	5d		 pop	 ebp
  00023	c3		 ret	 0
??$_Move@PAVioBlockDBItem@@PAV1@@std@@YAPAVioBlockDBItem@@PAV1@00U_Nonscalar_ptr_iterator_tag@0@@Z ENDP ; std::_Move<ioBlockDBItem *,ioBlockDBItem *>
_TEXT	ENDS
PUBLIC	??$_Move@PAUInvenBlockItem@ioUserBlockStorage@@PAU12@@std@@YAPAUInvenBlockItem@ioUserBlockStorage@@PAU12@00U_Nonscalar_ptr_iterator_tag@0@@Z ; std::_Move<ioUserBlockStorage::InvenBlockItem *,ioUserBlockStorage::InvenBlockItem *>
; Function compile flags: /Ogsp
;	COMDAT ??$_Move@PAUInvenBlockItem@ioUserBlockStorage@@PAU12@@std@@YAPAUInvenBlockItem@ioUserBlockStorage@@PAU12@00U_Nonscalar_ptr_iterator_tag@0@@Z
_TEXT	SEGMENT
__First$ = 8						; size = 4
__Last$ = 12						; size = 4
__Dest$ = 16						; size = 4
___formal$ = 20						; size = 1
??$_Move@PAUInvenBlockItem@ioUserBlockStorage@@PAU12@@std@@YAPAUInvenBlockItem@ioUserBlockStorage@@PAU12@00U_Nonscalar_ptr_iterator_tag@0@@Z PROC ; std::_Move<ioUserBlockStorage::InvenBlockItem *,ioUserBlockStorage::InvenBlockItem *>, COMDAT

; 2512 : 	{	// move [_First, _Last) to [_Dest, ...), arbitrary iterators

  00000	55		 push	 ebp
  00001	8b ec		 mov	 ebp, esp
  00003	56		 push	 esi

; 2513 : 	for (; _First != _Last; ++_Dest, ++_First)

  00004	8b 75 08	 mov	 esi, DWORD PTR __First$[ebp]
  00007	eb 10		 jmp	 SHORT $LN11@Move@2
$LL3@Move@2:

; 2514 : 		*_Dest = _STD move(*_First);

  00009	8b 4d 10	 mov	 ecx, DWORD PTR __Dest$[ebp]
  0000c	56		 push	 esi
  0000d	e8 00 00 00 00	 call	 ??4InvenBlockItem@ioUserBlockStorage@@QAEAAU01@ABU01@@Z
  00012	83 45 10 38	 add	 DWORD PTR __Dest$[ebp], 56 ; 00000038H
  00016	83 c6 38	 add	 esi, 56			; 00000038H
$LN11@Move@2:

; 2513 : 	for (; _First != _Last; ++_Dest, ++_First)

  00019	3b 75 0c	 cmp	 esi, DWORD PTR __Last$[ebp]
  0001c	75 eb		 jne	 SHORT $LL3@Move@2

; 2515 : 	return (_Dest);

  0001e	8b 45 10	 mov	 eax, DWORD PTR __Dest$[ebp]
  00021	5e		 pop	 esi

; 2516 : 	}

  00022	5d		 pop	 ebp
  00023	c3		 ret	 0
??$_Move@PAUInvenBlockItem@ioUserBlockStorage@@PAU12@@std@@YAPAUInvenBlockItem@ioUserBlockStorage@@PAU12@00U_Nonscalar_ptr_iterator_tag@0@@Z ENDP ; std::_Move<ioUserBlockStorage::InvenBlockItem *,ioUserBlockStorage::InvenBlockItem *>
_TEXT	ENDS
PUBLIC	??$_Construct@VioBlockDBItem@@ABV1@@std@@YAXPAVioBlockDBItem@@ABV1@@Z ; std::_Construct<ioBlockDBItem,ioBlockDBItem const &>
; Function compile flags: /Ogsp
; File c:\program files (x86)\microsoft visual studio 10.0\vc\include\xmemory
;	COMDAT ??$_Construct@VioBlockDBItem@@ABV1@@std@@YAXPAVioBlockDBItem@@ABV1@@Z
_TEXT	SEGMENT
__Ptr$ = 8						; size = 4
__Val$ = 12						; size = 4
??$_Construct@VioBlockDBItem@@ABV1@@std@@YAXPAVioBlockDBItem@@ABV1@@Z PROC ; std::_Construct<ioBlockDBItem,ioBlockDBItem const &>, COMDAT

; 46   : 	{	// construct object at _Ptr with value _Val

  00000	55		 push	 ebp
  00001	8b ec		 mov	 ebp, esp

; 47   : 	void _FARQ *_Vptr = _Ptr;
; 48   : 	::new (_Vptr) _Ty1(_STD forward<_Ty2>(_Val));

  00003	8b 4d 08	 mov	 ecx, DWORD PTR __Ptr$[ebp]
  00006	85 c9		 test	 ecx, ecx
  00008	74 08		 je	 SHORT $LN3@Construct
  0000a	ff 75 0c	 push	 DWORD PTR __Val$[ebp]
  0000d	e8 00 00 00 00	 call	 ??0ioBlockDBItem@@QAE@ABV0@@Z
$LN3@Construct:

; 49   : 	}

  00012	5d		 pop	 ebp
  00013	c3		 ret	 0
??$_Construct@VioBlockDBItem@@ABV1@@std@@YAXPAVioBlockDBItem@@ABV1@@Z ENDP ; std::_Construct<ioBlockDBItem,ioBlockDBItem const &>
_TEXT	ENDS
PUBLIC	??$_Construct@UInvenBlockItem@ioUserBlockStorage@@ABU12@@std@@YAXPAUInvenBlockItem@ioUserBlockStorage@@ABU12@@Z ; std::_Construct<ioUserBlockStorage::InvenBlockItem,ioUserBlockStorage::InvenBlockItem const &>
;	COMDAT xdata$x
; File c:\program files (x86)\microsoft visual studio 10.0\vc\include\utility
xdata$x	SEGMENT
__unwindtable$??$_Construct@UInvenBlockItem@ioUserBlockStorage@@ABU12@@std@@YAXPAUInvenBlockItem@ioUserBlockStorage@@ABU12@@Z DD 0ffffffffH
	DD	FLAT:__unwindfunclet$??$_Construct@UInvenBlockItem@ioUserBlockStorage@@ABU12@@std@@YAXPAUInvenBlockItem@ioUserBlockStorage@@ABU12@@Z$0
__ehfuncinfo$??$_Construct@UInvenBlockItem@ioUserBlockStorage@@ABU12@@std@@YAXPAUInvenBlockItem@ioUserBlockStorage@@ABU12@@Z DD 019930522H
	DD	01H
	DD	FLAT:__unwindtable$??$_Construct@UInvenBlockItem@ioUserBlockStorage@@ABU12@@std@@YAXPAUInvenBlockItem@ioUserBlockStorage@@ABU12@@Z
	DD	2 DUP(00H)
	DD	2 DUP(00H)
	DD	00H
	DD	01H
; Function compile flags: /Ogsp
; File c:\program files (x86)\microsoft visual studio 10.0\vc\include\xmemory
xdata$x	ENDS
;	COMDAT ??$_Construct@UInvenBlockItem@ioUserBlockStorage@@ABU12@@std@@YAXPAUInvenBlockItem@ioUserBlockStorage@@ABU12@@Z
_TEXT	SEGMENT
$T512247 = -16						; size = 4
__$EHRec$ = -12						; size = 12
__Vptr$ = 8						; size = 4
__Ptr$ = 8						; size = 4
__Val$ = 12						; size = 4
??$_Construct@UInvenBlockItem@ioUserBlockStorage@@ABU12@@std@@YAXPAUInvenBlockItem@ioUserBlockStorage@@ABU12@@Z PROC ; std::_Construct<ioUserBlockStorage::InvenBlockItem,ioUserBlockStorage::InvenBlockItem const &>, COMDAT

; 46   : 	{	// construct object at _Ptr with value _Val

  00000	6a 04		 push	 4
  00002	b8 00 00 00 00	 mov	 eax, __ehhandler$??$_Construct@UInvenBlockItem@ioUserBlockStorage@@ABU12@@std@@YAXPAUInvenBlockItem@ioUserBlockStorage@@ABU12@@Z
  00007	e8 00 00 00 00	 call	 __EH_prolog3

; 47   : 	void _FARQ *_Vptr = _Ptr;

  0000c	8b 4d 08	 mov	 ecx, DWORD PTR __Ptr$[ebp]
  0000f	89 4d 08	 mov	 DWORD PTR __Vptr$[ebp], ecx

; 48   : 	::new (_Vptr) _Ty1(_STD forward<_Ty2>(_Val));

  00012	89 4d f0	 mov	 DWORD PTR $T512247[ebp], ecx
  00015	83 65 fc 00	 and	 DWORD PTR __$EHRec$[ebp+8], 0
  00019	85 c9		 test	 ecx, ecx
  0001b	74 08		 je	 SHORT $LN3@Construct@2
  0001d	ff 75 0c	 push	 DWORD PTR __Val$[ebp]
  00020	e8 00 00 00 00	 call	 ??0InvenBlockItem@ioUserBlockStorage@@QAE@ABU01@@Z
$LN3@Construct@2:

; 49   : 	}

  00025	e8 00 00 00 00	 call	 __EH_epilog3
  0002a	c3		 ret	 0
_TEXT	ENDS
;	COMDAT text$x
text$x	SEGMENT
__unwindfunclet$??$_Construct@UInvenBlockItem@ioUserBlockStorage@@ABU12@@std@@YAXPAUInvenBlockItem@ioUserBlockStorage@@ABU12@@Z$0:
  00000	ff 75 08	 push	 DWORD PTR __Vptr$[ebp]
  00003	ff 75 f0	 push	 DWORD PTR $T512247[ebp]
  00006	e8 00 00 00 00	 call	 ??3@YAXPAX0@Z		; operator delete
  0000b	59		 pop	 ecx
  0000c	59		 pop	 ecx
  0000d	c3		 ret	 0
__ehhandler$??$_Construct@UInvenBlockItem@ioUserBlockStorage@@ABU12@@std@@YAXPAUInvenBlockItem@ioUserBlockStorage@@ABU12@@Z:
  0000e	8b 54 24 08	 mov	 edx, DWORD PTR [esp+8]
  00012	8d 42 0c	 lea	 eax, DWORD PTR [edx+12]
  00015	8b 4a ec	 mov	 ecx, DWORD PTR [edx-20]
  00018	33 c8		 xor	 ecx, eax
  0001a	e8 00 00 00 00	 call	 @__security_check_cookie@4
  0001f	b8 00 00 00 00	 mov	 eax, OFFSET __ehfuncinfo$??$_Construct@UInvenBlockItem@ioUserBlockStorage@@ABU12@@std@@YAXPAUInvenBlockItem@ioUserBlockStorage@@ABU12@@Z
  00024	e9 00 00 00 00	 jmp	 ___CxxFrameHandler3
text$x	ENDS
??$_Construct@UInvenBlockItem@ioUserBlockStorage@@ABU12@@std@@YAXPAUInvenBlockItem@ioUserBlockStorage@@ABU12@@Z ENDP ; std::_Construct<ioUserBlockStorage::InvenBlockItem,ioUserBlockStorage::InvenBlockItem const &>
PUBLIC	?destroy@?$allocator@VioBlockDBItem@@@std@@QAEXPAVioBlockDBItem@@@Z ; std::allocator<ioBlockDBItem>::destroy
; Function compile flags: /Ogsp
;	COMDAT ?destroy@?$allocator@VioBlockDBItem@@@std@@QAEXPAVioBlockDBItem@@@Z
_TEXT	SEGMENT
__Ptr$ = 8						; size = 4
?destroy@?$allocator@VioBlockDBItem@@@std@@QAEXPAVioBlockDBItem@@@Z PROC ; std::allocator<ioBlockDBItem>::destroy, COMDAT
; _this$ = ecx

; 212  : 		{	// destroy object at _Ptr

  00000	55		 push	 ebp
  00001	8b ec		 mov	 ebp, esp

; 213  : 		_Destroy(_Ptr);

  00003	8b 4d 08	 mov	 ecx, DWORD PTR __Ptr$[ebp]
  00006	8b 01		 mov	 eax, DWORD PTR [ecx]
  00008	6a 00		 push	 0
  0000a	ff 10		 call	 DWORD PTR [eax]

; 214  : 		}

  0000c	5d		 pop	 ebp
  0000d	c2 04 00	 ret	 4
?destroy@?$allocator@VioBlockDBItem@@@std@@QAEXPAVioBlockDBItem@@@Z ENDP ; std::allocator<ioBlockDBItem>::destroy
_TEXT	ENDS
PUBLIC	??$?0AAPAUInvenBlockItem@ioUserBlockStorage@@AAPAU01@@?$pair@PAUInvenBlockItem@ioUserBlockStorage@@PAU12@@std@@QAE@AAPAUInvenBlockItem@ioUserBlockStorage@@0@Z ; std::pair<ioUserBlockStorage::InvenBlockItem *,ioUserBlockStorage::InvenBlockItem *>::pair<ioUserBlockStorage::InvenBlockItem *,ioUserBlockStorage::InvenBlockItem *><ioUserBlockStorage::InvenBlockItem * &,ioUserBlockStorage::InvenBlockItem * &>
; Function compile flags: /Ogsp
; File c:\program files (x86)\microsoft visual studio 10.0\vc\include\utility
;	COMDAT ??$?0AAPAUInvenBlockItem@ioUserBlockStorage@@AAPAU01@@?$pair@PAUInvenBlockItem@ioUserBlockStorage@@PAU12@@std@@QAE@AAPAUInvenBlockItem@ioUserBlockStorage@@0@Z
_TEXT	SEGMENT
__Val1$ = 8						; size = 4
__Val2$ = 12						; size = 4
??$?0AAPAUInvenBlockItem@ioUserBlockStorage@@AAPAU01@@?$pair@PAUInvenBlockItem@ioUserBlockStorage@@PAU12@@std@@QAE@AAPAUInvenBlockItem@ioUserBlockStorage@@0@Z PROC ; std::pair<ioUserBlockStorage::InvenBlockItem *,ioUserBlockStorage::InvenBlockItem *>::pair<ioUserBlockStorage::InvenBlockItem *,ioUserBlockStorage::InvenBlockItem *><ioUserBlockStorage::InvenBlockItem * &,ioUserBlockStorage::InvenBlockItem * &>, COMDAT
; _this$ = ecx

; 247  : 		{	// construct from moved values

  00000	55		 push	 ebp
  00001	8b ec		 mov	 ebp, esp
  00003	8b c1		 mov	 eax, ecx
  00005	8b 4d 08	 mov	 ecx, DWORD PTR __Val1$[ebp]
  00008	8b 09		 mov	 ecx, DWORD PTR [ecx]
  0000a	89 08		 mov	 DWORD PTR [eax], ecx
  0000c	8b 4d 0c	 mov	 ecx, DWORD PTR __Val2$[ebp]
  0000f	8b 09		 mov	 ecx, DWORD PTR [ecx]
  00011	89 48 04	 mov	 DWORD PTR [eax+4], ecx

; 248  : 		}

  00014	5d		 pop	 ebp
  00015	c2 08 00	 ret	 8
??$?0AAPAUInvenBlockItem@ioUserBlockStorage@@AAPAU01@@?$pair@PAUInvenBlockItem@ioUserBlockStorage@@PAU12@@std@@QAE@AAPAUInvenBlockItem@ioUserBlockStorage@@0@Z ENDP ; std::pair<ioUserBlockStorage::InvenBlockItem *,ioUserBlockStorage::InvenBlockItem *>::pair<ioUserBlockStorage::InvenBlockItem *,ioUserBlockStorage::InvenBlockItem *><ioUserBlockStorage::InvenBlockItem * &,ioUserBlockStorage::InvenBlockItem * &>
_TEXT	ENDS
PUBLIC	??$_Destroy@UInvenBlockItem@ioUserBlockStorage@@@std@@YAXPAUInvenBlockItem@ioUserBlockStorage@@@Z ; std::_Destroy<ioUserBlockStorage::InvenBlockItem>
; Function compile flags: /Ogsp
; File c:\program files (x86)\microsoft visual studio 10.0\vc\include\xmemory
;	COMDAT ??$_Destroy@UInvenBlockItem@ioUserBlockStorage@@@std@@YAXPAUInvenBlockItem@ioUserBlockStorage@@@Z
_TEXT	SEGMENT
__Ptr$ = 8						; size = 4
??$_Destroy@UInvenBlockItem@ioUserBlockStorage@@@std@@YAXPAUInvenBlockItem@ioUserBlockStorage@@@Z PROC ; std::_Destroy<ioUserBlockStorage::InvenBlockItem>, COMDAT

; 62   : 	{	// destroy object at _Ptr

  00000	55		 push	 ebp
  00001	8b ec		 mov	 ebp, esp

; 63   : 	_Ptr->~_Ty();

  00003	8b 4d 08	 mov	 ecx, DWORD PTR __Ptr$[ebp]

; 64   : 	}

  00006	5d		 pop	 ebp

; 63   : 	_Ptr->~_Ty();

  00007	e9 00 00 00 00	 jmp	 ??1InvenBlockItem@ioUserBlockStorage@@QAE@XZ
??$_Destroy@UInvenBlockItem@ioUserBlockStorage@@@std@@YAXPAUInvenBlockItem@ioUserBlockStorage@@@Z ENDP ; std::_Destroy<ioUserBlockStorage::InvenBlockItem>
_TEXT	ENDS
PUBLIC	?construct@?$allocator@VioBlockDBItem@@@std@@QAEXPAVioBlockDBItem@@$$QAV3@@Z ; std::allocator<ioBlockDBItem>::construct
; Function compile flags: /Ogsp
;	COMDAT ?construct@?$allocator@VioBlockDBItem@@@std@@QAEXPAVioBlockDBItem@@$$QAV3@@Z
_TEXT	SEGMENT
__Ptr$ = 8						; size = 4
__Val$ = 12						; size = 4
?construct@?$allocator@VioBlockDBItem@@@std@@QAEXPAVioBlockDBItem@@$$QAV3@@Z PROC ; std::allocator<ioBlockDBItem>::construct, COMDAT
; _this$ = ecx

; 201  : 		{	// construct object at _Ptr with value _Val

  00000	55		 push	 ebp
  00001	8b ec		 mov	 ebp, esp

; 202  : 		::new ((void _FARQ *)_Ptr) _Ty(_STD forward<_Ty>(_Val));

  00003	8b 4d 08	 mov	 ecx, DWORD PTR __Ptr$[ebp]
  00006	85 c9		 test	 ecx, ecx
  00008	74 08		 je	 SHORT $LN3@construct@3
  0000a	ff 75 0c	 push	 DWORD PTR __Val$[ebp]
  0000d	e8 00 00 00 00	 call	 ??0ioBlockDBItem@@QAE@ABV0@@Z
$LN3@construct@3:

; 203  : 		}

  00012	5d		 pop	 ebp
  00013	c2 08 00	 ret	 8
?construct@?$allocator@VioBlockDBItem@@@std@@QAEXPAVioBlockDBItem@@$$QAV3@@Z ENDP ; std::allocator<ioBlockDBItem>::construct
_TEXT	ENDS
PUBLIC	?construct@?$allocator@UInvenBlockItem@ioUserBlockStorage@@@std@@QAEXPAUInvenBlockItem@ioUserBlockStorage@@$$QAU34@@Z ; std::allocator<ioUserBlockStorage::InvenBlockItem>::construct
;	COMDAT xdata$x
; File c:\program files (x86)\microsoft visual studio 10.0\vc\include\utility
xdata$x	SEGMENT
__unwindtable$?construct@?$allocator@UInvenBlockItem@ioUserBlockStorage@@@std@@QAEXPAUInvenBlockItem@ioUserBlockStorage@@$$QAU34@@Z DD 0ffffffffH
	DD	FLAT:__unwindfunclet$?construct@?$allocator@UInvenBlockItem@ioUserBlockStorage@@@std@@QAEXPAUInvenBlockItem@ioUserBlockStorage@@$$QAU34@@Z$0
__ehfuncinfo$?construct@?$allocator@UInvenBlockItem@ioUserBlockStorage@@@std@@QAEXPAUInvenBlockItem@ioUserBlockStorage@@$$QAU34@@Z DD 019930522H
	DD	01H
	DD	FLAT:__unwindtable$?construct@?$allocator@UInvenBlockItem@ioUserBlockStorage@@@std@@QAEXPAUInvenBlockItem@ioUserBlockStorage@@$$QAU34@@Z
	DD	2 DUP(00H)
	DD	2 DUP(00H)
	DD	00H
	DD	01H
; Function compile flags: /Ogsp
; File c:\program files (x86)\microsoft visual studio 10.0\vc\include\xmemory
xdata$x	ENDS
;	COMDAT ?construct@?$allocator@UInvenBlockItem@ioUserBlockStorage@@@std@@QAEXPAUInvenBlockItem@ioUserBlockStorage@@$$QAU34@@Z
_TEXT	SEGMENT
$T512313 = -16						; size = 4
__$EHRec$ = -12						; size = 12
__Ptr$ = 8						; size = 4
__Val$ = 12						; size = 4
?construct@?$allocator@UInvenBlockItem@ioUserBlockStorage@@@std@@QAEXPAUInvenBlockItem@ioUserBlockStorage@@$$QAU34@@Z PROC ; std::allocator<ioUserBlockStorage::InvenBlockItem>::construct, COMDAT
; _this$ = ecx

; 201  : 		{	// construct object at _Ptr with value _Val

  00000	6a 04		 push	 4
  00002	b8 00 00 00 00	 mov	 eax, __ehhandler$?construct@?$allocator@UInvenBlockItem@ioUserBlockStorage@@@std@@QAEXPAUInvenBlockItem@ioUserBlockStorage@@$$QAU34@@Z
  00007	e8 00 00 00 00	 call	 __EH_prolog3

; 202  : 		::new ((void _FARQ *)_Ptr) _Ty(_STD forward<_Ty>(_Val));

  0000c	8b 4d 08	 mov	 ecx, DWORD PTR __Ptr$[ebp]
  0000f	89 4d f0	 mov	 DWORD PTR $T512313[ebp], ecx
  00012	83 65 fc 00	 and	 DWORD PTR __$EHRec$[ebp+8], 0
  00016	85 c9		 test	 ecx, ecx
  00018	74 08		 je	 SHORT $LN3@construct@4
  0001a	ff 75 0c	 push	 DWORD PTR __Val$[ebp]
  0001d	e8 00 00 00 00	 call	 ??0InvenBlockItem@ioUserBlockStorage@@QAE@ABU01@@Z
$LN3@construct@4:

; 203  : 		}

  00022	e8 00 00 00 00	 call	 __EH_epilog3
  00027	c2 08 00	 ret	 8
_TEXT	ENDS
;	COMDAT text$x
text$x	SEGMENT
__unwindfunclet$?construct@?$allocator@UInvenBlockItem@ioUserBlockStorage@@@std@@QAEXPAUInvenBlockItem@ioUserBlockStorage@@$$QAU34@@Z$0:
  00000	ff 75 08	 push	 DWORD PTR __Ptr$[ebp]
  00003	ff 75 f0	 push	 DWORD PTR $T512313[ebp]
  00006	e8 00 00 00 00	 call	 ??3@YAXPAX0@Z		; operator delete
  0000b	59		 pop	 ecx
  0000c	59		 pop	 ecx
  0000d	c3		 ret	 0
__ehhandler$?construct@?$allocator@UInvenBlockItem@ioUserBlockStorage@@@std@@QAEXPAUInvenBlockItem@ioUserBlockStorage@@$$QAU34@@Z:
  0000e	8b 54 24 08	 mov	 edx, DWORD PTR [esp+8]
  00012	8d 42 0c	 lea	 eax, DWORD PTR [edx+12]
  00015	8b 4a ec	 mov	 ecx, DWORD PTR [edx-20]
  00018	33 c8		 xor	 ecx, eax
  0001a	e8 00 00 00 00	 call	 @__security_check_cookie@4
  0001f	b8 00 00 00 00	 mov	 eax, OFFSET __ehfuncinfo$?construct@?$allocator@UInvenBlockItem@ioUserBlockStorage@@@std@@QAEXPAUInvenBlockItem@ioUserBlockStorage@@$$QAU34@@Z
  00024	e9 00 00 00 00	 jmp	 ___CxxFrameHandler3
text$x	ENDS
?construct@?$allocator@UInvenBlockItem@ioUserBlockStorage@@@std@@QAEXPAUInvenBlockItem@ioUserBlockStorage@@$$QAU34@@Z ENDP ; std::allocator<ioUserBlockStorage::InvenBlockItem>::construct
PUBLIC	??$swap@UInvenBlockItem@ioUserBlockStorage@@@std@@YAXAAUInvenBlockItem@ioUserBlockStorage@@0@Z ; std::swap<ioUserBlockStorage::InvenBlockItem>
;	COMDAT xdata$x
; File c:\program files (x86)\microsoft visual studio 10.0\vc\include\utility
xdata$x	SEGMENT
__unwindtable$??$swap@UInvenBlockItem@ioUserBlockStorage@@@std@@YAXAAUInvenBlockItem@ioUserBlockStorage@@0@Z DD 0ffffffffH
	DD	FLAT:__unwindfunclet$??$swap@UInvenBlockItem@ioUserBlockStorage@@@std@@YAXAAUInvenBlockItem@ioUserBlockStorage@@0@Z$0
__ehfuncinfo$??$swap@UInvenBlockItem@ioUserBlockStorage@@@std@@YAXAAUInvenBlockItem@ioUserBlockStorage@@0@Z DD 019930522H
	DD	01H
	DD	FLAT:__unwindtable$??$swap@UInvenBlockItem@ioUserBlockStorage@@@std@@YAXAAUInvenBlockItem@ioUserBlockStorage@@0@Z
	DD	2 DUP(00H)
	DD	2 DUP(00H)
	DD	00H
	DD	01H
; Function compile flags: /Ogsp
xdata$x	ENDS
;	COMDAT ??$swap@UInvenBlockItem@ioUserBlockStorage@@@std@@YAXAAUInvenBlockItem@ioUserBlockStorage@@0@Z
_TEXT	SEGMENT
__Tmp$ = -68						; size = 56
__$EHRec$ = -12						; size = 12
__Left$ = 8						; size = 4
__Right$ = 12						; size = 4
??$swap@UInvenBlockItem@ioUserBlockStorage@@@std@@YAXAAUInvenBlockItem@ioUserBlockStorage@@0@Z PROC ; std::swap<ioUserBlockStorage::InvenBlockItem>, COMDAT

; 101  : 	{	// exchange values stored at _Left and _Right

  00000	6a 38		 push	 56			; 00000038H
  00002	b8 00 00 00 00	 mov	 eax, __ehhandler$??$swap@UInvenBlockItem@ioUserBlockStorage@@@std@@YAXAAUInvenBlockItem@ioUserBlockStorage@@0@Z
  00007	e8 00 00 00 00	 call	 __EH_prolog3

; 102  : 	_Ty _Tmp = _Move(_Left);

  0000c	ff 75 08	 push	 DWORD PTR __Left$[ebp]
  0000f	8d 4d bc	 lea	 ecx, DWORD PTR __Tmp$[ebp]
  00012	e8 00 00 00 00	 call	 ??0InvenBlockItem@ioUserBlockStorage@@QAE@ABU01@@Z

; 103  : 	_Left = _Move(_Right);

  00017	ff 75 0c	 push	 DWORD PTR __Right$[ebp]
  0001a	8b 4d 08	 mov	 ecx, DWORD PTR __Left$[ebp]
  0001d	83 65 fc 00	 and	 DWORD PTR __$EHRec$[ebp+8], 0
  00021	e8 00 00 00 00	 call	 ??4InvenBlockItem@ioUserBlockStorage@@QAEAAU01@ABU01@@Z

; 104  : 	_Right = _Move(_Tmp);

  00026	8b 4d 0c	 mov	 ecx, DWORD PTR __Right$[ebp]
  00029	8d 45 bc	 lea	 eax, DWORD PTR __Tmp$[ebp]
  0002c	50		 push	 eax
  0002d	e8 00 00 00 00	 call	 ??4InvenBlockItem@ioUserBlockStorage@@QAEAAU01@ABU01@@Z

; 105  : 	}

  00032	83 4d fc ff	 or	 DWORD PTR __$EHRec$[ebp+8], -1
  00036	8d 4d bc	 lea	 ecx, DWORD PTR __Tmp$[ebp]
  00039	e8 00 00 00 00	 call	 ??1InvenBlockItem@ioUserBlockStorage@@QAE@XZ
  0003e	e8 00 00 00 00	 call	 __EH_epilog3
  00043	c3		 ret	 0
_TEXT	ENDS
;	COMDAT text$x
text$x	SEGMENT
__unwindfunclet$??$swap@UInvenBlockItem@ioUserBlockStorage@@@std@@YAXAAUInvenBlockItem@ioUserBlockStorage@@0@Z$0:
  00000	8d 4d bc	 lea	 ecx, DWORD PTR __Tmp$[ebp]
  00003	e9 00 00 00 00	 jmp	 ??1InvenBlockItem@ioUserBlockStorage@@QAE@XZ
__ehhandler$??$swap@UInvenBlockItem@ioUserBlockStorage@@@std@@YAXAAUInvenBlockItem@ioUserBlockStorage@@0@Z:
  00008	8b 54 24 08	 mov	 edx, DWORD PTR [esp+8]
  0000c	8d 42 0c	 lea	 eax, DWORD PTR [edx+12]
  0000f	8b 4a b8	 mov	 ecx, DWORD PTR [edx-72]
  00012	33 c8		 xor	 ecx, eax
  00014	e8 00 00 00 00	 call	 @__security_check_cookie@4
  00019	b8 00 00 00 00	 mov	 eax, OFFSET __ehfuncinfo$??$swap@UInvenBlockItem@ioUserBlockStorage@@@std@@YAXAAUInvenBlockItem@ioUserBlockStorage@@0@Z
  0001e	e9 00 00 00 00	 jmp	 ___CxxFrameHandler3
text$x	ENDS
??$swap@UInvenBlockItem@ioUserBlockStorage@@@std@@YAXAAUInvenBlockItem@ioUserBlockStorage@@0@Z ENDP ; std::swap<ioUserBlockStorage::InvenBlockItem>
PUBLIC	??$_Adjust_heap@PAUInvenBlockItem@ioUserBlockStorage@@HU12@VInvenBlockItemSort@2@@std@@YAXPAUInvenBlockItem@ioUserBlockStorage@@HH$$QAU12@VInvenBlockItemSort@2@@Z ; std::_Adjust_heap<ioUserBlockStorage::InvenBlockItem *,int,ioUserBlockStorage::InvenBlockItem,ioUserBlockStorage::InvenBlockItemSort>
; Function compile flags: /Ogsp
; File c:\program files (x86)\microsoft visual studio 10.0\vc\include\algorithm
;	COMDAT ??$_Adjust_heap@PAUInvenBlockItem@ioUserBlockStorage@@HU12@VInvenBlockItemSort@2@@std@@YAXPAUInvenBlockItem@ioUserBlockStorage@@HH$$QAU12@VInvenBlockItemSort@2@@Z
_TEXT	SEGMENT
__First$ = 8						; size = 4
__Top$ = 12						; size = 4
__Hole$ = 12						; size = 4
__Bottom$ = 16						; size = 4
__Val$ = 20						; size = 4
__Pred$ = 24						; size = 1
??$_Adjust_heap@PAUInvenBlockItem@ioUserBlockStorage@@HU12@VInvenBlockItemSort@2@@std@@YAXPAUInvenBlockItem@ioUserBlockStorage@@HH$$QAU12@VInvenBlockItemSort@2@@Z PROC ; std::_Adjust_heap<ioUserBlockStorage::InvenBlockItem *,int,ioUserBlockStorage::InvenBlockItem,ioUserBlockStorage::InvenBlockItemSort>, COMDAT

; 2565 : 	{	// percolate _Hole to _Bottom, then push _Val, using _Pred

  00000	55		 push	 ebp
  00001	8b ec		 mov	 ebp, esp

; 2566 : 	_Diff _Top = _Hole;

  00003	8b 4d 0c	 mov	 ecx, DWORD PTR __Hole$[ebp]
  00006	53		 push	 ebx

; 2567 : 	_Diff _Idx = 2 * _Hole + 2;
; 2568 : 
; 2569 : 	for (; _Idx < _Bottom; _Idx = 2 * _Idx + 2)

  00007	8b 5d 10	 mov	 ebx, DWORD PTR __Bottom$[ebp]
  0000a	56		 push	 esi
  0000b	57		 push	 edi
  0000c	8b 7d 08	 mov	 edi, DWORD PTR __First$[ebp]
  0000f	89 4d 0c	 mov	 DWORD PTR __Top$[ebp], ecx
  00012	8d 74 09 02	 lea	 esi, DWORD PTR [ecx+ecx+2]
  00016	eb 28		 jmp	 SHORT $LN20@Adjust_hea
$LL5@Adjust_hea:

; 2570 : 		{	// move _Hole down to larger child
; 2571 : 		if (_DEBUG_LT_PRED(_Pred, *(_First + _Idx), *(_First + (_Idx - 1))))

  00018	8b c6		 mov	 eax, esi
  0001a	6b c0 38	 imul	 eax, 56			; 00000038H
  0001d	8b 54 38 24	 mov	 edx, DWORD PTR [eax+edi+36]
  00021	3b 54 38 ec	 cmp	 edx, DWORD PTR [eax+edi-20]
  00025	7d 01		 jge	 SHORT $LN2@Adjust_hea

; 2572 : 			--_Idx;

  00027	4e		 dec	 esi
$LN2@Adjust_hea:

; 2573 : 		*(_First + _Hole) = _Move(*(_First + _Idx));

  00028	8b c6		 mov	 eax, esi
  0002a	6b c9 38	 imul	 ecx, 56			; 00000038H
  0002d	6b c0 38	 imul	 eax, 56			; 00000038H
  00030	03 c7		 add	 eax, edi
  00032	50		 push	 eax
  00033	03 cf		 add	 ecx, edi
  00035	e8 00 00 00 00	 call	 ??4InvenBlockItem@ioUserBlockStorage@@QAEAAU01@ABU01@@Z

; 2574 : 		_Hole = _Idx;

  0003a	8b ce		 mov	 ecx, esi
  0003c	8d 74 36 02	 lea	 esi, DWORD PTR [esi+esi+2]
$LN20@Adjust_hea:

; 2567 : 	_Diff _Idx = 2 * _Hole + 2;
; 2568 : 
; 2569 : 	for (; _Idx < _Bottom; _Idx = 2 * _Idx + 2)

  00040	3b f3		 cmp	 esi, ebx
  00042	7c d4		 jl	 SHORT $LL5@Adjust_hea

; 2575 : 		}
; 2576 : 
; 2577 : 	if (_Idx == _Bottom)

  00044	75 17		 jne	 SHORT $LN1@Adjust_hea

; 2578 : 		{	// only child at bottom, move _Hole down to it
; 2579 : 		*(_First + _Hole) = _Move(*(_First + (_Bottom - 1)));

  00046	8b c3		 mov	 eax, ebx
  00048	6b c9 38	 imul	 ecx, 56			; 00000038H
  0004b	6b c0 38	 imul	 eax, 56			; 00000038H
  0004e	8d 44 38 c8	 lea	 eax, DWORD PTR [eax+edi-56]
  00052	50		 push	 eax
  00053	03 cf		 add	 ecx, edi
  00055	e8 00 00 00 00	 call	 ??4InvenBlockItem@ioUserBlockStorage@@QAEAAU01@ABU01@@Z

; 2580 : 		_Hole = _Bottom - 1;

  0005a	8d 4b ff	 lea	 ecx, DWORD PTR [ebx-1]
$LN1@Adjust_hea:

; 2581 : 		}
; 2582 : 	_Push_heap(_First, _Hole, _Top, _Move(_Val), _Pred);

  0005d	ff 75 18	 push	 DWORD PTR __Pred$[ebp]
  00060	ff 75 14	 push	 DWORD PTR __Val$[ebp]
  00063	ff 75 0c	 push	 DWORD PTR __Top$[ebp]
  00066	51		 push	 ecx
  00067	57		 push	 edi
  00068	e8 00 00 00 00	 call	 ??$_Push_heap@PAUInvenBlockItem@ioUserBlockStorage@@HU12@VInvenBlockItemSort@2@@std@@YAXPAUInvenBlockItem@ioUserBlockStorage@@HH$$QAU12@VInvenBlockItemSort@2@@Z ; std::_Push_heap<ioUserBlockStorage::InvenBlockItem *,int,ioUserBlockStorage::InvenBlockItem,ioUserBlockStorage::InvenBlockItemSort>
  0006d	83 c4 14	 add	 esp, 20			; 00000014H
  00070	5f		 pop	 edi
  00071	5e		 pop	 esi
  00072	5b		 pop	 ebx

; 2583 : 	}

  00073	5d		 pop	 ebp
  00074	c3		 ret	 0
??$_Adjust_heap@PAUInvenBlockItem@ioUserBlockStorage@@HU12@VInvenBlockItemSort@2@@std@@YAXPAUInvenBlockItem@ioUserBlockStorage@@HH$$QAU12@VInvenBlockItemSort@2@@Z ENDP ; std::_Adjust_heap<ioUserBlockStorage::InvenBlockItem *,int,ioUserBlockStorage::InvenBlockItem,ioUserBlockStorage::InvenBlockItemSort>
_TEXT	ENDS
PUBLIC	??$_Move_backward@PAUInvenBlockItem@ioUserBlockStorage@@PAU12@@std@@YAPAUInvenBlockItem@ioUserBlockStorage@@PAU12@00@Z ; std::_Move_backward<ioUserBlockStorage::InvenBlockItem *,ioUserBlockStorage::InvenBlockItem *>
; Function compile flags: /Ogsp
; File c:\program files (x86)\microsoft visual studio 10.0\vc\include\xutility
;	COMDAT ??$_Move_backward@PAUInvenBlockItem@ioUserBlockStorage@@PAU12@@std@@YAPAUInvenBlockItem@ioUserBlockStorage@@PAU12@00@Z
_TEXT	SEGMENT
__Cat$512373 = -4					; size = 1
__First$ = 8						; size = 4
__Last$ = 12						; size = 4
__Dest$ = 16						; size = 4
??$_Move_backward@PAUInvenBlockItem@ioUserBlockStorage@@PAU12@@std@@YAPAUInvenBlockItem@ioUserBlockStorage@@PAU12@00@Z PROC ; std::_Move_backward<ioUserBlockStorage::InvenBlockItem *,ioUserBlockStorage::InvenBlockItem *>, COMDAT

; 2638 : 	{	// move [_First, _Last) backwards to [..., _Dest), unchecked

  00000	55		 push	 ebp
  00001	8b ec		 mov	 ebp, esp
  00003	51		 push	 ecx

; 2639 : 	return (_Move_backward(_First, _Last,
; 2640 : 		_Dest, _Ptr_cat(_First, _Dest)));

  00004	ff 75 fc	 push	 DWORD PTR __Cat$512373[ebp]
  00007	ff 75 10	 push	 DWORD PTR __Dest$[ebp]
  0000a	ff 75 0c	 push	 DWORD PTR __Last$[ebp]
  0000d	ff 75 08	 push	 DWORD PTR __First$[ebp]
  00010	e8 00 00 00 00	 call	 ??$_Move_backward@PAUInvenBlockItem@ioUserBlockStorage@@PAU12@@std@@YAPAUInvenBlockItem@ioUserBlockStorage@@PAU12@00U_Nonscalar_ptr_iterator_tag@0@@Z ; std::_Move_backward<ioUserBlockStorage::InvenBlockItem *,ioUserBlockStorage::InvenBlockItem *>
  00015	83 c4 10	 add	 esp, 16			; 00000010H

; 2641 : 	}

  00018	c9		 leave
  00019	c3		 ret	 0
??$_Move_backward@PAUInvenBlockItem@ioUserBlockStorage@@PAU12@@std@@YAPAUInvenBlockItem@ioUserBlockStorage@@PAU12@00@Z ENDP ; std::_Move_backward<ioUserBlockStorage::InvenBlockItem *,ioUserBlockStorage::InvenBlockItem *>
_TEXT	ENDS
PUBLIC	??$_Pop_heap@PAUInvenBlockItem@ioUserBlockStorage@@HU12@VInvenBlockItemSort@2@@std@@YAXPAUInvenBlockItem@ioUserBlockStorage@@00$$QAU12@VInvenBlockItemSort@2@PAH@Z ; std::_Pop_heap<ioUserBlockStorage::InvenBlockItem *,int,ioUserBlockStorage::InvenBlockItem,ioUserBlockStorage::InvenBlockItemSort>
; Function compile flags: /Ogsp
; File c:\program files (x86)\microsoft visual studio 10.0\vc\include\algorithm
;	COMDAT ??$_Pop_heap@PAUInvenBlockItem@ioUserBlockStorage@@HU12@VInvenBlockItemSort@2@@std@@YAXPAUInvenBlockItem@ioUserBlockStorage@@00$$QAU12@VInvenBlockItemSort@2@PAH@Z
_TEXT	SEGMENT
__First$ = 8						; size = 4
__Last$ = 12						; size = 4
__Dest$ = 16						; size = 4
__Val$ = 20						; size = 4
__Pred$ = 24						; size = 1
___formal$ = 28						; size = 4
??$_Pop_heap@PAUInvenBlockItem@ioUserBlockStorage@@HU12@VInvenBlockItemSort@2@@std@@YAXPAUInvenBlockItem@ioUserBlockStorage@@00$$QAU12@VInvenBlockItemSort@2@PAH@Z PROC ; std::_Pop_heap<ioUserBlockStorage::InvenBlockItem *,int,ioUserBlockStorage::InvenBlockItem,ioUserBlockStorage::InvenBlockItemSort>, COMDAT

; 2591 : 	{	// pop *_First to *_Dest and reheap, using _Pred

  00000	55		 push	 ebp
  00001	8b ec		 mov	 ebp, esp

; 2592 : 	*_Dest = _Move(*_First);

  00003	ff 75 08	 push	 DWORD PTR __First$[ebp]
  00006	8b 4d 10	 mov	 ecx, DWORD PTR __Dest$[ebp]
  00009	e8 00 00 00 00	 call	 ??4InvenBlockItem@ioUserBlockStorage@@QAEAAU01@ABU01@@Z

; 2593 : 	_Adjust_heap(_First, _Diff(0), _Diff(_Last - _First),
; 2594 : 		_Move(_Val), _Pred);

  0000e	ff 75 18	 push	 DWORD PTR __Pred$[ebp]
  00011	8b 45 0c	 mov	 eax, DWORD PTR __Last$[ebp]
  00014	ff 75 14	 push	 DWORD PTR __Val$[ebp]
  00017	2b 45 08	 sub	 eax, DWORD PTR __First$[ebp]
  0001a	6a 38		 push	 56			; 00000038H
  0001c	59		 pop	 ecx
  0001d	99		 cdq
  0001e	f7 f9		 idiv	 ecx
  00020	50		 push	 eax
  00021	6a 00		 push	 0
  00023	ff 75 08	 push	 DWORD PTR __First$[ebp]
  00026	e8 00 00 00 00	 call	 ??$_Adjust_heap@PAUInvenBlockItem@ioUserBlockStorage@@HU12@VInvenBlockItemSort@2@@std@@YAXPAUInvenBlockItem@ioUserBlockStorage@@HH$$QAU12@VInvenBlockItemSort@2@@Z ; std::_Adjust_heap<ioUserBlockStorage::InvenBlockItem *,int,ioUserBlockStorage::InvenBlockItem,ioUserBlockStorage::InvenBlockItemSort>
  0002b	83 c4 14	 add	 esp, 20			; 00000014H

; 2595 : 	}

  0002e	5d		 pop	 ebp
  0002f	c3		 ret	 0
??$_Pop_heap@PAUInvenBlockItem@ioUserBlockStorage@@HU12@VInvenBlockItemSort@2@@std@@YAXPAUInvenBlockItem@ioUserBlockStorage@@00$$QAU12@VInvenBlockItemSort@2@PAH@Z ENDP ; std::_Pop_heap<ioUserBlockStorage::InvenBlockItem *,int,ioUserBlockStorage::InvenBlockItem,ioUserBlockStorage::InvenBlockItemSort>
_TEXT	ENDS
PUBLIC	??0?$vector@VioBlockDBItem@@V?$allocator@VioBlockDBItem@@@std@@@std@@QAE@XZ ; std::vector<ioBlockDBItem,std::allocator<ioBlockDBItem> >::vector<ioBlockDBItem,std::allocator<ioBlockDBItem> >
; Function compile flags: /Ogsp
; File c:\program files (x86)\microsoft visual studio 10.0\vc\include\vector
;	COMDAT ??0?$vector@VioBlockDBItem@@V?$allocator@VioBlockDBItem@@@std@@@std@@QAE@XZ
_TEXT	SEGMENT
??0?$vector@VioBlockDBItem@@V?$allocator@VioBlockDBItem@@@std@@@std@@QAE@XZ PROC ; std::vector<ioBlockDBItem,std::allocator<ioBlockDBItem> >::vector<ioBlockDBItem,std::allocator<ioBlockDBItem> >, COMDAT
; _this$ = ecx

; 507  : 		{	// construct empty vector

  00000	8b c1		 mov	 eax, ecx
  00002	33 c9		 xor	 ecx, ecx
  00004	89 08		 mov	 DWORD PTR [eax], ecx
  00006	89 48 04	 mov	 DWORD PTR [eax+4], ecx
  00009	89 48 08	 mov	 DWORD PTR [eax+8], ecx

; 508  : 		}

  0000c	c3		 ret	 0
??0?$vector@VioBlockDBItem@@V?$allocator@VioBlockDBItem@@@std@@@std@@QAE@XZ ENDP ; std::vector<ioBlockDBItem,std::allocator<ioBlockDBItem> >::vector<ioBlockDBItem,std::allocator<ioBlockDBItem> >
_TEXT	ENDS
PUBLIC	??0?$vector@UInvenBlockItem@ioUserBlockStorage@@V?$allocator@UInvenBlockItem@ioUserBlockStorage@@@std@@@std@@QAE@XZ ; std::vector<ioUserBlockStorage::InvenBlockItem,std::allocator<ioUserBlockStorage::InvenBlockItem> >::vector<ioUserBlockStorage::InvenBlockItem,std::allocator<ioUserBlockStorage::InvenBlockItem> >
; Function compile flags: /Ogsp
;	COMDAT ??0?$vector@UInvenBlockItem@ioUserBlockStorage@@V?$allocator@UInvenBlockItem@ioUserBlockStorage@@@std@@@std@@QAE@XZ
_TEXT	SEGMENT
??0?$vector@UInvenBlockItem@ioUserBlockStorage@@V?$allocator@UInvenBlockItem@ioUserBlockStorage@@@std@@@std@@QAE@XZ PROC ; std::vector<ioUserBlockStorage::InvenBlockItem,std::allocator<ioUserBlockStorage::InvenBlockItem> >::vector<ioUserBlockStorage::InvenBlockItem,std::allocator<ioUserBlockStorage::InvenBlockItem> >, COMDAT
; _this$ = ecx

; 507  : 		{	// construct empty vector

  00000	8b c1		 mov	 eax, ecx
  00002	33 c9		 xor	 ecx, ecx
  00004	89 08		 mov	 DWORD PTR [eax], ecx
  00006	89 48 04	 mov	 DWORD PTR [eax+4], ecx
  00009	89 48 08	 mov	 DWORD PTR [eax+8], ecx

; 508  : 		}

  0000c	c3		 ret	 0
??0?$vector@UInvenBlockItem@ioUserBlockStorage@@V?$allocator@UInvenBlockItem@ioUserBlockStorage@@@std@@@std@@QAE@XZ ENDP ; std::vector<ioUserBlockStorage::InvenBlockItem,std::allocator<ioUserBlockStorage::InvenBlockItem> >::vector<ioUserBlockStorage::InvenBlockItem,std::allocator<ioUserBlockStorage::InvenBlockItem> >
_TEXT	ENDS
PUBLIC	?begin@?$vector@UInvenBlockItem@ioUserBlockStorage@@V?$allocator@UInvenBlockItem@ioUserBlockStorage@@@std@@@std@@QAE?AV?$_Vector_iterator@V?$_Vector_val@UInvenBlockItem@ioUserBlockStorage@@V?$allocator@UInvenBlockItem@ioUserBlockStorage@@@std@@@std@@@2@XZ ; std::vector<ioUserBlockStorage::InvenBlockItem,std::allocator<ioUserBlockStorage::InvenBlockItem> >::begin
; Function compile flags: /Ogsp
;	COMDAT ?begin@?$vector@UInvenBlockItem@ioUserBlockStorage@@V?$allocator@UInvenBlockItem@ioUserBlockStorage@@@std@@@std@@QAE?AV?$_Vector_iterator@V?$_Vector_val@UInvenBlockItem@ioUserBlockStorage@@V?$allocator@UInvenBlockItem@ioUserBlockStorage@@@std@@@std@@@2@XZ
_TEXT	SEGMENT
___$ReturnUdt$ = 8					; size = 4
?begin@?$vector@UInvenBlockItem@ioUserBlockStorage@@V?$allocator@UInvenBlockItem@ioUserBlockStorage@@@std@@@std@@QAE?AV?$_Vector_iterator@V?$_Vector_val@UInvenBlockItem@ioUserBlockStorage@@V?$allocator@UInvenBlockItem@ioUserBlockStorage@@@std@@@std@@@2@XZ PROC ; std::vector<ioUserBlockStorage::InvenBlockItem,std::allocator<ioUserBlockStorage::InvenBlockItem> >::begin, COMDAT
; _this$ = ecx

; 781  : 		{	// return iterator for beginning of mutable sequence

  00000	55		 push	 ebp
  00001	8b ec		 mov	 ebp, esp

; 782  : 		return (iterator(this->_Myfirst, this));

  00003	8b 09		 mov	 ecx, DWORD PTR [ecx]
  00005	8b 45 08	 mov	 eax, DWORD PTR ___$ReturnUdt$[ebp]
  00008	89 08		 mov	 DWORD PTR [eax], ecx

; 783  : 		}

  0000a	5d		 pop	 ebp
  0000b	c2 04 00	 ret	 4
?begin@?$vector@UInvenBlockItem@ioUserBlockStorage@@V?$allocator@UInvenBlockItem@ioUserBlockStorage@@@std@@@std@@QAE?AV?$_Vector_iterator@V?$_Vector_val@UInvenBlockItem@ioUserBlockStorage@@V?$allocator@UInvenBlockItem@ioUserBlockStorage@@@std@@@std@@@2@XZ ENDP ; std::vector<ioUserBlockStorage::InvenBlockItem,std::allocator<ioUserBlockStorage::InvenBlockItem> >::begin
_TEXT	ENDS
PUBLIC	?end@?$vector@UInvenBlockItem@ioUserBlockStorage@@V?$allocator@UInvenBlockItem@ioUserBlockStorage@@@std@@@std@@QAE?AV?$_Vector_iterator@V?$_Vector_val@UInvenBlockItem@ioUserBlockStorage@@V?$allocator@UInvenBlockItem@ioUserBlockStorage@@@std@@@std@@@2@XZ ; std::vector<ioUserBlockStorage::InvenBlockItem,std::allocator<ioUserBlockStorage::InvenBlockItem> >::end
; Function compile flags: /Ogsp
;	COMDAT ?end@?$vector@UInvenBlockItem@ioUserBlockStorage@@V?$allocator@UInvenBlockItem@ioUserBlockStorage@@@std@@@std@@QAE?AV?$_Vector_iterator@V?$_Vector_val@UInvenBlockItem@ioUserBlockStorage@@V?$allocator@UInvenBlockItem@ioUserBlockStorage@@@std@@@std@@@2@XZ
_TEXT	SEGMENT
___$ReturnUdt$ = 8					; size = 4
?end@?$vector@UInvenBlockItem@ioUserBlockStorage@@V?$allocator@UInvenBlockItem@ioUserBlockStorage@@@std@@@std@@QAE?AV?$_Vector_iterator@V?$_Vector_val@UInvenBlockItem@ioUserBlockStorage@@V?$allocator@UInvenBlockItem@ioUserBlockStorage@@@std@@@std@@@2@XZ PROC ; std::vector<ioUserBlockStorage::InvenBlockItem,std::allocator<ioUserBlockStorage::InvenBlockItem> >::end, COMDAT
; _this$ = ecx

; 791  : 		{	// return iterator for end of mutable sequence

  00000	55		 push	 ebp
  00001	8b ec		 mov	 ebp, esp

; 792  : 		return (iterator(this->_Mylast, this));

  00003	8b 49 04	 mov	 ecx, DWORD PTR [ecx+4]
  00006	8b 45 08	 mov	 eax, DWORD PTR ___$ReturnUdt$[ebp]
  00009	89 08		 mov	 DWORD PTR [eax], ecx

; 793  : 		}

  0000b	5d		 pop	 ebp
  0000c	c2 04 00	 ret	 4
?end@?$vector@UInvenBlockItem@ioUserBlockStorage@@V?$allocator@UInvenBlockItem@ioUserBlockStorage@@@std@@@std@@QAE?AV?$_Vector_iterator@V?$_Vector_val@UInvenBlockItem@ioUserBlockStorage@@V?$allocator@UInvenBlockItem@ioUserBlockStorage@@@std@@@std@@@2@XZ ENDP ; std::vector<ioUserBlockStorage::InvenBlockItem,std::allocator<ioUserBlockStorage::InvenBlockItem> >::end
_TEXT	ENDS
PUBLIC	??9?$_Vector_const_iterator@V?$_Vector_val@UInvenBlockItem@ioUserBlockStorage@@V?$allocator@UInvenBlockItem@ioUserBlockStorage@@@std@@@std@@@std@@QBE_NABV01@@Z ; std::_Vector_const_iterator<std::_Vector_val<ioUserBlockStorage::InvenBlockItem,std::allocator<ioUserBlockStorage::InvenBlockItem> > >::operator!=
; Function compile flags: /Ogsp
;	COMDAT ??9?$_Vector_const_iterator@V?$_Vector_val@UInvenBlockItem@ioUserBlockStorage@@V?$allocator@UInvenBlockItem@ioUserBlockStorage@@@std@@@std@@@std@@QBE_NABV01@@Z
_TEXT	SEGMENT
__Right$ = 8						; size = 4
??9?$_Vector_const_iterator@V?$_Vector_val@UInvenBlockItem@ioUserBlockStorage@@V?$allocator@UInvenBlockItem@ioUserBlockStorage@@@std@@@std@@@std@@QBE_NABV01@@Z PROC ; std::_Vector_const_iterator<std::_Vector_val<ioUserBlockStorage::InvenBlockItem,std::allocator<ioUserBlockStorage::InvenBlockItem> > >::operator!=, COMDAT
; _this$ = ecx

; 207  : 		{	// test for iterator inequality

  00000	55		 push	 ebp
  00001	8b ec		 mov	 ebp, esp

; 208  : 		return (!(*this == _Right));

  00003	8b 01		 mov	 eax, DWORD PTR [ecx]
  00005	8b 55 08	 mov	 edx, DWORD PTR __Right$[ebp]
  00008	33 c9		 xor	 ecx, ecx
  0000a	3b 02		 cmp	 eax, DWORD PTR [edx]
  0000c	0f 95 c0	 setne	 al

; 209  : 		}

  0000f	5d		 pop	 ebp
  00010	c2 04 00	 ret	 4
??9?$_Vector_const_iterator@V?$_Vector_val@UInvenBlockItem@ioUserBlockStorage@@V?$allocator@UInvenBlockItem@ioUserBlockStorage@@@std@@@std@@@std@@QBE_NABV01@@Z ENDP ; std::_Vector_const_iterator<std::_Vector_val<ioUserBlockStorage::InvenBlockItem,std::allocator<ioUserBlockStorage::InvenBlockItem> > >::operator!=
_TEXT	ENDS
PUBLIC	?begin@?$vector@VioBlockDBItem@@V?$allocator@VioBlockDBItem@@@std@@@std@@QAE?AV?$_Vector_iterator@V?$_Vector_val@VioBlockDBItem@@V?$allocator@VioBlockDBItem@@@std@@@std@@@2@XZ ; std::vector<ioBlockDBItem,std::allocator<ioBlockDBItem> >::begin
; Function compile flags: /Ogsp
;	COMDAT ?begin@?$vector@VioBlockDBItem@@V?$allocator@VioBlockDBItem@@@std@@@std@@QAE?AV?$_Vector_iterator@V?$_Vector_val@VioBlockDBItem@@V?$allocator@VioBlockDBItem@@@std@@@std@@@2@XZ
_TEXT	SEGMENT
___$ReturnUdt$ = 8					; size = 4
?begin@?$vector@VioBlockDBItem@@V?$allocator@VioBlockDBItem@@@std@@@std@@QAE?AV?$_Vector_iterator@V?$_Vector_val@VioBlockDBItem@@V?$allocator@VioBlockDBItem@@@std@@@std@@@2@XZ PROC ; std::vector<ioBlockDBItem,std::allocator<ioBlockDBItem> >::begin, COMDAT
; _this$ = ecx

; 781  : 		{	// return iterator for beginning of mutable sequence

  00000	55		 push	 ebp
  00001	8b ec		 mov	 ebp, esp

; 782  : 		return (iterator(this->_Myfirst, this));

  00003	8b 09		 mov	 ecx, DWORD PTR [ecx]
  00005	8b 45 08	 mov	 eax, DWORD PTR ___$ReturnUdt$[ebp]
  00008	89 08		 mov	 DWORD PTR [eax], ecx

; 783  : 		}

  0000a	5d		 pop	 ebp
  0000b	c2 04 00	 ret	 4
?begin@?$vector@VioBlockDBItem@@V?$allocator@VioBlockDBItem@@@std@@@std@@QAE?AV?$_Vector_iterator@V?$_Vector_val@VioBlockDBItem@@V?$allocator@VioBlockDBItem@@@std@@@std@@@2@XZ ENDP ; std::vector<ioBlockDBItem,std::allocator<ioBlockDBItem> >::begin
_TEXT	ENDS
PUBLIC	?end@?$vector@VioBlockDBItem@@V?$allocator@VioBlockDBItem@@@std@@@std@@QAE?AV?$_Vector_iterator@V?$_Vector_val@VioBlockDBItem@@V?$allocator@VioBlockDBItem@@@std@@@std@@@2@XZ ; std::vector<ioBlockDBItem,std::allocator<ioBlockDBItem> >::end
; Function compile flags: /Ogsp
;	COMDAT ?end@?$vector@VioBlockDBItem@@V?$allocator@VioBlockDBItem@@@std@@@std@@QAE?AV?$_Vector_iterator@V?$_Vector_val@VioBlockDBItem@@V?$allocator@VioBlockDBItem@@@std@@@std@@@2@XZ
_TEXT	SEGMENT
___$ReturnUdt$ = 8					; size = 4
?end@?$vector@VioBlockDBItem@@V?$allocator@VioBlockDBItem@@@std@@@std@@QAE?AV?$_Vector_iterator@V?$_Vector_val@VioBlockDBItem@@V?$allocator@VioBlockDBItem@@@std@@@std@@@2@XZ PROC ; std::vector<ioBlockDBItem,std::allocator<ioBlockDBItem> >::end, COMDAT
; _this$ = ecx

; 791  : 		{	// return iterator for end of mutable sequence

  00000	55		 push	 ebp
  00001	8b ec		 mov	 ebp, esp

; 792  : 		return (iterator(this->_Mylast, this));

  00003	8b 49 04	 mov	 ecx, DWORD PTR [ecx+4]
  00006	8b 45 08	 mov	 eax, DWORD PTR ___$ReturnUdt$[ebp]
  00009	89 08		 mov	 DWORD PTR [eax], ecx

; 793  : 		}

  0000b	5d		 pop	 ebp
  0000c	c2 04 00	 ret	 4
?end@?$vector@VioBlockDBItem@@V?$allocator@VioBlockDBItem@@@std@@@std@@QAE?AV?$_Vector_iterator@V?$_Vector_val@VioBlockDBItem@@V?$allocator@VioBlockDBItem@@@std@@@std@@@2@XZ ENDP ; std::vector<ioBlockDBItem,std::allocator<ioBlockDBItem> >::end
_TEXT	ENDS
PUBLIC	?_Buy@?$vector@UInvenBlockItem@ioUserBlockStorage@@V?$allocator@UInvenBlockItem@ioUserBlockStorage@@@std@@@std@@IAE_NI@Z ; std::vector<ioUserBlockStorage::InvenBlockItem,std::allocator<ioUserBlockStorage::InvenBlockItem> >::_Buy
; Function compile flags: /Ogsp
;	COMDAT ?_Buy@?$vector@UInvenBlockItem@ioUserBlockStorage@@V?$allocator@UInvenBlockItem@ioUserBlockStorage@@@std@@@std@@IAE_NI@Z
_TEXT	SEGMENT
__Capacity$ = 8						; size = 4
?_Buy@?$vector@UInvenBlockItem@ioUserBlockStorage@@V?$allocator@UInvenBlockItem@ioUserBlockStorage@@@std@@@std@@IAE_NI@Z PROC ; std::vector<ioUserBlockStorage::InvenBlockItem,std::allocator<ioUserBlockStorage::InvenBlockItem> >::_Buy, COMDAT
; _this$ = ecx

; 1250 : 		{	// allocate array with _Capacity elements

  00000	55		 push	 ebp
  00001	8b ec		 mov	 ebp, esp
  00003	56		 push	 esi

; 1251 : 		this->_Myfirst = 0;

  00004	33 c0		 xor	 eax, eax
  00006	57		 push	 edi

; 1252 : 		this->_Mylast = 0;
; 1253 : 		this->_Myend = 0;
; 1254 : 
; 1255 : 		if (_Capacity == 0)

  00007	8b 7d 08	 mov	 edi, DWORD PTR __Capacity$[ebp]
  0000a	8b f1		 mov	 esi, ecx
  0000c	89 06		 mov	 DWORD PTR [esi], eax
  0000e	89 46 04	 mov	 DWORD PTR [esi+4], eax
  00011	89 46 08	 mov	 DWORD PTR [esi+8], eax
  00014	3b f8		 cmp	 edi, eax
  00016	75 04		 jne	 SHORT $LN4@Buy

; 1256 : 			return (false);

  00018	32 c0		 xor	 al, al
  0001a	eb 2b		 jmp	 SHORT $LN5@Buy
$LN4@Buy:

; 1257 : 		else if (max_size() < _Capacity)

  0001c	81 ff 24 49 92
	04		 cmp	 edi, 76695844		; 04924924H
  00022	76 0b		 jbe	 SHORT $LN2@Buy

; 1258 : 			_Xlen();	// result too long

  00024	68 00 00 00 00	 push	 OFFSET ??_C@_0BD@OLBABOEK@vector?$DMT?$DO?5too?5long?$AA@
  00029	ff 15 00 00 00
	00		 call	 DWORD PTR __imp_?_Xlength_error@std@@YAXPBD@Z
$LN19@Buy:
$LN2@Buy:

; 1259 : 		else
; 1260 : 			{	// nonempty array, allocate storage
; 1261 : 			this->_Myfirst = this->_Alval.allocate(_Capacity);

  0002f	50		 push	 eax
  00030	57		 push	 edi
  00031	e8 00 00 00 00	 call	 ??$_Allocate@UInvenBlockItem@ioUserBlockStorage@@@std@@YAPAUInvenBlockItem@ioUserBlockStorage@@IPAU12@@Z ; std::_Allocate<ioUserBlockStorage::InvenBlockItem>

; 1262 : 			this->_Mylast = this->_Myfirst;
; 1263 : 			this->_Myend = this->_Myfirst + _Capacity;

  00036	6b ff 38	 imul	 edi, 56			; 00000038H
  00039	03 f8		 add	 edi, eax
  0003b	59		 pop	 ecx
  0003c	89 06		 mov	 DWORD PTR [esi], eax
  0003e	89 46 04	 mov	 DWORD PTR [esi+4], eax
  00041	59		 pop	 ecx
  00042	89 7e 08	 mov	 DWORD PTR [esi+8], edi

; 1264 : 			}
; 1265 : 		return (true);

  00045	b0 01		 mov	 al, 1
$LN5@Buy:
  00047	5f		 pop	 edi
  00048	5e		 pop	 esi

; 1266 : 		}

  00049	5d		 pop	 ebp
  0004a	c2 04 00	 ret	 4
$LN18@Buy:
?_Buy@?$vector@UInvenBlockItem@ioUserBlockStorage@@V?$allocator@UInvenBlockItem@ioUserBlockStorage@@@std@@@std@@IAE_NI@Z ENDP ; std::vector<ioUserBlockStorage::InvenBlockItem,std::allocator<ioUserBlockStorage::InvenBlockItem> >::_Buy
_TEXT	ENDS
PUBLIC	?_Make_iter@?$vector@VioBlockDBItem@@V?$allocator@VioBlockDBItem@@@std@@@std@@QBE?AV?$_Vector_iterator@V?$_Vector_val@VioBlockDBItem@@V?$allocator@VioBlockDBItem@@@std@@@std@@@2@V?$_Vector_const_iterator@V?$_Vector_val@VioBlockDBItem@@V?$allocator@VioBlockDBItem@@@std@@@std@@@2@@Z ; std::vector<ioBlockDBItem,std::allocator<ioBlockDBItem> >::_Make_iter
; Function compile flags: /Ogsp
;	COMDAT ?_Make_iter@?$vector@VioBlockDBItem@@V?$allocator@VioBlockDBItem@@@std@@@std@@QBE?AV?$_Vector_iterator@V?$_Vector_val@VioBlockDBItem@@V?$allocator@VioBlockDBItem@@@std@@@std@@@2@V?$_Vector_const_iterator@V?$_Vector_val@VioBlockDBItem@@V?$allocator@VioBlockDBItem@@@std@@@std@@@2@@Z
_TEXT	SEGMENT
___$ReturnUdt$ = 8					; size = 4
__Where$ = 12						; size = 4
?_Make_iter@?$vector@VioBlockDBItem@@V?$allocator@VioBlockDBItem@@@std@@@std@@QBE?AV?$_Vector_iterator@V?$_Vector_val@VioBlockDBItem@@V?$allocator@VioBlockDBItem@@@std@@@std@@@2@V?$_Vector_const_iterator@V?$_Vector_val@VioBlockDBItem@@V?$allocator@VioBlockDBItem@@@std@@@std@@@2@@Z PROC ; std::vector<ioBlockDBItem,std::allocator<ioBlockDBItem> >::_Make_iter, COMDAT
; _this$ = ecx

; 801  : 		{	// make iterator from const_iterator

  00000	55		 push	 ebp
  00001	8b ec		 mov	 ebp, esp

; 802  : 		return (iterator(_Where._Ptr, this));

  00003	8b 45 08	 mov	 eax, DWORD PTR ___$ReturnUdt$[ebp]
  00006	8b 4d 0c	 mov	 ecx, DWORD PTR __Where$[ebp]
  00009	89 08		 mov	 DWORD PTR [eax], ecx

; 803  : 		}

  0000b	5d		 pop	 ebp
  0000c	c2 08 00	 ret	 8
?_Make_iter@?$vector@VioBlockDBItem@@V?$allocator@VioBlockDBItem@@@std@@@std@@QBE?AV?$_Vector_iterator@V?$_Vector_val@VioBlockDBItem@@V?$allocator@VioBlockDBItem@@@std@@@std@@@2@V?$_Vector_const_iterator@V?$_Vector_val@VioBlockDBItem@@V?$allocator@VioBlockDBItem@@@std@@@std@@@2@@Z ENDP ; std::vector<ioBlockDBItem,std::allocator<ioBlockDBItem> >::_Make_iter
_TEXT	ENDS
PUBLIC	??9?$_Vector_const_iterator@V?$_Vector_val@VioBlockDBItem@@V?$allocator@VioBlockDBItem@@@std@@@std@@@std@@QBE_NABV01@@Z ; std::_Vector_const_iterator<std::_Vector_val<ioBlockDBItem,std::allocator<ioBlockDBItem> > >::operator!=
; Function compile flags: /Ogsp
;	COMDAT ??9?$_Vector_const_iterator@V?$_Vector_val@VioBlockDBItem@@V?$allocator@VioBlockDBItem@@@std@@@std@@@std@@QBE_NABV01@@Z
_TEXT	SEGMENT
__Right$ = 8						; size = 4
??9?$_Vector_const_iterator@V?$_Vector_val@VioBlockDBItem@@V?$allocator@VioBlockDBItem@@@std@@@std@@@std@@QBE_NABV01@@Z PROC ; std::_Vector_const_iterator<std::_Vector_val<ioBlockDBItem,std::allocator<ioBlockDBItem> > >::operator!=, COMDAT
; _this$ = ecx

; 207  : 		{	// test for iterator inequality

  00000	55		 push	 ebp
  00001	8b ec		 mov	 ebp, esp

; 208  : 		return (!(*this == _Right));

  00003	8b 01		 mov	 eax, DWORD PTR [ecx]
  00005	8b 55 08	 mov	 edx, DWORD PTR __Right$[ebp]
  00008	33 c9		 xor	 ecx, ecx
  0000a	3b 02		 cmp	 eax, DWORD PTR [edx]
  0000c	0f 95 c0	 setne	 al

; 209  : 		}

  0000f	5d		 pop	 ebp
  00010	c2 04 00	 ret	 4
??9?$_Vector_const_iterator@V?$_Vector_val@VioBlockDBItem@@V?$allocator@VioBlockDBItem@@@std@@@std@@@std@@QBE_NABV01@@Z ENDP ; std::_Vector_const_iterator<std::_Vector_val<ioBlockDBItem,std::allocator<ioBlockDBItem> > >::operator!=
_TEXT	ENDS
PUBLIC	??$_Cons_val@V?$allocator@VioBlockDBItem@@@std@@VioBlockDBItem@@AAV3@@std@@YAXAAV?$allocator@VioBlockDBItem@@@0@PAVioBlockDBItem@@AAV2@@Z ; std::_Cons_val<std::allocator<ioBlockDBItem>,ioBlockDBItem,ioBlockDBItem &>
; Function compile flags: /Ogsp
; File c:\program files (x86)\microsoft visual studio 10.0\vc\include\xmemory
;	COMDAT ??$_Cons_val@V?$allocator@VioBlockDBItem@@@std@@VioBlockDBItem@@AAV3@@std@@YAXAAV?$allocator@VioBlockDBItem@@@0@PAVioBlockDBItem@@AAV2@@Z
_TEXT	SEGMENT
__Alval$ = 8						; size = 4
__Pdest$ = 12						; size = 4
__Src$ = 16						; size = 4
??$_Cons_val@V?$allocator@VioBlockDBItem@@@std@@VioBlockDBItem@@AAV3@@std@@YAXAAV?$allocator@VioBlockDBItem@@@0@PAVioBlockDBItem@@AAV2@@Z PROC ; std::_Cons_val<std::allocator<ioBlockDBItem>,ioBlockDBItem,ioBlockDBItem &>, COMDAT

; 279  : 	{	// construct using allocator

  00000	55		 push	 ebp
  00001	8b ec		 mov	 ebp, esp

; 280  : 	_Alval.construct(_Pdest, _STD forward<_Ty2>(_Src));

  00003	8b 4d 0c	 mov	 ecx, DWORD PTR __Pdest$[ebp]
  00006	85 c9		 test	 ecx, ecx
  00008	74 08		 je	 SHORT $LN7@Cons_val
  0000a	ff 75 10	 push	 DWORD PTR __Src$[ebp]
  0000d	e8 00 00 00 00	 call	 ??0ioBlockDBItem@@QAE@ABV0@@Z
$LN7@Cons_val:

; 281  : 	}

  00012	5d		 pop	 ebp
  00013	c3		 ret	 0
??$_Cons_val@V?$allocator@VioBlockDBItem@@@std@@VioBlockDBItem@@AAV3@@std@@YAXAAV?$allocator@VioBlockDBItem@@@0@PAVioBlockDBItem@@AAV2@@Z ENDP ; std::_Cons_val<std::allocator<ioBlockDBItem>,ioBlockDBItem,ioBlockDBItem &>
_TEXT	ENDS
PUBLIC	??$_Copy_impl@PAUInvenBlockItem@ioUserBlockStorage@@PAU12@@std@@YAPAUInvenBlockItem@ioUserBlockStorage@@PAU12@00@Z ; std::_Copy_impl<ioUserBlockStorage::InvenBlockItem *,ioUserBlockStorage::InvenBlockItem *>
; Function compile flags: /Ogsp
; File c:\program files (x86)\microsoft visual studio 10.0\vc\include\xutility
;	COMDAT ??$_Copy_impl@PAUInvenBlockItem@ioUserBlockStorage@@PAU12@@std@@YAPAUInvenBlockItem@ioUserBlockStorage@@PAU12@00@Z
_TEXT	SEGMENT
__Cat$512584 = -4					; size = 1
__First$ = 8						; size = 4
__Last$ = 12						; size = 4
__Dest$ = 16						; size = 4
??$_Copy_impl@PAUInvenBlockItem@ioUserBlockStorage@@PAU12@@std@@YAPAUInvenBlockItem@ioUserBlockStorage@@PAU12@00@Z PROC ; std::_Copy_impl<ioUserBlockStorage::InvenBlockItem *,ioUserBlockStorage::InvenBlockItem *>, COMDAT

; 2163 : 	{	// copy [_First, _Last) to [_Dest, ...)

  00000	55		 push	 ebp
  00001	8b ec		 mov	 ebp, esp
  00003	51		 push	 ecx

; 2164 : 	return (_Copy_impl(_First, _Last,
; 2165 : 		_Dest, _Ptr_cat(_First, _Dest)));

  00004	ff 75 fc	 push	 DWORD PTR __Cat$512584[ebp]
  00007	ff 75 10	 push	 DWORD PTR __Dest$[ebp]
  0000a	ff 75 0c	 push	 DWORD PTR __Last$[ebp]
  0000d	ff 75 08	 push	 DWORD PTR __First$[ebp]
  00010	e8 00 00 00 00	 call	 ??$_Copy_impl@PAUInvenBlockItem@ioUserBlockStorage@@PAU12@@std@@YAPAUInvenBlockItem@ioUserBlockStorage@@PAU12@00U_Nonscalar_ptr_iterator_tag@0@@Z ; std::_Copy_impl<ioUserBlockStorage::InvenBlockItem *,ioUserBlockStorage::InvenBlockItem *>
  00015	83 c4 10	 add	 esp, 16			; 00000010H

; 2166 : 	}

  00018	c9		 leave
  00019	c3		 ret	 0
??$_Copy_impl@PAUInvenBlockItem@ioUserBlockStorage@@PAU12@@std@@YAPAUInvenBlockItem@ioUserBlockStorage@@PAU12@00@Z ENDP ; std::_Copy_impl<ioUserBlockStorage::InvenBlockItem *,ioUserBlockStorage::InvenBlockItem *>
_TEXT	ENDS
PUBLIC	??$_Cons_val@V?$allocator@UInvenBlockItem@ioUserBlockStorage@@@std@@UInvenBlockItem@ioUserBlockStorage@@AAU34@@std@@YAXAAV?$allocator@UInvenBlockItem@ioUserBlockStorage@@@0@PAUInvenBlockItem@ioUserBlockStorage@@AAU23@@Z ; std::_Cons_val<std::allocator<ioUserBlockStorage::InvenBlockItem>,ioUserBlockStorage::InvenBlockItem,ioUserBlockStorage::InvenBlockItem &>
;	COMDAT xdata$x
; File c:\program files (x86)\microsoft visual studio 10.0\vc\include\utility
xdata$x	SEGMENT
__unwindtable$??$_Cons_val@V?$allocator@UInvenBlockItem@ioUserBlockStorage@@@std@@UInvenBlockItem@ioUserBlockStorage@@AAU34@@std@@YAXAAV?$allocator@UInvenBlockItem@ioUserBlockStorage@@@0@PAUInvenBlockItem@ioUserBlockStorage@@AAU23@@Z DD 0ffffffffH
	DD	FLAT:__unwindfunclet$??$_Cons_val@V?$allocator@UInvenBlockItem@ioUserBlockStorage@@@std@@UInvenBlockItem@ioUserBlockStorage@@AAU34@@std@@YAXAAV?$allocator@UInvenBlockItem@ioUserBlockStorage@@@0@PAUInvenBlockItem@ioUserBlockStorage@@AAU23@@Z$0
__ehfuncinfo$??$_Cons_val@V?$allocator@UInvenBlockItem@ioUserBlockStorage@@@std@@UInvenBlockItem@ioUserBlockStorage@@AAU34@@std@@YAXAAV?$allocator@UInvenBlockItem@ioUserBlockStorage@@@0@PAUInvenBlockItem@ioUserBlockStorage@@AAU23@@Z DD 019930522H
	DD	01H
	DD	FLAT:__unwindtable$??$_Cons_val@V?$allocator@UInvenBlockItem@ioUserBlockStorage@@@std@@UInvenBlockItem@ioUserBlockStorage@@AAU34@@std@@YAXAAV?$allocator@UInvenBlockItem@ioUserBlockStorage@@@0@PAUInvenBlockItem@ioUserBlockStorage@@AAU23@@Z
	DD	2 DUP(00H)
	DD	2 DUP(00H)
	DD	00H
	DD	01H
; Function compile flags: /Ogsp
; File c:\program files (x86)\microsoft visual studio 10.0\vc\include\xmemory
xdata$x	ENDS
;	COMDAT ??$_Cons_val@V?$allocator@UInvenBlockItem@ioUserBlockStorage@@@std@@UInvenBlockItem@ioUserBlockStorage@@AAU34@@std@@YAXAAV?$allocator@UInvenBlockItem@ioUserBlockStorage@@@0@PAUInvenBlockItem@ioUserBlockStorage@@AAU23@@Z
_TEXT	SEGMENT
$T512604 = -16						; size = 4
__$EHRec$ = -12						; size = 12
__Alval$ = 8						; size = 4
__Pdest$ = 12						; size = 4
__Src$ = 16						; size = 4
??$_Cons_val@V?$allocator@UInvenBlockItem@ioUserBlockStorage@@@std@@UInvenBlockItem@ioUserBlockStorage@@AAU34@@std@@YAXAAV?$allocator@UInvenBlockItem@ioUserBlockStorage@@@0@PAUInvenBlockItem@ioUserBlockStorage@@AAU23@@Z PROC ; std::_Cons_val<std::allocator<ioUserBlockStorage::InvenBlockItem>,ioUserBlockStorage::InvenBlockItem,ioUserBlockStorage::InvenBlockItem &>, COMDAT

; 279  : 	{	// construct using allocator

  00000	6a 04		 push	 4
  00002	b8 00 00 00 00	 mov	 eax, __ehhandler$??$_Cons_val@V?$allocator@UInvenBlockItem@ioUserBlockStorage@@@std@@UInvenBlockItem@ioUserBlockStorage@@AAU34@@std@@YAXAAV?$allocator@UInvenBlockItem@ioUserBlockStorage@@@0@PAUInvenBlockItem@ioUserBlockStorage@@AAU23@@Z
  00007	e8 00 00 00 00	 call	 __EH_prolog3

; 280  : 	_Alval.construct(_Pdest, _STD forward<_Ty2>(_Src));

  0000c	8b 4d 0c	 mov	 ecx, DWORD PTR __Pdest$[ebp]
  0000f	89 4d f0	 mov	 DWORD PTR $T512604[ebp], ecx
  00012	83 65 fc 00	 and	 DWORD PTR __$EHRec$[ebp+8], 0
  00016	85 c9		 test	 ecx, ecx
  00018	74 08		 je	 SHORT $LN7@Cons_val@2
  0001a	ff 75 10	 push	 DWORD PTR __Src$[ebp]
  0001d	e8 00 00 00 00	 call	 ??0InvenBlockItem@ioUserBlockStorage@@QAE@ABU01@@Z
$LN7@Cons_val@2:

; 281  : 	}

  00022	e8 00 00 00 00	 call	 __EH_epilog3
  00027	c3		 ret	 0
_TEXT	ENDS
;	COMDAT text$x
text$x	SEGMENT
__unwindfunclet$??$_Cons_val@V?$allocator@UInvenBlockItem@ioUserBlockStorage@@@std@@UInvenBlockItem@ioUserBlockStorage@@AAU34@@std@@YAXAAV?$allocator@UInvenBlockItem@ioUserBlockStorage@@@0@PAUInvenBlockItem@ioUserBlockStorage@@AAU23@@Z$0:
  00000	ff 75 0c	 push	 DWORD PTR __Pdest$[ebp]
  00003	ff 75 f0	 push	 DWORD PTR $T512604[ebp]
  00006	e8 00 00 00 00	 call	 ??3@YAXPAX0@Z		; operator delete
  0000b	59		 pop	 ecx
  0000c	59		 pop	 ecx
  0000d	c3		 ret	 0
__ehhandler$??$_Cons_val@V?$allocator@UInvenBlockItem@ioUserBlockStorage@@@std@@UInvenBlockItem@ioUserBlockStorage@@AAU34@@std@@YAXAAV?$allocator@UInvenBlockItem@ioUserBlockStorage@@@0@PAUInvenBlockItem@ioUserBlockStorage@@AAU23@@Z:
  0000e	8b 54 24 08	 mov	 edx, DWORD PTR [esp+8]
  00012	8d 42 0c	 lea	 eax, DWORD PTR [edx+12]
  00015	8b 4a ec	 mov	 ecx, DWORD PTR [edx-20]
  00018	33 c8		 xor	 ecx, eax
  0001a	e8 00 00 00 00	 call	 @__security_check_cookie@4
  0001f	b8 00 00 00 00	 mov	 eax, OFFSET __ehfuncinfo$??$_Cons_val@V?$allocator@UInvenBlockItem@ioUserBlockStorage@@@std@@UInvenBlockItem@ioUserBlockStorage@@AAU34@@std@@YAXAAV?$allocator@UInvenBlockItem@ioUserBlockStorage@@@0@PAUInvenBlockItem@ioUserBlockStorage@@AAU23@@Z
  00024	e9 00 00 00 00	 jmp	 ___CxxFrameHandler3
text$x	ENDS
??$_Cons_val@V?$allocator@UInvenBlockItem@ioUserBlockStorage@@@std@@UInvenBlockItem@ioUserBlockStorage@@AAU34@@std@@YAXAAV?$allocator@UInvenBlockItem@ioUserBlockStorage@@@0@PAUInvenBlockItem@ioUserBlockStorage@@AAU23@@Z ENDP ; std::_Cons_val<std::allocator<ioUserBlockStorage::InvenBlockItem>,ioUserBlockStorage::InvenBlockItem,ioUserBlockStorage::InvenBlockItem &>
PUBLIC	??$_Move@PAVioBlockDBItem@@PAV1@@std@@YAPAVioBlockDBItem@@PAV1@00@Z ; std::_Move<ioBlockDBItem *,ioBlockDBItem *>
; Function compile flags: /Ogsp
; File c:\program files (x86)\microsoft visual studio 10.0\vc\include\xutility
;	COMDAT ??$_Move@PAVioBlockDBItem@@PAV1@@std@@YAPAVioBlockDBItem@@PAV1@00@Z
_TEXT	SEGMENT
__Cat$512624 = -4					; size = 1
__First$ = 8						; size = 4
__Last$ = 12						; size = 4
__Dest$ = 16						; size = 4
??$_Move@PAVioBlockDBItem@@PAV1@@std@@YAPAVioBlockDBItem@@PAV1@00@Z PROC ; std::_Move<ioBlockDBItem *,ioBlockDBItem *>, COMDAT

; 2533 : 	{	// move [_First, _Last) to [_Dest, ...), unchecked

  00000	55		 push	 ebp
  00001	8b ec		 mov	 ebp, esp
  00003	51		 push	 ecx

; 2534 : 	return (_Move(_First, _Last,
; 2535 : 		_Dest, _Ptr_cat(_First, _Dest)));

  00004	ff 75 fc	 push	 DWORD PTR __Cat$512624[ebp]
  00007	ff 75 10	 push	 DWORD PTR __Dest$[ebp]
  0000a	ff 75 0c	 push	 DWORD PTR __Last$[ebp]
  0000d	ff 75 08	 push	 DWORD PTR __First$[ebp]
  00010	e8 00 00 00 00	 call	 ??$_Move@PAVioBlockDBItem@@PAV1@@std@@YAPAVioBlockDBItem@@PAV1@00U_Nonscalar_ptr_iterator_tag@0@@Z ; std::_Move<ioBlockDBItem *,ioBlockDBItem *>
  00015	83 c4 10	 add	 esp, 16			; 00000010H

; 2536 : 	}

  00018	c9		 leave
  00019	c3		 ret	 0
??$_Move@PAVioBlockDBItem@@PAV1@@std@@YAPAVioBlockDBItem@@PAV1@00@Z ENDP ; std::_Move<ioBlockDBItem *,ioBlockDBItem *>
_TEXT	ENDS
PUBLIC	??$_Move@PAUInvenBlockItem@ioUserBlockStorage@@PAU12@@std@@YAPAUInvenBlockItem@ioUserBlockStorage@@PAU12@00@Z ; std::_Move<ioUserBlockStorage::InvenBlockItem *,ioUserBlockStorage::InvenBlockItem *>
; Function compile flags: /Ogsp
;	COMDAT ??$_Move@PAUInvenBlockItem@ioUserBlockStorage@@PAU12@@std@@YAPAUInvenBlockItem@ioUserBlockStorage@@PAU12@00@Z
_TEXT	SEGMENT
__Cat$512630 = -4					; size = 1
__First$ = 8						; size = 4
__Last$ = 12						; size = 4
__Dest$ = 16						; size = 4
??$_Move@PAUInvenBlockItem@ioUserBlockStorage@@PAU12@@std@@YAPAUInvenBlockItem@ioUserBlockStorage@@PAU12@00@Z PROC ; std::_Move<ioUserBlockStorage::InvenBlockItem *,ioUserBlockStorage::InvenBlockItem *>, COMDAT

; 2533 : 	{	// move [_First, _Last) to [_Dest, ...), unchecked

  00000	55		 push	 ebp
  00001	8b ec		 mov	 ebp, esp
  00003	51		 push	 ecx

; 2534 : 	return (_Move(_First, _Last,
; 2535 : 		_Dest, _Ptr_cat(_First, _Dest)));

  00004	ff 75 fc	 push	 DWORD PTR __Cat$512630[ebp]
  00007	ff 75 10	 push	 DWORD PTR __Dest$[ebp]
  0000a	ff 75 0c	 push	 DWORD PTR __Last$[ebp]
  0000d	ff 75 08	 push	 DWORD PTR __First$[ebp]
  00010	e8 00 00 00 00	 call	 ??$_Move@PAUInvenBlockItem@ioUserBlockStorage@@PAU12@@std@@YAPAUInvenBlockItem@ioUserBlockStorage@@PAU12@00U_Nonscalar_ptr_iterator_tag@0@@Z ; std::_Move<ioUserBlockStorage::InvenBlockItem *,ioUserBlockStorage::InvenBlockItem *>
  00015	83 c4 10	 add	 esp, 16			; 00000010H

; 2536 : 	}

  00018	c9		 leave
  00019	c3		 ret	 0
??$_Move@PAUInvenBlockItem@ioUserBlockStorage@@PAU12@@std@@YAPAUInvenBlockItem@ioUserBlockStorage@@PAU12@00@Z ENDP ; std::_Move<ioUserBlockStorage::InvenBlockItem *,ioUserBlockStorage::InvenBlockItem *>
_TEXT	ENDS
PUBLIC	?construct@?$allocator@VioBlockDBItem@@@std@@QAEXPAVioBlockDBItem@@ABV3@@Z ; std::allocator<ioBlockDBItem>::construct
; Function compile flags: /Ogsp
; File c:\program files (x86)\microsoft visual studio 10.0\vc\include\xmemory
;	COMDAT ?construct@?$allocator@VioBlockDBItem@@@std@@QAEXPAVioBlockDBItem@@ABV3@@Z
_TEXT	SEGMENT
__Ptr$ = 8						; size = 4
__Val$ = 12						; size = 4
?construct@?$allocator@VioBlockDBItem@@@std@@QAEXPAVioBlockDBItem@@ABV3@@Z PROC ; std::allocator<ioBlockDBItem>::construct, COMDAT
; _this$ = ecx

; 196  : 		{	// construct object at _Ptr with value _Val

  00000	55		 push	 ebp
  00001	8b ec		 mov	 ebp, esp

; 197  : 		_Construct(_Ptr, _Val);

  00003	8b 4d 08	 mov	 ecx, DWORD PTR __Ptr$[ebp]
  00006	85 c9		 test	 ecx, ecx
  00008	74 08		 je	 SHORT $LN5@construct@5
  0000a	ff 75 0c	 push	 DWORD PTR __Val$[ebp]
  0000d	e8 00 00 00 00	 call	 ??0ioBlockDBItem@@QAE@ABV0@@Z
$LN5@construct@5:

; 198  : 		}

  00012	5d		 pop	 ebp
  00013	c2 08 00	 ret	 8
?construct@?$allocator@VioBlockDBItem@@@std@@QAEXPAVioBlockDBItem@@ABV3@@Z ENDP ; std::allocator<ioBlockDBItem>::construct
_TEXT	ENDS
PUBLIC	?construct@?$allocator@UInvenBlockItem@ioUserBlockStorage@@@std@@QAEXPAUInvenBlockItem@ioUserBlockStorage@@ABU34@@Z ; std::allocator<ioUserBlockStorage::InvenBlockItem>::construct
; Function compile flags: /Ogsp
;	COMDAT ?construct@?$allocator@UInvenBlockItem@ioUserBlockStorage@@@std@@QAEXPAUInvenBlockItem@ioUserBlockStorage@@ABU34@@Z
_TEXT	SEGMENT
__Ptr$ = 8						; size = 4
__Val$ = 12						; size = 4
?construct@?$allocator@UInvenBlockItem@ioUserBlockStorage@@@std@@QAEXPAUInvenBlockItem@ioUserBlockStorage@@ABU34@@Z PROC ; std::allocator<ioUserBlockStorage::InvenBlockItem>::construct, COMDAT
; _this$ = ecx

; 196  : 		{	// construct object at _Ptr with value _Val

  00000	55		 push	 ebp
  00001	8b ec		 mov	 ebp, esp

; 197  : 		_Construct(_Ptr, _Val);

  00003	ff 75 0c	 push	 DWORD PTR __Val$[ebp]
  00006	ff 75 08	 push	 DWORD PTR __Ptr$[ebp]
  00009	e8 00 00 00 00	 call	 ??$_Construct@UInvenBlockItem@ioUserBlockStorage@@ABU12@@std@@YAXPAUInvenBlockItem@ioUserBlockStorage@@ABU12@@Z ; std::_Construct<ioUserBlockStorage::InvenBlockItem,ioUserBlockStorage::InvenBlockItem const &>
  0000e	59		 pop	 ecx
  0000f	59		 pop	 ecx

; 198  : 		}

  00010	5d		 pop	 ebp
  00011	c2 08 00	 ret	 8
?construct@?$allocator@UInvenBlockItem@ioUserBlockStorage@@@std@@QAEXPAUInvenBlockItem@ioUserBlockStorage@@ABU34@@Z ENDP ; std::allocator<ioUserBlockStorage::InvenBlockItem>::construct
_TEXT	ENDS
PUBLIC	??$_Dest_val@V?$allocator@VioBlockDBItem@@@std@@VioBlockDBItem@@@std@@YAXAAV?$allocator@VioBlockDBItem@@@0@PAVioBlockDBItem@@@Z ; std::_Dest_val<std::allocator<ioBlockDBItem>,ioBlockDBItem>
; Function compile flags: /Ogsp
;	COMDAT ??$_Dest_val@V?$allocator@VioBlockDBItem@@@std@@VioBlockDBItem@@@std@@YAXAAV?$allocator@VioBlockDBItem@@@0@PAVioBlockDBItem@@@Z
_TEXT	SEGMENT
__Alval$ = 8						; size = 4
__Pdest$ = 12						; size = 4
??$_Dest_val@V?$allocator@VioBlockDBItem@@@std@@VioBlockDBItem@@@std@@YAXAAV?$allocator@VioBlockDBItem@@@0@PAVioBlockDBItem@@@Z PROC ; std::_Dest_val<std::allocator<ioBlockDBItem>,ioBlockDBItem>, COMDAT

; 286  : 	{	// destroy using allocator

  00000	55		 push	 ebp
  00001	8b ec		 mov	 ebp, esp

; 287  : 	_Alval.destroy(_Pdest);

  00003	8b 4d 0c	 mov	 ecx, DWORD PTR __Pdest$[ebp]
  00006	8b 01		 mov	 eax, DWORD PTR [ecx]
  00008	6a 00		 push	 0
  0000a	ff 10		 call	 DWORD PTR [eax]

; 288  : 	}

  0000c	5d		 pop	 ebp
  0000d	c3		 ret	 0
??$_Dest_val@V?$allocator@VioBlockDBItem@@@std@@VioBlockDBItem@@@std@@YAXAAV?$allocator@VioBlockDBItem@@@0@PAVioBlockDBItem@@@Z ENDP ; std::_Dest_val<std::allocator<ioBlockDBItem>,ioBlockDBItem>
_TEXT	ENDS
PUBLIC	?destroy@?$allocator@UInvenBlockItem@ioUserBlockStorage@@@std@@QAEXPAUInvenBlockItem@ioUserBlockStorage@@@Z ; std::allocator<ioUserBlockStorage::InvenBlockItem>::destroy
; Function compile flags: /Ogsp
;	COMDAT ?destroy@?$allocator@UInvenBlockItem@ioUserBlockStorage@@@std@@QAEXPAUInvenBlockItem@ioUserBlockStorage@@@Z
_TEXT	SEGMENT
__Ptr$ = 8						; size = 4
?destroy@?$allocator@UInvenBlockItem@ioUserBlockStorage@@@std@@QAEXPAUInvenBlockItem@ioUserBlockStorage@@@Z PROC ; std::allocator<ioUserBlockStorage::InvenBlockItem>::destroy, COMDAT
; _this$ = ecx

; 212  : 		{	// destroy object at _Ptr

  00000	55		 push	 ebp
  00001	8b ec		 mov	 ebp, esp

; 213  : 		_Destroy(_Ptr);

  00003	8b 4d 08	 mov	 ecx, DWORD PTR __Ptr$[ebp]
  00006	e8 00 00 00 00	 call	 ??1InvenBlockItem@ioUserBlockStorage@@QAE@XZ

; 214  : 		}

  0000b	5d		 pop	 ebp
  0000c	c2 04 00	 ret	 4
?destroy@?$allocator@UInvenBlockItem@ioUserBlockStorage@@@std@@QAEXPAUInvenBlockItem@ioUserBlockStorage@@@Z ENDP ; std::allocator<ioUserBlockStorage::InvenBlockItem>::destroy
_TEXT	ENDS
PUBLIC	??$iter_swap@PAUInvenBlockItem@ioUserBlockStorage@@PAU12@@std@@YAXPAUInvenBlockItem@ioUserBlockStorage@@0@Z ; std::iter_swap<ioUserBlockStorage::InvenBlockItem *,ioUserBlockStorage::InvenBlockItem *>
; Function compile flags: /Ogsp
; File c:\program files (x86)\microsoft visual studio 10.0\vc\include\xutility
;	COMDAT ??$iter_swap@PAUInvenBlockItem@ioUserBlockStorage@@PAU12@@std@@YAXPAUInvenBlockItem@ioUserBlockStorage@@0@Z
_TEXT	SEGMENT
__Left$ = 8						; size = 4
__Right$ = 12						; size = 4
??$iter_swap@PAUInvenBlockItem@ioUserBlockStorage@@PAU12@@std@@YAXPAUInvenBlockItem@ioUserBlockStorage@@0@Z PROC ; std::iter_swap<ioUserBlockStorage::InvenBlockItem *,ioUserBlockStorage::InvenBlockItem *>, COMDAT

; 2133 : 	{	// swap *_Left and *_Right

  00000	55		 push	 ebp
  00001	8b ec		 mov	 ebp, esp

; 2135 : 	}

  00003	5d		 pop	 ebp

; 2134 : 	swap(*_Left, *_Right);

  00004	e9 00 00 00 00	 jmp	 ??$swap@UInvenBlockItem@ioUserBlockStorage@@@std@@YAXAAUInvenBlockItem@ioUserBlockStorage@@0@Z ; std::swap<ioUserBlockStorage::InvenBlockItem>
??$iter_swap@PAUInvenBlockItem@ioUserBlockStorage@@PAU12@@std@@YAXPAUInvenBlockItem@ioUserBlockStorage@@0@Z ENDP ; std::iter_swap<ioUserBlockStorage::InvenBlockItem *,ioUserBlockStorage::InvenBlockItem *>
_TEXT	ENDS
PUBLIC	??$_Make_heap@PAUInvenBlockItem@ioUserBlockStorage@@HU12@VInvenBlockItemSort@2@@std@@YAXPAUInvenBlockItem@ioUserBlockStorage@@0VInvenBlockItemSort@2@PAH0@Z ; std::_Make_heap<ioUserBlockStorage::InvenBlockItem *,int,ioUserBlockStorage::InvenBlockItem,ioUserBlockStorage::InvenBlockItemSort>
;	COMDAT xdata$x
; File c:\program files (x86)\microsoft visual studio 10.0\vc\include\utility
xdata$x	SEGMENT
__unwindtable$??$_Make_heap@PAUInvenBlockItem@ioUserBlockStorage@@HU12@VInvenBlockItemSort@2@@std@@YAXPAUInvenBlockItem@ioUserBlockStorage@@0VInvenBlockItemSort@2@PAH0@Z DD 0ffffffffH
	DD	FLAT:__unwindfunclet$??$_Make_heap@PAUInvenBlockItem@ioUserBlockStorage@@HU12@VInvenBlockItemSort@2@@std@@YAXPAUInvenBlockItem@ioUserBlockStorage@@0VInvenBlockItemSort@2@PAH0@Z$0
__ehfuncinfo$??$_Make_heap@PAUInvenBlockItem@ioUserBlockStorage@@HU12@VInvenBlockItemSort@2@@std@@YAXPAUInvenBlockItem@ioUserBlockStorage@@0VInvenBlockItemSort@2@PAH0@Z DD 019930522H
	DD	01H
	DD	FLAT:__unwindtable$??$_Make_heap@PAUInvenBlockItem@ioUserBlockStorage@@HU12@VInvenBlockItemSort@2@@std@@YAXPAUInvenBlockItem@ioUserBlockStorage@@0VInvenBlockItemSort@2@PAH0@Z
	DD	2 DUP(00H)
	DD	2 DUP(00H)
	DD	00H
	DD	01H
; Function compile flags: /Ogsp
; File c:\program files (x86)\microsoft visual studio 10.0\vc\include\algorithm
xdata$x	ENDS
;	COMDAT ??$_Make_heap@PAUInvenBlockItem@ioUserBlockStorage@@HU12@VInvenBlockItemSort@2@@std@@YAXPAUInvenBlockItem@ioUserBlockStorage@@0VInvenBlockItemSort@2@PAH0@Z
_TEXT	SEGMENT
__Val$511061 = -68					; size = 56
__$EHRec$ = -12						; size = 12
__First$ = 8						; size = 4
__Last$ = 12						; size = 4
__Pred$ = 16						; size = 1
___formal$ = 20						; size = 4
___formal$ = 24						; size = 4
??$_Make_heap@PAUInvenBlockItem@ioUserBlockStorage@@HU12@VInvenBlockItemSort@2@@std@@YAXPAUInvenBlockItem@ioUserBlockStorage@@0VInvenBlockItemSort@2@PAH0@Z PROC ; std::_Make_heap<ioUserBlockStorage::InvenBlockItem *,int,ioUserBlockStorage::InvenBlockItem,ioUserBlockStorage::InvenBlockItemSort>, COMDAT

; 2658 : 	{	// make nontrivial [_First, _Last) into a heap, using _Pred

  00000	6a 38		 push	 56			; 00000038H
  00002	b8 00 00 00 00	 mov	 eax, __ehhandler$??$_Make_heap@PAUInvenBlockItem@ioUserBlockStorage@@HU12@VInvenBlockItemSort@2@@std@@YAXPAUInvenBlockItem@ioUserBlockStorage@@0VInvenBlockItemSort@2@PAH0@Z
  00007	e8 00 00 00 00	 call	 __EH_prolog3

; 2659 : 	_Diff _Bottom = _Last - _First;

  0000c	8b 45 0c	 mov	 eax, DWORD PTR __Last$[ebp]
  0000f	2b 45 08	 sub	 eax, DWORD PTR __First$[ebp]
  00012	6a 38		 push	 56			; 00000038H
  00014	99		 cdq
  00015	59		 pop	 ecx
  00016	f7 f9		 idiv	 ecx
  00018	8b d8		 mov	 ebx, eax

; 2660 : 	for (_Diff _Hole = _Bottom / 2; 0 < _Hole; )

  0001a	99		 cdq
  0001b	2b c2		 sub	 eax, edx
  0001d	8b f0		 mov	 esi, eax
  0001f	d1 fe		 sar	 esi, 1
  00021	85 f6		 test	 esi, esi
  00023	7e 3d		 jle	 SHORT $LN1@Make_heap

; 2659 : 	_Diff _Bottom = _Last - _First;

  00025	8b fe		 mov	 edi, esi
  00027	6b ff 38	 imul	 edi, 56			; 00000038H
  0002a	03 7d 08	 add	 edi, DWORD PTR __First$[ebp]
$LN2@Make_heap:

; 2661 : 		{	// reheap top half, bottom to top
; 2662 : 		--_Hole;

  0002d	83 ef 38	 sub	 edi, 56			; 00000038H

; 2663 : 		_Ty _Val = _Move(*(_First + _Hole));

  00030	57		 push	 edi
  00031	8d 4d bc	 lea	 ecx, DWORD PTR __Val$511061[ebp]
  00034	4e		 dec	 esi
  00035	e8 00 00 00 00	 call	 ??0InvenBlockItem@ioUserBlockStorage@@QAE@ABU01@@Z

; 2664 : 		_Adjust_heap(_First, _Hole, _Bottom,
; 2665 : 			_Move(_Val), _Pred);

  0003a	ff 75 10	 push	 DWORD PTR __Pred$[ebp]
  0003d	83 65 fc 00	 and	 DWORD PTR __$EHRec$[ebp+8], 0
  00041	8d 45 bc	 lea	 eax, DWORD PTR __Val$511061[ebp]
  00044	50		 push	 eax
  00045	53		 push	 ebx
  00046	56		 push	 esi
  00047	ff 75 08	 push	 DWORD PTR __First$[ebp]
  0004a	e8 00 00 00 00	 call	 ??$_Adjust_heap@PAUInvenBlockItem@ioUserBlockStorage@@HU12@VInvenBlockItemSort@2@@std@@YAXPAUInvenBlockItem@ioUserBlockStorage@@HH$$QAU12@VInvenBlockItemSort@2@@Z ; std::_Adjust_heap<ioUserBlockStorage::InvenBlockItem *,int,ioUserBlockStorage::InvenBlockItem,ioUserBlockStorage::InvenBlockItemSort>

; 2666 : 		}

  0004f	83 4d fc ff	 or	 DWORD PTR __$EHRec$[ebp+8], -1
  00053	83 c4 14	 add	 esp, 20			; 00000014H
  00056	8d 4d bc	 lea	 ecx, DWORD PTR __Val$511061[ebp]
  00059	e8 00 00 00 00	 call	 ??1InvenBlockItem@ioUserBlockStorage@@QAE@XZ
  0005e	85 f6		 test	 esi, esi
  00060	7f cb		 jg	 SHORT $LN2@Make_heap
$LN1@Make_heap:

; 2667 : 	}

  00062	e8 00 00 00 00	 call	 __EH_epilog3
  00067	c3		 ret	 0
_TEXT	ENDS
;	COMDAT text$x
text$x	SEGMENT
__unwindfunclet$??$_Make_heap@PAUInvenBlockItem@ioUserBlockStorage@@HU12@VInvenBlockItemSort@2@@std@@YAXPAUInvenBlockItem@ioUserBlockStorage@@0VInvenBlockItemSort@2@PAH0@Z$0:
  00000	8d 4d bc	 lea	 ecx, DWORD PTR __Val$511061[ebp]
  00003	e9 00 00 00 00	 jmp	 ??1InvenBlockItem@ioUserBlockStorage@@QAE@XZ
__ehhandler$??$_Make_heap@PAUInvenBlockItem@ioUserBlockStorage@@HU12@VInvenBlockItemSort@2@@std@@YAXPAUInvenBlockItem@ioUserBlockStorage@@0VInvenBlockItemSort@2@PAH0@Z:
  00008	8b 54 24 08	 mov	 edx, DWORD PTR [esp+8]
  0000c	8d 42 0c	 lea	 eax, DWORD PTR [edx+12]
  0000f	8b 4a b8	 mov	 ecx, DWORD PTR [edx-72]
  00012	33 c8		 xor	 ecx, eax
  00014	e8 00 00 00 00	 call	 @__security_check_cookie@4
  00019	b8 00 00 00 00	 mov	 eax, OFFSET __ehfuncinfo$??$_Make_heap@PAUInvenBlockItem@ioUserBlockStorage@@HU12@VInvenBlockItemSort@2@@std@@YAXPAUInvenBlockItem@ioUserBlockStorage@@0VInvenBlockItemSort@2@PAH0@Z
  0001e	e9 00 00 00 00	 jmp	 ___CxxFrameHandler3
text$x	ENDS
??$_Make_heap@PAUInvenBlockItem@ioUserBlockStorage@@HU12@VInvenBlockItemSort@2@@std@@YAXPAUInvenBlockItem@ioUserBlockStorage@@0VInvenBlockItemSort@2@PAH0@Z ENDP ; std::_Make_heap<ioUserBlockStorage::InvenBlockItem *,int,ioUserBlockStorage::InvenBlockItem,ioUserBlockStorage::InvenBlockItemSort>
PUBLIC	??$_Insertion_sort1@PAUInvenBlockItem@ioUserBlockStorage@@VInvenBlockItemSort@2@U12@@std@@YAXPAUInvenBlockItem@ioUserBlockStorage@@0VInvenBlockItemSort@2@0@Z ; std::_Insertion_sort1<ioUserBlockStorage::InvenBlockItem *,ioUserBlockStorage::InvenBlockItemSort,ioUserBlockStorage::InvenBlockItem>
;	COMDAT xdata$x
; File c:\program files (x86)\microsoft visual studio 10.0\vc\include\utility
xdata$x	SEGMENT
__unwindtable$??$_Insertion_sort1@PAUInvenBlockItem@ioUserBlockStorage@@VInvenBlockItemSort@2@U12@@std@@YAXPAUInvenBlockItem@ioUserBlockStorage@@0VInvenBlockItemSort@2@0@Z DD 0ffffffffH
	DD	FLAT:__unwindfunclet$??$_Insertion_sort1@PAUInvenBlockItem@ioUserBlockStorage@@VInvenBlockItemSort@2@U12@@std@@YAXPAUInvenBlockItem@ioUserBlockStorage@@0VInvenBlockItemSort@2@0@Z$0
__ehfuncinfo$??$_Insertion_sort1@PAUInvenBlockItem@ioUserBlockStorage@@VInvenBlockItemSort@2@U12@@std@@YAXPAUInvenBlockItem@ioUserBlockStorage@@0VInvenBlockItemSort@2@0@Z DD 019930522H
	DD	01H
	DD	FLAT:__unwindtable$??$_Insertion_sort1@PAUInvenBlockItem@ioUserBlockStorage@@VInvenBlockItemSort@2@U12@@std@@YAXPAUInvenBlockItem@ioUserBlockStorage@@0VInvenBlockItemSort@2@0@Z
	DD	2 DUP(00H)
	DD	2 DUP(00H)
	DD	00H
	DD	01H
; Function compile flags: /Ogsp
; File c:\program files (x86)\microsoft visual studio 10.0\vc\include\algorithm
xdata$x	ENDS
;	COMDAT ??$_Insertion_sort1@PAUInvenBlockItem@ioUserBlockStorage@@VInvenBlockItemSort@2@U12@@std@@YAXPAUInvenBlockItem@ioUserBlockStorage@@0VInvenBlockItemSort@2@0@Z
_TEXT	SEGMENT
__Val$511096 = -68					; size = 56
__$EHRec$ = -12						; size = 12
__Next1$511095 = 8					; size = 4
__First$ = 8						; size = 4
__Cat$512723 = 12					; size = 1
__Last$ = 12						; size = 4
__Pred$ = 16						; size = 1
___formal$ = 20						; size = 4
??$_Insertion_sort1@PAUInvenBlockItem@ioUserBlockStorage@@VInvenBlockItemSort@2@U12@@std@@YAXPAUInvenBlockItem@ioUserBlockStorage@@0VInvenBlockItemSort@2@0@Z PROC ; std::_Insertion_sort1<ioUserBlockStorage::InvenBlockItem *,ioUserBlockStorage::InvenBlockItemSort,ioUserBlockStorage::InvenBlockItem>, COMDAT

; 3650 : 	{	// insertion sort [_First, _Last), using _Pred

  00000	6a 38		 push	 56			; 00000038H
  00002	b8 00 00 00 00	 mov	 eax, __ehhandler$??$_Insertion_sort1@PAUInvenBlockItem@ioUserBlockStorage@@VInvenBlockItemSort@2@U12@@std@@YAXPAUInvenBlockItem@ioUserBlockStorage@@0VInvenBlockItemSort@2@0@Z
  00007	e8 00 00 00 00	 call	 __EH_prolog3

; 3651 : 	if (_First != _Last)

  0000c	8b 5d 08	 mov	 ebx, DWORD PTR __First$[ebp]
  0000f	3b 5d 0c	 cmp	 ebx, DWORD PTR __Last$[ebp]
  00012	74 4d		 je	 SHORT $LN6@Insertion_

; 3652 : 		for (_BidIt _Next = _First; ++_Next != _Last; )

  00014	8d 73 38	 lea	 esi, DWORD PTR [ebx+56]
  00017	eb 43		 jmp	 SHORT $LN36@Insertion_
$LL7@Insertion_:

; 3653 : 			{	// order next element
; 3654 : 			_BidIt _Next1 = _Next;
; 3655 : 			_Ty _Val = _Move(*_Next);

  00019	56		 push	 esi
  0001a	8d 4d bc	 lea	 ecx, DWORD PTR __Val$511096[ebp]
  0001d	89 75 08	 mov	 DWORD PTR __Next1$511095[ebp], esi
  00020	e8 00 00 00 00	 call	 ??0InvenBlockItem@ioUserBlockStorage@@QAE@ABU01@@Z

; 3656 : 
; 3657 : 			if (_DEBUG_LT_PRED(_Pred, _Val, *_First))

  00025	8b 45 e0	 mov	 eax, DWORD PTR __Val$511096[ebp+36]
  00028	83 65 fc 00	 and	 DWORD PTR __$EHRec$[ebp+8], 0
  0002c	3b 43 24	 cmp	 eax, DWORD PTR [ebx+36]
  0002f	7d 36		 jge	 SHORT $LN5@Insertion_

; 3658 : 				{	// found new earliest element, move to front
; 3659 : 				_Move_backward(_First, _Next, ++_Next1);

  00031	ff 75 0c	 push	 DWORD PTR __Cat$512723[ebp]
  00034	8d 46 38	 lea	 eax, DWORD PTR [esi+56]
  00037	50		 push	 eax
  00038	56		 push	 esi
  00039	53		 push	 ebx
  0003a	e8 00 00 00 00	 call	 ??$_Move_backward@PAUInvenBlockItem@ioUserBlockStorage@@PAU12@@std@@YAPAUInvenBlockItem@ioUserBlockStorage@@PAU12@00U_Nonscalar_ptr_iterator_tag@0@@Z ; std::_Move_backward<ioUserBlockStorage::InvenBlockItem *,ioUserBlockStorage::InvenBlockItem *>
  0003f	83 c4 10	 add	 esp, 16			; 00000010H

; 3660 : 				*_First = _Move(_Val);

  00042	8b cb		 mov	 ecx, ebx
$LN37@Insertion_:

; 3668 : 				*_Next1 = _Move(_Val);	// insert element in hole

  00044	8d 45 bc	 lea	 eax, DWORD PTR __Val$511096[ebp]
  00047	50		 push	 eax
  00048	e8 00 00 00 00	 call	 ??4InvenBlockItem@ioUserBlockStorage@@QAEAAU01@ABU01@@Z

; 3669 : 				}
; 3670 : 			}

  0004d	83 4d fc ff	 or	 DWORD PTR __$EHRec$[ebp+8], -1
  00051	8d 4d bc	 lea	 ecx, DWORD PTR __Val$511096[ebp]
  00054	e8 00 00 00 00	 call	 ??1InvenBlockItem@ioUserBlockStorage@@QAE@XZ
  00059	83 c6 38	 add	 esi, 56			; 00000038H
$LN36@Insertion_:

; 3652 : 		for (_BidIt _Next = _First; ++_Next != _Last; )

  0005c	3b 75 0c	 cmp	 esi, DWORD PTR __Last$[ebp]
  0005f	75 b8		 jne	 SHORT $LL7@Insertion_
$LN6@Insertion_:

; 3671 : 	}

  00061	e8 00 00 00 00	 call	 __EH_epilog3
  00066	c3		 ret	 0
$LN5@Insertion_:

; 3661 : 				}
; 3662 : 			else
; 3663 : 				{	// look for insertion point after first
; 3664 : 				for (_BidIt _First1 = _Next1;

  00067	8b fe		 mov	 edi, esi
$LL3@Insertion_:

; 3665 : 					_DEBUG_LT_PRED(_Pred, _Val, *--_First1);
; 3666 : 					_Next1 = _First1)

  00069	8b 45 e0	 mov	 eax, DWORD PTR __Val$511096[ebp+36]

; 3667 : 					*_Next1 = _Move(*_First1);	// move hole down

  0006c	8b 4d 08	 mov	 ecx, DWORD PTR __Next1$511095[ebp]
  0006f	83 ef 38	 sub	 edi, 56			; 00000038H
  00072	3b 47 24	 cmp	 eax, DWORD PTR [edi+36]
  00075	7d cd		 jge	 SHORT $LN37@Insertion_
  00077	57		 push	 edi
  00078	e8 00 00 00 00	 call	 ??4InvenBlockItem@ioUserBlockStorage@@QAEAAU01@ABU01@@Z
  0007d	89 7d 08	 mov	 DWORD PTR __Next1$511095[ebp], edi
  00080	eb e7		 jmp	 SHORT $LL3@Insertion_
_TEXT	ENDS
;	COMDAT text$x
text$x	SEGMENT
__unwindfunclet$??$_Insertion_sort1@PAUInvenBlockItem@ioUserBlockStorage@@VInvenBlockItemSort@2@U12@@std@@YAXPAUInvenBlockItem@ioUserBlockStorage@@0VInvenBlockItemSort@2@0@Z$0:
  00000	8d 4d bc	 lea	 ecx, DWORD PTR __Val$511096[ebp]
  00003	e9 00 00 00 00	 jmp	 ??1InvenBlockItem@ioUserBlockStorage@@QAE@XZ
__ehhandler$??$_Insertion_sort1@PAUInvenBlockItem@ioUserBlockStorage@@VInvenBlockItemSort@2@U12@@std@@YAXPAUInvenBlockItem@ioUserBlockStorage@@0VInvenBlockItemSort@2@0@Z:
  00008	8b 54 24 08	 mov	 edx, DWORD PTR [esp+8]
  0000c	8d 42 0c	 lea	 eax, DWORD PTR [edx+12]
  0000f	8b 4a b8	 mov	 ecx, DWORD PTR [edx-72]
  00012	33 c8		 xor	 ecx, eax
  00014	e8 00 00 00 00	 call	 @__security_check_cookie@4
  00019	b8 00 00 00 00	 mov	 eax, OFFSET __ehfuncinfo$??$_Insertion_sort1@PAUInvenBlockItem@ioUserBlockStorage@@VInvenBlockItemSort@2@U12@@std@@YAXPAUInvenBlockItem@ioUserBlockStorage@@0VInvenBlockItemSort@2@0@Z
  0001e	e9 00 00 00 00	 jmp	 ___CxxFrameHandler3
text$x	ENDS
??$_Insertion_sort1@PAUInvenBlockItem@ioUserBlockStorage@@VInvenBlockItemSort@2@U12@@std@@YAXPAUInvenBlockItem@ioUserBlockStorage@@0VInvenBlockItemSort@2@0@Z ENDP ; std::_Insertion_sort1<ioUserBlockStorage::InvenBlockItem *,ioUserBlockStorage::InvenBlockItemSort,ioUserBlockStorage::InvenBlockItem>
PUBLIC	??$_Cons_val@V?$allocator@VioBlockDBItem@@@std@@VioBlockDBItem@@V3@@std@@YAXAAV?$allocator@VioBlockDBItem@@@0@PAVioBlockDBItem@@$$QAV2@@Z ; std::_Cons_val<std::allocator<ioBlockDBItem>,ioBlockDBItem,ioBlockDBItem>
; Function compile flags: /Ogsp
; File c:\program files (x86)\microsoft visual studio 10.0\vc\include\xmemory
;	COMDAT ??$_Cons_val@V?$allocator@VioBlockDBItem@@@std@@VioBlockDBItem@@V3@@std@@YAXAAV?$allocator@VioBlockDBItem@@@0@PAVioBlockDBItem@@$$QAV2@@Z
_TEXT	SEGMENT
__Alval$ = 8						; size = 4
__Pdest$ = 12						; size = 4
__Src$ = 16						; size = 4
??$_Cons_val@V?$allocator@VioBlockDBItem@@@std@@VioBlockDBItem@@V3@@std@@YAXAAV?$allocator@VioBlockDBItem@@@0@PAVioBlockDBItem@@$$QAV2@@Z PROC ; std::_Cons_val<std::allocator<ioBlockDBItem>,ioBlockDBItem,ioBlockDBItem>, COMDAT

; 279  : 	{	// construct using allocator

  00000	55		 push	 ebp
  00001	8b ec		 mov	 ebp, esp

; 280  : 	_Alval.construct(_Pdest, _STD forward<_Ty2>(_Src));

  00003	8b 4d 0c	 mov	 ecx, DWORD PTR __Pdest$[ebp]
  00006	85 c9		 test	 ecx, ecx
  00008	74 08		 je	 SHORT $LN7@Cons_val@3
  0000a	ff 75 10	 push	 DWORD PTR __Src$[ebp]
  0000d	e8 00 00 00 00	 call	 ??0ioBlockDBItem@@QAE@ABV0@@Z
$LN7@Cons_val@3:

; 281  : 	}

  00012	5d		 pop	 ebp
  00013	c3		 ret	 0
??$_Cons_val@V?$allocator@VioBlockDBItem@@@std@@VioBlockDBItem@@V3@@std@@YAXAAV?$allocator@VioBlockDBItem@@@0@PAVioBlockDBItem@@$$QAV2@@Z ENDP ; std::_Cons_val<std::allocator<ioBlockDBItem>,ioBlockDBItem,ioBlockDBItem>
_TEXT	ENDS
PUBLIC	??$_Cons_val@V?$allocator@UInvenBlockItem@ioUserBlockStorage@@@std@@UInvenBlockItem@ioUserBlockStorage@@U34@@std@@YAXAAV?$allocator@UInvenBlockItem@ioUserBlockStorage@@@0@PAUInvenBlockItem@ioUserBlockStorage@@$$QAU23@@Z ; std::_Cons_val<std::allocator<ioUserBlockStorage::InvenBlockItem>,ioUserBlockStorage::InvenBlockItem,ioUserBlockStorage::InvenBlockItem>
;	COMDAT xdata$x
; File c:\program files (x86)\microsoft visual studio 10.0\vc\include\utility
xdata$x	SEGMENT
__unwindtable$??$_Cons_val@V?$allocator@UInvenBlockItem@ioUserBlockStorage@@@std@@UInvenBlockItem@ioUserBlockStorage@@U34@@std@@YAXAAV?$allocator@UInvenBlockItem@ioUserBlockStorage@@@0@PAUInvenBlockItem@ioUserBlockStorage@@$$QAU23@@Z DD 0ffffffffH
	DD	FLAT:__unwindfunclet$??$_Cons_val@V?$allocator@UInvenBlockItem@ioUserBlockStorage@@@std@@UInvenBlockItem@ioUserBlockStorage@@U34@@std@@YAXAAV?$allocator@UInvenBlockItem@ioUserBlockStorage@@@0@PAUInvenBlockItem@ioUserBlockStorage@@$$QAU23@@Z$0
__ehfuncinfo$??$_Cons_val@V?$allocator@UInvenBlockItem@ioUserBlockStorage@@@std@@UInvenBlockItem@ioUserBlockStorage@@U34@@std@@YAXAAV?$allocator@UInvenBlockItem@ioUserBlockStorage@@@0@PAUInvenBlockItem@ioUserBlockStorage@@$$QAU23@@Z DD 019930522H
	DD	01H
	DD	FLAT:__unwindtable$??$_Cons_val@V?$allocator@UInvenBlockItem@ioUserBlockStorage@@@std@@UInvenBlockItem@ioUserBlockStorage@@U34@@std@@YAXAAV?$allocator@UInvenBlockItem@ioUserBlockStorage@@@0@PAUInvenBlockItem@ioUserBlockStorage@@$$QAU23@@Z
	DD	2 DUP(00H)
	DD	2 DUP(00H)
	DD	00H
	DD	01H
; Function compile flags: /Ogsp
; File c:\program files (x86)\microsoft visual studio 10.0\vc\include\xmemory
xdata$x	ENDS
;	COMDAT ??$_Cons_val@V?$allocator@UInvenBlockItem@ioUserBlockStorage@@@std@@UInvenBlockItem@ioUserBlockStorage@@U34@@std@@YAXAAV?$allocator@UInvenBlockItem@ioUserBlockStorage@@@0@PAUInvenBlockItem@ioUserBlockStorage@@$$QAU23@@Z
_TEXT	SEGMENT
$T512798 = -16						; size = 4
__$EHRec$ = -12						; size = 12
__Alval$ = 8						; size = 4
__Pdest$ = 12						; size = 4
__Src$ = 16						; size = 4
??$_Cons_val@V?$allocator@UInvenBlockItem@ioUserBlockStorage@@@std@@UInvenBlockItem@ioUserBlockStorage@@U34@@std@@YAXAAV?$allocator@UInvenBlockItem@ioUserBlockStorage@@@0@PAUInvenBlockItem@ioUserBlockStorage@@$$QAU23@@Z PROC ; std::_Cons_val<std::allocator<ioUserBlockStorage::InvenBlockItem>,ioUserBlockStorage::InvenBlockItem,ioUserBlockStorage::InvenBlockItem>, COMDAT

; 279  : 	{	// construct using allocator

  00000	6a 04		 push	 4
  00002	b8 00 00 00 00	 mov	 eax, __ehhandler$??$_Cons_val@V?$allocator@UInvenBlockItem@ioUserBlockStorage@@@std@@UInvenBlockItem@ioUserBlockStorage@@U34@@std@@YAXAAV?$allocator@UInvenBlockItem@ioUserBlockStorage@@@0@PAUInvenBlockItem@ioUserBlockStorage@@$$QAU23@@Z
  00007	e8 00 00 00 00	 call	 __EH_prolog3

; 280  : 	_Alval.construct(_Pdest, _STD forward<_Ty2>(_Src));

  0000c	8b 4d 0c	 mov	 ecx, DWORD PTR __Pdest$[ebp]
  0000f	89 4d f0	 mov	 DWORD PTR $T512798[ebp], ecx
  00012	83 65 fc 00	 and	 DWORD PTR __$EHRec$[ebp+8], 0
  00016	85 c9		 test	 ecx, ecx
  00018	74 08		 je	 SHORT $LN7@Cons_val@4
  0001a	ff 75 10	 push	 DWORD PTR __Src$[ebp]
  0001d	e8 00 00 00 00	 call	 ??0InvenBlockItem@ioUserBlockStorage@@QAE@ABU01@@Z
$LN7@Cons_val@4:

; 281  : 	}

  00022	e8 00 00 00 00	 call	 __EH_epilog3
  00027	c3		 ret	 0
_TEXT	ENDS
;	COMDAT text$x
text$x	SEGMENT
__unwindfunclet$??$_Cons_val@V?$allocator@UInvenBlockItem@ioUserBlockStorage@@@std@@UInvenBlockItem@ioUserBlockStorage@@U34@@std@@YAXAAV?$allocator@UInvenBlockItem@ioUserBlockStorage@@@0@PAUInvenBlockItem@ioUserBlockStorage@@$$QAU23@@Z$0:
  00000	ff 75 0c	 push	 DWORD PTR __Pdest$[ebp]
  00003	ff 75 f0	 push	 DWORD PTR $T512798[ebp]
  00006	e8 00 00 00 00	 call	 ??3@YAXPAX0@Z		; operator delete
  0000b	59		 pop	 ecx
  0000c	59		 pop	 ecx
  0000d	c3		 ret	 0
__ehhandler$??$_Cons_val@V?$allocator@UInvenBlockItem@ioUserBlockStorage@@@std@@UInvenBlockItem@ioUserBlockStorage@@U34@@std@@YAXAAV?$allocator@UInvenBlockItem@ioUserBlockStorage@@@0@PAUInvenBlockItem@ioUserBlockStorage@@$$QAU23@@Z:
  0000e	8b 54 24 08	 mov	 edx, DWORD PTR [esp+8]
  00012	8d 42 0c	 lea	 eax, DWORD PTR [edx+12]
  00015	8b 4a ec	 mov	 ecx, DWORD PTR [edx-20]
  00018	33 c8		 xor	 ecx, eax
  0001a	e8 00 00 00 00	 call	 @__security_check_cookie@4
  0001f	b8 00 00 00 00	 mov	 eax, OFFSET __ehfuncinfo$??$_Cons_val@V?$allocator@UInvenBlockItem@ioUserBlockStorage@@@std@@UInvenBlockItem@ioUserBlockStorage@@U34@@std@@YAXAAV?$allocator@UInvenBlockItem@ioUserBlockStorage@@@0@PAUInvenBlockItem@ioUserBlockStorage@@$$QAU23@@Z
  00024	e9 00 00 00 00	 jmp	 ___CxxFrameHandler3
text$x	ENDS
??$_Cons_val@V?$allocator@UInvenBlockItem@ioUserBlockStorage@@@std@@UInvenBlockItem@ioUserBlockStorage@@U34@@std@@YAXAAV?$allocator@UInvenBlockItem@ioUserBlockStorage@@@0@PAUInvenBlockItem@ioUserBlockStorage@@$$QAU23@@Z ENDP ; std::_Cons_val<std::allocator<ioUserBlockStorage::InvenBlockItem>,ioUserBlockStorage::InvenBlockItem,ioUserBlockStorage::InvenBlockItem>
PUBLIC	??$_Med3@PAUInvenBlockItem@ioUserBlockStorage@@VInvenBlockItemSort@2@@std@@YAXPAUInvenBlockItem@ioUserBlockStorage@@00VInvenBlockItemSort@2@@Z ; std::_Med3<ioUserBlockStorage::InvenBlockItem *,ioUserBlockStorage::InvenBlockItemSort>
; Function compile flags: /Ogsp
; File c:\program files (x86)\microsoft visual studio 10.0\vc\include\algorithm
;	COMDAT ??$_Med3@PAUInvenBlockItem@ioUserBlockStorage@@VInvenBlockItemSort@2@@std@@YAXPAUInvenBlockItem@ioUserBlockStorage@@00VInvenBlockItemSort@2@@Z
_TEXT	SEGMENT
__First$ = 8						; size = 4
__Mid$ = 12						; size = 4
__Last$ = 16						; size = 4
__Pred$ = 20						; size = 1
??$_Med3@PAUInvenBlockItem@ioUserBlockStorage@@VInvenBlockItemSort@2@@std@@YAXPAUInvenBlockItem@ioUserBlockStorage@@00VInvenBlockItemSort@2@@Z PROC ; std::_Med3<ioUserBlockStorage::InvenBlockItem *,ioUserBlockStorage::InvenBlockItemSort>, COMDAT

; 3683 : 	{	// sort median of three elements to middle

  00000	55		 push	 ebp
  00001	8b ec		 mov	 ebp, esp
  00003	56		 push	 esi

; 3684 : 	if (_DEBUG_LT_PRED(_Pred, *_Mid, *_First))

  00004	8b 75 0c	 mov	 esi, DWORD PTR __Mid$[ebp]
  00007	8b 46 24	 mov	 eax, DWORD PTR [esi+36]
  0000a	57		 push	 edi
  0000b	8b 7d 08	 mov	 edi, DWORD PTR __First$[ebp]
  0000e	3b 47 24	 cmp	 eax, DWORD PTR [edi+36]
  00011	7d 09		 jge	 SHORT $LN9@Med3

; 3685 : 		_STD iter_swap(_Mid, _First);

  00013	57		 push	 edi
  00014	56		 push	 esi
  00015	e8 00 00 00 00	 call	 ??$swap@UInvenBlockItem@ioUserBlockStorage@@@std@@YAXAAUInvenBlockItem@ioUserBlockStorage@@0@Z ; std::swap<ioUserBlockStorage::InvenBlockItem>
  0001a	59		 pop	 ecx
  0001b	59		 pop	 ecx
$LN9@Med3:

; 3686 : 	if (_DEBUG_LT_PRED(_Pred, *_Last, *_Mid))

  0001c	8b 45 10	 mov	 eax, DWORD PTR __Last$[ebp]
  0001f	8b 48 24	 mov	 ecx, DWORD PTR [eax+36]
  00022	3b 4e 24	 cmp	 ecx, DWORD PTR [esi+36]
  00025	7d 09		 jge	 SHORT $LN14@Med3

; 3687 : 		_STD iter_swap(_Last, _Mid);

  00027	56		 push	 esi
  00028	50		 push	 eax
  00029	e8 00 00 00 00	 call	 ??$swap@UInvenBlockItem@ioUserBlockStorage@@@std@@YAXAAUInvenBlockItem@ioUserBlockStorage@@0@Z ; std::swap<ioUserBlockStorage::InvenBlockItem>
  0002e	59		 pop	 ecx
  0002f	59		 pop	 ecx
$LN14@Med3:

; 3688 : 	if (_DEBUG_LT_PRED(_Pred, *_Mid, *_First))

  00030	8b 46 24	 mov	 eax, DWORD PTR [esi+36]
  00033	3b 47 24	 cmp	 eax, DWORD PTR [edi+36]
  00036	7d 09		 jge	 SHORT $LN19@Med3

; 3689 : 		_STD iter_swap(_Mid, _First);

  00038	57		 push	 edi
  00039	56		 push	 esi
  0003a	e8 00 00 00 00	 call	 ??$swap@UInvenBlockItem@ioUserBlockStorage@@@std@@YAXAAUInvenBlockItem@ioUserBlockStorage@@0@Z ; std::swap<ioUserBlockStorage::InvenBlockItem>
  0003f	59		 pop	 ecx
  00040	59		 pop	 ecx
$LN19@Med3:
  00041	5f		 pop	 edi
  00042	5e		 pop	 esi

; 3690 : 	}

  00043	5d		 pop	 ebp
  00044	c3		 ret	 0
??$_Med3@PAUInvenBlockItem@ioUserBlockStorage@@VInvenBlockItemSort@2@@std@@YAXPAUInvenBlockItem@ioUserBlockStorage@@00VInvenBlockItemSort@2@@Z ENDP ; std::_Med3<ioUserBlockStorage::InvenBlockItem *,ioUserBlockStorage::InvenBlockItemSort>
_TEXT	ENDS
PUBLIC	??$_Pop_heap_0@PAUInvenBlockItem@ioUserBlockStorage@@U12@VInvenBlockItemSort@2@@std@@YAXPAUInvenBlockItem@ioUserBlockStorage@@0VInvenBlockItemSort@2@0@Z ; std::_Pop_heap_0<ioUserBlockStorage::InvenBlockItem *,ioUserBlockStorage::InvenBlockItem,ioUserBlockStorage::InvenBlockItemSort>
;	COMDAT xdata$x
; File c:\program files (x86)\microsoft visual studio 10.0\vc\include\utility
xdata$x	SEGMENT
__unwindtable$??$_Pop_heap_0@PAUInvenBlockItem@ioUserBlockStorage@@U12@VInvenBlockItemSort@2@@std@@YAXPAUInvenBlockItem@ioUserBlockStorage@@0VInvenBlockItemSort@2@0@Z DD 0ffffffffH
	DD	FLAT:__unwindfunclet$??$_Pop_heap_0@PAUInvenBlockItem@ioUserBlockStorage@@U12@VInvenBlockItemSort@2@@std@@YAXPAUInvenBlockItem@ioUserBlockStorage@@0VInvenBlockItemSort@2@0@Z$0
__ehfuncinfo$??$_Pop_heap_0@PAUInvenBlockItem@ioUserBlockStorage@@U12@VInvenBlockItemSort@2@@std@@YAXPAUInvenBlockItem@ioUserBlockStorage@@0VInvenBlockItemSort@2@0@Z DD 019930522H
	DD	01H
	DD	FLAT:__unwindtable$??$_Pop_heap_0@PAUInvenBlockItem@ioUserBlockStorage@@U12@VInvenBlockItemSort@2@@std@@YAXPAUInvenBlockItem@ioUserBlockStorage@@0VInvenBlockItemSort@2@0@Z
	DD	2 DUP(00H)
	DD	2 DUP(00H)
	DD	00H
	DD	01H
; Function compile flags: /Ogsp
; File c:\program files (x86)\microsoft visual studio 10.0\vc\include\algorithm
xdata$x	ENDS
;	COMDAT ??$_Pop_heap_0@PAUInvenBlockItem@ioUserBlockStorage@@U12@VInvenBlockItemSort@2@@std@@YAXPAUInvenBlockItem@ioUserBlockStorage@@0VInvenBlockItemSort@2@0@Z
_TEXT	SEGMENT
__Val$ = -68						; size = 56
__$EHRec$ = -12						; size = 12
__First$ = 8						; size = 4
__Last$ = 12						; size = 4
__Pred$ = 16						; size = 1
___formal$ = 20						; size = 4
??$_Pop_heap_0@PAUInvenBlockItem@ioUserBlockStorage@@U12@VInvenBlockItemSort@2@@std@@YAXPAUInvenBlockItem@ioUserBlockStorage@@0VInvenBlockItemSort@2@0@Z PROC ; std::_Pop_heap_0<ioUserBlockStorage::InvenBlockItem *,ioUserBlockStorage::InvenBlockItem,ioUserBlockStorage::InvenBlockItemSort>, COMDAT

; 2601 : 	{	// pop *_First to *(_Last - 1) and reheap, using _Pred

  00000	6a 38		 push	 56			; 00000038H
  00002	b8 00 00 00 00	 mov	 eax, __ehhandler$??$_Pop_heap_0@PAUInvenBlockItem@ioUserBlockStorage@@U12@VInvenBlockItemSort@2@@std@@YAXPAUInvenBlockItem@ioUserBlockStorage@@0VInvenBlockItemSort@2@0@Z
  00007	e8 00 00 00 00	 call	 __EH_prolog3

; 2602 : 	_Ty _Val = _Move(*(_Last - 1));

  0000c	8b 75 0c	 mov	 esi, DWORD PTR __Last$[ebp]
  0000f	83 c6 c8	 add	 esi, -56		; ffffffc8H
  00012	56		 push	 esi
  00013	8d 4d bc	 lea	 ecx, DWORD PTR __Val$[ebp]
  00016	e8 00 00 00 00	 call	 ??0InvenBlockItem@ioUserBlockStorage@@QAE@ABU01@@Z
  0001b	83 65 fc 00	 and	 DWORD PTR __$EHRec$[ebp+8], 0

; 2603 : 	_Pop_heap(_First, _Last - 1, _Last - 1,
; 2604 : 		_Move(_Val), _Pred, _Dist_type(_First));

  0001f	6a 00		 push	 0
  00021	ff 75 10	 push	 DWORD PTR __Pred$[ebp]
  00024	8d 45 bc	 lea	 eax, DWORD PTR __Val$[ebp]
  00027	50		 push	 eax
  00028	56		 push	 esi
  00029	56		 push	 esi
  0002a	ff 75 08	 push	 DWORD PTR __First$[ebp]
  0002d	e8 00 00 00 00	 call	 ??$_Pop_heap@PAUInvenBlockItem@ioUserBlockStorage@@HU12@VInvenBlockItemSort@2@@std@@YAXPAUInvenBlockItem@ioUserBlockStorage@@00$$QAU12@VInvenBlockItemSort@2@PAH@Z ; std::_Pop_heap<ioUserBlockStorage::InvenBlockItem *,int,ioUserBlockStorage::InvenBlockItem,ioUserBlockStorage::InvenBlockItemSort>

; 2605 : 	}

  00032	83 4d fc ff	 or	 DWORD PTR __$EHRec$[ebp+8], -1
  00036	83 c4 18	 add	 esp, 24			; 00000018H
  00039	8d 4d bc	 lea	 ecx, DWORD PTR __Val$[ebp]
  0003c	e8 00 00 00 00	 call	 ??1InvenBlockItem@ioUserBlockStorage@@QAE@XZ
  00041	e8 00 00 00 00	 call	 __EH_epilog3
  00046	c3		 ret	 0
_TEXT	ENDS
;	COMDAT text$x
text$x	SEGMENT
__unwindfunclet$??$_Pop_heap_0@PAUInvenBlockItem@ioUserBlockStorage@@U12@VInvenBlockItemSort@2@@std@@YAXPAUInvenBlockItem@ioUserBlockStorage@@0VInvenBlockItemSort@2@0@Z$0:
  00000	8d 4d bc	 lea	 ecx, DWORD PTR __Val$[ebp]
  00003	e9 00 00 00 00	 jmp	 ??1InvenBlockItem@ioUserBlockStorage@@QAE@XZ
__ehhandler$??$_Pop_heap_0@PAUInvenBlockItem@ioUserBlockStorage@@U12@VInvenBlockItemSort@2@@std@@YAXPAUInvenBlockItem@ioUserBlockStorage@@0VInvenBlockItemSort@2@0@Z:
  00008	8b 54 24 08	 mov	 edx, DWORD PTR [esp+8]
  0000c	8d 42 0c	 lea	 eax, DWORD PTR [edx+12]
  0000f	8b 4a b8	 mov	 ecx, DWORD PTR [edx-72]
  00012	33 c8		 xor	 ecx, eax
  00014	e8 00 00 00 00	 call	 @__security_check_cookie@4
  00019	b8 00 00 00 00	 mov	 eax, OFFSET __ehfuncinfo$??$_Pop_heap_0@PAUInvenBlockItem@ioUserBlockStorage@@U12@VInvenBlockItemSort@2@@std@@YAXPAUInvenBlockItem@ioUserBlockStorage@@0VInvenBlockItemSort@2@0@Z
  0001e	e9 00 00 00 00	 jmp	 ___CxxFrameHandler3
text$x	ENDS
??$_Pop_heap_0@PAUInvenBlockItem@ioUserBlockStorage@@U12@VInvenBlockItemSort@2@@std@@YAXPAUInvenBlockItem@ioUserBlockStorage@@0VInvenBlockItemSort@2@0@Z ENDP ; std::_Pop_heap_0<ioUserBlockStorage::InvenBlockItem *,ioUserBlockStorage::InvenBlockItem,ioUserBlockStorage::InvenBlockItemSort>
PUBLIC	?GetInvenBlockItemByCode@ioUserBlockStorage@@QAEPAUInvenBlockItem@1@H_N@Z ; ioUserBlockStorage::GetInvenBlockItemByCode
; Function compile flags: /Ogsp
; File d:\lost saga for developer\youtube\tutorial\source\src\lsclient\housing\iouserblockstorage.cpp
;	COMDAT ?GetInvenBlockItemByCode@ioUserBlockStorage@@QAEPAUInvenBlockItem@1@H_N@Z
_TEXT	SEGMENT
_nCode$ = 8						; size = 4
_bZeroNtoNull$ = 12					; size = 1
?GetInvenBlockItemByCode@ioUserBlockStorage@@QAEPAUInvenBlockItem@1@H_N@Z PROC ; ioUserBlockStorage::GetInvenBlockItemByCode, COMDAT
; _this$ = ecx

; 81   : {

  00000	55		 push	 ebp
  00001	8b ec		 mov	 ebp, esp

; 82   : 	for( InvenBlockItemList::iterator iter = m_InvenBlockItemList.begin(); iter != m_InvenBlockItemList.end(); ++iter ) 

  00003	8b 41 14	 mov	 eax, DWORD PTR [ecx+20]
  00006	8b 49 18	 mov	 ecx, DWORD PTR [ecx+24]
  00009	eb 17		 jmp	 SHORT $LN41@GetInvenBl@2
$LL19@GetInvenBl@2:

; 83   : 	{
; 84   : 		InvenBlockItem& Item = *iter;
; 85   : 		if( Item.m_nBlockCode == nCode )

  0000b	8b 50 20	 mov	 edx, DWORD PTR [eax+32]
  0000e	3b 55 08	 cmp	 edx, DWORD PTR _nCode$[ebp]
  00011	75 0c		 jne	 SHORT $LN5@GetInvenBl@2

; 86   : 		{			
; 87   : 			if( 0 < Item.m_nCount || bZeroNtoNull )

  00013	83 78 30 00	 cmp	 DWORD PTR [eax+48], 0
  00017	7f 0f		 jg	 SHORT $LN7@GetInvenBl@2
  00019	80 7d 0c 00	 cmp	 BYTE PTR _bZeroNtoNull$[ebp], 0
  0001d	75 09		 jne	 SHORT $LN7@GetInvenBl@2
$LN5@GetInvenBl@2:

; 82   : 	for( InvenBlockItemList::iterator iter = m_InvenBlockItemList.begin(); iter != m_InvenBlockItemList.end(); ++iter ) 

  0001f	83 c0 38	 add	 eax, 56			; 00000038H
$LN41@GetInvenBl@2:
  00022	3b c1		 cmp	 eax, ecx
  00024	75 e5		 jne	 SHORT $LL19@GetInvenBl@2

; 88   : 				return &Item;
; 89   : 		}
; 90   : 	}
; 91   : 
; 92   : 	return NULL;

  00026	33 c0		 xor	 eax, eax
$LN7@GetInvenBl@2:

; 93   : }

  00028	5d		 pop	 ebp
  00029	c2 08 00	 ret	 8
?GetInvenBlockItemByCode@ioUserBlockStorage@@QAEPAUInvenBlockItem@1@H_N@Z ENDP ; ioUserBlockStorage::GetInvenBlockItemByCode
_TEXT	ENDS
PUBLIC	?IncreaseItem@ioUserBlockStorage@@QAEXH@Z	; ioUserBlockStorage::IncreaseItem
; Function compile flags: /Ogsp
;	COMDAT ?IncreaseItem@ioUserBlockStorage@@QAEXH@Z
_TEXT	SEGMENT
_nCode$ = 8						; size = 4
?IncreaseItem@ioUserBlockStorage@@QAEXH@Z PROC		; ioUserBlockStorage::IncreaseItem, COMDAT
; _this$ = ecx

; 106  : {

  00000	55		 push	 ebp
  00001	8b ec		 mov	 ebp, esp

; 107  : 	InvenBlockItem* pItem = GetInvenBlockItemByCode( nCode, true );

  00003	6a 01		 push	 1
  00005	ff 75 08	 push	 DWORD PTR _nCode$[ebp]
  00008	e8 00 00 00 00	 call	 ?GetInvenBlockItemByCode@ioUserBlockStorage@@QAEPAUInvenBlockItem@1@H_N@Z ; ioUserBlockStorage::GetInvenBlockItemByCode

; 108  : 	if( pItem )

  0000d	85 c0		 test	 eax, eax
  0000f	74 03		 je	 SHORT $LN1@IncreaseIt

; 109  : 	{
; 110  : 		pItem->m_nCount++;

  00011	ff 40 30	 inc	 DWORD PTR [eax+48]
$LN1@IncreaseIt:

; 111  : 	}
; 112  : }

  00014	5d		 pop	 ebp
  00015	c2 04 00	 ret	 4
?IncreaseItem@ioUserBlockStorage@@QAEXH@Z ENDP		; ioUserBlockStorage::IncreaseItem
_TEXT	ENDS
PUBLIC	?DecreaseItem@ioUserBlockStorage@@QAEXH@Z	; ioUserBlockStorage::DecreaseItem
; Function compile flags: /Ogsp
;	COMDAT ?DecreaseItem@ioUserBlockStorage@@QAEXH@Z
_TEXT	SEGMENT
_nCode$ = 8						; size = 4
?DecreaseItem@ioUserBlockStorage@@QAEXH@Z PROC		; ioUserBlockStorage::DecreaseItem, COMDAT
; _this$ = ecx

; 115  : {

  00000	55		 push	 ebp
  00001	8b ec		 mov	 ebp, esp
  00003	56		 push	 esi

; 116  : 	InvenBlockItem* pItem = GetInvenBlockItemByCode( nCode, true );

  00004	6a 01		 push	 1
  00006	ff 75 08	 push	 DWORD PTR _nCode$[ebp]
  00009	8b f1		 mov	 esi, ecx
  0000b	e8 00 00 00 00	 call	 ?GetInvenBlockItemByCode@ioUserBlockStorage@@QAEPAUInvenBlockItem@1@H_N@Z ; ioUserBlockStorage::GetInvenBlockItemByCode

; 117  : 	if( pItem )

  00010	85 c0		 test	 eax, eax
  00012	74 18		 je	 SHORT $LN1@DecreaseIt

; 118  : 	{
; 119  : 		pItem->m_nCount--;

  00014	ff 48 30	 dec	 DWORD PTR [eax+48]

; 120  : 
; 121  : 		// 0 
; 122  : 		if( pItem->m_nCount <= 0 )

  00017	83 78 30 00	 cmp	 DWORD PTR [eax+48], 0
  0001b	7f 0f		 jg	 SHORT $LN1@DecreaseIt

; 123  : 		{
; 124  : 			pItem->m_nCount = 0;

  0001d	83 60 30 00	 and	 DWORD PTR [eax+48], 0

; 125  : 
; 126  : 			//0    .
; 127  : 			m_CurrInvenItemIndex = 0;

  00021	83 66 24 00	 and	 DWORD PTR [esi+36], 0

; 128  : 			NextItem();

  00025	8b ce		 mov	 ecx, esi
  00027	e8 00 00 00 00	 call	 ?NextItem@ioUserBlockStorage@@QAEXXZ ; ioUserBlockStorage::NextItem
$LN1@DecreaseIt:
  0002c	5e		 pop	 esi

; 129  : 		}
; 130  : 	}
; 131  : }

  0002d	5d		 pop	 ebp
  0002e	c2 04 00	 ret	 4
?DecreaseItem@ioUserBlockStorage@@QAEXH@Z ENDP		; ioUserBlockStorage::DecreaseItem
_TEXT	ENDS
PUBLIC	??$_Cons_val@V?$allocator@VioBlockDBItem@@@std@@VioBlockDBItem@@ABV3@@std@@YAXAAV?$allocator@VioBlockDBItem@@@0@PAVioBlockDBItem@@ABV2@@Z ; std::_Cons_val<std::allocator<ioBlockDBItem>,ioBlockDBItem,ioBlockDBItem const &>
; Function compile flags: /Ogsp
; File c:\program files (x86)\microsoft visual studio 10.0\vc\include\xmemory
;	COMDAT ??$_Cons_val@V?$allocator@VioBlockDBItem@@@std@@VioBlockDBItem@@ABV3@@std@@YAXAAV?$allocator@VioBlockDBItem@@@0@PAVioBlockDBItem@@ABV2@@Z
_TEXT	SEGMENT
__Alval$ = 8						; size = 4
__Pdest$ = 12						; size = 4
__Src$ = 16						; size = 4
??$_Cons_val@V?$allocator@VioBlockDBItem@@@std@@VioBlockDBItem@@ABV3@@std@@YAXAAV?$allocator@VioBlockDBItem@@@0@PAVioBlockDBItem@@ABV2@@Z PROC ; std::_Cons_val<std::allocator<ioBlockDBItem>,ioBlockDBItem,ioBlockDBItem const &>, COMDAT

; 279  : 	{	// construct using allocator

  00000	55		 push	 ebp
  00001	8b ec		 mov	 ebp, esp

; 280  : 	_Alval.construct(_Pdest, _STD forward<_Ty2>(_Src));

  00003	8b 4d 0c	 mov	 ecx, DWORD PTR __Pdest$[ebp]
  00006	85 c9		 test	 ecx, ecx
  00008	74 08		 je	 SHORT $LN9@Cons_val@5
  0000a	ff 75 10	 push	 DWORD PTR __Src$[ebp]
  0000d	e8 00 00 00 00	 call	 ??0ioBlockDBItem@@QAE@ABV0@@Z
$LN9@Cons_val@5:

; 281  : 	}

  00012	5d		 pop	 ebp
  00013	c3		 ret	 0
??$_Cons_val@V?$allocator@VioBlockDBItem@@@std@@VioBlockDBItem@@ABV3@@std@@YAXAAV?$allocator@VioBlockDBItem@@@0@PAVioBlockDBItem@@ABV2@@Z ENDP ; std::_Cons_val<std::allocator<ioBlockDBItem>,ioBlockDBItem,ioBlockDBItem const &>
_TEXT	ENDS
PUBLIC	??$_Cons_val@V?$allocator@UInvenBlockItem@ioUserBlockStorage@@@std@@UInvenBlockItem@ioUserBlockStorage@@ABU34@@std@@YAXAAV?$allocator@UInvenBlockItem@ioUserBlockStorage@@@0@PAUInvenBlockItem@ioUserBlockStorage@@ABU23@@Z ; std::_Cons_val<std::allocator<ioUserBlockStorage::InvenBlockItem>,ioUserBlockStorage::InvenBlockItem,ioUserBlockStorage::InvenBlockItem const &>
; Function compile flags: /Ogsp
;	COMDAT ??$_Cons_val@V?$allocator@UInvenBlockItem@ioUserBlockStorage@@@std@@UInvenBlockItem@ioUserBlockStorage@@ABU34@@std@@YAXAAV?$allocator@UInvenBlockItem@ioUserBlockStorage@@@0@PAUInvenBlockItem@ioUserBlockStorage@@ABU23@@Z
_TEXT	SEGMENT
__Alval$ = 8						; size = 4
__Pdest$ = 12						; size = 4
__Src$ = 16						; size = 4
??$_Cons_val@V?$allocator@UInvenBlockItem@ioUserBlockStorage@@@std@@UInvenBlockItem@ioUserBlockStorage@@ABU34@@std@@YAXAAV?$allocator@UInvenBlockItem@ioUserBlockStorage@@@0@PAUInvenBlockItem@ioUserBlockStorage@@ABU23@@Z PROC ; std::_Cons_val<std::allocator<ioUserBlockStorage::InvenBlockItem>,ioUserBlockStorage::InvenBlockItem,ioUserBlockStorage::InvenBlockItem const &>, COMDAT

; 279  : 	{	// construct using allocator

  00000	55		 push	 ebp
  00001	8b ec		 mov	 ebp, esp

; 280  : 	_Alval.construct(_Pdest, _STD forward<_Ty2>(_Src));

  00003	ff 75 10	 push	 DWORD PTR __Src$[ebp]
  00006	ff 75 0c	 push	 DWORD PTR __Pdest$[ebp]
  00009	e8 00 00 00 00	 call	 ??$_Construct@UInvenBlockItem@ioUserBlockStorage@@ABU12@@std@@YAXPAUInvenBlockItem@ioUserBlockStorage@@ABU12@@Z ; std::_Construct<ioUserBlockStorage::InvenBlockItem,ioUserBlockStorage::InvenBlockItem const &>
  0000e	59		 pop	 ecx
  0000f	59		 pop	 ecx

; 281  : 	}

  00010	5d		 pop	 ebp
  00011	c3		 ret	 0
??$_Cons_val@V?$allocator@UInvenBlockItem@ioUserBlockStorage@@@std@@UInvenBlockItem@ioUserBlockStorage@@ABU34@@std@@YAXAAV?$allocator@UInvenBlockItem@ioUserBlockStorage@@@0@PAUInvenBlockItem@ioUserBlockStorage@@ABU23@@Z ENDP ; std::_Cons_val<std::allocator<ioUserBlockStorage::InvenBlockItem>,ioUserBlockStorage::InvenBlockItem,ioUserBlockStorage::InvenBlockItem const &>
_TEXT	ENDS
PUBLIC	??$_Destroy_range@V?$allocator@VioBlockDBItem@@@std@@@std@@YAXPAVioBlockDBItem@@0AAV?$allocator@VioBlockDBItem@@@0@U_Nonscalar_ptr_iterator_tag@0@@Z ; std::_Destroy_range<std::allocator<ioBlockDBItem> >
; Function compile flags: /Ogsp
;	COMDAT ??$_Destroy_range@V?$allocator@VioBlockDBItem@@@std@@@std@@YAXPAVioBlockDBItem@@0AAV?$allocator@VioBlockDBItem@@@0@U_Nonscalar_ptr_iterator_tag@0@@Z
_TEXT	SEGMENT
__First$ = 8						; size = 4
__Last$ = 12						; size = 4
__Al$ = 16						; size = 4
___formal$ = 20						; size = 1
??$_Destroy_range@V?$allocator@VioBlockDBItem@@@std@@@std@@YAXPAVioBlockDBItem@@0AAV?$allocator@VioBlockDBItem@@@0@U_Nonscalar_ptr_iterator_tag@0@@Z PROC ; std::_Destroy_range<std::allocator<ioBlockDBItem> >, COMDAT

; 95   : 	{	// destroy [_First, _Last), arbitrary type

  00000	55		 push	 ebp
  00001	8b ec		 mov	 ebp, esp
  00003	56		 push	 esi

; 96   : 	for (; _First != _Last; ++_First)

  00004	8b 75 08	 mov	 esi, DWORD PTR __First$[ebp]
  00007	eb 0b		 jmp	 SHORT $LN14@Destroy_ra
$LL3@Destroy_ra:

; 97   : 		_Dest_val(_Al, _First);

  00009	8b 06		 mov	 eax, DWORD PTR [esi]
  0000b	6a 00		 push	 0
  0000d	8b ce		 mov	 ecx, esi
  0000f	ff 10		 call	 DWORD PTR [eax]
  00011	83 c6 28	 add	 esi, 40			; 00000028H
$LN14@Destroy_ra:

; 96   : 	for (; _First != _Last; ++_First)

  00014	3b 75 0c	 cmp	 esi, DWORD PTR __Last$[ebp]
  00017	75 f0		 jne	 SHORT $LL3@Destroy_ra
  00019	5e		 pop	 esi

; 98   : 	}

  0001a	5d		 pop	 ebp
  0001b	c3		 ret	 0
??$_Destroy_range@V?$allocator@VioBlockDBItem@@@std@@@std@@YAXPAVioBlockDBItem@@0AAV?$allocator@VioBlockDBItem@@@0@U_Nonscalar_ptr_iterator_tag@0@@Z ENDP ; std::_Destroy_range<std::allocator<ioBlockDBItem> >
_TEXT	ENDS
PUBLIC	??$make_heap@PAUInvenBlockItem@ioUserBlockStorage@@VInvenBlockItemSort@2@@std@@YAXPAUInvenBlockItem@ioUserBlockStorage@@0VInvenBlockItemSort@2@@Z ; std::make_heap<ioUserBlockStorage::InvenBlockItem *,ioUserBlockStorage::InvenBlockItemSort>
; Function compile flags: /Ogsp
; File c:\program files (x86)\microsoft visual studio 10.0\vc\include\algorithm
;	COMDAT ??$make_heap@PAUInvenBlockItem@ioUserBlockStorage@@VInvenBlockItemSort@2@@std@@YAXPAUInvenBlockItem@ioUserBlockStorage@@0VInvenBlockItemSort@2@@Z
_TEXT	SEGMENT
__First$ = 8						; size = 4
__Last$ = 12						; size = 4
__Pred$ = 16						; size = 1
??$make_heap@PAUInvenBlockItem@ioUserBlockStorage@@VInvenBlockItemSort@2@@std@@YAXPAUInvenBlockItem@ioUserBlockStorage@@0VInvenBlockItemSort@2@@Z PROC ; std::make_heap<ioUserBlockStorage::InvenBlockItem *,ioUserBlockStorage::InvenBlockItemSort>, COMDAT

; 2672 : 	{	// make [_First, _Last) into a heap, using _Pred

  00000	55		 push	 ebp
  00001	8b ec		 mov	 ebp, esp

; 2673 : 	_DEBUG_RANGE(_First, _Last);
; 2674 : 	_DEBUG_POINTER(_Pred);
; 2675 : 	if (1 < _Last - _First)

  00003	8b 45 0c	 mov	 eax, DWORD PTR __Last$[ebp]
  00006	2b 45 08	 sub	 eax, DWORD PTR __First$[ebp]
  00009	6a 38		 push	 56			; 00000038H
  0000b	99		 cdq
  0000c	59		 pop	 ecx
  0000d	f7 f9		 idiv	 ecx
  0000f	83 f8 01	 cmp	 eax, 1
  00012	7e 15		 jle	 SHORT $LN1@make_heap

; 2676 : 		_Make_heap(_Unchecked(_First), _Unchecked(_Last), _Pred,
; 2677 : 			_Dist_type(_First), _Val_type(_First));

  00014	6a 00		 push	 0
  00016	6a 00		 push	 0
  00018	ff 75 10	 push	 DWORD PTR __Pred$[ebp]
  0001b	ff 75 0c	 push	 DWORD PTR __Last$[ebp]
  0001e	ff 75 08	 push	 DWORD PTR __First$[ebp]
  00021	e8 00 00 00 00	 call	 ??$_Make_heap@PAUInvenBlockItem@ioUserBlockStorage@@HU12@VInvenBlockItemSort@2@@std@@YAXPAUInvenBlockItem@ioUserBlockStorage@@0VInvenBlockItemSort@2@PAH0@Z ; std::_Make_heap<ioUserBlockStorage::InvenBlockItem *,int,ioUserBlockStorage::InvenBlockItem,ioUserBlockStorage::InvenBlockItemSort>
  00026	83 c4 14	 add	 esp, 20			; 00000014H
$LN1@make_heap:

; 2678 : 	}

  00029	5d		 pop	 ebp
  0002a	c3		 ret	 0
??$make_heap@PAUInvenBlockItem@ioUserBlockStorage@@VInvenBlockItemSort@2@@std@@YAXPAUInvenBlockItem@ioUserBlockStorage@@0VInvenBlockItemSort@2@@Z ENDP ; std::make_heap<ioUserBlockStorage::InvenBlockItem *,ioUserBlockStorage::InvenBlockItemSort>
_TEXT	ENDS
PUBLIC	??$_Insertion_sort@PAUInvenBlockItem@ioUserBlockStorage@@VInvenBlockItemSort@2@@std@@YAXPAUInvenBlockItem@ioUserBlockStorage@@0VInvenBlockItemSort@2@@Z ; std::_Insertion_sort<ioUserBlockStorage::InvenBlockItem *,ioUserBlockStorage::InvenBlockItemSort>
; Function compile flags: /Ogsp
;	COMDAT ??$_Insertion_sort@PAUInvenBlockItem@ioUserBlockStorage@@VInvenBlockItemSort@2@@std@@YAXPAUInvenBlockItem@ioUserBlockStorage@@0VInvenBlockItemSort@2@@Z
_TEXT	SEGMENT
__First$ = 8						; size = 4
__Last$ = 12						; size = 4
__Pred$ = 16						; size = 1
??$_Insertion_sort@PAUInvenBlockItem@ioUserBlockStorage@@VInvenBlockItemSort@2@@std@@YAXPAUInvenBlockItem@ioUserBlockStorage@@0VInvenBlockItemSort@2@@Z PROC ; std::_Insertion_sort<ioUserBlockStorage::InvenBlockItem *,ioUserBlockStorage::InvenBlockItemSort>, COMDAT

; 3676 : 	{	// insertion sort [_First, _Last), using _Pred

  00000	55		 push	 ebp
  00001	8b ec		 mov	 ebp, esp

; 3677 : 	_Insertion_sort1(_First, _Last, _Pred, _Val_type(_First));

  00003	6a 00		 push	 0
  00005	ff 75 10	 push	 DWORD PTR __Pred$[ebp]
  00008	ff 75 0c	 push	 DWORD PTR __Last$[ebp]
  0000b	ff 75 08	 push	 DWORD PTR __First$[ebp]
  0000e	e8 00 00 00 00	 call	 ??$_Insertion_sort1@PAUInvenBlockItem@ioUserBlockStorage@@VInvenBlockItemSort@2@U12@@std@@YAXPAUInvenBlockItem@ioUserBlockStorage@@0VInvenBlockItemSort@2@0@Z ; std::_Insertion_sort1<ioUserBlockStorage::InvenBlockItem *,ioUserBlockStorage::InvenBlockItemSort,ioUserBlockStorage::InvenBlockItem>
  00013	83 c4 10	 add	 esp, 16			; 00000010H

; 3678 : 	}

  00016	5d		 pop	 ebp
  00017	c3		 ret	 0
??$_Insertion_sort@PAUInvenBlockItem@ioUserBlockStorage@@VInvenBlockItemSort@2@@std@@YAXPAUInvenBlockItem@ioUserBlockStorage@@0VInvenBlockItemSort@2@@Z ENDP ; std::_Insertion_sort<ioUserBlockStorage::InvenBlockItem *,ioUserBlockStorage::InvenBlockItemSort>
_TEXT	ENDS
PUBLIC	??$_Dest_val@V?$allocator@UInvenBlockItem@ioUserBlockStorage@@@std@@UInvenBlockItem@ioUserBlockStorage@@@std@@YAXAAV?$allocator@UInvenBlockItem@ioUserBlockStorage@@@0@PAUInvenBlockItem@ioUserBlockStorage@@@Z ; std::_Dest_val<std::allocator<ioUserBlockStorage::InvenBlockItem>,ioUserBlockStorage::InvenBlockItem>
; Function compile flags: /Ogsp
; File c:\program files (x86)\microsoft visual studio 10.0\vc\include\xmemory
;	COMDAT ??$_Dest_val@V?$allocator@UInvenBlockItem@ioUserBlockStorage@@@std@@UInvenBlockItem@ioUserBlockStorage@@@std@@YAXAAV?$allocator@UInvenBlockItem@ioUserBlockStorage@@@0@PAUInvenBlockItem@ioUserBlockStorage@@@Z
_TEXT	SEGMENT
__Alval$ = 8						; size = 4
__Pdest$ = 12						; size = 4
??$_Dest_val@V?$allocator@UInvenBlockItem@ioUserBlockStorage@@@std@@UInvenBlockItem@ioUserBlockStorage@@@std@@YAXAAV?$allocator@UInvenBlockItem@ioUserBlockStorage@@@0@PAUInvenBlockItem@ioUserBlockStorage@@@Z PROC ; std::_Dest_val<std::allocator<ioUserBlockStorage::InvenBlockItem>,ioUserBlockStorage::InvenBlockItem>, COMDAT

; 286  : 	{	// destroy using allocator

  00000	55		 push	 ebp
  00001	8b ec		 mov	 ebp, esp

; 287  : 	_Alval.destroy(_Pdest);

  00003	8b 4d 0c	 mov	 ecx, DWORD PTR __Pdest$[ebp]

; 288  : 	}

  00006	5d		 pop	 ebp

; 287  : 	_Alval.destroy(_Pdest);

  00007	e9 00 00 00 00	 jmp	 ??1InvenBlockItem@ioUserBlockStorage@@QAE@XZ
??$_Dest_val@V?$allocator@UInvenBlockItem@ioUserBlockStorage@@@std@@UInvenBlockItem@ioUserBlockStorage@@@std@@YAXAAV?$allocator@UInvenBlockItem@ioUserBlockStorage@@@0@PAUInvenBlockItem@ioUserBlockStorage@@@Z ENDP ; std::_Dest_val<std::allocator<ioUserBlockStorage::InvenBlockItem>,ioUserBlockStorage::InvenBlockItem>
_TEXT	ENDS
PUBLIC	??$_Uninit_move@PAVioBlockDBItem@@PAV1@V?$allocator@VioBlockDBItem@@@std@@V1@@std@@YAPAVioBlockDBItem@@PAV1@00AAV?$allocator@VioBlockDBItem@@@0@0U_Nonscalar_ptr_iterator_tag@0@@Z ; std::_Uninit_move<ioBlockDBItem *,ioBlockDBItem *,std::allocator<ioBlockDBItem>,ioBlockDBItem>
; Function compile flags: /Ogsp
; File c:\program files (x86)\microsoft visual studio 10.0\vc\include\memory
;	COMDAT ??$_Uninit_move@PAVioBlockDBItem@@PAV1@V?$allocator@VioBlockDBItem@@@std@@V1@@std@@YAPAVioBlockDBItem@@PAV1@00AAV?$allocator@VioBlockDBItem@@@0@0U_Nonscalar_ptr_iterator_tag@0@@Z
_TEXT	SEGMENT
__First$ = 8						; size = 4
__Last$ = 12						; size = 4
__Dest$ = 16						; size = 4
__Al$ = 20						; size = 4
___formal$ = 24						; size = 4
___formal$ = 28						; size = 1
??$_Uninit_move@PAVioBlockDBItem@@PAV1@V?$allocator@VioBlockDBItem@@@std@@V1@@std@@YAPAVioBlockDBItem@@PAV1@00AAV?$allocator@VioBlockDBItem@@@0@0U_Nonscalar_ptr_iterator_tag@0@@Z PROC ; std::_Uninit_move<ioBlockDBItem *,ioBlockDBItem *,std::allocator<ioBlockDBItem>,ioBlockDBItem>, COMDAT

; 424  : 	{	// move [_First, _Last) to raw _Dest, using _Al, arbitrary type

  00000	55		 push	 ebp
  00001	8b ec		 mov	 ebp, esp
  00003	56		 push	 esi

; 425  : 	_DEBUG_RANGE(_First, _Last);
; 426  : 	_DEBUG_POINTER(_Dest);
; 427  : 	_FwdIt _Next = _Dest;
; 428  : 
; 429  : 	_TRY_BEGIN
; 430  : 	for (; _First != _Last; ++_Dest, ++_First)

  00004	8b 75 08	 mov	 esi, DWORD PTR __First$[ebp]
  00007	eb 16		 jmp	 SHORT $LN36@Uninit_mov
$LL6@Uninit_mov:

; 431  : 		_Cons_val(_Al, _Dest, (_Valty &&)*_First);

  00009	83 7d 10 00	 cmp	 DWORD PTR __Dest$[ebp], 0
  0000d	74 09		 je	 SHORT $LN20@Uninit_mov
  0000f	8b 4d 10	 mov	 ecx, DWORD PTR __Dest$[ebp]
  00012	56		 push	 esi
  00013	e8 00 00 00 00	 call	 ??0ioBlockDBItem@@QAE@ABV0@@Z
$LN20@Uninit_mov:

; 425  : 	_DEBUG_RANGE(_First, _Last);
; 426  : 	_DEBUG_POINTER(_Dest);
; 427  : 	_FwdIt _Next = _Dest;
; 428  : 
; 429  : 	_TRY_BEGIN
; 430  : 	for (; _First != _Last; ++_Dest, ++_First)

  00018	83 45 10 28	 add	 DWORD PTR __Dest$[ebp], 40 ; 00000028H
  0001c	83 c6 28	 add	 esi, 40			; 00000028H
$LN36@Uninit_mov:
  0001f	3b 75 0c	 cmp	 esi, DWORD PTR __Last$[ebp]
  00022	75 e5		 jne	 SHORT $LL6@Uninit_mov

; 432  : 	_CATCH_ALL
; 433  : 	for (; _Next != _Dest; ++_Next)
; 434  : 		_Dest_val(_Al, _Next);
; 435  : 	_RERAISE;
; 436  : 	_CATCH_END
; 437  : 	return (_Dest);

  00024	8b 45 10	 mov	 eax, DWORD PTR __Dest$[ebp]
  00027	5e		 pop	 esi

; 438  : 	}

  00028	5d		 pop	 ebp
  00029	c3		 ret	 0
??$_Uninit_move@PAVioBlockDBItem@@PAV1@V?$allocator@VioBlockDBItem@@@std@@V1@@std@@YAPAVioBlockDBItem@@PAV1@00AAV?$allocator@VioBlockDBItem@@@0@0U_Nonscalar_ptr_iterator_tag@0@@Z ENDP ; std::_Uninit_move<ioBlockDBItem *,ioBlockDBItem *,std::allocator<ioBlockDBItem>,ioBlockDBItem>
_TEXT	ENDS
PUBLIC	??$_Uninit_move@PAUInvenBlockItem@ioUserBlockStorage@@PAU12@V?$allocator@UInvenBlockItem@ioUserBlockStorage@@@std@@U12@@std@@YAPAUInvenBlockItem@ioUserBlockStorage@@PAU12@00AAV?$allocator@UInvenBlockItem@ioUserBlockStorage@@@0@0U_Nonscalar_ptr_iterator_tag@0@@Z ; std::_Uninit_move<ioUserBlockStorage::InvenBlockItem *,ioUserBlockStorage::InvenBlockItem *,std::allocator<ioUserBlockStorage::InvenBlockItem>,ioUserBlockStorage::InvenBlockItem>
EXTRN	__EH_prolog3_catch:PROC
;	COMDAT xdata$x
; File c:\program files (x86)\microsoft visual studio 10.0\vc\include\xmemory
xdata$x	SEGMENT
__catchsym$??$_Uninit_move@PAUInvenBlockItem@ioUserBlockStorage@@PAU12@V?$allocator@UInvenBlockItem@ioUserBlockStorage@@@std@@U12@@std@@YAPAUInvenBlockItem@ioUserBlockStorage@@PAU12@00AAV?$allocator@UInvenBlockItem@ioUserBlockStorage@@@0@0U_Nonscalar_ptr_iterator_tag@0@@Z$2 DD 040H
	DD	00H
	DD	00H
	DD	FLAT:__catch$??$_Uninit_move@PAUInvenBlockItem@ioUserBlockStorage@@PAU12@V?$allocator@UInvenBlockItem@ioUserBlockStorage@@@std@@U12@@std@@YAPAUInvenBlockItem@ioUserBlockStorage@@PAU12@00AAV?$allocator@UInvenBlockItem@ioUserBlockStorage@@@0@0U_Nonscalar_ptr_iterator_tag@0@@Z$0
__unwindtable$??$_Uninit_move@PAUInvenBlockItem@ioUserBlockStorage@@PAU12@V?$allocator@UInvenBlockItem@ioUserBlockStorage@@@std@@U12@@std@@YAPAUInvenBlockItem@ioUserBlockStorage@@PAU12@00AAV?$allocator@UInvenBlockItem@ioUserBlockStorage@@@0@0U_Nonscalar_ptr_iterator_tag@0@@Z DD 0ffffffffH
	DD	00H
	DD	0ffffffffH
	DD	00H
__tryblocktable$??$_Uninit_move@PAUInvenBlockItem@ioUserBlockStorage@@PAU12@V?$allocator@UInvenBlockItem@ioUserBlockStorage@@@std@@U12@@std@@YAPAUInvenBlockItem@ioUserBlockStorage@@PAU12@00AAV?$allocator@UInvenBlockItem@ioUserBlockStorage@@@0@0U_Nonscalar_ptr_iterator_tag@0@@Z DD 00H
	DD	00H
	DD	01H
	DD	01H
	DD	FLAT:__catchsym$??$_Uninit_move@PAUInvenBlockItem@ioUserBlockStorage@@PAU12@V?$allocator@UInvenBlockItem@ioUserBlockStorage@@@std@@U12@@std@@YAPAUInvenBlockItem@ioUserBlockStorage@@PAU12@00AAV?$allocator@UInvenBlockItem@ioUserBlockStorage@@@0@0U_Nonscalar_ptr_iterator_tag@0@@Z$2
__ehfuncinfo$??$_Uninit_move@PAUInvenBlockItem@ioUserBlockStorage@@PAU12@V?$allocator@UInvenBlockItem@ioUserBlockStorage@@@std@@U12@@std@@YAPAUInvenBlockItem@ioUserBlockStorage@@PAU12@00AAV?$allocator@UInvenBlockItem@ioUserBlockStorage@@@0@0U_Nonscalar_ptr_iterator_tag@0@@Z DD 019930522H
	DD	02H
	DD	FLAT:__unwindtable$??$_Uninit_move@PAUInvenBlockItem@ioUserBlockStorage@@PAU12@V?$allocator@UInvenBlockItem@ioUserBlockStorage@@@std@@U12@@std@@YAPAUInvenBlockItem@ioUserBlockStorage@@PAU12@00AAV?$allocator@UInvenBlockItem@ioUserBlockStorage@@@0@0U_Nonscalar_ptr_iterator_tag@0@@Z
	DD	01H
	DD	FLAT:__tryblocktable$??$_Uninit_move@PAUInvenBlockItem@ioUserBlockStorage@@PAU12@V?$allocator@UInvenBlockItem@ioUserBlockStorage@@@std@@U12@@std@@YAPAUInvenBlockItem@ioUserBlockStorage@@PAU12@00AAV?$allocator@UInvenBlockItem@ioUserBlockStorage@@@0@0U_Nonscalar_ptr_iterator_tag@0@@Z
	DD	2 DUP(00H)
	DD	00H
	DD	01H
; Function compile flags: /Ogsp
; File c:\program files (x86)\microsoft visual studio 10.0\vc\include\memory
xdata$x	ENDS
;	COMDAT ??$_Uninit_move@PAUInvenBlockItem@ioUserBlockStorage@@PAU12@V?$allocator@UInvenBlockItem@ioUserBlockStorage@@@std@@U12@@std@@YAPAUInvenBlockItem@ioUserBlockStorage@@PAU12@00AAV?$allocator@UInvenBlockItem@ioUserBlockStorage@@@0@0U_Nonscalar_ptr_iterator_tag@0@@Z
_TEXT	SEGMENT
__Next$ = -20						; size = 4
__$EHRec$ = -16						; size = 16
__First$ = 8						; size = 4
__Last$ = 12						; size = 4
__Dest$ = 16						; size = 4
__Al$ = 20						; size = 4
___formal$ = 24						; size = 4
___formal$ = 28						; size = 1
??$_Uninit_move@PAUInvenBlockItem@ioUserBlockStorage@@PAU12@V?$allocator@UInvenBlockItem@ioUserBlockStorage@@@std@@U12@@std@@YAPAUInvenBlockItem@ioUserBlockStorage@@PAU12@00AAV?$allocator@UInvenBlockItem@ioUserBlockStorage@@@0@0U_Nonscalar_ptr_iterator_tag@0@@Z PROC ; std::_Uninit_move<ioUserBlockStorage::InvenBlockItem *,ioUserBlockStorage::InvenBlockItem *,std::allocator<ioUserBlockStorage::InvenBlockItem>,ioUserBlockStorage::InvenBlockItem>, COMDAT

; 424  : 	{	// move [_First, _Last) to raw _Dest, using _Al, arbitrary type

  00000	6a 08		 push	 8
  00002	b8 00 00 00 00	 mov	 eax, __ehhandler$??$_Uninit_move@PAUInvenBlockItem@ioUserBlockStorage@@PAU12@V?$allocator@UInvenBlockItem@ioUserBlockStorage@@@std@@U12@@std@@YAPAUInvenBlockItem@ioUserBlockStorage@@PAU12@00AAV?$allocator@UInvenBlockItem@ioUserBlockStorage@@@0@0U_Nonscalar_ptr_iterator_tag@0@@Z
  00007	e8 00 00 00 00	 call	 __EH_prolog3_catch

; 425  : 	_DEBUG_RANGE(_First, _Last);
; 426  : 	_DEBUG_POINTER(_Dest);
; 427  : 	_FwdIt _Next = _Dest;

  0000c	8b 45 10	 mov	 eax, DWORD PTR __Dest$[ebp]

; 428  : 
; 429  : 	_TRY_BEGIN

  0000f	83 65 fc 00	 and	 DWORD PTR __$EHRec$[ebp+12], 0
  00013	8b 75 08	 mov	 esi, DWORD PTR __First$[ebp]
  00016	89 45 ec	 mov	 DWORD PTR __Next$[ebp], eax
$LL6@Uninit_mov@2:

; 430  : 	for (; _First != _Last; ++_Dest, ++_First)

  00019	3b 75 0c	 cmp	 esi, DWORD PTR __Last$[ebp]
  0001c	74 35		 je	 SHORT $LN4@Uninit_mov@2

; 431  : 		_Cons_val(_Al, _Dest, (_Valty &&)*_First);

  0001e	56		 push	 esi
  0001f	ff 75 10	 push	 DWORD PTR __Dest$[ebp]
  00022	ff 75 14	 push	 DWORD PTR __Al$[ebp]
  00025	e8 00 00 00 00	 call	 ??$_Cons_val@V?$allocator@UInvenBlockItem@ioUserBlockStorage@@@std@@UInvenBlockItem@ioUserBlockStorage@@U34@@std@@YAXAAV?$allocator@UInvenBlockItem@ioUserBlockStorage@@@0@PAUInvenBlockItem@ioUserBlockStorage@@$$QAU23@@Z ; std::_Cons_val<std::allocator<ioUserBlockStorage::InvenBlockItem>,ioUserBlockStorage::InvenBlockItem,ioUserBlockStorage::InvenBlockItem>
  0002a	83 45 10 38	 add	 DWORD PTR __Dest$[ebp], 56 ; 00000038H
  0002e	83 c4 0c	 add	 esp, 12			; 0000000cH
  00031	83 c6 38	 add	 esi, 56			; 00000038H
  00034	eb e3		 jmp	 SHORT $LL6@Uninit_mov@2
__catch$??$_Uninit_move@PAUInvenBlockItem@ioUserBlockStorage@@PAU12@V?$allocator@UInvenBlockItem@ioUserBlockStorage@@@std@@U12@@std@@YAPAUInvenBlockItem@ioUserBlockStorage@@PAU12@00AAV?$allocator@UInvenBlockItem@ioUserBlockStorage@@@0@0U_Nonscalar_ptr_iterator_tag@0@@Z$0:

; 432  : 	_CATCH_ALL
; 433  : 	for (; _Next != _Dest; ++_Next)

  00036	8b 75 ec	 mov	 esi, DWORD PTR __Next$[ebp]
  00039	eb 0a		 jmp	 SHORT $LN29@Uninit_mov@2
$LL3@Uninit_mov@2:

; 434  : 		_Dest_val(_Al, _Next);

  0003b	8b ce		 mov	 ecx, esi
  0003d	e8 00 00 00 00	 call	 ??1InvenBlockItem@ioUserBlockStorage@@QAE@XZ
  00042	83 c6 38	 add	 esi, 56			; 00000038H
$LN29@Uninit_mov@2:

; 432  : 	_CATCH_ALL
; 433  : 	for (; _Next != _Dest; ++_Next)

  00045	3b 75 10	 cmp	 esi, DWORD PTR __Dest$[ebp]
  00048	75 f1		 jne	 SHORT $LL3@Uninit_mov@2

; 435  : 	_RERAISE;

  0004a	6a 00		 push	 0
  0004c	6a 00		 push	 0
  0004e	e8 00 00 00 00	 call	 __CxxThrowException@8
$LN30@Uninit_mov@2:
$LN4@Uninit_mov@2:

; 436  : 	_CATCH_END
; 437  : 	return (_Dest);

  00053	8b 45 10	 mov	 eax, DWORD PTR __Dest$[ebp]

; 438  : 	}

  00056	e8 00 00 00 00	 call	 __EH_epilog3
  0005b	c3		 ret	 0
$LN28@Uninit_mov@2:
_TEXT	ENDS
;	COMDAT text$x
text$x	SEGMENT
__ehhandler$??$_Uninit_move@PAUInvenBlockItem@ioUserBlockStorage@@PAU12@V?$allocator@UInvenBlockItem@ioUserBlockStorage@@@std@@U12@@std@@YAPAUInvenBlockItem@ioUserBlockStorage@@PAU12@00AAV?$allocator@UInvenBlockItem@ioUserBlockStorage@@@0@0U_Nonscalar_ptr_iterator_tag@0@@Z:
  00000	8b 54 24 08	 mov	 edx, DWORD PTR [esp+8]
  00004	8d 42 0c	 lea	 eax, DWORD PTR [edx+12]
  00007	8b 4a e8	 mov	 ecx, DWORD PTR [edx-24]
  0000a	33 c8		 xor	 ecx, eax
  0000c	e8 00 00 00 00	 call	 @__security_check_cookie@4
  00011	b8 00 00 00 00	 mov	 eax, OFFSET __ehfuncinfo$??$_Uninit_move@PAUInvenBlockItem@ioUserBlockStorage@@PAU12@V?$allocator@UInvenBlockItem@ioUserBlockStorage@@@std@@U12@@std@@YAPAUInvenBlockItem@ioUserBlockStorage@@PAU12@00AAV?$allocator@UInvenBlockItem@ioUserBlockStorage@@@0@0U_Nonscalar_ptr_iterator_tag@0@@Z
  00016	e9 00 00 00 00	 jmp	 ___CxxFrameHandler3
text$x	ENDS
??$_Uninit_move@PAUInvenBlockItem@ioUserBlockStorage@@PAU12@V?$allocator@UInvenBlockItem@ioUserBlockStorage@@@std@@U12@@std@@YAPAUInvenBlockItem@ioUserBlockStorage@@PAU12@00AAV?$allocator@UInvenBlockItem@ioUserBlockStorage@@@0@0U_Nonscalar_ptr_iterator_tag@0@@Z ENDP ; std::_Uninit_move<ioUserBlockStorage::InvenBlockItem *,ioUserBlockStorage::InvenBlockItem *,std::allocator<ioUserBlockStorage::InvenBlockItem>,ioUserBlockStorage::InvenBlockItem>
PUBLIC	??$_Median@PAUInvenBlockItem@ioUserBlockStorage@@VInvenBlockItemSort@2@@std@@YAXPAUInvenBlockItem@ioUserBlockStorage@@00VInvenBlockItemSort@2@@Z ; std::_Median<ioUserBlockStorage::InvenBlockItem *,ioUserBlockStorage::InvenBlockItemSort>
; Function compile flags: /Ogsp
; File c:\program files (x86)\microsoft visual studio 10.0\vc\include\algorithm
;	COMDAT ??$_Median@PAUInvenBlockItem@ioUserBlockStorage@@VInvenBlockItemSort@2@@std@@YAXPAUInvenBlockItem@ioUserBlockStorage@@00VInvenBlockItemSort@2@@Z
_TEXT	SEGMENT
tv200 = 8						; size = 4
__First$ = 8						; size = 4
__Mid$ = 12						; size = 4
tv203 = 16						; size = 4
__Last$ = 16						; size = 4
__Pred$ = 20						; size = 1
??$_Median@PAUInvenBlockItem@ioUserBlockStorage@@VInvenBlockItemSort@2@@std@@YAXPAUInvenBlockItem@ioUserBlockStorage@@00VInvenBlockItemSort@2@@Z PROC ; std::_Median<ioUserBlockStorage::InvenBlockItem *,ioUserBlockStorage::InvenBlockItemSort>, COMDAT

; 3695 : 	{	// sort median element to middle

  00000	55		 push	 ebp
  00001	8b ec		 mov	 ebp, esp

; 3696 : 	if (40 < _Last - _First)

  00003	8b 4d 08	 mov	 ecx, DWORD PTR __First$[ebp]
  00006	53		 push	 ebx
  00007	8b 5d 10	 mov	 ebx, DWORD PTR __Last$[ebp]
  0000a	56		 push	 esi
  0000b	8b c3		 mov	 eax, ebx
  0000d	2b c1		 sub	 eax, ecx
  0000f	6a 38		 push	 56			; 00000038H
  00011	99		 cdq
  00012	5e		 pop	 esi
  00013	f7 fe		 idiv	 esi
  00015	83 f8 28	 cmp	 eax, 40			; 00000028H
  00018	7e 68		 jle	 SHORT $LN2@Median

; 3697 : 		{	// median of nine
; 3698 : 		size_t _Step = (_Last - _First + 1) / 8;

  0001a	40		 inc	 eax
  0001b	99		 cdq
  0001c	83 e2 07	 and	 edx, 7
  0001f	03 c2		 add	 eax, edx
  00021	57		 push	 edi

; 3699 : 		_Med3(_First, _First + _Step, _First + 2 * _Step, _Pred);

  00022	ff 75 14	 push	 DWORD PTR __Pred$[ebp]
  00025	c1 f8 03	 sar	 eax, 3
  00028	8b f8		 mov	 edi, eax
  0002a	8b f0		 mov	 esi, eax
  0002c	6b ff 70	 imul	 edi, 112		; 00000070H
  0002f	6b f6 38	 imul	 esi, 56			; 00000038H
  00032	8d 14 0f	 lea	 edx, DWORD PTR [edi+ecx]
  00035	8d 04 0e	 lea	 eax, DWORD PTR [esi+ecx]
  00038	52		 push	 edx
  00039	50		 push	 eax
  0003a	51		 push	 ecx
  0003b	89 45 08	 mov	 DWORD PTR tv200[ebp], eax
  0003e	e8 00 00 00 00	 call	 ??$_Med3@PAUInvenBlockItem@ioUserBlockStorage@@VInvenBlockItemSort@2@@std@@YAXPAUInvenBlockItem@ioUserBlockStorage@@00VInvenBlockItemSort@2@@Z ; std::_Med3<ioUserBlockStorage::InvenBlockItem *,ioUserBlockStorage::InvenBlockItemSort>

; 3700 : 		_Med3(_Mid - _Step, _Mid, _Mid + _Step, _Pred);

  00043	ff 75 14	 push	 DWORD PTR __Pred$[ebp]
  00046	8b 45 0c	 mov	 eax, DWORD PTR __Mid$[ebp]
  00049	8d 0c 06	 lea	 ecx, DWORD PTR [esi+eax]
  0004c	51		 push	 ecx
  0004d	50		 push	 eax
  0004e	2b c6		 sub	 eax, esi
  00050	50		 push	 eax
  00051	e8 00 00 00 00	 call	 ??$_Med3@PAUInvenBlockItem@ioUserBlockStorage@@VInvenBlockItemSort@2@@std@@YAXPAUInvenBlockItem@ioUserBlockStorage@@00VInvenBlockItemSort@2@@Z ; std::_Med3<ioUserBlockStorage::InvenBlockItem *,ioUserBlockStorage::InvenBlockItemSort>

; 3701 : 		_Med3(_Last - 2 * _Step, _Last - _Step, _Last, _Pred);

  00056	ff 75 14	 push	 DWORD PTR __Pred$[ebp]
  00059	89 5d 10	 mov	 DWORD PTR tv203[ebp], ebx
  0005c	29 75 10	 sub	 DWORD PTR tv203[ebp], esi
  0005f	53		 push	 ebx
  00060	ff 75 10	 push	 DWORD PTR tv203[ebp]
  00063	2b df		 sub	 ebx, edi
  00065	53		 push	 ebx
  00066	e8 00 00 00 00	 call	 ??$_Med3@PAUInvenBlockItem@ioUserBlockStorage@@VInvenBlockItemSort@2@@std@@YAXPAUInvenBlockItem@ioUserBlockStorage@@00VInvenBlockItemSort@2@@Z ; std::_Med3<ioUserBlockStorage::InvenBlockItem *,ioUserBlockStorage::InvenBlockItemSort>

; 3702 : 		_Med3(_First + _Step, _Mid, _Last - _Step, _Pred);

  0006b	ff 75 14	 push	 DWORD PTR __Pred$[ebp]
  0006e	ff 75 10	 push	 DWORD PTR tv203[ebp]
  00071	ff 75 0c	 push	 DWORD PTR __Mid$[ebp]
  00074	ff 75 08	 push	 DWORD PTR tv200[ebp]
  00077	e8 00 00 00 00	 call	 ??$_Med3@PAUInvenBlockItem@ioUserBlockStorage@@VInvenBlockItemSort@2@@std@@YAXPAUInvenBlockItem@ioUserBlockStorage@@00VInvenBlockItemSort@2@@Z ; std::_Med3<ioUserBlockStorage::InvenBlockItem *,ioUserBlockStorage::InvenBlockItemSort>
  0007c	83 c4 40	 add	 esp, 64			; 00000040H
  0007f	5f		 pop	 edi

; 3703 : 		}
; 3704 : 	else

  00080	eb 10		 jmp	 SHORT $LN1@Median
$LN2@Median:

; 3705 : 		_Med3(_First, _Mid, _Last, _Pred);

  00082	ff 75 14	 push	 DWORD PTR __Pred$[ebp]
  00085	53		 push	 ebx
  00086	ff 75 0c	 push	 DWORD PTR __Mid$[ebp]
  00089	51		 push	 ecx
  0008a	e8 00 00 00 00	 call	 ??$_Med3@PAUInvenBlockItem@ioUserBlockStorage@@VInvenBlockItemSort@2@@std@@YAXPAUInvenBlockItem@ioUserBlockStorage@@00VInvenBlockItemSort@2@@Z ; std::_Med3<ioUserBlockStorage::InvenBlockItem *,ioUserBlockStorage::InvenBlockItemSort>
  0008f	83 c4 10	 add	 esp, 16			; 00000010H
$LN1@Median:
  00092	5e		 pop	 esi
  00093	5b		 pop	 ebx

; 3706 : 	}

  00094	5d		 pop	 ebp
  00095	c3		 ret	 0
??$_Median@PAUInvenBlockItem@ioUserBlockStorage@@VInvenBlockItemSort@2@@std@@YAXPAUInvenBlockItem@ioUserBlockStorage@@00VInvenBlockItemSort@2@@Z ENDP ; std::_Median<ioUserBlockStorage::InvenBlockItem *,ioUserBlockStorage::InvenBlockItemSort>
_TEXT	ENDS
PUBLIC	??$_Pop_heap@PAUInvenBlockItem@ioUserBlockStorage@@VInvenBlockItemSort@2@@std@@YAXPAUInvenBlockItem@ioUserBlockStorage@@0VInvenBlockItemSort@2@@Z ; std::_Pop_heap<ioUserBlockStorage::InvenBlockItem *,ioUserBlockStorage::InvenBlockItemSort>
; Function compile flags: /Ogsp
;	COMDAT ??$_Pop_heap@PAUInvenBlockItem@ioUserBlockStorage@@VInvenBlockItemSort@2@@std@@YAXPAUInvenBlockItem@ioUserBlockStorage@@0VInvenBlockItemSort@2@@Z
_TEXT	SEGMENT
__First$ = 8						; size = 4
__Last$ = 12						; size = 4
__Pred$ = 16						; size = 1
??$_Pop_heap@PAUInvenBlockItem@ioUserBlockStorage@@VInvenBlockItemSort@2@@std@@YAXPAUInvenBlockItem@ioUserBlockStorage@@0VInvenBlockItemSort@2@@Z PROC ; std::_Pop_heap<ioUserBlockStorage::InvenBlockItem *,ioUserBlockStorage::InvenBlockItemSort>, COMDAT

; 2610 : 	{	// pop *_First to *(_Last - 1) and reheap, using _Pred

  00000	55		 push	 ebp
  00001	8b ec		 mov	 ebp, esp

; 2611 : 	_Pop_heap_0(_Unchecked(_First), _Unchecked(_Last), _Pred,
; 2612 : 		_Val_type(_First));

  00003	6a 00		 push	 0
  00005	ff 75 10	 push	 DWORD PTR __Pred$[ebp]
  00008	ff 75 0c	 push	 DWORD PTR __Last$[ebp]
  0000b	ff 75 08	 push	 DWORD PTR __First$[ebp]
  0000e	e8 00 00 00 00	 call	 ??$_Pop_heap_0@PAUInvenBlockItem@ioUserBlockStorage@@U12@VInvenBlockItemSort@2@@std@@YAXPAUInvenBlockItem@ioUserBlockStorage@@0VInvenBlockItemSort@2@0@Z ; std::_Pop_heap_0<ioUserBlockStorage::InvenBlockItem *,ioUserBlockStorage::InvenBlockItem,ioUserBlockStorage::InvenBlockItemSort>
  00013	83 c4 10	 add	 esp, 16			; 00000010H

; 2613 : 	}

  00016	5d		 pop	 ebp
  00017	c3		 ret	 0
??$_Pop_heap@PAUInvenBlockItem@ioUserBlockStorage@@VInvenBlockItemSort@2@@std@@YAXPAUInvenBlockItem@ioUserBlockStorage@@0VInvenBlockItemSort@2@@Z ENDP ; std::_Pop_heap<ioUserBlockStorage::InvenBlockItem *,ioUserBlockStorage::InvenBlockItemSort>
_TEXT	ENDS
PUBLIC	??$_Destroy_range@V?$allocator@VioBlockDBItem@@@std@@@std@@YAXPAVioBlockDBItem@@0AAV?$allocator@VioBlockDBItem@@@0@@Z ; std::_Destroy_range<std::allocator<ioBlockDBItem> >
; Function compile flags: /Ogsp
; File c:\program files (x86)\microsoft visual studio 10.0\vc\include\xmemory
;	COMDAT ??$_Destroy_range@V?$allocator@VioBlockDBItem@@@std@@@std@@YAXPAVioBlockDBItem@@0AAV?$allocator@VioBlockDBItem@@@0@@Z
_TEXT	SEGMENT
__First$ = 8						; size = 4
__Last$ = 12						; size = 4
__Al$ = 16						; size = 4
??$_Destroy_range@V?$allocator@VioBlockDBItem@@@std@@@std@@YAXPAVioBlockDBItem@@0AAV?$allocator@VioBlockDBItem@@@0@@Z PROC ; std::_Destroy_range<std::allocator<ioBlockDBItem> >, COMDAT

; 87   : 	{	// destroy [_First, _Last)

  00000	55		 push	 ebp
  00001	8b ec		 mov	 ebp, esp
  00003	56		 push	 esi

; 88   : 	_Destroy_range(_First, _Last, _Al, _Ptr_cat(_First, _Last));

  00004	8b 75 08	 mov	 esi, DWORD PTR __First$[ebp]
  00007	eb 0b		 jmp	 SHORT $LN18@Destroy_ra@2
$LL7@Destroy_ra@2:
  00009	8b 06		 mov	 eax, DWORD PTR [esi]
  0000b	6a 00		 push	 0
  0000d	8b ce		 mov	 ecx, esi
  0000f	ff 10		 call	 DWORD PTR [eax]
  00011	83 c6 28	 add	 esi, 40			; 00000028H
$LN18@Destroy_ra@2:
  00014	3b 75 0c	 cmp	 esi, DWORD PTR __Last$[ebp]
  00017	75 f0		 jne	 SHORT $LL7@Destroy_ra@2
  00019	5e		 pop	 esi

; 89   : 	}

  0001a	5d		 pop	 ebp
  0001b	c3		 ret	 0
??$_Destroy_range@V?$allocator@VioBlockDBItem@@@std@@@std@@YAXPAVioBlockDBItem@@0AAV?$allocator@VioBlockDBItem@@@0@@Z ENDP ; std::_Destroy_range<std::allocator<ioBlockDBItem> >
_TEXT	ENDS
PUBLIC	??$_Destroy_range@V?$allocator@UInvenBlockItem@ioUserBlockStorage@@@std@@@std@@YAXPAUInvenBlockItem@ioUserBlockStorage@@0AAV?$allocator@UInvenBlockItem@ioUserBlockStorage@@@0@U_Nonscalar_ptr_iterator_tag@0@@Z ; std::_Destroy_range<std::allocator<ioUserBlockStorage::InvenBlockItem> >
; Function compile flags: /Ogsp
;	COMDAT ??$_Destroy_range@V?$allocator@UInvenBlockItem@ioUserBlockStorage@@@std@@@std@@YAXPAUInvenBlockItem@ioUserBlockStorage@@0AAV?$allocator@UInvenBlockItem@ioUserBlockStorage@@@0@U_Nonscalar_ptr_iterator_tag@0@@Z
_TEXT	SEGMENT
__First$ = 8						; size = 4
__Last$ = 12						; size = 4
__Al$ = 16						; size = 4
___formal$ = 20						; size = 1
??$_Destroy_range@V?$allocator@UInvenBlockItem@ioUserBlockStorage@@@std@@@std@@YAXPAUInvenBlockItem@ioUserBlockStorage@@0AAV?$allocator@UInvenBlockItem@ioUserBlockStorage@@@0@U_Nonscalar_ptr_iterator_tag@0@@Z PROC ; std::_Destroy_range<std::allocator<ioUserBlockStorage::InvenBlockItem> >, COMDAT

; 95   : 	{	// destroy [_First, _Last), arbitrary type

  00000	55		 push	 ebp
  00001	8b ec		 mov	 ebp, esp
  00003	56		 push	 esi

; 96   : 	for (; _First != _Last; ++_First)

  00004	8b 75 08	 mov	 esi, DWORD PTR __First$[ebp]
  00007	eb 0a		 jmp	 SHORT $LN17@Destroy_ra@3
$LL3@Destroy_ra@3:

; 97   : 		_Dest_val(_Al, _First);

  00009	8b ce		 mov	 ecx, esi
  0000b	e8 00 00 00 00	 call	 ??1InvenBlockItem@ioUserBlockStorage@@QAE@XZ
  00010	83 c6 38	 add	 esi, 56			; 00000038H
$LN17@Destroy_ra@3:

; 96   : 	for (; _First != _Last; ++_First)

  00013	3b 75 0c	 cmp	 esi, DWORD PTR __Last$[ebp]
  00016	75 f1		 jne	 SHORT $LL3@Destroy_ra@3
  00018	5e		 pop	 esi

; 98   : 	}

  00019	5d		 pop	 ebp
  0001a	c3		 ret	 0
??$_Destroy_range@V?$allocator@UInvenBlockItem@ioUserBlockStorage@@@std@@@std@@YAXPAUInvenBlockItem@ioUserBlockStorage@@0AAV?$allocator@UInvenBlockItem@ioUserBlockStorage@@@0@U_Nonscalar_ptr_iterator_tag@0@@Z ENDP ; std::_Destroy_range<std::allocator<ioUserBlockStorage::InvenBlockItem> >
_TEXT	ENDS
PUBLIC	??$_Uninitialized_move@PAVioBlockDBItem@@PAV1@V?$allocator@VioBlockDBItem@@@std@@@std@@YAPAVioBlockDBItem@@PAV1@00AAV?$allocator@VioBlockDBItem@@@0@@Z ; std::_Uninitialized_move<ioBlockDBItem *,ioBlockDBItem *,std::allocator<ioBlockDBItem> >
; Function compile flags: /Ogsp
; File c:\program files (x86)\microsoft visual studio 10.0\vc\include\memory
;	COMDAT ??$_Uninitialized_move@PAVioBlockDBItem@@PAV1@V?$allocator@VioBlockDBItem@@@std@@@std@@YAPAVioBlockDBItem@@PAV1@00AAV?$allocator@VioBlockDBItem@@@0@@Z
_TEXT	SEGMENT
__Cat$513266 = -4					; size = 1
__First$ = 8						; size = 4
__Last$ = 12						; size = 4
__Dest$ = 16						; size = 4
__Al$ = 20						; size = 4
??$_Uninitialized_move@PAVioBlockDBItem@@PAV1@V?$allocator@VioBlockDBItem@@@std@@@std@@YAPAVioBlockDBItem@@PAV1@00AAV?$allocator@VioBlockDBItem@@@0@@Z PROC ; std::_Uninitialized_move<ioBlockDBItem *,ioBlockDBItem *,std::allocator<ioBlockDBItem> >, COMDAT

; 469  : 	{	// move [_First, _Last) to raw _Dest, using _Al

  00000	55		 push	 ebp
  00001	8b ec		 mov	 ebp, esp
  00003	51		 push	 ecx

; 470  : 	return (_Uninit_move(_First, _Last, _Dest, _Al,
; 471  : 		_Val_type(_First), _Ptr_cat(_First, _Dest)));

  00004	ff 75 fc	 push	 DWORD PTR __Cat$513266[ebp]
  00007	6a 00		 push	 0
  00009	ff 75 14	 push	 DWORD PTR __Al$[ebp]
  0000c	ff 75 10	 push	 DWORD PTR __Dest$[ebp]
  0000f	ff 75 0c	 push	 DWORD PTR __Last$[ebp]
  00012	ff 75 08	 push	 DWORD PTR __First$[ebp]
  00015	e8 00 00 00 00	 call	 ??$_Uninit_move@PAVioBlockDBItem@@PAV1@V?$allocator@VioBlockDBItem@@@std@@V1@@std@@YAPAVioBlockDBItem@@PAV1@00AAV?$allocator@VioBlockDBItem@@@0@0U_Nonscalar_ptr_iterator_tag@0@@Z ; std::_Uninit_move<ioBlockDBItem *,ioBlockDBItem *,std::allocator<ioBlockDBItem>,ioBlockDBItem>
  0001a	83 c4 18	 add	 esp, 24			; 00000018H

; 472  : 	}

  0001d	c9		 leave
  0001e	c3		 ret	 0
??$_Uninitialized_move@PAVioBlockDBItem@@PAV1@V?$allocator@VioBlockDBItem@@@std@@@std@@YAPAVioBlockDBItem@@PAV1@00AAV?$allocator@VioBlockDBItem@@@0@@Z ENDP ; std::_Uninitialized_move<ioBlockDBItem *,ioBlockDBItem *,std::allocator<ioBlockDBItem> >
_TEXT	ENDS
PUBLIC	??$_Uninitialized_move@PAUInvenBlockItem@ioUserBlockStorage@@PAU12@V?$allocator@UInvenBlockItem@ioUserBlockStorage@@@std@@@std@@YAPAUInvenBlockItem@ioUserBlockStorage@@PAU12@00AAV?$allocator@UInvenBlockItem@ioUserBlockStorage@@@0@@Z ; std::_Uninitialized_move<ioUserBlockStorage::InvenBlockItem *,ioUserBlockStorage::InvenBlockItem *,std::allocator<ioUserBlockStorage::InvenBlockItem> >
; Function compile flags: /Ogsp
;	COMDAT ??$_Uninitialized_move@PAUInvenBlockItem@ioUserBlockStorage@@PAU12@V?$allocator@UInvenBlockItem@ioUserBlockStorage@@@std@@@std@@YAPAUInvenBlockItem@ioUserBlockStorage@@PAU12@00AAV?$allocator@UInvenBlockItem@ioUserBlockStorage@@@0@@Z
_TEXT	SEGMENT
__Cat$513276 = -4					; size = 1
__First$ = 8						; size = 4
__Last$ = 12						; size = 4
__Dest$ = 16						; size = 4
__Al$ = 20						; size = 4
??$_Uninitialized_move@PAUInvenBlockItem@ioUserBlockStorage@@PAU12@V?$allocator@UInvenBlockItem@ioUserBlockStorage@@@std@@@std@@YAPAUInvenBlockItem@ioUserBlockStorage@@PAU12@00AAV?$allocator@UInvenBlockItem@ioUserBlockStorage@@@0@@Z PROC ; std::_Uninitialized_move<ioUserBlockStorage::InvenBlockItem *,ioUserBlockStorage::InvenBlockItem *,std::allocator<ioUserBlockStorage::InvenBlockItem> >, COMDAT

; 469  : 	{	// move [_First, _Last) to raw _Dest, using _Al

  00000	55		 push	 ebp
  00001	8b ec		 mov	 ebp, esp
  00003	51		 push	 ecx

; 470  : 	return (_Uninit_move(_First, _Last, _Dest, _Al,
; 471  : 		_Val_type(_First), _Ptr_cat(_First, _Dest)));

  00004	ff 75 fc	 push	 DWORD PTR __Cat$513276[ebp]
  00007	6a 00		 push	 0
  00009	ff 75 14	 push	 DWORD PTR __Al$[ebp]
  0000c	ff 75 10	 push	 DWORD PTR __Dest$[ebp]
  0000f	ff 75 0c	 push	 DWORD PTR __Last$[ebp]
  00012	ff 75 08	 push	 DWORD PTR __First$[ebp]
  00015	e8 00 00 00 00	 call	 ??$_Uninit_move@PAUInvenBlockItem@ioUserBlockStorage@@PAU12@V?$allocator@UInvenBlockItem@ioUserBlockStorage@@@std@@U12@@std@@YAPAUInvenBlockItem@ioUserBlockStorage@@PAU12@00AAV?$allocator@UInvenBlockItem@ioUserBlockStorage@@@0@0U_Nonscalar_ptr_iterator_tag@0@@Z ; std::_Uninit_move<ioUserBlockStorage::InvenBlockItem *,ioUserBlockStorage::InvenBlockItem *,std::allocator<ioUserBlockStorage::InvenBlockItem>,ioUserBlockStorage::InvenBlockItem>
  0001a	83 c4 18	 add	 esp, 24			; 00000018H

; 472  : 	}

  0001d	c9		 leave
  0001e	c3		 ret	 0
??$_Uninitialized_move@PAUInvenBlockItem@ioUserBlockStorage@@PAU12@V?$allocator@UInvenBlockItem@ioUserBlockStorage@@@std@@@std@@YAPAUInvenBlockItem@ioUserBlockStorage@@PAU12@00AAV?$allocator@UInvenBlockItem@ioUserBlockStorage@@@0@@Z ENDP ; std::_Uninitialized_move<ioUserBlockStorage::InvenBlockItem *,ioUserBlockStorage::InvenBlockItem *,std::allocator<ioUserBlockStorage::InvenBlockItem> >
_TEXT	ENDS
PUBLIC	??$_Unguarded_partition@PAUInvenBlockItem@ioUserBlockStorage@@VInvenBlockItemSort@2@@std@@YA?AU?$pair@PAUInvenBlockItem@ioUserBlockStorage@@PAU12@@0@PAUInvenBlockItem@ioUserBlockStorage@@0VInvenBlockItemSort@3@@Z ; std::_Unguarded_partition<ioUserBlockStorage::InvenBlockItem *,ioUserBlockStorage::InvenBlockItemSort>
; Function compile flags: /Ogsp
; File c:\program files (x86)\microsoft visual studio 10.0\vc\include\algorithm
;	COMDAT ??$_Unguarded_partition@PAUInvenBlockItem@ioUserBlockStorage@@VInvenBlockItemSort@2@@std@@YA?AU?$pair@PAUInvenBlockItem@ioUserBlockStorage@@PAU12@@0@PAUInvenBlockItem@ioUserBlockStorage@@0VInvenBlockItemSort@3@@Z
_TEXT	SEGMENT
__Glast$ = -4						; size = 4
___$ReturnUdt$ = 8					; size = 4
__First$ = 12						; size = 4
__Last$ = 16						; size = 4
__Pred$ = 20						; size = 1
??$_Unguarded_partition@PAUInvenBlockItem@ioUserBlockStorage@@VInvenBlockItemSort@2@@std@@YA?AU?$pair@PAUInvenBlockItem@ioUserBlockStorage@@PAU12@@0@PAUInvenBlockItem@ioUserBlockStorage@@0VInvenBlockItemSort@3@@Z PROC ; std::_Unguarded_partition<ioUserBlockStorage::InvenBlockItem *,ioUserBlockStorage::InvenBlockItemSort>, COMDAT

; 3712 : 	{	// partition [_First, _Last), using _Pred

  00000	55		 push	 ebp
  00001	8b ec		 mov	 ebp, esp
  00003	51		 push	 ecx

; 3713 : 	_RanIt _Mid = _First + (_Last - _First) / 2;

  00004	8b 4d 10	 mov	 ecx, DWORD PTR __Last$[ebp]
  00007	53		 push	 ebx
  00008	56		 push	 esi
  00009	57		 push	 edi
  0000a	8b 7d 0c	 mov	 edi, DWORD PTR __First$[ebp]
  0000d	8b c1		 mov	 eax, ecx
  0000f	2b c7		 sub	 eax, edi
  00011	6a 38		 push	 56			; 00000038H
  00013	5e		 pop	 esi
  00014	99		 cdq
  00015	f7 fe		 idiv	 esi

; 3714 : 	_Median(_First, _Mid, _Last - 1, _Pred);

  00017	ff 75 14	 push	 DWORD PTR __Pred$[ebp]
  0001a	83 c1 c8	 add	 ecx, -56		; ffffffc8H
  0001d	51		 push	 ecx
  0001e	99		 cdq
  0001f	2b c2		 sub	 eax, edx
  00021	8b f0		 mov	 esi, eax
  00023	d1 fe		 sar	 esi, 1
  00025	6b f6 38	 imul	 esi, 56			; 00000038H
  00028	03 f7		 add	 esi, edi
  0002a	56		 push	 esi
  0002b	57		 push	 edi
  0002c	e8 00 00 00 00	 call	 ??$_Median@PAUInvenBlockItem@ioUserBlockStorage@@VInvenBlockItemSort@2@@std@@YAXPAUInvenBlockItem@ioUserBlockStorage@@00VInvenBlockItemSort@2@@Z ; std::_Median<ioUserBlockStorage::InvenBlockItem *,ioUserBlockStorage::InvenBlockItemSort>
  00031	83 c4 10	 add	 esp, 16			; 00000010H

; 3715 : 	_RanIt _Pfirst = _Mid;
; 3716 : 	_RanIt _Plast = _Pfirst + 1;

  00034	8d 5e 38	 lea	 ebx, DWORD PTR [esi+56]
  00037	eb 0f		 jmp	 SHORT $LN100@Unguarded_
$LL27@Unguarded_:

; 3717 : 
; 3718 : 	while (_First < _Pfirst
; 3719 : 		&& !_DEBUG_LT_PRED(_Pred, *(_Pfirst - 1), *_Pfirst)
; 3720 : 		&& !_Pred(*_Pfirst, *(_Pfirst - 1)))

  00039	8b 46 ec	 mov	 eax, DWORD PTR [esi-20]
  0003c	8b 4e 24	 mov	 ecx, DWORD PTR [esi+36]
  0003f	3b c8		 cmp	 ecx, eax
  00041	7f 09		 jg	 SHORT $LN94@Unguarded_
  00043	7c 07		 jl	 SHORT $LN94@Unguarded_

; 3721 : 		--_Pfirst;

  00045	83 ee 38	 sub	 esi, 56			; 00000038H
$LN100@Unguarded_:

; 3717 : 
; 3718 : 	while (_First < _Pfirst
; 3719 : 		&& !_DEBUG_LT_PRED(_Pred, *(_Pfirst - 1), *_Pfirst)
; 3720 : 		&& !_Pred(*_Pfirst, *(_Pfirst - 1)))

  00048	3b fe		 cmp	 edi, esi
  0004a	72 ed		 jb	 SHORT $LL27@Unguarded_
$LN94@Unguarded_:

; 3722 : 	while (_Plast < _Last
; 3723 : 		&& !_DEBUG_LT_PRED(_Pred, *_Plast, *_Pfirst)
; 3724 : 		&& !_Pred(*_Pfirst, *_Plast))

  0004c	3b 5d 10	 cmp	 ebx, DWORD PTR __Last$[ebp]
  0004f	73 14		 jae	 SHORT $LN96@Unguarded_
  00051	8b 4e 24	 mov	 ecx, DWORD PTR [esi+36]
$LL25@Unguarded_:
  00054	8b 43 24	 mov	 eax, DWORD PTR [ebx+36]
  00057	3b c8		 cmp	 ecx, eax
  00059	7f 0a		 jg	 SHORT $LN96@Unguarded_
  0005b	7c 08		 jl	 SHORT $LN96@Unguarded_

; 3725 : 		++_Plast;

  0005d	83 c3 38	 add	 ebx, 56			; 00000038H
  00060	3b 5d 10	 cmp	 ebx, DWORD PTR __Last$[ebp]
  00063	72 ef		 jb	 SHORT $LL25@Unguarded_
$LN96@Unguarded_:

; 3726 : 
; 3727 : 	_RanIt _Gfirst = _Plast;

  00065	8b fb		 mov	 edi, ebx

; 3728 : 	_RanIt _Glast = _Pfirst;

  00067	89 75 fc	 mov	 DWORD PTR __Glast$[ebp], esi

; 3729 : 
; 3730 : 	for (; ; )
; 3731 : 		{	// partition
; 3732 : 		for (; _Gfirst < _Last; ++_Gfirst)

  0006a	eb 1d		 jmp	 SHORT $LN102@Unguarded_
$LL21@Unguarded_:

; 3733 : 			if (_DEBUG_LT_PRED(_Pred, *_Pfirst, *_Gfirst))

  0006c	8b 46 24	 mov	 eax, DWORD PTR [esi+36]
  0006f	8b 4f 24	 mov	 ecx, DWORD PTR [edi+36]
  00072	3b c8		 cmp	 ecx, eax
  00074	7f 10		 jg	 SHORT $LN20@Unguarded_

; 3734 : 				;
; 3735 : 			else if (_Pred(*_Gfirst, *_Pfirst))

  00076	7c 3d		 jl	 SHORT $LN97@Unguarded_

; 3736 : 				break;
; 3737 : 			else
; 3738 : 				_STD iter_swap(_Plast++, _Gfirst);

  00078	8b c3		 mov	 eax, ebx
  0007a	57		 push	 edi
  0007b	83 c3 38	 add	 ebx, 56			; 00000038H
  0007e	50		 push	 eax
$LN104@Unguarded_:
  0007f	e8 00 00 00 00	 call	 ??$swap@UInvenBlockItem@ioUserBlockStorage@@@std@@YAXAAUInvenBlockItem@ioUserBlockStorage@@0@Z ; std::swap<ioUserBlockStorage::InvenBlockItem>
  00084	59		 pop	 ecx
  00085	59		 pop	 ecx
$LN20@Unguarded_:

; 3729 : 
; 3730 : 	for (; ; )
; 3731 : 		{	// partition
; 3732 : 		for (; _Gfirst < _Last; ++_Gfirst)

  00086	83 c7 38	 add	 edi, 56			; 00000038H
$LN102@Unguarded_:
  00089	3b 7d 10	 cmp	 edi, DWORD PTR __Last$[ebp]
  0008c	72 de		 jb	 SHORT $LL21@Unguarded_

; 3739 : 		for (; _First < _Glast; --_Glast)

  0008e	eb 25		 jmp	 SHORT $LN97@Unguarded_
$LL99@Unguarded_:

; 3740 : 			if (_DEBUG_LT_PRED(_Pred, *(_Glast - 1), *_Pfirst))

  00090	8b 45 fc	 mov	 eax, DWORD PTR __Glast$[ebp]
  00093	8b 40 ec	 mov	 eax, DWORD PTR [eax-20]
  00096	8b 4e 24	 mov	 ecx, DWORD PTR [esi+36]
  00099	3b c8		 cmp	 ecx, eax
  0009b	7f 14		 jg	 SHORT $LN13@Unguarded_

; 3741 : 				;
; 3742 : 			else if (_Pred(*_Pfirst, *(_Glast - 1)))

  0009d	7c 1e		 jl	 SHORT $LN98@Unguarded_

; 3739 : 		for (; _First < _Glast; --_Glast)

  0009f	8b 45 fc	 mov	 eax, DWORD PTR __Glast$[ebp]
  000a2	83 c0 c8	 add	 eax, -56		; ffffffc8H

; 3743 : 				break;
; 3744 : 			else
; 3745 : 				_STD iter_swap(--_Pfirst, _Glast - 1);

  000a5	83 ee 38	 sub	 esi, 56			; 00000038H
  000a8	50		 push	 eax
  000a9	56		 push	 esi
  000aa	e8 00 00 00 00	 call	 ??$swap@UInvenBlockItem@ioUserBlockStorage@@@std@@YAXAAUInvenBlockItem@ioUserBlockStorage@@0@Z ; std::swap<ioUserBlockStorage::InvenBlockItem>
  000af	59		 pop	 ecx
  000b0	59		 pop	 ecx
$LN13@Unguarded_:

; 3739 : 		for (; _First < _Glast; --_Glast)

  000b1	83 6d fc 38	 sub	 DWORD PTR __Glast$[ebp], 56 ; 00000038H
$LN97@Unguarded_:
  000b5	8b 55 0c	 mov	 edx, DWORD PTR __First$[ebp]
  000b8	3b 55 fc	 cmp	 edx, DWORD PTR __Glast$[ebp]
  000bb	72 d3		 jb	 SHORT $LL99@Unguarded_
$LN98@Unguarded_:

; 3746 : 		if (_Glast == _First && _Gfirst == _Last)

  000bd	39 55 fc	 cmp	 DWORD PTR __Glast$[ebp], edx
  000c0	75 1f		 jne	 SHORT $LN6@Unguarded_
  000c2	3b 7d 10	 cmp	 edi, DWORD PTR __Last$[ebp]
  000c5	74 50		 je	 SHORT $LN88@Unguarded_

; 3748 : 
; 3749 : 		if (_Glast == _First)
; 3750 : 			{	// no room at bottom, rotate pivot upward
; 3751 : 			if (_Plast != _Gfirst)

  000c7	3b df		 cmp	 ebx, edi
  000c9	74 09		 je	 SHORT $LN70@Unguarded_

; 3752 : 				_STD iter_swap(_Pfirst, _Plast);

  000cb	53		 push	 ebx
  000cc	56		 push	 esi
  000cd	e8 00 00 00 00	 call	 ??$swap@UInvenBlockItem@ioUserBlockStorage@@@std@@YAXAAUInvenBlockItem@ioUserBlockStorage@@0@Z ; std::swap<ioUserBlockStorage::InvenBlockItem>
  000d2	59		 pop	 ecx
  000d3	59		 pop	 ecx
$LN70@Unguarded_:

; 3753 : 			++_Plast;
; 3754 : 			_STD iter_swap(_Pfirst++, _Gfirst++);

  000d4	57		 push	 edi
  000d5	56		 push	 esi
  000d6	83 c3 38	 add	 ebx, 56			; 00000038H
  000d9	83 c6 38	 add	 esi, 56			; 00000038H
  000dc	83 c7 38	 add	 edi, 56			; 00000038H
  000df	eb 21		 jmp	 SHORT $LN101@Unguarded_
$LN6@Unguarded_:

; 3755 : 			}
; 3756 : 		else if (_Gfirst == _Last)
; 3757 : 			{	// no room at top, rotate pivot downward
; 3758 : 			if (--_Glast != --_Pfirst)

  000e1	83 6d fc 38	 sub	 DWORD PTR __Glast$[ebp], 56 ; 00000038H
  000e5	3b 7d 10	 cmp	 edi, DWORD PTR __Last$[ebp]
  000e8	75 24		 jne	 SHORT $LN3@Unguarded_
  000ea	83 ee 38	 sub	 esi, 56			; 00000038H
  000ed	39 75 fc	 cmp	 DWORD PTR __Glast$[ebp], esi
  000f0	74 0b		 je	 SHORT $LN74@Unguarded_

; 3759 : 				_STD iter_swap(_Glast, _Pfirst);

  000f2	56		 push	 esi
  000f3	ff 75 fc	 push	 DWORD PTR __Glast$[ebp]
  000f6	e8 00 00 00 00	 call	 ??$swap@UInvenBlockItem@ioUserBlockStorage@@@std@@YAXAAUInvenBlockItem@ioUserBlockStorage@@0@Z ; std::swap<ioUserBlockStorage::InvenBlockItem>
  000fb	59		 pop	 ecx
  000fc	59		 pop	 ecx
$LN74@Unguarded_:

; 3760 : 			_STD iter_swap(_Pfirst, --_Plast);

  000fd	83 eb 38	 sub	 ebx, 56			; 00000038H
  00100	53		 push	 ebx
  00101	56		 push	 esi
$LN101@Unguarded_:
  00102	e8 00 00 00 00	 call	 ??$swap@UInvenBlockItem@ioUserBlockStorage@@@std@@YAXAAUInvenBlockItem@ioUserBlockStorage@@0@Z ; std::swap<ioUserBlockStorage::InvenBlockItem>
  00107	59		 pop	 ecx
  00108	59		 pop	 ecx

; 3761 : 			}
; 3762 : 		else

  00109	e9 7b ff ff ff	 jmp	 $LN102@Unguarded_
$LN3@Unguarded_:

; 3763 : 			_STD iter_swap(_Gfirst++, --_Glast);

  0010e	ff 75 fc	 push	 DWORD PTR __Glast$[ebp]
  00111	57		 push	 edi

; 3764 : 		}

  00112	e9 68 ff ff ff	 jmp	 $LN104@Unguarded_
$LN88@Unguarded_:

; 3747 : 			return (_STD pair<_RanIt, _RanIt>(_Pfirst, _Plast));

  00117	8b 45 08	 mov	 eax, DWORD PTR ___$ReturnUdt$[ebp]
  0011a	5f		 pop	 edi
  0011b	89 30		 mov	 DWORD PTR [eax], esi
  0011d	5e		 pop	 esi
  0011e	89 58 04	 mov	 DWORD PTR [eax+4], ebx
  00121	5b		 pop	 ebx

; 3765 : 	}

  00122	c9		 leave
  00123	c3		 ret	 0
??$_Unguarded_partition@PAUInvenBlockItem@ioUserBlockStorage@@VInvenBlockItemSort@2@@std@@YA?AU?$pair@PAUInvenBlockItem@ioUserBlockStorage@@PAU12@@0@PAUInvenBlockItem@ioUserBlockStorage@@0VInvenBlockItemSort@3@@Z ENDP ; std::_Unguarded_partition<ioUserBlockStorage::InvenBlockItem *,ioUserBlockStorage::InvenBlockItemSort>
_TEXT	ENDS
PUBLIC	??$_Uninit_copy@PAUInvenBlockItem@ioUserBlockStorage@@PAU12@V?$allocator@UInvenBlockItem@ioUserBlockStorage@@@std@@@std@@YAPAUInvenBlockItem@ioUserBlockStorage@@PAU12@00AAV?$allocator@UInvenBlockItem@ioUserBlockStorage@@@0@U_Nonscalar_ptr_iterator_tag@0@@Z ; std::_Uninit_copy<ioUserBlockStorage::InvenBlockItem *,ioUserBlockStorage::InvenBlockItem *,std::allocator<ioUserBlockStorage::InvenBlockItem> >
;	COMDAT xdata$x
; File c:\program files (x86)\microsoft visual studio 10.0\vc\include\xmemory
xdata$x	SEGMENT
__catchsym$??$_Uninit_copy@PAUInvenBlockItem@ioUserBlockStorage@@PAU12@V?$allocator@UInvenBlockItem@ioUserBlockStorage@@@std@@@std@@YAPAUInvenBlockItem@ioUserBlockStorage@@PAU12@00AAV?$allocator@UInvenBlockItem@ioUserBlockStorage@@@0@U_Nonscalar_ptr_iterator_tag@0@@Z$2 DD 040H
	DD	00H
	DD	00H
	DD	FLAT:__catch$??$_Uninit_copy@PAUInvenBlockItem@ioUserBlockStorage@@PAU12@V?$allocator@UInvenBlockItem@ioUserBlockStorage@@@std@@@std@@YAPAUInvenBlockItem@ioUserBlockStorage@@PAU12@00AAV?$allocator@UInvenBlockItem@ioUserBlockStorage@@@0@U_Nonscalar_ptr_iterator_tag@0@@Z$0
__unwindtable$??$_Uninit_copy@PAUInvenBlockItem@ioUserBlockStorage@@PAU12@V?$allocator@UInvenBlockItem@ioUserBlockStorage@@@std@@@std@@YAPAUInvenBlockItem@ioUserBlockStorage@@PAU12@00AAV?$allocator@UInvenBlockItem@ioUserBlockStorage@@@0@U_Nonscalar_ptr_iterator_tag@0@@Z DD 0ffffffffH
	DD	00H
	DD	0ffffffffH
	DD	00H
__tryblocktable$??$_Uninit_copy@PAUInvenBlockItem@ioUserBlockStorage@@PAU12@V?$allocator@UInvenBlockItem@ioUserBlockStorage@@@std@@@std@@YAPAUInvenBlockItem@ioUserBlockStorage@@PAU12@00AAV?$allocator@UInvenBlockItem@ioUserBlockStorage@@@0@U_Nonscalar_ptr_iterator_tag@0@@Z DD 00H
	DD	00H
	DD	01H
	DD	01H
	DD	FLAT:__catchsym$??$_Uninit_copy@PAUInvenBlockItem@ioUserBlockStorage@@PAU12@V?$allocator@UInvenBlockItem@ioUserBlockStorage@@@std@@@std@@YAPAUInvenBlockItem@ioUserBlockStorage@@PAU12@00AAV?$allocator@UInvenBlockItem@ioUserBlockStorage@@@0@U_Nonscalar_ptr_iterator_tag@0@@Z$2
__ehfuncinfo$??$_Uninit_copy@PAUInvenBlockItem@ioUserBlockStorage@@PAU12@V?$allocator@UInvenBlockItem@ioUserBlockStorage@@@std@@@std@@YAPAUInvenBlockItem@ioUserBlockStorage@@PAU12@00AAV?$allocator@UInvenBlockItem@ioUserBlockStorage@@@0@U_Nonscalar_ptr_iterator_tag@0@@Z DD 019930522H
	DD	02H
	DD	FLAT:__unwindtable$??$_Uninit_copy@PAUInvenBlockItem@ioUserBlockStorage@@PAU12@V?$allocator@UInvenBlockItem@ioUserBlockStorage@@@std@@@std@@YAPAUInvenBlockItem@ioUserBlockStorage@@PAU12@00AAV?$allocator@UInvenBlockItem@ioUserBlockStorage@@@0@U_Nonscalar_ptr_iterator_tag@0@@Z
	DD	01H
	DD	FLAT:__tryblocktable$??$_Uninit_copy@PAUInvenBlockItem@ioUserBlockStorage@@PAU12@V?$allocator@UInvenBlockItem@ioUserBlockStorage@@@std@@@std@@YAPAUInvenBlockItem@ioUserBlockStorage@@PAU12@00AAV?$allocator@UInvenBlockItem@ioUserBlockStorage@@@0@U_Nonscalar_ptr_iterator_tag@0@@Z
	DD	2 DUP(00H)
	DD	00H
	DD	01H
; Function compile flags: /Ogsp
; File c:\program files (x86)\microsoft visual studio 10.0\vc\include\memory
xdata$x	ENDS
;	COMDAT ??$_Uninit_copy@PAUInvenBlockItem@ioUserBlockStorage@@PAU12@V?$allocator@UInvenBlockItem@ioUserBlockStorage@@@std@@@std@@YAPAUInvenBlockItem@ioUserBlockStorage@@PAU12@00AAV?$allocator@UInvenBlockItem@ioUserBlockStorage@@@0@U_Nonscalar_ptr_iterator_tag@0@@Z
_TEXT	SEGMENT
__Next$ = -20						; size = 4
__$EHRec$ = -16						; size = 16
__First$ = 8						; size = 4
__Last$ = 12						; size = 4
__Dest$ = 16						; size = 4
__Al$ = 20						; size = 4
___formal$ = 24						; size = 1
??$_Uninit_copy@PAUInvenBlockItem@ioUserBlockStorage@@PAU12@V?$allocator@UInvenBlockItem@ioUserBlockStorage@@@std@@@std@@YAPAUInvenBlockItem@ioUserBlockStorage@@PAU12@00AAV?$allocator@UInvenBlockItem@ioUserBlockStorage@@@0@U_Nonscalar_ptr_iterator_tag@0@@Z PROC ; std::_Uninit_copy<ioUserBlockStorage::InvenBlockItem *,ioUserBlockStorage::InvenBlockItem *,std::allocator<ioUserBlockStorage::InvenBlockItem> >, COMDAT

; 369  : 	{	// copy [_First, _Last) to raw _Dest, using _Al, arbitrary type

  00000	6a 08		 push	 8
  00002	b8 00 00 00 00	 mov	 eax, __ehhandler$??$_Uninit_copy@PAUInvenBlockItem@ioUserBlockStorage@@PAU12@V?$allocator@UInvenBlockItem@ioUserBlockStorage@@@std@@@std@@YAPAUInvenBlockItem@ioUserBlockStorage@@PAU12@00AAV?$allocator@UInvenBlockItem@ioUserBlockStorage@@@0@U_Nonscalar_ptr_iterator_tag@0@@Z
  00007	e8 00 00 00 00	 call	 __EH_prolog3_catch

; 370  : 	_DEBUG_RANGE(_First, _Last);
; 371  : 	_DEBUG_POINTER(_Dest);
; 372  : 	_FwdIt _Next = _Dest;

  0000c	8b 45 10	 mov	 eax, DWORD PTR __Dest$[ebp]

; 373  : 
; 374  : 	_TRY_BEGIN

  0000f	83 65 fc 00	 and	 DWORD PTR __$EHRec$[ebp+12], 0
  00013	8b 75 08	 mov	 esi, DWORD PTR __First$[ebp]
  00016	89 45 ec	 mov	 DWORD PTR __Next$[ebp], eax
$LL6@Uninit_cop:

; 375  : 	for (; _First != _Last; ++_Dest, ++_First)

  00019	3b 75 0c	 cmp	 esi, DWORD PTR __Last$[ebp]
  0001c	74 35		 je	 SHORT $LN4@Uninit_cop

; 376  : 		_Cons_val(_Al, _Dest, *_First);

  0001e	56		 push	 esi
  0001f	ff 75 10	 push	 DWORD PTR __Dest$[ebp]
  00022	ff 75 14	 push	 DWORD PTR __Al$[ebp]
  00025	e8 00 00 00 00	 call	 ??$_Cons_val@V?$allocator@UInvenBlockItem@ioUserBlockStorage@@@std@@UInvenBlockItem@ioUserBlockStorage@@AAU34@@std@@YAXAAV?$allocator@UInvenBlockItem@ioUserBlockStorage@@@0@PAUInvenBlockItem@ioUserBlockStorage@@AAU23@@Z ; std::_Cons_val<std::allocator<ioUserBlockStorage::InvenBlockItem>,ioUserBlockStorage::InvenBlockItem,ioUserBlockStorage::InvenBlockItem &>
  0002a	83 45 10 38	 add	 DWORD PTR __Dest$[ebp], 56 ; 00000038H
  0002e	83 c4 0c	 add	 esp, 12			; 0000000cH
  00031	83 c6 38	 add	 esi, 56			; 00000038H
  00034	eb e3		 jmp	 SHORT $LL6@Uninit_cop
__catch$??$_Uninit_copy@PAUInvenBlockItem@ioUserBlockStorage@@PAU12@V?$allocator@UInvenBlockItem@ioUserBlockStorage@@@std@@@std@@YAPAUInvenBlockItem@ioUserBlockStorage@@PAU12@00AAV?$allocator@UInvenBlockItem@ioUserBlockStorage@@@0@U_Nonscalar_ptr_iterator_tag@0@@Z$0:

; 377  : 	_CATCH_ALL
; 378  : 	for (; _Next != _Dest; ++_Next)

  00036	8b 75 ec	 mov	 esi, DWORD PTR __Next$[ebp]
  00039	eb 0a		 jmp	 SHORT $LN29@Uninit_cop
$LL3@Uninit_cop:

; 379  : 		_Dest_val(_Al, _Next);

  0003b	8b ce		 mov	 ecx, esi
  0003d	e8 00 00 00 00	 call	 ??1InvenBlockItem@ioUserBlockStorage@@QAE@XZ
  00042	83 c6 38	 add	 esi, 56			; 00000038H
$LN29@Uninit_cop:

; 377  : 	_CATCH_ALL
; 378  : 	for (; _Next != _Dest; ++_Next)

  00045	3b 75 10	 cmp	 esi, DWORD PTR __Dest$[ebp]
  00048	75 f1		 jne	 SHORT $LL3@Uninit_cop

; 380  : 	_RERAISE;

  0004a	6a 00		 push	 0
  0004c	6a 00		 push	 0
  0004e	e8 00 00 00 00	 call	 __CxxThrowException@8
$LN30@Uninit_cop:
$LN4@Uninit_cop:

; 381  : 	_CATCH_END
; 382  : 	return (_Dest);

  00053	8b 45 10	 mov	 eax, DWORD PTR __Dest$[ebp]

; 383  : 	}

  00056	e8 00 00 00 00	 call	 __EH_epilog3
  0005b	c3		 ret	 0
$LN28@Uninit_cop:
_TEXT	ENDS
;	COMDAT text$x
text$x	SEGMENT
__ehhandler$??$_Uninit_copy@PAUInvenBlockItem@ioUserBlockStorage@@PAU12@V?$allocator@UInvenBlockItem@ioUserBlockStorage@@@std@@@std@@YAPAUInvenBlockItem@ioUserBlockStorage@@PAU12@00AAV?$allocator@UInvenBlockItem@ioUserBlockStorage@@@0@U_Nonscalar_ptr_iterator_tag@0@@Z:
  00000	8b 54 24 08	 mov	 edx, DWORD PTR [esp+8]
  00004	8d 42 0c	 lea	 eax, DWORD PTR [edx+12]
  00007	8b 4a e8	 mov	 ecx, DWORD PTR [edx-24]
  0000a	33 c8		 xor	 ecx, eax
  0000c	e8 00 00 00 00	 call	 @__security_check_cookie@4
  00011	b8 00 00 00 00	 mov	 eax, OFFSET __ehfuncinfo$??$_Uninit_copy@PAUInvenBlockItem@ioUserBlockStorage@@PAU12@V?$allocator@UInvenBlockItem@ioUserBlockStorage@@@std@@@std@@YAPAUInvenBlockItem@ioUserBlockStorage@@PAU12@00AAV?$allocator@UInvenBlockItem@ioUserBlockStorage@@@0@U_Nonscalar_ptr_iterator_tag@0@@Z
  00016	e9 00 00 00 00	 jmp	 ___CxxFrameHandler3
text$x	ENDS
??$_Uninit_copy@PAUInvenBlockItem@ioUserBlockStorage@@PAU12@V?$allocator@UInvenBlockItem@ioUserBlockStorage@@@std@@@std@@YAPAUInvenBlockItem@ioUserBlockStorage@@PAU12@00AAV?$allocator@UInvenBlockItem@ioUserBlockStorage@@@0@U_Nonscalar_ptr_iterator_tag@0@@Z ENDP ; std::_Uninit_copy<ioUserBlockStorage::InvenBlockItem *,ioUserBlockStorage::InvenBlockItem *,std::allocator<ioUserBlockStorage::InvenBlockItem> >
PUBLIC	??$_Sort_heap@PAUInvenBlockItem@ioUserBlockStorage@@VInvenBlockItemSort@2@@std@@YAXPAUInvenBlockItem@ioUserBlockStorage@@0VInvenBlockItemSort@2@@Z ; std::_Sort_heap<ioUserBlockStorage::InvenBlockItem *,ioUserBlockStorage::InvenBlockItemSort>
; Function compile flags: /Ogsp
; File c:\program files (x86)\microsoft visual studio 10.0\vc\include\algorithm
;	COMDAT ??$_Sort_heap@PAUInvenBlockItem@ioUserBlockStorage@@VInvenBlockItemSort@2@@std@@YAXPAUInvenBlockItem@ioUserBlockStorage@@0VInvenBlockItemSort@2@@Z
_TEXT	SEGMENT
__First$ = 8						; size = 4
__Last$ = 12						; size = 4
__Pred$ = 16						; size = 1
??$_Sort_heap@PAUInvenBlockItem@ioUserBlockStorage@@VInvenBlockItemSort@2@@std@@YAXPAUInvenBlockItem@ioUserBlockStorage@@0VInvenBlockItemSort@2@@Z PROC ; std::_Sort_heap<ioUserBlockStorage::InvenBlockItem *,ioUserBlockStorage::InvenBlockItemSort>, COMDAT

; 2700 : 	{	// order heap by repeatedly popping, using _Pred

  00000	55		 push	 ebp
  00001	8b ec		 mov	 ebp, esp

; 2701 : 	for (; 1 < _Last - _First; --_Last)

  00003	8b 4d 0c	 mov	 ecx, DWORD PTR __Last$[ebp]
  00006	2b 4d 08	 sub	 ecx, DWORD PTR __First$[ebp]
  00009	57		 push	 edi
  0000a	8b c1		 mov	 eax, ecx
  0000c	6a 38		 push	 56			; 00000038H
  0000e	99		 cdq
  0000f	5f		 pop	 edi
  00010	f7 ff		 idiv	 edi
  00012	83 f8 01	 cmp	 eax, 1
  00015	7e 29		 jle	 SHORT $LN1@Sort_heap
  00017	8b f9		 mov	 edi, ecx
$LL3@Sort_heap:

; 2702 : 		_Pop_heap(_First, _Last, _Pred);

  00019	6a 00		 push	 0
  0001b	ff 75 10	 push	 DWORD PTR __Pred$[ebp]
  0001e	ff 75 0c	 push	 DWORD PTR __Last$[ebp]
  00021	ff 75 08	 push	 DWORD PTR __First$[ebp]
  00024	e8 00 00 00 00	 call	 ??$_Pop_heap_0@PAUInvenBlockItem@ioUserBlockStorage@@U12@VInvenBlockItemSort@2@@std@@YAXPAUInvenBlockItem@ioUserBlockStorage@@0VInvenBlockItemSort@2@0@Z ; std::_Pop_heap_0<ioUserBlockStorage::InvenBlockItem *,ioUserBlockStorage::InvenBlockItem,ioUserBlockStorage::InvenBlockItemSort>
  00029	83 c4 10	 add	 esp, 16			; 00000010H
  0002c	83 ef 38	 sub	 edi, 56			; 00000038H
  0002f	8b c7		 mov	 eax, edi
  00031	6a 38		 push	 56			; 00000038H
  00033	99		 cdq
  00034	59		 pop	 ecx
  00035	f7 f9		 idiv	 ecx
  00037	83 6d 0c 38	 sub	 DWORD PTR __Last$[ebp], 56 ; 00000038H
  0003b	83 f8 01	 cmp	 eax, 1
  0003e	7f d9		 jg	 SHORT $LL3@Sort_heap
$LN1@Sort_heap:
  00040	5f		 pop	 edi

; 2703 : 	}

  00041	5d		 pop	 ebp
  00042	c3		 ret	 0
??$_Sort_heap@PAUInvenBlockItem@ioUserBlockStorage@@VInvenBlockItemSort@2@@std@@YAXPAUInvenBlockItem@ioUserBlockStorage@@0VInvenBlockItemSort@2@@Z ENDP ; std::_Sort_heap<ioUserBlockStorage::InvenBlockItem *,ioUserBlockStorage::InvenBlockItemSort>
_TEXT	ENDS
PUBLIC	?_Destroy@?$vector@VioBlockDBItem@@V?$allocator@VioBlockDBItem@@@std@@@std@@IAEXPAVioBlockDBItem@@0@Z ; std::vector<ioBlockDBItem,std::allocator<ioBlockDBItem> >::_Destroy
; Function compile flags: /Ogsp
; File c:\program files (x86)\microsoft visual studio 10.0\vc\include\vector
;	COMDAT ?_Destroy@?$vector@VioBlockDBItem@@V?$allocator@VioBlockDBItem@@@std@@@std@@IAEXPAVioBlockDBItem@@0@Z
_TEXT	SEGMENT
__First$ = 8						; size = 4
__Last$ = 12						; size = 4
?_Destroy@?$vector@VioBlockDBItem@@V?$allocator@VioBlockDBItem@@@std@@@std@@IAEXPAVioBlockDBItem@@0@Z PROC ; std::vector<ioBlockDBItem,std::allocator<ioBlockDBItem> >::_Destroy, COMDAT
; _this$ = ecx

; 1269 : 		{	// destroy [_First, _Last) using allocator

  00000	55		 push	 ebp
  00001	8b ec		 mov	 ebp, esp
  00003	56		 push	 esi

; 1270 : 		_Destroy_range(_First, _Last, this->_Alval);

  00004	8b 75 08	 mov	 esi, DWORD PTR __First$[ebp]
  00007	eb 0b		 jmp	 SHORT $LN20@Destroy
$LL9@Destroy:
  00009	8b 06		 mov	 eax, DWORD PTR [esi]
  0000b	6a 00		 push	 0
  0000d	8b ce		 mov	 ecx, esi
  0000f	ff 10		 call	 DWORD PTR [eax]
  00011	83 c6 28	 add	 esi, 40			; 00000028H
$LN20@Destroy:
  00014	3b 75 0c	 cmp	 esi, DWORD PTR __Last$[ebp]
  00017	75 f0		 jne	 SHORT $LL9@Destroy
  00019	5e		 pop	 esi

; 1271 : 		}

  0001a	5d		 pop	 ebp
  0001b	c2 08 00	 ret	 8
?_Destroy@?$vector@VioBlockDBItem@@V?$allocator@VioBlockDBItem@@@std@@@std@@IAEXPAVioBlockDBItem@@0@Z ENDP ; std::vector<ioBlockDBItem,std::allocator<ioBlockDBItem> >::_Destroy
_TEXT	ENDS
PUBLIC	??$_Destroy_range@V?$allocator@UInvenBlockItem@ioUserBlockStorage@@@std@@@std@@YAXPAUInvenBlockItem@ioUserBlockStorage@@0AAV?$allocator@UInvenBlockItem@ioUserBlockStorage@@@0@@Z ; std::_Destroy_range<std::allocator<ioUserBlockStorage::InvenBlockItem> >
; Function compile flags: /Ogsp
; File c:\program files (x86)\microsoft visual studio 10.0\vc\include\xmemory
;	COMDAT ??$_Destroy_range@V?$allocator@UInvenBlockItem@ioUserBlockStorage@@@std@@@std@@YAXPAUInvenBlockItem@ioUserBlockStorage@@0AAV?$allocator@UInvenBlockItem@ioUserBlockStorage@@@0@@Z
_TEXT	SEGMENT
__First$ = 8						; size = 4
__Last$ = 12						; size = 4
__Al$ = 16						; size = 4
??$_Destroy_range@V?$allocator@UInvenBlockItem@ioUserBlockStorage@@@std@@@std@@YAXPAUInvenBlockItem@ioUserBlockStorage@@0AAV?$allocator@UInvenBlockItem@ioUserBlockStorage@@@0@@Z PROC ; std::_Destroy_range<std::allocator<ioUserBlockStorage::InvenBlockItem> >, COMDAT

; 87   : 	{	// destroy [_First, _Last)

  00000	55		 push	 ebp
  00001	8b ec		 mov	 ebp, esp
  00003	56		 push	 esi

; 88   : 	_Destroy_range(_First, _Last, _Al, _Ptr_cat(_First, _Last));

  00004	8b 75 08	 mov	 esi, DWORD PTR __First$[ebp]
  00007	eb 0a		 jmp	 SHORT $LN21@Destroy_ra@4
$LL7@Destroy_ra@4:
  00009	8b ce		 mov	 ecx, esi
  0000b	e8 00 00 00 00	 call	 ??1InvenBlockItem@ioUserBlockStorage@@QAE@XZ
  00010	83 c6 38	 add	 esi, 56			; 00000038H
$LN21@Destroy_ra@4:
  00013	3b 75 0c	 cmp	 esi, DWORD PTR __Last$[ebp]
  00016	75 f1		 jne	 SHORT $LL7@Destroy_ra@4
  00018	5e		 pop	 esi

; 89   : 	}

  00019	5d		 pop	 ebp
  0001a	c3		 ret	 0
??$_Destroy_range@V?$allocator@UInvenBlockItem@ioUserBlockStorage@@@std@@@std@@YAXPAUInvenBlockItem@ioUserBlockStorage@@0AAV?$allocator@UInvenBlockItem@ioUserBlockStorage@@@0@@Z ENDP ; std::_Destroy_range<std::allocator<ioUserBlockStorage::InvenBlockItem> >
_TEXT	ENDS
PUBLIC	??$_Umove@PAVioBlockDBItem@@@?$vector@VioBlockDBItem@@V?$allocator@VioBlockDBItem@@@std@@@std@@IAEPAVioBlockDBItem@@PAV2@00@Z ; std::vector<ioBlockDBItem,std::allocator<ioBlockDBItem> >::_Umove<ioBlockDBItem *>
; Function compile flags: /Ogsp
; File c:\program files (x86)\microsoft visual studio 10.0\vc\include\vector
;	COMDAT ??$_Umove@PAVioBlockDBItem@@@?$vector@VioBlockDBItem@@V?$allocator@VioBlockDBItem@@@std@@@std@@IAEPAVioBlockDBItem@@PAV2@00@Z
_TEXT	SEGMENT
__First$ = 8						; size = 4
__Last$ = 12						; size = 4
__Ptr$ = 16						; size = 4
??$_Umove@PAVioBlockDBItem@@@?$vector@VioBlockDBItem@@V?$allocator@VioBlockDBItem@@@std@@@std@@IAEPAVioBlockDBItem@@PAV2@00@Z PROC ; std::vector<ioBlockDBItem,std::allocator<ioBlockDBItem> >::_Umove<ioBlockDBItem *>, COMDAT
; _this$ = ecx

; 1322 : 		pointer _Umove(_Iter _First, _Iter _Last, pointer _Ptr)

  00000	55		 push	 ebp
  00001	8b ec		 mov	 ebp, esp

; 1323 : 		{	// move initializing [_First, _Last), using allocator
; 1324 : 		return (_Uninitialized_move(_First, _Last,
; 1325 : 			_Ptr, this->_Alval));

  00003	83 c1 0c	 add	 ecx, 12			; 0000000cH
  00006	51		 push	 ecx
  00007	ff 75 10	 push	 DWORD PTR __Ptr$[ebp]
  0000a	ff 75 0c	 push	 DWORD PTR __Last$[ebp]
  0000d	ff 75 08	 push	 DWORD PTR __First$[ebp]
  00010	e8 00 00 00 00	 call	 ??$_Uninitialized_move@PAVioBlockDBItem@@PAV1@V?$allocator@VioBlockDBItem@@@std@@@std@@YAPAVioBlockDBItem@@PAV1@00AAV?$allocator@VioBlockDBItem@@@0@@Z ; std::_Uninitialized_move<ioBlockDBItem *,ioBlockDBItem *,std::allocator<ioBlockDBItem> >
  00015	83 c4 10	 add	 esp, 16			; 00000010H

; 1326 : 		}

  00018	5d		 pop	 ebp
  00019	c2 0c 00	 ret	 12			; 0000000cH
??$_Umove@PAVioBlockDBItem@@@?$vector@VioBlockDBItem@@V?$allocator@VioBlockDBItem@@@std@@@std@@IAEPAVioBlockDBItem@@PAV2@00@Z ENDP ; std::vector<ioBlockDBItem,std::allocator<ioBlockDBItem> >::_Umove<ioBlockDBItem *>
_TEXT	ENDS
PUBLIC	??$_Umove@PAUInvenBlockItem@ioUserBlockStorage@@@?$vector@UInvenBlockItem@ioUserBlockStorage@@V?$allocator@UInvenBlockItem@ioUserBlockStorage@@@std@@@std@@IAEPAUInvenBlockItem@ioUserBlockStorage@@PAU23@00@Z ; std::vector<ioUserBlockStorage::InvenBlockItem,std::allocator<ioUserBlockStorage::InvenBlockItem> >::_Umove<ioUserBlockStorage::InvenBlockItem *>
; Function compile flags: /Ogsp
;	COMDAT ??$_Umove@PAUInvenBlockItem@ioUserBlockStorage@@@?$vector@UInvenBlockItem@ioUserBlockStorage@@V?$allocator@UInvenBlockItem@ioUserBlockStorage@@@std@@@std@@IAEPAUInvenBlockItem@ioUserBlockStorage@@PAU23@00@Z
_TEXT	SEGMENT
__First$ = 8						; size = 4
__Last$ = 12						; size = 4
__Ptr$ = 16						; size = 4
??$_Umove@PAUInvenBlockItem@ioUserBlockStorage@@@?$vector@UInvenBlockItem@ioUserBlockStorage@@V?$allocator@UInvenBlockItem@ioUserBlockStorage@@@std@@@std@@IAEPAUInvenBlockItem@ioUserBlockStorage@@PAU23@00@Z PROC ; std::vector<ioUserBlockStorage::InvenBlockItem,std::allocator<ioUserBlockStorage::InvenBlockItem> >::_Umove<ioUserBlockStorage::InvenBlockItem *>, COMDAT
; _this$ = ecx

; 1322 : 		pointer _Umove(_Iter _First, _Iter _Last, pointer _Ptr)

  00000	55		 push	 ebp
  00001	8b ec		 mov	 ebp, esp

; 1323 : 		{	// move initializing [_First, _Last), using allocator
; 1324 : 		return (_Uninitialized_move(_First, _Last,
; 1325 : 			_Ptr, this->_Alval));

  00003	83 c1 0c	 add	 ecx, 12			; 0000000cH
  00006	51		 push	 ecx
  00007	ff 75 10	 push	 DWORD PTR __Ptr$[ebp]
  0000a	ff 75 0c	 push	 DWORD PTR __Last$[ebp]
  0000d	ff 75 08	 push	 DWORD PTR __First$[ebp]
  00010	e8 00 00 00 00	 call	 ??$_Uninitialized_move@PAUInvenBlockItem@ioUserBlockStorage@@PAU12@V?$allocator@UInvenBlockItem@ioUserBlockStorage@@@std@@@std@@YAPAUInvenBlockItem@ioUserBlockStorage@@PAU12@00AAV?$allocator@UInvenBlockItem@ioUserBlockStorage@@@0@@Z ; std::_Uninitialized_move<ioUserBlockStorage::InvenBlockItem *,ioUserBlockStorage::InvenBlockItem *,std::allocator<ioUserBlockStorage::InvenBlockItem> >
  00015	83 c4 10	 add	 esp, 16			; 00000010H

; 1326 : 		}

  00018	5d		 pop	 ebp
  00019	c2 0c 00	 ret	 12			; 0000000cH
??$_Umove@PAUInvenBlockItem@ioUserBlockStorage@@@?$vector@UInvenBlockItem@ioUserBlockStorage@@V?$allocator@UInvenBlockItem@ioUserBlockStorage@@@std@@@std@@IAEPAUInvenBlockItem@ioUserBlockStorage@@PAU23@00@Z ENDP ; std::vector<ioUserBlockStorage::InvenBlockItem,std::allocator<ioUserBlockStorage::InvenBlockItem> >::_Umove<ioUserBlockStorage::InvenBlockItem *>
_TEXT	ENDS
PUBLIC	??$_Uninitialized_copy@PAUInvenBlockItem@ioUserBlockStorage@@PAU12@V?$allocator@UInvenBlockItem@ioUserBlockStorage@@@std@@@std@@YAPAUInvenBlockItem@ioUserBlockStorage@@PAU12@00AAV?$allocator@UInvenBlockItem@ioUserBlockStorage@@@0@@Z ; std::_Uninitialized_copy<ioUserBlockStorage::InvenBlockItem *,ioUserBlockStorage::InvenBlockItem *,std::allocator<ioUserBlockStorage::InvenBlockItem> >
; Function compile flags: /Ogsp
; File c:\program files (x86)\microsoft visual studio 10.0\vc\include\memory
;	COMDAT ??$_Uninitialized_copy@PAUInvenBlockItem@ioUserBlockStorage@@PAU12@V?$allocator@UInvenBlockItem@ioUserBlockStorage@@@std@@@std@@YAPAUInvenBlockItem@ioUserBlockStorage@@PAU12@00AAV?$allocator@UInvenBlockItem@ioUserBlockStorage@@@0@@Z
_TEXT	SEGMENT
__Cat$513601 = -4					; size = 1
__First$ = 8						; size = 4
__Last$ = 12						; size = 4
__Dest$ = 16						; size = 4
__Al$ = 20						; size = 4
??$_Uninitialized_copy@PAUInvenBlockItem@ioUserBlockStorage@@PAU12@V?$allocator@UInvenBlockItem@ioUserBlockStorage@@@std@@@std@@YAPAUInvenBlockItem@ioUserBlockStorage@@PAU12@00AAV?$allocator@UInvenBlockItem@ioUserBlockStorage@@@0@@Z PROC ; std::_Uninitialized_copy<ioUserBlockStorage::InvenBlockItem *,ioUserBlockStorage::InvenBlockItem *,std::allocator<ioUserBlockStorage::InvenBlockItem> >, COMDAT

; 412  : 	{	// copy [_First, _Last) to raw _Dest, using _Al

  00000	55		 push	 ebp
  00001	8b ec		 mov	 ebp, esp
  00003	51		 push	 ecx

; 413  : 	return (_Uninit_copy(_First, _Last, _Dest, _Al,
; 414  : 		_Ptr_cat(_First, _Dest)));

  00004	ff 75 fc	 push	 DWORD PTR __Cat$513601[ebp]
  00007	ff 75 14	 push	 DWORD PTR __Al$[ebp]
  0000a	ff 75 10	 push	 DWORD PTR __Dest$[ebp]
  0000d	ff 75 0c	 push	 DWORD PTR __Last$[ebp]
  00010	ff 75 08	 push	 DWORD PTR __First$[ebp]
  00013	e8 00 00 00 00	 call	 ??$_Uninit_copy@PAUInvenBlockItem@ioUserBlockStorage@@PAU12@V?$allocator@UInvenBlockItem@ioUserBlockStorage@@@std@@@std@@YAPAUInvenBlockItem@ioUserBlockStorage@@PAU12@00AAV?$allocator@UInvenBlockItem@ioUserBlockStorage@@@0@U_Nonscalar_ptr_iterator_tag@0@@Z ; std::_Uninit_copy<ioUserBlockStorage::InvenBlockItem *,ioUserBlockStorage::InvenBlockItem *,std::allocator<ioUserBlockStorage::InvenBlockItem> >
  00018	83 c4 14	 add	 esp, 20			; 00000014H

; 415  : 	}

  0001b	c9		 leave
  0001c	c3		 ret	 0
??$_Uninitialized_copy@PAUInvenBlockItem@ioUserBlockStorage@@PAU12@V?$allocator@UInvenBlockItem@ioUserBlockStorage@@@std@@@std@@YAPAUInvenBlockItem@ioUserBlockStorage@@PAU12@00AAV?$allocator@UInvenBlockItem@ioUserBlockStorage@@@0@@Z ENDP ; std::_Uninitialized_copy<ioUserBlockStorage::InvenBlockItem *,ioUserBlockStorage::InvenBlockItem *,std::allocator<ioUserBlockStorage::InvenBlockItem> >
_TEXT	ENDS
PUBLIC	??$sort_heap@PAUInvenBlockItem@ioUserBlockStorage@@VInvenBlockItemSort@2@@std@@YAXPAUInvenBlockItem@ioUserBlockStorage@@0VInvenBlockItemSort@2@@Z ; std::sort_heap<ioUserBlockStorage::InvenBlockItem *,ioUserBlockStorage::InvenBlockItemSort>
; Function compile flags: /Ogsp
; File c:\program files (x86)\microsoft visual studio 10.0\vc\include\algorithm
;	COMDAT ??$sort_heap@PAUInvenBlockItem@ioUserBlockStorage@@VInvenBlockItemSort@2@@std@@YAXPAUInvenBlockItem@ioUserBlockStorage@@0VInvenBlockItemSort@2@@Z
_TEXT	SEGMENT
__First$ = 8						; size = 4
__Last$ = 12						; size = 4
__Pred$ = 16						; size = 1
??$sort_heap@PAUInvenBlockItem@ioUserBlockStorage@@VInvenBlockItemSort@2@@std@@YAXPAUInvenBlockItem@ioUserBlockStorage@@0VInvenBlockItemSort@2@@Z PROC ; std::sort_heap<ioUserBlockStorage::InvenBlockItem *,ioUserBlockStorage::InvenBlockItemSort>, COMDAT

; 2708 : 	{	// order heap by repeatedly popping, using _Pred

  00000	55		 push	 ebp
  00001	8b ec		 mov	 ebp, esp

; 2709 : 	_DEBUG_RANGE(_First, _Last);
; 2710 : 	_DEBUG_POINTER(_Pred);
; 2711 : 	_DEBUG_HEAP_PRED(_First, _Last, _Pred);
; 2712 : 	_Sort_heap(_Unchecked(_First), _Unchecked(_Last), _Pred);

  00003	ff 75 10	 push	 DWORD PTR __Pred$[ebp]
  00006	ff 75 0c	 push	 DWORD PTR __Last$[ebp]
  00009	ff 75 08	 push	 DWORD PTR __First$[ebp]
  0000c	e8 00 00 00 00	 call	 ??$_Sort_heap@PAUInvenBlockItem@ioUserBlockStorage@@VInvenBlockItemSort@2@@std@@YAXPAUInvenBlockItem@ioUserBlockStorage@@0VInvenBlockItemSort@2@@Z ; std::_Sort_heap<ioUserBlockStorage::InvenBlockItem *,ioUserBlockStorage::InvenBlockItemSort>
  00011	83 c4 0c	 add	 esp, 12			; 0000000cH

; 2713 : 	}

  00014	5d		 pop	 ebp
  00015	c3		 ret	 0
??$sort_heap@PAUInvenBlockItem@ioUserBlockStorage@@VInvenBlockItemSort@2@@std@@YAXPAUInvenBlockItem@ioUserBlockStorage@@0VInvenBlockItemSort@2@@Z ENDP ; std::sort_heap<ioUserBlockStorage::InvenBlockItem *,ioUserBlockStorage::InvenBlockItemSort>
_TEXT	ENDS
PUBLIC	?erase@?$vector@VioBlockDBItem@@V?$allocator@VioBlockDBItem@@@std@@@std@@QAE?AV?$_Vector_iterator@V?$_Vector_val@VioBlockDBItem@@V?$allocator@VioBlockDBItem@@@std@@@std@@@2@V?$_Vector_const_iterator@V?$_Vector_val@VioBlockDBItem@@V?$allocator@VioBlockDBItem@@@std@@@std@@@2@0@Z ; std::vector<ioBlockDBItem,std::allocator<ioBlockDBItem> >::erase
; Function compile flags: /Ogsp
; File c:\program files (x86)\microsoft visual studio 10.0\vc\include\vector
;	COMDAT ?erase@?$vector@VioBlockDBItem@@V?$allocator@VioBlockDBItem@@@std@@@std@@QAE?AV?$_Vector_iterator@V?$_Vector_val@VioBlockDBItem@@V?$allocator@VioBlockDBItem@@@std@@@std@@@2@V?$_Vector_const_iterator@V?$_Vector_val@VioBlockDBItem@@V?$allocator@VioBlockDBItem@@@std@@@std@@@2@0@Z
_TEXT	SEGMENT
$T513724 = -4						; size = 4
___$ReturnUdt$ = 8					; size = 4
__First_arg$ = 12					; size = 4
__Cat$513686 = 16					; size = 1
__Last_arg$ = 16					; size = 4
?erase@?$vector@VioBlockDBItem@@V?$allocator@VioBlockDBItem@@@std@@@std@@QAE?AV?$_Vector_iterator@V?$_Vector_val@VioBlockDBItem@@V?$allocator@VioBlockDBItem@@@std@@@std@@@2@V?$_Vector_const_iterator@V?$_Vector_val@VioBlockDBItem@@V?$allocator@VioBlockDBItem@@@std@@@std@@@2@0@Z PROC ; std::vector<ioBlockDBItem,std::allocator<ioBlockDBItem> >::erase, COMDAT
; _this$ = ecx

; 1190 : 		{	// erase [_First, _Last)

  00000	55		 push	 ebp
  00001	8b ec		 mov	 ebp, esp
  00003	51		 push	 ecx

; 1191 : 		iterator _First = _Make_iter(_First_arg);

  00004	8b 45 08	 mov	 eax, DWORD PTR ___$ReturnUdt$[ebp]
  00007	56		 push	 esi
  00008	8b f1		 mov	 esi, ecx
  0000a	8b 4d 0c	 mov	 ecx, DWORD PTR __First_arg$[ebp]
  0000d	89 08		 mov	 DWORD PTR [eax], ecx

; 1192 : 		iterator _Last = _Make_iter(_Last_arg);
; 1193 : 
; 1194 : 		if (_First != _Last)

  0000f	3b 4d 10	 cmp	 ecx, DWORD PTR __Last_arg$[ebp]
  00012	74 38		 je	 SHORT $LN1@erase

; 1195 : 			{	// worth doing, copy down over hole
; 1196 :  #if _ITERATOR_DEBUG_LEVEL == 2
; 1197 : 			if (_Last < _First || _VICONT(_First) != this
; 1198 : 				|| _VIPTR(_First) < this->_Myfirst
; 1199 : 				|| this->_Mylast < _VIPTR(_Last))
; 1200 : 				_DEBUG_ERROR("vector erase iterator outside range");
; 1201 : 			pointer _Ptr = _Move(_VIPTR(_Last), this->_Mylast,
; 1202 : 				_VIPTR(_First));
; 1203 : 			_Orphan_range(_VIPTR(_First), this->_Mylast);
; 1204 : 
; 1205 :  #else /* _ITERATOR_DEBUG_LEVEL == 2 */
; 1206 : 			pointer _Ptr = _Move(_VIPTR(_Last), this->_Mylast,
; 1207 : 				_VIPTR(_First));

  00014	8b 46 04	 mov	 eax, DWORD PTR [esi+4]
  00017	53		 push	 ebx
  00018	57		 push	 edi
  00019	ff 75 10	 push	 DWORD PTR __Cat$513686[ebp]
  0001c	51		 push	 ecx
  0001d	50		 push	 eax
  0001e	ff 75 10	 push	 DWORD PTR __Last_arg$[ebp]
  00021	e8 00 00 00 00	 call	 ??$_Move@PAVioBlockDBItem@@PAV1@@std@@YAPAVioBlockDBItem@@PAV1@00U_Nonscalar_ptr_iterator_tag@0@@Z ; std::_Move<ioBlockDBItem *,ioBlockDBItem *>

; 1208 :  #endif /* _ITERATOR_DEBUG_LEVEL == 2 */
; 1209 : 
; 1210 : 			_Destroy(_Ptr, this->_Mylast);

  00026	8b 7e 04	 mov	 edi, DWORD PTR [esi+4]
  00029	8b d8		 mov	 ebx, eax
  0002b	83 c4 10	 add	 esp, 16			; 00000010H
  0002e	89 5d fc	 mov	 DWORD PTR $T513724[ebp], ebx
  00031	3b df		 cmp	 ebx, edi
  00033	74 12		 je	 SHORT $LN36@erase
$LL49@erase:
  00035	8b 4d fc	 mov	 ecx, DWORD PTR $T513724[ebp]
  00038	8b 01		 mov	 eax, DWORD PTR [ecx]
  0003a	6a 00		 push	 0
  0003c	ff 10		 call	 DWORD PTR [eax]
  0003e	83 45 fc 28	 add	 DWORD PTR $T513724[ebp], 40 ; 00000028H
  00042	39 7d fc	 cmp	 DWORD PTR $T513724[ebp], edi
  00045	75 ee		 jne	 SHORT $LL49@erase
$LN36@erase:

; 1211 : 			this->_Mylast = _Ptr;

  00047	5f		 pop	 edi
  00048	89 5e 04	 mov	 DWORD PTR [esi+4], ebx
  0004b	5b		 pop	 ebx
$LN1@erase:

; 1212 : 			}
; 1213 : 		return (_First);

  0004c	8b 45 08	 mov	 eax, DWORD PTR ___$ReturnUdt$[ebp]
  0004f	5e		 pop	 esi

; 1214 : 		}

  00050	c9		 leave
  00051	c2 0c 00	 ret	 12			; 0000000cH
?erase@?$vector@VioBlockDBItem@@V?$allocator@VioBlockDBItem@@@std@@@std@@QAE?AV?$_Vector_iterator@V?$_Vector_val@VioBlockDBItem@@V?$allocator@VioBlockDBItem@@@std@@@std@@@2@V?$_Vector_const_iterator@V?$_Vector_val@VioBlockDBItem@@V?$allocator@VioBlockDBItem@@@std@@@std@@@2@0@Z ENDP ; std::vector<ioBlockDBItem,std::allocator<ioBlockDBItem> >::erase
_TEXT	ENDS
PUBLIC	?_Tidy@?$vector@VioBlockDBItem@@V?$allocator@VioBlockDBItem@@@std@@@std@@IAEXXZ ; std::vector<ioBlockDBItem,std::allocator<ioBlockDBItem> >::_Tidy
EXTRN	__imp_?_Orphan_all@_Container_base0@std@@QAEXXZ:PROC
; Function compile flags: /Ogsp
;	COMDAT ?_Tidy@?$vector@VioBlockDBItem@@V?$allocator@VioBlockDBItem@@@std@@@std@@IAEXXZ
_TEXT	SEGMENT
?_Tidy@?$vector@VioBlockDBItem@@V?$allocator@VioBlockDBItem@@@std@@@std@@IAEXXZ PROC ; std::vector<ioBlockDBItem,std::allocator<ioBlockDBItem> >::_Tidy, COMDAT
; _this$ = ecx

; 1301 : 		{	// free all storage

  00000	56		 push	 esi
  00001	8b f1		 mov	 esi, ecx

; 1302 : 		if (this->_Myfirst != 0)

  00003	83 3e 00	 cmp	 DWORD PTR [esi], 0
  00006	74 28		 je	 SHORT $LN21@Tidy

; 1303 : 			{	// something to free, destroy and deallocate it
; 1304 : 			this->_Orphan_all();

  00008	53		 push	 ebx
  00009	57		 push	 edi
  0000a	ff 15 00 00 00
	00		 call	 DWORD PTR __imp_?_Orphan_all@_Container_base0@std@@QAEXXZ

; 1305 : 			_Destroy(this->_Myfirst, this->_Mylast);

  00010	8b 5e 04	 mov	 ebx, DWORD PTR [esi+4]
  00013	8b 3e		 mov	 edi, DWORD PTR [esi]
  00015	eb 0b		 jmp	 SHORT $LN25@Tidy
$LL12@Tidy:
  00017	8b 07		 mov	 eax, DWORD PTR [edi]
  00019	6a 00		 push	 0
  0001b	8b cf		 mov	 ecx, edi
  0001d	ff 10		 call	 DWORD PTR [eax]
  0001f	83 c7 28	 add	 edi, 40			; 00000028H
$LN25@Tidy:
  00022	3b fb		 cmp	 edi, ebx
  00024	75 f1		 jne	 SHORT $LL12@Tidy

; 1306 : 			this->_Alval.deallocate(this->_Myfirst,
; 1307 : 				this->_Myend - this->_Myfirst);

  00026	ff 36		 push	 DWORD PTR [esi]
  00028	e8 00 00 00 00	 call	 ??3@YAXPAX@Z		; operator delete
  0002d	59		 pop	 ecx
  0002e	5f		 pop	 edi
  0002f	5b		 pop	 ebx
$LN21@Tidy:

; 1308 : 			}
; 1309 : 		this->_Myfirst = 0;

  00030	33 c0		 xor	 eax, eax
  00032	89 06		 mov	 DWORD PTR [esi], eax

; 1310 : 		this->_Mylast = 0;

  00034	89 46 04	 mov	 DWORD PTR [esi+4], eax

; 1311 : 		this->_Myend = 0;

  00037	89 46 08	 mov	 DWORD PTR [esi+8], eax
  0003a	5e		 pop	 esi

; 1312 : 		}

  0003b	c3		 ret	 0
?_Tidy@?$vector@VioBlockDBItem@@V?$allocator@VioBlockDBItem@@@std@@@std@@IAEXXZ ENDP ; std::vector<ioBlockDBItem,std::allocator<ioBlockDBItem> >::_Tidy
_TEXT	ENDS
PUBLIC	?_Destroy@?$vector@UInvenBlockItem@ioUserBlockStorage@@V?$allocator@UInvenBlockItem@ioUserBlockStorage@@@std@@@std@@IAEXPAUInvenBlockItem@ioUserBlockStorage@@0@Z ; std::vector<ioUserBlockStorage::InvenBlockItem,std::allocator<ioUserBlockStorage::InvenBlockItem> >::_Destroy
; Function compile flags: /Ogsp
;	COMDAT ?_Destroy@?$vector@UInvenBlockItem@ioUserBlockStorage@@V?$allocator@UInvenBlockItem@ioUserBlockStorage@@@std@@@std@@IAEXPAUInvenBlockItem@ioUserBlockStorage@@0@Z
_TEXT	SEGMENT
__First$ = 8						; size = 4
__Last$ = 12						; size = 4
?_Destroy@?$vector@UInvenBlockItem@ioUserBlockStorage@@V?$allocator@UInvenBlockItem@ioUserBlockStorage@@@std@@@std@@IAEXPAUInvenBlockItem@ioUserBlockStorage@@0@Z PROC ; std::vector<ioUserBlockStorage::InvenBlockItem,std::allocator<ioUserBlockStorage::InvenBlockItem> >::_Destroy, COMDAT
; _this$ = ecx

; 1269 : 		{	// destroy [_First, _Last) using allocator

  00000	55		 push	 ebp
  00001	8b ec		 mov	 ebp, esp
  00003	56		 push	 esi

; 1270 : 		_Destroy_range(_First, _Last, this->_Alval);

  00004	8b 75 08	 mov	 esi, DWORD PTR __First$[ebp]
  00007	eb 0a		 jmp	 SHORT $LN23@Destroy@2
$LL9@Destroy@2:
  00009	8b ce		 mov	 ecx, esi
  0000b	e8 00 00 00 00	 call	 ??1InvenBlockItem@ioUserBlockStorage@@QAE@XZ
  00010	83 c6 38	 add	 esi, 56			; 00000038H
$LN23@Destroy@2:
  00013	3b 75 0c	 cmp	 esi, DWORD PTR __Last$[ebp]
  00016	75 f1		 jne	 SHORT $LL9@Destroy@2
  00018	5e		 pop	 esi

; 1271 : 		}

  00019	5d		 pop	 ebp
  0001a	c2 08 00	 ret	 8
?_Destroy@?$vector@UInvenBlockItem@ioUserBlockStorage@@V?$allocator@UInvenBlockItem@ioUserBlockStorage@@@std@@@std@@IAEXPAUInvenBlockItem@ioUserBlockStorage@@0@Z ENDP ; std::vector<ioUserBlockStorage::InvenBlockItem,std::allocator<ioUserBlockStorage::InvenBlockItem> >::_Destroy
_TEXT	ENDS
PUBLIC	?_Tidy@?$vector@UInvenBlockItem@ioUserBlockStorage@@V?$allocator@UInvenBlockItem@ioUserBlockStorage@@@std@@@std@@IAEXXZ ; std::vector<ioUserBlockStorage::InvenBlockItem,std::allocator<ioUserBlockStorage::InvenBlockItem> >::_Tidy
; Function compile flags: /Ogsp
;	COMDAT ?_Tidy@?$vector@UInvenBlockItem@ioUserBlockStorage@@V?$allocator@UInvenBlockItem@ioUserBlockStorage@@@std@@@std@@IAEXXZ
_TEXT	SEGMENT
?_Tidy@?$vector@UInvenBlockItem@ioUserBlockStorage@@V?$allocator@UInvenBlockItem@ioUserBlockStorage@@@std@@@std@@IAEXXZ PROC ; std::vector<ioUserBlockStorage::InvenBlockItem,std::allocator<ioUserBlockStorage::InvenBlockItem> >::_Tidy, COMDAT
; _this$ = ecx

; 1301 : 		{	// free all storage

  00000	56		 push	 esi
  00001	8b f1		 mov	 esi, ecx

; 1302 : 		if (this->_Myfirst != 0)

  00003	83 3e 00	 cmp	 DWORD PTR [esi], 0
  00006	74 27		 je	 SHORT $LN24@Tidy@2

; 1303 : 			{	// something to free, destroy and deallocate it
; 1304 : 			this->_Orphan_all();

  00008	53		 push	 ebx
  00009	57		 push	 edi
  0000a	ff 15 00 00 00
	00		 call	 DWORD PTR __imp_?_Orphan_all@_Container_base0@std@@QAEXXZ

; 1305 : 			_Destroy(this->_Myfirst, this->_Mylast);

  00010	8b 5e 04	 mov	 ebx, DWORD PTR [esi+4]
  00013	8b 3e		 mov	 edi, DWORD PTR [esi]
  00015	eb 0a		 jmp	 SHORT $LN28@Tidy@2
$LL12@Tidy@2:
  00017	8b cf		 mov	 ecx, edi
  00019	e8 00 00 00 00	 call	 ??1InvenBlockItem@ioUserBlockStorage@@QAE@XZ
  0001e	83 c7 38	 add	 edi, 56			; 00000038H
$LN28@Tidy@2:
  00021	3b fb		 cmp	 edi, ebx
  00023	75 f2		 jne	 SHORT $LL12@Tidy@2

; 1306 : 			this->_Alval.deallocate(this->_Myfirst,
; 1307 : 				this->_Myend - this->_Myfirst);

  00025	ff 36		 push	 DWORD PTR [esi]
  00027	e8 00 00 00 00	 call	 ??3@YAXPAX@Z		; operator delete
  0002c	59		 pop	 ecx
  0002d	5f		 pop	 edi
  0002e	5b		 pop	 ebx
$LN24@Tidy@2:

; 1308 : 			}
; 1309 : 		this->_Myfirst = 0;

  0002f	33 c0		 xor	 eax, eax
  00031	89 06		 mov	 DWORD PTR [esi], eax

; 1310 : 		this->_Mylast = 0;

  00033	89 46 04	 mov	 DWORD PTR [esi+4], eax

; 1311 : 		this->_Myend = 0;

  00036	89 46 08	 mov	 DWORD PTR [esi+8], eax
  00039	5e		 pop	 esi

; 1312 : 		}

  0003a	c3		 ret	 0
?_Tidy@?$vector@UInvenBlockItem@ioUserBlockStorage@@V?$allocator@UInvenBlockItem@ioUserBlockStorage@@@std@@@std@@IAEXXZ ENDP ; std::vector<ioUserBlockStorage::InvenBlockItem,std::allocator<ioUserBlockStorage::InvenBlockItem> >::_Tidy
_TEXT	ENDS
PUBLIC	?reserve@?$vector@VioBlockDBItem@@V?$allocator@VioBlockDBItem@@@std@@@std@@QAEXI@Z ; std::vector<ioBlockDBItem,std::allocator<ioBlockDBItem> >::reserve
;	COMDAT xdata$x
; File c:\program files (x86)\microsoft visual studio 10.0\vc\include\xmemory
xdata$x	SEGMENT
__catchsym$?reserve@?$vector@VioBlockDBItem@@V?$allocator@VioBlockDBItem@@@std@@@std@@QAEXI@Z$2 DD 040H
	DD	00H
	DD	00H
	DD	FLAT:__catch$?reserve@?$vector@VioBlockDBItem@@V?$allocator@VioBlockDBItem@@@std@@@std@@QAEXI@Z$0
__unwindtable$?reserve@?$vector@VioBlockDBItem@@V?$allocator@VioBlockDBItem@@@std@@@std@@QAEXI@Z DD 0ffffffffH
	DD	00H
	DD	0ffffffffH
	DD	00H
__tryblocktable$?reserve@?$vector@VioBlockDBItem@@V?$allocator@VioBlockDBItem@@@std@@@std@@QAEXI@Z DD 00H
	DD	00H
	DD	01H
	DD	01H
	DD	FLAT:__catchsym$?reserve@?$vector@VioBlockDBItem@@V?$allocator@VioBlockDBItem@@@std@@@std@@QAEXI@Z$2
__ehfuncinfo$?reserve@?$vector@VioBlockDBItem@@V?$allocator@VioBlockDBItem@@@std@@@std@@QAEXI@Z DD 019930522H
	DD	02H
	DD	FLAT:__unwindtable$?reserve@?$vector@VioBlockDBItem@@V?$allocator@VioBlockDBItem@@@std@@@std@@QAEXI@Z
	DD	01H
	DD	FLAT:__tryblocktable$?reserve@?$vector@VioBlockDBItem@@V?$allocator@VioBlockDBItem@@@std@@@std@@QAEXI@Z
	DD	2 DUP(00H)
	DD	00H
	DD	01H
; Function compile flags: /Ogsp
; File c:\program files (x86)\microsoft visual studio 10.0\vc\include\vector
xdata$x	ENDS
;	COMDAT ?reserve@?$vector@VioBlockDBItem@@V?$allocator@VioBlockDBItem@@@std@@@std@@QAEXI@Z
_TEXT	SEGMENT
__Ptr$509518 = -24					; size = 4
$T514107 = -20						; size = 4
__$EHRec$ = -16						; size = 16
__Count$ = 8						; size = 4
?reserve@?$vector@VioBlockDBItem@@V?$allocator@VioBlockDBItem@@@std@@@std@@QAEXI@Z PROC ; std::vector<ioBlockDBItem,std::allocator<ioBlockDBItem> >::reserve, COMDAT
; _this$ = ecx

; 746  : 		{	// determine new minimum length of allocated storage

  00000	6a 0c		 push	 12			; 0000000cH
  00002	b8 00 00 00 00	 mov	 eax, __ehhandler$?reserve@?$vector@VioBlockDBItem@@V?$allocator@VioBlockDBItem@@@std@@@std@@QAEXI@Z
  00007	e8 00 00 00 00	 call	 __EH_prolog3_catch
  0000c	8b f1		 mov	 esi, ecx

; 747  : 		if (max_size() < _Count)

  0000e	81 7d 08 66 66
	66 06		 cmp	 DWORD PTR __Count$[ebp], 107374182 ; 06666666H
  00015	76 0b		 jbe	 SHORT $LN5@reserve

; 748  : 			_Xlen();	// result too long

  00017	68 00 00 00 00	 push	 OFFSET ??_C@_0BD@OLBABOEK@vector?$DMT?$DO?5too?5long?$AA@
  0001c	ff 15 00 00 00
	00		 call	 DWORD PTR __imp_?_Xlength_error@std@@YAXPBD@Z
$LN56@reserve:
$LN5@reserve:

; 749  : 		else if (capacity() < _Count)

  00022	8b 46 08	 mov	 eax, DWORD PTR [esi+8]
  00025	2b 06		 sub	 eax, DWORD PTR [esi]
  00027	6a 28		 push	 40			; 00000028H
  00029	99		 cdq
  0002a	59		 pop	 ecx
  0002b	f7 f9		 idiv	 ecx
  0002d	3b 45 08	 cmp	 eax, DWORD PTR __Count$[ebp]
  00030	0f 83 81 00 00
	00		 jae	 $LN3@reserve

; 750  : 			{	// not enough room, reallocate
; 751  : 			pointer _Ptr = this->_Alval.allocate(_Count);

  00036	6a 00		 push	 0
  00038	ff 75 08	 push	 DWORD PTR __Count$[ebp]
  0003b	e8 00 00 00 00	 call	 ??$_Allocate@VioBlockDBItem@@@std@@YAPAVioBlockDBItem@@IPAV1@@Z ; std::_Allocate<ioBlockDBItem>

; 752  : 
; 753  : 			_TRY_BEGIN
; 754  : 			_Umove(this->_Myfirst, this->_Mylast, _Ptr);

  00040	8b 0e		 mov	 ecx, DWORD PTR [esi]
  00042	83 65 fc 00	 and	 DWORD PTR __$EHRec$[ebp+12], 0
  00046	8d 56 0c	 lea	 edx, DWORD PTR [esi+12]
  00049	52		 push	 edx
  0004a	89 45 e8	 mov	 DWORD PTR __Ptr$509518[ebp], eax
  0004d	ff 75 e8	 push	 DWORD PTR __Ptr$509518[ebp]
  00050	8b 46 04	 mov	 eax, DWORD PTR [esi+4]
  00053	50		 push	 eax
  00054	51		 push	 ecx
  00055	e8 00 00 00 00	 call	 ??$_Uninitialized_move@PAVioBlockDBItem@@PAV1@V?$allocator@VioBlockDBItem@@@std@@@std@@YAPAVioBlockDBItem@@PAV1@00AAV?$allocator@VioBlockDBItem@@@0@@Z ; std::_Uninitialized_move<ioBlockDBItem *,ioBlockDBItem *,std::allocator<ioBlockDBItem> >

; 758  : 			_CATCH_END
; 759  : 
; 760  : 			size_type _Size = size();

  0005a	8b 5e 04	 mov	 ebx, DWORD PTR [esi+4]
  0005d	8b 0e		 mov	 ecx, DWORD PTR [esi]
  0005f	83 c4 18	 add	 esp, 24			; 00000018H
  00062	8b c3		 mov	 eax, ebx
  00064	2b c1		 sub	 eax, ecx
  00066	6a 28		 push	 40			; 00000028H
  00068	99		 cdq
  00069	5f		 pop	 edi
  0006a	f7 ff		 idiv	 edi
  0006c	83 4d fc ff	 or	 DWORD PTR __$EHRec$[ebp+12], -1
  00070	8b f8		 mov	 edi, eax
  00072	85 c9		 test	 ecx, ecx
  00074	74 21		 je	 SHORT $LN48@reserve

; 761  : 			if (this->_Myfirst != 0)
; 762  : 				{	// destroy and deallocate old array
; 763  : 				_Destroy(this->_Myfirst, this->_Mylast);

  00076	89 4d ec	 mov	 DWORD PTR $T514107[ebp], ecx
  00079	3b cb		 cmp	 ecx, ebx
  0007b	74 12		 je	 SHORT $LN37@reserve
$LN39@reserve:
  0007d	8b 4d ec	 mov	 ecx, DWORD PTR $T514107[ebp]
  00080	8b 01		 mov	 eax, DWORD PTR [ecx]
  00082	6a 00		 push	 0
  00084	ff 10		 call	 DWORD PTR [eax]
  00086	83 45 ec 28	 add	 DWORD PTR $T514107[ebp], 40 ; 00000028H
  0008a	39 5d ec	 cmp	 DWORD PTR $T514107[ebp], ebx
  0008d	75 ee		 jne	 SHORT $LN39@reserve
$LN37@reserve:

; 764  : 				this->_Alval.deallocate(this->_Myfirst,
; 765  : 					this->_Myend - this->_Myfirst);

  0008f	ff 36		 push	 DWORD PTR [esi]
  00091	e8 00 00 00 00	 call	 ??3@YAXPAX@Z		; operator delete
  00096	59		 pop	 ecx
$LN48@reserve:

; 766  : 				}
; 767  : 
; 768  : 			this->_Orphan_all();

  00097	8b ce		 mov	 ecx, esi
  00099	ff 15 00 00 00
	00		 call	 DWORD PTR __imp_?_Orphan_all@_Container_base0@std@@QAEXXZ

; 769  : 			this->_Myend = _Ptr + _Count;
; 770  : 			this->_Mylast = _Ptr + _Size;

  0009f	6b ff 28	 imul	 edi, 40			; 00000028H
  000a2	8b 45 08	 mov	 eax, DWORD PTR __Count$[ebp]
  000a5	8b 4d e8	 mov	 ecx, DWORD PTR __Ptr$509518[ebp]
  000a8	6b c0 28	 imul	 eax, 40			; 00000028H
  000ab	03 c1		 add	 eax, ecx
  000ad	03 f9		 add	 edi, ecx
  000af	89 46 08	 mov	 DWORD PTR [esi+8], eax
  000b2	89 7e 04	 mov	 DWORD PTR [esi+4], edi

; 771  : 			this->_Myfirst = _Ptr;

  000b5	89 0e		 mov	 DWORD PTR [esi], ecx
$LN3@reserve:

; 772  : 			}
; 773  : 		}

  000b7	e8 00 00 00 00	 call	 __EH_epilog3
  000bc	c2 04 00	 ret	 4
__catch$?reserve@?$vector@VioBlockDBItem@@V?$allocator@VioBlockDBItem@@@std@@@std@@QAEXI@Z$0:

; 755  : 			_CATCH_ALL
; 756  : 			this->_Alval.deallocate(_Ptr, _Count);

  000bf	ff 75 e8	 push	 DWORD PTR __Ptr$509518[ebp]
  000c2	e8 00 00 00 00	 call	 ??3@YAXPAX@Z		; operator delete
  000c7	59		 pop	 ecx

; 757  : 			_RERAISE;

  000c8	6a 00		 push	 0
  000ca	6a 00		 push	 0
  000cc	e8 00 00 00 00	 call	 __CxxThrowException@8
$LN57@reserve:
$LN55@reserve:
  000d1	cc		 int	 3
_TEXT	ENDS
;	COMDAT text$x
text$x	SEGMENT
__ehhandler$?reserve@?$vector@VioBlockDBItem@@V?$allocator@VioBlockDBItem@@@std@@@std@@QAEXI@Z:
  00000	8b 54 24 08	 mov	 edx, DWORD PTR [esp+8]
  00004	8d 42 0c	 lea	 eax, DWORD PTR [edx+12]
  00007	8b 4a e4	 mov	 ecx, DWORD PTR [edx-28]
  0000a	33 c8		 xor	 ecx, eax
  0000c	e8 00 00 00 00	 call	 @__security_check_cookie@4
  00011	b8 00 00 00 00	 mov	 eax, OFFSET __ehfuncinfo$?reserve@?$vector@VioBlockDBItem@@V?$allocator@VioBlockDBItem@@@std@@@std@@QAEXI@Z
  00016	e9 00 00 00 00	 jmp	 ___CxxFrameHandler3
text$x	ENDS
?reserve@?$vector@VioBlockDBItem@@V?$allocator@VioBlockDBItem@@@std@@@std@@QAEXI@Z ENDP ; std::vector<ioBlockDBItem,std::allocator<ioBlockDBItem> >::reserve
PUBLIC	?reserve@?$vector@UInvenBlockItem@ioUserBlockStorage@@V?$allocator@UInvenBlockItem@ioUserBlockStorage@@@std@@@std@@QAEXI@Z ; std::vector<ioUserBlockStorage::InvenBlockItem,std::allocator<ioUserBlockStorage::InvenBlockItem> >::reserve
;	COMDAT xdata$x
; File c:\program files (x86)\microsoft visual studio 10.0\vc\include\xmemory
xdata$x	SEGMENT
__catchsym$?reserve@?$vector@UInvenBlockItem@ioUserBlockStorage@@V?$allocator@UInvenBlockItem@ioUserBlockStorage@@@std@@@std@@QAEXI@Z$2 DD 040H
	DD	00H
	DD	00H
	DD	FLAT:__catch$?reserve@?$vector@UInvenBlockItem@ioUserBlockStorage@@V?$allocator@UInvenBlockItem@ioUserBlockStorage@@@std@@@std@@QAEXI@Z$0
__unwindtable$?reserve@?$vector@UInvenBlockItem@ioUserBlockStorage@@V?$allocator@UInvenBlockItem@ioUserBlockStorage@@@std@@@std@@QAEXI@Z DD 0ffffffffH
	DD	00H
	DD	0ffffffffH
	DD	00H
__tryblocktable$?reserve@?$vector@UInvenBlockItem@ioUserBlockStorage@@V?$allocator@UInvenBlockItem@ioUserBlockStorage@@@std@@@std@@QAEXI@Z DD 00H
	DD	00H
	DD	01H
	DD	01H
	DD	FLAT:__catchsym$?reserve@?$vector@UInvenBlockItem@ioUserBlockStorage@@V?$allocator@UInvenBlockItem@ioUserBlockStorage@@@std@@@std@@QAEXI@Z$2
__ehfuncinfo$?reserve@?$vector@UInvenBlockItem@ioUserBlockStorage@@V?$allocator@UInvenBlockItem@ioUserBlockStorage@@@std@@@std@@QAEXI@Z DD 019930522H
	DD	02H
	DD	FLAT:__unwindtable$?reserve@?$vector@UInvenBlockItem@ioUserBlockStorage@@V?$allocator@UInvenBlockItem@ioUserBlockStorage@@@std@@@std@@QAEXI@Z
	DD	01H
	DD	FLAT:__tryblocktable$?reserve@?$vector@UInvenBlockItem@ioUserBlockStorage@@V?$allocator@UInvenBlockItem@ioUserBlockStorage@@@std@@@std@@QAEXI@Z
	DD	2 DUP(00H)
	DD	00H
	DD	01H
; Function compile flags: /Ogsp
; File c:\program files (x86)\microsoft visual studio 10.0\vc\include\vector
xdata$x	ENDS
;	COMDAT ?reserve@?$vector@UInvenBlockItem@ioUserBlockStorage@@V?$allocator@UInvenBlockItem@ioUserBlockStorage@@@std@@@std@@QAEXI@Z
_TEXT	SEGMENT
__Ptr$509560 = -24					; size = 4
$T514259 = -20						; size = 4
__$EHRec$ = -16						; size = 16
__Count$ = 8						; size = 4
?reserve@?$vector@UInvenBlockItem@ioUserBlockStorage@@V?$allocator@UInvenBlockItem@ioUserBlockStorage@@@std@@@std@@QAEXI@Z PROC ; std::vector<ioUserBlockStorage::InvenBlockItem,std::allocator<ioUserBlockStorage::InvenBlockItem> >::reserve, COMDAT
; _this$ = ecx

; 746  : 		{	// determine new minimum length of allocated storage

  00000	6a 0c		 push	 12			; 0000000cH
  00002	b8 00 00 00 00	 mov	 eax, __ehhandler$?reserve@?$vector@UInvenBlockItem@ioUserBlockStorage@@V?$allocator@UInvenBlockItem@ioUserBlockStorage@@@std@@@std@@QAEXI@Z
  00007	e8 00 00 00 00	 call	 __EH_prolog3_catch
  0000c	8b f1		 mov	 esi, ecx

; 747  : 		if (max_size() < _Count)

  0000e	81 7d 08 24 49
	92 04		 cmp	 DWORD PTR __Count$[ebp], 76695844 ; 04924924H
  00015	76 0b		 jbe	 SHORT $LN5@reserve@2

; 748  : 			_Xlen();	// result too long

  00017	68 00 00 00 00	 push	 OFFSET ??_C@_0BD@OLBABOEK@vector?$DMT?$DO?5too?5long?$AA@
  0001c	ff 15 00 00 00
	00		 call	 DWORD PTR __imp_?_Xlength_error@std@@YAXPBD@Z
$LN59@reserve@2:
$LN5@reserve@2:

; 749  : 		else if (capacity() < _Count)

  00022	8b 46 08	 mov	 eax, DWORD PTR [esi+8]
  00025	2b 06		 sub	 eax, DWORD PTR [esi]
  00027	6a 38		 push	 56			; 00000038H
  00029	99		 cdq
  0002a	59		 pop	 ecx
  0002b	f7 f9		 idiv	 ecx
  0002d	3b 45 08	 cmp	 eax, DWORD PTR __Count$[ebp]
  00030	0f 83 80 00 00
	00		 jae	 $LN3@reserve@2

; 750  : 			{	// not enough room, reallocate
; 751  : 			pointer _Ptr = this->_Alval.allocate(_Count);

  00036	6a 00		 push	 0
  00038	ff 75 08	 push	 DWORD PTR __Count$[ebp]
  0003b	e8 00 00 00 00	 call	 ??$_Allocate@UInvenBlockItem@ioUserBlockStorage@@@std@@YAPAUInvenBlockItem@ioUserBlockStorage@@IPAU12@@Z ; std::_Allocate<ioUserBlockStorage::InvenBlockItem>

; 752  : 
; 753  : 			_TRY_BEGIN
; 754  : 			_Umove(this->_Myfirst, this->_Mylast, _Ptr);

  00040	8b 0e		 mov	 ecx, DWORD PTR [esi]
  00042	83 65 fc 00	 and	 DWORD PTR __$EHRec$[ebp+12], 0
  00046	8d 56 0c	 lea	 edx, DWORD PTR [esi+12]
  00049	52		 push	 edx
  0004a	89 45 e8	 mov	 DWORD PTR __Ptr$509560[ebp], eax
  0004d	ff 75 e8	 push	 DWORD PTR __Ptr$509560[ebp]
  00050	8b 46 04	 mov	 eax, DWORD PTR [esi+4]
  00053	50		 push	 eax
  00054	51		 push	 ecx
  00055	e8 00 00 00 00	 call	 ??$_Uninitialized_move@PAUInvenBlockItem@ioUserBlockStorage@@PAU12@V?$allocator@UInvenBlockItem@ioUserBlockStorage@@@std@@@std@@YAPAUInvenBlockItem@ioUserBlockStorage@@PAU12@00AAV?$allocator@UInvenBlockItem@ioUserBlockStorage@@@0@@Z ; std::_Uninitialized_move<ioUserBlockStorage::InvenBlockItem *,ioUserBlockStorage::InvenBlockItem *,std::allocator<ioUserBlockStorage::InvenBlockItem> >

; 758  : 			_CATCH_END
; 759  : 
; 760  : 			size_type _Size = size();

  0005a	8b 5e 04	 mov	 ebx, DWORD PTR [esi+4]
  0005d	8b 0e		 mov	 ecx, DWORD PTR [esi]
  0005f	83 c4 18	 add	 esp, 24			; 00000018H
  00062	8b c3		 mov	 eax, ebx
  00064	2b c1		 sub	 eax, ecx
  00066	6a 38		 push	 56			; 00000038H
  00068	99		 cdq
  00069	5f		 pop	 edi
  0006a	f7 ff		 idiv	 edi
  0006c	83 4d fc ff	 or	 DWORD PTR __$EHRec$[ebp+12], -1
  00070	8b f8		 mov	 edi, eax
  00072	85 c9		 test	 ecx, ecx
  00074	74 20		 je	 SHORT $LN51@reserve@2

; 761  : 			if (this->_Myfirst != 0)
; 762  : 				{	// destroy and deallocate old array
; 763  : 				_Destroy(this->_Myfirst, this->_Mylast);

  00076	89 4d ec	 mov	 DWORD PTR $T514259[ebp], ecx
  00079	3b cb		 cmp	 ecx, ebx
  0007b	74 11		 je	 SHORT $LN37@reserve@2
$LN39@reserve@2:
  0007d	8b 4d ec	 mov	 ecx, DWORD PTR $T514259[ebp]
  00080	e8 00 00 00 00	 call	 ??1InvenBlockItem@ioUserBlockStorage@@QAE@XZ
  00085	83 45 ec 38	 add	 DWORD PTR $T514259[ebp], 56 ; 00000038H
  00089	39 5d ec	 cmp	 DWORD PTR $T514259[ebp], ebx
  0008c	75 ef		 jne	 SHORT $LN39@reserve@2
$LN37@reserve@2:

; 764  : 				this->_Alval.deallocate(this->_Myfirst,
; 765  : 					this->_Myend - this->_Myfirst);

  0008e	ff 36		 push	 DWORD PTR [esi]
  00090	e8 00 00 00 00	 call	 ??3@YAXPAX@Z		; operator delete
  00095	59		 pop	 ecx
$LN51@reserve@2:

; 766  : 				}
; 767  : 
; 768  : 			this->_Orphan_all();

  00096	8b ce		 mov	 ecx, esi
  00098	ff 15 00 00 00
	00		 call	 DWORD PTR __imp_?_Orphan_all@_Container_base0@std@@QAEXXZ

; 769  : 			this->_Myend = _Ptr + _Count;
; 770  : 			this->_Mylast = _Ptr + _Size;

  0009e	6b ff 38	 imul	 edi, 56			; 00000038H
  000a1	8b 45 08	 mov	 eax, DWORD PTR __Count$[ebp]
  000a4	8b 4d e8	 mov	 ecx, DWORD PTR __Ptr$509560[ebp]
  000a7	6b c0 38	 imul	 eax, 56			; 00000038H
  000aa	03 c1		 add	 eax, ecx
  000ac	03 f9		 add	 edi, ecx
  000ae	89 46 08	 mov	 DWORD PTR [esi+8], eax
  000b1	89 7e 04	 mov	 DWORD PTR [esi+4], edi

; 771  : 			this->_Myfirst = _Ptr;

  000b4	89 0e		 mov	 DWORD PTR [esi], ecx
$LN3@reserve@2:

; 772  : 			}
; 773  : 		}

  000b6	e8 00 00 00 00	 call	 __EH_epilog3
  000bb	c2 04 00	 ret	 4
__catch$?reserve@?$vector@UInvenBlockItem@ioUserBlockStorage@@V?$allocator@UInvenBlockItem@ioUserBlockStorage@@@std@@@std@@QAEXI@Z$0:

; 755  : 			_CATCH_ALL
; 756  : 			this->_Alval.deallocate(_Ptr, _Count);

  000be	ff 75 e8	 push	 DWORD PTR __Ptr$509560[ebp]
  000c1	e8 00 00 00 00	 call	 ??3@YAXPAX@Z		; operator delete
  000c6	59		 pop	 ecx

; 757  : 			_RERAISE;

  000c7	6a 00		 push	 0
  000c9	6a 00		 push	 0
  000cb	e8 00 00 00 00	 call	 __CxxThrowException@8
$LN60@reserve@2:
$LN58@reserve@2:
  000d0	cc		 int	 3
_TEXT	ENDS
;	COMDAT text$x
text$x	SEGMENT
__ehhandler$?reserve@?$vector@UInvenBlockItem@ioUserBlockStorage@@V?$allocator@UInvenBlockItem@ioUserBlockStorage@@@std@@@std@@QAEXI@Z:
  00000	8b 54 24 08	 mov	 edx, DWORD PTR [esp+8]
  00004	8d 42 0c	 lea	 eax, DWORD PTR [edx+12]
  00007	8b 4a e4	 mov	 ecx, DWORD PTR [edx-28]
  0000a	33 c8		 xor	 ecx, eax
  0000c	e8 00 00 00 00	 call	 @__security_check_cookie@4
  00011	b8 00 00 00 00	 mov	 eax, OFFSET __ehfuncinfo$?reserve@?$vector@UInvenBlockItem@ioUserBlockStorage@@V?$allocator@UInvenBlockItem@ioUserBlockStorage@@@std@@@std@@QAEXI@Z
  00016	e9 00 00 00 00	 jmp	 ___CxxFrameHandler3
text$x	ENDS
?reserve@?$vector@UInvenBlockItem@ioUserBlockStorage@@V?$allocator@UInvenBlockItem@ioUserBlockStorage@@@std@@@std@@QAEXI@Z ENDP ; std::vector<ioUserBlockStorage::InvenBlockItem,std::allocator<ioUserBlockStorage::InvenBlockItem> >::reserve
PUBLIC	??$_Ucopy@PAUInvenBlockItem@ioUserBlockStorage@@@?$vector@UInvenBlockItem@ioUserBlockStorage@@V?$allocator@UInvenBlockItem@ioUserBlockStorage@@@std@@@std@@IAEPAUInvenBlockItem@ioUserBlockStorage@@PAU23@00@Z ; std::vector<ioUserBlockStorage::InvenBlockItem,std::allocator<ioUserBlockStorage::InvenBlockItem> >::_Ucopy<ioUserBlockStorage::InvenBlockItem *>
; Function compile flags: /Ogsp
;	COMDAT ??$_Ucopy@PAUInvenBlockItem@ioUserBlockStorage@@@?$vector@UInvenBlockItem@ioUserBlockStorage@@V?$allocator@UInvenBlockItem@ioUserBlockStorage@@@std@@@std@@IAEPAUInvenBlockItem@ioUserBlockStorage@@PAU23@00@Z
_TEXT	SEGMENT
__First$ = 8						; size = 4
__Last$ = 12						; size = 4
__Cat$514336 = 16					; size = 1
__Ptr$ = 16						; size = 4
??$_Ucopy@PAUInvenBlockItem@ioUserBlockStorage@@@?$vector@UInvenBlockItem@ioUserBlockStorage@@V?$allocator@UInvenBlockItem@ioUserBlockStorage@@@std@@@std@@IAEPAUInvenBlockItem@ioUserBlockStorage@@PAU23@00@Z PROC ; std::vector<ioUserBlockStorage::InvenBlockItem,std::allocator<ioUserBlockStorage::InvenBlockItem> >::_Ucopy<ioUserBlockStorage::InvenBlockItem *>, COMDAT
; _this$ = ecx

; 1315 : 		pointer _Ucopy(_Iter _First, _Iter _Last, pointer _Ptr)

  00000	55		 push	 ebp
  00001	8b ec		 mov	 ebp, esp

; 1316 : 		{	// copy initializing [_First, _Last), using allocator
; 1317 : 		return (_Uninitialized_copy(_First, _Last,
; 1318 : 			_Ptr, this->_Alval));

  00003	ff 75 10	 push	 DWORD PTR __Cat$514336[ebp]
  00006	83 c1 0c	 add	 ecx, 12			; 0000000cH
  00009	51		 push	 ecx
  0000a	ff 75 10	 push	 DWORD PTR __Ptr$[ebp]
  0000d	ff 75 0c	 push	 DWORD PTR __Last$[ebp]
  00010	ff 75 08	 push	 DWORD PTR __First$[ebp]
  00013	e8 00 00 00 00	 call	 ??$_Uninit_copy@PAUInvenBlockItem@ioUserBlockStorage@@PAU12@V?$allocator@UInvenBlockItem@ioUserBlockStorage@@@std@@@std@@YAPAUInvenBlockItem@ioUserBlockStorage@@PAU12@00AAV?$allocator@UInvenBlockItem@ioUserBlockStorage@@@0@U_Nonscalar_ptr_iterator_tag@0@@Z ; std::_Uninit_copy<ioUserBlockStorage::InvenBlockItem *,ioUserBlockStorage::InvenBlockItem *,std::allocator<ioUserBlockStorage::InvenBlockItem> >
  00018	83 c4 14	 add	 esp, 20			; 00000014H

; 1319 : 		}

  0001b	5d		 pop	 ebp
  0001c	c2 0c 00	 ret	 12			; 0000000cH
??$_Ucopy@PAUInvenBlockItem@ioUserBlockStorage@@@?$vector@UInvenBlockItem@ioUserBlockStorage@@V?$allocator@UInvenBlockItem@ioUserBlockStorage@@@std@@@std@@IAEPAUInvenBlockItem@ioUserBlockStorage@@PAU23@00@Z ENDP ; std::vector<ioUserBlockStorage::InvenBlockItem,std::allocator<ioUserBlockStorage::InvenBlockItem> >::_Ucopy<ioUserBlockStorage::InvenBlockItem *>
_TEXT	ENDS
PUBLIC	??$_Sort@PAUInvenBlockItem@ioUserBlockStorage@@HVInvenBlockItemSort@2@@std@@YAXPAUInvenBlockItem@ioUserBlockStorage@@0HVInvenBlockItemSort@2@@Z ; std::_Sort<ioUserBlockStorage::InvenBlockItem *,int,ioUserBlockStorage::InvenBlockItemSort>
; Function compile flags: /Ogsp
; File c:\program files (x86)\microsoft visual studio 10.0\vc\include\algorithm
;	COMDAT ??$_Sort@PAUInvenBlockItem@ioUserBlockStorage@@HVInvenBlockItemSort@2@@std@@YAXPAUInvenBlockItem@ioUserBlockStorage@@0HVInvenBlockItemSort@2@@Z
_TEXT	SEGMENT
__Mid$510467 = -8					; size = 8
__First$ = 8						; size = 4
__Last$ = 12						; size = 4
__Ideal$ = 16						; size = 4
__Pred$ = 20						; size = 1
??$_Sort@PAUInvenBlockItem@ioUserBlockStorage@@HVInvenBlockItemSort@2@@std@@YAXPAUInvenBlockItem@ioUserBlockStorage@@0HVInvenBlockItemSort@2@@Z PROC ; std::_Sort<ioUserBlockStorage::InvenBlockItem *,int,ioUserBlockStorage::InvenBlockItemSort>, COMDAT

; 3771 : 	{	// order [_First, _Last), using _Pred

  00000	55		 push	 ebp
  00001	8b ec		 mov	 ebp, esp
  00003	51		 push	 ecx
  00004	51		 push	 ecx
  00005	53		 push	 ebx

; 3772 : 	_Diff _Count;
; 3773 : 	for (; _ISORT_MAX < (_Count = _Last - _First) && 0 < _Ideal; )

  00006	8b 5d 08	 mov	 ebx, DWORD PTR __First$[ebp]
  00009	57		 push	 edi
  0000a	8b 7d 0c	 mov	 edi, DWORD PTR __Last$[ebp]
  0000d	8b c7		 mov	 eax, edi
  0000f	2b c3		 sub	 eax, ebx
  00011	6a 38		 push	 56			; 00000038H
  00013	99		 cdq
  00014	59		 pop	 ecx
  00015	f7 f9		 idiv	 ecx
  00017	83 f8 20	 cmp	 eax, 32			; 00000020H
  0001a	0f 8e 9c 00 00
	00		 jle	 $LN22@Sort
  00020	56		 push	 esi
  00021	8b 75 10	 mov	 esi, DWORD PTR __Ideal$[ebp]
$LL7@Sort:
  00024	85 f6		 test	 esi, esi
  00026	7e 75		 jle	 SHORT $LN6@Sort

; 3774 : 		{	// divide and conquer by quicksort
; 3775 : 		_STD pair<_RanIt, _RanIt> _Mid =
; 3776 : 			_Unguarded_partition(_First, _Last, _Pred);

  00028	ff 75 14	 push	 DWORD PTR __Pred$[ebp]
  0002b	8d 45 f8	 lea	 eax, DWORD PTR __Mid$510467[ebp]
  0002e	57		 push	 edi
  0002f	53		 push	 ebx
  00030	50		 push	 eax
  00031	e8 00 00 00 00	 call	 ??$_Unguarded_partition@PAUInvenBlockItem@ioUserBlockStorage@@VInvenBlockItemSort@2@@std@@YA?AU?$pair@PAUInvenBlockItem@ioUserBlockStorage@@PAU12@@0@PAUInvenBlockItem@ioUserBlockStorage@@0VInvenBlockItemSort@3@@Z ; std::_Unguarded_partition<ioUserBlockStorage::InvenBlockItem *,ioUserBlockStorage::InvenBlockItemSort>

; 3777 : 		_Ideal /= 2, _Ideal += _Ideal / 2;	// allow 1.5 log2(N) divisions

  00036	8b c6		 mov	 eax, esi
  00038	99		 cdq
  00039	2b c2		 sub	 eax, edx
  0003b	d1 f8		 sar	 eax, 1
  0003d	8b f0		 mov	 esi, eax
  0003f	99		 cdq
  00040	2b c2		 sub	 eax, edx
  00042	d1 f8		 sar	 eax, 1
  00044	03 f0		 add	 esi, eax
  00046	83 c4 10	 add	 esp, 16			; 00000010H

; 3778 : 
; 3779 : 		if (_Mid.first - _First < _Last - _Mid.second)

  00049	8b c7		 mov	 eax, edi
  0004b	2b 45 fc	 sub	 eax, DWORD PTR __Mid$510467[ebp+4]
  0004e	6a 38		 push	 56			; 00000038H
  00050	99		 cdq
  00051	59		 pop	 ecx
  00052	f7 f9		 idiv	 ecx
  00054	6a 38		 push	 56			; 00000038H
  00056	8b c8		 mov	 ecx, eax
  00058	8b 45 f8	 mov	 eax, DWORD PTR __Mid$510467[ebp]
  0005b	2b c3		 sub	 eax, ebx
  0005d	5b		 pop	 ebx
  0005e	99		 cdq
  0005f	f7 fb		 idiv	 ebx

; 3780 : 			{	// loop on second half
; 3781 : 			_Sort(_First, _Mid.first, _Ideal, _Pred);

  00061	ff 75 14	 push	 DWORD PTR __Pred$[ebp]
  00064	56		 push	 esi
  00065	3b c1		 cmp	 eax, ecx
  00067	7d 13		 jge	 SHORT $LN5@Sort
  00069	ff 75 f8	 push	 DWORD PTR __Mid$510467[ebp]
  0006c	ff 75 08	 push	 DWORD PTR __First$[ebp]
  0006f	e8 00 00 00 00	 call	 ??$_Sort@PAUInvenBlockItem@ioUserBlockStorage@@HVInvenBlockItemSort@2@@std@@YAXPAUInvenBlockItem@ioUserBlockStorage@@0HVInvenBlockItemSort@2@@Z ; std::_Sort<ioUserBlockStorage::InvenBlockItem *,int,ioUserBlockStorage::InvenBlockItemSort>

; 3782 : 			_First = _Mid.second;

  00074	8b 5d fc	 mov	 ebx, DWORD PTR __Mid$510467[ebp+4]
  00077	89 5d 08	 mov	 DWORD PTR __First$[ebp], ebx

; 3783 : 			}
; 3784 : 		else

  0007a	eb 0f		 jmp	 SHORT $LN23@Sort
$LN5@Sort:

; 3785 : 			{	// loop on first half
; 3786 : 			_Sort(_Mid.second, _Last, _Ideal, _Pred);

  0007c	57		 push	 edi
  0007d	ff 75 fc	 push	 DWORD PTR __Mid$510467[ebp+4]
  00080	e8 00 00 00 00	 call	 ??$_Sort@PAUInvenBlockItem@ioUserBlockStorage@@HVInvenBlockItemSort@2@@std@@YAXPAUInvenBlockItem@ioUserBlockStorage@@0HVInvenBlockItemSort@2@@Z ; std::_Sort<ioUserBlockStorage::InvenBlockItem *,int,ioUserBlockStorage::InvenBlockItemSort>

; 3787 : 			_Last = _Mid.first;

  00085	8b 7d f8	 mov	 edi, DWORD PTR __Mid$510467[ebp]
  00088	8b 5d 08	 mov	 ebx, DWORD PTR __First$[ebp]
$LN23@Sort:

; 3772 : 	_Diff _Count;
; 3773 : 	for (; _ISORT_MAX < (_Count = _Last - _First) && 0 < _Ideal; )

  0008b	83 c4 10	 add	 esp, 16			; 00000010H
  0008e	8b c7		 mov	 eax, edi
  00090	2b c3		 sub	 eax, ebx
  00092	6a 38		 push	 56			; 00000038H
  00094	99		 cdq
  00095	59		 pop	 ecx
  00096	f7 f9		 idiv	 ecx
  00098	83 f8 20	 cmp	 eax, 32			; 00000020H
  0009b	7f 87		 jg	 SHORT $LL7@Sort
$LN6@Sort:
  0009d	5e		 pop	 esi

; 3788 : 			}
; 3789 : 		}
; 3790 : 
; 3791 : 	if (_ISORT_MAX < _Count)

  0009e	83 f8 20	 cmp	 eax, 32			; 00000020H
  000a1	7e 19		 jle	 SHORT $LN22@Sort

; 3792 : 		{	// heap sort if too many divisions
; 3793 : 		_STD make_heap(_First, _Last, _Pred);

  000a3	ff 75 14	 push	 DWORD PTR __Pred$[ebp]
  000a6	57		 push	 edi
  000a7	53		 push	 ebx
  000a8	e8 00 00 00 00	 call	 ??$make_heap@PAUInvenBlockItem@ioUserBlockStorage@@VInvenBlockItemSort@2@@std@@YAXPAUInvenBlockItem@ioUserBlockStorage@@0VInvenBlockItemSort@2@@Z ; std::make_heap<ioUserBlockStorage::InvenBlockItem *,ioUserBlockStorage::InvenBlockItemSort>

; 3794 : 		_STD sort_heap(_First, _Last, _Pred);

  000ad	ff 75 14	 push	 DWORD PTR __Pred$[ebp]
  000b0	57		 push	 edi
  000b1	53		 push	 ebx
  000b2	e8 00 00 00 00	 call	 ??$_Sort_heap@PAUInvenBlockItem@ioUserBlockStorage@@VInvenBlockItemSort@2@@std@@YAXPAUInvenBlockItem@ioUserBlockStorage@@0VInvenBlockItemSort@2@@Z ; std::_Sort_heap<ioUserBlockStorage::InvenBlockItem *,ioUserBlockStorage::InvenBlockItemSort>
  000b7	83 c4 18	 add	 esp, 24			; 00000018H
  000ba	eb 14		 jmp	 SHORT $LN16@Sort
$LN22@Sort:

; 3795 : 		}
; 3796 : 	else if (1 < _Count)

  000bc	83 f8 01	 cmp	 eax, 1
  000bf	7e 0f		 jle	 SHORT $LN16@Sort

; 3797 : 		_Insertion_sort(_First, _Last, _Pred);	// small

  000c1	6a 00		 push	 0
  000c3	ff 75 14	 push	 DWORD PTR __Pred$[ebp]
  000c6	57		 push	 edi
  000c7	53		 push	 ebx
  000c8	e8 00 00 00 00	 call	 ??$_Insertion_sort1@PAUInvenBlockItem@ioUserBlockStorage@@VInvenBlockItemSort@2@U12@@std@@YAXPAUInvenBlockItem@ioUserBlockStorage@@0VInvenBlockItemSort@2@0@Z ; std::_Insertion_sort1<ioUserBlockStorage::InvenBlockItem *,ioUserBlockStorage::InvenBlockItemSort,ioUserBlockStorage::InvenBlockItem>
  000cd	83 c4 10	 add	 esp, 16			; 00000010H
$LN16@Sort:
  000d0	5f		 pop	 edi
  000d1	5b		 pop	 ebx

; 3798 : 	}

  000d2	c9		 leave
  000d3	c3		 ret	 0
??$_Sort@PAUInvenBlockItem@ioUserBlockStorage@@HVInvenBlockItemSort@2@@std@@YAXPAUInvenBlockItem@ioUserBlockStorage@@0HVInvenBlockItemSort@2@@Z ENDP ; std::_Sort<ioUserBlockStorage::InvenBlockItem *,int,ioUserBlockStorage::InvenBlockItemSort>
_TEXT	ENDS
PUBLIC	??1?$vector@VioBlockDBItem@@V?$allocator@VioBlockDBItem@@@std@@@std@@QAE@XZ ; std::vector<ioBlockDBItem,std::allocator<ioBlockDBItem> >::~vector<ioBlockDBItem,std::allocator<ioBlockDBItem> >
; Function compile flags: /Ogsp
; File c:\program files (x86)\microsoft visual studio 10.0\vc\include\vector
;	COMDAT ??1?$vector@VioBlockDBItem@@V?$allocator@VioBlockDBItem@@@std@@@std@@QAE@XZ
_TEXT	SEGMENT
??1?$vector@VioBlockDBItem@@V?$allocator@VioBlockDBItem@@@std@@@std@@QAE@XZ PROC ; std::vector<ioBlockDBItem,std::allocator<ioBlockDBItem> >::~vector<ioBlockDBItem,std::allocator<ioBlockDBItem> >, COMDAT
; _this$ = ecx

; 705  : 		_Tidy();

  00000	e9 00 00 00 00	 jmp	 ?_Tidy@?$vector@VioBlockDBItem@@V?$allocator@VioBlockDBItem@@@std@@@std@@IAEXXZ ; std::vector<ioBlockDBItem,std::allocator<ioBlockDBItem> >::_Tidy
??1?$vector@VioBlockDBItem@@V?$allocator@VioBlockDBItem@@@std@@@std@@QAE@XZ ENDP ; std::vector<ioBlockDBItem,std::allocator<ioBlockDBItem> >::~vector<ioBlockDBItem,std::allocator<ioBlockDBItem> >
_TEXT	ENDS
PUBLIC	?clear@?$vector@VioBlockDBItem@@V?$allocator@VioBlockDBItem@@@std@@@std@@QAEXXZ ; std::vector<ioBlockDBItem,std::allocator<ioBlockDBItem> >::clear
; Function compile flags: /Ogsp
;	COMDAT ?clear@?$vector@VioBlockDBItem@@V?$allocator@VioBlockDBItem@@@std@@@std@@QAEXXZ
_TEXT	SEGMENT
$T514378 = -4						; size = 4
?clear@?$vector@VioBlockDBItem@@V?$allocator@VioBlockDBItem@@@std@@@std@@QAEXXZ PROC ; std::vector<ioBlockDBItem,std::allocator<ioBlockDBItem> >::clear, COMDAT
; _this$ = ecx

; 1217 : 		{	// erase all

  00000	55		 push	 ebp
  00001	8b ec		 mov	 ebp, esp
  00003	51		 push	 ecx

; 1218 : 		erase(begin(), end());

  00004	8b 41 04	 mov	 eax, DWORD PTR [ecx+4]
  00007	8b 11		 mov	 edx, DWORD PTR [ecx]
  00009	50		 push	 eax
  0000a	52		 push	 edx
  0000b	8d 45 fc	 lea	 eax, DWORD PTR $T514378[ebp]
  0000e	50		 push	 eax
  0000f	e8 00 00 00 00	 call	 ?erase@?$vector@VioBlockDBItem@@V?$allocator@VioBlockDBItem@@@std@@@std@@QAE?AV?$_Vector_iterator@V?$_Vector_val@VioBlockDBItem@@V?$allocator@VioBlockDBItem@@@std@@@std@@@2@V?$_Vector_const_iterator@V?$_Vector_val@VioBlockDBItem@@V?$allocator@VioBlockDBItem@@@std@@@std@@@2@0@Z ; std::vector<ioBlockDBItem,std::allocator<ioBlockDBItem> >::erase

; 1219 : 		}

  00014	c9		 leave
  00015	c3		 ret	 0
?clear@?$vector@VioBlockDBItem@@V?$allocator@VioBlockDBItem@@@std@@@std@@QAEXXZ ENDP ; std::vector<ioBlockDBItem,std::allocator<ioBlockDBItem> >::clear
_TEXT	ENDS
PUBLIC	??1?$vector@UInvenBlockItem@ioUserBlockStorage@@V?$allocator@UInvenBlockItem@ioUserBlockStorage@@@std@@@std@@QAE@XZ ; std::vector<ioUserBlockStorage::InvenBlockItem,std::allocator<ioUserBlockStorage::InvenBlockItem> >::~vector<ioUserBlockStorage::InvenBlockItem,std::allocator<ioUserBlockStorage::InvenBlockItem> >
; Function compile flags: /Ogsp
;	COMDAT ??1?$vector@UInvenBlockItem@ioUserBlockStorage@@V?$allocator@UInvenBlockItem@ioUserBlockStorage@@@std@@@std@@QAE@XZ
_TEXT	SEGMENT
??1?$vector@UInvenBlockItem@ioUserBlockStorage@@V?$allocator@UInvenBlockItem@ioUserBlockStorage@@@std@@@std@@QAE@XZ PROC ; std::vector<ioUserBlockStorage::InvenBlockItem,std::allocator<ioUserBlockStorage::InvenBlockItem> >::~vector<ioUserBlockStorage::InvenBlockItem,std::allocator<ioUserBlockStorage::InvenBlockItem> >, COMDAT
; _this$ = ecx

; 705  : 		_Tidy();

  00000	e9 00 00 00 00	 jmp	 ?_Tidy@?$vector@UInvenBlockItem@ioUserBlockStorage@@V?$allocator@UInvenBlockItem@ioUserBlockStorage@@@std@@@std@@IAEXXZ ; std::vector<ioUserBlockStorage::InvenBlockItem,std::allocator<ioUserBlockStorage::InvenBlockItem> >::_Tidy
??1?$vector@UInvenBlockItem@ioUserBlockStorage@@V?$allocator@UInvenBlockItem@ioUserBlockStorage@@@std@@@std@@QAE@XZ ENDP ; std::vector<ioUserBlockStorage::InvenBlockItem,std::allocator<ioUserBlockStorage::InvenBlockItem> >::~vector<ioUserBlockStorage::InvenBlockItem,std::allocator<ioUserBlockStorage::InvenBlockItem> >
_TEXT	ENDS
PUBLIC	?_Reserve@?$vector@VioBlockDBItem@@V?$allocator@VioBlockDBItem@@@std@@@std@@IAEXI@Z ; std::vector<ioBlockDBItem,std::allocator<ioBlockDBItem> >::_Reserve
; Function compile flags: /Ogsp
;	COMDAT ?_Reserve@?$vector@VioBlockDBItem@@V?$allocator@VioBlockDBItem@@@std@@@std@@IAEXI@Z
_TEXT	SEGMENT
__Count$ = 8						; size = 4
?_Reserve@?$vector@VioBlockDBItem@@V?$allocator@VioBlockDBItem@@@std@@@std@@IAEXI@Z PROC ; std::vector<ioBlockDBItem,std::allocator<ioBlockDBItem> >::_Reserve, COMDAT
; _this$ = ecx

; 1290 : 		{	// ensure room for _Count new elements, grow exponentially

  00000	55		 push	 ebp
  00001	8b ec		 mov	 ebp, esp
  00003	56		 push	 esi
  00004	8b f1		 mov	 esi, ecx

; 1291 : 		size_type _Size = size();

  00006	8b 0e		 mov	 ecx, DWORD PTR [esi]
  00008	8b 46 04	 mov	 eax, DWORD PTR [esi+4]
  0000b	2b c1		 sub	 eax, ecx
  0000d	57		 push	 edi
  0000e	99		 cdq
  0000f	6a 28		 push	 40			; 00000028H
  00011	5f		 pop	 edi
  00012	f7 ff		 idiv	 edi
  00014	8b f8		 mov	 edi, eax

; 1292 : 		if (max_size() - _Count < _Size)

  00016	b8 66 66 66 06	 mov	 eax, 107374182		; 06666666H
  0001b	2b 45 08	 sub	 eax, DWORD PTR __Count$[ebp]
  0001e	3b c7		 cmp	 eax, edi
  00020	73 0b		 jae	 SHORT $LN4@Reserve

; 1293 : 			_Xlen();

  00022	68 00 00 00 00	 push	 OFFSET ??_C@_0BD@OLBABOEK@vector?$DMT?$DO?5too?5long?$AA@
  00027	ff 15 00 00 00
	00		 call	 DWORD PTR __imp_?_Xlength_error@std@@YAXPBD@Z
$LN21@Reserve:
$LN4@Reserve:

; 1294 : 		else if ((_Size += _Count) <= capacity())

  0002d	8b 46 08	 mov	 eax, DWORD PTR [esi+8]
  00030	2b c1		 sub	 eax, ecx
  00032	6a 28		 push	 40			; 00000028H
  00034	99		 cdq
  00035	59		 pop	 ecx
  00036	f7 f9		 idiv	 ecx
  00038	03 7d 08	 add	 edi, DWORD PTR __Count$[ebp]
  0003b	3b f8		 cmp	 edi, eax
  0003d	76 10		 jbe	 SHORT $LN1@Reserve

; 1295 : 			;
; 1296 : 		else
; 1297 : 			reserve(_Grow_to(_Size));

  0003f	57		 push	 edi
  00040	8b ce		 mov	 ecx, esi
  00042	e8 00 00 00 00	 call	 ?_Grow_to@?$vector@VioBlockDBItem@@V?$allocator@VioBlockDBItem@@@std@@@std@@IBEII@Z ; std::vector<ioBlockDBItem,std::allocator<ioBlockDBItem> >::_Grow_to
  00047	50		 push	 eax
  00048	8b ce		 mov	 ecx, esi
  0004a	e8 00 00 00 00	 call	 ?reserve@?$vector@VioBlockDBItem@@V?$allocator@VioBlockDBItem@@@std@@@std@@QAEXI@Z ; std::vector<ioBlockDBItem,std::allocator<ioBlockDBItem> >::reserve
$LN1@Reserve:
  0004f	5f		 pop	 edi
  00050	5e		 pop	 esi

; 1298 : 		}

  00051	5d		 pop	 ebp
  00052	c2 04 00	 ret	 4
$LN20@Reserve:
?_Reserve@?$vector@VioBlockDBItem@@V?$allocator@VioBlockDBItem@@@std@@@std@@IAEXI@Z ENDP ; std::vector<ioBlockDBItem,std::allocator<ioBlockDBItem> >::_Reserve
_TEXT	ENDS
PUBLIC	?erase@?$vector@UInvenBlockItem@ioUserBlockStorage@@V?$allocator@UInvenBlockItem@ioUserBlockStorage@@@std@@@std@@QAE?AV?$_Vector_iterator@V?$_Vector_val@UInvenBlockItem@ioUserBlockStorage@@V?$allocator@UInvenBlockItem@ioUserBlockStorage@@@std@@@std@@@2@V?$_Vector_const_iterator@V?$_Vector_val@UInvenBlockItem@ioUserBlockStorage@@V?$allocator@UInvenBlockItem@ioUserBlockStorage@@@std@@@std@@@2@0@Z ; std::vector<ioUserBlockStorage::InvenBlockItem,std::allocator<ioUserBlockStorage::InvenBlockItem> >::erase
; Function compile flags: /Ogsp
;	COMDAT ?erase@?$vector@UInvenBlockItem@ioUserBlockStorage@@V?$allocator@UInvenBlockItem@ioUserBlockStorage@@@std@@@std@@QAE?AV?$_Vector_iterator@V?$_Vector_val@UInvenBlockItem@ioUserBlockStorage@@V?$allocator@UInvenBlockItem@ioUserBlockStorage@@@std@@@std@@@2@V?$_Vector_const_iterator@V?$_Vector_val@UInvenBlockItem@ioUserBlockStorage@@V?$allocator@UInvenBlockItem@ioUserBlockStorage@@@std@@@std@@@2@0@Z
_TEXT	SEGMENT
$T514596 = -4						; size = 4
___$ReturnUdt$ = 8					; size = 4
__First_arg$ = 12					; size = 4
__Cat$514542 = 16					; size = 1
__Last_arg$ = 16					; size = 4
?erase@?$vector@UInvenBlockItem@ioUserBlockStorage@@V?$allocator@UInvenBlockItem@ioUserBlockStorage@@@std@@@std@@QAE?AV?$_Vector_iterator@V?$_Vector_val@UInvenBlockItem@ioUserBlockStorage@@V?$allocator@UInvenBlockItem@ioUserBlockStorage@@@std@@@std@@@2@V?$_Vector_const_iterator@V?$_Vector_val@UInvenBlockItem@ioUserBlockStorage@@V?$allocator@UInvenBlockItem@ioUserBlockStorage@@@std@@@std@@@2@0@Z PROC ; std::vector<ioUserBlockStorage::InvenBlockItem,std::allocator<ioUserBlockStorage::InvenBlockItem> >::erase, COMDAT
; _this$ = ecx

; 1190 : 		{	// erase [_First, _Last)

  00000	55		 push	 ebp
  00001	8b ec		 mov	 ebp, esp
  00003	51		 push	 ecx

; 1191 : 		iterator _First = _Make_iter(_First_arg);

  00004	8b 45 08	 mov	 eax, DWORD PTR ___$ReturnUdt$[ebp]
  00007	56		 push	 esi
  00008	8b f1		 mov	 esi, ecx
  0000a	8b 4d 0c	 mov	 ecx, DWORD PTR __First_arg$[ebp]
  0000d	89 08		 mov	 DWORD PTR [eax], ecx

; 1192 : 		iterator _Last = _Make_iter(_Last_arg);
; 1193 : 
; 1194 : 		if (_First != _Last)

  0000f	3b 4d 10	 cmp	 ecx, DWORD PTR __Last_arg$[ebp]
  00012	74 37		 je	 SHORT $LN1@erase@2

; 1195 : 			{	// worth doing, copy down over hole
; 1196 :  #if _ITERATOR_DEBUG_LEVEL == 2
; 1197 : 			if (_Last < _First || _VICONT(_First) != this
; 1198 : 				|| _VIPTR(_First) < this->_Myfirst
; 1199 : 				|| this->_Mylast < _VIPTR(_Last))
; 1200 : 				_DEBUG_ERROR("vector erase iterator outside range");
; 1201 : 			pointer _Ptr = _Move(_VIPTR(_Last), this->_Mylast,
; 1202 : 				_VIPTR(_First));
; 1203 : 			_Orphan_range(_VIPTR(_First), this->_Mylast);
; 1204 : 
; 1205 :  #else /* _ITERATOR_DEBUG_LEVEL == 2 */
; 1206 : 			pointer _Ptr = _Move(_VIPTR(_Last), this->_Mylast,
; 1207 : 				_VIPTR(_First));

  00014	8b 46 04	 mov	 eax, DWORD PTR [esi+4]
  00017	53		 push	 ebx
  00018	57		 push	 edi
  00019	ff 75 10	 push	 DWORD PTR __Cat$514542[ebp]
  0001c	51		 push	 ecx
  0001d	50		 push	 eax
  0001e	ff 75 10	 push	 DWORD PTR __Last_arg$[ebp]
  00021	e8 00 00 00 00	 call	 ??$_Move@PAUInvenBlockItem@ioUserBlockStorage@@PAU12@@std@@YAPAUInvenBlockItem@ioUserBlockStorage@@PAU12@00U_Nonscalar_ptr_iterator_tag@0@@Z ; std::_Move<ioUserBlockStorage::InvenBlockItem *,ioUserBlockStorage::InvenBlockItem *>

; 1208 :  #endif /* _ITERATOR_DEBUG_LEVEL == 2 */
; 1209 : 
; 1210 : 			_Destroy(_Ptr, this->_Mylast);

  00026	8b 7e 04	 mov	 edi, DWORD PTR [esi+4]
  00029	8b d8		 mov	 ebx, eax
  0002b	83 c4 10	 add	 esp, 16			; 00000010H
  0002e	89 5d fc	 mov	 DWORD PTR $T514596[ebp], ebx
  00031	3b df		 cmp	 ebx, edi
  00033	74 11		 je	 SHORT $LN36@erase@2
$LL52@erase@2:
  00035	8b 4d fc	 mov	 ecx, DWORD PTR $T514596[ebp]
  00038	e8 00 00 00 00	 call	 ??1InvenBlockItem@ioUserBlockStorage@@QAE@XZ
  0003d	83 45 fc 38	 add	 DWORD PTR $T514596[ebp], 56 ; 00000038H
  00041	39 7d fc	 cmp	 DWORD PTR $T514596[ebp], edi
  00044	75 ef		 jne	 SHORT $LL52@erase@2
$LN36@erase@2:

; 1211 : 			this->_Mylast = _Ptr;

  00046	5f		 pop	 edi
  00047	89 5e 04	 mov	 DWORD PTR [esi+4], ebx
  0004a	5b		 pop	 ebx
$LN1@erase@2:

; 1212 : 			}
; 1213 : 		return (_First);

  0004b	8b 45 08	 mov	 eax, DWORD PTR ___$ReturnUdt$[ebp]
  0004e	5e		 pop	 esi

; 1214 : 		}

  0004f	c9		 leave
  00050	c2 0c 00	 ret	 12			; 0000000cH
?erase@?$vector@UInvenBlockItem@ioUserBlockStorage@@V?$allocator@UInvenBlockItem@ioUserBlockStorage@@@std@@@std@@QAE?AV?$_Vector_iterator@V?$_Vector_val@UInvenBlockItem@ioUserBlockStorage@@V?$allocator@UInvenBlockItem@ioUserBlockStorage@@@std@@@std@@@2@V?$_Vector_const_iterator@V?$_Vector_val@UInvenBlockItem@ioUserBlockStorage@@V?$allocator@UInvenBlockItem@ioUserBlockStorage@@@std@@@std@@@2@0@Z ENDP ; std::vector<ioUserBlockStorage::InvenBlockItem,std::allocator<ioUserBlockStorage::InvenBlockItem> >::erase
_TEXT	ENDS
PUBLIC	?_Reserve@?$vector@UInvenBlockItem@ioUserBlockStorage@@V?$allocator@UInvenBlockItem@ioUserBlockStorage@@@std@@@std@@IAEXI@Z ; std::vector<ioUserBlockStorage::InvenBlockItem,std::allocator<ioUserBlockStorage::InvenBlockItem> >::_Reserve
; Function compile flags: /Ogsp
;	COMDAT ?_Reserve@?$vector@UInvenBlockItem@ioUserBlockStorage@@V?$allocator@UInvenBlockItem@ioUserBlockStorage@@@std@@@std@@IAEXI@Z
_TEXT	SEGMENT
__Count$ = 8						; size = 4
?_Reserve@?$vector@UInvenBlockItem@ioUserBlockStorage@@V?$allocator@UInvenBlockItem@ioUserBlockStorage@@@std@@@std@@IAEXI@Z PROC ; std::vector<ioUserBlockStorage::InvenBlockItem,std::allocator<ioUserBlockStorage::InvenBlockItem> >::_Reserve, COMDAT
; _this$ = ecx

; 1290 : 		{	// ensure room for _Count new elements, grow exponentially

  00000	55		 push	 ebp
  00001	8b ec		 mov	 ebp, esp
  00003	56		 push	 esi
  00004	8b f1		 mov	 esi, ecx

; 1291 : 		size_type _Size = size();

  00006	8b 0e		 mov	 ecx, DWORD PTR [esi]
  00008	8b 46 04	 mov	 eax, DWORD PTR [esi+4]
  0000b	2b c1		 sub	 eax, ecx
  0000d	57		 push	 edi
  0000e	99		 cdq
  0000f	6a 38		 push	 56			; 00000038H
  00011	5f		 pop	 edi
  00012	f7 ff		 idiv	 edi
  00014	8b f8		 mov	 edi, eax

; 1292 : 		if (max_size() - _Count < _Size)

  00016	b8 24 49 92 04	 mov	 eax, 76695844		; 04924924H
  0001b	2b 45 08	 sub	 eax, DWORD PTR __Count$[ebp]
  0001e	3b c7		 cmp	 eax, edi
  00020	73 0b		 jae	 SHORT $LN4@Reserve@2

; 1293 : 			_Xlen();

  00022	68 00 00 00 00	 push	 OFFSET ??_C@_0BD@OLBABOEK@vector?$DMT?$DO?5too?5long?$AA@
  00027	ff 15 00 00 00
	00		 call	 DWORD PTR __imp_?_Xlength_error@std@@YAXPBD@Z
$LN21@Reserve@2:
$LN4@Reserve@2:

; 1294 : 		else if ((_Size += _Count) <= capacity())

  0002d	8b 46 08	 mov	 eax, DWORD PTR [esi+8]
  00030	2b c1		 sub	 eax, ecx
  00032	6a 38		 push	 56			; 00000038H
  00034	99		 cdq
  00035	59		 pop	 ecx
  00036	f7 f9		 idiv	 ecx
  00038	03 7d 08	 add	 edi, DWORD PTR __Count$[ebp]
  0003b	3b f8		 cmp	 edi, eax
  0003d	76 10		 jbe	 SHORT $LN1@Reserve@2

; 1295 : 			;
; 1296 : 		else
; 1297 : 			reserve(_Grow_to(_Size));

  0003f	57		 push	 edi
  00040	8b ce		 mov	 ecx, esi
  00042	e8 00 00 00 00	 call	 ?_Grow_to@?$vector@UInvenBlockItem@ioUserBlockStorage@@V?$allocator@UInvenBlockItem@ioUserBlockStorage@@@std@@@std@@IBEII@Z ; std::vector<ioUserBlockStorage::InvenBlockItem,std::allocator<ioUserBlockStorage::InvenBlockItem> >::_Grow_to
  00047	50		 push	 eax
  00048	8b ce		 mov	 ecx, esi
  0004a	e8 00 00 00 00	 call	 ?reserve@?$vector@UInvenBlockItem@ioUserBlockStorage@@V?$allocator@UInvenBlockItem@ioUserBlockStorage@@@std@@@std@@QAEXI@Z ; std::vector<ioUserBlockStorage::InvenBlockItem,std::allocator<ioUserBlockStorage::InvenBlockItem> >::reserve
$LN1@Reserve@2:
  0004f	5f		 pop	 edi
  00050	5e		 pop	 esi

; 1298 : 		}

  00051	5d		 pop	 ebp
  00052	c2 04 00	 ret	 4
$LN20@Reserve@2:
?_Reserve@?$vector@UInvenBlockItem@ioUserBlockStorage@@V?$allocator@UInvenBlockItem@ioUserBlockStorage@@@std@@@std@@IAEXI@Z ENDP ; std::vector<ioUserBlockStorage::InvenBlockItem,std::allocator<ioUserBlockStorage::InvenBlockItem> >::_Reserve
_TEXT	ENDS
PUBLIC	??$sort@V?$_Vector_iterator@V?$_Vector_val@UInvenBlockItem@ioUserBlockStorage@@V?$allocator@UInvenBlockItem@ioUserBlockStorage@@@std@@@std@@@std@@VInvenBlockItemSort@ioUserBlockStorage@@@std@@YAXV?$_Vector_iterator@V?$_Vector_val@UInvenBlockItem@ioUserBlockStorage@@V?$allocator@UInvenBlockItem@ioUserBlockStorage@@@std@@@std@@@0@0VInvenBlockItemSort@ioUserBlockStorage@@@Z ; std::sort<std::_Vector_iterator<std::_Vector_val<ioUserBlockStorage::InvenBlockItem,std::allocator<ioUserBlockStorage::InvenBlockItem> > >,ioUserBlockStorage::InvenBlockItemSort>
; Function compile flags: /Ogsp
; File c:\program files (x86)\microsoft visual studio 10.0\vc\include\algorithm
;	COMDAT ??$sort@V?$_Vector_iterator@V?$_Vector_val@UInvenBlockItem@ioUserBlockStorage@@V?$allocator@UInvenBlockItem@ioUserBlockStorage@@@std@@@std@@@std@@VInvenBlockItemSort@ioUserBlockStorage@@@std@@YAXV?$_Vector_iterator@V?$_Vector_val@UInvenBlockItem@ioUserBlockStorage@@V?$allocator@UInvenBlockItem@ioUserBlockStorage@@@std@@@std@@@0@0VInvenBlockItemSort@ioUserBlockStorage@@@Z
_TEXT	SEGMENT
__First$ = 8						; size = 4
__Last$ = 12						; size = 4
__Pred$ = 16						; size = 1
??$sort@V?$_Vector_iterator@V?$_Vector_val@UInvenBlockItem@ioUserBlockStorage@@V?$allocator@UInvenBlockItem@ioUserBlockStorage@@@std@@@std@@@std@@VInvenBlockItemSort@ioUserBlockStorage@@@std@@YAXV?$_Vector_iterator@V?$_Vector_val@UInvenBlockItem@ioUserBlockStorage@@V?$allocator@UInvenBlockItem@ioUserBlockStorage@@@std@@@std@@@0@0VInvenBlockItemSort@ioUserBlockStorage@@@Z PROC ; std::sort<std::_Vector_iterator<std::_Vector_val<ioUserBlockStorage::InvenBlockItem,std::allocator<ioUserBlockStorage::InvenBlockItem> > >,ioUserBlockStorage::InvenBlockItemSort>, COMDAT

; 3803 : 	{	// order [_First, _Last), using _Pred

  00000	55		 push	 ebp
  00001	8b ec		 mov	 ebp, esp

; 3804 : 	_DEBUG_RANGE(_First, _Last);
; 3805 : 	_DEBUG_POINTER(_Pred);
; 3806 : 	_Sort(_Unchecked(_First), _Unchecked(_Last), _Last - _First, _Pred);

  00003	ff 75 10	 push	 DWORD PTR __Pred$[ebp]
  00006	8b 45 0c	 mov	 eax, DWORD PTR __Last$[ebp]
  00009	2b 45 08	 sub	 eax, DWORD PTR __First$[ebp]
  0000c	6a 38		 push	 56			; 00000038H
  0000e	59		 pop	 ecx
  0000f	99		 cdq
  00010	f7 f9		 idiv	 ecx
  00012	50		 push	 eax
  00013	ff 75 0c	 push	 DWORD PTR __Last$[ebp]
  00016	ff 75 08	 push	 DWORD PTR __First$[ebp]
  00019	e8 00 00 00 00	 call	 ??$_Sort@PAUInvenBlockItem@ioUserBlockStorage@@HVInvenBlockItemSort@2@@std@@YAXPAUInvenBlockItem@ioUserBlockStorage@@0HVInvenBlockItemSort@2@@Z ; std::_Sort<ioUserBlockStorage::InvenBlockItem *,int,ioUserBlockStorage::InvenBlockItemSort>
  0001e	83 c4 10	 add	 esp, 16			; 00000010H

; 3807 : 	}

  00021	5d		 pop	 ebp
  00022	c3		 ret	 0
??$sort@V?$_Vector_iterator@V?$_Vector_val@UInvenBlockItem@ioUserBlockStorage@@V?$allocator@UInvenBlockItem@ioUserBlockStorage@@@std@@@std@@@std@@VInvenBlockItemSort@ioUserBlockStorage@@@std@@YAXV?$_Vector_iterator@V?$_Vector_val@UInvenBlockItem@ioUserBlockStorage@@V?$allocator@UInvenBlockItem@ioUserBlockStorage@@@std@@@std@@@0@0VInvenBlockItemSort@ioUserBlockStorage@@@Z ENDP ; std::sort<std::_Vector_iterator<std::_Vector_val<ioUserBlockStorage::InvenBlockItem,std::allocator<ioUserBlockStorage::InvenBlockItem> > >,ioUserBlockStorage::InvenBlockItemSort>
_TEXT	ENDS
PUBLIC	??0ioBlockDBItemContainer@@QAE@XZ		; ioBlockDBItemContainer::ioBlockDBItemContainer
; Function compile flags: /Ogsp
; File d:\lost saga for developer\youtube\tutorial\source\src\lsclient\housing\ioblockdbitem.h
;	COMDAT ??0ioBlockDBItemContainer@@QAE@XZ
_TEXT	SEGMENT
??0ioBlockDBItemContainer@@QAE@XZ PROC			; ioBlockDBItemContainer::ioBlockDBItemContainer, COMDAT
; _this$ = ecx

; 51   : 	ioBlockDBItemContainer()

  00000	8b c1		 mov	 eax, ecx
  00002	33 c9		 xor	 ecx, ecx
  00004	89 08		 mov	 DWORD PTR [eax], ecx
  00006	89 48 04	 mov	 DWORD PTR [eax+4], ecx
  00009	89 48 08	 mov	 DWORD PTR [eax+8], ecx

; 52   : 	{
; 53   : 	}

  0000c	c3		 ret	 0
??0ioBlockDBItemContainer@@QAE@XZ ENDP			; ioBlockDBItemContainer::ioBlockDBItemContainer
_TEXT	ENDS
PUBLIC	??1ioBlockDBItemContainer@@QAE@XZ		; ioBlockDBItemContainer::~ioBlockDBItemContainer
; Function compile flags: /Ogsp
;	COMDAT ??1ioBlockDBItemContainer@@QAE@XZ
_TEXT	SEGMENT
??1ioBlockDBItemContainer@@QAE@XZ PROC			; ioBlockDBItemContainer::~ioBlockDBItemContainer, COMDAT
; _this$ = ecx
  00000	e9 00 00 00 00	 jmp	 ?_Tidy@?$vector@VioBlockDBItem@@V?$allocator@VioBlockDBItem@@@std@@@std@@IAEXXZ ; std::vector<ioBlockDBItem,std::allocator<ioBlockDBItem> >::_Tidy
??1ioBlockDBItemContainer@@QAE@XZ ENDP			; ioBlockDBItemContainer::~ioBlockDBItemContainer
_TEXT	ENDS
PUBLIC	??_7ioUserBlockStorage@@6B@			; ioUserBlockStorage::`vftable'
PUBLIC	??1ioUserBlockStorage@@UAE@XZ			; ioUserBlockStorage::~ioUserBlockStorage
PUBLIC	??_R4ioUserBlockStorage@@6B@			; ioUserBlockStorage::`RTTI Complete Object Locator'
PUBLIC	??_R0?AVioUserBlockStorage@@@8			; ioUserBlockStorage `RTTI Type Descriptor'
PUBLIC	??_R3ioUserBlockStorage@@8			; ioUserBlockStorage::`RTTI Class Hierarchy Descriptor'
PUBLIC	??_R2ioUserBlockStorage@@8			; ioUserBlockStorage::`RTTI Base Class Array'
PUBLIC	??_R1A@?0A@EA@ioUserBlockStorage@@8		; ioUserBlockStorage::`RTTI Base Class Descriptor at (0,-1,0,64)'
EXTRN	??_EioUserBlockStorage@@UAEPAXI@Z:PROC		; ioUserBlockStorage::`vector deleting destructor'
;	COMDAT ??_R1A@?0A@EA@ioUserBlockStorage@@8
; File c:\program files (x86)\microsoft visual studio 10.0\vc\include\vector
rdata$r	SEGMENT
??_R1A@?0A@EA@ioUserBlockStorage@@8 DD FLAT:??_R0?AVioUserBlockStorage@@@8 ; ioUserBlockStorage::`RTTI Base Class Descriptor at (0,-1,0,64)'
	DD	00H
	DD	00H
	DD	0ffffffffH
	DD	00H
	DD	040H
	DD	FLAT:??_R3ioUserBlockStorage@@8
rdata$r	ENDS
;	COMDAT ??_R2ioUserBlockStorage@@8
rdata$r	SEGMENT
??_R2ioUserBlockStorage@@8 DD FLAT:??_R1A@?0A@EA@ioUserBlockStorage@@8 ; ioUserBlockStorage::`RTTI Base Class Array'
rdata$r	ENDS
;	COMDAT ??_R3ioUserBlockStorage@@8
rdata$r	SEGMENT
??_R3ioUserBlockStorage@@8 DD 00H			; ioUserBlockStorage::`RTTI Class Hierarchy Descriptor'
	DD	00H
	DD	01H
	DD	FLAT:??_R2ioUserBlockStorage@@8
rdata$r	ENDS
;	COMDAT ??_R0?AVioUserBlockStorage@@@8
_DATA	SEGMENT
??_R0?AVioUserBlockStorage@@@8 DD FLAT:??_7type_info@@6B@ ; ioUserBlockStorage `RTTI Type Descriptor'
	DD	00H
	DB	'.?AVioUserBlockStorage@@', 00H
_DATA	ENDS
;	COMDAT ??_R4ioUserBlockStorage@@6B@
rdata$r	SEGMENT
??_R4ioUserBlockStorage@@6B@ DD 00H			; ioUserBlockStorage::`RTTI Complete Object Locator'
	DD	00H
	DD	00H
	DD	FLAT:??_R0?AVioUserBlockStorage@@@8
	DD	FLAT:??_R3ioUserBlockStorage@@8
rdata$r	ENDS
;	COMDAT ??_7ioUserBlockStorage@@6B@
CONST	SEGMENT
??_7ioUserBlockStorage@@6B@ DD FLAT:??_R4ioUserBlockStorage@@6B@ ; ioUserBlockStorage::`vftable'
	DD	FLAT:?SendBlockInvenSync@ioUserBlockStorage@@UAEX_N@Z
	DD	FLAT:?InitInvenBlockItem@ioUserBlockStorage@@UAEXXZ
	DD	FLAT:?ProcessTCPPacket@ioUserBlockStorage@@UAE_NAAVSP2Packet@@@Z
	DD	FLAT:?ProcessUDPPacket@ioUserBlockStorage@@UAE_NAAVSP2Packet@@@Z
	DD	FLAT:??_EioUserBlockStorage@@UAEPAXI@Z
CONST	ENDS
;	COMDAT xdata$x
xdata$x	SEGMENT
__unwindtable$??1ioUserBlockStorage@@UAE@XZ DD 0ffffffffH
	DD	FLAT:__unwindfunclet$??1ioUserBlockStorage@@UAE@XZ$0
__ehfuncinfo$??1ioUserBlockStorage@@UAE@XZ DD 019930522H
	DD	01H
	DD	FLAT:__unwindtable$??1ioUserBlockStorage@@UAE@XZ
	DD	2 DUP(00H)
	DD	2 DUP(00H)
	DD	00H
	DD	01H
; Function compile flags: /Ogsp
; File d:\lost saga for developer\youtube\tutorial\source\src\lsclient\housing\iouserblockstorage.cpp
xdata$x	ENDS
;	COMDAT ??1ioUserBlockStorage@@UAE@XZ
_TEXT	SEGMENT
_this$ = -16						; size = 4
__$EHRec$ = -12						; size = 12
??1ioUserBlockStorage@@UAE@XZ PROC			; ioUserBlockStorage::~ioUserBlockStorage, COMDAT
; _this$ = ecx

; 13   : {

  00000	6a 04		 push	 4
  00002	b8 00 00 00 00	 mov	 eax, __ehhandler$??1ioUserBlockStorage@@UAE@XZ
  00007	e8 00 00 00 00	 call	 __EH_prolog3
  0000c	8b f1		 mov	 esi, ecx
  0000e	89 75 f0	 mov	 DWORD PTR _this$[ebp], esi
  00011	c7 06 00 00 00
	00		 mov	 DWORD PTR [esi], OFFSET ??_7ioUserBlockStorage@@6B@
  00017	83 65 fc 00	 and	 DWORD PTR __$EHRec$[ebp+8], 0

; 14   : }

  0001b	8d 4e 14	 lea	 ecx, DWORD PTR [esi+20]
  0001e	e8 00 00 00 00	 call	 ?_Tidy@?$vector@UInvenBlockItem@ioUserBlockStorage@@V?$allocator@UInvenBlockItem@ioUserBlockStorage@@@std@@@std@@IAEXXZ ; std::vector<ioUserBlockStorage::InvenBlockItem,std::allocator<ioUserBlockStorage::InvenBlockItem> >::_Tidy
  00023	83 4d fc ff	 or	 DWORD PTR __$EHRec$[ebp+8], -1
  00027	8d 4e 04	 lea	 ecx, DWORD PTR [esi+4]
  0002a	e8 00 00 00 00	 call	 ?_Tidy@?$vector@VioBlockDBItem@@V?$allocator@VioBlockDBItem@@@std@@@std@@IAEXXZ ; std::vector<ioBlockDBItem,std::allocator<ioBlockDBItem> >::_Tidy
  0002f	e8 00 00 00 00	 call	 __EH_epilog3
  00034	c3		 ret	 0
_TEXT	ENDS
;	COMDAT text$x
text$x	SEGMENT
__unwindfunclet$??1ioUserBlockStorage@@UAE@XZ$0:
  00000	8b 4d f0	 mov	 ecx, DWORD PTR _this$[ebp]
  00003	83 c1 04	 add	 ecx, 4
  00006	e9 00 00 00 00	 jmp	 ??1ioBlockDBItemContainer@@QAE@XZ
__ehhandler$??1ioUserBlockStorage@@UAE@XZ:
  0000b	8b 54 24 08	 mov	 edx, DWORD PTR [esp+8]
  0000f	8d 42 0c	 lea	 eax, DWORD PTR [edx+12]
  00012	8b 4a ec	 mov	 ecx, DWORD PTR [edx-20]
  00015	33 c8		 xor	 ecx, eax
  00017	e8 00 00 00 00	 call	 @__security_check_cookie@4
  0001c	b8 00 00 00 00	 mov	 eax, OFFSET __ehfuncinfo$??1ioUserBlockStorage@@UAE@XZ
  00021	e9 00 00 00 00	 jmp	 ___CxxFrameHandler3
text$x	ENDS
??1ioUserBlockStorage@@UAE@XZ ENDP			; ioUserBlockStorage::~ioUserBlockStorage
PUBLIC	?Initialize@ioUserBlockStorage@@QAEXXZ		; ioUserBlockStorage::Initialize
; Function compile flags: /Ogsp
;	COMDAT ?Initialize@ioUserBlockStorage@@QAEXXZ
_TEXT	SEGMENT
$T514848 = -4						; size = 4
?Initialize@ioUserBlockStorage@@QAEXXZ PROC		; ioUserBlockStorage::Initialize, COMDAT
; _this$ = ecx

; 17   : {

  00000	55		 push	 ebp
  00001	8b ec		 mov	 ebp, esp
  00003	51		 push	 ecx

; 18   : 	m_CurrInvenItemIndex	= 0;

  00004	83 61 24 00	 and	 DWORD PTR [ecx+36], 0

; 19   : 	m_dwBlockInvenSyncTime	= 0;

  00008	83 61 28 00	 and	 DWORD PTR [ecx+40], 0

; 20   : 
; 21   : 	m_ioBlockDBItemContainer.ItemList.clear();

  0000c	8b 41 08	 mov	 eax, DWORD PTR [ecx+8]
  0000f	83 c1 04	 add	 ecx, 4
  00012	8b 11		 mov	 edx, DWORD PTR [ecx]
  00014	50		 push	 eax
  00015	52		 push	 edx
  00016	8d 45 fc	 lea	 eax, DWORD PTR $T514848[ebp]
  00019	50		 push	 eax
  0001a	e8 00 00 00 00	 call	 ?erase@?$vector@VioBlockDBItem@@V?$allocator@VioBlockDBItem@@@std@@@std@@QAE?AV?$_Vector_iterator@V?$_Vector_val@VioBlockDBItem@@V?$allocator@VioBlockDBItem@@@std@@@std@@@2@V?$_Vector_const_iterator@V?$_Vector_val@VioBlockDBItem@@V?$allocator@VioBlockDBItem@@@std@@@std@@@2@0@Z ; std::vector<ioBlockDBItem,std::allocator<ioBlockDBItem> >::erase

; 22   : }

  0001f	c9		 leave
  00020	c3		 ret	 0
?Initialize@ioUserBlockStorage@@QAEXXZ ENDP		; ioUserBlockStorage::Initialize
_TEXT	ENDS
PUBLIC	??_7ioGuildBlockStorage@@6B@			; ioGuildBlockStorage::`vftable'
PUBLIC	??1ioGuildBlockStorage@@UAE@XZ			; ioGuildBlockStorage::~ioGuildBlockStorage
PUBLIC	??_R4ioGuildBlockStorage@@6B@			; ioGuildBlockStorage::`RTTI Complete Object Locator'
PUBLIC	??_R0?AVioGuildBlockStorage@@@8			; ioGuildBlockStorage `RTTI Type Descriptor'
PUBLIC	??_R3ioGuildBlockStorage@@8			; ioGuildBlockStorage::`RTTI Class Hierarchy Descriptor'
PUBLIC	??_R2ioGuildBlockStorage@@8			; ioGuildBlockStorage::`RTTI Base Class Array'
PUBLIC	??_R1A@?0A@EA@ioGuildBlockStorage@@8		; ioGuildBlockStorage::`RTTI Base Class Descriptor at (0,-1,0,64)'
PUBLIC	?InitInvenBlockItem@ioGuildBlockStorage@@MAEXXZ	; ioGuildBlockStorage::InitInvenBlockItem
PUBLIC	?ProcessTCPPacket@ioGuildBlockStorage@@UAE_NAAVSP2Packet@@@Z ; ioGuildBlockStorage::ProcessTCPPacket
EXTRN	??_EioGuildBlockStorage@@UAEPAXI@Z:PROC		; ioGuildBlockStorage::`vector deleting destructor'
;	COMDAT ??_R1A@?0A@EA@ioGuildBlockStorage@@8
rdata$r	SEGMENT
??_R1A@?0A@EA@ioGuildBlockStorage@@8 DD FLAT:??_R0?AVioGuildBlockStorage@@@8 ; ioGuildBlockStorage::`RTTI Base Class Descriptor at (0,-1,0,64)'
	DD	01H
	DD	00H
	DD	0ffffffffH
	DD	00H
	DD	040H
	DD	FLAT:??_R3ioGuildBlockStorage@@8
rdata$r	ENDS
;	COMDAT ??_R2ioGuildBlockStorage@@8
rdata$r	SEGMENT
??_R2ioGuildBlockStorage@@8 DD FLAT:??_R1A@?0A@EA@ioGuildBlockStorage@@8 ; ioGuildBlockStorage::`RTTI Base Class Array'
	DD	FLAT:??_R1A@?0A@EA@ioUserBlockStorage@@8
rdata$r	ENDS
;	COMDAT ??_R3ioGuildBlockStorage@@8
rdata$r	SEGMENT
??_R3ioGuildBlockStorage@@8 DD 00H			; ioGuildBlockStorage::`RTTI Class Hierarchy Descriptor'
	DD	00H
	DD	02H
	DD	FLAT:??_R2ioGuildBlockStorage@@8
rdata$r	ENDS
;	COMDAT ??_R0?AVioGuildBlockStorage@@@8
_DATA	SEGMENT
??_R0?AVioGuildBlockStorage@@@8 DD FLAT:??_7type_info@@6B@ ; ioGuildBlockStorage `RTTI Type Descriptor'
	DD	00H
	DB	'.?AVioGuildBlockStorage@@', 00H
_DATA	ENDS
;	COMDAT ??_R4ioGuildBlockStorage@@6B@
rdata$r	SEGMENT
??_R4ioGuildBlockStorage@@6B@ DD 00H			; ioGuildBlockStorage::`RTTI Complete Object Locator'
	DD	00H
	DD	00H
	DD	FLAT:??_R0?AVioGuildBlockStorage@@@8
	DD	FLAT:??_R3ioGuildBlockStorage@@8
rdata$r	ENDS
;	COMDAT ??_7ioGuildBlockStorage@@6B@
CONST	SEGMENT
??_7ioGuildBlockStorage@@6B@ DD FLAT:??_R4ioGuildBlockStorage@@6B@ ; ioGuildBlockStorage::`vftable'
	DD	FLAT:?SendBlockInvenSync@ioGuildBlockStorage@@MAEX_N@Z
	DD	FLAT:?InitInvenBlockItem@ioGuildBlockStorage@@MAEXXZ
	DD	FLAT:?ProcessTCPPacket@ioGuildBlockStorage@@UAE_NAAVSP2Packet@@@Z
	DD	FLAT:?ProcessUDPPacket@ioUserBlockStorage@@UAE_NAAVSP2Packet@@@Z
	DD	FLAT:??_EioGuildBlockStorage@@UAEPAXI@Z
; Function compile flags: /Ogsp
CONST	ENDS
;	COMDAT ??1ioGuildBlockStorage@@UAE@XZ
_TEXT	SEGMENT
??1ioGuildBlockStorage@@UAE@XZ PROC			; ioGuildBlockStorage::~ioGuildBlockStorage, COMDAT
; _this$ = ecx

; 207  : {

  00000	c7 01 00 00 00
	00		 mov	 DWORD PTR [ecx], OFFSET ??_7ioGuildBlockStorage@@6B@

; 208  : 
; 209  : }

  00006	e9 00 00 00 00	 jmp	 ??1ioUserBlockStorage@@UAE@XZ ; ioUserBlockStorage::~ioUserBlockStorage
??1ioGuildBlockStorage@@UAE@XZ ENDP			; ioGuildBlockStorage::~ioGuildBlockStorage
_TEXT	ENDS
PUBLIC	??_7ioHomeBlockStorage@@6B@			; ioHomeBlockStorage::`vftable'
PUBLIC	??1ioHomeBlockStorage@@UAE@XZ			; ioHomeBlockStorage::~ioHomeBlockStorage
PUBLIC	??_R4ioHomeBlockStorage@@6B@			; ioHomeBlockStorage::`RTTI Complete Object Locator'
PUBLIC	??_R0?AVioHomeBlockStorage@@@8			; ioHomeBlockStorage `RTTI Type Descriptor'
PUBLIC	??_R3ioHomeBlockStorage@@8			; ioHomeBlockStorage::`RTTI Class Hierarchy Descriptor'
PUBLIC	??_R2ioHomeBlockStorage@@8			; ioHomeBlockStorage::`RTTI Base Class Array'
PUBLIC	??_R1A@?0A@EA@ioHomeBlockStorage@@8		; ioHomeBlockStorage::`RTTI Base Class Descriptor at (0,-1,0,64)'
PUBLIC	?InitInvenBlockItem@ioHomeBlockStorage@@MAEXXZ	; ioHomeBlockStorage::InitInvenBlockItem
PUBLIC	?ProcessTCPPacket@ioHomeBlockStorage@@UAE_NAAVSP2Packet@@@Z ; ioHomeBlockStorage::ProcessTCPPacket
EXTRN	??_EioHomeBlockStorage@@UAEPAXI@Z:PROC		; ioHomeBlockStorage::`vector deleting destructor'
;	COMDAT ??_R1A@?0A@EA@ioHomeBlockStorage@@8
rdata$r	SEGMENT
??_R1A@?0A@EA@ioHomeBlockStorage@@8 DD FLAT:??_R0?AVioHomeBlockStorage@@@8 ; ioHomeBlockStorage::`RTTI Base Class Descriptor at (0,-1,0,64)'
	DD	01H
	DD	00H
	DD	0ffffffffH
	DD	00H
	DD	040H
	DD	FLAT:??_R3ioHomeBlockStorage@@8
rdata$r	ENDS
;	COMDAT ??_R2ioHomeBlockStorage@@8
rdata$r	SEGMENT
??_R2ioHomeBlockStorage@@8 DD FLAT:??_R1A@?0A@EA@ioHomeBlockStorage@@8 ; ioHomeBlockStorage::`RTTI Base Class Array'
	DD	FLAT:??_R1A@?0A@EA@ioUserBlockStorage@@8
rdata$r	ENDS
;	COMDAT ??_R3ioHomeBlockStorage@@8
rdata$r	SEGMENT
??_R3ioHomeBlockStorage@@8 DD 00H			; ioHomeBlockStorage::`RTTI Class Hierarchy Descriptor'
	DD	00H
	DD	02H
	DD	FLAT:??_R2ioHomeBlockStorage@@8
rdata$r	ENDS
;	COMDAT ??_R0?AVioHomeBlockStorage@@@8
_DATA	SEGMENT
??_R0?AVioHomeBlockStorage@@@8 DD FLAT:??_7type_info@@6B@ ; ioHomeBlockStorage `RTTI Type Descriptor'
	DD	00H
	DB	'.?AVioHomeBlockStorage@@', 00H
_DATA	ENDS
;	COMDAT ??_R4ioHomeBlockStorage@@6B@
rdata$r	SEGMENT
??_R4ioHomeBlockStorage@@6B@ DD 00H			; ioHomeBlockStorage::`RTTI Complete Object Locator'
	DD	00H
	DD	00H
	DD	FLAT:??_R0?AVioHomeBlockStorage@@@8
	DD	FLAT:??_R3ioHomeBlockStorage@@8
rdata$r	ENDS
;	COMDAT ??_7ioHomeBlockStorage@@6B@
CONST	SEGMENT
??_7ioHomeBlockStorage@@6B@ DD FLAT:??_R4ioHomeBlockStorage@@6B@ ; ioHomeBlockStorage::`vftable'
	DD	FLAT:?SendBlockInvenSync@ioHomeBlockStorage@@MAEX_N@Z
	DD	FLAT:?InitInvenBlockItem@ioHomeBlockStorage@@MAEXXZ
	DD	FLAT:?ProcessTCPPacket@ioHomeBlockStorage@@UAE_NAAVSP2Packet@@@Z
	DD	FLAT:?ProcessUDPPacket@ioUserBlockStorage@@UAE_NAAVSP2Packet@@@Z
	DD	FLAT:??_EioHomeBlockStorage@@UAEPAXI@Z
; Function compile flags: /Ogsp
CONST	ENDS
;	COMDAT ??1ioHomeBlockStorage@@UAE@XZ
_TEXT	SEGMENT
??1ioHomeBlockStorage@@UAE@XZ PROC			; ioHomeBlockStorage::~ioHomeBlockStorage, COMDAT
; _this$ = ecx

; 351  : {

  00000	c7 01 00 00 00
	00		 mov	 DWORD PTR [ecx], OFFSET ??_7ioHomeBlockStorage@@6B@

; 352  : 
; 353  : }

  00006	e9 00 00 00 00	 jmp	 ??1ioUserBlockStorage@@UAE@XZ ; ioUserBlockStorage::~ioUserBlockStorage
??1ioHomeBlockStorage@@UAE@XZ ENDP			; ioHomeBlockStorage::~ioHomeBlockStorage
_TEXT	ENDS
PUBLIC	?ClearBlock@ioHomeBlockStorage@@QAEXXZ		; ioHomeBlockStorage::ClearBlock
; Function compile flags: /Ogsp
;	COMDAT ?ClearBlock@ioHomeBlockStorage@@QAEXXZ
_TEXT	SEGMENT
$T514940 = -4						; size = 4
?ClearBlock@ioHomeBlockStorage@@QAEXXZ PROC		; ioHomeBlockStorage::ClearBlock, COMDAT
; _this$ = ecx

; 356  : {

  00000	55		 push	 ebp
  00001	8b ec		 mov	 ebp, esp
  00003	51		 push	 ecx

; 357  : 	m_ioBlockDBItemContainer.ItemList.clear();

  00004	8b 41 08	 mov	 eax, DWORD PTR [ecx+8]
  00007	83 c1 04	 add	 ecx, 4
  0000a	8b 11		 mov	 edx, DWORD PTR [ecx]
  0000c	50		 push	 eax
  0000d	52		 push	 edx
  0000e	8d 45 fc	 lea	 eax, DWORD PTR $T514940[ebp]
  00011	50		 push	 eax
  00012	e8 00 00 00 00	 call	 ?erase@?$vector@VioBlockDBItem@@V?$allocator@VioBlockDBItem@@@std@@@std@@QAE?AV?$_Vector_iterator@V?$_Vector_val@VioBlockDBItem@@V?$allocator@VioBlockDBItem@@@std@@@std@@@2@V?$_Vector_const_iterator@V?$_Vector_val@VioBlockDBItem@@V?$allocator@VioBlockDBItem@@@std@@@std@@@2@0@Z ; std::vector<ioBlockDBItem,std::allocator<ioBlockDBItem> >::erase

; 358  : }

  00017	c9		 leave
  00018	c3		 ret	 0
?ClearBlock@ioHomeBlockStorage@@QAEXXZ ENDP		; ioHomeBlockStorage::ClearBlock
_TEXT	ENDS
PUBLIC	?push_back@?$vector@VioBlockDBItem@@V?$allocator@VioBlockDBItem@@@std@@@std@@QAEXABVioBlockDBItem@@@Z ; std::vector<ioBlockDBItem,std::allocator<ioBlockDBItem> >::push_back
; Function compile flags: /Ogsp
; File c:\program files (x86)\microsoft visual studio 10.0\vc\include\vector
;	COMDAT ?push_back@?$vector@VioBlockDBItem@@V?$allocator@VioBlockDBItem@@@std@@@std@@QAEXABVioBlockDBItem@@@Z
_TEXT	SEGMENT
__Val$ = 8						; size = 4
?push_back@?$vector@VioBlockDBItem@@V?$allocator@VioBlockDBItem@@@std@@@std@@QAEXABVioBlockDBItem@@@Z PROC ; std::vector<ioBlockDBItem,std::allocator<ioBlockDBItem> >::push_back, COMDAT
; _this$ = ecx

; 976  : 		{	// insert element at end

  00000	55		 push	 ebp
  00001	8b ec		 mov	 ebp, esp
  00003	56		 push	 esi
  00004	8b f1		 mov	 esi, ecx

; 977  : 		if (_Inside(_STD addressof(_Val)))

  00006	8b 4e 04	 mov	 ecx, DWORD PTR [esi+4]
  00009	57		 push	 edi
  0000a	8b 7d 08	 mov	 edi, DWORD PTR __Val$[ebp]
  0000d	3b f9		 cmp	 edi, ecx
  0000f	73 2e		 jae	 SHORT $LN4@push_back
  00011	8b 16		 mov	 edx, DWORD PTR [esi]
  00013	3b d7		 cmp	 edx, edi
  00015	77 28		 ja	 SHORT $LN4@push_back

; 978  : 			{	// push back an element
; 979  : 			size_type _Idx = _STD addressof(_Val) - this->_Myfirst;

  00017	8b c7		 mov	 eax, edi
  00019	2b c2		 sub	 eax, edx
  0001b	6a 28		 push	 40			; 00000028H
  0001d	99		 cdq
  0001e	5f		 pop	 edi
  0001f	f7 ff		 idiv	 edi
  00021	8b f8		 mov	 edi, eax

; 980  : 			if (this->_Mylast == this->_Myend)

  00023	3b 4e 08	 cmp	 ecx, DWORD PTR [esi+8]
  00026	75 09		 jne	 SHORT $LN3@push_back

; 981  : 				_Reserve(1);

  00028	6a 01		 push	 1
  0002a	8b ce		 mov	 ecx, esi
  0002c	e8 00 00 00 00	 call	 ?_Reserve@?$vector@VioBlockDBItem@@V?$allocator@VioBlockDBItem@@@std@@@std@@IAEXI@Z ; std::vector<ioBlockDBItem,std::allocator<ioBlockDBItem> >::_Reserve
$LN3@push_back:

; 982  : 			_Orphan_range(this->_Mylast, this->_Mylast);
; 983  : 			_Cons_val(this->_Alval,
; 984  : 				this->_Mylast,
; 985  : 				this->_Myfirst[_Idx]);

  00031	8b 4e 04	 mov	 ecx, DWORD PTR [esi+4]
  00034	85 c9		 test	 ecx, ecx
  00036	74 22		 je	 SHORT $LN39@push_back
  00038	6b ff 28	 imul	 edi, 40			; 00000028H
  0003b	03 3e		 add	 edi, DWORD PTR [esi]

; 986  : 			++this->_Mylast;
; 987  : 			}
; 988  : 		else

  0003d	eb 15		 jmp	 SHORT $LN46@push_back
$LN4@push_back:

; 989  : 			{	// push back a non-element
; 990  : 			if (this->_Mylast == this->_Myend)

  0003f	3b 4e 08	 cmp	 ecx, DWORD PTR [esi+8]
  00042	75 09		 jne	 SHORT $LN1@push_back

; 991  : 				_Reserve(1);

  00044	6a 01		 push	 1
  00046	8b ce		 mov	 ecx, esi
  00048	e8 00 00 00 00	 call	 ?_Reserve@?$vector@VioBlockDBItem@@V?$allocator@VioBlockDBItem@@@std@@@std@@IAEXI@Z ; std::vector<ioBlockDBItem,std::allocator<ioBlockDBItem> >::_Reserve
$LN1@push_back:

; 992  : 			_Orphan_range(this->_Mylast, this->_Mylast);
; 993  : 			_Cons_val(this->_Alval,
; 994  : 				this->_Mylast,
; 995  : 				_Val);

  0004d	8b 4e 04	 mov	 ecx, DWORD PTR [esi+4]
  00050	85 c9		 test	 ecx, ecx
  00052	74 06		 je	 SHORT $LN39@push_back
$LN46@push_back:
  00054	57		 push	 edi
  00055	e8 00 00 00 00	 call	 ??0ioBlockDBItem@@QAE@ABV0@@Z
$LN39@push_back:

; 996  : 			++this->_Mylast;

  0005a	83 46 04 28	 add	 DWORD PTR [esi+4], 40	; 00000028H
  0005e	5f		 pop	 edi
  0005f	5e		 pop	 esi

; 997  : 			}
; 998  : 		}

  00060	5d		 pop	 ebp
  00061	c2 04 00	 ret	 4
?push_back@?$vector@VioBlockDBItem@@V?$allocator@VioBlockDBItem@@@std@@@std@@QAEXABVioBlockDBItem@@@Z ENDP ; std::vector<ioBlockDBItem,std::allocator<ioBlockDBItem> >::push_back
_TEXT	ENDS
PUBLIC	?push_back@?$vector@UInvenBlockItem@ioUserBlockStorage@@V?$allocator@UInvenBlockItem@ioUserBlockStorage@@@std@@@std@@QAEXABUInvenBlockItem@ioUserBlockStorage@@@Z ; std::vector<ioUserBlockStorage::InvenBlockItem,std::allocator<ioUserBlockStorage::InvenBlockItem> >::push_back
; Function compile flags: /Ogsp
;	COMDAT ?push_back@?$vector@UInvenBlockItem@ioUserBlockStorage@@V?$allocator@UInvenBlockItem@ioUserBlockStorage@@@std@@@std@@QAEXABUInvenBlockItem@ioUserBlockStorage@@@Z
_TEXT	SEGMENT
__Val$ = 8						; size = 4
?push_back@?$vector@UInvenBlockItem@ioUserBlockStorage@@V?$allocator@UInvenBlockItem@ioUserBlockStorage@@@std@@@std@@QAEXABUInvenBlockItem@ioUserBlockStorage@@@Z PROC ; std::vector<ioUserBlockStorage::InvenBlockItem,std::allocator<ioUserBlockStorage::InvenBlockItem> >::push_back, COMDAT
; _this$ = ecx

; 976  : 		{	// insert element at end

  00000	55		 push	 ebp
  00001	8b ec		 mov	 ebp, esp
  00003	56		 push	 esi
  00004	8b f1		 mov	 esi, ecx

; 977  : 		if (_Inside(_STD addressof(_Val)))

  00006	8b 4e 04	 mov	 ecx, DWORD PTR [esi+4]
  00009	57		 push	 edi
  0000a	8b 7d 08	 mov	 edi, DWORD PTR __Val$[ebp]
  0000d	3b f9		 cmp	 edi, ecx
  0000f	73 37		 jae	 SHORT $LN4@push_back@2
  00011	8b 16		 mov	 edx, DWORD PTR [esi]
  00013	3b d7		 cmp	 edx, edi
  00015	77 31		 ja	 SHORT $LN4@push_back@2

; 978  : 			{	// push back an element
; 979  : 			size_type _Idx = _STD addressof(_Val) - this->_Myfirst;

  00017	8b c7		 mov	 eax, edi
  00019	2b c2		 sub	 eax, edx
  0001b	6a 38		 push	 56			; 00000038H
  0001d	99		 cdq
  0001e	5f		 pop	 edi
  0001f	f7 ff		 idiv	 edi
  00021	8b f8		 mov	 edi, eax

; 980  : 			if (this->_Mylast == this->_Myend)

  00023	3b 4e 08	 cmp	 ecx, DWORD PTR [esi+8]
  00026	75 09		 jne	 SHORT $LN3@push_back@2

; 981  : 				_Reserve(1);

  00028	6a 01		 push	 1
  0002a	8b ce		 mov	 ecx, esi
  0002c	e8 00 00 00 00	 call	 ?_Reserve@?$vector@UInvenBlockItem@ioUserBlockStorage@@V?$allocator@UInvenBlockItem@ioUserBlockStorage@@@std@@@std@@IAEXI@Z ; std::vector<ioUserBlockStorage::InvenBlockItem,std::allocator<ioUserBlockStorage::InvenBlockItem> >::_Reserve
$LN3@push_back@2:

; 982  : 			_Orphan_range(this->_Mylast, this->_Mylast);
; 983  : 			_Cons_val(this->_Alval,
; 984  : 				this->_Mylast,
; 985  : 				this->_Myfirst[_Idx]);

  00031	6b ff 38	 imul	 edi, 56			; 00000038H
  00034	03 3e		 add	 edi, DWORD PTR [esi]
  00036	8d 46 0c	 lea	 eax, DWORD PTR [esi+12]
  00039	57		 push	 edi
  0003a	ff 76 04	 push	 DWORD PTR [esi+4]
  0003d	50		 push	 eax
  0003e	e8 00 00 00 00	 call	 ??$_Cons_val@V?$allocator@UInvenBlockItem@ioUserBlockStorage@@@std@@UInvenBlockItem@ioUserBlockStorage@@AAU34@@std@@YAXAAV?$allocator@UInvenBlockItem@ioUserBlockStorage@@@0@PAUInvenBlockItem@ioUserBlockStorage@@AAU23@@Z ; std::_Cons_val<std::allocator<ioUserBlockStorage::InvenBlockItem>,ioUserBlockStorage::InvenBlockItem,ioUserBlockStorage::InvenBlockItem &>
  00043	83 c4 0c	 add	 esp, 12			; 0000000cH

; 986  : 			++this->_Mylast;
; 987  : 			}
; 988  : 		else

  00046	eb 19		 jmp	 SHORT $LN26@push_back@2
$LN4@push_back@2:

; 989  : 			{	// push back a non-element
; 990  : 			if (this->_Mylast == this->_Myend)

  00048	3b 4e 08	 cmp	 ecx, DWORD PTR [esi+8]
  0004b	75 09		 jne	 SHORT $LN1@push_back@2

; 991  : 				_Reserve(1);

  0004d	6a 01		 push	 1
  0004f	8b ce		 mov	 ecx, esi
  00051	e8 00 00 00 00	 call	 ?_Reserve@?$vector@UInvenBlockItem@ioUserBlockStorage@@V?$allocator@UInvenBlockItem@ioUserBlockStorage@@@std@@@std@@IAEXI@Z ; std::vector<ioUserBlockStorage::InvenBlockItem,std::allocator<ioUserBlockStorage::InvenBlockItem> >::_Reserve
$LN1@push_back@2:

; 992  : 			_Orphan_range(this->_Mylast, this->_Mylast);
; 993  : 			_Cons_val(this->_Alval,
; 994  : 				this->_Mylast,
; 995  : 				_Val);

  00056	57		 push	 edi
  00057	ff 76 04	 push	 DWORD PTR [esi+4]
  0005a	e8 00 00 00 00	 call	 ??$_Construct@UInvenBlockItem@ioUserBlockStorage@@ABU12@@std@@YAXPAUInvenBlockItem@ioUserBlockStorage@@ABU12@@Z ; std::_Construct<ioUserBlockStorage::InvenBlockItem,ioUserBlockStorage::InvenBlockItem const &>
  0005f	59		 pop	 ecx
  00060	59		 pop	 ecx
$LN26@push_back@2:

; 996  : 			++this->_Mylast;

  00061	83 46 04 38	 add	 DWORD PTR [esi+4], 56	; 00000038H
  00065	5f		 pop	 edi
  00066	5e		 pop	 esi

; 997  : 			}
; 998  : 		}

  00067	5d		 pop	 ebp
  00068	c2 04 00	 ret	 4
?push_back@?$vector@UInvenBlockItem@ioUserBlockStorage@@V?$allocator@UInvenBlockItem@ioUserBlockStorage@@@std@@@std@@QAEXABUInvenBlockItem@ioUserBlockStorage@@@Z ENDP ; std::vector<ioUserBlockStorage::InvenBlockItem,std::allocator<ioUserBlockStorage::InvenBlockItem> >::push_back
_TEXT	ENDS
PUBLIC	?clear@?$vector@UInvenBlockItem@ioUserBlockStorage@@V?$allocator@UInvenBlockItem@ioUserBlockStorage@@@std@@@std@@QAEXXZ ; std::vector<ioUserBlockStorage::InvenBlockItem,std::allocator<ioUserBlockStorage::InvenBlockItem> >::clear
; Function compile flags: /Ogsp
;	COMDAT ?clear@?$vector@UInvenBlockItem@ioUserBlockStorage@@V?$allocator@UInvenBlockItem@ioUserBlockStorage@@@std@@@std@@QAEXXZ
_TEXT	SEGMENT
$T515123 = -4						; size = 4
?clear@?$vector@UInvenBlockItem@ioUserBlockStorage@@V?$allocator@UInvenBlockItem@ioUserBlockStorage@@@std@@@std@@QAEXXZ PROC ; std::vector<ioUserBlockStorage::InvenBlockItem,std::allocator<ioUserBlockStorage::InvenBlockItem> >::clear, COMDAT
; _this$ = ecx

; 1217 : 		{	// erase all

  00000	55		 push	 ebp
  00001	8b ec		 mov	 ebp, esp
  00003	51		 push	 ecx

; 1218 : 		erase(begin(), end());

  00004	8b 41 04	 mov	 eax, DWORD PTR [ecx+4]
  00007	8b 11		 mov	 edx, DWORD PTR [ecx]
  00009	50		 push	 eax
  0000a	52		 push	 edx
  0000b	8d 45 fc	 lea	 eax, DWORD PTR $T515123[ebp]
  0000e	50		 push	 eax
  0000f	e8 00 00 00 00	 call	 ?erase@?$vector@UInvenBlockItem@ioUserBlockStorage@@V?$allocator@UInvenBlockItem@ioUserBlockStorage@@@std@@@std@@QAE?AV?$_Vector_iterator@V?$_Vector_val@UInvenBlockItem@ioUserBlockStorage@@V?$allocator@UInvenBlockItem@ioUserBlockStorage@@@std@@@std@@@2@V?$_Vector_const_iterator@V?$_Vector_val@UInvenBlockItem@ioUserBlockStorage@@V?$allocator@UInvenBlockItem@ioUserBlockStorage@@@std@@@std@@@2@0@Z ; std::vector<ioUserBlockStorage::InvenBlockItem,std::allocator<ioUserBlockStorage::InvenBlockItem> >::erase

; 1219 : 		}

  00014	c9		 leave
  00015	c3		 ret	 0
?clear@?$vector@UInvenBlockItem@ioUserBlockStorage@@V?$allocator@UInvenBlockItem@ioUserBlockStorage@@@std@@@std@@QAEXXZ ENDP ; std::vector<ioUserBlockStorage::InvenBlockItem,std::allocator<ioUserBlockStorage::InvenBlockItem> >::clear
_TEXT	ENDS
PUBLIC	??4?$back_insert_iterator@V?$vector@UInvenBlockItem@ioUserBlockStorage@@V?$allocator@UInvenBlockItem@ioUserBlockStorage@@@std@@@std@@@std@@QAEAAV01@ABUInvenBlockItem@ioUserBlockStorage@@@Z ; std::back_insert_iterator<std::vector<ioUserBlockStorage::InvenBlockItem,std::allocator<ioUserBlockStorage::InvenBlockItem> > >::operator=
; Function compile flags: /Ogsp
; File c:\program files (x86)\microsoft visual studio 10.0\vc\include\iterator
;	COMDAT ??4?$back_insert_iterator@V?$vector@UInvenBlockItem@ioUserBlockStorage@@V?$allocator@UInvenBlockItem@ioUserBlockStorage@@@std@@@std@@@std@@QAEAAV01@ABUInvenBlockItem@ioUserBlockStorage@@@Z
_TEXT	SEGMENT
__Val$ = 8						; size = 4
??4?$back_insert_iterator@V?$vector@UInvenBlockItem@ioUserBlockStorage@@V?$allocator@UInvenBlockItem@ioUserBlockStorage@@@std@@@std@@@std@@QAEAAV01@ABUInvenBlockItem@ioUserBlockStorage@@@Z PROC ; std::back_insert_iterator<std::vector<ioUserBlockStorage::InvenBlockItem,std::allocator<ioUserBlockStorage::InvenBlockItem> > >::operator=, COMDAT
; _this$ = ecx

; 30   : 		{	// push value into container

  00000	55		 push	 ebp
  00001	8b ec		 mov	 ebp, esp
  00003	56		 push	 esi

; 31   : 		container->push_back(_Val);

  00004	ff 75 08	 push	 DWORD PTR __Val$[ebp]
  00007	8b f1		 mov	 esi, ecx
  00009	8b 0e		 mov	 ecx, DWORD PTR [esi]
  0000b	e8 00 00 00 00	 call	 ?push_back@?$vector@UInvenBlockItem@ioUserBlockStorage@@V?$allocator@UInvenBlockItem@ioUserBlockStorage@@@std@@@std@@QAEXABUInvenBlockItem@ioUserBlockStorage@@@Z ; std::vector<ioUserBlockStorage::InvenBlockItem,std::allocator<ioUserBlockStorage::InvenBlockItem> >::push_back

; 32   : 		return (*this);

  00010	8b c6		 mov	 eax, esi
  00012	5e		 pop	 esi

; 33   : 		}

  00013	5d		 pop	 ebp
  00014	c2 04 00	 ret	 4
??4?$back_insert_iterator@V?$vector@UInvenBlockItem@ioUserBlockStorage@@V?$allocator@UInvenBlockItem@ioUserBlockStorage@@@std@@@std@@@std@@QAEAAV01@ABUInvenBlockItem@ioUserBlockStorage@@@Z ENDP ; std::back_insert_iterator<std::vector<ioUserBlockStorage::InvenBlockItem,std::allocator<ioUserBlockStorage::InvenBlockItem> > >::operator=
_TEXT	ENDS
PUBLIC	??0ioUserBlockStorage@@QAE@XZ			; ioUserBlockStorage::ioUserBlockStorage
; Function compile flags: /Ogsp
; File d:\lost saga for developer\youtube\tutorial\source\src\lsclient\housing\iouserblockstorage.cpp
;	COMDAT ??0ioUserBlockStorage@@QAE@XZ
_TEXT	SEGMENT
??0ioUserBlockStorage@@QAE@XZ PROC			; ioUserBlockStorage::ioUserBlockStorage, COMDAT
; _this$ = ecx

; 9    : {

  00000	8b c1		 mov	 eax, ecx
  00002	33 c9		 xor	 ecx, ecx
  00004	c7 00 00 00 00
	00		 mov	 DWORD PTR [eax], OFFSET ??_7ioUserBlockStorage@@6B@
  0000a	89 48 04	 mov	 DWORD PTR [eax+4], ecx
  0000d	89 48 08	 mov	 DWORD PTR [eax+8], ecx
  00010	89 48 0c	 mov	 DWORD PTR [eax+12], ecx
  00013	89 48 14	 mov	 DWORD PTR [eax+20], ecx
  00016	89 48 18	 mov	 DWORD PTR [eax+24], ecx
  00019	89 48 1c	 mov	 DWORD PTR [eax+28], ecx
  0001c	89 48 24	 mov	 DWORD PTR [eax+36], ecx
  0001f	89 48 28	 mov	 DWORD PTR [eax+40], ecx

; 10   : }

  00022	c3		 ret	 0
??0ioUserBlockStorage@@QAE@XZ ENDP			; ioUserBlockStorage::ioUserBlockStorage
; Function compile flags: /Ogsp
_TEXT	ENDS
;	COMDAT ??_GioUserBlockStorage@@UAEPAXI@Z
_TEXT	SEGMENT
___flags$ = 8						; size = 4
??_GioUserBlockStorage@@UAEPAXI@Z PROC			; ioUserBlockStorage::`scalar deleting destructor', COMDAT
; _this$ = ecx
  00000	55		 push	 ebp
  00001	8b ec		 mov	 ebp, esp
  00003	56		 push	 esi
  00004	8b f1		 mov	 esi, ecx
  00006	e8 00 00 00 00	 call	 ??1ioUserBlockStorage@@UAE@XZ ; ioUserBlockStorage::~ioUserBlockStorage
  0000b	f6 45 08 01	 test	 BYTE PTR ___flags$[ebp], 1
  0000f	74 07		 je	 SHORT $LN1@scalar@4
  00011	56		 push	 esi
  00012	e8 00 00 00 00	 call	 ??3@YAXPAX@Z		; operator delete
  00017	59		 pop	 ecx
$LN1@scalar@4:
  00018	8b c6		 mov	 eax, esi
  0001a	5e		 pop	 esi
  0001b	5d		 pop	 ebp
  0001c	c2 04 00	 ret	 4
??_GioUserBlockStorage@@UAEPAXI@Z ENDP			; ioUserBlockStorage::`scalar deleting destructor'
_TEXT	ENDS
PUBLIC	??0ioGuildBlockStorage@@QAE@XZ			; ioGuildBlockStorage::ioGuildBlockStorage
; Function compile flags: /Ogsp
;	COMDAT ??0ioGuildBlockStorage@@QAE@XZ
_TEXT	SEGMENT
??0ioGuildBlockStorage@@QAE@XZ PROC			; ioGuildBlockStorage::ioGuildBlockStorage, COMDAT
; _this$ = ecx

; 202  : {

  00000	8b d1		 mov	 edx, ecx
  00002	e8 00 00 00 00	 call	 ??0ioUserBlockStorage@@QAE@XZ ; ioUserBlockStorage::ioUserBlockStorage
  00007	c7 02 00 00 00
	00		 mov	 DWORD PTR [edx], OFFSET ??_7ioGuildBlockStorage@@6B@

; 203  : 
; 204  : }

  0000d	8b c2		 mov	 eax, edx
  0000f	c3		 ret	 0
??0ioGuildBlockStorage@@QAE@XZ ENDP			; ioGuildBlockStorage::ioGuildBlockStorage
; Function compile flags: /Ogsp
_TEXT	ENDS
;	COMDAT ??_GioGuildBlockStorage@@UAEPAXI@Z
_TEXT	SEGMENT
___flags$ = 8						; size = 4
??_GioGuildBlockStorage@@UAEPAXI@Z PROC			; ioGuildBlockStorage::`scalar deleting destructor', COMDAT
; _this$ = ecx
  00000	55		 push	 ebp
  00001	8b ec		 mov	 ebp, esp
  00003	56		 push	 esi
  00004	8b f1		 mov	 esi, ecx
  00006	c7 06 00 00 00
	00		 mov	 DWORD PTR [esi], OFFSET ??_7ioGuildBlockStorage@@6B@
  0000c	e8 00 00 00 00	 call	 ??1ioUserBlockStorage@@UAE@XZ ; ioUserBlockStorage::~ioUserBlockStorage
  00011	f6 45 08 01	 test	 BYTE PTR ___flags$[ebp], 1
  00015	74 07		 je	 SHORT $LN1@scalar@5
  00017	56		 push	 esi
  00018	e8 00 00 00 00	 call	 ??3@YAXPAX@Z		; operator delete
  0001d	59		 pop	 ecx
$LN1@scalar@5:
  0001e	8b c6		 mov	 eax, esi
  00020	5e		 pop	 esi
  00021	5d		 pop	 ebp
  00022	c2 04 00	 ret	 4
??_GioGuildBlockStorage@@UAEPAXI@Z ENDP			; ioGuildBlockStorage::`scalar deleting destructor'
_TEXT	ENDS
PUBLIC	??_R0?AVioEtcItem@@@8				; ioEtcItem `RTTI Type Descriptor'
PUBLIC	??_R0?AVioEtcItemHousingBlockItem@@@8		; ioEtcItemHousingBlockItem `RTTI Type Descriptor'
EXTRN	?GetBlockTemplete@ioBlockManager@@QAEPBVioBlockProperty@@H@Z:PROC ; ioBlockManager::GetBlockTemplete
EXTRN	?GetSingleton@ioBlockManager@@SAAAV1@XZ:PROC	; ioBlockManager::GetSingleton
EXTRN	?FindEtcItem@ioEtcItemManager@@QAEPAVioEtcItem@@K@Z:PROC ; ioEtcItemManager::FindEtcItem
EXTRN	___RTDynamicCast:PROC
;	COMDAT ??_R0?AVioEtcItem@@@8
; File d:\lost saga for developer\youtube\tutorial\source\src\lsclient\housing\ioblockproperty.h
_DATA	SEGMENT
??_R0?AVioEtcItem@@@8 DD FLAT:??_7type_info@@6B@	; ioEtcItem `RTTI Type Descriptor'
	DD	00H
	DB	'.?AVioEtcItem@@', 00H
_DATA	ENDS
;	COMDAT ??_R0?AVioEtcItemHousingBlockItem@@@8
_DATA	SEGMENT
??_R0?AVioEtcItemHousingBlockItem@@@8 DD FLAT:??_7type_info@@6B@ ; ioEtcItemHousingBlockItem `RTTI Type Descriptor'
	DD	00H
	DB	'.?AVioEtcItemHousingBlockItem@@', 00H
_DATA	ENDS
;	COMDAT xdata$x
xdata$x	SEGMENT
__unwindtable$?InitInvenBlockItem@ioGuildBlockStorage@@MAEXXZ DD 0ffffffffH
	DD	FLAT:__unwindfunclet$?InitInvenBlockItem@ioGuildBlockStorage@@MAEXXZ$0
__ehfuncinfo$?InitInvenBlockItem@ioGuildBlockStorage@@MAEXXZ DD 019930522H
	DD	01H
	DD	FLAT:__unwindtable$?InitInvenBlockItem@ioGuildBlockStorage@@MAEXXZ
	DD	2 DUP(00H)
	DD	2 DUP(00H)
	DD	00H
	DD	01H
; Function compile flags: /Ogsp
; File d:\lost saga for developer\youtube\tutorial\source\src\lsclient\housing\iouserblockstorage.cpp
xdata$x	ENDS
;	COMDAT ?InitInvenBlockItem@ioGuildBlockStorage@@MAEXXZ
_TEXT	SEGMENT
_Item$508978 = -72					; size = 56
$T515320 = -16						; size = 4
_i$508968 = -16						; size = 4
__$EHRec$ = -12						; size = 12
?InitInvenBlockItem@ioGuildBlockStorage@@MAEXXZ PROC	; ioGuildBlockStorage::InitInvenBlockItem, COMDAT
; _this$ = ecx

; 212  : {

  00000	6a 3c		 push	 60			; 0000003cH
  00002	b8 00 00 00 00	 mov	 eax, __ehhandler$?InitInvenBlockItem@ioGuildBlockStorage@@MAEXXZ
  00007	e8 00 00 00 00	 call	 __EH_prolog3

; 213  : 	m_InvenBlockItemList.clear();

  0000c	8d 59 14	 lea	 ebx, DWORD PTR [ecx+20]
  0000f	8b 43 04	 mov	 eax, DWORD PTR [ebx+4]
  00012	8b 0b		 mov	 ecx, DWORD PTR [ebx]
  00014	50		 push	 eax
  00015	51		 push	 ecx
  00016	8d 45 f0	 lea	 eax, DWORD PTR $T515320[ebp]
  00019	50		 push	 eax
  0001a	8b cb		 mov	 ecx, ebx
  0001c	e8 00 00 00 00	 call	 ?erase@?$vector@UInvenBlockItem@ioUserBlockStorage@@V?$allocator@UInvenBlockItem@ioUserBlockStorage@@@std@@@std@@QAE?AV?$_Vector_iterator@V?$_Vector_val@UInvenBlockItem@ioUserBlockStorage@@V?$allocator@UInvenBlockItem@ioUserBlockStorage@@@std@@@std@@@2@V?$_Vector_const_iterator@V?$_Vector_val@UInvenBlockItem@ioUserBlockStorage@@V?$allocator@UInvenBlockItem@ioUserBlockStorage@@@std@@@std@@@2@0@Z ; std::vector<ioUserBlockStorage::InvenBlockItem,std::allocator<ioUserBlockStorage::InvenBlockItem> >::erase

; 214  : 
; 215  : 	for( int i = ioEtcItem::EIT_ETC_GUILD_HOUSING_BLOCK_0001; i <= ioEtcItem::EIT_ETC_GUILD_HOUSING_BLOCK_1000; ++i  )

  00021	c7 45 f0 d1 5b
	0f 00		 mov	 DWORD PTR _i$508968[ebp], 1006545 ; 000f5bd1H
$LL5@InitInvenB:

; 216  : 	{
; 217  : 		ioEtcItemHousingBlockItem* pItem = dynamic_cast<ioEtcItemHousingBlockItem*>( g_EtcItemMgr.FindEtcItem( i ) );

  00028	8b 0d 00 00 00
	00		 mov	 ecx, DWORD PTR ?ms_Singleton@?$Singleton@VioEtcItemManager@@@@1PAVioEtcItemManager@@A ; Singleton<ioEtcItemManager>::ms_Singleton
  0002e	6a 00		 push	 0
  00030	68 00 00 00 00	 push	 OFFSET ??_R0?AVioEtcItemHousingBlockItem@@@8
  00035	68 00 00 00 00	 push	 OFFSET ??_R0?AVioEtcItem@@@8
  0003a	6a 00		 push	 0
  0003c	ff 75 f0	 push	 DWORD PTR _i$508968[ebp]
  0003f	e8 00 00 00 00	 call	 ?FindEtcItem@ioEtcItemManager@@QAEPAVioEtcItem@@K@Z ; ioEtcItemManager::FindEtcItem
  00044	50		 push	 eax
  00045	e8 00 00 00 00	 call	 ___RTDynamicCast
  0004a	8b f0		 mov	 esi, eax
  0004c	83 c4 14	 add	 esp, 20			; 00000014H

; 218  : 		if( pItem )

  0004f	85 f6		 test	 esi, esi
  00051	0f 84 82 00 00
	00		 je	 $LN4@InitInvenB

; 219  : 		{			
; 220  : 			const ioBlockProperty* pProperty = g_BlockManager.GetBlockTemplete( pItem->GetBlockCode() );

  00057	8b 06		 mov	 eax, DWORD PTR [esi]
  00059	8b ce		 mov	 ecx, esi
  0005b	ff 50 44	 call	 DWORD PTR [eax+68]
  0005e	50		 push	 eax
  0005f	e8 00 00 00 00	 call	 ?GetSingleton@ioBlockManager@@SAAAV1@XZ ; ioBlockManager::GetSingleton
  00064	8b c8		 mov	 ecx, eax
  00066	e8 00 00 00 00	 call	 ?GetBlockTemplete@ioBlockManager@@QAEPBVioBlockProperty@@H@Z ; ioBlockManager::GetBlockTemplete
  0006b	8b f8		 mov	 edi, eax

; 221  : 			if( pProperty )

  0006d	85 ff		 test	 edi, edi
  0006f	74 68		 je	 SHORT $LN4@InitInvenB

; 222  : 			{
; 223  : 				InvenBlockItem Item;

  00071	8d 4d b8	 lea	 ecx, DWORD PTR _Item$508978[ebp]
  00074	e8 00 00 00 00	 call	 ??0InvenBlockItem@ioUserBlockStorage@@QAE@XZ ; ioUserBlockStorage::InvenBlockItem::InvenBlockItem

; 224  : 				Item.m_nBlockCode		= pItem->GetBlockCode();

  00079	8b 06		 mov	 eax, DWORD PTR [esi]
  0007b	83 65 fc 00	 and	 DWORD PTR __$EHRec$[ebp+8], 0
  0007f	8b ce		 mov	 ecx, esi
  00081	ff 50 44	 call	 DWORD PTR [eax+68]
  00084	89 45 d8	 mov	 DWORD PTR _Item$508978[ebp+32], eax

; 225  : 				Item.m_nOrder			= pProperty->GetOrder();

  00087	8b 47 08	 mov	 eax, DWORD PTR [edi+8]
  0008a	89 45 dc	 mov	 DWORD PTR _Item$508978[ebp+36], eax

; 226  : 				Item.m_nEtcCode			= pItem->GetType();

  0008d	8b 06		 mov	 eax, DWORD PTR [esi]
  0008f	8b ce		 mov	 ecx, esi
  00091	ff 50 40	 call	 DWORD PTR [eax+64]
  00094	89 45 e0	 mov	 DWORD PTR _Item$508978[ebp+40], eax

; 227  : 				Item.m_szName			= pProperty->GetName();

  00097	8d 47 24	 lea	 eax, DWORD PTR [edi+36]
  0009a	50		 push	 eax
  0009b	8d 4d b8	 lea	 ecx, DWORD PTR _Item$508978[ebp]
  0009e	ff 15 00 00 00
	00		 call	 DWORD PTR __imp_??4ioHashString@@QAEAAV0@ABV0@@Z

; 228  : 				Item.m_szIcon			= pProperty->GetIconName();

  000a4	8d 47 44	 lea	 eax, DWORD PTR [edi+68]
  000a7	50		 push	 eax
  000a8	8d 4d c8	 lea	 ecx, DWORD PTR _Item$508978[ebp+16]
  000ab	ff 15 00 00 00
	00		 call	 DWORD PTR __imp_??4ioHashString@@QAEAAV0@ABV0@@Z

; 229  : 				Item.m_nCount			= 0;
; 230  : 				Item.m_nManualIdx		= pItem->GetInventoryManual() - 1;
; 231  : 				Item.m_nItemCategory	= pProperty->GetItemCategory();

  000b1	8b 47 10	 mov	 eax, DWORD PTR [edi+16]
  000b4	8b 76 48	 mov	 esi, DWORD PTR [esi+72]
  000b7	83 65 e8 00	 and	 DWORD PTR _Item$508978[ebp+48], 0
  000bb	89 45 ec	 mov	 DWORD PTR _Item$508978[ebp+52], eax

; 232  : 				m_InvenBlockItemList.push_back( Item );

  000be	8d 45 b8	 lea	 eax, DWORD PTR _Item$508978[ebp]
  000c1	4e		 dec	 esi
  000c2	50		 push	 eax
  000c3	8b cb		 mov	 ecx, ebx
  000c5	89 75 e4	 mov	 DWORD PTR _Item$508978[ebp+44], esi
  000c8	e8 00 00 00 00	 call	 ?push_back@?$vector@UInvenBlockItem@ioUserBlockStorage@@V?$allocator@UInvenBlockItem@ioUserBlockStorage@@@std@@@std@@QAEXABUInvenBlockItem@ioUserBlockStorage@@@Z ; std::vector<ioUserBlockStorage::InvenBlockItem,std::allocator<ioUserBlockStorage::InvenBlockItem> >::push_back

; 233  : 			}

  000cd	83 4d fc ff	 or	 DWORD PTR __$EHRec$[ebp+8], -1
  000d1	8d 4d b8	 lea	 ecx, DWORD PTR _Item$508978[ebp]
  000d4	e8 00 00 00 00	 call	 ??1InvenBlockItem@ioUserBlockStorage@@QAE@XZ
$LN4@InitInvenB:

; 214  : 
; 215  : 	for( int i = ioEtcItem::EIT_ETC_GUILD_HOUSING_BLOCK_0001; i <= ioEtcItem::EIT_ETC_GUILD_HOUSING_BLOCK_1000; ++i  )

  000d9	ff 45 f0	 inc	 DWORD PTR _i$508968[ebp]
  000dc	81 7d f0 b8 5f
	0f 00		 cmp	 DWORD PTR _i$508968[ebp], 1007544 ; 000f5fb8H
  000e3	0f 8e 3f ff ff
	ff		 jle	 $LL5@InitInvenB

; 234  : 		}
; 235  : 	}
; 236  : }

  000e9	e8 00 00 00 00	 call	 __EH_epilog3
  000ee	c3		 ret	 0
_TEXT	ENDS
;	COMDAT text$x
text$x	SEGMENT
__unwindfunclet$?InitInvenBlockItem@ioGuildBlockStorage@@MAEXXZ$0:
  00000	8d 4d b8	 lea	 ecx, DWORD PTR _Item$508978[ebp]
  00003	e9 00 00 00 00	 jmp	 ??1InvenBlockItem@ioUserBlockStorage@@QAE@XZ
__ehhandler$?InitInvenBlockItem@ioGuildBlockStorage@@MAEXXZ:
  00008	8b 54 24 08	 mov	 edx, DWORD PTR [esp+8]
  0000c	8d 42 0c	 lea	 eax, DWORD PTR [edx+12]
  0000f	8b 4a b4	 mov	 ecx, DWORD PTR [edx-76]
  00012	33 c8		 xor	 ecx, eax
  00014	e8 00 00 00 00	 call	 @__security_check_cookie@4
  00019	b8 00 00 00 00	 mov	 eax, OFFSET __ehfuncinfo$?InitInvenBlockItem@ioGuildBlockStorage@@MAEXXZ
  0001e	e9 00 00 00 00	 jmp	 ___CxxFrameHandler3
text$x	ENDS
?InitInvenBlockItem@ioGuildBlockStorage@@MAEXXZ ENDP	; ioGuildBlockStorage::InitInvenBlockItem
PUBLIC	??_C@_0CJ@INGDOIJO@?$FLConsecutive?5Data?$FN?5?9?5Apply?5DB?5Bl@ ; `string'
PUBLIC	??_C@_0CG@OMIOGPPB@?$FLComplete?5Data?$FN?5?9?5Apply?5DB?5Block@ ; `string'
PUBLIC	?ApplyBlcokDBItem@ioGuildBlockStorage@@QAEXAAVSP2Packet@@@Z ; ioGuildBlockStorage::ApplyBlcokDBItem
EXTRN	?SetTileMax@ioBlockDBItem@@QAEXH@Z:PROC		; ioBlockDBItem::SetTileMax
EXTRN	?ApplyItem@ioBlockDBItem@@QAEXAAVSP2Packet@@@Z:PROC ; ioBlockDBItem::ApplyItem
EXTRN	??0ioBlockDBItem@@QAE@XZ:PROC			; ioBlockDBItem::ioBlockDBItem
EXTRN	__imp_?PrintTimeAndLog@CLog@@QAAXHPADZZ:PROC
EXTRN	__imp_?LOG@@3VCLog@@A:BYTE
EXTRN	??5SP2Packet@@QAEAAV0@AAH@Z:PROC		; SP2Packet::operator>>
EXTRN	??5SP2Packet@@QAEAAV0@AA_N@Z:PROC		; SP2Packet::operator>>
;	COMDAT ??_C@_0CJ@INGDOIJO@?$FLConsecutive?5Data?$FN?5?9?5Apply?5DB?5Bl@
CONST	SEGMENT
??_C@_0CJ@INGDOIJO@?$FLConsecutive?5Data?$FN?5?9?5Apply?5DB?5Bl@ DB '[Con'
	DB	'secutive Data] - Apply DB Block : %d', 00H	; `string'
CONST	ENDS
;	COMDAT ??_C@_0CG@OMIOGPPB@?$FLComplete?5Data?$FN?5?9?5Apply?5DB?5Block@
CONST	SEGMENT
??_C@_0CG@OMIOGPPB@?$FLComplete?5Data?$FN?5?9?5Apply?5DB?5Block@ DB '[Com'
	DB	'plete Data] - Apply DB Block : %d', 00H	; `string'
CONST	ENDS
;	COMDAT xdata$x
xdata$x	SEGMENT
__unwindtable$?ApplyBlcokDBItem@ioGuildBlockStorage@@QAEXAAVSP2Packet@@@Z DD 0ffffffffH
	DD	FLAT:__unwindfunclet$?ApplyBlcokDBItem@ioGuildBlockStorage@@QAEXAAVSP2Packet@@@Z$0
__ehfuncinfo$?ApplyBlcokDBItem@ioGuildBlockStorage@@QAEXAAVSP2Packet@@@Z DD 019930522H
	DD	01H
	DD	FLAT:__unwindtable$?ApplyBlcokDBItem@ioGuildBlockStorage@@QAEXAAVSP2Packet@@@Z
	DD	2 DUP(00H)
	DD	2 DUP(00H)
	DD	00H
	DD	01H
; Function compile flags: /Ogsp
xdata$x	ENDS
;	COMDAT ?ApplyBlcokDBItem@ioGuildBlockStorage@@QAEXAAVSP2Packet@@@Z
_TEXT	SEGMENT
_Item$509013 = -60					; size = 40
_nCount$ = -20						; size = 4
_bConsecutivePacket$ = -13				; size = 1
__$EHRec$ = -12						; size = 12
_rkPacket$ = 8						; size = 4
?ApplyBlcokDBItem@ioGuildBlockStorage@@QAEXAAVSP2Packet@@@Z PROC ; ioGuildBlockStorage::ApplyBlcokDBItem, COMDAT
; _this$ = ecx

; 272  : {

  00000	6a 30		 push	 48			; 00000030H
  00002	b8 00 00 00 00	 mov	 eax, __ehhandler$?ApplyBlcokDBItem@ioGuildBlockStorage@@QAEXAAVSP2Packet@@@Z
  00007	e8 00 00 00 00	 call	 __EH_prolog3
  0000c	8b f9		 mov	 edi, ecx

; 273  : 	int nCount;
; 274  : 	bool bConsecutivePacket;
; 275  : 	rkPacket >> bConsecutivePacket >> nCount;

  0000e	8b 4d 08	 mov	 ecx, DWORD PTR _rkPacket$[ebp]
  00011	8d 45 ec	 lea	 eax, DWORD PTR _nCount$[ebp]
  00014	50		 push	 eax
  00015	8d 45 f3	 lea	 eax, DWORD PTR _bConsecutivePacket$[ebp]
  00018	50		 push	 eax
  00019	e8 00 00 00 00	 call	 ??5SP2Packet@@QAEAAV0@AA_N@Z ; SP2Packet::operator>>
  0001e	8b c8		 mov	 ecx, eax
  00020	e8 00 00 00 00	 call	 ??5SP2Packet@@QAEAAV0@AAH@Z ; SP2Packet::operator>>

; 276  : 
; 277  : 	if( bConsecutivePacket )
; 278  : 		LOG.PrintTimeAndLog(0, "[Complete Data] - Apply DB Block : %d", nCount );

  00025	ff 75 ec	 push	 DWORD PTR _nCount$[ebp]
  00028	33 db		 xor	 ebx, ebx
  0002a	38 5d f3	 cmp	 BYTE PTR _bConsecutivePacket$[ebp], bl
  0002d	74 07		 je	 SHORT $LN5@ApplyBlcok
  0002f	68 00 00 00 00	 push	 OFFSET ??_C@_0CG@OMIOGPPB@?$FLComplete?5Data?$FN?5?9?5Apply?5DB?5Block@

; 279  : 	else

  00034	eb 05		 jmp	 SHORT $LN12@ApplyBlcok
$LN5@ApplyBlcok:

; 280  : 		LOG.PrintTimeAndLog(0, "[Consecutive Data] - Apply DB Block : %d", nCount );

  00036	68 00 00 00 00	 push	 OFFSET ??_C@_0CJ@INGDOIJO@?$FLConsecutive?5Data?$FN?5?9?5Apply?5DB?5Bl@
$LN12@ApplyBlcok:
  0003b	53		 push	 ebx
  0003c	ff 35 00 00 00
	00		 push	 DWORD PTR __imp_?LOG@@3VCLog@@A
  00042	ff 15 00 00 00
	00		 call	 DWORD PTR __imp_?PrintTimeAndLog@CLog@@QAAXHPADZZ
  00048	83 c4 10	 add	 esp, 16			; 00000010H

; 281  : 
; 282  : 	for( int nBlock = 0; nBlock < nCount; ++nBlock )

  0004b	33 f6		 xor	 esi, esi
  0004d	39 5d ec	 cmp	 DWORD PTR _nCount$[ebp], ebx
  00050	7e 3e		 jle	 SHORT $LN1@ApplyBlcok
$LL3@ApplyBlcok:

; 283  : 	{
; 284  : 		ioBlockDBItem Item;

  00052	8d 4d c4	 lea	 ecx, DWORD PTR _Item$509013[ebp]
  00055	e8 00 00 00 00	 call	 ??0ioBlockDBItem@@QAE@XZ ; ioBlockDBItem::ioBlockDBItem

; 285  : 		Item.ApplyItem( rkPacket );

  0005a	ff 75 08	 push	 DWORD PTR _rkPacket$[ebp]
  0005d	8d 4d c4	 lea	 ecx, DWORD PTR _Item$509013[ebp]
  00060	89 5d fc	 mov	 DWORD PTR __$EHRec$[ebp+8], ebx
  00063	e8 00 00 00 00	 call	 ?ApplyItem@ioBlockDBItem@@QAEXAAVSP2Packet@@@Z ; ioBlockDBItem::ApplyItem

; 286  : 		Item.SetTileMax( TILE_MAX_GUILD );

  00068	6a 40		 push	 64			; 00000040H
  0006a	8d 4d c4	 lea	 ecx, DWORD PTR _Item$509013[ebp]
  0006d	e8 00 00 00 00	 call	 ?SetTileMax@ioBlockDBItem@@QAEXH@Z ; ioBlockDBItem::SetTileMax

; 287  : 		m_ioBlockDBItemContainer.ItemList.push_back( Item );

  00072	8d 45 c4	 lea	 eax, DWORD PTR _Item$509013[ebp]
  00075	50		 push	 eax
  00076	8d 4f 04	 lea	 ecx, DWORD PTR [edi+4]
  00079	e8 00 00 00 00	 call	 ?push_back@?$vector@VioBlockDBItem@@V?$allocator@VioBlockDBItem@@@std@@@std@@QAEXABVioBlockDBItem@@@Z ; std::vector<ioBlockDBItem,std::allocator<ioBlockDBItem> >::push_back

; 288  : 	}

  0007e	83 4d fc ff	 or	 DWORD PTR __$EHRec$[ebp+8], -1
  00082	8d 4d c4	 lea	 ecx, DWORD PTR _Item$509013[ebp]
  00085	e8 00 00 00 00	 call	 ??1ioBlockDBItem@@UAE@XZ ; ioBlockDBItem::~ioBlockDBItem
  0008a	46		 inc	 esi
  0008b	3b 75 ec	 cmp	 esi, DWORD PTR _nCount$[ebp]
  0008e	7c c2		 jl	 SHORT $LL3@ApplyBlcok
$LN1@ApplyBlcok:

; 289  : }

  00090	e8 00 00 00 00	 call	 __EH_epilog3
  00095	c2 04 00	 ret	 4
_TEXT	ENDS
;	COMDAT text$x
text$x	SEGMENT
__unwindfunclet$?ApplyBlcokDBItem@ioGuildBlockStorage@@QAEXAAVSP2Packet@@@Z$0:
  00000	8d 4d c4	 lea	 ecx, DWORD PTR _Item$509013[ebp]
  00003	e9 00 00 00 00	 jmp	 ??1ioBlockDBItem@@UAE@XZ ; ioBlockDBItem::~ioBlockDBItem
__ehhandler$?ApplyBlcokDBItem@ioGuildBlockStorage@@QAEXAAVSP2Packet@@@Z:
  00008	8b 54 24 08	 mov	 edx, DWORD PTR [esp+8]
  0000c	8d 42 0c	 lea	 eax, DWORD PTR [edx+12]
  0000f	8b 4a c0	 mov	 ecx, DWORD PTR [edx-64]
  00012	33 c8		 xor	 ecx, eax
  00014	e8 00 00 00 00	 call	 @__security_check_cookie@4
  00019	b8 00 00 00 00	 mov	 eax, OFFSET __ehfuncinfo$?ApplyBlcokDBItem@ioGuildBlockStorage@@QAEXAAVSP2Packet@@@Z
  0001e	e9 00 00 00 00	 jmp	 ___CxxFrameHandler3
text$x	ENDS
?ApplyBlcokDBItem@ioGuildBlockStorage@@QAEXAAVSP2Packet@@@Z ENDP ; ioGuildBlockStorage::ApplyBlcokDBItem
PUBLIC	??0ioHomeBlockStorage@@QAE@XZ			; ioHomeBlockStorage::ioHomeBlockStorage
; Function compile flags: /Ogsp
;	COMDAT ??0ioHomeBlockStorage@@QAE@XZ
_TEXT	SEGMENT
??0ioHomeBlockStorage@@QAE@XZ PROC			; ioHomeBlockStorage::ioHomeBlockStorage, COMDAT
; _this$ = ecx

; 346  : {

  00000	8b d1		 mov	 edx, ecx
  00002	e8 00 00 00 00	 call	 ??0ioUserBlockStorage@@QAE@XZ ; ioUserBlockStorage::ioUserBlockStorage
  00007	c7 02 00 00 00
	00		 mov	 DWORD PTR [edx], OFFSET ??_7ioHomeBlockStorage@@6B@

; 347  : 
; 348  : }

  0000d	8b c2		 mov	 eax, edx
  0000f	c3		 ret	 0
??0ioHomeBlockStorage@@QAE@XZ ENDP			; ioHomeBlockStorage::ioHomeBlockStorage
; Function compile flags: /Ogsp
_TEXT	ENDS
;	COMDAT ??_GioHomeBlockStorage@@UAEPAXI@Z
_TEXT	SEGMENT
___flags$ = 8						; size = 4
??_GioHomeBlockStorage@@UAEPAXI@Z PROC			; ioHomeBlockStorage::`scalar deleting destructor', COMDAT
; _this$ = ecx
  00000	55		 push	 ebp
  00001	8b ec		 mov	 ebp, esp
  00003	56		 push	 esi
  00004	8b f1		 mov	 esi, ecx
  00006	c7 06 00 00 00
	00		 mov	 DWORD PTR [esi], OFFSET ??_7ioHomeBlockStorage@@6B@
  0000c	e8 00 00 00 00	 call	 ??1ioUserBlockStorage@@UAE@XZ ; ioUserBlockStorage::~ioUserBlockStorage
  00011	f6 45 08 01	 test	 BYTE PTR ___flags$[ebp], 1
  00015	74 07		 je	 SHORT $LN1@scalar@6
  00017	56		 push	 esi
  00018	e8 00 00 00 00	 call	 ??3@YAXPAX@Z		; operator delete
  0001d	59		 pop	 ecx
$LN1@scalar@6:
  0001e	8b c6		 mov	 eax, esi
  00020	5e		 pop	 esi
  00021	5d		 pop	 ebp
  00022	c2 04 00	 ret	 4
??_GioHomeBlockStorage@@UAEPAXI@Z ENDP			; ioHomeBlockStorage::`scalar deleting destructor'
_TEXT	ENDS
;	COMDAT xdata$x
; File d:\lost saga for developer\youtube\tutorial\source\src\lsclient\housing\ioblockproperty.h
xdata$x	SEGMENT
__unwindtable$?InitInvenBlockItem@ioHomeBlockStorage@@MAEXXZ DD 0ffffffffH
	DD	FLAT:__unwindfunclet$?InitInvenBlockItem@ioHomeBlockStorage@@MAEXXZ$0
__ehfuncinfo$?InitInvenBlockItem@ioHomeBlockStorage@@MAEXXZ DD 019930522H
	DD	01H
	DD	FLAT:__unwindtable$?InitInvenBlockItem@ioHomeBlockStorage@@MAEXXZ
	DD	2 DUP(00H)
	DD	2 DUP(00H)
	DD	00H
	DD	01H
; Function compile flags: /Ogsp
; File d:\lost saga for developer\youtube\tutorial\source\src\lsclient\housing\iouserblockstorage.cpp
xdata$x	ENDS
;	COMDAT ?InitInvenBlockItem@ioHomeBlockStorage@@MAEXXZ
_TEXT	SEGMENT
_Item$509062 = -72					; size = 56
$T515456 = -16						; size = 4
_i$509053 = -16						; size = 4
__$EHRec$ = -12						; size = 12
?InitInvenBlockItem@ioHomeBlockStorage@@MAEXXZ PROC	; ioHomeBlockStorage::InitInvenBlockItem, COMDAT
; _this$ = ecx

; 361  : {

  00000	6a 3c		 push	 60			; 0000003cH
  00002	b8 00 00 00 00	 mov	 eax, __ehhandler$?InitInvenBlockItem@ioHomeBlockStorage@@MAEXXZ
  00007	e8 00 00 00 00	 call	 __EH_prolog3

; 362  : 	m_InvenBlockItemList.clear();

  0000c	8d 59 14	 lea	 ebx, DWORD PTR [ecx+20]
  0000f	8b 43 04	 mov	 eax, DWORD PTR [ebx+4]
  00012	8b 0b		 mov	 ecx, DWORD PTR [ebx]
  00014	50		 push	 eax
  00015	51		 push	 ecx
  00016	8d 45 f0	 lea	 eax, DWORD PTR $T515456[ebp]
  00019	50		 push	 eax
  0001a	8b cb		 mov	 ecx, ebx
  0001c	e8 00 00 00 00	 call	 ?erase@?$vector@UInvenBlockItem@ioUserBlockStorage@@V?$allocator@UInvenBlockItem@ioUserBlockStorage@@@std@@@std@@QAE?AV?$_Vector_iterator@V?$_Vector_val@UInvenBlockItem@ioUserBlockStorage@@V?$allocator@UInvenBlockItem@ioUserBlockStorage@@@std@@@std@@@2@V?$_Vector_const_iterator@V?$_Vector_val@UInvenBlockItem@ioUserBlockStorage@@V?$allocator@UInvenBlockItem@ioUserBlockStorage@@@std@@@std@@@2@0@Z ; std::vector<ioUserBlockStorage::InvenBlockItem,std::allocator<ioUserBlockStorage::InvenBlockItem> >::erase

; 363  : 
; 364  : 	for( int i = ioEtcItem::EIT_ETC_HOME_HOUSING_BLOCK_0001; i <= ioEtcItem::EIT_ETC_HOME_HOUSING_BLOCK_1000; ++i  )

  00021	c7 45 f0 ba 5f
	0f 00		 mov	 DWORD PTR _i$509053[ebp], 1007546 ; 000f5fbaH
$LL5@InitInvenB@2:

; 365  : 	{
; 366  : 		ioEtcItemHousingBlockItem* pItem = dynamic_cast<ioEtcItemHousingBlockItem*>( g_EtcItemMgr.FindEtcItem( i ) );

  00028	8b 0d 00 00 00
	00		 mov	 ecx, DWORD PTR ?ms_Singleton@?$Singleton@VioEtcItemManager@@@@1PAVioEtcItemManager@@A ; Singleton<ioEtcItemManager>::ms_Singleton
  0002e	6a 00		 push	 0
  00030	68 00 00 00 00	 push	 OFFSET ??_R0?AVioEtcItemHousingBlockItem@@@8
  00035	68 00 00 00 00	 push	 OFFSET ??_R0?AVioEtcItem@@@8
  0003a	6a 00		 push	 0
  0003c	ff 75 f0	 push	 DWORD PTR _i$509053[ebp]
  0003f	e8 00 00 00 00	 call	 ?FindEtcItem@ioEtcItemManager@@QAEPAVioEtcItem@@K@Z ; ioEtcItemManager::FindEtcItem
  00044	50		 push	 eax
  00045	e8 00 00 00 00	 call	 ___RTDynamicCast
  0004a	8b f0		 mov	 esi, eax
  0004c	83 c4 14	 add	 esp, 20			; 00000014H

; 367  : 		if( pItem )

  0004f	85 f6		 test	 esi, esi
  00051	0f 84 82 00 00
	00		 je	 $LN4@InitInvenB@2

; 368  : 		{
; 369  : 			const ioBlockProperty* pProperty = g_BlockManager.GetBlockTemplete( pItem->GetBlockCode() );

  00057	8b 06		 mov	 eax, DWORD PTR [esi]
  00059	8b ce		 mov	 ecx, esi
  0005b	ff 50 44	 call	 DWORD PTR [eax+68]
  0005e	50		 push	 eax
  0005f	e8 00 00 00 00	 call	 ?GetSingleton@ioBlockManager@@SAAAV1@XZ ; ioBlockManager::GetSingleton
  00064	8b c8		 mov	 ecx, eax
  00066	e8 00 00 00 00	 call	 ?GetBlockTemplete@ioBlockManager@@QAEPBVioBlockProperty@@H@Z ; ioBlockManager::GetBlockTemplete
  0006b	8b f8		 mov	 edi, eax

; 370  : 			if( pProperty )

  0006d	85 ff		 test	 edi, edi
  0006f	74 68		 je	 SHORT $LN4@InitInvenB@2

; 371  : 			{
; 372  : 				InvenBlockItem Item;

  00071	8d 4d b8	 lea	 ecx, DWORD PTR _Item$509062[ebp]
  00074	e8 00 00 00 00	 call	 ??0InvenBlockItem@ioUserBlockStorage@@QAE@XZ ; ioUserBlockStorage::InvenBlockItem::InvenBlockItem

; 373  : 				Item.m_nBlockCode		= pItem->GetBlockCode();

  00079	8b 06		 mov	 eax, DWORD PTR [esi]
  0007b	83 65 fc 00	 and	 DWORD PTR __$EHRec$[ebp+8], 0
  0007f	8b ce		 mov	 ecx, esi
  00081	ff 50 44	 call	 DWORD PTR [eax+68]
  00084	89 45 d8	 mov	 DWORD PTR _Item$509062[ebp+32], eax

; 374  : 				Item.m_nOrder			= pProperty->GetOrder();

  00087	8b 47 08	 mov	 eax, DWORD PTR [edi+8]
  0008a	89 45 dc	 mov	 DWORD PTR _Item$509062[ebp+36], eax

; 375  : 				Item.m_nEtcCode			= pItem->GetType();

  0008d	8b 06		 mov	 eax, DWORD PTR [esi]
  0008f	8b ce		 mov	 ecx, esi
  00091	ff 50 40	 call	 DWORD PTR [eax+64]
  00094	89 45 e0	 mov	 DWORD PTR _Item$509062[ebp+40], eax

; 376  : 				Item.m_szName			= pProperty->GetName();

  00097	8d 47 24	 lea	 eax, DWORD PTR [edi+36]
  0009a	50		 push	 eax
  0009b	8d 4d b8	 lea	 ecx, DWORD PTR _Item$509062[ebp]
  0009e	ff 15 00 00 00
	00		 call	 DWORD PTR __imp_??4ioHashString@@QAEAAV0@ABV0@@Z

; 377  : 				Item.m_szIcon			= pProperty->GetIconName();

  000a4	8d 47 44	 lea	 eax, DWORD PTR [edi+68]
  000a7	50		 push	 eax
  000a8	8d 4d c8	 lea	 ecx, DWORD PTR _Item$509062[ebp+16]
  000ab	ff 15 00 00 00
	00		 call	 DWORD PTR __imp_??4ioHashString@@QAEAAV0@ABV0@@Z

; 378  : 				Item.m_nCount			= 0;
; 379  : 				Item.m_nManualIdx		= pItem->GetInventoryManual() - 1;
; 380  : 				Item.m_nItemCategory	= pProperty->GetItemCategory();

  000b1	8b 47 10	 mov	 eax, DWORD PTR [edi+16]
  000b4	8b 76 48	 mov	 esi, DWORD PTR [esi+72]
  000b7	83 65 e8 00	 and	 DWORD PTR _Item$509062[ebp+48], 0
  000bb	89 45 ec	 mov	 DWORD PTR _Item$509062[ebp+52], eax

; 381  : 				m_InvenBlockItemList.push_back( Item );

  000be	8d 45 b8	 lea	 eax, DWORD PTR _Item$509062[ebp]
  000c1	4e		 dec	 esi
  000c2	50		 push	 eax
  000c3	8b cb		 mov	 ecx, ebx
  000c5	89 75 e4	 mov	 DWORD PTR _Item$509062[ebp+44], esi
  000c8	e8 00 00 00 00	 call	 ?push_back@?$vector@UInvenBlockItem@ioUserBlockStorage@@V?$allocator@UInvenBlockItem@ioUserBlockStorage@@@std@@@std@@QAEXABUInvenBlockItem@ioUserBlockStorage@@@Z ; std::vector<ioUserBlockStorage::InvenBlockItem,std::allocator<ioUserBlockStorage::InvenBlockItem> >::push_back

; 382  : 			}

  000cd	83 4d fc ff	 or	 DWORD PTR __$EHRec$[ebp+8], -1
  000d1	8d 4d b8	 lea	 ecx, DWORD PTR _Item$509062[ebp]
  000d4	e8 00 00 00 00	 call	 ??1InvenBlockItem@ioUserBlockStorage@@QAE@XZ
$LN4@InitInvenB@2:

; 363  : 
; 364  : 	for( int i = ioEtcItem::EIT_ETC_HOME_HOUSING_BLOCK_0001; i <= ioEtcItem::EIT_ETC_HOME_HOUSING_BLOCK_1000; ++i  )

  000d9	ff 45 f0	 inc	 DWORD PTR _i$509053[ebp]
  000dc	81 7d f0 a1 63
	0f 00		 cmp	 DWORD PTR _i$509053[ebp], 1008545 ; 000f63a1H
  000e3	0f 8e 3f ff ff
	ff		 jle	 $LL5@InitInvenB@2

; 383  : 		}
; 384  : 	}
; 385  : }

  000e9	e8 00 00 00 00	 call	 __EH_epilog3
  000ee	c3		 ret	 0
_TEXT	ENDS
;	COMDAT text$x
text$x	SEGMENT
__unwindfunclet$?InitInvenBlockItem@ioHomeBlockStorage@@MAEXXZ$0:
  00000	8d 4d b8	 lea	 ecx, DWORD PTR _Item$509062[ebp]
  00003	e9 00 00 00 00	 jmp	 ??1InvenBlockItem@ioUserBlockStorage@@QAE@XZ
__ehhandler$?InitInvenBlockItem@ioHomeBlockStorage@@MAEXXZ:
  00008	8b 54 24 08	 mov	 edx, DWORD PTR [esp+8]
  0000c	8d 42 0c	 lea	 eax, DWORD PTR [edx+12]
  0000f	8b 4a b4	 mov	 ecx, DWORD PTR [edx-76]
  00012	33 c8		 xor	 ecx, eax
  00014	e8 00 00 00 00	 call	 @__security_check_cookie@4
  00019	b8 00 00 00 00	 mov	 eax, OFFSET __ehfuncinfo$?InitInvenBlockItem@ioHomeBlockStorage@@MAEXXZ
  0001e	e9 00 00 00 00	 jmp	 ___CxxFrameHandler3
text$x	ENDS
?InitInvenBlockItem@ioHomeBlockStorage@@MAEXXZ ENDP	; ioHomeBlockStorage::InitInvenBlockItem
PUBLIC	?ApplyBlcokDBItem@ioHomeBlockStorage@@QAEXAAVSP2Packet@@@Z ; ioHomeBlockStorage::ApplyBlcokDBItem
;	COMDAT xdata$x
xdata$x	SEGMENT
__unwindtable$?ApplyBlcokDBItem@ioHomeBlockStorage@@QAEXAAVSP2Packet@@@Z DD 0ffffffffH
	DD	FLAT:__unwindfunclet$?ApplyBlcokDBItem@ioHomeBlockStorage@@QAEXAAVSP2Packet@@@Z$0
__ehfuncinfo$?ApplyBlcokDBItem@ioHomeBlockStorage@@QAEXAAVSP2Packet@@@Z DD 019930522H
	DD	01H
	DD	FLAT:__unwindtable$?ApplyBlcokDBItem@ioHomeBlockStorage@@QAEXAAVSP2Packet@@@Z
	DD	2 DUP(00H)
	DD	2 DUP(00H)
	DD	00H
	DD	01H
; Function compile flags: /Ogsp
xdata$x	ENDS
;	COMDAT ?ApplyBlcokDBItem@ioHomeBlockStorage@@QAEXAAVSP2Packet@@@Z
_TEXT	SEGMENT
_Item$509093 = -60					; size = 40
_nCount$ = -20						; size = 4
_bConsecutivePacket$ = -13				; size = 1
__$EHRec$ = -12						; size = 12
_rkPacket$ = 8						; size = 4
?ApplyBlcokDBItem@ioHomeBlockStorage@@QAEXAAVSP2Packet@@@Z PROC ; ioHomeBlockStorage::ApplyBlcokDBItem, COMDAT
; _this$ = ecx

; 420  : {	

  00000	6a 30		 push	 48			; 00000030H
  00002	b8 00 00 00 00	 mov	 eax, __ehhandler$?ApplyBlcokDBItem@ioHomeBlockStorage@@QAEXAAVSP2Packet@@@Z
  00007	e8 00 00 00 00	 call	 __EH_prolog3
  0000c	8b f9		 mov	 edi, ecx

; 421  : 	int nCount;
; 422  : 	bool bConsecutivePacket;
; 423  : 	rkPacket >> bConsecutivePacket >> nCount;

  0000e	8b 4d 08	 mov	 ecx, DWORD PTR _rkPacket$[ebp]
  00011	8d 45 ec	 lea	 eax, DWORD PTR _nCount$[ebp]
  00014	50		 push	 eax
  00015	8d 45 f3	 lea	 eax, DWORD PTR _bConsecutivePacket$[ebp]
  00018	50		 push	 eax
  00019	e8 00 00 00 00	 call	 ??5SP2Packet@@QAEAAV0@AA_N@Z ; SP2Packet::operator>>
  0001e	8b c8		 mov	 ecx, eax
  00020	e8 00 00 00 00	 call	 ??5SP2Packet@@QAEAAV0@AAH@Z ; SP2Packet::operator>>

; 424  : 
; 425  : 	if( bConsecutivePacket )
; 426  : 		LOG.PrintTimeAndLog(0, "[Complete Data] - Apply DB Block : %d", nCount );

  00025	ff 75 ec	 push	 DWORD PTR _nCount$[ebp]
  00028	33 db		 xor	 ebx, ebx
  0002a	38 5d f3	 cmp	 BYTE PTR _bConsecutivePacket$[ebp], bl
  0002d	74 07		 je	 SHORT $LN5@ApplyBlcok@2
  0002f	68 00 00 00 00	 push	 OFFSET ??_C@_0CG@OMIOGPPB@?$FLComplete?5Data?$FN?5?9?5Apply?5DB?5Block@

; 427  : 	else

  00034	eb 05		 jmp	 SHORT $LN12@ApplyBlcok@2
$LN5@ApplyBlcok@2:

; 428  : 		LOG.PrintTimeAndLog(0, "[Consecutive Data] - Apply DB Block : %d", nCount );

  00036	68 00 00 00 00	 push	 OFFSET ??_C@_0CJ@INGDOIJO@?$FLConsecutive?5Data?$FN?5?9?5Apply?5DB?5Bl@
$LN12@ApplyBlcok@2:
  0003b	53		 push	 ebx
  0003c	ff 35 00 00 00
	00		 push	 DWORD PTR __imp_?LOG@@3VCLog@@A
  00042	ff 15 00 00 00
	00		 call	 DWORD PTR __imp_?PrintTimeAndLog@CLog@@QAAXHPADZZ
  00048	83 c4 10	 add	 esp, 16			; 00000010H

; 429  : 
; 430  : 	for( int nBlock = 0; nBlock < nCount; ++nBlock )

  0004b	33 f6		 xor	 esi, esi
  0004d	39 5d ec	 cmp	 DWORD PTR _nCount$[ebp], ebx
  00050	7e 3e		 jle	 SHORT $LN1@ApplyBlcok@2
$LL3@ApplyBlcok@2:

; 431  : 	{
; 432  : 		ioBlockDBItem Item;

  00052	8d 4d c4	 lea	 ecx, DWORD PTR _Item$509093[ebp]
  00055	e8 00 00 00 00	 call	 ??0ioBlockDBItem@@QAE@XZ ; ioBlockDBItem::ioBlockDBItem

; 433  : 		Item.ApplyItem( rkPacket );

  0005a	ff 75 08	 push	 DWORD PTR _rkPacket$[ebp]
  0005d	8d 4d c4	 lea	 ecx, DWORD PTR _Item$509093[ebp]
  00060	89 5d fc	 mov	 DWORD PTR __$EHRec$[ebp+8], ebx
  00063	e8 00 00 00 00	 call	 ?ApplyItem@ioBlockDBItem@@QAEXAAVSP2Packet@@@Z ; ioBlockDBItem::ApplyItem

; 434  : 		Item.SetTileMax( TILE_MAX_HOME );

  00068	6a 20		 push	 32			; 00000020H
  0006a	8d 4d c4	 lea	 ecx, DWORD PTR _Item$509093[ebp]
  0006d	e8 00 00 00 00	 call	 ?SetTileMax@ioBlockDBItem@@QAEXH@Z ; ioBlockDBItem::SetTileMax

; 435  : 		m_ioBlockDBItemContainer.ItemList.push_back( Item );

  00072	8d 45 c4	 lea	 eax, DWORD PTR _Item$509093[ebp]
  00075	50		 push	 eax
  00076	8d 4f 04	 lea	 ecx, DWORD PTR [edi+4]
  00079	e8 00 00 00 00	 call	 ?push_back@?$vector@VioBlockDBItem@@V?$allocator@VioBlockDBItem@@@std@@@std@@QAEXABVioBlockDBItem@@@Z ; std::vector<ioBlockDBItem,std::allocator<ioBlockDBItem> >::push_back

; 436  : 	}

  0007e	83 4d fc ff	 or	 DWORD PTR __$EHRec$[ebp+8], -1
  00082	8d 4d c4	 lea	 ecx, DWORD PTR _Item$509093[ebp]
  00085	e8 00 00 00 00	 call	 ??1ioBlockDBItem@@UAE@XZ ; ioBlockDBItem::~ioBlockDBItem
  0008a	46		 inc	 esi
  0008b	3b 75 ec	 cmp	 esi, DWORD PTR _nCount$[ebp]
  0008e	7c c2		 jl	 SHORT $LL3@ApplyBlcok@2
$LN1@ApplyBlcok@2:

; 437  : }

  00090	e8 00 00 00 00	 call	 __EH_epilog3
  00095	c2 04 00	 ret	 4
_TEXT	ENDS
;	COMDAT text$x
text$x	SEGMENT
__unwindfunclet$?ApplyBlcokDBItem@ioHomeBlockStorage@@QAEXAAVSP2Packet@@@Z$0:
  00000	8d 4d c4	 lea	 ecx, DWORD PTR _Item$509093[ebp]
  00003	e9 00 00 00 00	 jmp	 ??1ioBlockDBItem@@UAE@XZ ; ioBlockDBItem::~ioBlockDBItem
__ehhandler$?ApplyBlcokDBItem@ioHomeBlockStorage@@QAEXAAVSP2Packet@@@Z:
  00008	8b 54 24 08	 mov	 edx, DWORD PTR [esp+8]
  0000c	8d 42 0c	 lea	 eax, DWORD PTR [edx+12]
  0000f	8b 4a c0	 mov	 ecx, DWORD PTR [edx-64]
  00012	33 c8		 xor	 ecx, eax
  00014	e8 00 00 00 00	 call	 @__security_check_cookie@4
  00019	b8 00 00 00 00	 mov	 eax, OFFSET __ehfuncinfo$?ApplyBlcokDBItem@ioHomeBlockStorage@@QAEXAAVSP2Packet@@@Z
  0001e	e9 00 00 00 00	 jmp	 ___CxxFrameHandler3
text$x	ENDS
?ApplyBlcokDBItem@ioHomeBlockStorage@@QAEXAAVSP2Packet@@@Z ENDP ; ioHomeBlockStorage::ApplyBlcokDBItem
PUBLIC	??4?$vector@UInvenBlockItem@ioUserBlockStorage@@V?$allocator@UInvenBlockItem@ioUserBlockStorage@@@std@@@std@@QAEAAV01@ABV01@@Z ; std::vector<ioUserBlockStorage::InvenBlockItem,std::allocator<ioUserBlockStorage::InvenBlockItem> >::operator=
; Function compile flags: /Ogsp
; File c:\program files (x86)\microsoft visual studio 10.0\vc\include\vector
;	COMDAT ??4?$vector@UInvenBlockItem@ioUserBlockStorage@@V?$allocator@UInvenBlockItem@ioUserBlockStorage@@@std@@@std@@QAEAAV01@ABV01@@Z
_TEXT	SEGMENT
tv555 = -4						; size = 4
tv551 = 8						; size = 4
__Cat$515888 = 8					; size = 1
__Cat$515761 = 8					; size = 1
__Cat$515738 = 8					; size = 1
__Cat$515618 = 8					; size = 1
$T515673 = 8						; size = 4
$T515585 = 8						; size = 4
__Right$ = 8						; size = 4
??4?$vector@UInvenBlockItem@ioUserBlockStorage@@V?$allocator@UInvenBlockItem@ioUserBlockStorage@@@std@@@std@@QAEAAV01@ABV01@@Z PROC ; std::vector<ioUserBlockStorage::InvenBlockItem,std::allocator<ioUserBlockStorage::InvenBlockItem> >::operator=, COMDAT
; _this$ = ecx

; 709  : 		{	// assign _Right

  00000	55		 push	 ebp
  00001	8b ec		 mov	 ebp, esp
  00003	51		 push	 ecx
  00004	56		 push	 esi
  00005	57		 push	 edi

; 710  : 		if (this != &_Right)

  00006	8b 7d 08	 mov	 edi, DWORD PTR __Right$[ebp]
  00009	8b f1		 mov	 esi, ecx
  0000b	3b f7		 cmp	 esi, edi
  0000d	0f 84 16 01 00
	00		 je	 $LN1@operator

; 711  : 			{	// worth doing
; 712  : 			this->_Orphan_all();

  00013	ff 15 00 00 00
	00		 call	 DWORD PTR __imp_?_Orphan_all@_Container_base0@std@@QAEXXZ

; 713  : 
; 714  : 			if (_Right.size() == 0)

  00019	8b 47 04	 mov	 eax, DWORD PTR [edi+4]
  0001c	2b 07		 sub	 eax, DWORD PTR [edi]
  0001e	6a 38		 push	 56			; 00000038H
  00020	99		 cdq
  00021	59		 pop	 ecx
  00022	f7 f9		 idiv	 ecx
  00024	89 45 08	 mov	 DWORD PTR tv551[ebp], eax
  00027	85 c0		 test	 eax, eax

; 715  : 				clear();	// new sequence empty, erase existing sequence

  00029	8b 46 04	 mov	 eax, DWORD PTR [esi+4]
  0002c	75 14		 jne	 SHORT $LN8@operator
  0002e	8b 0e		 mov	 ecx, DWORD PTR [esi]
  00030	50		 push	 eax
  00031	51		 push	 ecx
  00032	8d 45 08	 lea	 eax, DWORD PTR $T515585[ebp]
  00035	50		 push	 eax
  00036	8b ce		 mov	 ecx, esi
  00038	e8 00 00 00 00	 call	 ?erase@?$vector@UInvenBlockItem@ioUserBlockStorage@@V?$allocator@UInvenBlockItem@ioUserBlockStorage@@@std@@@std@@QAE?AV?$_Vector_iterator@V?$_Vector_val@UInvenBlockItem@ioUserBlockStorage@@V?$allocator@UInvenBlockItem@ioUserBlockStorage@@@std@@@std@@@2@V?$_Vector_const_iterator@V?$_Vector_val@UInvenBlockItem@ioUserBlockStorage@@V?$allocator@UInvenBlockItem@ioUserBlockStorage@@@std@@@std@@@2@0@Z ; std::vector<ioUserBlockStorage::InvenBlockItem,std::allocator<ioUserBlockStorage::InvenBlockItem> >::erase

; 716  : 			else if (_Right.size() <= size())

  0003d	e9 e7 00 00 00	 jmp	 $LN1@operator
$LN8@operator:
  00042	53		 push	 ebx
  00043	8b 1e		 mov	 ebx, DWORD PTR [esi]
  00045	89 45 fc	 mov	 DWORD PTR tv555[ebp], eax
  00048	2b c3		 sub	 eax, ebx
  0004a	6a 38		 push	 56			; 00000038H
  0004c	99		 cdq
  0004d	59		 pop	 ecx
  0004e	f7 f9		 idiv	 ecx
  00050	8b c8		 mov	 ecx, eax
  00052	39 4d 08	 cmp	 DWORD PTR tv551[ebp], ecx
  00055	77 41		 ja	 SHORT $LN6@operator

; 717  : 				{	// enough elements, copy new and destroy old
; 718  : 				pointer _Ptr = _STD _Copy_impl(_Right._Myfirst, _Right._Mylast,
; 719  : 					this->_Myfirst);	// copy new

  00057	ff 75 08	 push	 DWORD PTR __Cat$515618[ebp]
  0005a	53		 push	 ebx
  0005b	ff 77 04	 push	 DWORD PTR [edi+4]
  0005e	ff 37		 push	 DWORD PTR [edi]
  00060	e8 00 00 00 00	 call	 ??$_Copy_impl@PAUInvenBlockItem@ioUserBlockStorage@@PAU12@@std@@YAPAUInvenBlockItem@ioUserBlockStorage@@PAU12@00U_Nonscalar_ptr_iterator_tag@0@@Z ; std::_Copy_impl<ioUserBlockStorage::InvenBlockItem *,ioUserBlockStorage::InvenBlockItem *>

; 720  : 				_Destroy(_Ptr, this->_Mylast);	// destroy old

  00065	8b 5e 04	 mov	 ebx, DWORD PTR [esi+4]
  00068	83 c4 10	 add	 esp, 16			; 00000010H
  0006b	89 45 08	 mov	 DWORD PTR $T515673[ebp], eax
  0006e	3b c3		 cmp	 eax, ebx
  00070	74 11		 je	 SHORT $LN46@operator
$LL114@operator:
  00072	8b 4d 08	 mov	 ecx, DWORD PTR $T515673[ebp]
  00075	e8 00 00 00 00	 call	 ??1InvenBlockItem@ioUserBlockStorage@@QAE@XZ
  0007a	83 45 08 38	 add	 DWORD PTR $T515673[ebp], 56 ; 00000038H
  0007e	39 5d 08	 cmp	 DWORD PTR $T515673[ebp], ebx
  00081	75 ef		 jne	 SHORT $LL114@operator
$LN46@operator:

; 721  : 				this->_Mylast = this->_Myfirst + _Right.size();

  00083	8b 47 04	 mov	 eax, DWORD PTR [edi+4]
  00086	2b 07		 sub	 eax, DWORD PTR [edi]
  00088	6a 38		 push	 56			; 00000038H
  0008a	99		 cdq
  0008b	59		 pop	 ecx
  0008c	f7 f9		 idiv	 ecx
  0008e	6b c0 38	 imul	 eax, 56			; 00000038H
  00091	03 06		 add	 eax, DWORD PTR [esi]

; 722  : 				}
; 723  : 			else if (_Right.size() <= capacity())

  00093	e9 8d 00 00 00	 jmp	 $LN116@operator
$LN6@operator:
  00098	8b 46 08	 mov	 eax, DWORD PTR [esi+8]
  0009b	2b c3		 sub	 eax, ebx
  0009d	6a 38		 push	 56			; 00000038H
  0009f	99		 cdq
  000a0	5b		 pop	 ebx
  000a1	f7 fb		 idiv	 ebx
  000a3	39 45 08	 cmp	 DWORD PTR tv551[ebp], eax
  000a6	77 2e		 ja	 SHORT $LN4@operator

; 724  : 				{	// enough room, copy and construct new
; 725  : 				pointer _Ptr = _Right._Myfirst + size();
; 726  : 				_STD _Copy_impl(_Right._Myfirst, _Ptr, this->_Myfirst);

  000a8	ff 75 08	 push	 DWORD PTR __Cat$515738[ebp]
  000ab	6b c9 38	 imul	 ecx, 56			; 00000038H
  000ae	8b 07		 mov	 eax, DWORD PTR [edi]
  000b0	ff 36		 push	 DWORD PTR [esi]
  000b2	8d 1c 08	 lea	 ebx, DWORD PTR [eax+ecx]
  000b5	53		 push	 ebx
  000b6	50		 push	 eax
  000b7	e8 00 00 00 00	 call	 ??$_Copy_impl@PAUInvenBlockItem@ioUserBlockStorage@@PAU12@@std@@YAPAUInvenBlockItem@ioUserBlockStorage@@PAU12@00U_Nonscalar_ptr_iterator_tag@0@@Z ; std::_Copy_impl<ioUserBlockStorage::InvenBlockItem *,ioUserBlockStorage::InvenBlockItem *>

; 727  : 				this->_Mylast = _Ucopy(_Ptr, _Right._Mylast, this->_Mylast);

  000bc	ff 75 08	 push	 DWORD PTR __Cat$515761[ebp]
  000bf	8b 46 04	 mov	 eax, DWORD PTR [esi+4]
  000c2	8b 7f 04	 mov	 edi, DWORD PTR [edi+4]
  000c5	8d 4e 0c	 lea	 ecx, DWORD PTR [esi+12]
  000c8	51		 push	 ecx
  000c9	50		 push	 eax
  000ca	57		 push	 edi
  000cb	53		 push	 ebx
  000cc	e8 00 00 00 00	 call	 ??$_Uninit_copy@PAUInvenBlockItem@ioUserBlockStorage@@PAU12@V?$allocator@UInvenBlockItem@ioUserBlockStorage@@@std@@@std@@YAPAUInvenBlockItem@ioUserBlockStorage@@PAU12@00AAV?$allocator@UInvenBlockItem@ioUserBlockStorage@@@0@U_Nonscalar_ptr_iterator_tag@0@@Z ; std::_Uninit_copy<ioUserBlockStorage::InvenBlockItem *,ioUserBlockStorage::InvenBlockItem *,std::allocator<ioUserBlockStorage::InvenBlockItem> >
  000d1	83 c4 24	 add	 esp, 36			; 00000024H

; 728  : 				}
; 729  : 			else

  000d4	eb 4f		 jmp	 SHORT $LN116@operator
$LN4@operator:

; 730  : 				{	// not enough room, allocate new array and construct new
; 731  : 				if (this->_Myfirst != 0)

  000d6	8b 1e		 mov	 ebx, DWORD PTR [esi]
  000d8	85 db		 test	 ebx, ebx
  000da	74 19		 je	 SHORT $LN113@operator
  000dc	eb 0a		 jmp	 SHORT $LN117@operator

; 732  : 					{	// discard old array
; 733  : 					_Destroy(this->_Myfirst, this->_Mylast);

$LL86@operator:
  000de	8b cb		 mov	 ecx, ebx
  000e0	e8 00 00 00 00	 call	 ??1InvenBlockItem@ioUserBlockStorage@@QAE@XZ
  000e5	83 c3 38	 add	 ebx, 56			; 00000038H
$LN117@operator:
  000e8	3b 5d fc	 cmp	 ebx, DWORD PTR tv555[ebp]
  000eb	75 f1		 jne	 SHORT $LL86@operator

; 734  : 					this->_Alval.deallocate(this->_Myfirst,
; 735  : 						this->_Myend - this->_Myfirst);

  000ed	ff 36		 push	 DWORD PTR [esi]
  000ef	e8 00 00 00 00	 call	 ??3@YAXPAX@Z		; operator delete
  000f4	59		 pop	 ecx
$LN113@operator:

; 736  : 					}
; 737  : 				if (_Buy(_Right.size()))

  000f5	8b 47 04	 mov	 eax, DWORD PTR [edi+4]
  000f8	2b 07		 sub	 eax, DWORD PTR [edi]
  000fa	6a 38		 push	 56			; 00000038H
  000fc	59		 pop	 ecx
  000fd	99		 cdq
  000fe	f7 f9		 idiv	 ecx
  00100	8b ce		 mov	 ecx, esi
  00102	50		 push	 eax
  00103	e8 00 00 00 00	 call	 ?_Buy@?$vector@UInvenBlockItem@ioUserBlockStorage@@V?$allocator@UInvenBlockItem@ioUserBlockStorage@@@std@@@std@@IAE_NI@Z ; std::vector<ioUserBlockStorage::InvenBlockItem,std::allocator<ioUserBlockStorage::InvenBlockItem> >::_Buy
  00108	84 c0		 test	 al, al
  0010a	74 1c		 je	 SHORT $LN115@operator

; 738  : 					this->_Mylast = _Ucopy(_Right._Myfirst, _Right._Mylast,
; 739  : 						this->_Myfirst);

  0010c	ff 75 08	 push	 DWORD PTR __Cat$515888[ebp]
  0010f	8b 06		 mov	 eax, DWORD PTR [esi]
  00111	8b 4f 04	 mov	 ecx, DWORD PTR [edi+4]
  00114	8b 3f		 mov	 edi, DWORD PTR [edi]
  00116	8d 56 0c	 lea	 edx, DWORD PTR [esi+12]
  00119	52		 push	 edx
  0011a	50		 push	 eax
  0011b	51		 push	 ecx
  0011c	57		 push	 edi
  0011d	e8 00 00 00 00	 call	 ??$_Uninit_copy@PAUInvenBlockItem@ioUserBlockStorage@@PAU12@V?$allocator@UInvenBlockItem@ioUserBlockStorage@@@std@@@std@@YAPAUInvenBlockItem@ioUserBlockStorage@@PAU12@00AAV?$allocator@UInvenBlockItem@ioUserBlockStorage@@@0@U_Nonscalar_ptr_iterator_tag@0@@Z ; std::_Uninit_copy<ioUserBlockStorage::InvenBlockItem *,ioUserBlockStorage::InvenBlockItem *,std::allocator<ioUserBlockStorage::InvenBlockItem> >
  00122	83 c4 14	 add	 esp, 20			; 00000014H
$LN116@operator:
  00125	89 46 04	 mov	 DWORD PTR [esi+4], eax
$LN115@operator:
  00128	5b		 pop	 ebx
$LN1@operator:
  00129	5f		 pop	 edi

; 740  : 				}
; 741  : 			}
; 742  : 		return (*this);

  0012a	8b c6		 mov	 eax, esi
  0012c	5e		 pop	 esi

; 743  : 		}

  0012d	c9		 leave
  0012e	c2 04 00	 ret	 4
??4?$vector@UInvenBlockItem@ioUserBlockStorage@@V?$allocator@UInvenBlockItem@ioUserBlockStorage@@@std@@@std@@QAEAAV01@ABV01@@Z ENDP ; std::vector<ioUserBlockStorage::InvenBlockItem,std::allocator<ioUserBlockStorage::InvenBlockItem> >::operator=
_TEXT	ENDS
PUBLIC	??$_Copy_impl@PAUInvenBlockItem@ioUserBlockStorage@@V?$back_insert_iterator@V?$vector@UInvenBlockItem@ioUserBlockStorage@@V?$allocator@UInvenBlockItem@ioUserBlockStorage@@@std@@@std@@@std@@@std@@YA?AV?$back_insert_iterator@V?$vector@UInvenBlockItem@ioUserBlockStorage@@V?$allocator@UInvenBlockItem@ioUserBlockStorage@@@std@@@std@@@0@PAUInvenBlockItem@ioUserBlockStorage@@0V10@U_Nonscalar_ptr_iterator_tag@0@@Z ; std::_Copy_impl<ioUserBlockStorage::InvenBlockItem *,std::back_insert_iterator<std::vector<ioUserBlockStorage::InvenBlockItem,std::allocator<ioUserBlockStorage::InvenBlockItem> > > >
; Function compile flags: /Ogsp
; File c:\program files (x86)\microsoft visual studio 10.0\vc\include\xutility
;	COMDAT ??$_Copy_impl@PAUInvenBlockItem@ioUserBlockStorage@@V?$back_insert_iterator@V?$vector@UInvenBlockItem@ioUserBlockStorage@@V?$allocator@UInvenBlockItem@ioUserBlockStorage@@@std@@@std@@@std@@@std@@YA?AV?$back_insert_iterator@V?$vector@UInvenBlockItem@ioUserBlockStorage@@V?$allocator@UInvenBlockItem@ioUserBlockStorage@@@std@@@std@@@0@PAUInvenBlockItem@ioUserBlockStorage@@0V10@U_Nonscalar_ptr_iterator_tag@0@@Z
_TEXT	SEGMENT
___$ReturnUdt$ = 8					; size = 4
__First$ = 12						; size = 4
__Last$ = 16						; size = 4
__Dest$ = 20						; size = 4
___formal$ = 24						; size = 1
??$_Copy_impl@PAUInvenBlockItem@ioUserBlockStorage@@V?$back_insert_iterator@V?$vector@UInvenBlockItem@ioUserBlockStorage@@V?$allocator@UInvenBlockItem@ioUserBlockStorage@@@std@@@std@@@std@@@std@@YA?AV?$back_insert_iterator@V?$vector@UInvenBlockItem@ioUserBlockStorage@@V?$allocator@UInvenBlockItem@ioUserBlockStorage@@@std@@@std@@@0@PAUInvenBlockItem@ioUserBlockStorage@@0V10@U_Nonscalar_ptr_iterator_tag@0@@Z PROC ; std::_Copy_impl<ioUserBlockStorage::InvenBlockItem *,std::back_insert_iterator<std::vector<ioUserBlockStorage::InvenBlockItem,std::allocator<ioUserBlockStorage::InvenBlockItem> > > >, COMDAT

; 2142 : 	{	// copy [_First, _Last) to [_Dest, ...), arbitrary iterators

  00000	55		 push	 ebp
  00001	8b ec		 mov	 ebp, esp
  00003	56		 push	 esi

; 2143 : 	for (; _First != _Last; ++_Dest, ++_First)

  00004	8b 75 0c	 mov	 esi, DWORD PTR __First$[ebp]
  00007	eb 09		 jmp	 SHORT $LN14@Copy_impl@2
$LL3@Copy_impl@2:

; 2144 : 		*_Dest = *_First;

  00009	56		 push	 esi
  0000a	e8 00 00 00 00	 call	 ?push_back@?$vector@UInvenBlockItem@ioUserBlockStorage@@V?$allocator@UInvenBlockItem@ioUserBlockStorage@@@std@@@std@@QAEXABUInvenBlockItem@ioUserBlockStorage@@@Z ; std::vector<ioUserBlockStorage::InvenBlockItem,std::allocator<ioUserBlockStorage::InvenBlockItem> >::push_back
  0000f	83 c6 38	 add	 esi, 56			; 00000038H
$LN14@Copy_impl@2:

; 2145 : 	return (_Dest);

  00012	8b 4d 14	 mov	 ecx, DWORD PTR __Dest$[ebp]
  00015	3b 75 10	 cmp	 esi, DWORD PTR __Last$[ebp]
  00018	75 ef		 jne	 SHORT $LL3@Copy_impl@2
  0001a	8b 45 08	 mov	 eax, DWORD PTR ___$ReturnUdt$[ebp]
  0001d	89 08		 mov	 DWORD PTR [eax], ecx
  0001f	5e		 pop	 esi

; 2146 : 	}

  00020	5d		 pop	 ebp
  00021	c3		 ret	 0
??$_Copy_impl@PAUInvenBlockItem@ioUserBlockStorage@@V?$back_insert_iterator@V?$vector@UInvenBlockItem@ioUserBlockStorage@@V?$allocator@UInvenBlockItem@ioUserBlockStorage@@@std@@@std@@@std@@@std@@YA?AV?$back_insert_iterator@V?$vector@UInvenBlockItem@ioUserBlockStorage@@V?$allocator@UInvenBlockItem@ioUserBlockStorage@@@std@@@std@@@0@PAUInvenBlockItem@ioUserBlockStorage@@0V10@U_Nonscalar_ptr_iterator_tag@0@@Z ENDP ; std::_Copy_impl<ioUserBlockStorage::InvenBlockItem *,std::back_insert_iterator<std::vector<ioUserBlockStorage::InvenBlockItem,std::allocator<ioUserBlockStorage::InvenBlockItem> > > >
_TEXT	ENDS
PUBLIC	?GetInvenItemAll@ioUserBlockStorage@@QAEXAAV?$vector@UInvenBlockItem@ioUserBlockStorage@@V?$allocator@UInvenBlockItem@ioUserBlockStorage@@@std@@@std@@@Z ; ioUserBlockStorage::GetInvenItemAll
; Function compile flags: /Ogsp
; File d:\lost saga for developer\youtube\tutorial\source\src\lsclient\housing\iouserblockstorage.cpp
;	COMDAT ?GetInvenItemAll@ioUserBlockStorage@@QAEXAAV?$vector@UInvenBlockItem@ioUserBlockStorage@@V?$allocator@UInvenBlockItem@ioUserBlockStorage@@@std@@@std@@@Z
_TEXT	SEGMENT
_List$ = 8						; size = 4
?GetInvenItemAll@ioUserBlockStorage@@QAEXAAV?$vector@UInvenBlockItem@ioUserBlockStorage@@V?$allocator@UInvenBlockItem@ioUserBlockStorage@@@std@@@std@@@Z PROC ; ioUserBlockStorage::GetInvenItemAll, COMDAT
; _this$ = ecx

; 96   : {

  00000	55		 push	 ebp
  00001	8b ec		 mov	 ebp, esp

; 97   : 	List = m_InvenBlockItemList;

  00003	83 c1 14	 add	 ecx, 20			; 00000014H
  00006	51		 push	 ecx
  00007	8b 4d 08	 mov	 ecx, DWORD PTR _List$[ebp]
  0000a	e8 00 00 00 00	 call	 ??4?$vector@UInvenBlockItem@ioUserBlockStorage@@V?$allocator@UInvenBlockItem@ioUserBlockStorage@@@std@@@std@@QAEAAV01@ABV01@@Z ; std::vector<ioUserBlockStorage::InvenBlockItem,std::allocator<ioUserBlockStorage::InvenBlockItem> >::operator=

; 98   : }

  0000f	5d		 pop	 ebp
  00010	c2 04 00	 ret	 4
?GetInvenItemAll@ioUserBlockStorage@@QAEXAAV?$vector@UInvenBlockItem@ioUserBlockStorage@@V?$allocator@UInvenBlockItem@ioUserBlockStorage@@@std@@@std@@@Z ENDP ; ioUserBlockStorage::GetInvenItemAll
_TEXT	ENDS
PUBLIC	??$_Copy_impl@PAUInvenBlockItem@ioUserBlockStorage@@V?$back_insert_iterator@V?$vector@UInvenBlockItem@ioUserBlockStorage@@V?$allocator@UInvenBlockItem@ioUserBlockStorage@@@std@@@std@@@std@@@std@@YA?AV?$back_insert_iterator@V?$vector@UInvenBlockItem@ioUserBlockStorage@@V?$allocator@UInvenBlockItem@ioUserBlockStorage@@@std@@@std@@@0@PAUInvenBlockItem@ioUserBlockStorage@@0V10@@Z ; std::_Copy_impl<ioUserBlockStorage::InvenBlockItem *,std::back_insert_iterator<std::vector<ioUserBlockStorage::InvenBlockItem,std::allocator<ioUserBlockStorage::InvenBlockItem> > > >
; Function compile flags: /Ogsp
; File c:\program files (x86)\microsoft visual studio 10.0\vc\include\xutility
;	COMDAT ??$_Copy_impl@PAUInvenBlockItem@ioUserBlockStorage@@V?$back_insert_iterator@V?$vector@UInvenBlockItem@ioUserBlockStorage@@V?$allocator@UInvenBlockItem@ioUserBlockStorage@@@std@@@std@@@std@@@std@@YA?AV?$back_insert_iterator@V?$vector@UInvenBlockItem@ioUserBlockStorage@@V?$allocator@UInvenBlockItem@ioUserBlockStorage@@@std@@@std@@@0@PAUInvenBlockItem@ioUserBlockStorage@@0V10@@Z
_TEXT	SEGMENT
__Cat$515926 = 8					; size = 1
___$ReturnUdt$ = 8					; size = 4
__First$ = 12						; size = 4
__Last$ = 16						; size = 4
__Dest$ = 20						; size = 4
??$_Copy_impl@PAUInvenBlockItem@ioUserBlockStorage@@V?$back_insert_iterator@V?$vector@UInvenBlockItem@ioUserBlockStorage@@V?$allocator@UInvenBlockItem@ioUserBlockStorage@@@std@@@std@@@std@@@std@@YA?AV?$back_insert_iterator@V?$vector@UInvenBlockItem@ioUserBlockStorage@@V?$allocator@UInvenBlockItem@ioUserBlockStorage@@@std@@@std@@@0@PAUInvenBlockItem@ioUserBlockStorage@@0V10@@Z PROC ; std::_Copy_impl<ioUserBlockStorage::InvenBlockItem *,std::back_insert_iterator<std::vector<ioUserBlockStorage::InvenBlockItem,std::allocator<ioUserBlockStorage::InvenBlockItem> > > >, COMDAT

; 2163 : 	{	// copy [_First, _Last) to [_Dest, ...)

  00000	55		 push	 ebp
  00001	8b ec		 mov	 ebp, esp

; 2164 : 	return (_Copy_impl(_First, _Last,
; 2165 : 		_Dest, _Ptr_cat(_First, _Dest)));

  00003	ff 75 08	 push	 DWORD PTR __Cat$515926[ebp]
  00006	ff 75 14	 push	 DWORD PTR __Dest$[ebp]
  00009	ff 75 10	 push	 DWORD PTR __Last$[ebp]
  0000c	ff 75 0c	 push	 DWORD PTR __First$[ebp]
  0000f	ff 75 08	 push	 DWORD PTR ___$ReturnUdt$[ebp]
  00012	e8 00 00 00 00	 call	 ??$_Copy_impl@PAUInvenBlockItem@ioUserBlockStorage@@V?$back_insert_iterator@V?$vector@UInvenBlockItem@ioUserBlockStorage@@V?$allocator@UInvenBlockItem@ioUserBlockStorage@@@std@@@std@@@std@@@std@@YA?AV?$back_insert_iterator@V?$vector@UInvenBlockItem@ioUserBlockStorage@@V?$allocator@UInvenBlockItem@ioUserBlockStorage@@@std@@@std@@@0@PAUInvenBlockItem@ioUserBlockStorage@@0V10@U_Nonscalar_ptr_iterator_tag@0@@Z ; std::_Copy_impl<ioUserBlockStorage::InvenBlockItem *,std::back_insert_iterator<std::vector<ioUserBlockStorage::InvenBlockItem,std::allocator<ioUserBlockStorage::InvenBlockItem> > > >
  00017	8b 45 08	 mov	 eax, DWORD PTR ___$ReturnUdt$[ebp]
  0001a	83 c4 14	 add	 esp, 20			; 00000014H

; 2166 : 	}

  0001d	5d		 pop	 ebp
  0001e	c3		 ret	 0
??$_Copy_impl@PAUInvenBlockItem@ioUserBlockStorage@@V?$back_insert_iterator@V?$vector@UInvenBlockItem@ioUserBlockStorage@@V?$allocator@UInvenBlockItem@ioUserBlockStorage@@@std@@@std@@@std@@@std@@YA?AV?$back_insert_iterator@V?$vector@UInvenBlockItem@ioUserBlockStorage@@V?$allocator@UInvenBlockItem@ioUserBlockStorage@@@std@@@std@@@0@PAUInvenBlockItem@ioUserBlockStorage@@0V10@@Z ENDP ; std::_Copy_impl<ioUserBlockStorage::InvenBlockItem *,std::back_insert_iterator<std::vector<ioUserBlockStorage::InvenBlockItem,std::allocator<ioUserBlockStorage::InvenBlockItem> > > >
_TEXT	ENDS
PUBLIC	??$copy@V?$_Vector_iterator@V?$_Vector_val@UInvenBlockItem@ioUserBlockStorage@@V?$allocator@UInvenBlockItem@ioUserBlockStorage@@@std@@@std@@@std@@V?$back_insert_iterator@V?$vector@UInvenBlockItem@ioUserBlockStorage@@V?$allocator@UInvenBlockItem@ioUserBlockStorage@@@std@@@std@@@2@@std@@YA?AV?$back_insert_iterator@V?$vector@UInvenBlockItem@ioUserBlockStorage@@V?$allocator@UInvenBlockItem@ioUserBlockStorage@@@std@@@std@@@0@V?$_Vector_iterator@V?$_Vector_val@UInvenBlockItem@ioUserBlockStorage@@V?$allocator@UInvenBlockItem@ioUserBlockStorage@@@std@@@std@@@0@0V10@@Z ; std::copy<std::_Vector_iterator<std::_Vector_val<ioUserBlockStorage::InvenBlockItem,std::allocator<ioUserBlockStorage::InvenBlockItem> > >,std::back_insert_iterator<std::vector<ioUserBlockStorage::InvenBlockItem,std::allocator<ioUserBlockStorage::InvenBlockItem> > > >
; Function compile flags: /Ogsp
;	COMDAT ??$copy@V?$_Vector_iterator@V?$_Vector_val@UInvenBlockItem@ioUserBlockStorage@@V?$allocator@UInvenBlockItem@ioUserBlockStorage@@@std@@@std@@@std@@V?$back_insert_iterator@V?$vector@UInvenBlockItem@ioUserBlockStorage@@V?$allocator@UInvenBlockItem@ioUserBlockStorage@@@std@@@std@@@2@@std@@YA?AV?$back_insert_iterator@V?$vector@UInvenBlockItem@ioUserBlockStorage@@V?$allocator@UInvenBlockItem@ioUserBlockStorage@@@std@@@std@@@0@V?$_Vector_iterator@V?$_Vector_val@UInvenBlockItem@ioUserBlockStorage@@V?$allocator@UInvenBlockItem@ioUserBlockStorage@@@std@@@std@@@0@0V10@@Z
_TEXT	SEGMENT
___$ReturnUdt$ = 8					; size = 4
__First$ = 12						; size = 4
__Last$ = 16						; size = 4
__Dest$ = 20						; size = 4
??$copy@V?$_Vector_iterator@V?$_Vector_val@UInvenBlockItem@ioUserBlockStorage@@V?$allocator@UInvenBlockItem@ioUserBlockStorage@@@std@@@std@@@std@@V?$back_insert_iterator@V?$vector@UInvenBlockItem@ioUserBlockStorage@@V?$allocator@UInvenBlockItem@ioUserBlockStorage@@@std@@@std@@@2@@std@@YA?AV?$back_insert_iterator@V?$vector@UInvenBlockItem@ioUserBlockStorage@@V?$allocator@UInvenBlockItem@ioUserBlockStorage@@@std@@@std@@@0@V?$_Vector_iterator@V?$_Vector_val@UInvenBlockItem@ioUserBlockStorage@@V?$allocator@UInvenBlockItem@ioUserBlockStorage@@@std@@@std@@@0@0V10@@Z PROC ; std::copy<std::_Vector_iterator<std::_Vector_val<ioUserBlockStorage::InvenBlockItem,std::allocator<ioUserBlockStorage::InvenBlockItem> > >,std::back_insert_iterator<std::vector<ioUserBlockStorage::InvenBlockItem,std::allocator<ioUserBlockStorage::InvenBlockItem> > > >, COMDAT

; 2173 : 	{	// copy [_First, _Last) to [_Dest, ...)

  00000	55		 push	 ebp
  00001	8b ec		 mov	 ebp, esp
  00003	53		 push	 ebx

; 2174 : 	return (_Rechecked(_Dest,
; 2175 : 		_Copy_impl(_Unchecked(_First), _Unchecked(_Last),
; 2176 : 			_Unchecked(_Dest))));

  00004	8b 5d 10	 mov	 ebx, DWORD PTR __Last$[ebp]
  00007	56		 push	 esi
  00008	8b 75 14	 mov	 esi, DWORD PTR __Dest$[ebp]
  0000b	57		 push	 edi
  0000c	8b 7d 0c	 mov	 edi, DWORD PTR __First$[ebp]
  0000f	eb 0b		 jmp	 SHORT $LN32@copy
$LL19@copy:
  00011	57		 push	 edi
  00012	8b ce		 mov	 ecx, esi
  00014	e8 00 00 00 00	 call	 ?push_back@?$vector@UInvenBlockItem@ioUserBlockStorage@@V?$allocator@UInvenBlockItem@ioUserBlockStorage@@@std@@@std@@QAEXABUInvenBlockItem@ioUserBlockStorage@@@Z ; std::vector<ioUserBlockStorage::InvenBlockItem,std::allocator<ioUserBlockStorage::InvenBlockItem> >::push_back
  00019	83 c7 38	 add	 edi, 56			; 00000038H
$LN32@copy:
  0001c	3b fb		 cmp	 edi, ebx
  0001e	75 f1		 jne	 SHORT $LL19@copy
  00020	8b 45 08	 mov	 eax, DWORD PTR ___$ReturnUdt$[ebp]
  00023	5f		 pop	 edi
  00024	89 30		 mov	 DWORD PTR [eax], esi
  00026	5e		 pop	 esi
  00027	5b		 pop	 ebx

; 2177 : 	}

  00028	5d		 pop	 ebp
  00029	c3		 ret	 0
??$copy@V?$_Vector_iterator@V?$_Vector_val@UInvenBlockItem@ioUserBlockStorage@@V?$allocator@UInvenBlockItem@ioUserBlockStorage@@@std@@@std@@@std@@V?$back_insert_iterator@V?$vector@UInvenBlockItem@ioUserBlockStorage@@V?$allocator@UInvenBlockItem@ioUserBlockStorage@@@std@@@std@@@2@@std@@YA?AV?$back_insert_iterator@V?$vector@UInvenBlockItem@ioUserBlockStorage@@V?$allocator@UInvenBlockItem@ioUserBlockStorage@@@std@@@std@@@0@V?$_Vector_iterator@V?$_Vector_val@UInvenBlockItem@ioUserBlockStorage@@V?$allocator@UInvenBlockItem@ioUserBlockStorage@@@std@@@std@@@0@0V10@@Z ENDP ; std::copy<std::_Vector_iterator<std::_Vector_val<ioUserBlockStorage::InvenBlockItem,std::allocator<ioUserBlockStorage::InvenBlockItem> > >,std::back_insert_iterator<std::vector<ioUserBlockStorage::InvenBlockItem,std::allocator<ioUserBlockStorage::InvenBlockItem> > > >
_TEXT	ENDS
PUBLIC	?UpdateInvenBlockItem@ioUserBlockStorage@@QAEXXZ ; ioUserBlockStorage::UpdateInvenBlockItem
;	COMDAT xdata$x
; File c:\program files (x86)\microsoft visual studio 10.0\vc\include\vector
xdata$x	SEGMENT
__unwindtable$?UpdateInvenBlockItem@ioUserBlockStorage@@QAEXXZ DD 0ffffffffH
	DD	FLAT:__unwindfunclet$?UpdateInvenBlockItem@ioUserBlockStorage@@QAEXXZ$0
	DD	00H
	DD	FLAT:__unwindfunclet$?UpdateInvenBlockItem@ioUserBlockStorage@@QAEXXZ$1
__ehfuncinfo$?UpdateInvenBlockItem@ioUserBlockStorage@@QAEXXZ DD 019930522H
	DD	02H
	DD	FLAT:__unwindtable$?UpdateInvenBlockItem@ioUserBlockStorage@@QAEXXZ
	DD	2 DUP(00H)
	DD	2 DUP(00H)
	DD	00H
	DD	01H
; Function compile flags: /Ogsp
; File d:\lost saga for developer\youtube\tutorial\source\src\lsclient\housing\iouserblockstorage.cpp
xdata$x	ENDS
;	COMDAT ?UpdateInvenBlockItem@ioUserBlockStorage@@QAEXXZ
_TEXT	SEGMENT
_EnableList$ = -48					; size = 16
_DisableList$ = -32					; size = 16
$T516017 = -16						; size = 1
$T516010 = -16						; size = 1
$T516159 = -16						; size = 4
$T516023 = -16						; size = 4
$T516016 = -16						; size = 4
_i$508652 = -16						; size = 4
__$EHRec$ = -12						; size = 12
?UpdateInvenBlockItem@ioUserBlockStorage@@QAEXXZ PROC	; ioUserBlockStorage::UpdateInvenBlockItem, COMDAT
; _this$ = ecx

; 38   : {

  00000	6a 24		 push	 36			; 00000024H
  00002	b8 00 00 00 00	 mov	 eax, __ehhandler$?UpdateInvenBlockItem@ioUserBlockStorage@@QAEXXZ
  00007	e8 00 00 00 00	 call	 __EH_prolog3

; 39   : 	InvenBlockItemList EnableList, DisableList;

  0000c	33 db		 xor	 ebx, ebx
  0000e	89 5d d0	 mov	 DWORD PTR _EnableList$[ebp], ebx
  00011	89 5d d4	 mov	 DWORD PTR _EnableList$[ebp+4], ebx
  00014	89 5d d8	 mov	 DWORD PTR _EnableList$[ebp+8], ebx
  00017	89 5d fc	 mov	 DWORD PTR __$EHRec$[ebp+8], ebx
  0001a	89 5d e0	 mov	 DWORD PTR _DisableList$[ebp], ebx
  0001d	89 5d e4	 mov	 DWORD PTR _DisableList$[ebp+4], ebx
  00020	89 5d e8	 mov	 DWORD PTR _DisableList$[ebp+8], ebx

; 40   : 	for( int i = 0; i < (int)m_InvenBlockItemList.size(); ++i )

  00023	8d 71 14	 lea	 esi, DWORD PTR [ecx+20]
  00026	8b 46 04	 mov	 eax, DWORD PTR [esi+4]
  00029	2b 06		 sub	 eax, DWORD PTR [esi]
  0002b	6a 38		 push	 56			; 00000038H
  0002d	99		 cdq
  0002e	59		 pop	 ecx
  0002f	f7 f9		 idiv	 ecx
  00031	c6 45 fc 01	 mov	 BYTE PTR __$EHRec$[ebp+8], 1
  00035	89 5d f0	 mov	 DWORD PTR _i$508652[ebp], ebx
  00038	85 c0		 test	 eax, eax
  0003a	7e 2d		 jle	 SHORT $LN5@UpdateInve

; 39   : 	InvenBlockItemList EnableList, DisableList;

  0003c	33 ff		 xor	 edi, edi
$LL7@UpdateInve:

; 41   : 	{
; 42   : 		InvenBlockItem& Item = m_InvenBlockItemList[i];

  0003e	8b 06		 mov	 eax, DWORD PTR [esi]
  00040	03 c7		 add	 eax, edi

; 43   : 		if( Item.m_nCount > 0 )
; 44   : 		{
; 45   : 			EnableList.push_back( Item );

  00042	50		 push	 eax
  00043	8d 4d d0	 lea	 ecx, DWORD PTR _EnableList$[ebp]
  00046	39 58 30	 cmp	 DWORD PTR [eax+48], ebx
  00049	7f 03		 jg	 SHORT $LN137@UpdateInve

; 46   : 		}
; 47   : 		else
; 48   : 		{
; 49   : 			DisableList.push_back( Item );

  0004b	8d 4d e0	 lea	 ecx, DWORD PTR _DisableList$[ebp]
$LN137@UpdateInve:
  0004e	e8 00 00 00 00	 call	 ?push_back@?$vector@UInvenBlockItem@ioUserBlockStorage@@V?$allocator@UInvenBlockItem@ioUserBlockStorage@@@std@@@std@@QAEXABUInvenBlockItem@ioUserBlockStorage@@@Z ; std::vector<ioUserBlockStorage::InvenBlockItem,std::allocator<ioUserBlockStorage::InvenBlockItem> >::push_back
  00053	8b 46 04	 mov	 eax, DWORD PTR [esi+4]
  00056	2b 06		 sub	 eax, DWORD PTR [esi]
  00058	6a 38		 push	 56			; 00000038H
  0005a	99		 cdq
  0005b	59		 pop	 ecx
  0005c	f7 f9		 idiv	 ecx
  0005e	ff 45 f0	 inc	 DWORD PTR _i$508652[ebp]
  00061	83 c7 38	 add	 edi, 56			; 00000038H
  00064	39 45 f0	 cmp	 DWORD PTR _i$508652[ebp], eax
  00067	7c d5		 jl	 SHORT $LL7@UpdateInve
$LN5@UpdateInve:

; 50   : 		}
; 51   : 	}
; 52   : 	m_InvenBlockItemList.clear();

  00069	8b 46 04	 mov	 eax, DWORD PTR [esi+4]
  0006c	8b 0e		 mov	 ecx, DWORD PTR [esi]
  0006e	50		 push	 eax
  0006f	51		 push	 ecx
  00070	8d 45 f0	 lea	 eax, DWORD PTR $T516159[ebp]
  00073	50		 push	 eax
  00074	8b ce		 mov	 ecx, esi
  00076	e8 00 00 00 00	 call	 ?erase@?$vector@UInvenBlockItem@ioUserBlockStorage@@V?$allocator@UInvenBlockItem@ioUserBlockStorage@@@std@@@std@@QAE?AV?$_Vector_iterator@V?$_Vector_val@UInvenBlockItem@ioUserBlockStorage@@V?$allocator@UInvenBlockItem@ioUserBlockStorage@@@std@@@std@@@2@V?$_Vector_const_iterator@V?$_Vector_val@UInvenBlockItem@ioUserBlockStorage@@V?$allocator@UInvenBlockItem@ioUserBlockStorage@@@std@@@std@@@2@0@Z ; std::vector<ioUserBlockStorage::InvenBlockItem,std::allocator<ioUserBlockStorage::InvenBlockItem> >::erase

; 53   : 
; 54   : 	if( !EnableList.empty() )

  0007b	8b 45 d0	 mov	 eax, DWORD PTR _EnableList$[ebp]
  0007e	3b 45 d4	 cmp	 eax, DWORD PTR _EnableList$[ebp+4]
  00081	74 1f		 je	 SHORT $LN2@UpdateInve

; 55   : 	{
; 56   : 		std::sort( EnableList.begin(), EnableList.end(), InvenBlockItemSort() );

  00083	ff 75 f0	 push	 DWORD PTR $T516010[ebp]
  00086	ff 75 d4	 push	 DWORD PTR _EnableList$[ebp+4]
  00089	50		 push	 eax
  0008a	e8 00 00 00 00	 call	 ??$sort@V?$_Vector_iterator@V?$_Vector_val@UInvenBlockItem@ioUserBlockStorage@@V?$allocator@UInvenBlockItem@ioUserBlockStorage@@@std@@@std@@@std@@VInvenBlockItemSort@ioUserBlockStorage@@@std@@YAXV?$_Vector_iterator@V?$_Vector_val@UInvenBlockItem@ioUserBlockStorage@@V?$allocator@UInvenBlockItem@ioUserBlockStorage@@@std@@@std@@@0@0VInvenBlockItemSort@ioUserBlockStorage@@@Z ; std::sort<std::_Vector_iterator<std::_Vector_val<ioUserBlockStorage::InvenBlockItem,std::allocator<ioUserBlockStorage::InvenBlockItem> > >,ioUserBlockStorage::InvenBlockItemSort>

; 57   : 		std::copy( EnableList.begin(), EnableList.end(), std::back_inserter( m_InvenBlockItemList ) );

  0008f	56		 push	 esi
  00090	ff 75 d4	 push	 DWORD PTR _EnableList$[ebp+4]
  00093	8d 45 f0	 lea	 eax, DWORD PTR $T516016[ebp]
  00096	ff 75 d0	 push	 DWORD PTR _EnableList$[ebp]
  00099	50		 push	 eax
  0009a	e8 00 00 00 00	 call	 ??$copy@V?$_Vector_iterator@V?$_Vector_val@UInvenBlockItem@ioUserBlockStorage@@V?$allocator@UInvenBlockItem@ioUserBlockStorage@@@std@@@std@@@std@@V?$back_insert_iterator@V?$vector@UInvenBlockItem@ioUserBlockStorage@@V?$allocator@UInvenBlockItem@ioUserBlockStorage@@@std@@@std@@@2@@std@@YA?AV?$back_insert_iterator@V?$vector@UInvenBlockItem@ioUserBlockStorage@@V?$allocator@UInvenBlockItem@ioUserBlockStorage@@@std@@@std@@@0@V?$_Vector_iterator@V?$_Vector_val@UInvenBlockItem@ioUserBlockStorage@@V?$allocator@UInvenBlockItem@ioUserBlockStorage@@@std@@@std@@@0@0V10@@Z ; std::copy<std::_Vector_iterator<std::_Vector_val<ioUserBlockStorage::InvenBlockItem,std::allocator<ioUserBlockStorage::InvenBlockItem> > >,std::back_insert_iterator<std::vector<ioUserBlockStorage::InvenBlockItem,std::allocator<ioUserBlockStorage::InvenBlockItem> > > >
  0009f	83 c4 1c	 add	 esp, 28			; 0000001cH
$LN2@UpdateInve:

; 58   : 	}
; 59   : 
; 60   : 	if( !DisableList.empty() )

  000a2	8b 45 e0	 mov	 eax, DWORD PTR _DisableList$[ebp]
  000a5	3b 45 e4	 cmp	 eax, DWORD PTR _DisableList$[ebp+4]
  000a8	74 1f		 je	 SHORT $LN1@UpdateInve

; 61   : 	{
; 62   : 		std::sort( DisableList.begin(), DisableList.end(), InvenBlockItemSort() );

  000aa	ff 75 f0	 push	 DWORD PTR $T516017[ebp]
  000ad	ff 75 e4	 push	 DWORD PTR _DisableList$[ebp+4]
  000b0	50		 push	 eax
  000b1	e8 00 00 00 00	 call	 ??$sort@V?$_Vector_iterator@V?$_Vector_val@UInvenBlockItem@ioUserBlockStorage@@V?$allocator@UInvenBlockItem@ioUserBlockStorage@@@std@@@std@@@std@@VInvenBlockItemSort@ioUserBlockStorage@@@std@@YAXV?$_Vector_iterator@V?$_Vector_val@UInvenBlockItem@ioUserBlockStorage@@V?$allocator@UInvenBlockItem@ioUserBlockStorage@@@std@@@std@@@0@0VInvenBlockItemSort@ioUserBlockStorage@@@Z ; std::sort<std::_Vector_iterator<std::_Vector_val<ioUserBlockStorage::InvenBlockItem,std::allocator<ioUserBlockStorage::InvenBlockItem> > >,ioUserBlockStorage::InvenBlockItemSort>

; 63   : 		std::copy( DisableList.begin(), DisableList.end(), std::back_inserter( m_InvenBlockItemList ) );

  000b6	56		 push	 esi
  000b7	ff 75 e4	 push	 DWORD PTR _DisableList$[ebp+4]
  000ba	8d 45 f0	 lea	 eax, DWORD PTR $T516023[ebp]
  000bd	ff 75 e0	 push	 DWORD PTR _DisableList$[ebp]
  000c0	50		 push	 eax
  000c1	e8 00 00 00 00	 call	 ??$copy@V?$_Vector_iterator@V?$_Vector_val@UInvenBlockItem@ioUserBlockStorage@@V?$allocator@UInvenBlockItem@ioUserBlockStorage@@@std@@@std@@@std@@V?$back_insert_iterator@V?$vector@UInvenBlockItem@ioUserBlockStorage@@V?$allocator@UInvenBlockItem@ioUserBlockStorage@@@std@@@std@@@2@@std@@YA?AV?$back_insert_iterator@V?$vector@UInvenBlockItem@ioUserBlockStorage@@V?$allocator@UInvenBlockItem@ioUserBlockStorage@@@std@@@std@@@0@V?$_Vector_iterator@V?$_Vector_val@UInvenBlockItem@ioUserBlockStorage@@V?$allocator@UInvenBlockItem@ioUserBlockStorage@@@std@@@std@@@0@0V10@@Z ; std::copy<std::_Vector_iterator<std::_Vector_val<ioUserBlockStorage::InvenBlockItem,std::allocator<ioUserBlockStorage::InvenBlockItem> > >,std::back_insert_iterator<std::vector<ioUserBlockStorage::InvenBlockItem,std::allocator<ioUserBlockStorage::InvenBlockItem> > > >
  000c6	83 c4 1c	 add	 esp, 28			; 0000001cH
$LN1@UpdateInve:

; 64   : 	}
; 65   : }

  000c9	8d 4d e0	 lea	 ecx, DWORD PTR _DisableList$[ebp]
  000cc	88 5d fc	 mov	 BYTE PTR __$EHRec$[ebp+8], bl
  000cf	e8 00 00 00 00	 call	 ?_Tidy@?$vector@UInvenBlockItem@ioUserBlockStorage@@V?$allocator@UInvenBlockItem@ioUserBlockStorage@@@std@@@std@@IAEXXZ ; std::vector<ioUserBlockStorage::InvenBlockItem,std::allocator<ioUserBlockStorage::InvenBlockItem> >::_Tidy
  000d4	83 4d fc ff	 or	 DWORD PTR __$EHRec$[ebp+8], -1
  000d8	8d 4d d0	 lea	 ecx, DWORD PTR _EnableList$[ebp]
  000db	e8 00 00 00 00	 call	 ?_Tidy@?$vector@UInvenBlockItem@ioUserBlockStorage@@V?$allocator@UInvenBlockItem@ioUserBlockStorage@@@std@@@std@@IAEXXZ ; std::vector<ioUserBlockStorage::InvenBlockItem,std::allocator<ioUserBlockStorage::InvenBlockItem> >::_Tidy
  000e0	e8 00 00 00 00	 call	 __EH_epilog3
  000e5	c3		 ret	 0
_TEXT	ENDS
;	COMDAT text$x
text$x	SEGMENT
__unwindfunclet$?UpdateInvenBlockItem@ioUserBlockStorage@@QAEXXZ$0:
  00000	8d 4d d0	 lea	 ecx, DWORD PTR _EnableList$[ebp]
  00003	e9 00 00 00 00	 jmp	 ??1?$vector@UInvenBlockItem@ioUserBlockStorage@@V?$allocator@UInvenBlockItem@ioUserBlockStorage@@@std@@@std@@QAE@XZ ; std::vector<ioUserBlockStorage::InvenBlockItem,std::allocator<ioUserBlockStorage::InvenBlockItem> >::~vector<ioUserBlockStorage::InvenBlockItem,std::allocator<ioUserBlockStorage::InvenBlockItem> >
__unwindfunclet$?UpdateInvenBlockItem@ioUserBlockStorage@@QAEXXZ$1:
  00008	8d 4d e0	 lea	 ecx, DWORD PTR _DisableList$[ebp]
  0000b	e9 00 00 00 00	 jmp	 ??1?$vector@UInvenBlockItem@ioUserBlockStorage@@V?$allocator@UInvenBlockItem@ioUserBlockStorage@@@std@@@std@@QAE@XZ ; std::vector<ioUserBlockStorage::InvenBlockItem,std::allocator<ioUserBlockStorage::InvenBlockItem> >::~vector<ioUserBlockStorage::InvenBlockItem,std::allocator<ioUserBlockStorage::InvenBlockItem> >
__ehhandler$?UpdateInvenBlockItem@ioUserBlockStorage@@QAEXXZ:
  00010	8b 54 24 08	 mov	 edx, DWORD PTR [esp+8]
  00014	8d 42 0c	 lea	 eax, DWORD PTR [edx+12]
  00017	8b 4a cc	 mov	 ecx, DWORD PTR [edx-52]
  0001a	33 c8		 xor	 ecx, eax
  0001c	e8 00 00 00 00	 call	 @__security_check_cookie@4
  00021	b8 00 00 00 00	 mov	 eax, OFFSET __ehfuncinfo$?UpdateInvenBlockItem@ioUserBlockStorage@@QAEXXZ
  00026	e9 00 00 00 00	 jmp	 ___CxxFrameHandler3
text$x	ENDS
?UpdateInvenBlockItem@ioUserBlockStorage@@QAEXXZ ENDP	; ioUserBlockStorage::UpdateInvenBlockItem
PUBLIC	??_C@_0CJ@IJKLPMLD@ioGuildBlockStorage?3?3ApplyBlcokI@ ; `string'
PUBLIC	??_C@_00CNPNBAHC@?$AA@				; `string'
PUBLIC	?ApplyBlcokInvenItem@ioGuildBlockStorage@@QAEXAAVSP2Packet@@@Z ; ioGuildBlockStorage::ApplyBlcokInvenItem
EXTRN	?SetMsgBox@ioSP2GUIManager@@QAAXHPAVioWnd@@PBDZZ:PROC ; ioSP2GUIManager::SetMsgBox
EXTRN	?GetSingleton@ioSP2GUIManager@@SAAAV1@XZ:PROC	; ioSP2GUIManager::GetSingleton
EXTRN	__imp_?GetString@ioStringManager@@QAEPADPBD0HW4FileNamePrefix@1@@Z:PROC
EXTRN	__imp_?GetSingleton@ioStringManager@@SAAAV1@XZ:PROC
EXTRN	??5SP2Packet@@QAEAAV0@AAE@Z:PROC		; SP2Packet::operator>>
;	COMDAT ??_C@_0CJ@IJKLPMLD@ioGuildBlockStorage?3?3ApplyBlcokI@
CONST	SEGMENT
??_C@_0CJ@IJKLPMLD@ioGuildBlockStorage?3?3ApplyBlcokI@ DB 'ioGuildBlockSt'
	DB	'orage::ApplyBlcokInvenItem', 00H		; `string'
CONST	ENDS
;	COMDAT ??_C@_00CNPNBAHC@?$AA@
CONST	SEGMENT
??_C@_00CNPNBAHC@?$AA@ DB 00H				; `string'
; Function compile flags: /Ogsp
CONST	ENDS
;	COMDAT ?ApplyBlcokInvenItem@ioGuildBlockStorage@@QAEXAAVSP2Packet@@@Z
_TEXT	SEGMENT
_nCount$509030 = -20					; size = 4
_nCode$509029 = -16					; size = 4
_nCount$509024 = -12					; size = 4
_i$509025 = -8						; size = 4
_eReuslt$ = -1						; size = 1
_rkPacket$ = 8						; size = 4
?ApplyBlcokInvenItem@ioGuildBlockStorage@@QAEXAAVSP2Packet@@@Z PROC ; ioGuildBlockStorage::ApplyBlcokInvenItem, COMDAT
; _this$ = ecx

; 292  : {

  00000	55		 push	 ebp
  00001	8b ec		 mov	 ebp, esp
  00003	83 ec 14	 sub	 esp, 20			; 00000014H
  00006	56		 push	 esi
  00007	57		 push	 edi

; 293  : 	TCPNetwork::MouseBusy( false );

  00008	33 ff		 xor	 edi, edi
  0000a	57		 push	 edi
  0000b	8b f1		 mov	 esi, ecx
  0000d	e8 00 00 00 00	 call	 ?MouseBusy@TCPNetwork@@YAX_N@Z ; TCPNetwork::MouseBusy
  00012	59		 pop	 ecx

; 294  : 	byte eReuslt;
; 295  : 	rkPacket >> eReuslt;

  00013	8b 4d 08	 mov	 ecx, DWORD PTR _rkPacket$[ebp]
  00016	8d 45 ff	 lea	 eax, DWORD PTR _eReuslt$[ebp]
  00019	50		 push	 eax
  0001a	e8 00 00 00 00	 call	 ??5SP2Packet@@QAEAAV0@AAE@Z ; SP2Packet::operator>>

; 296  : 
; 297  : 	switch( eReuslt )

  0001f	0f b6 45 ff	 movzx	 eax, BYTE PTR _eReuslt$[ebp]
  00023	2b c7		 sub	 eax, edi
  00025	74 45		 je	 SHORT $LN8@ApplyBlcok@3
  00027	48		 dec	 eax
  00028	74 14		 je	 SHORT $LN3@ApplyBlcok@3
  0002a	48		 dec	 eax
  0002b	74 0c		 je	 SHORT $LN1@ApplyBlcok@3
  0002d	48		 dec	 eax
  0002e	0f 85 a9 00 00
	00		 jne	 $LN9@ApplyBlcok@3

; 328  : 	case REQUEST_INVEN_GUILD_ROOM_DISABLE:
; 329  : 		{
; 330  : 			g_GUIMgr.SetMsgBox( MB_OK, NULL, STR(2) );

  00034	57		 push	 edi
  00035	6a 02		 push	 2

; 331  : 		}
; 332  : 		break;

  00037	eb 08		 jmp	 SHORT $LN16@ApplyBlcok@3
$LN1@ApplyBlcok@3:

; 333  : 	case REQUEST_INVEN_EXCEPTION:
; 334  : 		{
; 335  : 			g_GUIMgr.SetMsgBox( MB_OK, NULL, STR(3) );

  00039	57		 push	 edi
  0003a	6a 03		 push	 3

; 336  : 		}
; 337  : 		break;

  0003c	eb 03		 jmp	 SHORT $LN16@ApplyBlcok@3
$LN3@ApplyBlcok@3:

; 321  : 		}
; 322  : 		break;
; 323  : 	case REQUEST_INVEN_GUILD_DATA_NONE:
; 324  : 		{
; 325  : 			g_GUIMgr.SetMsgBox( MB_OK, NULL, STR(1) );

  0003e	57		 push	 edi
  0003f	6a 01		 push	 1
$LN16@ApplyBlcok@3:
  00041	68 00 00 00 00	 push	 OFFSET ??_C@_00CNPNBAHC@?$AA@
  00046	68 00 00 00 00	 push	 OFFSET ??_C@_0CJ@IJKLPMLD@ioGuildBlockStorage?3?3ApplyBlcokI@
  0004b	ff 15 00 00 00
	00		 call	 DWORD PTR __imp_?GetSingleton@ioStringManager@@SAAAV1@XZ
  00051	8b c8		 mov	 ecx, eax
  00053	ff 15 00 00 00
	00		 call	 DWORD PTR __imp_?GetString@ioStringManager@@QAEPADPBD0HW4FileNamePrefix@1@@Z
  00059	50		 push	 eax
  0005a	57		 push	 edi
  0005b	57		 push	 edi
  0005c	e8 00 00 00 00	 call	 ?GetSingleton@ioSP2GUIManager@@SAAAV1@XZ ; ioSP2GUIManager::GetSingleton
  00061	50		 push	 eax
  00062	e8 00 00 00 00	 call	 ?SetMsgBox@ioSP2GUIManager@@QAAXHPAVioWnd@@PBDZZ ; ioSP2GUIManager::SetMsgBox
  00067	83 c4 10	 add	 esp, 16			; 00000010H

; 326  : 		}
; 327  : 		break;

  0006a	eb 71		 jmp	 SHORT $LN9@ApplyBlcok@3
$LN8@ApplyBlcok@3:

; 298  : 	{
; 299  : 	case REQUEST_INVEN_SUCCESS:
; 300  : 		{
; 301  : 			int nCount;
; 302  : 			rkPacket >> nCount;

  0006c	8b 4d 08	 mov	 ecx, DWORD PTR _rkPacket$[ebp]
  0006f	8d 45 f4	 lea	 eax, DWORD PTR _nCount$509024[ebp]
  00072	50		 push	 eax
  00073	e8 00 00 00 00	 call	 ??5SP2Packet@@QAEAAV0@AAH@Z ; SP2Packet::operator>>

; 303  : 
; 304  : 			m_dwBlockInvenSyncTime = FRAMEGETTIME();

  00078	ff 15 00 00 00
	00		 call	 DWORD PTR __imp_?GetSingleton@ioFrameTimer@@SAAAV1@XZ
  0007e	8b c8		 mov	 ecx, eax
  00080	ff 15 00 00 00
	00		 call	 DWORD PTR __imp_?GetLoopSec@ioFrameTimer@@QBEKXZ
  00086	89 46 28	 mov	 DWORD PTR [esi+40], eax

; 305  : 			InitInvenBlockItem();

  00089	8b 06		 mov	 eax, DWORD PTR [esi]
  0008b	8b ce		 mov	 ecx, esi
  0008d	ff 50 04	 call	 DWORD PTR [eax+4]

; 306  : 
; 307  : 			for( int i = 0; i < nCount; ++i )

  00090	89 7d f8	 mov	 DWORD PTR _i$509025[ebp], edi
  00093	39 7d f4	 cmp	 DWORD PTR _nCount$509024[ebp], edi
  00096	7e 3e		 jle	 SHORT $LN5@ApplyBlcok@3
  00098	53		 push	 ebx
$LL15@ApplyBlcok@3:

; 308  : 			{
; 309  : 				int nCode, nCount;
; 310  : 				rkPacket >> nCode >> nCount;

  00099	8b 4d 08	 mov	 ecx, DWORD PTR _rkPacket$[ebp]
  0009c	8d 45 ec	 lea	 eax, DWORD PTR _nCount$509030[ebp]
  0009f	50		 push	 eax
  000a0	8d 45 f0	 lea	 eax, DWORD PTR _nCode$509029[ebp]
  000a3	50		 push	 eax
  000a4	e8 00 00 00 00	 call	 ??5SP2Packet@@QAEAAV0@AAH@Z ; SP2Packet::operator>>
  000a9	8b c8		 mov	 ecx, eax
  000ab	e8 00 00 00 00	 call	 ??5SP2Packet@@QAEAAV0@AAH@Z ; SP2Packet::operator>>

; 311  : 
; 312  : 				InvenBlockItem* pItem = GetInvenBlockItemByCode( nCode, true );

  000b0	8b 5d f0	 mov	 ebx, DWORD PTR _nCode$509029[ebp]
  000b3	6a 01		 push	 1
  000b5	53		 push	 ebx
  000b6	8b ce		 mov	 ecx, esi
  000b8	e8 00 00 00 00	 call	 ?GetInvenBlockItemByCode@ioUserBlockStorage@@QAEPAUInvenBlockItem@1@H_N@Z ; ioUserBlockStorage::GetInvenBlockItemByCode

; 313  : 				if( pItem )

  000bd	3b c7		 cmp	 eax, edi
  000bf	74 09		 je	 SHORT $LN6@ApplyBlcok@3

; 314  : 				{
; 315  : 					pItem->m_nBlockCode	= nCode;

  000c1	89 58 20	 mov	 DWORD PTR [eax+32], ebx

; 316  : 					pItem->m_nCount		= nCount;

  000c4	8b 4d ec	 mov	 ecx, DWORD PTR _nCount$509030[ebp]
  000c7	89 48 30	 mov	 DWORD PTR [eax+48], ecx
$LN6@ApplyBlcok@3:

; 306  : 
; 307  : 			for( int i = 0; i < nCount; ++i )

  000ca	ff 45 f8	 inc	 DWORD PTR _i$509025[ebp]
  000cd	8b 45 f8	 mov	 eax, DWORD PTR _i$509025[ebp]
  000d0	3b 45 f4	 cmp	 eax, DWORD PTR _nCount$509024[ebp]
  000d3	7c c4		 jl	 SHORT $LL15@ApplyBlcok@3
  000d5	5b		 pop	 ebx
$LN5@ApplyBlcok@3:

; 317  : 				}
; 318  : 			}
; 319  : 
; 320  : 			UpdateInvenBlockItem();

  000d6	8b ce		 mov	 ecx, esi
  000d8	e8 00 00 00 00	 call	 ?UpdateInvenBlockItem@ioUserBlockStorage@@QAEXXZ ; ioUserBlockStorage::UpdateInvenBlockItem
$LN9@ApplyBlcok@3:
  000dd	5f		 pop	 edi
  000de	5e		 pop	 esi

; 338  : 
; 339  : 	}
; 340  : }

  000df	c9		 leave
  000e0	c2 04 00	 ret	 4
?ApplyBlcokInvenItem@ioGuildBlockStorage@@QAEXAAVSP2Packet@@@Z ENDP ; ioGuildBlockStorage::ApplyBlcokInvenItem
_TEXT	ENDS
PUBLIC	?ApplyBlcokInvenItem@ioHomeBlockStorage@@QAEXAAVSP2Packet@@@Z ; ioHomeBlockStorage::ApplyBlcokInvenItem
; Function compile flags: /Ogsp
;	COMDAT ?ApplyBlcokInvenItem@ioHomeBlockStorage@@QAEXAAVSP2Packet@@@Z
_TEXT	SEGMENT
_nCount$509104 = -12					; size = 4
_nCode$509103 = -8					; size = 4
_nCount$ = -4						; size = 4
_rkPacket$ = 8						; size = 4
?ApplyBlcokInvenItem@ioHomeBlockStorage@@QAEXAAVSP2Packet@@@Z PROC ; ioHomeBlockStorage::ApplyBlcokInvenItem, COMDAT
; _this$ = ecx

; 440  : {

  00000	55		 push	 ebp
  00001	8b ec		 mov	 ebp, esp
  00003	83 ec 0c	 sub	 esp, 12			; 0000000cH
  00006	53		 push	 ebx
  00007	56		 push	 esi

; 441  : 	TCPNetwork::MouseBusy( false );

  00008	33 db		 xor	 ebx, ebx
  0000a	53		 push	 ebx
  0000b	8b f1		 mov	 esi, ecx
  0000d	e8 00 00 00 00	 call	 ?MouseBusy@TCPNetwork@@YAX_N@Z ; TCPNetwork::MouseBusy
  00012	59		 pop	 ecx

; 442  : 
; 443  : 	int nCount;
; 444  : 	rkPacket >> nCount;

  00013	8b 4d 08	 mov	 ecx, DWORD PTR _rkPacket$[ebp]
  00016	8d 45 fc	 lea	 eax, DWORD PTR _nCount$[ebp]
  00019	50		 push	 eax
  0001a	e8 00 00 00 00	 call	 ??5SP2Packet@@QAEAAV0@AAH@Z ; SP2Packet::operator>>

; 445  : 
; 446  : 	m_dwBlockInvenSyncTime = FRAMEGETTIME();

  0001f	ff 15 00 00 00
	00		 call	 DWORD PTR __imp_?GetSingleton@ioFrameTimer@@SAAAV1@XZ
  00025	8b c8		 mov	 ecx, eax
  00027	ff 15 00 00 00
	00		 call	 DWORD PTR __imp_?GetLoopSec@ioFrameTimer@@QBEKXZ
  0002d	89 46 28	 mov	 DWORD PTR [esi+40], eax

; 447  : 	InitInvenBlockItem();

  00030	8b 06		 mov	 eax, DWORD PTR [esi]
  00032	8b ce		 mov	 ecx, esi
  00034	ff 50 04	 call	 DWORD PTR [eax+4]

; 448  : 
; 449  : 	for( int i = 0; i < nCount; ++i )

  00037	39 5d fc	 cmp	 DWORD PTR _nCount$[ebp], ebx
  0003a	7e 39		 jle	 SHORT $LN2@ApplyBlcok@4
  0003c	57		 push	 edi
$LL9@ApplyBlcok@4:

; 450  : 	{
; 451  : 		int nCode, nCount;
; 452  : 		rkPacket >> nCode >> nCount;

  0003d	8b 4d 08	 mov	 ecx, DWORD PTR _rkPacket$[ebp]
  00040	8d 45 f4	 lea	 eax, DWORD PTR _nCount$509104[ebp]
  00043	50		 push	 eax
  00044	8d 45 f8	 lea	 eax, DWORD PTR _nCode$509103[ebp]
  00047	50		 push	 eax
  00048	e8 00 00 00 00	 call	 ??5SP2Packet@@QAEAAV0@AAH@Z ; SP2Packet::operator>>
  0004d	8b c8		 mov	 ecx, eax
  0004f	e8 00 00 00 00	 call	 ??5SP2Packet@@QAEAAV0@AAH@Z ; SP2Packet::operator>>

; 453  : 
; 454  : 		InvenBlockItem* pItem = GetInvenBlockItemByCode( nCode, true );

  00054	8b 7d f8	 mov	 edi, DWORD PTR _nCode$509103[ebp]
  00057	6a 01		 push	 1
  00059	57		 push	 edi
  0005a	8b ce		 mov	 ecx, esi
  0005c	e8 00 00 00 00	 call	 ?GetInvenBlockItemByCode@ioUserBlockStorage@@QAEPAUInvenBlockItem@1@H_N@Z ; ioUserBlockStorage::GetInvenBlockItemByCode

; 455  : 		if( pItem )

  00061	85 c0		 test	 eax, eax
  00063	74 09		 je	 SHORT $LN3@ApplyBlcok@4

; 456  : 		{
; 457  : 			pItem->m_nBlockCode	= nCode;

  00065	89 78 20	 mov	 DWORD PTR [eax+32], edi

; 458  : 			pItem->m_nCount		= nCount;

  00068	8b 4d f4	 mov	 ecx, DWORD PTR _nCount$509104[ebp]
  0006b	89 48 30	 mov	 DWORD PTR [eax+48], ecx
$LN3@ApplyBlcok@4:

; 448  : 
; 449  : 	for( int i = 0; i < nCount; ++i )

  0006e	43		 inc	 ebx
  0006f	3b 5d fc	 cmp	 ebx, DWORD PTR _nCount$[ebp]
  00072	7c c9		 jl	 SHORT $LL9@ApplyBlcok@4
  00074	5f		 pop	 edi
$LN2@ApplyBlcok@4:

; 459  : 		}
; 460  : 	}
; 461  : 
; 462  : 	UpdateInvenBlockItem();

  00075	8b ce		 mov	 ecx, esi
  00077	e8 00 00 00 00	 call	 ?UpdateInvenBlockItem@ioUserBlockStorage@@QAEXXZ ; ioUserBlockStorage::UpdateInvenBlockItem
  0007c	5e		 pop	 esi
  0007d	5b		 pop	 ebx

; 463  : }

  0007e	c9		 leave
  0007f	c2 04 00	 ret	 4
?ApplyBlcokInvenItem@ioHomeBlockStorage@@QAEXAAVSP2Packet@@@Z ENDP ; ioHomeBlockStorage::ApplyBlcokInvenItem
_TEXT	ENDS
EXTRN	__imp_?GetPacketID@CPacket@@QBEKXZ:PROC
; Function compile flags: /Ogsp
;	COMDAT ?ProcessTCPPacket@ioGuildBlockStorage@@UAE_NAAVSP2Packet@@@Z
_TEXT	SEGMENT
_rkPacket$ = 8						; size = 4
?ProcessTCPPacket@ioGuildBlockStorage@@UAE_NAAVSP2Packet@@@Z PROC ; ioGuildBlockStorage::ProcessTCPPacket, COMDAT
; _this$ = ecx

; 251  : {

  00000	55		 push	 ebp
  00001	8b ec		 mov	 ebp, esp
  00003	56		 push	 esi
  00004	8b f1		 mov	 esi, ecx

; 252  : 	switch( rkPacket.GetPacketID() )

  00006	8b 4d 08	 mov	 ecx, DWORD PTR _rkPacket$[ebp]
  00009	ff 15 00 00 00
	00		 call	 DWORD PTR __imp_?GetPacketID@CPacket@@QBEKXZ
  0000f	2d 34 25 00 00	 sub	 eax, 9524		; 00002534H
  00014	74 15		 je	 SHORT $LN2@ProcessTCP
  00016	83 e8 04	 sub	 eax, 4
  00019	74 04		 je	 SHORT $LN1@ProcessTCP

; 264  : 		}
; 265  : 		break;
; 266  : 	}
; 267  : 
; 268  : 	return false;

  0001b	32 c0		 xor	 al, al
  0001d	eb 18		 jmp	 SHORT $LN5@ProcessTCP
$LN1@ProcessTCP:

; 258  : 		}
; 259  : 		break;
; 260  : 	case STPK_GUILD_INVEN_INFO:
; 261  : 		{
; 262  : 			ApplyBlcokInvenItem( rkPacket );

  0001f	ff 75 08	 push	 DWORD PTR _rkPacket$[ebp]
  00022	8b ce		 mov	 ecx, esi
  00024	e8 00 00 00 00	 call	 ?ApplyBlcokInvenItem@ioGuildBlockStorage@@QAEXAAVSP2Packet@@@Z ; ioGuildBlockStorage::ApplyBlcokInvenItem

; 263  : 			return true;

  00029	eb 0a		 jmp	 SHORT $LN7@ProcessTCP
$LN2@ProcessTCP:

; 253  : 	{
; 254  : 	case STPK_GUILD_BLOCK_INFOS:
; 255  : 		{
; 256  : 			ApplyBlcokDBItem( rkPacket );

  0002b	ff 75 08	 push	 DWORD PTR _rkPacket$[ebp]
  0002e	8b ce		 mov	 ecx, esi
  00030	e8 00 00 00 00	 call	 ?ApplyBlcokDBItem@ioGuildBlockStorage@@QAEXAAVSP2Packet@@@Z ; ioGuildBlockStorage::ApplyBlcokDBItem
$LN7@ProcessTCP:

; 257  : 			return true;

  00035	b0 01		 mov	 al, 1
$LN5@ProcessTCP:
  00037	5e		 pop	 esi

; 269  : }

  00038	5d		 pop	 ebp
  00039	c2 04 00	 ret	 4
?ProcessTCPPacket@ioGuildBlockStorage@@UAE_NAAVSP2Packet@@@Z ENDP ; ioGuildBlockStorage::ProcessTCPPacket
; Function compile flags: /Ogsp
_TEXT	ENDS
;	COMDAT ?ProcessTCPPacket@ioHomeBlockStorage@@UAE_NAAVSP2Packet@@@Z
_TEXT	SEGMENT
_rkPacket$ = 8						; size = 4
?ProcessTCPPacket@ioHomeBlockStorage@@UAE_NAAVSP2Packet@@@Z PROC ; ioHomeBlockStorage::ProcessTCPPacket, COMDAT
; _this$ = ecx

; 400  : {

  00000	55		 push	 ebp
  00001	8b ec		 mov	 ebp, esp
  00003	56		 push	 esi
  00004	8b f1		 mov	 esi, ecx

; 401  : 	switch( rkPacket.GetPacketID() )

  00006	8b 4d 08	 mov	 ecx, DWORD PTR _rkPacket$[ebp]
  00009	ff 15 00 00 00
	00		 call	 DWORD PTR __imp_?GetPacketID@CPacket@@QBEKXZ
  0000f	2d 47 25 00 00	 sub	 eax, 9543		; 00002547H
  00014	74 11		 je	 SHORT $LN1@ProcessTCP@2
  00016	48		 dec	 eax
  00017	75 0a		 jne	 SHORT $LN3@ProcessTCP@2

; 402  : 	{
; 403  : 	case STPK_PERSONAL_HQ_BLOCKS_INFO:
; 404  : 		{
; 405  : 			ApplyBlcokDBItem( rkPacket );

  00019	ff 75 08	 push	 DWORD PTR _rkPacket$[ebp]
  0001c	8b ce		 mov	 ecx, esi
  0001e	e8 00 00 00 00	 call	 ?ApplyBlcokDBItem@ioHomeBlockStorage@@QAEXAAVSP2Packet@@@Z ; ioHomeBlockStorage::ApplyBlcokDBItem
$LN3@ProcessTCP@2:

; 412  : 		}
; 413  : 		break;
; 414  : 	}
; 415  : 
; 416  : 	return false;

  00023	32 c0		 xor	 al, al
  00025	eb 0c		 jmp	 SHORT $LN5@ProcessTCP@2
$LN1@ProcessTCP@2:

; 406  : 		}
; 407  : 		break;
; 408  : 	case STPK_PERSONAL_HQ_INVEN_DATA:
; 409  : 		{
; 410  : 			ApplyBlcokInvenItem( rkPacket );

  00027	ff 75 08	 push	 DWORD PTR _rkPacket$[ebp]
  0002a	8b ce		 mov	 ecx, esi
  0002c	e8 00 00 00 00	 call	 ?ApplyBlcokInvenItem@ioHomeBlockStorage@@QAEXAAVSP2Packet@@@Z ; ioHomeBlockStorage::ApplyBlcokInvenItem

; 411  : 			return true;

  00031	b0 01		 mov	 al, 1
$LN5@ProcessTCP@2:
  00033	5e		 pop	 esi

; 417  : }

  00034	5d		 pop	 ebp
  00035	c2 04 00	 ret	 4
?ProcessTCPPacket@ioHomeBlockStorage@@UAE_NAAVSP2Packet@@@Z ENDP ; ioHomeBlockStorage::ProcessTCPPacket
_TEXT	ENDS
_BSS	SEGMENT
_ZERO_TILE_POS DB 010H DUP (?)
_BSS	ENDS
END
