; Listing generated by Microsoft (R) Optimizing Compiler Version 16.00.30319.01 

	TITLE	D:\Lost Saga For Developer\Youtube\Tutorial\Source\src\LSClient\ioUserFishItem.cpp
	.686P
	.XMM
	include listing.inc
	.model	flat

INCLUDELIB MSVCRT
INCLUDELIB OLDNAMES

PUBLIC	??_7bad_alloc@std@@6B@				; std::bad_alloc::`vftable'
PUBLIC	??0bad_alloc@std@@QAE@PBD@Z			; std::bad_alloc::bad_alloc
PUBLIC	??_R4bad_alloc@std@@6B@				; std::bad_alloc::`RTTI Complete Object Locator'
PUBLIC	??_R0?AVbad_alloc@std@@@8			; std::bad_alloc `RTTI Type Descriptor'
PUBLIC	??_R3bad_alloc@std@@8				; std::bad_alloc::`RTTI Class Hierarchy Descriptor'
PUBLIC	??_R2bad_alloc@std@@8				; std::bad_alloc::`RTTI Base Class Array'
PUBLIC	??_R1A@?0A@EA@bad_alloc@std@@8			; std::bad_alloc::`RTTI Base Class Descriptor at (0,-1,0,64)'
PUBLIC	??_R1A@?0A@EA@exception@std@@8			; std::exception::`RTTI Base Class Descriptor at (0,-1,0,64)'
PUBLIC	??_R0?AVexception@std@@@8			; std::exception `RTTI Type Descriptor'
PUBLIC	??_R3exception@std@@8				; std::exception::`RTTI Class Hierarchy Descriptor'
PUBLIC	??_R2exception@std@@8				; std::exception::`RTTI Base Class Array'
EXTRN	__imp_??0exception@std@@QAE@ABQBD@Z:PROC
EXTRN	??_7type_info@@6B@:QWORD			; type_info::`vftable'
EXTRN	??_Ebad_alloc@std@@UAEPAXI@Z:PROC		; std::bad_alloc::`vector deleting destructor'
EXTRN	?what@exception@std@@UBEPBDXZ:PROC		; std::exception::what
;	COMDAT ??_R2exception@std@@8
; File c:\program files (x86)\microsoft visual studio 10.0\vc\include\exception
rdata$r	SEGMENT
??_R2exception@std@@8 DD FLAT:??_R1A@?0A@EA@exception@std@@8 ; std::exception::`RTTI Base Class Array'
rdata$r	ENDS
;	COMDAT ??_R3exception@std@@8
rdata$r	SEGMENT
??_R3exception@std@@8 DD 00H				; std::exception::`RTTI Class Hierarchy Descriptor'
	DD	00H
	DD	01H
	DD	FLAT:??_R2exception@std@@8
rdata$r	ENDS
;	COMDAT ??_R0?AVexception@std@@@8
_DATA	SEGMENT
??_R0?AVexception@std@@@8 DD FLAT:??_7type_info@@6B@	; std::exception `RTTI Type Descriptor'
	DD	00H
	DB	'.?AVexception@std@@', 00H
_DATA	ENDS
;	COMDAT ??_R1A@?0A@EA@exception@std@@8
rdata$r	SEGMENT
??_R1A@?0A@EA@exception@std@@8 DD FLAT:??_R0?AVexception@std@@@8 ; std::exception::`RTTI Base Class Descriptor at (0,-1,0,64)'
	DD	00H
	DD	00H
	DD	0ffffffffH
	DD	00H
	DD	040H
	DD	FLAT:??_R3exception@std@@8
rdata$r	ENDS
;	COMDAT ??_R1A@?0A@EA@bad_alloc@std@@8
rdata$r	SEGMENT
??_R1A@?0A@EA@bad_alloc@std@@8 DD FLAT:??_R0?AVbad_alloc@std@@@8 ; std::bad_alloc::`RTTI Base Class Descriptor at (0,-1,0,64)'
	DD	01H
	DD	00H
	DD	0ffffffffH
	DD	00H
	DD	040H
	DD	FLAT:??_R3bad_alloc@std@@8
rdata$r	ENDS
;	COMDAT ??_R2bad_alloc@std@@8
rdata$r	SEGMENT
??_R2bad_alloc@std@@8 DD FLAT:??_R1A@?0A@EA@bad_alloc@std@@8 ; std::bad_alloc::`RTTI Base Class Array'
	DD	FLAT:??_R1A@?0A@EA@exception@std@@8
rdata$r	ENDS
;	COMDAT ??_R3bad_alloc@std@@8
rdata$r	SEGMENT
??_R3bad_alloc@std@@8 DD 00H				; std::bad_alloc::`RTTI Class Hierarchy Descriptor'
	DD	00H
	DD	02H
	DD	FLAT:??_R2bad_alloc@std@@8
rdata$r	ENDS
;	COMDAT ??_R0?AVbad_alloc@std@@@8
_DATA	SEGMENT
??_R0?AVbad_alloc@std@@@8 DD FLAT:??_7type_info@@6B@	; std::bad_alloc `RTTI Type Descriptor'
	DD	00H
	DB	'.?AVbad_alloc@std@@', 00H
_DATA	ENDS
;	COMDAT ??_R4bad_alloc@std@@6B@
rdata$r	SEGMENT
??_R4bad_alloc@std@@6B@ DD 00H				; std::bad_alloc::`RTTI Complete Object Locator'
	DD	00H
	DD	00H
	DD	FLAT:??_R0?AVbad_alloc@std@@@8
	DD	FLAT:??_R3bad_alloc@std@@8
rdata$r	ENDS
;	COMDAT ??_7bad_alloc@std@@6B@
CONST	SEGMENT
??_7bad_alloc@std@@6B@ DD FLAT:??_R4bad_alloc@std@@6B@	; std::bad_alloc::`vftable'
	DD	FLAT:??_Ebad_alloc@std@@UAEPAXI@Z
	DD	FLAT:?what@exception@std@@UBEPBDXZ
; Function compile flags: /Ogsp
CONST	ENDS
;	COMDAT ??0bad_alloc@std@@QAE@PBD@Z
_TEXT	SEGMENT
__Message$ = 8						; size = 4
??0bad_alloc@std@@QAE@PBD@Z PROC			; std::bad_alloc::bad_alloc, COMDAT
; _this$ = ecx

; 345  : 		{	// construct from message string

  00000	55		 push	 ebp
  00001	8b ec		 mov	 ebp, esp
  00003	56		 push	 esi
  00004	8d 45 08	 lea	 eax, DWORD PTR __Message$[ebp]
  00007	50		 push	 eax
  00008	8b f1		 mov	 esi, ecx
  0000a	ff 15 00 00 00
	00		 call	 DWORD PTR __imp_??0exception@std@@QAE@ABQBD@Z
  00010	c7 06 00 00 00
	00		 mov	 DWORD PTR [esi], OFFSET ??_7bad_alloc@std@@6B@

; 346  : 		}

  00016	8b c6		 mov	 eax, esi
  00018	5e		 pop	 esi
  00019	5d		 pop	 ebp
  0001a	c2 04 00	 ret	 4
??0bad_alloc@std@@QAE@PBD@Z ENDP			; std::bad_alloc::bad_alloc
_TEXT	ENDS
PUBLIC	??1bad_alloc@std@@UAE@XZ			; std::bad_alloc::~bad_alloc
EXTRN	__imp_??1exception@std@@UAE@XZ:PROC
; Function compile flags: /Ogsp
;	COMDAT ??1bad_alloc@std@@UAE@XZ
_TEXT	SEGMENT
??1bad_alloc@std@@UAE@XZ PROC				; std::bad_alloc::~bad_alloc, COMDAT
; _this$ = ecx

; 354  : 		{	// destroy the object

  00000	c7 01 00 00 00
	00		 mov	 DWORD PTR [ecx], OFFSET ??_7bad_alloc@std@@6B@

; 355  : 		}

  00006	ff 25 00 00 00
	00		 jmp	 DWORD PTR __imp_??1exception@std@@UAE@XZ
??1bad_alloc@std@@UAE@XZ ENDP				; std::bad_alloc::~bad_alloc
_TEXT	ENDS
EXTRN	??3@YAXPAX@Z:PROC				; operator delete
; Function compile flags: /Ogsp
;	COMDAT ??_Gbad_alloc@std@@UAEPAXI@Z
_TEXT	SEGMENT
___flags$ = 8						; size = 4
??_Gbad_alloc@std@@UAEPAXI@Z PROC			; std::bad_alloc::`scalar deleting destructor', COMDAT
; _this$ = ecx
  00000	55		 push	 ebp
  00001	8b ec		 mov	 ebp, esp
  00003	56		 push	 esi
  00004	8b f1		 mov	 esi, ecx
  00006	c7 06 00 00 00
	00		 mov	 DWORD PTR [esi], OFFSET ??_7bad_alloc@std@@6B@
  0000c	ff 15 00 00 00
	00		 call	 DWORD PTR __imp_??1exception@std@@UAE@XZ
  00012	f6 45 08 01	 test	 BYTE PTR ___flags$[ebp], 1
  00016	74 07		 je	 SHORT $LN1@scalar
  00018	56		 push	 esi
  00019	e8 00 00 00 00	 call	 ??3@YAXPAX@Z		; operator delete
  0001e	59		 pop	 ecx
$LN1@scalar:
  0001f	8b c6		 mov	 eax, esi
  00021	5e		 pop	 esi
  00022	5d		 pop	 ebp
  00023	c2 04 00	 ret	 4
??_Gbad_alloc@std@@UAEPAXI@Z ENDP			; std::bad_alloc::`scalar deleting destructor'
_TEXT	ENDS
PUBLIC	??2@YAPAXIPAX@Z					; operator new
; Function compile flags: /Ogsp
; File c:\program files (x86)\microsoft visual studio 10.0\vc\include\new
;	COMDAT ??2@YAPAXIPAX@Z
_TEXT	SEGMENT
___formal$ = 8						; size = 4
__Where$ = 12						; size = 4
??2@YAPAXIPAX@Z PROC					; operator new, COMDAT

; 56   : 	{	// construct array with placement at _Where

  00000	55		 push	 ebp
  00001	8b ec		 mov	 ebp, esp

; 57   : 	return (_Where);

  00003	8b 45 0c	 mov	 eax, DWORD PTR __Where$[ebp]

; 58   : 	}

  00006	5d		 pop	 ebp
  00007	c3		 ret	 0
??2@YAPAXIPAX@Z ENDP					; operator new
_TEXT	ENDS
PUBLIC	??3@YAXPAX0@Z					; operator delete
; Function compile flags: /Ogsp
;	COMDAT ??3@YAXPAX0@Z
_TEXT	SEGMENT
___formal$ = 8						; size = 4
___formal$ = 12						; size = 4
??3@YAXPAX0@Z PROC					; operator delete, COMDAT

; 62   : 	}

  00000	c3		 ret	 0
??3@YAXPAX0@Z ENDP					; operator delete
_TEXT	ENDS
PUBLIC	?size@?$vector@UFishItem@@V?$allocator@UFishItem@@@std@@@std@@QBEIXZ ; std::vector<FishItem,std::allocator<FishItem> >::size
; Function compile flags: /Ogsp
; File c:\program files (x86)\microsoft visual studio 10.0\vc\include\vector
;	COMDAT ?size@?$vector@UFishItem@@V?$allocator@UFishItem@@@std@@@std@@QBEIXZ
_TEXT	SEGMENT
?size@?$vector@UFishItem@@V?$allocator@UFishItem@@@std@@@std@@QBEIXZ PROC ; std::vector<FishItem,std::allocator<FishItem> >::size, COMDAT
; _this$ = ecx

; 879  : 		return (this->_Mylast - this->_Myfirst);

  00000	8b 41 04	 mov	 eax, DWORD PTR [ecx+4]
  00003	2b 01		 sub	 eax, DWORD PTR [ecx]
  00005	c1 f8 03	 sar	 eax, 3

; 880  : 		}

  00008	c3		 ret	 0
?size@?$vector@UFishItem@@V?$allocator@UFishItem@@@std@@@std@@QBEIXZ ENDP ; std::vector<FishItem,std::allocator<FishItem> >::size
_TEXT	ENDS
PUBLIC	??A?$vector@UFishItem@@V?$allocator@UFishItem@@@std@@@std@@QAEAAUFishItem@@I@Z ; std::vector<FishItem,std::allocator<FishItem> >::operator[]
; Function compile flags: /Ogsp
;	COMDAT ??A?$vector@UFishItem@@V?$allocator@UFishItem@@@std@@@std@@QAEAAUFishItem@@I@Z
_TEXT	SEGMENT
__Pos$ = 8						; size = 4
??A?$vector@UFishItem@@V?$allocator@UFishItem@@@std@@@std@@QAEAAUFishItem@@I@Z PROC ; std::vector<FishItem,std::allocator<FishItem> >::operator[], COMDAT
; _this$ = ecx

; 928  : 		{	// subscript mutable sequence

  00000	55		 push	 ebp
  00001	8b ec		 mov	 ebp, esp

; 929  :  #if _ITERATOR_DEBUG_LEVEL == 2
; 930  : 		if (size() <= _Pos)
; 931  : 			{	// report error
; 932  : 			_DEBUG_ERROR("vector subscript out of range");
; 933  : 			_SCL_SECURE_OUT_OF_RANGE;
; 934  : 			}
; 935  : 
; 936  :  #elif _ITERATOR_DEBUG_LEVEL == 1
; 937  : 		_SCL_SECURE_VALIDATE_RANGE(_Pos < size());
; 938  :  #endif /* _ITERATOR_DEBUG_LEVEL */
; 939  : 
; 940  : 		return (*(this->_Myfirst + _Pos));

  00003	8b 01		 mov	 eax, DWORD PTR [ecx]
  00005	8b 4d 08	 mov	 ecx, DWORD PTR __Pos$[ebp]
  00008	8d 04 c8	 lea	 eax, DWORD PTR [eax+ecx*8]

; 941  : 		}

  0000b	5d		 pop	 ebp
  0000c	c2 04 00	 ret	 4
??A?$vector@UFishItem@@V?$allocator@UFishItem@@@std@@@std@@QAEAAUFishItem@@I@Z ENDP ; std::vector<FishItem,std::allocator<FishItem> >::operator[]
_TEXT	ENDS
PUBLIC	?_Inside@?$vector@UFishItem@@V?$allocator@UFishItem@@@std@@@std@@IBE_NPBUFishItem@@@Z ; std::vector<FishItem,std::allocator<FishItem> >::_Inside
; Function compile flags: /Ogsp
;	COMDAT ?_Inside@?$vector@UFishItem@@V?$allocator@UFishItem@@@std@@@std@@IBE_NPBUFishItem@@@Z
_TEXT	SEGMENT
__Ptr$ = 8						; size = 4
?_Inside@?$vector@UFishItem@@V?$allocator@UFishItem@@@std@@@std@@IBE_NPBUFishItem@@@Z PROC ; std::vector<FishItem,std::allocator<FishItem> >::_Inside, COMDAT
; _this$ = ecx

; 1285 : 		{	// test if _Ptr points inside vector

  00000	55		 push	 ebp
  00001	8b ec		 mov	 ebp, esp

; 1286 : 		return (_Ptr < this->_Mylast && this->_Myfirst <= _Ptr);

  00003	8b 45 08	 mov	 eax, DWORD PTR __Ptr$[ebp]
  00006	3b 41 04	 cmp	 eax, DWORD PTR [ecx+4]
  00009	73 09		 jae	 SHORT $LN3@Inside
  0000b	39 01		 cmp	 DWORD PTR [ecx], eax
  0000d	77 05		 ja	 SHORT $LN3@Inside
  0000f	33 c0		 xor	 eax, eax
  00011	40		 inc	 eax
  00012	eb 02		 jmp	 SHORT $LN4@Inside
$LN3@Inside:
  00014	33 c0		 xor	 eax, eax
$LN4@Inside:

; 1287 : 		}

  00016	5d		 pop	 ebp
  00017	c2 04 00	 ret	 4
?_Inside@?$vector@UFishItem@@V?$allocator@UFishItem@@@std@@@std@@IBE_NPBUFishItem@@@Z ENDP ; std::vector<FishItem,std::allocator<FishItem> >::_Inside
_TEXT	ENDS
PUBLIC	?_Orphan_range@?$vector@UFishItem@@V?$allocator@UFishItem@@@std@@@std@@IBEXPAUFishItem@@0@Z ; std::vector<FishItem,std::allocator<FishItem> >::_Orphan_range
; Function compile flags: /Ogsp
;	COMDAT ?_Orphan_range@?$vector@UFishItem@@V?$allocator@UFishItem@@@std@@@std@@IBEXPAUFishItem@@0@Z
_TEXT	SEGMENT
___formal$ = 8						; size = 4
___formal$ = 12						; size = 4
?_Orphan_range@?$vector@UFishItem@@V?$allocator@UFishItem@@@std@@@std@@IBEXPAUFishItem@@0@Z PROC ; std::vector<FishItem,std::allocator<FishItem> >::_Orphan_range, COMDAT
; _this$ = ecx

; 1454 : 		}

  00000	c2 08 00	 ret	 8
?_Orphan_range@?$vector@UFishItem@@V?$allocator@UFishItem@@@std@@@std@@IBEXPAUFishItem@@0@Z ENDP ; std::vector<FishItem,std::allocator<FishItem> >::_Orphan_range
_TEXT	ENDS
PUBLIC	??1?$_Vector_val@UFishItem@@V?$allocator@UFishItem@@@std@@@std@@QAE@XZ ; std::_Vector_val<FishItem,std::allocator<FishItem> >::~_Vector_val<FishItem,std::allocator<FishItem> >
; Function compile flags: /Ogsp
;	COMDAT ??1?$_Vector_val@UFishItem@@V?$allocator@UFishItem@@@std@@@std@@QAE@XZ
_TEXT	SEGMENT
??1?$_Vector_val@UFishItem@@V?$allocator@UFishItem@@@std@@@std@@QAE@XZ PROC ; std::_Vector_val<FishItem,std::allocator<FishItem> >::~_Vector_val<FishItem,std::allocator<FishItem> >, COMDAT
; _this$ = ecx

; 434  : 		}

  00000	c3		 ret	 0
??1?$_Vector_val@UFishItem@@V?$allocator@UFishItem@@@std@@@std@@QAE@XZ ENDP ; std::_Vector_val<FishItem,std::allocator<FishItem> >::~_Vector_val<FishItem,std::allocator<FishItem> >
_TEXT	ENDS
PUBLIC	??0?$allocator@UFishItem@@@std@@QAE@XZ		; std::allocator<FishItem>::allocator<FishItem>
; Function compile flags: /Ogsp
; File c:\program files (x86)\microsoft visual studio 10.0\vc\include\xmemory
;	COMDAT ??0?$allocator@UFishItem@@@std@@QAE@XZ
_TEXT	SEGMENT
??0?$allocator@UFishItem@@@std@@QAE@XZ PROC		; std::allocator<FishItem>::allocator<FishItem>, COMDAT
; _this$ = ecx

; 161  : 	_ALLOCATOR() _THROW0()

  00000	8b c1		 mov	 eax, ecx

; 162  : 		{	// construct default allocator (do nothing)
; 163  : 		}

  00002	c3		 ret	 0
??0?$allocator@UFishItem@@@std@@QAE@XZ ENDP		; std::allocator<FishItem>::allocator<FishItem>
_TEXT	ENDS
PUBLIC	?_Adopt@_Iterator_base0@std@@QAEXPBX@Z		; std::_Iterator_base0::_Adopt
; Function compile flags: /Ogsp
; File c:\program files (x86)\microsoft visual studio 10.0\vc\include\xutility
;	COMDAT ?_Adopt@_Iterator_base0@std@@QAEXPBX@Z
_TEXT	SEGMENT
___formal$ = 8						; size = 4
?_Adopt@_Iterator_base0@std@@QAEXPBX@Z PROC		; std::_Iterator_base0::_Adopt, COMDAT
; _this$ = ecx

; 49   : 		}

  00000	c2 04 00	 ret	 4
?_Adopt@_Iterator_base0@std@@QAEXPBX@Z ENDP		; std::_Iterator_base0::_Adopt
_TEXT	ENDS
PUBLIC	?capacity@?$vector@UFishItem@@V?$allocator@UFishItem@@@std@@@std@@QBEIXZ ; std::vector<FishItem,std::allocator<FishItem> >::capacity
; Function compile flags: /Ogsp
; File c:\program files (x86)\microsoft visual studio 10.0\vc\include\vector
;	COMDAT ?capacity@?$vector@UFishItem@@V?$allocator@UFishItem@@@std@@@std@@QBEIXZ
_TEXT	SEGMENT
?capacity@?$vector@UFishItem@@V?$allocator@UFishItem@@@std@@@std@@QBEIXZ PROC ; std::vector<FishItem,std::allocator<FishItem> >::capacity, COMDAT
; _this$ = ecx

; 777  : 		return (this->_Myend - this->_Myfirst);

  00000	8b 41 08	 mov	 eax, DWORD PTR [ecx+8]
  00003	2b 01		 sub	 eax, DWORD PTR [ecx]
  00005	c1 f8 03	 sar	 eax, 3

; 778  : 		}

  00008	c3		 ret	 0
?capacity@?$vector@UFishItem@@V?$allocator@UFishItem@@@std@@@std@@QBEIXZ ENDP ; std::vector<FishItem,std::allocator<FishItem> >::capacity
_TEXT	ENDS
PUBLIC	??_C@_0BD@OLBABOEK@vector?$DMT?$DO?5too?5long?$AA@ ; `string'
PUBLIC	?_Xlen@?$vector@UFishItem@@V?$allocator@UFishItem@@@std@@@std@@IBEXXZ ; std::vector<FishItem,std::allocator<FishItem> >::_Xlen
EXTRN	__imp_?_Xlength_error@std@@YAXPBD@Z:PROC
;	COMDAT ??_C@_0BD@OLBABOEK@vector?$DMT?$DO?5too?5long?$AA@
CONST	SEGMENT
??_C@_0BD@OLBABOEK@vector?$DMT?$DO?5too?5long?$AA@ DB 'vector<T> too long'
	DB	00H						; `string'
; Function compile flags: /Ogsp
CONST	ENDS
;	COMDAT ?_Xlen@?$vector@UFishItem@@V?$allocator@UFishItem@@@std@@@std@@IBEXXZ
_TEXT	SEGMENT
?_Xlen@?$vector@UFishItem@@V?$allocator@UFishItem@@@std@@@std@@IBEXXZ PROC ; std::vector<FishItem,std::allocator<FishItem> >::_Xlen, COMDAT
; _this$ = ecx

; 1427 : 		_Xlength_error("vector<T> too long");

  00000	68 00 00 00 00	 push	 OFFSET ??_C@_0BD@OLBABOEK@vector?$DMT?$DO?5too?5long?$AA@
  00005	ff 15 00 00 00
	00		 call	 DWORD PTR __imp_?_Xlength_error@std@@YAXPBD@Z
$LN4@Xlen:
$LN3@Xlen:
  0000b	cc		 int	 3
?_Xlen@?$vector@UFishItem@@V?$allocator@UFishItem@@@std@@@std@@IBEXXZ ENDP ; std::vector<FishItem,std::allocator<FishItem> >::_Xlen
_TEXT	ENDS
PUBLIC	??0?$allocator@UFishItem@@@std@@QAE@ABV01@@Z	; std::allocator<FishItem>::allocator<FishItem>
; Function compile flags: /Ogsp
; File c:\program files (x86)\microsoft visual studio 10.0\vc\include\xmemory
;	COMDAT ??0?$allocator@UFishItem@@@std@@QAE@ABV01@@Z
_TEXT	SEGMENT
___formal$ = 8						; size = 4
??0?$allocator@UFishItem@@@std@@QAE@ABV01@@Z PROC	; std::allocator<FishItem>::allocator<FishItem>, COMDAT
; _this$ = ecx

; 165  : 	_ALLOCATOR(const _ALLOCATOR<_Ty>&) _THROW0()

  00000	8b c1		 mov	 eax, ecx

; 166  : 		{	// construct by copying (do nothing)
; 167  : 		}

  00002	c2 04 00	 ret	 4
??0?$allocator@UFishItem@@@std@@QAE@ABV01@@Z ENDP	; std::allocator<FishItem>::allocator<FishItem>
_TEXT	ENDS
PUBLIC	?deallocate@?$allocator@UFishItem@@@std@@QAEXPAUFishItem@@I@Z ; std::allocator<FishItem>::deallocate
; Function compile flags: /Ogsp
;	COMDAT ?deallocate@?$allocator@UFishItem@@@std@@QAEXPAUFishItem@@I@Z
_TEXT	SEGMENT
__Ptr$ = 8						; size = 4
___formal$ = 12						; size = 4
?deallocate@?$allocator@UFishItem@@@std@@QAEXPAUFishItem@@I@Z PROC ; std::allocator<FishItem>::deallocate, COMDAT
; _this$ = ecx

; 181  : 		{	// deallocate object at _Ptr, ignore size

  00000	55		 push	 ebp
  00001	8b ec		 mov	 ebp, esp

; 182  : 		::operator delete(_Ptr);

  00003	ff 75 08	 push	 DWORD PTR __Ptr$[ebp]
  00006	e8 00 00 00 00	 call	 ??3@YAXPAX@Z		; operator delete
  0000b	59		 pop	 ecx

; 183  : 		}

  0000c	5d		 pop	 ebp
  0000d	c2 08 00	 ret	 8
?deallocate@?$allocator@UFishItem@@@std@@QAEXPAUFishItem@@I@Z ENDP ; std::allocator<FishItem>::deallocate
_TEXT	ENDS
PUBLIC	??0?$_Vector_const_iterator@V?$_Vector_val@UFishItem@@V?$allocator@UFishItem@@@std@@@std@@@std@@QAE@PAUFishItem@@PBU_Container_base0@1@@Z ; std::_Vector_const_iterator<std::_Vector_val<FishItem,std::allocator<FishItem> > >::_Vector_const_iterator<std::_Vector_val<FishItem,std::allocator<FishItem> > >
; Function compile flags: /Ogsp
; File c:\program files (x86)\microsoft visual studio 10.0\vc\include\vector
;	COMDAT ??0?$_Vector_const_iterator@V?$_Vector_val@UFishItem@@V?$allocator@UFishItem@@@std@@@std@@@std@@QAE@PAUFishItem@@PBU_Container_base0@1@@Z
_TEXT	SEGMENT
__Parg$ = 8						; size = 4
__Pvector$ = 12						; size = 4
??0?$_Vector_const_iterator@V?$_Vector_val@UFishItem@@V?$allocator@UFishItem@@@std@@@std@@@std@@QAE@PAUFishItem@@PBU_Container_base0@1@@Z PROC ; std::_Vector_const_iterator<std::_Vector_val<FishItem,std::allocator<FishItem> > >::_Vector_const_iterator<std::_Vector_val<FishItem,std::allocator<FishItem> > >, COMDAT
; _this$ = ecx

; 45   : 		{	// construct with pointer _Parg

  00000	55		 push	 ebp
  00001	8b ec		 mov	 ebp, esp
  00003	8b c1		 mov	 eax, ecx
  00005	8b 4d 08	 mov	 ecx, DWORD PTR __Parg$[ebp]
  00008	89 08		 mov	 DWORD PTR [eax], ecx

; 46   : 		this->_Adopt(_Pvector);
; 47   : 		}

  0000a	5d		 pop	 ebp
  0000b	c2 08 00	 ret	 8
??0?$_Vector_const_iterator@V?$_Vector_val@UFishItem@@V?$allocator@UFishItem@@@std@@@std@@@std@@QAE@PAUFishItem@@PBU_Container_base0@1@@Z ENDP ; std::_Vector_const_iterator<std::_Vector_val<FishItem,std::allocator<FishItem> > >::_Vector_const_iterator<std::_Vector_val<FishItem,std::allocator<FishItem> > >
_TEXT	ENDS
PUBLIC	??Y?$_Vector_const_iterator@V?$_Vector_val@UFishItem@@V?$allocator@UFishItem@@@std@@@std@@@std@@QAEAAV01@H@Z ; std::_Vector_const_iterator<std::_Vector_val<FishItem,std::allocator<FishItem> > >::operator+=
; Function compile flags: /Ogsp
;	COMDAT ??Y?$_Vector_const_iterator@V?$_Vector_val@UFishItem@@V?$allocator@UFishItem@@@std@@@std@@@std@@QAEAAV01@H@Z
_TEXT	SEGMENT
__Off$ = 8						; size = 4
??Y?$_Vector_const_iterator@V?$_Vector_val@UFishItem@@V?$allocator@UFishItem@@@std@@@std@@@std@@QAEAAV01@H@Z PROC ; std::_Vector_const_iterator<std::_Vector_val<FishItem,std::allocator<FishItem> > >::operator+=, COMDAT
; _this$ = ecx

; 151  : 		{	// increment by integer

  00000	55		 push	 ebp
  00001	8b ec		 mov	 ebp, esp
  00003	8b c1		 mov	 eax, ecx

; 152  :  #if _ITERATOR_DEBUG_LEVEL == 2
; 153  : 		if (this->_Getcont() == 0
; 154  : 			|| this->_Ptr + _Off < ((_Myvec *)this->_Getcont())->_Myfirst
; 155  : 			|| ((_Myvec *)this->_Getcont())->_Mylast < this->_Ptr + _Off)
; 156  : 			{	// report error
; 157  : 			_DEBUG_ERROR("vector iterator + offset out of range");
; 158  : 			_SCL_SECURE_OUT_OF_RANGE;
; 159  : 			}
; 160  : 
; 161  :  #elif _ITERATOR_DEBUG_LEVEL == 1
; 162  : 		_SCL_SECURE_VALIDATE(this->_Getcont() != 0);
; 163  : 		_SCL_SECURE_VALIDATE_RANGE(
; 164  : 			((_Myvec *)this->_Getcont())->_Myfirst <= this->_Ptr + _Off
; 165  : 			&& this->_Ptr + _Off <= ((_Myvec *)this->_Getcont())->_Mylast);
; 166  :  #endif /* _ITERATOR_DEBUG_LEVEL */
; 167  : 
; 168  : 		_Ptr += _Off;

  00005	8b 4d 08	 mov	 ecx, DWORD PTR __Off$[ebp]
  00008	c1 e1 03	 shl	 ecx, 3
  0000b	01 08		 add	 DWORD PTR [eax], ecx

; 169  : 		return (*this);
; 170  : 		}

  0000d	5d		 pop	 ebp
  0000e	c2 04 00	 ret	 4
??Y?$_Vector_const_iterator@V?$_Vector_val@UFishItem@@V?$allocator@UFishItem@@@std@@@std@@@std@@QAEAAV01@H@Z ENDP ; std::_Vector_const_iterator<std::_Vector_val<FishItem,std::allocator<FishItem> > >::operator+=
_TEXT	ENDS
PUBLIC	?max_size@?$allocator@UFishItem@@@std@@QBEIXZ	; std::allocator<FishItem>::max_size
; Function compile flags: /Ogsp
; File c:\program files (x86)\microsoft visual studio 10.0\vc\include\xmemory
;	COMDAT ?max_size@?$allocator@UFishItem@@@std@@QBEIXZ
_TEXT	SEGMENT
?max_size@?$allocator@UFishItem@@@std@@QBEIXZ PROC	; std::allocator<FishItem>::max_size, COMDAT
; _this$ = ecx

; 218  : 		_SIZT _Count = (_SIZT)(-1) / sizeof (_Ty);
; 219  : 		return (0 < _Count ? _Count : 1);

  00000	b8 ff ff ff 1f	 mov	 eax, 536870911		; 1fffffffH

; 220  : 		}

  00005	c3		 ret	 0
?max_size@?$allocator@UFishItem@@@std@@QBEIXZ ENDP	; std::allocator<FishItem>::max_size
_TEXT	ENDS
PUBLIC	?_Compat@?$_Vector_const_iterator@V?$_Vector_val@UFishItem@@V?$allocator@UFishItem@@@std@@@std@@@std@@QBEXABV12@@Z ; std::_Vector_const_iterator<std::_Vector_val<FishItem,std::allocator<FishItem> > >::_Compat
; Function compile flags: /Ogsp
; File c:\program files (x86)\microsoft visual studio 10.0\vc\include\vector
;	COMDAT ?_Compat@?$_Vector_const_iterator@V?$_Vector_val@UFishItem@@V?$allocator@UFishItem@@@std@@@std@@@std@@QBEXABV12@@Z
_TEXT	SEGMENT
___formal$ = 8						; size = 4
?_Compat@?$_Vector_const_iterator@V?$_Vector_val@UFishItem@@V?$allocator@UFishItem@@@std@@@std@@@std@@QBEXABV12@@Z PROC ; std::_Vector_const_iterator<std::_Vector_val<FishItem,std::allocator<FishItem> > >::_Compat, COMDAT
; _this$ = ecx

; 253  : 		}

  00000	c2 04 00	 ret	 4
?_Compat@?$_Vector_const_iterator@V?$_Vector_val@UFishItem@@V?$allocator@UFishItem@@@std@@@std@@@std@@QBEXABV12@@Z ENDP ; std::_Vector_const_iterator<std::_Vector_val<FishItem,std::allocator<FishItem> > >::_Compat
_TEXT	ENDS
PUBLIC	??$addressof@$$CBUFishItem@@@std@@YAPBUFishItem@@ABU1@@Z ; std::addressof<FishItem const >
; Function compile flags: /Ogsp
; File c:\program files (x86)\microsoft visual studio 10.0\vc\include\xmemory
;	COMDAT ??$addressof@$$CBUFishItem@@@std@@YAPBUFishItem@@ABU1@@Z
_TEXT	SEGMENT
__Val$ = 8						; size = 4
??$addressof@$$CBUFishItem@@@std@@YAPBUFishItem@@ABU1@@Z PROC ; std::addressof<FishItem const >, COMDAT

; 110  : 	{	// return address of _Val

  00000	55		 push	 ebp
  00001	8b ec		 mov	 ebp, esp

; 111  : 	return ((_Ty *) &(char&)_Val);

  00003	8b 45 08	 mov	 eax, DWORD PTR __Val$[ebp]

; 112  : 	}

  00006	5d		 pop	 ebp
  00007	c3		 ret	 0
??$addressof@$$CBUFishItem@@@std@@YAPBUFishItem@@ABU1@@Z ENDP ; std::addressof<FishItem const >
_TEXT	ENDS
PUBLIC	__TI2?AVbad_alloc@std@@
PUBLIC	??$_Allocate@UFishItem@@@std@@YAPAUFishItem@@IPAU1@@Z ; std::_Allocate<FishItem>
PUBLIC	__CTA2?AVbad_alloc@std@@
PUBLIC	__CT??_R0?AVbad_alloc@std@@@8??0bad_alloc@std@@QAE@ABV01@@Z12
PUBLIC	??0bad_alloc@std@@QAE@ABV01@@Z			; std::bad_alloc::bad_alloc
PUBLIC	__CT??_R0?AVexception@std@@@8??0exception@std@@QAE@ABV01@@Z12
EXTRN	??2@YAPAXI@Z:PROC				; operator new
EXTRN	__CxxThrowException@8:PROC
EXTRN	??0exception@std@@QAE@ABV01@@Z:PROC		; std::exception::exception
;	COMDAT __CT??_R0?AVexception@std@@@8??0exception@std@@QAE@ABV01@@Z12
; File c:\program files (x86)\microsoft visual studio 10.0\vc\include\exception
xdata$x	SEGMENT
__CT??_R0?AVexception@std@@@8??0exception@std@@QAE@ABV01@@Z12 DD 00H
	DD	FLAT:??_R0?AVexception@std@@@8
	DD	00H
	DD	0ffffffffH
	ORG $+4
	DD	0cH
	DD	FLAT:??0exception@std@@QAE@ABV01@@Z
xdata$x	ENDS
;	COMDAT __CT??_R0?AVbad_alloc@std@@@8??0bad_alloc@std@@QAE@ABV01@@Z12
xdata$x	SEGMENT
__CT??_R0?AVbad_alloc@std@@@8??0bad_alloc@std@@QAE@ABV01@@Z12 DD 00H
	DD	FLAT:??_R0?AVbad_alloc@std@@@8
	DD	00H
	DD	0ffffffffH
	ORG $+4
	DD	0cH
	DD	FLAT:??0bad_alloc@std@@QAE@ABV01@@Z
xdata$x	ENDS
;	COMDAT __CTA2?AVbad_alloc@std@@
xdata$x	SEGMENT
__CTA2?AVbad_alloc@std@@ DD 02H
	DD	FLAT:__CT??_R0?AVbad_alloc@std@@@8??0bad_alloc@std@@QAE@ABV01@@Z12
	DD	FLAT:__CT??_R0?AVexception@std@@@8??0exception@std@@QAE@ABV01@@Z12
xdata$x	ENDS
;	COMDAT __TI2?AVbad_alloc@std@@
xdata$x	SEGMENT
__TI2?AVbad_alloc@std@@ DD 00H
	DD	FLAT:??1bad_alloc@std@@UAE@XZ
	DD	00H
	DD	FLAT:__CTA2?AVbad_alloc@std@@
; Function compile flags: /Ogsp
; File c:\program files (x86)\microsoft visual studio 10.0\vc\include\xmemory
xdata$x	ENDS
;	COMDAT ??$_Allocate@UFishItem@@@std@@YAPAUFishItem@@IPAU1@@Z
_TEXT	SEGMENT
$T525579 = -12						; size = 12
$T525584 = 8						; size = 4
__Count$ = 8						; size = 4
___formal$ = 12						; size = 4
??$_Allocate@UFishItem@@@std@@YAPAUFishItem@@IPAU1@@Z PROC ; std::_Allocate<FishItem>, COMDAT

; 30   : 	{	// allocate storage for _Count elements of type _Ty

  00000	55		 push	 ebp
  00001	8b ec		 mov	 ebp, esp

; 31   : 	void *_Ptr = 0;
; 32   : 
; 33   : 	if (_Count <= 0)

  00003	8b 4d 08	 mov	 ecx, DWORD PTR __Count$[ebp]
  00006	83 ec 0c	 sub	 esp, 12			; 0000000cH
  00009	33 c0		 xor	 eax, eax
  0000b	85 c9		 test	 ecx, ecx

; 34   : 		_Count = 0;
; 35   : 	else if (((_SIZT)(-1) / sizeof (_Ty) < _Count)

  0000d	74 3e		 je	 SHORT $LN5@Allocate

; 36   : 		|| (_Ptr = ::operator new(_Count * sizeof (_Ty))) == 0)

  0000f	81 f9 ff ff ff
	1f		 cmp	 ecx, 536870911		; 1fffffffH
  00015	77 10		 ja	 SHORT $LN1@Allocate
  00017	8b c1		 mov	 eax, ecx
  00019	c1 e0 03	 shl	 eax, 3
  0001c	50		 push	 eax
  0001d	e8 00 00 00 00	 call	 ??2@YAPAXI@Z		; operator new
  00022	59		 pop	 ecx
  00023	85 c0		 test	 eax, eax

; 38   : 
; 39   : 	return ((_Ty _FARQ *)_Ptr);

  00025	75 26		 jne	 SHORT $LN5@Allocate
$LN1@Allocate:

; 37   : 		_THROW_NCEE(bad_alloc, 0);

  00027	83 65 08 00	 and	 DWORD PTR $T525584[ebp], 0
  0002b	8d 45 08	 lea	 eax, DWORD PTR $T525584[ebp]
  0002e	50		 push	 eax
  0002f	8d 4d f4	 lea	 ecx, DWORD PTR $T525579[ebp]
  00032	ff 15 00 00 00
	00		 call	 DWORD PTR __imp_??0exception@std@@QAE@ABQBD@Z
  00038	68 00 00 00 00	 push	 OFFSET __TI2?AVbad_alloc@std@@
  0003d	8d 45 f4	 lea	 eax, DWORD PTR $T525579[ebp]
  00040	50		 push	 eax
  00041	c7 45 f4 00 00
	00 00		 mov	 DWORD PTR $T525579[ebp], OFFSET ??_7bad_alloc@std@@6B@
  00048	e8 00 00 00 00	 call	 __CxxThrowException@8
$LN10@Allocate:
$LN5@Allocate:

; 40   : 	}

  0004d	c9		 leave
  0004e	c3		 ret	 0
$LN9@Allocate:
??$_Allocate@UFishItem@@@std@@YAPAUFishItem@@IPAU1@@Z ENDP ; std::_Allocate<FishItem>
_TEXT	ENDS
PUBLIC	??G?$_Vector_const_iterator@V?$_Vector_val@UFishItem@@V?$allocator@UFishItem@@@std@@@std@@@std@@QBEHABV01@@Z ; std::_Vector_const_iterator<std::_Vector_val<FishItem,std::allocator<FishItem> > >::operator-
; Function compile flags: /Ogsp
; File c:\program files (x86)\microsoft visual studio 10.0\vc\include\vector
;	COMDAT ??G?$_Vector_const_iterator@V?$_Vector_val@UFishItem@@V?$allocator@UFishItem@@@std@@@std@@@std@@QBEHABV01@@Z
_TEXT	SEGMENT
__Right$ = 8						; size = 4
??G?$_Vector_const_iterator@V?$_Vector_val@UFishItem@@V?$allocator@UFishItem@@@std@@@std@@@std@@QBEHABV01@@Z PROC ; std::_Vector_const_iterator<std::_Vector_val<FishItem,std::allocator<FishItem> > >::operator-, COMDAT
; _this$ = ecx

; 190  : 		{	// return difference of iterators

  00000	55		 push	 ebp
  00001	8b ec		 mov	 ebp, esp

; 191  : 		_Compat(_Right);
; 192  : 		return (this->_Ptr - _Right._Ptr);

  00003	8b 01		 mov	 eax, DWORD PTR [ecx]
  00005	8b 4d 08	 mov	 ecx, DWORD PTR __Right$[ebp]
  00008	2b 01		 sub	 eax, DWORD PTR [ecx]
  0000a	c1 f8 03	 sar	 eax, 3

; 193  : 		}

  0000d	5d		 pop	 ebp
  0000e	c2 04 00	 ret	 4
??G?$_Vector_const_iterator@V?$_Vector_val@UFishItem@@V?$allocator@UFishItem@@@std@@@std@@@std@@QBEHABV01@@Z ENDP ; std::_Vector_const_iterator<std::_Vector_val<FishItem,std::allocator<FishItem> > >::operator-
_TEXT	ENDS
PUBLIC	??$forward@AAUFishItem@@@std@@YAAAUFishItem@@AAU1@@Z ; std::forward<FishItem &>
; Function compile flags: /Ogsp
; File c:\program files (x86)\microsoft visual studio 10.0\vc\include\utility
;	COMDAT ??$forward@AAUFishItem@@@std@@YAAAUFishItem@@AAU1@@Z
_TEXT	SEGMENT
__Arg$ = 8						; size = 4
??$forward@AAUFishItem@@@std@@YAAAUFishItem@@AAU1@@Z PROC ; std::forward<FishItem &>, COMDAT

; 78   : 	{	// forward _Arg, given explicitly specified type parameter

  00000	55		 push	 ebp
  00001	8b ec		 mov	 ebp, esp

; 79   : 	return ((_Ty&&)_Arg);

  00003	8b 45 08	 mov	 eax, DWORD PTR __Arg$[ebp]

; 80   : 	}

  00006	5d		 pop	 ebp
  00007	c3		 ret	 0
??$forward@AAUFishItem@@@std@@YAAAUFishItem@@AAU1@@Z ENDP ; std::forward<FishItem &>
_TEXT	ENDS
PUBLIC	??$construct@AAUFishItem@@@?$allocator@UFishItem@@@std@@QAEXPAUFishItem@@AAU2@@Z ; std::allocator<FishItem>::construct<FishItem &>
; Function compile flags: /Ogsp
; File c:\program files (x86)\microsoft visual studio 10.0\vc\include\xmemory
;	COMDAT ??$construct@AAUFishItem@@@?$allocator@UFishItem@@@std@@QAEXPAUFishItem@@AAU2@@Z
_TEXT	SEGMENT
__Ptr$ = 8						; size = 4
__Val$ = 12						; size = 4
??$construct@AAUFishItem@@@?$allocator@UFishItem@@@std@@QAEXPAUFishItem@@AAU2@@Z PROC ; std::allocator<FishItem>::construct<FishItem &>, COMDAT
; _this$ = ecx

; 206  : 		void construct(pointer _Ptr, _Other&& _Val)

  00000	55		 push	 ebp
  00001	8b ec		 mov	 ebp, esp

; 207  : 		{	// construct object at _Ptr with value _Val
; 208  : 		::new ((void _FARQ *)_Ptr) _Ty(_STD forward<_Other>(_Val));

  00003	8b 45 08	 mov	 eax, DWORD PTR __Ptr$[ebp]
  00006	85 c0		 test	 eax, eax
  00008	74 0d		 je	 SHORT $LN3@construct
  0000a	8b 4d 0c	 mov	 ecx, DWORD PTR __Val$[ebp]
  0000d	8b 11		 mov	 edx, DWORD PTR [ecx]
  0000f	89 10		 mov	 DWORD PTR [eax], edx
  00011	8b 49 04	 mov	 ecx, DWORD PTR [ecx+4]
  00014	89 48 04	 mov	 DWORD PTR [eax+4], ecx
$LN3@construct:

; 209  : 		}

  00017	5d		 pop	 ebp
  00018	c2 08 00	 ret	 8
??$construct@AAUFishItem@@@?$allocator@UFishItem@@@std@@QAEXPAUFishItem@@AAU2@@Z ENDP ; std::allocator<FishItem>::construct<FishItem &>
_TEXT	ENDS
PUBLIC	??$forward@ABUFishItem@@@std@@YAABUFishItem@@ABU1@@Z ; std::forward<FishItem const &>
; Function compile flags: /Ogsp
; File c:\program files (x86)\microsoft visual studio 10.0\vc\include\utility
;	COMDAT ??$forward@ABUFishItem@@@std@@YAABUFishItem@@ABU1@@Z
_TEXT	SEGMENT
__Arg$ = 8						; size = 4
??$forward@ABUFishItem@@@std@@YAABUFishItem@@ABU1@@Z PROC ; std::forward<FishItem const &>, COMDAT

; 78   : 	{	// forward _Arg, given explicitly specified type parameter

  00000	55		 push	 ebp
  00001	8b ec		 mov	 ebp, esp

; 79   : 	return ((_Ty&&)_Arg);

  00003	8b 45 08	 mov	 eax, DWORD PTR __Arg$[ebp]

; 80   : 	}

  00006	5d		 pop	 ebp
  00007	c3		 ret	 0
??$forward@ABUFishItem@@@std@@YAABUFishItem@@ABU1@@Z ENDP ; std::forward<FishItem const &>
_TEXT	ENDS
PUBLIC	??$_Ptr_cat@UFishItem@@U1@@std@@YA?AU_Nonscalar_ptr_iterator_tag@0@PAUFishItem@@0@Z ; std::_Ptr_cat<FishItem,FishItem>
; Function compile flags: /Ogsp
; File c:\program files (x86)\microsoft visual studio 10.0\vc\include\xutility
;	COMDAT ??$_Ptr_cat@UFishItem@@U1@@std@@YA?AU_Nonscalar_ptr_iterator_tag@0@PAUFishItem@@0@Z
_TEXT	SEGMENT
__Cat$ = -1						; size = 1
___formal$ = 8						; size = 4
___formal$ = 12						; size = 4
??$_Ptr_cat@UFishItem@@U1@@std@@YA?AU_Nonscalar_ptr_iterator_tag@0@PAUFishItem@@0@Z PROC ; std::_Ptr_cat<FishItem,FishItem>, COMDAT

; 516  : 	{	// return pointer category from pointers

  00000	55		 push	 ebp
  00001	8b ec		 mov	 ebp, esp
  00003	51		 push	 ecx

; 517  : 	typename _Ptr_cat_helper<_Elem1, _Elem2>::_Type _Cat;
; 518  : 	return (_Cat);

  00004	8a 45 ff	 mov	 al, BYTE PTR __Cat$[ebp]

; 519  : 	}

  00007	c9		 leave
  00008	c3		 ret	 0
??$_Ptr_cat@UFishItem@@U1@@std@@YA?AU_Nonscalar_ptr_iterator_tag@0@PAUFishItem@@0@Z ENDP ; std::_Ptr_cat<FishItem,FishItem>
_TEXT	ENDS
PUBLIC	??$_Construct@UFishItem@@ABU1@@std@@YAXPAUFishItem@@ABU1@@Z ; std::_Construct<FishItem,FishItem const &>
; Function compile flags: /Ogsp
; File c:\program files (x86)\microsoft visual studio 10.0\vc\include\xmemory
;	COMDAT ??$_Construct@UFishItem@@ABU1@@std@@YAXPAUFishItem@@ABU1@@Z
_TEXT	SEGMENT
__Ptr$ = 8						; size = 4
__Val$ = 12						; size = 4
??$_Construct@UFishItem@@ABU1@@std@@YAXPAUFishItem@@ABU1@@Z PROC ; std::_Construct<FishItem,FishItem const &>, COMDAT

; 46   : 	{	// construct object at _Ptr with value _Val

  00000	55		 push	 ebp
  00001	8b ec		 mov	 ebp, esp

; 47   : 	void _FARQ *_Vptr = _Ptr;
; 48   : 	::new (_Vptr) _Ty1(_STD forward<_Ty2>(_Val));

  00003	8b 45 08	 mov	 eax, DWORD PTR __Ptr$[ebp]
  00006	85 c0		 test	 eax, eax
  00008	74 0d		 je	 SHORT $LN3@Construct
  0000a	8b 4d 0c	 mov	 ecx, DWORD PTR __Val$[ebp]
  0000d	8b 11		 mov	 edx, DWORD PTR [ecx]
  0000f	89 10		 mov	 DWORD PTR [eax], edx
  00011	8b 49 04	 mov	 ecx, DWORD PTR [ecx+4]
  00014	89 48 04	 mov	 DWORD PTR [eax+4], ecx
$LN3@Construct:

; 49   : 	}

  00017	5d		 pop	 ebp
  00018	c3		 ret	 0
??$_Construct@UFishItem@@ABU1@@std@@YAXPAUFishItem@@ABU1@@Z ENDP ; std::_Construct<FishItem,FishItem const &>
_TEXT	ENDS
PUBLIC	?_Unchecked@?$_Vector_iterator@V?$_Vector_val@UFishItem@@V?$allocator@UFishItem@@@std@@@std@@@std@@QBEPAUFishItem@@XZ ; std::_Vector_iterator<std::_Vector_val<FishItem,std::allocator<FishItem> > >::_Unchecked
; Function compile flags: /Ogsp
; File c:\program files (x86)\microsoft visual studio 10.0\vc\include\vector
;	COMDAT ?_Unchecked@?$_Vector_iterator@V?$_Vector_val@UFishItem@@V?$allocator@UFishItem@@@std@@@std@@@std@@QBEPAUFishItem@@XZ
_TEXT	SEGMENT
?_Unchecked@?$_Vector_iterator@V?$_Vector_val@UFishItem@@V?$allocator@UFishItem@@@std@@@std@@@std@@QBEPAUFishItem@@XZ PROC ; std::_Vector_iterator<std::_Vector_val<FishItem,std::allocator<FishItem> > >::_Unchecked, COMDAT
; _this$ = ecx

; 317  : 		return (_Unchecked_type(this->_Ptr));

  00000	8b 01		 mov	 eax, DWORD PTR [ecx]

; 318  : 		}

  00002	c3		 ret	 0
?_Unchecked@?$_Vector_iterator@V?$_Vector_val@UFishItem@@V?$allocator@UFishItem@@@std@@@std@@@std@@QBEPAUFishItem@@XZ ENDP ; std::_Vector_iterator<std::_Vector_val<FishItem,std::allocator<FishItem> > >::_Unchecked
_TEXT	ENDS
PUBLIC	??$move@AAUFishItem@@@std@@YA$$QAUFishItem@@AAU1@@Z ; std::move<FishItem &>
; Function compile flags: /Ogsp
; File c:\program files (x86)\microsoft visual studio 10.0\vc\include\utility
;	COMDAT ??$move@AAUFishItem@@@std@@YA$$QAUFishItem@@AAU1@@Z
_TEXT	SEGMENT
__Arg$ = 8						; size = 4
??$move@AAUFishItem@@@std@@YA$$QAUFishItem@@AAU1@@Z PROC ; std::move<FishItem &>, COMDAT

; 86   : 	{	// forward _Arg as movable

  00000	55		 push	 ebp
  00001	8b ec		 mov	 ebp, esp

; 87   : 	return ((typename tr1::_Remove_reference<_Ty>::_Type&&)_Arg);

  00003	8b 45 08	 mov	 eax, DWORD PTR __Arg$[ebp]

; 88   : 	}

  00006	5d		 pop	 ebp
  00007	c3		 ret	 0
??$move@AAUFishItem@@@std@@YA$$QAUFishItem@@AAU1@@Z ENDP ; std::move<FishItem &>
_TEXT	ENDS
PUBLIC	??$_Val_type@PAUFishItem@@@std@@YAPAUFishItem@@PAU1@@Z ; std::_Val_type<FishItem *>
; Function compile flags: /Ogsp
; File c:\program files (x86)\microsoft visual studio 10.0\vc\include\xutility
;	COMDAT ??$_Val_type@PAUFishItem@@@std@@YAPAUFishItem@@PAU1@@Z
_TEXT	SEGMENT
___formal$ = 8						; size = 4
??$_Val_type@PAUFishItem@@@std@@YAPAUFishItem@@PAU1@@Z PROC ; std::_Val_type<FishItem *>, COMDAT

; 790  : 	return (0);

  00000	33 c0		 xor	 eax, eax

; 791  : 	}

  00002	c3		 ret	 0
??$_Val_type@PAUFishItem@@@std@@YAPAUFishItem@@PAU1@@Z ENDP ; std::_Val_type<FishItem *>
_TEXT	ENDS
PUBLIC	??$_Unchecked@PAUFishItem@@@std@@YAPAUFishItem@@PAU1@@Z ; std::_Unchecked<FishItem *>
; Function compile flags: /Ogsp
;	COMDAT ??$_Unchecked@PAUFishItem@@@std@@YAPAUFishItem@@PAU1@@Z
_TEXT	SEGMENT
__Src$ = 8						; size = 4
??$_Unchecked@PAUFishItem@@@std@@YAPAUFishItem@@PAU1@@Z PROC ; std::_Unchecked<FishItem *>, COMDAT

; 266  : 	{	// construct unchecked from checked, generic

  00000	55		 push	 ebp
  00001	8b ec		 mov	 ebp, esp

; 267  : 	return (_Src);

  00003	8b 45 08	 mov	 eax, DWORD PTR __Src$[ebp]

; 268  : 	}

  00006	5d		 pop	 ebp
  00007	c3		 ret	 0
??$_Unchecked@PAUFishItem@@@std@@YAPAUFishItem@@PAU1@@Z ENDP ; std::_Unchecked<FishItem *>
_TEXT	ENDS
PUBLIC	??$_Dist_type@PAUFishItem@@@std@@YAPAHPAUFishItem@@@Z ; std::_Dist_type<FishItem *>
; Function compile flags: /Ogsp
;	COMDAT ??$_Dist_type@PAUFishItem@@@std@@YAPAHPAUFishItem@@@Z
_TEXT	SEGMENT
___formal$ = 8						; size = 4
??$_Dist_type@PAUFishItem@@@std@@YAPAHPAUFishItem@@@Z PROC ; std::_Dist_type<FishItem *>, COMDAT

; 850  : 	return (0);

  00000	33 c0		 xor	 eax, eax

; 851  : 	}

  00002	c3		 ret	 0
??$_Dist_type@PAUFishItem@@@std@@YAPAHPAUFishItem@@@Z ENDP ; std::_Dist_type<FishItem *>
_TEXT	ENDS
PUBLIC	??$_Destroy@UFishItem@@@std@@YAXPAUFishItem@@@Z	; std::_Destroy<FishItem>
; Function compile flags: /Ogsp
; File c:\program files (x86)\microsoft visual studio 10.0\vc\include\xmemory
;	COMDAT ??$_Destroy@UFishItem@@@std@@YAXPAUFishItem@@@Z
_TEXT	SEGMENT
__Ptr$ = 8						; size = 4
??$_Destroy@UFishItem@@@std@@YAXPAUFishItem@@@Z PROC	; std::_Destroy<FishItem>, COMDAT

; 63   : 	_Ptr->~_Ty();
; 64   : 	}

  00000	c3		 ret	 0
??$_Destroy@UFishItem@@@std@@YAXPAUFishItem@@@Z ENDP	; std::_Destroy<FishItem>
_TEXT	ENDS
PUBLIC	??$forward@AAPAUFishItem@@@std@@YAAAPAUFishItem@@AAPAU1@@Z ; std::forward<FishItem * &>
; Function compile flags: /Ogsp
; File c:\program files (x86)\microsoft visual studio 10.0\vc\include\utility
;	COMDAT ??$forward@AAPAUFishItem@@@std@@YAAAPAUFishItem@@AAPAU1@@Z
_TEXT	SEGMENT
__Arg$ = 8						; size = 4
??$forward@AAPAUFishItem@@@std@@YAAAPAUFishItem@@AAPAU1@@Z PROC ; std::forward<FishItem * &>, COMDAT

; 78   : 	{	// forward _Arg, given explicitly specified type parameter

  00000	55		 push	 ebp
  00001	8b ec		 mov	 ebp, esp

; 79   : 	return ((_Ty&&)_Arg);

  00003	8b 45 08	 mov	 eax, DWORD PTR __Arg$[ebp]

; 80   : 	}

  00006	5d		 pop	 ebp
  00007	c3		 ret	 0
??$forward@AAPAUFishItem@@@std@@YAAAPAUFishItem@@AAPAU1@@Z ENDP ; std::forward<FishItem * &>
_TEXT	ENDS
PUBLIC	??$?0AAPAUFishItem@@AAPAU0@@?$_Pair_base@PAUFishItem@@PAU1@@std@@QAE@AAPAUFishItem@@0@Z ; std::_Pair_base<FishItem *,FishItem *>::_Pair_base<FishItem *,FishItem *><FishItem * &,FishItem * &>
; Function compile flags: /Ogsp
;	COMDAT ??$?0AAPAUFishItem@@AAPAU0@@?$_Pair_base@PAUFishItem@@PAU1@@std@@QAE@AAPAUFishItem@@0@Z
_TEXT	SEGMENT
__Val1$ = 8						; size = 4
__Val2$ = 12						; size = 4
??$?0AAPAUFishItem@@AAPAU0@@?$_Pair_base@PAUFishItem@@PAU1@@std@@QAE@AAPAUFishItem@@0@Z PROC ; std::_Pair_base<FishItem *,FishItem *>::_Pair_base<FishItem *,FishItem *><FishItem * &,FishItem * &>, COMDAT
; _this$ = ecx

; 163  : 		{	// construct from moved values

  00000	55		 push	 ebp
  00001	8b ec		 mov	 ebp, esp
  00003	8b c1		 mov	 eax, ecx
  00005	8b 4d 08	 mov	 ecx, DWORD PTR __Val1$[ebp]
  00008	8b 09		 mov	 ecx, DWORD PTR [ecx]
  0000a	89 08		 mov	 DWORD PTR [eax], ecx
  0000c	8b 4d 0c	 mov	 ecx, DWORD PTR __Val2$[ebp]
  0000f	8b 09		 mov	 ecx, DWORD PTR [ecx]
  00011	89 48 04	 mov	 DWORD PTR [eax+4], ecx

; 164  : 		}

  00014	5d		 pop	 ebp
  00015	c2 08 00	 ret	 8
??$?0AAPAUFishItem@@AAPAU0@@?$_Pair_base@PAUFishItem@@PAU1@@std@@QAE@AAPAUFishItem@@0@Z ENDP ; std::_Pair_base<FishItem *,FishItem *>::_Pair_base<FishItem *,FishItem *><FishItem * &,FishItem * &>
_TEXT	ENDS
PUBLIC	??$_Move@AAUFishItem@@@std@@YA$$QAUFishItem@@AAU1@@Z ; std::_Move<FishItem &>
; Function compile flags: /Ogsp
;	COMDAT ??$_Move@AAUFishItem@@@std@@YA$$QAUFishItem@@AAU1@@Z
_TEXT	SEGMENT
__Arg$ = 8						; size = 4
??$_Move@AAUFishItem@@@std@@YA$$QAUFishItem@@AAU1@@Z PROC ; std::_Move<FishItem &>, COMDAT

; 94   : 	{	// forward _Arg as movable

  00000	55		 push	 ebp
  00001	8b ec		 mov	 ebp, esp

; 95   : 	return ((typename tr1::_Remove_reference<_Ty>::_Type&&)_Arg);

  00003	8b 45 08	 mov	 eax, DWORD PTR __Arg$[ebp]

; 96   : 	}

  00006	5d		 pop	 ebp
  00007	c3		 ret	 0
??$_Move@AAUFishItem@@@std@@YA$$QAUFishItem@@AAU1@@Z ENDP ; std::_Move<FishItem &>
_TEXT	ENDS
PUBLIC	??$forward@UFishItem@@@std@@YA$$QAUFishItem@@AAU1@@Z ; std::forward<FishItem>
; Function compile flags: /Ogsp
;	COMDAT ??$forward@UFishItem@@@std@@YA$$QAUFishItem@@AAU1@@Z
_TEXT	SEGMENT
__Arg$ = 8						; size = 4
??$forward@UFishItem@@@std@@YA$$QAUFishItem@@AAU1@@Z PROC ; std::forward<FishItem>, COMDAT

; 78   : 	{	// forward _Arg, given explicitly specified type parameter

  00000	55		 push	 ebp
  00001	8b ec		 mov	 ebp, esp

; 79   : 	return ((_Ty&&)_Arg);

  00003	8b 45 08	 mov	 eax, DWORD PTR __Arg$[ebp]

; 80   : 	}

  00006	5d		 pop	 ebp
  00007	c3		 ret	 0
??$forward@UFishItem@@@std@@YA$$QAUFishItem@@AAU1@@Z ENDP ; std::forward<FishItem>
_TEXT	ENDS
PUBLIC	??$_Move_backward@PAUFishItem@@PAU1@@std@@YAPAUFishItem@@PAU1@00U_Nonscalar_ptr_iterator_tag@0@@Z ; std::_Move_backward<FishItem *,FishItem *>
; Function compile flags: /Ogsp
; File c:\program files (x86)\microsoft visual studio 10.0\vc\include\xutility
;	COMDAT ??$_Move_backward@PAUFishItem@@PAU1@@std@@YAPAUFishItem@@PAU1@00U_Nonscalar_ptr_iterator_tag@0@@Z
_TEXT	SEGMENT
__First$ = 8						; size = 4
__Last$ = 12						; size = 4
__Dest$ = 16						; size = 4
___formal$ = 20						; size = 1
??$_Move_backward@PAUFishItem@@PAU1@@std@@YAPAUFishItem@@PAU1@00U_Nonscalar_ptr_iterator_tag@0@@Z PROC ; std::_Move_backward<FishItem *,FishItem *>, COMDAT

; 2617 : 	{	// move [_First, _Last) backwards to [..., _Dest), arbitrary iterators

  00000	55		 push	 ebp
  00001	8b ec		 mov	 ebp, esp

; 2618 : 	while (_First != _Last)

  00003	8b 4d 0c	 mov	 ecx, DWORD PTR __Last$[ebp]
  00006	8b 45 10	 mov	 eax, DWORD PTR __Dest$[ebp]
  00009	39 4d 08	 cmp	 DWORD PTR __First$[ebp], ecx
  0000c	74 15		 je	 SHORT $LN1@Move_backw
$LL2@Move_backw:

; 2619 : 		*--_Dest = _STD move(*--_Last);

  0000e	83 e9 08	 sub	 ecx, 8
  00011	8b 11		 mov	 edx, DWORD PTR [ecx]
  00013	83 e8 08	 sub	 eax, 8
  00016	89 10		 mov	 DWORD PTR [eax], edx
  00018	8b 51 04	 mov	 edx, DWORD PTR [ecx+4]
  0001b	89 50 04	 mov	 DWORD PTR [eax+4], edx
  0001e	3b 4d 08	 cmp	 ecx, DWORD PTR __First$[ebp]
  00021	75 eb		 jne	 SHORT $LL2@Move_backw
$LN1@Move_backw:

; 2620 : 	return (_Dest);
; 2621 : 	}

  00023	5d		 pop	 ebp
  00024	c3		 ret	 0
??$_Move_backward@PAUFishItem@@PAU1@@std@@YAPAUFishItem@@PAU1@00U_Nonscalar_ptr_iterator_tag@0@@Z ENDP ; std::_Move_backward<FishItem *,FishItem *>
_TEXT	ENDS
PUBLIC	??0FishItem@@QAE@XZ				; FishItem::FishItem
; Function compile flags: /Ogsp
; File d:\lost saga for developer\youtube\tutorial\source\src\lsclient\iouserfishitem.h
;	COMDAT ??0FishItem@@QAE@XZ
_TEXT	SEGMENT
??0FishItem@@QAE@XZ PROC				; FishItem::FishItem, COMDAT
; _this$ = ecx

; 14   : 	FishItem()

  00000	8b c1		 mov	 eax, ecx

; 15   : 	{
; 16   : 		m_iType = 0;
; 17   : 		m_iArray = 0;

  00002	83 60 04 00	 and	 DWORD PTR [eax+4], 0
  00006	c6 00 00	 mov	 BYTE PTR [eax], 0

; 18   : 	}

  00009	c3		 ret	 0
??0FishItem@@QAE@XZ ENDP				; FishItem::FishItem
_TEXT	ENDS
PUBLIC	??RFishItemSort@@QBE_NABUFishItem@@0@Z		; FishItemSort::operator()
; Function compile flags: /Ogsp
;	COMDAT ??RFishItemSort@@QBE_NABUFishItem@@0@Z
_TEXT	SEGMENT
_lhs$ = 8						; size = 4
_rhs$ = 12						; size = 4
??RFishItemSort@@QBE_NABUFishItem@@0@Z PROC		; FishItemSort::operator(), COMDAT
; _this$ = ecx

; 26   : 	{

  00000	55		 push	 ebp
  00001	8b ec		 mov	 ebp, esp

; 27   : 		if( lhs.m_iArray < rhs.m_iArray )

  00003	8b 45 08	 mov	 eax, DWORD PTR _lhs$[ebp]
  00006	8b 40 04	 mov	 eax, DWORD PTR [eax+4]
  00009	8b 4d 0c	 mov	 ecx, DWORD PTR _rhs$[ebp]
  0000c	3b 41 04	 cmp	 eax, DWORD PTR [ecx+4]
  0000f	0f 9c c0	 setl	 al

; 28   : 		{
; 29   : 			return true;
; 30   : 		}
; 31   : 		return false;
; 32   : 	}

  00012	5d		 pop	 ebp
  00013	c2 08 00	 ret	 8
??RFishItemSort@@QBE_NABUFishItem@@0@Z ENDP		; FishItemSort::operator()
_TEXT	ENDS
PUBLIC	??_7?$CEncrypt@H@@6B@				; CEncrypt<int>::`vftable'
PUBLIC	??1?$CEncrypt@H@@UAE@XZ				; CEncrypt<int>::~CEncrypt<int>
PUBLIC	??_R4?$CEncrypt@H@@6B@				; CEncrypt<int>::`RTTI Complete Object Locator'
PUBLIC	??_R0?AV?$CEncrypt@H@@@8			; CEncrypt<int> `RTTI Type Descriptor'
PUBLIC	??_R3?$CEncrypt@H@@8				; CEncrypt<int>::`RTTI Class Hierarchy Descriptor'
PUBLIC	??_R2?$CEncrypt@H@@8				; CEncrypt<int>::`RTTI Base Class Array'
PUBLIC	??_R1A@?0A@EA@?$CEncrypt@H@@8			; CEncrypt<int>::`RTTI Base Class Descriptor at (0,-1,0,64)'
EXTRN	??1ccddaabb@@UAE@XZ:PROC			; ccddaabb::~ccddaabb
EXTRN	??_E?$CEncrypt@H@@UAEPAXI@Z:PROC		; CEncrypt<int>::`vector deleting destructor'
;	COMDAT ??_R1A@?0A@EA@?$CEncrypt@H@@8
; File d:\lost saga for developer\youtube\tutorial\source\src\lsclient\encryptvalue.h
rdata$r	SEGMENT
??_R1A@?0A@EA@?$CEncrypt@H@@8 DD FLAT:??_R0?AV?$CEncrypt@H@@@8 ; CEncrypt<int>::`RTTI Base Class Descriptor at (0,-1,0,64)'
	DD	00H
	DD	00H
	DD	0ffffffffH
	DD	00H
	DD	040H
	DD	FLAT:??_R3?$CEncrypt@H@@8
rdata$r	ENDS
;	COMDAT ??_R2?$CEncrypt@H@@8
rdata$r	SEGMENT
??_R2?$CEncrypt@H@@8 DD FLAT:??_R1A@?0A@EA@?$CEncrypt@H@@8 ; CEncrypt<int>::`RTTI Base Class Array'
rdata$r	ENDS
;	COMDAT ??_R3?$CEncrypt@H@@8
rdata$r	SEGMENT
??_R3?$CEncrypt@H@@8 DD 00H				; CEncrypt<int>::`RTTI Class Hierarchy Descriptor'
	DD	00H
	DD	01H
	DD	FLAT:??_R2?$CEncrypt@H@@8
rdata$r	ENDS
;	COMDAT ??_R0?AV?$CEncrypt@H@@@8
_DATA	SEGMENT
??_R0?AV?$CEncrypt@H@@@8 DD FLAT:??_7type_info@@6B@	; CEncrypt<int> `RTTI Type Descriptor'
	DD	00H
	DB	'.?AV?$CEncrypt@H@@', 00H
_DATA	ENDS
;	COMDAT ??_R4?$CEncrypt@H@@6B@
rdata$r	SEGMENT
??_R4?$CEncrypt@H@@6B@ DD 00H				; CEncrypt<int>::`RTTI Complete Object Locator'
	DD	00H
	DD	00H
	DD	FLAT:??_R0?AV?$CEncrypt@H@@@8
	DD	FLAT:??_R3?$CEncrypt@H@@8
rdata$r	ENDS
;	COMDAT ??_7?$CEncrypt@H@@6B@
CONST	SEGMENT
??_7?$CEncrypt@H@@6B@ DD FLAT:??_R4?$CEncrypt@H@@6B@	; CEncrypt<int>::`vftable'
	DD	FLAT:??_E?$CEncrypt@H@@UAEPAXI@Z
; Function compile flags: /Ogsp
CONST	ENDS
;	COMDAT ??1?$CEncrypt@H@@UAE@XZ
_TEXT	SEGMENT
??1?$CEncrypt@H@@UAE@XZ PROC				; CEncrypt<int>::~CEncrypt<int>, COMDAT
; _this$ = ecx

; 127  : 	{

  00000	c7 01 00 00 00
	00		 mov	 DWORD PTR [ecx], OFFSET ??_7?$CEncrypt@H@@6B@

; 128  : 	}

  00006	83 c1 0c	 add	 ecx, 12			; 0000000cH
  00009	e9 00 00 00 00	 jmp	 ??1ccddaabb@@UAE@XZ	; ccddaabb::~ccddaabb
??1?$CEncrypt@H@@UAE@XZ ENDP				; CEncrypt<int>::~CEncrypt<int>
; Function compile flags: /Ogsp
_TEXT	ENDS
;	COMDAT ??_G?$CEncrypt@H@@UAEPAXI@Z
_TEXT	SEGMENT
___flags$ = 8						; size = 4
??_G?$CEncrypt@H@@UAEPAXI@Z PROC			; CEncrypt<int>::`scalar deleting destructor', COMDAT
; _this$ = ecx
  00000	55		 push	 ebp
  00001	8b ec		 mov	 ebp, esp
  00003	56		 push	 esi
  00004	8b f1		 mov	 esi, ecx
  00006	8d 4e 0c	 lea	 ecx, DWORD PTR [esi+12]
  00009	c7 06 00 00 00
	00		 mov	 DWORD PTR [esi], OFFSET ??_7?$CEncrypt@H@@6B@
  0000f	e8 00 00 00 00	 call	 ??1ccddaabb@@UAE@XZ	; ccddaabb::~ccddaabb
  00014	f6 45 08 01	 test	 BYTE PTR ___flags$[ebp], 1
  00018	74 07		 je	 SHORT $LN1@scalar@2
  0001a	56		 push	 esi
  0001b	e8 00 00 00 00	 call	 ??3@YAXPAX@Z		; operator delete
  00020	59		 pop	 ecx
$LN1@scalar@2:
  00021	8b c6		 mov	 eax, esi
  00023	5e		 pop	 esi
  00024	5d		 pop	 ebp
  00025	c2 04 00	 ret	 4
??_G?$CEncrypt@H@@UAEPAXI@Z ENDP			; CEncrypt<int>::`scalar deleting destructor'
_TEXT	ENDS
PUBLIC	?EncryptValueToPool@?$CEncrypt@H@@AAEXPBD@Z	; CEncrypt<int>::EncryptValueToPool
EXTRN	?EncryptByte@ccddaabb@@QAEXPBDPADH@Z:PROC	; ccddaabb::EncryptByte
; Function compile flags: /Ogsp
;	COMDAT ?EncryptValueToPool@?$CEncrypt@H@@AAEXPBD@Z
_TEXT	SEGMENT
_value$ = 8						; size = 4
?EncryptValueToPool@?$CEncrypt@H@@AAEXPBD@Z PROC	; CEncrypt<int>::EncryptValueToPool, COMDAT
; _this$ = ecx

; 67   : 	{

  00000	55		 push	 ebp
  00001	8b ec		 mov	 ebp, esp

; 68   : 		m_RC5.EncryptByte( value, m_MemPool, max(m_ValueSize, DEFAULT_ENCRYPT) );

  00003	0f b7 41 06	 movzx	 eax, WORD PTR [ecx+6]
  00007	83 f8 04	 cmp	 eax, 4
  0000a	77 03		 ja	 SHORT $LN4@EncryptVal
  0000c	6a 04		 push	 4
  0000e	58		 pop	 eax
$LN4@EncryptVal:
  0000f	50		 push	 eax
  00010	8d 41 1c	 lea	 eax, DWORD PTR [ecx+28]
  00013	50		 push	 eax
  00014	ff 75 08	 push	 DWORD PTR _value$[ebp]
  00017	83 c1 0c	 add	 ecx, 12			; 0000000cH
  0001a	e8 00 00 00 00	 call	 ?EncryptByte@ccddaabb@@QAEXPBDPADH@Z ; ccddaabb::EncryptByte

; 69   : 		
; 70   : 	}

  0001f	5d		 pop	 ebp
  00020	c2 04 00	 ret	 4
?EncryptValueToPool@?$CEncrypt@H@@AAEXPBD@Z ENDP	; CEncrypt<int>::EncryptValueToPool
_TEXT	ENDS
PUBLIC	?Init@?$CEncrypt@H@@AAEXXZ			; CEncrypt<int>::Init
EXTRN	?Setup@ccddaabb@@QAEXPBDHH@Z:PROC		; ccddaabb::Setup
EXTRN	__imp__rand:PROC
EXTRN	__imp__timeGetTime@0:PROC
EXTRN	__imp__GetCurrentProcessId@0:PROC
; Function compile flags: /Ogsp
;	COMDAT ?Init@?$CEncrypt@H@@AAEXXZ
_TEXT	SEGMENT
_pid$ = -8						; size = 4
_tick$ = -4						; size = 4
?Init@?$CEncrypt@H@@AAEXXZ PROC				; CEncrypt<int>::Init, COMDAT
; _this$ = ecx

; 73   : 	{

  00000	55		 push	 ebp
  00001	8b ec		 mov	 ebp, esp
  00003	51		 push	 ecx
  00004	51		 push	 ecx
  00005	53		 push	 ebx
  00006	56		 push	 esi
  00007	57		 push	 edi
  00008	8b f1		 mov	 esi, ecx

; 74   : 		DWORD pid = GetCurrentProcessId();

  0000a	ff 15 00 00 00
	00		 call	 DWORD PTR __imp__GetCurrentProcessId@0
  00010	89 45 f8	 mov	 DWORD PTR _pid$[ebp], eax

; 75   : 		DWORD tick = timeGetTime();

  00013	ff 15 00 00 00
	00		 call	 DWORD PTR __imp__timeGetTime@0

; 76   : 		m_ValueSize    = sizeof(type);
; 77   : 		m_MemPoolPos   = (unsigned short)( rand()+pid+tick )%(MAX_MEM_POOL-m_ValueSize);

  00019	8b 3d 00 00 00
	00		 mov	 edi, DWORD PTR __imp__rand
  0001f	89 45 fc	 mov	 DWORD PTR _tick$[ebp], eax
  00022	6a 04		 push	 4
  00024	58		 pop	 eax
  00025	66 89 46 06	 mov	 WORD PTR [esi+6], ax
  00029	ff d7		 call	 edi
  0002b	03 45 f8	 add	 eax, DWORD PTR _pid$[ebp]
  0002e	0f b7 4e 06	 movzx	 ecx, WORD PTR [esi+6]
  00032	03 45 fc	 add	 eax, DWORD PTR _tick$[ebp]
  00035	6a 0c		 push	 12			; 0000000cH
  00037	0f b7 c0	 movzx	 eax, ax
  0003a	5b		 pop	 ebx
  0003b	99		 cdq
  0003c	2b d9		 sub	 ebx, ecx
  0003e	f7 fb		 idiv	 ebx
  00040	66 89 56 04	 mov	 WORD PTR [esi+4], dx

; 78   : 		m_EncryptSeed  = (char)( rand()+pid+tick )%256;

  00044	ff d7		 call	 edi
  00046	02 45 f8	 add	 al, BYTE PTR _pid$[ebp]
  00049	02 45 fc	 add	 al, BYTE PTR _tick$[ebp]
  0004c	0f be c0	 movsx	 eax, al
  0004f	25 ff 00 00 80	 and	 eax, -2147483393	; 800000ffH
  00054	79 07		 jns	 SHORT $LN8@Init
  00056	48		 dec	 eax
  00057	0d 00 ff ff ff	 or	 eax, -256		; ffffff00H
  0005c	40		 inc	 eax
$LN8@Init:
  0005d	88 46 08	 mov	 BYTE PTR [esi+8], al

; 79   : 
; 80   : 		for (int i = 0; i < MAX_MEM_POOL ; i++)

  00060	33 db		 xor	 ebx, ebx
$LL3@Init:

; 81   : 			m_MemPool[i] = (char)( rand()+pid+tick )%256; // 

  00062	ff d7		 call	 edi
  00064	02 45 f8	 add	 al, BYTE PTR _pid$[ebp]
  00067	02 45 fc	 add	 al, BYTE PTR _tick$[ebp]
  0006a	0f be c0	 movsx	 eax, al
  0006d	25 ff 00 00 80	 and	 eax, -2147483393	; 800000ffH
  00072	79 07		 jns	 SHORT $LN9@Init
  00074	48		 dec	 eax
  00075	0d 00 ff ff ff	 or	 eax, -256		; ffffff00H
  0007a	40		 inc	 eax
$LN9@Init:
  0007b	88 44 1e 1c	 mov	 BYTE PTR [esi+ebx+28], al
  0007f	43		 inc	 ebx
  00080	83 fb 0c	 cmp	 ebx, 12			; 0000000cH
  00083	7c dd		 jl	 SHORT $LL3@Init

; 82   : 
; 83   : 		//UJ 130913, : szKey  
; 84   : 		//char szKey[ccddaabb::KEY_SIZE];//="";
; 85   : 		//for (int i = 0; i < ccddaabb::KEY_SIZE  ; i++)
; 86   : 		//	szKey[i] = (char)( rand()+pid+tick )%256; // 
; 87   : 		m_RC5.Setup( NULL, pid, tick );

  00085	ff 75 fc	 push	 DWORD PTR _tick$[ebp]
  00088	8d 4e 0c	 lea	 ecx, DWORD PTR [esi+12]
  0008b	ff 75 f8	 push	 DWORD PTR _pid$[ebp]
  0008e	6a 00		 push	 0
  00090	e8 00 00 00 00	 call	 ?Setup@ccddaabb@@QAEXPBDHH@Z ; ccddaabb::Setup
  00095	5f		 pop	 edi
  00096	5e		 pop	 esi
  00097	5b		 pop	 ebx

; 88   : 
; 89   : #ifdef _NOTUSE
; 90   : 		m_value        = 0;
; 91   : 		EncryptValueToPool((char*)&m_value);
; 92   : 		Debug();
; 93   : #endif
; 94   : 	}

  00098	c9		 leave
  00099	c3		 ret	 0
?Init@?$CEncrypt@H@@AAEXXZ ENDP				; CEncrypt<int>::Init
_TEXT	ENDS
PUBLIC	?DecryptValueToPool@?$CEncrypt@H@@QAEXPAH@Z	; CEncrypt<int>::DecryptValueToPool
EXTRN	?DecryptByte@ccddaabb@@QBEXPBDPADH@Z:PROC	; ccddaabb::DecryptByte
; Function compile flags: /Ogsp
;	COMDAT ?DecryptValueToPool@?$CEncrypt@H@@QAEXPAH@Z
_TEXT	SEGMENT
_value$ = 8						; size = 4
?DecryptValueToPool@?$CEncrypt@H@@QAEXPAH@Z PROC	; CEncrypt<int>::DecryptValueToPool, COMDAT
; _this$ = ecx

; 837  : 	{

  00000	55		 push	 ebp
  00001	8b ec		 mov	 ebp, esp
  00003	56		 push	 esi

; 838  : 		m_RC5.DecryptByte( m_MemPool, m_TempMem, 4 );

  00004	8d 71 28	 lea	 esi, DWORD PTR [ecx+40]
  00007	6a 04		 push	 4
  00009	8d 41 1c	 lea	 eax, DWORD PTR [ecx+28]
  0000c	56		 push	 esi
  0000d	50		 push	 eax
  0000e	83 c1 0c	 add	 ecx, 12			; 0000000cH
  00011	e8 00 00 00 00	 call	 ?DecryptByte@ccddaabb@@QBEXPBDPADH@Z ; ccddaabb::DecryptByte

; 839  : 		*value = *((int*)m_TempMem);

  00016	8b 06		 mov	 eax, DWORD PTR [esi]
  00018	8b 4d 08	 mov	 ecx, DWORD PTR _value$[ebp]
  0001b	89 01		 mov	 DWORD PTR [ecx], eax
  0001d	5e		 pop	 esi

; 840  : 	}

  0001e	5d		 pop	 ebp
  0001f	c2 04 00	 ret	 4
?DecryptValueToPool@?$CEncrypt@H@@QAEXPAH@Z ENDP	; CEncrypt<int>::DecryptValueToPool
_TEXT	ENDS
EXTRN	__imp_??0exception@std@@QAE@ABV01@@Z:PROC
; Function compile flags: /Ogsp
;	COMDAT ??0bad_alloc@std@@QAE@ABV01@@Z
_TEXT	SEGMENT
___that$ = 8						; size = 4
??0bad_alloc@std@@QAE@ABV01@@Z PROC			; std::bad_alloc::bad_alloc, COMDAT
; _this$ = ecx
  00000	55		 push	 ebp
  00001	8b ec		 mov	 ebp, esp
  00003	56		 push	 esi
  00004	ff 75 08	 push	 DWORD PTR ___that$[ebp]
  00007	8b f1		 mov	 esi, ecx
  00009	ff 15 00 00 00
	00		 call	 DWORD PTR __imp_??0exception@std@@QAE@ABV01@@Z
  0000f	c7 06 00 00 00
	00		 mov	 DWORD PTR [esi], OFFSET ??_7bad_alloc@std@@6B@
  00015	8b c6		 mov	 eax, esi
  00017	5e		 pop	 esi
  00018	5d		 pop	 ebp
  00019	c2 04 00	 ret	 4
??0bad_alloc@std@@QAE@ABV01@@Z ENDP			; std::bad_alloc::bad_alloc
_TEXT	ENDS
PUBLIC	?GetFishItemType@ioUserFishItem@@QAEHH@Z	; ioUserFishItem::GetFishItemType
; Function compile flags: /Ogsp
; File d:\lost saga for developer\youtube\tutorial\source\src\lsclient\iouserfishitem.cpp
;	COMDAT ?GetFishItemType@ioUserFishItem@@QAEHH@Z
_TEXT	SEGMENT
_iListArray$ = 8					; size = 4
?GetFishItemType@ioUserFishItem@@QAEHH@Z PROC		; ioUserFishItem::GetFishItemType, COMDAT
; _this$ = ecx

; 66   : {

  00000	55		 push	 ebp
  00001	8b ec		 mov	 ebp, esp

; 68   : 	int iType = -1;
; 69   : 
; 70   : 	if( COMPARE( iListArray, 0, iSize ) )

  00003	8b 55 08	 mov	 edx, DWORD PTR _iListArray$[ebp]
  00006	83 c8 ff	 or	 eax, -1
  00009	85 d2		 test	 edx, edx
  0000b	78 16		 js	 SHORT $LN1@GetFishIte

; 67   : 	int iSize = m_vFishItemList.size();

  0000d	56		 push	 esi
  0000e	8b 71 38	 mov	 esi, DWORD PTR [ecx+56]
  00011	2b 71 34	 sub	 esi, DWORD PTR [ecx+52]
  00014	c1 fe 03	 sar	 esi, 3

; 68   : 	int iType = -1;
; 69   : 
; 70   : 	if( COMPARE( iListArray, 0, iSize ) )

  00017	3b d6		 cmp	 edx, esi
  00019	5e		 pop	 esi
  0001a	7d 07		 jge	 SHORT $LN1@GetFishIte

; 71   : 	{
; 72   : 		iType = m_vFishItemList[iListArray].m_iType;

  0001c	8b 41 34	 mov	 eax, DWORD PTR [ecx+52]
  0001f	0f b6 04 d0	 movzx	 eax, BYTE PTR [eax+edx*8]
$LN1@GetFishIte:

; 73   : 	}
; 74   : 
; 75   : 	return iType;
; 76   : }

  00023	5d		 pop	 ebp
  00024	c2 04 00	 ret	 4
?GetFishItemType@ioUserFishItem@@QAEHH@Z ENDP		; ioUserFishItem::GetFishItemType
_TEXT	ENDS
PUBLIC	?GetFishItemArray@ioUserFishItem@@QAEHH@Z	; ioUserFishItem::GetFishItemArray
; Function compile flags: /Ogsp
;	COMDAT ?GetFishItemArray@ioUserFishItem@@QAEHH@Z
_TEXT	SEGMENT
_iListArray$ = 8					; size = 4
?GetFishItemArray@ioUserFishItem@@QAEHH@Z PROC		; ioUserFishItem::GetFishItemArray, COMDAT
; _this$ = ecx

; 79   : {

  00000	55		 push	 ebp
  00001	8b ec		 mov	 ebp, esp

; 81   : 	int iIndexArray = 0;
; 82   : 
; 83   : 	if( COMPARE( iListArray, 0, iSize ) )

  00003	8b 55 08	 mov	 edx, DWORD PTR _iListArray$[ebp]
  00006	33 c0		 xor	 eax, eax
  00008	85 d2		 test	 edx, edx
  0000a	78 16		 js	 SHORT $LN1@GetFishIte@2

; 80   : 	int iSize = m_vFishItemList.size();

  0000c	56		 push	 esi
  0000d	8b 71 38	 mov	 esi, DWORD PTR [ecx+56]
  00010	2b 71 34	 sub	 esi, DWORD PTR [ecx+52]
  00013	c1 fe 03	 sar	 esi, 3

; 81   : 	int iIndexArray = 0;
; 82   : 
; 83   : 	if( COMPARE( iListArray, 0, iSize ) )

  00016	3b d6		 cmp	 edx, esi
  00018	5e		 pop	 esi
  00019	7d 07		 jge	 SHORT $LN1@GetFishIte@2

; 84   : 	{
; 85   : 		iIndexArray = m_vFishItemList[iListArray].m_iArray;

  0001b	8b 41 34	 mov	 eax, DWORD PTR [ecx+52]
  0001e	8b 44 d0 04	 mov	 eax, DWORD PTR [eax+edx*8+4]
$LN1@GetFishIte@2:

; 86   : 	}
; 87   : 
; 88   : 	return iIndexArray;
; 89   : }

  00022	5d		 pop	 ebp
  00023	c2 04 00	 ret	 4
?GetFishItemArray@ioUserFishItem@@QAEHH@Z ENDP		; ioUserFishItem::GetFishItemArray
_TEXT	ENDS
PUBLIC	?GetCurFishItemCnt@ioUserFishItem@@QAEHXZ	; ioUserFishItem::GetCurFishItemCnt
; Function compile flags: /Ogsp
;	COMDAT ?GetCurFishItemCnt@ioUserFishItem@@QAEHXZ
_TEXT	SEGMENT
?GetCurFishItemCnt@ioUserFishItem@@QAEHXZ PROC		; ioUserFishItem::GetCurFishItemCnt, COMDAT
; _this$ = ecx

; 93   : 	int iSize = m_vFishItemList.size();

  00000	8b 41 38	 mov	 eax, DWORD PTR [ecx+56]
  00003	2b 41 34	 sub	 eax, DWORD PTR [ecx+52]
  00006	c1 f8 03	 sar	 eax, 3

; 94   : 	
; 95   : 	return iSize;
; 96   : }

  00009	c3		 ret	 0
?GetCurFishItemCnt@ioUserFishItem@@QAEHXZ ENDP		; ioUserFishItem::GetCurFishItemCnt
_TEXT	ENDS
PUBLIC	??Y?$CEncrypt@H@@QAEAAHABH@Z			; CEncrypt<int>::operator+=
; Function compile flags: /Ogsp
; File d:\lost saga for developer\youtube\tutorial\source\src\lsclient\encryptvalue.h
;	COMDAT ??Y?$CEncrypt@H@@QAEAAHABH@Z
_TEXT	SEGMENT
_value$ = -4						; size = 4
_inValue$ = 8						; size = 4
??Y?$CEncrypt@H@@QAEAAHABH@Z PROC			; CEncrypt<int>::operator+=, COMDAT
; _this$ = ecx

; 905  : 	{

  00000	55		 push	 ebp
  00001	8b ec		 mov	 ebp, esp
  00003	51		 push	 ecx
  00004	56		 push	 esi

; 906  : 		
; 907  : 		type value;
; 908  : 		DecryptValueToPool(&value);

  00005	8d 45 fc	 lea	 eax, DWORD PTR _value$[ebp]
  00008	50		 push	 eax
  00009	8b f1		 mov	 esi, ecx
  0000b	e8 00 00 00 00	 call	 ?DecryptValueToPool@?$CEncrypt@H@@QAEXPAH@Z ; CEncrypt<int>::DecryptValueToPool

; 909  : 		value += inValue;

  00010	8b 45 08	 mov	 eax, DWORD PTR _inValue$[ebp]
  00013	8b 00		 mov	 eax, DWORD PTR [eax]
  00015	01 45 fc	 add	 DWORD PTR _value$[ebp], eax

; 910  : 		EncryptValueToPool((char*)&value);

  00018	8d 45 fc	 lea	 eax, DWORD PTR _value$[ebp]
  0001b	50		 push	 eax
  0001c	8b ce		 mov	 ecx, esi
  0001e	e8 00 00 00 00	 call	 ?EncryptValueToPool@?$CEncrypt@H@@AAEXPBD@Z ; CEncrypt<int>::EncryptValueToPool

; 911  : #ifdef _NOTUSE
; 912  : 		m_value += inValue;
; 913  : 		Debug();
; 914  : #endif
; 915  : 		return value;

  00023	8d 45 fc	 lea	 eax, DWORD PTR _value$[ebp]
  00026	5e		 pop	 esi

; 916  : 	} 

  00027	c9		 leave
  00028	c2 04 00	 ret	 4
??Y?$CEncrypt@H@@QAEAAHABH@Z ENDP			; CEncrypt<int>::operator+=
_TEXT	ENDS
PUBLIC	??0?$_Vector_val@UFishItem@@V?$allocator@UFishItem@@@std@@@std@@QAE@V?$allocator@UFishItem@@@1@@Z ; std::_Vector_val<FishItem,std::allocator<FishItem> >::_Vector_val<FishItem,std::allocator<FishItem> >
; Function compile flags: /Ogsp
; File c:\program files (x86)\microsoft visual studio 10.0\vc\include\vector
;	COMDAT ??0?$_Vector_val@UFishItem@@V?$allocator@UFishItem@@@std@@@std@@QAE@V?$allocator@UFishItem@@@1@@Z
_TEXT	SEGMENT
__Al$ = 8						; size = 1
??0?$_Vector_val@UFishItem@@V?$allocator@UFishItem@@@std@@@std@@QAE@V?$allocator@UFishItem@@@1@@Z PROC ; std::_Vector_val<FishItem,std::allocator<FishItem> >::_Vector_val<FishItem,std::allocator<FishItem> >, COMDAT
; _this$ = ecx

; 426  : 		{	// construct allocator from _Al

  00000	8b c1		 mov	 eax, ecx

; 427  : 		_Myfirst = 0;

  00002	33 c9		 xor	 ecx, ecx
  00004	89 08		 mov	 DWORD PTR [eax], ecx

; 428  : 		_Mylast = 0;

  00006	89 48 04	 mov	 DWORD PTR [eax+4], ecx

; 429  : 		_Myend = 0;

  00009	89 48 08	 mov	 DWORD PTR [eax+8], ecx

; 430  : 		}

  0000c	c2 04 00	 ret	 4
??0?$_Vector_val@UFishItem@@V?$allocator@UFishItem@@@std@@@std@@QAE@V?$allocator@UFishItem@@@1@@Z ENDP ; std::_Vector_val<FishItem,std::allocator<FishItem> >::_Vector_val<FishItem,std::allocator<FishItem> >
_TEXT	ENDS
PUBLIC	??0?$_Vector_iterator@V?$_Vector_val@UFishItem@@V?$allocator@UFishItem@@@std@@@std@@@std@@QAE@PAUFishItem@@PBU_Container_base0@1@@Z ; std::_Vector_iterator<std::_Vector_val<FishItem,std::allocator<FishItem> > >::_Vector_iterator<std::_Vector_val<FishItem,std::allocator<FishItem> > >
; Function compile flags: /Ogsp
;	COMDAT ??0?$_Vector_iterator@V?$_Vector_val@UFishItem@@V?$allocator@UFishItem@@@std@@@std@@@std@@QAE@PAUFishItem@@PBU_Container_base0@1@@Z
_TEXT	SEGMENT
__Parg$ = 8						; size = 4
__Pvector$ = 12						; size = 4
??0?$_Vector_iterator@V?$_Vector_val@UFishItem@@V?$allocator@UFishItem@@@std@@@std@@@std@@QAE@PAUFishItem@@PBU_Container_base0@1@@Z PROC ; std::_Vector_iterator<std::_Vector_val<FishItem,std::allocator<FishItem> > >::_Vector_iterator<std::_Vector_val<FishItem,std::allocator<FishItem> > >, COMDAT
; _this$ = ecx

; 304  : 		{	// construct with pointer _Parg

  00000	55		 push	 ebp
  00001	8b ec		 mov	 ebp, esp
  00003	8b c1		 mov	 eax, ecx
  00005	8b 4d 08	 mov	 ecx, DWORD PTR __Parg$[ebp]
  00008	89 08		 mov	 DWORD PTR [eax], ecx

; 305  : 		}

  0000a	5d		 pop	 ebp
  0000b	c2 08 00	 ret	 8
??0?$_Vector_iterator@V?$_Vector_val@UFishItem@@V?$allocator@UFishItem@@@std@@@std@@@std@@QAE@PAUFishItem@@PBU_Container_base0@1@@Z ENDP ; std::_Vector_iterator<std::_Vector_val<FishItem,std::allocator<FishItem> > >::_Vector_iterator<std::_Vector_val<FishItem,std::allocator<FishItem> > >
_TEXT	ENDS
PUBLIC	??Y?$_Vector_iterator@V?$_Vector_val@UFishItem@@V?$allocator@UFishItem@@@std@@@std@@@std@@QAEAAV01@H@Z ; std::_Vector_iterator<std::_Vector_val<FishItem,std::allocator<FishItem> > >::operator+=
; Function compile flags: /Ogsp
;	COMDAT ??Y?$_Vector_iterator@V?$_Vector_val@UFishItem@@V?$allocator@UFishItem@@@std@@@std@@@std@@QAEAAV01@H@Z
_TEXT	SEGMENT
__Off$ = 8						; size = 4
??Y?$_Vector_iterator@V?$_Vector_val@UFishItem@@V?$allocator@UFishItem@@@std@@@std@@@std@@QAEAAV01@H@Z PROC ; std::_Vector_iterator<std::_Vector_val<FishItem,std::allocator<FishItem> > >::operator+=, COMDAT
; _this$ = ecx

; 357  : 		{	// increment by integer

  00000	55		 push	 ebp
  00001	8b ec		 mov	 ebp, esp
  00003	8b c1		 mov	 eax, ecx

; 358  : 		*(_Mybase *)this += _Off;

  00005	8b 4d 08	 mov	 ecx, DWORD PTR __Off$[ebp]
  00008	c1 e1 03	 shl	 ecx, 3
  0000b	01 08		 add	 DWORD PTR [eax], ecx

; 359  : 		return (*this);
; 360  : 		}

  0000d	5d		 pop	 ebp
  0000e	c2 04 00	 ret	 4
??Y?$_Vector_iterator@V?$_Vector_val@UFishItem@@V?$allocator@UFishItem@@@std@@@std@@@std@@QAEAAV01@H@Z ENDP ; std::_Vector_iterator<std::_Vector_val<FishItem,std::allocator<FishItem> > >::operator+=
_TEXT	ENDS
PUBLIC	?max_size@?$vector@UFishItem@@V?$allocator@UFishItem@@@std@@@std@@QBEIXZ ; std::vector<FishItem,std::allocator<FishItem> >::max_size
; Function compile flags: /Ogsp
;	COMDAT ?max_size@?$vector@UFishItem@@V?$allocator@UFishItem@@@std@@@std@@QBEIXZ
_TEXT	SEGMENT
?max_size@?$vector@UFishItem@@V?$allocator@UFishItem@@@std@@@std@@QBEIXZ PROC ; std::vector<FishItem,std::allocator<FishItem> >::max_size, COMDAT
; _this$ = ecx

; 884  : 		return (this->_Alval.max_size());

  00000	b8 ff ff ff 1f	 mov	 eax, 536870911		; 1fffffffH

; 885  : 		}

  00005	c3		 ret	 0
?max_size@?$vector@UFishItem@@V?$allocator@UFishItem@@@std@@@std@@QBEIXZ ENDP ; std::vector<FishItem,std::allocator<FishItem> >::max_size
_TEXT	ENDS
PUBLIC	?_Grow_to@?$vector@UFishItem@@V?$allocator@UFishItem@@@std@@@std@@IBEII@Z ; std::vector<FishItem,std::allocator<FishItem> >::_Grow_to
; Function compile flags: /Ogsp
;	COMDAT ?_Grow_to@?$vector@UFishItem@@V?$allocator@UFishItem@@@std@@@std@@IBEII@Z
_TEXT	SEGMENT
__Count$ = 8						; size = 4
?_Grow_to@?$vector@UFishItem@@V?$allocator@UFishItem@@@std@@@std@@IBEII@Z PROC ; std::vector<FishItem,std::allocator<FishItem> >::_Grow_to, COMDAT
; _this$ = ecx

; 1274 : 		{	// grow by 50% or at least to _Count

  00000	55		 push	 ebp
  00001	8b ec		 mov	 ebp, esp

; 1275 : 		size_type _Capacity = capacity();

  00003	8b 41 08	 mov	 eax, DWORD PTR [ecx+8]
  00006	2b 01		 sub	 eax, DWORD PTR [ecx]

; 1276 : 
; 1277 : 		_Capacity = max_size() - _Capacity / 2 < _Capacity
; 1278 : 			? 0 : _Capacity + _Capacity / 2;	// try to grow by 50%

  00008	ba ff ff ff 1f	 mov	 edx, 536870911		; 1fffffffH
  0000d	c1 f8 03	 sar	 eax, 3
  00010	8b c8		 mov	 ecx, eax
  00012	d1 e9		 shr	 ecx, 1
  00014	2b d1		 sub	 edx, ecx
  00016	3b d0		 cmp	 edx, eax
  00018	73 04		 jae	 SHORT $LN4@Grow_to
  0001a	33 c0		 xor	 eax, eax
  0001c	eb 02		 jmp	 SHORT $LN5@Grow_to
$LN4@Grow_to:
  0001e	03 c1		 add	 eax, ecx
$LN5@Grow_to:

; 1279 : 		if (_Capacity < _Count)

  00020	3b 45 08	 cmp	 eax, DWORD PTR __Count$[ebp]

; 1280 : 			_Capacity = _Count;

  00023	0f 42 45 08	 cmovb	 eax, DWORD PTR __Count$[ebp]

; 1281 : 		return (_Capacity);
; 1282 : 		}

  00027	5d		 pop	 ebp
  00028	c2 04 00	 ret	 4
?_Grow_to@?$vector@UFishItem@@V?$allocator@UFishItem@@@std@@@std@@IBEII@Z ENDP ; std::vector<FishItem,std::allocator<FishItem> >::_Grow_to
_TEXT	ENDS
PUBLIC	?allocate@?$allocator@UFishItem@@@std@@QAEPAUFishItem@@I@Z ; std::allocator<FishItem>::allocate
; Function compile flags: /Ogsp
; File c:\program files (x86)\microsoft visual studio 10.0\vc\include\xmemory
;	COMDAT ?allocate@?$allocator@UFishItem@@@std@@QAEPAUFishItem@@I@Z
_TEXT	SEGMENT
__Count$ = 8						; size = 4
?allocate@?$allocator@UFishItem@@@std@@QAEPAUFishItem@@I@Z PROC ; std::allocator<FishItem>::allocate, COMDAT
; _this$ = ecx

; 186  : 		{	// allocate array of _Count elements

  00000	55		 push	 ebp
  00001	8b ec		 mov	 ebp, esp

; 187  : 		return (_Allocate(_Count, (pointer)0));

  00003	6a 00		 push	 0
  00005	ff 75 08	 push	 DWORD PTR __Count$[ebp]
  00008	e8 00 00 00 00	 call	 ??$_Allocate@UFishItem@@@std@@YAPAUFishItem@@IPAU1@@Z ; std::_Allocate<FishItem>
  0000d	59		 pop	 ecx
  0000e	59		 pop	 ecx

; 188  : 		}

  0000f	5d		 pop	 ebp
  00010	c2 04 00	 ret	 4
?allocate@?$allocator@UFishItem@@@std@@QAEPAUFishItem@@I@Z ENDP ; std::allocator<FishItem>::allocate
_TEXT	ENDS
PUBLIC	??8?$_Vector_const_iterator@V?$_Vector_val@UFishItem@@V?$allocator@UFishItem@@@std@@@std@@@std@@QBE_NABV01@@Z ; std::_Vector_const_iterator<std::_Vector_val<FishItem,std::allocator<FishItem> > >::operator==
; Function compile flags: /Ogsp
; File c:\program files (x86)\microsoft visual studio 10.0\vc\include\vector
;	COMDAT ??8?$_Vector_const_iterator@V?$_Vector_val@UFishItem@@V?$allocator@UFishItem@@@std@@@std@@@std@@QBE_NABV01@@Z
_TEXT	SEGMENT
__Right$ = 8						; size = 4
??8?$_Vector_const_iterator@V?$_Vector_val@UFishItem@@V?$allocator@UFishItem@@@std@@@std@@@std@@QBE_NABV01@@Z PROC ; std::_Vector_const_iterator<std::_Vector_val<FishItem,std::allocator<FishItem> > >::operator==, COMDAT
; _this$ = ecx

; 201  : 		{	// test for iterator equality

  00000	55		 push	 ebp
  00001	8b ec		 mov	 ebp, esp

; 202  : 		_Compat(_Right);
; 203  : 		return (this->_Ptr == _Right._Ptr);

  00003	8b 01		 mov	 eax, DWORD PTR [ecx]
  00005	8b 4d 08	 mov	 ecx, DWORD PTR __Right$[ebp]
  00008	2b 01		 sub	 eax, DWORD PTR [ecx]
  0000a	f7 d8		 neg	 eax
  0000c	1b c0		 sbb	 eax, eax
  0000e	40		 inc	 eax

; 204  : 		}

  0000f	5d		 pop	 ebp
  00010	c2 04 00	 ret	 4
??8?$_Vector_const_iterator@V?$_Vector_val@UFishItem@@V?$allocator@UFishItem@@@std@@@std@@@std@@QBE_NABV01@@Z ENDP ; std::_Vector_const_iterator<std::_Vector_val<FishItem,std::allocator<FishItem> > >::operator==
_TEXT	ENDS
PUBLIC	??$_Cons_val@V?$allocator@UFishItem@@@std@@UFishItem@@AAU3@@std@@YAXAAV?$allocator@UFishItem@@@0@PAUFishItem@@AAU2@@Z ; std::_Cons_val<std::allocator<FishItem>,FishItem,FishItem &>
; Function compile flags: /Ogsp
; File c:\program files (x86)\microsoft visual studio 10.0\vc\include\xmemory
;	COMDAT ??$_Cons_val@V?$allocator@UFishItem@@@std@@UFishItem@@AAU3@@std@@YAXAAV?$allocator@UFishItem@@@0@PAUFishItem@@AAU2@@Z
_TEXT	SEGMENT
__Alval$ = 8						; size = 4
__Pdest$ = 12						; size = 4
__Src$ = 16						; size = 4
??$_Cons_val@V?$allocator@UFishItem@@@std@@UFishItem@@AAU3@@std@@YAXAAV?$allocator@UFishItem@@@0@PAUFishItem@@AAU2@@Z PROC ; std::_Cons_val<std::allocator<FishItem>,FishItem,FishItem &>, COMDAT

; 279  : 	{	// construct using allocator

  00000	55		 push	 ebp
  00001	8b ec		 mov	 ebp, esp

; 280  : 	_Alval.construct(_Pdest, _STD forward<_Ty2>(_Src));

  00003	8b 45 0c	 mov	 eax, DWORD PTR __Pdest$[ebp]
  00006	85 c0		 test	 eax, eax
  00008	74 0d		 je	 SHORT $LN7@Cons_val
  0000a	8b 4d 10	 mov	 ecx, DWORD PTR __Src$[ebp]
  0000d	8b 11		 mov	 edx, DWORD PTR [ecx]
  0000f	89 10		 mov	 DWORD PTR [eax], edx
  00011	8b 49 04	 mov	 ecx, DWORD PTR [ecx+4]
  00014	89 48 04	 mov	 DWORD PTR [eax+4], ecx
$LN7@Cons_val:

; 281  : 	}

  00017	5d		 pop	 ebp
  00018	c3		 ret	 0
??$_Cons_val@V?$allocator@UFishItem@@@std@@UFishItem@@AAU3@@std@@YAXAAV?$allocator@UFishItem@@@0@PAUFishItem@@AAU2@@Z ENDP ; std::_Cons_val<std::allocator<FishItem>,FishItem,FishItem &>
_TEXT	ENDS
PUBLIC	?construct@?$allocator@UFishItem@@@std@@QAEXPAUFishItem@@ABU3@@Z ; std::allocator<FishItem>::construct
; Function compile flags: /Ogsp
;	COMDAT ?construct@?$allocator@UFishItem@@@std@@QAEXPAUFishItem@@ABU3@@Z
_TEXT	SEGMENT
__Ptr$ = 8						; size = 4
__Val$ = 12						; size = 4
?construct@?$allocator@UFishItem@@@std@@QAEXPAUFishItem@@ABU3@@Z PROC ; std::allocator<FishItem>::construct, COMDAT
; _this$ = ecx

; 196  : 		{	// construct object at _Ptr with value _Val

  00000	55		 push	 ebp
  00001	8b ec		 mov	 ebp, esp

; 197  : 		_Construct(_Ptr, _Val);

  00003	8b 45 08	 mov	 eax, DWORD PTR __Ptr$[ebp]
  00006	85 c0		 test	 eax, eax
  00008	74 0d		 je	 SHORT $LN5@construct@2
  0000a	8b 4d 0c	 mov	 ecx, DWORD PTR __Val$[ebp]
  0000d	8b 11		 mov	 edx, DWORD PTR [ecx]
  0000f	89 10		 mov	 DWORD PTR [eax], edx
  00011	8b 49 04	 mov	 ecx, DWORD PTR [ecx+4]
  00014	89 48 04	 mov	 DWORD PTR [eax+4], ecx
$LN5@construct@2:

; 198  : 		}

  00017	5d		 pop	 ebp
  00018	c2 08 00	 ret	 8
?construct@?$allocator@UFishItem@@@std@@QAEXPAUFishItem@@ABU3@@Z ENDP ; std::allocator<FishItem>::construct
_TEXT	ENDS
PUBLIC	??G?$_Vector_iterator@V?$_Vector_val@UFishItem@@V?$allocator@UFishItem@@@std@@@std@@@std@@QBEHABV?$_Vector_const_iterator@V?$_Vector_val@UFishItem@@V?$allocator@UFishItem@@@std@@@std@@@1@@Z ; std::_Vector_iterator<std::_Vector_val<FishItem,std::allocator<FishItem> > >::operator-
; Function compile flags: /Ogsp
; File c:\program files (x86)\microsoft visual studio 10.0\vc\include\vector
;	COMDAT ??G?$_Vector_iterator@V?$_Vector_val@UFishItem@@V?$allocator@UFishItem@@@std@@@std@@@std@@QBEHABV?$_Vector_const_iterator@V?$_Vector_val@UFishItem@@V?$allocator@UFishItem@@@std@@@std@@@1@@Z
_TEXT	SEGMENT
__Right$ = 8						; size = 4
??G?$_Vector_iterator@V?$_Vector_val@UFishItem@@V?$allocator@UFishItem@@@std@@@std@@@std@@QBEHABV?$_Vector_const_iterator@V?$_Vector_val@UFishItem@@V?$allocator@UFishItem@@@std@@@std@@@1@@Z PROC ; std::_Vector_iterator<std::_Vector_val<FishItem,std::allocator<FishItem> > >::operator-, COMDAT
; _this$ = ecx

; 380  : 		{	// return difference of iterators

  00000	55		 push	 ebp
  00001	8b ec		 mov	 ebp, esp

; 381  : 		return (*(_Mybase *)this - _Right);

  00003	8b 01		 mov	 eax, DWORD PTR [ecx]
  00005	8b 4d 08	 mov	 ecx, DWORD PTR __Right$[ebp]
  00008	2b 01		 sub	 eax, DWORD PTR [ecx]
  0000a	c1 f8 03	 sar	 eax, 3

; 382  : 		}

  0000d	5d		 pop	 ebp
  0000e	c2 04 00	 ret	 4
??G?$_Vector_iterator@V?$_Vector_val@UFishItem@@V?$allocator@UFishItem@@@std@@@std@@@std@@QBEHABV?$_Vector_const_iterator@V?$_Vector_val@UFishItem@@V?$allocator@UFishItem@@@std@@@std@@@1@@Z ENDP ; std::_Vector_iterator<std::_Vector_val<FishItem,std::allocator<FishItem> > >::operator-
_TEXT	ENDS
PUBLIC	??$_Unchecked@V?$_Vector_val@UFishItem@@V?$allocator@UFishItem@@@std@@@std@@@std@@YAPAUFishItem@@V?$_Vector_iterator@V?$_Vector_val@UFishItem@@V?$allocator@UFishItem@@@std@@@std@@@0@@Z ; std::_Unchecked<std::_Vector_val<FishItem,std::allocator<FishItem> > >
; Function compile flags: /Ogsp
;	COMDAT ??$_Unchecked@V?$_Vector_val@UFishItem@@V?$allocator@UFishItem@@@std@@@std@@@std@@YAPAUFishItem@@V?$_Vector_iterator@V?$_Vector_val@UFishItem@@V?$allocator@UFishItem@@@std@@@std@@@0@@Z
_TEXT	SEGMENT
__Iter$ = 8						; size = 4
??$_Unchecked@V?$_Vector_val@UFishItem@@V?$allocator@UFishItem@@@std@@@std@@@std@@YAPAUFishItem@@V?$_Vector_iterator@V?$_Vector_val@UFishItem@@V?$allocator@UFishItem@@@std@@@std@@@0@@Z PROC ; std::_Unchecked<std::_Vector_val<FishItem,std::allocator<FishItem> > >, COMDAT

; 393  : 	{	// convert to unchecked

  00000	55		 push	 ebp
  00001	8b ec		 mov	 ebp, esp

; 394  : 	return (_Iter._Unchecked());

  00003	8b 45 08	 mov	 eax, DWORD PTR __Iter$[ebp]

; 395  : 	}

  00006	5d		 pop	 ebp
  00007	c3		 ret	 0
??$_Unchecked@V?$_Vector_val@UFishItem@@V?$allocator@UFishItem@@@std@@@std@@@std@@YAPAUFishItem@@V?$_Vector_iterator@V?$_Vector_val@UFishItem@@V?$allocator@UFishItem@@@std@@@std@@@0@@Z ENDP ; std::_Unchecked<std::_Vector_val<FishItem,std::allocator<FishItem> > >
_TEXT	ENDS
PUBLIC	??$_Move@PAUFishItem@@PAU1@@std@@YAPAUFishItem@@PAU1@00U_Nonscalar_ptr_iterator_tag@0@@Z ; std::_Move<FishItem *,FishItem *>
; Function compile flags: /Ogsp
; File c:\program files (x86)\microsoft visual studio 10.0\vc\include\xutility
;	COMDAT ??$_Move@PAUFishItem@@PAU1@@std@@YAPAUFishItem@@PAU1@00U_Nonscalar_ptr_iterator_tag@0@@Z
_TEXT	SEGMENT
__First$ = 8						; size = 4
__Last$ = 12						; size = 4
__Dest$ = 16						; size = 4
___formal$ = 20						; size = 1
??$_Move@PAUFishItem@@PAU1@@std@@YAPAUFishItem@@PAU1@00U_Nonscalar_ptr_iterator_tag@0@@Z PROC ; std::_Move<FishItem *,FishItem *>, COMDAT

; 2512 : 	{	// move [_First, _Last) to [_Dest, ...), arbitrary iterators

  00000	55		 push	 ebp
  00001	8b ec		 mov	 ebp, esp

; 2513 : 	for (; _First != _Last; ++_Dest, ++_First)

  00003	8b 4d 08	 mov	 ecx, DWORD PTR __First$[ebp]
  00006	8b 45 10	 mov	 eax, DWORD PTR __Dest$[ebp]
$LN11@Move:
  00009	3b 4d 0c	 cmp	 ecx, DWORD PTR __Last$[ebp]
  0000c	74 12		 je	 SHORT $LN1@Move

; 2514 : 		*_Dest = _STD move(*_First);

  0000e	8b 11		 mov	 edx, DWORD PTR [ecx]
  00010	89 10		 mov	 DWORD PTR [eax], edx
  00012	8b 51 04	 mov	 edx, DWORD PTR [ecx+4]
  00015	89 50 04	 mov	 DWORD PTR [eax+4], edx
  00018	83 c0 08	 add	 eax, 8
  0001b	83 c1 08	 add	 ecx, 8
  0001e	eb e9		 jmp	 SHORT $LN11@Move
$LN1@Move:

; 2515 : 	return (_Dest);
; 2516 : 	}

  00020	5d		 pop	 ebp
  00021	c3		 ret	 0
??$_Move@PAUFishItem@@PAU1@@std@@YAPAUFishItem@@PAU1@00U_Nonscalar_ptr_iterator_tag@0@@Z ENDP ; std::_Move<FishItem *,FishItem *>
_TEXT	ENDS
PUBLIC	?destroy@?$allocator@UFishItem@@@std@@QAEXPAUFishItem@@@Z ; std::allocator<FishItem>::destroy
; Function compile flags: /Ogsp
; File c:\program files (x86)\microsoft visual studio 10.0\vc\include\xmemory
;	COMDAT ?destroy@?$allocator@UFishItem@@@std@@QAEXPAUFishItem@@@Z
_TEXT	SEGMENT
__Ptr$ = 8						; size = 4
?destroy@?$allocator@UFishItem@@@std@@QAEXPAUFishItem@@@Z PROC ; std::allocator<FishItem>::destroy, COMDAT
; _this$ = ecx

; 213  : 		_Destroy(_Ptr);
; 214  : 		}

  00000	c2 04 00	 ret	 4
?destroy@?$allocator@UFishItem@@@std@@QAEXPAUFishItem@@@Z ENDP ; std::allocator<FishItem>::destroy
_TEXT	ENDS
PUBLIC	??$?0AAPAUFishItem@@AAPAU0@@?$pair@PAUFishItem@@PAU1@@std@@QAE@AAPAUFishItem@@0@Z ; std::pair<FishItem *,FishItem *>::pair<FishItem *,FishItem *><FishItem * &,FishItem * &>
; Function compile flags: /Ogsp
; File c:\program files (x86)\microsoft visual studio 10.0\vc\include\utility
;	COMDAT ??$?0AAPAUFishItem@@AAPAU0@@?$pair@PAUFishItem@@PAU1@@std@@QAE@AAPAUFishItem@@0@Z
_TEXT	SEGMENT
__Val1$ = 8						; size = 4
__Val2$ = 12						; size = 4
??$?0AAPAUFishItem@@AAPAU0@@?$pair@PAUFishItem@@PAU1@@std@@QAE@AAPAUFishItem@@0@Z PROC ; std::pair<FishItem *,FishItem *>::pair<FishItem *,FishItem *><FishItem * &,FishItem * &>, COMDAT
; _this$ = ecx

; 247  : 		{	// construct from moved values

  00000	55		 push	 ebp
  00001	8b ec		 mov	 ebp, esp
  00003	8b c1		 mov	 eax, ecx
  00005	8b 4d 08	 mov	 ecx, DWORD PTR __Val1$[ebp]
  00008	8b 09		 mov	 ecx, DWORD PTR [ecx]
  0000a	89 08		 mov	 DWORD PTR [eax], ecx
  0000c	8b 4d 0c	 mov	 ecx, DWORD PTR __Val2$[ebp]
  0000f	8b 09		 mov	 ecx, DWORD PTR [ecx]
  00011	89 48 04	 mov	 DWORD PTR [eax+4], ecx

; 248  : 		}

  00014	5d		 pop	 ebp
  00015	c2 08 00	 ret	 8
??$?0AAPAUFishItem@@AAPAU0@@?$pair@PAUFishItem@@PAU1@@std@@QAE@AAPAUFishItem@@0@Z ENDP ; std::pair<FishItem *,FishItem *>::pair<FishItem *,FishItem *><FishItem * &,FishItem * &>
_TEXT	ENDS
PUBLIC	?construct@?$allocator@UFishItem@@@std@@QAEXPAUFishItem@@$$QAU3@@Z ; std::allocator<FishItem>::construct
; Function compile flags: /Ogsp
; File c:\program files (x86)\microsoft visual studio 10.0\vc\include\xmemory
;	COMDAT ?construct@?$allocator@UFishItem@@@std@@QAEXPAUFishItem@@$$QAU3@@Z
_TEXT	SEGMENT
__Ptr$ = 8						; size = 4
__Val$ = 12						; size = 4
?construct@?$allocator@UFishItem@@@std@@QAEXPAUFishItem@@$$QAU3@@Z PROC ; std::allocator<FishItem>::construct, COMDAT
; _this$ = ecx

; 201  : 		{	// construct object at _Ptr with value _Val

  00000	55		 push	 ebp
  00001	8b ec		 mov	 ebp, esp

; 202  : 		::new ((void _FARQ *)_Ptr) _Ty(_STD forward<_Ty>(_Val));

  00003	8b 45 08	 mov	 eax, DWORD PTR __Ptr$[ebp]
  00006	85 c0		 test	 eax, eax
  00008	74 0d		 je	 SHORT $LN3@construct@3
  0000a	8b 4d 0c	 mov	 ecx, DWORD PTR __Val$[ebp]
  0000d	8b 11		 mov	 edx, DWORD PTR [ecx]
  0000f	89 10		 mov	 DWORD PTR [eax], edx
  00011	8b 49 04	 mov	 ecx, DWORD PTR [ecx+4]
  00014	89 48 04	 mov	 DWORD PTR [eax+4], ecx
$LN3@construct@3:

; 203  : 		}

  00017	5d		 pop	 ebp
  00018	c2 08 00	 ret	 8
?construct@?$allocator@UFishItem@@@std@@QAEXPAUFishItem@@$$QAU3@@Z ENDP ; std::allocator<FishItem>::construct
_TEXT	ENDS
PUBLIC	??$swap@UFishItem@@@std@@YAXAAUFishItem@@0@Z	; std::swap<FishItem>
; Function compile flags: /Ogsp
; File c:\program files (x86)\microsoft visual studio 10.0\vc\include\utility
;	COMDAT ??$swap@UFishItem@@@std@@YAXAAUFishItem@@0@Z
_TEXT	SEGMENT
__Left$ = 8						; size = 4
__Right$ = 12						; size = 4
??$swap@UFishItem@@@std@@YAXAAUFishItem@@0@Z PROC	; std::swap<FishItem>, COMDAT

; 101  : 	{	// exchange values stored at _Left and _Right

  00000	55		 push	 ebp
  00001	8b ec		 mov	 ebp, esp

; 102  : 	_Ty _Tmp = _Move(_Left);
; 103  : 	_Left = _Move(_Right);

  00003	8b 4d 0c	 mov	 ecx, DWORD PTR __Right$[ebp]
  00006	8b 45 08	 mov	 eax, DWORD PTR __Left$[ebp]
  00009	8b 10		 mov	 edx, DWORD PTR [eax]
  0000b	56		 push	 esi
  0000c	8b 70 04	 mov	 esi, DWORD PTR [eax+4]
  0000f	57		 push	 edi
  00010	8b 39		 mov	 edi, DWORD PTR [ecx]
  00012	89 38		 mov	 DWORD PTR [eax], edi
  00014	8b 79 04	 mov	 edi, DWORD PTR [ecx+4]
  00017	89 78 04	 mov	 DWORD PTR [eax+4], edi
  0001a	5f		 pop	 edi

; 104  : 	_Right = _Move(_Tmp);

  0001b	89 71 04	 mov	 DWORD PTR [ecx+4], esi
  0001e	89 11		 mov	 DWORD PTR [ecx], edx
  00020	5e		 pop	 esi

; 105  : 	}

  00021	5d		 pop	 ebp
  00022	c3		 ret	 0
??$swap@UFishItem@@@std@@YAXAAUFishItem@@0@Z ENDP	; std::swap<FishItem>
_TEXT	ENDS
PUBLIC	??$_Move_backward@PAUFishItem@@PAU1@@std@@YAPAUFishItem@@PAU1@00@Z ; std::_Move_backward<FishItem *,FishItem *>
; Function compile flags: /Ogsp
; File c:\program files (x86)\microsoft visual studio 10.0\vc\include\xutility
;	COMDAT ??$_Move_backward@PAUFishItem@@PAU1@@std@@YAPAUFishItem@@PAU1@00@Z
_TEXT	SEGMENT
__Cat$525912 = -4					; size = 1
__First$ = 8						; size = 4
__Last$ = 12						; size = 4
__Dest$ = 16						; size = 4
??$_Move_backward@PAUFishItem@@PAU1@@std@@YAPAUFishItem@@PAU1@00@Z PROC ; std::_Move_backward<FishItem *,FishItem *>, COMDAT

; 2638 : 	{	// move [_First, _Last) backwards to [..., _Dest), unchecked

  00000	55		 push	 ebp
  00001	8b ec		 mov	 ebp, esp
  00003	51		 push	 ecx

; 2639 : 	return (_Move_backward(_First, _Last,
; 2640 : 		_Dest, _Ptr_cat(_First, _Dest)));

  00004	ff 75 fc	 push	 DWORD PTR __Cat$525912[ebp]
  00007	ff 75 10	 push	 DWORD PTR __Dest$[ebp]
  0000a	ff 75 0c	 push	 DWORD PTR __Last$[ebp]
  0000d	ff 75 08	 push	 DWORD PTR __First$[ebp]
  00010	e8 00 00 00 00	 call	 ??$_Move_backward@PAUFishItem@@PAU1@@std@@YAPAUFishItem@@PAU1@00U_Nonscalar_ptr_iterator_tag@0@@Z ; std::_Move_backward<FishItem *,FishItem *>
  00015	83 c4 10	 add	 esp, 16			; 00000010H

; 2641 : 	}

  00018	c9		 leave
  00019	c3		 ret	 0
??$_Move_backward@PAUFishItem@@PAU1@@std@@YAPAUFishItem@@PAU1@00@Z ENDP ; std::_Move_backward<FishItem *,FishItem *>
_TEXT	ENDS
PUBLIC	??$_Push_heap@PAUFishItem@@HU1@VFishItemSort@@@std@@YAXPAUFishItem@@HH$$QAU1@VFishItemSort@@@Z ; std::_Push_heap<FishItem *,int,FishItem,FishItemSort>
; Function compile flags: /Ogsp
; File c:\program files (x86)\microsoft visual studio 10.0\vc\include\algorithm
;	COMDAT ??$_Push_heap@PAUFishItem@@HU1@VFishItemSort@@@std@@YAXPAUFishItem@@HH$$QAU1@VFishItemSort@@@Z
_TEXT	SEGMENT
__First$ = 8						; size = 4
__Hole$ = 12						; size = 4
__Top$ = 16						; size = 4
__Val$ = 20						; size = 4
__Pred$ = 24						; size = 1
??$_Push_heap@PAUFishItem@@HU1@VFishItemSort@@@std@@YAXPAUFishItem@@HH$$QAU1@VFishItemSort@@@Z PROC ; std::_Push_heap<FishItem *,int,FishItem,FishItemSort>, COMDAT

; 2455 : 	{	// percolate _Hole to _Top or where _Val belongs, using operator<

  00000	55		 push	 ebp
  00001	8b ec		 mov	 ebp, esp

; 2456 : 	for (_Diff _Idx = (_Hole - 1) / 2;

  00003	8b 4d 0c	 mov	 ecx, DWORD PTR __Hole$[ebp]
  00006	56		 push	 esi

; 2457 : 		_Top < _Hole && _DEBUG_LT_PRED(_Pred, *(_First + _Idx), _Val);
; 2458 : 		_Idx = (_Hole - 1) / 2)

  00007	8b 75 08	 mov	 esi, DWORD PTR __First$[ebp]
  0000a	57		 push	 edi
  0000b	8b 7d 14	 mov	 edi, DWORD PTR __Val$[ebp]
  0000e	8d 41 ff	 lea	 eax, DWORD PTR [ecx-1]
  00011	eb 1a		 jmp	 SHORT $LN17@Push_heap
$LL3@Push_heap:
  00013	8b 54 c6 04	 mov	 edx, DWORD PTR [esi+eax*8+4]
  00017	3b 57 04	 cmp	 edx, DWORD PTR [edi+4]
  0001a	7d 1b		 jge	 SHORT $LN6@Push_heap

; 2459 : 		{	// move _Hole up to parent
; 2460 : 		*(_First + _Hole) = _Move(*(_First + _Idx));

  0001c	8b 14 c6	 mov	 edx, DWORD PTR [esi+eax*8]
  0001f	89 14 ce	 mov	 DWORD PTR [esi+ecx*8], edx
  00022	8b 54 c6 04	 mov	 edx, DWORD PTR [esi+eax*8+4]
  00026	89 54 ce 04	 mov	 DWORD PTR [esi+ecx*8+4], edx

; 2461 : 		_Hole = _Idx;

  0002a	8b c8		 mov	 ecx, eax
  0002c	48		 dec	 eax
$LN17@Push_heap:

; 2457 : 		_Top < _Hole && _DEBUG_LT_PRED(_Pred, *(_First + _Idx), _Val);
; 2458 : 		_Idx = (_Hole - 1) / 2)

  0002d	99		 cdq
  0002e	2b c2		 sub	 eax, edx
  00030	d1 f8		 sar	 eax, 1
  00032	39 4d 10	 cmp	 DWORD PTR __Top$[ebp], ecx
  00035	7c dc		 jl	 SHORT $LL3@Push_heap
$LN6@Push_heap:

; 2462 : 		}
; 2463 : 
; 2464 : 	*(_First + _Hole) = _Move(_Val);	// drop _Val into final hole

  00037	8b 07		 mov	 eax, DWORD PTR [edi]
  00039	89 04 ce	 mov	 DWORD PTR [esi+ecx*8], eax
  0003c	8b 47 04	 mov	 eax, DWORD PTR [edi+4]
  0003f	5f		 pop	 edi
  00040	89 44 ce 04	 mov	 DWORD PTR [esi+ecx*8+4], eax
  00044	5e		 pop	 esi

; 2465 : 	}

  00045	5d		 pop	 ebp
  00046	c3		 ret	 0
??$_Push_heap@PAUFishItem@@HU1@VFishItemSort@@@std@@YAXPAUFishItem@@HH$$QAU1@VFishItemSort@@@Z ENDP ; std::_Push_heap<FishItem *,int,FishItem,FishItemSort>
_TEXT	ENDS
PUBLIC	??0?$CEncrypt@H@@QAE@XZ				; CEncrypt<int>::CEncrypt<int>
EXTRN	??0ccddaabb@@QAE@XZ:PROC			; ccddaabb::ccddaabb
EXTRN	___CxxFrameHandler3:PROC
EXTRN	@__security_check_cookie@4:PROC
EXTRN	__EH_epilog3:PROC
EXTRN	__EH_prolog3:PROC
;	COMDAT xdata$x
; File d:\lost saga for developer\youtube\tutorial\source\src\lsclient\encryptvalue.h
xdata$x	SEGMENT
__unwindtable$??0?$CEncrypt@H@@QAE@XZ DD 0ffffffffH
	DD	FLAT:__unwindfunclet$??0?$CEncrypt@H@@QAE@XZ$0
__ehfuncinfo$??0?$CEncrypt@H@@QAE@XZ DD 019930522H
	DD	01H
	DD	FLAT:__unwindtable$??0?$CEncrypt@H@@QAE@XZ
	DD	2 DUP(00H)
	DD	2 DUP(00H)
	DD	00H
	DD	01H
; Function compile flags: /Ogsp
xdata$x	ENDS
;	COMDAT ??0?$CEncrypt@H@@QAE@XZ
_TEXT	SEGMENT
_this$ = -16						; size = 4
__$EHRec$ = -12						; size = 12
??0?$CEncrypt@H@@QAE@XZ PROC				; CEncrypt<int>::CEncrypt<int>, COMDAT
; _this$ = ecx

; 109  : 	CEncrypt()

  00000	6a 04		 push	 4
  00002	b8 00 00 00 00	 mov	 eax, __ehhandler$??0?$CEncrypt@H@@QAE@XZ
  00007	e8 00 00 00 00	 call	 __EH_prolog3
  0000c	8b f1		 mov	 esi, ecx
  0000e	89 75 f0	 mov	 DWORD PTR _this$[ebp], esi
  00011	8d 4e 0c	 lea	 ecx, DWORD PTR [esi+12]
  00014	c7 06 00 00 00
	00		 mov	 DWORD PTR [esi], OFFSET ??_7?$CEncrypt@H@@6B@
  0001a	e8 00 00 00 00	 call	 ??0ccddaabb@@QAE@XZ	; ccddaabb::ccddaabb
  0001f	83 65 fc 00	 and	 DWORD PTR __$EHRec$[ebp+8], 0

; 110  : 	{
; 111  : 		Init();

  00023	8b ce		 mov	 ecx, esi
  00025	e8 00 00 00 00	 call	 ?Init@?$CEncrypt@H@@AAEXXZ ; CEncrypt<int>::Init

; 112  : 	}

  0002a	8b c6		 mov	 eax, esi
  0002c	e8 00 00 00 00	 call	 __EH_epilog3
  00031	c3		 ret	 0
_TEXT	ENDS
;	COMDAT text$x
text$x	SEGMENT
__unwindfunclet$??0?$CEncrypt@H@@QAE@XZ$0:
  00000	8b 4d f0	 mov	 ecx, DWORD PTR _this$[ebp]
  00003	83 c1 0c	 add	 ecx, 12			; 0000000cH
  00006	e9 00 00 00 00	 jmp	 ??1ccddaabb@@UAE@XZ	; ccddaabb::~ccddaabb
__ehhandler$??0?$CEncrypt@H@@QAE@XZ:
  0000b	8b 54 24 08	 mov	 edx, DWORD PTR [esp+8]
  0000f	8d 42 0c	 lea	 eax, DWORD PTR [edx+12]
  00012	8b 4a ec	 mov	 ecx, DWORD PTR [edx-20]
  00015	33 c8		 xor	 ecx, eax
  00017	e8 00 00 00 00	 call	 @__security_check_cookie@4
  0001c	b8 00 00 00 00	 mov	 eax, OFFSET __ehfuncinfo$??0?$CEncrypt@H@@QAE@XZ
  00021	e9 00 00 00 00	 jmp	 ___CxxFrameHandler3
text$x	ENDS
??0?$CEncrypt@H@@QAE@XZ ENDP				; CEncrypt<int>::CEncrypt<int>
PUBLIC	??B?$CEncrypt@H@@QAEHXZ				; CEncrypt<int>::operator int
; Function compile flags: /Ogsp
;	COMDAT ??B?$CEncrypt@H@@QAEHXZ
_TEXT	SEGMENT
_value$ = -4						; size = 4
??B?$CEncrypt@H@@QAEHXZ PROC				; CEncrypt<int>::operator int, COMDAT
; _this$ = ecx

; 134  : 	{

  00000	55		 push	 ebp
  00001	8b ec		 mov	 ebp, esp
  00003	51		 push	 ecx

; 135  : 		type value;
; 136  : 		DecryptValueToPool(&value);

  00004	8d 45 fc	 lea	 eax, DWORD PTR _value$[ebp]
  00007	50		 push	 eax
  00008	e8 00 00 00 00	 call	 ?DecryptValueToPool@?$CEncrypt@H@@QAEXPAH@Z ; CEncrypt<int>::DecryptValueToPool

; 137  : 
; 138  : #ifdef _NOTUSE
; 139  : 		Debug();
; 140  : #endif
; 141  : 		return value;

  0000d	8b 45 fc	 mov	 eax, DWORD PTR _value$[ebp]

; 142  : 	}

  00010	c9		 leave
  00011	c3		 ret	 0
??B?$CEncrypt@H@@QAEHXZ ENDP				; CEncrypt<int>::operator int
_TEXT	ENDS
PUBLIC	??4?$CEncrypt@H@@QAEHH@Z			; CEncrypt<int>::operator=
; Function compile flags: /Ogsp
;	COMDAT ??4?$CEncrypt@H@@QAEHH@Z
_TEXT	SEGMENT
_value$ = 8						; size = 4
_inValue$ = 8						; size = 4
??4?$CEncrypt@H@@QAEHH@Z PROC				; CEncrypt<int>::operator=, COMDAT
; _this$ = ecx

; 843  : 	{

  00000	55		 push	 ebp
  00001	8b ec		 mov	 ebp, esp

; 844  : 		type value = inValue;

  00003	8b 45 08	 mov	 eax, DWORD PTR _inValue$[ebp]
  00006	89 45 08	 mov	 DWORD PTR _value$[ebp], eax

; 845  : 		EncryptValueToPool((char*)&value);

  00009	8d 45 08	 lea	 eax, DWORD PTR _value$[ebp]
  0000c	50		 push	 eax
  0000d	e8 00 00 00 00	 call	 ?EncryptValueToPool@?$CEncrypt@H@@AAEXPBD@Z ; CEncrypt<int>::EncryptValueToPool

; 846  : #ifdef _NOTUSE
; 847  : 		m_value = inValue;
; 848  : 		Debug();
; 849  : #endif
; 850  : 		return value;

  00012	8b 45 08	 mov	 eax, DWORD PTR _value$[ebp]

; 851  : 	}

  00015	5d		 pop	 ebp
  00016	c2 04 00	 ret	 4
??4?$CEncrypt@H@@QAEHH@Z ENDP				; CEncrypt<int>::operator=
_TEXT	ENDS
PUBLIC	?CheckCurMaxInventory@ioUserFishItem@@QAEXXZ	; ioUserFishItem::CheckCurMaxInventory
EXTRN	?GetFishingLevel@ioMyInfo@@QAEHXZ:PROC		; ioMyInfo::GetFishingLevel
EXTRN	?GetFishingSlotExtendItem@ioMyInfo@@QAEHXZ:PROC	; ioMyInfo::GetFishingSlotExtendItem
EXTRN	?GetSingleton@ioMyInfo@@SAAAV1@XZ:PROC		; ioMyInfo::GetSingleton
; Function compile flags: /Ogsp
; File d:\lost saga for developer\youtube\tutorial\source\src\lsclient\iouserfishitem.cpp
;	COMDAT ?CheckCurMaxInventory@ioUserFishItem@@QAEXXZ
_TEXT	SEGMENT
_value$525956 = -4					; size = 4
_iLevelAdd$ = -4					; size = 4
_iExtendItem$ = -4					; size = 4
?CheckCurMaxInventory@ioUserFishItem@@QAEXXZ PROC	; ioUserFishItem::CheckCurMaxInventory, COMDAT
; _this$ = ecx

; 100  : {

  00000	55		 push	 ebp
  00001	8b ec		 mov	 ebp, esp
  00003	51		 push	 ecx
  00004	56		 push	 esi
  00005	57		 push	 edi

; 101  : 	m_iCurMaxInventory = DEFAULT_FISH_INVEN;

  00006	6a 0a		 push	 10			; 0000000aH
  00008	5f		 pop	 edi
  00009	8d 71 04	 lea	 esi, DWORD PTR [ecx+4]
  0000c	8d 45 fc	 lea	 eax, DWORD PTR _value$525956[ebp]
  0000f	50		 push	 eax
  00010	8b ce		 mov	 ecx, esi
  00012	89 7d fc	 mov	 DWORD PTR _value$525956[ebp], edi
  00015	e8 00 00 00 00	 call	 ?EncryptValueToPool@?$CEncrypt@H@@AAEXPBD@Z ; CEncrypt<int>::EncryptValueToPool

; 102  : 
; 103  : 	//  
; 104  : 	int iExtendItem = g_MyInfo.GetFishingSlotExtendItem();

  0001a	e8 00 00 00 00	 call	 ?GetSingleton@ioMyInfo@@SAAAV1@XZ ; ioMyInfo::GetSingleton
  0001f	8b c8		 mov	 ecx, eax
  00021	e8 00 00 00 00	 call	 ?GetFishingSlotExtendItem@ioMyInfo@@QAEHXZ ; ioMyInfo::GetFishingSlotExtendItem
  00026	89 45 fc	 mov	 DWORD PTR _iExtendItem$[ebp], eax

; 105  : 	m_iCurMaxInventory += iExtendItem;

  00029	8d 45 fc	 lea	 eax, DWORD PTR _iExtendItem$[ebp]
  0002c	50		 push	 eax
  0002d	8b ce		 mov	 ecx, esi
  0002f	e8 00 00 00 00	 call	 ??Y?$CEncrypt@H@@QAEAAHABH@Z ; CEncrypt<int>::operator+=

; 106  : 
; 107  : 	//   
; 108  : 	int iLevelAdd = g_MyInfo.GetFishingLevel() / 10;

  00034	e8 00 00 00 00	 call	 ?GetSingleton@ioMyInfo@@SAAAV1@XZ ; ioMyInfo::GetSingleton
  00039	8b c8		 mov	 ecx, eax
  0003b	e8 00 00 00 00	 call	 ?GetFishingLevel@ioMyInfo@@QAEHXZ ; ioMyInfo::GetFishingLevel
  00040	99		 cdq
  00041	f7 ff		 idiv	 edi

; 109  : 	m_iCurMaxInventory += iLevelAdd;

  00043	8b ce		 mov	 ecx, esi
  00045	89 45 fc	 mov	 DWORD PTR _iLevelAdd$[ebp], eax
  00048	8d 45 fc	 lea	 eax, DWORD PTR _iLevelAdd$[ebp]
  0004b	50		 push	 eax
  0004c	e8 00 00 00 00	 call	 ??Y?$CEncrypt@H@@QAEAAHABH@Z ; CEncrypt<int>::operator+=
  00051	5f		 pop	 edi
  00052	5e		 pop	 esi

; 110  : }

  00053	c9		 leave
  00054	c3		 ret	 0
?CheckCurMaxInventory@ioUserFishItem@@QAEXXZ ENDP	; ioUserFishItem::CheckCurMaxInventory
_TEXT	ENDS
PUBLIC	?GetCurMaxInventory@ioUserFishItem@@QAEHXZ	; ioUserFishItem::GetCurMaxInventory
; Function compile flags: /Ogsp
;	COMDAT ?GetCurMaxInventory@ioUserFishItem@@QAEHXZ
_TEXT	SEGMENT
_value$525962 = -4					; size = 4
?GetCurMaxInventory@ioUserFishItem@@QAEHXZ PROC		; ioUserFishItem::GetCurMaxInventory, COMDAT
; _this$ = ecx

; 113  : {

  00000	55		 push	 ebp
  00001	8b ec		 mov	 ebp, esp
  00003	51		 push	 ecx
  00004	56		 push	 esi
  00005	8b f1		 mov	 esi, ecx

; 114  : 	CheckCurMaxInventory();

  00007	e8 00 00 00 00	 call	 ?CheckCurMaxInventory@ioUserFishItem@@QAEXXZ ; ioUserFishItem::CheckCurMaxInventory

; 115  : 
; 116  : 	return m_iCurMaxInventory;

  0000c	8d 45 fc	 lea	 eax, DWORD PTR _value$525962[ebp]
  0000f	50		 push	 eax
  00010	8d 4e 04	 lea	 ecx, DWORD PTR [esi+4]
  00013	e8 00 00 00 00	 call	 ?DecryptValueToPool@?$CEncrypt@H@@QAEXPAH@Z ; CEncrypt<int>::DecryptValueToPool
  00018	8b 45 fc	 mov	 eax, DWORD PTR _value$525962[ebp]
  0001b	5e		 pop	 esi

; 117  : }

  0001c	c9		 leave
  0001d	c3		 ret	 0
?GetCurMaxInventory@ioUserFishItem@@QAEHXZ ENDP		; ioUserFishItem::GetCurMaxInventory
_TEXT	ENDS
PUBLIC	??0?$vector@UFishItem@@V?$allocator@UFishItem@@@std@@@std@@QAE@XZ ; std::vector<FishItem,std::allocator<FishItem> >::vector<FishItem,std::allocator<FishItem> >
; Function compile flags: /Ogsp
; File c:\program files (x86)\microsoft visual studio 10.0\vc\include\vector
;	COMDAT ??0?$vector@UFishItem@@V?$allocator@UFishItem@@@std@@@std@@QAE@XZ
_TEXT	SEGMENT
??0?$vector@UFishItem@@V?$allocator@UFishItem@@@std@@@std@@QAE@XZ PROC ; std::vector<FishItem,std::allocator<FishItem> >::vector<FishItem,std::allocator<FishItem> >, COMDAT
; _this$ = ecx

; 507  : 		{	// construct empty vector

  00000	8b c1		 mov	 eax, ecx
  00002	33 c9		 xor	 ecx, ecx
  00004	89 08		 mov	 DWORD PTR [eax], ecx
  00006	89 48 04	 mov	 DWORD PTR [eax+4], ecx
  00009	89 48 08	 mov	 DWORD PTR [eax+8], ecx

; 508  : 		}

  0000c	c3		 ret	 0
??0?$vector@UFishItem@@V?$allocator@UFishItem@@@std@@@std@@QAE@XZ ENDP ; std::vector<FishItem,std::allocator<FishItem> >::vector<FishItem,std::allocator<FishItem> >
_TEXT	ENDS
PUBLIC	?begin@?$vector@UFishItem@@V?$allocator@UFishItem@@@std@@@std@@QAE?AV?$_Vector_iterator@V?$_Vector_val@UFishItem@@V?$allocator@UFishItem@@@std@@@std@@@2@XZ ; std::vector<FishItem,std::allocator<FishItem> >::begin
; Function compile flags: /Ogsp
;	COMDAT ?begin@?$vector@UFishItem@@V?$allocator@UFishItem@@@std@@@std@@QAE?AV?$_Vector_iterator@V?$_Vector_val@UFishItem@@V?$allocator@UFishItem@@@std@@@std@@@2@XZ
_TEXT	SEGMENT
___$ReturnUdt$ = 8					; size = 4
?begin@?$vector@UFishItem@@V?$allocator@UFishItem@@@std@@@std@@QAE?AV?$_Vector_iterator@V?$_Vector_val@UFishItem@@V?$allocator@UFishItem@@@std@@@std@@@2@XZ PROC ; std::vector<FishItem,std::allocator<FishItem> >::begin, COMDAT
; _this$ = ecx

; 781  : 		{	// return iterator for beginning of mutable sequence

  00000	55		 push	 ebp
  00001	8b ec		 mov	 ebp, esp

; 782  : 		return (iterator(this->_Myfirst, this));

  00003	8b 09		 mov	 ecx, DWORD PTR [ecx]
  00005	8b 45 08	 mov	 eax, DWORD PTR ___$ReturnUdt$[ebp]
  00008	89 08		 mov	 DWORD PTR [eax], ecx

; 783  : 		}

  0000a	5d		 pop	 ebp
  0000b	c2 04 00	 ret	 4
?begin@?$vector@UFishItem@@V?$allocator@UFishItem@@@std@@@std@@QAE?AV?$_Vector_iterator@V?$_Vector_val@UFishItem@@V?$allocator@UFishItem@@@std@@@std@@@2@XZ ENDP ; std::vector<FishItem,std::allocator<FishItem> >::begin
_TEXT	ENDS
PUBLIC	?end@?$vector@UFishItem@@V?$allocator@UFishItem@@@std@@@std@@QAE?AV?$_Vector_iterator@V?$_Vector_val@UFishItem@@V?$allocator@UFishItem@@@std@@@std@@@2@XZ ; std::vector<FishItem,std::allocator<FishItem> >::end
; Function compile flags: /Ogsp
;	COMDAT ?end@?$vector@UFishItem@@V?$allocator@UFishItem@@@std@@@std@@QAE?AV?$_Vector_iterator@V?$_Vector_val@UFishItem@@V?$allocator@UFishItem@@@std@@@std@@@2@XZ
_TEXT	SEGMENT
___$ReturnUdt$ = 8					; size = 4
?end@?$vector@UFishItem@@V?$allocator@UFishItem@@@std@@@std@@QAE?AV?$_Vector_iterator@V?$_Vector_val@UFishItem@@V?$allocator@UFishItem@@@std@@@std@@@2@XZ PROC ; std::vector<FishItem,std::allocator<FishItem> >::end, COMDAT
; _this$ = ecx

; 791  : 		{	// return iterator for end of mutable sequence

  00000	55		 push	 ebp
  00001	8b ec		 mov	 ebp, esp

; 792  : 		return (iterator(this->_Mylast, this));

  00003	8b 49 04	 mov	 ecx, DWORD PTR [ecx+4]
  00006	8b 45 08	 mov	 eax, DWORD PTR ___$ReturnUdt$[ebp]
  00009	89 08		 mov	 DWORD PTR [eax], ecx

; 793  : 		}

  0000b	5d		 pop	 ebp
  0000c	c2 04 00	 ret	 4
?end@?$vector@UFishItem@@V?$allocator@UFishItem@@@std@@@std@@QAE?AV?$_Vector_iterator@V?$_Vector_val@UFishItem@@V?$allocator@UFishItem@@@std@@@std@@@2@XZ ENDP ; std::vector<FishItem,std::allocator<FishItem> >::end
_TEXT	ENDS
PUBLIC	??H?$_Vector_iterator@V?$_Vector_val@UFishItem@@V?$allocator@UFishItem@@@std@@@std@@@std@@QBE?AV01@H@Z ; std::_Vector_iterator<std::_Vector_val<FishItem,std::allocator<FishItem> > >::operator+
; Function compile flags: /Ogsp
;	COMDAT ??H?$_Vector_iterator@V?$_Vector_val@UFishItem@@V?$allocator@UFishItem@@@std@@@std@@@std@@QBE?AV01@H@Z
_TEXT	SEGMENT
___$ReturnUdt$ = 8					; size = 4
__Off$ = 12						; size = 4
??H?$_Vector_iterator@V?$_Vector_val@UFishItem@@V?$allocator@UFishItem@@@std@@@std@@@std@@QBE?AV01@H@Z PROC ; std::_Vector_iterator<std::_Vector_val<FishItem,std::allocator<FishItem> > >::operator+, COMDAT
; _this$ = ecx

; 363  : 		{	// return this + integer

  00000	55		 push	 ebp
  00001	8b ec		 mov	 ebp, esp

; 364  : 		_Myiter _Tmp = *this;
; 365  : 		return (_Tmp += _Off);

  00003	8b 01		 mov	 eax, DWORD PTR [ecx]
  00005	8b 4d 0c	 mov	 ecx, DWORD PTR __Off$[ebp]
  00008	8d 0c c8	 lea	 ecx, DWORD PTR [eax+ecx*8]
  0000b	8b 45 08	 mov	 eax, DWORD PTR ___$ReturnUdt$[ebp]
  0000e	89 08		 mov	 DWORD PTR [eax], ecx

; 366  : 		}

  00010	5d		 pop	 ebp
  00011	c2 08 00	 ret	 8
??H?$_Vector_iterator@V?$_Vector_val@UFishItem@@V?$allocator@UFishItem@@@std@@@std@@@std@@QBE?AV01@H@Z ENDP ; std::_Vector_iterator<std::_Vector_val<FishItem,std::allocator<FishItem> > >::operator+
_TEXT	ENDS
PUBLIC	?_Make_iter@?$vector@UFishItem@@V?$allocator@UFishItem@@@std@@@std@@QBE?AV?$_Vector_iterator@V?$_Vector_val@UFishItem@@V?$allocator@UFishItem@@@std@@@std@@@2@V?$_Vector_const_iterator@V?$_Vector_val@UFishItem@@V?$allocator@UFishItem@@@std@@@std@@@2@@Z ; std::vector<FishItem,std::allocator<FishItem> >::_Make_iter
; Function compile flags: /Ogsp
;	COMDAT ?_Make_iter@?$vector@UFishItem@@V?$allocator@UFishItem@@@std@@@std@@QBE?AV?$_Vector_iterator@V?$_Vector_val@UFishItem@@V?$allocator@UFishItem@@@std@@@std@@@2@V?$_Vector_const_iterator@V?$_Vector_val@UFishItem@@V?$allocator@UFishItem@@@std@@@std@@@2@@Z
_TEXT	SEGMENT
___$ReturnUdt$ = 8					; size = 4
__Where$ = 12						; size = 4
?_Make_iter@?$vector@UFishItem@@V?$allocator@UFishItem@@@std@@@std@@QBE?AV?$_Vector_iterator@V?$_Vector_val@UFishItem@@V?$allocator@UFishItem@@@std@@@std@@@2@V?$_Vector_const_iterator@V?$_Vector_val@UFishItem@@V?$allocator@UFishItem@@@std@@@std@@@2@@Z PROC ; std::vector<FishItem,std::allocator<FishItem> >::_Make_iter, COMDAT
; _this$ = ecx

; 801  : 		{	// make iterator from const_iterator

  00000	55		 push	 ebp
  00001	8b ec		 mov	 ebp, esp

; 802  : 		return (iterator(_Where._Ptr, this));

  00003	8b 45 08	 mov	 eax, DWORD PTR ___$ReturnUdt$[ebp]
  00006	8b 4d 0c	 mov	 ecx, DWORD PTR __Where$[ebp]
  00009	89 08		 mov	 DWORD PTR [eax], ecx

; 803  : 		}

  0000b	5d		 pop	 ebp
  0000c	c2 08 00	 ret	 8
?_Make_iter@?$vector@UFishItem@@V?$allocator@UFishItem@@@std@@@std@@QBE?AV?$_Vector_iterator@V?$_Vector_val@UFishItem@@V?$allocator@UFishItem@@@std@@@std@@@2@V?$_Vector_const_iterator@V?$_Vector_val@UFishItem@@V?$allocator@UFishItem@@@std@@@std@@@2@@Z ENDP ; std::vector<FishItem,std::allocator<FishItem> >::_Make_iter
_TEXT	ENDS
PUBLIC	??9?$_Vector_const_iterator@V?$_Vector_val@UFishItem@@V?$allocator@UFishItem@@@std@@@std@@@std@@QBE_NABV01@@Z ; std::_Vector_const_iterator<std::_Vector_val<FishItem,std::allocator<FishItem> > >::operator!=
; Function compile flags: /Ogsp
;	COMDAT ??9?$_Vector_const_iterator@V?$_Vector_val@UFishItem@@V?$allocator@UFishItem@@@std@@@std@@@std@@QBE_NABV01@@Z
_TEXT	SEGMENT
__Right$ = 8						; size = 4
??9?$_Vector_const_iterator@V?$_Vector_val@UFishItem@@V?$allocator@UFishItem@@@std@@@std@@@std@@QBE_NABV01@@Z PROC ; std::_Vector_const_iterator<std::_Vector_val<FishItem,std::allocator<FishItem> > >::operator!=, COMDAT
; _this$ = ecx

; 207  : 		{	// test for iterator inequality

  00000	55		 push	 ebp
  00001	8b ec		 mov	 ebp, esp

; 208  : 		return (!(*this == _Right));

  00003	8b 01		 mov	 eax, DWORD PTR [ecx]
  00005	8b 55 08	 mov	 edx, DWORD PTR __Right$[ebp]
  00008	33 c9		 xor	 ecx, ecx
  0000a	3b 02		 cmp	 eax, DWORD PTR [edx]
  0000c	0f 95 c0	 setne	 al

; 209  : 		}

  0000f	5d		 pop	 ebp
  00010	c2 04 00	 ret	 4
??9?$_Vector_const_iterator@V?$_Vector_val@UFishItem@@V?$allocator@UFishItem@@@std@@@std@@@std@@QBE_NABV01@@Z ENDP ; std::_Vector_const_iterator<std::_Vector_val<FishItem,std::allocator<FishItem> > >::operator!=
_TEXT	ENDS
PUBLIC	??$_Cons_val@V?$allocator@UFishItem@@@std@@UFishItem@@ABU3@@std@@YAXAAV?$allocator@UFishItem@@@0@PAUFishItem@@ABU2@@Z ; std::_Cons_val<std::allocator<FishItem>,FishItem,FishItem const &>
; Function compile flags: /Ogsp
; File c:\program files (x86)\microsoft visual studio 10.0\vc\include\xmemory
;	COMDAT ??$_Cons_val@V?$allocator@UFishItem@@@std@@UFishItem@@ABU3@@std@@YAXAAV?$allocator@UFishItem@@@0@PAUFishItem@@ABU2@@Z
_TEXT	SEGMENT
__Alval$ = 8						; size = 4
__Pdest$ = 12						; size = 4
__Src$ = 16						; size = 4
??$_Cons_val@V?$allocator@UFishItem@@@std@@UFishItem@@ABU3@@std@@YAXAAV?$allocator@UFishItem@@@0@PAUFishItem@@ABU2@@Z PROC ; std::_Cons_val<std::allocator<FishItem>,FishItem,FishItem const &>, COMDAT

; 279  : 	{	// construct using allocator

  00000	55		 push	 ebp
  00001	8b ec		 mov	 ebp, esp

; 280  : 	_Alval.construct(_Pdest, _STD forward<_Ty2>(_Src));

  00003	8b 45 0c	 mov	 eax, DWORD PTR __Pdest$[ebp]
  00006	85 c0		 test	 eax, eax
  00008	74 0d		 je	 SHORT $LN9@Cons_val@2
  0000a	8b 4d 10	 mov	 ecx, DWORD PTR __Src$[ebp]
  0000d	8b 11		 mov	 edx, DWORD PTR [ecx]
  0000f	89 10		 mov	 DWORD PTR [eax], edx
  00011	8b 49 04	 mov	 ecx, DWORD PTR [ecx+4]
  00014	89 48 04	 mov	 DWORD PTR [eax+4], ecx
$LN9@Cons_val@2:

; 281  : 	}

  00017	5d		 pop	 ebp
  00018	c3		 ret	 0
??$_Cons_val@V?$allocator@UFishItem@@@std@@UFishItem@@ABU3@@std@@YAXAAV?$allocator@UFishItem@@@0@PAUFishItem@@ABU2@@Z ENDP ; std::_Cons_val<std::allocator<FishItem>,FishItem,FishItem const &>
_TEXT	ENDS
PUBLIC	??$_Move@PAUFishItem@@PAU1@@std@@YAPAUFishItem@@PAU1@00@Z ; std::_Move<FishItem *,FishItem *>
; Function compile flags: /Ogsp
; File c:\program files (x86)\microsoft visual studio 10.0\vc\include\xutility
;	COMDAT ??$_Move@PAUFishItem@@PAU1@@std@@YAPAUFishItem@@PAU1@00@Z
_TEXT	SEGMENT
__Cat$526099 = -4					; size = 1
__First$ = 8						; size = 4
__Last$ = 12						; size = 4
__Dest$ = 16						; size = 4
??$_Move@PAUFishItem@@PAU1@@std@@YAPAUFishItem@@PAU1@00@Z PROC ; std::_Move<FishItem *,FishItem *>, COMDAT

; 2533 : 	{	// move [_First, _Last) to [_Dest, ...), unchecked

  00000	55		 push	 ebp
  00001	8b ec		 mov	 ebp, esp
  00003	51		 push	 ecx

; 2534 : 	return (_Move(_First, _Last,
; 2535 : 		_Dest, _Ptr_cat(_First, _Dest)));

  00004	ff 75 fc	 push	 DWORD PTR __Cat$526099[ebp]
  00007	ff 75 10	 push	 DWORD PTR __Dest$[ebp]
  0000a	ff 75 0c	 push	 DWORD PTR __Last$[ebp]
  0000d	ff 75 08	 push	 DWORD PTR __First$[ebp]
  00010	e8 00 00 00 00	 call	 ??$_Move@PAUFishItem@@PAU1@@std@@YAPAUFishItem@@PAU1@00U_Nonscalar_ptr_iterator_tag@0@@Z ; std::_Move<FishItem *,FishItem *>
  00015	83 c4 10	 add	 esp, 16			; 00000010H

; 2536 : 	}

  00018	c9		 leave
  00019	c3		 ret	 0
??$_Move@PAUFishItem@@PAU1@@std@@YAPAUFishItem@@PAU1@00@Z ENDP ; std::_Move<FishItem *,FishItem *>
_TEXT	ENDS
PUBLIC	??$_Dest_val@V?$allocator@UFishItem@@@std@@UFishItem@@@std@@YAXAAV?$allocator@UFishItem@@@0@PAUFishItem@@@Z ; std::_Dest_val<std::allocator<FishItem>,FishItem>
; Function compile flags: /Ogsp
; File c:\program files (x86)\microsoft visual studio 10.0\vc\include\xmemory
;	COMDAT ??$_Dest_val@V?$allocator@UFishItem@@@std@@UFishItem@@@std@@YAXAAV?$allocator@UFishItem@@@0@PAUFishItem@@@Z
_TEXT	SEGMENT
__Alval$ = 8						; size = 4
__Pdest$ = 12						; size = 4
??$_Dest_val@V?$allocator@UFishItem@@@std@@UFishItem@@@std@@YAXAAV?$allocator@UFishItem@@@0@PAUFishItem@@@Z PROC ; std::_Dest_val<std::allocator<FishItem>,FishItem>, COMDAT

; 287  : 	_Alval.destroy(_Pdest);
; 288  : 	}

  00000	c3		 ret	 0
??$_Dest_val@V?$allocator@UFishItem@@@std@@UFishItem@@@std@@YAXAAV?$allocator@UFishItem@@@0@PAUFishItem@@@Z ENDP ; std::_Dest_val<std::allocator<FishItem>,FishItem>
_TEXT	ENDS
PUBLIC	??$iter_swap@PAUFishItem@@PAU1@@std@@YAXPAUFishItem@@0@Z ; std::iter_swap<FishItem *,FishItem *>
; Function compile flags: /Ogsp
; File c:\program files (x86)\microsoft visual studio 10.0\vc\include\xutility
;	COMDAT ??$iter_swap@PAUFishItem@@PAU1@@std@@YAXPAUFishItem@@0@Z
_TEXT	SEGMENT
__Left$ = 8						; size = 4
__Right$ = 12						; size = 4
??$iter_swap@PAUFishItem@@PAU1@@std@@YAXPAUFishItem@@0@Z PROC ; std::iter_swap<FishItem *,FishItem *>, COMDAT

; 2133 : 	{	// swap *_Left and *_Right

  00000	55		 push	 ebp
  00001	8b ec		 mov	 ebp, esp

; 2134 : 	swap(*_Left, *_Right);

  00003	8b 4d 0c	 mov	 ecx, DWORD PTR __Right$[ebp]
  00006	8b 45 08	 mov	 eax, DWORD PTR __Left$[ebp]
  00009	8b 10		 mov	 edx, DWORD PTR [eax]
  0000b	56		 push	 esi
  0000c	8b 70 04	 mov	 esi, DWORD PTR [eax+4]
  0000f	57		 push	 edi
  00010	8b 39		 mov	 edi, DWORD PTR [ecx]
  00012	89 38		 mov	 DWORD PTR [eax], edi
  00014	8b 79 04	 mov	 edi, DWORD PTR [ecx+4]
  00017	89 78 04	 mov	 DWORD PTR [eax+4], edi
  0001a	5f		 pop	 edi
  0001b	89 71 04	 mov	 DWORD PTR [ecx+4], esi
  0001e	89 11		 mov	 DWORD PTR [ecx], edx
  00020	5e		 pop	 esi

; 2135 : 	}

  00021	5d		 pop	 ebp
  00022	c3		 ret	 0
??$iter_swap@PAUFishItem@@PAU1@@std@@YAXPAUFishItem@@0@Z ENDP ; std::iter_swap<FishItem *,FishItem *>
_TEXT	ENDS
PUBLIC	??$_Insertion_sort1@PAUFishItem@@VFishItemSort@@U1@@std@@YAXPAUFishItem@@0VFishItemSort@@0@Z ; std::_Insertion_sort1<FishItem *,FishItemSort,FishItem>
; Function compile flags: /Ogsp
; File c:\program files (x86)\microsoft visual studio 10.0\vc\include\algorithm
;	COMDAT ??$_Insertion_sort1@PAUFishItem@@VFishItemSort@@U1@@std@@YAXPAUFishItem@@0VFishItemSort@@0@Z
_TEXT	SEGMENT
__Val$525061 = -8					; size = 8
__First$ = 8						; size = 4
__Cat$526152 = 12					; size = 1
__Last$ = 12						; size = 4
__Pred$ = 16						; size = 1
___formal$ = 20						; size = 4
??$_Insertion_sort1@PAUFishItem@@VFishItemSort@@U1@@std@@YAXPAUFishItem@@0VFishItemSort@@0@Z PROC ; std::_Insertion_sort1<FishItem *,FishItemSort,FishItem>, COMDAT

; 3650 : 	{	// insertion sort [_First, _Last), using _Pred

  00000	55		 push	 ebp
  00001	8b ec		 mov	 ebp, esp
  00003	51		 push	 ecx
  00004	51		 push	 ecx
  00005	53		 push	 ebx

; 3651 : 	if (_First != _Last)

  00006	8b 5d 08	 mov	 ebx, DWORD PTR __First$[ebp]
  00009	3b 5d 0c	 cmp	 ebx, DWORD PTR __Last$[ebp]
  0000c	74 5e		 je	 SHORT $LN6@Insertion_

; 3652 : 		for (_BidIt _Next = _First; ++_Next != _Last; )

  0000e	56		 push	 esi
  0000f	8d 73 08	 lea	 esi, DWORD PTR [ebx+8]
  00012	3b 75 0c	 cmp	 esi, DWORD PTR __Last$[ebp]
  00015	74 54		 je	 SHORT $LN33@Insertion_
  00017	57		 push	 edi
$LL7@Insertion_:

; 3653 : 			{	// order next element
; 3654 : 			_BidIt _Next1 = _Next;
; 3655 : 			_Ty _Val = _Move(*_Next);

  00018	8b 7e 04	 mov	 edi, DWORD PTR [esi+4]
  0001b	8b 0e		 mov	 ecx, DWORD PTR [esi]
  0001d	8b c6		 mov	 eax, esi
  0001f	89 4d f8	 mov	 DWORD PTR __Val$525061[ebp], ecx

; 3656 : 
; 3657 : 			if (_DEBUG_LT_PRED(_Pred, _Val, *_First))

  00022	3b 7b 04	 cmp	 edi, DWORD PTR [ebx+4]
  00025	7d 1b		 jge	 SHORT $LN5@Insertion_

; 3658 : 				{	// found new earliest element, move to front
; 3659 : 				_Move_backward(_First, _Next, ++_Next1);

  00027	ff 75 0c	 push	 DWORD PTR __Cat$526152[ebp]
  0002a	8d 46 08	 lea	 eax, DWORD PTR [esi+8]
  0002d	50		 push	 eax
  0002e	56		 push	 esi
  0002f	53		 push	 ebx
  00030	e8 00 00 00 00	 call	 ??$_Move_backward@PAUFishItem@@PAU1@@std@@YAPAUFishItem@@PAU1@00U_Nonscalar_ptr_iterator_tag@0@@Z ; std::_Move_backward<FishItem *,FishItem *>

; 3660 : 				*_First = _Move(_Val);

  00035	8b 45 f8	 mov	 eax, DWORD PTR __Val$525061[ebp]
  00038	83 c4 10	 add	 esp, 16			; 00000010H
  0003b	89 03		 mov	 DWORD PTR [ebx], eax
  0003d	89 7b 04	 mov	 DWORD PTR [ebx+4], edi

; 3661 : 				}
; 3662 : 			else

  00040	eb 20		 jmp	 SHORT $LN4@Insertion_
$LN5@Insertion_:

; 3663 : 				{	// look for insertion point after first
; 3664 : 				for (_BidIt _First1 = _Next1;

  00042	8b ce		 mov	 ecx, esi
$LL3@Insertion_:

; 3665 : 					_DEBUG_LT_PRED(_Pred, _Val, *--_First1);
; 3666 : 					_Next1 = _First1)

  00044	83 e9 08	 sub	 ecx, 8
  00047	3b 79 04	 cmp	 edi, DWORD PTR [ecx+4]
  0004a	7d 0e		 jge	 SHORT $LN22@Insertion_

; 3667 : 					*_Next1 = _Move(*_First1);	// move hole down

  0004c	8b 11		 mov	 edx, DWORD PTR [ecx]
  0004e	89 10		 mov	 DWORD PTR [eax], edx
  00050	8b 51 04	 mov	 edx, DWORD PTR [ecx+4]
  00053	89 50 04	 mov	 DWORD PTR [eax+4], edx
  00056	8b c1		 mov	 eax, ecx
  00058	eb ea		 jmp	 SHORT $LL3@Insertion_

; 3665 : 					_DEBUG_LT_PRED(_Pred, _Val, *--_First1);
; 3666 : 					_Next1 = _First1)

$LN22@Insertion_:

; 3668 : 				*_Next1 = _Move(_Val);	// insert element in hole

  0005a	8b 4d f8	 mov	 ecx, DWORD PTR __Val$525061[ebp]
  0005d	89 08		 mov	 DWORD PTR [eax], ecx
  0005f	89 78 04	 mov	 DWORD PTR [eax+4], edi
$LN4@Insertion_:

; 3652 : 		for (_BidIt _Next = _First; ++_Next != _Last; )

  00062	83 c6 08	 add	 esi, 8
  00065	3b 75 0c	 cmp	 esi, DWORD PTR __Last$[ebp]
  00068	75 ae		 jne	 SHORT $LL7@Insertion_
  0006a	5f		 pop	 edi
$LN33@Insertion_:
  0006b	5e		 pop	 esi
$LN6@Insertion_:
  0006c	5b		 pop	 ebx

; 3669 : 				}
; 3670 : 			}
; 3671 : 	}

  0006d	c9		 leave
  0006e	c3		 ret	 0
??$_Insertion_sort1@PAUFishItem@@VFishItemSort@@U1@@std@@YAXPAUFishItem@@0VFishItemSort@@0@Z ENDP ; std::_Insertion_sort1<FishItem *,FishItemSort,FishItem>
_TEXT	ENDS
PUBLIC	??$_Cons_val@V?$allocator@UFishItem@@@std@@UFishItem@@U3@@std@@YAXAAV?$allocator@UFishItem@@@0@PAUFishItem@@$$QAU2@@Z ; std::_Cons_val<std::allocator<FishItem>,FishItem,FishItem>
; Function compile flags: /Ogsp
; File c:\program files (x86)\microsoft visual studio 10.0\vc\include\xmemory
;	COMDAT ??$_Cons_val@V?$allocator@UFishItem@@@std@@UFishItem@@U3@@std@@YAXAAV?$allocator@UFishItem@@@0@PAUFishItem@@$$QAU2@@Z
_TEXT	SEGMENT
__Alval$ = 8						; size = 4
__Pdest$ = 12						; size = 4
__Src$ = 16						; size = 4
??$_Cons_val@V?$allocator@UFishItem@@@std@@UFishItem@@U3@@std@@YAXAAV?$allocator@UFishItem@@@0@PAUFishItem@@$$QAU2@@Z PROC ; std::_Cons_val<std::allocator<FishItem>,FishItem,FishItem>, COMDAT

; 279  : 	{	// construct using allocator

  00000	55		 push	 ebp
  00001	8b ec		 mov	 ebp, esp

; 280  : 	_Alval.construct(_Pdest, _STD forward<_Ty2>(_Src));

  00003	8b 45 0c	 mov	 eax, DWORD PTR __Pdest$[ebp]
  00006	85 c0		 test	 eax, eax
  00008	74 0d		 je	 SHORT $LN7@Cons_val@3
  0000a	8b 4d 10	 mov	 ecx, DWORD PTR __Src$[ebp]
  0000d	8b 11		 mov	 edx, DWORD PTR [ecx]
  0000f	89 10		 mov	 DWORD PTR [eax], edx
  00011	8b 49 04	 mov	 ecx, DWORD PTR [ecx+4]
  00014	89 48 04	 mov	 DWORD PTR [eax+4], ecx
$LN7@Cons_val@3:

; 281  : 	}

  00017	5d		 pop	 ebp
  00018	c3		 ret	 0
??$_Cons_val@V?$allocator@UFishItem@@@std@@UFishItem@@U3@@std@@YAXAAV?$allocator@UFishItem@@@0@PAUFishItem@@$$QAU2@@Z ENDP ; std::_Cons_val<std::allocator<FishItem>,FishItem,FishItem>
_TEXT	ENDS
PUBLIC	??$_Med3@PAUFishItem@@VFishItemSort@@@std@@YAXPAUFishItem@@00VFishItemSort@@@Z ; std::_Med3<FishItem *,FishItemSort>
; Function compile flags: /Ogsp
; File c:\program files (x86)\microsoft visual studio 10.0\vc\include\algorithm
;	COMDAT ??$_Med3@PAUFishItem@@VFishItemSort@@@std@@YAXPAUFishItem@@00VFishItemSort@@@Z
_TEXT	SEGMENT
__First$ = 8						; size = 4
__Mid$ = 12						; size = 4
__Last$ = 16						; size = 4
__Pred$ = 20						; size = 1
??$_Med3@PAUFishItem@@VFishItemSort@@@std@@YAXPAUFishItem@@00VFishItemSort@@@Z PROC ; std::_Med3<FishItem *,FishItemSort>, COMDAT

; 3683 : 	{	// sort median of three elements to middle

  00000	55		 push	 ebp
  00001	8b ec		 mov	 ebp, esp

; 3684 : 	if (_DEBUG_LT_PRED(_Pred, *_Mid, *_First))

  00003	8b 45 0c	 mov	 eax, DWORD PTR __Mid$[ebp]
  00006	8b 4d 08	 mov	 ecx, DWORD PTR __First$[ebp]
  00009	8b 50 04	 mov	 edx, DWORD PTR [eax+4]
  0000c	56		 push	 esi
  0000d	57		 push	 edi
  0000e	3b 51 04	 cmp	 edx, DWORD PTR [ecx+4]
  00011	7d 14		 jge	 SHORT $LN11@Med3

; 3685 : 		_STD iter_swap(_Mid, _First);

  00013	8b 39		 mov	 edi, DWORD PTR [ecx]
  00015	8b 10		 mov	 edx, DWORD PTR [eax]
  00017	8b 70 04	 mov	 esi, DWORD PTR [eax+4]
  0001a	89 38		 mov	 DWORD PTR [eax], edi
  0001c	8b 79 04	 mov	 edi, DWORD PTR [ecx+4]
  0001f	89 78 04	 mov	 DWORD PTR [eax+4], edi
  00022	89 11		 mov	 DWORD PTR [ecx], edx
  00024	89 71 04	 mov	 DWORD PTR [ecx+4], esi
$LN11@Med3:

; 3686 : 	if (_DEBUG_LT_PRED(_Pred, *_Last, *_Mid))

  00027	8b 55 10	 mov	 edx, DWORD PTR __Last$[ebp]
  0002a	8b 72 04	 mov	 esi, DWORD PTR [edx+4]
  0002d	3b 70 04	 cmp	 esi, DWORD PTR [eax+4]
  00030	7d 16		 jge	 SHORT $LN24@Med3

; 3687 : 		_STD iter_swap(_Last, _Mid);

  00032	8b 32		 mov	 esi, DWORD PTR [edx]
  00034	8b 7a 04	 mov	 edi, DWORD PTR [edx+4]
  00037	53		 push	 ebx
  00038	8b 18		 mov	 ebx, DWORD PTR [eax]
  0003a	89 1a		 mov	 DWORD PTR [edx], ebx
  0003c	8b 58 04	 mov	 ebx, DWORD PTR [eax+4]
  0003f	89 5a 04	 mov	 DWORD PTR [edx+4], ebx
  00042	89 30		 mov	 DWORD PTR [eax], esi
  00044	89 78 04	 mov	 DWORD PTR [eax+4], edi
  00047	5b		 pop	 ebx
$LN24@Med3:

; 3688 : 	if (_DEBUG_LT_PRED(_Pred, *_Mid, *_First))

  00048	8b 50 04	 mov	 edx, DWORD PTR [eax+4]
  0004b	3b 51 04	 cmp	 edx, DWORD PTR [ecx+4]
  0004e	7d 14		 jge	 SHORT $LN37@Med3

; 3689 : 		_STD iter_swap(_Mid, _First);

  00050	8b 39		 mov	 edi, DWORD PTR [ecx]
  00052	8b 10		 mov	 edx, DWORD PTR [eax]
  00054	8b 70 04	 mov	 esi, DWORD PTR [eax+4]
  00057	89 38		 mov	 DWORD PTR [eax], edi
  00059	8b 79 04	 mov	 edi, DWORD PTR [ecx+4]
  0005c	89 78 04	 mov	 DWORD PTR [eax+4], edi
  0005f	89 11		 mov	 DWORD PTR [ecx], edx
  00061	89 71 04	 mov	 DWORD PTR [ecx+4], esi
$LN37@Med3:
  00064	5f		 pop	 edi
  00065	5e		 pop	 esi

; 3690 : 	}

  00066	5d		 pop	 ebp
  00067	c3		 ret	 0
??$_Med3@PAUFishItem@@VFishItemSort@@@std@@YAXPAUFishItem@@00VFishItemSort@@@Z ENDP ; std::_Med3<FishItem *,FishItemSort>
_TEXT	ENDS
PUBLIC	??$_Adjust_heap@PAUFishItem@@HU1@VFishItemSort@@@std@@YAXPAUFishItem@@HH$$QAU1@VFishItemSort@@@Z ; std::_Adjust_heap<FishItem *,int,FishItem,FishItemSort>
; Function compile flags: /Ogsp
;	COMDAT ??$_Adjust_heap@PAUFishItem@@HU1@VFishItemSort@@@std@@YAXPAUFishItem@@HH$$QAU1@VFishItemSort@@@Z
_TEXT	SEGMENT
__First$ = 8						; size = 4
__Hole$ = 12						; size = 4
__Bottom$ = 16						; size = 4
__Val$ = 20						; size = 4
__Pred$ = 24						; size = 1
??$_Adjust_heap@PAUFishItem@@HU1@VFishItemSort@@@std@@YAXPAUFishItem@@HH$$QAU1@VFishItemSort@@@Z PROC ; std::_Adjust_heap<FishItem *,int,FishItem,FishItemSort>, COMDAT

; 2565 : 	{	// percolate _Hole to _Bottom, then push _Val, using _Pred

  00000	55		 push	 ebp
  00001	8b ec		 mov	 ebp, esp

; 2566 : 	_Diff _Top = _Hole;

  00003	8b 55 0c	 mov	 edx, DWORD PTR __Hole$[ebp]

; 2567 : 	_Diff _Idx = 2 * _Hole + 2;
; 2568 : 
; 2569 : 	for (; _Idx < _Bottom; _Idx = 2 * _Idx + 2)

  00006	8b 45 08	 mov	 eax, DWORD PTR __First$[ebp]
  00009	56		 push	 esi
  0000a	8b 75 10	 mov	 esi, DWORD PTR __Bottom$[ebp]
  0000d	8d 4c 12 02	 lea	 ecx, DWORD PTR [edx+edx+2]
  00011	57		 push	 edi
  00012	8b fa		 mov	 edi, edx
  00014	3b ce		 cmp	 ecx, esi
  00016	7d 25		 jge	 SHORT $LN20@Adjust_hea
  00018	53		 push	 ebx
$LL5@Adjust_hea:

; 2570 : 		{	// move _Hole down to larger child
; 2571 : 		if (_DEBUG_LT_PRED(_Pred, *(_First + _Idx), *(_First + (_Idx - 1))))

  00019	8b 5c c8 04	 mov	 ebx, DWORD PTR [eax+ecx*8+4]
  0001d	3b 5c c8 fc	 cmp	 ebx, DWORD PTR [eax+ecx*8-4]
  00021	7d 01		 jge	 SHORT $LN2@Adjust_hea

; 2572 : 			--_Idx;

  00023	49		 dec	 ecx
$LN2@Adjust_hea:

; 2573 : 		*(_First + _Hole) = _Move(*(_First + _Idx));

  00024	8b 1c c8	 mov	 ebx, DWORD PTR [eax+ecx*8]
  00027	89 1c d0	 mov	 DWORD PTR [eax+edx*8], ebx
  0002a	8b 5c c8 04	 mov	 ebx, DWORD PTR [eax+ecx*8+4]
  0002e	89 5c d0 04	 mov	 DWORD PTR [eax+edx*8+4], ebx

; 2574 : 		_Hole = _Idx;

  00032	8b d1		 mov	 edx, ecx
  00034	8d 4c 09 02	 lea	 ecx, DWORD PTR [ecx+ecx+2]
  00038	3b ce		 cmp	 ecx, esi
  0003a	7c dd		 jl	 SHORT $LL5@Adjust_hea
  0003c	5b		 pop	 ebx
$LN20@Adjust_hea:

; 2575 : 		}
; 2576 : 
; 2577 : 	if (_Idx == _Bottom)

  0003d	75 12		 jne	 SHORT $LN1@Adjust_hea

; 2578 : 		{	// only child at bottom, move _Hole down to it
; 2579 : 		*(_First + _Hole) = _Move(*(_First + (_Bottom - 1)));

  0003f	8b 4c f0 f8	 mov	 ecx, DWORD PTR [eax+esi*8-8]
  00043	89 0c d0	 mov	 DWORD PTR [eax+edx*8], ecx
  00046	8b 4c f0 fc	 mov	 ecx, DWORD PTR [eax+esi*8-4]
  0004a	89 4c d0 04	 mov	 DWORD PTR [eax+edx*8+4], ecx

; 2580 : 		_Hole = _Bottom - 1;

  0004e	8d 56 ff	 lea	 edx, DWORD PTR [esi-1]
$LN1@Adjust_hea:

; 2581 : 		}
; 2582 : 	_Push_heap(_First, _Hole, _Top, _Move(_Val), _Pred);

  00051	ff 75 18	 push	 DWORD PTR __Pred$[ebp]
  00054	ff 75 14	 push	 DWORD PTR __Val$[ebp]
  00057	57		 push	 edi
  00058	52		 push	 edx
  00059	50		 push	 eax
  0005a	e8 00 00 00 00	 call	 ??$_Push_heap@PAUFishItem@@HU1@VFishItemSort@@@std@@YAXPAUFishItem@@HH$$QAU1@VFishItemSort@@@Z ; std::_Push_heap<FishItem *,int,FishItem,FishItemSort>
  0005f	83 c4 14	 add	 esp, 20			; 00000014H
  00062	5f		 pop	 edi
  00063	5e		 pop	 esi

; 2583 : 	}

  00064	5d		 pop	 ebp
  00065	c3		 ret	 0
??$_Adjust_heap@PAUFishItem@@HU1@VFishItemSort@@@std@@YAXPAUFishItem@@HH$$QAU1@VFishItemSort@@@Z ENDP ; std::_Adjust_heap<FishItem *,int,FishItem,FishItemSort>
_TEXT	ENDS
PUBLIC	??$_Pop_heap@PAUFishItem@@HU1@VFishItemSort@@@std@@YAXPAUFishItem@@00$$QAU1@VFishItemSort@@PAH@Z ; std::_Pop_heap<FishItem *,int,FishItem,FishItemSort>
; Function compile flags: /Ogsp
;	COMDAT ??$_Pop_heap@PAUFishItem@@HU1@VFishItemSort@@@std@@YAXPAUFishItem@@00$$QAU1@VFishItemSort@@PAH@Z
_TEXT	SEGMENT
__First$ = 8						; size = 4
__Last$ = 12						; size = 4
__Dest$ = 16						; size = 4
__Val$ = 20						; size = 4
__Pred$ = 24						; size = 1
___formal$ = 28						; size = 4
??$_Pop_heap@PAUFishItem@@HU1@VFishItemSort@@@std@@YAXPAUFishItem@@00$$QAU1@VFishItemSort@@PAH@Z PROC ; std::_Pop_heap<FishItem *,int,FishItem,FishItemSort>, COMDAT

; 2591 : 	{	// pop *_First to *_Dest and reheap, using _Pred

  00000	55		 push	 ebp
  00001	8b ec		 mov	 ebp, esp

; 2592 : 	*_Dest = _Move(*_First);

  00003	8b 45 08	 mov	 eax, DWORD PTR __First$[ebp]
  00006	8b 10		 mov	 edx, DWORD PTR [eax]
  00008	8b 4d 10	 mov	 ecx, DWORD PTR __Dest$[ebp]

; 2593 : 	_Adjust_heap(_First, _Diff(0), _Diff(_Last - _First),
; 2594 : 		_Move(_Val), _Pred);

  0000b	ff 75 18	 push	 DWORD PTR __Pred$[ebp]
  0000e	89 11		 mov	 DWORD PTR [ecx], edx
  00010	8b 50 04	 mov	 edx, DWORD PTR [eax+4]
  00013	ff 75 14	 push	 DWORD PTR __Val$[ebp]
  00016	89 51 04	 mov	 DWORD PTR [ecx+4], edx
  00019	8b 4d 0c	 mov	 ecx, DWORD PTR __Last$[ebp]
  0001c	2b c8		 sub	 ecx, eax
  0001e	c1 f9 03	 sar	 ecx, 3
  00021	51		 push	 ecx
  00022	6a 00		 push	 0
  00024	50		 push	 eax
  00025	e8 00 00 00 00	 call	 ??$_Adjust_heap@PAUFishItem@@HU1@VFishItemSort@@@std@@YAXPAUFishItem@@HH$$QAU1@VFishItemSort@@@Z ; std::_Adjust_heap<FishItem *,int,FishItem,FishItemSort>
  0002a	83 c4 14	 add	 esp, 20			; 00000014H

; 2595 : 	}

  0002d	5d		 pop	 ebp
  0002e	c3		 ret	 0
??$_Pop_heap@PAUFishItem@@HU1@VFishItemSort@@@std@@YAXPAUFishItem@@00$$QAU1@VFishItemSort@@PAH@Z ENDP ; std::_Pop_heap<FishItem *,int,FishItem,FishItemSort>
_TEXT	ENDS
PUBLIC	??$_Destroy_range@V?$allocator@UFishItem@@@std@@@std@@YAXPAUFishItem@@0AAV?$allocator@UFishItem@@@0@U_Nonscalar_ptr_iterator_tag@0@@Z ; std::_Destroy_range<std::allocator<FishItem> >
; Function compile flags: /Ogsp
; File c:\program files (x86)\microsoft visual studio 10.0\vc\include\xmemory
;	COMDAT ??$_Destroy_range@V?$allocator@UFishItem@@@std@@@std@@YAXPAUFishItem@@0AAV?$allocator@UFishItem@@@0@U_Nonscalar_ptr_iterator_tag@0@@Z
_TEXT	SEGMENT
__First$ = 8						; size = 4
__Last$ = 12						; size = 4
__Al$ = 16						; size = 4
___formal$ = 20						; size = 1
??$_Destroy_range@V?$allocator@UFishItem@@@std@@@std@@YAXPAUFishItem@@0AAV?$allocator@UFishItem@@@0@U_Nonscalar_ptr_iterator_tag@0@@Z PROC ; std::_Destroy_range<std::allocator<FishItem> >, COMDAT

; 96   : 	for (; _First != _Last; ++_First)
; 97   : 		_Dest_val(_Al, _First);
; 98   : 	}

  00000	c3		 ret	 0
??$_Destroy_range@V?$allocator@UFishItem@@@std@@@std@@YAXPAUFishItem@@0AAV?$allocator@UFishItem@@@0@U_Nonscalar_ptr_iterator_tag@0@@Z ENDP ; std::_Destroy_range<std::allocator<FishItem> >
_TEXT	ENDS
PUBLIC	??$_Insertion_sort@PAUFishItem@@VFishItemSort@@@std@@YAXPAUFishItem@@0VFishItemSort@@@Z ; std::_Insertion_sort<FishItem *,FishItemSort>
; Function compile flags: /Ogsp
; File c:\program files (x86)\microsoft visual studio 10.0\vc\include\algorithm
;	COMDAT ??$_Insertion_sort@PAUFishItem@@VFishItemSort@@@std@@YAXPAUFishItem@@0VFishItemSort@@@Z
_TEXT	SEGMENT
__First$ = 8						; size = 4
__Last$ = 12						; size = 4
__Pred$ = 16						; size = 1
??$_Insertion_sort@PAUFishItem@@VFishItemSort@@@std@@YAXPAUFishItem@@0VFishItemSort@@@Z PROC ; std::_Insertion_sort<FishItem *,FishItemSort>, COMDAT

; 3676 : 	{	// insertion sort [_First, _Last), using _Pred

  00000	55		 push	 ebp
  00001	8b ec		 mov	 ebp, esp

; 3677 : 	_Insertion_sort1(_First, _Last, _Pred, _Val_type(_First));

  00003	6a 00		 push	 0
  00005	ff 75 10	 push	 DWORD PTR __Pred$[ebp]
  00008	ff 75 0c	 push	 DWORD PTR __Last$[ebp]
  0000b	ff 75 08	 push	 DWORD PTR __First$[ebp]
  0000e	e8 00 00 00 00	 call	 ??$_Insertion_sort1@PAUFishItem@@VFishItemSort@@U1@@std@@YAXPAUFishItem@@0VFishItemSort@@0@Z ; std::_Insertion_sort1<FishItem *,FishItemSort,FishItem>
  00013	83 c4 10	 add	 esp, 16			; 00000010H

; 3678 : 	}

  00016	5d		 pop	 ebp
  00017	c3		 ret	 0
??$_Insertion_sort@PAUFishItem@@VFishItemSort@@@std@@YAXPAUFishItem@@0VFishItemSort@@@Z ENDP ; std::_Insertion_sort<FishItem *,FishItemSort>
_TEXT	ENDS
PUBLIC	??$_Uninit_move@PAUFishItem@@PAU1@V?$allocator@UFishItem@@@std@@U1@@std@@YAPAUFishItem@@PAU1@00AAV?$allocator@UFishItem@@@0@0U_Nonscalar_ptr_iterator_tag@0@@Z ; std::_Uninit_move<FishItem *,FishItem *,std::allocator<FishItem>,FishItem>
; Function compile flags: /Ogsp
; File c:\program files (x86)\microsoft visual studio 10.0\vc\include\memory
;	COMDAT ??$_Uninit_move@PAUFishItem@@PAU1@V?$allocator@UFishItem@@@std@@U1@@std@@YAPAUFishItem@@PAU1@00AAV?$allocator@UFishItem@@@0@0U_Nonscalar_ptr_iterator_tag@0@@Z
_TEXT	SEGMENT
__First$ = 8						; size = 4
__Last$ = 12						; size = 4
__Dest$ = 16						; size = 4
__Al$ = 20						; size = 4
___formal$ = 24						; size = 4
___formal$ = 28						; size = 1
??$_Uninit_move@PAUFishItem@@PAU1@V?$allocator@UFishItem@@@std@@U1@@std@@YAPAUFishItem@@PAU1@00AAV?$allocator@UFishItem@@@0@0U_Nonscalar_ptr_iterator_tag@0@@Z PROC ; std::_Uninit_move<FishItem *,FishItem *,std::allocator<FishItem>,FishItem>, COMDAT

; 424  : 	{	// move [_First, _Last) to raw _Dest, using _Al, arbitrary type

  00000	55		 push	 ebp
  00001	8b ec		 mov	 ebp, esp
  00003	56		 push	 esi

; 425  : 	_DEBUG_RANGE(_First, _Last);
; 426  : 	_DEBUG_POINTER(_Dest);
; 427  : 	_FwdIt _Next = _Dest;
; 428  : 
; 429  : 	_TRY_BEGIN
; 430  : 	for (; _First != _Last; ++_Dest, ++_First)

  00004	8b 75 08	 mov	 esi, DWORD PTR __First$[ebp]
  00007	eb 16		 jmp	 SHORT $LN24@Uninit_mov
$LL6@Uninit_mov:

; 431  : 		_Cons_val(_Al, _Dest, (_Valty &&)*_First);

  00009	56		 push	 esi
  0000a	ff 75 10	 push	 DWORD PTR __Dest$[ebp]
  0000d	ff 75 14	 push	 DWORD PTR __Al$[ebp]
  00010	e8 00 00 00 00	 call	 ??$_Cons_val@V?$allocator@UFishItem@@@std@@UFishItem@@U3@@std@@YAXAAV?$allocator@UFishItem@@@0@PAUFishItem@@$$QAU2@@Z ; std::_Cons_val<std::allocator<FishItem>,FishItem,FishItem>
  00015	83 45 10 08	 add	 DWORD PTR __Dest$[ebp], 8
  00019	83 c4 0c	 add	 esp, 12			; 0000000cH
  0001c	83 c6 08	 add	 esi, 8
$LN24@Uninit_mov:

; 425  : 	_DEBUG_RANGE(_First, _Last);
; 426  : 	_DEBUG_POINTER(_Dest);
; 427  : 	_FwdIt _Next = _Dest;
; 428  : 
; 429  : 	_TRY_BEGIN
; 430  : 	for (; _First != _Last; ++_Dest, ++_First)

  0001f	3b 75 0c	 cmp	 esi, DWORD PTR __Last$[ebp]
  00022	75 e5		 jne	 SHORT $LL6@Uninit_mov

; 432  : 	_CATCH_ALL
; 433  : 	for (; _Next != _Dest; ++_Next)
; 434  : 		_Dest_val(_Al, _Next);
; 435  : 	_RERAISE;
; 436  : 	_CATCH_END
; 437  : 	return (_Dest);

  00024	8b 45 10	 mov	 eax, DWORD PTR __Dest$[ebp]
  00027	5e		 pop	 esi

; 438  : 	}

  00028	5d		 pop	 ebp
  00029	c3		 ret	 0
??$_Uninit_move@PAUFishItem@@PAU1@V?$allocator@UFishItem@@@std@@U1@@std@@YAPAUFishItem@@PAU1@00AAV?$allocator@UFishItem@@@0@0U_Nonscalar_ptr_iterator_tag@0@@Z ENDP ; std::_Uninit_move<FishItem *,FishItem *,std::allocator<FishItem>,FishItem>
_TEXT	ENDS
PUBLIC	??$_Median@PAUFishItem@@VFishItemSort@@@std@@YAXPAUFishItem@@00VFishItemSort@@@Z ; std::_Median<FishItem *,FishItemSort>
; Function compile flags: /Ogsp
; File c:\program files (x86)\microsoft visual studio 10.0\vc\include\algorithm
;	COMDAT ??$_Median@PAUFishItem@@VFishItemSort@@@std@@YAXPAUFishItem@@00VFishItemSort@@@Z
_TEXT	SEGMENT
tv200 = 8						; size = 4
__First$ = 8						; size = 4
__Mid$ = 12						; size = 4
tv203 = 16						; size = 4
__Last$ = 16						; size = 4
__Pred$ = 20						; size = 1
??$_Median@PAUFishItem@@VFishItemSort@@@std@@YAXPAUFishItem@@00VFishItemSort@@@Z PROC ; std::_Median<FishItem *,FishItemSort>, COMDAT

; 3695 : 	{	// sort median element to middle

  00000	55		 push	 ebp
  00001	8b ec		 mov	 ebp, esp

; 3696 : 	if (40 < _Last - _First)

  00003	8b 4d 08	 mov	 ecx, DWORD PTR __First$[ebp]
  00006	57		 push	 edi
  00007	8b 7d 10	 mov	 edi, DWORD PTR __Last$[ebp]
  0000a	8b c7		 mov	 eax, edi
  0000c	2b c1		 sub	 eax, ecx
  0000e	c1 f8 03	 sar	 eax, 3
  00011	83 f8 28	 cmp	 eax, 40			; 00000028H
  00014	7e 6a		 jle	 SHORT $LN2@Median

; 3697 : 		{	// median of nine
; 3698 : 		size_t _Step = (_Last - _First + 1) / 8;

  00016	40		 inc	 eax
  00017	99		 cdq
  00018	83 e2 07	 and	 edx, 7
  0001b	53		 push	 ebx
  0001c	03 c2		 add	 eax, edx
  0001e	c1 f8 03	 sar	 eax, 3
  00021	56		 push	 esi

; 3699 : 		_Med3(_First, _First + _Step, _First + 2 * _Step, _Pred);

  00022	ff 75 14	 push	 DWORD PTR __Pred$[ebp]
  00025	8b d8		 mov	 ebx, eax
  00027	8b f0		 mov	 esi, eax
  00029	c1 e3 04	 shl	 ebx, 4
  0002c	8d 14 0b	 lea	 edx, DWORD PTR [ebx+ecx]
  0002f	c1 e6 03	 shl	 esi, 3
  00032	8d 04 0e	 lea	 eax, DWORD PTR [esi+ecx]
  00035	52		 push	 edx
  00036	50		 push	 eax
  00037	51		 push	 ecx
  00038	89 45 08	 mov	 DWORD PTR tv200[ebp], eax
  0003b	e8 00 00 00 00	 call	 ??$_Med3@PAUFishItem@@VFishItemSort@@@std@@YAXPAUFishItem@@00VFishItemSort@@@Z ; std::_Med3<FishItem *,FishItemSort>

; 3700 : 		_Med3(_Mid - _Step, _Mid, _Mid + _Step, _Pred);

  00040	8b 45 0c	 mov	 eax, DWORD PTR __Mid$[ebp]
  00043	ff 75 14	 push	 DWORD PTR __Pred$[ebp]
  00046	8d 0c 06	 lea	 ecx, DWORD PTR [esi+eax]
  00049	51		 push	 ecx
  0004a	50		 push	 eax
  0004b	2b c6		 sub	 eax, esi
  0004d	50		 push	 eax
  0004e	e8 00 00 00 00	 call	 ??$_Med3@PAUFishItem@@VFishItemSort@@@std@@YAXPAUFishItem@@00VFishItemSort@@@Z ; std::_Med3<FishItem *,FishItemSort>

; 3701 : 		_Med3(_Last - 2 * _Step, _Last - _Step, _Last, _Pred);

  00053	ff 75 14	 push	 DWORD PTR __Pred$[ebp]
  00056	89 7d 10	 mov	 DWORD PTR tv203[ebp], edi
  00059	29 75 10	 sub	 DWORD PTR tv203[ebp], esi
  0005c	57		 push	 edi
  0005d	ff 75 10	 push	 DWORD PTR tv203[ebp]
  00060	2b fb		 sub	 edi, ebx
  00062	57		 push	 edi
  00063	e8 00 00 00 00	 call	 ??$_Med3@PAUFishItem@@VFishItemSort@@@std@@YAXPAUFishItem@@00VFishItemSort@@@Z ; std::_Med3<FishItem *,FishItemSort>

; 3702 : 		_Med3(_First + _Step, _Mid, _Last - _Step, _Pred);

  00068	ff 75 14	 push	 DWORD PTR __Pred$[ebp]
  0006b	ff 75 10	 push	 DWORD PTR tv203[ebp]
  0006e	ff 75 0c	 push	 DWORD PTR __Mid$[ebp]
  00071	ff 75 08	 push	 DWORD PTR tv200[ebp]
  00074	e8 00 00 00 00	 call	 ??$_Med3@PAUFishItem@@VFishItemSort@@@std@@YAXPAUFishItem@@00VFishItemSort@@@Z ; std::_Med3<FishItem *,FishItemSort>
  00079	83 c4 40	 add	 esp, 64			; 00000040H
  0007c	5e		 pop	 esi
  0007d	5b		 pop	 ebx

; 3703 : 		}
; 3704 : 	else

  0007e	eb 10		 jmp	 SHORT $LN1@Median
$LN2@Median:

; 3705 : 		_Med3(_First, _Mid, _Last, _Pred);

  00080	ff 75 14	 push	 DWORD PTR __Pred$[ebp]
  00083	57		 push	 edi
  00084	ff 75 0c	 push	 DWORD PTR __Mid$[ebp]
  00087	51		 push	 ecx
  00088	e8 00 00 00 00	 call	 ??$_Med3@PAUFishItem@@VFishItemSort@@@std@@YAXPAUFishItem@@00VFishItemSort@@@Z ; std::_Med3<FishItem *,FishItemSort>
  0008d	83 c4 10	 add	 esp, 16			; 00000010H
$LN1@Median:
  00090	5f		 pop	 edi

; 3706 : 	}

  00091	5d		 pop	 ebp
  00092	c3		 ret	 0
??$_Median@PAUFishItem@@VFishItemSort@@@std@@YAXPAUFishItem@@00VFishItemSort@@@Z ENDP ; std::_Median<FishItem *,FishItemSort>
_TEXT	ENDS
PUBLIC	??$_Make_heap@PAUFishItem@@HU1@VFishItemSort@@@std@@YAXPAUFishItem@@0VFishItemSort@@PAH0@Z ; std::_Make_heap<FishItem *,int,FishItem,FishItemSort>
; Function compile flags: /Ogsp
;	COMDAT ??$_Make_heap@PAUFishItem@@HU1@VFishItemSort@@@std@@YAXPAUFishItem@@0VFishItemSort@@PAH0@Z
_TEXT	SEGMENT
__Val$525026 = -8					; size = 8
__First$ = 8						; size = 4
__Last$ = 12						; size = 4
__Pred$ = 16						; size = 1
___formal$ = 20						; size = 4
___formal$ = 24						; size = 4
??$_Make_heap@PAUFishItem@@HU1@VFishItemSort@@@std@@YAXPAUFishItem@@0VFishItemSort@@PAH0@Z PROC ; std::_Make_heap<FishItem *,int,FishItem,FishItemSort>, COMDAT

; 2658 : 	{	// make nontrivial [_First, _Last) into a heap, using _Pred

  00000	55		 push	 ebp
  00001	8b ec		 mov	 ebp, esp
  00003	51		 push	 ecx
  00004	51		 push	 ecx
  00005	53		 push	 ebx

; 2659 : 	_Diff _Bottom = _Last - _First;

  00006	8b 5d 0c	 mov	 ebx, DWORD PTR __Last$[ebp]
  00009	56		 push	 esi
  0000a	57		 push	 edi
  0000b	8b 7d 08	 mov	 edi, DWORD PTR __First$[ebp]
  0000e	2b df		 sub	 ebx, edi
  00010	c1 fb 03	 sar	 ebx, 3

; 2660 : 	for (_Diff _Hole = _Bottom / 2; 0 < _Hole; )

  00013	8b c3		 mov	 eax, ebx
  00015	99		 cdq
  00016	2b c2		 sub	 eax, edx
  00018	8b f0		 mov	 esi, eax
  0001a	d1 fe		 sar	 esi, 1
  0001c	85 f6		 test	 esi, esi
  0001e	7e 2a		 jle	 SHORT $LN1@Make_heap

; 2659 : 	_Diff _Bottom = _Last - _First;

  00020	8d 3c f7	 lea	 edi, DWORD PTR [edi+esi*8]
$LL2@Make_heap:

; 2661 : 		{	// reheap top half, bottom to top
; 2662 : 		--_Hole;
; 2663 : 		_Ty _Val = _Move(*(_First + _Hole));
; 2664 : 		_Adjust_heap(_First, _Hole, _Bottom,
; 2665 : 			_Move(_Val), _Pred);

  00023	ff 75 10	 push	 DWORD PTR __Pred$[ebp]
  00026	83 ef 08	 sub	 edi, 8
  00029	8b 07		 mov	 eax, DWORD PTR [edi]
  0002b	89 45 f8	 mov	 DWORD PTR __Val$525026[ebp], eax
  0002e	8b 47 04	 mov	 eax, DWORD PTR [edi+4]
  00031	89 45 fc	 mov	 DWORD PTR __Val$525026[ebp+4], eax
  00034	8d 45 f8	 lea	 eax, DWORD PTR __Val$525026[ebp]
  00037	50		 push	 eax
  00038	53		 push	 ebx
  00039	4e		 dec	 esi
  0003a	56		 push	 esi
  0003b	ff 75 08	 push	 DWORD PTR __First$[ebp]
  0003e	e8 00 00 00 00	 call	 ??$_Adjust_heap@PAUFishItem@@HU1@VFishItemSort@@@std@@YAXPAUFishItem@@HH$$QAU1@VFishItemSort@@@Z ; std::_Adjust_heap<FishItem *,int,FishItem,FishItemSort>
  00043	83 c4 14	 add	 esp, 20			; 00000014H
  00046	85 f6		 test	 esi, esi
  00048	7f d9		 jg	 SHORT $LL2@Make_heap
$LN1@Make_heap:
  0004a	5f		 pop	 edi
  0004b	5e		 pop	 esi
  0004c	5b		 pop	 ebx

; 2666 : 		}
; 2667 : 	}

  0004d	c9		 leave
  0004e	c3		 ret	 0
??$_Make_heap@PAUFishItem@@HU1@VFishItemSort@@@std@@YAXPAUFishItem@@0VFishItemSort@@PAH0@Z ENDP ; std::_Make_heap<FishItem *,int,FishItem,FishItemSort>
_TEXT	ENDS
PUBLIC	??$_Pop_heap_0@PAUFishItem@@U1@VFishItemSort@@@std@@YAXPAUFishItem@@0VFishItemSort@@0@Z ; std::_Pop_heap_0<FishItem *,FishItem,FishItemSort>
; Function compile flags: /Ogsp
;	COMDAT ??$_Pop_heap_0@PAUFishItem@@U1@VFishItemSort@@@std@@YAXPAUFishItem@@0VFishItemSort@@0@Z
_TEXT	SEGMENT
__Val$ = -8						; size = 8
__First$ = 8						; size = 4
__Last$ = 12						; size = 4
__Pred$ = 16						; size = 1
___formal$ = 20						; size = 4
??$_Pop_heap_0@PAUFishItem@@U1@VFishItemSort@@@std@@YAXPAUFishItem@@0VFishItemSort@@0@Z PROC ; std::_Pop_heap_0<FishItem *,FishItem,FishItemSort>, COMDAT

; 2601 : 	{	// pop *_First to *(_Last - 1) and reheap, using _Pred

  00000	55		 push	 ebp
  00001	8b ec		 mov	 ebp, esp
  00003	51		 push	 ecx
  00004	51		 push	 ecx

; 2602 : 	_Ty _Val = _Move(*(_Last - 1));

  00005	8b 45 0c	 mov	 eax, DWORD PTR __Last$[ebp]
  00008	83 c0 f8	 add	 eax, -8			; fffffff8H
  0000b	8b 08		 mov	 ecx, DWORD PTR [eax]

; 2603 : 	_Pop_heap(_First, _Last - 1, _Last - 1,
; 2604 : 		_Move(_Val), _Pred, _Dist_type(_First));

  0000d	6a 00		 push	 0
  0000f	ff 75 10	 push	 DWORD PTR __Pred$[ebp]
  00012	89 4d f8	 mov	 DWORD PTR __Val$[ebp], ecx
  00015	8b 48 04	 mov	 ecx, DWORD PTR [eax+4]
  00018	89 4d fc	 mov	 DWORD PTR __Val$[ebp+4], ecx
  0001b	8d 4d f8	 lea	 ecx, DWORD PTR __Val$[ebp]
  0001e	51		 push	 ecx
  0001f	50		 push	 eax
  00020	50		 push	 eax
  00021	ff 75 08	 push	 DWORD PTR __First$[ebp]
  00024	e8 00 00 00 00	 call	 ??$_Pop_heap@PAUFishItem@@HU1@VFishItemSort@@@std@@YAXPAUFishItem@@00$$QAU1@VFishItemSort@@PAH@Z ; std::_Pop_heap<FishItem *,int,FishItem,FishItemSort>
  00029	83 c4 18	 add	 esp, 24			; 00000018H

; 2605 : 	}

  0002c	c9		 leave
  0002d	c3		 ret	 0
??$_Pop_heap_0@PAUFishItem@@U1@VFishItemSort@@@std@@YAXPAUFishItem@@0VFishItemSort@@0@Z ENDP ; std::_Pop_heap_0<FishItem *,FishItem,FishItemSort>
_TEXT	ENDS
PUBLIC	??$_Destroy_range@V?$allocator@UFishItem@@@std@@@std@@YAXPAUFishItem@@0AAV?$allocator@UFishItem@@@0@@Z ; std::_Destroy_range<std::allocator<FishItem> >
; Function compile flags: /Ogsp
; File c:\program files (x86)\microsoft visual studio 10.0\vc\include\xmemory
;	COMDAT ??$_Destroy_range@V?$allocator@UFishItem@@@std@@@std@@YAXPAUFishItem@@0AAV?$allocator@UFishItem@@@0@@Z
_TEXT	SEGMENT
__First$ = 8						; size = 4
__Last$ = 12						; size = 4
__Al$ = 16						; size = 4
??$_Destroy_range@V?$allocator@UFishItem@@@std@@@std@@YAXPAUFishItem@@0AAV?$allocator@UFishItem@@@0@@Z PROC ; std::_Destroy_range<std::allocator<FishItem> >, COMDAT

; 88   : 	_Destroy_range(_First, _Last, _Al, _Ptr_cat(_First, _Last));
; 89   : 	}

  00000	c3		 ret	 0
??$_Destroy_range@V?$allocator@UFishItem@@@std@@@std@@YAXPAUFishItem@@0AAV?$allocator@UFishItem@@@0@@Z ENDP ; std::_Destroy_range<std::allocator<FishItem> >
_TEXT	ENDS
PUBLIC	??$_Uninitialized_move@PAUFishItem@@PAU1@V?$allocator@UFishItem@@@std@@@std@@YAPAUFishItem@@PAU1@00AAV?$allocator@UFishItem@@@0@@Z ; std::_Uninitialized_move<FishItem *,FishItem *,std::allocator<FishItem> >
; Function compile flags: /Ogsp
; File c:\program files (x86)\microsoft visual studio 10.0\vc\include\memory
;	COMDAT ??$_Uninitialized_move@PAUFishItem@@PAU1@V?$allocator@UFishItem@@@std@@@std@@YAPAUFishItem@@PAU1@00AAV?$allocator@UFishItem@@@0@@Z
_TEXT	SEGMENT
__Cat$526463 = -4					; size = 1
__First$ = 8						; size = 4
__Last$ = 12						; size = 4
__Dest$ = 16						; size = 4
__Al$ = 20						; size = 4
??$_Uninitialized_move@PAUFishItem@@PAU1@V?$allocator@UFishItem@@@std@@@std@@YAPAUFishItem@@PAU1@00AAV?$allocator@UFishItem@@@0@@Z PROC ; std::_Uninitialized_move<FishItem *,FishItem *,std::allocator<FishItem> >, COMDAT

; 469  : 	{	// move [_First, _Last) to raw _Dest, using _Al

  00000	55		 push	 ebp
  00001	8b ec		 mov	 ebp, esp
  00003	51		 push	 ecx

; 470  : 	return (_Uninit_move(_First, _Last, _Dest, _Al,
; 471  : 		_Val_type(_First), _Ptr_cat(_First, _Dest)));

  00004	ff 75 fc	 push	 DWORD PTR __Cat$526463[ebp]
  00007	6a 00		 push	 0
  00009	ff 75 14	 push	 DWORD PTR __Al$[ebp]
  0000c	ff 75 10	 push	 DWORD PTR __Dest$[ebp]
  0000f	ff 75 0c	 push	 DWORD PTR __Last$[ebp]
  00012	ff 75 08	 push	 DWORD PTR __First$[ebp]
  00015	e8 00 00 00 00	 call	 ??$_Uninit_move@PAUFishItem@@PAU1@V?$allocator@UFishItem@@@std@@U1@@std@@YAPAUFishItem@@PAU1@00AAV?$allocator@UFishItem@@@0@0U_Nonscalar_ptr_iterator_tag@0@@Z ; std::_Uninit_move<FishItem *,FishItem *,std::allocator<FishItem>,FishItem>
  0001a	83 c4 18	 add	 esp, 24			; 00000018H

; 472  : 	}

  0001d	c9		 leave
  0001e	c3		 ret	 0
??$_Uninitialized_move@PAUFishItem@@PAU1@V?$allocator@UFishItem@@@std@@@std@@YAPAUFishItem@@PAU1@00AAV?$allocator@UFishItem@@@0@@Z ENDP ; std::_Uninitialized_move<FishItem *,FishItem *,std::allocator<FishItem> >
_TEXT	ENDS
PUBLIC	??$_Unguarded_partition@PAUFishItem@@VFishItemSort@@@std@@YA?AU?$pair@PAUFishItem@@PAU1@@0@PAUFishItem@@0VFishItemSort@@@Z ; std::_Unguarded_partition<FishItem *,FishItemSort>
; Function compile flags: /Ogsp
; File c:\program files (x86)\microsoft visual studio 10.0\vc\include\algorithm
;	COMDAT ??$_Unguarded_partition@PAUFishItem@@VFishItemSort@@@std@@YA?AU?$pair@PAUFishItem@@PAU1@@0@PAUFishItem@@0VFishItemSort@@@Z
_TEXT	SEGMENT
__Tmp$526766 = -56					; size = 8
__Tmp$526733 = -48					; size = 8
__Tmp$526701 = -40					; size = 8
__Tmp$526668 = -32					; size = 8
__Tmp$526570 = -24					; size = 8
__Tmp$526528 = -16					; size = 8
tv598 = -8						; size = 4
__Glast$ = -4						; size = 4
___$ReturnUdt$ = 8					; size = 4
__First$ = 12						; size = 4
__Last$ = 16						; size = 4
__Pred$ = 20						; size = 1
??$_Unguarded_partition@PAUFishItem@@VFishItemSort@@@std@@YA?AU?$pair@PAUFishItem@@PAU1@@0@PAUFishItem@@0VFishItemSort@@@Z PROC ; std::_Unguarded_partition<FishItem *,FishItemSort>, COMDAT

; 3712 : 	{	// partition [_First, _Last), using _Pred

  00000	55		 push	 ebp
  00001	8b ec		 mov	 ebp, esp
  00003	83 ec 38	 sub	 esp, 56			; 00000038H
  00006	53		 push	 ebx

; 3713 : 	_RanIt _Mid = _First + (_Last - _First) / 2;

  00007	8b 5d 10	 mov	 ebx, DWORD PTR __Last$[ebp]
  0000a	56		 push	 esi
  0000b	57		 push	 edi
  0000c	8b 7d 0c	 mov	 edi, DWORD PTR __First$[ebp]

; 3714 : 	_Median(_First, _Mid, _Last - 1, _Pred);

  0000f	ff 75 14	 push	 DWORD PTR __Pred$[ebp]
  00012	8b c3		 mov	 eax, ebx
  00014	2b c7		 sub	 eax, edi
  00016	c1 f8 03	 sar	 eax, 3
  00019	99		 cdq
  0001a	2b c2		 sub	 eax, edx
  0001c	d1 f8		 sar	 eax, 1
  0001e	8d 34 c7	 lea	 esi, DWORD PTR [edi+eax*8]
  00021	8d 43 f8	 lea	 eax, DWORD PTR [ebx-8]
  00024	50		 push	 eax
  00025	56		 push	 esi
  00026	57		 push	 edi
  00027	e8 00 00 00 00	 call	 ??$_Median@PAUFishItem@@VFishItemSort@@@std@@YAXPAUFishItem@@00VFishItemSort@@@Z ; std::_Median<FishItem *,FishItemSort>
  0002c	83 c4 10	 add	 esp, 16			; 00000010H

; 3715 : 	_RanIt _Pfirst = _Mid;

  0002f	8b ce		 mov	 ecx, esi

; 3716 : 	_RanIt _Plast = _Pfirst + 1;

  00031	8d 56 08	 lea	 edx, DWORD PTR [esi+8]

; 3717 : 
; 3718 : 	while (_First < _Pfirst
; 3719 : 		&& !_DEBUG_LT_PRED(_Pred, *(_Pfirst - 1), *_Pfirst)
; 3720 : 		&& !_Pred(*_Pfirst, *(_Pfirst - 1)))

  00034	3b fe		 cmp	 edi, esi
  00036	73 13		 jae	 SHORT $LN150@Unguarded_
$LL27@Unguarded_:
  00038	8b 41 fc	 mov	 eax, DWORD PTR [ecx-4]
  0003b	8b 71 04	 mov	 esi, DWORD PTR [ecx+4]
  0003e	3b f0		 cmp	 esi, eax
  00040	7f 09		 jg	 SHORT $LN150@Unguarded_
  00042	7c 07		 jl	 SHORT $LN150@Unguarded_

; 3721 : 		--_Pfirst;

  00044	83 e9 08	 sub	 ecx, 8
  00047	3b f9		 cmp	 edi, ecx
  00049	72 ed		 jb	 SHORT $LL27@Unguarded_
$LN150@Unguarded_:

; 3722 : 	while (_Plast < _Last
; 3723 : 		&& !_DEBUG_LT_PRED(_Pred, *_Plast, *_Pfirst)
; 3724 : 		&& !_Pred(*_Pfirst, *_Plast))

  0004b	3b d3		 cmp	 edx, ebx
  0004d	73 13		 jae	 SHORT $LN152@Unguarded_
  0004f	8b 71 04	 mov	 esi, DWORD PTR [ecx+4]
$LL25@Unguarded_:
  00052	8b 42 04	 mov	 eax, DWORD PTR [edx+4]
  00055	3b f0		 cmp	 esi, eax
  00057	7f 09		 jg	 SHORT $LN152@Unguarded_
  00059	7c 07		 jl	 SHORT $LN152@Unguarded_

; 3725 : 		++_Plast;

  0005b	83 c2 08	 add	 edx, 8
  0005e	3b d3		 cmp	 edx, ebx
  00060	72 f0		 jb	 SHORT $LL25@Unguarded_
$LN152@Unguarded_:

; 3726 : 
; 3727 : 	_RanIt _Gfirst = _Plast;
; 3728 : 	_RanIt _Glast = _Pfirst;

  00062	8b f1		 mov	 esi, ecx
  00064	8b c2		 mov	 eax, edx
  00066	89 75 fc	 mov	 DWORD PTR __Glast$[ebp], esi

; 3729 : 
; 3730 : 	for (; ; )
; 3731 : 		{	// partition
; 3732 : 		for (; _Gfirst < _Last; ++_Gfirst)

  00069	eb 34		 jmp	 SHORT $LN161@Unguarded_
$LL21@Unguarded_:

; 3733 : 			if (_DEBUG_LT_PRED(_Pred, *_Pfirst, *_Gfirst))

  0006b	8b 79 04	 mov	 edi, DWORD PTR [ecx+4]
  0006e	8b 58 04	 mov	 ebx, DWORD PTR [eax+4]
  00071	3b df		 cmp	 ebx, edi
  00073	7f 27		 jg	 SHORT $LN20@Unguarded_

; 3734 : 				;
; 3735 : 			else if (_Pred(*_Gfirst, *_Pfirst))

  00075	7c 2d		 jl	 SHORT $LN155@Unguarded_

; 3736 : 				break;
; 3737 : 			else
; 3738 : 				_STD iter_swap(_Plast++, _Gfirst);

  00077	8b fa		 mov	 edi, edx
  00079	8b 1f		 mov	 ebx, DWORD PTR [edi]
  0007b	89 5d f0	 mov	 DWORD PTR __Tmp$526528[ebp], ebx
  0007e	8b 5f 04	 mov	 ebx, DWORD PTR [edi+4]
  00081	89 5d f4	 mov	 DWORD PTR __Tmp$526528[ebp+4], ebx
  00084	8b 18		 mov	 ebx, DWORD PTR [eax]
  00086	89 1f		 mov	 DWORD PTR [edi], ebx
  00088	8b 58 04	 mov	 ebx, DWORD PTR [eax+4]
  0008b	89 5f 04	 mov	 DWORD PTR [edi+4], ebx
  0008e	8b 7d f0	 mov	 edi, DWORD PTR __Tmp$526528[ebp]
  00091	89 38		 mov	 DWORD PTR [eax], edi
  00093	8b 7d f4	 mov	 edi, DWORD PTR __Tmp$526528[ebp+4]
  00096	89 78 04	 mov	 DWORD PTR [eax+4], edi
$LN163@Unguarded_:
  00099	83 c2 08	 add	 edx, 8
$LN20@Unguarded_:

; 3729 : 
; 3730 : 	for (; ; )
; 3731 : 		{	// partition
; 3732 : 		for (; _Gfirst < _Last; ++_Gfirst)

  0009c	83 c0 08	 add	 eax, 8
$LN161@Unguarded_:
  0009f	3b 45 10	 cmp	 eax, DWORD PTR __Last$[ebp]
  000a2	72 c7		 jb	 SHORT $LL21@Unguarded_
$LN155@Unguarded_:

; 3739 : 		for (; _First < _Glast; --_Glast)

  000a4	3b 75 0c	 cmp	 esi, DWORD PTR __First$[ebp]
  000a7	76 51		 jbe	 SHORT $LN162@Unguarded_
  000a9	8d 7e f8	 lea	 edi, DWORD PTR [esi-8]
  000ac	89 7d f8	 mov	 DWORD PTR tv598[ebp], edi
$LL14@Unguarded_:

; 3740 : 			if (_DEBUG_LT_PRED(_Pred, *(_Glast - 1), *_Pfirst))

  000af	8b 7f 04	 mov	 edi, DWORD PTR [edi+4]
  000b2	8b 59 04	 mov	 ebx, DWORD PTR [ecx+4]
  000b5	3b df		 cmp	 ebx, edi
  000b7	7f 2a		 jg	 SHORT $LN157@Unguarded_

; 3741 : 				;
; 3742 : 			else if (_Pred(*_Pfirst, *(_Glast - 1)))

  000b9	7c 3c		 jl	 SHORT $LN158@Unguarded_

; 3743 : 				break;
; 3744 : 			else
; 3745 : 				_STD iter_swap(--_Pfirst, _Glast - 1);

  000bb	83 e9 08	 sub	 ecx, 8
  000be	8b 39		 mov	 edi, DWORD PTR [ecx]
  000c0	89 7d e8	 mov	 DWORD PTR __Tmp$526570[ebp], edi
  000c3	8b 79 04	 mov	 edi, DWORD PTR [ecx+4]
  000c6	89 7d ec	 mov	 DWORD PTR __Tmp$526570[ebp+4], edi
  000c9	8b 7d f8	 mov	 edi, DWORD PTR tv598[ebp]
  000cc	8b 1f		 mov	 ebx, DWORD PTR [edi]
  000ce	89 19		 mov	 DWORD PTR [ecx], ebx
  000d0	8b 5f 04	 mov	 ebx, DWORD PTR [edi+4]
  000d3	89 59 04	 mov	 DWORD PTR [ecx+4], ebx
  000d6	8b 5d e8	 mov	 ebx, DWORD PTR __Tmp$526570[ebp]
  000d9	89 1f		 mov	 DWORD PTR [edi], ebx
  000db	8b 5d ec	 mov	 ebx, DWORD PTR __Tmp$526570[ebp+4]
  000de	89 5f 04	 mov	 DWORD PTR [edi+4], ebx
  000e1	eb 03		 jmp	 SHORT $LN13@Unguarded_
$LN157@Unguarded_:
  000e3	8b 7d f8	 mov	 edi, DWORD PTR tv598[ebp]
$LN13@Unguarded_:

; 3739 : 		for (; _First < _Glast; --_Glast)

  000e6	83 ee 08	 sub	 esi, 8
  000e9	83 ef 08	 sub	 edi, 8
  000ec	89 75 fc	 mov	 DWORD PTR __Glast$[ebp], esi
  000ef	89 7d f8	 mov	 DWORD PTR tv598[ebp], edi
  000f2	39 75 0c	 cmp	 DWORD PTR __First$[ebp], esi
  000f5	72 b8		 jb	 SHORT $LL14@Unguarded_
$LN158@Unguarded_:

; 3746 : 		if (_Glast == _First && _Gfirst == _Last)

  000f7	3b 75 0c	 cmp	 esi, DWORD PTR __First$[ebp]
$LN162@Unguarded_:
  000fa	75 50		 jne	 SHORT $LN6@Unguarded_
  000fc	3b 45 10	 cmp	 eax, DWORD PTR __Last$[ebp]
  000ff	0f 84 b4 00 00
	00		 je	 $LN144@Unguarded_

; 3748 : 
; 3749 : 		if (_Glast == _First)
; 3750 : 			{	// no room at bottom, rotate pivot upward
; 3751 : 			if (_Plast != _Gfirst)

  00105	3b d0		 cmp	 edx, eax
  00107	74 14		 je	 SHORT $LN88@Unguarded_

; 3752 : 				_STD iter_swap(_Pfirst, _Plast);

  00109	8b 1a		 mov	 ebx, DWORD PTR [edx]
  0010b	8b 31		 mov	 esi, DWORD PTR [ecx]
  0010d	8b 79 04	 mov	 edi, DWORD PTR [ecx+4]
  00110	89 19		 mov	 DWORD PTR [ecx], ebx
  00112	8b 5a 04	 mov	 ebx, DWORD PTR [edx+4]
  00115	89 59 04	 mov	 DWORD PTR [ecx+4], ebx
  00118	89 32		 mov	 DWORD PTR [edx], esi
  0011a	89 7a 04	 mov	 DWORD PTR [edx+4], edi
$LN88@Unguarded_:

; 3753 : 			++_Plast;
; 3754 : 			_STD iter_swap(_Pfirst++, _Gfirst++);

  0011d	8b f9		 mov	 edi, ecx
  0011f	8b 1f		 mov	 ebx, DWORD PTR [edi]
  00121	89 5d e0	 mov	 DWORD PTR __Tmp$526668[ebp], ebx
  00124	8b 5f 04	 mov	 ebx, DWORD PTR [edi+4]
  00127	8b f0		 mov	 esi, eax
  00129	89 5d e4	 mov	 DWORD PTR __Tmp$526668[ebp+4], ebx
  0012c	8b 1e		 mov	 ebx, DWORD PTR [esi]
  0012e	89 1f		 mov	 DWORD PTR [edi], ebx
  00130	8b 5e 04	 mov	 ebx, DWORD PTR [esi+4]
  00133	89 5f 04	 mov	 DWORD PTR [edi+4], ebx
  00136	8b 7d e0	 mov	 edi, DWORD PTR __Tmp$526668[ebp]
  00139	89 3e		 mov	 DWORD PTR [esi], edi
  0013b	8b 7d e4	 mov	 edi, DWORD PTR __Tmp$526668[ebp+4]
  0013e	89 7e 04	 mov	 DWORD PTR [esi+4], edi
  00141	8b 75 fc	 mov	 esi, DWORD PTR __Glast$[ebp]
  00144	83 c1 08	 add	 ecx, 8
  00147	e9 4d ff ff ff	 jmp	 $LN163@Unguarded_
$LN6@Unguarded_:

; 3755 : 			}
; 3756 : 		else if (_Gfirst == _Last)
; 3757 : 			{	// no room at top, rotate pivot downward
; 3758 : 			if (--_Glast != --_Pfirst)

  0014c	83 ee 08	 sub	 esi, 8
  0014f	89 75 fc	 mov	 DWORD PTR __Glast$[ebp], esi
  00152	3b 45 10	 cmp	 eax, DWORD PTR __Last$[ebp]
  00155	75 43		 jne	 SHORT $LN3@Unguarded_
  00157	83 e9 08	 sub	 ecx, 8
  0015a	3b f1		 cmp	 esi, ecx
  0015c	74 1a		 je	 SHORT $LN108@Unguarded_

; 3759 : 				_STD iter_swap(_Glast, _Pfirst);

  0015e	8b 5e 04	 mov	 ebx, DWORD PTR [esi+4]
  00161	8b 3e		 mov	 edi, DWORD PTR [esi]
  00163	89 5d dc	 mov	 DWORD PTR __Tmp$526701[ebp+4], ebx
  00166	8b 19		 mov	 ebx, DWORD PTR [ecx]
  00168	89 1e		 mov	 DWORD PTR [esi], ebx
  0016a	8b 59 04	 mov	 ebx, DWORD PTR [ecx+4]
  0016d	89 5e 04	 mov	 DWORD PTR [esi+4], ebx
  00170	89 39		 mov	 DWORD PTR [ecx], edi
  00172	8b 7d dc	 mov	 edi, DWORD PTR __Tmp$526701[ebp+4]
  00175	89 79 04	 mov	 DWORD PTR [ecx+4], edi
$LN108@Unguarded_:

; 3760 : 			_STD iter_swap(_Pfirst, --_Plast);

  00178	8b 59 04	 mov	 ebx, DWORD PTR [ecx+4]
  0017b	8b 39		 mov	 edi, DWORD PTR [ecx]
  0017d	83 ea 08	 sub	 edx, 8
  00180	89 5d d4	 mov	 DWORD PTR __Tmp$526733[ebp+4], ebx
  00183	8b 1a		 mov	 ebx, DWORD PTR [edx]
  00185	89 19		 mov	 DWORD PTR [ecx], ebx
  00187	8b 5a 04	 mov	 ebx, DWORD PTR [edx+4]
  0018a	89 59 04	 mov	 DWORD PTR [ecx+4], ebx
  0018d	89 3a		 mov	 DWORD PTR [edx], edi
  0018f	8b 7d d4	 mov	 edi, DWORD PTR __Tmp$526733[ebp+4]
  00192	89 7a 04	 mov	 DWORD PTR [edx+4], edi

; 3761 : 			}
; 3762 : 		else

  00195	e9 05 ff ff ff	 jmp	 $LN161@Unguarded_
$LN3@Unguarded_:

; 3763 : 			_STD iter_swap(_Gfirst++, --_Glast);

  0019a	8b 58 04	 mov	 ebx, DWORD PTR [eax+4]
  0019d	8b 38		 mov	 edi, DWORD PTR [eax]
  0019f	89 5d cc	 mov	 DWORD PTR __Tmp$526766[ebp+4], ebx
  001a2	8b 1e		 mov	 ebx, DWORD PTR [esi]
  001a4	89 18		 mov	 DWORD PTR [eax], ebx
  001a6	8b 5e 04	 mov	 ebx, DWORD PTR [esi+4]
  001a9	89 58 04	 mov	 DWORD PTR [eax+4], ebx
  001ac	89 3e		 mov	 DWORD PTR [esi], edi
  001ae	8b 7d cc	 mov	 edi, DWORD PTR __Tmp$526766[ebp+4]
  001b1	89 7e 04	 mov	 DWORD PTR [esi+4], edi

; 3764 : 		}

  001b4	e9 e3 fe ff ff	 jmp	 $LN20@Unguarded_
$LN144@Unguarded_:

; 3747 : 			return (_STD pair<_RanIt, _RanIt>(_Pfirst, _Plast));

  001b9	8b 45 08	 mov	 eax, DWORD PTR ___$ReturnUdt$[ebp]
  001bc	5f		 pop	 edi
  001bd	5e		 pop	 esi
  001be	89 08		 mov	 DWORD PTR [eax], ecx
  001c0	89 50 04	 mov	 DWORD PTR [eax+4], edx
  001c3	5b		 pop	 ebx

; 3765 : 	}

  001c4	c9		 leave
  001c5	c3		 ret	 0
??$_Unguarded_partition@PAUFishItem@@VFishItemSort@@@std@@YA?AU?$pair@PAUFishItem@@PAU1@@0@PAUFishItem@@0VFishItemSort@@@Z ENDP ; std::_Unguarded_partition<FishItem *,FishItemSort>
_TEXT	ENDS
PUBLIC	??$make_heap@PAUFishItem@@VFishItemSort@@@std@@YAXPAUFishItem@@0VFishItemSort@@@Z ; std::make_heap<FishItem *,FishItemSort>
; Function compile flags: /Ogsp
;	COMDAT ??$make_heap@PAUFishItem@@VFishItemSort@@@std@@YAXPAUFishItem@@0VFishItemSort@@@Z
_TEXT	SEGMENT
__First$ = 8						; size = 4
__Last$ = 12						; size = 4
__Pred$ = 16						; size = 1
??$make_heap@PAUFishItem@@VFishItemSort@@@std@@YAXPAUFishItem@@0VFishItemSort@@@Z PROC ; std::make_heap<FishItem *,FishItemSort>, COMDAT

; 2672 : 	{	// make [_First, _Last) into a heap, using _Pred

  00000	55		 push	 ebp
  00001	8b ec		 mov	 ebp, esp

; 2673 : 	_DEBUG_RANGE(_First, _Last);
; 2674 : 	_DEBUG_POINTER(_Pred);
; 2675 : 	if (1 < _Last - _First)

  00003	8b 45 0c	 mov	 eax, DWORD PTR __Last$[ebp]
  00006	2b 45 08	 sub	 eax, DWORD PTR __First$[ebp]
  00009	83 e0 f8	 and	 eax, -8			; fffffff8H
  0000c	83 f8 08	 cmp	 eax, 8
  0000f	7e 15		 jle	 SHORT $LN1@make_heap

; 2676 : 		_Make_heap(_Unchecked(_First), _Unchecked(_Last), _Pred,
; 2677 : 			_Dist_type(_First), _Val_type(_First));

  00011	6a 00		 push	 0
  00013	6a 00		 push	 0
  00015	ff 75 10	 push	 DWORD PTR __Pred$[ebp]
  00018	ff 75 0c	 push	 DWORD PTR __Last$[ebp]
  0001b	ff 75 08	 push	 DWORD PTR __First$[ebp]
  0001e	e8 00 00 00 00	 call	 ??$_Make_heap@PAUFishItem@@HU1@VFishItemSort@@@std@@YAXPAUFishItem@@0VFishItemSort@@PAH0@Z ; std::_Make_heap<FishItem *,int,FishItem,FishItemSort>
  00023	83 c4 14	 add	 esp, 20			; 00000014H
$LN1@make_heap:

; 2678 : 	}

  00026	5d		 pop	 ebp
  00027	c3		 ret	 0
??$make_heap@PAUFishItem@@VFishItemSort@@@std@@YAXPAUFishItem@@0VFishItemSort@@@Z ENDP ; std::make_heap<FishItem *,FishItemSort>
_TEXT	ENDS
PUBLIC	??$_Pop_heap@PAUFishItem@@VFishItemSort@@@std@@YAXPAUFishItem@@0VFishItemSort@@@Z ; std::_Pop_heap<FishItem *,FishItemSort>
; Function compile flags: /Ogsp
;	COMDAT ??$_Pop_heap@PAUFishItem@@VFishItemSort@@@std@@YAXPAUFishItem@@0VFishItemSort@@@Z
_TEXT	SEGMENT
__First$ = 8						; size = 4
__Last$ = 12						; size = 4
__Pred$ = 16						; size = 1
??$_Pop_heap@PAUFishItem@@VFishItemSort@@@std@@YAXPAUFishItem@@0VFishItemSort@@@Z PROC ; std::_Pop_heap<FishItem *,FishItemSort>, COMDAT

; 2610 : 	{	// pop *_First to *(_Last - 1) and reheap, using _Pred

  00000	55		 push	 ebp
  00001	8b ec		 mov	 ebp, esp

; 2611 : 	_Pop_heap_0(_Unchecked(_First), _Unchecked(_Last), _Pred,
; 2612 : 		_Val_type(_First));

  00003	6a 00		 push	 0
  00005	ff 75 10	 push	 DWORD PTR __Pred$[ebp]
  00008	ff 75 0c	 push	 DWORD PTR __Last$[ebp]
  0000b	ff 75 08	 push	 DWORD PTR __First$[ebp]
  0000e	e8 00 00 00 00	 call	 ??$_Pop_heap_0@PAUFishItem@@U1@VFishItemSort@@@std@@YAXPAUFishItem@@0VFishItemSort@@0@Z ; std::_Pop_heap_0<FishItem *,FishItem,FishItemSort>
  00013	83 c4 10	 add	 esp, 16			; 00000010H

; 2613 : 	}

  00016	5d		 pop	 ebp
  00017	c3		 ret	 0
??$_Pop_heap@PAUFishItem@@VFishItemSort@@@std@@YAXPAUFishItem@@0VFishItemSort@@@Z ENDP ; std::_Pop_heap<FishItem *,FishItemSort>
_TEXT	ENDS
PUBLIC	?_Destroy@?$vector@UFishItem@@V?$allocator@UFishItem@@@std@@@std@@IAEXPAUFishItem@@0@Z ; std::vector<FishItem,std::allocator<FishItem> >::_Destroy
; Function compile flags: /Ogsp
; File c:\program files (x86)\microsoft visual studio 10.0\vc\include\vector
;	COMDAT ?_Destroy@?$vector@UFishItem@@V?$allocator@UFishItem@@@std@@@std@@IAEXPAUFishItem@@0@Z
_TEXT	SEGMENT
__First$ = 8						; size = 4
__Last$ = 12						; size = 4
?_Destroy@?$vector@UFishItem@@V?$allocator@UFishItem@@@std@@@std@@IAEXPAUFishItem@@0@Z PROC ; std::vector<FishItem,std::allocator<FishItem> >::_Destroy, COMDAT
; _this$ = ecx

; 1270 : 		_Destroy_range(_First, _Last, this->_Alval);
; 1271 : 		}

  00000	c2 08 00	 ret	 8
?_Destroy@?$vector@UFishItem@@V?$allocator@UFishItem@@@std@@@std@@IAEXPAUFishItem@@0@Z ENDP ; std::vector<FishItem,std::allocator<FishItem> >::_Destroy
_TEXT	ENDS
PUBLIC	?_Tidy@?$vector@UFishItem@@V?$allocator@UFishItem@@@std@@@std@@IAEXXZ ; std::vector<FishItem,std::allocator<FishItem> >::_Tidy
EXTRN	__imp_?_Orphan_all@_Container_base0@std@@QAEXXZ:PROC
; Function compile flags: /Ogsp
;	COMDAT ?_Tidy@?$vector@UFishItem@@V?$allocator@UFishItem@@@std@@@std@@IAEXXZ
_TEXT	SEGMENT
?_Tidy@?$vector@UFishItem@@V?$allocator@UFishItem@@@std@@@std@@IAEXXZ PROC ; std::vector<FishItem,std::allocator<FishItem> >::_Tidy, COMDAT
; _this$ = ecx

; 1301 : 		{	// free all storage

  00000	56		 push	 esi
  00001	8b f1		 mov	 esi, ecx

; 1302 : 		if (this->_Myfirst != 0)

  00003	83 3e 00	 cmp	 DWORD PTR [esi], 0
  00006	74 0e		 je	 SHORT $LN21@Tidy

; 1303 : 			{	// something to free, destroy and deallocate it
; 1304 : 			this->_Orphan_all();

  00008	ff 15 00 00 00
	00		 call	 DWORD PTR __imp_?_Orphan_all@_Container_base0@std@@QAEXXZ

; 1305 : 			_Destroy(this->_Myfirst, this->_Mylast);
; 1306 : 			this->_Alval.deallocate(this->_Myfirst,
; 1307 : 				this->_Myend - this->_Myfirst);

  0000e	ff 36		 push	 DWORD PTR [esi]
  00010	e8 00 00 00 00	 call	 ??3@YAXPAX@Z		; operator delete
  00015	59		 pop	 ecx
$LN21@Tidy:

; 1308 : 			}
; 1309 : 		this->_Myfirst = 0;

  00016	83 26 00	 and	 DWORD PTR [esi], 0

; 1310 : 		this->_Mylast = 0;

  00019	83 66 04 00	 and	 DWORD PTR [esi+4], 0

; 1311 : 		this->_Myend = 0;

  0001d	83 66 08 00	 and	 DWORD PTR [esi+8], 0
  00021	5e		 pop	 esi

; 1312 : 		}

  00022	c3		 ret	 0
?_Tidy@?$vector@UFishItem@@V?$allocator@UFishItem@@@std@@@std@@IAEXXZ ENDP ; std::vector<FishItem,std::allocator<FishItem> >::_Tidy
_TEXT	ENDS
PUBLIC	??$_Umove@PAUFishItem@@@?$vector@UFishItem@@V?$allocator@UFishItem@@@std@@@std@@IAEPAUFishItem@@PAU2@00@Z ; std::vector<FishItem,std::allocator<FishItem> >::_Umove<FishItem *>
; Function compile flags: /Ogsp
;	COMDAT ??$_Umove@PAUFishItem@@@?$vector@UFishItem@@V?$allocator@UFishItem@@@std@@@std@@IAEPAUFishItem@@PAU2@00@Z
_TEXT	SEGMENT
__First$ = 8						; size = 4
__Last$ = 12						; size = 4
__Ptr$ = 16						; size = 4
??$_Umove@PAUFishItem@@@?$vector@UFishItem@@V?$allocator@UFishItem@@@std@@@std@@IAEPAUFishItem@@PAU2@00@Z PROC ; std::vector<FishItem,std::allocator<FishItem> >::_Umove<FishItem *>, COMDAT
; _this$ = ecx

; 1322 : 		pointer _Umove(_Iter _First, _Iter _Last, pointer _Ptr)

  00000	55		 push	 ebp
  00001	8b ec		 mov	 ebp, esp

; 1323 : 		{	// move initializing [_First, _Last), using allocator
; 1324 : 		return (_Uninitialized_move(_First, _Last,
; 1325 : 			_Ptr, this->_Alval));

  00003	83 c1 0c	 add	 ecx, 12			; 0000000cH
  00006	51		 push	 ecx
  00007	ff 75 10	 push	 DWORD PTR __Ptr$[ebp]
  0000a	ff 75 0c	 push	 DWORD PTR __Last$[ebp]
  0000d	ff 75 08	 push	 DWORD PTR __First$[ebp]
  00010	e8 00 00 00 00	 call	 ??$_Uninitialized_move@PAUFishItem@@PAU1@V?$allocator@UFishItem@@@std@@@std@@YAPAUFishItem@@PAU1@00AAV?$allocator@UFishItem@@@0@@Z ; std::_Uninitialized_move<FishItem *,FishItem *,std::allocator<FishItem> >
  00015	83 c4 10	 add	 esp, 16			; 00000010H

; 1326 : 		}

  00018	5d		 pop	 ebp
  00019	c2 0c 00	 ret	 12			; 0000000cH
??$_Umove@PAUFishItem@@@?$vector@UFishItem@@V?$allocator@UFishItem@@@std@@@std@@IAEPAUFishItem@@PAU2@00@Z ENDP ; std::vector<FishItem,std::allocator<FishItem> >::_Umove<FishItem *>
_TEXT	ENDS
PUBLIC	??$_Sort_heap@PAUFishItem@@VFishItemSort@@@std@@YAXPAUFishItem@@0VFishItemSort@@@Z ; std::_Sort_heap<FishItem *,FishItemSort>
; Function compile flags: /Ogsp
; File c:\program files (x86)\microsoft visual studio 10.0\vc\include\algorithm
;	COMDAT ??$_Sort_heap@PAUFishItem@@VFishItemSort@@@std@@YAXPAUFishItem@@0VFishItemSort@@@Z
_TEXT	SEGMENT
__First$ = 8						; size = 4
__Last$ = 12						; size = 4
__Pred$ = 16						; size = 1
??$_Sort_heap@PAUFishItem@@VFishItemSort@@@std@@YAXPAUFishItem@@0VFishItemSort@@@Z PROC ; std::_Sort_heap<FishItem *,FishItemSort>, COMDAT

; 2700 : 	{	// order heap by repeatedly popping, using _Pred

  00000	55		 push	 ebp
  00001	8b ec		 mov	 ebp, esp

; 2701 : 	for (; 1 < _Last - _First; --_Last)

  00003	8b 45 0c	 mov	 eax, DWORD PTR __Last$[ebp]
  00006	2b 45 08	 sub	 eax, DWORD PTR __First$[ebp]
  00009	8b c8		 mov	 ecx, eax
  0000b	83 e1 f8	 and	 ecx, -8			; fffffff8H
  0000e	83 f9 08	 cmp	 ecx, 8
  00011	7e 28		 jle	 SHORT $LN1@Sort_heap
  00013	57		 push	 edi
  00014	8b f8		 mov	 edi, eax
$LL3@Sort_heap:

; 2702 : 		_Pop_heap(_First, _Last, _Pred);

  00016	6a 00		 push	 0
  00018	ff 75 10	 push	 DWORD PTR __Pred$[ebp]
  0001b	ff 75 0c	 push	 DWORD PTR __Last$[ebp]
  0001e	ff 75 08	 push	 DWORD PTR __First$[ebp]
  00021	e8 00 00 00 00	 call	 ??$_Pop_heap_0@PAUFishItem@@U1@VFishItemSort@@@std@@YAXPAUFishItem@@0VFishItemSort@@0@Z ; std::_Pop_heap_0<FishItem *,FishItem,FishItemSort>
  00026	83 6d 0c 08	 sub	 DWORD PTR __Last$[ebp], 8
  0002a	83 ef 08	 sub	 edi, 8
  0002d	8b c7		 mov	 eax, edi
  0002f	83 e0 f8	 and	 eax, -8			; fffffff8H
  00032	83 c4 10	 add	 esp, 16			; 00000010H
  00035	83 f8 08	 cmp	 eax, 8
  00038	7f dc		 jg	 SHORT $LL3@Sort_heap
  0003a	5f		 pop	 edi
$LN1@Sort_heap:

; 2703 : 	}

  0003b	5d		 pop	 ebp
  0003c	c3		 ret	 0
??$_Sort_heap@PAUFishItem@@VFishItemSort@@@std@@YAXPAUFishItem@@0VFishItemSort@@@Z ENDP ; std::_Sort_heap<FishItem *,FishItemSort>
_TEXT	ENDS
PUBLIC	??1?$vector@UFishItem@@V?$allocator@UFishItem@@@std@@@std@@QAE@XZ ; std::vector<FishItem,std::allocator<FishItem> >::~vector<FishItem,std::allocator<FishItem> >
; Function compile flags: /Ogsp
; File c:\program files (x86)\microsoft visual studio 10.0\vc\include\vector
;	COMDAT ??1?$vector@UFishItem@@V?$allocator@UFishItem@@@std@@@std@@QAE@XZ
_TEXT	SEGMENT
??1?$vector@UFishItem@@V?$allocator@UFishItem@@@std@@@std@@QAE@XZ PROC ; std::vector<FishItem,std::allocator<FishItem> >::~vector<FishItem,std::allocator<FishItem> >, COMDAT
; _this$ = ecx

; 705  : 		_Tidy();

  00000	e9 00 00 00 00	 jmp	 ?_Tidy@?$vector@UFishItem@@V?$allocator@UFishItem@@@std@@@std@@IAEXXZ ; std::vector<FishItem,std::allocator<FishItem> >::_Tidy
??1?$vector@UFishItem@@V?$allocator@UFishItem@@@std@@@std@@QAE@XZ ENDP ; std::vector<FishItem,std::allocator<FishItem> >::~vector<FishItem,std::allocator<FishItem> >
_TEXT	ENDS
PUBLIC	?erase@?$vector@UFishItem@@V?$allocator@UFishItem@@@std@@@std@@QAE?AV?$_Vector_iterator@V?$_Vector_val@UFishItem@@V?$allocator@UFishItem@@@std@@@std@@@2@V?$_Vector_const_iterator@V?$_Vector_val@UFishItem@@V?$allocator@UFishItem@@@std@@@std@@@2@@Z ; std::vector<FishItem,std::allocator<FishItem> >::erase
; Function compile flags: /Ogsp
;	COMDAT ?erase@?$vector@UFishItem@@V?$allocator@UFishItem@@@std@@@std@@QAE?AV?$_Vector_iterator@V?$_Vector_val@UFishItem@@V?$allocator@UFishItem@@@std@@@std@@@2@V?$_Vector_const_iterator@V?$_Vector_val@UFishItem@@V?$allocator@UFishItem@@@std@@@std@@@2@@Z
_TEXT	SEGMENT
___$ReturnUdt$ = 8					; size = 4
__Cat$527001 = 12					; size = 1
__Where$ = 12						; size = 4
?erase@?$vector@UFishItem@@V?$allocator@UFishItem@@@std@@@std@@QAE?AV?$_Vector_iterator@V?$_Vector_val@UFishItem@@V?$allocator@UFishItem@@@std@@@std@@@2@V?$_Vector_const_iterator@V?$_Vector_val@UFishItem@@V?$allocator@UFishItem@@@std@@@std@@@2@@Z PROC ; std::vector<FishItem,std::allocator<FishItem> >::erase, COMDAT
; _this$ = ecx

; 1179 : 		{	// erase element at where

  00000	55		 push	 ebp
  00001	8b ec		 mov	 ebp, esp

; 1180 : 		_Move(_VIPTR(_Where) + 1, this->_Mylast,
; 1181 : 			_VIPTR(_Where));

  00003	8b 45 0c	 mov	 eax, DWORD PTR __Where$[ebp]
  00006	56		 push	 esi
  00007	ff 75 0c	 push	 DWORD PTR __Cat$527001[ebp]
  0000a	8b f1		 mov	 esi, ecx
  0000c	50		 push	 eax
  0000d	ff 76 04	 push	 DWORD PTR [esi+4]
  00010	83 c0 08	 add	 eax, 8
  00013	50		 push	 eax
  00014	e8 00 00 00 00	 call	 ??$_Move@PAUFishItem@@PAU1@@std@@YAPAUFishItem@@PAU1@00U_Nonscalar_ptr_iterator_tag@0@@Z ; std::_Move<FishItem *,FishItem *>

; 1182 : 		_Destroy(this->_Mylast - 1, this->_Mylast);
; 1183 : 		--this->_Mylast;
; 1184 : 		return (_Make_iter(_Where));

  00019	8b 45 08	 mov	 eax, DWORD PTR ___$ReturnUdt$[ebp]
  0001c	8b 4d 0c	 mov	 ecx, DWORD PTR __Where$[ebp]
  0001f	83 c4 10	 add	 esp, 16			; 00000010H
  00022	83 46 04 f8	 add	 DWORD PTR [esi+4], -8	; fffffff8H
  00026	89 08		 mov	 DWORD PTR [eax], ecx
  00028	5e		 pop	 esi

; 1185 : 		}

  00029	5d		 pop	 ebp
  0002a	c2 08 00	 ret	 8
?erase@?$vector@UFishItem@@V?$allocator@UFishItem@@@std@@@std@@QAE?AV?$_Vector_iterator@V?$_Vector_val@UFishItem@@V?$allocator@UFishItem@@@std@@@std@@@2@V?$_Vector_const_iterator@V?$_Vector_val@UFishItem@@V?$allocator@UFishItem@@@std@@@std@@@2@@Z ENDP ; std::vector<FishItem,std::allocator<FishItem> >::erase
_TEXT	ENDS
PUBLIC	?erase@?$vector@UFishItem@@V?$allocator@UFishItem@@@std@@@std@@QAE?AV?$_Vector_iterator@V?$_Vector_val@UFishItem@@V?$allocator@UFishItem@@@std@@@std@@@2@V?$_Vector_const_iterator@V?$_Vector_val@UFishItem@@V?$allocator@UFishItem@@@std@@@std@@@2@0@Z ; std::vector<FishItem,std::allocator<FishItem> >::erase
; Function compile flags: /Ogsp
;	COMDAT ?erase@?$vector@UFishItem@@V?$allocator@UFishItem@@@std@@@std@@QAE?AV?$_Vector_iterator@V?$_Vector_val@UFishItem@@V?$allocator@UFishItem@@@std@@@std@@@2@V?$_Vector_const_iterator@V?$_Vector_val@UFishItem@@V?$allocator@UFishItem@@@std@@@std@@@2@0@Z
_TEXT	SEGMENT
___$ReturnUdt$ = 8					; size = 4
__First_arg$ = 12					; size = 4
__Cat$527176 = 16					; size = 1
__Last_arg$ = 16					; size = 4
?erase@?$vector@UFishItem@@V?$allocator@UFishItem@@@std@@@std@@QAE?AV?$_Vector_iterator@V?$_Vector_val@UFishItem@@V?$allocator@UFishItem@@@std@@@std@@@2@V?$_Vector_const_iterator@V?$_Vector_val@UFishItem@@V?$allocator@UFishItem@@@std@@@std@@@2@0@Z PROC ; std::vector<FishItem,std::allocator<FishItem> >::erase, COMDAT
; _this$ = ecx

; 1190 : 		{	// erase [_First, _Last)

  00000	55		 push	 ebp
  00001	8b ec		 mov	 ebp, esp

; 1191 : 		iterator _First = _Make_iter(_First_arg);

  00003	8b 45 0c	 mov	 eax, DWORD PTR __First_arg$[ebp]
  00006	56		 push	 esi
  00007	57		 push	 edi
  00008	8b 7d 08	 mov	 edi, DWORD PTR ___$ReturnUdt$[ebp]
  0000b	8b f1		 mov	 esi, ecx
  0000d	89 07		 mov	 DWORD PTR [edi], eax

; 1192 : 		iterator _Last = _Make_iter(_Last_arg);
; 1193 : 
; 1194 : 		if (_First != _Last)

  0000f	3b 45 10	 cmp	 eax, DWORD PTR __Last_arg$[ebp]
  00012	74 16		 je	 SHORT $LN1@erase

; 1195 : 			{	// worth doing, copy down over hole
; 1196 :  #if _ITERATOR_DEBUG_LEVEL == 2
; 1197 : 			if (_Last < _First || _VICONT(_First) != this
; 1198 : 				|| _VIPTR(_First) < this->_Myfirst
; 1199 : 				|| this->_Mylast < _VIPTR(_Last))
; 1200 : 				_DEBUG_ERROR("vector erase iterator outside range");
; 1201 : 			pointer _Ptr = _Move(_VIPTR(_Last), this->_Mylast,
; 1202 : 				_VIPTR(_First));
; 1203 : 			_Orphan_range(_VIPTR(_First), this->_Mylast);
; 1204 : 
; 1205 :  #else /* _ITERATOR_DEBUG_LEVEL == 2 */
; 1206 : 			pointer _Ptr = _Move(_VIPTR(_Last), this->_Mylast,
; 1207 : 				_VIPTR(_First));

  00014	ff 75 10	 push	 DWORD PTR __Cat$527176[ebp]
  00017	8b 4e 04	 mov	 ecx, DWORD PTR [esi+4]
  0001a	50		 push	 eax
  0001b	51		 push	 ecx
  0001c	ff 75 10	 push	 DWORD PTR __Last_arg$[ebp]
  0001f	e8 00 00 00 00	 call	 ??$_Move@PAUFishItem@@PAU1@@std@@YAPAUFishItem@@PAU1@00U_Nonscalar_ptr_iterator_tag@0@@Z ; std::_Move<FishItem *,FishItem *>
  00024	83 c4 10	 add	 esp, 16			; 00000010H

; 1208 :  #endif /* _ITERATOR_DEBUG_LEVEL == 2 */
; 1209 : 
; 1210 : 			_Destroy(_Ptr, this->_Mylast);
; 1211 : 			this->_Mylast = _Ptr;

  00027	89 46 04	 mov	 DWORD PTR [esi+4], eax
$LN1@erase:

; 1212 : 			}
; 1213 : 		return (_First);

  0002a	8b c7		 mov	 eax, edi
  0002c	5f		 pop	 edi
  0002d	5e		 pop	 esi

; 1214 : 		}

  0002e	5d		 pop	 ebp
  0002f	c2 0c 00	 ret	 12			; 0000000cH
?erase@?$vector@UFishItem@@V?$allocator@UFishItem@@@std@@@std@@QAE?AV?$_Vector_iterator@V?$_Vector_val@UFishItem@@V?$allocator@UFishItem@@@std@@@std@@@2@V?$_Vector_const_iterator@V?$_Vector_val@UFishItem@@V?$allocator@UFishItem@@@std@@@std@@@2@0@Z ENDP ; std::vector<FishItem,std::allocator<FishItem> >::erase
_TEXT	ENDS
PUBLIC	?reserve@?$vector@UFishItem@@V?$allocator@UFishItem@@@std@@@std@@QAEXI@Z ; std::vector<FishItem,std::allocator<FishItem> >::reserve
EXTRN	__EH_prolog3_catch:PROC
;	COMDAT xdata$x
; File c:\program files (x86)\microsoft visual studio 10.0\vc\include\xmemory
xdata$x	SEGMENT
__catchsym$?reserve@?$vector@UFishItem@@V?$allocator@UFishItem@@@std@@@std@@QAEXI@Z$2 DD 040H
	DD	00H
	DD	00H
	DD	FLAT:__catch$?reserve@?$vector@UFishItem@@V?$allocator@UFishItem@@@std@@@std@@QAEXI@Z$0
__unwindtable$?reserve@?$vector@UFishItem@@V?$allocator@UFishItem@@@std@@@std@@QAEXI@Z DD 0ffffffffH
	DD	00H
	DD	0ffffffffH
	DD	00H
__tryblocktable$?reserve@?$vector@UFishItem@@V?$allocator@UFishItem@@@std@@@std@@QAEXI@Z DD 00H
	DD	00H
	DD	01H
	DD	01H
	DD	FLAT:__catchsym$?reserve@?$vector@UFishItem@@V?$allocator@UFishItem@@@std@@@std@@QAEXI@Z$2
__ehfuncinfo$?reserve@?$vector@UFishItem@@V?$allocator@UFishItem@@@std@@@std@@QAEXI@Z DD 019930522H
	DD	02H
	DD	FLAT:__unwindtable$?reserve@?$vector@UFishItem@@V?$allocator@UFishItem@@@std@@@std@@QAEXI@Z
	DD	01H
	DD	FLAT:__tryblocktable$?reserve@?$vector@UFishItem@@V?$allocator@UFishItem@@@std@@@std@@QAEXI@Z
	DD	2 DUP(00H)
	DD	00H
	DD	01H
; Function compile flags: /Ogsp
; File c:\program files (x86)\microsoft visual studio 10.0\vc\include\vector
xdata$x	ENDS
;	COMDAT ?reserve@?$vector@UFishItem@@V?$allocator@UFishItem@@@std@@@std@@QAEXI@Z
_TEXT	SEGMENT
__Ptr$524145 = -20					; size = 4
__$EHRec$ = -16						; size = 16
__Count$ = 8						; size = 4
?reserve@?$vector@UFishItem@@V?$allocator@UFishItem@@@std@@@std@@QAEXI@Z PROC ; std::vector<FishItem,std::allocator<FishItem> >::reserve, COMDAT
; _this$ = ecx

; 746  : 		{	// determine new minimum length of allocated storage

  00000	6a 08		 push	 8
  00002	b8 00 00 00 00	 mov	 eax, __ehhandler$?reserve@?$vector@UFishItem@@V?$allocator@UFishItem@@@std@@@std@@QAEXI@Z
  00007	e8 00 00 00 00	 call	 __EH_prolog3_catch
  0000c	8b f1		 mov	 esi, ecx

; 747  : 		if (max_size() < _Count)

  0000e	81 7d 08 ff ff
	ff 1f		 cmp	 DWORD PTR __Count$[ebp], 536870911 ; 1fffffffH
  00015	76 0b		 jbe	 SHORT $LN5@reserve

; 748  : 			_Xlen();	// result too long

  00017	68 00 00 00 00	 push	 OFFSET ??_C@_0BD@OLBABOEK@vector?$DMT?$DO?5too?5long?$AA@
  0001c	ff 15 00 00 00
	00		 call	 DWORD PTR __imp_?_Xlength_error@std@@YAXPBD@Z
$LN56@reserve:
$LN5@reserve:

; 749  : 		else if (capacity() < _Count)

  00022	8b 46 08	 mov	 eax, DWORD PTR [esi+8]
  00025	2b 06		 sub	 eax, DWORD PTR [esi]
  00027	c1 f8 03	 sar	 eax, 3
  0002a	3b 45 08	 cmp	 eax, DWORD PTR __Count$[ebp]
  0002d	73 65		 jae	 SHORT $LN3@reserve

; 750  : 			{	// not enough room, reallocate
; 751  : 			pointer _Ptr = this->_Alval.allocate(_Count);

  0002f	6a 00		 push	 0
  00031	ff 75 08	 push	 DWORD PTR __Count$[ebp]
  00034	e8 00 00 00 00	 call	 ??$_Allocate@UFishItem@@@std@@YAPAUFishItem@@IPAU1@@Z ; std::_Allocate<FishItem>

; 752  : 
; 753  : 			_TRY_BEGIN
; 754  : 			_Umove(this->_Myfirst, this->_Mylast, _Ptr);

  00039	8b 0e		 mov	 ecx, DWORD PTR [esi]
  0003b	83 65 fc 00	 and	 DWORD PTR __$EHRec$[ebp+12], 0
  0003f	8b d8		 mov	 ebx, eax
  00041	8b 46 04	 mov	 eax, DWORD PTR [esi+4]
  00044	8d 56 0c	 lea	 edx, DWORD PTR [esi+12]
  00047	52		 push	 edx
  00048	53		 push	 ebx
  00049	50		 push	 eax
  0004a	51		 push	 ecx
  0004b	89 5d ec	 mov	 DWORD PTR __Ptr$524145[ebp], ebx
  0004e	e8 00 00 00 00	 call	 ??$_Uninitialized_move@PAUFishItem@@PAU1@V?$allocator@UFishItem@@@std@@@std@@YAPAUFishItem@@PAU1@00AAV?$allocator@UFishItem@@@0@@Z ; std::_Uninitialized_move<FishItem *,FishItem *,std::allocator<FishItem> >

; 758  : 			_CATCH_END
; 759  : 
; 760  : 			size_type _Size = size();

  00053	8b 4e 04	 mov	 ecx, DWORD PTR [esi+4]
  00056	8b 06		 mov	 eax, DWORD PTR [esi]
  00058	83 4d fc ff	 or	 DWORD PTR __$EHRec$[ebp+12], -1
  0005c	8b f9		 mov	 edi, ecx
  0005e	2b f8		 sub	 edi, eax
  00060	83 c4 18	 add	 esp, 24			; 00000018H
  00063	c1 ff 03	 sar	 edi, 3
  00066	85 c0		 test	 eax, eax
  00068	74 11		 je	 SHORT $LN48@reserve

; 761  : 			if (this->_Myfirst != 0)

  0006a	eb 03		 jmp	 SHORT $LN55@reserve

; 762  : 				{	// destroy and deallocate old array
; 763  : 				_Destroy(this->_Myfirst, this->_Mylast);

$LL39@reserve:
  0006c	83 c0 08	 add	 eax, 8
$LN55@reserve:
  0006f	3b c1		 cmp	 eax, ecx
  00071	75 f9		 jne	 SHORT $LL39@reserve

; 764  : 				this->_Alval.deallocate(this->_Myfirst,
; 765  : 					this->_Myend - this->_Myfirst);

  00073	ff 36		 push	 DWORD PTR [esi]
  00075	e8 00 00 00 00	 call	 ??3@YAXPAX@Z		; operator delete
  0007a	59		 pop	 ecx
$LN48@reserve:

; 766  : 				}
; 767  : 
; 768  : 			this->_Orphan_all();

  0007b	8b ce		 mov	 ecx, esi
  0007d	ff 15 00 00 00
	00		 call	 DWORD PTR __imp_?_Orphan_all@_Container_base0@std@@QAEXXZ

; 769  : 			this->_Myend = _Ptr + _Count;

  00083	8b 45 08	 mov	 eax, DWORD PTR __Count$[ebp]
  00086	8d 04 c3	 lea	 eax, DWORD PTR [ebx+eax*8]
  00089	89 46 08	 mov	 DWORD PTR [esi+8], eax

; 770  : 			this->_Mylast = _Ptr + _Size;

  0008c	8d 04 fb	 lea	 eax, DWORD PTR [ebx+edi*8]
  0008f	89 46 04	 mov	 DWORD PTR [esi+4], eax

; 771  : 			this->_Myfirst = _Ptr;

  00092	89 1e		 mov	 DWORD PTR [esi], ebx
$LN3@reserve:

; 772  : 			}
; 773  : 		}

  00094	e8 00 00 00 00	 call	 __EH_epilog3
  00099	c2 04 00	 ret	 4
__catch$?reserve@?$vector@UFishItem@@V?$allocator@UFishItem@@@std@@@std@@QAEXI@Z$0:

; 755  : 			_CATCH_ALL
; 756  : 			this->_Alval.deallocate(_Ptr, _Count);

  0009c	ff 75 ec	 push	 DWORD PTR __Ptr$524145[ebp]
  0009f	e8 00 00 00 00	 call	 ??3@YAXPAX@Z		; operator delete
  000a4	59		 pop	 ecx

; 757  : 			_RERAISE;

  000a5	6a 00		 push	 0
  000a7	6a 00		 push	 0
  000a9	e8 00 00 00 00	 call	 __CxxThrowException@8
$LN57@reserve:
$LN54@reserve:
  000ae	cc		 int	 3
_TEXT	ENDS
;	COMDAT text$x
text$x	SEGMENT
__ehhandler$?reserve@?$vector@UFishItem@@V?$allocator@UFishItem@@@std@@@std@@QAEXI@Z:
  00000	8b 54 24 08	 mov	 edx, DWORD PTR [esp+8]
  00004	8d 42 0c	 lea	 eax, DWORD PTR [edx+12]
  00007	8b 4a e8	 mov	 ecx, DWORD PTR [edx-24]
  0000a	33 c8		 xor	 ecx, eax
  0000c	e8 00 00 00 00	 call	 @__security_check_cookie@4
  00011	b8 00 00 00 00	 mov	 eax, OFFSET __ehfuncinfo$?reserve@?$vector@UFishItem@@V?$allocator@UFishItem@@@std@@@std@@QAEXI@Z
  00016	e9 00 00 00 00	 jmp	 ___CxxFrameHandler3
text$x	ENDS
?reserve@?$vector@UFishItem@@V?$allocator@UFishItem@@@std@@@std@@QAEXI@Z ENDP ; std::vector<FishItem,std::allocator<FishItem> >::reserve
PUBLIC	??$sort_heap@PAUFishItem@@VFishItemSort@@@std@@YAXPAUFishItem@@0VFishItemSort@@@Z ; std::sort_heap<FishItem *,FishItemSort>
; Function compile flags: /Ogsp
; File c:\program files (x86)\microsoft visual studio 10.0\vc\include\algorithm
;	COMDAT ??$sort_heap@PAUFishItem@@VFishItemSort@@@std@@YAXPAUFishItem@@0VFishItemSort@@@Z
_TEXT	SEGMENT
__First$ = 8						; size = 4
__Last$ = 12						; size = 4
__Pred$ = 16						; size = 1
??$sort_heap@PAUFishItem@@VFishItemSort@@@std@@YAXPAUFishItem@@0VFishItemSort@@@Z PROC ; std::sort_heap<FishItem *,FishItemSort>, COMDAT

; 2708 : 	{	// order heap by repeatedly popping, using _Pred

  00000	55		 push	 ebp
  00001	8b ec		 mov	 ebp, esp

; 2709 : 	_DEBUG_RANGE(_First, _Last);
; 2710 : 	_DEBUG_POINTER(_Pred);
; 2711 : 	_DEBUG_HEAP_PRED(_First, _Last, _Pred);
; 2712 : 	_Sort_heap(_Unchecked(_First), _Unchecked(_Last), _Pred);

  00003	ff 75 10	 push	 DWORD PTR __Pred$[ebp]
  00006	ff 75 0c	 push	 DWORD PTR __Last$[ebp]
  00009	ff 75 08	 push	 DWORD PTR __First$[ebp]
  0000c	e8 00 00 00 00	 call	 ??$_Sort_heap@PAUFishItem@@VFishItemSort@@@std@@YAXPAUFishItem@@0VFishItemSort@@@Z ; std::_Sort_heap<FishItem *,FishItemSort>
  00011	83 c4 0c	 add	 esp, 12			; 0000000cH

; 2713 : 	}

  00014	5d		 pop	 ebp
  00015	c3		 ret	 0
??$sort_heap@PAUFishItem@@VFishItemSort@@@std@@YAXPAUFishItem@@0VFishItemSort@@@Z ENDP ; std::sort_heap<FishItem *,FishItemSort>
_TEXT	ENDS
PUBLIC	??_7ioUserFishItem@@6B@				; ioUserFishItem::`vftable'
PUBLIC	??1ioUserFishItem@@UAE@XZ			; ioUserFishItem::~ioUserFishItem
PUBLIC	??_R4ioUserFishItem@@6B@			; ioUserFishItem::`RTTI Complete Object Locator'
PUBLIC	??_R0?AVioUserFishItem@@@8			; ioUserFishItem `RTTI Type Descriptor'
PUBLIC	??_R3ioUserFishItem@@8				; ioUserFishItem::`RTTI Class Hierarchy Descriptor'
PUBLIC	??_R2ioUserFishItem@@8				; ioUserFishItem::`RTTI Base Class Array'
PUBLIC	??_R1A@?0A@EA@ioUserFishItem@@8			; ioUserFishItem::`RTTI Base Class Descriptor at (0,-1,0,64)'
EXTRN	??_EioUserFishItem@@UAEPAXI@Z:PROC		; ioUserFishItem::`vector deleting destructor'
;	COMDAT ??_R1A@?0A@EA@ioUserFishItem@@8
; File d:\lost saga for developer\youtube\tutorial\source\src\lsclient\encryptvalue.h
rdata$r	SEGMENT
??_R1A@?0A@EA@ioUserFishItem@@8 DD FLAT:??_R0?AVioUserFishItem@@@8 ; ioUserFishItem::`RTTI Base Class Descriptor at (0,-1,0,64)'
	DD	00H
	DD	00H
	DD	0ffffffffH
	DD	00H
	DD	040H
	DD	FLAT:??_R3ioUserFishItem@@8
rdata$r	ENDS
;	COMDAT ??_R2ioUserFishItem@@8
rdata$r	SEGMENT
??_R2ioUserFishItem@@8 DD FLAT:??_R1A@?0A@EA@ioUserFishItem@@8 ; ioUserFishItem::`RTTI Base Class Array'
rdata$r	ENDS
;	COMDAT ??_R3ioUserFishItem@@8
rdata$r	SEGMENT
??_R3ioUserFishItem@@8 DD 00H				; ioUserFishItem::`RTTI Class Hierarchy Descriptor'
	DD	00H
	DD	01H
	DD	FLAT:??_R2ioUserFishItem@@8
rdata$r	ENDS
;	COMDAT ??_R0?AVioUserFishItem@@@8
_DATA	SEGMENT
??_R0?AVioUserFishItem@@@8 DD FLAT:??_7type_info@@6B@	; ioUserFishItem `RTTI Type Descriptor'
	DD	00H
	DB	'.?AVioUserFishItem@@', 00H
_DATA	ENDS
;	COMDAT ??_R4ioUserFishItem@@6B@
rdata$r	SEGMENT
??_R4ioUserFishItem@@6B@ DD 00H				; ioUserFishItem::`RTTI Complete Object Locator'
	DD	00H
	DD	00H
	DD	FLAT:??_R0?AVioUserFishItem@@@8
	DD	FLAT:??_R3ioUserFishItem@@8
rdata$r	ENDS
;	COMDAT ??_7ioUserFishItem@@6B@
CONST	SEGMENT
??_7ioUserFishItem@@6B@ DD FLAT:??_R4ioUserFishItem@@6B@ ; ioUserFishItem::`vftable'
	DD	FLAT:??_EioUserFishItem@@UAEPAXI@Z
CONST	ENDS
;	COMDAT xdata$x
xdata$x	SEGMENT
__unwindtable$??1ioUserFishItem@@UAE@XZ DD 0ffffffffH
	DD	FLAT:__unwindfunclet$??1ioUserFishItem@@UAE@XZ$0
__ehfuncinfo$??1ioUserFishItem@@UAE@XZ DD 019930522H
	DD	01H
	DD	FLAT:__unwindtable$??1ioUserFishItem@@UAE@XZ
	DD	2 DUP(00H)
	DD	2 DUP(00H)
	DD	00H
	DD	01H
; Function compile flags: /Ogsp
; File d:\lost saga for developer\youtube\tutorial\source\src\lsclient\iouserfishitem.cpp
xdata$x	ENDS
;	COMDAT ??1ioUserFishItem@@UAE@XZ
_TEXT	SEGMENT
_this$ = -16						; size = 4
__$EHRec$ = -12						; size = 12
??1ioUserFishItem@@UAE@XZ PROC				; ioUserFishItem::~ioUserFishItem, COMDAT
; _this$ = ecx

; 14   : {

  00000	6a 04		 push	 4
  00002	b8 00 00 00 00	 mov	 eax, __ehhandler$??1ioUserFishItem@@UAE@XZ
  00007	e8 00 00 00 00	 call	 __EH_prolog3
  0000c	8b f1		 mov	 esi, ecx
  0000e	89 75 f0	 mov	 DWORD PTR _this$[ebp], esi
  00011	c7 06 00 00 00
	00		 mov	 DWORD PTR [esi], OFFSET ??_7ioUserFishItem@@6B@
  00017	83 65 fc 00	 and	 DWORD PTR __$EHRec$[ebp+8], 0

; 15   : }

  0001b	8d 4e 34	 lea	 ecx, DWORD PTR [esi+52]
  0001e	e8 00 00 00 00	 call	 ?_Tidy@?$vector@UFishItem@@V?$allocator@UFishItem@@@std@@@std@@IAEXXZ ; std::vector<FishItem,std::allocator<FishItem> >::_Tidy
  00023	83 4d fc ff	 or	 DWORD PTR __$EHRec$[ebp+8], -1
  00027	8d 4e 10	 lea	 ecx, DWORD PTR [esi+16]
  0002a	c7 46 04 00 00
	00 00		 mov	 DWORD PTR [esi+4], OFFSET ??_7?$CEncrypt@H@@6B@
  00031	e8 00 00 00 00	 call	 ??1ccddaabb@@UAE@XZ	; ccddaabb::~ccddaabb
  00036	e8 00 00 00 00	 call	 __EH_epilog3
  0003b	c3		 ret	 0
_TEXT	ENDS
;	COMDAT text$x
text$x	SEGMENT
__unwindfunclet$??1ioUserFishItem@@UAE@XZ$0:
  00000	8b 4d f0	 mov	 ecx, DWORD PTR _this$[ebp]
  00003	83 c1 04	 add	 ecx, 4
  00006	e9 00 00 00 00	 jmp	 ??1?$CEncrypt@H@@UAE@XZ	; CEncrypt<int>::~CEncrypt<int>
__ehhandler$??1ioUserFishItem@@UAE@XZ:
  0000b	8b 54 24 08	 mov	 edx, DWORD PTR [esp+8]
  0000f	8d 42 0c	 lea	 eax, DWORD PTR [edx+12]
  00012	8b 4a ec	 mov	 ecx, DWORD PTR [edx-20]
  00015	33 c8		 xor	 ecx, eax
  00017	e8 00 00 00 00	 call	 @__security_check_cookie@4
  0001c	b8 00 00 00 00	 mov	 eax, OFFSET __ehfuncinfo$??1ioUserFishItem@@UAE@XZ
  00021	e9 00 00 00 00	 jmp	 ___CxxFrameHandler3
text$x	ENDS
??1ioUserFishItem@@UAE@XZ ENDP				; ioUserFishItem::~ioUserFishItem
PUBLIC	?DeleteFishItemData@ioUserFishItem@@QAEXH@Z	; ioUserFishItem::DeleteFishItemData
; Function compile flags: /Ogsp
;	COMDAT ?DeleteFishItemData@ioUserFishItem@@QAEXH@Z
_TEXT	SEGMENT
$T527426 = 8						; size = 4
_iIndexArray$ = 8					; size = 4
?DeleteFishItemData@ioUserFishItem@@QAEXH@Z PROC	; ioUserFishItem::DeleteFishItemData, COMDAT
; _this$ = ecx

; 52   : {

  00000	55		 push	 ebp
  00001	8b ec		 mov	 ebp, esp

; 53   : 	int iSize = m_vFishItemList.size();

  00003	8b 41 38	 mov	 eax, DWORD PTR [ecx+56]
  00006	83 c1 34	 add	 ecx, 52			; 00000034H
  00009	2b 01		 sub	 eax, DWORD PTR [ecx]
  0000b	56		 push	 esi
  0000c	c1 f8 03	 sar	 eax, 3

; 54   : 
; 55   : 	for( int i=0; i < iSize; ++i )

  0000f	33 f6		 xor	 esi, esi
  00011	85 c0		 test	 eax, eax
  00013	7e 27		 jle	 SHORT $LN2@DeleteFish

; 53   : 	int iSize = m_vFishItemList.size();

  00015	8b 11		 mov	 edx, DWORD PTR [ecx]
  00017	57		 push	 edi
  00018	8d 7a 04	 lea	 edi, DWORD PTR [edx+4]
  0001b	53		 push	 ebx
$LL4@DeleteFish:

; 56   : 	{
; 57   : 		if( m_vFishItemList[i].m_iArray == iIndexArray )

  0001c	8b 1f		 mov	 ebx, DWORD PTR [edi]
  0001e	3b 5d 08	 cmp	 ebx, DWORD PTR _iIndexArray$[ebp]
  00021	74 0a		 je	 SHORT $LN26@DeleteFish

; 54   : 
; 55   : 	for( int i=0; i < iSize; ++i )

  00023	46		 inc	 esi
  00024	83 c7 08	 add	 edi, 8
  00027	3b f0		 cmp	 esi, eax
  00029	7c f1		 jl	 SHORT $LL4@DeleteFish

; 56   : 	{
; 57   : 		if( m_vFishItemList[i].m_iArray == iIndexArray )

  0002b	eb 0d		 jmp	 SHORT $LN29@DeleteFish
$LN26@DeleteFish:

; 58   : 		{
; 59   : 			m_vFishItemList.erase( m_vFishItemList.begin() + i );

  0002d	8d 04 f2	 lea	 eax, DWORD PTR [edx+esi*8]
  00030	50		 push	 eax
  00031	8d 45 08	 lea	 eax, DWORD PTR $T527426[ebp]
  00034	50		 push	 eax
  00035	e8 00 00 00 00	 call	 ?erase@?$vector@UFishItem@@V?$allocator@UFishItem@@@std@@@std@@QAE?AV?$_Vector_iterator@V?$_Vector_val@UFishItem@@V?$allocator@UFishItem@@@std@@@std@@@2@V?$_Vector_const_iterator@V?$_Vector_val@UFishItem@@V?$allocator@UFishItem@@@std@@@std@@@2@@Z ; std::vector<FishItem,std::allocator<FishItem> >::erase
$LN29@DeleteFish:
  0003a	5b		 pop	 ebx
  0003b	5f		 pop	 edi
$LN2@DeleteFish:
  0003c	5e		 pop	 esi

; 60   : 			return;
; 61   : 		}
; 62   : 	}
; 63   : }

  0003d	5d		 pop	 ebp
  0003e	c2 04 00	 ret	 4
?DeleteFishItemData@ioUserFishItem@@QAEXH@Z ENDP	; ioUserFishItem::DeleteFishItemData
_TEXT	ENDS
PUBLIC	?clear@?$vector@UFishItem@@V?$allocator@UFishItem@@@std@@@std@@QAEXXZ ; std::vector<FishItem,std::allocator<FishItem> >::clear
; Function compile flags: /Ogsp
; File c:\program files (x86)\microsoft visual studio 10.0\vc\include\vector
;	COMDAT ?clear@?$vector@UFishItem@@V?$allocator@UFishItem@@@std@@@std@@QAEXXZ
_TEXT	SEGMENT
$T527486 = -4						; size = 4
?clear@?$vector@UFishItem@@V?$allocator@UFishItem@@@std@@@std@@QAEXXZ PROC ; std::vector<FishItem,std::allocator<FishItem> >::clear, COMDAT
; _this$ = ecx

; 1217 : 		{	// erase all

  00000	55		 push	 ebp
  00001	8b ec		 mov	 ebp, esp
  00003	51		 push	 ecx

; 1218 : 		erase(begin(), end());

  00004	8b 41 04	 mov	 eax, DWORD PTR [ecx+4]
  00007	8b 11		 mov	 edx, DWORD PTR [ecx]
  00009	50		 push	 eax
  0000a	52		 push	 edx
  0000b	8d 45 fc	 lea	 eax, DWORD PTR $T527486[ebp]
  0000e	50		 push	 eax
  0000f	e8 00 00 00 00	 call	 ?erase@?$vector@UFishItem@@V?$allocator@UFishItem@@@std@@@std@@QAE?AV?$_Vector_iterator@V?$_Vector_val@UFishItem@@V?$allocator@UFishItem@@@std@@@std@@@2@V?$_Vector_const_iterator@V?$_Vector_val@UFishItem@@V?$allocator@UFishItem@@@std@@@std@@@2@0@Z ; std::vector<FishItem,std::allocator<FishItem> >::erase

; 1219 : 		}

  00014	c9		 leave
  00015	c3		 ret	 0
?clear@?$vector@UFishItem@@V?$allocator@UFishItem@@@std@@@std@@QAEXXZ ENDP ; std::vector<FishItem,std::allocator<FishItem> >::clear
_TEXT	ENDS
PUBLIC	?_Reserve@?$vector@UFishItem@@V?$allocator@UFishItem@@@std@@@std@@IAEXI@Z ; std::vector<FishItem,std::allocator<FishItem> >::_Reserve
; Function compile flags: /Ogsp
;	COMDAT ?_Reserve@?$vector@UFishItem@@V?$allocator@UFishItem@@@std@@@std@@IAEXI@Z
_TEXT	SEGMENT
__Count$ = 8						; size = 4
?_Reserve@?$vector@UFishItem@@V?$allocator@UFishItem@@@std@@@std@@IAEXI@Z PROC ; std::vector<FishItem,std::allocator<FishItem> >::_Reserve, COMDAT
; _this$ = ecx

; 1290 : 		{	// ensure room for _Count new elements, grow exponentially

  00000	55		 push	 ebp
  00001	8b ec		 mov	 ebp, esp
  00003	56		 push	 esi
  00004	8b f1		 mov	 esi, ecx

; 1291 : 		size_type _Size = size();

  00006	8b 0e		 mov	 ecx, DWORD PTR [esi]
  00008	8b 46 04	 mov	 eax, DWORD PTR [esi+4]
  0000b	2b c1		 sub	 eax, ecx

; 1292 : 		if (max_size() - _Count < _Size)

  0000d	ba ff ff ff 1f	 mov	 edx, 536870911		; 1fffffffH
  00012	2b 55 08	 sub	 edx, DWORD PTR __Count$[ebp]
  00015	c1 f8 03	 sar	 eax, 3
  00018	3b d0		 cmp	 edx, eax
  0001a	73 0b		 jae	 SHORT $LN4@Reserve

; 1293 : 			_Xlen();

  0001c	68 00 00 00 00	 push	 OFFSET ??_C@_0BD@OLBABOEK@vector?$DMT?$DO?5too?5long?$AA@
  00021	ff 15 00 00 00
	00		 call	 DWORD PTR __imp_?_Xlength_error@std@@YAXPBD@Z
$LN21@Reserve:
$LN4@Reserve:

; 1294 : 		else if ((_Size += _Count) <= capacity())

  00027	8b 56 08	 mov	 edx, DWORD PTR [esi+8]
  0002a	03 45 08	 add	 eax, DWORD PTR __Count$[ebp]
  0002d	2b d1		 sub	 edx, ecx
  0002f	c1 fa 03	 sar	 edx, 3
  00032	3b c2		 cmp	 eax, edx
  00034	76 10		 jbe	 SHORT $LN1@Reserve

; 1295 : 			;
; 1296 : 		else
; 1297 : 			reserve(_Grow_to(_Size));

  00036	50		 push	 eax
  00037	8b ce		 mov	 ecx, esi
  00039	e8 00 00 00 00	 call	 ?_Grow_to@?$vector@UFishItem@@V?$allocator@UFishItem@@@std@@@std@@IBEII@Z ; std::vector<FishItem,std::allocator<FishItem> >::_Grow_to
  0003e	50		 push	 eax
  0003f	8b ce		 mov	 ecx, esi
  00041	e8 00 00 00 00	 call	 ?reserve@?$vector@UFishItem@@V?$allocator@UFishItem@@@std@@@std@@QAEXI@Z ; std::vector<FishItem,std::allocator<FishItem> >::reserve
$LN1@Reserve:
  00046	5e		 pop	 esi

; 1298 : 		}

  00047	5d		 pop	 ebp
  00048	c2 04 00	 ret	 4
$LN20@Reserve:
?_Reserve@?$vector@UFishItem@@V?$allocator@UFishItem@@@std@@@std@@IAEXI@Z ENDP ; std::vector<FishItem,std::allocator<FishItem> >::_Reserve
_TEXT	ENDS
PUBLIC	??$_Sort@PAUFishItem@@HVFishItemSort@@@std@@YAXPAUFishItem@@0HVFishItemSort@@@Z ; std::_Sort<FishItem *,int,FishItemSort>
; Function compile flags: /Ogsp
; File c:\program files (x86)\microsoft visual studio 10.0\vc\include\algorithm
;	COMDAT ??$_Sort@PAUFishItem@@HVFishItemSort@@@std@@YAXPAUFishItem@@0HVFishItemSort@@@Z
_TEXT	SEGMENT
__Mid$524674 = -8					; size = 8
__First$ = 8						; size = 4
__Last$ = 12						; size = 4
__Ideal$ = 16						; size = 4
__Pred$ = 20						; size = 1
??$_Sort@PAUFishItem@@HVFishItemSort@@@std@@YAXPAUFishItem@@0HVFishItemSort@@@Z PROC ; std::_Sort<FishItem *,int,FishItemSort>, COMDAT

; 3771 : 	{	// order [_First, _Last), using _Pred

  00000	55		 push	 ebp
  00001	8b ec		 mov	 ebp, esp
  00003	51		 push	 ecx
  00004	51		 push	 ecx
  00005	53		 push	 ebx

; 3772 : 	_Diff _Count;
; 3773 : 	for (; _ISORT_MAX < (_Count = _Last - _First) && 0 < _Ideal; )

  00006	8b 5d 08	 mov	 ebx, DWORD PTR __First$[ebp]
  00009	57		 push	 edi
  0000a	8b 7d 0c	 mov	 edi, DWORD PTR __Last$[ebp]
  0000d	8b c7		 mov	 eax, edi
  0000f	2b c3		 sub	 eax, ebx
  00011	c1 f8 03	 sar	 eax, 3
  00014	83 f8 20	 cmp	 eax, 32			; 00000020H
  00017	0f 8e 89 00 00
	00		 jle	 $LN22@Sort
  0001d	56		 push	 esi
  0001e	8b 75 10	 mov	 esi, DWORD PTR __Ideal$[ebp]
$LL7@Sort:
  00021	85 f6		 test	 esi, esi
  00023	7e 62		 jle	 SHORT $LN6@Sort

; 3774 : 		{	// divide and conquer by quicksort
; 3775 : 		_STD pair<_RanIt, _RanIt> _Mid =
; 3776 : 			_Unguarded_partition(_First, _Last, _Pred);

  00025	ff 75 14	 push	 DWORD PTR __Pred$[ebp]
  00028	8d 45 f8	 lea	 eax, DWORD PTR __Mid$524674[ebp]
  0002b	57		 push	 edi
  0002c	53		 push	 ebx
  0002d	50		 push	 eax
  0002e	e8 00 00 00 00	 call	 ??$_Unguarded_partition@PAUFishItem@@VFishItemSort@@@std@@YA?AU?$pair@PAUFishItem@@PAU1@@0@PAUFishItem@@0VFishItemSort@@@Z ; std::_Unguarded_partition<FishItem *,FishItemSort>

; 3777 : 		_Ideal /= 2, _Ideal += _Ideal / 2;	// allow 1.5 log2(N) divisions
; 3778 : 
; 3779 : 		if (_Mid.first - _First < _Last - _Mid.second)

  00033	8b 4d f8	 mov	 ecx, DWORD PTR __Mid$524674[ebp]
  00036	8b c6		 mov	 eax, esi
  00038	99		 cdq
  00039	2b c2		 sub	 eax, edx
  0003b	d1 f8		 sar	 eax, 1
  0003d	8b f0		 mov	 esi, eax
  0003f	99		 cdq
  00040	2b c2		 sub	 eax, edx
  00042	d1 f8		 sar	 eax, 1
  00044	03 f0		 add	 esi, eax
  00046	8b c7		 mov	 eax, edi
  00048	2b 45 fc	 sub	 eax, DWORD PTR __Mid$524674[ebp+4]
  0004b	83 c4 10	 add	 esp, 16			; 00000010H

; 3780 : 			{	// loop on second half
; 3781 : 			_Sort(_First, _Mid.first, _Ideal, _Pred);

  0004e	ff 75 14	 push	 DWORD PTR __Pred$[ebp]
  00051	2b cb		 sub	 ecx, ebx
  00053	83 e0 f8	 and	 eax, -8			; fffffff8H
  00056	83 e1 f8	 and	 ecx, -8			; fffffff8H
  00059	56		 push	 esi
  0005a	3b c8		 cmp	 ecx, eax
  0005c	7d 0e		 jge	 SHORT $LN5@Sort
  0005e	ff 75 f8	 push	 DWORD PTR __Mid$524674[ebp]
  00061	53		 push	 ebx
  00062	e8 00 00 00 00	 call	 ??$_Sort@PAUFishItem@@HVFishItemSort@@@std@@YAXPAUFishItem@@0HVFishItemSort@@@Z ; std::_Sort<FishItem *,int,FishItemSort>

; 3782 : 			_First = _Mid.second;

  00067	8b 5d fc	 mov	 ebx, DWORD PTR __Mid$524674[ebp+4]

; 3783 : 			}
; 3784 : 		else

  0006a	eb 0c		 jmp	 SHORT $LN23@Sort
$LN5@Sort:

; 3785 : 			{	// loop on first half
; 3786 : 			_Sort(_Mid.second, _Last, _Ideal, _Pred);

  0006c	57		 push	 edi
  0006d	ff 75 fc	 push	 DWORD PTR __Mid$524674[ebp+4]
  00070	e8 00 00 00 00	 call	 ??$_Sort@PAUFishItem@@HVFishItemSort@@@std@@YAXPAUFishItem@@0HVFishItemSort@@@Z ; std::_Sort<FishItem *,int,FishItemSort>

; 3787 : 			_Last = _Mid.first;

  00075	8b 7d f8	 mov	 edi, DWORD PTR __Mid$524674[ebp]
$LN23@Sort:

; 3772 : 	_Diff _Count;
; 3773 : 	for (; _ISORT_MAX < (_Count = _Last - _First) && 0 < _Ideal; )

  00078	8b c7		 mov	 eax, edi
  0007a	2b c3		 sub	 eax, ebx
  0007c	c1 f8 03	 sar	 eax, 3

; 3785 : 			{	// loop on first half
; 3786 : 			_Sort(_Mid.second, _Last, _Ideal, _Pred);

  0007f	83 c4 10	 add	 esp, 16			; 00000010H
  00082	83 f8 20	 cmp	 eax, 32			; 00000020H
  00085	7f 9a		 jg	 SHORT $LL7@Sort
$LN6@Sort:
  00087	5e		 pop	 esi

; 3788 : 			}
; 3789 : 		}
; 3790 : 
; 3791 : 	if (_ISORT_MAX < _Count)

  00088	83 f8 20	 cmp	 eax, 32			; 00000020H
  0008b	7e 19		 jle	 SHORT $LN22@Sort

; 3792 : 		{	// heap sort if too many divisions
; 3793 : 		_STD make_heap(_First, _Last, _Pred);

  0008d	ff 75 14	 push	 DWORD PTR __Pred$[ebp]
  00090	57		 push	 edi
  00091	53		 push	 ebx
  00092	e8 00 00 00 00	 call	 ??$make_heap@PAUFishItem@@VFishItemSort@@@std@@YAXPAUFishItem@@0VFishItemSort@@@Z ; std::make_heap<FishItem *,FishItemSort>

; 3794 : 		_STD sort_heap(_First, _Last, _Pred);

  00097	ff 75 14	 push	 DWORD PTR __Pred$[ebp]
  0009a	57		 push	 edi
  0009b	53		 push	 ebx
  0009c	e8 00 00 00 00	 call	 ??$_Sort_heap@PAUFishItem@@VFishItemSort@@@std@@YAXPAUFishItem@@0VFishItemSort@@@Z ; std::_Sort_heap<FishItem *,FishItemSort>
  000a1	83 c4 18	 add	 esp, 24			; 00000018H
  000a4	eb 14		 jmp	 SHORT $LN16@Sort
$LN22@Sort:

; 3795 : 		}
; 3796 : 	else if (1 < _Count)

  000a6	83 f8 01	 cmp	 eax, 1
  000a9	7e 0f		 jle	 SHORT $LN16@Sort

; 3797 : 		_Insertion_sort(_First, _Last, _Pred);	// small

  000ab	6a 00		 push	 0
  000ad	ff 75 14	 push	 DWORD PTR __Pred$[ebp]
  000b0	57		 push	 edi
  000b1	53		 push	 ebx
  000b2	e8 00 00 00 00	 call	 ??$_Insertion_sort1@PAUFishItem@@VFishItemSort@@U1@@std@@YAXPAUFishItem@@0VFishItemSort@@0@Z ; std::_Insertion_sort1<FishItem *,FishItemSort,FishItem>
  000b7	83 c4 10	 add	 esp, 16			; 00000010H
$LN16@Sort:
  000ba	5f		 pop	 edi
  000bb	5b		 pop	 ebx

; 3798 : 	}

  000bc	c9		 leave
  000bd	c3		 ret	 0
??$_Sort@PAUFishItem@@HVFishItemSort@@@std@@YAXPAUFishItem@@0HVFishItemSort@@@Z ENDP ; std::_Sort<FishItem *,int,FishItemSort>
; Function compile flags: /Ogsp
_TEXT	ENDS
;	COMDAT ??_GioUserFishItem@@UAEPAXI@Z
_TEXT	SEGMENT
___flags$ = 8						; size = 4
??_GioUserFishItem@@UAEPAXI@Z PROC			; ioUserFishItem::`scalar deleting destructor', COMDAT
; _this$ = ecx
  00000	55		 push	 ebp
  00001	8b ec		 mov	 ebp, esp
  00003	56		 push	 esi
  00004	8b f1		 mov	 esi, ecx
  00006	e8 00 00 00 00	 call	 ??1ioUserFishItem@@UAE@XZ ; ioUserFishItem::~ioUserFishItem
  0000b	f6 45 08 01	 test	 BYTE PTR ___flags$[ebp], 1
  0000f	74 07		 je	 SHORT $LN1@scalar@3
  00011	56		 push	 esi
  00012	e8 00 00 00 00	 call	 ??3@YAXPAX@Z		; operator delete
  00017	59		 pop	 ecx
$LN1@scalar@3:
  00018	8b c6		 mov	 eax, esi
  0001a	5e		 pop	 esi
  0001b	5d		 pop	 ebp
  0001c	c2 04 00	 ret	 4
??_GioUserFishItem@@UAEPAXI@Z ENDP			; ioUserFishItem::`scalar deleting destructor'
_TEXT	ENDS
PUBLIC	?Initialize@ioUserFishItem@@QAEXXZ		; ioUserFishItem::Initialize
; Function compile flags: /Ogsp
; File d:\lost saga for developer\youtube\tutorial\source\src\lsclient\iouserfishitem.cpp
;	COMDAT ?Initialize@ioUserFishItem@@QAEXXZ
_TEXT	SEGMENT
$T527659 = -4						; size = 4
?Initialize@ioUserFishItem@@QAEXXZ PROC			; ioUserFishItem::Initialize, COMDAT
; _this$ = ecx

; 18   : {

  00000	55		 push	 ebp
  00001	8b ec		 mov	 ebp, esp
  00003	51		 push	 ecx

; 19   : 	m_vFishItemList.clear();

  00004	8b 41 38	 mov	 eax, DWORD PTR [ecx+56]
  00007	83 c1 34	 add	 ecx, 52			; 00000034H
  0000a	8b 11		 mov	 edx, DWORD PTR [ecx]
  0000c	50		 push	 eax
  0000d	52		 push	 edx
  0000e	8d 45 fc	 lea	 eax, DWORD PTR $T527659[ebp]
  00011	50		 push	 eax
  00012	e8 00 00 00 00	 call	 ?erase@?$vector@UFishItem@@V?$allocator@UFishItem@@@std@@@std@@QAE?AV?$_Vector_iterator@V?$_Vector_val@UFishItem@@V?$allocator@UFishItem@@@std@@@std@@@2@V?$_Vector_const_iterator@V?$_Vector_val@UFishItem@@V?$allocator@UFishItem@@@std@@@std@@@2@0@Z ; std::vector<FishItem,std::allocator<FishItem> >::erase

; 20   : }

  00017	c9		 leave
  00018	c3		 ret	 0
?Initialize@ioUserFishItem@@QAEXXZ ENDP			; ioUserFishItem::Initialize
_TEXT	ENDS
PUBLIC	?push_back@?$vector@UFishItem@@V?$allocator@UFishItem@@@std@@@std@@QAEXABUFishItem@@@Z ; std::vector<FishItem,std::allocator<FishItem> >::push_back
; Function compile flags: /Ogsp
; File c:\program files (x86)\microsoft visual studio 10.0\vc\include\vector
;	COMDAT ?push_back@?$vector@UFishItem@@V?$allocator@UFishItem@@@std@@@std@@QAEXABUFishItem@@@Z
_TEXT	SEGMENT
__Val$ = 8						; size = 4
?push_back@?$vector@UFishItem@@V?$allocator@UFishItem@@@std@@@std@@QAEXABUFishItem@@@Z PROC ; std::vector<FishItem,std::allocator<FishItem> >::push_back, COMDAT
; _this$ = ecx

; 976  : 		{	// insert element at end

  00000	55		 push	 ebp
  00001	8b ec		 mov	 ebp, esp
  00003	56		 push	 esi
  00004	8b f1		 mov	 esi, ecx

; 977  : 		if (_Inside(_STD addressof(_Val)))

  00006	8b 46 04	 mov	 eax, DWORD PTR [esi+4]
  00009	57		 push	 edi
  0000a	8b 7d 08	 mov	 edi, DWORD PTR __Val$[ebp]
  0000d	3b f8		 cmp	 edi, eax
  0000f	73 2d		 jae	 SHORT $LN4@push_back
  00011	8b 0e		 mov	 ecx, DWORD PTR [esi]
  00013	3b cf		 cmp	 ecx, edi
  00015	77 27		 ja	 SHORT $LN4@push_back

; 978  : 			{	// push back an element
; 979  : 			size_type _Idx = _STD addressof(_Val) - this->_Myfirst;

  00017	2b f9		 sub	 edi, ecx
  00019	c1 ff 03	 sar	 edi, 3

; 980  : 			if (this->_Mylast == this->_Myend)

  0001c	3b 46 08	 cmp	 eax, DWORD PTR [esi+8]
  0001f	75 09		 jne	 SHORT $LN3@push_back

; 981  : 				_Reserve(1);

  00021	6a 01		 push	 1
  00023	8b ce		 mov	 ecx, esi
  00025	e8 00 00 00 00	 call	 ?_Reserve@?$vector@UFishItem@@V?$allocator@UFishItem@@@std@@@std@@IAEXI@Z ; std::vector<FishItem,std::allocator<FishItem> >::_Reserve
$LN3@push_back:

; 982  : 			_Orphan_range(this->_Mylast, this->_Mylast);
; 983  : 			_Cons_val(this->_Alval,
; 984  : 				this->_Mylast,
; 985  : 				this->_Myfirst[_Idx]);

  0002a	8b 06		 mov	 eax, DWORD PTR [esi]
  0002c	8d 04 f8	 lea	 eax, DWORD PTR [eax+edi*8]
  0002f	50		 push	 eax
  00030	ff 76 04	 push	 DWORD PTR [esi+4]
  00033	8d 46 0c	 lea	 eax, DWORD PTR [esi+12]
  00036	50		 push	 eax
  00037	e8 00 00 00 00	 call	 ??$_Cons_val@V?$allocator@UFishItem@@@std@@UFishItem@@AAU3@@std@@YAXAAV?$allocator@UFishItem@@@0@PAUFishItem@@AAU2@@Z ; std::_Cons_val<std::allocator<FishItem>,FishItem,FishItem &>

; 986  : 			++this->_Mylast;
; 987  : 			}
; 988  : 		else

  0003c	eb 1b		 jmp	 SHORT $LN20@push_back
$LN4@push_back:

; 989  : 			{	// push back a non-element
; 990  : 			if (this->_Mylast == this->_Myend)

  0003e	3b 46 08	 cmp	 eax, DWORD PTR [esi+8]
  00041	75 09		 jne	 SHORT $LN1@push_back

; 991  : 				_Reserve(1);

  00043	6a 01		 push	 1
  00045	8b ce		 mov	 ecx, esi
  00047	e8 00 00 00 00	 call	 ?_Reserve@?$vector@UFishItem@@V?$allocator@UFishItem@@@std@@@std@@IAEXI@Z ; std::vector<FishItem,std::allocator<FishItem> >::_Reserve
$LN1@push_back:

; 992  : 			_Orphan_range(this->_Mylast, this->_Mylast);
; 993  : 			_Cons_val(this->_Alval,
; 994  : 				this->_Mylast,
; 995  : 				_Val);

  0004c	57		 push	 edi
  0004d	ff 76 04	 push	 DWORD PTR [esi+4]
  00050	8d 46 0c	 lea	 eax, DWORD PTR [esi+12]
  00053	50		 push	 eax
  00054	e8 00 00 00 00	 call	 ??$_Cons_val@V?$allocator@UFishItem@@@std@@UFishItem@@ABU3@@std@@YAXAAV?$allocator@UFishItem@@@0@PAUFishItem@@ABU2@@Z ; std::_Cons_val<std::allocator<FishItem>,FishItem,FishItem const &>
$LN20@push_back:
  00059	83 c4 0c	 add	 esp, 12			; 0000000cH

; 996  : 			++this->_Mylast;

  0005c	83 46 04 08	 add	 DWORD PTR [esi+4], 8
  00060	5f		 pop	 edi
  00061	5e		 pop	 esi

; 997  : 			}
; 998  : 		}

  00062	5d		 pop	 ebp
  00063	c2 04 00	 ret	 4
?push_back@?$vector@UFishItem@@V?$allocator@UFishItem@@@std@@@std@@QAEXABUFishItem@@@Z ENDP ; std::vector<FishItem,std::allocator<FishItem> >::push_back
_TEXT	ENDS
PUBLIC	??$sort@V?$_Vector_iterator@V?$_Vector_val@UFishItem@@V?$allocator@UFishItem@@@std@@@std@@@std@@VFishItemSort@@@std@@YAXV?$_Vector_iterator@V?$_Vector_val@UFishItem@@V?$allocator@UFishItem@@@std@@@std@@@0@0VFishItemSort@@@Z ; std::sort<std::_Vector_iterator<std::_Vector_val<FishItem,std::allocator<FishItem> > >,FishItemSort>
; Function compile flags: /Ogsp
; File c:\program files (x86)\microsoft visual studio 10.0\vc\include\algorithm
;	COMDAT ??$sort@V?$_Vector_iterator@V?$_Vector_val@UFishItem@@V?$allocator@UFishItem@@@std@@@std@@@std@@VFishItemSort@@@std@@YAXV?$_Vector_iterator@V?$_Vector_val@UFishItem@@V?$allocator@UFishItem@@@std@@@std@@@0@0VFishItemSort@@@Z
_TEXT	SEGMENT
__First$ = 8						; size = 4
__Last$ = 12						; size = 4
__Pred$ = 16						; size = 1
??$sort@V?$_Vector_iterator@V?$_Vector_val@UFishItem@@V?$allocator@UFishItem@@@std@@@std@@@std@@VFishItemSort@@@std@@YAXV?$_Vector_iterator@V?$_Vector_val@UFishItem@@V?$allocator@UFishItem@@@std@@@std@@@0@0VFishItemSort@@@Z PROC ; std::sort<std::_Vector_iterator<std::_Vector_val<FishItem,std::allocator<FishItem> > >,FishItemSort>, COMDAT

; 3803 : 	{	// order [_First, _Last), using _Pred

  00000	55		 push	 ebp
  00001	8b ec		 mov	 ebp, esp

; 3804 : 	_DEBUG_RANGE(_First, _Last);
; 3805 : 	_DEBUG_POINTER(_Pred);
; 3806 : 	_Sort(_Unchecked(_First), _Unchecked(_Last), _Last - _First, _Pred);

  00003	8b 45 0c	 mov	 eax, DWORD PTR __Last$[ebp]
  00006	ff 75 10	 push	 DWORD PTR __Pred$[ebp]
  00009	2b 45 08	 sub	 eax, DWORD PTR __First$[ebp]
  0000c	c1 f8 03	 sar	 eax, 3
  0000f	50		 push	 eax
  00010	ff 75 0c	 push	 DWORD PTR __Last$[ebp]
  00013	ff 75 08	 push	 DWORD PTR __First$[ebp]
  00016	e8 00 00 00 00	 call	 ??$_Sort@PAUFishItem@@HVFishItemSort@@@std@@YAXPAUFishItem@@0HVFishItemSort@@@Z ; std::_Sort<FishItem *,int,FishItemSort>
  0001b	83 c4 10	 add	 esp, 16			; 00000010H

; 3807 : 	}

  0001e	5d		 pop	 ebp
  0001f	c3		 ret	 0
??$sort@V?$_Vector_iterator@V?$_Vector_val@UFishItem@@V?$allocator@UFishItem@@@std@@@std@@@std@@VFishItemSort@@@std@@YAXV?$_Vector_iterator@V?$_Vector_val@UFishItem@@V?$allocator@UFishItem@@@std@@@std@@@0@0VFishItemSort@@@Z ENDP ; std::sort<std::_Vector_iterator<std::_Vector_val<FishItem,std::allocator<FishItem> > >,FishItemSort>
_TEXT	ENDS
PUBLIC	??0ioUserFishItem@@QAE@XZ			; ioUserFishItem::ioUserFishItem
; Function compile flags: /Ogsp
; File d:\lost saga for developer\youtube\tutorial\source\src\lsclient\iouserfishitem.cpp
;	COMDAT ??0ioUserFishItem@@QAE@XZ
_TEXT	SEGMENT
??0ioUserFishItem@@QAE@XZ PROC				; ioUserFishItem::ioUserFishItem, COMDAT
; _this$ = ecx

; 9    : {

  00000	56		 push	 esi
  00001	8b f1		 mov	 esi, ecx
  00003	8d 4e 04	 lea	 ecx, DWORD PTR [esi+4]
  00006	c7 06 00 00 00
	00		 mov	 DWORD PTR [esi], OFFSET ??_7ioUserFishItem@@6B@
  0000c	e8 00 00 00 00	 call	 ??0?$CEncrypt@H@@QAE@XZ	; CEncrypt<int>::CEncrypt<int>
  00011	33 c0		 xor	 eax, eax

; 10   : 	Initialize();

  00013	8b ce		 mov	 ecx, esi
  00015	89 46 34	 mov	 DWORD PTR [esi+52], eax
  00018	89 46 38	 mov	 DWORD PTR [esi+56], eax
  0001b	89 46 3c	 mov	 DWORD PTR [esi+60], eax
  0001e	e8 00 00 00 00	 call	 ?Initialize@ioUserFishItem@@QAEXXZ ; ioUserFishItem::Initialize

; 11   : }

  00023	8b c6		 mov	 eax, esi
  00025	5e		 pop	 esi
  00026	c3		 ret	 0
??0ioUserFishItem@@QAE@XZ ENDP				; ioUserFishItem::ioUserFishItem
_TEXT	ENDS
PUBLIC	?ApplyFishItemData@ioUserFishItem@@QAEXAAVSP2Packet@@@Z ; ioUserFishItem::ApplyFishItemData
EXTRN	??5SP2Packet@@QAEAAV0@AAE@Z:PROC		; SP2Packet::operator>>
EXTRN	??5SP2Packet@@QAEAAV0@AAH@Z:PROC		; SP2Packet::operator>>
; Function compile flags: /Ogsp
;	COMDAT ?ApplyFishItemData@ioUserFishItem@@QAEXAAVSP2Packet@@@Z
_TEXT	SEGMENT
_kItem$523721 = -12					; size = 8
$T527832 = -8						; size = 4
_iSize$ = -4						; size = 4
$T527768 = 8						; size = 1
_rkPacket$ = 8						; size = 4
?ApplyFishItemData@ioUserFishItem@@QAEXAAVSP2Packet@@@Z PROC ; ioUserFishItem::ApplyFishItemData, COMDAT
; _this$ = ecx

; 23   : {

  00000	55		 push	 ebp
  00001	8b ec		 mov	 ebp, esp
  00003	83 ec 0c	 sub	 esp, 12			; 0000000cH
  00006	53		 push	 ebx
  00007	56		 push	 esi
  00008	57		 push	 edi
  00009	8b f9		 mov	 edi, ecx

; 24   : 	m_vFishItemList.clear();

  0000b	8d 77 34	 lea	 esi, DWORD PTR [edi+52]
  0000e	8b 46 04	 mov	 eax, DWORD PTR [esi+4]
  00011	8b 0e		 mov	 ecx, DWORD PTR [esi]
  00013	50		 push	 eax
  00014	51		 push	 ecx
  00015	8d 45 f8	 lea	 eax, DWORD PTR $T527832[ebp]
  00018	50		 push	 eax
  00019	8b ce		 mov	 ecx, esi
  0001b	e8 00 00 00 00	 call	 ?erase@?$vector@UFishItem@@V?$allocator@UFishItem@@@std@@@std@@QAE?AV?$_Vector_iterator@V?$_Vector_val@UFishItem@@V?$allocator@UFishItem@@@std@@@std@@@2@V?$_Vector_const_iterator@V?$_Vector_val@UFishItem@@V?$allocator@UFishItem@@@std@@@std@@@2@0@Z ; std::vector<FishItem,std::allocator<FishItem> >::erase

; 25   : 
; 26   : 	int iSize;
; 27   : 	rkPacket >> iSize;

  00020	8b 4d 08	 mov	 ecx, DWORD PTR _rkPacket$[ebp]
  00023	8d 45 fc	 lea	 eax, DWORD PTR _iSize$[ebp]
  00026	50		 push	 eax
  00027	e8 00 00 00 00	 call	 ??5SP2Packet@@QAEAAV0@AAH@Z ; SP2Packet::operator>>

; 28   : 
; 29   : 	for( int i=0; i < iSize; ++i )

  0002c	33 db		 xor	 ebx, ebx
  0002e	39 5d fc	 cmp	 DWORD PTR _iSize$[ebp], ebx
  00031	7e 31		 jle	 SHORT $LN1@ApplyFishI
$LL44@ApplyFishI:

; 30   : 	{
; 31   : 		FishItem kItem;
; 32   : 
; 33   : 		rkPacket >> kItem.m_iType;

  00033	8b 4d 08	 mov	 ecx, DWORD PTR _rkPacket$[ebp]
  00036	83 65 f8 00	 and	 DWORD PTR _kItem$523721[ebp+4], 0
  0003a	8d 45 f4	 lea	 eax, DWORD PTR _kItem$523721[ebp]
  0003d	50		 push	 eax
  0003e	c6 45 f4 00	 mov	 BYTE PTR _kItem$523721[ebp], 0
  00042	e8 00 00 00 00	 call	 ??5SP2Packet@@QAEAAV0@AAE@Z ; SP2Packet::operator>>

; 34   : 		rkPacket >> kItem.m_iArray;

  00047	8b 4d 08	 mov	 ecx, DWORD PTR _rkPacket$[ebp]
  0004a	8d 45 f8	 lea	 eax, DWORD PTR _kItem$523721[ebp+4]
  0004d	50		 push	 eax
  0004e	e8 00 00 00 00	 call	 ??5SP2Packet@@QAEAAV0@AAH@Z ; SP2Packet::operator>>

; 35   : 
; 36   : 		m_vFishItemList.push_back( kItem );

  00053	8d 45 f4	 lea	 eax, DWORD PTR _kItem$523721[ebp]
  00056	50		 push	 eax
  00057	8b ce		 mov	 ecx, esi
  00059	e8 00 00 00 00	 call	 ?push_back@?$vector@UFishItem@@V?$allocator@UFishItem@@@std@@@std@@QAEXABUFishItem@@@Z ; std::vector<FishItem,std::allocator<FishItem> >::push_back
  0005e	43		 inc	 ebx
  0005f	3b 5d fc	 cmp	 ebx, DWORD PTR _iSize$[ebp]
  00062	7c cf		 jl	 SHORT $LL44@ApplyFishI
$LN1@ApplyFishI:

; 37   : 	}
; 38   : 
; 39   : 	std::sort( m_vFishItemList.begin(), m_vFishItemList.end(), FishItemSort() );

  00064	ff 75 08	 push	 DWORD PTR $T527768[ebp]
  00067	8b 7f 38	 mov	 edi, DWORD PTR [edi+56]
  0006a	8b 36		 mov	 esi, DWORD PTR [esi]
  0006c	57		 push	 edi
  0006d	56		 push	 esi
  0006e	e8 00 00 00 00	 call	 ??$sort@V?$_Vector_iterator@V?$_Vector_val@UFishItem@@V?$allocator@UFishItem@@@std@@@std@@@std@@VFishItemSort@@@std@@YAXV?$_Vector_iterator@V?$_Vector_val@UFishItem@@V?$allocator@UFishItem@@@std@@@std@@@0@0VFishItemSort@@@Z ; std::sort<std::_Vector_iterator<std::_Vector_val<FishItem,std::allocator<FishItem> > >,FishItemSort>
  00073	83 c4 0c	 add	 esp, 12			; 0000000cH
  00076	5f		 pop	 edi
  00077	5e		 pop	 esi
  00078	5b		 pop	 ebx

; 40   : }

  00079	c9		 leave
  0007a	c2 04 00	 ret	 4
?ApplyFishItemData@ioUserFishItem@@QAEXAAVSP2Packet@@@Z ENDP ; ioUserFishItem::ApplyFishItemData
_TEXT	ENDS
PUBLIC	?AddFishItemData@ioUserFishItem@@QAEXEH@Z	; ioUserFishItem::AddFishItemData
; Function compile flags: /Ogsp
;	COMDAT ?AddFishItemData@ioUserFishItem@@QAEXEH@Z
_TEXT	SEGMENT
_kItem$ = -8						; size = 8
_iType$ = 8						; size = 1
_iIndexArray$ = 12					; size = 4
?AddFishItemData@ioUserFishItem@@QAEXEH@Z PROC		; ioUserFishItem::AddFishItemData, COMDAT
; _this$ = ecx

; 43   : {

  00000	55		 push	 ebp
  00001	8b ec		 mov	 ebp, esp
  00003	51		 push	 ecx
  00004	51		 push	 ecx

; 44   : 	FishItem kItem;
; 45   : 	kItem.m_iType = iType;

  00005	8a 45 08	 mov	 al, BYTE PTR _iType$[ebp]
  00008	88 45 f8	 mov	 BYTE PTR _kItem$[ebp], al

; 46   : 	kItem.m_iArray = iIndexArray;

  0000b	8b 45 0c	 mov	 eax, DWORD PTR _iIndexArray$[ebp]
  0000e	89 45 fc	 mov	 DWORD PTR _kItem$[ebp+4], eax

; 47   : 
; 48   : 	m_vFishItemList.push_back( kItem );

  00011	8d 45 f8	 lea	 eax, DWORD PTR _kItem$[ebp]
  00014	50		 push	 eax
  00015	83 c1 34	 add	 ecx, 52			; 00000034H
  00018	e8 00 00 00 00	 call	 ?push_back@?$vector@UFishItem@@V?$allocator@UFishItem@@@std@@@std@@QAEXABUFishItem@@@Z ; std::vector<FishItem,std::allocator<FishItem> >::push_back

; 49   : }

  0001d	c9		 leave
  0001e	c2 08 00	 ret	 8
?AddFishItemData@ioUserFishItem@@QAEXEH@Z ENDP		; ioUserFishItem::AddFishItemData
_TEXT	ENDS
END
