; Listing generated by Microsoft (R) Optimizing Compiler Version 16.00.30319.01 

	TITLE	D:\Lost Saga For Developer\Youtube\Tutorial\Source\src\LSClient\ioWallZone.cpp
	.686P
	.XMM
	include listing.inc
	.model	flat

INCLUDELIB MSVCRT
INCLUDELIB OLDNAMES

PUBLIC	?_EEM_DS@?$deque@UD3DXVECTOR3@@V?$allocator@UD3DXVECTOR3@@@std@@@std@@2HB ; std::deque<D3DXVECTOR3,std::allocator<D3DXVECTOR3> >::_EEM_DS
;	COMDAT ?_EEM_DS@?$deque@UD3DXVECTOR3@@V?$allocator@UD3DXVECTOR3@@@std@@@std@@2HB
CONST	SEGMENT
?_EEM_DS@?$deque@UD3DXVECTOR3@@V?$allocator@UD3DXVECTOR3@@@std@@@std@@2HB DD 01H ; std::deque<D3DXVECTOR3,std::allocator<D3DXVECTOR3> >::_EEM_DS
CONST	ENDS
PUBLIC	??_7ioWallZone@@6B@				; ioWallZone::`vftable'
PUBLIC	??0ioWallZone@@QAE@PAVioEntityGroup@@PAVioPlayMode@@H@Z ; ioWallZone::ioWallZone
PUBLIC	??_R4ioWallZone@@6B@				; ioWallZone::`RTTI Complete Object Locator'
PUBLIC	??_R0?AVioWallZone@@@8				; ioWallZone `RTTI Type Descriptor'
PUBLIC	??_R3ioWallZone@@8				; ioWallZone::`RTTI Class Hierarchy Descriptor'
PUBLIC	??_R2ioWallZone@@8				; ioWallZone::`RTTI Base Class Array'
PUBLIC	??_R1A@?0A@EA@ioWallZone@@8			; ioWallZone::`RTTI Base Class Descriptor at (0,-1,0,64)'
PUBLIC	??_R1A@?0A@EA@ioPlayEntity@@8			; ioPlayEntity::`RTTI Base Class Descriptor at (0,-1,0,64)'
PUBLIC	??_R0?AVioPlayEntity@@@8			; ioPlayEntity `RTTI Type Descriptor'
PUBLIC	??_R3ioPlayEntity@@8				; ioPlayEntity::`RTTI Class Hierarchy Descriptor'
PUBLIC	??_R2ioPlayEntity@@8				; ioPlayEntity::`RTTI Base Class Array'
PUBLIC	??_R1A@?0A@EA@ioGameEntity@@8			; ioGameEntity::`RTTI Base Class Descriptor at (0,-1,0,64)'
PUBLIC	??_R0?AVioGameEntity@@@8			; ioGameEntity `RTTI Type Descriptor'
PUBLIC	??_R3ioGameEntity@@8				; ioGameEntity::`RTTI Class Hierarchy Descriptor'
PUBLIC	??_R2ioGameEntity@@8				; ioGameEntity::`RTTI Base Class Array'
PUBLIC	??_R1A@?0A@EA@ioEntityEvent@@8			; ioEntityEvent::`RTTI Base Class Descriptor at (0,-1,0,64)'
PUBLIC	??_R0?AVioEntityEvent@@@8			; ioEntityEvent `RTTI Type Descriptor'
PUBLIC	??_R3ioEntityEvent@@8				; ioEntityEvent::`RTTI Class Hierarchy Descriptor'
PUBLIC	??_R2ioEntityEvent@@8				; ioEntityEvent::`RTTI Base Class Array'
PUBLIC	?Update@ioWallZone@@UAEXMKK@Z			; ioWallZone::Update
PUBLIC	?UpdateAfter@ioWallZone@@UAEXM@Z		; ioWallZone::UpdateAfter
PUBLIC	?IsMountAvailable@ioWallZone@@UBE_NXZ		; ioWallZone::IsMountAvailable
PUBLIC	?IsMountingAvailable@ioWallZone@@UBE_NXZ	; ioWallZone::IsMountingAvailable
PUBLIC	?IsNowMountEnable@ioWallZone@@UBE_NXZ		; ioWallZone::IsNowMountEnable
PUBLIC	?UpdateBottomHeight@ioWallZone@@MBEXXZ		; ioWallZone::UpdateBottomHeight
PUBLIC	?NeedUpdateBottomHeight@ioGameEntity@@UAEXXZ	; ioGameEntity::NeedUpdateBottomHeight
PUBLIC	?ApplyWeapon@ioWallZone@@UAE?AW4ApplyWeaponExp@@PAVioWeapon@@@Z ; ioWallZone::ApplyWeapon
PUBLIC	?IsCollisionAvailableWeapon@ioWallZone@@UAE_NPAVioWeapon@@@Z ; ioWallZone::IsCollisionAvailableWeapon
PUBLIC	?IsEntityCollisionSkipState@ioWallZone@@UBE_NPAVioGameEntity@@@Z ; ioWallZone::IsEntityCollisionSkipState
PUBLIC	?IsWoundedCollision@ioWallZone@@UBE_NABVioOrientBox@@PAUD3DXVECTOR3@@@Z ; ioWallZone::IsWoundedCollision
PUBLIC	?GetSubType@ioWallZone@@UBE?AW4PlaySubType@ioPlayEntity@@XZ ; ioWallZone::GetSubType
PUBLIC	?GetArmorType@ioWallZone@@UBE?AW4ArmorType@@XZ	; ioWallZone::GetArmorType
PUBLIC	?DontMoveEntityLevel@ioWallZone@@UBEHXZ		; ioWallZone::DontMoveEntityLevel
PUBLIC	?LoadProperty@ioWallZone@@UAEXAAVioINILoader@@@Z ; ioWallZone::LoadProperty
PUBLIC	?SetTeam@ioPlayEntity@@UAEXW4TeamType@@@Z	; ioPlayEntity::SetTeam
EXTRN	??0ioPlayEntity@@QAE@PAVioEntityGroup@@PAVioPlayMode@@@Z:PROC ; ioPlayEntity::ioPlayEntity
EXTRN	??_7type_info@@6B@:QWORD			; type_info::`vftable'
EXTRN	?AddEntityEvent@ioEntityEvent@@UAEXPAVioEntity@@@Z:PROC ; ioEntityEvent::AddEntityEvent
EXTRN	??_EioWallZone@@UAEPAXI@Z:PROC			; ioWallZone::`vector deleting destructor'
EXTRN	?GetTypeID@ioPlayEntity@@UBEHXZ:PROC		; ioPlayEntity::GetTypeID
EXTRN	?IsNeedCheckMapCollision@ioGameEntity@@UBE_NXZ:PROC ; ioGameEntity::IsNeedCheckMapCollision
EXTRN	?IsAllWeaponDefence@ioGameEntity@@UBE_NXZ:PROC	; ioGameEntity::IsAllWeaponDefence
EXTRN	?HasEntity@ioGameEntity@@UAE_NABVioHashString@@@Z:PROC ; ioGameEntity::HasEntity
EXTRN	?AddEntity@ioGameEntity@@UAEPAVioEntity@@ABVioHashString@@@Z:PROC ; ioGameEntity::AddEntity
EXTRN	?DestroyEntity@ioGameEntity@@UAE_NABVioHashString@@@Z:PROC ; ioGameEntity::DestroyEntity
EXTRN	?GetEntity@ioGameEntity@@UAEPAVioEntity@@ABVioHashString@@@Z:PROC ; ioGameEntity::GetEntity
EXTRN	?UpdateBound@ioGameEntity@@MBEXXZ:PROC		; ioGameEntity::UpdateBound
EXTRN	?SetWorldPosition@ioGameEntity@@UAEXABUD3DXVECTOR3@@@Z:PROC ; ioGameEntity::SetWorldPosition
EXTRN	?SetWorldOrientation@ioGameEntity@@UAEXABUD3DXQUATERNION@@@Z:PROC ; ioGameEntity::SetWorldOrientation
EXTRN	?SetWorldScale@ioGameEntity@@UAEXABUD3DXVECTOR3@@@Z:PROC ; ioGameEntity::SetWorldScale
EXTRN	?Translate@ioGameEntity@@UAEXABUD3DXVECTOR3@@@Z:PROC ; ioGameEntity::Translate
EXTRN	?TranslateByConveyer@ioGameEntity@@UAEXABUD3DXVECTOR3@@@Z:PROC ; ioGameEntity::TranslateByConveyer
EXTRN	?TranslateByWorldEntity@ioGameEntity@@UAEXABUD3DXVECTOR3@@@Z:PROC ; ioGameEntity::TranslateByWorldEntity
EXTRN	?MapCollisionPushingTranslate@ioGameEntity@@UAEXABUD3DXVECTOR3@@@Z:PROC ; ioGameEntity::MapCollisionPushingTranslate
EXTRN	?DontMoveCollisionPushingTranslate@ioGameEntity@@UAEXPAV1@ABUD3DXVECTOR3@@@Z:PROC ; ioGameEntity::DontMoveCollisionPushingTranslate
EXTRN	?Rotate@ioGameEntity@@UAEXABUD3DXVECTOR3@@MW4TransformSpace@ioNode@@@Z:PROC ; ioGameEntity::Rotate
EXTRN	?Scale@ioGameEntity@@UAEXMMM@Z:PROC		; ioGameEntity::Scale
EXTRN	?Scale@ioGameEntity@@UAEXABUD3DXVECTOR3@@@Z:PROC ; ioGameEntity::Scale
EXTRN	?GetWorldPosition@ioGameEntity@@UBEABUD3DXVECTOR3@@XZ:PROC ; ioGameEntity::GetWorldPosition
EXTRN	?GetWorldOrientation@ioGameEntity@@UBEABUD3DXQUATERNION@@XZ:PROC ; ioGameEntity::GetWorldOrientation
EXTRN	?GetWorldScale@ioGameEntity@@UBEABUD3DXVECTOR3@@XZ:PROC ; ioGameEntity::GetWorldScale
EXTRN	?IsCollisionAvailableRange@ioPlayEntity@@UAE_NPAVioWeapon@@@Z:PROC ; ioPlayEntity::IsCollisionAvailableRange
EXTRN	?IsCharCollisionSkipState@ioPlayEntity@@UBE_NW4TeamType@@H@Z:PROC ; ioPlayEntity::IsCharCollisionSkipState
EXTRN	?GetAttackCollisionBox@ioPlayEntity@@UAE?AVioOrientBox@@W4AniCollisionType@@_N@Z:PROC ; ioPlayEntity::GetAttackCollisionBox
EXTRN	?CheckSphereDistance@ioPlayEntity@@UBE_NABUD3DXVECTOR3@@MAAM@Z:PROC ; ioPlayEntity::CheckSphereDistance
EXTRN	?CheckSpherePoint@ioPlayEntity@@UBE_NABUD3DXVECTOR3@@MAAU2@@Z:PROC ; ioPlayEntity::CheckSpherePoint
EXTRN	?CheckCylinderPoint@ioPlayEntity@@UBE_NABVioCylinder@@ABUD3DXVECTOR3@@AAU3@@Z:PROC ; ioPlayEntity::CheckCylinderPoint
EXTRN	?NotifyDontMoveCollisionPushingSkip@ioPlayEntity@@UAEXPAVioGameEntity@@@Z:PROC ; ioPlayEntity::NotifyDontMoveCollisionPushingSkip
EXTRN	?GetWorldEventReceiver@ioPlayEntity@@UAEPAVioWorldEventReceiver@@XZ:PROC ; ioPlayEntity::GetWorldEventReceiver
EXTRN	?Revival@ioPlayEntity@@UAEXXZ:PROC		; ioPlayEntity::Revival
EXTRN	?UpdateGauge@ioPlayEntity@@UAEXXZ:PROC		; ioPlayEntity::UpdateGauge
EXTRN	?RenderGauge@ioPlayEntity@@UAEXXZ:PROC		; ioPlayEntity::RenderGauge
EXTRN	?FillMaxHP@ioPlayEntity@@UAEXXZ:PROC		; ioPlayEntity::FillMaxHP
EXTRN	?ProcessRecovery@ioPlayEntity@@MAEXXZ:PROC	; ioPlayEntity::ProcessRecovery
EXTRN	?AddHeadDamageInfo@ioPlayEntity@@UAEXH_N@Z:PROC	; ioPlayEntity::AddHeadDamageInfo
EXTRN	?RenderHeadInfoList@ioPlayEntity@@UAEXHH@Z:PROC	; ioPlayEntity::RenderHeadInfoList
EXTRN	?UpdateHeadInfoList@ioPlayEntity@@MAEXK@Z:PROC	; ioPlayEntity::UpdateHeadInfoList
;	COMDAT ??_R2ioEntityEvent@@8
; File d:\lost saga for developer\youtube\tutorial\source\src\lsclient\iowallzone.cpp
rdata$r	SEGMENT
??_R2ioEntityEvent@@8 DD FLAT:??_R1A@?0A@EA@ioEntityEvent@@8 ; ioEntityEvent::`RTTI Base Class Array'
rdata$r	ENDS
;	COMDAT ??_R3ioEntityEvent@@8
rdata$r	SEGMENT
??_R3ioEntityEvent@@8 DD 00H				; ioEntityEvent::`RTTI Class Hierarchy Descriptor'
	DD	00H
	DD	01H
	DD	FLAT:??_R2ioEntityEvent@@8
rdata$r	ENDS
;	COMDAT ??_R0?AVioEntityEvent@@@8
_DATA	SEGMENT
??_R0?AVioEntityEvent@@@8 DD FLAT:??_7type_info@@6B@	; ioEntityEvent `RTTI Type Descriptor'
	DD	00H
	DB	'.?AVioEntityEvent@@', 00H
_DATA	ENDS
;	COMDAT ??_R1A@?0A@EA@ioEntityEvent@@8
rdata$r	SEGMENT
??_R1A@?0A@EA@ioEntityEvent@@8 DD FLAT:??_R0?AVioEntityEvent@@@8 ; ioEntityEvent::`RTTI Base Class Descriptor at (0,-1,0,64)'
	DD	00H
	DD	00H
	DD	0ffffffffH
	DD	00H
	DD	040H
	DD	FLAT:??_R3ioEntityEvent@@8
rdata$r	ENDS
;	COMDAT ??_R2ioGameEntity@@8
rdata$r	SEGMENT
??_R2ioGameEntity@@8 DD FLAT:??_R1A@?0A@EA@ioGameEntity@@8 ; ioGameEntity::`RTTI Base Class Array'
	DD	FLAT:??_R1A@?0A@EA@ioEntityEvent@@8
rdata$r	ENDS
;	COMDAT ??_R3ioGameEntity@@8
rdata$r	SEGMENT
??_R3ioGameEntity@@8 DD 00H				; ioGameEntity::`RTTI Class Hierarchy Descriptor'
	DD	00H
	DD	02H
	DD	FLAT:??_R2ioGameEntity@@8
rdata$r	ENDS
;	COMDAT ??_R0?AVioGameEntity@@@8
_DATA	SEGMENT
??_R0?AVioGameEntity@@@8 DD FLAT:??_7type_info@@6B@	; ioGameEntity `RTTI Type Descriptor'
	DD	00H
	DB	'.?AVioGameEntity@@', 00H
_DATA	ENDS
;	COMDAT ??_R1A@?0A@EA@ioGameEntity@@8
rdata$r	SEGMENT
??_R1A@?0A@EA@ioGameEntity@@8 DD FLAT:??_R0?AVioGameEntity@@@8 ; ioGameEntity::`RTTI Base Class Descriptor at (0,-1,0,64)'
	DD	01H
	DD	00H
	DD	0ffffffffH
	DD	00H
	DD	040H
	DD	FLAT:??_R3ioGameEntity@@8
rdata$r	ENDS
;	COMDAT ??_R2ioPlayEntity@@8
rdata$r	SEGMENT
??_R2ioPlayEntity@@8 DD FLAT:??_R1A@?0A@EA@ioPlayEntity@@8 ; ioPlayEntity::`RTTI Base Class Array'
	DD	FLAT:??_R1A@?0A@EA@ioGameEntity@@8
	DD	FLAT:??_R1A@?0A@EA@ioEntityEvent@@8
rdata$r	ENDS
;	COMDAT ??_R3ioPlayEntity@@8
rdata$r	SEGMENT
??_R3ioPlayEntity@@8 DD 00H				; ioPlayEntity::`RTTI Class Hierarchy Descriptor'
	DD	00H
	DD	03H
	DD	FLAT:??_R2ioPlayEntity@@8
rdata$r	ENDS
;	COMDAT ??_R0?AVioPlayEntity@@@8
_DATA	SEGMENT
??_R0?AVioPlayEntity@@@8 DD FLAT:??_7type_info@@6B@	; ioPlayEntity `RTTI Type Descriptor'
	DD	00H
	DB	'.?AVioPlayEntity@@', 00H
_DATA	ENDS
;	COMDAT ??_R1A@?0A@EA@ioPlayEntity@@8
rdata$r	SEGMENT
??_R1A@?0A@EA@ioPlayEntity@@8 DD FLAT:??_R0?AVioPlayEntity@@@8 ; ioPlayEntity::`RTTI Base Class Descriptor at (0,-1,0,64)'
	DD	02H
	DD	00H
	DD	0ffffffffH
	DD	00H
	DD	040H
	DD	FLAT:??_R3ioPlayEntity@@8
rdata$r	ENDS
;	COMDAT ??_R1A@?0A@EA@ioWallZone@@8
rdata$r	SEGMENT
??_R1A@?0A@EA@ioWallZone@@8 DD FLAT:??_R0?AVioWallZone@@@8 ; ioWallZone::`RTTI Base Class Descriptor at (0,-1,0,64)'
	DD	03H
	DD	00H
	DD	0ffffffffH
	DD	00H
	DD	040H
	DD	FLAT:??_R3ioWallZone@@8
rdata$r	ENDS
;	COMDAT ??_R2ioWallZone@@8
rdata$r	SEGMENT
??_R2ioWallZone@@8 DD FLAT:??_R1A@?0A@EA@ioWallZone@@8	; ioWallZone::`RTTI Base Class Array'
	DD	FLAT:??_R1A@?0A@EA@ioPlayEntity@@8
	DD	FLAT:??_R1A@?0A@EA@ioGameEntity@@8
	DD	FLAT:??_R1A@?0A@EA@ioEntityEvent@@8
rdata$r	ENDS
;	COMDAT ??_R3ioWallZone@@8
rdata$r	SEGMENT
??_R3ioWallZone@@8 DD 00H				; ioWallZone::`RTTI Class Hierarchy Descriptor'
	DD	00H
	DD	04H
	DD	FLAT:??_R2ioWallZone@@8
rdata$r	ENDS
;	COMDAT ??_R0?AVioWallZone@@@8
_DATA	SEGMENT
??_R0?AVioWallZone@@@8 DD FLAT:??_7type_info@@6B@	; ioWallZone `RTTI Type Descriptor'
	DD	00H
	DB	'.?AVioWallZone@@', 00H
_DATA	ENDS
;	COMDAT ??_R4ioWallZone@@6B@
rdata$r	SEGMENT
??_R4ioWallZone@@6B@ DD 00H				; ioWallZone::`RTTI Complete Object Locator'
	DD	00H
	DD	00H
	DD	FLAT:??_R0?AVioWallZone@@@8
	DD	FLAT:??_R3ioWallZone@@8
rdata$r	ENDS
;	COMDAT ??_7ioWallZone@@6B@
CONST	SEGMENT
??_7ioWallZone@@6B@ DD FLAT:??_R4ioWallZone@@6B@	; ioWallZone::`vftable'
	DD	FLAT:?AddEntityEvent@ioEntityEvent@@UAEXPAVioEntity@@@Z
	DD	FLAT:??_EioWallZone@@UAEPAXI@Z
	DD	FLAT:?Update@ioWallZone@@UAEXMKK@Z
	DD	FLAT:?UpdateAfter@ioWallZone@@UAEXM@Z
	DD	FLAT:?GetTypeID@ioPlayEntity@@UBEHXZ
	DD	FLAT:?IsNeedCheckMapCollision@ioGameEntity@@UBE_NXZ
	DD	FLAT:?IsMountAvailable@ioWallZone@@UBE_NXZ
	DD	FLAT:?IsMountingAvailable@ioWallZone@@UBE_NXZ
	DD	FLAT:?IsNowMountEnable@ioWallZone@@UBE_NXZ
	DD	FLAT:?IsAllWeaponDefence@ioGameEntity@@UBE_NXZ
	DD	FLAT:?HasEntity@ioGameEntity@@UAE_NABVioHashString@@@Z
	DD	FLAT:?AddEntity@ioGameEntity@@UAEPAVioEntity@@ABVioHashString@@@Z
	DD	FLAT:?DestroyEntity@ioGameEntity@@UAE_NABVioHashString@@@Z
	DD	FLAT:?GetEntity@ioGameEntity@@UAEPAVioEntity@@ABVioHashString@@@Z
	DD	FLAT:?UpdateBound@ioGameEntity@@MBEXXZ
	DD	FLAT:?UpdateBottomHeight@ioWallZone@@MBEXXZ
	DD	FLAT:?NeedUpdateBottomHeight@ioGameEntity@@UAEXXZ
	DD	FLAT:?SetWorldPosition@ioGameEntity@@UAEXABUD3DXVECTOR3@@@Z
	DD	FLAT:?SetWorldOrientation@ioGameEntity@@UAEXABUD3DXQUATERNION@@@Z
	DD	FLAT:?SetWorldScale@ioGameEntity@@UAEXABUD3DXVECTOR3@@@Z
	DD	FLAT:?Translate@ioGameEntity@@UAEXABUD3DXVECTOR3@@@Z
	DD	FLAT:?TranslateByConveyer@ioGameEntity@@UAEXABUD3DXVECTOR3@@@Z
	DD	FLAT:?TranslateByWorldEntity@ioGameEntity@@UAEXABUD3DXVECTOR3@@@Z
	DD	FLAT:?MapCollisionPushingTranslate@ioGameEntity@@UAEXABUD3DXVECTOR3@@@Z
	DD	FLAT:?DontMoveCollisionPushingTranslate@ioGameEntity@@UAEXPAV1@ABUD3DXVECTOR3@@@Z
	DD	FLAT:?Rotate@ioGameEntity@@UAEXABUD3DXVECTOR3@@MW4TransformSpace@ioNode@@@Z
	DD	FLAT:?Scale@ioGameEntity@@UAEXMMM@Z
	DD	FLAT:?Scale@ioGameEntity@@UAEXABUD3DXVECTOR3@@@Z
	DD	FLAT:?GetWorldPosition@ioGameEntity@@UBEABUD3DXVECTOR3@@XZ
	DD	FLAT:?GetWorldOrientation@ioGameEntity@@UBEABUD3DXQUATERNION@@XZ
	DD	FLAT:?GetWorldScale@ioGameEntity@@UBEABUD3DXVECTOR3@@XZ
	DD	FLAT:?ApplyWeapon@ioWallZone@@UAE?AW4ApplyWeaponExp@@PAVioWeapon@@@Z
	DD	FLAT:?IsCollisionAvailableWeapon@ioWallZone@@UAE_NPAVioWeapon@@@Z
	DD	FLAT:?IsCollisionAvailableRange@ioPlayEntity@@UAE_NPAVioWeapon@@@Z
	DD	FLAT:?IsEntityCollisionSkipState@ioWallZone@@UBE_NPAVioGameEntity@@@Z
	DD	FLAT:?IsCharCollisionSkipState@ioPlayEntity@@UBE_NW4TeamType@@H@Z
	DD	FLAT:?IsWoundedCollision@ioWallZone@@UBE_NABVioOrientBox@@PAUD3DXVECTOR3@@@Z
	DD	FLAT:?GetAttackCollisionBox@ioPlayEntity@@UAE?AVioOrientBox@@W4AniCollisionType@@_N@Z
	DD	FLAT:?CheckSphereDistance@ioPlayEntity@@UBE_NABUD3DXVECTOR3@@MAAM@Z
	DD	FLAT:?CheckSpherePoint@ioPlayEntity@@UBE_NABUD3DXVECTOR3@@MAAU2@@Z
	DD	FLAT:?CheckCylinderPoint@ioPlayEntity@@UBE_NABVioCylinder@@ABUD3DXVECTOR3@@AAU3@@Z
	DD	FLAT:?GetSubType@ioWallZone@@UBE?AW4PlaySubType@ioPlayEntity@@XZ
	DD	FLAT:?GetArmorType@ioWallZone@@UBE?AW4ArmorType@@XZ
	DD	FLAT:?DontMoveEntityLevel@ioWallZone@@UBEHXZ
	DD	FLAT:?NotifyDontMoveCollisionPushingSkip@ioPlayEntity@@UAEXPAVioGameEntity@@@Z
	DD	FLAT:?LoadProperty@ioWallZone@@UAEXAAVioINILoader@@@Z
	DD	FLAT:?GetWorldEventReceiver@ioPlayEntity@@UAEPAVioWorldEventReceiver@@XZ
	DD	FLAT:?Revival@ioPlayEntity@@UAEXXZ
	DD	FLAT:?UpdateGauge@ioPlayEntity@@UAEXXZ
	DD	FLAT:?RenderGauge@ioPlayEntity@@UAEXXZ
	DD	FLAT:?FillMaxHP@ioPlayEntity@@UAEXXZ
	DD	FLAT:?ProcessRecovery@ioPlayEntity@@MAEXXZ
	DD	FLAT:?AddHeadDamageInfo@ioPlayEntity@@UAEXH_N@Z
	DD	FLAT:?RenderHeadInfoList@ioPlayEntity@@UAEXHH@Z
	DD	FLAT:?UpdateHeadInfoList@ioPlayEntity@@MAEXK@Z
	DD	FLAT:?SetTeam@ioPlayEntity@@UAEXW4TeamType@@@Z
; Function compile flags: /Ogsp
CONST	ENDS
;	COMDAT ??0ioWallZone@@QAE@PAVioEntityGroup@@PAVioPlayMode@@H@Z
_TEXT	SEGMENT
_pGrp$ = 8						; size = 4
_pMode$ = 12						; size = 4
_iCreateIndex$ = 16					; size = 4
??0ioWallZone@@QAE@PAVioEntityGroup@@PAVioPlayMode@@H@Z PROC ; ioWallZone::ioWallZone, COMDAT
; _this$ = ecx

; 12   : {

  00000	55		 push	 ebp
  00001	8b ec		 mov	 ebp, esp
  00003	56		 push	 esi
  00004	ff 75 0c	 push	 DWORD PTR _pMode$[ebp]
  00007	8b f1		 mov	 esi, ecx
  00009	ff 75 08	 push	 DWORD PTR _pGrp$[ebp]
  0000c	e8 00 00 00 00	 call	 ??0ioPlayEntity@@QAE@PAVioEntityGroup@@PAVioPlayMode@@@Z ; ioPlayEntity::ioPlayEntity

; 13   : 	m_iCreateIndex = iCreateIndex;

  00011	8b 45 10	 mov	 eax, DWORD PTR _iCreateIndex$[ebp]
  00014	89 86 c8 01 00
	00		 mov	 DWORD PTR [esi+456], eax
  0001a	c7 06 00 00 00
	00		 mov	 DWORD PTR [esi], OFFSET ??_7ioWallZone@@6B@

; 14   : }

  00020	8b c6		 mov	 eax, esi
  00022	5e		 pop	 esi
  00023	5d		 pop	 ebp
  00024	c2 0c 00	 ret	 12			; 0000000cH
??0ioWallZone@@QAE@PAVioEntityGroup@@PAVioPlayMode@@H@Z ENDP ; ioWallZone::ioWallZone
_TEXT	ENDS
PUBLIC	??1ioWallZone@@UAE@XZ				; ioWallZone::~ioWallZone
EXTRN	??1ioPlayEntity@@UAE@XZ:PROC			; ioPlayEntity::~ioPlayEntity
; Function compile flags: /Ogsp
;	COMDAT ??1ioWallZone@@UAE@XZ
_TEXT	SEGMENT
??1ioWallZone@@UAE@XZ PROC				; ioWallZone::~ioWallZone, COMDAT
; _this$ = ecx

; 17   : {

  00000	c7 01 00 00 00
	00		 mov	 DWORD PTR [ecx], OFFSET ??_7ioWallZone@@6B@

; 18   : }

  00006	e9 00 00 00 00	 jmp	 ??1ioPlayEntity@@UAE@XZ	; ioPlayEntity::~ioPlayEntity
??1ioWallZone@@UAE@XZ ENDP				; ioWallZone::~ioWallZone
; Function compile flags: /Ogsp
_TEXT	ENDS
;	COMDAT ?LoadProperty@ioWallZone@@UAEXAAVioINILoader@@@Z
_TEXT	SEGMENT
_rkLoader$ = 8						; size = 4
?LoadProperty@ioWallZone@@UAEXAAVioINILoader@@@Z PROC	; ioWallZone::LoadProperty, COMDAT
; _this$ = ecx

; 22   : 
; 23   : }

  00000	c2 04 00	 ret	 4
?LoadProperty@ioWallZone@@UAEXAAVioINILoader@@@Z ENDP	; ioWallZone::LoadProperty
; Function compile flags: /Ogsp
_TEXT	ENDS
;	COMDAT ?Update@ioWallZone@@UAEXMKK@Z
_TEXT	SEGMENT
_fTimePerSec$ = 8					; size = 4
_dwPreTime$ = 12					; size = 4
_dwCurTime$ = 16					; size = 4
?Update@ioWallZone@@UAEXMKK@Z PROC			; ioWallZone::Update, COMDAT
; _this$ = ecx

; 27   : /*	ioPlayStage *pStage = m_pModeParent->GetCreator();
; 28   : 	if( !pStage )	return;
; 29   : 
; 30   : 	FL_CollisionPlayEntity kFind( GetWorldCollisionBox(), this );
; 31   : 	if( !pStage->FindEntityList( kFind ) )
; 32   : 		return;
; 33   : 
; 34   : 	const PlayEntityList &rkEntityList = kFind.GetResultList();
; 35   : */
; 36   : }

  00000	c2 0c 00	 ret	 12			; 0000000cH
?Update@ioWallZone@@UAEXMKK@Z ENDP			; ioWallZone::Update
_TEXT	ENDS
EXTRN	?UpdateAfter@ioGameEntity@@UAEXM@Z:PROC		; ioGameEntity::UpdateAfter
EXTRN	__fltused:DWORD
; Function compile flags: /Ogsp
;	COMDAT ?UpdateAfter@ioWallZone@@UAEXM@Z
_TEXT	SEGMENT
_fFrameGap$ = 8						; size = 4
?UpdateAfter@ioWallZone@@UAEXM@Z PROC			; ioWallZone::UpdateAfter, COMDAT
; _this$ = ecx

; 39   : {

  00000	55		 push	 ebp
  00001	8b ec		 mov	 ebp, esp
  00003	56		 push	 esi
  00004	8b f1		 mov	 esi, ecx

; 40   : 	if( m_pGroup )

  00006	83 7e 04 00	 cmp	 DWORD PTR [esi+4], 0
  0000a	74 13		 je	 SHORT $LN1@UpdateAfte

; 41   : 	{
; 42   : 		m_pGroup->Update( fFrameGap );

  0000c	8b 4e 04	 mov	 ecx, DWORD PTR [esi+4]
  0000f	f3 0f 10 45 08	 movss	 xmm0, DWORD PTR _fFrameGap$[ebp]
  00014	8b 01		 mov	 eax, DWORD PTR [ecx]
  00016	51		 push	 ecx
  00017	f3 0f 11 04 24	 movss	 DWORD PTR [esp], xmm0
  0001c	ff 50 40	 call	 DWORD PTR [eax+64]
$LN1@UpdateAfte:

; 43   : 	}
; 44   : 
; 45   : 	ioPlayEntity::UpdateAfter( fFrameGap );

  0001f	f3 0f 10 45 08	 movss	 xmm0, DWORD PTR _fFrameGap$[ebp]
  00024	51		 push	 ecx
  00025	8b ce		 mov	 ecx, esi
  00027	f3 0f 11 04 24	 movss	 DWORD PTR [esp], xmm0
  0002c	e8 00 00 00 00	 call	 ?UpdateAfter@ioGameEntity@@UAEXM@Z ; ioGameEntity::UpdateAfter
  00031	5e		 pop	 esi

; 46   : }

  00032	5d		 pop	 ebp
  00033	c2 04 00	 ret	 4
?UpdateAfter@ioWallZone@@UAEXM@Z ENDP			; ioWallZone::UpdateAfter
; Function compile flags: /Ogsp
_TEXT	ENDS
;	COMDAT ?IsMountAvailable@ioWallZone@@UBE_NXZ
_TEXT	SEGMENT
?IsMountAvailable@ioWallZone@@UBE_NXZ PROC		; ioWallZone::IsMountAvailable, COMDAT
; _this$ = ecx

; 50   : 	return false;

  00000	32 c0		 xor	 al, al

; 51   : }

  00002	c3		 ret	 0
?IsMountAvailable@ioWallZone@@UBE_NXZ ENDP		; ioWallZone::IsMountAvailable
; Function compile flags: /Ogsp
_TEXT	ENDS
;	COMDAT ?IsMountingAvailable@ioWallZone@@UBE_NXZ
_TEXT	SEGMENT
?IsMountingAvailable@ioWallZone@@UBE_NXZ PROC		; ioWallZone::IsMountingAvailable, COMDAT
; _this$ = ecx

; 55   : 	return false;

  00000	32 c0		 xor	 al, al

; 56   : }

  00002	c3		 ret	 0
?IsMountingAvailable@ioWallZone@@UBE_NXZ ENDP		; ioWallZone::IsMountingAvailable
; Function compile flags: /Ogsp
_TEXT	ENDS
;	COMDAT ?IsNowMountEnable@ioWallZone@@UBE_NXZ
_TEXT	SEGMENT
?IsNowMountEnable@ioWallZone@@UBE_NXZ PROC		; ioWallZone::IsNowMountEnable, COMDAT
; _this$ = ecx

; 60   : 	return true;

  00000	b0 01		 mov	 al, 1

; 61   : }

  00002	c3		 ret	 0
?IsNowMountEnable@ioWallZone@@UBE_NXZ ENDP		; ioWallZone::IsNowMountEnable
; Function compile flags: /Ogsp
_TEXT	ENDS
;	COMDAT ?UpdateBottomHeight@ioWallZone@@MBEXXZ
_TEXT	SEGMENT
?UpdateBottomHeight@ioWallZone@@MBEXXZ PROC		; ioWallZone::UpdateBottomHeight, COMDAT
; _this$ = ecx

; 64   : {

  00000	56		 push	 esi
  00001	8b f1		 mov	 esi, ecx

; 65   : 	m_fCurBottomHeight = GetWorldPosition().y;

  00003	8b 06		 mov	 eax, DWORD PTR [esi]
  00005	ff 50 70	 call	 DWORD PTR [eax+112]
  00008	d9 40 04	 fld	 DWORD PTR [eax+4]
  0000b	d9 9e 84 00 00
	00		 fstp	 DWORD PTR [esi+132]
  00011	5e		 pop	 esi

; 66   : }

  00012	c3		 ret	 0
?UpdateBottomHeight@ioWallZone@@MBEXXZ ENDP		; ioWallZone::UpdateBottomHeight
; Function compile flags: /Ogsp
_TEXT	ENDS
;	COMDAT ?ApplyWeapon@ioWallZone@@UAE?AW4ApplyWeaponExp@@PAVioWeapon@@@Z
_TEXT	SEGMENT
_pWeapon$ = 8						; size = 4
?ApplyWeapon@ioWallZone@@UAE?AW4ApplyWeaponExp@@PAVioWeapon@@@Z PROC ; ioWallZone::ApplyWeapon, COMDAT
; _this$ = ecx

; 70   : 	return AWE_NO_EXPLOSION;

  00000	33 c0		 xor	 eax, eax

; 71   : }

  00002	c2 04 00	 ret	 4
?ApplyWeapon@ioWallZone@@UAE?AW4ApplyWeaponExp@@PAVioWeapon@@@Z ENDP ; ioWallZone::ApplyWeapon
; Function compile flags: /Ogsp
_TEXT	ENDS
;	COMDAT ?IsCollisionAvailableWeapon@ioWallZone@@UAE_NPAVioWeapon@@@Z
_TEXT	SEGMENT
_pWeapon$ = 8						; size = 4
?IsCollisionAvailableWeapon@ioWallZone@@UAE_NPAVioWeapon@@@Z PROC ; ioWallZone::IsCollisionAvailableWeapon, COMDAT
; _this$ = ecx

; 74   : {

  00000	55		 push	 ebp
  00001	8b ec		 mov	 ebp, esp
  00003	56		 push	 esi
  00004	57		 push	 edi

; 75   : 	if( !pWeapon ) return false;

  00005	8b 7d 08	 mov	 edi, DWORD PTR _pWeapon$[ebp]
  00008	8b f1		 mov	 esi, ecx
  0000a	85 ff		 test	 edi, edi
  0000c	75 04		 jne	 SHORT $LN3@IsCollisio
$LN6@IsCollisio:
  0000e	32 c0		 xor	 al, al
  00010	eb 1a		 jmp	 SHORT $LN1@IsCollisio
$LN3@IsCollisio:

; 76   : 
; 77   : 	if( !IsCollisionAvailableRange( pWeapon ) )

  00012	8b 06		 mov	 eax, DWORD PTR [esi]
  00014	57		 push	 edi
  00015	ff 90 84 00 00
	00		 call	 DWORD PTR [eax+132]
  0001b	84 c0		 test	 al, al

; 78   : 		return false;

  0001d	74 ef		 je	 SHORT $LN6@IsCollisio

; 79   : 
; 80   : 	if( pWeapon->IsAlreadyCollisioned( this ) )

  0001f	8b 07		 mov	 eax, DWORD PTR [edi]
  00021	56		 push	 esi
  00022	8b cf		 mov	 ecx, edi
  00024	ff 10		 call	 DWORD PTR [eax]
  00026	f6 d8		 neg	 al
  00028	1a c0		 sbb	 al, al
  0002a	fe c0		 inc	 al
$LN1@IsCollisio:
  0002c	5f		 pop	 edi
  0002d	5e		 pop	 esi

; 81   : 		return false;
; 82   : 
; 83   : 	return true;
; 84   : }

  0002e	5d		 pop	 ebp
  0002f	c2 04 00	 ret	 4
?IsCollisionAvailableWeapon@ioWallZone@@UAE_NPAVioWeapon@@@Z ENDP ; ioWallZone::IsCollisionAvailableWeapon
; Function compile flags: /Ogsp
_TEXT	ENDS
;	COMDAT ?IsEntityCollisionSkipState@ioWallZone@@UBE_NPAVioGameEntity@@@Z
_TEXT	SEGMENT
_pColEntity$ = 8					; size = 4
?IsEntityCollisionSkipState@ioWallZone@@UBE_NPAVioGameEntity@@@Z PROC ; ioWallZone::IsEntityCollisionSkipState, COMDAT
; _this$ = ecx

; 88   : 	return false;

  00000	32 c0		 xor	 al, al

; 89   : }

  00002	c2 04 00	 ret	 4
?IsEntityCollisionSkipState@ioWallZone@@UBE_NPAVioGameEntity@@@Z ENDP ; ioWallZone::IsEntityCollisionSkipState
_TEXT	ENDS
EXTRN	?IsWoundedCollision@ioPlayEntity@@UBE_NABVioOrientBox@@PAUD3DXVECTOR3@@@Z:PROC ; ioPlayEntity::IsWoundedCollision
; Function compile flags: /Ogsp
;	COMDAT ?IsWoundedCollision@ioWallZone@@UBE_NABVioOrientBox@@PAUD3DXVECTOR3@@@Z
_TEXT	SEGMENT
_rkAttackBox$ = 8					; size = 4
_pColPoint$ = 12					; size = 4
?IsWoundedCollision@ioWallZone@@UBE_NABVioOrientBox@@PAUD3DXVECTOR3@@@Z PROC ; ioWallZone::IsWoundedCollision, COMDAT
; _this$ = ecx

; 92   : {

  00000	55		 push	 ebp
  00001	8b ec		 mov	 ebp, esp

; 94   : }

  00003	5d		 pop	 ebp

; 93   : 	return ioPlayEntity::IsWoundedCollision( rkAttackBox, pColPoint );

  00004	e9 00 00 00 00	 jmp	 ?IsWoundedCollision@ioPlayEntity@@UBE_NABVioOrientBox@@PAUD3DXVECTOR3@@@Z ; ioPlayEntity::IsWoundedCollision
?IsWoundedCollision@ioWallZone@@UBE_NABVioOrientBox@@PAUD3DXVECTOR3@@@Z ENDP ; ioWallZone::IsWoundedCollision
; Function compile flags: /Ogsp
_TEXT	ENDS
;	COMDAT ?GetSubType@ioWallZone@@UBE?AW4PlaySubType@ioPlayEntity@@XZ
_TEXT	SEGMENT
?GetSubType@ioWallZone@@UBE?AW4PlaySubType@ioPlayEntity@@XZ PROC ; ioWallZone::GetSubType, COMDAT
; _this$ = ecx

; 98   : 	return PST_WALL_ZONE;

  00000	6a 0b		 push	 11			; 0000000bH
  00002	58		 pop	 eax

; 99   : }

  00003	c3		 ret	 0
?GetSubType@ioWallZone@@UBE?AW4PlaySubType@ioPlayEntity@@XZ ENDP ; ioWallZone::GetSubType
; Function compile flags: /Ogsp
_TEXT	ENDS
;	COMDAT ?GetArmorType@ioWallZone@@UBE?AW4ArmorType@@XZ
_TEXT	SEGMENT
?GetArmorType@ioWallZone@@UBE?AW4ArmorType@@XZ PROC	; ioWallZone::GetArmorType, COMDAT
; _this$ = ecx

; 103  : 	return AT_UNARMOR;

  00000	33 c0		 xor	 eax, eax

; 104  : }

  00002	c3		 ret	 0
?GetArmorType@ioWallZone@@UBE?AW4ArmorType@@XZ ENDP	; ioWallZone::GetArmorType
; Function compile flags: /Ogsp
_TEXT	ENDS
;	COMDAT ?DontMoveEntityLevel@ioWallZone@@UBEHXZ
_TEXT	SEGMENT
?DontMoveEntityLevel@ioWallZone@@UBEHXZ PROC		; ioWallZone::DontMoveEntityLevel, COMDAT
; _this$ = ecx

; 108  : 	return 5;

  00000	6a 05		 push	 5
  00002	58		 pop	 eax

; 109  : }

  00003	c3		 ret	 0
?DontMoveEntityLevel@ioWallZone@@UBEHXZ ENDP		; ioWallZone::DontMoveEntityLevel
; Function compile flags: /Ogsp
; File d:\lost saga for developer\youtube\tutorial\source\src\lsclient\iogameentity.h
_TEXT	ENDS
;	COMDAT ?NeedUpdateBottomHeight@ioGameEntity@@UAEXXZ
_TEXT	SEGMENT
?NeedUpdateBottomHeight@ioGameEntity@@UAEXXZ PROC	; ioGameEntity::NeedUpdateBottomHeight, COMDAT
; _this$ = ecx

; 133  : 	virtual void NeedUpdateBottomHeight() { m_bNeedUpdateBottomHeight = true; }

  00000	c6 81 89 00 00
	00 01		 mov	 BYTE PTR [ecx+137], 1
  00007	c3		 ret	 0
?NeedUpdateBottomHeight@ioGameEntity@@UAEXXZ ENDP	; ioGameEntity::NeedUpdateBottomHeight
_TEXT	ENDS
PUBLIC	?EncryptValueToPool@?$CEncrypt@W4TeamType@@@@AAEXPBD@Z ; CEncrypt<enum TeamType>::EncryptValueToPool
EXTRN	?EncryptByte@ccddaabb@@QAEXPBDPADH@Z:PROC	; ccddaabb::EncryptByte
; Function compile flags: /Ogsp
; File d:\lost saga for developer\youtube\tutorial\source\src\lsclient\encryptvalue.h
;	COMDAT ?EncryptValueToPool@?$CEncrypt@W4TeamType@@@@AAEXPBD@Z
_TEXT	SEGMENT
_value$ = 8						; size = 4
?EncryptValueToPool@?$CEncrypt@W4TeamType@@@@AAEXPBD@Z PROC ; CEncrypt<enum TeamType>::EncryptValueToPool, COMDAT
; _this$ = ecx

; 67   : 	{

  00000	55		 push	 ebp
  00001	8b ec		 mov	 ebp, esp

; 68   : 		m_RC5.EncryptByte( value, m_MemPool, max(m_ValueSize, DEFAULT_ENCRYPT) );

  00003	0f b7 41 06	 movzx	 eax, WORD PTR [ecx+6]
  00007	83 f8 04	 cmp	 eax, 4
  0000a	77 03		 ja	 SHORT $LN4@EncryptVal
  0000c	6a 04		 push	 4
  0000e	58		 pop	 eax
$LN4@EncryptVal:
  0000f	50		 push	 eax
  00010	8d 41 1c	 lea	 eax, DWORD PTR [ecx+28]
  00013	50		 push	 eax
  00014	ff 75 08	 push	 DWORD PTR _value$[ebp]
  00017	83 c1 0c	 add	 ecx, 12			; 0000000cH
  0001a	e8 00 00 00 00	 call	 ?EncryptByte@ccddaabb@@QAEXPBDPADH@Z ; ccddaabb::EncryptByte

; 69   : 		
; 70   : 	}

  0001f	5d		 pop	 ebp
  00020	c2 04 00	 ret	 4
?EncryptValueToPool@?$CEncrypt@W4TeamType@@@@AAEXPBD@Z ENDP ; CEncrypt<enum TeamType>::EncryptValueToPool
_TEXT	ENDS
EXTRN	??3@YAXPAX@Z:PROC				; operator delete
; Function compile flags: /Ogsp
;	COMDAT ??_GioWallZone@@UAEPAXI@Z
_TEXT	SEGMENT
___flags$ = 8						; size = 4
??_GioWallZone@@UAEPAXI@Z PROC				; ioWallZone::`scalar deleting destructor', COMDAT
; _this$ = ecx
  00000	55		 push	 ebp
  00001	8b ec		 mov	 ebp, esp
  00003	56		 push	 esi
  00004	8b f1		 mov	 esi, ecx
  00006	c7 06 00 00 00
	00		 mov	 DWORD PTR [esi], OFFSET ??_7ioWallZone@@6B@
  0000c	e8 00 00 00 00	 call	 ??1ioPlayEntity@@UAE@XZ	; ioPlayEntity::~ioPlayEntity
  00011	f6 45 08 01	 test	 BYTE PTR ___flags$[ebp], 1
  00015	74 07		 je	 SHORT $LN1@scalar
  00017	56		 push	 esi
  00018	e8 00 00 00 00	 call	 ??3@YAXPAX@Z		; operator delete
  0001d	59		 pop	 ecx
$LN1@scalar:
  0001e	8b c6		 mov	 eax, esi
  00020	5e		 pop	 esi
  00021	5d		 pop	 ebp
  00022	c2 04 00	 ret	 4
??_GioWallZone@@UAEPAXI@Z ENDP				; ioWallZone::`scalar deleting destructor'
_TEXT	ENDS
PUBLIC	??4?$CEncrypt@W4TeamType@@@@QAE?AW4TeamType@@W41@@Z ; CEncrypt<enum TeamType>::operator=
; Function compile flags: /Ogsp
;	COMDAT ??4?$CEncrypt@W4TeamType@@@@QAE?AW4TeamType@@W41@@Z
_TEXT	SEGMENT
_value$ = 8						; size = 4
_inValue$ = 8						; size = 4
??4?$CEncrypt@W4TeamType@@@@QAE?AW4TeamType@@W41@@Z PROC ; CEncrypt<enum TeamType>::operator=, COMDAT
; _this$ = ecx

; 2965 : 	{

  00000	55		 push	 ebp
  00001	8b ec		 mov	 ebp, esp

; 2966 : 		type value = inValue;

  00003	8b 45 08	 mov	 eax, DWORD PTR _inValue$[ebp]
  00006	89 45 08	 mov	 DWORD PTR _value$[ebp], eax

; 2967 : 		EncryptValueToPool((char*)&value);

  00009	8d 45 08	 lea	 eax, DWORD PTR _value$[ebp]
  0000c	50		 push	 eax
  0000d	e8 00 00 00 00	 call	 ?EncryptValueToPool@?$CEncrypt@W4TeamType@@@@AAEXPBD@Z ; CEncrypt<enum TeamType>::EncryptValueToPool

; 2968 : #ifdef _NOTUSE
; 2969 : 		m_value = inValue;
; 2970 : 		Debug();
; 2971 : #endif
; 2972 : 		return value;

  00012	8b 45 08	 mov	 eax, DWORD PTR _value$[ebp]

; 2973 : 	}

  00015	5d		 pop	 ebp
  00016	c2 04 00	 ret	 4
??4?$CEncrypt@W4TeamType@@@@QAE?AW4TeamType@@W41@@Z ENDP ; CEncrypt<enum TeamType>::operator=
; Function compile flags: /Ogsp
; File d:\lost saga for developer\youtube\tutorial\source\src\lsclient\ioplayentity.h
_TEXT	ENDS
;	COMDAT ?SetTeam@ioPlayEntity@@UAEXW4TeamType@@@Z
_TEXT	SEGMENT
_value$512083 = 8					; size = 4
_eType$ = 8						; size = 4
?SetTeam@ioPlayEntity@@UAEXW4TeamType@@@Z PROC		; ioPlayEntity::SetTeam, COMDAT
; _this$ = ecx

; 106  : 	virtual void SetTeam( TeamType eType ) { m_TeamType = eType; }

  00000	55		 push	 ebp
  00001	8b ec		 mov	 ebp, esp
  00003	8b 45 08	 mov	 eax, DWORD PTR _eType$[ebp]
  00006	89 45 08	 mov	 DWORD PTR _value$512083[ebp], eax
  00009	8d 45 08	 lea	 eax, DWORD PTR _value$512083[ebp]
  0000c	50		 push	 eax
  0000d	81 c1 90 00 00
	00		 add	 ecx, 144		; 00000090H
  00013	e8 00 00 00 00	 call	 ?EncryptValueToPool@?$CEncrypt@W4TeamType@@@@AAEXPBD@Z ; CEncrypt<enum TeamType>::EncryptValueToPool
  00018	5d		 pop	 ebp
  00019	c2 04 00	 ret	 4
?SetTeam@ioPlayEntity@@UAEXW4TeamType@@@Z ENDP		; ioPlayEntity::SetTeam
_TEXT	ENDS
END
