; Listing generated by Microsoft (R) Optimizing Compiler Version 16.00.30319.01 

	TITLE	D:\Lost Saga For Developer\Youtube\Tutorial\Source\src\LSClient\ioWeaponItem.cpp
	.686P
	.XMM
	include listing.inc
	.model	flat

INCLUDELIB MSVCRT
INCLUDELIB OLDNAMES

PUBLIC	?return1@@YAIXZ					; return1
; Function compile flags: /Ogsp
; File d:\lost saga for developer\youtube\tutorial\source\src\lsclient\stdafx.h
;	COMDAT ?return1@@YAIXZ
_TEXT	SEGMENT
?return1@@YAIXZ PROC					; return1, COMDAT

; 17   : 	__forceinline unsigned int return1() { __asm mov eax, 1 };

  00000	b8 01 00 00 00	 mov	 eax, 1
  00005	c3		 ret	 0
?return1@@YAIXZ ENDP					; return1
_TEXT	ENDS
PUBLIC	??_7bad_alloc@std@@6B@				; std::bad_alloc::`vftable'
PUBLIC	??0bad_alloc@std@@QAE@PBD@Z			; std::bad_alloc::bad_alloc
PUBLIC	??_R4bad_alloc@std@@6B@				; std::bad_alloc::`RTTI Complete Object Locator'
PUBLIC	??_R0?AVbad_alloc@std@@@8			; std::bad_alloc `RTTI Type Descriptor'
PUBLIC	??_R3bad_alloc@std@@8				; std::bad_alloc::`RTTI Class Hierarchy Descriptor'
PUBLIC	??_R2bad_alloc@std@@8				; std::bad_alloc::`RTTI Base Class Array'
PUBLIC	??_R1A@?0A@EA@bad_alloc@std@@8			; std::bad_alloc::`RTTI Base Class Descriptor at (0,-1,0,64)'
PUBLIC	??_R1A@?0A@EA@exception@std@@8			; std::exception::`RTTI Base Class Descriptor at (0,-1,0,64)'
PUBLIC	??_R0?AVexception@std@@@8			; std::exception `RTTI Type Descriptor'
PUBLIC	??_R3exception@std@@8				; std::exception::`RTTI Class Hierarchy Descriptor'
PUBLIC	??_R2exception@std@@8				; std::exception::`RTTI Base Class Array'
EXTRN	__imp_??0exception@std@@QAE@ABQBD@Z:PROC
EXTRN	??_7type_info@@6B@:QWORD			; type_info::`vftable'
EXTRN	??_Ebad_alloc@std@@UAEPAXI@Z:PROC		; std::bad_alloc::`vector deleting destructor'
EXTRN	?what@exception@std@@UBEPBDXZ:PROC		; std::exception::what
;	COMDAT ??_R2exception@std@@8
; File c:\program files (x86)\microsoft visual studio 10.0\vc\include\exception
rdata$r	SEGMENT
??_R2exception@std@@8 DD FLAT:??_R1A@?0A@EA@exception@std@@8 ; std::exception::`RTTI Base Class Array'
rdata$r	ENDS
;	COMDAT ??_R3exception@std@@8
rdata$r	SEGMENT
??_R3exception@std@@8 DD 00H				; std::exception::`RTTI Class Hierarchy Descriptor'
	DD	00H
	DD	01H
	DD	FLAT:??_R2exception@std@@8
rdata$r	ENDS
;	COMDAT ??_R0?AVexception@std@@@8
_DATA	SEGMENT
??_R0?AVexception@std@@@8 DD FLAT:??_7type_info@@6B@	; std::exception `RTTI Type Descriptor'
	DD	00H
	DB	'.?AVexception@std@@', 00H
_DATA	ENDS
;	COMDAT ??_R1A@?0A@EA@exception@std@@8
rdata$r	SEGMENT
??_R1A@?0A@EA@exception@std@@8 DD FLAT:??_R0?AVexception@std@@@8 ; std::exception::`RTTI Base Class Descriptor at (0,-1,0,64)'
	DD	00H
	DD	00H
	DD	0ffffffffH
	DD	00H
	DD	040H
	DD	FLAT:??_R3exception@std@@8
rdata$r	ENDS
;	COMDAT ??_R1A@?0A@EA@bad_alloc@std@@8
rdata$r	SEGMENT
??_R1A@?0A@EA@bad_alloc@std@@8 DD FLAT:??_R0?AVbad_alloc@std@@@8 ; std::bad_alloc::`RTTI Base Class Descriptor at (0,-1,0,64)'
	DD	01H
	DD	00H
	DD	0ffffffffH
	DD	00H
	DD	040H
	DD	FLAT:??_R3bad_alloc@std@@8
rdata$r	ENDS
;	COMDAT ??_R2bad_alloc@std@@8
rdata$r	SEGMENT
??_R2bad_alloc@std@@8 DD FLAT:??_R1A@?0A@EA@bad_alloc@std@@8 ; std::bad_alloc::`RTTI Base Class Array'
	DD	FLAT:??_R1A@?0A@EA@exception@std@@8
rdata$r	ENDS
;	COMDAT ??_R3bad_alloc@std@@8
rdata$r	SEGMENT
??_R3bad_alloc@std@@8 DD 00H				; std::bad_alloc::`RTTI Class Hierarchy Descriptor'
	DD	00H
	DD	02H
	DD	FLAT:??_R2bad_alloc@std@@8
rdata$r	ENDS
;	COMDAT ??_R0?AVbad_alloc@std@@@8
_DATA	SEGMENT
??_R0?AVbad_alloc@std@@@8 DD FLAT:??_7type_info@@6B@	; std::bad_alloc `RTTI Type Descriptor'
	DD	00H
	DB	'.?AVbad_alloc@std@@', 00H
_DATA	ENDS
;	COMDAT ??_R4bad_alloc@std@@6B@
rdata$r	SEGMENT
??_R4bad_alloc@std@@6B@ DD 00H				; std::bad_alloc::`RTTI Complete Object Locator'
	DD	00H
	DD	00H
	DD	FLAT:??_R0?AVbad_alloc@std@@@8
	DD	FLAT:??_R3bad_alloc@std@@8
rdata$r	ENDS
;	COMDAT ??_7bad_alloc@std@@6B@
CONST	SEGMENT
??_7bad_alloc@std@@6B@ DD FLAT:??_R4bad_alloc@std@@6B@	; std::bad_alloc::`vftable'
	DD	FLAT:??_Ebad_alloc@std@@UAEPAXI@Z
	DD	FLAT:?what@exception@std@@UBEPBDXZ
; Function compile flags: /Ogsp
CONST	ENDS
;	COMDAT ??0bad_alloc@std@@QAE@PBD@Z
_TEXT	SEGMENT
__Message$ = 8						; size = 4
??0bad_alloc@std@@QAE@PBD@Z PROC			; std::bad_alloc::bad_alloc, COMDAT
; _this$ = ecx

; 345  : 		{	// construct from message string

  00000	55		 push	 ebp
  00001	8b ec		 mov	 ebp, esp
  00003	56		 push	 esi
  00004	8d 45 08	 lea	 eax, DWORD PTR __Message$[ebp]
  00007	50		 push	 eax
  00008	8b f1		 mov	 esi, ecx
  0000a	ff 15 00 00 00
	00		 call	 DWORD PTR __imp_??0exception@std@@QAE@ABQBD@Z
  00010	c7 06 00 00 00
	00		 mov	 DWORD PTR [esi], OFFSET ??_7bad_alloc@std@@6B@

; 346  : 		}

  00016	8b c6		 mov	 eax, esi
  00018	5e		 pop	 esi
  00019	5d		 pop	 ebp
  0001a	c2 04 00	 ret	 4
??0bad_alloc@std@@QAE@PBD@Z ENDP			; std::bad_alloc::bad_alloc
_TEXT	ENDS
PUBLIC	??1bad_alloc@std@@UAE@XZ			; std::bad_alloc::~bad_alloc
EXTRN	__imp_??1exception@std@@UAE@XZ:PROC
; Function compile flags: /Ogsp
;	COMDAT ??1bad_alloc@std@@UAE@XZ
_TEXT	SEGMENT
??1bad_alloc@std@@UAE@XZ PROC				; std::bad_alloc::~bad_alloc, COMDAT
; _this$ = ecx

; 354  : 		{	// destroy the object

  00000	c7 01 00 00 00
	00		 mov	 DWORD PTR [ecx], OFFSET ??_7bad_alloc@std@@6B@

; 355  : 		}

  00006	ff 25 00 00 00
	00		 jmp	 DWORD PTR __imp_??1exception@std@@UAE@XZ
??1bad_alloc@std@@UAE@XZ ENDP				; std::bad_alloc::~bad_alloc
_TEXT	ENDS
EXTRN	??3@YAXPAX@Z:PROC				; operator delete
; Function compile flags: /Ogsp
;	COMDAT ??_Gbad_alloc@std@@UAEPAXI@Z
_TEXT	SEGMENT
___flags$ = 8						; size = 4
??_Gbad_alloc@std@@UAEPAXI@Z PROC			; std::bad_alloc::`scalar deleting destructor', COMDAT
; _this$ = ecx
  00000	55		 push	 ebp
  00001	8b ec		 mov	 ebp, esp
  00003	56		 push	 esi
  00004	8b f1		 mov	 esi, ecx
  00006	c7 06 00 00 00
	00		 mov	 DWORD PTR [esi], OFFSET ??_7bad_alloc@std@@6B@
  0000c	ff 15 00 00 00
	00		 call	 DWORD PTR __imp_??1exception@std@@UAE@XZ
  00012	f6 45 08 01	 test	 BYTE PTR ___flags$[ebp], 1
  00016	74 07		 je	 SHORT $LN1@scalar
  00018	56		 push	 esi
  00019	e8 00 00 00 00	 call	 ??3@YAXPAX@Z		; operator delete
  0001e	59		 pop	 ecx
$LN1@scalar:
  0001f	8b c6		 mov	 eax, esi
  00021	5e		 pop	 esi
  00022	5d		 pop	 ebp
  00023	c2 04 00	 ret	 4
??_Gbad_alloc@std@@UAEPAXI@Z ENDP			; std::bad_alloc::`scalar deleting destructor'
_TEXT	ENDS
PUBLIC	??2@YAPAXIPAX@Z					; operator new
; Function compile flags: /Ogsp
; File c:\program files (x86)\microsoft visual studio 10.0\vc\include\new
;	COMDAT ??2@YAPAXIPAX@Z
_TEXT	SEGMENT
___formal$ = 8						; size = 4
__Where$ = 12						; size = 4
??2@YAPAXIPAX@Z PROC					; operator new, COMDAT

; 56   : 	{	// construct array with placement at _Where

  00000	55		 push	 ebp
  00001	8b ec		 mov	 ebp, esp

; 57   : 	return (_Where);

  00003	8b 45 0c	 mov	 eax, DWORD PTR __Where$[ebp]

; 58   : 	}

  00006	5d		 pop	 ebp
  00007	c3		 ret	 0
??2@YAPAXIPAX@Z ENDP					; operator new
_TEXT	ENDS
PUBLIC	??3@YAXPAX0@Z					; operator delete
; Function compile flags: /Ogsp
;	COMDAT ??3@YAXPAX0@Z
_TEXT	SEGMENT
___formal$ = 8						; size = 4
___formal$ = 12						; size = 4
??3@YAXPAX0@Z PROC					; operator delete, COMDAT

; 62   : 	}

  00000	c3		 ret	 0
??3@YAXPAX0@Z ENDP					; operator delete
_TEXT	ENDS
PUBLIC	??_GioAniCollisionBoxGrp@@QAEPAXI@Z		; ioAniCollisionBoxGrp::`scalar deleting destructor'
EXTRN	??1ioAniCollisionBoxGrp@@QAE@XZ:PROC		; ioAniCollisionBoxGrp::~ioAniCollisionBoxGrp
; Function compile flags: /Ogsp
;	COMDAT ??_GioAniCollisionBoxGrp@@QAEPAXI@Z
_TEXT	SEGMENT
___flags$ = 8						; size = 4
??_GioAniCollisionBoxGrp@@QAEPAXI@Z PROC		; ioAniCollisionBoxGrp::`scalar deleting destructor', COMDAT
; _this$ = ecx
  00000	55		 push	 ebp
  00001	8b ec		 mov	 ebp, esp
  00003	56		 push	 esi
  00004	8b f1		 mov	 esi, ecx
  00006	e8 00 00 00 00	 call	 ??1ioAniCollisionBoxGrp@@QAE@XZ ; ioAniCollisionBoxGrp::~ioAniCollisionBoxGrp
  0000b	f6 45 08 01	 test	 BYTE PTR ___flags$[ebp], 1
  0000f	74 07		 je	 SHORT $LN1@scalar@2
  00011	56		 push	 esi
  00012	e8 00 00 00 00	 call	 ??3@YAXPAX@Z		; operator delete
  00017	59		 pop	 ecx
$LN1@scalar@2:
  00018	8b c6		 mov	 eax, esi
  0001a	5e		 pop	 esi
  0001b	5d		 pop	 ebp
  0001c	c2 04 00	 ret	 4
??_GioAniCollisionBoxGrp@@QAEPAXI@Z ENDP		; ioAniCollisionBoxGrp::`scalar deleting destructor'
_TEXT	ENDS
PUBLIC	?_Adopt@_Iterator_base0@std@@QAEXPBX@Z		; std::_Iterator_base0::_Adopt
; Function compile flags: /Ogsp
; File c:\program files (x86)\microsoft visual studio 10.0\vc\include\xutility
;	COMDAT ?_Adopt@_Iterator_base0@std@@QAEXPBX@Z
_TEXT	SEGMENT
___formal$ = 8						; size = 4
?_Adopt@_Iterator_base0@std@@QAEXPBX@Z PROC		; std::_Iterator_base0::_Adopt, COMDAT
; _this$ = ecx

; 49   : 		}

  00000	c2 04 00	 ret	 4
?_Adopt@_Iterator_base0@std@@QAEXPBX@Z ENDP		; std::_Iterator_base0::_Adopt
_TEXT	ENDS
PUBLIC	??1?$_Pair_base@$$CBKVioHashString@@@std@@QAE@XZ ; std::_Pair_base<unsigned long const ,ioHashString>::~_Pair_base<unsigned long const ,ioHashString>
EXTRN	__imp_??1ioHashString@@QAE@XZ:PROC
; Function compile flags: /Ogsp
;	COMDAT ??1?$_Pair_base@$$CBKVioHashString@@@std@@QAE@XZ
_TEXT	SEGMENT
??1?$_Pair_base@$$CBKVioHashString@@@std@@QAE@XZ PROC	; std::_Pair_base<unsigned long const ,ioHashString>::~_Pair_base<unsigned long const ,ioHashString>, COMDAT
; _this$ = ecx
  00000	83 c1 04	 add	 ecx, 4
  00003	ff 25 00 00 00
	00		 jmp	 DWORD PTR __imp_??1ioHashString@@QAE@XZ
??1?$_Pair_base@$$CBKVioHashString@@@std@@QAE@XZ ENDP	; std::_Pair_base<unsigned long const ,ioHashString>::~_Pair_base<unsigned long const ,ioHashString>
_TEXT	ENDS
PUBLIC	?OnReleased@ioWeaponItem@@UAEXPAVioBaseChar@@@Z	; ioWeaponItem::OnReleased
EXTRN	__imp_??4ioHashString@@QAEAAV0@ABV0@@Z:PROC
EXTRN	?OnReleased@ioAttackableItem@@UAEXPAVioBaseChar@@@Z:PROC ; ioAttackableItem::OnReleased
; Function compile flags: /Ogsp
; File d:\lost saga for developer\youtube\tutorial\source\src\lsclient\ioweaponitem.cpp
;	COMDAT ?OnReleased@ioWeaponItem@@UAEXPAVioBaseChar@@@Z
_TEXT	SEGMENT
_pOwner$ = 8						; size = 4
?OnReleased@ioWeaponItem@@UAEXPAVioBaseChar@@@Z PROC	; ioWeaponItem::OnReleased, COMDAT
; _this$ = ecx

; 206  : {

  00000	55		 push	 ebp
  00001	8b ec		 mov	 ebp, esp
  00003	56		 push	 esi

; 207  : 	ioAttackableItem::OnReleased( pOwner );

  00004	ff 75 08	 push	 DWORD PTR _pOwner$[ebp]
  00007	8b f1		 mov	 esi, ecx
  00009	e8 00 00 00 00	 call	 ?OnReleased@ioAttackableItem@@UAEXPAVioBaseChar@@@Z ; ioAttackableItem::OnReleased

; 208  : 
; 209  : 	m_CurEquipMesh = m_EquipMesh;

  0000e	8d 86 a8 17 00
	00		 lea	 eax, DWORD PTR [esi+6056]
  00014	50		 push	 eax
  00015	8d 8e c8 17 00
	00		 lea	 ecx, DWORD PTR [esi+6088]
  0001b	ff 15 00 00 00
	00		 call	 DWORD PTR __imp_??4ioHashString@@QAEAAV0@ABV0@@Z

; 210  : 	m_pCurAniCollisionGrp = m_pAniCollisionGrp;

  00021	8b 86 9c 18 00
	00		 mov	 eax, DWORD PTR [esi+6300]
  00027	89 86 a4 18 00
	00		 mov	 DWORD PTR [esi+6308], eax
  0002d	5e		 pop	 esi

; 211  : }

  0002e	5d		 pop	 ebp
  0002f	c2 04 00	 ret	 4
?OnReleased@ioWeaponItem@@UAEXPAVioBaseChar@@@Z ENDP	; ioWeaponItem::OnReleased
_TEXT	ENDS
PUBLIC	?IsOneTimeWeaponItem@ioWeaponItem@@UBE_NXZ	; ioWeaponItem::IsOneTimeWeaponItem
; Function compile flags: /Ogsp
;	COMDAT ?IsOneTimeWeaponItem@ioWeaponItem@@UBE_NXZ
_TEXT	SEGMENT
?IsOneTimeWeaponItem@ioWeaponItem@@UBE_NXZ PROC		; ioWeaponItem::IsOneTimeWeaponItem, COMDAT
; _this$ = ecx

; 215  : 	return false;

  00000	32 c0		 xor	 al, al

; 216  : }

  00002	c3		 ret	 0
?IsOneTimeWeaponItem@ioWeaponItem@@UBE_NXZ ENDP		; ioWeaponItem::IsOneTimeWeaponItem
_TEXT	ENDS
PUBLIC	__real@40000000
PUBLIC	?AddGlowLine@ioWeaponItem@@UAEXPAVioBaseChar@@@Z ; ioWeaponItem::AddGlowLine
EXTRN	?AddGlowLine@ioBaseChar@@QAE_NABVioHashString@@ABU_D3DCOLORVALUE@@M@Z:PROC ; ioBaseChar::AddGlowLine
EXTRN	__fltused:DWORD
;	COMDAT __real@40000000
CONST	SEGMENT
__real@40000000 DD 040000000r			; 2
; Function compile flags: /Ogsp
CONST	ENDS
;	COMDAT ?AddGlowLine@ioWeaponItem@@UAEXPAVioBaseChar@@@Z
_TEXT	SEGMENT
_pOwner$ = 8						; size = 4
?AddGlowLine@ioWeaponItem@@UAEXPAVioBaseChar@@@Z PROC	; ioWeaponItem::AddGlowLine, COMDAT
; _this$ = ecx

; 219  : {

  00000	55		 push	 ebp
  00001	8b ec		 mov	 ebp, esp

; 220  : 	pOwner->AddGlowLine( m_CurEquipMesh, m_GlowColor, 2.0f );

  00003	f3 0f 10 05 00
	00 00 00	 movss	 xmm0, DWORD PTR __real@40000000
  0000b	51		 push	 ecx
  0000c	8d 81 54 02 00
	00		 lea	 eax, DWORD PTR [ecx+596]
  00012	f3 0f 11 04 24	 movss	 DWORD PTR [esp], xmm0
  00017	81 c1 c8 17 00
	00		 add	 ecx, 6088		; 000017c8H
  0001d	50		 push	 eax
  0001e	51		 push	 ecx
  0001f	8b 4d 08	 mov	 ecx, DWORD PTR _pOwner$[ebp]
  00022	e8 00 00 00 00	 call	 ?AddGlowLine@ioBaseChar@@QAE_NABVioHashString@@ABU_D3DCOLORVALUE@@M@Z ; ioBaseChar::AddGlowLine

; 221  : }

  00027	5d		 pop	 ebp
  00028	c2 04 00	 ret	 4
?AddGlowLine@ioWeaponItem@@UAEXPAVioBaseChar@@@Z ENDP	; ioWeaponItem::AddGlowLine
_TEXT	ENDS
PUBLIC	?RemoveGlowLine@ioWeaponItem@@UAEXPAVioBaseChar@@@Z ; ioWeaponItem::RemoveGlowLine
EXTRN	?RemoveGlowLine@ioBaseChar@@QAE_NABVioHashString@@@Z:PROC ; ioBaseChar::RemoveGlowLine
; Function compile flags: /Ogsp
;	COMDAT ?RemoveGlowLine@ioWeaponItem@@UAEXPAVioBaseChar@@@Z
_TEXT	SEGMENT
_pOwner$ = 8						; size = 4
?RemoveGlowLine@ioWeaponItem@@UAEXPAVioBaseChar@@@Z PROC ; ioWeaponItem::RemoveGlowLine, COMDAT
; _this$ = ecx

; 224  : {

  00000	55		 push	 ebp
  00001	8b ec		 mov	 ebp, esp

; 225  : 	pOwner->RemoveGlowLine( m_CurEquipMesh );

  00003	81 c1 c8 17 00
	00		 add	 ecx, 6088		; 000017c8H
  00009	51		 push	 ecx
  0000a	8b 4d 08	 mov	 ecx, DWORD PTR _pOwner$[ebp]
  0000d	e8 00 00 00 00	 call	 ?RemoveGlowLine@ioBaseChar@@QAE_NABVioHashString@@@Z ; ioBaseChar::RemoveGlowLine

; 226  : }

  00012	5d		 pop	 ebp
  00013	c2 04 00	 ret	 4
?RemoveGlowLine@ioWeaponItem@@UAEXPAVioBaseChar@@@Z ENDP ; ioWeaponItem::RemoveGlowLine
_TEXT	ENDS
PUBLIC	?GetType@ioWeaponItem@@UBE?AW4ItemType@ioItem@@XZ ; ioWeaponItem::GetType
; Function compile flags: /Ogsp
;	COMDAT ?GetType@ioWeaponItem@@UBE?AW4ItemType@ioItem@@XZ
_TEXT	SEGMENT
?GetType@ioWeaponItem@@UBE?AW4ItemType@ioItem@@XZ PROC	; ioWeaponItem::GetType, COMDAT
; _this$ = ecx

; 230  : 	return IT_WEAPON;

  00000	33 c0		 xor	 eax, eax
  00002	40		 inc	 eax

; 231  : }

  00003	c3		 ret	 0
?GetType@ioWeaponItem@@UBE?AW4ItemType@ioItem@@XZ ENDP	; ioWeaponItem::GetType
_TEXT	ENDS
PUBLIC	?SetChangeEquipMesh@ioWeaponItem@@QAEX_N@Z	; ioWeaponItem::SetChangeEquipMesh
EXTRN	__imp_?IsEmpty@ioHashString@@QBE_NXZ:PROC
; Function compile flags: /Ogsp
;	COMDAT ?SetChangeEquipMesh@ioWeaponItem@@QAEX_N@Z
_TEXT	SEGMENT
_bChangeEquip$ = 8					; size = 1
?SetChangeEquipMesh@ioWeaponItem@@QAEX_N@Z PROC		; ioWeaponItem::SetChangeEquipMesh, COMDAT
; _this$ = ecx

; 234  : {

  00000	55		 push	 ebp
  00001	8b ec		 mov	 ebp, esp

; 235  : 	if( bChangeEquip && !m_CurEquipMesh.IsEmpty() )

  00003	80 7d 08 00	 cmp	 BYTE PTR _bChangeEquip$[ebp], 0
  00007	56		 push	 esi
  00008	57		 push	 edi
  00009	8b f1		 mov	 esi, ecx
  0000b	74 2b		 je	 SHORT $LN2@SetChangeE
  0000d	8d 8e c8 17 00
	00		 lea	 ecx, DWORD PTR [esi+6088]
  00013	ff 15 00 00 00
	00		 call	 DWORD PTR __imp_?IsEmpty@ioHashString@@QBE_NXZ
  00019	84 c0		 test	 al, al
  0001b	75 1b		 jne	 SHORT $LN2@SetChangeE

; 236  : 	{
; 237  : 		m_CurEquipMesh = m_ChangeEquipMesh;

  0001d	8d 86 d8 17 00
	00		 lea	 eax, DWORD PTR [esi+6104]
  00023	50		 push	 eax
  00024	8d 8e c8 17 00
	00		 lea	 ecx, DWORD PTR [esi+6088]
  0002a	ff 15 00 00 00
	00		 call	 DWORD PTR __imp_??4ioHashString@@QAEAAV0@ABV0@@Z

; 238  : 		m_pCurAniCollisionGrp = m_pChangeAniCollisionGrp;

  00030	8b 86 a0 18 00
	00		 mov	 eax, DWORD PTR [esi+6304]

; 239  : 	}
; 240  : 	else

  00036	eb 19		 jmp	 SHORT $LN5@SetChangeE
$LN2@SetChangeE:

; 241  : 	{
; 242  : 		m_CurEquipMesh = m_EquipMesh;

  00038	8d 86 a8 17 00
	00		 lea	 eax, DWORD PTR [esi+6056]
  0003e	50		 push	 eax
  0003f	8d 8e c8 17 00
	00		 lea	 ecx, DWORD PTR [esi+6088]
  00045	ff 15 00 00 00
	00		 call	 DWORD PTR __imp_??4ioHashString@@QAEAAV0@ABV0@@Z

; 243  : 		m_pCurAniCollisionGrp = m_pAniCollisionGrp;

  0004b	8b 86 9c 18 00
	00		 mov	 eax, DWORD PTR [esi+6300]
$LN5@SetChangeE:
  00051	5f		 pop	 edi
  00052	89 86 a4 18 00
	00		 mov	 DWORD PTR [esi+6308], eax
  00058	5e		 pop	 esi

; 244  : 	}
; 245  : }

  00059	5d		 pop	 ebp
  0005a	c2 04 00	 ret	 4
?SetChangeEquipMesh@ioWeaponItem@@QAEX_N@Z ENDP		; ioWeaponItem::SetChangeEquipMesh
_TEXT	ENDS
PUBLIC	?GetEquipMesh@ioWeaponItem@@UBEABVioHashString@@PAVioBaseChar@@@Z ; ioWeaponItem::GetEquipMesh
; Function compile flags: /Ogsp
;	COMDAT ?GetEquipMesh@ioWeaponItem@@UBEABVioHashString@@PAVioBaseChar@@@Z
_TEXT	SEGMENT
_pOwner$ = 8						; size = 4
?GetEquipMesh@ioWeaponItem@@UBEABVioHashString@@PAVioBaseChar@@@Z PROC ; ioWeaponItem::GetEquipMesh, COMDAT
; _this$ = ecx

; 249  : 	return m_EquipMesh;

  00000	8d 81 a8 17 00
	00		 lea	 eax, DWORD PTR [ecx+6056]

; 250  : }

  00006	c2 04 00	 ret	 4
?GetEquipMesh@ioWeaponItem@@UBEABVioHashString@@PAVioBaseChar@@@Z ENDP ; ioWeaponItem::GetEquipMesh
_TEXT	ENDS
PUBLIC	?ReleaseObjectState@ioWeaponItem@@UAEXPAVioBaseChar@@PAVioObjectItem@@@Z ; ioWeaponItem::ReleaseObjectState
; Function compile flags: /Ogsp
;	COMDAT ?ReleaseObjectState@ioWeaponItem@@UAEXPAVioBaseChar@@PAVioObjectItem@@@Z
_TEXT	SEGMENT
_pOwner$ = 8						; size = 4
_pReleasedObject$ = 12					; size = 4
?ReleaseObjectState@ioWeaponItem@@UAEXPAVioBaseChar@@PAVioObjectItem@@@Z PROC ; ioWeaponItem::ReleaseObjectState, COMDAT
; _this$ = ecx

; 255  : 
; 256  : }

  00000	c2 08 00	 ret	 8
?ReleaseObjectState@ioWeaponItem@@UAEXPAVioBaseChar@@PAVioObjectItem@@@Z ENDP ; ioWeaponItem::ReleaseObjectState
_TEXT	ENDS
PUBLIC	?WeaponWounded@ioWeaponItem@@UAEXPAVioWeapon@@PAVioBaseChar@@@Z ; ioWeaponItem::WeaponWounded
; Function compile flags: /Ogsp
;	COMDAT ?WeaponWounded@ioWeaponItem@@UAEXPAVioWeapon@@PAVioBaseChar@@@Z
_TEXT	SEGMENT
_pWeapon$ = 8						; size = 4
_pWoundChar$ = 12					; size = 4
?WeaponWounded@ioWeaponItem@@UAEXPAVioWeapon@@PAVioBaseChar@@@Z PROC ; ioWeaponItem::WeaponWounded, COMDAT
; _this$ = ecx

; 261  : 
; 262  : }

  00000	c2 08 00	 ret	 8
?WeaponWounded@ioWeaponItem@@UAEXPAVioWeapon@@PAVioBaseChar@@@Z ENDP ; ioWeaponItem::WeaponWounded
_TEXT	ENDS
PUBLIC	?IsCanSendControl@ioWeaponItem@@UBE_NXZ		; ioWeaponItem::IsCanSendControl
; Function compile flags: /Ogsp
;	COMDAT ?IsCanSendControl@ioWeaponItem@@UBE_NXZ
_TEXT	SEGMENT
?IsCanSendControl@ioWeaponItem@@UBE_NXZ PROC		; ioWeaponItem::IsCanSendControl, COMDAT
; _this$ = ecx

; 266  : 	return true;

  00000	b0 01		 mov	 al, 1

; 267  : }

  00002	c3		 ret	 0
?IsCanSendControl@ioWeaponItem@@UBE_NXZ ENDP		; ioWeaponItem::IsCanSendControl
_TEXT	ENDS
PUBLIC	?IsCmdCheckEnableTime@ioWeaponItem@@UAE_NXZ	; ioWeaponItem::IsCmdCheckEnableTime
; Function compile flags: /Ogsp
;	COMDAT ?IsCmdCheckEnableTime@ioWeaponItem@@UAE_NXZ
_TEXT	SEGMENT
?IsCmdCheckEnableTime@ioWeaponItem@@UAE_NXZ PROC	; ioWeaponItem::IsCmdCheckEnableTime, COMDAT
; _this$ = ecx

; 272  : 	return false;

  00000	32 c0		 xor	 al, al

; 273  : }

  00002	c3		 ret	 0
?IsCmdCheckEnableTime@ioWeaponItem@@UAE_NXZ ENDP	; ioWeaponItem::IsCmdCheckEnableTime
_TEXT	ENDS
PUBLIC	?IsCmdSuccess@ioWeaponItem@@UAE_NXZ		; ioWeaponItem::IsCmdSuccess
; Function compile flags: /Ogsp
;	COMDAT ?IsCmdSuccess@ioWeaponItem@@UAE_NXZ
_TEXT	SEGMENT
?IsCmdSuccess@ioWeaponItem@@UAE_NXZ PROC		; ioWeaponItem::IsCmdSuccess, COMDAT
; _this$ = ecx

; 278  : 	return false;

  00000	32 c0		 xor	 al, al

; 279  : }

  00002	c3		 ret	 0
?IsCmdSuccess@ioWeaponItem@@UAE_NXZ ENDP		; ioWeaponItem::IsCmdSuccess
_TEXT	ENDS
PUBLIC	??A?$vector@VioHashString@@V?$allocator@VioHashString@@@std@@@std@@QBEABVioHashString@@I@Z ; std::vector<ioHashString,std::allocator<ioHashString> >::operator[]
; Function compile flags: /Ogsp
; File c:\program files (x86)\microsoft visual studio 10.0\vc\include\vector
;	COMDAT ??A?$vector@VioHashString@@V?$allocator@VioHashString@@@std@@@std@@QBEABVioHashString@@I@Z
_TEXT	SEGMENT
__Pos$ = 8						; size = 4
??A?$vector@VioHashString@@V?$allocator@VioHashString@@@std@@@std@@QBEABVioHashString@@I@Z PROC ; std::vector<ioHashString,std::allocator<ioHashString> >::operator[], COMDAT
; _this$ = ecx

; 912  : 		{	// subscript nonmutable sequence

  00000	55		 push	 ebp
  00001	8b ec		 mov	 ebp, esp

; 913  :  #if _ITERATOR_DEBUG_LEVEL == 2
; 914  : 		if (size() <= _Pos)
; 915  : 			{	// report error
; 916  : 			_DEBUG_ERROR("vector subscript out of range");
; 917  : 			_SCL_SECURE_OUT_OF_RANGE;
; 918  : 			}
; 919  : 
; 920  :  #elif _ITERATOR_DEBUG_LEVEL == 1
; 921  : 		_SCL_SECURE_VALIDATE_RANGE(_Pos < size());
; 922  :  #endif /* _ITERATOR_DEBUG_LEVEL */
; 923  : 
; 924  : 		return (*(this->_Myfirst + _Pos));

  00003	8b 45 08	 mov	 eax, DWORD PTR __Pos$[ebp]
  00006	c1 e0 04	 shl	 eax, 4
  00009	03 01		 add	 eax, DWORD PTR [ecx]

; 925  : 		}

  0000b	5d		 pop	 ebp
  0000c	c2 04 00	 ret	 4
??A?$vector@VioHashString@@V?$allocator@VioHashString@@@std@@@std@@QBEABVioHashString@@I@Z ENDP ; std::vector<ioHashString,std::allocator<ioHashString> >::operator[]
_TEXT	ENDS
PUBLIC	?_Inside@?$vector@VioHashString@@V?$allocator@VioHashString@@@std@@@std@@IBE_NPBVioHashString@@@Z ; std::vector<ioHashString,std::allocator<ioHashString> >::_Inside
; Function compile flags: /Ogsp
;	COMDAT ?_Inside@?$vector@VioHashString@@V?$allocator@VioHashString@@@std@@@std@@IBE_NPBVioHashString@@@Z
_TEXT	SEGMENT
__Ptr$ = 8						; size = 4
?_Inside@?$vector@VioHashString@@V?$allocator@VioHashString@@@std@@@std@@IBE_NPBVioHashString@@@Z PROC ; std::vector<ioHashString,std::allocator<ioHashString> >::_Inside, COMDAT
; _this$ = ecx

; 1285 : 		{	// test if _Ptr points inside vector

  00000	55		 push	 ebp
  00001	8b ec		 mov	 ebp, esp

; 1286 : 		return (_Ptr < this->_Mylast && this->_Myfirst <= _Ptr);

  00003	8b 45 08	 mov	 eax, DWORD PTR __Ptr$[ebp]
  00006	3b 41 04	 cmp	 eax, DWORD PTR [ecx+4]
  00009	73 09		 jae	 SHORT $LN3@Inside
  0000b	39 01		 cmp	 DWORD PTR [ecx], eax
  0000d	77 05		 ja	 SHORT $LN3@Inside
  0000f	33 c0		 xor	 eax, eax
  00011	40		 inc	 eax
  00012	eb 02		 jmp	 SHORT $LN4@Inside
$LN3@Inside:
  00014	33 c0		 xor	 eax, eax
$LN4@Inside:

; 1287 : 		}

  00016	5d		 pop	 ebp
  00017	c2 04 00	 ret	 4
?_Inside@?$vector@VioHashString@@V?$allocator@VioHashString@@@std@@@std@@IBE_NPBVioHashString@@@Z ENDP ; std::vector<ioHashString,std::allocator<ioHashString> >::_Inside
_TEXT	ENDS
PUBLIC	?_Orphan_range@?$vector@VioHashString@@V?$allocator@VioHashString@@@std@@@std@@IBEXPAVioHashString@@0@Z ; std::vector<ioHashString,std::allocator<ioHashString> >::_Orphan_range
; Function compile flags: /Ogsp
;	COMDAT ?_Orphan_range@?$vector@VioHashString@@V?$allocator@VioHashString@@@std@@@std@@IBEXPAVioHashString@@0@Z
_TEXT	SEGMENT
___formal$ = 8						; size = 4
___formal$ = 12						; size = 4
?_Orphan_range@?$vector@VioHashString@@V?$allocator@VioHashString@@@std@@@std@@IBEXPAVioHashString@@0@Z PROC ; std::vector<ioHashString,std::allocator<ioHashString> >::_Orphan_range, COMDAT
; _this$ = ecx

; 1454 : 		}

  00000	c2 08 00	 ret	 8
?_Orphan_range@?$vector@VioHashString@@V?$allocator@VioHashString@@@std@@@std@@IBEXPAVioHashString@@0@Z ENDP ; std::vector<ioHashString,std::allocator<ioHashString> >::_Orphan_range
_TEXT	ENDS
PUBLIC	??R?$less@K@std@@QBE_NABK0@Z			; std::less<unsigned long>::operator()
; Function compile flags: /Ogsp
; File c:\program files (x86)\microsoft visual studio 10.0\vc\include\xfunctional
;	COMDAT ??R?$less@K@std@@QBE_NABK0@Z
_TEXT	SEGMENT
__Left$ = 8						; size = 4
__Right$ = 12						; size = 4
??R?$less@K@std@@QBE_NABK0@Z PROC			; std::less<unsigned long>::operator(), COMDAT
; _this$ = ecx

; 124  : 		{	// apply operator< to operands

  00000	55		 push	 ebp
  00001	8b ec		 mov	 ebp, esp

; 125  : 		return (_Left < _Right);

  00003	8b 45 08	 mov	 eax, DWORD PTR __Left$[ebp]
  00006	8b 00		 mov	 eax, DWORD PTR [eax]
  00008	8b 4d 0c	 mov	 ecx, DWORD PTR __Right$[ebp]
  0000b	3b 01		 cmp	 eax, DWORD PTR [ecx]
  0000d	1b c0		 sbb	 eax, eax
  0000f	f7 d8		 neg	 eax

; 126  : 		}

  00011	5d		 pop	 ebp
  00012	c2 08 00	 ret	 8
??R?$less@K@std@@QBE_NABK0@Z ENDP			; std::less<unsigned long>::operator()
_TEXT	ENDS
PUBLIC	??0?$allocator@U?$pair@$$CBKVioHashString@@@std@@@std@@QAE@XZ ; std::allocator<std::pair<unsigned long const ,ioHashString> >::allocator<std::pair<unsigned long const ,ioHashString> >
; Function compile flags: /Ogsp
; File c:\program files (x86)\microsoft visual studio 10.0\vc\include\xmemory
;	COMDAT ??0?$allocator@U?$pair@$$CBKVioHashString@@@std@@@std@@QAE@XZ
_TEXT	SEGMENT
??0?$allocator@U?$pair@$$CBKVioHashString@@@std@@@std@@QAE@XZ PROC ; std::allocator<std::pair<unsigned long const ,ioHashString> >::allocator<std::pair<unsigned long const ,ioHashString> >, COMDAT
; _this$ = ecx

; 161  : 	_ALLOCATOR() _THROW0()

  00000	8b c1		 mov	 eax, ecx

; 162  : 		{	// construct default allocator (do nothing)
; 163  : 		}

  00002	c3		 ret	 0
??0?$allocator@U?$pair@$$CBKVioHashString@@@std@@@std@@QAE@XZ ENDP ; std::allocator<std::pair<unsigned long const ,ioHashString> >::allocator<std::pair<unsigned long const ,ioHashString> >
_TEXT	ENDS
PUBLIC	??8?$_Tree_const_iterator@V?$_Tree_val@V?$_Tmap_traits@KVioHashString@@U?$less@K@std@@V?$allocator@U?$pair@$$CBKVioHashString@@@std@@@3@$0A@@std@@@std@@@std@@QBE_NABV01@@Z ; std::_Tree_const_iterator<std::_Tree_val<std::_Tmap_traits<unsigned long,ioHashString,std::less<unsigned long>,std::allocator<std::pair<unsigned long const ,ioHashString> >,0> > >::operator==
; Function compile flags: /Ogsp
; File c:\program files (x86)\microsoft visual studio 10.0\vc\include\xtree
;	COMDAT ??8?$_Tree_const_iterator@V?$_Tree_val@V?$_Tmap_traits@KVioHashString@@U?$less@K@std@@V?$allocator@U?$pair@$$CBKVioHashString@@@std@@@3@$0A@@std@@@std@@@std@@QBE_NABV01@@Z
_TEXT	SEGMENT
__Right$ = 8						; size = 4
??8?$_Tree_const_iterator@V?$_Tree_val@V?$_Tmap_traits@KVioHashString@@U?$less@K@std@@V?$allocator@U?$pair@$$CBKVioHashString@@@std@@@3@$0A@@std@@@std@@@std@@QBE_NABV01@@Z PROC ; std::_Tree_const_iterator<std::_Tree_val<std::_Tmap_traits<unsigned long,ioHashString,std::less<unsigned long>,std::allocator<std::pair<unsigned long const ,ioHashString> >,0> > >::operator==, COMDAT
; _this$ = ecx

; 316  : 		{	// test for iterator equality

  00000	55		 push	 ebp
  00001	8b ec		 mov	 ebp, esp

; 317  :  #if _ITERATOR_DEBUG_LEVEL == 2
; 318  : 		if (this->_Getcont() == 0
; 319  : 			|| this->_Getcont() != _Right._Getcont())
; 320  : 			{	// report error
; 321  : 			_DEBUG_ERROR("map/set iterators incompatible");
; 322  : 			_SCL_SECURE_INVALID_ARGUMENT;
; 323  : 			}
; 324  : 
; 325  :  #elif _ITERATOR_DEBUG_LEVEL == 1
; 326  : 		_SCL_SECURE_VALIDATE(this->_Getcont() != 0
; 327  : 			&& this->_Getcont() == _Right._Getcont());
; 328  :  #endif /* _ITERATOR_DEBUG_LEVEL */
; 329  : 
; 330  : 		return (this->_Ptr == _Right._Ptr);

  00003	8b 01		 mov	 eax, DWORD PTR [ecx]
  00005	8b 4d 08	 mov	 ecx, DWORD PTR __Right$[ebp]
  00008	2b 01		 sub	 eax, DWORD PTR [ecx]
  0000a	f7 d8		 neg	 eax
  0000c	1b c0		 sbb	 eax, eax
  0000e	40		 inc	 eax

; 331  : 		}

  0000f	5d		 pop	 ebp
  00010	c2 04 00	 ret	 4
??8?$_Tree_const_iterator@V?$_Tree_val@V?$_Tmap_traits@KVioHashString@@U?$less@K@std@@V?$allocator@U?$pair@$$CBKVioHashString@@@std@@@3@$0A@@std@@@std@@@std@@QBE_NABV01@@Z ENDP ; std::_Tree_const_iterator<std::_Tree_val<std::_Tmap_traits<unsigned long,ioHashString,std::less<unsigned long>,std::allocator<std::pair<unsigned long const ,ioHashString> >,0> > >::operator==
_TEXT	ENDS
PUBLIC	?_Mynode@?$_Tree_unchecked_const_iterator@V?$_Tree_val@V?$_Tmap_traits@KVioHashString@@U?$less@K@std@@V?$allocator@U?$pair@$$CBKVioHashString@@@std@@@3@$0A@@std@@@std@@U_Iterator_base0@2@@std@@QBEPAU_Node@?$_Tree_nod@V?$_Tmap_traits@KVioHashString@@U?$less@K@std@@V?$allocator@U?$pair@$$CBKVioHashString@@@std@@@3@$0A@@std@@@2@XZ ; std::_Tree_unchecked_const_iterator<std::_Tree_val<std::_Tmap_traits<unsigned long,ioHashString,std::less<unsigned long>,std::allocator<std::pair<unsigned long const ,ioHashString> >,0> >,std::_Iterator_base0>::_Mynode
; Function compile flags: /Ogsp
;	COMDAT ?_Mynode@?$_Tree_unchecked_const_iterator@V?$_Tree_val@V?$_Tmap_traits@KVioHashString@@U?$less@K@std@@V?$allocator@U?$pair@$$CBKVioHashString@@@std@@@3@$0A@@std@@@std@@U_Iterator_base0@2@@std@@QBEPAU_Node@?$_Tree_nod@V?$_Tmap_traits@KVioHashString@@U?$less@K@std@@V?$allocator@U?$pair@$$CBKVioHashString@@@std@@@3@$0A@@std@@@2@XZ
_TEXT	SEGMENT
?_Mynode@?$_Tree_unchecked_const_iterator@V?$_Tree_val@V?$_Tmap_traits@KVioHashString@@U?$less@K@std@@V?$allocator@U?$pair@$$CBKVioHashString@@@std@@@3@$0A@@std@@@std@@U_Iterator_base0@2@@std@@QBEPAU_Node@?$_Tree_nod@V?$_Tmap_traits@KVioHashString@@U?$less@K@std@@V?$allocator@U?$pair@$$CBKVioHashString@@@std@@@3@$0A@@std@@@2@XZ PROC ; std::_Tree_unchecked_const_iterator<std::_Tree_val<std::_Tmap_traits<unsigned long,ioHashString,std::less<unsigned long>,std::allocator<std::pair<unsigned long const ,ioHashString> >,0> >,std::_Iterator_base0>::_Mynode, COMDAT
; _this$ = ecx

; 122  : 		return (_Ptr);

  00000	8b 01		 mov	 eax, DWORD PTR [ecx]

; 123  : 		}

  00002	c3		 ret	 0
?_Mynode@?$_Tree_unchecked_const_iterator@V?$_Tree_val@V?$_Tmap_traits@KVioHashString@@U?$less@K@std@@V?$allocator@U?$pair@$$CBKVioHashString@@@std@@@3@$0A@@std@@@std@@U_Iterator_base0@2@@std@@QBEPAU_Node@?$_Tree_nod@V?$_Tmap_traits@KVioHashString@@U?$less@K@std@@V?$allocator@U?$pair@$$CBKVioHashString@@@std@@@3@$0A@@std@@@2@XZ ENDP ; std::_Tree_unchecked_const_iterator<std::_Tree_val<std::_Tmap_traits<unsigned long,ioHashString,std::less<unsigned long>,std::allocator<std::pair<unsigned long const ,ioHashString> >,0> >,std::_Iterator_base0>::_Mynode
_TEXT	ENDS
PUBLIC	?capacity@?$vector@VioHashString@@V?$allocator@VioHashString@@@std@@@std@@QBEIXZ ; std::vector<ioHashString,std::allocator<ioHashString> >::capacity
; Function compile flags: /Ogsp
; File c:\program files (x86)\microsoft visual studio 10.0\vc\include\vector
;	COMDAT ?capacity@?$vector@VioHashString@@V?$allocator@VioHashString@@@std@@@std@@QBEIXZ
_TEXT	SEGMENT
?capacity@?$vector@VioHashString@@V?$allocator@VioHashString@@@std@@@std@@QBEIXZ PROC ; std::vector<ioHashString,std::allocator<ioHashString> >::capacity, COMDAT
; _this$ = ecx

; 777  : 		return (this->_Myend - this->_Myfirst);

  00000	8b 41 08	 mov	 eax, DWORD PTR [ecx+8]
  00003	2b 01		 sub	 eax, DWORD PTR [ecx]
  00005	c1 f8 04	 sar	 eax, 4

; 778  : 		}

  00008	c3		 ret	 0
?capacity@?$vector@VioHashString@@V?$allocator@VioHashString@@@std@@@std@@QBEIXZ ENDP ; std::vector<ioHashString,std::allocator<ioHashString> >::capacity
_TEXT	ENDS
PUBLIC	?_Isnil@?$_Tree_val@V?$_Tmap_traits@KVioHashString@@U?$less@K@std@@V?$allocator@U?$pair@$$CBKVioHashString@@@std@@@3@$0A@@std@@@std@@SAAADPAU_Node@?$_Tree_nod@V?$_Tmap_traits@KVioHashString@@U?$less@K@std@@V?$allocator@U?$pair@$$CBKVioHashString@@@std@@@3@$0A@@std@@@2@@Z ; std::_Tree_val<std::_Tmap_traits<unsigned long,ioHashString,std::less<unsigned long>,std::allocator<std::pair<unsigned long const ,ioHashString> >,0> >::_Isnil
; Function compile flags: /Ogsp
; File c:\program files (x86)\microsoft visual studio 10.0\vc\include\xtree
;	COMDAT ?_Isnil@?$_Tree_val@V?$_Tmap_traits@KVioHashString@@U?$less@K@std@@V?$allocator@U?$pair@$$CBKVioHashString@@@std@@@3@$0A@@std@@@std@@SAAADPAU_Node@?$_Tree_nod@V?$_Tmap_traits@KVioHashString@@U?$less@K@std@@V?$allocator@U?$pair@$$CBKVioHashString@@@std@@@3@$0A@@std@@@2@@Z
_TEXT	SEGMENT
__Pnode$ = 8						; size = 4
?_Isnil@?$_Tree_val@V?$_Tmap_traits@KVioHashString@@U?$less@K@std@@V?$allocator@U?$pair@$$CBKVioHashString@@@std@@@3@$0A@@std@@@std@@SAAADPAU_Node@?$_Tree_nod@V?$_Tmap_traits@KVioHashString@@U?$less@K@std@@V?$allocator@U?$pair@$$CBKVioHashString@@@std@@@3@$0A@@std@@@2@@Z PROC ; std::_Tree_val<std::_Tmap_traits<unsigned long,ioHashString,std::less<unsigned long>,std::allocator<std::pair<unsigned long const ,ioHashString> >,0> >::_Isnil, COMDAT

; 611  : 		{	// return reference to nil flag in node

  00000	55		 push	 ebp
  00001	8b ec		 mov	 ebp, esp

; 612  : 		return ((char&)(*_Pnode)._Isnil);

  00003	8b 45 08	 mov	 eax, DWORD PTR __Pnode$[ebp]
  00006	83 c0 21	 add	 eax, 33			; 00000021H

; 613  : 		}

  00009	5d		 pop	 ebp
  0000a	c3		 ret	 0
?_Isnil@?$_Tree_val@V?$_Tmap_traits@KVioHashString@@U?$less@K@std@@V?$allocator@U?$pair@$$CBKVioHashString@@@std@@@3@$0A@@std@@@std@@SAAADPAU_Node@?$_Tree_nod@V?$_Tmap_traits@KVioHashString@@U?$less@K@std@@V?$allocator@U?$pair@$$CBKVioHashString@@@std@@@3@$0A@@std@@@2@@Z ENDP ; std::_Tree_val<std::_Tmap_traits<unsigned long,ioHashString,std::less<unsigned long>,std::allocator<std::pair<unsigned long const ,ioHashString> >,0> >::_Isnil
_TEXT	ENDS
PUBLIC	?_Left@?$_Tree_val@V?$_Tmap_traits@KVioHashString@@U?$less@K@std@@V?$allocator@U?$pair@$$CBKVioHashString@@@std@@@3@$0A@@std@@@std@@SAAAPAU_Node@?$_Tree_nod@V?$_Tmap_traits@KVioHashString@@U?$less@K@std@@V?$allocator@U?$pair@$$CBKVioHashString@@@std@@@3@$0A@@std@@@2@PAU342@@Z ; std::_Tree_val<std::_Tmap_traits<unsigned long,ioHashString,std::less<unsigned long>,std::allocator<std::pair<unsigned long const ,ioHashString> >,0> >::_Left
; Function compile flags: /Ogsp
;	COMDAT ?_Left@?$_Tree_val@V?$_Tmap_traits@KVioHashString@@U?$less@K@std@@V?$allocator@U?$pair@$$CBKVioHashString@@@std@@@3@$0A@@std@@@std@@SAAAPAU_Node@?$_Tree_nod@V?$_Tmap_traits@KVioHashString@@U?$less@K@std@@V?$allocator@U?$pair@$$CBKVioHashString@@@std@@@3@$0A@@std@@@2@PAU342@@Z
_TEXT	SEGMENT
__Pnode$ = 8						; size = 4
?_Left@?$_Tree_val@V?$_Tmap_traits@KVioHashString@@U?$less@K@std@@V?$allocator@U?$pair@$$CBKVioHashString@@@std@@@3@$0A@@std@@@std@@SAAAPAU_Node@?$_Tree_nod@V?$_Tmap_traits@KVioHashString@@U?$less@K@std@@V?$allocator@U?$pair@$$CBKVioHashString@@@std@@@3@$0A@@std@@@2@PAU342@@Z PROC ; std::_Tree_val<std::_Tmap_traits<unsigned long,ioHashString,std::less<unsigned long>,std::allocator<std::pair<unsigned long const ,ioHashString> >,0> >::_Left, COMDAT

; 621  : 		{	// return reference to left pointer in node

  00000	55		 push	 ebp
  00001	8b ec		 mov	 ebp, esp

; 622  : 		return ((_Nodepref)(*_Pnode)._Left);

  00003	8b 45 08	 mov	 eax, DWORD PTR __Pnode$[ebp]

; 623  : 		}

  00006	5d		 pop	 ebp
  00007	c3		 ret	 0
?_Left@?$_Tree_val@V?$_Tmap_traits@KVioHashString@@U?$less@K@std@@V?$allocator@U?$pair@$$CBKVioHashString@@@std@@@3@$0A@@std@@@std@@SAAAPAU_Node@?$_Tree_nod@V?$_Tmap_traits@KVioHashString@@U?$less@K@std@@V?$allocator@U?$pair@$$CBKVioHashString@@@std@@@3@$0A@@std@@@2@PAU342@@Z ENDP ; std::_Tree_val<std::_Tmap_traits<unsigned long,ioHashString,std::less<unsigned long>,std::allocator<std::pair<unsigned long const ,ioHashString> >,0> >::_Left
_TEXT	ENDS
PUBLIC	?_Parent@?$_Tree_val@V?$_Tmap_traits@KVioHashString@@U?$less@K@std@@V?$allocator@U?$pair@$$CBKVioHashString@@@std@@@3@$0A@@std@@@std@@SAAAPAU_Node@?$_Tree_nod@V?$_Tmap_traits@KVioHashString@@U?$less@K@std@@V?$allocator@U?$pair@$$CBKVioHashString@@@std@@@3@$0A@@std@@@2@PAU342@@Z ; std::_Tree_val<std::_Tmap_traits<unsigned long,ioHashString,std::less<unsigned long>,std::allocator<std::pair<unsigned long const ,ioHashString> >,0> >::_Parent
; Function compile flags: /Ogsp
;	COMDAT ?_Parent@?$_Tree_val@V?$_Tmap_traits@KVioHashString@@U?$less@K@std@@V?$allocator@U?$pair@$$CBKVioHashString@@@std@@@3@$0A@@std@@@std@@SAAAPAU_Node@?$_Tree_nod@V?$_Tmap_traits@KVioHashString@@U?$less@K@std@@V?$allocator@U?$pair@$$CBKVioHashString@@@std@@@3@$0A@@std@@@2@PAU342@@Z
_TEXT	SEGMENT
__Pnode$ = 8						; size = 4
?_Parent@?$_Tree_val@V?$_Tmap_traits@KVioHashString@@U?$less@K@std@@V?$allocator@U?$pair@$$CBKVioHashString@@@std@@@3@$0A@@std@@@std@@SAAAPAU_Node@?$_Tree_nod@V?$_Tmap_traits@KVioHashString@@U?$less@K@std@@V?$allocator@U?$pair@$$CBKVioHashString@@@std@@@3@$0A@@std@@@2@PAU342@@Z PROC ; std::_Tree_val<std::_Tmap_traits<unsigned long,ioHashString,std::less<unsigned long>,std::allocator<std::pair<unsigned long const ,ioHashString> >,0> >::_Parent, COMDAT

; 626  : 		{	// return reference to parent pointer in node

  00000	55		 push	 ebp
  00001	8b ec		 mov	 ebp, esp

; 627  : 		return ((_Nodepref)(*_Pnode)._Parent);

  00003	8b 45 08	 mov	 eax, DWORD PTR __Pnode$[ebp]
  00006	83 c0 04	 add	 eax, 4

; 628  : 		}

  00009	5d		 pop	 ebp
  0000a	c3		 ret	 0
?_Parent@?$_Tree_val@V?$_Tmap_traits@KVioHashString@@U?$less@K@std@@V?$allocator@U?$pair@$$CBKVioHashString@@@std@@@3@$0A@@std@@@std@@SAAAPAU_Node@?$_Tree_nod@V?$_Tmap_traits@KVioHashString@@U?$less@K@std@@V?$allocator@U?$pair@$$CBKVioHashString@@@std@@@3@$0A@@std@@@2@PAU342@@Z ENDP ; std::_Tree_val<std::_Tmap_traits<unsigned long,ioHashString,std::less<unsigned long>,std::allocator<std::pair<unsigned long const ,ioHashString> >,0> >::_Parent
_TEXT	ENDS
PUBLIC	?_Right@?$_Tree_val@V?$_Tmap_traits@KVioHashString@@U?$less@K@std@@V?$allocator@U?$pair@$$CBKVioHashString@@@std@@@3@$0A@@std@@@std@@SAAAPAU_Node@?$_Tree_nod@V?$_Tmap_traits@KVioHashString@@U?$less@K@std@@V?$allocator@U?$pair@$$CBKVioHashString@@@std@@@3@$0A@@std@@@2@PAU342@@Z ; std::_Tree_val<std::_Tmap_traits<unsigned long,ioHashString,std::less<unsigned long>,std::allocator<std::pair<unsigned long const ,ioHashString> >,0> >::_Right
; Function compile flags: /Ogsp
;	COMDAT ?_Right@?$_Tree_val@V?$_Tmap_traits@KVioHashString@@U?$less@K@std@@V?$allocator@U?$pair@$$CBKVioHashString@@@std@@@3@$0A@@std@@@std@@SAAAPAU_Node@?$_Tree_nod@V?$_Tmap_traits@KVioHashString@@U?$less@K@std@@V?$allocator@U?$pair@$$CBKVioHashString@@@std@@@3@$0A@@std@@@2@PAU342@@Z
_TEXT	SEGMENT
__Pnode$ = 8						; size = 4
?_Right@?$_Tree_val@V?$_Tmap_traits@KVioHashString@@U?$less@K@std@@V?$allocator@U?$pair@$$CBKVioHashString@@@std@@@3@$0A@@std@@@std@@SAAAPAU_Node@?$_Tree_nod@V?$_Tmap_traits@KVioHashString@@U?$less@K@std@@V?$allocator@U?$pair@$$CBKVioHashString@@@std@@@3@$0A@@std@@@2@PAU342@@Z PROC ; std::_Tree_val<std::_Tmap_traits<unsigned long,ioHashString,std::less<unsigned long>,std::allocator<std::pair<unsigned long const ,ioHashString> >,0> >::_Right, COMDAT

; 631  : 		{	// return reference to right pointer in node

  00000	55		 push	 ebp
  00001	8b ec		 mov	 ebp, esp

; 632  : 		return ((_Nodepref)(*_Pnode)._Right);

  00003	8b 45 08	 mov	 eax, DWORD PTR __Pnode$[ebp]
  00006	83 c0 08	 add	 eax, 8

; 633  : 		}

  00009	5d		 pop	 ebp
  0000a	c3		 ret	 0
?_Right@?$_Tree_val@V?$_Tmap_traits@KVioHashString@@U?$less@K@std@@V?$allocator@U?$pair@$$CBKVioHashString@@@std@@@3@$0A@@std@@@std@@SAAAPAU_Node@?$_Tree_nod@V?$_Tmap_traits@KVioHashString@@U?$less@K@std@@V?$allocator@U?$pair@$$CBKVioHashString@@@std@@@3@$0A@@std@@@2@PAU342@@Z ENDP ; std::_Tree_val<std::_Tmap_traits<unsigned long,ioHashString,std::less<unsigned long>,std::allocator<std::pair<unsigned long const ,ioHashString> >,0> >::_Right
_TEXT	ENDS
PUBLIC	?_Myval@?$_Tree_val@V?$_Tmap_traits@KVioHashString@@U?$less@K@std@@V?$allocator@U?$pair@$$CBKVioHashString@@@std@@@3@$0A@@std@@@std@@SAAAU?$pair@$$CBKVioHashString@@@2@PAU_Node@?$_Tree_nod@V?$_Tmap_traits@KVioHashString@@U?$less@K@std@@V?$allocator@U?$pair@$$CBKVioHashString@@@std@@@3@$0A@@std@@@2@@Z ; std::_Tree_val<std::_Tmap_traits<unsigned long,ioHashString,std::less<unsigned long>,std::allocator<std::pair<unsigned long const ,ioHashString> >,0> >::_Myval
; Function compile flags: /Ogsp
;	COMDAT ?_Myval@?$_Tree_val@V?$_Tmap_traits@KVioHashString@@U?$less@K@std@@V?$allocator@U?$pair@$$CBKVioHashString@@@std@@@3@$0A@@std@@@std@@SAAAU?$pair@$$CBKVioHashString@@@2@PAU_Node@?$_Tree_nod@V?$_Tmap_traits@KVioHashString@@U?$less@K@std@@V?$allocator@U?$pair@$$CBKVioHashString@@@std@@@3@$0A@@std@@@2@@Z
_TEXT	SEGMENT
__Pnode$ = 8						; size = 4
?_Myval@?$_Tree_val@V?$_Tmap_traits@KVioHashString@@U?$less@K@std@@V?$allocator@U?$pair@$$CBKVioHashString@@@std@@@3@$0A@@std@@@std@@SAAAU?$pair@$$CBKVioHashString@@@2@PAU_Node@?$_Tree_nod@V?$_Tmap_traits@KVioHashString@@U?$less@K@std@@V?$allocator@U?$pair@$$CBKVioHashString@@@std@@@3@$0A@@std@@@2@@Z PROC ; std::_Tree_val<std::_Tmap_traits<unsigned long,ioHashString,std::less<unsigned long>,std::allocator<std::pair<unsigned long const ,ioHashString> >,0> >::_Myval, COMDAT

; 636  : 		{	// return reference to value in node

  00000	55		 push	 ebp
  00001	8b ec		 mov	 ebp, esp

; 637  : 		return ((reference)(*_Pnode)._Myval);

  00003	8b 45 08	 mov	 eax, DWORD PTR __Pnode$[ebp]
  00006	83 c0 0c	 add	 eax, 12			; 0000000cH

; 638  : 		}

  00009	5d		 pop	 ebp
  0000a	c3		 ret	 0
?_Myval@?$_Tree_val@V?$_Tmap_traits@KVioHashString@@U?$less@K@std@@V?$allocator@U?$pair@$$CBKVioHashString@@@std@@@3@$0A@@std@@@std@@SAAAU?$pair@$$CBKVioHashString@@@2@PAU_Node@?$_Tree_nod@V?$_Tmap_traits@KVioHashString@@U?$less@K@std@@V?$allocator@U?$pair@$$CBKVioHashString@@@std@@@3@$0A@@std@@@2@@Z ENDP ; std::_Tree_val<std::_Tmap_traits<unsigned long,ioHashString,std::less<unsigned long>,std::allocator<std::pair<unsigned long const ,ioHashString> >,0> >::_Myval
_TEXT	ENDS
PUBLIC	??0?$allocator@U?$pair@$$CBKVioHashString@@@std@@@std@@QAE@ABV01@@Z ; std::allocator<std::pair<unsigned long const ,ioHashString> >::allocator<std::pair<unsigned long const ,ioHashString> >
; Function compile flags: /Ogsp
; File c:\program files (x86)\microsoft visual studio 10.0\vc\include\xmemory
;	COMDAT ??0?$allocator@U?$pair@$$CBKVioHashString@@@std@@@std@@QAE@ABV01@@Z
_TEXT	SEGMENT
___formal$ = 8						; size = 4
??0?$allocator@U?$pair@$$CBKVioHashString@@@std@@@std@@QAE@ABV01@@Z PROC ; std::allocator<std::pair<unsigned long const ,ioHashString> >::allocator<std::pair<unsigned long const ,ioHashString> >, COMDAT
; _this$ = ecx

; 165  : 	_ALLOCATOR(const _ALLOCATOR<_Ty>&) _THROW0()

  00000	8b c1		 mov	 eax, ecx

; 166  : 		{	// construct by copying (do nothing)
; 167  : 		}

  00002	c2 04 00	 ret	 4
??0?$allocator@U?$pair@$$CBKVioHashString@@@std@@@std@@QAE@ABV01@@Z ENDP ; std::allocator<std::pair<unsigned long const ,ioHashString> >::allocator<std::pair<unsigned long const ,ioHashString> >
_TEXT	ENDS
PUBLIC	?deallocate@?$allocator@U_Node@?$_Tree_nod@V?$_Tmap_traits@KVioHashString@@U?$less@K@std@@V?$allocator@U?$pair@$$CBKVioHashString@@@std@@@3@$0A@@std@@@std@@@std@@QAEXPAU_Node@?$_Tree_nod@V?$_Tmap_traits@KVioHashString@@U?$less@K@std@@V?$allocator@U?$pair@$$CBKVioHashString@@@std@@@3@$0A@@std@@@2@I@Z ; std::allocator<std::_Tree_nod<std::_Tmap_traits<unsigned long,ioHashString,std::less<unsigned long>,std::allocator<std::pair<unsigned long const ,ioHashString> >,0> >::_Node>::deallocate
; Function compile flags: /Ogsp
;	COMDAT ?deallocate@?$allocator@U_Node@?$_Tree_nod@V?$_Tmap_traits@KVioHashString@@U?$less@K@std@@V?$allocator@U?$pair@$$CBKVioHashString@@@std@@@3@$0A@@std@@@std@@@std@@QAEXPAU_Node@?$_Tree_nod@V?$_Tmap_traits@KVioHashString@@U?$less@K@std@@V?$allocator@U?$pair@$$CBKVioHashString@@@std@@@3@$0A@@std@@@2@I@Z
_TEXT	SEGMENT
__Ptr$ = 8						; size = 4
___formal$ = 12						; size = 4
?deallocate@?$allocator@U_Node@?$_Tree_nod@V?$_Tmap_traits@KVioHashString@@U?$less@K@std@@V?$allocator@U?$pair@$$CBKVioHashString@@@std@@@3@$0A@@std@@@std@@@std@@QAEXPAU_Node@?$_Tree_nod@V?$_Tmap_traits@KVioHashString@@U?$less@K@std@@V?$allocator@U?$pair@$$CBKVioHashString@@@std@@@3@$0A@@std@@@2@I@Z PROC ; std::allocator<std::_Tree_nod<std::_Tmap_traits<unsigned long,ioHashString,std::less<unsigned long>,std::allocator<std::pair<unsigned long const ,ioHashString> >,0> >::_Node>::deallocate, COMDAT
; _this$ = ecx

; 181  : 		{	// deallocate object at _Ptr, ignore size

  00000	55		 push	 ebp
  00001	8b ec		 mov	 ebp, esp

; 182  : 		::operator delete(_Ptr);

  00003	ff 75 08	 push	 DWORD PTR __Ptr$[ebp]
  00006	e8 00 00 00 00	 call	 ??3@YAXPAX@Z		; operator delete
  0000b	59		 pop	 ecx

; 183  : 		}

  0000c	5d		 pop	 ebp
  0000d	c2 08 00	 ret	 8
?deallocate@?$allocator@U_Node@?$_Tree_nod@V?$_Tmap_traits@KVioHashString@@U?$less@K@std@@V?$allocator@U?$pair@$$CBKVioHashString@@@std@@@3@$0A@@std@@@std@@@std@@QAEXPAU_Node@?$_Tree_nod@V?$_Tmap_traits@KVioHashString@@U?$less@K@std@@V?$allocator@U?$pair@$$CBKVioHashString@@@std@@@3@$0A@@std@@@2@I@Z ENDP ; std::allocator<std::_Tree_nod<std::_Tmap_traits<unsigned long,ioHashString,std::less<unsigned long>,std::allocator<std::pair<unsigned long const ,ioHashString> >,0> >::_Node>::deallocate
_TEXT	ENDS
PUBLIC	??0?$_Tree_unchecked_const_iterator@V?$_Tree_val@V?$_Tmap_traits@KVioHashString@@U?$less@K@std@@V?$allocator@U?$pair@$$CBKVioHashString@@@std@@@3@$0A@@std@@@std@@U_Iterator_base0@2@@std@@QAE@PAU_Node@?$_Tree_nod@V?$_Tmap_traits@KVioHashString@@U?$less@K@std@@V?$allocator@U?$pair@$$CBKVioHashString@@@std@@@3@$0A@@std@@@1@PBV?$_Tree_val@V?$_Tmap_traits@KVioHashString@@U?$less@K@std@@V?$allocator@U?$pair@$$CBKVioHashString@@@std@@@3@$0A@@std@@@1@@Z ; std::_Tree_unchecked_const_iterator<std::_Tree_val<std::_Tmap_traits<unsigned long,ioHashString,std::less<unsigned long>,std::allocator<std::pair<unsigned long const ,ioHashString> >,0> >,std::_Iterator_base0>::_Tree_unchecked_const_iterator<std::_Tree_val<std::_Tmap_traits<unsigned long,ioHashString,std::less<unsigned long>,std::allocator<std::pair<unsigned long const ,ioHashString> >,0> >,std::_Iterator_base0>
; Function compile flags: /Ogsp
; File c:\program files (x86)\microsoft visual studio 10.0\vc\include\xtree
;	COMDAT ??0?$_Tree_unchecked_const_iterator@V?$_Tree_val@V?$_Tmap_traits@KVioHashString@@U?$less@K@std@@V?$allocator@U?$pair@$$CBKVioHashString@@@std@@@3@$0A@@std@@@std@@U_Iterator_base0@2@@std@@QAE@PAU_Node@?$_Tree_nod@V?$_Tmap_traits@KVioHashString@@U?$less@K@std@@V?$allocator@U?$pair@$$CBKVioHashString@@@std@@@3@$0A@@std@@@1@PBV?$_Tree_val@V?$_Tmap_traits@KVioHashString@@U?$less@K@std@@V?$allocator@U?$pair@$$CBKVioHashString@@@std@@@3@$0A@@std@@@1@@Z
_TEXT	SEGMENT
__Pnode$ = 8						; size = 4
__Plist$ = 12						; size = 4
??0?$_Tree_unchecked_const_iterator@V?$_Tree_val@V?$_Tmap_traits@KVioHashString@@U?$less@K@std@@V?$allocator@U?$pair@$$CBKVioHashString@@@std@@@3@$0A@@std@@@std@@U_Iterator_base0@2@@std@@QAE@PAU_Node@?$_Tree_nod@V?$_Tmap_traits@KVioHashString@@U?$less@K@std@@V?$allocator@U?$pair@$$CBKVioHashString@@@std@@@3@$0A@@std@@@1@PBV?$_Tree_val@V?$_Tmap_traits@KVioHashString@@U?$less@K@std@@V?$allocator@U?$pair@$$CBKVioHashString@@@std@@@3@$0A@@std@@@1@@Z PROC ; std::_Tree_unchecked_const_iterator<std::_Tree_val<std::_Tmap_traits<unsigned long,ioHashString,std::less<unsigned long>,std::allocator<std::pair<unsigned long const ,ioHashString> >,0> >,std::_Iterator_base0>::_Tree_unchecked_const_iterator<std::_Tree_val<std::_Tmap_traits<unsigned long,ioHashString,std::less<unsigned long>,std::allocator<std::pair<unsigned long const ,ioHashString> >,0> >,std::_Iterator_base0>, COMDAT
; _this$ = ecx

; 43   : 		{	// construct with node pointer _Pnode

  00000	55		 push	 ebp
  00001	8b ec		 mov	 ebp, esp
  00003	8b c1		 mov	 eax, ecx
  00005	8b 4d 08	 mov	 ecx, DWORD PTR __Pnode$[ebp]
  00008	89 08		 mov	 DWORD PTR [eax], ecx

; 44   : 		this->_Adopt(_Plist);
; 45   : 		}

  0000a	5d		 pop	 ebp
  0000b	c2 08 00	 ret	 8
??0?$_Tree_unchecked_const_iterator@V?$_Tree_val@V?$_Tmap_traits@KVioHashString@@U?$less@K@std@@V?$allocator@U?$pair@$$CBKVioHashString@@@std@@@3@$0A@@std@@@std@@U_Iterator_base0@2@@std@@QAE@PAU_Node@?$_Tree_nod@V?$_Tmap_traits@KVioHashString@@U?$less@K@std@@V?$allocator@U?$pair@$$CBKVioHashString@@@std@@@3@$0A@@std@@@1@PBV?$_Tree_val@V?$_Tmap_traits@KVioHashString@@U?$less@K@std@@V?$allocator@U?$pair@$$CBKVioHashString@@@std@@@3@$0A@@std@@@1@@Z ENDP ; std::_Tree_unchecked_const_iterator<std::_Tree_val<std::_Tmap_traits<unsigned long,ioHashString,std::less<unsigned long>,std::allocator<std::pair<unsigned long const ,ioHashString> >,0> >,std::_Iterator_base0>::_Tree_unchecked_const_iterator<std::_Tree_val<std::_Tmap_traits<unsigned long,ioHashString,std::less<unsigned long>,std::allocator<std::pair<unsigned long const ,ioHashString> >,0> >,std::_Iterator_base0>
_TEXT	ENDS
PUBLIC	?_Color@?$_Tree_val@V?$_Tmap_traits@KVioHashString@@U?$less@K@std@@V?$allocator@U?$pair@$$CBKVioHashString@@@std@@@3@$0A@@std@@@std@@SAAADPAU_Node@?$_Tree_nod@V?$_Tmap_traits@KVioHashString@@U?$less@K@std@@V?$allocator@U?$pair@$$CBKVioHashString@@@std@@@3@$0A@@std@@@2@@Z ; std::_Tree_val<std::_Tmap_traits<unsigned long,ioHashString,std::less<unsigned long>,std::allocator<std::pair<unsigned long const ,ioHashString> >,0> >::_Color
; Function compile flags: /Ogsp
;	COMDAT ?_Color@?$_Tree_val@V?$_Tmap_traits@KVioHashString@@U?$less@K@std@@V?$allocator@U?$pair@$$CBKVioHashString@@@std@@@3@$0A@@std@@@std@@SAAADPAU_Node@?$_Tree_nod@V?$_Tmap_traits@KVioHashString@@U?$less@K@std@@V?$allocator@U?$pair@$$CBKVioHashString@@@std@@@3@$0A@@std@@@2@@Z
_TEXT	SEGMENT
__Pnode$ = 8						; size = 4
?_Color@?$_Tree_val@V?$_Tmap_traits@KVioHashString@@U?$less@K@std@@V?$allocator@U?$pair@$$CBKVioHashString@@@std@@@3@$0A@@std@@@std@@SAAADPAU_Node@?$_Tree_nod@V?$_Tmap_traits@KVioHashString@@U?$less@K@std@@V?$allocator@U?$pair@$$CBKVioHashString@@@std@@@3@$0A@@std@@@2@@Z PROC ; std::_Tree_val<std::_Tmap_traits<unsigned long,ioHashString,std::less<unsigned long>,std::allocator<std::pair<unsigned long const ,ioHashString> >,0> >::_Color, COMDAT

; 606  : 		{	// return reference to color in node

  00000	55		 push	 ebp
  00001	8b ec		 mov	 ebp, esp

; 607  : 		return ((char&)(*_Pnode)._Color);

  00003	8b 45 08	 mov	 eax, DWORD PTR __Pnode$[ebp]
  00006	83 c0 20	 add	 eax, 32			; 00000020H

; 608  : 		}

  00009	5d		 pop	 ebp
  0000a	c3		 ret	 0
?_Color@?$_Tree_val@V?$_Tmap_traits@KVioHashString@@U?$less@K@std@@V?$allocator@U?$pair@$$CBKVioHashString@@@std@@@3@$0A@@std@@@std@@SAAADPAU_Node@?$_Tree_nod@V?$_Tmap_traits@KVioHashString@@U?$less@K@std@@V?$allocator@U?$pair@$$CBKVioHashString@@@std@@@3@$0A@@std@@@2@@Z ENDP ; std::_Tree_val<std::_Tmap_traits<unsigned long,ioHashString,std::less<unsigned long>,std::allocator<std::pair<unsigned long const ,ioHashString> >,0> >::_Color
_TEXT	ENDS
PUBLIC	?_Max@?$_Tree_val@V?$_Tmap_traits@KVioHashString@@U?$less@K@std@@V?$allocator@U?$pair@$$CBKVioHashString@@@std@@@3@$0A@@std@@@std@@SAPAU_Node@?$_Tree_nod@V?$_Tmap_traits@KVioHashString@@U?$less@K@std@@V?$allocator@U?$pair@$$CBKVioHashString@@@std@@@3@$0A@@std@@@2@PAU342@@Z ; std::_Tree_val<std::_Tmap_traits<unsigned long,ioHashString,std::less<unsigned long>,std::allocator<std::pair<unsigned long const ,ioHashString> >,0> >::_Max
; Function compile flags: /Ogsp
;	COMDAT ?_Max@?$_Tree_val@V?$_Tmap_traits@KVioHashString@@U?$less@K@std@@V?$allocator@U?$pair@$$CBKVioHashString@@@std@@@3@$0A@@std@@@std@@SAPAU_Node@?$_Tree_nod@V?$_Tmap_traits@KVioHashString@@U?$less@K@std@@V?$allocator@U?$pair@$$CBKVioHashString@@@std@@@3@$0A@@std@@@2@PAU342@@Z
_TEXT	SEGMENT
__Pnode$ = 8						; size = 4
?_Max@?$_Tree_val@V?$_Tmap_traits@KVioHashString@@U?$less@K@std@@V?$allocator@U?$pair@$$CBKVioHashString@@@std@@@3@$0A@@std@@@std@@SAPAU_Node@?$_Tree_nod@V?$_Tmap_traits@KVioHashString@@U?$less@K@std@@V?$allocator@U?$pair@$$CBKVioHashString@@@std@@@3@$0A@@std@@@2@PAU342@@Z PROC ; std::_Tree_val<std::_Tmap_traits<unsigned long,ioHashString,std::less<unsigned long>,std::allocator<std::pair<unsigned long const ,ioHashString> >,0> >::_Max, COMDAT

; 641  : 		{	// return rightmost node in subtree at _Pnode

  00000	55		 push	 ebp
  00001	8b ec		 mov	 ebp, esp

; 642  : 		while (!_Isnil(_Right(_Pnode)))

  00003	8b 45 08	 mov	 eax, DWORD PTR __Pnode$[ebp]
  00006	eb 02		 jmp	 SHORT $LN14@Max
$LL2@Max:

; 643  : 			_Pnode = _Right(_Pnode);

  00008	8b c1		 mov	 eax, ecx
$LN14@Max:

; 642  : 		while (!_Isnil(_Right(_Pnode)))

  0000a	8b 48 08	 mov	 ecx, DWORD PTR [eax+8]
  0000d	80 79 21 00	 cmp	 BYTE PTR [ecx+33], 0
  00011	74 f5		 je	 SHORT $LL2@Max

; 644  : 		return (_Pnode);
; 645  : 		}

  00013	5d		 pop	 ebp
  00014	c3		 ret	 0
?_Max@?$_Tree_val@V?$_Tmap_traits@KVioHashString@@U?$less@K@std@@V?$allocator@U?$pair@$$CBKVioHashString@@@std@@@3@$0A@@std@@@std@@SAPAU_Node@?$_Tree_nod@V?$_Tmap_traits@KVioHashString@@U?$less@K@std@@V?$allocator@U?$pair@$$CBKVioHashString@@@std@@@3@$0A@@std@@@2@PAU342@@Z ENDP ; std::_Tree_val<std::_Tmap_traits<unsigned long,ioHashString,std::less<unsigned long>,std::allocator<std::pair<unsigned long const ,ioHashString> >,0> >::_Max
_TEXT	ENDS
PUBLIC	?_Min@?$_Tree_val@V?$_Tmap_traits@KVioHashString@@U?$less@K@std@@V?$allocator@U?$pair@$$CBKVioHashString@@@std@@@3@$0A@@std@@@std@@SAPAU_Node@?$_Tree_nod@V?$_Tmap_traits@KVioHashString@@U?$less@K@std@@V?$allocator@U?$pair@$$CBKVioHashString@@@std@@@3@$0A@@std@@@2@PAU342@@Z ; std::_Tree_val<std::_Tmap_traits<unsigned long,ioHashString,std::less<unsigned long>,std::allocator<std::pair<unsigned long const ,ioHashString> >,0> >::_Min
; Function compile flags: /Ogsp
;	COMDAT ?_Min@?$_Tree_val@V?$_Tmap_traits@KVioHashString@@U?$less@K@std@@V?$allocator@U?$pair@$$CBKVioHashString@@@std@@@3@$0A@@std@@@std@@SAPAU_Node@?$_Tree_nod@V?$_Tmap_traits@KVioHashString@@U?$less@K@std@@V?$allocator@U?$pair@$$CBKVioHashString@@@std@@@3@$0A@@std@@@2@PAU342@@Z
_TEXT	SEGMENT
__Pnode$ = 8						; size = 4
?_Min@?$_Tree_val@V?$_Tmap_traits@KVioHashString@@U?$less@K@std@@V?$allocator@U?$pair@$$CBKVioHashString@@@std@@@3@$0A@@std@@@std@@SAPAU_Node@?$_Tree_nod@V?$_Tmap_traits@KVioHashString@@U?$less@K@std@@V?$allocator@U?$pair@$$CBKVioHashString@@@std@@@3@$0A@@std@@@2@PAU342@@Z PROC ; std::_Tree_val<std::_Tmap_traits<unsigned long,ioHashString,std::less<unsigned long>,std::allocator<std::pair<unsigned long const ,ioHashString> >,0> >::_Min, COMDAT

; 648  : 		{	// return leftmost node in subtree at _Pnode

  00000	55		 push	 ebp
  00001	8b ec		 mov	 ebp, esp

; 649  : 		while (!_Isnil(_Left(_Pnode)))

  00003	8b 45 08	 mov	 eax, DWORD PTR __Pnode$[ebp]
  00006	eb 02		 jmp	 SHORT $LN14@Min
$LL2@Min:

; 650  : 			_Pnode = _Left(_Pnode);

  00008	8b c1		 mov	 eax, ecx
$LN14@Min:

; 649  : 		while (!_Isnil(_Left(_Pnode)))

  0000a	8b 08		 mov	 ecx, DWORD PTR [eax]
  0000c	80 79 21 00	 cmp	 BYTE PTR [ecx+33], 0
  00010	74 f6		 je	 SHORT $LL2@Min

; 651  : 		return (_Pnode);
; 652  : 		}

  00012	5d		 pop	 ebp
  00013	c3		 ret	 0
?_Min@?$_Tree_val@V?$_Tmap_traits@KVioHashString@@U?$less@K@std@@V?$allocator@U?$pair@$$CBKVioHashString@@@std@@@3@$0A@@std@@@std@@SAPAU_Node@?$_Tree_nod@V?$_Tmap_traits@KVioHashString@@U?$less@K@std@@V?$allocator@U?$pair@$$CBKVioHashString@@@std@@@3@$0A@@std@@@2@PAU342@@Z ENDP ; std::_Tree_val<std::_Tmap_traits<unsigned long,ioHashString,std::less<unsigned long>,std::allocator<std::pair<unsigned long const ,ioHashString> >,0> >::_Min
_TEXT	ENDS
PUBLIC	??0?$_Tmap_traits@KVioHashString@@U?$less@K@std@@V?$allocator@U?$pair@$$CBKVioHashString@@@std@@@3@$0A@@std@@QAE@U?$less@K@1@@Z ; std::_Tmap_traits<unsigned long,ioHashString,std::less<unsigned long>,std::allocator<std::pair<unsigned long const ,ioHashString> >,0>::_Tmap_traits<unsigned long,ioHashString,std::less<unsigned long>,std::allocator<std::pair<unsigned long const ,ioHashString> >,0>
; Function compile flags: /Ogsp
; File c:\program files (x86)\microsoft visual studio 10.0\vc\include\map
;	COMDAT ??0?$_Tmap_traits@KVioHashString@@U?$less@K@std@@V?$allocator@U?$pair@$$CBKVioHashString@@@std@@@3@$0A@@std@@QAE@U?$less@K@1@@Z
_TEXT	SEGMENT
__Parg$ = 8						; size = 1
??0?$_Tmap_traits@KVioHashString@@U?$less@K@std@@V?$allocator@U?$pair@$$CBKVioHashString@@@std@@@3@$0A@@std@@QAE@U?$less@K@1@@Z PROC ; std::_Tmap_traits<unsigned long,ioHashString,std::less<unsigned long>,std::allocator<std::pair<unsigned long const ,ioHashString> >,0>::_Tmap_traits<unsigned long,ioHashString,std::less<unsigned long>,std::allocator<std::pair<unsigned long const ,ioHashString> >,0>, COMDAT
; _this$ = ecx

; 40   : 		{	// construct with specified comparator

  00000	8b c1		 mov	 eax, ecx

; 41   : 		}

  00002	c2 04 00	 ret	 4
??0?$_Tmap_traits@KVioHashString@@U?$less@K@std@@V?$allocator@U?$pair@$$CBKVioHashString@@@std@@@3@$0A@@std@@QAE@U?$less@K@1@@Z ENDP ; std::_Tmap_traits<unsigned long,ioHashString,std::less<unsigned long>,std::allocator<std::pair<unsigned long const ,ioHashString> >,0>::_Tmap_traits<unsigned long,ioHashString,std::less<unsigned long>,std::allocator<std::pair<unsigned long const ,ioHashString> >,0>
_TEXT	ENDS
PUBLIC	??E?$_Tree_unchecked_const_iterator@V?$_Tree_val@V?$_Tmap_traits@KVioHashString@@U?$less@K@std@@V?$allocator@U?$pair@$$CBKVioHashString@@@std@@@3@$0A@@std@@@std@@U_Iterator_base0@2@@std@@QAEAAV01@XZ ; std::_Tree_unchecked_const_iterator<std::_Tree_val<std::_Tmap_traits<unsigned long,ioHashString,std::less<unsigned long>,std::allocator<std::pair<unsigned long const ,ioHashString> >,0> >,std::_Iterator_base0>::operator++
; Function compile flags: /Ogsp
; File c:\program files (x86)\microsoft visual studio 10.0\vc\include\xtree
;	COMDAT ??E?$_Tree_unchecked_const_iterator@V?$_Tree_val@V?$_Tmap_traits@KVioHashString@@U?$less@K@std@@V?$allocator@U?$pair@$$CBKVioHashString@@@std@@@3@$0A@@std@@@std@@U_Iterator_base0@2@@std@@QAEAAV01@XZ
_TEXT	SEGMENT
??E?$_Tree_unchecked_const_iterator@V?$_Tree_val@V?$_Tmap_traits@KVioHashString@@U?$less@K@std@@V?$allocator@U?$pair@$$CBKVioHashString@@@std@@@3@$0A@@std@@@std@@U_Iterator_base0@2@@std@@QAEAAV01@XZ PROC ; std::_Tree_unchecked_const_iterator<std::_Tree_val<std::_Tmap_traits<unsigned long,ioHashString,std::less<unsigned long>,std::allocator<std::pair<unsigned long const ,ioHashString> >,0> >,std::_Iterator_base0>::operator++, COMDAT
; _this$ = ecx

; 58   : 		{	// preincrement

  00000	8b c1		 mov	 eax, ecx

; 59   : 		if (_Mytree::_Isnil(_Ptr))

  00002	8b 08		 mov	 ecx, DWORD PTR [eax]
  00004	53		 push	 ebx
  00005	32 db		 xor	 bl, bl
  00007	38 59 21	 cmp	 BYTE PTR [ecx+33], bl
  0000a	75 2d		 jne	 SHORT $LN3@operator

; 60   : 			;	// end() shouldn't be incremented, don't move
; 61   : 		else if (!_Mytree::_Isnil(_Mytree::_Right(_Ptr)))

  0000c	8b 51 08	 mov	 edx, DWORD PTR [ecx+8]
  0000f	38 5a 21	 cmp	 BYTE PTR [edx+33], bl
  00012	75 0d		 jne	 SHORT $LN34@operator

; 62   : 			_Ptr = _Mytree::_Min(
; 63   : 				_Mytree::_Right(_Ptr));	// ==> smallest of right subtree

$LL18@operator:
  00014	8b ca		 mov	 ecx, edx
  00016	8b 11		 mov	 edx, DWORD PTR [ecx]
  00018	38 5a 21	 cmp	 BYTE PTR [edx+33], bl
  0001b	74 f7		 je	 SHORT $LL18@operator
  0001d	89 08		 mov	 DWORD PTR [eax], ecx
  0001f	5b		 pop	 ebx

; 71   : 			}
; 72   : 		return (*this);
; 73   : 		}

  00020	c3		 ret	 0
$LN34@operator:

; 64   : 		else
; 65   : 			{	// climb looking for right subtree
; 66   : 			_Nodeptr _Pnode;
; 67   : 			while (!_Mytree::_Isnil(_Pnode = _Mytree::_Parent(_Ptr))
; 68   : 				&& _Ptr == _Mytree::_Right(_Pnode))

  00021	8b 51 04	 mov	 edx, DWORD PTR [ecx+4]
  00024	eb 0c		 jmp	 SHORT $LN38@operator
$LL2@operator:
  00026	8b 08		 mov	 ecx, DWORD PTR [eax]
  00028	3b 4a 08	 cmp	 ecx, DWORD PTR [edx+8]
  0002b	75 0a		 jne	 SHORT $LN1@operator

; 69   : 				_Ptr = _Pnode;	// ==> parent while right subtree

  0002d	89 10		 mov	 DWORD PTR [eax], edx
  0002f	8b 52 04	 mov	 edx, DWORD PTR [edx+4]
$LN38@operator:

; 64   : 		else
; 65   : 			{	// climb looking for right subtree
; 66   : 			_Nodeptr _Pnode;
; 67   : 			while (!_Mytree::_Isnil(_Pnode = _Mytree::_Parent(_Ptr))
; 68   : 				&& _Ptr == _Mytree::_Right(_Pnode))

  00032	38 5a 21	 cmp	 BYTE PTR [edx+33], bl
  00035	74 ef		 je	 SHORT $LL2@operator
$LN1@operator:

; 70   : 			_Ptr = _Pnode;	// ==> parent (head if end())

  00037	89 10		 mov	 DWORD PTR [eax], edx
$LN3@operator:
  00039	5b		 pop	 ebx

; 71   : 			}
; 72   : 		return (*this);
; 73   : 		}

  0003a	c3		 ret	 0
??E?$_Tree_unchecked_const_iterator@V?$_Tree_val@V?$_Tmap_traits@KVioHashString@@U?$less@K@std@@V?$allocator@U?$pair@$$CBKVioHashString@@@std@@@3@$0A@@std@@@std@@U_Iterator_base0@2@@std@@QAEAAV01@XZ ENDP ; std::_Tree_unchecked_const_iterator<std::_Tree_val<std::_Tmap_traits<unsigned long,ioHashString,std::less<unsigned long>,std::allocator<std::pair<unsigned long const ,ioHashString> >,0> >,std::_Iterator_base0>::operator++
_TEXT	ENDS
PUBLIC	??$addressof@$$CBVioHashString@@@std@@YAPBVioHashString@@ABV1@@Z ; std::addressof<ioHashString const >
; Function compile flags: /Ogsp
; File c:\program files (x86)\microsoft visual studio 10.0\vc\include\xmemory
;	COMDAT ??$addressof@$$CBVioHashString@@@std@@YAPBVioHashString@@ABV1@@Z
_TEXT	SEGMENT
__Val$ = 8						; size = 4
??$addressof@$$CBVioHashString@@@std@@YAPBVioHashString@@ABV1@@Z PROC ; std::addressof<ioHashString const >, COMDAT

; 110  : 	{	// return address of _Val

  00000	55		 push	 ebp
  00001	8b ec		 mov	 ebp, esp

; 111  : 	return ((_Ty *) &(char&)_Val);

  00003	8b 45 08	 mov	 eax, DWORD PTR __Val$[ebp]

; 112  : 	}

  00006	5d		 pop	 ebp
  00007	c3		 ret	 0
??$addressof@$$CBVioHashString@@@std@@YAPBVioHashString@@ABV1@@Z ENDP ; std::addressof<ioHashString const >
_TEXT	ENDS
PUBLIC	??$addressof@U?$pair@$$CBKVioHashString@@@std@@@std@@YAPAU?$pair@$$CBKVioHashString@@@0@AAU10@@Z ; std::addressof<std::pair<unsigned long const ,ioHashString> >
; Function compile flags: /Ogsp
;	COMDAT ??$addressof@U?$pair@$$CBKVioHashString@@@std@@@std@@YAPAU?$pair@$$CBKVioHashString@@@0@AAU10@@Z
_TEXT	SEGMENT
__Val$ = 8						; size = 4
??$addressof@U?$pair@$$CBKVioHashString@@@std@@@std@@YAPAU?$pair@$$CBKVioHashString@@@0@AAU10@@Z PROC ; std::addressof<std::pair<unsigned long const ,ioHashString> >, COMDAT

; 110  : 	{	// return address of _Val

  00000	55		 push	 ebp
  00001	8b ec		 mov	 ebp, esp

; 111  : 	return ((_Ty *) &(char&)_Val);

  00003	8b 45 08	 mov	 eax, DWORD PTR __Val$[ebp]

; 112  : 	}

  00006	5d		 pop	 ebp
  00007	c3		 ret	 0
??$addressof@U?$pair@$$CBKVioHashString@@@std@@@std@@YAPAU?$pair@$$CBKVioHashString@@@0@AAU10@@Z ENDP ; std::addressof<std::pair<unsigned long const ,ioHashString> >
_TEXT	ENDS
PUBLIC	??$_Kfn@$$CBKVioHashString@@@?$_Tmap_traits@KVioHashString@@U?$less@K@std@@V?$allocator@U?$pair@$$CBKVioHashString@@@std@@@3@$0A@@std@@SAABKABU?$pair@$$CBKVioHashString@@@1@@Z ; std::_Tmap_traits<unsigned long,ioHashString,std::less<unsigned long>,std::allocator<std::pair<unsigned long const ,ioHashString> >,0>::_Kfn<unsigned long const ,ioHashString>
; Function compile flags: /Ogsp
; File c:\program files (x86)\microsoft visual studio 10.0\vc\include\map
;	COMDAT ??$_Kfn@$$CBKVioHashString@@@?$_Tmap_traits@KVioHashString@@U?$less@K@std@@V?$allocator@U?$pair@$$CBKVioHashString@@@std@@@3@$0A@@std@@SAABKABU?$pair@$$CBKVioHashString@@@1@@Z
_TEXT	SEGMENT
__Val$ = 8						; size = 4
??$_Kfn@$$CBKVioHashString@@@?$_Tmap_traits@KVioHashString@@U?$less@K@std@@V?$allocator@U?$pair@$$CBKVioHashString@@@std@@@3@$0A@@std@@SAABKABU?$pair@$$CBKVioHashString@@@1@@Z PROC ; std::_Tmap_traits<unsigned long,ioHashString,std::less<unsigned long>,std::allocator<std::pair<unsigned long const ,ioHashString> >,0>::_Kfn<unsigned long const ,ioHashString>, COMDAT

; 66   : 		static const _Kty& _Kfn(const _STD pair<_Ty1, _Ty2>& _Val)

  00000	55		 push	 ebp
  00001	8b ec		 mov	 ebp, esp

; 67   : 		{	// extract key from element value
; 68   : 		return (_Val.first);

  00003	8b 45 08	 mov	 eax, DWORD PTR __Val$[ebp]

; 69   : 		}

  00006	5d		 pop	 ebp
  00007	c3		 ret	 0
??$_Kfn@$$CBKVioHashString@@@?$_Tmap_traits@KVioHashString@@U?$less@K@std@@V?$allocator@U?$pair@$$CBKVioHashString@@@std@@@3@$0A@@std@@SAABKABU?$pair@$$CBKVioHashString@@@1@@Z ENDP ; std::_Tmap_traits<unsigned long,ioHashString,std::less<unsigned long>,std::allocator<std::pair<unsigned long const ,ioHashString> >,0>::_Kfn<unsigned long const ,ioHashString>
_TEXT	ENDS
PUBLIC	??$?0U?$pair@$$CBKVioHashString@@@std@@@?$allocator@U_Node@?$_Tree_nod@V?$_Tmap_traits@KVioHashString@@U?$less@K@std@@V?$allocator@U?$pair@$$CBKVioHashString@@@std@@@3@$0A@@std@@@std@@@std@@QAE@ABV?$allocator@U?$pair@$$CBKVioHashString@@@std@@@1@@Z ; std::allocator<std::_Tree_nod<std::_Tmap_traits<unsigned long,ioHashString,std::less<unsigned long>,std::allocator<std::pair<unsigned long const ,ioHashString> >,0> >::_Node>::allocator<std::_Tree_nod<std::_Tmap_traits<unsigned long,ioHashString,std::less<unsigned long>,std::allocator<std::pair<unsigned long const ,ioHashString> >,0> >::_Node><std::pair<unsigned long const ,ioHashString> >
; Function compile flags: /Ogsp
; File c:\program files (x86)\microsoft visual studio 10.0\vc\include\xmemory
;	COMDAT ??$?0U?$pair@$$CBKVioHashString@@@std@@@?$allocator@U_Node@?$_Tree_nod@V?$_Tmap_traits@KVioHashString@@U?$less@K@std@@V?$allocator@U?$pair@$$CBKVioHashString@@@std@@@3@$0A@@std@@@std@@@std@@QAE@ABV?$allocator@U?$pair@$$CBKVioHashString@@@std@@@1@@Z
_TEXT	SEGMENT
___formal$ = 8						; size = 4
??$?0U?$pair@$$CBKVioHashString@@@std@@@?$allocator@U_Node@?$_Tree_nod@V?$_Tmap_traits@KVioHashString@@U?$less@K@std@@V?$allocator@U?$pair@$$CBKVioHashString@@@std@@@3@$0A@@std@@@std@@@std@@QAE@ABV?$allocator@U?$pair@$$CBKVioHashString@@@std@@@1@@Z PROC ; std::allocator<std::_Tree_nod<std::_Tmap_traits<unsigned long,ioHashString,std::less<unsigned long>,std::allocator<std::pair<unsigned long const ,ioHashString> >,0> >::_Node>::allocator<std::_Tree_nod<std::_Tmap_traits<unsigned long,ioHashString,std::less<unsigned long>,std::allocator<std::pair<unsigned long const ,ioHashString> >,0> >::_Node><std::pair<unsigned long const ,ioHashString> >, COMDAT
; _this$ = ecx

; 170  : 		_ALLOCATOR(const _ALLOCATOR<_Other>&) _THROW0()

  00000	8b c1		 mov	 eax, ecx

; 171  : 		{	// construct from a related allocator (do nothing)
; 172  : 		}

  00002	c2 04 00	 ret	 4
??$?0U?$pair@$$CBKVioHashString@@@std@@@?$allocator@U_Node@?$_Tree_nod@V?$_Tmap_traits@KVioHashString@@U?$less@K@std@@V?$allocator@U?$pair@$$CBKVioHashString@@@std@@@3@$0A@@std@@@std@@@std@@QAE@ABV?$allocator@U?$pair@$$CBKVioHashString@@@std@@@1@@Z ENDP ; std::allocator<std::_Tree_nod<std::_Tmap_traits<unsigned long,ioHashString,std::less<unsigned long>,std::allocator<std::pair<unsigned long const ,ioHashString> >,0> >::_Node>::allocator<std::_Tree_nod<std::_Tmap_traits<unsigned long,ioHashString,std::less<unsigned long>,std::allocator<std::pair<unsigned long const ,ioHashString> >,0> >::_Node><std::pair<unsigned long const ,ioHashString> >
_TEXT	ENDS
PUBLIC	__TI2?AVbad_alloc@std@@
PUBLIC	??$_Allocate@U_Node@?$_Tree_nod@V?$_Tmap_traits@KVioHashString@@U?$less@K@std@@V?$allocator@U?$pair@$$CBKVioHashString@@@std@@@3@$0A@@std@@@std@@@std@@YAPAU_Node@?$_Tree_nod@V?$_Tmap_traits@KVioHashString@@U?$less@K@std@@V?$allocator@U?$pair@$$CBKVioHashString@@@std@@@3@$0A@@std@@@0@IPAU120@@Z ; std::_Allocate<std::_Tree_nod<std::_Tmap_traits<unsigned long,ioHashString,std::less<unsigned long>,std::allocator<std::pair<unsigned long const ,ioHashString> >,0> >::_Node>
PUBLIC	__CTA2?AVbad_alloc@std@@
PUBLIC	__CT??_R0?AVbad_alloc@std@@@8??0bad_alloc@std@@QAE@ABV01@@Z12
PUBLIC	??0bad_alloc@std@@QAE@ABV01@@Z			; std::bad_alloc::bad_alloc
PUBLIC	__CT??_R0?AVexception@std@@@8??0exception@std@@QAE@ABV01@@Z12
EXTRN	??2@YAPAXI@Z:PROC				; operator new
EXTRN	__CxxThrowException@8:PROC
EXTRN	??0exception@std@@QAE@ABV01@@Z:PROC		; std::exception::exception
;	COMDAT __CT??_R0?AVexception@std@@@8??0exception@std@@QAE@ABV01@@Z12
; File c:\program files (x86)\microsoft visual studio 10.0\vc\include\exception
xdata$x	SEGMENT
__CT??_R0?AVexception@std@@@8??0exception@std@@QAE@ABV01@@Z12 DD 00H
	DD	FLAT:??_R0?AVexception@std@@@8
	DD	00H
	DD	0ffffffffH
	ORG $+4
	DD	0cH
	DD	FLAT:??0exception@std@@QAE@ABV01@@Z
xdata$x	ENDS
;	COMDAT __CT??_R0?AVbad_alloc@std@@@8??0bad_alloc@std@@QAE@ABV01@@Z12
xdata$x	SEGMENT
__CT??_R0?AVbad_alloc@std@@@8??0bad_alloc@std@@QAE@ABV01@@Z12 DD 00H
	DD	FLAT:??_R0?AVbad_alloc@std@@@8
	DD	00H
	DD	0ffffffffH
	ORG $+4
	DD	0cH
	DD	FLAT:??0bad_alloc@std@@QAE@ABV01@@Z
xdata$x	ENDS
;	COMDAT __CTA2?AVbad_alloc@std@@
xdata$x	SEGMENT
__CTA2?AVbad_alloc@std@@ DD 02H
	DD	FLAT:__CT??_R0?AVbad_alloc@std@@@8??0bad_alloc@std@@QAE@ABV01@@Z12
	DD	FLAT:__CT??_R0?AVexception@std@@@8??0exception@std@@QAE@ABV01@@Z12
xdata$x	ENDS
;	COMDAT __TI2?AVbad_alloc@std@@
xdata$x	SEGMENT
__TI2?AVbad_alloc@std@@ DD 00H
	DD	FLAT:??1bad_alloc@std@@UAE@XZ
	DD	00H
	DD	FLAT:__CTA2?AVbad_alloc@std@@
; Function compile flags: /Ogsp
; File c:\program files (x86)\microsoft visual studio 10.0\vc\include\xmemory
xdata$x	ENDS
;	COMDAT ??$_Allocate@U_Node@?$_Tree_nod@V?$_Tmap_traits@KVioHashString@@U?$less@K@std@@V?$allocator@U?$pair@$$CBKVioHashString@@@std@@@3@$0A@@std@@@std@@@std@@YAPAU_Node@?$_Tree_nod@V?$_Tmap_traits@KVioHashString@@U?$less@K@std@@V?$allocator@U?$pair@$$CBKVioHashString@@@std@@@3@$0A@@std@@@0@IPAU120@@Z
_TEXT	SEGMENT
$T530104 = -12						; size = 12
$T530109 = 8						; size = 4
__Count$ = 8						; size = 4
___formal$ = 12						; size = 4
??$_Allocate@U_Node@?$_Tree_nod@V?$_Tmap_traits@KVioHashString@@U?$less@K@std@@V?$allocator@U?$pair@$$CBKVioHashString@@@std@@@3@$0A@@std@@@std@@@std@@YAPAU_Node@?$_Tree_nod@V?$_Tmap_traits@KVioHashString@@U?$less@K@std@@V?$allocator@U?$pair@$$CBKVioHashString@@@std@@@3@$0A@@std@@@0@IPAU120@@Z PROC ; std::_Allocate<std::_Tree_nod<std::_Tmap_traits<unsigned long,ioHashString,std::less<unsigned long>,std::allocator<std::pair<unsigned long const ,ioHashString> >,0> >::_Node>, COMDAT

; 30   : 	{	// allocate storage for _Count elements of type _Ty

  00000	55		 push	 ebp
  00001	8b ec		 mov	 ebp, esp

; 31   : 	void *_Ptr = 0;
; 32   : 
; 33   : 	if (_Count <= 0)

  00003	8b 4d 08	 mov	 ecx, DWORD PTR __Count$[ebp]
  00006	83 ec 0c	 sub	 esp, 12			; 0000000cH
  00009	33 c0		 xor	 eax, eax
  0000b	85 c9		 test	 ecx, ecx

; 34   : 		_Count = 0;
; 35   : 	else if (((_SIZT)(-1) / sizeof (_Ty) < _Count)

  0000d	74 3c		 je	 SHORT $LN5@Allocate

; 36   : 		|| (_Ptr = ::operator new(_Count * sizeof (_Ty))) == 0)

  0000f	81 f9 c7 71 1c
	07		 cmp	 ecx, 119304647		; 071c71c7H
  00015	77 0e		 ja	 SHORT $LN1@Allocate
  00017	6b c9 24	 imul	 ecx, 36			; 00000024H
  0001a	51		 push	 ecx
  0001b	e8 00 00 00 00	 call	 ??2@YAPAXI@Z		; operator new
  00020	59		 pop	 ecx
  00021	85 c0		 test	 eax, eax

; 38   : 
; 39   : 	return ((_Ty _FARQ *)_Ptr);

  00023	75 26		 jne	 SHORT $LN5@Allocate
$LN1@Allocate:

; 37   : 		_THROW_NCEE(bad_alloc, 0);

  00025	83 65 08 00	 and	 DWORD PTR $T530109[ebp], 0
  00029	8d 45 08	 lea	 eax, DWORD PTR $T530109[ebp]
  0002c	50		 push	 eax
  0002d	8d 4d f4	 lea	 ecx, DWORD PTR $T530104[ebp]
  00030	ff 15 00 00 00
	00		 call	 DWORD PTR __imp_??0exception@std@@QAE@ABQBD@Z
  00036	68 00 00 00 00	 push	 OFFSET __TI2?AVbad_alloc@std@@
  0003b	8d 45 f4	 lea	 eax, DWORD PTR $T530104[ebp]
  0003e	50		 push	 eax
  0003f	c7 45 f4 00 00
	00 00		 mov	 DWORD PTR $T530104[ebp], OFFSET ??_7bad_alloc@std@@6B@
  00046	e8 00 00 00 00	 call	 __CxxThrowException@8
$LN10@Allocate:
$LN5@Allocate:

; 40   : 	}

  0004b	c9		 leave
  0004c	c3		 ret	 0
$LN9@Allocate:
??$_Allocate@U_Node@?$_Tree_nod@V?$_Tmap_traits@KVioHashString@@U?$less@K@std@@V?$allocator@U?$pair@$$CBKVioHashString@@@std@@@3@$0A@@std@@@std@@@std@@YAPAU_Node@?$_Tree_nod@V?$_Tmap_traits@KVioHashString@@U?$less@K@std@@V?$allocator@U?$pair@$$CBKVioHashString@@@std@@@3@$0A@@std@@@0@IPAU120@@Z ENDP ; std::_Allocate<std::_Tree_nod<std::_Tmap_traits<unsigned long,ioHashString,std::less<unsigned long>,std::allocator<std::pair<unsigned long const ,ioHashString> >,0> >::_Node>
_TEXT	ENDS
PUBLIC	?max_size@?$allocator@U?$pair@$$CBKVioHashString@@@std@@@std@@QBEIXZ ; std::allocator<std::pair<unsigned long const ,ioHashString> >::max_size
; Function compile flags: /Ogsp
;	COMDAT ?max_size@?$allocator@U?$pair@$$CBKVioHashString@@@std@@@std@@QBEIXZ
_TEXT	SEGMENT
?max_size@?$allocator@U?$pair@$$CBKVioHashString@@@std@@@std@@QBEIXZ PROC ; std::allocator<std::pair<unsigned long const ,ioHashString> >::max_size, COMDAT
; _this$ = ecx

; 218  : 		_SIZT _Count = (_SIZT)(-1) / sizeof (_Ty);
; 219  : 		return (0 < _Count ? _Count : 1);

  00000	b8 cc cc cc 0c	 mov	 eax, 214748364		; 0cccccccH

; 220  : 		}

  00005	c3		 ret	 0
?max_size@?$allocator@U?$pair@$$CBKVioHashString@@@std@@@std@@QBEIXZ ENDP ; std::allocator<std::pair<unsigned long const ,ioHashString> >::max_size
_TEXT	ENDS
PUBLIC	??F?$_Tree_unchecked_const_iterator@V?$_Tree_val@V?$_Tmap_traits@KVioHashString@@U?$less@K@std@@V?$allocator@U?$pair@$$CBKVioHashString@@@std@@@3@$0A@@std@@@std@@U_Iterator_base0@2@@std@@QAEAAV01@XZ ; std::_Tree_unchecked_const_iterator<std::_Tree_val<std::_Tmap_traits<unsigned long,ioHashString,std::less<unsigned long>,std::allocator<std::pair<unsigned long const ,ioHashString> >,0> >,std::_Iterator_base0>::operator--
; Function compile flags: /Ogsp
; File c:\program files (x86)\microsoft visual studio 10.0\vc\include\xtree
;	COMDAT ??F?$_Tree_unchecked_const_iterator@V?$_Tree_val@V?$_Tmap_traits@KVioHashString@@U?$less@K@std@@V?$allocator@U?$pair@$$CBKVioHashString@@@std@@@3@$0A@@std@@@std@@U_Iterator_base0@2@@std@@QAEAAV01@XZ
_TEXT	SEGMENT
??F?$_Tree_unchecked_const_iterator@V?$_Tree_val@V?$_Tmap_traits@KVioHashString@@U?$less@K@std@@V?$allocator@U?$pair@$$CBKVioHashString@@@std@@@3@$0A@@std@@@std@@U_Iterator_base0@2@@std@@QAEAAV01@XZ PROC ; std::_Tree_unchecked_const_iterator<std::_Tree_val<std::_Tmap_traits<unsigned long,ioHashString,std::less<unsigned long>,std::allocator<std::pair<unsigned long const ,ioHashString> >,0> >,std::_Iterator_base0>::operator--, COMDAT
; _this$ = ecx

; 83   : 		{	// predecrement

  00000	8b c1		 mov	 eax, ecx

; 84   : 		if (_Mytree::_Isnil(_Ptr))

  00002	8b 08		 mov	 ecx, DWORD PTR [eax]
  00004	53		 push	 ebx
  00005	32 db		 xor	 bl, bl
  00007	38 59 21	 cmp	 BYTE PTR [ecx+33], bl
  0000a	74 07		 je	 SHORT $LN8@operator@2

; 85   : 			_Ptr = _Mytree::_Right(_Ptr);	// end() ==> rightmost

  0000c	8b 49 08	 mov	 ecx, DWORD PTR [ecx+8]
  0000f	89 08		 mov	 DWORD PTR [eax], ecx
  00011	5b		 pop	 ebx

; 99   : 			}
; 100  : 		return (*this);
; 101  : 		}

  00012	c3		 ret	 0
$LN8@operator@2:

; 86   : 		else if (!_Mytree::_Isnil(_Mytree::_Left(_Ptr)))

  00013	8b 11		 mov	 edx, DWORD PTR [ecx]
  00015	38 5a 21	 cmp	 BYTE PTR [edx+33], bl
  00018	74 07		 je	 SHORT $LN44@operator@2

; 90   : 			{	// climb looking for left subtree
; 91   : 			_Nodeptr _Pnode;
; 92   : 			while (!_Mytree::_Isnil(_Pnode = _Mytree::_Parent(_Ptr))
; 93   : 				&& _Ptr == _Mytree::_Left(_Pnode))

  0001a	8b 51 04	 mov	 edx, DWORD PTR [ecx+4]
  0001d	eb 17		 jmp	 SHORT $LN46@operator@2

; 87   : 			_Ptr = _Mytree::_Max(
; 88   : 				_Mytree::_Left(_Ptr));	// ==> largest of left subtree

$LL22@operator@2:
  0001f	8b d1		 mov	 edx, ecx
$LN44@operator@2:
  00021	8b 4a 08	 mov	 ecx, DWORD PTR [edx+8]
  00024	38 59 21	 cmp	 BYTE PTR [ecx+33], bl
  00027	74 f6		 je	 SHORT $LL22@operator@2

; 89   : 		else

  00029	eb 17		 jmp	 SHORT $LN45@operator@2
$LL4@operator@2:

; 90   : 			{	// climb looking for left subtree
; 91   : 			_Nodeptr _Pnode;
; 92   : 			while (!_Mytree::_Isnil(_Pnode = _Mytree::_Parent(_Ptr))
; 93   : 				&& _Ptr == _Mytree::_Left(_Pnode))

  0002b	8b 08		 mov	 ecx, DWORD PTR [eax]
  0002d	3b 0a		 cmp	 ecx, DWORD PTR [edx]
  0002f	75 0a		 jne	 SHORT $LN3@operator@2

; 94   : 				_Ptr = _Pnode;	// ==> parent while left subtree

  00031	89 10		 mov	 DWORD PTR [eax], edx
  00033	8b 52 04	 mov	 edx, DWORD PTR [edx+4]
$LN46@operator@2:

; 90   : 			{	// climb looking for left subtree
; 91   : 			_Nodeptr _Pnode;
; 92   : 			while (!_Mytree::_Isnil(_Pnode = _Mytree::_Parent(_Ptr))
; 93   : 				&& _Ptr == _Mytree::_Left(_Pnode))

  00036	38 5a 21	 cmp	 BYTE PTR [edx+33], bl
  00039	74 f0		 je	 SHORT $LL4@operator@2
$LN3@operator@2:

; 95   : 			if (_Mytree::_Isnil(_Ptr))

  0003b	8b 08		 mov	 ecx, DWORD PTR [eax]
  0003d	38 59 21	 cmp	 BYTE PTR [ecx+33], bl
  00040	75 02		 jne	 SHORT $LN1@operator@2
$LN45@operator@2:

; 96   : 				;	// begin() shouldn't be decremented, don't move
; 97   : 			else
; 98   : 				_Ptr = _Pnode;	// ==> parent if not head

  00042	89 10		 mov	 DWORD PTR [eax], edx
$LN1@operator@2:
  00044	5b		 pop	 ebx

; 99   : 			}
; 100  : 		return (*this);
; 101  : 		}

  00045	c3		 ret	 0
??F?$_Tree_unchecked_const_iterator@V?$_Tree_val@V?$_Tmap_traits@KVioHashString@@U?$less@K@std@@V?$allocator@U?$pair@$$CBKVioHashString@@@std@@@3@$0A@@std@@@std@@U_Iterator_base0@2@@std@@QAEAAV01@XZ ENDP ; std::_Tree_unchecked_const_iterator<std::_Tree_val<std::_Tmap_traits<unsigned long,ioHashString,std::less<unsigned long>,std::allocator<std::pair<unsigned long const ,ioHashString> >,0> >,std::_Iterator_base0>::operator--
_TEXT	ENDS
PUBLIC	??$forward@AAY0BAE@D@std@@YAAAY0BAE@DAAY0BAE@D@Z ; std::forward<char (&)[260]>
; Function compile flags: /Ogsp
; File c:\program files (x86)\microsoft visual studio 10.0\vc\include\utility
;	COMDAT ??$forward@AAY0BAE@D@std@@YAAAY0BAE@DAAY0BAE@D@Z
_TEXT	SEGMENT
__Arg$ = 8						; size = 4
??$forward@AAY0BAE@D@std@@YAAAY0BAE@DAAY0BAE@D@Z PROC	; std::forward<char (&)[260]>, COMDAT

; 78   : 	{	// forward _Arg, given explicitly specified type parameter

  00000	55		 push	 ebp
  00001	8b ec		 mov	 ebp, esp

; 79   : 	return ((_Ty&&)_Arg);

  00003	8b 45 08	 mov	 eax, DWORD PTR __Arg$[ebp]

; 80   : 	}

  00006	5d		 pop	 ebp
  00007	c3		 ret	 0
??$forward@AAY0BAE@D@std@@YAAAY0BAE@DAAY0BAE@D@Z ENDP	; std::forward<char (&)[260]>
_TEXT	ENDS
PUBLIC	??$forward@U?$pair@$$CBKVioHashString@@@std@@@std@@YA$$QAU?$pair@$$CBKVioHashString@@@0@AAU10@@Z ; std::forward<std::pair<unsigned long const ,ioHashString> >
; Function compile flags: /Ogsp
;	COMDAT ??$forward@U?$pair@$$CBKVioHashString@@@std@@@std@@YA$$QAU?$pair@$$CBKVioHashString@@@0@AAU10@@Z
_TEXT	SEGMENT
__Arg$ = 8						; size = 4
??$forward@U?$pair@$$CBKVioHashString@@@std@@@std@@YA$$QAU?$pair@$$CBKVioHashString@@@0@AAU10@@Z PROC ; std::forward<std::pair<unsigned long const ,ioHashString> >, COMDAT

; 78   : 	{	// forward _Arg, given explicitly specified type parameter

  00000	55		 push	 ebp
  00001	8b ec		 mov	 ebp, esp

; 79   : 	return ((_Ty&&)_Arg);

  00003	8b 45 08	 mov	 eax, DWORD PTR __Arg$[ebp]

; 80   : 	}

  00006	5d		 pop	 ebp
  00007	c3		 ret	 0
??$forward@U?$pair@$$CBKVioHashString@@@std@@@std@@YA$$QAU?$pair@$$CBKVioHashString@@@0@AAU10@@Z ENDP ; std::forward<std::pair<unsigned long const ,ioHashString> >
_TEXT	ENDS
PUBLIC	??$move@AAV?$_Tree_iterator@V?$_Tree_val@V?$_Tmap_traits@KVioHashString@@U?$less@K@std@@V?$allocator@U?$pair@$$CBKVioHashString@@@std@@@3@$0A@@std@@@std@@@std@@@std@@YA$$QAV?$_Tree_iterator@V?$_Tree_val@V?$_Tmap_traits@KVioHashString@@U?$less@K@std@@V?$allocator@U?$pair@$$CBKVioHashString@@@std@@@3@$0A@@std@@@std@@@0@AAV10@@Z ; std::move<std::_Tree_iterator<std::_Tree_val<std::_Tmap_traits<unsigned long,ioHashString,std::less<unsigned long>,std::allocator<std::pair<unsigned long const ,ioHashString> >,0> > > &>
; Function compile flags: /Ogsp
;	COMDAT ??$move@AAV?$_Tree_iterator@V?$_Tree_val@V?$_Tmap_traits@KVioHashString@@U?$less@K@std@@V?$allocator@U?$pair@$$CBKVioHashString@@@std@@@3@$0A@@std@@@std@@@std@@@std@@YA$$QAV?$_Tree_iterator@V?$_Tree_val@V?$_Tmap_traits@KVioHashString@@U?$less@K@std@@V?$allocator@U?$pair@$$CBKVioHashString@@@std@@@3@$0A@@std@@@std@@@0@AAV10@@Z
_TEXT	SEGMENT
__Arg$ = 8						; size = 4
??$move@AAV?$_Tree_iterator@V?$_Tree_val@V?$_Tmap_traits@KVioHashString@@U?$less@K@std@@V?$allocator@U?$pair@$$CBKVioHashString@@@std@@@3@$0A@@std@@@std@@@std@@@std@@YA$$QAV?$_Tree_iterator@V?$_Tree_val@V?$_Tmap_traits@KVioHashString@@U?$less@K@std@@V?$allocator@U?$pair@$$CBKVioHashString@@@std@@@3@$0A@@std@@@std@@@0@AAV10@@Z PROC ; std::move<std::_Tree_iterator<std::_Tree_val<std::_Tmap_traits<unsigned long,ioHashString,std::less<unsigned long>,std::allocator<std::pair<unsigned long const ,ioHashString> >,0> > > &>, COMDAT

; 86   : 	{	// forward _Arg as movable

  00000	55		 push	 ebp
  00001	8b ec		 mov	 ebp, esp

; 87   : 	return ((typename tr1::_Remove_reference<_Ty>::_Type&&)_Arg);

  00003	8b 45 08	 mov	 eax, DWORD PTR __Arg$[ebp]

; 88   : 	}

  00006	5d		 pop	 ebp
  00007	c3		 ret	 0
??$move@AAV?$_Tree_iterator@V?$_Tree_val@V?$_Tmap_traits@KVioHashString@@U?$less@K@std@@V?$allocator@U?$pair@$$CBKVioHashString@@@std@@@3@$0A@@std@@@std@@@std@@@std@@YA$$QAV?$_Tree_iterator@V?$_Tree_val@V?$_Tmap_traits@KVioHashString@@U?$less@K@std@@V?$allocator@U?$pair@$$CBKVioHashString@@@std@@@3@$0A@@std@@@std@@@0@AAV10@@Z ENDP ; std::move<std::_Tree_iterator<std::_Tree_val<std::_Tmap_traits<unsigned long,ioHashString,std::less<unsigned long>,std::allocator<std::pair<unsigned long const ,ioHashString> >,0> > > &>
_TEXT	ENDS
PUBLIC	??$_Val_type@PAVioHashString@@@std@@YAPAVioHashString@@PAV1@@Z ; std::_Val_type<ioHashString *>
; Function compile flags: /Ogsp
; File c:\program files (x86)\microsoft visual studio 10.0\vc\include\xutility
;	COMDAT ??$_Val_type@PAVioHashString@@@std@@YAPAVioHashString@@PAV1@@Z
_TEXT	SEGMENT
___formal$ = 8						; size = 4
??$_Val_type@PAVioHashString@@@std@@YAPAVioHashString@@PAV1@@Z PROC ; std::_Val_type<ioHashString *>, COMDAT

; 790  : 	return (0);

  00000	33 c0		 xor	 eax, eax

; 791  : 	}

  00002	c3		 ret	 0
??$_Val_type@PAVioHashString@@@std@@YAPAVioHashString@@PAV1@@Z ENDP ; std::_Val_type<ioHashString *>
_TEXT	ENDS
PUBLIC	??$forward@AAV?$_Tree_iterator@V?$_Tree_val@V?$_Tmap_traits@KVioHashString@@U?$less@K@std@@V?$allocator@U?$pair@$$CBKVioHashString@@@std@@@3@$0A@@std@@@std@@@std@@@std@@YAAAV?$_Tree_iterator@V?$_Tree_val@V?$_Tmap_traits@KVioHashString@@U?$less@K@std@@V?$allocator@U?$pair@$$CBKVioHashString@@@std@@@3@$0A@@std@@@std@@@0@AAV10@@Z ; std::forward<std::_Tree_iterator<std::_Tree_val<std::_Tmap_traits<unsigned long,ioHashString,std::less<unsigned long>,std::allocator<std::pair<unsigned long const ,ioHashString> >,0> > > &>
; Function compile flags: /Ogsp
; File c:\program files (x86)\microsoft visual studio 10.0\vc\include\utility
;	COMDAT ??$forward@AAV?$_Tree_iterator@V?$_Tree_val@V?$_Tmap_traits@KVioHashString@@U?$less@K@std@@V?$allocator@U?$pair@$$CBKVioHashString@@@std@@@3@$0A@@std@@@std@@@std@@@std@@YAAAV?$_Tree_iterator@V?$_Tree_val@V?$_Tmap_traits@KVioHashString@@U?$less@K@std@@V?$allocator@U?$pair@$$CBKVioHashString@@@std@@@3@$0A@@std@@@std@@@0@AAV10@@Z
_TEXT	SEGMENT
__Arg$ = 8						; size = 4
??$forward@AAV?$_Tree_iterator@V?$_Tree_val@V?$_Tmap_traits@KVioHashString@@U?$less@K@std@@V?$allocator@U?$pair@$$CBKVioHashString@@@std@@@3@$0A@@std@@@std@@@std@@@std@@YAAAV?$_Tree_iterator@V?$_Tree_val@V?$_Tmap_traits@KVioHashString@@U?$less@K@std@@V?$allocator@U?$pair@$$CBKVioHashString@@@std@@@3@$0A@@std@@@std@@@0@AAV10@@Z PROC ; std::forward<std::_Tree_iterator<std::_Tree_val<std::_Tmap_traits<unsigned long,ioHashString,std::less<unsigned long>,std::allocator<std::pair<unsigned long const ,ioHashString> >,0> > > &>, COMDAT

; 78   : 	{	// forward _Arg, given explicitly specified type parameter

  00000	55		 push	 ebp
  00001	8b ec		 mov	 ebp, esp

; 79   : 	return ((_Ty&&)_Arg);

  00003	8b 45 08	 mov	 eax, DWORD PTR __Arg$[ebp]

; 80   : 	}

  00006	5d		 pop	 ebp
  00007	c3		 ret	 0
??$forward@AAV?$_Tree_iterator@V?$_Tree_val@V?$_Tmap_traits@KVioHashString@@U?$less@K@std@@V?$allocator@U?$pair@$$CBKVioHashString@@@std@@@3@$0A@@std@@@std@@@std@@@std@@YAAAV?$_Tree_iterator@V?$_Tree_val@V?$_Tmap_traits@KVioHashString@@U?$less@K@std@@V?$allocator@U?$pair@$$CBKVioHashString@@@std@@@3@$0A@@std@@@std@@@0@AAV10@@Z ENDP ; std::forward<std::_Tree_iterator<std::_Tree_val<std::_Tmap_traits<unsigned long,ioHashString,std::less<unsigned long>,std::allocator<std::pair<unsigned long const ,ioHashString> >,0> > > &>
_TEXT	ENDS
PUBLIC	??$forward@VioHashString@@@std@@YA$$QAVioHashString@@AAV1@@Z ; std::forward<ioHashString>
; Function compile flags: /Ogsp
;	COMDAT ??$forward@VioHashString@@@std@@YA$$QAVioHashString@@AAV1@@Z
_TEXT	SEGMENT
__Arg$ = 8						; size = 4
??$forward@VioHashString@@@std@@YA$$QAVioHashString@@AAV1@@Z PROC ; std::forward<ioHashString>, COMDAT

; 78   : 	{	// forward _Arg, given explicitly specified type parameter

  00000	55		 push	 ebp
  00001	8b ec		 mov	 ebp, esp

; 79   : 	return ((_Ty&&)_Arg);

  00003	8b 45 08	 mov	 eax, DWORD PTR __Arg$[ebp]

; 80   : 	}

  00006	5d		 pop	 ebp
  00007	c3		 ret	 0
??$forward@VioHashString@@@std@@YA$$QAVioHashString@@AAV1@@Z ENDP ; std::forward<ioHashString>
_TEXT	ENDS
PUBLIC	??$forward@$$CBK@std@@YA$$QBKABK@Z		; std::forward<unsigned long const >
; Function compile flags: /Ogsp
;	COMDAT ??$forward@$$CBK@std@@YA$$QBKABK@Z
_TEXT	SEGMENT
__Arg$ = 8						; size = 4
??$forward@$$CBK@std@@YA$$QBKABK@Z PROC			; std::forward<unsigned long const >, COMDAT

; 78   : 	{	// forward _Arg, given explicitly specified type parameter

  00000	55		 push	 ebp
  00001	8b ec		 mov	 ebp, esp

; 79   : 	return ((_Ty&&)_Arg);

  00003	8b 45 08	 mov	 eax, DWORD PTR __Arg$[ebp]

; 80   : 	}

  00006	5d		 pop	 ebp
  00007	c3		 ret	 0
??$forward@$$CBK@std@@YA$$QBKABK@Z ENDP			; std::forward<unsigned long const >
_TEXT	ENDS
PUBLIC	??$move@ABK@std@@YA$$QBKABK@Z			; std::move<unsigned long const &>
; Function compile flags: /Ogsp
;	COMDAT ??$move@ABK@std@@YA$$QBKABK@Z
_TEXT	SEGMENT
__Arg$ = 8						; size = 4
??$move@ABK@std@@YA$$QBKABK@Z PROC			; std::move<unsigned long const &>, COMDAT

; 86   : 	{	// forward _Arg as movable

  00000	55		 push	 ebp
  00001	8b ec		 mov	 ebp, esp

; 87   : 	return ((typename tr1::_Remove_reference<_Ty>::_Type&&)_Arg);

  00003	8b 45 08	 mov	 eax, DWORD PTR __Arg$[ebp]

; 88   : 	}

  00006	5d		 pop	 ebp
  00007	c3		 ret	 0
??$move@ABK@std@@YA$$QBKABK@Z ENDP			; std::move<unsigned long const &>
_TEXT	ENDS
PUBLIC	?_DECSTR@@YAXPADH@Z				; _DECSTR
; Function compile flags: /Ogsp
; File d:\lost saga for developer\youtube\tutorial\source\src\lsclient\stringprotect.h
;	COMDAT ?_DECSTR@@YAXPADH@Z
_TEXT	SEGMENT
_s$ = 8							; size = 4
_l$ = 12						; size = 4
?_DECSTR@@YAXPADH@Z PROC				; _DECSTR, COMDAT

; 40   : __forceinline void _DECSTR(char* s, int l){int i=0,l4=(l-1)/4,*p=(int*)s;s[l-1]=0;for(;i<l4;++i)*(p++)^=0xEAEBECED;for(i=l4*4;i<l-1;++i)s[i]^=0xED-i%4;}

  00000	55		 push	 ebp
  00001	8b ec		 mov	 ebp, esp
  00003	8b 4d 0c	 mov	 ecx, DWORD PTR _l$[ebp]
  00006	56		 push	 esi
  00007	8b 75 08	 mov	 esi, DWORD PTR _s$[ebp]
  0000a	57		 push	 edi
  0000b	8d 79 ff	 lea	 edi, DWORD PTR [ecx-1]
  0000e	8b c7		 mov	 eax, edi
  00010	99		 cdq
  00011	83 e2 03	 and	 edx, 3
  00014	03 c2		 add	 eax, edx
  00016	c1 f8 02	 sar	 eax, 2
  00019	8b d6		 mov	 edx, esi
  0001b	c6 44 0e ff 00	 mov	 BYTE PTR [esi+ecx-1], 0
  00020	85 c0		 test	 eax, eax
  00022	7e 0e		 jle	 SHORT $LN4@DECSTR
  00024	8b c8		 mov	 ecx, eax
$LL6@DECSTR:
  00026	81 32 ed ec eb
	ea		 xor	 DWORD PTR [edx], -353637139 ; eaebecedH
  0002c	83 c2 04	 add	 edx, 4
  0002f	49		 dec	 ecx
  00030	75 f4		 jne	 SHORT $LL6@DECSTR
$LN4@DECSTR:
  00032	c1 e0 02	 shl	 eax, 2
  00035	eb 17		 jmp	 SHORT $LN14@DECSTR
$LL3@DECSTR:
  00037	8b c8		 mov	 ecx, eax
  00039	81 e1 03 00 00
	80		 and	 ecx, -2147483645	; 80000003H
  0003f	79 05		 jns	 SHORT $LN13@DECSTR
  00041	49		 dec	 ecx
  00042	83 c9 fc	 or	 ecx, -4			; fffffffcH
  00045	41		 inc	 ecx
$LN13@DECSTR:
  00046	b2 ed		 mov	 dl, -19			; ffffffedH
  00048	2a d1		 sub	 dl, cl
  0004a	30 14 30	 xor	 BYTE PTR [eax+esi], dl
  0004d	40		 inc	 eax
$LN14@DECSTR:
  0004e	3b c7		 cmp	 eax, edi
  00050	7c e5		 jl	 SHORT $LL3@DECSTR
  00052	5f		 pop	 edi
  00053	5e		 pop	 esi
  00054	5d		 pop	 ebp
  00055	c3		 ret	 0
?_DECSTR@@YAXPADH@Z ENDP				; _DECSTR
_TEXT	ENDS
PUBLIC	?size@?$vector@VioHashString@@V?$allocator@VioHashString@@@std@@@std@@QBEIXZ ; std::vector<ioHashString,std::allocator<ioHashString> >::size
; Function compile flags: /Ogsp
; File c:\program files (x86)\microsoft visual studio 10.0\vc\include\vector
;	COMDAT ?size@?$vector@VioHashString@@V?$allocator@VioHashString@@@std@@@std@@QBEIXZ
_TEXT	SEGMENT
?size@?$vector@VioHashString@@V?$allocator@VioHashString@@@std@@@std@@QBEIXZ PROC ; std::vector<ioHashString,std::allocator<ioHashString> >::size, COMDAT
; _this$ = ecx

; 879  : 		return (this->_Mylast - this->_Myfirst);

  00000	8b 41 04	 mov	 eax, DWORD PTR [ecx+4]
  00003	2b 01		 sub	 eax, DWORD PTR [ecx]
  00005	c1 f8 04	 sar	 eax, 4

; 880  : 		}

  00008	c3		 ret	 0
?size@?$vector@VioHashString@@V?$allocator@VioHashString@@@std@@@std@@QBEIXZ ENDP ; std::vector<ioHashString,std::allocator<ioHashString> >::size
_TEXT	ENDS
PUBLIC	??_7?$CEncrypt@K@@6B@				; CEncrypt<unsigned long>::`vftable'
PUBLIC	??1?$CEncrypt@K@@UAE@XZ				; CEncrypt<unsigned long>::~CEncrypt<unsigned long>
PUBLIC	??_R4?$CEncrypt@K@@6B@				; CEncrypt<unsigned long>::`RTTI Complete Object Locator'
PUBLIC	??_R0?AV?$CEncrypt@K@@@8			; CEncrypt<unsigned long> `RTTI Type Descriptor'
PUBLIC	??_R3?$CEncrypt@K@@8				; CEncrypt<unsigned long>::`RTTI Class Hierarchy Descriptor'
PUBLIC	??_R2?$CEncrypt@K@@8				; CEncrypt<unsigned long>::`RTTI Base Class Array'
PUBLIC	??_R1A@?0A@EA@?$CEncrypt@K@@8			; CEncrypt<unsigned long>::`RTTI Base Class Descriptor at (0,-1,0,64)'
EXTRN	??1ccddaabb@@UAE@XZ:PROC			; ccddaabb::~ccddaabb
EXTRN	??_E?$CEncrypt@K@@UAEPAXI@Z:PROC		; CEncrypt<unsigned long>::`vector deleting destructor'
;	COMDAT ??_R1A@?0A@EA@?$CEncrypt@K@@8
; File d:\lost saga for developer\youtube\tutorial\source\src\lsclient\encryptvalue.h
rdata$r	SEGMENT
??_R1A@?0A@EA@?$CEncrypt@K@@8 DD FLAT:??_R0?AV?$CEncrypt@K@@@8 ; CEncrypt<unsigned long>::`RTTI Base Class Descriptor at (0,-1,0,64)'
	DD	00H
	DD	00H
	DD	0ffffffffH
	DD	00H
	DD	040H
	DD	FLAT:??_R3?$CEncrypt@K@@8
rdata$r	ENDS
;	COMDAT ??_R2?$CEncrypt@K@@8
rdata$r	SEGMENT
??_R2?$CEncrypt@K@@8 DD FLAT:??_R1A@?0A@EA@?$CEncrypt@K@@8 ; CEncrypt<unsigned long>::`RTTI Base Class Array'
rdata$r	ENDS
;	COMDAT ??_R3?$CEncrypt@K@@8
rdata$r	SEGMENT
??_R3?$CEncrypt@K@@8 DD 00H				; CEncrypt<unsigned long>::`RTTI Class Hierarchy Descriptor'
	DD	00H
	DD	01H
	DD	FLAT:??_R2?$CEncrypt@K@@8
rdata$r	ENDS
;	COMDAT ??_R0?AV?$CEncrypt@K@@@8
_DATA	SEGMENT
??_R0?AV?$CEncrypt@K@@@8 DD FLAT:??_7type_info@@6B@	; CEncrypt<unsigned long> `RTTI Type Descriptor'
	DD	00H
	DB	'.?AV?$CEncrypt@K@@', 00H
_DATA	ENDS
;	COMDAT ??_R4?$CEncrypt@K@@6B@
rdata$r	SEGMENT
??_R4?$CEncrypt@K@@6B@ DD 00H				; CEncrypt<unsigned long>::`RTTI Complete Object Locator'
	DD	00H
	DD	00H
	DD	FLAT:??_R0?AV?$CEncrypt@K@@@8
	DD	FLAT:??_R3?$CEncrypt@K@@8
rdata$r	ENDS
;	COMDAT ??_7?$CEncrypt@K@@6B@
CONST	SEGMENT
??_7?$CEncrypt@K@@6B@ DD FLAT:??_R4?$CEncrypt@K@@6B@	; CEncrypt<unsigned long>::`vftable'
	DD	FLAT:??_E?$CEncrypt@K@@UAEPAXI@Z
; Function compile flags: /Ogsp
CONST	ENDS
;	COMDAT ??1?$CEncrypt@K@@UAE@XZ
_TEXT	SEGMENT
??1?$CEncrypt@K@@UAE@XZ PROC				; CEncrypt<unsigned long>::~CEncrypt<unsigned long>, COMDAT
; _this$ = ecx

; 127  : 	{

  00000	c7 01 00 00 00
	00		 mov	 DWORD PTR [ecx], OFFSET ??_7?$CEncrypt@K@@6B@

; 128  : 	}

  00006	83 c1 0c	 add	 ecx, 12			; 0000000cH
  00009	e9 00 00 00 00	 jmp	 ??1ccddaabb@@UAE@XZ	; ccddaabb::~ccddaabb
??1?$CEncrypt@K@@UAE@XZ ENDP				; CEncrypt<unsigned long>::~CEncrypt<unsigned long>
; Function compile flags: /Ogsp
_TEXT	ENDS
;	COMDAT ??_G?$CEncrypt@K@@UAEPAXI@Z
_TEXT	SEGMENT
___flags$ = 8						; size = 4
??_G?$CEncrypt@K@@UAEPAXI@Z PROC			; CEncrypt<unsigned long>::`scalar deleting destructor', COMDAT
; _this$ = ecx
  00000	55		 push	 ebp
  00001	8b ec		 mov	 ebp, esp
  00003	56		 push	 esi
  00004	8b f1		 mov	 esi, ecx
  00006	8d 4e 0c	 lea	 ecx, DWORD PTR [esi+12]
  00009	c7 06 00 00 00
	00		 mov	 DWORD PTR [esi], OFFSET ??_7?$CEncrypt@K@@6B@
  0000f	e8 00 00 00 00	 call	 ??1ccddaabb@@UAE@XZ	; ccddaabb::~ccddaabb
  00014	f6 45 08 01	 test	 BYTE PTR ___flags$[ebp], 1
  00018	74 07		 je	 SHORT $LN1@scalar@3
  0001a	56		 push	 esi
  0001b	e8 00 00 00 00	 call	 ??3@YAXPAX@Z		; operator delete
  00020	59		 pop	 ecx
$LN1@scalar@3:
  00021	8b c6		 mov	 eax, esi
  00023	5e		 pop	 esi
  00024	5d		 pop	 ebp
  00025	c2 04 00	 ret	 4
??_G?$CEncrypt@K@@UAEPAXI@Z ENDP			; CEncrypt<unsigned long>::`scalar deleting destructor'
_TEXT	ENDS
PUBLIC	??1?$_Vector_val@VioHashString@@V?$allocator@VioHashString@@@std@@@std@@QAE@XZ ; std::_Vector_val<ioHashString,std::allocator<ioHashString> >::~_Vector_val<ioHashString,std::allocator<ioHashString> >
; Function compile flags: /Ogsp
; File c:\program files (x86)\microsoft visual studio 10.0\vc\include\vector
;	COMDAT ??1?$_Vector_val@VioHashString@@V?$allocator@VioHashString@@@std@@@std@@QAE@XZ
_TEXT	SEGMENT
??1?$_Vector_val@VioHashString@@V?$allocator@VioHashString@@@std@@@std@@QAE@XZ PROC ; std::_Vector_val<ioHashString,std::allocator<ioHashString> >::~_Vector_val<ioHashString,std::allocator<ioHashString> >, COMDAT
; _this$ = ecx

; 434  : 		}

  00000	c3		 ret	 0
??1?$_Vector_val@VioHashString@@V?$allocator@VioHashString@@@std@@@std@@QAE@XZ ENDP ; std::_Vector_val<ioHashString,std::allocator<ioHashString> >::~_Vector_val<ioHashString,std::allocator<ioHashString> >
_TEXT	ENDS
PUBLIC	??0?$allocator@VioHashString@@@std@@QAE@XZ	; std::allocator<ioHashString>::allocator<ioHashString>
; Function compile flags: /Ogsp
; File c:\program files (x86)\microsoft visual studio 10.0\vc\include\xmemory
;	COMDAT ??0?$allocator@VioHashString@@@std@@QAE@XZ
_TEXT	SEGMENT
??0?$allocator@VioHashString@@@std@@QAE@XZ PROC		; std::allocator<ioHashString>::allocator<ioHashString>, COMDAT
; _this$ = ecx

; 161  : 	_ALLOCATOR() _THROW0()

  00000	8b c1		 mov	 eax, ecx

; 162  : 		{	// construct default allocator (do nothing)
; 163  : 		}

  00002	c3		 ret	 0
??0?$allocator@VioHashString@@@std@@QAE@XZ ENDP		; std::allocator<ioHashString>::allocator<ioHashString>
_TEXT	ENDS
PUBLIC	??0?$allocator@VioHashString@@@std@@QAE@ABV01@@Z ; std::allocator<ioHashString>::allocator<ioHashString>
; Function compile flags: /Ogsp
;	COMDAT ??0?$allocator@VioHashString@@@std@@QAE@ABV01@@Z
_TEXT	SEGMENT
___formal$ = 8						; size = 4
??0?$allocator@VioHashString@@@std@@QAE@ABV01@@Z PROC	; std::allocator<ioHashString>::allocator<ioHashString>, COMDAT
; _this$ = ecx

; 165  : 	_ALLOCATOR(const _ALLOCATOR<_Ty>&) _THROW0()

  00000	8b c1		 mov	 eax, ecx

; 166  : 		{	// construct by copying (do nothing)
; 167  : 		}

  00002	c2 04 00	 ret	 4
??0?$allocator@VioHashString@@@std@@QAE@ABV01@@Z ENDP	; std::allocator<ioHashString>::allocator<ioHashString>
_TEXT	ENDS
PUBLIC	?EncryptValueToPool@?$CEncrypt@K@@AAEXPBD@Z	; CEncrypt<unsigned long>::EncryptValueToPool
EXTRN	?EncryptByte@ccddaabb@@QAEXPBDPADH@Z:PROC	; ccddaabb::EncryptByte
; Function compile flags: /Ogsp
; File d:\lost saga for developer\youtube\tutorial\source\src\lsclient\encryptvalue.h
;	COMDAT ?EncryptValueToPool@?$CEncrypt@K@@AAEXPBD@Z
_TEXT	SEGMENT
_value$ = 8						; size = 4
?EncryptValueToPool@?$CEncrypt@K@@AAEXPBD@Z PROC	; CEncrypt<unsigned long>::EncryptValueToPool, COMDAT
; _this$ = ecx

; 67   : 	{

  00000	55		 push	 ebp
  00001	8b ec		 mov	 ebp, esp

; 68   : 		m_RC5.EncryptByte( value, m_MemPool, max(m_ValueSize, DEFAULT_ENCRYPT) );

  00003	0f b7 41 06	 movzx	 eax, WORD PTR [ecx+6]
  00007	83 f8 04	 cmp	 eax, 4
  0000a	77 03		 ja	 SHORT $LN4@EncryptVal
  0000c	6a 04		 push	 4
  0000e	58		 pop	 eax
$LN4@EncryptVal:
  0000f	50		 push	 eax
  00010	8d 41 1c	 lea	 eax, DWORD PTR [ecx+28]
  00013	50		 push	 eax
  00014	ff 75 08	 push	 DWORD PTR _value$[ebp]
  00017	83 c1 0c	 add	 ecx, 12			; 0000000cH
  0001a	e8 00 00 00 00	 call	 ?EncryptByte@ccddaabb@@QAEXPBDPADH@Z ; ccddaabb::EncryptByte

; 69   : 		
; 70   : 	}

  0001f	5d		 pop	 ebp
  00020	c2 04 00	 ret	 4
?EncryptValueToPool@?$CEncrypt@K@@AAEXPBD@Z ENDP	; CEncrypt<unsigned long>::EncryptValueToPool
_TEXT	ENDS
PUBLIC	?Init@?$CEncrypt@K@@AAEXXZ			; CEncrypt<unsigned long>::Init
EXTRN	?Setup@ccddaabb@@QAEXPBDHH@Z:PROC		; ccddaabb::Setup
EXTRN	__imp__rand:PROC
EXTRN	__imp__timeGetTime@0:PROC
EXTRN	__imp__GetCurrentProcessId@0:PROC
; Function compile flags: /Ogsp
;	COMDAT ?Init@?$CEncrypt@K@@AAEXXZ
_TEXT	SEGMENT
_pid$ = -8						; size = 4
_tick$ = -4						; size = 4
?Init@?$CEncrypt@K@@AAEXXZ PROC				; CEncrypt<unsigned long>::Init, COMDAT
; _this$ = ecx

; 73   : 	{

  00000	55		 push	 ebp
  00001	8b ec		 mov	 ebp, esp
  00003	51		 push	 ecx
  00004	51		 push	 ecx
  00005	53		 push	 ebx
  00006	56		 push	 esi
  00007	57		 push	 edi
  00008	8b f1		 mov	 esi, ecx

; 74   : 		DWORD pid = GetCurrentProcessId();

  0000a	ff 15 00 00 00
	00		 call	 DWORD PTR __imp__GetCurrentProcessId@0
  00010	89 45 f8	 mov	 DWORD PTR _pid$[ebp], eax

; 75   : 		DWORD tick = timeGetTime();

  00013	ff 15 00 00 00
	00		 call	 DWORD PTR __imp__timeGetTime@0

; 76   : 		m_ValueSize    = sizeof(type);
; 77   : 		m_MemPoolPos   = (unsigned short)( rand()+pid+tick )%(MAX_MEM_POOL-m_ValueSize);

  00019	8b 3d 00 00 00
	00		 mov	 edi, DWORD PTR __imp__rand
  0001f	89 45 fc	 mov	 DWORD PTR _tick$[ebp], eax
  00022	6a 04		 push	 4
  00024	58		 pop	 eax
  00025	66 89 46 06	 mov	 WORD PTR [esi+6], ax
  00029	ff d7		 call	 edi
  0002b	03 45 f8	 add	 eax, DWORD PTR _pid$[ebp]
  0002e	0f b7 4e 06	 movzx	 ecx, WORD PTR [esi+6]
  00032	03 45 fc	 add	 eax, DWORD PTR _tick$[ebp]
  00035	6a 0c		 push	 12			; 0000000cH
  00037	0f b7 c0	 movzx	 eax, ax
  0003a	5b		 pop	 ebx
  0003b	99		 cdq
  0003c	2b d9		 sub	 ebx, ecx
  0003e	f7 fb		 idiv	 ebx
  00040	66 89 56 04	 mov	 WORD PTR [esi+4], dx

; 78   : 		m_EncryptSeed  = (char)( rand()+pid+tick )%256;

  00044	ff d7		 call	 edi
  00046	02 45 f8	 add	 al, BYTE PTR _pid$[ebp]
  00049	02 45 fc	 add	 al, BYTE PTR _tick$[ebp]
  0004c	0f be c0	 movsx	 eax, al
  0004f	25 ff 00 00 80	 and	 eax, -2147483393	; 800000ffH
  00054	79 07		 jns	 SHORT $LN8@Init
  00056	48		 dec	 eax
  00057	0d 00 ff ff ff	 or	 eax, -256		; ffffff00H
  0005c	40		 inc	 eax
$LN8@Init:
  0005d	88 46 08	 mov	 BYTE PTR [esi+8], al

; 79   : 
; 80   : 		for (int i = 0; i < MAX_MEM_POOL ; i++)

  00060	33 db		 xor	 ebx, ebx
$LL3@Init:

; 81   : 			m_MemPool[i] = (char)( rand()+pid+tick )%256; // 

  00062	ff d7		 call	 edi
  00064	02 45 f8	 add	 al, BYTE PTR _pid$[ebp]
  00067	02 45 fc	 add	 al, BYTE PTR _tick$[ebp]
  0006a	0f be c0	 movsx	 eax, al
  0006d	25 ff 00 00 80	 and	 eax, -2147483393	; 800000ffH
  00072	79 07		 jns	 SHORT $LN9@Init
  00074	48		 dec	 eax
  00075	0d 00 ff ff ff	 or	 eax, -256		; ffffff00H
  0007a	40		 inc	 eax
$LN9@Init:
  0007b	88 44 1e 1c	 mov	 BYTE PTR [esi+ebx+28], al
  0007f	43		 inc	 ebx
  00080	83 fb 0c	 cmp	 ebx, 12			; 0000000cH
  00083	7c dd		 jl	 SHORT $LL3@Init

; 82   : 
; 83   : 		//UJ 130913, : szKey  
; 84   : 		//char szKey[ccddaabb::KEY_SIZE];//="";
; 85   : 		//for (int i = 0; i < ccddaabb::KEY_SIZE  ; i++)
; 86   : 		//	szKey[i] = (char)( rand()+pid+tick )%256; // 
; 87   : 		m_RC5.Setup( NULL, pid, tick );

  00085	ff 75 fc	 push	 DWORD PTR _tick$[ebp]
  00088	8d 4e 0c	 lea	 ecx, DWORD PTR [esi+12]
  0008b	ff 75 f8	 push	 DWORD PTR _pid$[ebp]
  0008e	6a 00		 push	 0
  00090	e8 00 00 00 00	 call	 ?Setup@ccddaabb@@QAEXPBDHH@Z ; ccddaabb::Setup
  00095	5f		 pop	 edi
  00096	5e		 pop	 esi
  00097	5b		 pop	 ebx

; 88   : 
; 89   : #ifdef _NOTUSE
; 90   : 		m_value        = 0;
; 91   : 		EncryptValueToPool((char*)&m_value);
; 92   : 		Debug();
; 93   : #endif
; 94   : 	}

  00098	c9		 leave
  00099	c3		 ret	 0
?Init@?$CEncrypt@K@@AAEXXZ ENDP				; CEncrypt<unsigned long>::Init
_TEXT	ENDS
PUBLIC	?DecryptValueToPool@?$CEncrypt@K@@QAEXPAK@Z	; CEncrypt<unsigned long>::DecryptValueToPool
EXTRN	?DecryptByte@ccddaabb@@QBEXPBDPADH@Z:PROC	; ccddaabb::DecryptByte
; Function compile flags: /Ogsp
;	COMDAT ?DecryptValueToPool@?$CEncrypt@K@@QAEXPAK@Z
_TEXT	SEGMENT
_value$ = 8						; size = 4
?DecryptValueToPool@?$CEncrypt@K@@QAEXPAK@Z PROC	; CEncrypt<unsigned long>::DecryptValueToPool, COMDAT
; _this$ = ecx

; 1256 : 	{

  00000	55		 push	 ebp
  00001	8b ec		 mov	 ebp, esp
  00003	56		 push	 esi

; 1257 : 		m_RC5.DecryptByte( m_MemPool, m_TempMem, 4 );

  00004	8d 71 28	 lea	 esi, DWORD PTR [ecx+40]
  00007	6a 04		 push	 4
  00009	8d 41 1c	 lea	 eax, DWORD PTR [ecx+28]
  0000c	56		 push	 esi
  0000d	50		 push	 eax
  0000e	83 c1 0c	 add	 ecx, 12			; 0000000cH
  00011	e8 00 00 00 00	 call	 ?DecryptByte@ccddaabb@@QBEXPBDPADH@Z ; ccddaabb::DecryptByte

; 1258 : 		*value = *((DWORD*)m_TempMem);

  00016	8b 06		 mov	 eax, DWORD PTR [esi]
  00018	8b 4d 08	 mov	 ecx, DWORD PTR _value$[ebp]
  0001b	89 01		 mov	 DWORD PTR [ecx], eax
  0001d	5e		 pop	 esi

; 1259 : 	}

  0001e	5d		 pop	 ebp
  0001f	c2 04 00	 ret	 4
?DecryptValueToPool@?$CEncrypt@K@@QAEXPAK@Z ENDP	; CEncrypt<unsigned long>::DecryptValueToPool
_TEXT	ENDS
PUBLIC	??_C@_0BD@OLBABOEK@vector?$DMT?$DO?5too?5long?$AA@ ; `string'
PUBLIC	?_Xlen@?$vector@VioHashString@@V?$allocator@VioHashString@@@std@@@std@@IBEXXZ ; std::vector<ioHashString,std::allocator<ioHashString> >::_Xlen
EXTRN	__imp_?_Xlength_error@std@@YAXPBD@Z:PROC
;	COMDAT ??_C@_0BD@OLBABOEK@vector?$DMT?$DO?5too?5long?$AA@
; File c:\program files (x86)\microsoft visual studio 10.0\vc\include\vector
CONST	SEGMENT
??_C@_0BD@OLBABOEK@vector?$DMT?$DO?5too?5long?$AA@ DB 'vector<T> too long'
	DB	00H						; `string'
; Function compile flags: /Ogsp
CONST	ENDS
;	COMDAT ?_Xlen@?$vector@VioHashString@@V?$allocator@VioHashString@@@std@@@std@@IBEXXZ
_TEXT	SEGMENT
?_Xlen@?$vector@VioHashString@@V?$allocator@VioHashString@@@std@@@std@@IBEXXZ PROC ; std::vector<ioHashString,std::allocator<ioHashString> >::_Xlen, COMDAT
; _this$ = ecx

; 1427 : 		_Xlength_error("vector<T> too long");

  00000	68 00 00 00 00	 push	 OFFSET ??_C@_0BD@OLBABOEK@vector?$DMT?$DO?5too?5long?$AA@
  00005	ff 15 00 00 00
	00		 call	 DWORD PTR __imp_?_Xlength_error@std@@YAXPBD@Z
$LN4@Xlen:
$LN3@Xlen:
  0000b	cc		 int	 3
?_Xlen@?$vector@VioHashString@@V?$allocator@VioHashString@@@std@@@std@@IBEXXZ ENDP ; std::vector<ioHashString,std::allocator<ioHashString> >::_Xlen
_TEXT	ENDS
PUBLIC	?deallocate@?$allocator@VioHashString@@@std@@QAEXPAVioHashString@@I@Z ; std::allocator<ioHashString>::deallocate
; Function compile flags: /Ogsp
; File c:\program files (x86)\microsoft visual studio 10.0\vc\include\xmemory
;	COMDAT ?deallocate@?$allocator@VioHashString@@@std@@QAEXPAVioHashString@@I@Z
_TEXT	SEGMENT
__Ptr$ = 8						; size = 4
___formal$ = 12						; size = 4
?deallocate@?$allocator@VioHashString@@@std@@QAEXPAVioHashString@@I@Z PROC ; std::allocator<ioHashString>::deallocate, COMDAT
; _this$ = ecx

; 181  : 		{	// deallocate object at _Ptr, ignore size

  00000	55		 push	 ebp
  00001	8b ec		 mov	 ebp, esp

; 182  : 		::operator delete(_Ptr);

  00003	ff 75 08	 push	 DWORD PTR __Ptr$[ebp]
  00006	e8 00 00 00 00	 call	 ??3@YAXPAX@Z		; operator delete
  0000b	59		 pop	 ecx

; 183  : 		}

  0000c	5d		 pop	 ebp
  0000d	c2 08 00	 ret	 8
?deallocate@?$allocator@VioHashString@@@std@@QAEXPAVioHashString@@I@Z ENDP ; std::allocator<ioHashString>::deallocate
_TEXT	ENDS
PUBLIC	??0?$_Vector_const_iterator@V?$_Vector_val@VioHashString@@V?$allocator@VioHashString@@@std@@@std@@@std@@QAE@PAVioHashString@@PBU_Container_base0@1@@Z ; std::_Vector_const_iterator<std::_Vector_val<ioHashString,std::allocator<ioHashString> > >::_Vector_const_iterator<std::_Vector_val<ioHashString,std::allocator<ioHashString> > >
; Function compile flags: /Ogsp
; File c:\program files (x86)\microsoft visual studio 10.0\vc\include\vector
;	COMDAT ??0?$_Vector_const_iterator@V?$_Vector_val@VioHashString@@V?$allocator@VioHashString@@@std@@@std@@@std@@QAE@PAVioHashString@@PBU_Container_base0@1@@Z
_TEXT	SEGMENT
__Parg$ = 8						; size = 4
__Pvector$ = 12						; size = 4
??0?$_Vector_const_iterator@V?$_Vector_val@VioHashString@@V?$allocator@VioHashString@@@std@@@std@@@std@@QAE@PAVioHashString@@PBU_Container_base0@1@@Z PROC ; std::_Vector_const_iterator<std::_Vector_val<ioHashString,std::allocator<ioHashString> > >::_Vector_const_iterator<std::_Vector_val<ioHashString,std::allocator<ioHashString> > >, COMDAT
; _this$ = ecx

; 45   : 		{	// construct with pointer _Parg

  00000	55		 push	 ebp
  00001	8b ec		 mov	 ebp, esp
  00003	8b c1		 mov	 eax, ecx
  00005	8b 4d 08	 mov	 ecx, DWORD PTR __Parg$[ebp]
  00008	89 08		 mov	 DWORD PTR [eax], ecx

; 46   : 		this->_Adopt(_Pvector);
; 47   : 		}

  0000a	5d		 pop	 ebp
  0000b	c2 08 00	 ret	 8
??0?$_Vector_const_iterator@V?$_Vector_val@VioHashString@@V?$allocator@VioHashString@@@std@@@std@@@std@@QAE@PAVioHashString@@PBU_Container_base0@1@@Z ENDP ; std::_Vector_const_iterator<std::_Vector_val<ioHashString,std::allocator<ioHashString> > >::_Vector_const_iterator<std::_Vector_val<ioHashString,std::allocator<ioHashString> > >
_TEXT	ENDS
PUBLIC	??0?$_Vector_iterator@V?$_Vector_val@VioHashString@@V?$allocator@VioHashString@@@std@@@std@@@std@@QAE@PAVioHashString@@PBU_Container_base0@1@@Z ; std::_Vector_iterator<std::_Vector_val<ioHashString,std::allocator<ioHashString> > >::_Vector_iterator<std::_Vector_val<ioHashString,std::allocator<ioHashString> > >
; Function compile flags: /Ogsp
;	COMDAT ??0?$_Vector_iterator@V?$_Vector_val@VioHashString@@V?$allocator@VioHashString@@@std@@@std@@@std@@QAE@PAVioHashString@@PBU_Container_base0@1@@Z
_TEXT	SEGMENT
__Parg$ = 8						; size = 4
__Pvector$ = 12						; size = 4
??0?$_Vector_iterator@V?$_Vector_val@VioHashString@@V?$allocator@VioHashString@@@std@@@std@@@std@@QAE@PAVioHashString@@PBU_Container_base0@1@@Z PROC ; std::_Vector_iterator<std::_Vector_val<ioHashString,std::allocator<ioHashString> > >::_Vector_iterator<std::_Vector_val<ioHashString,std::allocator<ioHashString> > >, COMDAT
; _this$ = ecx

; 304  : 		{	// construct with pointer _Parg

  00000	55		 push	 ebp
  00001	8b ec		 mov	 ebp, esp
  00003	8b c1		 mov	 eax, ecx
  00005	8b 4d 08	 mov	 ecx, DWORD PTR __Parg$[ebp]
  00008	89 08		 mov	 DWORD PTR [eax], ecx

; 305  : 		}

  0000a	5d		 pop	 ebp
  0000b	c2 08 00	 ret	 8
??0?$_Vector_iterator@V?$_Vector_val@VioHashString@@V?$allocator@VioHashString@@@std@@@std@@@std@@QAE@PAVioHashString@@PBU_Container_base0@1@@Z ENDP ; std::_Vector_iterator<std::_Vector_val<ioHashString,std::allocator<ioHashString> > >::_Vector_iterator<std::_Vector_val<ioHashString,std::allocator<ioHashString> > >
_TEXT	ENDS
PUBLIC	?max_size@?$allocator@VioHashString@@@std@@QBEIXZ ; std::allocator<ioHashString>::max_size
; Function compile flags: /Ogsp
; File c:\program files (x86)\microsoft visual studio 10.0\vc\include\xmemory
;	COMDAT ?max_size@?$allocator@VioHashString@@@std@@QBEIXZ
_TEXT	SEGMENT
?max_size@?$allocator@VioHashString@@@std@@QBEIXZ PROC	; std::allocator<ioHashString>::max_size, COMDAT
; _this$ = ecx

; 218  : 		_SIZT _Count = (_SIZT)(-1) / sizeof (_Ty);
; 219  : 		return (0 < _Count ? _Count : 1);

  00000	b8 ff ff ff 0f	 mov	 eax, 268435455		; 0fffffffH

; 220  : 		}

  00005	c3		 ret	 0
?max_size@?$allocator@VioHashString@@@std@@QBEIXZ ENDP	; std::allocator<ioHashString>::max_size
_TEXT	ENDS
PUBLIC	?_Compat@?$_Vector_const_iterator@V?$_Vector_val@VioHashString@@V?$allocator@VioHashString@@@std@@@std@@@std@@QBEXABV12@@Z ; std::_Vector_const_iterator<std::_Vector_val<ioHashString,std::allocator<ioHashString> > >::_Compat
; Function compile flags: /Ogsp
; File c:\program files (x86)\microsoft visual studio 10.0\vc\include\vector
;	COMDAT ?_Compat@?$_Vector_const_iterator@V?$_Vector_val@VioHashString@@V?$allocator@VioHashString@@@std@@@std@@@std@@QBEXABV12@@Z
_TEXT	SEGMENT
___formal$ = 8						; size = 4
?_Compat@?$_Vector_const_iterator@V?$_Vector_val@VioHashString@@V?$allocator@VioHashString@@@std@@@std@@@std@@QBEXABV12@@Z PROC ; std::_Vector_const_iterator<std::_Vector_val<ioHashString,std::allocator<ioHashString> > >::_Compat, COMDAT
; _this$ = ecx

; 253  : 		}

  00000	c2 04 00	 ret	 4
?_Compat@?$_Vector_const_iterator@V?$_Vector_val@VioHashString@@V?$allocator@VioHashString@@@std@@@std@@@std@@QBEXABV12@@Z ENDP ; std::_Vector_const_iterator<std::_Vector_val<ioHashString,std::allocator<ioHashString> > >::_Compat
_TEXT	ENDS
PUBLIC	??$_Allocate@VioHashString@@@std@@YAPAVioHashString@@IPAV1@@Z ; std::_Allocate<ioHashString>
; Function compile flags: /Ogsp
; File c:\program files (x86)\microsoft visual studio 10.0\vc\include\xmemory
;	COMDAT ??$_Allocate@VioHashString@@@std@@YAPAVioHashString@@IPAV1@@Z
_TEXT	SEGMENT
$T530270 = -12						; size = 12
$T530274 = 8						; size = 4
__Count$ = 8						; size = 4
___formal$ = 12						; size = 4
??$_Allocate@VioHashString@@@std@@YAPAVioHashString@@IPAV1@@Z PROC ; std::_Allocate<ioHashString>, COMDAT

; 30   : 	{	// allocate storage for _Count elements of type _Ty

  00000	55		 push	 ebp
  00001	8b ec		 mov	 ebp, esp

; 31   : 	void *_Ptr = 0;
; 32   : 
; 33   : 	if (_Count <= 0)

  00003	8b 4d 08	 mov	 ecx, DWORD PTR __Count$[ebp]
  00006	83 ec 0c	 sub	 esp, 12			; 0000000cH
  00009	33 c0		 xor	 eax, eax
  0000b	85 c9		 test	 ecx, ecx

; 34   : 		_Count = 0;
; 35   : 	else if (((_SIZT)(-1) / sizeof (_Ty) < _Count)

  0000d	74 3c		 je	 SHORT $LN5@Allocate@2

; 36   : 		|| (_Ptr = ::operator new(_Count * sizeof (_Ty))) == 0)

  0000f	81 f9 ff ff ff
	0f		 cmp	 ecx, 268435455		; 0fffffffH
  00015	77 0e		 ja	 SHORT $LN1@Allocate@2
  00017	c1 e1 04	 shl	 ecx, 4
  0001a	51		 push	 ecx
  0001b	e8 00 00 00 00	 call	 ??2@YAPAXI@Z		; operator new
  00020	59		 pop	 ecx
  00021	85 c0		 test	 eax, eax

; 38   : 
; 39   : 	return ((_Ty _FARQ *)_Ptr);

  00023	75 26		 jne	 SHORT $LN5@Allocate@2
$LN1@Allocate@2:

; 37   : 		_THROW_NCEE(bad_alloc, 0);

  00025	83 65 08 00	 and	 DWORD PTR $T530274[ebp], 0
  00029	8d 45 08	 lea	 eax, DWORD PTR $T530274[ebp]
  0002c	50		 push	 eax
  0002d	8d 4d f4	 lea	 ecx, DWORD PTR $T530270[ebp]
  00030	ff 15 00 00 00
	00		 call	 DWORD PTR __imp_??0exception@std@@QAE@ABQBD@Z
  00036	68 00 00 00 00	 push	 OFFSET __TI2?AVbad_alloc@std@@
  0003b	8d 45 f4	 lea	 eax, DWORD PTR $T530270[ebp]
  0003e	50		 push	 eax
  0003f	c7 45 f4 00 00
	00 00		 mov	 DWORD PTR $T530270[ebp], OFFSET ??_7bad_alloc@std@@6B@
  00046	e8 00 00 00 00	 call	 __CxxThrowException@8
$LN10@Allocate@2:
$LN5@Allocate@2:

; 40   : 	}

  0004b	c9		 leave
  0004c	c3		 ret	 0
$LN9@Allocate@2:
??$_Allocate@VioHashString@@@std@@YAPAVioHashString@@IPAV1@@Z ENDP ; std::_Allocate<ioHashString>
_TEXT	ENDS
EXTRN	__imp_??0exception@std@@QAE@ABV01@@Z:PROC
; Function compile flags: /Ogsp
;	COMDAT ??0bad_alloc@std@@QAE@ABV01@@Z
_TEXT	SEGMENT
___that$ = 8						; size = 4
??0bad_alloc@std@@QAE@ABV01@@Z PROC			; std::bad_alloc::bad_alloc, COMDAT
; _this$ = ecx
  00000	55		 push	 ebp
  00001	8b ec		 mov	 ebp, esp
  00003	56		 push	 esi
  00004	ff 75 08	 push	 DWORD PTR ___that$[ebp]
  00007	8b f1		 mov	 esi, ecx
  00009	ff 15 00 00 00
	00		 call	 DWORD PTR __imp_??0exception@std@@QAE@ABV01@@Z
  0000f	c7 06 00 00 00
	00		 mov	 DWORD PTR [esi], OFFSET ??_7bad_alloc@std@@6B@
  00015	8b c6		 mov	 eax, esi
  00017	5e		 pop	 esi
  00018	5d		 pop	 ebp
  00019	c2 04 00	 ret	 4
??0bad_alloc@std@@QAE@ABV01@@Z ENDP			; std::bad_alloc::bad_alloc
_TEXT	ENDS
PUBLIC	??$forward@ABVioHashString@@@std@@YAABVioHashString@@ABV1@@Z ; std::forward<ioHashString const &>
; Function compile flags: /Ogsp
; File c:\program files (x86)\microsoft visual studio 10.0\vc\include\utility
;	COMDAT ??$forward@ABVioHashString@@@std@@YAABVioHashString@@ABV1@@Z
_TEXT	SEGMENT
__Arg$ = 8						; size = 4
??$forward@ABVioHashString@@@std@@YAABVioHashString@@ABV1@@Z PROC ; std::forward<ioHashString const &>, COMDAT

; 78   : 	{	// forward _Arg, given explicitly specified type parameter

  00000	55		 push	 ebp
  00001	8b ec		 mov	 ebp, esp

; 79   : 	return ((_Ty&&)_Arg);

  00003	8b 45 08	 mov	 eax, DWORD PTR __Arg$[ebp]

; 80   : 	}

  00006	5d		 pop	 ebp
  00007	c3		 ret	 0
??$forward@ABVioHashString@@@std@@YAABVioHashString@@ABV1@@Z ENDP ; std::forward<ioHashString const &>
_TEXT	ENDS
PUBLIC	??$forward@AAVioHashString@@@std@@YAAAVioHashString@@AAV1@@Z ; std::forward<ioHashString &>
; Function compile flags: /Ogsp
;	COMDAT ??$forward@AAVioHashString@@@std@@YAAAVioHashString@@AAV1@@Z
_TEXT	SEGMENT
__Arg$ = 8						; size = 4
??$forward@AAVioHashString@@@std@@YAAAVioHashString@@AAV1@@Z PROC ; std::forward<ioHashString &>, COMDAT

; 78   : 	{	// forward _Arg, given explicitly specified type parameter

  00000	55		 push	 ebp
  00001	8b ec		 mov	 ebp, esp

; 79   : 	return ((_Ty&&)_Arg);

  00003	8b 45 08	 mov	 eax, DWORD PTR __Arg$[ebp]

; 80   : 	}

  00006	5d		 pop	 ebp
  00007	c3		 ret	 0
??$forward@AAVioHashString@@@std@@YAAAVioHashString@@AAV1@@Z ENDP ; std::forward<ioHashString &>
_TEXT	ENDS
PUBLIC	??$_Ptr_cat@VioHashString@@V1@@std@@YA?AU_Nonscalar_ptr_iterator_tag@0@PAVioHashString@@0@Z ; std::_Ptr_cat<ioHashString,ioHashString>
; Function compile flags: /Ogsp
; File c:\program files (x86)\microsoft visual studio 10.0\vc\include\xutility
;	COMDAT ??$_Ptr_cat@VioHashString@@V1@@std@@YA?AU_Nonscalar_ptr_iterator_tag@0@PAVioHashString@@0@Z
_TEXT	SEGMENT
__Cat$ = -1						; size = 1
___formal$ = 8						; size = 4
___formal$ = 12						; size = 4
??$_Ptr_cat@VioHashString@@V1@@std@@YA?AU_Nonscalar_ptr_iterator_tag@0@PAVioHashString@@0@Z PROC ; std::_Ptr_cat<ioHashString,ioHashString>, COMDAT

; 516  : 	{	// return pointer category from pointers

  00000	55		 push	 ebp
  00001	8b ec		 mov	 ebp, esp
  00003	51		 push	 ecx

; 517  : 	typename _Ptr_cat_helper<_Elem1, _Elem2>::_Type _Cat;
; 518  : 	return (_Cat);

  00004	8a 45 ff	 mov	 al, BYTE PTR __Cat$[ebp]

; 519  : 	}

  00007	c9		 leave
  00008	c3		 ret	 0
??$_Ptr_cat@VioHashString@@V1@@std@@YA?AU_Nonscalar_ptr_iterator_tag@0@PAVioHashString@@0@Z ENDP ; std::_Ptr_cat<ioHashString,ioHashString>
_TEXT	ENDS
PUBLIC	??$_Move@AAD@std@@YA$$QADAAD@Z			; std::_Move<char &>
; Function compile flags: /Ogsp
; File c:\program files (x86)\microsoft visual studio 10.0\vc\include\utility
;	COMDAT ??$_Move@AAD@std@@YA$$QADAAD@Z
_TEXT	SEGMENT
__Arg$ = 8						; size = 4
??$_Move@AAD@std@@YA$$QADAAD@Z PROC			; std::_Move<char &>, COMDAT

; 94   : 	{	// forward _Arg as movable

  00000	55		 push	 ebp
  00001	8b ec		 mov	 ebp, esp

; 95   : 	return ((typename tr1::_Remove_reference<_Ty>::_Type&&)_Arg);

  00003	8b 45 08	 mov	 eax, DWORD PTR __Arg$[ebp]

; 96   : 	}

  00006	5d		 pop	 ebp
  00007	c3		 ret	 0
??$_Move@AAD@std@@YA$$QADAAD@Z ENDP			; std::_Move<char &>
_TEXT	ENDS
PUBLIC	??$move@AA_N@std@@YA$$QA_NAA_N@Z		; std::move<bool &>
; Function compile flags: /Ogsp
;	COMDAT ??$move@AA_N@std@@YA$$QA_NAA_N@Z
_TEXT	SEGMENT
__Arg$ = 8						; size = 4
??$move@AA_N@std@@YA$$QA_NAA_N@Z PROC			; std::move<bool &>, COMDAT

; 86   : 	{	// forward _Arg as movable

  00000	55		 push	 ebp
  00001	8b ec		 mov	 ebp, esp

; 87   : 	return ((typename tr1::_Remove_reference<_Ty>::_Type&&)_Arg);

  00003	8b 45 08	 mov	 eax, DWORD PTR __Arg$[ebp]

; 88   : 	}

  00006	5d		 pop	 ebp
  00007	c3		 ret	 0
??$move@AA_N@std@@YA$$QA_NAA_N@Z ENDP			; std::move<bool &>
_TEXT	ENDS
PUBLIC	??$move@AAVioHashString@@@std@@YA$$QAVioHashString@@AAV1@@Z ; std::move<ioHashString &>
; Function compile flags: /Ogsp
;	COMDAT ??$move@AAVioHashString@@@std@@YA$$QAVioHashString@@AAV1@@Z
_TEXT	SEGMENT
__Arg$ = 8						; size = 4
??$move@AAVioHashString@@@std@@YA$$QAVioHashString@@AAV1@@Z PROC ; std::move<ioHashString &>, COMDAT

; 86   : 	{	// forward _Arg as movable

  00000	55		 push	 ebp
  00001	8b ec		 mov	 ebp, esp

; 87   : 	return ((typename tr1::_Remove_reference<_Ty>::_Type&&)_Arg);

  00003	8b 45 08	 mov	 eax, DWORD PTR __Arg$[ebp]

; 88   : 	}

  00006	5d		 pop	 ebp
  00007	c3		 ret	 0
??$move@AAVioHashString@@@std@@YA$$QAVioHashString@@AAV1@@Z ENDP ; std::move<ioHashString &>
_TEXT	ENDS
PUBLIC	??$forward@_N@std@@YA$$QA_NAA_N@Z		; std::forward<bool>
; Function compile flags: /Ogsp
;	COMDAT ??$forward@_N@std@@YA$$QA_NAA_N@Z
_TEXT	SEGMENT
__Arg$ = 8						; size = 4
??$forward@_N@std@@YA$$QA_NAA_N@Z PROC			; std::forward<bool>, COMDAT

; 78   : 	{	// forward _Arg, given explicitly specified type parameter

  00000	55		 push	 ebp
  00001	8b ec		 mov	 ebp, esp

; 79   : 	return ((_Ty&&)_Arg);

  00003	8b 45 08	 mov	 eax, DWORD PTR __Arg$[ebp]

; 80   : 	}

  00006	5d		 pop	 ebp
  00007	c3		 ret	 0
??$forward@_N@std@@YA$$QA_NAA_N@Z ENDP			; std::forward<bool>
_TEXT	ENDS
PUBLIC	??_GioHashString@@QAEPAXI@Z			; ioHashString::`scalar deleting destructor'
; Function compile flags: /Ogsp
;	COMDAT ??_GioHashString@@QAEPAXI@Z
_TEXT	SEGMENT
___flags$ = 8						; size = 4
??_GioHashString@@QAEPAXI@Z PROC			; ioHashString::`scalar deleting destructor', COMDAT
; _this$ = ecx
  00000	55		 push	 ebp
  00001	8b ec		 mov	 ebp, esp
  00003	56		 push	 esi
  00004	8b f1		 mov	 esi, ecx
  00006	ff 15 00 00 00
	00		 call	 DWORD PTR __imp_??1ioHashString@@QAE@XZ
  0000c	f6 45 08 01	 test	 BYTE PTR ___flags$[ebp], 1
  00010	74 07		 je	 SHORT $LN1@scalar@4
  00012	56		 push	 esi
  00013	e8 00 00 00 00	 call	 ??3@YAXPAX@Z		; operator delete
  00018	59		 pop	 ecx
$LN1@scalar@4:
  00019	8b c6		 mov	 eax, esi
  0001b	5e		 pop	 esi
  0001c	5d		 pop	 ebp
  0001d	c2 04 00	 ret	 4
??_GioHashString@@QAEPAXI@Z ENDP			; ioHashString::`scalar deleting destructor'
_TEXT	ENDS
PUBLIC	??$forward@H@std@@YA$$QAHAAH@Z			; std::forward<int>
; Function compile flags: /Ogsp
;	COMDAT ??$forward@H@std@@YA$$QAHAAH@Z
_TEXT	SEGMENT
__Arg$ = 8						; size = 4
??$forward@H@std@@YA$$QAHAAH@Z PROC			; std::forward<int>, COMDAT

; 78   : 	{	// forward _Arg, given explicitly specified type parameter

  00000	55		 push	 ebp
  00001	8b ec		 mov	 ebp, esp

; 79   : 	return ((_Ty&&)_Arg);

  00003	8b 45 08	 mov	 eax, DWORD PTR __Arg$[ebp]

; 80   : 	}

  00006	5d		 pop	 ebp
  00007	c3		 ret	 0
??$forward@H@std@@YA$$QAHAAH@Z ENDP			; std::forward<int>
_TEXT	ENDS
PUBLIC	??$_Construct@VioHashString@@ABV1@@std@@YAXPAVioHashString@@ABV1@@Z ; std::_Construct<ioHashString,ioHashString const &>
EXTRN	__imp_??0ioHashString@@QAE@ABV0@@Z:PROC
EXTRN	___CxxFrameHandler3:PROC
EXTRN	@__security_check_cookie@4:PROC
EXTRN	__EH_epilog3:PROC
EXTRN	__EH_prolog3:PROC
;	COMDAT xdata$x
xdata$x	SEGMENT
__unwindtable$??$_Construct@VioHashString@@ABV1@@std@@YAXPAVioHashString@@ABV1@@Z DD 0ffffffffH
	DD	FLAT:__unwindfunclet$??$_Construct@VioHashString@@ABV1@@std@@YAXPAVioHashString@@ABV1@@Z$0
__ehfuncinfo$??$_Construct@VioHashString@@ABV1@@std@@YAXPAVioHashString@@ABV1@@Z DD 019930522H
	DD	01H
	DD	FLAT:__unwindtable$??$_Construct@VioHashString@@ABV1@@std@@YAXPAVioHashString@@ABV1@@Z
	DD	2 DUP(00H)
	DD	2 DUP(00H)
	DD	00H
	DD	01H
; Function compile flags: /Ogsp
; File c:\program files (x86)\microsoft visual studio 10.0\vc\include\xmemory
xdata$x	ENDS
;	COMDAT ??$_Construct@VioHashString@@ABV1@@std@@YAXPAVioHashString@@ABV1@@Z
_TEXT	SEGMENT
$T530301 = -16						; size = 4
__$EHRec$ = -12						; size = 12
__Vptr$ = 8						; size = 4
__Ptr$ = 8						; size = 4
__Val$ = 12						; size = 4
??$_Construct@VioHashString@@ABV1@@std@@YAXPAVioHashString@@ABV1@@Z PROC ; std::_Construct<ioHashString,ioHashString const &>, COMDAT

; 46   : 	{	// construct object at _Ptr with value _Val

  00000	6a 04		 push	 4
  00002	b8 00 00 00 00	 mov	 eax, __ehhandler$??$_Construct@VioHashString@@ABV1@@std@@YAXPAVioHashString@@ABV1@@Z
  00007	e8 00 00 00 00	 call	 __EH_prolog3

; 47   : 	void _FARQ *_Vptr = _Ptr;

  0000c	8b 4d 08	 mov	 ecx, DWORD PTR __Ptr$[ebp]
  0000f	89 4d 08	 mov	 DWORD PTR __Vptr$[ebp], ecx

; 48   : 	::new (_Vptr) _Ty1(_STD forward<_Ty2>(_Val));

  00012	89 4d f0	 mov	 DWORD PTR $T530301[ebp], ecx
  00015	83 65 fc 00	 and	 DWORD PTR __$EHRec$[ebp+8], 0
  00019	85 c9		 test	 ecx, ecx
  0001b	74 09		 je	 SHORT $LN3@Construct
  0001d	ff 75 0c	 push	 DWORD PTR __Val$[ebp]
  00020	ff 15 00 00 00
	00		 call	 DWORD PTR __imp_??0ioHashString@@QAE@ABV0@@Z
$LN3@Construct:

; 49   : 	}

  00026	e8 00 00 00 00	 call	 __EH_epilog3
  0002b	c3		 ret	 0
_TEXT	ENDS
;	COMDAT text$x
text$x	SEGMENT
__unwindfunclet$??$_Construct@VioHashString@@ABV1@@std@@YAXPAVioHashString@@ABV1@@Z$0:
  00000	ff 75 08	 push	 DWORD PTR __Vptr$[ebp]
  00003	ff 75 f0	 push	 DWORD PTR $T530301[ebp]
  00006	e8 00 00 00 00	 call	 ??3@YAXPAX0@Z		; operator delete
  0000b	59		 pop	 ecx
  0000c	59		 pop	 ecx
  0000d	c3		 ret	 0
__ehhandler$??$_Construct@VioHashString@@ABV1@@std@@YAXPAVioHashString@@ABV1@@Z:
  0000e	8b 54 24 08	 mov	 edx, DWORD PTR [esp+8]
  00012	8d 42 0c	 lea	 eax, DWORD PTR [edx+12]
  00015	8b 4a ec	 mov	 ecx, DWORD PTR [edx-20]
  00018	33 c8		 xor	 ecx, eax
  0001a	e8 00 00 00 00	 call	 @__security_check_cookie@4
  0001f	b8 00 00 00 00	 mov	 eax, OFFSET __ehfuncinfo$??$_Construct@VioHashString@@ABV1@@std@@YAXPAVioHashString@@ABV1@@Z
  00024	e9 00 00 00 00	 jmp	 ___CxxFrameHandler3
text$x	ENDS
??$_Construct@VioHashString@@ABV1@@std@@YAXPAVioHashString@@ABV1@@Z ENDP ; std::_Construct<ioHashString,ioHashString const &>
PUBLIC	??1?$pair@$$CBKVioHashString@@@std@@QAE@XZ	; std::pair<unsigned long const ,ioHashString>::~pair<unsigned long const ,ioHashString>
; Function compile flags: /Ogsp
;	COMDAT ??1?$pair@$$CBKVioHashString@@@std@@QAE@XZ
_TEXT	SEGMENT
??1?$pair@$$CBKVioHashString@@@std@@QAE@XZ PROC		; std::pair<unsigned long const ,ioHashString>::~pair<unsigned long const ,ioHashString>, COMDAT
; _this$ = ecx
  00000	83 c1 04	 add	 ecx, 4
  00003	ff 25 00 00 00
	00		 jmp	 DWORD PTR __imp_??1ioHashString@@QAE@XZ
??1?$pair@$$CBKVioHashString@@@std@@QAE@XZ ENDP		; std::pair<unsigned long const ,ioHashString>::~pair<unsigned long const ,ioHashString>
_TEXT	ENDS
PUBLIC	?GetAwardMotion@ioWeaponItem@@QBEABVioHashString@@H@Z ; ioWeaponItem::GetAwardMotion
; Function compile flags: /Ogsp
; File d:\lost saga for developer\youtube\tutorial\source\src\lsclient\ioweaponitem.cpp
;	COMDAT ?GetAwardMotion@ioWeaponItem@@QBEABVioHashString@@H@Z
_TEXT	SEGMENT
_iAniCode$ = 8						; size = 4
?GetAwardMotion@ioWeaponItem@@QBEABVioHashString@@H@Z PROC ; ioWeaponItem::GetAwardMotion, COMDAT
; _this$ = ecx

; 179  : {

  00000	55		 push	 ebp
  00001	8b ec		 mov	 ebp, esp

; 181  : 	if( COMPARE( iAniCode, 0, iAwardAniSize ) )

  00003	8b 45 08	 mov	 eax, DWORD PTR _iAniCode$[ebp]
  00006	85 c0		 test	 eax, eax
  00008	78 1e		 js	 SHORT $LN1@GetAwardMo

; 180  : 	int iAwardAniSize = m_AwardMotionList.size();

  0000a	8b 91 90 18 00
	00		 mov	 edx, DWORD PTR [ecx+6288]
  00010	2b 91 8c 18 00
	00		 sub	 edx, DWORD PTR [ecx+6284]
  00016	c1 fa 04	 sar	 edx, 4

; 181  : 	if( COMPARE( iAniCode, 0, iAwardAniSize ) )

  00019	3b c2		 cmp	 eax, edx
  0001b	7d 0b		 jge	 SHORT $LN1@GetAwardMo

; 182  : 		return m_AwardMotionList[iAniCode];

  0001d	c1 e0 04	 shl	 eax, 4
  00020	03 81 8c 18 00
	00		 add	 eax, DWORD PTR [ecx+6284]
  00026	eb 06		 jmp	 SHORT $LN2@GetAwardMo
$LN1@GetAwardMo:

; 183  : 	return m_UIMotion;        //     

  00028	8d 81 38 18 00
	00		 lea	 eax, DWORD PTR [ecx+6200]
$LN2@GetAwardMo:

; 184  : }

  0002e	5d		 pop	 ebp
  0002f	c2 04 00	 ret	 4
?GetAwardMotion@ioWeaponItem@@QBEABVioHashString@@H@Z ENDP ; ioWeaponItem::GetAwardMotion
_TEXT	ENDS
PUBLIC	??9?$_Tree_const_iterator@V?$_Tree_val@V?$_Tmap_traits@KVioHashString@@U?$less@K@std@@V?$allocator@U?$pair@$$CBKVioHashString@@@std@@@3@$0A@@std@@@std@@@std@@QBE_NABV01@@Z ; std::_Tree_const_iterator<std::_Tree_val<std::_Tmap_traits<unsigned long,ioHashString,std::less<unsigned long>,std::allocator<std::pair<unsigned long const ,ioHashString> >,0> > >::operator!=
; Function compile flags: /Ogsp
; File c:\program files (x86)\microsoft visual studio 10.0\vc\include\xtree
;	COMDAT ??9?$_Tree_const_iterator@V?$_Tree_val@V?$_Tmap_traits@KVioHashString@@U?$less@K@std@@V?$allocator@U?$pair@$$CBKVioHashString@@@std@@@3@$0A@@std@@@std@@@std@@QBE_NABV01@@Z
_TEXT	SEGMENT
__Right$ = 8						; size = 4
??9?$_Tree_const_iterator@V?$_Tree_val@V?$_Tmap_traits@KVioHashString@@U?$less@K@std@@V?$allocator@U?$pair@$$CBKVioHashString@@@std@@@3@$0A@@std@@@std@@@std@@QBE_NABV01@@Z PROC ; std::_Tree_const_iterator<std::_Tree_val<std::_Tmap_traits<unsigned long,ioHashString,std::less<unsigned long>,std::allocator<std::pair<unsigned long const ,ioHashString> >,0> > >::operator!=, COMDAT
; _this$ = ecx

; 334  : 		{	// test for iterator inequality

  00000	55		 push	 ebp
  00001	8b ec		 mov	 ebp, esp

; 335  : 		return (!(*this == _Right));

  00003	8b 01		 mov	 eax, DWORD PTR [ecx]
  00005	8b 55 08	 mov	 edx, DWORD PTR __Right$[ebp]
  00008	33 c9		 xor	 ecx, ecx
  0000a	3b 02		 cmp	 eax, DWORD PTR [edx]
  0000c	0f 95 c0	 setne	 al

; 336  : 		}

  0000f	5d		 pop	 ebp
  00010	c2 04 00	 ret	 4
??9?$_Tree_const_iterator@V?$_Tree_val@V?$_Tmap_traits@KVioHashString@@U?$less@K@std@@V?$allocator@U?$pair@$$CBKVioHashString@@@std@@@3@$0A@@std@@@std@@@std@@QBE_NABV01@@Z ENDP ; std::_Tree_const_iterator<std::_Tree_val<std::_Tmap_traits<unsigned long,ioHashString,std::less<unsigned long>,std::allocator<std::pair<unsigned long const ,ioHashString> >,0> > >::operator!=
_TEXT	ENDS
PUBLIC	?_Lmost@?$_Tree@V?$_Tmap_traits@KVioHashString@@U?$less@K@std@@V?$allocator@U?$pair@$$CBKVioHashString@@@std@@@3@$0A@@std@@@std@@IBEAAPAU_Node@?$_Tree_nod@V?$_Tmap_traits@KVioHashString@@U?$less@K@std@@V?$allocator@U?$pair@$$CBKVioHashString@@@std@@@3@$0A@@std@@@2@XZ ; std::_Tree<std::_Tmap_traits<unsigned long,ioHashString,std::less<unsigned long>,std::allocator<std::pair<unsigned long const ,ioHashString> >,0> >::_Lmost
; Function compile flags: /Ogsp
;	COMDAT ?_Lmost@?$_Tree@V?$_Tmap_traits@KVioHashString@@U?$less@K@std@@V?$allocator@U?$pair@$$CBKVioHashString@@@std@@@3@$0A@@std@@@std@@IBEAAPAU_Node@?$_Tree_nod@V?$_Tmap_traits@KVioHashString@@U?$less@K@std@@V?$allocator@U?$pair@$$CBKVioHashString@@@std@@@3@$0A@@std@@@2@XZ
_TEXT	SEGMENT
?_Lmost@?$_Tree@V?$_Tmap_traits@KVioHashString@@U?$less@K@std@@V?$allocator@U?$pair@$$CBKVioHashString@@@std@@@3@$0A@@std@@@std@@IBEAAPAU_Node@?$_Tree_nod@V?$_Tmap_traits@KVioHashString@@U?$less@K@std@@V?$allocator@U?$pair@$$CBKVioHashString@@@std@@@3@$0A@@std@@@2@XZ PROC ; std::_Tree<std::_Tmap_traits<unsigned long,ioHashString,std::less<unsigned long>,std::allocator<std::pair<unsigned long const ,ioHashString> >,0> >::_Lmost, COMDAT
; _this$ = ecx

; 1759 : 		return (this->_Left(this->_Myhead));

  00000	8b 41 04	 mov	 eax, DWORD PTR [ecx+4]

; 1760 : 		}

  00003	c3		 ret	 0
?_Lmost@?$_Tree@V?$_Tmap_traits@KVioHashString@@U?$less@K@std@@V?$allocator@U?$pair@$$CBKVioHashString@@@std@@@3@$0A@@std@@@std@@IBEAAPAU_Node@?$_Tree_nod@V?$_Tmap_traits@KVioHashString@@U?$less@K@std@@V?$allocator@U?$pair@$$CBKVioHashString@@@std@@@3@$0A@@std@@@2@XZ ENDP ; std::_Tree<std::_Tmap_traits<unsigned long,ioHashString,std::less<unsigned long>,std::allocator<std::pair<unsigned long const ,ioHashString> >,0> >::_Lmost
_TEXT	ENDS
PUBLIC	?_Rmost@?$_Tree@V?$_Tmap_traits@KVioHashString@@U?$less@K@std@@V?$allocator@U?$pair@$$CBKVioHashString@@@std@@@3@$0A@@std@@@std@@IBEAAPAU_Node@?$_Tree_nod@V?$_Tmap_traits@KVioHashString@@U?$less@K@std@@V?$allocator@U?$pair@$$CBKVioHashString@@@std@@@3@$0A@@std@@@2@XZ ; std::_Tree<std::_Tmap_traits<unsigned long,ioHashString,std::less<unsigned long>,std::allocator<std::pair<unsigned long const ,ioHashString> >,0> >::_Rmost
; Function compile flags: /Ogsp
;	COMDAT ?_Rmost@?$_Tree@V?$_Tmap_traits@KVioHashString@@U?$less@K@std@@V?$allocator@U?$pair@$$CBKVioHashString@@@std@@@3@$0A@@std@@@std@@IBEAAPAU_Node@?$_Tree_nod@V?$_Tmap_traits@KVioHashString@@U?$less@K@std@@V?$allocator@U?$pair@$$CBKVioHashString@@@std@@@3@$0A@@std@@@2@XZ
_TEXT	SEGMENT
?_Rmost@?$_Tree@V?$_Tmap_traits@KVioHashString@@U?$less@K@std@@V?$allocator@U?$pair@$$CBKVioHashString@@@std@@@3@$0A@@std@@@std@@IBEAAPAU_Node@?$_Tree_nod@V?$_Tmap_traits@KVioHashString@@U?$less@K@std@@V?$allocator@U?$pair@$$CBKVioHashString@@@std@@@3@$0A@@std@@@2@XZ PROC ; std::_Tree<std::_Tmap_traits<unsigned long,ioHashString,std::less<unsigned long>,std::allocator<std::pair<unsigned long const ,ioHashString> >,0> >::_Rmost, COMDAT
; _this$ = ecx

; 1784 : 		return (this->_Right(this->_Myhead));

  00000	8b 41 04	 mov	 eax, DWORD PTR [ecx+4]
  00003	83 c0 08	 add	 eax, 8

; 1785 : 		}

  00006	c3		 ret	 0
?_Rmost@?$_Tree@V?$_Tmap_traits@KVioHashString@@U?$less@K@std@@V?$allocator@U?$pair@$$CBKVioHashString@@@std@@@3@$0A@@std@@@std@@IBEAAPAU_Node@?$_Tree_nod@V?$_Tmap_traits@KVioHashString@@U?$less@K@std@@V?$allocator@U?$pair@$$CBKVioHashString@@@std@@@3@$0A@@std@@@2@XZ ENDP ; std::_Tree<std::_Tmap_traits<unsigned long,ioHashString,std::less<unsigned long>,std::allocator<std::pair<unsigned long const ,ioHashString> >,0> >::_Rmost
_TEXT	ENDS
PUBLIC	?_Root@?$_Tree@V?$_Tmap_traits@KVioHashString@@U?$less@K@std@@V?$allocator@U?$pair@$$CBKVioHashString@@@std@@@3@$0A@@std@@@std@@IBEAAPAU_Node@?$_Tree_nod@V?$_Tmap_traits@KVioHashString@@U?$less@K@std@@V?$allocator@U?$pair@$$CBKVioHashString@@@std@@@3@$0A@@std@@@2@XZ ; std::_Tree<std::_Tmap_traits<unsigned long,ioHashString,std::less<unsigned long>,std::allocator<std::pair<unsigned long const ,ioHashString> >,0> >::_Root
; Function compile flags: /Ogsp
;	COMDAT ?_Root@?$_Tree@V?$_Tmap_traits@KVioHashString@@U?$less@K@std@@V?$allocator@U?$pair@$$CBKVioHashString@@@std@@@3@$0A@@std@@@std@@IBEAAPAU_Node@?$_Tree_nod@V?$_Tmap_traits@KVioHashString@@U?$less@K@std@@V?$allocator@U?$pair@$$CBKVioHashString@@@std@@@3@$0A@@std@@@2@XZ
_TEXT	SEGMENT
?_Root@?$_Tree@V?$_Tmap_traits@KVioHashString@@U?$less@K@std@@V?$allocator@U?$pair@$$CBKVioHashString@@@std@@@3@$0A@@std@@@std@@IBEAAPAU_Node@?$_Tree_nod@V?$_Tmap_traits@KVioHashString@@U?$less@K@std@@V?$allocator@U?$pair@$$CBKVioHashString@@@std@@@3@$0A@@std@@@2@XZ PROC ; std::_Tree<std::_Tmap_traits<unsigned long,ioHashString,std::less<unsigned long>,std::allocator<std::pair<unsigned long const ,ioHashString> >,0> >::_Root, COMDAT
; _this$ = ecx

; 1789 : 		return (this->_Parent(this->_Myhead));

  00000	8b 41 04	 mov	 eax, DWORD PTR [ecx+4]
  00003	83 c0 04	 add	 eax, 4

; 1790 : 		}

  00006	c3		 ret	 0
?_Root@?$_Tree@V?$_Tmap_traits@KVioHashString@@U?$less@K@std@@V?$allocator@U?$pair@$$CBKVioHashString@@@std@@@3@$0A@@std@@@std@@IBEAAPAU_Node@?$_Tree_nod@V?$_Tmap_traits@KVioHashString@@U?$less@K@std@@V?$allocator@U?$pair@$$CBKVioHashString@@@std@@@3@$0A@@std@@@2@XZ ENDP ; std::_Tree<std::_Tmap_traits<unsigned long,ioHashString,std::less<unsigned long>,std::allocator<std::pair<unsigned long const ,ioHashString> >,0> >::_Root
_TEXT	ENDS
PUBLIC	??1?$_Tree_val@V?$_Tmap_traits@KVioHashString@@U?$less@K@std@@V?$allocator@U?$pair@$$CBKVioHashString@@@std@@@3@$0A@@std@@@std@@QAE@XZ ; std::_Tree_val<std::_Tmap_traits<unsigned long,ioHashString,std::less<unsigned long>,std::allocator<std::pair<unsigned long const ,ioHashString> >,0> >::~_Tree_val<std::_Tmap_traits<unsigned long,ioHashString,std::less<unsigned long>,std::allocator<std::pair<unsigned long const ,ioHashString> >,0> >
; Function compile flags: /Ogsp
;	COMDAT ??1?$_Tree_val@V?$_Tmap_traits@KVioHashString@@U?$less@K@std@@V?$allocator@U?$pair@$$CBKVioHashString@@@std@@@3@$0A@@std@@@std@@QAE@XZ
_TEXT	SEGMENT
??1?$_Tree_val@V?$_Tmap_traits@KVioHashString@@U?$less@K@std@@V?$allocator@U?$pair@$$CBKVioHashString@@@std@@@3@$0A@@std@@@std@@QAE@XZ PROC ; std::_Tree_val<std::_Tmap_traits<unsigned long,ioHashString,std::less<unsigned long>,std::allocator<std::pair<unsigned long const ,ioHashString> >,0> >::~_Tree_val<std::_Tmap_traits<unsigned long,ioHashString,std::less<unsigned long>,std::allocator<std::pair<unsigned long const ,ioHashString> >,0> >, COMDAT
; _this$ = ecx

; 555  : 		this->_Alnod.deallocate(this->_Myhead, 1);

  00000	ff 71 04	 push	 DWORD PTR [ecx+4]
  00003	e8 00 00 00 00	 call	 ??3@YAXPAX@Z		; operator delete
  00008	59		 pop	 ecx

; 556  : 		}

  00009	c3		 ret	 0
??1?$_Tree_val@V?$_Tmap_traits@KVioHashString@@U?$less@K@std@@V?$allocator@U?$pair@$$CBKVioHashString@@@std@@@3@$0A@@std@@@std@@QAE@XZ ENDP ; std::_Tree_val<std::_Tmap_traits<unsigned long,ioHashString,std::less<unsigned long>,std::allocator<std::pair<unsigned long const ,ioHashString> >,0> >::~_Tree_val<std::_Tmap_traits<unsigned long,ioHashString,std::less<unsigned long>,std::allocator<std::pair<unsigned long const ,ioHashString> >,0> >
_TEXT	ENDS
PUBLIC	?_Key@?$_Tree_val@V?$_Tmap_traits@KVioHashString@@U?$less@K@std@@V?$allocator@U?$pair@$$CBKVioHashString@@@std@@@3@$0A@@std@@@std@@SAAAKPAU_Node@?$_Tree_nod@V?$_Tmap_traits@KVioHashString@@U?$less@K@std@@V?$allocator@U?$pair@$$CBKVioHashString@@@std@@@3@$0A@@std@@@2@@Z ; std::_Tree_val<std::_Tmap_traits<unsigned long,ioHashString,std::less<unsigned long>,std::allocator<std::pair<unsigned long const ,ioHashString> >,0> >::_Key
; Function compile flags: /Ogsp
;	COMDAT ?_Key@?$_Tree_val@V?$_Tmap_traits@KVioHashString@@U?$less@K@std@@V?$allocator@U?$pair@$$CBKVioHashString@@@std@@@3@$0A@@std@@@std@@SAAAKPAU_Node@?$_Tree_nod@V?$_Tmap_traits@KVioHashString@@U?$less@K@std@@V?$allocator@U?$pair@$$CBKVioHashString@@@std@@@3@$0A@@std@@@2@@Z
_TEXT	SEGMENT
__Pnode$ = 8						; size = 4
?_Key@?$_Tree_val@V?$_Tmap_traits@KVioHashString@@U?$less@K@std@@V?$allocator@U?$pair@$$CBKVioHashString@@@std@@@3@$0A@@std@@@std@@SAAAKPAU_Node@?$_Tree_nod@V?$_Tmap_traits@KVioHashString@@U?$less@K@std@@V?$allocator@U?$pair@$$CBKVioHashString@@@std@@@3@$0A@@std@@@2@@Z PROC ; std::_Tree_val<std::_Tmap_traits<unsigned long,ioHashString,std::less<unsigned long>,std::allocator<std::pair<unsigned long const ,ioHashString> >,0> >::_Key, COMDAT

; 616  : 		{	// return reference to key in node

  00000	55		 push	 ebp
  00001	8b ec		 mov	 ebp, esp

; 617  : 		return ((key_type&)_Traits::_Kfn(_Myval(_Pnode)));

  00003	8b 45 08	 mov	 eax, DWORD PTR __Pnode$[ebp]
  00006	83 c0 0c	 add	 eax, 12			; 0000000cH

; 618  : 		}

  00009	5d		 pop	 ebp
  0000a	c3		 ret	 0
?_Key@?$_Tree_val@V?$_Tmap_traits@KVioHashString@@U?$less@K@std@@V?$allocator@U?$pair@$$CBKVioHashString@@@std@@@3@$0A@@std@@@std@@SAAAKPAU_Node@?$_Tree_nod@V?$_Tmap_traits@KVioHashString@@U?$less@K@std@@V?$allocator@U?$pair@$$CBKVioHashString@@@std@@@3@$0A@@std@@@2@@Z ENDP ; std::_Tree_val<std::_Tmap_traits<unsigned long,ioHashString,std::less<unsigned long>,std::allocator<std::pair<unsigned long const ,ioHashString> >,0> >::_Key
_TEXT	ENDS
PUBLIC	??0?$_Tree_const_iterator@V?$_Tree_val@V?$_Tmap_traits@KVioHashString@@U?$less@K@std@@V?$allocator@U?$pair@$$CBKVioHashString@@@std@@@3@$0A@@std@@@std@@@std@@QAE@PAU_Node@?$_Tree_nod@V?$_Tmap_traits@KVioHashString@@U?$less@K@std@@V?$allocator@U?$pair@$$CBKVioHashString@@@std@@@3@$0A@@std@@@1@PBV?$_Tree_val@V?$_Tmap_traits@KVioHashString@@U?$less@K@std@@V?$allocator@U?$pair@$$CBKVioHashString@@@std@@@3@$0A@@std@@@1@@Z ; std::_Tree_const_iterator<std::_Tree_val<std::_Tmap_traits<unsigned long,ioHashString,std::less<unsigned long>,std::allocator<std::pair<unsigned long const ,ioHashString> >,0> > >::_Tree_const_iterator<std::_Tree_val<std::_Tmap_traits<unsigned long,ioHashString,std::less<unsigned long>,std::allocator<std::pair<unsigned long const ,ioHashString> >,0> > >
; Function compile flags: /Ogsp
;	COMDAT ??0?$_Tree_const_iterator@V?$_Tree_val@V?$_Tmap_traits@KVioHashString@@U?$less@K@std@@V?$allocator@U?$pair@$$CBKVioHashString@@@std@@@3@$0A@@std@@@std@@@std@@QAE@PAU_Node@?$_Tree_nod@V?$_Tmap_traits@KVioHashString@@U?$less@K@std@@V?$allocator@U?$pair@$$CBKVioHashString@@@std@@@3@$0A@@std@@@1@PBV?$_Tree_val@V?$_Tmap_traits@KVioHashString@@U?$less@K@std@@V?$allocator@U?$pair@$$CBKVioHashString@@@std@@@3@$0A@@std@@@1@@Z
_TEXT	SEGMENT
__Pnode$ = 8						; size = 4
__Plist$ = 12						; size = 4
??0?$_Tree_const_iterator@V?$_Tree_val@V?$_Tmap_traits@KVioHashString@@U?$less@K@std@@V?$allocator@U?$pair@$$CBKVioHashString@@@std@@@3@$0A@@std@@@std@@@std@@QAE@PAU_Node@?$_Tree_nod@V?$_Tmap_traits@KVioHashString@@U?$less@K@std@@V?$allocator@U?$pair@$$CBKVioHashString@@@std@@@3@$0A@@std@@@1@PBV?$_Tree_val@V?$_Tmap_traits@KVioHashString@@U?$less@K@std@@V?$allocator@U?$pair@$$CBKVioHashString@@@std@@@3@$0A@@std@@@1@@Z PROC ; std::_Tree_const_iterator<std::_Tree_val<std::_Tmap_traits<unsigned long,ioHashString,std::less<unsigned long>,std::allocator<std::pair<unsigned long const ,ioHashString> >,0> > >::_Tree_const_iterator<std::_Tree_val<std::_Tmap_traits<unsigned long,ioHashString,std::less<unsigned long>,std::allocator<std::pair<unsigned long const ,ioHashString> >,0> > >, COMDAT
; _this$ = ecx

; 213  : 		{	// construct with node pointer _Pnode

  00000	55		 push	 ebp
  00001	8b ec		 mov	 ebp, esp
  00003	8b c1		 mov	 eax, ecx
  00005	8b 4d 08	 mov	 ecx, DWORD PTR __Pnode$[ebp]
  00008	89 08		 mov	 DWORD PTR [eax], ecx

; 214  : 		}

  0000a	5d		 pop	 ebp
  0000b	c2 08 00	 ret	 8
??0?$_Tree_const_iterator@V?$_Tree_val@V?$_Tmap_traits@KVioHashString@@U?$less@K@std@@V?$allocator@U?$pair@$$CBKVioHashString@@@std@@@3@$0A@@std@@@std@@@std@@QAE@PAU_Node@?$_Tree_nod@V?$_Tmap_traits@KVioHashString@@U?$less@K@std@@V?$allocator@U?$pair@$$CBKVioHashString@@@std@@@3@$0A@@std@@@1@PBV?$_Tree_val@V?$_Tmap_traits@KVioHashString@@U?$less@K@std@@V?$allocator@U?$pair@$$CBKVioHashString@@@std@@@3@$0A@@std@@@1@@Z ENDP ; std::_Tree_const_iterator<std::_Tree_val<std::_Tmap_traits<unsigned long,ioHashString,std::less<unsigned long>,std::allocator<std::pair<unsigned long const ,ioHashString> >,0> > >::_Tree_const_iterator<std::_Tree_val<std::_Tmap_traits<unsigned long,ioHashString,std::less<unsigned long>,std::allocator<std::pair<unsigned long const ,ioHashString> >,0> > >
_TEXT	ENDS
PUBLIC	??D?$_Tree_unchecked_const_iterator@V?$_Tree_val@V?$_Tmap_traits@KVioHashString@@U?$less@K@std@@V?$allocator@U?$pair@$$CBKVioHashString@@@std@@@3@$0A@@std@@@std@@U_Iterator_base0@2@@std@@QBEABU?$pair@$$CBKVioHashString@@@1@XZ ; std::_Tree_unchecked_const_iterator<std::_Tree_val<std::_Tmap_traits<unsigned long,ioHashString,std::less<unsigned long>,std::allocator<std::pair<unsigned long const ,ioHashString> >,0> >,std::_Iterator_base0>::operator*
; Function compile flags: /Ogsp
;	COMDAT ??D?$_Tree_unchecked_const_iterator@V?$_Tree_val@V?$_Tmap_traits@KVioHashString@@U?$less@K@std@@V?$allocator@U?$pair@$$CBKVioHashString@@@std@@@3@$0A@@std@@@std@@U_Iterator_base0@2@@std@@QBEABU?$pair@$$CBKVioHashString@@@1@XZ
_TEXT	SEGMENT
??D?$_Tree_unchecked_const_iterator@V?$_Tree_val@V?$_Tmap_traits@KVioHashString@@U?$less@K@std@@V?$allocator@U?$pair@$$CBKVioHashString@@@std@@@3@$0A@@std@@@std@@U_Iterator_base0@2@@std@@QBEABU?$pair@$$CBKVioHashString@@@1@XZ PROC ; std::_Tree_unchecked_const_iterator<std::_Tree_val<std::_Tmap_traits<unsigned long,ioHashString,std::less<unsigned long>,std::allocator<std::pair<unsigned long const ,ioHashString> >,0> >,std::_Iterator_base0>::operator*, COMDAT
; _this$ = ecx

; 49   : 		return (_Mytree::_Myval(_Ptr));

  00000	8b 01		 mov	 eax, DWORD PTR [ecx]
  00002	83 c0 0c	 add	 eax, 12			; 0000000cH

; 50   : 		}

  00005	c3		 ret	 0
??D?$_Tree_unchecked_const_iterator@V?$_Tree_val@V?$_Tmap_traits@KVioHashString@@U?$less@K@std@@V?$allocator@U?$pair@$$CBKVioHashString@@@std@@@3@$0A@@std@@@std@@U_Iterator_base0@2@@std@@QBEABU?$pair@$$CBKVioHashString@@@1@XZ ENDP ; std::_Tree_unchecked_const_iterator<std::_Tree_val<std::_Tmap_traits<unsigned long,ioHashString,std::less<unsigned long>,std::allocator<std::pair<unsigned long const ,ioHashString> >,0> >,std::_Iterator_base0>::operator*
_TEXT	ENDS
PUBLIC	?_Lbound@?$_Tree@V?$_Tmap_traits@KVioHashString@@U?$less@K@std@@V?$allocator@U?$pair@$$CBKVioHashString@@@std@@@3@$0A@@std@@@std@@IBEPAU_Node@?$_Tree_nod@V?$_Tmap_traits@KVioHashString@@U?$less@K@std@@V?$allocator@U?$pair@$$CBKVioHashString@@@std@@@3@$0A@@std@@@2@ABK@Z ; std::_Tree<std::_Tmap_traits<unsigned long,ioHashString,std::less<unsigned long>,std::allocator<std::pair<unsigned long const ,ioHashString> >,0> >::_Lbound
; Function compile flags: /Ogsp
;	COMDAT ?_Lbound@?$_Tree@V?$_Tmap_traits@KVioHashString@@U?$less@K@std@@V?$allocator@U?$pair@$$CBKVioHashString@@@std@@@3@$0A@@std@@@std@@IBEPAU_Node@?$_Tree_nod@V?$_Tmap_traits@KVioHashString@@U?$less@K@std@@V?$allocator@U?$pair@$$CBKVioHashString@@@std@@@3@$0A@@std@@@2@ABK@Z
_TEXT	SEGMENT
__Keyval$ = 8						; size = 4
?_Lbound@?$_Tree@V?$_Tmap_traits@KVioHashString@@U?$less@K@std@@V?$allocator@U?$pair@$$CBKVioHashString@@@std@@@3@$0A@@std@@@std@@IBEPAU_Node@?$_Tree_nod@V?$_Tmap_traits@KVioHashString@@U?$less@K@std@@V?$allocator@U?$pair@$$CBKVioHashString@@@std@@@3@$0A@@std@@@2@ABK@Z PROC ; std::_Tree<std::_Tmap_traits<unsigned long,ioHashString,std::less<unsigned long>,std::allocator<std::pair<unsigned long const ,ioHashString> >,0> >::_Lbound, COMDAT
; _this$ = ecx

; 1724 : 		{	// find leftmost node not less than _Keyval

  00000	55		 push	 ebp
  00001	8b ec		 mov	 ebp, esp

; 1725 : 		_Nodeptr _Pnode = _Root();

  00003	8b 41 04	 mov	 eax, DWORD PTR [ecx+4]
  00006	8b 48 04	 mov	 ecx, DWORD PTR [eax+4]

; 1726 : 		_Nodeptr _Wherenode = this->_Myhead;	// end() if search fails
; 1727 : 
; 1728 : 		while (!this->_Isnil(_Pnode))

  00009	80 79 21 00	 cmp	 BYTE PTR [ecx+33], 0
  0000d	75 19		 jne	 SHORT $LN3@Lbound
  0000f	8b 55 08	 mov	 edx, DWORD PTR __Keyval$[ebp]
  00012	8b 12		 mov	 edx, DWORD PTR [edx]
$LL4@Lbound:

; 1729 : 			if (_DEBUG_LT_PRED(this->comp, this->_Key(_Pnode), _Keyval))

  00014	39 51 0c	 cmp	 DWORD PTR [ecx+12], edx
  00017	73 05		 jae	 SHORT $LN2@Lbound

; 1730 : 				_Pnode = this->_Right(_Pnode);	// descend right subtree

  00019	8b 49 08	 mov	 ecx, DWORD PTR [ecx+8]

; 1731 : 			else

  0001c	eb 04		 jmp	 SHORT $LN1@Lbound
$LN2@Lbound:

; 1732 : 				{	// _Pnode not less than _Keyval, remember it
; 1733 : 				_Wherenode = _Pnode;

  0001e	8b c1		 mov	 eax, ecx

; 1734 : 				_Pnode = this->_Left(_Pnode);	// descend left subtree

  00020	8b 09		 mov	 ecx, DWORD PTR [ecx]
$LN1@Lbound:

; 1726 : 		_Nodeptr _Wherenode = this->_Myhead;	// end() if search fails
; 1727 : 
; 1728 : 		while (!this->_Isnil(_Pnode))

  00022	80 79 21 00	 cmp	 BYTE PTR [ecx+33], 0
  00026	74 ec		 je	 SHORT $LL4@Lbound
$LN3@Lbound:

; 1735 : 				}
; 1736 : 
; 1737 : 		return (_Wherenode);	// return best remembered candidate
; 1738 : 		}

  00028	5d		 pop	 ebp
  00029	c2 04 00	 ret	 4
?_Lbound@?$_Tree@V?$_Tmap_traits@KVioHashString@@U?$less@K@std@@V?$allocator@U?$pair@$$CBKVioHashString@@@std@@@3@$0A@@std@@@std@@IBEPAU_Node@?$_Tree_nod@V?$_Tmap_traits@KVioHashString@@U?$less@K@std@@V?$allocator@U?$pair@$$CBKVioHashString@@@std@@@3@$0A@@std@@@2@ABK@Z ENDP ; std::_Tree<std::_Tmap_traits<unsigned long,ioHashString,std::less<unsigned long>,std::allocator<std::pair<unsigned long const ,ioHashString> >,0> >::_Lbound
_TEXT	ENDS
PUBLIC	??0?$_Tree_nod@V?$_Tmap_traits@KVioHashString@@U?$less@K@std@@V?$allocator@U?$pair@$$CBKVioHashString@@@std@@@3@$0A@@std@@@std@@QAE@ABU?$less@K@1@V?$allocator@U?$pair@$$CBKVioHashString@@@std@@@1@@Z ; std::_Tree_nod<std::_Tmap_traits<unsigned long,ioHashString,std::less<unsigned long>,std::allocator<std::pair<unsigned long const ,ioHashString> >,0> >::_Tree_nod<std::_Tmap_traits<unsigned long,ioHashString,std::less<unsigned long>,std::allocator<std::pair<unsigned long const ,ioHashString> >,0> >
; Function compile flags: /Ogsp
;	COMDAT ??0?$_Tree_nod@V?$_Tmap_traits@KVioHashString@@U?$less@K@std@@V?$allocator@U?$pair@$$CBKVioHashString@@@std@@@3@$0A@@std@@@std@@QAE@ABU?$less@K@1@V?$allocator@U?$pair@$$CBKVioHashString@@@std@@@1@@Z
_TEXT	SEGMENT
__Parg$ = 8						; size = 4
__Al$ = 12						; size = 1
??0?$_Tree_nod@V?$_Tmap_traits@KVioHashString@@U?$less@K@std@@V?$allocator@U?$pair@$$CBKVioHashString@@@std@@@3@$0A@@std@@@std@@QAE@ABU?$less@K@1@V?$allocator@U?$pair@$$CBKVioHashString@@@std@@@1@@Z PROC ; std::_Tree_nod<std::_Tmap_traits<unsigned long,ioHashString,std::less<unsigned long>,std::allocator<std::pair<unsigned long const ,ioHashString> >,0> >::_Tree_nod<std::_Tmap_traits<unsigned long,ioHashString,std::less<unsigned long>,std::allocator<std::pair<unsigned long const ,ioHashString> >,0> >, COMDAT
; _this$ = ecx

; 482  : 		{	// construct traits from _Parg and allocators from _Al

  00000	8b c1		 mov	 eax, ecx

; 483  : 		}

  00002	c2 08 00	 ret	 8
??0?$_Tree_nod@V?$_Tmap_traits@KVioHashString@@U?$less@K@std@@V?$allocator@U?$pair@$$CBKVioHashString@@@std@@@3@$0A@@std@@@std@@QAE@ABU?$less@K@1@V?$allocator@U?$pair@$$CBKVioHashString@@@std@@@1@@Z ENDP ; std::_Tree_nod<std::_Tmap_traits<unsigned long,ioHashString,std::less<unsigned long>,std::allocator<std::pair<unsigned long const ,ioHashString> >,0> >::_Tree_nod<std::_Tmap_traits<unsigned long,ioHashString,std::less<unsigned long>,std::allocator<std::pair<unsigned long const ,ioHashString> >,0> >
_TEXT	ENDS
PUBLIC	?allocate@?$allocator@U_Node@?$_Tree_nod@V?$_Tmap_traits@KVioHashString@@U?$less@K@std@@V?$allocator@U?$pair@$$CBKVioHashString@@@std@@@3@$0A@@std@@@std@@@std@@QAEPAU_Node@?$_Tree_nod@V?$_Tmap_traits@KVioHashString@@U?$less@K@std@@V?$allocator@U?$pair@$$CBKVioHashString@@@std@@@3@$0A@@std@@@2@I@Z ; std::allocator<std::_Tree_nod<std::_Tmap_traits<unsigned long,ioHashString,std::less<unsigned long>,std::allocator<std::pair<unsigned long const ,ioHashString> >,0> >::_Node>::allocate
; Function compile flags: /Ogsp
; File c:\program files (x86)\microsoft visual studio 10.0\vc\include\xmemory
;	COMDAT ?allocate@?$allocator@U_Node@?$_Tree_nod@V?$_Tmap_traits@KVioHashString@@U?$less@K@std@@V?$allocator@U?$pair@$$CBKVioHashString@@@std@@@3@$0A@@std@@@std@@@std@@QAEPAU_Node@?$_Tree_nod@V?$_Tmap_traits@KVioHashString@@U?$less@K@std@@V?$allocator@U?$pair@$$CBKVioHashString@@@std@@@3@$0A@@std@@@2@I@Z
_TEXT	SEGMENT
__Count$ = 8						; size = 4
?allocate@?$allocator@U_Node@?$_Tree_nod@V?$_Tmap_traits@KVioHashString@@U?$less@K@std@@V?$allocator@U?$pair@$$CBKVioHashString@@@std@@@3@$0A@@std@@@std@@@std@@QAEPAU_Node@?$_Tree_nod@V?$_Tmap_traits@KVioHashString@@U?$less@K@std@@V?$allocator@U?$pair@$$CBKVioHashString@@@std@@@3@$0A@@std@@@2@I@Z PROC ; std::allocator<std::_Tree_nod<std::_Tmap_traits<unsigned long,ioHashString,std::less<unsigned long>,std::allocator<std::pair<unsigned long const ,ioHashString> >,0> >::_Node>::allocate, COMDAT
; _this$ = ecx

; 186  : 		{	// allocate array of _Count elements

  00000	55		 push	 ebp
  00001	8b ec		 mov	 ebp, esp

; 187  : 		return (_Allocate(_Count, (pointer)0));

  00003	6a 00		 push	 0
  00005	ff 75 08	 push	 DWORD PTR __Count$[ebp]
  00008	e8 00 00 00 00	 call	 ??$_Allocate@U_Node@?$_Tree_nod@V?$_Tmap_traits@KVioHashString@@U?$less@K@std@@V?$allocator@U?$pair@$$CBKVioHashString@@@std@@@3@$0A@@std@@@std@@@std@@YAPAU_Node@?$_Tree_nod@V?$_Tmap_traits@KVioHashString@@U?$less@K@std@@V?$allocator@U?$pair@$$CBKVioHashString@@@std@@@3@$0A@@std@@@0@IPAU120@@Z ; std::_Allocate<std::_Tree_nod<std::_Tmap_traits<unsigned long,ioHashString,std::less<unsigned long>,std::allocator<std::pair<unsigned long const ,ioHashString> >,0> >::_Node>
  0000d	59		 pop	 ecx
  0000e	59		 pop	 ecx

; 188  : 		}

  0000f	5d		 pop	 ebp
  00010	c2 04 00	 ret	 4
?allocate@?$allocator@U_Node@?$_Tree_nod@V?$_Tmap_traits@KVioHashString@@U?$less@K@std@@V?$allocator@U?$pair@$$CBKVioHashString@@@std@@@3@$0A@@std@@@std@@@std@@QAEPAU_Node@?$_Tree_nod@V?$_Tmap_traits@KVioHashString@@U?$less@K@std@@V?$allocator@U?$pair@$$CBKVioHashString@@@std@@@3@$0A@@std@@@2@I@Z ENDP ; std::allocator<std::_Tree_nod<std::_Tmap_traits<unsigned long,ioHashString,std::less<unsigned long>,std::allocator<std::pair<unsigned long const ,ioHashString> >,0> >::_Node>::allocate
_TEXT	ENDS
PUBLIC	??0?$_Tree_iterator@V?$_Tree_val@V?$_Tmap_traits@KVioHashString@@U?$less@K@std@@V?$allocator@U?$pair@$$CBKVioHashString@@@std@@@3@$0A@@std@@@std@@@std@@QAE@PAU_Node@?$_Tree_nod@V?$_Tmap_traits@KVioHashString@@U?$less@K@std@@V?$allocator@U?$pair@$$CBKVioHashString@@@std@@@3@$0A@@std@@@1@PBV?$_Tree_val@V?$_Tmap_traits@KVioHashString@@U?$less@K@std@@V?$allocator@U?$pair@$$CBKVioHashString@@@std@@@3@$0A@@std@@@1@@Z ; std::_Tree_iterator<std::_Tree_val<std::_Tmap_traits<unsigned long,ioHashString,std::less<unsigned long>,std::allocator<std::pair<unsigned long const ,ioHashString> >,0> > >::_Tree_iterator<std::_Tree_val<std::_Tmap_traits<unsigned long,ioHashString,std::less<unsigned long>,std::allocator<std::pair<unsigned long const ,ioHashString> >,0> > >
; Function compile flags: /Ogsp
; File c:\program files (x86)\microsoft visual studio 10.0\vc\include\xtree
;	COMDAT ??0?$_Tree_iterator@V?$_Tree_val@V?$_Tmap_traits@KVioHashString@@U?$less@K@std@@V?$allocator@U?$pair@$$CBKVioHashString@@@std@@@3@$0A@@std@@@std@@@std@@QAE@PAU_Node@?$_Tree_nod@V?$_Tmap_traits@KVioHashString@@U?$less@K@std@@V?$allocator@U?$pair@$$CBKVioHashString@@@std@@@3@$0A@@std@@@1@PBV?$_Tree_val@V?$_Tmap_traits@KVioHashString@@U?$less@K@std@@V?$allocator@U?$pair@$$CBKVioHashString@@@std@@@3@$0A@@std@@@1@@Z
_TEXT	SEGMENT
__Pnode$ = 8						; size = 4
__Plist$ = 12						; size = 4
??0?$_Tree_iterator@V?$_Tree_val@V?$_Tmap_traits@KVioHashString@@U?$less@K@std@@V?$allocator@U?$pair@$$CBKVioHashString@@@std@@@3@$0A@@std@@@std@@@std@@QAE@PAU_Node@?$_Tree_nod@V?$_Tmap_traits@KVioHashString@@U?$less@K@std@@V?$allocator@U?$pair@$$CBKVioHashString@@@std@@@3@$0A@@std@@@1@PBV?$_Tree_val@V?$_Tmap_traits@KVioHashString@@U?$less@K@std@@V?$allocator@U?$pair@$$CBKVioHashString@@@std@@@3@$0A@@std@@@1@@Z PROC ; std::_Tree_iterator<std::_Tree_val<std::_Tmap_traits<unsigned long,ioHashString,std::less<unsigned long>,std::allocator<std::pair<unsigned long const ,ioHashString> >,0> > >::_Tree_iterator<std::_Tree_val<std::_Tmap_traits<unsigned long,ioHashString,std::less<unsigned long>,std::allocator<std::pair<unsigned long const ,ioHashString> >,0> > >, COMDAT
; _this$ = ecx

; 378  : 		{	// construct with node pointer _Pnode

  00000	55		 push	 ebp
  00001	8b ec		 mov	 ebp, esp
  00003	8b c1		 mov	 eax, ecx
  00005	8b 4d 08	 mov	 ecx, DWORD PTR __Pnode$[ebp]
  00008	89 08		 mov	 DWORD PTR [eax], ecx

; 379  : 		}

  0000a	5d		 pop	 ebp
  0000b	c2 08 00	 ret	 8
??0?$_Tree_iterator@V?$_Tree_val@V?$_Tmap_traits@KVioHashString@@U?$less@K@std@@V?$allocator@U?$pair@$$CBKVioHashString@@@std@@@3@$0A@@std@@@std@@@std@@QAE@PAU_Node@?$_Tree_nod@V?$_Tmap_traits@KVioHashString@@U?$less@K@std@@V?$allocator@U?$pair@$$CBKVioHashString@@@std@@@3@$0A@@std@@@1@PBV?$_Tree_val@V?$_Tmap_traits@KVioHashString@@U?$less@K@std@@V?$allocator@U?$pair@$$CBKVioHashString@@@std@@@3@$0A@@std@@@1@@Z ENDP ; std::_Tree_iterator<std::_Tree_val<std::_Tmap_traits<unsigned long,ioHashString,std::less<unsigned long>,std::allocator<std::pair<unsigned long const ,ioHashString> >,0> > >::_Tree_iterator<std::_Tree_val<std::_Tmap_traits<unsigned long,ioHashString,std::less<unsigned long>,std::allocator<std::pair<unsigned long const ,ioHashString> >,0> > >
_TEXT	ENDS
PUBLIC	?_Lrotate@?$_Tree@V?$_Tmap_traits@KVioHashString@@U?$less@K@std@@V?$allocator@U?$pair@$$CBKVioHashString@@@std@@@3@$0A@@std@@@std@@IAEXPAU_Node@?$_Tree_nod@V?$_Tmap_traits@KVioHashString@@U?$less@K@std@@V?$allocator@U?$pair@$$CBKVioHashString@@@std@@@3@$0A@@std@@@2@@Z ; std::_Tree<std::_Tmap_traits<unsigned long,ioHashString,std::less<unsigned long>,std::allocator<std::pair<unsigned long const ,ioHashString> >,0> >::_Lrotate
; Function compile flags: /Ogsp
;	COMDAT ?_Lrotate@?$_Tree@V?$_Tmap_traits@KVioHashString@@U?$less@K@std@@V?$allocator@U?$pair@$$CBKVioHashString@@@std@@@3@$0A@@std@@@std@@IAEXPAU_Node@?$_Tree_nod@V?$_Tmap_traits@KVioHashString@@U?$less@K@std@@V?$allocator@U?$pair@$$CBKVioHashString@@@std@@@3@$0A@@std@@@2@@Z
_TEXT	SEGMENT
__Wherenode$ = 8					; size = 4
?_Lrotate@?$_Tree@V?$_Tmap_traits@KVioHashString@@U?$less@K@std@@V?$allocator@U?$pair@$$CBKVioHashString@@@std@@@3@$0A@@std@@@std@@IAEXPAU_Node@?$_Tree_nod@V?$_Tmap_traits@KVioHashString@@U?$less@K@std@@V?$allocator@U?$pair@$$CBKVioHashString@@@std@@@3@$0A@@std@@@2@@Z PROC ; std::_Tree<std::_Tmap_traits<unsigned long,ioHashString,std::less<unsigned long>,std::allocator<std::pair<unsigned long const ,ioHashString> >,0> >::_Lrotate, COMDAT
; _this$ = ecx

; 1763 : 		{	// promote right node to root of subtree

  00000	55		 push	 ebp
  00001	8b ec		 mov	 ebp, esp

; 1764 : 		_Nodeptr _Pnode = this->_Right(_Wherenode);

  00003	8b 55 08	 mov	 edx, DWORD PTR __Wherenode$[ebp]
  00006	8b 42 08	 mov	 eax, DWORD PTR [edx+8]
  00009	56		 push	 esi

; 1765 : 		this->_Right(_Wherenode) = this->_Left(_Pnode);

  0000a	8b 30		 mov	 esi, DWORD PTR [eax]
  0000c	89 72 08	 mov	 DWORD PTR [edx+8], esi

; 1766 : 
; 1767 : 		if (!this->_Isnil(this->_Left(_Pnode)))

  0000f	8b 30		 mov	 esi, DWORD PTR [eax]
  00011	80 7e 21 00	 cmp	 BYTE PTR [esi+33], 0
  00015	75 03		 jne	 SHORT $LN5@Lrotate

; 1768 : 			this->_Parent(this->_Left(_Pnode)) = _Wherenode;

  00017	89 56 04	 mov	 DWORD PTR [esi+4], edx
$LN5@Lrotate:

; 1769 : 		this->_Parent(_Pnode) = this->_Parent(_Wherenode);

  0001a	8b 72 04	 mov	 esi, DWORD PTR [edx+4]
  0001d	89 70 04	 mov	 DWORD PTR [eax+4], esi

; 1770 : 
; 1771 : 		if (_Wherenode == _Root())

  00020	8b 49 04	 mov	 ecx, DWORD PTR [ecx+4]
  00023	5e		 pop	 esi
  00024	3b 51 04	 cmp	 edx, DWORD PTR [ecx+4]
  00027	75 05		 jne	 SHORT $LN4@Lrotate

; 1772 : 			_Root() = _Pnode;

  00029	89 41 04	 mov	 DWORD PTR [ecx+4], eax

; 1773 : 		else if (_Wherenode == this->_Left(this->_Parent(_Wherenode)))

  0002c	eb 0e		 jmp	 SHORT $LN1@Lrotate
$LN4@Lrotate:
  0002e	8b 4a 04	 mov	 ecx, DWORD PTR [edx+4]
  00031	3b 11		 cmp	 edx, DWORD PTR [ecx]
  00033	75 04		 jne	 SHORT $LN2@Lrotate

; 1774 : 			this->_Left(this->_Parent(_Wherenode)) = _Pnode;

  00035	89 01		 mov	 DWORD PTR [ecx], eax

; 1775 : 		else

  00037	eb 03		 jmp	 SHORT $LN1@Lrotate
$LN2@Lrotate:

; 1776 : 			this->_Right(this->_Parent(_Wherenode)) = _Pnode;

  00039	89 41 08	 mov	 DWORD PTR [ecx+8], eax
$LN1@Lrotate:

; 1777 : 
; 1778 : 		this->_Left(_Pnode) = _Wherenode;

  0003c	89 10		 mov	 DWORD PTR [eax], edx

; 1779 : 		this->_Parent(_Wherenode) = _Pnode;

  0003e	89 42 04	 mov	 DWORD PTR [edx+4], eax

; 1780 : 		}

  00041	5d		 pop	 ebp
  00042	c2 04 00	 ret	 4
?_Lrotate@?$_Tree@V?$_Tmap_traits@KVioHashString@@U?$less@K@std@@V?$allocator@U?$pair@$$CBKVioHashString@@@std@@@3@$0A@@std@@@std@@IAEXPAU_Node@?$_Tree_nod@V?$_Tmap_traits@KVioHashString@@U?$less@K@std@@V?$allocator@U?$pair@$$CBKVioHashString@@@std@@@3@$0A@@std@@@2@@Z ENDP ; std::_Tree<std::_Tmap_traits<unsigned long,ioHashString,std::less<unsigned long>,std::allocator<std::pair<unsigned long const ,ioHashString> >,0> >::_Lrotate
_TEXT	ENDS
PUBLIC	?_Rrotate@?$_Tree@V?$_Tmap_traits@KVioHashString@@U?$less@K@std@@V?$allocator@U?$pair@$$CBKVioHashString@@@std@@@3@$0A@@std@@@std@@IAEXPAU_Node@?$_Tree_nod@V?$_Tmap_traits@KVioHashString@@U?$less@K@std@@V?$allocator@U?$pair@$$CBKVioHashString@@@std@@@3@$0A@@std@@@2@@Z ; std::_Tree<std::_Tmap_traits<unsigned long,ioHashString,std::less<unsigned long>,std::allocator<std::pair<unsigned long const ,ioHashString> >,0> >::_Rrotate
; Function compile flags: /Ogsp
;	COMDAT ?_Rrotate@?$_Tree@V?$_Tmap_traits@KVioHashString@@U?$less@K@std@@V?$allocator@U?$pair@$$CBKVioHashString@@@std@@@3@$0A@@std@@@std@@IAEXPAU_Node@?$_Tree_nod@V?$_Tmap_traits@KVioHashString@@U?$less@K@std@@V?$allocator@U?$pair@$$CBKVioHashString@@@std@@@3@$0A@@std@@@2@@Z
_TEXT	SEGMENT
__Wherenode$ = 8					; size = 4
?_Rrotate@?$_Tree@V?$_Tmap_traits@KVioHashString@@U?$less@K@std@@V?$allocator@U?$pair@$$CBKVioHashString@@@std@@@3@$0A@@std@@@std@@IAEXPAU_Node@?$_Tree_nod@V?$_Tmap_traits@KVioHashString@@U?$less@K@std@@V?$allocator@U?$pair@$$CBKVioHashString@@@std@@@3@$0A@@std@@@2@@Z PROC ; std::_Tree<std::_Tmap_traits<unsigned long,ioHashString,std::less<unsigned long>,std::allocator<std::pair<unsigned long const ,ioHashString> >,0> >::_Rrotate, COMDAT
; _this$ = ecx

; 1793 : 		{	// promote left node to root of subtree

  00000	55		 push	 ebp
  00001	8b ec		 mov	 ebp, esp

; 1794 : 		_Nodeptr _Pnode = this->_Left(_Wherenode);

  00003	8b 55 08	 mov	 edx, DWORD PTR __Wherenode$[ebp]
  00006	8b 02		 mov	 eax, DWORD PTR [edx]
  00008	56		 push	 esi

; 1795 : 		this->_Left(_Wherenode) = this->_Right(_Pnode);

  00009	8b 70 08	 mov	 esi, DWORD PTR [eax+8]
  0000c	89 32		 mov	 DWORD PTR [edx], esi

; 1796 : 
; 1797 : 		if (!this->_Isnil(this->_Right(_Pnode)))

  0000e	8b 70 08	 mov	 esi, DWORD PTR [eax+8]
  00011	80 7e 21 00	 cmp	 BYTE PTR [esi+33], 0
  00015	75 03		 jne	 SHORT $LN5@Rrotate

; 1798 : 			this->_Parent(this->_Right(_Pnode)) = _Wherenode;

  00017	89 56 04	 mov	 DWORD PTR [esi+4], edx
$LN5@Rrotate:

; 1799 : 		this->_Parent(_Pnode) = this->_Parent(_Wherenode);

  0001a	8b 72 04	 mov	 esi, DWORD PTR [edx+4]
  0001d	89 70 04	 mov	 DWORD PTR [eax+4], esi

; 1800 : 
; 1801 : 		if (_Wherenode == _Root())

  00020	8b 49 04	 mov	 ecx, DWORD PTR [ecx+4]
  00023	5e		 pop	 esi
  00024	3b 51 04	 cmp	 edx, DWORD PTR [ecx+4]
  00027	75 05		 jne	 SHORT $LN4@Rrotate

; 1802 : 			_Root() = _Pnode;

  00029	89 41 04	 mov	 DWORD PTR [ecx+4], eax

; 1803 : 		else if (_Wherenode == this->_Right(this->_Parent(_Wherenode)))

  0002c	eb 0f		 jmp	 SHORT $LN1@Rrotate
$LN4@Rrotate:
  0002e	8b 4a 04	 mov	 ecx, DWORD PTR [edx+4]
  00031	3b 51 08	 cmp	 edx, DWORD PTR [ecx+8]
  00034	75 05		 jne	 SHORT $LN2@Rrotate

; 1804 : 			this->_Right(this->_Parent(_Wherenode)) = _Pnode;

  00036	89 41 08	 mov	 DWORD PTR [ecx+8], eax

; 1805 : 		else

  00039	eb 02		 jmp	 SHORT $LN1@Rrotate
$LN2@Rrotate:

; 1806 : 			this->_Left(this->_Parent(_Wherenode)) = _Pnode;

  0003b	89 01		 mov	 DWORD PTR [ecx], eax
$LN1@Rrotate:

; 1807 : 
; 1808 : 		this->_Right(_Pnode) = _Wherenode;

  0003d	89 50 08	 mov	 DWORD PTR [eax+8], edx

; 1809 : 		this->_Parent(_Wherenode) = _Pnode;

  00040	89 42 04	 mov	 DWORD PTR [edx+4], eax

; 1810 : 		}

  00043	5d		 pop	 ebp
  00044	c2 04 00	 ret	 4
?_Rrotate@?$_Tree@V?$_Tmap_traits@KVioHashString@@U?$less@K@std@@V?$allocator@U?$pair@$$CBKVioHashString@@@std@@@3@$0A@@std@@@std@@IAEXPAU_Node@?$_Tree_nod@V?$_Tmap_traits@KVioHashString@@U?$less@K@std@@V?$allocator@U?$pair@$$CBKVioHashString@@@std@@@3@$0A@@std@@@2@@Z ENDP ; std::_Tree<std::_Tmap_traits<unsigned long,ioHashString,std::less<unsigned long>,std::allocator<std::pair<unsigned long const ,ioHashString> >,0> >::_Rrotate
_TEXT	ENDS
PUBLIC	??E?$_Tree_const_iterator@V?$_Tree_val@V?$_Tmap_traits@KVioHashString@@U?$less@K@std@@V?$allocator@U?$pair@$$CBKVioHashString@@@std@@@3@$0A@@std@@@std@@@std@@QAEAAV01@XZ ; std::_Tree_const_iterator<std::_Tree_val<std::_Tmap_traits<unsigned long,ioHashString,std::less<unsigned long>,std::allocator<std::pair<unsigned long const ,ioHashString> >,0> > >::operator++
; Function compile flags: /Ogsp
;	COMDAT ??E?$_Tree_const_iterator@V?$_Tree_val@V?$_Tmap_traits@KVioHashString@@U?$less@K@std@@V?$allocator@U?$pair@$$CBKVioHashString@@@std@@@3@$0A@@std@@@std@@@std@@QAEAAV01@XZ
_TEXT	SEGMENT
??E?$_Tree_const_iterator@V?$_Tree_val@V?$_Tmap_traits@KVioHashString@@U?$less@K@std@@V?$allocator@U?$pair@$$CBKVioHashString@@@std@@@3@$0A@@std@@@std@@@std@@QAEAAV01@XZ PROC ; std::_Tree_const_iterator<std::_Tree_val<std::_Tmap_traits<unsigned long,ioHashString,std::less<unsigned long>,std::allocator<std::pair<unsigned long const ,ioHashString> >,0> > >::operator++, COMDAT
; _this$ = ecx

; 250  : 		{	// preincrement

  00000	56		 push	 esi
  00001	8b f1		 mov	 esi, ecx

; 251  :  #if _ITERATOR_DEBUG_LEVEL == 2
; 252  : 		if (this->_Getcont() == 0
; 253  : 			|| this->_Ptr == 0
; 254  : 			|| _Mytree::_Isnil(this->_Ptr))
; 255  : 			{	// report error
; 256  : 			_DEBUG_ERROR("map/set iterator not incrementable");
; 257  : 			_SCL_SECURE_OUT_OF_RANGE;
; 258  : 			}
; 259  : 
; 260  :  #elif _ITERATOR_DEBUG_LEVEL == 1
; 261  : 		_SCL_SECURE_VALIDATE(this->_Getcont() != 0 && this->_Ptr != 0);
; 262  : 		_SCL_SECURE_VALIDATE_RANGE(!_Mytree::_Isnil(this->_Ptr));
; 263  :  #endif /* _ITERATOR_DEBUG_LEVEL */
; 264  : 
; 265  : 		++(*(_Mybase *)this);

  00003	e8 00 00 00 00	 call	 ??E?$_Tree_unchecked_const_iterator@V?$_Tree_val@V?$_Tmap_traits@KVioHashString@@U?$less@K@std@@V?$allocator@U?$pair@$$CBKVioHashString@@@std@@@3@$0A@@std@@@std@@U_Iterator_base0@2@@std@@QAEAAV01@XZ ; std::_Tree_unchecked_const_iterator<std::_Tree_val<std::_Tmap_traits<unsigned long,ioHashString,std::less<unsigned long>,std::allocator<std::pair<unsigned long const ,ioHashString> >,0> >,std::_Iterator_base0>::operator++

; 266  : 		return (*this);

  00008	8b c6		 mov	 eax, esi
  0000a	5e		 pop	 esi

; 267  : 		}

  0000b	c3		 ret	 0
??E?$_Tree_const_iterator@V?$_Tree_val@V?$_Tmap_traits@KVioHashString@@U?$less@K@std@@V?$allocator@U?$pair@$$CBKVioHashString@@@std@@@3@$0A@@std@@@std@@@std@@QAEAAV01@XZ ENDP ; std::_Tree_const_iterator<std::_Tree_val<std::_Tmap_traits<unsigned long,ioHashString,std::less<unsigned long>,std::allocator<std::pair<unsigned long const ,ioHashString> >,0> > >::operator++
_TEXT	ENDS
PUBLIC	_this$GSCopy$
PUBLIC	__$ArrayPad$
PUBLIC	??$LoadString_e@$0BC@@ioINILoader@@QAEXAAY0BC@$$CBDAAY00$$CBDPADH@Z ; ioINILoader::LoadString_e<18>
EXTRN	__imp_?LoadStringA@ioINILoader@@QAEXPBD0PADH@Z:PROC
EXTRN	___security_cookie:DWORD
; Function compile flags: /Ogsp
; File d:\lost saga for developer\youtube\tutorial\source\src\io3dengine\ioiniloader.h
;	COMDAT ??$LoadString_e@$0BC@@ioINILoader@@QAEXAAY0BC@$$CBDAAY00$$CBDPADH@Z
_TEXT	SEGMENT
_this$GSCopy$ = -32					; size = 4
__k$ = -28						; size = 18
__$ArrayPad$ = -4					; size = 4
_k$ = 8							; size = 4
_d$ = 12						; size = 4
_b$ = 16						; size = 4
_i$ = 20						; size = 4
??$LoadString_e@$0BC@@ioINILoader@@QAEXAAY0BC@$$CBDAAY00$$CBDPADH@Z PROC ; ioINILoader::LoadString_e<18>, COMDAT
; _this$ = ecx

; 161  : 	{

  00000	55		 push	 ebp
  00001	8b ec		 mov	 ebp, esp
  00003	83 ec 20	 sub	 esp, 32			; 00000020H
  00006	a1 00 00 00 00	 mov	 eax, DWORD PTR ___security_cookie
  0000b	33 c5		 xor	 eax, ebp
  0000d	89 45 fc	 mov	 DWORD PTR __$ArrayPad$[ebp], eax
  00010	8b 45 08	 mov	 eax, DWORD PTR _k$[ebp]

; 162  : 		_ENCSTR(k, _k);

  00013	8a 10		 mov	 dl, BYTE PTR [eax]
  00015	56		 push	 esi
  00016	8b 75 0c	 mov	 esi, DWORD PTR _d$[ebp]
  00019	57		 push	 edi
  0001a	8b 7d 10	 mov	 edi, DWORD PTR _b$[ebp]
  0001d	89 4d e0	 mov	 DWORD PTR _this$GSCopy$[ebp], ecx
  00020	84 d2		 test	 dl, dl
  00022	0f 84 be 01 00
	00		 je	 $LN96@LoadString
  00028	80 f2 ed	 xor	 dl, -19			; ffffffedH
  0002b	88 55 e4	 mov	 BYTE PTR __k$[ebp], dl
  0002e	8a 50 01	 mov	 dl, BYTE PTR [eax+1]
  00031	84 d2		 test	 dl, dl
  00033	0f 84 a7 01 00
	00		 je	 $LN95@LoadString
  00039	80 f2 ec	 xor	 dl, -20			; ffffffecH
  0003c	88 55 e5	 mov	 BYTE PTR __k$[ebp+1], dl
  0003f	8a 50 02	 mov	 dl, BYTE PTR [eax+2]
  00042	84 d2		 test	 dl, dl
  00044	0f 84 90 01 00
	00		 je	 $LN94@LoadString
  0004a	b1 eb		 mov	 cl, -21			; ffffffebH
  0004c	32 d1		 xor	 dl, cl
  0004e	88 55 e6	 mov	 BYTE PTR __k$[ebp+2], dl
  00051	8a 50 03	 mov	 dl, BYTE PTR [eax+3]
  00054	84 d2		 test	 dl, dl
  00056	0f 84 78 01 00
	00		 je	 $LN93@LoadString
  0005c	80 f2 ea	 xor	 dl, -22			; ffffffeaH
  0005f	88 55 e7	 mov	 BYTE PTR __k$[ebp+3], dl
  00062	8a 50 04	 mov	 dl, BYTE PTR [eax+4]
  00065	84 d2		 test	 dl, dl
  00067	0f 84 61 01 00
	00		 je	 $LN92@LoadString
  0006d	80 f2 ed	 xor	 dl, -19			; ffffffedH
  00070	88 55 e8	 mov	 BYTE PTR __k$[ebp+4], dl
  00073	8a 50 05	 mov	 dl, BYTE PTR [eax+5]
  00076	84 d2		 test	 dl, dl
  00078	0f 84 4a 01 00
	00		 je	 $LN91@LoadString
  0007e	80 f2 ec	 xor	 dl, -20			; ffffffecH
  00081	88 55 e9	 mov	 BYTE PTR __k$[ebp+5], dl
  00084	8a 50 06	 mov	 dl, BYTE PTR [eax+6]
  00087	84 d2		 test	 dl, dl
  00089	0f 84 34 01 00
	00		 je	 $LN90@LoadString
  0008f	32 d1		 xor	 dl, cl
  00091	88 55 ea	 mov	 BYTE PTR __k$[ebp+6], dl
  00094	8a 50 07	 mov	 dl, BYTE PTR [eax+7]
  00097	84 d2		 test	 dl, dl
  00099	0f 84 1e 01 00
	00		 je	 $LN89@LoadString
  0009f	80 f2 ea	 xor	 dl, -22			; ffffffeaH
  000a2	88 55 eb	 mov	 BYTE PTR __k$[ebp+7], dl
  000a5	8a 50 08	 mov	 dl, BYTE PTR [eax+8]
  000a8	84 d2		 test	 dl, dl
  000aa	0f 84 07 01 00
	00		 je	 $LN88@LoadString
  000b0	80 f2 ed	 xor	 dl, -19			; ffffffedH
  000b3	88 55 ec	 mov	 BYTE PTR __k$[ebp+8], dl
  000b6	8a 50 09	 mov	 dl, BYTE PTR [eax+9]
  000b9	84 d2		 test	 dl, dl
  000bb	0f 84 f0 00 00
	00		 je	 $LN87@LoadString
  000c1	80 f2 ec	 xor	 dl, -20			; ffffffecH
  000c4	88 55 ed	 mov	 BYTE PTR __k$[ebp+9], dl
  000c7	8a 50 0a	 mov	 dl, BYTE PTR [eax+10]
  000ca	84 d2		 test	 dl, dl
  000cc	0f 84 da 00 00
	00		 je	 $LN86@LoadString
  000d2	32 d1		 xor	 dl, cl
  000d4	88 55 ee	 mov	 BYTE PTR __k$[ebp+10], dl
  000d7	8a 50 0b	 mov	 dl, BYTE PTR [eax+11]
  000da	84 d2		 test	 dl, dl
  000dc	0f 84 c4 00 00
	00		 je	 $LN85@LoadString
  000e2	80 f2 ea	 xor	 dl, -22			; ffffffeaH
  000e5	88 55 ef	 mov	 BYTE PTR __k$[ebp+11], dl
  000e8	8a 50 0c	 mov	 dl, BYTE PTR [eax+12]
  000eb	84 d2		 test	 dl, dl
  000ed	0f 84 ad 00 00
	00		 je	 $LN84@LoadString
  000f3	80 f2 ed	 xor	 dl, -19			; ffffffedH
  000f6	88 55 f0	 mov	 BYTE PTR __k$[ebp+12], dl
  000f9	8a 50 0d	 mov	 dl, BYTE PTR [eax+13]
  000fc	84 d2		 test	 dl, dl
  000fe	0f 84 96 00 00
	00		 je	 $LN83@LoadString
  00104	80 f2 ec	 xor	 dl, -20			; ffffffecH
  00107	88 55 f1	 mov	 BYTE PTR __k$[ebp+13], dl
  0010a	8a 50 0e	 mov	 dl, BYTE PTR [eax+14]
  0010d	84 d2		 test	 dl, dl
  0010f	0f 84 80 00 00
	00		 je	 $LN82@LoadString
  00115	32 d1		 xor	 dl, cl
  00117	88 55 f2	 mov	 BYTE PTR __k$[ebp+14], dl
  0011a	8a 50 0f	 mov	 dl, BYTE PTR [eax+15]
  0011d	84 d2		 test	 dl, dl
  0011f	74 6e		 je	 SHORT $LN81@LoadString
  00121	80 f2 ea	 xor	 dl, -22			; ffffffeaH
  00124	88 55 f3	 mov	 BYTE PTR __k$[ebp+15], dl
  00127	8a 50 10	 mov	 dl, BYTE PTR [eax+16]
  0012a	84 d2		 test	 dl, dl
  0012c	74 5b		 je	 SHORT $LN80@LoadString
  0012e	80 f2 ed	 xor	 dl, -19			; ffffffedH
  00131	80 78 11 00	 cmp	 BYTE PTR [eax+17], 0
  00135	88 55 f4	 mov	 BYTE PTR __k$[ebp+16], dl
  00138	0f 84 ac 00 00
	00		 je	 $LN111@LoadString
  0013e	8a 50 12	 mov	 dl, BYTE PTR [eax+18]
  00141	84 d2		 test	 dl, dl
  00143	74 3f		 je	 SHORT $LN78@LoadString
  00145	32 d1		 xor	 dl, cl
  00147	88 55 f6	 mov	 BYTE PTR __k$[ebp+18], dl
  0014a	8a 50 13	 mov	 dl, BYTE PTR [eax+19]
  0014d	84 d2		 test	 dl, dl
  0014f	74 2d		 je	 SHORT $LN77@LoadString
  00151	80 f2 ea	 xor	 dl, -22			; ffffffeaH
  00154	88 55 f7	 mov	 BYTE PTR __k$[ebp+19], dl
  00157	8a 50 14	 mov	 dl, BYTE PTR [eax+20]
  0015a	84 d2		 test	 dl, dl
  0015c	74 1a		 je	 SHORT $LN76@LoadString
  0015e	8a 40 15	 mov	 al, BYTE PTR [eax+21]
  00161	80 f2 ed	 xor	 dl, -19			; ffffffedH
  00164	88 55 f8	 mov	 BYTE PTR __k$[ebp+20], dl
  00167	84 c0		 test	 al, al
  00169	74 07		 je	 SHORT $LN75@LoadString
  0016b	34 ec		 xor	 al, -20			; ffffffecH
  0016d	88 45 f9	 mov	 BYTE PTR __k$[ebp+21], al
  00170	eb 78		 jmp	 SHORT $LN111@LoadString
$LN75@LoadString:
  00172	c6 45 f9 ec	 mov	 BYTE PTR __k$[ebp+21], -20 ; ffffffecH
  00176	eb 72		 jmp	 SHORT $LN111@LoadString
$LN76@LoadString:
  00178	c6 45 f8 ed	 mov	 BYTE PTR __k$[ebp+20], -19 ; ffffffedH
  0017c	eb 6c		 jmp	 SHORT $LN111@LoadString
$LN77@LoadString:
  0017e	c6 45 f7 ea	 mov	 BYTE PTR __k$[ebp+19], -22 ; ffffffeaH
  00182	eb 66		 jmp	 SHORT $LN111@LoadString
$LN78@LoadString:
  00184	88 4d f6	 mov	 BYTE PTR __k$[ebp+18], cl
  00187	eb 61		 jmp	 SHORT $LN111@LoadString
$LN80@LoadString:
  00189	c6 45 f4 ed	 mov	 BYTE PTR __k$[ebp+16], -19 ; ffffffedH
  0018d	eb 5b		 jmp	 SHORT $LN111@LoadString
$LN81@LoadString:
  0018f	c6 45 f3 ea	 mov	 BYTE PTR __k$[ebp+15], -22 ; ffffffeaH
  00193	eb 55		 jmp	 SHORT $LN111@LoadString
$LN82@LoadString:
  00195	88 4d f2	 mov	 BYTE PTR __k$[ebp+14], cl
  00198	eb 50		 jmp	 SHORT $LN111@LoadString
$LN83@LoadString:
  0019a	c6 45 f1 ec	 mov	 BYTE PTR __k$[ebp+13], -20 ; ffffffecH
  0019e	eb 4a		 jmp	 SHORT $LN111@LoadString
$LN84@LoadString:
  001a0	c6 45 f0 ed	 mov	 BYTE PTR __k$[ebp+12], -19 ; ffffffedH
  001a4	eb 44		 jmp	 SHORT $LN111@LoadString
$LN85@LoadString:
  001a6	c6 45 ef ea	 mov	 BYTE PTR __k$[ebp+11], -22 ; ffffffeaH
  001aa	eb 3e		 jmp	 SHORT $LN111@LoadString
$LN86@LoadString:
  001ac	88 4d ee	 mov	 BYTE PTR __k$[ebp+10], cl
  001af	eb 39		 jmp	 SHORT $LN111@LoadString
$LN87@LoadString:
  001b1	c6 45 ed ec	 mov	 BYTE PTR __k$[ebp+9], -20 ; ffffffecH
  001b5	eb 33		 jmp	 SHORT $LN111@LoadString
$LN88@LoadString:
  001b7	c6 45 ec ed	 mov	 BYTE PTR __k$[ebp+8], -19 ; ffffffedH
  001bb	eb 2d		 jmp	 SHORT $LN111@LoadString
$LN89@LoadString:
  001bd	c6 45 eb ea	 mov	 BYTE PTR __k$[ebp+7], -22 ; ffffffeaH
  001c1	eb 27		 jmp	 SHORT $LN111@LoadString
$LN90@LoadString:
  001c3	88 4d ea	 mov	 BYTE PTR __k$[ebp+6], cl
  001c6	eb 22		 jmp	 SHORT $LN111@LoadString
$LN91@LoadString:
  001c8	c6 45 e9 ec	 mov	 BYTE PTR __k$[ebp+5], -20 ; ffffffecH
  001cc	eb 1c		 jmp	 SHORT $LN111@LoadString
$LN92@LoadString:
  001ce	c6 45 e8 ed	 mov	 BYTE PTR __k$[ebp+4], -19 ; ffffffedH
  001d2	eb 16		 jmp	 SHORT $LN111@LoadString
$LN93@LoadString:
  001d4	c6 45 e7 ea	 mov	 BYTE PTR __k$[ebp+3], -22 ; ffffffeaH
  001d8	eb 10		 jmp	 SHORT $LN111@LoadString
$LN94@LoadString:
  001da	c6 45 e6 eb	 mov	 BYTE PTR __k$[ebp+2], -21 ; ffffffebH
  001de	eb 0a		 jmp	 SHORT $LN111@LoadString
$LN95@LoadString:
  001e0	c6 45 e5 ec	 mov	 BYTE PTR __k$[ebp+1], -20 ; ffffffecH
  001e4	eb 04		 jmp	 SHORT $LN111@LoadString
$LN96@LoadString:
  001e6	c6 45 e4 ed	 mov	 BYTE PTR __k$[ebp], -19	; ffffffedH
$LN111@LoadString:
  001ea	6a 04		 push	 4
  001ec	8d 45 e4	 lea	 eax, DWORD PTR __k$[ebp]
  001ef	c6 45 f5 00	 mov	 BYTE PTR __k$[ebp+17], 0
  001f3	5a		 pop	 edx
$LL104@LoadString:
  001f4	81 30 ed ec eb
	ea		 xor	 DWORD PTR [eax], -353637139 ; eaebecedH
  001fa	83 c0 04	 add	 eax, 4
  001fd	4a		 dec	 edx
  001fe	75 f4		 jne	 SHORT $LL104@LoadString

; 163  : 		LoadString(_k, d, b, i);

  00200	ff 75 14	 push	 DWORD PTR _i$[ebp]
  00203	8b 4d e0	 mov	 ecx, DWORD PTR _this$GSCopy$[ebp]
  00206	80 75 f4 ed	 xor	 BYTE PTR __k$[ebp+16], -19 ; ffffffedH
  0020a	57		 push	 edi
  0020b	56		 push	 esi
  0020c	8d 45 e4	 lea	 eax, DWORD PTR __k$[ebp]
  0020f	50		 push	 eax
  00210	ff 15 00 00 00
	00		 call	 DWORD PTR __imp_?LoadStringA@ioINILoader@@QAEXPBD0PADH@Z

; 164  : 	}

  00216	8b 4d fc	 mov	 ecx, DWORD PTR __$ArrayPad$[ebp]
  00219	5f		 pop	 edi
  0021a	33 cd		 xor	 ecx, ebp
  0021c	5e		 pop	 esi
  0021d	e8 00 00 00 00	 call	 @__security_check_cookie@4
  00222	c9		 leave
  00223	c2 10 00	 ret	 16			; 00000010H
??$LoadString_e@$0BC@@ioINILoader@@QAEXAAY0BC@$$CBDAAY00$$CBDPADH@Z ENDP ; ioINILoader::LoadString_e<18>
_TEXT	ENDS
PUBLIC	_this$GSCopy$
PUBLIC	__$ArrayPad$
PUBLIC	??$LoadString_e@$0N@@ioINILoader@@QAEXAAY0N@$$CBDAAY00$$CBDPADH@Z ; ioINILoader::LoadString_e<13>
; Function compile flags: /Ogsp
;	COMDAT ??$LoadString_e@$0N@@ioINILoader@@QAEXAAY0N@$$CBDAAY00$$CBDPADH@Z
_TEXT	SEGMENT
_this$GSCopy$ = -28					; size = 4
__k$ = -24						; size = 13
__$ArrayPad$ = -4					; size = 4
_k$ = 8							; size = 4
_d$ = 12						; size = 4
_b$ = 16						; size = 4
_i$ = 20						; size = 4
??$LoadString_e@$0N@@ioINILoader@@QAEXAAY0N@$$CBDAAY00$$CBDPADH@Z PROC ; ioINILoader::LoadString_e<13>, COMDAT
; _this$ = ecx

; 161  : 	{

  00000	55		 push	 ebp
  00001	8b ec		 mov	 ebp, esp
  00003	83 ec 1c	 sub	 esp, 28			; 0000001cH
  00006	a1 00 00 00 00	 mov	 eax, DWORD PTR ___security_cookie
  0000b	33 c5		 xor	 eax, ebp
  0000d	89 45 fc	 mov	 DWORD PTR __$ArrayPad$[ebp], eax
  00010	8b 45 08	 mov	 eax, DWORD PTR _k$[ebp]

; 162  : 		_ENCSTR(k, _k);

  00013	8a 10		 mov	 dl, BYTE PTR [eax]
  00015	56		 push	 esi
  00016	8b 75 0c	 mov	 esi, DWORD PTR _d$[ebp]
  00019	57		 push	 edi
  0001a	8b 7d 10	 mov	 edi, DWORD PTR _b$[ebp]
  0001d	89 4d e4	 mov	 DWORD PTR _this$GSCopy$[ebp], ecx
  00020	84 d2		 test	 dl, dl
  00022	0f 84 4d 01 00
	00		 je	 $LN96@LoadString@2
  00028	80 f2 ed	 xor	 dl, -19			; ffffffedH
  0002b	88 55 e8	 mov	 BYTE PTR __k$[ebp], dl
  0002e	8a 50 01	 mov	 dl, BYTE PTR [eax+1]
  00031	84 d2		 test	 dl, dl
  00033	0f 84 36 01 00
	00		 je	 $LN95@LoadString@2
  00039	b1 ec		 mov	 cl, -20			; ffffffecH
  0003b	32 d1		 xor	 dl, cl
  0003d	88 55 e9	 mov	 BYTE PTR __k$[ebp+1], dl
  00040	8a 50 02	 mov	 dl, BYTE PTR [eax+2]
  00043	84 d2		 test	 dl, dl
  00045	0f 84 1e 01 00
	00		 je	 $LN94@LoadString@2
  0004b	80 f2 eb	 xor	 dl, -21			; ffffffebH
  0004e	88 55 ea	 mov	 BYTE PTR __k$[ebp+2], dl
  00051	8a 50 03	 mov	 dl, BYTE PTR [eax+3]
  00054	84 d2		 test	 dl, dl
  00056	0f 84 07 01 00
	00		 je	 $LN93@LoadString@2
  0005c	80 f2 ea	 xor	 dl, -22			; ffffffeaH
  0005f	88 55 eb	 mov	 BYTE PTR __k$[ebp+3], dl
  00062	8a 50 04	 mov	 dl, BYTE PTR [eax+4]
  00065	84 d2		 test	 dl, dl
  00067	0f 84 f0 00 00
	00		 je	 $LN92@LoadString@2
  0006d	80 f2 ed	 xor	 dl, -19			; ffffffedH
  00070	88 55 ec	 mov	 BYTE PTR __k$[ebp+4], dl
  00073	8a 50 05	 mov	 dl, BYTE PTR [eax+5]
  00076	84 d2		 test	 dl, dl
  00078	0f 84 da 00 00
	00		 je	 $LN91@LoadString@2
  0007e	32 d1		 xor	 dl, cl
  00080	88 55 ed	 mov	 BYTE PTR __k$[ebp+5], dl
  00083	8a 50 06	 mov	 dl, BYTE PTR [eax+6]
  00086	84 d2		 test	 dl, dl
  00088	0f 84 c4 00 00
	00		 je	 $LN90@LoadString@2
  0008e	80 f2 eb	 xor	 dl, -21			; ffffffebH
  00091	88 55 ee	 mov	 BYTE PTR __k$[ebp+6], dl
  00094	8a 50 07	 mov	 dl, BYTE PTR [eax+7]
  00097	84 d2		 test	 dl, dl
  00099	0f 84 ad 00 00
	00		 je	 $LN89@LoadString@2
  0009f	80 f2 ea	 xor	 dl, -22			; ffffffeaH
  000a2	88 55 ef	 mov	 BYTE PTR __k$[ebp+7], dl
  000a5	8a 50 08	 mov	 dl, BYTE PTR [eax+8]
  000a8	84 d2		 test	 dl, dl
  000aa	0f 84 96 00 00
	00		 je	 $LN88@LoadString@2
  000b0	80 f2 ed	 xor	 dl, -19			; ffffffedH
  000b3	88 55 f0	 mov	 BYTE PTR __k$[ebp+8], dl
  000b6	8a 50 09	 mov	 dl, BYTE PTR [eax+9]
  000b9	84 d2		 test	 dl, dl
  000bb	0f 84 80 00 00
	00		 je	 $LN87@LoadString@2
  000c1	32 d1		 xor	 dl, cl
  000c3	88 55 f1	 mov	 BYTE PTR __k$[ebp+9], dl
  000c6	8a 50 0a	 mov	 dl, BYTE PTR [eax+10]
  000c9	84 d2		 test	 dl, dl
  000cb	74 6e		 je	 SHORT $LN86@LoadString@2
  000cd	80 f2 eb	 xor	 dl, -21			; ffffffebH
  000d0	88 55 f2	 mov	 BYTE PTR __k$[ebp+10], dl
  000d3	8a 50 0b	 mov	 dl, BYTE PTR [eax+11]
  000d6	84 d2		 test	 dl, dl
  000d8	74 5b		 je	 SHORT $LN85@LoadString@2
  000da	80 f2 ea	 xor	 dl, -22			; ffffffeaH
  000dd	80 78 0c 00	 cmp	 BYTE PTR [eax+12], 0
  000e1	88 55 f3	 mov	 BYTE PTR __k$[ebp+11], dl
  000e4	0f 84 8f 00 00
	00		 je	 $LN111@LoadString@2
  000ea	8a 50 0d	 mov	 dl, BYTE PTR [eax+13]
  000ed	84 d2		 test	 dl, dl
  000ef	74 3f		 je	 SHORT $LN83@LoadString@2
  000f1	32 d1		 xor	 dl, cl
  000f3	88 55 f5	 mov	 BYTE PTR __k$[ebp+13], dl
  000f6	8a 50 0e	 mov	 dl, BYTE PTR [eax+14]
  000f9	84 d2		 test	 dl, dl
  000fb	74 2d		 je	 SHORT $LN82@LoadString@2
  000fd	80 f2 eb	 xor	 dl, -21			; ffffffebH
  00100	88 55 f6	 mov	 BYTE PTR __k$[ebp+14], dl
  00103	8a 50 0f	 mov	 dl, BYTE PTR [eax+15]
  00106	84 d2		 test	 dl, dl
  00108	74 1a		 je	 SHORT $LN81@LoadString@2
  0010a	8a 40 10	 mov	 al, BYTE PTR [eax+16]
  0010d	80 f2 ea	 xor	 dl, -22			; ffffffeaH
  00110	88 55 f7	 mov	 BYTE PTR __k$[ebp+15], dl
  00113	84 c0		 test	 al, al
  00115	74 07		 je	 SHORT $LN80@LoadString@2
  00117	34 ed		 xor	 al, -19			; ffffffedH
  00119	88 45 f8	 mov	 BYTE PTR __k$[ebp+16], al
  0011c	eb 5b		 jmp	 SHORT $LN111@LoadString@2
$LN80@LoadString@2:
  0011e	c6 45 f8 ed	 mov	 BYTE PTR __k$[ebp+16], -19 ; ffffffedH
  00122	eb 55		 jmp	 SHORT $LN111@LoadString@2
$LN81@LoadString@2:
  00124	c6 45 f7 ea	 mov	 BYTE PTR __k$[ebp+15], -22 ; ffffffeaH
  00128	eb 4f		 jmp	 SHORT $LN111@LoadString@2
$LN82@LoadString@2:
  0012a	c6 45 f6 eb	 mov	 BYTE PTR __k$[ebp+14], -21 ; ffffffebH
  0012e	eb 49		 jmp	 SHORT $LN111@LoadString@2
$LN83@LoadString@2:
  00130	88 4d f5	 mov	 BYTE PTR __k$[ebp+13], cl
  00133	eb 44		 jmp	 SHORT $LN111@LoadString@2
$LN85@LoadString@2:
  00135	c6 45 f3 ea	 mov	 BYTE PTR __k$[ebp+11], -22 ; ffffffeaH
  00139	eb 3e		 jmp	 SHORT $LN111@LoadString@2
$LN86@LoadString@2:
  0013b	c6 45 f2 eb	 mov	 BYTE PTR __k$[ebp+10], -21 ; ffffffebH
  0013f	eb 38		 jmp	 SHORT $LN111@LoadString@2
$LN87@LoadString@2:
  00141	88 4d f1	 mov	 BYTE PTR __k$[ebp+9], cl
  00144	eb 33		 jmp	 SHORT $LN111@LoadString@2
$LN88@LoadString@2:
  00146	c6 45 f0 ed	 mov	 BYTE PTR __k$[ebp+8], -19 ; ffffffedH
  0014a	eb 2d		 jmp	 SHORT $LN111@LoadString@2
$LN89@LoadString@2:
  0014c	c6 45 ef ea	 mov	 BYTE PTR __k$[ebp+7], -22 ; ffffffeaH
  00150	eb 27		 jmp	 SHORT $LN111@LoadString@2
$LN90@LoadString@2:
  00152	c6 45 ee eb	 mov	 BYTE PTR __k$[ebp+6], -21 ; ffffffebH
  00156	eb 21		 jmp	 SHORT $LN111@LoadString@2
$LN91@LoadString@2:
  00158	88 4d ed	 mov	 BYTE PTR __k$[ebp+5], cl
  0015b	eb 1c		 jmp	 SHORT $LN111@LoadString@2
$LN92@LoadString@2:
  0015d	c6 45 ec ed	 mov	 BYTE PTR __k$[ebp+4], -19 ; ffffffedH
  00161	eb 16		 jmp	 SHORT $LN111@LoadString@2
$LN93@LoadString@2:
  00163	c6 45 eb ea	 mov	 BYTE PTR __k$[ebp+3], -22 ; ffffffeaH
  00167	eb 10		 jmp	 SHORT $LN111@LoadString@2
$LN94@LoadString@2:
  00169	c6 45 ea eb	 mov	 BYTE PTR __k$[ebp+2], -21 ; ffffffebH
  0016d	eb 0a		 jmp	 SHORT $LN111@LoadString@2
$LN95@LoadString@2:
  0016f	c6 45 e9 ec	 mov	 BYTE PTR __k$[ebp+1], -20 ; ffffffecH
  00173	eb 04		 jmp	 SHORT $LN111@LoadString@2
$LN96@LoadString@2:
  00175	c6 45 e8 ed	 mov	 BYTE PTR __k$[ebp], -19	; ffffffedH
$LN111@LoadString@2:
  00179	6a 03		 push	 3
  0017b	8d 45 e8	 lea	 eax, DWORD PTR __k$[ebp]
  0017e	c6 45 f4 00	 mov	 BYTE PTR __k$[ebp+12], 0
  00182	5a		 pop	 edx
$LL104@LoadString@2:
  00183	81 30 ed ec eb
	ea		 xor	 DWORD PTR [eax], -353637139 ; eaebecedH
  00189	83 c0 04	 add	 eax, 4
  0018c	4a		 dec	 edx
  0018d	75 f4		 jne	 SHORT $LL104@LoadString@2

; 163  : 		LoadString(_k, d, b, i);

  0018f	ff 75 14	 push	 DWORD PTR _i$[ebp]
  00192	8b 4d e4	 mov	 ecx, DWORD PTR _this$GSCopy$[ebp]
  00195	57		 push	 edi
  00196	56		 push	 esi
  00197	8d 45 e8	 lea	 eax, DWORD PTR __k$[ebp]
  0019a	50		 push	 eax
  0019b	ff 15 00 00 00
	00		 call	 DWORD PTR __imp_?LoadStringA@ioINILoader@@QAEXPBD0PADH@Z

; 164  : 	}

  001a1	8b 4d fc	 mov	 ecx, DWORD PTR __$ArrayPad$[ebp]
  001a4	5f		 pop	 edi
  001a5	33 cd		 xor	 ecx, ebp
  001a7	5e		 pop	 esi
  001a8	e8 00 00 00 00	 call	 @__security_check_cookie@4
  001ad	c9		 leave
  001ae	c2 10 00	 ret	 16			; 00000010H
??$LoadString_e@$0N@@ioINILoader@@QAEXAAY0N@$$CBDAAY00$$CBDPADH@Z ENDP ; ioINILoader::LoadString_e<13>
_TEXT	ENDS
PUBLIC	_this$GSCopy$
PUBLIC	__$ArrayPad$
PUBLIC	??$LoadString_e@$0O@@ioINILoader@@QAEXAAY0O@$$CBDAAY00$$CBDPADH@Z ; ioINILoader::LoadString_e<14>
; Function compile flags: /Ogsp
;	COMDAT ??$LoadString_e@$0O@@ioINILoader@@QAEXAAY0O@$$CBDAAY00$$CBDPADH@Z
_TEXT	SEGMENT
_this$GSCopy$ = -28					; size = 4
__k$ = -24						; size = 14
__$ArrayPad$ = -4					; size = 4
_k$ = 8							; size = 4
_d$ = 12						; size = 4
_b$ = 16						; size = 4
_i$ = 20						; size = 4
??$LoadString_e@$0O@@ioINILoader@@QAEXAAY0O@$$CBDAAY00$$CBDPADH@Z PROC ; ioINILoader::LoadString_e<14>, COMDAT
; _this$ = ecx

; 161  : 	{

  00000	55		 push	 ebp
  00001	8b ec		 mov	 ebp, esp
  00003	83 ec 1c	 sub	 esp, 28			; 0000001cH
  00006	a1 00 00 00 00	 mov	 eax, DWORD PTR ___security_cookie
  0000b	33 c5		 xor	 eax, ebp
  0000d	89 45 fc	 mov	 DWORD PTR __$ArrayPad$[ebp], eax
  00010	8b 45 08	 mov	 eax, DWORD PTR _k$[ebp]

; 162  : 		_ENCSTR(k, _k);

  00013	8a 10		 mov	 dl, BYTE PTR [eax]
  00015	56		 push	 esi
  00016	8b 75 0c	 mov	 esi, DWORD PTR _d$[ebp]
  00019	57		 push	 edi
  0001a	8b 7d 10	 mov	 edi, DWORD PTR _b$[ebp]
  0001d	89 4d e4	 mov	 DWORD PTR _this$GSCopy$[ebp], ecx
  00020	84 d2		 test	 dl, dl
  00022	0f 84 64 01 00
	00		 je	 $LN96@LoadString@3
  00028	80 f2 ed	 xor	 dl, -19			; ffffffedH
  0002b	88 55 e8	 mov	 BYTE PTR __k$[ebp], dl
  0002e	8a 50 01	 mov	 dl, BYTE PTR [eax+1]
  00031	84 d2		 test	 dl, dl
  00033	0f 84 4d 01 00
	00		 je	 $LN95@LoadString@3
  00039	80 f2 ec	 xor	 dl, -20			; ffffffecH
  0003c	88 55 e9	 mov	 BYTE PTR __k$[ebp+1], dl
  0003f	8a 50 02	 mov	 dl, BYTE PTR [eax+2]
  00042	84 d2		 test	 dl, dl
  00044	0f 84 36 01 00
	00		 je	 $LN94@LoadString@3
  0004a	b1 eb		 mov	 cl, -21			; ffffffebH
  0004c	32 d1		 xor	 dl, cl
  0004e	88 55 ea	 mov	 BYTE PTR __k$[ebp+2], dl
  00051	8a 50 03	 mov	 dl, BYTE PTR [eax+3]
  00054	84 d2		 test	 dl, dl
  00056	0f 84 1e 01 00
	00		 je	 $LN93@LoadString@3
  0005c	80 f2 ea	 xor	 dl, -22			; ffffffeaH
  0005f	88 55 eb	 mov	 BYTE PTR __k$[ebp+3], dl
  00062	8a 50 04	 mov	 dl, BYTE PTR [eax+4]
  00065	84 d2		 test	 dl, dl
  00067	0f 84 07 01 00
	00		 je	 $LN92@LoadString@3
  0006d	80 f2 ed	 xor	 dl, -19			; ffffffedH
  00070	88 55 ec	 mov	 BYTE PTR __k$[ebp+4], dl
  00073	8a 50 05	 mov	 dl, BYTE PTR [eax+5]
  00076	84 d2		 test	 dl, dl
  00078	0f 84 f0 00 00
	00		 je	 $LN91@LoadString@3
  0007e	80 f2 ec	 xor	 dl, -20			; ffffffecH
  00081	88 55 ed	 mov	 BYTE PTR __k$[ebp+5], dl
  00084	8a 50 06	 mov	 dl, BYTE PTR [eax+6]
  00087	84 d2		 test	 dl, dl
  00089	0f 84 da 00 00
	00		 je	 $LN90@LoadString@3
  0008f	32 d1		 xor	 dl, cl
  00091	88 55 ee	 mov	 BYTE PTR __k$[ebp+6], dl
  00094	8a 50 07	 mov	 dl, BYTE PTR [eax+7]
  00097	84 d2		 test	 dl, dl
  00099	0f 84 c4 00 00
	00		 je	 $LN89@LoadString@3
  0009f	80 f2 ea	 xor	 dl, -22			; ffffffeaH
  000a2	88 55 ef	 mov	 BYTE PTR __k$[ebp+7], dl
  000a5	8a 50 08	 mov	 dl, BYTE PTR [eax+8]
  000a8	84 d2		 test	 dl, dl
  000aa	0f 84 ad 00 00
	00		 je	 $LN88@LoadString@3
  000b0	80 f2 ed	 xor	 dl, -19			; ffffffedH
  000b3	88 55 f0	 mov	 BYTE PTR __k$[ebp+8], dl
  000b6	8a 50 09	 mov	 dl, BYTE PTR [eax+9]
  000b9	84 d2		 test	 dl, dl
  000bb	0f 84 96 00 00
	00		 je	 $LN87@LoadString@3
  000c1	80 f2 ec	 xor	 dl, -20			; ffffffecH
  000c4	88 55 f1	 mov	 BYTE PTR __k$[ebp+9], dl
  000c7	8a 50 0a	 mov	 dl, BYTE PTR [eax+10]
  000ca	84 d2		 test	 dl, dl
  000cc	0f 84 80 00 00
	00		 je	 $LN86@LoadString@3
  000d2	32 d1		 xor	 dl, cl
  000d4	88 55 f2	 mov	 BYTE PTR __k$[ebp+10], dl
  000d7	8a 50 0b	 mov	 dl, BYTE PTR [eax+11]
  000da	84 d2		 test	 dl, dl
  000dc	74 6e		 je	 SHORT $LN85@LoadString@3
  000de	80 f2 ea	 xor	 dl, -22			; ffffffeaH
  000e1	88 55 f3	 mov	 BYTE PTR __k$[ebp+11], dl
  000e4	8a 50 0c	 mov	 dl, BYTE PTR [eax+12]
  000e7	84 d2		 test	 dl, dl
  000e9	74 5b		 je	 SHORT $LN84@LoadString@3
  000eb	80 f2 ed	 xor	 dl, -19			; ffffffedH
  000ee	80 78 0d 00	 cmp	 BYTE PTR [eax+13], 0
  000f2	88 55 f4	 mov	 BYTE PTR __k$[ebp+12], dl
  000f5	0f 84 95 00 00
	00		 je	 $LN111@LoadString@3
  000fb	8a 50 0e	 mov	 dl, BYTE PTR [eax+14]
  000fe	84 d2		 test	 dl, dl
  00100	74 3f		 je	 SHORT $LN82@LoadString@3
  00102	32 d1		 xor	 dl, cl
  00104	88 55 f6	 mov	 BYTE PTR __k$[ebp+14], dl
  00107	8a 50 0f	 mov	 dl, BYTE PTR [eax+15]
  0010a	84 d2		 test	 dl, dl
  0010c	74 2d		 je	 SHORT $LN81@LoadString@3
  0010e	80 f2 ea	 xor	 dl, -22			; ffffffeaH
  00111	88 55 f7	 mov	 BYTE PTR __k$[ebp+15], dl
  00114	8a 50 10	 mov	 dl, BYTE PTR [eax+16]
  00117	84 d2		 test	 dl, dl
  00119	74 1a		 je	 SHORT $LN80@LoadString@3
  0011b	8a 40 11	 mov	 al, BYTE PTR [eax+17]
  0011e	80 f2 ed	 xor	 dl, -19			; ffffffedH
  00121	88 55 f8	 mov	 BYTE PTR __k$[ebp+16], dl
  00124	84 c0		 test	 al, al
  00126	74 07		 je	 SHORT $LN79@LoadString@3
  00128	34 ec		 xor	 al, -20			; ffffffecH
  0012a	88 45 f9	 mov	 BYTE PTR __k$[ebp+17], al
  0012d	eb 61		 jmp	 SHORT $LN111@LoadString@3
$LN79@LoadString@3:
  0012f	c6 45 f9 ec	 mov	 BYTE PTR __k$[ebp+17], -20 ; ffffffecH
  00133	eb 5b		 jmp	 SHORT $LN111@LoadString@3
$LN80@LoadString@3:
  00135	c6 45 f8 ed	 mov	 BYTE PTR __k$[ebp+16], -19 ; ffffffedH
  00139	eb 55		 jmp	 SHORT $LN111@LoadString@3
$LN81@LoadString@3:
  0013b	c6 45 f7 ea	 mov	 BYTE PTR __k$[ebp+15], -22 ; ffffffeaH
  0013f	eb 4f		 jmp	 SHORT $LN111@LoadString@3
$LN82@LoadString@3:
  00141	88 4d f6	 mov	 BYTE PTR __k$[ebp+14], cl
  00144	eb 4a		 jmp	 SHORT $LN111@LoadString@3
$LN84@LoadString@3:
  00146	c6 45 f4 ed	 mov	 BYTE PTR __k$[ebp+12], -19 ; ffffffedH
  0014a	eb 44		 jmp	 SHORT $LN111@LoadString@3
$LN85@LoadString@3:
  0014c	c6 45 f3 ea	 mov	 BYTE PTR __k$[ebp+11], -22 ; ffffffeaH
  00150	eb 3e		 jmp	 SHORT $LN111@LoadString@3
$LN86@LoadString@3:
  00152	88 4d f2	 mov	 BYTE PTR __k$[ebp+10], cl
  00155	eb 39		 jmp	 SHORT $LN111@LoadString@3
$LN87@LoadString@3:
  00157	c6 45 f1 ec	 mov	 BYTE PTR __k$[ebp+9], -20 ; ffffffecH
  0015b	eb 33		 jmp	 SHORT $LN111@LoadString@3
$LN88@LoadString@3:
  0015d	c6 45 f0 ed	 mov	 BYTE PTR __k$[ebp+8], -19 ; ffffffedH
  00161	eb 2d		 jmp	 SHORT $LN111@LoadString@3
$LN89@LoadString@3:
  00163	c6 45 ef ea	 mov	 BYTE PTR __k$[ebp+7], -22 ; ffffffeaH
  00167	eb 27		 jmp	 SHORT $LN111@LoadString@3
$LN90@LoadString@3:
  00169	88 4d ee	 mov	 BYTE PTR __k$[ebp+6], cl
  0016c	eb 22		 jmp	 SHORT $LN111@LoadString@3
$LN91@LoadString@3:
  0016e	c6 45 ed ec	 mov	 BYTE PTR __k$[ebp+5], -20 ; ffffffecH
  00172	eb 1c		 jmp	 SHORT $LN111@LoadString@3
$LN92@LoadString@3:
  00174	c6 45 ec ed	 mov	 BYTE PTR __k$[ebp+4], -19 ; ffffffedH
  00178	eb 16		 jmp	 SHORT $LN111@LoadString@3
$LN93@LoadString@3:
  0017a	c6 45 eb ea	 mov	 BYTE PTR __k$[ebp+3], -22 ; ffffffeaH
  0017e	eb 10		 jmp	 SHORT $LN111@LoadString@3
$LN94@LoadString@3:
  00180	c6 45 ea eb	 mov	 BYTE PTR __k$[ebp+2], -21 ; ffffffebH
  00184	eb 0a		 jmp	 SHORT $LN111@LoadString@3
$LN95@LoadString@3:
  00186	c6 45 e9 ec	 mov	 BYTE PTR __k$[ebp+1], -20 ; ffffffecH
  0018a	eb 04		 jmp	 SHORT $LN111@LoadString@3
$LN96@LoadString@3:
  0018c	c6 45 e8 ed	 mov	 BYTE PTR __k$[ebp], -19	; ffffffedH
$LN111@LoadString@3:
  00190	6a 03		 push	 3
  00192	8d 45 e8	 lea	 eax, DWORD PTR __k$[ebp]
  00195	c6 45 f5 00	 mov	 BYTE PTR __k$[ebp+13], 0
  00199	5a		 pop	 edx
$LL104@LoadString@3:
  0019a	81 30 ed ec eb
	ea		 xor	 DWORD PTR [eax], -353637139 ; eaebecedH
  001a0	83 c0 04	 add	 eax, 4
  001a3	4a		 dec	 edx
  001a4	75 f4		 jne	 SHORT $LL104@LoadString@3

; 163  : 		LoadString(_k, d, b, i);

  001a6	ff 75 14	 push	 DWORD PTR _i$[ebp]
  001a9	8b 4d e4	 mov	 ecx, DWORD PTR _this$GSCopy$[ebp]
  001ac	80 75 f4 ed	 xor	 BYTE PTR __k$[ebp+12], -19 ; ffffffedH
  001b0	57		 push	 edi
  001b1	56		 push	 esi
  001b2	8d 45 e8	 lea	 eax, DWORD PTR __k$[ebp]
  001b5	50		 push	 eax
  001b6	ff 15 00 00 00
	00		 call	 DWORD PTR __imp_?LoadStringA@ioINILoader@@QAEXPBD0PADH@Z

; 164  : 	}

  001bc	8b 4d fc	 mov	 ecx, DWORD PTR __$ArrayPad$[ebp]
  001bf	5f		 pop	 edi
  001c0	33 cd		 xor	 ecx, ebp
  001c2	5e		 pop	 esi
  001c3	e8 00 00 00 00	 call	 @__security_check_cookie@4
  001c8	c9		 leave
  001c9	c2 10 00	 ret	 16			; 00000010H
??$LoadString_e@$0O@@ioINILoader@@QAEXAAY0O@$$CBDAAY00$$CBDPADH@Z ENDP ; ioINILoader::LoadString_e<14>
_TEXT	ENDS
PUBLIC	__$ArrayPad$
PUBLIC	??$LoadString_e@$0L@@ioINILoader@@QAEXAAY0L@$$CBDAAY00$$CBDPADH@Z ; ioINILoader::LoadString_e<11>
; Function compile flags: /Ogsp
;	COMDAT ??$LoadString_e@$0L@@ioINILoader@@QAEXAAY0L@$$CBDAAY00$$CBDPADH@Z
_TEXT	SEGMENT
__k$ = -20						; size = 11
__$ArrayPad$ = -4					; size = 4
_k$ = 8							; size = 4
_d$ = 12						; size = 4
_b$ = 16						; size = 4
_i$ = 20						; size = 4
??$LoadString_e@$0L@@ioINILoader@@QAEXAAY0L@$$CBDAAY00$$CBDPADH@Z PROC ; ioINILoader::LoadString_e<11>, COMDAT
; _this$ = ecx

; 161  : 	{

  00000	55		 push	 ebp
  00001	8b ec		 mov	 ebp, esp
  00003	83 ec 14	 sub	 esp, 20			; 00000014H
  00006	a1 00 00 00 00	 mov	 eax, DWORD PTR ___security_cookie
  0000b	33 c5		 xor	 eax, ebp
  0000d	89 45 fc	 mov	 DWORD PTR __$ArrayPad$[ebp], eax
  00010	8b 45 08	 mov	 eax, DWORD PTR _k$[ebp]

; 162  : 		_ENCSTR(k, _k);

  00013	8a 10		 mov	 dl, BYTE PTR [eax]
  00015	53		 push	 ebx
  00016	56		 push	 esi
  00017	8b 75 0c	 mov	 esi, DWORD PTR _d$[ebp]
  0001a	57		 push	 edi
  0001b	8b 7d 10	 mov	 edi, DWORD PTR _b$[ebp]
  0001e	84 d2		 test	 dl, dl
  00020	0f 84 1b 01 00
	00		 je	 $LN96@LoadString@4
  00026	80 f2 ed	 xor	 dl, -19			; ffffffedH
  00029	88 55 ec	 mov	 BYTE PTR __k$[ebp], dl
  0002c	8a 50 01	 mov	 dl, BYTE PTR [eax+1]
  0002f	84 d2		 test	 dl, dl
  00031	0f 84 04 01 00
	00		 je	 $LN95@LoadString@4
  00037	b3 ec		 mov	 bl, -20			; ffffffecH
  00039	32 d3		 xor	 dl, bl
  0003b	88 55 ed	 mov	 BYTE PTR __k$[ebp+1], dl
  0003e	8a 50 02	 mov	 dl, BYTE PTR [eax+2]
  00041	84 d2		 test	 dl, dl
  00043	0f 84 ec 00 00
	00		 je	 $LN94@LoadString@4
  00049	80 f2 eb	 xor	 dl, -21			; ffffffebH
  0004c	88 55 ee	 mov	 BYTE PTR __k$[ebp+2], dl
  0004f	8a 50 03	 mov	 dl, BYTE PTR [eax+3]
  00052	84 d2		 test	 dl, dl
  00054	0f 84 d5 00 00
	00		 je	 $LN93@LoadString@4
  0005a	80 f2 ea	 xor	 dl, -22			; ffffffeaH
  0005d	88 55 ef	 mov	 BYTE PTR __k$[ebp+3], dl
  00060	8a 50 04	 mov	 dl, BYTE PTR [eax+4]
  00063	84 d2		 test	 dl, dl
  00065	0f 84 be 00 00
	00		 je	 $LN92@LoadString@4
  0006b	80 f2 ed	 xor	 dl, -19			; ffffffedH
  0006e	88 55 f0	 mov	 BYTE PTR __k$[ebp+4], dl
  00071	8a 50 05	 mov	 dl, BYTE PTR [eax+5]
  00074	84 d2		 test	 dl, dl
  00076	0f 84 a8 00 00
	00		 je	 $LN91@LoadString@4
  0007c	32 d3		 xor	 dl, bl
  0007e	88 55 f1	 mov	 BYTE PTR __k$[ebp+5], dl
  00081	8a 50 06	 mov	 dl, BYTE PTR [eax+6]
  00084	84 d2		 test	 dl, dl
  00086	0f 84 92 00 00
	00		 je	 $LN90@LoadString@4
  0008c	80 f2 eb	 xor	 dl, -21			; ffffffebH
  0008f	88 55 f2	 mov	 BYTE PTR __k$[ebp+6], dl
  00092	8a 50 07	 mov	 dl, BYTE PTR [eax+7]
  00095	84 d2		 test	 dl, dl
  00097	74 7f		 je	 SHORT $LN89@LoadString@4
  00099	80 f2 ea	 xor	 dl, -22			; ffffffeaH
  0009c	88 55 f3	 mov	 BYTE PTR __k$[ebp+7], dl
  0009f	8a 50 08	 mov	 dl, BYTE PTR [eax+8]
  000a2	84 d2		 test	 dl, dl
  000a4	74 6c		 je	 SHORT $LN88@LoadString@4
  000a6	80 f2 ed	 xor	 dl, -19			; ffffffedH
  000a9	88 55 f4	 mov	 BYTE PTR __k$[ebp+8], dl
  000ac	8a 50 09	 mov	 dl, BYTE PTR [eax+9]
  000af	84 d2		 test	 dl, dl
  000b1	74 5a		 je	 SHORT $LN87@LoadString@4
  000b3	32 d3		 xor	 dl, bl
  000b5	80 78 0a 00	 cmp	 BYTE PTR [eax+10], 0
  000b9	88 55 f5	 mov	 BYTE PTR __k$[ebp+9], dl
  000bc	0f 84 83 00 00
	00		 je	 $LN1@LoadString@4
  000c2	8a 50 0b	 mov	 dl, BYTE PTR [eax+11]
  000c5	84 d2		 test	 dl, dl
  000c7	74 3e		 je	 SHORT $LN85@LoadString@4
  000c9	80 f2 ea	 xor	 dl, -22			; ffffffeaH
  000cc	88 55 f7	 mov	 BYTE PTR __k$[ebp+11], dl
  000cf	8a 50 0c	 mov	 dl, BYTE PTR [eax+12]
  000d2	84 d2		 test	 dl, dl
  000d4	74 2b		 je	 SHORT $LN84@LoadString@4
  000d6	80 f2 ed	 xor	 dl, -19			; ffffffedH
  000d9	88 55 f8	 mov	 BYTE PTR __k$[ebp+12], dl
  000dc	8a 50 0d	 mov	 dl, BYTE PTR [eax+13]
  000df	84 d2		 test	 dl, dl
  000e1	74 19		 je	 SHORT $LN83@LoadString@4
  000e3	8a 40 0e	 mov	 al, BYTE PTR [eax+14]
  000e6	32 d3		 xor	 dl, bl
  000e8	88 55 f9	 mov	 BYTE PTR __k$[ebp+13], dl
  000eb	84 c0		 test	 al, al
  000ed	74 07		 je	 SHORT $LN82@LoadString@4
  000ef	34 eb		 xor	 al, -21			; ffffffebH
  000f1	88 45 fa	 mov	 BYTE PTR __k$[ebp+14], al
  000f4	eb 4f		 jmp	 SHORT $LN1@LoadString@4
$LN82@LoadString@4:
  000f6	c6 45 fa eb	 mov	 BYTE PTR __k$[ebp+14], -21 ; ffffffebH
  000fa	eb 49		 jmp	 SHORT $LN1@LoadString@4
$LN83@LoadString@4:
  000fc	88 5d f9	 mov	 BYTE PTR __k$[ebp+13], bl
  000ff	eb 44		 jmp	 SHORT $LN1@LoadString@4
$LN84@LoadString@4:
  00101	c6 45 f8 ed	 mov	 BYTE PTR __k$[ebp+12], -19 ; ffffffedH
  00105	eb 3e		 jmp	 SHORT $LN1@LoadString@4
$LN85@LoadString@4:
  00107	c6 45 f7 ea	 mov	 BYTE PTR __k$[ebp+11], -22 ; ffffffeaH
  0010b	eb 38		 jmp	 SHORT $LN1@LoadString@4
$LN87@LoadString@4:
  0010d	88 5d f5	 mov	 BYTE PTR __k$[ebp+9], bl
  00110	eb 33		 jmp	 SHORT $LN1@LoadString@4
$LN88@LoadString@4:
  00112	c6 45 f4 ed	 mov	 BYTE PTR __k$[ebp+8], -19 ; ffffffedH
  00116	eb 2d		 jmp	 SHORT $LN1@LoadString@4
$LN89@LoadString@4:
  00118	c6 45 f3 ea	 mov	 BYTE PTR __k$[ebp+7], -22 ; ffffffeaH
  0011c	eb 27		 jmp	 SHORT $LN1@LoadString@4
$LN90@LoadString@4:
  0011e	c6 45 f2 eb	 mov	 BYTE PTR __k$[ebp+6], -21 ; ffffffebH
  00122	eb 21		 jmp	 SHORT $LN1@LoadString@4
$LN91@LoadString@4:
  00124	88 5d f1	 mov	 BYTE PTR __k$[ebp+5], bl
  00127	eb 1c		 jmp	 SHORT $LN1@LoadString@4
$LN92@LoadString@4:
  00129	c6 45 f0 ed	 mov	 BYTE PTR __k$[ebp+4], -19 ; ffffffedH
  0012d	eb 16		 jmp	 SHORT $LN1@LoadString@4
$LN93@LoadString@4:
  0012f	c6 45 ef ea	 mov	 BYTE PTR __k$[ebp+3], -22 ; ffffffeaH
  00133	eb 10		 jmp	 SHORT $LN1@LoadString@4
$LN94@LoadString@4:
  00135	c6 45 ee eb	 mov	 BYTE PTR __k$[ebp+2], -21 ; ffffffebH
  00139	eb 0a		 jmp	 SHORT $LN1@LoadString@4
$LN95@LoadString@4:
  0013b	c6 45 ed ec	 mov	 BYTE PTR __k$[ebp+1], -20 ; ffffffecH
  0013f	eb 04		 jmp	 SHORT $LN1@LoadString@4
$LN96@LoadString@4:
  00141	c6 45 ec ed	 mov	 BYTE PTR __k$[ebp], -19	; ffffffedH
$LN1@LoadString@4:
  00145	6a 02		 push	 2
  00147	8d 45 ec	 lea	 eax, DWORD PTR __k$[ebp]
  0014a	c6 45 f6 00	 mov	 BYTE PTR __k$[ebp+10], 0
  0014e	5a		 pop	 edx
$LL104@LoadString@4:
  0014f	81 30 ed ec eb
	ea		 xor	 DWORD PTR [eax], -353637139 ; eaebecedH
  00155	83 c0 04	 add	 eax, 4
  00158	4a		 dec	 edx
  00159	75 f4		 jne	 SHORT $LL104@LoadString@4
  0015b	6a 08		 push	 8
  0015d	58		 pop	 eax
$LL101@LoadString@4:
  0015e	8b d0		 mov	 edx, eax
  00160	81 e2 03 00 00
	80		 and	 edx, -2147483645	; 80000003H
  00166	79 05		 jns	 SHORT $LN111@LoadString@4
  00168	4a		 dec	 edx
  00169	83 ca fc	 or	 edx, -4			; fffffffcH
  0016c	42		 inc	 edx
$LN111@LoadString@4:
  0016d	b3 ed		 mov	 bl, -19			; ffffffedH
  0016f	2a da		 sub	 bl, dl
  00171	30 5c 05 ec	 xor	 BYTE PTR __k$[ebp+eax], bl
  00175	40		 inc	 eax
  00176	83 f8 0a	 cmp	 eax, 10			; 0000000aH
  00179	7c e3		 jl	 SHORT $LL101@LoadString@4

; 163  : 		LoadString(_k, d, b, i);

  0017b	ff 75 14	 push	 DWORD PTR _i$[ebp]
  0017e	8d 45 ec	 lea	 eax, DWORD PTR __k$[ebp]
  00181	57		 push	 edi
  00182	56		 push	 esi
  00183	50		 push	 eax
  00184	ff 15 00 00 00
	00		 call	 DWORD PTR __imp_?LoadStringA@ioINILoader@@QAEXPBD0PADH@Z

; 164  : 	}

  0018a	8b 4d fc	 mov	 ecx, DWORD PTR __$ArrayPad$[ebp]
  0018d	5f		 pop	 edi
  0018e	5e		 pop	 esi
  0018f	33 cd		 xor	 ecx, ebp
  00191	5b		 pop	 ebx
  00192	e8 00 00 00 00	 call	 @__security_check_cookie@4
  00197	c9		 leave
  00198	c2 10 00	 ret	 16			; 00000010H
??$LoadString_e@$0L@@ioINILoader@@QAEXAAY0L@$$CBDAAY00$$CBDPADH@Z ENDP ; ioINILoader::LoadString_e<11>
_TEXT	ENDS
PUBLIC	_this$GSCopy$
PUBLIC	__$ArrayPad$
PUBLIC	??$LoadString_e@$0M@@ioINILoader@@QAEXAAY0M@$$CBDAAY00$$CBDPADH@Z ; ioINILoader::LoadString_e<12>
; Function compile flags: /Ogsp
;	COMDAT ??$LoadString_e@$0M@@ioINILoader@@QAEXAAY0M@$$CBDAAY00$$CBDPADH@Z
_TEXT	SEGMENT
_this$GSCopy$ = -24					; size = 4
__k$ = -20						; size = 12
__$ArrayPad$ = -4					; size = 4
_k$ = 8							; size = 4
_d$ = 12						; size = 4
_b$ = 16						; size = 4
_i$ = 20						; size = 4
??$LoadString_e@$0M@@ioINILoader@@QAEXAAY0M@$$CBDAAY00$$CBDPADH@Z PROC ; ioINILoader::LoadString_e<12>, COMDAT
; _this$ = ecx

; 161  : 	{

  00000	55		 push	 ebp
  00001	8b ec		 mov	 ebp, esp
  00003	83 ec 18	 sub	 esp, 24			; 00000018H
  00006	a1 00 00 00 00	 mov	 eax, DWORD PTR ___security_cookie
  0000b	33 c5		 xor	 eax, ebp
  0000d	89 45 fc	 mov	 DWORD PTR __$ArrayPad$[ebp], eax
  00010	8b 45 08	 mov	 eax, DWORD PTR _k$[ebp]

; 162  : 		_ENCSTR(k, _k);

  00013	8a 10		 mov	 dl, BYTE PTR [eax]
  00015	56		 push	 esi
  00016	8b 75 0c	 mov	 esi, DWORD PTR _d$[ebp]
  00019	57		 push	 edi
  0001a	8b 7d 10	 mov	 edi, DWORD PTR _b$[ebp]
  0001d	89 4d e8	 mov	 DWORD PTR _this$GSCopy$[ebp], ecx
  00020	84 d2		 test	 dl, dl
  00022	0f 84 32 01 00
	00		 je	 $LN96@LoadString@5
  00028	80 f2 ed	 xor	 dl, -19			; ffffffedH
  0002b	88 55 ec	 mov	 BYTE PTR __k$[ebp], dl
  0002e	8a 50 01	 mov	 dl, BYTE PTR [eax+1]
  00031	84 d2		 test	 dl, dl
  00033	0f 84 1b 01 00
	00		 je	 $LN95@LoadString@5
  00039	80 f2 ec	 xor	 dl, -20			; ffffffecH
  0003c	88 55 ed	 mov	 BYTE PTR __k$[ebp+1], dl
  0003f	8a 50 02	 mov	 dl, BYTE PTR [eax+2]
  00042	84 d2		 test	 dl, dl
  00044	0f 84 04 01 00
	00		 je	 $LN94@LoadString@5
  0004a	b1 eb		 mov	 cl, -21			; ffffffebH
  0004c	32 d1		 xor	 dl, cl
  0004e	88 55 ee	 mov	 BYTE PTR __k$[ebp+2], dl
  00051	8a 50 03	 mov	 dl, BYTE PTR [eax+3]
  00054	84 d2		 test	 dl, dl
  00056	0f 84 ec 00 00
	00		 je	 $LN93@LoadString@5
  0005c	80 f2 ea	 xor	 dl, -22			; ffffffeaH
  0005f	88 55 ef	 mov	 BYTE PTR __k$[ebp+3], dl
  00062	8a 50 04	 mov	 dl, BYTE PTR [eax+4]
  00065	84 d2		 test	 dl, dl
  00067	0f 84 d5 00 00
	00		 je	 $LN92@LoadString@5
  0006d	80 f2 ed	 xor	 dl, -19			; ffffffedH
  00070	88 55 f0	 mov	 BYTE PTR __k$[ebp+4], dl
  00073	8a 50 05	 mov	 dl, BYTE PTR [eax+5]
  00076	84 d2		 test	 dl, dl
  00078	0f 84 be 00 00
	00		 je	 $LN91@LoadString@5
  0007e	80 f2 ec	 xor	 dl, -20			; ffffffecH
  00081	88 55 f1	 mov	 BYTE PTR __k$[ebp+5], dl
  00084	8a 50 06	 mov	 dl, BYTE PTR [eax+6]
  00087	84 d2		 test	 dl, dl
  00089	0f 84 a8 00 00
	00		 je	 $LN90@LoadString@5
  0008f	32 d1		 xor	 dl, cl
  00091	88 55 f2	 mov	 BYTE PTR __k$[ebp+6], dl
  00094	8a 50 07	 mov	 dl, BYTE PTR [eax+7]
  00097	84 d2		 test	 dl, dl
  00099	0f 84 92 00 00
	00		 je	 $LN89@LoadString@5
  0009f	80 f2 ea	 xor	 dl, -22			; ffffffeaH
  000a2	88 55 f3	 mov	 BYTE PTR __k$[ebp+7], dl
  000a5	8a 50 08	 mov	 dl, BYTE PTR [eax+8]
  000a8	84 d2		 test	 dl, dl
  000aa	74 7f		 je	 SHORT $LN88@LoadString@5
  000ac	80 f2 ed	 xor	 dl, -19			; ffffffedH
  000af	88 55 f4	 mov	 BYTE PTR __k$[ebp+8], dl
  000b2	8a 50 09	 mov	 dl, BYTE PTR [eax+9]
  000b5	84 d2		 test	 dl, dl
  000b7	74 6c		 je	 SHORT $LN87@LoadString@5
  000b9	80 f2 ec	 xor	 dl, -20			; ffffffecH
  000bc	88 55 f5	 mov	 BYTE PTR __k$[ebp+9], dl
  000bf	8a 50 0a	 mov	 dl, BYTE PTR [eax+10]
  000c2	84 d2		 test	 dl, dl
  000c4	74 5a		 je	 SHORT $LN86@LoadString@5
  000c6	32 d1		 xor	 dl, cl
  000c8	80 78 0b 00	 cmp	 BYTE PTR [eax+11], 0
  000cc	88 55 f6	 mov	 BYTE PTR __k$[ebp+10], dl
  000cf	0f 84 89 00 00
	00		 je	 $LN111@LoadString@5
  000d5	8a 50 0c	 mov	 dl, BYTE PTR [eax+12]
  000d8	84 d2		 test	 dl, dl
  000da	74 3e		 je	 SHORT $LN84@LoadString@5
  000dc	80 f2 ed	 xor	 dl, -19			; ffffffedH
  000df	88 55 f8	 mov	 BYTE PTR __k$[ebp+12], dl
  000e2	8a 50 0d	 mov	 dl, BYTE PTR [eax+13]
  000e5	84 d2		 test	 dl, dl
  000e7	74 2b		 je	 SHORT $LN83@LoadString@5
  000e9	80 f2 ec	 xor	 dl, -20			; ffffffecH
  000ec	88 55 f9	 mov	 BYTE PTR __k$[ebp+13], dl
  000ef	8a 50 0e	 mov	 dl, BYTE PTR [eax+14]
  000f2	84 d2		 test	 dl, dl
  000f4	74 19		 je	 SHORT $LN82@LoadString@5
  000f6	8a 40 0f	 mov	 al, BYTE PTR [eax+15]
  000f9	32 d1		 xor	 dl, cl
  000fb	88 55 fa	 mov	 BYTE PTR __k$[ebp+14], dl
  000fe	84 c0		 test	 al, al
  00100	74 07		 je	 SHORT $LN81@LoadString@5
  00102	34 ea		 xor	 al, -22			; ffffffeaH
  00104	88 45 fb	 mov	 BYTE PTR __k$[ebp+15], al
  00107	eb 55		 jmp	 SHORT $LN111@LoadString@5
$LN81@LoadString@5:
  00109	c6 45 fb ea	 mov	 BYTE PTR __k$[ebp+15], -22 ; ffffffeaH
  0010d	eb 4f		 jmp	 SHORT $LN111@LoadString@5
$LN82@LoadString@5:
  0010f	88 4d fa	 mov	 BYTE PTR __k$[ebp+14], cl
  00112	eb 4a		 jmp	 SHORT $LN111@LoadString@5
$LN83@LoadString@5:
  00114	c6 45 f9 ec	 mov	 BYTE PTR __k$[ebp+13], -20 ; ffffffecH
  00118	eb 44		 jmp	 SHORT $LN111@LoadString@5
$LN84@LoadString@5:
  0011a	c6 45 f8 ed	 mov	 BYTE PTR __k$[ebp+12], -19 ; ffffffedH
  0011e	eb 3e		 jmp	 SHORT $LN111@LoadString@5
$LN86@LoadString@5:
  00120	88 4d f6	 mov	 BYTE PTR __k$[ebp+10], cl
  00123	eb 39		 jmp	 SHORT $LN111@LoadString@5
$LN87@LoadString@5:
  00125	c6 45 f5 ec	 mov	 BYTE PTR __k$[ebp+9], -20 ; ffffffecH
  00129	eb 33		 jmp	 SHORT $LN111@LoadString@5
$LN88@LoadString@5:
  0012b	c6 45 f4 ed	 mov	 BYTE PTR __k$[ebp+8], -19 ; ffffffedH
  0012f	eb 2d		 jmp	 SHORT $LN111@LoadString@5
$LN89@LoadString@5:
  00131	c6 45 f3 ea	 mov	 BYTE PTR __k$[ebp+7], -22 ; ffffffeaH
  00135	eb 27		 jmp	 SHORT $LN111@LoadString@5
$LN90@LoadString@5:
  00137	88 4d f2	 mov	 BYTE PTR __k$[ebp+6], cl
  0013a	eb 22		 jmp	 SHORT $LN111@LoadString@5
$LN91@LoadString@5:
  0013c	c6 45 f1 ec	 mov	 BYTE PTR __k$[ebp+5], -20 ; ffffffecH
  00140	eb 1c		 jmp	 SHORT $LN111@LoadString@5
$LN92@LoadString@5:
  00142	c6 45 f0 ed	 mov	 BYTE PTR __k$[ebp+4], -19 ; ffffffedH
  00146	eb 16		 jmp	 SHORT $LN111@LoadString@5
$LN93@LoadString@5:
  00148	c6 45 ef ea	 mov	 BYTE PTR __k$[ebp+3], -22 ; ffffffeaH
  0014c	eb 10		 jmp	 SHORT $LN111@LoadString@5
$LN94@LoadString@5:
  0014e	c6 45 ee eb	 mov	 BYTE PTR __k$[ebp+2], -21 ; ffffffebH
  00152	eb 0a		 jmp	 SHORT $LN111@LoadString@5
$LN95@LoadString@5:
  00154	c6 45 ed ec	 mov	 BYTE PTR __k$[ebp+1], -20 ; ffffffecH
  00158	eb 04		 jmp	 SHORT $LN111@LoadString@5
$LN96@LoadString@5:
  0015a	c6 45 ec ed	 mov	 BYTE PTR __k$[ebp], -19	; ffffffedH
$LN111@LoadString@5:
  0015e	6a 02		 push	 2
  00160	8d 45 ec	 lea	 eax, DWORD PTR __k$[ebp]
  00163	c6 45 f7 00	 mov	 BYTE PTR __k$[ebp+11], 0
  00167	5a		 pop	 edx
$LL104@LoadString@5:
  00168	81 30 ed ec eb
	ea		 xor	 DWORD PTR [eax], -353637139 ; eaebecedH
  0016e	83 c0 04	 add	 eax, 4
  00171	4a		 dec	 edx
  00172	75 f4		 jne	 SHORT $LL104@LoadString@5
  00174	6a 08		 push	 8
  00176	58		 pop	 eax
$LL101@LoadString@5:
  00177	8b c8		 mov	 ecx, eax
  00179	81 e1 03 00 00
	80		 and	 ecx, -2147483645	; 80000003H
  0017f	79 05		 jns	 SHORT $LN112@LoadString@5
  00181	49		 dec	 ecx
  00182	83 c9 fc	 or	 ecx, -4			; fffffffcH
  00185	41		 inc	 ecx
$LN112@LoadString@5:
  00186	b2 ed		 mov	 dl, -19			; ffffffedH
  00188	2a d1		 sub	 dl, cl
  0018a	30 54 05 ec	 xor	 BYTE PTR __k$[ebp+eax], dl
  0018e	40		 inc	 eax
  0018f	83 f8 0b	 cmp	 eax, 11			; 0000000bH
  00192	7c e3		 jl	 SHORT $LL101@LoadString@5

; 163  : 		LoadString(_k, d, b, i);

  00194	ff 75 14	 push	 DWORD PTR _i$[ebp]
  00197	8b 4d e8	 mov	 ecx, DWORD PTR _this$GSCopy$[ebp]
  0019a	57		 push	 edi
  0019b	56		 push	 esi
  0019c	8d 45 ec	 lea	 eax, DWORD PTR __k$[ebp]
  0019f	50		 push	 eax
  001a0	ff 15 00 00 00
	00		 call	 DWORD PTR __imp_?LoadStringA@ioINILoader@@QAEXPBD0PADH@Z

; 164  : 	}

  001a6	8b 4d fc	 mov	 ecx, DWORD PTR __$ArrayPad$[ebp]
  001a9	5f		 pop	 edi
  001aa	33 cd		 xor	 ecx, ebp
  001ac	5e		 pop	 esi
  001ad	e8 00 00 00 00	 call	 @__security_check_cookie@4
  001b2	c9		 leave
  001b3	c2 10 00	 ret	 16			; 00000010H
??$LoadString_e@$0M@@ioINILoader@@QAEXAAY0M@$$CBDAAY00$$CBDPADH@Z ENDP ; ioINILoader::LoadString_e<12>
_TEXT	ENDS
PUBLIC	_this$GSCopy$
PUBLIC	__$ArrayPad$
PUBLIC	??$LoadString_e@$0P@@ioINILoader@@QAEXAAY0P@$$CBDAAY00$$CBDPADH@Z ; ioINILoader::LoadString_e<15>
; Function compile flags: /Ogsp
;	COMDAT ??$LoadString_e@$0P@@ioINILoader@@QAEXAAY0P@$$CBDAAY00$$CBDPADH@Z
_TEXT	SEGMENT
_this$GSCopy$ = -28					; size = 4
__k$ = -24						; size = 15
__$ArrayPad$ = -4					; size = 4
_k$ = 8							; size = 4
_d$ = 12						; size = 4
_b$ = 16						; size = 4
_i$ = 20						; size = 4
??$LoadString_e@$0P@@ioINILoader@@QAEXAAY0P@$$CBDAAY00$$CBDPADH@Z PROC ; ioINILoader::LoadString_e<15>, COMDAT
; _this$ = ecx

; 161  : 	{

  00000	55		 push	 ebp
  00001	8b ec		 mov	 ebp, esp
  00003	83 ec 1c	 sub	 esp, 28			; 0000001cH
  00006	a1 00 00 00 00	 mov	 eax, DWORD PTR ___security_cookie
  0000b	33 c5		 xor	 eax, ebp
  0000d	89 45 fc	 mov	 DWORD PTR __$ArrayPad$[ebp], eax
  00010	8b 45 08	 mov	 eax, DWORD PTR _k$[ebp]

; 162  : 		_ENCSTR(k, _k);

  00013	8a 10		 mov	 dl, BYTE PTR [eax]
  00015	56		 push	 esi
  00016	8b 75 0c	 mov	 esi, DWORD PTR _d$[ebp]
  00019	57		 push	 edi
  0001a	8b 7d 10	 mov	 edi, DWORD PTR _b$[ebp]
  0001d	89 4d e4	 mov	 DWORD PTR _this$GSCopy$[ebp], ecx
  00020	84 d2		 test	 dl, dl
  00022	0f 84 75 01 00
	00		 je	 $LN96@LoadString@6
  00028	80 f2 ed	 xor	 dl, -19			; ffffffedH
  0002b	88 55 e8	 mov	 BYTE PTR __k$[ebp], dl
  0002e	8a 50 01	 mov	 dl, BYTE PTR [eax+1]
  00031	84 d2		 test	 dl, dl
  00033	0f 84 5e 01 00
	00		 je	 $LN95@LoadString@6
  00039	b1 ec		 mov	 cl, -20			; ffffffecH
  0003b	32 d1		 xor	 dl, cl
  0003d	88 55 e9	 mov	 BYTE PTR __k$[ebp+1], dl
  00040	8a 50 02	 mov	 dl, BYTE PTR [eax+2]
  00043	84 d2		 test	 dl, dl
  00045	0f 84 46 01 00
	00		 je	 $LN94@LoadString@6
  0004b	80 f2 eb	 xor	 dl, -21			; ffffffebH
  0004e	88 55 ea	 mov	 BYTE PTR __k$[ebp+2], dl
  00051	8a 50 03	 mov	 dl, BYTE PTR [eax+3]
  00054	84 d2		 test	 dl, dl
  00056	0f 84 2f 01 00
	00		 je	 $LN93@LoadString@6
  0005c	80 f2 ea	 xor	 dl, -22			; ffffffeaH
  0005f	88 55 eb	 mov	 BYTE PTR __k$[ebp+3], dl
  00062	8a 50 04	 mov	 dl, BYTE PTR [eax+4]
  00065	84 d2		 test	 dl, dl
  00067	0f 84 18 01 00
	00		 je	 $LN92@LoadString@6
  0006d	80 f2 ed	 xor	 dl, -19			; ffffffedH
  00070	88 55 ec	 mov	 BYTE PTR __k$[ebp+4], dl
  00073	8a 50 05	 mov	 dl, BYTE PTR [eax+5]
  00076	84 d2		 test	 dl, dl
  00078	0f 84 02 01 00
	00		 je	 $LN91@LoadString@6
  0007e	32 d1		 xor	 dl, cl
  00080	88 55 ed	 mov	 BYTE PTR __k$[ebp+5], dl
  00083	8a 50 06	 mov	 dl, BYTE PTR [eax+6]
  00086	84 d2		 test	 dl, dl
  00088	0f 84 ec 00 00
	00		 je	 $LN90@LoadString@6
  0008e	80 f2 eb	 xor	 dl, -21			; ffffffebH
  00091	88 55 ee	 mov	 BYTE PTR __k$[ebp+6], dl
  00094	8a 50 07	 mov	 dl, BYTE PTR [eax+7]
  00097	84 d2		 test	 dl, dl
  00099	0f 84 d5 00 00
	00		 je	 $LN89@LoadString@6
  0009f	80 f2 ea	 xor	 dl, -22			; ffffffeaH
  000a2	88 55 ef	 mov	 BYTE PTR __k$[ebp+7], dl
  000a5	8a 50 08	 mov	 dl, BYTE PTR [eax+8]
  000a8	84 d2		 test	 dl, dl
  000aa	0f 84 be 00 00
	00		 je	 $LN88@LoadString@6
  000b0	80 f2 ed	 xor	 dl, -19			; ffffffedH
  000b3	88 55 f0	 mov	 BYTE PTR __k$[ebp+8], dl
  000b6	8a 50 09	 mov	 dl, BYTE PTR [eax+9]
  000b9	84 d2		 test	 dl, dl
  000bb	0f 84 a8 00 00
	00		 je	 $LN87@LoadString@6
  000c1	32 d1		 xor	 dl, cl
  000c3	88 55 f1	 mov	 BYTE PTR __k$[ebp+9], dl
  000c6	8a 50 0a	 mov	 dl, BYTE PTR [eax+10]
  000c9	84 d2		 test	 dl, dl
  000cb	0f 84 92 00 00
	00		 je	 $LN86@LoadString@6
  000d1	80 f2 eb	 xor	 dl, -21			; ffffffebH
  000d4	88 55 f2	 mov	 BYTE PTR __k$[ebp+10], dl
  000d7	8a 50 0b	 mov	 dl, BYTE PTR [eax+11]
  000da	84 d2		 test	 dl, dl
  000dc	74 7f		 je	 SHORT $LN85@LoadString@6
  000de	80 f2 ea	 xor	 dl, -22			; ffffffeaH
  000e1	88 55 f3	 mov	 BYTE PTR __k$[ebp+11], dl
  000e4	8a 50 0c	 mov	 dl, BYTE PTR [eax+12]
  000e7	84 d2		 test	 dl, dl
  000e9	74 6c		 je	 SHORT $LN84@LoadString@6
  000eb	80 f2 ed	 xor	 dl, -19			; ffffffedH
  000ee	88 55 f4	 mov	 BYTE PTR __k$[ebp+12], dl
  000f1	8a 50 0d	 mov	 dl, BYTE PTR [eax+13]
  000f4	84 d2		 test	 dl, dl
  000f6	74 5a		 je	 SHORT $LN83@LoadString@6
  000f8	32 d1		 xor	 dl, cl
  000fa	80 78 0e 00	 cmp	 BYTE PTR [eax+14], 0
  000fe	88 55 f5	 mov	 BYTE PTR __k$[ebp+13], dl
  00101	0f 84 9a 00 00
	00		 je	 $LN111@LoadString@6
  00107	8a 50 0f	 mov	 dl, BYTE PTR [eax+15]
  0010a	84 d2		 test	 dl, dl
  0010c	74 3e		 je	 SHORT $LN81@LoadString@6
  0010e	80 f2 ea	 xor	 dl, -22			; ffffffeaH
  00111	88 55 f7	 mov	 BYTE PTR __k$[ebp+15], dl
  00114	8a 50 10	 mov	 dl, BYTE PTR [eax+16]
  00117	84 d2		 test	 dl, dl
  00119	74 2b		 je	 SHORT $LN80@LoadString@6
  0011b	80 f2 ed	 xor	 dl, -19			; ffffffedH
  0011e	88 55 f8	 mov	 BYTE PTR __k$[ebp+16], dl
  00121	8a 50 11	 mov	 dl, BYTE PTR [eax+17]
  00124	84 d2		 test	 dl, dl
  00126	74 19		 je	 SHORT $LN79@LoadString@6
  00128	8a 40 12	 mov	 al, BYTE PTR [eax+18]
  0012b	32 d1		 xor	 dl, cl
  0012d	88 55 f9	 mov	 BYTE PTR __k$[ebp+17], dl
  00130	84 c0		 test	 al, al
  00132	74 07		 je	 SHORT $LN78@LoadString@6
  00134	34 eb		 xor	 al, -21			; ffffffebH
  00136	88 45 fa	 mov	 BYTE PTR __k$[ebp+18], al
  00139	eb 66		 jmp	 SHORT $LN111@LoadString@6
$LN78@LoadString@6:
  0013b	c6 45 fa eb	 mov	 BYTE PTR __k$[ebp+18], -21 ; ffffffebH
  0013f	eb 60		 jmp	 SHORT $LN111@LoadString@6
$LN79@LoadString@6:
  00141	88 4d f9	 mov	 BYTE PTR __k$[ebp+17], cl
  00144	eb 5b		 jmp	 SHORT $LN111@LoadString@6
$LN80@LoadString@6:
  00146	c6 45 f8 ed	 mov	 BYTE PTR __k$[ebp+16], -19 ; ffffffedH
  0014a	eb 55		 jmp	 SHORT $LN111@LoadString@6
$LN81@LoadString@6:
  0014c	c6 45 f7 ea	 mov	 BYTE PTR __k$[ebp+15], -22 ; ffffffeaH
  00150	eb 4f		 jmp	 SHORT $LN111@LoadString@6
$LN83@LoadString@6:
  00152	88 4d f5	 mov	 BYTE PTR __k$[ebp+13], cl
  00155	eb 4a		 jmp	 SHORT $LN111@LoadString@6
$LN84@LoadString@6:
  00157	c6 45 f4 ed	 mov	 BYTE PTR __k$[ebp+12], -19 ; ffffffedH
  0015b	eb 44		 jmp	 SHORT $LN111@LoadString@6
$LN85@LoadString@6:
  0015d	c6 45 f3 ea	 mov	 BYTE PTR __k$[ebp+11], -22 ; ffffffeaH
  00161	eb 3e		 jmp	 SHORT $LN111@LoadString@6
$LN86@LoadString@6:
  00163	c6 45 f2 eb	 mov	 BYTE PTR __k$[ebp+10], -21 ; ffffffebH
  00167	eb 38		 jmp	 SHORT $LN111@LoadString@6
$LN87@LoadString@6:
  00169	88 4d f1	 mov	 BYTE PTR __k$[ebp+9], cl
  0016c	eb 33		 jmp	 SHORT $LN111@LoadString@6
$LN88@LoadString@6:
  0016e	c6 45 f0 ed	 mov	 BYTE PTR __k$[ebp+8], -19 ; ffffffedH
  00172	eb 2d		 jmp	 SHORT $LN111@LoadString@6
$LN89@LoadString@6:
  00174	c6 45 ef ea	 mov	 BYTE PTR __k$[ebp+7], -22 ; ffffffeaH
  00178	eb 27		 jmp	 SHORT $LN111@LoadString@6
$LN90@LoadString@6:
  0017a	c6 45 ee eb	 mov	 BYTE PTR __k$[ebp+6], -21 ; ffffffebH
  0017e	eb 21		 jmp	 SHORT $LN111@LoadString@6
$LN91@LoadString@6:
  00180	88 4d ed	 mov	 BYTE PTR __k$[ebp+5], cl
  00183	eb 1c		 jmp	 SHORT $LN111@LoadString@6
$LN92@LoadString@6:
  00185	c6 45 ec ed	 mov	 BYTE PTR __k$[ebp+4], -19 ; ffffffedH
  00189	eb 16		 jmp	 SHORT $LN111@LoadString@6
$LN93@LoadString@6:
  0018b	c6 45 eb ea	 mov	 BYTE PTR __k$[ebp+3], -22 ; ffffffeaH
  0018f	eb 10		 jmp	 SHORT $LN111@LoadString@6
$LN94@LoadString@6:
  00191	c6 45 ea eb	 mov	 BYTE PTR __k$[ebp+2], -21 ; ffffffebH
  00195	eb 0a		 jmp	 SHORT $LN111@LoadString@6
$LN95@LoadString@6:
  00197	c6 45 e9 ec	 mov	 BYTE PTR __k$[ebp+1], -20 ; ffffffecH
  0019b	eb 04		 jmp	 SHORT $LN111@LoadString@6
$LN96@LoadString@6:
  0019d	c6 45 e8 ed	 mov	 BYTE PTR __k$[ebp], -19	; ffffffedH
$LN111@LoadString@6:
  001a1	6a 03		 push	 3
  001a3	8d 45 e8	 lea	 eax, DWORD PTR __k$[ebp]
  001a6	c6 45 f6 00	 mov	 BYTE PTR __k$[ebp+14], 0
  001aa	5a		 pop	 edx
$LL104@LoadString@6:
  001ab	81 30 ed ec eb
	ea		 xor	 DWORD PTR [eax], -353637139 ; eaebecedH
  001b1	83 c0 04	 add	 eax, 4
  001b4	4a		 dec	 edx
  001b5	75 f4		 jne	 SHORT $LL104@LoadString@6
  001b7	6a 0c		 push	 12			; 0000000cH
  001b9	58		 pop	 eax
$LL101@LoadString@6:
  001ba	8b c8		 mov	 ecx, eax
  001bc	81 e1 03 00 00
	80		 and	 ecx, -2147483645	; 80000003H
  001c2	79 05		 jns	 SHORT $LN112@LoadString@6
  001c4	49		 dec	 ecx
  001c5	83 c9 fc	 or	 ecx, -4			; fffffffcH
  001c8	41		 inc	 ecx
$LN112@LoadString@6:
  001c9	b2 ed		 mov	 dl, -19			; ffffffedH
  001cb	2a d1		 sub	 dl, cl
  001cd	30 54 05 e8	 xor	 BYTE PTR __k$[ebp+eax], dl
  001d1	40		 inc	 eax
  001d2	83 f8 0e	 cmp	 eax, 14			; 0000000eH
  001d5	7c e3		 jl	 SHORT $LL101@LoadString@6

; 163  : 		LoadString(_k, d, b, i);

  001d7	ff 75 14	 push	 DWORD PTR _i$[ebp]
  001da	8b 4d e4	 mov	 ecx, DWORD PTR _this$GSCopy$[ebp]
  001dd	57		 push	 edi
  001de	56		 push	 esi
  001df	8d 45 e8	 lea	 eax, DWORD PTR __k$[ebp]
  001e2	50		 push	 eax
  001e3	ff 15 00 00 00
	00		 call	 DWORD PTR __imp_?LoadStringA@ioINILoader@@QAEXPBD0PADH@Z

; 164  : 	}

  001e9	8b 4d fc	 mov	 ecx, DWORD PTR __$ArrayPad$[ebp]
  001ec	5f		 pop	 edi
  001ed	33 cd		 xor	 ecx, ebp
  001ef	5e		 pop	 esi
  001f0	e8 00 00 00 00	 call	 @__security_check_cookie@4
  001f5	c9		 leave
  001f6	c2 10 00	 ret	 16			; 00000010H
??$LoadString_e@$0P@@ioINILoader@@QAEXAAY0P@$$CBDAAY00$$CBDPADH@Z ENDP ; ioINILoader::LoadString_e<15>
_TEXT	ENDS
PUBLIC	__$ArrayPad$
PUBLIC	??$LoadInt_e@$0BG@@ioINILoader@@QAEHAAY0BG@$$CBDH@Z ; ioINILoader::LoadInt_e<22>
EXTRN	__imp_?LoadInt@ioINILoader@@QAEHPBDH@Z:PROC
; Function compile flags: /Ogsp
;	COMDAT ??$LoadInt_e@$0BG@@ioINILoader@@QAEHAAY0BG@$$CBDH@Z
_TEXT	SEGMENT
__k$ = -32						; size = 22
__$ArrayPad$ = -4					; size = 4
_k$ = 8							; size = 4
_i$ = 12						; size = 4
??$LoadInt_e@$0BG@@ioINILoader@@QAEHAAY0BG@$$CBDH@Z PROC ; ioINILoader::LoadInt_e<22>, COMDAT
; _this$ = ecx

; 118  : 	{

  00000	55		 push	 ebp
  00001	8b ec		 mov	 ebp, esp
  00003	83 ec 20	 sub	 esp, 32			; 00000020H
  00006	a1 00 00 00 00	 mov	 eax, DWORD PTR ___security_cookie
  0000b	33 c5		 xor	 eax, ebp
  0000d	89 45 fc	 mov	 DWORD PTR __$ArrayPad$[ebp], eax
  00010	8b 45 08	 mov	 eax, DWORD PTR _k$[ebp]

; 119  : 		_ENCSTR(k, _k);

  00013	8a 10		 mov	 dl, BYTE PTR [eax]
  00015	53		 push	 ebx
  00016	56		 push	 esi
  00017	8b f1		 mov	 esi, ecx
  00019	84 d2		 test	 dl, dl
  0001b	0f 84 15 02 00
	00		 je	 $LN96@LoadInt_e
  00021	80 f2 ed	 xor	 dl, -19			; ffffffedH
  00024	88 55 e0	 mov	 BYTE PTR __k$[ebp], dl
  00027	8a 50 01	 mov	 dl, BYTE PTR [eax+1]
  0002a	84 d2		 test	 dl, dl
  0002c	0f 84 fe 01 00
	00		 je	 $LN95@LoadInt_e
  00032	80 f2 ec	 xor	 dl, -20			; ffffffecH
  00035	88 55 e1	 mov	 BYTE PTR __k$[ebp+1], dl
  00038	8a 50 02	 mov	 dl, BYTE PTR [eax+2]
  0003b	84 d2		 test	 dl, dl
  0003d	0f 84 e7 01 00
	00		 je	 $LN94@LoadInt_e
  00043	b1 eb		 mov	 cl, -21			; ffffffebH
  00045	32 d1		 xor	 dl, cl
  00047	88 55 e2	 mov	 BYTE PTR __k$[ebp+2], dl
  0004a	8a 50 03	 mov	 dl, BYTE PTR [eax+3]
  0004d	84 d2		 test	 dl, dl
  0004f	0f 84 cf 01 00
	00		 je	 $LN93@LoadInt_e
  00055	b3 ea		 mov	 bl, -22			; ffffffeaH
  00057	32 d3		 xor	 dl, bl
  00059	88 55 e3	 mov	 BYTE PTR __k$[ebp+3], dl
  0005c	8a 50 04	 mov	 dl, BYTE PTR [eax+4]
  0005f	84 d2		 test	 dl, dl
  00061	0f 84 b7 01 00
	00		 je	 $LN92@LoadInt_e
  00067	80 f2 ed	 xor	 dl, -19			; ffffffedH
  0006a	88 55 e4	 mov	 BYTE PTR __k$[ebp+4], dl
  0006d	8a 50 05	 mov	 dl, BYTE PTR [eax+5]
  00070	84 d2		 test	 dl, dl
  00072	0f 84 a0 01 00
	00		 je	 $LN91@LoadInt_e
  00078	80 f2 ec	 xor	 dl, -20			; ffffffecH
  0007b	88 55 e5	 mov	 BYTE PTR __k$[ebp+5], dl
  0007e	8a 50 06	 mov	 dl, BYTE PTR [eax+6]
  00081	84 d2		 test	 dl, dl
  00083	0f 84 8a 01 00
	00		 je	 $LN90@LoadInt_e
  00089	32 d1		 xor	 dl, cl
  0008b	88 55 e6	 mov	 BYTE PTR __k$[ebp+6], dl
  0008e	8a 50 07	 mov	 dl, BYTE PTR [eax+7]
  00091	84 d2		 test	 dl, dl
  00093	0f 84 75 01 00
	00		 je	 $LN89@LoadInt_e
  00099	32 d3		 xor	 dl, bl
  0009b	88 55 e7	 mov	 BYTE PTR __k$[ebp+7], dl
  0009e	8a 50 08	 mov	 dl, BYTE PTR [eax+8]
  000a1	84 d2		 test	 dl, dl
  000a3	0f 84 5f 01 00
	00		 je	 $LN88@LoadInt_e
  000a9	80 f2 ed	 xor	 dl, -19			; ffffffedH
  000ac	88 55 e8	 mov	 BYTE PTR __k$[ebp+8], dl
  000af	8a 50 09	 mov	 dl, BYTE PTR [eax+9]
  000b2	84 d2		 test	 dl, dl
  000b4	0f 84 48 01 00
	00		 je	 $LN87@LoadInt_e
  000ba	80 f2 ec	 xor	 dl, -20			; ffffffecH
  000bd	88 55 e9	 mov	 BYTE PTR __k$[ebp+9], dl
  000c0	8a 50 0a	 mov	 dl, BYTE PTR [eax+10]
  000c3	84 d2		 test	 dl, dl
  000c5	0f 84 32 01 00
	00		 je	 $LN86@LoadInt_e
  000cb	32 d1		 xor	 dl, cl
  000cd	88 55 ea	 mov	 BYTE PTR __k$[ebp+10], dl
  000d0	8a 50 0b	 mov	 dl, BYTE PTR [eax+11]
  000d3	84 d2		 test	 dl, dl
  000d5	0f 84 1d 01 00
	00		 je	 $LN85@LoadInt_e
  000db	32 d3		 xor	 dl, bl
  000dd	88 55 eb	 mov	 BYTE PTR __k$[ebp+11], dl
  000e0	8a 50 0c	 mov	 dl, BYTE PTR [eax+12]
  000e3	84 d2		 test	 dl, dl
  000e5	0f 84 07 01 00
	00		 je	 $LN84@LoadInt_e
  000eb	80 f2 ed	 xor	 dl, -19			; ffffffedH
  000ee	88 55 ec	 mov	 BYTE PTR __k$[ebp+12], dl
  000f1	8a 50 0d	 mov	 dl, BYTE PTR [eax+13]
  000f4	84 d2		 test	 dl, dl
  000f6	0f 84 f0 00 00
	00		 je	 $LN83@LoadInt_e
  000fc	80 f2 ec	 xor	 dl, -20			; ffffffecH
  000ff	88 55 ed	 mov	 BYTE PTR __k$[ebp+13], dl
  00102	8a 50 0e	 mov	 dl, BYTE PTR [eax+14]
  00105	84 d2		 test	 dl, dl
  00107	0f 84 da 00 00
	00		 je	 $LN82@LoadInt_e
  0010d	32 d1		 xor	 dl, cl
  0010f	88 55 ee	 mov	 BYTE PTR __k$[ebp+14], dl
  00112	8a 50 0f	 mov	 dl, BYTE PTR [eax+15]
  00115	84 d2		 test	 dl, dl
  00117	0f 84 c5 00 00
	00		 je	 $LN81@LoadInt_e
  0011d	32 d3		 xor	 dl, bl
  0011f	88 55 ef	 mov	 BYTE PTR __k$[ebp+15], dl
  00122	8a 50 10	 mov	 dl, BYTE PTR [eax+16]
  00125	84 d2		 test	 dl, dl
  00127	0f 84 af 00 00
	00		 je	 $LN80@LoadInt_e
  0012d	80 f2 ed	 xor	 dl, -19			; ffffffedH
  00130	88 55 f0	 mov	 BYTE PTR __k$[ebp+16], dl
  00133	8a 50 11	 mov	 dl, BYTE PTR [eax+17]
  00136	84 d2		 test	 dl, dl
  00138	0f 84 98 00 00
	00		 je	 $LN79@LoadInt_e
  0013e	80 f2 ec	 xor	 dl, -20			; ffffffecH
  00141	88 55 f1	 mov	 BYTE PTR __k$[ebp+17], dl
  00144	8a 50 12	 mov	 dl, BYTE PTR [eax+18]
  00147	84 d2		 test	 dl, dl
  00149	0f 84 82 00 00
	00		 je	 $LN78@LoadInt_e
  0014f	32 d1		 xor	 dl, cl
  00151	88 55 f2	 mov	 BYTE PTR __k$[ebp+18], dl
  00154	8a 50 13	 mov	 dl, BYTE PTR [eax+19]
  00157	84 d2		 test	 dl, dl
  00159	74 71		 je	 SHORT $LN77@LoadInt_e
  0015b	32 d3		 xor	 dl, bl
  0015d	88 55 f3	 mov	 BYTE PTR __k$[ebp+19], dl
  00160	8a 50 14	 mov	 dl, BYTE PTR [eax+20]
  00163	84 d2		 test	 dl, dl
  00165	74 5f		 je	 SHORT $LN76@LoadInt_e
  00167	80 f2 ed	 xor	 dl, -19			; ffffffedH
  0016a	80 78 15 00	 cmp	 BYTE PTR [eax+21], 0
  0016e	88 55 f4	 mov	 BYTE PTR __k$[ebp+20], dl
  00171	0f 84 c3 00 00
	00		 je	 $LN1@LoadInt_e
  00177	8a 50 16	 mov	 dl, BYTE PTR [eax+22]
  0017a	84 d2		 test	 dl, dl
  0017c	74 43		 je	 SHORT $LN74@LoadInt_e
  0017e	32 d1		 xor	 dl, cl
  00180	88 55 f6	 mov	 BYTE PTR __k$[ebp+22], dl
  00183	8a 50 17	 mov	 dl, BYTE PTR [eax+23]
  00186	84 d2		 test	 dl, dl
  00188	74 32		 je	 SHORT $LN73@LoadInt_e
  0018a	32 d3		 xor	 dl, bl
  0018c	88 55 f7	 mov	 BYTE PTR __k$[ebp+23], dl
  0018f	8a 50 18	 mov	 dl, BYTE PTR [eax+24]
  00192	84 d2		 test	 dl, dl
  00194	74 20		 je	 SHORT $LN72@LoadInt_e
  00196	8a 40 19	 mov	 al, BYTE PTR [eax+25]
  00199	80 f2 ed	 xor	 dl, -19			; ffffffedH
  0019c	88 55 f8	 mov	 BYTE PTR __k$[ebp+24], dl
  0019f	84 c0		 test	 al, al
  001a1	74 0a		 je	 SHORT $LN71@LoadInt_e
  001a3	34 ec		 xor	 al, -20			; ffffffecH
  001a5	88 45 f9	 mov	 BYTE PTR __k$[ebp+25], al
  001a8	e9 8d 00 00 00	 jmp	 $LN1@LoadInt_e
$LN71@LoadInt_e:
  001ad	c6 45 f9 ec	 mov	 BYTE PTR __k$[ebp+25], -20 ; ffffffecH
  001b1	e9 84 00 00 00	 jmp	 $LN1@LoadInt_e
$LN72@LoadInt_e:
  001b6	c6 45 f8 ed	 mov	 BYTE PTR __k$[ebp+24], -19 ; ffffffedH
  001ba	eb 7e		 jmp	 SHORT $LN1@LoadInt_e
$LN73@LoadInt_e:
  001bc	88 5d f7	 mov	 BYTE PTR __k$[ebp+23], bl
  001bf	eb 79		 jmp	 SHORT $LN1@LoadInt_e
$LN74@LoadInt_e:
  001c1	88 4d f6	 mov	 BYTE PTR __k$[ebp+22], cl
  001c4	eb 74		 jmp	 SHORT $LN1@LoadInt_e
$LN76@LoadInt_e:
  001c6	c6 45 f4 ed	 mov	 BYTE PTR __k$[ebp+20], -19 ; ffffffedH
  001ca	eb 6e		 jmp	 SHORT $LN1@LoadInt_e
$LN77@LoadInt_e:
  001cc	88 5d f3	 mov	 BYTE PTR __k$[ebp+19], bl
  001cf	eb 69		 jmp	 SHORT $LN1@LoadInt_e
$LN78@LoadInt_e:
  001d1	88 4d f2	 mov	 BYTE PTR __k$[ebp+18], cl
  001d4	eb 64		 jmp	 SHORT $LN1@LoadInt_e
$LN79@LoadInt_e:
  001d6	c6 45 f1 ec	 mov	 BYTE PTR __k$[ebp+17], -20 ; ffffffecH
  001da	eb 5e		 jmp	 SHORT $LN1@LoadInt_e
$LN80@LoadInt_e:
  001dc	c6 45 f0 ed	 mov	 BYTE PTR __k$[ebp+16], -19 ; ffffffedH
  001e0	eb 58		 jmp	 SHORT $LN1@LoadInt_e
$LN81@LoadInt_e:
  001e2	88 5d ef	 mov	 BYTE PTR __k$[ebp+15], bl
  001e5	eb 53		 jmp	 SHORT $LN1@LoadInt_e
$LN82@LoadInt_e:
  001e7	88 4d ee	 mov	 BYTE PTR __k$[ebp+14], cl
  001ea	eb 4e		 jmp	 SHORT $LN1@LoadInt_e
$LN83@LoadInt_e:
  001ec	c6 45 ed ec	 mov	 BYTE PTR __k$[ebp+13], -20 ; ffffffecH
  001f0	eb 48		 jmp	 SHORT $LN1@LoadInt_e
$LN84@LoadInt_e:
  001f2	c6 45 ec ed	 mov	 BYTE PTR __k$[ebp+12], -19 ; ffffffedH
  001f6	eb 42		 jmp	 SHORT $LN1@LoadInt_e
$LN85@LoadInt_e:
  001f8	88 5d eb	 mov	 BYTE PTR __k$[ebp+11], bl
  001fb	eb 3d		 jmp	 SHORT $LN1@LoadInt_e
$LN86@LoadInt_e:
  001fd	88 4d ea	 mov	 BYTE PTR __k$[ebp+10], cl
  00200	eb 38		 jmp	 SHORT $LN1@LoadInt_e
$LN87@LoadInt_e:
  00202	c6 45 e9 ec	 mov	 BYTE PTR __k$[ebp+9], -20 ; ffffffecH
  00206	eb 32		 jmp	 SHORT $LN1@LoadInt_e
$LN88@LoadInt_e:
  00208	c6 45 e8 ed	 mov	 BYTE PTR __k$[ebp+8], -19 ; ffffffedH
  0020c	eb 2c		 jmp	 SHORT $LN1@LoadInt_e
$LN89@LoadInt_e:
  0020e	88 5d e7	 mov	 BYTE PTR __k$[ebp+7], bl
  00211	eb 27		 jmp	 SHORT $LN1@LoadInt_e
$LN90@LoadInt_e:
  00213	88 4d e6	 mov	 BYTE PTR __k$[ebp+6], cl
  00216	eb 22		 jmp	 SHORT $LN1@LoadInt_e
$LN91@LoadInt_e:
  00218	c6 45 e5 ec	 mov	 BYTE PTR __k$[ebp+5], -20 ; ffffffecH
  0021c	eb 1c		 jmp	 SHORT $LN1@LoadInt_e
$LN92@LoadInt_e:
  0021e	c6 45 e4 ed	 mov	 BYTE PTR __k$[ebp+4], -19 ; ffffffedH
  00222	eb 16		 jmp	 SHORT $LN1@LoadInt_e
$LN93@LoadInt_e:
  00224	c6 45 e3 ea	 mov	 BYTE PTR __k$[ebp+3], -22 ; ffffffeaH
  00228	eb 10		 jmp	 SHORT $LN1@LoadInt_e
$LN94@LoadInt_e:
  0022a	c6 45 e2 eb	 mov	 BYTE PTR __k$[ebp+2], -21 ; ffffffebH
  0022e	eb 0a		 jmp	 SHORT $LN1@LoadInt_e
$LN95@LoadInt_e:
  00230	c6 45 e1 ec	 mov	 BYTE PTR __k$[ebp+1], -20 ; ffffffecH
  00234	eb 04		 jmp	 SHORT $LN1@LoadInt_e
$LN96@LoadInt_e:
  00236	c6 45 e0 ed	 mov	 BYTE PTR __k$[ebp], -19	; ffffffedH
$LN1@LoadInt_e:
  0023a	6a 05		 push	 5
  0023c	8d 45 e0	 lea	 eax, DWORD PTR __k$[ebp]
  0023f	c6 45 f5 00	 mov	 BYTE PTR __k$[ebp+21], 0
  00243	5a		 pop	 edx
$LL104@LoadInt_e:
  00244	81 30 ed ec eb
	ea		 xor	 DWORD PTR [eax], -353637139 ; eaebecedH
  0024a	83 c0 04	 add	 eax, 4
  0024d	4a		 dec	 edx
  0024e	75 f4		 jne	 SHORT $LL104@LoadInt_e

; 120  : 		return LoadInt(_k, i);

  00250	ff 75 0c	 push	 DWORD PTR _i$[ebp]
  00253	80 75 f4 ed	 xor	 BYTE PTR __k$[ebp+20], -19 ; ffffffedH
  00257	8d 45 e0	 lea	 eax, DWORD PTR __k$[ebp]
  0025a	50		 push	 eax
  0025b	8b ce		 mov	 ecx, esi
  0025d	ff 15 00 00 00
	00		 call	 DWORD PTR __imp_?LoadInt@ioINILoader@@QAEHPBDH@Z

; 121  : 	}

  00263	8b 4d fc	 mov	 ecx, DWORD PTR __$ArrayPad$[ebp]
  00266	5e		 pop	 esi
  00267	33 cd		 xor	 ecx, ebp
  00269	5b		 pop	 ebx
  0026a	e8 00 00 00 00	 call	 @__security_check_cookie@4
  0026f	c9		 leave
  00270	c2 08 00	 ret	 8
??$LoadInt_e@$0BG@@ioINILoader@@QAEHAAY0BG@$$CBDH@Z ENDP ; ioINILoader::LoadInt_e<22>
_TEXT	ENDS
PUBLIC	_this$GSCopy$
PUBLIC	__$ArrayPad$
PUBLIC	??$LoadString_e@$0BG@@ioINILoader@@QAEXAAY0BG@$$CBDAAY00$$CBDPADH@Z ; ioINILoader::LoadString_e<22>
; Function compile flags: /Ogsp
;	COMDAT ??$LoadString_e@$0BG@@ioINILoader@@QAEXAAY0BG@$$CBDAAY00$$CBDPADH@Z
_TEXT	SEGMENT
_this$GSCopy$ = -36					; size = 4
__k$ = -32						; size = 22
__$ArrayPad$ = -4					; size = 4
_k$ = 8							; size = 4
_d$ = 12						; size = 4
_b$ = 16						; size = 4
_i$ = 20						; size = 4
??$LoadString_e@$0BG@@ioINILoader@@QAEXAAY0BG@$$CBDAAY00$$CBDPADH@Z PROC ; ioINILoader::LoadString_e<22>, COMDAT
; _this$ = ecx

; 161  : 	{

  00000	55		 push	 ebp
  00001	8b ec		 mov	 ebp, esp
  00003	83 ec 24	 sub	 esp, 36			; 00000024H
  00006	a1 00 00 00 00	 mov	 eax, DWORD PTR ___security_cookie
  0000b	33 c5		 xor	 eax, ebp
  0000d	89 45 fc	 mov	 DWORD PTR __$ArrayPad$[ebp], eax
  00010	8b 45 08	 mov	 eax, DWORD PTR _k$[ebp]

; 162  : 		_ENCSTR(k, _k);

  00013	8a 10		 mov	 dl, BYTE PTR [eax]
  00015	53		 push	 ebx
  00016	56		 push	 esi
  00017	8b 75 0c	 mov	 esi, DWORD PTR _d$[ebp]
  0001a	57		 push	 edi
  0001b	8b 7d 10	 mov	 edi, DWORD PTR _b$[ebp]
  0001e	89 4d dc	 mov	 DWORD PTR _this$GSCopy$[ebp], ecx
  00021	84 d2		 test	 dl, dl
  00023	0f 84 15 02 00
	00		 je	 $LN96@LoadString@7
  00029	80 f2 ed	 xor	 dl, -19			; ffffffedH
  0002c	88 55 e0	 mov	 BYTE PTR __k$[ebp], dl
  0002f	8a 50 01	 mov	 dl, BYTE PTR [eax+1]
  00032	84 d2		 test	 dl, dl
  00034	0f 84 fe 01 00
	00		 je	 $LN95@LoadString@7
  0003a	80 f2 ec	 xor	 dl, -20			; ffffffecH
  0003d	88 55 e1	 mov	 BYTE PTR __k$[ebp+1], dl
  00040	8a 50 02	 mov	 dl, BYTE PTR [eax+2]
  00043	84 d2		 test	 dl, dl
  00045	0f 84 e7 01 00
	00		 je	 $LN94@LoadString@7
  0004b	b1 eb		 mov	 cl, -21			; ffffffebH
  0004d	32 d1		 xor	 dl, cl
  0004f	88 55 e2	 mov	 BYTE PTR __k$[ebp+2], dl
  00052	8a 50 03	 mov	 dl, BYTE PTR [eax+3]
  00055	84 d2		 test	 dl, dl
  00057	0f 84 cf 01 00
	00		 je	 $LN93@LoadString@7
  0005d	b3 ea		 mov	 bl, -22			; ffffffeaH
  0005f	32 d3		 xor	 dl, bl
  00061	88 55 e3	 mov	 BYTE PTR __k$[ebp+3], dl
  00064	8a 50 04	 mov	 dl, BYTE PTR [eax+4]
  00067	84 d2		 test	 dl, dl
  00069	0f 84 b7 01 00
	00		 je	 $LN92@LoadString@7
  0006f	80 f2 ed	 xor	 dl, -19			; ffffffedH
  00072	88 55 e4	 mov	 BYTE PTR __k$[ebp+4], dl
  00075	8a 50 05	 mov	 dl, BYTE PTR [eax+5]
  00078	84 d2		 test	 dl, dl
  0007a	0f 84 a0 01 00
	00		 je	 $LN91@LoadString@7
  00080	80 f2 ec	 xor	 dl, -20			; ffffffecH
  00083	88 55 e5	 mov	 BYTE PTR __k$[ebp+5], dl
  00086	8a 50 06	 mov	 dl, BYTE PTR [eax+6]
  00089	84 d2		 test	 dl, dl
  0008b	0f 84 8a 01 00
	00		 je	 $LN90@LoadString@7
  00091	32 d1		 xor	 dl, cl
  00093	88 55 e6	 mov	 BYTE PTR __k$[ebp+6], dl
  00096	8a 50 07	 mov	 dl, BYTE PTR [eax+7]
  00099	84 d2		 test	 dl, dl
  0009b	0f 84 75 01 00
	00		 je	 $LN89@LoadString@7
  000a1	32 d3		 xor	 dl, bl
  000a3	88 55 e7	 mov	 BYTE PTR __k$[ebp+7], dl
  000a6	8a 50 08	 mov	 dl, BYTE PTR [eax+8]
  000a9	84 d2		 test	 dl, dl
  000ab	0f 84 5f 01 00
	00		 je	 $LN88@LoadString@7
  000b1	80 f2 ed	 xor	 dl, -19			; ffffffedH
  000b4	88 55 e8	 mov	 BYTE PTR __k$[ebp+8], dl
  000b7	8a 50 09	 mov	 dl, BYTE PTR [eax+9]
  000ba	84 d2		 test	 dl, dl
  000bc	0f 84 48 01 00
	00		 je	 $LN87@LoadString@7
  000c2	80 f2 ec	 xor	 dl, -20			; ffffffecH
  000c5	88 55 e9	 mov	 BYTE PTR __k$[ebp+9], dl
  000c8	8a 50 0a	 mov	 dl, BYTE PTR [eax+10]
  000cb	84 d2		 test	 dl, dl
  000cd	0f 84 32 01 00
	00		 je	 $LN86@LoadString@7
  000d3	32 d1		 xor	 dl, cl
  000d5	88 55 ea	 mov	 BYTE PTR __k$[ebp+10], dl
  000d8	8a 50 0b	 mov	 dl, BYTE PTR [eax+11]
  000db	84 d2		 test	 dl, dl
  000dd	0f 84 1d 01 00
	00		 je	 $LN85@LoadString@7
  000e3	32 d3		 xor	 dl, bl
  000e5	88 55 eb	 mov	 BYTE PTR __k$[ebp+11], dl
  000e8	8a 50 0c	 mov	 dl, BYTE PTR [eax+12]
  000eb	84 d2		 test	 dl, dl
  000ed	0f 84 07 01 00
	00		 je	 $LN84@LoadString@7
  000f3	80 f2 ed	 xor	 dl, -19			; ffffffedH
  000f6	88 55 ec	 mov	 BYTE PTR __k$[ebp+12], dl
  000f9	8a 50 0d	 mov	 dl, BYTE PTR [eax+13]
  000fc	84 d2		 test	 dl, dl
  000fe	0f 84 f0 00 00
	00		 je	 $LN83@LoadString@7
  00104	80 f2 ec	 xor	 dl, -20			; ffffffecH
  00107	88 55 ed	 mov	 BYTE PTR __k$[ebp+13], dl
  0010a	8a 50 0e	 mov	 dl, BYTE PTR [eax+14]
  0010d	84 d2		 test	 dl, dl
  0010f	0f 84 da 00 00
	00		 je	 $LN82@LoadString@7
  00115	32 d1		 xor	 dl, cl
  00117	88 55 ee	 mov	 BYTE PTR __k$[ebp+14], dl
  0011a	8a 50 0f	 mov	 dl, BYTE PTR [eax+15]
  0011d	84 d2		 test	 dl, dl
  0011f	0f 84 c5 00 00
	00		 je	 $LN81@LoadString@7
  00125	32 d3		 xor	 dl, bl
  00127	88 55 ef	 mov	 BYTE PTR __k$[ebp+15], dl
  0012a	8a 50 10	 mov	 dl, BYTE PTR [eax+16]
  0012d	84 d2		 test	 dl, dl
  0012f	0f 84 af 00 00
	00		 je	 $LN80@LoadString@7
  00135	80 f2 ed	 xor	 dl, -19			; ffffffedH
  00138	88 55 f0	 mov	 BYTE PTR __k$[ebp+16], dl
  0013b	8a 50 11	 mov	 dl, BYTE PTR [eax+17]
  0013e	84 d2		 test	 dl, dl
  00140	0f 84 98 00 00
	00		 je	 $LN79@LoadString@7
  00146	80 f2 ec	 xor	 dl, -20			; ffffffecH
  00149	88 55 f1	 mov	 BYTE PTR __k$[ebp+17], dl
  0014c	8a 50 12	 mov	 dl, BYTE PTR [eax+18]
  0014f	84 d2		 test	 dl, dl
  00151	0f 84 82 00 00
	00		 je	 $LN78@LoadString@7
  00157	32 d1		 xor	 dl, cl
  00159	88 55 f2	 mov	 BYTE PTR __k$[ebp+18], dl
  0015c	8a 50 13	 mov	 dl, BYTE PTR [eax+19]
  0015f	84 d2		 test	 dl, dl
  00161	74 71		 je	 SHORT $LN77@LoadString@7
  00163	32 d3		 xor	 dl, bl
  00165	88 55 f3	 mov	 BYTE PTR __k$[ebp+19], dl
  00168	8a 50 14	 mov	 dl, BYTE PTR [eax+20]
  0016b	84 d2		 test	 dl, dl
  0016d	74 5f		 je	 SHORT $LN76@LoadString@7
  0016f	80 f2 ed	 xor	 dl, -19			; ffffffedH
  00172	80 78 15 00	 cmp	 BYTE PTR [eax+21], 0
  00176	88 55 f4	 mov	 BYTE PTR __k$[ebp+20], dl
  00179	0f 84 c3 00 00
	00		 je	 $LN111@LoadString@7
  0017f	8a 50 16	 mov	 dl, BYTE PTR [eax+22]
  00182	84 d2		 test	 dl, dl
  00184	74 43		 je	 SHORT $LN74@LoadString@7
  00186	32 d1		 xor	 dl, cl
  00188	88 55 f6	 mov	 BYTE PTR __k$[ebp+22], dl
  0018b	8a 50 17	 mov	 dl, BYTE PTR [eax+23]
  0018e	84 d2		 test	 dl, dl
  00190	74 32		 je	 SHORT $LN73@LoadString@7
  00192	32 d3		 xor	 dl, bl
  00194	88 55 f7	 mov	 BYTE PTR __k$[ebp+23], dl
  00197	8a 50 18	 mov	 dl, BYTE PTR [eax+24]
  0019a	84 d2		 test	 dl, dl
  0019c	74 20		 je	 SHORT $LN72@LoadString@7
  0019e	8a 40 19	 mov	 al, BYTE PTR [eax+25]
  001a1	80 f2 ed	 xor	 dl, -19			; ffffffedH
  001a4	88 55 f8	 mov	 BYTE PTR __k$[ebp+24], dl
  001a7	84 c0		 test	 al, al
  001a9	74 0a		 je	 SHORT $LN71@LoadString@7
  001ab	34 ec		 xor	 al, -20			; ffffffecH
  001ad	88 45 f9	 mov	 BYTE PTR __k$[ebp+25], al
  001b0	e9 8d 00 00 00	 jmp	 $LN111@LoadString@7
$LN71@LoadString@7:
  001b5	c6 45 f9 ec	 mov	 BYTE PTR __k$[ebp+25], -20 ; ffffffecH
  001b9	e9 84 00 00 00	 jmp	 $LN111@LoadString@7
$LN72@LoadString@7:
  001be	c6 45 f8 ed	 mov	 BYTE PTR __k$[ebp+24], -19 ; ffffffedH
  001c2	eb 7e		 jmp	 SHORT $LN111@LoadString@7
$LN73@LoadString@7:
  001c4	88 5d f7	 mov	 BYTE PTR __k$[ebp+23], bl
  001c7	eb 79		 jmp	 SHORT $LN111@LoadString@7
$LN74@LoadString@7:
  001c9	88 4d f6	 mov	 BYTE PTR __k$[ebp+22], cl
  001cc	eb 74		 jmp	 SHORT $LN111@LoadString@7
$LN76@LoadString@7:
  001ce	c6 45 f4 ed	 mov	 BYTE PTR __k$[ebp+20], -19 ; ffffffedH
  001d2	eb 6e		 jmp	 SHORT $LN111@LoadString@7
$LN77@LoadString@7:
  001d4	88 5d f3	 mov	 BYTE PTR __k$[ebp+19], bl
  001d7	eb 69		 jmp	 SHORT $LN111@LoadString@7
$LN78@LoadString@7:
  001d9	88 4d f2	 mov	 BYTE PTR __k$[ebp+18], cl
  001dc	eb 64		 jmp	 SHORT $LN111@LoadString@7
$LN79@LoadString@7:
  001de	c6 45 f1 ec	 mov	 BYTE PTR __k$[ebp+17], -20 ; ffffffecH
  001e2	eb 5e		 jmp	 SHORT $LN111@LoadString@7
$LN80@LoadString@7:
  001e4	c6 45 f0 ed	 mov	 BYTE PTR __k$[ebp+16], -19 ; ffffffedH
  001e8	eb 58		 jmp	 SHORT $LN111@LoadString@7
$LN81@LoadString@7:
  001ea	88 5d ef	 mov	 BYTE PTR __k$[ebp+15], bl
  001ed	eb 53		 jmp	 SHORT $LN111@LoadString@7
$LN82@LoadString@7:
  001ef	88 4d ee	 mov	 BYTE PTR __k$[ebp+14], cl
  001f2	eb 4e		 jmp	 SHORT $LN111@LoadString@7
$LN83@LoadString@7:
  001f4	c6 45 ed ec	 mov	 BYTE PTR __k$[ebp+13], -20 ; ffffffecH
  001f8	eb 48		 jmp	 SHORT $LN111@LoadString@7
$LN84@LoadString@7:
  001fa	c6 45 ec ed	 mov	 BYTE PTR __k$[ebp+12], -19 ; ffffffedH
  001fe	eb 42		 jmp	 SHORT $LN111@LoadString@7
$LN85@LoadString@7:
  00200	88 5d eb	 mov	 BYTE PTR __k$[ebp+11], bl
  00203	eb 3d		 jmp	 SHORT $LN111@LoadString@7
$LN86@LoadString@7:
  00205	88 4d ea	 mov	 BYTE PTR __k$[ebp+10], cl
  00208	eb 38		 jmp	 SHORT $LN111@LoadString@7
$LN87@LoadString@7:
  0020a	c6 45 e9 ec	 mov	 BYTE PTR __k$[ebp+9], -20 ; ffffffecH
  0020e	eb 32		 jmp	 SHORT $LN111@LoadString@7
$LN88@LoadString@7:
  00210	c6 45 e8 ed	 mov	 BYTE PTR __k$[ebp+8], -19 ; ffffffedH
  00214	eb 2c		 jmp	 SHORT $LN111@LoadString@7
$LN89@LoadString@7:
  00216	88 5d e7	 mov	 BYTE PTR __k$[ebp+7], bl
  00219	eb 27		 jmp	 SHORT $LN111@LoadString@7
$LN90@LoadString@7:
  0021b	88 4d e6	 mov	 BYTE PTR __k$[ebp+6], cl
  0021e	eb 22		 jmp	 SHORT $LN111@LoadString@7
$LN91@LoadString@7:
  00220	c6 45 e5 ec	 mov	 BYTE PTR __k$[ebp+5], -20 ; ffffffecH
  00224	eb 1c		 jmp	 SHORT $LN111@LoadString@7
$LN92@LoadString@7:
  00226	c6 45 e4 ed	 mov	 BYTE PTR __k$[ebp+4], -19 ; ffffffedH
  0022a	eb 16		 jmp	 SHORT $LN111@LoadString@7
$LN93@LoadString@7:
  0022c	c6 45 e3 ea	 mov	 BYTE PTR __k$[ebp+3], -22 ; ffffffeaH
  00230	eb 10		 jmp	 SHORT $LN111@LoadString@7
$LN94@LoadString@7:
  00232	c6 45 e2 eb	 mov	 BYTE PTR __k$[ebp+2], -21 ; ffffffebH
  00236	eb 0a		 jmp	 SHORT $LN111@LoadString@7
$LN95@LoadString@7:
  00238	c6 45 e1 ec	 mov	 BYTE PTR __k$[ebp+1], -20 ; ffffffecH
  0023c	eb 04		 jmp	 SHORT $LN111@LoadString@7
$LN96@LoadString@7:
  0023e	c6 45 e0 ed	 mov	 BYTE PTR __k$[ebp], -19	; ffffffedH
$LN111@LoadString@7:
  00242	6a 05		 push	 5
  00244	8d 45 e0	 lea	 eax, DWORD PTR __k$[ebp]
  00247	c6 45 f5 00	 mov	 BYTE PTR __k$[ebp+21], 0
  0024b	5a		 pop	 edx
$LL104@LoadString@7:
  0024c	81 30 ed ec eb
	ea		 xor	 DWORD PTR [eax], -353637139 ; eaebecedH
  00252	83 c0 04	 add	 eax, 4
  00255	4a		 dec	 edx
  00256	75 f4		 jne	 SHORT $LL104@LoadString@7

; 163  : 		LoadString(_k, d, b, i);

  00258	ff 75 14	 push	 DWORD PTR _i$[ebp]
  0025b	8b 4d dc	 mov	 ecx, DWORD PTR _this$GSCopy$[ebp]
  0025e	80 75 f4 ed	 xor	 BYTE PTR __k$[ebp+20], -19 ; ffffffedH
  00262	57		 push	 edi
  00263	56		 push	 esi
  00264	8d 45 e0	 lea	 eax, DWORD PTR __k$[ebp]
  00267	50		 push	 eax
  00268	ff 15 00 00 00
	00		 call	 DWORD PTR __imp_?LoadStringA@ioINILoader@@QAEXPBD0PADH@Z

; 164  : 	}

  0026e	8b 4d fc	 mov	 ecx, DWORD PTR __$ArrayPad$[ebp]
  00271	5f		 pop	 edi
  00272	5e		 pop	 esi
  00273	33 cd		 xor	 ecx, ebp
  00275	5b		 pop	 ebx
  00276	e8 00 00 00 00	 call	 @__security_check_cookie@4
  0027b	c9		 leave
  0027c	c2 10 00	 ret	 16			; 00000010H
??$LoadString_e@$0BG@@ioINILoader@@QAEXAAY0BG@$$CBDAAY00$$CBDPADH@Z ENDP ; ioINILoader::LoadString_e<22>
_TEXT	ENDS
PUBLIC	__$ArrayPad$
PUBLIC	??$LoadFloat_e@$0BF@@ioINILoader@@QAEMAAY0BF@$$CBDM@Z ; ioINILoader::LoadFloat_e<21>
EXTRN	__imp_?LoadFloat@ioINILoader@@QAEMPBDM@Z:PROC
; Function compile flags: /Ogsp
;	COMDAT ??$LoadFloat_e@$0BF@@ioINILoader@@QAEMAAY0BF@$$CBDM@Z
_TEXT	SEGMENT
__k$ = -32						; size = 21
__$ArrayPad$ = -4					; size = 4
_k$ = 8							; size = 4
_f$ = 12						; size = 4
??$LoadFloat_e@$0BF@@ioINILoader@@QAEMAAY0BF@$$CBDM@Z PROC ; ioINILoader::LoadFloat_e<21>, COMDAT
; _this$ = ecx

; 135  : 	{

  00000	55		 push	 ebp
  00001	8b ec		 mov	 ebp, esp
  00003	83 ec 20	 sub	 esp, 32			; 00000020H
  00006	a1 00 00 00 00	 mov	 eax, DWORD PTR ___security_cookie
  0000b	33 c5		 xor	 eax, ebp
  0000d	89 45 fc	 mov	 DWORD PTR __$ArrayPad$[ebp], eax
  00010	8b 45 08	 mov	 eax, DWORD PTR _k$[ebp]

; 136  : 		_ENCSTR(k, _k);

  00013	8a 10		 mov	 dl, BYTE PTR [eax]
  00015	53		 push	 ebx
  00016	56		 push	 esi
  00017	8b f1		 mov	 esi, ecx
  00019	84 d2		 test	 dl, dl
  0001b	0f 84 f7 01 00
	00		 je	 $LN96@LoadFloat_
  00021	80 f2 ed	 xor	 dl, -19			; ffffffedH
  00024	88 55 e0	 mov	 BYTE PTR __k$[ebp], dl
  00027	8a 50 01	 mov	 dl, BYTE PTR [eax+1]
  0002a	84 d2		 test	 dl, dl
  0002c	0f 84 e0 01 00
	00		 je	 $LN95@LoadFloat_
  00032	b1 ec		 mov	 cl, -20			; ffffffecH
  00034	32 d1		 xor	 dl, cl
  00036	88 55 e1	 mov	 BYTE PTR __k$[ebp+1], dl
  00039	8a 50 02	 mov	 dl, BYTE PTR [eax+2]
  0003c	84 d2		 test	 dl, dl
  0003e	0f 84 c8 01 00
	00		 je	 $LN94@LoadFloat_
  00044	b3 eb		 mov	 bl, -21			; ffffffebH
  00046	32 d3		 xor	 dl, bl
  00048	88 55 e2	 mov	 BYTE PTR __k$[ebp+2], dl
  0004b	8a 50 03	 mov	 dl, BYTE PTR [eax+3]
  0004e	84 d2		 test	 dl, dl
  00050	0f 84 b0 01 00
	00		 je	 $LN93@LoadFloat_
  00056	80 f2 ea	 xor	 dl, -22			; ffffffeaH
  00059	88 55 e3	 mov	 BYTE PTR __k$[ebp+3], dl
  0005c	8a 50 04	 mov	 dl, BYTE PTR [eax+4]
  0005f	84 d2		 test	 dl, dl
  00061	0f 84 99 01 00
	00		 je	 $LN92@LoadFloat_
  00067	80 f2 ed	 xor	 dl, -19			; ffffffedH
  0006a	88 55 e4	 mov	 BYTE PTR __k$[ebp+4], dl
  0006d	8a 50 05	 mov	 dl, BYTE PTR [eax+5]
  00070	84 d2		 test	 dl, dl
  00072	0f 84 83 01 00
	00		 je	 $LN91@LoadFloat_
  00078	32 d1		 xor	 dl, cl
  0007a	88 55 e5	 mov	 BYTE PTR __k$[ebp+5], dl
  0007d	8a 50 06	 mov	 dl, BYTE PTR [eax+6]
  00080	84 d2		 test	 dl, dl
  00082	0f 84 6e 01 00
	00		 je	 $LN90@LoadFloat_
  00088	32 d3		 xor	 dl, bl
  0008a	88 55 e6	 mov	 BYTE PTR __k$[ebp+6], dl
  0008d	8a 50 07	 mov	 dl, BYTE PTR [eax+7]
  00090	84 d2		 test	 dl, dl
  00092	0f 84 58 01 00
	00		 je	 $LN89@LoadFloat_
  00098	80 f2 ea	 xor	 dl, -22			; ffffffeaH
  0009b	88 55 e7	 mov	 BYTE PTR __k$[ebp+7], dl
  0009e	8a 50 08	 mov	 dl, BYTE PTR [eax+8]
  000a1	84 d2		 test	 dl, dl
  000a3	0f 84 41 01 00
	00		 je	 $LN88@LoadFloat_
  000a9	80 f2 ed	 xor	 dl, -19			; ffffffedH
  000ac	88 55 e8	 mov	 BYTE PTR __k$[ebp+8], dl
  000af	8a 50 09	 mov	 dl, BYTE PTR [eax+9]
  000b2	84 d2		 test	 dl, dl
  000b4	0f 84 2b 01 00
	00		 je	 $LN87@LoadFloat_
  000ba	32 d1		 xor	 dl, cl
  000bc	88 55 e9	 mov	 BYTE PTR __k$[ebp+9], dl
  000bf	8a 50 0a	 mov	 dl, BYTE PTR [eax+10]
  000c2	84 d2		 test	 dl, dl
  000c4	0f 84 16 01 00
	00		 je	 $LN86@LoadFloat_
  000ca	32 d3		 xor	 dl, bl
  000cc	88 55 ea	 mov	 BYTE PTR __k$[ebp+10], dl
  000cf	8a 50 0b	 mov	 dl, BYTE PTR [eax+11]
  000d2	84 d2		 test	 dl, dl
  000d4	0f 84 00 01 00
	00		 je	 $LN85@LoadFloat_
  000da	80 f2 ea	 xor	 dl, -22			; ffffffeaH
  000dd	88 55 eb	 mov	 BYTE PTR __k$[ebp+11], dl
  000e0	8a 50 0c	 mov	 dl, BYTE PTR [eax+12]
  000e3	84 d2		 test	 dl, dl
  000e5	0f 84 e9 00 00
	00		 je	 $LN84@LoadFloat_
  000eb	80 f2 ed	 xor	 dl, -19			; ffffffedH
  000ee	88 55 ec	 mov	 BYTE PTR __k$[ebp+12], dl
  000f1	8a 50 0d	 mov	 dl, BYTE PTR [eax+13]
  000f4	84 d2		 test	 dl, dl
  000f6	0f 84 d3 00 00
	00		 je	 $LN83@LoadFloat_
  000fc	32 d1		 xor	 dl, cl
  000fe	88 55 ed	 mov	 BYTE PTR __k$[ebp+13], dl
  00101	8a 50 0e	 mov	 dl, BYTE PTR [eax+14]
  00104	84 d2		 test	 dl, dl
  00106	0f 84 be 00 00
	00		 je	 $LN82@LoadFloat_
  0010c	32 d3		 xor	 dl, bl
  0010e	88 55 ee	 mov	 BYTE PTR __k$[ebp+14], dl
  00111	8a 50 0f	 mov	 dl, BYTE PTR [eax+15]
  00114	84 d2		 test	 dl, dl
  00116	0f 84 a8 00 00
	00		 je	 $LN81@LoadFloat_
  0011c	80 f2 ea	 xor	 dl, -22			; ffffffeaH
  0011f	88 55 ef	 mov	 BYTE PTR __k$[ebp+15], dl
  00122	8a 50 10	 mov	 dl, BYTE PTR [eax+16]
  00125	84 d2		 test	 dl, dl
  00127	0f 84 91 00 00
	00		 je	 $LN80@LoadFloat_
  0012d	80 f2 ed	 xor	 dl, -19			; ffffffedH
  00130	88 55 f0	 mov	 BYTE PTR __k$[ebp+16], dl
  00133	8a 50 11	 mov	 dl, BYTE PTR [eax+17]
  00136	84 d2		 test	 dl, dl
  00138	74 7f		 je	 SHORT $LN79@LoadFloat_
  0013a	32 d1		 xor	 dl, cl
  0013c	88 55 f1	 mov	 BYTE PTR __k$[ebp+17], dl
  0013f	8a 50 12	 mov	 dl, BYTE PTR [eax+18]
  00142	84 d2		 test	 dl, dl
  00144	74 6e		 je	 SHORT $LN78@LoadFloat_
  00146	32 d3		 xor	 dl, bl
  00148	88 55 f2	 mov	 BYTE PTR __k$[ebp+18], dl
  0014b	8a 50 13	 mov	 dl, BYTE PTR [eax+19]
  0014e	84 d2		 test	 dl, dl
  00150	74 5c		 je	 SHORT $LN77@LoadFloat_
  00152	80 f2 ea	 xor	 dl, -22			; ffffffeaH
  00155	80 78 14 00	 cmp	 BYTE PTR [eax+20], 0
  00159	88 55 f3	 mov	 BYTE PTR __k$[ebp+19], dl
  0015c	0f 84 ba 00 00
	00		 je	 $LN1@LoadFloat_
  00162	8a 50 15	 mov	 dl, BYTE PTR [eax+21]
  00165	84 d2		 test	 dl, dl
  00167	74 40		 je	 SHORT $LN75@LoadFloat_
  00169	32 d1		 xor	 dl, cl
  0016b	88 55 f5	 mov	 BYTE PTR __k$[ebp+21], dl
  0016e	8a 50 16	 mov	 dl, BYTE PTR [eax+22]
  00171	84 d2		 test	 dl, dl
  00173	74 2f		 je	 SHORT $LN74@LoadFloat_
  00175	32 d3		 xor	 dl, bl
  00177	88 55 f6	 mov	 BYTE PTR __k$[ebp+22], dl
  0017a	8a 50 17	 mov	 dl, BYTE PTR [eax+23]
  0017d	84 d2		 test	 dl, dl
  0017f	74 1d		 je	 SHORT $LN73@LoadFloat_
  00181	8a 40 18	 mov	 al, BYTE PTR [eax+24]
  00184	80 f2 ea	 xor	 dl, -22			; ffffffeaH
  00187	88 55 f7	 mov	 BYTE PTR __k$[ebp+23], dl
  0018a	84 c0		 test	 al, al
  0018c	74 0a		 je	 SHORT $LN72@LoadFloat_
  0018e	34 ed		 xor	 al, -19			; ffffffedH
  00190	88 45 f8	 mov	 BYTE PTR __k$[ebp+24], al
  00193	e9 84 00 00 00	 jmp	 $LN1@LoadFloat_
$LN72@LoadFloat_:
  00198	c6 45 f8 ed	 mov	 BYTE PTR __k$[ebp+24], -19 ; ffffffedH
  0019c	eb 7e		 jmp	 SHORT $LN1@LoadFloat_
$LN73@LoadFloat_:
  0019e	c6 45 f7 ea	 mov	 BYTE PTR __k$[ebp+23], -22 ; ffffffeaH
  001a2	eb 78		 jmp	 SHORT $LN1@LoadFloat_
$LN74@LoadFloat_:
  001a4	88 5d f6	 mov	 BYTE PTR __k$[ebp+22], bl
  001a7	eb 73		 jmp	 SHORT $LN1@LoadFloat_
$LN75@LoadFloat_:
  001a9	88 4d f5	 mov	 BYTE PTR __k$[ebp+21], cl
  001ac	eb 6e		 jmp	 SHORT $LN1@LoadFloat_
$LN77@LoadFloat_:
  001ae	c6 45 f3 ea	 mov	 BYTE PTR __k$[ebp+19], -22 ; ffffffeaH
  001b2	eb 68		 jmp	 SHORT $LN1@LoadFloat_
$LN78@LoadFloat_:
  001b4	88 5d f2	 mov	 BYTE PTR __k$[ebp+18], bl
  001b7	eb 63		 jmp	 SHORT $LN1@LoadFloat_
$LN79@LoadFloat_:
  001b9	88 4d f1	 mov	 BYTE PTR __k$[ebp+17], cl
  001bc	eb 5e		 jmp	 SHORT $LN1@LoadFloat_
$LN80@LoadFloat_:
  001be	c6 45 f0 ed	 mov	 BYTE PTR __k$[ebp+16], -19 ; ffffffedH
  001c2	eb 58		 jmp	 SHORT $LN1@LoadFloat_
$LN81@LoadFloat_:
  001c4	c6 45 ef ea	 mov	 BYTE PTR __k$[ebp+15], -22 ; ffffffeaH
  001c8	eb 52		 jmp	 SHORT $LN1@LoadFloat_
$LN82@LoadFloat_:
  001ca	88 5d ee	 mov	 BYTE PTR __k$[ebp+14], bl
  001cd	eb 4d		 jmp	 SHORT $LN1@LoadFloat_
$LN83@LoadFloat_:
  001cf	88 4d ed	 mov	 BYTE PTR __k$[ebp+13], cl
  001d2	eb 48		 jmp	 SHORT $LN1@LoadFloat_
$LN84@LoadFloat_:
  001d4	c6 45 ec ed	 mov	 BYTE PTR __k$[ebp+12], -19 ; ffffffedH
  001d8	eb 42		 jmp	 SHORT $LN1@LoadFloat_
$LN85@LoadFloat_:
  001da	c6 45 eb ea	 mov	 BYTE PTR __k$[ebp+11], -22 ; ffffffeaH
  001de	eb 3c		 jmp	 SHORT $LN1@LoadFloat_
$LN86@LoadFloat_:
  001e0	88 5d ea	 mov	 BYTE PTR __k$[ebp+10], bl
  001e3	eb 37		 jmp	 SHORT $LN1@LoadFloat_
$LN87@LoadFloat_:
  001e5	88 4d e9	 mov	 BYTE PTR __k$[ebp+9], cl
  001e8	eb 32		 jmp	 SHORT $LN1@LoadFloat_
$LN88@LoadFloat_:
  001ea	c6 45 e8 ed	 mov	 BYTE PTR __k$[ebp+8], -19 ; ffffffedH
  001ee	eb 2c		 jmp	 SHORT $LN1@LoadFloat_
$LN89@LoadFloat_:
  001f0	c6 45 e7 ea	 mov	 BYTE PTR __k$[ebp+7], -22 ; ffffffeaH
  001f4	eb 26		 jmp	 SHORT $LN1@LoadFloat_
$LN90@LoadFloat_:
  001f6	88 5d e6	 mov	 BYTE PTR __k$[ebp+6], bl
  001f9	eb 21		 jmp	 SHORT $LN1@LoadFloat_
$LN91@LoadFloat_:
  001fb	88 4d e5	 mov	 BYTE PTR __k$[ebp+5], cl
  001fe	eb 1c		 jmp	 SHORT $LN1@LoadFloat_
$LN92@LoadFloat_:
  00200	c6 45 e4 ed	 mov	 BYTE PTR __k$[ebp+4], -19 ; ffffffedH
  00204	eb 16		 jmp	 SHORT $LN1@LoadFloat_
$LN93@LoadFloat_:
  00206	c6 45 e3 ea	 mov	 BYTE PTR __k$[ebp+3], -22 ; ffffffeaH
  0020a	eb 10		 jmp	 SHORT $LN1@LoadFloat_
$LN94@LoadFloat_:
  0020c	c6 45 e2 eb	 mov	 BYTE PTR __k$[ebp+2], -21 ; ffffffebH
  00210	eb 0a		 jmp	 SHORT $LN1@LoadFloat_
$LN95@LoadFloat_:
  00212	c6 45 e1 ec	 mov	 BYTE PTR __k$[ebp+1], -20 ; ffffffecH
  00216	eb 04		 jmp	 SHORT $LN1@LoadFloat_
$LN96@LoadFloat_:
  00218	c6 45 e0 ed	 mov	 BYTE PTR __k$[ebp], -19	; ffffffedH
$LN1@LoadFloat_:
  0021c	6a 05		 push	 5
  0021e	8d 45 e0	 lea	 eax, DWORD PTR __k$[ebp]
  00221	c6 45 f4 00	 mov	 BYTE PTR __k$[ebp+20], 0
  00225	5a		 pop	 edx
$LL104@LoadFloat_:
  00226	81 30 ed ec eb
	ea		 xor	 DWORD PTR [eax], -353637139 ; eaebecedH
  0022c	83 c0 04	 add	 eax, 4
  0022f	4a		 dec	 edx
  00230	75 f4		 jne	 SHORT $LL104@LoadFloat_

; 137  : 		return LoadFloat(_k, f);

  00232	f3 0f 10 45 0c	 movss	 xmm0, DWORD PTR _f$[ebp]
  00237	51		 push	 ecx
  00238	8d 45 e0	 lea	 eax, DWORD PTR __k$[ebp]
  0023b	f3 0f 11 04 24	 movss	 DWORD PTR [esp], xmm0
  00240	50		 push	 eax
  00241	8b ce		 mov	 ecx, esi
  00243	ff 15 00 00 00
	00		 call	 DWORD PTR __imp_?LoadFloat@ioINILoader@@QAEMPBDM@Z

; 138  : 	}

  00249	8b 4d fc	 mov	 ecx, DWORD PTR __$ArrayPad$[ebp]
  0024c	5e		 pop	 esi
  0024d	33 cd		 xor	 ecx, ebp
  0024f	5b		 pop	 ebx
  00250	e8 00 00 00 00	 call	 @__security_check_cookie@4
  00255	c9		 leave
  00256	c2 08 00	 ret	 8
??$LoadFloat_e@$0BF@@ioINILoader@@QAEMAAY0BF@$$CBDM@Z ENDP ; ioINILoader::LoadFloat_e<21>
_TEXT	ENDS
PUBLIC	__$ArrayPad$
PUBLIC	??$LoadFloat_e@$0BG@@ioINILoader@@QAEMAAY0BG@$$CBDM@Z ; ioINILoader::LoadFloat_e<22>
; Function compile flags: /Ogsp
;	COMDAT ??$LoadFloat_e@$0BG@@ioINILoader@@QAEMAAY0BG@$$CBDM@Z
_TEXT	SEGMENT
__k$ = -32						; size = 22
__$ArrayPad$ = -4					; size = 4
_k$ = 8							; size = 4
_f$ = 12						; size = 4
??$LoadFloat_e@$0BG@@ioINILoader@@QAEMAAY0BG@$$CBDM@Z PROC ; ioINILoader::LoadFloat_e<22>, COMDAT
; _this$ = ecx

; 135  : 	{

  00000	55		 push	 ebp
  00001	8b ec		 mov	 ebp, esp
  00003	83 ec 20	 sub	 esp, 32			; 00000020H
  00006	a1 00 00 00 00	 mov	 eax, DWORD PTR ___security_cookie
  0000b	33 c5		 xor	 eax, ebp
  0000d	89 45 fc	 mov	 DWORD PTR __$ArrayPad$[ebp], eax
  00010	8b 45 08	 mov	 eax, DWORD PTR _k$[ebp]

; 136  : 		_ENCSTR(k, _k);

  00013	8a 10		 mov	 dl, BYTE PTR [eax]
  00015	53		 push	 ebx
  00016	56		 push	 esi
  00017	8b f1		 mov	 esi, ecx
  00019	84 d2		 test	 dl, dl
  0001b	0f 84 15 02 00
	00		 je	 $LN96@LoadFloat_@2
  00021	80 f2 ed	 xor	 dl, -19			; ffffffedH
  00024	88 55 e0	 mov	 BYTE PTR __k$[ebp], dl
  00027	8a 50 01	 mov	 dl, BYTE PTR [eax+1]
  0002a	84 d2		 test	 dl, dl
  0002c	0f 84 fe 01 00
	00		 je	 $LN95@LoadFloat_@2
  00032	80 f2 ec	 xor	 dl, -20			; ffffffecH
  00035	88 55 e1	 mov	 BYTE PTR __k$[ebp+1], dl
  00038	8a 50 02	 mov	 dl, BYTE PTR [eax+2]
  0003b	84 d2		 test	 dl, dl
  0003d	0f 84 e7 01 00
	00		 je	 $LN94@LoadFloat_@2
  00043	b1 eb		 mov	 cl, -21			; ffffffebH
  00045	32 d1		 xor	 dl, cl
  00047	88 55 e2	 mov	 BYTE PTR __k$[ebp+2], dl
  0004a	8a 50 03	 mov	 dl, BYTE PTR [eax+3]
  0004d	84 d2		 test	 dl, dl
  0004f	0f 84 cf 01 00
	00		 je	 $LN93@LoadFloat_@2
  00055	b3 ea		 mov	 bl, -22			; ffffffeaH
  00057	32 d3		 xor	 dl, bl
  00059	88 55 e3	 mov	 BYTE PTR __k$[ebp+3], dl
  0005c	8a 50 04	 mov	 dl, BYTE PTR [eax+4]
  0005f	84 d2		 test	 dl, dl
  00061	0f 84 b7 01 00
	00		 je	 $LN92@LoadFloat_@2
  00067	80 f2 ed	 xor	 dl, -19			; ffffffedH
  0006a	88 55 e4	 mov	 BYTE PTR __k$[ebp+4], dl
  0006d	8a 50 05	 mov	 dl, BYTE PTR [eax+5]
  00070	84 d2		 test	 dl, dl
  00072	0f 84 a0 01 00
	00		 je	 $LN91@LoadFloat_@2
  00078	80 f2 ec	 xor	 dl, -20			; ffffffecH
  0007b	88 55 e5	 mov	 BYTE PTR __k$[ebp+5], dl
  0007e	8a 50 06	 mov	 dl, BYTE PTR [eax+6]
  00081	84 d2		 test	 dl, dl
  00083	0f 84 8a 01 00
	00		 je	 $LN90@LoadFloat_@2
  00089	32 d1		 xor	 dl, cl
  0008b	88 55 e6	 mov	 BYTE PTR __k$[ebp+6], dl
  0008e	8a 50 07	 mov	 dl, BYTE PTR [eax+7]
  00091	84 d2		 test	 dl, dl
  00093	0f 84 75 01 00
	00		 je	 $LN89@LoadFloat_@2
  00099	32 d3		 xor	 dl, bl
  0009b	88 55 e7	 mov	 BYTE PTR __k$[ebp+7], dl
  0009e	8a 50 08	 mov	 dl, BYTE PTR [eax+8]
  000a1	84 d2		 test	 dl, dl
  000a3	0f 84 5f 01 00
	00		 je	 $LN88@LoadFloat_@2
  000a9	80 f2 ed	 xor	 dl, -19			; ffffffedH
  000ac	88 55 e8	 mov	 BYTE PTR __k$[ebp+8], dl
  000af	8a 50 09	 mov	 dl, BYTE PTR [eax+9]
  000b2	84 d2		 test	 dl, dl
  000b4	0f 84 48 01 00
	00		 je	 $LN87@LoadFloat_@2
  000ba	80 f2 ec	 xor	 dl, -20			; ffffffecH
  000bd	88 55 e9	 mov	 BYTE PTR __k$[ebp+9], dl
  000c0	8a 50 0a	 mov	 dl, BYTE PTR [eax+10]
  000c3	84 d2		 test	 dl, dl
  000c5	0f 84 32 01 00
	00		 je	 $LN86@LoadFloat_@2
  000cb	32 d1		 xor	 dl, cl
  000cd	88 55 ea	 mov	 BYTE PTR __k$[ebp+10], dl
  000d0	8a 50 0b	 mov	 dl, BYTE PTR [eax+11]
  000d3	84 d2		 test	 dl, dl
  000d5	0f 84 1d 01 00
	00		 je	 $LN85@LoadFloat_@2
  000db	32 d3		 xor	 dl, bl
  000dd	88 55 eb	 mov	 BYTE PTR __k$[ebp+11], dl
  000e0	8a 50 0c	 mov	 dl, BYTE PTR [eax+12]
  000e3	84 d2		 test	 dl, dl
  000e5	0f 84 07 01 00
	00		 je	 $LN84@LoadFloat_@2
  000eb	80 f2 ed	 xor	 dl, -19			; ffffffedH
  000ee	88 55 ec	 mov	 BYTE PTR __k$[ebp+12], dl
  000f1	8a 50 0d	 mov	 dl, BYTE PTR [eax+13]
  000f4	84 d2		 test	 dl, dl
  000f6	0f 84 f0 00 00
	00		 je	 $LN83@LoadFloat_@2
  000fc	80 f2 ec	 xor	 dl, -20			; ffffffecH
  000ff	88 55 ed	 mov	 BYTE PTR __k$[ebp+13], dl
  00102	8a 50 0e	 mov	 dl, BYTE PTR [eax+14]
  00105	84 d2		 test	 dl, dl
  00107	0f 84 da 00 00
	00		 je	 $LN82@LoadFloat_@2
  0010d	32 d1		 xor	 dl, cl
  0010f	88 55 ee	 mov	 BYTE PTR __k$[ebp+14], dl
  00112	8a 50 0f	 mov	 dl, BYTE PTR [eax+15]
  00115	84 d2		 test	 dl, dl
  00117	0f 84 c5 00 00
	00		 je	 $LN81@LoadFloat_@2
  0011d	32 d3		 xor	 dl, bl
  0011f	88 55 ef	 mov	 BYTE PTR __k$[ebp+15], dl
  00122	8a 50 10	 mov	 dl, BYTE PTR [eax+16]
  00125	84 d2		 test	 dl, dl
  00127	0f 84 af 00 00
	00		 je	 $LN80@LoadFloat_@2
  0012d	80 f2 ed	 xor	 dl, -19			; ffffffedH
  00130	88 55 f0	 mov	 BYTE PTR __k$[ebp+16], dl
  00133	8a 50 11	 mov	 dl, BYTE PTR [eax+17]
  00136	84 d2		 test	 dl, dl
  00138	0f 84 98 00 00
	00		 je	 $LN79@LoadFloat_@2
  0013e	80 f2 ec	 xor	 dl, -20			; ffffffecH
  00141	88 55 f1	 mov	 BYTE PTR __k$[ebp+17], dl
  00144	8a 50 12	 mov	 dl, BYTE PTR [eax+18]
  00147	84 d2		 test	 dl, dl
  00149	0f 84 82 00 00
	00		 je	 $LN78@LoadFloat_@2
  0014f	32 d1		 xor	 dl, cl
  00151	88 55 f2	 mov	 BYTE PTR __k$[ebp+18], dl
  00154	8a 50 13	 mov	 dl, BYTE PTR [eax+19]
  00157	84 d2		 test	 dl, dl
  00159	74 71		 je	 SHORT $LN77@LoadFloat_@2
  0015b	32 d3		 xor	 dl, bl
  0015d	88 55 f3	 mov	 BYTE PTR __k$[ebp+19], dl
  00160	8a 50 14	 mov	 dl, BYTE PTR [eax+20]
  00163	84 d2		 test	 dl, dl
  00165	74 5f		 je	 SHORT $LN76@LoadFloat_@2
  00167	80 f2 ed	 xor	 dl, -19			; ffffffedH
  0016a	80 78 15 00	 cmp	 BYTE PTR [eax+21], 0
  0016e	88 55 f4	 mov	 BYTE PTR __k$[ebp+20], dl
  00171	0f 84 c3 00 00
	00		 je	 $LN1@LoadFloat_@2
  00177	8a 50 16	 mov	 dl, BYTE PTR [eax+22]
  0017a	84 d2		 test	 dl, dl
  0017c	74 43		 je	 SHORT $LN74@LoadFloat_@2
  0017e	32 d1		 xor	 dl, cl
  00180	88 55 f6	 mov	 BYTE PTR __k$[ebp+22], dl
  00183	8a 50 17	 mov	 dl, BYTE PTR [eax+23]
  00186	84 d2		 test	 dl, dl
  00188	74 32		 je	 SHORT $LN73@LoadFloat_@2
  0018a	32 d3		 xor	 dl, bl
  0018c	88 55 f7	 mov	 BYTE PTR __k$[ebp+23], dl
  0018f	8a 50 18	 mov	 dl, BYTE PTR [eax+24]
  00192	84 d2		 test	 dl, dl
  00194	74 20		 je	 SHORT $LN72@LoadFloat_@2
  00196	8a 40 19	 mov	 al, BYTE PTR [eax+25]
  00199	80 f2 ed	 xor	 dl, -19			; ffffffedH
  0019c	88 55 f8	 mov	 BYTE PTR __k$[ebp+24], dl
  0019f	84 c0		 test	 al, al
  001a1	74 0a		 je	 SHORT $LN71@LoadFloat_@2
  001a3	34 ec		 xor	 al, -20			; ffffffecH
  001a5	88 45 f9	 mov	 BYTE PTR __k$[ebp+25], al
  001a8	e9 8d 00 00 00	 jmp	 $LN1@LoadFloat_@2
$LN71@LoadFloat_@2:
  001ad	c6 45 f9 ec	 mov	 BYTE PTR __k$[ebp+25], -20 ; ffffffecH
  001b1	e9 84 00 00 00	 jmp	 $LN1@LoadFloat_@2
$LN72@LoadFloat_@2:
  001b6	c6 45 f8 ed	 mov	 BYTE PTR __k$[ebp+24], -19 ; ffffffedH
  001ba	eb 7e		 jmp	 SHORT $LN1@LoadFloat_@2
$LN73@LoadFloat_@2:
  001bc	88 5d f7	 mov	 BYTE PTR __k$[ebp+23], bl
  001bf	eb 79		 jmp	 SHORT $LN1@LoadFloat_@2
$LN74@LoadFloat_@2:
  001c1	88 4d f6	 mov	 BYTE PTR __k$[ebp+22], cl
  001c4	eb 74		 jmp	 SHORT $LN1@LoadFloat_@2
$LN76@LoadFloat_@2:
  001c6	c6 45 f4 ed	 mov	 BYTE PTR __k$[ebp+20], -19 ; ffffffedH
  001ca	eb 6e		 jmp	 SHORT $LN1@LoadFloat_@2
$LN77@LoadFloat_@2:
  001cc	88 5d f3	 mov	 BYTE PTR __k$[ebp+19], bl
  001cf	eb 69		 jmp	 SHORT $LN1@LoadFloat_@2
$LN78@LoadFloat_@2:
  001d1	88 4d f2	 mov	 BYTE PTR __k$[ebp+18], cl
  001d4	eb 64		 jmp	 SHORT $LN1@LoadFloat_@2
$LN79@LoadFloat_@2:
  001d6	c6 45 f1 ec	 mov	 BYTE PTR __k$[ebp+17], -20 ; ffffffecH
  001da	eb 5e		 jmp	 SHORT $LN1@LoadFloat_@2
$LN80@LoadFloat_@2:
  001dc	c6 45 f0 ed	 mov	 BYTE PTR __k$[ebp+16], -19 ; ffffffedH
  001e0	eb 58		 jmp	 SHORT $LN1@LoadFloat_@2
$LN81@LoadFloat_@2:
  001e2	88 5d ef	 mov	 BYTE PTR __k$[ebp+15], bl
  001e5	eb 53		 jmp	 SHORT $LN1@LoadFloat_@2
$LN82@LoadFloat_@2:
  001e7	88 4d ee	 mov	 BYTE PTR __k$[ebp+14], cl
  001ea	eb 4e		 jmp	 SHORT $LN1@LoadFloat_@2
$LN83@LoadFloat_@2:
  001ec	c6 45 ed ec	 mov	 BYTE PTR __k$[ebp+13], -20 ; ffffffecH
  001f0	eb 48		 jmp	 SHORT $LN1@LoadFloat_@2
$LN84@LoadFloat_@2:
  001f2	c6 45 ec ed	 mov	 BYTE PTR __k$[ebp+12], -19 ; ffffffedH
  001f6	eb 42		 jmp	 SHORT $LN1@LoadFloat_@2
$LN85@LoadFloat_@2:
  001f8	88 5d eb	 mov	 BYTE PTR __k$[ebp+11], bl
  001fb	eb 3d		 jmp	 SHORT $LN1@LoadFloat_@2
$LN86@LoadFloat_@2:
  001fd	88 4d ea	 mov	 BYTE PTR __k$[ebp+10], cl
  00200	eb 38		 jmp	 SHORT $LN1@LoadFloat_@2
$LN87@LoadFloat_@2:
  00202	c6 45 e9 ec	 mov	 BYTE PTR __k$[ebp+9], -20 ; ffffffecH
  00206	eb 32		 jmp	 SHORT $LN1@LoadFloat_@2
$LN88@LoadFloat_@2:
  00208	c6 45 e8 ed	 mov	 BYTE PTR __k$[ebp+8], -19 ; ffffffedH
  0020c	eb 2c		 jmp	 SHORT $LN1@LoadFloat_@2
$LN89@LoadFloat_@2:
  0020e	88 5d e7	 mov	 BYTE PTR __k$[ebp+7], bl
  00211	eb 27		 jmp	 SHORT $LN1@LoadFloat_@2
$LN90@LoadFloat_@2:
  00213	88 4d e6	 mov	 BYTE PTR __k$[ebp+6], cl
  00216	eb 22		 jmp	 SHORT $LN1@LoadFloat_@2
$LN91@LoadFloat_@2:
  00218	c6 45 e5 ec	 mov	 BYTE PTR __k$[ebp+5], -20 ; ffffffecH
  0021c	eb 1c		 jmp	 SHORT $LN1@LoadFloat_@2
$LN92@LoadFloat_@2:
  0021e	c6 45 e4 ed	 mov	 BYTE PTR __k$[ebp+4], -19 ; ffffffedH
  00222	eb 16		 jmp	 SHORT $LN1@LoadFloat_@2
$LN93@LoadFloat_@2:
  00224	c6 45 e3 ea	 mov	 BYTE PTR __k$[ebp+3], -22 ; ffffffeaH
  00228	eb 10		 jmp	 SHORT $LN1@LoadFloat_@2
$LN94@LoadFloat_@2:
  0022a	c6 45 e2 eb	 mov	 BYTE PTR __k$[ebp+2], -21 ; ffffffebH
  0022e	eb 0a		 jmp	 SHORT $LN1@LoadFloat_@2
$LN95@LoadFloat_@2:
  00230	c6 45 e1 ec	 mov	 BYTE PTR __k$[ebp+1], -20 ; ffffffecH
  00234	eb 04		 jmp	 SHORT $LN1@LoadFloat_@2
$LN96@LoadFloat_@2:
  00236	c6 45 e0 ed	 mov	 BYTE PTR __k$[ebp], -19	; ffffffedH
$LN1@LoadFloat_@2:
  0023a	6a 05		 push	 5
  0023c	8d 45 e0	 lea	 eax, DWORD PTR __k$[ebp]
  0023f	c6 45 f5 00	 mov	 BYTE PTR __k$[ebp+21], 0
  00243	5a		 pop	 edx
$LL104@LoadFloat_@2:
  00244	81 30 ed ec eb
	ea		 xor	 DWORD PTR [eax], -353637139 ; eaebecedH
  0024a	83 c0 04	 add	 eax, 4
  0024d	4a		 dec	 edx
  0024e	75 f4		 jne	 SHORT $LL104@LoadFloat_@2

; 137  : 		return LoadFloat(_k, f);

