; Listing generated by Microsoft (R) Optimizing Compiler Version 16.00.30319.01 

	TITLE	D:\Lost Saga For Developer\Youtube\Tutorial\Source\src\LSClient\ioWebBrowser.cpp
	.686P
	.XMM
	include listing.inc
	.model	flat

INCLUDELIB MSVCRT
INCLUDELIB OLDNAMES

PUBLIC	?WM_ATLGETHOST@ATL@@3IA				; ATL::WM_ATLGETHOST
PUBLIC	?WM_ATLGETCONTROL@ATL@@3IA			; ATL::WM_ATLGETCONTROL
;	COMDAT ?WM_ATLGETHOST@ATL@@3IA
_BSS	SEGMENT
?WM_ATLGETHOST@ATL@@3IA DD 01H DUP (?)			; ATL::WM_ATLGETHOST
_BSS	ENDS
;	COMDAT ?WM_ATLGETCONTROL@ATL@@3IA
_BSS	SEGMENT
?WM_ATLGETCONTROL@ATL@@3IA DD 01H DUP (?)		; ATL::WM_ATLGETCONTROL
_BSS	ENDS
PUBLIC	?GetBrowsePageType@ioWebBrowser@@QBE?AW4BrowsePageType@@XZ ; ioWebBrowser::GetBrowsePageType
; Function compile flags: /Ogsp
; File d:\lost saga for developer\youtube\tutorial\source\src\lsclient\iowebbrowser.h
;	COMDAT ?GetBrowsePageType@ioWebBrowser@@QBE?AW4BrowsePageType@@XZ
_TEXT	SEGMENT
?GetBrowsePageType@ioWebBrowser@@QBE?AW4BrowsePageType@@XZ PROC ; ioWebBrowser::GetBrowsePageType, COMDAT
; _this$ = ecx

; 86   : 	inline BrowsePageType GetBrowsePageType() const { return m_BrowsePageType; }

  00000	8b 41 08	 mov	 eax, DWORD PTR [ecx+8]
  00003	c3		 ret	 0
?GetBrowsePageType@ioWebBrowser@@QBE?AW4BrowsePageType@@XZ ENDP ; ioWebBrowser::GetBrowsePageType
; Function compile flags: /Ogsp
; File c:\program files (x86)\microsoft visual studio 10.0\vc\include\comutil.h
_TEXT	ENDS
;	COMDAT ?UIntAdd@_com_util@@YAJIIPAI@Z
_TEXT	SEGMENT
_puResult$ = 8						; size = 4
?UIntAdd@_com_util@@YAJIIPAI@Z PROC			; _com_util::UIntAdd, COMDAT
; _uAugend$ = eax
; _uAddend$ = ecx

; 101  : 	{

  00000	55		 push	 ebp
  00001	8b ec		 mov	 ebp, esp

; 102  : 		if((uAugend + uAddend) < uAddend)

  00003	03 c1		 add	 eax, ecx
  00005	3b c1		 cmp	 eax, ecx
  00007	73 07		 jae	 SHORT $LN1@UIntAdd

; 103  : 		{
; 104  : 			return INTSAFE_E_ARITHMETIC_OVERFLOW;

  00009	b8 16 02 07 80	 mov	 eax, -2147024362	; 80070216H

; 108  : 	}

  0000e	5d		 pop	 ebp
  0000f	c3		 ret	 0
$LN1@UIntAdd:

; 105  : 		}
; 106  : 		*puResult = uAugend + uAddend;

  00010	8b 4d 08	 mov	 ecx, DWORD PTR _puResult$[ebp]
  00013	89 01		 mov	 DWORD PTR [ecx], eax

; 107  : 		return S_OK;

  00015	33 c0		 xor	 eax, eax

; 108  : 	}

  00017	5d		 pop	 ebp
  00018	c3		 ret	 0
?UIntAdd@_com_util@@YAJIIPAI@Z ENDP			; _com_util::UIntAdd
; Function compile flags: /Ogsp
_TEXT	ENDS
;	COMDAT ?UIntMult@_com_util@@YAJIIPAI@Z
_TEXT	SEGMENT
_uMultiplier$ = 8					; size = 4
?UIntMult@_com_util@@YAJIIPAI@Z PROC			; _com_util::UIntMult, COMDAT
; _uMultiplicand$ = eax
; _puResult$ = ecx

; 111  : 	{

  00000	55		 push	 ebp
  00001	8b ec		 mov	 ebp, esp

; 112  : 		ULONGLONG ull64Result = UInt32x32To64(uMultiplicand, uMultiplier);

  00003	f7 65 08	 mul	 DWORD PTR _uMultiplier$[ebp]

; 113  : 		if(ull64Result <= INTSAFE_UINT_MAX)

  00006	85 d2		 test	 edx, edx
  00008	77 0d		 ja	 SHORT $LN1@UIntMult
  0000a	72 05		 jb	 SHORT $LN4@UIntMult
  0000c	83 f8 ff	 cmp	 eax, -1
  0000f	77 06		 ja	 SHORT $LN1@UIntMult
$LN4@UIntMult:

; 114  : 		{
; 115  : 			*puResult = (UINT)ull64Result;

  00011	89 01		 mov	 DWORD PTR [ecx], eax

; 116  : 			return S_OK;

  00013	33 c0		 xor	 eax, eax

; 119  : 	}

  00015	5d		 pop	 ebp
  00016	c3		 ret	 0
$LN1@UIntMult:

; 117  : 		}
; 118  : 		return INTSAFE_E_ARITHMETIC_OVERFLOW;

  00017	b8 16 02 07 80	 mov	 eax, -2147024362	; 80070216H

; 119  : 	}

  0001c	5d		 pop	 ebp
  0001d	c3		 ret	 0
?UIntMult@_com_util@@YAJIIPAI@Z ENDP			; _com_util::UIntMult
_TEXT	ENDS
PUBLIC	?strstr@@YAPADPADPBD@Z				; strstr
EXTRN	__imp__strstr:PROC
; Function compile flags: /Ogsp
; File c:\program files (x86)\microsoft visual studio 10.0\vc\include\string.h
;	COMDAT ?strstr@@YAPADPADPBD@Z
_TEXT	SEGMENT
__Str$ = 8						; size = 4
__SubStr$ = 12						; size = 4
?strstr@@YAPADPADPBD@Z PROC				; strstr, COMDAT

; 221  : 	{ return (char*)strstr((const char*)_Str, _SubStr); }

  00000	55		 push	 ebp
  00001	8b ec		 mov	 ebp, esp
  00003	5d		 pop	 ebp
  00004	ff 25 00 00 00
	00		 jmp	 DWORD PTR __imp__strstr
?strstr@@YAPADPADPBD@Z ENDP				; strstr
_TEXT	ENDS
PUBLIC	?GetWString@Data_t@_bstr_t@@QAEAAPA_WXZ		; _bstr_t::Data_t::GetWString
; Function compile flags: /Ogsp
; File c:\program files (x86)\microsoft visual studio 10.0\vc\include\comutil.h
;	COMDAT ?GetWString@Data_t@_bstr_t@@QAEAAPA_WXZ
_TEXT	SEGMENT
?GetWString@Data_t@_bstr_t@@QAEAAPA_WXZ PROC		; _bstr_t::Data_t::GetWString, COMDAT
; _this$ = ecx

; 818  : {

  00000	8b c1		 mov	 eax, ecx

; 819  :     return m_wstr;
; 820  : }

  00002	c3		 ret	 0
?GetWString@Data_t@_bstr_t@@QAEAAPA_WXZ ENDP		; _bstr_t::Data_t::GetWString
_TEXT	ENDS
PUBLIC	?Length@Data_t@_bstr_t@@QBEIXZ			; _bstr_t::Data_t::Length
EXTRN	__imp__SysStringLen@4:PROC
; Function compile flags: /Ogsp
;	COMDAT ?Length@Data_t@_bstr_t@@QBEIXZ
_TEXT	SEGMENT
?Length@Data_t@_bstr_t@@QBEIXZ PROC			; _bstr_t::Data_t::Length, COMDAT
; _this$ = ecx

; 871  :     return m_wstr ? ::SysStringLen(m_wstr) : 0;

  00000	8b 01		 mov	 eax, DWORD PTR [ecx]
  00002	85 c0		 test	 eax, eax
  00004	74 08		 je	 SHORT $LN3@Length
  00006	50		 push	 eax
  00007	ff 15 00 00 00
	00		 call	 DWORD PTR __imp__SysStringLen@4

; 872  : }

  0000d	c3		 ret	 0
$LN3@Length:

; 871  :     return m_wstr ? ::SysStringLen(m_wstr) : 0;

  0000e	33 c0		 xor	 eax, eax

; 872  : }

  00010	c3		 ret	 0
?Length@Data_t@_bstr_t@@QBEIXZ ENDP			; _bstr_t::Data_t::Length
_TEXT	ENDS
PUBLIC	??2Data_t@_bstr_t@@SAPAXI@Z			; _bstr_t::Data_t::operator new
EXTRN	??2@YAPAXI@Z:PROC				; operator new
; Function compile flags: /Ogsp
;	COMDAT ??2Data_t@_bstr_t@@SAPAXI@Z
_TEXT	SEGMENT
_sz$ = 8						; size = 4
??2Data_t@_bstr_t@@SAPAXI@Z PROC			; _bstr_t::Data_t::operator new, COMDAT

; 914  : {

  00000	55		 push	 ebp
  00001	8b ec		 mov	 ebp, esp

; 916  : }

  00003	5d		 pop	 ebp

; 915  :     return ::operator new(sz);

  00004	e9 00 00 00 00	 jmp	 ??2@YAPAXI@Z		; operator new
??2Data_t@_bstr_t@@SAPAXI@Z ENDP			; _bstr_t::Data_t::operator new
_TEXT	ENDS
PUBLIC	?_Free@Data_t@_bstr_t@@AAEXXZ			; _bstr_t::Data_t::_Free
EXTRN	??_V@YAXPAX@Z:PROC				; operator delete[]
EXTRN	__imp__SysFreeString@4:PROC
; Function compile flags: /Ogsp
;	COMDAT ?_Free@Data_t@_bstr_t@@AAEXXZ
_TEXT	SEGMENT
?_Free@Data_t@_bstr_t@@AAEXXZ PROC			; _bstr_t::Data_t::_Free, COMDAT
; _this$ = ecx

; 929  : {

  00000	56		 push	 esi
  00001	8b f1		 mov	 esi, ecx

; 930  :     if (m_wstr != NULL) {

  00003	8b 06		 mov	 eax, DWORD PTR [esi]
  00005	85 c0		 test	 eax, eax
  00007	74 07		 je	 SHORT $LN2@Free

; 931  :         ::SysFreeString(m_wstr);

  00009	50		 push	 eax
  0000a	ff 15 00 00 00
	00		 call	 DWORD PTR __imp__SysFreeString@4
$LN2@Free:

; 932  :     }
; 933  : 
; 934  :     if (m_str != NULL) {

  00010	8b 76 04	 mov	 esi, DWORD PTR [esi+4]
  00013	85 f6		 test	 esi, esi
  00015	74 07		 je	 SHORT $LN1@Free

; 935  :         delete [] m_str;

  00017	56		 push	 esi
  00018	e8 00 00 00 00	 call	 ??_V@YAXPAX@Z		; operator delete[]
  0001d	59		 pop	 ecx
$LN1@Free:
  0001e	5e		 pop	 esi

; 936  :     }
; 937  : }

  0001f	c3		 ret	 0
?_Free@Data_t@_bstr_t@@AAEXXZ ENDP			; _bstr_t::Data_t::_Free
_TEXT	ENDS
PUBLIC	??_7bad_alloc@std@@6B@				; std::bad_alloc::`vftable'
PUBLIC	??0bad_alloc@std@@QAE@PBD@Z			; std::bad_alloc::bad_alloc
PUBLIC	??_R4bad_alloc@std@@6B@				; std::bad_alloc::`RTTI Complete Object Locator'
PUBLIC	??_R0?AVbad_alloc@std@@@8			; std::bad_alloc `RTTI Type Descriptor'
PUBLIC	??_R3bad_alloc@std@@8				; std::bad_alloc::`RTTI Class Hierarchy Descriptor'
PUBLIC	??_R2bad_alloc@std@@8				; std::bad_alloc::`RTTI Base Class Array'
PUBLIC	??_R1A@?0A@EA@bad_alloc@std@@8			; std::bad_alloc::`RTTI Base Class Descriptor at (0,-1,0,64)'
PUBLIC	??_R1A@?0A@EA@exception@std@@8			; std::exception::`RTTI Base Class Descriptor at (0,-1,0,64)'
PUBLIC	??_R0?AVexception@std@@@8			; std::exception `RTTI Type Descriptor'
PUBLIC	??_R3exception@std@@8				; std::exception::`RTTI Class Hierarchy Descriptor'
PUBLIC	??_R2exception@std@@8				; std::exception::`RTTI Base Class Array'
EXTRN	__imp_??0exception@std@@QAE@ABQBD@Z:PROC
EXTRN	??_7type_info@@6B@:QWORD			; type_info::`vftable'
EXTRN	??_Ebad_alloc@std@@UAEPAXI@Z:PROC		; std::bad_alloc::`vector deleting destructor'
EXTRN	?what@exception@std@@UBEPBDXZ:PROC		; std::exception::what
;	COMDAT ??_R2exception@std@@8
; File c:\program files (x86)\microsoft visual studio 10.0\vc\include\exception
rdata$r	SEGMENT
??_R2exception@std@@8 DD FLAT:??_R1A@?0A@EA@exception@std@@8 ; std::exception::`RTTI Base Class Array'
rdata$r	ENDS
;	COMDAT ??_R3exception@std@@8
rdata$r	SEGMENT
??_R3exception@std@@8 DD 00H				; std::exception::`RTTI Class Hierarchy Descriptor'
	DD	00H
	DD	01H
	DD	FLAT:??_R2exception@std@@8
rdata$r	ENDS
;	COMDAT ??_R0?AVexception@std@@@8
_DATA	SEGMENT
??_R0?AVexception@std@@@8 DD FLAT:??_7type_info@@6B@	; std::exception `RTTI Type Descriptor'
	DD	00H
	DB	'.?AVexception@std@@', 00H
_DATA	ENDS
;	COMDAT ??_R1A@?0A@EA@exception@std@@8
rdata$r	SEGMENT
??_R1A@?0A@EA@exception@std@@8 DD FLAT:??_R0?AVexception@std@@@8 ; std::exception::`RTTI Base Class Descriptor at (0,-1,0,64)'
	DD	00H
	DD	00H
	DD	0ffffffffH
	DD	00H
	DD	040H
	DD	FLAT:??_R3exception@std@@8
rdata$r	ENDS
;	COMDAT ??_R1A@?0A@EA@bad_alloc@std@@8
rdata$r	SEGMENT
??_R1A@?0A@EA@bad_alloc@std@@8 DD FLAT:??_R0?AVbad_alloc@std@@@8 ; std::bad_alloc::`RTTI Base Class Descriptor at (0,-1,0,64)'
	DD	01H
	DD	00H
	DD	0ffffffffH
	DD	00H
	DD	040H
	DD	FLAT:??_R3bad_alloc@std@@8
rdata$r	ENDS
;	COMDAT ??_R2bad_alloc@std@@8
rdata$r	SEGMENT
??_R2bad_alloc@std@@8 DD FLAT:??_R1A@?0A@EA@bad_alloc@std@@8 ; std::bad_alloc::`RTTI Base Class Array'
	DD	FLAT:??_R1A@?0A@EA@exception@std@@8
rdata$r	ENDS
;	COMDAT ??_R3bad_alloc@std@@8
rdata$r	SEGMENT
??_R3bad_alloc@std@@8 DD 00H				; std::bad_alloc::`RTTI Class Hierarchy Descriptor'
	DD	00H
	DD	02H
	DD	FLAT:??_R2bad_alloc@std@@8
rdata$r	ENDS
;	COMDAT ??_R0?AVbad_alloc@std@@@8
_DATA	SEGMENT
??_R0?AVbad_alloc@std@@@8 DD FLAT:??_7type_info@@6B@	; std::bad_alloc `RTTI Type Descriptor'
	DD	00H
	DB	'.?AVbad_alloc@std@@', 00H
_DATA	ENDS
;	COMDAT ??_R4bad_alloc@std@@6B@
rdata$r	SEGMENT
??_R4bad_alloc@std@@6B@ DD 00H				; std::bad_alloc::`RTTI Complete Object Locator'
	DD	00H
	DD	00H
	DD	FLAT:??_R0?AVbad_alloc@std@@@8
	DD	FLAT:??_R3bad_alloc@std@@8
rdata$r	ENDS
;	COMDAT ??_7bad_alloc@std@@6B@
CONST	SEGMENT
??_7bad_alloc@std@@6B@ DD FLAT:??_R4bad_alloc@std@@6B@	; std::bad_alloc::`vftable'
	DD	FLAT:??_Ebad_alloc@std@@UAEPAXI@Z
	DD	FLAT:?what@exception@std@@UBEPBDXZ
; Function compile flags: /Ogsp
CONST	ENDS
;	COMDAT ??0bad_alloc@std@@QAE@PBD@Z
_TEXT	SEGMENT
__Message$ = 8						; size = 4
??0bad_alloc@std@@QAE@PBD@Z PROC			; std::bad_alloc::bad_alloc, COMDAT
; _this$ = ecx

; 345  : 		{	// construct from message string

  00000	55		 push	 ebp
  00001	8b ec		 mov	 ebp, esp
  00003	56		 push	 esi
  00004	8d 45 08	 lea	 eax, DWORD PTR __Message$[ebp]
  00007	50		 push	 eax
  00008	8b f1		 mov	 esi, ecx
  0000a	ff 15 00 00 00
	00		 call	 DWORD PTR __imp_??0exception@std@@QAE@ABQBD@Z
  00010	c7 06 00 00 00
	00		 mov	 DWORD PTR [esi], OFFSET ??_7bad_alloc@std@@6B@

; 346  : 		}

  00016	8b c6		 mov	 eax, esi
  00018	5e		 pop	 esi
  00019	5d		 pop	 ebp
  0001a	c2 04 00	 ret	 4
??0bad_alloc@std@@QAE@PBD@Z ENDP			; std::bad_alloc::bad_alloc
_TEXT	ENDS
PUBLIC	??1bad_alloc@std@@UAE@XZ			; std::bad_alloc::~bad_alloc
EXTRN	__imp_??1exception@std@@UAE@XZ:PROC
; Function compile flags: /Ogsp
;	COMDAT ??1bad_alloc@std@@UAE@XZ
_TEXT	SEGMENT
??1bad_alloc@std@@UAE@XZ PROC				; std::bad_alloc::~bad_alloc, COMDAT
; _this$ = ecx

; 354  : 		{	// destroy the object

  00000	c7 01 00 00 00
	00		 mov	 DWORD PTR [ecx], OFFSET ??_7bad_alloc@std@@6B@

; 355  : 		}

  00006	ff 25 00 00 00
	00		 jmp	 DWORD PTR __imp_??1exception@std@@UAE@XZ
??1bad_alloc@std@@UAE@XZ ENDP				; std::bad_alloc::~bad_alloc
_TEXT	ENDS
EXTRN	??3@YAXPAX@Z:PROC				; operator delete
; Function compile flags: /Ogsp
;	COMDAT ??_Gbad_alloc@std@@UAEPAXI@Z
_TEXT	SEGMENT
___flags$ = 8						; size = 4
??_Gbad_alloc@std@@UAEPAXI@Z PROC			; std::bad_alloc::`scalar deleting destructor', COMDAT
; _this$ = ecx
  00000	55		 push	 ebp
  00001	8b ec		 mov	 ebp, esp
  00003	56		 push	 esi
  00004	8b f1		 mov	 esi, ecx
  00006	c7 06 00 00 00
	00		 mov	 DWORD PTR [esi], OFFSET ??_7bad_alloc@std@@6B@
  0000c	ff 15 00 00 00
	00		 call	 DWORD PTR __imp_??1exception@std@@UAE@XZ
  00012	f6 45 08 01	 test	 BYTE PTR ___flags$[ebp], 1
  00016	74 07		 je	 SHORT $LN1@scalar
  00018	56		 push	 esi
  00019	e8 00 00 00 00	 call	 ??3@YAXPAX@Z		; operator delete
  0001e	59		 pop	 ecx
$LN1@scalar:
  0001f	8b c6		 mov	 eax, esi
  00021	5e		 pop	 esi
  00022	5d		 pop	 ebp
  00023	c2 04 00	 ret	 4
??_Gbad_alloc@std@@UAEPAXI@Z ENDP			; std::bad_alloc::`scalar deleting destructor'
_TEXT	ENDS
PUBLIC	??2@YAPAXIPAX@Z					; operator new
; Function compile flags: /Ogsp
; File c:\program files (x86)\microsoft visual studio 10.0\vc\include\new
;	COMDAT ??2@YAPAXIPAX@Z
_TEXT	SEGMENT
___formal$ = 8						; size = 4
__Where$ = 12						; size = 4
??2@YAPAXIPAX@Z PROC					; operator new, COMDAT

; 56   : 	{	// construct array with placement at _Where

  00000	55		 push	 ebp
  00001	8b ec		 mov	 ebp, esp

; 57   : 	return (_Where);

  00003	8b 45 0c	 mov	 eax, DWORD PTR __Where$[ebp]

; 58   : 	}

  00006	5d		 pop	 ebp
  00007	c3		 ret	 0
??2@YAPAXIPAX@Z ENDP					; operator new
_TEXT	ENDS
PUBLIC	??3@YAXPAX0@Z					; operator delete
; Function compile flags: /Ogsp
;	COMDAT ??3@YAXPAX0@Z
_TEXT	SEGMENT
___formal$ = 8						; size = 4
___formal$ = 12						; size = 4
??3@YAXPAX0@Z PROC					; operator delete, COMDAT

; 62   : 	}

  00000	c3		 ret	 0
??3@YAXPAX0@Z ENDP					; operator delete
_TEXT	ENDS
PUBLIC	?compare@?$char_traits@D@std@@SAHPBD0I@Z	; std::char_traits<char>::compare
; Function compile flags: /Ogsp
; File c:\program files (x86)\microsoft visual studio 10.0\vc\include\iosfwd
;	COMDAT ?compare@?$char_traits@D@std@@SAHPBD0I@Z
_TEXT	SEGMENT
__First1$ = 8						; size = 4
__First2$ = 12						; size = 4
__Count$ = 16						; size = 4
?compare@?$char_traits@D@std@@SAHPBD0I@Z PROC		; std::char_traits<char>::compare, COMDAT

; 485  : 		{	// compare [_First1, _First1 + _Count) with [_First2, ...)

  00000	55		 push	 ebp
  00001	8b ec		 mov	 ebp, esp

; 486  : 		return (_CSTD memcmp(_First1, _First2, _Count));

  00003	8b 4d 10	 mov	 ecx, DWORD PTR __Count$[ebp]
  00006	56		 push	 esi
  00007	8b 75 08	 mov	 esi, DWORD PTR __First1$[ebp]
  0000a	57		 push	 edi
  0000b	8b 7d 0c	 mov	 edi, DWORD PTR __First2$[ebp]
  0000e	33 c0		 xor	 eax, eax
  00010	f3 a6		 repe cmpsb
  00012	5f		 pop	 edi
  00013	5e		 pop	 esi
  00014	74 05		 je	 SHORT $LN3@compare
  00016	1b c0		 sbb	 eax, eax
  00018	83 d8 ff	 sbb	 eax, -1
$LN3@compare:

; 487  : 		}

  0001b	5d		 pop	 ebp
  0001c	c3		 ret	 0
?compare@?$char_traits@D@std@@SAHPBD0I@Z ENDP		; std::char_traits<char>::compare
_TEXT	ENDS
PUBLIC	?length@?$char_traits@D@std@@SAIPBD@Z		; std::char_traits<char>::length
; Function compile flags: /Ogsp
;	COMDAT ?length@?$char_traits@D@std@@SAIPBD@Z
_TEXT	SEGMENT
__First$ = 8						; size = 4
?length@?$char_traits@D@std@@SAIPBD@Z PROC		; std::char_traits<char>::length, COMDAT

; 490  : 		{	// find length of null-terminated string

  00000	55		 push	 ebp
  00001	8b ec		 mov	 ebp, esp

; 491  : 		return (_CSTD strlen(_First));

  00003	8b 45 08	 mov	 eax, DWORD PTR __First$[ebp]
  00006	8d 50 01	 lea	 edx, DWORD PTR [eax+1]
$LL3@length:
  00009	8a 08		 mov	 cl, BYTE PTR [eax]
  0000b	40		 inc	 eax
  0000c	84 c9		 test	 cl, cl
  0000e	75 f9		 jne	 SHORT $LL3@length
  00010	2b c2		 sub	 eax, edx

; 492  : 		}

  00012	5d		 pop	 ebp
  00013	c3		 ret	 0
?length@?$char_traits@D@std@@SAIPBD@Z ENDP		; std::char_traits<char>::length
_TEXT	ENDS
PUBLIC	?copy@?$char_traits@D@std@@SAPADPADPBDI@Z	; std::char_traits<char>::copy
EXTRN	_memcpy:PROC
; Function compile flags: /Ogsp
;	COMDAT ?copy@?$char_traits@D@std@@SAPADPADPBDI@Z
_TEXT	SEGMENT
__First1$ = 8						; size = 4
__First2$ = 12						; size = 4
__Count$ = 16						; size = 4
?copy@?$char_traits@D@std@@SAPADPADPBDI@Z PROC		; std::char_traits<char>::copy, COMDAT

; 496  : 		{	// copy [_First1, _First1 + _Count) to [_First2, ...)

  00000	55		 push	 ebp
  00001	8b ec		 mov	 ebp, esp

; 498  : 		}

  00003	5d		 pop	 ebp

; 497  : 		return ((_Elem *)_CSTD memcpy(_First1, _First2, _Count));

  00004	e9 00 00 00 00	 jmp	 _memcpy
?copy@?$char_traits@D@std@@SAPADPADPBDI@Z ENDP		; std::char_traits<char>::copy
_TEXT	ENDS
PUBLIC	?move@?$char_traits@D@std@@SAPADPADPBDI@Z	; std::char_traits<char>::move
EXTRN	__imp__memmove:PROC
; Function compile flags: /Ogsp
;	COMDAT ?move@?$char_traits@D@std@@SAPADPADPBDI@Z
_TEXT	SEGMENT
__First1$ = 8						; size = 4
__First2$ = 12						; size = 4
__Count$ = 16						; size = 4
?move@?$char_traits@D@std@@SAPADPADPBDI@Z PROC		; std::char_traits<char>::move, COMDAT

; 516  : 		{	// copy [_First1, _First1 + _Count) to [_First2, ...)

  00000	55		 push	 ebp
  00001	8b ec		 mov	 ebp, esp

; 518  : 		}

  00003	5d		 pop	 ebp

; 517  : 		return ((_Elem *)_CSTD memmove(_First1, _First2, _Count));

  00004	ff 25 00 00 00
	00		 jmp	 DWORD PTR __imp__memmove
?move@?$char_traits@D@std@@SAPADPADPBDI@Z ENDP		; std::char_traits<char>::move
_TEXT	ENDS
PUBLIC	?assign@?$char_traits@D@std@@SAXAADABD@Z	; std::char_traits<char>::assign
; Function compile flags: /Ogsp
;	COMDAT ?assign@?$char_traits@D@std@@SAXAADABD@Z
_TEXT	SEGMENT
__Left$ = 8						; size = 4
__Right$ = 12						; size = 4
?assign@?$char_traits@D@std@@SAXAADABD@Z PROC		; std::char_traits<char>::assign, COMDAT

; 526  : 		{	// assign an element

  00000	55		 push	 ebp
  00001	8b ec		 mov	 ebp, esp

; 527  : 		_Left = _Right;

  00003	8b 45 0c	 mov	 eax, DWORD PTR __Right$[ebp]
  00006	8a 00		 mov	 al, BYTE PTR [eax]
  00008	8b 4d 08	 mov	 ecx, DWORD PTR __Left$[ebp]
  0000b	88 01		 mov	 BYTE PTR [ecx], al

; 528  : 		}

  0000d	5d		 pop	 ebp
  0000e	c3		 ret	 0
?assign@?$char_traits@D@std@@SAXAADABD@Z ENDP		; std::char_traits<char>::assign
_TEXT	ENDS
PUBLIC	?_Adopt@_Iterator_base0@std@@QAEXPBX@Z		; std::_Iterator_base0::_Adopt
; Function compile flags: /Ogsp
; File c:\program files (x86)\microsoft visual studio 10.0\vc\include\xutility
;	COMDAT ?_Adopt@_Iterator_base0@std@@QAEXPBX@Z
_TEXT	SEGMENT
___formal$ = 8						; size = 4
?_Adopt@_Iterator_base0@std@@QAEXPBX@Z PROC		; std::_Iterator_base0::_Adopt, COMDAT
; _this$ = ecx

; 49   : 		}

  00000	c2 04 00	 ret	 4
?_Adopt@_Iterator_base0@std@@QAEXPBX@Z ENDP		; std::_Iterator_base0::_Adopt
_TEXT	ENDS
PUBLIC	?_com_issue_error@@YGXJ@Z			; _com_issue_error
; Function compile flags: /Ogsp
; File d:\lost saga for developer\youtube\tutorial\source\src\lsclient\iowebbrowser.cpp
;	COMDAT ?_com_issue_error@@YGXJ@Z
_TEXT	SEGMENT
_error$ = 8						; size = 4
?_com_issue_error@@YGXJ@Z PROC				; _com_issue_error, COMDAT

; 24   : 	//nop
; 25   : }

  00000	c2 04 00	 ret	 4
?_com_issue_error@@YGXJ@Z ENDP				; _com_issue_error
_TEXT	ENDS
PUBLIC	??_7ioWebBrowser@@6B@				; ioWebBrowser::`vftable'
PUBLIC	??0ioWebBrowser@@QAE@PAVioBrowserManager@@W4BrowsePageType@@@Z ; ioWebBrowser::ioWebBrowser
PUBLIC	??_R4ioWebBrowser@@6B@				; ioWebBrowser::`RTTI Complete Object Locator'
PUBLIC	??_R0?AVioWebBrowser@@@8			; ioWebBrowser `RTTI Type Descriptor'
PUBLIC	??_R3ioWebBrowser@@8				; ioWebBrowser::`RTTI Class Hierarchy Descriptor'
PUBLIC	??_R2ioWebBrowser@@8				; ioWebBrowser::`RTTI Base Class Array'
PUBLIC	??_R1A@?0A@EA@ioWebBrowser@@8			; ioWebBrowser::`RTTI Base Class Descriptor at (0,-1,0,64)'
EXTRN	__imp_??0ioHashString@@QAE@XZ:PROC
EXTRN	??_EioWebBrowser@@UAEPAXI@Z:PROC		; ioWebBrowser::`vector deleting destructor'
;	COMDAT ??_R1A@?0A@EA@ioWebBrowser@@8
rdata$r	SEGMENT
??_R1A@?0A@EA@ioWebBrowser@@8 DD FLAT:??_R0?AVioWebBrowser@@@8 ; ioWebBrowser::`RTTI Base Class Descriptor at (0,-1,0,64)'
	DD	00H
	DD	00H
	DD	0ffffffffH
	DD	00H
	DD	040H
	DD	FLAT:??_R3ioWebBrowser@@8
rdata$r	ENDS
;	COMDAT ??_R2ioWebBrowser@@8
rdata$r	SEGMENT
??_R2ioWebBrowser@@8 DD FLAT:??_R1A@?0A@EA@ioWebBrowser@@8 ; ioWebBrowser::`RTTI Base Class Array'
rdata$r	ENDS
;	COMDAT ??_R3ioWebBrowser@@8
rdata$r	SEGMENT
??_R3ioWebBrowser@@8 DD 00H				; ioWebBrowser::`RTTI Class Hierarchy Descriptor'
	DD	00H
	DD	01H
	DD	FLAT:??_R2ioWebBrowser@@8
rdata$r	ENDS
;	COMDAT ??_R0?AVioWebBrowser@@@8
_DATA	SEGMENT
??_R0?AVioWebBrowser@@@8 DD FLAT:??_7type_info@@6B@	; ioWebBrowser `RTTI Type Descriptor'
	DD	00H
	DB	'.?AVioWebBrowser@@', 00H
_DATA	ENDS
;	COMDAT ??_R4ioWebBrowser@@6B@
rdata$r	SEGMENT
??_R4ioWebBrowser@@6B@ DD 00H				; ioWebBrowser::`RTTI Complete Object Locator'
	DD	00H
	DD	00H
	DD	FLAT:??_R0?AVioWebBrowser@@@8
	DD	FLAT:??_R3ioWebBrowser@@8
rdata$r	ENDS
;	COMDAT ??_7ioWebBrowser@@6B@
CONST	SEGMENT
??_7ioWebBrowser@@6B@ DD FLAT:??_R4ioWebBrowser@@6B@	; ioWebBrowser::`vftable'
	DD	FLAT:??_EioWebBrowser@@UAEPAXI@Z
; Function compile flags: /Ogsp
CONST	ENDS
;	COMDAT ??0ioWebBrowser@@QAE@PAVioBrowserManager@@W4BrowsePageType@@@Z
_TEXT	SEGMENT
_pCreator$ = 8						; size = 4
_ePageType$ = 12					; size = 4
??0ioWebBrowser@@QAE@PAVioBrowserManager@@W4BrowsePageType@@@Z PROC ; ioWebBrowser::ioWebBrowser, COMDAT
; _this$ = ecx

; 28   : {

  00000	55		 push	 ebp
  00001	8b ec		 mov	 ebp, esp
  00003	56		 push	 esi
  00004	8b f1		 mov	 esi, ecx
  00006	8d 4e 24	 lea	 ecx, DWORD PTR [esi+36]
  00009	c7 06 00 00 00
	00		 mov	 DWORD PTR [esi], OFFSET ??_7ioWebBrowser@@6B@
  0000f	ff 15 00 00 00
	00		 call	 DWORD PTR __imp_??0ioHashString@@QAE@XZ

; 29   : 	m_pCreator = pCreator;

  00015	8b 45 08	 mov	 eax, DWORD PTR _pCreator$[ebp]
  00018	89 46 04	 mov	 DWORD PTR [esi+4], eax

; 30   : 	m_BrowsePageType = ePageType;

  0001b	8b 45 0c	 mov	 eax, DWORD PTR _ePageType$[ebp]
  0001e	89 46 08	 mov	 DWORD PTR [esi+8], eax

; 31   : 	m_BrowsePageSubType = BROWSE_SUB_DEFAULT;

  00021	33 c0		 xor	 eax, eax
  00023	89 46 0c	 mov	 DWORD PTR [esi+12], eax

; 32   : 
; 33   : 	m_hWebParent = NULL;

  00026	89 46 10	 mov	 DWORD PTR [esi+16], eax

; 34   : 	m_hExplorer  = NULL;

  00029	89 46 14	 mov	 DWORD PTR [esi+20], eax

; 35   : 
; 36   : 	m_pInvokeEvent   = NULL;

  0002c	89 46 18	 mov	 DWORD PTR [esi+24], eax

; 37   : 	m_dwAdviceCookie = 0;

  0002f	89 46 1c	 mov	 DWORD PTR [esi+28], eax

; 38   : 
; 39   : 	m_LoginState = LS_NOT_LOGIN;

  00032	89 46 20	 mov	 DWORD PTR [esi+32], eax

; 40   : 
; 41   : 	m_bWindowDrag = false;

  00035	89 46 3c	 mov	 DWORD PTR [esi+60], eax

; 42   : 
; 43   : 	m_bCloseReserved  = false;
; 44   : 	m_bShow = false;
; 45   : 	m_bHideProcess = false;
; 46   : 	m_nexonWindowClosed = false;

  00038	88 46 40	 mov	 BYTE PTR [esi+64], al

; 47   : 
; 48   : 	m_bNeedExcuteWeb = false;

  0003b	66 89 46 54	 mov	 WORD PTR [esi+84], ax

; 49   : 	m_bNoCloseXTrap = false;
; 50   : }

  0003f	8b c6		 mov	 eax, esi
  00041	5e		 pop	 esi
  00042	5d		 pop	 ebp
  00043	c2 08 00	 ret	 8
??0ioWebBrowser@@QAE@PAVioBrowserManager@@W4BrowsePageType@@@Z ENDP ; ioWebBrowser::ioWebBrowser
_TEXT	ENDS
PUBLIC	?WebParentDragStart@ioWebBrowser@@QAEXXZ	; ioWebBrowser::WebParentDragStart
EXTRN	__imp__GetCursorPos@4:PROC
; Function compile flags: /Ogsp
;	COMDAT ?WebParentDragStart@ioWebBrowser@@QAEXXZ
_TEXT	SEGMENT
?WebParentDragStart@ioWebBrowser@@QAEXXZ PROC		; ioWebBrowser::WebParentDragStart, COMDAT
; _this$ = ecx

; 157  : {

  00000	56		 push	 esi
  00001	8b f1		 mov	 esi, ecx

; 158  : 	 ::GetCursorPos( &m_ptPreCursor );

  00003	8d 46 34	 lea	 eax, DWORD PTR [esi+52]
  00006	50		 push	 eax
  00007	ff 15 00 00 00
	00		 call	 DWORD PTR __imp__GetCursorPos@4

; 159  : 	 m_bWindowDrag = true;

  0000d	c6 46 3c 01	 mov	 BYTE PTR [esi+60], 1
  00011	5e		 pop	 esi

; 160  : }

  00012	c3		 ret	 0
?WebParentDragStart@ioWebBrowser@@QAEXXZ ENDP		; ioWebBrowser::WebParentDragStart
_TEXT	ENDS
PUBLIC	__$ArrayPad$
PUBLIC	?ProcessDrag@ioWebBrowser@@QAEXXZ		; ioWebBrowser::ProcessDrag
EXTRN	__imp__SetWindowPos@28:PROC
EXTRN	__imp__GetWindowRect@8:PROC
EXTRN	__imp__MoveWindow@24:PROC
EXTRN	___security_cookie:DWORD
EXTRN	@__security_check_cookie@4:PROC
; Function compile flags: /Ogsp
;	COMDAT ?ProcessDrag@ioWebBrowser@@QAEXXZ
_TEXT	SEGMENT
_ptCurPos$ = -28					; size = 8
_rcRect$ = -20						; size = 16
__$ArrayPad$ = -4					; size = 4
?ProcessDrag@ioWebBrowser@@QAEXXZ PROC			; ioWebBrowser::ProcessDrag, COMDAT
; _this$ = ecx

; 163  : {

  00000	55		 push	 ebp
  00001	8b ec		 mov	 ebp, esp
  00003	83 ec 1c	 sub	 esp, 28			; 0000001cH
  00006	a1 00 00 00 00	 mov	 eax, DWORD PTR ___security_cookie
  0000b	33 c5		 xor	 eax, ebp
  0000d	89 45 fc	 mov	 DWORD PTR __$ArrayPad$[ebp], eax
  00010	53		 push	 ebx
  00011	56		 push	 esi
  00012	8b f1		 mov	 esi, ecx

; 164  : 	//by 윤태철
; 165  : 	//길드홈피를 열면 IE 사이즈가 어느순간 작아 져서 오른쪽 아래에 붙는다.
; 166  : 	//왜 그런지는 모르겠다.
; 167  : 	//우선 임시 방편으로 생성시 위치와 사이즈를 기억해서 
; 168  : 	//리사이징 한다.
; 169  : 	if( m_hWebParent && m_hExplorer )

  00014	33 db		 xor	 ebx, ebx
  00016	39 5e 10	 cmp	 DWORD PTR [esi+16], ebx
  00019	74 1b		 je	 SHORT $LN3@ProcessDra
  0001b	8b 46 14	 mov	 eax, DWORD PTR [esi+20]
  0001e	3b c3		 cmp	 eax, ebx
  00020	74 14		 je	 SHORT $LN3@ProcessDra

; 170  : 		MoveWindow( m_hExplorer, m_nIEhPosX, m_nIEhPosY, m_nIEhSizeX, m_nIEhSizeY, FALSE);

  00022	53		 push	 ebx
  00023	ff 76 50	 push	 DWORD PTR [esi+80]
  00026	ff 76 4c	 push	 DWORD PTR [esi+76]
  00029	ff 76 48	 push	 DWORD PTR [esi+72]
  0002c	ff 76 44	 push	 DWORD PTR [esi+68]
  0002f	50		 push	 eax
  00030	ff 15 00 00 00
	00		 call	 DWORD PTR __imp__MoveWindow@24
$LN3@ProcessDra:

; 171  : 
; 172  : 	if( !m_bWindowDrag )	return;

  00036	38 5e 3c	 cmp	 BYTE PTR [esi+60], bl
  00039	74 5c		 je	 SHORT $LN4@ProcessDra

; 173  : 
; 174  : 	POINT ptCurPos;
; 175  : 	::GetCursorPos( &ptCurPos );

  0003b	8d 45 e4	 lea	 eax, DWORD PTR _ptCurPos$[ebp]
  0003e	50		 push	 eax
  0003f	ff 15 00 00 00
	00		 call	 DWORD PTR __imp__GetCursorPos@4

; 176  : 
; 177  : 	if( m_ptPreCursor.x == ptCurPos.x && m_ptPreCursor.y == ptCurPos.y )

  00045	8b 46 34	 mov	 eax, DWORD PTR [esi+52]
  00048	3b 45 e4	 cmp	 eax, DWORD PTR _ptCurPos$[ebp]
  0004b	75 08		 jne	 SHORT $LN1@ProcessDra
  0004d	8b 46 38	 mov	 eax, DWORD PTR [esi+56]
  00050	3b 45 e8	 cmp	 eax, DWORD PTR _ptCurPos$[ebp+4]
  00053	74 42		 je	 SHORT $LN4@ProcessDra
$LN1@ProcessDra:

; 178  : 		return;
; 179  : 
; 180  : 	RECT rcRect;
; 181  : 	::GetWindowRect( m_hWebParent, &rcRect );

  00055	8d 45 ec	 lea	 eax, DWORD PTR _rcRect$[ebp]
  00058	50		 push	 eax
  00059	ff 76 10	 push	 DWORD PTR [esi+16]
  0005c	ff 15 00 00 00
	00		 call	 DWORD PTR __imp__GetWindowRect@8

; 182  : 
; 183  : 	rcRect.left += ptCurPos.x - m_ptPreCursor.x;

  00062	8b 45 e4	 mov	 eax, DWORD PTR _ptCurPos$[ebp]
  00065	2b 46 34	 sub	 eax, DWORD PTR [esi+52]

; 184  : 	rcRect.top  += ptCurPos.y - m_ptPreCursor.y;
; 185  : 	::SetWindowPos( m_hWebParent, NULL, rcRect.left, rcRect.top, 0, 0, SWP_NOSIZE | SWP_NOZORDER | SWP_NOOWNERZORDER );

  00068	68 05 02 00 00	 push	 517			; 00000205H
  0006d	01 45 ec	 add	 DWORD PTR _rcRect$[ebp], eax
  00070	8b 45 e8	 mov	 eax, DWORD PTR _ptCurPos$[ebp+4]
  00073	2b 46 38	 sub	 eax, DWORD PTR [esi+56]
  00076	53		 push	 ebx
  00077	01 45 f0	 add	 DWORD PTR _rcRect$[ebp+4], eax
  0007a	53		 push	 ebx
  0007b	ff 75 f0	 push	 DWORD PTR _rcRect$[ebp+4]
  0007e	ff 75 ec	 push	 DWORD PTR _rcRect$[ebp]
  00081	53		 push	 ebx
  00082	ff 76 10	 push	 DWORD PTR [esi+16]
  00085	ff 15 00 00 00
	00		 call	 DWORD PTR __imp__SetWindowPos@28

; 186  : 
; 187  : 	m_ptPreCursor = ptCurPos;

  0008b	8b 45 e4	 mov	 eax, DWORD PTR _ptCurPos$[ebp]
  0008e	89 46 34	 mov	 DWORD PTR [esi+52], eax
  00091	8b 45 e8	 mov	 eax, DWORD PTR _ptCurPos$[ebp+4]
  00094	89 46 38	 mov	 DWORD PTR [esi+56], eax
$LN4@ProcessDra:

; 188  : }

  00097	8b 4d fc	 mov	 ecx, DWORD PTR __$ArrayPad$[ebp]
  0009a	5e		 pop	 esi
  0009b	33 cd		 xor	 ecx, ebp
  0009d	5b		 pop	 ebx
  0009e	e8 00 00 00 00	 call	 @__security_check_cookie@4
  000a3	c9		 leave
  000a4	c3		 ret	 0
?ProcessDrag@ioWebBrowser@@QAEXXZ ENDP			; ioWebBrowser::ProcessDrag
_TEXT	ENDS
PUBLIC	?WebParentDragEnd@ioWebBrowser@@QAEXXZ		; ioWebBrowser::WebParentDragEnd
; Function compile flags: /Ogsp
;	COMDAT ?WebParentDragEnd@ioWebBrowser@@QAEXXZ
_TEXT	SEGMENT
?WebParentDragEnd@ioWebBrowser@@QAEXXZ PROC		; ioWebBrowser::WebParentDragEnd, COMDAT
; _this$ = ecx

; 191  : {

  00000	56		 push	 esi
  00001	8b f1		 mov	 esi, ecx

; 192  : 	ProcessDrag();

  00003	e8 00 00 00 00	 call	 ?ProcessDrag@ioWebBrowser@@QAEXXZ ; ioWebBrowser::ProcessDrag

; 193  : 
; 194  : 	m_bWindowDrag = false;

  00008	c6 46 3c 00	 mov	 BYTE PTR [esi+60], 0
  0000c	5e		 pop	 esi

; 195  : }

  0000d	c3		 ret	 0
?WebParentDragEnd@ioWebBrowser@@QAEXXZ ENDP		; ioWebBrowser::WebParentDragEnd
_TEXT	ENDS
PUBLIC	?HideProcess@ioWebBrowser@@IAEXXZ		; ioWebBrowser::HideProcess
EXTRN	?GetLocal@ioLocalManager@@QAEPAVioLocalParent@@W4LocalType@ioLocalManagerParent@@@Z:PROC ; ioLocalManager::GetLocal
EXTRN	?GetSingleton@ioLocalManager@@SAAAV1@XZ:PROC	; ioLocalManager::GetSingleton
EXTRN	__imp_?GetLocalType@ioLocalManagerParent@@SA?AW4LocalType@1@XZ:PROC
EXTRN	?NotifyHideProcess@ioBrowserManager@@QAEXW4BrowsePageType@@@Z:PROC ; ioBrowserManager::NotifyHideProcess
; Function compile flags: /Ogsp
;	COMDAT ?HideProcess@ioWebBrowser@@IAEXXZ
_TEXT	SEGMENT
?HideProcess@ioWebBrowser@@IAEXXZ PROC			; ioWebBrowser::HideProcess, COMDAT
; _this$ = ecx

; 225  : {

  00000	56		 push	 esi
  00001	8b f1		 mov	 esi, ecx

; 226  : 	if( !m_bHideProcess ) return;

  00003	80 7e 3f 00	 cmp	 BYTE PTR [esi+63], 0
  00007	74 3a		 je	 SHORT $LN5@HideProces

; 227  : 	if( !m_pCreator ) return;

  00009	8b 4e 04	 mov	 ecx, DWORD PTR [esi+4]
  0000c	85 c9		 test	 ecx, ecx
  0000e	74 33		 je	 SHORT $LN5@HideProces

; 228  : 	
; 229  : 	m_pCreator->NotifyHideProcess( m_BrowsePageType );

  00010	ff 76 08	 push	 DWORD PTR [esi+8]
  00013	e8 00 00 00 00	 call	 ?NotifyHideProcess@ioBrowserManager@@QAEXW4BrowsePageType@@@Z ; ioBrowserManager::NotifyHideProcess

; 230  : 
; 231  : 	if( m_BrowsePageType == BROWSE_FILL_CASH )

  00018	83 7e 08 04	 cmp	 DWORD PTR [esi+8], 4
  0001c	75 21		 jne	 SHORT $LN1@HideProces

; 232  : 	{
; 233  : 		
; 234  : #ifdef XTRAP
; 235  : 			if( !m_bNoCloseXTrap )
; 236  : 				g_ioXtrap.EndPayment();
; 237  : #endif 
; 238  : 		
; 239  : 		ioLocalParent *pLocal = g_LocalMgr.GetLocal( ioLocalManager::GetLocalType() );

  0001e	ff 15 00 00 00
	00		 call	 DWORD PTR __imp_?GetLocalType@ioLocalManagerParent@@SA?AW4LocalType@1@XZ
  00024	50		 push	 eax
  00025	e8 00 00 00 00	 call	 ?GetSingleton@ioLocalManager@@SAAAV1@XZ ; ioLocalManager::GetSingleton
  0002a	8b c8		 mov	 ecx, eax
  0002c	e8 00 00 00 00	 call	 ?GetLocal@ioLocalManager@@QAEPAVioLocalParent@@W4LocalType@ioLocalManagerParent@@@Z ; ioLocalManager::GetLocal

; 240  : 		if( pLocal )

  00031	85 c0		 test	 eax, eax
  00033	74 0a		 je	 SHORT $LN1@HideProces

; 241  : 			pLocal->OnCashPageHide();

  00035	8b 10		 mov	 edx, DWORD PTR [eax]
  00037	8b c8		 mov	 ecx, eax
  00039	ff 92 28 01 00
	00		 call	 DWORD PTR [edx+296]
$LN1@HideProces:

; 242  : 	}
; 243  : 
; 244  : 	m_bHideProcess = false;

  0003f	c6 46 3f 00	 mov	 BYTE PTR [esi+63], 0
$LN5@HideProces:
  00043	5e		 pop	 esi

; 245  : }

  00044	c3		 ret	 0
?HideProcess@ioWebBrowser@@IAEXXZ ENDP			; ioWebBrowser::HideProcess
_TEXT	ENDS
PUBLIC	?SetNeedExcuteWeb@ioWebBrowser@@QAEX_N@Z	; ioWebBrowser::SetNeedExcuteWeb
; Function compile flags: /Ogsp
;	COMDAT ?SetNeedExcuteWeb@ioWebBrowser@@QAEX_N@Z
_TEXT	SEGMENT
_bNeed$ = 8						; size = 1
?SetNeedExcuteWeb@ioWebBrowser@@QAEX_N@Z PROC		; ioWebBrowser::SetNeedExcuteWeb, COMDAT
; _this$ = ecx

; 255  : {

  00000	55		 push	 ebp
  00001	8b ec		 mov	 ebp, esp

; 256  : 	m_bNeedExcuteWeb = bNeed;

  00003	8a 45 08	 mov	 al, BYTE PTR _bNeed$[ebp]
  00006	88 41 54	 mov	 BYTE PTR [ecx+84], al

; 257  : }

  00009	5d		 pop	 ebp
  0000a	c2 04 00	 ret	 4
?SetNeedExcuteWeb@ioWebBrowser@@QAEX_N@Z ENDP		; ioWebBrowser::SetNeedExcuteWeb
_TEXT	ENDS
PUBLIC	?GetWebWindowRect@ioWebBrowser@@QAEXPAUtagRECT@@@Z ; ioWebBrowser::GetWebWindowRect
; Function compile flags: /Ogsp
;	COMDAT ?GetWebWindowRect@ioWebBrowser@@QAEXPAUtagRECT@@@Z
_TEXT	SEGMENT
_pRect$ = 8						; size = 4
?GetWebWindowRect@ioWebBrowser@@QAEXPAUtagRECT@@@Z PROC	; ioWebBrowser::GetWebWindowRect, COMDAT
; _this$ = ecx

; 402  : {

  00000	55		 push	 ebp
  00001	8b ec		 mov	 ebp, esp

; 403  : 	::GetWindowRect( m_hWebParent, pRect );

  00003	ff 75 08	 push	 DWORD PTR _pRect$[ebp]
  00006	ff 71 10	 push	 DWORD PTR [ecx+16]
  00009	ff 15 00 00 00
	00		 call	 DWORD PTR __imp__GetWindowRect@8

; 404  : }

  0000f	5d		 pop	 ebp
  00010	c2 04 00	 ret	 4
?GetWebWindowRect@ioWebBrowser@@QAEXPAUtagRECT@@@Z ENDP	; ioWebBrowser::GetWebWindowRect
_TEXT	ENDS
PUBLIC	?IsAutoLoginTime@ioWebBrowser@@QBE_NXZ		; ioWebBrowser::IsAutoLoginTime
; Function compile flags: /Ogsp
;	COMDAT ?IsAutoLoginTime@ioWebBrowser@@QBE_NXZ
_TEXT	SEGMENT
?IsAutoLoginTime@ioWebBrowser@@QBE_NXZ PROC		; ioWebBrowser::IsAutoLoginTime, COMDAT
; _this$ = ecx

; 408  : 	if( m_LoginState == LS_LOGINNING )

  00000	83 79 20 01	 cmp	 DWORD PTR [ecx+32], 1
  00004	0f 94 c0	 sete	 al

; 409  : 		return true;
; 410  : 
; 411  : 	return false;
; 412  : }

  00007	c3		 ret	 0
?IsAutoLoginTime@ioWebBrowser@@QBE_NXZ ENDP		; ioWebBrowser::IsAutoLoginTime
_TEXT	ENDS
PUBLIC	?IsFocusInBrowser@ioWebBrowser@@QBE_NPAUHWND__@@@Z ; ioWebBrowser::IsFocusInBrowser
EXTRN	__imp__GetParent@4:PROC
; Function compile flags: /Ogsp
;	COMDAT ?IsFocusInBrowser@ioWebBrowser@@QBE_NPAUHWND__@@@Z
_TEXT	SEGMENT
_hFocus$ = 8						; size = 4
?IsFocusInBrowser@ioWebBrowser@@QBE_NPAUHWND__@@@Z PROC	; ioWebBrowser::IsFocusInBrowser, COMDAT
; _this$ = ecx

; 415  : {

  00000	55		 push	 ebp
  00001	8b ec		 mov	 ebp, esp

; 416  : 	while( hFocus != NULL )

  00003	8b 45 08	 mov	 eax, DWORD PTR _hFocus$[ebp]
  00006	56		 push	 esi
  00007	8b f1		 mov	 esi, ecx
  00009	eb 0c		 jmp	 SHORT $LN9@IsFocusInB
$LL3@IsFocusInB:

; 417  : 	{
; 418  : 		if( m_hWebParent == hFocus )

  0000b	39 46 10	 cmp	 DWORD PTR [esi+16], eax
  0000e	74 12		 je	 SHORT $LN7@IsFocusInB

; 420  : 
; 421  : 		hFocus = ::GetParent( hFocus );

  00010	50		 push	 eax
  00011	ff 15 00 00 00
	00		 call	 DWORD PTR __imp__GetParent@4
$LN9@IsFocusInB:

; 416  : 	while( hFocus != NULL )

  00017	85 c0		 test	 eax, eax
  00019	75 f0		 jne	 SHORT $LL3@IsFocusInB

; 422  : 	}
; 423  : 
; 424  : 	return false;

  0001b	32 c0		 xor	 al, al
$LN4@IsFocusInB:
  0001d	5e		 pop	 esi

; 425  : }

  0001e	5d		 pop	 ebp
  0001f	c2 04 00	 ret	 4
$LN7@IsFocusInB:

; 419  : 			return true;

  00022	b0 01		 mov	 al, 1
  00024	eb f7		 jmp	 SHORT $LN4@IsFocusInB
?IsFocusInBrowser@ioWebBrowser@@QBE_NPAUHWND__@@@Z ENDP	; ioWebBrowser::IsFocusInBrowser
_TEXT	ENDS
PUBLIC	__$ArrayPad$
PUBLIC	?OnClientToHostWindow@ioWebBrowser@@QAEXPAJ0@Z	; ioWebBrowser::OnClientToHostWindow
; Function compile flags: /Ogsp
;	COMDAT ?OnClientToHostWindow@ioWebBrowser@@QAEXPAJ0@Z
_TEXT	SEGMENT
_rcRect$ = -20						; size = 16
__$ArrayPad$ = -4					; size = 4
_CX$ = 8						; size = 4
_CY$ = 12						; size = 4
?OnClientToHostWindow@ioWebBrowser@@QAEXPAJ0@Z PROC	; ioWebBrowser::OnClientToHostWindow, COMDAT
; _this$ = ecx

; 549  : {

  00000	55		 push	 ebp
  00001	8b ec		 mov	 ebp, esp
  00003	83 ec 14	 sub	 esp, 20			; 00000014H
  00006	a1 00 00 00 00	 mov	 eax, DWORD PTR ___security_cookie
  0000b	33 c5		 xor	 eax, ebp
  0000d	89 45 fc	 mov	 DWORD PTR __$ArrayPad$[ebp], eax
  00010	8b 45 08	 mov	 eax, DWORD PTR _CX$[ebp]
  00013	53		 push	 ebx
  00014	56		 push	 esi
  00015	57		 push	 edi

; 550  : 	int iWidth  = *CX;

  00016	8b 38		 mov	 edi, DWORD PTR [eax]

; 551  : 	int iHeight = *CY;
; 552  : 
; 553  : 	RECT rcRect;
; 554  : 	GetWindowRect( m_hWebParent, &rcRect );

  00018	8d 45 ec	 lea	 eax, DWORD PTR _rcRect$[ebp]
  0001b	8b f1		 mov	 esi, ecx
  0001d	8b 4d 0c	 mov	 ecx, DWORD PTR _CY$[ebp]
  00020	8b 19		 mov	 ebx, DWORD PTR [ecx]
  00022	50		 push	 eax
  00023	ff 76 10	 push	 DWORD PTR [esi+16]
  00026	ff 15 00 00 00
	00		 call	 DWORD PTR __imp__GetWindowRect@8

; 555  : 	MoveWindow( m_hWebParent, rcRect.left, rcRect.top, iWidth + 3*2, iHeight + 29 + 3, FALSE );

  0002c	6a 00		 push	 0
  0002e	8d 43 20	 lea	 eax, DWORD PTR [ebx+32]
  00031	50		 push	 eax
  00032	8d 47 06	 lea	 eax, DWORD PTR [edi+6]
  00035	50		 push	 eax
  00036	ff 75 f0	 push	 DWORD PTR _rcRect$[ebp+4]
  00039	ff 75 ec	 push	 DWORD PTR _rcRect$[ebp]
  0003c	ff 76 10	 push	 DWORD PTR [esi+16]
  0003f	ff 15 00 00 00
	00		 call	 DWORD PTR __imp__MoveWindow@24

; 556  : 	SetWindowPos( m_hExplorer, 0, 0, 0, iWidth, iHeight, SWP_NOMOVE | SWP_NOZORDER | SWP_NOOWNERZORDER );

  00045	68 06 02 00 00	 push	 518			; 00000206H
  0004a	53		 push	 ebx
  0004b	57		 push	 edi
  0004c	33 c0		 xor	 eax, eax
  0004e	50		 push	 eax
  0004f	50		 push	 eax
  00050	50		 push	 eax
  00051	ff 76 14	 push	 DWORD PTR [esi+20]
  00054	ff 15 00 00 00
	00		 call	 DWORD PTR __imp__SetWindowPos@28

; 557  : }

  0005a	8b 4d fc	 mov	 ecx, DWORD PTR __$ArrayPad$[ebp]
  0005d	5f		 pop	 edi
  0005e	5e		 pop	 esi
  0005f	33 cd		 xor	 ecx, ebp
  00061	5b		 pop	 ebx
  00062	e8 00 00 00 00	 call	 @__security_check_cookie@4
  00067	c9		 leave
  00068	c2 08 00	 ret	 8
?OnClientToHostWindow@ioWebBrowser@@QAEXPAJ0@Z ENDP	; ioWebBrowser::OnClientToHostWindow
_TEXT	ENDS
PUBLIC	?ConnectionAdvise@ioWebBrowser@@IAE_NPAUIUnknown@@ABU_GUID@@0HPAK@Z ; ioWebBrowser::ConnectionAdvise
EXTRN	_IID_IConnectionPointContainer:BYTE
; Function compile flags: /Ogsp
;	COMDAT ?ConnectionAdvise@ioWebBrowser@@IAE_NPAUIUnknown@@ABU_GUID@@0HPAK@Z
_TEXT	SEGMENT
_pCPC$ = -4						; size = 4
_pCP$508318 = 8						; size = 4
_pUnkSrc$ = 8						; size = 4
_iid$ = 12						; size = 4
_pUnkSink$ = 16						; size = 4
_bRefCount$ = 20					; size = 4
_pdwCookie$ = 24					; size = 4
?ConnectionAdvise@ioWebBrowser@@IAE_NPAUIUnknown@@ABU_GUID@@0HPAK@Z PROC ; ioWebBrowser::ConnectionAdvise, COMDAT
; _this$ = ecx

; 623  : {

  00000	55		 push	 ebp
  00001	8b ec		 mov	 ebp, esp
  00003	51		 push	 ecx

; 624  : 	HRESULT hr;
; 625  : 	bool bSuccess = false;
; 626  : 
; 627  : 	LPCONNECTIONPOINTCONTAINER pCPC;
; 628  : 	hr = pUnkSrc->QueryInterface( IID_IConnectionPointContainer, (LPVOID*)&pCPC );

  00004	8b 45 08	 mov	 eax, DWORD PTR _pUnkSrc$[ebp]
  00007	8b 08		 mov	 ecx, DWORD PTR [eax]
  00009	53		 push	 ebx
  0000a	8d 55 fc	 lea	 edx, DWORD PTR _pCPC$[ebp]
  0000d	52		 push	 edx
  0000e	68 00 00 00 00	 push	 OFFSET _IID_IConnectionPointContainer
  00013	50		 push	 eax
  00014	32 db		 xor	 bl, bl
  00016	ff 11		 call	 DWORD PTR [ecx]

; 629  : 	if( SUCCEEDED(hr) )

  00018	85 c0		 test	 eax, eax
  0001a	78 4e		 js	 SHORT $LN4@Connection

; 630  : 	{
; 631  : 		LPCONNECTIONPOINT pCP;
; 632  : 		hr = pCPC->FindConnectionPoint(iid, &pCP);

  0001c	8b 45 fc	 mov	 eax, DWORD PTR _pCPC$[ebp]
  0001f	8b 08		 mov	 ecx, DWORD PTR [eax]
  00021	8d 55 08	 lea	 edx, DWORD PTR _pCP$508318[ebp]
  00024	52		 push	 edx
  00025	ff 75 0c	 push	 DWORD PTR _iid$[ebp]
  00028	50		 push	 eax
  00029	ff 51 10	 call	 DWORD PTR [ecx+16]

; 633  : 		if( SUCCEEDED(hr) )

  0002c	85 c0		 test	 eax, eax
  0002e	78 31		 js	 SHORT $LN1@Connection

; 634  : 		{
; 635  : 			hr = pCP->Advise(pUnkSink, pdwCookie);

  00030	8b 45 08	 mov	 eax, DWORD PTR _pCP$508318[ebp]
  00033	8b 08		 mov	 ecx, DWORD PTR [eax]
  00035	56		 push	 esi
  00036	ff 75 18	 push	 DWORD PTR _pdwCookie$[ebp]
  00039	8b 75 10	 mov	 esi, DWORD PTR _pUnkSink$[ebp]
  0003c	56		 push	 esi
  0003d	50		 push	 eax
  0003e	ff 51 14	 call	 DWORD PTR [ecx+20]

; 636  : 			if( SUCCEEDED(hr) )

  00041	85 c0		 test	 eax, eax
  00043	78 02		 js	 SHORT $LN2@Connection

; 637  : 				bSuccess = true;

  00045	fe c3		 inc	 bl
$LN2@Connection:

; 638  : 
; 639  : 			pCP->Release();

  00047	8b 45 08	 mov	 eax, DWORD PTR _pCP$508318[ebp]
  0004a	8b 08		 mov	 ecx, DWORD PTR [eax]
  0004c	50		 push	 eax
  0004d	ff 51 08	 call	 DWORD PTR [ecx+8]

; 640  : 
; 641  : 			if (bSuccess && !bRefCount)

  00050	84 db		 test	 bl, bl
  00052	74 0c		 je	 SHORT $LN7@Connection
  00054	83 7d 14 00	 cmp	 DWORD PTR _bRefCount$[ebp], 0
  00058	75 06		 jne	 SHORT $LN7@Connection

; 642  : 				pUnkSink->Release();

  0005a	8b 06		 mov	 eax, DWORD PTR [esi]
  0005c	56		 push	 esi
  0005d	ff 50 08	 call	 DWORD PTR [eax+8]
$LN7@Connection:
  00060	5e		 pop	 esi
$LN1@Connection:

; 643  : 		}
; 644  : 
; 645  : 		pCPC->Release();

  00061	8b 45 fc	 mov	 eax, DWORD PTR _pCPC$[ebp]
  00064	8b 08		 mov	 ecx, DWORD PTR [eax]
  00066	50		 push	 eax
  00067	ff 51 08	 call	 DWORD PTR [ecx+8]
$LN4@Connection:

; 646  : 	}
; 647  : 
; 648  : 	return bSuccess;

  0006a	8a c3		 mov	 al, bl
  0006c	5b		 pop	 ebx

; 649  : }

  0006d	c9		 leave
  0006e	c2 14 00	 ret	 20			; 00000014H
?ConnectionAdvise@ioWebBrowser@@IAE_NPAUIUnknown@@ABU_GUID@@0HPAK@Z ENDP ; ioWebBrowser::ConnectionAdvise
_TEXT	ENDS
PUBLIC	?ConnectionUnadvise@ioWebBrowser@@IAE_NPAUIUnknown@@ABU_GUID@@0HK@Z ; ioWebBrowser::ConnectionUnadvise
; Function compile flags: /Ogsp
;	COMDAT ?ConnectionUnadvise@ioWebBrowser@@IAE_NPAUIUnknown@@ABU_GUID@@0HK@Z
_TEXT	SEGMENT
_pCPC$ = -4						; size = 4
_pUnkSrc$ = 8						; size = 4
_iid$ = 12						; size = 4
_pCP$508339 = 16					; size = 4
_pUnkSink$ = 16						; size = 4
_bRefCount$ = 20					; size = 4
_dwCookie$ = 24						; size = 4
?ConnectionUnadvise@ioWebBrowser@@IAE_NPAUIUnknown@@ABU_GUID@@0HK@Z PROC ; ioWebBrowser::ConnectionUnadvise, COMDAT
; _this$ = ecx

; 652  : {

  00000	55		 push	 ebp
  00001	8b ec		 mov	 ebp, esp
  00003	51		 push	 ecx

; 653  : 	if (!bRefCount)

  00004	83 7d 14 00	 cmp	 DWORD PTR _bRefCount$[ebp], 0
  00008	53		 push	 ebx
  00009	56		 push	 esi
  0000a	8b 75 10	 mov	 esi, DWORD PTR _pUnkSink$[ebp]
  0000d	75 06		 jne	 SHORT $LN5@Connection@2

; 654  : 		pUnkSink->AddRef();

  0000f	8b 06		 mov	 eax, DWORD PTR [esi]
  00011	56		 push	 esi
  00012	ff 50 04	 call	 DWORD PTR [eax+4]
$LN5@Connection@2:

; 655  : 
; 656  : 	HRESULT hr;
; 657  : 	bool bSuccess = false;
; 658  : 
; 659  : 	LPCONNECTIONPOINTCONTAINER pCPC;
; 660  : 	hr = pUnkSrc->QueryInterface( IID_IConnectionPointContainer, (LPVOID*)&pCPC );

  00015	8b 45 08	 mov	 eax, DWORD PTR _pUnkSrc$[ebp]
  00018	8b 08		 mov	 ecx, DWORD PTR [eax]
  0001a	8d 55 fc	 lea	 edx, DWORD PTR _pCPC$[ebp]
  0001d	52		 push	 edx
  0001e	68 00 00 00 00	 push	 OFFSET _IID_IConnectionPointContainer
  00023	50		 push	 eax
  00024	32 db		 xor	 bl, bl
  00026	ff 11		 call	 DWORD PTR [ecx]

; 661  : 	if( SUCCEEDED(hr) )

  00028	85 c0		 test	 eax, eax
  0002a	78 38		 js	 SHORT $LN4@Connection@2

; 662  : 	{
; 663  : 		LPCONNECTIONPOINT pCP;
; 664  : 		hr = pCPC->FindConnectionPoint(iid, &pCP);

  0002c	8b 45 fc	 mov	 eax, DWORD PTR _pCPC$[ebp]
  0002f	8b 08		 mov	 ecx, DWORD PTR [eax]
  00031	8d 55 10	 lea	 edx, DWORD PTR _pCP$508339[ebp]
  00034	52		 push	 edx
  00035	ff 75 0c	 push	 DWORD PTR _iid$[ebp]
  00038	50		 push	 eax
  00039	ff 51 10	 call	 DWORD PTR [ecx+16]

; 665  : 		if( SUCCEEDED(hr) )

  0003c	85 c0		 test	 eax, eax
  0003e	78 1b		 js	 SHORT $LN3@Connection@2

; 666  : 		{
; 667  : 			hr = pCP->Unadvise(dwCookie);

  00040	8b 45 10	 mov	 eax, DWORD PTR _pCP$508339[ebp]
  00043	ff 75 18	 push	 DWORD PTR _dwCookie$[ebp]
  00046	8b 08		 mov	 ecx, DWORD PTR [eax]
  00048	50		 push	 eax
  00049	ff 51 18	 call	 DWORD PTR [ecx+24]

; 668  : 			if( SUCCEEDED( hr ) )

  0004c	85 c0		 test	 eax, eax
  0004e	78 02		 js	 SHORT $LN2@Connection@2

; 669  : 				bSuccess = true;

  00050	fe c3		 inc	 bl
$LN2@Connection@2:

; 670  : 
; 671  : 			pCP->Release();

  00052	8b 45 10	 mov	 eax, DWORD PTR _pCP$508339[ebp]
  00055	8b 08		 mov	 ecx, DWORD PTR [eax]
  00057	50		 push	 eax
  00058	ff 51 08	 call	 DWORD PTR [ecx+8]
$LN3@Connection@2:

; 672  : 		}
; 673  : 
; 674  : 		pCPC->Release();

  0005b	8b 45 fc	 mov	 eax, DWORD PTR _pCPC$[ebp]
  0005e	8b 08		 mov	 ecx, DWORD PTR [eax]
  00060	50		 push	 eax
  00061	ff 51 08	 call	 DWORD PTR [ecx+8]
$LN4@Connection@2:

; 675  : 	}
; 676  : 
; 677  : 	if (!bRefCount && !bSuccess)

  00064	83 7d 14 00	 cmp	 DWORD PTR _bRefCount$[ebp], 0
  00068	75 0a		 jne	 SHORT $LN1@Connection@2
  0006a	84 db		 test	 bl, bl
  0006c	75 06		 jne	 SHORT $LN1@Connection@2

; 678  : 		pUnkSink->Release();

  0006e	8b 06		 mov	 eax, DWORD PTR [esi]
  00070	56		 push	 esi
  00071	ff 50 08	 call	 DWORD PTR [eax+8]
$LN1@Connection@2:

; 679  : 
; 680  : 	return bSuccess;

  00074	5e		 pop	 esi
  00075	8a c3		 mov	 al, bl
  00077	5b		 pop	 ebx

; 681  : }

  00078	c9		 leave
  00079	c2 14 00	 ret	 20			; 00000014H
?ConnectionUnadvise@ioWebBrowser@@IAE_NPAUIUnknown@@ABU_GUID@@0HK@Z ENDP ; ioWebBrowser::ConnectionUnadvise
_TEXT	ENDS
PUBLIC	?GetWindowSizePos@ioWebBrowser@@IAEXAAH000@Z	; ioWebBrowser::GetWindowSizePos
EXTRN	?Height@Setting@@SAHXZ:PROC			; Setting::Height
EXTRN	?Width@Setting@@SAHXZ:PROC			; Setting::Width
EXTRN	?GetBrowserSingleExtraHeight@ioBrowserManager@@QAEHXZ:PROC ; ioBrowserManager::GetBrowserSingleExtraHeight
EXTRN	?GetBrowserSingleExtraWidth@ioBrowserManager@@QAEHXZ:PROC ; ioBrowserManager::GetBrowserSingleExtraWidth
; Function compile flags: /Ogsp
;	COMDAT ?GetWindowSizePos@ioWebBrowser@@IAEXAAH000@Z
_TEXT	SEGMENT
_riWidth$ = 8						; size = 4
_riHeight$ = 12						; size = 4
_riXPos$ = 16						; size = 4
_riYPos$ = 20						; size = 4
?GetWindowSizePos@ioWebBrowser@@IAEXAAH000@Z PROC	; ioWebBrowser::GetWindowSizePos, COMDAT
; _this$ = ecx

; 726  : {

  00000	55		 push	 ebp
  00001	8b ec		 mov	 ebp, esp
  00003	56		 push	 esi
  00004	8b f1		 mov	 esi, ecx

; 727  : 	enum { DEF_WIDTH = 792, DEF_HEIGHT = 570, SINGLE_WIDTH = 792, SINGLE_HEIGHT = 570, ENTRY_WIDTH = 750, ENTRY_HIGHT = 555, GUILD_MARK_WIDTH = 515, GUILD_MARK_HEIGHT = 460,
; 728  : 	       CASH_DEFAULT_WIDTH= 450, CASH_DEFAULT_HEIGHT= 310, CASH_ENTRY_WIDTH = 750, CASH_ENTRY_HEIGHT = 555,
; 729  : 			WEB_SHOP_WIDTH = 639, WEB_SHOP_HEIGHT = 479 };
; 730  : 
; 731  : 	if( m_BrowsePageType == BROWSE_DEFAULT )

  00006	8b 46 08	 mov	 eax, DWORD PTR [esi+8]
  00009	57		 push	 edi
  0000a	33 ff		 xor	 edi, edi
  0000c	3b c7		 cmp	 eax, edi
  0000e	75 1c		 jne	 SHORT $LN16@GetWindowS
$LN13@GetWindowS:

; 732  : 	{
; 733  : 		riWidth  = DEF_WIDTH;

  00010	8b 45 08	 mov	 eax, DWORD PTR _riWidth$[ebp]
  00013	c7 00 18 03 00
	00		 mov	 DWORD PTR [eax], 792	; 00000318H

; 734  : 		riHeight = DEF_HEIGHT;

  00019	8b 45 0c	 mov	 eax, DWORD PTR _riHeight$[ebp]
  0001c	c7 00 3a 02 00
	00		 mov	 DWORD PTR [eax], 570	; 0000023aH
$LN12@GetWindowS:

; 735  : 
; 736  : 		riXPos = 0;

  00022	8b 45 10	 mov	 eax, DWORD PTR _riXPos$[ebp]
  00025	89 38		 mov	 DWORD PTR [eax], edi

; 737  : 		riYPos = 0;

  00027	e9 2c 01 00 00	 jmp	 $LN19@GetWindowS
$LN16@GetWindowS:

; 738  : 	}
; 739  : 	else if( m_BrowsePageType == BROWSE_SINGLE )

  0002c	83 f8 01	 cmp	 eax, 1
  0002f	75 2a		 jne	 SHORT $LN14@GetWindowS

; 740  : 	{
; 741  : 		//14.12.09 홈페이지 리뉴얼 관련 (미니홈피, 길드홈피 사이즈 추가)
; 742  : 		if ( m_pCreator )

  00031	8b 4e 04	 mov	 ecx, DWORD PTR [esi+4]
  00034	3b cf		 cmp	 ecx, edi
  00036	74 d8		 je	 SHORT $LN13@GetWindowS

; 743  : 		{
; 744  : 			riWidth  = SINGLE_WIDTH + m_pCreator->GetBrowserSingleExtraWidth();

  00038	e8 00 00 00 00	 call	 ?GetBrowserSingleExtraWidth@ioBrowserManager@@QAEHXZ ; ioBrowserManager::GetBrowserSingleExtraWidth
  0003d	8b 4d 08	 mov	 ecx, DWORD PTR _riWidth$[ebp]
  00040	05 18 03 00 00	 add	 eax, 792		; 00000318H
  00045	89 01		 mov	 DWORD PTR [ecx], eax

; 745  : 			riHeight = SINGLE_HEIGHT + m_pCreator->GetBrowserSingleExtraHeight();

  00047	8b 4e 04	 mov	 ecx, DWORD PTR [esi+4]
  0004a	e8 00 00 00 00	 call	 ?GetBrowserSingleExtraHeight@ioBrowserManager@@QAEHXZ ; ioBrowserManager::GetBrowserSingleExtraHeight
  0004f	8b 4d 0c	 mov	 ecx, DWORD PTR _riHeight$[ebp]
  00052	05 3a 02 00 00	 add	 eax, 570		; 0000023aH
  00057	89 01		 mov	 DWORD PTR [ecx], eax

; 746  : 		}
; 747  : 		else

  00059	eb c7		 jmp	 SHORT $LN12@GetWindowS
$LN14@GetWindowS:

; 748  : 		{
; 749  : 			riWidth  = SINGLE_WIDTH;
; 750  : 			riHeight = SINGLE_HEIGHT;
; 751  : 		}
; 752  : 
; 753  : 		riXPos = 0;
; 754  : 		riYPos = 0;
; 755  : 	}
; 756  : 	else if( m_BrowsePageType == BROWSE_FORMALITY_ENTRY )

  0005b	83 f8 02	 cmp	 eax, 2

; 757  : 	{
; 758  : 		riWidth  = ENTRY_WIDTH;
; 759  : 		riHeight = ENTRY_HIGHT;
; 760  : 
; 761  : 		riXPos = (Setting::Width()  - riWidth ) / 2;
; 762  : 		riYPos = (Setting::Height() - riHeight ) / 2;

  0005e	0f 84 8f 00 00
	00		 je	 $LN21@GetWindowS

; 763  : 	}	
; 764  : 	else if( m_BrowsePageType == BROWSE_GUILD_MARK )

  00064	83 f8 03	 cmp	 eax, 3
  00067	75 17		 jne	 SHORT $LN8@GetWindowS

; 765  : 	{
; 766  : 		riWidth  = GUILD_MARK_WIDTH;

  00069	8b 75 08	 mov	 esi, DWORD PTR _riWidth$[ebp]

; 767  : 		riHeight = GUILD_MARK_HEIGHT;

  0006c	8b 7d 0c	 mov	 edi, DWORD PTR _riHeight$[ebp]
  0006f	c7 06 03 02 00
	00		 mov	 DWORD PTR [esi], 515	; 00000203H
  00075	c7 07 cc 01 00
	00		 mov	 DWORD PTR [edi], 460	; 000001ccH

; 768  : 
; 769  : 		riXPos = (Setting::Width()  - riWidth ) / 2;
; 770  : 		riYPos = (Setting::Height() - riHeight ) / 2;

  0007b	e9 85 00 00 00	 jmp	 $LN20@GetWindowS
$LN8@GetWindowS:

; 771  : 	}
; 772  : 	else if( m_BrowsePageType == BROWSE_FILL_CASH )

  00080	83 f8 04	 cmp	 eax, 4
  00083	75 69		 jne	 SHORT $LN6@GetWindowS

; 773  : 	{
; 774  : 		riWidth  = CASH_DEFAULT_WIDTH;

  00085	8b 7d 08	 mov	 edi, DWORD PTR _riWidth$[ebp]
  00088	53		 push	 ebx

; 775  : 		riHeight = CASH_DEFAULT_HEIGHT;

  00089	8b 5d 0c	 mov	 ebx, DWORD PTR _riHeight$[ebp]
  0008c	c7 07 c2 01 00
	00		 mov	 DWORD PTR [edi], 450	; 000001c2H
  00092	c7 03 36 01 00
	00		 mov	 DWORD PTR [ebx], 310	; 00000136H

; 776  : 
; 777  : 		ioLocalParent *pLocal = g_LocalMgr.GetLocal( ioLocalManager::GetLocalType() );

  00098	ff 15 00 00 00
	00		 call	 DWORD PTR __imp_?GetLocalType@ioLocalManagerParent@@SA?AW4LocalType@1@XZ
  0009e	50		 push	 eax
  0009f	e8 00 00 00 00	 call	 ?GetSingleton@ioLocalManager@@SAAAV1@XZ ; ioLocalManager::GetSingleton
  000a4	8b c8		 mov	 ecx, eax
  000a6	e8 00 00 00 00	 call	 ?GetLocal@ioLocalManager@@QAEPAVioLocalParent@@W4LocalType@ioLocalManagerParent@@@Z ; ioLocalManager::GetLocal
  000ab	8b f0		 mov	 esi, eax

; 778  : 		if( pLocal )

  000ad	85 f6		 test	 esi, esi
  000af	74 18		 je	 SHORT $LN5@GetWindowS

; 779  : 		{
; 780  : 			riWidth = pLocal->GetCashPageWidth();

  000b1	8b 06		 mov	 eax, DWORD PTR [esi]
  000b3	8b ce		 mov	 ecx, esi
  000b5	ff 90 20 01 00
	00		 call	 DWORD PTR [eax+288]
  000bb	89 07		 mov	 DWORD PTR [edi], eax

; 781  : 			riHeight= pLocal->GetCashPageHeight();

  000bd	8b 06		 mov	 eax, DWORD PTR [esi]
  000bf	8b ce		 mov	 ecx, esi
  000c1	ff 90 24 01 00
	00		 call	 DWORD PTR [eax+292]
  000c7	89 03		 mov	 DWORD PTR [ebx], eax
$LN5@GetWindowS:

; 782  : 		}
; 783  : 
; 784  : 		riXPos = (Setting::Width()  - riWidth ) / 2;

  000c9	e8 00 00 00 00	 call	 ?Width@Setting@@SAHXZ	; Setting::Width
  000ce	2b 07		 sub	 eax, DWORD PTR [edi]
  000d0	8b 4d 10	 mov	 ecx, DWORD PTR _riXPos$[ebp]
  000d3	99		 cdq
  000d4	2b c2		 sub	 eax, edx
  000d6	d1 f8		 sar	 eax, 1
  000d8	89 01		 mov	 DWORD PTR [ecx], eax

; 785  : 		riYPos = (Setting::Height() - riHeight ) / 2;

  000da	e8 00 00 00 00	 call	 ?Height@Setting@@SAHXZ	; Setting::Height
  000df	2b 03		 sub	 eax, DWORD PTR [ebx]
  000e1	8b 4d 14	 mov	 ecx, DWORD PTR _riYPos$[ebp]
  000e4	99		 cdq
  000e5	2b c2		 sub	 eax, edx
  000e7	d1 f8		 sar	 eax, 1
  000e9	89 01		 mov	 DWORD PTR [ecx], eax
  000eb	5b		 pop	 ebx
  000ec	eb 6f		 jmp	 SHORT $LN1@GetWindowS
$LN6@GetWindowS:

; 786  : 	}
; 787  : 	else if( m_BrowsePageType == BROWSE_CASH_ENTRY )

  000ee	83 f8 05	 cmp	 eax, 5
  000f1	75 36		 jne	 SHORT $LN3@GetWindowS
$LN21@GetWindowS:

; 788  : 	{
; 789  : 		riWidth  = CASH_ENTRY_WIDTH;

  000f3	8b 75 08	 mov	 esi, DWORD PTR _riWidth$[ebp]

; 790  : 		riHeight = CASH_ENTRY_HEIGHT;

  000f6	8b 7d 0c	 mov	 edi, DWORD PTR _riHeight$[ebp]
  000f9	c7 06 ee 02 00
	00		 mov	 DWORD PTR [esi], 750	; 000002eeH
  000ff	c7 07 2b 02 00
	00		 mov	 DWORD PTR [edi], 555	; 0000022bH
$LN20@GetWindowS:

; 791  : 
; 792  : 		riXPos = (Setting::Width()  - riWidth ) / 2;

  00105	e8 00 00 00 00	 call	 ?Width@Setting@@SAHXZ	; Setting::Width
  0010a	2b 06		 sub	 eax, DWORD PTR [esi]
  0010c	8b 4d 10	 mov	 ecx, DWORD PTR _riXPos$[ebp]
  0010f	99		 cdq
  00110	2b c2		 sub	 eax, edx
  00112	d1 f8		 sar	 eax, 1
  00114	89 01		 mov	 DWORD PTR [ecx], eax

; 793  : 		riYPos = (Setting::Height() - riHeight ) / 2;

  00116	e8 00 00 00 00	 call	 ?Height@Setting@@SAHXZ	; Setting::Height
  0011b	2b 07		 sub	 eax, DWORD PTR [edi]
  0011d	8b 4d 14	 mov	 ecx, DWORD PTR _riYPos$[ebp]
  00120	99		 cdq
  00121	2b c2		 sub	 eax, edx
  00123	d1 f8		 sar	 eax, 1
  00125	89 01		 mov	 DWORD PTR [ecx], eax
  00127	eb 34		 jmp	 SHORT $LN1@GetWindowS
$LN3@GetWindowS:

; 794  : 	}
; 795  : 	else if( m_BrowsePageType == BROWSE_WEB_SHOP )

  00129	83 f8 06	 cmp	 eax, 6
  0012c	75 2f		 jne	 SHORT $LN1@GetWindowS

; 796  : 	{
; 797  : 		riWidth  = WEB_SHOP_WIDTH;

  0012e	8b 75 08	 mov	 esi, DWORD PTR _riWidth$[ebp]

; 798  : 		riHeight = WEB_SHOP_HEIGHT;

  00131	8b 45 0c	 mov	 eax, DWORD PTR _riHeight$[ebp]
  00134	c7 06 7f 02 00
	00		 mov	 DWORD PTR [esi], 639	; 0000027fH
  0013a	c7 00 df 01 00
	00		 mov	 DWORD PTR [eax], 479	; 000001dfH

; 799  : 
; 800  : 		riXPos = (Setting::Width()  - riWidth ) / 2;

  00140	e8 00 00 00 00	 call	 ?Width@Setting@@SAHXZ	; Setting::Width
  00145	2b 06		 sub	 eax, DWORD PTR [esi]
  00147	8b 75 10	 mov	 esi, DWORD PTR _riXPos$[ebp]
  0014a	99		 cdq
  0014b	2b c2		 sub	 eax, edx
  0014d	d1 f8		 sar	 eax, 1
  0014f	89 06		 mov	 DWORD PTR [esi], eax

; 801  : 		riYPos = (Setting::Height() - riHeight ) / 2;

  00151	e8 00 00 00 00	 call	 ?Height@Setting@@SAHXZ	; Setting::Height

; 802  : 
; 803  : 		riXPos = 0;

  00156	89 3e		 mov	 DWORD PTR [esi], edi
$LN19@GetWindowS:

; 804  : 		riYPos = 0;

  00158	8b 45 14	 mov	 eax, DWORD PTR _riYPos$[ebp]
  0015b	89 38		 mov	 DWORD PTR [eax], edi
$LN1@GetWindowS:
  0015d	5f		 pop	 edi
  0015e	5e		 pop	 esi

; 805  : 	}
; 806  : }

  0015f	5d		 pop	 ebp
  00160	c2 10 00	 ret	 16			; 00000010H
?GetWindowSizePos@ioWebBrowser@@IAEXAAH000@Z ENDP	; ioWebBrowser::GetWindowSizePos
_TEXT	ENDS
PUBLIC	??7?$CComPtrBase@UIWebBrowser2@@@ATL@@QBE_NXZ	; ATL::CComPtrBase<IWebBrowser2>::operator!
; Function compile flags: /Ogsp
; File c:\program files (x86)\microsoft visual studio 10.0\vc\atlmfc\include\atlcomcli.h
;	COMDAT ??7?$CComPtrBase@UIWebBrowser2@@@ATL@@QBE_NXZ
_TEXT	SEGMENT
??7?$CComPtrBase@UIWebBrowser2@@@ATL@@QBE_NXZ PROC	; ATL::CComPtrBase<IWebBrowser2>::operator!, COMDAT
; _this$ = ecx

; 187  : 		return (p == NULL);

  00000	33 c0		 xor	 eax, eax
  00002	39 01		 cmp	 DWORD PTR [ecx], eax
  00004	0f 94 c0	 sete	 al

; 188  : 	}

  00007	c3		 ret	 0
??7?$CComPtrBase@UIWebBrowser2@@@ATL@@QBE_NXZ ENDP	; ATL::CComPtrBase<IWebBrowser2>::operator!
_TEXT	ENDS
PUBLIC	??8?$CComPtrBase@UIWebBrowser2@@@ATL@@QBE_NPAUIWebBrowser2@@@Z ; ATL::CComPtrBase<IWebBrowser2>::operator==
; Function compile flags: /Ogsp
;	COMDAT ??8?$CComPtrBase@UIWebBrowser2@@@ATL@@QBE_NPAUIWebBrowser2@@@Z
_TEXT	SEGMENT
_pT$ = 8						; size = 4
??8?$CComPtrBase@UIWebBrowser2@@@ATL@@QBE_NPAUIWebBrowser2@@@Z PROC ; ATL::CComPtrBase<IWebBrowser2>::operator==, COMDAT
; _this$ = ecx

; 198  : 	{

  00000	55		 push	 ebp
  00001	8b ec		 mov	 ebp, esp

; 199  : 		return p == pT;

  00003	8b 09		 mov	 ecx, DWORD PTR [ecx]
  00005	33 c0		 xor	 eax, eax
  00007	3b 4d 08	 cmp	 ecx, DWORD PTR _pT$[ebp]
  0000a	0f 94 c0	 sete	 al

; 200  : 	}

  0000d	5d		 pop	 ebp
  0000e	c2 04 00	 ret	 4
??8?$CComPtrBase@UIWebBrowser2@@@ATL@@QBE_NPAUIWebBrowser2@@@Z ENDP ; ATL::CComPtrBase<IWebBrowser2>::operator==
_TEXT	ENDS
PUBLIC	?size@?$vector@V?$basic_string@DU?$char_traits@D@std@@V?$allocator@D@2@@std@@V?$allocator@V?$basic_string@DU?$char_traits@D@std@@V?$allocator@D@2@@std@@@2@@std@@QBEIXZ ; std::vector<std::basic_string<char,std::char_traits<char>,std::allocator<char> >,std::allocator<std::basic_string<char,std::char_traits<char>,std::allocator<char> > > >::size
; Function compile flags: /Ogsp
; File c:\program files (x86)\microsoft visual studio 10.0\vc\include\vector
;	COMDAT ?size@?$vector@V?$basic_string@DU?$char_traits@D@std@@V?$allocator@D@2@@std@@V?$allocator@V?$basic_string@DU?$char_traits@D@std@@V?$allocator@D@2@@std@@@2@@std@@QBEIXZ
_TEXT	SEGMENT
?size@?$vector@V?$basic_string@DU?$char_traits@D@std@@V?$allocator@D@2@@std@@V?$allocator@V?$basic_string@DU?$char_traits@D@std@@V?$allocator@D@2@@std@@@2@@std@@QBEIXZ PROC ; std::vector<std::basic_string<char,std::char_traits<char>,std::allocator<char> >,std::allocator<std::basic_string<char,std::char_traits<char>,std::allocator<char> > > >::size, COMDAT
; _this$ = ecx

; 879  : 		return (this->_Mylast - this->_Myfirst);

  00000	8b 41 04	 mov	 eax, DWORD PTR [ecx+4]
  00003	2b 01		 sub	 eax, DWORD PTR [ecx]
  00005	6a 1c		 push	 28			; 0000001cH
  00007	99		 cdq
  00008	59		 pop	 ecx
  00009	f7 f9		 idiv	 ecx

; 880  : 		}

  0000b	c3		 ret	 0
?size@?$vector@V?$basic_string@DU?$char_traits@D@std@@V?$allocator@D@2@@std@@V?$allocator@V?$basic_string@DU?$char_traits@D@std@@V?$allocator@D@2@@std@@@2@@std@@QBEIXZ ENDP ; std::vector<std::basic_string<char,std::char_traits<char>,std::allocator<char> >,std::allocator<std::basic_string<char,std::char_traits<char>,std::allocator<char> > > >::size
_TEXT	ENDS
PUBLIC	??A?$vector@V?$basic_string@DU?$char_traits@D@std@@V?$allocator@D@2@@std@@V?$allocator@V?$basic_string@DU?$char_traits@D@std@@V?$allocator@D@2@@std@@@2@@std@@QAEAAV?$basic_string@DU?$char_traits@D@std@@V?$allocator@D@2@@1@I@Z ; std::vector<std::basic_string<char,std::char_traits<char>,std::allocator<char> >,std::allocator<std::basic_string<char,std::char_traits<char>,std::allocator<char> > > >::operator[]
; Function compile flags: /Ogsp
;	COMDAT ??A?$vector@V?$basic_string@DU?$char_traits@D@std@@V?$allocator@D@2@@std@@V?$allocator@V?$basic_string@DU?$char_traits@D@std@@V?$allocator@D@2@@std@@@2@@std@@QAEAAV?$basic_string@DU?$char_traits@D@std@@V?$allocator@D@2@@1@I@Z
_TEXT	SEGMENT
__Pos$ = 8						; size = 4
??A?$vector@V?$basic_string@DU?$char_traits@D@std@@V?$allocator@D@2@@std@@V?$allocator@V?$basic_string@DU?$char_traits@D@std@@V?$allocator@D@2@@std@@@2@@std@@QAEAAV?$basic_string@DU?$char_traits@D@std@@V?$allocator@D@2@@1@I@Z PROC ; std::vector<std::basic_string<char,std::char_traits<char>,std::allocator<char> >,std::allocator<std::basic_string<char,std::char_traits<char>,std::allocator<char> > > >::operator[], COMDAT
; _this$ = ecx

; 928  : 		{	// subscript mutable sequence

  00000	55		 push	 ebp
  00001	8b ec		 mov	 ebp, esp

; 929  :  #if _ITERATOR_DEBUG_LEVEL == 2
; 930  : 		if (size() <= _Pos)
; 931  : 			{	// report error
; 932  : 			_DEBUG_ERROR("vector subscript out of range");
; 933  : 			_SCL_SECURE_OUT_OF_RANGE;
; 934  : 			}
; 935  : 
; 936  :  #elif _ITERATOR_DEBUG_LEVEL == 1
; 937  : 		_SCL_SECURE_VALIDATE_RANGE(_Pos < size());
; 938  :  #endif /* _ITERATOR_DEBUG_LEVEL */
; 939  : 
; 940  : 		return (*(this->_Myfirst + _Pos));

  00003	8b 45 08	 mov	 eax, DWORD PTR __Pos$[ebp]
  00006	6b c0 1c	 imul	 eax, 28			; 0000001cH
  00009	03 01		 add	 eax, DWORD PTR [ecx]

; 941  : 		}

  0000b	5d		 pop	 ebp
  0000c	c2 04 00	 ret	 4
??A?$vector@V?$basic_string@DU?$char_traits@D@std@@V?$allocator@D@2@@std@@V?$allocator@V?$basic_string@DU?$char_traits@D@std@@V?$allocator@D@2@@std@@@2@@std@@QAEAAV?$basic_string@DU?$char_traits@D@std@@V?$allocator@D@2@@1@I@Z ENDP ; std::vector<std::basic_string<char,std::char_traits<char>,std::allocator<char> >,std::allocator<std::basic_string<char,std::char_traits<char>,std::allocator<char> > > >::operator[]
_TEXT	ENDS
PUBLIC	??1?$CComPtrBase@UIHTMLDocument2@@@ATL@@QAE@XZ	; ATL::CComPtrBase<IHTMLDocument2>::~CComPtrBase<IHTMLDocument2>
; Function compile flags: /Ogsp
; File c:\program files (x86)\microsoft visual studio 10.0\vc\atlmfc\include\atlcomcli.h
;	COMDAT ??1?$CComPtrBase@UIHTMLDocument2@@@ATL@@QAE@XZ
_TEXT	SEGMENT
??1?$CComPtrBase@UIHTMLDocument2@@@ATL@@QAE@XZ PROC	; ATL::CComPtrBase<IHTMLDocument2>::~CComPtrBase<IHTMLDocument2>, COMDAT
; _this$ = ecx

; 161  : 		if (p)

  00000	8b 01		 mov	 eax, DWORD PTR [ecx]
  00002	85 c0		 test	 eax, eax
  00004	74 06		 je	 SHORT $LN1@CComPtrBas

; 162  : 			p->Release();

  00006	8b 08		 mov	 ecx, DWORD PTR [eax]
  00008	50		 push	 eax
  00009	ff 51 08	 call	 DWORD PTR [ecx+8]
$LN1@CComPtrBas:

; 163  : 	}

  0000c	c3		 ret	 0
??1?$CComPtrBase@UIHTMLDocument2@@@ATL@@QAE@XZ ENDP	; ATL::CComPtrBase<IHTMLDocument2>::~CComPtrBase<IHTMLDocument2>
_TEXT	ENDS
PUBLIC	??B?$CComPtrBase@UIHTMLDocument2@@@ATL@@QBEPAUIHTMLDocument2@@XZ ; ATL::CComPtrBase<IHTMLDocument2>::operator IHTMLDocument2 *
; Function compile flags: /Ogsp
;	COMDAT ??B?$CComPtrBase@UIHTMLDocument2@@@ATL@@QBEPAUIHTMLDocument2@@XZ
_TEXT	SEGMENT
??B?$CComPtrBase@UIHTMLDocument2@@@ATL@@QBEPAUIHTMLDocument2@@XZ PROC ; ATL::CComPtrBase<IHTMLDocument2>::operator IHTMLDocument2 *, COMDAT
; _this$ = ecx

; 166  : 		return p;

  00000	8b 01		 mov	 eax, DWORD PTR [ecx]

; 167  : 	}

  00002	c3		 ret	 0
??B?$CComPtrBase@UIHTMLDocument2@@@ATL@@QBEPAUIHTMLDocument2@@XZ ENDP ; ATL::CComPtrBase<IHTMLDocument2>::operator IHTMLDocument2 *
_TEXT	ENDS
PUBLIC	??I?$CComPtrBase@UIHTMLDocument2@@@ATL@@QAEPAPAUIHTMLDocument2@@XZ ; ATL::CComPtrBase<IHTMLDocument2>::operator&
; Function compile flags: /Ogsp
;	COMDAT ??I?$CComPtrBase@UIHTMLDocument2@@@ATL@@QAEPAPAUIHTMLDocument2@@XZ
_TEXT	SEGMENT
??I?$CComPtrBase@UIHTMLDocument2@@@ATL@@QAEPAPAUIHTMLDocument2@@XZ PROC ; ATL::CComPtrBase<IHTMLDocument2>::operator&, COMDAT
; _this$ = ecx

; 176  : 	{

  00000	8b c1		 mov	 eax, ecx

; 177  : 		ATLASSERT(p==NULL);
; 178  : 		return &p;
; 179  : 	}

  00002	c3		 ret	 0
??I?$CComPtrBase@UIHTMLDocument2@@@ATL@@QAEPAPAUIHTMLDocument2@@XZ ENDP ; ATL::CComPtrBase<IHTMLDocument2>::operator&
_TEXT	ENDS
PUBLIC	??C?$CComPtrBase@UIHTMLDocument2@@@ATL@@QBEPAV?$_NoAddRefReleaseOnCComPtr@UIHTMLDocument2@@@1@XZ ; ATL::CComPtrBase<IHTMLDocument2>::operator->
; Function compile flags: /Ogsp
;	COMDAT ??C?$CComPtrBase@UIHTMLDocument2@@@ATL@@QBEPAV?$_NoAddRefReleaseOnCComPtr@UIHTMLDocument2@@@1@XZ
_TEXT	SEGMENT
??C?$CComPtrBase@UIHTMLDocument2@@@ATL@@QBEPAV?$_NoAddRefReleaseOnCComPtr@UIHTMLDocument2@@@1@XZ PROC ; ATL::CComPtrBase<IHTMLDocument2>::operator->, COMDAT
; _this$ = ecx

; 182  : 		ATLASSERT(p!=NULL);
; 183  : 		return (_NoAddRefReleaseOnCComPtr<T>*)p;

  00000	8b 01		 mov	 eax, DWORD PTR [ecx]

; 184  : 	}

  00002	c3		 ret	 0
??C?$CComPtrBase@UIHTMLDocument2@@@ATL@@QBEPAV?$_NoAddRefReleaseOnCComPtr@UIHTMLDocument2@@@1@XZ ENDP ; ATL::CComPtrBase<IHTMLDocument2>::operator->
_TEXT	ENDS
PUBLIC	??7?$CComPtrBase@UIHTMLDocument2@@@ATL@@QBE_NXZ	; ATL::CComPtrBase<IHTMLDocument2>::operator!
; Function compile flags: /Ogsp
;	COMDAT ??7?$CComPtrBase@UIHTMLDocument2@@@ATL@@QBE_NXZ
_TEXT	SEGMENT
??7?$CComPtrBase@UIHTMLDocument2@@@ATL@@QBE_NXZ PROC	; ATL::CComPtrBase<IHTMLDocument2>::operator!, COMDAT
; _this$ = ecx

; 187  : 		return (p == NULL);

  00000	33 c0		 xor	 eax, eax
  00002	39 01		 cmp	 DWORD PTR [ecx], eax
  00004	0f 94 c0	 sete	 al

; 188  : 	}

  00007	c3		 ret	 0
??7?$CComPtrBase@UIHTMLDocument2@@@ATL@@QBE_NXZ ENDP	; ATL::CComPtrBase<IHTMLDocument2>::operator!
_TEXT	ENDS
PUBLIC	??1?$CComPtrBase@UIHTMLElementCollection@@@ATL@@QAE@XZ ; ATL::CComPtrBase<IHTMLElementCollection>::~CComPtrBase<IHTMLElementCollection>
; Function compile flags: /Ogsp
;	COMDAT ??1?$CComPtrBase@UIHTMLElementCollection@@@ATL@@QAE@XZ
_TEXT	SEGMENT
??1?$CComPtrBase@UIHTMLElementCollection@@@ATL@@QAE@XZ PROC ; ATL::CComPtrBase<IHTMLElementCollection>::~CComPtrBase<IHTMLElementCollection>, COMDAT
; _this$ = ecx

; 161  : 		if (p)

  00000	8b 01		 mov	 eax, DWORD PTR [ecx]
  00002	85 c0		 test	 eax, eax
  00004	74 06		 je	 SHORT $LN1@CComPtrBas@2

; 162  : 			p->Release();

  00006	8b 08		 mov	 ecx, DWORD PTR [eax]
  00008	50		 push	 eax
  00009	ff 51 08	 call	 DWORD PTR [ecx+8]
$LN1@CComPtrBas@2:

; 163  : 	}

  0000c	c3		 ret	 0
??1?$CComPtrBase@UIHTMLElementCollection@@@ATL@@QAE@XZ ENDP ; ATL::CComPtrBase<IHTMLElementCollection>::~CComPtrBase<IHTMLElementCollection>
_TEXT	ENDS
PUBLIC	??I?$CComPtrBase@UIHTMLElementCollection@@@ATL@@QAEPAPAUIHTMLElementCollection@@XZ ; ATL::CComPtrBase<IHTMLElementCollection>::operator&
; Function compile flags: /Ogsp
;	COMDAT ??I?$CComPtrBase@UIHTMLElementCollection@@@ATL@@QAEPAPAUIHTMLElementCollection@@XZ
_TEXT	SEGMENT
??I?$CComPtrBase@UIHTMLElementCollection@@@ATL@@QAEPAPAUIHTMLElementCollection@@XZ PROC ; ATL::CComPtrBase<IHTMLElementCollection>::operator&, COMDAT
; _this$ = ecx

; 176  : 	{

  00000	8b c1		 mov	 eax, ecx

; 177  : 		ATLASSERT(p==NULL);
; 178  : 		return &p;
; 179  : 	}

  00002	c3		 ret	 0
??I?$CComPtrBase@UIHTMLElementCollection@@@ATL@@QAEPAPAUIHTMLElementCollection@@XZ ENDP ; ATL::CComPtrBase<IHTMLElementCollection>::operator&
_TEXT	ENDS
PUBLIC	??C?$CComPtrBase@UIHTMLElementCollection@@@ATL@@QBEPAV?$_NoAddRefReleaseOnCComPtr@UIHTMLElementCollection@@@1@XZ ; ATL::CComPtrBase<IHTMLElementCollection>::operator->
; Function compile flags: /Ogsp
;	COMDAT ??C?$CComPtrBase@UIHTMLElementCollection@@@ATL@@QBEPAV?$_NoAddRefReleaseOnCComPtr@UIHTMLElementCollection@@@1@XZ
_TEXT	SEGMENT
??C?$CComPtrBase@UIHTMLElementCollection@@@ATL@@QBEPAV?$_NoAddRefReleaseOnCComPtr@UIHTMLElementCollection@@@1@XZ PROC ; ATL::CComPtrBase<IHTMLElementCollection>::operator->, COMDAT
; _this$ = ecx

; 182  : 		ATLASSERT(p!=NULL);
; 183  : 		return (_NoAddRefReleaseOnCComPtr<T>*)p;

  00000	8b 01		 mov	 eax, DWORD PTR [ecx]

; 184  : 	}

  00002	c3		 ret	 0
??C?$CComPtrBase@UIHTMLElementCollection@@@ATL@@QBEPAV?$_NoAddRefReleaseOnCComPtr@UIHTMLElementCollection@@@1@XZ ENDP ; ATL::CComPtrBase<IHTMLElementCollection>::operator->
_TEXT	ENDS
PUBLIC	??7?$CComPtrBase@UIHTMLElementCollection@@@ATL@@QBE_NXZ ; ATL::CComPtrBase<IHTMLElementCollection>::operator!
; Function compile flags: /Ogsp
;	COMDAT ??7?$CComPtrBase@UIHTMLElementCollection@@@ATL@@QBE_NXZ
_TEXT	SEGMENT
??7?$CComPtrBase@UIHTMLElementCollection@@@ATL@@QBE_NXZ PROC ; ATL::CComPtrBase<IHTMLElementCollection>::operator!, COMDAT
; _this$ = ecx

; 187  : 		return (p == NULL);

  00000	33 c0		 xor	 eax, eax
  00002	39 01		 cmp	 DWORD PTR [ecx], eax
  00004	0f 94 c0	 sete	 al

; 188  : 	}

  00007	c3		 ret	 0
??7?$CComPtrBase@UIHTMLElementCollection@@@ATL@@QBE_NXZ ENDP ; ATL::CComPtrBase<IHTMLElementCollection>::operator!
_TEXT	ENDS
PUBLIC	??1?$CComPtrBase@UIHTMLElement@@@ATL@@QAE@XZ	; ATL::CComPtrBase<IHTMLElement>::~CComPtrBase<IHTMLElement>
; Function compile flags: /Ogsp
;	COMDAT ??1?$CComPtrBase@UIHTMLElement@@@ATL@@QAE@XZ
_TEXT	SEGMENT
??1?$CComPtrBase@UIHTMLElement@@@ATL@@QAE@XZ PROC	; ATL::CComPtrBase<IHTMLElement>::~CComPtrBase<IHTMLElement>, COMDAT
; _this$ = ecx

; 161  : 		if (p)

  00000	8b 01		 mov	 eax, DWORD PTR [ecx]
  00002	85 c0		 test	 eax, eax
  00004	74 06		 je	 SHORT $LN1@CComPtrBas@3

; 162  : 			p->Release();

  00006	8b 08		 mov	 ecx, DWORD PTR [eax]
  00008	50		 push	 eax
  00009	ff 51 08	 call	 DWORD PTR [ecx+8]
$LN1@CComPtrBas@3:

; 163  : 	}

  0000c	c3		 ret	 0
??1?$CComPtrBase@UIHTMLElement@@@ATL@@QAE@XZ ENDP	; ATL::CComPtrBase<IHTMLElement>::~CComPtrBase<IHTMLElement>
_TEXT	ENDS
PUBLIC	??B?$CComPtrBase@UIHTMLElement@@@ATL@@QBEPAUIHTMLElement@@XZ ; ATL::CComPtrBase<IHTMLElement>::operator IHTMLElement *
; Function compile flags: /Ogsp
;	COMDAT ??B?$CComPtrBase@UIHTMLElement@@@ATL@@QBEPAUIHTMLElement@@XZ
_TEXT	SEGMENT
??B?$CComPtrBase@UIHTMLElement@@@ATL@@QBEPAUIHTMLElement@@XZ PROC ; ATL::CComPtrBase<IHTMLElement>::operator IHTMLElement *, COMDAT
; _this$ = ecx

; 166  : 		return p;

  00000	8b 01		 mov	 eax, DWORD PTR [ecx]

; 167  : 	}

  00002	c3		 ret	 0
??B?$CComPtrBase@UIHTMLElement@@@ATL@@QBEPAUIHTMLElement@@XZ ENDP ; ATL::CComPtrBase<IHTMLElement>::operator IHTMLElement *
_TEXT	ENDS
PUBLIC	??I?$CComPtrBase@UIHTMLElement@@@ATL@@QAEPAPAUIHTMLElement@@XZ ; ATL::CComPtrBase<IHTMLElement>::operator&
; Function compile flags: /Ogsp
;	COMDAT ??I?$CComPtrBase@UIHTMLElement@@@ATL@@QAEPAPAUIHTMLElement@@XZ
_TEXT	SEGMENT
??I?$CComPtrBase@UIHTMLElement@@@ATL@@QAEPAPAUIHTMLElement@@XZ PROC ; ATL::CComPtrBase<IHTMLElement>::operator&, COMDAT
; _this$ = ecx

; 176  : 	{

  00000	8b c1		 mov	 eax, ecx

; 177  : 		ATLASSERT(p==NULL);
; 178  : 		return &p;
; 179  : 	}

  00002	c3		 ret	 0
??I?$CComPtrBase@UIHTMLElement@@@ATL@@QAEPAPAUIHTMLElement@@XZ ENDP ; ATL::CComPtrBase<IHTMLElement>::operator&
_TEXT	ENDS
PUBLIC	??C?$CComPtrBase@UIHTMLElement@@@ATL@@QBEPAV?$_NoAddRefReleaseOnCComPtr@UIHTMLElement@@@1@XZ ; ATL::CComPtrBase<IHTMLElement>::operator->
; Function compile flags: /Ogsp
;	COMDAT ??C?$CComPtrBase@UIHTMLElement@@@ATL@@QBEPAV?$_NoAddRefReleaseOnCComPtr@UIHTMLElement@@@1@XZ
_TEXT	SEGMENT
??C?$CComPtrBase@UIHTMLElement@@@ATL@@QBEPAV?$_NoAddRefReleaseOnCComPtr@UIHTMLElement@@@1@XZ PROC ; ATL::CComPtrBase<IHTMLElement>::operator->, COMDAT
; _this$ = ecx

; 182  : 		ATLASSERT(p!=NULL);
; 183  : 		return (_NoAddRefReleaseOnCComPtr<T>*)p;

  00000	8b 01		 mov	 eax, DWORD PTR [ecx]

; 184  : 	}

  00002	c3		 ret	 0
??C?$CComPtrBase@UIHTMLElement@@@ATL@@QBEPAV?$_NoAddRefReleaseOnCComPtr@UIHTMLElement@@@1@XZ ENDP ; ATL::CComPtrBase<IHTMLElement>::operator->
_TEXT	ENDS
PUBLIC	??1?$CComPtrBase@UIHTMLBodyElement@@@ATL@@QAE@XZ ; ATL::CComPtrBase<IHTMLBodyElement>::~CComPtrBase<IHTMLBodyElement>
; Function compile flags: /Ogsp
;	COMDAT ??1?$CComPtrBase@UIHTMLBodyElement@@@ATL@@QAE@XZ
_TEXT	SEGMENT
??1?$CComPtrBase@UIHTMLBodyElement@@@ATL@@QAE@XZ PROC	; ATL::CComPtrBase<IHTMLBodyElement>::~CComPtrBase<IHTMLBodyElement>, COMDAT
; _this$ = ecx

; 161  : 		if (p)

  00000	8b 01		 mov	 eax, DWORD PTR [ecx]
  00002	85 c0		 test	 eax, eax
  00004	74 06		 je	 SHORT $LN1@CComPtrBas@4

; 162  : 			p->Release();

  00006	8b 08		 mov	 ecx, DWORD PTR [eax]
  00008	50		 push	 eax
  00009	ff 51 08	 call	 DWORD PTR [ecx+8]
$LN1@CComPtrBas@4:

; 163  : 	}

  0000c	c3		 ret	 0
??1?$CComPtrBase@UIHTMLBodyElement@@@ATL@@QAE@XZ ENDP	; ATL::CComPtrBase<IHTMLBodyElement>::~CComPtrBase<IHTMLBodyElement>
_TEXT	ENDS
PUBLIC	??B?$CComPtrBase@UIHTMLBodyElement@@@ATL@@QBEPAUIHTMLBodyElement@@XZ ; ATL::CComPtrBase<IHTMLBodyElement>::operator IHTMLBodyElement *
; Function compile flags: /Ogsp
;	COMDAT ??B?$CComPtrBase@UIHTMLBodyElement@@@ATL@@QBEPAUIHTMLBodyElement@@XZ
_TEXT	SEGMENT
??B?$CComPtrBase@UIHTMLBodyElement@@@ATL@@QBEPAUIHTMLBodyElement@@XZ PROC ; ATL::CComPtrBase<IHTMLBodyElement>::operator IHTMLBodyElement *, COMDAT
; _this$ = ecx

; 166  : 		return p;

  00000	8b 01		 mov	 eax, DWORD PTR [ecx]

; 167  : 	}

  00002	c3		 ret	 0
??B?$CComPtrBase@UIHTMLBodyElement@@@ATL@@QBEPAUIHTMLBodyElement@@XZ ENDP ; ATL::CComPtrBase<IHTMLBodyElement>::operator IHTMLBodyElement *
_TEXT	ENDS
PUBLIC	??I?$CComPtrBase@UIHTMLBodyElement@@@ATL@@QAEPAPAUIHTMLBodyElement@@XZ ; ATL::CComPtrBase<IHTMLBodyElement>::operator&
; Function compile flags: /Ogsp
;	COMDAT ??I?$CComPtrBase@UIHTMLBodyElement@@@ATL@@QAEPAPAUIHTMLBodyElement@@XZ
_TEXT	SEGMENT
??I?$CComPtrBase@UIHTMLBodyElement@@@ATL@@QAEPAPAUIHTMLBodyElement@@XZ PROC ; ATL::CComPtrBase<IHTMLBodyElement>::operator&, COMDAT
; _this$ = ecx

; 176  : 	{

  00000	8b c1		 mov	 eax, ecx

; 177  : 		ATLASSERT(p==NULL);
; 178  : 		return &p;
; 179  : 	}

  00002	c3		 ret	 0
??I?$CComPtrBase@UIHTMLBodyElement@@@ATL@@QAEPAPAUIHTMLBodyElement@@XZ ENDP ; ATL::CComPtrBase<IHTMLBodyElement>::operator&
_TEXT	ENDS
PUBLIC	??C?$CComPtrBase@UIHTMLBodyElement@@@ATL@@QBEPAV?$_NoAddRefReleaseOnCComPtr@UIHTMLBodyElement@@@1@XZ ; ATL::CComPtrBase<IHTMLBodyElement>::operator->
; Function compile flags: /Ogsp
;	COMDAT ??C?$CComPtrBase@UIHTMLBodyElement@@@ATL@@QBEPAV?$_NoAddRefReleaseOnCComPtr@UIHTMLBodyElement@@@1@XZ
_TEXT	SEGMENT
??C?$CComPtrBase@UIHTMLBodyElement@@@ATL@@QBEPAV?$_NoAddRefReleaseOnCComPtr@UIHTMLBodyElement@@@1@XZ PROC ; ATL::CComPtrBase<IHTMLBodyElement>::operator->, COMDAT
; _this$ = ecx

; 182  : 		ATLASSERT(p!=NULL);
; 183  : 		return (_NoAddRefReleaseOnCComPtr<T>*)p;

  00000	8b 01		 mov	 eax, DWORD PTR [ecx]

; 184  : 	}

  00002	c3		 ret	 0
??C?$CComPtrBase@UIHTMLBodyElement@@@ATL@@QBEPAV?$_NoAddRefReleaseOnCComPtr@UIHTMLBodyElement@@@1@XZ ENDP ; ATL::CComPtrBase<IHTMLBodyElement>::operator->
_TEXT	ENDS
PUBLIC	??1?$CComPtrBase@UIAxWinAmbientDispatch@@@ATL@@QAE@XZ ; ATL::CComPtrBase<IAxWinAmbientDispatch>::~CComPtrBase<IAxWinAmbientDispatch>
; Function compile flags: /Ogsp
;	COMDAT ??1?$CComPtrBase@UIAxWinAmbientDispatch@@@ATL@@QAE@XZ
_TEXT	SEGMENT
??1?$CComPtrBase@UIAxWinAmbientDispatch@@@ATL@@QAE@XZ PROC ; ATL::CComPtrBase<IAxWinAmbientDispatch>::~CComPtrBase<IAxWinAmbientDispatch>, COMDAT
; _this$ = ecx

; 161  : 		if (p)

  00000	8b 01		 mov	 eax, DWORD PTR [ecx]
  00002	85 c0		 test	 eax, eax
  00004	74 06		 je	 SHORT $LN1@CComPtrBas@5

; 162  : 			p->Release();

  00006	8b 08		 mov	 ecx, DWORD PTR [eax]
  00008	50		 push	 eax
  00009	ff 51 08	 call	 DWORD PTR [ecx+8]
$LN1@CComPtrBas@5:

; 163  : 	}

  0000c	c3		 ret	 0
??1?$CComPtrBase@UIAxWinAmbientDispatch@@@ATL@@QAE@XZ ENDP ; ATL::CComPtrBase<IAxWinAmbientDispatch>::~CComPtrBase<IAxWinAmbientDispatch>
_TEXT	ENDS
PUBLIC	??C?$CComPtrBase@UIAxWinAmbientDispatch@@@ATL@@QBEPAV?$_NoAddRefReleaseOnCComPtr@UIAxWinAmbientDispatch@@@1@XZ ; ATL::CComPtrBase<IAxWinAmbientDispatch>::operator->
; Function compile flags: /Ogsp
;	COMDAT ??C?$CComPtrBase@UIAxWinAmbientDispatch@@@ATL@@QBEPAV?$_NoAddRefReleaseOnCComPtr@UIAxWinAmbientDispatch@@@1@XZ
_TEXT	SEGMENT
??C?$CComPtrBase@UIAxWinAmbientDispatch@@@ATL@@QBEPAV?$_NoAddRefReleaseOnCComPtr@UIAxWinAmbientDispatch@@@1@XZ PROC ; ATL::CComPtrBase<IAxWinAmbientDispatch>::operator->, COMDAT
; _this$ = ecx

; 182  : 		ATLASSERT(p!=NULL);
; 183  : 		return (_NoAddRefReleaseOnCComPtr<T>*)p;

  00000	8b 01		 mov	 eax, DWORD PTR [ecx]

; 184  : 	}

  00002	c3		 ret	 0
??C?$CComPtrBase@UIAxWinAmbientDispatch@@@ATL@@QBEPAV?$_NoAddRefReleaseOnCComPtr@UIAxWinAmbientDispatch@@@1@XZ ENDP ; ATL::CComPtrBase<IAxWinAmbientDispatch>::operator->
_TEXT	ENDS
PUBLIC	??0?$allocator@V?$basic_string@DU?$char_traits@D@std@@V?$allocator@D@2@@std@@@std@@QAE@ABV01@@Z ; std::allocator<std::basic_string<char,std::char_traits<char>,std::allocator<char> > >::allocator<std::basic_string<char,std::char_traits<char>,std::allocator<char> > >
; Function compile flags: /Ogsp
; File c:\program files (x86)\microsoft visual studio 10.0\vc\include\xmemory
;	COMDAT ??0?$allocator@V?$basic_string@DU?$char_traits@D@std@@V?$allocator@D@2@@std@@@std@@QAE@ABV01@@Z
_TEXT	SEGMENT
___formal$ = 8						; size = 4
??0?$allocator@V?$basic_string@DU?$char_traits@D@std@@V?$allocator@D@2@@std@@@std@@QAE@ABV01@@Z PROC ; std::allocator<std::basic_string<char,std::char_traits<char>,std::allocator<char> > >::allocator<std::basic_string<char,std::char_traits<char>,std::allocator<char> > >, COMDAT
; _this$ = ecx

; 165  : 	_ALLOCATOR(const _ALLOCATOR<_Ty>&) _THROW0()

  00000	8b c1		 mov	 eax, ecx

; 166  : 		{	// construct by copying (do nothing)
; 167  : 		}

  00002	c2 04 00	 ret	 4
??0?$allocator@V?$basic_string@DU?$char_traits@D@std@@V?$allocator@D@2@@std@@@std@@QAE@ABV01@@Z ENDP ; std::allocator<std::basic_string<char,std::char_traits<char>,std::allocator<char> > >::allocator<std::basic_string<char,std::char_traits<char>,std::allocator<char> > >
_TEXT	ENDS
PUBLIC	??0?$CComPtrBase@UIHTMLDocument2@@@ATL@@IAE@PAUIHTMLDocument2@@@Z ; ATL::CComPtrBase<IHTMLDocument2>::CComPtrBase<IHTMLDocument2>
; Function compile flags: /Ogsp
; File c:\program files (x86)\microsoft visual studio 10.0\vc\atlmfc\include\atlcomcli.h
;	COMDAT ??0?$CComPtrBase@UIHTMLDocument2@@@ATL@@IAE@PAUIHTMLDocument2@@@Z
_TEXT	SEGMENT
_lp$ = 8						; size = 4
??0?$CComPtrBase@UIHTMLDocument2@@@ATL@@IAE@PAUIHTMLDocument2@@@Z PROC ; ATL::CComPtrBase<IHTMLDocument2>::CComPtrBase<IHTMLDocument2>, COMDAT
; _this$ = ecx

; 151  : 	CComPtrBase(_Inout_opt_ T* lp) throw()

  00000	55		 push	 ebp
  00001	8b ec		 mov	 ebp, esp

; 152  : 	{
; 153  : 		p = lp;

  00003	8b 45 08	 mov	 eax, DWORD PTR _lp$[ebp]
  00006	56		 push	 esi
  00007	8b f1		 mov	 esi, ecx
  00009	89 06		 mov	 DWORD PTR [esi], eax

; 154  : 		if (p != NULL)

  0000b	85 c0		 test	 eax, eax
  0000d	74 06		 je	 SHORT $LN1@CComPtrBas@6

; 155  : 			p->AddRef();

  0000f	8b 08		 mov	 ecx, DWORD PTR [eax]
  00011	50		 push	 eax
  00012	ff 51 04	 call	 DWORD PTR [ecx+4]
$LN1@CComPtrBas@6:

; 156  : 	}

  00015	8b c6		 mov	 eax, esi
  00017	5e		 pop	 esi
  00018	5d		 pop	 ebp
  00019	c2 04 00	 ret	 4
??0?$CComPtrBase@UIHTMLDocument2@@@ATL@@IAE@PAUIHTMLDocument2@@@Z ENDP ; ATL::CComPtrBase<IHTMLDocument2>::CComPtrBase<IHTMLDocument2>
_TEXT	ENDS
PUBLIC	??0?$CComPtrBase@UIHTMLElementCollection@@@ATL@@IAE@PAUIHTMLElementCollection@@@Z ; ATL::CComPtrBase<IHTMLElementCollection>::CComPtrBase<IHTMLElementCollection>
; Function compile flags: /Ogsp
;	COMDAT ??0?$CComPtrBase@UIHTMLElementCollection@@@ATL@@IAE@PAUIHTMLElementCollection@@@Z
_TEXT	SEGMENT
_lp$ = 8						; size = 4
??0?$CComPtrBase@UIHTMLElementCollection@@@ATL@@IAE@PAUIHTMLElementCollection@@@Z PROC ; ATL::CComPtrBase<IHTMLElementCollection>::CComPtrBase<IHTMLElementCollection>, COMDAT
; _this$ = ecx

; 151  : 	CComPtrBase(_Inout_opt_ T* lp) throw()

  00000	55		 push	 ebp
  00001	8b ec		 mov	 ebp, esp

; 152  : 	{
; 153  : 		p = lp;

  00003	8b 45 08	 mov	 eax, DWORD PTR _lp$[ebp]
  00006	56		 push	 esi
  00007	8b f1		 mov	 esi, ecx
  00009	89 06		 mov	 DWORD PTR [esi], eax

; 154  : 		if (p != NULL)

  0000b	85 c0		 test	 eax, eax
  0000d	74 06		 je	 SHORT $LN1@CComPtrBas@7

; 155  : 			p->AddRef();

  0000f	8b 08		 mov	 ecx, DWORD PTR [eax]
  00011	50		 push	 eax
  00012	ff 51 04	 call	 DWORD PTR [ecx+4]
$LN1@CComPtrBas@7:

; 156  : 	}

  00015	8b c6		 mov	 eax, esi
  00017	5e		 pop	 esi
  00018	5d		 pop	 ebp
  00019	c2 04 00	 ret	 4
??0?$CComPtrBase@UIHTMLElementCollection@@@ATL@@IAE@PAUIHTMLElementCollection@@@Z ENDP ; ATL::CComPtrBase<IHTMLElementCollection>::CComPtrBase<IHTMLElementCollection>
_TEXT	ENDS
PUBLIC	??0?$CComPtrBase@UIHTMLElement@@@ATL@@IAE@PAUIHTMLElement@@@Z ; ATL::CComPtrBase<IHTMLElement>::CComPtrBase<IHTMLElement>
; Function compile flags: /Ogsp
;	COMDAT ??0?$CComPtrBase@UIHTMLElement@@@ATL@@IAE@PAUIHTMLElement@@@Z
_TEXT	SEGMENT
_lp$ = 8						; size = 4
??0?$CComPtrBase@UIHTMLElement@@@ATL@@IAE@PAUIHTMLElement@@@Z PROC ; ATL::CComPtrBase<IHTMLElement>::CComPtrBase<IHTMLElement>, COMDAT
; _this$ = ecx

; 151  : 	CComPtrBase(_Inout_opt_ T* lp) throw()

  00000	55		 push	 ebp
  00001	8b ec		 mov	 ebp, esp

; 152  : 	{
; 153  : 		p = lp;

  00003	8b 45 08	 mov	 eax, DWORD PTR _lp$[ebp]
  00006	56		 push	 esi
  00007	8b f1		 mov	 esi, ecx
  00009	89 06		 mov	 DWORD PTR [esi], eax

; 154  : 		if (p != NULL)

  0000b	85 c0		 test	 eax, eax
  0000d	74 06		 je	 SHORT $LN1@CComPtrBas@8

; 155  : 			p->AddRef();

  0000f	8b 08		 mov	 ecx, DWORD PTR [eax]
  00011	50		 push	 eax
  00012	ff 51 04	 call	 DWORD PTR [ecx+4]
$LN1@CComPtrBas@8:

; 156  : 	}

  00015	8b c6		 mov	 eax, esi
  00017	5e		 pop	 esi
  00018	5d		 pop	 ebp
  00019	c2 04 00	 ret	 4
??0?$CComPtrBase@UIHTMLElement@@@ATL@@IAE@PAUIHTMLElement@@@Z ENDP ; ATL::CComPtrBase<IHTMLElement>::CComPtrBase<IHTMLElement>
_TEXT	ENDS
PUBLIC	??0?$CComPtrBase@UIHTMLBodyElement@@@ATL@@IAE@PAUIHTMLBodyElement@@@Z ; ATL::CComPtrBase<IHTMLBodyElement>::CComPtrBase<IHTMLBodyElement>
; Function compile flags: /Ogsp
;	COMDAT ??0?$CComPtrBase@UIHTMLBodyElement@@@ATL@@IAE@PAUIHTMLBodyElement@@@Z
_TEXT	SEGMENT
_lp$ = 8						; size = 4
??0?$CComPtrBase@UIHTMLBodyElement@@@ATL@@IAE@PAUIHTMLBodyElement@@@Z PROC ; ATL::CComPtrBase<IHTMLBodyElement>::CComPtrBase<IHTMLBodyElement>, COMDAT
; _this$ = ecx

; 151  : 	CComPtrBase(_Inout_opt_ T* lp) throw()

  00000	55		 push	 ebp
  00001	8b ec		 mov	 ebp, esp

; 152  : 	{
; 153  : 		p = lp;

  00003	8b 45 08	 mov	 eax, DWORD PTR _lp$[ebp]
  00006	56		 push	 esi
  00007	8b f1		 mov	 esi, ecx
  00009	89 06		 mov	 DWORD PTR [esi], eax

; 154  : 		if (p != NULL)

  0000b	85 c0		 test	 eax, eax
  0000d	74 06		 je	 SHORT $LN1@CComPtrBas@9

; 155  : 			p->AddRef();

  0000f	8b 08		 mov	 ecx, DWORD PTR [eax]
  00011	50		 push	 eax
  00012	ff 51 04	 call	 DWORD PTR [ecx+4]
$LN1@CComPtrBas@9:

; 156  : 	}

  00015	8b c6		 mov	 eax, esi
  00017	5e		 pop	 esi
  00018	5d		 pop	 ebp
  00019	c2 04 00	 ret	 4
??0?$CComPtrBase@UIHTMLBodyElement@@@ATL@@IAE@PAUIHTMLBodyElement@@@Z ENDP ; ATL::CComPtrBase<IHTMLBodyElement>::CComPtrBase<IHTMLBodyElement>
_TEXT	ENDS
PUBLIC	??_C@_0BD@OLBABOEK@vector?$DMT?$DO?5too?5long?$AA@ ; `string'
PUBLIC	?_Xlen@?$vector@V?$basic_string@DU?$char_traits@D@std@@V?$allocator@D@2@@std@@V?$allocator@V?$basic_string@DU?$char_traits@D@std@@V?$allocator@D@2@@std@@@2@@std@@IBEXXZ ; std::vector<std::basic_string<char,std::char_traits<char>,std::allocator<char> >,std::allocator<std::basic_string<char,std::char_traits<char>,std::allocator<char> > > >::_Xlen
EXTRN	__imp_?_Xlength_error@std@@YAXPBD@Z:PROC
;	COMDAT ??_C@_0BD@OLBABOEK@vector?$DMT?$DO?5too?5long?$AA@
; File c:\program files (x86)\microsoft visual studio 10.0\vc\include\vector
CONST	SEGMENT
??_C@_0BD@OLBABOEK@vector?$DMT?$DO?5too?5long?$AA@ DB 'vector<T> too long'
	DB	00H						; `string'
; Function compile flags: /Ogsp
CONST	ENDS
;	COMDAT ?_Xlen@?$vector@V?$basic_string@DU?$char_traits@D@std@@V?$allocator@D@2@@std@@V?$allocator@V?$basic_string@DU?$char_traits@D@std@@V?$allocator@D@2@@std@@@2@@std@@IBEXXZ
_TEXT	SEGMENT
?_Xlen@?$vector@V?$basic_string@DU?$char_traits@D@std@@V?$allocator@D@2@@std@@V?$allocator@V?$basic_string@DU?$char_traits@D@std@@V?$allocator@D@2@@std@@@2@@std@@IBEXXZ PROC ; std::vector<std::basic_string<char,std::char_traits<char>,std::allocator<char> >,std::allocator<std::basic_string<char,std::char_traits<char>,std::allocator<char> > > >::_Xlen, COMDAT
; _this$ = ecx

; 1427 : 		_Xlength_error("vector<T> too long");

  00000	68 00 00 00 00	 push	 OFFSET ??_C@_0BD@OLBABOEK@vector?$DMT?$DO?5too?5long?$AA@
  00005	ff 15 00 00 00
	00		 call	 DWORD PTR __imp_?_Xlength_error@std@@YAXPBD@Z
$LN4@Xlen:
$LN3@Xlen:
  0000b	cc		 int	 3
?_Xlen@?$vector@V?$basic_string@DU?$char_traits@D@std@@V?$allocator@D@2@@std@@V?$allocator@V?$basic_string@DU?$char_traits@D@std@@V?$allocator@D@2@@std@@@2@@std@@IBEXXZ ENDP ; std::vector<std::basic_string<char,std::char_traits<char>,std::allocator<char> >,std::allocator<std::basic_string<char,std::char_traits<char>,std::allocator<char> > > >::_Xlen
_TEXT	ENDS
PUBLIC	??0?$CComPtrBase@UIAxWinAmbientDispatch@@@ATL@@IAE@XZ ; ATL::CComPtrBase<IAxWinAmbientDispatch>::CComPtrBase<IAxWinAmbientDispatch>
; Function compile flags: /Ogsp
; File c:\program files (x86)\microsoft visual studio 10.0\vc\atlmfc\include\atlcomcli.h
;	COMDAT ??0?$CComPtrBase@UIAxWinAmbientDispatch@@@ATL@@IAE@XZ
_TEXT	SEGMENT
??0?$CComPtrBase@UIAxWinAmbientDispatch@@@ATL@@IAE@XZ PROC ; ATL::CComPtrBase<IAxWinAmbientDispatch>::CComPtrBase<IAxWinAmbientDispatch>, COMDAT
; _this$ = ecx

; 147  : 	CComPtrBase() throw()

  00000	8b c1		 mov	 eax, ecx

; 148  : 	{
; 149  : 		p = NULL;

  00002	83 20 00	 and	 DWORD PTR [eax], 0

; 150  : 	}

  00005	c3		 ret	 0
??0?$CComPtrBase@UIAxWinAmbientDispatch@@@ATL@@IAE@XZ ENDP ; ATL::CComPtrBase<IAxWinAmbientDispatch>::CComPtrBase<IAxWinAmbientDispatch>
_TEXT	ENDS
PUBLIC	??0?$_Vector_const_iterator@V?$_Vector_val@V?$basic_string@DU?$char_traits@D@std@@V?$allocator@D@2@@std@@V?$allocator@V?$basic_string@DU?$char_traits@D@std@@V?$allocator@D@2@@std@@@2@@std@@@std@@QAE@PAV?$basic_string@DU?$char_traits@D@std@@V?$allocator@D@2@@1@PBU_Container_base0@1@@Z ; std::_Vector_const_iterator<std::_Vector_val<std::basic_string<char,std::char_traits<char>,std::allocator<char> >,std::allocator<std::basic_string<char,std::char_traits<char>,std::allocator<char> > > > >::_Vector_const_iterator<std::_Vector_val<std::basic_string<char,std::char_traits<char>,std::allocator<char> >,std::allocator<std::basic_string<char,std::char_traits<char>,std::allocator<char> > > > >
; Function compile flags: /Ogsp
; File c:\program files (x86)\microsoft visual studio 10.0\vc\include\vector
;	COMDAT ??0?$_Vector_const_iterator@V?$_Vector_val@V?$basic_string@DU?$char_traits@D@std@@V?$allocator@D@2@@std@@V?$allocator@V?$basic_string@DU?$char_traits@D@std@@V?$allocator@D@2@@std@@@2@@std@@@std@@QAE@PAV?$basic_string@DU?$char_traits@D@std@@V?$allocator@D@2@@1@PBU_Container_base0@1@@Z
_TEXT	SEGMENT
__Parg$ = 8						; size = 4
__Pvector$ = 12						; size = 4
??0?$_Vector_const_iterator@V?$_Vector_val@V?$basic_string@DU?$char_traits@D@std@@V?$allocator@D@2@@std@@V?$allocator@V?$basic_string@DU?$char_traits@D@std@@V?$allocator@D@2@@std@@@2@@std@@@std@@QAE@PAV?$basic_string@DU?$char_traits@D@std@@V?$allocator@D@2@@1@PBU_Container_base0@1@@Z PROC ; std::_Vector_const_iterator<std::_Vector_val<std::basic_string<char,std::char_traits<char>,std::allocator<char> >,std::allocator<std::basic_string<char,std::char_traits<char>,std::allocator<char> > > > >::_Vector_const_iterator<std::_Vector_val<std::basic_string<char,std::char_traits<char>,std::allocator<char> >,std::allocator<std::basic_string<char,std::char_traits<char>,std::allocator<char> > > > >, COMDAT
; _this$ = ecx

; 45   : 		{	// construct with pointer _Parg

  00000	55		 push	 ebp
  00001	8b ec		 mov	 ebp, esp
  00003	8b c1		 mov	 eax, ecx
  00005	8b 4d 08	 mov	 ecx, DWORD PTR __Parg$[ebp]
  00008	89 08		 mov	 DWORD PTR [eax], ecx

; 46   : 		this->_Adopt(_Pvector);
; 47   : 		}

  0000a	5d		 pop	 ebp
  0000b	c2 08 00	 ret	 8
??0?$_Vector_const_iterator@V?$_Vector_val@V?$basic_string@DU?$char_traits@D@std@@V?$allocator@D@2@@std@@V?$allocator@V?$basic_string@DU?$char_traits@D@std@@V?$allocator@D@2@@std@@@2@@std@@@std@@QAE@PAV?$basic_string@DU?$char_traits@D@std@@V?$allocator@D@2@@1@PBU_Container_base0@1@@Z ENDP ; std::_Vector_const_iterator<std::_Vector_val<std::basic_string<char,std::char_traits<char>,std::allocator<char> >,std::allocator<std::basic_string<char,std::char_traits<char>,std::allocator<char> > > > >::_Vector_const_iterator<std::_Vector_val<std::basic_string<char,std::char_traits<char>,std::allocator<char> >,std::allocator<std::basic_string<char,std::char_traits<char>,std::allocator<char> > > > >
_TEXT	ENDS
PUBLIC	?max_size@?$allocator@V?$basic_string@DU?$char_traits@D@std@@V?$allocator@D@2@@std@@@std@@QBEIXZ ; std::allocator<std::basic_string<char,std::char_traits<char>,std::allocator<char> > >::max_size
; Function compile flags: /Ogsp
; File c:\program files (x86)\microsoft visual studio 10.0\vc\include\xmemory
;	COMDAT ?max_size@?$allocator@V?$basic_string@DU?$char_traits@D@std@@V?$allocator@D@2@@std@@@std@@QBEIXZ
_TEXT	SEGMENT
?max_size@?$allocator@V?$basic_string@DU?$char_traits@D@std@@V?$allocator@D@2@@std@@@std@@QBEIXZ PROC ; std::allocator<std::basic_string<char,std::char_traits<char>,std::allocator<char> > >::max_size, COMDAT
; _this$ = ecx

; 218  : 		_SIZT _Count = (_SIZT)(-1) / sizeof (_Ty);
; 219  : 		return (0 < _Count ? _Count : 1);

  00000	b8 49 92 24 09	 mov	 eax, 153391689		; 09249249H

; 220  : 		}

  00005	c3		 ret	 0
?max_size@?$allocator@V?$basic_string@DU?$char_traits@D@std@@V?$allocator@D@2@@std@@@std@@QBEIXZ ENDP ; std::allocator<std::basic_string<char,std::char_traits<char>,std::allocator<char> > >::max_size
_TEXT	ENDS
PUBLIC	__TI2?AVbad_alloc@std@@
PUBLIC	??$_Allocate@V?$basic_string@DU?$char_traits@D@std@@V?$allocator@D@2@@std@@@std@@YAPAV?$basic_string@DU?$char_traits@D@std@@V?$allocator@D@2@@0@IPAV10@@Z ; std::_Allocate<std::basic_string<char,std::char_traits<char>,std::allocator<char> > >
PUBLIC	__CTA2?AVbad_alloc@std@@
PUBLIC	__CT??_R0?AVbad_alloc@std@@@8??0bad_alloc@std@@QAE@ABV01@@Z12
PUBLIC	??0bad_alloc@std@@QAE@ABV01@@Z			; std::bad_alloc::bad_alloc
PUBLIC	__CT??_R0?AVexception@std@@@8??0exception@std@@QAE@ABV01@@Z12
EXTRN	__CxxThrowException@8:PROC
EXTRN	??0exception@std@@QAE@ABV01@@Z:PROC		; std::exception::exception
;	COMDAT __CT??_R0?AVexception@std@@@8??0exception@std@@QAE@ABV01@@Z12
; File c:\program files (x86)\microsoft visual studio 10.0\vc\include\exception
xdata$x	SEGMENT
__CT??_R0?AVexception@std@@@8??0exception@std@@QAE@ABV01@@Z12 DD 00H
	DD	FLAT:??_R0?AVexception@std@@@8
	DD	00H
	DD	0ffffffffH
	ORG $+4
	DD	0cH
	DD	FLAT:??0exception@std@@QAE@ABV01@@Z
xdata$x	ENDS
;	COMDAT __CT??_R0?AVbad_alloc@std@@@8??0bad_alloc@std@@QAE@ABV01@@Z12
xdata$x	SEGMENT
__CT??_R0?AVbad_alloc@std@@@8??0bad_alloc@std@@QAE@ABV01@@Z12 DD 00H
	DD	FLAT:??_R0?AVbad_alloc@std@@@8
	DD	00H
	DD	0ffffffffH
	ORG $+4
	DD	0cH
	DD	FLAT:??0bad_alloc@std@@QAE@ABV01@@Z
xdata$x	ENDS
;	COMDAT __CTA2?AVbad_alloc@std@@
xdata$x	SEGMENT
__CTA2?AVbad_alloc@std@@ DD 02H
	DD	FLAT:__CT??_R0?AVbad_alloc@std@@@8??0bad_alloc@std@@QAE@ABV01@@Z12
	DD	FLAT:__CT??_R0?AVexception@std@@@8??0exception@std@@QAE@ABV01@@Z12
xdata$x	ENDS
;	COMDAT __TI2?AVbad_alloc@std@@
xdata$x	SEGMENT
__TI2?AVbad_alloc@std@@ DD 00H
	DD	FLAT:??1bad_alloc@std@@UAE@XZ
	DD	00H
	DD	FLAT:__CTA2?AVbad_alloc@std@@
; Function compile flags: /Ogsp
; File c:\program files (x86)\microsoft visual studio 10.0\vc\include\xmemory
xdata$x	ENDS
;	COMDAT ??$_Allocate@V?$basic_string@DU?$char_traits@D@std@@V?$allocator@D@2@@std@@@std@@YAPAV?$basic_string@DU?$char_traits@D@std@@V?$allocator@D@2@@0@IPAV10@@Z
_TEXT	SEGMENT
$T509496 = -12						; size = 12
$T509501 = 8						; size = 4
__Count$ = 8						; size = 4
___formal$ = 12						; size = 4
??$_Allocate@V?$basic_string@DU?$char_traits@D@std@@V?$allocator@D@2@@std@@@std@@YAPAV?$basic_string@DU?$char_traits@D@std@@V?$allocator@D@2@@0@IPAV10@@Z PROC ; std::_Allocate<std::basic_string<char,std::char_traits<char>,std::allocator<char> > >, COMDAT

; 30   : 	{	// allocate storage for _Count elements of type _Ty

  00000	55		 push	 ebp
  00001	8b ec		 mov	 ebp, esp

; 31   : 	void *_Ptr = 0;
; 32   : 
; 33   : 	if (_Count <= 0)

  00003	8b 4d 08	 mov	 ecx, DWORD PTR __Count$[ebp]
  00006	83 ec 0c	 sub	 esp, 12			; 0000000cH
  00009	33 c0		 xor	 eax, eax
  0000b	85 c9		 test	 ecx, ecx

; 34   : 		_Count = 0;
; 35   : 	else if (((_SIZT)(-1) / sizeof (_Ty) < _Count)

  0000d	74 3c		 je	 SHORT $LN5@Allocate

; 36   : 		|| (_Ptr = ::operator new(_Count * sizeof (_Ty))) == 0)

  0000f	81 f9 49 92 24
	09		 cmp	 ecx, 153391689		; 09249249H
  00015	77 0e		 ja	 SHORT $LN1@Allocate
  00017	6b c9 1c	 imul	 ecx, 28			; 0000001cH
  0001a	51		 push	 ecx
  0001b	e8 00 00 00 00	 call	 ??2@YAPAXI@Z		; operator new
  00020	59		 pop	 ecx
  00021	85 c0		 test	 eax, eax

; 38   : 
; 39   : 	return ((_Ty _FARQ *)_Ptr);

  00023	75 26		 jne	 SHORT $LN5@Allocate
$LN1@Allocate:

; 37   : 		_THROW_NCEE(bad_alloc, 0);

  00025	83 65 08 00	 and	 DWORD PTR $T509501[ebp], 0
  00029	8d 45 08	 lea	 eax, DWORD PTR $T509501[ebp]
  0002c	50		 push	 eax
  0002d	8d 4d f4	 lea	 ecx, DWORD PTR $T509496[ebp]
  00030	ff 15 00 00 00
	00		 call	 DWORD PTR __imp_??0exception@std@@QAE@ABQBD@Z
  00036	68 00 00 00 00	 push	 OFFSET __TI2?AVbad_alloc@std@@
  0003b	8d 45 f4	 lea	 eax, DWORD PTR $T509496[ebp]
  0003e	50		 push	 eax
  0003f	c7 45 f4 00 00
	00 00		 mov	 DWORD PTR $T509496[ebp], OFFSET ??_7bad_alloc@std@@6B@
  00046	e8 00 00 00 00	 call	 __CxxThrowException@8
$LN10@Allocate:
$LN5@Allocate:

; 40   : 	}

  0004b	c9		 leave
  0004c	c3		 ret	 0
$LN9@Allocate:
??$_Allocate@V?$basic_string@DU?$char_traits@D@std@@V?$allocator@D@2@@std@@@std@@YAPAV?$basic_string@DU?$char_traits@D@std@@V?$allocator@D@2@@0@IPAV10@@Z ENDP ; std::_Allocate<std::basic_string<char,std::char_traits<char>,std::allocator<char> > >
_TEXT	ENDS
PUBLIC	??$_Ptr_cat@V?$_Vector_const_iterator@V?$_Vector_val@V?$basic_string@DU?$char_traits@D@std@@V?$allocator@D@2@@std@@V?$allocator@V?$basic_string@DU?$char_traits@D@std@@V?$allocator@D@2@@std@@@2@@std@@@std@@PAV?$basic_string@DU?$char_traits@D@std@@V?$allocator@D@2@@2@@std@@YA?AU_Nonscalar_ptr_iterator_tag@0@AAV?$_Vector_const_iterator@V?$_Vector_val@V?$basic_string@DU?$char_traits@D@std@@V?$allocator@D@2@@std@@V?$allocator@V?$basic_string@DU?$char_traits@D@std@@V?$allocator@D@2@@std@@@2@@std@@@0@AAPAV?$basic_string@DU?$char_traits@D@std@@V?$allocator@D@2@@0@@Z ; std::_Ptr_cat<std::_Vector_const_iterator<std::_Vector_val<std::basic_string<char,std::char_traits<char>,std::allocator<char> >,std::allocator<std::basic_string<char,std::char_traits<char>,std::allocator<char> > > > >,std::basic_string<char,std::char_traits<char>,std::allocator<char> > *>
; Function compile flags: /Ogsp
; File c:\program files (x86)\microsoft visual studio 10.0\vc\include\xutility
;	COMDAT ??$_Ptr_cat@V?$_Vector_const_iterator@V?$_Vector_val@V?$basic_string@DU?$char_traits@D@std@@V?$allocator@D@2@@std@@V?$allocator@V?$basic_string@DU?$char_traits@D@std@@V?$allocator@D@2@@std@@@2@@std@@@std@@PAV?$basic_string@DU?$char_traits@D@std@@V?$allocator@D@2@@2@@std@@YA?AU_Nonscalar_ptr_iterator_tag@0@AAV?$_Vector_const_iterator@V?$_Vector_val@V?$basic_string@DU?$char_traits@D@std@@V?$allocator@D@2@@std@@V?$allocator@V?$basic_string@DU?$char_traits@D@std@@V?$allocator@D@2@@std@@@2@@std@@@0@AAPAV?$basic_string@DU?$char_traits@D@std@@V?$allocator@D@2@@0@@Z
_TEXT	SEGMENT
__Cat$ = -1						; size = 1
___formal$ = 8						; size = 4
___formal$ = 12						; size = 4
??$_Ptr_cat@V?$_Vector_const_iterator@V?$_Vector_val@V?$basic_string@DU?$char_traits@D@std@@V?$allocator@D@2@@std@@V?$allocator@V?$basic_string@DU?$char_traits@D@std@@V?$allocator@D@2@@std@@@2@@std@@@std@@PAV?$basic_string@DU?$char_traits@D@std@@V?$allocator@D@2@@2@@std@@YA?AU_Nonscalar_ptr_iterator_tag@0@AAV?$_Vector_const_iterator@V?$_Vector_val@V?$basic_string@DU?$char_traits@D@std@@V?$allocator@D@2@@std@@V?$allocator@V?$basic_string@DU?$char_traits@D@std@@V?$allocator@D@2@@std@@@2@@std@@@0@AAPAV?$basic_string@DU?$char_traits@D@std@@V?$allocator@D@2@@0@@Z PROC ; std::_Ptr_cat<std::_Vector_const_iterator<std::_Vector_val<std::basic_string<char,std::char_traits<char>,std::allocator<char> >,std::allocator<std::basic_string<char,std::char_traits<char>,std::allocator<char> > > > >,std::basic_string<char,std::char_traits<char>,std::allocator<char> > *>, COMDAT

; 485  : 	{	// return pointer category from arbitrary arguments

  00000	55		 push	 ebp
  00001	8b ec		 mov	 ebp, esp
  00003	51		 push	 ecx

; 486  : 	_Nonscalar_ptr_iterator_tag _Cat;
; 487  : 	return (_Cat);

  00004	8a 45 ff	 mov	 al, BYTE PTR __Cat$[ebp]

; 488  : 	}

  00007	c9		 leave
  00008	c3		 ret	 0
??$_Ptr_cat@V?$_Vector_const_iterator@V?$_Vector_val@V?$basic_string@DU?$char_traits@D@std@@V?$allocator@D@2@@std@@V?$allocator@V?$basic_string@DU?$char_traits@D@std@@V?$allocator@D@2@@std@@@2@@std@@@std@@PAV?$basic_string@DU?$char_traits@D@std@@V?$allocator@D@2@@2@@std@@YA?AU_Nonscalar_ptr_iterator_tag@0@AAV?$_Vector_const_iterator@V?$_Vector_val@V?$basic_string@DU?$char_traits@D@std@@V?$allocator@D@2@@std@@V?$allocator@V?$basic_string@DU?$char_traits@D@std@@V?$allocator@D@2@@std@@@2@@std@@@0@AAPAV?$basic_string@DU?$char_traits@D@std@@V?$allocator@D@2@@0@@Z ENDP ; std::_Ptr_cat<std::_Vector_const_iterator<std::_Vector_val<std::basic_string<char,std::char_traits<char>,std::allocator<char> >,std::allocator<std::basic_string<char,std::char_traits<char>,std::allocator<char> > > > >,std::basic_string<char,std::char_traits<char>,std::allocator<char> > *>
_TEXT	ENDS
PUBLIC	??D?$_Vector_const_iterator@V?$_Vector_val@V?$basic_string@DU?$char_traits@D@std@@V?$allocator@D@2@@std@@V?$allocator@V?$basic_string@DU?$char_traits@D@std@@V?$allocator@D@2@@std@@@2@@std@@@std@@QBEABV?$basic_string@DU?$char_traits@D@std@@V?$allocator@D@2@@1@XZ ; std::_Vector_const_iterator<std::_Vector_val<std::basic_string<char,std::char_traits<char>,std::allocator<char> >,std::allocator<std::basic_string<char,std::char_traits<char>,std::allocator<char> > > > >::operator*
; Function compile flags: /Ogsp
; File c:\program files (x86)\microsoft visual studio 10.0\vc\include\vector
;	COMDAT ??D?$_Vector_const_iterator@V?$_Vector_val@V?$basic_string@DU?$char_traits@D@std@@V?$allocator@D@2@@std@@V?$allocator@V?$basic_string@DU?$char_traits@D@std@@V?$allocator@D@2@@std@@@2@@std@@@std@@QBEABV?$basic_string@DU?$char_traits@D@std@@V?$allocator@D@2@@1@XZ
_TEXT	SEGMENT
??D?$_Vector_const_iterator@V?$_Vector_val@V?$basic_string@DU?$char_traits@D@std@@V?$allocator@D@2@@std@@V?$allocator@V?$basic_string@DU?$char_traits@D@std@@V?$allocator@D@2@@std@@@2@@std@@@std@@QBEABV?$basic_string@DU?$char_traits@D@std@@V?$allocator@D@2@@1@XZ PROC ; std::_Vector_const_iterator<std::_Vector_val<std::basic_string<char,std::char_traits<char>,std::allocator<char> >,std::allocator<std::basic_string<char,std::char_traits<char>,std::allocator<char> > > > >::operator*, COMDAT
; _this$ = ecx

; 64   :  #if _ITERATOR_DEBUG_LEVEL == 2
; 65   : 		if (this->_Getcont() == 0
; 66   : 			|| this->_Ptr == 0
; 67   : 			|| this->_Ptr < ((_Myvec *)this->_Getcont())->_Myfirst
; 68   : 			|| ((_Myvec *)this->_Getcont())->_Mylast <= this->_Ptr)
; 69   : 			{	// report error
; 70   : 			_DEBUG_ERROR("vector iterator not dereferencable");
; 71   : 			_SCL_SECURE_OUT_OF_RANGE;
; 72   : 			}
; 73   : 
; 74   :  #elif _ITERATOR_DEBUG_LEVEL == 1
; 75   : 		_SCL_SECURE_VALIDATE(this->_Getcont() != 0);
; 76   : 		_SCL_SECURE_VALIDATE_RANGE(
; 77   : 			this->_Ptr != 0
; 78   : 			&& ((_Myvec *)this->_Getcont())->_Myfirst <= this->_Ptr
; 79   : 			&& this->_Ptr < ((_Myvec *)this->_Getcont())->_Mylast);
; 80   :  #endif /* _ITERATOR_DEBUG_LEVEL */
; 81   : 
; 82   : 		__analysis_assume(this->_Ptr != 0);
; 83   : 
; 84   : 		return (*this->_Ptr);

  00000	8b 01		 mov	 eax, DWORD PTR [ecx]

; 85   : 		}

  00002	c3		 ret	 0
??D?$_Vector_const_iterator@V?$_Vector_val@V?$basic_string@DU?$char_traits@D@std@@V?$allocator@D@2@@std@@V?$allocator@V?$basic_string@DU?$char_traits@D@std@@V?$allocator@D@2@@std@@@2@@std@@@std@@QBEABV?$basic_string@DU?$char_traits@D@std@@V?$allocator@D@2@@1@XZ ENDP ; std::_Vector_const_iterator<std::_Vector_val<std::basic_string<char,std::char_traits<char>,std::allocator<char> >,std::allocator<std::basic_string<char,std::char_traits<char>,std::allocator<char> > > > >::operator*
_TEXT	ENDS
PUBLIC	??E?$_Vector_const_iterator@V?$_Vector_val@V?$basic_string@DU?$char_traits@D@std@@V?$allocator@D@2@@std@@V?$allocator@V?$basic_string@DU?$char_traits@D@std@@V?$allocator@D@2@@std@@@2@@std@@@std@@QAEAAV01@XZ ; std::_Vector_const_iterator<std::_Vector_val<std::basic_string<char,std::char_traits<char>,std::allocator<char> >,std::allocator<std::basic_string<char,std::char_traits<char>,std::allocator<char> > > > >::operator++
; Function compile flags: /Ogsp
;	COMDAT ??E?$_Vector_const_iterator@V?$_Vector_val@V?$basic_string@DU?$char_traits@D@std@@V?$allocator@D@2@@std@@V?$allocator@V?$basic_string@DU?$char_traits@D@std@@V?$allocator@D@2@@std@@@2@@std@@@std@@QAEAAV01@XZ
_TEXT	SEGMENT
??E?$_Vector_const_iterator@V?$_Vector_val@V?$basic_string@DU?$char_traits@D@std@@V?$allocator@D@2@@std@@V?$allocator@V?$basic_string@DU?$char_traits@D@std@@V?$allocator@D@2@@std@@@2@@std@@@std@@QAEAAV01@XZ PROC ; std::_Vector_const_iterator<std::_Vector_val<std::basic_string<char,std::char_traits<char>,std::allocator<char> >,std::allocator<std::basic_string<char,std::char_traits<char>,std::allocator<char> > > > >::operator++, COMDAT
; _this$ = ecx

; 93   : 		{	// preincrement

  00000	8b c1		 mov	 eax, ecx

; 94   :  #if _ITERATOR_DEBUG_LEVEL == 2
; 95   : 		if (this->_Getcont() == 0
; 96   : 			|| this->_Ptr == 0
; 97   : 			|| ((_Myvec *)this->_Getcont())->_Mylast <= this->_Ptr)
; 98   : 			{	// report error
; 99   : 			_DEBUG_ERROR("vector iterator not incrementable");
; 100  : 			_SCL_SECURE_OUT_OF_RANGE;
; 101  : 			}
; 102  : 
; 103  :  #elif _ITERATOR_DEBUG_LEVEL == 1
; 104  : 		_SCL_SECURE_VALIDATE(this->_Getcont() != 0);
; 105  : 		_SCL_SECURE_VALIDATE_RANGE(
; 106  : 			this->_Ptr != 0
; 107  : 			&& this->_Ptr < ((_Myvec *)this->_Getcont())->_Mylast);
; 108  :  #endif /* _ITERATOR_DEBUG_LEVEL */
; 109  : 
; 110  : 		++this->_Ptr;

  00002	83 00 1c	 add	 DWORD PTR [eax], 28	; 0000001cH

; 111  : 		return (*this);
; 112  : 		}

  00005	c3		 ret	 0
??E?$_Vector_const_iterator@V?$_Vector_val@V?$basic_string@DU?$char_traits@D@std@@V?$allocator@D@2@@std@@V?$allocator@V?$basic_string@DU?$char_traits@D@std@@V?$allocator@D@2@@std@@@2@@std@@@std@@QAEAAV01@XZ ENDP ; std::_Vector_const_iterator<std::_Vector_val<std::basic_string<char,std::char_traits<char>,std::allocator<char> >,std::allocator<std::basic_string<char,std::char_traits<char>,std::allocator<char> > > > >::operator++
_TEXT	ENDS
PUBLIC	?_Compat@?$_Vector_const_iterator@V?$_Vector_val@V?$basic_string@DU?$char_traits@D@std@@V?$allocator@D@2@@std@@V?$allocator@V?$basic_string@DU?$char_traits@D@std@@V?$allocator@D@2@@std@@@2@@std@@@std@@QBEXABV12@@Z ; std::_Vector_const_iterator<std::_Vector_val<std::basic_string<char,std::char_traits<char>,std::allocator<char> >,std::allocator<std::basic_string<char,std::char_traits<char>,std::allocator<char> > > > >::_Compat
; Function compile flags: /Ogsp
;	COMDAT ?_Compat@?$_Vector_const_iterator@V?$_Vector_val@V?$basic_string@DU?$char_traits@D@std@@V?$allocator@D@2@@std@@V?$allocator@V?$basic_string@DU?$char_traits@D@std@@V?$allocator@D@2@@std@@@2@@std@@@std@@QBEXABV12@@Z
_TEXT	SEGMENT
___formal$ = 8						; size = 4
?_Compat@?$_Vector_const_iterator@V?$_Vector_val@V?$basic_string@DU?$char_traits@D@std@@V?$allocator@D@2@@std@@V?$allocator@V?$basic_string@DU?$char_traits@D@std@@V?$allocator@D@2@@std@@@2@@std@@@std@@QBEXABV12@@Z PROC ; std::_Vector_const_iterator<std::_Vector_val<std::basic_string<char,std::char_traits<char>,std::allocator<char> >,std::allocator<std::basic_string<char,std::char_traits<char>,std::allocator<char> > > > >::_Compat, COMDAT
; _this$ = ecx

; 253  : 		}

  00000	c2 04 00	 ret	 4
?_Compat@?$_Vector_const_iterator@V?$_Vector_val@V?$basic_string@DU?$char_traits@D@std@@V?$allocator@D@2@@std@@V?$allocator@V?$basic_string@DU?$char_traits@D@std@@V?$allocator@D@2@@std@@@2@@std@@@std@@QBEXABV12@@Z ENDP ; std::_Vector_const_iterator<std::_Vector_val<std::basic_string<char,std::char_traits<char>,std::allocator<char> >,std::allocator<std::basic_string<char,std::char_traits<char>,std::allocator<char> > > > >::_Compat
_TEXT	ENDS
PUBLIC	??$forward@ABV?$basic_string@DU?$char_traits@D@std@@V?$allocator@D@2@@std@@@std@@YAABV?$basic_string@DU?$char_traits@D@std@@V?$allocator@D@2@@0@ABV10@@Z ; std::forward<std::basic_string<char,std::char_traits<char>,std::allocator<char> > const &>
; Function compile flags: /Ogsp
; File c:\program files (x86)\microsoft visual studio 10.0\vc\include\utility
;	COMDAT ??$forward@ABV?$basic_string@DU?$char_traits@D@std@@V?$allocator@D@2@@std@@@std@@YAABV?$basic_string@DU?$char_traits@D@std@@V?$allocator@D@2@@0@ABV10@@Z
_TEXT	SEGMENT
__Arg$ = 8						; size = 4
??$forward@ABV?$basic_string@DU?$char_traits@D@std@@V?$allocator@D@2@@std@@@std@@YAABV?$basic_string@DU?$char_traits@D@std@@V?$allocator@D@2@@0@ABV10@@Z PROC ; std::forward<std::basic_string<char,std::char_traits<char>,std::allocator<char> > const &>, COMDAT

; 78   : 	{	// forward _Arg, given explicitly specified type parameter

  00000	55		 push	 ebp
  00001	8b ec		 mov	 ebp, esp

; 79   : 	return ((_Ty&&)_Arg);

  00003	8b 45 08	 mov	 eax, DWORD PTR __Arg$[ebp]

; 80   : 	}

  00006	5d		 pop	 ebp
  00007	c3		 ret	 0
??$forward@ABV?$basic_string@DU?$char_traits@D@std@@V?$allocator@D@2@@std@@@std@@YAABV?$basic_string@DU?$char_traits@D@std@@V?$allocator@D@2@@0@ABV10@@Z ENDP ; std::forward<std::basic_string<char,std::char_traits<char>,std::allocator<char> > const &>
_TEXT	ENDS
PUBLIC	??0CAtlException@ATL@@QAE@J@Z			; ATL::CAtlException::CAtlException
; Function compile flags: /Ogsp
; File c:\program files (x86)\microsoft visual studio 10.0\vc\atlmfc\include\atlexcept.h
;	COMDAT ??0CAtlException@ATL@@QAE@J@Z
_TEXT	SEGMENT
_hr$ = 8						; size = 4
??0CAtlException@ATL@@QAE@J@Z PROC			; ATL::CAtlException::CAtlException, COMDAT
; _this$ = ecx

; 44   : 	{

  00000	55		 push	 ebp
  00001	8b ec		 mov	 ebp, esp
  00003	8b c1		 mov	 eax, ecx
  00005	8b 4d 08	 mov	 ecx, DWORD PTR _hr$[ebp]
  00008	89 08		 mov	 DWORD PTR [eax], ecx

; 45   : 	}

  0000a	5d		 pop	 ebp
  0000b	c2 04 00	 ret	 4
??0CAtlException@ATL@@QAE@J@Z ENDP			; ATL::CAtlException::CAtlException
_TEXT	ENDS
PUBLIC	__TI1?AVCAtlException@ATL@@
PUBLIC	?AtlThrowImpl@ATL@@YGXJ@Z			; ATL::AtlThrowImpl
PUBLIC	__CTA1?AVCAtlException@ATL@@
PUBLIC	__CT??_R0?AVCAtlException@ATL@@@84
PUBLIC	??_R0?AVCAtlException@ATL@@@8			; ATL::CAtlException `RTTI Type Descriptor'
;	COMDAT ??_R0?AVCAtlException@ATL@@@8
_DATA	SEGMENT
??_R0?AVCAtlException@ATL@@@8 DD FLAT:??_7type_info@@6B@ ; ATL::CAtlException `RTTI Type Descriptor'
	DD	00H
	DB	'.?AVCAtlException@ATL@@', 00H
_DATA	ENDS
;	COMDAT __CT??_R0?AVCAtlException@ATL@@@84
xdata$x	SEGMENT
__CT??_R0?AVCAtlException@ATL@@@84 DD 00H
	DD	FLAT:??_R0?AVCAtlException@ATL@@@8
	DD	00H
	DD	0ffffffffH
	ORG $+4
	DD	04H
	DD	00H
xdata$x	ENDS
;	COMDAT __CTA1?AVCAtlException@ATL@@
xdata$x	SEGMENT
__CTA1?AVCAtlException@ATL@@ DD 01H
	DD	FLAT:__CT??_R0?AVCAtlException@ATL@@@84
xdata$x	ENDS
;	COMDAT __TI1?AVCAtlException@ATL@@
xdata$x	SEGMENT
__TI1?AVCAtlException@ATL@@ DD 00H
	DD	00H
	DD	00H
	DD	FLAT:__CTA1?AVCAtlException@ATL@@
; Function compile flags: /Ogsp
xdata$x	ENDS
;	COMDAT ?AtlThrowImpl@ATL@@YGXJ@Z
_TEXT	SEGMENT
$T509521 = 8						; size = 4
_hr$ = 8						; size = 4
?AtlThrowImpl@ATL@@YGXJ@Z PROC				; ATL::AtlThrowImpl, COMDAT

; 65   : {

  00000	55		 push	 ebp
  00001	8b ec		 mov	 ebp, esp

; 66   : 	ATLTRACE(atlTraceException, 0, _T("AtlThrow: hr = 0x%x\n"), hr );
; 67   : #ifdef _AFX
; 68   : 	if( hr == E_OUTOFMEMORY )
; 69   : 	{
; 70   : 		AfxThrowMemoryException();
; 71   : 	}
; 72   : 	else
; 73   : 	{
; 74   : 		AfxThrowOleException( hr );
; 75   : 	}
; 76   : #else
; 77   : 	throw CAtlException( hr );

  00003	8b 45 08	 mov	 eax, DWORD PTR _hr$[ebp]
  00006	89 45 08	 mov	 DWORD PTR $T509521[ebp], eax
  00009	68 00 00 00 00	 push	 OFFSET __TI1?AVCAtlException@ATL@@
  0000e	8d 45 08	 lea	 eax, DWORD PTR $T509521[ebp]
  00011	50		 push	 eax
  00012	e8 00 00 00 00	 call	 __CxxThrowException@8
$LN6@AtlThrowIm:
$LN5@AtlThrowIm:
  00017	cc		 int	 3
?AtlThrowImpl@ATL@@YGXJ@Z ENDP				; ATL::AtlThrowImpl
_TEXT	ENDS
PUBLIC	?AtlComQIPtrAssign@ATL@@YGPAUIUnknown@@PAPAU2@PAU2@ABU_GUID@@@Z ; ATL::AtlComQIPtrAssign
; Function compile flags: /Ogsp
; File c:\program files (x86)\microsoft visual studio 10.0\vc\atlmfc\include\atlcomcli.h
;	COMDAT ?AtlComQIPtrAssign@ATL@@YGPAUIUnknown@@PAPAU2@PAU2@ABU_GUID@@@Z
_TEXT	SEGMENT
_pp$ = 8						; size = 4
_lp$ = 12						; size = 4
_riid$ = 16						; size = 4
?AtlComQIPtrAssign@ATL@@YGPAUIUnknown@@PAPAU2@PAU2@ABU_GUID@@@Z PROC ; ATL::AtlComQIPtrAssign, COMDAT

; 95   : {

  00000	55		 push	 ebp
  00001	8b ec		 mov	 ebp, esp
  00003	56		 push	 esi

; 96   : 	if (pp == NULL)

  00004	8b 75 08	 mov	 esi, DWORD PTR _pp$[ebp]
  00007	85 f6		 test	 esi, esi
  00009	75 04		 jne	 SHORT $LN3@AtlComQIPt

; 97   : 		return NULL;

  0000b	33 c0		 xor	 eax, eax
  0000d	eb 23		 jmp	 SHORT $LN4@AtlComQIPt
$LN3@AtlComQIPt:

; 98   : 
; 99   : 	IUnknown* pTemp = *pp;
; 100  : 	*pp = NULL;
; 101  : 	if (lp != NULL)

  0000f	8b 45 0c	 mov	 eax, DWORD PTR _lp$[ebp]
  00012	57		 push	 edi
  00013	8b 3e		 mov	 edi, DWORD PTR [esi]
  00015	83 26 00	 and	 DWORD PTR [esi], 0
  00018	85 c0		 test	 eax, eax
  0001a	74 09		 je	 SHORT $LN2@AtlComQIPt

; 102  : 		lp->QueryInterface(riid, (void**)pp);

  0001c	8b 08		 mov	 ecx, DWORD PTR [eax]
  0001e	56		 push	 esi
  0001f	ff 75 10	 push	 DWORD PTR _riid$[ebp]
  00022	50		 push	 eax
  00023	ff 11		 call	 DWORD PTR [ecx]
$LN2@AtlComQIPt:

; 103  : 	if (pTemp)

  00025	85 ff		 test	 edi, edi
  00027	74 06		 je	 SHORT $LN1@AtlComQIPt

; 104  : 		pTemp->Release();

  00029	8b 07		 mov	 eax, DWORD PTR [edi]
  0002b	57		 push	 edi
  0002c	ff 50 08	 call	 DWORD PTR [eax+8]
$LN1@AtlComQIPt:

; 105  : 	return *pp;

  0002f	8b 06		 mov	 eax, DWORD PTR [esi]
  00031	5f		 pop	 edi
$LN4@AtlComQIPt:
  00032	5e		 pop	 esi

; 106  : }

  00033	5d		 pop	 ebp
  00034	c2 0c 00	 ret	 12			; 0000000cH
?AtlComQIPtrAssign@ATL@@YGPAUIUnknown@@PAPAU2@PAU2@ABU_GUID@@@Z ENDP ; ATL::AtlComQIPtrAssign
_TEXT	ENDS
PUBLIC	??0CComVariant@ATL@@QAE@HG@Z			; ATL::CComVariant::CComVariant
; Function compile flags: /Ogsp
;	COMDAT ??0CComVariant@ATL@@QAE@HG@Z
_TEXT	SEGMENT
_nSrc$ = 8						; size = 4
_vtSrc$ = 12						; size = 2
??0CComVariant@ATL@@QAE@HG@Z PROC			; ATL::CComVariant::CComVariant, COMDAT
; _this$ = ecx

; 2129 : 	CComVariant(_In_ int nSrc, _In_ VARTYPE vtSrc = VT_I4) ATLVARIANT_THROW()

  00000	55		 push	 ebp
  00001	8b ec		 mov	 ebp, esp
  00003	8b c1		 mov	 eax, ecx

; 2130 : 	{
; 2131 : 		ATLASSERT(vtSrc == VT_I4 || vtSrc == VT_INT);
; 2132 : 		if (vtSrc == VT_I4 || vtSrc == VT_INT)

  00005	66 8b 4d 0c	 mov	 cx, WORD PTR _vtSrc$[ebp]
  00009	66 83 f9 03	 cmp	 cx, 3
  0000d	74 1a		 je	 SHORT $LN2@CComVarian
  0000f	66 83 f9 16	 cmp	 cx, 22			; 00000016H
  00013	74 14		 je	 SHORT $LN2@CComVarian

; 2136 : 		}
; 2137 : 		else
; 2138 : 		{
; 2139 : 			vt = VT_ERROR;

  00015	6a 0a		 push	 10			; 0000000aH
  00017	59		 pop	 ecx
  00018	66 89 08	 mov	 WORD PTR [eax], cx

; 2140 : 			scode = E_INVALIDARG;

  0001b	b9 57 00 07 80	 mov	 ecx, -2147024809	; 80070057H

; 2141 : #ifndef _ATL_NO_VARIANT_THROW
; 2142 : 			AtlThrow(E_INVALIDARG);

  00020	51		 push	 ecx
  00021	89 48 08	 mov	 DWORD PTR [eax+8], ecx
  00024	e8 00 00 00 00	 call	 ?AtlThrowImpl@ATL@@YGXJ@Z ; ATL::AtlThrowImpl
$LN7@CComVarian:
$LN2@CComVarian:

; 2133 : 		{
; 2134 : 			vt = vtSrc;

  00029	66 89 08	 mov	 WORD PTR [eax], cx

; 2135 : 			intVal = nSrc;

  0002c	8b 4d 08	 mov	 ecx, DWORD PTR _nSrc$[ebp]
  0002f	89 48 08	 mov	 DWORD PTR [eax+8], ecx

; 2143 : #endif			
; 2144 : 		}
; 2145 : 	}

  00032	5d		 pop	 ebp
  00033	c2 08 00	 ret	 8
$LN6@CComVarian:
??0CComVariant@ATL@@QAE@HG@Z ENDP			; ATL::CComVariant::CComVariant
_TEXT	ENDS
PUBLIC	?Clear@CComVariant@ATL@@QAEJXZ			; ATL::CComVariant::Clear
EXTRN	__imp__VariantClear@4:PROC
; Function compile flags: /Ogsp
;	COMDAT ?Clear@CComVariant@ATL@@QAEJXZ
_TEXT	SEGMENT
?Clear@CComVariant@ATL@@QAEJXZ PROC			; ATL::CComVariant::Clear, COMDAT
; _this$ = ecx

; 2781 : 		return ::VariantClear(this); 

  00000	51		 push	 ecx
  00001	ff 15 00 00 00
	00		 call	 DWORD PTR __imp__VariantClear@4

; 2782 : 	}	

  00007	c3		 ret	 0
?Clear@CComVariant@ATL@@QAEJXZ ENDP			; ATL::CComVariant::Clear
_TEXT	ENDS
PUBLIC	_AtlAxGetControl@8
EXTRN	__imp__SendMessageA@16:PROC
; Function compile flags: /Ogsp
; File c:\program files (x86)\microsoft visual studio 10.0\vc\atlmfc\include\atlhost.h
;	COMDAT _AtlAxGetControl@8
_TEXT	SEGMENT
_h$ = 8							; size = 4
_pp$ = 12						; size = 4
_AtlAxGetControl@8 PROC					; COMDAT

; 2986 : {

  00000	55		 push	 ebp
  00001	8b ec		 mov	 ebp, esp
  00003	56		 push	 esi

; 2987 : 	ATLASSERT(WM_ATLGETCONTROL != 0);
; 2988 : 	if (pp == NULL)

  00004	8b 75 0c	 mov	 esi, DWORD PTR _pp$[ebp]
  00007	85 f6		 test	 esi, esi
  00009	75 07		 jne	 SHORT $LN1@AtlAxGetCo

; 2989 : 		return E_POINTER;

  0000b	b8 03 40 00 80	 mov	 eax, -2147467261	; 80004003H
  00010	eb 23		 jmp	 SHORT $LN2@AtlAxGetCo
$LN1@AtlAxGetCo:

; 2990 : 	*pp = (IUnknown*)SendMessage(h, WM_ATLGETCONTROL, 0, 0);

  00012	6a 00		 push	 0
  00014	6a 00		 push	 0
  00016	ff 35 00 00 00
	00		 push	 DWORD PTR ?WM_ATLGETCONTROL@ATL@@3IA ; ATL::WM_ATLGETCONTROL
  0001c	ff 75 08	 push	 DWORD PTR _h$[ebp]
  0001f	ff 15 00 00 00
	00		 call	 DWORD PTR __imp__SendMessageA@16
  00025	89 06		 mov	 DWORD PTR [esi], eax

; 2991 : 	return (*pp) ? S_OK : E_FAIL;

  00027	f7 d8		 neg	 eax
  00029	1b c0		 sbb	 eax, eax
  0002b	25 fb bf ff 7f	 and	 eax, 2147467259		; 7fffbffbH
  00030	05 05 40 00 80	 add	 eax, -2147467259	; 80004005H
$LN2@AtlAxGetCo:
  00035	5e		 pop	 esi

; 2992 : }

  00036	5d		 pop	 ebp
  00037	c2 08 00	 ret	 8
_AtlAxGetControl@8 ENDP
_TEXT	ENDS
PUBLIC	_AtlAxGetHost@8
; Function compile flags: /Ogsp
;	COMDAT _AtlAxGetHost@8
_TEXT	SEGMENT
_h$ = 8							; size = 4
_pp$ = 12						; size = 4
_AtlAxGetHost@8 PROC					; COMDAT

; 2999 : {

  00000	55		 push	 ebp
  00001	8b ec		 mov	 ebp, esp
  00003	56		 push	 esi

; 3000 : 	ATLASSERT(WM_ATLGETHOST != 0);
; 3001 : 	if (pp == NULL)

  00004	8b 75 0c	 mov	 esi, DWORD PTR _pp$[ebp]
  00007	85 f6		 test	 esi, esi
  00009	75 07		 jne	 SHORT $LN1@AtlAxGetHo

; 3002 : 		return E_POINTER;

  0000b	b8 03 40 00 80	 mov	 eax, -2147467261	; 80004003H
  00010	eb 23		 jmp	 SHORT $LN2@AtlAxGetHo
$LN1@AtlAxGetHo:

; 3003 : 	*pp = (IUnknown*)SendMessage(h, WM_ATLGETHOST, 0, 0);

  00012	6a 00		 push	 0
  00014	6a 00		 push	 0
  00016	ff 35 00 00 00
	00		 push	 DWORD PTR ?WM_ATLGETHOST@ATL@@3IA ; ATL::WM_ATLGETHOST
  0001c	ff 75 08	 push	 DWORD PTR _h$[ebp]
  0001f	ff 15 00 00 00
	00		 call	 DWORD PTR __imp__SendMessageA@16
  00025	89 06		 mov	 DWORD PTR [esi], eax

; 3004 : 	return (*pp) ? S_OK : E_FAIL;

  00027	f7 d8		 neg	 eax
  00029	1b c0		 sbb	 eax, eax
  0002b	25 fb bf ff 7f	 and	 eax, 2147467259		; 7fffbffbH
  00030	05 05 40 00 80	 add	 eax, -2147467259	; 80004005H
$LN2@AtlAxGetHo:
  00035	5e		 pop	 esi

; 3005 : }

  00036	5d		 pop	 ebp
  00037	c2 08 00	 ret	 8
_AtlAxGetHost@8 ENDP
_TEXT	ENDS
PUBLIC	?IsPlaying@ioApplication@@QBE_NXZ		; ioApplication::IsPlaying
; Function compile flags: /Ogsp
; File d:\lost saga for developer\youtube\tutorial\source\src\lsclient\ioapplication.h
;	COMDAT ?IsPlaying@ioApplication@@QBE_NXZ
_TEXT	SEGMENT
?IsPlaying@ioApplication@@QBE_NXZ PROC			; ioApplication::IsPlaying, COMDAT
; _this$ = ecx

; 798  : 	inline bool IsPlaying() const { return (m_CurStage == ioGameStage::GS_PLAY); }

  00000	33 c0		 xor	 eax, eax
  00002	83 b9 2c 01 00
	00 04		 cmp	 DWORD PTR [ecx+300], 4
  00009	0f 94 c0	 sete	 al
  0000c	c3		 ret	 0
?IsPlaying@ioApplication@@QBE_NXZ ENDP			; ioApplication::IsPlaying
_TEXT	ENDS
PUBLIC	?size@?$basic_string@DU?$char_traits@D@std@@V?$allocator@D@2@@std@@QBEIXZ ; std::basic_string<char,std::char_traits<char>,std::allocator<char> >::size
; Function compile flags: /Ogsp
; File c:\program files (x86)\microsoft visual studio 10.0\vc\include\xstring
;	COMDAT ?size@?$basic_string@DU?$char_traits@D@std@@V?$allocator@D@2@@std@@QBEIXZ
_TEXT	SEGMENT
?size@?$basic_string@DU?$char_traits@D@std@@V?$allocator@D@2@@std@@QBEIXZ PROC ; std::basic_string<char,std::char_traits<char>,std::allocator<char> >::size, COMDAT
; _this$ = ecx

; 1512 : 		return (this->_Mysize);

  00000	8b 41 10	 mov	 eax, DWORD PTR [ecx+16]

; 1513 : 		}

  00003	c3		 ret	 0
?size@?$basic_string@DU?$char_traits@D@std@@V?$allocator@D@2@@std@@QBEIXZ ENDP ; std::basic_string<char,std::char_traits<char>,std::allocator<char> >::size
_TEXT	ENDS
PUBLIC	??0?$CComPtrBase@UIDispatch@@@ATL@@IAE@PAUIDispatch@@@Z ; ATL::CComPtrBase<IDispatch>::CComPtrBase<IDispatch>
; Function compile flags: /Ogsp
; File c:\program files (x86)\microsoft visual studio 10.0\vc\atlmfc\include\atlcomcli.h
;	COMDAT ??0?$CComPtrBase@UIDispatch@@@ATL@@IAE@PAUIDispatch@@@Z
_TEXT	SEGMENT
_lp$ = 8						; size = 4
??0?$CComPtrBase@UIDispatch@@@ATL@@IAE@PAUIDispatch@@@Z PROC ; ATL::CComPtrBase<IDispatch>::CComPtrBase<IDispatch>, COMDAT
; _this$ = ecx

; 151  : 	CComPtrBase(_Inout_opt_ T* lp) throw()

  00000	55		 push	 ebp
  00001	8b ec		 mov	 ebp, esp

; 152  : 	{
; 153  : 		p = lp;

  00003	8b 45 08	 mov	 eax, DWORD PTR _lp$[ebp]
  00006	56		 push	 esi
  00007	8b f1		 mov	 esi, ecx
  00009	89 06		 mov	 DWORD PTR [esi], eax

; 154  : 		if (p != NULL)

  0000b	85 c0		 test	 eax, eax
  0000d	74 06		 je	 SHORT $LN1@CComPtrBas@10

; 155  : 			p->AddRef();

  0000f	8b 08		 mov	 ecx, DWORD PTR [eax]
  00011	50		 push	 eax
  00012	ff 51 04	 call	 DWORD PTR [ecx+4]
$LN1@CComPtrBas@10:

; 156  : 	}

  00015	8b c6		 mov	 eax, esi
  00017	5e		 pop	 esi
  00018	5d		 pop	 ebp
  00019	c2 04 00	 ret	 4
??0?$CComPtrBase@UIDispatch@@@ATL@@IAE@PAUIDispatch@@@Z ENDP ; ATL::CComPtrBase<IDispatch>::CComPtrBase<IDispatch>
_TEXT	ENDS
PUBLIC	??1?$CComPtrBase@UIDispatch@@@ATL@@QAE@XZ	; ATL::CComPtrBase<IDispatch>::~CComPtrBase<IDispatch>
; Function compile flags: /Ogsp
;	COMDAT ??1?$CComPtrBase@UIDispatch@@@ATL@@QAE@XZ
_TEXT	SEGMENT
??1?$CComPtrBase@UIDispatch@@@ATL@@QAE@XZ PROC		; ATL::CComPtrBase<IDispatch>::~CComPtrBase<IDispatch>, COMDAT
; _this$ = ecx

; 161  : 		if (p)

  00000	8b 01		 mov	 eax, DWORD PTR [ecx]
  00002	85 c0		 test	 eax, eax
  00004	74 06		 je	 SHORT $LN1@CComPtrBas@11

; 162  : 			p->Release();

  00006	8b 08		 mov	 ecx, DWORD PTR [eax]
  00008	50		 push	 eax
  00009	ff 51 08	 call	 DWORD PTR [ecx+8]
$LN1@CComPtrBas@11:

; 163  : 	}

  0000c	c3		 ret	 0
??1?$CComPtrBase@UIDispatch@@@ATL@@QAE@XZ ENDP		; ATL::CComPtrBase<IDispatch>::~CComPtrBase<IDispatch>
_TEXT	ENDS
PUBLIC	??B?$CComPtrBase@UIDispatch@@@ATL@@QBEPAUIDispatch@@XZ ; ATL::CComPtrBase<IDispatch>::operator IDispatch *
; Function compile flags: /Ogsp
;	COMDAT ??B?$CComPtrBase@UIDispatch@@@ATL@@QBEPAUIDispatch@@XZ
_TEXT	SEGMENT
??B?$CComPtrBase@UIDispatch@@@ATL@@QBEPAUIDispatch@@XZ PROC ; ATL::CComPtrBase<IDispatch>::operator IDispatch *, COMDAT
; _this$ = ecx

; 166  : 		return p;

  00000	8b 01		 mov	 eax, DWORD PTR [ecx]

; 167  : 	}

  00002	c3		 ret	 0
??B?$CComPtrBase@UIDispatch@@@ATL@@QBEPAUIDispatch@@XZ ENDP ; ATL::CComPtrBase<IDispatch>::operator IDispatch *
_TEXT	ENDS
PUBLIC	??I?$CComPtrBase@UIDispatch@@@ATL@@QAEPAPAUIDispatch@@XZ ; ATL::CComPtrBase<IDispatch>::operator&
; Function compile flags: /Ogsp
;	COMDAT ??I?$CComPtrBase@UIDispatch@@@ATL@@QAEPAPAUIDispatch@@XZ
_TEXT	SEGMENT
??I?$CComPtrBase@UIDispatch@@@ATL@@QAEPAPAUIDispatch@@XZ PROC ; ATL::CComPtrBase<IDispatch>::operator&, COMDAT
; _this$ = ecx

; 176  : 	{

  00000	8b c1		 mov	 eax, ecx

; 177  : 		ATLASSERT(p==NULL);
; 178  : 		return &p;
; 179  : 	}

  00002	c3		 ret	 0
??I?$CComPtrBase@UIDispatch@@@ATL@@QAEPAPAUIDispatch@@XZ ENDP ; ATL::CComPtrBase<IDispatch>::operator&
_TEXT	ENDS
PUBLIC	??C?$CComPtrBase@UIDispatch@@@ATL@@QBEPAV?$_NoAddRefReleaseOnCComPtr@UIDispatch@@@1@XZ ; ATL::CComPtrBase<IDispatch>::operator->
; Function compile flags: /Ogsp
;	COMDAT ??C?$CComPtrBase@UIDispatch@@@ATL@@QBEPAV?$_NoAddRefReleaseOnCComPtr@UIDispatch@@@1@XZ
_TEXT	SEGMENT
??C?$CComPtrBase@UIDispatch@@@ATL@@QBEPAV?$_NoAddRefReleaseOnCComPtr@UIDispatch@@@1@XZ PROC ; ATL::CComPtrBase<IDispatch>::operator->, COMDAT
; _this$ = ecx

; 182  : 		ATLASSERT(p!=NULL);
; 183  : 		return (_NoAddRefReleaseOnCComPtr<T>*)p;

  00000	8b 01		 mov	 eax, DWORD PTR [ecx]

; 184  : 	}

  00002	c3		 ret	 0
??C?$CComPtrBase@UIDispatch@@@ATL@@QBEPAV?$_NoAddRefReleaseOnCComPtr@UIDispatch@@@1@XZ ENDP ; ATL::CComPtrBase<IDispatch>::operator->
_TEXT	ENDS
PUBLIC	??1?$CComPtrBase@UIUnknown@@@ATL@@QAE@XZ	; ATL::CComPtrBase<IUnknown>::~CComPtrBase<IUnknown>
; Function compile flags: /Ogsp
;	COMDAT ??1?$CComPtrBase@UIUnknown@@@ATL@@QAE@XZ
_TEXT	SEGMENT
??1?$CComPtrBase@UIUnknown@@@ATL@@QAE@XZ PROC		; ATL::CComPtrBase<IUnknown>::~CComPtrBase<IUnknown>, COMDAT
; _this$ = ecx

; 161  : 		if (p)

  00000	8b 01		 mov	 eax, DWORD PTR [ecx]
  00002	85 c0		 test	 eax, eax
  00004	74 06		 je	 SHORT $LN1@CComPtrBas@12

; 162  : 			p->Release();

  00006	8b 08		 mov	 ecx, DWORD PTR [eax]
  00008	50		 push	 eax
  00009	ff 51 08	 call	 DWORD PTR [ecx+8]
$LN1@CComPtrBas@12:

; 163  : 	}

  0000c	c3		 ret	 0
??1?$CComPtrBase@UIUnknown@@@ATL@@QAE@XZ ENDP		; ATL::CComPtrBase<IUnknown>::~CComPtrBase<IUnknown>
_TEXT	ENDS
PUBLIC	??B?$CComPtrBase@UIUnknown@@@ATL@@QBEPAUIUnknown@@XZ ; ATL::CComPtrBase<IUnknown>::operator IUnknown *
; Function compile flags: /Ogsp
;	COMDAT ??B?$CComPtrBase@UIUnknown@@@ATL@@QBEPAUIUnknown@@XZ
_TEXT	SEGMENT
??B?$CComPtrBase@UIUnknown@@@ATL@@QBEPAUIUnknown@@XZ PROC ; ATL::CComPtrBase<IUnknown>::operator IUnknown *, COMDAT
; _this$ = ecx

; 166  : 		return p;

  00000	8b 01		 mov	 eax, DWORD PTR [ecx]

; 167  : 	}

  00002	c3		 ret	 0
??B?$CComPtrBase@UIUnknown@@@ATL@@QBEPAUIUnknown@@XZ ENDP ; ATL::CComPtrBase<IUnknown>::operator IUnknown *
_TEXT	ENDS
PUBLIC	??I?$CComPtrBase@UIUnknown@@@ATL@@QAEPAPAUIUnknown@@XZ ; ATL::CComPtrBase<IUnknown>::operator&
; Function compile flags: /Ogsp
;	COMDAT ??I?$CComPtrBase@UIUnknown@@@ATL@@QAEPAPAUIUnknown@@XZ
_TEXT	SEGMENT
??I?$CComPtrBase@UIUnknown@@@ATL@@QAEPAPAUIUnknown@@XZ PROC ; ATL::CComPtrBase<IUnknown>::operator&, COMDAT
; _this$ = ecx

; 176  : 	{

  00000	8b c1		 mov	 eax, ecx

; 177  : 		ATLASSERT(p==NULL);
; 178  : 		return &p;
; 179  : 	}

  00002	c3		 ret	 0
??I?$CComPtrBase@UIUnknown@@@ATL@@QAEPAPAUIUnknown@@XZ ENDP ; ATL::CComPtrBase<IUnknown>::operator&
_TEXT	ENDS
PUBLIC	??8?$CComPtrBase@UIUnknown@@@ATL@@QBE_NPAUIUnknown@@@Z ; ATL::CComPtrBase<IUnknown>::operator==
; Function compile flags: /Ogsp
;	COMDAT ??8?$CComPtrBase@UIUnknown@@@ATL@@QBE_NPAUIUnknown@@@Z
_TEXT	SEGMENT
_pT$ = 8						; size = 4
??8?$CComPtrBase@UIUnknown@@@ATL@@QBE_NPAUIUnknown@@@Z PROC ; ATL::CComPtrBase<IUnknown>::operator==, COMDAT
; _this$ = ecx

; 198  : 	{

  00000	55		 push	 ebp
  00001	8b ec		 mov	 ebp, esp

; 199  : 		return p == pT;

  00003	8b 09		 mov	 ecx, DWORD PTR [ecx]
  00005	33 c0		 xor	 eax, eax
  00007	3b 4d 08	 cmp	 ecx, DWORD PTR _pT$[ebp]
  0000a	0f 94 c0	 sete	 al

; 200  : 	}

  0000d	5d		 pop	 ebp
  0000e	c2 04 00	 ret	 4
??8?$CComPtrBase@UIUnknown@@@ATL@@QBE_NPAUIUnknown@@@Z ENDP ; ATL::CComPtrBase<IUnknown>::operator==
_TEXT	ENDS
PUBLIC	??1?$CComPtrBase@UIWebBrowser2@@@ATL@@QAE@XZ	; ATL::CComPtrBase<IWebBrowser2>::~CComPtrBase<IWebBrowser2>
; Function compile flags: /Ogsp
;	COMDAT ??1?$CComPtrBase@UIWebBrowser2@@@ATL@@QAE@XZ
_TEXT	SEGMENT
??1?$CComPtrBase@UIWebBrowser2@@@ATL@@QAE@XZ PROC	; ATL::CComPtrBase<IWebBrowser2>::~CComPtrBase<IWebBrowser2>, COMDAT
; _this$ = ecx

; 161  : 		if (p)

  00000	8b 01		 mov	 eax, DWORD PTR [ecx]
  00002	85 c0		 test	 eax, eax
  00004	74 06		 je	 SHORT $LN1@CComPtrBas@13

; 162  : 			p->Release();

  00006	8b 08		 mov	 ecx, DWORD PTR [eax]
  00008	50		 push	 eax
  00009	ff 51 08	 call	 DWORD PTR [ecx+8]
$LN1@CComPtrBas@13:

; 163  : 	}

  0000c	c3		 ret	 0
??1?$CComPtrBase@UIWebBrowser2@@@ATL@@QAE@XZ ENDP	; ATL::CComPtrBase<IWebBrowser2>::~CComPtrBase<IWebBrowser2>
_TEXT	ENDS
PUBLIC	??B?$CComPtrBase@UIWebBrowser2@@@ATL@@QBEPAUIWebBrowser2@@XZ ; ATL::CComPtrBase<IWebBrowser2>::operator IWebBrowser2 *
; Function compile flags: /Ogsp
;	COMDAT ??B?$CComPtrBase@UIWebBrowser2@@@ATL@@QBEPAUIWebBrowser2@@XZ
_TEXT	SEGMENT
??B?$CComPtrBase@UIWebBrowser2@@@ATL@@QBEPAUIWebBrowser2@@XZ PROC ; ATL::CComPtrBase<IWebBrowser2>::operator IWebBrowser2 *, COMDAT
; _this$ = ecx

; 166  : 		return p;

  00000	8b 01		 mov	 eax, DWORD PTR [ecx]

; 167  : 	}

  00002	c3		 ret	 0
??B?$CComPtrBase@UIWebBrowser2@@@ATL@@QBEPAUIWebBrowser2@@XZ ENDP ; ATL::CComPtrBase<IWebBrowser2>::operator IWebBrowser2 *
_TEXT	ENDS
PUBLIC	??I?$CComPtrBase@UIWebBrowser2@@@ATL@@QAEPAPAUIWebBrowser2@@XZ ; ATL::CComPtrBase<IWebBrowser2>::operator&
; Function compile flags: /Ogsp
;	COMDAT ??I?$CComPtrBase@UIWebBrowser2@@@ATL@@QAEPAPAUIWebBrowser2@@XZ
_TEXT	SEGMENT
??I?$CComPtrBase@UIWebBrowser2@@@ATL@@QAEPAPAUIWebBrowser2@@XZ PROC ; ATL::CComPtrBase<IWebBrowser2>::operator&, COMDAT
; _this$ = ecx

; 176  : 	{

  00000	8b c1		 mov	 eax, ecx

; 177  : 		ATLASSERT(p==NULL);
; 178  : 		return &p;
; 179  : 	}

  00002	c3		 ret	 0
??I?$CComPtrBase@UIWebBrowser2@@@ATL@@QAEPAPAUIWebBrowser2@@XZ ENDP ; ATL::CComPtrBase<IWebBrowser2>::operator&
_TEXT	ENDS
PUBLIC	??C?$CComPtrBase@UIWebBrowser2@@@ATL@@QBEPAV?$_NoAddRefReleaseOnCComPtr@UIWebBrowser2@@@1@XZ ; ATL::CComPtrBase<IWebBrowser2>::operator->
; Function compile flags: /Ogsp
;	COMDAT ??C?$CComPtrBase@UIWebBrowser2@@@ATL@@QBEPAV?$_NoAddRefReleaseOnCComPtr@UIWebBrowser2@@@1@XZ
_TEXT	SEGMENT
??C?$CComPtrBase@UIWebBrowser2@@@ATL@@QBEPAV?$_NoAddRefReleaseOnCComPtr@UIWebBrowser2@@@1@XZ PROC ; ATL::CComPtrBase<IWebBrowser2>::operator->, COMDAT
; _this$ = ecx

; 182  : 		ATLASSERT(p!=NULL);
; 183  : 		return (_NoAddRefReleaseOnCComPtr<T>*)p;

  00000	8b 01		 mov	 eax, DWORD PTR [ecx]

; 184  : 	}

  00002	c3		 ret	 0
??C?$CComPtrBase@UIWebBrowser2@@@ATL@@QBEPAV?$_NoAddRefReleaseOnCComPtr@UIWebBrowser2@@@1@XZ ENDP ; ATL::CComPtrBase<IWebBrowser2>::operator->
_TEXT	ENDS
PUBLIC	?_Myptr@?$basic_string@DU?$char_traits@D@std@@V?$allocator@D@2@@std@@QBEPBDXZ ; std::basic_string<char,std::char_traits<char>,std::allocator<char> >::_Myptr
; Function compile flags: /Ogsp
; File c:\program files (x86)\microsoft visual studio 10.0\vc\include\xstring
;	COMDAT ?_Myptr@?$basic_string@DU?$char_traits@D@std@@V?$allocator@D@2@@std@@QBEPBDXZ
_TEXT	SEGMENT
?_Myptr@?$basic_string@DU?$char_traits@D@std@@V?$allocator@D@2@@std@@QBEPBDXZ PROC ; std::basic_string<char,std::char_traits<char>,std::allocator<char> >::_Myptr, COMDAT
; _this$ = ecx

; 2010 : 		return (this->_BUF_SIZE <= this->_Myres ? this->_Bx._Ptr
; 2011 : 			: this->_Bx._Buf);

  00000	83 79 14 10	 cmp	 DWORD PTR [ecx+20], 16	; 00000010H
  00004	72 03		 jb	 SHORT $LN3@Myptr
  00006	8b 01		 mov	 eax, DWORD PTR [ecx]

; 2012 : 		}

  00008	c3		 ret	 0
$LN3@Myptr:

; 2010 : 		return (this->_BUF_SIZE <= this->_Myres ? this->_Bx._Ptr
; 2011 : 			: this->_Bx._Buf);

  00009	8b c1		 mov	 eax, ecx

; 2012 : 		}

  0000b	c3		 ret	 0
?_Myptr@?$basic_string@DU?$char_traits@D@std@@V?$allocator@D@2@@std@@QBEPBDXZ ENDP ; std::basic_string<char,std::char_traits<char>,std::allocator<char> >::_Myptr
_TEXT	ENDS
PUBLIC	??1?$_String_val@DV?$allocator@D@std@@@std@@QAE@XZ ; std::_String_val<char,std::allocator<char> >::~_String_val<char,std::allocator<char> >
; Function compile flags: /Ogsp
;	COMDAT ??1?$_String_val@DV?$allocator@D@std@@@std@@QAE@XZ
_TEXT	SEGMENT
??1?$_String_val@DV?$allocator@D@std@@@std@@QAE@XZ PROC	; std::_String_val<char,std::allocator<char> >::~_String_val<char,std::allocator<char> >, COMDAT
; _this$ = ecx

; 459  : 		}

  00000	c3		 ret	 0
??1?$_String_val@DV?$allocator@D@std@@@std@@QAE@XZ ENDP	; std::_String_val<char,std::allocator<char> >::~_String_val<char,std::allocator<char> >
_TEXT	ENDS
PUBLIC	??0?$allocator@D@std@@QAE@XZ			; std::allocator<char>::allocator<char>
; Function compile flags: /Ogsp
; File c:\program files (x86)\microsoft visual studio 10.0\vc\include\xmemory
;	COMDAT ??0?$allocator@D@std@@QAE@XZ
_TEXT	SEGMENT
??0?$allocator@D@std@@QAE@XZ PROC			; std::allocator<char>::allocator<char>, COMDAT
; _this$ = ecx

; 161  : 	_ALLOCATOR() _THROW0()

  00000	8b c1		 mov	 eax, ecx

; 162  : 		{	// construct default allocator (do nothing)
; 163  : 		}

  00002	c3		 ret	 0
??0?$allocator@D@std@@QAE@XZ ENDP			; std::allocator<char>::allocator<char>
_TEXT	ENDS
PUBLIC	??0?$allocator@D@std@@QAE@ABV01@@Z		; std::allocator<char>::allocator<char>
; Function compile flags: /Ogsp
;	COMDAT ??0?$allocator@D@std@@QAE@ABV01@@Z
_TEXT	SEGMENT
___formal$ = 8						; size = 4
??0?$allocator@D@std@@QAE@ABV01@@Z PROC			; std::allocator<char>::allocator<char>, COMDAT
; _this$ = ecx

; 165  : 	_ALLOCATOR(const _ALLOCATOR<_Ty>&) _THROW0()

  00000	8b c1		 mov	 eax, ecx

; 166  : 		{	// construct by copying (do nothing)
; 167  : 		}

  00002	c2 04 00	 ret	 4
??0?$allocator@D@std@@QAE@ABV01@@Z ENDP			; std::allocator<char>::allocator<char>
_TEXT	ENDS
PUBLIC	??0?$CComPtrBase@UIUnknown@@@ATL@@IAE@XZ	; ATL::CComPtrBase<IUnknown>::CComPtrBase<IUnknown>
; Function compile flags: /Ogsp
; File c:\program files (x86)\microsoft visual studio 10.0\vc\atlmfc\include\atlcomcli.h
;	COMDAT ??0?$CComPtrBase@UIUnknown@@@ATL@@IAE@XZ
_TEXT	SEGMENT
??0?$CComPtrBase@UIUnknown@@@ATL@@IAE@XZ PROC		; ATL::CComPtrBase<IUnknown>::CComPtrBase<IUnknown>, COMDAT
; _this$ = ecx

; 147  : 	CComPtrBase() throw()

  00000	8b c1		 mov	 eax, ecx

; 148  : 	{
; 149  : 		p = NULL;

  00002	83 20 00	 and	 DWORD PTR [eax], 0

; 150  : 	}

  00005	c3		 ret	 0
??0?$CComPtrBase@UIUnknown@@@ATL@@IAE@XZ ENDP		; ATL::CComPtrBase<IUnknown>::CComPtrBase<IUnknown>
_TEXT	ENDS
PUBLIC	??0?$CComPtrBase@UIWebBrowser2@@@ATL@@IAE@XZ	; ATL::CComPtrBase<IWebBrowser2>::CComPtrBase<IWebBrowser2>
; Function compile flags: /Ogsp
;	COMDAT ??0?$CComPtrBase@UIWebBrowser2@@@ATL@@IAE@XZ
_TEXT	SEGMENT
??0?$CComPtrBase@UIWebBrowser2@@@ATL@@IAE@XZ PROC	; ATL::CComPtrBase<IWebBrowser2>::CComPtrBase<IWebBrowser2>, COMDAT
; _this$ = ecx

; 147  : 	CComPtrBase() throw()

  00000	8b c1		 mov	 eax, ecx

; 148  : 	{
; 149  : 		p = NULL;

  00002	83 20 00	 and	 DWORD PTR [eax], 0

; 150  : 	}

  00005	c3		 ret	 0
??0?$CComPtrBase@UIWebBrowser2@@@ATL@@IAE@XZ ENDP	; ATL::CComPtrBase<IWebBrowser2>::CComPtrBase<IWebBrowser2>
_TEXT	ENDS
PUBLIC	?_Myptr@?$basic_string@DU?$char_traits@D@std@@V?$allocator@D@2@@std@@QAEPADXZ ; std::basic_string<char,std::char_traits<char>,std::allocator<char> >::_Myptr
; Function compile flags: /Ogsp
; File c:\program files (x86)\microsoft visual studio 10.0\vc\include\xstring
;	COMDAT ?_Myptr@?$basic_string@DU?$char_traits@D@std@@V?$allocator@D@2@@std@@QAEPADXZ
_TEXT	SEGMENT
?_Myptr@?$basic_string@DU?$char_traits@D@std@@V?$allocator@D@2@@std@@QAEPADXZ PROC ; std::basic_string<char,std::char_traits<char>,std::allocator<char> >::_Myptr, COMDAT
; _this$ = ecx

; 2004 : 		return (this->_BUF_SIZE <= this->_Myres ? this->_Bx._Ptr
; 2005 : 			: this->_Bx._Buf);

  00000	83 79 14 10	 cmp	 DWORD PTR [ecx+20], 16	; 00000010H
  00004	72 03		 jb	 SHORT $LN3@Myptr@2
  00006	8b 01		 mov	 eax, DWORD PTR [ecx]

; 2006 : 		}

  00008	c3		 ret	 0
$LN3@Myptr@2:

; 2004 : 		return (this->_BUF_SIZE <= this->_Myres ? this->_Bx._Ptr
; 2005 : 			: this->_Bx._Buf);

  00009	8b c1		 mov	 eax, ecx

; 2006 : 		}

  0000b	c3		 ret	 0
?_Myptr@?$basic_string@DU?$char_traits@D@std@@V?$allocator@D@2@@std@@QAEPADXZ ENDP ; std::basic_string<char,std::char_traits<char>,std::allocator<char> >::_Myptr
_TEXT	ENDS
PUBLIC	??_C@_0BA@JFNIOLAK@string?5too?5long?$AA@	; `string'
PUBLIC	?_Xlen@?$basic_string@DU?$char_traits@D@std@@V?$allocator@D@2@@std@@QBEXXZ ; std::basic_string<char,std::char_traits<char>,std::allocator<char> >::_Xlen
;	COMDAT ??_C@_0BA@JFNIOLAK@string?5too?5long?$AA@
CONST	SEGMENT
??_C@_0BA@JFNIOLAK@string?5too?5long?$AA@ DB 'string too long', 00H ; `string'
; Function compile flags: /Ogsp
CONST	ENDS
;	COMDAT ?_Xlen@?$basic_string@DU?$char_traits@D@std@@V?$allocator@D@2@@std@@QBEXXZ
_TEXT	SEGMENT
?_Xlen@?$basic_string@DU?$char_traits@D@std@@V?$allocator@D@2@@std@@QBEXXZ PROC ; std::basic_string<char,std::char_traits<char>,std::allocator<char> >::_Xlen, COMDAT
; _this$ = ecx

; 2016 : 		_Xlength_error("string too long");

  00000	68 00 00 00 00	 push	 OFFSET ??_C@_0BA@JFNIOLAK@string?5too?5long?$AA@
  00005	ff 15 00 00 00
	00		 call	 DWORD PTR __imp_?_Xlength_error@std@@YAXPBD@Z
$LN4@Xlen@2:
$LN3@Xlen@2:
  0000b	cc		 int	 3
?_Xlen@?$basic_string@DU?$char_traits@D@std@@V?$allocator@D@2@@std@@QBEXXZ ENDP ; std::basic_string<char,std::char_traits<char>,std::allocator<char> >::_Xlen
_TEXT	ENDS
PUBLIC	??_C@_0BI@CFPLBAOH@invalid?5string?5position?$AA@ ; `string'
PUBLIC	?_Xran@?$basic_string@DU?$char_traits@D@std@@V?$allocator@D@2@@std@@QBEXXZ ; std::basic_string<char,std::char_traits<char>,std::allocator<char> >::_Xran
EXTRN	__imp_?_Xout_of_range@std@@YAXPBD@Z:PROC
;	COMDAT ??_C@_0BI@CFPLBAOH@invalid?5string?5position?$AA@
CONST	SEGMENT
??_C@_0BI@CFPLBAOH@invalid?5string?5position?$AA@ DB 'invalid string posi'
	DB	'tion', 00H					; `string'
; Function compile flags: /Ogsp
CONST	ENDS
;	COMDAT ?_Xran@?$basic_string@DU?$char_traits@D@std@@V?$allocator@D@2@@std@@QBEXXZ
_TEXT	SEGMENT
?_Xran@?$basic_string@DU?$char_traits@D@std@@V?$allocator@D@2@@std@@QBEXXZ PROC ; std::basic_string<char,std::char_traits<char>,std::allocator<char> >::_Xran, COMDAT
; _this$ = ecx

; 2021 : 		_Xout_of_range("invalid string position");

  00000	68 00 00 00 00	 push	 OFFSET ??_C@_0BI@CFPLBAOH@invalid?5string?5position?$AA@
  00005	ff 15 00 00 00
	00		 call	 DWORD PTR __imp_?_Xout_of_range@std@@YAXPBD@Z
$LN4@Xran:
$LN3@Xran:
  0000b	cc		 int	 3
?_Xran@?$basic_string@DU?$char_traits@D@std@@V?$allocator@D@2@@std@@QBEXXZ ENDP ; std::basic_string<char,std::char_traits<char>,std::allocator<char> >::_Xran
_TEXT	ENDS
PUBLIC	?deallocate@?$allocator@D@std@@QAEXPADI@Z	; std::allocator<char>::deallocate
; Function compile flags: /Ogsp
; File c:\program files (x86)\microsoft visual studio 10.0\vc\include\xmemory
;	COMDAT ?deallocate@?$allocator@D@std@@QAEXPADI@Z
_TEXT	SEGMENT
__Ptr$ = 8						; size = 4
___formal$ = 12						; size = 4
?deallocate@?$allocator@D@std@@QAEXPADI@Z PROC		; std::allocator<char>::deallocate, COMDAT
; _this$ = ecx

; 181  : 		{	// deallocate object at _Ptr, ignore size

  00000	55		 push	 ebp
  00001	8b ec		 mov	 ebp, esp

; 182  : 		::operator delete(_Ptr);

  00003	ff 75 08	 push	 DWORD PTR __Ptr$[ebp]
  00006	e8 00 00 00 00	 call	 ??3@YAXPAX@Z		; operator delete
  0000b	59		 pop	 ecx

; 183  : 		}

  0000c	5d		 pop	 ebp
  0000d	c2 08 00	 ret	 8
?deallocate@?$allocator@D@std@@QAEXPADI@Z ENDP		; std::allocator<char>::deallocate
_TEXT	ENDS
PUBLIC	?_Inside@?$basic_string@DU?$char_traits@D@std@@V?$allocator@D@2@@std@@QAE_NPBD@Z ; std::basic_string<char,std::char_traits<char>,std::allocator<char> >::_Inside
; Function compile flags: /Ogsp
; File c:\program files (x86)\microsoft visual studio 10.0\vc\include\xstring
;	COMDAT ?_Inside@?$basic_string@DU?$char_traits@D@std@@V?$allocator@D@2@@std@@QAE_NPBD@Z
_TEXT	SEGMENT
__Ptr$ = 8						; size = 4
?_Inside@?$basic_string@DU?$char_traits@D@std@@V?$allocator@D@2@@std@@QAE_NPBD@Z PROC ; std::basic_string<char,std::char_traits<char>,std::allocator<char> >::_Inside, COMDAT
; _this$ = ecx

; 1973 : 		{	// test if _Ptr points inside string

  00000	55		 push	 ebp
  00001	8b ec		 mov	 ebp, esp

; 1974 : 		if (_Ptr == 0 || _Ptr < _Myptr() || _Myptr() + this->_Mysize <= _Ptr)

  00003	83 7d 08 00	 cmp	 DWORD PTR __Ptr$[ebp], 0
  00007	74 2c		 je	 SHORT $LN2@Inside
  00009	8b 51 14	 mov	 edx, DWORD PTR [ecx+20]
  0000c	83 fa 10	 cmp	 edx, 16			; 00000010H
  0000f	72 04		 jb	 SHORT $LN8@Inside
  00011	8b 01		 mov	 eax, DWORD PTR [ecx]
  00013	eb 02		 jmp	 SHORT $LN9@Inside
$LN8@Inside:
  00015	8b c1		 mov	 eax, ecx
$LN9@Inside:
  00017	39 45 08	 cmp	 DWORD PTR __Ptr$[ebp], eax
  0001a	72 19		 jb	 SHORT $LN2@Inside
  0001c	83 fa 10	 cmp	 edx, 16			; 00000010H
  0001f	72 04		 jb	 SHORT $LN12@Inside
  00021	8b 01		 mov	 eax, DWORD PTR [ecx]
  00023	eb 02		 jmp	 SHORT $LN13@Inside
$LN12@Inside:
  00025	8b c1		 mov	 eax, ecx
$LN13@Inside:
  00027	8b 49 10	 mov	 ecx, DWORD PTR [ecx+16]
  0002a	03 c8		 add	 ecx, eax
  0002c	3b 4d 08	 cmp	 ecx, DWORD PTR __Ptr$[ebp]
  0002f	76 04		 jbe	 SHORT $LN2@Inside

; 1976 : 		else
; 1977 : 			return (true);

  00031	b0 01		 mov	 al, 1
  00033	eb 02		 jmp	 SHORT $LN1@Inside
$LN2@Inside:

; 1975 : 			return (false);	// don't ask

  00035	32 c0		 xor	 al, al
$LN1@Inside:

; 1978 : 		}

  00037	5d		 pop	 ebp
  00038	c2 04 00	 ret	 4
?_Inside@?$basic_string@DU?$char_traits@D@std@@V?$allocator@D@2@@std@@QAE_NPBD@Z ENDP ; std::basic_string<char,std::char_traits<char>,std::allocator<char> >::_Inside
_TEXT	ENDS
PUBLIC	?max_size@?$allocator@D@std@@QBEIXZ		; std::allocator<char>::max_size
; Function compile flags: /Ogsp
; File c:\program files (x86)\microsoft visual studio 10.0\vc\include\xmemory
;	COMDAT ?max_size@?$allocator@D@std@@QBEIXZ
_TEXT	SEGMENT
?max_size@?$allocator@D@std@@QBEIXZ PROC		; std::allocator<char>::max_size, COMDAT
; _this$ = ecx

; 218  : 		_SIZT _Count = (_SIZT)(-1) / sizeof (_Ty);
; 219  : 		return (0 < _Count ? _Count : 1);

  00000	83 c8 ff	 or	 eax, -1

; 220  : 		}

  00003	c3		 ret	 0
?max_size@?$allocator@D@std@@QBEIXZ ENDP		; std::allocator<char>::max_size
_TEXT	ENDS
PUBLIC	??$_Allocate@D@std@@YAPADIPAD@Z			; std::_Allocate<char>
; Function compile flags: /Ogsp
;	COMDAT ??$_Allocate@D@std@@YAPADIPAD@Z
_TEXT	SEGMENT
$T509644 = -12						; size = 12
$T509648 = 8						; size = 4
__Count$ = 8						; size = 4
___formal$ = 12						; size = 4
??$_Allocate@D@std@@YAPADIPAD@Z PROC			; std::_Allocate<char>, COMDAT

; 30   : 	{	// allocate storage for _Count elements of type _Ty

  00000	55		 push	 ebp
  00001	8b ec		 mov	 ebp, esp

; 31   : 	void *_Ptr = 0;

  00003	33 c0		 xor	 eax, eax
  00005	83 ec 0c	 sub	 esp, 12			; 0000000cH

; 32   : 
; 33   : 	if (_Count <= 0)

  00008	39 45 08	 cmp	 DWORD PTR __Count$[ebp], eax

; 34   : 		_Count = 0;
; 35   : 	else if (((_SIZT)(-1) / sizeof (_Ty) < _Count)

  0000b	76 39		 jbe	 SHORT $LN5@Allocate@2

; 36   : 		|| (_Ptr = ::operator new(_Count * sizeof (_Ty))) == 0)

  0000d	83 7d 08 ff	 cmp	 DWORD PTR __Count$[ebp], -1
  00011	77 0d		 ja	 SHORT $LN1@Allocate@2
  00013	ff 75 08	 push	 DWORD PTR __Count$[ebp]
  00016	e8 00 00 00 00	 call	 ??2@YAPAXI@Z		; operator new
  0001b	59		 pop	 ecx
  0001c	85 c0		 test	 eax, eax

; 38   : 
; 39   : 	return ((_Ty _FARQ *)_Ptr);

  0001e	75 26		 jne	 SHORT $LN5@Allocate@2
$LN1@Allocate@2:

; 37   : 		_THROW_NCEE(bad_alloc, 0);

  00020	83 65 08 00	 and	 DWORD PTR $T509648[ebp], 0
  00024	8d 45 08	 lea	 eax, DWORD PTR $T509648[ebp]
  00027	50		 push	 eax
  00028	8d 4d f4	 lea	 ecx, DWORD PTR $T509644[ebp]
  0002b	ff 15 00 00 00
	00		 call	 DWORD PTR __imp_??0exception@std@@QAE@ABQBD@Z
  00031	68 00 00 00 00	 push	 OFFSET __TI2?AVbad_alloc@std@@
  00036	8d 45 f4	 lea	 eax, DWORD PTR $T509644[ebp]
  00039	50		 push	 eax
  0003a	c7 45 f4 00 00
	00 00		 mov	 DWORD PTR $T509644[ebp], OFFSET ??_7bad_alloc@std@@6B@
  00041	e8 00 00 00 00	 call	 __CxxThrowException@8
$LN10@Allocate@2:
$LN5@Allocate@2:

; 40   : 	}

  00046	c9		 leave
  00047	c3		 ret	 0
$LN9@Allocate@2:
??$_Allocate@D@std@@YAPADIPAD@Z ENDP			; std::_Allocate<char>
_TEXT	ENDS
EXTRN	__imp_??0exception@std@@QAE@ABV01@@Z:PROC
; Function compile flags: /Ogsp
;	COMDAT ??0bad_alloc@std@@QAE@ABV01@@Z
_TEXT	SEGMENT
___that$ = 8						; size = 4
??0bad_alloc@std@@QAE@ABV01@@Z PROC			; std::bad_alloc::bad_alloc, COMDAT
; _this$ = ecx
  00000	55		 push	 ebp
  00001	8b ec		 mov	 ebp, esp
  00003	56		 push	 esi
  00004	ff 75 08	 push	 DWORD PTR ___that$[ebp]
  00007	8b f1		 mov	 esi, ecx
  00009	ff 15 00 00 00
	00		 call	 DWORD PTR __imp_??0exception@std@@QAE@ABV01@@Z
  0000f	c7 06 00 00 00
	00		 mov	 DWORD PTR [esi], OFFSET ??_7bad_alloc@std@@6B@
  00015	8b c6		 mov	 eax, esi
  00017	5e		 pop	 esi
  00018	5d		 pop	 ebp
  00019	c2 04 00	 ret	 4
??0bad_alloc@std@@QAE@ABV01@@Z ENDP			; std::bad_alloc::bad_alloc
_TEXT	ENDS
PUBLIC	??1?$_Vector_val@V?$basic_string@DU?$char_traits@D@std@@V?$allocator@D@2@@std@@V?$allocator@V?$basic_string@DU?$char_traits@D@std@@V?$allocator@D@2@@std@@@2@@std@@QAE@XZ ; std::_Vector_val<std::basic_string<char,std::char_traits<char>,std::allocator<char> >,std::allocator<std::basic_string<char,std::char_traits<char>,std::allocator<char> > > >::~_Vector_val<std::basic_string<char,std::char_traits<char>,std::allocator<char> >,std::allocator<std::basic_string<char,std::char_traits<char>,std::allocator<char> > > >
; Function compile flags: /Ogsp
; File c:\program files (x86)\microsoft visual studio 10.0\vc\include\vector
;	COMDAT ??1?$_Vector_val@V?$basic_string@DU?$char_traits@D@std@@V?$allocator@D@2@@std@@V?$allocator@V?$basic_string@DU?$char_traits@D@std@@V?$allocator@D@2@@std@@@2@@std@@QAE@XZ
_TEXT	SEGMENT
??1?$_Vector_val@V?$basic_string@DU?$char_traits@D@std@@V?$allocator@D@2@@std@@V?$allocator@V?$basic_string@DU?$char_traits@D@std@@V?$allocator@D@2@@std@@@2@@std@@QAE@XZ PROC ; std::_Vector_val<std::basic_string<char,std::char_traits<char>,std::allocator<char> >,std::allocator<std::basic_string<char,std::char_traits<char>,std::allocator<char> > > >::~_Vector_val<std::basic_string<char,std::char_traits<char>,std::allocator<char> >,std::allocator<std::basic_string<char,std::char_traits<char>,std::allocator<char> > > >, COMDAT
; _this$ = ecx

; 434  : 		}

  00000	c3		 ret	 0
??1?$_Vector_val@V?$basic_string@DU?$char_traits@D@std@@V?$allocator@D@2@@std@@V?$allocator@V?$basic_string@DU?$char_traits@D@std@@V?$allocator@D@2@@std@@@2@@std@@QAE@XZ ENDP ; std::_Vector_val<std::basic_string<char,std::char_traits<char>,std::allocator<char> >,std::allocator<std::basic_string<char,std::char_traits<char>,std::allocator<char> > > >::~_Vector_val<std::basic_string<char,std::char_traits<char>,std::allocator<char> >,std::allocator<std::basic_string<char,std::char_traits<char>,std::allocator<char> > > >
_TEXT	ENDS
PUBLIC	?deallocate@?$allocator@V?$basic_string@DU?$char_traits@D@std@@V?$allocator@D@2@@std@@@std@@QAEXPAV?$basic_string@DU?$char_traits@D@std@@V?$allocator@D@2@@2@I@Z ; std::allocator<std::basic_string<char,std::char_traits<char>,std::allocator<char> > >::deallocate
; Function compile flags: /Ogsp
; File c:\program files (x86)\microsoft visual studio 10.0\vc\include\xmemory
;	COMDAT ?deallocate@?$allocator@V?$basic_string@DU?$char_traits@D@std@@V?$allocator@D@2@@std@@@std@@QAEXPAV?$basic_string@DU?$char_traits@D@std@@V?$allocator@D@2@@2@I@Z
_TEXT	SEGMENT
__Ptr$ = 8						; size = 4
___formal$ = 12						; size = 4
?deallocate@?$allocator@V?$basic_string@DU?$char_traits@D@std@@V?$allocator@D@2@@std@@@std@@QAEXPAV?$basic_string@DU?$char_traits@D@std@@V?$allocator@D@2@@2@I@Z PROC ; std::allocator<std::basic_string<char,std::char_traits<char>,std::allocator<char> > >::deallocate, COMDAT
; _this$ = ecx

; 181  : 		{	// deallocate object at _Ptr, ignore size

  00000	55		 push	 ebp
  00001	8b ec		 mov	 ebp, esp

; 182  : 		::operator delete(_Ptr);

  00003	ff 75 08	 push	 DWORD PTR __Ptr$[ebp]
  00006	e8 00 00 00 00	 call	 ??3@YAXPAX@Z		; operator delete
  0000b	59		 pop	 ecx

; 183  : 		}

  0000c	5d		 pop	 ebp
  0000d	c2 08 00	 ret	 8
?deallocate@?$allocator@V?$basic_string@DU?$char_traits@D@std@@V?$allocator@D@2@@std@@@std@@QAEXPAV?$basic_string@DU?$char_traits@D@std@@V?$allocator@D@2@@2@I@Z ENDP ; std::allocator<std::basic_string<char,std::char_traits<char>,std::allocator<char> > >::deallocate
_TEXT	ENDS
PUBLIC	??$_Ptr_cat@V?$basic_string@DU?$char_traits@D@std@@V?$allocator@D@2@@std@@V12@@std@@YA?AU_Nonscalar_ptr_iterator_tag@0@PAV?$basic_string@DU?$char_traits@D@std@@V?$allocator@D@2@@0@0@Z ; std::_Ptr_cat<std::basic_string<char,std::char_traits<char>,std::allocator<char> >,std::basic_string<char,std::char_traits<char>,std::allocator<char> > >
; Function compile flags: /Ogsp
; File c:\program files (x86)\microsoft visual studio 10.0\vc\include\xutility
;	COMDAT ??$_Ptr_cat@V?$basic_string@DU?$char_traits@D@std@@V?$allocator@D@2@@std@@V12@@std@@YA?AU_Nonscalar_ptr_iterator_tag@0@PAV?$basic_string@DU?$char_traits@D@std@@V?$allocator@D@2@@0@0@Z
_TEXT	SEGMENT
__Cat$ = -1						; size = 1
___formal$ = 8						; size = 4
___formal$ = 12						; size = 4
??$_Ptr_cat@V?$basic_string@DU?$char_traits@D@std@@V?$allocator@D@2@@std@@V12@@std@@YA?AU_Nonscalar_ptr_iterator_tag@0@PAV?$basic_string@DU?$char_traits@D@std@@V?$allocator@D@2@@0@0@Z PROC ; std::_Ptr_cat<std::basic_string<char,std::char_traits<char>,std::allocator<char> >,std::basic_string<char,std::char_traits<char>,std::allocator<char> > >, COMDAT

; 516  : 	{	// return pointer category from pointers

  00000	55		 push	 ebp
  00001	8b ec		 mov	 ebp, esp
  00003	51		 push	 ecx

; 517  : 	typename _Ptr_cat_helper<_Elem1, _Elem2>::_Type _Cat;
; 518  : 	return (_Cat);

  00004	8a 45 ff	 mov	 al, BYTE PTR __Cat$[ebp]

; 519  : 	}

  00007	c9		 leave
  00008	c3		 ret	 0
??$_Ptr_cat@V?$basic_string@DU?$char_traits@D@std@@V?$allocator@D@2@@std@@V12@@std@@YA?AU_Nonscalar_ptr_iterator_tag@0@PAV?$basic_string@DU?$char_traits@D@std@@V?$allocator@D@2@@0@0@Z ENDP ; std::_Ptr_cat<std::basic_string<char,std::char_traits<char>,std::allocator<char> >,std::basic_string<char,std::char_traits<char>,std::allocator<char> > >
_TEXT	ENDS
PUBLIC	??B_bstr_t@@QBEPB_WXZ				; _bstr_t::operator wchar_t const *
; Function compile flags: /Ogsp
; File c:\program files (x86)\microsoft visual studio 10.0\vc\include\comutil.h
;	COMDAT ??B_bstr_t@@QBEPB_WXZ
_TEXT	SEGMENT
??B_bstr_t@@QBEPB_WXZ PROC				; _bstr_t::operator wchar_t const *, COMDAT
; _this$ = ecx

; 472  :     return (m_Data != NULL) ? m_Data->GetWString() : NULL;

  00000	8b 01		 mov	 eax, DWORD PTR [ecx]
  00002	85 c0		 test	 eax, eax
  00004	74 03		 je	 SHORT $LN3@operator
  00006	8b 00		 mov	 eax, DWORD PTR [eax]

; 473  : }

  00008	c3		 ret	 0
$LN3@operator:

; 472  :     return (m_Data != NULL) ? m_Data->GetWString() : NULL;

  00009	33 c0		 xor	 eax, eax

; 473  : }

  0000b	c3		 ret	 0
??B_bstr_t@@QBEPB_WXZ ENDP				; _bstr_t::operator wchar_t const *
_TEXT	ENDS
PUBLIC	??B_bstr_t@@QBEPA_WXZ				; _bstr_t::operator wchar_t *
; Function compile flags: /Ogsp
;	COMDAT ??B_bstr_t@@QBEPA_WXZ
_TEXT	SEGMENT
??B_bstr_t@@QBEPA_WXZ PROC				; _bstr_t::operator wchar_t *, COMDAT
; _this$ = ecx

; 479  :     return const_cast<wchar_t*>((m_Data != NULL) ? m_Data->GetWString() : NULL);

  00000	8b 01		 mov	 eax, DWORD PTR [ecx]
  00002	85 c0		 test	 eax, eax
  00004	74 03		 je	 SHORT $LN3@operator@2
  00006	8b 00		 mov	 eax, DWORD PTR [eax]

; 480  : }

  00008	c3		 ret	 0
$LN3@operator@2:

; 479  :     return const_cast<wchar_t*>((m_Data != NULL) ? m_Data->GetWString() : NULL);

  00009	33 c0		 xor	 eax, eax

; 480  : }

  0000b	c3		 ret	 0
??B_bstr_t@@QBEPA_WXZ ENDP				; _bstr_t::operator wchar_t *
_TEXT	ENDS
PUBLIC	?length@_bstr_t@@QBEIXZ				; _bstr_t::length
; Function compile flags: /Ogsp
;	COMDAT ?length@_bstr_t@@QBEIXZ
_TEXT	SEGMENT
?length@_bstr_t@@QBEIXZ PROC				; _bstr_t::length, COMDAT
; _this$ = ecx

; 554  :     return (m_Data != NULL) ? m_Data->Length() : 0;

  00000	8b 01		 mov	 eax, DWORD PTR [ecx]
  00002	85 c0		 test	 eax, eax
  00004	74 0e		 je	 SHORT $LN3@length@2
  00006	8b 00		 mov	 eax, DWORD PTR [eax]
  00008	85 c0		 test	 eax, eax
  0000a	74 08		 je	 SHORT $LN3@length@2
  0000c	50		 push	 eax
  0000d	ff 15 00 00 00
	00		 call	 DWORD PTR __imp__SysStringLen@4

; 555  : }

  00013	c3		 ret	 0
$LN3@length@2:

; 554  :     return (m_Data != NULL) ? m_Data->Length() : 0;

  00014	33 c0		 xor	 eax, eax

; 555  : }

  00016	c3		 ret	 0
?length@_bstr_t@@QBEIXZ ENDP				; _bstr_t::length
_TEXT	ENDS
PUBLIC	??0Data_t@_bstr_t@@QAE@PB_W@Z			; _bstr_t::Data_t::Data_t
EXTRN	__imp__SysAllocString@4:PROC
; Function compile flags: /Ogsp
;	COMDAT ??0Data_t@_bstr_t@@QAE@PB_W@Z
_TEXT	SEGMENT
_s$ = 8							; size = 4
??0Data_t@_bstr_t@@QAE@PB_W@Z PROC			; _bstr_t::Data_t::Data_t, COMDAT
; _this$ = ecx

; 690  : {

  00000	55		 push	 ebp
  00001	8b ec		 mov	 ebp, esp
  00003	56		 push	 esi

; 691  :     m_wstr = ::SysAllocString(s);

  00004	ff 75 08	 push	 DWORD PTR _s$[ebp]
  00007	8b f1		 mov	 esi, ecx
  00009	83 66 04 00	 and	 DWORD PTR [esi+4], 0
  0000d	c7 46 08 01 00
	00 00		 mov	 DWORD PTR [esi+8], 1
  00014	ff 15 00 00 00
	00		 call	 DWORD PTR __imp__SysAllocString@4
  0001a	89 06		 mov	 DWORD PTR [esi], eax

; 692  : 
; 693  :     if (m_wstr == NULL && s != NULL) {
; 694  :         _com_issue_error(E_OUTOFMEMORY);
; 695  :     }
; 696  : }

  0001c	8b c6		 mov	 eax, esi
  0001e	5e		 pop	 esi
  0001f	5d		 pop	 ebp
  00020	c2 04 00	 ret	 4
??0Data_t@_bstr_t@@QAE@PB_W@Z ENDP			; _bstr_t::Data_t::Data_t
_TEXT	ENDS
PUBLIC	??0Data_t@_bstr_t@@QAE@ABV1@0@Z			; _bstr_t::Data_t::Data_t
EXTRN	__imp__memcpy_s:PROC
EXTRN	__imp__SysAllocStringByteLen@8:PROC
; Function compile flags: /Ogsp
;	COMDAT ??0Data_t@_bstr_t@@QAE@ABV1@0@Z
_TEXT	SEGMENT
_l2$ = -4						; size = 4
_s1$ = 8						; size = 4
_s2$ = 12						; size = 4
??0Data_t@_bstr_t@@QAE@ABV1@0@Z PROC			; _bstr_t::Data_t::Data_t, COMDAT
; _this$ = ecx

; 721  : {

  00000	55		 push	 ebp
  00001	8b ec		 mov	 ebp, esp
  00003	51		 push	 ecx
  00004	53		 push	 ebx
  00005	56		 push	 esi
  00006	57		 push	 edi
  00007	8b f9		 mov	 edi, ecx

; 722  : 	const unsigned int l1 = s1.length();

  00009	8b 4d 08	 mov	 ecx, DWORD PTR _s1$[ebp]
  0000c	83 67 04 00	 and	 DWORD PTR [edi+4], 0
  00010	c7 47 08 01 00
	00 00		 mov	 DWORD PTR [edi+8], 1
  00017	e8 00 00 00 00	 call	 ?length@_bstr_t@@QBEIXZ	; _bstr_t::length

; 723  : 	const unsigned int l2 = s2.length();

  0001c	8b 4d 0c	 mov	 ecx, DWORD PTR _s2$[ebp]
  0001f	8b d8		 mov	 ebx, eax
  00021	e8 00 00 00 00	 call	 ?length@_bstr_t@@QBEIXZ	; _bstr_t::length

; 724  : 	unsigned int l3;
; 725  : 
; 726  : 	if (FAILED(_com_util::UIntAdd(l1, l2, &l3)) ||
; 727  : 		FAILED(_com_util::UIntMult(l3, sizeof(wchar_t), &l3)))
; 728  : 	{
; 729  : 		_com_issue_error(E_OUTOFMEMORY);
; 730  : 		return;
; 731  : 	}
; 732  : 	
; 733  : 	m_wstr = ::SysAllocStringByteLen(NULL, (l1 + l2) * sizeof(wchar_t));

  00026	8d 34 18	 lea	 esi, DWORD PTR [eax+ebx]
  00029	03 f6		 add	 esi, esi
  0002b	56		 push	 esi
  0002c	6a 00		 push	 0
  0002e	89 45 fc	 mov	 DWORD PTR _l2$[ebp], eax
  00031	ff 15 00 00 00
	00		 call	 DWORD PTR __imp__SysAllocStringByteLen@8
  00037	89 07		 mov	 DWORD PTR [edi], eax

; 734  : 	if (m_wstr == NULL) 

  00039	85 c0		 test	 eax, eax
  0003b	74 53		 je	 SHORT $LN1@Data_t

; 735  : 	{
; 736  : 		if (l1 + l2 == 0)
; 737  : 		{
; 738  : 			return;
; 739  : 		}
; 740  : 		_com_issue_error(E_OUTOFMEMORY);
; 741  : 		return;
; 742  : 	}
; 743  : 
; 744  : 	const wchar_t* wstr1 = static_cast<const wchar_t*>(s1);

  0003d	8b 4d 08	 mov	 ecx, DWORD PTR _s1$[ebp]
  00040	8b 09		 mov	 ecx, DWORD PTR [ecx]
  00042	85 c9		 test	 ecx, ecx
  00044	74 04		 je	 SHORT $LN21@Data_t
  00046	8b 09		 mov	 ecx, DWORD PTR [ecx]
  00048	eb 02		 jmp	 SHORT $LN22@Data_t
$LN21@Data_t:
  0004a	33 c9		 xor	 ecx, ecx
$LN22@Data_t:

; 745  : 
; 746  : 	if (wstr1 != NULL) 

  0004c	85 c9		 test	 ecx, ecx
  0004e	74 14		 je	 SHORT $LN31@Data_t

; 747  : 	{
; 748  : 		_COM_MEMCPY_S(m_wstr, (l1 + l2 + 1) * sizeof(wchar_t), wstr1, (l1 + 1) * sizeof(wchar_t));

  00050	8d 54 1b 02	 lea	 edx, DWORD PTR [ebx+ebx+2]
  00054	52		 push	 edx
  00055	51		 push	 ecx
  00056	83 c6 02	 add	 esi, 2
  00059	56		 push	 esi
  0005a	50		 push	 eax
  0005b	ff 15 00 00 00
	00		 call	 DWORD PTR __imp__memcpy_s
  00061	83 c4 10	 add	 esp, 16			; 00000010H
$LN31@Data_t:

; 749  : 	}
; 750  : 
; 751  : 	const wchar_t* wstr2 = static_cast<const wchar_t*>(s2);

  00064	8b 45 0c	 mov	 eax, DWORD PTR _s2$[ebp]
  00067	8b 00		 mov	 eax, DWORD PTR [eax]
  00069	85 c0		 test	 eax, eax
  0006b	74 04		 je	 SHORT $LN27@Data_t
  0006d	8b 08		 mov	 ecx, DWORD PTR [eax]
  0006f	eb 02		 jmp	 SHORT $LN28@Data_t
$LN27@Data_t:
  00071	33 c9		 xor	 ecx, ecx
$LN28@Data_t:

; 752  : 
; 753  : 	if (wstr2 != NULL) 

  00073	85 c9		 test	 ecx, ecx
  00075	74 19		 je	 SHORT $LN1@Data_t

; 754  : 	{
; 755  : 		_COM_MEMCPY_S(m_wstr + l1, (l2 + 1) * sizeof(wchar_t), wstr2, (l2 + 1) * sizeof(wchar_t));

  00077	8b 45 fc	 mov	 eax, DWORD PTR _l2$[ebp]
  0007a	8d 44 00 02	 lea	 eax, DWORD PTR [eax+eax+2]
  0007e	50		 push	 eax
  0007f	51		 push	 ecx
  00080	50		 push	 eax
  00081	8b 07		 mov	 eax, DWORD PTR [edi]
  00083	8d 04 58	 lea	 eax, DWORD PTR [eax+ebx*2]
  00086	50		 push	 eax
  00087	ff 15 00 00 00
	00		 call	 DWORD PTR __imp__memcpy_s
  0008d	83 c4 10	 add	 esp, 16			; 00000010H
$LN1@Data_t:

; 756  : 	}
; 757  : }

  00090	8b c7		 mov	 eax, edi
  00092	5f		 pop	 edi
  00093	5e		 pop	 esi
  00094	5b		 pop	 ebx
  00095	c9		 leave
  00096	c2 08 00	 ret	 8
??0Data_t@_bstr_t@@QAE@ABV1@0@Z ENDP			; _bstr_t::Data_t::Data_t
_TEXT	ENDS
PUBLIC	??1Data_t@_bstr_t@@AAE@XZ			; _bstr_t::Data_t::~Data_t
; Function compile flags: /Ogsp
;	COMDAT ??1Data_t@_bstr_t@@AAE@XZ
_TEXT	SEGMENT
??1Data_t@_bstr_t@@AAE@XZ PROC				; _bstr_t::Data_t::~Data_t, COMDAT
; _this$ = ecx

; 923  :     _Free();

  00000	e9 00 00 00 00	 jmp	 ?_Free@Data_t@_bstr_t@@AAEXXZ ; _bstr_t::Data_t::_Free
??1Data_t@_bstr_t@@AAE@XZ ENDP				; _bstr_t::Data_t::~Data_t
_TEXT	ENDS
PUBLIC	??1?$CComPtr@UIHTMLDocument2@@@ATL@@QAE@XZ	; ATL::CComPtr<IHTMLDocument2>::~CComPtr<IHTMLDocument2>
; Function compile flags: /Ogsp
;	COMDAT ??1?$CComPtr@UIHTMLDocument2@@@ATL@@QAE@XZ
_TEXT	SEGMENT
??1?$CComPtr@UIHTMLDocument2@@@ATL@@QAE@XZ PROC		; ATL::CComPtr<IHTMLDocument2>::~CComPtr<IHTMLDocument2>, COMDAT
; _this$ = ecx
  00000	8b 01		 mov	 eax, DWORD PTR [ecx]
  00002	85 c0		 test	 eax, eax
  00004	74 06		 je	 SHORT $LN3@CComPtr
  00006	8b 08		 mov	 ecx, DWORD PTR [eax]
  00008	50		 push	 eax
  00009	ff 51 08	 call	 DWORD PTR [ecx+8]
$LN3@CComPtr:
  0000c	c3		 ret	 0
??1?$CComPtr@UIHTMLDocument2@@@ATL@@QAE@XZ ENDP		; ATL::CComPtr<IHTMLDocument2>::~CComPtr<IHTMLDocument2>
_TEXT	ENDS
PUBLIC	??1?$CComPtr@UIHTMLElementCollection@@@ATL@@QAE@XZ ; ATL::CComPtr<IHTMLElementCollection>::~CComPtr<IHTMLElementCollection>
; Function compile flags: /Ogsp
;	COMDAT ??1?$CComPtr@UIHTMLElementCollection@@@ATL@@QAE@XZ
_TEXT	SEGMENT
??1?$CComPtr@UIHTMLElementCollection@@@ATL@@QAE@XZ PROC	; ATL::CComPtr<IHTMLElementCollection>::~CComPtr<IHTMLElementCollection>, COMDAT
; _this$ = ecx
  00000	8b 01		 mov	 eax, DWORD PTR [ecx]
  00002	85 c0		 test	 eax, eax
  00004	74 06		 je	 SHORT $LN3@CComPtr@2
  00006	8b 08		 mov	 ecx, DWORD PTR [eax]
  00008	50		 push	 eax
  00009	ff 51 08	 call	 DWORD PTR [ecx+8]
$LN3@CComPtr@2:
  0000c	c3		 ret	 0
??1?$CComPtr@UIHTMLElementCollection@@@ATL@@QAE@XZ ENDP	; ATL::CComPtr<IHTMLElementCollection>::~CComPtr<IHTMLElementCollection>
_TEXT	ENDS
PUBLIC	??1?$CComPtr@UIHTMLElement@@@ATL@@QAE@XZ	; ATL::CComPtr<IHTMLElement>::~CComPtr<IHTMLElement>
; Function compile flags: /Ogsp
;	COMDAT ??1?$CComPtr@UIHTMLElement@@@ATL@@QAE@XZ
_TEXT	SEGMENT
??1?$CComPtr@UIHTMLElement@@@ATL@@QAE@XZ PROC		; ATL::CComPtr<IHTMLElement>::~CComPtr<IHTMLElement>, COMDAT
; _this$ = ecx
  00000	8b 01		 mov	 eax, DWORD PTR [ecx]
  00002	85 c0		 test	 eax, eax
  00004	74 06		 je	 SHORT $LN3@CComPtr@3
  00006	8b 08		 mov	 ecx, DWORD PTR [eax]
  00008	50		 push	 eax
  00009	ff 51 08	 call	 DWORD PTR [ecx+8]
$LN3@CComPtr@3:
  0000c	c3		 ret	 0
??1?$CComPtr@UIHTMLElement@@@ATL@@QAE@XZ ENDP		; ATL::CComPtr<IHTMLElement>::~CComPtr<IHTMLElement>
_TEXT	ENDS
PUBLIC	??1?$CComPtr@UIHTMLBodyElement@@@ATL@@QAE@XZ	; ATL::CComPtr<IHTMLBodyElement>::~CComPtr<IHTMLBodyElement>
; Function compile flags: /Ogsp
;	COMDAT ??1?$CComPtr@UIHTMLBodyElement@@@ATL@@QAE@XZ
_TEXT	SEGMENT
??1?$CComPtr@UIHTMLBodyElement@@@ATL@@QAE@XZ PROC	; ATL::CComPtr<IHTMLBodyElement>::~CComPtr<IHTMLBodyElement>, COMDAT
; _this$ = ecx
  00000	8b 01		 mov	 eax, DWORD PTR [ecx]
  00002	85 c0		 test	 eax, eax
  00004	74 06		 je	 SHORT $LN3@CComPtr@4
  00006	8b 08		 mov	 ecx, DWORD PTR [eax]
  00008	50		 push	 eax
  00009	ff 51 08	 call	 DWORD PTR [ecx+8]
$LN3@CComPtr@4:
  0000c	c3		 ret	 0
??1?$CComPtr@UIHTMLBodyElement@@@ATL@@QAE@XZ ENDP	; ATL::CComPtr<IHTMLBodyElement>::~CComPtr<IHTMLBodyElement>
_TEXT	ENDS
PUBLIC	??1?$CComPtr@UIAxWinAmbientDispatch@@@ATL@@QAE@XZ ; ATL::CComPtr<IAxWinAmbientDispatch>::~CComPtr<IAxWinAmbientDispatch>
; Function compile flags: /Ogsp
;	COMDAT ??1?$CComPtr@UIAxWinAmbientDispatch@@@ATL@@QAE@XZ
_TEXT	SEGMENT
??1?$CComPtr@UIAxWinAmbientDispatch@@@ATL@@QAE@XZ PROC	; ATL::CComPtr<IAxWinAmbientDispatch>::~CComPtr<IAxWinAmbientDispatch>, COMDAT
; _this$ = ecx
  00000	8b 01		 mov	 eax, DWORD PTR [ecx]
  00002	85 c0		 test	 eax, eax
  00004	74 06		 je	 SHORT $LN3@CComPtr@5
  00006	8b 08		 mov	 ecx, DWORD PTR [eax]
  00008	50		 push	 eax
  00009	ff 51 08	 call	 DWORD PTR [ecx+8]
$LN3@CComPtr@5:
  0000c	c3		 ret	 0
??1?$CComPtr@UIAxWinAmbientDispatch@@@ATL@@QAE@XZ ENDP	; ATL::CComPtr<IAxWinAmbientDispatch>::~CComPtr<IAxWinAmbientDispatch>
_TEXT	ENDS
PUBLIC	??0?$CComPtr@UIWebBrowser2@@@ATL@@QAE@$$QAV01@@Z ; ATL::CComPtr<IWebBrowser2>::CComPtr<IWebBrowser2>
; Function compile flags: /Ogsp
; File c:\program files (x86)\microsoft visual studio 10.0\vc\atlmfc\include\atlcomcli.h
;	COMDAT ??0?$CComPtr@UIWebBrowser2@@@ATL@@QAE@$$QAV01@@Z
_TEXT	SEGMENT
_lp$ = 8						; size = 4
??0?$CComPtr@UIWebBrowser2@@@ATL@@QAE@$$QAV01@@Z PROC	; ATL::CComPtr<IWebBrowser2>::CComPtr<IWebBrowser2>, COMDAT
; _this$ = ecx

; 334  : 	{	

  00000	55		 push	 ebp
  00001	8b ec		 mov	 ebp, esp
  00003	8b c1		 mov	 eax, ecx
  00005	83 20 00	 and	 DWORD PTR [eax], 0

; 335  : 		p = lp.p;		

  00008	8b 4d 08	 mov	 ecx, DWORD PTR _lp$[ebp]
  0000b	8b 11		 mov	 edx, DWORD PTR [ecx]
  0000d	89 10		 mov	 DWORD PTR [eax], edx

; 336  : 		lp.p = NULL;

  0000f	83 21 00	 and	 DWORD PTR [ecx], 0

; 337  : 	}	

  00012	5d		 pop	 ebp
  00013	c2 04 00	 ret	 4
??0?$CComPtr@UIWebBrowser2@@@ATL@@QAE@$$QAV01@@Z ENDP	; ATL::CComPtr<IWebBrowser2>::CComPtr<IWebBrowser2>
_TEXT	ENDS
PUBLIC	??0?$CComPtr@UIHTMLDocument2@@@ATL@@QAE@PAUIHTMLDocument2@@@Z ; ATL::CComPtr<IHTMLDocument2>::CComPtr<IHTMLDocument2>
; Function compile flags: /Ogsp
;	COMDAT ??0?$CComPtr@UIHTMLDocument2@@@ATL@@QAE@PAUIHTMLDocument2@@@Z
_TEXT	SEGMENT
_lp$ = 8						; size = 4
??0?$CComPtr@UIHTMLDocument2@@@ATL@@QAE@PAUIHTMLDocument2@@@Z PROC ; ATL::CComPtr<IHTMLDocument2>::CComPtr<IHTMLDocument2>, COMDAT
; _this$ = ecx

; 301  : 	{

  00000	55		 push	 ebp
  00001	8b ec		 mov	 ebp, esp
  00003	8b 45 08	 mov	 eax, DWORD PTR _lp$[ebp]
  00006	56		 push	 esi
  00007	8b f1		 mov	 esi, ecx
  00009	89 06		 mov	 DWORD PTR [esi], eax
  0000b	85 c0		 test	 eax, eax
  0000d	74 06		 je	 SHORT $LN3@CComPtr@6
  0000f	8b 08		 mov	 ecx, DWORD PTR [eax]
  00011	50		 push	 eax
  00012	ff 51 04	 call	 DWORD PTR [ecx+4]
$LN3@CComPtr@6:

; 302  : 	}

  00015	8b c6		 mov	 eax, esi
  00017	5e		 pop	 esi
  00018	5d		 pop	 ebp
  00019	c2 04 00	 ret	 4
??0?$CComPtr@UIHTMLDocument2@@@ATL@@QAE@PAUIHTMLDocument2@@@Z ENDP ; ATL::CComPtr<IHTMLDocument2>::CComPtr<IHTMLDocument2>
_TEXT	ENDS
PUBLIC	??0?$CComPtr@UIHTMLElementCollection@@@ATL@@QAE@PAUIHTMLElementCollection@@@Z ; ATL::CComPtr<IHTMLElementCollection>::CComPtr<IHTMLElementCollection>
; Function compile flags: /Ogsp
;	COMDAT ??0?$CComPtr@UIHTMLElementCollection@@@ATL@@QAE@PAUIHTMLElementCollection@@@Z
_TEXT	SEGMENT
_lp$ = 8						; size = 4
??0?$CComPtr@UIHTMLElementCollection@@@ATL@@QAE@PAUIHTMLElementCollection@@@Z PROC ; ATL::CComPtr<IHTMLElementCollection>::CComPtr<IHTMLElementCollection>, COMDAT
; _this$ = ecx

; 301  : 	{

  00000	55		 push	 ebp
  00001	8b ec		 mov	 ebp, esp
  00003	8b 45 08	 mov	 eax, DWORD PTR _lp$[ebp]
  00006	56		 push	 esi
  00007	8b f1		 mov	 esi, ecx
  00009	89 06		 mov	 DWORD PTR [esi], eax
  0000b	85 c0		 test	 eax, eax
  0000d	74 06		 je	 SHORT $LN3@CComPtr@7
  0000f	8b 08		 mov	 ecx, DWORD PTR [eax]
  00011	50		 push	 eax
  00012	ff 51 04	 call	 DWORD PTR [ecx+4]
$LN3@CComPtr@7:

; 302  : 	}

  00015	8b c6		 mov	 eax, esi
  00017	5e		 pop	 esi
  00018	5d		 pop	 ebp
  00019	c2 04 00	 ret	 4
??0?$CComPtr@UIHTMLElementCollection@@@ATL@@QAE@PAUIHTMLElementCollection@@@Z ENDP ; ATL::CComPtr<IHTMLElementCollection>::CComPtr<IHTMLElementCollection>
_TEXT	ENDS
PUBLIC	??0?$CComPtr@UIHTMLElement@@@ATL@@QAE@PAUIHTMLElement@@@Z ; ATL::CComPtr<IHTMLElement>::CComPtr<IHTMLElement>
; Function compile flags: /Ogsp
;	COMDAT ??0?$CComPtr@UIHTMLElement@@@ATL@@QAE@PAUIHTMLElement@@@Z
_TEXT	SEGMENT
_lp$ = 8						; size = 4
??0?$CComPtr@UIHTMLElement@@@ATL@@QAE@PAUIHTMLElement@@@Z PROC ; ATL::CComPtr<IHTMLElement>::CComPtr<IHTMLElement>, COMDAT
; _this$ = ecx

; 301  : 	{

  00000	55		 push	 ebp
  00001	8b ec		 mov	 ebp, esp
  00003	8b 45 08	 mov	 eax, DWORD PTR _lp$[ebp]
  00006	56		 push	 esi
  00007	8b f1		 mov	 esi, ecx
  00009	89 06		 mov	 DWORD PTR [esi], eax
  0000b	85 c0		 test	 eax, eax
  0000d	74 06		 je	 SHORT $LN3@CComPtr@8
  0000f	8b 08		 mov	 ecx, DWORD PTR [eax]
  00011	50		 push	 eax
  00012	ff 51 04	 call	 DWORD PTR [ecx+4]
$LN3@CComPtr@8:

; 302  : 	}

  00015	8b c6		 mov	 eax, esi
  00017	5e		 pop	 esi
  00018	5d		 pop	 ebp
  00019	c2 04 00	 ret	 4
??0?$CComPtr@UIHTMLElement@@@ATL@@QAE@PAUIHTMLElement@@@Z ENDP ; ATL::CComPtr<IHTMLElement>::CComPtr<IHTMLElement>
_TEXT	ENDS
PUBLIC	??0?$CComPtr@UIHTMLBodyElement@@@ATL@@QAE@PAUIHTMLBodyElement@@@Z ; ATL::CComPtr<IHTMLBodyElement>::CComPtr<IHTMLBodyElement>
; Function compile flags: /Ogsp
;	COMDAT ??0?$CComPtr@UIHTMLBodyElement@@@ATL@@QAE@PAUIHTMLBodyElement@@@Z
_TEXT	SEGMENT
_lp$ = 8						; size = 4
??0?$CComPtr@UIHTMLBodyElement@@@ATL@@QAE@PAUIHTMLBodyElement@@@Z PROC ; ATL::CComPtr<IHTMLBodyElement>::CComPtr<IHTMLBodyElement>, COMDAT
; _this$ = ecx

; 301  : 	{

  00000	55		 push	 ebp
  00001	8b ec		 mov	 ebp, esp
  00003	8b 45 08	 mov	 eax, DWORD PTR _lp$[ebp]
  00006	56		 push	 esi
  00007	8b f1		 mov	 esi, ecx
  00009	89 06		 mov	 DWORD PTR [esi], eax
  0000b	85 c0		 test	 eax, eax
  0000d	74 06		 je	 SHORT $LN3@CComPtr@9
  0000f	8b 08		 mov	 ecx, DWORD PTR [eax]
  00011	50		 push	 eax
  00012	ff 51 04	 call	 DWORD PTR [ecx+4]
$LN3@CComPtr@9:

; 302  : 	}

  00015	8b c6		 mov	 eax, esi
  00017	5e		 pop	 esi
  00018	5d		 pop	 ebp
  00019	c2 04 00	 ret	 4
??0?$CComPtr@UIHTMLBodyElement@@@ATL@@QAE@PAUIHTMLBodyElement@@@Z ENDP ; ATL::CComPtr<IHTMLBodyElement>::CComPtr<IHTMLBodyElement>
_TEXT	ENDS
PUBLIC	?begin@?$vector@V?$basic_string@DU?$char_traits@D@std@@V?$allocator@D@2@@std@@V?$allocator@V?$basic_string@DU?$char_traits@D@std@@V?$allocator@D@2@@std@@@2@@std@@QBE?AV?$_Vector_const_iterator@V?$_Vector_val@V?$basic_string@DU?$char_traits@D@std@@V?$allocator@D@2@@std@@V?$allocator@V?$basic_string@DU?$char_traits@D@std@@V?$allocator@D@2@@std@@@2@@std@@@2@XZ ; std::vector<std::basic_string<char,std::char_traits<char>,std::allocator<char> >,std::allocator<std::basic_string<char,std::char_traits<char>,std::allocator<char> > > >::begin
; Function compile flags: /Ogsp
; File c:\program files (x86)\microsoft visual studio 10.0\vc\include\vector
;	COMDAT ?begin@?$vector@V?$basic_string@DU?$char_traits@D@std@@V?$allocator@D@2@@std@@V?$allocator@V?$basic_string@DU?$char_traits@D@std@@V?$allocator@D@2@@std@@@2@@std@@QBE?AV?$_Vector_const_iterator@V?$_Vector_val@V?$basic_string@DU?$char_traits@D@std@@V?$allocator@D@2@@std@@V?$allocator@V?$basic_string@DU?$char_traits@D@std@@V?$allocator@D@2@@std@@@2@@std@@@2@XZ
_TEXT	SEGMENT
___$ReturnUdt$ = 8					; size = 4
?begin@?$vector@V?$basic_string@DU?$char_traits@D@std@@V?$allocator@D@2@@std@@V?$allocator@V?$basic_string@DU?$char_traits@D@std@@V?$allocator@D@2@@std@@@2@@std@@QBE?AV?$_Vector_const_iterator@V?$_Vector_val@V?$basic_string@DU?$char_traits@D@std@@V?$allocator@D@2@@std@@V?$allocator@V?$basic_string@DU?$char_traits@D@std@@V?$allocator@D@2@@std@@@2@@std@@@2@XZ PROC ; std::vector<std::basic_string<char,std::char_traits<char>,std::allocator<char> >,std::allocator<std::basic_string<char,std::char_traits<char>,std::allocator<char> > > >::begin, COMDAT
; _this$ = ecx

; 786  : 		{	// return iterator for beginning of nonmutable sequence

  00000	55		 push	 ebp
  00001	8b ec		 mov	 ebp, esp

; 787  : 		return (const_iterator(this->_Myfirst, this));

  00003	8b 09		 mov	 ecx, DWORD PTR [ecx]
  00005	8b 45 08	 mov	 eax, DWORD PTR ___$ReturnUdt$[ebp]
  00008	89 08		 mov	 DWORD PTR [eax], ecx

; 788  : 		}

  0000a	5d		 pop	 ebp
  0000b	c2 04 00	 ret	 4
?begin@?$vector@V?$basic_string@DU?$char_traits@D@std@@V?$allocator@D@2@@std@@V?$allocator@V?$basic_string@DU?$char_traits@D@std@@V?$allocator@D@2@@std@@@2@@std@@QBE?AV?$_Vector_const_iterator@V?$_Vector_val@V?$basic_string@DU?$char_traits@D@std@@V?$allocator@D@2@@std@@V?$allocator@V?$basic_string@DU?$char_traits@D@std@@V?$allocator@D@2@@std@@@2@@std@@@2@XZ ENDP ; std::vector<std::basic_string<char,std::char_traits<char>,std::allocator<char> >,std::allocator<std::basic_string<char,std::char_traits<char>,std::allocator<char> > > >::begin
_TEXT	ENDS
PUBLIC	?end@?$vector@V?$basic_string@DU?$char_traits@D@std@@V?$allocator@D@2@@std@@V?$allocator@V?$basic_string@DU?$char_traits@D@std@@V?$allocator@D@2@@std@@@2@@std@@QBE?AV?$_Vector_const_iterator@V?$_Vector_val@V?$basic_string@DU?$char_traits@D@std@@V?$allocator@D@2@@std@@V?$allocator@V?$basic_string@DU?$char_traits@D@std@@V?$allocator@D@2@@std@@@2@@std@@@2@XZ ; std::vector<std::basic_string<char,std::char_traits<char>,std::allocator<char> >,std::allocator<std::basic_string<char,std::char_traits<char>,std::allocator<char> > > >::end
; Function compile flags: /Ogsp
;	COMDAT ?end@?$vector@V?$basic_string@DU?$char_traits@D@std@@V?$allocator@D@2@@std@@V?$allocator@V?$basic_string@DU?$char_traits@D@std@@V?$allocator@D@2@@std@@@2@@std@@QBE?AV?$_Vector_const_iterator@V?$_Vector_val@V?$basic_string@DU?$char_traits@D@std@@V?$allocator@D@2@@std@@V?$allocator@V?$basic_string@DU?$char_traits@D@std@@V?$allocator@D@2@@std@@@2@@std@@@2@XZ
_TEXT	SEGMENT
___$ReturnUdt$ = 8					; size = 4
?end@?$vector@V?$basic_string@DU?$char_traits@D@std@@V?$allocator@D@2@@std@@V?$allocator@V?$basic_string@DU?$char_traits@D@std@@V?$allocator@D@2@@std@@@2@@std@@QBE?AV?$_Vector_const_iterator@V?$_Vector_val@V?$basic_string@DU?$char_traits@D@std@@V?$allocator@D@2@@std@@V?$allocator@V?$basic_string@DU?$char_traits@D@std@@V?$allocator@D@2@@std@@@2@@std@@@2@XZ PROC ; std::vector<std::basic_string<char,std::char_traits<char>,std::allocator<char> >,std::allocator<std::basic_string<char,std::char_traits<char>,std::allocator<char> > > >::end, COMDAT
; _this$ = ecx

; 796  : 		{	// return iterator for end of nonmutable sequence

  00000	55		 push	 ebp
  00001	8b ec		 mov	 ebp, esp

; 797  : 		return (const_iterator(this->_Mylast, this));

  00003	8b 49 04	 mov	 ecx, DWORD PTR [ecx+4]
  00006	8b 45 08	 mov	 eax, DWORD PTR ___$ReturnUdt$[ebp]
  00009	89 08		 mov	 DWORD PTR [eax], ecx

; 798  : 		}

  0000b	5d		 pop	 ebp
  0000c	c2 04 00	 ret	 4
?end@?$vector@V?$basic_string@DU?$char_traits@D@std@@V?$allocator@D@2@@std@@V?$allocator@V?$basic_string@DU?$char_traits@D@std@@V?$allocator@D@2@@std@@@2@@std@@QBE?AV?$_Vector_const_iterator@V?$_Vector_val@V?$basic_string@DU?$char_traits@D@std@@V?$allocator@D@2@@std@@V?$allocator@V?$basic_string@DU?$char_traits@D@std@@V?$allocator@D@2@@std@@@2@@std@@@2@XZ ENDP ; std::vector<std::basic_string<char,std::char_traits<char>,std::allocator<char> >,std::allocator<std::basic_string<char,std::char_traits<char>,std::allocator<char> > > >::end
_TEXT	ENDS
PUBLIC	??0?$_Vector_val@V?$basic_string@DU?$char_traits@D@std@@V?$allocator@D@2@@std@@V?$allocator@V?$basic_string@DU?$char_traits@D@std@@V?$allocator@D@2@@std@@@2@@std@@QAE@V?$allocator@V?$basic_string@DU?$char_traits@D@std@@V?$allocator@D@2@@std@@@1@@Z ; std::_Vector_val<std::basic_string<char,std::char_traits<char>,std::allocator<char> >,std::allocator<std::basic_string<char,std::char_traits<char>,std::allocator<char> > > >::_Vector_val<std::basic_string<char,std::char_traits<char>,std::allocator<char> >,std::allocator<std::basic_string<char,std::char_traits<char>,std::allocator<char> > > >
; Function compile flags: /Ogsp
;	COMDAT ??0?$_Vector_val@V?$basic_string@DU?$char_traits@D@std@@V?$allocator@D@2@@std@@V?$allocator@V?$basic_string@DU?$char_traits@D@std@@V?$allocator@D@2@@std@@@2@@std@@QAE@V?$allocator@V?$basic_string@DU?$char_traits@D@std@@V?$allocator@D@2@@std@@@1@@Z
_TEXT	SEGMENT
__Al$ = 8						; size = 1
??0?$_Vector_val@V?$basic_string@DU?$char_traits@D@std@@V?$allocator@D@2@@std@@V?$allocator@V?$basic_string@DU?$char_traits@D@std@@V?$allocator@D@2@@std@@@2@@std@@QAE@V?$allocator@V?$basic_string@DU?$char_traits@D@std@@V?$allocator@D@2@@std@@@1@@Z PROC ; std::_Vector_val<std::basic_string<char,std::char_traits<char>,std::allocator<char> >,std::allocator<std::basic_string<char,std::char_traits<char>,std::allocator<char> > > >::_Vector_val<std::basic_string<char,std::char_traits<char>,std::allocator<char> >,std::allocator<std::basic_string<char,std::char_traits<char>,std::allocator<char> > > >, COMDAT
; _this$ = ecx

; 426  : 		{	// construct allocator from _Al

  00000	8b c1		 mov	 eax, ecx

; 427  : 		_Myfirst = 0;

  00002	33 c9		 xor	 ecx, ecx
  00004	89 08		 mov	 DWORD PTR [eax], ecx

; 428  : 		_Mylast = 0;

  00006	89 48 04	 mov	 DWORD PTR [eax+4], ecx

; 429  : 		_Myend = 0;

  00009	89 48 08	 mov	 DWORD PTR [eax+8], ecx

; 430  : 		}

  0000c	c2 04 00	 ret	 4
??0?$_Vector_val@V?$basic_string@DU?$char_traits@D@std@@V?$allocator@D@2@@std@@V?$allocator@V?$basic_string@DU?$char_traits@D@std@@V?$allocator@D@2@@std@@@2@@std@@QAE@V?$allocator@V?$basic_string@DU?$char_traits@D@std@@V?$allocator@D@2@@std@@@1@@Z ENDP ; std::_Vector_val<std::basic_string<char,std::char_traits<char>,std::allocator<char> >,std::allocator<std::basic_string<char,std::char_traits<char>,std::allocator<char> > > >::_Vector_val<std::basic_string<char,std::char_traits<char>,std::allocator<char> >,std::allocator<std::basic_string<char,std::char_traits<char>,std::allocator<char> > > >
_TEXT	ENDS
PUBLIC	??0?$CComPtr@UIAxWinAmbientDispatch@@@ATL@@QAE@XZ ; ATL::CComPtr<IAxWinAmbientDispatch>::CComPtr<IAxWinAmbientDispatch>
; Function compile flags: /Ogsp
; File c:\program files (x86)\microsoft visual studio 10.0\vc\atlmfc\include\atlcomcli.h
;	COMDAT ??0?$CComPtr@UIAxWinAmbientDispatch@@@ATL@@QAE@XZ
_TEXT	SEGMENT
??0?$CComPtr@UIAxWinAmbientDispatch@@@ATL@@QAE@XZ PROC	; ATL::CComPtr<IAxWinAmbientDispatch>::CComPtr<IAxWinAmbientDispatch>, COMDAT
; _this$ = ecx

; 296  : 	CComPtr() throw()

  00000	8b c1		 mov	 eax, ecx
  00002	83 20 00	 and	 DWORD PTR [eax], 0

; 297  : 	{
; 298  : 	}

  00005	c3		 ret	 0
??0?$CComPtr@UIAxWinAmbientDispatch@@@ATL@@QAE@XZ ENDP	; ATL::CComPtr<IAxWinAmbientDispatch>::CComPtr<IAxWinAmbientDispatch>
_TEXT	ENDS
PUBLIC	?max_size@?$vector@V?$basic_string@DU?$char_traits@D@std@@V?$allocator@D@2@@std@@V?$allocator@V?$basic_string@DU?$char_traits@D@std@@V?$allocator@D@2@@std@@@2@@std@@QBEIXZ ; std::vector<std::basic_string<char,std::char_traits<char>,std::allocator<char> >,std::allocator<std::basic_string<char,std::char_traits<char>,std::allocator<char> > > >::max_size
; Function compile flags: /Ogsp
; File c:\program files (x86)\microsoft visual studio 10.0\vc\include\vector
;	COMDAT ?max_size@?$vector@V?$basic_string@DU?$char_traits@D@std@@V?$allocator@D@2@@std@@V?$allocator@V?$basic_string@DU?$char_traits@D@std@@V?$allocator@D@2@@std@@@2@@std@@QBEIXZ
_TEXT	SEGMENT
?max_size@?$vector@V?$basic_string@DU?$char_traits@D@std@@V?$allocator@D@2@@std@@V?$allocator@V?$basic_string@DU?$char_traits@D@std@@V?$allocator@D@2@@std@@@2@@std@@QBEIXZ PROC ; std::vector<std::basic_string<char,std::char_traits<char>,std::allocator<char> >,std::allocator<std::basic_string<char,std::char_traits<char>,std::allocator<char> > > >::max_size, COMDAT
; _this$ = ecx

; 884  : 		return (this->_Alval.max_size());

  00000	b8 49 92 24 09	 mov	 eax, 153391689		; 09249249H

; 885  : 		}

  00005	c3		 ret	 0
?max_size@?$vector@V?$basic_string@DU?$char_traits@D@std@@V?$allocator@D@2@@std@@V?$allocator@V?$basic_string@DU?$char_traits@D@std@@V?$allocator@D@2@@std@@@2@@std@@QBEIXZ ENDP ; std::vector<std::basic_string<char,std::char_traits<char>,std::allocator<char> >,std::allocator<std::basic_string<char,std::char_traits<char>,std::allocator<char> > > >::max_size
_TEXT	ENDS
PUBLIC	?allocate@?$allocator@V?$basic_string@DU?$char_traits@D@std@@V?$allocator@D@2@@std@@@std@@QAEPAV?$basic_string@DU?$char_traits@D@std@@V?$allocator@D@2@@2@I@Z ; std::allocator<std::basic_string<char,std::char_traits<char>,std::allocator<char> > >::allocate
; Function compile flags: /Ogsp
; File c:\program files (x86)\microsoft visual studio 10.0\vc\include\xmemory
;	COMDAT ?allocate@?$allocator@V?$basic_string@DU?$char_traits@D@std@@V?$allocator@D@2@@std@@@std@@QAEPAV?$basic_string@DU?$char_traits@D@std@@V?$allocator@D@2@@2@I@Z
_TEXT	SEGMENT
__Count$ = 8						; size = 4
?allocate@?$allocator@V?$basic_string@DU?$char_traits@D@std@@V?$allocator@D@2@@std@@@std@@QAEPAV?$basic_string@DU?$char_traits@D@std@@V?$allocator@D@2@@2@I@Z PROC ; std::allocator<std::basic_string<char,std::char_traits<char>,std::allocator<char> > >::allocate, COMDAT
; _this$ = ecx

; 186  : 		{	// allocate array of _Count elements

  00000	55		 push	 ebp
  00001	8b ec		 mov	 ebp, esp

; 187  : 		return (_Allocate(_Count, (pointer)0));

  00003	6a 00		 push	 0
  00005	ff 75 08	 push	 DWORD PTR __Count$[ebp]
  00008	e8 00 00 00 00	 call	 ??$_Allocate@V?$basic_string@DU?$char_traits@D@std@@V?$allocator@D@2@@std@@@std@@YAPAV?$basic_string@DU?$char_traits@D@std@@V?$allocator@D@2@@0@IPAV10@@Z ; std::_Allocate<std::basic_string<char,std::char_traits<char>,std::allocator<char> > >
  0000d	59		 pop	 ecx
  0000e	59		 pop	 ecx

; 188  : 		}

  0000f	5d		 pop	 ebp
  00010	c2 04 00	 ret	 4
?allocate@?$allocator@V?$basic_string@DU?$char_traits@D@std@@V?$allocator@D@2@@std@@@std@@QAEPAV?$basic_string@DU?$char_traits@D@std@@V?$allocator@D@2@@2@I@Z ENDP ; std::allocator<std::basic_string<char,std::char_traits<char>,std::allocator<char> > >::allocate
_TEXT	ENDS
PUBLIC	??8?$_Vector_const_iterator@V?$_Vector_val@V?$basic_string@DU?$char_traits@D@std@@V?$allocator@D@2@@std@@V?$allocator@V?$basic_string@DU?$char_traits@D@std@@V?$allocator@D@2@@std@@@2@@std@@@std@@QBE_NABV01@@Z ; std::_Vector_const_iterator<std::_Vector_val<std::basic_string<char,std::char_traits<char>,std::allocator<char> >,std::allocator<std::basic_string<char,std::char_traits<char>,std::allocator<char> > > > >::operator==
; Function compile flags: /Ogsp
; File c:\program files (x86)\microsoft visual studio 10.0\vc\include\vector
;	COMDAT ??8?$_Vector_const_iterator@V?$_Vector_val@V?$basic_string@DU?$char_traits@D@std@@V?$allocator@D@2@@std@@V?$allocator@V?$basic_string@DU?$char_traits@D@std@@V?$allocator@D@2@@std@@@2@@std@@@std@@QBE_NABV01@@Z
_TEXT	SEGMENT
__Right$ = 8						; size = 4
??8?$_Vector_const_iterator@V?$_Vector_val@V?$basic_string@DU?$char_traits@D@std@@V?$allocator@D@2@@std@@V?$allocator@V?$basic_string@DU?$char_traits@D@std@@V?$allocator@D@2@@std@@@2@@std@@@std@@QBE_NABV01@@Z PROC ; std::_Vector_const_iterator<std::_Vector_val<std::basic_string<char,std::char_traits<char>,std::allocator<char> >,std::allocator<std::basic_string<char,std::char_traits<char>,std::allocator<char> > > > >::operator==, COMDAT
; _this$ = ecx

; 201  : 		{	// test for iterator equality

  00000	55		 push	 ebp
  00001	8b ec		 mov	 ebp, esp

; 202  : 		_Compat(_Right);
; 203  : 		return (this->_Ptr == _Right._Ptr);

  00003	8b 01		 mov	 eax, DWORD PTR [ecx]
  00005	8b 4d 08	 mov	 ecx, DWORD PTR __Right$[ebp]
  00008	2b 01		 sub	 eax, DWORD PTR [ecx]
  0000a	f7 d8		 neg	 eax
  0000c	1b c0		 sbb	 eax, eax
  0000e	40		 inc	 eax

; 204  : 		}

  0000f	5d		 pop	 ebp
  00010	c2 04 00	 ret	 4
??8?$_Vector_const_iterator@V?$_Vector_val@V?$basic_string@DU?$char_traits@D@std@@V?$allocator@D@2@@std@@V?$allocator@V?$basic_string@DU?$char_traits@D@std@@V?$allocator@D@2@@std@@@2@@std@@@std@@QBE_NABV01@@Z ENDP ; std::_Vector_const_iterator<std::_Vector_val<std::basic_string<char,std::char_traits<char>,std::allocator<char> >,std::allocator<std::basic_string<char,std::char_traits<char>,std::allocator<char> > > > >::operator==
_TEXT	ENDS
PUBLIC	??0?$CComPtr@UIDispatch@@@ATL@@QAE@PAUIDispatch@@@Z ; ATL::CComPtr<IDispatch>::CComPtr<IDispatch>
; Function compile flags: /Ogsp
; File c:\program files (x86)\microsoft visual studio 10.0\vc\atlmfc\include\atlcomcli.h
;	COMDAT ??0?$CComPtr@UIDispatch@@@ATL@@QAE@PAUIDispatch@@@Z
_TEXT	SEGMENT
_lp$ = 8						; size = 4
??0?$CComPtr@UIDispatch@@@ATL@@QAE@PAUIDispatch@@@Z PROC ; ATL::CComPtr<IDispatch>::CComPtr<IDispatch>, COMDAT
; _this$ = ecx

; 363  : 	{

  00000	55		 push	 ebp
  00001	8b ec		 mov	 ebp, esp
  00003	8b 45 08	 mov	 eax, DWORD PTR _lp$[ebp]
  00006	56		 push	 esi
  00007	8b f1		 mov	 esi, ecx
  00009	89 06		 mov	 DWORD PTR [esi], eax
  0000b	85 c0		 test	 eax, eax
  0000d	74 06		 je	 SHORT $LN3@CComPtr@10
  0000f	8b 08		 mov	 ecx, DWORD PTR [eax]
  00011	50		 push	 eax
  00012	ff 51 04	 call	 DWORD PTR [ecx+4]
$LN3@CComPtr@10:

; 364  : 	}

  00015	8b c6		 mov	 eax, esi
  00017	5e		 pop	 esi
  00018	5d		 pop	 ebp
  00019	c2 04 00	 ret	 4
??0?$CComPtr@UIDispatch@@@ATL@@QAE@PAUIDispatch@@@Z ENDP ; ATL::CComPtr<IDispatch>::CComPtr<IDispatch>
_TEXT	ENDS
PUBLIC	??1?$CComPtr@UIUnknown@@@ATL@@QAE@XZ		; ATL::CComPtr<IUnknown>::~CComPtr<IUnknown>
; Function compile flags: /Ogsp
;	COMDAT ??1?$CComPtr@UIUnknown@@@ATL@@QAE@XZ
_TEXT	SEGMENT
??1?$CComPtr@UIUnknown@@@ATL@@QAE@XZ PROC		; ATL::CComPtr<IUnknown>::~CComPtr<IUnknown>, COMDAT
; _this$ = ecx
  00000	8b 01		 mov	 eax, DWORD PTR [ecx]
  00002	85 c0		 test	 eax, eax
  00004	74 06		 je	 SHORT $LN3@CComPtr@11
  00006	8b 08		 mov	 ecx, DWORD PTR [eax]
  00008	50		 push	 eax
  00009	ff 51 08	 call	 DWORD PTR [ecx+8]
$LN3@CComPtr@11:
  0000c	c3		 ret	 0
??1?$CComPtr@UIUnknown@@@ATL@@QAE@XZ ENDP		; ATL::CComPtr<IUnknown>::~CComPtr<IUnknown>
_TEXT	ENDS
PUBLIC	??1CComVariant@ATL@@QAE@XZ			; ATL::CComVariant::~CComVariant
; Function compile flags: /Ogsp
;	COMDAT ??1CComVariant@ATL@@QAE@XZ
_TEXT	SEGMENT
??1CComVariant@ATL@@QAE@XZ PROC				; ATL::CComVariant::~CComVariant, COMDAT
; _this$ = ecx

; 2099 : 		HRESULT hr = Clear();

  00000	51		 push	 ecx
  00001	ff 15 00 00 00
	00		 call	 DWORD PTR __imp__VariantClear@4

; 2100 : 		ATLASSERT(SUCCEEDED(hr));
; 2101 : 		(hr);
; 2102 : 	}

  00007	c3		 ret	 0
??1CComVariant@ATL@@QAE@XZ ENDP				; ATL::CComVariant::~CComVariant
_TEXT	ENDS
PUBLIC	??1?$CComPtr@UIDispatch@@@ATL@@QAE@XZ		; ATL::CComPtr<IDispatch>::~CComPtr<IDispatch>
; Function compile flags: /Ogsp
;	COMDAT ??1?$CComPtr@UIDispatch@@@ATL@@QAE@XZ
_TEXT	SEGMENT
??1?$CComPtr@UIDispatch@@@ATL@@QAE@XZ PROC		; ATL::CComPtr<IDispatch>::~CComPtr<IDispatch>, COMDAT
; _this$ = ecx
  00000	8b 01		 mov	 eax, DWORD PTR [ecx]
  00002	85 c0		 test	 eax, eax
  00004	74 06		 je	 SHORT $LN3@CComPtr@12
  00006	8b 08		 mov	 ecx, DWORD PTR [eax]
  00008	50		 push	 eax
  00009	ff 51 08	 call	 DWORD PTR [ecx+8]
$LN3@CComPtr@12:
  0000c	c3		 ret	 0
??1?$CComPtr@UIDispatch@@@ATL@@QAE@XZ ENDP		; ATL::CComPtr<IDispatch>::~CComPtr<IDispatch>
_TEXT	ENDS
PUBLIC	??1?$CComPtr@UIWebBrowser2@@@ATL@@QAE@XZ	; ATL::CComPtr<IWebBrowser2>::~CComPtr<IWebBrowser2>
; Function compile flags: /Ogsp
;	COMDAT ??1?$CComPtr@UIWebBrowser2@@@ATL@@QAE@XZ
_TEXT	SEGMENT
??1?$CComPtr@UIWebBrowser2@@@ATL@@QAE@XZ PROC		; ATL::CComPtr<IWebBrowser2>::~CComPtr<IWebBrowser2>, COMDAT
; _this$ = ecx
  00000	8b 01		 mov	 eax, DWORD PTR [ecx]
  00002	85 c0		 test	 eax, eax
  00004	74 06		 je	 SHORT $LN3@CComPtr@13
  00006	8b 08		 mov	 ecx, DWORD PTR [eax]
  00008	50		 push	 eax
  00009	ff 51 08	 call	 DWORD PTR [ecx+8]
$LN3@CComPtr@13:
  0000c	c3		 ret	 0
??1?$CComPtr@UIWebBrowser2@@@ATL@@QAE@XZ ENDP		; ATL::CComPtr<IWebBrowser2>::~CComPtr<IWebBrowser2>
_TEXT	ENDS
PUBLIC	?c_str@?$basic_string@DU?$char_traits@D@std@@V?$allocator@D@2@@std@@QBEPBDXZ ; std::basic_string<char,std::char_traits<char>,std::allocator<char> >::c_str
; Function compile flags: /Ogsp
; File c:\program files (x86)\microsoft visual studio 10.0\vc\include\xstring
;	COMDAT ?c_str@?$basic_string@DU?$char_traits@D@std@@V?$allocator@D@2@@std@@QBEPBDXZ
_TEXT	SEGMENT
?c_str@?$basic_string@DU?$char_traits@D@std@@V?$allocator@D@2@@std@@QBEPBDXZ PROC ; std::basic_string<char,std::char_traits<char>,std::allocator<char> >::c_str, COMDAT
; _this$ = ecx

; 1497 : 		return (_Myptr());

  00000	83 79 14 10	 cmp	 DWORD PTR [ecx+20], 16	; 00000010H
  00004	72 03		 jb	 SHORT $LN5@c_str
  00006	8b 01		 mov	 eax, DWORD PTR [ecx]

; 1498 : 		}

  00008	c3		 ret	 0

; 1497 : 		return (_Myptr());

$LN5@c_str:
  00009	8b c1		 mov	 eax, ecx

; 1498 : 		}

  0000b	c3		 ret	 0
?c_str@?$basic_string@DU?$char_traits@D@std@@V?$allocator@D@2@@std@@QBEPBDXZ ENDP ; std::basic_string<char,std::char_traits<char>,std::allocator<char> >::c_str
_TEXT	ENDS
PUBLIC	??0?$CComPtr@UIUnknown@@@ATL@@QAE@XZ		; ATL::CComPtr<IUnknown>::CComPtr<IUnknown>
; Function compile flags: /Ogsp
; File c:\program files (x86)\microsoft visual studio 10.0\vc\atlmfc\include\atlcomcli.h
;	COMDAT ??0?$CComPtr@UIUnknown@@@ATL@@QAE@XZ
_TEXT	SEGMENT
??0?$CComPtr@UIUnknown@@@ATL@@QAE@XZ PROC		; ATL::CComPtr<IUnknown>::CComPtr<IUnknown>, COMDAT
; _this$ = ecx

; 296  : 	CComPtr() throw()

  00000	8b c1		 mov	 eax, ecx
  00002	83 20 00	 and	 DWORD PTR [eax], 0

; 297  : 	{
; 298  : 	}

  00005	c3		 ret	 0
??0?$CComPtr@UIUnknown@@@ATL@@QAE@XZ ENDP		; ATL::CComPtr<IUnknown>::CComPtr<IUnknown>
_TEXT	ENDS
PUBLIC	??0?$CComPtr@UIWebBrowser2@@@ATL@@QAE@XZ	; ATL::CComPtr<IWebBrowser2>::CComPtr<IWebBrowser2>
; Function compile flags: /Ogsp
;	COMDAT ??0?$CComPtr@UIWebBrowser2@@@ATL@@QAE@XZ
_TEXT	SEGMENT
??0?$CComPtr@UIWebBrowser2@@@ATL@@QAE@XZ PROC		; ATL::CComPtr<IWebBrowser2>::CComPtr<IWebBrowser2>, COMDAT
; _this$ = ecx

; 296  : 	CComPtr() throw()

  00000	8b c1		 mov	 eax, ecx
  00002	83 20 00	 and	 DWORD PTR [eax], 0

; 297  : 	{
; 298  : 	}

  00005	c3		 ret	 0
??0?$CComPtr@UIWebBrowser2@@@ATL@@QAE@XZ ENDP		; ATL::CComPtr<IWebBrowser2>::CComPtr<IWebBrowser2>
_TEXT	ENDS
PUBLIC	?compare@?$basic_string@DU?$char_traits@D@std@@V?$allocator@D@2@@std@@QBEHIIPBDI@Z ; std::basic_string<char,std::char_traits<char>,std::allocator<char> >::compare
; Function compile flags: /Ogsp
; File c:\program files (x86)\microsoft visual studio 10.0\vc\include\xstring
;	COMDAT ?compare@?$basic_string@DU?$char_traits@D@std@@V?$allocator@D@2@@std@@QBEHIIPBDI@Z
_TEXT	SEGMENT
__Off$ = 8						; size = 4
__N0$ = 12						; size = 4
__Ptr$ = 16						; size = 4
__Count$ = 20						; size = 4
?compare@?$basic_string@DU?$char_traits@D@std@@V?$allocator@D@2@@std@@QBEHIIPBDI@Z PROC ; std::basic_string<char,std::char_traits<char>,std::allocator<char> >::compare, COMDAT
; _this$ = ecx

; 1888 : 		{	// compare [_Off, _Off + _N0) with [_Ptr, _Ptr + _Count)

  00000	55		 push	 ebp
  00001	8b ec		 mov	 ebp, esp
  00003	53		 push	 ebx
  00004	8b c1		 mov	 eax, ecx

; 1889 :  #if _ITERATOR_DEBUG_LEVEL == 2
; 1890 : 		if (_Count != 0)
; 1891 : 			_DEBUG_POINTER(_Ptr);
; 1892 :  #endif /* _ITERATOR_DEBUG_LEVEL == 2 */
; 1893 : 
; 1894 : 		if (this->_Mysize < _Off)

  00006	8b 50 10	 mov	 edx, DWORD PTR [eax+16]
  00009	56		 push	 esi
  0000a	8b 75 08	 mov	 esi, DWORD PTR __Off$[ebp]
  0000d	3b d6		 cmp	 edx, esi
  0000f	73 0b		 jae	 SHORT $LN2@compare@2

; 1895 : 			_Xran();	// _Off off end

  00011	68 00 00 00 00	 push	 OFFSET ??_C@_0BI@CFPLBAOH@invalid?5string?5position?$AA@
  00016	ff 15 00 00 00
	00		 call	 DWORD PTR __imp_?_Xout_of_range@std@@YAXPBD@Z
$LN22@compare@2:
$LN2@compare@2:

; 1896 : 		if (this->_Mysize - _Off < _N0)

  0001c	8b 5d 0c	 mov	 ebx, DWORD PTR __N0$[ebp]
  0001f	2b d6		 sub	 edx, esi
  00021	3b d3		 cmp	 edx, ebx

; 1897 : 			_N0 = this->_Mysize - _Off;	// trim _N0 to size

  00023	0f 42 da	 cmovb	 ebx, edx

; 1898 : 
; 1899 : 		size_type _Ans = _Traits::compare(_Myptr() + _Off, _Ptr,
; 1900 : 			_N0 < _Count ? _N0 : _Count);

  00026	8b 55 14	 mov	 edx, DWORD PTR __Count$[ebp]
  00029	3b da		 cmp	 ebx, edx
  0002b	8b cb		 mov	 ecx, ebx
  0002d	0f 43 ca	 cmovae	 ecx, edx
  00030	83 78 14 10	 cmp	 DWORD PTR [eax+20], 16	; 00000010H
  00034	72 02		 jb	 SHORT $LN16@compare@2
  00036	8b 00		 mov	 eax, DWORD PTR [eax]
$LN16@compare@2:
  00038	57		 push	 edi
  00039	8b 7d 10	 mov	 edi, DWORD PTR __Ptr$[ebp]
  0003c	03 f0		 add	 esi, eax
  0003e	33 c0		 xor	 eax, eax
  00040	f3 a6		 repe cmpsb
  00042	5f		 pop	 edi
  00043	74 05		 je	 SHORT $LN20@compare@2
  00045	1b c0		 sbb	 eax, eax
  00047	83 d8 ff	 sbb	 eax, -1
$LN20@compare@2:

; 1901 : 		return (_Ans != 0 ? (int)_Ans : _N0 < _Count ? -1
; 1902 : 			: _N0 == _Count ? 0 : +1);

  0004a	85 c0		 test	 eax, eax
  0004c	75 10		 jne	 SHORT $LN8@compare@2
  0004e	3b da		 cmp	 ebx, edx
  00050	73 05		 jae	 SHORT $LN7@compare@2
  00052	83 c8 ff	 or	 eax, -1
  00055	eb 07		 jmp	 SHORT $LN8@compare@2
$LN7@compare@2:
  00057	33 c0		 xor	 eax, eax
  00059	3b da		 cmp	 ebx, edx
  0005b	0f 95 c0	 setne	 al
$LN8@compare@2:
  0005e	5e		 pop	 esi
  0005f	5b		 pop	 ebx

; 1903 : 		}

  00060	5d		 pop	 ebp
  00061	c2 10 00	 ret	 16			; 00000010H
$LN21@compare@2:
?compare@?$basic_string@DU?$char_traits@D@std@@V?$allocator@D@2@@std@@QBEHIIPBDI@Z ENDP ; std::basic_string<char,std::char_traits<char>,std::allocator<char> >::compare
_TEXT	ENDS
PUBLIC	??0?$_String_val@DV?$allocator@D@std@@@std@@QAE@V?$allocator@D@1@@Z ; std::_String_val<char,std::allocator<char> >::_String_val<char,std::allocator<char> >
; Function compile flags: /Ogsp
;	COMDAT ??0?$_String_val@DV?$allocator@D@std@@@std@@QAE@V?$allocator@D@1@@Z
_TEXT	SEGMENT
__Al$ = 8						; size = 1
??0?$_String_val@DV?$allocator@D@std@@@std@@QAE@V?$allocator@D@1@@Z PROC ; std::_String_val<char,std::allocator<char> >::_String_val<char,std::allocator<char> >, COMDAT
; _this$ = ecx

; 454  : 		{	// construct allocator from _Al

  00000	8b c1		 mov	 eax, ecx

; 455  : 		}

  00002	c2 04 00	 ret	 4
??0?$_String_val@DV?$allocator@D@std@@@std@@QAE@V?$allocator@D@1@@Z ENDP ; std::_String_val<char,std::allocator<char> >::_String_val<char,std::allocator<char> >
_TEXT	ENDS
PUBLIC	?_Eos@?$basic_string@DU?$char_traits@D@std@@V?$allocator@D@2@@std@@QAEXI@Z ; std::basic_string<char,std::char_traits<char>,std::allocator<char> >::_Eos
; Function compile flags: /Ogsp
;	COMDAT ?_Eos@?$basic_string@DU?$char_traits@D@std@@V?$allocator@D@2@@std@@QAEXI@Z
_TEXT	SEGMENT
__Newsize$ = 8						; size = 4
?_Eos@?$basic_string@DU?$char_traits@D@std@@V?$allocator@D@2@@std@@QAEXI@Z PROC ; std::basic_string<char,std::char_traits<char>,std::allocator<char> >::_Eos, COMDAT
; _this$ = ecx

; 1953 : 		{	// set new length and null terminator

  00000	55		 push	 ebp
  00001	8b ec		 mov	 ebp, esp

; 1954 : 		_Traits::assign(_Myptr()[this->_Mysize = _Newsize], _Elem());

  00003	83 79 14 10	 cmp	 DWORD PTR [ecx+20], 16	; 00000010H
  00007	8b 45 08	 mov	 eax, DWORD PTR __Newsize$[ebp]
  0000a	89 41 10	 mov	 DWORD PTR [ecx+16], eax
  0000d	72 02		 jb	 SHORT $LN5@Eos
  0000f	8b 09		 mov	 ecx, DWORD PTR [ecx]
$LN5@Eos:
  00011	c6 04 01 00	 mov	 BYTE PTR [ecx+eax], 0

; 1955 : 		}

  00015	5d		 pop	 ebp
  00016	c2 04 00	 ret	 4
?_Eos@?$basic_string@DU?$char_traits@D@std@@V?$allocator@D@2@@std@@QAEXI@Z ENDP ; std::basic_string<char,std::char_traits<char>,std::allocator<char> >::_Eos
_TEXT	ENDS
PUBLIC	?max_size@?$basic_string@DU?$char_traits@D@std@@V?$allocator@D@2@@std@@QBEIXZ ; std::basic_string<char,std::char_traits<char>,std::allocator<char> >::max_size
; Function compile flags: /Ogsp
;	COMDAT ?max_size@?$basic_string@DU?$char_traits@D@std@@V?$allocator@D@2@@std@@QBEIXZ
_TEXT	SEGMENT
?max_size@?$basic_string@DU?$char_traits@D@std@@V?$allocator@D@2@@std@@QBEIXZ PROC ; std::basic_string<char,std::char_traits<char>,std::allocator<char> >::max_size, COMDAT
; _this$ = ecx

; 1517 : 		size_type _Num = this->_Alval.max_size();
; 1518 : 		return (_Num <= 1 ? 1 : _Num - 1);

  00000	6a fe		 push	 -2			; fffffffeH
  00002	58		 pop	 eax

; 1519 : 		}

  00003	c3		 ret	 0
?max_size@?$basic_string@DU?$char_traits@D@std@@V?$allocator@D@2@@std@@QBEIXZ ENDP ; std::basic_string<char,std::char_traits<char>,std::allocator<char> >::max_size
_TEXT	ENDS
PUBLIC	?allocate@?$allocator@D@std@@QAEPADI@Z		; std::allocator<char>::allocate
; Function compile flags: /Ogsp
; File c:\program files (x86)\microsoft visual studio 10.0\vc\include\xmemory
;	COMDAT ?allocate@?$allocator@D@std@@QAEPADI@Z
_TEXT	SEGMENT
__Count$ = 8						; size = 4
?allocate@?$allocator@D@std@@QAEPADI@Z PROC		; std::allocator<char>::allocate, COMDAT
; _this$ = ecx

; 186  : 		{	// allocate array of _Count elements

  00000	55		 push	 ebp
  00001	8b ec		 mov	 ebp, esp

; 187  : 		return (_Allocate(_Count, (pointer)0));

  00003	6a 00		 push	 0
  00005	ff 75 08	 push	 DWORD PTR __Count$[ebp]
  00008	e8 00 00 00 00	 call	 ??$_Allocate@D@std@@YAPADIPAD@Z ; std::_Allocate<char>
  0000d	59		 pop	 ecx
  0000e	59		 pop	 ecx

; 188  : 		}

  0000f	5d		 pop	 ebp
  00010	c2 04 00	 ret	 4
?allocate@?$allocator@D@std@@QAEPADI@Z ENDP		; std::allocator<char>::allocate
_TEXT	ENDS
PUBLIC	??0_bstr_t@@QAE@PB_W@Z				; _bstr_t::_bstr_t
; Function compile flags: /Ogsp
; File c:\program files (x86)\microsoft visual studio 10.0\vc\include\comutil.h
;	COMDAT ??0_bstr_t@@QAE@PB_W@Z
_TEXT	SEGMENT
_s$ = 8							; size = 4
??0_bstr_t@@QAE@PB_W@Z PROC				; _bstr_t::_bstr_t, COMDAT
; _this$ = ecx

; 322  : {

  00000	55		 push	 ebp
  00001	8b ec		 mov	 ebp, esp
  00003	56		 push	 esi
  00004	6a 0c		 push	 12			; 0000000cH
  00006	8b f1		 mov	 esi, ecx
  00008	e8 00 00 00 00	 call	 ??2@YAPAXI@Z		; operator new
  0000d	59		 pop	 ecx
  0000e	85 c0		 test	 eax, eax
  00010	74 0c		 je	 SHORT $LN4@bstr_t
  00012	ff 75 08	 push	 DWORD PTR _s$[ebp]
  00015	8b c8		 mov	 ecx, eax
  00017	e8 00 00 00 00	 call	 ??0Data_t@_bstr_t@@QAE@PB_W@Z ; _bstr_t::Data_t::Data_t
  0001c	eb 02		 jmp	 SHORT $LN5@bstr_t
$LN4@bstr_t:
  0001e	33 c0		 xor	 eax, eax
$LN5@bstr_t:
  00020	89 06		 mov	 DWORD PTR [esi], eax

; 323  :     if (m_Data == NULL) {
; 324  :         _com_issue_error(E_OUTOFMEMORY);
; 325  :     }
; 326  : }

  00022	8b c6		 mov	 eax, esi
  00024	5e		 pop	 esi
  00025	5d		 pop	 ebp
  00026	c2 04 00	 ret	 4
??0_bstr_t@@QAE@PB_W@Z ENDP				; _bstr_t::_bstr_t
_TEXT	ENDS
PUBLIC	??_GData_t@_bstr_t@@AAEPAXI@Z			; _bstr_t::Data_t::`scalar deleting destructor'
; Function compile flags: /Ogsp
;	COMDAT ??_GData_t@_bstr_t@@AAEPAXI@Z
_TEXT	SEGMENT
___flags$ = 8						; size = 4
??_GData_t@_bstr_t@@AAEPAXI@Z PROC			; _bstr_t::Data_t::`scalar deleting destructor', COMDAT
; _this$ = ecx
  00000	55		 push	 ebp
  00001	8b ec		 mov	 ebp, esp
  00003	56		 push	 esi
  00004	8b f1		 mov	 esi, ecx
  00006	e8 00 00 00 00	 call	 ?_Free@Data_t@_bstr_t@@AAEXXZ ; _bstr_t::Data_t::_Free
  0000b	f6 45 08 01	 test	 BYTE PTR ___flags$[ebp], 1
  0000f	74 07		 je	 SHORT $LN1@scalar@2
  00011	56		 push	 esi
  00012	e8 00 00 00 00	 call	 ??3@YAXPAX@Z		; operator delete
  00017	59		 pop	 ecx
$LN1@scalar@2:
  00018	8b c6		 mov	 eax, esi
  0001a	5e		 pop	 esi
  0001b	5d		 pop	 ebp
  0001c	c2 04 00	 ret	 4
??_GData_t@_bstr_t@@AAEPAXI@Z ENDP			; _bstr_t::Data_t::`scalar deleting destructor'
_TEXT	ENDS
PUBLIC	??1?$CComQIPtr@UIAxWinAmbientDispatch@@$1?_GUID_b6ea2051_048a_11d1_82b9_00c04fb9942e@@3U__s_GUID@@B@ATL@@QAE@XZ ; ATL::CComQIPtr<IAxWinAmbientDispatch,&_GUID_b6ea2051_048a_11d1_82b9_00c04fb9942e>::~CComQIPtr<IAxWinAmbientDispatch,&_GUID_b6ea2051_048a_11d1_82b9_00c04fb9942e>
; Function compile flags: /Ogsp
;	COMDAT ??1?$CComQIPtr@UIAxWinAmbientDispatch@@$1?_GUID_b6ea2051_048a_11d1_82b9_00c04fb9942e@@3U__s_GUID@@B@ATL@@QAE@XZ
_TEXT	SEGMENT
??1?$CComQIPtr@UIAxWinAmbientDispatch@@$1?_GUID_b6ea2051_048a_11d1_82b9_00c04fb9942e@@3U__s_GUID@@B@ATL@@QAE@XZ PROC ; ATL::CComQIPtr<IAxWinAmbientDispatch,&_GUID_b6ea2051_048a_11d1_82b9_00c04fb9942e>::~CComQIPtr<IAxWinAmbientDispatch,&_GUID_b6ea2051_048a_11d1_82b9_00c04fb9942e>, COMDAT
; _this$ = ecx
  00000	8b 01		 mov	 eax, DWORD PTR [ecx]
  00002	85 c0		 test	 eax, eax
  00004	74 06		 je	 SHORT $LN5@CComQIPtr
  00006	8b 08		 mov	 ecx, DWORD PTR [eax]
  00008	50		 push	 eax
  00009	ff 51 08	 call	 DWORD PTR [ecx+8]
$LN5@CComQIPtr:
  0000c	c3		 ret	 0
??1?$CComQIPtr@UIAxWinAmbientDispatch@@$1?_GUID_b6ea2051_048a_11d1_82b9_00c04fb9942e@@3U__s_GUID@@B@ATL@@QAE@XZ ENDP ; ATL::CComQIPtr<IAxWinAmbientDispatch,&_GUID_b6ea2051_048a_11d1_82b9_00c04fb9942e>::~CComQIPtr<IAxWinAmbientDispatch,&_GUID_b6ea2051_048a_11d1_82b9_00c04fb9942e>
_TEXT	ENDS
PUBLIC	__GUID_b6ea2051_048a_11d1_82b9_00c04fb9942e
PUBLIC	??0?$CComQIPtr@UIAxWinAmbientDispatch@@$1?_GUID_b6ea2051_048a_11d1_82b9_00c04fb9942e@@3U__s_GUID@@B@ATL@@QAE@PAUIUnknown@@@Z ; ATL::CComQIPtr<IAxWinAmbientDispatch,&_GUID_b6ea2051_048a_11d1_82b9_00c04fb9942e>::CComQIPtr<IAxWinAmbientDispatch,&_GUID_b6ea2051_048a_11d1_82b9_00c04fb9942e>
;	COMDAT __GUID_b6ea2051_048a_11d1_82b9_00c04fb9942e
; File c:\program files (x86)\microsoft visual studio 10.0\vc\atlmfc\include\atlcomcli.h
CONST	SEGMENT
__GUID_b6ea2051_048a_11d1_82b9_00c04fb9942e DD 0b6ea2051H
	DW	048aH
	DW	011d1H
	DB	082H
	DB	0b9H
	DB	00H
	DB	0c0H
	DB	04fH
	DB	0b9H
	DB	094H
	DB	02eH
; Function compile flags: /Ogsp
CONST	ENDS
;	COMDAT ??0?$CComQIPtr@UIAxWinAmbientDispatch@@$1?_GUID_b6ea2051_048a_11d1_82b9_00c04fb9942e@@3U__s_GUID@@B@ATL@@QAE@PAUIUnknown@@@Z
_TEXT	SEGMENT
_lp$ = 8						; size = 4
??0?$CComQIPtr@UIAxWinAmbientDispatch@@$1?_GUID_b6ea2051_048a_11d1_82b9_00c04fb9942e@@3U__s_GUID@@B@ATL@@QAE@PAUIUnknown@@@Z PROC ; ATL::CComQIPtr<IAxWinAmbientDispatch,&_GUID_b6ea2051_048a_11d1_82b9_00c04fb9942e>::CComQIPtr<IAxWinAmbientDispatch,&_GUID_b6ea2051_048a_11d1_82b9_00c04fb9942e>, COMDAT
; _this$ = ecx

; 599  : 	CComQIPtr(_Inout_opt_ IUnknown* lp) throw()

  00000	55		 push	 ebp
  00001	8b ec		 mov	 ebp, esp

; 600  : 	{
; 601  : 		if (lp != NULL)

  00003	8b 45 08	 mov	 eax, DWORD PTR _lp$[ebp]
  00006	56		 push	 esi
  00007	8b f1		 mov	 esi, ecx
  00009	83 26 00	 and	 DWORD PTR [esi], 0
  0000c	85 c0		 test	 eax, eax
  0000e	74 0b		 je	 SHORT $LN1@CComQIPtr@2

; 602  : 			lp->QueryInterface(*piid, (void **)&p);

  00010	8b 08		 mov	 ecx, DWORD PTR [eax]
  00012	56		 push	 esi
  00013	68 00 00 00 00	 push	 OFFSET __GUID_b6ea2051_048a_11d1_82b9_00c04fb9942e
  00018	50		 push	 eax
  00019	ff 11		 call	 DWORD PTR [ecx]
$LN1@CComQIPtr@2:

; 603  : 	}

  0001b	8b c6		 mov	 eax, esi
  0001d	5e		 pop	 esi
  0001e	5d		 pop	 ebp
  0001f	c2 04 00	 ret	 4
??0?$CComQIPtr@UIAxWinAmbientDispatch@@$1?_GUID_b6ea2051_048a_11d1_82b9_00c04fb9942e@@3U__s_GUID@@B@ATL@@QAE@PAUIUnknown@@@Z ENDP ; ATL::CComQIPtr<IAxWinAmbientDispatch,&_GUID_b6ea2051_048a_11d1_82b9_00c04fb9942e>::CComQIPtr<IAxWinAmbientDispatch,&_GUID_b6ea2051_048a_11d1_82b9_00c04fb9942e>
_TEXT	ENDS
PUBLIC	?_Buy@?$vector@V?$basic_string@DU?$char_traits@D@std@@V?$allocator@D@2@@std@@V?$allocator@V?$basic_string@DU?$char_traits@D@std@@V?$allocator@D@2@@std@@@2@@std@@IAE_NI@Z ; std::vector<std::basic_string<char,std::char_traits<char>,std::allocator<char> >,std::allocator<std::basic_string<char,std::char_traits<char>,std::allocator<char> > > >::_Buy
; Function compile flags: /Ogsp
; File c:\program files (x86)\microsoft visual studio 10.0\vc\include\vector
;	COMDAT ?_Buy@?$vector@V?$basic_string@DU?$char_traits@D@std@@V?$allocator@D@2@@std@@V?$allocator@V?$basic_string@DU?$char_traits@D@std@@V?$allocator@D@2@@std@@@2@@std@@IAE_NI@Z
_TEXT	SEGMENT
__Capacity$ = 8						; size = 4
?_Buy@?$vector@V?$basic_string@DU?$char_traits@D@std@@V?$allocator@D@2@@std@@V?$allocator@V?$basic_string@DU?$char_traits@D@std@@V?$allocator@D@2@@std@@@2@@std@@IAE_NI@Z PROC ; std::vector<std::basic_string<char,std::char_traits<char>,std::allocator<char> >,std::allocator<std::basic_string<char,std::char_traits<char>,std::allocator<char> > > >::_Buy, COMDAT
; _this$ = ecx

; 1250 : 		{	// allocate array with _Capacity elements

  00000	55		 push	 ebp
  00001	8b ec		 mov	 ebp, esp
  00003	56		 push	 esi

; 1251 : 		this->_Myfirst = 0;

  00004	33 c0		 xor	 eax, eax
  00006	57		 push	 edi

; 1252 : 		this->_Mylast = 0;
; 1253 : 		this->_Myend = 0;
; 1254 : 
; 1255 : 		if (_Capacity == 0)

  00007	8b 7d 08	 mov	 edi, DWORD PTR __Capacity$[ebp]
  0000a	8b f1		 mov	 esi, ecx
  0000c	89 06		 mov	 DWORD PTR [esi], eax
  0000e	89 46 04	 mov	 DWORD PTR [esi+4], eax
  00011	89 46 08	 mov	 DWORD PTR [esi+8], eax
  00014	3b f8		 cmp	 edi, eax
  00016	75 04		 jne	 SHORT $LN4@Buy

; 1256 : 			return (false);

  00018	32 c0		 xor	 al, al
  0001a	eb 2b		 jmp	 SHORT $LN5@Buy
$LN4@Buy:

; 1257 : 		else if (max_size() < _Capacity)

  0001c	81 ff 49 92 24
	09		 cmp	 edi, 153391689		; 09249249H
  00022	76 0b		 jbe	 SHORT $LN2@Buy

; 1258 : 			_Xlen();	// result too long

  00024	68 00 00 00 00	 push	 OFFSET ??_C@_0BD@OLBABOEK@vector?$DMT?$DO?5too?5long?$AA@
  00029	ff 15 00 00 00
	00		 call	 DWORD PTR __imp_?_Xlength_error@std@@YAXPBD@Z
$LN19@Buy:
$LN2@Buy:

; 1259 : 		else
; 1260 : 			{	// nonempty array, allocate storage
; 1261 : 			this->_Myfirst = this->_Alval.allocate(_Capacity);

  0002f	50		 push	 eax
  00030	57		 push	 edi
  00031	e8 00 00 00 00	 call	 ??$_Allocate@V?$basic_string@DU?$char_traits@D@std@@V?$allocator@D@2@@std@@@std@@YAPAV?$basic_string@DU?$char_traits@D@std@@V?$allocator@D@2@@0@IPAV10@@Z ; std::_Allocate<std::basic_string<char,std::char_traits<char>,std::allocator<char> > >

; 1262 : 			this->_Mylast = this->_Myfirst;
; 1263 : 			this->_Myend = this->_Myfirst + _Capacity;

  00036	6b ff 1c	 imul	 edi, 28			; 0000001cH
  00039	03 f8		 add	 edi, eax
  0003b	59		 pop	 ecx
  0003c	89 06		 mov	 DWORD PTR [esi], eax
  0003e	89 46 04	 mov	 DWORD PTR [esi+4], eax
  00041	59		 pop	 ecx
  00042	89 7e 08	 mov	 DWORD PTR [esi+8], edi

; 1264 : 			}
; 1265 : 		return (true);

  00045	b0 01		 mov	 al, 1
$LN5@Buy:
  00047	5f		 pop	 edi
  00048	5e		 pop	 esi

; 1266 : 		}

  00049	5d		 pop	 ebp
  0004a	c2 04 00	 ret	 4
$LN18@Buy:
?_Buy@?$vector@V?$basic_string@DU?$char_traits@D@std@@V?$allocator@D@2@@std@@V?$allocator@V?$basic_string@DU?$char_traits@D@std@@V?$allocator@D@2@@std@@@2@@std@@IAE_NI@Z ENDP ; std::vector<std::basic_string<char,std::char_traits<char>,std::allocator<char> >,std::allocator<std::basic_string<char,std::char_traits<char>,std::allocator<char> > > >::_Buy
_TEXT	ENDS
PUBLIC	__GUID_00000000_0000_0000_c000_000000000046
PUBLIC	?IsEqualObject@?$CComPtrBase@UIWebBrowser2@@@ATL@@QAE_NPAUIUnknown@@@Z ; ATL::CComPtrBase<IWebBrowser2>::IsEqualObject
;	COMDAT __GUID_00000000_0000_0000_c000_000000000046
; File c:\program files (x86)\microsoft visual studio 10.0\vc\atlmfc\include\atlcomcli.h
CONST	SEGMENT
__GUID_00000000_0000_0000_c000_000000000046 DD 00H
	DW	00H
	DW	00H
	DB	0c0H
	DB	00H
	DB	00H
	DB	00H
	DB	00H
	DB	00H
	DB	00H
	DB	046H
; Function compile flags: /Ogsp
CONST	ENDS
;	COMDAT ?IsEqualObject@?$CComPtrBase@UIWebBrowser2@@@ATL@@QAE_NPAUIUnknown@@@Z
_TEXT	SEGMENT
_punk2$ = -8						; size = 4
_punk1$ = -4						; size = 4
_pOther$ = 8						; size = 4
$T510049 = 11						; size = 1
?IsEqualObject@?$CComPtrBase@UIWebBrowser2@@@ATL@@QAE_NPAUIUnknown@@@Z PROC ; ATL::CComPtrBase<IWebBrowser2>::IsEqualObject, COMDAT
; _this$ = ecx

; 214  : 	{

  00000	55		 push	 ebp
  00001	8b ec		 mov	 ebp, esp
  00003	51		 push	 ecx
  00004	51		 push	 ecx

; 215  : 		if (p == NULL && pOther == NULL)

  00005	8b 01		 mov	 eax, DWORD PTR [ecx]
  00007	57		 push	 edi
  00008	85 c0		 test	 eax, eax
  0000a	75 09		 jne	 SHORT $LN32@IsEqualObj
  0000c	39 45 08	 cmp	 DWORD PTR _pOther$[ebp], eax
  0000f	75 54		 jne	 SHORT $LN1@IsEqualObj

; 216  : 			return true;	// They are both NULL objects

  00011	b0 01		 mov	 al, 1
  00013	eb 52		 jmp	 SHORT $LN4@IsEqualObj
$LN32@IsEqualObj:

; 217  : 
; 218  : 		if (p == NULL || pOther == NULL)

  00015	8b 7d 08	 mov	 edi, DWORD PTR _pOther$[ebp]
  00018	85 ff		 test	 edi, edi
  0001a	74 49		 je	 SHORT $LN1@IsEqualObj

; 220  : 
; 221  : 		CComPtr<IUnknown> punk1;

  0001c	83 65 fc 00	 and	 DWORD PTR _punk1$[ebp], 0

; 222  : 		CComPtr<IUnknown> punk2;

  00020	83 65 f8 00	 and	 DWORD PTR _punk2$[ebp], 0

; 223  : 		p->QueryInterface(__uuidof(IUnknown), (void**)&punk1);

  00024	8b 08		 mov	 ecx, DWORD PTR [eax]
  00026	56		 push	 esi
  00027	8d 55 fc	 lea	 edx, DWORD PTR _punk1$[ebp]
  0002a	52		 push	 edx
  0002b	be 00 00 00 00	 mov	 esi, OFFSET __GUID_00000000_0000_0000_c000_000000000046
  00030	56		 push	 esi
  00031	50		 push	 eax
  00032	ff 11		 call	 DWORD PTR [ecx]

; 224  : 		pOther->QueryInterface(__uuidof(IUnknown), (void**)&punk2);

  00034	8b 07		 mov	 eax, DWORD PTR [edi]
  00036	8d 4d f8	 lea	 ecx, DWORD PTR _punk2$[ebp]
  00039	51		 push	 ecx
  0003a	56		 push	 esi
  0003b	57		 push	 edi
  0003c	ff 10		 call	 DWORD PTR [eax]

; 225  : 		return punk1 == punk2;

  0003e	8b 45 f8	 mov	 eax, DWORD PTR _punk2$[ebp]
  00041	39 45 fc	 cmp	 DWORD PTR _punk1$[ebp], eax
  00044	5e		 pop	 esi
  00045	0f 94 45 0b	 sete	 BYTE PTR $T510049[ebp]
  00049	85 c0		 test	 eax, eax
  0004b	74 06		 je	 SHORT $LN24@IsEqualObj
  0004d	8b 08		 mov	 ecx, DWORD PTR [eax]
  0004f	50		 push	 eax
  00050	ff 51 08	 call	 DWORD PTR [ecx+8]
$LN24@IsEqualObj:
  00053	8b 45 fc	 mov	 eax, DWORD PTR _punk1$[ebp]
  00056	85 c0		 test	 eax, eax
  00058	74 06		 je	 SHORT $LN29@IsEqualObj
  0005a	8b 08		 mov	 ecx, DWORD PTR [eax]
  0005c	50		 push	 eax
  0005d	ff 51 08	 call	 DWORD PTR [ecx+8]
$LN29@IsEqualObj:
  00060	8a 45 0b	 mov	 al, BYTE PTR $T510049[ebp]
  00063	eb 02		 jmp	 SHORT $LN4@IsEqualObj
$LN1@IsEqualObj:

; 219  : 			return false;	// One is NULL the other is not

  00065	32 c0		 xor	 al, al
$LN4@IsEqualObj:
  00067	5f		 pop	 edi

; 226  : 	}

  00068	c9		 leave
  00069	c2 04 00	 ret	 4
?IsEqualObject@?$CComPtrBase@UIWebBrowser2@@@ATL@@QAE_NPAUIUnknown@@@Z ENDP ; ATL::CComPtrBase<IWebBrowser2>::IsEqualObject
_TEXT	ENDS
PUBLIC	??9?$_Vector_const_iterator@V?$_Vector_val@V?$basic_string@DU?$char_traits@D@std@@V?$allocator@D@2@@std@@V?$allocator@V?$basic_string@DU?$char_traits@D@std@@V?$allocator@D@2@@std@@@2@@std@@@std@@QBE_NABV01@@Z ; std::_Vector_const_iterator<std::_Vector_val<std::basic_string<char,std::char_traits<char>,std::allocator<char> >,std::allocator<std::basic_string<char,std::char_traits<char>,std::allocator<char> > > > >::operator!=
; Function compile flags: /Ogsp
; File c:\program files (x86)\microsoft visual studio 10.0\vc\include\vector
;	COMDAT ??9?$_Vector_const_iterator@V?$_Vector_val@V?$basic_string@DU?$char_traits@D@std@@V?$allocator@D@2@@std@@V?$allocator@V?$basic_string@DU?$char_traits@D@std@@V?$allocator@D@2@@std@@@2@@std@@@std@@QBE_NABV01@@Z
_TEXT	SEGMENT
__Right$ = 8						; size = 4
??9?$_Vector_const_iterator@V?$_Vector_val@V?$basic_string@DU?$char_traits@D@std@@V?$allocator@D@2@@std@@V?$allocator@V?$basic_string@DU?$char_traits@D@std@@V?$allocator@D@2@@std@@@2@@std@@@std@@QBE_NABV01@@Z PROC ; std::_Vector_const_iterator<std::_Vector_val<std::basic_string<char,std::char_traits<char>,std::allocator<char> >,std::allocator<std::basic_string<char,std::char_traits<char>,std::allocator<char> > > > >::operator!=, COMDAT
; _this$ = ecx

; 207  : 		{	// test for iterator inequality

  00000	55		 push	 ebp
  00001	8b ec		 mov	 ebp, esp

; 208  : 		return (!(*this == _Right));

  00003	8b 01		 mov	 eax, DWORD PTR [ecx]
  00005	8b 55 08	 mov	 edx, DWORD PTR __Right$[ebp]
  00008	33 c9		 xor	 ecx, ecx
  0000a	3b 02		 cmp	 eax, DWORD PTR [edx]
  0000c	0f 95 c0	 setne	 al

; 209  : 		}

  0000f	5d		 pop	 ebp
  00010	c2 04 00	 ret	 4
??9?$_Vector_const_iterator@V?$_Vector_val@V?$basic_string@DU?$char_traits@D@std@@V?$allocator@D@2@@std@@V?$allocator@V?$basic_string@DU?$char_traits@D@std@@V?$allocator@D@2@@std@@@2@@std@@@std@@QBE_NABV01@@Z ENDP ; std::_Vector_const_iterator<std::_Vector_val<std::basic_string<char,std::char_traits<char>,std::allocator<char> >,std::allocator<std::basic_string<char,std::char_traits<char>,std::allocator<char> > > > >::operator!=
_TEXT	ENDS
PUBLIC	?compare@?$basic_string@DU?$char_traits@D@std@@V?$allocator@D@2@@std@@QBEHPBD@Z ; std::basic_string<char,std::char_traits<char>,std::allocator<char> >::compare
; Function compile flags: /Ogsp
; File c:\program files (x86)\microsoft visual studio 10.0\vc\include\xstring
;	COMDAT ?compare@?$basic_string@DU?$char_traits@D@std@@V?$allocator@D@2@@std@@QBEHPBD@Z
_TEXT	SEGMENT
__Ptr$ = 8						; size = 4
?compare@?$basic_string@DU?$char_traits@D@std@@V?$allocator@D@2@@std@@QBEHPBD@Z PROC ; std::basic_string<char,std::char_traits<char>,std::allocator<char> >::compare, COMDAT
; _this$ = ecx

; 1875 : 		{	// compare [0, _Mysize) with [_Ptr, <null>)

  00000	55		 push	 ebp
  00001	8b ec		 mov	 ebp, esp

; 1876 : 		_DEBUG_POINTER(_Ptr);
; 1877 : 		return (compare(0, this->_Mysize, _Ptr, _Traits::length(_Ptr)));

  00003	8b 45 08	 mov	 eax, DWORD PTR __Ptr$[ebp]
  00006	56		 push	 esi
  00007	8d 70 01	 lea	 esi, DWORD PTR [eax+1]
$LL5@compare@3:
  0000a	8a 10		 mov	 dl, BYTE PTR [eax]
  0000c	40		 inc	 eax
  0000d	84 d2		 test	 dl, dl
  0000f	75 f9		 jne	 SHORT $LL5@compare@3
  00011	2b c6		 sub	 eax, esi
  00013	50		 push	 eax
  00014	ff 75 08	 push	 DWORD PTR __Ptr$[ebp]
  00017	ff 71 10	 push	 DWORD PTR [ecx+16]
  0001a	6a 00		 push	 0
  0001c	e8 00 00 00 00	 call	 ?compare@?$basic_string@DU?$char_traits@D@std@@V?$allocator@D@2@@std@@QBEHIIPBDI@Z ; std::basic_string<char,std::char_traits<char>,std::allocator<char> >::compare
  00021	5e		 pop	 esi

; 1878 : 		}

  00022	5d		 pop	 ebp
  00023	c2 04 00	 ret	 4
?compare@?$basic_string@DU?$char_traits@D@std@@V?$allocator@D@2@@std@@QBEHPBD@Z ENDP ; std::basic_string<char,std::char_traits<char>,std::allocator<char> >::compare
_TEXT	ENDS
PUBLIC	?_Tidy@?$basic_string@DU?$char_traits@D@std@@V?$allocator@D@2@@std@@QAEX_NI@Z ; std::basic_string<char,std::char_traits<char>,std::allocator<char> >::_Tidy
; Function compile flags: /Ogsp
;	COMDAT ?_Tidy@?$basic_string@DU?$char_traits@D@std@@V?$allocator@D@2@@std@@QAEX_NI@Z
_TEXT	SEGMENT
__Built$ = 8						; size = 1
__Newsize$ = 12						; size = 4
?_Tidy@?$basic_string@DU?$char_traits@D@std@@V?$allocator@D@2@@std@@QAEX_NI@Z PROC ; std::basic_string<char,std::char_traits<char>,std::allocator<char> >::_Tidy, COMDAT
; _this$ = ecx

; 1988 : 		{	// initialize buffer, deallocating any storage

  00000	55		 push	 ebp
  00001	8b ec		 mov	 ebp, esp

; 1989 : 		if (!_Built)

  00003	80 7d 08 00	 cmp	 BYTE PTR __Built$[ebp], 0
  00007	56		 push	 esi
  00008	57		 push	 edi
  00009	8b 7d 0c	 mov	 edi, DWORD PTR __Newsize$[ebp]
  0000c	8b f1		 mov	 esi, ecx
  0000e	74 20		 je	 SHORT $LN9@Tidy

; 1990 : 			;
; 1991 : 		else if (this->_BUF_SIZE <= this->_Myres)

  00010	83 7e 14 10	 cmp	 DWORD PTR [esi+20], 16	; 00000010H
  00014	72 1a		 jb	 SHORT $LN9@Tidy

; 1992 : 			{	// copy any leftovers to small buffer and deallocate
; 1993 : 			_Elem *_Ptr = this->_Bx._Ptr;

  00016	53		 push	 ebx
  00017	8b 1e		 mov	 ebx, DWORD PTR [esi]

; 1994 : 			if (0 < _Newsize)

  00019	85 ff		 test	 edi, edi
  0001b	74 0b		 je	 SHORT $LN7@Tidy

; 1995 : 				_Traits::copy(this->_Bx._Buf, _Ptr, _Newsize);

  0001d	57		 push	 edi
  0001e	53		 push	 ebx
  0001f	56		 push	 esi
  00020	e8 00 00 00 00	 call	 _memcpy
  00025	83 c4 0c	 add	 esp, 12			; 0000000cH
$LN7@Tidy:

; 1996 : 			this->_Alval.deallocate(_Ptr, this->_Myres + 1);

  00028	53		 push	 ebx
  00029	e8 00 00 00 00	 call	 ??3@YAXPAX@Z		; operator delete
  0002e	59		 pop	 ecx
  0002f	5b		 pop	 ebx
$LN9@Tidy:

; 1997 : 			}
; 1998 : 		this->_Myres = this->_BUF_SIZE - 1;
; 1999 : 		_Eos(_Newsize);

  00030	89 7e 10	 mov	 DWORD PTR [esi+16], edi
  00033	c7 46 14 0f 00
	00 00		 mov	 DWORD PTR [esi+20], 15	; 0000000fH
  0003a	c6 04 37 00	 mov	 BYTE PTR [edi+esi], 0
  0003e	5f		 pop	 edi
  0003f	5e		 pop	 esi

; 2000 : 		}

  00040	5d		 pop	 ebp
  00041	c2 08 00	 ret	 8
?_Tidy@?$basic_string@DU?$char_traits@D@std@@V?$allocator@D@2@@std@@QAEX_NI@Z ENDP ; std::basic_string<char,std::char_traits<char>,std::allocator<char> >::_Tidy
_TEXT	ENDS
PUBLIC	?erase@?$basic_string@DU?$char_traits@D@std@@V?$allocator@D@2@@std@@QAEAAV12@II@Z ; std::basic_string<char,std::char_traits<char>,std::allocator<char> >::erase
; Function compile flags: /Ogsp
;	COMDAT ?erase@?$basic_string@DU?$char_traits@D@std@@V?$allocator@D@2@@std@@QAEAAV12@II@Z
_TEXT	SEGMENT
__Off$ = 8						; size = 4
__Count$ = 12						; size = 4
?erase@?$basic_string@DU?$char_traits@D@std@@V?$allocator@D@2@@std@@QAEAAV12@II@Z PROC ; std::basic_string<char,std::char_traits<char>,std::allocator<char> >::erase, COMDAT
; _this$ = ecx

; 1109 : 		{	// erase elements [_Off, _Off + _Count)

  00000	55		 push	 ebp
  00001	8b ec		 mov	 ebp, esp
  00003	53		 push	 ebx
  00004	56		 push	 esi
  00005	8b f1		 mov	 esi, ecx

; 1110 : 		if (this->_Mysize < _Off)

  00007	8b 46 10	 mov	 eax, DWORD PTR [esi+16]
  0000a	8b 4d 08	 mov	 ecx, DWORD PTR __Off$[ebp]
  0000d	3b c1		 cmp	 eax, ecx
  0000f	73 0b		 jae	 SHORT $LN3@erase

; 1111 : 			_Xran();	// _Off off end

  00011	68 00 00 00 00	 push	 OFFSET ??_C@_0BI@CFPLBAOH@invalid?5string?5position?$AA@
  00016	ff 15 00 00 00
	00		 call	 DWORD PTR __imp_?_Xout_of_range@std@@YAXPBD@Z
$LN28@erase:
$LN3@erase:

; 1112 : 		if (this->_Mysize - _Off < _Count)

  0001c	8b 5d 0c	 mov	 ebx, DWORD PTR __Count$[ebp]
  0001f	2b c1		 sub	 eax, ecx
  00021	3b c3		 cmp	 eax, ebx

; 1113 : 			_Count = this->_Mysize - _Off;	// trim _Count

  00023	0f 42 d8	 cmovb	 ebx, eax

; 1114 : 		if (0 < _Count)

  00026	85 db		 test	 ebx, ebx
  00028	74 47		 je	 SHORT $LN25@erase

; 1115 : 			{	// move elements down
; 1116 : 			_Traits::move(_Myptr() + _Off, _Myptr() + _Off + _Count,
; 1117 : 				this->_Mysize - _Off - _Count);

  0002a	8b 56 14	 mov	 edx, DWORD PTR [esi+20]
  0002d	57		 push	 edi
  0002e	83 fa 10	 cmp	 edx, 16			; 00000010H
  00031	72 04		 jb	 SHORT $LN11@erase
  00033	8b 3e		 mov	 edi, DWORD PTR [esi]
  00035	eb 02		 jmp	 SHORT $LN12@erase
$LN11@erase:
  00037	8b fe		 mov	 edi, esi
$LN12@erase:
  00039	83 fa 10	 cmp	 edx, 16			; 00000010H
  0003c	72 04		 jb	 SHORT $LN15@erase
  0003e	8b 16		 mov	 edx, DWORD PTR [esi]
  00040	eb 02		 jmp	 SHORT $LN16@erase
$LN15@erase:
  00042	8b d6		 mov	 edx, esi
$LN16@erase:
  00044	2b c3		 sub	 eax, ebx
  00046	03 f9		 add	 edi, ecx
  00048	50		 push	 eax
  00049	03 fb		 add	 edi, ebx
  0004b	03 d1		 add	 edx, ecx
  0004d	57		 push	 edi
  0004e	52		 push	 edx
  0004f	ff 15 00 00 00
	00		 call	 DWORD PTR __imp__memmove

; 1118 : 			size_type _Newsize = this->_Mysize - _Count;

  00055	8b 46 10	 mov	 eax, DWORD PTR [esi+16]
  00058	83 c4 0c	 add	 esp, 12			; 0000000cH
  0005b	2b c3		 sub	 eax, ebx

; 1119 : 			_Eos(_Newsize);

  0005d	83 7e 14 10	 cmp	 DWORD PTR [esi+20], 16	; 00000010H
  00061	89 46 10	 mov	 DWORD PTR [esi+16], eax
  00064	5f		 pop	 edi
  00065	72 04		 jb	 SHORT $LN23@erase
  00067	8b 0e		 mov	 ecx, DWORD PTR [esi]
  00069	eb 02		 jmp	 SHORT $LN24@erase
$LN23@erase:
  0006b	8b ce		 mov	 ecx, esi
$LN24@erase:
  0006d	c6 04 01 00	 mov	 BYTE PTR [ecx+eax], 0
$LN25@erase:

; 1120 : 			}
; 1121 : 		return (*this);

  00071	8b c6		 mov	 eax, esi
  00073	5e		 pop	 esi
  00074	5b		 pop	 ebx

; 1122 : 		}

  00075	5d		 pop	 ebp
  00076	c2 08 00	 ret	 8
$LN27@erase:
?erase@?$basic_string@DU?$char_traits@D@std@@V?$allocator@D@2@@std@@QAEAAV12@II@Z ENDP ; std::basic_string<char,std::char_traits<char>,std::allocator<char> >::erase
_TEXT	ENDS
PUBLIC	?_Copy@?$basic_string@DU?$char_traits@D@std@@V?$allocator@D@2@@std@@QAEXII@Z ; std::basic_string<char,std::char_traits<char>,std::allocator<char> >::_Copy
EXTRN	___CxxFrameHandler3:PROC
EXTRN	__EH_epilog3:PROC
EXTRN	__EH_prolog3_catch:PROC
;	COMDAT xdata$x
; File c:\program files (x86)\microsoft visual studio 10.0\vc\include\iosfwd
xdata$x	SEGMENT
__catchsym$?_Copy@?$basic_string@DU?$char_traits@D@std@@V?$allocator@D@2@@std@@QAEXII@Z$5 DD 040H
	DD	00H
	DD	00H
	DD	FLAT:__catch$?_Copy@?$basic_string@DU?$char_traits@D@std@@V?$allocator@D@2@@std@@QAEXII@Z$0
__catchsym$?_Copy@?$basic_string@DU?$char_traits@D@std@@V?$allocator@D@2@@std@@QAEXII@Z$4 DD 040H
	DD	00H
	DD	00H
	DD	FLAT:__catch$?_Copy@?$basic_string@DU?$char_traits@D@std@@V?$allocator@D@2@@std@@QAEXII@Z$1
__unwindtable$?_Copy@?$basic_string@DU?$char_traits@D@std@@V?$allocator@D@2@@std@@QAEXII@Z DD 0ffffffffH
	DD	00H
	DD	0ffffffffH
	DD	00H
	DD	01H
	DD	00H
	DD	01H
	DD	00H
__ehfuncinfo$?_Copy@?$basic_string@DU?$char_traits@D@std@@V?$allocator@D@2@@std@@QAEXII@Z DD 019930522H
	DD	04H
	DD	FLAT:__unwindtable$?_Copy@?$basic_string@DU?$char_traits@D@std@@V?$allocator@D@2@@std@@QAEXII@Z
	DD	02H
	DD	FLAT:__tryblocktable$?_Copy@?$basic_string@DU?$char_traits@D@std@@V?$allocator@D@2@@std@@QAEXII@Z
	DD	2 DUP(00H)
	DD	00H
	DD	01H
__tryblocktable$?_Copy@?$basic_string@DU?$char_traits@D@std@@V?$allocator@D@2@@std@@QAEXII@Z DD 02H
	DD	02H
	DD	03H
	DD	01H
	DD	FLAT:__catchsym$?_Copy@?$basic_string@DU?$char_traits@D@std@@V?$allocator@D@2@@std@@QAEXII@Z$4
	DD	00H
	DD	00H
	DD	03H
	DD	01H
	DD	FLAT:__catchsym$?_Copy@?$basic_string@DU?$char_traits@D@std@@V?$allocator@D@2@@std@@QAEXII@Z$5
; Function compile flags: /Ogsp
; File c:\program files (x86)\microsoft visual studio 10.0\vc\include\xstring
xdata$x	ENDS
;	COMDAT ?_Copy@?$basic_string@DU?$char_traits@D@std@@V?$allocator@D@2@@std@@QAEXII@Z
_TEXT	SEGMENT
_this$ = -24						; size = 4
tv296 = -20						; size = 4
__Newres$ = -20						; size = 4
__$EHRec$ = -16						; size = 16
__Ptr$ = 8						; size = 4
__Newsize$ = 8						; size = 4
__Oldlen$ = 12						; size = 4
?_Copy@?$basic_string@DU?$char_traits@D@std@@V?$allocator@D@2@@std@@QAEXII@Z PROC ; std::basic_string<char,std::char_traits<char>,std::allocator<char> >::_Copy, COMDAT
; _this$ = ecx

; 1919 : 		{	// copy _Oldlen elements to newly allocated buffer

  00000	6a 0c		 push	 12			; 0000000cH
  00002	b8 00 00 00 00	 mov	 eax, __ehhandler$?_Copy@?$basic_string@DU?$char_traits@D@std@@V?$allocator@D@2@@std@@QAEXII@Z
  00007	e8 00 00 00 00	 call	 __EH_prolog3_catch
  0000c	8b f1		 mov	 esi, ecx
  0000e	89 75 e8	 mov	 DWORD PTR _this$[ebp], esi

; 1920 : 		size_type _Newres = _Newsize | this->_ALLOC_MASK;

  00011	8b 7d 08	 mov	 edi, DWORD PTR __Newsize$[ebp]
  00014	83 cf 0f	 or	 edi, 15			; 0000000fH

; 1921 : 		if (max_size() < _Newres)

  00017	83 ff fe	 cmp	 edi, -2			; fffffffeH
  0001a	76 05		 jbe	 SHORT $LN9@Copy

; 1922 : 			_Newres = _Newsize;	// undo roundup if too big

  0001c	8b 7d 08	 mov	 edi, DWORD PTR __Newsize$[ebp]
  0001f	eb 27		 jmp	 SHORT $LN5@Copy
$LN9@Copy:

; 1923 : 		else if (this->_Myres / 2 <= _Newres / 3)

  00021	33 d2		 xor	 edx, edx
  00023	6a 03		 push	 3
  00025	8b c7		 mov	 eax, edi
  00027	5b		 pop	 ebx
  00028	f7 f3		 div	 ebx
  0002a	8b 4e 14	 mov	 ecx, DWORD PTR [esi+20]
  0002d	89 4d ec	 mov	 DWORD PTR tv296[ebp], ecx
  00030	d1 6d ec	 shr	 DWORD PTR tv296[ebp], 1
  00033	8b 55 ec	 mov	 edx, DWORD PTR tv296[ebp]
  00036	3b d0		 cmp	 edx, eax
  00038	76 0e		 jbe	 SHORT $LN5@Copy

; 1924 : 			;
; 1925 : 		else if (this->_Myres <= max_size() - this->_Myres / 2)

  0003a	6a fe		 push	 -2			; fffffffeH
  0003c	5f		 pop	 edi
  0003d	8b c7		 mov	 eax, edi
  0003f	2b c2		 sub	 eax, edx
  00041	3b c8		 cmp	 ecx, eax
  00043	77 03		 ja	 SHORT $LN5@Copy

; 1926 : 			_Newres = this->_Myres
; 1927 : 				+ this->_Myres / 2;	// grow exponentially if possible

  00045	8d 3c 0a	 lea	 edi, DWORD PTR [edx+ecx]
$LN5@Copy:

; 1928 : 		else
; 1929 : 			_Newres = max_size();	// settle for max_size()
; 1930 : 
; 1931 : 		_Elem *_Ptr;
; 1932 : 		_TRY_BEGIN

  00048	83 65 fc 00	 and	 DWORD PTR __$EHRec$[ebp+12], 0

; 1933 : 			_Ptr = this->_Alval.allocate(_Newres + 1);

  0004c	8d 47 01	 lea	 eax, DWORD PTR [edi+1]
  0004f	6a 00		 push	 0
  00051	50		 push	 eax
  00052	e8 00 00 00 00	 call	 ??$_Allocate@D@std@@YAPADIPAD@Z ; std::_Allocate<char>
  00057	59		 pop	 ecx
  00058	59		 pop	 ecx
  00059	89 45 08	 mov	 DWORD PTR __Ptr$[ebp], eax
  0005c	eb 27		 jmp	 SHORT $LN19@Copy
__catch$?_Copy@?$basic_string@DU?$char_traits@D@std@@V?$allocator@D@2@@std@@QAEXII@Z$0:

; 1934 : 		_CATCH_ALL
; 1935 : 			_Newres = _Newsize;	// allocation failed, undo roundup and retry

  0005e	8b 45 08	 mov	 eax, DWORD PTR __Newsize$[ebp]
  00061	89 65 f0	 mov	 DWORD PTR __$EHRec$[ebp], esp
  00064	89 45 ec	 mov	 DWORD PTR __Newres$[ebp], eax

; 1936 : 			_TRY_BEGIN
; 1937 : 				_Ptr = this->_Alval.allocate(_Newres + 1);

  00067	40		 inc	 eax
  00068	6a 00		 push	 0
  0006a	50		 push	 eax
  0006b	c6 45 fc 02	 mov	 BYTE PTR __$EHRec$[ebp+12], 2
  0006f	e8 00 00 00 00	 call	 ??$_Allocate@D@std@@YAPADIPAD@Z ; std::_Allocate<char>
  00074	59		 pop	 ecx
  00075	89 45 08	 mov	 DWORD PTR __Ptr$[ebp], eax
  00078	59		 pop	 ecx

; 1941 : 			_CATCH_END
; 1942 : 		_CATCH_END

  00079	b8 00 00 00 00	 mov	 eax, $LN63@Copy
  0007e	c3		 ret	 0
$LN63@Copy:
  0007f	8b 75 e8	 mov	 esi, DWORD PTR _this$[ebp]
  00082	8b 7d ec	 mov	 edi, DWORD PTR __Newres$[ebp]
$LN19@Copy:

; 1943 : 
; 1944 : 		if (0 < _Oldlen)

  00085	8b 5d 0c	 mov	 ebx, DWORD PTR __Oldlen$[ebp]
  00088	85 db		 test	 ebx, ebx
  0008a	74 19		 je	 SHORT $LN52@Copy

; 1945 : 			_Traits::copy(_Ptr, _Myptr(), _Oldlen);	// copy existing elements

  0008c	83 7e 14 10	 cmp	 DWORD PTR [esi+20], 16	; 00000010H
  00090	72 04		 jb	 SHORT $LN50@Copy
  00092	8b 06		 mov	 eax, DWORD PTR [esi]
  00094	eb 02		 jmp	 SHORT $LN51@Copy
$LN50@Copy:
  00096	8b c6		 mov	 eax, esi
$LN51@Copy:
  00098	53		 push	 ebx
  00099	50		 push	 eax
  0009a	ff 75 08	 push	 DWORD PTR __Ptr$[ebp]
  0009d	e8 00 00 00 00	 call	 _memcpy
  000a2	83 c4 0c	 add	 esp, 12			; 0000000cH
$LN52@Copy:

; 1946 : 		_Tidy(true);

  000a5	6a 00		 push	 0
  000a7	6a 01		 push	 1
  000a9	8b ce		 mov	 ecx, esi
  000ab	e8 00 00 00 00	 call	 ?_Tidy@?$basic_string@DU?$char_traits@D@std@@V?$allocator@D@2@@std@@QAEX_NI@Z ; std::basic_string<char,std::char_traits<char>,std::allocator<char> >::_Tidy

; 1947 : 		this->_Bx._Ptr = _Ptr;

  000b0	8b 45 08	 mov	 eax, DWORD PTR __Ptr$[ebp]
  000b3	89 06		 mov	 DWORD PTR [esi], eax

; 1948 : 		this->_Myres = _Newres;
; 1949 : 		_Eos(_Oldlen);

  000b5	83 ff 10	 cmp	 edi, 16			; 00000010H
  000b8	89 7e 14	 mov	 DWORD PTR [esi+20], edi
  000bb	89 5e 10	 mov	 DWORD PTR [esi+16], ebx
  000be	0f 42 c6	 cmovb	 eax, esi
  000c1	c6 04 18 00	 mov	 BYTE PTR [eax+ebx], 0

; 1950 : 		}

  000c5	e8 00 00 00 00	 call	 __EH_epilog3
  000ca	c2 08 00	 ret	 8
__catch$?_Copy@?$basic_string@DU?$char_traits@D@std@@V?$allocator@D@2@@std@@QAEXII@Z$1:

; 1938 : 			_CATCH_ALL
; 1939 : 			_Tidy(true);	// failed again, discard storage and reraise

  000cd	8b 4d e8	 mov	 ecx, DWORD PTR _this$[ebp]
  000d0	33 f6		 xor	 esi, esi
  000d2	56		 push	 esi
  000d3	6a 01		 push	 1
  000d5	e8 00 00 00 00	 call	 ?_Tidy@?$basic_string@DU?$char_traits@D@std@@V?$allocator@D@2@@std@@QAEX_NI@Z ; std::basic_string<char,std::char_traits<char>,std::allocator<char> >::_Tidy

; 1940 : 			_RERAISE;

  000da	56		 push	 esi
  000db	56		 push	 esi
  000dc	e8 00 00 00 00	 call	 __CxxThrowException@8
$LN67@Copy:
$LN66@Copy:
  000e1	cc		 int	 3
_TEXT	ENDS
;	COMDAT text$x
text$x	SEGMENT
__ehhandler$?_Copy@?$basic_string@DU?$char_traits@D@std@@V?$allocator@D@2@@std@@QAEXII@Z:
  00000	8b 54 24 08	 mov	 edx, DWORD PTR [esp+8]
  00004	8d 42 0c	 lea	 eax, DWORD PTR [edx+12]
  00007	8b 4a e4	 mov	 ecx, DWORD PTR [edx-28]
  0000a	33 c8		 xor	 ecx, eax
  0000c	e8 00 00 00 00	 call	 @__security_check_cookie@4
  00011	b8 00 00 00 00	 mov	 eax, OFFSET __ehfuncinfo$?_Copy@?$basic_string@DU?$char_traits@D@std@@V?$allocator@D@2@@std@@QAEXII@Z
  00016	e9 00 00 00 00	 jmp	 ___CxxFrameHandler3
text$x	ENDS
?_Copy@?$basic_string@DU?$char_traits@D@std@@V?$allocator@D@2@@std@@QAEXII@Z ENDP ; std::basic_string<char,std::char_traits<char>,std::allocator<char> >::_Copy
PUBLIC	?Release@Data_t@_bstr_t@@QAEKXZ			; _bstr_t::Data_t::Release
EXTRN	__imp__InterlockedDecrement@4:PROC
; Function compile flags: /Ogsp
; File c:\program files (x86)\microsoft visual studio 10.0\vc\include\comutil.h
;	COMDAT ?Release@Data_t@_bstr_t@@QAEKXZ
_TEXT	SEGMENT
?Release@Data_t@_bstr_t@@QAEKXZ PROC			; _bstr_t::Data_t::Release, COMDAT
; _this$ = ecx

; 772  : {

  00000	56		 push	 esi
  00001	8b f1		 mov	 esi, ecx
  00003	57		 push	 edi

; 773  :     unsigned long cRef = InterlockedDecrement(reinterpret_cast<long*>(&m_RefCount));

  00004	8d 46 08	 lea	 eax, DWORD PTR [esi+8]
  00007	50		 push	 eax
  00008	ff 15 00 00 00
	00		 call	 DWORD PTR __imp__InterlockedDecrement@4
  0000e	8b f8		 mov	 edi, eax

; 774  :     if (cRef == 0) {

  00010	85 ff		 test	 edi, edi
  00012	75 12		 jne	 SHORT $LN6@Release

; 775  :         delete this;

  00014	85 f6		 test	 esi, esi
  00016	74 0e		 je	 SHORT $LN6@Release
  00018	8b ce		 mov	 ecx, esi
  0001a	e8 00 00 00 00	 call	 ?_Free@Data_t@_bstr_t@@AAEXXZ ; _bstr_t::Data_t::_Free
  0001f	56		 push	 esi
  00020	e8 00 00 00 00	 call	 ??3@YAXPAX@Z		; operator delete
  00025	59		 pop	 ecx
$LN6@Release:

; 776  :     }
; 777  : 
; 778  :     return cRef;

  00026	8b c7		 mov	 eax, edi
  00028	5f		 pop	 edi
  00029	5e		 pop	 esi

; 779  : }

  0002a	c3		 ret	 0
?Release@Data_t@_bstr_t@@QAEKXZ ENDP			; _bstr_t::Data_t::Release
_TEXT	ENDS
PUBLIC	?SetNoScroll@ioWebBrowser@@IAEXXZ		; ioWebBrowser::SetNoScroll
EXTRN	__EH_prolog3:PROC
;	COMDAT xdata$x
; File c:\program files (x86)\microsoft visual studio 10.0\vc\atlmfc\include\atlcomcli.h
xdata$x	SEGMENT
__unwindtable$?SetNoScroll@ioWebBrowser@@IAEXXZ DD 0ffffffffH
	DD	FLAT:__unwindfunclet$?SetNoScroll@ioWebBrowser@@IAEXXZ$0
	DD	00H
	DD	FLAT:__unwindfunclet$?SetNoScroll@ioWebBrowser@@IAEXXZ$1
__ehfuncinfo$?SetNoScroll@ioWebBrowser@@IAEXXZ DD 019930522H
	DD	02H
	DD	FLAT:__unwindtable$?SetNoScroll@ioWebBrowser@@IAEXXZ
	DD	2 DUP(00H)
	DD	2 DUP(00H)
	DD	00H
	DD	01H
; Function compile flags: /Ogsp
; File d:\lost saga for developer\youtube\tutorial\source\src\lsclient\iowebbrowser.cpp
xdata$x	ENDS
;	COMDAT ?SetNoScroll@ioWebBrowser@@IAEXXZ
_TEXT	SEGMENT
_spUnk$508422 = -20					; size = 4
_spWinAmb$508535 = -16					; size = 4
__$EHRec$ = -12						; size = 12
?SetNoScroll@ioWebBrowser@@IAEXXZ PROC			; ioWebBrowser::SetNoScroll, COMDAT
; _this$ = ecx

; 809  : {

  00000	6a 08		 push	 8
  00002	b8 00 00 00 00	 mov	 eax, __ehhandler$?SetNoScroll@ioWebBrowser@@IAEXXZ
  00007	e8 00 00 00 00	 call	 __EH_prolog3

; 810  : 	if( m_BrowsePageType == BROWSE_FORMALITY_ENTRY || 
; 811  : 		m_BrowsePageType == BROWSE_GUILD_MARK      || 
; 812  : 		m_BrowsePageType == BROWSE_FILL_CASH       ||
; 813  : 		m_BrowsePageType == BROWSE_CASH_ENTRY		||
; 814  : 		m_BrowsePageType == BROWSE_WEB_SHOP )

  0000c	8b 41 08	 mov	 eax, DWORD PTR [ecx+8]
  0000f	83 f8 02	 cmp	 eax, 2
  00012	74 14		 je	 SHORT $LN2@SetNoScrol
  00014	83 f8 03	 cmp	 eax, 3
  00017	74 0f		 je	 SHORT $LN2@SetNoScrol
  00019	83 f8 04	 cmp	 eax, 4
  0001c	74 0a		 je	 SHORT $LN2@SetNoScrol
  0001e	83 f8 05	 cmp	 eax, 5
  00021	74 05		 je	 SHORT $LN2@SetNoScrol
  00023	83 f8 06	 cmp	 eax, 6
  00026	75 5f		 jne	 SHORT $LN34@SetNoScrol
$LN2@SetNoScrol:

; 815  : 	{
; 816  : 		UnknownComPtr spUnk;

  00028	83 65 ec 00	 and	 DWORD PTR _spUnk$508422[ebp], 0
  0002c	83 65 fc 00	 and	 DWORD PTR __$EHRec$[ebp+8], 0

; 817  : 		if(  AtlAxGetHost( m_hExplorer, &spUnk ) == S_OK )

  00030	8d 45 ec	 lea	 eax, DWORD PTR _spUnk$508422[ebp]
  00033	50		 push	 eax
  00034	ff 71 14	 push	 DWORD PTR [ecx+20]
  00037	e8 00 00 00 00	 call	 _AtlAxGetHost@8
  0003c	8b 75 ec	 mov	 esi, DWORD PTR _spUnk$508422[ebp]
  0003f	85 c0		 test	 eax, eax
  00041	75 36		 jne	 SHORT $LN29@SetNoScrol

; 818  : 		{
; 819  : 			CComQIPtr< IAxWinAmbientDispatch> spWinAmb( spUnk );

  00043	83 65 f0 00	 and	 DWORD PTR _spWinAmb$508535[ebp], 0
  00047	85 f6		 test	 esi, esi
  00049	74 0e		 je	 SHORT $LN16@SetNoScrol
  0004b	8b 06		 mov	 eax, DWORD PTR [esi]
  0004d	8d 4d f0	 lea	 ecx, DWORD PTR _spWinAmb$508535[ebp]
  00050	51		 push	 ecx
  00051	68 00 00 00 00	 push	 OFFSET __GUID_b6ea2051_048a_11d1_82b9_00c04fb9942e
  00056	56		 push	 esi
  00057	ff 10		 call	 DWORD PTR [eax]
$LN16@SetNoScrol:

; 820  : 			spWinAmb->put_DocHostFlags(DOCHOSTUIFLAG_SCROLL_NO|DOCHOSTUIFLAG_NO3DBORDER );

  00059	8b 45 f0	 mov	 eax, DWORD PTR _spWinAmb$508535[ebp]
  0005c	8b 08		 mov	 ecx, DWORD PTR [eax]
  0005e	6a 0c		 push	 12			; 0000000cH
  00060	50		 push	 eax
  00061	c6 45 fc 01	 mov	 BYTE PTR __$EHRec$[ebp+8], 1
  00065	ff 51 64	 call	 DWORD PTR [ecx+100]

; 821  : 		}

  00068	8b 45 f0	 mov	 eax, DWORD PTR _spWinAmb$508535[ebp]
  0006b	c6 45 fc 00	 mov	 BYTE PTR __$EHRec$[ebp+8], 0
  0006f	85 c0		 test	 eax, eax
  00071	74 06		 je	 SHORT $LN29@SetNoScrol
  00073	8b 08		 mov	 ecx, DWORD PTR [eax]
  00075	50		 push	 eax
  00076	ff 51 08	 call	 DWORD PTR [ecx+8]
$LN29@SetNoScrol:

; 822  : 	}

  00079	83 4d fc ff	 or	 DWORD PTR __$EHRec$[ebp+8], -1
  0007d	85 f6		 test	 esi, esi
  0007f	74 06		 je	 SHORT $LN34@SetNoScrol
  00081	8b 06		 mov	 eax, DWORD PTR [esi]
  00083	56		 push	 esi
  00084	ff 50 08	 call	 DWORD PTR [eax+8]
$LN34@SetNoScrol:

; 823  : }

  00087	e8 00 00 00 00	 call	 __EH_epilog3
  0008c	c3		 ret	 0
_TEXT	ENDS
;	COMDAT text$x
text$x	SEGMENT
__unwindfunclet$?SetNoScroll@ioWebBrowser@@IAEXXZ$0:
  00000	8d 4d ec	 lea	 ecx, DWORD PTR _spUnk$508422[ebp]
  00003	e9 00 00 00 00	 jmp	 ??1?$CComPtr@UIUnknown@@@ATL@@QAE@XZ
__unwindfunclet$?SetNoScroll@ioWebBrowser@@IAEXXZ$1:
  00008	8d 4d f0	 lea	 ecx, DWORD PTR _spWinAmb$508535[ebp]
  0000b	e9 00 00 00 00	 jmp	 ??1?$CComQIPtr@UIAxWinAmbientDispatch@@$1?_GUID_b6ea2051_048a_11d1_82b9_00c04fb9942e@@3U__s_GUID@@B@ATL@@QAE@XZ
__ehhandler$?SetNoScroll@ioWebBrowser@@IAEXXZ:
  00010	8b 54 24 08	 mov	 edx, DWORD PTR [esp+8]
  00014	8d 42 0c	 lea	 eax, DWORD PTR [edx+12]
  00017	8b 4a e8	 mov	 ecx, DWORD PTR [edx-24]
  0001a	33 c8		 xor	 ecx, eax
  0001c	e8 00 00 00 00	 call	 @__security_check_cookie@4
  00021	b8 00 00 00 00	 mov	 eax, OFFSET __ehfuncinfo$?SetNoScroll@ioWebBrowser@@IAEXXZ
  00026	e9 00 00 00 00	 jmp	 ___CxxFrameHandler3
text$x	ENDS
?SetNoScroll@ioWebBrowser@@IAEXXZ ENDP			; ioWebBrowser::SetNoScroll
PUBLIC	??$?8DU?$char_traits@D@std@@V?$allocator@D@1@@std@@YA_NABV?$basic_string@DU?$char_traits@D@std@@V?$allocator@D@2@@0@PBD@Z ; std::operator==<char,std::char_traits<char>,std::allocator<char> >
; Function compile flags: /Ogsp
; File c:\program files (x86)\microsoft visual studio 10.0\vc\include\string
;	COMDAT ??$?8DU?$char_traits@D@std@@V?$allocator@D@1@@std@@YA_NABV?$basic_string@DU?$char_traits@D@std@@V?$allocator@D@2@@0@PBD@Z
_TEXT	SEGMENT
__Left$ = 8						; size = 4
__Right$ = 12						; size = 4
??$?8DU?$char_traits@D@std@@V?$allocator@D@1@@std@@YA_NABV?$basic_string@DU?$char_traits@D@std@@V?$allocator@D@2@@0@PBD@Z PROC ; std::operator==<char,std::char_traits<char>,std::allocator<char> >, COMDAT

; 186  : 	{	// test for string vs. NTCS equality

  00000	55		 push	 ebp
  00001	8b ec		 mov	 ebp, esp

; 187  : 	return (_Left.compare(_Right) == 0);

  00003	ff 75 0c	 push	 DWORD PTR __Right$[ebp]
  00006	8b 4d 08	 mov	 ecx, DWORD PTR __Left$[ebp]
  00009	e8 00 00 00 00	 call	 ?compare@?$basic_string@DU?$char_traits@D@std@@V?$allocator@D@2@@std@@QBEHPBD@Z ; std::basic_string<char,std::char_traits<char>,std::allocator<char> >::compare
  0000e	f7 d8		 neg	 eax
  00010	1b c0		 sbb	 eax, eax
  00012	40		 inc	 eax

; 188  : 	}

  00013	5d		 pop	 ebp
  00014	c3		 ret	 0
??$?8DU?$char_traits@D@std@@V?$allocator@D@1@@std@@YA_NABV?$basic_string@DU?$char_traits@D@std@@V?$allocator@D@2@@0@PBD@Z ENDP ; std::operator==<char,std::char_traits<char>,std::allocator<char> >
_TEXT	ENDS
PUBLIC	__GUID_d30c1661_cdaf_11d0_8a3e_00c04fc9e26e
PUBLIC	??$?4UIUnknown@@@?$CComPtr@UIWebBrowser2@@@ATL@@QAEPAUIWebBrowser2@@ABV?$CComPtr@UIUnknown@@@1@@Z ; ATL::CComPtr<IWebBrowser2>::operator=<IUnknown>
;	COMDAT __GUID_d30c1661_cdaf_11d0_8a3e_00c04fc9e26e
; File c:\program files (x86)\microsoft visual studio 10.0\vc\atlmfc\include\atlcomcli.h
CONST	SEGMENT
__GUID_d30c1661_cdaf_11d0_8a3e_00c04fc9e26e DD 0d30c1661H
	DW	0cdafH
	DW	011d0H
	DB	08aH
	DB	03eH
	DB	00H
	DB	0c0H
	DB	04fH
	DB	0c9H
	DB	0e2H
	DB	06eH
; Function compile flags: /Ogsp
CONST	ENDS
;	COMDAT ??$?4UIUnknown@@@?$CComPtr@UIWebBrowser2@@@ATL@@QAEPAUIWebBrowser2@@ABV?$CComPtr@UIUnknown@@@1@@Z
_TEXT	SEGMENT
_lp$ = 8						; size = 4
??$?4UIUnknown@@@?$CComPtr@UIWebBrowser2@@@ATL@@QAEPAUIWebBrowser2@@ABV?$CComPtr@UIUnknown@@@1@@Z PROC ; ATL::CComPtr<IWebBrowser2>::operator=<IUnknown>, COMDAT
; _this$ = ecx

; 316  : 	T* operator=(_Inout_ const CComPtr<Q>& lp) throw()

  00000	55		 push	 ebp
  00001	8b ec		 mov	 ebp, esp
  00003	56		 push	 esi

; 317  : 	{
; 318  :         if( !IsEqualObject(lp) )

  00004	8b 75 08	 mov	 esi, DWORD PTR _lp$[ebp]
  00007	57		 push	 edi
  00008	ff 36		 push	 DWORD PTR [esi]
  0000a	8b f9		 mov	 edi, ecx
  0000c	e8 00 00 00 00	 call	 ?IsEqualObject@?$CComPtrBase@UIWebBrowser2@@@ATL@@QAE_NPAUIUnknown@@@Z ; ATL::CComPtrBase<IWebBrowser2>::IsEqualObject
  00011	84 c0		 test	 al, al
  00013	75 10		 jne	 SHORT $LN1@operator@3

; 319  :         {
; 320  :     		return static_cast<T*>(AtlComQIPtrAssign((IUnknown**)&p, lp, __uuidof(T)));

  00015	8b 36		 mov	 esi, DWORD PTR [esi]
  00017	68 00 00 00 00	 push	 OFFSET __GUID_d30c1661_cdaf_11d0_8a3e_00c04fc9e26e
  0001c	56		 push	 esi
  0001d	57		 push	 edi
  0001e	e8 00 00 00 00	 call	 ?AtlComQIPtrAssign@ATL@@YGPAUIUnknown@@PAPAU2@PAU2@ABU_GUID@@@Z ; ATL::AtlComQIPtrAssign
  00023	eb 02		 jmp	 SHORT $LN2@operator@3
$LN1@operator@3:

; 321  :         }
; 322  :         return *this;

  00025	8b 07		 mov	 eax, DWORD PTR [edi]
$LN2@operator@3:
  00027	5f		 pop	 edi
  00028	5e		 pop	 esi

; 323  : 	}

  00029	5d		 pop	 ebp
  0002a	c2 04 00	 ret	 4
??$?4UIUnknown@@@?$CComPtr@UIWebBrowser2@@@ATL@@QAEPAUIWebBrowser2@@ABV?$CComPtr@UIUnknown@@@1@@Z ENDP ; ATL::CComPtr<IWebBrowser2>::operator=<IUnknown>
_TEXT	ENDS
PUBLIC	??1?$basic_string@DU?$char_traits@D@std@@V?$allocator@D@2@@std@@QAE@XZ ; std::basic_string<char,std::char_traits<char>,std::allocator<char> >::~basic_string<char,std::char_traits<char>,std::allocator<char> >
; Function compile flags: /Ogsp
; File c:\program files (x86)\microsoft visual studio 10.0\vc\include\xstring
;	COMDAT ??1?$basic_string@DU?$char_traits@D@std@@V?$allocator@D@2@@std@@QAE@XZ
_TEXT	SEGMENT
??1?$basic_string@DU?$char_traits@D@std@@V?$allocator@D@2@@std@@QAE@XZ PROC ; std::basic_string<char,std::char_traits<char>,std::allocator<char> >::~basic_string<char,std::char_traits<char>,std::allocator<char> >, COMDAT
; _this$ = ecx

; 754  : 		_Tidy(true);

  00000	6a 00		 push	 0
  00002	6a 01		 push	 1
  00004	e8 00 00 00 00	 call	 ?_Tidy@?$basic_string@DU?$char_traits@D@std@@V?$allocator@D@2@@std@@QAEX_NI@Z ; std::basic_string<char,std::char_traits<char>,std::allocator<char> >::_Tidy

; 755  : 		}

  00009	c3		 ret	 0
??1?$basic_string@DU?$char_traits@D@std@@V?$allocator@D@2@@std@@QAE@XZ ENDP ; std::basic_string<char,std::char_traits<char>,std::allocator<char> >::~basic_string<char,std::char_traits<char>,std::allocator<char> >
_TEXT	ENDS
PUBLIC	?_Grow@?$basic_string@DU?$char_traits@D@std@@V?$allocator@D@2@@std@@QAE_NI_N@Z ; std::basic_string<char,std::char_traits<char>,std::allocator<char> >::_Grow
; Function compile flags: /Ogsp
;	COMDAT ?_Grow@?$basic_string@DU?$char_traits@D@std@@V?$allocator@D@2@@std@@QAE_NI_N@Z
_TEXT	SEGMENT
__Newsize$ = 8						; size = 4
__Trim$ = 12						; size = 1
?_Grow@?$basic_string@DU?$char_traits@D@std@@V?$allocator@D@2@@std@@QAE_NI_N@Z PROC ; std::basic_string<char,std::char_traits<char>,std::allocator<char> >::_Grow, COMDAT
; _this$ = ecx

; 1959 : 		{	// ensure buffer is big enough, trim to size if _Trim is true

  00000	55		 push	 ebp
  00001	8b ec		 mov	 ebp, esp
  00003	56		 push	 esi

; 1960 : 		if (max_size() < _Newsize)

  00004	8b 75 08	 mov	 esi, DWORD PTR __Newsize$[ebp]
  00007	83 fe fe	 cmp	 esi, -2			; fffffffeH
  0000a	76 0b		 jbe	 SHORT $LN6@Grow

; 1961 : 			_Xlen();	// result too long

  0000c	68 00 00 00 00	 push	 OFFSET ??_C@_0BA@JFNIOLAK@string?5too?5long?$AA@
  00011	ff 15 00 00 00
	00		 call	 DWORD PTR __imp_?_Xlength_error@std@@YAXPBD@Z
$LN31@Grow:
$LN6@Grow:

; 1962 : 		if (this->_Myres < _Newsize)

  00017	8b 41 14	 mov	 eax, DWORD PTR [ecx+20]
  0001a	3b c6		 cmp	 eax, esi
  0001c	73 0b		 jae	 SHORT $LN5@Grow

; 1963 : 			_Copy(_Newsize, this->_Mysize);	// reallocate to grow

  0001e	ff 71 10	 push	 DWORD PTR [ecx+16]
  00021	56		 push	 esi
  00022	e8 00 00 00 00	 call	 ?_Copy@?$basic_string@DU?$char_traits@D@std@@V?$allocator@D@2@@std@@QAEXII@Z ; std::basic_string<char,std::char_traits<char>,std::allocator<char> >::_Copy
  00027	eb 2e		 jmp	 SHORT $LN28@Grow
$LN5@Grow:

; 1964 : 		else if (_Trim && _Newsize < this->_BUF_SIZE)

  00029	33 d2		 xor	 edx, edx
  0002b	38 55 0c	 cmp	 BYTE PTR __Trim$[ebp], dl
  0002e	74 17		 je	 SHORT $LN3@Grow
  00030	83 fe 10	 cmp	 esi, 16			; 00000010H
  00033	73 12		 jae	 SHORT $LN3@Grow

; 1965 : 			_Tidy(true,	// copy and deallocate if trimming to small string
; 1966 : 				_Newsize < this->_Mysize ? _Newsize : this->_Mysize);

  00035	8b 41 10	 mov	 eax, DWORD PTR [ecx+16]
  00038	3b f0		 cmp	 esi, eax
  0003a	0f 42 c6	 cmovb	 eax, esi
  0003d	50		 push	 eax
  0003e	6a 01		 push	 1
  00040	e8 00 00 00 00	 call	 ?_Tidy@?$basic_string@DU?$char_traits@D@std@@V?$allocator@D@2@@std@@QAEX_NI@Z ; std::basic_string<char,std::char_traits<char>,std::allocator<char> >::_Tidy
  00045	eb 10		 jmp	 SHORT $LN28@Grow
$LN3@Grow:

; 1967 : 		else if (_Newsize == 0)

  00047	3b f2		 cmp	 esi, edx
  00049	75 0c		 jne	 SHORT $LN28@Grow

; 1968 : 			_Eos(0);	// new size is zero, just null terminate

  0004b	89 51 10	 mov	 DWORD PTR [ecx+16], edx
  0004e	83 f8 10	 cmp	 eax, 16			; 00000010H
  00051	72 02		 jb	 SHORT $LN26@Grow
  00053	8b 09		 mov	 ecx, DWORD PTR [ecx]
$LN26@Grow:
  00055	88 11		 mov	 BYTE PTR [ecx], dl
$LN28@Grow:

; 1969 : 		return (0 < _Newsize);	// return true only if more work to do

  00057	33 c0		 xor	 eax, eax
  00059	3b c6		 cmp	 eax, esi
  0005b	1b c0		 sbb	 eax, eax
  0005d	f7 d8		 neg	 eax
  0005f	5e		 pop	 esi

; 1970 : 		}

  00060	5d		 pop	 ebp
  00061	c2 08 00	 ret	 8
$LN30@Grow:
?_Grow@?$basic_string@DU?$char_traits@D@std@@V?$allocator@D@2@@std@@QAE_NI_N@Z ENDP ; std::basic_string<char,std::char_traits<char>,std::allocator<char> >::_Grow
_TEXT	ENDS
PUBLIC	??_G?$basic_string@DU?$char_traits@D@std@@V?$allocator@D@2@@std@@QAEPAXI@Z ; std::basic_string<char,std::char_traits<char>,std::allocator<char> >::`scalar deleting destructor'
; Function compile flags: /Ogsp
;	COMDAT ??_G?$basic_string@DU?$char_traits@D@std@@V?$allocator@D@2@@std@@QAEPAXI@Z
_TEXT	SEGMENT
___flags$ = 8						; size = 4
??_G?$basic_string@DU?$char_traits@D@std@@V?$allocator@D@2@@std@@QAEPAXI@Z PROC ; std::basic_string<char,std::char_traits<char>,std::allocator<char> >::`scalar deleting destructor', COMDAT
; _this$ = ecx
  00000	55		 push	 ebp
  00001	8b ec		 mov	 ebp, esp
  00003	56		 push	 esi
  00004	6a 00		 push	 0
  00006	6a 01		 push	 1
  00008	8b f1		 mov	 esi, ecx
  0000a	e8 00 00 00 00	 call	 ?_Tidy@?$basic_string@DU?$char_traits@D@std@@V?$allocator@D@2@@std@@QAEX_NI@Z ; std::basic_string<char,std::char_traits<char>,std::allocator<char> >::_Tidy
  0000f	f6 45 08 01	 test	 BYTE PTR ___flags$[ebp], 1
  00013	74 07		 je	 SHORT $LN1@scalar@3
  00015	56		 push	 esi
  00016	e8 00 00 00 00	 call	 ??3@YAXPAX@Z		; operator delete
  0001b	59		 pop	 ecx
$LN1@scalar@3:
  0001c	8b c6		 mov	 eax, esi
  0001e	5e		 pop	 esi
  0001f	5d		 pop	 ebp
  00020	c2 04 00	 ret	 4
??_G?$basic_string@DU?$char_traits@D@std@@V?$allocator@D@2@@std@@QAEPAXI@Z ENDP ; std::basic_string<char,std::char_traits<char>,std::allocator<char> >::`scalar deleting destructor'
_TEXT	ENDS
PUBLIC	?_Free@_bstr_t@@AAEXXZ				; _bstr_t::_Free
; Function compile flags: /Ogsp
; File c:\program files (x86)\microsoft visual studio 10.0\vc\include\comutil.h
;	COMDAT ?_Free@_bstr_t@@AAEXXZ
_TEXT	SEGMENT
?_Free@_bstr_t@@AAEXXZ PROC				; _bstr_t::_Free, COMDAT
; _this$ = ecx

; 636  : {

  00000	56		 push	 esi
  00001	8b f1		 mov	 esi, ecx

; 637  :     if (m_Data != NULL) {

  00003	8b 0e		 mov	 ecx, DWORD PTR [esi]
  00005	85 c9		 test	 ecx, ecx
  00007	74 08		 je	 SHORT $LN1@Free@2

; 638  :         m_Data->Release();

  00009	e8 00 00 00 00	 call	 ?Release@Data_t@_bstr_t@@QAEKXZ ; _bstr_t::Data_t::Release

; 639  :         m_Data = NULL;

  0000e	83 26 00	 and	 DWORD PTR [esi], 0
$LN1@Free@2:
  00011	5e		 pop	 esi

; 640  :     }
; 641  : }

  00012	c3		 ret	 0
?_Free@_bstr_t@@AAEXXZ ENDP				; _bstr_t::_Free
_TEXT	ENDS
PUBLIC	?GetWebBrowser2ComPtr@ioWebBrowser@@QAE?AV?$CComPtr@UIWebBrowser2@@@ATL@@XZ ; ioWebBrowser::GetWebBrowser2ComPtr
; Function compile flags: /Ogsp
; File d:\lost saga for developer\youtube\tutorial\source\src\lsclient\iowebbrowser.cpp
;	COMDAT ?GetWebBrowser2ComPtr@ioWebBrowser@@QAE?AV?$CComPtr@UIWebBrowser2@@@ATL@@XZ
_TEXT	SEGMENT
$T510501 = -4						; size = 4
_pUnknown$ = 8						; size = 4
___$ReturnUdt$ = 8					; size = 4
?GetWebBrowser2ComPtr@ioWebBrowser@@QAE?AV?$CComPtr@UIWebBrowser2@@@ATL@@XZ PROC ; ioWebBrowser::GetWebBrowser2ComPtr, COMDAT
; _this$ = ecx

; 684  : {

  00000	55		 push	 ebp
  00001	8b ec		 mov	 ebp, esp
  00003	51		 push	 ecx
  00004	83 65 fc 00	 and	 DWORD PTR $T510501[ebp], 0
  00008	56		 push	 esi

; 685  : 	WebBrowser2ComPtr pBrowser;

  00009	8b 75 08	 mov	 esi, DWORD PTR ___$ReturnUdt$[ebp]
  0000c	83 26 00	 and	 DWORD PTR [esi], 0

; 686  : 
; 687  : 	UnknownComPtr pUnknown; 

  0000f	83 65 08 00	 and	 DWORD PTR _pUnknown$[ebp], 0

; 688  : 	if( AtlAxGetControl( m_hExplorer, &pUnknown ) == S_OK )

  00013	8d 45 08	 lea	 eax, DWORD PTR _pUnknown$[ebp]
  00016	50		 push	 eax
  00017	ff 71 14	 push	 DWORD PTR [ecx+20]
  0001a	e8 00 00 00 00	 call	 _AtlAxGetControl@8
  0001f	85 c0		 test	 eax, eax
  00021	75 0b		 jne	 SHORT $LN1@GetWebBrow

; 689  : 	{
; 690  : 		pBrowser = pUnknown;

  00023	8d 45 08	 lea	 eax, DWORD PTR _pUnknown$[ebp]
  00026	50		 push	 eax
  00027	8b ce		 mov	 ecx, esi
  00029	e8 00 00 00 00	 call	 ??$?4UIUnknown@@@?$CComPtr@UIWebBrowser2@@@ATL@@QAEPAUIWebBrowser2@@ABV?$CComPtr@UIUnknown@@@1@@Z ; ATL::CComPtr<IWebBrowser2>::operator=<IUnknown>
$LN1@GetWebBrow:

; 691  : 	}
; 692  : 
; 693  : 	return pBrowser;

  0002e	8b 45 08	 mov	 eax, DWORD PTR _pUnknown$[ebp]
  00031	85 c0		 test	 eax, eax
  00033	74 06		 je	 SHORT $LN19@GetWebBrow
  00035	8b 08		 mov	 ecx, DWORD PTR [eax]
  00037	50		 push	 eax
  00038	ff 51 08	 call	 DWORD PTR [ecx+8]
$LN19@GetWebBrow:
  0003b	8b c6		 mov	 eax, esi
  0003d	5e		 pop	 esi

; 694  : }

  0003e	c9		 leave
  0003f	c2 04 00	 ret	 4
?GetWebBrowser2ComPtr@ioWebBrowser@@QAE?AV?$CComPtr@UIWebBrowser2@@@ATL@@XZ ENDP ; ioWebBrowser::GetWebBrowser2ComPtr
_TEXT	ENDS
PUBLIC	?IsDownLoadComplete@ioWebBrowser@@QAE_NXZ	; ioWebBrowser::IsDownLoadComplete
;	COMDAT xdata$x
; File c:\program files (x86)\microsoft visual studio 10.0\vc\atlmfc\include\atlcomcli.h
xdata$x	SEGMENT
__unwindtable$?IsDownLoadComplete@ioWebBrowser@@QAE_NXZ DD 0ffffffffH
	DD	FLAT:__unwindfunclet$?IsDownLoadComplete@ioWebBrowser@@QAE_NXZ$0
__ehfuncinfo$?IsDownLoadComplete@ioWebBrowser@@QAE_NXZ DD 019930522H
	DD	01H
	DD	FLAT:__unwindtable$?IsDownLoadComplete@ioWebBrowser@@QAE_NXZ
	DD	2 DUP(00H)
	DD	2 DUP(00H)
	DD	00H
	DD	01H
; Function compile flags: /Ogsp
; File d:\lost saga for developer\youtube\tutorial\source\src\lsclient\iowebbrowser.cpp
xdata$x	ENDS
;	COMDAT ?IsDownLoadComplete@ioWebBrowser@@QAE_NXZ
_TEXT	SEGMENT
_kState$ = -24						; size = 4
_pBrowser$ = -20					; size = 4
_bBusy$508370 = -16					; size = 2
__$EHRec$ = -12						; size = 12
?IsDownLoadComplete@ioWebBrowser@@QAE_NXZ PROC		; ioWebBrowser::IsDownLoadComplete, COMDAT
; _this$ = ecx

; 697  : {

  00000	6a 0c		 push	 12			; 0000000cH
  00002	b8 00 00 00 00	 mov	 eax, __ehhandler$?IsDownLoadComplete@ioWebBrowser@@QAE_NXZ
  00007	e8 00 00 00 00	 call	 __EH_prolog3

; 698  : 	WebBrowser2ComPtr pBrowser = GetWebBrowser2ComPtr();

  0000c	8d 45 ec	 lea	 eax, DWORD PTR _pBrowser$[ebp]
  0000f	50		 push	 eax
  00010	e8 00 00 00 00	 call	 ?GetWebBrowser2ComPtr@ioWebBrowser@@QAE?AV?$CComPtr@UIWebBrowser2@@@ATL@@XZ ; ioWebBrowser::GetWebBrowser2ComPtr

; 699  : 	if( !pBrowser )	return false;

  00015	8b 45 ec	 mov	 eax, DWORD PTR _pBrowser$[ebp]
  00018	83 65 fc 00	 and	 DWORD PTR __$EHRec$[ebp+8], 0
  0001c	85 c0		 test	 eax, eax
  0001e	75 04		 jne	 SHORT $LN7@IsDownLoad

; 716  : 				else
; 717  : 					return false;

$LN34@IsDownLoad:

; 699  : 	if( !pBrowser )	return false;

  00020	32 c0		 xor	 al, al
  00022	eb 55		 jmp	 SHORT $LN8@IsDownLoad
$LN7@IsDownLoad:

; 700  : 
; 701  : 	READYSTATE kState;
; 702  : 	if( pBrowser->get_ReadyState( &kState ) == S_OK )

  00024	8b 08		 mov	 ecx, DWORD PTR [eax]
  00026	8d 55 e8	 lea	 edx, DWORD PTR _kState$[ebp]
  00029	52		 push	 edx
  0002a	50		 push	 eax
  0002b	ff 91 e0 00 00
	00		 call	 DWORD PTR [ecx+224]
  00031	85 c0		 test	 eax, eax
  00033	75 31		 jne	 SHORT $LN1@IsDownLoad

; 703  : 	{
; 704  : 		if( kState == READYSTATE_COMPLETE )

  00035	83 7d e8 04	 cmp	 DWORD PTR _kState$[ebp], 4

; 705  : 		{
; 706  : 			return true;

  00039	8b 45 ec	 mov	 eax, DWORD PTR _pBrowser$[ebp]
  0003c	74 2b		 je	 SHORT $LN44@IsDownLoad

; 707  : 		}
; 708  : 		else
; 709  : 		{
; 710  : 			// 0 == FALSE, -1 == TRUE 
; 711  : 			VARIANT_BOOL bBusy;
; 712  : 			if( pBrowser->get_Busy( &bBusy ) == S_OK )

  0003e	8b 08		 mov	 ecx, DWORD PTR [eax]
  00040	8d 55 f0	 lea	 edx, DWORD PTR _bBusy$508370[ebp]
  00043	52		 push	 edx
  00044	50		 push	 eax
  00045	ff 51 7c	 call	 DWORD PTR [ecx+124]
  00048	85 c0		 test	 eax, eax
  0004a	75 1a		 jne	 SHORT $LN1@IsDownLoad

; 713  : 			{
; 714  : 				if( bBusy == 0 )
; 715  : 					return true;

  0004c	83 4d fc ff	 or	 DWORD PTR __$EHRec$[ebp+8], -1
  00050	66 83 7d f0 00	 cmp	 WORD PTR _bBusy$508370[ebp], 0
  00055	8b 45 ec	 mov	 eax, DWORD PTR _pBrowser$[ebp]
  00058	74 13		 je	 SHORT $LN45@IsDownLoad

; 716  : 				else
; 717  : 					return false;

  0005a	85 c0		 test	 eax, eax
  0005c	74 c2		 je	 SHORT $LN34@IsDownLoad
  0005e	8b 08		 mov	 ecx, DWORD PTR [eax]
  00060	50		 push	 eax
  00061	ff 51 08	 call	 DWORD PTR [ecx+8]
  00064	eb ba		 jmp	 SHORT $LN34@IsDownLoad
$LN1@IsDownLoad:

; 718  : 			}
; 719  : 		}
; 720  : 	}
; 721  : 
; 722  : 	return true;

  00066	8b 45 ec	 mov	 eax, DWORD PTR _pBrowser$[ebp]
$LN44@IsDownLoad:
  00069	83 4d fc ff	 or	 DWORD PTR __$EHRec$[ebp+8], -1
$LN45@IsDownLoad:
  0006d	85 c0		 test	 eax, eax
  0006f	74 06		 je	 SHORT $LN39@IsDownLoad
  00071	8b 08		 mov	 ecx, DWORD PTR [eax]
  00073	50		 push	 eax
  00074	ff 51 08	 call	 DWORD PTR [ecx+8]
$LN39@IsDownLoad:
  00077	b0 01		 mov	 al, 1
$LN8@IsDownLoad:

; 723  : }

  00079	e8 00 00 00 00	 call	 __EH_epilog3
  0007e	c3		 ret	 0
_TEXT	ENDS
;	COMDAT text$x
text$x	SEGMENT
__unwindfunclet$?IsDownLoadComplete@ioWebBrowser@@QAE_NXZ$0:
  00000	8d 4d ec	 lea	 ecx, DWORD PTR _pBrowser$[ebp]
  00003	e9 00 00 00 00	 jmp	 ??1?$CComPtr@UIWebBrowser2@@@ATL@@QAE@XZ
__ehhandler$?IsDownLoadComplete@ioWebBrowser@@QAE_NXZ:
  00008	8b 54 24 08	 mov	 edx, DWORD PTR [esp+8]
  0000c	8d 42 0c	 lea	 eax, DWORD PTR [edx+12]
  0000f	8b 4a e4	 mov	 ecx, DWORD PTR [edx-28]
  00012	33 c8		 xor	 ecx, eax
  00014	e8 00 00 00 00	 call	 @__security_check_cookie@4
  00019	b8 00 00 00 00	 mov	 eax, OFFSET __ehfuncinfo$?IsDownLoadComplete@ioWebBrowser@@QAE_NXZ
  0001e	e9 00 00 00 00	 jmp	 ___CxxFrameHandler3
text$x	ENDS
?IsDownLoadComplete@ioWebBrowser@@QAE_NXZ ENDP		; ioWebBrowser::IsDownLoadComplete
PUBLIC	?assign@?$basic_string@DU?$char_traits@D@std@@V?$allocator@D@2@@std@@QAEAAV12@ABV12@II@Z ; std::basic_string<char,std::char_traits<char>,std::allocator<char> >::assign
; Function compile flags: /Ogsp
; File c:\program files (x86)\microsoft visual studio 10.0\vc\include\xstring
;	COMDAT ?assign@?$basic_string@DU?$char_traits@D@std@@V?$allocator@D@2@@std@@QAEAAV12@ABV12@II@Z
_TEXT	SEGMENT
__Right$ = 8						; size = 4
__Roff$ = 12						; size = 4
__Count$ = 16						; size = 4
?assign@?$basic_string@DU?$char_traits@D@std@@V?$allocator@D@2@@std@@QAEAAV12@ABV12@II@Z PROC ; std::basic_string<char,std::char_traits<char>,std::allocator<char> >::assign, COMDAT
; _this$ = ecx

; 893  : 		{	// assign _Right [_Roff, _Roff + _Count)

  00000	55		 push	 ebp
  00001	8b ec		 mov	 ebp, esp
  00003	53		 push	 ebx

; 894  : 		if (_Right.size() < _Roff)

  00004	8b 5d 08	 mov	 ebx, DWORD PTR __Right$[ebp]
  00007	8b 43 10	 mov	 eax, DWORD PTR [ebx+16]
  0000a	56		 push	 esi
  0000b	8b f1		 mov	 esi, ecx
  0000d	8b 4d 0c	 mov	 ecx, DWORD PTR __Roff$[ebp]
  00010	57		 push	 edi
  00011	3b c1		 cmp	 eax, ecx
  00013	73 0b		 jae	 SHORT $LN5@assign

; 895  : 			_Xran();	// _Roff off end

  00015	68 00 00 00 00	 push	 OFFSET ??_C@_0BI@CFPLBAOH@invalid?5string?5position?$AA@
  0001a	ff 15 00 00 00
	00		 call	 DWORD PTR __imp_?_Xout_of_range@std@@YAXPBD@Z
$LN34@assign:
$LN5@assign:

; 896  : 		size_type _Num = _Right.size() - _Roff;

  00020	2b c1		 sub	 eax, ecx
  00022	8b f8		 mov	 edi, eax

; 897  : 		if (_Count < _Num)

  00024	39 7d 10	 cmp	 DWORD PTR __Count$[ebp], edi

; 898  : 			_Num = _Count;	// trim _Num to size

  00027	0f 42 7d 10	 cmovb	 edi, DWORD PTR __Count$[ebp]

; 899  : 
; 900  : 		if (this == &_Right)

  0002b	3b f3		 cmp	 esi, ebx
  0002d	75 1a		 jne	 SHORT $LN3@assign

; 901  : 			erase((size_type)(_Roff + _Num)), erase(0, _Roff);	// substring

  0002f	03 f9		 add	 edi, ecx
  00031	6a ff		 push	 -1
  00033	57		 push	 edi
  00034	8b ce		 mov	 ecx, esi
  00036	e8 00 00 00 00	 call	 ?erase@?$basic_string@DU?$char_traits@D@std@@V?$allocator@D@2@@std@@QAEAAV12@II@Z ; std::basic_string<char,std::char_traits<char>,std::allocator<char> >::erase
  0003b	ff 75 0c	 push	 DWORD PTR __Roff$[ebp]
  0003e	8b ce		 mov	 ecx, esi
  00040	6a 00		 push	 0
  00042	e8 00 00 00 00	 call	 ?erase@?$basic_string@DU?$char_traits@D@std@@V?$allocator@D@2@@std@@QAEAAV12@II@Z ; std::basic_string<char,std::char_traits<char>,std::allocator<char> >::erase
  00047	eb 47		 jmp	 SHORT $LN31@assign
$LN3@assign:

; 902  : 		else if (_Grow(_Num))

  00049	6a 00		 push	 0
  0004b	57		 push	 edi
  0004c	8b ce		 mov	 ecx, esi
  0004e	e8 00 00 00 00	 call	 ?_Grow@?$basic_string@DU?$char_traits@D@std@@V?$allocator@D@2@@std@@QAE_NI_N@Z ; std::basic_string<char,std::char_traits<char>,std::allocator<char> >::_Grow
  00053	84 c0		 test	 al, al
  00055	74 39		 je	 SHORT $LN31@assign

; 903  : 			{	// make room and assign new stuff
; 904  : 			_Traits::copy(_Myptr(), _Right._Myptr() + _Roff, _Num);

  00057	83 7b 14 10	 cmp	 DWORD PTR [ebx+20], 16	; 00000010H
  0005b	72 04		 jb	 SHORT $LN17@assign
  0005d	8b 03		 mov	 eax, DWORD PTR [ebx]
  0005f	eb 02		 jmp	 SHORT $LN18@assign
$LN17@assign:
  00061	8b c3		 mov	 eax, ebx
$LN18@assign:
  00063	83 7e 14 10	 cmp	 DWORD PTR [esi+20], 16	; 00000010H
  00067	72 04		 jb	 SHORT $LN21@assign
  00069	8b 0e		 mov	 ecx, DWORD PTR [esi]
  0006b	eb 02		 jmp	 SHORT $LN22@assign
$LN21@assign:
  0006d	8b ce		 mov	 ecx, esi
$LN22@assign:
  0006f	03 45 0c	 add	 eax, DWORD PTR __Roff$[ebp]
  00072	57		 push	 edi
  00073	50		 push	 eax
  00074	51		 push	 ecx
  00075	e8 00 00 00 00	 call	 _memcpy
  0007a	83 c4 0c	 add	 esp, 12			; 0000000cH

; 905  : 			_Eos(_Num);

  0007d	83 7e 14 10	 cmp	 DWORD PTR [esi+20], 16	; 00000010H
  00081	89 7e 10	 mov	 DWORD PTR [esi+16], edi
  00084	72 04		 jb	 SHORT $LN29@assign
  00086	8b 06		 mov	 eax, DWORD PTR [esi]
  00088	eb 02		 jmp	 SHORT $LN30@assign
$LN29@assign:
  0008a	8b c6		 mov	 eax, esi
$LN30@assign:
  0008c	c6 04 38 00	 mov	 BYTE PTR [eax+edi], 0
$LN31@assign:

; 906  : 			}
; 907  : 		return (*this);

  00090	5f		 pop	 edi
  00091	8b c6		 mov	 eax, esi
  00093	5e		 pop	 esi
  00094	5b		 pop	 ebx

; 908  : 		}

  00095	5d		 pop	 ebp
  00096	c2 0c 00	 ret	 12			; 0000000cH
$LN33@assign:
?assign@?$basic_string@DU?$char_traits@D@std@@V?$allocator@D@2@@std@@QAEAAV12@ABV12@II@Z ENDP ; std::basic_string<char,std::char_traits<char>,std::allocator<char> >::assign
_TEXT	ENDS
PUBLIC	?assign@?$basic_string@DU?$char_traits@D@std@@V?$allocator@D@2@@std@@QAEAAV12@PBDI@Z ; std::basic_string<char,std::char_traits<char>,std::allocator<char> >::assign
; Function compile flags: /Ogsp
;	COMDAT ?assign@?$basic_string@DU?$char_traits@D@std@@V?$allocator@D@2@@std@@QAEAAV12@PBDI@Z
_TEXT	SEGMENT
__Ptr$ = 8						; size = 4
__Count$ = 12						; size = 4
?assign@?$basic_string@DU?$char_traits@D@std@@V?$allocator@D@2@@std@@QAEAAV12@PBDI@Z PROC ; std::basic_string<char,std::char_traits<char>,std::allocator<char> >::assign, COMDAT
; _this$ = ecx

; 911  : 		{	// assign [_Ptr, _Ptr + _Count)

  00000	55		 push	 ebp
  00001	8b ec		 mov	 ebp, esp
  00003	53		 push	 ebx

; 912  :  #if _ITERATOR_DEBUG_LEVEL == 2
; 913  : 		if (_Count != 0)
; 914  : 			_DEBUG_POINTER(_Ptr);
; 915  :  #endif /* _ITERATOR_DEBUG_LEVEL == 2 */
; 916  : 
; 917  : 		if (_Inside(_Ptr))

  00004	8b 5d 08	 mov	 ebx, DWORD PTR __Ptr$[ebp]
  00007	56		 push	 esi
  00008	53		 push	 ebx
  00009	8b f1		 mov	 esi, ecx
  0000b	e8 00 00 00 00	 call	 ?_Inside@?$basic_string@DU?$char_traits@D@std@@V?$allocator@D@2@@std@@QAE_NPBD@Z ; std::basic_string<char,std::char_traits<char>,std::allocator<char> >::_Inside
  00010	84 c0		 test	 al, al
  00012	74 1c		 je	 SHORT $LN2@assign@2

; 918  : 			return (assign(*this, _Ptr - _Myptr(), _Count));	// substring

  00014	83 7e 14 10	 cmp	 DWORD PTR [esi+20], 16	; 00000010H
  00018	72 04		 jb	 SHORT $LN7@assign@2
  0001a	8b 06		 mov	 eax, DWORD PTR [esi]
  0001c	eb 02		 jmp	 SHORT $LN8@assign@2
$LN7@assign@2:
  0001e	8b c6		 mov	 eax, esi
$LN8@assign@2:
  00020	ff 75 0c	 push	 DWORD PTR __Count$[ebp]
  00023	2b d8		 sub	 ebx, eax
  00025	53		 push	 ebx
  00026	56		 push	 esi
  00027	8b ce		 mov	 ecx, esi
  00029	e8 00 00 00 00	 call	 ?assign@?$basic_string@DU?$char_traits@D@std@@V?$allocator@D@2@@std@@QAEAAV12@ABV12@II@Z ; std::basic_string<char,std::char_traits<char>,std::allocator<char> >::assign
  0002e	eb 3f		 jmp	 SHORT $LN3@assign@2
$LN2@assign@2:
  00030	57		 push	 edi

; 919  : 
; 920  : 		if (_Grow(_Count))

  00031	8b 7d 0c	 mov	 edi, DWORD PTR __Count$[ebp]
  00034	6a 00		 push	 0
  00036	57		 push	 edi
  00037	8b ce		 mov	 ecx, esi
  00039	e8 00 00 00 00	 call	 ?_Grow@?$basic_string@DU?$char_traits@D@std@@V?$allocator@D@2@@std@@QAE_NI_N@Z ; std::basic_string<char,std::char_traits<char>,std::allocator<char> >::_Grow
  0003e	84 c0		 test	 al, al
  00040	74 2a		 je	 SHORT $LN21@assign@2

; 921  : 			{	// make room and assign new stuff
; 922  : 			_Traits::copy(_Myptr(), _Ptr, _Count);

  00042	83 7e 14 10	 cmp	 DWORD PTR [esi+20], 16	; 00000010H
  00046	72 04		 jb	 SHORT $LN11@assign@2
  00048	8b 06		 mov	 eax, DWORD PTR [esi]
  0004a	eb 02		 jmp	 SHORT $LN12@assign@2
$LN11@assign@2:
  0004c	8b c6		 mov	 eax, esi
$LN12@assign@2:
  0004e	57		 push	 edi
  0004f	53		 push	 ebx
  00050	50		 push	 eax
  00051	e8 00 00 00 00	 call	 _memcpy
  00056	83 c4 0c	 add	 esp, 12			; 0000000cH

; 923  : 			_Eos(_Count);

  00059	83 7e 14 10	 cmp	 DWORD PTR [esi+20], 16	; 00000010H
  0005d	89 7e 10	 mov	 DWORD PTR [esi+16], edi
  00060	72 04		 jb	 SHORT $LN19@assign@2
  00062	8b 06		 mov	 eax, DWORD PTR [esi]
  00064	eb 02		 jmp	 SHORT $LN20@assign@2
$LN19@assign@2:
  00066	8b c6		 mov	 eax, esi
$LN20@assign@2:
  00068	c6 04 38 00	 mov	 BYTE PTR [eax+edi], 0
$LN21@assign@2:

; 924  : 			}
; 925  : 		return (*this);

  0006c	8b c6		 mov	 eax, esi
  0006e	5f		 pop	 edi
$LN3@assign@2:
  0006f	5e		 pop	 esi
  00070	5b		 pop	 ebx

; 926  : 		}

  00071	5d		 pop	 ebp
  00072	c2 08 00	 ret	 8
?assign@?$basic_string@DU?$char_traits@D@std@@V?$allocator@D@2@@std@@QAEAAV12@PBDI@Z ENDP ; std::basic_string<char,std::char_traits<char>,std::allocator<char> >::assign
_TEXT	ENDS
PUBLIC	??$_Destroy@V?$basic_string@DU?$char_traits@D@std@@V?$allocator@D@2@@std@@@std@@YAXPAV?$basic_string@DU?$char_traits@D@std@@V?$allocator@D@2@@0@@Z ; std::_Destroy<std::basic_string<char,std::char_traits<char>,std::allocator<char> > >
; Function compile flags: /Ogsp
; File c:\program files (x86)\microsoft visual studio 10.0\vc\include\xmemory
;	COMDAT ??$_Destroy@V?$basic_string@DU?$char_traits@D@std@@V?$allocator@D@2@@std@@@std@@YAXPAV?$basic_string@DU?$char_traits@D@std@@V?$allocator@D@2@@0@@Z
_TEXT	SEGMENT
__Ptr$ = 8						; size = 4
??$_Destroy@V?$basic_string@DU?$char_traits@D@std@@V?$allocator@D@2@@std@@@std@@YAXPAV?$basic_string@DU?$char_traits@D@std@@V?$allocator@D@2@@0@@Z PROC ; std::_Destroy<std::basic_string<char,std::char_traits<char>,std::allocator<char> > >, COMDAT

; 62   : 	{	// destroy object at _Ptr

  00000	55		 push	 ebp
  00001	8b ec		 mov	 ebp, esp

; 63   : 	_Ptr->~_Ty();

  00003	8b 4d 08	 mov	 ecx, DWORD PTR __Ptr$[ebp]
  00006	6a 00		 push	 0
  00008	6a 01		 push	 1
