; Listing generated by Microsoft (R) Optimizing Compiler Version 16.00.30319.01 

	TITLE	D:\Lost Saga For Developer\Youtube\Tutorial\Source\src\LSClient\ioWhirlwndAttack.cpp
	.686P
	.XMM
	include listing.inc
	.model	flat

INCLUDELIB MSVCRT
INCLUDELIB OLDNAMES

PUBLIC	?_EEM_DS@?$deque@UD3DXVECTOR3@@V?$allocator@UD3DXVECTOR3@@@std@@@std@@2HB ; std::deque<D3DXVECTOR3,std::allocator<D3DXVECTOR3> >::_EEM_DS
;	COMDAT ?_EEM_DS@?$deque@UD3DXVECTOR3@@V?$allocator@UD3DXVECTOR3@@@std@@@std@@2HB
CONST	SEGMENT
?_EEM_DS@?$deque@UD3DXVECTOR3@@V?$allocator@UD3DXVECTOR3@@@std@@@std@@2HB DD 01H ; std::deque<D3DXVECTOR3,std::allocator<D3DXVECTOR3> >::_EEM_DS
CONST	ENDS
PUBLIC	?return5@@YAIXZ					; return5
; Function compile flags: /Ogsp
; File d:\lost saga for developer\youtube\tutorial\source\src\lsclient\stdafx.h
;	COMDAT ?return5@@YAIXZ
_TEXT	SEGMENT
?return5@@YAIXZ PROC					; return5, COMDAT

; 18   : 	__forceinline unsigned int return5() { __asm mov eax, 5 };

  00000	b8 05 00 00 00	 mov	 eax, 5
  00005	c3		 ret	 0
?return5@@YAIXZ ENDP					; return5
_TEXT	ENDS
PUBLIC	?return10@@YAIXZ				; return10
; Function compile flags: /Ogsp
;	COMDAT ?return10@@YAIXZ
_TEXT	SEGMENT
?return10@@YAIXZ PROC					; return10, COMDAT

; 21   : 	__forceinline unsigned int return10() { __asm mov eax, 10 };

  00000	b8 0a 00 00 00	 mov	 eax, 10			; 0000000aH
  00005	c3		 ret	 0
?return10@@YAIXZ ENDP					; return10
_TEXT	ENDS
PUBLIC	?GetCharName@ioBaseChar@@QBEABVioHashString@@XZ	; ioBaseChar::GetCharName
; Function compile flags: /Ogsp
; File d:\lost saga for developer\youtube\tutorial\source\src\lsclient\iobasechar.h
;	COMDAT ?GetCharName@ioBaseChar@@QBEABVioHashString@@XZ
_TEXT	SEGMENT
?GetCharName@ioBaseChar@@QBEABVioHashString@@XZ PROC	; ioBaseChar::GetCharName, COMDAT
; _this$ = ecx

; 2594 : 	inline const ioHashString& GetCharName() const { return m_Name; }

  00000	8d 81 d4 02 00
	00		 lea	 eax, DWORD PTR [ecx+724]
  00006	c3		 ret	 0
?GetCharName@ioBaseChar@@QBEABVioHashString@@XZ ENDP	; ioBaseChar::GetCharName
_TEXT	ENDS
PUBLIC	_sqrtf
EXTRN	__fltused:DWORD
EXTRN	__CIsqrt:PROC
; Function compile flags: /Ogsp
; File c:\program files (x86)\microsoft visual studio 10.0\vc\include\math.h
;	COMDAT _sqrtf
_TEXT	SEGMENT
tv69 = 8						; size = 4
__X$ = 8						; size = 4
_sqrtf	PROC						; COMDAT

; 434  :         {return ((float)sqrt((double)_X)); }

  00000	55		 push	 ebp
  00001	8b ec		 mov	 ebp, esp
  00003	d9 45 08	 fld	 DWORD PTR __X$[ebp]
  00006	e8 00 00 00 00	 call	 __CIsqrt
  0000b	d9 5d 08	 fstp	 DWORD PTR tv69[ebp]
  0000e	d9 45 08	 fld	 DWORD PTR tv69[ebp]
  00011	5d		 pop	 ebp
  00012	c3		 ret	 0
_sqrtf	ENDP
_TEXT	ENDS
PUBLIC	?GetTargetRot@ioBaseChar@@QBEABUD3DXQUATERNION@@XZ ; ioBaseChar::GetTargetRot
; Function compile flags: /Ogsp
; File d:\lost saga for developer\youtube\tutorial\source\src\lsclient\iobasechar.h
;	COMDAT ?GetTargetRot@ioBaseChar@@QBEABUD3DXQUATERNION@@XZ
_TEXT	SEGMENT
?GetTargetRot@ioBaseChar@@QBEABUD3DXQUATERNION@@XZ PROC	; ioBaseChar::GetTargetRot, COMDAT
; _this$ = ecx

; 2599 : 	inline const D3DXQUATERNION& GetTargetRot() const { return m_qtTargetRot; }

  00000	8d 81 a4 06 00
	00		 lea	 eax, DWORD PTR [ecx+1700]
  00006	c3		 ret	 0
?GetTargetRot@ioBaseChar@@QBEABUD3DXQUATERNION@@XZ ENDP	; ioBaseChar::GetTargetRot
_TEXT	ENDS
PUBLIC	??_7bad_alloc@std@@6B@				; std::bad_alloc::`vftable'
PUBLIC	??0bad_alloc@std@@QAE@PBD@Z			; std::bad_alloc::bad_alloc
PUBLIC	??_R4bad_alloc@std@@6B@				; std::bad_alloc::`RTTI Complete Object Locator'
PUBLIC	??_R0?AVbad_alloc@std@@@8			; std::bad_alloc `RTTI Type Descriptor'
PUBLIC	??_R3bad_alloc@std@@8				; std::bad_alloc::`RTTI Class Hierarchy Descriptor'
PUBLIC	??_R2bad_alloc@std@@8				; std::bad_alloc::`RTTI Base Class Array'
PUBLIC	??_R1A@?0A@EA@bad_alloc@std@@8			; std::bad_alloc::`RTTI Base Class Descriptor at (0,-1,0,64)'
PUBLIC	??_R1A@?0A@EA@exception@std@@8			; std::exception::`RTTI Base Class Descriptor at (0,-1,0,64)'
PUBLIC	??_R0?AVexception@std@@@8			; std::exception `RTTI Type Descriptor'
PUBLIC	??_R3exception@std@@8				; std::exception::`RTTI Class Hierarchy Descriptor'
PUBLIC	??_R2exception@std@@8				; std::exception::`RTTI Base Class Array'
EXTRN	__imp_??0exception@std@@QAE@ABQBD@Z:PROC
EXTRN	??_7type_info@@6B@:QWORD			; type_info::`vftable'
EXTRN	??_Ebad_alloc@std@@UAEPAXI@Z:PROC		; std::bad_alloc::`vector deleting destructor'
EXTRN	?what@exception@std@@UBEPBDXZ:PROC		; std::exception::what
;	COMDAT ??_R2exception@std@@8
; File c:\program files (x86)\microsoft visual studio 10.0\vc\include\exception
rdata$r	SEGMENT
??_R2exception@std@@8 DD FLAT:??_R1A@?0A@EA@exception@std@@8 ; std::exception::`RTTI Base Class Array'
rdata$r	ENDS
;	COMDAT ??_R3exception@std@@8
rdata$r	SEGMENT
??_R3exception@std@@8 DD 00H				; std::exception::`RTTI Class Hierarchy Descriptor'
	DD	00H
	DD	01H
	DD	FLAT:??_R2exception@std@@8
rdata$r	ENDS
;	COMDAT ??_R0?AVexception@std@@@8
_DATA	SEGMENT
??_R0?AVexception@std@@@8 DD FLAT:??_7type_info@@6B@	; std::exception `RTTI Type Descriptor'
	DD	00H
	DB	'.?AVexception@std@@', 00H
_DATA	ENDS
;	COMDAT ??_R1A@?0A@EA@exception@std@@8
rdata$r	SEGMENT
??_R1A@?0A@EA@exception@std@@8 DD FLAT:??_R0?AVexception@std@@@8 ; std::exception::`RTTI Base Class Descriptor at (0,-1,0,64)'
	DD	00H
	DD	00H
	DD	0ffffffffH
	DD	00H
	DD	040H
	DD	FLAT:??_R3exception@std@@8
rdata$r	ENDS
;	COMDAT ??_R1A@?0A@EA@bad_alloc@std@@8
rdata$r	SEGMENT
??_R1A@?0A@EA@bad_alloc@std@@8 DD FLAT:??_R0?AVbad_alloc@std@@@8 ; std::bad_alloc::`RTTI Base Class Descriptor at (0,-1,0,64)'
	DD	01H
	DD	00H
	DD	0ffffffffH
	DD	00H
	DD	040H
	DD	FLAT:??_R3bad_alloc@std@@8
rdata$r	ENDS
;	COMDAT ??_R2bad_alloc@std@@8
rdata$r	SEGMENT
??_R2bad_alloc@std@@8 DD FLAT:??_R1A@?0A@EA@bad_alloc@std@@8 ; std::bad_alloc::`RTTI Base Class Array'
	DD	FLAT:??_R1A@?0A@EA@exception@std@@8
rdata$r	ENDS
;	COMDAT ??_R3bad_alloc@std@@8
rdata$r	SEGMENT
??_R3bad_alloc@std@@8 DD 00H				; std::bad_alloc::`RTTI Class Hierarchy Descriptor'
	DD	00H
	DD	02H
	DD	FLAT:??_R2bad_alloc@std@@8
rdata$r	ENDS
;	COMDAT ??_R0?AVbad_alloc@std@@@8
_DATA	SEGMENT
??_R0?AVbad_alloc@std@@@8 DD FLAT:??_7type_info@@6B@	; std::bad_alloc `RTTI Type Descriptor'
	DD	00H
	DB	'.?AVbad_alloc@std@@', 00H
_DATA	ENDS
;	COMDAT ??_R4bad_alloc@std@@6B@
rdata$r	SEGMENT
??_R4bad_alloc@std@@6B@ DD 00H				; std::bad_alloc::`RTTI Complete Object Locator'
	DD	00H
	DD	00H
	DD	FLAT:??_R0?AVbad_alloc@std@@@8
	DD	FLAT:??_R3bad_alloc@std@@8
rdata$r	ENDS
;	COMDAT ??_7bad_alloc@std@@6B@
CONST	SEGMENT
??_7bad_alloc@std@@6B@ DD FLAT:??_R4bad_alloc@std@@6B@	; std::bad_alloc::`vftable'
	DD	FLAT:??_Ebad_alloc@std@@UAEPAXI@Z
	DD	FLAT:?what@exception@std@@UBEPBDXZ
; Function compile flags: /Ogsp
CONST	ENDS
;	COMDAT ??0bad_alloc@std@@QAE@PBD@Z
_TEXT	SEGMENT
__Message$ = 8						; size = 4
??0bad_alloc@std@@QAE@PBD@Z PROC			; std::bad_alloc::bad_alloc, COMDAT
; _this$ = ecx

; 345  : 		{	// construct from message string

  00000	55		 push	 ebp
  00001	8b ec		 mov	 ebp, esp
  00003	56		 push	 esi
  00004	8d 45 08	 lea	 eax, DWORD PTR __Message$[ebp]
  00007	50		 push	 eax
  00008	8b f1		 mov	 esi, ecx
  0000a	ff 15 00 00 00
	00		 call	 DWORD PTR __imp_??0exception@std@@QAE@ABQBD@Z
  00010	c7 06 00 00 00
	00		 mov	 DWORD PTR [esi], OFFSET ??_7bad_alloc@std@@6B@

; 346  : 		}

  00016	8b c6		 mov	 eax, esi
  00018	5e		 pop	 esi
  00019	5d		 pop	 ebp
  0001a	c2 04 00	 ret	 4
??0bad_alloc@std@@QAE@PBD@Z ENDP			; std::bad_alloc::bad_alloc
_TEXT	ENDS
PUBLIC	??1bad_alloc@std@@UAE@XZ			; std::bad_alloc::~bad_alloc
EXTRN	__imp_??1exception@std@@UAE@XZ:PROC
; Function compile flags: /Ogsp
;	COMDAT ??1bad_alloc@std@@UAE@XZ
_TEXT	SEGMENT
??1bad_alloc@std@@UAE@XZ PROC				; std::bad_alloc::~bad_alloc, COMDAT
; _this$ = ecx

; 354  : 		{	// destroy the object

  00000	c7 01 00 00 00
	00		 mov	 DWORD PTR [ecx], OFFSET ??_7bad_alloc@std@@6B@

; 355  : 		}

  00006	ff 25 00 00 00
	00		 jmp	 DWORD PTR __imp_??1exception@std@@UAE@XZ
??1bad_alloc@std@@UAE@XZ ENDP				; std::bad_alloc::~bad_alloc
_TEXT	ENDS
EXTRN	??3@YAXPAX@Z:PROC				; operator delete
; Function compile flags: /Ogsp
;	COMDAT ??_Gbad_alloc@std@@UAEPAXI@Z
_TEXT	SEGMENT
___flags$ = 8						; size = 4
??_Gbad_alloc@std@@UAEPAXI@Z PROC			; std::bad_alloc::`scalar deleting destructor', COMDAT
; _this$ = ecx
  00000	55		 push	 ebp
  00001	8b ec		 mov	 ebp, esp
  00003	56		 push	 esi
  00004	8b f1		 mov	 esi, ecx
  00006	c7 06 00 00 00
	00		 mov	 DWORD PTR [esi], OFFSET ??_7bad_alloc@std@@6B@
  0000c	ff 15 00 00 00
	00		 call	 DWORD PTR __imp_??1exception@std@@UAE@XZ
  00012	f6 45 08 01	 test	 BYTE PTR ___flags$[ebp], 1
  00016	74 07		 je	 SHORT $LN1@scalar
  00018	56		 push	 esi
  00019	e8 00 00 00 00	 call	 ??3@YAXPAX@Z		; operator delete
  0001e	59		 pop	 ecx
$LN1@scalar:
  0001f	8b c6		 mov	 eax, esi
  00021	5e		 pop	 esi
  00022	5d		 pop	 ebp
  00023	c2 04 00	 ret	 4
??_Gbad_alloc@std@@UAEPAXI@Z ENDP			; std::bad_alloc::`scalar deleting destructor'
_TEXT	ENDS
PUBLIC	??2@YAPAXIPAX@Z					; operator new
; Function compile flags: /Ogsp
; File c:\program files (x86)\microsoft visual studio 10.0\vc\include\new
;	COMDAT ??2@YAPAXIPAX@Z
_TEXT	SEGMENT
___formal$ = 8						; size = 4
__Where$ = 12						; size = 4
??2@YAPAXIPAX@Z PROC					; operator new, COMDAT

; 56   : 	{	// construct array with placement at _Where

  00000	55		 push	 ebp
  00001	8b ec		 mov	 ebp, esp

; 57   : 	return (_Where);

  00003	8b 45 0c	 mov	 eax, DWORD PTR __Where$[ebp]

; 58   : 	}

  00006	5d		 pop	 ebp
  00007	c3		 ret	 0
??2@YAPAXIPAX@Z ENDP					; operator new
_TEXT	ENDS
PUBLIC	??3@YAXPAX0@Z					; operator delete
; Function compile flags: /Ogsp
;	COMDAT ??3@YAXPAX0@Z
_TEXT	SEGMENT
___formal$ = 8						; size = 4
___formal$ = 12						; size = 4
??3@YAXPAX0@Z PROC					; operator delete, COMDAT

; 62   : 	}

  00000	c3		 ret	 0
??3@YAXPAX0@Z ENDP					; operator delete
_TEXT	ENDS
PUBLIC	??_R0?AVioWeapon@@@8				; ioWeapon `RTTI Type Descriptor'
PUBLIC	??_R0?AVioZoneEffectWeapon@@@8			; ioZoneEffectWeapon `RTTI Type Descriptor'
PUBLIC	?ToZoneEffectWeapon@@YAPAVioZoneEffectWeapon@@PAVioWeapon@@@Z ; ToZoneEffectWeapon
EXTRN	___RTDynamicCast:PROC
;	COMDAT ??_R0?AVioWeapon@@@8
; File d:\lost saga for developer\youtube\tutorial\source\src\lsclient\iozoneeffectweapon.h
_DATA	SEGMENT
??_R0?AVioWeapon@@@8 DD FLAT:??_7type_info@@6B@		; ioWeapon `RTTI Type Descriptor'
	DD	00H
	DB	'.?AVioWeapon@@', 00H
_DATA	ENDS
;	COMDAT ??_R0?AVioZoneEffectWeapon@@@8
_DATA	SEGMENT
??_R0?AVioZoneEffectWeapon@@@8 DD FLAT:??_7type_info@@6B@ ; ioZoneEffectWeapon `RTTI Type Descriptor'
	DD	00H
	DB	'.?AVioZoneEffectWeapon@@', 00H
; Function compile flags: /Ogsp
_DATA	ENDS
;	COMDAT ?ToZoneEffectWeapon@@YAPAVioZoneEffectWeapon@@PAVioWeapon@@@Z
_TEXT	SEGMENT
_pWeapon$ = 8						; size = 4
?ToZoneEffectWeapon@@YAPAVioZoneEffectWeapon@@PAVioWeapon@@@Z PROC ; ToZoneEffectWeapon, COMDAT

; 217  : {

  00000	55		 push	 ebp
  00001	8b ec		 mov	 ebp, esp
  00003	56		 push	 esi

; 218  : 	if( !pWeapon || pWeapon->GetType() != ioWeapon::WT_ZONE_EFFECT )

  00004	8b 75 08	 mov	 esi, DWORD PTR _pWeapon$[ebp]
  00007	85 f6		 test	 esi, esi
  00009	74 28		 je	 SHORT $LN1@ToZoneEffe
  0000b	8b 06		 mov	 eax, DWORD PTR [esi]
  0000d	8b ce		 mov	 ecx, esi
  0000f	ff 90 10 01 00
	00		 call	 DWORD PTR [eax+272]
  00015	83 f8 08	 cmp	 eax, 8
  00018	75 19		 jne	 SHORT $LN1@ToZoneEffe

; 220  : 
; 221  : 	return dynamic_cast< ioZoneEffectWeapon* >( pWeapon );

  0001a	6a 00		 push	 0
  0001c	68 00 00 00 00	 push	 OFFSET ??_R0?AVioZoneEffectWeapon@@@8
  00021	68 00 00 00 00	 push	 OFFSET ??_R0?AVioWeapon@@@8
  00026	6a 00		 push	 0
  00028	56		 push	 esi
  00029	e8 00 00 00 00	 call	 ___RTDynamicCast
  0002e	83 c4 14	 add	 esp, 20			; 00000014H
  00031	eb 02		 jmp	 SHORT $LN3@ToZoneEffe
$LN1@ToZoneEffe:

; 219  : 		return NULL;

  00033	33 c0		 xor	 eax, eax
$LN3@ToZoneEffe:
  00035	5e		 pop	 esi

; 222  : }

  00036	5d		 pop	 ebp
  00037	c3		 ret	 0
?ToZoneEffectWeapon@@YAPAVioZoneEffectWeapon@@PAVioWeapon@@@Z ENDP ; ToZoneEffectWeapon
_TEXT	ENDS
PUBLIC	?_Adopt@_Iterator_base0@std@@QAEXPBX@Z		; std::_Iterator_base0::_Adopt
; Function compile flags: /Ogsp
; File c:\program files (x86)\microsoft visual studio 10.0\vc\include\xutility
;	COMDAT ?_Adopt@_Iterator_base0@std@@QAEXPBX@Z
_TEXT	SEGMENT
___formal$ = 8						; size = 4
?_Adopt@_Iterator_base0@std@@QAEXPBX@Z PROC		; std::_Iterator_base0::_Adopt, COMDAT
; _this$ = ecx

; 49   : 		}

  00000	c2 04 00	 ret	 4
?_Adopt@_Iterator_base0@std@@QAEXPBX@Z ENDP		; std::_Iterator_base0::_Adopt
_TEXT	ENDS
PUBLIC	??_R0?AVioTraceWeapon7@@@8			; ioTraceWeapon7 `RTTI Type Descriptor'
PUBLIC	?ToTraceWeapon7@@YAPAVioTraceWeapon7@@PAVioWeapon@@@Z ; ToTraceWeapon7
;	COMDAT ??_R0?AVioTraceWeapon7@@@8
; File d:\lost saga for developer\youtube\tutorial\source\src\lsclient\iotraceweapon7.h
_DATA	SEGMENT
??_R0?AVioTraceWeapon7@@@8 DD FLAT:??_7type_info@@6B@	; ioTraceWeapon7 `RTTI Type Descriptor'
	DD	00H
	DB	'.?AVioTraceWeapon7@@', 00H
; Function compile flags: /Ogsp
_DATA	ENDS
;	COMDAT ?ToTraceWeapon7@@YAPAVioTraceWeapon7@@PAVioWeapon@@@Z
_TEXT	SEGMENT
_pWeapon$ = 8						; size = 4
?ToTraceWeapon7@@YAPAVioTraceWeapon7@@PAVioWeapon@@@Z PROC ; ToTraceWeapon7, COMDAT

; 121  : {

  00000	55		 push	 ebp
  00001	8b ec		 mov	 ebp, esp
  00003	56		 push	 esi

; 122  : 	if( !pWeapon || pWeapon->GetType() != ioWeapon::WT_TRACE7 )

  00004	8b 75 08	 mov	 esi, DWORD PTR _pWeapon$[ebp]
  00007	85 f6		 test	 esi, esi
  00009	74 28		 je	 SHORT $LN1@ToTraceWea
  0000b	8b 06		 mov	 eax, DWORD PTR [esi]
  0000d	8b ce		 mov	 ecx, esi
  0000f	ff 90 10 01 00
	00		 call	 DWORD PTR [eax+272]
  00015	83 f8 4c	 cmp	 eax, 76			; 0000004cH
  00018	75 19		 jne	 SHORT $LN1@ToTraceWea

; 124  : 
; 125  : 	return dynamic_cast< ioTraceWeapon7* >( pWeapon );

  0001a	6a 00		 push	 0
  0001c	68 00 00 00 00	 push	 OFFSET ??_R0?AVioTraceWeapon7@@@8
  00021	68 00 00 00 00	 push	 OFFSET ??_R0?AVioWeapon@@@8
  00026	6a 00		 push	 0
  00028	56		 push	 esi
  00029	e8 00 00 00 00	 call	 ___RTDynamicCast
  0002e	83 c4 14	 add	 esp, 20			; 00000014H
  00031	eb 02		 jmp	 SHORT $LN3@ToTraceWea
$LN1@ToTraceWea:

; 123  : 		return NULL;

  00033	33 c0		 xor	 eax, eax
$LN3@ToTraceWea:
  00035	5e		 pop	 esi

; 126  : }

  00036	5d		 pop	 ebp
  00037	c3		 ret	 0
?ToTraceWeapon7@@YAPAVioTraceWeapon7@@PAVioWeapon@@@Z ENDP ; ToTraceWeapon7
_TEXT	ENDS
PUBLIC	?SebCollisionMapForSkill@ioAdhesiveMissileWeapon4@@QAEX_N@Z ; ioAdhesiveMissileWeapon4::SebCollisionMapForSkill
; Function compile flags: /Ogsp
; File d:\lost saga for developer\youtube\tutorial\source\src\lsclient\ioadhesivemissileweapon4.h
;	COMDAT ?SebCollisionMapForSkill@ioAdhesiveMissileWeapon4@@QAEX_N@Z
_TEXT	SEGMENT
_bColl$ = 8						; size = 1
?SebCollisionMapForSkill@ioAdhesiveMissileWeapon4@@QAEX_N@Z PROC ; ioAdhesiveMissileWeapon4::SebCollisionMapForSkill, COMDAT
; _this$ = ecx

; 113  : 	void SebCollisionMapForSkill( bool bColl ){ m_bCollisionMapForSkill = bColl; }

  00000	55		 push	 ebp
  00001	8b ec		 mov	 ebp, esp
  00003	8a 45 08	 mov	 al, BYTE PTR _bColl$[ebp]
  00006	88 81 6e 09 00
	00		 mov	 BYTE PTR [ecx+2414], al
  0000c	5d		 pop	 ebp
  0000d	c2 04 00	 ret	 4
?SebCollisionMapForSkill@ioAdhesiveMissileWeapon4@@QAEX_N@Z ENDP ; ioAdhesiveMissileWeapon4::SebCollisionMapForSkill
_TEXT	ENDS
PUBLIC	??_R0?AVioAdhesiveMissileWeapon4@@@8		; ioAdhesiveMissileWeapon4 `RTTI Type Descriptor'
PUBLIC	?ToAdhesiveMissileWeapon4@@YAPAVioAdhesiveMissileWeapon4@@PAVioWeapon@@@Z ; ToAdhesiveMissileWeapon4
;	COMDAT ??_R0?AVioAdhesiveMissileWeapon4@@@8
_DATA	SEGMENT
??_R0?AVioAdhesiveMissileWeapon4@@@8 DD FLAT:??_7type_info@@6B@ ; ioAdhesiveMissileWeapon4 `RTTI Type Descriptor'
	DD	00H
	DB	'.?AVioAdhesiveMissileWeapon4@@', 00H
; Function compile flags: /Ogsp
_DATA	ENDS
;	COMDAT ?ToAdhesiveMissileWeapon4@@YAPAVioAdhesiveMissileWeapon4@@PAVioWeapon@@@Z
_TEXT	SEGMENT
_pWeapon$ = 8						; size = 4
?ToAdhesiveMissileWeapon4@@YAPAVioAdhesiveMissileWeapon4@@PAVioWeapon@@@Z PROC ; ToAdhesiveMissileWeapon4, COMDAT

; 128  : {

  00000	55		 push	 ebp
  00001	8b ec		 mov	 ebp, esp
  00003	56		 push	 esi

; 129  : 	if( !pWeapon || pWeapon->GetType() != ioWeapon::WT_ADHESIVE_MISSILE4 )

  00004	8b 75 08	 mov	 esi, DWORD PTR _pWeapon$[ebp]
  00007	85 f6		 test	 esi, esi
  00009	74 28		 je	 SHORT $LN1@ToAdhesive
  0000b	8b 06		 mov	 eax, DWORD PTR [esi]
  0000d	8b ce		 mov	 ecx, esi
  0000f	ff 90 10 01 00
	00		 call	 DWORD PTR [eax+272]
  00015	83 f8 4a	 cmp	 eax, 74			; 0000004aH
  00018	75 19		 jne	 SHORT $LN1@ToAdhesive

; 131  : 
; 132  : 	return dynamic_cast< ioAdhesiveMissileWeapon4* >( pWeapon );

  0001a	6a 00		 push	 0
  0001c	68 00 00 00 00	 push	 OFFSET ??_R0?AVioAdhesiveMissileWeapon4@@@8
  00021	68 00 00 00 00	 push	 OFFSET ??_R0?AVioWeapon@@@8
  00026	6a 00		 push	 0
  00028	56		 push	 esi
  00029	e8 00 00 00 00	 call	 ___RTDynamicCast
  0002e	83 c4 14	 add	 esp, 20			; 00000014H
  00031	eb 02		 jmp	 SHORT $LN3@ToAdhesive
$LN1@ToAdhesive:

; 130  : 		return NULL;

  00033	33 c0		 xor	 eax, eax
$LN3@ToAdhesive:
  00035	5e		 pop	 esi

; 133  : }

  00036	5d		 pop	 ebp
  00037	c3		 ret	 0
?ToAdhesiveMissileWeapon4@@YAPAVioAdhesiveMissileWeapon4@@PAVioWeapon@@@Z ENDP ; ToAdhesiveMissileWeapon4
_TEXT	ENDS
PUBLIC	?Init@ioWhirlwndAttack@@QAEXXZ			; ioWhirlwndAttack::Init
EXTRN	__imp_?Clear@ioHashString@@QAEXXZ:PROC
EXTRN	__imp_?VEC3_ZERO@ioMath@@2UD3DXVECTOR3@@A:BYTE
; Function compile flags: /Ogsp
; File d:\lost saga for developer\youtube\tutorial\source\src\lsclient\iowhirlwndattack.cpp
;	COMDAT ?Init@ioWhirlwndAttack@@QAEXXZ
_TEXT	SEGMENT
?Init@ioWhirlwndAttack@@QAEXXZ PROC			; ioWhirlwndAttack::Init, COMDAT
; _this$ = ecx

; 56   : 	m_SkillState				= SS_PRE;
; 57   : 
; 58   : 	m_dwLoopStartTime			= 0;
; 59   : 	m_dwPreFastMoveEndTime		= 0;	
; 60   : 	m_dwFastMoveEndEndTime		= 0;
; 61   : 	m_dwWhirlAttackEndTime		= 0;
; 62   : 
; 63   : 	m_LoopEndAttackEffectID		= 0;
; 64   : 	m_FastMoveMapEffectID		= 0;
; 65   : 			
; 66   : 	m_dwWhirlFastMoveIndex		= 0;
; 67   : 	m_dwWhirlAttackIndex		= 0;
; 68   : 
; 69   : 	m_fCurFastMoveRange			= 0.0f;

  00000	0f 57 c0	 xorps	 xmm0, xmm0
  00003	56		 push	 esi
  00004	57		 push	 edi
  00005	33 c0		 xor	 eax, eax
  00007	89 81 e4 10 00
	00		 mov	 DWORD PTR [ecx+4324], eax
  0000d	89 81 00 11 00
	00		 mov	 DWORD PTR [ecx+4352], eax
  00013	89 81 10 12 00
	00		 mov	 DWORD PTR [ecx+4624], eax
  00019	89 81 4c 12 00
	00		 mov	 DWORD PTR [ecx+4684], eax
  0001f	89 81 94 12 00
	00		 mov	 DWORD PTR [ecx+4756], eax
  00025	89 81 e0 11 00
	00		 mov	 DWORD PTR [ecx+4576], eax
  0002b	89 81 34 12 00
	00		 mov	 DWORD PTR [ecx+4660], eax
  00031	89 81 14 12 00
	00		 mov	 DWORD PTR [ecx+4628], eax
  00037	89 81 98 12 00
	00		 mov	 DWORD PTR [ecx+4760], eax
  0003d	f3 0f 11 81 20
	12 00 00	 movss	 DWORD PTR [ecx+4640], xmm0

; 70   : 	m_fMaxFastMoveRange			= 0.0f;

  00045	f3 0f 11 81 1c
	12 00 00	 movss	 DWORD PTR [ecx+4636], xmm0

; 71   : 
; 72   : 	m_bSetHandMesh				= false;

  0004d	88 81 0a 0f 00
	00		 mov	 BYTE PTR [ecx+3850], al

; 73   : 	m_bCircleOn					= false;

  00053	88 81 18 11 00
	00		 mov	 BYTE PTR [ecx+4376], al

; 74   : 	m_vAttackDir				= ioMath::VEC3_ZERO;

  00059	8b 35 00 00 00
	00		 mov	 esi, DWORD PTR __imp_?VEC3_ZERO@ioMath@@2UD3DXVECTOR3@@A
  0005f	8d b9 f0 11 00
	00		 lea	 edi, DWORD PTR [ecx+4592]
  00065	a5		 movsd
  00066	a5		 movsd
  00067	a5		 movsd

; 75   : 	m_vAttackPos				= ioMath::VEC3_ZERO;

  00068	8b 35 00 00 00
	00		 mov	 esi, DWORD PTR __imp_?VEC3_ZERO@ioMath@@2UD3DXVECTOR3@@A
  0006e	8d b9 e4 11 00
	00		 lea	 edi, DWORD PTR [ecx+4580]
  00074	a5		 movsd
  00075	a5		 movsd
  00076	a5		 movsd

; 76   : 	m_vCircleStartPos			= ioMath::VEC3_ZERO;

  00077	8b 35 00 00 00
	00		 mov	 esi, DWORD PTR __imp_?VEC3_ZERO@ioMath@@2UD3DXVECTOR3@@A
  0007d	8d b9 1c 11 00
	00		 lea	 edi, DWORD PTR [ecx+4380]
  00083	a5		 movsd
  00084	a5		 movsd
  00085	a5		 movsd
  00086	5f		 pop	 edi

; 77   : 
; 78   : 	m_szCurCircle.Clear();

  00087	81 c1 48 11 00
	00		 add	 ecx, 4424		; 00001148H
  0008d	5e		 pop	 esi
  0008e	ff 25 00 00 00
	00		 jmp	 DWORD PTR __imp_?Clear@ioHashString@@QAEXXZ
?Init@ioWhirlwndAttack@@QAEXXZ ENDP			; ioWhirlwndAttack::Init
_TEXT	ENDS
PUBLIC	?CheckWeaponItemMesh@ioWhirlwndAttack@@IAEXPAVioBaseChar@@@Z ; ioWhirlwndAttack::CheckWeaponItemMesh
EXTRN	?ChangeSkillWeaponMesh@ioBaseChar@@QAE_NPAVioSkill@@ABVioHashString@@_N@Z:PROC ; ioBaseChar::ChangeSkillWeaponMesh
EXTRN	__imp_?IsEmpty@ioHashString@@QBE_NXZ:PROC
EXTRN	?ShowWeaponItemMesh@ioBaseChar@@QAEX_N0@Z:PROC	; ioBaseChar::ShowWeaponItemMesh
; Function compile flags: /Ogsp
;	COMDAT ?CheckWeaponItemMesh@ioWhirlwndAttack@@IAEXPAVioBaseChar@@@Z
_TEXT	SEGMENT
_pChar$ = 8						; size = 4
?CheckWeaponItemMesh@ioWhirlwndAttack@@IAEXPAVioBaseChar@@@Z PROC ; ioWhirlwndAttack::CheckWeaponItemMesh, COMDAT
; _this$ = ecx

; 152  : {

  00000	55		 push	 ebp
  00001	8b ec		 mov	 ebp, esp
  00003	53		 push	 ebx
  00004	56		 push	 esi
  00005	8b f1		 mov	 esi, ecx

; 153  : 	if( m_bUseItemMesh )

  00007	33 db		 xor	 ebx, ebx
  00009	38 9e 08 0f 00
	00		 cmp	 BYTE PTR [esi+3848], bl
  0000f	74 0a		 je	 SHORT $LN2@CheckWeapo

; 154  : 	{
; 155  : 		pChar->ShowWeaponItemMesh( false );

  00011	8b 4d 08	 mov	 ecx, DWORD PTR _pChar$[ebp]
  00014	53		 push	 ebx
  00015	53		 push	 ebx
  00016	e8 00 00 00 00	 call	 ?ShowWeaponItemMesh@ioBaseChar@@QAEX_N0@Z ; ioBaseChar::ShowWeaponItemMesh
$LN2@CheckWeapo:

; 156  : 	}
; 157  : 	if( !m_bSetHandMesh && m_bUseItemMesh && !m_HandMesh.IsEmpty() )

  0001b	38 9e 0a 0f 00
	00		 cmp	 BYTE PTR [esi+3850], bl
  00021	75 35		 jne	 SHORT $LN1@CheckWeapo
  00023	38 9e 08 0f 00
	00		 cmp	 BYTE PTR [esi+3848], bl
  00029	74 2d		 je	 SHORT $LN1@CheckWeapo
  0002b	57		 push	 edi
  0002c	8d be f8 0e 00
	00		 lea	 edi, DWORD PTR [esi+3832]
  00032	8b cf		 mov	 ecx, edi
  00034	ff 15 00 00 00
	00		 call	 DWORD PTR __imp_?IsEmpty@ioHashString@@QBE_NXZ
  0003a	84 c0		 test	 al, al
  0003c	75 19		 jne	 SHORT $LN5@CheckWeapo

; 158  : 	{
; 159  : 		pChar->ChangeSkillWeaponMesh( this, m_HandMesh, m_bVisibleEquipMesh );

  0003e	0f b6 86 09 0f
	00 00		 movzx	 eax, BYTE PTR [esi+3849]
  00045	8b 4d 08	 mov	 ecx, DWORD PTR _pChar$[ebp]
  00048	50		 push	 eax
  00049	57		 push	 edi
  0004a	56		 push	 esi
  0004b	e8 00 00 00 00	 call	 ?ChangeSkillWeaponMesh@ioBaseChar@@QAE_NPAVioSkill@@ABVioHashString@@_N@Z ; ioBaseChar::ChangeSkillWeaponMesh

; 160  : 		m_bSetHandMesh = true;

  00050	c6 86 0a 0f 00
	00 01		 mov	 BYTE PTR [esi+3850], 1
$LN5@CheckWeapo:
  00057	5f		 pop	 edi
$LN1@CheckWeapo:
  00058	5e		 pop	 esi
  00059	5b		 pop	 ebx

; 161  : 	}
; 162  : }

  0005a	5d		 pop	 ebp
  0005b	c2 04 00	 ret	 4
?CheckWeaponItemMesh@ioWhirlwndAttack@@IAEXPAVioBaseChar@@@Z ENDP ; ioWhirlwndAttack::CheckWeaponItemMesh
_TEXT	ENDS
PUBLIC	?CheckChopState@ioWhirlwndAttack@@IAEXPAVioBaseChar@@PAVioPlayStage@@@Z ; ioWhirlwndAttack::CheckChopState
EXTRN	__imp_?GetLoopSec@ioFrameTimer@@QBEKXZ:PROC
EXTRN	__imp_?GetSingleton@ioFrameTimer@@SAAAV1@XZ:PROC
; Function compile flags: /Ogsp
;	COMDAT ?CheckChopState@ioWhirlwndAttack@@IAEXPAVioBaseChar@@PAVioPlayStage@@@Z
_TEXT	SEGMENT
_pChar$ = 8						; size = 4
_pStage$ = 12						; size = 4
?CheckChopState@ioWhirlwndAttack@@IAEXPAVioBaseChar@@PAVioPlayStage@@@Z PROC ; ioWhirlwndAttack::CheckChopState, COMDAT
; _this$ = ecx

; 640  : {

  00000	56		 push	 esi
  00001	57		 push	 edi
  00002	8b f9		 mov	 edi, ecx

; 641  : 	if( 0 < m_dwMotionEndTime && m_dwMotionEndTime < FRAMEGETTIME() )

  00004	83 bf d8 02 00
	00 00		 cmp	 DWORD PTR [edi+728], 0
  0000b	76 20		 jbe	 SHORT $LN1@CheckChopS
  0000d	ff 15 00 00 00
	00		 call	 DWORD PTR __imp_?GetSingleton@ioFrameTimer@@SAAAV1@XZ
  00013	8b c8		 mov	 ecx, eax
  00015	ff 15 00 00 00
	00		 call	 DWORD PTR __imp_?GetLoopSec@ioFrameTimer@@QBEKXZ
  0001b	39 87 d8 02 00
	00		 cmp	 DWORD PTR [edi+728], eax
  00021	73 0a		 jae	 SHORT $LN1@CheckChopS

; 642  : 	{		
; 643  : 		m_SkillState = SS_END;

  00023	c7 87 e4 10 00
	00 09 00 00 00	 mov	 DWORD PTR [edi+4324], 9
$LN1@CheckChopS:
  0002d	5f		 pop	 edi
  0002e	5e		 pop	 esi

; 644  : 	}
; 645  : }

  0002f	c2 08 00	 ret	 8
?CheckChopState@ioWhirlwndAttack@@IAEXPAVioBaseChar@@PAVioPlayStage@@@Z ENDP ; ioWhirlwndAttack::CheckChopState
_TEXT	ENDS
PUBLIC	?SetWallAttack@ioWhirlwndAttack@@IAEXPAVioBaseChar@@PAVioPlayStage@@@Z ; ioWhirlwndAttack::SetWallAttack
EXTRN	?CheckAdhesiveWeapon4@ioWeaponManager@@QAEXABVioHashString@@@Z:PROC ; ioWeaponManager::CheckAdhesiveWeapon4
EXTRN	?GetSingleton@ioWeaponManager@@SAAAV1@XZ:PROC	; ioWeaponManager::GetSingleton
EXTRN	?AttackSkillFire@ioAttackSkill@@MAEXPAVioBaseChar@@@Z:PROC ; ioAttackSkill::AttackSkillFire
EXTRN	?SetSkillMoveEnable@ioBaseChar@@QAEX_N0@Z:PROC	; ioBaseChar::SetSkillMoveEnable
; Function compile flags: /Ogsp
;	COMDAT ?SetWallAttack@ioWhirlwndAttack@@IAEXPAVioBaseChar@@PAVioPlayStage@@@Z
_TEXT	SEGMENT
_this$ = -4						; size = 4
_pChar$ = 8						; size = 4
_pStage$ = 12						; size = 4
?SetWallAttack@ioWhirlwndAttack@@IAEXPAVioBaseChar@@PAVioPlayStage@@@Z PROC ; ioWhirlwndAttack::SetWallAttack, COMDAT
; _this$ = ecx

; 648  : {

  00000	55		 push	 ebp
  00001	8b ec		 mov	 ebp, esp
  00003	51		 push	 ecx
  00004	53		 push	 ebx

; 649  : 	pChar->SetSkillMoveEnable( false, false );

  00005	8b 5d 08	 mov	 ebx, DWORD PTR _pChar$[ebp]
  00008	56		 push	 esi
  00009	57		 push	 edi
  0000a	8b f9		 mov	 edi, ecx
  0000c	6a 00		 push	 0
  0000e	6a 00		 push	 0
  00010	8b cb		 mov	 ecx, ebx
  00012	89 7d fc	 mov	 DWORD PTR _this$[ebp], edi
  00015	e8 00 00 00 00	 call	 ?SetSkillMoveEnable@ioBaseChar@@QAEX_N0@Z ; ioBaseChar::SetSkillMoveEnable

; 650  : 	m_vAttackPos = pChar->GetWorldPosition();

  0001a	8b 03		 mov	 eax, DWORD PTR [ebx]
  0001c	8b cb		 mov	 ecx, ebx
  0001e	ff 50 70	 call	 DWORD PTR [eax+112]

; 651  : 
; 652  : 	m_SkillState = SS_WALL;

  00021	8b 4d fc	 mov	 ecx, DWORD PTR _this$[ebp]
  00024	81 c7 e4 11 00
	00		 add	 edi, 4580		; 000011e4H
  0002a	8b f0		 mov	 esi, eax
  0002c	a5		 movsd
  0002d	a5		 movsd
  0002e	a5		 movsd

; 653  : 
; 654  : 	//ioWhirlwndAttack::GetAttribute()에서 해당 스테이트에 맞는 공격을 던져줌
; 655  : 	ioAttackSkill::AttackSkillFire( pChar );

  0002f	53		 push	 ebx
  00030	c7 81 e4 10 00
	00 08 00 00 00	 mov	 DWORD PTR [ecx+4324], 8
  0003a	e8 00 00 00 00	 call	 ?AttackSkillFire@ioAttackSkill@@MAEXPAVioBaseChar@@@Z ; ioAttackSkill::AttackSkillFire

; 656  : 
; 657  : 	g_WeaponMgr.CheckAdhesiveWeapon4( pChar->GetCharName() );

  0003f	81 c3 d4 02 00
	00		 add	 ebx, 724		; 000002d4H
  00045	53		 push	 ebx
  00046	e8 00 00 00 00	 call	 ?GetSingleton@ioWeaponManager@@SAAAV1@XZ ; ioWeaponManager::GetSingleton
  0004b	8b c8		 mov	 ecx, eax
  0004d	e8 00 00 00 00	 call	 ?CheckAdhesiveWeapon4@ioWeaponManager@@QAEXABVioHashString@@@Z ; ioWeaponManager::CheckAdhesiveWeapon4
  00052	5f		 pop	 edi
  00053	5e		 pop	 esi
  00054	5b		 pop	 ebx

; 658  : }

  00055	c9		 leave
  00056	c2 08 00	 ret	 8
?SetWallAttack@ioWhirlwndAttack@@IAEXPAVioBaseChar@@PAVioPlayStage@@@Z ENDP ; ioWhirlwndAttack::SetWallAttack
_TEXT	ENDS
PUBLIC	?CheckWallState@ioWhirlwndAttack@@IAEXPAVioBaseChar@@PAVioPlayStage@@@Z ; ioWhirlwndAttack::CheckWallState
; Function compile flags: /Ogsp
;	COMDAT ?CheckWallState@ioWhirlwndAttack@@IAEXPAVioBaseChar@@PAVioPlayStage@@@Z
_TEXT	SEGMENT
_pChar$ = 8						; size = 4
_pStage$ = 12						; size = 4
?CheckWallState@ioWhirlwndAttack@@IAEXPAVioBaseChar@@PAVioPlayStage@@@Z PROC ; ioWhirlwndAttack::CheckWallState, COMDAT
; _this$ = ecx

; 661  : {

  00000	56		 push	 esi
  00001	57		 push	 edi
  00002	8b f9		 mov	 edi, ecx

; 662  : 	if( 0 < m_dwMotionEndTime && m_dwMotionEndTime < FRAMEGETTIME() )

  00004	83 bf d8 02 00
	00 00		 cmp	 DWORD PTR [edi+728], 0
  0000b	76 20		 jbe	 SHORT $LN1@CheckWallS
  0000d	ff 15 00 00 00
	00		 call	 DWORD PTR __imp_?GetSingleton@ioFrameTimer@@SAAAV1@XZ
  00013	8b c8		 mov	 ecx, eax
  00015	ff 15 00 00 00
	00		 call	 DWORD PTR __imp_?GetLoopSec@ioFrameTimer@@QBEKXZ
  0001b	39 87 d8 02 00
	00		 cmp	 DWORD PTR [edi+728], eax
  00021	73 0a		 jae	 SHORT $LN1@CheckWallS

; 663  : 	{		
; 664  : 		m_SkillState = SS_END;

  00023	c7 87 e4 10 00
	00 09 00 00 00	 mov	 DWORD PTR [edi+4324], 9
$LN1@CheckWallS:
  0002d	5f		 pop	 edi
  0002e	5e		 pop	 esi

; 665  : 	}
; 666  : }

  0002f	c2 08 00	 ret	 8
?CheckWallState@ioWhirlwndAttack@@IAEXPAVioBaseChar@@PAVioPlayStage@@@Z ENDP ; ioWhirlwndAttack::CheckWallState
_TEXT	ENDS
PUBLIC	?SetEnd@ioWhirlwndAttack@@IAEXPAVioBaseChar@@PAVioPlayStage@@@Z ; ioWhirlwndAttack::SetEnd
EXTRN	?ReduceNeedGaugeBySkill@ioBaseChar@@QAEMPAVioSkill@@M@Z:PROC ; ioBaseChar::ReduceNeedGaugeBySkill
EXTRN	?GetNeedGauge@ioSkill@@QAEMABVioHashString@@@Z:PROC ; ioSkill::GetNeedGauge
; Function compile flags: /Ogsp
;	COMDAT ?SetEnd@ioWhirlwndAttack@@IAEXPAVioBaseChar@@PAVioPlayStage@@@Z
_TEXT	SEGMENT
_pChar$ = 8						; size = 4
_pStage$ = 12						; size = 4
?SetEnd@ioWhirlwndAttack@@IAEXPAVioBaseChar@@PAVioPlayStage@@@Z PROC ; ioWhirlwndAttack::SetEnd, COMDAT
; _this$ = ecx

; 669  : {

  00000	55		 push	 ebp
  00001	8b ec		 mov	 ebp, esp
  00003	56		 push	 esi
  00004	8b f1		 mov	 esi, ecx

; 670  : 	m_SkillState = SS_END;
; 671  : 
; 672  : 	if( !m_bReduceGauge )

  00006	80 be 50 03 00
	00 00		 cmp	 BYTE PTR [esi+848], 0
  0000d	c7 86 e4 10 00
	00 09 00 00 00	 mov	 DWORD PTR [esi+4324], 9
  00017	75 26		 jne	 SHORT $LN1@SetEnd

; 673  : 	{
; 674  : 		pChar->ReduceNeedGaugeBySkill( this, GetNeedGauge( pChar->GetCharName() ) );

  00019	57		 push	 edi
  0001a	8b 7d 08	 mov	 edi, DWORD PTR _pChar$[ebp]
  0001d	8d 87 d4 02 00
	00		 lea	 eax, DWORD PTR [edi+724]
  00023	50		 push	 eax
  00024	e8 00 00 00 00	 call	 ?GetNeedGauge@ioSkill@@QAEMABVioHashString@@@Z ; ioSkill::GetNeedGauge
  00029	51		 push	 ecx
  0002a	d9 1c 24	 fstp	 DWORD PTR [esp]
  0002d	56		 push	 esi
  0002e	8b cf		 mov	 ecx, edi
  00030	e8 00 00 00 00	 call	 ?ReduceNeedGaugeBySkill@ioBaseChar@@QAEMPAVioSkill@@M@Z ; ioBaseChar::ReduceNeedGaugeBySkill
  00035	dd d8		 fstp	 ST(0)

; 675  : 		m_bReduceGauge = true;

  00037	c6 86 50 03 00
	00 01		 mov	 BYTE PTR [esi+848], 1
  0003e	5f		 pop	 edi
$LN1@SetEnd:
  0003f	5e		 pop	 esi

; 676  : 	}
; 677  : }

  00040	5d		 pop	 ebp
  00041	c2 08 00	 ret	 8
?SetEnd@ioWhirlwndAttack@@IAEXPAVioBaseChar@@PAVioPlayStage@@@Z ENDP ; ioWhirlwndAttack::SetEnd
_TEXT	ENDS
PUBLIC	?GetAttribute@ioWhirlwndAttack@@UAEAAUAttackAttribute@@XZ ; ioWhirlwndAttack::GetAttribute
EXTRN	?GetAttribute@ioAttackSkill@@UAEAAUAttackAttribute@@XZ:PROC ; ioAttackSkill::GetAttribute
; Function compile flags: /Ogsp
;	COMDAT ?GetAttribute@ioWhirlwndAttack@@UAEAAUAttackAttribute@@XZ
_TEXT	SEGMENT
?GetAttribute@ioWhirlwndAttack@@UAEAAUAttackAttribute@@XZ PROC ; ioWhirlwndAttack::GetAttribute, COMDAT
; _this$ = ecx

; 681  : 	switch( m_SkillState )

  00000	8b 81 e4 10 00
	00		 mov	 eax, DWORD PTR [ecx+4324]
  00006	48		 dec	 eax
  00007	48		 dec	 eax
  00008	74 11		 je	 SHORT $LN2@GetAttribu
  0000a	83 e8 06	 sub	 eax, 6
  0000d	74 05		 je	 SHORT $LN1@GetAttribu

; 687  : 	}
; 688  : 	
; 689  : 	return ioAttackSkill::GetAttribute();

  0000f	e9 00 00 00 00	 jmp	 ?GetAttribute@ioAttackSkill@@UAEAAUAttackAttribute@@XZ ; ioAttackSkill::GetAttribute
$LN1@GetAttribu:

; 685  : 	case SS_WALL:
; 686  : 		return m_WallEndAttack;

  00014	8d 81 a0 12 00
	00		 lea	 eax, DWORD PTR [ecx+4768]

; 690  : }

  0001a	c3		 ret	 0
$LN2@GetAttribu:

; 682  : 	{
; 683  : 	case SS_LOOP_END_ATTACK:
; 684  : 		return m_LoopEndAttack;

  0001b	8d 81 78 11 00
	00		 lea	 eax, DWORD PTR [ecx+4472]

; 690  : }

  00021	c3		 ret	 0
?GetAttribute@ioWhirlwndAttack@@UAEAAUAttackAttribute@@XZ ENDP ; ioWhirlwndAttack::GetAttribute
_TEXT	ENDS
PUBLIC	?GetAttributeConst@ioWhirlwndAttack@@UBEABUAttackAttribute@@XZ ; ioWhirlwndAttack::GetAttributeConst
EXTRN	?GetAttributeConst@ioAttackSkill@@UBEABUAttackAttribute@@XZ:PROC ; ioAttackSkill::GetAttributeConst
; Function compile flags: /Ogsp
;	COMDAT ?GetAttributeConst@ioWhirlwndAttack@@UBEABUAttackAttribute@@XZ
_TEXT	SEGMENT
?GetAttributeConst@ioWhirlwndAttack@@UBEABUAttackAttribute@@XZ PROC ; ioWhirlwndAttack::GetAttributeConst, COMDAT
; _this$ = ecx

; 694  : 	switch( m_SkillState )

  00000	8b 81 e4 10 00
	00		 mov	 eax, DWORD PTR [ecx+4324]
  00006	48		 dec	 eax
  00007	48		 dec	 eax
  00008	74 11		 je	 SHORT $LN2@GetAttribu@2
  0000a	83 e8 06	 sub	 eax, 6
  0000d	74 05		 je	 SHORT $LN1@GetAttribu@2

; 700  : 	}
; 701  : 
; 702  : 	return ioAttackSkill::GetAttributeConst();

  0000f	e9 00 00 00 00	 jmp	 ?GetAttributeConst@ioAttackSkill@@UBEABUAttackAttribute@@XZ ; ioAttackSkill::GetAttributeConst
$LN1@GetAttribu@2:

; 698  : 	case SS_WALL:
; 699  : 		return m_WallEndAttack;

  00014	8d 81 a0 12 00
	00		 lea	 eax, DWORD PTR [ecx+4768]

; 703  : }

  0001a	c3		 ret	 0
$LN2@GetAttribu@2:

; 695  : 	{
; 696  : 	case SS_LOOP_END_ATTACK:
; 697  : 		return m_LoopEndAttack;

  0001b	8d 81 78 11 00
	00		 lea	 eax, DWORD PTR [ecx+4472]

; 703  : }

  00021	c3		 ret	 0
?GetAttributeConst@ioWhirlwndAttack@@UBEABUAttackAttribute@@XZ ENDP ; ioWhirlwndAttack::GetAttributeConst
_TEXT	ENDS
PUBLIC	?IsSkillMotionEnd@ioWhirlwndAttack@@UBE_NKPAVioBaseChar@@@Z ; ioWhirlwndAttack::IsSkillMotionEnd
; Function compile flags: /Ogsp
;	COMDAT ?IsSkillMotionEnd@ioWhirlwndAttack@@UBE_NKPAVioBaseChar@@@Z
_TEXT	SEGMENT
_dwActionStop$ = 8					; size = 4
_pOwner$ = 12						; size = 4
?IsSkillMotionEnd@ioWhirlwndAttack@@UBE_NKPAVioBaseChar@@@Z PROC ; ioWhirlwndAttack::IsSkillMotionEnd, COMDAT
; _this$ = ecx

; 735  : 	if( m_dwPreDelayStartTime > 0 )

  00000	83 b9 20 02 00
	00 00		 cmp	 DWORD PTR [ecx+544], 0
  00007	76 04		 jbe	 SHORT $LN4@IsSkillMot

; 736  : 		return false;

  00009	32 c0		 xor	 al, al
  0000b	eb 0a		 jmp	 SHORT $LN2@IsSkillMot
$LN4@IsSkillMot:

; 737  : 
; 738  : 	switch( m_SkillState )

  0000d	83 b9 e4 10 00
	00 08		 cmp	 DWORD PTR [ecx+4324], 8
  00014	0f 97 c0	 seta	 al
$LN2@IsSkillMot:

; 739  : 	{
; 740  : 	case SS_PRE:
; 741  : 	case SS_LOOP:
; 742  : 	case SS_LOOP_END_ATTACK:
; 743  : 	case SS_FAST_MOVE_PRE:
; 744  : 	case SS_FAST_MOVE:
; 745  : 	case SS_FAST_MOVE_END:
; 746  : 	case SS_WHIRLWND_ATTACK:
; 747  : 	case SS_CHOP:
; 748  : 	case SS_WALL:
; 749  : 		return false;
; 750  : 	}
; 751  : 	
; 752  : 	return true;
; 753  : }

  00017	c2 08 00	 ret	 8
?IsSkillMotionEnd@ioWhirlwndAttack@@UBE_NKPAVioBaseChar@@@Z ENDP ; ioWhirlwndAttack::IsSkillMotionEnd
_TEXT	ENDS
PUBLIC	?IsAttackEndState@ioWhirlwndAttack@@UBE_NXZ	; ioWhirlwndAttack::IsAttackEndState
; Function compile flags: /Ogsp
;	COMDAT ?IsAttackEndState@ioWhirlwndAttack@@UBE_NXZ
_TEXT	SEGMENT
?IsAttackEndState@ioWhirlwndAttack@@UBE_NXZ PROC	; ioWhirlwndAttack::IsAttackEndState, COMDAT
; _this$ = ecx

; 757  : 	switch( m_SkillState )

  00000	83 b9 e4 10 00
	00 08		 cmp	 DWORD PTR [ecx+4324], 8
  00007	0f 97 c0	 seta	 al

; 758  : 	{
; 759  : 	case SS_PRE:
; 760  : 	case SS_LOOP:
; 761  : 	case SS_LOOP_END_ATTACK:
; 762  : 	case SS_FAST_MOVE_PRE:
; 763  : 	case SS_FAST_MOVE:
; 764  : 	case SS_FAST_MOVE_END:
; 765  : 	case SS_WHIRLWND_ATTACK:
; 766  : 	case SS_CHOP:
; 767  : 	case SS_WALL:
; 768  : 		return false;
; 769  : 	}
; 770  : 
; 771  : 	return true;
; 772  : }

  0000a	c3		 ret	 0
?IsAttackEndState@ioWhirlwndAttack@@UBE_NXZ ENDP	; ioWhirlwndAttack::IsAttackEndState
_TEXT	ENDS
PUBLIC	?CheckUseItemMesh@ioWhirlwndAttack@@UAE_NXZ	; ioWhirlwndAttack::CheckUseItemMesh
; Function compile flags: /Ogsp
;	COMDAT ?CheckUseItemMesh@ioWhirlwndAttack@@UAE_NXZ
_TEXT	SEGMENT
?CheckUseItemMesh@ioWhirlwndAttack@@UAE_NXZ PROC	; ioWhirlwndAttack::CheckUseItemMesh, COMDAT
; _this$ = ecx

; 776  : 	return m_bUseItemMesh;

  00000	8a 81 08 0f 00
	00		 mov	 al, BYTE PTR [ecx+3848]

; 777  : }

  00006	c3		 ret	 0
?CheckUseItemMesh@ioWhirlwndAttack@@UAE_NXZ ENDP	; ioWhirlwndAttack::CheckUseItemMesh
_TEXT	ENDS
PUBLIC	?IsSkipState@ioWhirlwndAttack@@UBE_NXZ		; ioWhirlwndAttack::IsSkipState
; Function compile flags: /Ogsp
;	COMDAT ?IsSkipState@ioWhirlwndAttack@@UBE_NXZ
_TEXT	SEGMENT
?IsSkipState@ioWhirlwndAttack@@UBE_NXZ PROC		; ioWhirlwndAttack::IsSkipState, COMDAT
; _this$ = ecx

; 839  : 	if( m_SkillState == SS_FAST_MOVE )

  00000	83 b9 e4 10 00
	00 04		 cmp	 DWORD PTR [ecx+4324], 4
  00007	0f 94 c0	 sete	 al

; 840  : 		return true;
; 841  : 
; 842  : 	return false;
; 843  : }

  0000a	c3		 ret	 0
?IsSkipState@ioWhirlwndAttack@@UBE_NXZ ENDP		; ioWhirlwndAttack::IsSkipState
_TEXT	ENDS
PUBLIC	?IsNoDropState@ioWhirlwndAttack@@UBE_NXZ	; ioWhirlwndAttack::IsNoDropState
; Function compile flags: /Ogsp
;	COMDAT ?IsNoDropState@ioWhirlwndAttack@@UBE_NXZ
_TEXT	SEGMENT
?IsNoDropState@ioWhirlwndAttack@@UBE_NXZ PROC		; ioWhirlwndAttack::IsNoDropState, COMDAT
; _this$ = ecx

; 847  : 	if( m_SkillState == SS_FAST_MOVE )

  00000	83 b9 e4 10 00
	00 04		 cmp	 DWORD PTR [ecx+4324], 4
  00007	0f 94 c0	 sete	 al

; 848  : 		return true;
; 849  : 
; 850  : 	return false;
; 851  : }

  0000a	c3		 ret	 0
?IsNoDropState@ioWhirlwndAttack@@UBE_NXZ ENDP		; ioWhirlwndAttack::IsNoDropState
_TEXT	ENDS
PUBLIC	??0D3DXVECTOR3@@QAE@XZ				; D3DXVECTOR3::D3DXVECTOR3
; Function compile flags: /Ogsp
; File c:\program files (x86)\microsoft directx sdk (june 2010)\include\d3dx9math.h
;	COMDAT ??0D3DXVECTOR3@@QAE@XZ
_TEXT	SEGMENT
??0D3DXVECTOR3@@QAE@XZ PROC				; D3DXVECTOR3::D3DXVECTOR3, COMDAT
; _this$ = ecx

; 165  :     D3DXVECTOR3() {};

  00000	8b c1		 mov	 eax, ecx
  00002	c3		 ret	 0
??0D3DXVECTOR3@@QAE@XZ ENDP				; D3DXVECTOR3::D3DXVECTOR3
_TEXT	ENDS
PUBLIC	??0D3DXQUATERNION@@QAE@XZ			; D3DXQUATERNION::D3DXQUATERNION
; Function compile flags: /Ogsp
;	COMDAT ??0D3DXQUATERNION@@QAE@XZ
_TEXT	SEGMENT
??0D3DXQUATERNION@@QAE@XZ PROC				; D3DXQUATERNION::D3DXQUATERNION, COMDAT
; _this$ = ecx

; 429  :     D3DXQUATERNION() {}

  00000	8b c1		 mov	 eax, ecx
  00002	c3		 ret	 0
??0D3DXQUATERNION@@QAE@XZ ENDP				; D3DXQUATERNION::D3DXQUATERNION
_TEXT	ENDS
PUBLIC	??0D3DXVECTOR3@@QAE@MMM@Z			; D3DXVECTOR3::D3DXVECTOR3
; Function compile flags: /Ogsp
; File c:\program files (x86)\microsoft directx sdk (june 2010)\include\d3dx9math.inl
;	COMDAT ??0D3DXVECTOR3@@QAE@MMM@Z
_TEXT	SEGMENT
_fx$ = 8						; size = 4
_fy$ = 12						; size = 4
_fz$ = 16						; size = 4
??0D3DXVECTOR3@@QAE@MMM@Z PROC				; D3DXVECTOR3::D3DXVECTOR3, COMDAT
; _this$ = ecx

; 303  : {

  00000	55		 push	 ebp
  00001	8b ec		 mov	 ebp, esp

; 304  :     x = fx;

  00003	f3 0f 10 45 08	 movss	 xmm0, DWORD PTR _fx$[ebp]
  00008	8b c1		 mov	 eax, ecx
  0000a	f3 0f 11 00	 movss	 DWORD PTR [eax], xmm0

; 305  :     y = fy;

  0000e	f3 0f 10 45 0c	 movss	 xmm0, DWORD PTR _fy$[ebp]
  00013	f3 0f 11 40 04	 movss	 DWORD PTR [eax+4], xmm0

; 306  :     z = fz;

  00018	f3 0f 10 45 10	 movss	 xmm0, DWORD PTR _fz$[ebp]
  0001d	f3 0f 11 40 08	 movss	 DWORD PTR [eax+8], xmm0

; 307  : }

  00022	5d		 pop	 ebp
  00023	c2 0c 00	 ret	 12			; 0000000cH
??0D3DXVECTOR3@@QAE@MMM@Z ENDP				; D3DXVECTOR3::D3DXVECTOR3
_TEXT	ENDS
PUBLIC	__mask@@NegFloat@
PUBLIC	??GD3DXVECTOR3@@QBE?AU0@XZ			; D3DXVECTOR3::operator-
;	COMDAT __mask@@NegFloat@
CONST	SEGMENT
__mask@@NegFloat@ DB 00H, 00H, 00H, 080H, 00H, 00H, 00H, 080H, 00H, 00H, 00H
	DB	080H, 00H, 00H, 00H, 080H
; Function compile flags: /Ogsp
CONST	ENDS
;	COMDAT ??GD3DXVECTOR3@@QBE?AU0@XZ
_TEXT	SEGMENT
___$ReturnUdt$ = 8					; size = 4
??GD3DXVECTOR3@@QBE?AU0@XZ PROC				; D3DXVECTOR3::operator-, COMDAT
; _this$ = ecx

; 372  : {

  00000	55		 push	 ebp
  00001	8b ec		 mov	 ebp, esp

; 373  :     return D3DXVECTOR3(-x, -y, -z);

  00003	f3 0f 10 05 00
	00 00 00	 movss	 xmm0, DWORD PTR __mask@@NegFloat@
  0000b	8b 45 08	 mov	 eax, DWORD PTR ___$ReturnUdt$[ebp]
  0000e	f3 0f 10 09	 movss	 xmm1, DWORD PTR [ecx]
  00012	0f 57 c8	 xorps	 xmm1, xmm0
  00015	f3 0f 11 08	 movss	 DWORD PTR [eax], xmm1
  00019	f3 0f 10 49 04	 movss	 xmm1, DWORD PTR [ecx+4]
  0001e	0f 57 c8	 xorps	 xmm1, xmm0
  00021	f3 0f 11 48 04	 movss	 DWORD PTR [eax+4], xmm1
  00026	f3 0f 10 49 08	 movss	 xmm1, DWORD PTR [ecx+8]
  0002b	0f 57 c8	 xorps	 xmm1, xmm0
  0002e	f3 0f 11 48 08	 movss	 DWORD PTR [eax+8], xmm1

; 374  : }

  00033	5d		 pop	 ebp
  00034	c2 04 00	 ret	 4
??GD3DXVECTOR3@@QBE?AU0@XZ ENDP				; D3DXVECTOR3::operator-
_TEXT	ENDS
PUBLIC	??HD3DXVECTOR3@@QBE?AU0@ABU0@@Z			; D3DXVECTOR3::operator+
; Function compile flags: /Ogsp
;	COMDAT ??HD3DXVECTOR3@@QBE?AU0@ABU0@@Z
_TEXT	SEGMENT
___$ReturnUdt$ = 8					; size = 4
_v$ = 12						; size = 4
??HD3DXVECTOR3@@QBE?AU0@ABU0@@Z PROC			; D3DXVECTOR3::operator+, COMDAT
; _this$ = ecx

; 380  : {

  00000	55		 push	 ebp
  00001	8b ec		 mov	 ebp, esp

; 381  :     return D3DXVECTOR3(x + v.x, y + v.y, z + v.z);

  00003	8b 55 0c	 mov	 edx, DWORD PTR _v$[ebp]
  00006	f3 0f 10 02	 movss	 xmm0, DWORD PTR [edx]
  0000a	f3 0f 10 09	 movss	 xmm1, DWORD PTR [ecx]
  0000e	8b 45 08	 mov	 eax, DWORD PTR ___$ReturnUdt$[ebp]
  00011	0f 5a c0	 cvtps2pd xmm0, xmm0
  00014	0f 5a c9	 cvtps2pd xmm1, xmm1
  00017	f2 0f 58 c1	 addsd	 xmm0, xmm1
  0001b	f3 0f 10 49 04	 movss	 xmm1, DWORD PTR [ecx+4]
  00020	66 0f 5a c0	 cvtpd2ps xmm0, xmm0
  00024	f3 0f 11 00	 movss	 DWORD PTR [eax], xmm0
  00028	f3 0f 10 42 04	 movss	 xmm0, DWORD PTR [edx+4]
  0002d	0f 5a c0	 cvtps2pd xmm0, xmm0
  00030	0f 5a c9	 cvtps2pd xmm1, xmm1
  00033	f2 0f 58 c1	 addsd	 xmm0, xmm1
  00037	f3 0f 10 49 08	 movss	 xmm1, DWORD PTR [ecx+8]
  0003c	66 0f 5a c0	 cvtpd2ps xmm0, xmm0
  00040	f3 0f 11 40 04	 movss	 DWORD PTR [eax+4], xmm0
  00045	f3 0f 10 42 08	 movss	 xmm0, DWORD PTR [edx+8]
  0004a	0f 5a c0	 cvtps2pd xmm0, xmm0
  0004d	0f 5a c9	 cvtps2pd xmm1, xmm1
  00050	f2 0f 58 c1	 addsd	 xmm0, xmm1
  00054	66 0f 5a c0	 cvtpd2ps xmm0, xmm0
  00058	f3 0f 11 40 08	 movss	 DWORD PTR [eax+8], xmm0

; 382  : }

  0005d	5d		 pop	 ebp
  0005e	c2 08 00	 ret	 8
??HD3DXVECTOR3@@QBE?AU0@ABU0@@Z ENDP			; D3DXVECTOR3::operator+
_TEXT	ENDS
PUBLIC	??GD3DXVECTOR3@@QBE?AU0@ABU0@@Z			; D3DXVECTOR3::operator-
; Function compile flags: /Ogsp
;	COMDAT ??GD3DXVECTOR3@@QBE?AU0@ABU0@@Z
_TEXT	SEGMENT
___$ReturnUdt$ = 8					; size = 4
_v$ = 12						; size = 4
??GD3DXVECTOR3@@QBE?AU0@ABU0@@Z PROC			; D3DXVECTOR3::operator-, COMDAT
; _this$ = ecx

; 386  : {

  00000	55		 push	 ebp
  00001	8b ec		 mov	 ebp, esp

; 387  :     return D3DXVECTOR3(x - v.x, y - v.y, z - v.z);

  00003	8b 55 0c	 mov	 edx, DWORD PTR _v$[ebp]
  00006	f3 0f 10 01	 movss	 xmm0, DWORD PTR [ecx]
  0000a	f3 0f 10 0a	 movss	 xmm1, DWORD PTR [edx]
  0000e	8b 45 08	 mov	 eax, DWORD PTR ___$ReturnUdt$[ebp]
  00011	0f 5a c0	 cvtps2pd xmm0, xmm0
  00014	0f 5a c9	 cvtps2pd xmm1, xmm1
  00017	f2 0f 5c c1	 subsd	 xmm0, xmm1
  0001b	f3 0f 10 4a 04	 movss	 xmm1, DWORD PTR [edx+4]
  00020	66 0f 5a c0	 cvtpd2ps xmm0, xmm0
  00024	f3 0f 11 00	 movss	 DWORD PTR [eax], xmm0
  00028	f3 0f 10 41 04	 movss	 xmm0, DWORD PTR [ecx+4]
  0002d	0f 5a c0	 cvtps2pd xmm0, xmm0
  00030	0f 5a c9	 cvtps2pd xmm1, xmm1
  00033	f2 0f 5c c1	 subsd	 xmm0, xmm1
  00037	f3 0f 10 4a 08	 movss	 xmm1, DWORD PTR [edx+8]
  0003c	66 0f 5a c0	 cvtpd2ps xmm0, xmm0
  00040	f3 0f 11 40 04	 movss	 DWORD PTR [eax+4], xmm0
  00045	f3 0f 10 41 08	 movss	 xmm0, DWORD PTR [ecx+8]
  0004a	0f 5a c0	 cvtps2pd xmm0, xmm0
  0004d	0f 5a c9	 cvtps2pd xmm1, xmm1
  00050	f2 0f 5c c1	 subsd	 xmm0, xmm1
  00054	66 0f 5a c0	 cvtpd2ps xmm0, xmm0
  00058	f3 0f 11 40 08	 movss	 DWORD PTR [eax+8], xmm0

; 388  : }

  0005d	5d		 pop	 ebp
  0005e	c2 08 00	 ret	 8
??GD3DXVECTOR3@@QBE?AU0@ABU0@@Z ENDP			; D3DXVECTOR3::operator-
_TEXT	ENDS
PUBLIC	??DD3DXVECTOR3@@QBE?AU0@M@Z			; D3DXVECTOR3::operator*
; Function compile flags: /Ogsp
;	COMDAT ??DD3DXVECTOR3@@QBE?AU0@M@Z
_TEXT	SEGMENT
___$ReturnUdt$ = 8					; size = 4
_f$ = 12						; size = 4
??DD3DXVECTOR3@@QBE?AU0@M@Z PROC			; D3DXVECTOR3::operator*, COMDAT
; _this$ = ecx

; 392  : {

  00000	55		 push	 ebp
  00001	8b ec		 mov	 ebp, esp

; 393  :     return D3DXVECTOR3(x * f, y * f, z * f);

  00003	f3 0f 10 4d 0c	 movss	 xmm1, DWORD PTR _f$[ebp]
  00008	f3 0f 10 01	 movss	 xmm0, DWORD PTR [ecx]
  0000c	8b 45 08	 mov	 eax, DWORD PTR ___$ReturnUdt$[ebp]
  0000f	0f 5a c0	 cvtps2pd xmm0, xmm0
  00012	0f 5a c9	 cvtps2pd xmm1, xmm1
  00015	f2 0f 59 c1	 mulsd	 xmm0, xmm1
  00019	f3 0f 10 4d 0c	 movss	 xmm1, DWORD PTR _f$[ebp]
  0001e	66 0f 5a c0	 cvtpd2ps xmm0, xmm0
  00022	f3 0f 11 00	 movss	 DWORD PTR [eax], xmm0
  00026	f3 0f 10 41 04	 movss	 xmm0, DWORD PTR [ecx+4]
  0002b	0f 5a c0	 cvtps2pd xmm0, xmm0
  0002e	0f 5a c9	 cvtps2pd xmm1, xmm1
  00031	f2 0f 59 c1	 mulsd	 xmm0, xmm1
  00035	f3 0f 10 4d 0c	 movss	 xmm1, DWORD PTR _f$[ebp]
  0003a	66 0f 5a c0	 cvtpd2ps xmm0, xmm0
  0003e	f3 0f 11 40 04	 movss	 DWORD PTR [eax+4], xmm0
  00043	f3 0f 10 41 08	 movss	 xmm0, DWORD PTR [ecx+8]
  00048	0f 5a c0	 cvtps2pd xmm0, xmm0
  0004b	0f 5a c9	 cvtps2pd xmm1, xmm1
  0004e	f2 0f 59 c1	 mulsd	 xmm0, xmm1
  00052	66 0f 5a c0	 cvtpd2ps xmm0, xmm0
  00056	f3 0f 11 40 08	 movss	 DWORD PTR [eax+8], xmm0

; 394  : }

  0005b	5d		 pop	 ebp
  0005c	c2 08 00	 ret	 8
??DD3DXVECTOR3@@QBE?AU0@M@Z ENDP			; D3DXVECTOR3::operator*
_TEXT	ENDS
PUBLIC	__real@3f91df46a2526c7a
PUBLIC	??$DEGtoRAD@M@@YAMM@Z				; DEGtoRAD<float>
;	COMDAT __real@3f91df46a2526c7a
; File d:\lost saga for developer\youtube\tutorial\source\src\lsclient\veryoftenusedefine.h
CONST	SEGMENT
__real@3f91df46a2526c7a DQ 03f91df46a2526c7ar	; 0.0174533
; Function compile flags: /Ogsp
CONST	ENDS
;	COMDAT ??$DEGtoRAD@M@@YAMM@Z
_TEXT	SEGMENT
tv129 = 8						; size = 4
_val$ = 8						; size = 4
??$DEGtoRAD@M@@YAMM@Z PROC				; DEGtoRAD<float>, COMDAT

; 20   : type  DEGtoRAD (type val) {return (type) (val * 0.0174532925199);}

  00000	55		 push	 ebp
  00001	8b ec		 mov	 ebp, esp
  00003	d9 45 08	 fld	 DWORD PTR _val$[ebp]
  00006	dc 0d 00 00 00
	00		 fmul	 QWORD PTR __real@3f91df46a2526c7a
  0000c	d9 5d 08	 fstp	 DWORD PTR tv129[ebp]
  0000f	d9 45 08	 fld	 DWORD PTR tv129[ebp]
  00012	5d		 pop	 ebp
  00013	c3		 ret	 0
??$DEGtoRAD@M@@YAMM@Z ENDP				; DEGtoRAD<float>
_TEXT	ENDS
PUBLIC	??$_Ptr_cat@V?$_Vector_const_iterator@V?$_Vector_val@UWeaponInfo@@V?$allocator@UWeaponInfo@@@std@@@std@@@std@@PAUWeaponInfo@@@std@@YA?AU_Nonscalar_ptr_iterator_tag@0@AAV?$_Vector_const_iterator@V?$_Vector_val@UWeaponInfo@@V?$allocator@UWeaponInfo@@@std@@@std@@@0@AAPAUWeaponInfo@@@Z ; std::_Ptr_cat<std::_Vector_const_iterator<std::_Vector_val<WeaponInfo,std::allocator<WeaponInfo> > >,WeaponInfo *>
; Function compile flags: /Ogsp
; File c:\program files (x86)\microsoft visual studio 10.0\vc\include\xutility
;	COMDAT ??$_Ptr_cat@V?$_Vector_const_iterator@V?$_Vector_val@UWeaponInfo@@V?$allocator@UWeaponInfo@@@std@@@std@@@std@@PAUWeaponInfo@@@std@@YA?AU_Nonscalar_ptr_iterator_tag@0@AAV?$_Vector_const_iterator@V?$_Vector_val@UWeaponInfo@@V?$allocator@UWeaponInfo@@@std@@@std@@@0@AAPAUWeaponInfo@@@Z
_TEXT	SEGMENT
__Cat$ = -1						; size = 1
___formal$ = 8						; size = 4
___formal$ = 12						; size = 4
??$_Ptr_cat@V?$_Vector_const_iterator@V?$_Vector_val@UWeaponInfo@@V?$allocator@UWeaponInfo@@@std@@@std@@@std@@PAUWeaponInfo@@@std@@YA?AU_Nonscalar_ptr_iterator_tag@0@AAV?$_Vector_const_iterator@V?$_Vector_val@UWeaponInfo@@V?$allocator@UWeaponInfo@@@std@@@std@@@0@AAPAUWeaponInfo@@@Z PROC ; std::_Ptr_cat<std::_Vector_const_iterator<std::_Vector_val<WeaponInfo,std::allocator<WeaponInfo> > >,WeaponInfo *>, COMDAT

; 485  : 	{	// return pointer category from arbitrary arguments

  00000	55		 push	 ebp
  00001	8b ec		 mov	 ebp, esp
  00003	51		 push	 ecx

; 486  : 	_Nonscalar_ptr_iterator_tag _Cat;
; 487  : 	return (_Cat);

  00004	8a 45 ff	 mov	 al, BYTE PTR __Cat$[ebp]

; 488  : 	}

  00007	c9		 leave
  00008	c3		 ret	 0
??$_Ptr_cat@V?$_Vector_const_iterator@V?$_Vector_val@UWeaponInfo@@V?$allocator@UWeaponInfo@@@std@@@std@@@std@@PAUWeaponInfo@@@std@@YA?AU_Nonscalar_ptr_iterator_tag@0@AAV?$_Vector_const_iterator@V?$_Vector_val@UWeaponInfo@@V?$allocator@UWeaponInfo@@@std@@@std@@@0@AAPAUWeaponInfo@@@Z ENDP ; std::_Ptr_cat<std::_Vector_const_iterator<std::_Vector_val<WeaponInfo,std::allocator<WeaponInfo> > >,WeaponInfo *>
_TEXT	ENDS
PUBLIC	??$_Ptr_cat@V?$_Vector_const_iterator@V?$_Vector_val@UForceInfo@@V?$allocator@UForceInfo@@@std@@@std@@@std@@PAUForceInfo@@@std@@YA?AU_Nonscalar_ptr_iterator_tag@0@AAV?$_Vector_const_iterator@V?$_Vector_val@UForceInfo@@V?$allocator@UForceInfo@@@std@@@std@@@0@AAPAUForceInfo@@@Z ; std::_Ptr_cat<std::_Vector_const_iterator<std::_Vector_val<ForceInfo,std::allocator<ForceInfo> > >,ForceInfo *>
; Function compile flags: /Ogsp
;	COMDAT ??$_Ptr_cat@V?$_Vector_const_iterator@V?$_Vector_val@UForceInfo@@V?$allocator@UForceInfo@@@std@@@std@@@std@@PAUForceInfo@@@std@@YA?AU_Nonscalar_ptr_iterator_tag@0@AAV?$_Vector_const_iterator@V?$_Vector_val@UForceInfo@@V?$allocator@UForceInfo@@@std@@@std@@@0@AAPAUForceInfo@@@Z
_TEXT	SEGMENT
__Cat$ = -1						; size = 1
___formal$ = 8						; size = 4
___formal$ = 12						; size = 4
??$_Ptr_cat@V?$_Vector_const_iterator@V?$_Vector_val@UForceInfo@@V?$allocator@UForceInfo@@@std@@@std@@@std@@PAUForceInfo@@@std@@YA?AU_Nonscalar_ptr_iterator_tag@0@AAV?$_Vector_const_iterator@V?$_Vector_val@UForceInfo@@V?$allocator@UForceInfo@@@std@@@std@@@0@AAPAUForceInfo@@@Z PROC ; std::_Ptr_cat<std::_Vector_const_iterator<std::_Vector_val<ForceInfo,std::allocator<ForceInfo> > >,ForceInfo *>, COMDAT

; 485  : 	{	// return pointer category from arbitrary arguments

  00000	55		 push	 ebp
  00001	8b ec		 mov	 ebp, esp
  00003	51		 push	 ecx

; 486  : 	_Nonscalar_ptr_iterator_tag _Cat;
; 487  : 	return (_Cat);

  00004	8a 45 ff	 mov	 al, BYTE PTR __Cat$[ebp]

; 488  : 	}

  00007	c9		 leave
  00008	c3		 ret	 0
??$_Ptr_cat@V?$_Vector_const_iterator@V?$_Vector_val@UForceInfo@@V?$allocator@UForceInfo@@@std@@@std@@@std@@PAUForceInfo@@@std@@YA?AU_Nonscalar_ptr_iterator_tag@0@AAV?$_Vector_const_iterator@V?$_Vector_val@UForceInfo@@V?$allocator@UForceInfo@@@std@@@std@@@0@AAPAUForceInfo@@@Z ENDP ; std::_Ptr_cat<std::_Vector_const_iterator<std::_Vector_val<ForceInfo,std::allocator<ForceInfo> > >,ForceInfo *>
_TEXT	ENDS
PUBLIC	?D3DXVec3Length@@YAMPBUD3DXVECTOR3@@@Z		; D3DXVec3Length
; Function compile flags: /Ogsp
; File c:\program files (x86)\microsoft directx sdk (june 2010)\include\d3dx9math.inl
;	COMDAT ?D3DXVec3Length@@YAMPBUD3DXVECTOR3@@@Z
_TEXT	SEGMENT
tv169 = 8						; size = 4
tv160 = 8						; size = 4
_pV$ = 8						; size = 4
?D3DXVec3Length@@YAMPBUD3DXVECTOR3@@@Z PROC		; D3DXVec3Length, COMDAT

; 1710 : {

  00000	55		 push	 ebp
  00001	8b ec		 mov	 ebp, esp

; 1711 : #ifdef D3DX_DEBUG
; 1712 :     if(!pV)
; 1713 :         return 0.0f;
; 1714 : #endif
; 1715 : 
; 1716 : #ifdef __cplusplus
; 1717 :     return sqrtf(pV->x * pV->x + pV->y * pV->y + pV->z * pV->z);

  00003	8b 45 08	 mov	 eax, DWORD PTR _pV$[ebp]
  00006	d9 40 04	 fld	 DWORD PTR [eax+4]
  00009	d9 00		 fld	 DWORD PTR [eax]
  0000b	d9 40 08	 fld	 DWORD PTR [eax+8]
  0000e	d9 c1		 fld	 ST(1)
  00010	de ca		 fmulp	 ST(2), ST(0)
  00012	d9 c2		 fld	 ST(2)
  00014	de cb		 fmulp	 ST(3), ST(0)
  00016	d9 c9		 fxch	 ST(1)
  00018	de c2		 faddp	 ST(2), ST(0)
  0001a	d9 c0		 fld	 ST(0)
  0001c	de c9		 fmulp	 ST(1), ST(0)
  0001e	de c1		 faddp	 ST(1), ST(0)
  00020	d9 5d 08	 fstp	 DWORD PTR tv169[ebp]
  00023	d9 45 08	 fld	 DWORD PTR tv169[ebp]
  00026	e8 00 00 00 00	 call	 __CIsqrt
  0002b	d9 5d 08	 fstp	 DWORD PTR tv160[ebp]
  0002e	d9 45 08	 fld	 DWORD PTR tv160[ebp]

; 1718 : #else
; 1719 :     return (FLOAT) sqrt(pV->x * pV->x + pV->y * pV->y + pV->z * pV->z);
; 1720 : #endif
; 1721 : }

  00031	5d		 pop	 ebp
  00032	c3		 ret	 0
?D3DXVec3Length@@YAMPBUD3DXVECTOR3@@@Z ENDP		; D3DXVec3Length
_TEXT	ENDS
PUBLIC	??D?$_Vector_const_iterator@V?$_Vector_val@UWeaponInfo@@V?$allocator@UWeaponInfo@@@std@@@std@@@std@@QBEABUWeaponInfo@@XZ ; std::_Vector_const_iterator<std::_Vector_val<WeaponInfo,std::allocator<WeaponInfo> > >::operator*
; Function compile flags: /Ogsp
; File c:\program files (x86)\microsoft visual studio 10.0\vc\include\vector
;	COMDAT ??D?$_Vector_const_iterator@V?$_Vector_val@UWeaponInfo@@V?$allocator@UWeaponInfo@@@std@@@std@@@std@@QBEABUWeaponInfo@@XZ
_TEXT	SEGMENT
??D?$_Vector_const_iterator@V?$_Vector_val@UWeaponInfo@@V?$allocator@UWeaponInfo@@@std@@@std@@@std@@QBEABUWeaponInfo@@XZ PROC ; std::_Vector_const_iterator<std::_Vector_val<WeaponInfo,std::allocator<WeaponInfo> > >::operator*, COMDAT
; _this$ = ecx

; 64   :  #if _ITERATOR_DEBUG_LEVEL == 2
; 65   : 		if (this->_Getcont() == 0
; 66   : 			|| this->_Ptr == 0
; 67   : 			|| this->_Ptr < ((_Myvec *)this->_Getcont())->_Myfirst
; 68   : 			|| ((_Myvec *)this->_Getcont())->_Mylast <= this->_Ptr)
; 69   : 			{	// report error
; 70   : 			_DEBUG_ERROR("vector iterator not dereferencable");
; 71   : 			_SCL_SECURE_OUT_OF_RANGE;
; 72   : 			}
; 73   : 
; 74   :  #elif _ITERATOR_DEBUG_LEVEL == 1
; 75   : 		_SCL_SECURE_VALIDATE(this->_Getcont() != 0);
; 76   : 		_SCL_SECURE_VALIDATE_RANGE(
; 77   : 			this->_Ptr != 0
; 78   : 			&& ((_Myvec *)this->_Getcont())->_Myfirst <= this->_Ptr
; 79   : 			&& this->_Ptr < ((_Myvec *)this->_Getcont())->_Mylast);
; 80   :  #endif /* _ITERATOR_DEBUG_LEVEL */
; 81   : 
; 82   : 		__analysis_assume(this->_Ptr != 0);
; 83   : 
; 84   : 		return (*this->_Ptr);

  00000	8b 01		 mov	 eax, DWORD PTR [ecx]

; 85   : 		}

  00002	c3		 ret	 0
??D?$_Vector_const_iterator@V?$_Vector_val@UWeaponInfo@@V?$allocator@UWeaponInfo@@@std@@@std@@@std@@QBEABUWeaponInfo@@XZ ENDP ; std::_Vector_const_iterator<std::_Vector_val<WeaponInfo,std::allocator<WeaponInfo> > >::operator*
_TEXT	ENDS
PUBLIC	??E?$_Vector_const_iterator@V?$_Vector_val@UWeaponInfo@@V?$allocator@UWeaponInfo@@@std@@@std@@@std@@QAEAAV01@XZ ; std::_Vector_const_iterator<std::_Vector_val<WeaponInfo,std::allocator<WeaponInfo> > >::operator++
; Function compile flags: /Ogsp
;	COMDAT ??E?$_Vector_const_iterator@V?$_Vector_val@UWeaponInfo@@V?$allocator@UWeaponInfo@@@std@@@std@@@std@@QAEAAV01@XZ
_TEXT	SEGMENT
??E?$_Vector_const_iterator@V?$_Vector_val@UWeaponInfo@@V?$allocator@UWeaponInfo@@@std@@@std@@@std@@QAEAAV01@XZ PROC ; std::_Vector_const_iterator<std::_Vector_val<WeaponInfo,std::allocator<WeaponInfo> > >::operator++, COMDAT
; _this$ = ecx

; 93   : 		{	// preincrement

  00000	8b c1		 mov	 eax, ecx

; 94   :  #if _ITERATOR_DEBUG_LEVEL == 2
; 95   : 		if (this->_Getcont() == 0
; 96   : 			|| this->_Ptr == 0
; 97   : 			|| ((_Myvec *)this->_Getcont())->_Mylast <= this->_Ptr)
; 98   : 			{	// report error
; 99   : 			_DEBUG_ERROR("vector iterator not incrementable");
; 100  : 			_SCL_SECURE_OUT_OF_RANGE;
; 101  : 			}
; 102  : 
; 103  :  #elif _ITERATOR_DEBUG_LEVEL == 1
; 104  : 		_SCL_SECURE_VALIDATE(this->_Getcont() != 0);
; 105  : 		_SCL_SECURE_VALIDATE_RANGE(
; 106  : 			this->_Ptr != 0
; 107  : 			&& this->_Ptr < ((_Myvec *)this->_Getcont())->_Mylast);
; 108  :  #endif /* _ITERATOR_DEBUG_LEVEL */
; 109  : 
; 110  : 		++this->_Ptr;

  00002	83 00 28	 add	 DWORD PTR [eax], 40	; 00000028H

; 111  : 		return (*this);
; 112  : 		}

  00005	c3		 ret	 0
??E?$_Vector_const_iterator@V?$_Vector_val@UWeaponInfo@@V?$allocator@UWeaponInfo@@@std@@@std@@@std@@QAEAAV01@XZ ENDP ; std::_Vector_const_iterator<std::_Vector_val<WeaponInfo,std::allocator<WeaponInfo> > >::operator++
_TEXT	ENDS
PUBLIC	??D?$_Vector_const_iterator@V?$_Vector_val@UForceInfo@@V?$allocator@UForceInfo@@@std@@@std@@@std@@QBEABUForceInfo@@XZ ; std::_Vector_const_iterator<std::_Vector_val<ForceInfo,std::allocator<ForceInfo> > >::operator*
; Function compile flags: /Ogsp
;	COMDAT ??D?$_Vector_const_iterator@V?$_Vector_val@UForceInfo@@V?$allocator@UForceInfo@@@std@@@std@@@std@@QBEABUForceInfo@@XZ
_TEXT	SEGMENT
??D?$_Vector_const_iterator@V?$_Vector_val@UForceInfo@@V?$allocator@UForceInfo@@@std@@@std@@@std@@QBEABUForceInfo@@XZ PROC ; std::_Vector_const_iterator<std::_Vector_val<ForceInfo,std::allocator<ForceInfo> > >::operator*, COMDAT
; _this$ = ecx

; 64   :  #if _ITERATOR_DEBUG_LEVEL == 2
; 65   : 		if (this->_Getcont() == 0
; 66   : 			|| this->_Ptr == 0
; 67   : 			|| this->_Ptr < ((_Myvec *)this->_Getcont())->_Myfirst
; 68   : 			|| ((_Myvec *)this->_Getcont())->_Mylast <= this->_Ptr)
; 69   : 			{	// report error
; 70   : 			_DEBUG_ERROR("vector iterator not dereferencable");
; 71   : 			_SCL_SECURE_OUT_OF_RANGE;
; 72   : 			}
; 73   : 
; 74   :  #elif _ITERATOR_DEBUG_LEVEL == 1
; 75   : 		_SCL_SECURE_VALIDATE(this->_Getcont() != 0);
; 76   : 		_SCL_SECURE_VALIDATE_RANGE(
; 77   : 			this->_Ptr != 0
; 78   : 			&& ((_Myvec *)this->_Getcont())->_Myfirst <= this->_Ptr
; 79   : 			&& this->_Ptr < ((_Myvec *)this->_Getcont())->_Mylast);
; 80   :  #endif /* _ITERATOR_DEBUG_LEVEL */
; 81   : 
; 82   : 		__analysis_assume(this->_Ptr != 0);
; 83   : 
; 84   : 		return (*this->_Ptr);

  00000	8b 01		 mov	 eax, DWORD PTR [ecx]

; 85   : 		}

  00002	c3		 ret	 0
??D?$_Vector_const_iterator@V?$_Vector_val@UForceInfo@@V?$allocator@UForceInfo@@@std@@@std@@@std@@QBEABUForceInfo@@XZ ENDP ; std::_Vector_const_iterator<std::_Vector_val<ForceInfo,std::allocator<ForceInfo> > >::operator*
_TEXT	ENDS
PUBLIC	??E?$_Vector_const_iterator@V?$_Vector_val@UForceInfo@@V?$allocator@UForceInfo@@@std@@@std@@@std@@QAEAAV01@XZ ; std::_Vector_const_iterator<std::_Vector_val<ForceInfo,std::allocator<ForceInfo> > >::operator++
; Function compile flags: /Ogsp
;	COMDAT ??E?$_Vector_const_iterator@V?$_Vector_val@UForceInfo@@V?$allocator@UForceInfo@@@std@@@std@@@std@@QAEAAV01@XZ
_TEXT	SEGMENT
??E?$_Vector_const_iterator@V?$_Vector_val@UForceInfo@@V?$allocator@UForceInfo@@@std@@@std@@@std@@QAEAAV01@XZ PROC ; std::_Vector_const_iterator<std::_Vector_val<ForceInfo,std::allocator<ForceInfo> > >::operator++, COMDAT
; _this$ = ecx

; 93   : 		{	// preincrement

  00000	8b c1		 mov	 eax, ecx

; 94   :  #if _ITERATOR_DEBUG_LEVEL == 2
; 95   : 		if (this->_Getcont() == 0
; 96   : 			|| this->_Ptr == 0
; 97   : 			|| ((_Myvec *)this->_Getcont())->_Mylast <= this->_Ptr)
; 98   : 			{	// report error
; 99   : 			_DEBUG_ERROR("vector iterator not incrementable");
; 100  : 			_SCL_SECURE_OUT_OF_RANGE;
; 101  : 			}
; 102  : 
; 103  :  #elif _ITERATOR_DEBUG_LEVEL == 1
; 104  : 		_SCL_SECURE_VALIDATE(this->_Getcont() != 0);
; 105  : 		_SCL_SECURE_VALIDATE_RANGE(
; 106  : 			this->_Ptr != 0
; 107  : 			&& this->_Ptr < ((_Myvec *)this->_Getcont())->_Mylast);
; 108  :  #endif /* _ITERATOR_DEBUG_LEVEL */
; 109  : 
; 110  : 		++this->_Ptr;

  00002	83 00 0c	 add	 DWORD PTR [eax], 12	; 0000000cH

; 111  : 		return (*this);
; 112  : 		}

  00005	c3		 ret	 0
??E?$_Vector_const_iterator@V?$_Vector_val@UForceInfo@@V?$allocator@UForceInfo@@@std@@@std@@@std@@QAEAAV01@XZ ENDP ; std::_Vector_const_iterator<std::_Vector_val<ForceInfo,std::allocator<ForceInfo> > >::operator++
_TEXT	ENDS
PUBLIC	??$forward@ABUWeaponInfo@@@std@@YAABUWeaponInfo@@ABU1@@Z ; std::forward<WeaponInfo const &>
; Function compile flags: /Ogsp
; File c:\program files (x86)\microsoft visual studio 10.0\vc\include\utility
;	COMDAT ??$forward@ABUWeaponInfo@@@std@@YAABUWeaponInfo@@ABU1@@Z
_TEXT	SEGMENT
__Arg$ = 8						; size = 4
??$forward@ABUWeaponInfo@@@std@@YAABUWeaponInfo@@ABU1@@Z PROC ; std::forward<WeaponInfo const &>, COMDAT

; 78   : 	{	// forward _Arg, given explicitly specified type parameter

  00000	55		 push	 ebp
  00001	8b ec		 mov	 ebp, esp

; 79   : 	return ((_Ty&&)_Arg);

  00003	8b 45 08	 mov	 eax, DWORD PTR __Arg$[ebp]

; 80   : 	}

  00006	5d		 pop	 ebp
  00007	c3		 ret	 0
??$forward@ABUWeaponInfo@@@std@@YAABUWeaponInfo@@ABU1@@Z ENDP ; std::forward<WeaponInfo const &>
_TEXT	ENDS
PUBLIC	??$forward@ABUForceInfo@@@std@@YAABUForceInfo@@ABU1@@Z ; std::forward<ForceInfo const &>
; Function compile flags: /Ogsp
;	COMDAT ??$forward@ABUForceInfo@@@std@@YAABUForceInfo@@ABU1@@Z
_TEXT	SEGMENT
__Arg$ = 8						; size = 4
??$forward@ABUForceInfo@@@std@@YAABUForceInfo@@ABU1@@Z PROC ; std::forward<ForceInfo const &>, COMDAT

; 78   : 	{	// forward _Arg, given explicitly specified type parameter

  00000	55		 push	 ebp
  00001	8b ec		 mov	 ebp, esp

; 79   : 	return ((_Ty&&)_Arg);

  00003	8b 45 08	 mov	 eax, DWORD PTR __Arg$[ebp]

; 80   : 	}

  00006	5d		 pop	 ebp
  00007	c3		 ret	 0
??$forward@ABUForceInfo@@@std@@YAABUForceInfo@@ABU1@@Z ENDP ; std::forward<ForceInfo const &>
_TEXT	ENDS
PUBLIC	??$_Construct@UForceInfo@@ABU1@@std@@YAXPAUForceInfo@@ABU1@@Z ; std::_Construct<ForceInfo,ForceInfo const &>
; Function compile flags: /Ogsp
; File c:\program files (x86)\microsoft visual studio 10.0\vc\include\xmemory
;	COMDAT ??$_Construct@UForceInfo@@ABU1@@std@@YAXPAUForceInfo@@ABU1@@Z
_TEXT	SEGMENT
__Ptr$ = 8						; size = 4
__Val$ = 12						; size = 4
??$_Construct@UForceInfo@@ABU1@@std@@YAXPAUForceInfo@@ABU1@@Z PROC ; std::_Construct<ForceInfo,ForceInfo const &>, COMDAT

; 46   : 	{	// construct object at _Ptr with value _Val

  00000	55		 push	 ebp
  00001	8b ec		 mov	 ebp, esp
  00003	57		 push	 edi

; 47   : 	void _FARQ *_Vptr = _Ptr;
; 48   : 	::new (_Vptr) _Ty1(_STD forward<_Ty2>(_Val));

  00004	8b 7d 08	 mov	 edi, DWORD PTR __Ptr$[ebp]
  00007	85 ff		 test	 edi, edi
  00009	74 08		 je	 SHORT $LN3@Construct
  0000b	56		 push	 esi
  0000c	8b 75 0c	 mov	 esi, DWORD PTR __Val$[ebp]
  0000f	a5		 movsd
  00010	a5		 movsd
  00011	a5		 movsd
  00012	5e		 pop	 esi
$LN3@Construct:
  00013	5f		 pop	 edi

; 49   : 	}

  00014	5d		 pop	 ebp
  00015	c3		 ret	 0
??$_Construct@UForceInfo@@ABU1@@std@@YAXPAUForceInfo@@ABU1@@Z ENDP ; std::_Construct<ForceInfo,ForceInfo const &>
_TEXT	ENDS
PUBLIC	?_DECSTR@@YAXPADH@Z				; _DECSTR
; Function compile flags: /Ogsp
; File d:\lost saga for developer\youtube\tutorial\source\src\lsclient\stringprotect.h
;	COMDAT ?_DECSTR@@YAXPADH@Z
_TEXT	SEGMENT
_s$ = 8							; size = 4
_l$ = 12						; size = 4
?_DECSTR@@YAXPADH@Z PROC				; _DECSTR, COMDAT

; 40   : __forceinline void _DECSTR(char* s, int l){int i=0,l4=(l-1)/4,*p=(int*)s;s[l-1]=0;for(;i<l4;++i)*(p++)^=0xEAEBECED;for(i=l4*4;i<l-1;++i)s[i]^=0xED-i%4;}

  00000	55		 push	 ebp
  00001	8b ec		 mov	 ebp, esp
  00003	8b 4d 0c	 mov	 ecx, DWORD PTR _l$[ebp]
  00006	56		 push	 esi
  00007	8b 75 08	 mov	 esi, DWORD PTR _s$[ebp]
  0000a	57		 push	 edi
  0000b	8d 79 ff	 lea	 edi, DWORD PTR [ecx-1]
  0000e	8b c7		 mov	 eax, edi
  00010	99		 cdq
  00011	83 e2 03	 and	 edx, 3
  00014	03 c2		 add	 eax, edx
  00016	c1 f8 02	 sar	 eax, 2
  00019	8b d6		 mov	 edx, esi
  0001b	c6 44 0e ff 00	 mov	 BYTE PTR [esi+ecx-1], 0
  00020	85 c0		 test	 eax, eax
  00022	7e 0e		 jle	 SHORT $LN4@DECSTR
  00024	8b c8		 mov	 ecx, eax
$LL6@DECSTR:
  00026	81 32 ed ec eb
	ea		 xor	 DWORD PTR [edx], -353637139 ; eaebecedH
  0002c	83 c2 04	 add	 edx, 4
  0002f	49		 dec	 ecx
  00030	75 f4		 jne	 SHORT $LL6@DECSTR
$LN4@DECSTR:
  00032	c1 e0 02	 shl	 eax, 2
  00035	eb 17		 jmp	 SHORT $LN14@DECSTR
$LL3@DECSTR:
  00037	8b c8		 mov	 ecx, eax
  00039	81 e1 03 00 00
	80		 and	 ecx, -2147483645	; 80000003H
  0003f	79 05		 jns	 SHORT $LN13@DECSTR
  00041	49		 dec	 ecx
  00042	83 c9 fc	 or	 ecx, -4			; fffffffcH
  00045	41		 inc	 ecx
$LN13@DECSTR:
  00046	b2 ed		 mov	 dl, -19			; ffffffedH
  00048	2a d1		 sub	 dl, cl
  0004a	30 14 30	 xor	 BYTE PTR [eax+esi], dl
  0004d	40		 inc	 eax
$LN14@DECSTR:
  0004e	3b c7		 cmp	 eax, edi
  00050	7c e5		 jl	 SHORT $LL3@DECSTR
  00052	5f		 pop	 edi
  00053	5e		 pop	 esi
  00054	5d		 pop	 ebp
  00055	c3		 ret	 0
?_DECSTR@@YAXPADH@Z ENDP				; _DECSTR
_TEXT	ENDS
PUBLIC	?GetGroup@ioGameEntity@@QBEPAVioEntityGroup@@XZ	; ioGameEntity::GetGroup
; Function compile flags: /Ogsp
; File d:\lost saga for developer\youtube\tutorial\source\src\lsclient\iogameentity.h
;	COMDAT ?GetGroup@ioGameEntity@@QBEPAVioEntityGroup@@XZ
_TEXT	SEGMENT
?GetGroup@ioGameEntity@@QBEPAVioEntityGroup@@XZ PROC	; ioGameEntity::GetGroup, COMDAT
; _this$ = ecx

; 166  : 	inline ioEntityGroup* GetGroup() const { return m_pGroup; }

  00000	8b 41 04	 mov	 eax, DWORD PTR [ecx+4]
  00003	c3		 ret	 0
?GetGroup@ioGameEntity@@QBEPAVioEntityGroup@@XZ ENDP	; ioGameEntity::GetGroup
_TEXT	ENDS
PUBLIC	?Init@WeaponInfo@@QAEXXZ			; WeaponInfo::Init
; Function compile flags: /Ogsp
; File d:\lost saga for developer\youtube\tutorial\source\src\lsclient\ioattackattribute.h
;	COMDAT ?Init@WeaponInfo@@QAEXXZ
_TEXT	SEGMENT
?Init@WeaponInfo@@QAEXXZ PROC				; WeaponInfo::Init, COMDAT
; _this$ = ecx

; 71   : 		m_iWeaponIdx = 0;

  00000	33 c0		 xor	 eax, eax
  00002	89 01		 mov	 DWORD PTR [ecx], eax

; 72   : 		m_iResistanceIdx = 0;

  00004	89 41 04	 mov	 DWORD PTR [ecx+4], eax

; 73   : 
; 74   : 		m_dwWoundedDuration = 0;

  00007	89 41 18	 mov	 DWORD PTR [ecx+24], eax

; 75   : 		m_dwCallTime = 0;

  0000a	89 41 1c	 mov	 DWORD PTR [ecx+28], eax

; 76   : 
; 77   : 		m_bWoundedLoopAni = false;

  0000d	88 41 20	 mov	 BYTE PTR [ecx+32], al

; 78   : 
; 79   : 		m_dwDuration = 0;

  00010	89 41 24	 mov	 DWORD PTR [ecx+36], eax

; 80   : 	}

  00013	c3		 ret	 0
?Init@WeaponInfo@@QAEXXZ ENDP				; WeaponInfo::Init
_TEXT	ENDS
PUBLIC	??1WeaponInfo@@QAE@XZ				; WeaponInfo::~WeaponInfo
EXTRN	__imp_??1ioHashString@@QAE@XZ:PROC
; Function compile flags: /Ogsp
;	COMDAT ??1WeaponInfo@@QAE@XZ
_TEXT	SEGMENT
??1WeaponInfo@@QAE@XZ PROC				; WeaponInfo::~WeaponInfo, COMDAT
; _this$ = ecx
  00000	83 c1 08	 add	 ecx, 8
  00003	ff 25 00 00 00
	00		 jmp	 DWORD PTR __imp_??1ioHashString@@QAE@XZ
??1WeaponInfo@@QAE@XZ ENDP				; WeaponInfo::~WeaponInfo
_TEXT	ENDS
PUBLIC	?GetEffect@ioMapEffect@@QBEPAVioEffect@@XZ	; ioMapEffect::GetEffect
; Function compile flags: /Ogsp
; File d:\lost saga for developer\youtube\tutorial\source\src\lsclient\iomapeffect.h
;	COMDAT ?GetEffect@ioMapEffect@@QBEPAVioEffect@@XZ
_TEXT	SEGMENT
?GetEffect@ioMapEffect@@QBEPAVioEffect@@XZ PROC		; ioMapEffect::GetEffect, COMDAT
; _this$ = ecx

; 40   : 	inline ioEffect* GetEffect() const { return m_pEffect; }

  00000	8b 41 04	 mov	 eax, DWORD PTR [ecx+4]
  00003	c3		 ret	 0
?GetEffect@ioMapEffect@@QBEPAVioEffect@@XZ ENDP		; ioMapEffect::GetEffect
_TEXT	ENDS
PUBLIC	?IsLive@ioWeapon@@QBE_NXZ			; ioWeapon::IsLive
; Function compile flags: /Ogsp
; File d:\lost saga for developer\youtube\tutorial\source\src\lsclient\ioweapon.h
;	COMDAT ?IsLive@ioWeapon@@QBE_NXZ
_TEXT	SEGMENT
?IsLive@ioWeapon@@QBE_NXZ PROC				; ioWeapon::IsLive, COMDAT
; _this$ = ecx

; 533  : 	inline bool IsLive() const { return m_bLive; }

  00000	8a 81 82 05 00
	00		 mov	 al, BYTE PTR [ecx+1410]
  00006	c3		 ret	 0
?IsLive@ioWeapon@@QBE_NXZ ENDP				; ioWeapon::IsLive
_TEXT	ENDS
PUBLIC	?GetOwnerItem@ioSkill@@QBEPAVioItem@@XZ		; ioSkill::GetOwnerItem
; Function compile flags: /Ogsp
; File d:\lost saga for developer\youtube\tutorial\source\src\lsclient\ioskill.h
;	COMDAT ?GetOwnerItem@ioSkill@@QBEPAVioItem@@XZ
_TEXT	SEGMENT
?GetOwnerItem@ioSkill@@QBEPAVioItem@@XZ PROC		; ioSkill::GetOwnerItem, COMDAT
; _this$ = ecx

; 397  : 	inline ioItem *GetOwnerItem() const { return m_pOwnerItem; }

  00000	8b 81 a4 02 00
	00		 mov	 eax, DWORD PTR [ecx+676]
  00006	c3		 ret	 0
?GetOwnerItem@ioSkill@@QBEPAVioItem@@XZ ENDP		; ioSkill::GetOwnerItem
_TEXT	ENDS
PUBLIC	?GetName@ioSkill@@QBEABVioHashString@@XZ	; ioSkill::GetName
; Function compile flags: /Ogsp
;	COMDAT ?GetName@ioSkill@@QBEABVioHashString@@XZ
_TEXT	SEGMENT
?GetName@ioSkill@@QBEABVioHashString@@XZ PROC		; ioSkill::GetName, COMDAT
; _this$ = ecx

; 414  : 	inline const ioHashString& GetName() const { return m_Name; }

  00000	8d 41 24	 lea	 eax, DWORD PTR [ecx+36]
  00003	c3		 ret	 0
?GetName@ioSkill@@QBEABVioHashString@@XZ ENDP		; ioSkill::GetName
_TEXT	ENDS
PUBLIC	??1?$_Vector_val@UWeaponInfo@@V?$allocator@UWeaponInfo@@@std@@@std@@QAE@XZ ; std::_Vector_val<WeaponInfo,std::allocator<WeaponInfo> >::~_Vector_val<WeaponInfo,std::allocator<WeaponInfo> >
; Function compile flags: /Ogsp
; File c:\program files (x86)\microsoft visual studio 10.0\vc\include\vector
;	COMDAT ??1?$_Vector_val@UWeaponInfo@@V?$allocator@UWeaponInfo@@@std@@@std@@QAE@XZ
_TEXT	SEGMENT
??1?$_Vector_val@UWeaponInfo@@V?$allocator@UWeaponInfo@@@std@@@std@@QAE@XZ PROC ; std::_Vector_val<WeaponInfo,std::allocator<WeaponInfo> >::~_Vector_val<WeaponInfo,std::allocator<WeaponInfo> >, COMDAT
; _this$ = ecx

; 434  : 		}

  00000	c3		 ret	 0
??1?$_Vector_val@UWeaponInfo@@V?$allocator@UWeaponInfo@@@std@@@std@@QAE@XZ ENDP ; std::_Vector_val<WeaponInfo,std::allocator<WeaponInfo> >::~_Vector_val<WeaponInfo,std::allocator<WeaponInfo> >
_TEXT	ENDS
PUBLIC	??0?$allocator@UWeaponInfo@@@std@@QAE@XZ	; std::allocator<WeaponInfo>::allocator<WeaponInfo>
; Function compile flags: /Ogsp
; File c:\program files (x86)\microsoft visual studio 10.0\vc\include\xmemory
;	COMDAT ??0?$allocator@UWeaponInfo@@@std@@QAE@XZ
_TEXT	SEGMENT
??0?$allocator@UWeaponInfo@@@std@@QAE@XZ PROC		; std::allocator<WeaponInfo>::allocator<WeaponInfo>, COMDAT
; _this$ = ecx

; 161  : 	_ALLOCATOR() _THROW0()

  00000	8b c1		 mov	 eax, ecx

; 162  : 		{	// construct default allocator (do nothing)
; 163  : 		}

  00002	c3		 ret	 0
??0?$allocator@UWeaponInfo@@@std@@QAE@XZ ENDP		; std::allocator<WeaponInfo>::allocator<WeaponInfo>
_TEXT	ENDS
PUBLIC	??1?$_Vector_val@UForceInfo@@V?$allocator@UForceInfo@@@std@@@std@@QAE@XZ ; std::_Vector_val<ForceInfo,std::allocator<ForceInfo> >::~_Vector_val<ForceInfo,std::allocator<ForceInfo> >
; Function compile flags: /Ogsp
; File c:\program files (x86)\microsoft visual studio 10.0\vc\include\vector
;	COMDAT ??1?$_Vector_val@UForceInfo@@V?$allocator@UForceInfo@@@std@@@std@@QAE@XZ
_TEXT	SEGMENT
??1?$_Vector_val@UForceInfo@@V?$allocator@UForceInfo@@@std@@@std@@QAE@XZ PROC ; std::_Vector_val<ForceInfo,std::allocator<ForceInfo> >::~_Vector_val<ForceInfo,std::allocator<ForceInfo> >, COMDAT
; _this$ = ecx

; 434  : 		}

  00000	c3		 ret	 0
??1?$_Vector_val@UForceInfo@@V?$allocator@UForceInfo@@@std@@@std@@QAE@XZ ENDP ; std::_Vector_val<ForceInfo,std::allocator<ForceInfo> >::~_Vector_val<ForceInfo,std::allocator<ForceInfo> >
_TEXT	ENDS
PUBLIC	??0?$allocator@UForceInfo@@@std@@QAE@XZ		; std::allocator<ForceInfo>::allocator<ForceInfo>
; Function compile flags: /Ogsp
; File c:\program files (x86)\microsoft visual studio 10.0\vc\include\xmemory
;	COMDAT ??0?$allocator@UForceInfo@@@std@@QAE@XZ
_TEXT	SEGMENT
??0?$allocator@UForceInfo@@@std@@QAE@XZ PROC		; std::allocator<ForceInfo>::allocator<ForceInfo>, COMDAT
; _this$ = ecx

; 161  : 	_ALLOCATOR() _THROW0()

  00000	8b c1		 mov	 eax, ecx

; 162  : 		{	// construct default allocator (do nothing)
; 163  : 		}

  00002	c3		 ret	 0
??0?$allocator@UForceInfo@@@std@@QAE@XZ ENDP		; std::allocator<ForceInfo>::allocator<ForceInfo>
_TEXT	ENDS
PUBLIC	?EncryptValueToPool@?$CEncrypt@K@@AAEXPBD@Z	; CEncrypt<unsigned long>::EncryptValueToPool
EXTRN	?EncryptByte@ccddaabb@@QAEXPBDPADH@Z:PROC	; ccddaabb::EncryptByte
; Function compile flags: /Ogsp
; File d:\lost saga for developer\youtube\tutorial\source\src\lsclient\encryptvalue.h
;	COMDAT ?EncryptValueToPool@?$CEncrypt@K@@AAEXPBD@Z
_TEXT	SEGMENT
_value$ = 8						; size = 4
?EncryptValueToPool@?$CEncrypt@K@@AAEXPBD@Z PROC	; CEncrypt<unsigned long>::EncryptValueToPool, COMDAT
; _this$ = ecx

; 67   : 	{

  00000	55		 push	 ebp
  00001	8b ec		 mov	 ebp, esp

; 68   : 		m_RC5.EncryptByte( value, m_MemPool, max(m_ValueSize, DEFAULT_ENCRYPT) );

  00003	0f b7 41 06	 movzx	 eax, WORD PTR [ecx+6]
  00007	83 f8 04	 cmp	 eax, 4
  0000a	77 03		 ja	 SHORT $LN4@EncryptVal
  0000c	6a 04		 push	 4
  0000e	58		 pop	 eax
$LN4@EncryptVal:
  0000f	50		 push	 eax
  00010	8d 41 1c	 lea	 eax, DWORD PTR [ecx+28]
  00013	50		 push	 eax
  00014	ff 75 08	 push	 DWORD PTR _value$[ebp]
  00017	83 c1 0c	 add	 ecx, 12			; 0000000cH
  0001a	e8 00 00 00 00	 call	 ?EncryptByte@ccddaabb@@QAEXPBDPADH@Z ; ccddaabb::EncryptByte

; 69   : 		
; 70   : 	}

  0001f	5d		 pop	 ebp
  00020	c2 04 00	 ret	 4
?EncryptValueToPool@?$CEncrypt@K@@AAEXPBD@Z ENDP	; CEncrypt<unsigned long>::EncryptValueToPool
_TEXT	ENDS
PUBLIC	?DecryptValueToPool@?$CEncrypt@_N@@QAEXPA_N@Z	; CEncrypt<bool>::DecryptValueToPool
EXTRN	?DecryptByte@ccddaabb@@QBEXPBDPADH@Z:PROC	; ccddaabb::DecryptByte
; Function compile flags: /Ogsp
;	COMDAT ?DecryptValueToPool@?$CEncrypt@_N@@QAEXPA_N@Z
_TEXT	SEGMENT
_value$ = 8						; size = 4
?DecryptValueToPool@?$CEncrypt@_N@@QAEXPA_N@Z PROC	; CEncrypt<bool>::DecryptValueToPool, COMDAT
; _this$ = ecx

; 219  : 	{

  00000	55		 push	 ebp
  00001	8b ec		 mov	 ebp, esp
  00003	56		 push	 esi

; 220  : 		m_RC5.DecryptByte( m_MemPool, m_TempMem, 4 );

  00004	8d 71 28	 lea	 esi, DWORD PTR [ecx+40]
  00007	6a 04		 push	 4
  00009	8d 41 1c	 lea	 eax, DWORD PTR [ecx+28]
  0000c	56		 push	 esi
  0000d	50		 push	 eax
  0000e	83 c1 0c	 add	 ecx, 12			; 0000000cH
  00011	e8 00 00 00 00	 call	 ?DecryptByte@ccddaabb@@QBEXPBDPADH@Z ; ccddaabb::DecryptByte

; 221  : 		*value = *((bool*)m_TempMem);

  00016	8a 06		 mov	 al, BYTE PTR [esi]
  00018	8b 4d 08	 mov	 ecx, DWORD PTR _value$[ebp]
  0001b	88 01		 mov	 BYTE PTR [ecx], al
  0001d	5e		 pop	 esi

; 222  : 	}

  0001e	5d		 pop	 ebp
  0001f	c2 04 00	 ret	 4
?DecryptValueToPool@?$CEncrypt@_N@@QAEXPA_N@Z ENDP	; CEncrypt<bool>::DecryptValueToPool
_TEXT	ENDS
PUBLIC	?DecryptValueToPool@?$CEncrypt@W4TeamType@@@@QAEXPAW4TeamType@@@Z ; CEncrypt<enum TeamType>::DecryptValueToPool
; Function compile flags: /Ogsp
;	COMDAT ?DecryptValueToPool@?$CEncrypt@W4TeamType@@@@QAEXPAW4TeamType@@@Z
_TEXT	SEGMENT
_value$ = 8						; size = 4
?DecryptValueToPool@?$CEncrypt@W4TeamType@@@@QAEXPAW4TeamType@@@Z PROC ; CEncrypt<enum TeamType>::DecryptValueToPool, COMDAT
; _this$ = ecx

; 2959 : 	{

  00000	55		 push	 ebp
  00001	8b ec		 mov	 ebp, esp
  00003	56		 push	 esi

; 2960 : 		m_RC5.DecryptByte( m_MemPool, m_TempMem, sizeof(TeamType) );

  00004	8d 71 28	 lea	 esi, DWORD PTR [ecx+40]
  00007	6a 04		 push	 4
  00009	8d 41 1c	 lea	 eax, DWORD PTR [ecx+28]
  0000c	56		 push	 esi
  0000d	50		 push	 eax
  0000e	83 c1 0c	 add	 ecx, 12			; 0000000cH
  00011	e8 00 00 00 00	 call	 ?DecryptByte@ccddaabb@@QBEXPBDPADH@Z ; ccddaabb::DecryptByte

; 2961 : 		*value = *((TeamType*)m_TempMem);

  00016	8b 06		 mov	 eax, DWORD PTR [esi]
  00018	8b 4d 08	 mov	 ecx, DWORD PTR _value$[ebp]
  0001b	89 01		 mov	 DWORD PTR [ecx], eax
  0001d	5e		 pop	 esi

; 2962 : 	}

  0001e	5d		 pop	 ebp
  0001f	c2 04 00	 ret	 4
?DecryptValueToPool@?$CEncrypt@W4TeamType@@@@QAEXPAW4TeamType@@@Z ENDP ; CEncrypt<enum TeamType>::DecryptValueToPool
_TEXT	ENDS
PUBLIC	??0?$allocator@UWeaponInfo@@@std@@QAE@ABV01@@Z	; std::allocator<WeaponInfo>::allocator<WeaponInfo>
; Function compile flags: /Ogsp
; File c:\program files (x86)\microsoft visual studio 10.0\vc\include\xmemory
;	COMDAT ??0?$allocator@UWeaponInfo@@@std@@QAE@ABV01@@Z
_TEXT	SEGMENT
___formal$ = 8						; size = 4
??0?$allocator@UWeaponInfo@@@std@@QAE@ABV01@@Z PROC	; std::allocator<WeaponInfo>::allocator<WeaponInfo>, COMDAT
; _this$ = ecx

; 165  : 	_ALLOCATOR(const _ALLOCATOR<_Ty>&) _THROW0()

  00000	8b c1		 mov	 eax, ecx

; 166  : 		{	// construct by copying (do nothing)
; 167  : 		}

  00002	c2 04 00	 ret	 4
??0?$allocator@UWeaponInfo@@@std@@QAE@ABV01@@Z ENDP	; std::allocator<WeaponInfo>::allocator<WeaponInfo>
_TEXT	ENDS
PUBLIC	?deallocate@?$allocator@UWeaponInfo@@@std@@QAEXPAUWeaponInfo@@I@Z ; std::allocator<WeaponInfo>::deallocate
; Function compile flags: /Ogsp
;	COMDAT ?deallocate@?$allocator@UWeaponInfo@@@std@@QAEXPAUWeaponInfo@@I@Z
_TEXT	SEGMENT
__Ptr$ = 8						; size = 4
___formal$ = 12						; size = 4
?deallocate@?$allocator@UWeaponInfo@@@std@@QAEXPAUWeaponInfo@@I@Z PROC ; std::allocator<WeaponInfo>::deallocate, COMDAT
; _this$ = ecx

; 181  : 		{	// deallocate object at _Ptr, ignore size

  00000	55		 push	 ebp
  00001	8b ec		 mov	 ebp, esp

; 182  : 		::operator delete(_Ptr);

  00003	ff 75 08	 push	 DWORD PTR __Ptr$[ebp]
  00006	e8 00 00 00 00	 call	 ??3@YAXPAX@Z		; operator delete
  0000b	59		 pop	 ecx

; 183  : 		}

  0000c	5d		 pop	 ebp
  0000d	c2 08 00	 ret	 8
?deallocate@?$allocator@UWeaponInfo@@@std@@QAEXPAUWeaponInfo@@I@Z ENDP ; std::allocator<WeaponInfo>::deallocate
_TEXT	ENDS
PUBLIC	??0?$allocator@UForceInfo@@@std@@QAE@ABV01@@Z	; std::allocator<ForceInfo>::allocator<ForceInfo>
; Function compile flags: /Ogsp
;	COMDAT ??0?$allocator@UForceInfo@@@std@@QAE@ABV01@@Z
_TEXT	SEGMENT
___formal$ = 8						; size = 4
??0?$allocator@UForceInfo@@@std@@QAE@ABV01@@Z PROC	; std::allocator<ForceInfo>::allocator<ForceInfo>, COMDAT
; _this$ = ecx

; 165  : 	_ALLOCATOR(const _ALLOCATOR<_Ty>&) _THROW0()

  00000	8b c1		 mov	 eax, ecx

; 166  : 		{	// construct by copying (do nothing)
; 167  : 		}

  00002	c2 04 00	 ret	 4
??0?$allocator@UForceInfo@@@std@@QAE@ABV01@@Z ENDP	; std::allocator<ForceInfo>::allocator<ForceInfo>
_TEXT	ENDS
PUBLIC	?deallocate@?$allocator@UForceInfo@@@std@@QAEXPAUForceInfo@@I@Z ; std::allocator<ForceInfo>::deallocate
; Function compile flags: /Ogsp
;	COMDAT ?deallocate@?$allocator@UForceInfo@@@std@@QAEXPAUForceInfo@@I@Z
_TEXT	SEGMENT
__Ptr$ = 8						; size = 4
___formal$ = 12						; size = 4
?deallocate@?$allocator@UForceInfo@@@std@@QAEXPAUForceInfo@@I@Z PROC ; std::allocator<ForceInfo>::deallocate, COMDAT
; _this$ = ecx

; 181  : 		{	// deallocate object at _Ptr, ignore size

  00000	55		 push	 ebp
  00001	8b ec		 mov	 ebp, esp

; 182  : 		::operator delete(_Ptr);

  00003	ff 75 08	 push	 DWORD PTR __Ptr$[ebp]
  00006	e8 00 00 00 00	 call	 ??3@YAXPAX@Z		; operator delete
  0000b	59		 pop	 ecx

; 183  : 		}

  0000c	5d		 pop	 ebp
  0000d	c2 08 00	 ret	 8
?deallocate@?$allocator@UForceInfo@@@std@@QAEXPAUForceInfo@@I@Z ENDP ; std::allocator<ForceInfo>::deallocate
_TEXT	ENDS
PUBLIC	??$_Ptr_cat@UWeaponInfo@@U1@@std@@YA?AU_Nonscalar_ptr_iterator_tag@0@PAUWeaponInfo@@0@Z ; std::_Ptr_cat<WeaponInfo,WeaponInfo>
; Function compile flags: /Ogsp
; File c:\program files (x86)\microsoft visual studio 10.0\vc\include\xutility
;	COMDAT ??$_Ptr_cat@UWeaponInfo@@U1@@std@@YA?AU_Nonscalar_ptr_iterator_tag@0@PAUWeaponInfo@@0@Z
_TEXT	SEGMENT
__Cat$ = -1						; size = 1
___formal$ = 8						; size = 4
___formal$ = 12						; size = 4
??$_Ptr_cat@UWeaponInfo@@U1@@std@@YA?AU_Nonscalar_ptr_iterator_tag@0@PAUWeaponInfo@@0@Z PROC ; std::_Ptr_cat<WeaponInfo,WeaponInfo>, COMDAT

; 516  : 	{	// return pointer category from pointers

  00000	55		 push	 ebp
  00001	8b ec		 mov	 ebp, esp
  00003	51		 push	 ecx

; 517  : 	typename _Ptr_cat_helper<_Elem1, _Elem2>::_Type _Cat;
; 518  : 	return (_Cat);

  00004	8a 45 ff	 mov	 al, BYTE PTR __Cat$[ebp]

; 519  : 	}

  00007	c9		 leave
  00008	c3		 ret	 0
??$_Ptr_cat@UWeaponInfo@@U1@@std@@YA?AU_Nonscalar_ptr_iterator_tag@0@PAUWeaponInfo@@0@Z ENDP ; std::_Ptr_cat<WeaponInfo,WeaponInfo>
_TEXT	ENDS
PUBLIC	??$_Ptr_cat@UForceInfo@@U1@@std@@YA?AU_Nonscalar_ptr_iterator_tag@0@PAUForceInfo@@0@Z ; std::_Ptr_cat<ForceInfo,ForceInfo>
; Function compile flags: /Ogsp
;	COMDAT ??$_Ptr_cat@UForceInfo@@U1@@std@@YA?AU_Nonscalar_ptr_iterator_tag@0@PAUForceInfo@@0@Z
_TEXT	SEGMENT
__Cat$ = -1						; size = 1
___formal$ = 8						; size = 4
___formal$ = 12						; size = 4
??$_Ptr_cat@UForceInfo@@U1@@std@@YA?AU_Nonscalar_ptr_iterator_tag@0@PAUForceInfo@@0@Z PROC ; std::_Ptr_cat<ForceInfo,ForceInfo>, COMDAT

; 516  : 	{	// return pointer category from pointers

  00000	55		 push	 ebp
  00001	8b ec		 mov	 ebp, esp
  00003	51		 push	 ecx

; 517  : 	typename _Ptr_cat_helper<_Elem1, _Elem2>::_Type _Cat;
; 518  : 	return (_Cat);

  00004	8a 45 ff	 mov	 al, BYTE PTR __Cat$[ebp]

; 519  : 	}

  00007	c9		 leave
  00008	c3		 ret	 0
??$_Ptr_cat@UForceInfo@@U1@@std@@YA?AU_Nonscalar_ptr_iterator_tag@0@PAUForceInfo@@0@Z ENDP ; std::_Ptr_cat<ForceInfo,ForceInfo>
_TEXT	ENDS
PUBLIC	?size@?$vector@UWeaponInfo@@V?$allocator@UWeaponInfo@@@std@@@std@@QBEIXZ ; std::vector<WeaponInfo,std::allocator<WeaponInfo> >::size
; Function compile flags: /Ogsp
; File c:\program files (x86)\microsoft visual studio 10.0\vc\include\vector
;	COMDAT ?size@?$vector@UWeaponInfo@@V?$allocator@UWeaponInfo@@@std@@@std@@QBEIXZ
_TEXT	SEGMENT
?size@?$vector@UWeaponInfo@@V?$allocator@UWeaponInfo@@@std@@@std@@QBEIXZ PROC ; std::vector<WeaponInfo,std::allocator<WeaponInfo> >::size, COMDAT
; _this$ = ecx

; 879  : 		return (this->_Mylast - this->_Myfirst);

  00000	8b 41 04	 mov	 eax, DWORD PTR [ecx+4]
  00003	2b 01		 sub	 eax, DWORD PTR [ecx]
  00005	6a 28		 push	 40			; 00000028H
  00007	99		 cdq
  00008	59		 pop	 ecx
  00009	f7 f9		 idiv	 ecx

; 880  : 		}

  0000b	c3		 ret	 0
?size@?$vector@UWeaponInfo@@V?$allocator@UWeaponInfo@@@std@@@std@@QBEIXZ ENDP ; std::vector<WeaponInfo,std::allocator<WeaponInfo> >::size
_TEXT	ENDS
PUBLIC	?size@?$vector@UForceInfo@@V?$allocator@UForceInfo@@@std@@@std@@QBEIXZ ; std::vector<ForceInfo,std::allocator<ForceInfo> >::size
; Function compile flags: /Ogsp
;	COMDAT ?size@?$vector@UForceInfo@@V?$allocator@UForceInfo@@@std@@@std@@QBEIXZ
_TEXT	SEGMENT
?size@?$vector@UForceInfo@@V?$allocator@UForceInfo@@@std@@@std@@QBEIXZ PROC ; std::vector<ForceInfo,std::allocator<ForceInfo> >::size, COMDAT
; _this$ = ecx

; 879  : 		return (this->_Mylast - this->_Myfirst);

  00000	8b 41 04	 mov	 eax, DWORD PTR [ecx+4]
  00003	2b 01		 sub	 eax, DWORD PTR [ecx]
  00005	6a 0c		 push	 12			; 0000000cH
  00007	99		 cdq
  00008	59		 pop	 ecx
  00009	f7 f9		 idiv	 ecx

; 880  : 		}

  0000b	c3		 ret	 0
?size@?$vector@UForceInfo@@V?$allocator@UForceInfo@@@std@@@std@@QBEIXZ ENDP ; std::vector<ForceInfo,std::allocator<ForceInfo> >::size
_TEXT	ENDS
PUBLIC	??_C@_0BD@OLBABOEK@vector?$DMT?$DO?5too?5long?$AA@ ; `string'
PUBLIC	?_Xlen@?$vector@UWeaponInfo@@V?$allocator@UWeaponInfo@@@std@@@std@@IBEXXZ ; std::vector<WeaponInfo,std::allocator<WeaponInfo> >::_Xlen
EXTRN	__imp_?_Xlength_error@std@@YAXPBD@Z:PROC
;	COMDAT ??_C@_0BD@OLBABOEK@vector?$DMT?$DO?5too?5long?$AA@
CONST	SEGMENT
??_C@_0BD@OLBABOEK@vector?$DMT?$DO?5too?5long?$AA@ DB 'vector<T> too long'
	DB	00H						; `string'
; Function compile flags: /Ogsp
CONST	ENDS
;	COMDAT ?_Xlen@?$vector@UWeaponInfo@@V?$allocator@UWeaponInfo@@@std@@@std@@IBEXXZ
_TEXT	SEGMENT
?_Xlen@?$vector@UWeaponInfo@@V?$allocator@UWeaponInfo@@@std@@@std@@IBEXXZ PROC ; std::vector<WeaponInfo,std::allocator<WeaponInfo> >::_Xlen, COMDAT
; _this$ = ecx

; 1427 : 		_Xlength_error("vector<T> too long");

  00000	68 00 00 00 00	 push	 OFFSET ??_C@_0BD@OLBABOEK@vector?$DMT?$DO?5too?5long?$AA@
  00005	ff 15 00 00 00
	00		 call	 DWORD PTR __imp_?_Xlength_error@std@@YAXPBD@Z
$LN4@Xlen:
$LN3@Xlen:
  0000b	cc		 int	 3
?_Xlen@?$vector@UWeaponInfo@@V?$allocator@UWeaponInfo@@@std@@@std@@IBEXXZ ENDP ; std::vector<WeaponInfo,std::allocator<WeaponInfo> >::_Xlen
_TEXT	ENDS
PUBLIC	?_Xlen@?$vector@UForceInfo@@V?$allocator@UForceInfo@@@std@@@std@@IBEXXZ ; std::vector<ForceInfo,std::allocator<ForceInfo> >::_Xlen
; Function compile flags: /Ogsp
;	COMDAT ?_Xlen@?$vector@UForceInfo@@V?$allocator@UForceInfo@@@std@@@std@@IBEXXZ
_TEXT	SEGMENT
?_Xlen@?$vector@UForceInfo@@V?$allocator@UForceInfo@@@std@@@std@@IBEXXZ PROC ; std::vector<ForceInfo,std::allocator<ForceInfo> >::_Xlen, COMDAT
; _this$ = ecx

; 1427 : 		_Xlength_error("vector<T> too long");

  00000	68 00 00 00 00	 push	 OFFSET ??_C@_0BD@OLBABOEK@vector?$DMT?$DO?5too?5long?$AA@
  00005	ff 15 00 00 00
	00		 call	 DWORD PTR __imp_?_Xlength_error@std@@YAXPBD@Z
$LN4@Xlen@2:
$LN3@Xlen@2:
  0000b	cc		 int	 3
?_Xlen@?$vector@UForceInfo@@V?$allocator@UForceInfo@@@std@@@std@@IBEXXZ ENDP ; std::vector<ForceInfo,std::allocator<ForceInfo> >::_Xlen
_TEXT	ENDS
PUBLIC	?max_size@?$allocator@UWeaponInfo@@@std@@QBEIXZ	; std::allocator<WeaponInfo>::max_size
; Function compile flags: /Ogsp
; File c:\program files (x86)\microsoft visual studio 10.0\vc\include\xmemory
;	COMDAT ?max_size@?$allocator@UWeaponInfo@@@std@@QBEIXZ
_TEXT	SEGMENT
?max_size@?$allocator@UWeaponInfo@@@std@@QBEIXZ PROC	; std::allocator<WeaponInfo>::max_size, COMDAT
; _this$ = ecx

; 218  : 		_SIZT _Count = (_SIZT)(-1) / sizeof (_Ty);
; 219  : 		return (0 < _Count ? _Count : 1);

  00000	b8 66 66 66 06	 mov	 eax, 107374182		; 06666666H

; 220  : 		}

  00005	c3		 ret	 0
?max_size@?$allocator@UWeaponInfo@@@std@@QBEIXZ ENDP	; std::allocator<WeaponInfo>::max_size
_TEXT	ENDS
PUBLIC	?max_size@?$allocator@UForceInfo@@@std@@QBEIXZ	; std::allocator<ForceInfo>::max_size
; Function compile flags: /Ogsp
;	COMDAT ?max_size@?$allocator@UForceInfo@@@std@@QBEIXZ
_TEXT	SEGMENT
?max_size@?$allocator@UForceInfo@@@std@@QBEIXZ PROC	; std::allocator<ForceInfo>::max_size, COMDAT
; _this$ = ecx

; 218  : 		_SIZT _Count = (_SIZT)(-1) / sizeof (_Ty);
; 219  : 		return (0 < _Count ? _Count : 1);

  00000	b8 55 55 55 15	 mov	 eax, 357913941		; 15555555H

; 220  : 		}

  00005	c3		 ret	 0
?max_size@?$allocator@UForceInfo@@@std@@QBEIXZ ENDP	; std::allocator<ForceInfo>::max_size
_TEXT	ENDS
PUBLIC	??0?$_Vector_const_iterator@V?$_Vector_val@UWeaponInfo@@V?$allocator@UWeaponInfo@@@std@@@std@@@std@@QAE@PAUWeaponInfo@@PBU_Container_base0@1@@Z ; std::_Vector_const_iterator<std::_Vector_val<WeaponInfo,std::allocator<WeaponInfo> > >::_Vector_const_iterator<std::_Vector_val<WeaponInfo,std::allocator<WeaponInfo> > >
; Function compile flags: /Ogsp
; File c:\program files (x86)\microsoft visual studio 10.0\vc\include\vector
;	COMDAT ??0?$_Vector_const_iterator@V?$_Vector_val@UWeaponInfo@@V?$allocator@UWeaponInfo@@@std@@@std@@@std@@QAE@PAUWeaponInfo@@PBU_Container_base0@1@@Z
_TEXT	SEGMENT
__Parg$ = 8						; size = 4
__Pvector$ = 12						; size = 4
??0?$_Vector_const_iterator@V?$_Vector_val@UWeaponInfo@@V?$allocator@UWeaponInfo@@@std@@@std@@@std@@QAE@PAUWeaponInfo@@PBU_Container_base0@1@@Z PROC ; std::_Vector_const_iterator<std::_Vector_val<WeaponInfo,std::allocator<WeaponInfo> > >::_Vector_const_iterator<std::_Vector_val<WeaponInfo,std::allocator<WeaponInfo> > >, COMDAT
; _this$ = ecx

; 45   : 		{	// construct with pointer _Parg

  00000	55		 push	 ebp
  00001	8b ec		 mov	 ebp, esp
  00003	8b c1		 mov	 eax, ecx
  00005	8b 4d 08	 mov	 ecx, DWORD PTR __Parg$[ebp]
  00008	89 08		 mov	 DWORD PTR [eax], ecx

; 46   : 		this->_Adopt(_Pvector);
; 47   : 		}

  0000a	5d		 pop	 ebp
  0000b	c2 08 00	 ret	 8
??0?$_Vector_const_iterator@V?$_Vector_val@UWeaponInfo@@V?$allocator@UWeaponInfo@@@std@@@std@@@std@@QAE@PAUWeaponInfo@@PBU_Container_base0@1@@Z ENDP ; std::_Vector_const_iterator<std::_Vector_val<WeaponInfo,std::allocator<WeaponInfo> > >::_Vector_const_iterator<std::_Vector_val<WeaponInfo,std::allocator<WeaponInfo> > >
_TEXT	ENDS
PUBLIC	??0?$_Vector_const_iterator@V?$_Vector_val@UForceInfo@@V?$allocator@UForceInfo@@@std@@@std@@@std@@QAE@PAUForceInfo@@PBU_Container_base0@1@@Z ; std::_Vector_const_iterator<std::_Vector_val<ForceInfo,std::allocator<ForceInfo> > >::_Vector_const_iterator<std::_Vector_val<ForceInfo,std::allocator<ForceInfo> > >
; Function compile flags: /Ogsp
;	COMDAT ??0?$_Vector_const_iterator@V?$_Vector_val@UForceInfo@@V?$allocator@UForceInfo@@@std@@@std@@@std@@QAE@PAUForceInfo@@PBU_Container_base0@1@@Z
_TEXT	SEGMENT
__Parg$ = 8						; size = 4
__Pvector$ = 12						; size = 4
??0?$_Vector_const_iterator@V?$_Vector_val@UForceInfo@@V?$allocator@UForceInfo@@@std@@@std@@@std@@QAE@PAUForceInfo@@PBU_Container_base0@1@@Z PROC ; std::_Vector_const_iterator<std::_Vector_val<ForceInfo,std::allocator<ForceInfo> > >::_Vector_const_iterator<std::_Vector_val<ForceInfo,std::allocator<ForceInfo> > >, COMDAT
; _this$ = ecx

; 45   : 		{	// construct with pointer _Parg

  00000	55		 push	 ebp
  00001	8b ec		 mov	 ebp, esp
  00003	8b c1		 mov	 eax, ecx
  00005	8b 4d 08	 mov	 ecx, DWORD PTR __Parg$[ebp]
  00008	89 08		 mov	 DWORD PTR [eax], ecx

; 46   : 		this->_Adopt(_Pvector);
; 47   : 		}

  0000a	5d		 pop	 ebp
  0000b	c2 08 00	 ret	 8
??0?$_Vector_const_iterator@V?$_Vector_val@UForceInfo@@V?$allocator@UForceInfo@@@std@@@std@@@std@@QAE@PAUForceInfo@@PBU_Container_base0@1@@Z ENDP ; std::_Vector_const_iterator<std::_Vector_val<ForceInfo,std::allocator<ForceInfo> > >::_Vector_const_iterator<std::_Vector_val<ForceInfo,std::allocator<ForceInfo> > >
_TEXT	ENDS
PUBLIC	?_Compat@?$_Vector_const_iterator@V?$_Vector_val@UWeaponInfo@@V?$allocator@UWeaponInfo@@@std@@@std@@@std@@QBEXABV12@@Z ; std::_Vector_const_iterator<std::_Vector_val<WeaponInfo,std::allocator<WeaponInfo> > >::_Compat
; Function compile flags: /Ogsp
;	COMDAT ?_Compat@?$_Vector_const_iterator@V?$_Vector_val@UWeaponInfo@@V?$allocator@UWeaponInfo@@@std@@@std@@@std@@QBEXABV12@@Z
_TEXT	SEGMENT
___formal$ = 8						; size = 4
?_Compat@?$_Vector_const_iterator@V?$_Vector_val@UWeaponInfo@@V?$allocator@UWeaponInfo@@@std@@@std@@@std@@QBEXABV12@@Z PROC ; std::_Vector_const_iterator<std::_Vector_val<WeaponInfo,std::allocator<WeaponInfo> > >::_Compat, COMDAT
; _this$ = ecx

; 253  : 		}

  00000	c2 04 00	 ret	 4
?_Compat@?$_Vector_const_iterator@V?$_Vector_val@UWeaponInfo@@V?$allocator@UWeaponInfo@@@std@@@std@@@std@@QBEXABV12@@Z ENDP ; std::_Vector_const_iterator<std::_Vector_val<WeaponInfo,std::allocator<WeaponInfo> > >::_Compat
_TEXT	ENDS
PUBLIC	?_Compat@?$_Vector_const_iterator@V?$_Vector_val@UForceInfo@@V?$allocator@UForceInfo@@@std@@@std@@@std@@QBEXABV12@@Z ; std::_Vector_const_iterator<std::_Vector_val<ForceInfo,std::allocator<ForceInfo> > >::_Compat
; Function compile flags: /Ogsp
;	COMDAT ?_Compat@?$_Vector_const_iterator@V?$_Vector_val@UForceInfo@@V?$allocator@UForceInfo@@@std@@@std@@@std@@QBEXABV12@@Z
_TEXT	SEGMENT
___formal$ = 8						; size = 4
?_Compat@?$_Vector_const_iterator@V?$_Vector_val@UForceInfo@@V?$allocator@UForceInfo@@@std@@@std@@@std@@QBEXABV12@@Z PROC ; std::_Vector_const_iterator<std::_Vector_val<ForceInfo,std::allocator<ForceInfo> > >::_Compat, COMDAT
; _this$ = ecx

; 253  : 		}

  00000	c2 04 00	 ret	 4
?_Compat@?$_Vector_const_iterator@V?$_Vector_val@UForceInfo@@V?$allocator@UForceInfo@@@std@@@std@@@std@@QBEXABV12@@Z ENDP ; std::_Vector_const_iterator<std::_Vector_val<ForceInfo,std::allocator<ForceInfo> > >::_Compat
_TEXT	ENDS
PUBLIC	__TI2?AVbad_alloc@std@@
PUBLIC	??$_Allocate@UWeaponInfo@@@std@@YAPAUWeaponInfo@@IPAU1@@Z ; std::_Allocate<WeaponInfo>
PUBLIC	__CTA2?AVbad_alloc@std@@
PUBLIC	__CT??_R0?AVbad_alloc@std@@@8??0bad_alloc@std@@QAE@ABV01@@Z12
PUBLIC	??0bad_alloc@std@@QAE@ABV01@@Z			; std::bad_alloc::bad_alloc
PUBLIC	__CT??_R0?AVexception@std@@@8??0exception@std@@QAE@ABV01@@Z12
EXTRN	??2@YAPAXI@Z:PROC				; operator new
EXTRN	__CxxThrowException@8:PROC
EXTRN	??0exception@std@@QAE@ABV01@@Z:PROC		; std::exception::exception
;	COMDAT __CT??_R0?AVexception@std@@@8??0exception@std@@QAE@ABV01@@Z12
; File c:\program files (x86)\microsoft visual studio 10.0\vc\include\exception
xdata$x	SEGMENT
__CT??_R0?AVexception@std@@@8??0exception@std@@QAE@ABV01@@Z12 DD 00H
	DD	FLAT:??_R0?AVexception@std@@@8
	DD	00H
	DD	0ffffffffH
	ORG $+4
	DD	0cH
	DD	FLAT:??0exception@std@@QAE@ABV01@@Z
xdata$x	ENDS
;	COMDAT __CT??_R0?AVbad_alloc@std@@@8??0bad_alloc@std@@QAE@ABV01@@Z12
xdata$x	SEGMENT
__CT??_R0?AVbad_alloc@std@@@8??0bad_alloc@std@@QAE@ABV01@@Z12 DD 00H
	DD	FLAT:??_R0?AVbad_alloc@std@@@8
	DD	00H
	DD	0ffffffffH
	ORG $+4
	DD	0cH
	DD	FLAT:??0bad_alloc@std@@QAE@ABV01@@Z
xdata$x	ENDS
;	COMDAT __CTA2?AVbad_alloc@std@@
xdata$x	SEGMENT
__CTA2?AVbad_alloc@std@@ DD 02H
	DD	FLAT:__CT??_R0?AVbad_alloc@std@@@8??0bad_alloc@std@@QAE@ABV01@@Z12
	DD	FLAT:__CT??_R0?AVexception@std@@@8??0exception@std@@QAE@ABV01@@Z12
xdata$x	ENDS
;	COMDAT __TI2?AVbad_alloc@std@@
xdata$x	SEGMENT
__TI2?AVbad_alloc@std@@ DD 00H
	DD	FLAT:??1bad_alloc@std@@UAE@XZ
	DD	00H
	DD	FLAT:__CTA2?AVbad_alloc@std@@
; Function compile flags: /Ogsp
; File c:\program files (x86)\microsoft visual studio 10.0\vc\include\xmemory
xdata$x	ENDS
;	COMDAT ??$_Allocate@UWeaponInfo@@@std@@YAPAUWeaponInfo@@IPAU1@@Z
_TEXT	SEGMENT
$T553071 = -12						; size = 12
$T553076 = 8						; size = 4
__Count$ = 8						; size = 4
___formal$ = 12						; size = 4
??$_Allocate@UWeaponInfo@@@std@@YAPAUWeaponInfo@@IPAU1@@Z PROC ; std::_Allocate<WeaponInfo>, COMDAT

; 30   : 	{	// allocate storage for _Count elements of type _Ty

  00000	55		 push	 ebp
  00001	8b ec		 mov	 ebp, esp

; 31   : 	void *_Ptr = 0;
; 32   : 
; 33   : 	if (_Count <= 0)

  00003	8b 4d 08	 mov	 ecx, DWORD PTR __Count$[ebp]
  00006	83 ec 0c	 sub	 esp, 12			; 0000000cH
  00009	33 c0		 xor	 eax, eax
  0000b	85 c9		 test	 ecx, ecx

; 34   : 		_Count = 0;
; 35   : 	else if (((_SIZT)(-1) / sizeof (_Ty) < _Count)

  0000d	74 3c		 je	 SHORT $LN5@Allocate

; 36   : 		|| (_Ptr = ::operator new(_Count * sizeof (_Ty))) == 0)

  0000f	81 f9 66 66 66
	06		 cmp	 ecx, 107374182		; 06666666H
  00015	77 0e		 ja	 SHORT $LN1@Allocate
  00017	6b c9 28	 imul	 ecx, 40			; 00000028H
  0001a	51		 push	 ecx
  0001b	e8 00 00 00 00	 call	 ??2@YAPAXI@Z		; operator new
  00020	59		 pop	 ecx
  00021	85 c0		 test	 eax, eax

; 38   : 
; 39   : 	return ((_Ty _FARQ *)_Ptr);

  00023	75 26		 jne	 SHORT $LN5@Allocate
$LN1@Allocate:

; 37   : 		_THROW_NCEE(bad_alloc, 0);

  00025	83 65 08 00	 and	 DWORD PTR $T553076[ebp], 0
  00029	8d 45 08	 lea	 eax, DWORD PTR $T553076[ebp]
  0002c	50		 push	 eax
  0002d	8d 4d f4	 lea	 ecx, DWORD PTR $T553071[ebp]
  00030	ff 15 00 00 00
	00		 call	 DWORD PTR __imp_??0exception@std@@QAE@ABQBD@Z
  00036	68 00 00 00 00	 push	 OFFSET __TI2?AVbad_alloc@std@@
  0003b	8d 45 f4	 lea	 eax, DWORD PTR $T553071[ebp]
  0003e	50		 push	 eax
  0003f	c7 45 f4 00 00
	00 00		 mov	 DWORD PTR $T553071[ebp], OFFSET ??_7bad_alloc@std@@6B@
  00046	e8 00 00 00 00	 call	 __CxxThrowException@8
$LN10@Allocate:
$LN5@Allocate:

; 40   : 	}

  0004b	c9		 leave
  0004c	c3		 ret	 0
$LN9@Allocate:
??$_Allocate@UWeaponInfo@@@std@@YAPAUWeaponInfo@@IPAU1@@Z ENDP ; std::_Allocate<WeaponInfo>
_TEXT	ENDS
EXTRN	__imp_??0exception@std@@QAE@ABV01@@Z:PROC
; Function compile flags: /Ogsp
;	COMDAT ??0bad_alloc@std@@QAE@ABV01@@Z
_TEXT	SEGMENT
___that$ = 8						; size = 4
??0bad_alloc@std@@QAE@ABV01@@Z PROC			; std::bad_alloc::bad_alloc, COMDAT
; _this$ = ecx
  00000	55		 push	 ebp
  00001	8b ec		 mov	 ebp, esp
  00003	56		 push	 esi
  00004	ff 75 08	 push	 DWORD PTR ___that$[ebp]
  00007	8b f1		 mov	 esi, ecx
  00009	ff 15 00 00 00
	00		 call	 DWORD PTR __imp_??0exception@std@@QAE@ABV01@@Z
  0000f	c7 06 00 00 00
	00		 mov	 DWORD PTR [esi], OFFSET ??_7bad_alloc@std@@6B@
  00015	8b c6		 mov	 eax, esi
  00017	5e		 pop	 esi
  00018	5d		 pop	 ebp
  00019	c2 04 00	 ret	 4
??0bad_alloc@std@@QAE@ABV01@@Z ENDP			; std::bad_alloc::bad_alloc
_TEXT	ENDS
PUBLIC	??$_Allocate@UForceInfo@@@std@@YAPAUForceInfo@@IPAU1@@Z ; std::_Allocate<ForceInfo>
; Function compile flags: /Ogsp
;	COMDAT ??$_Allocate@UForceInfo@@@std@@YAPAUForceInfo@@IPAU1@@Z
_TEXT	SEGMENT
$T553084 = -12						; size = 12
$T553088 = 8						; size = 4
__Count$ = 8						; size = 4
___formal$ = 12						; size = 4
??$_Allocate@UForceInfo@@@std@@YAPAUForceInfo@@IPAU1@@Z PROC ; std::_Allocate<ForceInfo>, COMDAT

; 30   : 	{	// allocate storage for _Count elements of type _Ty

  00000	55		 push	 ebp
  00001	8b ec		 mov	 ebp, esp

; 31   : 	void *_Ptr = 0;
; 32   : 
; 33   : 	if (_Count <= 0)

  00003	8b 4d 08	 mov	 ecx, DWORD PTR __Count$[ebp]
  00006	83 ec 0c	 sub	 esp, 12			; 0000000cH
  00009	33 c0		 xor	 eax, eax
  0000b	85 c9		 test	 ecx, ecx

; 34   : 		_Count = 0;
; 35   : 	else if (((_SIZT)(-1) / sizeof (_Ty) < _Count)

  0000d	74 3c		 je	 SHORT $LN5@Allocate@2

; 36   : 		|| (_Ptr = ::operator new(_Count * sizeof (_Ty))) == 0)

  0000f	81 f9 55 55 55
	15		 cmp	 ecx, 357913941		; 15555555H
  00015	77 0e		 ja	 SHORT $LN1@Allocate@2
  00017	6b c9 0c	 imul	 ecx, 12			; 0000000cH
  0001a	51		 push	 ecx
  0001b	e8 00 00 00 00	 call	 ??2@YAPAXI@Z		; operator new
  00020	59		 pop	 ecx
  00021	85 c0		 test	 eax, eax

; 38   : 
; 39   : 	return ((_Ty _FARQ *)_Ptr);

  00023	75 26		 jne	 SHORT $LN5@Allocate@2
$LN1@Allocate@2:

; 37   : 		_THROW_NCEE(bad_alloc, 0);

  00025	83 65 08 00	 and	 DWORD PTR $T553088[ebp], 0
  00029	8d 45 08	 lea	 eax, DWORD PTR $T553088[ebp]
  0002c	50		 push	 eax
  0002d	8d 4d f4	 lea	 ecx, DWORD PTR $T553084[ebp]
  00030	ff 15 00 00 00
	00		 call	 DWORD PTR __imp_??0exception@std@@QAE@ABQBD@Z
  00036	68 00 00 00 00	 push	 OFFSET __TI2?AVbad_alloc@std@@
  0003b	8d 45 f4	 lea	 eax, DWORD PTR $T553084[ebp]
  0003e	50		 push	 eax
  0003f	c7 45 f4 00 00
	00 00		 mov	 DWORD PTR $T553084[ebp], OFFSET ??_7bad_alloc@std@@6B@
  00046	e8 00 00 00 00	 call	 __CxxThrowException@8
$LN10@Allocate@2:
$LN5@Allocate@2:

; 40   : 	}

  0004b	c9		 leave
  0004c	c3		 ret	 0
$LN9@Allocate@2:
??$_Allocate@UForceInfo@@@std@@YAPAUForceInfo@@IPAU1@@Z ENDP ; std::_Allocate<ForceInfo>
_TEXT	ENDS
PUBLIC	??$_Destroy@UForceInfo@@@std@@YAXPAUForceInfo@@@Z ; std::_Destroy<ForceInfo>
; Function compile flags: /Ogsp
;	COMDAT ??$_Destroy@UForceInfo@@@std@@YAXPAUForceInfo@@@Z
_TEXT	SEGMENT
__Ptr$ = 8						; size = 4
??$_Destroy@UForceInfo@@@std@@YAXPAUForceInfo@@@Z PROC	; std::_Destroy<ForceInfo>, COMDAT

; 63   : 	_Ptr->~_Ty();
; 64   : 	}

  00000	c3		 ret	 0
??$_Destroy@UForceInfo@@@std@@YAXPAUForceInfo@@@Z ENDP	; std::_Destroy<ForceInfo>
_TEXT	ENDS
PUBLIC	??_GWeaponInfo@@QAEPAXI@Z			; WeaponInfo::`scalar deleting destructor'
; Function compile flags: /Ogsp
;	COMDAT ??_GWeaponInfo@@QAEPAXI@Z
_TEXT	SEGMENT
___flags$ = 8						; size = 4
??_GWeaponInfo@@QAEPAXI@Z PROC				; WeaponInfo::`scalar deleting destructor', COMDAT
; _this$ = ecx
  00000	55		 push	 ebp
  00001	8b ec		 mov	 ebp, esp
  00003	56		 push	 esi
  00004	8b f1		 mov	 esi, ecx
  00006	8d 4e 08	 lea	 ecx, DWORD PTR [esi+8]
  00009	ff 15 00 00 00
	00		 call	 DWORD PTR __imp_??1ioHashString@@QAE@XZ
  0000f	f6 45 08 01	 test	 BYTE PTR ___flags$[ebp], 1
  00013	74 07		 je	 SHORT $LN1@scalar@2
  00015	56		 push	 esi
  00016	e8 00 00 00 00	 call	 ??3@YAXPAX@Z		; operator delete
  0001b	59		 pop	 ecx
$LN1@scalar@2:
  0001c	8b c6		 mov	 eax, esi
  0001e	5e		 pop	 esi
  0001f	5d		 pop	 ebp
  00020	c2 04 00	 ret	 4
??_GWeaponInfo@@QAEPAXI@Z ENDP				; WeaponInfo::`scalar deleting destructor'
_TEXT	ENDS
PUBLIC	??0WeaponInfo@@QAE@ABU0@@Z			; WeaponInfo::WeaponInfo
EXTRN	__imp_??0ioHashString@@QAE@ABV0@@Z:PROC
; Function compile flags: /Ogsp
;	COMDAT ??0WeaponInfo@@QAE@ABU0@@Z
_TEXT	SEGMENT
___that$ = 8						; size = 4
??0WeaponInfo@@QAE@ABU0@@Z PROC				; WeaponInfo::WeaponInfo, COMDAT
; _this$ = ecx
  00000	55		 push	 ebp
  00001	8b ec		 mov	 ebp, esp
  00003	56		 push	 esi
  00004	57		 push	 edi
  00005	8b 7d 08	 mov	 edi, DWORD PTR ___that$[ebp]
  00008	8b 07		 mov	 eax, DWORD PTR [edi]
  0000a	8b f1		 mov	 esi, ecx
  0000c	89 06		 mov	 DWORD PTR [esi], eax
  0000e	8b 47 04	 mov	 eax, DWORD PTR [edi+4]
  00011	89 46 04	 mov	 DWORD PTR [esi+4], eax
  00014	8d 47 08	 lea	 eax, DWORD PTR [edi+8]
  00017	50		 push	 eax
  00018	8d 4e 08	 lea	 ecx, DWORD PTR [esi+8]
  0001b	ff 15 00 00 00
	00		 call	 DWORD PTR __imp_??0ioHashString@@QAE@ABV0@@Z
  00021	8b 47 18	 mov	 eax, DWORD PTR [edi+24]
  00024	89 46 18	 mov	 DWORD PTR [esi+24], eax
  00027	8b 47 1c	 mov	 eax, DWORD PTR [edi+28]
  0002a	89 46 1c	 mov	 DWORD PTR [esi+28], eax
  0002d	8a 47 20	 mov	 al, BYTE PTR [edi+32]
  00030	88 46 20	 mov	 BYTE PTR [esi+32], al
  00033	8b 47 24	 mov	 eax, DWORD PTR [edi+36]
  00036	89 46 24	 mov	 DWORD PTR [esi+36], eax
  00039	5f		 pop	 edi
  0003a	8b c6		 mov	 eax, esi
  0003c	5e		 pop	 esi
  0003d	5d		 pop	 ebp
  0003e	c2 04 00	 ret	 4
??0WeaponInfo@@QAE@ABU0@@Z ENDP				; WeaponInfo::WeaponInfo
_TEXT	ENDS
PUBLIC	__real@3f800000
PUBLIC	_pStage$GSCopy$
PUBLIC	_pChar$GSCopy$
PUBLIC	__$ArrayPad$
PUBLIC	?SetLoopEndAttackState@ioWhirlwndAttack@@IAEXPAVioBaseChar@@PAVioPlayStage@@_N@Z ; ioWhirlwndAttack::SetLoopEndAttackState
EXTRN	??1SP2Packet@@UAE@XZ:PROC			; SP2Packet::~SP2Packet
EXTRN	?SendToAllPlayingUser@P2PNetwork@@YAXAAVSP2Packet@@PAVioBaseChar@@@Z:PROC ; P2PNetwork::SendToAllPlayingUser
EXTRN	??6SP2Packet@@QAEAAV0@ABUD3DXQUATERNION@@@Z:PROC ; SP2Packet::operator<<
EXTRN	??6SP2Packet@@QAEAAV0@ABUD3DXVECTOR3@@@Z:PROC	; SP2Packet::operator<<
EXTRN	??6SP2Packet@@QAEAAV0@H@Z:PROC			; SP2Packet::operator<<
EXTRN	??6SP2Packet@@QAEAAV0@ABVioHashString@@@Z:PROC	; SP2Packet::operator<<
EXTRN	??0SP2Packet@@QAE@K@Z:PROC			; SP2Packet::SP2Packet
EXTRN	?DestroyMagicCircle@ioBaseGUISupport@@QAEXXZ:PROC ; ioBaseGUISupport::DestroyMagicCircle
EXTRN	__imp_?GetUniqueID@ioMovableObject@@QBEKXZ:PROC
EXTRN	?CreateMapEffect@ioPlayStage@@QAEPAVioMapEffect@@ABVioHashString@@ABUD3DXVECTOR3@@1@Z:PROC ; ioPlayStage::CreateMapEffect
EXTRN	_D3DXVec3Normalize@8:PROC
EXTRN	?GetMagicCirclePos@ioBaseGUISupport@@QBE?AUD3DXVECTOR3@@M_N@Z:PROC ; ioBaseGUISupport::GetMagicCirclePos
EXTRN	___security_cookie:DWORD
EXTRN	___CxxFrameHandler3:PROC
EXTRN	@__security_check_cookie@4:PROC
EXTRN	__chkstk:PROC
;	COMDAT __real@3f800000
; File d:\lost saga for developer\youtube\tutorial\source\src\lsclient\iobasechar.h
CONST	SEGMENT
__real@3f800000 DD 03f800000r			; 1
CONST	ENDS
;	COMDAT xdata$x
xdata$x	SEGMENT
__unwindtable$?SetLoopEndAttackState@ioWhirlwndAttack@@IAEXPAVioBaseChar@@PAVioPlayStage@@_N@Z DD 0ffffffffH
	DD	FLAT:__unwindfunclet$?SetLoopEndAttackState@ioWhirlwndAttack@@IAEXPAVioBaseChar@@PAVioPlayStage@@_N@Z$0
__ehfuncinfo$?SetLoopEndAttackState@ioWhirlwndAttack@@IAEXPAVioBaseChar@@PAVioPlayStage@@_N@Z DD 019930522H
	DD	01H
	DD	FLAT:__unwindtable$?SetLoopEndAttackState@ioWhirlwndAttack@@IAEXPAVioBaseChar@@PAVioPlayStage@@_N@Z
	DD	2 DUP(00H)
	DD	2 DUP(00H)
	DD	00H
	DD	01H
; Function compile flags: /Ogsp
; File d:\lost saga for developer\youtube\tutorial\source\src\lsclient\iowhirlwndattack.cpp
xdata$x	ENDS
;	COMDAT ?SetLoopEndAttackState@ioWhirlwndAttack@@IAEXPAVioBaseChar@@PAVioPlayStage@@_N@Z
_TEXT	SEGMENT
_pStage$GSCopy$ = -32840				; size = 4
_pChar$GSCopy$ = -32836					; size = 4
_kPacket$548442 = -32832				; size = 32792
_vPos$ = -40						; size = 12
$T548439 = -28						; size = 12
$T548436 = -28						; size = 12
$T548435 = -28						; size = 12
__$ArrayPad$ = -16					; size = 4
__$EHRec$ = -12						; size = 12
_pChar$ = 8						; size = 4
_pStage$ = 12						; size = 4
_bSync$ = 16						; size = 1
?SetLoopEndAttackState@ioWhirlwndAttack@@IAEXPAVioBaseChar@@PAVioPlayStage@@_N@Z PROC ; ioWhirlwndAttack::SetLoopEndAttackState, COMDAT
; _this$ = ecx

; 347  : {

  00000	55		 push	 ebp
  00001	8b ec		 mov	 ebp, esp
  00003	6a ff		 push	 -1
  00005	68 00 00 00 00	 push	 __ehhandler$?SetLoopEndAttackState@ioWhirlwndAttack@@IAEXPAVioBaseChar@@PAVioPlayStage@@_N@Z
  0000a	64 a1 00 00 00
	00		 mov	 eax, DWORD PTR fs:0
  00010	50		 push	 eax
  00011	b8 3c 80 00 00	 mov	 eax, 32828		; 0000803cH
  00016	e8 00 00 00 00	 call	 __chkstk
  0001b	a1 00 00 00 00	 mov	 eax, DWORD PTR ___security_cookie
  00020	33 c5		 xor	 eax, ebp
  00022	89 45 f0	 mov	 DWORD PTR __$ArrayPad$[ebp], eax
  00025	53		 push	 ebx
  00026	56		 push	 esi
  00027	57		 push	 edi
  00028	50		 push	 eax
  00029	8d 45 f4	 lea	 eax, DWORD PTR __$EHRec$[ebp]
  0002c	64 a3 00 00 00
	00		 mov	 DWORD PTR fs:0, eax
  00032	8b 75 08	 mov	 esi, DWORD PTR _pChar$[ebp]
  00035	8b 45 0c	 mov	 eax, DWORD PTR _pStage$[ebp]
  00038	8b d9		 mov	 ebx, ecx

; 348  : 	m_SkillState = SS_LOOP_END_ATTACK;
; 349  : 
; 350  : 	//ioWhirlwndAttack::GetAttribute()에서 해당 스테이트에 맞는 공격을 던져줌
; 351  : 	ioAttackSkill::AttackSkillFire( pChar );

  0003a	56		 push	 esi

; 371  : 	{
; 372  : 		SP2Packet kPacket( CUPK_SKILL_EXTRA_INFO );

  0003b	89 b5 bc 7f ff
	ff		 mov	 DWORD PTR _pChar$GSCopy$[ebp], esi
  00041	89 85 b8 7f ff
	ff		 mov	 DWORD PTR _pStage$GSCopy$[ebp], eax
  00047	c7 83 e4 10 00
	00 02 00 00 00	 mov	 DWORD PTR [ebx+4324], 2
  00051	e8 00 00 00 00	 call	 ?AttackSkillFire@ioAttackSkill@@MAEXPAVioBaseChar@@@Z ; ioAttackSkill::AttackSkillFire
  00056	8b 06		 mov	 eax, DWORD PTR [esi]
  00058	8b ce		 mov	 ecx, esi
  0005a	ff 90 00 01 00
	00		 call	 DWORD PTR [eax+256]
  00060	84 c0		 test	 al, al
  00062	0f 84 a4 00 00
	00		 je	 $LN3@SetLoopEnd

; 352  : 		
; 353  : 	if( pChar->IsNeedProcess() )
; 354  : 	{
; 355  : 		m_vAttackPos = pChar->GetMagicCirclePos();

  00068	0f 57 c0	 xorps	 xmm0, xmm0
  0006b	6a 00		 push	 0
  0006d	51		 push	 ecx
  0006e	8d 45 e4	 lea	 eax, DWORD PTR $T548435[ebp]
  00071	f3 0f 11 04 24	 movss	 DWORD PTR [esp], xmm0
  00076	50		 push	 eax
  00077	8d 8e cc 01 00
	00		 lea	 ecx, DWORD PTR [esi+460]
  0007d	e8 00 00 00 00	 call	 ?GetMagicCirclePos@ioBaseGUISupport@@QBE?AUD3DXVECTOR3@@M_N@Z ; ioBaseGUISupport::GetMagicCirclePos

; 356  : 		m_vAttackDir = m_vAttackPos - pChar->GetWorldPosition();

  00082	8b 8d bc 7f ff
	ff		 mov	 ecx, DWORD PTR _pChar$GSCopy$[ebp]
  00088	8b f0		 mov	 esi, eax
  0008a	8d bb e4 11 00
	00		 lea	 edi, DWORD PTR [ebx+4580]
  00090	a5		 movsd
  00091	a5		 movsd
  00092	a5		 movsd
  00093	8b 01		 mov	 eax, DWORD PTR [ecx]
  00095	ff 50 70	 call	 DWORD PTR [eax+112]
  00098	f3 0f 10 08	 movss	 xmm1, DWORD PTR [eax]
  0009c	f3 0f 10 83 e4
	11 00 00	 movss	 xmm0, DWORD PTR [ebx+4580]
  000a4	f3 0f 10 50 04	 movss	 xmm2, DWORD PTR [eax+4]
  000a9	f3 0f 10 58 08	 movss	 xmm3, DWORD PTR [eax+8]
  000ae	0f 5a c9	 cvtps2pd xmm1, xmm1
  000b1	0f 5a c0	 cvtps2pd xmm0, xmm0
  000b4	f2 0f 5c c1	 subsd	 xmm0, xmm1
  000b8	f3 0f 10 8b e8
	11 00 00	 movss	 xmm1, DWORD PTR [ebx+4584]
  000c0	0f 5a d2	 cvtps2pd xmm2, xmm2
  000c3	0f 5a c9	 cvtps2pd xmm1, xmm1
  000c6	f2 0f 5c ca	 subsd	 xmm1, xmm2
  000ca	f3 0f 10 93 ec
	11 00 00	 movss	 xmm2, DWORD PTR [ebx+4588]
  000d2	8d 83 f0 11 00
	00		 lea	 eax, DWORD PTR [ebx+4592]
  000d8	0f 5a d2	 cvtps2pd xmm2, xmm2
  000db	0f 5a db	 cvtps2pd xmm3, xmm3
  000de	f2 0f 5c d3	 subsd	 xmm2, xmm3
  000e2	66 0f 5a c0	 cvtpd2ps xmm0, xmm0
  000e6	f3 0f 11 45 e4	 movss	 DWORD PTR $T548436[ebp], xmm0
  000eb	66 0f 5a c9	 cvtpd2ps xmm1, xmm1
  000ef	f3 0f 11 4d e8	 movss	 DWORD PTR $T548436[ebp+4], xmm1
  000f4	66 0f 5a d2	 cvtpd2ps xmm2, xmm2
  000f8	f3 0f 11 55 ec	 movss	 DWORD PTR $T548436[ebp+8], xmm2
  000fd	8b f8		 mov	 edi, eax
  000ff	8d 75 e4	 lea	 esi, DWORD PTR $T548436[ebp]
  00102	a5		 movsd
  00103	a5		 movsd

; 357  : 		D3DXVec3Normalize( &m_vAttackDir, &m_vAttackDir );

  00104	50		 push	 eax
  00105	50		 push	 eax
  00106	a5		 movsd
  00107	e8 00 00 00 00	 call	 _D3DXVec3Normalize@8
$LN3@SetLoopEnd:

; 358  : 	}
; 359  : 
; 360  : 	D3DXVECTOR3 vPos = m_vAttackPos;
; 361  : 	vPos.y += m_fLoopEndAttackEffectYOffset;

  0010c	f3 0f 10 83 d8
	11 00 00	 movss	 xmm0, DWORD PTR [ebx+4568]

; 362  : 
; 363  : 	ioMapEffect* pMapEffect = pStage->CreateMapEffect( m_szLoopEndAttackEffect, vPos, D3DXVECTOR3( 1.0f, 1.0f, 1.0f ) );

  00114	8b 8d b8 7f ff
	ff		 mov	 ecx, DWORD PTR _pStage$GSCopy$[ebp]
  0011a	8d b3 e4 11 00
	00		 lea	 esi, DWORD PTR [ebx+4580]
  00120	8d 7d d8	 lea	 edi, DWORD PTR _vPos$[ebp]
  00123	a5		 movsd
  00124	a5		 movsd
  00125	8d 45 e4	 lea	 eax, DWORD PTR $T548439[ebp]
  00128	50		 push	 eax
  00129	a5		 movsd
  0012a	f3 0f 10 4d dc	 movss	 xmm1, DWORD PTR _vPos$[ebp+4]
  0012f	0f 5a c0	 cvtps2pd xmm0, xmm0
  00132	8d 45 d8	 lea	 eax, DWORD PTR _vPos$[ebp]
  00135	0f 5a c9	 cvtps2pd xmm1, xmm1
  00138	f2 0f 58 c1	 addsd	 xmm0, xmm1
  0013c	50		 push	 eax
  0013d	66 0f 5a c0	 cvtpd2ps xmm0, xmm0
  00141	8d 83 c8 11 00
	00		 lea	 eax, DWORD PTR [ebx+4552]
  00147	f3 0f 11 45 dc	 movss	 DWORD PTR _vPos$[ebp+4], xmm0
  0014c	f3 0f 10 05 00
	00 00 00	 movss	 xmm0, DWORD PTR __real@3f800000
  00154	50		 push	 eax
  00155	f3 0f 11 45 e4	 movss	 DWORD PTR $T548439[ebp], xmm0
  0015a	f3 0f 11 45 e8	 movss	 DWORD PTR $T548439[ebp+4], xmm0
  0015f	f3 0f 11 45 ec	 movss	 DWORD PTR $T548439[ebp+8], xmm0
  00164	e8 00 00 00 00	 call	 ?CreateMapEffect@ioPlayStage@@QAEPAVioMapEffect@@ABVioHashString@@ABUD3DXVECTOR3@@1@Z ; ioPlayStage::CreateMapEffect

; 364  : 	if( pMapEffect && pMapEffect->GetEffect() )

  00169	33 ff		 xor	 edi, edi
  0016b	3b c7		 cmp	 eax, edi
  0016d	74 16		 je	 SHORT $LN2@SetLoopEnd
  0016f	8b 40 04	 mov	 eax, DWORD PTR [eax+4]
  00172	3b c7		 cmp	 eax, edi
  00174	74 0f		 je	 SHORT $LN2@SetLoopEnd

; 365  : 	{
; 366  : 		m_LoopEndAttackEffectID = pMapEffect->GetEffect()->GetUniqueID();

  00176	8d 48 14	 lea	 ecx, DWORD PTR [eax+20]
  00179	ff 15 00 00 00
	00		 call	 DWORD PTR __imp_?GetUniqueID@ioMovableObject@@QBEKXZ
  0017f	89 83 e0 11 00
	00		 mov	 DWORD PTR [ebx+4576], eax
$LN2@SetLoopEnd:

; 367  : 	}
; 368  : 	pChar->DestroyMagicCircle();

  00185	8b b5 bc 7f ff
	ff		 mov	 esi, DWORD PTR _pChar$GSCopy$[ebp]
  0018b	8d 8e cc 01 00
	00		 lea	 ecx, DWORD PTR [esi+460]
  00191	e8 00 00 00 00	 call	 ?DestroyMagicCircle@ioBaseGUISupport@@QAEXXZ ; ioBaseGUISupport::DestroyMagicCircle

; 369  : 
; 370  : 	if( pChar->IsNeedSendNetwork() )

  00196	8b 06		 mov	 eax, DWORD PTR [esi]
  00198	8b ce		 mov	 ecx, esi
  0019a	ff 90 04 01 00
	00		 call	 DWORD PTR [eax+260]
  001a0	84 c0		 test	 al, al
  001a2	0f 84 a7 00 00
	00		 je	 $LN1@SetLoopEnd

; 371  : 	{
; 372  : 		SP2Packet kPacket( CUPK_SKILL_EXTRA_INFO );

  001a8	68 39 41 00 00	 push	 16697			; 00004139H
  001ad	8d 8d c0 7f ff
	ff		 lea	 ecx, DWORD PTR _kPacket$548442[ebp]
  001b3	e8 00 00 00 00	 call	 ??0SP2Packet@@QAE@K@Z	; SP2Packet::SP2Packet

; 373  : 		kPacket << pChar->GetCharName();

  001b8	8d 86 d4 02 00
	00		 lea	 eax, DWORD PTR [esi+724]
  001be	50		 push	 eax
  001bf	8d 8d c0 7f ff
	ff		 lea	 ecx, DWORD PTR _kPacket$548442[ebp]
  001c5	89 7d fc	 mov	 DWORD PTR __$EHRec$[ebp+8], edi
  001c8	e8 00 00 00 00	 call	 ??6SP2Packet@@QAEAAV0@ABVioHashString@@@Z ; SP2Packet::operator<<

; 374  : 		kPacket << GetName();

  001cd	8d 43 24	 lea	 eax, DWORD PTR [ebx+36]
  001d0	50		 push	 eax
  001d1	8d 8d c0 7f ff
	ff		 lea	 ecx, DWORD PTR _kPacket$548442[ebp]
  001d7	e8 00 00 00 00	 call	 ??6SP2Packet@@QAEAAV0@ABVioHashString@@@Z ; SP2Packet::operator<<

; 375  : 		kPacket << (int)SSS_LOOP_END_ATTACK;

  001dc	57		 push	 edi
  001dd	8d 8d c0 7f ff
	ff		 lea	 ecx, DWORD PTR _kPacket$548442[ebp]
  001e3	e8 00 00 00 00	 call	 ??6SP2Packet@@QAEAAV0@H@Z ; SP2Packet::operator<<

; 376  : 		kPacket << pChar->GetWorldPosition();

  001e8	8b 06		 mov	 eax, DWORD PTR [esi]
  001ea	8b ce		 mov	 ecx, esi
  001ec	ff 50 70	 call	 DWORD PTR [eax+112]
  001ef	50		 push	 eax
  001f0	8d 8d c0 7f ff
	ff		 lea	 ecx, DWORD PTR _kPacket$548442[ebp]
  001f6	e8 00 00 00 00	 call	 ??6SP2Packet@@QAEAAV0@ABUD3DXVECTOR3@@@Z ; SP2Packet::operator<<

; 377  : 		kPacket << pChar->GetTargetRot();

  001fb	81 c6 a4 06 00
	00		 add	 esi, 1700		; 000006a4H
  00201	56		 push	 esi
  00202	8d 8d c0 7f ff
	ff		 lea	 ecx, DWORD PTR _kPacket$548442[ebp]
  00208	e8 00 00 00 00	 call	 ??6SP2Packet@@QAEAAV0@ABUD3DXQUATERNION@@@Z ; SP2Packet::operator<<

; 378  : 		kPacket << m_vAttackPos;

  0020d	8d 83 e4 11 00
	00		 lea	 eax, DWORD PTR [ebx+4580]
  00213	50		 push	 eax
  00214	8d 8d c0 7f ff
	ff		 lea	 ecx, DWORD PTR _kPacket$548442[ebp]
  0021a	e8 00 00 00 00	 call	 ??6SP2Packet@@QAEAAV0@ABUD3DXVECTOR3@@@Z ; SP2Packet::operator<<

; 379  : 		kPacket << m_vAttackDir;

  0021f	81 c3 f0 11 00
	00		 add	 ebx, 4592		; 000011f0H
  00225	53		 push	 ebx
  00226	8d 8d c0 7f ff
	ff		 lea	 ecx, DWORD PTR _kPacket$548442[ebp]
  0022c	e8 00 00 00 00	 call	 ??6SP2Packet@@QAEAAV0@ABUD3DXVECTOR3@@@Z ; SP2Packet::operator<<

; 380  : 		P2PNetwork::SendToAllPlayingUser( kPacket );

  00231	8d 85 c0 7f ff
	ff		 lea	 eax, DWORD PTR _kPacket$548442[ebp]
  00237	57		 push	 edi
  00238	50		 push	 eax
  00239	e8 00 00 00 00	 call	 ?SendToAllPlayingUser@P2PNetwork@@YAXAAVSP2Packet@@PAVioBaseChar@@@Z ; P2PNetwork::SendToAllPlayingUser

; 381  : 	}

  0023e	83 4d fc ff	 or	 DWORD PTR __$EHRec$[ebp+8], -1
  00242	59		 pop	 ecx
  00243	59		 pop	 ecx
  00244	8d 8d c0 7f ff
	ff		 lea	 ecx, DWORD PTR _kPacket$548442[ebp]
  0024a	e8 00 00 00 00	 call	 ??1SP2Packet@@UAE@XZ	; SP2Packet::~SP2Packet
$LN1@SetLoopEnd:

; 382  : }

  0024f	8b 4d f4	 mov	 ecx, DWORD PTR __$EHRec$[ebp]
  00252	64 89 0d 00 00
	00 00		 mov	 DWORD PTR fs:0, ecx
  00259	59		 pop	 ecx
  0025a	5f		 pop	 edi
  0025b	5e		 pop	 esi
  0025c	5b		 pop	 ebx
  0025d	8b 4d f0	 mov	 ecx, DWORD PTR __$ArrayPad$[ebp]
  00260	33 cd		 xor	 ecx, ebp
  00262	e8 00 00 00 00	 call	 @__security_check_cookie@4
  00267	c9		 leave
  00268	c2 0c 00	 ret	 12			; 0000000cH
_TEXT	ENDS
;	COMDAT text$x
text$x	SEGMENT
__unwindfunclet$?SetLoopEndAttackState@ioWhirlwndAttack@@IAEXPAVioBaseChar@@PAVioPlayStage@@_N@Z$0:
  00000	8d 8d c0 7f ff
	ff		 lea	 ecx, DWORD PTR _kPacket$548442[ebp]
  00006	e9 00 00 00 00	 jmp	 ??1SP2Packet@@UAE@XZ	; SP2Packet::~SP2Packet
__ehhandler$?SetLoopEndAttackState@ioWhirlwndAttack@@IAEXPAVioBaseChar@@PAVioPlayStage@@_N@Z:
  0000b	8b 54 24 08	 mov	 edx, DWORD PTR [esp+8]
  0000f	8d 42 0c	 lea	 eax, DWORD PTR [edx+12]
  00012	8b 8a b4 7f ff
	ff		 mov	 ecx, DWORD PTR [edx-32844]
  00018	33 c8		 xor	 ecx, eax
  0001a	e8 00 00 00 00	 call	 @__security_check_cookie@4
  0001f	8b 4a fc	 mov	 ecx, DWORD PTR [edx-4]
  00022	33 c8		 xor	 ecx, eax
  00024	e8 00 00 00 00	 call	 @__security_check_cookie@4
  00029	b8 00 00 00 00	 mov	 eax, OFFSET __ehfuncinfo$?SetLoopEndAttackState@ioWhirlwndAttack@@IAEXPAVioBaseChar@@PAVioPlayStage@@_N@Z
  0002e	e9 00 00 00 00	 jmp	 ___CxxFrameHandler3
text$x	ENDS
?SetLoopEndAttackState@ioWhirlwndAttack@@IAEXPAVioBaseChar@@PAVioPlayStage@@_N@Z ENDP ; ioWhirlwndAttack::SetLoopEndAttackState
PUBLIC	__real@41f0000000000000
PUBLIC	__real@3ff0000000000000
PUBLIC	__real@42c80000
PUBLIC	?SetFastMovePre@ioWhirlwndAttack@@IAEXPAVioBaseChar@@PAVioPlayStage@@@Z ; ioWhirlwndAttack::SetFastMovePre
EXTRN	__imp_?GetAnimationFullTime@ioEntityGroup@@QAEMH@Z:PROC
EXTRN	__imp_?SetActionAni@ioEntityGroup@@QAE_NHMMMMMM_N0@Z:PROC
EXTRN	__imp_?ClearAllActionAni@ioEntityGroup@@QAEXM_N@Z:PROC
EXTRN	__imp_?ClearAllLoopAni@ioEntityGroup@@QAEXM_N@Z:PROC
EXTRN	__imp_?GetAnimationIdx@ioEntityGroup@@QAEHABVioHashString@@@Z:PROC
EXTRN	__ftol2:PROC
;	COMDAT __real@41f0000000000000
; File d:\lost saga for developer\youtube\tutorial\source\src\lsclient\iogameentity.h
CONST	SEGMENT
__real@41f0000000000000 DQ 041f0000000000000r	; 4.29497e+009
CONST	ENDS
;	COMDAT __real@3ff0000000000000
CONST	SEGMENT
__real@3ff0000000000000 DQ 03ff0000000000000r	; 1
CONST	ENDS
;	COMDAT __real@42c80000
CONST	SEGMENT
__real@42c80000 DD 042c80000r			; 100
; Function compile flags: /Ogsp
; File d:\lost saga for developer\youtube\tutorial\source\src\lsclient\iowhirlwndattack.cpp
CONST	ENDS
;	COMDAT ?SetFastMovePre@ioWhirlwndAttack@@IAEXPAVioBaseChar@@PAVioPlayStage@@@Z
_TEXT	SEGMENT
tv128 = 8						; size = 4
_iAniID$ = 8						; size = 4
_pChar$ = 8						; size = 4
_pStage$ = 12						; size = 4
?SetFastMovePre@ioWhirlwndAttack@@IAEXPAVioBaseChar@@PAVioPlayStage@@@Z PROC ; ioWhirlwndAttack::SetFastMovePre, COMDAT
; _this$ = ecx

; 409  : {

  00000	55		 push	 ebp
  00001	8b ec		 mov	 ebp, esp
  00003	53		 push	 ebx
  00004	56		 push	 esi
  00005	8b f1		 mov	 esi, ecx
  00007	57		 push	 edi

; 410  : 	m_SkillState			= SS_FAST_MOVE_PRE;

  00008	c7 86 e4 10 00
	00 03 00 00 00	 mov	 DWORD PTR [esi+4324], 3

; 411  : 	m_dwPreFastMoveEndTime	= FRAMEGETTIME();

  00012	ff 15 00 00 00
	00		 call	 DWORD PTR __imp_?GetSingleton@ioFrameTimer@@SAAAV1@XZ
  00018	8b c8		 mov	 ecx, eax
  0001a	ff 15 00 00 00
	00		 call	 DWORD PTR __imp_?GetLoopSec@ioFrameTimer@@QBEKXZ
  00020	89 86 10 12 00
	00		 mov	 DWORD PTR [esi+4624], eax

; 412  : 
; 413  : 	ioEntityGroup *pGrp = pChar->GetGroup();

  00026	8b 45 08	 mov	 eax, DWORD PTR _pChar$[ebp]
  00029	8b 58 04	 mov	 ebx, DWORD PTR [eax+4]

; 414  : 	if( !pGrp )

  0002c	85 db		 test	 ebx, ebx
  0002e	0f 84 e2 00 00
	00		 je	 $LN3@SetFastMov

; 415  : 		return;
; 416  : 		
; 417  : 	int iAniID = pGrp->GetAnimationIdx( m_szPreFastMove );

  00034	8d 86 fc 11 00
	00		 lea	 eax, DWORD PTR [esi+4604]
  0003a	50		 push	 eax
  0003b	8b cb		 mov	 ecx, ebx
  0003d	ff 15 00 00 00
	00		 call	 DWORD PTR __imp_?GetAnimationIdx@ioEntityGroup@@QAEHABVioHashString@@@Z
  00043	89 45 08	 mov	 DWORD PTR _iAniID$[ebp], eax

; 418  : 	if ( iAniID == -1 )

  00046	83 f8 ff	 cmp	 eax, -1
  00049	0f 84 c7 00 00
	00		 je	 $LN3@SetFastMov

; 419  : 		return;
; 420  : 
; 421  : 	pGrp->ClearAllLoopAni( 100.0f, true );

  0004f	f3 0f 10 05 00
	00 00 00	 movss	 xmm0, DWORD PTR __real@42c80000
  00057	6a 01		 push	 1
  00059	51		 push	 ecx
  0005a	8b cb		 mov	 ecx, ebx
  0005c	f3 0f 11 04 24	 movss	 DWORD PTR [esp], xmm0
  00061	ff 15 00 00 00
	00		 call	 DWORD PTR __imp_?ClearAllLoopAni@ioEntityGroup@@QAEXM_N@Z

; 422  : 	pGrp->ClearAllActionAni( 100.0f, true );

  00067	f3 0f 10 05 00
	00 00 00	 movss	 xmm0, DWORD PTR __real@42c80000
  0006f	6a 01		 push	 1
  00071	51		 push	 ecx
  00072	8b cb		 mov	 ecx, ebx
  00074	f3 0f 11 04 24	 movss	 DWORD PTR [esp], xmm0
  00079	ff 15 00 00 00
	00		 call	 DWORD PTR __imp_?ClearAllActionAni@ioEntityGroup@@QAEXM_N@Z

; 423  : 	pGrp->SetActionAni( iAniID, 100.0f, 100.0f, 1.0f, 1.0f/m_fPreFastMoveRate );

  0007f	0f 57 c0	 xorps	 xmm0, xmm0
  00082	f2 0f 10 0d 00
	00 00 00	 movsd	 xmm1, QWORD PTR __real@3ff0000000000000
  0008a	6a 01		 push	 1
  0008c	6a 00		 push	 0
  0008e	83 ec 18	 sub	 esp, 24			; 00000018H
  00091	f3 0f 11 44 24
	14		 movss	 DWORD PTR [esp+20], xmm0
  00097	f3 0f 11 44 24
	10		 movss	 DWORD PTR [esp+16], xmm0
  0009d	f3 0f 10 86 0c
	12 00 00	 movss	 xmm0, DWORD PTR [esi+4620]
  000a5	0f 5a c0	 cvtps2pd xmm0, xmm0
  000a8	f2 0f 5e c8	 divsd	 xmm1, xmm0
  000ac	8b cb		 mov	 ecx, ebx
  000ae	66 0f 5a c1	 cvtpd2ps xmm0, xmm1
  000b2	f3 0f 11 44 24
	0c		 movss	 DWORD PTR [esp+12], xmm0
  000b8	f3 0f 10 05 00
	00 00 00	 movss	 xmm0, DWORD PTR __real@3f800000
  000c0	f3 0f 11 44 24
	08		 movss	 DWORD PTR [esp+8], xmm0
  000c6	f3 0f 10 05 00
	00 00 00	 movss	 xmm0, DWORD PTR __real@42c80000
  000ce	f3 0f 11 44 24
	04		 movss	 DWORD PTR [esp+4], xmm0
  000d4	f3 0f 11 04 24	 movss	 DWORD PTR [esp], xmm0
  000d9	ff 75 08	 push	 DWORD PTR _iAniID$[ebp]
  000dc	ff 15 00 00 00
	00		 call	 DWORD PTR __imp_?SetActionAni@ioEntityGroup@@QAE_NHMMMMMM_N0@Z

; 424  : 
; 425  : 	m_dwPreFastMoveEndTime += pGrp->GetAnimationFullTime( iAniID ) * m_fPreFastMoveRate;

  000e2	ff 75 08	 push	 DWORD PTR _iAniID$[ebp]
  000e5	8b cb		 mov	 ecx, ebx
  000e7	ff 15 00 00 00
	00		 call	 DWORD PTR __imp_?GetAnimationFullTime@ioEntityGroup@@QAEMH@Z
  000ed	d8 8e 0c 12 00
	00		 fmul	 DWORD PTR [esi+4620]
  000f3	8b 86 10 12 00
	00		 mov	 eax, DWORD PTR [esi+4624]
  000f9	db 86 10 12 00
	00		 fild	 DWORD PTR [esi+4624]
  000ff	85 c0		 test	 eax, eax
  00101	79 06		 jns	 SHORT $LN7@SetFastMov
  00103	dc 05 00 00 00
	00		 fadd	 QWORD PTR __real@41f0000000000000
$LN7@SetFastMov:
  00109	de c1		 faddp	 ST(1), ST(0)
  0010b	e8 00 00 00 00	 call	 __ftol2
  00110	89 86 10 12 00
	00		 mov	 DWORD PTR [esi+4624], eax
$LN3@SetFastMov:
  00116	5f		 pop	 edi
  00117	5e		 pop	 esi
  00118	5b		 pop	 ebx

; 426  : }

  00119	5d		 pop	 ebp
  0011a	c2 08 00	 ret	 8
?SetFastMovePre@ioWhirlwndAttack@@IAEXPAVioBaseChar@@PAVioPlayStage@@@Z ENDP ; ioWhirlwndAttack::SetFastMovePre
_TEXT	ENDS
PUBLIC	__$ArrayPad$
PUBLIC	?SetFastMove@ioWhirlwndAttack@@IAEXPAVioBaseChar@@PAVioPlayStage@@@Z ; ioWhirlwndAttack::SetFastMove
EXTRN	?SetWorldOrientation@ioMapEffect@@QAEXABUD3DXQUATERNION@@@Z:PROC ; ioMapEffect::SetWorldOrientation
EXTRN	__imp_?CalcDirectionQuaternion@ioMath@@SAXAAUD3DXQUATERNION@@ABUD3DXVECTOR3@@@Z:PROC
EXTRN	?SetSpecialHide@ioBaseChar@@QAEX_N@Z:PROC	; ioBaseChar::SetSpecialHide
EXTRN	?SetInvisibleState@ioBaseChar@@QAEX_N0@Z:PROC	; ioBaseChar::SetInvisibleState
; Function compile flags: /Ogsp
;	COMDAT ?SetFastMove@ioWhirlwndAttack@@IAEXPAVioBaseChar@@PAVioPlayStage@@@Z
_TEXT	SEGMENT
_qtRot$548486 = -44					; size = 16
$T548484 = -28						; size = 12
$T548487 = -16						; size = 12
__$ArrayPad$ = -4					; size = 4
_pChar$ = 8						; size = 4
_pStage$ = 12						; size = 4
?SetFastMove@ioWhirlwndAttack@@IAEXPAVioBaseChar@@PAVioPlayStage@@@Z PROC ; ioWhirlwndAttack::SetFastMove, COMDAT
; _this$ = ecx

; 437  : {

  00000	55		 push	 ebp
  00001	8b ec		 mov	 ebp, esp
  00003	83 ec 2c	 sub	 esp, 44			; 0000002cH
  00006	a1 00 00 00 00	 mov	 eax, DWORD PTR ___security_cookie
  0000b	33 c5		 xor	 eax, ebp
  0000d	89 45 fc	 mov	 DWORD PTR __$ArrayPad$[ebp], eax
  00010	53		 push	 ebx
  00011	8b 5d 0c	 mov	 ebx, DWORD PTR _pStage$[ebp]
  00014	56		 push	 esi
  00015	57		 push	 edi
  00016	8b 7d 08	 mov	 edi, DWORD PTR _pChar$[ebp]
  00019	8b f1		 mov	 esi, ecx

; 438  : 	m_SkillState = SS_FAST_MOVE;	
; 439  : 	pChar->SetInvisibleState( true, true );

  0001b	6a 01		 push	 1
  0001d	6a 01		 push	 1
  0001f	8b cf		 mov	 ecx, edi
  00021	c7 86 e4 10 00
	00 04 00 00 00	 mov	 DWORD PTR [esi+4324], 4
  0002b	e8 00 00 00 00	 call	 ?SetInvisibleState@ioBaseChar@@QAEX_N0@Z ; ioBaseChar::SetInvisibleState

; 440  : 	pChar->SetSpecialHide( true );

  00030	6a 01		 push	 1
  00032	8b cf		 mov	 ecx, edi
  00034	e8 00 00 00 00	 call	 ?SetSpecialHide@ioBaseChar@@QAEX_N@Z ; ioBaseChar::SetSpecialHide

; 441  : 
; 442  : 	D3DXVECTOR3 vDistance = m_vAttackPos - pChar->GetWorldPosition(); 

  00039	8b 07		 mov	 eax, DWORD PTR [edi]
  0003b	8b cf		 mov	 ecx, edi
  0003d	ff 50 70	 call	 DWORD PTR [eax+112]
  00040	f3 0f 10 08	 movss	 xmm1, DWORD PTR [eax]
  00044	f3 0f 10 86 e4
	11 00 00	 movss	 xmm0, DWORD PTR [esi+4580]
  0004c	f3 0f 10 50 04	 movss	 xmm2, DWORD PTR [eax+4]
  00051	f3 0f 10 58 08	 movss	 xmm3, DWORD PTR [eax+8]
  00056	0f 5a c0	 cvtps2pd xmm0, xmm0
  00059	0f 5a c9	 cvtps2pd xmm1, xmm1
  0005c	f2 0f 5c c1	 subsd	 xmm0, xmm1
  00060	0f 57 c9	 xorps	 xmm1, xmm1
  00063	66 0f 5a c8	 cvtpd2ps xmm1, xmm0
  00067	f3 0f 10 86 e8
	11 00 00	 movss	 xmm0, DWORD PTR [esi+4584]
  0006f	0f 5a c0	 cvtps2pd xmm0, xmm0
  00072	0f 5a d2	 cvtps2pd xmm2, xmm2
  00075	f2 0f 5c c2	 subsd	 xmm0, xmm2
  00079	f3 0f 10 96 ec
	11 00 00	 movss	 xmm2, DWORD PTR [esi+4588]
  00081	66 0f 5a c0	 cvtpd2ps xmm0, xmm0
  00085	f3 0f 5a c0	 cvtss2sd xmm0, xmm0
  00089	0f 5a d2	 cvtps2pd xmm2, xmm2

; 443  : 	m_fMaxFastMoveRange = D3DXVec3Length( &vDistance );

  0008c	f2 0f 59 c0	 mulsd	 xmm0, xmm0
  00090	0f 5a db	 cvtps2pd xmm3, xmm3
  00093	f2 0f 5c d3	 subsd	 xmm2, xmm3
  00097	0f 5a c9	 cvtps2pd xmm1, xmm1
  0009a	66 0f 5a d2	 cvtpd2ps xmm2, xmm2
  0009e	f2 0f 59 c9	 mulsd	 xmm1, xmm1
  000a2	f2 0f 58 c8	 addsd	 xmm1, xmm0
  000a6	0f 57 c0	 xorps	 xmm0, xmm0
  000a9	f3 0f 5a d2	 cvtss2sd xmm2, xmm2
  000ad	f2 0f 59 d2	 mulsd	 xmm2, xmm2
  000b1	f2 0f 58 ca	 addsd	 xmm1, xmm2
  000b5	66 0f 5a c1	 cvtpd2ps xmm0, xmm1
  000b9	0f 5a c0	 cvtps2pd xmm0, xmm0
  000bc	f2 0f 51 c0	 sqrtsd	 xmm0, xmm0
  000c0	66 0f 5a c0	 cvtpd2ps xmm0, xmm0

; 444  : 
; 445  : 	ioMapEffect* pMapEffect = pStage->CreateMapEffect( m_szFastMoveMapEffect, pChar->GetWorldPosition(), D3DXVECTOR3( 1.0f, 1.0f, 1.0f ) );

  000c4	8d 45 e4	 lea	 eax, DWORD PTR $T548484[ebp]
  000c7	f3 0f 11 86 1c
	12 00 00	 movss	 DWORD PTR [esi+4636], xmm0
  000cf	f3 0f 10 05 00
	00 00 00	 movss	 xmm0, DWORD PTR __real@3f800000
  000d7	50		 push	 eax
  000d8	8b 07		 mov	 eax, DWORD PTR [edi]
  000da	8b cf		 mov	 ecx, edi
  000dc	f3 0f 11 45 e4	 movss	 DWORD PTR $T548484[ebp], xmm0
  000e1	f3 0f 11 45 e8	 movss	 DWORD PTR $T548484[ebp+4], xmm0
  000e6	f3 0f 11 45 ec	 movss	 DWORD PTR $T548484[ebp+8], xmm0
  000eb	ff 50 70	 call	 DWORD PTR [eax+112]
  000ee	50		 push	 eax
  000ef	8d 86 24 12 00
	00		 lea	 eax, DWORD PTR [esi+4644]
  000f5	50		 push	 eax
  000f6	8b cb		 mov	 ecx, ebx
  000f8	e8 00 00 00 00	 call	 ?CreateMapEffect@ioPlayStage@@QAEPAVioMapEffect@@ABVioHashString@@ABUD3DXVECTOR3@@1@Z ; ioPlayStage::CreateMapEffect
  000fd	8b f8		 mov	 edi, eax

; 446  : 	if( pMapEffect && pMapEffect->GetEffect() )

  000ff	85 ff		 test	 edi, edi
  00101	74 69		 je	 SHORT $LN1@SetFastMov@2
  00103	8b 47 04	 mov	 eax, DWORD PTR [edi+4]
  00106	85 c0		 test	 eax, eax
  00108	74 62		 je	 SHORT $LN1@SetFastMov@2

; 447  : 	{
; 448  : 		m_FastMoveMapEffectID = pMapEffect->GetEffect()->GetUniqueID();

  0010a	8d 48 14	 lea	 ecx, DWORD PTR [eax+20]
  0010d	ff 15 00 00 00
	00		 call	 DWORD PTR __imp_?GetUniqueID@ioMovableObject@@QBEKXZ
  00113	89 86 34 12 00
	00		 mov	 DWORD PTR [esi+4660], eax

; 449  : 
; 450  : 		D3DXQUATERNION qtRot;
; 451  : 		ioMath::CalcDirectionQuaternion( qtRot, -m_vAttackDir );

  00119	f3 0f 10 05 00
	00 00 00	 movss	 xmm0, DWORD PTR __mask@@NegFloat@
  00121	f3 0f 10 8e f0
	11 00 00	 movss	 xmm1, DWORD PTR [esi+4592]
  00129	0f 57 c8	 xorps	 xmm1, xmm0
  0012c	f3 0f 11 4d f0	 movss	 DWORD PTR $T548487[ebp], xmm1
  00131	f3 0f 10 8e f4
	11 00 00	 movss	 xmm1, DWORD PTR [esi+4596]
  00139	0f 57 c8	 xorps	 xmm1, xmm0
  0013c	8d 45 f0	 lea	 eax, DWORD PTR $T548487[ebp]
  0013f	50		 push	 eax
  00140	f3 0f 11 4d f4	 movss	 DWORD PTR $T548487[ebp+4], xmm1
  00145	f3 0f 10 8e f8
	11 00 00	 movss	 xmm1, DWORD PTR [esi+4600]
  0014d	8d 45 d4	 lea	 eax, DWORD PTR _qtRot$548486[ebp]
  00150	0f 57 c8	 xorps	 xmm1, xmm0
  00153	50		 push	 eax
  00154	f3 0f 11 4d f8	 movss	 DWORD PTR $T548487[ebp+8], xmm1
  00159	ff 15 00 00 00
	00		 call	 DWORD PTR __imp_?CalcDirectionQuaternion@ioMath@@SAXAAUD3DXQUATERNION@@ABUD3DXVECTOR3@@@Z
  0015f	59		 pop	 ecx
  00160	59		 pop	 ecx

; 452  : 		pMapEffect->SetWorldOrientation( qtRot );

  00161	8d 45 d4	 lea	 eax, DWORD PTR _qtRot$548486[ebp]
  00164	50		 push	 eax
  00165	8b cf		 mov	 ecx, edi
  00167	e8 00 00 00 00	 call	 ?SetWorldOrientation@ioMapEffect@@QAEXABUD3DXQUATERNION@@@Z ; ioMapEffect::SetWorldOrientation
$LN1@SetFastMov@2:

; 453  : 				
; 454  : 	}
; 455  : 
; 456  : }

  0016c	8b 4d fc	 mov	 ecx, DWORD PTR __$ArrayPad$[ebp]
  0016f	5f		 pop	 edi
  00170	5e		 pop	 esi
  00171	33 cd		 xor	 ecx, ebp
  00173	5b		 pop	 ebx
  00174	e8 00 00 00 00	 call	 @__security_check_cookie@4
  00179	c9		 leave
  0017a	c2 08 00	 ret	 8
?SetFastMove@ioWhirlwndAttack@@IAEXPAVioBaseChar@@PAVioPlayStage@@@Z ENDP ; ioWhirlwndAttack::SetFastMove
_TEXT	ENDS
PUBLIC	?SetFastEnd@ioWhirlwndAttack@@IAEXPAVioBaseChar@@PAVioPlayStage@@@Z ; ioWhirlwndAttack::SetFastEnd
EXTRN	?EndMapEffect@ioBaseChar@@QAEXK_N@Z:PROC	; ioBaseChar::EndMapEffect
; Function compile flags: /Ogsp
;	COMDAT ?SetFastEnd@ioWhirlwndAttack@@IAEXPAVioBaseChar@@PAVioPlayStage@@@Z
_TEXT	SEGMENT
tv204 = 8						; size = 4
_iAniID$ = 8						; size = 4
_pChar$ = 8						; size = 4
_pStage$ = 12						; size = 4
?SetFastEnd@ioWhirlwndAttack@@IAEXPAVioBaseChar@@PAVioPlayStage@@@Z PROC ; ioWhirlwndAttack::SetFastEnd, COMDAT
; _this$ = ecx

; 483  : {

  00000	55		 push	 ebp
  00001	8b ec		 mov	 ebp, esp
  00003	53		 push	 ebx
  00004	56		 push	 esi
  00005	8b f1		 mov	 esi, ecx
  00007	57		 push	 edi

; 484  : 	m_SkillState			= SS_FAST_MOVE_END;

  00008	c7 86 e4 10 00
	00 05 00 00 00	 mov	 DWORD PTR [esi+4324], 5

; 485  : 	m_dwFastMoveEndEndTime	= FRAMEGETTIME();

  00012	ff 15 00 00 00
	00		 call	 DWORD PTR __imp_?GetSingleton@ioFrameTimer@@SAAAV1@XZ
  00018	8b c8		 mov	 ecx, eax
  0001a	ff 15 00 00 00
	00		 call	 DWORD PTR __imp_?GetLoopSec@ioFrameTimer@@QBEKXZ

; 486  : 		
; 487  : 	pChar->EndMapEffect( m_FastMoveMapEffectID, true );

  00020	8b 7d 08	 mov	 edi, DWORD PTR _pChar$[ebp]
  00023	6a 01		 push	 1
  00025	ff b6 34 12 00
	00		 push	 DWORD PTR [esi+4660]
  0002b	8b cf		 mov	 ecx, edi
  0002d	89 86 4c 12 00
	00		 mov	 DWORD PTR [esi+4684], eax
  00033	e8 00 00 00 00	 call	 ?EndMapEffect@ioBaseChar@@QAEXK_N@Z ; ioBaseChar::EndMapEffect

; 488  : 	pChar->SetWorldPosition( m_vAttackPos );

  00038	8b 07		 mov	 eax, DWORD PTR [edi]
  0003a	8d 8e e4 11 00
	00		 lea	 ecx, DWORD PTR [esi+4580]
  00040	51		 push	 ecx
  00041	8b cf		 mov	 ecx, edi
  00043	ff 50 44	 call	 DWORD PTR [eax+68]

; 489  : 
; 490  : 	pChar->SetInvisibleState( false, true );

  00046	6a 01		 push	 1
  00048	6a 00		 push	 0
  0004a	8b cf		 mov	 ecx, edi
  0004c	e8 00 00 00 00	 call	 ?SetInvisibleState@ioBaseChar@@QAEX_N0@Z ; ioBaseChar::SetInvisibleState

; 491  : 	pChar->SetSpecialHide( false );

  00051	6a 00		 push	 0
  00053	8b cf		 mov	 ecx, edi
  00055	e8 00 00 00 00	 call	 ?SetSpecialHide@ioBaseChar@@QAEX_N@Z ; ioBaseChar::SetSpecialHide

; 492  : 	pChar->EndMapEffect( m_LoopEndAttackEffectID, false );

  0005a	6a 00		 push	 0
  0005c	ff b6 e0 11 00
	00		 push	 DWORD PTR [esi+4576]
  00062	8b cf		 mov	 ecx, edi
  00064	e8 00 00 00 00	 call	 ?EndMapEffect@ioBaseChar@@QAEXK_N@Z ; ioBaseChar::EndMapEffect

; 493  : 
; 494  : 	//위의 하이드 옵션에 의해서 웨폰메쉬가 다시 나타나기 때문에 다시 무기 웨폰 감추기를 시작
; 495  : 	m_bSetHandMesh = false;
; 496  : 	CheckWeaponItemMesh( pChar );

  00069	57		 push	 edi
  0006a	8b ce		 mov	 ecx, esi
  0006c	c6 86 0a 0f 00
	00 00		 mov	 BYTE PTR [esi+3850], 0
  00073	e8 00 00 00 00	 call	 ?CheckWeaponItemMesh@ioWhirlwndAttack@@IAEXPAVioBaseChar@@@Z ; ioWhirlwndAttack::CheckWeaponItemMesh

; 497  : 
; 498  : 	ioEntityGroup *pGrp = pChar->GetGroup();

  00078	8b 7f 04	 mov	 edi, DWORD PTR [edi+4]

; 499  : 	if( !pGrp )

  0007b	85 ff		 test	 edi, edi
  0007d	0f 84 e2 00 00
	00		 je	 $LN3@SetFastEnd@2

; 500  : 		return;
; 501  : 
; 502  : 	int iAniID = pGrp->GetAnimationIdx( m_szFastMoveEnd );

  00083	8d 86 38 12 00
	00		 lea	 eax, DWORD PTR [esi+4664]
  00089	50		 push	 eax
  0008a	8b cf		 mov	 ecx, edi
  0008c	ff 15 00 00 00
	00		 call	 DWORD PTR __imp_?GetAnimationIdx@ioEntityGroup@@QAEHABVioHashString@@@Z
  00092	89 45 08	 mov	 DWORD PTR _iAniID$[ebp], eax

; 503  : 	if ( iAniID == -1 )  

  00095	83 f8 ff	 cmp	 eax, -1
  00098	0f 84 c7 00 00
	00		 je	 $LN3@SetFastEnd@2

; 504  : 		return;
; 505  : 
; 506  : 	pGrp->ClearAllLoopAni( 100.0f, true );

  0009e	f3 0f 10 05 00
	00 00 00	 movss	 xmm0, DWORD PTR __real@42c80000
  000a6	6a 01		 push	 1
  000a8	51		 push	 ecx
  000a9	8b cf		 mov	 ecx, edi
  000ab	f3 0f 11 04 24	 movss	 DWORD PTR [esp], xmm0
  000b0	ff 15 00 00 00
	00		 call	 DWORD PTR __imp_?ClearAllLoopAni@ioEntityGroup@@QAEXM_N@Z

; 507  : 	pGrp->ClearAllActionAni( 100.0f, true );

  000b6	f3 0f 10 05 00
	00 00 00	 movss	 xmm0, DWORD PTR __real@42c80000
  000be	6a 01		 push	 1
  000c0	51		 push	 ecx
  000c1	8b cf		 mov	 ecx, edi
  000c3	f3 0f 11 04 24	 movss	 DWORD PTR [esp], xmm0
  000c8	ff 15 00 00 00
	00		 call	 DWORD PTR __imp_?ClearAllActionAni@ioEntityGroup@@QAEXM_N@Z

; 508  : 	pGrp->SetActionAni( iAniID, 100.0f, 100.0f, 1.0f, 1.0f/m_fFastMoveEndRate );

  000ce	0f 57 c0	 xorps	 xmm0, xmm0
  000d1	f2 0f 10 0d 00
	00 00 00	 movsd	 xmm1, QWORD PTR __real@3ff0000000000000
  000d9	6a 01		 push	 1
  000db	6a 00		 push	 0
  000dd	83 ec 18	 sub	 esp, 24			; 00000018H
  000e0	f3 0f 11 44 24
	14		 movss	 DWORD PTR [esp+20], xmm0
  000e6	f3 0f 11 44 24
	10		 movss	 DWORD PTR [esp+16], xmm0
  000ec	f3 0f 10 86 48
	12 00 00	 movss	 xmm0, DWORD PTR [esi+4680]
  000f4	0f 5a c0	 cvtps2pd xmm0, xmm0
  000f7	f2 0f 5e c8	 divsd	 xmm1, xmm0
  000fb	8b cf		 mov	 ecx, edi
  000fd	66 0f 5a c1	 cvtpd2ps xmm0, xmm1
  00101	f3 0f 11 44 24
	0c		 movss	 DWORD PTR [esp+12], xmm0
  00107	f3 0f 10 05 00
	00 00 00	 movss	 xmm0, DWORD PTR __real@3f800000
  0010f	f3 0f 11 44 24
	08		 movss	 DWORD PTR [esp+8], xmm0
  00115	f3 0f 10 05 00
	00 00 00	 movss	 xmm0, DWORD PTR __real@42c80000
  0011d	f3 0f 11 44 24
	04		 movss	 DWORD PTR [esp+4], xmm0
  00123	f3 0f 11 04 24	 movss	 DWORD PTR [esp], xmm0
  00128	ff 75 08	 push	 DWORD PTR _iAniID$[ebp]
  0012b	ff 15 00 00 00
	00		 call	 DWORD PTR __imp_?SetActionAni@ioEntityGroup@@QAE_NHMMMMMM_N0@Z

; 509  : 	m_dwFastMoveEndEndTime += pGrp->GetAnimationFullTime( iAniID ) * m_fFastMoveEndRate;

  00131	ff 75 08	 push	 DWORD PTR _iAniID$[ebp]
  00134	8b cf		 mov	 ecx, edi
  00136	ff 15 00 00 00
	00		 call	 DWORD PTR __imp_?GetAnimationFullTime@ioEntityGroup@@QAEMH@Z
  0013c	d8 8e 48 12 00
	00		 fmul	 DWORD PTR [esi+4680]
  00142	8b 86 4c 12 00
	00		 mov	 eax, DWORD PTR [esi+4684]
  00148	db 86 4c 12 00
	00		 fild	 DWORD PTR [esi+4684]
  0014e	85 c0		 test	 eax, eax
  00150	79 06		 jns	 SHORT $LN7@SetFastEnd@2
  00152	dc 05 00 00 00
	00		 fadd	 QWORD PTR __real@41f0000000000000
$LN7@SetFastEnd@2:
  00158	de c1		 faddp	 ST(1), ST(0)
  0015a	e8 00 00 00 00	 call	 __ftol2
  0015f	89 86 4c 12 00
	00		 mov	 DWORD PTR [esi+4684], eax
$LN3@SetFastEnd@2:
  00165	5f		 pop	 edi
  00166	5e		 pop	 esi
  00167	5b		 pop	 ebx

; 510  : }

  00168	5d		 pop	 ebp
  00169	c2 08 00	 ret	 8
?SetFastEnd@ioWhirlwndAttack@@IAEXPAVioBaseChar@@PAVioPlayStage@@@Z ENDP ; ioWhirlwndAttack::SetFastEnd
_TEXT	ENDS
PUBLIC	__real@41200000
PUBLIC	__real@4f800000
PUBLIC	__$ArrayPad$
PUBLIC	?SetWhirlAttack@ioWhirlwndAttack@@IAEXPAVioBaseChar@@PAVioPlayStage@@@Z ; ioWhirlwndAttack::SetWhirlAttack
EXTRN	__imp_?SetLoopAni@ioEntityGroup@@QAE_NHMMMM@Z:PROC
EXTRN	?SkillFireExplicit@ioBaseChar@@QAEPAVioWeapon@@ABUWeaponInfo@@ABVioHashString@@KABUD3DXVECTOR3@@2@Z:PROC ; ioBaseChar::SkillFireExplicit
EXTRN	?GetMidPositionByRate@ioGameEntity@@QBE?AUD3DXVECTOR3@@M@Z:PROC ; ioGameEntity::GetMidPositionByRate
EXTRN	?IncreaseWeaponIndexBase@ioBaseChar@@QAEKXZ:PROC ; ioBaseChar::IncreaseWeaponIndexBase
;	COMDAT __real@41200000
; File d:\lost saga for developer\youtube\tutorial\source\src\lsclient\iogameentity.h
CONST	SEGMENT
__real@41200000 DD 041200000r			; 10
CONST	ENDS
;	COMDAT __real@4f800000
CONST	SEGMENT
__real@4f800000 DD 04f800000r			; 4.29497e+009
; Function compile flags: /Ogsp
; File d:\lost saga for developer\youtube\tutorial\source\src\lsclient\iowhirlwndattack.cpp
CONST	ENDS
;	COMDAT ?SetWhirlAttack@ioWhirlwndAttack@@IAEXPAVioBaseChar@@PAVioPlayStage@@@Z
_TEXT	SEGMENT
tv223 = -20						; size = 4
tv219 = -20						; size = 4
tv215 = -20						; size = 4
$T548522 = -16						; size = 12
__$ArrayPad$ = -4					; size = 4
_pChar$ = 8						; size = 4
_pStage$ = 12						; size = 4
?SetWhirlAttack@ioWhirlwndAttack@@IAEXPAVioBaseChar@@PAVioPlayStage@@@Z PROC ; ioWhirlwndAttack::SetWhirlAttack, COMDAT
; _this$ = ecx

; 521  : {

  00000	55		 push	 ebp
  00001	8b ec		 mov	 ebp, esp
  00003	83 ec 14	 sub	 esp, 20			; 00000014H
  00006	a1 00 00 00 00	 mov	 eax, DWORD PTR ___security_cookie
  0000b	33 c5		 xor	 eax, ebp
  0000d	89 45 fc	 mov	 DWORD PTR __$ArrayPad$[ebp], eax
  00010	56		 push	 esi
  00011	8b f1		 mov	 esi, ecx
  00013	57		 push	 edi
  00014	8b 7d 08	 mov	 edi, DWORD PTR _pChar$[ebp]

; 522  : 	m_SkillState			= SS_WHIRLWND_ATTACK;		

  00017	c7 86 e4 10 00
	00 06 00 00 00	 mov	 DWORD PTR [esi+4324], 6

; 523  : 	m_dwWhirlAttackEndTime	= FRAMEGETTIME() + m_dwWhirlAttackDuration;

  00021	ff 15 00 00 00
	00		 call	 DWORD PTR __imp_?GetSingleton@ioFrameTimer@@SAAAV1@XZ
  00027	8b c8		 mov	 ecx, eax
  00029	ff 15 00 00 00
	00		 call	 DWORD PTR __imp_?GetLoopSec@ioFrameTimer@@QBEKXZ
  0002f	03 86 90 12 00
	00		 add	 eax, DWORD PTR [esi+4752]

; 524  : 
; 525  : 	pChar->SetSkillMoveEnable( true, false );

  00035	6a 00		 push	 0
  00037	6a 01		 push	 1
  00039	8b cf		 mov	 ecx, edi
  0003b	89 86 94 12 00
	00		 mov	 DWORD PTR [esi+4756], eax
  00041	e8 00 00 00 00	 call	 ?SetSkillMoveEnable@ioBaseChar@@QAEX_N0@Z ; ioBaseChar::SetSkillMoveEnable

; 526  : 
; 527  : 	m_dwWhirlAttackIndex = pChar->IncreaseWeaponIndexBase();

  00046	8b cf		 mov	 ecx, edi
  00048	e8 00 00 00 00	 call	 ?IncreaseWeaponIndexBase@ioBaseChar@@QAEKXZ ; ioBaseChar::IncreaseWeaponIndexBase
  0004d	89 86 98 12 00
	00		 mov	 DWORD PTR [esi+4760], eax

; 528  : 	pChar->SkillFireExplicit( m_WhirlAttackInfo, GetName(), m_dwWhirlAttackIndex, pChar->GetMidPositionByRate(), m_vAttackDir );

  00053	b8 05 00 00 00	 mov	 eax, 5
  00058	8b c8		 mov	 ecx, eax
  0005a	b8 0a 00 00 00	 mov	 eax, 10			; 0000000aH
  0005f	8d 96 f0 11 00
	00		 lea	 edx, DWORD PTR [esi+4592]
  00065	89 4d ec	 mov	 DWORD PTR tv223[ebp], ecx
  00068	db 45 ec	 fild	 DWORD PTR tv223[ebp]
  0006b	52		 push	 edx
  0006c	85 c9		 test	 ecx, ecx
  0006e	79 06		 jns	 SHORT $LN14@SetWhirlAt
  00070	d8 05 00 00 00
	00		 fadd	 DWORD PTR __real@4f800000
$LN14@SetWhirlAt:
  00076	89 45 ec	 mov	 DWORD PTR tv219[ebp], eax
  00079	db 45 ec	 fild	 DWORD PTR tv219[ebp]
  0007c	85 c0		 test	 eax, eax
  0007e	79 06		 jns	 SHORT $LN15@SetWhirlAt
  00080	d8 05 00 00 00
	00		 fadd	 DWORD PTR __real@4f800000
$LN15@SetWhirlAt:
  00086	de f9		 fdivp	 ST(1), ST(0)
  00088	51		 push	 ecx
  00089	8d 45 f0	 lea	 eax, DWORD PTR $T548522[ebp]
  0008c	8b cf		 mov	 ecx, edi
  0008e	d9 5d ec	 fstp	 DWORD PTR tv215[ebp]
  00091	d9 45 ec	 fld	 DWORD PTR tv215[ebp]
  00094	d9 1c 24	 fstp	 DWORD PTR [esp]
  00097	50		 push	 eax
  00098	e8 00 00 00 00	 call	 ?GetMidPositionByRate@ioGameEntity@@QBE?AUD3DXVECTOR3@@M@Z ; ioGameEntity::GetMidPositionByRate
  0009d	50		 push	 eax
  0009e	ff b6 98 12 00
	00		 push	 DWORD PTR [esi+4760]
  000a4	8d 46 24	 lea	 eax, DWORD PTR [esi+36]
  000a7	50		 push	 eax
  000a8	8d 86 50 12 00
	00		 lea	 eax, DWORD PTR [esi+4688]
  000ae	50		 push	 eax
  000af	8b cf		 mov	 ecx, edi
  000b1	e8 00 00 00 00	 call	 ?SkillFireExplicit@ioBaseChar@@QAEPAVioWeapon@@ABUWeaponInfo@@ABVioHashString@@KABUD3DXVECTOR3@@2@Z ; ioBaseChar::SkillFireExplicit

; 529  : 	
; 530  : 	ioEntityGroup *pGrp = pChar->GetGroup();

  000b6	8b 7f 04	 mov	 edi, DWORD PTR [edi+4]

; 531  : 	if( !pGrp )

  000b9	85 ff		 test	 edi, edi
  000bb	0f 84 9d 00 00
	00		 je	 $LN3@SetWhirlAt

; 532  : 		return;
; 533  : 
; 534  : 	int iAniID = pGrp->GetAnimationIdx( m_szWhirlAttack );

  000c1	53		 push	 ebx
  000c2	8d 86 78 12 00
	00		 lea	 eax, DWORD PTR [esi+4728]
  000c8	50		 push	 eax
  000c9	8b cf		 mov	 ecx, edi
  000cb	ff 15 00 00 00
	00		 call	 DWORD PTR __imp_?GetAnimationIdx@ioEntityGroup@@QAEHABVioHashString@@@Z
  000d1	8b d8		 mov	 ebx, eax

; 535  : 	if( iAniID == -1 )

  000d3	83 fb ff	 cmp	 ebx, -1
  000d6	0f 84 81 00 00
	00		 je	 $LN13@SetWhirlAt

; 536  : 		return;
; 537  : 
; 538  : 	pGrp->ClearAllLoopAni( 100.0f, true );

  000dc	f3 0f 10 05 00
	00 00 00	 movss	 xmm0, DWORD PTR __real@42c80000
  000e4	6a 01		 push	 1
  000e6	51		 push	 ecx
  000e7	8b cf		 mov	 ecx, edi
  000e9	f3 0f 11 04 24	 movss	 DWORD PTR [esp], xmm0
  000ee	ff 15 00 00 00
	00		 call	 DWORD PTR __imp_?ClearAllLoopAni@ioEntityGroup@@QAEXM_N@Z

; 539  : 	pGrp->ClearAllActionAni( 100.0f, true );

  000f4	f3 0f 10 05 00
	00 00 00	 movss	 xmm0, DWORD PTR __real@42c80000
  000fc	6a 01		 push	 1
  000fe	51		 push	 ecx
  000ff	8b cf		 mov	 ecx, edi
  00101	f3 0f 11 04 24	 movss	 DWORD PTR [esp], xmm0
  00106	ff 15 00 00 00
	00		 call	 DWORD PTR __imp_?ClearAllActionAni@ioEntityGroup@@QAEXM_N@Z

; 540  : 	pGrp->SetLoopAni( iAniID, 10.0f, 1.0f, 1.0f/m_fWhirlAttackRate );

  0010c	0f 57 c0	 xorps	 xmm0, xmm0
  0010f	f2 0f 10 0d 00
	00 00 00	 movsd	 xmm1, QWORD PTR __real@3ff0000000000000
  00117	83 ec 10	 sub	 esp, 16			; 00000010H
  0011a	f3 0f 11 44 24
	0c		 movss	 DWORD PTR [esp+12], xmm0
  00120	f3 0f 10 86 88
	12 00 00	 movss	 xmm0, DWORD PTR [esi+4744]
  00128	0f 5a c0	 cvtps2pd xmm0, xmm0
  0012b	f2 0f 5e c8	 divsd	 xmm1, xmm0
  0012f	8b cf		 mov	 ecx, edi
  00131	66 0f 5a c1	 cvtpd2ps xmm0, xmm1
  00135	f3 0f 11 44 24
	08		 movss	 DWORD PTR [esp+8], xmm0
  0013b	f3 0f 10 05 00
	00 00 00	 movss	 xmm0, DWORD PTR __real@3f800000
  00143	f3 0f 11 44 24
	04		 movss	 DWORD PTR [esp+4], xmm0
  00149	f3 0f 10 05 00
	00 00 00	 movss	 xmm0, DWORD PTR __real@41200000
  00151	f3 0f 11 04 24	 movss	 DWORD PTR [esp], xmm0
  00156	53		 push	 ebx
  00157	ff 15 00 00 00
	00		 call	 DWORD PTR __imp_?SetLoopAni@ioEntityGroup@@QAE_NHMMMM@Z
$LN13@SetWhirlAt:
  0015d	5b		 pop	 ebx
$LN3@SetWhirlAt:

; 541  : }

  0015e	8b 4d fc	 mov	 ecx, DWORD PTR __$ArrayPad$[ebp]
  00161	5f		 pop	 edi
  00162	33 cd		 xor	 ecx, ebp
  00164	5e		 pop	 esi
  00165	e8 00 00 00 00	 call	 @__security_check_cookie@4
  0016a	c9		 leave
  0016b	c2 08 00	 ret	 8
?SetWhirlAttack@ioWhirlwndAttack@@IAEXPAVioBaseChar@@PAVioPlayStage@@@Z ENDP ; ioWhirlwndAttack::SetWhirlAttack
_TEXT	ENDS
PUBLIC	?CheckWeaponLive@ioWhirlwndAttack@@IAE_NPAVioBaseChar@@PAVioPlayStage@@K@Z ; ioWhirlwndAttack::CheckWeaponLive
EXTRN	?FindWeapon@ioWeaponManager@@QAEPAVioWeapon@@PAVioBaseChar@@K@Z:PROC ; ioWeaponManager::FindWeapon
; Function compile flags: /Ogsp
;	COMDAT ?CheckWeaponLive@ioWhirlwndAttack@@IAE_NPAVioBaseChar@@PAVioPlayStage@@K@Z
_TEXT	SEGMENT
_pChar$ = 8						; size = 4
_pStage$ = 12						; size = 4
_dwWeaponIdx$ = 16					; size = 4
?CheckWeaponLive@ioWhirlwndAttack@@IAE_NPAVioBaseChar@@PAVioPlayStage@@K@Z PROC ; ioWhirlwndAttack::CheckWeaponLive, COMDAT
; _this$ = ecx

; 544  : {

  00000	55		 push	 ebp
  00001	8b ec		 mov	 ebp, esp

; 545  : 	if( dwWeaponIdx == 0 )

  00003	83 7d 10 00	 cmp	 DWORD PTR _dwWeaponIdx$[ebp], 0
  00007	75 04		 jne	 SHORT $LN5@CheckWeapo@2
$LN11@CheckWeapo@2:

; 546  : 	{
; 547  : 		return false;

  00009	32 c0		 xor	 al, al
  0000b	eb 20		 jmp	 SHORT $LN1@CheckWeapo@2
$LN5@CheckWeapo@2:

; 548  : 	}
; 549  : 	else
; 550  : 	{
; 551  : 		ioWeapon *pWeapon = g_WeaponMgr.FindWeapon( pChar, dwWeaponIdx );

  0000d	ff 75 10	 push	 DWORD PTR _dwWeaponIdx$[ebp]
  00010	ff 75 08	 push	 DWORD PTR _pChar$[ebp]
  00013	e8 00 00 00 00	 call	 ?GetSingleton@ioWeaponManager@@SAAAV1@XZ ; ioWeaponManager::GetSingleton
  00018	8b c8		 mov	 ecx, eax
  0001a	e8 00 00 00 00	 call	 ?FindWeapon@ioWeaponManager@@QAEPAVioWeapon@@PAVioBaseChar@@K@Z ; ioWeaponManager::FindWeapon

; 552  : 		if( !pWeapon )

  0001f	85 c0		 test	 eax, eax

; 553  : 		{
; 554  : 			return false;

  00021	74 e6		 je	 SHORT $LN11@CheckWeapo@2

; 555  : 		}
; 556  : 		else if( pWeapon && !pWeapon->IsLive() )

  00023	80 b8 82 05 00
	00 00		 cmp	 BYTE PTR [eax+1410], 0
  0002a	0f 95 c0	 setne	 al
$LN1@CheckWeapo@2:

; 557  : 		{
; 558  : 			return false;
; 559  : 		}
; 560  : 	}
; 561  : 
; 562  : 	return true;
; 563  : }

  0002d	5d		 pop	 ebp
  0002e	c2 0c 00	 ret	 12			; 0000000cH
?CheckWeaponLive@ioWhirlwndAttack@@IAE_NPAVioBaseChar@@PAVioPlayStage@@K@Z ENDP ; ioWhirlwndAttack::CheckWeaponLive
_TEXT	ENDS
PUBLIC	__real@bf800000
PUBLIC	__real@4076800000000000
PUBLIC	__real@408f400000000000
PUBLIC	_this$GSCopy$
PUBLIC	__$ArrayPad$
PUBLIC	?ProcessCharRotate@ioWhirlwndAttack@@IAEXPAVioBaseChar@@PAVioPlayStage@@@Z ; ioWhirlwndAttack::ProcessCharRotate
EXTRN	?SetCurMoveSpeed@ioBaseChar@@QAEXM@Z:PROC	; ioBaseChar::SetCurMoveSpeed
EXTRN	?SetTargetRotToRotate@ioBaseChar@@QAEXABUD3DXQUATERNION@@_N1@Z:PROC ; ioBaseChar::SetTargetRotToRotate
EXTRN	__imp_??D@YA?AUD3DXVECTOR3@@ABUD3DXQUATERNION@@ABU0@@Z:PROC
EXTRN	_D3DXQuaternionRotationAxis@12:PROC
EXTRN	__imp_?UNIT_Y@ioMath@@2UD3DXVECTOR3@@A:BYTE
EXTRN	__imp_?ArrangeHead@ioMath@@SAMM@Z:PROC
EXTRN	__imp_?GetSecPerFrame@ioFrameTimer@@QBEMXZ:PROC
;	COMDAT __real@bf800000
; File c:\program files (x86)\microsoft directx sdk (june 2010)\include\d3dx9math.inl
CONST	SEGMENT
__real@bf800000 DD 0bf800000r			; -1
CONST	ENDS
;	COMDAT __real@4076800000000000
CONST	SEGMENT
__real@4076800000000000 DQ 04076800000000000r	; 360
CONST	ENDS
;	COMDAT __real@408f400000000000
CONST	SEGMENT
__real@408f400000000000 DQ 0408f400000000000r	; 1000
; Function compile flags: /Ogsp
; File d:\lost saga for developer\youtube\tutorial\source\src\lsclient\iowhirlwndattack.cpp
CONST	ENDS
;	COMDAT ?ProcessCharRotate@ioWhirlwndAttack@@IAEXPAVioBaseChar@@PAVioPlayStage@@@Z
_TEXT	SEGMENT
_qtCharRot$ = -80					; size = 16
_qtNewRot$ = -64					; size = 16
_this$GSCopy$ = -48					; size = 4
tv256 = -44						; size = 4
tv254 = -44						; size = 4
tv238 = -44						; size = 4
_fRotateAngle$ = -44					; size = 4
_fTimePerSec$ = -44					; size = 4
_vAxis$ = -40						; size = 12
_vDir$ = -28						; size = 12
$T548570 = -16						; size = 12
$T548569 = -16						; size = 12
$T548567 = -16						; size = 12
__$ArrayPad$ = -4					; size = 4
_pChar$ = 8						; size = 4
_pStage$ = 12						; size = 4
?ProcessCharRotate@ioWhirlwndAttack@@IAEXPAVioBaseChar@@PAVioPlayStage@@@Z PROC ; ioWhirlwndAttack::ProcessCharRotate, COMDAT
; _this$ = ecx

; 590  : {

  00000	55		 push	 ebp
  00001	8b ec		 mov	 ebp, esp
  00003	83 ec 50	 sub	 esp, 80			; 00000050H
  00006	a1 00 00 00 00	 mov	 eax, DWORD PTR ___security_cookie
  0000b	33 c5		 xor	 eax, ebp
  0000d	89 45 fc	 mov	 DWORD PTR __$ArrayPad$[ebp], eax
  00010	53		 push	 ebx
  00011	8b 5d 08	 mov	 ebx, DWORD PTR _pChar$[ebp]
  00014	8b c1		 mov	 eax, ecx
  00016	56		 push	 esi

; 591  : 	if( m_dwCharRotateTime == 0 )

  00017	8d b0 9c 12 00
	00		 lea	 esi, DWORD PTR [eax+4764]
  0001d	83 3e 00	 cmp	 DWORD PTR [esi], 0

; 592  : 		return;
; 593  : 
; 594  : 	// 캐릭터 회전
; 595  : 	float fTimePerSec = g_FrameTimer.GetSecPerFrame();

  00020	89 45 d0	 mov	 DWORD PTR _this$GSCopy$[ebp], eax
  00023	0f 84 32 01 00
	00		 je	 $LN2@ProcessCha
  00029	57		 push	 edi
  0002a	ff 15 00 00 00
	00		 call	 DWORD PTR __imp_?GetSingleton@ioFrameTimer@@SAAAV1@XZ
  00030	8b c8		 mov	 ecx, eax
  00032	ff 15 00 00 00
	00		 call	 DWORD PTR __imp_?GetSecPerFrame@ioFrameTimer@@QBEMXZ
  00038	d9 5d d4	 fstp	 DWORD PTR _fTimePerSec$[ebp]

; 598  : 	float fRotateAngle = 360.0f * fRate;

  0003b	d9 45 d4	 fld	 DWORD PTR _fTimePerSec$[ebp]
  0003e	8b 06		 mov	 eax, DWORD PTR [esi]
  00040	dc 0d 00 00 00
	00		 fmul	 QWORD PTR __real@408f400000000000
  00046	db 06		 fild	 DWORD PTR [esi]
  00048	85 c0		 test	 eax, eax
  0004a	79 06		 jns	 SHORT $LN16@ProcessCha
  0004c	d8 05 00 00 00
	00		 fadd	 DWORD PTR __real@4f800000
$LN16@ProcessCha:

; 596  : 
; 597  : 	float fRate = (fTimePerSec*1000) / m_dwCharRotateTime;

  00052	de f9		 fdivp	 ST(1), ST(0)

; 599  : 
; 600  : 	fRotateAngle = ioMath::ArrangeHead( fRotateAngle );

  00054	51		 push	 ecx
  00055	d9 5d d4	 fstp	 DWORD PTR tv254[ebp]
  00058	d9 45 d4	 fld	 DWORD PTR tv254[ebp]
  0005b	dc 0d 00 00 00
	00		 fmul	 QWORD PTR __real@4076800000000000
  00061	d9 5d d4	 fstp	 DWORD PTR _fRotateAngle$[ebp]
  00064	f3 0f 10 45 d4	 movss	 xmm0, DWORD PTR _fRotateAngle$[ebp]
  00069	f3 0f 11 04 24	 movss	 DWORD PTR [esp], xmm0
  0006e	ff 15 00 00 00
	00		 call	 DWORD PTR __imp_?ArrangeHead@ioMath@@SAMM@Z
  00074	d9 5d d4	 fstp	 DWORD PTR _fRotateAngle$[ebp]

; 601  : 
; 602  : 	D3DXQUATERNION	qtNewRot;
; 603  : 	D3DXVECTOR3 vAxis = ioMath::UNIT_Y;
; 604  : 
; 605  : 	D3DXQuaternionRotationAxis( &qtNewRot, &vAxis, DEGtoRAD(fRotateAngle) );

  00077	d9 45 d4	 fld	 DWORD PTR _fRotateAngle$[ebp]
  0007a	8b 35 00 00 00
	00		 mov	 esi, DWORD PTR __imp_?UNIT_Y@ioMath@@2UD3DXVECTOR3@@A
  00080	dc 0d 00 00 00
	00		 fmul	 QWORD PTR __real@3f91df46a2526c7a
  00086	8d 7d d8	 lea	 edi, DWORD PTR _vAxis$[ebp]
  00089	a5		 movsd
  0008a	d9 5d d4	 fstp	 DWORD PTR tv238[ebp]
  0008d	8d 45 d8	 lea	 eax, DWORD PTR _vAxis$[ebp]
  00090	d9 45 d4	 fld	 DWORD PTR tv238[ebp]
  00093	a5		 movsd
  00094	d9 1c 24	 fstp	 DWORD PTR [esp]
  00097	50		 push	 eax
  00098	8d 45 c0	 lea	 eax, DWORD PTR _qtNewRot$[ebp]
  0009b	50		 push	 eax
  0009c	a5		 movsd
  0009d	e8 00 00 00 00	 call	 _D3DXQuaternionRotationAxis@12

; 606  : 
; 607  : 	D3DXQUATERNION qtCharRot = pChar->GetTargetRot();
; 608  : 	D3DXVECTOR3 vDir = qtCharRot * D3DXVECTOR3( 0.0, 0.0, -1.0f );

  000a2	0f 57 c0	 xorps	 xmm0, xmm0
  000a5	8d b3 a4 06 00
	00		 lea	 esi, DWORD PTR [ebx+1700]
  000ab	8d 7d b0	 lea	 edi, DWORD PTR _qtCharRot$[ebp]
  000ae	a5		 movsd
  000af	a5		 movsd
  000b0	8d 45 f0	 lea	 eax, DWORD PTR $T548567[ebp]
  000b3	50		 push	 eax
  000b4	a5		 movsd
  000b5	8d 45 b0	 lea	 eax, DWORD PTR _qtCharRot$[ebp]
  000b8	50		 push	 eax
  000b9	8d 45 e4	 lea	 eax, DWORD PTR _vDir$[ebp]
  000bc	a5		 movsd
  000bd	8b 35 00 00 00
	00		 mov	 esi, DWORD PTR __imp_??D@YA?AUD3DXVECTOR3@@ABUD3DXQUATERNION@@ABU0@@Z
  000c3	f3 0f 11 45 f0	 movss	 DWORD PTR $T548567[ebp], xmm0
  000c8	f3 0f 11 45 f4	 movss	 DWORD PTR $T548567[ebp+4], xmm0
  000cd	f3 0f 10 05 00
	00 00 00	 movss	 xmm0, DWORD PTR __real@bf800000
  000d5	50		 push	 eax
  000d6	f3 0f 11 45 f8	 movss	 DWORD PTR $T548567[ebp+8], xmm0
  000db	ff d6		 call	 esi

; 609  : 	vDir = qtNewRot * vDir;

  000dd	8d 45 e4	 lea	 eax, DWORD PTR _vDir$[ebp]
  000e0	50		 push	 eax
  000e1	8d 45 c0	 lea	 eax, DWORD PTR _qtNewRot$[ebp]
  000e4	50		 push	 eax
  000e5	8d 45 f0	 lea	 eax, DWORD PTR $T548569[ebp]
  000e8	50		 push	 eax
  000e9	ff d6		 call	 esi

; 610  : 
; 611  : 	ioMath::CalcDirectionQuaternion( qtNewRot, -vDir );

  000eb	f3 0f 10 05 00
	00 00 00	 movss	 xmm0, DWORD PTR __mask@@NegFloat@
  000f3	8b f0		 mov	 esi, eax
  000f5	8d 7d e4	 lea	 edi, DWORD PTR _vDir$[ebp]
  000f8	a5		 movsd
  000f9	a5		 movsd
  000fa	a5		 movsd
  000fb	f3 0f 10 4d e4	 movss	 xmm1, DWORD PTR _vDir$[ebp]
  00100	0f 57 c8	 xorps	 xmm1, xmm0
  00103	f3 0f 11 4d f0	 movss	 DWORD PTR $T548570[ebp], xmm1
  00108	f3 0f 10 4d e8	 movss	 xmm1, DWORD PTR _vDir$[ebp+4]
  0010d	0f 57 c8	 xorps	 xmm1, xmm0
  00110	8d 45 f0	 lea	 eax, DWORD PTR $T548570[ebp]
  00113	50		 push	 eax
  00114	f3 0f 11 4d f4	 movss	 DWORD PTR $T548570[ebp+4], xmm1
  00119	f3 0f 10 4d ec	 movss	 xmm1, DWORD PTR _vDir$[ebp+8]
  0011e	8d 45 c0	 lea	 eax, DWORD PTR _qtNewRot$[ebp]
  00121	0f 57 c8	 xorps	 xmm1, xmm0
  00124	50		 push	 eax
  00125	f3 0f 11 4d f8	 movss	 DWORD PTR $T548570[ebp+8], xmm1
  0012a	ff 15 00 00 00
	00		 call	 DWORD PTR __imp_?CalcDirectionQuaternion@ioMath@@SAXAAUD3DXQUATERNION@@ABUD3DXVECTOR3@@@Z
  00130	83 c4 20	 add	 esp, 32			; 00000020H

; 612  : 	pChar->SetTargetRotToRotate( qtNewRot, true, true );

  00133	6a 01		 push	 1
  00135	6a 01		 push	 1
  00137	8d 45 c0	 lea	 eax, DWORD PTR _qtNewRot$[ebp]
  0013a	50		 push	 eax
  0013b	8b cb		 mov	 ecx, ebx
  0013d	e8 00 00 00 00	 call	 ?SetTargetRotToRotate@ioBaseChar@@QAEXABUD3DXQUATERNION@@_N1@Z ; ioBaseChar::SetTargetRotToRotate

; 613  : 	pChar->SetCurMoveSpeed( m_fMoveSpeed );

  00142	8b 45 d0	 mov	 eax, DWORD PTR _this$GSCopy$[ebp]
  00145	f3 0f 10 80 8c
	12 00 00	 movss	 xmm0, DWORD PTR [eax+4748]
  0014d	51		 push	 ecx
  0014e	8b cb		 mov	 ecx, ebx
  00150	f3 0f 11 04 24	 movss	 DWORD PTR [esp], xmm0
  00155	e8 00 00 00 00	 call	 ?SetCurMoveSpeed@ioBaseChar@@QAEXM@Z ; ioBaseChar::SetCurMoveSpeed
  0015a	5f		 pop	 edi
$LN2@ProcessCha:

; 614  : }

  0015b	8b 4d fc	 mov	 ecx, DWORD PTR __$ArrayPad$[ebp]
  0015e	5e		 pop	 esi
  0015f	33 cd		 xor	 ecx, ebp
  00161	5b		 pop	 ebx
  00162	e8 00 00 00 00	 call	 @__security_check_cookie@4
  00167	c9		 leave
  00168	c2 08 00	 ret	 8
?ProcessCharRotate@ioWhirlwndAttack@@IAEXPAVioBaseChar@@PAVioPlayStage@@@Z ENDP ; ioWhirlwndAttack::ProcessCharRotate
_TEXT	ENDS
PUBLIC	_this$GSCopy$
PUBLIC	__$ArrayPad$
PUBLIC	?SetChopAttack@ioWhirlwndAttack@@IAEXPAVioBaseChar@@PAVioPlayStage@@@Z ; ioWhirlwndAttack::SetChopAttack
;	COMDAT xdata$x
; File d:\lost saga for developer\youtube\tutorial\source\src\lsclient\iobasechar.h
xdata$x	SEGMENT
__unwindtable$?SetChopAttack@ioWhirlwndAttack@@IAEXPAVioBaseChar@@PAVioPlayStage@@@Z DD 0ffffffffH
	DD	FLAT:__unwindfunclet$?SetChopAttack@ioWhirlwndAttack@@IAEXPAVioBaseChar@@PAVioPlayStage@@@Z$0
__ehfuncinfo$?SetChopAttack@ioWhirlwndAttack@@IAEXPAVioBaseChar@@PAVioPlayStage@@@Z DD 019930522H
	DD	01H
	DD	FLAT:__unwindtable$?SetChopAttack@ioWhirlwndAttack@@IAEXPAVioBaseChar@@PAVioPlayStage@@@Z
	DD	2 DUP(00H)
	DD	2 DUP(00H)
	DD	00H
	DD	01H
; Function compile flags: /Ogsp
; File d:\lost saga for developer\youtube\tutorial\source\src\lsclient\iowhirlwndattack.cpp
xdata$x	ENDS
;	COMDAT ?SetChopAttack@ioWhirlwndAttack@@IAEXPAVioBaseChar@@PAVioPlayStage@@@Z
_TEXT	SEGMENT
_this$GSCopy$ = -32812					; size = 4
_kPacket$548577 = -32808				; size = 32792
__$ArrayPad$ = -16					; size = 4
__$EHRec$ = -12						; size = 12
_pChar$ = 8						; size = 4
_pStage$ = 12						; size = 4
?SetChopAttack@ioWhirlwndAttack@@IAEXPAVioBaseChar@@PAVioPlayStage@@@Z PROC ; ioWhirlwndAttack::SetChopAttack, COMDAT
; _this$ = ecx

; 617  : {

  00000	55		 push	 ebp
  00001	8b ec		 mov	 ebp, esp
  00003	6a ff		 push	 -1
  00005	68 00 00 00 00	 push	 __ehhandler$?SetChopAttack@ioWhirlwndAttack@@IAEXPAVioBaseChar@@PAVioPlayStage@@@Z
  0000a	64 a1 00 00 00
	00		 mov	 eax, DWORD PTR fs:0
  00010	50		 push	 eax
  00011	b8 20 80 00 00	 mov	 eax, 32800		; 00008020H
  00016	e8 00 00 00 00	 call	 __chkstk
  0001b	a1 00 00 00 00	 mov	 eax, DWORD PTR ___security_cookie
  00020	33 c5		 xor	 eax, ebp
  00022	89 45 f0	 mov	 DWORD PTR __$ArrayPad$[ebp], eax
  00025	53		 push	 ebx
  00026	56		 push	 esi
  00027	57		 push	 edi
  00028	50		 push	 eax
  00029	8d 45 f4	 lea	 eax, DWORD PTR __$EHRec$[ebp]
  0002c	64 a3 00 00 00
	00		 mov	 DWORD PTR fs:0, eax
  00032	8b 5d 08	 mov	 ebx, DWORD PTR _pChar$[ebp]
  00035	8b f9		 mov	 edi, ecx

; 618  : 	//디폴트 공격 사용
; 619  : 	m_SkillState = SS_CHOP;
; 620  : 	ioAttackSkill::AttackSkillFire( pChar );

  00037	53		 push	 ebx

; 621  : 
; 622  : 	pChar->SetSkillMoveEnable( false, false );
; 623  : 	m_vAttackPos = pChar->GetWorldPosition();
; 624  : 
; 625  : 	g_WeaponMgr.CheckAdhesiveWeapon4( pChar->GetCharName() );
; 626  : 
; 627  : 	if( pChar->IsNeedSendNetwork() )
; 628  : 	{
; 629  : 		SP2Packet kPacket( CUPK_SKILL_EXTRA_INFO );

  00038	89 bd d4 7f ff
	ff		 mov	 DWORD PTR _this$GSCopy$[ebp], edi
  0003e	c7 87 e4 10 00
	00 07 00 00 00	 mov	 DWORD PTR [edi+4324], 7
  00048	e8 00 00 00 00	 call	 ?AttackSkillFire@ioAttackSkill@@MAEXPAVioBaseChar@@@Z ; ioAttackSkill::AttackSkillFire
  0004d	6a 00		 push	 0
  0004f	6a 00		 push	 0
  00051	8b cb		 mov	 ecx, ebx
  00053	e8 00 00 00 00	 call	 ?SetSkillMoveEnable@ioBaseChar@@QAEX_N0@Z ; ioBaseChar::SetSkillMoveEnable
  00058	8b 03		 mov	 eax, DWORD PTR [ebx]
  0005a	8b cb		 mov	 ecx, ebx
  0005c	ff 50 70	 call	 DWORD PTR [eax+112]
  0005f	81 c7 e4 11 00
	00		 add	 edi, 4580		; 000011e4H
  00065	8b f0		 mov	 esi, eax
  00067	a5		 movsd
  00068	a5		 movsd
  00069	a5		 movsd
  0006a	8d b3 d4 02 00
	00		 lea	 esi, DWORD PTR [ebx+724]
  00070	56		 push	 esi
  00071	e8 00 00 00 00	 call	 ?GetSingleton@ioWeaponManager@@SAAAV1@XZ ; ioWeaponManager::GetSingleton
  00076	8b c8		 mov	 ecx, eax
  00078	e8 00 00 00 00	 call	 ?CheckAdhesiveWeapon4@ioWeaponManager@@QAEXABVioHashString@@@Z ; ioWeaponManager::CheckAdhesiveWeapon4
  0007d	8b 03		 mov	 eax, DWORD PTR [ebx]
  0007f	8b cb		 mov	 ecx, ebx
  00081	ff 90 04 01 00
	00		 call	 DWORD PTR [eax+260]
  00087	84 c0		 test	 al, al
  00089	0f 84 86 00 00
	00		 je	 $LN1@SetChopAtt
  0008f	68 39 41 00 00	 push	 16697			; 00004139H
  00094	8d 8d d8 7f ff
	ff		 lea	 ecx, DWORD PTR _kPacket$548577[ebp]
  0009a	e8 00 00 00 00	 call	 ??0SP2Packet@@QAE@K@Z	; SP2Packet::SP2Packet
  0009f	83 65 fc 00	 and	 DWORD PTR __$EHRec$[ebp+8], 0

; 630  : 		kPacket << pChar->GetCharName();

  000a3	56		 push	 esi
  000a4	8d 8d d8 7f ff
	ff		 lea	 ecx, DWORD PTR _kPacket$548577[ebp]
  000aa	e8 00 00 00 00	 call	 ??6SP2Packet@@QAEAAV0@ABVioHashString@@@Z ; SP2Packet::operator<<

; 631  : 		kPacket << GetName();

  000af	8b 85 d4 7f ff
	ff		 mov	 eax, DWORD PTR _this$GSCopy$[ebp]
  000b5	83 c0 24	 add	 eax, 36			; 00000024H
  000b8	50		 push	 eax
  000b9	8d 8d d8 7f ff
	ff		 lea	 ecx, DWORD PTR _kPacket$548577[ebp]
  000bf	e8 00 00 00 00	 call	 ??6SP2Packet@@QAEAAV0@ABVioHashString@@@Z ; SP2Packet::operator<<

; 632  : 		kPacket << (int)SSS_CHOP;

  000c4	6a 01		 push	 1
  000c6	8d 8d d8 7f ff
	ff		 lea	 ecx, DWORD PTR _kPacket$548577[ebp]
  000cc	e8 00 00 00 00	 call	 ??6SP2Packet@@QAEAAV0@H@Z ; SP2Packet::operator<<

; 633  : 		kPacket << pChar->GetWorldPosition();

  000d1	8b 03		 mov	 eax, DWORD PTR [ebx]
  000d3	8b cb		 mov	 ecx, ebx
  000d5	ff 50 70	 call	 DWORD PTR [eax+112]
  000d8	50		 push	 eax
  000d9	8d 8d d8 7f ff
	ff		 lea	 ecx, DWORD PTR _kPacket$548577[ebp]
  000df	e8 00 00 00 00	 call	 ??6SP2Packet@@QAEAAV0@ABUD3DXVECTOR3@@@Z ; SP2Packet::operator<<

; 634  : 		kPacket << pChar->GetTargetRot();

  000e4	81 c3 a4 06 00
	00		 add	 ebx, 1700		; 000006a4H
  000ea	53		 push	 ebx
  000eb	8d 8d d8 7f ff
	ff		 lea	 ecx, DWORD PTR _kPacket$548577[ebp]
  000f1	e8 00 00 00 00	 call	 ??6SP2Packet@@QAEAAV0@ABUD3DXQUATERNION@@@Z ; SP2Packet::operator<<

; 635  : 		P2PNetwork::SendToAllPlayingUser( kPacket );

  000f6	8d 85 d8 7f ff
	ff		 lea	 eax, DWORD PTR _kPacket$548577[ebp]
  000fc	6a 00		 push	 0
  000fe	50		 push	 eax
  000ff	e8 00 00 00 00	 call	 ?SendToAllPlayingUser@P2PNetwork@@YAXAAVSP2Packet@@PAVioBaseChar@@@Z ; P2PNetwork::SendToAllPlayingUser

; 636  : 	}

  00104	83 4d fc ff	 or	 DWORD PTR __$EHRec$[ebp+8], -1
  00108	59		 pop	 ecx
  00109	59		 pop	 ecx
  0010a	8d 8d d8 7f ff
	ff		 lea	 ecx, DWORD PTR _kPacket$548577[ebp]
  00110	e8 00 00 00 00	 call	 ??1SP2Packet@@UAE@XZ	; SP2Packet::~SP2Packet
$LN1@SetChopAtt:

; 637  : }

  00115	8b 4d f4	 mov	 ecx, DWORD PTR __$EHRec$[ebp]
  00118	64 89 0d 00 00
	00 00		 mov	 DWORD PTR fs:0, ecx
  0011f	59		 pop	 ecx
  00120	5f		 pop	 edi
  00121	5e		 pop	 esi
  00122	5b		 pop	 ebx
  00123	8b 4d f0	 mov	 ecx, DWORD PTR __$ArrayPad$[ebp]
  00126	33 cd		 xor	 ecx, ebp
  00128	e8 00 00 00 00	 call	 @__security_check_cookie@4
  0012d	c9		 leave
  0012e	c2 08 00	 ret	 8
_TEXT	ENDS
;	COMDAT text$x
text$x	SEGMENT
__unwindfunclet$?SetChopAttack@ioWhirlwndAttack@@IAEXPAVioBaseChar@@PAVioPlayStage@@@Z$0:
  00000	8d 8d d8 7f ff
	ff		 lea	 ecx, DWORD PTR _kPacket$548577[ebp]
  00006	e9 00 00 00 00	 jmp	 ??1SP2Packet@@UAE@XZ	; SP2Packet::~SP2Packet
__ehhandler$?SetChopAttack@ioWhirlwndAttack@@IAEXPAVioBaseChar@@PAVioPlayStage@@@Z:
  0000b	8b 54 24 08	 mov	 edx, DWORD PTR [esp+8]
  0000f	8d 42 0c	 lea	 eax, DWORD PTR [edx+12]
  00012	8b 8a d0 7f ff
	ff		 mov	 ecx, DWORD PTR [edx-32816]
  00018	33 c8		 xor	 ecx, eax
  0001a	e8 00 00 00 00	 call	 @__security_check_cookie@4
  0001f	8b 4a fc	 mov	 ecx, DWORD PTR [edx-4]
  00022	33 c8		 xor	 ecx, eax
  00024	e8 00 00 00 00	 call	 @__security_check_cookie@4
  00029	b8 00 00 00 00	 mov	 eax, OFFSET __ehfuncinfo$?SetChopAttack@ioWhirlwndAttack@@IAEXPAVioBaseChar@@PAVioPlayStage@@@Z
  0002e	e9 00 00 00 00	 jmp	 ___CxxFrameHandler3
text$x	ENDS
?SetChopAttack@ioWhirlwndAttack@@IAEXPAVioBaseChar@@PAVioPlayStage@@@Z ENDP ; ioWhirlwndAttack::SetChopAttack
PUBLIC	?OnSkillEnd@ioWhirlwndAttack@@UAEXPAVioBaseChar@@@Z ; ioWhirlwndAttack::OnSkillEnd
EXTRN	?DestroyReserveAdhesive4@ioWeaponManager@@QAEXABVioHashString@@@Z:PROC ; ioWeaponManager::DestroyReserveAdhesive4
EXTRN	?ClearReserveKeyInput@ioBaseChar@@QAEXXZ:PROC	; ioBaseChar::ClearReserveKeyInput
EXTRN	?RestoreSkillWeaponMesh@ioBaseChar@@QAE_NPAVioSkill@@ABVioHashString@@_N2@Z:PROC ; ioBaseChar::RestoreSkillWeaponMesh
EXTRN	?OnSkillEnd@ioAttackSkill@@UAEXPAVioBaseChar@@@Z:PROC ; ioAttackSkill::OnSkillEnd
; Function compile flags: /Ogsp
;	COMDAT ?OnSkillEnd@ioWhirlwndAttack@@UAEXPAVioBaseChar@@@Z
_TEXT	SEGMENT
_pChar$ = 8						; size = 4
?OnSkillEnd@ioWhirlwndAttack@@UAEXPAVioBaseChar@@@Z PROC ; ioWhirlwndAttack::OnSkillEnd, COMDAT
; _this$ = ecx

; 706  : {

  00000	55		 push	 ebp
  00001	8b ec		 mov	 ebp, esp
  00003	53		 push	 ebx
  00004	56		 push	 esi
  00005	57		 push	 edi

; 707  : 	ioAttackSkill::OnSkillEnd( pChar );

  00006	8b 7d 08	 mov	 edi, DWORD PTR _pChar$[ebp]
  00009	57		 push	 edi
  0000a	8b f1		 mov	 esi, ecx
  0000c	e8 00 00 00 00	 call	 ?OnSkillEnd@ioAttackSkill@@UAEXPAVioBaseChar@@@Z ; ioAttackSkill::OnSkillEnd

; 708  : 
; 709  : 	if( GetOwnerItem() )

  00011	8b 8e a4 02 00
	00		 mov	 ecx, DWORD PTR [esi+676]
  00017	33 db		 xor	 ebx, ebx
  00019	3b cb		 cmp	 ecx, ebx
  0001b	74 08		 je	 SHORT $LN3@OnSkillEnd

; 710  : 		GetOwnerItem()->ClearCurChargeRateForSkill();

  0001d	8b 01		 mov	 eax, DWORD PTR [ecx]
  0001f	ff 90 84 00 00
	00		 call	 DWORD PTR [eax+132]
$LN3@OnSkillEnd:

; 711  : 
; 712  : 	// 기본무기 장착
; 713  : 	if( m_bUseItemMesh )

  00025	38 9e 08 0f 00
	00		 cmp	 BYTE PTR [esi+3848], bl
  0002b	74 0a		 je	 SHORT $LN2@OnSkillEnd

; 714  : 	{
; 715  : 		pChar->ShowWeaponItemMesh( true );

  0002d	53		 push	 ebx
  0002e	6a 01		 push	 1
  00030	8b cf		 mov	 ecx, edi
  00032	e8 00 00 00 00	 call	 ?ShowWeaponItemMesh@ioBaseChar@@QAEX_N0@Z ; ioBaseChar::ShowWeaponItemMesh
$LN2@OnSkillEnd:

; 716  : 	}
; 717  : 	if( !m_HandMesh.IsEmpty() )

  00037	8d 8e f8 0e 00
	00		 lea	 ecx, DWORD PTR [esi+3832]
  0003d	ff 15 00 00 00
	00		 call	 DWORD PTR __imp_?IsEmpty@ioHashString@@QBE_NXZ
  00043	84 c0		 test	 al, al
  00045	75 18		 jne	 SHORT $LN1@OnSkillEnd

; 718  : 	{
; 719  : 		pChar->RestoreSkillWeaponMesh( this, m_HandMesh, m_bVisibleEquipMesh );

  00047	0f b6 86 09 0f
	00 00		 movzx	 eax, BYTE PTR [esi+3849]
  0004e	53		 push	 ebx
  0004f	50		 push	 eax
  00050	8d 86 f8 0e 00
	00		 lea	 eax, DWORD PTR [esi+3832]
  00056	50		 push	 eax
  00057	56		 push	 esi
  00058	8b cf		 mov	 ecx, edi
  0005a	e8 00 00 00 00	 call	 ?RestoreSkillWeaponMesh@ioBaseChar@@QAE_NPAVioSkill@@ABVioHashString@@_N2@Z ; ioBaseChar::RestoreSkillWeaponMesh
$LN1@OnSkillEnd:

; 720  : 	}
; 721  : 	pChar->SetSkillMoveEnable( false, false );

  0005f	53		 push	 ebx
  00060	53		 push	 ebx
  00061	8b cf		 mov	 ecx, edi
  00063	e8 00 00 00 00	 call	 ?SetSkillMoveEnable@ioBaseChar@@QAEX_N0@Z ; ioBaseChar::SetSkillMoveEnable

; 722  : 	pChar->SetInvisibleState( false, true );

  00068	6a 01		 push	 1
  0006a	53		 push	 ebx
  0006b	8b cf		 mov	 ecx, edi
  0006d	e8 00 00 00 00	 call	 ?SetInvisibleState@ioBaseChar@@QAEX_N0@Z ; ioBaseChar::SetInvisibleState

; 723  : 	pChar->SetSpecialHide( false );

  00072	53		 push	 ebx
  00073	8b cf		 mov	 ecx, edi
  00075	e8 00 00 00 00	 call	 ?SetSpecialHide@ioBaseChar@@QAEX_N@Z ; ioBaseChar::SetSpecialHide

; 724  : 	pChar->ClearReserveKeyInput();

  0007a	8b cf		 mov	 ecx, edi
  0007c	e8 00 00 00 00	 call	 ?ClearReserveKeyInput@ioBaseChar@@QAEXXZ ; ioBaseChar::ClearReserveKeyInput

; 725  : 	pChar->DestroyMagicCircle();

  00081	8d 8f cc 01 00
	00		 lea	 ecx, DWORD PTR [edi+460]
  00087	e8 00 00 00 00	 call	 ?DestroyMagicCircle@ioBaseGUISupport@@QAEXXZ ; ioBaseGUISupport::DestroyMagicCircle

; 726  : 	pChar->EndMapEffect( m_LoopEndAttackEffectID, false );

  0008c	53		 push	 ebx
  0008d	ff b6 e0 11 00
	00		 push	 DWORD PTR [esi+4576]
  00093	8b cf		 mov	 ecx, edi
  00095	e8 00 00 00 00	 call	 ?EndMapEffect@ioBaseChar@@QAEXK_N@Z ; ioBaseChar::EndMapEffect

; 727  : 
; 728  : 	g_WeaponMgr.DestroyReserveAdhesive4( pChar->GetCharName() );

  0009a	81 c7 d4 02 00
	00		 add	 edi, 724		; 000002d4H
  000a0	57		 push	 edi
  000a1	e8 00 00 00 00	 call	 ?GetSingleton@ioWeaponManager@@SAAAV1@XZ ; ioWeaponManager::GetSingleton
  000a6	8b c8		 mov	 ecx, eax
  000a8	e8 00 00 00 00	 call	 ?DestroyReserveAdhesive4@ioWeaponManager@@QAEXABVioHashString@@@Z ; ioWeaponManager::DestroyReserveAdhesive4

; 729  : 
; 730  : 	Init();

  000ad	8b ce		 mov	 ecx, esi
  000af	e8 00 00 00 00	 call	 ?Init@ioWhirlwndAttack@@QAEXXZ ; ioWhirlwndAttack::Init
  000b4	5f		 pop	 edi
  000b5	5e		 pop	 esi
  000b6	5b		 pop	 ebx

; 731  : }

  000b7	5d		 pop	 ebp
  000b8	c2 04 00	 ret	 4
?OnSkillEnd@ioWhirlwndAttack@@UAEXPAVioBaseChar@@@Z ENDP ; ioWhirlwndAttack::OnSkillEnd
_TEXT	ENDS
PUBLIC	__$ArrayPad$
PUBLIC	?ApplyAttributeToWeapon@ioWhirlwndAttack@@UAEXPAVioWeapon@@PAVioPlayStage@@@Z ; ioWhirlwndAttack::ApplyAttributeToWeapon
EXTRN	?SetZoneValue@ioZoneEffectWeapon@@QAEX_N0@Z:PROC ; ioZoneEffectWeapon::SetZoneValue
EXTRN	?SetCollisionDir@ioZoneEffectWeapon@@QAEXAAUD3DXVECTOR3@@@Z:PROC ; ioZoneEffectWeapon::SetCollisionDir
EXTRN	?GetOwner@ioWeapon@@QBEPAVioBaseChar@@XZ:PROC	; ioWeapon::GetOwner
EXTRN	?SetState@ioAdhesiveMissileWeapon4@@QAEXW4WeaponState@1@@Z:PROC ; ioAdhesiveMissileWeapon4::SetState
EXTRN	?ApplyAttributeToWeapon@ioSkill@@UAEXPAVioWeapon@@PAVioPlayStage@@@Z:PROC ; ioSkill::ApplyAttributeToWeapon
; Function compile flags: /Ogsp
;	COMDAT ?ApplyAttributeToWeapon@ioWhirlwndAttack@@UAEXPAVioWeapon@@PAVioPlayStage@@@Z
_TEXT	SEGMENT
_pAdhesive4$ = -32					; size = 4
_vDir$548662 = -28					; size = 12
$T548663 = -16						; size = 12
__$ArrayPad$ = -4					; size = 4
_pWeapon$ = 8						; size = 4
_pStage$ = 12						; size = 4
?ApplyAttributeToWeapon@ioWhirlwndAttack@@UAEXPAVioWeapon@@PAVioPlayStage@@@Z PROC ; ioWhirlwndAttack::ApplyAttributeToWeapon, COMDAT
; _this$ = ecx

; 780  : {

  00000	55		 push	 ebp
  00001	8b ec		 mov	 ebp, esp
  00003	83 ec 20	 sub	 esp, 32			; 00000020H
  00006	a1 00 00 00 00	 mov	 eax, DWORD PTR ___security_cookie
  0000b	33 c5		 xor	 eax, ebp
  0000d	89 45 fc	 mov	 DWORD PTR __$ArrayPad$[ebp], eax
  00010	53		 push	 ebx
  00011	8b 5d 0c	 mov	 ebx, DWORD PTR _pStage$[ebp]
  00014	56		 push	 esi
  00015	8b 75 08	 mov	 esi, DWORD PTR _pWeapon$[ebp]
  00018	57		 push	 edi

; 781  : 	ioAttackSkill::ApplyAttributeToWeapon( pWeapon, pStage );

  00019	53		 push	 ebx
  0001a	56		 push	 esi
  0001b	8b f9		 mov	 edi, ecx
  0001d	e8 00 00 00 00	 call	 ?ApplyAttributeToWeapon@ioSkill@@UAEXPAVioWeapon@@PAVioPlayStage@@@Z ; ioSkill::ApplyAttributeToWeapon

; 782  : 
; 783  : 	ioTraceWeapon7* pTraceWeapon = ToTraceWeapon7( pWeapon );

  00022	56		 push	 esi
  00023	e8 00 00 00 00	 call	 ?ToTraceWeapon7@@YAPAVioTraceWeapon7@@PAVioWeapon@@@Z ; ToTraceWeapon7
  00028	59		 pop	 ecx

; 784  : 	if( pTraceWeapon )

  00029	85 c0		 test	 eax, eax
  0002b	74 11		 je	 SHORT $LN4@ApplyAttri

; 785  : 	{
; 786  : 		pTraceWeapon->SetMoveDir( m_vAttackDir );

  0002d	8b 10		 mov	 edx, DWORD PTR [eax]
  0002f	8d 8f f0 11 00
	00		 lea	 ecx, DWORD PTR [edi+4592]
  00035	51		 push	 ecx
  00036	8b c8		 mov	 ecx, eax
  00038	ff 92 b0 00 00
	00		 call	 DWORD PTR [edx+176]
$LN4@ApplyAttri:

; 787  : 	}
; 788  : 
; 789  : 	ioAdhesiveMissileWeapon4 *pAdhesive4 = ToAdhesiveMissileWeapon4( pWeapon );

  0003e	56		 push	 esi
  0003f	e8 00 00 00 00	 call	 ?ToAdhesiveMissileWeapon4@@YAPAVioAdhesiveMissileWeapon4@@PAVioWeapon@@@Z ; ToAdhesiveMissileWeapon4
  00044	59		 pop	 ecx
  00045	8b c8		 mov	 ecx, eax
  00047	89 4d e0	 mov	 DWORD PTR _pAdhesive4$[ebp], ecx

; 790  : 	if( pAdhesive4 )

  0004a	85 c9		 test	 ecx, ecx
  0004c	74 11		 je	 SHORT $LN7@ApplyAttri

; 791  : 	{
; 792  : 		pAdhesive4->SetState( ioAdhesiveMissileWeapon4::WS_ATTACH_MOVE );

  0004e	6a 01		 push	 1
  00050	e8 00 00 00 00	 call	 ?SetState@ioAdhesiveMissileWeapon4@@QAEXW4WeaponState@1@@Z ; ioAdhesiveMissileWeapon4::SetState

; 793  : 		pAdhesive4->SebCollisionMapForSkill( false );

  00055	8b 45 e0	 mov	 eax, DWORD PTR _pAdhesive4$[ebp]
  00058	c6 80 6e 09 00
	00 00		 mov	 BYTE PTR [eax+2414], 0
$LN7@ApplyAttri:

; 794  : 	}
; 795  : 
; 796  : 	ioZoneEffectWeapon *pZone = ToZoneEffectWeapon( pWeapon );

  0005f	56		 push	 esi
  00060	e8 00 00 00 00	 call	 ?ToZoneEffectWeapon@@YAPAVioZoneEffectWeapon@@PAVioWeapon@@@Z ; ToZoneEffectWeapon
  00065	8b f0		 mov	 esi, eax
  00067	59		 pop	 ecx

; 797  : 	if( pZone )

  00068	85 f6		 test	 esi, esi
  0006a	74 64		 je	 SHORT $LN1@ApplyAttri

; 798  : 	{
; 799  : 		ioBaseChar *pChar = pZone->GetOwner();

  0006c	8b ce		 mov	 ecx, esi
  0006e	e8 00 00 00 00	 call	 ?GetOwner@ioWeapon@@QBEPAVioBaseChar@@XZ ; ioWeapon::GetOwner

; 800  : 		if( pChar )

  00073	85 c0		 test	 eax, eax
  00075	74 59		 je	 SHORT $LN1@ApplyAttri

; 801  : 		{
; 802  : 			D3DXVECTOR3 vDir = pChar->GetTargetRot() * D3DXVECTOR3( 0.0f, 0.0f, -1.0f );

  00077	0f 57 c0	 xorps	 xmm0, xmm0
  0007a	8d 4d f0	 lea	 ecx, DWORD PTR $T548663[ebp]
  0007d	51		 push	 ecx
  0007e	05 a4 06 00 00	 add	 eax, 1700		; 000006a4H
  00083	50		 push	 eax
  00084	8d 45 e4	 lea	 eax, DWORD PTR _vDir$548662[ebp]
  00087	f3 0f 11 45 f0	 movss	 DWORD PTR $T548663[ebp], xmm0
  0008c	f3 0f 11 45 f4	 movss	 DWORD PTR $T548663[ebp+4], xmm0
  00091	f3 0f 10 05 00
	00 00 00	 movss	 xmm0, DWORD PTR __real@bf800000
  00099	50		 push	 eax
  0009a	f3 0f 11 45 f8	 movss	 DWORD PTR $T548663[ebp+8], xmm0
  0009f	ff 15 00 00 00
	00		 call	 DWORD PTR __imp_??D@YA?AUD3DXVECTOR3@@ABUD3DXQUATERNION@@ABU0@@Z
  000a5	83 c4 0c	 add	 esp, 12			; 0000000cH

; 803  : 			pZone->SetCollisionDir( vDir );

  000a8	8d 45 e4	 lea	 eax, DWORD PTR _vDir$548662[ebp]
  000ab	50		 push	 eax
  000ac	8b ce		 mov	 ecx, esi
  000ae	e8 00 00 00 00	 call	 ?SetCollisionDir@ioZoneEffectWeapon@@QAEXAAUD3DXVECTOR3@@@Z ; ioZoneEffectWeapon::SetCollisionDir

; 804  : 			pZone->SetZoneValue( false, false );

  000b3	6a 00		 push	 0
  000b5	6a 00		 push	 0
  000b7	8b ce		 mov	 ecx, esi
  000b9	e8 00 00 00 00	 call	 ?SetZoneValue@ioZoneEffectWeapon@@QAEX_N0@Z ; ioZoneEffectWeapon::SetZoneValue

; 805  : 			pZone->SetStartPosition( m_vAttackPos, pStage );

  000be	8b 06		 mov	 eax, DWORD PTR [esi]
  000c0	53		 push	 ebx
  000c1	81 c7 e4 11 00
	00		 add	 edi, 4580		; 000011e4H
  000c7	57		 push	 edi
  000c8	8b ce		 mov	 ecx, esi
  000ca	ff 90 bc 00 00
	00		 call	 DWORD PTR [eax+188]
$LN1@ApplyAttri:

; 806  : 		}
; 807  : 	}
; 808  : }

  000d0	8b 4d fc	 mov	 ecx, DWORD PTR __$ArrayPad$[ebp]
  000d3	5f		 pop	 edi
  000d4	5e		 pop	 esi
  000d5	33 cd		 xor	 ecx, ebp
  000d7	5b		 pop	 ebx
  000d8	e8 00 00 00 00	 call	 @__security_check_cookie@4
  000dd	c9		 leave
  000de	c2 08 00	 ret	 8
?ApplyAttributeToWeapon@ioWhirlwndAttack@@UAEXPAVioWeapon@@PAVioPlayStage@@@Z ENDP ; ioWhirlwndAttack::ApplyAttributeToWeapon
_TEXT	ENDS
PUBLIC	_pStage$GSCopy$
PUBLIC	__$ArrayPad$
PUBLIC	?ApplyExtraSkillInfo@ioWhirlwndAttack@@UAEXPAVioBaseChar@@PAVioPlayStage@@AAVSP2Packet@@@Z ; ioWhirlwndAttack::ApplyExtraSkillInfo
EXTRN	??5SP2Packet@@QAEAAV0@AAUD3DXQUATERNION@@@Z:PROC ; SP2Packet::operator>>
EXTRN	??5SP2Packet@@QAEAAV0@AAUD3DXVECTOR3@@@Z:PROC	; SP2Packet::operator>>
EXTRN	??5SP2Packet@@QAEAAV0@AAH@Z:PROC		; SP2Packet::operator>>
; Function compile flags: /Ogsp
;	COMDAT ?ApplyExtraSkillInfo@ioWhirlwndAttack@@UAEXPAVioBaseChar@@PAVioPlayStage@@AAVSP2Packet@@@Z
_TEXT	SEGMENT
_qtRot$ = -40						; size = 16
_eState$ = -24						; size = 4
_pStage$GSCopy$ = -20					; size = 4
_vPos$ = -16						; size = 12
__$ArrayPad$ = -4					; size = 4
_pChar$ = 8						; size = 4
_pStage$ = 12						; size = 4
_rkPacket$ = 16						; size = 4
?ApplyExtraSkillInfo@ioWhirlwndAttack@@UAEXPAVioBaseChar@@PAVioPlayStage@@AAVSP2Packet@@@Z PROC ; ioWhirlwndAttack::ApplyExtraSkillInfo, COMDAT
; _this$ = ecx

; 811  : {

  00000	55		 push	 ebp
  00001	8b ec		 mov	 ebp, esp
  00003	83 ec 28	 sub	 esp, 40			; 00000028H
  00006	a1 00 00 00 00	 mov	 eax, DWORD PTR ___security_cookie
  0000b	33 c5		 xor	 eax, ebp
  0000d	89 45 fc	 mov	 DWORD PTR __$ArrayPad$[ebp], eax
  00010	8b 45 0c	 mov	 eax, DWORD PTR _pStage$[ebp]
  00013	53		 push	 ebx
  00014	56		 push	 esi
  00015	8b 75 08	 mov	 esi, DWORD PTR _pChar$[ebp]
  00018	57		 push	 edi
  00019	8b 7d 10	 mov	 edi, DWORD PTR _rkPacket$[ebp]

; 832  : 	{
; 833  : 		SetChopAttack( pChar, pStage );

  0001c	89 45 ec	 mov	 DWORD PTR _pStage$GSCopy$[ebp], eax
  0001f	8d 45 e8	 lea	 eax, DWORD PTR _eState$[ebp]
  00022	8b d9		 mov	 ebx, ecx
  00024	50		 push	 eax
  00025	8b cf		 mov	 ecx, edi
  00027	e8 00 00 00 00	 call	 ??5SP2Packet@@QAEAAV0@AAH@Z ; SP2Packet::operator>>
  0002c	8d 45 f0	 lea	 eax, DWORD PTR _vPos$[ebp]
  0002f	50		 push	 eax
  00030	8b cf		 mov	 ecx, edi
  00032	e8 00 00 00 00	 call	 ??5SP2Packet@@QAEAAV0@AAUD3DXVECTOR3@@@Z ; SP2Packet::operator>>
  00037	8d 45 d8	 lea	 eax, DWORD PTR _qtRot$[ebp]
  0003a	50		 push	 eax
  0003b	8b cf		 mov	 ecx, edi
  0003d	e8 00 00 00 00	 call	 ??5SP2Packet@@QAEAAV0@AAUD3DXQUATERNION@@@Z ; SP2Packet::operator>>
  00042	6a 01		 push	 1
  00044	6a 01		 push	 1
  00046	8d 45 d8	 lea	 eax, DWORD PTR _qtRot$[ebp]
  00049	50		 push	 eax
  0004a	8b ce		 mov	 ecx, esi
  0004c	e8 00 00 00 00	 call	 ?SetTargetRotToRotate@ioBaseChar@@QAEXABUD3DXQUATERNION@@_N1@Z ; ioBaseChar::SetTargetRotToRotate
  00051	8b 06		 mov	 eax, DWORD PTR [esi]
  00053	8d 4d f0	 lea	 ecx, DWORD PTR _vPos$[ebp]
  00056	51		 push	 ecx
  00057	8b ce		 mov	 ecx, esi
  00059	ff 50 44	 call	 DWORD PTR [eax+68]
  0005c	83 7d e8 00	 cmp	 DWORD PTR _eState$[ebp], 0
  00060	75 2b		 jne	 SHORT $LN3@ApplyExtra

; 812  : 	int eState;
; 813  : 	rkPacket >> eState;
; 814  : 
; 815  : 	D3DXVECTOR3 vPos;
; 816  : 	rkPacket >> vPos;
; 817  : 
; 818  : 	D3DXQUATERNION qtRot;
; 819  : 	rkPacket >> qtRot;
; 820  : 
; 821  : 	pChar->SetTargetRotToRotate( qtRot, true, true );
; 822  : 	pChar->SetWorldPosition( vPos );
; 823  : 
; 824  : 	if( eState == SSS_LOOP_END_ATTACK )
; 825  : 	{
; 826  : 		rkPacket >> m_vAttackPos;

  00062	8d 83 e4 11 00
	00		 lea	 eax, DWORD PTR [ebx+4580]
  00068	50		 push	 eax
  00069	8b cf		 mov	 ecx, edi
  0006b	e8 00 00 00 00	 call	 ??5SP2Packet@@QAEAAV0@AAUD3DXVECTOR3@@@Z ; SP2Packet::operator>>

; 827  : 		rkPacket >> m_vAttackDir;

  00070	8d 83 f0 11 00
	00		 lea	 eax, DWORD PTR [ebx+4592]
  00076	50		 push	 eax
  00077	8b cf		 mov	 ecx, edi
  00079	e8 00 00 00 00	 call	 ??5SP2Packet@@QAEAAV0@AAUD3DXVECTOR3@@@Z ; SP2Packet::operator>>

; 828  : 
; 829  : 		SetLoopEndAttackState( pChar, pStage, false );

  0007e	6a 00		 push	 0
  00080	ff 75 ec	 push	 DWORD PTR _pStage$GSCopy$[ebp]
  00083	8b cb		 mov	 ecx, ebx
  00085	56		 push	 esi
  00086	e8 00 00 00 00	 call	 ?SetLoopEndAttackState@ioWhirlwndAttack@@IAEXPAVioBaseChar@@PAVioPlayStage@@_N@Z ; ioWhirlwndAttack::SetLoopEndAttackState
  0008b	eb 11		 jmp	 SHORT $LN1@ApplyExtra
$LN3@ApplyExtra:

; 830  : 	}
; 831  : 	else if( eState == SSS_CHOP )

  0008d	83 7d e8 01	 cmp	 DWORD PTR _eState$[ebp], 1
  00091	75 0b		 jne	 SHORT $LN1@ApplyExtra

; 832  : 	{
; 833  : 		SetChopAttack( pChar, pStage );

  00093	ff 75 ec	 push	 DWORD PTR _pStage$GSCopy$[ebp]
  00096	8b cb		 mov	 ecx, ebx
  00098	56		 push	 esi
  00099	e8 00 00 00 00	 call	 ?SetChopAttack@ioWhirlwndAttack@@IAEXPAVioBaseChar@@PAVioPlayStage@@@Z ; ioWhirlwndAttack::SetChopAttack
$LN1@ApplyExtra:

; 834  : 	}
; 835  : }

  0009e	8b 4d fc	 mov	 ecx, DWORD PTR __$ArrayPad$[ebp]
  000a1	5f		 pop	 edi
  000a2	5e		 pop	 esi
  000a3	33 cd		 xor	 ecx, ebp
  000a5	5b		 pop	 ebx
  000a6	e8 00 00 00 00	 call	 @__security_check_cookie@4
  000ab	c9		 leave
  000ac	c2 0c 00	 ret	 12			; 0000000cH
?ApplyExtraSkillInfo@ioWhirlwndAttack@@UAEXPAVioBaseChar@@PAVioPlayStage@@AAVSP2Packet@@@Z ENDP ; ioWhirlwndAttack::ApplyExtraSkillInfo
_TEXT	ENDS
PUBLIC	?begin@?$vector@UWeaponInfo@@V?$allocator@UWeaponInfo@@@std@@@std@@QBE?AV?$_Vector_const_iterator@V?$_Vector_val@UWeaponInfo@@V?$allocator@UWeaponInfo@@@std@@@std@@@2@XZ ; std::vector<WeaponInfo,std::allocator<WeaponInfo> >::begin
; Function compile flags: /Ogsp
; File c:\program files (x86)\microsoft visual studio 10.0\vc\include\vector
;	COMDAT ?begin@?$vector@UWeaponInfo@@V?$allocator@UWeaponInfo@@@std@@@std@@QBE?AV?$_Vector_const_iterator@V?$_Vector_val@UWeaponInfo@@V?$allocator@UWeaponInfo@@@std@@@std@@@2@XZ
_TEXT	SEGMENT
___$ReturnUdt$ = 8					; size = 4
?begin@?$vector@UWeaponInfo@@V?$allocator@UWeaponInfo@@@std@@@std@@QBE?AV?$_Vector_const_iterator@V?$_Vector_val@UWeaponInfo@@V?$allocator@UWeaponInfo@@@std@@@std@@@2@XZ PROC ; std::vector<WeaponInfo,std::allocator<WeaponInfo> >::begin, COMDAT
; _this$ = ecx

; 786  : 		{	// return iterator for beginning of nonmutable sequence

  00000	55		 push	 ebp
  00001	8b ec		 mov	 ebp, esp

; 787  : 		return (const_iterator(this->_Myfirst, this));

  00003	8b 09		 mov	 ecx, DWORD PTR [ecx]
  00005	8b 45 08	 mov	 eax, DWORD PTR ___$ReturnUdt$[ebp]
  00008	89 08		 mov	 DWORD PTR [eax], ecx

; 788  : 		}

  0000a	5d		 pop	 ebp
  0000b	c2 04 00	 ret	 4
?begin@?$vector@UWeaponInfo@@V?$allocator@UWeaponInfo@@@std@@@std@@QBE?AV?$_Vector_const_iterator@V?$_Vector_val@UWeaponInfo@@V?$allocator@UWeaponInfo@@@std@@@std@@@2@XZ ENDP ; std::vector<WeaponInfo,std::allocator<WeaponInfo> >::begin
_TEXT	ENDS
PUBLIC	?end@?$vector@UWeaponInfo@@V?$allocator@UWeaponInfo@@@std@@@std@@QBE?AV?$_Vector_const_iterator@V?$_Vector_val@UWeaponInfo@@V?$allocator@UWeaponInfo@@@std@@@std@@@2@XZ ; std::vector<WeaponInfo,std::allocator<WeaponInfo> >::end
; Function compile flags: /Ogsp
;	COMDAT ?end@?$vector@UWeaponInfo@@V?$allocator@UWeaponInfo@@@std@@@std@@QBE?AV?$_Vector_const_iterator@V?$_Vector_val@UWeaponInfo@@V?$allocator@UWeaponInfo@@@std@@@std@@@2@XZ
_TEXT	SEGMENT
___$ReturnUdt$ = 8					; size = 4
?end@?$vector@UWeaponInfo@@V?$allocator@UWeaponInfo@@@std@@@std@@QBE?AV?$_Vector_const_iterator@V?$_Vector_val@UWeaponInfo@@V?$allocator@UWeaponInfo@@@std@@@std@@@2@XZ PROC ; std::vector<WeaponInfo,std::allocator<WeaponInfo> >::end, COMDAT
; _this$ = ecx

; 796  : 		{	// return iterator for end of nonmutable sequence

  00000	55		 push	 ebp
  00001	8b ec		 mov	 ebp, esp

; 797  : 		return (const_iterator(this->_Mylast, this));

  00003	8b 49 04	 mov	 ecx, DWORD PTR [ecx+4]
  00006	8b 45 08	 mov	 eax, DWORD PTR ___$ReturnUdt$[ebp]
  00009	89 08		 mov	 DWORD PTR [eax], ecx

; 798  : 		}

  0000b	5d		 pop	 ebp
  0000c	c2 04 00	 ret	 4
?end@?$vector@UWeaponInfo@@V?$allocator@UWeaponInfo@@@std@@@std@@QBE?AV?$_Vector_const_iterator@V?$_Vector_val@UWeaponInfo@@V?$allocator@UWeaponInfo@@@std@@@std@@@2@XZ ENDP ; std::vector<WeaponInfo,std::allocator<WeaponInfo> >::end
_TEXT	ENDS
PUBLIC	?begin@?$vector@UForceInfo@@V?$allocator@UForceInfo@@@std@@@std@@QBE?AV?$_Vector_const_iterator@V?$_Vector_val@UForceInfo@@V?$allocator@UForceInfo@@@std@@@std@@@2@XZ ; std::vector<ForceInfo,std::allocator<ForceInfo> >::begin
; Function compile flags: /Ogsp
;	COMDAT ?begin@?$vector@UForceInfo@@V?$allocator@UForceInfo@@@std@@@std@@QBE?AV?$_Vector_const_iterator@V?$_Vector_val@UForceInfo@@V?$allocator@UForceInfo@@@std@@@std@@@2@XZ
_TEXT	SEGMENT
___$ReturnUdt$ = 8					; size = 4
?begin@?$vector@UForceInfo@@V?$allocator@UForceInfo@@@std@@@std@@QBE?AV?$_Vector_const_iterator@V?$_Vector_val@UForceInfo@@V?$allocator@UForceInfo@@@std@@@std@@@2@XZ PROC ; std::vector<ForceInfo,std::allocator<ForceInfo> >::begin, COMDAT
; _this$ = ecx

; 786  : 		{	// return iterator for beginning of nonmutable sequence

  00000	55		 push	 ebp
  00001	8b ec		 mov	 ebp, esp

; 787  : 		return (const_iterator(this->_Myfirst, this));

  00003	8b 09		 mov	 ecx, DWORD PTR [ecx]
  00005	8b 45 08	 mov	 eax, DWORD PTR ___$ReturnUdt$[ebp]
  00008	89 08		 mov	 DWORD PTR [eax], ecx

; 788  : 		}

  0000a	5d		 pop	 ebp
  0000b	c2 04 00	 ret	 4
?begin@?$vector@UForceInfo@@V?$allocator@UForceInfo@@@std@@@std@@QBE?AV?$_Vector_const_iterator@V?$_Vector_val@UForceInfo@@V?$allocator@UForceInfo@@@std@@@std@@@2@XZ ENDP ; std::vector<ForceInfo,std::allocator<ForceInfo> >::begin
_TEXT	ENDS
PUBLIC	?end@?$vector@UForceInfo@@V?$allocator@UForceInfo@@@std@@@std@@QBE?AV?$_Vector_const_iterator@V?$_Vector_val@UForceInfo@@V?$allocator@UForceInfo@@@std@@@std@@@2@XZ ; std::vector<ForceInfo,std::allocator<ForceInfo> >::end
; Function compile flags: /Ogsp
;	COMDAT ?end@?$vector@UForceInfo@@V?$allocator@UForceInfo@@@std@@@std@@QBE?AV?$_Vector_const_iterator@V?$_Vector_val@UForceInfo@@V?$allocator@UForceInfo@@@std@@@std@@@2@XZ
_TEXT	SEGMENT
___$ReturnUdt$ = 8					; size = 4
?end@?$vector@UForceInfo@@V?$allocator@UForceInfo@@@std@@@std@@QBE?AV?$_Vector_const_iterator@V?$_Vector_val@UForceInfo@@V?$allocator@UForceInfo@@@std@@@std@@@2@XZ PROC ; std::vector<ForceInfo,std::allocator<ForceInfo> >::end, COMDAT
; _this$ = ecx

; 796  : 		{	// return iterator for end of nonmutable sequence

  00000	55		 push	 ebp
  00001	8b ec		 mov	 ebp, esp

; 797  : 		return (const_iterator(this->_Mylast, this));

  00003	8b 49 04	 mov	 ecx, DWORD PTR [ecx+4]
  00006	8b 45 08	 mov	 eax, DWORD PTR ___$ReturnUdt$[ebp]
  00009	89 08		 mov	 DWORD PTR [eax], ecx

; 798  : 		}

  0000b	5d		 pop	 ebp
  0000c	c2 04 00	 ret	 4
?end@?$vector@UForceInfo@@V?$allocator@UForceInfo@@@std@@@std@@QBE?AV?$_Vector_const_iterator@V?$_Vector_val@UForceInfo@@V?$allocator@UForceInfo@@@std@@@std@@@2@XZ ENDP ; std::vector<ForceInfo,std::allocator<ForceInfo> >::end
_TEXT	ENDS
PUBLIC	__$ArrayPad$
PUBLIC	??$LoadInt_e@$0BD@@ioINILoader@@QAEHAAY0BD@$$CBDH@Z ; ioINILoader::LoadInt_e<19>
EXTRN	__imp_?LoadInt@ioINILoader@@QAEHPBDH@Z:PROC
; Function compile flags: /Ogsp
; File d:\lost saga for developer\youtube\tutorial\source\src\io3dengine\ioiniloader.h
;	COMDAT ??$LoadInt_e@$0BD@@ioINILoader@@QAEHAAY0BD@$$CBDH@Z
_TEXT	SEGMENT
__k$ = -28						; size = 19
__$ArrayPad$ = -4					; size = 4
_k$ = 8							; size = 4
_i$ = 12						; size = 4
??$LoadInt_e@$0BD@@ioINILoader@@QAEHAAY0BD@$$CBDH@Z PROC ; ioINILoader::LoadInt_e<19>, COMDAT
; _this$ = ecx

; 118  : 	{

  00000	55		 push	 ebp
  00001	8b ec		 mov	 ebp, esp
  00003	83 ec 1c	 sub	 esp, 28			; 0000001cH
  00006	a1 00 00 00 00	 mov	 eax, DWORD PTR ___security_cookie
  0000b	33 c5		 xor	 eax, ebp
  0000d	89 45 fc	 mov	 DWORD PTR __$ArrayPad$[ebp], eax
  00010	8b 45 08	 mov	 eax, DWORD PTR _k$[ebp]

; 119  : 		_ENCSTR(k, _k);

  00013	8a 10		 mov	 dl, BYTE PTR [eax]
  00015	56		 push	 esi
  00016	8b f1		 mov	 esi, ecx
  00018	84 d2		 test	 dl, dl
  0001a	0f 84 cf 01 00
	00		 je	 $LN96@LoadInt_e
  00020	80 f2 ed	 xor	 dl, -19			; ffffffedH
  00023	88 55 e4	 mov	 BYTE PTR __k$[ebp], dl
  00026	8a 50 01	 mov	 dl, BYTE PTR [eax+1]
  00029	84 d2		 test	 dl, dl
  0002b	0f 84 b8 01 00
	00		 je	 $LN95@LoadInt_e
  00031	b1 ec		 mov	 cl, -20			; ffffffecH
  00033	32 d1		 xor	 dl, cl
  00035	88 55 e5	 mov	 BYTE PTR __k$[ebp+1], dl
  00038	8a 50 02	 mov	 dl, BYTE PTR [eax+2]
  0003b	84 d2		 test	 dl, dl
  0003d	0f 84 a0 01 00
	00		 je	 $LN94@LoadInt_e
  00043	80 f2 eb	 xor	 dl, -21			; ffffffebH
  00046	88 55 e6	 mov	 BYTE PTR __k$[ebp+2], dl
  00049	8a 50 03	 mov	 dl, BYTE PTR [eax+3]
  0004c	84 d2		 test	 dl, dl
  0004e	0f 84 89 01 00
	00		 je	 $LN93@LoadInt_e
  00054	80 f2 ea	 xor	 dl, -22			; ffffffeaH
  00057	88 55 e7	 mov	 BYTE PTR __k$[ebp+3], dl
  0005a	8a 50 04	 mov	 dl, BYTE PTR [eax+4]
  0005d	84 d2		 test	 dl, dl
  0005f	0f 84 72 01 00
	00		 je	 $LN92@LoadInt_e
  00065	80 f2 ed	 xor	 dl, -19			; ffffffedH
  00068	88 55 e8	 mov	 BYTE PTR __k$[ebp+4], dl
  0006b	8a 50 05	 mov	 dl, BYTE PTR [eax+5]
  0006e	84 d2		 test	 dl, dl
  00070	0f 84 5c 01 00
	00		 je	 $LN91@LoadInt_e
  00076	32 d1		 xor	 dl, cl
  00078	88 55 e9	 mov	 BYTE PTR __k$[ebp+5], dl
  0007b	8a 50 06	 mov	 dl, BYTE PTR [eax+6]
  0007e	84 d2		 test	 dl, dl
  00080	0f 84 46 01 00
	00		 je	 $LN90@LoadInt_e
  00086	80 f2 eb	 xor	 dl, -21			; ffffffebH
  00089	88 55 ea	 mov	 BYTE PTR __k$[ebp+6], dl
  0008c	8a 50 07	 mov	 dl, BYTE PTR [eax+7]
  0008f	84 d2		 test	 dl, dl
  00091	0f 84 2f 01 00
	00		 je	 $LN89@LoadInt_e
  00097	80 f2 ea	 xor	 dl, -22			; ffffffeaH
  0009a	88 55 eb	 mov	 BYTE PTR __k$[ebp+7], dl
  0009d	8a 50 08	 mov	 dl, BYTE PTR [eax+8]
  000a0	84 d2		 test	 dl, dl
  000a2	0f 84 18 01 00
	00		 je	 $LN88@LoadInt_e
  000a8	80 f2 ed	 xor	 dl, -19			; ffffffedH
  000ab	88 55 ec	 mov	 BYTE PTR __k$[ebp+8], dl
  000ae	8a 50 09	 mov	 dl, BYTE PTR [eax+9]
  000b1	84 d2		 test	 dl, dl
  000b3	0f 84 02 01 00
	00		 je	 $LN87@LoadInt_e
  000b9	32 d1		 xor	 dl, cl
  000bb	88 55 ed	 mov	 BYTE PTR __k$[ebp+9], dl
  000be	8a 50 0a	 mov	 dl, BYTE PTR [eax+10]
  000c1	84 d2		 test	 dl, dl
  000c3	0f 84 ec 00 00
	00		 je	 $LN86@LoadInt_e
  000c9	80 f2 eb	 xor	 dl, -21			; ffffffebH
  000cc	88 55 ee	 mov	 BYTE PTR __k$[ebp+10], dl
  000cf	8a 50 0b	 mov	 dl, BYTE PTR [eax+11]
  000d2	84 d2		 test	 dl, dl
  000d4	0f 84 d5 00 00
	00		 je	 $LN85@LoadInt_e
  000da	80 f2 ea	 xor	 dl, -22			; ffffffeaH
  000dd	88 55 ef	 mov	 BYTE PTR __k$[ebp+11], dl
  000e0	8a 50 0c	 mov	 dl, BYTE PTR [eax+12]
  000e3	84 d2		 test	 dl, dl
  000e5	0f 84 be 00 00
	00		 je	 $LN84@LoadInt_e
  000eb	80 f2 ed	 xor	 dl, -19			; ffffffedH
  000ee	88 55 f0	 mov	 BYTE PTR __k$[ebp+12], dl
  000f1	8a 50 0d	 mov	 dl, BYTE PTR [eax+13]
  000f4	84 d2		 test	 dl, dl
  000f6	0f 84 a8 00 00
	00		 je	 $LN83@LoadInt_e
  000fc	32 d1		 xor	 dl, cl
  000fe	88 55 f1	 mov	 BYTE PTR __k$[ebp+13], dl
  00101	8a 50 0e	 mov	 dl, BYTE PTR [eax+14]
  00104	84 d2		 test	 dl, dl
  00106	0f 84 92 00 00
	00		 je	 $LN82@LoadInt_e
  0010c	80 f2 eb	 xor	 dl, -21			; ffffffebH
  0010f	88 55 f2	 mov	 BYTE PTR __k$[ebp+14], dl
  00112	8a 50 0f	 mov	 dl, BYTE PTR [eax+15]
  00115	84 d2		 test	 dl, dl
  00117	74 7f		 je	 SHORT $LN81@LoadInt_e
  00119	80 f2 ea	 xor	 dl, -22			; ffffffeaH
  0011c	88 55 f3	 mov	 BYTE PTR __k$[ebp+15], dl
  0011f	8a 50 10	 mov	 dl, BYTE PTR [eax+16]
  00122	84 d2		 test	 dl, dl
  00124	74 6c		 je	 SHORT $LN80@LoadInt_e
  00126	80 f2 ed	 xor	 dl, -19			; ffffffedH
  00129	88 55 f4	 mov	 BYTE PTR __k$[ebp+16], dl
  0012c	8a 50 11	 mov	 dl, BYTE PTR [eax+17]
  0012f	84 d2		 test	 dl, dl
  00131	74 5a		 je	 SHORT $LN79@LoadInt_e
  00133	32 d1		 xor	 dl, cl
  00135	80 78 12 00	 cmp	 BYTE PTR [eax+18], 0
  00139	88 55 f5	 mov	 BYTE PTR __k$[ebp+17], dl
  0013c	0f 84 b1 00 00
	00		 je	 $LN1@LoadInt_e
  00142	8a 50 13	 mov	 dl, BYTE PTR [eax+19]
  00145	84 d2		 test	 dl, dl
  00147	74 3e		 je	 SHORT $LN77@LoadInt_e
  00149	80 f2 ea	 xor	 dl, -22			; ffffffeaH
  0014c	88 55 f7	 mov	 BYTE PTR __k$[ebp+19], dl
  0014f	8a 50 14	 mov	 dl, BYTE PTR [eax+20]
  00152	84 d2		 test	 dl, dl
  00154	74 2b		 je	 SHORT $LN76@LoadInt_e
  00156	80 f2 ed	 xor	 dl, -19			; ffffffedH
  00159	88 55 f8	 mov	 BYTE PTR __k$[ebp+20], dl
  0015c	8a 50 15	 mov	 dl, BYTE PTR [eax+21]
  0015f	84 d2		 test	 dl, dl
  00161	74 19		 je	 SHORT $LN75@LoadInt_e
  00163	8a 40 16	 mov	 al, BYTE PTR [eax+22]
  00166	32 d1		 xor	 dl, cl
  00168	88 55 f9	 mov	 BYTE PTR __k$[ebp+21], dl
  0016b	84 c0		 test	 al, al
  0016d	74 07		 je	 SHORT $LN74@LoadInt_e
  0016f	34 eb		 xor	 al, -21			; ffffffebH
  00171	88 45 fa	 mov	 BYTE PTR __k$[ebp+22], al
  00174	eb 7d		 jmp	 SHORT $LN1@LoadInt_e
$LN74@LoadInt_e:
  00176	c6 45 fa eb	 mov	 BYTE PTR __k$[ebp+22], -21 ; ffffffebH
  0017a	eb 77		 jmp	 SHORT $LN1@LoadInt_e
$LN75@LoadInt_e:
  0017c	88 4d f9	 mov	 BYTE PTR __k$[ebp+21], cl
  0017f	eb 72		 jmp	 SHORT $LN1@LoadInt_e
$LN76@LoadInt_e:
  00181	c6 45 f8 ed	 mov	 BYTE PTR __k$[ebp+20], -19 ; ffffffedH
  00185	eb 6c		 jmp	 SHORT $LN1@LoadInt_e
$LN77@LoadInt_e:
  00187	c6 45 f7 ea	 mov	 BYTE PTR __k$[ebp+19], -22 ; ffffffeaH
  0018b	eb 66		 jmp	 SHORT $LN1@LoadInt_e
$LN79@LoadInt_e:
  0018d	88 4d f5	 mov	 BYTE PTR __k$[ebp+17], cl
  00190	eb 61		 jmp	 SHORT $LN1@LoadInt_e
$LN80@LoadInt_e:
  00192	c6 45 f4 ed	 mov	 BYTE PTR __k$[ebp+16], -19 ; ffffffedH
  00196	eb 5b		 jmp	 SHORT $LN1@LoadInt_e
$LN81@LoadInt_e:
  00198	c6 45 f3 ea	 mov	 BYTE PTR __k$[ebp+15], -22 ; ffffffeaH
  0019c	eb 55		 jmp	 SHORT $LN1@LoadInt_e
$LN82@LoadInt_e:
  0019e	c6 45 f2 eb	 mov	 BYTE PTR __k$[ebp+14], -21 ; ffffffebH
  001a2	eb 4f		 jmp	 SHORT $LN1@LoadInt_e
$LN83@LoadInt_e:
  001a4	88 4d f1	 mov	 BYTE PTR __k$[ebp+13], cl
  001a7	eb 4a		 jmp	 SHORT $LN1@LoadInt_e
$LN84@LoadInt_e:
  001a9	c6 45 f0 ed	 mov	 BYTE PTR __k$[ebp+12], -19 ; ffffffedH
  001ad	eb 44		 jmp	 SHORT $LN1@LoadInt_e
$LN85@LoadInt_e:
  001af	c6 45 ef ea	 mov	 BYTE PTR __k$[ebp+11], -22 ; ffffffeaH
  001b3	eb 3e		 jmp	 SHORT $LN1@LoadInt_e
$LN86@LoadInt_e:
  001b5	c6 45 ee eb	 mov	 BYTE PTR __k$[ebp+10], -21 ; ffffffebH
  001b9	eb 38		 jmp	 SHORT $LN1@LoadInt_e
$LN87@LoadInt_e:
  001bb	88 4d ed	 mov	 BYTE PTR __k$[ebp+9], cl
  001be	eb 33		 jmp	 SHORT $LN1@LoadInt_e
$LN88@LoadInt_e:
  001c0	c6 45 ec ed	 mov	 BYTE PTR __k$[ebp+8], -19 ; ffffffedH
  001c4	eb 2d		 jmp	 SHORT $LN1@LoadInt_e
$LN89@LoadInt_e:
  001c6	c6 45 eb ea	 mov	 BYTE PTR __k$[ebp+7], -22 ; ffffffeaH
  001ca	eb 27		 jmp	 SHORT $LN1@LoadInt_e
$LN90@LoadInt_e:
  001cc	c6 45 ea eb	 mov	 BYTE PTR __k$[ebp+6], -21 ; ffffffebH
  001d0	eb 21		 jmp	 SHORT $LN1@LoadInt_e
$LN91@LoadInt_e:
  001d2	88 4d e9	 mov	 BYTE PTR __k$[ebp+5], cl
  001d5	eb 1c		 jmp	 SHORT $LN1@LoadInt_e
$LN92@LoadInt_e:
  001d7	c6 45 e8 ed	 mov	 BYTE PTR __k$[ebp+4], -19 ; ffffffedH
  001db	eb 16		 jmp	 SHORT $LN1@LoadInt_e
$LN93@LoadInt_e:
  001dd	c6 45 e7 ea	 mov	 BYTE PTR __k$[ebp+3], -22 ; ffffffeaH
  001e1	eb 10		 jmp	 SHORT $LN1@LoadInt_e
$LN94@LoadInt_e:
  001e3	c6 45 e6 eb	 mov	 BYTE PTR __k$[ebp+2], -21 ; ffffffebH
  001e7	eb 0a		 jmp	 SHORT $LN1@LoadInt_e
$LN95@LoadInt_e:
  001e9	c6 45 e5 ec	 mov	 BYTE PTR __k$[ebp+1], -20 ; ffffffecH
  001ed	eb 04		 jmp	 SHORT $LN1@LoadInt_e
$LN96@LoadInt_e:
  001ef	c6 45 e4 ed	 mov	 BYTE PTR __k$[ebp], -19	; ffffffedH
$LN1@LoadInt_e:
  001f3	6a 04		 push	 4
  001f5	8d 45 e4	 lea	 eax, DWORD PTR __k$[ebp]
  001f8	c6 45 f6 00	 mov	 BYTE PTR __k$[ebp+18], 0
  001fc	5a		 pop	 edx
$LL104@LoadInt_e:
  001fd	81 30 ed ec eb
	ea		 xor	 DWORD PTR [eax], -353637139 ; eaebecedH
  00203	83 c0 04	 add	 eax, 4
  00206	4a		 dec	 edx
  00207	75 f4		 jne	 SHORT $LL104@LoadInt_e
  00209	6a 10		 push	 16			; 00000010H
  0020b	58		 pop	 eax
$LL101@LoadInt_e:
  0020c	8b c8		 mov	 ecx, eax
  0020e	81 e1 03 00 00
	80		 and	 ecx, -2147483645	; 80000003H
  00214	79 05		 jns	 SHORT $LN111@LoadInt_e
  00216	49		 dec	 ecx
  00217	83 c9 fc	 or	 ecx, -4			; fffffffcH
  0021a	41		 inc	 ecx
$LN111@LoadInt_e:
  0021b	b2 ed		 mov	 dl, -19			; ffffffedH
  0021d	2a d1		 sub	 dl, cl
  0021f	30 54 05 e4	 xor	 BYTE PTR __k$[ebp+eax], dl
  00223	40		 inc	 eax
  00224	83 f8 12	 cmp	 eax, 18			; 00000012H
  00227	7c e3		 jl	 SHORT $LL101@LoadInt_e

; 120  : 		return LoadInt(_k, i);

  00229	ff 75 0c	 push	 DWORD PTR _i$[ebp]
  0022c	8d 45 e4	 lea	 eax, DWORD PTR __k$[ebp]
  0022f	50		 push	 eax
  00230	8b ce		 mov	 ecx, esi
  00232	ff 15 00 00 00
	00		 call	 DWORD PTR __imp_?LoadInt@ioINILoader@@QAEHPBDH@Z

; 121  : 	}

  00238	8b 4d fc	 mov	 ecx, DWORD PTR __$ArrayPad$[ebp]
  0023b	33 cd		 xor	 ecx, ebp
  0023d	5e		 pop	 esi
  0023e	e8 00 00 00 00	 call	 @__security_check_cookie@4
  00243	c9		 leave
  00244	c2 08 00	 ret	 8
??$LoadInt_e@$0BD@@ioINILoader@@QAEHAAY0BD@$$CBDH@Z ENDP ; ioINILoader::LoadInt_e<19>
_TEXT	ENDS
PUBLIC	__$ArrayPad$
PUBLIC	??$LoadFloat_e@$0BD@@ioINILoader@@QAEMAAY0BD@$$CBDM@Z ; ioINILoader::LoadFloat_e<19>
EXTRN	__imp_?LoadFloat@ioINILoader@@QAEMPBDM@Z:PROC
; Function compile flags: /Ogsp
;	COMDAT ??$LoadFloat_e@$0BD@@ioINILoader@@QAEMAAY0BD@$$CBDM@Z
_TEXT	SEGMENT
__k$ = -28						; size = 19
__$ArrayPad$ = -4					; size = 4
_k$ = 8							; size = 4
_f$ = 12						; size = 4
??$LoadFloat_e@$0BD@@ioINILoader@@QAEMAAY0BD@$$CBDM@Z PROC ; ioINILoader::LoadFloat_e<19>, COMDAT
; _this$ = ecx

; 135  : 	{

  00000	55		 push	 ebp
  00001	8b ec		 mov	 ebp, esp
  00003	83 ec 1c	 sub	 esp, 28			; 0000001cH
  00006	a1 00 00 00 00	 mov	 eax, DWORD PTR ___security_cookie
  0000b	33 c5		 xor	 eax, ebp
  0000d	89 45 fc	 mov	 DWORD PTR __$ArrayPad$[ebp], eax
  00010	8b 45 08	 mov	 eax, DWORD PTR _k$[ebp]

; 136  : 		_ENCSTR(k, _k);

  00013	8a 10		 mov	 dl, BYTE PTR [eax]
  00015	56		 push	 esi
  00016	8b f1		 mov	 esi, ecx
  00018	84 d2		 test	 dl, dl
  0001a	0f 84 cf 01 00
	00		 je	 $LN96@LoadFloat_
  00020	80 f2 ed	 xor	 dl, -19			; ffffffedH
  00023	88 55 e4	 mov	 BYTE PTR __k$[ebp], dl
  00026	8a 50 01	 mov	 dl, BYTE PTR [eax+1]
  00029	84 d2		 test	 dl, dl
  0002b	0f 84 b8 01 00
	00		 je	 $LN95@LoadFloat_
  00031	b1 ec		 mov	 cl, -20			; ffffffecH
  00033	32 d1		 xor	 dl, cl
  00035	88 55 e5	 mov	 BYTE PTR __k$[ebp+1], dl
  00038	8a 50 02	 mov	 dl, BYTE PTR [eax+2]
  0003b	84 d2		 test	 dl, dl
  0003d	0f 84 a0 01 00
	00		 je	 $LN94@LoadFloat_
  00043	80 f2 eb	 xor	 dl, -21			; ffffffebH
  00046	88 55 e6	 mov	 BYTE PTR __k$[ebp+2], dl
  00049	8a 50 03	 mov	 dl, BYTE PTR [eax+3]
  0004c	84 d2		 test	 dl, dl
  0004e	0f 84 89 01 00
	00		 je	 $LN93@LoadFloat_
  00054	80 f2 ea	 xor	 dl, -22			; ffffffeaH
  00057	88 55 e7	 mov	 BYTE PTR __k$[ebp+3], dl
  0005a	8a 50 04	 mov	 dl, BYTE PTR [eax+4]
  0005d	84 d2		 test	 dl, dl
  0005f	0f 84 72 01 00
	00		 je	 $LN92@LoadFloat_
  00065	80 f2 ed	 xor	 dl, -19			; ffffffedH
  00068	88 55 e8	 mov	 BYTE PTR __k$[ebp+4], dl
  0006b	8a 50 05	 mov	 dl, BYTE PTR [eax+5]
  0006e	84 d2		 test	 dl, dl
  00070	0f 84 5c 01 00
	00		 je	 $LN91@LoadFloat_
  00076	32 d1		 xor	 dl, cl
  00078	88 55 e9	 mov	 BYTE PTR __k$[ebp+5], dl
  0007b	8a 50 06	 mov	 dl, BYTE PTR [eax+6]
  0007e	84 d2		 test	 dl, dl
  00080	0f 84 46 01 00
	00		 je	 $LN90@LoadFloat_
  00086	80 f2 eb	 xor	 dl, -21			; ffffffebH
  00089	88 55 ea	 mov	 BYTE PTR __k$[ebp+6], dl
  0008c	8a 50 07	 mov	 dl, BYTE PTR [eax+7]
  0008f	84 d2		 test	 dl, dl
  00091	0f 84 2f 01 00
	00		 je	 $LN89@LoadFloat_
  00097	80 f2 ea	 xor	 dl, -22			; ffffffeaH
  0009a	88 55 eb	 mov	 BYTE PTR __k$[ebp+7], dl
  0009d	8a 50 08	 mov	 dl, BYTE PTR [eax+8]
  000a0	84 d2		 test	 dl, dl
  000a2	0f 84 18 01 00
	00		 je	 $LN88@LoadFloat_
  000a8	80 f2 ed	 xor	 dl, -19			; ffffffedH
  000ab	88 55 ec	 mov	 BYTE PTR __k$[ebp+8], dl
  000ae	8a 50 09	 mov	 dl, BYTE PTR [eax+9]
  000b1	84 d2		 test	 dl, dl
  000b3	0f 84 02 01 00
	00		 je	 $LN87@LoadFloat_
  000b9	32 d1		 xor	 dl, cl
  000bb	88 55 ed	 mov	 BYTE PTR __k$[ebp+9], dl
  000be	8a 50 0a	 mov	 dl, BYTE PTR [eax+10]
  000c1	84 d2		 test	 dl, dl
  000c3	0f 84 ec 00 00
	00		 je	 $LN86@LoadFloat_
  000c9	80 f2 eb	 xor	 dl, -21			; ffffffebH
  000cc	88 55 ee	 mov	 BYTE PTR __k$[ebp+10], dl
  000cf	8a 50 0b	 mov	 dl, BYTE PTR [eax+11]
  000d2	84 d2		 test	 dl, dl
  000d4	0f 84 d5 00 00
	00		 je	 $LN85@LoadFloat_
  000da	80 f2 ea	 xor	 dl, -22			; ffffffeaH
  000dd	88 55 ef	 mov	 BYTE PTR __k$[ebp+11], dl
  000e0	8a 50 0c	 mov	 dl, BYTE PTR [eax+12]
  000e3	84 d2		 test	 dl, dl
  000e5	0f 84 be 00 00
	00		 je	 $LN84@LoadFloat_
  000eb	80 f2 ed	 xor	 dl, -19			; ffffffedH
  000ee	88 55 f0	 mov	 BYTE PTR __k$[ebp+12], dl
  000f1	8a 50 0d	 mov	 dl, BYTE PTR [eax+13]
  000f4	84 d2		 test	 dl, dl
  000f6	0f 84 a8 00 00
	00		 je	 $LN83@LoadFloat_
  000fc	32 d1		 xor	 dl, cl
  000fe	88 55 f1	 mov	 BYTE PTR __k$[ebp+13], dl
  00101	8a 50 0e	 mov	 dl, BYTE PTR [eax+14]
  00104	84 d2		 test	 dl, dl
  00106	0f 84 92 00 00
	00		 je	 $LN82@LoadFloat_
  0010c	80 f2 eb	 xor	 dl, -21			; ffffffebH
  0010f	88 55 f2	 mov	 BYTE PTR __k$[ebp+14], dl
  00112	8a 50 0f	 mov	 dl, BYTE PTR [eax+15]
  00115	84 d2		 test	 dl, dl
  00117	74 7f		 je	 SHORT $LN81@LoadFloat_
  00119	80 f2 ea	 xor	 dl, -22			; ffffffeaH
  0011c	88 55 f3	 mov	 BYTE PTR __k$[ebp+15], dl
  0011f	8a 50 10	 mov	 dl, BYTE PTR [eax+16]
  00122	84 d2		 test	 dl, dl
  00124	74 6c		 je	 SHORT $LN80@LoadFloat_
  00126	80 f2 ed	 xor	 dl, -19			; ffffffedH
  00129	88 55 f4	 mov	 BYTE PTR __k$[ebp+16], dl
  0012c	8a 50 11	 mov	 dl, BYTE PTR [eax+17]
  0012f	84 d2		 test	 dl, dl
  00131	74 5a		 je	 SHORT $LN79@LoadFloat_
  00133	32 d1		 xor	 dl, cl
  00135	80 78 12 00	 cmp	 BYTE PTR [eax+18], 0
  00139	88 55 f5	 mov	 BYTE PTR __k$[ebp+17], dl
  0013c	0f 84 b1 00 00
	00		 je	 $LN1@LoadFloat_
  00142	8a 50 13	 mov	 dl, BYTE PTR [eax+19]
  00145	84 d2		 test	 dl, dl
  00147	74 3e		 je	 SHORT $LN77@LoadFloat_
  00149	80 f2 ea	 xor	 dl, -22			; ffffffeaH
  0014c	88 55 f7	 mov	 BYTE PTR __k$[ebp+19], dl
  0014f	8a 50 14	 mov	 dl, BYTE PTR [eax+20]
  00152	84 d2		 test	 dl, dl
  00154	74 2b		 je	 SHORT $LN76@LoadFloat_
  00156	80 f2 ed	 xor	 dl, -19			; ffffffedH
  00159	88 55 f8	 mov	 BYTE PTR __k$[ebp+20], dl
  0015c	8a 50 15	 mov	 dl, BYTE PTR [eax+21]
  0015f	84 d2		 test	 dl, dl
  00161	74 19		 je	 SHORT $LN75@LoadFloat_
  00163	8a 40 16	 mov	 al, BYTE PTR [eax+22]
  00166	32 d1		 xor	 dl, cl
  00168	88 55 f9	 mov	 BYTE PTR __k$[ebp+21], dl
  0016b	84 c0		 test	 al, al
  0016d	74 07		 je	 SHORT $LN74@LoadFloat_
  0016f	34 eb		 xor	 al, -21			; ffffffebH
  00171	88 45 fa	 mov	 BYTE PTR __k$[ebp+22], al
  00174	eb 7d		 jmp	 SHORT $LN1@LoadFloat_
$LN74@LoadFloat_:
  00176	c6 45 fa eb	 mov	 BYTE PTR __k$[ebp+22], -21 ; ffffffebH
  0017a	eb 77		 jmp	 SHORT $LN1@LoadFloat_
$LN75@LoadFloat_:
  0017c	88 4d f9	 mov	 BYTE PTR __k$[ebp+21], cl
  0017f	eb 72		 jmp	 SHORT $LN1@LoadFloat_
$LN76@LoadFloat_:
  00181	c6 45 f8 ed	 mov	 BYTE PTR __k$[ebp+20], -19 ; ffffffedH
  00185	eb 6c		 jmp	 SHORT $LN1@LoadFloat_
$LN77@LoadFloat_:
  00187	c6 45 f7 ea	 mov	 BYTE PTR __k$[ebp+19], -22 ; ffffffeaH
  0018b	eb 66		 jmp	 SHORT $LN1@LoadFloat_
$LN79@LoadFloat_:
  0018d	88 4d f5	 mov	 BYTE PTR __k$[ebp+17], cl
  00190	eb 61		 jmp	 SHORT $LN1@LoadFloat_
$LN80@LoadFloat_:
  00192	c6 45 f4 ed	 mov	 BYTE PTR __k$[ebp+16], -19 ; ffffffedH
  00196	eb 5b		 jmp	 SHORT $LN1@LoadFloat_
$LN81@LoadFloat_:
  00198	c6 45 f3 ea	 mov	 BYTE PTR __k$[ebp+15], -22 ; ffffffeaH
  0019c	eb 55		 jmp	 SHORT $LN1@LoadFloat_
$LN82@LoadFloat_:
  0019e	c6 45 f2 eb	 mov	 BYTE PTR __k$[ebp+14], -21 ; ffffffebH
  001a2	eb 4f		 jmp	 SHORT $LN1@LoadFloat_
$LN83@LoadFloat_:
  001a4	88 4d f1	 mov	 BYTE PTR __k$[ebp+13], cl
  001a7	eb 4a		 jmp	 SHORT $LN1@LoadFloat_
$LN84@LoadFloat_:
  001a9	c6 45 f0 ed	 mov	 BYTE PTR __k$[ebp+12], -19 ; ffffffedH
  001ad	eb 44		 jmp	 SHORT $LN1@LoadFloat_
$LN85@LoadFloat_:
  001af	c6 45 ef ea	 mov	 BYTE PTR __k$[ebp+11], -22 ; ffffffeaH
  001b3	eb 3e		 jmp	 SHORT $LN1@LoadFloat_
$LN86@LoadFloat_:
  001b5	c6 45 ee eb	 mov	 BYTE PTR __k$[ebp+10], -21 ; ffffffebH
  001b9	eb 38		 jmp	 SHORT $LN1@LoadFloat_
$LN87@LoadFloat_:
  001bb	88 4d ed	 mov	 BYTE PTR __k$[ebp+9], cl
  001be	eb 33		 jmp	 SHORT $LN1@LoadFloat_
$LN88@LoadFloat_:
  001c0	c6 45 ec ed	 mov	 BYTE PTR __k$[ebp+8], -19 ; ffffffedH
  001c4	eb 2d		 jmp	 SHORT $LN1@LoadFloat_
$LN89@LoadFloat_:
  001c6	c6 45 eb ea	 mov	 BYTE PTR __k$[ebp+7], -22 ; ffffffeaH
  001ca	eb 27		 jmp	 SHORT $LN1@LoadFloat_
$LN90@LoadFloat_:
  001cc	c6 45 ea eb	 mov	 BYTE PTR __k$[ebp+6], -21 ; ffffffebH
  001d0	eb 21		 jmp	 SHORT $LN1@LoadFloat_
$LN91@LoadFloat_:
  001d2	88 4d e9	 mov	 BYTE PTR __k$[ebp+5], cl
  001d5	eb 1c		 jmp	 SHORT $LN1@LoadFloat_
$LN92@LoadFloat_:
  001d7	c6 45 e8 ed	 mov	 BYTE PTR __k$[ebp+4], -19 ; ffffffedH
  001db	eb 16		 jmp	 SHORT $LN1@LoadFloat_
$LN93@LoadFloat_:
  001dd	c6 45 e7 ea	 mov	 BYTE PTR __k$[ebp+3], -22 ; ffffffeaH
  001e1	eb 10		 jmp	 SHORT $LN1@LoadFloat_
$LN94@LoadFloat_:
  001e3	c6 45 e6 eb	 mov	 BYTE PTR __k$[ebp+2], -21 ; ffffffebH
  001e7	eb 0a		 jmp	 SHORT $LN1@LoadFloat_
$LN95@LoadFloat_:
  001e9	c6 45 e5 ec	 mov	 BYTE PTR __k$[ebp+1], -20 ; ffffffecH
  001ed	eb 04		 jmp	 SHORT $LN1@LoadFloat_
$LN96@LoadFloat_:
  001ef	c6 45 e4 ed	 mov	 BYTE PTR __k$[ebp], -19	; ffffffedH
$LN1@LoadFloat_:
  001f3	6a 04		 push	 4
  001f5	8d 45 e4	 lea	 eax, DWORD PTR __k$[ebp]
  001f8	c6 45 f6 00	 mov	 BYTE PTR __k$[ebp+18], 0
  001fc	5a		 pop	 edx
$LL104@LoadFloat_:
  001fd	81 30 ed ec eb
	ea		 xor	 DWORD PTR [eax], -353637139 ; eaebecedH
  00203	83 c0 04	 add	 eax, 4
  00206	4a		 dec	 edx
  00207	75 f4		 jne	 SHORT $LL104@LoadFloat_
  00209	6a 10		 push	 16			; 00000010H
  0020b	58		 pop	 eax
$LL101@LoadFloat_:
  0020c	8b c8		 mov	 ecx, eax
  0020e	81 e1 03 00 00
	80		 and	 ecx, -2147483645	; 80000003H
  00214	79 05		 jns	 SHORT $LN111@LoadFloat_
  00216	49		 dec	 ecx
  00217	83 c9 fc	 or	 ecx, -4			; fffffffcH
  0021a	41		 inc	 ecx
$LN111@LoadFloat_:
  0021b	b2 ed		 mov	 dl, -19			; ffffffedH
  0021d	2a d1		 sub	 dl, cl
  0021f	30 54 05 e4	 xor	 BYTE PTR __k$[ebp+eax], dl
  00223	40		 inc	 eax
  00224	83 f8 12	 cmp	 eax, 18			; 00000012H
  00227	7c e3		 jl	 SHORT $LL101@LoadFloat_

; 137  : 		return LoadFloat(_k, f);

  00229	f3 0f 10 45 0c	 movss	 xmm0, DWORD PTR _f$[ebp]
  0022e	51		 push	 ecx
  0022f	8d 45 e4	 lea	 eax, DWORD PTR __k$[ebp]
  00232	f3 0f 11 04 24	 movss	 DWORD PTR [esp], xmm0
  00237	50		 push	 eax
  00238	8b ce		 mov	 ecx, esi
  0023a	ff 15 00 00 00
	00		 call	 DWORD PTR __imp_?LoadFloat@ioINILoader@@QAEMPBDM@Z

; 138  : 	}

  00240	8b 4d fc	 mov	 ecx, DWORD PTR __$ArrayPad$[ebp]
  00243	33 cd		 xor	 ecx, ebp
  00245	5e		 pop	 esi
  00246	e8 00 00 00 00	 call	 @__security_check_cookie@4
  0024b	c9		 leave
  0024c	c2 08 00	 ret	 8
??$LoadFloat_e@$0BD@@ioINILoader@@QAEMAAY0BD@$$CBDM@Z ENDP ; ioINILoader::LoadFloat_e<19>
_TEXT	ENDS
PUBLIC	__$ArrayPad$
PUBLIC	??$LoadFloat_e@$0BI@@ioINILoader@@QAEMAAY0BI@$$CBDM@Z ; ioINILoader::LoadFloat_e<24>
; Function compile flags: /Ogsp
;	COMDAT ??$LoadFloat_e@$0BI@@ioINILoader@@QAEMAAY0BI@$$CBDM@Z
_TEXT	SEGMENT
__k$ = -32						; size = 24
__$ArrayPad$ = -4					; size = 4
_k$ = 8							; size = 4
_f$ = 12						; size = 4
??$LoadFloat_e@$0BI@@ioINILoader@@QAEMAAY0BI@$$CBDM@Z PROC ; ioINILoader::LoadFloat_e<24>, COMDAT
; _this$ = ecx

; 135  : 	{

  00000	55		 push	 ebp
  00001	8b ec		 mov	 ebp, esp
  00003	83 ec 20	 sub	 esp, 32			; 00000020H
  00006	a1 00 00 00 00	 mov	 eax, DWORD PTR ___security_cookie
  0000b	33 c5		 xor	 eax, ebp
  0000d	89 45 fc	 mov	 DWORD PTR __$ArrayPad$[ebp], eax
  00010	8b 45 08	 mov	 eax, DWORD PTR _k$[ebp]

; 136  : 		_ENCSTR(k, _k);

  00013	8a 10		 mov	 dl, BYTE PTR [eax]
  00015	53		 push	 ebx
  00016	56		 push	 esi
  00017	8b f1		 mov	 esi, ecx
  00019	84 d2		 test	 dl, dl
  0001b	0f 84 45 02 00
	00		 je	 $LN96@LoadFloat_@2
  00021	80 f2 ed	 xor	 dl, -19			; ffffffedH
  00024	88 55 e0	 mov	 BYTE PTR __k$[ebp], dl
  00027	8a 50 01	 mov	 dl, BYTE PTR [eax+1]
  0002a	84 d2		 test	 dl, dl
  0002c	0f 84 2e 02 00
	00		 je	 $LN95@LoadFloat_@2
  00032	b3 ec		 mov	 bl, -20			; ffffffecH
  00034	32 d3		 xor	 dl, bl
  00036	88 55 e1	 mov	 BYTE PTR __k$[ebp+1], dl
  00039	8a 50 02	 mov	 dl, BYTE PTR [eax+2]
  0003c	84 d2		 test	 dl, dl
  0003e	0f 84 16 02 00
	00		 je	 $LN94@LoadFloat_@2
  00044	b1 eb		 mov	 cl, -21			; ffffffebH
  00046	32 d1		 xor	 dl, cl
  00048	88 55 e2	 mov	 BYTE PTR __k$[ebp+2], dl
  0004b	8a 50 03	 mov	 dl, BYTE PTR [eax+3]
  0004e	84 d2		 test	 dl, dl
  00050	0f 84 fe 01 00
	00		 je	 $LN93@LoadFloat_@2
  00056	80 f2 ea	 xor	 dl, -22			; ffffffeaH
  00059	88 55 e3	 mov	 BYTE PTR __k$[ebp+3], dl
  0005c	8a 50 04	 mov	 dl, BYTE PTR [eax+4]
  0005f	84 d2		 test	 dl, dl
  00061	0f 84 e7 01 00
	00		 je	 $LN92@LoadFloat_@2
  00067	80 f2 ed	 xor	 dl, -19			; ffffffedH
  0006a	88 55 e4	 mov	 BYTE PTR __k$[ebp+4], dl
  0006d	8a 50 05	 mov	 dl, BYTE PTR [eax+5]
  00070	84 d2		 test	 dl, dl
  00072	0f 84 d1 01 00
	00		 je	 $LN91@LoadFloat_@2
  00078	32 d3		 xor	 dl, bl
  0007a	88 55 e5	 mov	 BYTE PTR __k$[ebp+5], dl
  0007d	8a 50 06	 mov	 dl, BYTE PTR [eax+6]
  00080	84 d2		 test	 dl, dl
  00082	0f 84 bc 01 00
	00		 je	 $LN90@LoadFloat_@2
  00088	32 d1		 xor	 dl, cl
  0008a	88 55 e6	 mov	 BYTE PTR __k$[ebp+6], dl
  0008d	8a 50 07	 mov	 dl, BYTE PTR [eax+7]
  00090	84 d2		 test	 dl, dl
  00092	0f 84 a6 01 00
	00		 je	 $LN89@LoadFloat_@2
  00098	80 f2 ea	 xor	 dl, -22			; ffffffeaH
  0009b	88 55 e7	 mov	 BYTE PTR __k$[ebp+7], dl
  0009e	8a 50 08	 mov	 dl, BYTE PTR [eax+8]
  000a1	84 d2		 test	 dl, dl
  000a3	0f 84 8f 01 00
	00		 je	 $LN88@LoadFloat_@2
  000a9	80 f2 ed	 xor	 dl, -19			; ffffffedH
  000ac	88 55 e8	 mov	 BYTE PTR __k$[ebp+8], dl
  000af	8a 50 09	 mov	 dl, BYTE PTR [eax+9]
  000b2	84 d2		 test	 dl, dl
  000b4	0f 84 79 01 00
	00		 je	 $LN87@LoadFloat_@2
  000ba	32 d3		 xor	 dl, bl
  000bc	88 55 e9	 mov	 BYTE PTR __k$[ebp+9], dl
  000bf	8a 50 0a	 mov	 dl, BYTE PTR [eax+10]
  000c2	84 d2		 test	 dl, dl
  000c4	0f 84 64 01 00
	00		 je	 $LN86@LoadFloat_@2
  000ca	32 d1		 xor	 dl, cl
  000cc	88 55 ea	 mov	 BYTE PTR __k$[ebp+10], dl
  000cf	8a 50 0b	 mov	 dl, BYTE PTR [eax+11]
  000d2	84 d2		 test	 dl, dl
  000d4	0f 84 4e 01 00
	00		 je	 $LN85@LoadFloat_@2
  000da	80 f2 ea	 xor	 dl, -22			; ffffffeaH
  000dd	88 55 eb	 mov	 BYTE PTR __k$[ebp+11], dl
  000e0	8a 50 0c	 mov	 dl, BYTE PTR [eax+12]
  000e3	84 d2		 test	 dl, dl
  000e5	0f 84 37 01 00
	00		 je	 $LN84@LoadFloat_@2
  000eb	80 f2 ed	 xor	 dl, -19			; ffffffedH
  000ee	88 55 ec	 mov	 BYTE PTR __k$[ebp+12], dl
  000f1	8a 50 0d	 mov	 dl, BYTE PTR [eax+13]
  000f4	84 d2		 test	 dl, dl
  000f6	0f 84 21 01 00
	00		 je	 $LN83@LoadFloat_@2
  000fc	32 d3		 xor	 dl, bl
  000fe	88 55 ed	 mov	 BYTE PTR __k$[ebp+13], dl
  00101	8a 50 0e	 mov	 dl, BYTE PTR [eax+14]
  00104	84 d2		 test	 dl, dl
  00106	0f 84 0c 01 00
	00		 je	 $LN82@LoadFloat_@2
  0010c	32 d1		 xor	 dl, cl
  0010e	88 55 ee	 mov	 BYTE PTR __k$[ebp+14], dl
  00111	8a 50 0f	 mov	 dl, BYTE PTR [eax+15]
  00114	84 d2		 test	 dl, dl
  00116	0f 84 f6 00 00
	00		 je	 $LN81@LoadFloat_@2
  0011c	80 f2 ea	 xor	 dl, -22			; ffffffeaH
  0011f	88 55 ef	 mov	 BYTE PTR __k$[ebp+15], dl
  00122	8a 50 10	 mov	 dl, BYTE PTR [eax+16]
  00125	84 d2		 test	 dl, dl
  00127	0f 84 df 00 00
	00		 je	 $LN80@LoadFloat_@2
  0012d	80 f2 ed	 xor	 dl, -19			; ffffffedH
  00130	88 55 f0	 mov	 BYTE PTR __k$[ebp+16], dl
  00133	8a 50 11	 mov	 dl, BYTE PTR [eax+17]
  00136	84 d2		 test	 dl, dl
  00138	0f 84 c9 00 00
	00		 je	 $LN79@LoadFloat_@2
  0013e	32 d3		 xor	 dl, bl
  00140	88 55 f1	 mov	 BYTE PTR __k$[ebp+17], dl
  00143	8a 50 12	 mov	 dl, BYTE PTR [eax+18]
  00146	84 d2		 test	 dl, dl
  00148	0f 84 b4 00 00
	00		 je	 $LN78@LoadFloat_@2
  0014e	32 d1		 xor	 dl, cl
  00150	88 55 f2	 mov	 BYTE PTR __k$[ebp+18], dl
  00153	8a 50 13	 mov	 dl, BYTE PTR [eax+19]
  00156	84 d2		 test	 dl, dl
  00158	0f 84 9e 00 00
	00		 je	 $LN77@LoadFloat_@2
  0015e	80 f2 ea	 xor	 dl, -22			; ffffffeaH
  00161	88 55 f3	 mov	 BYTE PTR __k$[ebp+19], dl
  00164	8a 50 14	 mov	 dl, BYTE PTR [eax+20]
  00167	84 d2		 test	 dl, dl
  00169	0f 84 87 00 00
	00		 je	 $LN76@LoadFloat_@2
  0016f	80 f2 ed	 xor	 dl, -19			; ffffffedH
  00172	88 55 f4	 mov	 BYTE PTR __k$[ebp+20], dl
  00175	8a 50 15	 mov	 dl, BYTE PTR [eax+21]
  00178	84 d2		 test	 dl, dl
  0017a	74 75		 je	 SHORT $LN75@LoadFloat_@2
  0017c	32 d3		 xor	 dl, bl
  0017e	88 55 f5	 mov	 BYTE PTR __k$[ebp+21], dl
  00181	8a 50 16	 mov	 dl, BYTE PTR [eax+22]
  00184	84 d2		 test	 dl, dl
  00186	74 64		 je	 SHORT $LN74@LoadFloat_@2
  00188	32 d1		 xor	 dl, cl
  0018a	80 78 17 00	 cmp	 BYTE PTR [eax+23], 0
  0018e	88 55 f6	 mov	 BYTE PTR __k$[ebp+22], dl
  00191	0f 84 d3 00 00
	00		 je	 $LN1@LoadFloat_@2
  00197	8a 50 18	 mov	 dl, BYTE PTR [eax+24]
  0019a	84 d2		 test	 dl, dl
  0019c	74 48		 je	 SHORT $LN72@LoadFloat_@2
  0019e	80 f2 ed	 xor	 dl, -19			; ffffffedH
  001a1	88 55 f8	 mov	 BYTE PTR __k$[ebp+24], dl
  001a4	8a 50 19	 mov	 dl, BYTE PTR [eax+25]
  001a7	84 d2		 test	 dl, dl
  001a9	74 33		 je	 SHORT $LN71@LoadFloat_@2
  001ab	32 d3		 xor	 dl, bl
  001ad	88 55 f9	 mov	 BYTE PTR __k$[ebp+25], dl
  001b0	8a 50 1a	 mov	 dl, BYTE PTR [eax+26]
  001b3	84 d2		 test	 dl, dl
  001b5	74 1f		 je	 SHORT $LN70@LoadFloat_@2
  001b7	8a 40 1b	 mov	 al, BYTE PTR [eax+27]
  001ba	32 d1		 xor	 dl, cl
  001bc	88 55 fa	 mov	 BYTE PTR __k$[ebp+26], dl
  001bf	84 c0		 test	 al, al
  001c1	74 0a		 je	 SHORT $LN69@LoadFloat_@2
  001c3	34 ea		 xor	 al, -22			; ffffffeaH
  001c5	88 45 fb	 mov	 BYTE PTR __k$[ebp+27], al
  001c8	e9 9d 00 00 00	 jmp	 $LN1@LoadFloat_@2
$LN69@LoadFloat_@2:
  001cd	c6 45 fb ea	 mov	 BYTE PTR __k$[ebp+27], -22 ; ffffffeaH
  001d1	e9 94 00 00 00	 jmp	 $LN1@LoadFloat_@2
$LN70@LoadFloat_@2:
  001d6	88 4d fa	 mov	 BYTE PTR __k$[ebp+26], cl
  001d9	e9 8c 00 00 00	 jmp	 $LN1@LoadFloat_@2
$LN71@LoadFloat_@2:
  001de	88 5d f9	 mov	 BYTE PTR __k$[ebp+25], bl
  001e1	e9 84 00 00 00	 jmp	 $LN1@LoadFloat_@2
$LN72@LoadFloat_@2:
  001e6	c6 45 f8 ed	 mov	 BYTE PTR __k$[ebp+24], -19 ; ffffffedH
  001ea	eb 7e		 jmp	 SHORT $LN1@LoadFloat_@2
$LN74@LoadFloat_@2:
  001ec	88 4d f6	 mov	 BYTE PTR __k$[ebp+22], cl
  001ef	eb 79		 jmp	 SHORT $LN1@LoadFloat_@2
$LN75@LoadFloat_@2:
  001f1	88 5d f5	 mov	 BYTE PTR __k$[ebp+21], bl
  001f4	eb 74		 jmp	 SHORT $LN1@LoadFloat_@2
$LN76@LoadFloat_@2:
  001f6	c6 45 f4 ed	 mov	 BYTE PTR __k$[ebp+20], -19 ; ffffffedH
  001fa	eb 6e		 jmp	 SHORT $LN1@LoadFloat_@2
$LN77@LoadFloat_@2:
  001fc	c6 45 f3 ea	 mov	 BYTE PTR __k$[ebp+19], -22 ; ffffffeaH
  00200	eb 68		 jmp	 SHORT $LN1@LoadFloat_@2
$LN78@LoadFloat_@2:
  00202	88 4d f2	 mov	 BYTE PTR __k$[ebp+18], cl
  00205	eb 63		 jmp	 SHORT $LN1@LoadFloat_@2
$LN79@LoadFloat_@2:
  00207	88 5d f1	 mov	 BYTE PTR __k$[ebp+17], bl
  0020a	eb 5e		 jmp	 SHORT $LN1@LoadFloat_@2
$LN80@LoadFloat_@2:
  0020c	c6 45 f0 ed	 mov	 BYTE PTR __k$[ebp+16], -19 ; ffffffedH
  00210	eb 58		 jmp	 SHORT $LN1@LoadFloat_@2
$LN81@LoadFloat_@2:
  00212	c6 45 ef ea	 mov	 BYTE PTR __k$[ebp+15], -22 ; ffffffeaH
  00216	eb 52		 jmp	 SHORT $LN1@LoadFloat_@2
$LN82@LoadFloat_@2:
  00218	88 4d ee	 mov	 BYTE PTR __k$[ebp+14], cl
  0021b	eb 4d		 jmp	 SHORT $LN1@LoadFloat_@2
$LN83@LoadFloat_@2:
  0021d	88 5d ed	 mov	 BYTE PTR __k$[ebp+13], bl
  00220	eb 48		 jmp	 SHORT $LN1@LoadFloat_@2
$LN84@LoadFloat_@2:
  00222	c6 45 ec ed	 mov	 BYTE PTR __k$[ebp+12], -19 ; ffffffedH
  00226	eb 42		 jmp	 SHORT $LN1@LoadFloat_@2
$LN85@LoadFloat_@2:
  00228	c6 45 eb ea	 mov	 BYTE PTR __k$[ebp+11], -22 ; ffffffeaH
  0022c	eb 3c		 jmp	 SHORT $LN1@LoadFloat_@2
$LN86@LoadFloat_@2:
  0022e	88 4d ea	 mov	 BYTE PTR __k$[ebp+10], cl
  00231	eb 37		 jmp	 SHORT $LN1@LoadFloat_@2
$LN87@LoadFloat_@2:
  00233	88 5d e9	 mov	 BYTE PTR __k$[ebp+9], bl
  00236	eb 32		 jmp	 SHORT $LN1@LoadFloat_@2
$LN88@LoadFloat_@2:
  00238	c6 45 e8 ed	 mov	 BYTE PTR __k$[ebp+8], -19 ; ffffffedH
  0023c	eb 2c		 jmp	 SHORT $LN1@LoadFloat_@2
$LN89@LoadFloat_@2:
  0023e	c6 45 e7 ea	 mov	 BYTE PTR __k$[ebp+7], -22 ; ffffffeaH
  00242	eb 26		 jmp	 SHORT $LN1@LoadFloat_@2
$LN90@LoadFloat_@2:
  00244	88 4d e6	 mov	 BYTE PTR __k$[ebp+6], cl
  00247	eb 21		 jmp	 SHORT $LN1@LoadFloat_@2
$LN91@LoadFloat_@2:
  00249	88 5d e5	 mov	 BYTE PTR __k$[ebp+5], bl
  0024c	eb 1c		 jmp	 SHORT $LN1@LoadFloat_@2
$LN92@LoadFloat_@2:
  0024e	c6 45 e4 ed	 mov	 BYTE PTR __k$[ebp+4], -19 ; ffffffedH
  00252	eb 16		 jmp	 SHORT $LN1@LoadFloat_@2
$LN93@LoadFloat_@2:
  00254	c6 45 e3 ea	 mov	 BYTE PTR __k$[ebp+3], -22 ; ffffffeaH
  00258	eb 10		 jmp	 SHORT $LN1@LoadFloat_@2
$LN94@LoadFloat_@2:
  0025a	c6 45 e2 eb	 mov	 BYTE PTR __k$[ebp+2], -21 ; ffffffebH
  0025e	eb 0a		 jmp	 SHORT $LN1@LoadFloat_@2
$LN95@LoadFloat_@2:
  00260	c6 45 e1 ec	 mov	 BYTE PTR __k$[ebp+1], -20 ; ffffffecH
  00264	eb 04		 jmp	 SHORT $LN1@LoadFloat_@2
$LN96@LoadFloat_@2:
  00266	c6 45 e0 ed	 mov	 BYTE PTR __k$[ebp], -19	; ffffffedH
$LN1@LoadFloat_@2:
  0026a	6a 05		 push	 5
  0026c	8d 45 e0	 lea	 eax, DWORD PTR __k$[ebp]
  0026f	c6 45 f7 00	 mov	 BYTE PTR __k$[ebp+23], 0
  00273	5a		 pop	 edx
$LL104@LoadFloat_@2:
  00274	81 30 ed ec eb
	ea		 xor	 DWORD PTR [eax], -353637139 ; eaebecedH
  0027a	83 c0 04	 add	 eax, 4
  0027d	4a		 dec	 edx
  0027e	75 f4		 jne	 SHORT $LL104@LoadFloat_@2
  00280	6a 14		 push	 20			; 00000014H
  00282	58		 pop	 eax
$LL101@LoadFloat_@2:
  00283	8b c8		 mov	 ecx, eax
  00285	81 e1 03 00 00
	80		 and	 ecx, -2147483645	; 80000003H
  0028b	79 05		 jns	 SHORT $LN111@LoadFloat_@2
  0028d	49		 dec	 ecx
  0028e	83 c9 fc	 or	 ecx, -4			; fffffffcH
  00291	41		 inc	 ecx
$LN111@LoadFloat_@2:
  00292	b2 ed		 mov	 dl, -19			; ffffffedH
  00294	2a d1		 sub	 dl, cl
  00296	30 54 05 e0	 xor	 BYTE PTR __k$[ebp+eax], dl
  0029a	40		 inc	 eax
  0029b	83 f8 17	 cmp	 eax, 23			; 00000017H
  0029e	7c e3		 jl	 SHORT $LL101@LoadFloat_@2

; 137  : 		return LoadFloat(_k, f);

  002a0	f3 0f 10 45 0c	 movss	 xmm0, DWORD PTR _f$[ebp]
  002a5	51		 push	 ecx
  002a6	8d 45 e0	 lea	 eax, DWORD PTR __k$[ebp]
  002a9	f3 0f 11 04 24	 movss	 DWORD PTR [esp], xmm0
  002ae	50		 push	 eax
  002af	8b ce		 mov	 ecx, esi
  002b1	ff 15 00 00 00
	00		 call	 DWORD PTR __imp_?LoadFloat@ioINILoader@@QAEMPBDM@Z

; 138  : 	}

  002b7	8b 4d fc	 mov	 ecx, DWORD PTR __$ArrayPad$[ebp]
  002ba	5e		 pop	 esi
  002bb	33 cd		 xor	 ecx, ebp
  002bd	5b		 pop	 ebx
  002be	e8 00 00 00 00	 call	 @__security_check_cookie@4
  002c3	c9		 leave
  002c4	c2 08 00	 ret	 8
??$LoadFloat_e@$0BI@@ioINILoader@@QAEMAAY0BI@$$CBDM@Z ENDP ; ioINILoader::LoadFloat_e<24>
_TEXT	ENDS
PUBLIC	__$ArrayPad$
PUBLIC	??$LoadFloat_e@$0BE@@ioINILoader@@QAEMAAY0BE@$$CBDM@Z ; ioINILoader::LoadFloat_e<20>
; Function compile flags: /Ogsp
;	COMDAT ??$LoadFloat_e@$0BE@@ioINILoader@@QAEMAAY0BE@$$CBDM@Z
_TEXT	SEGMENT
__k$ = -28						; size = 20
__$ArrayPad$ = -4					; size = 4
_k$ = 8							; size = 4
_f$ = 12						; size = 4
??$LoadFloat_e@$0BE@@ioINILoader@@QAEMAAY0BE@$$CBDM@Z PROC ; ioINILoader::LoadFloat_e<20>, COMDAT
; _this$ = ecx

; 135  : 	{

  00000	55		 push	 ebp
  00001	8b ec		 mov	 ebp, esp
  00003	83 ec 1c	 sub	 esp, 28			; 0000001cH
  00006	a1 00 00 00 00	 mov	 eax, DWORD PTR ___security_cookie
  0000b	33 c5		 xor	 eax, ebp
  0000d	89 45 fc	 mov	 DWORD PTR __$ArrayPad$[ebp], eax
  00010	8b 45 08	 mov	 eax, DWORD PTR _k$[ebp]

; 136  : 		_ENCSTR(k, _k);

  00013	8a 10		 mov	 dl, BYTE PTR [eax]
  00015	53		 push	 ebx
  00016	56		 push	 esi
  00017	8b f1		 mov	 esi, ecx
  00019	84 d2		 test	 dl, dl
  0001b	0f 84 dd 01 00
	00		 je	 $LN96@LoadFloat_@3
  00021	80 f2 ed	 xor	 dl, -19			; ffffffedH
  00024	88 55 e4	 mov	 BYTE PTR __k$[ebp], dl
  00027	8a 50 01	 mov	 dl, BYTE PTR [eax+1]
  0002a	84 d2		 test	 dl, dl
  0002c	0f 84 c6 01 00
	00		 je	 $LN95@LoadFloat_@3
  00032	b3 ec		 mov	 bl, -20			; ffffffecH
  00034	32 d3		 xor	 dl, bl
  00036	88 55 e5	 mov	 BYTE PTR __k$[ebp+1], dl
  00039	8a 50 02	 mov	 dl, BYTE PTR [eax+2]
  0003c	84 d2		 test	 dl, dl
  0003e	0f 84 ae 01 00
	00		 je	 $LN94@LoadFloat_@3
  00044	b1 eb		 mov	 cl, -21			; ffffffebH
  00046	32 d1		 xor	 dl, cl
  00048	88 55 e6	 mov	 BYTE PTR __k$[ebp+2], dl
  0004b	8a 50 03	 mov	 dl, BYTE PTR [eax+3]
  0004e	84 d2		 test	 dl, dl
  00050	0f 84 96 01 00
	00		 je	 $LN93@LoadFloat_@3
  00056	80 f2 ea	 xor	 dl, -22			; ffffffeaH
  00059	88 55 e7	 mov	 BYTE PTR __k$[ebp+3], dl
  0005c	8a 50 04	 mov	 dl, BYTE PTR [eax+4]
  0005f	84 d2		 test	 dl, dl
  00061	0f 84 7f 01 00
	00		 je	 $LN92@LoadFloat_@3
  00067	80 f2 ed	 xor	 dl, -19			; ffffffedH
  0006a	88 55 e8	 mov	 BYTE PTR __k$[ebp+4], dl
  0006d	8a 50 05	 mov	 dl, BYTE PTR [eax+5]
  00070	84 d2		 test	 dl, dl
  00072	0f 84 69 01 00
	00		 je	 $LN91@LoadFloat_@3
  00078	32 d3		 xor	 dl, bl
  0007a	88 55 e9	 mov	 BYTE PTR __k$[ebp+5], dl
  0007d	8a 50 06	 mov	 dl, BYTE PTR [eax+6]
  00080	84 d2		 test	 dl, dl
  00082	0f 84 54 01 00
	00		 je	 $LN90@LoadFloat_@3
  00088	32 d1		 xor	 dl, cl
  0008a	88 55 ea	 mov	 BYTE PTR __k$[ebp+6], dl
  0008d	8a 50 07	 mov	 dl, BYTE PTR [eax+7]
  00090	84 d2		 test	 dl, dl
  00092	0f 84 3e 01 00
	00		 je	 $LN89@LoadFloat_@3
  00098	80 f2 ea	 xor	 dl, -22			; ffffffeaH
  0009b	88 55 eb	 mov	 BYTE PTR __k$[ebp+7], dl
  0009e	8a 50 08	 mov	 dl, BYTE PTR [eax+8]
  000a1	84 d2		 test	 dl, dl
  000a3	0f 84 27 01 00
	00		 je	 $LN88@LoadFloat_@3
  000a9	80 f2 ed	 xor	 dl, -19			; ffffffedH
  000ac	88 55 ec	 mov	 BYTE PTR __k$[ebp+8], dl
  000af	8a 50 09	 mov	 dl, BYTE PTR [eax+9]
  000b2	84 d2		 test	 dl, dl
  000b4	0f 84 11 01 00
	00		 je	 $LN87@LoadFloat_@3
  000ba	32 d3		 xor	 dl, bl
  000bc	88 55 ed	 mov	 BYTE PTR __k$[ebp+9], dl
  000bf	8a 50 0a	 mov	 dl, BYTE PTR [eax+10]
  000c2	84 d2		 test	 dl, dl
  000c4	0f 84 fc 00 00
	00		 je	 $LN86@LoadFloat_@3
  000ca	32 d1		 xor	 dl, cl
  000cc	88 55 ee	 mov	 BYTE PTR __k$[ebp+10], dl
  000cf	8a 50 0b	 mov	 dl, BYTE PTR [eax+11]
  000d2	84 d2		 test	 dl, dl
  000d4	0f 84 e6 00 00
	00		 je	 $LN85@LoadFloat_@3
  000da	80 f2 ea	 xor	 dl, -22			; ffffffeaH
  000dd	88 55 ef	 mov	 BYTE PTR __k$[ebp+11], dl
  000e0	8a 50 0c	 mov	 dl, BYTE PTR [eax+12]
  000e3	84 d2		 test	 dl, dl
  000e5	0f 84 cf 00 00
	00		 je	 $LN84@LoadFloat_@3
  000eb	80 f2 ed	 xor	 dl, -19			; ffffffedH
  000ee	88 55 f0	 mov	 BYTE PTR __k$[ebp+12], dl
  000f1	8a 50 0d	 mov	 dl, BYTE PTR [eax+13]
  000f4	84 d2		 test	 dl, dl
  000f6	0f 84 b9 00 00
	00		 je	 $LN83@LoadFloat_@3
  000fc	32 d3		 xor	 dl, bl
  000fe	88 55 f1	 mov	 BYTE PTR __k$[ebp+13], dl
  00101	8a 50 0e	 mov	 dl, BYTE PTR [eax+14]
  00104	84 d2		 test	 dl, dl
  00106	0f 84 a4 00 00
	00		 je	 $LN82@LoadFloat_@3
  0010c	32 d1		 xor	 dl, cl
  0010e	88 55 f2	 mov	 BYTE PTR __k$[ebp+14], dl
  00111	8a 50 0f	 mov	 dl, BYTE PTR [eax+15]
  00114	84 d2		 test	 dl, dl
  00116	0f 84 8e 00 00
	00		 je	 $LN81@LoadFloat_@3
  0011c	80 f2 ea	 xor	 dl, -22			; ffffffeaH
  0011f	88 55 f3	 mov	 BYTE PTR __k$[ebp+15], dl
  00122	8a 50 10	 mov	 dl, BYTE PTR [eax+16]
  00125	84 d2		 test	 dl, dl
  00127	74 7b		 je	 SHORT $LN80@LoadFloat_@3
  00129	80 f2 ed	 xor	 dl, -19			; ffffffedH
  0012c	88 55 f4	 mov	 BYTE PTR __k$[ebp+16], dl
  0012f	8a 50 11	 mov	 dl, BYTE PTR [eax+17]
  00132	84 d2		 test	 dl, dl
  00134	74 69		 je	 SHORT $LN79@LoadFloat_@3
  00136	32 d3		 xor	 dl, bl
  00138	88 55 f5	 mov	 BYTE PTR __k$[ebp+17], dl
  0013b	8a 50 12	 mov	 dl, BYTE PTR [eax+18]
  0013e	84 d2		 test	 dl, dl
  00140	74 58		 je	 SHORT $LN78@LoadFloat_@3
  00142	32 d1		 xor	 dl, cl
  00144	80 78 13 00	 cmp	 BYTE PTR [eax+19], 0
  00148	88 55 f6	 mov	 BYTE PTR __k$[ebp+18], dl
  0014b	0f 84 b1 00 00
	00		 je	 $LN1@LoadFloat_@3
  00151	8a 50 14	 mov	 dl, BYTE PTR [eax+20]
  00154	84 d2		 test	 dl, dl
  00156	74 3c		 je	 SHORT $LN76@LoadFloat_@3
  00158	80 f2 ed	 xor	 dl, -19			; ffffffedH
  0015b	88 55 f8	 mov	 BYTE PTR __k$[ebp+20], dl
  0015e	8a 50 15	 mov	 dl, BYTE PTR [eax+21]
  00161	84 d2		 test	 dl, dl
  00163	74 2a		 je	 SHORT $LN75@LoadFloat_@3
  00165	32 d3		 xor	 dl, bl
  00167	88 55 f9	 mov	 BYTE PTR __k$[ebp+21], dl
  0016a	8a 50 16	 mov	 dl, BYTE PTR [eax+22]
  0016d	84 d2		 test	 dl, dl
  0016f	74 19		 je	 SHORT $LN74@LoadFloat_@3
  00171	8a 40 17	 mov	 al, BYTE PTR [eax+23]
  00174	32 d1		 xor	 dl, cl
  00176	88 55 fa	 mov	 BYTE PTR __k$[ebp+22], dl
  00179	84 c0		 test	 al, al
  0017b	74 07		 je	 SHORT $LN73@LoadFloat_@3
  0017d	34 ea		 xor	 al, -22			; ffffffeaH
  0017f	88 45 fb	 mov	 BYTE PTR __k$[ebp+23], al
  00182	eb 7e		 jmp	 SHORT $LN1@LoadFloat_@3
$LN73@LoadFloat_@3:
  00184	c6 45 fb ea	 mov	 BYTE PTR __k$[ebp+23], -22 ; ffffffeaH
  00188	eb 78		 jmp	 SHORT $LN1@LoadFloat_@3
$LN74@LoadFloat_@3:
  0018a	88 4d fa	 mov	 BYTE PTR __k$[ebp+22], cl
  0018d	eb 73		 jmp	 SHORT $LN1@LoadFloat_@3
$LN75@LoadFloat_@3:
  0018f	88 5d f9	 mov	 BYTE PTR __k$[ebp+21], bl
  00192	eb 6e		 jmp	 SHORT $LN1@LoadFloat_@3
$LN76@LoadFloat_@3:
  00194	c6 45 f8 ed	 mov	 BYTE PTR __k$[ebp+20], -19 ; ffffffedH
  00198	eb 68		 jmp	 SHORT $LN1@LoadFloat_@3
$LN78@LoadFloat_@3:
  0019a	88 4d f6	 mov	 BYTE PTR __k$[ebp+18], cl
  0019d	eb 63		 jmp	 SHORT $LN1@LoadFloat_@3
$LN79@LoadFloat_@3:
  0019f	88 5d f5	 mov	 BYTE PTR __k$[ebp+17], bl
  001a2	eb 5e		 jmp	 SHORT $LN1@LoadFloat_@3
$LN80@LoadFloat_@3:
  001a4	c6 45 f4 ed	 mov	 BYTE PTR __k$[ebp+16], -19 ; ffffffedH
  001a8	eb 58		 jmp	 SHORT $LN1@LoadFloat_@3
$LN81@LoadFloat_@3:
  001aa	c6 45 f3 ea	 mov	 BYTE PTR __k$[ebp+15], -22 ; ffffffeaH
  001ae	eb 52		 jmp	 SHORT $LN1@LoadFloat_@3
$LN82@LoadFloat_@3:
  001b0	88 4d f2	 mov	 BYTE PTR __k$[ebp+14], cl
  001b3	eb 4d		 jmp	 SHORT $LN1@LoadFloat_@3
$LN83@LoadFloat_@3:
  001b5	88 5d f1	 mov	 BYTE PTR __k$[ebp+13], bl
  001b8	eb 48		 jmp	 SHORT $LN1@LoadFloat_@3
$LN84@LoadFloat_@3:
  001ba	c6 45 f0 ed	 mov	 BYTE PTR __k$[ebp+12], -19 ; ffffffedH
  001be	eb 42		 jmp	 SHORT $LN1@LoadFloat_@3
$LN85@LoadFloat_@3:
  001c0	c6 45 ef ea	 mov	 BYTE PTR __k$[ebp+11], -22 ; ffffffeaH
  001c4	eb 3c		 jmp	 SHORT $LN1@LoadFloat_@3
$LN86@LoadFloat_@3:
  001c6	88 4d ee	 mov	 BYTE PTR __k$[ebp+10], cl
  001c9	eb 37		 jmp	 SHORT $LN1@LoadFloat_@3
$LN87@LoadFloat_@3:
  001cb	88 5d ed	 mov	 BYTE PTR __k$[ebp+9], bl
  001ce	eb 32		 jmp	 SHORT $LN1@LoadFloat_@3
$LN88@LoadFloat_@3:
  001d0	c6 45 ec ed	 mov	 BYTE PTR __k$[ebp+8], -19 ; ffffffedH
  001d4	eb 2c		 jmp	 SHORT $LN1@LoadFloat_@3
$LN89@LoadFloat_@3:
  001d6	c6 45 eb ea	 mov	 BYTE PTR __k$[ebp+7], -22 ; ffffffeaH
  001da	eb 26		 jmp	 SHORT $LN1@LoadFloat_@3
$LN90@LoadFloat_@3:
  001dc	88 4d ea	 mov	 BYTE PTR __k$[ebp+6], cl
  001df	eb 21		 jmp	 SHORT $LN1@LoadFloat_@3
$LN91@LoadFloat_@3:
  001e1	88 5d e9	 mov	 BYTE PTR __k$[ebp+5], bl
  001e4	eb 1c		 jmp	 SHORT $LN1@LoadFloat_@3
$LN92@LoadFloat_@3:
  001e6	c6 45 e8 ed	 mov	 BYTE PTR __k$[ebp+4], -19 ; ffffffedH
  001ea	eb 16		 jmp	 SHORT $LN1@LoadFloat_@3
$LN93@LoadFloat_@3:
  001ec	c6 45 e7 ea	 mov	 BYTE PTR __k$[ebp+3], -22 ; ffffffeaH
  001f0	eb 10		 jmp	 SHORT $LN1@LoadFloat_@3
$LN94@LoadFloat_@3:
  001f2	c6 45 e6 eb	 mov	 BYTE PTR __k$[ebp+2], -21 ; ffffffebH
  001f6	eb 0a		 jmp	 SHORT $LN1@LoadFloat_@3
$LN95@LoadFloat_@3:
  001f8	c6 45 e5 ec	 mov	 BYTE PTR __k$[ebp+1], -20 ; ffffffecH
  001fc	eb 04		 jmp	 SHORT $LN1@LoadFloat_@3
$LN96@LoadFloat_@3:
  001fe	c6 45 e4 ed	 mov	 BYTE PTR __k$[ebp], -19	; ffffffedH
$LN1@LoadFloat_@3:
  00202	6a 04		 push	 4
  00204	8d 45 e4	 lea	 eax, DWORD PTR __k$[ebp]
  00207	c6 45 f7 00	 mov	 BYTE PTR __k$[ebp+19], 0
  0020b	5a		 pop	 edx
$LL104@LoadFloat_@3:
  0020c	81 30 ed ec eb
	ea		 xor	 DWORD PTR [eax], -353637139 ; eaebecedH
  00212	83 c0 04	 add	 eax, 4
  00215	4a		 dec	 edx
  00216	75 f4		 jne	 SHORT $LL104@LoadFloat_@3
  00218	6a 10		 push	 16			; 00000010H
  0021a	58		 pop	 eax
$LL101@LoadFloat_@3:
  0021b	8b c8		 mov	 ecx, eax
  0021d	81 e1 03 00 00
	80		 and	 ecx, -2147483645	; 80000003H
  00223	79 05		 jns	 SHORT $LN111@LoadFloat_@3
  00225	49		 dec	 ecx
  00226	83 c9 fc	 or	 ecx, -4			; fffffffcH
  00229	41		 inc	 ecx
$LN111@LoadFloat_@3:
  0022a	b2 ed		 mov	 dl, -19			; ffffffedH
  0022c	2a d1		 sub	 dl, cl
  0022e	30 54 05 e4	 xor	 BYTE PTR __k$[ebp+eax], dl
  00232	40		 inc	 eax
  00233	83 f8 13	 cmp	 eax, 19			; 00000013H
  00236	7c e3		 jl	 SHORT $LL101@LoadFloat_@3

; 137  : 		return LoadFloat(_k, f);

  00238	f3 0f 10 45 0c	 movss	 xmm0, DWORD PTR _f$[ebp]
  0023d	51		 push	 ecx
  0023e	8d 45 e4	 lea	 eax, DWORD PTR __k$[ebp]
  00241	f3 0f 11 04 24	 movss	 DWORD PTR [esp], xmm0
  00246	50		 push	 eax
  00247	8b ce		 mov	 ecx, esi
  00249	ff 15 00 00 00
	00		 call	 DWORD PTR __imp_?LoadFloat@ioINILoader@@QAEMPBDM@Z

; 138  : 	}

  0024f	8b 4d fc	 mov	 ecx, DWORD PTR __$ArrayPad$[ebp]
  00252	5e		 pop	 esi
  00253	33 cd		 xor	 ecx, ebp
  00255	5b		 pop	 ebx
  00256	e8 00 00 00 00	 call	 @__security_check_cookie@4
  0025b	c9		 leave
  0025c	c2 08 00	 ret	 8
??$LoadFloat_e@$0BE@@ioINILoader@@QAEMAAY0BE@$$CBDM@Z ENDP ; ioINILoader::LoadFloat_e<20>
_TEXT	ENDS
PUBLIC	_this$GSCopy$
PUBLIC	__$ArrayPad$
PUBLIC	??$LoadString_e@$0BA@@ioINILoader@@QAEXAAY0BA@$$CBDAAY00$$CBDPADH@Z ; ioINILoader::LoadString_e<16>
EXTRN	__imp_?LoadStringA@ioINILoader@@QAEXPBD0PADH@Z:PROC
; Function compile flags: /Ogsp
;	COMDAT ??$LoadString_e@$0BA@@ioINILoader@@QAEXAAY0BA@$$CBDAAY00$$CBDPADH@Z
_TEXT	SEGMENT
_this$GSCopy$ = -28					; size = 4
__k$ = -24						; size = 16
__$ArrayPad$ = -4					; size = 4
_k$ = 8							; size = 4
_d$ = 12						; size = 4
_b$ = 16						; size = 4
_i$ = 20						; size = 4
??$LoadString_e@$0BA@@ioINILoader@@QAEXAAY0BA@$$CBDAAY00$$CBDPADH@Z PROC ; ioINILoader::LoadString_e<16>, COMDAT
; _this$ = ecx

; 161  : 	{

  00000	55		 push	 ebp
  00001	8b ec		 mov	 ebp, esp
  00003	83 ec 1c	 sub	 esp, 28			; 0000001cH
  00006	a1 00 00 00 00	 mov	 eax, DWORD PTR ___security_cookie
  0000b	33 c5		 xor	 eax, ebp
  0000d	89 45 fc	 mov	 DWORD PTR __$ArrayPad$[ebp], eax
  00010	8b 45 08	 mov	 eax, DWORD PTR _k$[ebp]

; 162  : 		_ENCSTR(k, _k);

  00013	8a 10		 mov	 dl, BYTE PTR [eax]
  00015	56		 push	 esi
  00016	8b 75 0c	 mov	 esi, DWORD PTR _d$[ebp]
  00019	57		 push	 edi
  0001a	8b 7d 10	 mov	 edi, DWORD PTR _b$[ebp]
  0001d	89 4d e4	 mov	 DWORD PTR _this$GSCopy$[ebp], ecx
  00020	84 d2		 test	 dl, dl
  00022	0f 84 8c 01 00
	00		 je	 $LN96@LoadString
  00028	80 f2 ed	 xor	 dl, -19			; ffffffedH
  0002b	88 55 e8	 mov	 BYTE PTR __k$[ebp], dl
  0002e	8a 50 01	 mov	 dl, BYTE PTR [eax+1]
  00031	84 d2		 test	 dl, dl
  00033	0f 84 75 01 00
	00		 je	 $LN95@LoadString
  00039	80 f2 ec	 xor	 dl, -20			; ffffffecH
  0003c	88 55 e9	 mov	 BYTE PTR __k$[ebp+1], dl
  0003f	8a 50 02	 mov	 dl, BYTE PTR [eax+2]
  00042	84 d2		 test	 dl, dl
  00044	0f 84 5e 01 00
	00		 je	 $LN94@LoadString
  0004a	b1 eb		 mov	 cl, -21			; ffffffebH
  0004c	32 d1		 xor	 dl, cl
  0004e	88 55 ea	 mov	 BYTE PTR __k$[ebp+2], dl
  00051	8a 50 03	 mov	 dl, BYTE PTR [eax+3]
  00054	84 d2		 test	 dl, dl
  00056	0f 84 46 01 00
	00		 je	 $LN93@LoadString
  0005c	80 f2 ea	 xor	 dl, -22			; ffffffeaH
  0005f	88 55 eb	 mov	 BYTE PTR __k$[ebp+3], dl
  00062	8a 50 04	 mov	 dl, BYTE PTR [eax+4]
  00065	84 d2		 test	 dl, dl
  00067	0f 84 2f 01 00
	00		 je	 $LN92@LoadString
  0006d	80 f2 ed	 xor	 dl, -19			; ffffffedH
  00070	88 55 ec	 mov	 BYTE PTR __k$[ebp+4], dl
  00073	8a 50 05	 mov	 dl, BYTE PTR [eax+5]
  00076	84 d2		 test	 dl, dl
  00078	0f 84 18 01 00
	00		 je	 $LN91@LoadString
  0007e	80 f2 ec	 xor	 dl, -20			; ffffffecH
  00081	88 55 ed	 mov	 BYTE PTR __k$[ebp+5], dl
  00084	8a 50 06	 mov	 dl, BYTE PTR [eax+6]
  00087	84 d2		 test	 dl, dl
  00089	0f 84 02 01 00
	00		 je	 $LN90@LoadString
  0008f	32 d1		 xor	 dl, cl
  00091	88 55 ee	 mov	 BYTE PTR __k$[ebp+6], dl
  00094	8a 50 07	 mov	 dl, BYTE PTR [eax+7]
  00097	84 d2		 test	 dl, dl
  00099	0f 84 ec 00 00
	00		 je	 $LN89@LoadString
  0009f	80 f2 ea	 xor	 dl, -22			; ffffffeaH
  000a2	88 55 ef	 mov	 BYTE PTR __k$[ebp+7], dl
  000a5	8a 50 08	 mov	 dl, BYTE PTR [eax+8]
  000a8	84 d2		 test	 dl, dl
  000aa	0f 84 d5 00 00
	00		 je	 $LN88@LoadString
  000b0	80 f2 ed	 xor	 dl, -19			; ffffffedH
  000b3	88 55 f0	 mov	 BYTE PTR __k$[ebp+8], dl
  000b6	8a 50 09	 mov	 dl, BYTE PTR [eax+9]
  000b9	84 d2		 test	 dl, dl
  000bb	0f 84 be 00 00
	00		 je	 $LN87@LoadString
  000c1	80 f2 ec	 xor	 dl, -20			; ffffffecH
  000c4	88 55 f1	 mov	 BYTE PTR __k$[ebp+9], dl
  000c7	8a 50 0a	 mov	 dl, BYTE PTR [eax+10]
  000ca	84 d2		 test	 dl, dl
  000cc	0f 84 a8 00 00
	00		 je	 $LN86@LoadString
  000d2	32 d1		 xor	 dl, cl
  000d4	88 55 f2	 mov	 BYTE PTR __k$[ebp+10], dl
  000d7	8a 50 0b	 mov	 dl, BYTE PTR [eax+11]
  000da	84 d2		 test	 dl, dl
  000dc	0f 84 92 00 00
	00		 je	 $LN85@LoadString
  000e2	80 f2 ea	 xor	 dl, -22			; ffffffeaH
  000e5	88 55 f3	 mov	 BYTE PTR __k$[ebp+11], dl
  000e8	8a 50 0c	 mov	 dl, BYTE PTR [eax+12]
  000eb	84 d2		 test	 dl, dl
  000ed	74 7f		 je	 SHORT $LN84@LoadString
  000ef	80 f2 ed	 xor	 dl, -19			; ffffffedH
  000f2	88 55 f4	 mov	 BYTE PTR __k$[ebp+12], dl
  000f5	8a 50 0d	 mov	 dl, BYTE PTR [eax+13]
  000f8	84 d2		 test	 dl, dl
  000fa	74 6c		 je	 SHORT $LN83@LoadString
  000fc	80 f2 ec	 xor	 dl, -20			; ffffffecH
  000ff	88 55 f5	 mov	 BYTE PTR __k$[ebp+13], dl
  00102	8a 50 0e	 mov	 dl, BYTE PTR [eax+14]
  00105	84 d2		 test	 dl, dl
  00107	74 5a		 je	 SHORT $LN82@LoadString
  00109	32 d1		 xor	 dl, cl
  0010b	80 78 0f 00	 cmp	 BYTE PTR [eax+15], 0
  0010f	88 55 f6	 mov	 BYTE PTR __k$[ebp+14], dl
  00112	0f 84 a0 00 00
	00		 je	 $LN111@LoadString
  00118	8a 50 10	 mov	 dl, BYTE PTR [eax+16]
  0011b	84 d2		 test	 dl, dl
  0011d	74 3e		 je	 SHORT $LN80@LoadString
  0011f	80 f2 ed	 xor	 dl, -19			; ffffffedH
  00122	88 55 f8	 mov	 BYTE PTR __k$[ebp+16], dl
  00125	8a 50 11	 mov	 dl, BYTE PTR [eax+17]
  00128	84 d2		 test	 dl, dl
  0012a	74 2b		 je	 SHORT $LN79@LoadString
  0012c	80 f2 ec	 xor	 dl, -20			; ffffffecH
  0012f	88 55 f9	 mov	 BYTE PTR __k$[ebp+17], dl
  00132	8a 50 12	 mov	 dl, BYTE PTR [eax+18]
  00135	84 d2		 test	 dl, dl
  00137	74 19		 je	 SHORT $LN78@LoadString
  00139	8a 40 13	 mov	 al, BYTE PTR [eax+19]
  0013c	32 d1		 xor	 dl, cl
  0013e	88 55 fa	 mov	 BYTE PTR __k$[ebp+18], dl
  00141	84 c0		 test	 al, al
  00143	74 07		 je	 SHORT $LN77@LoadString
  00145	34 ea		 xor	 al, -22			; ffffffeaH
  00147	88 45 fb	 mov	 BYTE PTR __k$[ebp+19], al
  0014a	eb 6c		 jmp	 SHORT $LN111@LoadString
$LN77@LoadString:
  0014c	c6 45 fb ea	 mov	 BYTE PTR __k$[ebp+19], -22 ; ffffffeaH
  00150	eb 66		 jmp	 SHORT $LN111@LoadString
$LN78@LoadString:
  00152	88 4d fa	 mov	 BYTE PTR __k$[ebp+18], cl
  00155	eb 61		 jmp	 SHORT $LN111@LoadString
$LN79@LoadString:
  00157	c6 45 f9 ec	 mov	 BYTE PTR __k$[ebp+17], -20 ; ffffffecH
  0015b	eb 5b		 jmp	 SHORT $LN111@LoadString
$LN80@LoadString:
  0015d	c6 45 f8 ed	 mov	 BYTE PTR __k$[ebp+16], -19 ; ffffffedH
  00161	eb 55		 jmp	 SHORT $LN111@LoadString
$LN82@LoadString:
  00163	88 4d f6	 mov	 BYTE PTR __k$[ebp+14], cl
  00166	eb 50		 jmp	 SHORT $LN111@LoadString
$LN83@LoadString:
  00168	c6 45 f5 ec	 mov	 BYTE PTR __k$[ebp+13], -20 ; ffffffecH
  0016c	eb 4a		 jmp	 SHORT $LN111@LoadString
$LN84@LoadString:
  0016e	c6 45 f4 ed	 mov	 BYTE PTR __k$[ebp+12], -19 ; ffffffedH
  00172	eb 44		 jmp	 SHORT $LN111@LoadString
$LN85@LoadString:
  00174	c6 45 f3 ea	 mov	 BYTE PTR __k$[ebp+11], -22 ; ffffffeaH
  00178	eb 3e		 jmp	 SHORT $LN111@LoadString
$LN86@LoadString:
  0017a	88 4d f2	 mov	 BYTE PTR __k$[ebp+10], cl
  0017d	eb 39		 jmp	 SHORT $LN111@LoadString
$LN87@LoadString:
  0017f	c6 45 f1 ec	 mov	 BYTE PTR __k$[ebp+9], -20 ; ffffffecH
  00183	eb 33		 jmp	 SHORT $LN111@LoadString
$LN88@LoadString:
  00185	c6 45 f0 ed	 mov	 BYTE PTR __k$[ebp+8], -19 ; ffffffedH
  00189	eb 2d		 jmp	 SHORT $LN111@LoadString
$LN89@LoadString:
  0018b	c6 45 ef ea	 mov	 BYTE PTR __k$[ebp+7], -22 ; ffffffeaH
  0018f	eb 27		 jmp	 SHORT $LN111@LoadString
$LN90@LoadString:
  00191	88 4d ee	 mov	 BYTE PTR __k$[ebp+6], cl
  00194	eb 22		 jmp	 SHORT $LN111@LoadString
$LN91@LoadString:
  00196	c6 45 ed ec	 mov	 BYTE PTR __k$[ebp+5], -20 ; ffffffecH
  0019a	eb 1c		 jmp	 SHORT $LN111@LoadString
$LN92@LoadString:
  0019c	c6 45 ec ed	 mov	 BYTE PTR __k$[ebp+4], -19 ; ffffffedH
  001a0	eb 16		 jmp	 SHORT $LN111@LoadString
$LN93@LoadString:
  001a2	c6 45 eb ea	 mov	 BYTE PTR __k$[ebp+3], -22 ; ffffffeaH
  001a6	eb 10		 jmp	 SHORT $LN111@LoadString
$LN94@LoadString:
  001a8	c6 45 ea eb	 mov	 BYTE PTR __k$[ebp+2], -21 ; ffffffebH
  001ac	eb 0a		 jmp	 SHORT $LN111@LoadString
$LN95@LoadString:
  001ae	c6 45 e9 ec	 mov	 BYTE PTR __k$[ebp+1], -20 ; ffffffecH
  001b2	eb 04		 jmp	 SHORT $LN111@LoadString
$LN96@LoadString:
  001b4	c6 45 e8 ed	 mov	 BYTE PTR __k$[ebp], -19	; ffffffedH
$LN111@LoadString:
  001b8	6a 03		 push	 3
  001ba	8d 45 e8	 lea	 eax, DWORD PTR __k$[ebp]
  001bd	c6 45 f7 00	 mov	 BYTE PTR __k$[ebp+15], 0
  001c1	5a		 pop	 edx
$LL104@LoadString:
  001c2	81 30 ed ec eb
	ea		 xor	 DWORD PTR [eax], -353637139 ; eaebecedH
  001c8	83 c0 04	 add	 eax, 4
  001cb	4a		 dec	 edx
  001cc	75 f4		 jne	 SHORT $LL104@LoadString
  001ce	6a 0c		 push	 12			; 0000000cH
  001d0	58		 pop	 eax
$LL101@LoadString:
  001d1	8b c8		 mov	 ecx, eax
  001d3	81 e1 03 00 00
	80		 and	 ecx, -2147483645	; 80000003H
  001d9	79 05		 jns	 SHORT $LN112@LoadString
  001db	49		 dec	 ecx
  001dc	83 c9 fc	 or	 ecx, -4			; fffffffcH
  001df	41		 inc	 ecx
$LN112@LoadString:
  001e0	b2 ed		 mov	 dl, -19			; ffffffedH
  001e2	2a d1		 sub	 dl, cl
  001e4	30 54 05 e8	 xor	 BYTE PTR __k$[ebp+eax], dl
  001e8	40		 inc	 eax
  001e9	83 f8 0f	 cmp	 eax, 15			; 0000000fH
  001ec	7c e3		 jl	 SHORT $LL101@LoadString

; 163  : 		LoadString(_k, d, b, i);

  001ee	ff 75 14	 push	 DWORD PTR _i$[ebp]
  001f1	8b 4d e4	 mov	 ecx, DWORD PTR _this$GSCopy$[ebp]
  001f4	57		 push	 edi
  001f5	56		 push	 esi
  001f6	8d 45 e8	 lea	 eax, DWORD PTR __k$[ebp]
  001f9	50		 push	 eax
  001fa	ff 15 00 00 00
	00		 call	 DWORD PTR __imp_?LoadStringA@ioINILoader@@QAEXPBD0PADH@Z

; 164  : 	}

  00200	8b 4d fc	 mov	 ecx, DWORD PTR __$ArrayPad$[ebp]
  00203	5f		 pop	 edi
  00204	33 cd		 xor	 ecx, ebp
  00206	5e		 pop	 esi
  00207	e8 00 00 00 00	 call	 @__security_check_cookie@4
  0020c	c9		 leave
  0020d	c2 10 00	 ret	 16			; 00000010H
??$LoadString_e@$0BA@@ioINILoader@@QAEXAAY0BA@$$CBDAAY00$$CBDPADH@Z ENDP ; ioINILoader::LoadString_e<16>
_TEXT	ENDS
PUBLIC	_this$GSCopy$
PUBLIC	__$ArrayPad$
PUBLIC	??$LoadString_e@$0BB@@ioINILoader@@QAEXAAY0BB@$$CBDAAY00$$CBDPADH@Z ; ioINILoader::LoadString_e<17>
; Function compile flags: /Ogsp
;	COMDAT ??$LoadString_e@$0BB@@ioINILoader@@QAEXAAY0BB@$$CBDAAY00$$CBDPADH@Z
_TEXT	SEGMENT
_this$GSCopy$ = -32					; size = 4
__k$ = -28						; size = 17
__$ArrayPad$ = -4					; size = 4
_k$ = 8							; size = 4
_d$ = 12						; size = 4
_b$ = 16						; size = 4
_i$ = 20						; size = 4
??$LoadString_e@$0BB@@ioINILoader@@QAEXAAY0BB@$$CBDAAY00$$CBDPADH@Z PROC ; ioINILoader::LoadString_e<17>, COMDAT
; _this$ = ecx

; 161  : 	{

  00000	55		 push	 ebp
  00001	8b ec		 mov	 ebp, esp
  00003	83 ec 20	 sub	 esp, 32			; 00000020H
  00006	a1 00 00 00 00	 mov	 eax, DWORD PTR ___security_cookie
  0000b	33 c5		 xor	 eax, ebp
  0000d	89 45 fc	 mov	 DWORD PTR __$ArrayPad$[ebp], eax
  00010	8b 45 08	 mov	 eax, DWORD PTR _k$[ebp]

; 162  : 		_ENCSTR(k, _k);

  00013	8a 10		 mov	 dl, BYTE PTR [eax]
  00015	56		 push	 esi
  00016	8b 75 0c	 mov	 esi, DWORD PTR _d$[ebp]
  00019	57		 push	 edi
  0001a	8b 7d 10	 mov	 edi, DWORD PTR _b$[ebp]
  0001d	89 4d e0	 mov	 DWORD PTR _this$GSCopy$[ebp], ecx
  00020	84 d2		 test	 dl, dl
  00022	0f 84 a7 01 00
	00		 je	 $LN96@LoadString@2
  00028	80 f2 ed	 xor	 dl, -19			; ffffffedH
  0002b	88 55 e4	 mov	 BYTE PTR __k$[ebp], dl
  0002e	8a 50 01	 mov	 dl, BYTE PTR [eax+1]
  00031	84 d2		 test	 dl, dl
  00033	0f 84 90 01 00
	00		 je	 $LN95@LoadString@2
  00039	b1 ec		 mov	 cl, -20			; ffffffecH
  0003b	32 d1		 xor	 dl, cl
  0003d	88 55 e5	 mov	 BYTE PTR __k$[ebp+1], dl
  00040	8a 50 02	 mov	 dl, BYTE PTR [eax+2]
  00043	84 d2		 test	 dl, dl
  00045	0f 84 78 01 00
	00		 je	 $LN94@LoadString@2
  0004b	80 f2 eb	 xor	 dl, -21			; ffffffebH
  0004e	88 55 e6	 mov	 BYTE PTR __k$[ebp+2], dl
  00051	8a 50 03	 mov	 dl, BYTE PTR [eax+3]
  00054	84 d2		 test	 dl, dl
  00056	0f 84 61 01 00
	00		 je	 $LN93@LoadString@2
  0005c	80 f2 ea	 xor	 dl, -22			; ffffffeaH
  0005f	88 55 e7	 mov	 BYTE PTR __k$[ebp+3], dl
  00062	8a 50 04	 mov	 dl, BYTE PTR [eax+4]
  00065	84 d2		 test	 dl, dl
  00067	0f 84 4a 01 00
	00		 je	 $LN92@LoadString@2
  0006d	80 f2 ed	 xor	 dl, -19			; ffffffedH
  00070	88 55 e8	 mov	 BYTE PTR __k$[ebp+4], dl
  00073	8a 50 05	 mov	 dl, BYTE PTR [eax+5]
  00076	84 d2		 test	 dl, dl
  00078	0f 84 34 01 00
	00		 je	 $LN91@LoadString@2
  0007e	32 d1		 xor	 dl, cl
  00080	88 55 e9	 mov	 BYTE PTR __k$[ebp+5], dl
  00083	8a 50 06	 mov	 dl, BYTE PTR [eax+6]
  00086	84 d2		 test	 dl, dl
  00088	0f 84 1e 01 00
	00		 je	 $LN90@LoadString@2
  0008e	80 f2 eb	 xor	 dl, -21			; ffffffebH
  00091	88 55 ea	 mov	 BYTE PTR __k$[ebp+6], dl
  00094	8a 50 07	 mov	 dl, BYTE PTR [eax+7]
  00097	84 d2		 test	 dl, dl
  00099	0f 84 07 01 00
	00		 je	 $LN89@LoadString@2
  0009f	80 f2 ea	 xor	 dl, -22			; ffffffeaH
  000a2	88 55 eb	 mov	 BYTE PTR __k$[ebp+7], dl
  000a5	8a 50 08	 mov	 dl, BYTE PTR [eax+8]
  000a8	84 d2		 test	 dl, dl
  000aa	0f 84 f0 00 00
	00		 je	 $LN88@LoadString@2
  000b0	80 f2 ed	 xor	 dl, -19			; ffffffedH
  000b3	88 55 ec	 mov	 BYTE PTR __k$[ebp+8], dl
  000b6	8a 50 09	 mov	 dl, BYTE PTR [eax+9]
  000b9	84 d2		 test	 dl, dl
  000bb	0f 84 da 00 00
	00		 je	 $LN87@LoadString@2
  000c1	32 d1		 xor	 dl, cl
  000c3	88 55 ed	 mov	 BYTE PTR __k$[ebp+9], dl
  000c6	8a 50 0a	 mov	 dl, BYTE PTR [eax+10]
  000c9	84 d2		 test	 dl, dl
  000cb	0f 84 c4 00 00
	00		 je	 $LN86@LoadString@2
  000d1	80 f2 eb	 xor	 dl, -21			; ffffffebH
  000d4	88 55 ee	 mov	 BYTE PTR __k$[ebp+10], dl
  000d7	8a 50 0b	 mov	 dl, BYTE PTR [eax+11]
  000da	84 d2		 test	 dl, dl
  000dc	0f 84 ad 00 00
	00		 je	 $LN85@LoadString@2
  000e2	80 f2 ea	 xor	 dl, -22			; ffffffeaH
  000e5	88 55 ef	 mov	 BYTE PTR __k$[ebp+11], dl
  000e8	8a 50 0c	 mov	 dl, BYTE PTR [eax+12]
  000eb	84 d2		 test	 dl, dl
  000ed	0f 84 96 00 00
	00		 je	 $LN84@LoadString@2
  000f3	80 f2 ed	 xor	 dl, -19			; ffffffedH
  000f6	88 55 f0	 mov	 BYTE PTR __k$[ebp+12], dl
  000f9	8a 50 0d	 mov	 dl, BYTE PTR [eax+13]
  000fc	84 d2		 test	 dl, dl
  000fe	0f 84 80 00 00
	00		 je	 $LN83@LoadString@2
  00104	32 d1		 xor	 dl, cl
  00106	88 55 f1	 mov	 BYTE PTR __k$[ebp+13], dl
  00109	8a 50 0e	 mov	 dl, BYTE PTR [eax+14]
  0010c	84 d2		 test	 dl, dl
  0010e	74 6e		 je	 SHORT $LN82@LoadString@2
  00110	80 f2 eb	 xor	 dl, -21			; ffffffebH
  00113	88 55 f2	 mov	 BYTE PTR __k$[ebp+14], dl
  00116	8a 50 0f	 mov	 dl, BYTE PTR [eax+15]
  00119	84 d2		 test	 dl, dl
  0011b	74 5b		 je	 SHORT $LN81@LoadString@2
  0011d	80 f2 ea	 xor	 dl, -22			; ffffffeaH
  00120	80 78 10 00	 cmp	 BYTE PTR [eax+16], 0
  00124	88 55 f3	 mov	 BYTE PTR __k$[ebp+15], dl
  00127	0f 84 a6 00 00
	00		 je	 $LN111@LoadString@2
  0012d	8a 50 11	 mov	 dl, BYTE PTR [eax+17]
  00130	84 d2		 test	 dl, dl
  00132	74 3f		 je	 SHORT $LN79@LoadString@2
  00134	32 d1		 xor	 dl, cl
  00136	88 55 f5	 mov	 BYTE PTR __k$[ebp+17], dl
  00139	8a 50 12	 mov	 dl, BYTE PTR [eax+18]
  0013c	84 d2		 test	 dl, dl
  0013e	74 2d		 je	 SHORT $LN78@LoadString@2
  00140	80 f2 eb	 xor	 dl, -21			; ffffffebH
  00143	88 55 f6	 mov	 BYTE PTR __k$[ebp+18], dl
  00146	8a 50 13	 mov	 dl, BYTE PTR [eax+19]
  00149	84 d2		 test	 dl, dl
  0014b	74 1a		 je	 SHORT $LN77@LoadString@2
  0014d	8a 40 14	 mov	 al, BYTE PTR [eax+20]
  00150	80 f2 ea	 xor	 dl, -22			; ffffffeaH
  00153	88 55 f7	 mov	 BYTE PTR __k$[ebp+19], dl
  00156	84 c0		 test	 al, al
  00158	74 07		 je	 SHORT $LN76@LoadString@2
  0015a	34 ed		 xor	 al, -19			; ffffffedH
  0015c	88 45 f8	 mov	 BYTE PTR __k$[ebp+20], al
  0015f	eb 72		 jmp	 SHORT $LN111@LoadString@2
$LN76@LoadString@2:
  00161	c6 45 f8 ed	 mov	 BYTE PTR __k$[ebp+20], -19 ; ffffffedH
  00165	eb 6c		 jmp	 SHORT $LN111@LoadString@2
$LN77@LoadString@2:
  00167	c6 45 f7 ea	 mov	 BYTE PTR __k$[ebp+19], -22 ; ffffffeaH
  0016b	eb 66		 jmp	 SHORT $LN111@LoadString@2
$LN78@LoadString@2:
  0016d	c6 45 f6 eb	 mov	 BYTE PTR __k$[ebp+18], -21 ; ffffffebH
  00171	eb 60		 jmp	 SHORT $LN111@LoadString@2
$LN79@LoadString@2:
  00173	88 4d f5	 mov	 BYTE PTR __k$[ebp+17], cl
  00176	eb 5b		 jmp	 SHORT $LN111@LoadString@2
$LN81@LoadString@2:
  00178	c6 45 f3 ea	 mov	 BYTE PTR __k$[ebp+15], -22 ; ffffffeaH
  0017c	eb 55		 jmp	 SHORT $LN111@LoadString@2
$LN82@LoadString@2:
  0017e	c6 45 f2 eb	 mov	 BYTE PTR __k$[ebp+14], -21 ; ffffffebH
  00182	eb 4f		 jmp	 SHORT $LN111@LoadString@2
$LN83@LoadString@2:
  00184	88 4d f1	 mov	 BYTE PTR __k$[ebp+13], cl
  00187	eb 4a		 jmp	 SHORT $LN111@LoadString@2
$LN84@LoadString@2:
  00189	c6 45 f0 ed	 mov	 BYTE PTR __k$[ebp+12], -19 ; ffffffedH
  0018d	eb 44		 jmp	 SHORT $LN111@LoadString@2
$LN85@LoadString@2:
  0018f	c6 45 ef ea	 mov	 BYTE PTR __k$[ebp+11], -22 ; ffffffeaH
  00193	eb 3e		 jmp	 SHORT $LN111@LoadString@2
$LN86@LoadString@2:
  00195	c6 45 ee eb	 mov	 BYTE PTR __k$[ebp+10], -21 ; ffffffebH
  00199	eb 38		 jmp	 SHORT $LN111@LoadString@2
$LN87@LoadString@2:
  0019b	88 4d ed	 mov	 BYTE PTR __k$[ebp+9], cl
  0019e	eb 33		 jmp	 SHORT $LN111@LoadString@2
$LN88@LoadString@2:
  001a0	c6 45 ec ed	 mov	 BYTE PTR __k$[ebp+8], -19 ; ffffffedH
  001a4	eb 2d		 jmp	 SHORT $LN111@LoadString@2
$LN89@LoadString@2:
  001a6	c6 45 eb ea	 mov	 BYTE PTR __k$[ebp+7], -22 ; ffffffeaH
  001aa	eb 27		 jmp	 SHORT $LN111@LoadString@2
$LN90@LoadString@2:
  001ac	c6 45 ea eb	 mov	 BYTE PTR __k$[ebp+6], -21 ; ffffffebH
  001b0	eb 21		 jmp	 SHORT $LN111@LoadString@2
$LN91@LoadString@2:
  001b2	88 4d e9	 mov	 BYTE PTR __k$[ebp+5], cl
  001b5	eb 1c		 jmp	 SHORT $LN111@LoadString@2
$LN92@LoadString@2:
  001b7	c6 45 e8 ed	 mov	 BYTE PTR __k$[ebp+4], -19 ; ffffffedH
  001bb	eb 16		 jmp	 SHORT $LN111@LoadString@2
$LN93@LoadString@2:
  001bd	c6 45 e7 ea	 mov	 BYTE PTR __k$[ebp+3], -22 ; ffffffeaH
  001c1	eb 10		 jmp	 SHORT $LN111@LoadString@2
$LN94@LoadString@2:
  001c3	c6 45 e6 eb	 mov	 BYTE PTR __k$[ebp+2], -21 ; ffffffebH
  001c7	eb 0a		 jmp	 SHORT $LN111@LoadString@2
$LN95@LoadString@2:
  001c9	c6 45 e5 ec	 mov	 BYTE PTR __k$[ebp+1], -20 ; ffffffecH
  001cd	eb 04		 jmp	 SHORT $LN111@LoadString@2
$LN96@LoadString@2:
  001cf	c6 45 e4 ed	 mov	 BYTE PTR __k$[ebp], -19	; ffffffedH
$LN111@LoadString@2:
  001d3	6a 04		 push	 4
  001d5	8d 45 e4	 lea	 eax, DWORD PTR __k$[ebp]
  001d8	c6 45 f4 00	 mov	 BYTE PTR __k$[ebp+16], 0
  001dc	5a		 pop	 edx
$LL104@LoadString@2:
  001dd	81 30 ed ec eb
	ea		 xor	 DWORD PTR [eax], -353637139 ; eaebecedH
  001e3	83 c0 04	 add	 eax, 4
  001e6	4a		 dec	 edx
  001e7	75 f4		 jne	 SHORT $LL104@LoadString@2

; 163  : 		LoadString(_k, d, b, i);

  001e9	ff 75 14	 push	 DWORD PTR _i$[ebp]
  001ec	8b 4d e0	 mov	 ecx, DWORD PTR _this$GSCopy$[ebp]
  001ef	57		 push	 edi
  001f0	56		 push	 esi
  001f1	8d 45 e4	 lea	 eax, DWORD PTR __k$[ebp]
  001f4	50		 push	 eax
  001f5	ff 15 00 00 00
	00		 call	 DWORD PTR __imp_?LoadStringA@ioINILoader@@QAEXPBD0PADH@Z

; 164  : 	}

  001fb	8b 4d fc	 mov	 ecx, DWORD PTR __$ArrayPad$[ebp]
  001fe	5f		 pop	 edi
  001ff	33 cd		 xor	 ecx, ebp
  00201	5e		 pop	 esi
  00202	e8 00 00 00 00	 call	 @__security_check_cookie@4
  00207	c9		 leave
  00208	c2 10 00	 ret	 16			; 00000010H
??$LoadString_e@$0BB@@ioINILoader@@QAEXAAY0BB@$$CBDAAY00$$CBDPADH@Z ENDP ; ioINILoader::LoadString_e<17>
_TEXT	ENDS
PUBLIC	_this$GSCopy$
PUBLIC	__$ArrayPad$
PUBLIC	??$LoadString_e@$0P@@ioINILoader@@QAEXAAY0P@$$CBDAAY00$$CBDPADH@Z ; ioINILoader::LoadString_e<15>
; Function compile flags: /Ogsp
;	COMDAT ??$LoadString_e@$0P@@ioINILoader@@QAEXAAY0P@$$CBDAAY00$$CBDPADH@Z
_TEXT	SEGMENT
_this$GSCopy$ = -28					; size = 4
__k$ = -24						; size = 15
__$ArrayPad$ = -4					; size = 4
_k$ = 8							; size = 4
_d$ = 12						; size = 4
_b$ = 16						; size = 4
_i$ = 20						; size = 4
??$LoadString_e@$0P@@ioINILoader@@QAEXAAY0P@$$CBDAAY00$$CBDPADH@Z PROC ; ioINILoader::LoadString_e<15>, COMDAT
; _this$ = ecx

; 161  : 	{

  00000	55		 push	 ebp
  00001	8b ec		 mov	 ebp, esp
  00003	83 ec 1c	 sub	 esp, 28			; 0000001cH
  00006	a1 00 00 00 00	 mov	 eax, DWORD PTR ___security_cookie
  0000b	33 c5		 xor	 eax, ebp
  0000d	89 45 fc	 mov	 DWORD PTR __$ArrayPad$[ebp], eax
  00010	8b 45 08	 mov	 eax, DWORD PTR _k$[ebp]

; 162  : 		_ENCSTR(k, _k);

  00013	8a 10		 mov	 dl, BYTE PTR [eax]
  00015	56		 push	 esi
  00016	8b 75 0c	 mov	 esi, DWORD PTR _d$[ebp]
  00019	57		 push	 edi
  0001a	8b 7d 10	 mov	 edi, DWORD PTR _b$[ebp]
  0001d	89 4d e4	 mov	 DWORD PTR _this$GSCopy$[ebp], ecx
  00020	84 d2		 test	 dl, dl
  00022	0f 84 75 01 00
	00		 je	 $LN96@LoadString@3
  00028	80 f2 ed	 xor	 dl, -19			; ffffffedH
  0002b	88 55 e8	 mov	 BYTE PTR __k$[ebp], dl
  0002e	8a 50 01	 mov	 dl, BYTE PTR [eax+1]
  00031	84 d2		 test	 dl, dl
  00033	0f 84 5e 01 00
	00		 je	 $LN95@LoadString@3
  00039	b1 ec		 mov	 cl, -20			; ffffffecH
  0003b	32 d1		 xor	 dl, cl
  0003d	88 55 e9	 mov	 BYTE PTR __k$[ebp+1], dl
  00040	8a 50 02	 mov	 dl, BYTE PTR [eax+2]
  00043	84 d2		 test	 dl, dl
  00045	0f 84 46 01 00
	00		 je	 $LN94@LoadString@3
  0004b	80 f2 eb	 xor	 dl, -21			; ffffffebH
  0004e	88 55 ea	 mov	 BYTE PTR __k$[ebp+2], dl
  00051	8a 50 03	 mov	 dl, BYTE PTR [eax+3]
  00054	84 d2		 test	 dl, dl
  00056	0f 84 2f 01 00
	00		 je	 $LN93@LoadString@3
  0005c	80 f2 ea	 xor	 dl, -22			; ffffffeaH
  0005f	88 55 eb	 mov	 BYTE PTR __k$[ebp+3], dl
  00062	8a 50 04	 mov	 dl, BYTE PTR [eax+4]
  00065	84 d2		 test	 dl, dl
  00067	0f 84 18 01 00
	00		 je	 $LN92@LoadString@3
  0006d	80 f2 ed	 xor	 dl, -19			; ffffffedH
  00070	88 55 ec	 mov	 BYTE PTR __k$[ebp+4], dl
  00073	8a 50 05	 mov	 dl, BYTE PTR [eax+5]
  00076	84 d2		 test	 dl, dl
  00078	0f 84 02 01 00
	00		 je	 $LN91@LoadString@3
  0007e	32 d1		 xor	 dl, cl
  00080	88 55 ed	 mov	 BYTE PTR __k$[ebp+5], dl
  00083	8a 50 06	 mov	 dl, BYTE PTR [eax+6]
  00086	84 d2		 test	 dl, dl
  00088	0f 84 ec 00 00
	00		 je	 $LN90@LoadString@3
  0008e	80 f2 eb	 xor	 dl, -21			; ffffffebH
  00091	88 55 ee	 mov	 BYTE PTR __k$[ebp+6], dl
  00094	8a 50 07	 mov	 dl, BYTE PTR [eax+7]
  00097	84 d2		 test	 dl, dl
  00099	0f 84 d5 00 00
	00		 je	 $LN89@LoadString@3
  0009f	80 f2 ea	 xor	 dl, -22			; ffffffeaH
  000a2	88 55 ef	 mov	 BYTE PTR __k$[ebp+7], dl
  000a5	8a 50 08	 mov	 dl, BYTE PTR [eax+8]
  000a8	84 d2		 test	 dl, dl
  000aa	0f 84 be 00 00
	00		 je	 $LN88@LoadString@3
  000b0	80 f2 ed	 xor	 dl, -19			; ffffffedH
  000b3	88 55 f0	 mov	 BYTE PTR __k$[ebp+8], dl
  000b6	8a 50 09	 mov	 dl, BYTE PTR [eax+9]
  000b9	84 d2		 test	 dl, dl
  000bb	0f 84 a8 00 00
	00		 je	 $LN87@LoadString@3
  000c1	32 d1		 xor	 dl, cl
  000c3	88 55 f1	 mov	 BYTE PTR __k$[ebp+9], dl
  000c6	8a 50 0a	 mov	 dl, BYTE PTR [eax+10]
  000c9	84 d2		 test	 dl, dl
  000cb	0f 84 92 00 00
	00		 je	 $LN86@LoadString@3
  000d1	80 f2 eb	 xor	 dl, -21			; ffffffebH
  000d4	88 55 f2	 mov	 BYTE PTR __k$[ebp+10], dl
  000d7	8a 50 0b	 mov	 dl, BYTE PTR [eax+11]
  000da	84 d2		 test	 dl, dl
  000dc	74 7f		 je	 SHORT $LN85@LoadString@3
  000de	80 f2 ea	 xor	 dl, -22			; ffffffeaH
  000e1	88 55 f3	 mov	 BYTE PTR __k$[ebp+11], dl
  000e4	8a 50 0c	 mov	 dl, BYTE PTR [eax+12]
  000e7	84 d2		 test	 dl, dl
  000e9	74 6c		 je	 SHORT $LN84@LoadString@3
  000eb	80 f2 ed	 xor	 dl, -19			; ffffffedH
  000ee	88 55 f4	 mov	 BYTE PTR __k$[ebp+12], dl
  000f1	8a 50 0d	 mov	 dl, BYTE PTR [eax+13]
  000f4	84 d2		 test	 dl, dl
  000f6	74 5a		 je	 SHORT $LN83@LoadString@3
  000f8	32 d1		 xor	 dl, cl
  000fa	80 78 0e 00	 cmp	 BYTE PTR [eax+14], 0
  000fe	88 55 f5	 mov	 BYTE PTR __k$[ebp+13], dl
  00101	0f 84 9a 00 00
	00		 je	 $LN111@LoadString@3
  00107	8a 50 0f	 mov	 dl, BYTE PTR [eax+15]
  0010a	84 d2		 test	 dl, dl
  0010c	74 3e		 je	 SHORT $LN81@LoadString@3
  0010e	80 f2 ea	 xor	 dl, -22			; ffffffeaH
  00111	88 55 f7	 mov	 BYTE PTR __k$[ebp+15], dl
  00114	8a 50 10	 mov	 dl, BYTE PTR [eax+16]
  00117	84 d2		 test	 dl, dl
  00119	74 2b		 je	 SHORT $LN80@LoadString@3
  0011b	80 f2 ed	 xor	 dl, -19			; ffffffedH
  0011e	88 55 f8	 mov	 BYTE PTR __k$[ebp+16], dl
  00121	8a 50 11	 mov	 dl, BYTE PTR [eax+17]
  00124	84 d2		 test	 dl, dl
  00126	74 19		 je	 SHORT $LN79@LoadString@3
  00128	8a 40 12	 mov	 al, BYTE PTR [eax+18]
  0012b	32 d1		 xor	 dl, cl
  0012d	88 55 f9	 mov	 BYTE PTR __k$[ebp+17], dl
  00130	84 c0		 test	 al, al
  00132	74 07		 je	 SHORT $LN78@LoadString@3
  00134	34 eb		 xor	 al, -21			; ffffffebH
  00136	88 45 fa	 mov	 BYTE PTR __k$[ebp+18], al
  00139	eb 66		 jmp	 SHORT $LN111@LoadString@3
$LN78@LoadString@3:
  0013b	c6 45 fa eb	 mov	 BYTE PTR __k$[ebp+18], -21 ; ffffffebH
  0013f	eb 60		 jmp	 SHORT $LN111@LoadString@3
$LN79@LoadString@3:
  00141	88 4d f9	 mov	 BYTE PTR __k$[ebp+17], cl
  00144	eb 5b		 jmp	 SHORT $LN111@LoadString@3
$LN80@LoadString@3:
  00146	c6 45 f8 ed	 mov	 BYTE PTR __k$[ebp+16], -19 ; ffffffedH
  0014a	eb 55		 jmp	 SHORT $LN111@LoadString@3
$LN81@LoadString@3:
  0014c	c6 45 f7 ea	 mov	 BYTE PTR __k$[ebp+15], -22 ; ffffffeaH
  00150	eb 4f		 jmp	 SHORT $LN111@LoadString@3
$LN83@LoadString@3:
  00152	88 4d f5	 mov	 BYTE PTR __k$[ebp+13], cl
  00155	eb 4a		 jmp	 SHORT $LN111@LoadString@3
$LN84@LoadString@3:
  00157	c6 45 f4 ed	 mov	 BYTE PTR __k$[ebp+12], -19 ; ffffffedH
  0015b	eb 44		 jmp	 SHORT $LN111@LoadString@3
$LN85@LoadString@3:
  0015d	c6 45 f3 ea	 mov	 BYTE PTR __k$[ebp+11], -22 ; ffffffeaH
  00161	eb 3e		 jmp	 SHORT $LN111@LoadString@3
$LN86@LoadString@3:
  00163	c6 45 f2 eb	 mov	 BYTE PTR __k$[ebp+10], -21 ; ffffffebH
  00167	eb 38		 jmp	 SHORT $LN111@LoadString@3
$LN87@LoadString@3:
  00169	88 4d f1	 mov	 BYTE PTR __k$[ebp+9], cl
  0016c	eb 33		 jmp	 SHORT $LN111@LoadString@3
$LN88@LoadString@3:
  0016e	c6 45 f0 ed	 mov	 BYTE PTR __k$[ebp+8], -19 ; ffffffedH
  00172	eb 2d		 jmp	 SHORT $LN111@LoadString@3
$LN89@LoadString@3:
  00174	c6 45 ef ea	 mov	 BYTE PTR __k$[ebp+7], -22 ; ffffffeaH
  00178	eb 27		 jmp	 SHORT $LN111@LoadString@3
$LN90@LoadString@3:
  0017a	c6 45 ee eb	 mov	 BYTE PTR __k$[ebp+6], -21 ; ffffffebH
  0017e	eb 21		 jmp	 SHORT $LN111@LoadString@3
$LN91@LoadString@3:
  00180	88 4d ed	 mov	 BYTE PTR __k$[ebp+5], cl
  00183	eb 1c		 jmp	 SHORT $LN111@LoadString@3
$LN92@LoadString@3:
  00185	c6 45 ec ed	 mov	 BYTE PTR __k$[ebp+4], -19 ; ffffffedH
  00189	eb 16		 jmp	 SHORT $LN111@LoadString@3
$LN93@LoadString@3:
  0018b	c6 45 eb ea	 mov	 BYTE PTR __k$[ebp+3], -22 ; ffffffeaH
  0018f	eb 10		 jmp	 SHORT $LN111@LoadString@3
$LN94@LoadString@3:
  00191	c6 45 ea eb	 mov	 BYTE PTR __k$[ebp+2], -21 ; ffffffebH
  00195	eb 0a		 jmp	 SHORT $LN111@LoadString@3
$LN95@LoadString@3:
  00197	c6 45 e9 ec	 mov	 BYTE PTR __k$[ebp+1], -20 ; ffffffecH
  0019b	eb 04		 jmp	 SHORT $LN111@LoadString@3
$LN96@LoadString@3:
  0019d	c6 45 e8 ed	 mov	 BYTE PTR __k$[ebp], -19	; ffffffedH
$LN111@LoadString@3:
  001a1	6a 03		 push	 3
  001a3	8d 45 e8	 lea	 eax, DWORD PTR __k$[ebp]
  001a6	c6 45 f6 00	 mov	 BYTE PTR __k$[ebp+14], 0
  001aa	5a		 pop	 edx
$LL104@LoadString@3:
  001ab	81 30 ed ec eb
	ea		 xor	 DWORD PTR [eax], -353637139 ; eaebecedH
  001b1	83 c0 04	 add	 eax, 4
  001b4	4a		 dec	 edx
  001b5	75 f4		 jne	 SHORT $LL104@LoadString@3
  001b7	6a 0c		 push	 12			; 0000000cH
  001b9	58		 pop	 eax
$LL101@LoadString@3:
  001ba	8b c8		 mov	 ecx, eax
  001bc	81 e1 03 00 00
	80		 and	 ecx, -2147483645	; 80000003H
  001c2	79 05		 jns	 SHORT $LN112@LoadString@3
  001c4	49		 dec	 ecx
  001c5	83 c9 fc	 or	 ecx, -4			; fffffffcH
  001c8	41		 inc	 ecx
$LN112@LoadString@3:
  001c9	b2 ed		 mov	 dl, -19			; ffffffedH
  001cb	2a d1		 sub	 dl, cl
  001cd	30 54 05 e8	 xor	 BYTE PTR __k$[ebp+eax], dl
  001d1	40		 inc	 eax
  001d2	83 f8 0e	 cmp	 eax, 14			; 0000000eH
  001d5	7c e3		 jl	 SHORT $LL101@LoadString@3

; 163  : 		LoadString(_k, d, b, i);

  001d7	ff 75 14	 push	 DWORD PTR _i$[ebp]
  001da	8b 4d e4	 mov	 ecx, DWORD PTR _this$GSCopy$[ebp]
  001dd	57		 push	 edi
  001de	56		 push	 esi
  001df	8d 45 e8	 lea	 eax, DWORD PTR __k$[ebp]
  001e2	50		 push	 eax
  001e3	ff 15 00 00 00
	00		 call	 DWORD PTR __imp_?LoadStringA@ioINILoader@@QAEXPBD0PADH@Z

; 164  : 	}

  001e9	8b 4d fc	 mov	 ecx, DWORD PTR __$ArrayPad$[ebp]
  001ec	5f		 pop	 edi
  001ed	33 cd		 xor	 ecx, ebp
  001ef	5e		 pop	 esi
  001f0	e8 00 00 00 00	 call	 @__security_check_cookie@4
  001f5	c9		 leave
  001f6	c2 10 00	 ret	 16			; 00000010H
??$LoadString_e@$0P@@ioINILoader@@QAEXAAY0P@$$CBDAAY00$$CBDPADH@Z ENDP ; ioINILoader::LoadString_e<15>
_TEXT	ENDS
PUBLIC	__$ArrayPad$
PUBLIC	??$LoadInt_e@$0O@@ioINILoader@@QAEHAAY0O@$$CBDH@Z ; ioINILoader::LoadInt_e<14>
; Function compile flags: /Ogsp
;	COMDAT ??$LoadInt_e@$0O@@ioINILoader@@QAEHAAY0O@$$CBDH@Z
_TEXT	SEGMENT
__k$ = -24						; size = 14
__$ArrayPad$ = -4					; size = 4
_k$ = 8							; size = 4
_i$ = 12						; size = 4
??$LoadInt_e@$0O@@ioINILoader@@QAEHAAY0O@$$CBDH@Z PROC	; ioINILoader::LoadInt_e<14>, COMDAT
; _this$ = ecx

; 118  : 	{

  00000	55		 push	 ebp
  00001	8b ec		 mov	 ebp, esp
  00003	83 ec 18	 sub	 esp, 24			; 00000018H
  00006	a1 00 00 00 00	 mov	 eax, DWORD PTR ___security_cookie
  0000b	33 c5		 xor	 eax, ebp
  0000d	89 45 fc	 mov	 DWORD PTR __$ArrayPad$[ebp], eax
  00010	8b 45 08	 mov	 eax, DWORD PTR _k$[ebp]

; 119  : 		_ENCSTR(k, _k);

  00013	8a 10		 mov	 dl, BYTE PTR [eax]
  00015	56		 push	 esi
  00016	8b f1		 mov	 esi, ecx
  00018	84 d2		 test	 dl, dl
  0001a	0f 84 64 01 00
	00		 je	 $LN96@LoadInt_e@2
  00020	80 f2 ed	 xor	 dl, -19			; ffffffedH
  00023	88 55 e8	 mov	 BYTE PTR __k$[ebp], dl
  00026	8a 50 01	 mov	 dl, BYTE PTR [eax+1]
  00029	84 d2		 test	 dl, dl
  0002b	0f 84 4d 01 00
	00		 je	 $LN95@LoadInt_e@2
  00031	80 f2 ec	 xor	 dl, -20			; ffffffecH
  00034	88 55 e9	 mov	 BYTE PTR __k$[ebp+1], dl
  00037	8a 50 02	 mov	 dl, BYTE PTR [eax+2]
  0003a	84 d2		 test	 dl, dl
  0003c	0f 84 36 01 00
	00		 je	 $LN94@LoadInt_e@2
  00042	b1 eb		 mov	 cl, -21			; ffffffebH
  00044	32 d1		 xor	 dl, cl
  00046	88 55 ea	 mov	 BYTE PTR __k$[ebp+2], dl
  00049	8a 50 03	 mov	 dl, BYTE PTR [eax+3]
  0004c	84 d2		 test	 dl, dl
  0004e	0f 84 1e 01 00
	00		 je	 $LN93@LoadInt_e@2
  00054	80 f2 ea	 xor	 dl, -22			; ffffffeaH
  00057	88 55 eb	 mov	 BYTE PTR __k$[ebp+3], dl
  0005a	8a 50 04	 mov	 dl, BYTE PTR [eax+4]
  0005d	84 d2		 test	 dl, dl
  0005f	0f 84 07 01 00
	00		 je	 $LN92@LoadInt_e@2
  00065	80 f2 ed	 xor	 dl, -19			; ffffffedH
  00068	88 55 ec	 mov	 BYTE PTR __k$[ebp+4], dl
  0006b	8a 50 05	 mov	 dl, BYTE PTR [eax+5]
  0006e	84 d2		 test	 dl, dl
  00070	0f 84 f0 00 00
	00		 je	 $LN91@LoadInt_e@2
  00076	80 f2 ec	 xor	 dl, -20			; ffffffecH
  00079	88 55 ed	 mov	 BYTE PTR __k$[ebp+5], dl
  0007c	8a 50 06	 mov	 dl, BYTE PTR [eax+6]
  0007f	84 d2		 test	 dl, dl
  00081	0f 84 da 00 00
	00		 je	 $LN90@LoadInt_e@2
  00087	32 d1		 xor	 dl, cl
  00089	88 55 ee	 mov	 BYTE PTR __k$[ebp+6], dl
  0008c	8a 50 07	 mov	 dl, BYTE PTR [eax+7]
  0008f	84 d2		 test	 dl, dl
  00091	0f 84 c4 00 00
	00		 je	 $LN89@LoadInt_e@2
  00097	80 f2 ea	 xor	 dl, -22			; ffffffeaH
  0009a	88 55 ef	 mov	 BYTE PTR __k$[ebp+7], dl
  0009d	8a 50 08	 mov	 dl, BYTE PTR [eax+8]
  000a0	84 d2		 test	 dl, dl
  000a2	0f 84 ad 00 00
	00		 je	 $LN88@LoadInt_e@2
  000a8	80 f2 ed	 xor	 dl, -19			; ffffffedH
  000ab	88 55 f0	 mov	 BYTE PTR __k$[ebp+8], dl
  000ae	8a 50 09	 mov	 dl, BYTE PTR [eax+9]
  000b1	84 d2		 test	 dl, dl
  000b3	0f 84 96 00 00
	00		 je	 $LN87@LoadInt_e@2
  000b9	80 f2 ec	 xor	 dl, -20			; ffffffecH
  000bc	88 55 f1	 mov	 BYTE PTR __k$[ebp+9], dl
  000bf	8a 50 0a	 mov	 dl, BYTE PTR [eax+10]
  000c2	84 d2		 test	 dl, dl
  000c4	0f 84 80 00 00
	00		 je	 $LN86@LoadInt_e@2
  000ca	32 d1		 xor	 dl, cl
  000cc	88 55 f2	 mov	 BYTE PTR __k$[ebp+10], dl
  000cf	8a 50 0b	 mov	 dl, BYTE PTR [eax+11]
  000d2	84 d2		 test	 dl, dl
  000d4	74 6e		 je	 SHORT $LN85@LoadInt_e@2
  000d6	80 f2 ea	 xor	 dl, -22			; ffffffeaH
  000d9	88 55 f3	 mov	 BYTE PTR __k$[ebp+11], dl
  000dc	8a 50 0c	 mov	 dl, BYTE PTR [eax+12]
  000df	84 d2		 test	 dl, dl
  000e1	74 5b		 je	 SHORT $LN84@LoadInt_e@2
  000e3	80 f2 ed	 xor	 dl, -19			; ffffffedH
  000e6	80 78 0d 00	 cmp	 BYTE PTR [eax+13], 0
  000ea	88 55 f4	 mov	 BYTE PTR __k$[ebp+12], dl
  000ed	0f 84 95 00 00
	00		 je	 $LN1@LoadInt_e@2
  000f3	8a 50 0e	 mov	 dl, BYTE PTR [eax+14]
  000f6	84 d2		 test	 dl, dl
  000f8	74 3f		 je	 SHORT $LN82@LoadInt_e@2
  000fa	32 d1		 xor	 dl, cl
  000fc	88 55 f6	 mov	 BYTE PTR __k$[ebp+14], dl
  000ff	8a 50 0f	 mov	 dl, BYTE PTR [eax+15]
  00102	84 d2		 test	 dl, dl
  00104	74 2d		 je	 SHORT $LN81@LoadInt_e@2
  00106	80 f2 ea	 xor	 dl, -22			; ffffffeaH
  00109	88 55 f7	 mov	 BYTE PTR __k$[ebp+15], dl
  0010c	8a 50 10	 mov	 dl, BYTE PTR [eax+16]
  0010f	84 d2		 test	 dl, dl
  00111	74 1a		 je	 SHORT $LN80@LoadInt_e@2
  00113	8a 40 11	 mov	 al, BYTE PTR [eax+17]
  00116	80 f2 ed	 xor	 dl, -19			; ffffffedH
  00119	88 55 f8	 mov	 BYTE PTR __k$[ebp+16], dl
  0011c	84 c0		 test	 al, al
  0011e	74 07		 je	 SHORT $LN79@LoadInt_e@2
  00120	34 ec		 xor	 al, -20			; ffffffecH
  00122	88 45 f9	 mov	 BYTE PTR __k$[ebp+17], al
  00125	eb 61		 jmp	 SHORT $LN1@LoadInt_e@2
$LN79@LoadInt_e@2:
  00127	c6 45 f9 ec	 mov	 BYTE PTR __k$[ebp+17], -20 ; ffffffecH
  0012b	eb 5b		 jmp	 SHORT $LN1@LoadInt_e@2
$LN80@LoadInt_e@2:
  0012d	c6 45 f8 ed	 mov	 BYTE PTR __k$[ebp+16], -19 ; ffffffedH
  00131	eb 55		 jmp	 SHORT $LN1@LoadInt_e@2
$LN81@LoadInt_e@2:
  00133	c6 45 f7 ea	 mov	 BYTE PTR __k$[ebp+15], -22 ; ffffffeaH
  00137	eb 4f		 jmp	 SHORT $LN1@LoadInt_e@2
$LN82@LoadInt_e@2:
  00139	88 4d f6	 mov	 BYTE PTR __k$[ebp+14], cl
  0013c	eb 4a		 jmp	 SHORT $LN1@LoadInt_e@2
$LN84@LoadInt_e@2:
  0013e	c6 45 f4 ed	 mov	 BYTE PTR __k$[ebp+12], -19 ; ffffffedH
  00142	eb 44		 jmp	 SHORT $LN1@LoadInt_e@2
$LN85@LoadInt_e@2:
  00144	c6 45 f3 ea	 mov	 BYTE PTR __k$[ebp+11], -22 ; ffffffeaH
  00148	eb 3e		 jmp	 SHORT $LN1@LoadInt_e@2
$LN86@LoadInt_e@2:
  0014a	88 4d f2	 mov	 BYTE PTR __k$[ebp+10], cl
  0014d	eb 39		 jmp	 SHORT $LN1@LoadInt_e@2
$LN87@LoadInt_e@2:
  0014f	c6 45 f1 ec	 mov	 BYTE PTR __k$[ebp+9], -20 ; ffffffecH
  00153	eb 33		 jmp	 SHORT $LN1@LoadInt_e@2
$LN88@LoadInt_e@2:
  00155	c6 45 f0 ed	 mov	 BYTE PTR __k$[ebp+8], -19 ; ffffffedH
  00159	eb 2d		 jmp	 SHORT $LN1@LoadInt_e@2
$LN89@LoadInt_e@2:
  0015b	c6 45 ef ea	 mov	 BYTE PTR __k$[ebp+7], -22 ; ffffffeaH
  0015f	eb 27		 jmp	 SHORT $LN1@LoadInt_e@2
$LN90@LoadInt_e@2:
  00161	88 4d ee	 mov	 BYTE PTR __k$[ebp+6], cl
  00164	eb 22		 jmp	 SHORT $LN1@LoadInt_e@2
$LN91@LoadInt_e@2:
  00166	c6 45 ed ec	 mov	 BYTE PTR __k$[ebp+5], -20 ; ffffffecH
  0016a	eb 1c		 jmp	 SHORT $LN1@LoadInt_e@2
$LN92@LoadInt_e@2:
  0016c	c6 45 ec ed	 mov	 BYTE PTR __k$[ebp+4], -19 ; ffffffedH
  00170	eb 16		 jmp	 SHORT $LN1@LoadInt_e@2
$LN93@LoadInt_e@2:
  00172	c6 45 eb ea	 mov	 BYTE PTR __k$[ebp+3], -22 ; ffffffeaH
  00176	eb 10		 jmp	 SHORT $LN1@LoadInt_e@2
$LN94@LoadInt_e@2:
  00178	c6 45 ea eb	 mov	 BYTE PTR __k$[ebp+2], -21 ; ffffffebH
  0017c	eb 0a		 jmp	 SHORT $LN1@LoadInt_e@2
$LN95@LoadInt_e@2:
  0017e	c6 45 e9 ec	 mov	 BYTE PTR __k$[ebp+1], -20 ; ffffffecH
  00182	eb 04		 jmp	 SHORT $LN1@LoadInt_e@2
$LN96@LoadInt_e@2:
  00184	c6 45 e8 ed	 mov	 BYTE PTR __k$[ebp], -19	; ffffffedH
$LN1@LoadInt_e@2:
  00188	6a 03		 push	 3
  0018a	8d 45 e8	 lea	 eax, DWORD PTR __k$[ebp]
  0018d	c6 45 f5 00	 mov	 BYTE PTR __k$[ebp+13], 0
  00191	5a		 pop	 edx
$LL104@LoadInt_e@2:
  00192	81 30 ed ec eb
	ea		 xor	 DWORD PTR [eax], -353637139 ; eaebecedH
  00198	83 c0 04	 add	 eax, 4
  0019b	4a		 dec	 edx
  0019c	75 f4		 jne	 SHORT $LL104@LoadInt_e@2

; 120  : 		return LoadInt(_k, i);

  0019e	ff 75 0c	 push	 DWORD PTR _i$[ebp]
  001a1	80 75 f4 ed	 xor	 BYTE PTR __k$[ebp+12], -19 ; ffffffedH
  001a5	8d 45 e8	 lea	 eax, DWORD PTR __k$[ebp]
  001a8	50		 push	 eax
  001a9	8b ce		 mov	 ecx, esi
  001ab	ff 15 00 00 00
	00		 call	 DWORD PTR __imp_?LoadInt@ioINILoader@@QAEHPBDH@Z

; 121  : 	}

  001b1	8b 4d fc	 mov	 ecx, DWORD PTR __$ArrayPad$[ebp]
  001b4	33 cd		 xor	 ecx, ebp
  001b6	5e		 pop	 esi
  001b7	e8 00 00 00 00	 call	 @__security_check_cookie@4
  001bc	c9		 leave
  001bd	c2 08 00	 ret	 8
??$LoadInt_e@$0O@@ioINILoader@@QAEHAAY0O@$$CBDH@Z ENDP	; ioINILoader::LoadInt_e<14>
_TEXT	ENDS
PUBLIC	_this$GSCopy$
PUBLIC	__$ArrayPad$
PUBLIC	??$LoadString_e@$0BH@@ioINILoader@@QAEXAAY0BH@$$CBDAAY00$$CBDPADH@Z ; ioINILoader::LoadString_e<23>
; Function compile flags: /Ogsp
;	COMDAT ??$LoadString_e@$0BH@@ioINILoader@@QAEXAAY0BH@$$CBDAAY00$$CBDPADH@Z
_TEXT	SEGMENT
_this$GSCopy$ = -36					; size = 4
__k$ = -32						; size = 23
__$ArrayPad$ = -4					; size = 4
_k$ = 8							; size = 4
_d$ = 12						; size = 4
_b$ = 16						; size = 4
_i$ = 20						; size = 4
??$LoadString_e@$0BH@@ioINILoader@@QAEXAAY0BH@$$CBDAAY00$$CBDPADH@Z PROC ; ioINILoader::LoadString_e<23>, COMDAT
; _this$ = ecx

; 161  : 	{

  00000	55		 push	 ebp
  00001	8b ec		 mov	 ebp, esp
  00003	83 ec 24	 sub	 esp, 36			; 00000024H
  00006	a1 00 00 00 00	 mov	 eax, DWORD PTR ___security_cookie
  0000b	33 c5		 xor	 eax, ebp
  0000d	89 45 fc	 mov	 DWORD PTR __$ArrayPad$[ebp], eax
  00010	8b 45 08	 mov	 eax, DWORD PTR _k$[ebp]

; 162  : 		_ENCSTR(k, _k);

  00013	8a 10		 mov	 dl, BYTE PTR [eax]
  00015	53		 push	 ebx
  00016	56		 push	 esi
  00017	8b 75 0c	 mov	 esi, DWORD PTR _d$[ebp]
  0001a	57		 push	 edi
  0001b	8b 7d 10	 mov	 edi, DWORD PTR _b$[ebp]
  0001e	89 4d dc	 mov	 DWORD PTR _this$GSCopy$[ebp], ecx
  00021	84 d2		 test	 dl, dl
  00023	0f 84 2d 02 00
	00		 je	 $LN96@LoadString@4
  00029	80 f2 ed	 xor	 dl, -19			; ffffffedH
  0002c	88 55 e0	 mov	 BYTE PTR __k$[ebp], dl
  0002f	8a 50 01	 mov	 dl, BYTE PTR [eax+1]
  00032	84 d2		 test	 dl, dl
  00034	0f 84 16 02 00
	00		 je	 $LN95@LoadString@4
  0003a	b1 ec		 mov	 cl, -20			; ffffffecH
  0003c	32 d1		 xor	 dl, cl
  0003e	88 55 e1	 mov	 BYTE PTR __k$[ebp+1], dl
  00041	8a 50 02	 mov	 dl, BYTE PTR [eax+2]
  00044	84 d2		 test	 dl, dl
  00046	0f 84 fe 01 00
	00		 je	 $LN94@LoadString@4
  0004c	80 f2 eb	 xor	 dl, -21			; ffffffebH
  0004f	88 55 e2	 mov	 BYTE PTR __k$[ebp+2], dl
  00052	8a 50 03	 mov	 dl, BYTE PTR [eax+3]
  00055	84 d2		 test	 dl, dl
  00057	0f 84 e7 01 00
	00		 je	 $LN93@LoadString@4
  0005d	b3 ea		 mov	 bl, -22			; ffffffeaH
  0005f	32 d3		 xor	 dl, bl
  00061	88 55 e3	 mov	 BYTE PTR __k$[ebp+3], dl
  00064	8a 50 04	 mov	 dl, BYTE PTR [eax+4]
  00067	84 d2		 test	 dl, dl
  00069	0f 84 cf 01 00
	00		 je	 $LN92@LoadString@4
  0006f	80 f2 ed	 xor	 dl, -19			; ffffffedH
  00072	88 55 e4	 mov	 BYTE PTR __k$[ebp+4], dl
  00075	8a 50 05	 mov	 dl, BYTE PTR [eax+5]
  00078	84 d2		 test	 dl, dl
  0007a	0f 84 b9 01 00
	00		 je	 $LN91@LoadString@4
  00080	32 d1		 xor	 dl, cl
  00082	88 55 e5	 mov	 BYTE PTR __k$[ebp+5], dl
  00085	8a 50 06	 mov	 dl, BYTE PTR [eax+6]
  00088	84 d2		 test	 dl, dl
  0008a	0f 84 a3 01 00
	00		 je	 $LN90@LoadString@4
  00090	80 f2 eb	 xor	 dl, -21			; ffffffebH
  00093	88 55 e6	 mov	 BYTE PTR __k$[ebp+6], dl
  00096	8a 50 07	 mov	 dl, BYTE PTR [eax+7]
  00099	84 d2		 test	 dl, dl
  0009b	0f 84 8d 01 00
	00		 je	 $LN89@LoadString@4
  000a1	32 d3		 xor	 dl, bl
  000a3	88 55 e7	 mov	 BYTE PTR __k$[ebp+7], dl
  000a6	8a 50 08	 mov	 dl, BYTE PTR [eax+8]
  000a9	84 d2		 test	 dl, dl
  000ab	0f 84 77 01 00
	00		 je	 $LN88@LoadString@4
  000b1	80 f2 ed	 xor	 dl, -19			; ffffffedH
  000b4	88 55 e8	 mov	 BYTE PTR __k$[ebp+8], dl
  000b7	8a 50 09	 mov	 dl, BYTE PTR [eax+9]
  000ba	84 d2		 test	 dl, dl
  000bc	0f 84 61 01 00
	00		 je	 $LN87@LoadString@4
  000c2	32 d1		 xor	 dl, cl
  000c4	88 55 e9	 mov	 BYTE PTR __k$[ebp+9], dl
  000c7	8a 50 0a	 mov	 dl, BYTE PTR [eax+10]
  000ca	84 d2		 test	 dl, dl
  000cc	0f 84 4b 01 00
	00		 je	 $LN86@LoadString@4
  000d2	80 f2 eb	 xor	 dl, -21			; ffffffebH
  000d5	88 55 ea	 mov	 BYTE PTR __k$[ebp+10], dl
  000d8	8a 50 0b	 mov	 dl, BYTE PTR [eax+11]
  000db	84 d2		 test	 dl, dl
  000dd	0f 84 35 01 00
	00		 je	 $LN85@LoadString@4
  000e3	32 d3		 xor	 dl, bl
  000e5	88 55 eb	 mov	 BYTE PTR __k$[ebp+11], dl
  000e8	8a 50 0c	 mov	 dl, BYTE PTR [eax+12]
  000eb	84 d2		 test	 dl, dl
  000ed	0f 84 1f 01 00
	00		 je	 $LN84@LoadString@4
  000f3	80 f2 ed	 xor	 dl, -19			; ffffffedH
  000f6	88 55 ec	 mov	 BYTE PTR __k$[ebp+12], dl
  000f9	8a 50 0d	 mov	 dl, BYTE PTR [eax+13]
  000fc	84 d2		 test	 dl, dl
  000fe	0f 84 09 01 00
	00		 je	 $LN83@LoadString@4
  00104	32 d1		 xor	 dl, cl
  00106	88 55 ed	 mov	 BYTE PTR __k$[ebp+13], dl
  00109	8a 50 0e	 mov	 dl, BYTE PTR [eax+14]
  0010c	84 d2		 test	 dl, dl
  0010e	0f 84 f3 00 00
	00		 je	 $LN82@LoadString@4
  00114	80 f2 eb	 xor	 dl, -21			; ffffffebH
  00117	88 55 ee	 mov	 BYTE PTR __k$[ebp+14], dl
  0011a	8a 50 0f	 mov	 dl, BYTE PTR [eax+15]
  0011d	84 d2		 test	 dl, dl
  0011f	0f 84 dd 00 00
	00		 je	 $LN81@LoadString@4
  00125	32 d3		 xor	 dl, bl
  00127	88 55 ef	 mov	 BYTE PTR __k$[ebp+15], dl
  0012a	8a 50 10	 mov	 dl, BYTE PTR [eax+16]
  0012d	84 d2		 test	 dl, dl
  0012f	0f 84 c7 00 00
	00		 je	 $LN80@LoadString@4
  00135	80 f2 ed	 xor	 dl, -19			; ffffffedH
  00138	88 55 f0	 mov	 BYTE PTR __k$[ebp+16], dl
  0013b	8a 50 11	 mov	 dl, BYTE PTR [eax+17]
  0013e	84 d2		 test	 dl, dl
  00140	0f 84 b1 00 00
	00		 je	 $LN79@LoadString@4
  00146	32 d1		 xor	 dl, cl
  00148	88 55 f1	 mov	 BYTE PTR __k$[ebp+17], dl
  0014b	8a 50 12	 mov	 dl, BYTE PTR [eax+18]
  0014e	84 d2		 test	 dl, dl
  00150	0f 84 9b 00 00
	00		 je	 $LN78@LoadString@4
  00156	80 f2 eb	 xor	 dl, -21			; ffffffebH
  00159	88 55 f2	 mov	 BYTE PTR __k$[ebp+18], dl
  0015c	8a 50 13	 mov	 dl, BYTE PTR [eax+19]
  0015f	84 d2		 test	 dl, dl
  00161	0f 84 85 00 00
	00		 je	 $LN77@LoadString@4
  00167	32 d3		 xor	 dl, bl
  00169	88 55 f3	 mov	 BYTE PTR __k$[ebp+19], dl
  0016c	8a 50 14	 mov	 dl, BYTE PTR [eax+20]
  0016f	84 d2		 test	 dl, dl
  00171	74 73		 je	 SHORT $LN76@LoadString@4
  00173	80 f2 ed	 xor	 dl, -19			; ffffffedH
  00176	88 55 f4	 mov	 BYTE PTR __k$[ebp+20], dl
  00179	8a 50 15	 mov	 dl, BYTE PTR [eax+21]
  0017c	84 d2		 test	 dl, dl
  0017e	74 61		 je	 SHORT $LN75@LoadString@4
  00180	32 d1		 xor	 dl, cl
  00182	80 78 16 00	 cmp	 BYTE PTR [eax+22], 0
  00186	88 55 f5	 mov	 BYTE PTR __k$[ebp+21], dl
  00189	0f 84 cb 00 00
	00		 je	 $LN111@LoadString@4
  0018f	8a 50 17	 mov	 dl, BYTE PTR [eax+23]
  00192	84 d2		 test	 dl, dl
  00194	74 46		 je	 SHORT $LN73@LoadString@4
  00196	32 d3		 xor	 dl, bl
  00198	88 55 f7	 mov	 BYTE PTR __k$[ebp+23], dl
  0019b	8a 50 18	 mov	 dl, BYTE PTR [eax+24]
  0019e	84 d2		 test	 dl, dl
  001a0	74 34		 je	 SHORT $LN72@LoadString@4
  001a2	80 f2 ed	 xor	 dl, -19			; ffffffedH
  001a5	88 55 f8	 mov	 BYTE PTR __k$[ebp+24], dl
  001a8	8a 50 19	 mov	 dl, BYTE PTR [eax+25]
  001ab	84 d2		 test	 dl, dl
  001ad	74 1f		 je	 SHORT $LN71@LoadString@4
  001af	8a 40 1a	 mov	 al, BYTE PTR [eax+26]
  001b2	32 d1		 xor	 dl, cl
  001b4	88 55 f9	 mov	 BYTE PTR __k$[ebp+25], dl
  001b7	84 c0		 test	 al, al
  001b9	74 0a		 je	 SHORT $LN70@LoadString@4
  001bb	34 eb		 xor	 al, -21			; ffffffebH
  001bd	88 45 fa	 mov	 BYTE PTR __k$[ebp+26], al
  001c0	e9 95 00 00 00	 jmp	 $LN111@LoadString@4
$LN70@LoadString@4:
  001c5	c6 45 fa eb	 mov	 BYTE PTR __k$[ebp+26], -21 ; ffffffebH
  001c9	e9 8c 00 00 00	 jmp	 $LN111@LoadString@4
$LN71@LoadString@4:
  001ce	88 4d f9	 mov	 BYTE PTR __k$[ebp+25], cl
  001d1	e9 84 00 00 00	 jmp	 $LN111@LoadString@4
$LN72@LoadString@4:
  001d6	c6 45 f8 ed	 mov	 BYTE PTR __k$[ebp+24], -19 ; ffffffedH
  001da	eb 7e		 jmp	 SHORT $LN111@LoadString@4
$LN73@LoadString@4:
  001dc	88 5d f7	 mov	 BYTE PTR __k$[ebp+23], bl
  001df	eb 79		 jmp	 SHORT $LN111@LoadString@4
$LN75@LoadString@4:
  001e1	88 4d f5	 mov	 BYTE PTR __k$[ebp+21], cl
  001e4	eb 74		 jmp	 SHORT $LN111@LoadString@4
$LN76@LoadString@4:
  001e6	c6 45 f4 ed	 mov	 BYTE PTR __k$[ebp+20], -19 ; ffffffedH
  001ea	eb 6e		 jmp	 SHORT $LN111@LoadString@4
$LN77@LoadString@4:
  001ec	88 5d f3	 mov	 BYTE PTR __k$[ebp+19], bl
  001ef	eb 69		 jmp	 SHORT $LN111@LoadString@4
$LN78@LoadString@4:
  001f1	c6 45 f2 eb	 mov	 BYTE PTR __k$[ebp+18], -21 ; ffffffebH
  001f5	eb 63		 jmp	 SHORT $LN111@LoadString@4
$LN79@LoadString@4:
  001f7	88 4d f1	 mov	 BYTE PTR __k$[ebp+17], cl
  001fa	eb 5e		 jmp	 SHORT $LN111@LoadString@4
$LN80@LoadString@4:
  001fc	c6 45 f0 ed	 mov	 BYTE PTR __k$[ebp+16], -19 ; ffffffedH
  00200	eb 58		 jmp	 SHORT $LN111@LoadString@4
$LN81@LoadString@4:
  00202	88 5d ef	 mov	 BYTE PTR __k$[ebp+15], bl
  00205	eb 53		 jmp	 SHORT $LN111@LoadString@4
$LN82@LoadString@4:
  00207	c6 45 ee eb	 mov	 BYTE PTR __k$[ebp+14], -21 ; ffffffebH
  0020b	eb 4d		 jmp	 SHORT $LN111@LoadString@4
$LN83@LoadString@4:
  0020d	88 4d ed	 mov	 BYTE PTR __k$[ebp+13], cl
  00210	eb 48		 jmp	 SHORT $LN111@LoadString@4
$LN84@LoadString@4:
  00212	c6 45 ec ed	 mov	 BYTE PTR __k$[ebp+12], -19 ; ffffffedH
  00216	eb 42		 jmp	 SHORT $LN111@LoadString@4
$LN85@LoadString@4:
  00218	88 5d eb	 mov	 BYTE PTR __k$[ebp+11], bl
  0021b	eb 3d		 jmp	 SHORT $LN111@LoadString@4
$LN86@LoadString@4:
  0021d	c6 45 ea eb	 mov	 BYTE PTR __k$[ebp+10], -21 ; ffffffebH
  00221	eb 37		 jmp	 SHORT $LN111@LoadString@4
$LN87@LoadString@4:
  00223	88 4d e9	 mov	 BYTE PTR __k$[ebp+9], cl
  00226	eb 32		 jmp	 SHORT $LN111@LoadString@4
$LN88@LoadString@4:
  00228	c6 45 e8 ed	 mov	 BYTE PTR __k$[ebp+8], -19 ; ffffffedH
  0022c	eb 2c		 jmp	 SHORT $LN111@LoadString@4
$LN89@LoadString@4:
  0022e	88 5d e7	 mov	 BYTE PTR __k$[ebp+7], bl
  00231	eb 27		 jmp	 SHORT $LN111@LoadString@4
$LN90@LoadString@4:
  00233	c6 45 e6 eb	 mov	 BYTE PTR __k$[ebp+6], -21 ; ffffffebH
  00237	eb 21		 jmp	 SHORT $LN111@LoadString@4
$LN91@LoadString@4:
  00239	88 4d e5	 mov	 BYTE PTR __k$[ebp+5], cl
  0023c	eb 1c		 jmp	 SHORT $LN111@LoadString@4
$LN92@LoadString@4:
  0023e	c6 45 e4 ed	 mov	 BYTE PTR __k$[ebp+4], -19 ; ffffffedH
  00242	eb 16		 jmp	 SHORT $LN111@LoadString@4
$LN93@LoadString@4:
  00244	c6 45 e3 ea	 mov	 BYTE PTR __k$[ebp+3], -22 ; ffffffeaH
  00248	eb 10		 jmp	 SHORT $LN111@LoadString@4
$LN94@LoadString@4:
  0024a	c6 45 e2 eb	 mov	 BYTE PTR __k$[ebp+2], -21 ; ffffffebH
  0024e	eb 0a		 jmp	 SHORT $LN111@LoadString@4
$LN95@LoadString@4:
  00250	c6 45 e1 ec	 mov	 BYTE PTR __k$[ebp+1], -20 ; ffffffecH
  00254	eb 04		 jmp	 SHORT $LN111@LoadString@4
$LN96@LoadString@4:
  00256	c6 45 e0 ed	 mov	 BYTE PTR __k$[ebp], -19	; ffffffedH
$LN111@LoadString@4:
  0025a	6a 05		 push	 5
  0025c	8d 45 e0	 lea	 eax, DWORD PTR __k$[ebp]
  0025f	c6 45 f6 00	 mov	 BYTE PTR __k$[ebp+22], 0
  00263	5a		 pop	 edx
$LL104@LoadString@4:
  00264	81 30 ed ec eb
	ea		 xor	 DWORD PTR [eax], -353637139 ; eaebecedH
  0026a	83 c0 04	 add	 eax, 4
  0026d	4a		 dec	 edx
  0026e	75 f4		 jne	 SHORT $LL104@LoadString@4
  00270	6a 14		 push	 20			; 00000014H
  00272	58		 pop	 eax
$LL101@LoadString@4:
  00273	8b c8		 mov	 ecx, eax
  00275	81 e1 03 00 00
	80		 and	 ecx, -2147483645	; 80000003H
  0027b	79 05		 jns	 SHORT $LN112@LoadString@4
  0027d	49		 dec	 ecx
  0027e	83 c9 fc	 or	 ecx, -4			; fffffffcH
  00281	41		 inc	 ecx
$LN112@LoadString@4:
  00282	b2 ed		 mov	 dl, -19			; ffffffedH
  00284	2a d1		 sub	 dl, cl
  00286	30 54 05 e0	 xor	 BYTE PTR __k$[ebp+eax], dl
  0028a	40		 inc	 eax
  0028b	83 f8 16	 cmp	 eax, 22			; 00000016H
  0028e	7c e3		 jl	 SHORT $LL101@LoadString@4

; 163  : 		LoadString(_k, d, b, i);

  00290	ff 75 14	 push	 DWORD PTR _i$[ebp]
  00293	8b 4d dc	 mov	 ecx, DWORD PTR _this$GSCopy$[ebp]
  00296	57		 push	 edi
  00297	56		 push	 esi
  00298	8d 45 e0	 lea	 eax, DWORD PTR __k$[ebp]
  0029b	50		 push	 eax
  0029c	ff 15 00 00 00
	00		 call	 DWORD PTR __imp_?LoadStringA@ioINILoader@@QAEXPBD0PADH@Z

; 164  : 	}

  002a2	8b 4d fc	 mov	 ecx, DWORD PTR __$ArrayPad$[ebp]
  002a5	5f		 pop	 edi
  002a6	5e		 pop	 esi
  002a7	33 cd		 xor	 ecx, ebp
  002a9	5b		 pop	 ebx
  002aa	e8 00 00 00 00	 call	 @__security_check_cookie@4
  002af	c9		 leave
  002b0	c2 10 00	 ret	 16			; 00000010H
??$LoadString_e@$0BH@@ioINILoader@@QAEXAAY0BH@$$CBDAAY00$$CBDPADH@Z ENDP ; ioINILoader::LoadString_e<23>
_TEXT	ENDS
PUBLIC	__$ArrayPad$
PUBLIC	??$LoadFloat_e@$0CA@@ioINILoader@@QAEMAAY0CA@$$CBDM@Z ; ioINILoader::LoadFloat_e<32>
; Function compile flags: /Ogsp
;	COMDAT ??$LoadFloat_e@$0CA@@ioINILoader@@QAEMAAY0CA@$$CBDM@Z
_TEXT	SEGMENT
__k$ = -40						; size = 32
__$ArrayPad$ = -4					; size = 4
_k$ = 8							; size = 4
_f$ = 12						; size = 4
??$LoadFloat_e@$0CA@@ioINILoader@@QAEMAAY0CA@$$CBDM@Z PROC ; ioINILoader::LoadFloat_e<32>, COMDAT
; _this$ = ecx

; 135  : 	{

  00000	55		 push	 ebp
  00001	8b ec		 mov	 ebp, esp
  00003	83 ec 28	 sub	 esp, 40			; 00000028H
  00006	a1 00 00 00 00	 mov	 eax, DWORD PTR ___security_cookie
  0000b	33 c5		 xor	 eax, ebp
  0000d	89 45 fc	 mov	 DWORD PTR __$ArrayPad$[ebp], eax
  00010	8b 45 08	 mov	 eax, DWORD PTR _k$[ebp]

; 136  : 		_ENCSTR(k, _k);

  00013	8a 10		 mov	 dl, BYTE PTR [eax]
  00015	53		 push	 ebx
  00016	56		 push	 esi
  00017	8b f1		 mov	 esi, ecx
  00019	84 d2		 test	 dl, dl
  0001b	0f 84 0d 03 00
	00		 je	 $LN96@LoadFloat_@4
  00021	80 f2 ed	 xor	 dl, -19			; ffffffedH
  00024	88 55 d8	 mov	 BYTE PTR __k$[ebp], dl
  00027	8a 50 01	 mov	 dl, BYTE PTR [eax+1]
  0002a	84 d2		 test	 dl, dl
  0002c	0f 84 f6 02 00
	00		 je	 $LN95@LoadFloat_@4
  00032	b3 ec		 mov	 bl, -20			; ffffffecH
  00034	32 d3		 xor	 dl, bl
  00036	88 55 d9	 mov	 BYTE PTR __k$[ebp+1], dl
  00039	8a 50 02	 mov	 dl, BYTE PTR [eax+2]
  0003c	84 d2		 test	 dl, dl
  0003e	0f 84 de 02 00
	00		 je	 $LN94@LoadFloat_@4
  00044	b1 eb		 mov	 cl, -21			; ffffffebH
  00046	32 d1		 xor	 dl, cl
  00048	88 55 da	 mov	 BYTE PTR __k$[ebp+2], dl
  0004b	8a 50 03	 mov	 dl, BYTE PTR [eax+3]
  0004e	84 d2		 test	 dl, dl
  00050	0f 84 c6 02 00
	00		 je	 $LN93@LoadFloat_@4
  00056	80 f2 ea	 xor	 dl, -22			; ffffffeaH
  00059	88 55 db	 mov	 BYTE PTR __k$[ebp+3], dl
  0005c	8a 50 04	 mov	 dl, BYTE PTR [eax+4]
  0005f	84 d2		 test	 dl, dl
  00061	0f 84 af 02 00
	00		 je	 $LN92@LoadFloat_@4
  00067	80 f2 ed	 xor	 dl, -19			; ffffffedH
  0006a	88 55 dc	 mov	 BYTE PTR __k$[ebp+4], dl
  0006d	8a 50 05	 mov	 dl, BYTE PTR [eax+5]
  00070	84 d2		 test	 dl, dl
  00072	0f 84 99 02 00
	00		 je	 $LN91@LoadFloat_@4
  00078	32 d3		 xor	 dl, bl
  0007a	88 55 dd	 mov	 BYTE PTR __k$[ebp+5], dl
  0007d	8a 50 06	 mov	 dl, BYTE PTR [eax+6]
  00080	84 d2		 test	 dl, dl
  00082	0f 84 84 02 00
	00		 je	 $LN90@LoadFloat_@4
  00088	32 d1		 xor	 dl, cl
  0008a	88 55 de	 mov	 BYTE PTR __k$[ebp+6], dl
  0008d	8a 50 07	 mov	 dl, BYTE PTR [eax+7]
  00090	84 d2		 test	 dl, dl
  00092	0f 84 6e 02 00
	00		 je	 $LN89@LoadFloat_@4
  00098	80 f2 ea	 xor	 dl, -22			; ffffffeaH
  0009b	88 55 df	 mov	 BYTE PTR __k$[ebp+7], dl
  0009e	8a 50 08	 mov	 dl, BYTE PTR [eax+8]
  000a1	84 d2		 test	 dl, dl
  000a3	0f 84 57 02 00
	00		 je	 $LN88@LoadFloat_@4
  000a9	80 f2 ed	 xor	 dl, -19			; ffffffedH
  000ac	88 55 e0	 mov	 BYTE PTR __k$[ebp+8], dl
  000af	8a 50 09	 mov	 dl, BYTE PTR [eax+9]
  000b2	84 d2		 test	 dl, dl
  000b4	0f 84 41 02 00
	00		 je	 $LN87@LoadFloat_@4
  000ba	32 d3		 xor	 dl, bl
  000bc	88 55 e1	 mov	 BYTE PTR __k$[ebp+9], dl
  000bf	8a 50 0a	 mov	 dl, BYTE PTR [eax+10]
  000c2	84 d2		 test	 dl, dl
  000c4	0f 84 2c 02 00
	00		 je	 $LN86@LoadFloat_@4
  000ca	32 d1		 xor	 dl, cl
  000cc	88 55 e2	 mov	 BYTE PTR __k$[ebp+10], dl
  000cf	8a 50 0b	 mov	 dl, BYTE PTR [eax+11]
  000d2	84 d2		 test	 dl, dl
  000d4	0f 84 16 02 00
	00		 je	 $LN85@LoadFloat_@4
  000da	80 f2 ea	 xor	 dl, -22			; ffffffeaH
  000dd	88 55 e3	 mov	 BYTE PTR __k$[ebp+11], dl
  000e0	8a 50 0c	 mov	 dl, BYTE PTR [eax+12]
  000e3	84 d2		 test	 dl, dl
  000e5	0f 84 ff 01 00
	00		 je	 $LN84@LoadFloat_@4
  000eb	80 f2 ed	 xor	 dl, -19			; ffffffedH
  000ee	88 55 e4	 mov	 BYTE PTR __k$[ebp+12], dl
  000f1	8a 50 0d	 mov	 dl, BYTE PTR [eax+13]
  000f4	84 d2		 test	 dl, dl
  000f6	0f 84 e9 01 00
	00		 je	 $LN83@LoadFloat_@4
  000fc	32 d3		 xor	 dl, bl
  000fe	88 55 e5	 mov	 BYTE PTR __k$[ebp+13], dl
  00101	8a 50 0e	 mov	 dl, BYTE PTR [eax+14]
  00104	84 d2		 test	 dl, dl
  00106	0f 84 d4 01 00
	00		 je	 $LN82@LoadFloat_@4
  0010c	32 d1		 xor	 dl, cl
  0010e	88 55 e6	 mov	 BYTE PTR __k$[ebp+14], dl
  00111	8a 50 0f	 mov	 dl, BYTE PTR [eax+15]
  00114	84 d2		 test	 dl, dl
  00116	0f 84 be 01 00
	00		 je	 $LN81@LoadFloat_@4
  0011c	80 f2 ea	 xor	 dl, -22			; ffffffeaH
  0011f	88 55 e7	 mov	 BYTE PTR __k$[ebp+15], dl
  00122	8a 50 10	 mov	 dl, BYTE PTR [eax+16]
  00125	84 d2		 test	 dl, dl
  00127	0f 84 a7 01 00
	00		 je	 $LN80@LoadFloat_@4
  0012d	80 f2 ed	 xor	 dl, -19			; ffffffedH
  00130	88 55 e8	 mov	 BYTE PTR __k$[ebp+16], dl
  00133	8a 50 11	 mov	 dl, BYTE PTR [eax+17]
  00136	84 d2		 test	 dl, dl
  00138	0f 84 91 01 00
	00		 je	 $LN79@LoadFloat_@4
  0013e	32 d3		 xor	 dl, bl
  00140	88 55 e9	 mov	 BYTE PTR __k$[ebp+17], dl
  00143	8a 50 12	 mov	 dl, BYTE PTR [eax+18]
  00146	84 d2		 test	 dl, dl
  00148	0f 84 7c 01 00
	00		 je	 $LN78@LoadFloat_@4
  0014e	32 d1		 xor	 dl, cl
  00150	88 55 ea	 mov	 BYTE PTR __k$[ebp+18], dl
  00153	8a 50 13	 mov	 dl, BYTE PTR [eax+19]
  00156	84 d2		 test	 dl, dl
  00158	0f 84 66 01 00
	00		 je	 $LN77@LoadFloat_@4
  0015e	80 f2 ea	 xor	 dl, -22			; ffffffeaH
  00161	88 55 eb	 mov	 BYTE PTR __k$[ebp+19], dl
  00164	8a 50 14	 mov	 dl, BYTE PTR [eax+20]
  00167	84 d2		 test	 dl, dl
  00169	0f 84 4f 01 00
	00		 je	 $LN76@LoadFloat_@4
  0016f	80 f2 ed	 xor	 dl, -19			; ffffffedH
  00172	88 55 ec	 mov	 BYTE PTR __k$[ebp+20], dl
  00175	8a 50 15	 mov	 dl, BYTE PTR [eax+21]
  00178	84 d2		 test	 dl, dl
  0017a	0f 84 39 01 00
	00		 je	 $LN75@LoadFloat_@4
  00180	32 d3		 xor	 dl, bl
  00182	88 55 ed	 mov	 BYTE PTR __k$[ebp+21], dl
  00185	8a 50 16	 mov	 dl, BYTE PTR [eax+22]
  00188	84 d2		 test	 dl, dl
  0018a	0f 84 24 01 00
	00		 je	 $LN74@LoadFloat_@4
  00190	32 d1		 xor	 dl, cl
  00192	88 55 ee	 mov	 BYTE PTR __k$[ebp+22], dl
  00195	8a 50 17	 mov	 dl, BYTE PTR [eax+23]
  00198	84 d2		 test	 dl, dl
  0019a	0f 84 0e 01 00
	00		 je	 $LN73@LoadFloat_@4
  001a0	80 f2 ea	 xor	 dl, -22			; ffffffeaH
  001a3	88 55 ef	 mov	 BYTE PTR __k$[ebp+23], dl
  001a6	8a 50 18	 mov	 dl, BYTE PTR [eax+24]
  001a9	84 d2		 test	 dl, dl
  001ab	0f 84 f4 00 00
	00		 je	 $LN72@LoadFloat_@4
  001b1	80 f2 ed	 xor	 dl, -19			; ffffffedH
  001b4	88 55 f0	 mov	 BYTE PTR __k$[ebp+24], dl
  001b7	8a 50 19	 mov	 dl, BYTE PTR [eax+25]
  001ba	84 d2		 test	 dl, dl
  001bc	0f 84 db 00 00
	00		 je	 $LN71@LoadFloat_@4
  001c2	32 d3		 xor	 dl, bl
  001c4	88 55 f1	 mov	 BYTE PTR __k$[ebp+25], dl
  001c7	8a 50 1a	 mov	 dl, BYTE PTR [eax+26]
  001ca	84 d2		 test	 dl, dl
  001cc	0f 84 c3 00 00
	00		 je	 $LN70@LoadFloat_@4
  001d2	32 d1		 xor	 dl, cl
  001d4	88 55 f2	 mov	 BYTE PTR __k$[ebp+26], dl
  001d7	8a 50 1b	 mov	 dl, BYTE PTR [eax+27]
  001da	84 d2		 test	 dl, dl
  001dc	0f 84 aa 00 00
	00		 je	 $LN69@LoadFloat_@4
  001e2	80 f2 ea	 xor	 dl, -22			; ffffffeaH
  001e5	88 55 f3	 mov	 BYTE PTR __k$[ebp+27], dl
  001e8	8a 50 1c	 mov	 dl, BYTE PTR [eax+28]
  001eb	84 d2		 test	 dl, dl
  001ed	0f 84 90 00 00
	00		 je	 $LN68@LoadFloat_@4
  001f3	80 f2 ed	 xor	 dl, -19			; ffffffedH
  001f6	88 55 f4	 mov	 BYTE PTR __k$[ebp+28], dl
  001f9	8a 50 1d	 mov	 dl, BYTE PTR [eax+29]
  001fc	84 d2		 test	 dl, dl
  001fe	74 7b		 je	 SHORT $LN67@LoadFloat_@4
  00200	32 d3		 xor	 dl, bl
  00202	88 55 f5	 mov	 BYTE PTR __k$[ebp+29], dl
  00205	8a 50 1e	 mov	 dl, BYTE PTR [eax+30]
  00208	84 d2		 test	 dl, dl
  0020a	74 67		 je	 SHORT $LN66@LoadFloat_@4
  0020c	32 d1		 xor	 dl, cl
  0020e	80 78 1f 00	 cmp	 BYTE PTR [eax+31], 0
  00212	88 55 f6	 mov	 BYTE PTR __k$[ebp+30], dl
  00215	0f 84 17 01 00
	00		 je	 $LN1@LoadFloat_@4
  0021b	8a 50 20	 mov	 dl, BYTE PTR [eax+32]
  0021e	84 d2		 test	 dl, dl
  00220	74 48		 je	 SHORT $LN64@LoadFloat_@4
  00222	80 f2 ed	 xor	 dl, -19			; ffffffedH
  00225	88 55 f8	 mov	 BYTE PTR __k$[ebp+32], dl
  00228	8a 50 21	 mov	 dl, BYTE PTR [eax+33]
  0022b	84 d2		 test	 dl, dl
  0022d	74 33		 je	 SHORT $LN63@LoadFloat_@4
  0022f	32 d3		 xor	 dl, bl
  00231	88 55 f9	 mov	 BYTE PTR __k$[ebp+33], dl
  00234	8a 50 22	 mov	 dl, BYTE PTR [eax+34]
  00237	84 d2		 test	 dl, dl
  00239	74 1f		 je	 SHORT $LN62@LoadFloat_@4
  0023b	8a 40 23	 mov	 al, BYTE PTR [eax+35]
  0023e	32 d1		 xor	 dl, cl
  00240	88 55 fa	 mov	 BYTE PTR __k$[ebp+34], dl
  00243	84 c0		 test	 al, al
  00245	74 0a		 je	 SHORT $LN61@LoadFloat_@4
  00247	34 ea		 xor	 al, -22			; ffffffeaH
  00249	88 45 fb	 mov	 BYTE PTR __k$[ebp+35], al
  0024c	e9 e1 00 00 00	 jmp	 $LN1@LoadFloat_@4
$LN61@LoadFloat_@4:
  00251	c6 45 fb ea	 mov	 BYTE PTR __k$[ebp+35], -22 ; ffffffeaH
  00255	e9 d8 00 00 00	 jmp	 $LN1@LoadFloat_@4
$LN62@LoadFloat_@4:
  0025a	88 4d fa	 mov	 BYTE PTR __k$[ebp+34], cl
  0025d	e9 d0 00 00 00	 jmp	 $LN1@LoadFloat_@4
$LN63@LoadFloat_@4:
  00262	88 5d f9	 mov	 BYTE PTR __k$[ebp+33], bl
  00265	e9 c8 00 00 00	 jmp	 $LN1@LoadFloat_@4
$LN64@LoadFloat_@4:
  0026a	c6 45 f8 ed	 mov	 BYTE PTR __k$[ebp+32], -19 ; ffffffedH
  0026e	e9 bf 00 00 00	 jmp	 $LN1@LoadFloat_@4
$LN66@LoadFloat_@4:
  00273	88 4d f6	 mov	 BYTE PTR __k$[ebp+30], cl
  00276	e9 b7 00 00 00	 jmp	 $LN1@LoadFloat_@4
$LN67@LoadFloat_@4:
  0027b	88 5d f5	 mov	 BYTE PTR __k$[ebp+29], bl
  0027e	e9 af 00 00 00	 jmp	 $LN1@LoadFloat_@4
$LN68@LoadFloat_@4:
  00283	c6 45 f4 ed	 mov	 BYTE PTR __k$[ebp+28], -19 ; ffffffedH
  00287	e9 a6 00 00 00	 jmp	 $LN1@LoadFloat_@4
$LN69@LoadFloat_@4:
  0028c	c6 45 f3 ea	 mov	 BYTE PTR __k$[ebp+27], -22 ; ffffffeaH
  00290	e9 9d 00 00 00	 jmp	 $LN1@LoadFloat_@4
$LN70@LoadFloat_@4:
  00295	88 4d f2	 mov	 BYTE PTR __k$[ebp+26], cl
  00298	e9 95 00 00 00	 jmp	 $LN1@LoadFloat_@4
$LN71@LoadFloat_@4:
  0029d	88 5d f1	 mov	 BYTE PTR __k$[ebp+25], bl
  002a0	e9 8d 00 00 00	 jmp	 $LN1@LoadFloat_@4
$LN72@LoadFloat_@4:
  002a5	c6 45 f0 ed	 mov	 BYTE PTR __k$[ebp+24], -19 ; ffffffedH
  002a9	e9 84 00 00 00	 jmp	 $LN1@LoadFloat_@4
$LN73@LoadFloat_@4:
  002ae	c6 45 ef ea	 mov	 BYTE PTR __k$[ebp+23], -22 ; ffffffeaH
  002b2	eb 7e		 jmp	 SHORT $LN1@LoadFloat_@4
$LN74@LoadFloat_@4:
  002b4	88 4d ee	 mov	 BYTE PTR __k$[ebp+22], cl
  002b7	eb 79		 jmp	 SHORT $LN1@LoadFloat_@4
$LN75@LoadFloat_@4:
  002b9	88 5d ed	 mov	 BYTE PTR __k$[ebp+21], bl
  002bc	eb 74		 jmp	 SHORT $LN1@LoadFloat_@4
$LN76@LoadFloat_@4:
  002be	c6 45 ec ed	 mov	 BYTE PTR __k$[ebp+20], -19 ; ffffffedH
  002c2	eb 6e		 jmp	 SHORT $LN1@LoadFloat_@4
$LN77@LoadFloat_@4:
  002c4	c6 45 eb ea	 mov	 BYTE PTR __k$[ebp+19], -22 ; ffffffeaH
  002c8	eb 68		 jmp	 SHORT $LN1@LoadFloat_@4
$LN78@LoadFloat_@4:
  002ca	88 4d ea	 mov	 BYTE PTR __k$[ebp+18], cl
  002cd	eb 63		 jmp	 SHORT $LN1@LoadFloat_@4
$LN79@LoadFloat_@4:
  002cf	88 5d e9	 mov	 BYTE PTR __k$[ebp+17], bl
  002d2	eb 5e		 jmp	 SHORT $LN1@LoadFloat_@4
$LN80@LoadFloat_@4:
  002d4	c6 45 e8 ed	 mov	 BYTE PTR __k$[ebp+16], -19 ; ffffffedH
  002d8	eb 58		 jmp	 SHORT $LN1@LoadFloat_@4
$LN81@LoadFloat_@4:
  002da	c6 45 e7 ea	 mov	 BYTE PTR __k$[ebp+15], -22 ; ffffffeaH
  002de	eb 52		 jmp	 SHORT $LN1@LoadFloat_@4
$LN82@LoadFloat_@4:
  002e0	88 4d e6	 mov	 BYTE PTR __k$[ebp+14], cl
  002e3	eb 4d		 jmp	 SHORT $LN1@LoadFloat_@4
$LN83@LoadFloat_@4:
  002e5	88 5d e5	 mov	 BYTE PTR __k$[ebp+13], bl
  002e8	eb 48		 jmp	 SHORT $LN1@LoadFloat_@4
$LN84@LoadFloat_@4:
  002ea	c6 45 e4 ed	 mov	 BYTE PTR __k$[ebp+12], -19 ; ffffffedH
  002ee	eb 42		 jmp	 SHORT $LN1@LoadFloat_@4
$LN85@LoadFloat_@4:
  002f0	c6 45 e3 ea	 mov	 BYTE PTR __k$[ebp+11], -22 ; ffffffeaH
  002f4	eb 3c		 jmp	 SHORT $LN1@LoadFloat_@4
$LN86@LoadFloat_@4:
  002f6	88 4d e2	 mov	 BYTE PTR __k$[ebp+10], cl
  002f9	eb 37		 jmp	 SHORT $LN1@LoadFloat_@4
$LN87@LoadFloat_@4:
  002fb	88 5d e1	 mov	 BYTE PTR __k$[ebp+9], bl
  002fe	eb 32		 jmp	 SHORT $LN1@LoadFloat_@4
$LN88@LoadFloat_@4:
  00300	c6 45 e0 ed	 mov	 BYTE PTR __k$[ebp+8], -19 ; ffffffedH
  00304	eb 2c		 jmp	 SHORT $LN1@LoadFloat_@4
$LN89@LoadFloat_@4:
  00306	c6 45 df ea	 mov	 BYTE PTR __k$[ebp+7], -22 ; ffffffeaH
  0030a	eb 26		 jmp	 SHORT $LN1@LoadFloat_@4
$LN90@LoadFloat_@4:
  0030c	88 4d de	 mov	 BYTE PTR __k$[ebp+6], cl
  0030f	eb 21		 jmp	 SHORT $LN1@LoadFloat_@4
$LN91@LoadFloat_@4:
  00311	88 5d dd	 mov	 BYTE PTR __k$[ebp+5], bl
  00314	eb 1c		 jmp	 SHORT $LN1@LoadFloat_@4
$LN92@LoadFloat_@4:
  00316	c6 45 dc ed	 mov	 BYTE PTR __k$[ebp+4], -19 ; ffffffedH
  0031a	eb 16		 jmp	 SHORT $LN1@LoadFloat_@4
$LN93@LoadFloat_@4:
  0031c	c6 45 db ea	 mov	 BYTE PTR __k$[ebp+3], -22 ; ffffffeaH
  00320	eb 10		 jmp	 SHORT $LN1@LoadFloat_@4
$LN94@LoadFloat_@4:
  00322	c6 45 da eb	 mov	 BYTE PTR __k$[ebp+2], -21 ; ffffffebH
  00326	eb 0a		 jmp	 SHORT $LN1@LoadFloat_@4
$LN95@LoadFloat_@4:
  00328	c6 45 d9 ec	 mov	 BYTE PTR __k$[ebp+1], -20 ; ffffffecH
  0032c	eb 04		 jmp	 SHORT $LN1@LoadFloat_@4
$LN96@LoadFloat_@4:
  0032e	c6 45 d8 ed	 mov	 BYTE PTR __k$[ebp], -19	; ffffffedH
$LN1@LoadFloat_@4:
  00332	6a 07		 push	 7
  00334	8d 45 d8	 lea	 eax, DWORD PTR __k$[ebp]
  00337	c6 45 f7 00	 mov	 BYTE PTR __k$[ebp+31], 0
  0033b	5a		 pop	 edx
$LL104@LoadFloat_@4:
  0033c	81 30 ed ec eb
	ea		 xor	 DWORD PTR [eax], -353637139 ; eaebecedH
  00342	83 c0 04	 add	 eax, 4
  00345	4a		 dec	 edx
  00346	75 f4		 jne	 SHORT $LL104@LoadFloat_@4
  00348	6a 1c		 push	 28			; 0000001cH
  0034a	58		 pop	 eax
$LL101@LoadFloat_@4:
  0034b	8b c8		 mov	 ecx, eax
  0034d	81 e1 03 00 00
	80		 and	 ecx, -2147483645	; 80000003H
  00353	79 05		 jns	 SHORT $LN111@LoadFloat_@4
  00355	49		 dec	 ecx
  00356	83 c9 fc	 or	 ecx, -4			; fffffffcH
  00359	41		 inc	 ecx
$LN111@LoadFloat_@4:
  0035a	b2 ed		 mov	 dl, -19			; ffffffedH
  0035c	2a d1		 sub	 dl, cl
  0035e	30 54 05 d8	 xor	 BYTE PTR __k$[ebp+eax], dl
  00362	40		 inc	 eax
  00363	83 f8 1f	 cmp	 eax, 31			; 0000001fH
  00366	7c e3		 jl	 SHORT $LL101@LoadFloat_@4

; 137  : 		return LoadFloat(_k, f);

  00368	f3 0f 10 45 0c	 movss	 xmm0, DWORD PTR _f$[ebp]
  0036d	51		 push	 ecx
  0036e	8d 45 d8	 lea	 eax, DWORD PTR __k$[ebp]
  00371	f3 0f 11 04 24	 movss	 DWORD PTR [esp], xmm0
  00376	50		 push	 eax
  00377	8b ce		 mov	 ecx, esi
  00379	ff 15 00 00 00
	00		 call	 DWORD PTR __imp_?LoadFloat@ioINILoader@@QAEMPBDM@Z

; 138  : 	}

  0037f	8b 4d fc	 mov	 ecx, DWORD PTR __$ArrayPad$[ebp]
  00382	5e		 pop	 esi
  00383	33 cd		 xor	 ecx, ebp
  00385	5b		 pop	 ebx
  00386	e8 00 00 00 00	 call	 @__security_check_cookie@4
  0038b	c9		 leave
  0038c	c2 08 00	 ret	 8
??$LoadFloat_e@$0CA@@ioINILoader@@QAEMAAY0CA@$$CBDM@Z ENDP ; ioINILoader::LoadFloat_e<32>
_TEXT	ENDS
PUBLIC	__$ArrayPad$
PUBLIC	??$LoadFloat_e@$0BN@@ioINILoader@@QAEMAAY0BN@$$CBDM@Z ; ioINILoader::LoadFloat_e<29>
; Function compile flags: /Ogsp
;	COMDAT ??$LoadFloat_e@$0BN@@ioINILoader@@QAEMAAY0BN@$$CBDM@Z
_TEXT	SEGMENT
__k$ = -40						; size = 29
__$ArrayPad$ = -4					; size = 4
_k$ = 8							; size = 4
_f$ = 12						; size = 4
??$LoadFloat_e@$0BN@@ioINILoader@@QAEMAAY0BN@$$CBDM@Z PROC ; ioINILoader::LoadFloat_e<29>, COMDAT
; _this$ = ecx

; 135  : 	{

  00000	55		 push	 ebp
  00001	8b ec		 mov	 ebp, esp
  00003	83 ec 28	 sub	 esp, 40			; 00000028H
  00006	a1 00 00 00 00	 mov	 eax, DWORD PTR ___security_cookie
  0000b	33 c5		 xor	 eax, ebp
  0000d	89 45 fc	 mov	 DWORD PTR __$ArrayPad$[ebp], eax
  00010	8b 45 08	 mov	 eax, DWORD PTR _k$[ebp]

; 136  : 		_ENCSTR(k, _k);

  00013	8a 10		 mov	 dl, BYTE PTR [eax]
  00015	53		 push	 ebx
  00016	56		 push	 esi
  00017	8b f1		 mov	 esi, ecx
  00019	84 d2		 test	 dl, dl
  0001b	0f 84 c3 02 00
	00		 je	 $LN96@LoadFloat_@5
  00021	80 f2 ed	 xor	 dl, -19			; ffffffedH
  00024	88 55 d8	 mov	 BYTE PTR __k$[ebp], dl
  00027	8a 50 01	 mov	 dl, BYTE PTR [eax+1]
  0002a	84 d2		 test	 dl, dl
  0002c	0f 84 ac 02 00
	00		 je	 $LN95@LoadFloat_@5
  00032	b1 ec		 mov	 cl, -20			; ffffffecH
  00034	32 d1		 xor	 dl, cl
  00036	88 55 d9	 mov	 BYTE PTR __k$[ebp+1], dl
  00039	8a 50 02	 mov	 dl, BYTE PTR [eax+2]
  0003c	84 d2		 test	 dl, dl
  0003e	0f 84 94 02 00
	00		 je	 $LN94@LoadFloat_@5
  00044	b3 eb		 mov	 bl, -21			; ffffffebH
  00046	32 d3		 xor	 dl, bl
  00048	88 55 da	 mov	 BYTE PTR __k$[ebp+2], dl
  0004b	8a 50 03	 mov	 dl, BYTE PTR [eax+3]
  0004e	84 d2		 test	 dl, dl
  00050	0f 84 7c 02 00
	00		 je	 $LN93@LoadFloat_@5
  00056	80 f2 ea	 xor	 dl, -22			; ffffffeaH
  00059	88 55 db	 mov	 BYTE PTR __k$[ebp+3], dl
  0005c	8a 50 04	 mov	 dl, BYTE PTR [eax+4]
  0005f	84 d2		 test	 dl, dl
  00061	0f 84 65 02 00
	00		 je	 $LN92@LoadFloat_@5
  00067	80 f2 ed	 xor	 dl, -19			; ffffffedH
  0006a	88 55 dc	 mov	 BYTE PTR __k$[ebp+4], dl
  0006d	8a 50 05	 mov	 dl, BYTE PTR [eax+5]
  00070	84 d2		 test	 dl, dl
  00072	0f 84 4f 02 00
	00		 je	 $LN91@LoadFloat_@5
  00078	32 d1		 xor	 dl, cl
  0007a	88 55 dd	 mov	 BYTE PTR __k$[ebp+5], dl
  0007d	8a 50 06	 mov	 dl, BYTE PTR [eax+6]
  00080	84 d2		 test	 dl, dl
  00082	0f 84 3a 02 00
	00		 je	 $LN90@LoadFloat_@5
  00088	32 d3		 xor	 dl, bl
  0008a	88 55 de	 mov	 BYTE PTR __k$[ebp+6], dl
  0008d	8a 50 07	 mov	 dl, BYTE PTR [eax+7]
  00090	84 d2		 test	 dl, dl
  00092	0f 84 24 02 00
	00		 je	 $LN89@LoadFloat_@5
  00098	80 f2 ea	 xor	 dl, -22			; ffffffeaH
  0009b	88 55 df	 mov	 BYTE PTR __k$[ebp+7], dl
  0009e	8a 50 08	 mov	 dl, BYTE PTR [eax+8]
  000a1	84 d2		 test	 dl, dl
  000a3	0f 84 0d 02 00
	00		 je	 $LN88@LoadFloat_@5
  000a9	80 f2 ed	 xor	 dl, -19			; ffffffedH
  000ac	88 55 e0	 mov	 BYTE PTR __k$[ebp+8], dl
  000af	8a 50 09	 mov	 dl, BYTE PTR [eax+9]
  000b2	84 d2		 test	 dl, dl
  000b4	0f 84 f7 01 00
	00		 je	 $LN87@LoadFloat_@5
  000ba	32 d1		 xor	 dl, cl
  000bc	88 55 e1	 mov	 BYTE PTR __k$[ebp+9], dl
  000bf	8a 50 0a	 mov	 dl, BYTE PTR [eax+10]
  000c2	84 d2		 test	 dl, dl
  000c4	0f 84 e2 01 00
	00		 je	 $LN86@LoadFloat_@5
  000ca	32 d3		 xor	 dl, bl
  000cc	88 55 e2	 mov	 BYTE PTR __k$[ebp+10], dl
  000cf	8a 50 0b	 mov	 dl, BYTE PTR [eax+11]
  000d2	84 d2		 test	 dl, dl
  000d4	0f 84 cc 01 00
	00		 je	 $LN85@LoadFloat_@5
  000da	80 f2 ea	 xor	 dl, -22			; ffffffeaH
  000dd	88 55 e3	 mov	 BYTE PTR __k$[ebp+11], dl
  000e0	8a 50 0c	 mov	 dl, BYTE PTR [eax+12]
  000e3	84 d2		 test	 dl, dl
  000e5	0f 84 b5 01 00
	00		 je	 $LN84@LoadFloat_@5
  000eb	80 f2 ed	 xor	 dl, -19			; ffffffedH
  000ee	88 55 e4	 mov	 BYTE PTR __k$[ebp+12], dl
  000f1	8a 50 0d	 mov	 dl, BYTE PTR [eax+13]
  000f4	84 d2		 test	 dl, dl
  000f6	0f 84 9f 01 00
	00		 je	 $LN83@LoadFloat_@5
  000fc	32 d1		 xor	 dl, cl
  000fe	88 55 e5	 mov	 BYTE PTR __k$[ebp+13], dl
  00101	8a 50 0e	 mov	 dl, BYTE PTR [eax+14]
  00104	84 d2		 test	 dl, dl
  00106	0f 84 8a 01 00
	00		 je	 $LN82@LoadFloat_@5
  0010c	32 d3		 xor	 dl, bl
  0010e	88 55 e6	 mov	 BYTE PTR __k$[ebp+14], dl
  00111	8a 50 0f	 mov	 dl, BYTE PTR [eax+15]
  00114	84 d2		 test	 dl, dl
  00116	0f 84 74 01 00
	00		 je	 $LN81@LoadFloat_@5
  0011c	80 f2 ea	 xor	 dl, -22			; ffffffeaH
  0011f	88 55 e7	 mov	 BYTE PTR __k$[ebp+15], dl
  00122	8a 50 10	 mov	 dl, BYTE PTR [eax+16]
  00125	84 d2		 test	 dl, dl
  00127	0f 84 5d 01 00
	00		 je	 $LN80@LoadFloat_@5
  0012d	80 f2 ed	 xor	 dl, -19			; ffffffedH
  00130	88 55 e8	 mov	 BYTE PTR __k$[ebp+16], dl
  00133	8a 50 11	 mov	 dl, BYTE PTR [eax+17]
  00136	84 d2		 test	 dl, dl
  00138	0f 84 47 01 00
	00		 je	 $LN79@LoadFloat_@5
  0013e	32 d1		 xor	 dl, cl
  00140	88 55 e9	 mov	 BYTE PTR __k$[ebp+17], dl
  00143	8a 50 12	 mov	 dl, BYTE PTR [eax+18]
  00146	84 d2		 test	 dl, dl
  00148	0f 84 32 01 00
	00		 je	 $LN78@LoadFloat_@5
  0014e	32 d3		 xor	 dl, bl
  00150	88 55 ea	 mov	 BYTE PTR __k$[ebp+18], dl
  00153	8a 50 13	 mov	 dl, BYTE PTR [eax+19]
  00156	84 d2		 test	 dl, dl
  00158	0f 84 1c 01 00
	00		 je	 $LN77@LoadFloat_@5
  0015e	80 f2 ea	 xor	 dl, -22			; ffffffeaH
  00161	88 55 eb	 mov	 BYTE PTR __k$[ebp+19], dl
  00164	8a 50 14	 mov	 dl, BYTE PTR [eax+20]
  00167	84 d2		 test	 dl, dl
  00169	0f 84 05 01 00
	00		 je	 $LN76@LoadFloat_@5
  0016f	80 f2 ed	 xor	 dl, -19			; ffffffedH
  00172	88 55 ec	 mov	 BYTE PTR __k$[ebp+20], dl
  00175	8a 50 15	 mov	 dl, BYTE PTR [eax+21]
  00178	84 d2		 test	 dl, dl
  0017a	0f 84 ef 00 00
	00		 je	 $LN75@LoadFloat_@5
  00180	32 d1		 xor	 dl, cl
  00182	88 55 ed	 mov	 BYTE PTR __k$[ebp+21], dl
  00185	8a 50 16	 mov	 dl, BYTE PTR [eax+22]
  00188	84 d2		 test	 dl, dl
  0018a	0f 84 da 00 00
	00		 je	 $LN74@LoadFloat_@5
  00190	32 d3		 xor	 dl, bl
  00192	88 55 ee	 mov	 BYTE PTR __k$[ebp+22], dl
  00195	8a 50 17	 mov	 dl, BYTE PTR [eax+23]
  00198	84 d2		 test	 dl, dl
  0019a	0f 84 c4 00 00
	00		 je	 $LN73@LoadFloat_@5
  001a0	80 f2 ea	 xor	 dl, -22			; ffffffeaH
  001a3	88 55 ef	 mov	 BYTE PTR __k$[ebp+23], dl
  001a6	8a 50 18	 mov	 dl, BYTE PTR [eax+24]
  001a9	84 d2		 test	 dl, dl
  001ab	0f 84 aa 00 00
	00		 je	 $LN72@LoadFloat_@5
  001b1	80 f2 ed	 xor	 dl, -19			; ffffffedH
  001b4	88 55 f0	 mov	 BYTE PTR __k$[ebp+24], dl
  001b7	8a 50 19	 mov	 dl, BYTE PTR [eax+25]
  001ba	84 d2		 test	 dl, dl
  001bc	0f 84 91 00 00
	00		 je	 $LN71@LoadFloat_@5
  001c2	32 d1		 xor	 dl, cl
  001c4	88 55 f1	 mov	 BYTE PTR __k$[ebp+25], dl
  001c7	8a 50 1a	 mov	 dl, BYTE PTR [eax+26]
  001ca	84 d2		 test	 dl, dl
  001cc	74 7d		 je	 SHORT $LN70@LoadFloat_@5
  001ce	32 d3		 xor	 dl, bl
  001d0	88 55 f2	 mov	 BYTE PTR __k$[ebp+26], dl
  001d3	8a 50 1b	 mov	 dl, BYTE PTR [eax+27]
  001d6	84 d2		 test	 dl, dl
  001d8	74 68		 je	 SHORT $LN69@LoadFloat_@5
  001da	80 f2 ea	 xor	 dl, -22			; ffffffeaH
  001dd	80 78 1c 00	 cmp	 BYTE PTR [eax+28], 0
  001e1	88 55 f3	 mov	 BYTE PTR __k$[ebp+27], dl
  001e4	0f 84 fe 00 00
	00		 je	 $LN1@LoadFloat_@5
  001ea	8a 50 1d	 mov	 dl, BYTE PTR [eax+29]
  001ed	84 d2		 test	 dl, dl
  001ef	74 49		 je	 SHORT $LN67@LoadFloat_@5
  001f1	32 d1		 xor	 dl, cl
  001f3	88 55 f5	 mov	 BYTE PTR __k$[ebp+29], dl
  001f6	8a 50 1e	 mov	 dl, BYTE PTR [eax+30]
  001f9	84 d2		 test	 dl, dl
  001fb	74 35		 je	 SHORT $LN66@LoadFloat_@5
  001fd	32 d3		 xor	 dl, bl
  001ff	88 55 f6	 mov	 BYTE PTR __k$[ebp+30], dl
  00202	8a 50 1f	 mov	 dl, BYTE PTR [eax+31]
  00205	84 d2		 test	 dl, dl
  00207	74 20		 je	 SHORT $LN65@LoadFloat_@5
  00209	8a 40 20	 mov	 al, BYTE PTR [eax+32]
  0020c	80 f2 ea	 xor	 dl, -22			; ffffffeaH
  0020f	88 55 f7	 mov	 BYTE PTR __k$[ebp+31], dl
  00212	84 c0		 test	 al, al
  00214	74 0a		 je	 SHORT $LN64@LoadFloat_@5
  00216	34 ed		 xor	 al, -19			; ffffffedH
  00218	88 45 f8	 mov	 BYTE PTR __k$[ebp+32], al
  0021b	e9 c8 00 00 00	 jmp	 $LN1@LoadFloat_@5
$LN64@LoadFloat_@5:
  00220	c6 45 f8 ed	 mov	 BYTE PTR __k$[ebp+32], -19 ; ffffffedH
  00224	e9 bf 00 00 00	 jmp	 $LN1@LoadFloat_@5
$LN65@LoadFloat_@5:
  00229	c6 45 f7 ea	 mov	 BYTE PTR __k$[ebp+31], -22 ; ffffffeaH
  0022d	e9 b6 00 00 00	 jmp	 $LN1@LoadFloat_@5
$LN66@LoadFloat_@5:
  00232	88 5d f6	 mov	 BYTE PTR __k$[ebp+30], bl
  00235	e9 ae 00 00 00	 jmp	 $LN1@LoadFloat_@5
$LN67@LoadFloat_@5:
  0023a	88 4d f5	 mov	 BYTE PTR __k$[ebp+29], cl
  0023d	e9 a6 00 00 00	 jmp	 $LN1@LoadFloat_@5
$LN69@LoadFloat_@5:
  00242	c6 45 f3 ea	 mov	 BYTE PTR __k$[ebp+27], -22 ; ffffffeaH
  00246	e9 9d 00 00 00	 jmp	 $LN1@LoadFloat_@5
$LN70@LoadFloat_@5:
  0024b	88 5d f2	 mov	 BYTE PTR __k$[ebp+26], bl
  0024e	e9 95 00 00 00	 jmp	 $LN1@LoadFloat_@5
$LN71@LoadFloat_@5:
  00253	88 4d f1	 mov	 BYTE PTR __k$[ebp+25], cl
  00256	e9 8d 00 00 00	 jmp	 $LN1@LoadFloat_@5
$LN72@LoadFloat_@5:
  0025b	c6 45 f0 ed	 mov	 BYTE PTR __k$[ebp+24], -19 ; ffffffedH
  0025f	e9 84 00 00 00	 jmp	 $LN1@LoadFloat_@5
$LN73@LoadFloat_@5:
  00264	c6 45 ef ea	 mov	 BYTE PTR __k$[ebp+23], -22 ; ffffffeaH
  00268	eb 7e		 jmp	 SHORT $LN1@LoadFloat_@5
$LN74@LoadFloat_@5:
  0026a	88 5d ee	 mov	 BYTE PTR __k$[ebp+22], bl
  0026d	eb 79		 jmp	 SHORT $LN1@LoadFloat_@5
$LN75@LoadFloat_@5:
  0026f	88 4d ed	 mov	 BYTE PTR __k$[ebp+21], cl
  00272	eb 74		 jmp	 SHORT $LN1@LoadFloat_@5
$LN76@LoadFloat_@5:
  00274	c6 45 ec ed	 mov	 BYTE PTR __k$[ebp+20], -19 ; ffffffedH
  00278	eb 6e		 jmp	 SHORT $LN1@LoadFloat_@5
$LN77@LoadFloat_@5:
  0027a	c6 45 eb ea	 mov	 BYTE PTR __k$[ebp+19], -22 ; ffffffeaH
  0027e	eb 68		 jmp	 SHORT $LN1@LoadFloat_@5
$LN78@LoadFloat_@5:
  00280	88 5d ea	 mov	 BYTE PTR __k$[ebp+18], bl
  00283	eb 63		 jmp	 SHORT $LN1@LoadFloat_@5
$LN79@LoadFloat_@5:
  00285	88 4d e9	 mov	 BYTE PTR __k$[ebp+17], cl
  00288	eb 5e		 jmp	 SHORT $LN1@LoadFloat_@5
$LN80@LoadFloat_@5:
  0028a	c6 45 e8 ed	 mov	 BYTE PTR __k$[ebp+16], -19 ; ffffffedH
  0028e	eb 58		 jmp	 SHORT $LN1@LoadFloat_@5
$LN81@LoadFloat_@5:
  00290	c6 45 e7 ea	 mov	 BYTE PTR __k$[ebp+15], -22 ; ffffffeaH
  00294	eb 52		 jmp	 SHORT $LN1@LoadFloat_@5
$LN82@LoadFloat_@5:
  00296	88 5d e6	 mov	 BYTE PTR __k$[ebp+14], bl
  00299	eb 4d		 jmp	 SHORT $LN1@LoadFloat_@5
$LN83@LoadFloat_@5:
  0029b	88 4d e5	 mov	 BYTE PTR __k$[ebp+13], cl
  0029e	eb 48		 jmp	 SHORT $LN1@LoadFloat_@5
$LN84@LoadFloat_@5:
  002a0	c6 45 e4 ed	 mov	 BYTE PTR __k$[ebp+12], -19 ; ffffffedH
  002a4	eb 42		 jmp	 SHORT $LN1@LoadFloat_@5
$LN85@LoadFloat_@5:
  002a6	c6 45 e3 ea	 mov	 BYTE PTR __k$[ebp+11], -22 ; ffffffeaH
  002aa	eb 3c		 jmp	 SHORT $LN1@LoadFloat_@5
$LN86@LoadFloat_@5:
  002ac	88 5d e2	 mov	 BYTE PTR __k$[ebp+10], bl
  002af	eb 37		 jmp	 SHORT $LN1@LoadFloat_@5
$LN87@LoadFloat_@5:
  002b1	88 4d e1	 mov	 BYTE PTR __k$[ebp+9], cl
  002b4	eb 32		 jmp	 SHORT $LN1@LoadFloat_@5
$LN88@LoadFloat_@5:
  002b6	c6 45 e0 ed	 mov	 BYTE PTR __k$[ebp+8], -19 ; ffffffedH
  002ba	eb 2c		 jmp	 SHORT $LN1@LoadFloat_@5
$LN89@LoadFloat_@5:
  002bc	c6 45 df ea	 mov	 BYTE PTR __k$[ebp+7], -22 ; ffffffeaH
  002c0	eb 26		 jmp	 SHORT $LN1@LoadFloat_@5
$LN90@LoadFloat_@5:
  002c2	88 5d de	 mov	 BYTE PTR __k$[ebp+6], bl
  002c5	eb 21		 jmp	 SHORT $LN1@LoadFloat_@5
$LN91@LoadFloat_@5:
  002c7	88 4d dd	 mov	 BYTE PTR __k$[ebp+5], cl
  002ca	eb 1c		 jmp	 SHORT $LN1@LoadFloat_@5
$LN92@LoadFloat_@5:
  002cc	c6 45 dc ed	 mov	 BYTE PTR __k$[ebp+4], -19 ; ffffffedH
  002d0	eb 16		 jmp	 SHORT $LN1@LoadFloat_@5
$LN93@LoadFloat_@5:
  002d2	c6 45 db ea	 mov	 BYTE PTR __k$[ebp+3], -22 ; ffffffeaH
  002d6	eb 10		 jmp	 SHORT $LN1@LoadFloat_@5
$LN94@LoadFloat_@5:
  002d8	c6 45 da eb	 mov	 BYTE PTR __k$[ebp+2], -21 ; ffffffebH
  002dc	eb 0a		 jmp	 SHORT $LN1@LoadFloat_@5
$LN95@LoadFloat_@5:
  002de	c6 45 d9 ec	 mov	 BYTE PTR __k$[ebp+1], -20 ; ffffffecH
  002e2	eb 04		 jmp	 SHORT $LN1@LoadFloat_@5
$LN96@LoadFloat_@5:
  002e4	c6 45 d8 ed	 mov	 BYTE PTR __k$[ebp], -19	; ffffffedH
$LN1@LoadFloat_@5:
  002e8	6a 07		 push	 7
  002ea	8d 45 d8	 lea	 eax, DWORD PTR __k$[ebp]
  002ed	c6 45 f4 00	 mov	 BYTE PTR __k$[ebp+28], 0
  002f1	5a		 pop	 edx
$LL104@LoadFloat_@5:
  002f2	81 30 ed ec eb
	ea		 xor	 DWORD PTR [eax], -353637139 ; eaebecedH
  002f8	83 c0 04	 add	 eax, 4
  002fb	4a		 dec	 edx
  002fc	75 f4		 jne	 SHORT $LL104@LoadFloat_@5

; 137  : 		return LoadFloat(_k, f);

  002fe	f3 0f 10 45 0c	 movss	 xmm0, DWORD PTR _f$[ebp]
  00303	51		 push	 ecx
  00304	8d 45 d8	 lea	 eax, DWORD PTR __k$[ebp]
  00307	f3 0f 11 04 24	 movss	 DWORD PTR [esp], xmm0
  0030c	50		 push	 eax
  0030d	8b ce		 mov	 ecx, esi
  0030f	ff 15 00 00 00
	00		 call	 DWORD PTR __imp_?LoadFloat@ioINILoader@@QAEMPBDM@Z

; 138  : 	}

  00315	8b 4d fc	 mov	 ecx, DWORD PTR __$ArrayPad$[ebp]
  00318	5e		 pop	 esi
  00319	33 cd		 xor	 ecx, ebp
  0031b	5b		 pop	 ebx
  0031c	e8 00 00 00 00	 call	 @__security_check_cookie@4
  00321	c9		 leave
  00322	c2 08 00	 ret	 8
??$LoadFloat_e@$0BN@@ioINILoader@@QAEMAAY0BN@$$CBDM@Z ENDP ; ioINILoader::LoadFloat_e<29>
_TEXT	ENDS
PUBLIC	_this$GSCopy$
PUBLIC	__$ArrayPad$
PUBLIC	??$LoadString_e@$0O@@ioINILoader@@QAEXAAY0O@$$CBDAAY00$$CBDPADH@Z ; ioINILoader::LoadString_e<14>
; Function compile flags: /Ogsp
;	COMDAT ??$LoadString_e@$0O@@ioINILoader@@QAEXAAY0O@$$CBDAAY00$$CBDPADH@Z
_TEXT	SEGMENT
_this$GSCopy$ = -28					; size = 4
__k$ = -24						; size = 14
__$ArrayPad$ = -4					; size = 4
_k$ = 8							; size = 4
_d$ = 12						; size = 4
_b$ = 16						; size = 4
_i$ = 20						; size = 4
??$LoadString_e@$0O@@ioINILoader@@QAEXAAY0O@$$CBDAAY00$$CBDPADH@Z PROC ; ioINILoader::LoadString_e<14>, COMDAT
; _this$ = ecx

; 161  : 	{

  00000	55		 push	 ebp
  00001	8b ec		 mov	 ebp, esp
  00003	83 ec 1c	 sub	 esp, 28			; 0000001cH
  00006	a1 00 00 00 00	 mov	 eax, DWORD PTR ___security_cookie
  0000b	33 c5		 xor	 eax, ebp
  0000d	89 45 fc	 mov	 DWORD PTR __$ArrayPad$[ebp], eax
  00010	8b 45 08	 mov	 eax, DWORD PTR _k$[ebp]

; 162  : 		_ENCSTR(k, _k);

  00013	8a 10		 mov	 dl, BYTE PTR [eax]
  00015	56		 push	 esi
  00016	8b 75 0c	 mov	 esi, DWORD PTR _d$[ebp]
  00019	57		 push	 edi
  0001a	8b 7d 10	 mov	 edi, DWORD PTR _b$[ebp]
  0001d	89 4d e4	 mov	 DWORD PTR _this$GSCopy$[ebp], ecx
  00020	84 d2		 test	 dl, dl
  00022	0f 84 64 01 00
	00		 je	 $LN96@LoadString@5
  00028	80 f2 ed	 xor	 dl, -19			; ffffffedH
  0002b	88 55 e8	 mov	 BYTE PTR __k$[ebp], dl
  0002e	8a 50 01	 mov	 dl, BYTE PTR [eax+1]
  00031	84 d2		 test	 dl, dl
  00033	0f 84 4d 01 00
	00		 je	 $LN95@LoadString@5
  00039	80 f2 ec	 xor	 dl, -20			; ffffffecH
  0003c	88 55 e9	 mov	 BYTE PTR __k$[ebp+1], dl
  0003f	8a 50 02	 mov	 dl, BYTE PTR [eax+2]
  00042	84 d2		 test	 dl, dl
  00044	0f 84 36 01 00
	00		 je	 $LN94@LoadString@5
  0004a	b1 eb		 mov	 cl, -21			; ffffffebH
  0004c	32 d1		 xor	 dl, cl
  0004e	88 55 ea	 mov	 BYTE PTR __k$[ebp+2], dl
  00051	8a 50 03	 mov	 dl, BYTE PTR [eax+3]
  00054	84 d2		 test	 dl, dl
  00056	0f 84 1e 01 00
	00		 je	 $LN93@LoadString@5
  0005c	80 f2 ea	 xor	 dl, -22			; ffffffeaH
  0005f	88 55 eb	 mov	 BYTE PTR __k$[ebp+3], dl
  00062	8a 50 04	 mov	 dl, BYTE PTR [eax+4]
  00065	84 d2		 test	 dl, dl
  00067	0f 84 07 01 00
	00		 je	 $LN92@LoadString@5
  0006d	80 f2 ed	 xor	 dl, -19			; ffffffedH
  00070	88 55 ec	 mov	 BYTE PTR __k$[ebp+4], dl
  00073	8a 50 05	 mov	 dl, BYTE PTR [eax+5]
  00076	84 d2		 test	 dl, dl
  00078	0f 84 f0 00 00
	00		 je	 $LN91@LoadString@5
  0007e	80 f2 ec	 xor	 dl, -20			; ffffffecH
  00081	88 55 ed	 mov	 BYTE PTR __k$[ebp+5], dl
  00084	8a 50 06	 mov	 dl, BYTE PTR [eax+6]
  00087	84 d2		 test	 dl, dl
  00089	0f 84 da 00 00
	00		 je	 $LN90@LoadString@5
  0008f	32 d1		 xor	 dl, cl
  00091	88 55 ee	 mov	 BYTE PTR __k$[ebp+6], dl
  00094	8a 50 07	 mov	 dl, BYTE PTR [eax+7]
  00097	84 d2		 test	 dl, dl
  00099	0f 84 c4 00 00
	00		 je	 $LN89@LoadString@5
  0009f	80 f2 ea	 xor	 dl, -22			; ffffffeaH
  000a2	88 55 ef	 mov	 BYTE PTR __k$[ebp+7], dl
  000a5	8a 50 08	 mov	 dl, BYTE PTR [eax+8]
  000a8	84 d2		 test	 dl, dl
  000aa	0f 84 ad 00 00
	00		 je	 $LN88@LoadString@5
  000b0	80 f2 ed	 xor	 dl, -19			; ffffffedH
  000b3	88 55 f0	 mov	 BYTE PTR __k$[ebp+8], dl
  000b6	8a 50 09	 mov	 dl, BYTE PTR [eax+9]
  000b9	84 d2		 test	 dl, dl
  000bb	0f 84 96 00 00
	00		 je	 $LN87@LoadString@5
  000c1	80 f2 ec	 xor	 dl, -20			; ffffffecH
  000c4	88 55 f1	 mov	 BYTE PTR __k$[ebp+9], dl
  000c7	8a 50 0a	 mov	 dl, BYTE PTR [eax+10]
  000ca	84 d2		 test	 dl, dl
  000cc	0f 84 80 00 00
	00		 je	 $LN86@LoadString@5
  000d2	32 d1		 xor	 dl, cl
  000d4	88 55 f2	 mov	 BYTE PTR __k$[ebp+10], dl
  000d7	8a 50 0b	 mov	 dl, BYTE PTR [eax+11]
  000da	84 d2		 test	 dl, dl
  000dc	74 6e		 je	 SHORT $LN85@LoadString@5
  000de	80 f2 ea	 xor	 dl, -22			; ffffffeaH
  000e1	88 55 f3	 mov	 BYTE PTR __k$[ebp+11], dl
  000e4	8a 50 0c	 mov	 dl, BYTE PTR [eax+12]
  000e7	84 d2		 test	 dl, dl
  000e9	74 5b		 je	 SHORT $LN84@LoadString@5
  000eb	80 f2 ed	 xor	 dl, -19			; ffffffedH
  000ee	80 78 0d 00	 cmp	 BYTE PTR [eax+13], 0
  000f2	88 55 f4	 mov	 BYTE PTR __k$[ebp+12], dl
  000f5	0f 84 95 00 00
	00		 je	 $LN111@LoadString@5
  000fb	8a 50 0e	 mov	 dl, BYTE PTR [eax+14]
  000fe	84 d2		 test	 dl, dl
  00100	74 3f		 je	 SHORT $LN82@LoadString@5
  00102	32 d1		 xor	 dl, cl
  00104	88 55 f6	 mov	 BYTE PTR __k$[ebp+14], dl
  00107	8a 50 0f	 mov	 dl, BYTE PTR [eax+15]
  0010a	84 d2		 test	 dl, dl
  0010c	74 2d		 je	 SHORT $LN81@LoadString@5
  0010e	80 f2 ea	 xor	 dl, -22			; ffffffeaH
  00111	88 55 f7	 mov	 BYTE PTR __k$[ebp+15], dl
  00114	8a 50 10	 mov	 dl, BYTE PTR [eax+16]
  00117	84 d2		 test	 dl, dl
  00119	74 1a		 je	 SHORT $LN80@LoadString@5
  0011b	8a 40 11	 mov	 al, BYTE PTR [eax+17]
  0011e	80 f2 ed	 xor	 dl, -19			; ffffffedH
  00121	88 55 f8	 mov	 BYTE PTR __k$[ebp+16], dl
  00124	84 c0		 test	 al, al
  00126	74 07		 je	 SHORT $LN79@LoadString@5
  00128	34 ec		 xor	 al, -20			; ffffffecH
  0012a	88 45 f9	 mov	 BYTE PTR __k$[ebp+17], al
  0012d	eb 61		 jmp	 SHORT $LN111@LoadString@5
$LN79@LoadString@5:
  0012f	c6 45 f9 ec	 mov	 BYTE PTR __k$[ebp+17], -20 ; ffffffecH
  00133	eb 5b		 jmp	 SHORT $LN111@LoadString@5
$LN80@LoadString@5:
  00135	c6 45 f8 ed	 mov	 BYTE PTR __k$[ebp+16], -19 ; ffffffedH
  00139	eb 55		 jmp	 SHORT $LN111@LoadString@5
$LN81@LoadString@5:
  0013b	c6 45 f7 ea	 mov	 BYTE PTR __k$[ebp+15], -22 ; ffffffeaH
  0013f	eb 4f		 jmp	 SHORT $LN111@LoadString@5
$LN82@LoadString@5:
  00141	88 4d f6	 mov	 BYTE PTR __k$[ebp+14], cl
  00144	eb 4a		 jmp	 SHORT $LN111@LoadString@5
$LN84@LoadString@5:
  00146	c6 45 f4 ed	 mov	 BYTE PTR __k$[ebp+12], -19 ; ffffffedH
  0014a	eb 44		 jmp	 SHORT $LN111@LoadString@5
$LN85@LoadString@5:
  0014c	c6 45 f3 ea	 mov	 BYTE PTR __k$[ebp+11], -22 ; ffffffeaH
  00150	eb 3e		 jmp	 SHORT $LN111@LoadString@5
$LN86@LoadString@5:
  00152	88 4d f2	 mov	 BYTE PTR __k$[ebp+10], cl
  00155	eb 39		 jmp	 SHORT $LN111@LoadString@5
$LN87@LoadString@5:
  00157	c6 45 f1 ec	 mov	 BYTE PTR __k$[ebp+9], -20 ; ffffffecH
  0015b	eb 33		 jmp	 SHORT $LN111@LoadString@5
$LN88@LoadString@5:
  0015d	c6 45 f0 ed	 mov	 BYTE PTR __k$[ebp+8], -19 ; ffffffedH
  00161	eb 2d		 jmp	 SHORT $LN111@LoadString@5
$LN89@LoadString@5:
  00163	c6 45 ef ea	 mov	 BYTE PTR __k$[ebp+7], -22 ; ffffffeaH
  00167	eb 27		 jmp	 SHORT $LN111@LoadString@5
$LN90@LoadString@5:
  00169	88 4d ee	 mov	 BYTE PTR __k$[ebp+6], cl
  0016c	eb 22		 jmp	 SHORT $LN111@LoadString@5
$LN91@LoadString@5:
  0016e	c6 45 ed ec	 mov	 BYTE PTR __k$[ebp+5], -20 ; ffffffecH
  00172	eb 1c		 jmp	 SHORT $LN111@LoadString@5
$LN92@LoadString@5:
  00174	c6 45 ec ed	 mov	 BYTE PTR __k$[ebp+4], -19 ; ffffffedH
  00178	eb 16		 jmp	 SHORT $LN111@LoadString@5
$LN93@LoadString@5:
  0017a	c6 45 eb ea	 mov	 BYTE PTR __k$[ebp+3], -22 ; ffffffeaH
  0017e	eb 10		 jmp	 SHORT $LN111@LoadString@5
$LN94@LoadString@5:
  00180	c6 45 ea eb	 mov	 BYTE PTR __k$[ebp+2], -21 ; ffffffebH
  00184	eb 0a		 jmp	 SHORT $LN111@LoadString@5
$LN95@LoadString@5:
  00186	c6 45 e9 ec	 mov	 BYTE PTR __k$[ebp+1], -20 ; ffffffecH
  0018a	eb 04		 jmp	 SHORT $LN111@LoadString@5
$LN96@LoadString@5:
  0018c	c6 45 e8 ed	 mov	 BYTE PTR __k$[ebp], -19	; ffffffedH
$LN111@LoadString@5:
  00190	6a 03		 push	 3
  00192	8d 45 e8	 lea	 eax, DWORD PTR __k$[ebp]
  00195	c6 45 f5 00	 mov	 BYTE PTR __k$[ebp+13], 0
  00199	5a		 pop	 edx
$LL104@LoadString@5:
  0019a	81 30 ed ec eb
	ea		 xor	 DWORD PTR [eax], -353637139 ; eaebecedH
  001a0	83 c0 04	 add	 eax, 4
  001a3	4a		 dec	 edx
  001a4	75 f4		 jne	 SHORT $LL104@LoadString@5

; 163  : 		LoadString(_k, d, b, i);

  001a6	ff 75 14	 push	 DWORD PTR _i$[ebp]
  001a9	8b 4d e4	 mov	 ecx, DWORD PTR _this$GSCopy$[ebp]
  001ac	80 75 f4 ed	 xor	 BYTE PTR __k$[ebp+12], -19 ; ffffffedH
  001b0	57		 push	 edi
  001b1	56		 push	 esi
  001b2	8d 45 e8	 lea	 eax, DWORD PTR __k$[ebp]
  001b5	50		 push	 eax
  001b6	ff 15 00 00 00
	00		 call	 DWORD PTR __imp_?LoadStringA@ioINILoader@@QAEXPBD0PADH@Z

; 164  : 	}

  001bc	8b 4d fc	 mov	 ecx, DWORD PTR __$ArrayPad$[ebp]
  001bf	5f		 pop	 edi
  001c0	33 cd		 xor	 ecx, ebp
  001c2	5e		 pop	 esi
  001c3	e8 00 00 00 00	 call	 @__security_check_cookie@4
  001c8	c9		 leave
  001c9	c2 10 00	 ret	 16			; 00000010H
??$LoadString_e@$0O@@ioINILoader@@QAEXAAY0O@$$CBDAAY00$$CBDPADH@Z ENDP ; ioINILoader::LoadString_e<14>
_TEXT	ENDS
PUBLIC	__$ArrayPad$
PUBLIC	??$LoadFloat_e@$0BA@@ioINILoader@@QAEMAAY0BA@$$CBDM@Z ; ioINILoader::LoadFloat_e<16>
; Function compile flags: /Ogsp
;	COMDAT ??$LoadFloat_e@$0BA@@ioINILoader@@QAEMAAY0BA@$$CBDM@Z
_TEXT	SEGMENT
__k$ = -24						; size = 16
__$ArrayPad$ = -4					; size = 4
_k$ = 8							; size = 4
_f$ = 12						; size = 4
??$LoadFloat_e@$0BA@@ioINILoader@@QAEMAAY0BA@$$CBDM@Z PROC ; ioINILoader::LoadFloat_e<16>, COMDAT
; _this$ = ecx

; 135  : 	{

  00000	55		 push	 ebp
  00001	8b ec		 mov	 ebp, esp
  00003	83 ec 18	 sub	 esp, 24			; 00000018H
  00006	a1 00 00 00 00	 mov	 eax, DWORD PTR ___security_cookie
  0000b	33 c5		 xor	 eax, ebp
  0000d	89 45 fc	 mov	 DWORD PTR __$ArrayPad$[ebp], eax
  00010	8b 45 08	 mov	 eax, DWORD PTR _k$[ebp]

; 136  : 		_ENCSTR(k, _k);

  00013	8a 10		 mov	 dl, BYTE PTR [eax]
  00015	56		 push	 esi
  00016	8b f1		 mov	 esi, ecx
  00018	84 d2		 test	 dl, dl
  0001a	0f 84 8c 01 00
	00		 je	 $LN96@LoadFloat_@6
  00020	80 f2 ed	 xor	 dl, -19			; ffffffedH
  00023	88 55 e8	 mov	 BYTE PTR __k$[ebp], dl
  00026	8a 50 01	 mov	 dl, BYTE PTR [eax+1]
  00029	84 d2		 test	 dl, dl
  0002b	0f 84 75 01 00
	00		 je	 $LN95@LoadFloat_@6
  00031	80 f2 ec	 xor	 dl, -20			; ffffffecH
  00034	88 55 e9	 mov	 BYTE PTR __k$[ebp+1], dl
  00037	8a 50 02	 mov	 dl, BYTE PTR [eax+2]
  0003a	84 d2		 test	 dl, dl
  0003c	0f 84 5e 01 00
	00		 je	 $LN94@LoadFloat_@6
  00042	b1 eb		 mov	 cl, -21			; ffffffebH
  00044	32 d1		 xor	 dl, cl
  00046	88 55 ea	 mov	 BYTE PTR __k$[ebp+2], dl
  00049	8a 50 03	 mov	 dl, BYTE PTR [eax+3]
  0004c	84 d2		 test	 dl, dl
  0004e	0f 84 46 01 00
	00		 je	 $LN93@LoadFloat_@6
  00054	80 f2 ea	 xor	 dl, -22			; ffffffeaH
  00057	88 55 eb	 mov	 BYTE PTR __k$[ebp+3], dl
  0005a	8a 50 04	 mov	 dl, BYTE PTR [eax+4]
  0005d	84 d2		 test	 dl, dl
  0005f	0f 84 2f 01 00
	00		 je	 $LN92@LoadFloat_@6
  00065	80 f2 ed	 xor	 dl, -19			; ffffffedH
  00068	88 55 ec	 mov	 BYTE PTR __k$[ebp+4], dl
  0006b	8a 50 05	 mov	 dl, BYTE PTR [eax+5]
  0006e	84 d2		 test	 dl, dl
  00070	0f 84 18 01 00
	00		 je	 $LN91@LoadFloat_@6
  00076	80 f2 ec	 xor	 dl, -20			; ffffffecH
  00079	88 55 ed	 mov	 BYTE PTR __k$[ebp+5], dl
  0007c	8a 50 06	 mov	 dl, BYTE PTR [eax+6]
  0007f	84 d2		 test	 dl, dl
  00081	0f 84 02 01 00
	00		 je	 $LN90@LoadFloat_@6
  00087	32 d1		 xor	 dl, cl
  00089	88 55 ee	 mov	 BYTE PTR __k$[ebp+6], dl
  0008c	8a 50 07	 mov	 dl, BYTE PTR [eax+7]
  0008f	84 d2		 test	 dl, dl
  00091	0f 84 ec 00 00
	00		 je	 $LN89@LoadFloat_@6
  00097	80 f2 ea	 xor	 dl, -22			; ffffffeaH
  0009a	88 55 ef	 mov	 BYTE PTR __k$[ebp+7], dl
  0009d	8a 50 08	 mov	 dl, BYTE PTR [eax+8]
  000a0	84 d2		 test	 dl, dl
  000a2	0f 84 d5 00 00
	00		 je	 $LN88@LoadFloat_@6
  000a8	80 f2 ed	 xor	 dl, -19			; ffffffedH
  000ab	88 55 f0	 mov	 BYTE PTR __k$[ebp+8], dl
  000ae	8a 50 09	 mov	 dl, BYTE PTR [eax+9]
  000b1	84 d2		 test	 dl, dl
  000b3	0f 84 be 00 00
	00		 je	 $LN87@LoadFloat_@6
  000b9	80 f2 ec	 xor	 dl, -20			; ffffffecH
  000bc	88 55 f1	 mov	 BYTE PTR __k$[ebp+9], dl
  000bf	8a 50 0a	 mov	 dl, BYTE PTR [eax+10]
  000c2	84 d2		 test	 dl, dl
  000c4	0f 84 a8 00 00
	00		 je	 $LN86@LoadFloat_@6
  000ca	32 d1		 xor	 dl, cl
  000cc	88 55 f2	 mov	 BYTE PTR __k$[ebp+10], dl
  000cf	8a 50 0b	 mov	 dl, BYTE PTR [eax+11]
  000d2	84 d2		 test	 dl, dl
  000d4	0f 84 92 00 00
	00		 je	 $LN85@LoadFloat_@6
  000da	80 f2 ea	 xor	 dl, -22			; ffffffeaH
  000dd	88 55 f3	 mov	 BYTE PTR __k$[ebp+11], dl
  000e0	8a 50 0c	 mov	 dl, BYTE PTR [eax+12]
  000e3	84 d2		 test	 dl, dl
  000e5	74 7f		 je	 SHORT $LN84@LoadFloat_@6
  000e7	80 f2 ed	 xor	 dl, -19			; ffffffedH
  000ea	88 55 f4	 mov	 BYTE PTR __k$[ebp+12], dl
  000ed	8a 50 0d	 mov	 dl, BYTE PTR [eax+13]
  000f0	84 d2		 test	 dl, dl
  000f2	74 6c		 je	 SHORT $LN83@LoadFloat_@6
  000f4	80 f2 ec	 xor	 dl, -20			; ffffffecH
  000f7	88 55 f5	 mov	 BYTE PTR __k$[ebp+13], dl
  000fa	8a 50 0e	 mov	 dl, BYTE PTR [eax+14]
  000fd	84 d2		 test	 dl, dl
  000ff	74 5a		 je	 SHORT $LN82@LoadFloat_@6
  00101	32 d1		 xor	 dl, cl
  00103	80 78 0f 00	 cmp	 BYTE PTR [eax+15], 0
  00107	88 55 f6	 mov	 BYTE PTR __k$[ebp+14], dl
  0010a	0f 84 a0 00 00
	00		 je	 $LN1@LoadFloat_@6
  00110	8a 50 10	 mov	 dl, BYTE PTR [eax+16]
  00113	84 d2		 test	 dl, dl
  00115	74 3e		 je	 SHORT $LN80@LoadFloat_@6
  00117	80 f2 ed	 xor	 dl, -19			; ffffffedH
  0011a	88 55 f8	 mov	 BYTE PTR __k$[ebp+16], dl
  0011d	8a 50 11	 mov	 dl, BYTE PTR [eax+17]
  00120	84 d2		 test	 dl, dl
  00122	74 2b		 je	 SHORT $LN79@LoadFloat_@6
  00124	80 f2 ec	 xor	 dl, -20			; ffffffecH
  00127	88 55 f9	 mov	 BYTE PTR __k$[ebp+17], dl
  0012a	8a 50 12	 mov	 dl, BYTE PTR [eax+18]
  0012d	84 d2		 test	 dl, dl
  0012f	74 19		 je	 SHORT $LN78@LoadFloat_@6
  00131	8a 40 13	 mov	 al, BYTE PTR [eax+19]
  00134	32 d1		 xor	 dl, cl
  00136	88 55 fa	 mov	 BYTE PTR __k$[ebp+18], dl
  00139	84 c0		 test	 al, al
  0013b	74 07		 je	 SHORT $LN77@LoadFloat_@6
  0013d	34 ea		 xor	 al, -22			; ffffffeaH
  0013f	88 45 fb	 mov	 BYTE PTR __k$[ebp+19], al
  00142	eb 6c		 jmp	 SHORT $LN1@LoadFloat_@6
$LN77@LoadFloat_@6:
  00144	c6 45 fb ea	 mov	 BYTE PTR __k$[ebp+19], -22 ; ffffffeaH
  00148	eb 66		 jmp	 SHORT $LN1@LoadFloat_@6
$LN78@LoadFloat_@6:
  0014a	88 4d fa	 mov	 BYTE PTR __k$[ebp+18], cl
  0014d	eb 61		 jmp	 SHORT $LN1@LoadFloat_@6
$LN79@LoadFloat_@6:
  0014f	c6 45 f9 ec	 mov	 BYTE PTR __k$[ebp+17], -20 ; ffffffecH
  00153	eb 5b		 jmp	 SHORT $LN1@LoadFloat_@6
$LN80@LoadFloat_@6:
  00155	c6 45 f8 ed	 mov	 BYTE PTR __k$[ebp+16], -19 ; ffffffedH
  00159	eb 55		 jmp	 SHORT $LN1@LoadFloat_@6
$LN82@LoadFloat_@6:
  0015b	88 4d f6	 mov	 BYTE PTR __k$[ebp+14], cl
  0015e	eb 50		 jmp	 SHORT $LN1@LoadFloat_@6
$LN83@LoadFloat_@6:
  00160	c6 45 f5 ec	 mov	 BYTE PTR __k$[ebp+13], -20 ; ffffffecH
  00164	eb 4a		 jmp	 SHORT $LN1@LoadFloat_@6
$LN84@LoadFloat_@6:
  00166	c6 45 f4 ed	 mov	 BYTE PTR __k$[ebp+12], -19 ; ffffffedH
  0016a	eb 44		 jmp	 SHORT $LN1@LoadFloat_@6
$LN85@LoadFloat_@6:
  0016c	c6 45 f3 ea	 mov	 BYTE PTR __k$[ebp+11], -22 ; ffffffeaH
  00170	eb 3e		 jmp	 SHORT $LN1@LoadFloat_@6
$LN86@LoadFloat_@6:
  00172	88 4d f2	 mov	 BYTE PTR __k$[ebp+10], cl
  00175	eb 39		 jmp	 SHORT $LN1@LoadFloat_@6
$LN87@LoadFloat_@6:
  00177	c6 45 f1 ec	 mov	 BYTE PTR __k$[ebp+9], -20 ; ffffffecH
  0017b	eb 33		 jmp	 SHORT $LN1@LoadFloat_@6
$LN88@LoadFloat_@6:
  0017d	c6 45 f0 ed	 mov	 BYTE PTR __k$[ebp+8], -19 ; ffffffedH
  00181	eb 2d		 jmp	 SHORT $LN1@LoadFloat_@6
$LN89@LoadFloat_@6:
  00183	c6 45 ef ea	 mov	 BYTE PTR __k$[ebp+7], -22 ; ffffffeaH
  00187	eb 27		 jmp	 SHORT $LN1@LoadFloat_@6
$LN90@LoadFloat_@6:
  00189	88 4d ee	 mov	 BYTE PTR __k$[ebp+6], cl
  0018c	eb 22		 jmp	 SHORT $LN1@LoadFloat_@6
$LN91@LoadFloat_@6:
  0018e	c6 45 ed ec	 mov	 BYTE PTR __k$[ebp+5], -20 ; ffffffecH
  00192	eb 1c		 jmp	 SHORT $LN1@LoadFloat_@6
$LN92@LoadFloat_@6:
  00194	c6 45 ec ed	 mov	 BYTE PTR __k$[ebp+4], -19 ; ffffffedH
  00198	eb 16		 jmp	 SHORT $LN1@LoadFloat_@6
$LN93@LoadFloat_@6:
  0019a	c6 45 eb ea	 mov	 BYTE PTR __k$[ebp+3], -22 ; ffffffeaH
  0019e	eb 10		 jmp	 SHORT $LN1@LoadFloat_@6
$LN94@LoadFloat_@6:
  001a0	c6 45 ea eb	 mov	 BYTE PTR __k$[ebp+2], -21 ; ffffffebH
  001a4	eb 0a		 jmp	 SHORT $LN1@LoadFloat_@6
$LN95@LoadFloat_@6:
  001a6	c6 45 e9 ec	 mov	 BYTE PTR __k$[ebp+1], -20 ; ffffffecH
  001aa	eb 04		 jmp	 SHORT $LN1@LoadFloat_@6
$LN96@LoadFloat_@6:
  001ac	c6 45 e8 ed	 mov	 BYTE PTR __k$[ebp], -19	; ffffffedH
$LN1@LoadFloat_@6:
  001b0	6a 03		 push	 3
  001b2	8d 45 e8	 lea	 eax, DWORD PTR __k$[ebp]
  001b5	c6 45 f7 00	 mov	 BYTE PTR __k$[ebp+15], 0
  001b9	5a		 pop	 edx
$LL104@LoadFloat_@6:
  001ba	81 30 ed ec eb
	ea		 xor	 DWORD PTR [eax], -353637139 ; eaebecedH
  001c0	83 c0 04	 add	 eax, 4
  001c3	4a		 dec	 edx
  001c4	75 f4		 jne	 SHORT $LL104@LoadFloat_@6
  001c6	6a 0c		 push	 12			; 0000000cH
  001c8	58		 pop	 eax
$LL101@LoadFloat_@6:
  001c9	8b c8		 mov	 ecx, eax
  001cb	81 e1 03 00 00
	80		 and	 ecx, -2147483645	; 80000003H
  001d1	79 05		 jns	 SHORT $LN111@LoadFloat_@6
  001d3	49		 dec	 ecx
  001d4	83 c9 fc	 or	 ecx, -4			; fffffffcH
  001d7	41		 inc	 ecx
$LN111@LoadFloat_@6:
  001d8	b2 ed		 mov	 dl, -19			; ffffffedH
  001da	2a d1		 sub	 dl, cl
  001dc	30 54 05 e8	 xor	 BYTE PTR __k$[ebp+eax], dl
  001e0	40		 inc	 eax
  001e1	83 f8 0f	 cmp	 eax, 15			; 0000000fH
  001e4	7c e3		 jl	 SHORT $LL101@LoadFloat_@6

; 137  : 		return LoadFloat(_k, f);

  001e6	f3 0f 10 45 0c	 movss	 xmm0, DWORD PTR _f$[ebp]
  001eb	51		 push	 ecx
  001ec	8d 45 e8	 lea	 eax, DWORD PTR __k$[ebp]
  001ef	f3 0f 11 04 24	 movss	 DWORD PTR [esp], xmm0
  001f4	50		 push	 eax
  001f5	8b ce		 mov	 ecx, esi
  001f7	ff 15 00 00 00
	00		 call	 DWORD PTR __imp_?LoadFloat@ioINILoader@@QAEMPBDM@Z

; 138  : 	}

  001fd	8b 4d fc	 mov	 ecx, DWORD PTR __$ArrayPad$[ebp]
  00200	33 cd		 xor	 ecx, ebp
  00202	5e		 pop	 esi
  00203	e8 00 00 00 00	 call	 @__security_check_cookie@4
  00208	c9		 leave
  00209	c2 08 00	 ret	 8
??$LoadFloat_e@$0BA@@ioINILoader@@QAEMAAY0BA@$$CBDM@Z ENDP ; ioINILoader::LoadFloat_e<16>
_TEXT	ENDS
PUBLIC	_this$GSCopy$
PUBLIC	__$ArrayPad$
PUBLIC	??$LoadString_e@$0BF@@ioINILoader@@QAEXAAY0BF@$$CBDAAY00$$CBDPADH@Z ; ioINILoader::LoadString_e<21>
; Function compile flags: /Ogsp
;	COMDAT ??$LoadString_e@$0BF@@ioINILoader@@QAEXAAY0BF@$$CBDAAY00$$CBDPADH@Z
_TEXT	SEGMENT
_this$GSCopy$ = -36					; size = 4
__k$ = -32						; size = 21
__$ArrayPad$ = -4					; size = 4
_k$ = 8							; size = 4
_d$ = 12						; size = 4
_b$ = 16						; size = 4
_i$ = 20						; size = 4
??$LoadString_e@$0BF@@ioINILoader@@QAEXAAY0BF@$$CBDAAY00$$CBDPADH@Z PROC ; ioINILoader::LoadString_e<21>, COMDAT
; _this$ = ecx

; 161  : 	{

  00000	55		 push	 ebp
  00001	8b ec		 mov	 ebp, esp
  00003	83 ec 24	 sub	 esp, 36			; 00000024H
  00006	a1 00 00 00 00	 mov	 eax, DWORD PTR ___security_cookie
  0000b	33 c5		 xor	 eax, ebp
  0000d	89 45 fc	 mov	 DWORD PTR __$ArrayPad$[ebp], eax
  00010	8b 45 08	 mov	 eax, DWORD PTR _k$[ebp]

; 162  : 		_ENCSTR(k, _k);

  00013	8a 10		 mov	 dl, BYTE PTR [eax]
  00015	53		 push	 ebx
  00016	56		 push	 esi
  00017	8b 75 0c	 mov	 esi, DWORD PTR _d$[ebp]
  0001a	57		 push	 edi
  0001b	8b 7d 10	 mov	 edi, DWORD PTR _b$[ebp]
  0001e	89 4d dc	 mov	 DWORD PTR _this$GSCopy$[ebp], ecx
  00021	84 d2		 test	 dl, dl
  00023	0f 84 f7 01 00
	00		 je	 $LN96@LoadString@6
  00029	80 f2 ed	 xor	 dl, -19			; ffffffedH
  0002c	88 55 e0	 mov	 BYTE PTR __k$[ebp], dl
  0002f	8a 50 01	 mov	 dl, BYTE PTR [eax+1]
  00032	84 d2		 test	 dl, dl
  00034	0f 84 e0 01 00
	00		 je	 $LN95@LoadString@6
  0003a	b1 ec		 mov	 cl, -20			; ffffffecH
  0003c	32 d1		 xor	 dl, cl
  0003e	88 55 e1	 mov	 BYTE PTR __k$[ebp+1], dl
  00041	8a 50 02	 mov	 dl, BYTE PTR [eax+2]
  00044	84 d2		 test	 dl, dl
  00046	0f 84 c8 01 00
	00		 je	 $LN94@LoadString@6
  0004c	b3 eb		 mov	 bl, -21			; ffffffebH
  0004e	32 d3		 xor	 dl, bl
  00050	88 55 e2	 mov	 BYTE PTR __k$[ebp+2], dl
  00053	8a 50 03	 mov	 dl, BYTE PTR [eax+3]
  00056	84 d2		 test	 dl, dl
  00058	0f 84 b0 01 00
	00		 je	 $LN93@LoadString@6
  0005e	80 f2 ea	 xor	 dl, -22			; ffffffeaH
  00061	88 55 e3	 mov	 BYTE PTR __k$[ebp+3], dl
  00064	8a 50 04	 mov	 dl, BYTE PTR [eax+4]
  00067	84 d2		 test	 dl, dl
  00069	0f 84 99 01 00
	00		 je	 $LN92@LoadString@6
  0006f	80 f2 ed	 xor	 dl, -19			; ffffffedH
  00072	88 55 e4	 mov	 BYTE PTR __k$[ebp+4], dl
  00075	8a 50 05	 mov	 dl, BYTE PTR [eax+5]
  00078	84 d2		 test	 dl, dl
  0007a	0f 84 83 01 00
	00		 je	 $LN91@LoadString@6
  00080	32 d1		 xor	 dl, cl
  00082	88 55 e5	 mov	 BYTE PTR __k$[ebp+5], dl
  00085	8a 50 06	 mov	 dl, BYTE PTR [eax+6]
  00088	84 d2		 test	 dl, dl
  0008a	0f 84 6e 01 00
	00		 je	 $LN90@LoadString@6
  00090	32 d3		 xor	 dl, bl
  00092	88 55 e6	 mov	 BYTE PTR __k$[ebp+6], dl
  00095	8a 50 07	 mov	 dl, BYTE PTR [eax+7]
  00098	84 d2		 test	 dl, dl
  0009a	0f 84 58 01 00
	00		 je	 $LN89@LoadString@6
  000a0	80 f2 ea	 xor	 dl, -22			; ffffffeaH
  000a3	88 55 e7	 mov	 BYTE PTR __k$[ebp+7], dl
  000a6	8a 50 08	 mov	 dl, BYTE PTR [eax+8]
  000a9	84 d2		 test	 dl, dl
  000ab	0f 84 41 01 00
	00		 je	 $LN88@LoadString@6
  000b1	80 f2 ed	 xor	 dl, -19			; ffffffedH
  000b4	88 55 e8	 mov	 BYTE PTR __k$[ebp+8], dl
  000b7	8a 50 09	 mov	 dl, BYTE PTR [eax+9]
  000ba	84 d2		 test	 dl, dl
  000bc	0f 84 2b 01 00
	00		 je	 $LN87@LoadString@6
  000c2	32 d1		 xor	 dl, cl
  000c4	88 55 e9	 mov	 BYTE PTR __k$[ebp+9], dl
  000c7	8a 50 0a	 mov	 dl, BYTE PTR [eax+10]
  000ca	84 d2		 test	 dl, dl
  000cc	0f 84 16 01 00
	00		 je	 $LN86@LoadString@6
  000d2	32 d3		 xor	 dl, bl
  000d4	88 55 ea	 mov	 BYTE PTR __k$[ebp+10], dl
  000d7	8a 50 0b	 mov	 dl, BYTE PTR [eax+11]
  000da	84 d2		 test	 dl, dl
  000dc	0f 84 00 01 00
	00		 je	 $LN85@LoadString@6
  000e2	80 f2 ea	 xor	 dl, -22			; ffffffeaH
  000e5	88 55 eb	 mov	 BYTE PTR __k$[ebp+11], dl
  000e8	8a 50 0c	 mov	 dl, BYTE PTR [eax+12]
  000eb	84 d2		 test	 dl, dl
  000ed	0f 84 e9 00 00
	00		 je	 $LN84@LoadString@6
  000f3	80 f2 ed	 xor	 dl, -19			; ffffffedH
  000f6	88 55 ec	 mov	 BYTE PTR __k$[ebp+12], dl
  000f9	8a 50 0d	 mov	 dl, BYTE PTR [eax+13]
  000fc	84 d2		 test	 dl, dl
  000fe	0f 84 d3 00 00
	00		 je	 $LN83@LoadString@6
  00104	32 d1		 xor	 dl, cl
  00106	88 55 ed	 mov	 BYTE PTR __k$[ebp+13], dl
  00109	8a 50 0e	 mov	 dl, BYTE PTR [eax+14]
  0010c	84 d2		 test	 dl, dl
  0010e	0f 84 be 00 00
	00		 je	 $LN82@LoadString@6
  00114	32 d3		 xor	 dl, bl
  00116	88 55 ee	 mov	 BYTE PTR __k$[ebp+14], dl
  00119	8a 50 0f	 mov	 dl, BYTE PTR [eax+15]
  0011c	84 d2		 test	 dl, dl
  0011e	0f 84 a8 00 00
	00		 je	 $LN81@LoadString@6
  00124	80 f2 ea	 xor	 dl, -22			; ffffffeaH
  00127	88 55 ef	 mov	 BYTE PTR __k$[ebp+15], dl
  0012a	8a 50 10	 mov	 dl, BYTE PTR [eax+16]
  0012d	84 d2		 test	 dl, dl
  0012f	0f 84 91 00 00
	00		 je	 $LN80@LoadString@6
  00135	80 f2 ed	 xor	 dl, -19			; ffffffedH
  00138	88 55 f0	 mov	 BYTE PTR __k$[ebp+16], dl
  0013b	8a 50 11	 mov	 dl, BYTE PTR [eax+17]
  0013e	84 d2		 test	 dl, dl
  00140	74 7f		 je	 SHORT $LN79@LoadString@6
  00142	32 d1		 xor	 dl, cl
  00144	88 55 f1	 mov	 BYTE PTR __k$[ebp+17], dl
  00147	8a 50 12	 mov	 dl, BYTE PTR [eax+18]
  0014a	84 d2		 test	 dl, dl
  0014c	74 6e		 je	 SHORT $LN78@LoadString@6
  0014e	32 d3		 xor	 dl, bl
  00150	88 55 f2	 mov	 BYTE PTR __k$[ebp+18], dl
  00153	8a 50 13	 mov	 dl, BYTE PTR [eax+19]
  00156	84 d2		 test	 dl, dl
  00158	74 5c		 je	 SHORT $LN77@LoadString@6
  0015a	80 f2 ea	 xor	 dl, -22			; ffffffeaH
  0015d	80 78 14 00	 cmp	 BYTE PTR [eax+20], 0
  00161	88 55 f3	 mov	 BYTE PTR __k$[ebp+19], dl
  00164	0f 84 ba 00 00
	00		 je	 $LN111@LoadString@6
  0016a	8a 50 15	 mov	 dl, BYTE PTR [eax+21]
  0016d	84 d2		 test	 dl, dl
  0016f	74 40		 je	 SHORT $LN75@LoadString@6
  00171	32 d1		 xor	 dl, cl
  00173	88 55 f5	 mov	 BYTE PTR __k$[ebp+21], dl
  00176	8a 50 16	 mov	 dl, BYTE PTR [eax+22]
  00179	84 d2		 test	 dl, dl
  0017b	74 2f		 je	 SHORT $LN74@LoadString@6
  0017d	32 d3		 xor	 dl, bl
  0017f	88 55 f6	 mov	 BYTE PTR __k$[ebp+22], dl
  00182	8a 50 17	 mov	 dl, BYTE PTR [eax+23]
  00185	84 d2		 test	 dl, dl
  00187	74 1d		 je	 SHORT $LN73@LoadString@6
  00189	8a 40 18	 mov	 al, BYTE PTR [eax+24]
  0018c	80 f2 ea	 xor	 dl, -22			; ffffffeaH
  0018f	88 55 f7	 mov	 BYTE PTR __k$[ebp+23], dl
  00192	84 c0		 test	 al, al
  00194	74 0a		 je	 SHORT $LN72@LoadString@6
  00196	34 ed		 xor	 al, -19			; ffffffedH
  00198	88 45 f8	 mov	 BYTE PTR __k$[ebp+24], al
  0019b	e9 84 00 00 00	 jmp	 $LN111@LoadString@6
$LN72@LoadString@6:
  001a0	c6 45 f8 ed	 mov	 BYTE PTR __k$[ebp+24], -19 ; ffffffedH
  001a4	eb 7e		 jmp	 SHORT $LN111@LoadString@6
$LN73@LoadString@6:
  001a6	c6 45 f7 ea	 mov	 BYTE PTR __k$[ebp+23], -22 ; ffffffeaH
  001aa	eb 78		 jmp	 SHORT $LN111@LoadString@6
$LN74@LoadString@6:
  001ac	88 5d f6	 mov	 BYTE PTR __k$[ebp+22], bl
  001af	eb 73		 jmp	 SHORT $LN111@LoadString@6
$LN75@LoadString@6:
  001b1	88 4d f5	 mov	 BYTE PTR __k$[ebp+21], cl
  001b4	eb 6e		 jmp	 SHORT $LN111@LoadString@6
$LN77@LoadString@6:
  001b6	c6 45 f3 ea	 mov	 BYTE PTR __k$[ebp+19], -22 ; ffffffeaH
  001ba	eb 68		 jmp	 SHORT $LN111@LoadString@6
$LN78@LoadString@6:
  001bc	88 5d f2	 mov	 BYTE PTR __k$[ebp+18], bl
  001bf	eb 63		 jmp	 SHORT $LN111@LoadString@6
$LN79@LoadString@6:
  001c1	88 4d f1	 mov	 BYTE PTR __k$[ebp+17], cl
  001c4	eb 5e		 jmp	 SHORT $LN111@LoadString@6
$LN80@LoadString@6:
  001c6	c6 45 f0 ed	 mov	 BYTE PTR __k$[ebp+16], -19 ; ffffffedH
  001ca	eb 58		 jmp	 SHORT $LN111@LoadString@6
$LN81@LoadString@6:
  001cc	c6 45 ef ea	 mov	 BYTE PTR __k$[ebp+15], -22 ; ffffffeaH
  001d0	eb 52		 jmp	 SHORT $LN111@LoadString@6
$LN82@LoadString@6:
  001d2	88 5d ee	 mov	 BYTE PTR __k$[ebp+14], bl
  001d5	eb 4d		 jmp	 SHORT $LN111@LoadString@6
$LN83@LoadString@6:
  001d7	88 4d ed	 mov	 BYTE PTR __k$[ebp+13], cl
  001da	eb 48		 jmp	 SHORT $LN111@LoadString@6
$LN84@LoadString@6:
  001dc	c6 45 ec ed	 mov	 BYTE PTR __k$[ebp+12], -19 ; ffffffedH
  001e0	eb 42		 jmp	 SHORT $LN111@LoadString@6
$LN85@LoadString@6:
  001e2	c6 45 eb ea	 mov	 BYTE PTR __k$[ebp+11], -22 ; ffffffeaH
  001e6	eb 3c		 jmp	 SHORT $LN111@LoadString@6
$LN86@LoadString@6:
  001e8	88 5d ea	 mov	 BYTE PTR __k$[ebp+10], bl
  001eb	eb 37		 jmp	 SHORT $LN111@LoadString@6
$LN87@LoadString@6:
  001ed	88 4d e9	 mov	 BYTE PTR __k$[ebp+9], cl
  001f0	eb 32		 jmp	 SHORT $LN111@LoadString@6
$LN88@LoadString@6:
  001f2	c6 45 e8 ed	 mov	 BYTE PTR __k$[ebp+8], -19 ; ffffffedH
  001f6	eb 2c		 jmp	 SHORT $LN111@LoadString@6
$LN89@LoadString@6:
  001f8	c6 45 e7 ea	 mov	 BYTE PTR __k$[ebp+7], -22 ; ffffffeaH
  001fc	eb 26		 jmp	 SHORT $LN111@LoadString@6
$LN90@LoadString@6:
  001fe	88 5d e6	 mov	 BYTE PTR __k$[ebp+6], bl
  00201	eb 21		 jmp	 SHORT $LN111@LoadString@6
$LN91@LoadString@6:
  00203	88 4d e5	 mov	 BYTE PTR __k$[ebp+5], cl
  00206	eb 1c		 jmp	 SHORT $LN111@LoadString@6
$LN92@LoadString@6:
  00208	c6 45 e4 ed	 mov	 BYTE PTR __k$[ebp+4], -19 ; ffffffedH
  0020c	eb 16		 jmp	 SHORT $LN111@LoadString@6
$LN93@LoadString@6:
  0020e	c6 45 e3 ea	 mov	 BYTE PTR __k$[ebp+3], -22 ; ffffffeaH
  00212	eb 10		 jmp	 SHORT $LN111@LoadString@6
$LN94@LoadString@6:
  00214	c6 45 e2 eb	 mov	 BYTE PTR __k$[ebp+2], -21 ; ffffffebH
  00218	eb 0a		 jmp	 SHORT $LN111@LoadString@6
$LN95@LoadString@6:
  0021a	c6 45 e1 ec	 mov	 BYTE PTR __k$[ebp+1], -20 ; ffffffecH
  0021e	eb 04		 jmp	 SHORT $LN111@LoadString@6
$LN96@LoadString@6:
  00220	c6 45 e0 ed	 mov	 BYTE PTR __k$[ebp], -19	; ffffffedH
$LN111@LoadString@6:
  00224	6a 05		 push	 5
  00226	8d 45 e0	 lea	 eax, DWORD PTR __k$[ebp]
  00229	c6 45 f4 00	 mov	 BYTE PTR __k$[ebp+20], 0
  0022d	5a		 pop	 edx
$LL104@LoadString@6:
  0022e	81 30 ed ec eb
	ea		 xor	 DWORD PTR [eax], -353637139 ; eaebecedH
  00234	83 c0 04	 add	 eax, 4
  00237	4a		 dec	 edx
  00238	75 f4		 jne	 SHORT $LL104@LoadString@6

; 163  : 		LoadString(_k, d, b, i);

  0023a	ff 75 14	 push	 DWORD PTR _i$[ebp]
  0023d	8b 4d dc	 mov	 ecx, DWORD PTR _this$GSCopy$[ebp]
  00240	57		 push	 edi
  00241	56		 push	 esi
  00242	8d 45 e0	 lea	 eax, DWORD PTR __k$[ebp]
  00245	50		 push	 eax
  00246	ff 15 00 00 00
	00		 call	 DWORD PTR __imp_?LoadStringA@ioINILoader@@QAEXPBD0PADH@Z

; 164  : 	}

  0024c	8b 4d fc	 mov	 ecx, DWORD PTR __$ArrayPad$[ebp]
  0024f	5f		 pop	 edi
  00250	5e		 pop	 esi
  00251	33 cd		 xor	 ecx, ebp
  00253	5b		 pop	 ebx
  00254	e8 00 00 00 00	 call	 @__security_check_cookie@4
  00259	c9		 leave
  0025a	c2 10 00	 ret	 16			; 00000010H
??$LoadString_e@$0BF@@ioINILoader@@QAEXAAY0BF@$$CBDAAY00$$CBDPADH@Z ENDP ; ioINILoader::LoadString_e<21>
_TEXT	ENDS
PUBLIC	_this$GSCopy$
PUBLIC	__$ArrayPad$
PUBLIC	??$LoadString_e@$0N@@ioINILoader@@QAEXAAY0N@$$CBDAAY00$$CBDPADH@Z ; ioINILoader::LoadString_e<13>
; Function compile flags: /Ogsp
;	COMDAT ??$LoadString_e@$0N@@ioINILoader@@QAEXAAY0N@$$CBDAAY00$$CBDPADH@Z
_TEXT	SEGMENT
_this$GSCopy$ = -28					; size = 4
__k$ = -24						; size = 13
__$ArrayPad$ = -4					; size = 4
_k$ = 8							; size = 4
_d$ = 12						; size = 4
_b$ = 16						; size = 4
_i$ = 20						; size = 4
??$LoadString_e@$0N@@ioINILoader@@QAEXAAY0N@$$CBDAAY00$$CBDPADH@Z PROC ; ioINILoader::LoadString_e<13>, COMDAT
; _this$ = ecx

; 161  : 	{

  00000	55		 push	 ebp
  00001	8b ec		 mov	 ebp, esp
  00003	83 ec 1c	 sub	 esp, 28			; 0000001cH
  00006	a1 00 00 00 00	 mov	 eax, DWORD PTR ___security_cookie
  0000b	33 c5		 xor	 eax, ebp
  0000d	89 45 fc	 mov	 DWORD PTR __$ArrayPad$[ebp], eax
  00010	8b 45 08	 mov	 eax, DWORD PTR _k$[ebp]

; 162  : 		_ENCSTR(k, _k);

  00013	8a 10		 mov	 dl, BYTE PTR [eax]
  00015	56		 push	 esi
  00016	8b 75 0c	 mov	 esi, DWORD PTR _d$[ebp]
  00019	57		 push	 edi
  0001a	8b 7d 10	 mov	 edi, DWORD PTR _b$[ebp]
  0001d	89 4d e4	 mov	 DWORD PTR _this$GSCopy$[ebp], ecx
  00020	84 d2		 test	 dl, dl
  00022	0f 84 4d 01 00
	00		 je	 $LN96@LoadString@7
  00028	80 f2 ed	 xor	 dl, -19			; ffffffedH
  0002b	88 55 e8	 mov	 BYTE PTR __k$[ebp], dl
  0002e	8a 50 01	 mov	 dl, BYTE PTR [eax+1]
  00031	84 d2		 test	 dl, dl
  00033	0f 84 36 01 00
	00		 je	 $LN95@LoadString@7
  00039	b1 ec		 mov	 cl, -20			; ffffffecH
  0003b	32 d1		 xor	 dl, cl
  0003d	88 55 e9	 mov	 BYTE PTR __k$[ebp+1], dl
  00040	8a 50 02	 mov	 dl, BYTE PTR [eax+2]
  00043	84 d2		 test	 dl, dl
  00045	0f 84 1e 01 00
	00		 je	 $LN94@LoadString@7
  0004b	80 f2 eb	 xor	 dl, -21			; ffffffebH
  0004e	88 55 ea	 mov	 BYTE PTR __k$[ebp+2], dl
  00051	8a 50 03	 mov	 dl, BYTE PTR [eax+3]
  00054	84 d2		 test	 dl, dl
  00056	0f 84 07 01 00
	00		 je	 $LN93@LoadString@7
  0005c	80 f2 ea	 xor	 dl, -22			; ffffffeaH
  0005f	88 55 eb	 mov	 BYTE PTR __k$[ebp+3], dl
  00062	8a 50 04	 mov	 dl, BYTE PTR [eax+4]
  00065	84 d2		 test	 dl, dl
  00067	0f 84 f0 00 00
	00		 je	 $LN92@LoadString@7
  0006d	80 f2 ed	 xor	 dl, -19			; ffffffedH
  00070	88 55 ec	 mov	 BYTE PTR __k$[ebp+4], dl
  00073	8a 50 05	 mov	 dl, BYTE PTR [eax+5]
  00076	84 d2		 test	 dl, dl
  00078	0f 84 da 00 00
	00		 je	 $LN91@LoadString@7
  0007e	32 d1		 xor	 dl, cl
  00080	88 55 ed	 mov	 BYTE PTR __k$[ebp+5], dl
  00083	8a 50 06	 mov	 dl, BYTE PTR [eax+6]
  00086	84 d2		 test	 dl, dl
  00088	0f 84 c4 00 00
	00		 je	 $LN90@LoadString@7
  0008e	80 f2 eb	 xor	 dl, -21			; ffffffebH
  00091	88 55 ee	 mov	 BYTE PTR __k$[ebp+6], dl
  00094	8a 50 07	 mov	 dl, BYTE PTR [eax+7]
  00097	84 d2		 test	 dl, dl
  00099	0f 84 ad 00 00
	00		 je	 $LN89@LoadString@7
  0009f	80 f2 ea	 xor	 dl, -22			; ffffffeaH
  000a2	88 55 ef	 mov	 BYTE PTR __k$[ebp+7], dl
  000a5	8a 50 08	 mov	 dl, BYTE PTR [eax+8]
  000a8	84 d2		 test	 dl, dl
  000aa	0f 84 96 00 00
	00		 je	 $LN88@LoadString@7
  000b0	80 f2 ed	 xor	 dl, -19			; ffffffedH
  000b3	88 55 f0	 mov	 BYTE PTR __k$[ebp+8], dl
  000b6	8a 50 09	 mov	 dl, BYTE PTR [eax+9]
  000b9	84 d2		 test	 dl, dl
  000bb	0f 84 80 00 00
	00		 je	 $LN87@LoadString@7
  000c1	32 d1		 xor	 dl, cl
  000c3	88 55 f1	 mov	 BYTE PTR __k$[ebp+9], dl
  000c6	8a 50 0a	 mov	 dl, BYTE PTR [eax+10]
  000c9	84 d2		 test	 dl, dl
  000cb	74 6e		 je	 SHORT $LN86@LoadString@7
  000cd	80 f2 eb	 xor	 dl, -21			; ffffffebH
  000d0	88 55 f2	 mov	 BYTE PTR __k$[ebp+10], dl
  000d3	8a 50 0b	 mov	 dl, BYTE PTR [eax+11]
  000d6	84 d2		 test	 dl, dl
  000d8	74 5b		 je	 SHORT $LN85@LoadString@7
  000da	80 f2 ea	 xor	 dl, -22			; ffffffeaH
  000dd	80 78 0c 00	 cmp	 BYTE PTR [eax+12], 0
  000e1	88 55 f3	 mov	 BYTE PTR __k$[ebp+11], dl
  000e4	0f 84 8f 00 00
	00		 je	 $LN111@LoadString@7
  000ea	8a 50 0d	 mov	 dl, BYTE PTR [eax+13]
  000ed	84 d2		 test	 dl, dl
  000ef	74 3f		 je	 SHORT $LN83@LoadString@7
  000f1	32 d1		 xor	 dl, cl
  000f3	88 55 f5	 mov	 BYTE PTR __k$[ebp+13], dl
  000f6	8a 50 0e	 mov	 dl, BYTE PTR [eax+14]
  000f9	84 d2		 test	 dl, dl
  000fb	74 2d		 je	 SHORT $LN82@LoadString@7
  000fd	80 f2 eb	 xor	 dl, -21			; ffffffebH
  00100	88 55 f6	 mov	 BYTE PTR __k$[ebp+14], dl
  00103	8a 50 0f	 mov	 dl, BYTE PTR [eax+15]
  00106	84 d2		 test	 dl, dl
  00108	74 1a		 je	 SHORT $LN81@LoadString@7
  0010a	8a 40 10	 mov	 al, BYTE PTR [eax+16]
  0010d	80 f2 ea	 xor	 dl, -22			; ffffffeaH
  00110	88 55 f7	 mov	 BYTE PTR __k$[ebp+15], dl
  00113	84 c0		 test	 al, al
  00115	74 07		 je	 SHORT $LN80@LoadString@7
  00117	34 ed		 xor	 al, -19			; ffffffedH
  00119	88 45 f8	 mov	 BYTE PTR __k$[ebp+16], al
  0011c	eb 5b		 jmp	 SHORT $LN111@LoadString@7
$LN80@LoadString@7:
  0011e	c6 45 f8 ed	 mov	 BYTE PTR __k$[ebp+16], -19 ; ffffffedH
  00122	eb 55		 jmp	 SHORT $LN111@LoadString@7
$LN81@LoadString@7:
  00124	c6 45 f7 ea	 mov	 BYTE PTR __k$[ebp+15], -22 ; ffffffeaH
  00128	eb 4f		 jmp	 SHORT $LN111@LoadString@7
$LN82@LoadString@7:
  0012a	c6 45 f6 eb	 mov	 BYTE PTR __k$[ebp+14], -21 ; ffffffebH
  0012e	eb 49		 jmp	 SHORT $LN111@LoadString@7
$LN83@LoadString@7:
  00130	88 4d f5	 mov	 BYTE PTR __k$[ebp+13], cl
  00133	eb 44		 jmp	 SHORT $LN111@LoadString@7
$LN85@LoadString@7:
  00135	c6 45 f3 ea	 mov	 BYTE PTR __k$[ebp+11], -22 ; ffffffeaH
  00139	eb 3e		 jmp	 SHORT $LN111@LoadString@7
$LN86@LoadString@7:
  0013b	c6 45 f2 eb	 mov	 BYTE PTR __k$[ebp+10], -21 ; ffffffebH
  0013f	eb 38		 jmp	 SHORT $LN111@LoadString@7
$LN87@LoadString@7:
  00141	88 4d f1	 mov	 BYTE PTR __k$[ebp+9], cl
  00144	eb 33		 jmp	 SHORT $LN111@LoadString@7
$LN88@LoadString@7:
  00146	c6 45 f0 ed	 mov	 BYTE PTR __k$[ebp+8], -19 ; ffffffedH
  0014a	eb 2d		 jmp	 SHORT $LN111@LoadString@7
$LN89@LoadString@7:
  0014c	c6 45 ef ea	 mov	 BYTE PTR __k$[ebp+7], -22 ; ffffffeaH
  00150	eb 27		 jmp	 SHORT $LN111@LoadString@7
$LN90@LoadString@7:
  00152	c6 45 ee eb	 mov	 BYTE PTR __k$[ebp+6], -21 ; ffffffebH
  00156	eb 21		 jmp	 SHORT $LN111@LoadString@7
$LN91@LoadString@7:
  00158	88 4d ed	 mov	 BYTE PTR __k$[ebp+5], cl
  0015b	eb 1c		 jmp	 SHORT $LN111@LoadString@7
$LN92@LoadString@7:
  0015d	c6 45 ec ed	 mov	 BYTE PTR __k$[ebp+4], -19 ; ffffffedH
  00161	eb 16		 jmp	 SHORT $LN111@LoadString@7
$LN93@LoadString@7:
  00163	c6 45 eb ea	 mov	 BYTE PTR __k$[ebp+3], -22 ; ffffffeaH
  00167	eb 10		 jmp	 SHORT $LN111@LoadString@7
$LN94@LoadString@7:
  00169	c6 45 ea eb	 mov	 BYTE PTR __k$[ebp+2], -21 ; ffffffebH
  0016d	eb 0a		 jmp	 SHORT $LN111@LoadString@7
$LN95@LoadString@7:
  0016f	c6 45 e9 ec	 mov	 BYTE PTR __k$[ebp+1], -20 ; ffffffecH
  00173	eb 04		 jmp	 SHORT $LN111@LoadString@7
$LN96@LoadString@7:
  00175	c6 45 e8 ed	 mov	 BYTE PTR __k$[ebp], -19	; ffffffedH
$LN111@LoadString@7:
  00179	6a 03		 push	 3
  0017b	8d 45 e8	 lea	 eax, DWORD PTR __k$[ebp]
  0017e	c6 45 f4 00	 mov	 BYTE PTR __k$[ebp+12], 0
  00182	5a		 pop	 edx
$LL104@LoadString@7:
  00183	81 30 ed ec eb
	ea		 xor	 DWORD PTR [eax], -353637139 ; eaebecedH
  00189	83 c0 04	 add	 eax, 4
  0018c	4a		 dec	 edx
  0018d	75 f4		 jne	 SHORT $LL104@LoadString@7

; 163  : 		LoadString(_k, d, b, i);

  0018f	ff 75 14	 push	 DWORD PTR _i$[ebp]
  00192	8b 4d e4	 mov	 ecx, DWORD PTR _this$GSCopy$[ebp]
  00195	57		 push	 edi
  00196	56		 push	 esi
  00197	8d 45 e8	 lea	 eax, DWORD PTR __k$[ebp]
  0019a	50		 push	 eax
  0019b	ff 15 00 00 00
	00		 call	 DWORD PTR __imp_?LoadStringA@ioINILoader@@QAEXPBD0PADH@Z

; 164  : 	}

  001a1	8b 4d fc	 mov	 ecx, DWORD PTR __$ArrayPad$[ebp]
  001a4	5f		 pop	 edi
  001a5	33 cd		 xor	 ecx, ebp
  001a7	5e		 pop	 esi
  001a8	e8 00 00 00 00	 call	 @__security_check_cookie@4
  001ad	c9		 leave
  001ae	c2 10 00	 ret	 16			; 00000010H
??$LoadString_e@$0N@@ioINILoader@@QAEXAAY0N@$$CBDAAY00$$CBDPADH@Z ENDP ; ioINILoader::LoadString_e<13>
_TEXT	ENDS
PUBLIC	__$ArrayPad$
PUBLIC	??$LoadFloat_e@$0BC@@ioINILoader@@QAEMAAY0BC@$$CBDM@Z ; ioINILoader::LoadFloat_e<18>
; Function compile flags: /Ogsp
;	COMDAT ??$LoadFloat_e@$0BC@@ioINILoader@@QAEMAAY0BC@$$CBDM@Z
_TEXT	SEGMENT
__k$ = -28						; size = 18
__$ArrayPad$ = -4					; size = 4
_k$ = 8							; size = 4
_f$ = 12						; size = 4
??$LoadFloat_e@$0BC@@ioINILoader@@QAEMAAY0BC@$$CBDM@Z PROC ; ioINILoader::LoadFloat_e<18>, COMDAT
; _this$ = ecx

; 135  : 	{

  00000	55		 push	 ebp
  00001	8b ec		 mov	 ebp, esp
  00003	83 ec 1c	 sub	 esp, 28			; 0000001cH
  00006	a1 00 00 00 00	 mov	 eax, DWORD PTR ___security_cookie
  0000b	33 c5		 xor	 eax, ebp
  0000d	89 45 fc	 mov	 DWORD PTR __$ArrayPad$[ebp], eax
  00010	8b 45 08	 mov	 eax, DWORD PTR _k$[ebp]

; 136  : 		_ENCSTR(k, _k);

  00013	8a 10		 mov	 dl, BYTE PTR [eax]
  00015	56		 push	 esi
  00016	8b f1		 mov	 esi, ecx
  00018	84 d2		 test	 dl, dl
  0001a	0f 84 be 01 00
	00		 je	 $LN96@LoadFloat_@7
  00020	80 f2 ed	 xor	 dl, -19			; ffffffedH
  00023	88 55 e4	 mov	 BYTE PTR __k$[ebp], dl
  00026	8a 50 01	 mov	 dl, BYTE PTR [eax+1]
  00029	84 d2		 test	 dl, dl
  0002b	0f 84 a7 01 00
	00		 je	 $LN95@LoadFloat_@7
  00031	80 f2 ec	 xor	 dl, -20			; ffffffecH
  00034	88 55 e5	 mov	 BYTE PTR __k$[ebp+1], dl
  00037	8a 50 02	 mov	 dl, BYTE PTR [eax+2]
  0003a	84 d2		 test	 dl, dl
  0003c	0f 84 90 01 00
	00		 je	 $LN94@LoadFloat_@7
  00042	b1 eb		 mov	 cl, -21			; ffffffebH
  00044	32 d1		 xor	 dl, cl
  00046	88 55 e6	 mov	 BYTE PTR __k$[ebp+2], dl
  00049	8a 50 03	 mov	 dl, BYTE PTR [eax+3]
  0004c	84 d2		 test	 dl, dl
  0004e	0f 84 78 01 00
	00		 je	 $LN93@LoadFloat_@7
  00054	80 f2 ea	 xor	 dl, -22			; ffffffeaH
  00057	88 55 e7	 mov	 BYTE PTR __k$[ebp+3], dl
  0005a	8a 50 04	 mov	 dl, BYTE PTR [eax+4]
  0005d	84 d2		 test	 dl, dl
  0005f	0f 84 61 01 00
	00		 je	 $LN92@LoadFloat_@7
  00065	80 f2 ed	 xor	 dl, -19			; ffffffedH
  00068	88 55 e8	 mov	 BYTE PTR __k$[ebp+4], dl
  0006b	8a 50 05	 mov	 dl, BYTE PTR [eax+5]
  0006e	84 d2		 test	 dl, dl
  00070	0f 84 4a 01 00
	00		 je	 $LN91@LoadFloat_@7
  00076	80 f2 ec	 xor	 dl, -20			; ffffffecH
  00079	88 55 e9	 mov	 BYTE PTR __k$[ebp+5], dl
  0007c	8a 50 06	 mov	 dl, BYTE PTR [eax+6]
  0007f	84 d2		 test	 dl, dl
  00081	0f 84 34 01 00
	00		 je	 $LN90@LoadFloat_@7
  00087	32 d1		 xor	 dl, cl
  00089	88 55 ea	 mov	 BYTE PTR __k$[ebp+6], dl
  0008c	8a 50 07	 mov	 dl, BYTE PTR [eax+7]
  0008f	84 d2		 test	 dl, dl
  00091	0f 84 1e 01 00
	00		 je	 $LN89@LoadFloat_@7
  00097	80 f2 ea	 xor	 dl, -22			; ffffffeaH
  0009a	88 55 eb	 mov	 BYTE PTR __k$[ebp+7], dl
  0009d	8a 50 08	 mov	 dl, BYTE PTR [eax+8]
  000a0	84 d2		 test	 dl, dl
  000a2	0f 84 07 01 00
	00		 je	 $LN88@LoadFloat_@7
  000a8	80 f2 ed	 xor	 dl, -19			; ffffffedH
  000ab	88 55 ec	 mov	 BYTE PTR __k$[ebp+8], dl
  000ae	8a 50 09	 mov	 dl, BYTE PTR [eax+9]
  000b1	84 d2		 test	 dl, dl
  000b3	0f 84 f0 00 00
	00		 je	 $LN87@LoadFloat_@7
  000b9	80 f2 ec	 xor	 dl, -20			; ffffffecH
  000bc	88 55 ed	 mov	 BYTE PTR __k$[ebp+9], dl
  000bf	8a 50 0a	 mov	 dl, BYTE PTR [eax+10]
  000c2	84 d2		 test	 dl, dl
  000c4	0f 84 da 00 00
	00		 je	 $LN86@LoadFloat_@7
  000ca	32 d1		 xor	 dl, cl
  000cc	88 55 ee	 mov	 BYTE PTR __k$[ebp+10], dl
  000cf	8a 50 0b	 mov	 dl, BYTE PTR [eax+11]
  000d2	84 d2		 test	 dl, dl
  000d4	0f 84 c4 00 00
	00		 je	 $LN85@LoadFloat_@7
  000da	80 f2 ea	 xor	 dl, -22			; ffffffeaH
  000dd	88 55 ef	 mov	 BYTE PTR __k$[ebp+11], dl
  000e0	8a 50 0c	 mov	 dl, BYTE PTR [eax+12]
  000e3	84 d2		 test	 dl, dl
  000e5	0f 84 ad 00 00
	00		 je	 $LN84@LoadFloat_@7
  000eb	80 f2 ed	 xor	 dl, -19			; ffffffedH
  000ee	88 55 f0	 mov	 BYTE PTR __k$[ebp+12], dl
  000f1	8a 50 0d	 mov	 dl, BYTE PTR [eax+13]
  000f4	84 d2		 test	 dl, dl
  000f6	0f 84 96 00 00
	00		 je	 $LN83@LoadFloat_@7
  000fc	80 f2 ec	 xor	 dl, -20			; ffffffecH
  000ff	88 55 f1	 mov	 BYTE PTR __k$[ebp+13], dl
  00102	8a 50 0e	 mov	 dl, BYTE PTR [eax+14]
  00105	84 d2		 test	 dl, dl
  00107	0f 84 80 00 00
	00		 je	 $LN82@LoadFloat_@7
  0010d	32 d1		 xor	 dl, cl
  0010f	88 55 f2	 mov	 BYTE PTR __k$[ebp+14], dl
  00112	8a 50 0f	 mov	 dl, BYTE PTR [eax+15]
  00115	84 d2		 test	 dl, dl
  00117	74 6e		 je	 SHORT $LN81@LoadFloat_@7
  00119	80 f2 ea	 xor	 dl, -22			; ffffffeaH
  0011c	88 55 f3	 mov	 BYTE PTR __k$[ebp+15], dl
  0011f	8a 50 10	 mov	 dl, BYTE PTR [eax+16]
  00122	84 d2		 test	 dl, dl
  00124	74 5b		 je	 SHORT $LN80@LoadFloat_@7
  00126	80 f2 ed	 xor	 dl, -19			; ffffffedH
  00129	80 78 11 00	 cmp	 BYTE PTR [eax+17], 0
  0012d	88 55 f4	 mov	 BYTE PTR __k$[ebp+16], dl
  00130	0f 84 ac 00 00
	00		 je	 $LN1@LoadFloat_@7
  00136	8a 50 12	 mov	 dl, BYTE PTR [eax+18]
  00139	84 d2		 test	 dl, dl
  0013b	74 3f		 je	 SHORT $LN78@LoadFloat_@7
  0013d	32 d1		 xor	 dl, cl
  0013f	88 55 f6	 mov	 BYTE PTR __k$[ebp+18], dl
  00142	8a 50 13	 mov	 dl, BYTE PTR [eax+19]
  00145	84 d2		 test	 dl, dl
  00147	74 2d		 je	 SHORT $LN77@LoadFloat_@7
  00149	80 f2 ea	 xor	 dl, -22			; ffffffeaH
  0014c	88 55 f7	 mov	 BYTE PTR __k$[ebp+19], dl
  0014f	8a 50 14	 mov	 dl, BYTE PTR [eax+20]
  00152	84 d2		 test	 dl, dl
  00154	74 1a		 je	 SHORT $LN76@LoadFloat_@7
  00156	8a 40 15	 mov	 al, BYTE PTR [eax+21]
  00159	80 f2 ed	 xor	 dl, -19			; ffffffedH
  0015c	88 55 f8	 mov	 BYTE PTR __k$[ebp+20], dl
  0015f	84 c0		 test	 al, al
  00161	74 07		 je	 SHORT $LN75@LoadFloat_@7
  00163	34 ec		 xor	 al, -20			; ffffffecH
  00165	88 45 f9	 mov	 BYTE PTR __k$[ebp+21], al
  00168	eb 78		 jmp	 SHORT $LN1@LoadFloat_@7
$LN75@LoadFloat_@7:
  0016a	c6 45 f9 ec	 mov	 BYTE PTR __k$[ebp+21], -20 ; ffffffecH
  0016e	eb 72		 jmp	 SHORT $LN1@LoadFloat_@7
$LN76@LoadFloat_@7:
  00170	c6 45 f8 ed	 mov	 BYTE PTR __k$[ebp+20], -19 ; ffffffedH
  00174	eb 6c		 jmp	 SHORT $LN1@LoadFloat_@7
$LN77@LoadFloat_@7:
  00176	c6 45 f7 ea	 mov	 BYTE PTR __k$[ebp+19], -22 ; ffffffeaH
  0017a	eb 66		 jmp	 SHORT $LN1@LoadFloat_@7
$LN78@LoadFloat_@7:
  0017c	88 4d f6	 mov	 BYTE PTR __k$[ebp+18], cl
  0017f	eb 61		 jmp	 SHORT $LN1@LoadFloat_@7
$LN80@LoadFloat_@7:
  00181	c6 45 f4 ed	 mov	 BYTE PTR __k$[ebp+16], -19 ; ffffffedH
  00185	eb 5b		 jmp	 SHORT $LN1@LoadFloat_@7
$LN81@LoadFloat_@7:
  00187	c6 45 f3 ea	 mov	 BYTE PTR __k$[ebp+15], -22 ; ffffffeaH
  0018b	eb 55		 jmp	 SHORT $LN1@LoadFloat_@7
$LN82@LoadFloat_@7:
  0018d	88 4d f2	 mov	 BYTE PTR __k$[ebp+14], cl
  00190	eb 50		 jmp	 SHORT $LN1@LoadFloat_@7
$LN83@LoadFloat_@7:
  00192	c6 45 f1 ec	 mov	 BYTE PTR __k$[ebp+13], -20 ; ffffffecH
  00196	eb 4a		 jmp	 SHORT $LN1@LoadFloat_@7
$LN84@LoadFloat_@7:
  00198	c6 45 f0 ed	 mov	 BYTE PTR __k$[ebp+12], -19 ; ffffffedH
  0019c	eb 44		 jmp	 SHORT $LN1@LoadFloat_@7
$LN85@LoadFloat_@7:
  0019e	c6 45 ef ea	 mov	 BYTE PTR __k$[ebp+11], -22 ; ffffffeaH
  001a2	eb 3e		 jmp	 SHORT $LN1@LoadFloat_@7
$LN86@LoadFloat_@7:
  001a4	88 4d ee	 mov	 BYTE PTR __k$[ebp+10], cl
  001a7	eb 39		 jmp	 SHORT $LN1@LoadFloat_@7
$LN87@LoadFloat_@7:
  001a9	c6 45 ed ec	 mov	 BYTE PTR __k$[ebp+9], -20 ; ffffffecH
  001ad	eb 33		 jmp	 SHORT $LN1@LoadFloat_@7
$LN88@LoadFloat_@7:
  001af	c6 45 ec ed	 mov	 BYTE PTR __k$[ebp+8], -19 ; ffffffedH
  001b3	eb 2d		 jmp	 SHORT $LN1@LoadFloat_@7
$LN89@LoadFloat_@7:
  001b5	c6 45 eb ea	 mov	 BYTE PTR __k$[ebp+7], -22 ; ffffffeaH
  001b9	eb 27		 jmp	 SHORT $LN1@LoadFloat_@7
$LN90@LoadFloat_@7:
  001bb	88 4d ea	 mov	 BYTE PTR __k$[ebp+6], cl
  001be	eb 22		 jmp	 SHORT $LN1@LoadFloat_@7
$LN91@LoadFloat_@7:
  001c0	c6 45 e9 ec	 mov	 BYTE PTR __k$[ebp+5], -20 ; ffffffecH
  001c4	eb 1c		 jmp	 SHORT $LN1@LoadFloat_@7
$LN92@LoadFloat_@7:
  001c6	c6 45 e8 ed	 mov	 BYTE PTR __k$[ebp+4], -19 ; ffffffedH
  001ca	eb 16		 jmp	 SHORT $LN1@LoadFloat_@7
$LN93@LoadFloat_@7:
  001cc	c6 45 e7 ea	 mov	 BYTE PTR __k$[ebp+3], -22 ; ffffffeaH
  001d0	eb 10		 jmp	 SHORT $LN1@LoadFloat_@7
$LN94@LoadFloat_@7:
  001d2	c6 45 e6 eb	 mov	 BYTE PTR __k$[ebp+2], -21 ; ffffffebH
  001d6	eb 0a		 jmp	 SHORT $LN1@LoadFloat_@7
$LN95@LoadFloat_@7:
  001d8	c6 45 e5 ec	 mov	 BYTE PTR __k$[ebp+1], -20 ; ffffffecH
  001dc	eb 04		 jmp	 SHORT $LN1@LoadFloat_@7
$LN96@LoadFloat_@7:
  001de	c6 45 e4 ed	 mov	 BYTE PTR __k$[ebp], -19	; ffffffedH
$LN1@LoadFloat_@7:
  001e2	6a 04		 push	 4
  001e4	8d 45 e4	 lea	 eax, DWORD PTR __k$[ebp]
  001e7	c6 45 f5 00	 mov	 BYTE PTR __k$[ebp+17], 0
  001eb	5a		 pop	 edx
$LL104@LoadFloat_@7:
  001ec	81 30 ed ec eb
	ea		 xor	 DWORD PTR [eax], -353637139 ; eaebecedH
  001f2	83 c0 04	 add	 eax, 4
  001f5	4a		 dec	 edx
  001f6	75 f4		 jne	 SHORT $LL104@LoadFloat_@7

; 137  : 		return LoadFloat(_k, f);

  001f8	f3 0f 10 45 0c	 movss	 xmm0, DWORD PTR _f$[ebp]
  001fd	80 75 f4 ed	 xor	 BYTE PTR __k$[ebp+16], -19 ; ffffffedH
  00201	51		 push	 ecx
  00202	8d 45 e4	 lea	 eax, DWORD PTR __k$[ebp]
  00205	f3 0f 11 04 24	 movss	 DWORD PTR [esp], xmm0
  0020a	50		 push	 eax
  0020b	8b ce		 mov	 ecx, esi
  0020d	ff 15 00 00 00
	00		 call	 DWORD PTR __imp_?LoadFloat@ioINILoader@@QAEMPBDM@Z

; 138  : 	}

  00213	8b 4d fc	 mov	 ecx, DWORD PTR __$ArrayPad$[ebp]
  00216	33 cd		 xor	 ecx, ebp
  00218	5e		 pop	 esi
  00219	e8 00 00 00 00	 call	 @__security_check_cookie@4
  0021e	c9		 leave
  0021f	c2 08 00	 ret	 8
??$LoadFloat_e@$0BC@@ioINILoader@@QAEMAAY0BC@$$CBDM@Z ENDP ; ioINILoader::LoadFloat_e<18>
_TEXT	ENDS
PUBLIC	__$ArrayPad$
PUBLIC	??$LoadInt_e@$0BG@@ioINILoader@@QAEHAAY0BG@$$CBDH@Z ; ioINILoader::LoadInt_e<22>
; Function compile flags: /Ogsp
;	COMDAT ??$LoadInt_e@$0BG@@ioINILoader@@QAEHAAY0BG@$$CBDH@Z
_TEXT	SEGMENT
__k$ = -32						; size = 22
__$ArrayPad$ = -4					; size = 4
_k$ = 8							; size = 4
_i$ = 12						; size = 4
??$LoadInt_e@$0BG@@ioINILoader@@QAEHAAY0BG@$$CBDH@Z PROC ; ioINILoader::LoadInt_e<22>, COMDAT
; _this$ = ecx

; 118  : 	{

  00000	55		 push	 ebp
  00001	8b ec		 mov	 ebp, esp
  00003	83 ec 20	 sub	 esp, 32			; 00000020H
  00006	a1 00 00 00 00	 mov	 eax, DWORD PTR ___security_cookie
  0000b	33 c5		 xor	 eax, ebp
  0000d	89 45 fc	 mov	 DWORD PTR __$ArrayPad$[ebp], eax
  00010	8b 45 08	 mov	 eax, DWORD PTR _k$[ebp]

; 119  : 		_ENCSTR(k, _k);

  00013	8a 10		 mov	 dl, BYTE PTR [eax]
  00015	53		 push	 ebx
  00016	56		 push	 esi
  00017	8b f1		 mov	 esi, ecx
  00019	84 d2		 test	 dl, dl
  0001b	0f 84 15 02 00
	00		 je	 $LN96@LoadInt_e@3
  00021	80 f2 ed	 xor	 dl, -19			; ffffffedH
  00024	88 55 e0	 mov	 BYTE PTR __k$[ebp], dl
  00027	8a 50 01	 mov	 dl, BYTE PTR [eax+1]
  0002a	84 d2		 test	 dl, dl
  0002c	0f 84 fe 01 00
	00		 je	 $LN95@LoadInt_e@3
  00032	80 f2 ec	 xor	 dl, -20			; ffffffecH
  00035	88 55 e1	 mov	 BYTE PTR __k$[ebp+1], dl
  00038	8a 50 02	 mov	 dl, BYTE PTR [eax+2]
  0003b	84 d2		 test	 dl, dl
  0003d	0f 84 e7 01 00
	00		 je	 $LN94@LoadInt_e@3
  00043	b1 eb		 mov	 cl, -21			; ffffffebH
  00045	32 d1		 xor	 dl, cl
  00047	88 55 e2	 mov	 BYTE PTR __k$[ebp+2], dl
  0004a	8a 50 03	 mov	 dl, BYTE PTR [eax+3]
  0004d	84 d2		 test	 dl, dl
  0004f	0f 84 cf 01 00
	00		 je	 $LN93@LoadInt_e@3
  00055	b3 ea		 mov	 bl, -22			; ffffffeaH
  00057	32 d3		 xor	 dl, bl
  00059	88 55 e3	 mov	 BYTE PTR __k$[ebp+3], dl
  0005c	8a 50 04	 mov	 dl, BYTE PTR [eax+4]
  0005f	84 d2		 test	 dl, dl
  00061	0f 84 b7 01 00
	00		 je	 $LN92@LoadInt_e@3
  00067	80 f2 ed	 xor	 dl, -19			; ffffffedH
  0006a	88 55 e4	 mov	 BYTE PTR __k$[ebp+4], dl
  0006d	8a 50 05	 mov	 dl, BYTE PTR [eax+5]
  00070	84 d2		 test	 dl, dl
  00072	0f 84 a0 01 00
	00		 je	 $LN91@LoadInt_e@3
  00078	80 f2 ec	 xor	 dl, -20			; ffffffecH
  0007b	88 55 e5	 mov	 BYTE PTR __k$[ebp+5], dl
  0007e	8a 50 06	 mov	 dl, BYTE PTR [eax+6]
  00081	84 d2		 test	 dl, dl
  00083	0f 84 8a 01 00
	00		 je	 $LN90@LoadInt_e@3
  00089	32 d1		 xor	 dl, cl
  0008b	88 55 e6	 mov	 BYTE PTR __k$[ebp+6], dl
  0008e	8a 50 07	 mov	 dl, BYTE PTR [eax+7]
  00091	84 d2		 test	 dl, dl
  00093	0f 84 75 01 00
	00		 je	 $LN89@LoadInt_e@3
  00099	32 d3		 xor	 dl, bl
  0009b	88 55 e7	 mov	 BYTE PTR __k$[ebp+7], dl
  0009e	8a 50 08	 mov	 dl, BYTE PTR [eax+8]
  000a1	84 d2		 test	 dl, dl
  000a3	0f 84 5f 01 00
	00		 je	 $LN88@LoadInt_e@3
  000a9	80 f2 ed	 xor	 dl, -19			; ffffffedH
  000ac	88 55 e8	 mov	 BYTE PTR __k$[ebp+8], dl
  000af	8a 50 09	 mov	 dl, BYTE PTR [eax+9]
  000b2	84 d2		 test	 dl, dl
  000b4	0f 84 48 01 00
	00		 je	 $LN87@LoadInt_e@3
  000ba	80 f2 ec	 xor	 dl, -20			; ffffffecH
  000bd	88 55 e9	 mov	 BYTE PTR __k$[ebp+9], dl
  000c0	8a 50 0a	 mov	 dl, BYTE PTR [eax+10]
  000c3	84 d2		 test	 dl, dl
  000c5	0f 84 32 01 00
	00		 je	 $LN86@LoadInt_e@3
  000cb	32 d1		 xor	 dl, cl
  000cd	88 55 ea	 mov	 BYTE PTR __k$[ebp+10], dl
  000d0	8a 50 0b	 mov	 dl, BYTE PTR [eax+11]
  000d3	84 d2		 test	 dl, dl
  000d5	0f 84 1d 01 00
	00		 je	 $LN85@LoadInt_e@3
  000db	32 d3		 xor	 dl, bl
  000dd	88 55 eb	 mov	 BYTE PTR __k$[ebp+11], dl
  000e0	8a 50 0c	 mov	 dl, BYTE PTR [eax+12]
  000e3	84 d2		 test	 dl, dl
  000e5	0f 84 07 01 00
	00		 je	 $LN84@LoadInt_e@3
  000eb	80 f2 ed	 xor	 dl, -19			; ffffffedH
  000ee	88 55 ec	 mov	 BYTE PTR __k$[ebp+12], dl
  000f1	8a 50 0d	 mov	 dl, BYTE PTR [eax+13]
  000f4	84 d2		 test	 dl, dl
  000f6	0f 84 f0 00 00
	00		 je	 $LN83@LoadInt_e@3
  000fc	80 f2 ec	 xor	 dl, -20			; ffffffecH
  000ff	88 55 ed	 mov	 BYTE PTR __k$[ebp+13], dl
  00102	8a 50 0e	 mov	 dl, BYTE PTR [eax+14]
  00105	84 d2		 test	 dl, dl
  00107	0f 84 da 00 00
	00		 je	 $LN82@LoadInt_e@3
  0010d	32 d1		 xor	 dl, cl
  0010f	88 55 ee	 mov	 BYTE PTR __k$[ebp+14], dl
  00112	8a 50 0f	 mov	 dl, BYTE PTR [eax+15]
  00115	84 d2		 test	 dl, dl
  00117	0f 84 c5 00 00
	00		 je	 $LN81@LoadInt_e@3
  0011d	32 d3		 xor	 dl, bl
  0011f	88 55 ef	 mov	 BYTE PTR __k$[ebp+15], dl
  00122	8a 50 10	 mov	 dl, BYTE PTR [eax+16]
  00125	84 d2		 test	 dl, dl
  00127	0f 84 af 00 00
	00		 je	 $LN80@LoadInt_e@3
  0012d	80 f2 ed	 xor	 dl, -19			; ffffffedH
  00130	88 55 f0	 mov	 BYTE PTR __k$[ebp+16], dl
  00133	8a 50 11	 mov	 dl, BYTE PTR [eax+17]
  00136	84 d2		 test	 dl, dl
  00138	0f 84 98 00 00
	00		 je	 $LN79@LoadInt_e@3
  0013e	80 f2 ec	 xor	 dl, -20			; ffffffecH
  00141	88 55 f1	 mov	 BYTE PTR __k$[ebp+17], dl
  00144	8a 50 12	 mov	 dl, BYTE PTR [eax+18]
  00147	84 d2		 test	 dl, dl
  00149	0f 84 82 00 00
	00		 je	 $LN78@LoadInt_e@3
  0014f	32 d1		 xor	 dl, cl
  00151	88 55 f2	 mov	 BYTE PTR __k$[ebp+18], dl
  00154	8a 50 13	 mov	 dl, BYTE PTR [eax+19]
  00157	84 d2		 test	 dl, dl
  00159	74 71		 je	 SHORT $LN77@LoadInt_e@3
  0015b	32 d3		 xor	 dl, bl
  0015d	88 55 f3	 mov	 BYTE PTR __k$[ebp+19], dl
  00160	8a 50 14	 mov	 dl, BYTE PTR [eax+20]
  00163	84 d2		 test	 dl, dl
  00165	74 5f		 je	 SHORT $LN76@LoadInt_e@3
  00167	80 f2 ed	 xor	 dl, -19			; ffffffedH
  0016a	80 78 15 00	 cmp	 BYTE PTR [eax+21], 0
  0016e	88 55 f4	 mov	 BYTE PTR __k$[ebp+20], dl
  00171	0f 84 c3 00 00
	00		 je	 $LN1@LoadInt_e@3
  00177	8a 50 16	 mov	 dl, BYTE PTR [eax+22]
  0017a	84 d2		 test	 dl, dl
  0017c	74 43		 je	 SHORT $LN74@LoadInt_e@3
  0017e	32 d1		 xor	 dl, cl
  00180	88 55 f6	 mov	 BYTE PTR __k$[ebp+22], dl
  00183	8a 50 17	 mov	 dl, BYTE PTR [eax+23]
  00186	84 d2		 test	 dl, dl
  00188	74 32		 je	 SHORT $LN73@LoadInt_e@3
  0018a	32 d3		 xor	 dl, bl
  0018c	88 55 f7	 mov	 BYTE PTR __k$[ebp+23], dl
  0018f	8a 50 18	 mov	 dl, BYTE PTR [eax+24]
  00192	84 d2		 test	 dl, dl
  00194	74 20		 je	 SHORT $LN72@LoadInt_e@3
  00196	8a 40 19	 mov	 al, BYTE PTR [eax+25]
  00199	80 f2 ed	 xor	 dl, -19			; ffffffedH
  0019c	88 55 f8	 mov	 BYTE PTR __k$[ebp+24], dl
  0019f	84 c0		 test	 al, al
  001a1	74 0a		 je	 SHORT $LN71@LoadInt_e@3
  001a3	34 ec		 xor	 al, -20			; ffffffecH
  001a5	88 45 f9	 mov	 BYTE PTR __k$[ebp+25], al
  001a8	e9 8d 00 00 00	 jmp	 $LN1@LoadInt_e@3
$LN71@LoadInt_e@3:
  001ad	c6 45 f9 ec	 mov	 BYTE PTR __k$[ebp+25], -20 ; ffffffecH
  001b1	e9 84 00 00 00	 jmp	 $LN1@LoadInt_e@3
$LN72@LoadInt_e@3:
  001b6	c6 45 f8 ed	 mov	 BYTE PTR __k$[ebp+24], -19 ; ffffffedH
  001ba	eb 7e		 jmp	 SHORT $LN1@LoadInt_e@3
$LN73@LoadInt_e@3:
  001bc	88 5d f7	 mov	 BYTE PTR __k$[ebp+23], bl
  001bf	eb 79		 jmp	 SHORT $LN1@LoadInt_e@3
$LN74@LoadInt_e@3:
  001c1	88 4d f6	 mov	 BYTE PTR __k$[ebp+22], cl
  001c4	eb 74		 jmp	 SHORT $LN1@LoadInt_e@3
$LN76@LoadInt_e@3:
  001c6	c6 45 f4 ed	 mov	 BYTE PTR __k$[ebp+20], -19 ; ffffffedH
  001ca	eb 6e		 jmp	 SHORT $LN1@LoadInt_e@3
$LN77@LoadInt_e@3:
  001cc	88 5d f3	 mov	 BYTE PTR __k$[ebp+19], bl
  001cf	eb 69		 jmp	 SHORT $LN1@LoadInt_e@3
$LN78@LoadInt_e@3:
  001d1	88 4d f2	 mov	 BYTE PTR __k$[ebp+18], cl
  001d4	eb 64		 jmp	 SHORT $LN1@LoadInt_e@3
$LN79@LoadInt_e@3:
  001d6	c6 45 f1 ec	 mov	 BYTE PTR __k$[ebp+17], -20 ; ffffffecH
  001da	eb 5e		 jmp	 SHORT $LN1@LoadInt_e@3
$LN80@LoadInt_e@3:
  001dc	c6 45 f0 ed	 mov	 BYTE PTR __k$[ebp+16], -19 ; ffffffedH
  001e0	eb 58		 jmp	 SHORT $LN1@LoadInt_e@3
$LN81@LoadInt_e@3:
  001e2	88 5d ef	 mov	 BYTE PTR __k$[ebp+15], bl
  001e5	eb 53		 jmp	 SHORT $LN1@LoadInt_e@3
$LN82@LoadInt_e@3:
  001e7	88 4d ee	 mov	 BYTE PTR __k$[ebp+14], cl
  001ea	eb 4e		 jmp	 SHORT $LN1@LoadInt_e@3
$LN83@LoadInt_e@3:
  001ec	c6 45 ed ec	 mov	 BYTE PTR __k$[ebp+13], -20 ; ffffffecH
  001f0	eb 48		 jmp	 SHORT $LN1@LoadInt_e@3
$LN84@LoadInt_e@3:
  001f2	c6 45 ec ed	 mov	 BYTE PTR __k$[ebp+12], -19 ; ffffffedH
  001f6	eb 42		 jmp	 SHORT $LN1@LoadInt_e@3
$LN85@LoadInt_e@3:
  001f8	88 5d eb	 mov	 BYTE PTR __k$[ebp+11], bl
  001fb	eb 3d		 jmp	 SHORT $LN1@LoadInt_e@3
$LN86@LoadInt_e@3:
  001fd	88 4d ea	 mov	 BYTE PTR __k$[ebp+10], cl
  00200	eb 38		 jmp	 SHORT $LN1@LoadInt_e@3
$LN87@LoadInt_e@3:
  00202	c6 45 e9 ec	 mov	 BYTE PTR __k$[ebp+9], -20 ; ffffffecH
  00206	eb 32		 jmp	 SHORT $LN1@LoadInt_e@3
$LN88@LoadInt_e@3:
  00208	c6 45 e8 ed	 mov	 BYTE PTR __k$[ebp+8], -19 ; ffffffedH
  0020c	eb 2c		 jmp	 SHORT $LN1@LoadInt_e@3
$LN89@LoadInt_e@3:
  0020e	88 5d e7	 mov	 BYTE PTR __k$[ebp+7], bl
  00211	eb 27		 jmp	 SHORT $LN1@LoadInt_e@3
$LN90@LoadInt_e@3:
  00213	88 4d e6	 mov	 BYTE PTR __k$[ebp+6], cl
  00216	eb 22		 jmp	 SHORT $LN1@LoadInt_e@3
$LN91@LoadInt_e@3:
  00218	c6 45 e5 ec	 mov	 BYTE PTR __k$[ebp+5], -20 ; ffffffecH
  0021c	eb 1c		 jmp	 SHORT $LN1@LoadInt_e@3
$LN92@LoadInt_e@3:
  0021e	c6 45 e4 ed	 mov	 BYTE PTR __k$[ebp+4], -19 ; ffffffedH
  00222	eb 16		 jmp	 SHORT $LN1@LoadInt_e@3
$LN93@LoadInt_e@3:
  00224	c6 45 e3 ea	 mov	 BYTE PTR __k$[ebp+3], -22 ; ffffffeaH
  00228	eb 10		 jmp	 SHORT $LN1@LoadInt_e@3
$LN94@LoadInt_e@3:
  0022a	c6 45 e2 eb	 mov	 BYTE PTR __k$[ebp+2], -21 ; ffffffebH
  0022e	eb 0a		 jmp	 SHORT $LN1@LoadInt_e@3
$LN95@LoadInt_e@3:
  00230	c6 45 e1 ec	 mov	 BYTE PTR __k$[ebp+1], -20 ; ffffffecH
  00234	eb 04		 jmp	 SHORT $LN1@LoadInt_e@3
$LN96@LoadInt_e@3:
  00236	c6 45 e0 ed	 mov	 BYTE PTR __k$[ebp], -19	; ffffffedH
$LN1@LoadInt_e@3:
  0023a	6a 05		 push	 5
  0023c	8d 45 e0	 lea	 eax, DWORD PTR __k$[ebp]
  0023f	c6 45 f5 00	 mov	 BYTE PTR __k$[ebp+21], 0
  00243	5a		 pop	 edx
$LL104@LoadInt_e@3:
  00244	81 30 ed ec eb
	ea		 xor	 DWORD PTR [eax], -353637139 ; eaebecedH
  0024a	83 c0 04	 add	 eax, 4
  0024d	4a		 dec	 edx
  0024e	75 f4		 jne	 SHORT $LL104@LoadInt_e@3

; 120  : 		return LoadInt(_k, i);

  00250	ff 75 0c	 push	 DWORD PTR _i$[ebp]
  00253	80 75 f4 ed	 xor	 BYTE PTR __k$[ebp+20], -19 ; ffffffedH
  00257	8d 45 e0	 lea	 eax, DWORD PTR __k$[ebp]
  0025a	50		 push	 eax
  0025b	8b ce		 mov	 ecx, esi
  0025d	ff 15 00 00 00
	00		 call	 DWORD PTR __imp_?LoadInt@ioINILoader@@QAEHPBDH@Z

; 121  : 	}

  00263	8b 4d fc	 mov	 ecx, DWORD PTR __$ArrayPad$[ebp]
  00266	5e		 pop	 esi
  00267	33 cd		 xor	 ecx, ebp
  00269	5b		 pop	 ebx
  0026a	e8 00 00 00 00	 call	 @__security_check_cookie@4
  0026f	c9		 leave
  00270	c2 08 00	 ret	 8
??$LoadInt_e@$0BG@@ioINILoader@@QAEHAAY0BG@$$CBDH@Z ENDP ; ioINILoader::LoadInt_e<22>
_TEXT	ENDS
PUBLIC	__$ArrayPad$
PUBLIC	??$LoadInt_e@$0BC@@ioINILoader@@QAEHAAY0BC@$$CBDH@Z ; ioINILoader::LoadInt_e<18>
; Function compile flags: /Ogsp
;	COMDAT ??$LoadInt_e@$0BC@@ioINILoader@@QAEHAAY0BC@$$CBDH@Z
_TEXT	SEGMENT
__k$ = -28						; size = 18
__$ArrayPad$ = -4					; size = 4
_k$ = 8							; size = 4
_i$ = 12						; size = 4
??$LoadInt_e@$0BC@@ioINILoader@@QAEHAAY0BC@$$CBDH@Z PROC ; ioINILoader::LoadInt_e<18>, COMDAT
; _this$ = ecx

; 118  : 	{

  00000	55		 push	 ebp
  00001	8b ec		 mov	 ebp, esp
  00003	83 ec 1c	 sub	 esp, 28			; 0000001cH
  00006	a1 00 00 00 00	 mov	 eax, DWORD PTR ___security_cookie
  0000b	33 c5		 xor	 eax, ebp
  0000d	89 45 fc	 mov	 DWORD PTR __$ArrayPad$[ebp], eax
  00010	8b 45 08	 mov	 eax, DWORD PTR _k$[ebp]

; 119  : 		_ENCSTR(k, _k);

  00013	8a 10		 mov	 dl, BYTE PTR [eax]
  00015	56		 push	 esi
  00016	8b f1		 mov	 esi, ecx
  00018	84 d2		 test	 dl, dl
  0001a	0f 84 be 01 00
	00		 je	 $LN96@LoadInt_e@4
  00020	80 f2 ed	 xor	 dl, -19			; ffffffedH
  00023	88 55 e4	 mov	 BYTE PTR __k$[ebp], dl
  00026	8a 50 01	 mov	 dl, BYTE PTR [eax+1]
  00029	84 d2		 test	 dl, dl
  0002b	0f 84 a7 01 00
	00		 je	 $LN95@LoadInt_e@4
  00031	80 f2 ec	 xor	 dl, -20			; ffffffecH
  00034	88 55 e5	 mov	 BYTE PTR __k$[ebp+1], dl
  00037	8a 50 02	 mov	 dl, BYTE PTR [eax+2]
  0003a	84 d2		 test	 dl, dl
  0003c	0f 84 90 01 00
	00		 je	 $LN94@LoadInt_e@4
  00042	b1 eb		 mov	 cl, -21			; ffffffebH
  00044	32 d1		 xor	 dl, cl
  00046	88 55 e6	 mov	 BYTE PTR __k$[ebp+2], dl
  00049	8a 50 03	 mov	 dl, BYTE PTR [eax+3]
  0004c	84 d2		 test	 dl, dl
  0004e	0f 84 78 01 00
	00		 je	 $LN93@LoadInt_e@4
  00054	80 f2 ea	 xor	 dl, -22			; ffffffeaH
  00057	88 55 e7	 mov	 BYTE PTR __k$[ebp+3], dl
  0005a	8a 50 04	 mov	 dl, BYTE PTR [eax+4]
  0005d	84 d2		 test	 dl, dl
  0005f	0f 84 61 01 00
	00		 je	 $LN92@LoadInt_e@4
  00065	80 f2 ed	 xor	 dl, -19			; ffffffedH
  00068	88 55 e8	 mov	 BYTE PTR __k$[ebp+4], dl
  0006b	8a 50 05	 mov	 dl, BYTE PTR [eax+5]
  0006e	84 d2		 test	 dl, dl
  00070	0f 84 4a 01 00
	00		 je	 $LN91@LoadInt_e@4
  00076	80 f2 ec	 xor	 dl, -20			; ffffffecH
  00079	88 55 e9	 mov	 BYTE PTR __k$[ebp+5], dl
  0007c	8a 50 06	 mov	 dl, BYTE PTR [eax+6]
  0007f	84 d2		 test	 dl, dl
  00081	0f 84 34 01 00
	00		 je	 $LN90@LoadInt_e@4
  00087	32 d1		 xor	 dl, cl
  00089	88 55 ea	 mov	 BYTE PTR __k$[ebp+6], dl
  0008c	8a 50 07	 mov	 dl, BYTE PTR [eax+7]
  0008f	84 d2		 test	 dl, dl
  00091	0f 84 1e 01 00
	00		 je	 $LN89@LoadInt_e@4
  00097	80 f2 ea	 xor	 dl, -22			; ffffffeaH
  0009a	88 55 eb	 mov	 BYTE PTR __k$[ebp+7], dl
  0009d	8a 50 08	 mov	 dl, BYTE PTR [eax+8]
  000a0	84 d2		 test	 dl, dl
  000a2	0f 84 07 01 00
	00		 je	 $LN88@LoadInt_e@4
  000a8	80 f2 ed	 xor	 dl, -19			; ffffffedH
  000ab	88 55 ec	 mov	 BYTE PTR __k$[ebp+8], dl
  000ae	8a 50 09	 mov	 dl, BYTE PTR [eax+9]
  000b1	84 d2		 test	 dl, dl
  000b3	0f 84 f0 00 00
	00		 je	 $LN87@LoadInt_e@4
  000b9	80 f2 ec	 xor	 dl, -20			; ffffffecH
  000bc	88 55 ed	 mov	 BYTE PTR __k$[ebp+9], dl
  000bf	8a 50 0a	 mov	 dl, BYTE PTR [eax+10]
  000c2	84 d2		 test	 dl, dl
  000c4	0f 84 da 00 00
	00		 je	 $LN86@LoadInt_e@4
  000ca	32 d1		 xor	 dl, cl
  000cc	88 55 ee	 mov	 BYTE PTR __k$[ebp+10], dl
  000cf	8a 50 0b	 mov	 dl, BYTE PTR [eax+11]
  000d2	84 d2		 test	 dl, dl
  000d4	0f 84 c4 00 00
	00		 je	 $LN85@LoadInt_e@4
  000da	80 f2 ea	 xor	 dl, -22			; ffffffeaH
  000dd	88 55 ef	 mov	 BYTE PTR __k$[ebp+11], dl
  000e0	8a 50 0c	 mov	 dl, BYTE PTR [eax+12]
  000e3	84 d2		 test	 dl, dl
  000e5	0f 84 ad 00 00
	00		 je	 $LN84@LoadInt_e@4
  000eb	80 f2 ed	 xor	 dl, -19			; ffffffedH
  000ee	88 55 f0	 mov	 BYTE PTR __k$[ebp+12], dl
  000f1	8a 50 0d	 mov	 dl, BYTE PTR [eax+13]
  000f4	84 d2		 test	 dl, dl
  000f6	0f 84 96 00 00
	00		 je	 $LN83@LoadInt_e@4
  000fc	80 f2 ec	 xor	 dl, -20			; ffffffecH
  000ff	88 55 f1	 mov	 BYTE PTR __k$[ebp+13], dl
  00102	8a 50 0e	 mov	 dl, BYTE PTR [eax+14]
  00105	84 d2		 test	 dl, dl
  00107	0f 84 80 00 00
	00		 je	 $LN82@LoadInt_e@4
  0010d	32 d1		 xor	 dl, cl
  0010f	88 55 f2	 mov	 BYTE PTR __k$[ebp+14], dl
  00112	8a 50 0f	 mov	 dl, BYTE PTR [eax+15]
  00115	84 d2		 test	 dl, dl
  00117	74 6e		 je	 SHORT $LN81@LoadInt_e@4
  00119	80 f2 ea	 xor	 dl, -22			; ffffffeaH
  0011c	88 55 f3	 mov	 BYTE PTR __k$[ebp+15], dl
  0011f	8a 50 10	 mov	 dl, BYTE PTR [eax+16]
  00122	84 d2		 test	 dl, dl
  00124	74 5b		 je	 SHORT $LN80@LoadInt_e@4
  00126	80 f2 ed	 xor	 dl, -19			; ffffffedH
  00129	80 78 11 00	 cmp	 BYTE PTR [eax+17], 0
  0012d	88 55 f4	 mov	 BYTE PTR __k$[ebp+16], dl
  00130	0f 84 ac 00 00
	00		 je	 $LN1@LoadInt_e@4
  00136	8a 50 12	 mov	 dl, BYTE PTR [eax+18]
  00139	84 d2		 test	 dl, dl
  0013b	74 3f		 je	 SHORT $LN78@LoadInt_e@4
  0013d	32 d1		 xor	 dl, cl
  0013f	88 55 f6	 mov	 BYTE PTR __k$[ebp+18], dl
  00142	8a 50 13	 mov	 dl, BYTE PTR [eax+19]
  00145	84 d2		 test	 dl, dl
  00147	74 2d		 je	 SHORT $LN77@LoadInt_e@4
  00149	80 f2 ea	 xor	 dl, -22			; ffffffeaH
  0014c	88 55 f7	 mov	 BYTE PTR __k$[ebp+19], dl
  0014f	8a 50 14	 mov	 dl, BYTE PTR [eax+20]
  00152	84 d2		 test	 dl, dl
  00154	74 1a		 je	 SHORT $LN76@LoadInt_e@4
  00156	8a 40 15	 mov	 al, BYTE PTR [eax+21]
  00159	80 f2 ed	 xor	 dl, -19			; ffffffedH
  0015c	88 55 f8	 mov	 BYTE PTR __k$[ebp+20], dl
  0015f	84 c0		 test	 al, al
  00161	74 07		 je	 SHORT $LN75@LoadInt_e@4
  00163	34 ec		 xor	 al, -20			; ffffffecH
  00165	88 45 f9	 mov	 BYTE PTR __k$[ebp+21], al
  00168	eb 78		 jmp	 SHORT $LN1@LoadInt_e@4
$LN75@LoadInt_e@4:
  0016a	c6 45 f9 ec	 mov	 BYTE PTR __k$[ebp+21], -20 ; ffffffecH
  0016e	eb 72		 jmp	 SHORT $LN1@LoadInt_e@4
$LN76@LoadInt_e@4:
  00170	c6 45 f8 ed	 mov	 BYTE PTR __k$[ebp+20], -19 ; ffffffedH
  00174	eb 6c		 jmp	 SHORT $LN1@LoadInt_e@4
$LN77@LoadInt_e@4:
  00176	c6 45 f7 ea	 mov	 BYTE PTR __k$[ebp+19], -22 ; ffffffeaH
  0017a	eb 66		 jmp	 SHORT $LN1@LoadInt_e@4
$LN78@LoadInt_e@4:
  0017c	88 4d f6	 mov	 BYTE PTR __k$[ebp+18], cl
  0017f	eb 61		 jmp	 SHORT $LN1@LoadInt_e@4
$LN80@LoadInt_e@4:
  00181	c6 45 f4 ed	 mov	 BYTE PTR __k$[ebp+16], -19 ; ffffffedH
  00185	eb 5b		 jmp	 SHORT $LN1@LoadInt_e@4
$LN81@LoadInt_e@4:
  00187	c6 45 f3 ea	 mov	 BYTE PTR __k$[ebp+15], -22 ; ffffffeaH
  0018b	eb 55		 jmp	 SHORT $LN1@LoadInt_e@4
$LN82@LoadInt_e@4:
  0018d	88 4d f2	 mov	 BYTE PTR __k$[ebp+14], cl
  00190	eb 50		 jmp	 SHORT $LN1@LoadInt_e@4
$LN83@LoadInt_e@4:
  00192	c6 45 f1 ec	 mov	 BYTE PTR __k$[ebp+13], -20 ; ffffffecH
  00196	eb 4a		 jmp	 SHORT $LN1@LoadInt_e@4
$LN84@LoadInt_e@4:
  00198	c6 45 f0 ed	 mov	 BYTE PTR __k$[ebp+12], -19 ; ffffffedH
  0019c	eb 44		 jmp	 SHORT $LN1@LoadInt_e@4
$LN85@LoadInt_e@4:
  0019e	c6 45 ef ea	 mov	 BYTE PTR __k$[ebp+11], -22 ; ffffffeaH
  001a2	eb 3e		 jmp	 SHORT $LN1@LoadInt_e@4
$LN86@LoadInt_e@4:
  001a4	88 4d ee	 mov	 BYTE PTR __k$[ebp+10], cl
  001a7	eb 39		 jmp	 SHORT $LN1@LoadInt_e@4
$LN87@LoadInt_e@4:
  001a9	c6 45 ed ec	 mov	 BYTE PTR __k$[ebp+9], -20 ; ffffffecH
  001ad	eb 33		 jmp	 SHORT $LN1@LoadInt_e@4
$LN88@LoadInt_e@4:
  001af	c6 45 ec ed	 mov	 BYTE PTR __k$[ebp+8], -19 ; ffffffedH
  001b3	eb 2d		 jmp	 SHORT $LN1@LoadInt_e@4
$LN89@LoadInt_e@4:
  001b5	c6 45 eb ea	 mov	 BYTE PTR __k$[ebp+7], -22 ; ffffffeaH
  001b9	eb 27		 jmp	 SHORT $LN1@LoadInt_e@4
$LN90@LoadInt_e@4:
  001bb	88 4d ea	 mov	 BYTE PTR __k$[ebp+6], cl
  001be	eb 22		 jmp	 SHORT $LN1@LoadInt_e@4
$LN91@LoadInt_e@4:
  001c0	c6 45 e9 ec	 mov	 BYTE PTR __k$[ebp+5], -20 ; ffffffecH
  001c4	eb 1c		 jmp	 SHORT $LN1@LoadInt_e@4
$LN92@LoadInt_e@4:
  001c6	c6 45 e8 ed	 mov	 BYTE PTR __k$[ebp+4], -19 ; ffffffedH
  001ca	eb 16		 jmp	 SHORT $LN1@LoadInt_e@4
$LN93@LoadInt_e@4:
  001cc	c6 45 e7 ea	 mov	 BYTE PTR __k$[ebp+3], -22 ; ffffffeaH
  001d0	eb 10		 jmp	 SHORT $LN1@LoadInt_e@4
$LN94@LoadInt_e@4:
  001d2	c6 45 e6 eb	 mov	 BYTE PTR __k$[ebp+2], -21 ; ffffffebH
  001d6	eb 0a		 jmp	 SHORT $LN1@LoadInt_e@4
$LN95@LoadInt_e@4:
  001d8	c6 45 e5 ec	 mov	 BYTE PTR __k$[ebp+1], -20 ; ffffffecH
  001dc	eb 04		 jmp	 SHORT $LN1@LoadInt_e@4
$LN96@LoadInt_e@4:
  001de	c6 45 e4 ed	 mov	 BYTE PTR __k$[ebp], -19	; ffffffedH
$LN1@LoadInt_e@4:
  001e2	6a 04		 push	 4
  001e4	8d 45 e4	 lea	 eax, DWORD PTR __k$[ebp]
  001e7	c6 45 f5 00	 mov	 BYTE PTR __k$[ebp+17], 0
  001eb	5a		 pop	 edx
$LL104@LoadInt_e@4:
  001ec	81 30 ed ec eb
	ea		 xor	 DWORD PTR [eax], -353637139 ; eaebecedH
  001f2	83 c0 04	 add	 eax, 4
  001f5	4a		 dec	 edx
  001f6	75 f4		 jne	 SHORT $LL104@LoadInt_e@4

; 120  : 		return LoadInt(_k, i);

  001f8	ff 75 0c	 push	 DWORD PTR _i$[ebp]
  001fb	80 75 f4 ed	 xor	 BYTE PTR __k$[ebp+16], -19 ; ffffffedH
  001ff	8d 45 e4	 lea	 eax, DWORD PTR __k$[ebp]
  00202	50		 push	 eax
  00203	8b ce		 mov	 ecx, esi
  00205	ff 15 00 00 00
	00		 call	 DWORD PTR __imp_?LoadInt@ioINILoader@@QAEHPBDH@Z

; 121  : 	}

  0020b	8b 4d fc	 mov	 ecx, DWORD PTR __$ArrayPad$[ebp]
  0020e	33 cd		 xor	 ecx, ebp
  00210	5e		 pop	 esi
  00211	e8 00 00 00 00	 call	 @__security_check_cookie@4
  00216	c9		 leave
  00217	c2 08 00	 ret	 8
??$LoadInt_e@$0BC@@ioINILoader@@QAEHAAY0BC@$$CBDH@Z ENDP ; ioINILoader::LoadInt_e<18>
_TEXT	ENDS
PUBLIC	?construct@?$allocator@UForceInfo@@@std@@QAEXPAUForceInfo@@ABU3@@Z ; std::allocator<ForceInfo>::construct
; Function compile flags: /Ogsp
; File c:\program files (x86)\microsoft visual studio 10.0\vc\include\xmemory
;	COMDAT ?construct@?$allocator@UForceInfo@@@std@@QAEXPAUForceInfo@@ABU3@@Z
_TEXT	SEGMENT
__Ptr$ = 8						; size = 4
__Val$ = 12						; size = 4
?construct@?$allocator@UForceInfo@@@std@@QAEXPAUForceInfo@@ABU3@@Z PROC ; std::allocator<ForceInfo>::construct, COMDAT
; _this$ = ecx

; 196  : 		{	// construct object at _Ptr with value _Val

  00000	55		 push	 ebp
  00001	8b ec		 mov	 ebp, esp
  00003	57		 push	 edi

; 197  : 		_Construct(_Ptr, _Val);

  00004	8b 7d 08	 mov	 edi, DWORD PTR __Ptr$[ebp]
  00007	85 ff		 test	 edi, edi
  00009	74 08		 je	 SHORT $LN5@construct
  0000b	56		 push	 esi
  0000c	8b 75 0c	 mov	 esi, DWORD PTR __Val$[ebp]
  0000f	a5		 movsd
  00010	a5		 movsd
  00011	a5		 movsd
  00012	5e		 pop	 esi
$LN5@construct:
  00013	5f		 pop	 edi

; 198  : 		}

  00014	5d		 pop	 ebp
  00015	c2 08 00	 ret	 8
?construct@?$allocator@UForceInfo@@@std@@QAEXPAUForceInfo@@ABU3@@Z ENDP ; std::allocator<ForceInfo>::construct
_TEXT	ENDS
PUBLIC	??$_Construct@UWeaponInfo@@ABU1@@std@@YAXPAUWeaponInfo@@ABU1@@Z ; std::_Construct<WeaponInfo,WeaponInfo const &>
EXTRN	__EH_epilog3:PROC
EXTRN	__EH_prolog3:PROC
;	COMDAT xdata$x
; File c:\program files (x86)\microsoft visual studio 10.0\vc\include\utility
xdata$x	SEGMENT
__unwindtable$??$_Construct@UWeaponInfo@@ABU1@@std@@YAXPAUWeaponInfo@@ABU1@@Z DD 0ffffffffH
	DD	FLAT:__unwindfunclet$??$_Construct@UWeaponInfo@@ABU1@@std@@YAXPAUWeaponInfo@@ABU1@@Z$0
__ehfuncinfo$??$_Construct@UWeaponInfo@@ABU1@@std@@YAXPAUWeaponInfo@@ABU1@@Z DD 019930522H
	DD	01H
	DD	FLAT:__unwindtable$??$_Construct@UWeaponInfo@@ABU1@@std@@YAXPAUWeaponInfo@@ABU1@@Z
	DD	2 DUP(00H)
	DD	2 DUP(00H)
	DD	00H
	DD	01H
; Function compile flags: /Ogsp
; File c:\program files (x86)\microsoft visual studio 10.0\vc\include\xmemory
xdata$x	ENDS
;	COMDAT ??$_Construct@UWeaponInfo@@ABU1@@std@@YAXPAUWeaponInfo@@ABU1@@Z
_TEXT	SEGMENT
$T553843 = -16						; size = 4
__$EHRec$ = -12						; size = 12
__Vptr$ = 8						; size = 4
__Ptr$ = 8						; size = 4
__Val$ = 12						; size = 4
??$_Construct@UWeaponInfo@@ABU1@@std@@YAXPAUWeaponInfo@@ABU1@@Z PROC ; std::_Construct<WeaponInfo,WeaponInfo const &>, COMDAT

; 46   : 	{	// construct object at _Ptr with value _Val

  00000	6a 04		 push	 4
  00002	b8 00 00 00 00	 mov	 eax, __ehhandler$??$_Construct@UWeaponInfo@@ABU1@@std@@YAXPAUWeaponInfo@@ABU1@@Z
  00007	e8 00 00 00 00	 call	 __EH_prolog3

; 47   : 	void _FARQ *_Vptr = _Ptr;

  0000c	8b 4d 08	 mov	 ecx, DWORD PTR __Ptr$[ebp]
  0000f	89 4d 08	 mov	 DWORD PTR __Vptr$[ebp], ecx

; 48   : 	::new (_Vptr) _Ty1(_STD forward<_Ty2>(_Val));

  00012	89 4d f0	 mov	 DWORD PTR $T553843[ebp], ecx
  00015	83 65 fc 00	 and	 DWORD PTR __$EHRec$[ebp+8], 0
  00019	85 c9		 test	 ecx, ecx
  0001b	74 08		 je	 SHORT $LN3@Construct@2
  0001d	ff 75 0c	 push	 DWORD PTR __Val$[ebp]
  00020	e8 00 00 00 00	 call	 ??0WeaponInfo@@QAE@ABU0@@Z
$LN3@Construct@2:

; 49   : 	}

  00025	e8 00 00 00 00	 call	 __EH_epilog3
  0002a	c3		 ret	 0
_TEXT	ENDS
;	COMDAT text$x
text$x	SEGMENT
__unwindfunclet$??$_Construct@UWeaponInfo@@ABU1@@std@@YAXPAUWeaponInfo@@ABU1@@Z$0:
  00000	ff 75 08	 push	 DWORD PTR __Vptr$[ebp]
  00003	ff 75 f0	 push	 DWORD PTR $T553843[ebp]
  00006	e8 00 00 00 00	 call	 ??3@YAXPAX0@Z		; operator delete
  0000b	59		 pop	 ecx
  0000c	59		 pop	 ecx
  0000d	c3		 ret	 0
__ehhandler$??$_Construct@UWeaponInfo@@ABU1@@std@@YAXPAUWeaponInfo@@ABU1@@Z:
  0000e	8b 54 24 08	 mov	 edx, DWORD PTR [esp+8]
  00012	8d 42 0c	 lea	 eax, DWORD PTR [edx+12]
  00015	8b 4a ec	 mov	 ecx, DWORD PTR [edx-20]
  00018	33 c8		 xor	 ecx, eax
  0001a	e8 00 00 00 00	 call	 @__security_check_cookie@4
  0001f	b8 00 00 00 00	 mov	 eax, OFFSET __ehfuncinfo$??$_Construct@UWeaponInfo@@ABU1@@std@@YAXPAUWeaponInfo@@ABU1@@Z
  00024	e9 00 00 00 00	 jmp	 ___CxxFrameHandler3
text$x	ENDS
??$_Construct@UWeaponInfo@@ABU1@@std@@YAXPAUWeaponInfo@@ABU1@@Z ENDP ; std::_Construct<WeaponInfo,WeaponInfo const &>
PUBLIC	??0WeaponInfo@@QAE@XZ				; WeaponInfo::WeaponInfo
EXTRN	__imp_??0ioHashString@@QAE@XZ:PROC
; Function compile flags: /Ogsp
; File d:\lost saga for developer\youtube\tutorial\source\src\lsclient\ioattackattribute.h
;	COMDAT ??0WeaponInfo@@QAE@XZ
_TEXT	SEGMENT
??0WeaponInfo@@QAE@XZ PROC				; WeaponInfo::WeaponInfo, COMDAT
; _this$ = ecx

; 64   : 	WeaponInfo()

  00000	56		 push	 esi
  00001	8b f1		 mov	 esi, ecx
  00003	8d 4e 08	 lea	 ecx, DWORD PTR [esi+8]
  00006	ff 15 00 00 00
	00		 call	 DWORD PTR __imp_??0ioHashString@@QAE@XZ

; 65   : 	{
; 66   : 		Init();

  0000c	33 c0		 xor	 eax, eax
  0000e	89 06		 mov	 DWORD PTR [esi], eax
  00010	89 46 04	 mov	 DWORD PTR [esi+4], eax
  00013	89 46 18	 mov	 DWORD PTR [esi+24], eax
  00016	89 46 1c	 mov	 DWORD PTR [esi+28], eax
  00019	88 46 20	 mov	 BYTE PTR [esi+32], al
  0001c	89 46 24	 mov	 DWORD PTR [esi+36], eax

; 67   : 	}

  0001f	8b c6		 mov	 eax, esi
  00021	5e		 pop	 esi
  00022	c3		 ret	 0
??0WeaponInfo@@QAE@XZ ENDP				; WeaponInfo::WeaponInfo
_TEXT	ENDS
PUBLIC	??4?$CEncrypt@K@@QAEKK@Z			; CEncrypt<unsigned long>::operator=
; Function compile flags: /Ogsp
; File d:\lost saga for developer\youtube\tutorial\source\src\lsclient\encryptvalue.h
;	COMDAT ??4?$CEncrypt@K@@QAEKK@Z
_TEXT	SEGMENT
_value$ = 8						; size = 4
_inValue$ = 8						; size = 4
??4?$CEncrypt@K@@QAEKK@Z PROC				; CEncrypt<unsigned long>::operator=, COMDAT
; _this$ = ecx

; 1262 : 	{

  00000	55		 push	 ebp
  00001	8b ec		 mov	 ebp, esp

; 1263 : 		
; 1264 : 		type value = inValue;

  00003	8b 45 08	 mov	 eax, DWORD PTR _inValue$[ebp]
  00006	89 45 08	 mov	 DWORD PTR _value$[ebp], eax

; 1265 : 		EncryptValueToPool((char*)&value);

  00009	8d 45 08	 lea	 eax, DWORD PTR _value$[ebp]
  0000c	50		 push	 eax
  0000d	e8 00 00 00 00	 call	 ?EncryptValueToPool@?$CEncrypt@K@@AAEXPBD@Z ; CEncrypt<unsigned long>::EncryptValueToPool

; 1266 : #ifdef _NOTUSE
; 1267 : 		m_value = inValue;
; 1268 : 		Debug();
; 1269 : #endif
; 1270 : 		return value;

  00012	8b 45 08	 mov	 eax, DWORD PTR _value$[ebp]

; 1271 : 	}

  00015	5d		 pop	 ebp
  00016	c2 04 00	 ret	 4
??4?$CEncrypt@K@@QAEKK@Z ENDP				; CEncrypt<unsigned long>::operator=
_TEXT	ENDS
PUBLIC	??B?$CEncrypt@_N@@QBE_NXZ			; CEncrypt<bool>::operator bool
; Function compile flags: /Ogsp
;	COMDAT ??B?$CEncrypt@_N@@QBE_NXZ
_TEXT	SEGMENT
_value$ = -1						; size = 1
??B?$CEncrypt@_N@@QBE_NXZ PROC				; CEncrypt<bool>::operator bool, COMDAT
; _this$ = ecx

; 145  : 	{

  00000	55		 push	 ebp
  00001	8b ec		 mov	 ebp, esp
  00003	51		 push	 ecx

; 146  : 		//UJ 130829, const도 똑같이 하면 된다 --start
; 147  : 		type value;
; 148  : 		CEncrypt<type>* pThis = const_cast<CEncrypt<type>*>(this);
; 149  : 		pThis->DecryptValueToPool(&value);

  00004	8d 45 ff	 lea	 eax, DWORD PTR _value$[ebp]
  00007	50		 push	 eax
  00008	e8 00 00 00 00	 call	 ?DecryptValueToPool@?$CEncrypt@_N@@QAEXPA_N@Z ; CEncrypt<bool>::DecryptValueToPool

; 150  : 		//// const에서 DecryptValueToPool 사용할 수 없으므로 아래와 같이함.
; 151  :  		//type value;
; 152  : 		//char szTempMem[MAX_ENCRYPT];
; 153  : 		//m_RC5.DecryptByte( m_MemPool, szTempMem, max(m_ValueSize, DEFAULT_ENCRYPT) );
; 154  : 		//memcpy( &value, szTempMem, m_ValueSize );
; 155  : 		//UJ --end
; 156  : 
; 157  : #ifdef _NOTUSE
; 158  : 		Debug();
; 159  : #endif
; 160  : 		return value;

  0000d	8a 45 ff	 mov	 al, BYTE PTR _value$[ebp]

; 161  : 	}

  00010	c9		 leave
  00011	c3		 ret	 0
??B?$CEncrypt@_N@@QBE_NXZ ENDP				; CEncrypt<bool>::operator bool
_TEXT	ENDS
PUBLIC	??B?$CEncrypt@W4TeamType@@@@QBE?AW4TeamType@@XZ	; CEncrypt<enum TeamType>::operator enum TeamType
; Function compile flags: /Ogsp
;	COMDAT ??B?$CEncrypt@W4TeamType@@@@QBE?AW4TeamType@@XZ
_TEXT	SEGMENT
_value$ = -4						; size = 4
??B?$CEncrypt@W4TeamType@@@@QBE?AW4TeamType@@XZ PROC	; CEncrypt<enum TeamType>::operator enum TeamType, COMDAT
; _this$ = ecx

; 145  : 	{

  00000	55		 push	 ebp
  00001	8b ec		 mov	 ebp, esp
  00003	51		 push	 ecx

; 146  : 		//UJ 130829, const도 똑같이 하면 된다 --start
; 147  : 		type value;
; 148  : 		CEncrypt<type>* pThis = const_cast<CEncrypt<type>*>(this);
; 149  : 		pThis->DecryptValueToPool(&value);

  00004	8d 45 fc	 lea	 eax, DWORD PTR _value$[ebp]
  00007	50		 push	 eax
  00008	e8 00 00 00 00	 call	 ?DecryptValueToPool@?$CEncrypt@W4TeamType@@@@QAEXPAW4TeamType@@@Z ; CEncrypt<enum TeamType>::DecryptValueToPool

; 150  : 		//// const에서 DecryptValueToPool 사용할 수 없으므로 아래와 같이함.
; 151  :  		//type value;
; 152  : 		//char szTempMem[MAX_ENCRYPT];
; 153  : 		//m_RC5.DecryptByte( m_MemPool, szTempMem, max(m_ValueSize, DEFAULT_ENCRYPT) );
; 154  : 		//memcpy( &value, szTempMem, m_ValueSize );
; 155  : 		//UJ --end
; 156  : 
; 157  : #ifdef _NOTUSE
; 158  : 		Debug();
; 159  : #endif
; 160  : 		return value;

  0000d	8b 45 fc	 mov	 eax, DWORD PTR _value$[ebp]

; 161  : 	}

  00010	c9		 leave
  00011	c3		 ret	 0
??B?$CEncrypt@W4TeamType@@@@QBE?AW4TeamType@@XZ ENDP	; CEncrypt<enum TeamType>::operator enum TeamType
_TEXT	ENDS
PUBLIC	??0?$_Vector_val@UWeaponInfo@@V?$allocator@UWeaponInfo@@@std@@@std@@QAE@V?$allocator@UWeaponInfo@@@1@@Z ; std::_Vector_val<WeaponInfo,std::allocator<WeaponInfo> >::_Vector_val<WeaponInfo,std::allocator<WeaponInfo> >
; Function compile flags: /Ogsp
; File c:\program files (x86)\microsoft visual studio 10.0\vc\include\vector
;	COMDAT ??0?$_Vector_val@UWeaponInfo@@V?$allocator@UWeaponInfo@@@std@@@std@@QAE@V?$allocator@UWeaponInfo@@@1@@Z
_TEXT	SEGMENT
__Al$ = 8						; size = 1
??0?$_Vector_val@UWeaponInfo@@V?$allocator@UWeaponInfo@@@std@@@std@@QAE@V?$allocator@UWeaponInfo@@@1@@Z PROC ; std::_Vector_val<WeaponInfo,std::allocator<WeaponInfo> >::_Vector_val<WeaponInfo,std::allocator<WeaponInfo> >, COMDAT
; _this$ = ecx

; 426  : 		{	// construct allocator from _Al

  00000	8b c1		 mov	 eax, ecx

; 427  : 		_Myfirst = 0;

  00002	33 c9		 xor	 ecx, ecx
  00004	89 08		 mov	 DWORD PTR [eax], ecx

; 428  : 		_Mylast = 0;

  00006	89 48 04	 mov	 DWORD PTR [eax+4], ecx

; 429  : 		_Myend = 0;

  00009	89 48 08	 mov	 DWORD PTR [eax+8], ecx

; 430  : 		}

  0000c	c2 04 00	 ret	 4
??0?$_Vector_val@UWeaponInfo@@V?$allocator@UWeaponInfo@@@std@@@std@@QAE@V?$allocator@UWeaponInfo@@@1@@Z ENDP ; std::_Vector_val<WeaponInfo,std::allocator<WeaponInfo> >::_Vector_val<WeaponInfo,std::allocator<WeaponInfo> >
_TEXT	ENDS
PUBLIC	??0?$_Vector_val@UForceInfo@@V?$allocator@UForceInfo@@@std@@@std@@QAE@V?$allocator@UForceInfo@@@1@@Z ; std::_Vector_val<ForceInfo,std::allocator<ForceInfo> >::_Vector_val<ForceInfo,std::allocator<ForceInfo> >
; Function compile flags: /Ogsp
;	COMDAT ??0?$_Vector_val@UForceInfo@@V?$allocator@UForceInfo@@@std@@@std@@QAE@V?$allocator@UForceInfo@@@1@@Z
_TEXT	SEGMENT
__Al$ = 8						; size = 1
??0?$_Vector_val@UForceInfo@@V?$allocator@UForceInfo@@@std@@@std@@QAE@V?$allocator@UForceInfo@@@1@@Z PROC ; std::_Vector_val<ForceInfo,std::allocator<ForceInfo> >::_Vector_val<ForceInfo,std::allocator<ForceInfo> >, COMDAT
; _this$ = ecx

; 426  : 		{	// construct allocator from _Al

  00000	8b c1		 mov	 eax, ecx

; 427  : 		_Myfirst = 0;

  00002	33 c9		 xor	 ecx, ecx
  00004	89 08		 mov	 DWORD PTR [eax], ecx

; 428  : 		_Mylast = 0;

  00006	89 48 04	 mov	 DWORD PTR [eax+4], ecx

; 429  : 		_Myend = 0;

  00009	89 48 08	 mov	 DWORD PTR [eax+8], ecx

; 430  : 		}

  0000c	c2 04 00	 ret	 4
??0?$_Vector_val@UForceInfo@@V?$allocator@UForceInfo@@@std@@@std@@QAE@V?$allocator@UForceInfo@@@1@@Z ENDP ; std::_Vector_val<ForceInfo,std::allocator<ForceInfo> >::_Vector_val<ForceInfo,std::allocator<ForceInfo> >
_TEXT	ENDS
PUBLIC	?max_size@?$vector@UWeaponInfo@@V?$allocator@UWeaponInfo@@@std@@@std@@QBEIXZ ; std::vector<WeaponInfo,std::allocator<WeaponInfo> >::max_size
; Function compile flags: /Ogsp
;	COMDAT ?max_size@?$vector@UWeaponInfo@@V?$allocator@UWeaponInfo@@@std@@@std@@QBEIXZ
_TEXT	SEGMENT
?max_size@?$vector@UWeaponInfo@@V?$allocator@UWeaponInfo@@@std@@@std@@QBEIXZ PROC ; std::vector<WeaponInfo,std::allocator<WeaponInfo> >::max_size, COMDAT
; _this$ = ecx

; 884  : 		return (this->_Alval.max_size());

  00000	b8 66 66 66 06	 mov	 eax, 107374182		; 06666666H

; 885  : 		}

  00005	c3		 ret	 0
?max_size@?$vector@UWeaponInfo@@V?$allocator@UWeaponInfo@@@std@@@std@@QBEIXZ ENDP ; std::vector<WeaponInfo,std::allocator<WeaponInfo> >::max_size
_TEXT	ENDS
PUBLIC	?allocate@?$allocator@UWeaponInfo@@@std@@QAEPAUWeaponInfo@@I@Z ; std::allocator<WeaponInfo>::allocate
; Function compile flags: /Ogsp
; File c:\program files (x86)\microsoft visual studio 10.0\vc\include\xmemory
;	COMDAT ?allocate@?$allocator@UWeaponInfo@@@std@@QAEPAUWeaponInfo@@I@Z
_TEXT	SEGMENT
__Count$ = 8						; size = 4
?allocate@?$allocator@UWeaponInfo@@@std@@QAEPAUWeaponInfo@@I@Z PROC ; std::allocator<WeaponInfo>::allocate, COMDAT
; _this$ = ecx

; 186  : 		{	// allocate array of _Count elements

  00000	55		 push	 ebp
  00001	8b ec		 mov	 ebp, esp

; 187  : 		return (_Allocate(_Count, (pointer)0));

  00003	6a 00		 push	 0
  00005	ff 75 08	 push	 DWORD PTR __Count$[ebp]
  00008	e8 00 00 00 00	 call	 ??$_Allocate@UWeaponInfo@@@std@@YAPAUWeaponInfo@@IPAU1@@Z ; std::_Allocate<WeaponInfo>
  0000d	59		 pop	 ecx
  0000e	59		 pop	 ecx

; 188  : 		}

  0000f	5d		 pop	 ebp
  00010	c2 04 00	 ret	 4
?allocate@?$allocator@UWeaponInfo@@@std@@QAEPAUWeaponInfo@@I@Z ENDP ; std::allocator<WeaponInfo>::allocate
_TEXT	ENDS
PUBLIC	?max_size@?$vector@UForceInfo@@V?$allocator@UForceInfo@@@std@@@std@@QBEIXZ ; std::vector<ForceInfo,std::allocator<ForceInfo> >::max_size
; Function compile flags: /Ogsp
; File c:\program files (x86)\microsoft visual studio 10.0\vc\include\vector
;	COMDAT ?max_size@?$vector@UForceInfo@@V?$allocator@UForceInfo@@@std@@@std@@QBEIXZ
_TEXT	SEGMENT
?max_size@?$vector@UForceInfo@@V?$allocator@UForceInfo@@@std@@@std@@QBEIXZ PROC ; std::vector<ForceInfo,std::allocator<ForceInfo> >::max_size, COMDAT
; _this$ = ecx

; 884  : 		return (this->_Alval.max_size());

  00000	b8 55 55 55 15	 mov	 eax, 357913941		; 15555555H

; 885  : 		}

  00005	c3		 ret	 0
?max_size@?$vector@UForceInfo@@V?$allocator@UForceInfo@@@std@@@std@@QBEIXZ ENDP ; std::vector<ForceInfo,std::allocator<ForceInfo> >::max_size
_TEXT	ENDS
PUBLIC	?allocate@?$allocator@UForceInfo@@@std@@QAEPAUForceInfo@@I@Z ; std::allocator<ForceInfo>::allocate
; Function compile flags: /Ogsp
; File c:\program files (x86)\microsoft visual studio 10.0\vc\include\xmemory
;	COMDAT ?allocate@?$allocator@UForceInfo@@@std@@QAEPAUForceInfo@@I@Z
_TEXT	SEGMENT
__Count$ = 8						; size = 4
?allocate@?$allocator@UForceInfo@@@std@@QAEPAUForceInfo@@I@Z PROC ; std::allocator<ForceInfo>::allocate, COMDAT
; _this$ = ecx

; 186  : 		{	// allocate array of _Count elements

  00000	55		 push	 ebp
  00001	8b ec		 mov	 ebp, esp

; 187  : 		return (_Allocate(_Count, (pointer)0));

  00003	6a 00		 push	 0
  00005	ff 75 08	 push	 DWORD PTR __Count$[ebp]
  00008	e8 00 00 00 00	 call	 ??$_Allocate@UForceInfo@@@std@@YAPAUForceInfo@@IPAU1@@Z ; std::_Allocate<ForceInfo>
  0000d	59		 pop	 ecx
  0000e	59		 pop	 ecx

; 188  : 		}

  0000f	5d		 pop	 ebp
  00010	c2 04 00	 ret	 4
?allocate@?$allocator@UForceInfo@@@std@@QAEPAUForceInfo@@I@Z ENDP ; std::allocator<ForceInfo>::allocate
_TEXT	ENDS
PUBLIC	??8?$_Vector_const_iterator@V?$_Vector_val@UWeaponInfo@@V?$allocator@UWeaponInfo@@@std@@@std@@@std@@QBE_NABV01@@Z ; std::_Vector_const_iterator<std::_Vector_val<WeaponInfo,std::allocator<WeaponInfo> > >::operator==
; Function compile flags: /Ogsp
; File c:\program files (x86)\microsoft visual studio 10.0\vc\include\vector
;	COMDAT ??8?$_Vector_const_iterator@V?$_Vector_val@UWeaponInfo@@V?$allocator@UWeaponInfo@@@std@@@std@@@std@@QBE_NABV01@@Z
_TEXT	SEGMENT
__Right$ = 8						; size = 4
??8?$_Vector_const_iterator@V?$_Vector_val@UWeaponInfo@@V?$allocator@UWeaponInfo@@@std@@@std@@@std@@QBE_NABV01@@Z PROC ; std::_Vector_const_iterator<std::_Vector_val<WeaponInfo,std::allocator<WeaponInfo> > >::operator==, COMDAT
; _this$ = ecx

; 201  : 		{	// test for iterator equality

  00000	55		 push	 ebp
  00001	8b ec		 mov	 ebp, esp

; 202  : 		_Compat(_Right);
; 203  : 		return (this->_Ptr == _Right._Ptr);

  00003	8b 01		 mov	 eax, DWORD PTR [ecx]
  00005	8b 4d 08	 mov	 ecx, DWORD PTR __Right$[ebp]
  00008	2b 01		 sub	 eax, DWORD PTR [ecx]
  0000a	f7 d8		 neg	 eax
  0000c	1b c0		 sbb	 eax, eax
  0000e	40		 inc	 eax

; 204  : 		}

  0000f	5d		 pop	 ebp
  00010	c2 04 00	 ret	 4
??8?$_Vector_const_iterator@V?$_Vector_val@UWeaponInfo@@V?$allocator@UWeaponInfo@@@std@@@std@@@std@@QBE_NABV01@@Z ENDP ; std::_Vector_const_iterator<std::_Vector_val<WeaponInfo,std::allocator<WeaponInfo> > >::operator==
_TEXT	ENDS
PUBLIC	??8?$_Vector_const_iterator@V?$_Vector_val@UForceInfo@@V?$allocator@UForceInfo@@@std@@@std@@@std@@QBE_NABV01@@Z ; std::_Vector_const_iterator<std::_Vector_val<ForceInfo,std::allocator<ForceInfo> > >::operator==
; Function compile flags: /Ogsp
;	COMDAT ??8?$_Vector_const_iterator@V?$_Vector_val@UForceInfo@@V?$allocator@UForceInfo@@@std@@@std@@@std@@QBE_NABV01@@Z
_TEXT	SEGMENT
__Right$ = 8						; size = 4
??8?$_Vector_const_iterator@V?$_Vector_val@UForceInfo@@V?$allocator@UForceInfo@@@std@@@std@@@std@@QBE_NABV01@@Z PROC ; std::_Vector_const_iterator<std::_Vector_val<ForceInfo,std::allocator<ForceInfo> > >::operator==, COMDAT
; _this$ = ecx

; 201  : 		{	// test for iterator equality

  00000	55		 push	 ebp
  00001	8b ec		 mov	 ebp, esp

; 202  : 		_Compat(_Right);
; 203  : 		return (this->_Ptr == _Right._Ptr);

  00003	8b 01		 mov	 eax, DWORD PTR [ecx]
  00005	8b 4d 08	 mov	 ecx, DWORD PTR __Right$[ebp]
  00008	2b 01		 sub	 eax, DWORD PTR [ecx]
  0000a	f7 d8		 neg	 eax
  0000c	1b c0		 sbb	 eax, eax
  0000e	40		 inc	 eax

; 204  : 		}

  0000f	5d		 pop	 ebp
  00010	c2 04 00	 ret	 4
??8?$_Vector_const_iterator@V?$_Vector_val@UForceInfo@@V?$allocator@UForceInfo@@@std@@@std@@@std@@QBE_NABV01@@Z ENDP ; std::_Vector_const_iterator<std::_Vector_val<ForceInfo,std::allocator<ForceInfo> > >::operator==
_TEXT	ENDS
PUBLIC	?destroy@?$allocator@UForceInfo@@@std@@QAEXPAUForceInfo@@@Z ; std::allocator<ForceInfo>::destroy
; Function compile flags: /Ogsp
; File c:\program files (x86)\microsoft visual studio 10.0\vc\include\xmemory
;	COMDAT ?destroy@?$allocator@UForceInfo@@@std@@QAEXPAUForceInfo@@@Z
_TEXT	SEGMENT
__Ptr$ = 8						; size = 4
?destroy@?$allocator@UForceInfo@@@std@@QAEXPAUForceInfo@@@Z PROC ; std::allocator<ForceInfo>::destroy, COMDAT
; _this$ = ecx

; 213  : 		_Destroy(_Ptr);
; 214  : 		}

  00000	c2 04 00	 ret	 4
?destroy@?$allocator@UForceInfo@@@std@@QAEXPAUForceInfo@@@Z ENDP ; std::allocator<ForceInfo>::destroy
_TEXT	ENDS
PUBLIC	??$_Destroy@UWeaponInfo@@@std@@YAXPAUWeaponInfo@@@Z ; std::_Destroy<WeaponInfo>
; Function compile flags: /Ogsp
;	COMDAT ??$_Destroy@UWeaponInfo@@@std@@YAXPAUWeaponInfo@@@Z
_TEXT	SEGMENT
__Ptr$ = 8						; size = 4
??$_Destroy@UWeaponInfo@@@std@@YAXPAUWeaponInfo@@@Z PROC ; std::_Destroy<WeaponInfo>, COMDAT

; 62   : 	{	// destroy object at _Ptr

  00000	55		 push	 ebp
  00001	8b ec		 mov	 ebp, esp

; 63   : 	_Ptr->~_Ty();

  00003	8b 4d 08	 mov	 ecx, DWORD PTR __Ptr$[ebp]
  00006	83 c1 08	 add	 ecx, 8

; 64   : 	}

  00009	5d		 pop	 ebp

; 63   : 	_Ptr->~_Ty();

  0000a	ff 25 00 00 00
	00		 jmp	 DWORD PTR __imp_??1ioHashString@@QAE@XZ
??$_Destroy@UWeaponInfo@@@std@@YAXPAUWeaponInfo@@@Z ENDP ; std::_Destroy<WeaponInfo>
_TEXT	ENDS
PUBLIC	??_C@_0BA@CLJGPPJA@wall_end_attack?$AA@		; `string'
PUBLIC	??_C@_0N@IAEKOGP@whirl_attack?$AA@		; `string'
PUBLIC	??_C@_0BA@CIMFMIDM@loop_end_attack?$AA@		; `string'
PUBLIC	??_C@_00CNPNBAHC@?$AA@				; `string'
PUBLIC	_rkLoader$GSCopy$
PUBLIC	__$ArrayPad$
PUBLIC	?LoadProperty@ioWhirlwndAttack@@UAEXAAVioINILoader@@@Z ; ioWhirlwndAttack::LoadProperty
EXTRN	?LoadWeaponInfo@@YAXPBDAAUWeaponInfo@@AAVioINILoader@@@Z:PROC ; LoadWeaponInfo
EXTRN	?LoadAttackAttribute@@YAXPBDAAUAttackAttribute@@AAVioINILoader@@@Z:PROC ; LoadAttackAttribute
EXTRN	__imp_??4ioHashString@@QAEAAV0@PBD@Z:PROC
EXTRN	?LoadProperty@ioAttackSkill@@UAEXAAVioINILoader@@@Z:PROC ; ioAttackSkill::LoadProperty
;	COMDAT ??_C@_0BA@CLJGPPJA@wall_end_attack?$AA@
; File d:\lost saga for developer\youtube\tutorial\source\src\lsclient\stringprotect.h
CONST	SEGMENT
??_C@_0BA@CLJGPPJA@wall_end_attack?$AA@ DB 'wall_end_attack', 00H ; `string'
CONST	ENDS
;	COMDAT ??_C@_0N@IAEKOGP@whirl_attack?$AA@
CONST	SEGMENT
??_C@_0N@IAEKOGP@whirl_attack?$AA@ DB 'whirl_attack', 00H ; `string'
CONST	ENDS
;	COMDAT ??_C@_0BA@CIMFMIDM@loop_end_attack?$AA@
CONST	SEGMENT
??_C@_0BA@CIMFMIDM@loop_end_attack?$AA@ DB 'loop_end_attack', 00H ; `string'
CONST	ENDS
;	COMDAT ??_C@_00CNPNBAHC@?$AA@
CONST	SEGMENT
??_C@_00CNPNBAHC@?$AA@ DB 00H				; `string'
; Function compile flags: /Ogsp
; File d:\lost saga for developer\youtube\tutorial\source\src\lsclient\iowhirlwndattack.cpp
CONST	ENDS
;	COMDAT ?LoadProperty@ioWhirlwndAttack@@UAEXAAVioINILoader@@@Z
_TEXT	SEGMENT
_rkLoader$GSCopy$ = -856				; size = 4
_szBuf$ = -852						; size = 260
__k$556334 = -592					; size = 13
__k$554722 = -572					; size = 17
__k$556020 = -548					; size = 21
__k$555472 = -520					; size = 29
__k$554222 = -484					; size = 24
__k$555845 = -456					; size = 16
__k$555222 = -436					; size = 23
__k$556709 = -408					; size = 18
__k$556584 = -384					; size = 22
__k$554345 = -356					; size = 24
__k$554882 = -328					; size = 15
__k$555597 = -308					; size = 14
__k$556459 = -288					; size = 18
__k$555097 = -264					; size = 20
__k$556847 = -240					; size = 16
__k$554472 = -220					; size = 20
__k$554597 = -196					; size = 16
__k$556222 = -176					; size = 19
__k$556097 = -152					; size = 14
__k$555709 = -132					; size = 19
__k$555347 = -108					; size = 32
__k$554959 = -72					; size = 14
__k$554097 = -52					; size = 19
__k$553959 = -28					; size = 19
__$ArrayPad$ = -4					; size = 4
_rkLoader$ = 8						; size = 4
?LoadProperty@ioWhirlwndAttack@@UAEXAAVioINILoader@@@Z PROC ; ioWhirlwndAttack::LoadProperty, COMDAT
; _this$ = ecx

; 82   : {

  00000	55		 push	 ebp
  00001	8b ec		 mov	 ebp, esp
  00003	81 ec 58 03 00
	00		 sub	 esp, 856		; 00000358H
  00009	a1 00 00 00 00	 mov	 eax, DWORD PTR ___security_cookie
  0000e	33 c5		 xor	 eax, ebp
  00010	89 45 fc	 mov	 DWORD PTR __$ArrayPad$[ebp], eax
  00013	53		 push	 ebx
  00014	8b 5d 08	 mov	 ebx, DWORD PTR _rkLoader$[ebp]
  00017	56		 push	 esi
  00018	57		 push	 edi

; 83   : 	ioAttackSkill::LoadProperty( rkLoader );

  00019	53		 push	 ebx
  0001a	8b f1		 mov	 esi, ecx

; 120  : 
; 121  : 	rkLoader.LoadString_e( "whirl_attack", "", szBuf, MAX_PATH );

  0001c	89 9d a8 fc ff
	ff		 mov	 DWORD PTR _rkLoader$GSCopy$[ebp], ebx
  00022	e8 00 00 00 00	 call	 ?LoadProperty@ioAttackSkill@@UAEXAAVioINILoader@@@Z ; ioAttackSkill::LoadProperty
  00027	6a 04		 push	 4
  00029	c7 45 e4 9e 87
	82 86		 mov	 DWORD PTR __k$553959[ebp], -2038265954 ; 8682879eH
  00030	c7 45 e8 81 b3
	9b 98		 mov	 DWORD PTR __k$553959[ebp+4], -1734626431 ; 989bb381H
  00037	c7 45 ec 82 98
	8e 89		 mov	 DWORD PTR __k$553959[ebp+8], -1987143550 ; 898e9882H
  0003e	c7 45 f0 99 b3
	9f 83		 mov	 DWORD PTR __k$553959[ebp+12], -2086685799 ; 839fb399H
  00045	66 c7 45 f4 80
	89		 mov	 WORD PTR __k$553959[ebp+16], 35200 ; 00008980H
  0004b	8d 45 e4	 lea	 eax, DWORD PTR __k$553959[ebp]
  0004e	c6 45 f6 00	 mov	 BYTE PTR __k$553959[ebp+18], 0
  00052	59		 pop	 ecx
  00053	bf ed ec eb ea	 mov	 edi, -353637139		; eaebecedH
$LL106@LoadProper:

; 84   : 	
; 85   : 	m_dwSkillProtectTime = rkLoader.LoadInt_e( "skill_protect_time", 0 );

  00058	31 38		 xor	 DWORD PTR [eax], edi
  0005a	83 c0 04	 add	 eax, 4
  0005d	49		 dec	 ecx
  0005e	75 f8		 jne	 SHORT $LL106@LoadProper
  00060	6a 10		 push	 16			; 00000010H
  00062	58		 pop	 eax
$LL103@LoadProper:
  00063	8b c8		 mov	 ecx, eax
  00065	81 e1 03 00 00
	80		 and	 ecx, -2147483645	; 80000003H
  0006b	79 05		 jns	 SHORT $LN2643@LoadProper
  0006d	49		 dec	 ecx
  0006e	83 c9 fc	 or	 ecx, -4			; fffffffcH
  00071	41		 inc	 ecx
$LN2643@LoadProper:
  00072	b2 ed		 mov	 dl, -19			; ffffffedH
  00074	2a d1		 sub	 dl, cl
  00076	30 54 05 e4	 xor	 BYTE PTR __k$553959[ebp+eax], dl
  0007a	40		 inc	 eax
  0007b	83 f8 12	 cmp	 eax, 18			; 00000012H
  0007e	7c e3		 jl	 SHORT $LL103@LoadProper
  00080	6a 00		 push	 0
  00082	8d 45 e4	 lea	 eax, DWORD PTR __k$553959[ebp]
  00085	50		 push	 eax
  00086	8b cb		 mov	 ecx, ebx
  00088	ff 15 00 00 00
	00		 call	 DWORD PTR __imp_?LoadInt@ioINILoader@@QAEHPBDH@Z
  0008e	89 86 e8 10 00
	00		 mov	 DWORD PTR [esi+4328], eax
  00094	6a 04		 push	 4

; 86   : 	
; 87   : 	m_fCircleRange		= rkLoader.LoadFloat_e( "magic_circle_range", 0.0f );

  00096	c7 45 cc 80 8d
	8c 83		 mov	 DWORD PTR __k$554097[ebp], -2087940736 ; 838c8d80H
  0009d	c7 45 d0 8e b3
	88 83		 mov	 DWORD PTR __k$554097[ebp+4], -2088193138 ; 8388b38eH
  000a4	c7 45 d4 9f 8f
	87 8f		 mov	 DWORD PTR __k$554097[ebp+8], -1886941281 ; 8f878f9fH
  000ab	c7 45 d8 b2 9e
	8a 84		 mov	 DWORD PTR __k$554097[ebp+12], -2071290190 ; 848a9eb2H
  000b2	66 c7 45 dc 8a
	89		 mov	 WORD PTR __k$554097[ebp+16], 35210 ; 0000898aH
  000b8	8d 45 cc	 lea	 eax, DWORD PTR __k$554097[ebp]
  000bb	c6 45 de 00	 mov	 BYTE PTR __k$554097[ebp+18], 0
  000bf	59		 pop	 ecx
$LL212@LoadProper:
  000c0	31 38		 xor	 DWORD PTR [eax], edi
  000c2	83 c0 04	 add	 eax, 4
  000c5	49		 dec	 ecx
  000c6	75 f8		 jne	 SHORT $LL212@LoadProper
  000c8	6a 10		 push	 16			; 00000010H
  000ca	58		 pop	 eax
$LL209@LoadProper:
  000cb	8b c8		 mov	 ecx, eax
  000cd	81 e1 03 00 00
	80		 and	 ecx, -2147483645	; 80000003H
  000d3	79 05		 jns	 SHORT $LN2644@LoadProper
  000d5	49		 dec	 ecx
  000d6	83 c9 fc	 or	 ecx, -4			; fffffffcH
  000d9	41		 inc	 ecx
$LN2644@LoadProper:
  000da	b2 ed		 mov	 dl, -19			; ffffffedH
  000dc	2a d1		 sub	 dl, cl
  000de	30 54 05 cc	 xor	 BYTE PTR __k$554097[ebp+eax], dl
  000e2	40		 inc	 eax
  000e3	83 f8 12	 cmp	 eax, 18			; 00000012H
  000e6	7c e3		 jl	 SHORT $LL209@LoadProper
  000e8	0f 57 c0	 xorps	 xmm0, xmm0
  000eb	51		 push	 ecx
  000ec	8d 45 cc	 lea	 eax, DWORD PTR __k$554097[ebp]
  000ef	f3 0f 11 04 24	 movss	 DWORD PTR [esp], xmm0
  000f4	50		 push	 eax
  000f5	8b cb		 mov	 ecx, ebx
  000f7	ff 15 00 00 00
	00		 call	 DWORD PTR __imp_?LoadFloat@ioINILoader@@QAEMPBDM@Z
  000fd	d9 9e 08 11 00
	00		 fstp	 DWORD PTR [esi+4360]
  00103	6a 05		 push	 5

; 88   : 	m_fCircleMoveSpeed	= rkLoader.LoadFloat_e( "magic_circle_move_speed", 0.0f );

  00105	c7 85 1c fe ff
	ff 80 8d 8c 83	 mov	 DWORD PTR __k$554222[ebp], -2087940736 ; 838c8d80H
  0010f	c7 85 20 fe ff
	ff 8e b3 88 83	 mov	 DWORD PTR __k$554222[ebp+4], -2088193138 ; 8388b38eH
  00119	c7 85 24 fe ff
	ff 9f 8f 87 8f	 mov	 DWORD PTR __k$554222[ebp+8], -1886941281 ; 8f878f9fH
  00123	c7 85 28 fe ff
	ff b2 81 84 9c	 mov	 DWORD PTR __k$554222[ebp+12], -1669037646 ; 9c8481b2H
  0012d	c7 85 2c fe ff
	ff 88 b3 98 9a	 mov	 DWORD PTR __k$554222[ebp+16], -1701268600 ; 9a98b388H
  00137	8d 85 1c fe ff
	ff		 lea	 eax, DWORD PTR __k$554222[ebp]
  0013d	c7 85 30 fe ff
	ff 88 89 8f 00	 mov	 DWORD PTR __k$554222[ebp+20], 9406856 ; 008f8988H
  00147	59		 pop	 ecx
$LL318@LoadProper:
  00148	31 38		 xor	 DWORD PTR [eax], edi
  0014a	83 c0 04	 add	 eax, 4
  0014d	49		 dec	 ecx
  0014e	75 f8		 jne	 SHORT $LL318@LoadProper
  00150	6a 14		 push	 20			; 00000014H
  00152	58		 pop	 eax
$LL315@LoadProper:
  00153	8b c8		 mov	 ecx, eax
  00155	81 e1 03 00 00
	80		 and	 ecx, -2147483645	; 80000003H
  0015b	79 05		 jns	 SHORT $LN2645@LoadProper
  0015d	49		 dec	 ecx
  0015e	83 c9 fc	 or	 ecx, -4			; fffffffcH
  00161	41		 inc	 ecx
$LN2645@LoadProper:
  00162	b2 ed		 mov	 dl, -19			; ffffffedH
  00164	2a d1		 sub	 dl, cl
  00166	30 94 05 1c fe
	ff ff		 xor	 BYTE PTR __k$554222[ebp+eax], dl
  0016d	40		 inc	 eax
  0016e	83 f8 17	 cmp	 eax, 23			; 00000017H
  00171	7c e0		 jl	 SHORT $LL315@LoadProper
  00173	0f 57 c0	 xorps	 xmm0, xmm0
  00176	51		 push	 ecx
  00177	8d 85 1c fe ff
	ff		 lea	 eax, DWORD PTR __k$554222[ebp]
  0017d	f3 0f 11 04 24	 movss	 DWORD PTR [esp], xmm0
  00182	50		 push	 eax
  00183	8b cb		 mov	 ecx, ebx
  00185	ff 15 00 00 00
	00		 call	 DWORD PTR __imp_?LoadFloat@ioINILoader@@QAEMPBDM@Z
  0018b	d9 9e 0c 11 00
	00		 fstp	 DWORD PTR [esi+4364]
  00191	6a 05		 push	 5

; 89   : 	m_fCircleHeightGap	= rkLoader.LoadFloat_e( "magic_circle_height_gap", 0.0f );

  00193	c7 85 9c fe ff
	ff 80 8d 8c 83	 mov	 DWORD PTR __k$554345[ebp], -2087940736 ; 838c8d80H
  0019d	c7 85 a0 fe ff
	ff 8e b3 88 83	 mov	 DWORD PTR __k$554345[ebp+4], -2088193138 ; 8388b38eH
  001a7	c7 85 a4 fe ff
	ff 9f 8f 87 8f	 mov	 DWORD PTR __k$554345[ebp+8], -1886941281 ; 8f878f9fH
  001b1	c7 85 a8 fe ff
	ff b2 84 8e 83	 mov	 DWORD PTR __k$554345[ebp+12], -2087811918 ; 838e84b2H
  001bb	c7 85 ac fe ff
	ff 8a 84 9f b5	 mov	 DWORD PTR __k$554345[ebp+16], -1247837046 ; b59f848aH
  001c5	8d 85 9c fe ff
	ff		 lea	 eax, DWORD PTR __k$554345[ebp]
  001cb	c7 85 b0 fe ff
	ff 8a 8d 9b 00	 mov	 DWORD PTR __k$554345[ebp+20], 10194314 ; 009b8d8aH
  001d5	59		 pop	 ecx
$LL424@LoadProper:
  001d6	31 38		 xor	 DWORD PTR [eax], edi
  001d8	83 c0 04	 add	 eax, 4
  001db	49		 dec	 ecx
  001dc	75 f8		 jne	 SHORT $LL424@LoadProper
  001de	6a 14		 push	 20			; 00000014H
  001e0	58		 pop	 eax
$LL421@LoadProper:
  001e1	8b c8		 mov	 ecx, eax
  001e3	81 e1 03 00 00
	80		 and	 ecx, -2147483645	; 80000003H
  001e9	79 05		 jns	 SHORT $LN2646@LoadProper
  001eb	49		 dec	 ecx
  001ec	83 c9 fc	 or	 ecx, -4			; fffffffcH
  001ef	41		 inc	 ecx
$LN2646@LoadProper:
  001f0	b2 ed		 mov	 dl, -19			; ffffffedH
  001f2	2a d1		 sub	 dl, cl
  001f4	30 94 05 9c fe
	ff ff		 xor	 BYTE PTR __k$554345[ebp+eax], dl
  001fb	40		 inc	 eax
  001fc	83 f8 17	 cmp	 eax, 23			; 00000017H
  001ff	7c e0		 jl	 SHORT $LL421@LoadProper
  00201	0f 57 c0	 xorps	 xmm0, xmm0
  00204	51		 push	 ecx
  00205	8d 85 9c fe ff
	ff		 lea	 eax, DWORD PTR __k$554345[ebp]
  0020b	f3 0f 11 04 24	 movss	 DWORD PTR [esp], xmm0
  00210	50		 push	 eax
  00211	8b cb		 mov	 ecx, ebx
  00213	ff 15 00 00 00
	00		 call	 DWORD PTR __imp_?LoadFloat@ioINILoader@@QAEMPBDM@Z
  00219	d9 9e 10 11 00
	00		 fstp	 DWORD PTR [esi+4368]
  0021f	6a 04		 push	 4

; 90   : 	m_fCircleOffSet		= rkLoader.LoadFloat_e( "magic_circle_offset", 0.0f );

  00221	c7 85 24 ff ff
	ff 80 8d 8c 83	 mov	 DWORD PTR __k$554472[ebp], -2087940736 ; 838c8d80H
  0022b	c7 85 28 ff ff
	ff 8e b3 88 83	 mov	 DWORD PTR __k$554472[ebp+4], -2088193138 ; 8388b38eH
  00235	c7 85 2c ff ff
	ff 9f 8f 87 8f	 mov	 DWORD PTR __k$554472[ebp+8], -1886941281 ; 8f878f9fH
  0023f	c7 85 30 ff ff
	ff b2 83 8d 8c	 mov	 DWORD PTR __k$554472[ebp+12], -1936882766 ; 8c8d83b2H
  00249	8d 85 24 ff ff
	ff		 lea	 eax, DWORD PTR __k$554472[ebp]
  0024f	c7 85 34 ff ff
	ff 9e 89 9f 00	 mov	 DWORD PTR __k$554472[ebp+16], 10455454 ; 009f899eH
  00259	59		 pop	 ecx
$LL530@LoadProper:
  0025a	31 38		 xor	 DWORD PTR [eax], edi
  0025c	83 c0 04	 add	 eax, 4
  0025f	49		 dec	 ecx
  00260	75 f8		 jne	 SHORT $LL530@LoadProper
  00262	6a 10		 push	 16			; 00000010H
  00264	58		 pop	 eax
$LL527@LoadProper:
  00265	8b c8		 mov	 ecx, eax
  00267	81 e1 03 00 00
	80		 and	 ecx, -2147483645	; 80000003H
  0026d	79 05		 jns	 SHORT $LN2647@LoadProper
  0026f	49		 dec	 ecx
  00270	83 c9 fc	 or	 ecx, -4			; fffffffcH
  00273	41		 inc	 ecx
$LN2647@LoadProper:
  00274	b2 ed		 mov	 dl, -19			; ffffffedH
  00276	2a d1		 sub	 dl, cl
  00278	30 94 05 24 ff
	ff ff		 xor	 BYTE PTR __k$554472[ebp+eax], dl
  0027f	40		 inc	 eax
  00280	83 f8 13	 cmp	 eax, 19			; 00000013H
  00283	7c e0		 jl	 SHORT $LL527@LoadProper
  00285	0f 57 c0	 xorps	 xmm0, xmm0
  00288	51		 push	 ecx
  00289	8d 85 24 ff ff
	ff		 lea	 eax, DWORD PTR __k$554472[ebp]
  0028f	f3 0f 11 04 24	 movss	 DWORD PTR [esp], xmm0
  00294	50		 push	 eax
  00295	8b cb		 mov	 ecx, ebx
  00297	ff 15 00 00 00
	00		 call	 DWORD PTR __imp_?LoadFloat@ioINILoader@@QAEMPBDM@Z
  0029d	d9 9e 14 11 00
	00		 fstp	 DWORD PTR [esi+4372]
  002a3	6a 03		 push	 3

; 91   : 
; 92   : 	char szBuf[MAX_PATH];
; 93   : 	rkLoader.LoadString_e( "on_magic_circle", "", szBuf, MAX_PATH );

  002a5	c7 85 3c ff ff
	ff 82 82 b4 87	 mov	 DWORD PTR __k$554597[ebp], -2018213246 ; 87b48282H
  002af	c7 85 40 ff ff
	ff 8c 8b 82 89	 mov	 DWORD PTR __k$554597[ebp+4], -1987933300 ; 89828b8cH
  002b9	c7 85 44 ff ff
	ff b2 8f 82 98	 mov	 DWORD PTR __k$554597[ebp+8], -1736273998 ; 98828fb2H
  002c3	8d 85 3c ff ff
	ff		 lea	 eax, DWORD PTR __k$554597[ebp]
  002c9	c7 85 48 ff ff
	ff 8e 80 8e 00	 mov	 DWORD PTR __k$554597[ebp+12], 9339022 ; 008e808eH
  002d3	59		 pop	 ecx
$LL636@LoadProper:
  002d4	31 38		 xor	 DWORD PTR [eax], edi
  002d6	83 c0 04	 add	 eax, 4
  002d9	49		 dec	 ecx
  002da	75 f8		 jne	 SHORT $LL636@LoadProper
  002dc	6a 0c		 push	 12			; 0000000cH
  002de	58		 pop	 eax
$LL633@LoadProper:
  002df	8b c8		 mov	 ecx, eax
  002e1	81 e1 03 00 00
	80		 and	 ecx, -2147483645	; 80000003H
  002e7	79 05		 jns	 SHORT $LN2648@LoadProper
  002e9	49		 dec	 ecx
  002ea	83 c9 fc	 or	 ecx, -4			; fffffffcH
  002ed	41		 inc	 ecx
$LN2648@LoadProper:
  002ee	b2 ed		 mov	 dl, -19			; ffffffedH
  002f0	2a d1		 sub	 dl, cl
  002f2	30 94 05 3c ff
	ff ff		 xor	 BYTE PTR __k$554597[ebp+eax], dl
  002f9	40		 inc	 eax
  002fa	83 f8 0f	 cmp	 eax, 15			; 0000000fH
  002fd	7c e0		 jl	 SHORT $LL633@LoadProper
  002ff	8b 3d 00 00 00
	00		 mov	 edi, DWORD PTR __imp_?LoadStringA@ioINILoader@@QAEXPBD0PADH@Z
  00305	68 04 01 00 00	 push	 260			; 00000104H
  0030a	8d 85 ac fc ff
	ff		 lea	 eax, DWORD PTR _szBuf$[ebp]
  00310	50		 push	 eax
  00311	68 00 00 00 00	 push	 OFFSET ??_C@_00CNPNBAHC@?$AA@
  00316	8d 85 3c ff ff
	ff		 lea	 eax, DWORD PTR __k$554597[ebp]
  0031c	50		 push	 eax
  0031d	8b cb		 mov	 ecx, ebx
  0031f	ff d7		 call	 edi

; 94   : 	m_szOnCircle		= szBuf;

  00321	8b 1d 00 00 00
	00		 mov	 ebx, DWORD PTR __imp_??4ioHashString@@QAEAAV0@PBD@Z
  00327	8d 85 ac fc ff
	ff		 lea	 eax, DWORD PTR _szBuf$[ebp]
  0032d	50		 push	 eax
  0032e	8d 8e 28 11 00
	00		 lea	 ecx, DWORD PTR [esi+4392]
  00334	ff d3		 call	 ebx
  00336	6a 04		 push	 4

; 95   : 	rkLoader.LoadString_e( "off_magic_circle", "", szBuf, MAX_PATH );

  00338	c7 85 c4 fd ff
	ff 82 8a 8d b5	 mov	 DWORD PTR __k$554722[ebp], -1249015166 ; b58d8a82H
  00342	c7 85 c8 fd ff
	ff 80 8d 8c 83	 mov	 DWORD PTR __k$554722[ebp+4], -2087940736 ; 838c8d80H
  0034c	c7 85 cc fd ff
	ff 8e b3 88 83	 mov	 DWORD PTR __k$554722[ebp+8], -2088193138 ; 8388b38eH
  00356	c7 85 d0 fd ff
	ff 9f 8f 87 8f	 mov	 DWORD PTR __k$554722[ebp+12], -1886941281 ; 8f878f9fH
  00360	8d 85 c4 fd ff
	ff		 lea	 eax, DWORD PTR __k$554722[ebp]
  00366	c6 85 d4 fd ff
	ff 00		 mov	 BYTE PTR __k$554722[ebp+16], 0
  0036d	59		 pop	 ecx
$LL742@LoadProper:
  0036e	81 30 ed ec eb
	ea		 xor	 DWORD PTR [eax], -353637139 ; eaebecedH
  00374	83 c0 04	 add	 eax, 4
  00377	49		 dec	 ecx
  00378	75 f4		 jne	 SHORT $LL742@LoadProper
  0037a	8b 8d a8 fc ff
	ff		 mov	 ecx, DWORD PTR _rkLoader$GSCopy$[ebp]
  00380	68 04 01 00 00	 push	 260			; 00000104H
  00385	8d 85 ac fc ff
	ff		 lea	 eax, DWORD PTR _szBuf$[ebp]
  0038b	50		 push	 eax
  0038c	68 00 00 00 00	 push	 OFFSET ??_C@_00CNPNBAHC@?$AA@
  00391	8d 85 c4 fd ff
	ff		 lea	 eax, DWORD PTR __k$554722[ebp]
  00397	50		 push	 eax
  00398	ff d7		 call	 edi

; 96   : 	m_szOffCircle		= szBuf;

  0039a	8d 85 ac fc ff
	ff		 lea	 eax, DWORD PTR _szBuf$[ebp]
  003a0	50		 push	 eax
  003a1	8d 8e 38 11 00
	00		 lea	 ecx, DWORD PTR [esi+4408]
  003a7	ff d3		 call	 ebx
  003a9	6a 03		 push	 3

; 97   : 
; 98   : 	rkLoader.LoadString_e( "loop_animation", "", szBuf, MAX_PATH );

  003ab	c7 85 b8 fe ff
	ff 81 83 84 9a	 mov	 DWORD PTR __k$554882[ebp], -1702591615 ; 9a848381H
  003b5	c7 85 bc fe ff
	ff b2 8d 85 83	 mov	 DWORD PTR __k$554882[ebp+4], -2088399438 ; 83858db2H
  003bf	c7 85 c0 fe ff
	ff 80 8d 9f 83	 mov	 DWORD PTR __k$554882[ebp+8], -2086695552 ; 839f8d80H
  003c9	66 c7 85 c4 fe
	ff ff 82 82	 mov	 WORD PTR __k$554882[ebp+12], 33410 ; 00008282H
  003d2	8d 85 b8 fe ff
	ff		 lea	 eax, DWORD PTR __k$554882[ebp]
  003d8	c6 85 c6 fe ff
	ff 00		 mov	 BYTE PTR __k$554882[ebp+14], 0
  003df	59		 pop	 ecx
$LL848@LoadProper:
  003e0	81 30 ed ec eb
	ea		 xor	 DWORD PTR [eax], -353637139 ; eaebecedH
  003e6	83 c0 04	 add	 eax, 4
  003e9	49		 dec	 ecx
  003ea	75 f4		 jne	 SHORT $LL848@LoadProper
  003ec	6a 0c		 push	 12			; 0000000cH
  003ee	58		 pop	 eax
$LL845@LoadProper:
  003ef	8b c8		 mov	 ecx, eax
  003f1	81 e1 03 00 00
	80		 and	 ecx, -2147483645	; 80000003H
  003f7	79 05		 jns	 SHORT $LN2649@LoadProper
  003f9	49		 dec	 ecx
  003fa	83 c9 fc	 or	 ecx, -4			; fffffffcH
  003fd	41		 inc	 ecx
$LN2649@LoadProper:
  003fe	b2 ed		 mov	 dl, -19			; ffffffedH
  00400	2a d1		 sub	 dl, cl
  00402	30 94 05 b8 fe
	ff ff		 xor	 BYTE PTR __k$554882[ebp+eax], dl
  00409	40		 inc	 eax
  0040a	83 f8 0e	 cmp	 eax, 14			; 0000000eH
  0040d	7c e0		 jl	 SHORT $LL845@LoadProper
  0040f	8b 8d a8 fc ff
	ff		 mov	 ecx, DWORD PTR _rkLoader$GSCopy$[ebp]
  00415	68 04 01 00 00	 push	 260			; 00000104H
  0041a	8d 85 ac fc ff
	ff		 lea	 eax, DWORD PTR _szBuf$[ebp]
  00420	50		 push	 eax
  00421	68 00 00 00 00	 push	 OFFSET ??_C@_00CNPNBAHC@?$AA@
  00426	8d 85 b8 fe ff
	ff		 lea	 eax, DWORD PTR __k$554882[ebp]
  0042c	50		 push	 eax
  0042d	ff d7		 call	 edi

; 99   : 	m_szLoopAnimation	= szBuf;

  0042f	8d 85 ac fc ff
	ff		 lea	 eax, DWORD PTR _szBuf$[ebp]
  00435	50		 push	 eax
  00436	8d 8e ec 10 00
	00		 lea	 ecx, DWORD PTR [esi+4332]
  0043c	ff d3		 call	 ebx
  0043e	6a 03		 push	 3

; 100  : 	m_dwLoopDuration = rkLoader.LoadInt_e( "loop_duration", 0 );

  00440	c7 45 b8 81 83
	84 9a		 mov	 DWORD PTR __k$554959[ebp], -1702591615 ; 9a848381H
  00447	c7 45 bc b2 88
	9e 98		 mov	 DWORD PTR __k$554959[ebp+4], -1734440782 ; 989e88b2H
  0044e	c7 45 c0 8c 98
	82 85		 mov	 DWORD PTR __k$554959[ebp+8], -2055038836 ; 8582988cH
  00455	8d 45 b8	 lea	 eax, DWORD PTR __k$554959[ebp]
  00458	66 c7 45 c4 83
	00		 mov	 WORD PTR __k$554959[ebp+12], 131 ; 00000083H
  0045e	59		 pop	 ecx
$LL954@LoadProper:
  0045f	81 30 ed ec eb
	ea		 xor	 DWORD PTR [eax], -353637139 ; eaebecedH
  00465	83 c0 04	 add	 eax, 4
  00468	49		 dec	 ecx
  00469	75 f4		 jne	 SHORT $LL954@LoadProper
  0046b	80 75 c4 ed	 xor	 BYTE PTR __k$554959[ebp+12], -19 ; ffffffedH
  0046f	51		 push	 ecx
  00470	8b 8d a8 fc ff
	ff		 mov	 ecx, DWORD PTR _rkLoader$GSCopy$[ebp]
  00476	8d 45 b8	 lea	 eax, DWORD PTR __k$554959[ebp]
  00479	50		 push	 eax
  0047a	ff 15 00 00 00
	00		 call	 DWORD PTR __imp_?LoadInt@ioINILoader@@QAEHPBDH@Z
  00480	89 86 04 11 00
	00		 mov	 DWORD PTR [esi+4356], eax
  00486	6a 04		 push	 4

; 101  : 	m_fLoopAniRate = rkLoader.LoadFloat_e( "loop_animation_rate", 1.0f );

  00488	c7 85 f8 fe ff
	ff 81 83 84 9a	 mov	 DWORD PTR __k$555097[ebp], -1702591615 ; 9a848381H
  00492	c7 85 fc fe ff
	ff b2 8d 85 83	 mov	 DWORD PTR __k$555097[ebp+4], -2088399438 ; 83858db2H
  0049c	c7 85 00 ff ff
	ff 80 8d 9f 83	 mov	 DWORD PTR __k$555097[ebp+8], -2086695552 ; 839f8d80H
  004a6	c7 85 04 ff ff
	ff 82 82 b4 98	 mov	 DWORD PTR __k$555097[ebp+12], -1733000574 ; 98b48282H
  004b0	8d 85 f8 fe ff
	ff		 lea	 eax, DWORD PTR __k$555097[ebp]
  004b6	c7 85 08 ff ff
	ff 8c 98 8e 00	 mov	 DWORD PTR __k$555097[ebp+16], 9345164 ; 008e988cH
  004c0	59		 pop	 ecx
$LL1060@LoadProper:
  004c1	81 30 ed ec eb
	ea		 xor	 DWORD PTR [eax], -353637139 ; eaebecedH
  004c7	83 c0 04	 add	 eax, 4
  004ca	49		 dec	 ecx
  004cb	75 f4		 jne	 SHORT $LL1060@LoadProper
  004cd	6a 10		 push	 16			; 00000010H
  004cf	58		 pop	 eax
$LL1057@LoadProper:
  004d0	8b c8		 mov	 ecx, eax
  004d2	81 e1 03 00 00
	80		 and	 ecx, -2147483645	; 80000003H
  004d8	79 05		 jns	 SHORT $LN2650@LoadProper
  004da	49		 dec	 ecx
  004db	83 c9 fc	 or	 ecx, -4			; fffffffcH
  004de	41		 inc	 ecx
$LN2650@LoadProper:
  004df	b2 ed		 mov	 dl, -19			; ffffffedH
  004e1	2a d1		 sub	 dl, cl
  004e3	30 94 05 f8 fe
	ff ff		 xor	 BYTE PTR __k$555097[ebp+eax], dl
  004ea	40		 inc	 eax
  004eb	83 f8 13	 cmp	 eax, 19			; 00000013H
  004ee	7c e0		 jl	 SHORT $LL1057@LoadProper
  004f0	f3 0f 10 05 00
	00 00 00	 movss	 xmm0, DWORD PTR __real@3f800000
  004f8	51		 push	 ecx
  004f9	8b 8d a8 fc ff
	ff		 mov	 ecx, DWORD PTR _rkLoader$GSCopy$[ebp]
  004ff	8d 85 f8 fe ff
	ff		 lea	 eax, DWORD PTR __k$555097[ebp]
  00505	f3 0f 11 04 24	 movss	 DWORD PTR [esp], xmm0
  0050a	50		 push	 eax
  0050b	ff 15 00 00 00
	00		 call	 DWORD PTR __imp_?LoadFloat@ioINILoader@@QAEMPBDM@Z
  00511	d9 9e fc 10 00
	00		 fstp	 DWORD PTR [esi+4348]

; 102  : 
; 103  : 	LoadAttackAttribute( "loop_end_attack", m_LoopEndAttack, rkLoader );

  00517	ff b5 a8 fc ff
	ff		 push	 DWORD PTR _rkLoader$GSCopy$[ebp]
  0051d	8d 86 78 11 00
	00		 lea	 eax, DWORD PTR [esi+4472]
  00523	50		 push	 eax
  00524	68 00 00 00 00	 push	 OFFSET ??_C@_0BA@CIMFMIDM@loop_end_attack?$AA@
  00529	e8 00 00 00 00	 call	 ?LoadAttackAttribute@@YAXPBDAAUAttackAttribute@@AAVioINILoader@@@Z ; LoadAttackAttribute
  0052e	83 c4 0c	 add	 esp, 12			; 0000000cH
  00531	6a 05		 push	 5

; 104  : 	rkLoader.LoadString_e( "loop_end_attack_effect", "", szBuf, MAX_PATH );

  00533	c7 85 4c fe ff
	ff 81 83 84 9a	 mov	 DWORD PTR __k$555222[ebp], -1702591615 ; 9a848381H
  0053d	c7 85 50 fe ff
	ff b2 89 85 8e	 mov	 DWORD PTR __k$555222[ebp+4], -1903851086 ; 8e8589b2H
  00547	c7 85 54 fe ff
	ff b2 8d 9f 9e	 mov	 DWORD PTR __k$555222[ebp+8], -1633710670 ; 9e9f8db2H
  00551	c7 85 58 fe ff
	ff 8c 8f 80 b5	 mov	 DWORD PTR __k$555222[ebp+12], -1249865844 ; b5808f8cH
  0055b	c7 85 5c fe ff
	ff 88 8a 8d 8f	 mov	 DWORD PTR __k$555222[ebp+16], -1886549368 ; 8f8d8a88H
  00565	66 c7 85 60 fe
	ff ff 8e 98	 mov	 WORD PTR __k$555222[ebp+20], 39054 ; 0000988eH
  0056e	8d 85 4c fe ff
	ff		 lea	 eax, DWORD PTR __k$555222[ebp]
  00574	c6 85 62 fe ff
	ff 00		 mov	 BYTE PTR __k$555222[ebp+22], 0
  0057b	59		 pop	 ecx
$LL1166@LoadProper:
  0057c	81 30 ed ec eb
	ea		 xor	 DWORD PTR [eax], -353637139 ; eaebecedH
  00582	83 c0 04	 add	 eax, 4
  00585	49		 dec	 ecx
  00586	75 f4		 jne	 SHORT $LL1166@LoadProper
  00588	6a 14		 push	 20			; 00000014H
  0058a	58		 pop	 eax
$LL1163@LoadProper:
  0058b	8b c8		 mov	 ecx, eax
  0058d	81 e1 03 00 00
	80		 and	 ecx, -2147483645	; 80000003H
  00593	79 05		 jns	 SHORT $LN2651@LoadProper
  00595	49		 dec	 ecx
  00596	83 c9 fc	 or	 ecx, -4			; fffffffcH
  00599	41		 inc	 ecx
$LN2651@LoadProper:
  0059a	b2 ed		 mov	 dl, -19			; ffffffedH
  0059c	2a d1		 sub	 dl, cl
  0059e	30 94 05 4c fe
	ff ff		 xor	 BYTE PTR __k$555222[ebp+eax], dl
  005a5	40		 inc	 eax
  005a6	83 f8 16	 cmp	 eax, 22			; 00000016H
  005a9	7c e0		 jl	 SHORT $LL1163@LoadProper
  005ab	8b 8d a8 fc ff
	ff		 mov	 ecx, DWORD PTR _rkLoader$GSCopy$[ebp]
  005b1	68 04 01 00 00	 push	 260			; 00000104H
  005b6	8d 85 ac fc ff
	ff		 lea	 eax, DWORD PTR _szBuf$[ebp]
  005bc	50		 push	 eax
  005bd	68 00 00 00 00	 push	 OFFSET ??_C@_00CNPNBAHC@?$AA@
  005c2	8d 85 4c fe ff
	ff		 lea	 eax, DWORD PTR __k$555222[ebp]
  005c8	50		 push	 eax
  005c9	ff d7		 call	 edi

; 105  : 	m_szLoopEndAttackEffect			= szBuf;

  005cb	8d 85 ac fc ff
	ff		 lea	 eax, DWORD PTR _szBuf$[ebp]
  005d1	50		 push	 eax
  005d2	8d 8e c8 11 00
	00		 lea	 ecx, DWORD PTR [esi+4552]
  005d8	ff d3		 call	 ebx
  005da	6a 07		 push	 7

; 106  : 	m_fLoopEndAttackEffectYOffset	= rkLoader.LoadFloat_e( "loop_end_attack_effect_y_offset", 0.0f );

  005dc	c7 45 94 81 83
	84 9a		 mov	 DWORD PTR __k$555347[ebp], -1702591615 ; 9a848381H
  005e3	c7 45 98 b2 89
	85 8e		 mov	 DWORD PTR __k$555347[ebp+4], -1903851086 ; 8e8589b2H
  005ea	c7 45 9c b2 8d
	9f 9e		 mov	 DWORD PTR __k$555347[ebp+8], -1633710670 ; 9e9f8db2H
  005f1	c7 45 a0 8c 8f
	80 b5		 mov	 DWORD PTR __k$555347[ebp+12], -1249865844 ; b5808f8cH
  005f8	c7 45 a4 88 8a
	8d 8f		 mov	 DWORD PTR __k$555347[ebp+16], -1886549368 ; 8f8d8a88H
  005ff	c7 45 a8 8e 98
	b4 93		 mov	 DWORD PTR __k$555347[ebp+20], -1816881010 ; 93b4988eH
  00606	c7 45 ac b2 83
	8d 8c		 mov	 DWORD PTR __k$555347[ebp+24], -1936882766 ; 8c8d83b2H
  0060d	8d 45 94	 lea	 eax, DWORD PTR __k$555347[ebp]
  00610	c7 45 b0 9e 89
	9f 00		 mov	 DWORD PTR __k$555347[ebp+28], 10455454 ; 009f899eH
  00617	59		 pop	 ecx
$LL1272@LoadProper:
  00618	81 30 ed ec eb
	ea		 xor	 DWORD PTR [eax], -353637139 ; eaebecedH
  0061e	83 c0 04	 add	 eax, 4
  00621	49		 dec	 ecx
  00622	75 f4		 jne	 SHORT $LL1272@LoadProper
  00624	6a 1c		 push	 28			; 0000001cH
  00626	58		 pop	 eax
$LL1269@LoadProper:
  00627	8b c8		 mov	 ecx, eax
  00629	81 e1 03 00 00
	80		 and	 ecx, -2147483645	; 80000003H
  0062f	79 05		 jns	 SHORT $LN2652@LoadProper
  00631	49		 dec	 ecx
  00632	83 c9 fc	 or	 ecx, -4			; fffffffcH
  00635	41		 inc	 ecx
$LN2652@LoadProper:
  00636	b2 ed		 mov	 dl, -19			; ffffffedH
  00638	2a d1		 sub	 dl, cl
  0063a	30 54 05 94	 xor	 BYTE PTR __k$555347[ebp+eax], dl
  0063e	40		 inc	 eax
  0063f	83 f8 1f	 cmp	 eax, 31			; 0000001fH
  00642	7c e3		 jl	 SHORT $LL1269@LoadProper
  00644	0f 57 c0	 xorps	 xmm0, xmm0
  00647	51		 push	 ecx
  00648	8b 8d a8 fc ff
	ff		 mov	 ecx, DWORD PTR _rkLoader$GSCopy$[ebp]
  0064e	8d 45 94	 lea	 eax, DWORD PTR __k$555347[ebp]
  00651	f3 0f 11 04 24	 movss	 DWORD PTR [esp], xmm0
  00656	50		 push	 eax
  00657	ff 15 00 00 00
	00		 call	 DWORD PTR __imp_?LoadFloat@ioINILoader@@QAEMPBDM@Z
  0065d	d9 9e d8 11 00
	00		 fstp	 DWORD PTR [esi+4568]
  00663	6a 07		 push	 7

; 107  : 	m_fLoopEndAttackEffectMoveSpeed	= rkLoader.LoadFloat_e( "loop_end_attack_effect_speed", 0.0f );

  00665	c7 85 f8 fd ff
	ff 81 83 84 9a	 mov	 DWORD PTR __k$555472[ebp], -1702591615 ; 9a848381H
  0066f	c7 85 fc fd ff
	ff b2 89 85 8e	 mov	 DWORD PTR __k$555472[ebp+4], -1903851086 ; 8e8589b2H
  00679	c7 85 00 fe ff
	ff b2 8d 9f 9e	 mov	 DWORD PTR __k$555472[ebp+8], -1633710670 ; 9e9f8db2H
  00683	c7 85 04 fe ff
	ff 8c 8f 80 b5	 mov	 DWORD PTR __k$555472[ebp+12], -1249865844 ; b5808f8cH
  0068d	c7 85 08 fe ff
	ff 88 8a 8d 8f	 mov	 DWORD PTR __k$555472[ebp+16], -1886549368 ; 8f8d8a88H
  00697	c7 85 0c fe ff
	ff 8e 98 b4 99	 mov	 DWORD PTR __k$555472[ebp+20], -1716217714 ; 99b4988eH
  006a1	c7 85 10 fe ff
	ff 9d 89 8e 8e	 mov	 DWORD PTR __k$555472[ebp+24], -1903261283 ; 8e8e899dH
  006ab	8d 85 f8 fd ff
	ff		 lea	 eax, DWORD PTR __k$555472[ebp]
  006b1	c6 85 14 fe ff
	ff 00		 mov	 BYTE PTR __k$555472[ebp+28], 0
  006b8	59		 pop	 ecx
$LL1378@LoadProper:
  006b9	81 30 ed ec eb
	ea		 xor	 DWORD PTR [eax], -353637139 ; eaebecedH
  006bf	83 c0 04	 add	 eax, 4
  006c2	49		 dec	 ecx
  006c3	75 f4		 jne	 SHORT $LL1378@LoadProper
  006c5	0f 57 c0	 xorps	 xmm0, xmm0
  006c8	51		 push	 ecx
  006c9	8b 8d a8 fc ff
	ff		 mov	 ecx, DWORD PTR _rkLoader$GSCopy$[ebp]
  006cf	8d 85 f8 fd ff
	ff		 lea	 eax, DWORD PTR __k$555472[ebp]
  006d5	f3 0f 11 04 24	 movss	 DWORD PTR [esp], xmm0
  006da	50		 push	 eax
  006db	ff 15 00 00 00
	00		 call	 DWORD PTR __imp_?LoadFloat@ioINILoader@@QAEMPBDM@Z
  006e1	d9 9e dc 11 00
	00		 fstp	 DWORD PTR [esi+4572]
  006e7	6a 03		 push	 3

; 108  : 
; 109  : 	rkLoader.LoadString_e( "pre_fast_move", "", szBuf, MAX_PATH );

  006e9	c7 85 cc fe ff
	ff 9d 9e 8e b5	 mov	 DWORD PTR __k$555597[ebp], -1248944483 ; b58e9e9dH
  006f3	c7 85 d0 fe ff
	ff 8b 8d 98 9e	 mov	 DWORD PTR __k$555597[ebp+4], -1634169461 ; 9e988d8bH
  006fd	c7 85 d4 fe ff
	ff b2 81 84 9c	 mov	 DWORD PTR __k$555597[ebp+8], -1669037646 ; 9c8481b2H
  00707	8d 85 cc fe ff
	ff		 lea	 eax, DWORD PTR __k$555597[ebp]
  0070d	66 c7 85 d8 fe
	ff ff 88 00	 mov	 WORD PTR __k$555597[ebp+12], 136 ; 00000088H
  00716	59		 pop	 ecx
$LL1484@LoadProper:
  00717	81 30 ed ec eb
	ea		 xor	 DWORD PTR [eax], -353637139 ; eaebecedH
  0071d	83 c0 04	 add	 eax, 4
  00720	49		 dec	 ecx
  00721	75 f4		 jne	 SHORT $LL1484@LoadProper
  00723	8b 8d a8 fc ff
	ff		 mov	 ecx, DWORD PTR _rkLoader$GSCopy$[ebp]
  00729	80 b5 d8 fe ff
	ff ed		 xor	 BYTE PTR __k$555597[ebp+12], -19 ; ffffffedH
  00730	68 04 01 00 00	 push	 260			; 00000104H
  00735	8d 85 ac fc ff
	ff		 lea	 eax, DWORD PTR _szBuf$[ebp]
  0073b	50		 push	 eax
  0073c	68 00 00 00 00	 push	 OFFSET ??_C@_00CNPNBAHC@?$AA@
  00741	8d 85 cc fe ff
	ff		 lea	 eax, DWORD PTR __k$555597[ebp]
  00747	50		 push	 eax
  00748	ff d7		 call	 edi

; 110  : 	m_szPreFastMove	= szBuf;

  0074a	8d 85 ac fc ff
	ff		 lea	 eax, DWORD PTR _szBuf$[ebp]
  00750	50		 push	 eax
  00751	8d 8e fc 11 00
	00		 lea	 ecx, DWORD PTR [esi+4604]
  00757	ff d3		 call	 ebx
  00759	6a 04		 push	 4

; 111  : 	m_fPreFastMoveRate = rkLoader.LoadFloat_e( "pre_fast_move_rate", 1.0f );

  0075b	c7 85 7c ff ff
	ff 9d 9e 8e b5	 mov	 DWORD PTR __k$555709[ebp], -1248944483 ; b58e9e9dH
  00765	c7 45 80 8b 8d
	98 9e		 mov	 DWORD PTR __k$555709[ebp+4], -1634169461 ; 9e988d8bH
  0076c	c7 45 84 b2 81
	84 9c		 mov	 DWORD PTR __k$555709[ebp+8], -1669037646 ; 9c8481b2H
  00773	c7 45 88 88 b3
	99 8b		 mov	 DWORD PTR __k$555709[ebp+12], -1952861304 ; 8b99b388H
  0077a	66 c7 45 8c 99
	89		 mov	 WORD PTR __k$555709[ebp+16], 35225 ; 00008999H
  00780	8d 85 7c ff ff
	ff		 lea	 eax, DWORD PTR __k$555709[ebp]
  00786	c6 45 8e 00	 mov	 BYTE PTR __k$555709[ebp+18], 0
  0078a	59		 pop	 ecx
$LL1590@LoadProper:
  0078b	81 30 ed ec eb
	ea		 xor	 DWORD PTR [eax], -353637139 ; eaebecedH
  00791	83 c0 04	 add	 eax, 4
  00794	49		 dec	 ecx
  00795	75 f4		 jne	 SHORT $LL1590@LoadProper
  00797	6a 10		 push	 16			; 00000010H
  00799	58		 pop	 eax
$LL1587@LoadProper:
  0079a	8b c8		 mov	 ecx, eax
  0079c	81 e1 03 00 00
	80		 and	 ecx, -2147483645	; 80000003H
  007a2	79 05		 jns	 SHORT $LN2653@LoadProper
  007a4	49		 dec	 ecx
  007a5	83 c9 fc	 or	 ecx, -4			; fffffffcH
  007a8	41		 inc	 ecx
$LN2653@LoadProper:
  007a9	b2 ed		 mov	 dl, -19			; ffffffedH
  007ab	2a d1		 sub	 dl, cl
  007ad	30 94 05 7c ff
	ff ff		 xor	 BYTE PTR __k$555709[ebp+eax], dl
  007b4	40		 inc	 eax
  007b5	83 f8 12	 cmp	 eax, 18			; 00000012H
  007b8	7c e0		 jl	 SHORT $LL1587@LoadProper
  007ba	f3 0f 10 05 00
	00 00 00	 movss	 xmm0, DWORD PTR __real@3f800000
  007c2	51		 push	 ecx
  007c3	8b 8d a8 fc ff
	ff		 mov	 ecx, DWORD PTR _rkLoader$GSCopy$[ebp]
  007c9	8d 85 7c ff ff
	ff		 lea	 eax, DWORD PTR __k$555709[ebp]
  007cf	f3 0f 11 04 24	 movss	 DWORD PTR [esp], xmm0
  007d4	50		 push	 eax
  007d5	ff 15 00 00 00
	00		 call	 DWORD PTR __imp_?LoadFloat@ioINILoader@@QAEMPBDM@Z
  007db	d9 9e 0c 12 00
	00		 fstp	 DWORD PTR [esi+4620]
  007e1	6a 03		 push	 3

; 112  : 		
; 113  : 	m_fFastMoveSpeed = rkLoader.LoadFloat_e( "fast_move_speed", 0.0f );		

  007e3	c7 85 38 fe ff
	ff 8b 8d 98 9e	 mov	 DWORD PTR __k$555845[ebp], -1634169461 ; 9e988d8bH
  007ed	c7 85 3c fe ff
	ff b2 81 84 9c	 mov	 DWORD PTR __k$555845[ebp+4], -1669037646 ; 9c8481b2H
  007f7	c7 85 40 fe ff
	ff 88 b3 98 9a	 mov	 DWORD PTR __k$555845[ebp+8], -1701268600 ; 9a98b388H
  00801	8d 85 38 fe ff
	ff		 lea	 eax, DWORD PTR __k$555845[ebp]
  00807	c7 85 44 fe ff
	ff 88 89 8f 00	 mov	 DWORD PTR __k$555845[ebp+12], 9406856 ; 008f8988H
  00811	59		 pop	 ecx
$LL1696@LoadProper:
  00812	81 30 ed ec eb
	ea		 xor	 DWORD PTR [eax], -353637139 ; eaebecedH
  00818	83 c0 04	 add	 eax, 4
  0081b	49		 dec	 ecx
  0081c	75 f4		 jne	 SHORT $LL1696@LoadProper
  0081e	6a 0c		 push	 12			; 0000000cH
  00820	58		 pop	 eax
$LL1693@LoadProper:
  00821	8b c8		 mov	 ecx, eax
  00823	81 e1 03 00 00
	80		 and	 ecx, -2147483645	; 80000003H
  00829	79 05		 jns	 SHORT $LN2654@LoadProper
  0082b	49		 dec	 ecx
  0082c	83 c9 fc	 or	 ecx, -4			; fffffffcH
  0082f	41		 inc	 ecx
$LN2654@LoadProper:
  00830	b2 ed		 mov	 dl, -19			; ffffffedH
  00832	2a d1		 sub	 dl, cl
  00834	30 94 05 38 fe
	ff ff		 xor	 BYTE PTR __k$555845[ebp+eax], dl
  0083b	40		 inc	 eax
  0083c	83 f8 0f	 cmp	 eax, 15			; 0000000fH
  0083f	7c e0		 jl	 SHORT $LL1693@LoadProper
  00841	0f 57 c0	 xorps	 xmm0, xmm0
  00844	51		 push	 ecx
  00845	8b 8d a8 fc ff
	ff		 mov	 ecx, DWORD PTR _rkLoader$GSCopy$[ebp]
  0084b	8d 85 38 fe ff
	ff		 lea	 eax, DWORD PTR __k$555845[ebp]
  00851	f3 0f 11 04 24	 movss	 DWORD PTR [esp], xmm0
  00856	50		 push	 eax
  00857	ff 15 00 00 00
	00		 call	 DWORD PTR __imp_?LoadFloat@ioINILoader@@QAEMPBDM@Z
  0085d	d9 9e 18 12 00
	00		 fstp	 DWORD PTR [esi+4632]
  00863	6a 05		 push	 5

; 114  : 	rkLoader.LoadString_e( "fast_move_map_effect", "", szBuf, MAX_PATH );

  00865	c7 85 dc fd ff
	ff 8b 8d 98 9e	 mov	 DWORD PTR __k$556020[ebp], -1634169461 ; 9e988d8bH
  0086f	c7 85 e0 fd ff
	ff b2 81 84 9c	 mov	 DWORD PTR __k$556020[ebp+4], -1669037646 ; 9c8481b2H
  00879	c7 85 e4 fd ff
	ff 88 b3 86 8b	 mov	 DWORD PTR __k$556020[ebp+8], -1954106488 ; 8b86b388H
  00883	c7 85 e8 fd ff
	ff 9d b3 8e 8c	 mov	 DWORD PTR __k$556020[ebp+12], -1936804963 ; 8c8eb39dH
  0088d	c7 85 ec fd ff
	ff 8b 89 88 9e	 mov	 DWORD PTR __k$556020[ebp+16], -1635219061 ; 9e88898bH
  00897	8d 85 dc fd ff
	ff		 lea	 eax, DWORD PTR __k$556020[ebp]
  0089d	c6 85 f0 fd ff
	ff 00		 mov	 BYTE PTR __k$556020[ebp+20], 0
  008a4	59		 pop	 ecx
$LL1802@LoadProper:
  008a5	81 30 ed ec eb
	ea		 xor	 DWORD PTR [eax], -353637139 ; eaebecedH
  008ab	83 c0 04	 add	 eax, 4
  008ae	49		 dec	 ecx
  008af	75 f4		 jne	 SHORT $LL1802@LoadProper
  008b1	8b 8d a8 fc ff
	ff		 mov	 ecx, DWORD PTR _rkLoader$GSCopy$[ebp]
  008b7	68 04 01 00 00	 push	 260			; 00000104H
  008bc	8d 85 ac fc ff
	ff		 lea	 eax, DWORD PTR _szBuf$[ebp]
  008c2	50		 push	 eax
  008c3	68 00 00 00 00	 push	 OFFSET ??_C@_00CNPNBAHC@?$AA@
  008c8	8d 85 dc fd ff
	ff		 lea	 eax, DWORD PTR __k$556020[ebp]
  008ce	50		 push	 eax
  008cf	ff d7		 call	 edi

; 115  : 	m_szFastMoveMapEffect = szBuf;

  008d1	8d 85 ac fc ff
	ff		 lea	 eax, DWORD PTR _szBuf$[ebp]
  008d7	50		 push	 eax
  008d8	8d 8e 24 12 00
	00		 lea	 ecx, DWORD PTR [esi+4644]
  008de	ff d3		 call	 ebx
  008e0	6a 03		 push	 3

; 116  : 
; 117  : 	rkLoader.LoadString_e( "fast_move_end", "", szBuf, MAX_PATH );

  008e2	c7 85 68 ff ff
	ff 8b 8d 98 9e	 mov	 DWORD PTR __k$556097[ebp], -1634169461 ; 9e988d8bH
  008ec	c7 85 6c ff ff
	ff b2 81 84 9c	 mov	 DWORD PTR __k$556097[ebp+4], -1669037646 ; 9c8481b2H
  008f6	c7 85 70 ff ff
	ff 88 b3 8e 84	 mov	 DWORD PTR __k$556097[ebp+8], -2071022712 ; 848eb388H
  00900	8d 85 68 ff ff
	ff		 lea	 eax, DWORD PTR __k$556097[ebp]
  00906	66 c7 85 74 ff
	ff ff 89 00	 mov	 WORD PTR __k$556097[ebp+12], 137 ; 00000089H
  0090f	59		 pop	 ecx
$LL1908@LoadProper:
  00910	81 30 ed ec eb
	ea		 xor	 DWORD PTR [eax], -353637139 ; eaebecedH
  00916	83 c0 04	 add	 eax, 4
  00919	49		 dec	 ecx
  0091a	75 f4		 jne	 SHORT $LL1908@LoadProper
  0091c	8b 8d a8 fc ff
	ff		 mov	 ecx, DWORD PTR _rkLoader$GSCopy$[ebp]
  00922	80 b5 74 ff ff
	ff ed		 xor	 BYTE PTR __k$556097[ebp+12], -19 ; ffffffedH
  00929	68 04 01 00 00	 push	 260			; 00000104H
  0092e	8d 85 ac fc ff
	ff		 lea	 eax, DWORD PTR _szBuf$[ebp]
  00934	50		 push	 eax
  00935	68 00 00 00 00	 push	 OFFSET ??_C@_00CNPNBAHC@?$AA@
  0093a	8d 85 68 ff ff
	ff		 lea	 eax, DWORD PTR __k$556097[ebp]
  00940	50		 push	 eax
  00941	ff d7		 call	 edi

; 118  : 	m_szFastMoveEnd = szBuf;

  00943	8d 85 ac fc ff
	ff		 lea	 eax, DWORD PTR _szBuf$[ebp]
  00949	50		 push	 eax
  0094a	8d 8e 38 12 00
	00		 lea	 ecx, DWORD PTR [esi+4664]
  00950	ff d3		 call	 ebx
  00952	6a 04		 push	 4

; 119  : 	m_fFastMoveEndRate		= rkLoader.LoadFloat_e( "fast_move_end_rate", 1.0f );

  00954	c7 85 50 ff ff
	ff 8b 8d 98 9e	 mov	 DWORD PTR __k$556222[ebp], -1634169461 ; 9e988d8bH
  0095e	c7 85 54 ff ff
	ff b2 81 84 9c	 mov	 DWORD PTR __k$556222[ebp+4], -1669037646 ; 9c8481b2H
  00968	c7 85 58 ff ff
	ff 88 b3 8e 84	 mov	 DWORD PTR __k$556222[ebp+8], -2071022712 ; 848eb388H
  00972	c7 85 5c ff ff
	ff 89 b3 99 8b	 mov	 DWORD PTR __k$556222[ebp+12], -1952861303 ; 8b99b389H
  0097c	66 c7 85 60 ff
	ff ff 99 89	 mov	 WORD PTR __k$556222[ebp+16], 35225 ; 00008999H
  00985	8d 85 50 ff ff
	ff		 lea	 eax, DWORD PTR __k$556222[ebp]
  0098b	c6 85 62 ff ff
	ff 00		 mov	 BYTE PTR __k$556222[ebp+18], 0
  00992	59		 pop	 ecx
$LL2014@LoadProper:
  00993	81 30 ed ec eb
	ea		 xor	 DWORD PTR [eax], -353637139 ; eaebecedH
  00999	83 c0 04	 add	 eax, 4
  0099c	49		 dec	 ecx
  0099d	75 f4		 jne	 SHORT $LL2014@LoadProper
  0099f	6a 10		 push	 16			; 00000010H
  009a1	58		 pop	 eax
$LL2011@LoadProper:
  009a2	8b c8		 mov	 ecx, eax
  009a4	81 e1 03 00 00
	80		 and	 ecx, -2147483645	; 80000003H
  009aa	79 05		 jns	 SHORT $LN2655@LoadProper
  009ac	49		 dec	 ecx
  009ad	83 c9 fc	 or	 ecx, -4			; fffffffcH
  009b0	41		 inc	 ecx
$LN2655@LoadProper:
  009b1	b2 ed		 mov	 dl, -19			; ffffffedH
  009b3	2a d1		 sub	 dl, cl
  009b5	30 94 05 50 ff
	ff ff		 xor	 BYTE PTR __k$556222[ebp+eax], dl
  009bc	40		 inc	 eax
  009bd	83 f8 12	 cmp	 eax, 18			; 00000012H
  009c0	7c e0		 jl	 SHORT $LL2011@LoadProper
  009c2	f3 0f 10 05 00
	00 00 00	 movss	 xmm0, DWORD PTR __real@3f800000
  009ca	51		 push	 ecx
  009cb	8b 8d a8 fc ff
	ff		 mov	 ecx, DWORD PTR _rkLoader$GSCopy$[ebp]
  009d1	8d 85 50 ff ff
	ff		 lea	 eax, DWORD PTR __k$556222[ebp]
  009d7	f3 0f 11 04 24	 movss	 DWORD PTR [esp], xmm0
  009dc	50		 push	 eax
  009dd	ff 15 00 00 00
	00		 call	 DWORD PTR __imp_?LoadFloat@ioINILoader@@QAEMPBDM@Z
  009e3	d9 9e 48 12 00
	00		 fstp	 DWORD PTR [esi+4680]
  009e9	6a 03		 push	 3

; 120  : 
; 121  : 	rkLoader.LoadString_e( "whirl_attack", "", szBuf, MAX_PATH );

  009eb	c7 85 b0 fd ff
	ff 9a 84 82 98	 mov	 DWORD PTR __k$556334[ebp], -1736276838 ; 9882849aH
  009f5	c7 85 b4 fd ff
	ff 81 b3 8a 9e	 mov	 DWORD PTR __k$556334[ebp+4], -1635077247 ; 9e8ab381H
  009ff	c7 85 b8 fd ff
	ff 99 8d 88 81	 mov	 DWORD PTR __k$556334[ebp+8], -2121757287 ; 81888d99H
  00a09	8d 85 b0 fd ff
	ff		 lea	 eax, DWORD PTR __k$556334[ebp]
  00a0f	c6 85 bc fd ff
	ff 00		 mov	 BYTE PTR __k$556334[ebp+12], 0
  00a16	59		 pop	 ecx
$LL2120@LoadProper:
  00a17	81 30 ed ec eb
	ea		 xor	 DWORD PTR [eax], -353637139 ; eaebecedH
  00a1d	83 c0 04	 add	 eax, 4
  00a20	49		 dec	 ecx
  00a21	75 f4		 jne	 SHORT $LL2120@LoadProper
  00a23	8b 8d a8 fc ff
	ff		 mov	 ecx, DWORD PTR _rkLoader$GSCopy$[ebp]
  00a29	68 04 01 00 00	 push	 260			; 00000104H
  00a2e	8d 85 ac fc ff
	ff		 lea	 eax, DWORD PTR _szBuf$[ebp]
  00a34	50		 push	 eax
  00a35	68 00 00 00 00	 push	 OFFSET ??_C@_00CNPNBAHC@?$AA@
  00a3a	8d 85 b0 fd ff
	ff		 lea	 eax, DWORD PTR __k$556334[ebp]
  00a40	50		 push	 eax
  00a41	ff d7		 call	 edi

; 122  : 	m_szWhirlAttack = szBuf;

  00a43	8d 85 ac fc ff
	ff		 lea	 eax, DWORD PTR _szBuf$[ebp]
  00a49	50		 push	 eax
  00a4a	8d 8e 78 12 00
	00		 lea	 ecx, DWORD PTR [esi+4728]
  00a50	ff d3		 call	 ebx
  00a52	6a 04		 push	 4

; 123  : 	m_fWhirlAttackRate		= rkLoader.LoadFloat_e( "whirl_attack_rate", 1.0f );

  00a54	c7 85 e0 fe ff
	ff 9a 84 82 98	 mov	 DWORD PTR __k$556459[ebp], -1736276838 ; 9882849aH
  00a5e	c7 85 e4 fe ff
	ff 81 b3 8a 9e	 mov	 DWORD PTR __k$556459[ebp+4], -1635077247 ; 9e8ab381H
  00a68	c7 85 e8 fe ff
	ff 99 8d 88 81	 mov	 DWORD PTR __k$556459[ebp+8], -2121757287 ; 81888d99H
  00a72	c7 85 ec fe ff
	ff b2 9e 8a 9e	 mov	 DWORD PTR __k$556459[ebp+12], -1635082574 ; 9e8a9eb2H
  00a7c	8d 85 e0 fe ff
	ff		 lea	 eax, DWORD PTR __k$556459[ebp]
  00a82	66 c7 85 f0 fe
	ff ff 88 00	 mov	 WORD PTR __k$556459[ebp+16], 136 ; 00000088H
  00a8b	59		 pop	 ecx
  00a8c	bb ed ec eb ea	 mov	 ebx, -353637139		; eaebecedH
$LL2226@LoadProper:
  00a91	31 18		 xor	 DWORD PTR [eax], ebx
  00a93	83 c0 04	 add	 eax, 4
  00a96	49		 dec	 ecx
  00a97	75 f8		 jne	 SHORT $LL2226@LoadProper
  00a99	f3 0f 10 05 00
	00 00 00	 movss	 xmm0, DWORD PTR __real@3f800000
  00aa1	80 b5 f0 fe ff
	ff ed		 xor	 BYTE PTR __k$556459[ebp+16], -19 ; ffffffedH
  00aa8	51		 push	 ecx
  00aa9	8b 8d a8 fc ff
	ff		 mov	 ecx, DWORD PTR _rkLoader$GSCopy$[ebp]
  00aaf	8d 85 e0 fe ff
	ff		 lea	 eax, DWORD PTR __k$556459[ebp]
  00ab5	f3 0f 11 04 24	 movss	 DWORD PTR [esp], xmm0
  00aba	50		 push	 eax
  00abb	ff 15 00 00 00
	00		 call	 DWORD PTR __imp_?LoadFloat@ioINILoader@@QAEMPBDM@Z
  00ac1	d9 9e 88 12 00
	00		 fstp	 DWORD PTR [esi+4744]
  00ac7	6a 05		 push	 5

; 124  : 	m_dwWhirlAttackDuration = rkLoader.LoadInt_e( "whirl_attack_duration", 0 );	

  00ac9	c7 85 80 fe ff
	ff 9a 84 82 98	 mov	 DWORD PTR __k$556584[ebp], -1736276838 ; 9882849aH
  00ad3	c7 85 84 fe ff
	ff 81 b3 8a 9e	 mov	 DWORD PTR __k$556584[ebp+4], -1635077247 ; 9e8ab381H
  00add	c7 85 88 fe ff
	ff 99 8d 88 81	 mov	 DWORD PTR __k$556584[ebp+8], -2121757287 ; 81888d99H
  00ae7	c7 85 8c fe ff
	ff b2 88 9e 98	 mov	 DWORD PTR __k$556584[ebp+12], -1734440782 ; 989e88b2H
  00af1	c7 85 90 fe ff
	ff 8c 98 82 85	 mov	 DWORD PTR __k$556584[ebp+16], -2055038836 ; 8582988cH
  00afb	8d 85 80 fe ff
	ff		 lea	 eax, DWORD PTR __k$556584[ebp]
  00b01	66 c7 85 94 fe
	ff ff 83 00	 mov	 WORD PTR __k$556584[ebp+20], 131 ; 00000083H
  00b0a	59		 pop	 ecx
$LL2332@LoadProper:
  00b0b	31 18		 xor	 DWORD PTR [eax], ebx
  00b0d	83 c0 04	 add	 eax, 4
  00b10	49		 dec	 ecx
  00b11	75 f8		 jne	 SHORT $LL2332@LoadProper
  00b13	8b 3d 00 00 00
	00		 mov	 edi, DWORD PTR __imp_?LoadInt@ioINILoader@@QAEHPBDH@Z
  00b19	80 b5 94 fe ff
	ff ed		 xor	 BYTE PTR __k$556584[ebp+20], -19 ; ffffffedH
  00b20	51		 push	 ecx
  00b21	8b 8d a8 fc ff
	ff		 mov	 ecx, DWORD PTR _rkLoader$GSCopy$[ebp]
  00b27	8d 85 80 fe ff
	ff		 lea	 eax, DWORD PTR __k$556584[ebp]
  00b2d	50		 push	 eax
  00b2e	ff d7		 call	 edi

; 125  : 
; 126  : 	LoadWeaponInfo( "whirl_attack", m_WhirlAttackInfo, rkLoader );

  00b30	ff b5 a8 fc ff
	ff		 push	 DWORD PTR _rkLoader$GSCopy$[ebp]
  00b36	89 86 90 12 00
	00		 mov	 DWORD PTR [esi+4752], eax
  00b3c	8d 86 50 12 00
	00		 lea	 eax, DWORD PTR [esi+4688]
  00b42	50		 push	 eax
  00b43	68 00 00 00 00	 push	 OFFSET ??_C@_0N@IAEKOGP@whirl_attack?$AA@
  00b48	e8 00 00 00 00	 call	 ?LoadWeaponInfo@@YAXPBDAAUWeaponInfo@@AAVioINILoader@@@Z ; LoadWeaponInfo
  00b4d	83 c4 0c	 add	 esp, 12			; 0000000cH
  00b50	6a 04		 push	 4

; 127  : 	m_dwCharRotateTime = rkLoader.LoadInt_e( "char_rotate_speed", 0 );

  00b52	c7 85 68 fe ff
	ff 8e 84 8a 98	 mov	 DWORD PTR __k$556709[ebp], -1735752562 ; 988a848eH
  00b5c	c7 85 6c fe ff
	ff b2 9e 84 9e	 mov	 DWORD PTR __k$556709[ebp+4], -1635475790 ; 9e849eb2H
  00b66	c7 85 70 fe ff
	ff 8c 98 8e b5	 mov	 DWORD PTR __k$556709[ebp+8], -1248946036 ; b58e988cH
  00b70	c7 85 74 fe ff
	ff 9e 9c 8e 8f	 mov	 DWORD PTR __k$556709[ebp+12], -1886479202 ; 8f8e9c9eH
  00b7a	8d 85 68 fe ff
	ff		 lea	 eax, DWORD PTR __k$556709[ebp]
  00b80	66 c7 85 78 fe
	ff ff 89 00	 mov	 WORD PTR __k$556709[ebp+16], 137 ; 00000089H
  00b89	59		 pop	 ecx
$LL2438@LoadProper:
  00b8a	31 18		 xor	 DWORD PTR [eax], ebx
  00b8c	83 c0 04	 add	 eax, 4
  00b8f	49		 dec	 ecx
  00b90	75 f8		 jne	 SHORT $LL2438@LoadProper
  00b92	80 b5 78 fe ff
	ff ed		 xor	 BYTE PTR __k$556709[ebp+16], -19 ; ffffffedH
  00b99	51		 push	 ecx
  00b9a	8b 8d a8 fc ff
	ff		 mov	 ecx, DWORD PTR _rkLoader$GSCopy$[ebp]
  00ba0	8d 85 68 fe ff
	ff		 lea	 eax, DWORD PTR __k$556709[ebp]
  00ba6	50		 push	 eax
  00ba7	ff d7		 call	 edi
  00ba9	89 86 9c 12 00
	00		 mov	 DWORD PTR [esi+4764], eax
  00baf	6a 03		 push	 3

; 128  : 	m_fMoveSpeed	= rkLoader.LoadFloat_e( "char_move_speed", 100.0f );

  00bb1	c7 85 10 ff ff
	ff 8e 84 8a 98	 mov	 DWORD PTR __k$556847[ebp], -1735752562 ; 988a848eH
  00bbb	c7 85 14 ff ff
	ff b2 81 84 9c	 mov	 DWORD PTR __k$556847[ebp+4], -1669037646 ; 9c8481b2H
  00bc5	c7 85 18 ff ff
	ff 88 b3 98 9a	 mov	 DWORD PTR __k$556847[ebp+8], -1701268600 ; 9a98b388H
  00bcf	8d 85 10 ff ff
	ff		 lea	 eax, DWORD PTR __k$556847[ebp]
  00bd5	c7 85 1c ff ff
	ff 88 89 8f 00	 mov	 DWORD PTR __k$556847[ebp+12], 9406856 ; 008f8988H
  00bdf	59		 pop	 ecx
$LL2544@LoadProper:
  00be0	31 18		 xor	 DWORD PTR [eax], ebx
  00be2	83 c0 04	 add	 eax, 4
  00be5	49		 dec	 ecx
  00be6	75 f8		 jne	 SHORT $LL2544@LoadProper
  00be8	6a 0c		 push	 12			; 0000000cH
  00bea	58		 pop	 eax
$LL2541@LoadProper:
  00beb	8b c8		 mov	 ecx, eax
  00bed	81 e1 03 00 00
	80		 and	 ecx, -2147483645	; 80000003H
  00bf3	79 05		 jns	 SHORT $LN2656@LoadProper
  00bf5	49		 dec	 ecx
  00bf6	83 c9 fc	 or	 ecx, -4			; fffffffcH
  00bf9	41		 inc	 ecx
$LN2656@LoadProper:
  00bfa	b2 ed		 mov	 dl, -19			; ffffffedH
  00bfc	2a d1		 sub	 dl, cl
  00bfe	30 94 05 10 ff
	ff ff		 xor	 BYTE PTR __k$556847[ebp+eax], dl
  00c05	40		 inc	 eax
  00c06	83 f8 0f	 cmp	 eax, 15			; 0000000fH
  00c09	7c e0		 jl	 SHORT $LL2541@LoadProper
  00c0b	f3 0f 10 05 00
	00 00 00	 movss	 xmm0, DWORD PTR __real@42c80000
  00c13	51		 push	 ecx
  00c14	8b 8d a8 fc ff
	ff		 mov	 ecx, DWORD PTR _rkLoader$GSCopy$[ebp]
  00c1a	8d 85 10 ff ff
	ff		 lea	 eax, DWORD PTR __k$556847[ebp]
  00c20	f3 0f 11 04 24	 movss	 DWORD PTR [esp], xmm0
  00c25	50		 push	 eax
  00c26	ff 15 00 00 00
	00		 call	 DWORD PTR __imp_?LoadFloat@ioINILoader@@QAEMPBDM@Z
  00c2c	d9 9e 8c 12 00
	00		 fstp	 DWORD PTR [esi+4748]

; 129  : 
; 130  : 	LoadAttackAttribute( "wall_end_attack", m_WallEndAttack, rkLoader );

  00c32	ff b5 a8 fc ff
	ff		 push	 DWORD PTR _rkLoader$GSCopy$[ebp]
  00c38	81 c6 a0 12 00
	00		 add	 esi, 4768		; 000012a0H
  00c3e	56		 push	 esi
  00c3f	68 00 00 00 00	 push	 OFFSET ??_C@_0BA@CLJGPPJA@wall_end_attack?$AA@
  00c44	e8 00 00 00 00	 call	 ?LoadAttackAttribute@@YAXPBDAAUAttackAttribute@@AAVioINILoader@@@Z ; LoadAttackAttribute

; 131  : }

  00c49	8b 4d fc	 mov	 ecx, DWORD PTR __$ArrayPad$[ebp]
  00c4c	83 c4 0c	 add	 esp, 12			; 0000000cH
  00c4f	5f		 pop	 edi
  00c50	5e		 pop	 esi
  00c51	33 cd		 xor	 ecx, ebp
  00c53	5b		 pop	 ebx
  00c54	e8 00 00 00 00	 call	 @__security_check_cookie@4
  00c59	c9		 leave
  00c5a	c2 04 00	 ret	 4
?LoadProperty@ioWhirlwndAttack@@UAEXAAVioINILoader@@@Z ENDP ; ioWhirlwndAttack::LoadProperty
_TEXT	ENDS
PUBLIC	?OnSkillStart@ioWhirlwndAttack@@UAE_NPAVioBaseChar@@@Z ; ioWhirlwndAttack::OnSkillStart
EXTRN	?OnSkillStart@ioAttackSkill@@UAE_NPAVioBaseChar@@@Z:PROC ; ioAttackSkill::OnSkillStart
; Function compile flags: /Ogsp
;	COMDAT ?OnSkillStart@ioWhirlwndAttack@@UAE_NPAVioBaseChar@@@Z
_TEXT	SEGMENT
_value$557061 = 8					; size = 4
_pChar$ = 8						; size = 4
?OnSkillStart@ioWhirlwndAttack@@UAE_NPAVioBaseChar@@@Z PROC ; ioWhirlwndAttack::OnSkillStart, COMDAT
; _this$ = ecx

; 139  : {

  00000	55		 push	 ebp
  00001	8b ec		 mov	 ebp, esp
  00003	56		 push	 esi

; 140  : 	ioAttackSkill::OnSkillStart( pChar );

  00004	ff 75 08	 push	 DWORD PTR _pChar$[ebp]
  00007	8b f1		 mov	 esi, ecx
  00009	e8 00 00 00 00	 call	 ?OnSkillStart@ioAttackSkill@@UAE_NPAVioBaseChar@@@Z ; ioAttackSkill::OnSkillStart

; 141  : 
; 142  : 	Init();

  0000e	8b ce		 mov	 ecx, esi
  00010	e8 00 00 00 00	 call	 ?Init@ioWhirlwndAttack@@QAEXXZ ; ioWhirlwndAttack::Init

; 143  : 
; 144  : 	CheckWeaponItemMesh( pChar );

  00015	ff 75 08	 push	 DWORD PTR _pChar$[ebp]
  00018	8b ce		 mov	 ecx, esi
  0001a	e8 00 00 00 00	 call	 ?CheckWeaponItemMesh@ioWhirlwndAttack@@IAEXPAVioBaseChar@@@Z ; ioWhirlwndAttack::CheckWeaponItemMesh

; 145  : 
; 146  : 	m_dwSkillStartTime = FRAMEGETTIME();

  0001f	ff 15 00 00 00
	00		 call	 DWORD PTR __imp_?GetSingleton@ioFrameTimer@@SAAAV1@XZ
  00025	8b c8		 mov	 ecx, eax
  00027	ff 15 00 00 00
	00		 call	 DWORD PTR __imp_?GetLoopSec@ioFrameTimer@@QBEKXZ
  0002d	89 45 08	 mov	 DWORD PTR _value$557061[ebp], eax
  00030	8d 45 08	 lea	 eax, DWORD PTR _value$557061[ebp]
  00033	50		 push	 eax
  00034	8d 8e 94 0e 00
	00		 lea	 ecx, DWORD PTR [esi+3732]
  0003a	e8 00 00 00 00	 call	 ?EncryptValueToPool@?$CEncrypt@K@@AAEXPBD@Z ; CEncrypt<unsigned long>::EncryptValueToPool

; 147  : 
; 148  : 	return true;

  0003f	b0 01		 mov	 al, 1
  00041	5e		 pop	 esi

; 149  : }

  00042	5d		 pop	 ebp
  00043	c2 04 00	 ret	 4
?OnSkillStart@ioWhirlwndAttack@@UAE_NPAVioBaseChar@@@Z ENDP ; ioWhirlwndAttack::OnSkillStart
_TEXT	ENDS
PUBLIC	__real@00000000
PUBLIC	__real@bff0000000000000
PUBLIC	__real@0000000000000000
PUBLIC	_pChar$GSCopy$
PUBLIC	__$ArrayPad$
PUBLIC	?CheckLoopEndState@ioWhirlwndAttack@@IAEXPAVioBaseChar@@PAVioPlayStage@@@Z ; ioWhirlwndAttack::CheckLoopEndState
EXTRN	?SetWorldPosition@ioMapEffect@@QAEXABUD3DXVECTOR3@@@Z:PROC ; ioMapEffect::SetWorldPosition
EXTRN	?GetMapHeight@ioPlayStage@@QAEMMMPBVioGameEntity@@_NM1@Z:PROC ; ioPlayStage::GetMapHeight
EXTRN	?GetWorldPosition@ioMapEffect@@QBEABUD3DXVECTOR3@@XZ:PROC ; ioMapEffect::GetWorldPosition
EXTRN	?FindMapEffect@ioPlayStage@@QAEPAVioMapEffect@@K@Z:PROC ; ioPlayStage::FindMapEffect
;	COMDAT __real@00000000
; File c:\program files (x86)\microsoft directx sdk (june 2010)\include\d3dx9math.inl
CONST	SEGMENT
__real@00000000 DD 000000000r			; 0
CONST	ENDS
;	COMDAT __real@bff0000000000000
CONST	SEGMENT
__real@bff0000000000000 DQ 0bff0000000000000r	; -1
CONST	ENDS
;	COMDAT __real@0000000000000000
CONST	SEGMENT
__real@0000000000000000 DQ 00000000000000000r	; 0
; Function compile flags: /Ogsp
; File d:\lost saga for developer\youtube\tutorial\source\src\lsclient\iowhirlwndattack.cpp
CONST	ENDS
;	COMDAT ?CheckLoopEndState@ioWhirlwndAttack@@IAEXPAVioBaseChar@@PAVioPlayStage@@@Z
_TEXT	SEGMENT
_vMove$548454 = -32					; size = 12
_pChar$GSCopy$ = -20					; size = 4
_fMoveDist$548453 = -20					; size = 4
_vPos$548457 = -16					; size = 12
__$ArrayPad$ = -4					; size = 4
_pChar$ = 8						; size = 4
_pStage$ = 12						; size = 4
?CheckLoopEndState@ioWhirlwndAttack@@IAEXPAVioBaseChar@@PAVioPlayStage@@@Z PROC ; ioWhirlwndAttack::CheckLoopEndState, COMDAT
; _this$ = ecx

; 385  : {

  00000	55		 push	 ebp
  00001	8b ec		 mov	 ebp, esp
  00003	83 ec 20	 sub	 esp, 32			; 00000020H
  00006	a1 00 00 00 00	 mov	 eax, DWORD PTR ___security_cookie
  0000b	33 c5		 xor	 eax, ebp
  0000d	89 45 fc	 mov	 DWORD PTR __$ArrayPad$[ebp], eax
  00010	8b 45 08	 mov	 eax, DWORD PTR _pChar$[ebp]
  00013	53		 push	 ebx
  00014	8b 5d 0c	 mov	 ebx, DWORD PTR _pStage$[ebp]
  00017	56		 push	 esi
  00018	8b f1		 mov	 esi, ecx

; 386  : 	if( 0 < m_dwMotionEndTime && m_dwMotionEndTime < FRAMEGETTIME() )

  0001a	83 be d8 02 00
	00 00		 cmp	 DWORD PTR [esi+728], 0
  00021	57		 push	 edi

; 394  : 		{
; 395  : 			float fMoveDist		= m_fLoopEndAttackEffectMoveSpeed * g_FrameTimer.GetSecPerFrame();

  00022	89 45 ec	 mov	 DWORD PTR _pChar$GSCopy$[ebp], eax
  00025	76 26		 jbe	 SHORT $LN4@CheckLoopE

; 386  : 	if( 0 < m_dwMotionEndTime && m_dwMotionEndTime < FRAMEGETTIME() )

  00027	ff 15 00 00 00
	00		 call	 DWORD PTR __imp_?GetSingleton@ioFrameTimer@@SAAAV1@XZ
  0002d	8b c8		 mov	 ecx, eax
  0002f	ff 15 00 00 00
	00		 call	 DWORD PTR __imp_?GetLoopSec@ioFrameTimer@@QBEKXZ
  00035	39 86 d8 02 00
	00		 cmp	 DWORD PTR [esi+728], eax
  0003b	73 10		 jae	 SHORT $LN4@CheckLoopE

; 387  : 	{		
; 388  : 		SetFastMovePre( pChar, pStage );

  0003d	53		 push	 ebx
  0003e	ff 75 ec	 push	 DWORD PTR _pChar$GSCopy$[ebp]
  00041	8b ce		 mov	 ecx, esi
  00043	e8 00 00 00 00	 call	 ?SetFastMovePre@ioWhirlwndAttack@@IAEXPAVioBaseChar@@PAVioPlayStage@@@Z ; ioWhirlwndAttack::SetFastMovePre

; 389  : 	}
; 390  : 	else

  00048	e9 f7 00 00 00	 jmp	 $LN1@CheckLoopE
$LN4@CheckLoopE:

; 391  : 	{
; 392  : 		ioMapEffect *pMapEffect = pStage->FindMapEffect( m_LoopEndAttackEffectID );

  0004d	ff b6 e0 11 00
	00		 push	 DWORD PTR [esi+4576]
  00053	8b cb		 mov	 ecx, ebx
  00055	e8 00 00 00 00	 call	 ?FindMapEffect@ioPlayStage@@QAEPAVioMapEffect@@K@Z ; ioPlayStage::FindMapEffect
  0005a	8b f8		 mov	 edi, eax

; 393  : 		if( pMapEffect )

  0005c	85 ff		 test	 edi, edi
  0005e	0f 84 e0 00 00
	00		 je	 $LN1@CheckLoopE

; 394  : 		{
; 395  : 			float fMoveDist		= m_fLoopEndAttackEffectMoveSpeed * g_FrameTimer.GetSecPerFrame();

  00064	ff 15 00 00 00
	00		 call	 DWORD PTR __imp_?GetSingleton@ioFrameTimer@@SAAAV1@XZ
  0006a	8b c8		 mov	 ecx, eax
  0006c	ff 15 00 00 00
	00		 call	 DWORD PTR __imp_?GetSecPerFrame@ioFrameTimer@@QBEMXZ
  00072	d8 8e dc 11 00
	00		 fmul	 DWORD PTR [esi+4572]

; 396  : 			D3DXVECTOR3 vMove	= D3DXVECTOR3( 0.0f, -1.0f, 0.0f ) * fMoveDist;
; 397  : 			D3DXVECTOR3 vPos	= pMapEffect->GetWorldPosition() + vMove;

  00078	8b cf		 mov	 ecx, edi
  0007a	d9 5d ec	 fstp	 DWORD PTR _fMoveDist$548453[ebp]
  0007d	f3 0f 10 45 ec	 movss	 xmm0, DWORD PTR _fMoveDist$548453[ebp]
  00082	f3 0f 10 4d ec	 movss	 xmm1, DWORD PTR _fMoveDist$548453[ebp]
  00087	0f 5a c0	 cvtps2pd xmm0, xmm0
  0008a	f2 0f 59 05 00
	00 00 00	 mulsd	 xmm0, QWORD PTR __real@0000000000000000
  00092	0f 5a c9	 cvtps2pd xmm1, xmm1
  00095	f2 0f 59 0d 00
	00 00 00	 mulsd	 xmm1, QWORD PTR __real@bff0000000000000
  0009d	f2 0f 5a c0	 cvtsd2ss xmm0, xmm0
  000a1	f2 0f 5a c9	 cvtsd2ss xmm1, xmm1
  000a5	f3 0f 11 45 e0	 movss	 DWORD PTR _vMove$548454[ebp], xmm0
  000aa	f3 0f 11 4d e4	 movss	 DWORD PTR _vMove$548454[ebp+4], xmm1
  000af	f3 0f 11 45 e8	 movss	 DWORD PTR _vMove$548454[ebp+8], xmm0
  000b4	e8 00 00 00 00	 call	 ?GetWorldPosition@ioMapEffect@@QBEABUD3DXVECTOR3@@XZ ; ioMapEffect::GetWorldPosition
  000b9	f3 0f 10 40 04	 movss	 xmm0, DWORD PTR [eax+4]
  000be	f3 0f 10 4d e4	 movss	 xmm1, DWORD PTR _vMove$548454[ebp+4]
  000c3	f3 0f 10 55 e8	 movss	 xmm2, DWORD PTR _vMove$548454[ebp+8]
  000c8	f3 0f 10 5d e0	 movss	 xmm3, DWORD PTR _vMove$548454[ebp]

; 398  : 
; 399  : 			float fMapHeight = pStage->GetMapHeight( vPos.x, vPos.z, NULL, true, vPos.y );

  000cd	6a 00		 push	 0
  000cf	0f 5a c9	 cvtps2pd xmm1, xmm1
  000d2	51		 push	 ecx
  000d3	0f 5a c0	 cvtps2pd xmm0, xmm0
  000d6	f2 0f 58 c1	 addsd	 xmm0, xmm1
  000da	f3 0f 10 48 08	 movss	 xmm1, DWORD PTR [eax+8]
  000df	66 0f 5a c0	 cvtpd2ps xmm0, xmm0
  000e3	f3 0f 11 04 24	 movss	 DWORD PTR [esp], xmm0
  000e8	6a 01		 push	 1
  000ea	0f 5a d2	 cvtps2pd xmm2, xmm2
  000ed	6a 00		 push	 0
  000ef	0f 5a c9	 cvtps2pd xmm1, xmm1
  000f2	f2 0f 58 ca	 addsd	 xmm1, xmm2
  000f6	f3 0f 10 10	 movss	 xmm2, DWORD PTR [eax]
  000fa	51		 push	 ecx
  000fb	51		 push	 ecx
  000fc	0f 5a d2	 cvtps2pd xmm2, xmm2
  000ff	66 0f 5a c9	 cvtpd2ps xmm1, xmm1
  00103	0f 5a db	 cvtps2pd xmm3, xmm3
  00106	f2 0f 58 d3	 addsd	 xmm2, xmm3
  0010a	66 0f 5a d2	 cvtpd2ps xmm2, xmm2
  0010e	f3 0f 11 4c 24
	04		 movss	 DWORD PTR [esp+4], xmm1
  00114	8b cb		 mov	 ecx, ebx
  00116	f3 0f 11 55 f0	 movss	 DWORD PTR _vPos$548457[ebp], xmm2
  0011b	f3 0f 11 45 f4	 movss	 DWORD PTR _vPos$548457[ebp+4], xmm0
  00120	f3 0f 11 4d f8	 movss	 DWORD PTR _vPos$548457[ebp+8], xmm1
  00125	f3 0f 11 14 24	 movss	 DWORD PTR [esp], xmm2
  0012a	e8 00 00 00 00	 call	 ?GetMapHeight@ioPlayStage@@QAEMMMPBVioGameEntity@@_NM1@Z ; ioPlayStage::GetMapHeight

; 400  : 			if( fMapHeight > 0.0f )

  0012f	d9 ee		 fldz
  00131	d9 c9		 fxch	 ST(1)
  00133	df f1		 fcomip	 ST(1)
  00135	dd d8		 fstp	 ST(0)
  00137	76 0b		 jbe	 SHORT $LN1@CheckLoopE

; 401  : 			{
; 402  : 				pMapEffect->SetWorldPosition( vPos );

  00139	8d 45 f0	 lea	 eax, DWORD PTR _vPos$548457[ebp]
  0013c	50		 push	 eax
  0013d	8b cf		 mov	 ecx, edi
  0013f	e8 00 00 00 00	 call	 ?SetWorldPosition@ioMapEffect@@QAEXABUD3DXVECTOR3@@@Z ; ioMapEffect::SetWorldPosition
$LN1@CheckLoopE:

; 403  : 			}
; 404  : 		}
; 405  : 	}
; 406  : }

  00144	8b 4d fc	 mov	 ecx, DWORD PTR __$ArrayPad$[ebp]
  00147	5f		 pop	 edi
  00148	5e		 pop	 esi
  00149	33 cd		 xor	 ecx, ebp
  0014b	5b		 pop	 ebx
  0014c	e8 00 00 00 00	 call	 @__security_check_cookie@4
  00151	c9		 leave
  00152	c2 08 00	 ret	 8
?CheckLoopEndState@ioWhirlwndAttack@@IAEXPAVioBaseChar@@PAVioPlayStage@@@Z ENDP ; ioWhirlwndAttack::CheckLoopEndState
_TEXT	ENDS
PUBLIC	?CheckMovePreState@ioWhirlwndAttack@@IAEXPAVioBaseChar@@PAVioPlayStage@@@Z ; ioWhirlwndAttack::CheckMovePreState
; Function compile flags: /Ogsp
;	COMDAT ?CheckMovePreState@ioWhirlwndAttack@@IAEXPAVioBaseChar@@PAVioPlayStage@@@Z
_TEXT	SEGMENT
_pChar$ = 8						; size = 4
_pStage$ = 12						; size = 4
?CheckMovePreState@ioWhirlwndAttack@@IAEXPAVioBaseChar@@PAVioPlayStage@@@Z PROC ; ioWhirlwndAttack::CheckMovePreState, COMDAT
; _this$ = ecx

; 429  : {

  00000	55		 push	 ebp
  00001	8b ec		 mov	 ebp, esp
  00003	56		 push	 esi
  00004	57		 push	 edi
  00005	8b f9		 mov	 edi, ecx

; 430  : 	if( 0 < m_dwPreFastMoveEndTime && m_dwPreFastMoveEndTime < FRAMEGETTIME() )

  00007	83 bf 10 12 00
	00 00		 cmp	 DWORD PTR [edi+4624], 0
  0000e	76 23		 jbe	 SHORT $LN1@CheckMoveP
  00010	ff 15 00 00 00
	00		 call	 DWORD PTR __imp_?GetSingleton@ioFrameTimer@@SAAAV1@XZ
  00016	8b c8		 mov	 ecx, eax
  00018	ff 15 00 00 00
	00		 call	 DWORD PTR __imp_?GetLoopSec@ioFrameTimer@@QBEKXZ
  0001e	39 87 10 12 00
	00		 cmp	 DWORD PTR [edi+4624], eax
  00024	73 0d		 jae	 SHORT $LN1@CheckMoveP

; 431  : 	{
; 432  : 		SetFastMove( pChar, pStage );

  00026	ff 75 0c	 push	 DWORD PTR _pStage$[ebp]
  00029	8b cf		 mov	 ecx, edi
  0002b	ff 75 08	 push	 DWORD PTR _pChar$[ebp]
  0002e	e8 00 00 00 00	 call	 ?SetFastMove@ioWhirlwndAttack@@IAEXPAVioBaseChar@@PAVioPlayStage@@@Z ; ioWhirlwndAttack::SetFastMove
$LN1@CheckMoveP:
  00033	5f		 pop	 edi
  00034	5e		 pop	 esi

; 433  : 	}
; 434  : }

  00035	5d		 pop	 ebp
  00036	c2 08 00	 ret	 8
?CheckMovePreState@ioWhirlwndAttack@@IAEXPAVioBaseChar@@PAVioPlayStage@@@Z ENDP ; ioWhirlwndAttack::CheckMovePreState
_TEXT	ENDS
PUBLIC	__$ArrayPad$
PUBLIC	?CheckFastMoveState@ioWhirlwndAttack@@IAEXPAVioBaseChar@@PAVioPlayStage@@@Z ; ioWhirlwndAttack::CheckFastMoveState
; Function compile flags: /Ogsp
;	COMDAT ?CheckFastMoveState@ioWhirlwndAttack@@IAEXPAVioBaseChar@@PAVioPlayStage@@@Z
_TEXT	SEGMENT
_fMoveDist$ = -32					; size = 4
_vMove$548496 = -28					; size = 12
_vPos$548498 = -16					; size = 12
__$ArrayPad$ = -4					; size = 4
_pChar$ = 8						; size = 4
_pStage$ = 12						; size = 4
?CheckFastMoveState@ioWhirlwndAttack@@IAEXPAVioBaseChar@@PAVioPlayStage@@@Z PROC ; ioWhirlwndAttack::CheckFastMoveState, COMDAT
; _this$ = ecx

; 459  : {

  00000	55		 push	 ebp
  00001	8b ec		 mov	 ebp, esp
  00003	83 ec 20	 sub	 esp, 32			; 00000020H
  00006	a1 00 00 00 00	 mov	 eax, DWORD PTR ___security_cookie
  0000b	33 c5		 xor	 eax, ebp
  0000d	89 45 fc	 mov	 DWORD PTR __$ArrayPad$[ebp], eax
  00010	53		 push	 ebx
  00011	8b 5d 0c	 mov	 ebx, DWORD PTR _pStage$[ebp]
  00014	56		 push	 esi
  00015	57		 push	 edi
  00016	8b 7d 08	 mov	 edi, DWORD PTR _pChar$[ebp]
  00019	8b f1		 mov	 esi, ecx

; 460  : 	float fMoveDist		= m_fFastMoveSpeed * g_FrameTimer.GetSecPerFrame();

  0001b	ff 15 00 00 00
	00		 call	 DWORD PTR __imp_?GetSingleton@ioFrameTimer@@SAAAV1@XZ
  00021	8b c8		 mov	 ecx, eax
  00023	ff 15 00 00 00
	00		 call	 DWORD PTR __imp_?GetSecPerFrame@ioFrameTimer@@QBEMXZ
  00029	d8 8e 18 12 00
	00		 fmul	 DWORD PTR [esi+4632]

; 461  : 	m_fCurFastMoveRange	+= fMoveDist;

  0002f	f3 0f 10 86 20
	12 00 00	 movss	 xmm0, DWORD PTR [esi+4640]
  00037	0f 5a c8	 cvtps2pd xmm1, xmm0
  0003a	d9 5d e0	 fstp	 DWORD PTR _fMoveDist$[ebp]
  0003d	f3 0f 10 45 e0	 movss	 xmm0, DWORD PTR _fMoveDist$[ebp]
  00042	0f 5a d0	 cvtps2pd xmm2, xmm0
  00045	f2 0f 58 ca	 addsd	 xmm1, xmm2

; 462  : 
; 463  : 	if( m_fMaxFastMoveRange < m_fCurFastMoveRange )

  00049	f3 0f 10 96 1c
	12 00 00	 movss	 xmm2, DWORD PTR [esi+4636]
  00051	66 0f 5a c9	 cvtpd2ps xmm1, xmm1
  00055	f3 0f 11 8e 20
	12 00 00	 movss	 DWORD PTR [esi+4640], xmm1
  0005d	0f 5a d2	 cvtps2pd xmm2, xmm2
  00060	f3 0f 5a c9	 cvtss2sd xmm1, xmm1
  00064	66 0f 2f ca	 comisd	 xmm1, xmm2
  00068	76 0e		 jbe	 SHORT $LN3@CheckFastM

; 464  : 	{
; 465  : 		SetFastEnd( pChar, pStage );

  0006a	53		 push	 ebx
  0006b	57		 push	 edi
  0006c	8b ce		 mov	 ecx, esi
  0006e	e8 00 00 00 00	 call	 ?SetFastEnd@ioWhirlwndAttack@@IAEXPAVioBaseChar@@PAVioPlayStage@@@Z ; ioWhirlwndAttack::SetFastEnd

; 466  : 	}
; 467  : 	else

  00073	e9 d8 00 00 00	 jmp	 $LN1@CheckFastM
$LN3@CheckFastM:

; 468  : 	{
; 469  : 		D3DXVECTOR3 vMove	= m_vAttackDir * fMoveDist;

  00078	f3 0f 10 8e f0
	11 00 00	 movss	 xmm1, DWORD PTR [esi+4592]

; 470  : 		D3DXVECTOR3 vPos	= pChar->GetWorldPosition() + vMove;

  00080	8b 07		 mov	 eax, DWORD PTR [edi]
  00082	0f 5a c9	 cvtps2pd xmm1, xmm1
  00085	0f 5a d0	 cvtps2pd xmm2, xmm0
  00088	f2 0f 59 ca	 mulsd	 xmm1, xmm2
  0008c	66 0f 5a c9	 cvtpd2ps xmm1, xmm1
  00090	f3 0f 11 4d e4	 movss	 DWORD PTR _vMove$548496[ebp], xmm1
  00095	f3 0f 10 8e f4
	11 00 00	 movss	 xmm1, DWORD PTR [esi+4596]
  0009d	0f 5a c9	 cvtps2pd xmm1, xmm1
  000a0	0f 5a d0	 cvtps2pd xmm2, xmm0
  000a3	f2 0f 59 ca	 mulsd	 xmm1, xmm2
  000a7	66 0f 5a c9	 cvtpd2ps xmm1, xmm1
  000ab	f3 0f 11 4d e8	 movss	 DWORD PTR _vMove$548496[ebp+4], xmm1
  000b0	f3 0f 10 8e f8
	11 00 00	 movss	 xmm1, DWORD PTR [esi+4600]
  000b8	0f 5a c0	 cvtps2pd xmm0, xmm0
  000bb	0f 5a c9	 cvtps2pd xmm1, xmm1
  000be	f2 0f 59 c8	 mulsd	 xmm1, xmm0
  000c2	0f 57 c0	 xorps	 xmm0, xmm0
  000c5	66 0f 5a c1	 cvtpd2ps xmm0, xmm1
  000c9	8b cf		 mov	 ecx, edi
  000cb	f3 0f 11 45 ec	 movss	 DWORD PTR _vMove$548496[ebp+8], xmm0
  000d0	ff 50 70	 call	 DWORD PTR [eax+112]
  000d3	f3 0f 10 40 04	 movss	 xmm0, DWORD PTR [eax+4]
  000d8	f3 0f 10 4d e8	 movss	 xmm1, DWORD PTR _vMove$548496[ebp+4]
  000dd	f3 0f 10 55 ec	 movss	 xmm2, DWORD PTR _vMove$548496[ebp+8]
  000e2	f3 0f 10 5d e4	 movss	 xmm3, DWORD PTR _vMove$548496[ebp]

; 471  : 
; 472  : 		ioMapEffect *pMapEffect = pStage->FindMapEffect( m_FastMoveMapEffectID );

  000e7	ff b6 34 12 00
	00		 push	 DWORD PTR [esi+4660]
  000ed	0f 5a c9	 cvtps2pd xmm1, xmm1
  000f0	0f 5a c0	 cvtps2pd xmm0, xmm0
  000f3	f2 0f 58 c1	 addsd	 xmm0, xmm1
  000f7	f3 0f 10 48 08	 movss	 xmm1, DWORD PTR [eax+8]
  000fc	0f 5a d2	 cvtps2pd xmm2, xmm2
  000ff	0f 5a c9	 cvtps2pd xmm1, xmm1
  00102	f2 0f 58 ca	 addsd	 xmm1, xmm2
  00106	f3 0f 10 10	 movss	 xmm2, DWORD PTR [eax]
  0010a	0f 5a d2	 cvtps2pd xmm2, xmm2
  0010d	0f 5a db	 cvtps2pd xmm3, xmm3
  00110	f2 0f 58 d3	 addsd	 xmm2, xmm3
  00114	66 0f 5a c0	 cvtpd2ps xmm0, xmm0
  00118	66 0f 5a c9	 cvtpd2ps xmm1, xmm1
  0011c	66 0f 5a d2	 cvtpd2ps xmm2, xmm2
  00120	8b cb		 mov	 ecx, ebx
  00122	f3 0f 11 55 f0	 movss	 DWORD PTR _vPos$548498[ebp], xmm2
  00127	f3 0f 11 45 f4	 movss	 DWORD PTR _vPos$548498[ebp+4], xmm0
  0012c	f3 0f 11 4d f8	 movss	 DWORD PTR _vPos$548498[ebp+8], xmm1
  00131	e8 00 00 00 00	 call	 ?FindMapEffect@ioPlayStage@@QAEPAVioMapEffect@@K@Z ; ioPlayStage::FindMapEffect

; 473  : 		if( pMapEffect )

  00136	85 c0		 test	 eax, eax
  00138	74 16		 je	 SHORT $LN1@CheckFastM

; 474  : 		{
; 475  : 			pMapEffect->SetWorldPosition( vPos );

  0013a	8d 4d f0	 lea	 ecx, DWORD PTR _vPos$548498[ebp]
  0013d	51		 push	 ecx
  0013e	8b c8		 mov	 ecx, eax
  00140	e8 00 00 00 00	 call	 ?SetWorldPosition@ioMapEffect@@QAEXABUD3DXVECTOR3@@@Z ; ioMapEffect::SetWorldPosition

; 476  : 			pChar->SetWorldPosition( vPos );

  00145	8b 07		 mov	 eax, DWORD PTR [edi]
  00147	8d 4d f0	 lea	 ecx, DWORD PTR _vPos$548498[ebp]
  0014a	51		 push	 ecx
  0014b	8b cf		 mov	 ecx, edi
  0014d	ff 50 44	 call	 DWORD PTR [eax+68]
$LN1@CheckFastM:

; 477  : 		}
; 478  : 	}
; 479  : }

  00150	8b 4d fc	 mov	 ecx, DWORD PTR __$ArrayPad$[ebp]
  00153	5f		 pop	 edi
  00154	5e		 pop	 esi
  00155	33 cd		 xor	 ecx, ebp
  00157	5b		 pop	 ebx
  00158	e8 00 00 00 00	 call	 @__security_check_cookie@4
  0015d	c9		 leave
  0015e	c2 08 00	 ret	 8
?CheckFastMoveState@ioWhirlwndAttack@@IAEXPAVioBaseChar@@PAVioPlayStage@@@Z ENDP ; ioWhirlwndAttack::CheckFastMoveState
_TEXT	ENDS
PUBLIC	?CheckFastEndState@ioWhirlwndAttack@@IAEXPAVioBaseChar@@PAVioPlayStage@@@Z ; ioWhirlwndAttack::CheckFastEndState
; Function compile flags: /Ogsp
;	COMDAT ?CheckFastEndState@ioWhirlwndAttack@@IAEXPAVioBaseChar@@PAVioPlayStage@@@Z
_TEXT	SEGMENT
_pChar$ = 8						; size = 4
_pStage$ = 12						; size = 4
?CheckFastEndState@ioWhirlwndAttack@@IAEXPAVioBaseChar@@PAVioPlayStage@@@Z PROC ; ioWhirlwndAttack::CheckFastEndState, COMDAT
; _this$ = ecx

; 513  : {

  00000	55		 push	 ebp
  00001	8b ec		 mov	 ebp, esp
  00003	56		 push	 esi
  00004	57		 push	 edi
  00005	8b f9		 mov	 edi, ecx

; 514  : 	if( 0 < m_dwFastMoveEndEndTime && m_dwFastMoveEndEndTime < FRAMEGETTIME() )

  00007	83 bf 4c 12 00
	00 00		 cmp	 DWORD PTR [edi+4684], 0
  0000e	76 23		 jbe	 SHORT $LN1@CheckFastE
  00010	ff 15 00 00 00
	00		 call	 DWORD PTR __imp_?GetSingleton@ioFrameTimer@@SAAAV1@XZ
  00016	8b c8		 mov	 ecx, eax
  00018	ff 15 00 00 00
	00		 call	 DWORD PTR __imp_?GetLoopSec@ioFrameTimer@@QBEKXZ
  0001e	39 87 4c 12 00
	00		 cmp	 DWORD PTR [edi+4684], eax
  00024	73 0d		 jae	 SHORT $LN1@CheckFastE

; 515  : 	{
; 516  : 		SetWhirlAttack( pChar, pStage );

  00026	ff 75 0c	 push	 DWORD PTR _pStage$[ebp]
  00029	8b cf		 mov	 ecx, edi
  0002b	ff 75 08	 push	 DWORD PTR _pChar$[ebp]
  0002e	e8 00 00 00 00	 call	 ?SetWhirlAttack@ioWhirlwndAttack@@IAEXPAVioBaseChar@@PAVioPlayStage@@@Z ; ioWhirlwndAttack::SetWhirlAttack
$LN1@CheckFastE:
  00033	5f		 pop	 edi
  00034	5e		 pop	 esi

; 517  : 	}
; 518  : }

  00035	5d		 pop	 ebp
  00036	c2 08 00	 ret	 8
?CheckFastEndState@ioWhirlwndAttack@@IAEXPAVioBaseChar@@PAVioPlayStage@@@Z ENDP ; ioWhirlwndAttack::CheckFastEndState
_TEXT	ENDS
PUBLIC	?CheckWhirlAttackState@ioWhirlwndAttack@@IAEXPAVioBaseChar@@PAVioPlayStage@@@Z ; ioWhirlwndAttack::CheckWhirlAttackState
EXTRN	?IsAttackKey@ioBaseChar@@QBE_NXZ:PROC		; ioBaseChar::IsAttackKey
; Function compile flags: /Ogsp
;	COMDAT ?CheckWhirlAttackState@ioWhirlwndAttack@@IAEXPAVioBaseChar@@PAVioPlayStage@@@Z
_TEXT	SEGMENT
_pChar$ = 8						; size = 4
_pStage$ = 12						; size = 4
?CheckWhirlAttackState@ioWhirlwndAttack@@IAEXPAVioBaseChar@@PAVioPlayStage@@@Z PROC ; ioWhirlwndAttack::CheckWhirlAttackState, COMDAT
; _this$ = ecx

; 566  : {

  00000	55		 push	 ebp
  00001	8b ec		 mov	 ebp, esp
  00003	56		 push	 esi
  00004	8b f1		 mov	 esi, ecx

; 567  : 	DWORD dwCurTime = FRAMEGETTIME();

  00006	ff 15 00 00 00
	00		 call	 DWORD PTR __imp_?GetSingleton@ioFrameTimer@@SAAAV1@XZ
  0000c	8b c8		 mov	 ecx, eax
  0000e	ff 15 00 00 00
	00		 call	 DWORD PTR __imp_?GetLoopSec@ioFrameTimer@@QBEKXZ

; 568  : 
; 569  : 	if( 0 < m_dwWhirlAttackEndTime && m_dwWhirlAttackEndTime < dwCurTime )

  00014	8b 8e 94 12 00
	00		 mov	 ecx, DWORD PTR [esi+4756]
  0001a	85 c9		 test	 ecx, ecx
  0001c	74 13		 je	 SHORT $LN5@CheckWhirl
  0001e	3b c8		 cmp	 ecx, eax
  00020	73 0f		 jae	 SHORT $LN5@CheckWhirl

; 570  : 	{
; 571  : 		SetChopAttack( pChar, pStage );

  00022	ff 75 0c	 push	 DWORD PTR _pStage$[ebp]
  00025	8b ce		 mov	 ecx, esi
  00027	ff 75 08	 push	 DWORD PTR _pChar$[ebp]
  0002a	e8 00 00 00 00	 call	 ?SetChopAttack@ioWhirlwndAttack@@IAEXPAVioBaseChar@@PAVioPlayStage@@@Z ; ioWhirlwndAttack::SetChopAttack

; 572  : 	}
; 573  : 	else

  0002f	eb 4b		 jmp	 SHORT $LN1@CheckWhirl
$LN5@CheckWhirl:
  00031	57		 push	 edi

; 574  : 	{
; 575  : 		if( CheckWeaponLive( pChar, pStage, m_dwWhirlAttackIndex ) )

  00032	ff b6 98 12 00
	00		 push	 DWORD PTR [esi+4760]
  00038	8b 7d 08	 mov	 edi, DWORD PTR _pChar$[ebp]
  0003b	ff 75 0c	 push	 DWORD PTR _pStage$[ebp]
  0003e	8b ce		 mov	 ecx, esi
  00040	57		 push	 edi
  00041	e8 00 00 00 00	 call	 ?CheckWeaponLive@ioWhirlwndAttack@@IAE_NPAVioBaseChar@@PAVioPlayStage@@K@Z ; ioWhirlwndAttack::CheckWeaponLive
  00046	84 c0		 test	 al, al
  00048	74 26		 je	 SHORT $LN3@CheckWhirl

; 576  : 		{
; 577  : 			if( pChar->IsNeedProcess() && pChar->IsAttackKey() )

  0004a	8b 07		 mov	 eax, DWORD PTR [edi]
  0004c	8b cf		 mov	 ecx, edi
  0004e	ff 90 00 01 00
	00		 call	 DWORD PTR [eax+256]
  00054	84 c0		 test	 al, al
  00056	74 23		 je	 SHORT $LN8@CheckWhirl
  00058	8b cf		 mov	 ecx, edi
  0005a	e8 00 00 00 00	 call	 ?IsAttackKey@ioBaseChar@@QBE_NXZ ; ioBaseChar::IsAttackKey
  0005f	84 c0		 test	 al, al
  00061	74 18		 je	 SHORT $LN8@CheckWhirl

; 578  : 			{
; 579  : 				SetChopAttack( pChar, pStage );

  00063	ff 75 0c	 push	 DWORD PTR _pStage$[ebp]
  00066	8b ce		 mov	 ecx, esi
  00068	57		 push	 edi
  00069	e8 00 00 00 00	 call	 ?SetChopAttack@ioWhirlwndAttack@@IAEXPAVioBaseChar@@PAVioPlayStage@@@Z ; ioWhirlwndAttack::SetChopAttack

; 580  : 			}
; 581  : 		}
; 582  : 		else

  0006e	eb 0b		 jmp	 SHORT $LN8@CheckWhirl
$LN3@CheckWhirl:

; 583  : 		{
; 584  : 			SetWallAttack( pChar, pStage );

  00070	ff 75 0c	 push	 DWORD PTR _pStage$[ebp]
  00073	8b ce		 mov	 ecx, esi
  00075	57		 push	 edi
  00076	e8 00 00 00 00	 call	 ?SetWallAttack@ioWhirlwndAttack@@IAEXPAVioBaseChar@@PAVioPlayStage@@@Z ; ioWhirlwndAttack::SetWallAttack
$LN8@CheckWhirl:
  0007b	5f		 pop	 edi
$LN1@CheckWhirl:
  0007c	5e		 pop	 esi

; 585  : 		}		
; 586  : 	}
; 587  : }

  0007d	5d		 pop	 ebp
  0007e	c2 08 00	 ret	 8
?CheckWhirlAttackState@ioWhirlwndAttack@@IAEXPAVioBaseChar@@PAVioPlayStage@@@Z ENDP ; ioWhirlwndAttack::CheckWhirlAttackState
_TEXT	ENDS
PUBLIC	?IsProtected@ioWhirlwndAttack@@UBE_NH@Z		; ioWhirlwndAttack::IsProtected
; Function compile flags: /Ogsp
;	COMDAT ?IsProtected@ioWhirlwndAttack@@UBE_NH@Z
_TEXT	SEGMENT
_value$557141 = -1					; size = 1
_iDefenseBreakType$ = 8					; size = 4
?IsProtected@ioWhirlwndAttack@@UBE_NH@Z PROC		; ioWhirlwndAttack::IsProtected, COMDAT
; _this$ = ecx

; 854  : {

  00000	55		 push	 ebp
  00001	8b ec		 mov	 ebp, esp
  00003	51		 push	 ecx
  00004	56		 push	 esi
  00005	8b f1		 mov	 esi, ecx

; 855  : 	if( m_bDisableSkillProtect )

  00007	8d 45 ff	 lea	 eax, DWORD PTR _value$557141[ebp]
  0000a	50		 push	 eax
  0000b	8d 8e a8 00 00
	00		 lea	 ecx, DWORD PTR [esi+168]
  00011	e8 00 00 00 00	 call	 ?DecryptValueToPool@?$CEncrypt@_N@@QAEXPA_N@Z ; CEncrypt<bool>::DecryptValueToPool
  00016	80 7d ff 00	 cmp	 BYTE PTR _value$557141[ebp], 0
  0001a	74 04		 je	 SHORT $LN3@IsProtecte
$LN8@IsProtecte:

; 856  : 		return false;

  0001c	32 c0		 xor	 al, al
  0001e	eb 11		 jmp	 SHORT $LN4@IsProtecte
$LN3@IsProtecte:

; 857  : 
; 858  : 	// 스킬 무적 파괴
; 859  : 	if( DBT_NONE != (DefenseBreakType)m_ProtectCancelType )

  00020	8b b6 a4 00 00
	00		 mov	 esi, DWORD PTR [esi+164]
  00026	85 f6		 test	 esi, esi
  00028	74 05		 je	 SHORT $LN1@IsProtecte

; 860  : 	{		
; 861  : 		if( iDefenseBreakType == m_ProtectCancelType )

  0002a	39 75 08	 cmp	 DWORD PTR _iDefenseBreakType$[ebp], esi

; 862  : 			return false;

  0002d	74 ed		 je	 SHORT $LN8@IsProtecte
$LN1@IsProtecte:

; 863  : 	}
; 864  : 
; 865  : 	//풀무적
; 866  : 	return true;

  0002f	b0 01		 mov	 al, 1
$LN4@IsProtecte:
  00031	5e		 pop	 esi

; 867  : }

  00032	c9		 leave
  00033	c2 04 00	 ret	 4
?IsProtected@ioWhirlwndAttack@@UBE_NH@Z ENDP		; ioWhirlwndAttack::IsProtected
_TEXT	ENDS
PUBLIC	??$_Cons_val@V?$allocator@UForceInfo@@@std@@UForceInfo@@ABU3@@std@@YAXAAV?$allocator@UForceInfo@@@0@PAUForceInfo@@ABU2@@Z ; std::_Cons_val<std::allocator<ForceInfo>,ForceInfo,ForceInfo const &>
; Function compile flags: /Ogsp
; File c:\program files (x86)\microsoft visual studio 10.0\vc\include\xmemory
;	COMDAT ??$_Cons_val@V?$allocator@UForceInfo@@@std@@UForceInfo@@ABU3@@std@@YAXAAV?$allocator@UForceInfo@@@0@PAUForceInfo@@ABU2@@Z
_TEXT	SEGMENT
__Alval$ = 8						; size = 4
__Pdest$ = 12						; size = 4
__Src$ = 16						; size = 4
??$_Cons_val@V?$allocator@UForceInfo@@@std@@UForceInfo@@ABU3@@std@@YAXAAV?$allocator@UForceInfo@@@0@PAUForceInfo@@ABU2@@Z PROC ; std::_Cons_val<std::allocator<ForceInfo>,ForceInfo,ForceInfo const &>, COMDAT

; 279  : 	{	// construct using allocator

  00000	55		 push	 ebp
  00001	8b ec		 mov	 ebp, esp
  00003	57		 push	 edi

; 280  : 	_Alval.construct(_Pdest, _STD forward<_Ty2>(_Src));

  00004	8b 7d 0c	 mov	 edi, DWORD PTR __Pdest$[ebp]
  00007	85 ff		 test	 edi, edi
  00009	74 08		 je	 SHORT $LN9@Cons_val
  0000b	56		 push	 esi
  0000c	8b 75 10	 mov	 esi, DWORD PTR __Src$[ebp]
  0000f	a5		 movsd
  00010	a5		 movsd
  00011	a5		 movsd
  00012	5e		 pop	 esi
$LN9@Cons_val:
  00013	5f		 pop	 edi

; 281  : 	}

  00014	5d		 pop	 ebp
  00015	c3		 ret	 0
??$_Cons_val@V?$allocator@UForceInfo@@@std@@UForceInfo@@ABU3@@std@@YAXAAV?$allocator@UForceInfo@@@0@PAUForceInfo@@ABU2@@Z ENDP ; std::_Cons_val<std::allocator<ForceInfo>,ForceInfo,ForceInfo const &>
_TEXT	ENDS
PUBLIC	?construct@?$allocator@UWeaponInfo@@@std@@QAEXPAUWeaponInfo@@ABU3@@Z ; std::allocator<WeaponInfo>::construct
; Function compile flags: /Ogsp
;	COMDAT ?construct@?$allocator@UWeaponInfo@@@std@@QAEXPAUWeaponInfo@@ABU3@@Z
_TEXT	SEGMENT
__Ptr$ = 8						; size = 4
__Val$ = 12						; size = 4
?construct@?$allocator@UWeaponInfo@@@std@@QAEXPAUWeaponInfo@@ABU3@@Z PROC ; std::allocator<WeaponInfo>::construct, COMDAT
; _this$ = ecx

; 196  : 		{	// construct object at _Ptr with value _Val

  00000	55		 push	 ebp
  00001	8b ec		 mov	 ebp, esp

; 197  : 		_Construct(_Ptr, _Val);

  00003	ff 75 0c	 push	 DWORD PTR __Val$[ebp]
  00006	ff 75 08	 push	 DWORD PTR __Ptr$[ebp]
  00009	e8 00 00 00 00	 call	 ??$_Construct@UWeaponInfo@@ABU1@@std@@YAXPAUWeaponInfo@@ABU1@@Z ; std::_Construct<WeaponInfo,WeaponInfo const &>
  0000e	59		 pop	 ecx
  0000f	59		 pop	 ecx

; 198  : 		}

  00010	5d		 pop	 ebp
  00011	c2 08 00	 ret	 8
?construct@?$allocator@UWeaponInfo@@@std@@QAEXPAUWeaponInfo@@ABU3@@Z ENDP ; std::allocator<WeaponInfo>::construct
_TEXT	ENDS
PUBLIC	?GetTeam@ioPlayEntity@@QBE?AW4TeamType@@XZ	; ioPlayEntity::GetTeam
; Function compile flags: /Ogsp
; File d:\lost saga for developer\youtube\tutorial\source\src\lsclient\ioplayentity.h
;	COMDAT ?GetTeam@ioPlayEntity@@QBE?AW4TeamType@@XZ
_TEXT	SEGMENT
_value$557192 = -4					; size = 4
?GetTeam@ioPlayEntity@@QBE?AW4TeamType@@XZ PROC		; ioPlayEntity::GetTeam, COMDAT
; _this$ = ecx

; 107  : 	inline TeamType GetTeam() const { return m_TeamType; }

  00000	55		 push	 ebp
  00001	8b ec		 mov	 ebp, esp
  00003	51		 push	 ecx
  00004	8d 45 fc	 lea	 eax, DWORD PTR _value$557192[ebp]
  00007	50		 push	 eax
  00008	81 c1 90 00 00
	00		 add	 ecx, 144		; 00000090H
  0000e	e8 00 00 00 00	 call	 ?DecryptValueToPool@?$CEncrypt@W4TeamType@@@@QAEXPAW4TeamType@@@Z ; CEncrypt<enum TeamType>::DecryptValueToPool
  00013	8b 45 fc	 mov	 eax, DWORD PTR _value$557192[ebp]
  00016	c9		 leave
  00017	c3		 ret	 0
?GetTeam@ioPlayEntity@@QBE?AW4TeamType@@XZ ENDP		; ioPlayEntity::GetTeam
_TEXT	ENDS
PUBLIC	??0?$vector@UWeaponInfo@@V?$allocator@UWeaponInfo@@@std@@@std@@QAE@XZ ; std::vector<WeaponInfo,std::allocator<WeaponInfo> >::vector<WeaponInfo,std::allocator<WeaponInfo> >
; Function compile flags: /Ogsp
; File c:\program files (x86)\microsoft visual studio 10.0\vc\include\vector
;	COMDAT ??0?$vector@UWeaponInfo@@V?$allocator@UWeaponInfo@@@std@@@std@@QAE@XZ
_TEXT	SEGMENT
??0?$vector@UWeaponInfo@@V?$allocator@UWeaponInfo@@@std@@@std@@QAE@XZ PROC ; std::vector<WeaponInfo,std::allocator<WeaponInfo> >::vector<WeaponInfo,std::allocator<WeaponInfo> >, COMDAT
; _this$ = ecx

; 507  : 		{	// construct empty vector

  00000	8b c1		 mov	 eax, ecx
  00002	33 c9		 xor	 ecx, ecx
  00004	89 08		 mov	 DWORD PTR [eax], ecx
  00006	89 48 04	 mov	 DWORD PTR [eax+4], ecx
  00009	89 48 08	 mov	 DWORD PTR [eax+8], ecx

; 508  : 		}

  0000c	c3		 ret	 0
??0?$vector@UWeaponInfo@@V?$allocator@UWeaponInfo@@@std@@@std@@QAE@XZ ENDP ; std::vector<WeaponInfo,std::allocator<WeaponInfo> >::vector<WeaponInfo,std::allocator<WeaponInfo> >
_TEXT	ENDS
PUBLIC	??0?$vector@UForceInfo@@V?$allocator@UForceInfo@@@std@@@std@@QAE@XZ ; std::vector<ForceInfo,std::allocator<ForceInfo> >::vector<ForceInfo,std::allocator<ForceInfo> >
; Function compile flags: /Ogsp
;	COMDAT ??0?$vector@UForceInfo@@V?$allocator@UForceInfo@@@std@@@std@@QAE@XZ
_TEXT	SEGMENT
??0?$vector@UForceInfo@@V?$allocator@UForceInfo@@@std@@@std@@QAE@XZ PROC ; std::vector<ForceInfo,std::allocator<ForceInfo> >::vector<ForceInfo,std::allocator<ForceInfo> >, COMDAT
; _this$ = ecx

; 507  : 		{	// construct empty vector

  00000	8b c1		 mov	 eax, ecx
  00002	33 c9		 xor	 ecx, ecx
  00004	89 08		 mov	 DWORD PTR [eax], ecx
  00006	89 48 04	 mov	 DWORD PTR [eax+4], ecx
  00009	89 48 08	 mov	 DWORD PTR [eax+8], ecx

; 508  : 		}

  0000c	c3		 ret	 0
??0?$vector@UForceInfo@@V?$allocator@UForceInfo@@@std@@@std@@QAE@XZ ENDP ; std::vector<ForceInfo,std::allocator<ForceInfo> >::vector<ForceInfo,std::allocator<ForceInfo> >
_TEXT	ENDS
PUBLIC	?_Buy@?$vector@UWeaponInfo@@V?$allocator@UWeaponInfo@@@std@@@std@@IAE_NI@Z ; std::vector<WeaponInfo,std::allocator<WeaponInfo> >::_Buy
; Function compile flags: /Ogsp
;	COMDAT ?_Buy@?$vector@UWeaponInfo@@V?$allocator@UWeaponInfo@@@std@@@std@@IAE_NI@Z
_TEXT	SEGMENT
__Capacity$ = 8						; size = 4
?_Buy@?$vector@UWeaponInfo@@V?$allocator@UWeaponInfo@@@std@@@std@@IAE_NI@Z PROC ; std::vector<WeaponInfo,std::allocator<WeaponInfo> >::_Buy, COMDAT
; _this$ = ecx

; 1250 : 		{	// allocate array with _Capacity elements

  00000	55		 push	 ebp
  00001	8b ec		 mov	 ebp, esp
  00003	56		 push	 esi

; 1251 : 		this->_Myfirst = 0;

  00004	33 c0		 xor	 eax, eax
  00006	57		 push	 edi

; 1252 : 		this->_Mylast = 0;
; 1253 : 		this->_Myend = 0;
; 1254 : 
; 1255 : 		if (_Capacity == 0)

  00007	8b 7d 08	 mov	 edi, DWORD PTR __Capacity$[ebp]
  0000a	8b f1		 mov	 esi, ecx
  0000c	89 06		 mov	 DWORD PTR [esi], eax
  0000e	89 46 04	 mov	 DWORD PTR [esi+4], eax
  00011	89 46 08	 mov	 DWORD PTR [esi+8], eax
  00014	3b f8		 cmp	 edi, eax
  00016	75 04		 jne	 SHORT $LN4@Buy

; 1256 : 			return (false);

  00018	32 c0		 xor	 al, al
  0001a	eb 2b		 jmp	 SHORT $LN5@Buy
$LN4@Buy:

; 1257 : 		else if (max_size() < _Capacity)

  0001c	81 ff 66 66 66
	06		 cmp	 edi, 107374182		; 06666666H
  00022	76 0b		 jbe	 SHORT $LN2@Buy

; 1258 : 			_Xlen();	// result too long

  00024	68 00 00 00 00	 push	 OFFSET ??_C@_0BD@OLBABOEK@vector?$DMT?$DO?5too?5long?$AA@
  00029	ff 15 00 00 00
	00		 call	 DWORD PTR __imp_?_Xlength_error@std@@YAXPBD@Z
$LN19@Buy:
$LN2@Buy:

; 1259 : 		else
; 1260 : 			{	// nonempty array, allocate storage
; 1261 : 			this->_Myfirst = this->_Alval.allocate(_Capacity);

  0002f	50		 push	 eax
  00030	57		 push	 edi
  00031	e8 00 00 00 00	 call	 ??$_Allocate@UWeaponInfo@@@std@@YAPAUWeaponInfo@@IPAU1@@Z ; std::_Allocate<WeaponInfo>

; 1262 : 			this->_Mylast = this->_Myfirst;
; 1263 : 			this->_Myend = this->_Myfirst + _Capacity;

  00036	6b ff 28	 imul	 edi, 40			; 00000028H
  00039	03 f8		 add	 edi, eax
  0003b	59		 pop	 ecx
  0003c	89 06		 mov	 DWORD PTR [esi], eax
  0003e	89 46 04	 mov	 DWORD PTR [esi+4], eax
  00041	59		 pop	 ecx
  00042	89 7e 08	 mov	 DWORD PTR [esi+8], edi

; 1264 : 			}
; 1265 : 		return (true);

  00045	b0 01		 mov	 al, 1
$LN5@Buy:
  00047	5f		 pop	 edi
  00048	5e		 pop	 esi

; 1266 : 		}

  00049	5d		 pop	 ebp
  0004a	c2 04 00	 ret	 4
$LN18@Buy:
?_Buy@?$vector@UWeaponInfo@@V?$allocator@UWeaponInfo@@@std@@@std@@IAE_NI@Z ENDP ; std::vector<WeaponInfo,std::allocator<WeaponInfo> >::_Buy
_TEXT	ENDS
PUBLIC	?_Buy@?$vector@UForceInfo@@V?$allocator@UForceInfo@@@std@@@std@@IAE_NI@Z ; std::vector<ForceInfo,std::allocator<ForceInfo> >::_Buy
; Function compile flags: /Ogsp
;	COMDAT ?_Buy@?$vector@UForceInfo@@V?$allocator@UForceInfo@@@std@@@std@@IAE_NI@Z
_TEXT	SEGMENT
__Capacity$ = 8						; size = 4
?_Buy@?$vector@UForceInfo@@V?$allocator@UForceInfo@@@std@@@std@@IAE_NI@Z PROC ; std::vector<ForceInfo,std::allocator<ForceInfo> >::_Buy, COMDAT
; _this$ = ecx

; 1250 : 		{	// allocate array with _Capacity elements

  00000	55		 push	 ebp
  00001	8b ec		 mov	 ebp, esp
  00003	56		 push	 esi

; 1251 : 		this->_Myfirst = 0;

  00004	33 c0		 xor	 eax, eax
  00006	57		 push	 edi

; 1252 : 		this->_Mylast = 0;
; 1253 : 		this->_Myend = 0;
; 1254 : 
; 1255 : 		if (_Capacity == 0)

  00007	8b 7d 08	 mov	 edi, DWORD PTR __Capacity$[ebp]
  0000a	8b f1		 mov	 esi, ecx
  0000c	89 06		 mov	 DWORD PTR [esi], eax
  0000e	89 46 04	 mov	 DWORD PTR [esi+4], eax
  00011	89 46 08	 mov	 DWORD PTR [esi+8], eax
  00014	3b f8		 cmp	 edi, eax
  00016	75 04		 jne	 SHORT $LN4@Buy@2

; 1256 : 			return (false);

  00018	32 c0		 xor	 al, al
  0001a	eb 2b		 jmp	 SHORT $LN5@Buy@2
$LN4@Buy@2:

; 1257 : 		else if (max_size() < _Capacity)

  0001c	81 ff 55 55 55
	15		 cmp	 edi, 357913941		; 15555555H
  00022	76 0b		 jbe	 SHORT $LN2@Buy@2

; 1258 : 			_Xlen();	// result too long

  00024	68 00 00 00 00	 push	 OFFSET ??_C@_0BD@OLBABOEK@vector?$DMT?$DO?5too?5long?$AA@
  00029	ff 15 00 00 00
	00		 call	 DWORD PTR __imp_?_Xlength_error@std@@YAXPBD@Z
$LN19@Buy@2:
$LN2@Buy@2:

; 1259 : 		else
; 1260 : 			{	// nonempty array, allocate storage
; 1261 : 			this->_Myfirst = this->_Alval.allocate(_Capacity);

  0002f	50		 push	 eax
  00030	57		 push	 edi
  00031	e8 00 00 00 00	 call	 ??$_Allocate@UForceInfo@@@std@@YAPAUForceInfo@@IPAU1@@Z ; std::_Allocate<ForceInfo>

; 1262 : 			this->_Mylast = this->_Myfirst;
; 1263 : 			this->_Myend = this->_Myfirst + _Capacity;

  00036	6b ff 0c	 imul	 edi, 12			; 0000000cH
  00039	03 f8		 add	 edi, eax
  0003b	59		 pop	 ecx
  0003c	89 06		 mov	 DWORD PTR [esi], eax
  0003e	89 46 04	 mov	 DWORD PTR [esi+4], eax
  00041	59		 pop	 ecx
  00042	89 7e 08	 mov	 DWORD PTR [esi+8], edi

; 1264 : 			}
; 1265 : 		return (true);

  00045	b0 01		 mov	 al, 1
$LN5@Buy@2:
  00047	5f		 pop	 edi
  00048	5e		 pop	 esi

; 1266 : 		}

  00049	5d		 pop	 ebp
  0004a	c2 04 00	 ret	 4
$LN18@Buy@2:
?_Buy@?$vector@UForceInfo@@V?$allocator@UForceInfo@@@std@@@std@@IAE_NI@Z ENDP ; std::vector<ForceInfo,std::allocator<ForceInfo> >::_Buy
_TEXT	ENDS
PUBLIC	??9?$_Vector_const_iterator@V?$_Vector_val@UWeaponInfo@@V?$allocator@UWeaponInfo@@@std@@@std@@@std@@QBE_NABV01@@Z ; std::_Vector_const_iterator<std::_Vector_val<WeaponInfo,std::allocator<WeaponInfo> > >::operator!=
; Function compile flags: /Ogsp
;	COMDAT ??9?$_Vector_const_iterator@V?$_Vector_val@UWeaponInfo@@V?$allocator@UWeaponInfo@@@std@@@std@@@std@@QBE_NABV01@@Z
_TEXT	SEGMENT
__Right$ = 8						; size = 4
??9?$_Vector_const_iterator@V?$_Vector_val@UWeaponInfo@@V?$allocator@UWeaponInfo@@@std@@@std@@@std@@QBE_NABV01@@Z PROC ; std::_Vector_const_iterator<std::_Vector_val<WeaponInfo,std::allocator<WeaponInfo> > >::operator!=, COMDAT
; _this$ = ecx

; 207  : 		{	// test for iterator inequality

  00000	55		 push	 ebp
  00001	8b ec		 mov	 ebp, esp

; 208  : 		return (!(*this == _Right));

  00003	8b 01		 mov	 eax, DWORD PTR [ecx]
  00005	8b 55 08	 mov	 edx, DWORD PTR __Right$[ebp]
  00008	33 c9		 xor	 ecx, ecx
  0000a	3b 02		 cmp	 eax, DWORD PTR [edx]
  0000c	0f 95 c0	 setne	 al

; 209  : 		}

  0000f	5d		 pop	 ebp
  00010	c2 04 00	 ret	 4
??9?$_Vector_const_iterator@V?$_Vector_val@UWeaponInfo@@V?$allocator@UWeaponInfo@@@std@@@std@@@std@@QBE_NABV01@@Z ENDP ; std::_Vector_const_iterator<std::_Vector_val<WeaponInfo,std::allocator<WeaponInfo> > >::operator!=
_TEXT	ENDS
PUBLIC	??9?$_Vector_const_iterator@V?$_Vector_val@UForceInfo@@V?$allocator@UForceInfo@@@std@@@std@@@std@@QBE_NABV01@@Z ; std::_Vector_const_iterator<std::_Vector_val<ForceInfo,std::allocator<ForceInfo> > >::operator!=
; Function compile flags: /Ogsp
;	COMDAT ??9?$_Vector_const_iterator@V?$_Vector_val@UForceInfo@@V?$allocator@UForceInfo@@@std@@@std@@@std@@QBE_NABV01@@Z
_TEXT	SEGMENT
__Right$ = 8						; size = 4
??9?$_Vector_const_iterator@V?$_Vector_val@UForceInfo@@V?$allocator@UForceInfo@@@std@@@std@@@std@@QBE_NABV01@@Z PROC ; std::_Vector_const_iterator<std::_Vector_val<ForceInfo,std::allocator<ForceInfo> > >::operator!=, COMDAT
; _this$ = ecx

; 207  : 		{	// test for iterator inequality

  00000	55		 push	 ebp
  00001	8b ec		 mov	 ebp, esp

; 208  : 		return (!(*this == _Right));

  00003	8b 01		 mov	 eax, DWORD PTR [ecx]
  00005	8b 55 08	 mov	 edx, DWORD PTR __Right$[ebp]
  00008	33 c9		 xor	 ecx, ecx
  0000a	3b 02		 cmp	 eax, DWORD PTR [edx]
  0000c	0f 95 c0	 setne	 al

; 209  : 		}

  0000f	5d		 pop	 ebp
  00010	c2 04 00	 ret	 4
??9?$_Vector_const_iterator@V?$_Vector_val@UForceInfo@@V?$allocator@UForceInfo@@@std@@@std@@@std@@QBE_NABV01@@Z ENDP ; std::_Vector_const_iterator<std::_Vector_val<ForceInfo,std::allocator<ForceInfo> > >::operator!=
_TEXT	ENDS
PUBLIC	??$_Dest_val@V?$allocator@UForceInfo@@@std@@UForceInfo@@@std@@YAXAAV?$allocator@UForceInfo@@@0@PAUForceInfo@@@Z ; std::_Dest_val<std::allocator<ForceInfo>,ForceInfo>
; Function compile flags: /Ogsp
; File c:\program files (x86)\microsoft visual studio 10.0\vc\include\xmemory
;	COMDAT ??$_Dest_val@V?$allocator@UForceInfo@@@std@@UForceInfo@@@std@@YAXAAV?$allocator@UForceInfo@@@0@PAUForceInfo@@@Z
_TEXT	SEGMENT
__Alval$ = 8						; size = 4
__Pdest$ = 12						; size = 4
??$_Dest_val@V?$allocator@UForceInfo@@@std@@UForceInfo@@@std@@YAXAAV?$allocator@UForceInfo@@@0@PAUForceInfo@@@Z PROC ; std::_Dest_val<std::allocator<ForceInfo>,ForceInfo>, COMDAT

; 287  : 	_Alval.destroy(_Pdest);
; 288  : 	}

  00000	c3		 ret	 0
??$_Dest_val@V?$allocator@UForceInfo@@@std@@UForceInfo@@@std@@YAXAAV?$allocator@UForceInfo@@@0@PAUForceInfo@@@Z ENDP ; std::_Dest_val<std::allocator<ForceInfo>,ForceInfo>
_TEXT	ENDS
PUBLIC	?destroy@?$allocator@UWeaponInfo@@@std@@QAEXPAUWeaponInfo@@@Z ; std::allocator<WeaponInfo>::destroy
; Function compile flags: /Ogsp
;	COMDAT ?destroy@?$allocator@UWeaponInfo@@@std@@QAEXPAUWeaponInfo@@@Z
_TEXT	SEGMENT
__Ptr$ = 8						; size = 4
?destroy@?$allocator@UWeaponInfo@@@std@@QAEXPAUWeaponInfo@@@Z PROC ; std::allocator<WeaponInfo>::destroy, COMDAT
; _this$ = ecx

; 212  : 		{	// destroy object at _Ptr

  00000	55		 push	 ebp
  00001	8b ec		 mov	 ebp, esp

; 213  : 		_Destroy(_Ptr);

  00003	8b 4d 08	 mov	 ecx, DWORD PTR __Ptr$[ebp]
  00006	83 c1 08	 add	 ecx, 8
  00009	ff 15 00 00 00
	00		 call	 DWORD PTR __imp_??1ioHashString@@QAE@XZ

; 214  : 		}

  0000f	5d		 pop	 ebp
  00010	c2 04 00	 ret	 4
?destroy@?$allocator@UWeaponInfo@@@std@@QAEXPAUWeaponInfo@@@Z ENDP ; std::allocator<WeaponInfo>::destroy
_TEXT	ENDS
PUBLIC	?GetMagicGuide@ioWhirlwndAttack@@IAEABVioHashString@@PAVioBaseChar@@@Z ; ioWhirlwndAttack::GetMagicGuide
EXTRN	?GetSingleConvertTeam@ioBaseChar@@QAE?AW4TeamType@@XZ:PROC ; ioBaseChar::GetSingleConvertTeam
; Function compile flags: /Ogsp
; File d:\lost saga for developer\youtube\tutorial\source\src\lsclient\iowhirlwndattack.cpp
;	COMDAT ?GetMagicGuide@ioWhirlwndAttack@@IAEABVioHashString@@PAVioBaseChar@@@Z
_TEXT	SEGMENT
_value$557356 = 8					; size = 4
_value$557344 = 8					; size = 4
_pChar$ = 8						; size = 4
?GetMagicGuide@ioWhirlwndAttack@@IAEABVioHashString@@PAVioBaseChar@@@Z PROC ; ioWhirlwndAttack::GetMagicGuide, COMDAT
; _this$ = ecx

; 261  : {

  00000	55		 push	 ebp
  00001	8b ec		 mov	 ebp, esp
  00003	53		 push	 ebx

; 262  : 	// 팀 체크
; 263  : 	if( pChar->GetTeam() == TEAM_RED )

  00004	8b 5d 08	 mov	 ebx, DWORD PTR _pChar$[ebp]
  00007	56		 push	 esi
  00008	57		 push	 edi
  00009	8d 45 08	 lea	 eax, DWORD PTR _value$557344[ebp]
  0000c	8b f9		 mov	 edi, ecx
  0000e	50		 push	 eax
  0000f	8d 8b 90 00 00
	00		 lea	 ecx, DWORD PTR [ebx+144]
  00015	e8 00 00 00 00	 call	 ?DecryptValueToPool@?$CEncrypt@W4TeamType@@@@QAEXPAW4TeamType@@@Z ; CEncrypt<enum TeamType>::DecryptValueToPool
  0001a	83 7d 08 01	 cmp	 DWORD PTR _value$557344[ebp], 1

; 264  : 	{
; 265  : 		return m_szRedGuideCircle;

  0001e	74 2f		 je	 SHORT $LN1@GetMagicGu

; 266  : 	}
; 267  : 	else if( pChar->GetTeam() == TEAM_BLUE )

  00020	8d 45 08	 lea	 eax, DWORD PTR _value$557356[ebp]
  00023	50		 push	 eax
  00024	8d 8b 90 00 00
	00		 lea	 ecx, DWORD PTR [ebx+144]
  0002a	e8 00 00 00 00	 call	 ?DecryptValueToPool@?$CEncrypt@W4TeamType@@@@QAEXPAW4TeamType@@@Z ; CEncrypt<enum TeamType>::DecryptValueToPool
  0002f	83 7d 08 02	 cmp	 DWORD PTR _value$557356[ebp], 2
  00033	75 08		 jne	 SHORT $LN3@GetMagicGu

; 268  : 	{
; 269  : 		return m_szBlueGuideCircle;

  00035	8d 87 68 11 00
	00		 lea	 eax, DWORD PTR [edi+4456]
  0003b	eb 18		 jmp	 SHORT $LN6@GetMagicGu
$LN3@GetMagicGu:

; 270  : 	}
; 271  : 	else
; 272  : 	{
; 273  : 		if( pChar->GetSingleConvertTeam() == TEAM_BLUE )

  0003d	8b cb		 mov	 ecx, ebx
  0003f	e8 00 00 00 00	 call	 ?GetSingleConvertTeam@ioBaseChar@@QAE?AW4TeamType@@XZ ; ioBaseChar::GetSingleConvertTeam
  00044	83 f8 02	 cmp	 eax, 2

; 274  : 		{
; 275  : 			return m_szBlueGuideCircle;

  00047	8d 87 68 11 00
	00		 lea	 eax, DWORD PTR [edi+4456]
  0004d	74 06		 je	 SHORT $LN6@GetMagicGu
$LN1@GetMagicGu:

; 276  : 		}
; 277  : 	}
; 278  : 	
; 279  : 	return m_szRedGuideCircle;

  0004f	8d 87 58 11 00
	00		 lea	 eax, DWORD PTR [edi+4440]
$LN6@GetMagicGu:
  00055	5f		 pop	 edi
  00056	5e		 pop	 esi
  00057	5b		 pop	 ebx

; 280  : }

  00058	5d		 pop	 ebp
  00059	c2 04 00	 ret	 4
?GetMagicGuide@ioWhirlwndAttack@@IAEABVioHashString@@PAVioBaseChar@@@Z ENDP ; ioWhirlwndAttack::GetMagicGuide
_TEXT	ENDS
PUBLIC	__real@4008000000000000
PUBLIC	_pChar$GSCopy$
PUBLIC	__$ArrayPad$
PUBLIC	?CheckCircle@ioWhirlwndAttack@@IAEXPAVioBaseChar@@PAVioPlayStage@@@Z ; ioWhirlwndAttack::CheckCircle
EXTRN	__imp_??4ioHashString@@QAEAAV0@ABV0@@Z:PROC
EXTRN	?SetMagicCirclePos@ioBaseGUISupport@@QAEX_NABUD3DXVECTOR3@@@Z:PROC ; ioBaseGUISupport::SetMagicCirclePos
EXTRN	__imp_??9ioHashString@@QBE_NABV0@@Z:PROC
EXTRN	?GetMapHeightNoneEntity@ioPlayStage@@QAEMMMM_N@Z:PROC ; ioPlayStage::GetMapHeightNoneEntity
;	COMDAT __real@4008000000000000
CONST	SEGMENT
__real@4008000000000000 DQ 04008000000000000r	; 3
; Function compile flags: /Ogsp
CONST	ENDS
;	COMDAT ?CheckCircle@ioWhirlwndAttack@@IAEXPAVioBaseChar@@PAVioPlayStage@@@Z
_TEXT	SEGMENT
_pChar$GSCopy$ = -20					; size = 4
_vPos$ = -16						; size = 12
__$ArrayPad$ = -4					; size = 4
_pChar$ = 8						; size = 4
_pStage$ = 12						; size = 4
?CheckCircle@ioWhirlwndAttack@@IAEXPAVioBaseChar@@PAVioPlayStage@@@Z PROC ; ioWhirlwndAttack::CheckCircle, COMDAT
; _this$ = ecx

; 315  : {

  00000	55		 push	 ebp
  00001	8b ec		 mov	 ebp, esp
  00003	83 ec 14	 sub	 esp, 20			; 00000014H
  00006	a1 00 00 00 00	 mov	 eax, DWORD PTR ___security_cookie
  0000b	33 c5		 xor	 eax, ebp
  0000d	89 45 fc	 mov	 DWORD PTR __$ArrayPad$[ebp], eax
  00010	53		 push	 ebx
  00011	8b 5d 0c	 mov	 ebx, DWORD PTR _pStage$[ebp]
  00014	56		 push	 esi
  00015	57		 push	 edi
  00016	8b 7d 08	 mov	 edi, DWORD PTR _pChar$[ebp]
  00019	8b f1		 mov	 esi, ecx

; 337  : 		{
; 338  : 			pChar->CreateMagicCircle( m_szOffCircle, m_szOffCircle, GetMagicGuide( pChar ), m_fCircleOffSet );			

  0001b	89 7d ec	 mov	 DWORD PTR _pChar$GSCopy$[ebp], edi
  0001e	85 db		 test	 ebx, ebx
  00020	0f 84 35 01 00
	00		 je	 $LN1@CheckCircl

; 316  : 	if( !pStage )
; 317  : 		return;
; 318  : 
; 319  : 	if( !pChar )

  00026	85 ff		 test	 edi, edi
  00028	0f 84 2d 01 00
	00		 je	 $LN1@CheckCircl

; 320  : 		return;
; 321  : 
; 322  : 	D3DXVECTOR3 vPos = pChar->GetMagicCirclePos();

  0002e	0f 57 c0	 xorps	 xmm0, xmm0
  00031	6a 00		 push	 0
  00033	51		 push	 ecx
  00034	8d 45 f0	 lea	 eax, DWORD PTR _vPos$[ebp]
  00037	81 c7 cc 01 00
	00		 add	 edi, 460		; 000001ccH
  0003d	f3 0f 11 04 24	 movss	 DWORD PTR [esp], xmm0
  00042	50		 push	 eax
  00043	8b cf		 mov	 ecx, edi
  00045	e8 00 00 00 00	 call	 ?GetMagicCirclePos@ioBaseGUISupport@@QBE?AUD3DXVECTOR3@@M_N@Z ; ioBaseGUISupport::GetMagicCirclePos

; 323  : 
; 324  : 	if( pStage->GetMapHeightNoneEntity( vPos.x, vPos.z, vPos.y + 3.0f ) > 0.0f )

  0004a	f3 0f 10 45 f4	 movss	 xmm0, DWORD PTR _vPos$[ebp+4]
  0004f	0f 5a c0	 cvtps2pd xmm0, xmm0
  00052	f2 0f 58 05 00
	00 00 00	 addsd	 xmm0, QWORD PTR __real@4008000000000000
  0005a	6a 00		 push	 0
  0005c	83 ec 0c	 sub	 esp, 12			; 0000000cH
  0005f	66 0f 5a c0	 cvtpd2ps xmm0, xmm0
  00063	f3 0f 11 44 24
	08		 movss	 DWORD PTR [esp+8], xmm0
  00069	f3 0f 10 45 f8	 movss	 xmm0, DWORD PTR _vPos$[ebp+8]
  0006e	f3 0f 11 44 24
	04		 movss	 DWORD PTR [esp+4], xmm0
  00074	f3 0f 10 45 f0	 movss	 xmm0, DWORD PTR _vPos$[ebp]
  00079	8b cb		 mov	 ecx, ebx
  0007b	f3 0f 11 04 24	 movss	 DWORD PTR [esp], xmm0
  00080	e8 00 00 00 00	 call	 ?GetMapHeightNoneEntity@ioPlayStage@@QAEMMMM_N@Z ; ioPlayStage::GetMapHeightNoneEntity
  00085	d9 ee		 fldz
  00087	d9 c9		 fxch	 ST(1)

; 325  : 	{
; 326  : 		if( m_szCurCircle != m_szOnCircle )

  00089	8d 8e 48 11 00
	00		 lea	 ecx, DWORD PTR [esi+4424]
  0008f	df f1		 fcomip	 ST(1)
  00091	dd d8		 fstp	 ST(0)
  00093	76 66		 jbe	 SHORT $LN4@CheckCircl
  00095	8d 86 28 11 00
	00		 lea	 eax, DWORD PTR [esi+4392]
  0009b	50		 push	 eax
  0009c	ff 15 00 00 00
	00		 call	 DWORD PTR __imp_??9ioHashString@@QBE_NABV0@@Z
  000a2	84 c0		 test	 al, al
  000a4	0f 84 b1 00 00
	00		 je	 $LN1@CheckCircl

; 327  : 		{
; 328  : 			pChar->CreateMagicCircle( m_szOnCircle, m_szOnCircle, GetMagicGuide( pChar ), m_fCircleOffSet );			

  000aa	f3 0f 10 86 14
	11 00 00	 movss	 xmm0, DWORD PTR [esi+4372]
  000b2	8b 1f		 mov	 ebx, DWORD PTR [edi]
  000b4	51		 push	 ecx
  000b5	f3 0f 11 04 24	 movss	 DWORD PTR [esp], xmm0
  000ba	ff 75 ec	 push	 DWORD PTR _pChar$GSCopy$[ebp]
  000bd	8b ce		 mov	 ecx, esi
  000bf	e8 00 00 00 00	 call	 ?GetMagicGuide@ioWhirlwndAttack@@IAEABVioHashString@@PAVioBaseChar@@@Z ; ioWhirlwndAttack::GetMagicGuide
  000c4	50		 push	 eax
  000c5	8d 86 28 11 00
	00		 lea	 eax, DWORD PTR [esi+4392]
  000cb	50		 push	 eax
  000cc	50		 push	 eax
  000cd	8b cf		 mov	 ecx, edi
  000cf	ff 53 04	 call	 DWORD PTR [ebx+4]

; 329  : 			pChar->SetMagicCirclePos( false, vPos );

  000d2	8d 45 f0	 lea	 eax, DWORD PTR _vPos$[ebp]
  000d5	50		 push	 eax
  000d6	6a 00		 push	 0
  000d8	8b cf		 mov	 ecx, edi
  000da	e8 00 00 00 00	 call	 ?SetMagicCirclePos@ioBaseGUISupport@@QAEX_NABUD3DXVECTOR3@@@Z ; ioBaseGUISupport::SetMagicCirclePos

; 330  : 			m_szCurCircle	= m_szOnCircle;

  000df	8d 86 28 11 00
	00		 lea	 eax, DWORD PTR [esi+4392]
  000e5	50		 push	 eax
  000e6	8d 8e 48 11 00
	00		 lea	 ecx, DWORD PTR [esi+4424]
  000ec	ff 15 00 00 00
	00		 call	 DWORD PTR __imp_??4ioHashString@@QAEAAV0@ABV0@@Z

; 331  : 			m_bCircleOn		= true;

  000f2	c6 86 18 11 00
	00 01		 mov	 BYTE PTR [esi+4376], 1

; 332  : 		}
; 333  : 	}
; 334  : 	else

  000f9	eb 60		 jmp	 SHORT $LN1@CheckCircl
$LN4@CheckCircl:

; 335  : 	{
; 336  : 		if( m_szCurCircle != m_szOffCircle )

  000fb	8d 86 38 11 00
	00		 lea	 eax, DWORD PTR [esi+4408]
  00101	50		 push	 eax
  00102	ff 15 00 00 00
	00		 call	 DWORD PTR __imp_??9ioHashString@@QBE_NABV0@@Z
  00108	84 c0		 test	 al, al
  0010a	74 4f		 je	 SHORT $LN1@CheckCircl

; 337  : 		{
; 338  : 			pChar->CreateMagicCircle( m_szOffCircle, m_szOffCircle, GetMagicGuide( pChar ), m_fCircleOffSet );			

  0010c	f3 0f 10 86 14
	11 00 00	 movss	 xmm0, DWORD PTR [esi+4372]
  00114	8b 1f		 mov	 ebx, DWORD PTR [edi]
  00116	51		 push	 ecx
  00117	f3 0f 11 04 24	 movss	 DWORD PTR [esp], xmm0
  0011c	ff 75 ec	 push	 DWORD PTR _pChar$GSCopy$[ebp]
  0011f	8b ce		 mov	 ecx, esi
  00121	e8 00 00 00 00	 call	 ?GetMagicGuide@ioWhirlwndAttack@@IAEABVioHashString@@PAVioBaseChar@@@Z ; ioWhirlwndAttack::GetMagicGuide
  00126	50		 push	 eax
  00127	8d 86 38 11 00
	00		 lea	 eax, DWORD PTR [esi+4408]
  0012d	50		 push	 eax
  0012e	50		 push	 eax
  0012f	8b cf		 mov	 ecx, edi
  00131	ff 53 04	 call	 DWORD PTR [ebx+4]

; 339  : 			pChar->SetMagicCirclePos( false, vPos );

  00134	8d 45 f0	 lea	 eax, DWORD PTR _vPos$[ebp]
  00137	50		 push	 eax
  00138	6a 00		 push	 0
  0013a	8b cf		 mov	 ecx, edi
  0013c	e8 00 00 00 00	 call	 ?SetMagicCirclePos@ioBaseGUISupport@@QAEX_NABUD3DXVECTOR3@@@Z ; ioBaseGUISupport::SetMagicCirclePos

; 340  : 			m_szCurCircle	= m_szOffCircle;

  00141	8d 86 38 11 00
	00		 lea	 eax, DWORD PTR [esi+4408]
  00147	50		 push	 eax
  00148	8d 8e 48 11 00
	00		 lea	 ecx, DWORD PTR [esi+4424]
  0014e	ff 15 00 00 00
	00		 call	 DWORD PTR __imp_??4ioHashString@@QAEAAV0@ABV0@@Z

; 341  : 			m_bCircleOn		= false;

  00154	c6 86 18 11 00
	00 00		 mov	 BYTE PTR [esi+4376], 0
$LN1@CheckCircl:

; 342  : 		}
; 343  : 	}
; 344  : }

  0015b	8b 4d fc	 mov	 ecx, DWORD PTR __$ArrayPad$[ebp]
  0015e	5f		 pop	 edi
  0015f	5e		 pop	 esi
  00160	33 cd		 xor	 ecx, ebp
  00162	5b		 pop	 ebx
  00163	e8 00 00 00 00	 call	 @__security_check_cookie@4
  00168	c9		 leave
  00169	c2 08 00	 ret	 8
?CheckCircle@ioWhirlwndAttack@@IAEXPAVioBaseChar@@PAVioPlayStage@@@Z ENDP ; ioWhirlwndAttack::CheckCircle
_TEXT	ENDS
PUBLIC	??$_Uninit_copy@V?$_Vector_const_iterator@V?$_Vector_val@UForceInfo@@V?$allocator@UForceInfo@@@std@@@std@@@std@@PAUForceInfo@@V?$allocator@UForceInfo@@@2@@std@@YAPAUForceInfo@@V?$_Vector_const_iterator@V?$_Vector_val@UForceInfo@@V?$allocator@UForceInfo@@@std@@@std@@@0@0PAU1@AAV?$allocator@UForceInfo@@@0@U_Nonscalar_ptr_iterator_tag@0@@Z ; std::_Uninit_copy<std::_Vector_const_iterator<std::_Vector_val<ForceInfo,std::allocator<ForceInfo> > >,ForceInfo *,std::allocator<ForceInfo> >
; Function compile flags: /Ogsp
; File c:\program files (x86)\microsoft visual studio 10.0\vc\include\memory
;	COMDAT ??$_Uninit_copy@V?$_Vector_const_iterator@V?$_Vector_val@UForceInfo@@V?$allocator@UForceInfo@@@std@@@std@@@std@@PAUForceInfo@@V?$allocator@UForceInfo@@@2@@std@@YAPAUForceInfo@@V?$_Vector_const_iterator@V?$_Vector_val@UForceInfo@@V?$allocator@UForceInfo@@@std@@@std@@@0@0PAU1@AAV?$allocator@UForceInfo@@@0@U_Nonscalar_ptr_iterator_tag@0@@Z
_TEXT	SEGMENT
__First$ = 8						; size = 4
__Last$ = 12						; size = 4
__Dest$ = 16						; size = 4
__Al$ = 20						; size = 4
___formal$ = 24						; size = 1
??$_Uninit_copy@V?$_Vector_const_iterator@V?$_Vector_val@UForceInfo@@V?$allocator@UForceInfo@@@std@@@std@@@std@@PAUForceInfo@@V?$allocator@UForceInfo@@@2@@std@@YAPAUForceInfo@@V?$_Vector_const_iterator@V?$_Vector_val@UForceInfo@@V?$allocator@UForceInfo@@@std@@@std@@@0@0PAU1@AAV?$allocator@UForceInfo@@@0@U_Nonscalar_ptr_iterator_tag@0@@Z PROC ; std::_Uninit_copy<std::_Vector_const_iterator<std::_Vector_val<ForceInfo,std::allocator<ForceInfo> > >,ForceInfo *,std::allocator<ForceInfo> >, COMDAT

; 369  : 	{	// copy [_First, _Last) to raw _Dest, using _Al, arbitrary type

  00000	55		 push	 ebp
  00001	8b ec		 mov	 ebp, esp

; 370  : 	_DEBUG_RANGE(_First, _Last);
; 371  : 	_DEBUG_POINTER(_Dest);
; 372  : 	_FwdIt _Next = _Dest;
; 373  : 
; 374  : 	_TRY_BEGIN
; 375  : 	for (; _First != _Last; ++_Dest, ++_First)

  00003	eb 19		 jmp	 SHORT $LN35@Uninit_cop
$LL14@Uninit_cop:

; 376  : 		_Cons_val(_Al, _Dest, *_First);

  00005	ff 75 08	 push	 DWORD PTR __First$[ebp]
  00008	ff 75 10	 push	 DWORD PTR __Dest$[ebp]
  0000b	ff 75 14	 push	 DWORD PTR __Al$[ebp]
  0000e	e8 00 00 00 00	 call	 ??$_Cons_val@V?$allocator@UForceInfo@@@std@@UForceInfo@@ABU3@@std@@YAXAAV?$allocator@UForceInfo@@@0@PAUForceInfo@@ABU2@@Z ; std::_Cons_val<std::allocator<ForceInfo>,ForceInfo,ForceInfo const &>
  00013	83 45 10 0c	 add	 DWORD PTR __Dest$[ebp], 12 ; 0000000cH
  00017	83 c4 0c	 add	 esp, 12			; 0000000cH
  0001a	83 45 08 0c	 add	 DWORD PTR __First$[ebp], 12 ; 0000000cH
$LN35@Uninit_cop:

; 370  : 	_DEBUG_RANGE(_First, _Last);
; 371  : 	_DEBUG_POINTER(_Dest);
; 372  : 	_FwdIt _Next = _Dest;
; 373  : 
; 374  : 	_TRY_BEGIN
; 375  : 	for (; _First != _Last; ++_Dest, ++_First)

  0001e	8b 45 08	 mov	 eax, DWORD PTR __First$[ebp]
  00021	3b 45 0c	 cmp	 eax, DWORD PTR __Last$[ebp]
  00024	75 df		 jne	 SHORT $LL14@Uninit_cop

; 377  : 	_CATCH_ALL
; 378  : 	for (; _Next != _Dest; ++_Next)
; 379  : 		_Dest_val(_Al, _Next);
; 380  : 	_RERAISE;
; 381  : 	_CATCH_END
; 382  : 	return (_Dest);

  00026	8b 45 10	 mov	 eax, DWORD PTR __Dest$[ebp]

; 383  : 	}

  00029	5d		 pop	 ebp
  0002a	c3		 ret	 0
??$_Uninit_copy@V?$_Vector_const_iterator@V?$_Vector_val@UForceInfo@@V?$allocator@UForceInfo@@@std@@@std@@@std@@PAUForceInfo@@V?$allocator@UForceInfo@@@2@@std@@YAPAUForceInfo@@V?$_Vector_const_iterator@V?$_Vector_val@UForceInfo@@V?$allocator@UForceInfo@@@std@@@std@@@0@0PAU1@AAV?$allocator@UForceInfo@@@0@U_Nonscalar_ptr_iterator_tag@0@@Z ENDP ; std::_Uninit_copy<std::_Vector_const_iterator<std::_Vector_val<ForceInfo,std::allocator<ForceInfo> > >,ForceInfo *,std::allocator<ForceInfo> >
_TEXT	ENDS
PUBLIC	??$_Cons_val@V?$allocator@UWeaponInfo@@@std@@UWeaponInfo@@ABU3@@std@@YAXAAV?$allocator@UWeaponInfo@@@0@PAUWeaponInfo@@ABU2@@Z ; std::_Cons_val<std::allocator<WeaponInfo>,WeaponInfo,WeaponInfo const &>
; Function compile flags: /Ogsp
; File c:\program files (x86)\microsoft visual studio 10.0\vc\include\xmemory
;	COMDAT ??$_Cons_val@V?$allocator@UWeaponInfo@@@std@@UWeaponInfo@@ABU3@@std@@YAXAAV?$allocator@UWeaponInfo@@@0@PAUWeaponInfo@@ABU2@@Z
_TEXT	SEGMENT
__Alval$ = 8						; size = 4
__Pdest$ = 12						; size = 4
__Src$ = 16						; size = 4
??$_Cons_val@V?$allocator@UWeaponInfo@@@std@@UWeaponInfo@@ABU3@@std@@YAXAAV?$allocator@UWeaponInfo@@@0@PAUWeaponInfo@@ABU2@@Z PROC ; std::_Cons_val<std::allocator<WeaponInfo>,WeaponInfo,WeaponInfo const &>, COMDAT

; 279  : 	{	// construct using allocator

  00000	55		 push	 ebp
  00001	8b ec		 mov	 ebp, esp

; 280  : 	_Alval.construct(_Pdest, _STD forward<_Ty2>(_Src));

  00003	ff 75 10	 push	 DWORD PTR __Src$[ebp]
  00006	ff 75 0c	 push	 DWORD PTR __Pdest$[ebp]
  00009	e8 00 00 00 00	 call	 ??$_Construct@UWeaponInfo@@ABU1@@std@@YAXPAUWeaponInfo@@ABU1@@Z ; std::_Construct<WeaponInfo,WeaponInfo const &>
  0000e	59		 pop	 ecx
  0000f	59		 pop	 ecx

; 281  : 	}

  00010	5d		 pop	 ebp
  00011	c3		 ret	 0
??$_Cons_val@V?$allocator@UWeaponInfo@@@std@@UWeaponInfo@@ABU3@@std@@YAXAAV?$allocator@UWeaponInfo@@@0@PAUWeaponInfo@@ABU2@@Z ENDP ; std::_Cons_val<std::allocator<WeaponInfo>,WeaponInfo,WeaponInfo const &>
_TEXT	ENDS
PUBLIC	??$_Destroy_range@V?$allocator@UForceInfo@@@std@@@std@@YAXPAUForceInfo@@0AAV?$allocator@UForceInfo@@@0@U_Nonscalar_ptr_iterator_tag@0@@Z ; std::_Destroy_range<std::allocator<ForceInfo> >
; Function compile flags: /Ogsp
;	COMDAT ??$_Destroy_range@V?$allocator@UForceInfo@@@std@@@std@@YAXPAUForceInfo@@0AAV?$allocator@UForceInfo@@@0@U_Nonscalar_ptr_iterator_tag@0@@Z
_TEXT	SEGMENT
__First$ = 8						; size = 4
__Last$ = 12						; size = 4
__Al$ = 16						; size = 4
___formal$ = 20						; size = 1
??$_Destroy_range@V?$allocator@UForceInfo@@@std@@@std@@YAXPAUForceInfo@@0AAV?$allocator@UForceInfo@@@0@U_Nonscalar_ptr_iterator_tag@0@@Z PROC ; std::_Destroy_range<std::allocator<ForceInfo> >, COMDAT

; 96   : 	for (; _First != _Last; ++_First)
; 97   : 		_Dest_val(_Al, _First);
; 98   : 	}

  00000	c3		 ret	 0
??$_Destroy_range@V?$allocator@UForceInfo@@@std@@@std@@YAXPAUForceInfo@@0AAV?$allocator@UForceInfo@@@0@U_Nonscalar_ptr_iterator_tag@0@@Z ENDP ; std::_Destroy_range<std::allocator<ForceInfo> >
_TEXT	ENDS
PUBLIC	??$_Dest_val@V?$allocator@UWeaponInfo@@@std@@UWeaponInfo@@@std@@YAXAAV?$allocator@UWeaponInfo@@@0@PAUWeaponInfo@@@Z ; std::_Dest_val<std::allocator<WeaponInfo>,WeaponInfo>
; Function compile flags: /Ogsp
;	COMDAT ??$_Dest_val@V?$allocator@UWeaponInfo@@@std@@UWeaponInfo@@@std@@YAXAAV?$allocator@UWeaponInfo@@@0@PAUWeaponInfo@@@Z
_TEXT	SEGMENT
__Alval$ = 8						; size = 4
__Pdest$ = 12						; size = 4
??$_Dest_val@V?$allocator@UWeaponInfo@@@std@@UWeaponInfo@@@std@@YAXAAV?$allocator@UWeaponInfo@@@0@PAUWeaponInfo@@@Z PROC ; std::_Dest_val<std::allocator<WeaponInfo>,WeaponInfo>, COMDAT

; 286  : 	{	// destroy using allocator

  00000	55		 push	 ebp
  00001	8b ec		 mov	 ebp, esp

; 287  : 	_Alval.destroy(_Pdest);

  00003	8b 4d 0c	 mov	 ecx, DWORD PTR __Pdest$[ebp]
  00006	83 c1 08	 add	 ecx, 8

; 288  : 	}

  00009	5d		 pop	 ebp

; 287  : 	_Alval.destroy(_Pdest);

  0000a	ff 25 00 00 00
	00		 jmp	 DWORD PTR __imp_??1ioHashString@@QAE@XZ
??$_Dest_val@V?$allocator@UWeaponInfo@@@std@@UWeaponInfo@@@std@@YAXAAV?$allocator@UWeaponInfo@@@0@PAUWeaponInfo@@@Z ENDP ; std::_Dest_val<std::allocator<WeaponInfo>,WeaponInfo>
_TEXT	ENDS
PUBLIC	__$ArrayPad$
PUBLIC	?SetLoopState@ioWhirlwndAttack@@IAEXPAVioBaseChar@@PAVioPlayStage@@@Z ; ioWhirlwndAttack::SetLoopState
; Function compile flags: /Ogsp
; File d:\lost saga for developer\youtube\tutorial\source\src\lsclient\iowhirlwndattack.cpp
;	COMDAT ?SetLoopState@ioWhirlwndAttack@@IAEXPAVioBaseChar@@PAVioPlayStage@@@Z
_TEXT	SEGMENT
tv236 = -20						; size = 4
_iAniID$ = -20						; size = 4
$T548392 = -16						; size = 12
__$ArrayPad$ = -4					; size = 4
_pChar$ = 8						; size = 4
_pStage$ = 12						; size = 4
?SetLoopState@ioWhirlwndAttack@@IAEXPAVioBaseChar@@PAVioPlayStage@@@Z PROC ; ioWhirlwndAttack::SetLoopState, COMDAT
; _this$ = ecx

; 235  : {

  00000	55		 push	 ebp
  00001	8b ec		 mov	 ebp, esp
  00003	83 ec 14	 sub	 esp, 20			; 00000014H
  00006	a1 00 00 00 00	 mov	 eax, DWORD PTR ___security_cookie
  0000b	33 c5		 xor	 eax, ebp
  0000d	89 45 fc	 mov	 DWORD PTR __$ArrayPad$[ebp], eax
  00010	53		 push	 ebx
  00011	8b 5d 08	 mov	 ebx, DWORD PTR _pChar$[ebp]
  00014	57		 push	 edi
  00015	8b f9		 mov	 edi, ecx

; 236  : 	m_SkillState		= SS_LOOP;

  00017	c7 87 e4 10 00
	00 01 00 00 00	 mov	 DWORD PTR [edi+4324], 1

; 237  : 	m_dwLoopStartTime	= FRAMEGETTIME();

  00021	ff 15 00 00 00
	00		 call	 DWORD PTR __imp_?GetSingleton@ioFrameTimer@@SAAAV1@XZ
  00027	8b c8		 mov	 ecx, eax
  00029	ff 15 00 00 00
	00		 call	 DWORD PTR __imp_?GetLoopSec@ioFrameTimer@@QBEKXZ

; 238  : 
; 239  : 	if( m_szLoopAnimation.IsEmpty() || !pChar )

  0002f	8d 8f ec 10 00
	00		 lea	 ecx, DWORD PTR [edi+4332]
  00035	89 87 00 11 00
	00		 mov	 DWORD PTR [edi+4352], eax
  0003b	ff 15 00 00 00
	00		 call	 DWORD PTR __imp_?IsEmpty@ioHashString@@QBE_NXZ
  00041	84 c0		 test	 al, al
  00043	0f 85 0c 01 00
	00		 jne	 $LN3@SetLoopSta
  00049	85 db		 test	 ebx, ebx
  0004b	0f 84 04 01 00
	00		 je	 $LN3@SetLoopSta

; 240  : 	{
; 241  : 		return;
; 242  : 	}
; 243  : 
; 244  : 	ioEntityGroup *pGrp = pChar->GetGroup();

  00051	56		 push	 esi
  00052	8b 73 04	 mov	 esi, DWORD PTR [ebx+4]

; 245  : 	if( !pGrp )

  00055	85 f6		 test	 esi, esi
  00057	0f 84 f7 00 00
	00		 je	 $LN9@SetLoopSta

; 246  : 		return;
; 247  : 
; 248  : 	int iAniID = pGrp->GetAnimationIdx( m_szLoopAnimation );

  0005d	8d 87 ec 10 00
	00		 lea	 eax, DWORD PTR [edi+4332]
  00063	50		 push	 eax
  00064	8b ce		 mov	 ecx, esi
  00066	ff 15 00 00 00
	00		 call	 DWORD PTR __imp_?GetAnimationIdx@ioEntityGroup@@QAEHABVioHashString@@@Z
  0006c	89 45 ec	 mov	 DWORD PTR _iAniID$[ebp], eax

; 249  : 	if( iAniID == -1 )

  0006f	83 f8 ff	 cmp	 eax, -1
  00072	0f 84 dc 00 00
	00		 je	 $LN9@SetLoopSta

; 250  : 		return;
; 251  : 
; 252  : 	pGrp->ClearAllLoopAni( 100.0f, true );

  00078	f3 0f 10 05 00
	00 00 00	 movss	 xmm0, DWORD PTR __real@42c80000
  00080	6a 01		 push	 1
  00082	51		 push	 ecx
  00083	8b ce		 mov	 ecx, esi
  00085	f3 0f 11 04 24	 movss	 DWORD PTR [esp], xmm0
  0008a	ff 15 00 00 00
	00		 call	 DWORD PTR __imp_?ClearAllLoopAni@ioEntityGroup@@QAEXM_N@Z

; 253  : 	pGrp->ClearAllActionAni( 100.0f, true );

  00090	f3 0f 10 05 00
	00 00 00	 movss	 xmm0, DWORD PTR __real@42c80000
  00098	6a 01		 push	 1
  0009a	51		 push	 ecx
  0009b	8b ce		 mov	 ecx, esi
  0009d	f3 0f 11 04 24	 movss	 DWORD PTR [esp], xmm0
  000a2	ff 15 00 00 00
	00		 call	 DWORD PTR __imp_?ClearAllActionAni@ioEntityGroup@@QAEXM_N@Z

; 254  : 	pGrp->SetLoopAni( iAniID, 10.0f, 1.0f, 1.0f/m_fLoopAniRate );

  000a8	0f 57 c0	 xorps	 xmm0, xmm0
  000ab	f2 0f 10 0d 00
	00 00 00	 movsd	 xmm1, QWORD PTR __real@3ff0000000000000
  000b3	83 ec 10	 sub	 esp, 16			; 00000010H
  000b6	f3 0f 11 44 24
	0c		 movss	 DWORD PTR [esp+12], xmm0
  000bc	f3 0f 10 87 fc
	10 00 00	 movss	 xmm0, DWORD PTR [edi+4348]
  000c4	0f 5a c0	 cvtps2pd xmm0, xmm0
  000c7	f2 0f 5e c8	 divsd	 xmm1, xmm0
  000cb	8b ce		 mov	 ecx, esi
  000cd	66 0f 5a c1	 cvtpd2ps xmm0, xmm1
  000d1	f3 0f 11 44 24
	08		 movss	 DWORD PTR [esp+8], xmm0
  000d7	f3 0f 10 05 00
	00 00 00	 movss	 xmm0, DWORD PTR __real@3f800000
  000df	f3 0f 11 44 24
	04		 movss	 DWORD PTR [esp+4], xmm0
  000e5	f3 0f 10 05 00
	00 00 00	 movss	 xmm0, DWORD PTR __real@41200000
  000ed	f3 0f 11 04 24	 movss	 DWORD PTR [esp], xmm0
  000f2	ff 75 ec	 push	 DWORD PTR _iAniID$[ebp]
  000f5	ff 15 00 00 00
	00		 call	 DWORD PTR __imp_?SetLoopAni@ioEntityGroup@@QAE_NHMMMM@Z

; 255  : 		
; 256  : 	pChar->CreateMagicCircle( m_szOnCircle, m_szOnCircle, GetMagicGuide( pChar ), m_fCircleOffSet );

  000fb	f3 0f 10 87 14
	11 00 00	 movss	 xmm0, DWORD PTR [edi+4372]
  00103	8b 83 cc 01 00
	00		 mov	 eax, DWORD PTR [ebx+460]
  00109	51		 push	 ecx
  0010a	f3 0f 11 04 24	 movss	 DWORD PTR [esp], xmm0
  0010f	53		 push	 ebx
  00110	8b cf		 mov	 ecx, edi
  00112	89 45 ec	 mov	 DWORD PTR tv236[ebp], eax
  00115	e8 00 00 00 00	 call	 ?GetMagicGuide@ioWhirlwndAttack@@IAEABVioHashString@@PAVioBaseChar@@@Z ; ioWhirlwndAttack::GetMagicGuide
  0011a	50		 push	 eax
  0011b	8d 87 28 11 00
	00		 lea	 eax, DWORD PTR [edi+4392]
  00121	50		 push	 eax
  00122	50		 push	 eax
  00123	8b 45 ec	 mov	 eax, DWORD PTR tv236[ebp]
  00126	8d 8b cc 01 00
	00		 lea	 ecx, DWORD PTR [ebx+460]
  0012c	ff 50 04	 call	 DWORD PTR [eax+4]

; 257  : 	m_vCircleStartPos = pChar->GetMagicCirclePos();

  0012f	0f 57 c0	 xorps	 xmm0, xmm0
  00132	6a 00		 push	 0
  00134	51		 push	 ecx
  00135	8d 45 f0	 lea	 eax, DWORD PTR $T548392[ebp]
  00138	f3 0f 11 04 24	 movss	 DWORD PTR [esp], xmm0
  0013d	50		 push	 eax
  0013e	8d 8b cc 01 00
	00		 lea	 ecx, DWORD PTR [ebx+460]
  00144	e8 00 00 00 00	 call	 ?GetMagicCirclePos@ioBaseGUISupport@@QBE?AUD3DXVECTOR3@@M_N@Z ; ioBaseGUISupport::GetMagicCirclePos
  00149	81 c7 1c 11 00
	00		 add	 edi, 4380		; 0000111cH
  0014f	8b f0		 mov	 esi, eax
  00151	a5		 movsd
  00152	a5		 movsd
  00153	a5		 movsd
$LN9@SetLoopSta:
  00154	5e		 pop	 esi
$LN3@SetLoopSta:

; 258  : }

  00155	8b 4d fc	 mov	 ecx, DWORD PTR __$ArrayPad$[ebp]
  00158	5f		 pop	 edi
  00159	33 cd		 xor	 ecx, ebp
  0015b	5b		 pop	 ebx
  0015c	e8 00 00 00 00	 call	 @__security_check_cookie@4
  00161	c9		 leave
  00162	c2 08 00	 ret	 8
?SetLoopState@ioWhirlwndAttack@@IAEXPAVioBaseChar@@PAVioPlayStage@@@Z ENDP ; ioWhirlwndAttack::SetLoopState
_TEXT	ENDS
PUBLIC	_pStage$GSCopy$
PUBLIC	__$ArrayPad$
PUBLIC	?CheckLoopState@ioWhirlwndAttack@@IAEXPAVioBaseChar@@PAVioPlayStage@@@Z ; ioWhirlwndAttack::CheckLoopState
EXTRN	?SetTargetRotToTargetPos@ioBaseChar@@QAEXABUD3DXVECTOR3@@_N1@Z:PROC ; ioBaseChar::SetTargetRotToTargetPos
EXTRN	?UpdateMagicCirclePosAll@ioBaseGUISupport@@QAEXMMMM_N@Z:PROC ; ioBaseGUISupport::UpdateMagicCirclePosAll
EXTRN	?CheckChangeDirectionForMagicCircle@ioBaseGUISupport@@QAE_NXZ:PROC ; ioBaseGUISupport::CheckChangeDirectionForMagicCircle
; Function compile flags: /Ogsp
;	COMDAT ?CheckLoopState@ioWhirlwndAttack@@IAEXPAVioBaseChar@@PAVioPlayStage@@@Z
_TEXT	SEGMENT
_pStage$GSCopy$ = -20					; size = 4
_vTargetPos$ = -16					; size = 12
__$ArrayPad$ = -4					; size = 4
_pChar$ = 8						; size = 4
_pStage$ = 12						; size = 4
?CheckLoopState@ioWhirlwndAttack@@IAEXPAVioBaseChar@@PAVioPlayStage@@@Z PROC ; ioWhirlwndAttack::CheckLoopState, COMDAT
; _this$ = ecx

; 283  : {

  00000	55		 push	 ebp
  00001	8b ec		 mov	 ebp, esp
  00003	83 ec 14	 sub	 esp, 20			; 00000014H
  00006	a1 00 00 00 00	 mov	 eax, DWORD PTR ___security_cookie
  0000b	33 c5		 xor	 eax, ebp
  0000d	89 45 fc	 mov	 DWORD PTR __$ArrayPad$[ebp], eax
  00010	8b 45 0c	 mov	 eax, DWORD PTR _pStage$[ebp]
  00013	53		 push	 ebx
  00014	56		 push	 esi
  00015	57		 push	 edi
  00016	8b 7d 08	 mov	 edi, DWORD PTR _pChar$[ebp]

; 284  : 	CheckCircle( pChar, pStage );

  00019	50		 push	 eax
  0001a	57		 push	 edi
  0001b	8b f1		 mov	 esi, ecx
  0001d	89 45 ec	 mov	 DWORD PTR _pStage$GSCopy$[ebp], eax
  00020	e8 00 00 00 00	 call	 ?CheckCircle@ioWhirlwndAttack@@IAEXPAVioBaseChar@@PAVioPlayStage@@@Z ; ioWhirlwndAttack::CheckCircle

; 285  : 
; 286  : 	// 향 변화 체크
; 287  : 	pChar->CheckChangeDirectionForMagicCircle();

  00025	8d 8f cc 01 00
	00		 lea	 ecx, DWORD PTR [edi+460]
  0002b	e8 00 00 00 00	 call	 ?CheckChangeDirectionForMagicCircle@ioBaseGUISupport@@QAE_NXZ ; ioBaseGUISupport::CheckChangeDirectionForMagicCircle

; 288  : 		
; 289  : 	pChar->UpdateMagicCirclePosAll( m_fCircleMoveSpeed, m_fCircleRange, m_fCircleOffSet, m_fCircleHeightGap, false );

  00030	f3 0f 10 86 10
	11 00 00	 movss	 xmm0, DWORD PTR [esi+4368]
  00038	6a 00		 push	 0
  0003a	83 ec 10	 sub	 esp, 16			; 00000010H
  0003d	f3 0f 11 44 24
	0c		 movss	 DWORD PTR [esp+12], xmm0
  00043	f3 0f 10 86 14
	11 00 00	 movss	 xmm0, DWORD PTR [esi+4372]
  0004b	f3 0f 11 44 24
	08		 movss	 DWORD PTR [esp+8], xmm0
  00051	f3 0f 10 86 08
	11 00 00	 movss	 xmm0, DWORD PTR [esi+4360]
  00059	f3 0f 11 44 24
	04		 movss	 DWORD PTR [esp+4], xmm0
  0005f	f3 0f 10 86 0c
	11 00 00	 movss	 xmm0, DWORD PTR [esi+4364]
  00067	8d 8f cc 01 00
	00		 lea	 ecx, DWORD PTR [edi+460]
  0006d	f3 0f 11 04 24	 movss	 DWORD PTR [esp], xmm0
  00072	e8 00 00 00 00	 call	 ?UpdateMagicCirclePosAll@ioBaseGUISupport@@QAEXMMMM_N@Z ; ioBaseGUISupport::UpdateMagicCirclePosAll

; 290  : 		
; 291  : 	D3DXVECTOR3 vTargetPos = pChar->GetMagicCirclePos();

  00077	0f 57 c0	 xorps	 xmm0, xmm0
  0007a	6a 00		 push	 0
  0007c	51		 push	 ecx
  0007d	8d 45 f0	 lea	 eax, DWORD PTR _vTargetPos$[ebp]
  00080	f3 0f 11 04 24	 movss	 DWORD PTR [esp], xmm0
  00085	50		 push	 eax
  00086	8d 8f cc 01 00
	00		 lea	 ecx, DWORD PTR [edi+460]
  0008c	e8 00 00 00 00	 call	 ?GetMagicCirclePos@ioBaseGUISupport@@QBE?AUD3DXVECTOR3@@M_N@Z ; ioBaseGUISupport::GetMagicCirclePos

; 292  : 	pChar->SetTargetRotToTargetPos( vTargetPos, true, false );

  00091	6a 00		 push	 0
  00093	6a 01		 push	 1
  00095	8d 45 f0	 lea	 eax, DWORD PTR _vTargetPos$[ebp]
  00098	50		 push	 eax
  00099	8b cf		 mov	 ecx, edi
  0009b	e8 00 00 00 00	 call	 ?SetTargetRotToTargetPos@ioBaseChar@@QAEXABUD3DXVECTOR3@@_N1@Z ; ioBaseChar::SetTargetRotToTargetPos

; 293  : 	
; 294  : 	if( pChar->IsNeedProcess() )

  000a0	8b 07		 mov	 eax, DWORD PTR [edi]
  000a2	8b cf		 mov	 ecx, edi
  000a4	ff 90 00 01 00
	00		 call	 DWORD PTR [eax+256]
  000aa	84 c0		 test	 al, al
  000ac	74 5e		 je	 SHORT $LN1@CheckLoopS

; 295  : 	{
; 296  : 		if( 0 < m_dwLoopStartTime && m_dwLoopStartTime + m_dwLoopDuration < FRAMEGETTIME() )

  000ae	83 be 00 11 00
	00 00		 cmp	 DWORD PTR [esi+4352], 0
  000b5	76 34		 jbe	 SHORT $LN5@CheckLoopS
  000b7	ff 15 00 00 00
	00		 call	 DWORD PTR __imp_?GetSingleton@ioFrameTimer@@SAAAV1@XZ
  000bd	8b c8		 mov	 ecx, eax
  000bf	ff 15 00 00 00
	00		 call	 DWORD PTR __imp_?GetLoopSec@ioFrameTimer@@QBEKXZ
  000c5	8b 8e 04 11 00
	00		 mov	 ecx, DWORD PTR [esi+4356]
  000cb	03 8e 00 11 00
	00		 add	 ecx, DWORD PTR [esi+4352]
  000d1	3b c8		 cmp	 ecx, eax
  000d3	73 16		 jae	 SHORT $LN5@CheckLoopS

; 297  : 		{
; 298  : 			if( m_bCircleOn )

  000d5	80 be 18 11 00
	00 00		 cmp	 BYTE PTR [esi+4376], 0

; 299  : 			{
; 300  : 				SetLoopEndAttackState( pChar, pStage );

  000dc	8b ce		 mov	 ecx, esi

; 301  : 			}
; 302  : 			else

  000de	75 21		 jne	 SHORT $LN9@CheckLoopS

; 303  : 			{
; 304  : 				SetEnd( pChar, pStage );

  000e0	ff 75 ec	 push	 DWORD PTR _pStage$GSCopy$[ebp]
  000e3	57		 push	 edi
  000e4	e8 00 00 00 00	 call	 ?SetEnd@ioWhirlwndAttack@@IAEXPAVioBaseChar@@PAVioPlayStage@@@Z ; ioWhirlwndAttack::SetEnd

; 305  : 			}

  000e9	eb 21		 jmp	 SHORT $LN1@CheckLoopS
$LN5@CheckLoopS:

; 306  : 		}
; 307  : 		else if( pChar->IsAttackKey() && m_bCircleOn )

  000eb	8b cf		 mov	 ecx, edi
  000ed	e8 00 00 00 00	 call	 ?IsAttackKey@ioBaseChar@@QBE_NXZ ; ioBaseChar::IsAttackKey
  000f2	84 c0		 test	 al, al
  000f4	74 16		 je	 SHORT $LN1@CheckLoopS
  000f6	80 be 18 11 00
	00 00		 cmp	 BYTE PTR [esi+4376], 0
  000fd	74 0d		 je	 SHORT $LN1@CheckLoopS

; 308  : 		{
; 309  : 			SetLoopEndAttackState( pChar, pStage );

  000ff	8b ce		 mov	 ecx, esi
$LN9@CheckLoopS:
  00101	6a 01		 push	 1
  00103	ff 75 ec	 push	 DWORD PTR _pStage$GSCopy$[ebp]
  00106	57		 push	 edi
  00107	e8 00 00 00 00	 call	 ?SetLoopEndAttackState@ioWhirlwndAttack@@IAEXPAVioBaseChar@@PAVioPlayStage@@_N@Z ; ioWhirlwndAttack::SetLoopEndAttackState
$LN1@CheckLoopS:

; 310  : 		}
; 311  : 	}
; 312  : }

  0010c	8b 4d fc	 mov	 ecx, DWORD PTR __$ArrayPad$[ebp]
  0010f	5f		 pop	 edi
  00110	5e		 pop	 esi
  00111	33 cd		 xor	 ecx, ebp
  00113	5b		 pop	 ebx
  00114	e8 00 00 00 00	 call	 @__security_check_cookie@4
  00119	c9		 leave
  0011a	c2 08 00	 ret	 8
?CheckLoopState@ioWhirlwndAttack@@IAEXPAVioBaseChar@@PAVioPlayStage@@@Z ENDP ; ioWhirlwndAttack::CheckLoopState
_TEXT	ENDS
PUBLIC	??$_Uninitialized_copy@V?$_Vector_const_iterator@V?$_Vector_val@UForceInfo@@V?$allocator@UForceInfo@@@std@@@std@@@std@@PAUForceInfo@@V?$allocator@UForceInfo@@@2@@std@@YAPAUForceInfo@@V?$_Vector_const_iterator@V?$_Vector_val@UForceInfo@@V?$allocator@UForceInfo@@@std@@@std@@@0@0PAU1@AAV?$allocator@UForceInfo@@@0@@Z ; std::_Uninitialized_copy<std::_Vector_const_iterator<std::_Vector_val<ForceInfo,std::allocator<ForceInfo> > >,ForceInfo *,std::allocator<ForceInfo> >
; Function compile flags: /Ogsp
; File c:\program files (x86)\microsoft visual studio 10.0\vc\include\memory
;	COMDAT ??$_Uninitialized_copy@V?$_Vector_const_iterator@V?$_Vector_val@UForceInfo@@V?$allocator@UForceInfo@@@std@@@std@@@std@@PAUForceInfo@@V?$allocator@UForceInfo@@@2@@std@@YAPAUForceInfo@@V?$_Vector_const_iterator@V?$_Vector_val@UForceInfo@@V?$allocator@UForceInfo@@@std@@@std@@@0@0PAU1@AAV?$allocator@UForceInfo@@@0@@Z
_TEXT	SEGMENT
__Cat$557497 = -4					; size = 1
__First$ = 8						; size = 4
__Last$ = 12						; size = 4
__Dest$ = 16						; size = 4
__Al$ = 20						; size = 4
??$_Uninitialized_copy@V?$_Vector_const_iterator@V?$_Vector_val@UForceInfo@@V?$allocator@UForceInfo@@@std@@@std@@@std@@PAUForceInfo@@V?$allocator@UForceInfo@@@2@@std@@YAPAUForceInfo@@V?$_Vector_const_iterator@V?$_Vector_val@UForceInfo@@V?$allocator@UForceInfo@@@std@@@std@@@0@0PAU1@AAV?$allocator@UForceInfo@@@0@@Z PROC ; std::_Uninitialized_copy<std::_Vector_const_iterator<std::_Vector_val<ForceInfo,std::allocator<ForceInfo> > >,ForceInfo *,std::allocator<ForceInfo> >, COMDAT

; 412  : 	{	// copy [_First, _Last) to raw _Dest, using _Al

  00000	55		 push	 ebp
  00001	8b ec		 mov	 ebp, esp
  00003	51		 push	 ecx

; 413  : 	return (_Uninit_copy(_First, _Last, _Dest, _Al,
; 414  : 		_Ptr_cat(_First, _Dest)));

  00004	ff 75 fc	 push	 DWORD PTR __Cat$557497[ebp]
  00007	ff 75 14	 push	 DWORD PTR __Al$[ebp]
  0000a	ff 75 10	 push	 DWORD PTR __Dest$[ebp]
  0000d	ff 75 0c	 push	 DWORD PTR __Last$[ebp]
  00010	ff 75 08	 push	 DWORD PTR __First$[ebp]
  00013	e8 00 00 00 00	 call	 ??$_Uninit_copy@V?$_Vector_const_iterator@V?$_Vector_val@UForceInfo@@V?$allocator@UForceInfo@@@std@@@std@@@std@@PAUForceInfo@@V?$allocator@UForceInfo@@@2@@std@@YAPAUForceInfo@@V?$_Vector_const_iterator@V?$_Vector_val@UForceInfo@@V?$allocator@UForceInfo@@@std@@@std@@@0@0PAU1@AAV?$allocator@UForceInfo@@@0@U_Nonscalar_ptr_iterator_tag@0@@Z ; std::_Uninit_copy<std::_Vector_const_iterator<std::_Vector_val<ForceInfo,std::allocator<ForceInfo> > >,ForceInfo *,std::allocator<ForceInfo> >
  00018	83 c4 14	 add	 esp, 20			; 00000014H

; 415  : 	}

  0001b	c9		 leave
  0001c	c3		 ret	 0
??$_Uninitialized_copy@V?$_Vector_const_iterator@V?$_Vector_val@UForceInfo@@V?$allocator@UForceInfo@@@std@@@std@@@std@@PAUForceInfo@@V?$allocator@UForceInfo@@@2@@std@@YAPAUForceInfo@@V?$_Vector_const_iterator@V?$_Vector_val@UForceInfo@@V?$allocator@UForceInfo@@@std@@@std@@@0@0PAU1@AAV?$allocator@UForceInfo@@@0@@Z ENDP ; std::_Uninitialized_copy<std::_Vector_const_iterator<std::_Vector_val<ForceInfo,std::allocator<ForceInfo> > >,ForceInfo *,std::allocator<ForceInfo> >
_TEXT	ENDS
PUBLIC	??$_Uninit_copy@V?$_Vector_const_iterator@V?$_Vector_val@UWeaponInfo@@V?$allocator@UWeaponInfo@@@std@@@std@@@std@@PAUWeaponInfo@@V?$allocator@UWeaponInfo@@@2@@std@@YAPAUWeaponInfo@@V?$_Vector_const_iterator@V?$_Vector_val@UWeaponInfo@@V?$allocator@UWeaponInfo@@@std@@@std@@@0@0PAU1@AAV?$allocator@UWeaponInfo@@@0@U_Nonscalar_ptr_iterator_tag@0@@Z ; std::_Uninit_copy<std::_Vector_const_iterator<std::_Vector_val<WeaponInfo,std::allocator<WeaponInfo> > >,WeaponInfo *,std::allocator<WeaponInfo> >
EXTRN	__EH_prolog3_catch:PROC
;	COMDAT xdata$x
; File d:\lost saga for developer\youtube\tutorial\source\src\lsclient\playentityhelpstruct.h
xdata$x	SEGMENT
__catchsym$??$_Uninit_copy@V?$_Vector_const_iterator@V?$_Vector_val@UWeaponInfo@@V?$allocator@UWeaponInfo@@@std@@@std@@@std@@PAUWeaponInfo@@V?$allocator@UWeaponInfo@@@2@@std@@YAPAUWeaponInfo@@V?$_Vector_const_iterator@V?$_Vector_val@UWeaponInfo@@V?$allocator@UWeaponInfo@@@std@@@std@@@0@0PAU1@AAV?$allocator@UWeaponInfo@@@0@U_Nonscalar_ptr_iterator_tag@0@@Z$3 DD 040H
	DD	00H
	DD	00H
	DD	FLAT:__catch$??$_Uninit_copy@V?$_Vector_const_iterator@V?$_Vector_val@UWeaponInfo@@V?$allocator@UWeaponInfo@@@std@@@std@@@std@@PAUWeaponInfo@@V?$allocator@UWeaponInfo@@@2@@std@@YAPAUWeaponInfo@@V?$_Vector_const_iterator@V?$_Vector_val@UWeaponInfo@@V?$allocator@UWeaponInfo@@@std@@@std@@@0@0PAU1@AAV?$allocator@UWeaponInfo@@@0@U_Nonscalar_ptr_iterator_tag@0@@Z$0
__unwindtable$??$_Uninit_copy@V?$_Vector_const_iterator@V?$_Vector_val@UWeaponInfo@@V?$allocator@UWeaponInfo@@@std@@@std@@@std@@PAUWeaponInfo@@V?$allocator@UWeaponInfo@@@2@@std@@YAPAUWeaponInfo@@V?$_Vector_const_iterator@V?$_Vector_val@UWeaponInfo@@V?$allocator@UWeaponInfo@@@std@@@std@@@0@0PAU1@AAV?$allocator@UWeaponInfo@@@0@U_Nonscalar_ptr_iterator_tag@0@@Z DD 0ffffffffH
	DD	00H
	DD	0ffffffffH
	DD	00H
__tryblocktable$??$_Uninit_copy@V?$_Vector_const_iterator@V?$_Vector_val@UWeaponInfo@@V?$allocator@UWeaponInfo@@@std@@@std@@@std@@PAUWeaponInfo@@V?$allocator@UWeaponInfo@@@2@@std@@YAPAUWeaponInfo@@V?$_Vector_const_iterator@V?$_Vector_val@UWeaponInfo@@V?$allocator@UWeaponInfo@@@std@@@std@@@0@0PAU1@AAV?$allocator@UWeaponInfo@@@0@U_Nonscalar_ptr_iterator_tag@0@@Z DD 00H
	DD	00H
	DD	01H
	DD	01H
	DD	FLAT:__catchsym$??$_Uninit_copy@V?$_Vector_const_iterator@V?$_Vector_val@UWeaponInfo@@V?$allocator@UWeaponInfo@@@std@@@std@@@std@@PAUWeaponInfo@@V?$allocator@UWeaponInfo@@@2@@std@@YAPAUWeaponInfo@@V?$_Vector_const_iterator@V?$_Vector_val@UWeaponInfo@@V?$allocator@UWeaponInfo@@@std@@@std@@@0@0PAU1@AAV?$allocator@UWeaponInfo@@@0@U_Nonscalar_ptr_iterator_tag@0@@Z$3
__ehfuncinfo$??$_Uninit_copy@V?$_Vector_const_iterator@V?$_Vector_val@UWeaponInfo@@V?$allocator@UWeaponInfo@@@std@@@std@@@std@@PAUWeaponInfo@@V?$allocator@UWeaponInfo@@@2@@std@@YAPAUWeaponInfo@@V?$_Vector_const_iterator@V?$_Vector_val@UWeaponInfo@@V?$allocator@UWeaponInfo@@@std@@@std@@@0@0PAU1@AAV?$allocator@UWeaponInfo@@@0@U_Nonscalar_ptr_iterator_tag@0@@Z DD 019930522H
	DD	02H
	DD	FLAT:__unwindtable$??$_Uninit_copy@V?$_Vector_const_iterator@V?$_Vector_val@UWeaponInfo@@V?$allocator@UWeaponInfo@@@std@@@std@@@std@@PAUWeaponInfo@@V?$allocator@UWeaponInfo@@@2@@std@@YAPAUWeaponInfo@@V?$_Vector_const_iterator@V?$_Vector_val@UWeaponInfo@@V?$allocator@UWeaponInfo@@@std@@@std@@@0@0PAU1@AAV?$allocator@UWeaponInfo@@@0@U_Nonscalar_ptr_iterator_tag@0@@Z
	DD	01H
	DD	FLAT:__tryblocktable$??$_Uninit_copy@V?$_Vector_const_iterator@V?$_Vector_val@UWeaponInfo@@V?$allocator@UWeaponInfo@@@std@@@std@@@std@@PAUWeaponInfo@@V?$allocator@UWeaponInfo@@@2@@std@@YAPAUWeaponInfo@@V?$_Vector_const_iterator@V?$_Vector_val@UWeaponInfo@@V?$allocator@UWeaponInfo@@@std@@@std@@@0@0PAU1@AAV?$allocator@UWeaponInfo@@@0@U_Nonscalar_ptr_iterator_tag@0@@Z
	DD	2 DUP(00H)
	DD	00H
	DD	01H
; Function compile flags: /Ogsp
; File c:\program files (x86)\microsoft visual studio 10.0\vc\include\memory
xdata$x	ENDS
;	COMDAT ??$_Uninit_copy@V?$_Vector_const_iterator@V?$_Vector_val@UWeaponInfo@@V?$allocator@UWeaponInfo@@@std@@@std@@@std@@PAUWeaponInfo@@V?$allocator@UWeaponInfo@@@2@@std@@YAPAUWeaponInfo@@V?$_Vector_const_iterator@V?$_Vector_val@UWeaponInfo@@V?$allocator@UWeaponInfo@@@std@@@std@@@0@0PAU1@AAV?$allocator@UWeaponInfo@@@0@U_Nonscalar_ptr_iterator_tag@0@@Z
_TEXT	SEGMENT
__Next$ = -20						; size = 4
__$EHRec$ = -16						; size = 16
__First$ = 8						; size = 4
__Last$ = 12						; size = 4
__Dest$ = 16						; size = 4
__Al$ = 20						; size = 4
___formal$ = 24						; size = 1
??$_Uninit_copy@V?$_Vector_const_iterator@V?$_Vector_val@UWeaponInfo@@V?$allocator@UWeaponInfo@@@std@@@std@@@std@@PAUWeaponInfo@@V?$allocator@UWeaponInfo@@@2@@std@@YAPAUWeaponInfo@@V?$_Vector_const_iterator@V?$_Vector_val@UWeaponInfo@@V?$allocator@UWeaponInfo@@@std@@@std@@@0@0PAU1@AAV?$allocator@UWeaponInfo@@@0@U_Nonscalar_ptr_iterator_tag@0@@Z PROC ; std::_Uninit_copy<std::_Vector_const_iterator<std::_Vector_val<WeaponInfo,std::allocator<WeaponInfo> > >,WeaponInfo *,std::allocator<WeaponInfo> >, COMDAT

; 369  : 	{	// copy [_First, _Last) to raw _Dest, using _Al, arbitrary type

  00000	6a 08		 push	 8
  00002	b8 00 00 00 00	 mov	 eax, __ehhandler$??$_Uninit_copy@V?$_Vector_const_iterator@V?$_Vector_val@UWeaponInfo@@V?$allocator@UWeaponInfo@@@std@@@std@@@std@@PAUWeaponInfo@@V?$allocator@UWeaponInfo@@@2@@std@@YAPAUWeaponInfo@@V?$_Vector_const_iterator@V?$_Vector_val@UWeaponInfo@@V?$allocator@UWeaponInfo@@@std@@@std@@@0@0PAU1@AAV?$allocator@UWeaponInfo@@@0@U_Nonscalar_ptr_iterator_tag@0@@Z
  00007	e8 00 00 00 00	 call	 __EH_prolog3_catch

; 370  : 	_DEBUG_RANGE(_First, _Last);
; 371  : 	_DEBUG_POINTER(_Dest);
; 372  : 	_FwdIt _Next = _Dest;

  0000c	8b 45 10	 mov	 eax, DWORD PTR __Dest$[ebp]

; 373  : 
; 374  : 	_TRY_BEGIN

  0000f	83 65 fc 00	 and	 DWORD PTR __$EHRec$[ebp+12], 0
  00013	89 45 ec	 mov	 DWORD PTR __Next$[ebp], eax

; 375  : 	for (; _First != _Last; ++_Dest, ++_First)

$LL14@Uninit_cop@2:
  00016	8b 45 08	 mov	 eax, DWORD PTR __First$[ebp]
  00019	3b 45 0c	 cmp	 eax, DWORD PTR __Last$[ebp]
  0001c	74 34		 je	 SHORT $LN4@Uninit_cop@2

; 376  : 		_Cons_val(_Al, _Dest, *_First);

  0001e	50		 push	 eax
  0001f	ff 75 10	 push	 DWORD PTR __Dest$[ebp]
  00022	e8 00 00 00 00	 call	 ??$_Construct@UWeaponInfo@@ABU1@@std@@YAXPAUWeaponInfo@@ABU1@@Z ; std::_Construct<WeaponInfo,WeaponInfo const &>
  00027	83 45 10 28	 add	 DWORD PTR __Dest$[ebp], 40 ; 00000028H
  0002b	83 45 08 28	 add	 DWORD PTR __First$[ebp], 40 ; 00000028H
  0002f	59		 pop	 ecx
  00030	59		 pop	 ecx
  00031	eb e3		 jmp	 SHORT $LL14@Uninit_cop@2
__catch$??$_Uninit_copy@V?$_Vector_const_iterator@V?$_Vector_val@UWeaponInfo@@V?$allocator@UWeaponInfo@@@std@@@std@@@std@@PAUWeaponInfo@@V?$allocator@UWeaponInfo@@@2@@std@@YAPAUWeaponInfo@@V?$_Vector_const_iterator@V?$_Vector_val@UWeaponInfo@@V?$allocator@UWeaponInfo@@@std@@@std@@@0@0PAU1@AAV?$allocator@UWeaponInfo@@@0@U_Nonscalar_ptr_iterator_tag@0@@Z$0:

; 377  : 	_CATCH_ALL
; 378  : 	for (; _Next != _Dest; ++_Next)

  00033	8b 75 ec	 mov	 esi, DWORD PTR __Next$[ebp]
  00036	eb 0c		 jmp	 SHORT $LN48@Uninit_cop@2
$LL3@Uninit_cop@2:

; 379  : 		_Dest_val(_Al, _Next);

  00038	8d 4e 08	 lea	 ecx, DWORD PTR [esi+8]
  0003b	ff 15 00 00 00
	00		 call	 DWORD PTR __imp_??1ioHashString@@QAE@XZ
  00041	83 c6 28	 add	 esi, 40			; 00000028H
$LN48@Uninit_cop@2:

; 377  : 	_CATCH_ALL
; 378  : 	for (; _Next != _Dest; ++_Next)

  00044	3b 75 10	 cmp	 esi, DWORD PTR __Dest$[ebp]
  00047	75 ef		 jne	 SHORT $LL3@Uninit_cop@2

; 380  : 	_RERAISE;

  00049	6a 00		 push	 0
  0004b	6a 00		 push	 0
  0004d	e8 00 00 00 00	 call	 __CxxThrowException@8
$LN49@Uninit_cop@2:
$LN4@Uninit_cop@2:

; 381  : 	_CATCH_END
; 382  : 	return (_Dest);

  00052	8b 45 10	 mov	 eax, DWORD PTR __Dest$[ebp]

; 383  : 	}

  00055	e8 00 00 00 00	 call	 __EH_epilog3
  0005a	c3		 ret	 0
$LN47@Uninit_cop@2:
_TEXT	ENDS
;	COMDAT text$x
text$x	SEGMENT
__ehhandler$??$_Uninit_copy@V?$_Vector_const_iterator@V?$_Vector_val@UWeaponInfo@@V?$allocator@UWeaponInfo@@@std@@@std@@@std@@PAUWeaponInfo@@V?$allocator@UWeaponInfo@@@2@@std@@YAPAUWeaponInfo@@V?$_Vector_const_iterator@V?$_Vector_val@UWeaponInfo@@V?$allocator@UWeaponInfo@@@std@@@std@@@0@0PAU1@AAV?$allocator@UWeaponInfo@@@0@U_Nonscalar_ptr_iterator_tag@0@@Z:
  00000	8b 54 24 08	 mov	 edx, DWORD PTR [esp+8]
  00004	8d 42 0c	 lea	 eax, DWORD PTR [edx+12]
  00007	8b 4a e8	 mov	 ecx, DWORD PTR [edx-24]
  0000a	33 c8		 xor	 ecx, eax
  0000c	e8 00 00 00 00	 call	 @__security_check_cookie@4
  00011	b8 00 00 00 00	 mov	 eax, OFFSET __ehfuncinfo$??$_Uninit_copy@V?$_Vector_const_iterator@V?$_Vector_val@UWeaponInfo@@V?$allocator@UWeaponInfo@@@std@@@std@@@std@@PAUWeaponInfo@@V?$allocator@UWeaponInfo@@@2@@std@@YAPAUWeaponInfo@@V?$_Vector_const_iterator@V?$_Vector_val@UWeaponInfo@@V?$allocator@UWeaponInfo@@@std@@@std@@@0@0PAU1@AAV?$allocator@UWeaponInfo@@@0@U_Nonscalar_ptr_iterator_tag@0@@Z
  00016	e9 00 00 00 00	 jmp	 ___CxxFrameHandler3
text$x	ENDS
??$_Uninit_copy@V?$_Vector_const_iterator@V?$_Vector_val@UWeaponInfo@@V?$allocator@UWeaponInfo@@@std@@@std@@@std@@PAUWeaponInfo@@V?$allocator@UWeaponInfo@@@2@@std@@YAPAUWeaponInfo@@V?$_Vector_const_iterator@V?$_Vector_val@UWeaponInfo@@V?$allocator@UWeaponInfo@@@std@@@std@@@0@0PAU1@AAV?$allocator@UWeaponInfo@@@0@U_Nonscalar_ptr_iterator_tag@0@@Z ENDP ; std::_Uninit_copy<std::_Vector_const_iterator<std::_Vector_val<WeaponInfo,std::allocator<WeaponInfo> > >,WeaponInfo *,std::allocator<WeaponInfo> >
PUBLIC	??$_Destroy_range@V?$allocator@UForceInfo@@@std@@@std@@YAXPAUForceInfo@@0AAV?$allocator@UForceInfo@@@0@@Z ; std::_Destroy_range<std::allocator<ForceInfo> >
; Function compile flags: /Ogsp
; File c:\program files (x86)\microsoft visual studio 10.0\vc\include\xmemory
;	COMDAT ??$_Destroy_range@V?$allocator@UForceInfo@@@std@@@std@@YAXPAUForceInfo@@0AAV?$allocator@UForceInfo@@@0@@Z
_TEXT	SEGMENT
__First$ = 8						; size = 4
__Last$ = 12						; size = 4
__Al$ = 16						; size = 4
??$_Destroy_range@V?$allocator@UForceInfo@@@std@@@std@@YAXPAUForceInfo@@0AAV?$allocator@UForceInfo@@@0@@Z PROC ; std::_Destroy_range<std::allocator<ForceInfo> >, COMDAT

; 88   : 	_Destroy_range(_First, _Last, _Al, _Ptr_cat(_First, _Last));
; 89   : 	}

  00000	c3		 ret	 0
??$_Destroy_range@V?$allocator@UForceInfo@@@std@@@std@@YAXPAUForceInfo@@0AAV?$allocator@UForceInfo@@@0@@Z ENDP ; std::_Destroy_range<std::allocator<ForceInfo> >
_TEXT	ENDS
PUBLIC	??$_Destroy_range@V?$allocator@UWeaponInfo@@@std@@@std@@YAXPAUWeaponInfo@@0AAV?$allocator@UWeaponInfo@@@0@U_Nonscalar_ptr_iterator_tag@0@@Z ; std::_Destroy_range<std::allocator<WeaponInfo> >
; Function compile flags: /Ogsp
;	COMDAT ??$_Destroy_range@V?$allocator@UWeaponInfo@@@std@@@std@@YAXPAUWeaponInfo@@0AAV?$allocator@UWeaponInfo@@@0@U_Nonscalar_ptr_iterator_tag@0@@Z
_TEXT	SEGMENT
__First$ = 8						; size = 4
__Last$ = 12						; size = 4
__Al$ = 16						; size = 4
___formal$ = 20						; size = 1
??$_Destroy_range@V?$allocator@UWeaponInfo@@@std@@@std@@YAXPAUWeaponInfo@@0AAV?$allocator@UWeaponInfo@@@0@U_Nonscalar_ptr_iterator_tag@0@@Z PROC ; std::_Destroy_range<std::allocator<WeaponInfo> >, COMDAT

; 95   : 	{	// destroy [_First, _Last), arbitrary type

  00000	55		 push	 ebp
  00001	8b ec		 mov	 ebp, esp
  00003	56		 push	 esi

; 96   : 	for (; _First != _Last; ++_First)

  00004	8b 75 08	 mov	 esi, DWORD PTR __First$[ebp]
  00007	eb 0c		 jmp	 SHORT $LN20@Destroy_ra
$LL3@Destroy_ra:

; 97   : 		_Dest_val(_Al, _First);

  00009	8d 4e 08	 lea	 ecx, DWORD PTR [esi+8]
  0000c	ff 15 00 00 00
	00		 call	 DWORD PTR __imp_??1ioHashString@@QAE@XZ
  00012	83 c6 28	 add	 esi, 40			; 00000028H
$LN20@Destroy_ra:

; 96   : 	for (; _First != _Last; ++_First)

  00015	3b 75 0c	 cmp	 esi, DWORD PTR __Last$[ebp]
  00018	75 ef		 jne	 SHORT $LL3@Destroy_ra
  0001a	5e		 pop	 esi

; 98   : 	}

  0001b	5d		 pop	 ebp
  0001c	c3		 ret	 0
??$_Destroy_range@V?$allocator@UWeaponInfo@@@std@@@std@@YAXPAUWeaponInfo@@0AAV?$allocator@UWeaponInfo@@@0@U_Nonscalar_ptr_iterator_tag@0@@Z ENDP ; std::_Destroy_range<std::allocator<WeaponInfo> >
_TEXT	ENDS
PUBLIC	?CheckPreState@ioWhirlwndAttack@@IAEXPAVioBaseChar@@PAVioPlayStage@@@Z ; ioWhirlwndAttack::CheckPreState
; Function compile flags: /Ogsp
; File d:\lost saga for developer\youtube\tutorial\source\src\lsclient\iowhirlwndattack.cpp
;	COMDAT ?CheckPreState@ioWhirlwndAttack@@IAEXPAVioBaseChar@@PAVioPlayStage@@@Z
_TEXT	SEGMENT
_pChar$ = 8						; size = 4
_pStage$ = 12						; size = 4
?CheckPreState@ioWhirlwndAttack@@IAEXPAVioBaseChar@@PAVioPlayStage@@@Z PROC ; ioWhirlwndAttack::CheckPreState, COMDAT
; _this$ = ecx

; 222  : {

  00000	55		 push	 ebp
  00001	8b ec		 mov	 ebp, esp
  00003	56		 push	 esi
  00004	57		 push	 edi
  00005	8b f1		 mov	 esi, ecx

; 223  : 	DWORD dwCurTime = FRAMEGETTIME();

  00007	ff 15 00 00 00
	00		 call	 DWORD PTR __imp_?GetSingleton@ioFrameTimer@@SAAAV1@XZ
  0000d	8b c8		 mov	 ecx, eax
  0000f	ff 15 00 00 00
	00		 call	 DWORD PTR __imp_?GetLoopSec@ioFrameTimer@@QBEKXZ
  00015	8b f8		 mov	 edi, eax

; 224  : 	DWORD dwPreDelay = GetPreDelayTime();

  00017	8b 06		 mov	 eax, DWORD PTR [esi]
  00019	8b ce		 mov	 ecx, esi
  0001b	ff 90 34 01 00
	00		 call	 DWORD PTR [eax+308]

; 225  : 
; 226  : 	if( m_dwPreDelayStartTime + dwPreDelay < dwCurTime )

  00021	8b 96 20 02 00
	00		 mov	 edx, DWORD PTR [esi+544]
  00027	03 d0		 add	 edx, eax
  00029	3b d7		 cmp	 edx, edi
  0002b	73 21		 jae	 SHORT $LN1@CheckPreSt

; 227  : 	{
; 228  : 		m_dwPreDelayStartTime = 0;
; 229  : 		EndPreDelayEffect( pChar );

  0002d	ff 75 08	 push	 DWORD PTR _pChar$[ebp]
  00030	8b 06		 mov	 eax, DWORD PTR [esi]
  00032	83 a6 20 02 00
	00 00		 and	 DWORD PTR [esi+544], 0
  00039	8b ce		 mov	 ecx, esi
  0003b	ff 90 dc 00 00
	00		 call	 DWORD PTR [eax+220]

; 230  : 		SetLoopState( pChar, pStage );

  00041	ff 75 0c	 push	 DWORD PTR _pStage$[ebp]
  00044	8b ce		 mov	 ecx, esi
  00046	ff 75 08	 push	 DWORD PTR _pChar$[ebp]
  00049	e8 00 00 00 00	 call	 ?SetLoopState@ioWhirlwndAttack@@IAEXPAVioBaseChar@@PAVioPlayStage@@@Z ; ioWhirlwndAttack::SetLoopState
$LN1@CheckPreSt:
  0004e	5f		 pop	 edi
  0004f	5e		 pop	 esi

; 231  : 	}
; 232  : }

  00050	5d		 pop	 ebp
  00051	c2 08 00	 ret	 8
?CheckPreState@ioWhirlwndAttack@@IAEXPAVioBaseChar@@PAVioPlayStage@@@Z ENDP ; ioWhirlwndAttack::CheckPreState
_TEXT	ENDS
PUBLIC	??$_Ucopy@V?$_Vector_const_iterator@V?$_Vector_val@UForceInfo@@V?$allocator@UForceInfo@@@std@@@std@@@std@@@?$vector@UForceInfo@@V?$allocator@UForceInfo@@@std@@@std@@IAEPAUForceInfo@@V?$_Vector_const_iterator@V?$_Vector_val@UForceInfo@@V?$allocator@UForceInfo@@@std@@@std@@@1@0PAU2@@Z ; std::vector<ForceInfo,std::allocator<ForceInfo> >::_Ucopy<std::_Vector_const_iterator<std::_Vector_val<ForceInfo,std::allocator<ForceInfo> > > >
; Function compile flags: /Ogsp
; File c:\program files (x86)\microsoft visual studio 10.0\vc\include\vector
;	COMDAT ??$_Ucopy@V?$_Vector_const_iterator@V?$_Vector_val@UForceInfo@@V?$allocator@UForceInfo@@@std@@@std@@@std@@@?$vector@UForceInfo@@V?$allocator@UForceInfo@@@std@@@std@@IAEPAUForceInfo@@V?$_Vector_const_iterator@V?$_Vector_val@UForceInfo@@V?$allocator@UForceInfo@@@std@@@std@@@1@0PAU2@@Z
_TEXT	SEGMENT
__First$ = 8						; size = 4
__Last$ = 12						; size = 4
__Cat$557692 = 16					; size = 1
__Ptr$ = 16						; size = 4
??$_Ucopy@V?$_Vector_const_iterator@V?$_Vector_val@UForceInfo@@V?$allocator@UForceInfo@@@std@@@std@@@std@@@?$vector@UForceInfo@@V?$allocator@UForceInfo@@@std@@@std@@IAEPAUForceInfo@@V?$_Vector_const_iterator@V?$_Vector_val@UForceInfo@@V?$allocator@UForceInfo@@@std@@@std@@@1@0PAU2@@Z PROC ; std::vector<ForceInfo,std::allocator<ForceInfo> >::_Ucopy<std::_Vector_const_iterator<std::_Vector_val<ForceInfo,std::allocator<ForceInfo> > > >, COMDAT
; _this$ = ecx

; 1315 : 		pointer _Ucopy(_Iter _First, _Iter _Last, pointer _Ptr)

  00000	55		 push	 ebp
  00001	8b ec		 mov	 ebp, esp

; 1316 : 		{	// copy initializing [_First, _Last), using allocator
; 1317 : 		return (_Uninitialized_copy(_First, _Last,
; 1318 : 			_Ptr, this->_Alval));

  00003	ff 75 10	 push	 DWORD PTR __Cat$557692[ebp]
  00006	83 c1 0c	 add	 ecx, 12			; 0000000cH
  00009	51		 push	 ecx
  0000a	ff 75 10	 push	 DWORD PTR __Ptr$[ebp]
  0000d	ff 75 0c	 push	 DWORD PTR __Last$[ebp]
  00010	ff 75 08	 push	 DWORD PTR __First$[ebp]
  00013	e8 00 00 00 00	 call	 ??$_Uninit_copy@V?$_Vector_const_iterator@V?$_Vector_val@UForceInfo@@V?$allocator@UForceInfo@@@std@@@std@@@std@@PAUForceInfo@@V?$allocator@UForceInfo@@@2@@std@@YAPAUForceInfo@@V?$_Vector_const_iterator@V?$_Vector_val@UForceInfo@@V?$allocator@UForceInfo@@@std@@@std@@@0@0PAU1@AAV?$allocator@UForceInfo@@@0@U_Nonscalar_ptr_iterator_tag@0@@Z ; std::_Uninit_copy<std::_Vector_const_iterator<std::_Vector_val<ForceInfo,std::allocator<ForceInfo> > >,ForceInfo *,std::allocator<ForceInfo> >
  00018	83 c4 14	 add	 esp, 20			; 00000014H

; 1319 : 		}

  0001b	5d		 pop	 ebp
  0001c	c2 0c 00	 ret	 12			; 0000000cH
??$_Ucopy@V?$_Vector_const_iterator@V?$_Vector_val@UForceInfo@@V?$allocator@UForceInfo@@@std@@@std@@@std@@@?$vector@UForceInfo@@V?$allocator@UForceInfo@@@std@@@std@@IAEPAUForceInfo@@V?$_Vector_const_iterator@V?$_Vector_val@UForceInfo@@V?$allocator@UForceInfo@@@std@@@std@@@1@0PAU2@@Z ENDP ; std::vector<ForceInfo,std::allocator<ForceInfo> >::_Ucopy<std::_Vector_const_iterator<std::_Vector_val<ForceInfo,std::allocator<ForceInfo> > > >
_TEXT	ENDS
PUBLIC	??$_Uninitialized_copy@V?$_Vector_const_iterator@V?$_Vector_val@UWeaponInfo@@V?$allocator@UWeaponInfo@@@std@@@std@@@std@@PAUWeaponInfo@@V?$allocator@UWeaponInfo@@@2@@std@@YAPAUWeaponInfo@@V?$_Vector_const_iterator@V?$_Vector_val@UWeaponInfo@@V?$allocator@UWeaponInfo@@@std@@@std@@@0@0PAU1@AAV?$allocator@UWeaponInfo@@@0@@Z ; std::_Uninitialized_copy<std::_Vector_const_iterator<std::_Vector_val<WeaponInfo,std::allocator<WeaponInfo> > >,WeaponInfo *,std::allocator<WeaponInfo> >
; Function compile flags: /Ogsp
; File c:\program files (x86)\microsoft visual studio 10.0\vc\include\memory
;	COMDAT ??$_Uninitialized_copy@V?$_Vector_const_iterator@V?$_Vector_val@UWeaponInfo@@V?$allocator@UWeaponInfo@@@std@@@std@@@std@@PAUWeaponInfo@@V?$allocator@UWeaponInfo@@@2@@std@@YAPAUWeaponInfo@@V?$_Vector_const_iterator@V?$_Vector_val@UWeaponInfo@@V?$allocator@UWeaponInfo@@@std@@@std@@@0@0PAU1@AAV?$allocator@UWeaponInfo@@@0@@Z
_TEXT	SEGMENT
__Cat$557702 = -4					; size = 1
__First$ = 8						; size = 4
__Last$ = 12						; size = 4
__Dest$ = 16						; size = 4
__Al$ = 20						; size = 4
??$_Uninitialized_copy@V?$_Vector_const_iterator@V?$_Vector_val@UWeaponInfo@@V?$allocator@UWeaponInfo@@@std@@@std@@@std@@PAUWeaponInfo@@V?$allocator@UWeaponInfo@@@2@@std@@YAPAUWeaponInfo@@V?$_Vector_const_iterator@V?$_Vector_val@UWeaponInfo@@V?$allocator@UWeaponInfo@@@std@@@std@@@0@0PAU1@AAV?$allocator@UWeaponInfo@@@0@@Z PROC ; std::_Uninitialized_copy<std::_Vector_const_iterator<std::_Vector_val<WeaponInfo,std::allocator<WeaponInfo> > >,WeaponInfo *,std::allocator<WeaponInfo> >, COMDAT

; 412  : 	{	// copy [_First, _Last) to raw _Dest, using _Al

  00000	55		 push	 ebp
  00001	8b ec		 mov	 ebp, esp
  00003	51		 push	 ecx

; 413  : 	return (_Uninit_copy(_First, _Last, _Dest, _Al,
; 414  : 		_Ptr_cat(_First, _Dest)));

  00004	ff 75 fc	 push	 DWORD PTR __Cat$557702[ebp]
  00007	ff 75 14	 push	 DWORD PTR __Al$[ebp]
  0000a	ff 75 10	 push	 DWORD PTR __Dest$[ebp]
  0000d	ff 75 0c	 push	 DWORD PTR __Last$[ebp]
  00010	ff 75 08	 push	 DWORD PTR __First$[ebp]
  00013	e8 00 00 00 00	 call	 ??$_Uninit_copy@V?$_Vector_const_iterator@V?$_Vector_val@UWeaponInfo@@V?$allocator@UWeaponInfo@@@std@@@std@@@std@@PAUWeaponInfo@@V?$allocator@UWeaponInfo@@@2@@std@@YAPAUWeaponInfo@@V?$_Vector_const_iterator@V?$_Vector_val@UWeaponInfo@@V?$allocator@UWeaponInfo@@@std@@@std@@@0@0PAU1@AAV?$allocator@UWeaponInfo@@@0@U_Nonscalar_ptr_iterator_tag@0@@Z ; std::_Uninit_copy<std::_Vector_const_iterator<std::_Vector_val<WeaponInfo,std::allocator<WeaponInfo> > >,WeaponInfo *,std::allocator<WeaponInfo> >
  00018	83 c4 14	 add	 esp, 20			; 00000014H

; 415  : 	}

  0001b	c9		 leave
  0001c	c3		 ret	 0
??$_Uninitialized_copy@V?$_Vector_const_iterator@V?$_Vector_val@UWeaponInfo@@V?$allocator@UWeaponInfo@@@std@@@std@@@std@@PAUWeaponInfo@@V?$allocator@UWeaponInfo@@@2@@std@@YAPAUWeaponInfo@@V?$_Vector_const_iterator@V?$_Vector_val@UWeaponInfo@@V?$allocator@UWeaponInfo@@@std@@@std@@@0@0PAU1@AAV?$allocator@UWeaponInfo@@@0@@Z ENDP ; std::_Uninitialized_copy<std::_Vector_const_iterator<std::_Vector_val<WeaponInfo,std::allocator<WeaponInfo> > >,WeaponInfo *,std::allocator<WeaponInfo> >
_TEXT	ENDS
PUBLIC	?_Destroy@?$vector@UForceInfo@@V?$allocator@UForceInfo@@@std@@@std@@IAEXPAUForceInfo@@0@Z ; std::vector<ForceInfo,std::allocator<ForceInfo> >::_Destroy
; Function compile flags: /Ogsp
; File c:\program files (x86)\microsoft visual studio 10.0\vc\include\vector
;	COMDAT ?_Destroy@?$vector@UForceInfo@@V?$allocator@UForceInfo@@@std@@@std@@IAEXPAUForceInfo@@0@Z
_TEXT	SEGMENT
__First$ = 8						; size = 4
__Last$ = 12						; size = 4
?_Destroy@?$vector@UForceInfo@@V?$allocator@UForceInfo@@@std@@@std@@IAEXPAUForceInfo@@0@Z PROC ; std::vector<ForceInfo,std::allocator<ForceInfo> >::_Destroy, COMDAT
; _this$ = ecx

; 1270 : 		_Destroy_range(_First, _Last, this->_Alval);
; 1271 : 		}

  00000	c2 08 00	 ret	 8
?_Destroy@?$vector@UForceInfo@@V?$allocator@UForceInfo@@@std@@@std@@IAEXPAUForceInfo@@0@Z ENDP ; std::vector<ForceInfo,std::allocator<ForceInfo> >::_Destroy
_TEXT	ENDS
PUBLIC	??$_Destroy_range@V?$allocator@UWeaponInfo@@@std@@@std@@YAXPAUWeaponInfo@@0AAV?$allocator@UWeaponInfo@@@0@@Z ; std::_Destroy_range<std::allocator<WeaponInfo> >
; Function compile flags: /Ogsp
; File c:\program files (x86)\microsoft visual studio 10.0\vc\include\xmemory
;	COMDAT ??$_Destroy_range@V?$allocator@UWeaponInfo@@@std@@@std@@YAXPAUWeaponInfo@@0AAV?$allocator@UWeaponInfo@@@0@@Z
_TEXT	SEGMENT
__First$ = 8						; size = 4
__Last$ = 12						; size = 4
__Al$ = 16						; size = 4
??$_Destroy_range@V?$allocator@UWeaponInfo@@@std@@@std@@YAXPAUWeaponInfo@@0AAV?$allocator@UWeaponInfo@@@0@@Z PROC ; std::_Destroy_range<std::allocator<WeaponInfo> >, COMDAT

; 87   : 	{	// destroy [_First, _Last)

  00000	55		 push	 ebp
  00001	8b ec		 mov	 ebp, esp
  00003	56		 push	 esi

; 88   : 	_Destroy_range(_First, _Last, _Al, _Ptr_cat(_First, _Last));

  00004	8b 75 08	 mov	 esi, DWORD PTR __First$[ebp]
  00007	eb 0c		 jmp	 SHORT $LN24@Destroy_ra@2
$LL7@Destroy_ra@2:
  00009	8d 4e 08	 lea	 ecx, DWORD PTR [esi+8]
  0000c	ff 15 00 00 00
	00		 call	 DWORD PTR __imp_??1ioHashString@@QAE@XZ
  00012	83 c6 28	 add	 esi, 40			; 00000028H
$LN24@Destroy_ra@2:
  00015	3b 75 0c	 cmp	 esi, DWORD PTR __Last$[ebp]
  00018	75 ef		 jne	 SHORT $LL7@Destroy_ra@2
  0001a	5e		 pop	 esi

; 89   : 	}

  0001b	5d		 pop	 ebp
  0001c	c3		 ret	 0
??$_Destroy_range@V?$allocator@UWeaponInfo@@@std@@@std@@YAXPAUWeaponInfo@@0AAV?$allocator@UWeaponInfo@@@0@@Z ENDP ; std::_Destroy_range<std::allocator<WeaponInfo> >
_TEXT	ENDS
PUBLIC	?OnProcessState@ioWhirlwndAttack@@UAEXPAVioBaseChar@@PAVioPlayStage@@@Z ; ioWhirlwndAttack::OnProcessState
; Function compile flags: /Ogsp
; File d:\lost saga for developer\youtube\tutorial\source\src\lsclient\iowhirlwndattack.cpp
;	COMDAT ?OnProcessState@ioWhirlwndAttack@@UAEXPAVioBaseChar@@PAVioPlayStage@@@Z
_TEXT	SEGMENT
_pChar$ = 8						; size = 4
_pStage$ = 12						; size = 4
?OnProcessState@ioWhirlwndAttack@@UAEXPAVioBaseChar@@PAVioPlayStage@@@Z PROC ; ioWhirlwndAttack::OnProcessState, COMDAT
; _this$ = ecx

; 165  : {

  00000	55		 push	 ebp
  00001	8b ec		 mov	 ebp, esp
  00003	56		 push	 esi
  00004	8b f1		 mov	 esi, ecx

; 166  : 	switch( m_SkillState )

  00006	8b 86 e4 10 00
	00		 mov	 eax, DWORD PTR [esi+4324]
  0000c	83 f8 08	 cmp	 eax, 8
  0000f	0f 87 87 00 00
	00		 ja	 $LN11@OnProcessS
  00015	ff 24 85 00 00
	00 00		 jmp	 DWORD PTR $LN15@OnProcessS[eax*4]
$LN10@OnProcessS:

; 167  : 	{
; 168  : 	case SS_PRE: 
; 169  : 		{
; 170  : 			CheckPreState( pChar, pStage );

  0001c	ff 75 0c	 push	 DWORD PTR _pStage$[ebp]
  0001f	ff 75 08	 push	 DWORD PTR _pChar$[ebp]
  00022	e8 00 00 00 00	 call	 ?CheckPreState@ioWhirlwndAttack@@IAEXPAVioBaseChar@@PAVioPlayStage@@@Z ; ioWhirlwndAttack::CheckPreState

; 171  : 		}
; 172  : 		break;

  00027	eb 73		 jmp	 SHORT $LN11@OnProcessS
$LN9@OnProcessS:

; 173  : 	case SS_LOOP:
; 174  : 		{
; 175  : 			CheckLoopState( pChar, pStage );

  00029	ff 75 0c	 push	 DWORD PTR _pStage$[ebp]
  0002c	ff 75 08	 push	 DWORD PTR _pChar$[ebp]
  0002f	e8 00 00 00 00	 call	 ?CheckLoopState@ioWhirlwndAttack@@IAEXPAVioBaseChar@@PAVioPlayStage@@@Z ; ioWhirlwndAttack::CheckLoopState

; 176  : 		}
; 177  : 		break;

  00034	eb 66		 jmp	 SHORT $LN11@OnProcessS
$LN8@OnProcessS:

; 178  : 	case SS_LOOP_END_ATTACK:
; 179  : 		{
; 180  : 			CheckLoopEndState( pChar, pStage );

  00036	ff 75 0c	 push	 DWORD PTR _pStage$[ebp]
  00039	ff 75 08	 push	 DWORD PTR _pChar$[ebp]
  0003c	e8 00 00 00 00	 call	 ?CheckLoopEndState@ioWhirlwndAttack@@IAEXPAVioBaseChar@@PAVioPlayStage@@@Z ; ioWhirlwndAttack::CheckLoopEndState

; 181  : 		}
; 182  : 		break;

  00041	eb 59		 jmp	 SHORT $LN11@OnProcessS
$LN7@OnProcessS:

; 183  : 	case SS_FAST_MOVE_PRE:
; 184  : 		{
; 185  : 			CheckMovePreState( pChar, pStage );

  00043	ff 75 0c	 push	 DWORD PTR _pStage$[ebp]
  00046	ff 75 08	 push	 DWORD PTR _pChar$[ebp]
  00049	e8 00 00 00 00	 call	 ?CheckMovePreState@ioWhirlwndAttack@@IAEXPAVioBaseChar@@PAVioPlayStage@@@Z ; ioWhirlwndAttack::CheckMovePreState

; 186  : 		}
; 187  : 		break;

  0004e	eb 4c		 jmp	 SHORT $LN11@OnProcessS
$LN6@OnProcessS:

; 188  : 	case SS_FAST_MOVE:
; 189  : 		{
; 190  : 			CheckFastMoveState( pChar, pStage );

  00050	ff 75 0c	 push	 DWORD PTR _pStage$[ebp]
  00053	ff 75 08	 push	 DWORD PTR _pChar$[ebp]
  00056	e8 00 00 00 00	 call	 ?CheckFastMoveState@ioWhirlwndAttack@@IAEXPAVioBaseChar@@PAVioPlayStage@@@Z ; ioWhirlwndAttack::CheckFastMoveState

; 191  : 		}
; 192  : 		break;

  0005b	eb 3f		 jmp	 SHORT $LN11@OnProcessS
$LN5@OnProcessS:

; 193  : 	case SS_FAST_MOVE_END:
; 194  : 		{
; 195  : 			CheckFastEndState( pChar, pStage );

  0005d	ff 75 0c	 push	 DWORD PTR _pStage$[ebp]
  00060	ff 75 08	 push	 DWORD PTR _pChar$[ebp]
  00063	e8 00 00 00 00	 call	 ?CheckFastEndState@ioWhirlwndAttack@@IAEXPAVioBaseChar@@PAVioPlayStage@@@Z ; ioWhirlwndAttack::CheckFastEndState

; 196  : 		}
; 197  : 		break;

  00068	eb 32		 jmp	 SHORT $LN11@OnProcessS
$LN4@OnProcessS:

; 198  : 	case SS_WHIRLWND_ATTACK:
; 199  : 		{
; 200  : 			CheckWhirlAttackState( pChar, pStage );

  0006a	ff 75 0c	 push	 DWORD PTR _pStage$[ebp]
  0006d	ff 75 08	 push	 DWORD PTR _pChar$[ebp]
  00070	e8 00 00 00 00	 call	 ?CheckWhirlAttackState@ioWhirlwndAttack@@IAEXPAVioBaseChar@@PAVioPlayStage@@@Z ; ioWhirlwndAttack::CheckWhirlAttackState

; 201  : 			ProcessCharRotate( pChar, pStage );

  00075	ff 75 0c	 push	 DWORD PTR _pStage$[ebp]
  00078	8b ce		 mov	 ecx, esi
  0007a	ff 75 08	 push	 DWORD PTR _pChar$[ebp]
  0007d	e8 00 00 00 00	 call	 ?ProcessCharRotate@ioWhirlwndAttack@@IAEXPAVioBaseChar@@PAVioPlayStage@@@Z ; ioWhirlwndAttack::ProcessCharRotate

; 202  : 		}
; 203  : 		break;

  00082	eb 18		 jmp	 SHORT $LN11@OnProcessS
$LN3@OnProcessS:

; 204  : 	case SS_CHOP:
; 205  : 		{
; 206  : 			CheckChopState( pChar, pStage );

  00084	ff 75 0c	 push	 DWORD PTR _pStage$[ebp]
  00087	ff 75 08	 push	 DWORD PTR _pChar$[ebp]
  0008a	e8 00 00 00 00	 call	 ?CheckChopState@ioWhirlwndAttack@@IAEXPAVioBaseChar@@PAVioPlayStage@@@Z ; ioWhirlwndAttack::CheckChopState

; 207  : 		}
; 208  : 		break;

  0008f	eb 0b		 jmp	 SHORT $LN11@OnProcessS
$LN2@OnProcessS:

; 209  : 	case SS_WALL:
; 210  : 		{
; 211  : 			CheckWallState( pChar, pStage );

  00091	ff 75 0c	 push	 DWORD PTR _pStage$[ebp]
  00094	ff 75 08	 push	 DWORD PTR _pChar$[ebp]
  00097	e8 00 00 00 00	 call	 ?CheckWallState@ioWhirlwndAttack@@IAEXPAVioBaseChar@@PAVioPlayStage@@@Z ; ioWhirlwndAttack::CheckWallState
$LN11@OnProcessS:
  0009c	5e		 pop	 esi

; 212  : 		}
; 213  : 		break;
; 214  : 	case SS_END:
; 215  : 		{
; 216  : 		}
; 217  : 		break;
; 218  : 	}
; 219  : }

  0009d	5d		 pop	 ebp
  0009e	c2 08 00	 ret	 8
  000a1	8d 49 00	 npad	 3
$LN15@OnProcessS:
  000a4	00 00 00 00	 DD	 $LN10@OnProcessS
  000a8	00 00 00 00	 DD	 $LN9@OnProcessS
  000ac	00 00 00 00	 DD	 $LN8@OnProcessS
  000b0	00 00 00 00	 DD	 $LN7@OnProcessS
  000b4	00 00 00 00	 DD	 $LN6@OnProcessS
  000b8	00 00 00 00	 DD	 $LN5@OnProcessS
  000bc	00 00 00 00	 DD	 $LN4@OnProcessS
  000c0	00 00 00 00	 DD	 $LN3@OnProcessS
  000c4	00 00 00 00	 DD	 $LN2@OnProcessS
?OnProcessState@ioWhirlwndAttack@@UAEXPAVioBaseChar@@PAVioPlayStage@@@Z ENDP ; ioWhirlwndAttack::OnProcessState
_TEXT	ENDS
PUBLIC	??$_Ucopy@V?$_Vector_const_iterator@V?$_Vector_val@UWeaponInfo@@V?$allocator@UWeaponInfo@@@std@@@std@@@std@@@?$vector@UWeaponInfo@@V?$allocator@UWeaponInfo@@@std@@@std@@IAEPAUWeaponInfo@@V?$_Vector_const_iterator@V?$_Vector_val@UWeaponInfo@@V?$allocator@UWeaponInfo@@@std@@@std@@@1@0PAU2@@Z ; std::vector<WeaponInfo,std::allocator<WeaponInfo> >::_Ucopy<std::_Vector_const_iterator<std::_Vector_val<WeaponInfo,std::allocator<WeaponInfo> > > >
; Function compile flags: /Ogsp
; File c:\program files (x86)\microsoft visual studio 10.0\vc\include\vector
;	COMDAT ??$_Ucopy@V?$_Vector_const_iterator@V?$_Vector_val@UWeaponInfo@@V?$allocator@UWeaponInfo@@@std@@@std@@@std@@@?$vector@UWeaponInfo@@V?$allocator@UWeaponInfo@@@std@@@std@@IAEPAUWeaponInfo@@V?$_Vector_const_iterator@V?$_Vector_val@UWeaponInfo@@V?$allocator@UWeaponInfo@@@std@@@std@@@1@0PAU2@@Z
_TEXT	SEGMENT
__First$ = 8						; size = 4
__Last$ = 12						; size = 4
__Cat$557842 = 16					; size = 1
__Ptr$ = 16						; size = 4
??$_Ucopy@V?$_Vector_const_iterator@V?$_Vector_val@UWeaponInfo@@V?$allocator@UWeaponInfo@@@std@@@std@@@std@@@?$vector@UWeaponInfo@@V?$allocator@UWeaponInfo@@@std@@@std@@IAEPAUWeaponInfo@@V?$_Vector_const_iterator@V?$_Vector_val@UWeaponInfo@@V?$allocator@UWeaponInfo@@@std@@@std@@@1@0PAU2@@Z PROC ; std::vector<WeaponInfo,std::allocator<WeaponInfo> >::_Ucopy<std::_Vector_const_iterator<std::_Vector_val<WeaponInfo,std::allocator<WeaponInfo> > > >, COMDAT
; _this$ = ecx

; 1315 : 		pointer _Ucopy(_Iter _First, _Iter _Last, pointer _Ptr)

  00000	55		 push	 ebp
  00001	8b ec		 mov	 ebp, esp

; 1316 : 		{	// copy initializing [_First, _Last), using allocator
; 1317 : 		return (_Uninitialized_copy(_First, _Last,
; 1318 : 			_Ptr, this->_Alval));

  00003	ff 75 10	 push	 DWORD PTR __Cat$557842[ebp]
  00006	83 c1 0c	 add	 ecx, 12			; 0000000cH
  00009	51		 push	 ecx
  0000a	ff 75 10	 push	 DWORD PTR __Ptr$[ebp]
  0000d	ff 75 0c	 push	 DWORD PTR __Last$[ebp]
  00010	ff 75 08	 push	 DWORD PTR __First$[ebp]
  00013	e8 00 00 00 00	 call	 ??$_Uninit_copy@V?$_Vector_const_iterator@V?$_Vector_val@UWeaponInfo@@V?$allocator@UWeaponInfo@@@std@@@std@@@std@@PAUWeaponInfo@@V?$allocator@UWeaponInfo@@@2@@std@@YAPAUWeaponInfo@@V?$_Vector_const_iterator@V?$_Vector_val@UWeaponInfo@@V?$allocator@UWeaponInfo@@@std@@@std@@@0@0PAU1@AAV?$allocator@UWeaponInfo@@@0@U_Nonscalar_ptr_iterator_tag@0@@Z ; std::_Uninit_copy<std::_Vector_const_iterator<std::_Vector_val<WeaponInfo,std::allocator<WeaponInfo> > >,WeaponInfo *,std::allocator<WeaponInfo> >
  00018	83 c4 14	 add	 esp, 20			; 00000014H

; 1319 : 		}

  0001b	5d		 pop	 ebp
  0001c	c2 0c 00	 ret	 12			; 0000000cH
??$_Ucopy@V?$_Vector_const_iterator@V?$_Vector_val@UWeaponInfo@@V?$allocator@UWeaponInfo@@@std@@@std@@@std@@@?$vector@UWeaponInfo@@V?$allocator@UWeaponInfo@@@std@@@std@@IAEPAUWeaponInfo@@V?$_Vector_const_iterator@V?$_Vector_val@UWeaponInfo@@V?$allocator@UWeaponInfo@@@std@@@std@@@1@0PAU2@@Z ENDP ; std::vector<WeaponInfo,std::allocator<WeaponInfo> >::_Ucopy<std::_Vector_const_iterator<std::_Vector_val<WeaponInfo,std::allocator<WeaponInfo> > > >
_TEXT	ENDS
PUBLIC	?_Tidy@?$vector@UForceInfo@@V?$allocator@UForceInfo@@@std@@@std@@IAEXXZ ; std::vector<ForceInfo,std::allocator<ForceInfo> >::_Tidy
EXTRN	__imp_?_Orphan_all@_Container_base0@std@@QAEXXZ:PROC
; Function compile flags: /Ogsp
;	COMDAT ?_Tidy@?$vector@UForceInfo@@V?$allocator@UForceInfo@@@std@@@std@@IAEXXZ
_TEXT	SEGMENT
?_Tidy@?$vector@UForceInfo@@V?$allocator@UForceInfo@@@std@@@std@@IAEXXZ PROC ; std::vector<ForceInfo,std::allocator<ForceInfo> >::_Tidy, COMDAT
; _this$ = ecx

; 1301 : 		{	// free all storage

  00000	56		 push	 esi
  00001	8b f1		 mov	 esi, ecx

; 1302 : 		if (this->_Myfirst != 0)

  00003	83 3e 00	 cmp	 DWORD PTR [esi], 0
  00006	74 0e		 je	 SHORT $LN21@Tidy

; 1303 : 			{	// something to free, destroy and deallocate it
; 1304 : 			this->_Orphan_all();

  00008	ff 15 00 00 00
	00		 call	 DWORD PTR __imp_?_Orphan_all@_Container_base0@std@@QAEXXZ

; 1305 : 			_Destroy(this->_Myfirst, this->_Mylast);
; 1306 : 			this->_Alval.deallocate(this->_Myfirst,
; 1307 : 				this->_Myend - this->_Myfirst);

  0000e	ff 36		 push	 DWORD PTR [esi]
  00010	e8 00 00 00 00	 call	 ??3@YAXPAX@Z		; operator delete
  00015	59		 pop	 ecx
$LN21@Tidy:

; 1308 : 			}
; 1309 : 		this->_Myfirst = 0;

  00016	83 26 00	 and	 DWORD PTR [esi], 0

; 1310 : 		this->_Mylast = 0;

  00019	83 66 04 00	 and	 DWORD PTR [esi+4], 0

; 1311 : 		this->_Myend = 0;

  0001d	83 66 08 00	 and	 DWORD PTR [esi+8], 0
  00021	5e		 pop	 esi

; 1312 : 		}

  00022	c3		 ret	 0
?_Tidy@?$vector@UForceInfo@@V?$allocator@UForceInfo@@@std@@@std@@IAEXXZ ENDP ; std::vector<ForceInfo,std::allocator<ForceInfo> >::_Tidy
_TEXT	ENDS
PUBLIC	?_Destroy@?$vector@UWeaponInfo@@V?$allocator@UWeaponInfo@@@std@@@std@@IAEXPAUWeaponInfo@@0@Z ; std::vector<WeaponInfo,std::allocator<WeaponInfo> >::_Destroy
; Function compile flags: /Ogsp
;	COMDAT ?_Destroy@?$vector@UWeaponInfo@@V?$allocator@UWeaponInfo@@@std@@@std@@IAEXPAUWeaponInfo@@0@Z
_TEXT	SEGMENT
__First$ = 8						; size = 4
__Last$ = 12						; size = 4
?_Destroy@?$vector@UWeaponInfo@@V?$allocator@UWeaponInfo@@@std@@@std@@IAEXPAUWeaponInfo@@0@Z PROC ; std::vector<WeaponInfo,std::allocator<WeaponInfo> >::_Destroy, COMDAT
; _this$ = ecx

; 1269 : 		{	// destroy [_First, _Last) using allocator

  00000	55		 push	 ebp
  00001	8b ec		 mov	 ebp, esp

; 1270 : 		_Destroy_range(_First, _Last, this->_Alval);

  00003	83 c1 0c	 add	 ecx, 12			; 0000000cH
  00006	51		 push	 ecx
  00007	ff 75 0c	 push	 DWORD PTR __Last$[ebp]
  0000a	ff 75 08	 push	 DWORD PTR __First$[ebp]
  0000d	e8 00 00 00 00	 call	 ??$_Destroy_range@V?$allocator@UWeaponInfo@@@std@@@std@@YAXPAUWeaponInfo@@0AAV?$allocator@UWeaponInfo@@@0@@Z ; std::_Destroy_range<std::allocator<WeaponInfo> >
  00012	83 c4 0c	 add	 esp, 12			; 0000000cH

; 1271 : 		}

  00015	5d		 pop	 ebp
  00016	c2 08 00	 ret	 8
?_Destroy@?$vector@UWeaponInfo@@V?$allocator@UWeaponInfo@@@std@@@std@@IAEXPAUWeaponInfo@@0@Z ENDP ; std::vector<WeaponInfo,std::allocator<WeaponInfo> >::_Destroy
_TEXT	ENDS
PUBLIC	??0?$vector@UForceInfo@@V?$allocator@UForceInfo@@@std@@@std@@QAE@ABV01@@Z ; std::vector<ForceInfo,std::allocator<ForceInfo> >::vector<ForceInfo,std::allocator<ForceInfo> >
;	COMDAT xdata$x
; File c:\program files (x86)\microsoft visual studio 10.0\vc\include\xutility
xdata$x	SEGMENT
__catchsym$??0?$vector@UForceInfo@@V?$allocator@UForceInfo@@@std@@@std@@QAE@ABV01@@Z$2 DD 040H
	DD	00H
	DD	00H
	DD	FLAT:__catch$??0?$vector@UForceInfo@@V?$allocator@UForceInfo@@@std@@@std@@QAE@ABV01@@Z$0
__unwindtable$??0?$vector@UForceInfo@@V?$allocator@UForceInfo@@@std@@@std@@QAE@ABV01@@Z DD 0ffffffffH
	DD	00H
	DD	0ffffffffH
	DD	00H
__tryblocktable$??0?$vector@UForceInfo@@V?$allocator@UForceInfo@@@std@@@std@@QAE@ABV01@@Z DD 00H
	DD	00H
	DD	01H
	DD	01H
	DD	FLAT:__catchsym$??0?$vector@UForceInfo@@V?$allocator@UForceInfo@@@std@@@std@@QAE@ABV01@@Z$2
__ehfuncinfo$??0?$vector@UForceInfo@@V?$allocator@UForceInfo@@@std@@@std@@QAE@ABV01@@Z DD 019930522H
	DD	02H
	DD	FLAT:__unwindtable$??0?$vector@UForceInfo@@V?$allocator@UForceInfo@@@std@@@std@@QAE@ABV01@@Z
	DD	01H
	DD	FLAT:__tryblocktable$??0?$vector@UForceInfo@@V?$allocator@UForceInfo@@@std@@@std@@QAE@ABV01@@Z
	DD	2 DUP(00H)
	DD	00H
	DD	01H
; Function compile flags: /Ogsp
; File c:\program files (x86)\microsoft visual studio 10.0\vc\include\vector
xdata$x	ENDS
;	COMDAT ??0?$vector@UForceInfo@@V?$allocator@UForceInfo@@@std@@@std@@QAE@ABV01@@Z
_TEXT	SEGMENT
_this$ = -20						; size = 4
__$EHRec$ = -16						; size = 16
__Cat$558008 = 8					; size = 1
__Right$ = 8						; size = 4
??0?$vector@UForceInfo@@V?$allocator@UForceInfo@@@std@@@std@@QAE@ABV01@@Z PROC ; std::vector<ForceInfo,std::allocator<ForceInfo> >::vector<ForceInfo,std::allocator<ForceInfo> >, COMDAT
; _this$ = ecx

; 535  : 		{	// construct by copying _Right

  00000	6a 08		 push	 8
  00002	b8 00 00 00 00	 mov	 eax, __ehhandler$??0?$vector@UForceInfo@@V?$allocator@UForceInfo@@@std@@@std@@QAE@ABV01@@Z
  00007	e8 00 00 00 00	 call	 __EH_prolog3_catch
  0000c	8b f1		 mov	 esi, ecx
  0000e	89 75 ec	 mov	 DWORD PTR _this$[ebp], esi

; 536  : 		if (_Buy(_Right.size()))

  00011	8b 7d 08	 mov	 edi, DWORD PTR __Right$[ebp]
  00014	33 db		 xor	 ebx, ebx
  00016	89 1e		 mov	 DWORD PTR [esi], ebx
  00018	89 5e 04	 mov	 DWORD PTR [esi+4], ebx
  0001b	89 5e 08	 mov	 DWORD PTR [esi+8], ebx
  0001e	8b 47 04	 mov	 eax, DWORD PTR [edi+4]
  00021	2b 07		 sub	 eax, DWORD PTR [edi]
  00023	6a 0c		 push	 12			; 0000000cH
  00025	59		 pop	 ecx
  00026	99		 cdq
  00027	f7 f9		 idiv	 ecx
  00029	8b ce		 mov	 ecx, esi
  0002b	50		 push	 eax
  0002c	e8 00 00 00 00	 call	 ?_Buy@?$vector@UForceInfo@@V?$allocator@UForceInfo@@@std@@@std@@IAE_NI@Z ; std::vector<ForceInfo,std::allocator<ForceInfo> >::_Buy
  00031	84 c0		 test	 al, al
  00033	74 1f		 je	 SHORT $LN7@vector

; 537  : 			_TRY_BEGIN
; 538  : 			this->_Mylast = _Ucopy(_Right.begin(), _Right.end(),
; 539  : 				this->_Myfirst);

  00035	ff 75 08	 push	 DWORD PTR __Cat$558008[ebp]
  00038	8b 0e		 mov	 ecx, DWORD PTR [esi]
  0003a	8b 47 04	 mov	 eax, DWORD PTR [edi+4]
  0003d	8b 3f		 mov	 edi, DWORD PTR [edi]
  0003f	8d 56 0c	 lea	 edx, DWORD PTR [esi+12]
  00042	52		 push	 edx
  00043	51		 push	 ecx
  00044	50		 push	 eax
  00045	57		 push	 edi
  00046	89 5d fc	 mov	 DWORD PTR __$EHRec$[ebp+12], ebx
  00049	e8 00 00 00 00	 call	 ??$_Uninit_copy@V?$_Vector_const_iterator@V?$_Vector_val@UForceInfo@@V?$allocator@UForceInfo@@@std@@@std@@@std@@PAUForceInfo@@V?$allocator@UForceInfo@@@2@@std@@YAPAUForceInfo@@V?$_Vector_const_iterator@V?$_Vector_val@UForceInfo@@V?$allocator@UForceInfo@@@std@@@std@@@0@0PAU1@AAV?$allocator@UForceInfo@@@0@U_Nonscalar_ptr_iterator_tag@0@@Z ; std::_Uninit_copy<std::_Vector_const_iterator<std::_Vector_val<ForceInfo,std::allocator<ForceInfo> > >,ForceInfo *,std::allocator<ForceInfo> >
  0004e	83 c4 14	 add	 esp, 20			; 00000014H
  00051	89 46 04	 mov	 DWORD PTR [esi+4], eax
$LN7@vector:

; 543  : 			_CATCH_END
; 544  : 		}

  00054	8b c6		 mov	 eax, esi
  00056	e8 00 00 00 00	 call	 __EH_epilog3
  0005b	c2 04 00	 ret	 4
__catch$??0?$vector@UForceInfo@@V?$allocator@UForceInfo@@@std@@@std@@QAE@ABV01@@Z$0:

; 540  : 			_CATCH_ALL
; 541  : 			_Tidy();

  0005e	8b 4d ec	 mov	 ecx, DWORD PTR _this$[ebp]
  00061	e8 00 00 00 00	 call	 ?_Tidy@?$vector@UForceInfo@@V?$allocator@UForceInfo@@@std@@@std@@IAEXXZ ; std::vector<ForceInfo,std::allocator<ForceInfo> >::_Tidy

; 542  : 			_RERAISE;

  00066	33 db		 xor	 ebx, ebx
  00068	53		 push	 ebx
  00069	53		 push	 ebx
  0006a	e8 00 00 00 00	 call	 __CxxThrowException@8
$LN38@vector:
$LN37@vector:
  0006f	cc		 int	 3
_TEXT	ENDS
;	COMDAT text$x
text$x	SEGMENT
__ehhandler$??0?$vector@UForceInfo@@V?$allocator@UForceInfo@@@std@@@std@@QAE@ABV01@@Z:
  00000	8b 54 24 08	 mov	 edx, DWORD PTR [esp+8]
  00004	8d 42 0c	 lea	 eax, DWORD PTR [edx+12]
  00007	8b 4a e8	 mov	 ecx, DWORD PTR [edx-24]
  0000a	33 c8		 xor	 ecx, eax
  0000c	e8 00 00 00 00	 call	 @__security_check_cookie@4
  00011	b8 00 00 00 00	 mov	 eax, OFFSET __ehfuncinfo$??0?$vector@UForceInfo@@V?$allocator@UForceInfo@@@std@@@std@@QAE@ABV01@@Z
  00016	e9 00 00 00 00	 jmp	 ___CxxFrameHandler3
text$x	ENDS
??0?$vector@UForceInfo@@V?$allocator@UForceInfo@@@std@@@std@@QAE@ABV01@@Z ENDP ; std::vector<ForceInfo,std::allocator<ForceInfo> >::vector<ForceInfo,std::allocator<ForceInfo> >
PUBLIC	??1?$vector@UForceInfo@@V?$allocator@UForceInfo@@@std@@@std@@QAE@XZ ; std::vector<ForceInfo,std::allocator<ForceInfo> >::~vector<ForceInfo,std::allocator<ForceInfo> >
; Function compile flags: /Ogsp
;	COMDAT ??1?$vector@UForceInfo@@V?$allocator@UForceInfo@@@std@@@std@@QAE@XZ
_TEXT	SEGMENT
??1?$vector@UForceInfo@@V?$allocator@UForceInfo@@@std@@@std@@QAE@XZ PROC ; std::vector<ForceInfo,std::allocator<ForceInfo> >::~vector<ForceInfo,std::allocator<ForceInfo> >, COMDAT
; _this$ = ecx

; 705  : 		_Tidy();

  00000	e9 00 00 00 00	 jmp	 ?_Tidy@?$vector@UForceInfo@@V?$allocator@UForceInfo@@@std@@@std@@IAEXXZ ; std::vector<ForceInfo,std::allocator<ForceInfo> >::_Tidy
??1?$vector@UForceInfo@@V?$allocator@UForceInfo@@@std@@@std@@QAE@XZ ENDP ; std::vector<ForceInfo,std::allocator<ForceInfo> >::~vector<ForceInfo,std::allocator<ForceInfo> >
_TEXT	ENDS
PUBLIC	?_Tidy@?$vector@UWeaponInfo@@V?$allocator@UWeaponInfo@@@std@@@std@@IAEXXZ ; std::vector<WeaponInfo,std::allocator<WeaponInfo> >::_Tidy
; Function compile flags: /Ogsp
;	COMDAT ?_Tidy@?$vector@UWeaponInfo@@V?$allocator@UWeaponInfo@@@std@@@std@@IAEXXZ
_TEXT	SEGMENT
?_Tidy@?$vector@UWeaponInfo@@V?$allocator@UWeaponInfo@@@std@@@std@@IAEXXZ PROC ; std::vector<WeaponInfo,std::allocator<WeaponInfo> >::_Tidy, COMDAT
; _this$ = ecx

; 1301 : 		{	// free all storage

  00000	56		 push	 esi
  00001	8b f1		 mov	 esi, ecx

; 1302 : 		if (this->_Myfirst != 0)

  00003	83 3e 00	 cmp	 DWORD PTR [esi], 0
  00006	74 1e		 je	 SHORT $LN6@Tidy@2

; 1303 : 			{	// something to free, destroy and deallocate it
; 1304 : 			this->_Orphan_all();

  00008	ff 15 00 00 00
	00		 call	 DWORD PTR __imp_?_Orphan_all@_Container_base0@std@@QAEXXZ

; 1305 : 			_Destroy(this->_Myfirst, this->_Mylast);

  0000e	8d 46 0c	 lea	 eax, DWORD PTR [esi+12]
  00011	50		 push	 eax
  00012	ff 76 04	 push	 DWORD PTR [esi+4]
  00015	ff 36		 push	 DWORD PTR [esi]
  00017	e8 00 00 00 00	 call	 ??$_Destroy_range@V?$allocator@UWeaponInfo@@@std@@@std@@YAXPAUWeaponInfo@@0AAV?$allocator@UWeaponInfo@@@0@@Z ; std::_Destroy_range<std::allocator<WeaponInfo> >

; 1306 : 			this->_Alval.deallocate(this->_Myfirst,
; 1307 : 				this->_Myend - this->_Myfirst);

  0001c	ff 36		 push	 DWORD PTR [esi]
  0001e	e8 00 00 00 00	 call	 ??3@YAXPAX@Z		; operator delete
  00023	83 c4 10	 add	 esp, 16			; 00000010H
$LN6@Tidy@2:

; 1308 : 			}
; 1309 : 		this->_Myfirst = 0;

  00026	83 26 00	 and	 DWORD PTR [esi], 0

; 1310 : 		this->_Mylast = 0;

  00029	83 66 04 00	 and	 DWORD PTR [esi+4], 0

; 1311 : 		this->_Myend = 0;

  0002d	83 66 08 00	 and	 DWORD PTR [esi+8], 0
  00031	5e		 pop	 esi

; 1312 : 		}

  00032	c3		 ret	 0
?_Tidy@?$vector@UWeaponInfo@@V?$allocator@UWeaponInfo@@@std@@@std@@IAEXXZ ENDP ; std::vector<WeaponInfo,std::allocator<WeaponInfo> >::_Tidy
_TEXT	ENDS
PUBLIC	??0?$vector@UWeaponInfo@@V?$allocator@UWeaponInfo@@@std@@@std@@QAE@ABV01@@Z ; std::vector<WeaponInfo,std::allocator<WeaponInfo> >::vector<WeaponInfo,std::allocator<WeaponInfo> >
;	COMDAT xdata$x
; File c:\program files (x86)\microsoft visual studio 10.0\vc\include\xutility
xdata$x	SEGMENT
__catchsym$??0?$vector@UWeaponInfo@@V?$allocator@UWeaponInfo@@@std@@@std@@QAE@ABV01@@Z$2 DD 040H
	DD	00H
	DD	00H
	DD	FLAT:__catch$??0?$vector@UWeaponInfo@@V?$allocator@UWeaponInfo@@@std@@@std@@QAE@ABV01@@Z$0
__unwindtable$??0?$vector@UWeaponInfo@@V?$allocator@UWeaponInfo@@@std@@@std@@QAE@ABV01@@Z DD 0ffffffffH
	DD	00H
	DD	0ffffffffH
	DD	00H
__tryblocktable$??0?$vector@UWeaponInfo@@V?$allocator@UWeaponInfo@@@std@@@std@@QAE@ABV01@@Z DD 00H
	DD	00H
	DD	01H
	DD	01H
	DD	FLAT:__catchsym$??0?$vector@UWeaponInfo@@V?$allocator@UWeaponInfo@@@std@@@std@@QAE@ABV01@@Z$2
__ehfuncinfo$??0?$vector@UWeaponInfo@@V?$allocator@UWeaponInfo@@@std@@@std@@QAE@ABV01@@Z DD 019930522H
	DD	02H
	DD	FLAT:__unwindtable$??0?$vector@UWeaponInfo@@V?$allocator@UWeaponInfo@@@std@@@std@@QAE@ABV01@@Z
	DD	01H
	DD	FLAT:__tryblocktable$??0?$vector@UWeaponInfo@@V?$allocator@UWeaponInfo@@@std@@@std@@QAE@ABV01@@Z
	DD	2 DUP(00H)
	DD	00H
	DD	01H
; Function compile flags: /Ogsp
; File c:\program files (x86)\microsoft visual studio 10.0\vc\include\vector
xdata$x	ENDS
;	COMDAT ??0?$vector@UWeaponInfo@@V?$allocator@UWeaponInfo@@@std@@@std@@QAE@ABV01@@Z
_TEXT	SEGMENT
_this$ = -20						; size = 4
__$EHRec$ = -16						; size = 16
__Cat$558123 = 8					; size = 1
__Right$ = 8						; size = 4
??0?$vector@UWeaponInfo@@V?$allocator@UWeaponInfo@@@std@@@std@@QAE@ABV01@@Z PROC ; std::vector<WeaponInfo,std::allocator<WeaponInfo> >::vector<WeaponInfo,std::allocator<WeaponInfo> >, COMDAT
; _this$ = ecx

; 535  : 		{	// construct by copying _Right

  00000	6a 08		 push	 8
  00002	b8 00 00 00 00	 mov	 eax, __ehhandler$??0?$vector@UWeaponInfo@@V?$allocator@UWeaponInfo@@@std@@@std@@QAE@ABV01@@Z
  00007	e8 00 00 00 00	 call	 __EH_prolog3_catch
  0000c	8b f1		 mov	 esi, ecx
  0000e	89 75 ec	 mov	 DWORD PTR _this$[ebp], esi

; 536  : 		if (_Buy(_Right.size()))

  00011	8b 7d 08	 mov	 edi, DWORD PTR __Right$[ebp]
  00014	33 db		 xor	 ebx, ebx
  00016	89 1e		 mov	 DWORD PTR [esi], ebx
  00018	89 5e 04	 mov	 DWORD PTR [esi+4], ebx
  0001b	89 5e 08	 mov	 DWORD PTR [esi+8], ebx
  0001e	8b 47 04	 mov	 eax, DWORD PTR [edi+4]
  00021	2b 07		 sub	 eax, DWORD PTR [edi]
  00023	6a 28		 push	 40			; 00000028H
  00025	59		 pop	 ecx
  00026	99		 cdq
  00027	f7 f9		 idiv	 ecx
  00029	8b ce		 mov	 ecx, esi
  0002b	50		 push	 eax
  0002c	e8 00 00 00 00	 call	 ?_Buy@?$vector@UWeaponInfo@@V?$allocator@UWeaponInfo@@@std@@@std@@IAE_NI@Z ; std::vector<WeaponInfo,std::allocator<WeaponInfo> >::_Buy
  00031	84 c0		 test	 al, al
  00033	74 1f		 je	 SHORT $LN7@vector@2

; 537  : 			_TRY_BEGIN
; 538  : 			this->_Mylast = _Ucopy(_Right.begin(), _Right.end(),
; 539  : 				this->_Myfirst);

  00035	ff 75 08	 push	 DWORD PTR __Cat$558123[ebp]
  00038	8b 0e		 mov	 ecx, DWORD PTR [esi]
  0003a	8b 47 04	 mov	 eax, DWORD PTR [edi+4]
  0003d	8b 3f		 mov	 edi, DWORD PTR [edi]
  0003f	8d 56 0c	 lea	 edx, DWORD PTR [esi+12]
  00042	52		 push	 edx
  00043	51		 push	 ecx
  00044	50		 push	 eax
  00045	57		 push	 edi
  00046	89 5d fc	 mov	 DWORD PTR __$EHRec$[ebp+12], ebx
  00049	e8 00 00 00 00	 call	 ??$_Uninit_copy@V?$_Vector_const_iterator@V?$_Vector_val@UWeaponInfo@@V?$allocator@UWeaponInfo@@@std@@@std@@@std@@PAUWeaponInfo@@V?$allocator@UWeaponInfo@@@2@@std@@YAPAUWeaponInfo@@V?$_Vector_const_iterator@V?$_Vector_val@UWeaponInfo@@V?$allocator@UWeaponInfo@@@std@@@std@@@0@0PAU1@AAV?$allocator@UWeaponInfo@@@0@U_Nonscalar_ptr_iterator_tag@0@@Z ; std::_Uninit_copy<std::_Vector_const_iterator<std::_Vector_val<WeaponInfo,std::allocator<WeaponInfo> > >,WeaponInfo *,std::allocator<WeaponInfo> >
  0004e	83 c4 14	 add	 esp, 20			; 00000014H
  00051	89 46 04	 mov	 DWORD PTR [esi+4], eax
$LN7@vector@2:

; 543  : 			_CATCH_END
; 544  : 		}

  00054	8b c6		 mov	 eax, esi
  00056	e8 00 00 00 00	 call	 __EH_epilog3
  0005b	c2 04 00	 ret	 4
__catch$??0?$vector@UWeaponInfo@@V?$allocator@UWeaponInfo@@@std@@@std@@QAE@ABV01@@Z$0:

; 540  : 			_CATCH_ALL
; 541  : 			_Tidy();

  0005e	8b 4d ec	 mov	 ecx, DWORD PTR _this$[ebp]
  00061	e8 00 00 00 00	 call	 ?_Tidy@?$vector@UWeaponInfo@@V?$allocator@UWeaponInfo@@@std@@@std@@IAEXXZ ; std::vector<WeaponInfo,std::allocator<WeaponInfo> >::_Tidy

; 542  : 			_RERAISE;

  00066	33 db		 xor	 ebx, ebx
  00068	53		 push	 ebx
  00069	53		 push	 ebx
  0006a	e8 00 00 00 00	 call	 __CxxThrowException@8
$LN38@vector@2:
$LN37@vector@2:
  0006f	cc		 int	 3
_TEXT	ENDS
;	COMDAT text$x
text$x	SEGMENT
__ehhandler$??0?$vector@UWeaponInfo@@V?$allocator@UWeaponInfo@@@std@@@std@@QAE@ABV01@@Z:
  00000	8b 54 24 08	 mov	 edx, DWORD PTR [esp+8]
  00004	8d 42 0c	 lea	 eax, DWORD PTR [edx+12]
  00007	8b 4a e8	 mov	 ecx, DWORD PTR [edx-24]
  0000a	33 c8		 xor	 ecx, eax
  0000c	e8 00 00 00 00	 call	 @__security_check_cookie@4
  00011	b8 00 00 00 00	 mov	 eax, OFFSET __ehfuncinfo$??0?$vector@UWeaponInfo@@V?$allocator@UWeaponInfo@@@std@@@std@@QAE@ABV01@@Z
  00016	e9 00 00 00 00	 jmp	 ___CxxFrameHandler3
text$x	ENDS
??0?$vector@UWeaponInfo@@V?$allocator@UWeaponInfo@@@std@@@std@@QAE@ABV01@@Z ENDP ; std::vector<WeaponInfo,std::allocator<WeaponInfo> >::vector<WeaponInfo,std::allocator<WeaponInfo> >
PUBLIC	??1?$vector@UWeaponInfo@@V?$allocator@UWeaponInfo@@@std@@@std@@QAE@XZ ; std::vector<WeaponInfo,std::allocator<WeaponInfo> >::~vector<WeaponInfo,std::allocator<WeaponInfo> >
; Function compile flags: /Ogsp
;	COMDAT ??1?$vector@UWeaponInfo@@V?$allocator@UWeaponInfo@@@std@@@std@@QAE@XZ
_TEXT	SEGMENT
??1?$vector@UWeaponInfo@@V?$allocator@UWeaponInfo@@@std@@@std@@QAE@XZ PROC ; std::vector<WeaponInfo,std::allocator<WeaponInfo> >::~vector<WeaponInfo,std::allocator<WeaponInfo> >, COMDAT
; _this$ = ecx

; 705  : 		_Tidy();

  00000	e9 00 00 00 00	 jmp	 ?_Tidy@?$vector@UWeaponInfo@@V?$allocator@UWeaponInfo@@@std@@@std@@IAEXXZ ; std::vector<WeaponInfo,std::allocator<WeaponInfo> >::_Tidy
??1?$vector@UWeaponInfo@@V?$allocator@UWeaponInfo@@@std@@@std@@QAE@XZ ENDP ; std::vector<WeaponInfo,std::allocator<WeaponInfo> >::~vector<WeaponInfo,std::allocator<WeaponInfo> >
_TEXT	ENDS
PUBLIC	??0AttackAttribute@@QAE@ABU0@@Z			; AttackAttribute::AttackAttribute
;	COMDAT xdata$x
xdata$x	SEGMENT
__unwindtable$??0AttackAttribute@@QAE@ABU0@@Z DD 0ffffffffH
	DD	FLAT:__unwindfunclet$??0AttackAttribute@@QAE@ABU0@@Z$0
	DD	00H
	DD	FLAT:__unwindfunclet$??0AttackAttribute@@QAE@ABU0@@Z$1
	DD	01H
	DD	FLAT:__unwindfunclet$??0AttackAttribute@@QAE@ABU0@@Z$2
__ehfuncinfo$??0AttackAttribute@@QAE@ABU0@@Z DD 019930522H
	DD	03H
	DD	FLAT:__unwindtable$??0AttackAttribute@@QAE@ABU0@@Z
	DD	2 DUP(00H)
	DD	2 DUP(00H)
	DD	00H
	DD	01H
; Function compile flags: /Ogsp
xdata$x	ENDS
;	COMDAT ??0AttackAttribute@@QAE@ABU0@@Z
_TEXT	SEGMENT
_this$ = -16						; size = 4
__$EHRec$ = -12						; size = 12
___that$ = 8						; size = 4
??0AttackAttribute@@QAE@ABU0@@Z PROC			; AttackAttribute::AttackAttribute, COMDAT
; _this$ = ecx
  00000	6a 04		 push	 4
  00002	b8 00 00 00 00	 mov	 eax, __ehhandler$??0AttackAttribute@@QAE@ABU0@@Z
  00007	e8 00 00 00 00	 call	 __EH_prolog3
  0000c	8b f1		 mov	 esi, ecx
  0000e	89 75 f0	 mov	 DWORD PTR _this$[ebp], esi
  00011	8b 7d 08	 mov	 edi, DWORD PTR ___that$[ebp]
  00014	8b 1d 00 00 00
	00		 mov	 ebx, DWORD PTR __imp_??0ioHashString@@QAE@ABV0@@Z
  0001a	57		 push	 edi
  0001b	ff d3		 call	 ebx
  0001d	d9 47 10	 fld	 DWORD PTR [edi+16]
  00020	83 65 fc 00	 and	 DWORD PTR __$EHRec$[ebp+8], 0
  00024	d9 5e 10	 fstp	 DWORD PTR [esi+16]
  00027	8d 47 14	 lea	 eax, DWORD PTR [edi+20]
  0002a	50		 push	 eax
  0002b	8d 4e 14	 lea	 ecx, DWORD PTR [esi+20]
  0002e	ff d3		 call	 ebx
  00030	d9 47 24	 fld	 DWORD PTR [edi+36]
  00033	8d 47 28	 lea	 eax, DWORD PTR [edi+40]
  00036	d9 5e 24	 fstp	 DWORD PTR [esi+36]
  00039	50		 push	 eax
  0003a	8d 4e 28	 lea	 ecx, DWORD PTR [esi+40]
  0003d	c6 45 fc 01	 mov	 BYTE PTR __$EHRec$[ebp+8], 1
  00041	e8 00 00 00 00	 call	 ??0?$vector@UWeaponInfo@@V?$allocator@UWeaponInfo@@@std@@@std@@QAE@ABV01@@Z ; std::vector<WeaponInfo,std::allocator<WeaponInfo> >::vector<WeaponInfo,std::allocator<WeaponInfo> >
  00046	8d 47 38	 lea	 eax, DWORD PTR [edi+56]
  00049	50		 push	 eax
  0004a	8d 4e 38	 lea	 ecx, DWORD PTR [esi+56]
  0004d	c6 45 fc 02	 mov	 BYTE PTR __$EHRec$[ebp+8], 2
  00051	e8 00 00 00 00	 call	 ??0?$vector@UForceInfo@@V?$allocator@UForceInfo@@@std@@@std@@QAE@ABV01@@Z ; std::vector<ForceInfo,std::allocator<ForceInfo> >::vector<ForceInfo,std::allocator<ForceInfo> >
  00056	8b 47 48	 mov	 eax, DWORD PTR [edi+72]
  00059	89 46 48	 mov	 DWORD PTR [esi+72], eax
  0005c	8b 47 4c	 mov	 eax, DWORD PTR [edi+76]
  0005f	89 46 4c	 mov	 DWORD PTR [esi+76], eax
  00062	8b c6		 mov	 eax, esi
  00064	e8 00 00 00 00	 call	 __EH_epilog3
  00069	c2 04 00	 ret	 4
_TEXT	ENDS
;	COMDAT text$x
text$x	SEGMENT
__unwindfunclet$??0AttackAttribute@@QAE@ABU0@@Z$0:
  00000	8b 4d f0	 mov	 ecx, DWORD PTR _this$[ebp]
  00003	ff 25 00 00 00
	00		 jmp	 DWORD PTR __imp_??1ioHashString@@QAE@XZ
__unwindfunclet$??0AttackAttribute@@QAE@ABU0@@Z$1:
  00009	8b 4d f0	 mov	 ecx, DWORD PTR _this$[ebp]
  0000c	83 c1 14	 add	 ecx, 20			; 00000014H
  0000f	ff 25 00 00 00
	00		 jmp	 DWORD PTR __imp_??1ioHashString@@QAE@XZ
__unwindfunclet$??0AttackAttribute@@QAE@ABU0@@Z$2:
  00015	8b 4d f0	 mov	 ecx, DWORD PTR _this$[ebp]
  00018	83 c1 28	 add	 ecx, 40			; 00000028H
  0001b	e9 00 00 00 00	 jmp	 ??1?$vector@UWeaponInfo@@V?$allocator@UWeaponInfo@@@std@@@std@@QAE@XZ ; std::vector<WeaponInfo,std::allocator<WeaponInfo> >::~vector<WeaponInfo,std::allocator<WeaponInfo> >
__ehhandler$??0AttackAttribute@@QAE@ABU0@@Z:
  00020	8b 54 24 08	 mov	 edx, DWORD PTR [esp+8]
  00024	8d 42 0c	 lea	 eax, DWORD PTR [edx+12]
  00027	8b 4a ec	 mov	 ecx, DWORD PTR [edx-20]
  0002a	33 c8		 xor	 ecx, eax
  0002c	e8 00 00 00 00	 call	 @__security_check_cookie@4
  00031	b8 00 00 00 00	 mov	 eax, OFFSET __ehfuncinfo$??0AttackAttribute@@QAE@ABU0@@Z
  00036	e9 00 00 00 00	 jmp	 ___CxxFrameHandler3
text$x	ENDS
??0AttackAttribute@@QAE@ABU0@@Z ENDP			; AttackAttribute::AttackAttribute
PUBLIC	??0AttackAttribute@@QAE@XZ			; AttackAttribute::AttackAttribute
EXTRN	?Init@AttackAttribute@@QAEXXZ:PROC		; AttackAttribute::Init
;	COMDAT xdata$x
; File c:\program files (x86)\microsoft visual studio 10.0\vc\include\xmemory
xdata$x	SEGMENT
__unwindtable$??0AttackAttribute@@QAE@XZ DD 0ffffffffH
	DD	FLAT:__unwindfunclet$??0AttackAttribute@@QAE@XZ$0
	DD	00H
	DD	FLAT:__unwindfunclet$??0AttackAttribute@@QAE@XZ$1
	DD	01H
	DD	FLAT:__unwindfunclet$??0AttackAttribute@@QAE@XZ$2
	DD	02H
	DD	FLAT:__unwindfunclet$??0AttackAttribute@@QAE@XZ$3
__ehfuncinfo$??0AttackAttribute@@QAE@XZ DD 019930522H
	DD	04H
	DD	FLAT:__unwindtable$??0AttackAttribute@@QAE@XZ
	DD	2 DUP(00H)
	DD	2 DUP(00H)
	DD	00H
	DD	01H
; Function compile flags: /Ogsp
; File d:\lost saga for developer\youtube\tutorial\source\src\lsclient\ioattackattribute.h
xdata$x	ENDS
;	COMDAT ??0AttackAttribute@@QAE@XZ
_TEXT	SEGMENT
_this$ = -16						; size = 4
__$EHRec$ = -12						; size = 12
??0AttackAttribute@@QAE@XZ PROC				; AttackAttribute::AttackAttribute, COMDAT
; _this$ = ecx

; 107  : 	AttackAttribute()

  00000	6a 04		 push	 4
  00002	b8 00 00 00 00	 mov	 eax, __ehhandler$??0AttackAttribute@@QAE@XZ
  00007	e8 00 00 00 00	 call	 __EH_prolog3
  0000c	8b f1		 mov	 esi, ecx
  0000e	89 75 f0	 mov	 DWORD PTR _this$[ebp], esi
  00011	8b 3d 00 00 00
	00		 mov	 edi, DWORD PTR __imp_??0ioHashString@@QAE@XZ
  00017	ff d7		 call	 edi
  00019	33 db		 xor	 ebx, ebx
  0001b	8d 4e 14	 lea	 ecx, DWORD PTR [esi+20]
  0001e	89 5d fc	 mov	 DWORD PTR __$EHRec$[ebp+8], ebx
  00021	ff d7		 call	 edi
  00023	89 5e 28	 mov	 DWORD PTR [esi+40], ebx
  00026	89 5e 2c	 mov	 DWORD PTR [esi+44], ebx
  00029	89 5e 30	 mov	 DWORD PTR [esi+48], ebx
  0002c	89 5e 38	 mov	 DWORD PTR [esi+56], ebx
  0002f	89 5e 3c	 mov	 DWORD PTR [esi+60], ebx
  00032	89 5e 40	 mov	 DWORD PTR [esi+64], ebx

; 108  : 	{
; 109  : 		Init();

  00035	8b ce		 mov	 ecx, esi
  00037	c6 45 fc 03	 mov	 BYTE PTR __$EHRec$[ebp+8], 3
  0003b	e8 00 00 00 00	 call	 ?Init@AttackAttribute@@QAEXXZ ; AttackAttribute::Init

; 110  : 	}

  00040	8b c6		 mov	 eax, esi
  00042	e8 00 00 00 00	 call	 __EH_epilog3
  00047	c3		 ret	 0
_TEXT	ENDS
;	COMDAT text$x
text$x	SEGMENT
__unwindfunclet$??0AttackAttribute@@QAE@XZ$0:
  00000	8b 4d f0	 mov	 ecx, DWORD PTR _this$[ebp]
  00003	ff 25 00 00 00
	00		 jmp	 DWORD PTR __imp_??1ioHashString@@QAE@XZ
__unwindfunclet$??0AttackAttribute@@QAE@XZ$1:
  00009	8b 4d f0	 mov	 ecx, DWORD PTR _this$[ebp]
  0000c	83 c1 14	 add	 ecx, 20			; 00000014H
  0000f	ff 25 00 00 00
	00		 jmp	 DWORD PTR __imp_??1ioHashString@@QAE@XZ
__unwindfunclet$??0AttackAttribute@@QAE@XZ$2:
  00015	8b 4d f0	 mov	 ecx, DWORD PTR _this$[ebp]
  00018	83 c1 28	 add	 ecx, 40			; 00000028H
  0001b	e9 00 00 00 00	 jmp	 ??1?$vector@UWeaponInfo@@V?$allocator@UWeaponInfo@@@std@@@std@@QAE@XZ ; std::vector<WeaponInfo,std::allocator<WeaponInfo> >::~vector<WeaponInfo,std::allocator<WeaponInfo> >
__unwindfunclet$??0AttackAttribute@@QAE@XZ$3:
  00020	8b 4d f0	 mov	 ecx, DWORD PTR _this$[ebp]
  00023	83 c1 38	 add	 ecx, 56			; 00000038H
  00026	e9 00 00 00 00	 jmp	 ??1?$vector@UForceInfo@@V?$allocator@UForceInfo@@@std@@@std@@QAE@XZ ; std::vector<ForceInfo,std::allocator<ForceInfo> >::~vector<ForceInfo,std::allocator<ForceInfo> >
__ehhandler$??0AttackAttribute@@QAE@XZ:
  0002b	8b 54 24 08	 mov	 edx, DWORD PTR [esp+8]
  0002f	8d 42 0c	 lea	 eax, DWORD PTR [edx+12]
  00032	8b 4a ec	 mov	 ecx, DWORD PTR [edx-20]
  00035	33 c8		 xor	 ecx, eax
  00037	e8 00 00 00 00	 call	 @__security_check_cookie@4
  0003c	b8 00 00 00 00	 mov	 eax, OFFSET __ehfuncinfo$??0AttackAttribute@@QAE@XZ
  00041	e9 00 00 00 00	 jmp	 ___CxxFrameHandler3
text$x	ENDS
??0AttackAttribute@@QAE@XZ ENDP				; AttackAttribute::AttackAttribute
PUBLIC	??1AttackAttribute@@QAE@XZ			; AttackAttribute::~AttackAttribute
;	COMDAT xdata$x
xdata$x	SEGMENT
__unwindtable$??1AttackAttribute@@QAE@XZ DD 0ffffffffH
	DD	FLAT:__unwindfunclet$??1AttackAttribute@@QAE@XZ$0
	DD	00H
	DD	FLAT:__unwindfunclet$??1AttackAttribute@@QAE@XZ$1
	DD	01H
	DD	FLAT:__unwindfunclet$??1AttackAttribute@@QAE@XZ$2
__ehfuncinfo$??1AttackAttribute@@QAE@XZ DD 019930522H
	DD	03H
	DD	FLAT:__unwindtable$??1AttackAttribute@@QAE@XZ
	DD	2 DUP(00H)
	DD	2 DUP(00H)
	DD	00H
	DD	01H
; Function compile flags: /Ogsp
xdata$x	ENDS
;	COMDAT ??1AttackAttribute@@QAE@XZ
_TEXT	SEGMENT
_this$ = -16						; size = 4
__$EHRec$ = -12						; size = 12
??1AttackAttribute@@QAE@XZ PROC				; AttackAttribute::~AttackAttribute, COMDAT
; _this$ = ecx
  00000	6a 04		 push	 4
  00002	b8 00 00 00 00	 mov	 eax, __ehhandler$??1AttackAttribute@@QAE@XZ
  00007	e8 00 00 00 00	 call	 __EH_prolog3
  0000c	8b f1		 mov	 esi, ecx
  0000e	89 75 f0	 mov	 DWORD PTR _this$[ebp], esi
  00011	8d 4e 38	 lea	 ecx, DWORD PTR [esi+56]
  00014	c7 45 fc 02 00
	00 00		 mov	 DWORD PTR __$EHRec$[ebp+8], 2
  0001b	e8 00 00 00 00	 call	 ?_Tidy@?$vector@UForceInfo@@V?$allocator@UForceInfo@@@std@@@std@@IAEXXZ ; std::vector<ForceInfo,std::allocator<ForceInfo> >::_Tidy
  00020	8d 4e 28	 lea	 ecx, DWORD PTR [esi+40]
  00023	c6 45 fc 01	 mov	 BYTE PTR __$EHRec$[ebp+8], 1
  00027	e8 00 00 00 00	 call	 ?_Tidy@?$vector@UWeaponInfo@@V?$allocator@UWeaponInfo@@@std@@@std@@IAEXXZ ; std::vector<WeaponInfo,std::allocator<WeaponInfo> >::_Tidy
  0002c	8b 3d 00 00 00
	00		 mov	 edi, DWORD PTR __imp_??1ioHashString@@QAE@XZ
  00032	8d 4e 14	 lea	 ecx, DWORD PTR [esi+20]
  00035	c6 45 fc 00	 mov	 BYTE PTR __$EHRec$[ebp+8], 0
  00039	ff d7		 call	 edi
  0003b	83 4d fc ff	 or	 DWORD PTR __$EHRec$[ebp+8], -1
  0003f	8b ce		 mov	 ecx, esi
  00041	ff d7		 call	 edi
  00043	e8 00 00 00 00	 call	 __EH_epilog3
  00048	c3		 ret	 0
_TEXT	ENDS
;	COMDAT text$x
text$x	SEGMENT
__unwindfunclet$??1AttackAttribute@@QAE@XZ$0:
  00000	8b 4d f0	 mov	 ecx, DWORD PTR _this$[ebp]
  00003	ff 25 00 00 00
	00		 jmp	 DWORD PTR __imp_??1ioHashString@@QAE@XZ
__unwindfunclet$??1AttackAttribute@@QAE@XZ$1:
  00009	8b 4d f0	 mov	 ecx, DWORD PTR _this$[ebp]
  0000c	83 c1 14	 add	 ecx, 20			; 00000014H
  0000f	ff 25 00 00 00
	00		 jmp	 DWORD PTR __imp_??1ioHashString@@QAE@XZ
__unwindfunclet$??1AttackAttribute@@QAE@XZ$2:
  00015	8b 4d f0	 mov	 ecx, DWORD PTR _this$[ebp]
  00018	83 c1 28	 add	 ecx, 40			; 00000028H
  0001b	e9 00 00 00 00	 jmp	 ??1?$vector@UWeaponInfo@@V?$allocator@UWeaponInfo@@@std@@@std@@QAE@XZ ; std::vector<WeaponInfo,std::allocator<WeaponInfo> >::~vector<WeaponInfo,std::allocator<WeaponInfo> >
__ehhandler$??1AttackAttribute@@QAE@XZ:
  00020	8b 54 24 08	 mov	 edx, DWORD PTR [esp+8]
  00024	8d 42 0c	 lea	 eax, DWORD PTR [edx+12]
  00027	8b 4a ec	 mov	 ecx, DWORD PTR [edx-20]
  0002a	33 c8		 xor	 ecx, eax
  0002c	e8 00 00 00 00	 call	 @__security_check_cookie@4
  00031	b8 00 00 00 00	 mov	 eax, OFFSET __ehfuncinfo$??1AttackAttribute@@QAE@XZ
  00036	e9 00 00 00 00	 jmp	 ___CxxFrameHandler3
text$x	ENDS
??1AttackAttribute@@QAE@XZ ENDP				; AttackAttribute::~AttackAttribute
PUBLIC	??_7ioWhirlwndAttack@@6B@			; ioWhirlwndAttack::`vftable'
PUBLIC	??0ioWhirlwndAttack@@QAE@XZ			; ioWhirlwndAttack::ioWhirlwndAttack
PUBLIC	??_R4ioWhirlwndAttack@@6B@			; ioWhirlwndAttack::`RTTI Complete Object Locator'
PUBLIC	??_R0?AVioWhirlwndAttack@@@8			; ioWhirlwndAttack `RTTI Type Descriptor'
PUBLIC	??_R3ioWhirlwndAttack@@8			; ioWhirlwndAttack::`RTTI Class Hierarchy Descriptor'
PUBLIC	??_R2ioWhirlwndAttack@@8			; ioWhirlwndAttack::`RTTI Base Class Array'
PUBLIC	??_R1A@?0A@EA@ioWhirlwndAttack@@8		; ioWhirlwndAttack::`RTTI Base Class Descriptor at (0,-1,0,64)'
PUBLIC	??_R1A@?0A@EA@ioAttackSkill@@8			; ioAttackSkill::`RTTI Base Class Descriptor at (0,-1,0,64)'
PUBLIC	??_R0?AVioAttackSkill@@@8			; ioAttackSkill `RTTI Type Descriptor'
PUBLIC	??_R3ioAttackSkill@@8				; ioAttackSkill::`RTTI Class Hierarchy Descriptor'
PUBLIC	??_R2ioAttackSkill@@8				; ioAttackSkill::`RTTI Base Class Array'
PUBLIC	??_R1A@?0A@EA@ioSkill@@8			; ioSkill::`RTTI Base Class Descriptor at (0,-1,0,64)'
PUBLIC	??_R0?AVioSkill@@@8				; ioSkill `RTTI Type Descriptor'
PUBLIC	??_R3ioSkill@@8					; ioSkill::`RTTI Class Hierarchy Descriptor'
PUBLIC	??_R2ioSkill@@8					; ioSkill::`RTTI Base Class Array'
PUBLIC	?Clone@ioWhirlwndAttack@@UAEPAVioSkill@@XZ	; ioWhirlwndAttack::Clone
PUBLIC	?GetDefenseSkillBreakeType@ioSkill@@UBE?AW4DefenseBreakType@@XZ ; ioSkill::GetDefenseSkillBreakeType
PUBLIC	?GetSkillEndNextJumpAmt@ioSkill@@UBEMXZ		; ioSkill::GetSkillEndNextJumpAmt
PUBLIC	?GetSkillEndNextLandRate@ioSkill@@UBEMXZ	; ioSkill::GetSkillEndNextLandRate
PUBLIC	?GetSkillEndNextJumpMustEnable@ioSkill@@UAE?AW4SkillEndJumpType@@XZ ; ioSkill::GetSkillEndNextJumpMustEnable
PUBLIC	?EnableChangeGrapplingTargetPos@ioSkill@@UBE_NXZ ; ioSkill::EnableChangeGrapplingTargetPos
PUBLIC	?IsInvisibleBottomCircle@ioSkill@@UAE_NPAVioBaseChar@@@Z ; ioSkill::IsInvisibleBottomCircle
PUBLIC	?IsCanJumpingSkill@ioSkill@@UBE_NXZ		; ioSkill::IsCanJumpingSkill
PUBLIC	?IsCanJumpingSkillOnBlowWound@ioSkill@@UBE_NXZ	; ioSkill::IsCanJumpingSkillOnBlowWound
PUBLIC	?IsCanDownSkill@ioSkill@@UBE_NXZ		; ioSkill::IsCanDownSkill
PUBLIC	?IsCanBlowWoundSkill@ioSkill@@UBE_NXZ		; ioSkill::IsCanBlowWoundSkill
PUBLIC	?IsCanWoundSkill@ioSkill@@UBE_NXZ		; ioSkill::IsCanWoundSkill
PUBLIC	?IsUseActiveCnt@ioSkill@@UBE_NXZ		; ioSkill::IsUseActiveCnt
PUBLIC	?GetMaxActiveCnt@ioSkill@@UBEHPAVioBaseChar@@@Z	; ioSkill::GetMaxActiveCnt
PUBLIC	?GetCurActiveCnt@ioSkill@@UBEHPAVioBaseChar@@@Z	; ioSkill::GetCurActiveCnt
EXTRN	??1ioAttackSkill@@UAE@XZ:PROC			; ioAttackSkill::~ioAttackSkill
EXTRN	??0ioAttackSkill@@QAE@XZ:PROC			; ioAttackSkill::ioAttackSkill
EXTRN	?GetTypeID@ioAttackSkill@@UBEHXZ:PROC		; ioAttackSkill::GetTypeID
EXTRN	?IsCanSwitchSkill@ioSkill@@UBE_NXZ:PROC		; ioSkill::IsCanSwitchSkill
EXTRN	?IsCanSemiSwitchSkill@ioSkill@@UBE_NXZ:PROC	; ioSkill::IsCanSemiSwitchSkill
EXTRN	?IsCanCancelBySkill@ioSkill@@UBE_NPAVioBaseChar@@AAH@Z:PROC ; ioSkill::IsCanCancelBySkill
EXTRN	?IsCanUseZeroHP@ioSkill@@UBE_NPAVioBaseChar@@@Z:PROC ; ioSkill::IsCanUseZeroHP
EXTRN	?IsCanUseSkillWithCrown@ioSkill@@UAE_NPAVioBaseChar@@@Z:PROC ; ioSkill::IsCanUseSkillWithCrown
EXTRN	?IsCanUseBoss@ioSkill@@UBE_NPAVioBaseChar@@@Z:PROC ; ioSkill::IsCanUseBoss
EXTRN	?IsCanUseFootball@ioSkill@@UBE_NXZ:PROC		; ioSkill::IsCanUseFootball
EXTRN	?IsCanUseGangSiMode@ioSkill@@UBE_NXZ:PROC	; ioSkill::IsCanUseGangSiMode
EXTRN	?IsCanUseByWeaponType@ioSkill@@UBE_NPAVioBaseChar@@@Z:PROC ; ioSkill::IsCanUseByWeaponType
EXTRN	?IsCanUseThunderBirdHold@ioSkill@@UBE_NPAVioBaseChar@@@Z:PROC ; ioSkill::IsCanUseThunderBirdHold
EXTRN	?IsCanUseLimitHP@ioSkill@@UBE_NPAVioBaseChar@@@Z:PROC ; ioSkill::IsCanUseLimitHP
EXTRN	?IsCanUseSkill@ioAttackSkill@@UAE_NPAVioBaseChar@@_N@Z:PROC ; ioAttackSkill::IsCanUseSkill
EXTRN	?IsOnOffEnable@ioSkill@@UAE_NXZ:PROC		; ioSkill::IsOnOffEnable
EXTRN	?IsCanDefenseStateSkill@ioSkill@@UAE_NXZ:PROC	; ioSkill::IsCanDefenseStateSkill
EXTRN	?SetDefenseStateSkill@ioSkill@@UAEXPAVioBaseChar@@@Z:PROC ; ioSkill::SetDefenseStateSkill
EXTRN	?HasBuff@ioSkill@@UBE_NH@Z:PROC			; ioSkill::HasBuff
EXTRN	?GetBuffType@ioSkill@@UAEHH@Z:PROC		; ioSkill::GetBuffType
EXTRN	?IsEnableReserve@ioSkill@@UBE_NXZ:PROC		; ioSkill::IsEnableReserve
EXTRN	?IsCharSkipState@ioSkill@@UBE?AW4SkillCharColType@@XZ:PROC ; ioSkill::IsCharSkipState
EXTRN	?IsEntityCollisionSkipState@ioSkill@@UBE_NXZ:PROC ; ioSkill::IsEntityCollisionSkipState
EXTRN	?IsEndState@ioSkill@@UBE_NXZ:PROC		; ioSkill::IsEndState
EXTRN	?IsJumpState@ioSkill@@UBE_NXZ:PROC		; ioSkill::IsJumpState
EXTRN	?IsDownState@ioSkill@@UBE_NXZ:PROC		; ioSkill::IsDownState
EXTRN	?IsCanSendControl@ioSkill@@UBE_NXZ:PROC		; ioSkill::IsCanSendControl
EXTRN	?GetSkillMoveRate@ioSkill@@UBEMXZ:PROC		; ioSkill::GetSkillMoveRate
EXTRN	?SetSkillGrapplingState@ioSkill@@UAE_NPAVioBaseChar@@ABVioHashString@@@Z:PROC ; ioSkill::SetSkillGrapplingState
EXTRN	?GetGrapplingTargetPos@ioSkill@@UAE?AUD3DXVECTOR3@@PAVioBaseChar@@0@Z:PROC ; ioSkill::GetGrapplingTargetPos
EXTRN	?GetGrapplingTargetPos@ioSkill@@UAE?AUD3DXVECTOR3@@PAVioBaseChar@@@Z:PROC ; ioSkill::GetGrapplingTargetPos
EXTRN	?GetSkillWoundGrapplingInfo@ioSkill@@UAE?AUGrapplingSkillWoundedInfo@@XZ:PROC ; ioSkill::GetSkillWoundGrapplingInfo
EXTRN	?SetCreateWeaponDependency@ioSkill@@UAEXPAVioBaseChar@@PAVioPlayStage@@@Z:PROC ; ioSkill::SetCreateWeaponDependency
EXTRN	?SetNextSkillState@ioSkill@@UAEXPAVioBaseChar@@PAVioWeapon@@@Z:PROC ; ioSkill::SetNextSkillState
EXTRN	?OnSkillEndByWounded@ioSkill@@UAEXPAVioBaseChar@@@Z:PROC ; ioSkill::OnSkillEndByWounded
EXTRN	?OnProcessNotUseSkill@ioSkill@@UAEXPAVioBaseChar@@PAVioPlayStage@@@Z:PROC ; ioSkill::OnProcessNotUseSkill
EXTRN	?OnSkillItemRelease@ioSkill@@UAEXPAVioBaseChar@@@Z:PROC ; ioSkill::OnSkillItemRelease
EXTRN	?ApplyEquipSlotSkillExtraInfo@ioSkill@@UAEXPAVioBaseChar@@PAVioPlayStage@@AAVSP2Packet@@@Z:PROC ; ioSkill::ApplyEquipSlotSkillExtraInfo
EXTRN	?ApplyExtraPassiveSkillInfo@ioSkill@@UAEXPAVioBaseChar@@PAVioPlayStage@@AAVSP2Packet@@@Z:PROC ; ioSkill::ApplyExtraPassiveSkillInfo
EXTRN	?StartPreDelayEffect@ioAttackSkill@@UAEXPAVioBaseChar@@@Z:PROC ; ioAttackSkill::StartPreDelayEffect
EXTRN	?EndPreDelayEffect@ioAttackSkill@@UAEXPAVioBaseChar@@@Z:PROC ; ioAttackSkill::EndPreDelayEffect
EXTRN	?IsUseAutoTargetValue@ioAttackSkill@@UAE_NXZ:PROC ; ioAttackSkill::IsUseAutoTargetValue
EXTRN	?IsAutoTargetDownState@ioSkill@@UAE_NXZ:PROC	; ioSkill::IsAutoTargetDownState
EXTRN	?CheckUseBuff@ioSkill@@UAE_NPAVioBaseChar@@@Z:PROC ; ioSkill::CheckUseBuff
EXTRN	?CheckUseActiveCount@ioSkill@@UAE_NXZ:PROC	; ioSkill::CheckUseActiveCount
EXTRN	?CheckAniRotate@ioSkill@@UAEXPAVioBaseChar@@@Z:PROC ; ioSkill::CheckAniRotate
EXTRN	?IsEnableDashCheck@ioSkill@@UAE_NPAVioBaseChar@@@Z:PROC ; ioSkill::IsEnableDashCheck
EXTRN	?IsEnableMultiActive@ioSkill@@UAE_NPAVioBaseChar@@@Z:PROC ; ioSkill::IsEnableMultiActive
EXTRN	?GetAutoTargetValue@ioSkill@@UAEXAAM00@Z:PROC	; ioSkill::GetAutoTargetValue
EXTRN	?GetSkillGravityRate@ioSkill@@UAEMXZ:PROC	; ioSkill::GetSkillGravityRate
EXTRN	?GetSkillMotionName@ioSkill@@UBEABVioHashString@@XZ:PROC ; ioSkill::GetSkillMotionName
EXTRN	?HasSkillMotion@ioSkill@@UBE_NXZ:PROC		; ioSkill::HasSkillMotion
EXTRN	?GetSkillMotionRate@ioSkill@@UBEMXZ:PROC	; ioSkill::GetSkillMotionRate
EXTRN	?IsPreDelayProtect@ioSkill@@UBE_NXZ:PROC	; ioSkill::IsPreDelayProtect
EXTRN	?GetPreDelayAniName@ioSkill@@UBEABVioHashString@@XZ:PROC ; ioSkill::GetPreDelayAniName
EXTRN	?GetPreDelayTime@ioSkill@@UBEKXZ:PROC		; ioSkill::GetPreDelayTime
EXTRN	?GetPreDelayOwnerEffect@ioSkill@@UBEABVioHashString@@XZ:PROC ; ioSkill::GetPreDelayOwnerEffect
EXTRN	?GetPreDelayOtherEffect@ioSkill@@UBEABVioHashString@@XZ:PROC ; ioSkill::GetPreDelayOtherEffect
EXTRN	?SetCancelSkill@ioSkill@@UAEXPAVioBaseChar@@@Z:PROC ; ioSkill::SetCancelSkill
EXTRN	?ClearAirJump@ioSkill@@MAEXXZ:PROC		; ioSkill::ClearAirJump
EXTRN	?SetAirJump@ioSkill@@MAEXPAVioBaseChar@@HM@Z:PROC ; ioSkill::SetAirJump
EXTRN	?CheckAirJump@ioSkill@@MAEXPAVioBaseChar@@@Z:PROC ; ioSkill::CheckAirJump
EXTRN	?UseActiveCount@ioSkill@@UAE_NPAVioBaseChar@@@Z:PROC ; ioSkill::UseActiveCount
EXTRN	?GetMaxActiveCount@ioSkill@@UAEHPAVioBaseChar@@@Z:PROC ; ioSkill::GetMaxActiveCount
EXTRN	?GetCurActiveCount@ioSkill@@UAEHPAVioBaseChar@@@Z:PROC ; ioSkill::GetCurActiveCount
EXTRN	?HideHPGauge@ioSkill@@UAE_NXZ:PROC		; ioSkill::HideHPGauge
EXTRN	?SetInfoByApplyWeapon@ioSkill@@UAEXPAVioBaseChar@@0K_N@Z:PROC ; ioSkill::SetInfoByApplyWeapon
EXTRN	?SetCollisionByApplySkill@ioSkill@@UAEXXZ:PROC	; ioSkill::SetCollisionByApplySkill
EXTRN	?SetChargingRateForWeapon@ioSkill@@UAEXPAVioWeapon@@@Z:PROC ; ioSkill::SetChargingRateForWeapon
EXTRN	?CheckExceptionCamera@ioSkill@@UAE_NXZ:PROC	; ioSkill::CheckExceptionCamera
EXTRN	?GetExceptionCameraPos@ioSkill@@UAE?AUD3DXVECTOR3@@PAVioBaseChar@@@Z:PROC ; ioSkill::GetExceptionCameraPos
EXTRN	?IsFixedExceptionCamera@ioSkill@@UAE_NXZ:PROC	; ioSkill::IsFixedExceptionCamera
EXTRN	??_EioWhirlwndAttack@@UAEPAXI@Z:PROC		; ioWhirlwndAttack::`vector deleting destructor'
EXTRN	?StartPreDelayAnimation@ioAttackSkill@@MAE_NPAVioBaseChar@@@Z:PROC ; ioAttackSkill::StartPreDelayAnimation
EXTRN	?GetAttackTimeRate@ioAttackSkill@@MBEMXZ:PROC	; ioAttackSkill::GetAttackTimeRate
EXTRN	?GetAttackEndTimeRate@ioAttackSkill@@MBEMXZ:PROC ; ioAttackSkill::GetAttackEndTimeRate
EXTRN	?LoadNormalAttribute@ioAttackSkill@@MAEXAAVioINILoader@@@Z:PROC ; ioAttackSkill::LoadNormalAttribute
EXTRN	?LoadDownAttribute@ioAttackSkill@@MAEXAAVioINILoader@@@Z:PROC ; ioAttackSkill::LoadDownAttribute
EXTRN	?LoadJumpAttribute@ioAttackSkill@@MAEXAAVioINILoader@@@Z:PROC ; ioAttackSkill::LoadJumpAttribute
EXTRN	?IsCanStateEscape@ioAttackSkill@@UBE_NXZ:PROC	; ioAttackSkill::IsCanStateEscape
EXTRN	?IsCanStateEscapeOnStand@ioAttackSkill@@UBE_NPAVioBaseChar@@@Z:PROC ; ioAttackSkill::IsCanStateEscapeOnStand
EXTRN	?IsCanStateEscapeOnAir@ioAttackSkill@@UBE_NPAVioBaseChar@@@Z:PROC ; ioAttackSkill::IsCanStateEscapeOnAir
EXTRN	?IsCanStateEscapeOnDown@ioAttackSkill@@UBE_NPAVioBaseChar@@@Z:PROC ; ioAttackSkill::IsCanStateEscapeOnDown
;	COMDAT ??_R2ioSkill@@8
; File c:\program files (x86)\microsoft directx sdk (june 2010)\include\d3dx9math.h
rdata$r	SEGMENT
??_R2ioSkill@@8 DD FLAT:??_R1A@?0A@EA@ioSkill@@8	; ioSkill::`RTTI Base Class Array'
rdata$r	ENDS
;	COMDAT ??_R3ioSkill@@8
rdata$r	SEGMENT
??_R3ioSkill@@8 DD 00H					; ioSkill::`RTTI Class Hierarchy Descriptor'
	DD	00H
	DD	01H
	DD	FLAT:??_R2ioSkill@@8
rdata$r	ENDS
;	COMDAT ??_R0?AVioSkill@@@8
_DATA	SEGMENT
??_R0?AVioSkill@@@8 DD FLAT:??_7type_info@@6B@		; ioSkill `RTTI Type Descriptor'
	DD	00H
	DB	'.?AVioSkill@@', 00H
_DATA	ENDS
;	COMDAT ??_R1A@?0A@EA@ioSkill@@8
rdata$r	SEGMENT
??_R1A@?0A@EA@ioSkill@@8 DD FLAT:??_R0?AVioSkill@@@8	; ioSkill::`RTTI Base Class Descriptor at (0,-1,0,64)'
	DD	00H
	DD	00H
	DD	0ffffffffH
	DD	00H
	DD	040H
	DD	FLAT:??_R3ioSkill@@8
rdata$r	ENDS
;	COMDAT ??_R2ioAttackSkill@@8
rdata$r	SEGMENT
??_R2ioAttackSkill@@8 DD FLAT:??_R1A@?0A@EA@ioAttackSkill@@8 ; ioAttackSkill::`RTTI Base Class Array'
	DD	FLAT:??_R1A@?0A@EA@ioSkill@@8
rdata$r	ENDS
;	COMDAT ??_R3ioAttackSkill@@8
rdata$r	SEGMENT
??_R3ioAttackSkill@@8 DD 00H				; ioAttackSkill::`RTTI Class Hierarchy Descriptor'
	DD	00H
	DD	02H
	DD	FLAT:??_R2ioAttackSkill@@8
rdata$r	ENDS
;	COMDAT ??_R0?AVioAttackSkill@@@8
_DATA	SEGMENT
??_R0?AVioAttackSkill@@@8 DD FLAT:??_7type_info@@6B@	; ioAttackSkill `RTTI Type Descriptor'
	DD	00H
	DB	'.?AVioAttackSkill@@', 00H
_DATA	ENDS
;	COMDAT ??_R1A@?0A@EA@ioAttackSkill@@8
rdata$r	SEGMENT
??_R1A@?0A@EA@ioAttackSkill@@8 DD FLAT:??_R0?AVioAttackSkill@@@8 ; ioAttackSkill::`RTTI Base Class Descriptor at (0,-1,0,64)'
	DD	01H
	DD	00H
	DD	0ffffffffH
	DD	00H
	DD	040H
	DD	FLAT:??_R3ioAttackSkill@@8
rdata$r	ENDS
;	COMDAT ??_R1A@?0A@EA@ioWhirlwndAttack@@8
rdata$r	SEGMENT
??_R1A@?0A@EA@ioWhirlwndAttack@@8 DD FLAT:??_R0?AVioWhirlwndAttack@@@8 ; ioWhirlwndAttack::`RTTI Base Class Descriptor at (0,-1,0,64)'
	DD	02H
	DD	00H
	DD	0ffffffffH
	DD	00H
	DD	040H
	DD	FLAT:??_R3ioWhirlwndAttack@@8
rdata$r	ENDS
;	COMDAT ??_R2ioWhirlwndAttack@@8
rdata$r	SEGMENT
??_R2ioWhirlwndAttack@@8 DD FLAT:??_R1A@?0A@EA@ioWhirlwndAttack@@8 ; ioWhirlwndAttack::`RTTI Base Class Array'
	DD	FLAT:??_R1A@?0A@EA@ioAttackSkill@@8
	DD	FLAT:??_R1A@?0A@EA@ioSkill@@8
rdata$r	ENDS
;	COMDAT ??_R3ioWhirlwndAttack@@8
rdata$r	SEGMENT
??_R3ioWhirlwndAttack@@8 DD 00H				; ioWhirlwndAttack::`RTTI Class Hierarchy Descriptor'
	DD	00H
	DD	03H
	DD	FLAT:??_R2ioWhirlwndAttack@@8
rdata$r	ENDS
;	COMDAT ??_R0?AVioWhirlwndAttack@@@8
_DATA	SEGMENT
??_R0?AVioWhirlwndAttack@@@8 DD FLAT:??_7type_info@@6B@	; ioWhirlwndAttack `RTTI Type Descriptor'
	DD	00H
	DB	'.?AVioWhirlwndAttack@@', 00H
_DATA	ENDS
;	COMDAT ??_R4ioWhirlwndAttack@@6B@
rdata$r	SEGMENT
??_R4ioWhirlwndAttack@@6B@ DD 00H			; ioWhirlwndAttack::`RTTI Complete Object Locator'
	DD	00H
	DD	00H
	DD	FLAT:??_R0?AVioWhirlwndAttack@@@8
	DD	FLAT:??_R3ioWhirlwndAttack@@8
rdata$r	ENDS
;	COMDAT ??_7ioWhirlwndAttack@@6B@
CONST	SEGMENT
??_7ioWhirlwndAttack@@6B@ DD FLAT:??_R4ioWhirlwndAttack@@6B@ ; ioWhirlwndAttack::`vftable'
	DD	FLAT:?LoadProperty@ioWhirlwndAttack@@UAEXAAVioINILoader@@@Z
	DD	FLAT:?Clone@ioWhirlwndAttack@@UAEPAVioSkill@@XZ
	DD	FLAT:?GetTypeID@ioAttackSkill@@UBEHXZ
	DD	FLAT:?IsProtected@ioWhirlwndAttack@@UBE_NH@Z
	DD	FLAT:?IsCanSwitchSkill@ioSkill@@UBE_NXZ
	DD	FLAT:?IsCanSemiSwitchSkill@ioSkill@@UBE_NXZ
	DD	FLAT:?IsCanCancelBySkill@ioSkill@@UBE_NPAVioBaseChar@@AAH@Z
	DD	FLAT:?IsCanUseZeroHP@ioSkill@@UBE_NPAVioBaseChar@@@Z
	DD	FLAT:?IsCanUseSkillWithCrown@ioSkill@@UAE_NPAVioBaseChar@@@Z
	DD	FLAT:?IsCanUseBoss@ioSkill@@UBE_NPAVioBaseChar@@@Z
	DD	FLAT:?IsCanUseFootball@ioSkill@@UBE_NXZ
	DD	FLAT:?IsCanUseGangSiMode@ioSkill@@UBE_NXZ
	DD	FLAT:?IsCanUseByWeaponType@ioSkill@@UBE_NPAVioBaseChar@@@Z
	DD	FLAT:?IsCanUseThunderBirdHold@ioSkill@@UBE_NPAVioBaseChar@@@Z
	DD	FLAT:?IsCanUseLimitHP@ioSkill@@UBE_NPAVioBaseChar@@@Z
	DD	FLAT:?IsCanUseSkill@ioAttackSkill@@UAE_NPAVioBaseChar@@_N@Z
	DD	FLAT:?IsOnOffEnable@ioSkill@@UAE_NXZ
	DD	FLAT:?IsCanDefenseStateSkill@ioSkill@@UAE_NXZ
	DD	FLAT:?SetDefenseStateSkill@ioSkill@@UAEXPAVioBaseChar@@@Z
	DD	FLAT:?GetDefenseSkillBreakeType@ioSkill@@UBE?AW4DefenseBreakType@@XZ
	DD	FLAT:?HasBuff@ioSkill@@UBE_NH@Z
	DD	FLAT:?GetBuffType@ioSkill@@UAEHH@Z
	DD	FLAT:?IsEnableReserve@ioSkill@@UBE_NXZ
	DD	FLAT:?IsSkillMotionEnd@ioWhirlwndAttack@@UBE_NKPAVioBaseChar@@@Z
	DD	FLAT:?IsCharSkipState@ioSkill@@UBE?AW4SkillCharColType@@XZ
	DD	FLAT:?IsEntityCollisionSkipState@ioSkill@@UBE_NXZ
	DD	FLAT:?GetSkillEndNextJumpAmt@ioSkill@@UBEMXZ
	DD	FLAT:?GetSkillEndNextLandRate@ioSkill@@UBEMXZ
	DD	FLAT:?GetSkillEndNextJumpMustEnable@ioSkill@@UAE?AW4SkillEndJumpType@@XZ
	DD	FLAT:?IsEndState@ioSkill@@UBE_NXZ
	DD	FLAT:?IsAttackEndState@ioWhirlwndAttack@@UBE_NXZ
	DD	FLAT:?IsJumpState@ioSkill@@UBE_NXZ
	DD	FLAT:?IsDownState@ioSkill@@UBE_NXZ
	DD	FLAT:?IsNoDropState@ioWhirlwndAttack@@UBE_NXZ
	DD	FLAT:?IsCanSendControl@ioSkill@@UBE_NXZ
	DD	FLAT:?IsSkipState@ioWhirlwndAttack@@UBE_NXZ
	DD	FLAT:?GetSkillMoveRate@ioSkill@@UBEMXZ
	DD	FLAT:?SetSkillGrapplingState@ioSkill@@UAE_NPAVioBaseChar@@ABVioHashString@@@Z
	DD	FLAT:?GetGrapplingTargetPos@ioSkill@@UAE?AUD3DXVECTOR3@@PAVioBaseChar@@0@Z
	DD	FLAT:?GetGrapplingTargetPos@ioSkill@@UAE?AUD3DXVECTOR3@@PAVioBaseChar@@@Z
	DD	FLAT:?EnableChangeGrapplingTargetPos@ioSkill@@UBE_NXZ
	DD	FLAT:?GetSkillWoundGrapplingInfo@ioSkill@@UAE?AUGrapplingSkillWoundedInfo@@XZ
	DD	FLAT:?SetCreateWeaponDependency@ioSkill@@UAEXPAVioBaseChar@@PAVioPlayStage@@@Z
	DD	FLAT:?SetNextSkillState@ioSkill@@UAEXPAVioBaseChar@@PAVioWeapon@@@Z
	DD	FLAT:?OnSkillStart@ioWhirlwndAttack@@UAE_NPAVioBaseChar@@@Z
	DD	FLAT:?OnProcessState@ioWhirlwndAttack@@UAEXPAVioBaseChar@@PAVioPlayStage@@@Z
	DD	FLAT:?OnSkillEndByWounded@ioSkill@@UAEXPAVioBaseChar@@@Z
	DD	FLAT:?OnSkillEnd@ioWhirlwndAttack@@UAEXPAVioBaseChar@@@Z
	DD	FLAT:?OnProcessNotUseSkill@ioSkill@@UAEXPAVioBaseChar@@PAVioPlayStage@@@Z
	DD	FLAT:?OnSkillItemRelease@ioSkill@@UAEXPAVioBaseChar@@@Z
	DD	FLAT:?ApplyAttributeToWeapon@ioWhirlwndAttack@@UAEXPAVioWeapon@@PAVioPlayStage@@@Z
	DD	FLAT:?ApplyExtraSkillInfo@ioWhirlwndAttack@@UAEXPAVioBaseChar@@PAVioPlayStage@@AAVSP2Packet@@@Z
	DD	FLAT:?ApplyEquipSlotSkillExtraInfo@ioSkill@@UAEXPAVioBaseChar@@PAVioPlayStage@@AAVSP2Packet@@@Z
	DD	FLAT:?ApplyExtraPassiveSkillInfo@ioSkill@@UAEXPAVioBaseChar@@PAVioPlayStage@@AAVSP2Packet@@@Z
	DD	FLAT:?StartPreDelayEffect@ioAttackSkill@@UAEXPAVioBaseChar@@@Z
	DD	FLAT:?EndPreDelayEffect@ioAttackSkill@@UAEXPAVioBaseChar@@@Z
	DD	FLAT:?IsUseAutoTargetValue@ioAttackSkill@@UAE_NXZ
	DD	FLAT:?IsAutoTargetDownState@ioSkill@@UAE_NXZ
	DD	FLAT:?CheckUseBuff@ioSkill@@UAE_NPAVioBaseChar@@@Z
	DD	FLAT:?CheckUseItemMesh@ioWhirlwndAttack@@UAE_NXZ
	DD	FLAT:?CheckUseActiveCount@ioSkill@@UAE_NXZ
	DD	FLAT:?CheckAniRotate@ioSkill@@UAEXPAVioBaseChar@@@Z
	DD	FLAT:?IsEnableDashCheck@ioSkill@@UAE_NPAVioBaseChar@@@Z
	DD	FLAT:?IsEnableMultiActive@ioSkill@@UAE_NPAVioBaseChar@@@Z
	DD	FLAT:?IsInvisibleBottomCircle@ioSkill@@UAE_NPAVioBaseChar@@@Z
	DD	FLAT:?GetAutoTargetValue@ioSkill@@UAEXAAM00@Z
	DD	FLAT:?IsCanJumpingSkill@ioSkill@@UBE_NXZ
	DD	FLAT:?IsCanJumpingSkillOnBlowWound@ioSkill@@UBE_NXZ
	DD	FLAT:?IsCanDownSkill@ioSkill@@UBE_NXZ
	DD	FLAT:?IsCanBlowWoundSkill@ioSkill@@UBE_NXZ
	DD	FLAT:?IsCanWoundSkill@ioSkill@@UBE_NXZ
	DD	FLAT:?GetSkillGravityRate@ioSkill@@UAEMXZ
	DD	FLAT:?GetSkillMotionName@ioSkill@@UBEABVioHashString@@XZ
	DD	FLAT:?HasSkillMotion@ioSkill@@UBE_NXZ
	DD	FLAT:?GetSkillMotionRate@ioSkill@@UBEMXZ
	DD	FLAT:?IsPreDelayProtect@ioSkill@@UBE_NXZ
	DD	FLAT:?GetPreDelayAniName@ioSkill@@UBEABVioHashString@@XZ
	DD	FLAT:?GetPreDelayTime@ioSkill@@UBEKXZ
	DD	FLAT:?GetPreDelayOwnerEffect@ioSkill@@UBEABVioHashString@@XZ
	DD	FLAT:?GetPreDelayOtherEffect@ioSkill@@UBEABVioHashString@@XZ
	DD	FLAT:?SetCancelSkill@ioSkill@@UAEXPAVioBaseChar@@@Z
	DD	FLAT:?ClearAirJump@ioSkill@@MAEXXZ
	DD	FLAT:?SetAirJump@ioSkill@@MAEXPAVioBaseChar@@HM@Z
	DD	FLAT:?CheckAirJump@ioSkill@@MAEXPAVioBaseChar@@@Z
	DD	FLAT:?UseActiveCount@ioSkill@@UAE_NPAVioBaseChar@@@Z
	DD	FLAT:?GetMaxActiveCount@ioSkill@@UAEHPAVioBaseChar@@@Z
	DD	FLAT:?GetCurActiveCount@ioSkill@@UAEHPAVioBaseChar@@@Z
	DD	FLAT:?HideHPGauge@ioSkill@@UAE_NXZ
	DD	FLAT:?SetInfoByApplyWeapon@ioSkill@@UAEXPAVioBaseChar@@0K_N@Z
	DD	FLAT:?SetCollisionByApplySkill@ioSkill@@UAEXXZ
	DD	FLAT:?SetChargingRateForWeapon@ioSkill@@UAEXPAVioWeapon@@@Z
	DD	FLAT:?CheckExceptionCamera@ioSkill@@UAE_NXZ
	DD	FLAT:?GetExceptionCameraPos@ioSkill@@UAE?AUD3DXVECTOR3@@PAVioBaseChar@@@Z
	DD	FLAT:?IsFixedExceptionCamera@ioSkill@@UAE_NXZ
	DD	FLAT:?IsUseActiveCnt@ioSkill@@UBE_NXZ
	DD	FLAT:?GetMaxActiveCnt@ioSkill@@UBEHPAVioBaseChar@@@Z
	DD	FLAT:?GetCurActiveCnt@ioSkill@@UBEHPAVioBaseChar@@@Z
	DD	FLAT:??_EioWhirlwndAttack@@UAEPAXI@Z
	DD	FLAT:?StartPreDelayAnimation@ioAttackSkill@@MAE_NPAVioBaseChar@@@Z
	DD	FLAT:?AttackSkillFire@ioAttackSkill@@MAEXPAVioBaseChar@@@Z
	DD	FLAT:?GetAttackTimeRate@ioAttackSkill@@MBEMXZ
	DD	FLAT:?GetAttackEndTimeRate@ioAttackSkill@@MBEMXZ
	DD	FLAT:?LoadNormalAttribute@ioAttackSkill@@MAEXAAVioINILoader@@@Z
	DD	FLAT:?LoadDownAttribute@ioAttackSkill@@MAEXAAVioINILoader@@@Z
	DD	FLAT:?LoadJumpAttribute@ioAttackSkill@@MAEXAAVioINILoader@@@Z
	DD	FLAT:?GetAttribute@ioWhirlwndAttack@@UAEAAUAttackAttribute@@XZ
	DD	FLAT:?GetAttributeConst@ioWhirlwndAttack@@UBEABUAttackAttribute@@XZ
	DD	FLAT:?IsCanStateEscape@ioAttackSkill@@UBE_NXZ
	DD	FLAT:?IsCanStateEscapeOnStand@ioAttackSkill@@UBE_NPAVioBaseChar@@@Z
	DD	FLAT:?IsCanStateEscapeOnAir@ioAttackSkill@@UBE_NPAVioBaseChar@@@Z
	DD	FLAT:?IsCanStateEscapeOnDown@ioAttackSkill@@UBE_NPAVioBaseChar@@@Z
CONST	ENDS
;	COMDAT xdata$x
xdata$x	SEGMENT
__ehfuncinfo$??0ioWhirlwndAttack@@QAE@XZ DD 019930522H
	DD	0fH
	DD	FLAT:__unwindtable$??0ioWhirlwndAttack@@QAE@XZ
	DD	2 DUP(00H)
	DD	2 DUP(00H)
	DD	00H
	DD	01H
__unwindtable$??0ioWhirlwndAttack@@QAE@XZ DD 0ffffffffH
	DD	FLAT:__unwindfunclet$??0ioWhirlwndAttack@@QAE@XZ$0
	DD	00H
	DD	FLAT:__unwindfunclet$??0ioWhirlwndAttack@@QAE@XZ$1
	DD	01H
	DD	FLAT:__unwindfunclet$??0ioWhirlwndAttack@@QAE@XZ$2
	DD	02H
	DD	FLAT:__unwindfunclet$??0ioWhirlwndAttack@@QAE@XZ$3
	DD	03H
	DD	FLAT:__unwindfunclet$??0ioWhirlwndAttack@@QAE@XZ$4
	DD	04H
	DD	FLAT:__unwindfunclet$??0ioWhirlwndAttack@@QAE@XZ$5
	DD	05H
	DD	FLAT:__unwindfunclet$??0ioWhirlwndAttack@@QAE@XZ$6
	DD	06H
	DD	FLAT:__unwindfunclet$??0ioWhirlwndAttack@@QAE@XZ$7
	DD	07H
	DD	FLAT:__unwindfunclet$??0ioWhirlwndAttack@@QAE@XZ$8
	DD	08H
	DD	FLAT:__unwindfunclet$??0ioWhirlwndAttack@@QAE@XZ$9
	DD	09H
	DD	FLAT:__unwindfunclet$??0ioWhirlwndAttack@@QAE@XZ$10
	DD	0aH
	DD	FLAT:__unwindfunclet$??0ioWhirlwndAttack@@QAE@XZ$11
	DD	0bH
	DD	FLAT:__unwindfunclet$??0ioWhirlwndAttack@@QAE@XZ$12
	DD	0cH
	DD	FLAT:__unwindfunclet$??0ioWhirlwndAttack@@QAE@XZ$13
	DD	0dH
	DD	FLAT:__unwindfunclet$??0ioWhirlwndAttack@@QAE@XZ$14
; Function compile flags: /Ogsp
; File d:\lost saga for developer\youtube\tutorial\source\src\lsclient\iowhirlwndattack.cpp
xdata$x	ENDS
;	COMDAT ??0ioWhirlwndAttack@@QAE@XZ
_TEXT	SEGMENT
_this$ = -16						; size = 4
__$EHRec$ = -12						; size = 12
??0ioWhirlwndAttack@@QAE@XZ PROC			; ioWhirlwndAttack::ioWhirlwndAttack, COMDAT
; _this$ = ecx

; 13   : {

  00000	6a 04		 push	 4
  00002	b8 00 00 00 00	 mov	 eax, __ehhandler$??0ioWhirlwndAttack@@QAE@XZ
  00007	e8 00 00 00 00	 call	 __EH_prolog3
  0000c	8b f1		 mov	 esi, ecx
  0000e	89 75 f0	 mov	 DWORD PTR _this$[ebp], esi
  00011	e8 00 00 00 00	 call	 ??0ioAttackSkill@@QAE@XZ ; ioAttackSkill::ioAttackSkill
  00016	8b 3d 00 00 00
	00		 mov	 edi, DWORD PTR __imp_??0ioHashString@@QAE@XZ
  0001c	83 65 fc 00	 and	 DWORD PTR __$EHRec$[ebp+8], 0
  00020	8d 8e ec 10 00
	00		 lea	 ecx, DWORD PTR [esi+4332]
  00026	c7 06 00 00 00
	00		 mov	 DWORD PTR [esi], OFFSET ??_7ioWhirlwndAttack@@6B@
  0002c	ff d7		 call	 edi
  0002e	8d 8e 28 11 00
	00		 lea	 ecx, DWORD PTR [esi+4392]
  00034	c6 45 fc 01	 mov	 BYTE PTR __$EHRec$[ebp+8], 1
  00038	ff d7		 call	 edi
  0003a	8d 8e 38 11 00
	00		 lea	 ecx, DWORD PTR [esi+4408]
  00040	c6 45 fc 02	 mov	 BYTE PTR __$EHRec$[ebp+8], 2
  00044	ff d7		 call	 edi
  00046	8d 8e 48 11 00
	00		 lea	 ecx, DWORD PTR [esi+4424]
  0004c	c6 45 fc 03	 mov	 BYTE PTR __$EHRec$[ebp+8], 3
  00050	ff d7		 call	 edi
  00052	8d 8e 58 11 00
	00		 lea	 ecx, DWORD PTR [esi+4440]
  00058	c6 45 fc 04	 mov	 BYTE PTR __$EHRec$[ebp+8], 4
  0005c	ff d7		 call	 edi
  0005e	8d 8e 68 11 00
	00		 lea	 ecx, DWORD PTR [esi+4456]
  00064	c6 45 fc 05	 mov	 BYTE PTR __$EHRec$[ebp+8], 5
  00068	ff d7		 call	 edi
  0006a	8d 8e 78 11 00
	00		 lea	 ecx, DWORD PTR [esi+4472]
  00070	c6 45 fc 06	 mov	 BYTE PTR __$EHRec$[ebp+8], 6
  00074	e8 00 00 00 00	 call	 ??0AttackAttribute@@QAE@XZ ; AttackAttribute::AttackAttribute
  00079	8d 8e c8 11 00
	00		 lea	 ecx, DWORD PTR [esi+4552]
  0007f	c6 45 fc 07	 mov	 BYTE PTR __$EHRec$[ebp+8], 7
  00083	ff d7		 call	 edi
  00085	8d 8e fc 11 00
	00		 lea	 ecx, DWORD PTR [esi+4604]
  0008b	c6 45 fc 08	 mov	 BYTE PTR __$EHRec$[ebp+8], 8
  0008f	ff d7		 call	 edi
  00091	8d 8e 24 12 00
	00		 lea	 ecx, DWORD PTR [esi+4644]
  00097	c6 45 fc 09	 mov	 BYTE PTR __$EHRec$[ebp+8], 9
  0009b	ff d7		 call	 edi
  0009d	8d 8e 38 12 00
	00		 lea	 ecx, DWORD PTR [esi+4664]
  000a3	c6 45 fc 0a	 mov	 BYTE PTR __$EHRec$[ebp+8], 10 ; 0000000aH
  000a7	ff d7		 call	 edi
  000a9	8d 8e 50 12 00
	00		 lea	 ecx, DWORD PTR [esi+4688]
  000af	c6 45 fc 0b	 mov	 BYTE PTR __$EHRec$[ebp+8], 11 ; 0000000bH
  000b3	e8 00 00 00 00	 call	 ??0WeaponInfo@@QAE@XZ	; WeaponInfo::WeaponInfo
  000b8	8d 8e 78 12 00
	00		 lea	 ecx, DWORD PTR [esi+4728]
  000be	c6 45 fc 0c	 mov	 BYTE PTR __$EHRec$[ebp+8], 12 ; 0000000cH
  000c2	ff d7		 call	 edi
  000c4	8d 8e a0 12 00
	00		 lea	 ecx, DWORD PTR [esi+4768]
  000ca	c6 45 fc 0d	 mov	 BYTE PTR __$EHRec$[ebp+8], 13 ; 0000000dH
  000ce	e8 00 00 00 00	 call	 ??0AttackAttribute@@QAE@XZ ; AttackAttribute::AttackAttribute

; 14   : 	Init();

  000d3	8b ce		 mov	 ecx, esi
  000d5	c6 45 fc 0e	 mov	 BYTE PTR __$EHRec$[ebp+8], 14 ; 0000000eH
  000d9	e8 00 00 00 00	 call	 ?Init@ioWhirlwndAttack@@QAEXXZ ; ioWhirlwndAttack::Init

; 15   : }

  000de	8b c6		 mov	 eax, esi
  000e0	e8 00 00 00 00	 call	 __EH_epilog3
  000e5	c3		 ret	 0
_TEXT	ENDS
;	COMDAT text$x
text$x	SEGMENT
__unwindfunclet$??0ioWhirlwndAttack@@QAE@XZ$0:
  00000	8b 4d f0	 mov	 ecx, DWORD PTR _this$[ebp]
  00003	e9 00 00 00 00	 jmp	 ??1ioAttackSkill@@UAE@XZ ; ioAttackSkill::~ioAttackSkill
__unwindfunclet$??0ioWhirlwndAttack@@QAE@XZ$1:
  00008	8b 4d f0	 mov	 ecx, DWORD PTR _this$[ebp]
  0000b	81 c1 ec 10 00
	00		 add	 ecx, 4332		; 000010ecH
  00011	ff 25 00 00 00
	00		 jmp	 DWORD PTR __imp_??1ioHashString@@QAE@XZ
__unwindfunclet$??0ioWhirlwndAttack@@QAE@XZ$2:
  00017	8b 4d f0	 mov	 ecx, DWORD PTR _this$[ebp]
  0001a	81 c1 28 11 00
	00		 add	 ecx, 4392		; 00001128H
  00020	ff 25 00 00 00
	00		 jmp	 DWORD PTR __imp_??1ioHashString@@QAE@XZ
__unwindfunclet$??0ioWhirlwndAttack@@QAE@XZ$3:
  00026	8b 4d f0	 mov	 ecx, DWORD PTR _this$[ebp]
  00029	81 c1 38 11 00
	00		 add	 ecx, 4408		; 00001138H
  0002f	ff 25 00 00 00
	00		 jmp	 DWORD PTR __imp_??1ioHashString@@QAE@XZ
__unwindfunclet$??0ioWhirlwndAttack@@QAE@XZ$4:
  00035	8b 4d f0	 mov	 ecx, DWORD PTR _this$[ebp]
  00038	81 c1 48 11 00
	00		 add	 ecx, 4424		; 00001148H
  0003e	ff 25 00 00 00
	00		 jmp	 DWORD PTR __imp_??1ioHashString@@QAE@XZ
__unwindfunclet$??0ioWhirlwndAttack@@QAE@XZ$5:
  00044	8b 4d f0	 mov	 ecx, DWORD PTR _this$[ebp]
  00047	81 c1 58 11 00
	00		 add	 ecx, 4440		; 00001158H
  0004d	ff 25 00 00 00
	00		 jmp	 DWORD PTR __imp_??1ioHashString@@QAE@XZ
__unwindfunclet$??0ioWhirlwndAttack@@QAE@XZ$6:
  00053	8b 4d f0	 mov	 ecx, DWORD PTR _this$[ebp]
  00056	81 c1 68 11 00
	00		 add	 ecx, 4456		; 00001168H
  0005c	ff 25 00 00 00
	00		 jmp	 DWORD PTR __imp_??1ioHashString@@QAE@XZ
__unwindfunclet$??0ioWhirlwndAttack@@QAE@XZ$7:
  00062	8b 4d f0	 mov	 ecx, DWORD PTR _this$[ebp]
  00065	81 c1 78 11 00
	00		 add	 ecx, 4472		; 00001178H
  0006b	e9 00 00 00 00	 jmp	 ??1AttackAttribute@@QAE@XZ
__unwindfunclet$??0ioWhirlwndAttack@@QAE@XZ$8:
  00070	8b 4d f0	 mov	 ecx, DWORD PTR _this$[ebp]
  00073	81 c1 c8 11 00
	00		 add	 ecx, 4552		; 000011c8H
  00079	ff 25 00 00 00
	00		 jmp	 DWORD PTR __imp_??1ioHashString@@QAE@XZ
__unwindfunclet$??0ioWhirlwndAttack@@QAE@XZ$9:
  0007f	8b 4d f0	 mov	 ecx, DWORD PTR _this$[ebp]
  00082	81 c1 fc 11 00
	00		 add	 ecx, 4604		; 000011fcH
  00088	ff 25 00 00 00
	00		 jmp	 DWORD PTR __imp_??1ioHashString@@QAE@XZ
__unwindfunclet$??0ioWhirlwndAttack@@QAE@XZ$10:
  0008e	8b 4d f0	 mov	 ecx, DWORD PTR _this$[ebp]
  00091	81 c1 24 12 00
	00		 add	 ecx, 4644		; 00001224H
  00097	ff 25 00 00 00
	00		 jmp	 DWORD PTR __imp_??1ioHashString@@QAE@XZ
__unwindfunclet$??0ioWhirlwndAttack@@QAE@XZ$11:
  0009d	8b 4d f0	 mov	 ecx, DWORD PTR _this$[ebp]
  000a0	81 c1 38 12 00
	00		 add	 ecx, 4664		; 00001238H
  000a6	ff 25 00 00 00
	00		 jmp	 DWORD PTR __imp_??1ioHashString@@QAE@XZ
__unwindfunclet$??0ioWhirlwndAttack@@QAE@XZ$12:
  000ac	8b 4d f0	 mov	 ecx, DWORD PTR _this$[ebp]
  000af	81 c1 50 12 00
	00		 add	 ecx, 4688		; 00001250H
  000b5	e9 00 00 00 00	 jmp	 ??1WeaponInfo@@QAE@XZ
__unwindfunclet$??0ioWhirlwndAttack@@QAE@XZ$13:
  000ba	8b 4d f0	 mov	 ecx, DWORD PTR _this$[ebp]
  000bd	81 c1 78 12 00
	00		 add	 ecx, 4728		; 00001278H
  000c3	ff 25 00 00 00
	00		 jmp	 DWORD PTR __imp_??1ioHashString@@QAE@XZ
__unwindfunclet$??0ioWhirlwndAttack@@QAE@XZ$14:
  000c9	8b 4d f0	 mov	 ecx, DWORD PTR _this$[ebp]
  000cc	81 c1 a0 12 00
	00		 add	 ecx, 4768		; 000012a0H
  000d2	e9 00 00 00 00	 jmp	 ??1AttackAttribute@@QAE@XZ
__ehhandler$??0ioWhirlwndAttack@@QAE@XZ:
  000d7	8b 54 24 08	 mov	 edx, DWORD PTR [esp+8]
  000db	8d 42 0c	 lea	 eax, DWORD PTR [edx+12]
  000de	8b 4a ec	 mov	 ecx, DWORD PTR [edx-20]
  000e1	33 c8		 xor	 ecx, eax
  000e3	e8 00 00 00 00	 call	 @__security_check_cookie@4
  000e8	b8 00 00 00 00	 mov	 eax, OFFSET __ehfuncinfo$??0ioWhirlwndAttack@@QAE@XZ
  000ed	e9 00 00 00 00	 jmp	 ___CxxFrameHandler3
text$x	ENDS
??0ioWhirlwndAttack@@QAE@XZ ENDP			; ioWhirlwndAttack::ioWhirlwndAttack
; Function compile flags: /Ogsp
; File d:\lost saga for developer\youtube\tutorial\source\src\lsclient\ioskill.h
;	COMDAT ?GetDefenseSkillBreakeType@ioSkill@@UBE?AW4DefenseBreakType@@XZ
_TEXT	SEGMENT
?GetDefenseSkillBreakeType@ioSkill@@UBE?AW4DefenseBreakType@@XZ PROC ; ioSkill::GetDefenseSkillBreakeType, COMDAT
; _this$ = ecx

; 327  : 	virtual DefenseBreakType GetDefenseSkillBreakeType() const { return m_eDefenseSkillBreakType; }

  00000	8b 81 30 0e 00
	00		 mov	 eax, DWORD PTR [ecx+3632]
  00006	c3		 ret	 0
?GetDefenseSkillBreakeType@ioSkill@@UBE?AW4DefenseBreakType@@XZ ENDP ; ioSkill::GetDefenseSkillBreakeType
; Function compile flags: /Ogsp
_TEXT	ENDS
;	COMDAT ?GetSkillEndNextJumpAmt@ioSkill@@UBEMXZ
_TEXT	SEGMENT
?GetSkillEndNextJumpAmt@ioSkill@@UBEMXZ PROC		; ioSkill::GetSkillEndNextJumpAmt, COMDAT
; _this$ = ecx

; 335  : 	virtual float GetSkillEndNextJumpAmt() const { return m_fSkillEndNextJumpAmt; }

  00000	d9 81 4c 05 00
	00		 fld	 DWORD PTR [ecx+1356]
  00006	c3		 ret	 0
?GetSkillEndNextJumpAmt@ioSkill@@UBEMXZ ENDP		; ioSkill::GetSkillEndNextJumpAmt
; Function compile flags: /Ogsp
_TEXT	ENDS
;	COMDAT ?GetSkillEndNextLandRate@ioSkill@@UBEMXZ
_TEXT	SEGMENT
?GetSkillEndNextLandRate@ioSkill@@UBEMXZ PROC		; ioSkill::GetSkillEndNextLandRate, COMDAT
; _this$ = ecx

; 336  : 	virtual float GetSkillEndNextLandRate() const { return m_fSkillEndNextLandRate; }

  00000	d9 81 50 05 00
	00		 fld	 DWORD PTR [ecx+1360]
  00006	c3		 ret	 0
?GetSkillEndNextLandRate@ioSkill@@UBEMXZ ENDP		; ioSkill::GetSkillEndNextLandRate
; Function compile flags: /Ogsp
_TEXT	ENDS
;	COMDAT ?GetSkillEndNextJumpMustEnable@ioSkill@@UAE?AW4SkillEndJumpType@@XZ
_TEXT	SEGMENT
?GetSkillEndNextJumpMustEnable@ioSkill@@UAE?AW4SkillEndJumpType@@XZ PROC ; ioSkill::GetSkillEndNextJumpMustEnable, COMDAT
; _this$ = ecx

; 337  : 	virtual SkillEndJumpType GetSkillEndNextJumpMustEnable(){ return SEJT_DEFAULT; }

  00000	33 c0		 xor	 eax, eax
  00002	c3		 ret	 0
?GetSkillEndNextJumpMustEnable@ioSkill@@UAE?AW4SkillEndJumpType@@XZ ENDP ; ioSkill::GetSkillEndNextJumpMustEnable
; Function compile flags: /Ogsp
_TEXT	ENDS
;	COMDAT ?EnableChangeGrapplingTargetPos@ioSkill@@UBE_NXZ
_TEXT	SEGMENT
?EnableChangeGrapplingTargetPos@ioSkill@@UBE_NXZ PROC	; ioSkill::EnableChangeGrapplingTargetPos, COMDAT
; _this$ = ecx

; 355  : 	virtual bool EnableChangeGrapplingTargetPos() const { return m_bChangeGrapplingTargetPos; }

  00000	8a 81 40 09 00
	00		 mov	 al, BYTE PTR [ecx+2368]
  00006	c3		 ret	 0
?EnableChangeGrapplingTargetPos@ioSkill@@UBE_NXZ ENDP	; ioSkill::EnableChangeGrapplingTargetPos
; Function compile flags: /Ogsp
_TEXT	ENDS
;	COMDAT ?IsInvisibleBottomCircle@ioSkill@@UAE_NPAVioBaseChar@@@Z
_TEXT	SEGMENT
_pChar$ = 8						; size = 4
?IsInvisibleBottomCircle@ioSkill@@UAE_NPAVioBaseChar@@@Z PROC ; ioSkill::IsInvisibleBottomCircle, COMDAT
; _this$ = ecx

; 393  : 	virtual bool IsInvisibleBottomCircle( ioBaseChar *pChar ) { return false; }

  00000	32 c0		 xor	 al, al
  00002	c2 04 00	 ret	 4
?IsInvisibleBottomCircle@ioSkill@@UAE_NPAVioBaseChar@@@Z ENDP ; ioSkill::IsInvisibleBottomCircle
; Function compile flags: /Ogsp
_TEXT	ENDS
;	COMDAT ?IsUseActiveCnt@ioSkill@@UBE_NXZ
_TEXT	SEGMENT
?IsUseActiveCnt@ioSkill@@UBE_NXZ PROC			; ioSkill::IsUseActiveCnt, COMDAT
; _this$ = ecx

; 544  : 	virtual bool IsUseActiveCnt() const { return false; }

  00000	32 c0		 xor	 al, al
  00002	c3		 ret	 0
?IsUseActiveCnt@ioSkill@@UBE_NXZ ENDP			; ioSkill::IsUseActiveCnt
; Function compile flags: /Ogsp
_TEXT	ENDS
;	COMDAT ?GetMaxActiveCnt@ioSkill@@UBEHPAVioBaseChar@@@Z
_TEXT	SEGMENT
_pChar$ = 8						; size = 4
?GetMaxActiveCnt@ioSkill@@UBEHPAVioBaseChar@@@Z PROC	; ioSkill::GetMaxActiveCnt, COMDAT
; _this$ = ecx

; 545  : 	virtual int GetMaxActiveCnt( ioBaseChar *pChar ) const { return 0; }

  00000	33 c0		 xor	 eax, eax
  00002	c2 04 00	 ret	 4
?GetMaxActiveCnt@ioSkill@@UBEHPAVioBaseChar@@@Z ENDP	; ioSkill::GetMaxActiveCnt
; Function compile flags: /Ogsp
_TEXT	ENDS
;	COMDAT ?GetCurActiveCnt@ioSkill@@UBEHPAVioBaseChar@@@Z
_TEXT	SEGMENT
_pChar$ = 8						; size = 4
?GetCurActiveCnt@ioSkill@@UBEHPAVioBaseChar@@@Z PROC	; ioSkill::GetCurActiveCnt, COMDAT
; _this$ = ecx

; 546  : 	virtual int GetCurActiveCnt( ioBaseChar *pChar ) const { return 0; }

  00000	33 c0		 xor	 eax, eax
  00002	c2 04 00	 ret	 4
?GetCurActiveCnt@ioSkill@@UBEHPAVioBaseChar@@@Z ENDP	; ioSkill::GetCurActiveCnt
; Function compile flags: /Ogsp
_TEXT	ENDS
;	COMDAT ?IsCanJumpingSkill@ioSkill@@UBE_NXZ
_TEXT	SEGMENT
_value$558313 = -1					; size = 1
?IsCanJumpingSkill@ioSkill@@UBE_NXZ PROC		; ioSkill::IsCanJumpingSkill, COMDAT
; _this$ = ecx

; 431  : 	virtual bool IsCanJumpingSkill() const { return m_bEnableJumpingSkill; }

  00000	55		 push	 ebp
  00001	8b ec		 mov	 ebp, esp
  00003	51		 push	 ecx
  00004	8d 45 ff	 lea	 eax, DWORD PTR _value$558313[ebp]
  00007	50		 push	 eax
  00008	81 c1 9c 03 00
	00		 add	 ecx, 924		; 0000039cH
  0000e	e8 00 00 00 00	 call	 ?DecryptValueToPool@?$CEncrypt@_N@@QAEXPA_N@Z ; CEncrypt<bool>::DecryptValueToPool
  00013	8a 45 ff	 mov	 al, BYTE PTR _value$558313[ebp]
  00016	c9		 leave
  00017	c3		 ret	 0
?IsCanJumpingSkill@ioSkill@@UBE_NXZ ENDP		; ioSkill::IsCanJumpingSkill
; Function compile flags: /Ogsp
_TEXT	ENDS
;	COMDAT ?IsCanJumpingSkillOnBlowWound@ioSkill@@UBE_NXZ
_TEXT	SEGMENT
_value$558320 = -1					; size = 1
?IsCanJumpingSkillOnBlowWound@ioSkill@@UBE_NXZ PROC	; ioSkill::IsCanJumpingSkillOnBlowWound, COMDAT
; _this$ = ecx

; 432  : 	virtual bool IsCanJumpingSkillOnBlowWound() const { return m_bEnableJumpingSkillOnBlowWound; }

  00000	55		 push	 ebp
  00001	8b ec		 mov	 ebp, esp
  00003	51		 push	 ecx
  00004	8d 45 ff	 lea	 eax, DWORD PTR _value$558320[ebp]
  00007	50		 push	 eax
  00008	81 c1 cc 03 00
	00		 add	 ecx, 972		; 000003ccH
  0000e	e8 00 00 00 00	 call	 ?DecryptValueToPool@?$CEncrypt@_N@@QAEXPA_N@Z ; CEncrypt<bool>::DecryptValueToPool
  00013	8a 45 ff	 mov	 al, BYTE PTR _value$558320[ebp]
  00016	c9		 leave
  00017	c3		 ret	 0
?IsCanJumpingSkillOnBlowWound@ioSkill@@UBE_NXZ ENDP	; ioSkill::IsCanJumpingSkillOnBlowWound
; Function compile flags: /Ogsp
_TEXT	ENDS
;	COMDAT ?IsCanDownSkill@ioSkill@@UBE_NXZ
_TEXT	SEGMENT
_value$558327 = -1					; size = 1
?IsCanDownSkill@ioSkill@@UBE_NXZ PROC			; ioSkill::IsCanDownSkill, COMDAT
; _this$ = ecx

; 437  : 	virtual bool IsCanDownSkill() const { return m_bEnableDownSkill; }

  00000	55		 push	 ebp
  00001	8b ec		 mov	 ebp, esp
  00003	51		 push	 ecx
  00004	8d 45 ff	 lea	 eax, DWORD PTR _value$558327[ebp]
  00007	50		 push	 eax
  00008	81 c1 5c 04 00
	00		 add	 ecx, 1116		; 0000045cH
  0000e	e8 00 00 00 00	 call	 ?DecryptValueToPool@?$CEncrypt@_N@@QAEXPA_N@Z ; CEncrypt<bool>::DecryptValueToPool
  00013	8a 45 ff	 mov	 al, BYTE PTR _value$558327[ebp]
  00016	c9		 leave
  00017	c3		 ret	 0
?IsCanDownSkill@ioSkill@@UBE_NXZ ENDP			; ioSkill::IsCanDownSkill
; Function compile flags: /Ogsp
_TEXT	ENDS
;	COMDAT ?IsCanBlowWoundSkill@ioSkill@@UBE_NXZ
_TEXT	SEGMENT
_value$558334 = -1					; size = 1
?IsCanBlowWoundSkill@ioSkill@@UBE_NXZ PROC		; ioSkill::IsCanBlowWoundSkill, COMDAT
; _this$ = ecx

; 440  : 	virtual bool IsCanBlowWoundSkill() const { return m_bEnableBlowWoundSkill; }

  00000	55		 push	 ebp
  00001	8b ec		 mov	 ebp, esp
  00003	51		 push	 ecx
  00004	8d 45 ff	 lea	 eax, DWORD PTR _value$558334[ebp]
  00007	50		 push	 eax
  00008	81 c1 8c 04 00
	00		 add	 ecx, 1164		; 0000048cH
  0000e	e8 00 00 00 00	 call	 ?DecryptValueToPool@?$CEncrypt@_N@@QAEXPA_N@Z ; CEncrypt<bool>::DecryptValueToPool
  00013	8a 45 ff	 mov	 al, BYTE PTR _value$558334[ebp]
  00016	c9		 leave
  00017	c3		 ret	 0
?IsCanBlowWoundSkill@ioSkill@@UBE_NXZ ENDP		; ioSkill::IsCanBlowWoundSkill
; Function compile flags: /Ogsp
_TEXT	ENDS
;	COMDAT ?IsCanWoundSkill@ioSkill@@UBE_NXZ
_TEXT	SEGMENT
_value$558341 = -1					; size = 1
?IsCanWoundSkill@ioSkill@@UBE_NXZ PROC			; ioSkill::IsCanWoundSkill, COMDAT
; _this$ = ecx

; 446  : 	virtual bool IsCanWoundSkill() const { return m_bEnableWoundSkill; }

  00000	55		 push	 ebp
  00001	8b ec		 mov	 ebp, esp
  00003	51		 push	 ecx
  00004	8d 45 ff	 lea	 eax, DWORD PTR _value$558341[ebp]
  00007	50		 push	 eax
  00008	81 c1 54 05 00
	00		 add	 ecx, 1364		; 00000554H
  0000e	e8 00 00 00 00	 call	 ?DecryptValueToPool@?$CEncrypt@_N@@QAEXPA_N@Z ; CEncrypt<bool>::DecryptValueToPool
  00013	8a 45 ff	 mov	 al, BYTE PTR _value$558341[ebp]
  00016	c9		 leave
  00017	c3		 ret	 0
?IsCanWoundSkill@ioSkill@@UBE_NXZ ENDP			; ioSkill::IsCanWoundSkill
_TEXT	ENDS
PUBLIC	??0ioWhirlwndAttack@@QAE@ABV0@@Z		; ioWhirlwndAttack::ioWhirlwndAttack
EXTRN	??0ioAttackSkill@@QAE@ABV0@@Z:PROC		; ioAttackSkill::ioAttackSkill
;	COMDAT xdata$x
; File c:\program files (x86)\microsoft directx sdk (june 2010)\include\d3dx9math.h
xdata$x	SEGMENT
__ehfuncinfo$??0ioWhirlwndAttack@@QAE@ABV0@@Z DD 019930522H
	DD	0fH
	DD	FLAT:__unwindtable$??0ioWhirlwndAttack@@QAE@ABV0@@Z
	DD	2 DUP(00H)
	DD	2 DUP(00H)
	DD	00H
	DD	01H
__unwindtable$??0ioWhirlwndAttack@@QAE@ABV0@@Z DD 0ffffffffH
	DD	FLAT:__unwindfunclet$??0ioWhirlwndAttack@@QAE@ABV0@@Z$0
	DD	00H
	DD	FLAT:__unwindfunclet$??0ioWhirlwndAttack@@QAE@ABV0@@Z$1
	DD	01H
	DD	FLAT:__unwindfunclet$??0ioWhirlwndAttack@@QAE@ABV0@@Z$2
	DD	02H
	DD	FLAT:__unwindfunclet$??0ioWhirlwndAttack@@QAE@ABV0@@Z$3
	DD	03H
	DD	FLAT:__unwindfunclet$??0ioWhirlwndAttack@@QAE@ABV0@@Z$4
	DD	04H
	DD	FLAT:__unwindfunclet$??0ioWhirlwndAttack@@QAE@ABV0@@Z$5
	DD	05H
	DD	FLAT:__unwindfunclet$??0ioWhirlwndAttack@@QAE@ABV0@@Z$6
	DD	06H
	DD	FLAT:__unwindfunclet$??0ioWhirlwndAttack@@QAE@ABV0@@Z$7
	DD	07H
	DD	FLAT:__unwindfunclet$??0ioWhirlwndAttack@@QAE@ABV0@@Z$8
	DD	08H
	DD	FLAT:__unwindfunclet$??0ioWhirlwndAttack@@QAE@ABV0@@Z$9
	DD	09H
	DD	FLAT:__unwindfunclet$??0ioWhirlwndAttack@@QAE@ABV0@@Z$10
	DD	0aH
	DD	FLAT:__unwindfunclet$??0ioWhirlwndAttack@@QAE@ABV0@@Z$11
	DD	0bH
	DD	FLAT:__unwindfunclet$??0ioWhirlwndAttack@@QAE@ABV0@@Z$12
	DD	0cH
	DD	FLAT:__unwindfunclet$??0ioWhirlwndAttack@@QAE@ABV0@@Z$13
	DD	0dH
	DD	FLAT:__unwindfunclet$??0ioWhirlwndAttack@@QAE@ABV0@@Z$14
; Function compile flags: /Ogsp
; File d:\lost saga for developer\youtube\tutorial\source\src\lsclient\iowhirlwndattack.cpp
xdata$x	ENDS
;	COMDAT ??0ioWhirlwndAttack@@QAE@ABV0@@Z
_TEXT	SEGMENT
_this$ = -16						; size = 4
__$EHRec$ = -12						; size = 12
_rhs$ = 8						; size = 4
??0ioWhirlwndAttack@@QAE@ABV0@@Z PROC			; ioWhirlwndAttack::ioWhirlwndAttack, COMDAT
; _this$ = ecx

; 46   : {

  00000	6a 04		 push	 4
  00002	b8 00 00 00 00	 mov	 eax, __ehhandler$??0ioWhirlwndAttack@@QAE@ABV0@@Z
  00007	e8 00 00 00 00	 call	 __EH_prolog3
  0000c	8b f1		 mov	 esi, ecx
  0000e	89 75 f0	 mov	 DWORD PTR _this$[ebp], esi
  00011	8b 7d 08	 mov	 edi, DWORD PTR _rhs$[ebp]
  00014	57		 push	 edi
  00015	e8 00 00 00 00	 call	 ??0ioAttackSkill@@QAE@ABV0@@Z ; ioAttackSkill::ioAttackSkill
  0001a	8b 1d 00 00 00
	00		 mov	 ebx, DWORD PTR __imp_??0ioHashString@@QAE@ABV0@@Z
  00020	83 65 fc 00	 and	 DWORD PTR __$EHRec$[ebp+8], 0
  00024	c7 06 00 00 00
	00		 mov	 DWORD PTR [esi], OFFSET ??_7ioWhirlwndAttack@@6B@
  0002a	8b 87 e8 10 00
	00		 mov	 eax, DWORD PTR [edi+4328]
  00030	89 86 e8 10 00
	00		 mov	 DWORD PTR [esi+4328], eax
  00036	8d 87 ec 10 00
	00		 lea	 eax, DWORD PTR [edi+4332]
  0003c	50		 push	 eax
  0003d	8d 8e ec 10 00
	00		 lea	 ecx, DWORD PTR [esi+4332]
  00043	ff d3		 call	 ebx
  00045	d9 87 fc 10 00
	00		 fld	 DWORD PTR [edi+4348]
  0004b	d9 9e fc 10 00
	00		 fstp	 DWORD PTR [esi+4348]
  00051	8b 87 04 11 00
	00		 mov	 eax, DWORD PTR [edi+4356]
  00057	89 86 04 11 00
	00		 mov	 DWORD PTR [esi+4356], eax
  0005d	d9 87 08 11 00
	00		 fld	 DWORD PTR [edi+4360]
  00063	d9 9e 08 11 00
	00		 fstp	 DWORD PTR [esi+4360]
  00069	8d 87 28 11 00
	00		 lea	 eax, DWORD PTR [edi+4392]
  0006f	d9 87 0c 11 00
	00		 fld	 DWORD PTR [edi+4364]
  00075	50		 push	 eax
  00076	d9 9e 0c 11 00
	00		 fstp	 DWORD PTR [esi+4364]
  0007c	8d 8e 28 11 00
	00		 lea	 ecx, DWORD PTR [esi+4392]
  00082	d9 87 10 11 00
	00		 fld	 DWORD PTR [edi+4368]
  00088	c6 45 fc 01	 mov	 BYTE PTR __$EHRec$[ebp+8], 1
  0008c	d9 9e 10 11 00
	00		 fstp	 DWORD PTR [esi+4368]
  00092	d9 87 14 11 00
	00		 fld	 DWORD PTR [edi+4372]
  00098	d9 9e 14 11 00
	00		 fstp	 DWORD PTR [esi+4372]
  0009e	ff d3		 call	 ebx
  000a0	8d 87 38 11 00
	00		 lea	 eax, DWORD PTR [edi+4408]
  000a6	50		 push	 eax
  000a7	8d 8e 38 11 00
	00		 lea	 ecx, DWORD PTR [esi+4408]
  000ad	c6 45 fc 02	 mov	 BYTE PTR __$EHRec$[ebp+8], 2
  000b1	ff d3		 call	 ebx
  000b3	8d 8e 48 11 00
	00		 lea	 ecx, DWORD PTR [esi+4424]
  000b9	c6 45 fc 03	 mov	 BYTE PTR __$EHRec$[ebp+8], 3
  000bd	ff 15 00 00 00
	00		 call	 DWORD PTR __imp_??0ioHashString@@QAE@XZ
  000c3	8d 8e 58 11 00
	00		 lea	 ecx, DWORD PTR [esi+4440]
  000c9	c6 45 fc 04	 mov	 BYTE PTR __$EHRec$[ebp+8], 4
  000cd	ff 15 00 00 00
	00		 call	 DWORD PTR __imp_??0ioHashString@@QAE@XZ
  000d3	8d 8e 68 11 00
	00		 lea	 ecx, DWORD PTR [esi+4456]
  000d9	c6 45 fc 05	 mov	 BYTE PTR __$EHRec$[ebp+8], 5
  000dd	ff 15 00 00 00
	00		 call	 DWORD PTR __imp_??0ioHashString@@QAE@XZ
  000e3	8d 87 78 11 00
	00		 lea	 eax, DWORD PTR [edi+4472]
  000e9	50		 push	 eax
  000ea	8d 8e 78 11 00
	00		 lea	 ecx, DWORD PTR [esi+4472]
  000f0	c6 45 fc 06	 mov	 BYTE PTR __$EHRec$[ebp+8], 6
  000f4	e8 00 00 00 00	 call	 ??0AttackAttribute@@QAE@ABU0@@Z
  000f9	8d 87 c8 11 00
	00		 lea	 eax, DWORD PTR [edi+4552]
  000ff	50		 push	 eax
  00100	8d 8e c8 11 00
	00		 lea	 ecx, DWORD PTR [esi+4552]
  00106	c6 45 fc 07	 mov	 BYTE PTR __$EHRec$[ebp+8], 7
  0010a	ff d3		 call	 ebx
  0010c	d9 87 d8 11 00
	00		 fld	 DWORD PTR [edi+4568]
  00112	d9 9e d8 11 00
	00		 fstp	 DWORD PTR [esi+4568]
  00118	8d 87 fc 11 00
	00		 lea	 eax, DWORD PTR [edi+4604]
  0011e	d9 87 dc 11 00
	00		 fld	 DWORD PTR [edi+4572]
  00124	50		 push	 eax
  00125	8d 8e fc 11 00
	00		 lea	 ecx, DWORD PTR [esi+4604]
  0012b	d9 9e dc 11 00
	00		 fstp	 DWORD PTR [esi+4572]
  00131	c6 45 fc 08	 mov	 BYTE PTR __$EHRec$[ebp+8], 8
  00135	ff d3		 call	 ebx
  00137	d9 87 0c 12 00
	00		 fld	 DWORD PTR [edi+4620]
  0013d	d9 9e 0c 12 00
	00		 fstp	 DWORD PTR [esi+4620]
  00143	8d 87 24 12 00
	00		 lea	 eax, DWORD PTR [edi+4644]
  00149	d9 87 18 12 00
	00		 fld	 DWORD PTR [edi+4632]
  0014f	50		 push	 eax
  00150	8d 8e 24 12 00
	00		 lea	 ecx, DWORD PTR [esi+4644]
  00156	d9 9e 18 12 00
	00		 fstp	 DWORD PTR [esi+4632]
  0015c	c6 45 fc 09	 mov	 BYTE PTR __$EHRec$[ebp+8], 9
  00160	ff d3		 call	 ebx
  00162	8d 87 38 12 00
	00		 lea	 eax, DWORD PTR [edi+4664]
  00168	50		 push	 eax
  00169	8d 8e 38 12 00
	00		 lea	 ecx, DWORD PTR [esi+4664]
  0016f	c6 45 fc 0a	 mov	 BYTE PTR __$EHRec$[ebp+8], 10 ; 0000000aH
  00173	ff d3		 call	 ebx
  00175	d9 87 48 12 00
	00		 fld	 DWORD PTR [edi+4680]
  0017b	8d 87 50 12 00
	00		 lea	 eax, DWORD PTR [edi+4688]
  00181	d9 9e 48 12 00
	00		 fstp	 DWORD PTR [esi+4680]
  00187	50		 push	 eax
  00188	8d 8e 50 12 00
	00		 lea	 ecx, DWORD PTR [esi+4688]
  0018e	c6 45 fc 0b	 mov	 BYTE PTR __$EHRec$[ebp+8], 11 ; 0000000bH
  00192	e8 00 00 00 00	 call	 ??0WeaponInfo@@QAE@ABU0@@Z
  00197	8d 87 78 12 00
	00		 lea	 eax, DWORD PTR [edi+4728]
  0019d	50		 push	 eax
  0019e	8d 8e 78 12 00
	00		 lea	 ecx, DWORD PTR [esi+4728]
  001a4	c6 45 fc 0c	 mov	 BYTE PTR __$EHRec$[ebp+8], 12 ; 0000000cH
  001a8	ff d3		 call	 ebx
  001aa	d9 87 88 12 00
	00		 fld	 DWORD PTR [edi+4744]
  001b0	d9 9e 88 12 00
	00		 fstp	 DWORD PTR [esi+4744]
  001b6	81 c7 a0 12 00
	00		 add	 edi, 4768		; 000012a0H
  001bc	d9 47 ec	 fld	 DWORD PTR [edi-20]
  001bf	57		 push	 edi
  001c0	d9 9e 8c 12 00
	00		 fstp	 DWORD PTR [esi+4748]
  001c6	8b 47 f0	 mov	 eax, DWORD PTR [edi-16]
  001c9	89 86 90 12 00
	00		 mov	 DWORD PTR [esi+4752], eax
  001cf	8b 47 fc	 mov	 eax, DWORD PTR [edi-4]
  001d2	8d 8e a0 12 00
	00		 lea	 ecx, DWORD PTR [esi+4768]
  001d8	c6 45 fc 0d	 mov	 BYTE PTR __$EHRec$[ebp+8], 13 ; 0000000dH
  001dc	89 86 9c 12 00
	00		 mov	 DWORD PTR [esi+4764], eax
  001e2	e8 00 00 00 00	 call	 ??0AttackAttribute@@QAE@ABU0@@Z

; 47   : 	Init();

  001e7	8b ce		 mov	 ecx, esi
  001e9	c6 45 fc 0e	 mov	 BYTE PTR __$EHRec$[ebp+8], 14 ; 0000000eH
  001ed	e8 00 00 00 00	 call	 ?Init@ioWhirlwndAttack@@QAEXXZ ; ioWhirlwndAttack::Init

; 48   : }

  001f2	8b c6		 mov	 eax, esi
  001f4	e8 00 00 00 00	 call	 __EH_epilog3
  001f9	c2 04 00	 ret	 4
_TEXT	ENDS
;	COMDAT text$x
text$x	SEGMENT
__unwindfunclet$??0ioWhirlwndAttack@@QAE@ABV0@@Z$0:
  00000	8b 4d f0	 mov	 ecx, DWORD PTR _this$[ebp]
  00003	e9 00 00 00 00	 jmp	 ??1ioAttackSkill@@UAE@XZ ; ioAttackSkill::~ioAttackSkill
__unwindfunclet$??0ioWhirlwndAttack@@QAE@ABV0@@Z$1:
  00008	8b 4d f0	 mov	 ecx, DWORD PTR _this$[ebp]
  0000b	81 c1 ec 10 00
	00		 add	 ecx, 4332		; 000010ecH
  00011	ff 25 00 00 00
	00		 jmp	 DWORD PTR __imp_??1ioHashString@@QAE@XZ
__unwindfunclet$??0ioWhirlwndAttack@@QAE@ABV0@@Z$2:
  00017	8b 4d f0	 mov	 ecx, DWORD PTR _this$[ebp]
  0001a	81 c1 28 11 00
	00		 add	 ecx, 4392		; 00001128H
  00020	ff 25 00 00 00
	00		 jmp	 DWORD PTR __imp_??1ioHashString@@QAE@XZ
__unwindfunclet$??0ioWhirlwndAttack@@QAE@ABV0@@Z$3:
  00026	8b 4d f0	 mov	 ecx, DWORD PTR _this$[ebp]
  00029	81 c1 38 11 00
	00		 add	 ecx, 4408		; 00001138H
  0002f	ff 25 00 00 00
	00		 jmp	 DWORD PTR __imp_??1ioHashString@@QAE@XZ
__unwindfunclet$??0ioWhirlwndAttack@@QAE@ABV0@@Z$4:
  00035	8b 4d f0	 mov	 ecx, DWORD PTR _this$[ebp]
  00038	81 c1 48 11 00
	00		 add	 ecx, 4424		; 00001148H
  0003e	ff 25 00 00 00
	00		 jmp	 DWORD PTR __imp_??1ioHashString@@QAE@XZ
__unwindfunclet$??0ioWhirlwndAttack@@QAE@ABV0@@Z$5:
  00044	8b 4d f0	 mov	 ecx, DWORD PTR _this$[ebp]
  00047	81 c1 58 11 00
	00		 add	 ecx, 4440		; 00001158H
  0004d	ff 25 00 00 00
	00		 jmp	 DWORD PTR __imp_??1ioHashString@@QAE@XZ
__unwindfunclet$??0ioWhirlwndAttack@@QAE@ABV0@@Z$6:
  00053	8b 4d f0	 mov	 ecx, DWORD PTR _this$[ebp]
  00056	81 c1 68 11 00
	00		 add	 ecx, 4456		; 00001168H
  0005c	ff 25 00 00 00
	00		 jmp	 DWORD PTR __imp_??1ioHashString@@QAE@XZ
__unwindfunclet$??0ioWhirlwndAttack@@QAE@ABV0@@Z$7:
  00062	8b 4d f0	 mov	 ecx, DWORD PTR _this$[ebp]
  00065	81 c1 78 11 00
	00		 add	 ecx, 4472		; 00001178H
  0006b	e9 00 00 00 00	 jmp	 ??1AttackAttribute@@QAE@XZ
__unwindfunclet$??0ioWhirlwndAttack@@QAE@ABV0@@Z$8:
  00070	8b 4d f0	 mov	 ecx, DWORD PTR _this$[ebp]
  00073	81 c1 c8 11 00
	00		 add	 ecx, 4552		; 000011c8H
  00079	ff 25 00 00 00
	00		 jmp	 DWORD PTR __imp_??1ioHashString@@QAE@XZ
__unwindfunclet$??0ioWhirlwndAttack@@QAE@ABV0@@Z$9:
  0007f	8b 4d f0	 mov	 ecx, DWORD PTR _this$[ebp]
  00082	81 c1 fc 11 00
	00		 add	 ecx, 4604		; 000011fcH
  00088	ff 25 00 00 00
	00		 jmp	 DWORD PTR __imp_??1ioHashString@@QAE@XZ
__unwindfunclet$??0ioWhirlwndAttack@@QAE@ABV0@@Z$10:
  0008e	8b 4d f0	 mov	 ecx, DWORD PTR _this$[ebp]
  00091	81 c1 24 12 00
	00		 add	 ecx, 4644		; 00001224H
  00097	ff 25 00 00 00
	00		 jmp	 DWORD PTR __imp_??1ioHashString@@QAE@XZ
__unwindfunclet$??0ioWhirlwndAttack@@QAE@ABV0@@Z$11:
  0009d	8b 4d f0	 mov	 ecx, DWORD PTR _this$[ebp]
  000a0	81 c1 38 12 00
	00		 add	 ecx, 4664		; 00001238H
  000a6	ff 25 00 00 00
	00		 jmp	 DWORD PTR __imp_??1ioHashString@@QAE@XZ
__unwindfunclet$??0ioWhirlwndAttack@@QAE@ABV0@@Z$12:
  000ac	8b 4d f0	 mov	 ecx, DWORD PTR _this$[ebp]
  000af	81 c1 50 12 00
	00		 add	 ecx, 4688		; 00001250H
  000b5	e9 00 00 00 00	 jmp	 ??1WeaponInfo@@QAE@XZ
__unwindfunclet$??0ioWhirlwndAttack@@QAE@ABV0@@Z$13:
  000ba	8b 4d f0	 mov	 ecx, DWORD PTR _this$[ebp]
  000bd	81 c1 78 12 00
	00		 add	 ecx, 4728		; 00001278H
  000c3	ff 25 00 00 00
	00		 jmp	 DWORD PTR __imp_??1ioHashString@@QAE@XZ
__unwindfunclet$??0ioWhirlwndAttack@@QAE@ABV0@@Z$14:
  000c9	8b 4d f0	 mov	 ecx, DWORD PTR _this$[ebp]
  000cc	81 c1 a0 12 00
	00		 add	 ecx, 4768		; 000012a0H
  000d2	e9 00 00 00 00	 jmp	 ??1AttackAttribute@@QAE@XZ
__ehhandler$??0ioWhirlwndAttack@@QAE@ABV0@@Z:
  000d7	8b 54 24 08	 mov	 edx, DWORD PTR [esp+8]
  000db	8d 42 0c	 lea	 eax, DWORD PTR [edx+12]
  000de	8b 4a ec	 mov	 ecx, DWORD PTR [edx-20]
  000e1	33 c8		 xor	 ecx, eax
  000e3	e8 00 00 00 00	 call	 @__security_check_cookie@4
  000e8	b8 00 00 00 00	 mov	 eax, OFFSET __ehfuncinfo$??0ioWhirlwndAttack@@QAE@ABV0@@Z
  000ed	e9 00 00 00 00	 jmp	 ___CxxFrameHandler3
text$x	ENDS
??0ioWhirlwndAttack@@QAE@ABV0@@Z ENDP			; ioWhirlwndAttack::ioWhirlwndAttack
PUBLIC	??1ioWhirlwndAttack@@UAE@XZ			; ioWhirlwndAttack::~ioWhirlwndAttack
;	COMDAT xdata$x
; File d:\lost saga for developer\youtube\tutorial\source\src\lsclient\playentityhelpstruct.h
xdata$x	SEGMENT
__ehfuncinfo$??1ioWhirlwndAttack@@UAE@XZ DD 019930522H
	DD	0eH
	DD	FLAT:__unwindtable$??1ioWhirlwndAttack@@UAE@XZ
	DD	2 DUP(00H)
	DD	2 DUP(00H)
	DD	00H
	DD	01H
__unwindtable$??1ioWhirlwndAttack@@UAE@XZ DD 0ffffffffH
	DD	FLAT:__unwindfunclet$??1ioWhirlwndAttack@@UAE@XZ$0
	DD	00H
	DD	FLAT:__unwindfunclet$??1ioWhirlwndAttack@@UAE@XZ$1
	DD	01H
	DD	FLAT:__unwindfunclet$??1ioWhirlwndAttack@@UAE@XZ$2
	DD	02H
	DD	FLAT:__unwindfunclet$??1ioWhirlwndAttack@@UAE@XZ$3
	DD	03H
	DD	FLAT:__unwindfunclet$??1ioWhirlwndAttack@@UAE@XZ$4
	DD	04H
	DD	FLAT:__unwindfunclet$??1ioWhirlwndAttack@@UAE@XZ$5
	DD	05H
	DD	FLAT:__unwindfunclet$??1ioWhirlwndAttack@@UAE@XZ$6
	DD	06H
	DD	FLAT:__unwindfunclet$??1ioWhirlwndAttack@@UAE@XZ$7
	DD	07H
	DD	FLAT:__unwindfunclet$??1ioWhirlwndAttack@@UAE@XZ$8
	DD	08H
	DD	FLAT:__unwindfunclet$??1ioWhirlwndAttack@@UAE@XZ$9
	DD	09H
	DD	FLAT:__unwindfunclet$??1ioWhirlwndAttack@@UAE@XZ$10
	DD	0aH
	DD	FLAT:__unwindfunclet$??1ioWhirlwndAttack@@UAE@XZ$11
	DD	0bH
	DD	FLAT:__unwindfunclet$??1ioWhirlwndAttack@@UAE@XZ$12
	DD	0cH
	DD	FLAT:__unwindfunclet$??1ioWhirlwndAttack@@UAE@XZ$13
; Function compile flags: /Ogsp
; File d:\lost saga for developer\youtube\tutorial\source\src\lsclient\iowhirlwndattack.cpp
xdata$x	ENDS
;	COMDAT ??1ioWhirlwndAttack@@UAE@XZ
_TEXT	SEGMENT
_this$ = -16						; size = 4
__$EHRec$ = -12						; size = 12
??1ioWhirlwndAttack@@UAE@XZ PROC			; ioWhirlwndAttack::~ioWhirlwndAttack, COMDAT
; _this$ = ecx

; 51   : {

  00000	6a 04		 push	 4
  00002	b8 00 00 00 00	 mov	 eax, __ehhandler$??1ioWhirlwndAttack@@UAE@XZ
  00007	e8 00 00 00 00	 call	 __EH_prolog3
  0000c	8b f9		 mov	 edi, ecx
  0000e	89 7d f0	 mov	 DWORD PTR _this$[ebp], edi
  00011	c7 07 00 00 00
	00		 mov	 DWORD PTR [edi], OFFSET ??_7ioWhirlwndAttack@@6B@

; 52   : }

  00017	8d 8f a0 12 00
	00		 lea	 ecx, DWORD PTR [edi+4768]
  0001d	c7 45 fc 0d 00
	00 00		 mov	 DWORD PTR __$EHRec$[ebp+8], 13 ; 0000000dH
  00024	e8 00 00 00 00	 call	 ??1AttackAttribute@@QAE@XZ
  00029	8b 35 00 00 00
	00		 mov	 esi, DWORD PTR __imp_??1ioHashString@@QAE@XZ
  0002f	8d 8f 78 12 00
	00		 lea	 ecx, DWORD PTR [edi+4728]
  00035	c6 45 fc 0c	 mov	 BYTE PTR __$EHRec$[ebp+8], 12 ; 0000000cH
  00039	ff d6		 call	 esi
  0003b	8d 8f 58 12 00
	00		 lea	 ecx, DWORD PTR [edi+4696]
  00041	c6 45 fc 0b	 mov	 BYTE PTR __$EHRec$[ebp+8], 11 ; 0000000bH
  00045	ff d6		 call	 esi
  00047	8d 8f 38 12 00
	00		 lea	 ecx, DWORD PTR [edi+4664]
  0004d	c6 45 fc 0a	 mov	 BYTE PTR __$EHRec$[ebp+8], 10 ; 0000000aH
  00051	ff d6		 call	 esi
  00053	8d 8f 24 12 00
	00		 lea	 ecx, DWORD PTR [edi+4644]
  00059	c6 45 fc 09	 mov	 BYTE PTR __$EHRec$[ebp+8], 9
  0005d	ff d6		 call	 esi
  0005f	8d 8f fc 11 00
	00		 lea	 ecx, DWORD PTR [edi+4604]
  00065	c6 45 fc 08	 mov	 BYTE PTR __$EHRec$[ebp+8], 8
  00069	ff d6		 call	 esi
  0006b	8d 8f c8 11 00
	00		 lea	 ecx, DWORD PTR [edi+4552]
  00071	c6 45 fc 07	 mov	 BYTE PTR __$EHRec$[ebp+8], 7
  00075	ff d6		 call	 esi
  00077	8d 8f 78 11 00
	00		 lea	 ecx, DWORD PTR [edi+4472]
  0007d	c6 45 fc 06	 mov	 BYTE PTR __$EHRec$[ebp+8], 6
  00081	e8 00 00 00 00	 call	 ??1AttackAttribute@@QAE@XZ
  00086	8d 8f 68 11 00
	00		 lea	 ecx, DWORD PTR [edi+4456]
  0008c	c6 45 fc 05	 mov	 BYTE PTR __$EHRec$[ebp+8], 5
  00090	ff d6		 call	 esi
  00092	8d 8f 58 11 00
	00		 lea	 ecx, DWORD PTR [edi+4440]
  00098	c6 45 fc 04	 mov	 BYTE PTR __$EHRec$[ebp+8], 4
  0009c	ff d6		 call	 esi
  0009e	8d 8f 48 11 00
	00		 lea	 ecx, DWORD PTR [edi+4424]
  000a4	c6 45 fc 03	 mov	 BYTE PTR __$EHRec$[ebp+8], 3
  000a8	ff d6		 call	 esi
  000aa	8d 8f 38 11 00
	00		 lea	 ecx, DWORD PTR [edi+4408]
  000b0	c6 45 fc 02	 mov	 BYTE PTR __$EHRec$[ebp+8], 2
  000b4	ff d6		 call	 esi
  000b6	8d 8f 28 11 00
	00		 lea	 ecx, DWORD PTR [edi+4392]
  000bc	c6 45 fc 01	 mov	 BYTE PTR __$EHRec$[ebp+8], 1
  000c0	ff d6		 call	 esi
  000c2	8d 8f ec 10 00
	00		 lea	 ecx, DWORD PTR [edi+4332]
  000c8	c6 45 fc 00	 mov	 BYTE PTR __$EHRec$[ebp+8], 0
  000cc	ff d6		 call	 esi
  000ce	83 4d fc ff	 or	 DWORD PTR __$EHRec$[ebp+8], -1
  000d2	8b cf		 mov	 ecx, edi
  000d4	e8 00 00 00 00	 call	 ??1ioAttackSkill@@UAE@XZ ; ioAttackSkill::~ioAttackSkill
  000d9	e8 00 00 00 00	 call	 __EH_epilog3
  000de	c3		 ret	 0
_TEXT	ENDS
;	COMDAT text$x
text$x	SEGMENT
__unwindfunclet$??1ioWhirlwndAttack@@UAE@XZ$0:
  00000	8b 4d f0	 mov	 ecx, DWORD PTR _this$[ebp]
  00003	e9 00 00 00 00	 jmp	 ??1ioAttackSkill@@UAE@XZ ; ioAttackSkill::~ioAttackSkill
__unwindfunclet$??1ioWhirlwndAttack@@UAE@XZ$1:
  00008	8b 4d f0	 mov	 ecx, DWORD PTR _this$[ebp]
  0000b	81 c1 ec 10 00
	00		 add	 ecx, 4332		; 000010ecH
  00011	ff 25 00 00 00
	00		 jmp	 DWORD PTR __imp_??1ioHashString@@QAE@XZ
__unwindfunclet$??1ioWhirlwndAttack@@UAE@XZ$2:
  00017	8b 4d f0	 mov	 ecx, DWORD PTR _this$[ebp]
  0001a	81 c1 28 11 00
	00		 add	 ecx, 4392		; 00001128H
  00020	ff 25 00 00 00
	00		 jmp	 DWORD PTR __imp_??1ioHashString@@QAE@XZ
__unwindfunclet$??1ioWhirlwndAttack@@UAE@XZ$3:
  00026	8b 4d f0	 mov	 ecx, DWORD PTR _this$[ebp]
  00029	81 c1 38 11 00
	00		 add	 ecx, 4408		; 00001138H
  0002f	ff 25 00 00 00
	00		 jmp	 DWORD PTR __imp_??1ioHashString@@QAE@XZ
__unwindfunclet$??1ioWhirlwndAttack@@UAE@XZ$4:
  00035	8b 4d f0	 mov	 ecx, DWORD PTR _this$[ebp]
  00038	81 c1 48 11 00
	00		 add	 ecx, 4424		; 00001148H
  0003e	ff 25 00 00 00
	00		 jmp	 DWORD PTR __imp_??1ioHashString@@QAE@XZ
__unwindfunclet$??1ioWhirlwndAttack@@UAE@XZ$5:
  00044	8b 4d f0	 mov	 ecx, DWORD PTR _this$[ebp]
  00047	81 c1 58 11 00
	00		 add	 ecx, 4440		; 00001158H
  0004d	ff 25 00 00 00
	00		 jmp	 DWORD PTR __imp_??1ioHashString@@QAE@XZ
__unwindfunclet$??1ioWhirlwndAttack@@UAE@XZ$6:
  00053	8b 4d f0	 mov	 ecx, DWORD PTR _this$[ebp]
  00056	81 c1 68 11 00
	00		 add	 ecx, 4456		; 00001168H
  0005c	ff 25 00 00 00
	00		 jmp	 DWORD PTR __imp_??1ioHashString@@QAE@XZ
__unwindfunclet$??1ioWhirlwndAttack@@UAE@XZ$7:
  00062	8b 4d f0	 mov	 ecx, DWORD PTR _this$[ebp]
  00065	81 c1 78 11 00
	00		 add	 ecx, 4472		; 00001178H
  0006b	e9 00 00 00 00	 jmp	 ??1AttackAttribute@@QAE@XZ
__unwindfunclet$??1ioWhirlwndAttack@@UAE@XZ$8:
  00070	8b 4d f0	 mov	 ecx, DWORD PTR _this$[ebp]
  00073	81 c1 c8 11 00
	00		 add	 ecx, 4552		; 000011c8H
  00079	ff 25 00 00 00
	00		 jmp	 DWORD PTR __imp_??1ioHashString@@QAE@XZ
__unwindfunclet$??1ioWhirlwndAttack@@UAE@XZ$9:
  0007f	8b 4d f0	 mov	 ecx, DWORD PTR _this$[ebp]
  00082	81 c1 fc 11 00
	00		 add	 ecx, 4604		; 000011fcH
  00088	ff 25 00 00 00
	00		 jmp	 DWORD PTR __imp_??1ioHashString@@QAE@XZ
__unwindfunclet$??1ioWhirlwndAttack@@UAE@XZ$10:
  0008e	8b 4d f0	 mov	 ecx, DWORD PTR _this$[ebp]
  00091	81 c1 24 12 00
	00		 add	 ecx, 4644		; 00001224H
  00097	ff 25 00 00 00
	00		 jmp	 DWORD PTR __imp_??1ioHashString@@QAE@XZ
__unwindfunclet$??1ioWhirlwndAttack@@UAE@XZ$11:
  0009d	8b 4d f0	 mov	 ecx, DWORD PTR _this$[ebp]
  000a0	81 c1 38 12 00
	00		 add	 ecx, 4664		; 00001238H
  000a6	ff 25 00 00 00
	00		 jmp	 DWORD PTR __imp_??1ioHashString@@QAE@XZ
__unwindfunclet$??1ioWhirlwndAttack@@UAE@XZ$12:
  000ac	8b 4d f0	 mov	 ecx, DWORD PTR _this$[ebp]
  000af	81 c1 50 12 00
	00		 add	 ecx, 4688		; 00001250H
  000b5	e9 00 00 00 00	 jmp	 ??1WeaponInfo@@QAE@XZ
__unwindfunclet$??1ioWhirlwndAttack@@UAE@XZ$13:
  000ba	8b 4d f0	 mov	 ecx, DWORD PTR _this$[ebp]
  000bd	81 c1 78 12 00
	00		 add	 ecx, 4728		; 00001278H
  000c3	ff 25 00 00 00
	00		 jmp	 DWORD PTR __imp_??1ioHashString@@QAE@XZ
__ehhandler$??1ioWhirlwndAttack@@UAE@XZ:
  000c9	8b 54 24 08	 mov	 edx, DWORD PTR [esp+8]
  000cd	8d 42 0c	 lea	 eax, DWORD PTR [edx+12]
  000d0	8b 4a ec	 mov	 ecx, DWORD PTR [edx-20]
  000d3	33 c8		 xor	 ecx, eax
  000d5	e8 00 00 00 00	 call	 @__security_check_cookie@4
  000da	b8 00 00 00 00	 mov	 eax, OFFSET __ehfuncinfo$??1ioWhirlwndAttack@@UAE@XZ
  000df	e9 00 00 00 00	 jmp	 ___CxxFrameHandler3
text$x	ENDS
??1ioWhirlwndAttack@@UAE@XZ ENDP			; ioWhirlwndAttack::~ioWhirlwndAttack
;	COMDAT xdata$x
xdata$x	SEGMENT
__unwindtable$?Clone@ioWhirlwndAttack@@UAEPAVioSkill@@XZ DD 0ffffffffH
	DD	FLAT:__unwindfunclet$?Clone@ioWhirlwndAttack@@UAEPAVioSkill@@XZ$0
__ehfuncinfo$?Clone@ioWhirlwndAttack@@UAEPAVioSkill@@XZ DD 019930522H
	DD	01H
	DD	FLAT:__unwindtable$?Clone@ioWhirlwndAttack@@UAEPAVioSkill@@XZ
	DD	2 DUP(00H)
	DD	2 DUP(00H)
	DD	00H
	DD	01H
; Function compile flags: /Ogsp
xdata$x	ENDS
;	COMDAT ?Clone@ioWhirlwndAttack@@UAEPAVioSkill@@XZ
_TEXT	SEGMENT
$T558406 = -16						; size = 4
__$EHRec$ = -12						; size = 12
?Clone@ioWhirlwndAttack@@UAEPAVioSkill@@XZ PROC		; ioWhirlwndAttack::Clone, COMDAT
; _this$ = ecx

; 134  : {

  00000	6a 04		 push	 4
  00002	b8 00 00 00 00	 mov	 eax, __ehhandler$?Clone@ioWhirlwndAttack@@UAEPAVioSkill@@XZ
  00007	e8 00 00 00 00	 call	 __EH_prolog3
  0000c	8b f1		 mov	 esi, ecx

; 135  : 	return new ioWhirlwndAttack( *this );

  0000e	68 f0 12 00 00	 push	 4848			; 000012f0H
  00013	e8 00 00 00 00	 call	 ??2@YAPAXI@Z		; operator new
  00018	59		 pop	 ecx
  00019	8b c8		 mov	 ecx, eax
  0001b	89 4d f0	 mov	 DWORD PTR $T558406[ebp], ecx
  0001e	33 c0		 xor	 eax, eax
  00020	89 45 fc	 mov	 DWORD PTR __$EHRec$[ebp+8], eax
  00023	3b c8		 cmp	 ecx, eax
  00025	74 06		 je	 SHORT $LN3@Clone
  00027	56		 push	 esi
  00028	e8 00 00 00 00	 call	 ??0ioWhirlwndAttack@@QAE@ABV0@@Z ; ioWhirlwndAttack::ioWhirlwndAttack
$LN3@Clone:

; 136  : }

  0002d	e8 00 00 00 00	 call	 __EH_epilog3
  00032	c3		 ret	 0
_TEXT	ENDS
;	COMDAT text$x
text$x	SEGMENT
__unwindfunclet$?Clone@ioWhirlwndAttack@@UAEPAVioSkill@@XZ$0:
  00000	ff 75 f0	 push	 DWORD PTR $T558406[ebp]
  00003	e8 00 00 00 00	 call	 ??3@YAXPAX@Z		; operator delete
  00008	59		 pop	 ecx
  00009	c3		 ret	 0
__ehhandler$?Clone@ioWhirlwndAttack@@UAEPAVioSkill@@XZ:
  0000a	8b 54 24 08	 mov	 edx, DWORD PTR [esp+8]
  0000e	8d 42 0c	 lea	 eax, DWORD PTR [edx+12]
  00011	8b 4a ec	 mov	 ecx, DWORD PTR [edx-20]
  00014	33 c8		 xor	 ecx, eax
  00016	e8 00 00 00 00	 call	 @__security_check_cookie@4
  0001b	b8 00 00 00 00	 mov	 eax, OFFSET __ehfuncinfo$?Clone@ioWhirlwndAttack@@UAEPAVioSkill@@XZ
  00020	e9 00 00 00 00	 jmp	 ___CxxFrameHandler3
text$x	ENDS
?Clone@ioWhirlwndAttack@@UAEPAVioSkill@@XZ ENDP		; ioWhirlwndAttack::Clone
; Function compile flags: /Ogsp
;	COMDAT ??_GioWhirlwndAttack@@UAEPAXI@Z
_TEXT	SEGMENT
___flags$ = 8						; size = 4
??_GioWhirlwndAttack@@UAEPAXI@Z PROC			; ioWhirlwndAttack::`scalar deleting destructor', COMDAT
; _this$ = ecx
  00000	55		 push	 ebp
  00001	8b ec		 mov	 ebp, esp
  00003	56		 push	 esi
  00004	8b f1		 mov	 esi, ecx
  00006	e8 00 00 00 00	 call	 ??1ioWhirlwndAttack@@UAE@XZ ; ioWhirlwndAttack::~ioWhirlwndAttack
  0000b	f6 45 08 01	 test	 BYTE PTR ___flags$[ebp], 1
  0000f	74 07		 je	 SHORT $LN1@scalar@3
  00011	56		 push	 esi
  00012	e8 00 00 00 00	 call	 ??3@YAXPAX@Z		; operator delete
  00017	59		 pop	 ecx
$LN1@scalar@3:
  00018	8b c6		 mov	 eax, esi
  0001a	5e		 pop	 esi
  0001b	5d		 pop	 ebp
  0001c	c2 04 00	 ret	 4
??_GioWhirlwndAttack@@UAEPAXI@Z ENDP			; ioWhirlwndAttack::`scalar deleting destructor'
_TEXT	ENDS
END
