; Listing generated by Microsoft (R) Optimizing Compiler Version 16.00.30319.01 

	TITLE	D:\Lost Saga For Developer\Youtube\Tutorial\Source\src\LSClient\ioWorldEntityFactory.cpp
	.686P
	.XMM
	include listing.inc
	.model	flat

INCLUDELIB MSVCRT
INCLUDELIB OLDNAMES

PUBLIC	?_EEM_DS@?$deque@UD3DXVECTOR3@@V?$allocator@UD3DXVECTOR3@@@std@@@std@@2HB ; std::deque<D3DXVECTOR3,std::allocator<D3DXVECTOR3> >::_EEM_DS
;	COMDAT ?_EEM_DS@?$deque@UD3DXVECTOR3@@V?$allocator@UD3DXVECTOR3@@@std@@@std@@2HB
CONST	SEGMENT
?_EEM_DS@?$deque@UD3DXVECTOR3@@V?$allocator@UD3DXVECTOR3@@@std@@@std@@2HB DD 01H ; std::deque<D3DXVECTOR3,std::allocator<D3DXVECTOR3> >::_EEM_DS
CONST	ENDS
PUBLIC	?GetPlayMode@ioPlayStage@@QBEPAVioPlayMode@@XZ	; ioPlayStage::GetPlayMode
; Function compile flags: /Ogsp
; File d:\lost saga for developer\youtube\tutorial\source\src\lsclient\ioplaystage.h
;	COMDAT ?GetPlayMode@ioPlayStage@@QBEPAVioPlayMode@@XZ
_TEXT	SEGMENT
?GetPlayMode@ioPlayStage@@QBEPAVioPlayMode@@XZ PROC	; ioPlayStage::GetPlayMode, COMDAT
; _this$ = ecx

; 780  : 	inline ioPlayMode* GetPlayMode() const { return m_pPlayMode; }

  00000	8b 81 10 01 00
	00		 mov	 eax, DWORD PTR [ecx+272]
  00006	c3		 ret	 0
?GetPlayMode@ioPlayStage@@QBEPAVioPlayMode@@XZ ENDP	; ioPlayStage::GetPlayMode
_TEXT	ENDS
PUBLIC	?GetCreateIndex@ioTeleportZone@@QBEHXZ		; ioTeleportZone::GetCreateIndex
; Function compile flags: /Ogsp
; File d:\lost saga for developer\youtube\tutorial\source\src\lsclient\ioteleportzone.h
;	COMDAT ?GetCreateIndex@ioTeleportZone@@QBEHXZ
_TEXT	SEGMENT
?GetCreateIndex@ioTeleportZone@@QBEHXZ PROC		; ioTeleportZone::GetCreateIndex, COMDAT
; _this$ = ecx

; 20   : 	inline int  GetCreateIndex() const { return m_iCreateIndex; }

  00000	8b 81 c8 01 00
	00		 mov	 eax, DWORD PTR [ecx+456]
  00006	c3		 ret	 0
?GetCreateIndex@ioTeleportZone@@QBEHXZ ENDP		; ioTeleportZone::GetCreateIndex
_TEXT	ENDS
PUBLIC	?GetCreateIndex@ioConveyer@@QBEHXZ		; ioConveyer::GetCreateIndex
; Function compile flags: /Ogsp
; File d:\lost saga for developer\youtube\tutorial\source\src\lsclient\ioconveyer.h
;	COMDAT ?GetCreateIndex@ioConveyer@@QBEHXZ
_TEXT	SEGMENT
?GetCreateIndex@ioConveyer@@QBEHXZ PROC			; ioConveyer::GetCreateIndex, COMDAT
; _this$ = ecx

; 21   : 	inline int  GetCreateIndex() const { return m_iCreateIndex; }

  00000	8b 81 c8 01 00
	00		 mov	 eax, DWORD PTR [ecx+456]
  00006	c3		 ret	 0
?GetCreateIndex@ioConveyer@@QBEHXZ ENDP			; ioConveyer::GetCreateIndex
_TEXT	ENDS
PUBLIC	?GetCreateIndex@ioElevator@@QBEHXZ		; ioElevator::GetCreateIndex
; Function compile flags: /Ogsp
; File d:\lost saga for developer\youtube\tutorial\source\src\lsclient\ioelevator.h
;	COMDAT ?GetCreateIndex@ioElevator@@QBEHXZ
_TEXT	SEGMENT
?GetCreateIndex@ioElevator@@QBEHXZ PROC			; ioElevator::GetCreateIndex, COMDAT
; _this$ = ecx

; 61   : 	inline int  GetCreateIndex() const { return m_iCreateIndex; }

  00000	8b 81 c8 01 00
	00		 mov	 eax, DWORD PTR [ecx+456]
  00006	c3		 ret	 0
?GetCreateIndex@ioElevator@@QBEHXZ ENDP			; ioElevator::GetCreateIndex
_TEXT	ENDS
PUBLIC	?GetCreateIndex@ioAffectorZone@@QBEHXZ		; ioAffectorZone::GetCreateIndex
; Function compile flags: /Ogsp
; File d:\lost saga for developer\youtube\tutorial\source\src\lsclient\ioaffectorzone.h
;	COMDAT ?GetCreateIndex@ioAffectorZone@@QBEHXZ
_TEXT	SEGMENT
?GetCreateIndex@ioAffectorZone@@QBEHXZ PROC		; ioAffectorZone::GetCreateIndex, COMDAT
; _this$ = ecx

; 23   : 	inline int GetCreateIndex() const { return m_iCreateIndex; }

  00000	8b 81 cc 01 00
	00		 mov	 eax, DWORD PTR [ecx+460]
  00006	c3		 ret	 0
?GetCreateIndex@ioAffectorZone@@QBEHXZ ENDP		; ioAffectorZone::GetCreateIndex
_TEXT	ENDS
PUBLIC	?IsKnownSubType@ioWorldEntityFactory@@IBE_NH@Z	; ioWorldEntityFactory::IsKnownSubType
; Function compile flags: /Ogsp
; File d:\lost saga for developer\youtube\tutorial\source\src\lsclient\ioworldentityfactory.cpp
;	COMDAT ?IsKnownSubType@ioWorldEntityFactory@@IBE_NH@Z
_TEXT	SEGMENT
_iSubType$ = 8						; size = 4
?IsKnownSubType@ioWorldEntityFactory@@IBE_NH@Z PROC	; ioWorldEntityFactory::IsKnownSubType, COMDAT
; _this$ = ecx

; 58   : {

  00000	55		 push	 ebp
  00001	8b ec		 mov	 ebp, esp

; 59   : 	switch( iSubType )

  00003	83 7d 08 04	 cmp	 DWORD PTR _iSubType$[ebp], 4
  00007	7c 10		 jl	 SHORT $LN2@IsKnownSub
  00009	83 7d 08 07	 cmp	 DWORD PTR _iSubType$[ebp], 7
  0000d	7e 06		 jle	 SHORT $LN1@IsKnownSub
  0000f	83 7d 08 0b	 cmp	 DWORD PTR _iSubType$[ebp], 11 ; 0000000bH
  00013	75 04		 jne	 SHORT $LN2@IsKnownSub
$LN1@IsKnownSub:

; 60   : 	{
; 61   : 	case ioPlayEntity::PST_TELEPORT_ZONE:
; 62   : 	case ioPlayEntity::PST_CONVEYER:
; 63   : 	case ioPlayEntity::PST_ELEVATOR:
; 64   : 	case ioPlayEntity::PST_AFFECTOR_ZONE:
; 65   : 	case ioPlayEntity::PST_WALL_ZONE:
; 66   : 		return true;

  00015	b0 01		 mov	 al, 1
  00017	eb 02		 jmp	 SHORT $LN4@IsKnownSub
$LN2@IsKnownSub:

; 67   : 	}
; 68   : 
; 69   : 	return false;

  00019	32 c0		 xor	 al, al
$LN4@IsKnownSub:

; 70   : }

  0001b	5d		 pop	 ebp
  0001c	c2 04 00	 ret	 4
?IsKnownSubType@ioWorldEntityFactory@@IBE_NH@Z ENDP	; ioWorldEntityFactory::IsKnownSubType
_TEXT	ENDS
PUBLIC	??_C@_0DB@BKNJNCAE@ioWorldEntityFactory?3?3CreateSubE@ ; `string'
PUBLIC	?CreateSubEntity@ioWorldEntityFactory@@IAEPAVioPlayEntity@@HPBDH@Z ; ioWorldEntityFactory::CreateSubEntity
EXTRN	??3@YAXPAX@Z:PROC				; operator delete
EXTRN	??0ioTeleportZone@@QAE@PAVioEntityGroup@@PAVioPlayMode@@H@Z:PROC ; ioTeleportZone::ioTeleportZone
EXTRN	??0ioConveyer@@QAE@PAVioEntityGroup@@PAVioPlayMode@@H@Z:PROC ; ioConveyer::ioConveyer
EXTRN	??0ioElevator@@QAE@PAVioEntityGroup@@PAVioPlayMode@@H@Z:PROC ; ioElevator::ioElevator
EXTRN	??0ioAffectorZone@@QAE@PAVioEntityGroup@@PAVioPlayMode@@H@Z:PROC ; ioAffectorZone::ioAffectorZone
EXTRN	??0ioWallZone@@QAE@PAVioEntityGroup@@PAVioPlayMode@@H@Z:PROC ; ioWallZone::ioWallZone
EXTRN	??2@YAPAXI@Z:PROC				; operator new
EXTRN	__imp_?PrintTimeAndLog@CLog@@QAAXHPADZZ:PROC
EXTRN	__imp_?LOG@@3VCLog@@A:BYTE
EXTRN	__imp_??1ioHashString@@QAE@XZ:PROC
EXTRN	?CreateEntityGrpAndSceneNode@ioPlayStage@@QAEPAVioEntityGroup@@ABVioHashString@@_N@Z:PROC ; ioPlayStage::CreateEntityGrpAndSceneNode
EXTRN	__imp_??0ioHashString@@QAE@PBD@Z:PROC
EXTRN	___CxxFrameHandler3:PROC
EXTRN	@__security_check_cookie@4:PROC
EXTRN	__EH_epilog3:PROC
EXTRN	__EH_prolog3:PROC
;	COMDAT ??_C@_0DB@BKNJNCAE@ioWorldEntityFactory?3?3CreateSubE@
; File d:\lost saga for developer\youtube\tutorial\source\src\lsclient\ioplaystage.h
CONST	SEGMENT
??_C@_0DB@BKNJNCAE@ioWorldEntityFactory?3?3CreateSubE@ DB 'ioWorldEntityF'
	DB	'actory::CreateSubEntity - %s Fail!', 00H	; `string'
CONST	ENDS
;	COMDAT xdata$x
xdata$x	SEGMENT
__ehfuncinfo$?CreateSubEntity@ioWorldEntityFactory@@IAEPAVioPlayEntity@@HPBDH@Z DD 019930522H
	DD	06H
	DD	FLAT:__unwindtable$?CreateSubEntity@ioWorldEntityFactory@@IAEPAVioPlayEntity@@HPBDH@Z
	DD	2 DUP(00H)
	DD	2 DUP(00H)
	DD	00H
	DD	01H
__unwindtable$?CreateSubEntity@ioWorldEntityFactory@@IAEPAVioPlayEntity@@HPBDH@Z DD 0ffffffffH
	DD	FLAT:__unwindfunclet$?CreateSubEntity@ioWorldEntityFactory@@IAEPAVioPlayEntity@@HPBDH@Z$0
	DD	0ffffffffH
	DD	FLAT:__unwindfunclet$?CreateSubEntity@ioWorldEntityFactory@@IAEPAVioPlayEntity@@HPBDH@Z$1
	DD	0ffffffffH
	DD	FLAT:__unwindfunclet$?CreateSubEntity@ioWorldEntityFactory@@IAEPAVioPlayEntity@@HPBDH@Z$2
	DD	0ffffffffH
	DD	FLAT:__unwindfunclet$?CreateSubEntity@ioWorldEntityFactory@@IAEPAVioPlayEntity@@HPBDH@Z$3
	DD	0ffffffffH
	DD	FLAT:__unwindfunclet$?CreateSubEntity@ioWorldEntityFactory@@IAEPAVioPlayEntity@@HPBDH@Z$4
	DD	0ffffffffH
	DD	FLAT:__unwindfunclet$?CreateSubEntity@ioWorldEntityFactory@@IAEPAVioPlayEntity@@HPBDH@Z$5
; Function compile flags: /Ogsp
; File d:\lost saga for developer\youtube\tutorial\source\src\lsclient\ioworldentityfactory.cpp
xdata$x	ENDS
;	COMDAT ?CreateSubEntity@ioWorldEntityFactory@@IAEPAVioPlayEntity@@HPBDH@Z
_TEXT	SEGMENT
$T513822 = -32						; size = 16
_pGrp$ = -16						; size = 4
__$EHRec$ = -12						; size = 12
_iSubType$ = 8						; size = 4
$T513840 = 12						; size = 4
$T513836 = 12						; size = 4
$T513832 = 12						; size = 4
$T513828 = 12						; size = 4
$T513824 = 12						; size = 4
_szFileName$ = 12					; size = 4
_iCreateIndex$ = 16					; size = 4
?CreateSubEntity@ioWorldEntityFactory@@IAEPAVioPlayEntity@@HPBDH@Z PROC ; ioWorldEntityFactory::CreateSubEntity, COMDAT
; _this$ = ecx

; 73   : {

  00000	6a 14		 push	 20			; 00000014H
  00002	b8 00 00 00 00	 mov	 eax, __ehhandler$?CreateSubEntity@ioWorldEntityFactory@@IAEPAVioPlayEntity@@HPBDH@Z
  00007	e8 00 00 00 00	 call	 __EH_prolog3
  0000c	8b f1		 mov	 esi, ecx

; 74   : 	ioEntityGroup *pGrp = m_pCreator->CreateEntityGrpAndSceneNode( szFileName, true );

  0000e	ff 75 0c	 push	 DWORD PTR _szFileName$[ebp]
  00011	8d 4d e0	 lea	 ecx, DWORD PTR $T513822[ebp]
  00014	ff 15 00 00 00
	00		 call	 DWORD PTR __imp_??0ioHashString@@QAE@PBD@Z
  0001a	8b 4e 10	 mov	 ecx, DWORD PTR [esi+16]
  0001d	6a 01		 push	 1
  0001f	8d 45 e0	 lea	 eax, DWORD PTR $T513822[ebp]
  00022	33 ff		 xor	 edi, edi
  00024	50		 push	 eax
  00025	89 7d fc	 mov	 DWORD PTR __$EHRec$[ebp+8], edi
  00028	e8 00 00 00 00	 call	 ?CreateEntityGrpAndSceneNode@ioPlayStage@@QAEPAVioEntityGroup@@ABVioHashString@@_N@Z ; ioPlayStage::CreateEntityGrpAndSceneNode
  0002d	83 4d fc ff	 or	 DWORD PTR __$EHRec$[ebp+8], -1
  00031	8d 4d e0	 lea	 ecx, DWORD PTR $T513822[ebp]
  00034	89 45 f0	 mov	 DWORD PTR _pGrp$[ebp], eax
  00037	ff 15 00 00 00
	00		 call	 DWORD PTR __imp_??1ioHashString@@QAE@XZ

; 75   : 	if( !pGrp )

  0003d	39 7d f0	 cmp	 DWORD PTR _pGrp$[ebp], edi
  00040	75 22		 jne	 SHORT $LN8@CreateSubE

; 76   : 	{
; 77   : 		LOG.PrintTimeAndLog( 0, "ioWorldEntityFactory::CreateSubEntity - %s Fail!", szFileName );

  00042	ff 75 0c	 push	 DWORD PTR _szFileName$[ebp]
  00045	68 00 00 00 00	 push	 OFFSET ??_C@_0DB@BKNJNCAE@ioWorldEntityFactory?3?3CreateSubE@
  0004a	57		 push	 edi
  0004b	ff 35 00 00 00
	00		 push	 DWORD PTR __imp_?LOG@@3VCLog@@A
  00051	ff 15 00 00 00
	00		 call	 DWORD PTR __imp_?PrintTimeAndLog@CLog@@QAAXHPADZZ
  00057	83 c4 10	 add	 esp, 16			; 00000010H
$LN11@CreateSubE:

; 85   : 	{
; 86   : 	case ioPlayEntity::PST_TELEPORT_ZONE:
; 87   : 		pEntity = new ioTeleportZone( pGrp, pMode, iCreateIndex );

  0005a	33 c0		 xor	 eax, eax
$LN9@CreateSubE:

; 101  : 	}
; 102  : 
; 103  : 	assert( pEntity );	// 사전에 타입체크했기때문에 없을수가 없다.
; 104  : 
; 105  : 	return pEntity;
; 106  : }

  0005c	e8 00 00 00 00	 call	 __EH_epilog3
  00061	c2 0c 00	 ret	 12			; 0000000cH
$LN8@CreateSubE:

; 78   : 		return NULL;
; 79   : 	}
; 80   : 
; 81   : 	ioPlayMode *pMode = m_pCreator->GetPlayMode();

  00064	8b 46 10	 mov	 eax, DWORD PTR [esi+16]
  00067	8b b0 10 01 00
	00		 mov	 esi, DWORD PTR [eax+272]

; 82   : 
; 83   : 	ioPlayEntity *pEntity = NULL;
; 84   : 	switch( iSubType )

  0006d	8b 4d 08	 mov	 ecx, DWORD PTR _iSubType$[ebp]
  00070	6a 04		 push	 4
  00072	5f		 pop	 edi
  00073	33 c0		 xor	 eax, eax
  00075	2b cf		 sub	 ecx, edi
  00077	0f 84 bf 00 00
	00		 je	 $LN5@CreateSubE
  0007d	49		 dec	 ecx
  0007e	0f 84 88 00 00
	00		 je	 $LN4@CreateSubE
  00084	49		 dec	 ecx
  00085	74 55		 je	 SHORT $LN3@CreateSubE
  00087	49		 dec	 ecx
  00088	74 2d		 je	 SHORT $LN2@CreateSubE
  0008a	2b cf		 sub	 ecx, edi
  0008c	75 ce		 jne	 SHORT $LN9@CreateSubE

; 98   : 	case ioPlayEntity::PST_WALL_ZONE:
; 99   : 		pEntity = new ioWallZone( pGrp, pMode, iCreateIndex );

  0008e	68 cc 01 00 00	 push	 460			; 000001ccH
  00093	e8 00 00 00 00	 call	 ??2@YAPAXI@Z		; operator new
  00098	59		 pop	 ecx
  00099	8b c8		 mov	 ecx, eax
  0009b	89 4d 0c	 mov	 DWORD PTR $T513840[ebp], ecx
  0009e	c7 45 fc 05 00
	00 00		 mov	 DWORD PTR __$EHRec$[ebp+8], 5
  000a5	85 c9		 test	 ecx, ecx
  000a7	74 b1		 je	 SHORT $LN11@CreateSubE
  000a9	ff 75 10	 push	 DWORD PTR _iCreateIndex$[ebp]
  000ac	56		 push	 esi
  000ad	ff 75 f0	 push	 DWORD PTR _pGrp$[ebp]
  000b0	e8 00 00 00 00	 call	 ??0ioWallZone@@QAE@PAVioEntityGroup@@PAVioPlayMode@@H@Z ; ioWallZone::ioWallZone

; 100  : 		break;

  000b5	eb a5		 jmp	 SHORT $LN9@CreateSubE
$LN2@CreateSubE:

; 95   : 	case ioPlayEntity::PST_AFFECTOR_ZONE:
; 96   : 		pEntity = new ioAffectorZone( pGrp, pMode, iCreateIndex );

  000b7	68 e0 01 00 00	 push	 480			; 000001e0H
  000bc	e8 00 00 00 00	 call	 ??2@YAPAXI@Z		; operator new
  000c1	59		 pop	 ecx
  000c2	8b c8		 mov	 ecx, eax
  000c4	89 4d 0c	 mov	 DWORD PTR $T513836[ebp], ecx
  000c7	89 7d fc	 mov	 DWORD PTR __$EHRec$[ebp+8], edi
  000ca	85 c9		 test	 ecx, ecx
  000cc	74 8c		 je	 SHORT $LN11@CreateSubE
  000ce	ff 75 10	 push	 DWORD PTR _iCreateIndex$[ebp]
  000d1	56		 push	 esi
  000d2	ff 75 f0	 push	 DWORD PTR _pGrp$[ebp]
  000d5	e8 00 00 00 00	 call	 ??0ioAffectorZone@@QAE@PAVioEntityGroup@@PAVioPlayMode@@H@Z ; ioAffectorZone::ioAffectorZone

; 97   : 		break;

  000da	eb 80		 jmp	 SHORT $LN9@CreateSubE
$LN3@CreateSubE:

; 92   : 	case ioPlayEntity::PST_ELEVATOR:
; 93   : 		pEntity = new ioElevator( pGrp, pMode, iCreateIndex );

  000dc	68 1c 02 00 00	 push	 540			; 0000021cH
  000e1	e8 00 00 00 00	 call	 ??2@YAPAXI@Z		; operator new
  000e6	59		 pop	 ecx
  000e7	8b c8		 mov	 ecx, eax
  000e9	89 4d 0c	 mov	 DWORD PTR $T513832[ebp], ecx
  000ec	c7 45 fc 03 00
	00 00		 mov	 DWORD PTR __$EHRec$[ebp+8], 3
  000f3	85 c9		 test	 ecx, ecx
  000f5	0f 84 5f ff ff
	ff		 je	 $LN11@CreateSubE
  000fb	ff 75 10	 push	 DWORD PTR _iCreateIndex$[ebp]
  000fe	56		 push	 esi
  000ff	ff 75 f0	 push	 DWORD PTR _pGrp$[ebp]
  00102	e8 00 00 00 00	 call	 ??0ioElevator@@QAE@PAVioEntityGroup@@PAVioPlayMode@@H@Z ; ioElevator::ioElevator

; 94   : 		break;

  00107	e9 50 ff ff ff	 jmp	 $LN9@CreateSubE
$LN4@CreateSubE:

; 88   : 		break;
; 89   : 	case ioPlayEntity::PST_CONVEYER:
; 90   : 		pEntity = new ioConveyer( pGrp, pMode, iCreateIndex );

  0010c	68 e0 01 00 00	 push	 480			; 000001e0H
  00111	e8 00 00 00 00	 call	 ??2@YAPAXI@Z		; operator new
  00116	59		 pop	 ecx
  00117	8b c8		 mov	 ecx, eax
  00119	89 4d 0c	 mov	 DWORD PTR $T513828[ebp], ecx
  0011c	c7 45 fc 02 00
	00 00		 mov	 DWORD PTR __$EHRec$[ebp+8], 2
  00123	85 c9		 test	 ecx, ecx
  00125	0f 84 2f ff ff
	ff		 je	 $LN11@CreateSubE
  0012b	ff 75 10	 push	 DWORD PTR _iCreateIndex$[ebp]
  0012e	56		 push	 esi
  0012f	ff 75 f0	 push	 DWORD PTR _pGrp$[ebp]
  00132	e8 00 00 00 00	 call	 ??0ioConveyer@@QAE@PAVioEntityGroup@@PAVioPlayMode@@H@Z ; ioConveyer::ioConveyer

; 91   : 		break;

  00137	e9 20 ff ff ff	 jmp	 $LN9@CreateSubE
$LN5@CreateSubE:

; 85   : 	{
; 86   : 	case ioPlayEntity::PST_TELEPORT_ZONE:
; 87   : 		pEntity = new ioTeleportZone( pGrp, pMode, iCreateIndex );

  0013c	68 e0 01 00 00	 push	 480			; 000001e0H
  00141	e8 00 00 00 00	 call	 ??2@YAPAXI@Z		; operator new
  00146	59		 pop	 ecx
  00147	8b c8		 mov	 ecx, eax
  00149	89 4d 0c	 mov	 DWORD PTR $T513824[ebp], ecx
  0014c	c7 45 fc 01 00
	00 00		 mov	 DWORD PTR __$EHRec$[ebp+8], 1
  00153	85 c9		 test	 ecx, ecx
  00155	0f 84 ff fe ff
	ff		 je	 $LN11@CreateSubE
  0015b	ff 75 10	 push	 DWORD PTR _iCreateIndex$[ebp]
  0015e	56		 push	 esi
  0015f	ff 75 f0	 push	 DWORD PTR _pGrp$[ebp]
  00162	e8 00 00 00 00	 call	 ??0ioTeleportZone@@QAE@PAVioEntityGroup@@PAVioPlayMode@@H@Z ; ioTeleportZone::ioTeleportZone
  00167	e9 f0 fe ff ff	 jmp	 $LN9@CreateSubE
_TEXT	ENDS
;	COMDAT text$x
text$x	SEGMENT
__unwindfunclet$?CreateSubEntity@ioWorldEntityFactory@@IAEPAVioPlayEntity@@HPBDH@Z$0:
  00000	8d 4d e0	 lea	 ecx, DWORD PTR $T513822[ebp]
  00003	ff 25 00 00 00
	00		 jmp	 DWORD PTR __imp_??1ioHashString@@QAE@XZ
__unwindfunclet$?CreateSubEntity@ioWorldEntityFactory@@IAEPAVioPlayEntity@@HPBDH@Z$5:
  00009	ff 75 0c	 push	 DWORD PTR $T513840[ebp]
  0000c	e8 00 00 00 00	 call	 ??3@YAXPAX@Z		; operator delete
  00011	59		 pop	 ecx
  00012	c3		 ret	 0
__unwindfunclet$?CreateSubEntity@ioWorldEntityFactory@@IAEPAVioPlayEntity@@HPBDH@Z$4:
  00013	ff 75 0c	 push	 DWORD PTR $T513836[ebp]
  00016	e8 00 00 00 00	 call	 ??3@YAXPAX@Z		; operator delete
  0001b	59		 pop	 ecx
  0001c	c3		 ret	 0
__unwindfunclet$?CreateSubEntity@ioWorldEntityFactory@@IAEPAVioPlayEntity@@HPBDH@Z$3:
  0001d	ff 75 0c	 push	 DWORD PTR $T513832[ebp]
  00020	e8 00 00 00 00	 call	 ??3@YAXPAX@Z		; operator delete
  00025	59		 pop	 ecx
  00026	c3		 ret	 0
__unwindfunclet$?CreateSubEntity@ioWorldEntityFactory@@IAEPAVioPlayEntity@@HPBDH@Z$2:
  00027	ff 75 0c	 push	 DWORD PTR $T513828[ebp]
  0002a	e8 00 00 00 00	 call	 ??3@YAXPAX@Z		; operator delete
  0002f	59		 pop	 ecx
  00030	c3		 ret	 0
__unwindfunclet$?CreateSubEntity@ioWorldEntityFactory@@IAEPAVioPlayEntity@@HPBDH@Z$1:
  00031	ff 75 0c	 push	 DWORD PTR $T513824[ebp]
  00034	e8 00 00 00 00	 call	 ??3@YAXPAX@Z		; operator delete
  00039	59		 pop	 ecx
  0003a	c3		 ret	 0
__ehhandler$?CreateSubEntity@ioWorldEntityFactory@@IAEPAVioPlayEntity@@HPBDH@Z:
  0003b	8b 54 24 08	 mov	 edx, DWORD PTR [esp+8]
  0003f	8d 42 0c	 lea	 eax, DWORD PTR [edx+12]
  00042	8b 4a dc	 mov	 ecx, DWORD PTR [edx-36]
  00045	33 c8		 xor	 ecx, eax
  00047	e8 00 00 00 00	 call	 @__security_check_cookie@4
  0004c	b8 00 00 00 00	 mov	 eax, OFFSET __ehfuncinfo$?CreateSubEntity@ioWorldEntityFactory@@IAEPAVioPlayEntity@@HPBDH@Z
  00051	e9 00 00 00 00	 jmp	 ___CxxFrameHandler3
text$x	ENDS
?CreateSubEntity@ioWorldEntityFactory@@IAEPAVioPlayEntity@@HPBDH@Z ENDP ; ioWorldEntityFactory::CreateSubEntity
PUBLIC	?EnableElevationSync@ioWorldEntityFactory@@QAEX_N@Z ; ioWorldEntityFactory::EnableElevationSync
; Function compile flags: /Ogsp
;	COMDAT ?EnableElevationSync@ioWorldEntityFactory@@QAEX_N@Z
_TEXT	SEGMENT
_bEnable$ = 8						; size = 1
?EnableElevationSync@ioWorldEntityFactory@@QAEX_N@Z PROC ; ioWorldEntityFactory::EnableElevationSync, COMDAT
; _this$ = ecx

; 180  : {

  00000	55		 push	 ebp
  00001	8b ec		 mov	 ebp, esp

; 181  : 	m_bElevationSyncStart = bEnable;

  00003	8a 45 08	 mov	 al, BYTE PTR _bEnable$[ebp]
  00006	88 41 14	 mov	 BYTE PTR [ecx+20], al

; 182  : }

  00009	5d		 pop	 ebp
  0000a	c2 04 00	 ret	 4
?EnableElevationSync@ioWorldEntityFactory@@QAEX_N@Z ENDP ; ioWorldEntityFactory::EnableElevationSync
_TEXT	ENDS
PUBLIC	?size@?$list@PAVioPlayEntity@@V?$allocator@PAVioPlayEntity@@@std@@@std@@QBEIXZ ; std::list<ioPlayEntity *,std::allocator<ioPlayEntity *> >::size
; Function compile flags: /Ogsp
; File c:\program files (x86)\microsoft visual studio 10.0\vc\include\list
;	COMDAT ?size@?$list@PAVioPlayEntity@@V?$allocator@PAVioPlayEntity@@@std@@@std@@QBEIXZ
_TEXT	SEGMENT
?size@?$list@PAVioPlayEntity@@V?$allocator@PAVioPlayEntity@@@std@@@std@@QBEIXZ PROC ; std::list<ioPlayEntity *,std::allocator<ioPlayEntity *> >::size, COMDAT
; _this$ = ecx

; 877  : 		return (this->_Mysize);

  00000	8b 41 04	 mov	 eax, DWORD PTR [ecx+4]

; 878  : 		}

  00003	c3		 ret	 0
?size@?$list@PAVioPlayEntity@@V?$allocator@PAVioPlayEntity@@@std@@@std@@QBEIXZ ENDP ; std::list<ioPlayEntity *,std::allocator<ioPlayEntity *> >::size
_TEXT	ENDS
PUBLIC	??_7bad_alloc@std@@6B@				; std::bad_alloc::`vftable'
PUBLIC	??0bad_alloc@std@@QAE@PBD@Z			; std::bad_alloc::bad_alloc
PUBLIC	??_R4bad_alloc@std@@6B@				; std::bad_alloc::`RTTI Complete Object Locator'
PUBLIC	??_R0?AVbad_alloc@std@@@8			; std::bad_alloc `RTTI Type Descriptor'
PUBLIC	??_R3bad_alloc@std@@8				; std::bad_alloc::`RTTI Class Hierarchy Descriptor'
PUBLIC	??_R2bad_alloc@std@@8				; std::bad_alloc::`RTTI Base Class Array'
PUBLIC	??_R1A@?0A@EA@bad_alloc@std@@8			; std::bad_alloc::`RTTI Base Class Descriptor at (0,-1,0,64)'
PUBLIC	??_R1A@?0A@EA@exception@std@@8			; std::exception::`RTTI Base Class Descriptor at (0,-1,0,64)'
PUBLIC	??_R0?AVexception@std@@@8			; std::exception `RTTI Type Descriptor'
PUBLIC	??_R3exception@std@@8				; std::exception::`RTTI Class Hierarchy Descriptor'
PUBLIC	??_R2exception@std@@8				; std::exception::`RTTI Base Class Array'
EXTRN	__imp_??0exception@std@@QAE@ABQBD@Z:PROC
EXTRN	??_7type_info@@6B@:QWORD			; type_info::`vftable'
EXTRN	??_Ebad_alloc@std@@UAEPAXI@Z:PROC		; std::bad_alloc::`vector deleting destructor'
EXTRN	?what@exception@std@@UBEPBDXZ:PROC		; std::exception::what
;	COMDAT ??_R2exception@std@@8
; File c:\program files (x86)\microsoft visual studio 10.0\vc\include\exception
rdata$r	SEGMENT
??_R2exception@std@@8 DD FLAT:??_R1A@?0A@EA@exception@std@@8 ; std::exception::`RTTI Base Class Array'
rdata$r	ENDS
;	COMDAT ??_R3exception@std@@8
rdata$r	SEGMENT
??_R3exception@std@@8 DD 00H				; std::exception::`RTTI Class Hierarchy Descriptor'
	DD	00H
	DD	01H
	DD	FLAT:??_R2exception@std@@8
rdata$r	ENDS
;	COMDAT ??_R0?AVexception@std@@@8
_DATA	SEGMENT
??_R0?AVexception@std@@@8 DD FLAT:??_7type_info@@6B@	; std::exception `RTTI Type Descriptor'
	DD	00H
	DB	'.?AVexception@std@@', 00H
_DATA	ENDS
;	COMDAT ??_R1A@?0A@EA@exception@std@@8
rdata$r	SEGMENT
??_R1A@?0A@EA@exception@std@@8 DD FLAT:??_R0?AVexception@std@@@8 ; std::exception::`RTTI Base Class Descriptor at (0,-1,0,64)'
	DD	00H
	DD	00H
	DD	0ffffffffH
	DD	00H
	DD	040H
	DD	FLAT:??_R3exception@std@@8
rdata$r	ENDS
;	COMDAT ??_R1A@?0A@EA@bad_alloc@std@@8
rdata$r	SEGMENT
??_R1A@?0A@EA@bad_alloc@std@@8 DD FLAT:??_R0?AVbad_alloc@std@@@8 ; std::bad_alloc::`RTTI Base Class Descriptor at (0,-1,0,64)'
	DD	01H
	DD	00H
	DD	0ffffffffH
	DD	00H
	DD	040H
	DD	FLAT:??_R3bad_alloc@std@@8
rdata$r	ENDS
;	COMDAT ??_R2bad_alloc@std@@8
rdata$r	SEGMENT
??_R2bad_alloc@std@@8 DD FLAT:??_R1A@?0A@EA@bad_alloc@std@@8 ; std::bad_alloc::`RTTI Base Class Array'
	DD	FLAT:??_R1A@?0A@EA@exception@std@@8
rdata$r	ENDS
;	COMDAT ??_R3bad_alloc@std@@8
rdata$r	SEGMENT
??_R3bad_alloc@std@@8 DD 00H				; std::bad_alloc::`RTTI Class Hierarchy Descriptor'
	DD	00H
	DD	02H
	DD	FLAT:??_R2bad_alloc@std@@8
rdata$r	ENDS
;	COMDAT ??_R0?AVbad_alloc@std@@@8
_DATA	SEGMENT
??_R0?AVbad_alloc@std@@@8 DD FLAT:??_7type_info@@6B@	; std::bad_alloc `RTTI Type Descriptor'
	DD	00H
	DB	'.?AVbad_alloc@std@@', 00H
_DATA	ENDS
;	COMDAT ??_R4bad_alloc@std@@6B@
rdata$r	SEGMENT
??_R4bad_alloc@std@@6B@ DD 00H				; std::bad_alloc::`RTTI Complete Object Locator'
	DD	00H
	DD	00H
	DD	FLAT:??_R0?AVbad_alloc@std@@@8
	DD	FLAT:??_R3bad_alloc@std@@8
rdata$r	ENDS
;	COMDAT ??_7bad_alloc@std@@6B@
CONST	SEGMENT
??_7bad_alloc@std@@6B@ DD FLAT:??_R4bad_alloc@std@@6B@	; std::bad_alloc::`vftable'
	DD	FLAT:??_Ebad_alloc@std@@UAEPAXI@Z
	DD	FLAT:?what@exception@std@@UBEPBDXZ
; Function compile flags: /Ogsp
CONST	ENDS
;	COMDAT ??0bad_alloc@std@@QAE@PBD@Z
_TEXT	SEGMENT
__Message$ = 8						; size = 4
??0bad_alloc@std@@QAE@PBD@Z PROC			; std::bad_alloc::bad_alloc, COMDAT
; _this$ = ecx

; 345  : 		{	// construct from message string

  00000	55		 push	 ebp
  00001	8b ec		 mov	 ebp, esp
  00003	56		 push	 esi
  00004	8d 45 08	 lea	 eax, DWORD PTR __Message$[ebp]
  00007	50		 push	 eax
  00008	8b f1		 mov	 esi, ecx
  0000a	ff 15 00 00 00
	00		 call	 DWORD PTR __imp_??0exception@std@@QAE@ABQBD@Z
  00010	c7 06 00 00 00
	00		 mov	 DWORD PTR [esi], OFFSET ??_7bad_alloc@std@@6B@

; 346  : 		}

  00016	8b c6		 mov	 eax, esi
  00018	5e		 pop	 esi
  00019	5d		 pop	 ebp
  0001a	c2 04 00	 ret	 4
??0bad_alloc@std@@QAE@PBD@Z ENDP			; std::bad_alloc::bad_alloc
_TEXT	ENDS
PUBLIC	??1bad_alloc@std@@UAE@XZ			; std::bad_alloc::~bad_alloc
EXTRN	__imp_??1exception@std@@UAE@XZ:PROC
; Function compile flags: /Ogsp
;	COMDAT ??1bad_alloc@std@@UAE@XZ
_TEXT	SEGMENT
??1bad_alloc@std@@UAE@XZ PROC				; std::bad_alloc::~bad_alloc, COMDAT
; _this$ = ecx

; 354  : 		{	// destroy the object

  00000	c7 01 00 00 00
	00		 mov	 DWORD PTR [ecx], OFFSET ??_7bad_alloc@std@@6B@

; 355  : 		}

  00006	ff 25 00 00 00
	00		 jmp	 DWORD PTR __imp_??1exception@std@@UAE@XZ
??1bad_alloc@std@@UAE@XZ ENDP				; std::bad_alloc::~bad_alloc
_TEXT	ENDS
PUBLIC	?_Nextnode@?$_List_val@PAVioPlayEntity@@V?$allocator@PAVioPlayEntity@@@std@@@std@@SAAAPAU_Node@?$_List_nod@PAVioPlayEntity@@V?$allocator@PAVioPlayEntity@@@std@@@2@PAU342@@Z ; std::_List_val<ioPlayEntity *,std::allocator<ioPlayEntity *> >::_Nextnode
; Function compile flags: /Ogsp
; File c:\program files (x86)\microsoft visual studio 10.0\vc\include\list
;	COMDAT ?_Nextnode@?$_List_val@PAVioPlayEntity@@V?$allocator@PAVioPlayEntity@@@std@@@std@@SAAAPAU_Node@?$_List_nod@PAVioPlayEntity@@V?$allocator@PAVioPlayEntity@@@std@@@2@PAU342@@Z
_TEXT	SEGMENT
__Pnode$ = 8						; size = 4
?_Nextnode@?$_List_val@PAVioPlayEntity@@V?$allocator@PAVioPlayEntity@@@std@@@std@@SAAAPAU_Node@?$_List_nod@PAVioPlayEntity@@V?$allocator@PAVioPlayEntity@@@std@@@2@PAU342@@Z PROC ; std::_List_val<ioPlayEntity *,std::allocator<ioPlayEntity *> >::_Nextnode, COMDAT

; 560  : 		{	// return reference to successor pointer in node

  00000	55		 push	 ebp
  00001	8b ec		 mov	 ebp, esp

; 561  : 		return ((_Nodepref)(*_Pnode)._Next);

  00003	8b 45 08	 mov	 eax, DWORD PTR __Pnode$[ebp]

; 562  : 		}

  00006	5d		 pop	 ebp
  00007	c3		 ret	 0
?_Nextnode@?$_List_val@PAVioPlayEntity@@V?$allocator@PAVioPlayEntity@@@std@@@std@@SAAAPAU_Node@?$_List_nod@PAVioPlayEntity@@V?$allocator@PAVioPlayEntity@@@std@@@2@PAU342@@Z ENDP ; std::_List_val<ioPlayEntity *,std::allocator<ioPlayEntity *> >::_Nextnode
; Function compile flags: /Ogsp
_TEXT	ENDS
;	COMDAT ??_Gbad_alloc@std@@UAEPAXI@Z
_TEXT	SEGMENT
___flags$ = 8						; size = 4
??_Gbad_alloc@std@@UAEPAXI@Z PROC			; std::bad_alloc::`scalar deleting destructor', COMDAT
; _this$ = ecx
  00000	55		 push	 ebp
  00001	8b ec		 mov	 ebp, esp
  00003	56		 push	 esi
  00004	8b f1		 mov	 esi, ecx
  00006	c7 06 00 00 00
	00		 mov	 DWORD PTR [esi], OFFSET ??_7bad_alloc@std@@6B@
  0000c	ff 15 00 00 00
	00		 call	 DWORD PTR __imp_??1exception@std@@UAE@XZ
  00012	f6 45 08 01	 test	 BYTE PTR ___flags$[ebp], 1
  00016	74 07		 je	 SHORT $LN1@scalar
  00018	56		 push	 esi
  00019	e8 00 00 00 00	 call	 ??3@YAXPAX@Z		; operator delete
  0001e	59		 pop	 ecx
$LN1@scalar:
  0001f	8b c6		 mov	 eax, esi
  00021	5e		 pop	 esi
  00022	5d		 pop	 ebp
  00023	c2 04 00	 ret	 4
??_Gbad_alloc@std@@UAEPAXI@Z ENDP			; std::bad_alloc::`scalar deleting destructor'
_TEXT	ENDS
PUBLIC	??0?$allocator@PAVioPlayEntity@@@std@@QAE@XZ	; std::allocator<ioPlayEntity *>::allocator<ioPlayEntity *>
; Function compile flags: /Ogsp
; File c:\program files (x86)\microsoft visual studio 10.0\vc\include\xmemory
;	COMDAT ??0?$allocator@PAVioPlayEntity@@@std@@QAE@XZ
_TEXT	SEGMENT
??0?$allocator@PAVioPlayEntity@@@std@@QAE@XZ PROC	; std::allocator<ioPlayEntity *>::allocator<ioPlayEntity *>, COMDAT
; _this$ = ecx

; 161  : 	_ALLOCATOR() _THROW0()

  00000	8b c1		 mov	 eax, ecx

; 162  : 		{	// construct default allocator (do nothing)
; 163  : 		}

  00002	c3		 ret	 0
??0?$allocator@PAVioPlayEntity@@@std@@QAE@XZ ENDP	; std::allocator<ioPlayEntity *>::allocator<ioPlayEntity *>
_TEXT	ENDS
PUBLIC	?deallocate@?$allocator@U_Node@?$_List_nod@PAVioPlayEntity@@V?$allocator@PAVioPlayEntity@@@std@@@std@@@std@@QAEXPAU_Node@?$_List_nod@PAVioPlayEntity@@V?$allocator@PAVioPlayEntity@@@std@@@2@I@Z ; std::allocator<std::_List_nod<ioPlayEntity *,std::allocator<ioPlayEntity *> >::_Node>::deallocate
; Function compile flags: /Ogsp
;	COMDAT ?deallocate@?$allocator@U_Node@?$_List_nod@PAVioPlayEntity@@V?$allocator@PAVioPlayEntity@@@std@@@std@@@std@@QAEXPAU_Node@?$_List_nod@PAVioPlayEntity@@V?$allocator@PAVioPlayEntity@@@std@@@2@I@Z
_TEXT	SEGMENT
__Ptr$ = 8						; size = 4
___formal$ = 12						; size = 4
?deallocate@?$allocator@U_Node@?$_List_nod@PAVioPlayEntity@@V?$allocator@PAVioPlayEntity@@@std@@@std@@@std@@QAEXPAU_Node@?$_List_nod@PAVioPlayEntity@@V?$allocator@PAVioPlayEntity@@@std@@@2@I@Z PROC ; std::allocator<std::_List_nod<ioPlayEntity *,std::allocator<ioPlayEntity *> >::_Node>::deallocate, COMDAT
; _this$ = ecx

; 181  : 		{	// deallocate object at _Ptr, ignore size

  00000	55		 push	 ebp
  00001	8b ec		 mov	 ebp, esp

; 182  : 		::operator delete(_Ptr);

  00003	ff 75 08	 push	 DWORD PTR __Ptr$[ebp]
  00006	e8 00 00 00 00	 call	 ??3@YAXPAX@Z		; operator delete
  0000b	59		 pop	 ecx

; 183  : 		}

  0000c	5d		 pop	 ebp
  0000d	c2 08 00	 ret	 8
?deallocate@?$allocator@U_Node@?$_List_nod@PAVioPlayEntity@@V?$allocator@PAVioPlayEntity@@@std@@@std@@@std@@QAEXPAU_Node@?$_List_nod@PAVioPlayEntity@@V?$allocator@PAVioPlayEntity@@@std@@@2@I@Z ENDP ; std::allocator<std::_List_nod<ioPlayEntity *,std::allocator<ioPlayEntity *> >::_Node>::deallocate
_TEXT	ENDS
PUBLIC	??E?$_List_const_iterator@V?$_List_val@PAVioPlayEntity@@V?$allocator@PAVioPlayEntity@@@std@@@std@@@std@@QAEAAV01@XZ ; std::_List_const_iterator<std::_List_val<ioPlayEntity *,std::allocator<ioPlayEntity *> > >::operator++
; Function compile flags: /Ogsp
; File c:\program files (x86)\microsoft visual studio 10.0\vc\include\list
;	COMDAT ??E?$_List_const_iterator@V?$_List_val@PAVioPlayEntity@@V?$allocator@PAVioPlayEntity@@@std@@@std@@@std@@QAEAAV01@XZ
_TEXT	SEGMENT
??E?$_List_const_iterator@V?$_List_val@PAVioPlayEntity@@V?$allocator@PAVioPlayEntity@@@std@@@std@@@std@@QAEAAV01@XZ PROC ; std::_List_const_iterator<std::_List_val<ioPlayEntity *,std::allocator<ioPlayEntity *> > >::operator++, COMDAT
; _this$ = ecx

; 221  : 		{	// preincrement

  00000	8b c1		 mov	 eax, ecx

; 222  :  #if _ITERATOR_DEBUG_LEVEL == 2
; 223  : 		if (this->_Getcont() == 0
; 224  : 			|| this->_Ptr == 0
; 225  : 			|| this->_Ptr == ((_Mylist *)this->_Getcont())->_Myhead)
; 226  : 			{	// report error
; 227  : 			_DEBUG_ERROR("list iterator not incrementable");
; 228  : 			_SCL_SECURE_OUT_OF_RANGE;
; 229  : 			}
; 230  : 
; 231  :  #elif _ITERATOR_DEBUG_LEVEL == 1
; 232  : 		_SCL_SECURE_VALIDATE(this->_Getcont() != 0 && this->_Ptr != 0);
; 233  : 		_SCL_SECURE_VALIDATE_RANGE(this->_Ptr !=
; 234  : 			((_Mylist *)this->_Getcont())->_Myhead);
; 235  :  #endif /* _ITERATOR_DEBUG_LEVEL */
; 236  : 
; 237  : 		this->_Ptr = _Mylist::_Nextnode(this->_Ptr);

  00002	8b 08		 mov	 ecx, DWORD PTR [eax]
  00004	8b 09		 mov	 ecx, DWORD PTR [ecx]
  00006	89 08		 mov	 DWORD PTR [eax], ecx

; 238  : 		return (*this);
; 239  : 		}

  00008	c3		 ret	 0
??E?$_List_const_iterator@V?$_List_val@PAVioPlayEntity@@V?$allocator@PAVioPlayEntity@@@std@@@std@@@std@@QAEAAV01@XZ ENDP ; std::_List_const_iterator<std::_List_val<ioPlayEntity *,std::allocator<ioPlayEntity *> > >::operator++
_TEXT	ENDS
PUBLIC	??8?$_List_const_iterator@V?$_List_val@PAVioPlayEntity@@V?$allocator@PAVioPlayEntity@@@std@@@std@@@std@@QBE_NABV01@@Z ; std::_List_const_iterator<std::_List_val<ioPlayEntity *,std::allocator<ioPlayEntity *> > >::operator==
; Function compile flags: /Ogsp
;	COMDAT ??8?$_List_const_iterator@V?$_List_val@PAVioPlayEntity@@V?$allocator@PAVioPlayEntity@@@std@@@std@@@std@@QBE_NABV01@@Z
_TEXT	SEGMENT
__Right$ = 8						; size = 4
??8?$_List_const_iterator@V?$_List_val@PAVioPlayEntity@@V?$allocator@PAVioPlayEntity@@@std@@@std@@@std@@QBE_NABV01@@Z PROC ; std::_List_const_iterator<std::_List_val<ioPlayEntity *,std::allocator<ioPlayEntity *> > >::operator==, COMDAT
; _this$ = ecx

; 281  : 		{	// test for iterator equality

  00000	55		 push	 ebp
  00001	8b ec		 mov	 ebp, esp

; 282  :  #if _ITERATOR_DEBUG_LEVEL == 2
; 283  : 		if (this->_Getcont() == 0
; 284  : 			|| this->_Getcont() != _Right._Getcont())
; 285  : 			{	// report error
; 286  : 			_DEBUG_ERROR("list iterators incompatible");
; 287  : 			_SCL_SECURE_INVALID_ARGUMENT;
; 288  : 			}
; 289  : 
; 290  :  #elif _ITERATOR_DEBUG_LEVEL == 1
; 291  : 		_SCL_SECURE_VALIDATE(this->_Getcont() != 0
; 292  : 			&& this->_Getcont() == _Right._Getcont());
; 293  :  #endif /* _ITERATOR_DEBUG_LEVEL */
; 294  : 
; 295  : 		return (this->_Ptr == _Right._Ptr);

  00003	8b 01		 mov	 eax, DWORD PTR [ecx]
  00005	8b 4d 08	 mov	 ecx, DWORD PTR __Right$[ebp]
  00008	2b 01		 sub	 eax, DWORD PTR [ecx]
  0000a	f7 d8		 neg	 eax
  0000c	1b c0		 sbb	 eax, eax
  0000e	40		 inc	 eax

; 296  : 		}

  0000f	5d		 pop	 ebp
  00010	c2 04 00	 ret	 4
??8?$_List_const_iterator@V?$_List_val@PAVioPlayEntity@@V?$allocator@PAVioPlayEntity@@@std@@@std@@@std@@QBE_NABV01@@Z ENDP ; std::_List_const_iterator<std::_List_val<ioPlayEntity *,std::allocator<ioPlayEntity *> > >::operator==
_TEXT	ENDS
PUBLIC	??2@YAPAXIPAX@Z					; operator new
; Function compile flags: /Ogsp
; File c:\program files (x86)\microsoft visual studio 10.0\vc\include\new
;	COMDAT ??2@YAPAXIPAX@Z
_TEXT	SEGMENT
___formal$ = 8						; size = 4
__Where$ = 12						; size = 4
??2@YAPAXIPAX@Z PROC					; operator new, COMDAT

; 56   : 	{	// construct array with placement at _Where

  00000	55		 push	 ebp
  00001	8b ec		 mov	 ebp, esp

; 57   : 	return (_Where);

  00003	8b 45 0c	 mov	 eax, DWORD PTR __Where$[ebp]

; 58   : 	}

  00006	5d		 pop	 ebp
  00007	c3		 ret	 0
??2@YAPAXIPAX@Z ENDP					; operator new
_TEXT	ENDS
PUBLIC	?_Prevnode@?$_List_val@PAVioPlayEntity@@V?$allocator@PAVioPlayEntity@@@std@@@std@@SAAAPAU_Node@?$_List_nod@PAVioPlayEntity@@V?$allocator@PAVioPlayEntity@@@std@@@2@PAU342@@Z ; std::_List_val<ioPlayEntity *,std::allocator<ioPlayEntity *> >::_Prevnode
; Function compile flags: /Ogsp
; File c:\program files (x86)\microsoft visual studio 10.0\vc\include\list
;	COMDAT ?_Prevnode@?$_List_val@PAVioPlayEntity@@V?$allocator@PAVioPlayEntity@@@std@@@std@@SAAAPAU_Node@?$_List_nod@PAVioPlayEntity@@V?$allocator@PAVioPlayEntity@@@std@@@2@PAU342@@Z
_TEXT	SEGMENT
__Pnode$ = 8						; size = 4
?_Prevnode@?$_List_val@PAVioPlayEntity@@V?$allocator@PAVioPlayEntity@@@std@@@std@@SAAAPAU_Node@?$_List_nod@PAVioPlayEntity@@V?$allocator@PAVioPlayEntity@@@std@@@2@PAU342@@Z PROC ; std::_List_val<ioPlayEntity *,std::allocator<ioPlayEntity *> >::_Prevnode, COMDAT

; 565  : 		{	// return reference to predecessor pointer in node

  00000	55		 push	 ebp
  00001	8b ec		 mov	 ebp, esp

; 566  : 		return ((_Nodepref)(*_Pnode)._Prev);

  00003	8b 45 08	 mov	 eax, DWORD PTR __Pnode$[ebp]
  00006	83 c0 04	 add	 eax, 4

; 567  : 		}

  00009	5d		 pop	 ebp
  0000a	c3		 ret	 0
?_Prevnode@?$_List_val@PAVioPlayEntity@@V?$allocator@PAVioPlayEntity@@@std@@@std@@SAAAPAU_Node@?$_List_nod@PAVioPlayEntity@@V?$allocator@PAVioPlayEntity@@@std@@@2@PAU342@@Z ENDP ; std::_List_val<ioPlayEntity *,std::allocator<ioPlayEntity *> >::_Prevnode
_TEXT	ENDS
PUBLIC	??3@YAXPAX0@Z					; operator delete
; Function compile flags: /Ogsp
; File c:\program files (x86)\microsoft visual studio 10.0\vc\include\new
;	COMDAT ??3@YAXPAX0@Z
_TEXT	SEGMENT
___formal$ = 8						; size = 4
___formal$ = 12						; size = 4
??3@YAXPAX0@Z PROC					; operator delete, COMDAT

; 62   : 	}

  00000	c3		 ret	 0
??3@YAXPAX0@Z ENDP					; operator delete
_TEXT	ENDS
PUBLIC	?_Myval@?$_List_val@PAVioPlayEntity@@V?$allocator@PAVioPlayEntity@@@std@@@std@@SAAAPAVioPlayEntity@@PAU_Node@?$_List_nod@PAVioPlayEntity@@V?$allocator@PAVioPlayEntity@@@std@@@2@@Z ; std::_List_val<ioPlayEntity *,std::allocator<ioPlayEntity *> >::_Myval
; Function compile flags: /Ogsp
; File c:\program files (x86)\microsoft visual studio 10.0\vc\include\list
;	COMDAT ?_Myval@?$_List_val@PAVioPlayEntity@@V?$allocator@PAVioPlayEntity@@@std@@@std@@SAAAPAVioPlayEntity@@PAU_Node@?$_List_nod@PAVioPlayEntity@@V?$allocator@PAVioPlayEntity@@@std@@@2@@Z
_TEXT	SEGMENT
__Pnode$ = 8						; size = 4
?_Myval@?$_List_val@PAVioPlayEntity@@V?$allocator@PAVioPlayEntity@@@std@@@std@@SAAAPAVioPlayEntity@@PAU_Node@?$_List_nod@PAVioPlayEntity@@V?$allocator@PAVioPlayEntity@@@std@@@2@@Z PROC ; std::_List_val<ioPlayEntity *,std::allocator<ioPlayEntity *> >::_Myval, COMDAT

; 570  : 		{	// return reference to value in node

  00000	55		 push	 ebp
  00001	8b ec		 mov	 ebp, esp

; 571  : 		return ((reference)(*_Pnode)._Myval);

  00003	8b 45 08	 mov	 eax, DWORD PTR __Pnode$[ebp]
  00006	83 c0 08	 add	 eax, 8

; 572  : 		}

  00009	5d		 pop	 ebp
  0000a	c3		 ret	 0
?_Myval@?$_List_val@PAVioPlayEntity@@V?$allocator@PAVioPlayEntity@@@std@@@std@@SAAAPAVioPlayEntity@@PAU_Node@?$_List_nod@PAVioPlayEntity@@V?$allocator@PAVioPlayEntity@@@std@@@2@@Z ENDP ; std::_List_val<ioPlayEntity *,std::allocator<ioPlayEntity *> >::_Myval
_TEXT	ENDS
PUBLIC	??0?$allocator@PAVioPlayEntity@@@std@@QAE@ABV01@@Z ; std::allocator<ioPlayEntity *>::allocator<ioPlayEntity *>
; Function compile flags: /Ogsp
; File c:\program files (x86)\microsoft visual studio 10.0\vc\include\xmemory
;	COMDAT ??0?$allocator@PAVioPlayEntity@@@std@@QAE@ABV01@@Z
_TEXT	SEGMENT
___formal$ = 8						; size = 4
??0?$allocator@PAVioPlayEntity@@@std@@QAE@ABV01@@Z PROC	; std::allocator<ioPlayEntity *>::allocator<ioPlayEntity *>, COMDAT
; _this$ = ecx

; 165  : 	_ALLOCATOR(const _ALLOCATOR<_Ty>&) _THROW0()

  00000	8b c1		 mov	 eax, ecx

; 166  : 		{	// construct by copying (do nothing)
; 167  : 		}

  00002	c2 04 00	 ret	 4
??0?$allocator@PAVioPlayEntity@@@std@@QAE@ABV01@@Z ENDP	; std::allocator<ioPlayEntity *>::allocator<ioPlayEntity *>
_TEXT	ENDS
PUBLIC	?_Mynode@?$_List_unchecked_const_iterator@V?$_List_val@PAVioPlayEntity@@V?$allocator@PAVioPlayEntity@@@std@@@std@@U_Iterator_base0@2@@std@@QBEPAU_Node@?$_List_nod@PAVioPlayEntity@@V?$allocator@PAVioPlayEntity@@@std@@@2@XZ ; std::_List_unchecked_const_iterator<std::_List_val<ioPlayEntity *,std::allocator<ioPlayEntity *> >,std::_Iterator_base0>::_Mynode
; Function compile flags: /Ogsp
; File c:\program files (x86)\microsoft visual studio 10.0\vc\include\list
;	COMDAT ?_Mynode@?$_List_unchecked_const_iterator@V?$_List_val@PAVioPlayEntity@@V?$allocator@PAVioPlayEntity@@@std@@@std@@U_Iterator_base0@2@@std@@QBEPAU_Node@?$_List_nod@PAVioPlayEntity@@V?$allocator@PAVioPlayEntity@@@std@@@2@XZ
_TEXT	SEGMENT
?_Mynode@?$_List_unchecked_const_iterator@V?$_List_val@PAVioPlayEntity@@V?$allocator@PAVioPlayEntity@@@std@@@std@@U_Iterator_base0@2@@std@@QBEPAU_Node@?$_List_nod@PAVioPlayEntity@@V?$allocator@PAVioPlayEntity@@@std@@@2@XZ PROC ; std::_List_unchecked_const_iterator<std::_List_val<ioPlayEntity *,std::allocator<ioPlayEntity *> >,std::_Iterator_base0>::_Mynode, COMDAT
; _this$ = ecx

; 93   : 		return (_Ptr);

  00000	8b 01		 mov	 eax, DWORD PTR [ecx]

; 94   : 		}

  00002	c3		 ret	 0
?_Mynode@?$_List_unchecked_const_iterator@V?$_List_val@PAVioPlayEntity@@V?$allocator@PAVioPlayEntity@@@std@@@std@@U_Iterator_base0@2@@std@@QBEPAU_Node@?$_List_nod@PAVioPlayEntity@@V?$allocator@PAVioPlayEntity@@@std@@@2@XZ ENDP ; std::_List_unchecked_const_iterator<std::_List_val<ioPlayEntity *,std::allocator<ioPlayEntity *> >,std::_Iterator_base0>::_Mynode
_TEXT	ENDS
PUBLIC	?max_size@?$allocator@PAVioPlayEntity@@@std@@QBEIXZ ; std::allocator<ioPlayEntity *>::max_size
; Function compile flags: /Ogsp
; File c:\program files (x86)\microsoft visual studio 10.0\vc\include\xmemory
;	COMDAT ?max_size@?$allocator@PAVioPlayEntity@@@std@@QBEIXZ
_TEXT	SEGMENT
?max_size@?$allocator@PAVioPlayEntity@@@std@@QBEIXZ PROC ; std::allocator<ioPlayEntity *>::max_size, COMDAT
; _this$ = ecx

; 218  : 		_SIZT _Count = (_SIZT)(-1) / sizeof (_Ty);
; 219  : 		return (0 < _Count ? _Count : 1);

  00000	b8 ff ff ff 3f	 mov	 eax, 1073741823		; 3fffffffH

; 220  : 		}

  00005	c3		 ret	 0
?max_size@?$allocator@PAVioPlayEntity@@@std@@QBEIXZ ENDP ; std::allocator<ioPlayEntity *>::max_size
_TEXT	ENDS
PUBLIC	??$addressof@PAVioPlayEntity@@@std@@YAPAPAVioPlayEntity@@AAPAV1@@Z ; std::addressof<ioPlayEntity *>
; Function compile flags: /Ogsp
;	COMDAT ??$addressof@PAVioPlayEntity@@@std@@YAPAPAVioPlayEntity@@AAPAV1@@Z
_TEXT	SEGMENT
__Val$ = 8						; size = 4
??$addressof@PAVioPlayEntity@@@std@@YAPAPAVioPlayEntity@@AAPAV1@@Z PROC ; std::addressof<ioPlayEntity *>, COMDAT

; 110  : 	{	// return address of _Val

  00000	55		 push	 ebp
  00001	8b ec		 mov	 ebp, esp

; 111  : 	return ((_Ty *) &(char&)_Val);

  00003	8b 45 08	 mov	 eax, DWORD PTR __Val$[ebp]

; 112  : 	}

  00006	5d		 pop	 ebp
  00007	c3		 ret	 0
??$addressof@PAVioPlayEntity@@@std@@YAPAPAVioPlayEntity@@AAPAV1@@Z ENDP ; std::addressof<ioPlayEntity *>
_TEXT	ENDS
PUBLIC	??$?0PAVioPlayEntity@@@?$allocator@U_Node@?$_List_nod@PAVioPlayEntity@@V?$allocator@PAVioPlayEntity@@@std@@@std@@@std@@QAE@ABV?$allocator@PAVioPlayEntity@@@1@@Z ; std::allocator<std::_List_nod<ioPlayEntity *,std::allocator<ioPlayEntity *> >::_Node>::allocator<std::_List_nod<ioPlayEntity *,std::allocator<ioPlayEntity *> >::_Node><ioPlayEntity *>
; Function compile flags: /Ogsp
;	COMDAT ??$?0PAVioPlayEntity@@@?$allocator@U_Node@?$_List_nod@PAVioPlayEntity@@V?$allocator@PAVioPlayEntity@@@std@@@std@@@std@@QAE@ABV?$allocator@PAVioPlayEntity@@@1@@Z
_TEXT	SEGMENT
___formal$ = 8						; size = 4
??$?0PAVioPlayEntity@@@?$allocator@U_Node@?$_List_nod@PAVioPlayEntity@@V?$allocator@PAVioPlayEntity@@@std@@@std@@@std@@QAE@ABV?$allocator@PAVioPlayEntity@@@1@@Z PROC ; std::allocator<std::_List_nod<ioPlayEntity *,std::allocator<ioPlayEntity *> >::_Node>::allocator<std::_List_nod<ioPlayEntity *,std::allocator<ioPlayEntity *> >::_Node><ioPlayEntity *>, COMDAT
; _this$ = ecx

; 170  : 		_ALLOCATOR(const _ALLOCATOR<_Other>&) _THROW0()

  00000	8b c1		 mov	 eax, ecx

; 171  : 		{	// construct from a related allocator (do nothing)
; 172  : 		}

  00002	c2 04 00	 ret	 4
??$?0PAVioPlayEntity@@@?$allocator@U_Node@?$_List_nod@PAVioPlayEntity@@V?$allocator@PAVioPlayEntity@@@std@@@std@@@std@@QAE@ABV?$allocator@PAVioPlayEntity@@@1@@Z ENDP ; std::allocator<std::_List_nod<ioPlayEntity *,std::allocator<ioPlayEntity *> >::_Node>::allocator<std::_List_nod<ioPlayEntity *,std::allocator<ioPlayEntity *> >::_Node><ioPlayEntity *>
_TEXT	ENDS
PUBLIC	__TI2?AVbad_alloc@std@@
PUBLIC	??$_Allocate@U_Node@?$_List_nod@PAVioPlayEntity@@V?$allocator@PAVioPlayEntity@@@std@@@std@@@std@@YAPAU_Node@?$_List_nod@PAVioPlayEntity@@V?$allocator@PAVioPlayEntity@@@std@@@0@IPAU120@@Z ; std::_Allocate<std::_List_nod<ioPlayEntity *,std::allocator<ioPlayEntity *> >::_Node>
PUBLIC	__CTA2?AVbad_alloc@std@@
PUBLIC	__CT??_R0?AVbad_alloc@std@@@8??0bad_alloc@std@@QAE@ABV01@@Z12
PUBLIC	??0bad_alloc@std@@QAE@ABV01@@Z			; std::bad_alloc::bad_alloc
PUBLIC	__CT??_R0?AVexception@std@@@8??0exception@std@@QAE@ABV01@@Z12
EXTRN	__CxxThrowException@8:PROC
EXTRN	??0exception@std@@QAE@ABV01@@Z:PROC		; std::exception::exception
;	COMDAT __CT??_R0?AVexception@std@@@8??0exception@std@@QAE@ABV01@@Z12
; File c:\program files (x86)\microsoft visual studio 10.0\vc\include\exception
xdata$x	SEGMENT
__CT??_R0?AVexception@std@@@8??0exception@std@@QAE@ABV01@@Z12 DD 00H
	DD	FLAT:??_R0?AVexception@std@@@8
	DD	00H
	DD	0ffffffffH
	ORG $+4
	DD	0cH
	DD	FLAT:??0exception@std@@QAE@ABV01@@Z
xdata$x	ENDS
;	COMDAT __CT??_R0?AVbad_alloc@std@@@8??0bad_alloc@std@@QAE@ABV01@@Z12
xdata$x	SEGMENT
__CT??_R0?AVbad_alloc@std@@@8??0bad_alloc@std@@QAE@ABV01@@Z12 DD 00H
	DD	FLAT:??_R0?AVbad_alloc@std@@@8
	DD	00H
	DD	0ffffffffH
	ORG $+4
	DD	0cH
	DD	FLAT:??0bad_alloc@std@@QAE@ABV01@@Z
xdata$x	ENDS
;	COMDAT __CTA2?AVbad_alloc@std@@
xdata$x	SEGMENT
__CTA2?AVbad_alloc@std@@ DD 02H
	DD	FLAT:__CT??_R0?AVbad_alloc@std@@@8??0bad_alloc@std@@QAE@ABV01@@Z12
	DD	FLAT:__CT??_R0?AVexception@std@@@8??0exception@std@@QAE@ABV01@@Z12
xdata$x	ENDS
;	COMDAT __TI2?AVbad_alloc@std@@
xdata$x	SEGMENT
__TI2?AVbad_alloc@std@@ DD 00H
	DD	FLAT:??1bad_alloc@std@@UAE@XZ
	DD	00H
	DD	FLAT:__CTA2?AVbad_alloc@std@@
; Function compile flags: /Ogsp
; File c:\program files (x86)\microsoft visual studio 10.0\vc\include\xmemory
xdata$x	ENDS
;	COMDAT ??$_Allocate@U_Node@?$_List_nod@PAVioPlayEntity@@V?$allocator@PAVioPlayEntity@@@std@@@std@@@std@@YAPAU_Node@?$_List_nod@PAVioPlayEntity@@V?$allocator@PAVioPlayEntity@@@std@@@0@IPAU120@@Z
_TEXT	SEGMENT
$T513923 = -12						; size = 12
$T513928 = 8						; size = 4
__Count$ = 8						; size = 4
___formal$ = 12						; size = 4
??$_Allocate@U_Node@?$_List_nod@PAVioPlayEntity@@V?$allocator@PAVioPlayEntity@@@std@@@std@@@std@@YAPAU_Node@?$_List_nod@PAVioPlayEntity@@V?$allocator@PAVioPlayEntity@@@std@@@0@IPAU120@@Z PROC ; std::_Allocate<std::_List_nod<ioPlayEntity *,std::allocator<ioPlayEntity *> >::_Node>, COMDAT

; 30   : 	{	// allocate storage for _Count elements of type _Ty

  00000	55		 push	 ebp
  00001	8b ec		 mov	 ebp, esp

; 31   : 	void *_Ptr = 0;
; 32   : 
; 33   : 	if (_Count <= 0)

  00003	8b 4d 08	 mov	 ecx, DWORD PTR __Count$[ebp]
  00006	83 ec 0c	 sub	 esp, 12			; 0000000cH
  00009	33 c0		 xor	 eax, eax
  0000b	85 c9		 test	 ecx, ecx

; 34   : 		_Count = 0;
; 35   : 	else if (((_SIZT)(-1) / sizeof (_Ty) < _Count)

  0000d	74 3c		 je	 SHORT $LN5@Allocate

; 36   : 		|| (_Ptr = ::operator new(_Count * sizeof (_Ty))) == 0)

  0000f	81 f9 55 55 55
	15		 cmp	 ecx, 357913941		; 15555555H
  00015	77 0e		 ja	 SHORT $LN1@Allocate
  00017	6b c9 0c	 imul	 ecx, 12			; 0000000cH
  0001a	51		 push	 ecx
  0001b	e8 00 00 00 00	 call	 ??2@YAPAXI@Z		; operator new
  00020	59		 pop	 ecx
  00021	85 c0		 test	 eax, eax

; 38   : 
; 39   : 	return ((_Ty _FARQ *)_Ptr);

  00023	75 26		 jne	 SHORT $LN5@Allocate
$LN1@Allocate:

; 37   : 		_THROW_NCEE(bad_alloc, 0);

  00025	83 65 08 00	 and	 DWORD PTR $T513928[ebp], 0
  00029	8d 45 08	 lea	 eax, DWORD PTR $T513928[ebp]
  0002c	50		 push	 eax
  0002d	8d 4d f4	 lea	 ecx, DWORD PTR $T513923[ebp]
  00030	ff 15 00 00 00
	00		 call	 DWORD PTR __imp_??0exception@std@@QAE@ABQBD@Z
  00036	68 00 00 00 00	 push	 OFFSET __TI2?AVbad_alloc@std@@
  0003b	8d 45 f4	 lea	 eax, DWORD PTR $T513923[ebp]
  0003e	50		 push	 eax
  0003f	c7 45 f4 00 00
	00 00		 mov	 DWORD PTR $T513923[ebp], OFFSET ??_7bad_alloc@std@@6B@
  00046	e8 00 00 00 00	 call	 __CxxThrowException@8
$LN10@Allocate:
$LN5@Allocate:

; 40   : 	}

  0004b	c9		 leave
  0004c	c3		 ret	 0
$LN9@Allocate:
??$_Allocate@U_Node@?$_List_nod@PAVioPlayEntity@@V?$allocator@PAVioPlayEntity@@@std@@@std@@@std@@YAPAU_Node@?$_List_nod@PAVioPlayEntity@@V?$allocator@PAVioPlayEntity@@@std@@@0@IPAU120@@Z ENDP ; std::_Allocate<std::_List_nod<ioPlayEntity *,std::allocator<ioPlayEntity *> >::_Node>
_TEXT	ENDS
PUBLIC	??$forward@ABQAVioPlayEntity@@@std@@YAABQAVioPlayEntity@@ABQAV1@@Z ; std::forward<ioPlayEntity * const &>
; Function compile flags: /Ogsp
; File c:\program files (x86)\microsoft visual studio 10.0\vc\include\utility
;	COMDAT ??$forward@ABQAVioPlayEntity@@@std@@YAABQAVioPlayEntity@@ABQAV1@@Z
_TEXT	SEGMENT
__Arg$ = 8						; size = 4
??$forward@ABQAVioPlayEntity@@@std@@YAABQAVioPlayEntity@@ABQAV1@@Z PROC ; std::forward<ioPlayEntity * const &>, COMDAT

; 78   : 	{	// forward _Arg, given explicitly specified type parameter

  00000	55		 push	 ebp
  00001	8b ec		 mov	 ebp, esp

; 79   : 	return ((_Ty&&)_Arg);

  00003	8b 45 08	 mov	 eax, DWORD PTR __Arg$[ebp]

; 80   : 	}

  00006	5d		 pop	 ebp
  00007	c3		 ret	 0
??$forward@ABQAVioPlayEntity@@@std@@YAABQAVioPlayEntity@@ABQAV1@@Z ENDP ; std::forward<ioPlayEntity * const &>
_TEXT	ENDS
PUBLIC	??$_Construct@PAVioPlayEntity@@ABQAV1@@std@@YAXPAPAVioPlayEntity@@ABQAV1@@Z ; std::_Construct<ioPlayEntity *,ioPlayEntity * const &>
; Function compile flags: /Ogsp
; File c:\program files (x86)\microsoft visual studio 10.0\vc\include\xmemory
;	COMDAT ??$_Construct@PAVioPlayEntity@@ABQAV1@@std@@YAXPAPAVioPlayEntity@@ABQAV1@@Z
_TEXT	SEGMENT
__Ptr$ = 8						; size = 4
__Val$ = 12						; size = 4
??$_Construct@PAVioPlayEntity@@ABQAV1@@std@@YAXPAPAVioPlayEntity@@ABQAV1@@Z PROC ; std::_Construct<ioPlayEntity *,ioPlayEntity * const &>, COMDAT

; 46   : 	{	// construct object at _Ptr with value _Val

  00000	55		 push	 ebp
  00001	8b ec		 mov	 ebp, esp

; 47   : 	void _FARQ *_Vptr = _Ptr;
; 48   : 	::new (_Vptr) _Ty1(_STD forward<_Ty2>(_Val));

  00003	8b 45 08	 mov	 eax, DWORD PTR __Ptr$[ebp]
  00006	85 c0		 test	 eax, eax
  00008	74 07		 je	 SHORT $LN3@Construct
  0000a	8b 4d 0c	 mov	 ecx, DWORD PTR __Val$[ebp]
  0000d	8b 09		 mov	 ecx, DWORD PTR [ecx]
  0000f	89 08		 mov	 DWORD PTR [eax], ecx
$LN3@Construct:

; 49   : 	}

  00011	5d		 pop	 ebp
  00012	c3		 ret	 0
??$_Construct@PAVioPlayEntity@@ABQAV1@@std@@YAXPAPAVioPlayEntity@@ABQAV1@@Z ENDP ; std::_Construct<ioPlayEntity *,ioPlayEntity * const &>
_TEXT	ENDS
PUBLIC	??$_Destroy@U_Node@?$_List_nod@PAVioPlayEntity@@V?$allocator@PAVioPlayEntity@@@std@@@std@@@std@@YAXPAU_Node@?$_List_nod@PAVioPlayEntity@@V?$allocator@PAVioPlayEntity@@@std@@@0@@Z ; std::_Destroy<std::_List_nod<ioPlayEntity *,std::allocator<ioPlayEntity *> >::_Node>
; Function compile flags: /Ogsp
;	COMDAT ??$_Destroy@U_Node@?$_List_nod@PAVioPlayEntity@@V?$allocator@PAVioPlayEntity@@@std@@@std@@@std@@YAXPAU_Node@?$_List_nod@PAVioPlayEntity@@V?$allocator@PAVioPlayEntity@@@std@@@0@@Z
_TEXT	SEGMENT
__Ptr$ = 8						; size = 4
??$_Destroy@U_Node@?$_List_nod@PAVioPlayEntity@@V?$allocator@PAVioPlayEntity@@@std@@@std@@@std@@YAXPAU_Node@?$_List_nod@PAVioPlayEntity@@V?$allocator@PAVioPlayEntity@@@std@@@0@@Z PROC ; std::_Destroy<std::_List_nod<ioPlayEntity *,std::allocator<ioPlayEntity *> >::_Node>, COMDAT

; 63   : 	_Ptr->~_Ty();
; 64   : 	}

  00000	c3		 ret	 0
??$_Destroy@U_Node@?$_List_nod@PAVioPlayEntity@@V?$allocator@PAVioPlayEntity@@@std@@@std@@@std@@YAXPAU_Node@?$_List_nod@PAVioPlayEntity@@V?$allocator@PAVioPlayEntity@@@std@@@0@@Z ENDP ; std::_Destroy<std::_List_nod<ioPlayEntity *,std::allocator<ioPlayEntity *> >::_Node>
_TEXT	ENDS
PUBLIC	?_Adopt@_Iterator_base0@std@@QAEXPBX@Z		; std::_Iterator_base0::_Adopt
; Function compile flags: /Ogsp
; File c:\program files (x86)\microsoft visual studio 10.0\vc\include\xutility
;	COMDAT ?_Adopt@_Iterator_base0@std@@QAEXPBX@Z
_TEXT	SEGMENT
___formal$ = 8						; size = 4
?_Adopt@_Iterator_base0@std@@QAEXPBX@Z PROC		; std::_Iterator_base0::_Adopt, COMDAT
; _this$ = ecx

; 49   : 		}

  00000	c2 04 00	 ret	 4
?_Adopt@_Iterator_base0@std@@QAEXPBX@Z ENDP		; std::_Iterator_base0::_Adopt
_TEXT	ENDS
PUBLIC	??0D3DXVECTOR3@@QAE@XZ				; D3DXVECTOR3::D3DXVECTOR3
; Function compile flags: /Ogsp
; File c:\program files (x86)\microsoft directx sdk (june 2010)\include\d3dx9math.h
;	COMDAT ??0D3DXVECTOR3@@QAE@XZ
_TEXT	SEGMENT
??0D3DXVECTOR3@@QAE@XZ PROC				; D3DXVECTOR3::D3DXVECTOR3, COMDAT
; _this$ = ecx

; 165  :     D3DXVECTOR3() {};

  00000	8b c1		 mov	 eax, ecx
  00002	c3		 ret	 0
??0D3DXVECTOR3@@QAE@XZ ENDP				; D3DXVECTOR3::D3DXVECTOR3
_TEXT	ENDS
PUBLIC	??0D3DXVECTOR3@@QAE@MMM@Z			; D3DXVECTOR3::D3DXVECTOR3
EXTRN	__fltused:DWORD
; Function compile flags: /Ogsp
; File c:\program files (x86)\microsoft directx sdk (june 2010)\include\d3dx9math.inl
;	COMDAT ??0D3DXVECTOR3@@QAE@MMM@Z
_TEXT	SEGMENT
_fx$ = 8						; size = 4
_fy$ = 12						; size = 4
_fz$ = 16						; size = 4
??0D3DXVECTOR3@@QAE@MMM@Z PROC				; D3DXVECTOR3::D3DXVECTOR3, COMDAT
; _this$ = ecx

; 303  : {

  00000	55		 push	 ebp
  00001	8b ec		 mov	 ebp, esp

; 304  :     x = fx;

  00003	f3 0f 10 45 08	 movss	 xmm0, DWORD PTR _fx$[ebp]
  00008	8b c1		 mov	 eax, ecx
  0000a	f3 0f 11 00	 movss	 DWORD PTR [eax], xmm0

; 305  :     y = fy;

  0000e	f3 0f 10 45 0c	 movss	 xmm0, DWORD PTR _fy$[ebp]
  00013	f3 0f 11 40 04	 movss	 DWORD PTR [eax+4], xmm0

; 306  :     z = fz;

  00018	f3 0f 10 45 10	 movss	 xmm0, DWORD PTR _fz$[ebp]
  0001d	f3 0f 11 40 08	 movss	 DWORD PTR [eax+8], xmm0

; 307  : }

  00022	5d		 pop	 ebp
  00023	c2 0c 00	 ret	 12			; 0000000cH
??0D3DXVECTOR3@@QAE@MMM@Z ENDP				; D3DXVECTOR3::D3DXVECTOR3
_TEXT	ENDS
PUBLIC	?_DECSTR@@YAXPADH@Z				; _DECSTR
; Function compile flags: /Ogsp
; File d:\lost saga for developer\youtube\tutorial\source\src\lsclient\stringprotect.h
;	COMDAT ?_DECSTR@@YAXPADH@Z
_TEXT	SEGMENT
_s$ = 8							; size = 4
_l$ = 12						; size = 4
?_DECSTR@@YAXPADH@Z PROC				; _DECSTR, COMDAT

; 40   : __forceinline void _DECSTR(char* s, int l){int i=0,l4=(l-1)/4,*p=(int*)s;s[l-1]=0;for(;i<l4;++i)*(p++)^=0xEAEBECED;for(i=l4*4;i<l-1;++i)s[i]^=0xED-i%4;}

  00000	55		 push	 ebp
  00001	8b ec		 mov	 ebp, esp
  00003	8b 4d 0c	 mov	 ecx, DWORD PTR _l$[ebp]
  00006	56		 push	 esi
  00007	8b 75 08	 mov	 esi, DWORD PTR _s$[ebp]
  0000a	57		 push	 edi
  0000b	8d 79 ff	 lea	 edi, DWORD PTR [ecx-1]
  0000e	8b c7		 mov	 eax, edi
  00010	99		 cdq
  00011	83 e2 03	 and	 edx, 3
  00014	03 c2		 add	 eax, edx
  00016	c1 f8 02	 sar	 eax, 2
  00019	8b d6		 mov	 edx, esi
  0001b	c6 44 0e ff 00	 mov	 BYTE PTR [esi+ecx-1], 0
  00020	85 c0		 test	 eax, eax
  00022	7e 0e		 jle	 SHORT $LN4@DECSTR
  00024	8b c8		 mov	 ecx, eax
$LL6@DECSTR:
  00026	81 32 ed ec eb
	ea		 xor	 DWORD PTR [edx], -353637139 ; eaebecedH
  0002c	83 c2 04	 add	 edx, 4
  0002f	49		 dec	 ecx
  00030	75 f4		 jne	 SHORT $LL6@DECSTR
$LN4@DECSTR:
  00032	c1 e0 02	 shl	 eax, 2
  00035	eb 17		 jmp	 SHORT $LN14@DECSTR
$LL3@DECSTR:
  00037	8b c8		 mov	 ecx, eax
  00039	81 e1 03 00 00
	80		 and	 ecx, -2147483645	; 80000003H
  0003f	79 05		 jns	 SHORT $LN13@DECSTR
  00041	49		 dec	 ecx
  00042	83 c9 fc	 or	 ecx, -4			; fffffffcH
  00045	41		 inc	 ecx
$LN13@DECSTR:
  00046	b2 ed		 mov	 dl, -19			; ffffffedH
  00048	2a d1		 sub	 dl, cl
  0004a	30 14 30	 xor	 BYTE PTR [eax+esi], dl
  0004d	40		 inc	 eax
$LN14@DECSTR:
  0004e	3b c7		 cmp	 eax, edi
  00050	7c e5		 jl	 SHORT $LL3@DECSTR
  00052	5f		 pop	 edi
  00053	5e		 pop	 esi
  00054	5d		 pop	 ebp
  00055	c3		 ret	 0
?_DECSTR@@YAXPADH@Z ENDP				; _DECSTR
_TEXT	ENDS
PUBLIC	??_R0?AVioGameEntity@@@8			; ioGameEntity `RTTI Type Descriptor'
PUBLIC	??_R0?AVioPlayEntity@@@8			; ioPlayEntity `RTTI Type Descriptor'
PUBLIC	?ToPlayEntity@@YAPAVioPlayEntity@@PAVioGameEntity@@@Z ; ToPlayEntity
EXTRN	___RTDynamicCast:PROC
;	COMDAT ??_R0?AVioGameEntity@@@8
; File d:\lost saga for developer\youtube\tutorial\source\src\lsclient\ioplayentity.h
_DATA	SEGMENT
??_R0?AVioGameEntity@@@8 DD FLAT:??_7type_info@@6B@	; ioGameEntity `RTTI Type Descriptor'
	DD	00H
	DB	'.?AVioGameEntity@@', 00H
_DATA	ENDS
;	COMDAT ??_R0?AVioPlayEntity@@@8
_DATA	SEGMENT
??_R0?AVioPlayEntity@@@8 DD FLAT:??_7type_info@@6B@	; ioPlayEntity `RTTI Type Descriptor'
	DD	00H
	DB	'.?AVioPlayEntity@@', 00H
; Function compile flags: /Ogsp
_DATA	ENDS
;	COMDAT ?ToPlayEntity@@YAPAVioPlayEntity@@PAVioGameEntity@@@Z
_TEXT	SEGMENT
_pObj$ = 8						; size = 4
?ToPlayEntity@@YAPAVioPlayEntity@@PAVioGameEntity@@@Z PROC ; ToPlayEntity, COMDAT

; 121  : {

  00000	55		 push	 ebp
  00001	8b ec		 mov	 ebp, esp
  00003	56		 push	 esi

; 122  : 	if( !pObj || pObj->GetTypeID() != ioGameEntity::GET_PLAY_ENTITY )

  00004	8b 75 08	 mov	 esi, DWORD PTR _pObj$[ebp]
  00007	85 f6		 test	 esi, esi
  00009	74 25		 je	 SHORT $LN1@ToPlayEnti
  0000b	8b 06		 mov	 eax, DWORD PTR [esi]
  0000d	8b ce		 mov	 ecx, esi
  0000f	ff 50 10	 call	 DWORD PTR [eax+16]
  00012	83 f8 01	 cmp	 eax, 1
  00015	75 19		 jne	 SHORT $LN1@ToPlayEnti

; 124  : 
; 125  : 	return dynamic_cast< ioPlayEntity* >( pObj );

  00017	6a 00		 push	 0
  00019	68 00 00 00 00	 push	 OFFSET ??_R0?AVioPlayEntity@@@8
  0001e	68 00 00 00 00	 push	 OFFSET ??_R0?AVioGameEntity@@@8
  00023	6a 00		 push	 0
  00025	56		 push	 esi
  00026	e8 00 00 00 00	 call	 ___RTDynamicCast
  0002b	83 c4 14	 add	 esp, 20			; 00000014H
  0002e	eb 02		 jmp	 SHORT $LN3@ToPlayEnti
$LN1@ToPlayEnti:

; 123  : 		return NULL;

  00030	33 c0		 xor	 eax, eax
$LN3@ToPlayEnti:
  00032	5e		 pop	 esi

; 126  : }

  00033	5d		 pop	 ebp
  00034	c3		 ret	 0
?ToPlayEntity@@YAPAVioPlayEntity@@PAVioGameEntity@@@Z ENDP ; ToPlayEntity
_TEXT	ENDS
PUBLIC	?GetCreateIndex@ioWallZone@@QBEHXZ		; ioWallZone::GetCreateIndex
; Function compile flags: /Ogsp
; File d:\lost saga for developer\youtube\tutorial\source\src\lsclient\iowallzone.h
;	COMDAT ?GetCreateIndex@ioWallZone@@QBEHXZ
_TEXT	SEGMENT
?GetCreateIndex@ioWallZone@@QBEHXZ PROC			; ioWallZone::GetCreateIndex, COMDAT
; _this$ = ecx

; 15   : 	inline int GetCreateIndex() const { return m_iCreateIndex; }

  00000	8b 81 c8 01 00
	00		 mov	 eax, DWORD PTR [ecx+456]
  00006	c3		 ret	 0
?GetCreateIndex@ioWallZone@@QBEHXZ ENDP			; ioWallZone::GetCreateIndex
_TEXT	ENDS
PUBLIC	??_R0?AVioWallZone@@@8				; ioWallZone `RTTI Type Descriptor'
PUBLIC	?ToWallZone@@YAPAVioWallZone@@PAVioGameEntity@@@Z ; ToWallZone
;	COMDAT ??_R0?AVioWallZone@@@8
_DATA	SEGMENT
??_R0?AVioWallZone@@@8 DD FLAT:??_7type_info@@6B@	; ioWallZone `RTTI Type Descriptor'
	DD	00H
	DB	'.?AVioWallZone@@', 00H
; Function compile flags: /Ogsp
_DATA	ENDS
;	COMDAT ?ToWallZone@@YAPAVioWallZone@@PAVioGameEntity@@@Z
_TEXT	SEGMENT
_pObj$ = 8						; size = 4
?ToWallZone@@YAPAVioWallZone@@PAVioGameEntity@@@Z PROC	; ToWallZone, COMDAT

; 50   : {

  00000	55		 push	 ebp
  00001	8b ec		 mov	 ebp, esp
  00003	56		 push	 esi

; 51   : 	ioPlayEntity *pPlay = ToPlayEntity( pObj );

  00004	ff 75 08	 push	 DWORD PTR _pObj$[ebp]
  00007	e8 00 00 00 00	 call	 ?ToPlayEntity@@YAPAVioPlayEntity@@PAVioGameEntity@@@Z ; ToPlayEntity
  0000c	8b f0		 mov	 esi, eax
  0000e	59		 pop	 ecx

; 52   : 	if( !pPlay || pPlay->GetSubType() != ioPlayEntity::PST_WALL_ZONE )

  0000f	85 f6		 test	 esi, esi
  00011	74 28		 je	 SHORT $LN1@ToWallZone
  00013	8b 06		 mov	 eax, DWORD PTR [esi]
  00015	8b ce		 mov	 ecx, esi
  00017	ff 90 a4 00 00
	00		 call	 DWORD PTR [eax+164]
  0001d	83 f8 0b	 cmp	 eax, 11			; 0000000bH
  00020	75 19		 jne	 SHORT $LN1@ToWallZone

; 54   : 
; 55   : 	return dynamic_cast< ioWallZone* >( pPlay );

  00022	6a 00		 push	 0
  00024	68 00 00 00 00	 push	 OFFSET ??_R0?AVioWallZone@@@8
  00029	68 00 00 00 00	 push	 OFFSET ??_R0?AVioPlayEntity@@@8
  0002e	6a 00		 push	 0
  00030	56		 push	 esi
  00031	e8 00 00 00 00	 call	 ___RTDynamicCast
  00036	83 c4 14	 add	 esp, 20			; 00000014H
  00039	eb 02		 jmp	 SHORT $LN3@ToWallZone
$LN1@ToWallZone:

; 53   : 		return NULL;

  0003b	33 c0		 xor	 eax, eax
$LN3@ToWallZone:
  0003d	5e		 pop	 esi

; 56   : }

  0003e	5d		 pop	 ebp
  0003f	c3		 ret	 0
?ToWallZone@@YAPAVioWallZone@@PAVioGameEntity@@@Z ENDP	; ToWallZone
_TEXT	ENDS
EXTRN	__imp_??0exception@std@@QAE@ABV01@@Z:PROC
; Function compile flags: /Ogsp
;	COMDAT ??0bad_alloc@std@@QAE@ABV01@@Z
_TEXT	SEGMENT
___that$ = 8						; size = 4
??0bad_alloc@std@@QAE@ABV01@@Z PROC			; std::bad_alloc::bad_alloc, COMDAT
; _this$ = ecx
  00000	55		 push	 ebp
  00001	8b ec		 mov	 ebp, esp
  00003	56		 push	 esi
  00004	ff 75 08	 push	 DWORD PTR ___that$[ebp]
  00007	8b f1		 mov	 esi, ecx
  00009	ff 15 00 00 00
	00		 call	 DWORD PTR __imp_??0exception@std@@QAE@ABV01@@Z
  0000f	c7 06 00 00 00
	00		 mov	 DWORD PTR [esi], OFFSET ??_7bad_alloc@std@@6B@
  00015	8b c6		 mov	 eax, esi
  00017	5e		 pop	 esi
  00018	5d		 pop	 ebp
  00019	c2 04 00	 ret	 4
??0bad_alloc@std@@QAE@ABV01@@Z ENDP			; std::bad_alloc::bad_alloc
_TEXT	ENDS
PUBLIC	??_R0?AVioTeleportZone@@@8			; ioTeleportZone `RTTI Type Descriptor'
PUBLIC	?ToTeleportZone@@YAPAVioTeleportZone@@PAVioGameEntity@@@Z ; ToTeleportZone
;	COMDAT ??_R0?AVioTeleportZone@@@8
; File d:\lost saga for developer\youtube\tutorial\source\src\lsclient\ioteleportzone.h
_DATA	SEGMENT
??_R0?AVioTeleportZone@@@8 DD FLAT:??_7type_info@@6B@	; ioTeleportZone `RTTI Type Descriptor'
	DD	00H
	DB	'.?AVioTeleportZone@@', 00H
; Function compile flags: /Ogsp
_DATA	ENDS
;	COMDAT ?ToTeleportZone@@YAPAVioTeleportZone@@PAVioGameEntity@@@Z
_TEXT	SEGMENT
_pObj$ = 8						; size = 4
?ToTeleportZone@@YAPAVioTeleportZone@@PAVioGameEntity@@@Z PROC ; ToTeleportZone, COMDAT

; 56   : {

  00000	55		 push	 ebp
  00001	8b ec		 mov	 ebp, esp
  00003	56		 push	 esi

; 57   : 	ioPlayEntity *pPlay = ToPlayEntity( pObj );

  00004	ff 75 08	 push	 DWORD PTR _pObj$[ebp]
  00007	e8 00 00 00 00	 call	 ?ToPlayEntity@@YAPAVioPlayEntity@@PAVioGameEntity@@@Z ; ToPlayEntity
  0000c	8b f0		 mov	 esi, eax
  0000e	59		 pop	 ecx

; 58   : 	if( !pPlay || pPlay->GetSubType() != ioPlayEntity::PST_TELEPORT_ZONE )

  0000f	85 f6		 test	 esi, esi
  00011	74 28		 je	 SHORT $LN1@ToTeleport
  00013	8b 06		 mov	 eax, DWORD PTR [esi]
  00015	8b ce		 mov	 ecx, esi
  00017	ff 90 a4 00 00
	00		 call	 DWORD PTR [eax+164]
  0001d	83 f8 04	 cmp	 eax, 4
  00020	75 19		 jne	 SHORT $LN1@ToTeleport

; 60   : 
; 61   : 	return dynamic_cast< ioTeleportZone* >( pPlay );

  00022	6a 00		 push	 0
  00024	68 00 00 00 00	 push	 OFFSET ??_R0?AVioTeleportZone@@@8
  00029	68 00 00 00 00	 push	 OFFSET ??_R0?AVioPlayEntity@@@8
  0002e	6a 00		 push	 0
  00030	56		 push	 esi
  00031	e8 00 00 00 00	 call	 ___RTDynamicCast
  00036	83 c4 14	 add	 esp, 20			; 00000014H
  00039	eb 02		 jmp	 SHORT $LN3@ToTeleport
$LN1@ToTeleport:

; 59   : 		return NULL;

  0003b	33 c0		 xor	 eax, eax
$LN3@ToTeleport:
  0003d	5e		 pop	 esi

; 62   : }

  0003e	5d		 pop	 ebp
  0003f	c3		 ret	 0
?ToTeleportZone@@YAPAVioTeleportZone@@PAVioGameEntity@@@Z ENDP ; ToTeleportZone
_TEXT	ENDS
PUBLIC	??_R0?AVioConveyer@@@8				; ioConveyer `RTTI Type Descriptor'
PUBLIC	?ToConveyer@@YAPAVioConveyer@@PAVioGameEntity@@@Z ; ToConveyer
;	COMDAT ??_R0?AVioConveyer@@@8
; File d:\lost saga for developer\youtube\tutorial\source\src\lsclient\ioconveyer.h
_DATA	SEGMENT
??_R0?AVioConveyer@@@8 DD FLAT:??_7type_info@@6B@	; ioConveyer `RTTI Type Descriptor'
	DD	00H
	DB	'.?AVioConveyer@@', 00H
; Function compile flags: /Ogsp
_DATA	ENDS
;	COMDAT ?ToConveyer@@YAPAVioConveyer@@PAVioGameEntity@@@Z
_TEXT	SEGMENT
_pObj$ = 8						; size = 4
?ToConveyer@@YAPAVioConveyer@@PAVioGameEntity@@@Z PROC	; ToConveyer, COMDAT

; 60   : {

  00000	55		 push	 ebp
  00001	8b ec		 mov	 ebp, esp
  00003	56		 push	 esi

; 61   : 	ioPlayEntity *pPlay = ToPlayEntity( pObj );

  00004	ff 75 08	 push	 DWORD PTR _pObj$[ebp]
  00007	e8 00 00 00 00	 call	 ?ToPlayEntity@@YAPAVioPlayEntity@@PAVioGameEntity@@@Z ; ToPlayEntity
  0000c	8b f0		 mov	 esi, eax
  0000e	59		 pop	 ecx

; 62   : 	if( !pPlay || pPlay->GetSubType() != ioPlayEntity::PST_CONVEYER )

  0000f	85 f6		 test	 esi, esi
  00011	74 28		 je	 SHORT $LN1@ToConveyer
  00013	8b 06		 mov	 eax, DWORD PTR [esi]
  00015	8b ce		 mov	 ecx, esi
  00017	ff 90 a4 00 00
	00		 call	 DWORD PTR [eax+164]
  0001d	83 f8 05	 cmp	 eax, 5
  00020	75 19		 jne	 SHORT $LN1@ToConveyer

; 64   : 
; 65   : 	return dynamic_cast< ioConveyer* >( pPlay );

  00022	6a 00		 push	 0
  00024	68 00 00 00 00	 push	 OFFSET ??_R0?AVioConveyer@@@8
  00029	68 00 00 00 00	 push	 OFFSET ??_R0?AVioPlayEntity@@@8
  0002e	6a 00		 push	 0
  00030	56		 push	 esi
  00031	e8 00 00 00 00	 call	 ___RTDynamicCast
  00036	83 c4 14	 add	 esp, 20			; 00000014H
  00039	eb 02		 jmp	 SHORT $LN3@ToConveyer
$LN1@ToConveyer:

; 63   : 		return NULL;

  0003b	33 c0		 xor	 eax, eax
$LN3@ToConveyer:
  0003d	5e		 pop	 esi

; 66   : }

  0003e	5d		 pop	 ebp
  0003f	c3		 ret	 0
?ToConveyer@@YAPAVioConveyer@@PAVioGameEntity@@@Z ENDP	; ToConveyer
_TEXT	ENDS
PUBLIC	??_R0?AVioElevator@@@8				; ioElevator `RTTI Type Descriptor'
PUBLIC	?ToElevator@@YAPAVioElevator@@PAVioGameEntity@@@Z ; ToElevator
;	COMDAT ??_R0?AVioElevator@@@8
; File d:\lost saga for developer\youtube\tutorial\source\src\lsclient\ioelevator.h
_DATA	SEGMENT
??_R0?AVioElevator@@@8 DD FLAT:??_7type_info@@6B@	; ioElevator `RTTI Type Descriptor'
	DD	00H
	DB	'.?AVioElevator@@', 00H
; Function compile flags: /Ogsp
_DATA	ENDS
;	COMDAT ?ToElevator@@YAPAVioElevator@@PAVioGameEntity@@@Z
_TEXT	SEGMENT
_pObj$ = 8						; size = 4
?ToElevator@@YAPAVioElevator@@PAVioGameEntity@@@Z PROC	; ToElevator, COMDAT

; 99   : {

  00000	55		 push	 ebp
  00001	8b ec		 mov	 ebp, esp
  00003	56		 push	 esi

; 100  : 	ioPlayEntity *pPlay = ToPlayEntity( pObj );

  00004	ff 75 08	 push	 DWORD PTR _pObj$[ebp]
  00007	e8 00 00 00 00	 call	 ?ToPlayEntity@@YAPAVioPlayEntity@@PAVioGameEntity@@@Z ; ToPlayEntity
  0000c	8b f0		 mov	 esi, eax
  0000e	59		 pop	 ecx

; 101  : 	if( !pPlay || pPlay->GetSubType() != ioPlayEntity::PST_ELEVATOR )

  0000f	85 f6		 test	 esi, esi
  00011	74 28		 je	 SHORT $LN1@ToElevator
  00013	8b 06		 mov	 eax, DWORD PTR [esi]
  00015	8b ce		 mov	 ecx, esi
  00017	ff 90 a4 00 00
	00		 call	 DWORD PTR [eax+164]
  0001d	83 f8 06	 cmp	 eax, 6
  00020	75 19		 jne	 SHORT $LN1@ToElevator

; 103  : 
; 104  : 	return dynamic_cast< ioElevator* >( pPlay );

  00022	6a 00		 push	 0
  00024	68 00 00 00 00	 push	 OFFSET ??_R0?AVioElevator@@@8
  00029	68 00 00 00 00	 push	 OFFSET ??_R0?AVioPlayEntity@@@8
  0002e	6a 00		 push	 0
  00030	56		 push	 esi
  00031	e8 00 00 00 00	 call	 ___RTDynamicCast
  00036	83 c4 14	 add	 esp, 20			; 00000014H
  00039	eb 02		 jmp	 SHORT $LN3@ToElevator
$LN1@ToElevator:

; 102  : 		return NULL;

  0003b	33 c0		 xor	 eax, eax
$LN3@ToElevator:
  0003d	5e		 pop	 esi

; 105  : }

  0003e	5d		 pop	 ebp
  0003f	c3		 ret	 0
?ToElevator@@YAPAVioElevator@@PAVioGameEntity@@@Z ENDP	; ToElevator
_TEXT	ENDS
PUBLIC	??_R0?AVioAffectorZone@@@8			; ioAffectorZone `RTTI Type Descriptor'
PUBLIC	?ToAffectorZone@@YAPAVioAffectorZone@@PAVioGameEntity@@@Z ; ToAffectorZone
;	COMDAT ??_R0?AVioAffectorZone@@@8
; File d:\lost saga for developer\youtube\tutorial\source\src\lsclient\ioaffectorzone.h
_DATA	SEGMENT
??_R0?AVioAffectorZone@@@8 DD FLAT:??_7type_info@@6B@	; ioAffectorZone `RTTI Type Descriptor'
	DD	00H
	DB	'.?AVioAffectorZone@@', 00H
; Function compile flags: /Ogsp
_DATA	ENDS
;	COMDAT ?ToAffectorZone@@YAPAVioAffectorZone@@PAVioGameEntity@@@Z
_TEXT	SEGMENT
_pObj$ = 8						; size = 4
?ToAffectorZone@@YAPAVioAffectorZone@@PAVioGameEntity@@@Z PROC ; ToAffectorZone, COMDAT

; 60   : {

  00000	55		 push	 ebp
  00001	8b ec		 mov	 ebp, esp
  00003	56		 push	 esi

; 61   : 	ioPlayEntity *pPlay = ToPlayEntity( pObj );

  00004	ff 75 08	 push	 DWORD PTR _pObj$[ebp]
  00007	e8 00 00 00 00	 call	 ?ToPlayEntity@@YAPAVioPlayEntity@@PAVioGameEntity@@@Z ; ToPlayEntity
  0000c	8b f0		 mov	 esi, eax
  0000e	59		 pop	 ecx

; 62   : 	if( !pPlay || pPlay->GetSubType() != ioPlayEntity::PST_AFFECTOR_ZONE )

  0000f	85 f6		 test	 esi, esi
  00011	74 28		 je	 SHORT $LN1@ToAffector
  00013	8b 06		 mov	 eax, DWORD PTR [esi]
  00015	8b ce		 mov	 ecx, esi
  00017	ff 90 a4 00 00
	00		 call	 DWORD PTR [eax+164]
  0001d	83 f8 07	 cmp	 eax, 7
  00020	75 19		 jne	 SHORT $LN1@ToAffector

; 64   : 
; 65   : 	return dynamic_cast< ioAffectorZone* >( pPlay );

  00022	6a 00		 push	 0
  00024	68 00 00 00 00	 push	 OFFSET ??_R0?AVioAffectorZone@@@8
  00029	68 00 00 00 00	 push	 OFFSET ??_R0?AVioPlayEntity@@@8
  0002e	6a 00		 push	 0
  00030	56		 push	 esi
  00031	e8 00 00 00 00	 call	 ___RTDynamicCast
  00036	83 c4 14	 add	 esp, 20			; 00000014H
  00039	eb 02		 jmp	 SHORT $LN3@ToAffector
$LN1@ToAffector:

; 63   : 		return NULL;

  0003b	33 c0		 xor	 eax, eax
$LN3@ToAffector:
  0003d	5e		 pop	 esi

; 66   : }

  0003e	5d		 pop	 ebp
  0003f	c3		 ret	 0
?ToAffectorZone@@YAPAVioAffectorZone@@PAVioGameEntity@@@Z ENDP ; ToAffectorZone
_TEXT	ENDS
PUBLIC	?IsWorldEntity@ioWorldEntityFactory@@QAE_NPAVioPlayEntity@@H@Z ; ioWorldEntityFactory::IsWorldEntity
; Function compile flags: /Ogsp
; File d:\lost saga for developer\youtube\tutorial\source\src\lsclient\ioworldentityfactory.cpp
;	COMDAT ?IsWorldEntity@ioWorldEntityFactory@@QAE_NPAVioPlayEntity@@H@Z
_TEXT	SEGMENT
_pPlayEntity$ = 8					; size = 4
_iCreateIndex$ = 12					; size = 4
?IsWorldEntity@ioWorldEntityFactory@@QAE_NPAVioPlayEntity@@H@Z PROC ; ioWorldEntityFactory::IsWorldEntity, COMDAT
; _this$ = ecx

; 109  : {

  00000	55		 push	 ebp
  00001	8b ec		 mov	 ebp, esp
  00003	56		 push	 esi

; 110  : 	if( pPlayEntity == NULL )

  00004	8b 75 08	 mov	 esi, DWORD PTR _pPlayEntity$[ebp]
  00007	85 f6		 test	 esi, esi

; 111  : 		return false;

  00009	74 62		 je	 SHORT $LN9@IsWorldEnt

; 112  : 
; 113  : 	switch( pPlayEntity->GetSubType() )

  0000b	8b 06		 mov	 eax, DWORD PTR [esi]
  0000d	8b ce		 mov	 ecx, esi
  0000f	ff 90 a4 00 00
	00		 call	 DWORD PTR [eax+164]
  00015	83 e8 04	 sub	 eax, 4
  00018	74 39		 je	 SHORT $LN10@IsWorldEnt
  0001a	48		 dec	 eax
  0001b	74 2e		 je	 SHORT $LN8@IsWorldEnt
  0001d	48		 dec	 eax
  0001e	74 23		 je	 SHORT $LN6@IsWorldEnt
  00020	48		 dec	 eax
  00021	74 0d		 je	 SHORT $LN4@IsWorldEnt
  00023	83 e8 04	 sub	 eax, 4
  00026	75 45		 jne	 SHORT $LN9@IsWorldEnt

; 141  : 		}
; 142  : 		break;
; 143  : 	case ioPlayEntity::PST_WALL_ZONE:
; 144  : 		{
; 145  : 			ioWallZone *pEntity = ToWallZone( pPlayEntity );

  00028	56		 push	 esi
  00029	e8 00 00 00 00	 call	 ?ToWallZone@@YAPAVioWallZone@@PAVioGameEntity@@@Z ; ToWallZone

; 146  : 			if( pEntity && pEntity->GetCreateIndex() == iCreateIndex )
; 147  : 				return true;

  0002e	eb 29		 jmp	 SHORT $LN26@IsWorldEnt
$LN4@IsWorldEnt:

; 134  : 		}
; 135  : 		break;
; 136  : 	case ioPlayEntity::PST_AFFECTOR_ZONE:
; 137  : 		{
; 138  : 			ioAffectorZone *pEntity = ToAffectorZone( pPlayEntity );

  00030	56		 push	 esi
  00031	e8 00 00 00 00	 call	 ?ToAffectorZone@@YAPAVioAffectorZone@@PAVioGameEntity@@@Z ; ToAffectorZone
  00036	59		 pop	 ecx

; 139  : 			if( pEntity && pEntity->GetCreateIndex() == iCreateIndex )

  00037	85 c0		 test	 eax, eax
  00039	74 32		 je	 SHORT $LN9@IsWorldEnt
  0003b	8b 80 cc 01 00
	00		 mov	 eax, DWORD PTR [eax+460]

; 140  : 				return true;

  00041	eb 21		 jmp	 SHORT $LN27@IsWorldEnt
$LN6@IsWorldEnt:

; 127  : 		}
; 128  : 		break;
; 129  : 	case ioPlayEntity::PST_ELEVATOR:
; 130  : 		{
; 131  : 			ioElevator *pEntity = ToElevator( pPlayEntity );

  00043	56		 push	 esi
  00044	e8 00 00 00 00	 call	 ?ToElevator@@YAPAVioElevator@@PAVioGameEntity@@@Z ; ToElevator

; 132  : 			if( pEntity && pEntity->GetCreateIndex() == iCreateIndex )
; 133  : 				return true;

  00049	eb 0e		 jmp	 SHORT $LN26@IsWorldEnt
$LN8@IsWorldEnt:

; 120  : 		}
; 121  : 		break;
; 122  : 	case ioPlayEntity::PST_CONVEYER:
; 123  : 		{
; 124  : 			ioConveyer *pEntity = ToConveyer( pPlayEntity );

  0004b	56		 push	 esi
  0004c	e8 00 00 00 00	 call	 ?ToConveyer@@YAPAVioConveyer@@PAVioGameEntity@@@Z ; ToConveyer

; 125  : 			if( pEntity && pEntity->GetCreateIndex() == iCreateIndex )
; 126  : 				return true;

  00051	eb 06		 jmp	 SHORT $LN26@IsWorldEnt
$LN10@IsWorldEnt:

; 114  : 	{
; 115  : 	case ioPlayEntity::PST_TELEPORT_ZONE:
; 116  : 		{
; 117  : 			ioTeleportZone *pEntity = ToTeleportZone( pPlayEntity );

  00053	56		 push	 esi
  00054	e8 00 00 00 00	 call	 ?ToTeleportZone@@YAPAVioTeleportZone@@PAVioGameEntity@@@Z ; ToTeleportZone
$LN26@IsWorldEnt:
  00059	59		 pop	 ecx

; 118  : 			if( pEntity && pEntity->GetCreateIndex() == iCreateIndex )

  0005a	85 c0		 test	 eax, eax
  0005c	74 0f		 je	 SHORT $LN9@IsWorldEnt
  0005e	8b 80 c8 01 00
	00		 mov	 eax, DWORD PTR [eax+456]
$LN27@IsWorldEnt:
  00064	3b 45 0c	 cmp	 eax, DWORD PTR _iCreateIndex$[ebp]
  00067	75 04		 jne	 SHORT $LN9@IsWorldEnt

; 119  : 				return true;

  00069	b0 01		 mov	 al, 1
  0006b	eb 02		 jmp	 SHORT $LN14@IsWorldEnt
$LN9@IsWorldEnt:

; 148  : 		}
; 149  : 		break;
; 150  : 	}
; 151  : 	return false;

  0006d	32 c0		 xor	 al, al
$LN14@IsWorldEnt:
  0006f	5e		 pop	 esi

; 152  : }

  00070	5d		 pop	 ebp
  00071	c2 08 00	 ret	 8
?IsWorldEntity@ioWorldEntityFactory@@QAE_NPAVioPlayEntity@@H@Z ENDP ; ioWorldEntityFactory::IsWorldEntity
_TEXT	ENDS
PUBLIC	??E?$_List_iterator@V?$_List_val@PAVioPlayEntity@@V?$allocator@PAVioPlayEntity@@@std@@@std@@@std@@QAEAAV01@XZ ; std::_List_iterator<std::_List_val<ioPlayEntity *,std::allocator<ioPlayEntity *> > >::operator++
; Function compile flags: /Ogsp
; File c:\program files (x86)\microsoft visual studio 10.0\vc\include\list
;	COMDAT ??E?$_List_iterator@V?$_List_val@PAVioPlayEntity@@V?$allocator@PAVioPlayEntity@@@std@@@std@@@std@@QAEAAV01@XZ
_TEXT	SEGMENT
??E?$_List_iterator@V?$_List_val@PAVioPlayEntity@@V?$allocator@PAVioPlayEntity@@@std@@@std@@@std@@QAEAAV01@XZ PROC ; std::_List_iterator<std::_List_val<ioPlayEntity *,std::allocator<ioPlayEntity *> > >::operator++, COMDAT
; _this$ = ecx

; 369  : 		{	// preincrement

  00000	8b c1		 mov	 eax, ecx

; 370  : 		++(*(_Mybase *)this);

  00002	8b 08		 mov	 ecx, DWORD PTR [eax]
  00004	8b 09		 mov	 ecx, DWORD PTR [ecx]
  00006	89 08		 mov	 DWORD PTR [eax], ecx

; 371  : 		return (*this);
; 372  : 		}

  00008	c3		 ret	 0
??E?$_List_iterator@V?$_List_val@PAVioPlayEntity@@V?$allocator@PAVioPlayEntity@@@std@@@std@@@std@@QAEAAV01@XZ ENDP ; std::_List_iterator<std::_List_val<ioPlayEntity *,std::allocator<ioPlayEntity *> > >::operator++
_TEXT	ENDS
PUBLIC	??9?$_List_const_iterator@V?$_List_val@PAVioPlayEntity@@V?$allocator@PAVioPlayEntity@@@std@@@std@@@std@@QBE_NABV01@@Z ; std::_List_const_iterator<std::_List_val<ioPlayEntity *,std::allocator<ioPlayEntity *> > >::operator!=
; Function compile flags: /Ogsp
;	COMDAT ??9?$_List_const_iterator@V?$_List_val@PAVioPlayEntity@@V?$allocator@PAVioPlayEntity@@@std@@@std@@@std@@QBE_NABV01@@Z
_TEXT	SEGMENT
__Right$ = 8						; size = 4
??9?$_List_const_iterator@V?$_List_val@PAVioPlayEntity@@V?$allocator@PAVioPlayEntity@@@std@@@std@@@std@@QBE_NABV01@@Z PROC ; std::_List_const_iterator<std::_List_val<ioPlayEntity *,std::allocator<ioPlayEntity *> > >::operator!=, COMDAT
; _this$ = ecx

; 299  : 		{	// test for iterator inequality

  00000	55		 push	 ebp
  00001	8b ec		 mov	 ebp, esp

; 300  : 		return (!(*this == _Right));

  00003	8b 01		 mov	 eax, DWORD PTR [ecx]
  00005	8b 55 08	 mov	 edx, DWORD PTR __Right$[ebp]
  00008	33 c9		 xor	 ecx, ecx
  0000a	3b 02		 cmp	 eax, DWORD PTR [edx]
  0000c	0f 95 c0	 setne	 al

; 301  : 		}

  0000f	5d		 pop	 ebp
  00010	c2 04 00	 ret	 4
??9?$_List_const_iterator@V?$_List_val@PAVioPlayEntity@@V?$allocator@PAVioPlayEntity@@@std@@@std@@@std@@QBE_NABV01@@Z ENDP ; std::_List_const_iterator<std::_List_val<ioPlayEntity *,std::allocator<ioPlayEntity *> > >::operator!=
_TEXT	ENDS
PUBLIC	??1?$_List_val@PAVioPlayEntity@@V?$allocator@PAVioPlayEntity@@@std@@@std@@QAE@XZ ; std::_List_val<ioPlayEntity *,std::allocator<ioPlayEntity *> >::~_List_val<ioPlayEntity *,std::allocator<ioPlayEntity *> >
; Function compile flags: /Ogsp
;	COMDAT ??1?$_List_val@PAVioPlayEntity@@V?$allocator@PAVioPlayEntity@@@std@@@std@@QAE@XZ
_TEXT	SEGMENT
??1?$_List_val@PAVioPlayEntity@@V?$allocator@PAVioPlayEntity@@@std@@@std@@QAE@XZ PROC ; std::_List_val<ioPlayEntity *,std::allocator<ioPlayEntity *> >::~_List_val<ioPlayEntity *,std::allocator<ioPlayEntity *> >, COMDAT
; _this$ = ecx

; 502  : 		this->_Alnod.deallocate(this->_Myhead, 1);

  00000	ff 31		 push	 DWORD PTR [ecx]
  00002	e8 00 00 00 00	 call	 ??3@YAXPAX@Z		; operator delete
  00007	59		 pop	 ecx

; 503  : 		}

  00008	c3		 ret	 0
??1?$_List_val@PAVioPlayEntity@@V?$allocator@PAVioPlayEntity@@@std@@@std@@QAE@XZ ENDP ; std::_List_val<ioPlayEntity *,std::allocator<ioPlayEntity *> >::~_List_val<ioPlayEntity *,std::allocator<ioPlayEntity *> >
_TEXT	ENDS
PUBLIC	??D?$_List_const_iterator@V?$_List_val@PAVioPlayEntity@@V?$allocator@PAVioPlayEntity@@@std@@@std@@@std@@QBEABQAVioPlayEntity@@XZ ; std::_List_const_iterator<std::_List_val<ioPlayEntity *,std::allocator<ioPlayEntity *> > >::operator*
; Function compile flags: /Ogsp
;	COMDAT ??D?$_List_const_iterator@V?$_List_val@PAVioPlayEntity@@V?$allocator@PAVioPlayEntity@@@std@@@std@@@std@@QBEABQAVioPlayEntity@@XZ
_TEXT	SEGMENT
??D?$_List_const_iterator@V?$_List_val@PAVioPlayEntity@@V?$allocator@PAVioPlayEntity@@@std@@@std@@@std@@QBEABQAVioPlayEntity@@XZ PROC ; std::_List_const_iterator<std::_List_val<ioPlayEntity *,std::allocator<ioPlayEntity *> > >::operator*, COMDAT
; _this$ = ecx

; 202  :  #if _ITERATOR_DEBUG_LEVEL == 2
; 203  : 		if (this->_Getcont() == 0
; 204  : 			|| this->_Ptr == 0
; 205  : 			|| this->_Ptr == ((_Mylist *)this->_Getcont())->_Myhead)
; 206  : 			{	// report error
; 207  : 			_DEBUG_ERROR("list iterator not dereferencable");
; 208  : 			_SCL_SECURE_OUT_OF_RANGE;
; 209  : 			}
; 210  : 
; 211  :  #elif _ITERATOR_DEBUG_LEVEL == 1
; 212  : 		_SCL_SECURE_VALIDATE(this->_Getcont() != 0 && this->_Ptr != 0);
; 213  : 		_SCL_SECURE_VALIDATE_RANGE(this->_Ptr !=
; 214  : 			((_Mylist *)this->_Getcont())->_Myhead);
; 215  :  #endif /* _ITERATOR_DEBUG_LEVEL */
; 216  : 
; 217  : 		return (_Mylist::_Myval(this->_Ptr));

  00000	8b 01		 mov	 eax, DWORD PTR [ecx]
  00002	83 c0 08	 add	 eax, 8

; 218  : 		}

  00005	c3		 ret	 0
??D?$_List_const_iterator@V?$_List_val@PAVioPlayEntity@@V?$allocator@PAVioPlayEntity@@@std@@@std@@@std@@QBEABQAVioPlayEntity@@XZ ENDP ; std::_List_const_iterator<std::_List_val<ioPlayEntity *,std::allocator<ioPlayEntity *> > >::operator*
_TEXT	ENDS
PUBLIC	??0?$_List_nod@PAVioPlayEntity@@V?$allocator@PAVioPlayEntity@@@std@@@std@@QAE@V?$allocator@PAVioPlayEntity@@@1@@Z ; std::_List_nod<ioPlayEntity *,std::allocator<ioPlayEntity *> >::_List_nod<ioPlayEntity *,std::allocator<ioPlayEntity *> >
; Function compile flags: /Ogsp
;	COMDAT ??0?$_List_nod@PAVioPlayEntity@@V?$allocator@PAVioPlayEntity@@@std@@@std@@QAE@V?$allocator@PAVioPlayEntity@@@1@@Z
_TEXT	SEGMENT
__Al$ = 8						; size = 1
??0?$_List_nod@PAVioPlayEntity@@V?$allocator@PAVioPlayEntity@@@std@@@std@@QAE@V?$allocator@PAVioPlayEntity@@@1@@Z PROC ; std::_List_nod<ioPlayEntity *,std::allocator<ioPlayEntity *> >::_List_nod<ioPlayEntity *,std::allocator<ioPlayEntity *> >, COMDAT
; _this$ = ecx

; 438  : 		{	// construct allocators from _Al

  00000	8b c1		 mov	 eax, ecx

; 439  : 		}

  00002	c2 04 00	 ret	 4
??0?$_List_nod@PAVioPlayEntity@@V?$allocator@PAVioPlayEntity@@@std@@@std@@QAE@V?$allocator@PAVioPlayEntity@@@1@@Z ENDP ; std::_List_nod<ioPlayEntity *,std::allocator<ioPlayEntity *> >::_List_nod<ioPlayEntity *,std::allocator<ioPlayEntity *> >
_TEXT	ENDS
PUBLIC	?allocate@?$allocator@U_Node@?$_List_nod@PAVioPlayEntity@@V?$allocator@PAVioPlayEntity@@@std@@@std@@@std@@QAEPAU_Node@?$_List_nod@PAVioPlayEntity@@V?$allocator@PAVioPlayEntity@@@std@@@2@I@Z ; std::allocator<std::_List_nod<ioPlayEntity *,std::allocator<ioPlayEntity *> >::_Node>::allocate
; Function compile flags: /Ogsp
; File c:\program files (x86)\microsoft visual studio 10.0\vc\include\xmemory
;	COMDAT ?allocate@?$allocator@U_Node@?$_List_nod@PAVioPlayEntity@@V?$allocator@PAVioPlayEntity@@@std@@@std@@@std@@QAEPAU_Node@?$_List_nod@PAVioPlayEntity@@V?$allocator@PAVioPlayEntity@@@std@@@2@I@Z
_TEXT	SEGMENT
__Count$ = 8						; size = 4
?allocate@?$allocator@U_Node@?$_List_nod@PAVioPlayEntity@@V?$allocator@PAVioPlayEntity@@@std@@@std@@@std@@QAEPAU_Node@?$_List_nod@PAVioPlayEntity@@V?$allocator@PAVioPlayEntity@@@std@@@2@I@Z PROC ; std::allocator<std::_List_nod<ioPlayEntity *,std::allocator<ioPlayEntity *> >::_Node>::allocate, COMDAT
; _this$ = ecx

; 186  : 		{	// allocate array of _Count elements

  00000	55		 push	 ebp
  00001	8b ec		 mov	 ebp, esp

; 187  : 		return (_Allocate(_Count, (pointer)0));

  00003	6a 00		 push	 0
  00005	ff 75 08	 push	 DWORD PTR __Count$[ebp]
  00008	e8 00 00 00 00	 call	 ??$_Allocate@U_Node@?$_List_nod@PAVioPlayEntity@@V?$allocator@PAVioPlayEntity@@@std@@@std@@@std@@YAPAU_Node@?$_List_nod@PAVioPlayEntity@@V?$allocator@PAVioPlayEntity@@@std@@@0@IPAU120@@Z ; std::_Allocate<std::_List_nod<ioPlayEntity *,std::allocator<ioPlayEntity *> >::_Node>
  0000d	59		 pop	 ecx
  0000e	59		 pop	 ecx

; 188  : 		}

  0000f	5d		 pop	 ebp
  00010	c2 04 00	 ret	 4
?allocate@?$allocator@U_Node@?$_List_nod@PAVioPlayEntity@@V?$allocator@PAVioPlayEntity@@@std@@@std@@@std@@QAEPAU_Node@?$_List_nod@PAVioPlayEntity@@V?$allocator@PAVioPlayEntity@@@std@@@2@I@Z ENDP ; std::allocator<std::_List_nod<ioPlayEntity *,std::allocator<ioPlayEntity *> >::_Node>::allocate
_TEXT	ENDS
PUBLIC	?max_size@?$list@PAVioPlayEntity@@V?$allocator@PAVioPlayEntity@@@std@@@std@@QBEIXZ ; std::list<ioPlayEntity *,std::allocator<ioPlayEntity *> >::max_size
; Function compile flags: /Ogsp
; File c:\program files (x86)\microsoft visual studio 10.0\vc\include\list
;	COMDAT ?max_size@?$list@PAVioPlayEntity@@V?$allocator@PAVioPlayEntity@@@std@@@std@@QBEIXZ
_TEXT	SEGMENT
?max_size@?$list@PAVioPlayEntity@@V?$allocator@PAVioPlayEntity@@@std@@@std@@QBEIXZ PROC ; std::list<ioPlayEntity *,std::allocator<ioPlayEntity *> >::max_size, COMDAT
; _this$ = ecx

; 882  : 		return (this->_Alval.max_size());

  00000	b8 ff ff ff 3f	 mov	 eax, 1073741823		; 3fffffffH

; 883  : 		}

  00005	c3		 ret	 0
?max_size@?$list@PAVioPlayEntity@@V?$allocator@PAVioPlayEntity@@@std@@@std@@QBEIXZ ENDP ; std::list<ioPlayEntity *,std::allocator<ioPlayEntity *> >::max_size
_TEXT	ENDS
PUBLIC	??0?$_List_unchecked_const_iterator@V?$_List_val@PAVioPlayEntity@@V?$allocator@PAVioPlayEntity@@@std@@@std@@U_Iterator_base0@2@@std@@QAE@PAU_Node@?$_List_nod@PAVioPlayEntity@@V?$allocator@PAVioPlayEntity@@@std@@@1@PBV?$_List_val@PAVioPlayEntity@@V?$allocator@PAVioPlayEntity@@@std@@@1@@Z ; std::_List_unchecked_const_iterator<std::_List_val<ioPlayEntity *,std::allocator<ioPlayEntity *> >,std::_Iterator_base0>::_List_unchecked_const_iterator<std::_List_val<ioPlayEntity *,std::allocator<ioPlayEntity *> >,std::_Iterator_base0>
; Function compile flags: /Ogsp
;	COMDAT ??0?$_List_unchecked_const_iterator@V?$_List_val@PAVioPlayEntity@@V?$allocator@PAVioPlayEntity@@@std@@@std@@U_Iterator_base0@2@@std@@QAE@PAU_Node@?$_List_nod@PAVioPlayEntity@@V?$allocator@PAVioPlayEntity@@@std@@@1@PBV?$_List_val@PAVioPlayEntity@@V?$allocator@PAVioPlayEntity@@@std@@@1@@Z
_TEXT	SEGMENT
__Pnode$ = 8						; size = 4
__Plist$ = 12						; size = 4
??0?$_List_unchecked_const_iterator@V?$_List_val@PAVioPlayEntity@@V?$allocator@PAVioPlayEntity@@@std@@@std@@U_Iterator_base0@2@@std@@QAE@PAU_Node@?$_List_nod@PAVioPlayEntity@@V?$allocator@PAVioPlayEntity@@@std@@@1@PBV?$_List_val@PAVioPlayEntity@@V?$allocator@PAVioPlayEntity@@@std@@@1@@Z PROC ; std::_List_unchecked_const_iterator<std::_List_val<ioPlayEntity *,std::allocator<ioPlayEntity *> >,std::_Iterator_base0>::_List_unchecked_const_iterator<std::_List_val<ioPlayEntity *,std::allocator<ioPlayEntity *> >,std::_Iterator_base0>, COMDAT
; _this$ = ecx

; 41   : 		{	// construct with node pointer _Pnode

  00000	55		 push	 ebp
  00001	8b ec		 mov	 ebp, esp
  00003	8b c1		 mov	 eax, ecx
  00005	8b 4d 08	 mov	 ecx, DWORD PTR __Pnode$[ebp]
  00008	89 08		 mov	 DWORD PTR [eax], ecx

; 42   : 		this->_Adopt(_Plist);
; 43   : 		}

  0000a	5d		 pop	 ebp
  0000b	c2 08 00	 ret	 8
??0?$_List_unchecked_const_iterator@V?$_List_val@PAVioPlayEntity@@V?$allocator@PAVioPlayEntity@@@std@@@std@@U_Iterator_base0@2@@std@@QAE@PAU_Node@?$_List_nod@PAVioPlayEntity@@V?$allocator@PAVioPlayEntity@@@std@@@1@PBV?$_List_val@PAVioPlayEntity@@V?$allocator@PAVioPlayEntity@@@std@@@1@@Z ENDP ; std::_List_unchecked_const_iterator<std::_List_val<ioPlayEntity *,std::allocator<ioPlayEntity *> >,std::_Iterator_base0>::_List_unchecked_const_iterator<std::_List_val<ioPlayEntity *,std::allocator<ioPlayEntity *> >,std::_Iterator_base0>
_TEXT	ENDS
PUBLIC	__$ArrayPad$
PUBLIC	??$LoadInt_e@$0M@@ioINILoader@@QAEHAAY0M@$$CBDH@Z ; ioINILoader::LoadInt_e<12>
EXTRN	__imp_?LoadInt@ioINILoader@@QAEHPBDH@Z:PROC
EXTRN	___security_cookie:DWORD
; Function compile flags: /Ogsp
; File d:\lost saga for developer\youtube\tutorial\source\src\io3dengine\ioiniloader.h
;	COMDAT ??$LoadInt_e@$0M@@ioINILoader@@QAEHAAY0M@$$CBDH@Z
_TEXT	SEGMENT
__k$ = -20						; size = 12
__$ArrayPad$ = -4					; size = 4
_k$ = 8							; size = 4
_i$ = 12						; size = 4
??$LoadInt_e@$0M@@ioINILoader@@QAEHAAY0M@$$CBDH@Z PROC	; ioINILoader::LoadInt_e<12>, COMDAT
; _this$ = ecx

; 118  : 	{

  00000	55		 push	 ebp
  00001	8b ec		 mov	 ebp, esp
  00003	83 ec 14	 sub	 esp, 20			; 00000014H
  00006	a1 00 00 00 00	 mov	 eax, DWORD PTR ___security_cookie
  0000b	33 c5		 xor	 eax, ebp
  0000d	89 45 fc	 mov	 DWORD PTR __$ArrayPad$[ebp], eax
  00010	8b 45 08	 mov	 eax, DWORD PTR _k$[ebp]

; 119  : 		_ENCSTR(k, _k);

  00013	8a 10		 mov	 dl, BYTE PTR [eax]
  00015	56		 push	 esi
  00016	8b f1		 mov	 esi, ecx
  00018	84 d2		 test	 dl, dl
  0001a	0f 84 32 01 00
	00		 je	 $LN96@LoadInt_e
  00020	80 f2 ed	 xor	 dl, -19			; ffffffedH
  00023	88 55 ec	 mov	 BYTE PTR __k$[ebp], dl
  00026	8a 50 01	 mov	 dl, BYTE PTR [eax+1]
  00029	84 d2		 test	 dl, dl
  0002b	0f 84 1b 01 00
	00		 je	 $LN95@LoadInt_e
  00031	80 f2 ec	 xor	 dl, -20			; ffffffecH
  00034	88 55 ed	 mov	 BYTE PTR __k$[ebp+1], dl
  00037	8a 50 02	 mov	 dl, BYTE PTR [eax+2]
  0003a	84 d2		 test	 dl, dl
  0003c	0f 84 04 01 00
	00		 je	 $LN94@LoadInt_e
  00042	b1 eb		 mov	 cl, -21			; ffffffebH
  00044	32 d1		 xor	 dl, cl
  00046	88 55 ee	 mov	 BYTE PTR __k$[ebp+2], dl
  00049	8a 50 03	 mov	 dl, BYTE PTR [eax+3]
  0004c	84 d2		 test	 dl, dl
  0004e	0f 84 ec 00 00
	00		 je	 $LN93@LoadInt_e
  00054	80 f2 ea	 xor	 dl, -22			; ffffffeaH
  00057	88 55 ef	 mov	 BYTE PTR __k$[ebp+3], dl
  0005a	8a 50 04	 mov	 dl, BYTE PTR [eax+4]
  0005d	84 d2		 test	 dl, dl
  0005f	0f 84 d5 00 00
	00		 je	 $LN92@LoadInt_e
  00065	80 f2 ed	 xor	 dl, -19			; ffffffedH
  00068	88 55 f0	 mov	 BYTE PTR __k$[ebp+4], dl
  0006b	8a 50 05	 mov	 dl, BYTE PTR [eax+5]
  0006e	84 d2		 test	 dl, dl
  00070	0f 84 be 00 00
	00		 je	 $LN91@LoadInt_e
  00076	80 f2 ec	 xor	 dl, -20			; ffffffecH
  00079	88 55 f1	 mov	 BYTE PTR __k$[ebp+5], dl
  0007c	8a 50 06	 mov	 dl, BYTE PTR [eax+6]
  0007f	84 d2		 test	 dl, dl
  00081	0f 84 a8 00 00
	00		 je	 $LN90@LoadInt_e
  00087	32 d1		 xor	 dl, cl
  00089	88 55 f2	 mov	 BYTE PTR __k$[ebp+6], dl
  0008c	8a 50 07	 mov	 dl, BYTE PTR [eax+7]
  0008f	84 d2		 test	 dl, dl
  00091	0f 84 92 00 00
	00		 je	 $LN89@LoadInt_e
  00097	80 f2 ea	 xor	 dl, -22			; ffffffeaH
  0009a	88 55 f3	 mov	 BYTE PTR __k$[ebp+7], dl
  0009d	8a 50 08	 mov	 dl, BYTE PTR [eax+8]
  000a0	84 d2		 test	 dl, dl
  000a2	74 7f		 je	 SHORT $LN88@LoadInt_e
  000a4	80 f2 ed	 xor	 dl, -19			; ffffffedH
  000a7	88 55 f4	 mov	 BYTE PTR __k$[ebp+8], dl
  000aa	8a 50 09	 mov	 dl, BYTE PTR [eax+9]
  000ad	84 d2		 test	 dl, dl
  000af	74 6c		 je	 SHORT $LN87@LoadInt_e
  000b1	80 f2 ec	 xor	 dl, -20			; ffffffecH
  000b4	88 55 f5	 mov	 BYTE PTR __k$[ebp+9], dl
  000b7	8a 50 0a	 mov	 dl, BYTE PTR [eax+10]
  000ba	84 d2		 test	 dl, dl
  000bc	74 5a		 je	 SHORT $LN86@LoadInt_e
  000be	32 d1		 xor	 dl, cl
  000c0	80 78 0b 00	 cmp	 BYTE PTR [eax+11], 0
  000c4	88 55 f6	 mov	 BYTE PTR __k$[ebp+10], dl
  000c7	0f 84 89 00 00
	00		 je	 $LN1@LoadInt_e
  000cd	8a 50 0c	 mov	 dl, BYTE PTR [eax+12]
  000d0	84 d2		 test	 dl, dl
  000d2	74 3e		 je	 SHORT $LN84@LoadInt_e
  000d4	80 f2 ed	 xor	 dl, -19			; ffffffedH
  000d7	88 55 f8	 mov	 BYTE PTR __k$[ebp+12], dl
  000da	8a 50 0d	 mov	 dl, BYTE PTR [eax+13]
  000dd	84 d2		 test	 dl, dl
  000df	74 2b		 je	 SHORT $LN83@LoadInt_e
  000e1	80 f2 ec	 xor	 dl, -20			; ffffffecH
  000e4	88 55 f9	 mov	 BYTE PTR __k$[ebp+13], dl
  000e7	8a 50 0e	 mov	 dl, BYTE PTR [eax+14]
  000ea	84 d2		 test	 dl, dl
  000ec	74 19		 je	 SHORT $LN82@LoadInt_e
  000ee	8a 40 0f	 mov	 al, BYTE PTR [eax+15]
  000f1	32 d1		 xor	 dl, cl
  000f3	88 55 fa	 mov	 BYTE PTR __k$[ebp+14], dl
  000f6	84 c0		 test	 al, al
  000f8	74 07		 je	 SHORT $LN81@LoadInt_e
  000fa	34 ea		 xor	 al, -22			; ffffffeaH
  000fc	88 45 fb	 mov	 BYTE PTR __k$[ebp+15], al
  000ff	eb 55		 jmp	 SHORT $LN1@LoadInt_e
$LN81@LoadInt_e:
  00101	c6 45 fb ea	 mov	 BYTE PTR __k$[ebp+15], -22 ; ffffffeaH
  00105	eb 4f		 jmp	 SHORT $LN1@LoadInt_e
$LN82@LoadInt_e:
  00107	88 4d fa	 mov	 BYTE PTR __k$[ebp+14], cl
  0010a	eb 4a		 jmp	 SHORT $LN1@LoadInt_e
$LN83@LoadInt_e:
  0010c	c6 45 f9 ec	 mov	 BYTE PTR __k$[ebp+13], -20 ; ffffffecH
  00110	eb 44		 jmp	 SHORT $LN1@LoadInt_e
$LN84@LoadInt_e:
  00112	c6 45 f8 ed	 mov	 BYTE PTR __k$[ebp+12], -19 ; ffffffedH
  00116	eb 3e		 jmp	 SHORT $LN1@LoadInt_e
$LN86@LoadInt_e:
  00118	88 4d f6	 mov	 BYTE PTR __k$[ebp+10], cl
  0011b	eb 39		 jmp	 SHORT $LN1@LoadInt_e
$LN87@LoadInt_e:
  0011d	c6 45 f5 ec	 mov	 BYTE PTR __k$[ebp+9], -20 ; ffffffecH
  00121	eb 33		 jmp	 SHORT $LN1@LoadInt_e
$LN88@LoadInt_e:
  00123	c6 45 f4 ed	 mov	 BYTE PTR __k$[ebp+8], -19 ; ffffffedH
  00127	eb 2d		 jmp	 SHORT $LN1@LoadInt_e
$LN89@LoadInt_e:
  00129	c6 45 f3 ea	 mov	 BYTE PTR __k$[ebp+7], -22 ; ffffffeaH
  0012d	eb 27		 jmp	 SHORT $LN1@LoadInt_e
$LN90@LoadInt_e:
  0012f	88 4d f2	 mov	 BYTE PTR __k$[ebp+6], cl
  00132	eb 22		 jmp	 SHORT $LN1@LoadInt_e
$LN91@LoadInt_e:
  00134	c6 45 f1 ec	 mov	 BYTE PTR __k$[ebp+5], -20 ; ffffffecH
  00138	eb 1c		 jmp	 SHORT $LN1@LoadInt_e
$LN92@LoadInt_e:
  0013a	c6 45 f0 ed	 mov	 BYTE PTR __k$[ebp+4], -19 ; ffffffedH
  0013e	eb 16		 jmp	 SHORT $LN1@LoadInt_e
$LN93@LoadInt_e:
  00140	c6 45 ef ea	 mov	 BYTE PTR __k$[ebp+3], -22 ; ffffffeaH
  00144	eb 10		 jmp	 SHORT $LN1@LoadInt_e
$LN94@LoadInt_e:
  00146	c6 45 ee eb	 mov	 BYTE PTR __k$[ebp+2], -21 ; ffffffebH
  0014a	eb 0a		 jmp	 SHORT $LN1@LoadInt_e
$LN95@LoadInt_e:
  0014c	c6 45 ed ec	 mov	 BYTE PTR __k$[ebp+1], -20 ; ffffffecH
  00150	eb 04		 jmp	 SHORT $LN1@LoadInt_e
$LN96@LoadInt_e:
  00152	c6 45 ec ed	 mov	 BYTE PTR __k$[ebp], -19	; ffffffedH
$LN1@LoadInt_e:
  00156	6a 02		 push	 2
  00158	8d 45 ec	 lea	 eax, DWORD PTR __k$[ebp]
  0015b	c6 45 f7 00	 mov	 BYTE PTR __k$[ebp+11], 0
  0015f	5a		 pop	 edx
$LL104@LoadInt_e:
  00160	81 30 ed ec eb
	ea		 xor	 DWORD PTR [eax], -353637139 ; eaebecedH
  00166	83 c0 04	 add	 eax, 4
  00169	4a		 dec	 edx
  0016a	75 f4		 jne	 SHORT $LL104@LoadInt_e
  0016c	6a 08		 push	 8
  0016e	58		 pop	 eax
$LL101@LoadInt_e:
  0016f	8b c8		 mov	 ecx, eax
  00171	81 e1 03 00 00
	80		 and	 ecx, -2147483645	; 80000003H
  00177	79 05		 jns	 SHORT $LN111@LoadInt_e
  00179	49		 dec	 ecx
  0017a	83 c9 fc	 or	 ecx, -4			; fffffffcH
  0017d	41		 inc	 ecx
$LN111@LoadInt_e:
  0017e	b2 ed		 mov	 dl, -19			; ffffffedH
  00180	2a d1		 sub	 dl, cl
  00182	30 54 05 ec	 xor	 BYTE PTR __k$[ebp+eax], dl
  00186	40		 inc	 eax
  00187	83 f8 0b	 cmp	 eax, 11			; 0000000bH
  0018a	7c e3		 jl	 SHORT $LL101@LoadInt_e

; 120  : 		return LoadInt(_k, i);

  0018c	ff 75 0c	 push	 DWORD PTR _i$[ebp]
  0018f	8d 45 ec	 lea	 eax, DWORD PTR __k$[ebp]
  00192	50		 push	 eax
  00193	8b ce		 mov	 ecx, esi
  00195	ff 15 00 00 00
	00		 call	 DWORD PTR __imp_?LoadInt@ioINILoader@@QAEHPBDH@Z

; 121  : 	}

  0019b	8b 4d fc	 mov	 ecx, DWORD PTR __$ArrayPad$[ebp]
  0019e	33 cd		 xor	 ecx, ebp
  001a0	5e		 pop	 esi
  001a1	e8 00 00 00 00	 call	 @__security_check_cookie@4
  001a6	c9		 leave
  001a7	c2 08 00	 ret	 8
??$LoadInt_e@$0M@@ioINILoader@@QAEHAAY0M@$$CBDH@Z ENDP	; ioINILoader::LoadInt_e<12>
_TEXT	ENDS
PUBLIC	__$ArrayPad$
PUBLIC	??$LoadString_e@$0L@@ioINILoader@@QAEXAAY0L@$$CBDAAY00$$CBDPADH@Z ; ioINILoader::LoadString_e<11>
EXTRN	__imp_?LoadStringA@ioINILoader@@QAEXPBD0PADH@Z:PROC
; Function compile flags: /Ogsp
;	COMDAT ??$LoadString_e@$0L@@ioINILoader@@QAEXAAY0L@$$CBDAAY00$$CBDPADH@Z
_TEXT	SEGMENT
__k$ = -20						; size = 11
__$ArrayPad$ = -4					; size = 4
_k$ = 8							; size = 4
_d$ = 12						; size = 4
_b$ = 16						; size = 4
_i$ = 20						; size = 4
??$LoadString_e@$0L@@ioINILoader@@QAEXAAY0L@$$CBDAAY00$$CBDPADH@Z PROC ; ioINILoader::LoadString_e<11>, COMDAT
; _this$ = ecx

; 161  : 	{

  00000	55		 push	 ebp
  00001	8b ec		 mov	 ebp, esp
  00003	83 ec 14	 sub	 esp, 20			; 00000014H
  00006	a1 00 00 00 00	 mov	 eax, DWORD PTR ___security_cookie
  0000b	33 c5		 xor	 eax, ebp
  0000d	89 45 fc	 mov	 DWORD PTR __$ArrayPad$[ebp], eax
  00010	8b 45 08	 mov	 eax, DWORD PTR _k$[ebp]

; 162  : 		_ENCSTR(k, _k);

  00013	8a 10		 mov	 dl, BYTE PTR [eax]
  00015	53		 push	 ebx
  00016	56		 push	 esi
  00017	8b 75 0c	 mov	 esi, DWORD PTR _d$[ebp]
  0001a	57		 push	 edi
  0001b	8b 7d 10	 mov	 edi, DWORD PTR _b$[ebp]
  0001e	84 d2		 test	 dl, dl
  00020	0f 84 1b 01 00
	00		 je	 $LN96@LoadString
  00026	80 f2 ed	 xor	 dl, -19			; ffffffedH
  00029	88 55 ec	 mov	 BYTE PTR __k$[ebp], dl
  0002c	8a 50 01	 mov	 dl, BYTE PTR [eax+1]
  0002f	84 d2		 test	 dl, dl
  00031	0f 84 04 01 00
	00		 je	 $LN95@LoadString
  00037	b3 ec		 mov	 bl, -20			; ffffffecH
  00039	32 d3		 xor	 dl, bl
  0003b	88 55 ed	 mov	 BYTE PTR __k$[ebp+1], dl
  0003e	8a 50 02	 mov	 dl, BYTE PTR [eax+2]
  00041	84 d2		 test	 dl, dl
  00043	0f 84 ec 00 00
	00		 je	 $LN94@LoadString
  00049	80 f2 eb	 xor	 dl, -21			; ffffffebH
  0004c	88 55 ee	 mov	 BYTE PTR __k$[ebp+2], dl
  0004f	8a 50 03	 mov	 dl, BYTE PTR [eax+3]
  00052	84 d2		 test	 dl, dl
  00054	0f 84 d5 00 00
	00		 je	 $LN93@LoadString
  0005a	80 f2 ea	 xor	 dl, -22			; ffffffeaH
  0005d	88 55 ef	 mov	 BYTE PTR __k$[ebp+3], dl
  00060	8a 50 04	 mov	 dl, BYTE PTR [eax+4]
  00063	84 d2		 test	 dl, dl
  00065	0f 84 be 00 00
	00		 je	 $LN92@LoadString
  0006b	80 f2 ed	 xor	 dl, -19			; ffffffedH
  0006e	88 55 f0	 mov	 BYTE PTR __k$[ebp+4], dl
  00071	8a 50 05	 mov	 dl, BYTE PTR [eax+5]
  00074	84 d2		 test	 dl, dl
  00076	0f 84 a8 00 00
	00		 je	 $LN91@LoadString
  0007c	32 d3		 xor	 dl, bl
  0007e	88 55 f1	 mov	 BYTE PTR __k$[ebp+5], dl
  00081	8a 50 06	 mov	 dl, BYTE PTR [eax+6]
  00084	84 d2		 test	 dl, dl
  00086	0f 84 92 00 00
	00		 je	 $LN90@LoadString
  0008c	80 f2 eb	 xor	 dl, -21			; ffffffebH
  0008f	88 55 f2	 mov	 BYTE PTR __k$[ebp+6], dl
  00092	8a 50 07	 mov	 dl, BYTE PTR [eax+7]
  00095	84 d2		 test	 dl, dl
  00097	74 7f		 je	 SHORT $LN89@LoadString
  00099	80 f2 ea	 xor	 dl, -22			; ffffffeaH
  0009c	88 55 f3	 mov	 BYTE PTR __k$[ebp+7], dl
  0009f	8a 50 08	 mov	 dl, BYTE PTR [eax+8]
  000a2	84 d2		 test	 dl, dl
  000a4	74 6c		 je	 SHORT $LN88@LoadString
  000a6	80 f2 ed	 xor	 dl, -19			; ffffffedH
  000a9	88 55 f4	 mov	 BYTE PTR __k$[ebp+8], dl
  000ac	8a 50 09	 mov	 dl, BYTE PTR [eax+9]
  000af	84 d2		 test	 dl, dl
  000b1	74 5a		 je	 SHORT $LN87@LoadString
  000b3	32 d3		 xor	 dl, bl
  000b5	80 78 0a 00	 cmp	 BYTE PTR [eax+10], 0
  000b9	88 55 f5	 mov	 BYTE PTR __k$[ebp+9], dl
  000bc	0f 84 83 00 00
	00		 je	 $LN1@LoadString
  000c2	8a 50 0b	 mov	 dl, BYTE PTR [eax+11]
  000c5	84 d2		 test	 dl, dl
  000c7	74 3e		 je	 SHORT $LN85@LoadString
  000c9	80 f2 ea	 xor	 dl, -22			; ffffffeaH
  000cc	88 55 f7	 mov	 BYTE PTR __k$[ebp+11], dl
  000cf	8a 50 0c	 mov	 dl, BYTE PTR [eax+12]
  000d2	84 d2		 test	 dl, dl
  000d4	74 2b		 je	 SHORT $LN84@LoadString
  000d6	80 f2 ed	 xor	 dl, -19			; ffffffedH
  000d9	88 55 f8	 mov	 BYTE PTR __k$[ebp+12], dl
  000dc	8a 50 0d	 mov	 dl, BYTE PTR [eax+13]
  000df	84 d2		 test	 dl, dl
  000e1	74 19		 je	 SHORT $LN83@LoadString
  000e3	8a 40 0e	 mov	 al, BYTE PTR [eax+14]
  000e6	32 d3		 xor	 dl, bl
  000e8	88 55 f9	 mov	 BYTE PTR __k$[ebp+13], dl
  000eb	84 c0		 test	 al, al
  000ed	74 07		 je	 SHORT $LN82@LoadString
  000ef	34 eb		 xor	 al, -21			; ffffffebH
  000f1	88 45 fa	 mov	 BYTE PTR __k$[ebp+14], al
  000f4	eb 4f		 jmp	 SHORT $LN1@LoadString
$LN82@LoadString:
  000f6	c6 45 fa eb	 mov	 BYTE PTR __k$[ebp+14], -21 ; ffffffebH
  000fa	eb 49		 jmp	 SHORT $LN1@LoadString
$LN83@LoadString:
  000fc	88 5d f9	 mov	 BYTE PTR __k$[ebp+13], bl
  000ff	eb 44		 jmp	 SHORT $LN1@LoadString
$LN84@LoadString:
  00101	c6 45 f8 ed	 mov	 BYTE PTR __k$[ebp+12], -19 ; ffffffedH
  00105	eb 3e		 jmp	 SHORT $LN1@LoadString
$LN85@LoadString:
  00107	c6 45 f7 ea	 mov	 BYTE PTR __k$[ebp+11], -22 ; ffffffeaH
  0010b	eb 38		 jmp	 SHORT $LN1@LoadString
$LN87@LoadString:
  0010d	88 5d f5	 mov	 BYTE PTR __k$[ebp+9], bl
  00110	eb 33		 jmp	 SHORT $LN1@LoadString
$LN88@LoadString:
  00112	c6 45 f4 ed	 mov	 BYTE PTR __k$[ebp+8], -19 ; ffffffedH
  00116	eb 2d		 jmp	 SHORT $LN1@LoadString
$LN89@LoadString:
  00118	c6 45 f3 ea	 mov	 BYTE PTR __k$[ebp+7], -22 ; ffffffeaH
  0011c	eb 27		 jmp	 SHORT $LN1@LoadString
$LN90@LoadString:
  0011e	c6 45 f2 eb	 mov	 BYTE PTR __k$[ebp+6], -21 ; ffffffebH
  00122	eb 21		 jmp	 SHORT $LN1@LoadString
$LN91@LoadString:
  00124	88 5d f1	 mov	 BYTE PTR __k$[ebp+5], bl
  00127	eb 1c		 jmp	 SHORT $LN1@LoadString
$LN92@LoadString:
  00129	c6 45 f0 ed	 mov	 BYTE PTR __k$[ebp+4], -19 ; ffffffedH
  0012d	eb 16		 jmp	 SHORT $LN1@LoadString
$LN93@LoadString:
  0012f	c6 45 ef ea	 mov	 BYTE PTR __k$[ebp+3], -22 ; ffffffeaH
  00133	eb 10		 jmp	 SHORT $LN1@LoadString
$LN94@LoadString:
  00135	c6 45 ee eb	 mov	 BYTE PTR __k$[ebp+2], -21 ; ffffffebH
  00139	eb 0a		 jmp	 SHORT $LN1@LoadString
$LN95@LoadString:
  0013b	c6 45 ed ec	 mov	 BYTE PTR __k$[ebp+1], -20 ; ffffffecH
  0013f	eb 04		 jmp	 SHORT $LN1@LoadString
$LN96@LoadString:
  00141	c6 45 ec ed	 mov	 BYTE PTR __k$[ebp], -19	; ffffffedH
$LN1@LoadString:
  00145	6a 02		 push	 2
  00147	8d 45 ec	 lea	 eax, DWORD PTR __k$[ebp]
  0014a	c6 45 f6 00	 mov	 BYTE PTR __k$[ebp+10], 0
  0014e	5a		 pop	 edx
$LL104@LoadString:
  0014f	81 30 ed ec eb
	ea		 xor	 DWORD PTR [eax], -353637139 ; eaebecedH
  00155	83 c0 04	 add	 eax, 4
  00158	4a		 dec	 edx
  00159	75 f4		 jne	 SHORT $LL104@LoadString
  0015b	6a 08		 push	 8
  0015d	58		 pop	 eax
$LL101@LoadString:
  0015e	8b d0		 mov	 edx, eax
  00160	81 e2 03 00 00
	80		 and	 edx, -2147483645	; 80000003H
  00166	79 05		 jns	 SHORT $LN111@LoadString
  00168	4a		 dec	 edx
  00169	83 ca fc	 or	 edx, -4			; fffffffcH
  0016c	42		 inc	 edx
$LN111@LoadString:
  0016d	b3 ed		 mov	 bl, -19			; ffffffedH
  0016f	2a da		 sub	 bl, dl
  00171	30 5c 05 ec	 xor	 BYTE PTR __k$[ebp+eax], bl
  00175	40		 inc	 eax
  00176	83 f8 0a	 cmp	 eax, 10			; 0000000aH
  00179	7c e3		 jl	 SHORT $LL101@LoadString

; 163  : 		LoadString(_k, d, b, i);

  0017b	ff 75 14	 push	 DWORD PTR _i$[ebp]
  0017e	8d 45 ec	 lea	 eax, DWORD PTR __k$[ebp]
  00181	57		 push	 edi
  00182	56		 push	 esi
  00183	50		 push	 eax
  00184	ff 15 00 00 00
	00		 call	 DWORD PTR __imp_?LoadStringA@ioINILoader@@QAEXPBD0PADH@Z

; 164  : 	}

  0018a	8b 4d fc	 mov	 ecx, DWORD PTR __$ArrayPad$[ebp]
  0018d	5f		 pop	 edi
  0018e	5e		 pop	 esi
  0018f	33 cd		 xor	 ecx, ebp
  00191	5b		 pop	 ebx
  00192	e8 00 00 00 00	 call	 @__security_check_cookie@4
  00197	c9		 leave
  00198	c2 10 00	 ret	 16			; 00000010H
??$LoadString_e@$0L@@ioINILoader@@QAEXAAY0L@$$CBDAAY00$$CBDPADH@Z ENDP ; ioINILoader::LoadString_e<11>
_TEXT	ENDS
PUBLIC	?construct@?$allocator@PAVioPlayEntity@@@std@@QAEXPAPAVioPlayEntity@@ABQAV3@@Z ; std::allocator<ioPlayEntity *>::construct
; Function compile flags: /Ogsp
; File c:\program files (x86)\microsoft visual studio 10.0\vc\include\xmemory
;	COMDAT ?construct@?$allocator@PAVioPlayEntity@@@std@@QAEXPAPAVioPlayEntity@@ABQAV3@@Z
_TEXT	SEGMENT
__Ptr$ = 8						; size = 4
__Val$ = 12						; size = 4
?construct@?$allocator@PAVioPlayEntity@@@std@@QAEXPAPAVioPlayEntity@@ABQAV3@@Z PROC ; std::allocator<ioPlayEntity *>::construct, COMDAT
; _this$ = ecx

; 196  : 		{	// construct object at _Ptr with value _Val

  00000	55		 push	 ebp
  00001	8b ec		 mov	 ebp, esp

; 197  : 		_Construct(_Ptr, _Val);

  00003	8b 45 08	 mov	 eax, DWORD PTR __Ptr$[ebp]
  00006	85 c0		 test	 eax, eax
  00008	74 07		 je	 SHORT $LN5@construct
  0000a	8b 4d 0c	 mov	 ecx, DWORD PTR __Val$[ebp]
  0000d	8b 09		 mov	 ecx, DWORD PTR [ecx]
  0000f	89 08		 mov	 DWORD PTR [eax], ecx
$LN5@construct:

; 198  : 		}

  00011	5d		 pop	 ebp
  00012	c2 08 00	 ret	 8
?construct@?$allocator@PAVioPlayEntity@@@std@@QAEXPAPAVioPlayEntity@@ABQAV3@@Z ENDP ; std::allocator<ioPlayEntity *>::construct
_TEXT	ENDS
PUBLIC	?destroy@?$allocator@U_Node@?$_List_nod@PAVioPlayEntity@@V?$allocator@PAVioPlayEntity@@@std@@@std@@@std@@QAEXPAU_Node@?$_List_nod@PAVioPlayEntity@@V?$allocator@PAVioPlayEntity@@@std@@@2@@Z ; std::allocator<std::_List_nod<ioPlayEntity *,std::allocator<ioPlayEntity *> >::_Node>::destroy
; Function compile flags: /Ogsp
;	COMDAT ?destroy@?$allocator@U_Node@?$_List_nod@PAVioPlayEntity@@V?$allocator@PAVioPlayEntity@@@std@@@std@@@std@@QAEXPAU_Node@?$_List_nod@PAVioPlayEntity@@V?$allocator@PAVioPlayEntity@@@std@@@2@@Z
_TEXT	SEGMENT
__Ptr$ = 8						; size = 4
?destroy@?$allocator@U_Node@?$_List_nod@PAVioPlayEntity@@V?$allocator@PAVioPlayEntity@@@std@@@std@@@std@@QAEXPAU_Node@?$_List_nod@PAVioPlayEntity@@V?$allocator@PAVioPlayEntity@@@std@@@2@@Z PROC ; std::allocator<std::_List_nod<ioPlayEntity *,std::allocator<ioPlayEntity *> >::_Node>::destroy, COMDAT
; _this$ = ecx

; 213  : 		_Destroy(_Ptr);
; 214  : 		}

  00000	c2 04 00	 ret	 4
?destroy@?$allocator@U_Node@?$_List_nod@PAVioPlayEntity@@V?$allocator@PAVioPlayEntity@@@std@@@std@@@std@@QAEXPAU_Node@?$_List_nod@PAVioPlayEntity@@V?$allocator@PAVioPlayEntity@@@std@@@2@@Z ENDP ; std::allocator<std::_List_nod<ioPlayEntity *,std::allocator<ioPlayEntity *> >::_Node>::destroy
_TEXT	ENDS
PUBLIC	??D?$_List_iterator@V?$_List_val@PAVioPlayEntity@@V?$allocator@PAVioPlayEntity@@@std@@@std@@@std@@QBEAAPAVioPlayEntity@@XZ ; std::_List_iterator<std::_List_val<ioPlayEntity *,std::allocator<ioPlayEntity *> > >::operator*
; Function compile flags: /Ogsp
; File c:\program files (x86)\microsoft visual studio 10.0\vc\include\list
;	COMDAT ??D?$_List_iterator@V?$_List_val@PAVioPlayEntity@@V?$allocator@PAVioPlayEntity@@@std@@@std@@@std@@QBEAAPAVioPlayEntity@@XZ
_TEXT	SEGMENT
??D?$_List_iterator@V?$_List_val@PAVioPlayEntity@@V?$allocator@PAVioPlayEntity@@@std@@@std@@@std@@QBEAAPAVioPlayEntity@@XZ PROC ; std::_List_iterator<std::_List_val<ioPlayEntity *,std::allocator<ioPlayEntity *> > >::operator*, COMDAT
; _this$ = ecx

; 360  : 		return ((reference)**(_Mybase *)this);

  00000	8b 01		 mov	 eax, DWORD PTR [ecx]
  00002	83 c0 08	 add	 eax, 8

; 361  : 		}

  00005	c3		 ret	 0
??D?$_List_iterator@V?$_List_val@PAVioPlayEntity@@V?$allocator@PAVioPlayEntity@@@std@@@std@@@std@@QBEAAPAVioPlayEntity@@XZ ENDP ; std::_List_iterator<std::_List_val<ioPlayEntity *,std::allocator<ioPlayEntity *> > >::operator*
_TEXT	ENDS
PUBLIC	??0?$_List_val@PAVioPlayEntity@@V?$allocator@PAVioPlayEntity@@@std@@@std@@QAE@V?$allocator@PAVioPlayEntity@@@1@@Z ; std::_List_val<ioPlayEntity *,std::allocator<ioPlayEntity *> >::_List_val<ioPlayEntity *,std::allocator<ioPlayEntity *> >
; Function compile flags: /Ogsp
;	COMDAT ??0?$_List_val@PAVioPlayEntity@@V?$allocator@PAVioPlayEntity@@@std@@@std@@QAE@V?$allocator@PAVioPlayEntity@@@1@@Z
_TEXT	SEGMENT
$T514197 = -16						; size = 12
$T514181 = -4						; size = 4
__Al$ = 8						; size = 1
??0?$_List_val@PAVioPlayEntity@@V?$allocator@PAVioPlayEntity@@@std@@@std@@QAE@V?$allocator@PAVioPlayEntity@@@1@@Z PROC ; std::_List_val<ioPlayEntity *,std::allocator<ioPlayEntity *> >::_List_val<ioPlayEntity *,std::allocator<ioPlayEntity *> >, COMDAT
; _this$ = ecx

; 493  : 		{	// construct base, and allocator from _Al

  00000	55		 push	 ebp
  00001	8b ec		 mov	 ebp, esp
  00003	83 ec 10	 sub	 esp, 16			; 00000010H
  00006	56		 push	 esi
  00007	8b f1		 mov	 esi, ecx

; 494  : 		this->_Mysize = 0;

  00009	83 66 04 00	 and	 DWORD PTR [esi+4], 0

; 495  : 		this->_Myhead = this->_Alnod.allocate(1);

  0000d	6a 0c		 push	 12			; 0000000cH
  0000f	e8 00 00 00 00	 call	 ??2@YAPAXI@Z		; operator new
  00014	59		 pop	 ecx
  00015	85 c0		 test	 eax, eax
  00017	74 10		 je	 SHORT $LN13@List_val
  00019	89 06		 mov	 DWORD PTR [esi], eax

; 496  : 		this->_Nextnode(this->_Myhead) = this->_Myhead;

  0001b	89 00		 mov	 DWORD PTR [eax], eax

; 497  : 		this->_Prevnode(this->_Myhead) = this->_Myhead;

  0001d	8b 06		 mov	 eax, DWORD PTR [esi]
  0001f	89 40 04	 mov	 DWORD PTR [eax+4], eax

; 498  : 		}

  00022	8b c6		 mov	 eax, esi
  00024	5e		 pop	 esi
  00025	c9		 leave
  00026	c2 04 00	 ret	 4

; 495  : 		this->_Myhead = this->_Alnod.allocate(1);

$LN13@List_val:
  00029	83 65 fc 00	 and	 DWORD PTR $T514181[ebp], 0
  0002d	8d 45 fc	 lea	 eax, DWORD PTR $T514181[ebp]
  00030	50		 push	 eax
  00031	8d 4d f0	 lea	 ecx, DWORD PTR $T514197[ebp]
  00034	ff 15 00 00 00
	00		 call	 DWORD PTR __imp_??0exception@std@@QAE@ABQBD@Z
  0003a	68 00 00 00 00	 push	 OFFSET __TI2?AVbad_alloc@std@@
  0003f	8d 45 f0	 lea	 eax, DWORD PTR $T514197[ebp]
  00042	50		 push	 eax
  00043	c7 45 f0 00 00
	00 00		 mov	 DWORD PTR $T514197[ebp], OFFSET ??_7bad_alloc@std@@6B@
  0004a	e8 00 00 00 00	 call	 __CxxThrowException@8
$LN29@List_val:
$LN28@List_val:
  0004f	cc		 int	 3
??0?$_List_val@PAVioPlayEntity@@V?$allocator@PAVioPlayEntity@@@std@@@std@@QAE@V?$allocator@PAVioPlayEntity@@@1@@Z ENDP ; std::_List_val<ioPlayEntity *,std::allocator<ioPlayEntity *> >::_List_val<ioPlayEntity *,std::allocator<ioPlayEntity *> >
_TEXT	ENDS
PUBLIC	??_C@_0BB@MOGOBHAF@list?$DMT?$DO?5too?5long?$AA@ ; `string'
PUBLIC	?_Incsize@?$list@PAVioPlayEntity@@V?$allocator@PAVioPlayEntity@@@std@@@std@@QAEXI@Z ; std::list<ioPlayEntity *,std::allocator<ioPlayEntity *> >::_Incsize
EXTRN	__imp_?_Xlength_error@std@@YAXPBD@Z:PROC
;	COMDAT ??_C@_0BB@MOGOBHAF@list?$DMT?$DO?5too?5long?$AA@
; File c:\program files (x86)\microsoft visual studio 10.0\vc\include\xmemory
CONST	SEGMENT
??_C@_0BB@MOGOBHAF@list?$DMT?$DO?5too?5long?$AA@ DB 'list<T> too long', 00H ; `string'
; Function compile flags: /Ogsp
; File c:\program files (x86)\microsoft visual studio 10.0\vc\include\list
CONST	ENDS
;	COMDAT ?_Incsize@?$list@PAVioPlayEntity@@V?$allocator@PAVioPlayEntity@@@std@@@std@@QAEXI@Z
_TEXT	SEGMENT
__Count$ = 8						; size = 4
?_Incsize@?$list@PAVioPlayEntity@@V?$allocator@PAVioPlayEntity@@@std@@@std@@QAEXI@Z PROC ; std::list<ioPlayEntity *,std::allocator<ioPlayEntity *> >::_Incsize, COMDAT
; _this$ = ecx

; 1519 : 		{	// alter element count, with checking

  00000	55		 push	 ebp
  00001	8b ec		 mov	 ebp, esp

; 1520 : 		if (max_size() - this->_Mysize - 1 < _Count)

  00003	8b 41 04	 mov	 eax, DWORD PTR [ecx+4]
  00006	8b 55 08	 mov	 edx, DWORD PTR __Count$[ebp]
  00009	56		 push	 esi
  0000a	be fe ff ff 3f	 mov	 esi, 1073741822		; 3ffffffeH
  0000f	2b f0		 sub	 esi, eax
  00011	3b f2		 cmp	 esi, edx
  00013	5e		 pop	 esi
  00014	73 0b		 jae	 SHORT $LN1@Incsize

; 1521 : 			_Xlength_error("list<T> too long");

  00016	68 00 00 00 00	 push	 OFFSET ??_C@_0BB@MOGOBHAF@list?$DMT?$DO?5too?5long?$AA@
  0001b	ff 15 00 00 00
	00		 call	 DWORD PTR __imp_?_Xlength_error@std@@YAXPBD@Z
$LN11@Incsize:
$LN1@Incsize:

; 1522 : 		this->_Mysize += _Count;

  00021	03 c2		 add	 eax, edx
  00023	89 41 04	 mov	 DWORD PTR [ecx+4], eax

; 1523 : 		}

  00026	5d		 pop	 ebp
  00027	c2 04 00	 ret	 4
$LN10@Incsize:
?_Incsize@?$list@PAVioPlayEntity@@V?$allocator@PAVioPlayEntity@@@std@@@std@@QAEXI@Z ENDP ; std::list<ioPlayEntity *,std::allocator<ioPlayEntity *> >::_Incsize
_TEXT	ENDS
PUBLIC	??0?$_List_const_iterator@V?$_List_val@PAVioPlayEntity@@V?$allocator@PAVioPlayEntity@@@std@@@std@@@std@@QAE@PAU_Node@?$_List_nod@PAVioPlayEntity@@V?$allocator@PAVioPlayEntity@@@std@@@1@PBV?$_List_val@PAVioPlayEntity@@V?$allocator@PAVioPlayEntity@@@std@@@1@@Z ; std::_List_const_iterator<std::_List_val<ioPlayEntity *,std::allocator<ioPlayEntity *> > >::_List_const_iterator<std::_List_val<ioPlayEntity *,std::allocator<ioPlayEntity *> > >
; Function compile flags: /Ogsp
;	COMDAT ??0?$_List_const_iterator@V?$_List_val@PAVioPlayEntity@@V?$allocator@PAVioPlayEntity@@@std@@@std@@@std@@QAE@PAU_Node@?$_List_nod@PAVioPlayEntity@@V?$allocator@PAVioPlayEntity@@@std@@@1@PBV?$_List_val@PAVioPlayEntity@@V?$allocator@PAVioPlayEntity@@@std@@@1@@Z
_TEXT	SEGMENT
__Pnode$ = 8						; size = 4
__Plist$ = 12						; size = 4
??0?$_List_const_iterator@V?$_List_val@PAVioPlayEntity@@V?$allocator@PAVioPlayEntity@@@std@@@std@@@std@@QAE@PAU_Node@?$_List_nod@PAVioPlayEntity@@V?$allocator@PAVioPlayEntity@@@std@@@1@PBV?$_List_val@PAVioPlayEntity@@V?$allocator@PAVioPlayEntity@@@std@@@1@@Z PROC ; std::_List_const_iterator<std::_List_val<ioPlayEntity *,std::allocator<ioPlayEntity *> > >::_List_const_iterator<std::_List_val<ioPlayEntity *,std::allocator<ioPlayEntity *> > >, COMDAT
; _this$ = ecx

; 184  : 		{	// construct with node pointer _Pnode

  00000	55		 push	 ebp
  00001	8b ec		 mov	 ebp, esp
  00003	8b c1		 mov	 eax, ecx
  00005	8b 4d 08	 mov	 ecx, DWORD PTR __Pnode$[ebp]
  00008	89 08		 mov	 DWORD PTR [eax], ecx

; 185  : 		}

  0000a	5d		 pop	 ebp
  0000b	c2 08 00	 ret	 8
??0?$_List_const_iterator@V?$_List_val@PAVioPlayEntity@@V?$allocator@PAVioPlayEntity@@@std@@@std@@@std@@QAE@PAU_Node@?$_List_nod@PAVioPlayEntity@@V?$allocator@PAVioPlayEntity@@@std@@@1@PBV?$_List_val@PAVioPlayEntity@@V?$allocator@PAVioPlayEntity@@@std@@@1@@Z ENDP ; std::_List_const_iterator<std::_List_val<ioPlayEntity *,std::allocator<ioPlayEntity *> > >::_List_const_iterator<std::_List_val<ioPlayEntity *,std::allocator<ioPlayEntity *> > >
_TEXT	ENDS
PUBLIC	??$_Dest_val@V?$allocator@U_Node@?$_List_nod@PAVioPlayEntity@@V?$allocator@PAVioPlayEntity@@@std@@@std@@@std@@U_Node@?$_List_nod@PAVioPlayEntity@@V?$allocator@PAVioPlayEntity@@@std@@@2@@std@@YAXAAV?$allocator@U_Node@?$_List_nod@PAVioPlayEntity@@V?$allocator@PAVioPlayEntity@@@std@@@std@@@0@PAU_Node@?$_List_nod@PAVioPlayEntity@@V?$allocator@PAVioPlayEntity@@@std@@@0@@Z ; std::_Dest_val<std::allocator<std::_List_nod<ioPlayEntity *,std::allocator<ioPlayEntity *> >::_Node>,std::_List_nod<ioPlayEntity *,std::allocator<ioPlayEntity *> >::_Node>
; Function compile flags: /Ogsp
; File c:\program files (x86)\microsoft visual studio 10.0\vc\include\xmemory
;	COMDAT ??$_Dest_val@V?$allocator@U_Node@?$_List_nod@PAVioPlayEntity@@V?$allocator@PAVioPlayEntity@@@std@@@std@@@std@@U_Node@?$_List_nod@PAVioPlayEntity@@V?$allocator@PAVioPlayEntity@@@std@@@2@@std@@YAXAAV?$allocator@U_Node@?$_List_nod@PAVioPlayEntity@@V?$allocator@PAVioPlayEntity@@@std@@@std@@@0@PAU_Node@?$_List_nod@PAVioPlayEntity@@V?$allocator@PAVioPlayEntity@@@std@@@0@@Z
_TEXT	SEGMENT
__Alval$ = 8						; size = 4
__Pdest$ = 12						; size = 4
??$_Dest_val@V?$allocator@U_Node@?$_List_nod@PAVioPlayEntity@@V?$allocator@PAVioPlayEntity@@@std@@@std@@@std@@U_Node@?$_List_nod@PAVioPlayEntity@@V?$allocator@PAVioPlayEntity@@@std@@@2@@std@@YAXAAV?$allocator@U_Node@?$_List_nod@PAVioPlayEntity@@V?$allocator@PAVioPlayEntity@@@std@@@std@@@0@PAU_Node@?$_List_nod@PAVioPlayEntity@@V?$allocator@PAVioPlayEntity@@@std@@@0@@Z PROC ; std::_Dest_val<std::allocator<std::_List_nod<ioPlayEntity *,std::allocator<ioPlayEntity *> >::_Node>,std::_List_nod<ioPlayEntity *,std::allocator<ioPlayEntity *> >::_Node>, COMDAT

; 287  : 	_Alval.destroy(_Pdest);
; 288  : 	}

  00000	c3		 ret	 0
??$_Dest_val@V?$allocator@U_Node@?$_List_nod@PAVioPlayEntity@@V?$allocator@PAVioPlayEntity@@@std@@@std@@@std@@U_Node@?$_List_nod@PAVioPlayEntity@@V?$allocator@PAVioPlayEntity@@@std@@@2@@std@@YAXAAV?$allocator@U_Node@?$_List_nod@PAVioPlayEntity@@V?$allocator@PAVioPlayEntity@@@std@@@std@@@0@PAU_Node@?$_List_nod@PAVioPlayEntity@@V?$allocator@PAVioPlayEntity@@@std@@@0@@Z ENDP ; std::_Dest_val<std::allocator<std::_List_nod<ioPlayEntity *,std::allocator<ioPlayEntity *> >::_Node>,std::_List_nod<ioPlayEntity *,std::allocator<ioPlayEntity *> >::_Node>
_TEXT	ENDS
PUBLIC	??$_Cons_val@V?$allocator@PAVioPlayEntity@@@std@@PAVioPlayEntity@@ABQAV3@@std@@YAXAAV?$allocator@PAVioPlayEntity@@@0@PAPAVioPlayEntity@@ABQAV2@@Z ; std::_Cons_val<std::allocator<ioPlayEntity *>,ioPlayEntity *,ioPlayEntity * const &>
; Function compile flags: /Ogsp
;	COMDAT ??$_Cons_val@V?$allocator@PAVioPlayEntity@@@std@@PAVioPlayEntity@@ABQAV3@@std@@YAXAAV?$allocator@PAVioPlayEntity@@@0@PAPAVioPlayEntity@@ABQAV2@@Z
_TEXT	SEGMENT
__Alval$ = 8						; size = 4
__Pdest$ = 12						; size = 4
__Src$ = 16						; size = 4
??$_Cons_val@V?$allocator@PAVioPlayEntity@@@std@@PAVioPlayEntity@@ABQAV3@@std@@YAXAAV?$allocator@PAVioPlayEntity@@@0@PAPAVioPlayEntity@@ABQAV2@@Z PROC ; std::_Cons_val<std::allocator<ioPlayEntity *>,ioPlayEntity *,ioPlayEntity * const &>, COMDAT

; 279  : 	{	// construct using allocator

  00000	55		 push	 ebp
  00001	8b ec		 mov	 ebp, esp

; 280  : 	_Alval.construct(_Pdest, _STD forward<_Ty2>(_Src));

  00003	8b 45 0c	 mov	 eax, DWORD PTR __Pdest$[ebp]
  00006	85 c0		 test	 eax, eax
  00008	74 07		 je	 SHORT $LN9@Cons_val
  0000a	8b 4d 10	 mov	 ecx, DWORD PTR __Src$[ebp]
  0000d	8b 09		 mov	 ecx, DWORD PTR [ecx]
  0000f	89 08		 mov	 DWORD PTR [eax], ecx
$LN9@Cons_val:

; 281  : 	}

  00011	5d		 pop	 ebp
  00012	c3		 ret	 0
??$_Cons_val@V?$allocator@PAVioPlayEntity@@@std@@PAVioPlayEntity@@ABQAV3@@std@@YAXAAV?$allocator@PAVioPlayEntity@@@0@PAPAVioPlayEntity@@ABQAV2@@Z ENDP ; std::_Cons_val<std::allocator<ioPlayEntity *>,ioPlayEntity *,ioPlayEntity * const &>
_TEXT	ENDS
PUBLIC	??0?$list@PAVioPlayEntity@@V?$allocator@PAVioPlayEntity@@@std@@@std@@QAE@XZ ; std::list<ioPlayEntity *,std::allocator<ioPlayEntity *> >::list<ioPlayEntity *,std::allocator<ioPlayEntity *> >
; Function compile flags: /Ogsp
; File c:\program files (x86)\microsoft visual studio 10.0\vc\include\list
;	COMDAT ??0?$list@PAVioPlayEntity@@V?$allocator@PAVioPlayEntity@@@std@@@std@@QAE@XZ
_TEXT	SEGMENT
$T514308 = -4						; size = 4
$T514303 = -4						; size = 4
??0?$list@PAVioPlayEntity@@V?$allocator@PAVioPlayEntity@@@std@@@std@@QAE@XZ PROC ; std::list<ioPlayEntity *,std::allocator<ioPlayEntity *> >::list<ioPlayEntity *,std::allocator<ioPlayEntity *> >, COMDAT
; _this$ = ecx

; 607  : 		{	// construct empty list

  00000	55		 push	 ebp
  00001	8b ec		 mov	 ebp, esp
  00003	51		 push	 ecx
  00004	56		 push	 esi
  00005	51		 push	 ecx
  00006	89 65 fc	 mov	 DWORD PTR $T514303[ebp], esp
  00009	8b f1		 mov	 esi, ecx
  0000b	89 65 fc	 mov	 DWORD PTR $T514308[ebp], esp
  0000e	e8 00 00 00 00	 call	 ??0?$_List_val@PAVioPlayEntity@@V?$allocator@PAVioPlayEntity@@@std@@@std@@QAE@V?$allocator@PAVioPlayEntity@@@1@@Z ; std::_List_val<ioPlayEntity *,std::allocator<ioPlayEntity *> >::_List_val<ioPlayEntity *,std::allocator<ioPlayEntity *> >

; 608  : 		}

  00013	8b c6		 mov	 eax, esi
  00015	5e		 pop	 esi
  00016	c9		 leave
  00017	c3		 ret	 0
??0?$list@PAVioPlayEntity@@V?$allocator@PAVioPlayEntity@@@std@@@std@@QAE@XZ ENDP ; std::list<ioPlayEntity *,std::allocator<ioPlayEntity *> >::list<ioPlayEntity *,std::allocator<ioPlayEntity *> >
_TEXT	ENDS
PUBLIC	?remove@?$list@PAVioPlayEntity@@V?$allocator@PAVioPlayEntity@@@std@@@std@@QAEXABQAVioPlayEntity@@@Z ; std::list<ioPlayEntity *,std::allocator<ioPlayEntity *> >::remove
; Function compile flags: /Ogsp
;	COMDAT ?remove@?$list@PAVioPlayEntity@@V?$allocator@PAVioPlayEntity@@@std@@@std@@QAEXABQAVioPlayEntity@@@Z
_TEXT	SEGMENT
__Val$ = 8						; size = 4
__Val_arg$ = 8						; size = 4
?remove@?$list@PAVioPlayEntity@@V?$allocator@PAVioPlayEntity@@@std@@@std@@QAEXABQAVioPlayEntity@@@Z PROC ; std::list<ioPlayEntity *,std::allocator<ioPlayEntity *> >::remove, COMDAT
; _this$ = ecx

; 1188 : 		{	// erase each element matching _Val

  00000	55		 push	 ebp
  00001	8b ec		 mov	 ebp, esp

; 1189 : 		const _Ty _Val = _Val_arg;	// in case it's removed along the way

  00003	8b 45 08	 mov	 eax, DWORD PTR __Val_arg$[ebp]
  00006	8b 00		 mov	 eax, DWORD PTR [eax]
  00008	53		 push	 ebx
  00009	56		 push	 esi
  0000a	57		 push	 edi
  0000b	8b f9		 mov	 edi, ecx

; 1190 : 		const _Nodeptr _Phead = this->_Myhead;

  0000d	8b 1f		 mov	 ebx, DWORD PTR [edi]

; 1191 : 		_Nodeptr _Pnode = _Phead->_Next;

  0000f	8b 33		 mov	 esi, DWORD PTR [ebx]
  00011	89 45 08	 mov	 DWORD PTR __Val$[ebp], eax
  00014	eb 20		 jmp	 SHORT $LN17@remove
$LL4@remove:

; 1194 : 			if (_Pnode->_Myval == _Val)

  00016	8b 45 08	 mov	 eax, DWORD PTR __Val$[ebp]
  00019	39 46 08	 cmp	 DWORD PTR [esi+8], eax
  0001c	75 16		 jne	 SHORT $LN2@remove

; 1195 : 				{	// match, remove it
; 1196 : 				const _Nodeptr _Pprev = _Pnode->_Prev;

  0001e	8b 46 04	 mov	 eax, DWORD PTR [esi+4]

; 1197 : 				const _Nodeptr _Perase = _Pnode;
; 1198 : 				_Pnode = _Pnode->_Next;
; 1199 : 
; 1200 : 				_Pprev->_Next = _Pnode;
; 1201 : 				_Pnode->_Prev = _Pprev;
; 1202 : 
; 1203 : 				_Dest_val(this->_Alnod, _Perase);
; 1204 : 				this->_Alnod.deallocate(_Perase, 1);

  00021	56		 push	 esi
  00022	8b 36		 mov	 esi, DWORD PTR [esi]
  00024	89 30		 mov	 DWORD PTR [eax], esi
  00026	89 46 04	 mov	 DWORD PTR [esi+4], eax
  00029	e8 00 00 00 00	 call	 ??3@YAXPAX@Z		; operator delete

; 1205 : 				--this->_Mysize;

  0002e	ff 4f 04	 dec	 DWORD PTR [edi+4]
  00031	59		 pop	 ecx

; 1206 : 				}
; 1207 : 			else

  00032	eb 02		 jmp	 SHORT $LN17@remove
$LN2@remove:

; 1208 : 				_Pnode = _Pnode->_Next;

  00034	8b 36		 mov	 esi, DWORD PTR [esi]
$LN17@remove:

; 1192 : 
; 1193 : 		while (_Pnode != _Phead)

  00036	3b f3		 cmp	 esi, ebx
  00038	75 dc		 jne	 SHORT $LL4@remove
  0003a	5f		 pop	 edi
  0003b	5e		 pop	 esi
  0003c	5b		 pop	 ebx

; 1209 : 		}

  0003d	5d		 pop	 ebp
  0003e	c2 04 00	 ret	 4
?remove@?$list@PAVioPlayEntity@@V?$allocator@PAVioPlayEntity@@@std@@@std@@QAEXABQAVioPlayEntity@@@Z ENDP ; std::list<ioPlayEntity *,std::allocator<ioPlayEntity *> >::remove
_TEXT	ENDS
PUBLIC	??0?$_List_iterator@V?$_List_val@PAVioPlayEntity@@V?$allocator@PAVioPlayEntity@@@std@@@std@@@std@@QAE@PAU_Node@?$_List_nod@PAVioPlayEntity@@V?$allocator@PAVioPlayEntity@@@std@@@1@PBV?$_List_val@PAVioPlayEntity@@V?$allocator@PAVioPlayEntity@@@std@@@1@@Z ; std::_List_iterator<std::_List_val<ioPlayEntity *,std::allocator<ioPlayEntity *> > >::_List_iterator<std::_List_val<ioPlayEntity *,std::allocator<ioPlayEntity *> > >
; Function compile flags: /Ogsp
;	COMDAT ??0?$_List_iterator@V?$_List_val@PAVioPlayEntity@@V?$allocator@PAVioPlayEntity@@@std@@@std@@@std@@QAE@PAU_Node@?$_List_nod@PAVioPlayEntity@@V?$allocator@PAVioPlayEntity@@@std@@@1@PBV?$_List_val@PAVioPlayEntity@@V?$allocator@PAVioPlayEntity@@@std@@@1@@Z
_TEXT	SEGMENT
__Pnode$ = 8						; size = 4
__Plist$ = 12						; size = 4
??0?$_List_iterator@V?$_List_val@PAVioPlayEntity@@V?$allocator@PAVioPlayEntity@@@std@@@std@@@std@@QAE@PAU_Node@?$_List_nod@PAVioPlayEntity@@V?$allocator@PAVioPlayEntity@@@std@@@1@PBV?$_List_val@PAVioPlayEntity@@V?$allocator@PAVioPlayEntity@@@std@@@1@@Z PROC ; std::_List_iterator<std::_List_val<ioPlayEntity *,std::allocator<ioPlayEntity *> > >::_List_iterator<std::_List_val<ioPlayEntity *,std::allocator<ioPlayEntity *> > >, COMDAT
; _this$ = ecx

; 342  : 		{	// construct with node pointer _Pnode

  00000	55		 push	 ebp
  00001	8b ec		 mov	 ebp, esp
  00003	8b c1		 mov	 eax, ecx
  00005	8b 4d 08	 mov	 ecx, DWORD PTR __Pnode$[ebp]
  00008	89 08		 mov	 DWORD PTR [eax], ecx

; 343  : 		}

  0000a	5d		 pop	 ebp
  0000b	c2 08 00	 ret	 8
??0?$_List_iterator@V?$_List_val@PAVioPlayEntity@@V?$allocator@PAVioPlayEntity@@@std@@@std@@@std@@QAE@PAU_Node@?$_List_nod@PAVioPlayEntity@@V?$allocator@PAVioPlayEntity@@@std@@@1@PBV?$_List_val@PAVioPlayEntity@@V?$allocator@PAVioPlayEntity@@@std@@@1@@Z ENDP ; std::_List_iterator<std::_List_val<ioPlayEntity *,std::allocator<ioPlayEntity *> > >::_List_iterator<std::_List_val<ioPlayEntity *,std::allocator<ioPlayEntity *> > >
_TEXT	ENDS
PUBLIC	?clear@?$list@PAVioPlayEntity@@V?$allocator@PAVioPlayEntity@@@std@@@std@@QAEXXZ ; std::list<ioPlayEntity *,std::allocator<ioPlayEntity *> >::clear
; Function compile flags: /Ogsp
;	COMDAT ?clear@?$list@PAVioPlayEntity@@V?$allocator@PAVioPlayEntity@@@std@@@std@@QAEXXZ
_TEXT	SEGMENT
?clear@?$list@PAVioPlayEntity@@V?$allocator@PAVioPlayEntity@@@std@@@std@@QAEXXZ PROC ; std::list<ioPlayEntity *,std::allocator<ioPlayEntity *> >::clear, COMDAT
; _this$ = ecx

; 1096 : 		{	// erase all

  00000	56		 push	 esi
  00001	8b f1		 mov	 esi, ecx

; 1097 :  #if _ITERATOR_DEBUG_LEVEL == 2
; 1098 : 		this->_Orphan_ptr(*this, 0);
; 1099 :  #endif /* _ITERATOR_DEBUG_LEVEL == 2 */
; 1100 : 
; 1101 : 		_Nodeptr _Pnext;
; 1102 : 		_Nodeptr _Pnode = this->_Nextnode(this->_Myhead);

  00003	8b 06		 mov	 eax, DWORD PTR [esi]
  00005	8b 08		 mov	 ecx, DWORD PTR [eax]

; 1103 : 		this->_Nextnode(this->_Myhead) = this->_Myhead;

  00007	89 00		 mov	 DWORD PTR [eax], eax

; 1104 : 		this->_Prevnode(this->_Myhead) = this->_Myhead;

  00009	8b 06		 mov	 eax, DWORD PTR [esi]
  0000b	89 40 04	 mov	 DWORD PTR [eax+4], eax

; 1105 : 		this->_Mysize = 0;

  0000e	83 66 04 00	 and	 DWORD PTR [esi+4], 0

; 1106 : 
; 1107 : 		for (; _Pnode != this->_Myhead; _Pnode = _Pnext)

  00012	3b 0e		 cmp	 ecx, DWORD PTR [esi]
  00014	74 11		 je	 SHORT $LN1@clear
  00016	57		 push	 edi
$LL3@clear:

; 1108 : 			{	// delete an element
; 1109 : 			_Pnext = this->_Nextnode(_Pnode);

  00017	8b 39		 mov	 edi, DWORD PTR [ecx]

; 1110 : 
; 1111 : 			_Dest_val(this->_Alnod, _Pnode);
; 1112 : 			this->_Alnod.deallocate(_Pnode, 1);

  00019	51		 push	 ecx
  0001a	e8 00 00 00 00	 call	 ??3@YAXPAX@Z		; operator delete
  0001f	59		 pop	 ecx
  00020	8b cf		 mov	 ecx, edi
  00022	3b 3e		 cmp	 edi, DWORD PTR [esi]
  00024	75 f1		 jne	 SHORT $LL3@clear
  00026	5f		 pop	 edi
$LN1@clear:
  00027	5e		 pop	 esi

; 1113 : 			}
; 1114 : 		}

  00028	c3		 ret	 0
?clear@?$list@PAVioPlayEntity@@V?$allocator@PAVioPlayEntity@@@std@@@std@@QAEXXZ ENDP ; std::list<ioPlayEntity *,std::allocator<ioPlayEntity *> >::clear
_TEXT	ENDS
PUBLIC	?_Buynode@?$_List_val@PAVioPlayEntity@@V?$allocator@PAVioPlayEntity@@@std@@@std@@QAEPAU_Node@?$_List_nod@PAVioPlayEntity@@V?$allocator@PAVioPlayEntity@@@std@@@2@PAU342@0ABQAVioPlayEntity@@@Z ; std::_List_val<ioPlayEntity *,std::allocator<ioPlayEntity *> >::_Buynode
; Function compile flags: /Ogsp
;	COMDAT ?_Buynode@?$_List_val@PAVioPlayEntity@@V?$allocator@PAVioPlayEntity@@@std@@@std@@QAEPAU_Node@?$_List_nod@PAVioPlayEntity@@V?$allocator@PAVioPlayEntity@@@std@@@2@PAU342@0ABQAVioPlayEntity@@@Z
_TEXT	SEGMENT
$T514415 = -12						; size = 12
$T514398 = 8						; size = 4
__Next$ = 8						; size = 4
__Prev$ = 12						; size = 4
__Val$ = 16						; size = 4
?_Buynode@?$_List_val@PAVioPlayEntity@@V?$allocator@PAVioPlayEntity@@@std@@@std@@QAEPAU_Node@?$_List_nod@PAVioPlayEntity@@V?$allocator@PAVioPlayEntity@@@std@@@2@PAU342@0ABQAVioPlayEntity@@@Z PROC ; std::_List_val<ioPlayEntity *,std::allocator<ioPlayEntity *> >::_Buynode, COMDAT
; _this$ = ecx

; 507  : 		{	// allocate a node and set links and value

  00000	55		 push	 ebp
  00001	8b ec		 mov	 ebp, esp
  00003	83 ec 0c	 sub	 esp, 12			; 0000000cH

; 508  : 		_Nodeptr _Pnode = this->_Alnod.allocate(1);

  00006	6a 0c		 push	 12			; 0000000cH
  00008	e8 00 00 00 00	 call	 ??2@YAPAXI@Z		; operator new
  0000d	59		 pop	 ecx
  0000e	85 c0		 test	 eax, eax
  00010	74 1d		 je	 SHORT $LN10@Buynode

; 509  : 
; 510  : 		_TRY_BEGIN
; 511  : 		this->_Nextnode(_Pnode) = _Next;

  00012	8b 4d 08	 mov	 ecx, DWORD PTR __Next$[ebp]
  00015	89 08		 mov	 DWORD PTR [eax], ecx

; 512  : 		this->_Prevnode(_Pnode) = _Prev;

  00017	8b 4d 0c	 mov	 ecx, DWORD PTR __Prev$[ebp]
  0001a	89 48 04	 mov	 DWORD PTR [eax+4], ecx

; 513  : 		_Cons_val(this->_Alval, _STD addressof(this->_Myval(_Pnode)), _Val);

  0001d	8d 48 08	 lea	 ecx, DWORD PTR [eax+8]
  00020	85 c9		 test	 ecx, ecx
  00022	74 07		 je	 SHORT $LN2@Buynode
  00024	8b 55 10	 mov	 edx, DWORD PTR __Val$[ebp]
  00027	8b 12		 mov	 edx, DWORD PTR [edx]
  00029	89 11		 mov	 DWORD PTR [ecx], edx
$LN2@Buynode:

; 514  : 		_CATCH_ALL
; 515  : 		this->_Alnod.deallocate(_Pnode, 1);
; 516  : 		_RERAISE;
; 517  : 		_CATCH_END
; 518  : 
; 519  : 		return (_Pnode);
; 520  : 		}

  0002b	c9		 leave
  0002c	c2 0c 00	 ret	 12			; 0000000cH

; 508  : 		_Nodeptr _Pnode = this->_Alnod.allocate(1);

$LN10@Buynode:
  0002f	83 65 08 00	 and	 DWORD PTR $T514398[ebp], 0
  00033	8d 45 08	 lea	 eax, DWORD PTR $T514398[ebp]
  00036	50		 push	 eax
  00037	8d 4d f4	 lea	 ecx, DWORD PTR $T514415[ebp]
  0003a	ff 15 00 00 00
	00		 call	 DWORD PTR __imp_??0exception@std@@QAE@ABQBD@Z
  00040	68 00 00 00 00	 push	 OFFSET __TI2?AVbad_alloc@std@@
  00045	8d 45 f4	 lea	 eax, DWORD PTR $T514415[ebp]
  00048	50		 push	 eax
  00049	c7 45 f4 00 00
	00 00		 mov	 DWORD PTR $T514415[ebp], OFFSET ??_7bad_alloc@std@@6B@
  00050	e8 00 00 00 00	 call	 __CxxThrowException@8
$LN46@Buynode:
$LN45@Buynode:
  00055	cc		 int	 3
?_Buynode@?$_List_val@PAVioPlayEntity@@V?$allocator@PAVioPlayEntity@@@std@@@std@@QAEPAU_Node@?$_List_nod@PAVioPlayEntity@@V?$allocator@PAVioPlayEntity@@@std@@@2@PAU342@0ABQAVioPlayEntity@@@Z ENDP ; std::_List_val<ioPlayEntity *,std::allocator<ioPlayEntity *> >::_Buynode
_TEXT	ENDS
PUBLIC	?RemoveWorldEntity@ioWorldEntityFactory@@QAEXPAVioGameEntity@@@Z ; ioWorldEntityFactory::RemoveWorldEntity
; Function compile flags: /Ogsp
; File d:\lost saga for developer\youtube\tutorial\source\src\lsclient\ioworldentityfactory.cpp
;	COMDAT ?RemoveWorldEntity@ioWorldEntityFactory@@QAEXPAVioGameEntity@@@Z
_TEXT	SEGMENT
_pPlay$ = 8						; size = 4
_pEntity$ = 8						; size = 4
?RemoveWorldEntity@ioWorldEntityFactory@@QAEXPAVioGameEntity@@@Z PROC ; ioWorldEntityFactory::RemoveWorldEntity, COMDAT
; _this$ = ecx

; 49   : {

  00000	55		 push	 ebp
  00001	8b ec		 mov	 ebp, esp
  00003	56		 push	 esi

; 50   : 	ioPlayEntity *pPlay = ToPlayEntity( pEntity );

  00004	ff 75 08	 push	 DWORD PTR _pEntity$[ebp]
  00007	8b f1		 mov	 esi, ecx
  00009	e8 00 00 00 00	 call	 ?ToPlayEntity@@YAPAVioPlayEntity@@PAVioGameEntity@@@Z ; ToPlayEntity
  0000e	59		 pop	 ecx
  0000f	89 45 08	 mov	 DWORD PTR _pPlay$[ebp], eax

; 51   : 	if( pPlay )

  00012	85 c0		 test	 eax, eax
  00014	74 0c		 je	 SHORT $LN1@RemoveWorl

; 52   : 	{
; 53   : 		m_WorldEntityList.remove( pPlay );

  00016	8d 45 08	 lea	 eax, DWORD PTR _pPlay$[ebp]
  00019	50		 push	 eax
  0001a	8d 4e 04	 lea	 ecx, DWORD PTR [esi+4]
  0001d	e8 00 00 00 00	 call	 ?remove@?$list@PAVioPlayEntity@@V?$allocator@PAVioPlayEntity@@@std@@@std@@QAEXABQAVioPlayEntity@@@Z ; std::list<ioPlayEntity *,std::allocator<ioPlayEntity *> >::remove
$LN1@RemoveWorl:
  00022	5e		 pop	 esi

; 54   : 	}
; 55   : }

  00023	5d		 pop	 ebp
  00024	c2 04 00	 ret	 4
?RemoveWorldEntity@ioWorldEntityFactory@@QAEXPAVioGameEntity@@@Z ENDP ; ioWorldEntityFactory::RemoveWorldEntity
_TEXT	ENDS
PUBLIC	?begin@?$list@PAVioPlayEntity@@V?$allocator@PAVioPlayEntity@@@std@@@std@@QAE?AV?$_List_iterator@V?$_List_val@PAVioPlayEntity@@V?$allocator@PAVioPlayEntity@@@std@@@std@@@2@XZ ; std::list<ioPlayEntity *,std::allocator<ioPlayEntity *> >::begin
; Function compile flags: /Ogsp
; File c:\program files (x86)\microsoft visual studio 10.0\vc\include\list
;	COMDAT ?begin@?$list@PAVioPlayEntity@@V?$allocator@PAVioPlayEntity@@@std@@@std@@QAE?AV?$_List_iterator@V?$_List_val@PAVioPlayEntity@@V?$allocator@PAVioPlayEntity@@@std@@@std@@@2@XZ
_TEXT	SEGMENT
___$ReturnUdt$ = 8					; size = 4
?begin@?$list@PAVioPlayEntity@@V?$allocator@PAVioPlayEntity@@@std@@@std@@QAE?AV?$_List_iterator@V?$_List_val@PAVioPlayEntity@@V?$allocator@PAVioPlayEntity@@@std@@@std@@@2@XZ PROC ; std::list<ioPlayEntity *,std::allocator<ioPlayEntity *> >::begin, COMDAT
; _this$ = ecx

; 781  : 		{	// return iterator for beginning of mutable sequence

  00000	55		 push	 ebp
  00001	8b ec		 mov	 ebp, esp

; 782  : 		return (iterator(this->_Nextnode(this->_Myhead), this));

  00003	8b 01		 mov	 eax, DWORD PTR [ecx]
  00005	8b 08		 mov	 ecx, DWORD PTR [eax]
  00007	8b 45 08	 mov	 eax, DWORD PTR ___$ReturnUdt$[ebp]
  0000a	89 08		 mov	 DWORD PTR [eax], ecx

; 783  : 		}

  0000c	5d		 pop	 ebp
  0000d	c2 04 00	 ret	 4
?begin@?$list@PAVioPlayEntity@@V?$allocator@PAVioPlayEntity@@@std@@@std@@QAE?AV?$_List_iterator@V?$_List_val@PAVioPlayEntity@@V?$allocator@PAVioPlayEntity@@@std@@@std@@@2@XZ ENDP ; std::list<ioPlayEntity *,std::allocator<ioPlayEntity *> >::begin
_TEXT	ENDS
PUBLIC	?end@?$list@PAVioPlayEntity@@V?$allocator@PAVioPlayEntity@@@std@@@std@@QAE?AV?$_List_iterator@V?$_List_val@PAVioPlayEntity@@V?$allocator@PAVioPlayEntity@@@std@@@std@@@2@XZ ; std::list<ioPlayEntity *,std::allocator<ioPlayEntity *> >::end
; Function compile flags: /Ogsp
;	COMDAT ?end@?$list@PAVioPlayEntity@@V?$allocator@PAVioPlayEntity@@@std@@@std@@QAE?AV?$_List_iterator@V?$_List_val@PAVioPlayEntity@@V?$allocator@PAVioPlayEntity@@@std@@@std@@@2@XZ
_TEXT	SEGMENT
___$ReturnUdt$ = 8					; size = 4
?end@?$list@PAVioPlayEntity@@V?$allocator@PAVioPlayEntity@@@std@@@std@@QAE?AV?$_List_iterator@V?$_List_val@PAVioPlayEntity@@V?$allocator@PAVioPlayEntity@@@std@@@std@@@2@XZ PROC ; std::list<ioPlayEntity *,std::allocator<ioPlayEntity *> >::end, COMDAT
; _this$ = ecx

; 791  : 		{	// return iterator for end of mutable sequence

  00000	55		 push	 ebp
  00001	8b ec		 mov	 ebp, esp

; 792  : 		return (iterator(this->_Myhead, this));

  00003	8b 09		 mov	 ecx, DWORD PTR [ecx]
  00005	8b 45 08	 mov	 eax, DWORD PTR ___$ReturnUdt$[ebp]
  00008	89 08		 mov	 DWORD PTR [eax], ecx

; 793  : 		}

  0000a	5d		 pop	 ebp
  0000b	c2 04 00	 ret	 4
?end@?$list@PAVioPlayEntity@@V?$allocator@PAVioPlayEntity@@@std@@@std@@QAE?AV?$_List_iterator@V?$_List_val@PAVioPlayEntity@@V?$allocator@PAVioPlayEntity@@@std@@@std@@@2@XZ ENDP ; std::list<ioPlayEntity *,std::allocator<ioPlayEntity *> >::end
_TEXT	ENDS
PUBLIC	?_Insert@?$list@PAVioPlayEntity@@V?$allocator@PAVioPlayEntity@@@std@@@std@@QAEXV?$_List_const_iterator@V?$_List_val@PAVioPlayEntity@@V?$allocator@PAVioPlayEntity@@@std@@@std@@@2@ABQAVioPlayEntity@@@Z ; std::list<ioPlayEntity *,std::allocator<ioPlayEntity *> >::_Insert
; Function compile flags: /Ogsp
;	COMDAT ?_Insert@?$list@PAVioPlayEntity@@V?$allocator@PAVioPlayEntity@@@std@@@std@@QAEXV?$_List_const_iterator@V?$_List_val@PAVioPlayEntity@@V?$allocator@PAVioPlayEntity@@@std@@@std@@@2@ABQAVioPlayEntity@@@Z
_TEXT	SEGMENT
__Where$ = 8						; size = 4
__Val$ = 12						; size = 4
?_Insert@?$list@PAVioPlayEntity@@V?$allocator@PAVioPlayEntity@@@std@@@std@@QAEXV?$_List_const_iterator@V?$_List_val@PAVioPlayEntity@@V?$allocator@PAVioPlayEntity@@@std@@@std@@@2@ABQAVioPlayEntity@@@Z PROC ; std::list<ioPlayEntity *,std::allocator<ioPlayEntity *> >::_Insert, COMDAT
; _this$ = ecx

; 967  : 		{	// insert _Val at _Where

  00000	55		 push	 ebp
  00001	8b ec		 mov	 ebp, esp

; 968  :  #if _ITERATOR_DEBUG_LEVEL == 2
; 969  : 		if (_Where._Getcont() != this)
; 970  : 			_DEBUG_ERROR("list insert iterator outside range");
; 971  :  #endif /* _ITERATOR_DEBUG_LEVEL == 2 */
; 972  : 
; 973  : 		_Nodeptr _Pnode = _Where._Mynode();
; 974  : 		_Nodeptr _Newnode =
; 975  : 			this->_Buynode(_Pnode, this->_Prevnode(_Pnode), _Val);

  00003	8b 45 08	 mov	 eax, DWORD PTR __Where$[ebp]
  00006	53		 push	 ebx
  00007	56		 push	 esi
  00008	57		 push	 edi
  00009	ff 75 0c	 push	 DWORD PTR __Val$[ebp]
  0000c	8d 78 04	 lea	 edi, DWORD PTR [eax+4]
  0000f	ff 37		 push	 DWORD PTR [edi]
  00011	8b d9		 mov	 ebx, ecx
  00013	50		 push	 eax
  00014	e8 00 00 00 00	 call	 ?_Buynode@?$_List_val@PAVioPlayEntity@@V?$allocator@PAVioPlayEntity@@@std@@@std@@QAEPAU_Node@?$_List_nod@PAVioPlayEntity@@V?$allocator@PAVioPlayEntity@@@std@@@2@PAU342@0ABQAVioPlayEntity@@@Z ; std::_List_val<ioPlayEntity *,std::allocator<ioPlayEntity *> >::_Buynode

; 976  : 		_Incsize(1);

  00019	6a 01		 push	 1
  0001b	8b cb		 mov	 ecx, ebx
  0001d	8b f0		 mov	 esi, eax
  0001f	e8 00 00 00 00	 call	 ?_Incsize@?$list@PAVioPlayEntity@@V?$allocator@PAVioPlayEntity@@@std@@@std@@QAEXI@Z ; std::list<ioPlayEntity *,std::allocator<ioPlayEntity *> >::_Incsize

; 977  : 		this->_Prevnode(_Pnode) = _Newnode;

  00024	89 37		 mov	 DWORD PTR [edi], esi

; 978  : 		this->_Nextnode(this->_Prevnode(_Newnode)) = _Newnode;

  00026	8b 46 04	 mov	 eax, DWORD PTR [esi+4]
  00029	5f		 pop	 edi
  0002a	89 30		 mov	 DWORD PTR [eax], esi
  0002c	5e		 pop	 esi
  0002d	5b		 pop	 ebx

; 979  : 		}

  0002e	5d		 pop	 ebp
  0002f	c2 08 00	 ret	 8
?_Insert@?$list@PAVioPlayEntity@@V?$allocator@PAVioPlayEntity@@@std@@@std@@QAEXV?$_List_const_iterator@V?$_List_val@PAVioPlayEntity@@V?$allocator@PAVioPlayEntity@@@std@@@std@@@2@ABQAVioPlayEntity@@@Z ENDP ; std::list<ioPlayEntity *,std::allocator<ioPlayEntity *> >::_Insert
_TEXT	ENDS
PUBLIC	?_Tidy@?$list@PAVioPlayEntity@@V?$allocator@PAVioPlayEntity@@@std@@@std@@QAEXXZ ; std::list<ioPlayEntity *,std::allocator<ioPlayEntity *> >::_Tidy
; Function compile flags: /Ogsp
;	COMDAT ?_Tidy@?$list@PAVioPlayEntity@@V?$allocator@PAVioPlayEntity@@@std@@@std@@QAEXXZ
_TEXT	SEGMENT
?_Tidy@?$list@PAVioPlayEntity@@V?$allocator@PAVioPlayEntity@@@std@@@std@@QAEXXZ PROC ; std::list<ioPlayEntity *,std::allocator<ioPlayEntity *> >::_Tidy, COMDAT
; _this$ = ecx

; 1497 : 		clear();

  00000	e9 00 00 00 00	 jmp	 ?clear@?$list@PAVioPlayEntity@@V?$allocator@PAVioPlayEntity@@@std@@@std@@QAEXXZ ; std::list<ioPlayEntity *,std::allocator<ioPlayEntity *> >::clear
?_Tidy@?$list@PAVioPlayEntity@@V?$allocator@PAVioPlayEntity@@@std@@@std@@QAEXXZ ENDP ; std::list<ioPlayEntity *,std::allocator<ioPlayEntity *> >::_Tidy
_TEXT	ENDS
PUBLIC	?EnableWorldEntityFunctions@ioWorldEntityFactory@@QAEX_N@Z ; ioWorldEntityFactory::EnableWorldEntityFunctions
EXTRN	?EnableWorldFunction@ioElevator@@QAEX_N@Z:PROC	; ioElevator::EnableWorldFunction
EXTRN	?EnableWorldFunction@ioConveyer@@QAEX_N@Z:PROC	; ioConveyer::EnableWorldFunction
; Function compile flags: /Ogsp
; File d:\lost saga for developer\youtube\tutorial\source\src\lsclient\ioworldentityfactory.cpp
;	COMDAT ?EnableWorldEntityFunctions@ioWorldEntityFactory@@QAEX_N@Z
_TEXT	SEGMENT
_bEnable$ = 8						; size = 1
?EnableWorldEntityFunctions@ioWorldEntityFactory@@QAEX_N@Z PROC ; ioWorldEntityFactory::EnableWorldEntityFunctions, COMDAT
; _this$ = ecx

; 155  : {

  00000	55		 push	 ebp
  00001	8b ec		 mov	 ebp, esp
  00003	53		 push	 ebx
  00004	8b d9		 mov	 ebx, ecx

; 156  : 	PlayEntityList::iterator iter = m_WorldEntityList.begin();

  00006	8b 43 04	 mov	 eax, DWORD PTR [ebx+4]
  00009	56		 push	 esi
  0000a	8b 30		 mov	 esi, DWORD PTR [eax]

; 157  : 	for( ; iter!=m_WorldEntityList.end() ; ++iter )

  0000c	3b f0		 cmp	 esi, eax
  0000e	74 38		 je	 SHORT $LN4@EnableWorl
  00010	57		 push	 edi
$LL23@EnableWorl:

; 158  : 	{
; 159  : 		ioPlayEntity *pEntity = *iter;

  00011	8b 7e 08	 mov	 edi, DWORD PTR [esi+8]

; 160  : 
; 161  : 		ioConveyer *pConveyer = ToConveyer( pEntity );

  00014	57		 push	 edi
  00015	e8 00 00 00 00	 call	 ?ToConveyer@@YAPAVioConveyer@@PAVioGameEntity@@@Z ; ToConveyer
  0001a	59		 pop	 ecx

; 162  : 		if( pConveyer )

  0001b	85 c0		 test	 eax, eax
  0001d	74 0c		 je	 SHORT $LN3@EnableWorl

; 163  : 		{
; 164  : 			pConveyer->EnableWorldFunction( bEnable );

  0001f	ff 75 08	 push	 DWORD PTR _bEnable$[ebp]
  00022	8b c8		 mov	 ecx, eax
  00024	e8 00 00 00 00	 call	 ?EnableWorldFunction@ioConveyer@@QAEX_N@Z ; ioConveyer::EnableWorldFunction

; 165  : 		}
; 166  : 		else

  00029	eb 15		 jmp	 SHORT $LN5@EnableWorl
$LN3@EnableWorl:

; 167  : 		{
; 168  : 			ioElevator *pElevator = ToElevator( pEntity );

  0002b	57		 push	 edi
  0002c	e8 00 00 00 00	 call	 ?ToElevator@@YAPAVioElevator@@PAVioGameEntity@@@Z ; ToElevator
  00031	59		 pop	 ecx

; 169  : 			if( pElevator )

  00032	85 c0		 test	 eax, eax
  00034	74 0a		 je	 SHORT $LN5@EnableWorl

; 170  : 			{
; 171  : 				pElevator->EnableWorldFunction( bEnable );

  00036	ff 75 08	 push	 DWORD PTR _bEnable$[ebp]
  00039	8b c8		 mov	 ecx, eax
  0003b	e8 00 00 00 00	 call	 ?EnableWorldFunction@ioElevator@@QAEX_N@Z ; ioElevator::EnableWorldFunction
$LN5@EnableWorl:

; 157  : 	for( ; iter!=m_WorldEntityList.end() ; ++iter )

  00040	8b 36		 mov	 esi, DWORD PTR [esi]
  00042	3b 73 04	 cmp	 esi, DWORD PTR [ebx+4]
  00045	75 ca		 jne	 SHORT $LL23@EnableWorl
  00047	5f		 pop	 edi
$LN4@EnableWorl:
  00048	5e		 pop	 esi

; 172  : 			}
; 173  : 		}
; 174  : 	}
; 175  : 
; 176  : 	EnableElevationSync( true );

  00049	c6 43 14 01	 mov	 BYTE PTR [ebx+20], 1
  0004d	5b		 pop	 ebx

; 177  : }

  0004e	5d		 pop	 ebp
  0004f	c2 04 00	 ret	 4
?EnableWorldEntityFunctions@ioWorldEntityFactory@@QAEX_N@Z ENDP ; ioWorldEntityFactory::EnableWorldEntityFunctions
_TEXT	ENDS
PUBLIC	?OnElevatorChanged@ioWorldEntityFactory@@QAEXAAVSP2Packet@@@Z ; ioWorldEntityFactory::OnElevatorChanged
EXTRN	?OnElevatorChanged@ioElevator@@QAEXAAVSP2Packet@@@Z:PROC ; ioElevator::OnElevatorChanged
EXTRN	??5SP2Packet@@QAEAAV0@AAK@Z:PROC		; SP2Packet::operator>>
; Function compile flags: /Ogsp
;	COMDAT ?OnElevatorChanged@ioWorldEntityFactory@@QAEXAAVSP2Packet@@@Z
_TEXT	SEGMENT
_dwCreateIndex$ = -4					; size = 4
_rkPacket$ = 8						; size = 4
?OnElevatorChanged@ioWorldEntityFactory@@QAEXAAVSP2Packet@@@Z PROC ; ioWorldEntityFactory::OnElevatorChanged, COMDAT
; _this$ = ecx

; 185  : {

  00000	55		 push	 ebp
  00001	8b ec		 mov	 ebp, esp
  00003	51		 push	 ecx
  00004	57		 push	 edi
  00005	8b f9		 mov	 edi, ecx

; 186  : 	if( !m_bElevationSyncStart )

  00007	80 7f 14 00	 cmp	 BYTE PTR [edi+20], 0
  0000b	74 46		 je	 SHORT $LN2@OnElevator

; 187  : 		return;
; 188  : 
; 189  : 	DWORD dwCreateIndex = 0;
; 190  : 	rkPacket >> dwCreateIndex;

  0000d	8b 4d 08	 mov	 ecx, DWORD PTR _rkPacket$[ebp]
  00010	83 65 fc 00	 and	 DWORD PTR _dwCreateIndex$[ebp], 0
  00014	56		 push	 esi
  00015	8d 45 fc	 lea	 eax, DWORD PTR _dwCreateIndex$[ebp]
  00018	50		 push	 eax
  00019	e8 00 00 00 00	 call	 ??5SP2Packet@@QAEAAV0@AAK@Z ; SP2Packet::operator>>

; 191  : 
; 192  : 	PlayEntityList::iterator iter = m_WorldEntityList.begin();

  0001e	8b 47 04	 mov	 eax, DWORD PTR [edi+4]
  00021	8b 30		 mov	 esi, DWORD PTR [eax]

; 193  : 	for( ; iter!=m_WorldEntityList.end() ; ++iter )

  00023	3b f0		 cmp	 esi, eax
  00025	74 2b		 je	 SHORT $LN51@OnElevator
$LL22@OnElevator:

; 194  : 	{
; 195  : 		ioElevator *pElevator = ToElevator( *iter );

  00027	ff 76 08	 push	 DWORD PTR [esi+8]
  0002a	e8 00 00 00 00	 call	 ?ToElevator@@YAPAVioElevator@@PAVioGameEntity@@@Z ; ToElevator
  0002f	59		 pop	 ecx

; 196  : 		if( pElevator && pElevator->GetCreateIndex() == dwCreateIndex )

  00030	85 c0		 test	 eax, eax
  00032	74 0b		 je	 SHORT $LN3@OnElevator
  00034	8b 88 c8 01 00
	00		 mov	 ecx, DWORD PTR [eax+456]
  0003a	3b 4d fc	 cmp	 ecx, DWORD PTR _dwCreateIndex$[ebp]
  0003d	74 09		 je	 SHORT $LN49@OnElevator
$LN3@OnElevator:

; 193  : 	for( ; iter!=m_WorldEntityList.end() ; ++iter )

  0003f	8b 36		 mov	 esi, DWORD PTR [esi]
  00041	3b 77 04	 cmp	 esi, DWORD PTR [edi+4]
  00044	75 e1		 jne	 SHORT $LL22@OnElevator

; 196  : 		if( pElevator && pElevator->GetCreateIndex() == dwCreateIndex )

  00046	eb 0a		 jmp	 SHORT $LN51@OnElevator
$LN49@OnElevator:

; 197  : 		{
; 198  : 			pElevator->OnElevatorChanged( rkPacket );

  00048	ff 75 08	 push	 DWORD PTR _rkPacket$[ebp]
  0004b	8b c8		 mov	 ecx, eax
  0004d	e8 00 00 00 00	 call	 ?OnElevatorChanged@ioElevator@@QAEXAAVSP2Packet@@@Z ; ioElevator::OnElevatorChanged
$LN51@OnElevator:
  00052	5e		 pop	 esi
$LN2@OnElevator:
  00053	5f		 pop	 edi

; 199  : 			break;
; 200  : 		}
; 201  : 	}
; 202  : }

  00054	c9		 leave
  00055	c2 04 00	 ret	 4
?OnElevatorChanged@ioWorldEntityFactory@@QAEXAAVSP2Packet@@@Z ENDP ; ioWorldEntityFactory::OnElevatorChanged
_TEXT	ENDS
PUBLIC	__$ArrayPad$
PUBLIC	?ApplyElevatorStateInfo@ioWorldEntityFactory@@QAEXAAVSP2Packet@@@Z ; ioWorldEntityFactory::ApplyElevatorStateInfo
EXTRN	?ApplyCurElevatorInfo@ioElevator@@QAEXAAVSP2Packet@@@Z:PROC ; ioElevator::ApplyCurElevatorInfo
EXTRN	??5SP2Packet@@QAEAAV0@AAUD3DXVECTOR3@@@Z:PROC	; SP2Packet::operator>>
EXTRN	??5SP2Packet@@QAEAAV0@AAH@Z:PROC		; SP2Packet::operator>>
; Function compile flags: /Ogsp
;	COMDAT ?ApplyElevatorStateInfo@ioWorldEntityFactory@@QAEXAAVSP2Packet@@@Z
_TEXT	SEGMENT
_iTime2$513090 = -40					; size = 4
_iTime1$513089 = -36					; size = 4
_iState$513088 = -32					; size = 4
_dwIndex$513077 = -28					; size = 4
_i$513073 = -24						; size = 4
_iCnt$ = -20						; size = 4
_vPos$513091 = -16					; size = 12
__$ArrayPad$ = -4					; size = 4
_rkPacket$ = 8						; size = 4
?ApplyElevatorStateInfo@ioWorldEntityFactory@@QAEXAAVSP2Packet@@@Z PROC ; ioWorldEntityFactory::ApplyElevatorStateInfo, COMDAT
; _this$ = ecx

; 244  : {

  00000	55		 push	 ebp
  00001	8b ec		 mov	 ebp, esp
  00003	83 ec 28	 sub	 esp, 40			; 00000028H
  00006	a1 00 00 00 00	 mov	 eax, DWORD PTR ___security_cookie
  0000b	33 c5		 xor	 eax, ebp
  0000d	89 45 fc	 mov	 DWORD PTR __$ArrayPad$[ebp], eax
  00010	53		 push	 ebx
  00011	57		 push	 edi
  00012	8b 7d 08	 mov	 edi, DWORD PTR _rkPacket$[ebp]

; 245  : 	int iCnt;
; 246  : 	rkPacket >> iCnt;

  00015	8d 45 ec	 lea	 eax, DWORD PTR _iCnt$[ebp]
  00018	8b d9		 mov	 ebx, ecx
  0001a	50		 push	 eax
  0001b	8b cf		 mov	 ecx, edi
  0001d	e8 00 00 00 00	 call	 ??5SP2Packet@@QAEAAV0@AAH@Z ; SP2Packet::operator>>

; 247  : 
; 248  : 	if( iCnt == 0 ) return;

  00022	33 c0		 xor	 eax, eax
  00024	39 45 ec	 cmp	 DWORD PTR _iCnt$[ebp], eax
  00027	74 75		 je	 SHORT $LN6@ApplyEleva

; 249  : 
; 250  : 	for( int i=0; i < iCnt; ++i )

  00029	89 45 e8	 mov	 DWORD PTR _i$513073[ebp], eax
  0002c	7e 70		 jle	 SHORT $LN6@ApplyEleva
  0002e	56		 push	 esi
$LL60@ApplyEleva:

; 251  : 	{
; 252  : 		DWORD dwIndex = 0;

  0002f	83 65 e4 00	 and	 DWORD PTR _dwIndex$513077[ebp], 0

; 253  : 
; 254  : 		rkPacket >> dwIndex;

  00033	8d 45 e4	 lea	 eax, DWORD PTR _dwIndex$513077[ebp]
  00036	50		 push	 eax
  00037	8b cf		 mov	 ecx, edi
  00039	e8 00 00 00 00	 call	 ??5SP2Packet@@QAEAAV0@AAK@Z ; SP2Packet::operator>>

; 255  : 
; 256  : 		bool bFind = false;
; 257  : 		PlayEntityList::iterator iter = m_WorldEntityList.begin();

  0003e	8b 43 04	 mov	 eax, DWORD PTR [ebx+4]
  00041	8b 30		 mov	 esi, DWORD PTR [eax]

; 258  : 		for( ; iter!=m_WorldEntityList.end() ; ++iter )

  00043	3b f0		 cmp	 esi, eax
  00045	74 1f		 je	 SHORT $LN59@ApplyEleva
$LL26@ApplyEleva:

; 259  : 		{
; 260  : 			ioElevator *pElevator = ToElevator( *iter );

  00047	ff 76 08	 push	 DWORD PTR [esi+8]
  0004a	e8 00 00 00 00	 call	 ?ToElevator@@YAPAVioElevator@@PAVioGameEntity@@@Z ; ToElevator
  0004f	59		 pop	 ecx

; 261  : 			if( pElevator && pElevator->GetCreateIndex() == dwIndex )

  00050	85 c0		 test	 eax, eax
  00052	74 0b		 je	 SHORT $LN4@ApplyEleva
  00054	8b 88 c8 01 00
	00		 mov	 ecx, DWORD PTR [eax+456]
  0005a	3b 4d e4	 cmp	 ecx, DWORD PTR _dwIndex$513077[ebp]
  0005d	74 4f		 je	 SHORT $LN56@ApplyEleva
$LN4@ApplyEleva:

; 258  : 		for( ; iter!=m_WorldEntityList.end() ; ++iter )

  0005f	8b 36		 mov	 esi, DWORD PTR [esi]
  00061	3b 73 04	 cmp	 esi, DWORD PTR [ebx+4]
  00064	75 e1		 jne	 SHORT $LL26@ApplyEleva
$LN59@ApplyEleva:

; 270  : 		{
; 271  : 			int iState, iTime1, iTime2;
; 272  : 			D3DXVECTOR3 vPos;
; 273  : 
; 274  : 			rkPacket >> iState;

  00066	8d 45 e0	 lea	 eax, DWORD PTR _iState$513088[ebp]
  00069	50		 push	 eax
  0006a	8b cf		 mov	 ecx, edi
  0006c	e8 00 00 00 00	 call	 ??5SP2Packet@@QAEAAV0@AAH@Z ; SP2Packet::operator>>

; 275  : 			rkPacket >> vPos;

  00071	8d 45 f0	 lea	 eax, DWORD PTR _vPos$513091[ebp]
  00074	50		 push	 eax
  00075	8b cf		 mov	 ecx, edi
  00077	e8 00 00 00 00	 call	 ??5SP2Packet@@QAEAAV0@AAUD3DXVECTOR3@@@Z ; SP2Packet::operator>>

; 276  : 			rkPacket >> iTime1 >> iTime2;

  0007c	8d 45 d8	 lea	 eax, DWORD PTR _iTime2$513090[ebp]
  0007f	50		 push	 eax
  00080	8d 45 dc	 lea	 eax, DWORD PTR _iTime1$513089[ebp]
  00083	50		 push	 eax
  00084	8b cf		 mov	 ecx, edi
  00086	e8 00 00 00 00	 call	 ??5SP2Packet@@QAEAAV0@AAH@Z ; SP2Packet::operator>>
  0008b	8b c8		 mov	 ecx, eax
  0008d	e8 00 00 00 00	 call	 ??5SP2Packet@@QAEAAV0@AAH@Z ; SP2Packet::operator>>
$LN7@ApplyEleva:

; 249  : 
; 250  : 	for( int i=0; i < iCnt; ++i )

  00092	ff 45 e8	 inc	 DWORD PTR _i$513073[ebp]
  00095	8b 45 e8	 mov	 eax, DWORD PTR _i$513073[ebp]
  00098	3b 45 ec	 cmp	 eax, DWORD PTR _iCnt$[ebp]
  0009b	7c 92		 jl	 SHORT $LL60@ApplyEleva
  0009d	5e		 pop	 esi
$LN6@ApplyEleva:

; 277  : 		}
; 278  : 	}
; 279  : }

  0009e	8b 4d fc	 mov	 ecx, DWORD PTR __$ArrayPad$[ebp]
  000a1	5f		 pop	 edi
  000a2	33 cd		 xor	 ecx, ebp
  000a4	5b		 pop	 ebx
  000a5	e8 00 00 00 00	 call	 @__security_check_cookie@4
  000aa	c9		 leave
  000ab	c2 04 00	 ret	 4
$LN56@ApplyEleva:

; 262  : 			{
; 263  : 				pElevator->ApplyCurElevatorInfo( rkPacket );

  000ae	57		 push	 edi
  000af	8b c8		 mov	 ecx, eax
  000b1	e8 00 00 00 00	 call	 ?ApplyCurElevatorInfo@ioElevator@@QAEXAAVSP2Packet@@@Z ; ioElevator::ApplyCurElevatorInfo

; 264  : 				bFind = true;
; 265  : 				break;
; 266  : 			}
; 267  : 		}
; 268  : 
; 269  : 		if( !bFind )

  000b6	eb da		 jmp	 SHORT $LN7@ApplyEleva
?ApplyElevatorStateInfo@ioWorldEntityFactory@@QAEXAAVSP2Packet@@@Z ENDP ; ioWorldEntityFactory::ApplyElevatorStateInfo
_TEXT	ENDS
PUBLIC	??1?$list@PAVioPlayEntity@@V?$allocator@PAVioPlayEntity@@@std@@@std@@QAE@XZ ; std::list<ioPlayEntity *,std::allocator<ioPlayEntity *> >::~list<ioPlayEntity *,std::allocator<ioPlayEntity *> >
; Function compile flags: /Ogsp
; File c:\program files (x86)\microsoft visual studio 10.0\vc\include\list
;	COMDAT ??1?$list@PAVioPlayEntity@@V?$allocator@PAVioPlayEntity@@@std@@@std@@QAE@XZ
_TEXT	SEGMENT
??1?$list@PAVioPlayEntity@@V?$allocator@PAVioPlayEntity@@@std@@@std@@QAE@XZ PROC ; std::list<ioPlayEntity *,std::allocator<ioPlayEntity *> >::~list<ioPlayEntity *,std::allocator<ioPlayEntity *> >, COMDAT
; _this$ = ecx

; 769  : 		{	// destroy the object

  00000	56		 push	 esi
  00001	8b f1		 mov	 esi, ecx

; 770  : 		_Tidy();

  00003	e8 00 00 00 00	 call	 ?clear@?$list@PAVioPlayEntity@@V?$allocator@PAVioPlayEntity@@@std@@@std@@QAEXXZ ; std::list<ioPlayEntity *,std::allocator<ioPlayEntity *> >::clear

; 771  : 		}

  00008	ff 36		 push	 DWORD PTR [esi]
  0000a	e8 00 00 00 00	 call	 ??3@YAXPAX@Z		; operator delete
  0000f	59		 pop	 ecx
  00010	5e		 pop	 esi
  00011	c3		 ret	 0
??1?$list@PAVioPlayEntity@@V?$allocator@PAVioPlayEntity@@@std@@@std@@QAE@XZ ENDP ; std::list<ioPlayEntity *,std::allocator<ioPlayEntity *> >::~list<ioPlayEntity *,std::allocator<ioPlayEntity *> >
_TEXT	ENDS
PUBLIC	?push_back@?$list@PAVioPlayEntity@@V?$allocator@PAVioPlayEntity@@@std@@@std@@QAEXABQAVioPlayEntity@@@Z ; std::list<ioPlayEntity *,std::allocator<ioPlayEntity *> >::push_back
; Function compile flags: /Ogsp
;	COMDAT ?push_back@?$list@PAVioPlayEntity@@V?$allocator@PAVioPlayEntity@@@std@@@std@@QAEXABQAVioPlayEntity@@@Z
_TEXT	SEGMENT
__Val$ = 8						; size = 4
?push_back@?$list@PAVioPlayEntity@@V?$allocator@PAVioPlayEntity@@@std@@@std@@QAEXABQAVioPlayEntity@@@Z PROC ; std::list<ioPlayEntity *,std::allocator<ioPlayEntity *> >::push_back, COMDAT
; _this$ = ecx

; 926  : 		{	// insert element at end

  00000	55		 push	 ebp
  00001	8b ec		 mov	 ebp, esp

; 927  : 		_Insert(end(), _Val);

  00003	ff 75 08	 push	 DWORD PTR __Val$[ebp]
  00006	8b 01		 mov	 eax, DWORD PTR [ecx]
  00008	50		 push	 eax
  00009	e8 00 00 00 00	 call	 ?_Insert@?$list@PAVioPlayEntity@@V?$allocator@PAVioPlayEntity@@@std@@@std@@QAEXV?$_List_const_iterator@V?$_List_val@PAVioPlayEntity@@V?$allocator@PAVioPlayEntity@@@std@@@std@@@2@ABQAVioPlayEntity@@@Z ; std::list<ioPlayEntity *,std::allocator<ioPlayEntity *> >::_Insert

; 928  : 		}

  0000e	5d		 pop	 ebp
  0000f	c2 04 00	 ret	 4
?push_back@?$list@PAVioPlayEntity@@V?$allocator@PAVioPlayEntity@@@std@@@std@@QAEXABQAVioPlayEntity@@@Z ENDP ; std::list<ioPlayEntity *,std::allocator<ioPlayEntity *> >::push_back
_TEXT	ENDS
PUBLIC	??_7ioWorldEntityFactory@@6B@			; ioWorldEntityFactory::`vftable'
PUBLIC	??0ioWorldEntityFactory@@QAE@PAVioPlayStage@@@Z	; ioWorldEntityFactory::ioWorldEntityFactory
PUBLIC	??_R4ioWorldEntityFactory@@6B@			; ioWorldEntityFactory::`RTTI Complete Object Locator'
PUBLIC	??_R0?AVioWorldEntityFactory@@@8		; ioWorldEntityFactory `RTTI Type Descriptor'
PUBLIC	??_R3ioWorldEntityFactory@@8			; ioWorldEntityFactory::`RTTI Class Hierarchy Descriptor'
PUBLIC	??_R2ioWorldEntityFactory@@8			; ioWorldEntityFactory::`RTTI Base Class Array'
PUBLIC	??_R1A@?0A@EA@ioWorldEntityFactory@@8		; ioWorldEntityFactory::`RTTI Base Class Descriptor at (0,-1,0,64)'
EXTRN	??_EioWorldEntityFactory@@UAEPAXI@Z:PROC	; ioWorldEntityFactory::`vector deleting destructor'
;	COMDAT ??_R1A@?0A@EA@ioWorldEntityFactory@@8
; File c:\program files (x86)\microsoft visual studio 10.0\vc\include\xmemory
rdata$r	SEGMENT
??_R1A@?0A@EA@ioWorldEntityFactory@@8 DD FLAT:??_R0?AVioWorldEntityFactory@@@8 ; ioWorldEntityFactory::`RTTI Base Class Descriptor at (0,-1,0,64)'
	DD	00H
	DD	00H
	DD	0ffffffffH
	DD	00H
	DD	040H
	DD	FLAT:??_R3ioWorldEntityFactory@@8
rdata$r	ENDS
;	COMDAT ??_R2ioWorldEntityFactory@@8
rdata$r	SEGMENT
??_R2ioWorldEntityFactory@@8 DD FLAT:??_R1A@?0A@EA@ioWorldEntityFactory@@8 ; ioWorldEntityFactory::`RTTI Base Class Array'
rdata$r	ENDS
;	COMDAT ??_R3ioWorldEntityFactory@@8
rdata$r	SEGMENT
??_R3ioWorldEntityFactory@@8 DD 00H			; ioWorldEntityFactory::`RTTI Class Hierarchy Descriptor'
	DD	00H
	DD	01H
	DD	FLAT:??_R2ioWorldEntityFactory@@8
rdata$r	ENDS
;	COMDAT ??_R0?AVioWorldEntityFactory@@@8
_DATA	SEGMENT
??_R0?AVioWorldEntityFactory@@@8 DD FLAT:??_7type_info@@6B@ ; ioWorldEntityFactory `RTTI Type Descriptor'
	DD	00H
	DB	'.?AVioWorldEntityFactory@@', 00H
_DATA	ENDS
;	COMDAT ??_R4ioWorldEntityFactory@@6B@
rdata$r	SEGMENT
??_R4ioWorldEntityFactory@@6B@ DD 00H			; ioWorldEntityFactory::`RTTI Complete Object Locator'
	DD	00H
	DD	00H
	DD	FLAT:??_R0?AVioWorldEntityFactory@@@8
	DD	FLAT:??_R3ioWorldEntityFactory@@8
rdata$r	ENDS
;	COMDAT ??_7ioWorldEntityFactory@@6B@
CONST	SEGMENT
??_7ioWorldEntityFactory@@6B@ DD FLAT:??_R4ioWorldEntityFactory@@6B@ ; ioWorldEntityFactory::`vftable'
	DD	FLAT:??_EioWorldEntityFactory@@UAEPAXI@Z
; Function compile flags: /Ogsp
; File d:\lost saga for developer\youtube\tutorial\source\src\lsclient\ioworldentityfactory.cpp
CONST	ENDS
;	COMDAT ??0ioWorldEntityFactory@@QAE@PAVioPlayStage@@@Z
_TEXT	SEGMENT
$T515038 = -4						; size = 4
$T515041 = -4						; size = 4
_pCreator$ = 8						; size = 4
??0ioWorldEntityFactory@@QAE@PAVioPlayStage@@@Z PROC	; ioWorldEntityFactory::ioWorldEntityFactory, COMDAT
; _this$ = ecx

; 17   : {

  00000	55		 push	 ebp
  00001	8b ec		 mov	 ebp, esp
  00003	51		 push	 ecx
  00004	56		 push	 esi
  00005	8b f1		 mov	 esi, ecx
  00007	8d 4e 04	 lea	 ecx, DWORD PTR [esi+4]
  0000a	51		 push	 ecx
  0000b	89 65 fc	 mov	 DWORD PTR $T515041[ebp], esp
  0000e	c7 06 00 00 00
	00		 mov	 DWORD PTR [esi], OFFSET ??_7ioWorldEntityFactory@@6B@
  00014	89 65 fc	 mov	 DWORD PTR $T515038[ebp], esp
  00017	e8 00 00 00 00	 call	 ??0?$_List_val@PAVioPlayEntity@@V?$allocator@PAVioPlayEntity@@@std@@@std@@QAE@V?$allocator@PAVioPlayEntity@@@1@@Z ; std::_List_val<ioPlayEntity *,std::allocator<ioPlayEntity *> >::_List_val<ioPlayEntity *,std::allocator<ioPlayEntity *> >

; 18   : 	m_pCreator = pCreator;

  0001c	8b 45 08	 mov	 eax, DWORD PTR _pCreator$[ebp]
  0001f	89 46 10	 mov	 DWORD PTR [esi+16], eax

; 19   : 	m_bElevationSyncStart = false;

  00022	c6 46 14 00	 mov	 BYTE PTR [esi+20], 0

; 20   : }

  00026	8b c6		 mov	 eax, esi
  00028	5e		 pop	 esi
  00029	c9		 leave
  0002a	c2 04 00	 ret	 4
??0ioWorldEntityFactory@@QAE@PAVioPlayStage@@@Z ENDP	; ioWorldEntityFactory::ioWorldEntityFactory
_TEXT	ENDS
PUBLIC	??1ioWorldEntityFactory@@UAE@XZ			; ioWorldEntityFactory::~ioWorldEntityFactory
; Function compile flags: /Ogsp
;	COMDAT ??1ioWorldEntityFactory@@UAE@XZ
_TEXT	SEGMENT
??1ioWorldEntityFactory@@UAE@XZ PROC			; ioWorldEntityFactory::~ioWorldEntityFactory, COMDAT
; _this$ = ecx

; 23   : {

  00000	56		 push	 esi

; 24   : }

  00001	8d 71 04	 lea	 esi, DWORD PTR [ecx+4]
  00004	c7 01 00 00 00
	00		 mov	 DWORD PTR [ecx], OFFSET ??_7ioWorldEntityFactory@@6B@
  0000a	8b ce		 mov	 ecx, esi
  0000c	e8 00 00 00 00	 call	 ?clear@?$list@PAVioPlayEntity@@V?$allocator@PAVioPlayEntity@@@std@@@std@@QAEXXZ ; std::list<ioPlayEntity *,std::allocator<ioPlayEntity *> >::clear
  00011	ff 36		 push	 DWORD PTR [esi]
  00013	e8 00 00 00 00	 call	 ??3@YAXPAX@Z		; operator delete
  00018	59		 pop	 ecx
  00019	5e		 pop	 esi
  0001a	c3		 ret	 0
??1ioWorldEntityFactory@@UAE@XZ ENDP			; ioWorldEntityFactory::~ioWorldEntityFactory
_TEXT	ENDS
PUBLIC	??_C@_00CNPNBAHC@?$AA@				; `string'
PUBLIC	??_C@_0DL@MPGKEKNH@ioWorldEntityFactor?3?3CreateWorld@ ; `string'
PUBLIC	_iCreateIndex$GSCopy$
PUBLIC	__$ArrayPad$
PUBLIC	?CreateWorldEntity@ioWorldEntityFactory@@QAEPAVioPlayEntity@@AAVioINILoader@@H@Z ; ioWorldEntityFactory::CreateWorldEntity
;	COMDAT ??_C@_00CNPNBAHC@?$AA@
; File c:\program files (x86)\microsoft visual studio 10.0\vc\include\xutility
CONST	SEGMENT
??_C@_00CNPNBAHC@?$AA@ DB 00H				; `string'
CONST	ENDS
;	COMDAT ??_C@_0DL@MPGKEKNH@ioWorldEntityFactor?3?3CreateWorld@
CONST	SEGMENT
??_C@_0DL@MPGKEKNH@ioWorldEntityFactor?3?3CreateWorld@ DB 'ioWorldEntityF'
	DB	'actor::CreateWorldEntity - %d Unknown Entity', 00H ; `string'
; Function compile flags: /Ogsp
; File d:\lost saga for developer\youtube\tutorial\source\src\lsclient\ioworldentityfactory.cpp
CONST	ENDS
;	COMDAT ?CreateWorldEntity@ioWorldEntityFactory@@QAEPAVioPlayEntity@@AAVioINILoader@@H@Z
_TEXT	SEGMENT
_iSubType$ = -288					; size = 4
_iCreateIndex$GSCopy$ = -284				; size = 4
_pEntity$ = -284					; size = 4
_szFileName$ = -280					; size = 260
__k$515227 = -20					; size = 11
__k$515102 = -20					; size = 12
__$ArrayPad$ = -4					; size = 4
_rkLoader$ = 8						; size = 4
_iCreateIndex$ = 12					; size = 4
?CreateWorldEntity@ioWorldEntityFactory@@QAEPAVioPlayEntity@@AAVioINILoader@@H@Z PROC ; ioWorldEntityFactory::CreateWorldEntity, COMDAT
; _this$ = ecx

; 27   : {

  00000	55		 push	 ebp
  00001	8b ec		 mov	 ebp, esp
  00003	81 ec 20 01 00
	00		 sub	 esp, 288		; 00000120H
  00009	a1 00 00 00 00	 mov	 eax, DWORD PTR ___security_cookie
  0000e	33 c5		 xor	 eax, ebp
  00010	89 45 fc	 mov	 DWORD PTR __$ArrayPad$[ebp], eax
  00013	8b 45 0c	 mov	 eax, DWORD PTR _iCreateIndex$[ebp]
  00016	53		 push	 ebx
  00017	56		 push	 esi
  00018	57		 push	 edi
  00019	8b 7d 08	 mov	 edi, DWORD PTR _rkLoader$[ebp]

; 28   : 	int iSubType = rkLoader.LoadInt_e( "entity_type", -1 );

  0001c	6a 02		 push	 2
  0001e	8b d9		 mov	 ebx, ecx

; 40   : 	{
; 41   : 		pEntity->LoadProperty( rkLoader );

  00020	89 85 e4 fe ff
	ff		 mov	 DWORD PTR _iCreateIndex$GSCopy$[ebp], eax
  00026	c7 45 ec 88 82
	9f 83		 mov	 DWORD PTR __k$515102[ebp], -2086698360 ; 839f8288H
  0002d	c7 45 f0 99 95
	b4 9e		 mov	 DWORD PTR __k$515102[ebp+4], -1632332391 ; 9eb49599H
  00034	8d 45 ec	 lea	 eax, DWORD PTR __k$515102[ebp]
  00037	c7 45 f4 94 9c
	8e 00		 mov	 DWORD PTR __k$515102[ebp+8], 9346196 ; 008e9c94H
  0003e	59		 pop	 ecx
  0003f	be ed ec eb ea	 mov	 esi, -353637139		; eaebecedH
$LL108@CreateWorl:

; 28   : 	int iSubType = rkLoader.LoadInt_e( "entity_type", -1 );

  00044	31 30		 xor	 DWORD PTR [eax], esi
  00046	83 c0 04	 add	 eax, 4
  00049	49		 dec	 ecx
  0004a	75 f8		 jne	 SHORT $LL108@CreateWorl
  0004c	6a 08		 push	 8
  0004e	58		 pop	 eax
$LL105@CreateWorl:
  0004f	8b c8		 mov	 ecx, eax
  00051	81 e1 03 00 00
	80		 and	 ecx, -2147483645	; 80000003H
  00057	79 05		 jns	 SHORT $LN238@CreateWorl
  00059	49		 dec	 ecx
  0005a	83 c9 fc	 or	 ecx, -4			; fffffffcH
  0005d	41		 inc	 ecx
$LN238@CreateWorl:
  0005e	b2 ed		 mov	 dl, -19			; ffffffedH
  00060	2a d1		 sub	 dl, cl
  00062	30 54 05 ec	 xor	 BYTE PTR __k$515102[ebp+eax], dl
  00066	40		 inc	 eax
  00067	83 f8 0b	 cmp	 eax, 11			; 0000000bH
  0006a	7c e3		 jl	 SHORT $LL105@CreateWorl
  0006c	6a ff		 push	 -1
  0006e	8d 45 ec	 lea	 eax, DWORD PTR __k$515102[ebp]
  00071	50		 push	 eax
  00072	8b cf		 mov	 ecx, edi
  00074	ff 15 00 00 00
	00		 call	 DWORD PTR __imp_?LoadInt@ioINILoader@@QAEHPBDH@Z

; 29   : 	if( !IsKnownSubType( iSubType ) )

  0007a	50		 push	 eax
  0007b	8b cb		 mov	 ecx, ebx
  0007d	89 85 e0 fe ff
	ff		 mov	 DWORD PTR _iSubType$[ebp], eax
  00083	e8 00 00 00 00	 call	 ?IsKnownSubType@ioWorldEntityFactory@@IBE_NH@Z ; ioWorldEntityFactory::IsKnownSubType
  00088	84 c0		 test	 al, al
  0008a	75 23		 jne	 SHORT $LN237@CreateWorl

; 30   : 	{
; 31   : 		LOG.PrintTimeAndLog( 0, "ioWorldEntityFactor::CreateWorldEntity - %d Unknown Entity", iSubType );

  0008c	ff b5 e0 fe ff
	ff		 push	 DWORD PTR _iSubType$[ebp]
  00092	68 00 00 00 00	 push	 OFFSET ??_C@_0DL@MPGKEKNH@ioWorldEntityFactor?3?3CreateWorld@
  00097	6a 00		 push	 0
  00099	ff 35 00 00 00
	00		 push	 DWORD PTR __imp_?LOG@@3VCLog@@A
  0009f	ff 15 00 00 00
	00		 call	 DWORD PTR __imp_?PrintTimeAndLog@CLog@@QAAXHPADZZ
  000a5	83 c4 10	 add	 esp, 16			; 00000010H

; 32   : 		return NULL;

  000a8	33 c0		 xor	 eax, eax
  000aa	e9 a8 00 00 00	 jmp	 $LN3@CreateWorl
$LN237@CreateWorl:

; 33   : 	}
; 34   : 
; 35   : 	char szFileName[MAX_PATH];
; 36   : 	rkLoader.LoadString_e( "model_file", "", szFileName, MAX_PATH );

  000af	6a 02		 push	 2
  000b1	c7 45 ec 80 83
	8f 8f		 mov	 DWORD PTR __k$515227[ebp], -1886420096 ; 8f8f8380H
  000b8	c7 45 f0 81 b3
	8d 83		 mov	 DWORD PTR __k$515227[ebp+4], -2087865471 ; 838db381H
  000bf	66 c7 45 f4 81
	89		 mov	 WORD PTR __k$515227[ebp+8], 35201 ; 00008981H
  000c5	8d 45 ec	 lea	 eax, DWORD PTR __k$515227[ebp]
  000c8	c6 45 f6 00	 mov	 BYTE PTR __k$515227[ebp+10], 0
  000cc	59		 pop	 ecx
$LL214@CreateWorl:
  000cd	31 30		 xor	 DWORD PTR [eax], esi
  000cf	83 c0 04	 add	 eax, 4
  000d2	49		 dec	 ecx
  000d3	75 f8		 jne	 SHORT $LL214@CreateWorl
  000d5	6a 08		 push	 8
  000d7	58		 pop	 eax
$LL211@CreateWorl:
  000d8	8b c8		 mov	 ecx, eax
  000da	81 e1 03 00 00
	80		 and	 ecx, -2147483645	; 80000003H
  000e0	79 05		 jns	 SHORT $LN239@CreateWorl
  000e2	49		 dec	 ecx
  000e3	83 c9 fc	 or	 ecx, -4			; fffffffcH
  000e6	41		 inc	 ecx
$LN239@CreateWorl:
  000e7	b2 ed		 mov	 dl, -19			; ffffffedH
  000e9	2a d1		 sub	 dl, cl
  000eb	30 54 05 ec	 xor	 BYTE PTR __k$515227[ebp+eax], dl
  000ef	40		 inc	 eax
  000f0	83 f8 0a	 cmp	 eax, 10			; 0000000aH
  000f3	7c e3		 jl	 SHORT $LL211@CreateWorl
  000f5	68 04 01 00 00	 push	 260			; 00000104H
  000fa	8d 85 e8 fe ff
	ff		 lea	 eax, DWORD PTR _szFileName$[ebp]
  00100	50		 push	 eax
  00101	68 00 00 00 00	 push	 OFFSET ??_C@_00CNPNBAHC@?$AA@
  00106	8d 45 ec	 lea	 eax, DWORD PTR __k$515227[ebp]
  00109	50		 push	 eax
  0010a	8b cf		 mov	 ecx, edi
  0010c	ff 15 00 00 00
	00		 call	 DWORD PTR __imp_?LoadStringA@ioINILoader@@QAEXPBD0PADH@Z

; 37   : 	
; 38   : 	ioPlayEntity *pEntity = CreateSubEntity( iSubType, szFileName, iCreateIndex );

  00112	ff b5 e4 fe ff
	ff		 push	 DWORD PTR _iCreateIndex$GSCopy$[ebp]
  00118	8d 85 e8 fe ff
	ff		 lea	 eax, DWORD PTR _szFileName$[ebp]
  0011e	50		 push	 eax
  0011f	ff b5 e0 fe ff
	ff		 push	 DWORD PTR _iSubType$[ebp]
  00125	8b cb		 mov	 ecx, ebx
  00127	e8 00 00 00 00	 call	 ?CreateSubEntity@ioWorldEntityFactory@@IAEPAVioPlayEntity@@HPBDH@Z ; ioWorldEntityFactory::CreateSubEntity
  0012c	8b f0		 mov	 esi, eax
  0012e	89 b5 e4 fe ff
	ff		 mov	 DWORD PTR _pEntity$[ebp], esi

; 39   : 	if( pEntity )

  00134	85 f6		 test	 esi, esi
  00136	74 1d		 je	 SHORT $LN217@CreateWorl

; 40   : 	{
; 41   : 		pEntity->LoadProperty( rkLoader );

  00138	8b 06		 mov	 eax, DWORD PTR [esi]
  0013a	57		 push	 edi
  0013b	8b ce		 mov	 ecx, esi
  0013d	ff 90 b4 00 00
	00		 call	 DWORD PTR [eax+180]

; 42   : 		m_WorldEntityList.push_back( pEntity );

  00143	8d 4b 04	 lea	 ecx, DWORD PTR [ebx+4]
  00146	8b 01		 mov	 eax, DWORD PTR [ecx]
  00148	8d 95 e4 fe ff
	ff		 lea	 edx, DWORD PTR _pEntity$[ebp]
  0014e	52		 push	 edx
  0014f	50		 push	 eax
  00150	e8 00 00 00 00	 call	 ?_Insert@?$list@PAVioPlayEntity@@V?$allocator@PAVioPlayEntity@@@std@@@std@@QAEXV?$_List_const_iterator@V?$_List_val@PAVioPlayEntity@@V?$allocator@PAVioPlayEntity@@@std@@@std@@@2@ABQAVioPlayEntity@@@Z ; std::list<ioPlayEntity *,std::allocator<ioPlayEntity *> >::_Insert
$LN217@CreateWorl:

; 43   : 	}
; 44   : 	
; 45   : 	return pEntity;

  00155	8b c6		 mov	 eax, esi
$LN3@CreateWorl:

; 46   : }

  00157	8b 4d fc	 mov	 ecx, DWORD PTR __$ArrayPad$[ebp]
  0015a	5f		 pop	 edi
  0015b	5e		 pop	 esi
  0015c	33 cd		 xor	 ecx, ebp
  0015e	5b		 pop	 ebx
  0015f	e8 00 00 00 00	 call	 @__security_check_cookie@4
  00164	c9		 leave
  00165	c2 08 00	 ret	 8
?CreateWorldEntity@ioWorldEntityFactory@@QAEPAVioPlayEntity@@AAVioINILoader@@H@Z ENDP ; ioWorldEntityFactory::CreateWorldEntity
_TEXT	ENDS
PUBLIC	_rkPacket$GSCopy$
PUBLIC	_this$GSCopy$
PUBLIC	?FillElevatorStateInfo@ioWorldEntityFactory@@QAEXAAVSP2Packet@@@Z ; ioWorldEntityFactory::FillElevatorStateInfo
EXTRN	??6SP2Packet@@QAEAAV0@ABUD3DXVECTOR3@@@Z:PROC	; SP2Packet::operator<<
EXTRN	?FillCurElevatorInfo@ioElevator@@QAEXAAVSP2Packet@@@Z:PROC ; ioElevator::FillCurElevatorInfo
EXTRN	??6SP2Packet@@QAEAAV0@H@Z:PROC			; SP2Packet::operator<<
EXTRN	__EH_epilog3_GS:PROC
EXTRN	__EH_prolog3_GS:PROC
;	COMDAT xdata$x
; File c:\program files (x86)\microsoft visual studio 10.0\vc\include\xmemory
xdata$x	SEGMENT
__unwindtable$?FillElevatorStateInfo@ioWorldEntityFactory@@QAEXAAVSP2Packet@@@Z DD 0ffffffffH
	DD	FLAT:__unwindfunclet$?FillElevatorStateInfo@ioWorldEntityFactory@@QAEXAAVSP2Packet@@@Z$0
__ehfuncinfo$?FillElevatorStateInfo@ioWorldEntityFactory@@QAEXAAVSP2Packet@@@Z DD 019930522H
	DD	01H
	DD	FLAT:__unwindtable$?FillElevatorStateInfo@ioWorldEntityFactory@@QAEXAAVSP2Packet@@@Z
	DD	2 DUP(00H)
	DD	2 DUP(00H)
	DD	00H
	DD	01H
; Function compile flags: /Ogsp
; File d:\lost saga for developer\youtube\tutorial\source\src\lsclient\ioworldentityfactory.cpp
xdata$x	ENDS
;	COMDAT ?FillElevatorStateInfo@ioWorldEntityFactory@@QAEXAAVSP2Packet@@@Z
_TEXT	SEGMENT
_this$GSCopy$ = -52					; size = 4
_rkPacket$GSCopy$ = -48					; size = 4
_vElevatorList$ = -44					; size = 12
$T515405 = -32						; size = 4
$T515408 = -32						; size = 4
_pEntity$513053 = -32					; size = 4
$T513066 = -28						; size = 12
__$EHRec$ = -12						; size = 12
_rkPacket$ = 8						; size = 4
?FillElevatorStateInfo@ioWorldEntityFactory@@QAEXAAVSP2Packet@@@Z PROC ; ioWorldEntityFactory::FillElevatorStateInfo, COMDAT
; _this$ = ecx

; 205  : {

  00000	6a 28		 push	 40			; 00000028H
  00002	b8 00 00 00 00	 mov	 eax, __ehhandler$?FillElevatorStateInfo@ioWorldEntityFactory@@QAEXAAVSP2Packet@@@Z
  00007	e8 00 00 00 00	 call	 __EH_prolog3_GS
  0000c	8b 5d 08	 mov	 ebx, DWORD PTR _rkPacket$[ebp]

; 206  : 	PlayEntityList vElevatorList;

  0000f	51		 push	 ecx
  00010	8b f9		 mov	 edi, ecx
  00012	89 65 e0	 mov	 DWORD PTR $T515408[ebp], esp
  00015	8d 4d d4	 lea	 ecx, DWORD PTR _vElevatorList$[ebp]

; 215  : 			vElevatorList.push_back( pEntity );

  00018	89 7d cc	 mov	 DWORD PTR _this$GSCopy$[ebp], edi
  0001b	89 5d d0	 mov	 DWORD PTR _rkPacket$GSCopy$[ebp], ebx
  0001e	89 65 e0	 mov	 DWORD PTR $T515405[ebp], esp
  00021	e8 00 00 00 00	 call	 ??0?$_List_val@PAVioPlayEntity@@V?$allocator@PAVioPlayEntity@@@std@@@std@@QAE@V?$allocator@PAVioPlayEntity@@@1@@Z ; std::_List_val<ioPlayEntity *,std::allocator<ioPlayEntity *> >::_List_val<ioPlayEntity *,std::allocator<ioPlayEntity *> >
  00026	8b 47 04	 mov	 eax, DWORD PTR [edi+4]
  00029	8b 30		 mov	 esi, DWORD PTR [eax]
  0002b	83 65 fc 00	 and	 DWORD PTR __$EHRec$[ebp+8], 0
  0002f	3b f0		 cmp	 esi, eax
  00031	74 46		 je	 SHORT $LN6@FillElevat

; 207  : 
; 208  : 	PlayEntityList::iterator iter = m_WorldEntityList.begin();
; 209  : 	for( ; iter!=m_WorldEntityList.end() ; ++iter )

$LL31@FillElevat:

; 210  : 	{
; 211  : 		ioPlayEntity *pEntity = *iter;

  00033	8b 46 08	 mov	 eax, DWORD PTR [esi+8]

; 212  : 
; 213  : 		ioElevator *pElevator = ToElevator( pEntity );

  00036	50		 push	 eax
  00037	89 45 e0	 mov	 DWORD PTR _pEntity$513053[ebp], eax
  0003a	e8 00 00 00 00	 call	 ?ToElevator@@YAPAVioElevator@@PAVioGameEntity@@@Z ; ToElevator
  0003f	59		 pop	 ecx

; 214  : 		if( pElevator )

  00040	85 c0		 test	 eax, eax
  00042	74 2e		 je	 SHORT $LN7@FillElevat

; 215  : 			vElevatorList.push_back( pEntity );

  00044	8b 45 d4	 mov	 eax, DWORD PTR _vElevatorList$[ebp]
  00047	8d 4d e0	 lea	 ecx, DWORD PTR _pEntity$513053[ebp]
  0004a	51		 push	 ecx
  0004b	8d 58 04	 lea	 ebx, DWORD PTR [eax+4]
  0004e	ff 33		 push	 DWORD PTR [ebx]
  00050	8d 4d d4	 lea	 ecx, DWORD PTR _vElevatorList$[ebp]
  00053	50		 push	 eax
  00054	e8 00 00 00 00	 call	 ?_Buynode@?$_List_val@PAVioPlayEntity@@V?$allocator@PAVioPlayEntity@@@std@@@std@@QAEPAU_Node@?$_List_nod@PAVioPlayEntity@@V?$allocator@PAVioPlayEntity@@@std@@@2@PAU342@0ABQAVioPlayEntity@@@Z ; std::_List_val<ioPlayEntity *,std::allocator<ioPlayEntity *> >::_Buynode
  00059	6a 01		 push	 1
  0005b	8d 4d d4	 lea	 ecx, DWORD PTR _vElevatorList$[ebp]
  0005e	8b f8		 mov	 edi, eax
  00060	e8 00 00 00 00	 call	 ?_Incsize@?$list@PAVioPlayEntity@@V?$allocator@PAVioPlayEntity@@@std@@@std@@QAEXI@Z ; std::list<ioPlayEntity *,std::allocator<ioPlayEntity *> >::_Incsize
  00065	89 3b		 mov	 DWORD PTR [ebx], edi
  00067	8b 47 04	 mov	 eax, DWORD PTR [edi+4]
  0006a	8b 5d d0	 mov	 ebx, DWORD PTR _rkPacket$GSCopy$[ebp]
  0006d	89 38		 mov	 DWORD PTR [eax], edi
  0006f	8b 7d cc	 mov	 edi, DWORD PTR _this$GSCopy$[ebp]
$LN7@FillElevat:

; 207  : 
; 208  : 	PlayEntityList::iterator iter = m_WorldEntityList.begin();
; 209  : 	for( ; iter!=m_WorldEntityList.end() ; ++iter )

  00072	8b 36		 mov	 esi, DWORD PTR [esi]
  00074	3b 77 04	 cmp	 esi, DWORD PTR [edi+4]
  00077	75 ba		 jne	 SHORT $LL31@FillElevat
$LN6@FillElevat:

; 216  : 	}
; 217  : 
; 218  : 	int iCnt = vElevatorList.size();
; 219  : 	rkPacket << iCnt;

  00079	ff 75 d8	 push	 DWORD PTR _vElevatorList$[ebp+4]
  0007c	8b cb		 mov	 ecx, ebx
  0007e	e8 00 00 00 00	 call	 ??6SP2Packet@@QAEAAV0@H@Z ; SP2Packet::operator<<

; 220  : 
; 221  : 	iter = vElevatorList.begin();

  00083	8b 45 d4	 mov	 eax, DWORD PTR _vElevatorList$[ebp]
  00086	8b 30		 mov	 esi, DWORD PTR [eax]

; 222  : 	while ( iter != vElevatorList.end() )

  00088	3b f0		 cmp	 esi, eax
  0008a	74 5d		 je	 SHORT $LN3@FillElevat
$LL4@FillElevat:

; 223  : 	{
; 224  : 		ioPlayEntity *pEntity = *iter;
; 225  : 		ioElevator *pElevator = ToElevator( pEntity );

  0008c	ff 76 08	 push	 DWORD PTR [esi+8]
  0008f	e8 00 00 00 00	 call	 ?ToElevator@@YAPAVioElevator@@PAVioGameEntity@@@Z ; ToElevator

; 226  : 		if( pElevator )

  00094	33 ff		 xor	 edi, edi
  00096	59		 pop	 ecx
  00097	3b c7		 cmp	 eax, edi
  00099	74 0a		 je	 SHORT $LN2@FillElevat

; 227  : 		{
; 228  : 			pElevator->FillCurElevatorInfo( rkPacket );

  0009b	53		 push	 ebx
  0009c	8b c8		 mov	 ecx, eax
  0009e	e8 00 00 00 00	 call	 ?FillCurElevatorInfo@ioElevator@@QAEXAAVSP2Packet@@@Z ; ioElevator::FillCurElevatorInfo

; 229  : 		}
; 230  : 		else

  000a3	eb 3d		 jmp	 SHORT $LN1@FillElevat
$LN2@FillElevat:

; 231  : 		{
; 232  : 			rkPacket << 0;

  000a5	57		 push	 edi
  000a6	8b cb		 mov	 ecx, ebx
  000a8	e8 00 00 00 00	 call	 ??6SP2Packet@@QAEAAV0@H@Z ; SP2Packet::operator<<

; 233  : 			rkPacket << 0;

  000ad	57		 push	 edi
  000ae	8b cb		 mov	 ecx, ebx
  000b0	e8 00 00 00 00	 call	 ??6SP2Packet@@QAEAAV0@H@Z ; SP2Packet::operator<<

; 234  : 			rkPacket << D3DXVECTOR3( 0.0f, 0.0f, 0.0f );

  000b5	0f 57 c0	 xorps	 xmm0, xmm0
  000b8	8d 45 e4	 lea	 eax, DWORD PTR $T513066[ebp]
  000bb	50		 push	 eax
  000bc	8b cb		 mov	 ecx, ebx
  000be	f3 0f 11 45 e4	 movss	 DWORD PTR $T513066[ebp], xmm0
  000c3	f3 0f 11 45 e8	 movss	 DWORD PTR $T513066[ebp+4], xmm0
  000c8	f3 0f 11 45 ec	 movss	 DWORD PTR $T513066[ebp+8], xmm0
  000cd	e8 00 00 00 00	 call	 ??6SP2Packet@@QAEAAV0@ABUD3DXVECTOR3@@@Z ; SP2Packet::operator<<

; 235  : 			rkPacket << 0;

  000d2	57		 push	 edi
  000d3	8b cb		 mov	 ecx, ebx
  000d5	e8 00 00 00 00	 call	 ??6SP2Packet@@QAEAAV0@H@Z ; SP2Packet::operator<<

; 236  : 			rkPacket << 0;

  000da	57		 push	 edi
  000db	8b cb		 mov	 ecx, ebx
  000dd	e8 00 00 00 00	 call	 ??6SP2Packet@@QAEAAV0@H@Z ; SP2Packet::operator<<
$LN1@FillElevat:

; 237  : 		}
; 238  : 
; 239  : 		++iter;

  000e2	8b 36		 mov	 esi, DWORD PTR [esi]
  000e4	3b 75 d4	 cmp	 esi, DWORD PTR _vElevatorList$[ebp]
  000e7	75 a3		 jne	 SHORT $LL4@FillElevat
$LN3@FillElevat:

; 240  : 	}
; 241  : }

  000e9	8d 4d d4	 lea	 ecx, DWORD PTR _vElevatorList$[ebp]
  000ec	e8 00 00 00 00	 call	 ?clear@?$list@PAVioPlayEntity@@V?$allocator@PAVioPlayEntity@@@std@@@std@@QAEXXZ ; std::list<ioPlayEntity *,std::allocator<ioPlayEntity *> >::clear
  000f1	ff 75 d4	 push	 DWORD PTR _vElevatorList$[ebp]
  000f4	e8 00 00 00 00	 call	 ??3@YAXPAX@Z		; operator delete
  000f9	59		 pop	 ecx
  000fa	e8 00 00 00 00	 call	 __EH_epilog3_GS
  000ff	c2 04 00	 ret	 4
_TEXT	ENDS
;	COMDAT text$x
text$x	SEGMENT
__unwindfunclet$?FillElevatorStateInfo@ioWorldEntityFactory@@QAEXAAVSP2Packet@@@Z$0:
  00000	8d 4d d4	 lea	 ecx, DWORD PTR _vElevatorList$[ebp]
  00003	e9 00 00 00 00	 jmp	 ??1?$list@PAVioPlayEntity@@V?$allocator@PAVioPlayEntity@@@std@@@std@@QAE@XZ ; std::list<ioPlayEntity *,std::allocator<ioPlayEntity *> >::~list<ioPlayEntity *,std::allocator<ioPlayEntity *> >
__ehhandler$?FillElevatorStateInfo@ioWorldEntityFactory@@QAEXAAVSP2Packet@@@Z:
  00008	8b 54 24 08	 mov	 edx, DWORD PTR [esp+8]
  0000c	8d 42 0c	 lea	 eax, DWORD PTR [edx+12]
  0000f	8b 4a c8	 mov	 ecx, DWORD PTR [edx-56]
  00012	33 c8		 xor	 ecx, eax
  00014	e8 00 00 00 00	 call	 @__security_check_cookie@4
  00019	8b 4a fc	 mov	 ecx, DWORD PTR [edx-4]
  0001c	33 c8		 xor	 ecx, eax
  0001e	e8 00 00 00 00	 call	 @__security_check_cookie@4
  00023	b8 00 00 00 00	 mov	 eax, OFFSET __ehfuncinfo$?FillElevatorStateInfo@ioWorldEntityFactory@@QAEXAAVSP2Packet@@@Z
  00028	e9 00 00 00 00	 jmp	 ___CxxFrameHandler3
text$x	ENDS
?FillElevatorStateInfo@ioWorldEntityFactory@@QAEXAAVSP2Packet@@@Z ENDP ; ioWorldEntityFactory::FillElevatorStateInfo
; Function compile flags: /Ogsp
;	COMDAT ??_GioWorldEntityFactory@@UAEPAXI@Z
_TEXT	SEGMENT
___flags$ = 8						; size = 4
??_GioWorldEntityFactory@@UAEPAXI@Z PROC		; ioWorldEntityFactory::`scalar deleting destructor', COMDAT
; _this$ = ecx
  00000	55		 push	 ebp
  00001	8b ec		 mov	 ebp, esp
  00003	56		 push	 esi
  00004	8b f1		 mov	 esi, ecx
  00006	e8 00 00 00 00	 call	 ??1ioWorldEntityFactory@@UAE@XZ ; ioWorldEntityFactory::~ioWorldEntityFactory
  0000b	f6 45 08 01	 test	 BYTE PTR ___flags$[ebp], 1
  0000f	74 07		 je	 SHORT $LN1@scalar@2
  00011	56		 push	 esi
  00012	e8 00 00 00 00	 call	 ??3@YAXPAX@Z		; operator delete
  00017	59		 pop	 ecx
$LN1@scalar@2:
  00018	8b c6		 mov	 eax, esi
  0001a	5e		 pop	 esi
  0001b	5d		 pop	 ebp
  0001c	c2 04 00	 ret	 4
??_GioWorldEntityFactory@@UAEPAXI@Z ENDP		; ioWorldEntityFactory::`scalar deleting destructor'
_TEXT	ENDS
END
