; Listing generated by Microsoft (R) Optimizing Compiler Version 16.00.30319.01 

	TITLE	D:\Lost Saga For Developer\Youtube\Tutorial\Source\src\LSClient\ioWorldMesh.cpp
	.686P
	.XMM
	include listing.inc
	.model	flat

INCLUDELIB MSVCRT
INCLUDELIB OLDNAMES

PUBLIC	?return1@@YAIXZ					; return1
; Function compile flags: /Ogsp
; File d:\lost saga for developer\youtube\tutorial\source\src\lsclient\stdafx.h
;	COMDAT ?return1@@YAIXZ
_TEXT	SEGMENT
?return1@@YAIXZ PROC					; return1, COMDAT

; 17   : 	__forceinline unsigned int return1() { __asm mov eax, 1 };

  00000	b8 01 00 00 00	 mov	 eax, 1
  00005	c3		 ret	 0
?return1@@YAIXZ ENDP					; return1
_TEXT	ENDS
PUBLIC	?return1000@@YAIXZ				; return1000
; Function compile flags: /Ogsp
;	COMDAT ?return1000@@YAIXZ
_TEXT	SEGMENT
?return1000@@YAIXZ PROC					; return1000, COMDAT

; 29   : 	__forceinline unsigned int return1000() { __asm mov eax, 1000 };

  00000	b8 e8 03 00 00	 mov	 eax, 1000		; 000003e8H
  00005	c3		 ret	 0
?return1000@@YAIXZ ENDP					; return1000
_TEXT	ENDS
PUBLIC	_sqrtf
EXTRN	__fltused:DWORD
EXTRN	__CIsqrt:PROC
; Function compile flags: /Ogsp
; File c:\program files (x86)\microsoft visual studio 10.0\vc\include\math.h
;	COMDAT _sqrtf
_TEXT	SEGMENT
tv69 = 8						; size = 4
__X$ = 8						; size = 4
_sqrtf	PROC						; COMDAT

; 434  :         {return ((float)sqrt((double)_X)); }

  00000	55		 push	 ebp
  00001	8b ec		 mov	 ebp, esp
  00003	d9 45 08	 fld	 DWORD PTR __X$[ebp]
  00006	e8 00 00 00 00	 call	 __CIsqrt
  0000b	d9 5d 08	 fstp	 DWORD PTR tv69[ebp]
  0000e	d9 45 08	 fld	 DWORD PTR tv69[ebp]
  00011	5d		 pop	 ebp
  00012	c3		 ret	 0
_sqrtf	ENDP
_TEXT	ENDS
PUBLIC	?sqrt@@YAMM@Z					; sqrt
; Function compile flags: /Ogsp
;	COMDAT ?sqrt@@YAMM@Z
_TEXT	SEGMENT
tv73 = 8						; size = 4
__X$ = 8						; size = 4
?sqrt@@YAMM@Z PROC					; sqrt, COMDAT

; 542  :         {return (sqrtf(_X)); }

  00000	55		 push	 ebp
  00001	8b ec		 mov	 ebp, esp
  00003	d9 45 08	 fld	 DWORD PTR __X$[ebp]
  00006	e8 00 00 00 00	 call	 __CIsqrt
  0000b	d9 5d 08	 fstp	 DWORD PTR tv73[ebp]
  0000e	d9 45 08	 fld	 DWORD PTR tv73[ebp]
  00011	5d		 pop	 ebp
  00012	c3		 ret	 0
?sqrt@@YAMM@Z ENDP					; sqrt
_TEXT	ENDS
PUBLIC	??_7bad_alloc@std@@6B@				; std::bad_alloc::`vftable'
PUBLIC	??0bad_alloc@std@@QAE@PBD@Z			; std::bad_alloc::bad_alloc
PUBLIC	??_R4bad_alloc@std@@6B@				; std::bad_alloc::`RTTI Complete Object Locator'
PUBLIC	??_R0?AVbad_alloc@std@@@8			; std::bad_alloc `RTTI Type Descriptor'
PUBLIC	??_R3bad_alloc@std@@8				; std::bad_alloc::`RTTI Class Hierarchy Descriptor'
PUBLIC	??_R2bad_alloc@std@@8				; std::bad_alloc::`RTTI Base Class Array'
PUBLIC	??_R1A@?0A@EA@bad_alloc@std@@8			; std::bad_alloc::`RTTI Base Class Descriptor at (0,-1,0,64)'
PUBLIC	??_R1A@?0A@EA@exception@std@@8			; std::exception::`RTTI Base Class Descriptor at (0,-1,0,64)'
PUBLIC	??_R0?AVexception@std@@@8			; std::exception `RTTI Type Descriptor'
PUBLIC	??_R3exception@std@@8				; std::exception::`RTTI Class Hierarchy Descriptor'
PUBLIC	??_R2exception@std@@8				; std::exception::`RTTI Base Class Array'
EXTRN	__imp_??0exception@std@@QAE@ABQBD@Z:PROC
EXTRN	??_7type_info@@6B@:QWORD			; type_info::`vftable'
EXTRN	??_Ebad_alloc@std@@UAEPAXI@Z:PROC		; std::bad_alloc::`vector deleting destructor'
EXTRN	?what@exception@std@@UBEPBDXZ:PROC		; std::exception::what
;	COMDAT ??_R2exception@std@@8
; File c:\program files (x86)\microsoft visual studio 10.0\vc\include\exception
rdata$r	SEGMENT
??_R2exception@std@@8 DD FLAT:??_R1A@?0A@EA@exception@std@@8 ; std::exception::`RTTI Base Class Array'
rdata$r	ENDS
;	COMDAT ??_R3exception@std@@8
rdata$r	SEGMENT
??_R3exception@std@@8 DD 00H				; std::exception::`RTTI Class Hierarchy Descriptor'
	DD	00H
	DD	01H
	DD	FLAT:??_R2exception@std@@8
rdata$r	ENDS
;	COMDAT ??_R0?AVexception@std@@@8
_DATA	SEGMENT
??_R0?AVexception@std@@@8 DD FLAT:??_7type_info@@6B@	; std::exception `RTTI Type Descriptor'
	DD	00H
	DB	'.?AVexception@std@@', 00H
_DATA	ENDS
;	COMDAT ??_R1A@?0A@EA@exception@std@@8
rdata$r	SEGMENT
??_R1A@?0A@EA@exception@std@@8 DD FLAT:??_R0?AVexception@std@@@8 ; std::exception::`RTTI Base Class Descriptor at (0,-1,0,64)'
	DD	00H
	DD	00H
	DD	0ffffffffH
	DD	00H
	DD	040H
	DD	FLAT:??_R3exception@std@@8
rdata$r	ENDS
;	COMDAT ??_R1A@?0A@EA@bad_alloc@std@@8
rdata$r	SEGMENT
??_R1A@?0A@EA@bad_alloc@std@@8 DD FLAT:??_R0?AVbad_alloc@std@@@8 ; std::bad_alloc::`RTTI Base Class Descriptor at (0,-1,0,64)'
	DD	01H
	DD	00H
	DD	0ffffffffH
	DD	00H
	DD	040H
	DD	FLAT:??_R3bad_alloc@std@@8
rdata$r	ENDS
;	COMDAT ??_R2bad_alloc@std@@8
rdata$r	SEGMENT
??_R2bad_alloc@std@@8 DD FLAT:??_R1A@?0A@EA@bad_alloc@std@@8 ; std::bad_alloc::`RTTI Base Class Array'
	DD	FLAT:??_R1A@?0A@EA@exception@std@@8
rdata$r	ENDS
;	COMDAT ??_R3bad_alloc@std@@8
rdata$r	SEGMENT
??_R3bad_alloc@std@@8 DD 00H				; std::bad_alloc::`RTTI Class Hierarchy Descriptor'
	DD	00H
	DD	02H
	DD	FLAT:??_R2bad_alloc@std@@8
rdata$r	ENDS
;	COMDAT ??_R0?AVbad_alloc@std@@@8
_DATA	SEGMENT
??_R0?AVbad_alloc@std@@@8 DD FLAT:??_7type_info@@6B@	; std::bad_alloc `RTTI Type Descriptor'
	DD	00H
	DB	'.?AVbad_alloc@std@@', 00H
_DATA	ENDS
;	COMDAT ??_R4bad_alloc@std@@6B@
rdata$r	SEGMENT
??_R4bad_alloc@std@@6B@ DD 00H				; std::bad_alloc::`RTTI Complete Object Locator'
	DD	00H
	DD	00H
	DD	FLAT:??_R0?AVbad_alloc@std@@@8
	DD	FLAT:??_R3bad_alloc@std@@8
rdata$r	ENDS
;	COMDAT ??_7bad_alloc@std@@6B@
CONST	SEGMENT
??_7bad_alloc@std@@6B@ DD FLAT:??_R4bad_alloc@std@@6B@	; std::bad_alloc::`vftable'
	DD	FLAT:??_Ebad_alloc@std@@UAEPAXI@Z
	DD	FLAT:?what@exception@std@@UBEPBDXZ
; Function compile flags: /Ogsp
CONST	ENDS
;	COMDAT ??0bad_alloc@std@@QAE@PBD@Z
_TEXT	SEGMENT
__Message$ = 8						; size = 4
??0bad_alloc@std@@QAE@PBD@Z PROC			; std::bad_alloc::bad_alloc, COMDAT
; _this$ = ecx

; 345  : 		{	// construct from message string

  00000	55		 push	 ebp
  00001	8b ec		 mov	 ebp, esp
  00003	56		 push	 esi
  00004	8d 45 08	 lea	 eax, DWORD PTR __Message$[ebp]
  00007	50		 push	 eax
  00008	8b f1		 mov	 esi, ecx
  0000a	ff 15 00 00 00
	00		 call	 DWORD PTR __imp_??0exception@std@@QAE@ABQBD@Z
  00010	c7 06 00 00 00
	00		 mov	 DWORD PTR [esi], OFFSET ??_7bad_alloc@std@@6B@

; 346  : 		}

  00016	8b c6		 mov	 eax, esi
  00018	5e		 pop	 esi
  00019	5d		 pop	 ebp
  0001a	c2 04 00	 ret	 4
??0bad_alloc@std@@QAE@PBD@Z ENDP			; std::bad_alloc::bad_alloc
_TEXT	ENDS
PUBLIC	??1bad_alloc@std@@UAE@XZ			; std::bad_alloc::~bad_alloc
EXTRN	__imp_??1exception@std@@UAE@XZ:PROC
; Function compile flags: /Ogsp
;	COMDAT ??1bad_alloc@std@@UAE@XZ
_TEXT	SEGMENT
??1bad_alloc@std@@UAE@XZ PROC				; std::bad_alloc::~bad_alloc, COMDAT
; _this$ = ecx

; 354  : 		{	// destroy the object

  00000	c7 01 00 00 00
	00		 mov	 DWORD PTR [ecx], OFFSET ??_7bad_alloc@std@@6B@

; 355  : 		}

  00006	ff 25 00 00 00
	00		 jmp	 DWORD PTR __imp_??1exception@std@@UAE@XZ
??1bad_alloc@std@@UAE@XZ ENDP				; std::bad_alloc::~bad_alloc
_TEXT	ENDS
EXTRN	??3@YAXPAX@Z:PROC				; operator delete
; Function compile flags: /Ogsp
;	COMDAT ??_Gbad_alloc@std@@UAEPAXI@Z
_TEXT	SEGMENT
___flags$ = 8						; size = 4
??_Gbad_alloc@std@@UAEPAXI@Z PROC			; std::bad_alloc::`scalar deleting destructor', COMDAT
; _this$ = ecx
  00000	55		 push	 ebp
  00001	8b ec		 mov	 ebp, esp
  00003	56		 push	 esi
  00004	8b f1		 mov	 esi, ecx
  00006	c7 06 00 00 00
	00		 mov	 DWORD PTR [esi], OFFSET ??_7bad_alloc@std@@6B@
  0000c	ff 15 00 00 00
	00		 call	 DWORD PTR __imp_??1exception@std@@UAE@XZ
  00012	f6 45 08 01	 test	 BYTE PTR ___flags$[ebp], 1
  00016	74 07		 je	 SHORT $LN1@scalar
  00018	56		 push	 esi
  00019	e8 00 00 00 00	 call	 ??3@YAXPAX@Z		; operator delete
  0001e	59		 pop	 ecx
$LN1@scalar:
  0001f	8b c6		 mov	 eax, esi
  00021	5e		 pop	 esi
  00022	5d		 pop	 ebp
  00023	c2 04 00	 ret	 4
??_Gbad_alloc@std@@UAEPAXI@Z ENDP			; std::bad_alloc::`scalar deleting destructor'
_TEXT	ENDS
PUBLIC	??2@YAPAXIPAX@Z					; operator new
; Function compile flags: /Ogsp
; File c:\program files (x86)\microsoft visual studio 10.0\vc\include\new
;	COMDAT ??2@YAPAXIPAX@Z
_TEXT	SEGMENT
___formal$ = 8						; size = 4
__Where$ = 12						; size = 4
??2@YAPAXIPAX@Z PROC					; operator new, COMDAT

; 56   : 	{	// construct array with placement at _Where

  00000	55		 push	 ebp
  00001	8b ec		 mov	 ebp, esp

; 57   : 	return (_Where);

  00003	8b 45 0c	 mov	 eax, DWORD PTR __Where$[ebp]

; 58   : 	}

  00006	5d		 pop	 ebp
  00007	c3		 ret	 0
??2@YAPAXIPAX@Z ENDP					; operator new
_TEXT	ENDS
PUBLIC	??3@YAXPAX0@Z					; operator delete
; Function compile flags: /Ogsp
;	COMDAT ??3@YAXPAX0@Z
_TEXT	SEGMENT
___formal$ = 8						; size = 4
___formal$ = 12						; size = 4
??3@YAXPAX0@Z PROC					; operator delete, COMDAT

; 62   : 	}

  00000	c3		 ret	 0
??3@YAXPAX0@Z ENDP					; operator delete
_TEXT	ENDS
PUBLIC	?empty@?$vector@VioHashString@@V?$allocator@VioHashString@@@std@@@std@@QBE_NXZ ; std::vector<ioHashString,std::allocator<ioHashString> >::empty
; Function compile flags: /Ogsp
; File c:\program files (x86)\microsoft visual studio 10.0\vc\include\vector
;	COMDAT ?empty@?$vector@VioHashString@@V?$allocator@VioHashString@@@std@@@std@@QBE_NXZ
_TEXT	SEGMENT
?empty@?$vector@VioHashString@@V?$allocator@VioHashString@@@std@@@std@@QBE_NXZ PROC ; std::vector<ioHashString,std::allocator<ioHashString> >::empty, COMDAT
; _this$ = ecx

; 889  : 		return (this->_Myfirst == this->_Mylast);

  00000	8b 01		 mov	 eax, DWORD PTR [ecx]
  00002	2b 41 04	 sub	 eax, DWORD PTR [ecx+4]
  00005	f7 d8		 neg	 eax
  00007	1b c0		 sbb	 eax, eax
  00009	40		 inc	 eax

; 890  : 		}

  0000a	c3		 ret	 0
?empty@?$vector@VioHashString@@V?$allocator@VioHashString@@@std@@@std@@QBE_NXZ ENDP ; std::vector<ioHashString,std::allocator<ioHashString> >::empty
_TEXT	ENDS
PUBLIC	??A?$vector@VioHashString@@V?$allocator@VioHashString@@@std@@@std@@QAEAAVioHashString@@I@Z ; std::vector<ioHashString,std::allocator<ioHashString> >::operator[]
; Function compile flags: /Ogsp
;	COMDAT ??A?$vector@VioHashString@@V?$allocator@VioHashString@@@std@@@std@@QAEAAVioHashString@@I@Z
_TEXT	SEGMENT
__Pos$ = 8						; size = 4
??A?$vector@VioHashString@@V?$allocator@VioHashString@@@std@@@std@@QAEAAVioHashString@@I@Z PROC ; std::vector<ioHashString,std::allocator<ioHashString> >::operator[], COMDAT
; _this$ = ecx

; 928  : 		{	// subscript mutable sequence

  00000	55		 push	 ebp
  00001	8b ec		 mov	 ebp, esp

; 929  :  #if _ITERATOR_DEBUG_LEVEL == 2
; 930  : 		if (size() <= _Pos)
; 931  : 			{	// report error
; 932  : 			_DEBUG_ERROR("vector subscript out of range");
; 933  : 			_SCL_SECURE_OUT_OF_RANGE;
; 934  : 			}
; 935  : 
; 936  :  #elif _ITERATOR_DEBUG_LEVEL == 1
; 937  : 		_SCL_SECURE_VALIDATE_RANGE(_Pos < size());
; 938  :  #endif /* _ITERATOR_DEBUG_LEVEL */
; 939  : 
; 940  : 		return (*(this->_Myfirst + _Pos));

  00003	8b 45 08	 mov	 eax, DWORD PTR __Pos$[ebp]
  00006	c1 e0 04	 shl	 eax, 4
  00009	03 01		 add	 eax, DWORD PTR [ecx]

; 941  : 		}

  0000b	5d		 pop	 ebp
  0000c	c2 04 00	 ret	 4
??A?$vector@VioHashString@@V?$allocator@VioHashString@@@std@@@std@@QAEAAVioHashString@@I@Z ENDP ; std::vector<ioHashString,std::allocator<ioHashString> >::operator[]
_TEXT	ENDS
PUBLIC	??8?$_Tree_const_iterator@V?$_Tree_val@V?$_Tmap_traits@VioHashString@@UD3DXVECTOR3@@U?$less@VioHashString@@@std@@V?$allocator@U?$pair@$$CBVioHashString@@UD3DXVECTOR3@@@std@@@4@$0A@@std@@@std@@@std@@QBE_NABV01@@Z ; std::_Tree_const_iterator<std::_Tree_val<std::_Tmap_traits<ioHashString,D3DXVECTOR3,std::less<ioHashString>,std::allocator<std::pair<ioHashString const ,D3DXVECTOR3> >,0> > >::operator==
; Function compile flags: /Ogsp
; File c:\program files (x86)\microsoft visual studio 10.0\vc\include\xtree
;	COMDAT ??8?$_Tree_const_iterator@V?$_Tree_val@V?$_Tmap_traits@VioHashString@@UD3DXVECTOR3@@U?$less@VioHashString@@@std@@V?$allocator@U?$pair@$$CBVioHashString@@UD3DXVECTOR3@@@std@@@4@$0A@@std@@@std@@@std@@QBE_NABV01@@Z
_TEXT	SEGMENT
__Right$ = 8						; size = 4
??8?$_Tree_const_iterator@V?$_Tree_val@V?$_Tmap_traits@VioHashString@@UD3DXVECTOR3@@U?$less@VioHashString@@@std@@V?$allocator@U?$pair@$$CBVioHashString@@UD3DXVECTOR3@@@std@@@4@$0A@@std@@@std@@@std@@QBE_NABV01@@Z PROC ; std::_Tree_const_iterator<std::_Tree_val<std::_Tmap_traits<ioHashString,D3DXVECTOR3,std::less<ioHashString>,std::allocator<std::pair<ioHashString const ,D3DXVECTOR3> >,0> > >::operator==, COMDAT
; _this$ = ecx

; 316  : 		{	// test for iterator equality

  00000	55		 push	 ebp
  00001	8b ec		 mov	 ebp, esp

; 317  :  #if _ITERATOR_DEBUG_LEVEL == 2
; 318  : 		if (this->_Getcont() == 0
; 319  : 			|| this->_Getcont() != _Right._Getcont())
; 320  : 			{	// report error
; 321  : 			_DEBUG_ERROR("map/set iterators incompatible");
; 322  : 			_SCL_SECURE_INVALID_ARGUMENT;
; 323  : 			}
; 324  : 
; 325  :  #elif _ITERATOR_DEBUG_LEVEL == 1
; 326  : 		_SCL_SECURE_VALIDATE(this->_Getcont() != 0
; 327  : 			&& this->_Getcont() == _Right._Getcont());
; 328  :  #endif /* _ITERATOR_DEBUG_LEVEL */
; 329  : 
; 330  : 		return (this->_Ptr == _Right._Ptr);

  00003	8b 01		 mov	 eax, DWORD PTR [ecx]
  00005	8b 4d 08	 mov	 ecx, DWORD PTR __Right$[ebp]
  00008	2b 01		 sub	 eax, DWORD PTR [ecx]
  0000a	f7 d8		 neg	 eax
  0000c	1b c0		 sbb	 eax, eax
  0000e	40		 inc	 eax

; 331  : 		}

  0000f	5d		 pop	 ebp
  00010	c2 04 00	 ret	 4
??8?$_Tree_const_iterator@V?$_Tree_val@V?$_Tmap_traits@VioHashString@@UD3DXVECTOR3@@U?$less@VioHashString@@@std@@V?$allocator@U?$pair@$$CBVioHashString@@UD3DXVECTOR3@@@std@@@4@$0A@@std@@@std@@@std@@QBE_NABV01@@Z ENDP ; std::_Tree_const_iterator<std::_Tree_val<std::_Tmap_traits<ioHashString,D3DXVECTOR3,std::less<ioHashString>,std::allocator<std::pair<ioHashString const ,D3DXVECTOR3> >,0> > >::operator==
_TEXT	ENDS
PUBLIC	??1?$_Pair_base@$$CBVioHashString@@UD3DXVECTOR3@@@std@@QAE@XZ ; std::_Pair_base<ioHashString const ,D3DXVECTOR3>::~_Pair_base<ioHashString const ,D3DXVECTOR3>
EXTRN	__imp_??1ioHashString@@QAE@XZ:PROC
; Function compile flags: /Ogsp
;	COMDAT ??1?$_Pair_base@$$CBVioHashString@@UD3DXVECTOR3@@@std@@QAE@XZ
_TEXT	SEGMENT
??1?$_Pair_base@$$CBVioHashString@@UD3DXVECTOR3@@@std@@QAE@XZ PROC ; std::_Pair_base<ioHashString const ,D3DXVECTOR3>::~_Pair_base<ioHashString const ,D3DXVECTOR3>, COMDAT
; _this$ = ecx
  00000	ff 25 00 00 00
	00		 jmp	 DWORD PTR __imp_??1ioHashString@@QAE@XZ
??1?$_Pair_base@$$CBVioHashString@@UD3DXVECTOR3@@@std@@QAE@XZ ENDP ; std::_Pair_base<ioHashString const ,D3DXVECTOR3>::~_Pair_base<ioHashString const ,D3DXVECTOR3>
_TEXT	ENDS
PUBLIC	?_Inside@?$vector@VioHashString@@V?$allocator@VioHashString@@@std@@@std@@IBE_NPBVioHashString@@@Z ; std::vector<ioHashString,std::allocator<ioHashString> >::_Inside
; Function compile flags: /Ogsp
; File c:\program files (x86)\microsoft visual studio 10.0\vc\include\vector
;	COMDAT ?_Inside@?$vector@VioHashString@@V?$allocator@VioHashString@@@std@@@std@@IBE_NPBVioHashString@@@Z
_TEXT	SEGMENT
__Ptr$ = 8						; size = 4
?_Inside@?$vector@VioHashString@@V?$allocator@VioHashString@@@std@@@std@@IBE_NPBVioHashString@@@Z PROC ; std::vector<ioHashString,std::allocator<ioHashString> >::_Inside, COMDAT
; _this$ = ecx

; 1285 : 		{	// test if _Ptr points inside vector

  00000	55		 push	 ebp
  00001	8b ec		 mov	 ebp, esp

; 1286 : 		return (_Ptr < this->_Mylast && this->_Myfirst <= _Ptr);

  00003	8b 45 08	 mov	 eax, DWORD PTR __Ptr$[ebp]
  00006	3b 41 04	 cmp	 eax, DWORD PTR [ecx+4]
  00009	73 09		 jae	 SHORT $LN3@Inside
  0000b	39 01		 cmp	 DWORD PTR [ecx], eax
  0000d	77 05		 ja	 SHORT $LN3@Inside
  0000f	33 c0		 xor	 eax, eax
  00011	40		 inc	 eax
  00012	eb 02		 jmp	 SHORT $LN4@Inside
$LN3@Inside:
  00014	33 c0		 xor	 eax, eax
$LN4@Inside:

; 1287 : 		}

  00016	5d		 pop	 ebp
  00017	c2 04 00	 ret	 4
?_Inside@?$vector@VioHashString@@V?$allocator@VioHashString@@@std@@@std@@IBE_NPBVioHashString@@@Z ENDP ; std::vector<ioHashString,std::allocator<ioHashString> >::_Inside
_TEXT	ENDS
PUBLIC	?_Orphan_range@?$vector@VioHashString@@V?$allocator@VioHashString@@@std@@@std@@IBEXPAVioHashString@@0@Z ; std::vector<ioHashString,std::allocator<ioHashString> >::_Orphan_range
; Function compile flags: /Ogsp
;	COMDAT ?_Orphan_range@?$vector@VioHashString@@V?$allocator@VioHashString@@@std@@@std@@IBEXPAVioHashString@@0@Z
_TEXT	SEGMENT
___formal$ = 8						; size = 4
___formal$ = 12						; size = 4
?_Orphan_range@?$vector@VioHashString@@V?$allocator@VioHashString@@@std@@@std@@IBEXPAVioHashString@@0@Z PROC ; std::vector<ioHashString,std::allocator<ioHashString> >::_Orphan_range, COMDAT
; _this$ = ecx

; 1454 : 		}

  00000	c2 08 00	 ret	 8
?_Orphan_range@?$vector@VioHashString@@V?$allocator@VioHashString@@@std@@@std@@IBEXPAVioHashString@@0@Z ENDP ; std::vector<ioHashString,std::allocator<ioHashString> >::_Orphan_range
_TEXT	ENDS
PUBLIC	?_Inside@?$vector@UEntityGroupData@ioWorldMesh@@V?$allocator@UEntityGroupData@ioWorldMesh@@@std@@@std@@IBE_NPBUEntityGroupData@ioWorldMesh@@@Z ; std::vector<ioWorldMesh::EntityGroupData,std::allocator<ioWorldMesh::EntityGroupData> >::_Inside
; Function compile flags: /Ogsp
;	COMDAT ?_Inside@?$vector@UEntityGroupData@ioWorldMesh@@V?$allocator@UEntityGroupData@ioWorldMesh@@@std@@@std@@IBE_NPBUEntityGroupData@ioWorldMesh@@@Z
_TEXT	SEGMENT
__Ptr$ = 8						; size = 4
?_Inside@?$vector@UEntityGroupData@ioWorldMesh@@V?$allocator@UEntityGroupData@ioWorldMesh@@@std@@@std@@IBE_NPBUEntityGroupData@ioWorldMesh@@@Z PROC ; std::vector<ioWorldMesh::EntityGroupData,std::allocator<ioWorldMesh::EntityGroupData> >::_Inside, COMDAT
; _this$ = ecx

; 1285 : 		{	// test if _Ptr points inside vector

  00000	55		 push	 ebp
  00001	8b ec		 mov	 ebp, esp

; 1286 : 		return (_Ptr < this->_Mylast && this->_Myfirst <= _Ptr);

  00003	8b 45 08	 mov	 eax, DWORD PTR __Ptr$[ebp]
  00006	3b 41 04	 cmp	 eax, DWORD PTR [ecx+4]
  00009	73 09		 jae	 SHORT $LN3@Inside@2
  0000b	39 01		 cmp	 DWORD PTR [ecx], eax
  0000d	77 05		 ja	 SHORT $LN3@Inside@2
  0000f	33 c0		 xor	 eax, eax
  00011	40		 inc	 eax
  00012	eb 02		 jmp	 SHORT $LN4@Inside@2
$LN3@Inside@2:
  00014	33 c0		 xor	 eax, eax
$LN4@Inside@2:

; 1287 : 		}

  00016	5d		 pop	 ebp
  00017	c2 04 00	 ret	 4
?_Inside@?$vector@UEntityGroupData@ioWorldMesh@@V?$allocator@UEntityGroupData@ioWorldMesh@@@std@@@std@@IBE_NPBUEntityGroupData@ioWorldMesh@@@Z ENDP ; std::vector<ioWorldMesh::EntityGroupData,std::allocator<ioWorldMesh::EntityGroupData> >::_Inside
_TEXT	ENDS
PUBLIC	?_Orphan_range@?$vector@UEntityGroupData@ioWorldMesh@@V?$allocator@UEntityGroupData@ioWorldMesh@@@std@@@std@@IBEXPAUEntityGroupData@ioWorldMesh@@0@Z ; std::vector<ioWorldMesh::EntityGroupData,std::allocator<ioWorldMesh::EntityGroupData> >::_Orphan_range
; Function compile flags: /Ogsp
;	COMDAT ?_Orphan_range@?$vector@UEntityGroupData@ioWorldMesh@@V?$allocator@UEntityGroupData@ioWorldMesh@@@std@@@std@@IBEXPAUEntityGroupData@ioWorldMesh@@0@Z
_TEXT	SEGMENT
___formal$ = 8						; size = 4
___formal$ = 12						; size = 4
?_Orphan_range@?$vector@UEntityGroupData@ioWorldMesh@@V?$allocator@UEntityGroupData@ioWorldMesh@@@std@@@std@@IBEXPAUEntityGroupData@ioWorldMesh@@0@Z PROC ; std::vector<ioWorldMesh::EntityGroupData,std::allocator<ioWorldMesh::EntityGroupData> >::_Orphan_range, COMDAT
; _this$ = ecx

; 1454 : 		}

  00000	c2 08 00	 ret	 8
?_Orphan_range@?$vector@UEntityGroupData@ioWorldMesh@@V?$allocator@UEntityGroupData@ioWorldMesh@@@std@@@std@@IBEXPAUEntityGroupData@ioWorldMesh@@0@Z ENDP ; std::vector<ioWorldMesh::EntityGroupData,std::allocator<ioWorldMesh::EntityGroupData> >::_Orphan_range
_TEXT	ENDS
PUBLIC	??1?$_Vector_val@UEntityGroupData@ioWorldMesh@@V?$allocator@UEntityGroupData@ioWorldMesh@@@std@@@std@@QAE@XZ ; std::_Vector_val<ioWorldMesh::EntityGroupData,std::allocator<ioWorldMesh::EntityGroupData> >::~_Vector_val<ioWorldMesh::EntityGroupData,std::allocator<ioWorldMesh::EntityGroupData> >
; Function compile flags: /Ogsp
;	COMDAT ??1?$_Vector_val@UEntityGroupData@ioWorldMesh@@V?$allocator@UEntityGroupData@ioWorldMesh@@@std@@@std@@QAE@XZ
_TEXT	SEGMENT
??1?$_Vector_val@UEntityGroupData@ioWorldMesh@@V?$allocator@UEntityGroupData@ioWorldMesh@@@std@@@std@@QAE@XZ PROC ; std::_Vector_val<ioWorldMesh::EntityGroupData,std::allocator<ioWorldMesh::EntityGroupData> >::~_Vector_val<ioWorldMesh::EntityGroupData,std::allocator<ioWorldMesh::EntityGroupData> >, COMDAT
; _this$ = ecx

; 434  : 		}

  00000	c3		 ret	 0
??1?$_Vector_val@UEntityGroupData@ioWorldMesh@@V?$allocator@UEntityGroupData@ioWorldMesh@@@std@@@std@@QAE@XZ ENDP ; std::_Vector_val<ioWorldMesh::EntityGroupData,std::allocator<ioWorldMesh::EntityGroupData> >::~_Vector_val<ioWorldMesh::EntityGroupData,std::allocator<ioWorldMesh::EntityGroupData> >
_TEXT	ENDS
PUBLIC	??0?$allocator@UEntityGroupData@ioWorldMesh@@@std@@QAE@XZ ; std::allocator<ioWorldMesh::EntityGroupData>::allocator<ioWorldMesh::EntityGroupData>
; Function compile flags: /Ogsp
; File c:\program files (x86)\microsoft visual studio 10.0\vc\include\xmemory
;	COMDAT ??0?$allocator@UEntityGroupData@ioWorldMesh@@@std@@QAE@XZ
_TEXT	SEGMENT
??0?$allocator@UEntityGroupData@ioWorldMesh@@@std@@QAE@XZ PROC ; std::allocator<ioWorldMesh::EntityGroupData>::allocator<ioWorldMesh::EntityGroupData>, COMDAT
; _this$ = ecx

; 161  : 	_ALLOCATOR() _THROW0()

  00000	8b c1		 mov	 eax, ecx

; 162  : 		{	// construct default allocator (do nothing)
; 163  : 		}

  00002	c3		 ret	 0
??0?$allocator@UEntityGroupData@ioWorldMesh@@@std@@QAE@XZ ENDP ; std::allocator<ioWorldMesh::EntityGroupData>::allocator<ioWorldMesh::EntityGroupData>
_TEXT	ENDS
PUBLIC	?_Adopt@_Iterator_base0@std@@QAEXPBX@Z		; std::_Iterator_base0::_Adopt
; Function compile flags: /Ogsp
; File c:\program files (x86)\microsoft visual studio 10.0\vc\include\xutility
;	COMDAT ?_Adopt@_Iterator_base0@std@@QAEXPBX@Z
_TEXT	SEGMENT
___formal$ = 8						; size = 4
?_Adopt@_Iterator_base0@std@@QAEXPBX@Z PROC		; std::_Iterator_base0::_Adopt, COMDAT
; _this$ = ecx

; 49   : 		}

  00000	c2 04 00	 ret	 4
?_Adopt@_Iterator_base0@std@@QAEXPBX@Z ENDP		; std::_Iterator_base0::_Adopt
_TEXT	ENDS
PUBLIC	??0?$allocator@U?$pair@$$CBVioHashString@@UD3DXVECTOR3@@@std@@@std@@QAE@XZ ; std::allocator<std::pair<ioHashString const ,D3DXVECTOR3> >::allocator<std::pair<ioHashString const ,D3DXVECTOR3> >
; Function compile flags: /Ogsp
; File c:\program files (x86)\microsoft visual studio 10.0\vc\include\xmemory
;	COMDAT ??0?$allocator@U?$pair@$$CBVioHashString@@UD3DXVECTOR3@@@std@@@std@@QAE@XZ
_TEXT	SEGMENT
??0?$allocator@U?$pair@$$CBVioHashString@@UD3DXVECTOR3@@@std@@@std@@QAE@XZ PROC ; std::allocator<std::pair<ioHashString const ,D3DXVECTOR3> >::allocator<std::pair<ioHashString const ,D3DXVECTOR3> >, COMDAT
; _this$ = ecx

; 161  : 	_ALLOCATOR() _THROW0()

  00000	8b c1		 mov	 eax, ecx

; 162  : 		{	// construct default allocator (do nothing)
; 163  : 		}

  00002	c3		 ret	 0
??0?$allocator@U?$pair@$$CBVioHashString@@UD3DXVECTOR3@@@std@@@std@@QAE@XZ ENDP ; std::allocator<std::pair<ioHashString const ,D3DXVECTOR3> >::allocator<std::pair<ioHashString const ,D3DXVECTOR3> >
_TEXT	ENDS
PUBLIC	??D?$_Vector_const_iterator@V?$_Vector_val@UEntityGroupData@ioWorldMesh@@V?$allocator@UEntityGroupData@ioWorldMesh@@@std@@@std@@@std@@QBEABUEntityGroupData@ioWorldMesh@@XZ ; std::_Vector_const_iterator<std::_Vector_val<ioWorldMesh::EntityGroupData,std::allocator<ioWorldMesh::EntityGroupData> > >::operator*
; Function compile flags: /Ogsp
; File c:\program files (x86)\microsoft visual studio 10.0\vc\include\vector
;	COMDAT ??D?$_Vector_const_iterator@V?$_Vector_val@UEntityGroupData@ioWorldMesh@@V?$allocator@UEntityGroupData@ioWorldMesh@@@std@@@std@@@std@@QBEABUEntityGroupData@ioWorldMesh@@XZ
_TEXT	SEGMENT
??D?$_Vector_const_iterator@V?$_Vector_val@UEntityGroupData@ioWorldMesh@@V?$allocator@UEntityGroupData@ioWorldMesh@@@std@@@std@@@std@@QBEABUEntityGroupData@ioWorldMesh@@XZ PROC ; std::_Vector_const_iterator<std::_Vector_val<ioWorldMesh::EntityGroupData,std::allocator<ioWorldMesh::EntityGroupData> > >::operator*, COMDAT
; _this$ = ecx

; 64   :  #if _ITERATOR_DEBUG_LEVEL == 2
; 65   : 		if (this->_Getcont() == 0
; 66   : 			|| this->_Ptr == 0
; 67   : 			|| this->_Ptr < ((_Myvec *)this->_Getcont())->_Myfirst
; 68   : 			|| ((_Myvec *)this->_Getcont())->_Mylast <= this->_Ptr)
; 69   : 			{	// report error
; 70   : 			_DEBUG_ERROR("vector iterator not dereferencable");
; 71   : 			_SCL_SECURE_OUT_OF_RANGE;
; 72   : 			}
; 73   : 
; 74   :  #elif _ITERATOR_DEBUG_LEVEL == 1
; 75   : 		_SCL_SECURE_VALIDATE(this->_Getcont() != 0);
; 76   : 		_SCL_SECURE_VALIDATE_RANGE(
; 77   : 			this->_Ptr != 0
; 78   : 			&& ((_Myvec *)this->_Getcont())->_Myfirst <= this->_Ptr
; 79   : 			&& this->_Ptr < ((_Myvec *)this->_Getcont())->_Mylast);
; 80   :  #endif /* _ITERATOR_DEBUG_LEVEL */
; 81   : 
; 82   : 		__analysis_assume(this->_Ptr != 0);
; 83   : 
; 84   : 		return (*this->_Ptr);

  00000	8b 01		 mov	 eax, DWORD PTR [ecx]

; 85   : 		}

  00002	c3		 ret	 0
??D?$_Vector_const_iterator@V?$_Vector_val@UEntityGroupData@ioWorldMesh@@V?$allocator@UEntityGroupData@ioWorldMesh@@@std@@@std@@@std@@QBEABUEntityGroupData@ioWorldMesh@@XZ ENDP ; std::_Vector_const_iterator<std::_Vector_val<ioWorldMesh::EntityGroupData,std::allocator<ioWorldMesh::EntityGroupData> > >::operator*
_TEXT	ENDS
PUBLIC	??E?$_Vector_const_iterator@V?$_Vector_val@UEntityGroupData@ioWorldMesh@@V?$allocator@UEntityGroupData@ioWorldMesh@@@std@@@std@@@std@@QAEAAV01@XZ ; std::_Vector_const_iterator<std::_Vector_val<ioWorldMesh::EntityGroupData,std::allocator<ioWorldMesh::EntityGroupData> > >::operator++
; Function compile flags: /Ogsp
;	COMDAT ??E?$_Vector_const_iterator@V?$_Vector_val@UEntityGroupData@ioWorldMesh@@V?$allocator@UEntityGroupData@ioWorldMesh@@@std@@@std@@@std@@QAEAAV01@XZ
_TEXT	SEGMENT
??E?$_Vector_const_iterator@V?$_Vector_val@UEntityGroupData@ioWorldMesh@@V?$allocator@UEntityGroupData@ioWorldMesh@@@std@@@std@@@std@@QAEAAV01@XZ PROC ; std::_Vector_const_iterator<std::_Vector_val<ioWorldMesh::EntityGroupData,std::allocator<ioWorldMesh::EntityGroupData> > >::operator++, COMDAT
; _this$ = ecx

; 93   : 		{	// preincrement

  00000	8b c1		 mov	 eax, ecx

; 94   :  #if _ITERATOR_DEBUG_LEVEL == 2
; 95   : 		if (this->_Getcont() == 0
; 96   : 			|| this->_Ptr == 0
; 97   : 			|| ((_Myvec *)this->_Getcont())->_Mylast <= this->_Ptr)
; 98   : 			{	// report error
; 99   : 			_DEBUG_ERROR("vector iterator not incrementable");
; 100  : 			_SCL_SECURE_OUT_OF_RANGE;
; 101  : 			}
; 102  : 
; 103  :  #elif _ITERATOR_DEBUG_LEVEL == 1
; 104  : 		_SCL_SECURE_VALIDATE(this->_Getcont() != 0);
; 105  : 		_SCL_SECURE_VALIDATE_RANGE(
; 106  : 			this->_Ptr != 0
; 107  : 			&& this->_Ptr < ((_Myvec *)this->_Getcont())->_Mylast);
; 108  :  #endif /* _ITERATOR_DEBUG_LEVEL */
; 109  : 
; 110  : 		++this->_Ptr;

  00002	83 00 08	 add	 DWORD PTR [eax], 8

; 111  : 		return (*this);
; 112  : 		}

  00005	c3		 ret	 0
??E?$_Vector_const_iterator@V?$_Vector_val@UEntityGroupData@ioWorldMesh@@V?$allocator@UEntityGroupData@ioWorldMesh@@@std@@@std@@@std@@QAEAAV01@XZ ENDP ; std::_Vector_const_iterator<std::_Vector_val<ioWorldMesh::EntityGroupData,std::allocator<ioWorldMesh::EntityGroupData> > >::operator++
_TEXT	ENDS
PUBLIC	?_Mynode@?$_Tree_unchecked_const_iterator@V?$_Tree_val@V?$_Tmap_traits@VioHashString@@UD3DXVECTOR3@@U?$less@VioHashString@@@std@@V?$allocator@U?$pair@$$CBVioHashString@@UD3DXVECTOR3@@@std@@@4@$0A@@std@@@std@@U_Iterator_base0@2@@std@@QBEPAU_Node@?$_Tree_nod@V?$_Tmap_traits@VioHashString@@UD3DXVECTOR3@@U?$less@VioHashString@@@std@@V?$allocator@U?$pair@$$CBVioHashString@@UD3DXVECTOR3@@@std@@@4@$0A@@std@@@2@XZ ; std::_Tree_unchecked_const_iterator<std::_Tree_val<std::_Tmap_traits<ioHashString,D3DXVECTOR3,std::less<ioHashString>,std::allocator<std::pair<ioHashString const ,D3DXVECTOR3> >,0> >,std::_Iterator_base0>::_Mynode
; Function compile flags: /Ogsp
; File c:\program files (x86)\microsoft visual studio 10.0\vc\include\xtree
;	COMDAT ?_Mynode@?$_Tree_unchecked_const_iterator@V?$_Tree_val@V?$_Tmap_traits@VioHashString@@UD3DXVECTOR3@@U?$less@VioHashString@@@std@@V?$allocator@U?$pair@$$CBVioHashString@@UD3DXVECTOR3@@@std@@@4@$0A@@std@@@std@@U_Iterator_base0@2@@std@@QBEPAU_Node@?$_Tree_nod@V?$_Tmap_traits@VioHashString@@UD3DXVECTOR3@@U?$less@VioHashString@@@std@@V?$allocator@U?$pair@$$CBVioHashString@@UD3DXVECTOR3@@@std@@@4@$0A@@std@@@2@XZ
_TEXT	SEGMENT
?_Mynode@?$_Tree_unchecked_const_iterator@V?$_Tree_val@V?$_Tmap_traits@VioHashString@@UD3DXVECTOR3@@U?$less@VioHashString@@@std@@V?$allocator@U?$pair@$$CBVioHashString@@UD3DXVECTOR3@@@std@@@4@$0A@@std@@@std@@U_Iterator_base0@2@@std@@QBEPAU_Node@?$_Tree_nod@V?$_Tmap_traits@VioHashString@@UD3DXVECTOR3@@U?$less@VioHashString@@@std@@V?$allocator@U?$pair@$$CBVioHashString@@UD3DXVECTOR3@@@std@@@4@$0A@@std@@@2@XZ PROC ; std::_Tree_unchecked_const_iterator<std::_Tree_val<std::_Tmap_traits<ioHashString,D3DXVECTOR3,std::less<ioHashString>,std::allocator<std::pair<ioHashString const ,D3DXVECTOR3> >,0> >,std::_Iterator_base0>::_Mynode, COMDAT
; _this$ = ecx

; 122  : 		return (_Ptr);

  00000	8b 01		 mov	 eax, DWORD PTR [ecx]

; 123  : 		}

  00002	c3		 ret	 0
?_Mynode@?$_Tree_unchecked_const_iterator@V?$_Tree_val@V?$_Tmap_traits@VioHashString@@UD3DXVECTOR3@@U?$less@VioHashString@@@std@@V?$allocator@U?$pair@$$CBVioHashString@@UD3DXVECTOR3@@@std@@@4@$0A@@std@@@std@@U_Iterator_base0@2@@std@@QBEPAU_Node@?$_Tree_nod@V?$_Tmap_traits@VioHashString@@UD3DXVECTOR3@@U?$less@VioHashString@@@std@@V?$allocator@U?$pair@$$CBVioHashString@@UD3DXVECTOR3@@@std@@@4@$0A@@std@@@2@XZ ENDP ; std::_Tree_unchecked_const_iterator<std::_Tree_val<std::_Tmap_traits<ioHashString,D3DXVECTOR3,std::less<ioHashString>,std::allocator<std::pair<ioHashString const ,D3DXVECTOR3> >,0> >,std::_Iterator_base0>::_Mynode
_TEXT	ENDS
PUBLIC	?capacity@?$vector@VioHashString@@V?$allocator@VioHashString@@@std@@@std@@QBEIXZ ; std::vector<ioHashString,std::allocator<ioHashString> >::capacity
; Function compile flags: /Ogsp
; File c:\program files (x86)\microsoft visual studio 10.0\vc\include\vector
;	COMDAT ?capacity@?$vector@VioHashString@@V?$allocator@VioHashString@@@std@@@std@@QBEIXZ
_TEXT	SEGMENT
?capacity@?$vector@VioHashString@@V?$allocator@VioHashString@@@std@@@std@@QBEIXZ PROC ; std::vector<ioHashString,std::allocator<ioHashString> >::capacity, COMDAT
; _this$ = ecx

; 777  : 		return (this->_Myend - this->_Myfirst);

  00000	8b 41 08	 mov	 eax, DWORD PTR [ecx+8]
  00003	2b 01		 sub	 eax, DWORD PTR [ecx]
  00005	c1 f8 04	 sar	 eax, 4

; 778  : 		}

  00008	c3		 ret	 0
?capacity@?$vector@VioHashString@@V?$allocator@VioHashString@@@std@@@std@@QBEIXZ ENDP ; std::vector<ioHashString,std::allocator<ioHashString> >::capacity
_TEXT	ENDS
PUBLIC	?capacity@?$vector@UEntityGroupData@ioWorldMesh@@V?$allocator@UEntityGroupData@ioWorldMesh@@@std@@@std@@QBEIXZ ; std::vector<ioWorldMesh::EntityGroupData,std::allocator<ioWorldMesh::EntityGroupData> >::capacity
; Function compile flags: /Ogsp
;	COMDAT ?capacity@?$vector@UEntityGroupData@ioWorldMesh@@V?$allocator@UEntityGroupData@ioWorldMesh@@@std@@@std@@QBEIXZ
_TEXT	SEGMENT
?capacity@?$vector@UEntityGroupData@ioWorldMesh@@V?$allocator@UEntityGroupData@ioWorldMesh@@@std@@@std@@QBEIXZ PROC ; std::vector<ioWorldMesh::EntityGroupData,std::allocator<ioWorldMesh::EntityGroupData> >::capacity, COMDAT
; _this$ = ecx

; 777  : 		return (this->_Myend - this->_Myfirst);

  00000	8b 41 08	 mov	 eax, DWORD PTR [ecx+8]
  00003	2b 01		 sub	 eax, DWORD PTR [ecx]
  00005	c1 f8 03	 sar	 eax, 3

; 778  : 		}

  00008	c3		 ret	 0
?capacity@?$vector@UEntityGroupData@ioWorldMesh@@V?$allocator@UEntityGroupData@ioWorldMesh@@@std@@@std@@QBEIXZ ENDP ; std::vector<ioWorldMesh::EntityGroupData,std::allocator<ioWorldMesh::EntityGroupData> >::capacity
_TEXT	ENDS
PUBLIC	?size@?$vector@UEntityGroupData@ioWorldMesh@@V?$allocator@UEntityGroupData@ioWorldMesh@@@std@@@std@@QBEIXZ ; std::vector<ioWorldMesh::EntityGroupData,std::allocator<ioWorldMesh::EntityGroupData> >::size
; Function compile flags: /Ogsp
;	COMDAT ?size@?$vector@UEntityGroupData@ioWorldMesh@@V?$allocator@UEntityGroupData@ioWorldMesh@@@std@@@std@@QBEIXZ
_TEXT	SEGMENT
?size@?$vector@UEntityGroupData@ioWorldMesh@@V?$allocator@UEntityGroupData@ioWorldMesh@@@std@@@std@@QBEIXZ PROC ; std::vector<ioWorldMesh::EntityGroupData,std::allocator<ioWorldMesh::EntityGroupData> >::size, COMDAT
; _this$ = ecx

; 879  : 		return (this->_Mylast - this->_Myfirst);

  00000	8b 41 04	 mov	 eax, DWORD PTR [ecx+4]
  00003	2b 01		 sub	 eax, DWORD PTR [ecx]
  00005	c1 f8 03	 sar	 eax, 3

; 880  : 		}

  00008	c3		 ret	 0
?size@?$vector@UEntityGroupData@ioWorldMesh@@V?$allocator@UEntityGroupData@ioWorldMesh@@@std@@@std@@QBEIXZ ENDP ; std::vector<ioWorldMesh::EntityGroupData,std::allocator<ioWorldMesh::EntityGroupData> >::size
_TEXT	ENDS
PUBLIC	??_C@_0BD@OLBABOEK@vector?$DMT?$DO?5too?5long?$AA@ ; `string'
PUBLIC	?_Xlen@?$vector@UEntityGroupData@ioWorldMesh@@V?$allocator@UEntityGroupData@ioWorldMesh@@@std@@@std@@IBEXXZ ; std::vector<ioWorldMesh::EntityGroupData,std::allocator<ioWorldMesh::EntityGroupData> >::_Xlen
EXTRN	__imp_?_Xlength_error@std@@YAXPBD@Z:PROC
;	COMDAT ??_C@_0BD@OLBABOEK@vector?$DMT?$DO?5too?5long?$AA@
CONST	SEGMENT
??_C@_0BD@OLBABOEK@vector?$DMT?$DO?5too?5long?$AA@ DB 'vector<T> too long'
	DB	00H						; `string'
; Function compile flags: /Ogsp
CONST	ENDS
;	COMDAT ?_Xlen@?$vector@UEntityGroupData@ioWorldMesh@@V?$allocator@UEntityGroupData@ioWorldMesh@@@std@@@std@@IBEXXZ
_TEXT	SEGMENT
?_Xlen@?$vector@UEntityGroupData@ioWorldMesh@@V?$allocator@UEntityGroupData@ioWorldMesh@@@std@@@std@@IBEXXZ PROC ; std::vector<ioWorldMesh::EntityGroupData,std::allocator<ioWorldMesh::EntityGroupData> >::_Xlen, COMDAT
; _this$ = ecx

; 1427 : 		_Xlength_error("vector<T> too long");

  00000	68 00 00 00 00	 push	 OFFSET ??_C@_0BD@OLBABOEK@vector?$DMT?$DO?5too?5long?$AA@
  00005	ff 15 00 00 00
	00		 call	 DWORD PTR __imp_?_Xlength_error@std@@YAXPBD@Z
$LN4@Xlen:
$LN3@Xlen:
  0000b	cc		 int	 3
?_Xlen@?$vector@UEntityGroupData@ioWorldMesh@@V?$allocator@UEntityGroupData@ioWorldMesh@@@std@@@std@@IBEXXZ ENDP ; std::vector<ioWorldMesh::EntityGroupData,std::allocator<ioWorldMesh::EntityGroupData> >::_Xlen
_TEXT	ENDS
PUBLIC	??0?$allocator@UEntityGroupData@ioWorldMesh@@@std@@QAE@ABV01@@Z ; std::allocator<ioWorldMesh::EntityGroupData>::allocator<ioWorldMesh::EntityGroupData>
; Function compile flags: /Ogsp
; File c:\program files (x86)\microsoft visual studio 10.0\vc\include\xmemory
;	COMDAT ??0?$allocator@UEntityGroupData@ioWorldMesh@@@std@@QAE@ABV01@@Z
_TEXT	SEGMENT
___formal$ = 8						; size = 4
??0?$allocator@UEntityGroupData@ioWorldMesh@@@std@@QAE@ABV01@@Z PROC ; std::allocator<ioWorldMesh::EntityGroupData>::allocator<ioWorldMesh::EntityGroupData>, COMDAT
; _this$ = ecx

; 165  : 	_ALLOCATOR(const _ALLOCATOR<_Ty>&) _THROW0()

  00000	8b c1		 mov	 eax, ecx

; 166  : 		{	// construct by copying (do nothing)
; 167  : 		}

  00002	c2 04 00	 ret	 4
??0?$allocator@UEntityGroupData@ioWorldMesh@@@std@@QAE@ABV01@@Z ENDP ; std::allocator<ioWorldMesh::EntityGroupData>::allocator<ioWorldMesh::EntityGroupData>
_TEXT	ENDS
PUBLIC	?deallocate@?$allocator@UEntityGroupData@ioWorldMesh@@@std@@QAEXPAUEntityGroupData@ioWorldMesh@@I@Z ; std::allocator<ioWorldMesh::EntityGroupData>::deallocate
; Function compile flags: /Ogsp
;	COMDAT ?deallocate@?$allocator@UEntityGroupData@ioWorldMesh@@@std@@QAEXPAUEntityGroupData@ioWorldMesh@@I@Z
_TEXT	SEGMENT
__Ptr$ = 8						; size = 4
___formal$ = 12						; size = 4
?deallocate@?$allocator@UEntityGroupData@ioWorldMesh@@@std@@QAEXPAUEntityGroupData@ioWorldMesh@@I@Z PROC ; std::allocator<ioWorldMesh::EntityGroupData>::deallocate, COMDAT
; _this$ = ecx

; 181  : 		{	// deallocate object at _Ptr, ignore size

  00000	55		 push	 ebp
  00001	8b ec		 mov	 ebp, esp

; 182  : 		::operator delete(_Ptr);

  00003	ff 75 08	 push	 DWORD PTR __Ptr$[ebp]
  00006	e8 00 00 00 00	 call	 ??3@YAXPAX@Z		; operator delete
  0000b	59		 pop	 ecx

; 183  : 		}

  0000c	5d		 pop	 ebp
  0000d	c2 08 00	 ret	 8
?deallocate@?$allocator@UEntityGroupData@ioWorldMesh@@@std@@QAEXPAUEntityGroupData@ioWorldMesh@@I@Z ENDP ; std::allocator<ioWorldMesh::EntityGroupData>::deallocate
_TEXT	ENDS
PUBLIC	?_Isnil@?$_Tree_val@V?$_Tmap_traits@VioHashString@@UD3DXVECTOR3@@U?$less@VioHashString@@@std@@V?$allocator@U?$pair@$$CBVioHashString@@UD3DXVECTOR3@@@std@@@4@$0A@@std@@@std@@SAAADPAU_Node@?$_Tree_nod@V?$_Tmap_traits@VioHashString@@UD3DXVECTOR3@@U?$less@VioHashString@@@std@@V?$allocator@U?$pair@$$CBVioHashString@@UD3DXVECTOR3@@@std@@@4@$0A@@std@@@2@@Z ; std::_Tree_val<std::_Tmap_traits<ioHashString,D3DXVECTOR3,std::less<ioHashString>,std::allocator<std::pair<ioHashString const ,D3DXVECTOR3> >,0> >::_Isnil
; Function compile flags: /Ogsp
; File c:\program files (x86)\microsoft visual studio 10.0\vc\include\xtree
;	COMDAT ?_Isnil@?$_Tree_val@V?$_Tmap_traits@VioHashString@@UD3DXVECTOR3@@U?$less@VioHashString@@@std@@V?$allocator@U?$pair@$$CBVioHashString@@UD3DXVECTOR3@@@std@@@4@$0A@@std@@@std@@SAAADPAU_Node@?$_Tree_nod@V?$_Tmap_traits@VioHashString@@UD3DXVECTOR3@@U?$less@VioHashString@@@std@@V?$allocator@U?$pair@$$CBVioHashString@@UD3DXVECTOR3@@@std@@@4@$0A@@std@@@2@@Z
_TEXT	SEGMENT
__Pnode$ = 8						; size = 4
?_Isnil@?$_Tree_val@V?$_Tmap_traits@VioHashString@@UD3DXVECTOR3@@U?$less@VioHashString@@@std@@V?$allocator@U?$pair@$$CBVioHashString@@UD3DXVECTOR3@@@std@@@4@$0A@@std@@@std@@SAAADPAU_Node@?$_Tree_nod@V?$_Tmap_traits@VioHashString@@UD3DXVECTOR3@@U?$less@VioHashString@@@std@@V?$allocator@U?$pair@$$CBVioHashString@@UD3DXVECTOR3@@@std@@@4@$0A@@std@@@2@@Z PROC ; std::_Tree_val<std::_Tmap_traits<ioHashString,D3DXVECTOR3,std::less<ioHashString>,std::allocator<std::pair<ioHashString const ,D3DXVECTOR3> >,0> >::_Isnil, COMDAT

; 611  : 		{	// return reference to nil flag in node

  00000	55		 push	 ebp
  00001	8b ec		 mov	 ebp, esp

; 612  : 		return ((char&)(*_Pnode)._Isnil);

  00003	8b 45 08	 mov	 eax, DWORD PTR __Pnode$[ebp]
  00006	83 c0 29	 add	 eax, 41			; 00000029H

; 613  : 		}

  00009	5d		 pop	 ebp
  0000a	c3		 ret	 0
?_Isnil@?$_Tree_val@V?$_Tmap_traits@VioHashString@@UD3DXVECTOR3@@U?$less@VioHashString@@@std@@V?$allocator@U?$pair@$$CBVioHashString@@UD3DXVECTOR3@@@std@@@4@$0A@@std@@@std@@SAAADPAU_Node@?$_Tree_nod@V?$_Tmap_traits@VioHashString@@UD3DXVECTOR3@@U?$less@VioHashString@@@std@@V?$allocator@U?$pair@$$CBVioHashString@@UD3DXVECTOR3@@@std@@@4@$0A@@std@@@2@@Z ENDP ; std::_Tree_val<std::_Tmap_traits<ioHashString,D3DXVECTOR3,std::less<ioHashString>,std::allocator<std::pair<ioHashString const ,D3DXVECTOR3> >,0> >::_Isnil
_TEXT	ENDS
PUBLIC	?_Left@?$_Tree_val@V?$_Tmap_traits@VioHashString@@UD3DXVECTOR3@@U?$less@VioHashString@@@std@@V?$allocator@U?$pair@$$CBVioHashString@@UD3DXVECTOR3@@@std@@@4@$0A@@std@@@std@@SAAAPAU_Node@?$_Tree_nod@V?$_Tmap_traits@VioHashString@@UD3DXVECTOR3@@U?$less@VioHashString@@@std@@V?$allocator@U?$pair@$$CBVioHashString@@UD3DXVECTOR3@@@std@@@4@$0A@@std@@@2@PAU342@@Z ; std::_Tree_val<std::_Tmap_traits<ioHashString,D3DXVECTOR3,std::less<ioHashString>,std::allocator<std::pair<ioHashString const ,D3DXVECTOR3> >,0> >::_Left
; Function compile flags: /Ogsp
;	COMDAT ?_Left@?$_Tree_val@V?$_Tmap_traits@VioHashString@@UD3DXVECTOR3@@U?$less@VioHashString@@@std@@V?$allocator@U?$pair@$$CBVioHashString@@UD3DXVECTOR3@@@std@@@4@$0A@@std@@@std@@SAAAPAU_Node@?$_Tree_nod@V?$_Tmap_traits@VioHashString@@UD3DXVECTOR3@@U?$less@VioHashString@@@std@@V?$allocator@U?$pair@$$CBVioHashString@@UD3DXVECTOR3@@@std@@@4@$0A@@std@@@2@PAU342@@Z
_TEXT	SEGMENT
__Pnode$ = 8						; size = 4
?_Left@?$_Tree_val@V?$_Tmap_traits@VioHashString@@UD3DXVECTOR3@@U?$less@VioHashString@@@std@@V?$allocator@U?$pair@$$CBVioHashString@@UD3DXVECTOR3@@@std@@@4@$0A@@std@@@std@@SAAAPAU_Node@?$_Tree_nod@V?$_Tmap_traits@VioHashString@@UD3DXVECTOR3@@U?$less@VioHashString@@@std@@V?$allocator@U?$pair@$$CBVioHashString@@UD3DXVECTOR3@@@std@@@4@$0A@@std@@@2@PAU342@@Z PROC ; std::_Tree_val<std::_Tmap_traits<ioHashString,D3DXVECTOR3,std::less<ioHashString>,std::allocator<std::pair<ioHashString const ,D3DXVECTOR3> >,0> >::_Left, COMDAT

; 621  : 		{	// return reference to left pointer in node

  00000	55		 push	 ebp
  00001	8b ec		 mov	 ebp, esp

; 622  : 		return ((_Nodepref)(*_Pnode)._Left);

  00003	8b 45 08	 mov	 eax, DWORD PTR __Pnode$[ebp]

; 623  : 		}

  00006	5d		 pop	 ebp
  00007	c3		 ret	 0
?_Left@?$_Tree_val@V?$_Tmap_traits@VioHashString@@UD3DXVECTOR3@@U?$less@VioHashString@@@std@@V?$allocator@U?$pair@$$CBVioHashString@@UD3DXVECTOR3@@@std@@@4@$0A@@std@@@std@@SAAAPAU_Node@?$_Tree_nod@V?$_Tmap_traits@VioHashString@@UD3DXVECTOR3@@U?$less@VioHashString@@@std@@V?$allocator@U?$pair@$$CBVioHashString@@UD3DXVECTOR3@@@std@@@4@$0A@@std@@@2@PAU342@@Z ENDP ; std::_Tree_val<std::_Tmap_traits<ioHashString,D3DXVECTOR3,std::less<ioHashString>,std::allocator<std::pair<ioHashString const ,D3DXVECTOR3> >,0> >::_Left
_TEXT	ENDS
PUBLIC	?_Parent@?$_Tree_val@V?$_Tmap_traits@VioHashString@@UD3DXVECTOR3@@U?$less@VioHashString@@@std@@V?$allocator@U?$pair@$$CBVioHashString@@UD3DXVECTOR3@@@std@@@4@$0A@@std@@@std@@SAAAPAU_Node@?$_Tree_nod@V?$_Tmap_traits@VioHashString@@UD3DXVECTOR3@@U?$less@VioHashString@@@std@@V?$allocator@U?$pair@$$CBVioHashString@@UD3DXVECTOR3@@@std@@@4@$0A@@std@@@2@PAU342@@Z ; std::_Tree_val<std::_Tmap_traits<ioHashString,D3DXVECTOR3,std::less<ioHashString>,std::allocator<std::pair<ioHashString const ,D3DXVECTOR3> >,0> >::_Parent
; Function compile flags: /Ogsp
;	COMDAT ?_Parent@?$_Tree_val@V?$_Tmap_traits@VioHashString@@UD3DXVECTOR3@@U?$less@VioHashString@@@std@@V?$allocator@U?$pair@$$CBVioHashString@@UD3DXVECTOR3@@@std@@@4@$0A@@std@@@std@@SAAAPAU_Node@?$_Tree_nod@V?$_Tmap_traits@VioHashString@@UD3DXVECTOR3@@U?$less@VioHashString@@@std@@V?$allocator@U?$pair@$$CBVioHashString@@UD3DXVECTOR3@@@std@@@4@$0A@@std@@@2@PAU342@@Z
_TEXT	SEGMENT
__Pnode$ = 8						; size = 4
?_Parent@?$_Tree_val@V?$_Tmap_traits@VioHashString@@UD3DXVECTOR3@@U?$less@VioHashString@@@std@@V?$allocator@U?$pair@$$CBVioHashString@@UD3DXVECTOR3@@@std@@@4@$0A@@std@@@std@@SAAAPAU_Node@?$_Tree_nod@V?$_Tmap_traits@VioHashString@@UD3DXVECTOR3@@U?$less@VioHashString@@@std@@V?$allocator@U?$pair@$$CBVioHashString@@UD3DXVECTOR3@@@std@@@4@$0A@@std@@@2@PAU342@@Z PROC ; std::_Tree_val<std::_Tmap_traits<ioHashString,D3DXVECTOR3,std::less<ioHashString>,std::allocator<std::pair<ioHashString const ,D3DXVECTOR3> >,0> >::_Parent, COMDAT

; 626  : 		{	// return reference to parent pointer in node

  00000	55		 push	 ebp
  00001	8b ec		 mov	 ebp, esp

; 627  : 		return ((_Nodepref)(*_Pnode)._Parent);

  00003	8b 45 08	 mov	 eax, DWORD PTR __Pnode$[ebp]
  00006	83 c0 04	 add	 eax, 4

; 628  : 		}

  00009	5d		 pop	 ebp
  0000a	c3		 ret	 0
?_Parent@?$_Tree_val@V?$_Tmap_traits@VioHashString@@UD3DXVECTOR3@@U?$less@VioHashString@@@std@@V?$allocator@U?$pair@$$CBVioHashString@@UD3DXVECTOR3@@@std@@@4@$0A@@std@@@std@@SAAAPAU_Node@?$_Tree_nod@V?$_Tmap_traits@VioHashString@@UD3DXVECTOR3@@U?$less@VioHashString@@@std@@V?$allocator@U?$pair@$$CBVioHashString@@UD3DXVECTOR3@@@std@@@4@$0A@@std@@@2@PAU342@@Z ENDP ; std::_Tree_val<std::_Tmap_traits<ioHashString,D3DXVECTOR3,std::less<ioHashString>,std::allocator<std::pair<ioHashString const ,D3DXVECTOR3> >,0> >::_Parent
_TEXT	ENDS
PUBLIC	?_Right@?$_Tree_val@V?$_Tmap_traits@VioHashString@@UD3DXVECTOR3@@U?$less@VioHashString@@@std@@V?$allocator@U?$pair@$$CBVioHashString@@UD3DXVECTOR3@@@std@@@4@$0A@@std@@@std@@SAAAPAU_Node@?$_Tree_nod@V?$_Tmap_traits@VioHashString@@UD3DXVECTOR3@@U?$less@VioHashString@@@std@@V?$allocator@U?$pair@$$CBVioHashString@@UD3DXVECTOR3@@@std@@@4@$0A@@std@@@2@PAU342@@Z ; std::_Tree_val<std::_Tmap_traits<ioHashString,D3DXVECTOR3,std::less<ioHashString>,std::allocator<std::pair<ioHashString const ,D3DXVECTOR3> >,0> >::_Right
; Function compile flags: /Ogsp
;	COMDAT ?_Right@?$_Tree_val@V?$_Tmap_traits@VioHashString@@UD3DXVECTOR3@@U?$less@VioHashString@@@std@@V?$allocator@U?$pair@$$CBVioHashString@@UD3DXVECTOR3@@@std@@@4@$0A@@std@@@std@@SAAAPAU_Node@?$_Tree_nod@V?$_Tmap_traits@VioHashString@@UD3DXVECTOR3@@U?$less@VioHashString@@@std@@V?$allocator@U?$pair@$$CBVioHashString@@UD3DXVECTOR3@@@std@@@4@$0A@@std@@@2@PAU342@@Z
_TEXT	SEGMENT
__Pnode$ = 8						; size = 4
?_Right@?$_Tree_val@V?$_Tmap_traits@VioHashString@@UD3DXVECTOR3@@U?$less@VioHashString@@@std@@V?$allocator@U?$pair@$$CBVioHashString@@UD3DXVECTOR3@@@std@@@4@$0A@@std@@@std@@SAAAPAU_Node@?$_Tree_nod@V?$_Tmap_traits@VioHashString@@UD3DXVECTOR3@@U?$less@VioHashString@@@std@@V?$allocator@U?$pair@$$CBVioHashString@@UD3DXVECTOR3@@@std@@@4@$0A@@std@@@2@PAU342@@Z PROC ; std::_Tree_val<std::_Tmap_traits<ioHashString,D3DXVECTOR3,std::less<ioHashString>,std::allocator<std::pair<ioHashString const ,D3DXVECTOR3> >,0> >::_Right, COMDAT

; 631  : 		{	// return reference to right pointer in node

  00000	55		 push	 ebp
  00001	8b ec		 mov	 ebp, esp

; 632  : 		return ((_Nodepref)(*_Pnode)._Right);

  00003	8b 45 08	 mov	 eax, DWORD PTR __Pnode$[ebp]
  00006	83 c0 08	 add	 eax, 8

; 633  : 		}

  00009	5d		 pop	 ebp
  0000a	c3		 ret	 0
?_Right@?$_Tree_val@V?$_Tmap_traits@VioHashString@@UD3DXVECTOR3@@U?$less@VioHashString@@@std@@V?$allocator@U?$pair@$$CBVioHashString@@UD3DXVECTOR3@@@std@@@4@$0A@@std@@@std@@SAAAPAU_Node@?$_Tree_nod@V?$_Tmap_traits@VioHashString@@UD3DXVECTOR3@@U?$less@VioHashString@@@std@@V?$allocator@U?$pair@$$CBVioHashString@@UD3DXVECTOR3@@@std@@@4@$0A@@std@@@2@PAU342@@Z ENDP ; std::_Tree_val<std::_Tmap_traits<ioHashString,D3DXVECTOR3,std::less<ioHashString>,std::allocator<std::pair<ioHashString const ,D3DXVECTOR3> >,0> >::_Right
_TEXT	ENDS
PUBLIC	?_Myval@?$_Tree_val@V?$_Tmap_traits@VioHashString@@UD3DXVECTOR3@@U?$less@VioHashString@@@std@@V?$allocator@U?$pair@$$CBVioHashString@@UD3DXVECTOR3@@@std@@@4@$0A@@std@@@std@@SAAAU?$pair@$$CBVioHashString@@UD3DXVECTOR3@@@2@PAU_Node@?$_Tree_nod@V?$_Tmap_traits@VioHashString@@UD3DXVECTOR3@@U?$less@VioHashString@@@std@@V?$allocator@U?$pair@$$CBVioHashString@@UD3DXVECTOR3@@@std@@@4@$0A@@std@@@2@@Z ; std::_Tree_val<std::_Tmap_traits<ioHashString,D3DXVECTOR3,std::less<ioHashString>,std::allocator<std::pair<ioHashString const ,D3DXVECTOR3> >,0> >::_Myval
; Function compile flags: /Ogsp
;	COMDAT ?_Myval@?$_Tree_val@V?$_Tmap_traits@VioHashString@@UD3DXVECTOR3@@U?$less@VioHashString@@@std@@V?$allocator@U?$pair@$$CBVioHashString@@UD3DXVECTOR3@@@std@@@4@$0A@@std@@@std@@SAAAU?$pair@$$CBVioHashString@@UD3DXVECTOR3@@@2@PAU_Node@?$_Tree_nod@V?$_Tmap_traits@VioHashString@@UD3DXVECTOR3@@U?$less@VioHashString@@@std@@V?$allocator@U?$pair@$$CBVioHashString@@UD3DXVECTOR3@@@std@@@4@$0A@@std@@@2@@Z
_TEXT	SEGMENT
__Pnode$ = 8						; size = 4
?_Myval@?$_Tree_val@V?$_Tmap_traits@VioHashString@@UD3DXVECTOR3@@U?$less@VioHashString@@@std@@V?$allocator@U?$pair@$$CBVioHashString@@UD3DXVECTOR3@@@std@@@4@$0A@@std@@@std@@SAAAU?$pair@$$CBVioHashString@@UD3DXVECTOR3@@@2@PAU_Node@?$_Tree_nod@V?$_Tmap_traits@VioHashString@@UD3DXVECTOR3@@U?$less@VioHashString@@@std@@V?$allocator@U?$pair@$$CBVioHashString@@UD3DXVECTOR3@@@std@@@4@$0A@@std@@@2@@Z PROC ; std::_Tree_val<std::_Tmap_traits<ioHashString,D3DXVECTOR3,std::less<ioHashString>,std::allocator<std::pair<ioHashString const ,D3DXVECTOR3> >,0> >::_Myval, COMDAT

; 636  : 		{	// return reference to value in node

  00000	55		 push	 ebp
  00001	8b ec		 mov	 ebp, esp

; 637  : 		return ((reference)(*_Pnode)._Myval);

  00003	8b 45 08	 mov	 eax, DWORD PTR __Pnode$[ebp]
  00006	83 c0 0c	 add	 eax, 12			; 0000000cH

; 638  : 		}

  00009	5d		 pop	 ebp
  0000a	c3		 ret	 0
?_Myval@?$_Tree_val@V?$_Tmap_traits@VioHashString@@UD3DXVECTOR3@@U?$less@VioHashString@@@std@@V?$allocator@U?$pair@$$CBVioHashString@@UD3DXVECTOR3@@@std@@@4@$0A@@std@@@std@@SAAAU?$pair@$$CBVioHashString@@UD3DXVECTOR3@@@2@PAU_Node@?$_Tree_nod@V?$_Tmap_traits@VioHashString@@UD3DXVECTOR3@@U?$less@VioHashString@@@std@@V?$allocator@U?$pair@$$CBVioHashString@@UD3DXVECTOR3@@@std@@@4@$0A@@std@@@2@@Z ENDP ; std::_Tree_val<std::_Tmap_traits<ioHashString,D3DXVECTOR3,std::less<ioHashString>,std::allocator<std::pair<ioHashString const ,D3DXVECTOR3> >,0> >::_Myval
_TEXT	ENDS
PUBLIC	??0?$allocator@U?$pair@$$CBVioHashString@@UD3DXVECTOR3@@@std@@@std@@QAE@ABV01@@Z ; std::allocator<std::pair<ioHashString const ,D3DXVECTOR3> >::allocator<std::pair<ioHashString const ,D3DXVECTOR3> >
; Function compile flags: /Ogsp
; File c:\program files (x86)\microsoft visual studio 10.0\vc\include\xmemory
;	COMDAT ??0?$allocator@U?$pair@$$CBVioHashString@@UD3DXVECTOR3@@@std@@@std@@QAE@ABV01@@Z
_TEXT	SEGMENT
___formal$ = 8						; size = 4
??0?$allocator@U?$pair@$$CBVioHashString@@UD3DXVECTOR3@@@std@@@std@@QAE@ABV01@@Z PROC ; std::allocator<std::pair<ioHashString const ,D3DXVECTOR3> >::allocator<std::pair<ioHashString const ,D3DXVECTOR3> >, COMDAT
; _this$ = ecx

; 165  : 	_ALLOCATOR(const _ALLOCATOR<_Ty>&) _THROW0()

  00000	8b c1		 mov	 eax, ecx

; 166  : 		{	// construct by copying (do nothing)
; 167  : 		}

  00002	c2 04 00	 ret	 4
??0?$allocator@U?$pair@$$CBVioHashString@@UD3DXVECTOR3@@@std@@@std@@QAE@ABV01@@Z ENDP ; std::allocator<std::pair<ioHashString const ,D3DXVECTOR3> >::allocator<std::pair<ioHashString const ,D3DXVECTOR3> >
_TEXT	ENDS
PUBLIC	?deallocate@?$allocator@U_Node@?$_Tree_nod@V?$_Tmap_traits@VioHashString@@UD3DXVECTOR3@@U?$less@VioHashString@@@std@@V?$allocator@U?$pair@$$CBVioHashString@@UD3DXVECTOR3@@@std@@@4@$0A@@std@@@std@@@std@@QAEXPAU_Node@?$_Tree_nod@V?$_Tmap_traits@VioHashString@@UD3DXVECTOR3@@U?$less@VioHashString@@@std@@V?$allocator@U?$pair@$$CBVioHashString@@UD3DXVECTOR3@@@std@@@4@$0A@@std@@@2@I@Z ; std::allocator<std::_Tree_nod<std::_Tmap_traits<ioHashString,D3DXVECTOR3,std::less<ioHashString>,std::allocator<std::pair<ioHashString const ,D3DXVECTOR3> >,0> >::_Node>::deallocate
; Function compile flags: /Ogsp
;	COMDAT ?deallocate@?$allocator@U_Node@?$_Tree_nod@V?$_Tmap_traits@VioHashString@@UD3DXVECTOR3@@U?$less@VioHashString@@@std@@V?$allocator@U?$pair@$$CBVioHashString@@UD3DXVECTOR3@@@std@@@4@$0A@@std@@@std@@@std@@QAEXPAU_Node@?$_Tree_nod@V?$_Tmap_traits@VioHashString@@UD3DXVECTOR3@@U?$less@VioHashString@@@std@@V?$allocator@U?$pair@$$CBVioHashString@@UD3DXVECTOR3@@@std@@@4@$0A@@std@@@2@I@Z
_TEXT	SEGMENT
__Ptr$ = 8						; size = 4
___formal$ = 12						; size = 4
?deallocate@?$allocator@U_Node@?$_Tree_nod@V?$_Tmap_traits@VioHashString@@UD3DXVECTOR3@@U?$less@VioHashString@@@std@@V?$allocator@U?$pair@$$CBVioHashString@@UD3DXVECTOR3@@@std@@@4@$0A@@std@@@std@@@std@@QAEXPAU_Node@?$_Tree_nod@V?$_Tmap_traits@VioHashString@@UD3DXVECTOR3@@U?$less@VioHashString@@@std@@V?$allocator@U?$pair@$$CBVioHashString@@UD3DXVECTOR3@@@std@@@4@$0A@@std@@@2@I@Z PROC ; std::allocator<std::_Tree_nod<std::_Tmap_traits<ioHashString,D3DXVECTOR3,std::less<ioHashString>,std::allocator<std::pair<ioHashString const ,D3DXVECTOR3> >,0> >::_Node>::deallocate, COMDAT
; _this$ = ecx

; 181  : 		{	// deallocate object at _Ptr, ignore size

  00000	55		 push	 ebp
  00001	8b ec		 mov	 ebp, esp

; 182  : 		::operator delete(_Ptr);

  00003	ff 75 08	 push	 DWORD PTR __Ptr$[ebp]
  00006	e8 00 00 00 00	 call	 ??3@YAXPAX@Z		; operator delete
  0000b	59		 pop	 ecx

; 183  : 		}

  0000c	5d		 pop	 ebp
  0000d	c2 08 00	 ret	 8
?deallocate@?$allocator@U_Node@?$_Tree_nod@V?$_Tmap_traits@VioHashString@@UD3DXVECTOR3@@U?$less@VioHashString@@@std@@V?$allocator@U?$pair@$$CBVioHashString@@UD3DXVECTOR3@@@std@@@4@$0A@@std@@@std@@@std@@QAEXPAU_Node@?$_Tree_nod@V?$_Tmap_traits@VioHashString@@UD3DXVECTOR3@@U?$less@VioHashString@@@std@@V?$allocator@U?$pair@$$CBVioHashString@@UD3DXVECTOR3@@@std@@@4@$0A@@std@@@2@I@Z ENDP ; std::allocator<std::_Tree_nod<std::_Tmap_traits<ioHashString,D3DXVECTOR3,std::less<ioHashString>,std::allocator<std::pair<ioHashString const ,D3DXVECTOR3> >,0> >::_Node>::deallocate
_TEXT	ENDS
PUBLIC	??0?$_Vector_const_iterator@V?$_Vector_val@UEntityGroupData@ioWorldMesh@@V?$allocator@UEntityGroupData@ioWorldMesh@@@std@@@std@@@std@@QAE@PAUEntityGroupData@ioWorldMesh@@PBU_Container_base0@1@@Z ; std::_Vector_const_iterator<std::_Vector_val<ioWorldMesh::EntityGroupData,std::allocator<ioWorldMesh::EntityGroupData> > >::_Vector_const_iterator<std::_Vector_val<ioWorldMesh::EntityGroupData,std::allocator<ioWorldMesh::EntityGroupData> > >
; Function compile flags: /Ogsp
; File c:\program files (x86)\microsoft visual studio 10.0\vc\include\vector
;	COMDAT ??0?$_Vector_const_iterator@V?$_Vector_val@UEntityGroupData@ioWorldMesh@@V?$allocator@UEntityGroupData@ioWorldMesh@@@std@@@std@@@std@@QAE@PAUEntityGroupData@ioWorldMesh@@PBU_Container_base0@1@@Z
_TEXT	SEGMENT
__Parg$ = 8						; size = 4
__Pvector$ = 12						; size = 4
??0?$_Vector_const_iterator@V?$_Vector_val@UEntityGroupData@ioWorldMesh@@V?$allocator@UEntityGroupData@ioWorldMesh@@@std@@@std@@@std@@QAE@PAUEntityGroupData@ioWorldMesh@@PBU_Container_base0@1@@Z PROC ; std::_Vector_const_iterator<std::_Vector_val<ioWorldMesh::EntityGroupData,std::allocator<ioWorldMesh::EntityGroupData> > >::_Vector_const_iterator<std::_Vector_val<ioWorldMesh::EntityGroupData,std::allocator<ioWorldMesh::EntityGroupData> > >, COMDAT
; _this$ = ecx

; 45   : 		{	// construct with pointer _Parg

  00000	55		 push	 ebp
  00001	8b ec		 mov	 ebp, esp
  00003	8b c1		 mov	 eax, ecx
  00005	8b 4d 08	 mov	 ecx, DWORD PTR __Parg$[ebp]
  00008	89 08		 mov	 DWORD PTR [eax], ecx

; 46   : 		this->_Adopt(_Pvector);
; 47   : 		}

  0000a	5d		 pop	 ebp
  0000b	c2 08 00	 ret	 8
??0?$_Vector_const_iterator@V?$_Vector_val@UEntityGroupData@ioWorldMesh@@V?$allocator@UEntityGroupData@ioWorldMesh@@@std@@@std@@@std@@QAE@PAUEntityGroupData@ioWorldMesh@@PBU_Container_base0@1@@Z ENDP ; std::_Vector_const_iterator<std::_Vector_val<ioWorldMesh::EntityGroupData,std::allocator<ioWorldMesh::EntityGroupData> > >::_Vector_const_iterator<std::_Vector_val<ioWorldMesh::EntityGroupData,std::allocator<ioWorldMesh::EntityGroupData> > >
_TEXT	ENDS
PUBLIC	?_Compat@?$_Vector_const_iterator@V?$_Vector_val@UEntityGroupData@ioWorldMesh@@V?$allocator@UEntityGroupData@ioWorldMesh@@@std@@@std@@@std@@QBEXABV12@@Z ; std::_Vector_const_iterator<std::_Vector_val<ioWorldMesh::EntityGroupData,std::allocator<ioWorldMesh::EntityGroupData> > >::_Compat
; Function compile flags: /Ogsp
;	COMDAT ?_Compat@?$_Vector_const_iterator@V?$_Vector_val@UEntityGroupData@ioWorldMesh@@V?$allocator@UEntityGroupData@ioWorldMesh@@@std@@@std@@@std@@QBEXABV12@@Z
_TEXT	SEGMENT
___formal$ = 8						; size = 4
?_Compat@?$_Vector_const_iterator@V?$_Vector_val@UEntityGroupData@ioWorldMesh@@V?$allocator@UEntityGroupData@ioWorldMesh@@@std@@@std@@@std@@QBEXABV12@@Z PROC ; std::_Vector_const_iterator<std::_Vector_val<ioWorldMesh::EntityGroupData,std::allocator<ioWorldMesh::EntityGroupData> > >::_Compat, COMDAT
; _this$ = ecx

; 253  : 		}

  00000	c2 04 00	 ret	 4
?_Compat@?$_Vector_const_iterator@V?$_Vector_val@UEntityGroupData@ioWorldMesh@@V?$allocator@UEntityGroupData@ioWorldMesh@@@std@@@std@@@std@@QBEXABV12@@Z ENDP ; std::_Vector_const_iterator<std::_Vector_val<ioWorldMesh::EntityGroupData,std::allocator<ioWorldMesh::EntityGroupData> > >::_Compat
_TEXT	ENDS
PUBLIC	??D?$_Tree_const_iterator@V?$_Tree_val@V?$_Tmap_traits@VioHashString@@UD3DXVECTOR3@@U?$less@VioHashString@@@std@@V?$allocator@U?$pair@$$CBVioHashString@@UD3DXVECTOR3@@@std@@@4@$0A@@std@@@std@@@std@@QBEABU?$pair@$$CBVioHashString@@UD3DXVECTOR3@@@1@XZ ; std::_Tree_const_iterator<std::_Tree_val<std::_Tmap_traits<ioHashString,D3DXVECTOR3,std::less<ioHashString>,std::allocator<std::pair<ioHashString const ,D3DXVECTOR3> >,0> > >::operator*
; Function compile flags: /Ogsp
; File c:\program files (x86)\microsoft visual studio 10.0\vc\include\xtree
;	COMDAT ??D?$_Tree_const_iterator@V?$_Tree_val@V?$_Tmap_traits@VioHashString@@UD3DXVECTOR3@@U?$less@VioHashString@@@std@@V?$allocator@U?$pair@$$CBVioHashString@@UD3DXVECTOR3@@@std@@@4@$0A@@std@@@std@@@std@@QBEABU?$pair@$$CBVioHashString@@UD3DXVECTOR3@@@1@XZ
_TEXT	SEGMENT
??D?$_Tree_const_iterator@V?$_Tree_val@V?$_Tmap_traits@VioHashString@@UD3DXVECTOR3@@U?$less@VioHashString@@@std@@V?$allocator@U?$pair@$$CBVioHashString@@UD3DXVECTOR3@@@std@@@4@$0A@@std@@@std@@@std@@QBEABU?$pair@$$CBVioHashString@@UD3DXVECTOR3@@@1@XZ PROC ; std::_Tree_const_iterator<std::_Tree_val<std::_Tmap_traits<ioHashString,D3DXVECTOR3,std::less<ioHashString>,std::allocator<std::pair<ioHashString const ,D3DXVECTOR3> >,0> > >::operator*, COMDAT
; _this$ = ecx

; 231  :  #if _ITERATOR_DEBUG_LEVEL == 2
; 232  : 		if (this->_Getcont() == 0
; 233  : 			|| this->_Ptr == 0
; 234  : 			|| this->_Ptr == ((_Mytree *)this->_Getcont())->_Myhead)
; 235  : 			{	// report error
; 236  : 			_DEBUG_ERROR("map/set iterator not dereferencable");
; 237  : 			_SCL_SECURE_OUT_OF_RANGE;
; 238  : 			}
; 239  : 
; 240  :  #elif _ITERATOR_DEBUG_LEVEL == 1
; 241  : 		_SCL_SECURE_VALIDATE(this->_Getcont() != 0 && this->_Ptr != 0);
; 242  : 		_SCL_SECURE_VALIDATE_RANGE(this->_Ptr !=
; 243  : 			((_Mytree *)this->_Getcont())->_Myhead);
; 244  :  #endif /* _ITERATOR_DEBUG_LEVEL */
; 245  : 
; 246  : 		return (_Mytree::_Myval(this->_Ptr));

  00000	8b 01		 mov	 eax, DWORD PTR [ecx]
  00002	83 c0 0c	 add	 eax, 12			; 0000000cH

; 247  : 		}

  00005	c3		 ret	 0
??D?$_Tree_const_iterator@V?$_Tree_val@V?$_Tmap_traits@VioHashString@@UD3DXVECTOR3@@U?$less@VioHashString@@@std@@V?$allocator@U?$pair@$$CBVioHashString@@UD3DXVECTOR3@@@std@@@4@$0A@@std@@@std@@@std@@QBEABU?$pair@$$CBVioHashString@@UD3DXVECTOR3@@@1@XZ ENDP ; std::_Tree_const_iterator<std::_Tree_val<std::_Tmap_traits<ioHashString,D3DXVECTOR3,std::less<ioHashString>,std::allocator<std::pair<ioHashString const ,D3DXVECTOR3> >,0> > >::operator*
_TEXT	ENDS
PUBLIC	??9?$_Tree_const_iterator@V?$_Tree_val@V?$_Tmap_traits@VioHashString@@UD3DXVECTOR3@@U?$less@VioHashString@@@std@@V?$allocator@U?$pair@$$CBVioHashString@@UD3DXVECTOR3@@@std@@@4@$0A@@std@@@std@@@std@@QBE_NABV01@@Z ; std::_Tree_const_iterator<std::_Tree_val<std::_Tmap_traits<ioHashString,D3DXVECTOR3,std::less<ioHashString>,std::allocator<std::pair<ioHashString const ,D3DXVECTOR3> >,0> > >::operator!=
; Function compile flags: /Ogsp
;	COMDAT ??9?$_Tree_const_iterator@V?$_Tree_val@V?$_Tmap_traits@VioHashString@@UD3DXVECTOR3@@U?$less@VioHashString@@@std@@V?$allocator@U?$pair@$$CBVioHashString@@UD3DXVECTOR3@@@std@@@4@$0A@@std@@@std@@@std@@QBE_NABV01@@Z
_TEXT	SEGMENT
__Right$ = 8						; size = 4
??9?$_Tree_const_iterator@V?$_Tree_val@V?$_Tmap_traits@VioHashString@@UD3DXVECTOR3@@U?$less@VioHashString@@@std@@V?$allocator@U?$pair@$$CBVioHashString@@UD3DXVECTOR3@@@std@@@4@$0A@@std@@@std@@@std@@QBE_NABV01@@Z PROC ; std::_Tree_const_iterator<std::_Tree_val<std::_Tmap_traits<ioHashString,D3DXVECTOR3,std::less<ioHashString>,std::allocator<std::pair<ioHashString const ,D3DXVECTOR3> >,0> > >::operator!=, COMDAT
; _this$ = ecx

; 334  : 		{	// test for iterator inequality

  00000	55		 push	 ebp
  00001	8b ec		 mov	 ebp, esp

; 335  : 		return (!(*this == _Right));

  00003	8b 01		 mov	 eax, DWORD PTR [ecx]
  00005	8b 55 08	 mov	 edx, DWORD PTR __Right$[ebp]
  00008	33 c9		 xor	 ecx, ecx
  0000a	3b 02		 cmp	 eax, DWORD PTR [edx]
  0000c	0f 95 c0	 setne	 al

; 336  : 		}

  0000f	5d		 pop	 ebp
  00010	c2 04 00	 ret	 4
??9?$_Tree_const_iterator@V?$_Tree_val@V?$_Tmap_traits@VioHashString@@UD3DXVECTOR3@@U?$less@VioHashString@@@std@@V?$allocator@U?$pair@$$CBVioHashString@@UD3DXVECTOR3@@@std@@@4@$0A@@std@@@std@@@std@@QBE_NABV01@@Z ENDP ; std::_Tree_const_iterator<std::_Tree_val<std::_Tmap_traits<ioHashString,D3DXVECTOR3,std::less<ioHashString>,std::allocator<std::pair<ioHashString const ,D3DXVECTOR3> >,0> > >::operator!=
_TEXT	ENDS
PUBLIC	?max_size@?$allocator@UEntityGroupData@ioWorldMesh@@@std@@QBEIXZ ; std::allocator<ioWorldMesh::EntityGroupData>::max_size
; Function compile flags: /Ogsp
; File c:\program files (x86)\microsoft visual studio 10.0\vc\include\xmemory
;	COMDAT ?max_size@?$allocator@UEntityGroupData@ioWorldMesh@@@std@@QBEIXZ
_TEXT	SEGMENT
?max_size@?$allocator@UEntityGroupData@ioWorldMesh@@@std@@QBEIXZ PROC ; std::allocator<ioWorldMesh::EntityGroupData>::max_size, COMDAT
; _this$ = ecx

; 218  : 		_SIZT _Count = (_SIZT)(-1) / sizeof (_Ty);
; 219  : 		return (0 < _Count ? _Count : 1);

  00000	b8 ff ff ff 1f	 mov	 eax, 536870911		; 1fffffffH

; 220  : 		}

  00005	c3		 ret	 0
?max_size@?$allocator@UEntityGroupData@ioWorldMesh@@@std@@QBEIXZ ENDP ; std::allocator<ioWorldMesh::EntityGroupData>::max_size
_TEXT	ENDS
PUBLIC	?_Color@?$_Tree_val@V?$_Tmap_traits@VioHashString@@UD3DXVECTOR3@@U?$less@VioHashString@@@std@@V?$allocator@U?$pair@$$CBVioHashString@@UD3DXVECTOR3@@@std@@@4@$0A@@std@@@std@@SAAADPAU_Node@?$_Tree_nod@V?$_Tmap_traits@VioHashString@@UD3DXVECTOR3@@U?$less@VioHashString@@@std@@V?$allocator@U?$pair@$$CBVioHashString@@UD3DXVECTOR3@@@std@@@4@$0A@@std@@@2@@Z ; std::_Tree_val<std::_Tmap_traits<ioHashString,D3DXVECTOR3,std::less<ioHashString>,std::allocator<std::pair<ioHashString const ,D3DXVECTOR3> >,0> >::_Color
; Function compile flags: /Ogsp
; File c:\program files (x86)\microsoft visual studio 10.0\vc\include\xtree
;	COMDAT ?_Color@?$_Tree_val@V?$_Tmap_traits@VioHashString@@UD3DXVECTOR3@@U?$less@VioHashString@@@std@@V?$allocator@U?$pair@$$CBVioHashString@@UD3DXVECTOR3@@@std@@@4@$0A@@std@@@std@@SAAADPAU_Node@?$_Tree_nod@V?$_Tmap_traits@VioHashString@@UD3DXVECTOR3@@U?$less@VioHashString@@@std@@V?$allocator@U?$pair@$$CBVioHashString@@UD3DXVECTOR3@@@std@@@4@$0A@@std@@@2@@Z
_TEXT	SEGMENT
__Pnode$ = 8						; size = 4
?_Color@?$_Tree_val@V?$_Tmap_traits@VioHashString@@UD3DXVECTOR3@@U?$less@VioHashString@@@std@@V?$allocator@U?$pair@$$CBVioHashString@@UD3DXVECTOR3@@@std@@@4@$0A@@std@@@std@@SAAADPAU_Node@?$_Tree_nod@V?$_Tmap_traits@VioHashString@@UD3DXVECTOR3@@U?$less@VioHashString@@@std@@V?$allocator@U?$pair@$$CBVioHashString@@UD3DXVECTOR3@@@std@@@4@$0A@@std@@@2@@Z PROC ; std::_Tree_val<std::_Tmap_traits<ioHashString,D3DXVECTOR3,std::less<ioHashString>,std::allocator<std::pair<ioHashString const ,D3DXVECTOR3> >,0> >::_Color, COMDAT

; 606  : 		{	// return reference to color in node

  00000	55		 push	 ebp
  00001	8b ec		 mov	 ebp, esp

; 607  : 		return ((char&)(*_Pnode)._Color);

  00003	8b 45 08	 mov	 eax, DWORD PTR __Pnode$[ebp]
  00006	83 c0 28	 add	 eax, 40			; 00000028H

; 608  : 		}

  00009	5d		 pop	 ebp
  0000a	c3		 ret	 0
?_Color@?$_Tree_val@V?$_Tmap_traits@VioHashString@@UD3DXVECTOR3@@U?$less@VioHashString@@@std@@V?$allocator@U?$pair@$$CBVioHashString@@UD3DXVECTOR3@@@std@@@4@$0A@@std@@@std@@SAAADPAU_Node@?$_Tree_nod@V?$_Tmap_traits@VioHashString@@UD3DXVECTOR3@@U?$less@VioHashString@@@std@@V?$allocator@U?$pair@$$CBVioHashString@@UD3DXVECTOR3@@@std@@@4@$0A@@std@@@2@@Z ENDP ; std::_Tree_val<std::_Tmap_traits<ioHashString,D3DXVECTOR3,std::less<ioHashString>,std::allocator<std::pair<ioHashString const ,D3DXVECTOR3> >,0> >::_Color
_TEXT	ENDS
PUBLIC	?_Max@?$_Tree_val@V?$_Tmap_traits@VioHashString@@UD3DXVECTOR3@@U?$less@VioHashString@@@std@@V?$allocator@U?$pair@$$CBVioHashString@@UD3DXVECTOR3@@@std@@@4@$0A@@std@@@std@@SAPAU_Node@?$_Tree_nod@V?$_Tmap_traits@VioHashString@@UD3DXVECTOR3@@U?$less@VioHashString@@@std@@V?$allocator@U?$pair@$$CBVioHashString@@UD3DXVECTOR3@@@std@@@4@$0A@@std@@@2@PAU342@@Z ; std::_Tree_val<std::_Tmap_traits<ioHashString,D3DXVECTOR3,std::less<ioHashString>,std::allocator<std::pair<ioHashString const ,D3DXVECTOR3> >,0> >::_Max
; Function compile flags: /Ogsp
;	COMDAT ?_Max@?$_Tree_val@V?$_Tmap_traits@VioHashString@@UD3DXVECTOR3@@U?$less@VioHashString@@@std@@V?$allocator@U?$pair@$$CBVioHashString@@UD3DXVECTOR3@@@std@@@4@$0A@@std@@@std@@SAPAU_Node@?$_Tree_nod@V?$_Tmap_traits@VioHashString@@UD3DXVECTOR3@@U?$less@VioHashString@@@std@@V?$allocator@U?$pair@$$CBVioHashString@@UD3DXVECTOR3@@@std@@@4@$0A@@std@@@2@PAU342@@Z
_TEXT	SEGMENT
__Pnode$ = 8						; size = 4
?_Max@?$_Tree_val@V?$_Tmap_traits@VioHashString@@UD3DXVECTOR3@@U?$less@VioHashString@@@std@@V?$allocator@U?$pair@$$CBVioHashString@@UD3DXVECTOR3@@@std@@@4@$0A@@std@@@std@@SAPAU_Node@?$_Tree_nod@V?$_Tmap_traits@VioHashString@@UD3DXVECTOR3@@U?$less@VioHashString@@@std@@V?$allocator@U?$pair@$$CBVioHashString@@UD3DXVECTOR3@@@std@@@4@$0A@@std@@@2@PAU342@@Z PROC ; std::_Tree_val<std::_Tmap_traits<ioHashString,D3DXVECTOR3,std::less<ioHashString>,std::allocator<std::pair<ioHashString const ,D3DXVECTOR3> >,0> >::_Max, COMDAT

; 641  : 		{	// return rightmost node in subtree at _Pnode

  00000	55		 push	 ebp
  00001	8b ec		 mov	 ebp, esp

; 642  : 		while (!_Isnil(_Right(_Pnode)))

  00003	8b 45 08	 mov	 eax, DWORD PTR __Pnode$[ebp]
  00006	eb 02		 jmp	 SHORT $LN14@Max
$LL2@Max:

; 643  : 			_Pnode = _Right(_Pnode);

  00008	8b c1		 mov	 eax, ecx
$LN14@Max:

; 642  : 		while (!_Isnil(_Right(_Pnode)))

  0000a	8b 48 08	 mov	 ecx, DWORD PTR [eax+8]
  0000d	80 79 29 00	 cmp	 BYTE PTR [ecx+41], 0
  00011	74 f5		 je	 SHORT $LL2@Max

; 644  : 		return (_Pnode);
; 645  : 		}

  00013	5d		 pop	 ebp
  00014	c3		 ret	 0
?_Max@?$_Tree_val@V?$_Tmap_traits@VioHashString@@UD3DXVECTOR3@@U?$less@VioHashString@@@std@@V?$allocator@U?$pair@$$CBVioHashString@@UD3DXVECTOR3@@@std@@@4@$0A@@std@@@std@@SAPAU_Node@?$_Tree_nod@V?$_Tmap_traits@VioHashString@@UD3DXVECTOR3@@U?$less@VioHashString@@@std@@V?$allocator@U?$pair@$$CBVioHashString@@UD3DXVECTOR3@@@std@@@4@$0A@@std@@@2@PAU342@@Z ENDP ; std::_Tree_val<std::_Tmap_traits<ioHashString,D3DXVECTOR3,std::less<ioHashString>,std::allocator<std::pair<ioHashString const ,D3DXVECTOR3> >,0> >::_Max
_TEXT	ENDS
PUBLIC	?_Min@?$_Tree_val@V?$_Tmap_traits@VioHashString@@UD3DXVECTOR3@@U?$less@VioHashString@@@std@@V?$allocator@U?$pair@$$CBVioHashString@@UD3DXVECTOR3@@@std@@@4@$0A@@std@@@std@@SAPAU_Node@?$_Tree_nod@V?$_Tmap_traits@VioHashString@@UD3DXVECTOR3@@U?$less@VioHashString@@@std@@V?$allocator@U?$pair@$$CBVioHashString@@UD3DXVECTOR3@@@std@@@4@$0A@@std@@@2@PAU342@@Z ; std::_Tree_val<std::_Tmap_traits<ioHashString,D3DXVECTOR3,std::less<ioHashString>,std::allocator<std::pair<ioHashString const ,D3DXVECTOR3> >,0> >::_Min
; Function compile flags: /Ogsp
;	COMDAT ?_Min@?$_Tree_val@V?$_Tmap_traits@VioHashString@@UD3DXVECTOR3@@U?$less@VioHashString@@@std@@V?$allocator@U?$pair@$$CBVioHashString@@UD3DXVECTOR3@@@std@@@4@$0A@@std@@@std@@SAPAU_Node@?$_Tree_nod@V?$_Tmap_traits@VioHashString@@UD3DXVECTOR3@@U?$less@VioHashString@@@std@@V?$allocator@U?$pair@$$CBVioHashString@@UD3DXVECTOR3@@@std@@@4@$0A@@std@@@2@PAU342@@Z
_TEXT	SEGMENT
__Pnode$ = 8						; size = 4
?_Min@?$_Tree_val@V?$_Tmap_traits@VioHashString@@UD3DXVECTOR3@@U?$less@VioHashString@@@std@@V?$allocator@U?$pair@$$CBVioHashString@@UD3DXVECTOR3@@@std@@@4@$0A@@std@@@std@@SAPAU_Node@?$_Tree_nod@V?$_Tmap_traits@VioHashString@@UD3DXVECTOR3@@U?$less@VioHashString@@@std@@V?$allocator@U?$pair@$$CBVioHashString@@UD3DXVECTOR3@@@std@@@4@$0A@@std@@@2@PAU342@@Z PROC ; std::_Tree_val<std::_Tmap_traits<ioHashString,D3DXVECTOR3,std::less<ioHashString>,std::allocator<std::pair<ioHashString const ,D3DXVECTOR3> >,0> >::_Min, COMDAT

; 648  : 		{	// return leftmost node in subtree at _Pnode

  00000	55		 push	 ebp
  00001	8b ec		 mov	 ebp, esp

; 649  : 		while (!_Isnil(_Left(_Pnode)))

  00003	8b 45 08	 mov	 eax, DWORD PTR __Pnode$[ebp]
  00006	eb 02		 jmp	 SHORT $LN14@Min
$LL2@Min:

; 650  : 			_Pnode = _Left(_Pnode);

  00008	8b c1		 mov	 eax, ecx
$LN14@Min:

; 649  : 		while (!_Isnil(_Left(_Pnode)))

  0000a	8b 08		 mov	 ecx, DWORD PTR [eax]
  0000c	80 79 29 00	 cmp	 BYTE PTR [ecx+41], 0
  00010	74 f6		 je	 SHORT $LL2@Min

; 651  : 		return (_Pnode);
; 652  : 		}

  00012	5d		 pop	 ebp
  00013	c3		 ret	 0
?_Min@?$_Tree_val@V?$_Tmap_traits@VioHashString@@UD3DXVECTOR3@@U?$less@VioHashString@@@std@@V?$allocator@U?$pair@$$CBVioHashString@@UD3DXVECTOR3@@@std@@@4@$0A@@std@@@std@@SAPAU_Node@?$_Tree_nod@V?$_Tmap_traits@VioHashString@@UD3DXVECTOR3@@U?$less@VioHashString@@@std@@V?$allocator@U?$pair@$$CBVioHashString@@UD3DXVECTOR3@@@std@@@4@$0A@@std@@@2@PAU342@@Z ENDP ; std::_Tree_val<std::_Tmap_traits<ioHashString,D3DXVECTOR3,std::less<ioHashString>,std::allocator<std::pair<ioHashString const ,D3DXVECTOR3> >,0> >::_Min
_TEXT	ENDS
PUBLIC	??0?$_Tree_unchecked_const_iterator@V?$_Tree_val@V?$_Tmap_traits@VioHashString@@UD3DXVECTOR3@@U?$less@VioHashString@@@std@@V?$allocator@U?$pair@$$CBVioHashString@@UD3DXVECTOR3@@@std@@@4@$0A@@std@@@std@@U_Iterator_base0@2@@std@@QAE@PAU_Node@?$_Tree_nod@V?$_Tmap_traits@VioHashString@@UD3DXVECTOR3@@U?$less@VioHashString@@@std@@V?$allocator@U?$pair@$$CBVioHashString@@UD3DXVECTOR3@@@std@@@4@$0A@@std@@@1@PBV?$_Tree_val@V?$_Tmap_traits@VioHashString@@UD3DXVECTOR3@@U?$less@VioHashString@@@std@@V?$allocator@U?$pair@$$CBVioHashString@@UD3DXVECTOR3@@@std@@@4@$0A@@std@@@1@@Z ; std::_Tree_unchecked_const_iterator<std::_Tree_val<std::_Tmap_traits<ioHashString,D3DXVECTOR3,std::less<ioHashString>,std::allocator<std::pair<ioHashString const ,D3DXVECTOR3> >,0> >,std::_Iterator_base0>::_Tree_unchecked_const_iterator<std::_Tree_val<std::_Tmap_traits<ioHashString,D3DXVECTOR3,std::less<ioHashString>,std::allocator<std::pair<ioHashString const ,D3DXVECTOR3> >,0> >,std::_Iterator_base0>
; Function compile flags: /Ogsp
;	COMDAT ??0?$_Tree_unchecked_const_iterator@V?$_Tree_val@V?$_Tmap_traits@VioHashString@@UD3DXVECTOR3@@U?$less@VioHashString@@@std@@V?$allocator@U?$pair@$$CBVioHashString@@UD3DXVECTOR3@@@std@@@4@$0A@@std@@@std@@U_Iterator_base0@2@@std@@QAE@PAU_Node@?$_Tree_nod@V?$_Tmap_traits@VioHashString@@UD3DXVECTOR3@@U?$less@VioHashString@@@std@@V?$allocator@U?$pair@$$CBVioHashString@@UD3DXVECTOR3@@@std@@@4@$0A@@std@@@1@PBV?$_Tree_val@V?$_Tmap_traits@VioHashString@@UD3DXVECTOR3@@U?$less@VioHashString@@@std@@V?$allocator@U?$pair@$$CBVioHashString@@UD3DXVECTOR3@@@std@@@4@$0A@@std@@@1@@Z
_TEXT	SEGMENT
__Pnode$ = 8						; size = 4
__Plist$ = 12						; size = 4
??0?$_Tree_unchecked_const_iterator@V?$_Tree_val@V?$_Tmap_traits@VioHashString@@UD3DXVECTOR3@@U?$less@VioHashString@@@std@@V?$allocator@U?$pair@$$CBVioHashString@@UD3DXVECTOR3@@@std@@@4@$0A@@std@@@std@@U_Iterator_base0@2@@std@@QAE@PAU_Node@?$_Tree_nod@V?$_Tmap_traits@VioHashString@@UD3DXVECTOR3@@U?$less@VioHashString@@@std@@V?$allocator@U?$pair@$$CBVioHashString@@UD3DXVECTOR3@@@std@@@4@$0A@@std@@@1@PBV?$_Tree_val@V?$_Tmap_traits@VioHashString@@UD3DXVECTOR3@@U?$less@VioHashString@@@std@@V?$allocator@U?$pair@$$CBVioHashString@@UD3DXVECTOR3@@@std@@@4@$0A@@std@@@1@@Z PROC ; std::_Tree_unchecked_const_iterator<std::_Tree_val<std::_Tmap_traits<ioHashString,D3DXVECTOR3,std::less<ioHashString>,std::allocator<std::pair<ioHashString const ,D3DXVECTOR3> >,0> >,std::_Iterator_base0>::_Tree_unchecked_const_iterator<std::_Tree_val<std::_Tmap_traits<ioHashString,D3DXVECTOR3,std::less<ioHashString>,std::allocator<std::pair<ioHashString const ,D3DXVECTOR3> >,0> >,std::_Iterator_base0>, COMDAT
; _this$ = ecx

; 43   : 		{	// construct with node pointer _Pnode

  00000	55		 push	 ebp
  00001	8b ec		 mov	 ebp, esp
  00003	8b c1		 mov	 eax, ecx
  00005	8b 4d 08	 mov	 ecx, DWORD PTR __Pnode$[ebp]
  00008	89 08		 mov	 DWORD PTR [eax], ecx

; 44   : 		this->_Adopt(_Plist);
; 45   : 		}

  0000a	5d		 pop	 ebp
  0000b	c2 08 00	 ret	 8
??0?$_Tree_unchecked_const_iterator@V?$_Tree_val@V?$_Tmap_traits@VioHashString@@UD3DXVECTOR3@@U?$less@VioHashString@@@std@@V?$allocator@U?$pair@$$CBVioHashString@@UD3DXVECTOR3@@@std@@@4@$0A@@std@@@std@@U_Iterator_base0@2@@std@@QAE@PAU_Node@?$_Tree_nod@V?$_Tmap_traits@VioHashString@@UD3DXVECTOR3@@U?$less@VioHashString@@@std@@V?$allocator@U?$pair@$$CBVioHashString@@UD3DXVECTOR3@@@std@@@4@$0A@@std@@@1@PBV?$_Tree_val@V?$_Tmap_traits@VioHashString@@UD3DXVECTOR3@@U?$less@VioHashString@@@std@@V?$allocator@U?$pair@$$CBVioHashString@@UD3DXVECTOR3@@@std@@@4@$0A@@std@@@1@@Z ENDP ; std::_Tree_unchecked_const_iterator<std::_Tree_val<std::_Tmap_traits<ioHashString,D3DXVECTOR3,std::less<ioHashString>,std::allocator<std::pair<ioHashString const ,D3DXVECTOR3> >,0> >,std::_Iterator_base0>::_Tree_unchecked_const_iterator<std::_Tree_val<std::_Tmap_traits<ioHashString,D3DXVECTOR3,std::less<ioHashString>,std::allocator<std::pair<ioHashString const ,D3DXVECTOR3> >,0> >,std::_Iterator_base0>
_TEXT	ENDS
PUBLIC	??0?$_Tmap_traits@VioHashString@@UD3DXVECTOR3@@U?$less@VioHashString@@@std@@V?$allocator@U?$pair@$$CBVioHashString@@UD3DXVECTOR3@@@std@@@4@$0A@@std@@QAE@U?$less@VioHashString@@@1@@Z ; std::_Tmap_traits<ioHashString,D3DXVECTOR3,std::less<ioHashString>,std::allocator<std::pair<ioHashString const ,D3DXVECTOR3> >,0>::_Tmap_traits<ioHashString,D3DXVECTOR3,std::less<ioHashString>,std::allocator<std::pair<ioHashString const ,D3DXVECTOR3> >,0>
; Function compile flags: /Ogsp
; File c:\program files (x86)\microsoft visual studio 10.0\vc\include\map
;	COMDAT ??0?$_Tmap_traits@VioHashString@@UD3DXVECTOR3@@U?$less@VioHashString@@@std@@V?$allocator@U?$pair@$$CBVioHashString@@UD3DXVECTOR3@@@std@@@4@$0A@@std@@QAE@U?$less@VioHashString@@@1@@Z
_TEXT	SEGMENT
__Parg$ = 8						; size = 1
??0?$_Tmap_traits@VioHashString@@UD3DXVECTOR3@@U?$less@VioHashString@@@std@@V?$allocator@U?$pair@$$CBVioHashString@@UD3DXVECTOR3@@@std@@@4@$0A@@std@@QAE@U?$less@VioHashString@@@1@@Z PROC ; std::_Tmap_traits<ioHashString,D3DXVECTOR3,std::less<ioHashString>,std::allocator<std::pair<ioHashString const ,D3DXVECTOR3> >,0>::_Tmap_traits<ioHashString,D3DXVECTOR3,std::less<ioHashString>,std::allocator<std::pair<ioHashString const ,D3DXVECTOR3> >,0>, COMDAT
; _this$ = ecx

; 40   : 		{	// construct with specified comparator

  00000	8b c1		 mov	 eax, ecx

; 41   : 		}

  00002	c2 04 00	 ret	 4
??0?$_Tmap_traits@VioHashString@@UD3DXVECTOR3@@U?$less@VioHashString@@@std@@V?$allocator@U?$pair@$$CBVioHashString@@UD3DXVECTOR3@@@std@@@4@$0A@@std@@QAE@U?$less@VioHashString@@@1@@Z ENDP ; std::_Tmap_traits<ioHashString,D3DXVECTOR3,std::less<ioHashString>,std::allocator<std::pair<ioHashString const ,D3DXVECTOR3> >,0>::_Tmap_traits<ioHashString,D3DXVECTOR3,std::less<ioHashString>,std::allocator<std::pair<ioHashString const ,D3DXVECTOR3> >,0>
_TEXT	ENDS
PUBLIC	??E?$_Tree_unchecked_const_iterator@V?$_Tree_val@V?$_Tmap_traits@VioHashString@@UD3DXVECTOR3@@U?$less@VioHashString@@@std@@V?$allocator@U?$pair@$$CBVioHashString@@UD3DXVECTOR3@@@std@@@4@$0A@@std@@@std@@U_Iterator_base0@2@@std@@QAEAAV01@XZ ; std::_Tree_unchecked_const_iterator<std::_Tree_val<std::_Tmap_traits<ioHashString,D3DXVECTOR3,std::less<ioHashString>,std::allocator<std::pair<ioHashString const ,D3DXVECTOR3> >,0> >,std::_Iterator_base0>::operator++
; Function compile flags: /Ogsp
; File c:\program files (x86)\microsoft visual studio 10.0\vc\include\xtree
;	COMDAT ??E?$_Tree_unchecked_const_iterator@V?$_Tree_val@V?$_Tmap_traits@VioHashString@@UD3DXVECTOR3@@U?$less@VioHashString@@@std@@V?$allocator@U?$pair@$$CBVioHashString@@UD3DXVECTOR3@@@std@@@4@$0A@@std@@@std@@U_Iterator_base0@2@@std@@QAEAAV01@XZ
_TEXT	SEGMENT
??E?$_Tree_unchecked_const_iterator@V?$_Tree_val@V?$_Tmap_traits@VioHashString@@UD3DXVECTOR3@@U?$less@VioHashString@@@std@@V?$allocator@U?$pair@$$CBVioHashString@@UD3DXVECTOR3@@@std@@@4@$0A@@std@@@std@@U_Iterator_base0@2@@std@@QAEAAV01@XZ PROC ; std::_Tree_unchecked_const_iterator<std::_Tree_val<std::_Tmap_traits<ioHashString,D3DXVECTOR3,std::less<ioHashString>,std::allocator<std::pair<ioHashString const ,D3DXVECTOR3> >,0> >,std::_Iterator_base0>::operator++, COMDAT
; _this$ = ecx

; 58   : 		{	// preincrement

  00000	8b c1		 mov	 eax, ecx

; 59   : 		if (_Mytree::_Isnil(_Ptr))

  00002	8b 08		 mov	 ecx, DWORD PTR [eax]
  00004	53		 push	 ebx
  00005	32 db		 xor	 bl, bl
  00007	38 59 29	 cmp	 BYTE PTR [ecx+41], bl
  0000a	75 2d		 jne	 SHORT $LN3@operator

; 60   : 			;	// end() shouldn't be incremented, don't move
; 61   : 		else if (!_Mytree::_Isnil(_Mytree::_Right(_Ptr)))

  0000c	8b 51 08	 mov	 edx, DWORD PTR [ecx+8]
  0000f	38 5a 29	 cmp	 BYTE PTR [edx+41], bl
  00012	75 0d		 jne	 SHORT $LN34@operator

; 62   : 			_Ptr = _Mytree::_Min(
; 63   : 				_Mytree::_Right(_Ptr));	// ==> smallest of right subtree

$LL18@operator:
  00014	8b ca		 mov	 ecx, edx
  00016	8b 11		 mov	 edx, DWORD PTR [ecx]
  00018	38 5a 29	 cmp	 BYTE PTR [edx+41], bl
  0001b	74 f7		 je	 SHORT $LL18@operator
  0001d	89 08		 mov	 DWORD PTR [eax], ecx
  0001f	5b		 pop	 ebx

; 71   : 			}
; 72   : 		return (*this);
; 73   : 		}

  00020	c3		 ret	 0
$LN34@operator:

; 64   : 		else
; 65   : 			{	// climb looking for right subtree
; 66   : 			_Nodeptr _Pnode;
; 67   : 			while (!_Mytree::_Isnil(_Pnode = _Mytree::_Parent(_Ptr))
; 68   : 				&& _Ptr == _Mytree::_Right(_Pnode))

  00021	8b 51 04	 mov	 edx, DWORD PTR [ecx+4]
  00024	eb 0c		 jmp	 SHORT $LN38@operator
$LL2@operator:
  00026	8b 08		 mov	 ecx, DWORD PTR [eax]
  00028	3b 4a 08	 cmp	 ecx, DWORD PTR [edx+8]
  0002b	75 0a		 jne	 SHORT $LN1@operator

; 69   : 				_Ptr = _Pnode;	// ==> parent while right subtree

  0002d	89 10		 mov	 DWORD PTR [eax], edx
  0002f	8b 52 04	 mov	 edx, DWORD PTR [edx+4]
$LN38@operator:

; 64   : 		else
; 65   : 			{	// climb looking for right subtree
; 66   : 			_Nodeptr _Pnode;
; 67   : 			while (!_Mytree::_Isnil(_Pnode = _Mytree::_Parent(_Ptr))
; 68   : 				&& _Ptr == _Mytree::_Right(_Pnode))

  00032	38 5a 29	 cmp	 BYTE PTR [edx+41], bl
  00035	74 ef		 je	 SHORT $LL2@operator
$LN1@operator:

; 70   : 			_Ptr = _Pnode;	// ==> parent (head if end())

  00037	89 10		 mov	 DWORD PTR [eax], edx
$LN3@operator:
  00039	5b		 pop	 ebx

; 71   : 			}
; 72   : 		return (*this);
; 73   : 		}

  0003a	c3		 ret	 0
??E?$_Tree_unchecked_const_iterator@V?$_Tree_val@V?$_Tmap_traits@VioHashString@@UD3DXVECTOR3@@U?$less@VioHashString@@@std@@V?$allocator@U?$pair@$$CBVioHashString@@UD3DXVECTOR3@@@std@@@4@$0A@@std@@@std@@U_Iterator_base0@2@@std@@QAEAAV01@XZ ENDP ; std::_Tree_unchecked_const_iterator<std::_Tree_val<std::_Tmap_traits<ioHashString,D3DXVECTOR3,std::less<ioHashString>,std::allocator<std::pair<ioHashString const ,D3DXVECTOR3> >,0> >,std::_Iterator_base0>::operator++
_TEXT	ENDS
PUBLIC	??$addressof@VioHashString@@@std@@YAPAVioHashString@@AAV1@@Z ; std::addressof<ioHashString>
; Function compile flags: /Ogsp
; File c:\program files (x86)\microsoft visual studio 10.0\vc\include\xmemory
;	COMDAT ??$addressof@VioHashString@@@std@@YAPAVioHashString@@AAV1@@Z
_TEXT	SEGMENT
__Val$ = 8						; size = 4
??$addressof@VioHashString@@@std@@YAPAVioHashString@@AAV1@@Z PROC ; std::addressof<ioHashString>, COMDAT

; 110  : 	{	// return address of _Val

  00000	55		 push	 ebp
  00001	8b ec		 mov	 ebp, esp

; 111  : 	return ((_Ty *) &(char&)_Val);

  00003	8b 45 08	 mov	 eax, DWORD PTR __Val$[ebp]

; 112  : 	}

  00006	5d		 pop	 ebp
  00007	c3		 ret	 0
??$addressof@VioHashString@@@std@@YAPAVioHashString@@AAV1@@Z ENDP ; std::addressof<ioHashString>
_TEXT	ENDS
PUBLIC	??$forward@VioHashString@@@std@@YA$$QAVioHashString@@AAV1@@Z ; std::forward<ioHashString>
; Function compile flags: /Ogsp
; File c:\program files (x86)\microsoft visual studio 10.0\vc\include\utility
;	COMDAT ??$forward@VioHashString@@@std@@YA$$QAVioHashString@@AAV1@@Z
_TEXT	SEGMENT
__Arg$ = 8						; size = 4
??$forward@VioHashString@@@std@@YA$$QAVioHashString@@AAV1@@Z PROC ; std::forward<ioHashString>, COMDAT

; 78   : 	{	// forward _Arg, given explicitly specified type parameter

  00000	55		 push	 ebp
  00001	8b ec		 mov	 ebp, esp

; 79   : 	return ((_Ty&&)_Arg);

  00003	8b 45 08	 mov	 eax, DWORD PTR __Arg$[ebp]

; 80   : 	}

  00006	5d		 pop	 ebp
  00007	c3		 ret	 0
??$forward@VioHashString@@@std@@YA$$QAVioHashString@@AAV1@@Z ENDP ; std::forward<ioHashString>
_TEXT	ENDS
PUBLIC	??$addressof@$$CBUEntityGroupData@ioWorldMesh@@@std@@YAPBUEntityGroupData@ioWorldMesh@@ABU12@@Z ; std::addressof<ioWorldMesh::EntityGroupData const >
; Function compile flags: /Ogsp
; File c:\program files (x86)\microsoft visual studio 10.0\vc\include\xmemory
;	COMDAT ??$addressof@$$CBUEntityGroupData@ioWorldMesh@@@std@@YAPBUEntityGroupData@ioWorldMesh@@ABU12@@Z
_TEXT	SEGMENT
__Val$ = 8						; size = 4
??$addressof@$$CBUEntityGroupData@ioWorldMesh@@@std@@YAPBUEntityGroupData@ioWorldMesh@@ABU12@@Z PROC ; std::addressof<ioWorldMesh::EntityGroupData const >, COMDAT

; 110  : 	{	// return address of _Val

  00000	55		 push	 ebp
  00001	8b ec		 mov	 ebp, esp

; 111  : 	return ((_Ty *) &(char&)_Val);

  00003	8b 45 08	 mov	 eax, DWORD PTR __Val$[ebp]

; 112  : 	}

  00006	5d		 pop	 ebp
  00007	c3		 ret	 0
??$addressof@$$CBUEntityGroupData@ioWorldMesh@@@std@@YAPBUEntityGroupData@ioWorldMesh@@ABU12@@Z ENDP ; std::addressof<ioWorldMesh::EntityGroupData const >
_TEXT	ENDS
PUBLIC	??$addressof@U?$pair@$$CBVioHashString@@UD3DXVECTOR3@@@std@@@std@@YAPAU?$pair@$$CBVioHashString@@UD3DXVECTOR3@@@0@AAU10@@Z ; std::addressof<std::pair<ioHashString const ,D3DXVECTOR3> >
; Function compile flags: /Ogsp
;	COMDAT ??$addressof@U?$pair@$$CBVioHashString@@UD3DXVECTOR3@@@std@@@std@@YAPAU?$pair@$$CBVioHashString@@UD3DXVECTOR3@@@0@AAU10@@Z
_TEXT	SEGMENT
__Val$ = 8						; size = 4
??$addressof@U?$pair@$$CBVioHashString@@UD3DXVECTOR3@@@std@@@std@@YAPAU?$pair@$$CBVioHashString@@UD3DXVECTOR3@@@0@AAU10@@Z PROC ; std::addressof<std::pair<ioHashString const ,D3DXVECTOR3> >, COMDAT

; 110  : 	{	// return address of _Val

  00000	55		 push	 ebp
  00001	8b ec		 mov	 ebp, esp

; 111  : 	return ((_Ty *) &(char&)_Val);

  00003	8b 45 08	 mov	 eax, DWORD PTR __Val$[ebp]

; 112  : 	}

  00006	5d		 pop	 ebp
  00007	c3		 ret	 0
??$addressof@U?$pair@$$CBVioHashString@@UD3DXVECTOR3@@@std@@@std@@YAPAU?$pair@$$CBVioHashString@@UD3DXVECTOR3@@@0@AAU10@@Z ENDP ; std::addressof<std::pair<ioHashString const ,D3DXVECTOR3> >
_TEXT	ENDS
PUBLIC	??$_Kfn@$$CBVioHashString@@UD3DXVECTOR3@@@?$_Tmap_traits@VioHashString@@UD3DXVECTOR3@@U?$less@VioHashString@@@std@@V?$allocator@U?$pair@$$CBVioHashString@@UD3DXVECTOR3@@@std@@@4@$0A@@std@@SAABVioHashString@@ABU?$pair@$$CBVioHashString@@UD3DXVECTOR3@@@1@@Z ; std::_Tmap_traits<ioHashString,D3DXVECTOR3,std::less<ioHashString>,std::allocator<std::pair<ioHashString const ,D3DXVECTOR3> >,0>::_Kfn<ioHashString const ,D3DXVECTOR3>
; Function compile flags: /Ogsp
; File c:\program files (x86)\microsoft visual studio 10.0\vc\include\map
;	COMDAT ??$_Kfn@$$CBVioHashString@@UD3DXVECTOR3@@@?$_Tmap_traits@VioHashString@@UD3DXVECTOR3@@U?$less@VioHashString@@@std@@V?$allocator@U?$pair@$$CBVioHashString@@UD3DXVECTOR3@@@std@@@4@$0A@@std@@SAABVioHashString@@ABU?$pair@$$CBVioHashString@@UD3DXVECTOR3@@@1@@Z
_TEXT	SEGMENT
__Val$ = 8						; size = 4
??$_Kfn@$$CBVioHashString@@UD3DXVECTOR3@@@?$_Tmap_traits@VioHashString@@UD3DXVECTOR3@@U?$less@VioHashString@@@std@@V?$allocator@U?$pair@$$CBVioHashString@@UD3DXVECTOR3@@@std@@@4@$0A@@std@@SAABVioHashString@@ABU?$pair@$$CBVioHashString@@UD3DXVECTOR3@@@1@@Z PROC ; std::_Tmap_traits<ioHashString,D3DXVECTOR3,std::less<ioHashString>,std::allocator<std::pair<ioHashString const ,D3DXVECTOR3> >,0>::_Kfn<ioHashString const ,D3DXVECTOR3>, COMDAT

; 66   : 		static const _Kty& _Kfn(const _STD pair<_Ty1, _Ty2>& _Val)

  00000	55		 push	 ebp
  00001	8b ec		 mov	 ebp, esp

; 67   : 		{	// extract key from element value
; 68   : 		return (_Val.first);

  00003	8b 45 08	 mov	 eax, DWORD PTR __Val$[ebp]

; 69   : 		}

  00006	5d		 pop	 ebp
  00007	c3		 ret	 0
??$_Kfn@$$CBVioHashString@@UD3DXVECTOR3@@@?$_Tmap_traits@VioHashString@@UD3DXVECTOR3@@U?$less@VioHashString@@@std@@V?$allocator@U?$pair@$$CBVioHashString@@UD3DXVECTOR3@@@std@@@4@$0A@@std@@SAABVioHashString@@ABU?$pair@$$CBVioHashString@@UD3DXVECTOR3@@@1@@Z ENDP ; std::_Tmap_traits<ioHashString,D3DXVECTOR3,std::less<ioHashString>,std::allocator<std::pair<ioHashString const ,D3DXVECTOR3> >,0>::_Kfn<ioHashString const ,D3DXVECTOR3>
_TEXT	ENDS
PUBLIC	??$move@AAUD3DXVECTOR3@@@std@@YA$$QAUD3DXVECTOR3@@AAU1@@Z ; std::move<D3DXVECTOR3 &>
; Function compile flags: /Ogsp
; File c:\program files (x86)\microsoft visual studio 10.0\vc\include\utility
;	COMDAT ??$move@AAUD3DXVECTOR3@@@std@@YA$$QAUD3DXVECTOR3@@AAU1@@Z
_TEXT	SEGMENT
__Arg$ = 8						; size = 4
??$move@AAUD3DXVECTOR3@@@std@@YA$$QAUD3DXVECTOR3@@AAU1@@Z PROC ; std::move<D3DXVECTOR3 &>, COMDAT

; 86   : 	{	// forward _Arg as movable

  00000	55		 push	 ebp
  00001	8b ec		 mov	 ebp, esp

; 87   : 	return ((typename tr1::_Remove_reference<_Ty>::_Type&&)_Arg);

  00003	8b 45 08	 mov	 eax, DWORD PTR __Arg$[ebp]

; 88   : 	}

  00006	5d		 pop	 ebp
  00007	c3		 ret	 0
??$move@AAUD3DXVECTOR3@@@std@@YA$$QAUD3DXVECTOR3@@AAU1@@Z ENDP ; std::move<D3DXVECTOR3 &>
_TEXT	ENDS
PUBLIC	__TI2?AVbad_alloc@std@@
PUBLIC	??$_Allocate@UEntityGroupData@ioWorldMesh@@@std@@YAPAUEntityGroupData@ioWorldMesh@@IPAU12@@Z ; std::_Allocate<ioWorldMesh::EntityGroupData>
PUBLIC	__CTA2?AVbad_alloc@std@@
PUBLIC	__CT??_R0?AVbad_alloc@std@@@8??0bad_alloc@std@@QAE@ABV01@@Z12
PUBLIC	??0bad_alloc@std@@QAE@ABV01@@Z			; std::bad_alloc::bad_alloc
PUBLIC	__CT??_R0?AVexception@std@@@8??0exception@std@@QAE@ABV01@@Z12
EXTRN	??2@YAPAXI@Z:PROC				; operator new
EXTRN	__CxxThrowException@8:PROC
EXTRN	??0exception@std@@QAE@ABV01@@Z:PROC		; std::exception::exception
;	COMDAT __CT??_R0?AVexception@std@@@8??0exception@std@@QAE@ABV01@@Z12
; File c:\program files (x86)\microsoft visual studio 10.0\vc\include\exception
xdata$x	SEGMENT
__CT??_R0?AVexception@std@@@8??0exception@std@@QAE@ABV01@@Z12 DD 00H
	DD	FLAT:??_R0?AVexception@std@@@8
	DD	00H
	DD	0ffffffffH
	ORG $+4
	DD	0cH
	DD	FLAT:??0exception@std@@QAE@ABV01@@Z
xdata$x	ENDS
;	COMDAT __CT??_R0?AVbad_alloc@std@@@8??0bad_alloc@std@@QAE@ABV01@@Z12
xdata$x	SEGMENT
__CT??_R0?AVbad_alloc@std@@@8??0bad_alloc@std@@QAE@ABV01@@Z12 DD 00H
	DD	FLAT:??_R0?AVbad_alloc@std@@@8
	DD	00H
	DD	0ffffffffH
	ORG $+4
	DD	0cH
	DD	FLAT:??0bad_alloc@std@@QAE@ABV01@@Z
xdata$x	ENDS
;	COMDAT __CTA2?AVbad_alloc@std@@
xdata$x	SEGMENT
__CTA2?AVbad_alloc@std@@ DD 02H
	DD	FLAT:__CT??_R0?AVbad_alloc@std@@@8??0bad_alloc@std@@QAE@ABV01@@Z12
	DD	FLAT:__CT??_R0?AVexception@std@@@8??0exception@std@@QAE@ABV01@@Z12
xdata$x	ENDS
;	COMDAT __TI2?AVbad_alloc@std@@
xdata$x	SEGMENT
__TI2?AVbad_alloc@std@@ DD 00H
	DD	FLAT:??1bad_alloc@std@@UAE@XZ
	DD	00H
	DD	FLAT:__CTA2?AVbad_alloc@std@@
; Function compile flags: /Ogsp
; File c:\program files (x86)\microsoft visual studio 10.0\vc\include\xmemory
xdata$x	ENDS
;	COMDAT ??$_Allocate@UEntityGroupData@ioWorldMesh@@@std@@YAPAUEntityGroupData@ioWorldMesh@@IPAU12@@Z
_TEXT	SEGMENT
$T510899 = -12						; size = 12
$T510904 = 8						; size = 4
__Count$ = 8						; size = 4
___formal$ = 12						; size = 4
??$_Allocate@UEntityGroupData@ioWorldMesh@@@std@@YAPAUEntityGroupData@ioWorldMesh@@IPAU12@@Z PROC ; std::_Allocate<ioWorldMesh::EntityGroupData>, COMDAT

; 30   : 	{	// allocate storage for _Count elements of type _Ty

  00000	55		 push	 ebp
  00001	8b ec		 mov	 ebp, esp

; 31   : 	void *_Ptr = 0;
; 32   : 
; 33   : 	if (_Count <= 0)

  00003	8b 4d 08	 mov	 ecx, DWORD PTR __Count$[ebp]
  00006	83 ec 0c	 sub	 esp, 12			; 0000000cH
  00009	33 c0		 xor	 eax, eax
  0000b	85 c9		 test	 ecx, ecx

; 34   : 		_Count = 0;
; 35   : 	else if (((_SIZT)(-1) / sizeof (_Ty) < _Count)

  0000d	74 3e		 je	 SHORT $LN5@Allocate

; 36   : 		|| (_Ptr = ::operator new(_Count * sizeof (_Ty))) == 0)

  0000f	81 f9 ff ff ff
	1f		 cmp	 ecx, 536870911		; 1fffffffH
  00015	77 10		 ja	 SHORT $LN1@Allocate
  00017	8b c1		 mov	 eax, ecx
  00019	c1 e0 03	 shl	 eax, 3
  0001c	50		 push	 eax
  0001d	e8 00 00 00 00	 call	 ??2@YAPAXI@Z		; operator new
  00022	59		 pop	 ecx
  00023	85 c0		 test	 eax, eax

; 38   : 
; 39   : 	return ((_Ty _FARQ *)_Ptr);

  00025	75 26		 jne	 SHORT $LN5@Allocate
$LN1@Allocate:

; 37   : 		_THROW_NCEE(bad_alloc, 0);

  00027	83 65 08 00	 and	 DWORD PTR $T510904[ebp], 0
  0002b	8d 45 08	 lea	 eax, DWORD PTR $T510904[ebp]
  0002e	50		 push	 eax
  0002f	8d 4d f4	 lea	 ecx, DWORD PTR $T510899[ebp]
  00032	ff 15 00 00 00
	00		 call	 DWORD PTR __imp_??0exception@std@@QAE@ABQBD@Z
  00038	68 00 00 00 00	 push	 OFFSET __TI2?AVbad_alloc@std@@
  0003d	8d 45 f4	 lea	 eax, DWORD PTR $T510899[ebp]
  00040	50		 push	 eax
  00041	c7 45 f4 00 00
	00 00		 mov	 DWORD PTR $T510899[ebp], OFFSET ??_7bad_alloc@std@@6B@
  00048	e8 00 00 00 00	 call	 __CxxThrowException@8
$LN10@Allocate:
$LN5@Allocate:

; 40   : 	}

  0004d	c9		 leave
  0004e	c3		 ret	 0
$LN9@Allocate:
??$_Allocate@UEntityGroupData@ioWorldMesh@@@std@@YAPAUEntityGroupData@ioWorldMesh@@IPAU12@@Z ENDP ; std::_Allocate<ioWorldMesh::EntityGroupData>
_TEXT	ENDS
PUBLIC	??$?0U?$pair@$$CBVioHashString@@UD3DXVECTOR3@@@std@@@?$allocator@U_Node@?$_Tree_nod@V?$_Tmap_traits@VioHashString@@UD3DXVECTOR3@@U?$less@VioHashString@@@std@@V?$allocator@U?$pair@$$CBVioHashString@@UD3DXVECTOR3@@@std@@@4@$0A@@std@@@std@@@std@@QAE@ABV?$allocator@U?$pair@$$CBVioHashString@@UD3DXVECTOR3@@@std@@@1@@Z ; std::allocator<std::_Tree_nod<std::_Tmap_traits<ioHashString,D3DXVECTOR3,std::less<ioHashString>,std::allocator<std::pair<ioHashString const ,D3DXVECTOR3> >,0> >::_Node>::allocator<std::_Tree_nod<std::_Tmap_traits<ioHashString,D3DXVECTOR3,std::less<ioHashString>,std::allocator<std::pair<ioHashString const ,D3DXVECTOR3> >,0> >::_Node><std::pair<ioHashString const ,D3DXVECTOR3> >
; Function compile flags: /Ogsp
;	COMDAT ??$?0U?$pair@$$CBVioHashString@@UD3DXVECTOR3@@@std@@@?$allocator@U_Node@?$_Tree_nod@V?$_Tmap_traits@VioHashString@@UD3DXVECTOR3@@U?$less@VioHashString@@@std@@V?$allocator@U?$pair@$$CBVioHashString@@UD3DXVECTOR3@@@std@@@4@$0A@@std@@@std@@@std@@QAE@ABV?$allocator@U?$pair@$$CBVioHashString@@UD3DXVECTOR3@@@std@@@1@@Z
_TEXT	SEGMENT
___formal$ = 8						; size = 4
??$?0U?$pair@$$CBVioHashString@@UD3DXVECTOR3@@@std@@@?$allocator@U_Node@?$_Tree_nod@V?$_Tmap_traits@VioHashString@@UD3DXVECTOR3@@U?$less@VioHashString@@@std@@V?$allocator@U?$pair@$$CBVioHashString@@UD3DXVECTOR3@@@std@@@4@$0A@@std@@@std@@@std@@QAE@ABV?$allocator@U?$pair@$$CBVioHashString@@UD3DXVECTOR3@@@std@@@1@@Z PROC ; std::allocator<std::_Tree_nod<std::_Tmap_traits<ioHashString,D3DXVECTOR3,std::less<ioHashString>,std::allocator<std::pair<ioHashString const ,D3DXVECTOR3> >,0> >::_Node>::allocator<std::_Tree_nod<std::_Tmap_traits<ioHashString,D3DXVECTOR3,std::less<ioHashString>,std::allocator<std::pair<ioHashString const ,D3DXVECTOR3> >,0> >::_Node><std::pair<ioHashString const ,D3DXVECTOR3> >, COMDAT
; _this$ = ecx

; 170  : 		_ALLOCATOR(const _ALLOCATOR<_Other>&) _THROW0()

  00000	8b c1		 mov	 eax, ecx

; 171  : 		{	// construct from a related allocator (do nothing)
; 172  : 		}

  00002	c2 04 00	 ret	 4
??$?0U?$pair@$$CBVioHashString@@UD3DXVECTOR3@@@std@@@?$allocator@U_Node@?$_Tree_nod@V?$_Tmap_traits@VioHashString@@UD3DXVECTOR3@@U?$less@VioHashString@@@std@@V?$allocator@U?$pair@$$CBVioHashString@@UD3DXVECTOR3@@@std@@@4@$0A@@std@@@std@@@std@@QAE@ABV?$allocator@U?$pair@$$CBVioHashString@@UD3DXVECTOR3@@@std@@@1@@Z ENDP ; std::allocator<std::_Tree_nod<std::_Tmap_traits<ioHashString,D3DXVECTOR3,std::less<ioHashString>,std::allocator<std::pair<ioHashString const ,D3DXVECTOR3> >,0> >::_Node>::allocator<std::_Tree_nod<std::_Tmap_traits<ioHashString,D3DXVECTOR3,std::less<ioHashString>,std::allocator<std::pair<ioHashString const ,D3DXVECTOR3> >,0> >::_Node><std::pair<ioHashString const ,D3DXVECTOR3> >
_TEXT	ENDS
PUBLIC	??$_Allocate@U_Node@?$_Tree_nod@V?$_Tmap_traits@VioHashString@@UD3DXVECTOR3@@U?$less@VioHashString@@@std@@V?$allocator@U?$pair@$$CBVioHashString@@UD3DXVECTOR3@@@std@@@4@$0A@@std@@@std@@@std@@YAPAU_Node@?$_Tree_nod@V?$_Tmap_traits@VioHashString@@UD3DXVECTOR3@@U?$less@VioHashString@@@std@@V?$allocator@U?$pair@$$CBVioHashString@@UD3DXVECTOR3@@@std@@@4@$0A@@std@@@0@IPAU120@@Z ; std::_Allocate<std::_Tree_nod<std::_Tmap_traits<ioHashString,D3DXVECTOR3,std::less<ioHashString>,std::allocator<std::pair<ioHashString const ,D3DXVECTOR3> >,0> >::_Node>
; Function compile flags: /Ogsp
;	COMDAT ??$_Allocate@U_Node@?$_Tree_nod@V?$_Tmap_traits@VioHashString@@UD3DXVECTOR3@@U?$less@VioHashString@@@std@@V?$allocator@U?$pair@$$CBVioHashString@@UD3DXVECTOR3@@@std@@@4@$0A@@std@@@std@@@std@@YAPAU_Node@?$_Tree_nod@V?$_Tmap_traits@VioHashString@@UD3DXVECTOR3@@U?$less@VioHashString@@@std@@V?$allocator@U?$pair@$$CBVioHashString@@UD3DXVECTOR3@@@std@@@4@$0A@@std@@@0@IPAU120@@Z
_TEXT	SEGMENT
$T510912 = -12						; size = 12
$T510916 = 8						; size = 4
__Count$ = 8						; size = 4
___formal$ = 12						; size = 4
??$_Allocate@U_Node@?$_Tree_nod@V?$_Tmap_traits@VioHashString@@UD3DXVECTOR3@@U?$less@VioHashString@@@std@@V?$allocator@U?$pair@$$CBVioHashString@@UD3DXVECTOR3@@@std@@@4@$0A@@std@@@std@@@std@@YAPAU_Node@?$_Tree_nod@V?$_Tmap_traits@VioHashString@@UD3DXVECTOR3@@U?$less@VioHashString@@@std@@V?$allocator@U?$pair@$$CBVioHashString@@UD3DXVECTOR3@@@std@@@4@$0A@@std@@@0@IPAU120@@Z PROC ; std::_Allocate<std::_Tree_nod<std::_Tmap_traits<ioHashString,D3DXVECTOR3,std::less<ioHashString>,std::allocator<std::pair<ioHashString const ,D3DXVECTOR3> >,0> >::_Node>, COMDAT

; 30   : 	{	// allocate storage for _Count elements of type _Ty

  00000	55		 push	 ebp
  00001	8b ec		 mov	 ebp, esp

; 31   : 	void *_Ptr = 0;
; 32   : 
; 33   : 	if (_Count <= 0)

  00003	8b 4d 08	 mov	 ecx, DWORD PTR __Count$[ebp]
  00006	83 ec 0c	 sub	 esp, 12			; 0000000cH
  00009	33 c0		 xor	 eax, eax
  0000b	85 c9		 test	 ecx, ecx

; 34   : 		_Count = 0;
; 35   : 	else if (((_SIZT)(-1) / sizeof (_Ty) < _Count)

  0000d	74 3c		 je	 SHORT $LN5@Allocate@2

; 36   : 		|| (_Ptr = ::operator new(_Count * sizeof (_Ty))) == 0)

  0000f	81 f9 5d 74 d1
	05		 cmp	 ecx, 97612893		; 05d1745dH
  00015	77 0e		 ja	 SHORT $LN1@Allocate@2
  00017	6b c9 2c	 imul	 ecx, 44			; 0000002cH
  0001a	51		 push	 ecx
  0001b	e8 00 00 00 00	 call	 ??2@YAPAXI@Z		; operator new
  00020	59		 pop	 ecx
  00021	85 c0		 test	 eax, eax

; 38   : 
; 39   : 	return ((_Ty _FARQ *)_Ptr);

  00023	75 26		 jne	 SHORT $LN5@Allocate@2
$LN1@Allocate@2:

; 37   : 		_THROW_NCEE(bad_alloc, 0);

  00025	83 65 08 00	 and	 DWORD PTR $T510916[ebp], 0
  00029	8d 45 08	 lea	 eax, DWORD PTR $T510916[ebp]
  0002c	50		 push	 eax
  0002d	8d 4d f4	 lea	 ecx, DWORD PTR $T510912[ebp]
  00030	ff 15 00 00 00
	00		 call	 DWORD PTR __imp_??0exception@std@@QAE@ABQBD@Z
  00036	68 00 00 00 00	 push	 OFFSET __TI2?AVbad_alloc@std@@
  0003b	8d 45 f4	 lea	 eax, DWORD PTR $T510912[ebp]
  0003e	50		 push	 eax
  0003f	c7 45 f4 00 00
	00 00		 mov	 DWORD PTR $T510912[ebp], OFFSET ??_7bad_alloc@std@@6B@
  00046	e8 00 00 00 00	 call	 __CxxThrowException@8
$LN10@Allocate@2:
$LN5@Allocate@2:

; 40   : 	}

  0004b	c9		 leave
  0004c	c3		 ret	 0
$LN9@Allocate@2:
??$_Allocate@U_Node@?$_Tree_nod@V?$_Tmap_traits@VioHashString@@UD3DXVECTOR3@@U?$less@VioHashString@@@std@@V?$allocator@U?$pair@$$CBVioHashString@@UD3DXVECTOR3@@@std@@@4@$0A@@std@@@std@@@std@@YAPAU_Node@?$_Tree_nod@V?$_Tmap_traits@VioHashString@@UD3DXVECTOR3@@U?$less@VioHashString@@@std@@V?$allocator@U?$pair@$$CBVioHashString@@UD3DXVECTOR3@@@std@@@4@$0A@@std@@@0@IPAU120@@Z ENDP ; std::_Allocate<std::_Tree_nod<std::_Tmap_traits<ioHashString,D3DXVECTOR3,std::less<ioHashString>,std::allocator<std::pair<ioHashString const ,D3DXVECTOR3> >,0> >::_Node>
_TEXT	ENDS
PUBLIC	?construct@?$allocator@VioHashString@@@std@@QAEXPAVioHashString@@$$QAV3@@Z ; std::allocator<ioHashString>::construct
EXTRN	__imp_??0ioHashString@@QAE@ABV0@@Z:PROC
EXTRN	___CxxFrameHandler3:PROC
EXTRN	@__security_check_cookie@4:PROC
EXTRN	__EH_epilog3:PROC
EXTRN	__EH_prolog3:PROC
;	COMDAT xdata$x
; File c:\program files (x86)\microsoft visual studio 10.0\vc\include\utility
xdata$x	SEGMENT
__unwindtable$?construct@?$allocator@VioHashString@@@std@@QAEXPAVioHashString@@$$QAV3@@Z DD 0ffffffffH
	DD	FLAT:__unwindfunclet$?construct@?$allocator@VioHashString@@@std@@QAEXPAVioHashString@@$$QAV3@@Z$0
__ehfuncinfo$?construct@?$allocator@VioHashString@@@std@@QAEXPAVioHashString@@$$QAV3@@Z DD 019930522H
	DD	01H
	DD	FLAT:__unwindtable$?construct@?$allocator@VioHashString@@@std@@QAEXPAVioHashString@@$$QAV3@@Z
	DD	2 DUP(00H)
	DD	2 DUP(00H)
	DD	00H
	DD	01H
; Function compile flags: /Ogsp
; File c:\program files (x86)\microsoft visual studio 10.0\vc\include\xmemory
xdata$x	ENDS
;	COMDAT ?construct@?$allocator@VioHashString@@@std@@QAEXPAVioHashString@@$$QAV3@@Z
_TEXT	SEGMENT
$T510922 = -16						; size = 4
__$EHRec$ = -12						; size = 12
__Ptr$ = 8						; size = 4
__Val$ = 12						; size = 4
?construct@?$allocator@VioHashString@@@std@@QAEXPAVioHashString@@$$QAV3@@Z PROC ; std::allocator<ioHashString>::construct, COMDAT
; _this$ = ecx

; 201  : 		{	// construct object at _Ptr with value _Val

  00000	6a 04		 push	 4
  00002	b8 00 00 00 00	 mov	 eax, __ehhandler$?construct@?$allocator@VioHashString@@@std@@QAEXPAVioHashString@@$$QAV3@@Z
  00007	e8 00 00 00 00	 call	 __EH_prolog3

; 202  : 		::new ((void _FARQ *)_Ptr) _Ty(_STD forward<_Ty>(_Val));

  0000c	8b 4d 08	 mov	 ecx, DWORD PTR __Ptr$[ebp]
  0000f	89 4d f0	 mov	 DWORD PTR $T510922[ebp], ecx
  00012	83 65 fc 00	 and	 DWORD PTR __$EHRec$[ebp+8], 0
  00016	85 c9		 test	 ecx, ecx
  00018	74 09		 je	 SHORT $LN3@construct
  0001a	ff 75 0c	 push	 DWORD PTR __Val$[ebp]
  0001d	ff 15 00 00 00
	00		 call	 DWORD PTR __imp_??0ioHashString@@QAE@ABV0@@Z
$LN3@construct:

; 203  : 		}

  00023	e8 00 00 00 00	 call	 __EH_epilog3
  00028	c2 08 00	 ret	 8
_TEXT	ENDS
;	COMDAT text$x
text$x	SEGMENT
__unwindfunclet$?construct@?$allocator@VioHashString@@@std@@QAEXPAVioHashString@@$$QAV3@@Z$0:
  00000	ff 75 08	 push	 DWORD PTR __Ptr$[ebp]
  00003	ff 75 f0	 push	 DWORD PTR $T510922[ebp]
  00006	e8 00 00 00 00	 call	 ??3@YAXPAX0@Z		; operator delete
  0000b	59		 pop	 ecx
  0000c	59		 pop	 ecx
  0000d	c3		 ret	 0
__ehhandler$?construct@?$allocator@VioHashString@@@std@@QAEXPAVioHashString@@$$QAV3@@Z:
  0000e	8b 54 24 08	 mov	 edx, DWORD PTR [esp+8]
  00012	8d 42 0c	 lea	 eax, DWORD PTR [edx+12]
  00015	8b 4a ec	 mov	 ecx, DWORD PTR [edx-20]
  00018	33 c8		 xor	 ecx, eax
  0001a	e8 00 00 00 00	 call	 @__security_check_cookie@4
  0001f	b8 00 00 00 00	 mov	 eax, OFFSET __ehfuncinfo$?construct@?$allocator@VioHashString@@@std@@QAEXPAVioHashString@@$$QAV3@@Z
  00024	e9 00 00 00 00	 jmp	 ___CxxFrameHandler3
text$x	ENDS
?construct@?$allocator@VioHashString@@@std@@QAEXPAVioHashString@@$$QAV3@@Z ENDP ; std::allocator<ioHashString>::construct
PUBLIC	?size@?$_Tree@V?$_Tmap_traits@VioHashString@@UD3DXVECTOR3@@U?$less@VioHashString@@@std@@V?$allocator@U?$pair@$$CBVioHashString@@UD3DXVECTOR3@@@std@@@4@$0A@@std@@@std@@QBEIXZ ; std::_Tree<std::_Tmap_traits<ioHashString,D3DXVECTOR3,std::less<ioHashString>,std::allocator<std::pair<ioHashString const ,D3DXVECTOR3> >,0> >::size
; Function compile flags: /Ogsp
; File c:\program files (x86)\microsoft visual studio 10.0\vc\include\xtree
;	COMDAT ?size@?$_Tree@V?$_Tmap_traits@VioHashString@@UD3DXVECTOR3@@U?$less@VioHashString@@@std@@V?$allocator@U?$pair@$$CBVioHashString@@UD3DXVECTOR3@@@std@@@4@$0A@@std@@@std@@QBEIXZ
_TEXT	SEGMENT
?size@?$_Tree@V?$_Tmap_traits@VioHashString@@UD3DXVECTOR3@@U?$less@VioHashString@@@std@@V?$allocator@U?$pair@$$CBVioHashString@@UD3DXVECTOR3@@@std@@@4@$0A@@std@@@std@@QBEIXZ PROC ; std::_Tree<std::_Tmap_traits<ioHashString,D3DXVECTOR3,std::less<ioHashString>,std::allocator<std::pair<ioHashString const ,D3DXVECTOR3> >,0> >::size, COMDAT
; _this$ = ecx

; 869  : 		return (this->_Mysize);

  00000	8b 41 08	 mov	 eax, DWORD PTR [ecx+8]

; 870  : 		}

  00003	c3		 ret	 0
?size@?$_Tree@V?$_Tmap_traits@VioHashString@@UD3DXVECTOR3@@U?$less@VioHashString@@@std@@V?$allocator@U?$pair@$$CBVioHashString@@UD3DXVECTOR3@@@std@@@4@$0A@@std@@@std@@QBEIXZ ENDP ; std::_Tree<std::_Tmap_traits<ioHashString,D3DXVECTOR3,std::less<ioHashString>,std::allocator<std::pair<ioHashString const ,D3DXVECTOR3> >,0> >::size
_TEXT	ENDS
PUBLIC	??0?$_Tree_unchecked_const_iterator@V?$_Tree_val@V?$_Tmap_traits@VioHashString@@UD3DXVECTOR3@@U?$less@VioHashString@@@std@@V?$allocator@U?$pair@$$CBVioHashString@@UD3DXVECTOR3@@@std@@@4@$0A@@std@@@std@@U_Iterator_base0@2@@std@@QAE@XZ ; std::_Tree_unchecked_const_iterator<std::_Tree_val<std::_Tmap_traits<ioHashString,D3DXVECTOR3,std::less<ioHashString>,std::allocator<std::pair<ioHashString const ,D3DXVECTOR3> >,0> >,std::_Iterator_base0>::_Tree_unchecked_const_iterator<std::_Tree_val<std::_Tmap_traits<ioHashString,D3DXVECTOR3,std::less<ioHashString>,std::allocator<std::pair<ioHashString const ,D3DXVECTOR3> >,0> >,std::_Iterator_base0>
; Function compile flags: /Ogsp
;	COMDAT ??0?$_Tree_unchecked_const_iterator@V?$_Tree_val@V?$_Tmap_traits@VioHashString@@UD3DXVECTOR3@@U?$less@VioHashString@@@std@@V?$allocator@U?$pair@$$CBVioHashString@@UD3DXVECTOR3@@@std@@@4@$0A@@std@@@std@@U_Iterator_base0@2@@std@@QAE@XZ
_TEXT	SEGMENT
??0?$_Tree_unchecked_const_iterator@V?$_Tree_val@V?$_Tmap_traits@VioHashString@@UD3DXVECTOR3@@U?$less@VioHashString@@@std@@V?$allocator@U?$pair@$$CBVioHashString@@UD3DXVECTOR3@@@std@@@4@$0A@@std@@@std@@U_Iterator_base0@2@@std@@QAE@XZ PROC ; std::_Tree_unchecked_const_iterator<std::_Tree_val<std::_Tmap_traits<ioHashString,D3DXVECTOR3,std::less<ioHashString>,std::allocator<std::pair<ioHashString const ,D3DXVECTOR3> >,0> >,std::_Iterator_base0>::_Tree_unchecked_const_iterator<std::_Tree_val<std::_Tmap_traits<ioHashString,D3DXVECTOR3,std::less<ioHashString>,std::allocator<std::pair<ioHashString const ,D3DXVECTOR3> >,0> >,std::_Iterator_base0>, COMDAT
; _this$ = ecx

; 38   : 		{	// construct with null node pointer

  00000	8b c1		 mov	 eax, ecx
  00002	83 20 00	 and	 DWORD PTR [eax], 0

; 39   : 		}

  00005	c3		 ret	 0
??0?$_Tree_unchecked_const_iterator@V?$_Tree_val@V?$_Tmap_traits@VioHashString@@UD3DXVECTOR3@@U?$less@VioHashString@@@std@@V?$allocator@U?$pair@$$CBVioHashString@@UD3DXVECTOR3@@@std@@@4@$0A@@std@@@std@@U_Iterator_base0@2@@std@@QAE@XZ ENDP ; std::_Tree_unchecked_const_iterator<std::_Tree_val<std::_Tmap_traits<ioHashString,D3DXVECTOR3,std::less<ioHashString>,std::allocator<std::pair<ioHashString const ,D3DXVECTOR3> >,0> >,std::_Iterator_base0>::_Tree_unchecked_const_iterator<std::_Tree_val<std::_Tmap_traits<ioHashString,D3DXVECTOR3,std::less<ioHashString>,std::allocator<std::pair<ioHashString const ,D3DXVECTOR3> >,0> >,std::_Iterator_base0>
_TEXT	ENDS
PUBLIC	??F?$_Tree_unchecked_const_iterator@V?$_Tree_val@V?$_Tmap_traits@VioHashString@@UD3DXVECTOR3@@U?$less@VioHashString@@@std@@V?$allocator@U?$pair@$$CBVioHashString@@UD3DXVECTOR3@@@std@@@4@$0A@@std@@@std@@U_Iterator_base0@2@@std@@QAEAAV01@XZ ; std::_Tree_unchecked_const_iterator<std::_Tree_val<std::_Tmap_traits<ioHashString,D3DXVECTOR3,std::less<ioHashString>,std::allocator<std::pair<ioHashString const ,D3DXVECTOR3> >,0> >,std::_Iterator_base0>::operator--
; Function compile flags: /Ogsp
;	COMDAT ??F?$_Tree_unchecked_const_iterator@V?$_Tree_val@V?$_Tmap_traits@VioHashString@@UD3DXVECTOR3@@U?$less@VioHashString@@@std@@V?$allocator@U?$pair@$$CBVioHashString@@UD3DXVECTOR3@@@std@@@4@$0A@@std@@@std@@U_Iterator_base0@2@@std@@QAEAAV01@XZ
_TEXT	SEGMENT
??F?$_Tree_unchecked_const_iterator@V?$_Tree_val@V?$_Tmap_traits@VioHashString@@UD3DXVECTOR3@@U?$less@VioHashString@@@std@@V?$allocator@U?$pair@$$CBVioHashString@@UD3DXVECTOR3@@@std@@@4@$0A@@std@@@std@@U_Iterator_base0@2@@std@@QAEAAV01@XZ PROC ; std::_Tree_unchecked_const_iterator<std::_Tree_val<std::_Tmap_traits<ioHashString,D3DXVECTOR3,std::less<ioHashString>,std::allocator<std::pair<ioHashString const ,D3DXVECTOR3> >,0> >,std::_Iterator_base0>::operator--, COMDAT
; _this$ = ecx

; 83   : 		{	// predecrement

  00000	8b c1		 mov	 eax, ecx

; 84   : 		if (_Mytree::_Isnil(_Ptr))

  00002	8b 08		 mov	 ecx, DWORD PTR [eax]
  00004	53		 push	 ebx
  00005	32 db		 xor	 bl, bl
  00007	38 59 29	 cmp	 BYTE PTR [ecx+41], bl
  0000a	74 07		 je	 SHORT $LN8@operator@2

; 85   : 			_Ptr = _Mytree::_Right(_Ptr);	// end() ==> rightmost

  0000c	8b 49 08	 mov	 ecx, DWORD PTR [ecx+8]
  0000f	89 08		 mov	 DWORD PTR [eax], ecx
  00011	5b		 pop	 ebx

; 99   : 			}
; 100  : 		return (*this);
; 101  : 		}

  00012	c3		 ret	 0
$LN8@operator@2:

; 86   : 		else if (!_Mytree::_Isnil(_Mytree::_Left(_Ptr)))

  00013	8b 11		 mov	 edx, DWORD PTR [ecx]
  00015	38 5a 29	 cmp	 BYTE PTR [edx+41], bl
  00018	74 07		 je	 SHORT $LN44@operator@2

; 90   : 			{	// climb looking for left subtree
; 91   : 			_Nodeptr _Pnode;
; 92   : 			while (!_Mytree::_Isnil(_Pnode = _Mytree::_Parent(_Ptr))
; 93   : 				&& _Ptr == _Mytree::_Left(_Pnode))

  0001a	8b 51 04	 mov	 edx, DWORD PTR [ecx+4]
  0001d	eb 17		 jmp	 SHORT $LN46@operator@2

; 87   : 			_Ptr = _Mytree::_Max(
; 88   : 				_Mytree::_Left(_Ptr));	// ==> largest of left subtree

$LL22@operator@2:
  0001f	8b d1		 mov	 edx, ecx
$LN44@operator@2:
  00021	8b 4a 08	 mov	 ecx, DWORD PTR [edx+8]
  00024	38 59 29	 cmp	 BYTE PTR [ecx+41], bl
  00027	74 f6		 je	 SHORT $LL22@operator@2

; 89   : 		else

  00029	eb 17		 jmp	 SHORT $LN45@operator@2
$LL4@operator@2:

; 90   : 			{	// climb looking for left subtree
; 91   : 			_Nodeptr _Pnode;
; 92   : 			while (!_Mytree::_Isnil(_Pnode = _Mytree::_Parent(_Ptr))
; 93   : 				&& _Ptr == _Mytree::_Left(_Pnode))

  0002b	8b 08		 mov	 ecx, DWORD PTR [eax]
  0002d	3b 0a		 cmp	 ecx, DWORD PTR [edx]
  0002f	75 0a		 jne	 SHORT $LN3@operator@2

; 94   : 				_Ptr = _Pnode;	// ==> parent while left subtree

  00031	89 10		 mov	 DWORD PTR [eax], edx
  00033	8b 52 04	 mov	 edx, DWORD PTR [edx+4]
$LN46@operator@2:

; 90   : 			{	// climb looking for left subtree
; 91   : 			_Nodeptr _Pnode;
; 92   : 			while (!_Mytree::_Isnil(_Pnode = _Mytree::_Parent(_Ptr))
; 93   : 				&& _Ptr == _Mytree::_Left(_Pnode))

  00036	38 5a 29	 cmp	 BYTE PTR [edx+41], bl
  00039	74 f0		 je	 SHORT $LL4@operator@2
$LN3@operator@2:

; 95   : 			if (_Mytree::_Isnil(_Ptr))

  0003b	8b 08		 mov	 ecx, DWORD PTR [eax]
  0003d	38 59 29	 cmp	 BYTE PTR [ecx+41], bl
  00040	75 02		 jne	 SHORT $LN1@operator@2
$LN45@operator@2:

; 96   : 				;	// begin() shouldn't be decremented, don't move
; 97   : 			else
; 98   : 				_Ptr = _Pnode;	// ==> parent if not head

  00042	89 10		 mov	 DWORD PTR [eax], edx
$LN1@operator@2:
  00044	5b		 pop	 ebx

; 99   : 			}
; 100  : 		return (*this);
; 101  : 		}

  00045	c3		 ret	 0
??F?$_Tree_unchecked_const_iterator@V?$_Tree_val@V?$_Tmap_traits@VioHashString@@UD3DXVECTOR3@@U?$less@VioHashString@@@std@@V?$allocator@U?$pair@$$CBVioHashString@@UD3DXVECTOR3@@@std@@@4@$0A@@std@@@std@@U_Iterator_base0@2@@std@@QAEAAV01@XZ ENDP ; std::_Tree_unchecked_const_iterator<std::_Tree_val<std::_Tmap_traits<ioHashString,D3DXVECTOR3,std::less<ioHashString>,std::allocator<std::pair<ioHashString const ,D3DXVECTOR3> >,0> >,std::_Iterator_base0>::operator--
_TEXT	ENDS
PUBLIC	?max_size@?$allocator@U?$pair@$$CBVioHashString@@UD3DXVECTOR3@@@std@@@std@@QBEIXZ ; std::allocator<std::pair<ioHashString const ,D3DXVECTOR3> >::max_size
; Function compile flags: /Ogsp
; File c:\program files (x86)\microsoft visual studio 10.0\vc\include\xmemory
;	COMDAT ?max_size@?$allocator@U?$pair@$$CBVioHashString@@UD3DXVECTOR3@@@std@@@std@@QBEIXZ
_TEXT	SEGMENT
?max_size@?$allocator@U?$pair@$$CBVioHashString@@UD3DXVECTOR3@@@std@@@std@@QBEIXZ PROC ; std::allocator<std::pair<ioHashString const ,D3DXVECTOR3> >::max_size, COMDAT
; _this$ = ecx

; 218  : 		_SIZT _Count = (_SIZT)(-1) / sizeof (_Ty);
; 219  : 		return (0 < _Count ? _Count : 1);

  00000	b8 49 92 24 09	 mov	 eax, 153391689		; 09249249H

; 220  : 		}

  00005	c3		 ret	 0
?max_size@?$allocator@U?$pair@$$CBVioHashString@@UD3DXVECTOR3@@@std@@@std@@QBEIXZ ENDP ; std::allocator<std::pair<ioHashString const ,D3DXVECTOR3> >::max_size
_TEXT	ENDS
PUBLIC	??$forward@AAUEntityGroupData@ioWorldMesh@@@std@@YAAAUEntityGroupData@ioWorldMesh@@AAU12@@Z ; std::forward<ioWorldMesh::EntityGroupData &>
; Function compile flags: /Ogsp
; File c:\program files (x86)\microsoft visual studio 10.0\vc\include\utility
;	COMDAT ??$forward@AAUEntityGroupData@ioWorldMesh@@@std@@YAAAUEntityGroupData@ioWorldMesh@@AAU12@@Z
_TEXT	SEGMENT
__Arg$ = 8						; size = 4
??$forward@AAUEntityGroupData@ioWorldMesh@@@std@@YAAAUEntityGroupData@ioWorldMesh@@AAU12@@Z PROC ; std::forward<ioWorldMesh::EntityGroupData &>, COMDAT

; 78   : 	{	// forward _Arg, given explicitly specified type parameter

  00000	55		 push	 ebp
  00001	8b ec		 mov	 ebp, esp

; 79   : 	return ((_Ty&&)_Arg);

  00003	8b 45 08	 mov	 eax, DWORD PTR __Arg$[ebp]

; 80   : 	}

  00006	5d		 pop	 ebp
  00007	c3		 ret	 0
??$forward@AAUEntityGroupData@ioWorldMesh@@@std@@YAAAUEntityGroupData@ioWorldMesh@@AAU12@@Z ENDP ; std::forward<ioWorldMesh::EntityGroupData &>
_TEXT	ENDS
PUBLIC	??$construct@AAUEntityGroupData@ioWorldMesh@@@?$allocator@UEntityGroupData@ioWorldMesh@@@std@@QAEXPAUEntityGroupData@ioWorldMesh@@AAU23@@Z ; std::allocator<ioWorldMesh::EntityGroupData>::construct<ioWorldMesh::EntityGroupData &>
; Function compile flags: /Ogsp
; File c:\program files (x86)\microsoft visual studio 10.0\vc\include\xmemory
;	COMDAT ??$construct@AAUEntityGroupData@ioWorldMesh@@@?$allocator@UEntityGroupData@ioWorldMesh@@@std@@QAEXPAUEntityGroupData@ioWorldMesh@@AAU23@@Z
_TEXT	SEGMENT
__Ptr$ = 8						; size = 4
__Val$ = 12						; size = 4
??$construct@AAUEntityGroupData@ioWorldMesh@@@?$allocator@UEntityGroupData@ioWorldMesh@@@std@@QAEXPAUEntityGroupData@ioWorldMesh@@AAU23@@Z PROC ; std::allocator<ioWorldMesh::EntityGroupData>::construct<ioWorldMesh::EntityGroupData &>, COMDAT
; _this$ = ecx

; 206  : 		void construct(pointer _Ptr, _Other&& _Val)

  00000	55		 push	 ebp
  00001	8b ec		 mov	 ebp, esp

; 207  : 		{	// construct object at _Ptr with value _Val
; 208  : 		::new ((void _FARQ *)_Ptr) _Ty(_STD forward<_Other>(_Val));

  00003	8b 45 08	 mov	 eax, DWORD PTR __Ptr$[ebp]
  00006	85 c0		 test	 eax, eax
  00008	74 0d		 je	 SHORT $LN3@construct@2
  0000a	8b 4d 0c	 mov	 ecx, DWORD PTR __Val$[ebp]
  0000d	8b 11		 mov	 edx, DWORD PTR [ecx]
  0000f	89 10		 mov	 DWORD PTR [eax], edx
  00011	8b 49 04	 mov	 ecx, DWORD PTR [ecx+4]
  00014	89 48 04	 mov	 DWORD PTR [eax+4], ecx
$LN3@construct@2:

; 209  : 		}

  00017	5d		 pop	 ebp
  00018	c2 08 00	 ret	 8
??$construct@AAUEntityGroupData@ioWorldMesh@@@?$allocator@UEntityGroupData@ioWorldMesh@@@std@@QAEXPAUEntityGroupData@ioWorldMesh@@AAU23@@Z ENDP ; std::allocator<ioWorldMesh::EntityGroupData>::construct<ioWorldMesh::EntityGroupData &>
_TEXT	ENDS
PUBLIC	??$forward@ABUEntityGroupData@ioWorldMesh@@@std@@YAABUEntityGroupData@ioWorldMesh@@ABU12@@Z ; std::forward<ioWorldMesh::EntityGroupData const &>
; Function compile flags: /Ogsp
; File c:\program files (x86)\microsoft visual studio 10.0\vc\include\utility
;	COMDAT ??$forward@ABUEntityGroupData@ioWorldMesh@@@std@@YAABUEntityGroupData@ioWorldMesh@@ABU12@@Z
_TEXT	SEGMENT
__Arg$ = 8						; size = 4
??$forward@ABUEntityGroupData@ioWorldMesh@@@std@@YAABUEntityGroupData@ioWorldMesh@@ABU12@@Z PROC ; std::forward<ioWorldMesh::EntityGroupData const &>, COMDAT

; 78   : 	{	// forward _Arg, given explicitly specified type parameter

  00000	55		 push	 ebp
  00001	8b ec		 mov	 ebp, esp

; 79   : 	return ((_Ty&&)_Arg);

  00003	8b 45 08	 mov	 eax, DWORD PTR __Arg$[ebp]

; 80   : 	}

  00006	5d		 pop	 ebp
  00007	c3		 ret	 0
??$forward@ABUEntityGroupData@ioWorldMesh@@@std@@YAABUEntityGroupData@ioWorldMesh@@ABU12@@Z ENDP ; std::forward<ioWorldMesh::EntityGroupData const &>
_TEXT	ENDS
PUBLIC	??$forward@U?$pair@$$CBVioHashString@@UD3DXVECTOR3@@@std@@@std@@YA$$QAU?$pair@$$CBVioHashString@@UD3DXVECTOR3@@@0@AAU10@@Z ; std::forward<std::pair<ioHashString const ,D3DXVECTOR3> >
; Function compile flags: /Ogsp
;	COMDAT ??$forward@U?$pair@$$CBVioHashString@@UD3DXVECTOR3@@@std@@@std@@YA$$QAU?$pair@$$CBVioHashString@@UD3DXVECTOR3@@@0@AAU10@@Z
_TEXT	SEGMENT
__Arg$ = 8						; size = 4
??$forward@U?$pair@$$CBVioHashString@@UD3DXVECTOR3@@@std@@@std@@YA$$QAU?$pair@$$CBVioHashString@@UD3DXVECTOR3@@@0@AAU10@@Z PROC ; std::forward<std::pair<ioHashString const ,D3DXVECTOR3> >, COMDAT

; 78   : 	{	// forward _Arg, given explicitly specified type parameter

  00000	55		 push	 ebp
  00001	8b ec		 mov	 ebp, esp

; 79   : 	return ((_Ty&&)_Arg);

  00003	8b 45 08	 mov	 eax, DWORD PTR __Arg$[ebp]

; 80   : 	}

  00006	5d		 pop	 ebp
  00007	c3		 ret	 0
??$forward@U?$pair@$$CBVioHashString@@UD3DXVECTOR3@@@std@@@std@@YA$$QAU?$pair@$$CBVioHashString@@UD3DXVECTOR3@@@0@AAU10@@Z ENDP ; std::forward<std::pair<ioHashString const ,D3DXVECTOR3> >
_TEXT	ENDS
PUBLIC	??$_Iter_cat@V?$_Tree_iterator@V?$_Tree_val@V?$_Tmap_traits@VioHashString@@UD3DXVECTOR3@@U?$less@VioHashString@@@std@@V?$allocator@U?$pair@$$CBVioHashString@@UD3DXVECTOR3@@@std@@@4@$0A@@std@@@std@@@std@@@std@@YA?AUbidirectional_iterator_tag@0@ABV?$_Tree_iterator@V?$_Tree_val@V?$_Tmap_traits@VioHashString@@UD3DXVECTOR3@@U?$less@VioHashString@@@std@@V?$allocator@U?$pair@$$CBVioHashString@@UD3DXVECTOR3@@@std@@@4@$0A@@std@@@std@@@0@@Z ; std::_Iter_cat<std::_Tree_iterator<std::_Tree_val<std::_Tmap_traits<ioHashString,D3DXVECTOR3,std::less<ioHashString>,std::allocator<std::pair<ioHashString const ,D3DXVECTOR3> >,0> > > >
; Function compile flags: /Ogsp
; File c:\program files (x86)\microsoft visual studio 10.0\vc\include\xutility
;	COMDAT ??$_Iter_cat@V?$_Tree_iterator@V?$_Tree_val@V?$_Tmap_traits@VioHashString@@UD3DXVECTOR3@@U?$less@VioHashString@@@std@@V?$allocator@U?$pair@$$CBVioHashString@@UD3DXVECTOR3@@@std@@@4@$0A@@std@@@std@@@std@@@std@@YA?AUbidirectional_iterator_tag@0@ABV?$_Tree_iterator@V?$_Tree_val@V?$_Tmap_traits@VioHashString@@UD3DXVECTOR3@@U?$less@VioHashString@@@std@@V?$allocator@U?$pair@$$CBVioHashString@@UD3DXVECTOR3@@@std@@@4@$0A@@std@@@std@@@0@@Z
_TEXT	SEGMENT
___$ReturnUdt$ = 8					; size = 4
___formal$ = 12						; size = 4
??$_Iter_cat@V?$_Tree_iterator@V?$_Tree_val@V?$_Tmap_traits@VioHashString@@UD3DXVECTOR3@@U?$less@VioHashString@@@std@@V?$allocator@U?$pair@$$CBVioHashString@@UD3DXVECTOR3@@@std@@@4@$0A@@std@@@std@@@std@@@std@@YA?AUbidirectional_iterator_tag@0@ABV?$_Tree_iterator@V?$_Tree_val@V?$_Tmap_traits@VioHashString@@UD3DXVECTOR3@@U?$less@VioHashString@@@std@@V?$allocator@U?$pair@$$CBVioHashString@@UD3DXVECTOR3@@@std@@@4@$0A@@std@@@std@@@0@@Z PROC ; std::_Iter_cat<std::_Tree_iterator<std::_Tree_val<std::_Tmap_traits<ioHashString,D3DXVECTOR3,std::less<ioHashString>,std::allocator<std::pair<ioHashString const ,D3DXVECTOR3> >,0> > > >, COMDAT

; 476  : 	{	// return category from iterator argument

  00000	55		 push	 ebp
  00001	8b ec		 mov	 ebp, esp

; 477  : 	typename iterator_traits<_Iter>::iterator_category _Cat;
; 478  : 	return (_Cat);

  00003	8b 45 08	 mov	 eax, DWORD PTR ___$ReturnUdt$[ebp]

; 479  : 	}

  00006	5d		 pop	 ebp
  00007	c3		 ret	 0
??$_Iter_cat@V?$_Tree_iterator@V?$_Tree_val@V?$_Tmap_traits@VioHashString@@UD3DXVECTOR3@@U?$less@VioHashString@@@std@@V?$allocator@U?$pair@$$CBVioHashString@@UD3DXVECTOR3@@@std@@@4@$0A@@std@@@std@@@std@@@std@@YA?AUbidirectional_iterator_tag@0@ABV?$_Tree_iterator@V?$_Tree_val@V?$_Tmap_traits@VioHashString@@UD3DXVECTOR3@@U?$less@VioHashString@@@std@@V?$allocator@U?$pair@$$CBVioHashString@@UD3DXVECTOR3@@@std@@@4@$0A@@std@@@std@@@0@@Z ENDP ; std::_Iter_cat<std::_Tree_iterator<std::_Tree_val<std::_Tmap_traits<ioHashString,D3DXVECTOR3,std::less<ioHashString>,std::allocator<std::pair<ioHashString const ,D3DXVECTOR3> >,0> > > >
_TEXT	ENDS
PUBLIC	??$_Ptr_cat@UEntityGroupData@ioWorldMesh@@U12@@std@@YA?AU_Nonscalar_ptr_iterator_tag@0@PAUEntityGroupData@ioWorldMesh@@0@Z ; std::_Ptr_cat<ioWorldMesh::EntityGroupData,ioWorldMesh::EntityGroupData>
; Function compile flags: /Ogsp
;	COMDAT ??$_Ptr_cat@UEntityGroupData@ioWorldMesh@@U12@@std@@YA?AU_Nonscalar_ptr_iterator_tag@0@PAUEntityGroupData@ioWorldMesh@@0@Z
_TEXT	SEGMENT
__Cat$ = -1						; size = 1
___formal$ = 8						; size = 4
___formal$ = 12						; size = 4
??$_Ptr_cat@UEntityGroupData@ioWorldMesh@@U12@@std@@YA?AU_Nonscalar_ptr_iterator_tag@0@PAUEntityGroupData@ioWorldMesh@@0@Z PROC ; std::_Ptr_cat<ioWorldMesh::EntityGroupData,ioWorldMesh::EntityGroupData>, COMDAT

; 516  : 	{	// return pointer category from pointers

  00000	55		 push	 ebp
  00001	8b ec		 mov	 ebp, esp
  00003	51		 push	 ecx

; 517  : 	typename _Ptr_cat_helper<_Elem1, _Elem2>::_Type _Cat;
; 518  : 	return (_Cat);

  00004	8a 45 ff	 mov	 al, BYTE PTR __Cat$[ebp]

; 519  : 	}

  00007	c9		 leave
  00008	c3		 ret	 0
??$_Ptr_cat@UEntityGroupData@ioWorldMesh@@U12@@std@@YA?AU_Nonscalar_ptr_iterator_tag@0@PAUEntityGroupData@ioWorldMesh@@0@Z ENDP ; std::_Ptr_cat<ioWorldMesh::EntityGroupData,ioWorldMesh::EntityGroupData>
_TEXT	ENDS
PUBLIC	??$forward@AAV?$_Tree_iterator@V?$_Tree_val@V?$_Tmap_traits@VioHashString@@UD3DXVECTOR3@@U?$less@VioHashString@@@std@@V?$allocator@U?$pair@$$CBVioHashString@@UD3DXVECTOR3@@@std@@@4@$0A@@std@@@std@@@std@@@std@@YAAAV?$_Tree_iterator@V?$_Tree_val@V?$_Tmap_traits@VioHashString@@UD3DXVECTOR3@@U?$less@VioHashString@@@std@@V?$allocator@U?$pair@$$CBVioHashString@@UD3DXVECTOR3@@@std@@@4@$0A@@std@@@std@@@0@AAV10@@Z ; std::forward<std::_Tree_iterator<std::_Tree_val<std::_Tmap_traits<ioHashString,D3DXVECTOR3,std::less<ioHashString>,std::allocator<std::pair<ioHashString const ,D3DXVECTOR3> >,0> > > &>
; Function compile flags: /Ogsp
; File c:\program files (x86)\microsoft visual studio 10.0\vc\include\utility
;	COMDAT ??$forward@AAV?$_Tree_iterator@V?$_Tree_val@V?$_Tmap_traits@VioHashString@@UD3DXVECTOR3@@U?$less@VioHashString@@@std@@V?$allocator@U?$pair@$$CBVioHashString@@UD3DXVECTOR3@@@std@@@4@$0A@@std@@@std@@@std@@@std@@YAAAV?$_Tree_iterator@V?$_Tree_val@V?$_Tmap_traits@VioHashString@@UD3DXVECTOR3@@U?$less@VioHashString@@@std@@V?$allocator@U?$pair@$$CBVioHashString@@UD3DXVECTOR3@@@std@@@4@$0A@@std@@@std@@@0@AAV10@@Z
_TEXT	SEGMENT
__Arg$ = 8						; size = 4
??$forward@AAV?$_Tree_iterator@V?$_Tree_val@V?$_Tmap_traits@VioHashString@@UD3DXVECTOR3@@U?$less@VioHashString@@@std@@V?$allocator@U?$pair@$$CBVioHashString@@UD3DXVECTOR3@@@std@@@4@$0A@@std@@@std@@@std@@@std@@YAAAV?$_Tree_iterator@V?$_Tree_val@V?$_Tmap_traits@VioHashString@@UD3DXVECTOR3@@U?$less@VioHashString@@@std@@V?$allocator@U?$pair@$$CBVioHashString@@UD3DXVECTOR3@@@std@@@4@$0A@@std@@@std@@@0@AAV10@@Z PROC ; std::forward<std::_Tree_iterator<std::_Tree_val<std::_Tmap_traits<ioHashString,D3DXVECTOR3,std::less<ioHashString>,std::allocator<std::pair<ioHashString const ,D3DXVECTOR3> >,0> > > &>, COMDAT

; 78   : 	{	// forward _Arg, given explicitly specified type parameter

  00000	55		 push	 ebp
  00001	8b ec		 mov	 ebp, esp

; 79   : 	return ((_Ty&&)_Arg);

  00003	8b 45 08	 mov	 eax, DWORD PTR __Arg$[ebp]

; 80   : 	}

  00006	5d		 pop	 ebp
  00007	c3		 ret	 0
??$forward@AAV?$_Tree_iterator@V?$_Tree_val@V?$_Tmap_traits@VioHashString@@UD3DXVECTOR3@@U?$less@VioHashString@@@std@@V?$allocator@U?$pair@$$CBVioHashString@@UD3DXVECTOR3@@@std@@@4@$0A@@std@@@std@@@std@@@std@@YAAAV?$_Tree_iterator@V?$_Tree_val@V?$_Tmap_traits@VioHashString@@UD3DXVECTOR3@@U?$less@VioHashString@@@std@@V?$allocator@U?$pair@$$CBVioHashString@@UD3DXVECTOR3@@@std@@@4@$0A@@std@@@std@@@0@AAV10@@Z ENDP ; std::forward<std::_Tree_iterator<std::_Tree_val<std::_Tmap_traits<ioHashString,D3DXVECTOR3,std::less<ioHashString>,std::allocator<std::pair<ioHashString const ,D3DXVECTOR3> >,0> > > &>
_TEXT	ENDS
PUBLIC	??$?0AAV?$_Tree_iterator@V?$_Tree_val@V?$_Tmap_traits@VioHashString@@UD3DXVECTOR3@@U?$less@VioHashString@@@std@@V?$allocator@U?$pair@$$CBVioHashString@@UD3DXVECTOR3@@@std@@@4@$0A@@std@@@std@@@std@@AAV01@@?$_Pair_base@V?$_Tree_iterator@V?$_Tree_val@V?$_Tmap_traits@VioHashString@@UD3DXVECTOR3@@U?$less@VioHashString@@@std@@V?$allocator@U?$pair@$$CBVioHashString@@UD3DXVECTOR3@@@std@@@4@$0A@@std@@@std@@@std@@V12@@std@@QAE@AAV?$_Tree_iterator@V?$_Tree_val@V?$_Tmap_traits@VioHashString@@UD3DXVECTOR3@@U?$less@VioHashString@@@std@@V?$allocator@U?$pair@$$CBVioHashString@@UD3DXVECTOR3@@@std@@@4@$0A@@std@@@std@@@1@0@Z ; std::_Pair_base<std::_Tree_iterator<std::_Tree_val<std::_Tmap_traits<ioHashString,D3DXVECTOR3,std::less<ioHashString>,std::allocator<std::pair<ioHashString const ,D3DXVECTOR3> >,0> > >,std::_Tree_iterator<std::_Tree_val<std::_Tmap_traits<ioHashString,D3DXVECTOR3,std::less<ioHashString>,std::allocator<std::pair<ioHashString const ,D3DXVECTOR3> >,0> > > >::_Pair_base<std::_Tree_iterator<std::_Tree_val<std::_Tmap_traits<ioHashString,D3DXVECTOR3,std::less<ioHashString>,std::allocator<std::pair<ioHashString const ,D3DXVECTOR3> >,0> > >,std::_Tree_iterator<std::_Tree_val<std::_Tmap_traits<ioHashString,D3DXVECTOR3,std::less<ioHashString>,std::allocator<std::pair<ioHashString const ,D3DXVECTOR3> >,0> > > ><std::_Tree_iterator<std::_Tree_val<std::_Tmap_traits<ioHashString,D3DXVECTOR3,std::less<ioHashString>,std::allocator<std::pair<ioHashString const ,D3DXVECTOR3> >,0> > > &,std::_Tree_iterator<std::_Tree_val<std::_Tmap_traits<ioHashString,D3DXVECTOR3,std::less<ioHashString>,std::allocator<std::pair<ioHashString const ,D3DXVECTOR3> >,0> > > &>
; Function compile flags: /Ogsp
;	COMDAT ??$?0AAV?$_Tree_iterator@V?$_Tree_val@V?$_Tmap_traits@VioHashString@@UD3DXVECTOR3@@U?$less@VioHashString@@@std@@V?$allocator@U?$pair@$$CBVioHashString@@UD3DXVECTOR3@@@std@@@4@$0A@@std@@@std@@@std@@AAV01@@?$_Pair_base@V?$_Tree_iterator@V?$_Tree_val@V?$_Tmap_traits@VioHashString@@UD3DXVECTOR3@@U?$less@VioHashString@@@std@@V?$allocator@U?$pair@$$CBVioHashString@@UD3DXVECTOR3@@@std@@@4@$0A@@std@@@std@@@std@@V12@@std@@QAE@AAV?$_Tree_iterator@V?$_Tree_val@V?$_Tmap_traits@VioHashString@@UD3DXVECTOR3@@U?$less@VioHashString@@@std@@V?$allocator@U?$pair@$$CBVioHashString@@UD3DXVECTOR3@@@std@@@4@$0A@@std@@@std@@@1@0@Z
_TEXT	SEGMENT
__Val1$ = 8						; size = 4
__Val2$ = 12						; size = 4
??$?0AAV?$_Tree_iterator@V?$_Tree_val@V?$_Tmap_traits@VioHashString@@UD3DXVECTOR3@@U?$less@VioHashString@@@std@@V?$allocator@U?$pair@$$CBVioHashString@@UD3DXVECTOR3@@@std@@@4@$0A@@std@@@std@@@std@@AAV01@@?$_Pair_base@V?$_Tree_iterator@V?$_Tree_val@V?$_Tmap_traits@VioHashString@@UD3DXVECTOR3@@U?$less@VioHashString@@@std@@V?$allocator@U?$pair@$$CBVioHashString@@UD3DXVECTOR3@@@std@@@4@$0A@@std@@@std@@@std@@V12@@std@@QAE@AAV?$_Tree_iterator@V?$_Tree_val@V?$_Tmap_traits@VioHashString@@UD3DXVECTOR3@@U?$less@VioHashString@@@std@@V?$allocator@U?$pair@$$CBVioHashString@@UD3DXVECTOR3@@@std@@@4@$0A@@std@@@std@@@1@0@Z PROC ; std::_Pair_base<std::_Tree_iterator<std::_Tree_val<std::_Tmap_traits<ioHashString,D3DXVECTOR3,std::less<ioHashString>,std::allocator<std::pair<ioHashString const ,D3DXVECTOR3> >,0> > >,std::_Tree_iterator<std::_Tree_val<std::_Tmap_traits<ioHashString,D3DXVECTOR3,std::less<ioHashString>,std::allocator<std::pair<ioHashString const ,D3DXVECTOR3> >,0> > > >::_Pair_base<std::_Tree_iterator<std::_Tree_val<std::_Tmap_traits<ioHashString,D3DXVECTOR3,std::less<ioHashString>,std::allocator<std::pair<ioHashString const ,D3DXVECTOR3> >,0> > >,std::_Tree_iterator<std::_Tree_val<std::_Tmap_traits<ioHashString,D3DXVECTOR3,std::less<ioHashString>,std::allocator<std::pair<ioHashString const ,D3DXVECTOR3> >,0> > > ><std::_Tree_iterator<std::_Tree_val<std::_Tmap_traits<ioHashString,D3DXVECTOR3,std::less<ioHashString>,std::allocator<std::pair<ioHashString const ,D3DXVECTOR3> >,0> > > &,std::_Tree_iterator<std::_Tree_val<std::_Tmap_traits<ioHashString,D3DXVECTOR3,std::less<ioHashString>,std::allocator<std::pair<ioHashString const ,D3DXVECTOR3> >,0> > > &>, COMDAT
; _this$ = ecx

; 163  : 		{	// construct from moved values

  00000	55		 push	 ebp
  00001	8b ec		 mov	 ebp, esp
  00003	8b c1		 mov	 eax, ecx
  00005	8b 4d 08	 mov	 ecx, DWORD PTR __Val1$[ebp]
  00008	8b 09		 mov	 ecx, DWORD PTR [ecx]
  0000a	89 08		 mov	 DWORD PTR [eax], ecx
  0000c	8b 4d 0c	 mov	 ecx, DWORD PTR __Val2$[ebp]
  0000f	8b 09		 mov	 ecx, DWORD PTR [ecx]
  00011	89 48 04	 mov	 DWORD PTR [eax+4], ecx

; 164  : 		}

  00014	5d		 pop	 ebp
  00015	c2 08 00	 ret	 8
??$?0AAV?$_Tree_iterator@V?$_Tree_val@V?$_Tmap_traits@VioHashString@@UD3DXVECTOR3@@U?$less@VioHashString@@@std@@V?$allocator@U?$pair@$$CBVioHashString@@UD3DXVECTOR3@@@std@@@4@$0A@@std@@@std@@@std@@AAV01@@?$_Pair_base@V?$_Tree_iterator@V?$_Tree_val@V?$_Tmap_traits@VioHashString@@UD3DXVECTOR3@@U?$less@VioHashString@@@std@@V?$allocator@U?$pair@$$CBVioHashString@@UD3DXVECTOR3@@@std@@@4@$0A@@std@@@std@@@std@@V12@@std@@QAE@AAV?$_Tree_iterator@V?$_Tree_val@V?$_Tmap_traits@VioHashString@@UD3DXVECTOR3@@U?$less@VioHashString@@@std@@V?$allocator@U?$pair@$$CBVioHashString@@UD3DXVECTOR3@@@std@@@4@$0A@@std@@@std@@@1@0@Z ENDP ; std::_Pair_base<std::_Tree_iterator<std::_Tree_val<std::_Tmap_traits<ioHashString,D3DXVECTOR3,std::less<ioHashString>,std::allocator<std::pair<ioHashString const ,D3DXVECTOR3> >,0> > >,std::_Tree_iterator<std::_Tree_val<std::_Tmap_traits<ioHashString,D3DXVECTOR3,std::less<ioHashString>,std::allocator<std::pair<ioHashString const ,D3DXVECTOR3> >,0> > > >::_Pair_base<std::_Tree_iterator<std::_Tree_val<std::_Tmap_traits<ioHashString,D3DXVECTOR3,std::less<ioHashString>,std::allocator<std::pair<ioHashString const ,D3DXVECTOR3> >,0> > >,std::_Tree_iterator<std::_Tree_val<std::_Tmap_traits<ioHashString,D3DXVECTOR3,std::less<ioHashString>,std::allocator<std::pair<ioHashString const ,D3DXVECTOR3> >,0> > > ><std::_Tree_iterator<std::_Tree_val<std::_Tmap_traits<ioHashString,D3DXVECTOR3,std::less<ioHashString>,std::allocator<std::pair<ioHashString const ,D3DXVECTOR3> >,0> > > &,std::_Tree_iterator<std::_Tree_val<std::_Tmap_traits<ioHashString,D3DXVECTOR3,std::less<ioHashString>,std::allocator<std::pair<ioHashString const ,D3DXVECTOR3> >,0> > > &>
_TEXT	ENDS
PUBLIC	??$_Construct@UEntityGroupData@ioWorldMesh@@ABU12@@std@@YAXPAUEntityGroupData@ioWorldMesh@@ABU12@@Z ; std::_Construct<ioWorldMesh::EntityGroupData,ioWorldMesh::EntityGroupData const &>
; Function compile flags: /Ogsp
; File c:\program files (x86)\microsoft visual studio 10.0\vc\include\xmemory
;	COMDAT ??$_Construct@UEntityGroupData@ioWorldMesh@@ABU12@@std@@YAXPAUEntityGroupData@ioWorldMesh@@ABU12@@Z
_TEXT	SEGMENT
__Ptr$ = 8						; size = 4
__Val$ = 12						; size = 4
??$_Construct@UEntityGroupData@ioWorldMesh@@ABU12@@std@@YAXPAUEntityGroupData@ioWorldMesh@@ABU12@@Z PROC ; std::_Construct<ioWorldMesh::EntityGroupData,ioWorldMesh::EntityGroupData const &>, COMDAT

; 46   : 	{	// construct object at _Ptr with value _Val

  00000	55		 push	 ebp
  00001	8b ec		 mov	 ebp, esp

; 47   : 	void _FARQ *_Vptr = _Ptr;
; 48   : 	::new (_Vptr) _Ty1(_STD forward<_Ty2>(_Val));

  00003	8b 45 08	 mov	 eax, DWORD PTR __Ptr$[ebp]
  00006	85 c0		 test	 eax, eax
  00008	74 0d		 je	 SHORT $LN3@Construct
  0000a	8b 4d 0c	 mov	 ecx, DWORD PTR __Val$[ebp]
  0000d	8b 11		 mov	 edx, DWORD PTR [ecx]
  0000f	89 10		 mov	 DWORD PTR [eax], edx
  00011	8b 49 04	 mov	 ecx, DWORD PTR [ecx+4]
  00014	89 48 04	 mov	 DWORD PTR [eax+4], ecx
$LN3@Construct:

; 49   : 	}

  00017	5d		 pop	 ebp
  00018	c3		 ret	 0
??$_Construct@UEntityGroupData@ioWorldMesh@@ABU12@@std@@YAXPAUEntityGroupData@ioWorldMesh@@ABU12@@Z ENDP ; std::_Construct<ioWorldMesh::EntityGroupData,ioWorldMesh::EntityGroupData const &>
_TEXT	ENDS
PUBLIC	??$move@AAV?$_Tree_iterator@V?$_Tree_val@V?$_Tmap_traits@VioHashString@@UD3DXVECTOR3@@U?$less@VioHashString@@@std@@V?$allocator@U?$pair@$$CBVioHashString@@UD3DXVECTOR3@@@std@@@4@$0A@@std@@@std@@@std@@@std@@YA$$QAV?$_Tree_iterator@V?$_Tree_val@V?$_Tmap_traits@VioHashString@@UD3DXVECTOR3@@U?$less@VioHashString@@@std@@V?$allocator@U?$pair@$$CBVioHashString@@UD3DXVECTOR3@@@std@@@4@$0A@@std@@@std@@@0@AAV10@@Z ; std::move<std::_Tree_iterator<std::_Tree_val<std::_Tmap_traits<ioHashString,D3DXVECTOR3,std::less<ioHashString>,std::allocator<std::pair<ioHashString const ,D3DXVECTOR3> >,0> > > &>
; Function compile flags: /Ogsp
; File c:\program files (x86)\microsoft visual studio 10.0\vc\include\utility
;	COMDAT ??$move@AAV?$_Tree_iterator@V?$_Tree_val@V?$_Tmap_traits@VioHashString@@UD3DXVECTOR3@@U?$less@VioHashString@@@std@@V?$allocator@U?$pair@$$CBVioHashString@@UD3DXVECTOR3@@@std@@@4@$0A@@std@@@std@@@std@@@std@@YA$$QAV?$_Tree_iterator@V?$_Tree_val@V?$_Tmap_traits@VioHashString@@UD3DXVECTOR3@@U?$less@VioHashString@@@std@@V?$allocator@U?$pair@$$CBVioHashString@@UD3DXVECTOR3@@@std@@@4@$0A@@std@@@std@@@0@AAV10@@Z
_TEXT	SEGMENT
__Arg$ = 8						; size = 4
??$move@AAV?$_Tree_iterator@V?$_Tree_val@V?$_Tmap_traits@VioHashString@@UD3DXVECTOR3@@U?$less@VioHashString@@@std@@V?$allocator@U?$pair@$$CBVioHashString@@UD3DXVECTOR3@@@std@@@4@$0A@@std@@@std@@@std@@@std@@YA$$QAV?$_Tree_iterator@V?$_Tree_val@V?$_Tmap_traits@VioHashString@@UD3DXVECTOR3@@U?$less@VioHashString@@@std@@V?$allocator@U?$pair@$$CBVioHashString@@UD3DXVECTOR3@@@std@@@4@$0A@@std@@@std@@@0@AAV10@@Z PROC ; std::move<std::_Tree_iterator<std::_Tree_val<std::_Tmap_traits<ioHashString,D3DXVECTOR3,std::less<ioHashString>,std::allocator<std::pair<ioHashString const ,D3DXVECTOR3> >,0> > > &>, COMDAT

; 86   : 	{	// forward _Arg as movable

  00000	55		 push	 ebp
  00001	8b ec		 mov	 ebp, esp

; 87   : 	return ((typename tr1::_Remove_reference<_Ty>::_Type&&)_Arg);

  00003	8b 45 08	 mov	 eax, DWORD PTR __Arg$[ebp]

; 88   : 	}

  00006	5d		 pop	 ebp
  00007	c3		 ret	 0
??$move@AAV?$_Tree_iterator@V?$_Tree_val@V?$_Tmap_traits@VioHashString@@UD3DXVECTOR3@@U?$less@VioHashString@@@std@@V?$allocator@U?$pair@$$CBVioHashString@@UD3DXVECTOR3@@@std@@@4@$0A@@std@@@std@@@std@@@std@@YA$$QAV?$_Tree_iterator@V?$_Tree_val@V?$_Tmap_traits@VioHashString@@UD3DXVECTOR3@@U?$less@VioHashString@@@std@@V?$allocator@U?$pair@$$CBVioHashString@@UD3DXVECTOR3@@@std@@@4@$0A@@std@@@std@@@0@AAV10@@Z ENDP ; std::move<std::_Tree_iterator<std::_Tree_val<std::_Tmap_traits<ioHashString,D3DXVECTOR3,std::less<ioHashString>,std::allocator<std::pair<ioHashString const ,D3DXVECTOR3> >,0> > > &>
_TEXT	ENDS
PUBLIC	??$move@AAUEntityGroupData@ioWorldMesh@@@std@@YA$$QAUEntityGroupData@ioWorldMesh@@AAU12@@Z ; std::move<ioWorldMesh::EntityGroupData &>
; Function compile flags: /Ogsp
;	COMDAT ??$move@AAUEntityGroupData@ioWorldMesh@@@std@@YA$$QAUEntityGroupData@ioWorldMesh@@AAU12@@Z
_TEXT	SEGMENT
__Arg$ = 8						; size = 4
??$move@AAUEntityGroupData@ioWorldMesh@@@std@@YA$$QAUEntityGroupData@ioWorldMesh@@AAU12@@Z PROC ; std::move<ioWorldMesh::EntityGroupData &>, COMDAT

; 86   : 	{	// forward _Arg as movable

  00000	55		 push	 ebp
  00001	8b ec		 mov	 ebp, esp

; 87   : 	return ((typename tr1::_Remove_reference<_Ty>::_Type&&)_Arg);

  00003	8b 45 08	 mov	 eax, DWORD PTR __Arg$[ebp]

; 88   : 	}

  00006	5d		 pop	 ebp
  00007	c3		 ret	 0
??$move@AAUEntityGroupData@ioWorldMesh@@@std@@YA$$QAUEntityGroupData@ioWorldMesh@@AAU12@@Z ENDP ; std::move<ioWorldMesh::EntityGroupData &>
_TEXT	ENDS
PUBLIC	??$_Val_type@PAVioHashString@@@std@@YAPAVioHashString@@PAV1@@Z ; std::_Val_type<ioHashString *>
; Function compile flags: /Ogsp
; File c:\program files (x86)\microsoft visual studio 10.0\vc\include\xutility
;	COMDAT ??$_Val_type@PAVioHashString@@@std@@YAPAVioHashString@@PAV1@@Z
_TEXT	SEGMENT
___formal$ = 8						; size = 4
??$_Val_type@PAVioHashString@@@std@@YAPAVioHashString@@PAV1@@Z PROC ; std::_Val_type<ioHashString *>, COMDAT

; 790  : 	return (0);

  00000	33 c0		 xor	 eax, eax

; 791  : 	}

  00002	c3		 ret	 0
??$_Val_type@PAVioHashString@@@std@@YAPAVioHashString@@PAV1@@Z ENDP ; std::_Val_type<ioHashString *>
_TEXT	ENDS
PUBLIC	??$_Val_type@PAUEntityGroupData@ioWorldMesh@@@std@@YAPAUEntityGroupData@ioWorldMesh@@PAU12@@Z ; std::_Val_type<ioWorldMesh::EntityGroupData *>
; Function compile flags: /Ogsp
;	COMDAT ??$_Val_type@PAUEntityGroupData@ioWorldMesh@@@std@@YAPAUEntityGroupData@ioWorldMesh@@PAU12@@Z
_TEXT	SEGMENT
___formal$ = 8						; size = 4
??$_Val_type@PAUEntityGroupData@ioWorldMesh@@@std@@YAPAUEntityGroupData@ioWorldMesh@@PAU12@@Z PROC ; std::_Val_type<ioWorldMesh::EntityGroupData *>, COMDAT

; 790  : 	return (0);

  00000	33 c0		 xor	 eax, eax

; 791  : 	}

  00002	c3		 ret	 0
??$_Val_type@PAUEntityGroupData@ioWorldMesh@@@std@@YAPAUEntityGroupData@ioWorldMesh@@PAU12@@Z ENDP ; std::_Val_type<ioWorldMesh::EntityGroupData *>
_TEXT	ENDS
PUBLIC	??$_Destroy@UEntityGroupData@ioWorldMesh@@@std@@YAXPAUEntityGroupData@ioWorldMesh@@@Z ; std::_Destroy<ioWorldMesh::EntityGroupData>
; Function compile flags: /Ogsp
; File c:\program files (x86)\microsoft visual studio 10.0\vc\include\xmemory
;	COMDAT ??$_Destroy@UEntityGroupData@ioWorldMesh@@@std@@YAXPAUEntityGroupData@ioWorldMesh@@@Z
_TEXT	SEGMENT
__Ptr$ = 8						; size = 4
??$_Destroy@UEntityGroupData@ioWorldMesh@@@std@@YAXPAUEntityGroupData@ioWorldMesh@@@Z PROC ; std::_Destroy<ioWorldMesh::EntityGroupData>, COMDAT

; 63   : 	_Ptr->~_Ty();
; 64   : 	}

  00000	c3		 ret	 0
??$_Destroy@UEntityGroupData@ioWorldMesh@@@std@@YAXPAUEntityGroupData@ioWorldMesh@@@Z ENDP ; std::_Destroy<ioWorldMesh::EntityGroupData>
_TEXT	ENDS
PUBLIC	??$forward@UEntityGroupData@ioWorldMesh@@@std@@YA$$QAUEntityGroupData@ioWorldMesh@@AAU12@@Z ; std::forward<ioWorldMesh::EntityGroupData>
; Function compile flags: /Ogsp
; File c:\program files (x86)\microsoft visual studio 10.0\vc\include\utility
;	COMDAT ??$forward@UEntityGroupData@ioWorldMesh@@@std@@YA$$QAUEntityGroupData@ioWorldMesh@@AAU12@@Z
_TEXT	SEGMENT
__Arg$ = 8						; size = 4
??$forward@UEntityGroupData@ioWorldMesh@@@std@@YA$$QAUEntityGroupData@ioWorldMesh@@AAU12@@Z PROC ; std::forward<ioWorldMesh::EntityGroupData>, COMDAT

; 78   : 	{	// forward _Arg, given explicitly specified type parameter

  00000	55		 push	 ebp
  00001	8b ec		 mov	 ebp, esp

; 79   : 	return ((_Ty&&)_Arg);

  00003	8b 45 08	 mov	 eax, DWORD PTR __Arg$[ebp]

; 80   : 	}

  00006	5d		 pop	 ebp
  00007	c3		 ret	 0
??$forward@UEntityGroupData@ioWorldMesh@@@std@@YA$$QAUEntityGroupData@ioWorldMesh@@AAU12@@Z ENDP ; std::forward<ioWorldMesh::EntityGroupData>
_TEXT	ENDS
PUBLIC	??$forward@UD3DXVECTOR3@@@std@@YA$$QAUD3DXVECTOR3@@AAU1@@Z ; std::forward<D3DXVECTOR3>
; Function compile flags: /Ogsp
;	COMDAT ??$forward@UD3DXVECTOR3@@@std@@YA$$QAUD3DXVECTOR3@@AAU1@@Z
_TEXT	SEGMENT
__Arg$ = 8						; size = 4
??$forward@UD3DXVECTOR3@@@std@@YA$$QAUD3DXVECTOR3@@AAU1@@Z PROC ; std::forward<D3DXVECTOR3>, COMDAT

; 78   : 	{	// forward _Arg, given explicitly specified type parameter

  00000	55		 push	 ebp
  00001	8b ec		 mov	 ebp, esp

; 79   : 	return ((_Ty&&)_Arg);

  00003	8b 45 08	 mov	 eax, DWORD PTR __Arg$[ebp]

; 80   : 	}

  00006	5d		 pop	 ebp
  00007	c3		 ret	 0
??$forward@UD3DXVECTOR3@@@std@@YA$$QAUD3DXVECTOR3@@AAU1@@Z ENDP ; std::forward<D3DXVECTOR3>
_TEXT	ENDS
PUBLIC	??0D3DXVECTOR3@@QAE@XZ				; D3DXVECTOR3::D3DXVECTOR3
; Function compile flags: /Ogsp
; File c:\program files (x86)\microsoft directx sdk (june 2010)\include\d3dx9math.h
;	COMDAT ??0D3DXVECTOR3@@QAE@XZ
_TEXT	SEGMENT
??0D3DXVECTOR3@@QAE@XZ PROC				; D3DXVECTOR3::D3DXVECTOR3, COMDAT
; _this$ = ecx

; 165  :     D3DXVECTOR3() {};

  00000	8b c1		 mov	 eax, ecx
  00002	c3		 ret	 0
??0D3DXVECTOR3@@QAE@XZ ENDP				; D3DXVECTOR3::D3DXVECTOR3
_TEXT	ENDS
PUBLIC	??0D3DXVECTOR3@@QAE@MMM@Z			; D3DXVECTOR3::D3DXVECTOR3
; Function compile flags: /Ogsp
; File c:\program files (x86)\microsoft directx sdk (june 2010)\include\d3dx9math.inl
;	COMDAT ??0D3DXVECTOR3@@QAE@MMM@Z
_TEXT	SEGMENT
_fx$ = 8						; size = 4
_fy$ = 12						; size = 4
_fz$ = 16						; size = 4
??0D3DXVECTOR3@@QAE@MMM@Z PROC				; D3DXVECTOR3::D3DXVECTOR3, COMDAT
; _this$ = ecx

; 303  : {

  00000	55		 push	 ebp
  00001	8b ec		 mov	 ebp, esp

; 304  :     x = fx;

  00003	f3 0f 10 45 08	 movss	 xmm0, DWORD PTR _fx$[ebp]
  00008	8b c1		 mov	 eax, ecx
  0000a	f3 0f 11 00	 movss	 DWORD PTR [eax], xmm0

; 305  :     y = fy;

  0000e	f3 0f 10 45 0c	 movss	 xmm0, DWORD PTR _fy$[ebp]
  00013	f3 0f 11 40 04	 movss	 DWORD PTR [eax+4], xmm0

; 306  :     z = fz;

  00018	f3 0f 10 45 10	 movss	 xmm0, DWORD PTR _fz$[ebp]
  0001d	f3 0f 11 40 08	 movss	 DWORD PTR [eax+8], xmm0

; 307  : }

  00022	5d		 pop	 ebp
  00023	c2 0c 00	 ret	 12			; 0000000cH
??0D3DXVECTOR3@@QAE@MMM@Z ENDP				; D3DXVECTOR3::D3DXVECTOR3
_TEXT	ENDS
PUBLIC	__mask@@NegFloat@
PUBLIC	??GD3DXVECTOR3@@QBE?AU0@XZ			; D3DXVECTOR3::operator-
;	COMDAT __mask@@NegFloat@
CONST	SEGMENT
__mask@@NegFloat@ DB 00H, 00H, 00H, 080H, 00H, 00H, 00H, 080H, 00H, 00H, 00H
	DB	080H, 00H, 00H, 00H, 080H
; Function compile flags: /Ogsp
CONST	ENDS
;	COMDAT ??GD3DXVECTOR3@@QBE?AU0@XZ
_TEXT	SEGMENT
___$ReturnUdt$ = 8					; size = 4
??GD3DXVECTOR3@@QBE?AU0@XZ PROC				; D3DXVECTOR3::operator-, COMDAT
; _this$ = ecx

; 372  : {

  00000	55		 push	 ebp
  00001	8b ec		 mov	 ebp, esp

; 373  :     return D3DXVECTOR3(-x, -y, -z);

  00003	f3 0f 10 05 00
	00 00 00	 movss	 xmm0, DWORD PTR __mask@@NegFloat@
  0000b	8b 45 08	 mov	 eax, DWORD PTR ___$ReturnUdt$[ebp]
  0000e	f3 0f 10 09	 movss	 xmm1, DWORD PTR [ecx]
  00012	0f 57 c8	 xorps	 xmm1, xmm0
  00015	f3 0f 11 08	 movss	 DWORD PTR [eax], xmm1
  00019	f3 0f 10 49 04	 movss	 xmm1, DWORD PTR [ecx+4]
  0001e	0f 57 c8	 xorps	 xmm1, xmm0
  00021	f3 0f 11 48 04	 movss	 DWORD PTR [eax+4], xmm1
  00026	f3 0f 10 49 08	 movss	 xmm1, DWORD PTR [ecx+8]
  0002b	0f 57 c8	 xorps	 xmm1, xmm0
  0002e	f3 0f 11 48 08	 movss	 DWORD PTR [eax+8], xmm1

; 374  : }

  00033	5d		 pop	 ebp
  00034	c2 04 00	 ret	 4
??GD3DXVECTOR3@@QBE?AU0@XZ ENDP				; D3DXVECTOR3::operator-
_TEXT	ENDS
PUBLIC	??GD3DXVECTOR3@@QBE?AU0@ABU0@@Z			; D3DXVECTOR3::operator-
; Function compile flags: /Ogsp
;	COMDAT ??GD3DXVECTOR3@@QBE?AU0@ABU0@@Z
_TEXT	SEGMENT
___$ReturnUdt$ = 8					; size = 4
_v$ = 12						; size = 4
??GD3DXVECTOR3@@QBE?AU0@ABU0@@Z PROC			; D3DXVECTOR3::operator-, COMDAT
; _this$ = ecx

; 386  : {

  00000	55		 push	 ebp
  00001	8b ec		 mov	 ebp, esp

; 387  :     return D3DXVECTOR3(x - v.x, y - v.y, z - v.z);

  00003	8b 55 0c	 mov	 edx, DWORD PTR _v$[ebp]
  00006	f3 0f 10 01	 movss	 xmm0, DWORD PTR [ecx]
  0000a	f3 0f 10 0a	 movss	 xmm1, DWORD PTR [edx]
  0000e	8b 45 08	 mov	 eax, DWORD PTR ___$ReturnUdt$[ebp]
  00011	0f 5a c0	 cvtps2pd xmm0, xmm0
  00014	0f 5a c9	 cvtps2pd xmm1, xmm1
  00017	f2 0f 5c c1	 subsd	 xmm0, xmm1
  0001b	f3 0f 10 4a 04	 movss	 xmm1, DWORD PTR [edx+4]
  00020	66 0f 5a c0	 cvtpd2ps xmm0, xmm0
  00024	f3 0f 11 00	 movss	 DWORD PTR [eax], xmm0
  00028	f3 0f 10 41 04	 movss	 xmm0, DWORD PTR [ecx+4]
  0002d	0f 5a c0	 cvtps2pd xmm0, xmm0
  00030	0f 5a c9	 cvtps2pd xmm1, xmm1
  00033	f2 0f 5c c1	 subsd	 xmm0, xmm1
  00037	f3 0f 10 4a 08	 movss	 xmm1, DWORD PTR [edx+8]
  0003c	66 0f 5a c0	 cvtpd2ps xmm0, xmm0
  00040	f3 0f 11 40 04	 movss	 DWORD PTR [eax+4], xmm0
  00045	f3 0f 10 41 08	 movss	 xmm0, DWORD PTR [ecx+8]
  0004a	0f 5a c0	 cvtps2pd xmm0, xmm0
  0004d	0f 5a c9	 cvtps2pd xmm1, xmm1
  00050	f2 0f 5c c1	 subsd	 xmm0, xmm1
  00054	66 0f 5a c0	 cvtpd2ps xmm0, xmm0
  00058	f3 0f 11 40 08	 movss	 DWORD PTR [eax+8], xmm0

; 388  : }

  0005d	5d		 pop	 ebp
  0005e	c2 08 00	 ret	 8
??GD3DXVECTOR3@@QBE?AU0@ABU0@@Z ENDP			; D3DXVECTOR3::operator-
_TEXT	ENDS
PUBLIC	?D3DXVec3Length@@YAMPBUD3DXVECTOR3@@@Z		; D3DXVec3Length
; Function compile flags: /Ogsp
;	COMDAT ?D3DXVec3Length@@YAMPBUD3DXVECTOR3@@@Z
_TEXT	SEGMENT
tv169 = 8						; size = 4
tv160 = 8						; size = 4
_pV$ = 8						; size = 4
?D3DXVec3Length@@YAMPBUD3DXVECTOR3@@@Z PROC		; D3DXVec3Length, COMDAT

; 1710 : {

  00000	55		 push	 ebp
  00001	8b ec		 mov	 ebp, esp

; 1711 : #ifdef D3DX_DEBUG
; 1712 :     if(!pV)
; 1713 :         return 0.0f;
; 1714 : #endif
; 1715 : 
; 1716 : #ifdef __cplusplus
; 1717 :     return sqrtf(pV->x * pV->x + pV->y * pV->y + pV->z * pV->z);

  00003	8b 45 08	 mov	 eax, DWORD PTR _pV$[ebp]
  00006	d9 40 04	 fld	 DWORD PTR [eax+4]
  00009	d9 00		 fld	 DWORD PTR [eax]
  0000b	d9 40 08	 fld	 DWORD PTR [eax+8]
  0000e	d9 c1		 fld	 ST(1)
  00010	de ca		 fmulp	 ST(2), ST(0)
  00012	d9 c2		 fld	 ST(2)
  00014	de cb		 fmulp	 ST(3), ST(0)
  00016	d9 c9		 fxch	 ST(1)
  00018	de c2		 faddp	 ST(2), ST(0)
  0001a	d9 c0		 fld	 ST(0)
  0001c	de c9		 fmulp	 ST(1), ST(0)
  0001e	de c1		 faddp	 ST(1), ST(0)
  00020	d9 5d 08	 fstp	 DWORD PTR tv169[ebp]
  00023	d9 45 08	 fld	 DWORD PTR tv169[ebp]
  00026	e8 00 00 00 00	 call	 __CIsqrt
  0002b	d9 5d 08	 fstp	 DWORD PTR tv160[ebp]
  0002e	d9 45 08	 fld	 DWORD PTR tv160[ebp]

; 1718 : #else
; 1719 :     return (FLOAT) sqrt(pV->x * pV->x + pV->y * pV->y + pV->z * pV->z);
; 1720 : #endif
; 1721 : }

  00031	5d		 pop	 ebp
  00032	c3		 ret	 0
?D3DXVec3Length@@YAMPBUD3DXVECTOR3@@@Z ENDP		; D3DXVec3Length
_TEXT	ENDS
PUBLIC	?_DECSTR@@YAXPADH@Z				; _DECSTR
; Function compile flags: /Ogsp
; File d:\lost saga for developer\youtube\tutorial\source\src\lsclient\stringprotect.h
;	COMDAT ?_DECSTR@@YAXPADH@Z
_TEXT	SEGMENT
_s$ = 8							; size = 4
_l$ = 12						; size = 4
?_DECSTR@@YAXPADH@Z PROC				; _DECSTR, COMDAT

; 40   : __forceinline void _DECSTR(char* s, int l){int i=0,l4=(l-1)/4,*p=(int*)s;s[l-1]=0;for(;i<l4;++i)*(p++)^=0xEAEBECED;for(i=l4*4;i<l-1;++i)s[i]^=0xED-i%4;}

  00000	55		 push	 ebp
  00001	8b ec		 mov	 ebp, esp
  00003	8b 4d 0c	 mov	 ecx, DWORD PTR _l$[ebp]
  00006	56		 push	 esi
  00007	8b 75 08	 mov	 esi, DWORD PTR _s$[ebp]
  0000a	57		 push	 edi
  0000b	8d 79 ff	 lea	 edi, DWORD PTR [ecx-1]
  0000e	8b c7		 mov	 eax, edi
  00010	99		 cdq
  00011	83 e2 03	 and	 edx, 3
  00014	03 c2		 add	 eax, edx
  00016	c1 f8 02	 sar	 eax, 2
  00019	8b d6		 mov	 edx, esi
  0001b	c6 44 0e ff 00	 mov	 BYTE PTR [esi+ecx-1], 0
  00020	85 c0		 test	 eax, eax
  00022	7e 0e		 jle	 SHORT $LN4@DECSTR
  00024	8b c8		 mov	 ecx, eax
$LL6@DECSTR:
  00026	81 32 ed ec eb
	ea		 xor	 DWORD PTR [edx], -353637139 ; eaebecedH
  0002c	83 c2 04	 add	 edx, 4
  0002f	49		 dec	 ecx
  00030	75 f4		 jne	 SHORT $LL6@DECSTR
$LN4@DECSTR:
  00032	c1 e0 02	 shl	 eax, 2
  00035	eb 17		 jmp	 SHORT $LN14@DECSTR
$LL3@DECSTR:
  00037	8b c8		 mov	 ecx, eax
  00039	81 e1 03 00 00
	80		 and	 ecx, -2147483645	; 80000003H
  0003f	79 05		 jns	 SHORT $LN13@DECSTR
  00041	49		 dec	 ecx
  00042	83 c9 fc	 or	 ecx, -4			; fffffffcH
  00045	41		 inc	 ecx
$LN13@DECSTR:
  00046	b2 ed		 mov	 dl, -19			; ffffffedH
  00048	2a d1		 sub	 dl, cl
  0004a	30 14 30	 xor	 BYTE PTR [eax+esi], dl
  0004d	40		 inc	 eax
$LN14@DECSTR:
  0004e	3b c7		 cmp	 eax, edi
  00050	7c e5		 jl	 SHORT $LL3@DECSTR
  00052	5f		 pop	 edi
  00053	5e		 pop	 esi
  00054	5d		 pop	 ebp
  00055	c3		 ret	 0
?_DECSTR@@YAXPADH@Z ENDP				; _DECSTR
_TEXT	ENDS
PUBLIC	?IsMultiMap@ioGameSceneManager@@QBE?B_NXZ	; ioGameSceneManager::IsMultiMap
; Function compile flags: /Ogsp
; File d:\lost saga for developer\youtube\tutorial\source\src\lsclient\iogamescenemanager.h
;	COMDAT ?IsMultiMap@ioGameSceneManager@@QBE?B_NXZ
_TEXT	SEGMENT
?IsMultiMap@ioGameSceneManager@@QBE?B_NXZ PROC		; ioGameSceneManager::IsMultiMap, COMDAT
; _this$ = ecx

; 177  : 	inline const bool IsMultiMap() const { return m_bMultiMap; }

  00000	8a 81 9d 05 00
	00		 mov	 al, BYTE PTR [ecx+1437]
  00006	c3		 ret	 0
?IsMultiMap@ioGameSceneManager@@QBE?B_NXZ ENDP		; ioGameSceneManager::IsMultiMap
_TEXT	ENDS
PUBLIC	?GetMaxMultiMapCount@ioGameSceneManager@@QBE?BHXZ ; ioGameSceneManager::GetMaxMultiMapCount
; Function compile flags: /Ogsp
;	COMDAT ?GetMaxMultiMapCount@ioGameSceneManager@@QBE?BHXZ
_TEXT	SEGMENT
?GetMaxMultiMapCount@ioGameSceneManager@@QBE?BHXZ PROC	; ioGameSceneManager::GetMaxMultiMapCount, COMDAT
; _this$ = ecx

; 178  : 	inline const int GetMaxMultiMapCount() const { return m_iMaxMultiMapCount; }

  00000	8b 81 a4 05 00
	00		 mov	 eax, DWORD PTR [ecx+1444]
  00006	c3		 ret	 0
?GetMaxMultiMapCount@ioGameSceneManager@@QBE?BHXZ ENDP	; ioGameSceneManager::GetMaxMultiMapCount
_TEXT	ENDS
PUBLIC	?GetMultiMapCurrentIndex@ioGameSceneManager@@QBE?BHXZ ; ioGameSceneManager::GetMultiMapCurrentIndex
; Function compile flags: /Ogsp
;	COMDAT ?GetMultiMapCurrentIndex@ioGameSceneManager@@QBE?BHXZ
_TEXT	SEGMENT
?GetMultiMapCurrentIndex@ioGameSceneManager@@QBE?BHXZ PROC ; ioGameSceneManager::GetMultiMapCurrentIndex, COMDAT
; _this$ = ecx

; 179  : 	inline const int GetMultiMapCurrentIndex() const { return m_iMultiMapCurrentIndex; }

  00000	8b 81 a0 05 00
	00		 mov	 eax, DWORD PTR [ecx+1440]
  00006	c3		 ret	 0
?GetMultiMapCurrentIndex@ioGameSceneManager@@QBE?BHXZ ENDP ; ioGameSceneManager::GetMultiMapCurrentIndex
_TEXT	ENDS
PUBLIC	?size@?$vector@VioHashString@@V?$allocator@VioHashString@@@std@@@std@@QBEIXZ ; std::vector<ioHashString,std::allocator<ioHashString> >::size
; Function compile flags: /Ogsp
; File c:\program files (x86)\microsoft visual studio 10.0\vc\include\vector
;	COMDAT ?size@?$vector@VioHashString@@V?$allocator@VioHashString@@@std@@@std@@QBEIXZ
_TEXT	SEGMENT
?size@?$vector@VioHashString@@V?$allocator@VioHashString@@@std@@@std@@QBEIXZ PROC ; std::vector<ioHashString,std::allocator<ioHashString> >::size, COMDAT
; _this$ = ecx

; 879  : 		return (this->_Mylast - this->_Myfirst);

  00000	8b 41 04	 mov	 eax, DWORD PTR [ecx+4]
  00003	2b 01		 sub	 eax, DWORD PTR [ecx]
  00005	c1 f8 04	 sar	 eax, 4

; 880  : 		}

  00008	c3		 ret	 0
?size@?$vector@VioHashString@@V?$allocator@VioHashString@@@std@@@std@@QBEIXZ ENDP ; std::vector<ioHashString,std::allocator<ioHashString> >::size
_TEXT	ENDS
PUBLIC	??1?$_Vector_val@VioHashString@@V?$allocator@VioHashString@@@std@@@std@@QAE@XZ ; std::_Vector_val<ioHashString,std::allocator<ioHashString> >::~_Vector_val<ioHashString,std::allocator<ioHashString> >
; Function compile flags: /Ogsp
;	COMDAT ??1?$_Vector_val@VioHashString@@V?$allocator@VioHashString@@@std@@@std@@QAE@XZ
_TEXT	SEGMENT
??1?$_Vector_val@VioHashString@@V?$allocator@VioHashString@@@std@@@std@@QAE@XZ PROC ; std::_Vector_val<ioHashString,std::allocator<ioHashString> >::~_Vector_val<ioHashString,std::allocator<ioHashString> >, COMDAT
; _this$ = ecx

; 434  : 		}

  00000	c3		 ret	 0
??1?$_Vector_val@VioHashString@@V?$allocator@VioHashString@@@std@@@std@@QAE@XZ ENDP ; std::_Vector_val<ioHashString,std::allocator<ioHashString> >::~_Vector_val<ioHashString,std::allocator<ioHashString> >
_TEXT	ENDS
PUBLIC	??0?$allocator@VioHashString@@@std@@QAE@XZ	; std::allocator<ioHashString>::allocator<ioHashString>
; Function compile flags: /Ogsp
; File c:\program files (x86)\microsoft visual studio 10.0\vc\include\xmemory
;	COMDAT ??0?$allocator@VioHashString@@@std@@QAE@XZ
_TEXT	SEGMENT
??0?$allocator@VioHashString@@@std@@QAE@XZ PROC		; std::allocator<ioHashString>::allocator<ioHashString>, COMDAT
; _this$ = ecx

; 161  : 	_ALLOCATOR() _THROW0()

  00000	8b c1		 mov	 eax, ecx

; 162  : 		{	// construct default allocator (do nothing)
; 163  : 		}

  00002	c3		 ret	 0
??0?$allocator@VioHashString@@@std@@QAE@XZ ENDP		; std::allocator<ioHashString>::allocator<ioHashString>
_TEXT	ENDS
PUBLIC	??0?$allocator@VioHashString@@@std@@QAE@ABV01@@Z ; std::allocator<ioHashString>::allocator<ioHashString>
; Function compile flags: /Ogsp
;	COMDAT ??0?$allocator@VioHashString@@@std@@QAE@ABV01@@Z
_TEXT	SEGMENT
___formal$ = 8						; size = 4
??0?$allocator@VioHashString@@@std@@QAE@ABV01@@Z PROC	; std::allocator<ioHashString>::allocator<ioHashString>, COMDAT
; _this$ = ecx

; 165  : 	_ALLOCATOR(const _ALLOCATOR<_Ty>&) _THROW0()

  00000	8b c1		 mov	 eax, ecx

; 166  : 		{	// construct by copying (do nothing)
; 167  : 		}

  00002	c2 04 00	 ret	 4
??0?$allocator@VioHashString@@@std@@QAE@ABV01@@Z ENDP	; std::allocator<ioHashString>::allocator<ioHashString>
_TEXT	ENDS
PUBLIC	??R?$less@VioHashString@@@std@@QBE_NABVioHashString@@0@Z ; std::less<ioHashString>::operator()
EXTRN	__imp_??MioHashString@@QBE_NABV0@@Z:PROC
; Function compile flags: /Ogsp
; File c:\program files (x86)\microsoft visual studio 10.0\vc\include\xfunctional
;	COMDAT ??R?$less@VioHashString@@@std@@QBE_NABVioHashString@@0@Z
_TEXT	SEGMENT
__Left$ = 8						; size = 4
__Right$ = 12						; size = 4
??R?$less@VioHashString@@@std@@QBE_NABVioHashString@@0@Z PROC ; std::less<ioHashString>::operator(), COMDAT
; _this$ = ecx

; 124  : 		{	// apply operator< to operands

  00000	55		 push	 ebp
  00001	8b ec		 mov	 ebp, esp

; 125  : 		return (_Left < _Right);

  00003	ff 75 0c	 push	 DWORD PTR __Right$[ebp]
  00006	8b 4d 08	 mov	 ecx, DWORD PTR __Left$[ebp]
  00009	ff 15 00 00 00
	00		 call	 DWORD PTR __imp_??MioHashString@@QBE_NABV0@@Z

; 126  : 		}

  0000f	5d		 pop	 ebp
  00010	c2 08 00	 ret	 8
??R?$less@VioHashString@@@std@@QBE_NABVioHashString@@0@Z ENDP ; std::less<ioHashString>::operator()
_TEXT	ENDS
PUBLIC	?_Xlen@?$vector@VioHashString@@V?$allocator@VioHashString@@@std@@@std@@IBEXXZ ; std::vector<ioHashString,std::allocator<ioHashString> >::_Xlen
; Function compile flags: /Ogsp
; File c:\program files (x86)\microsoft visual studio 10.0\vc\include\vector
;	COMDAT ?_Xlen@?$vector@VioHashString@@V?$allocator@VioHashString@@@std@@@std@@IBEXXZ
_TEXT	SEGMENT
?_Xlen@?$vector@VioHashString@@V?$allocator@VioHashString@@@std@@@std@@IBEXXZ PROC ; std::vector<ioHashString,std::allocator<ioHashString> >::_Xlen, COMDAT
; _this$ = ecx

; 1427 : 		_Xlength_error("vector<T> too long");

  00000	68 00 00 00 00	 push	 OFFSET ??_C@_0BD@OLBABOEK@vector?$DMT?$DO?5too?5long?$AA@
  00005	ff 15 00 00 00
	00		 call	 DWORD PTR __imp_?_Xlength_error@std@@YAXPBD@Z
$LN4@Xlen@2:
$LN3@Xlen@2:
  0000b	cc		 int	 3
?_Xlen@?$vector@VioHashString@@V?$allocator@VioHashString@@@std@@@std@@IBEXXZ ENDP ; std::vector<ioHashString,std::allocator<ioHashString> >::_Xlen
_TEXT	ENDS
PUBLIC	?deallocate@?$allocator@VioHashString@@@std@@QAEXPAVioHashString@@I@Z ; std::allocator<ioHashString>::deallocate
; Function compile flags: /Ogsp
; File c:\program files (x86)\microsoft visual studio 10.0\vc\include\xmemory
;	COMDAT ?deallocate@?$allocator@VioHashString@@@std@@QAEXPAVioHashString@@I@Z
_TEXT	SEGMENT
__Ptr$ = 8						; size = 4
___formal$ = 12						; size = 4
?deallocate@?$allocator@VioHashString@@@std@@QAEXPAVioHashString@@I@Z PROC ; std::allocator<ioHashString>::deallocate, COMDAT
; _this$ = ecx

; 181  : 		{	// deallocate object at _Ptr, ignore size

  00000	55		 push	 ebp
  00001	8b ec		 mov	 ebp, esp

; 182  : 		::operator delete(_Ptr);

  00003	ff 75 08	 push	 DWORD PTR __Ptr$[ebp]
  00006	e8 00 00 00 00	 call	 ??3@YAXPAX@Z		; operator delete
  0000b	59		 pop	 ecx

; 183  : 		}

  0000c	5d		 pop	 ebp
  0000d	c2 08 00	 ret	 8
?deallocate@?$allocator@VioHashString@@@std@@QAEXPAVioHashString@@I@Z ENDP ; std::allocator<ioHashString>::deallocate
_TEXT	ENDS
PUBLIC	??0?$_Vector_const_iterator@V?$_Vector_val@VioHashString@@V?$allocator@VioHashString@@@std@@@std@@@std@@QAE@PAVioHashString@@PBU_Container_base0@1@@Z ; std::_Vector_const_iterator<std::_Vector_val<ioHashString,std::allocator<ioHashString> > >::_Vector_const_iterator<std::_Vector_val<ioHashString,std::allocator<ioHashString> > >
; Function compile flags: /Ogsp
; File c:\program files (x86)\microsoft visual studio 10.0\vc\include\vector
;	COMDAT ??0?$_Vector_const_iterator@V?$_Vector_val@VioHashString@@V?$allocator@VioHashString@@@std@@@std@@@std@@QAE@PAVioHashString@@PBU_Container_base0@1@@Z
_TEXT	SEGMENT
__Parg$ = 8						; size = 4
__Pvector$ = 12						; size = 4
??0?$_Vector_const_iterator@V?$_Vector_val@VioHashString@@V?$allocator@VioHashString@@@std@@@std@@@std@@QAE@PAVioHashString@@PBU_Container_base0@1@@Z PROC ; std::_Vector_const_iterator<std::_Vector_val<ioHashString,std::allocator<ioHashString> > >::_Vector_const_iterator<std::_Vector_val<ioHashString,std::allocator<ioHashString> > >, COMDAT
; _this$ = ecx

; 45   : 		{	// construct with pointer _Parg

  00000	55		 push	 ebp
  00001	8b ec		 mov	 ebp, esp
  00003	8b c1		 mov	 eax, ecx
  00005	8b 4d 08	 mov	 ecx, DWORD PTR __Parg$[ebp]
  00008	89 08		 mov	 DWORD PTR [eax], ecx

; 46   : 		this->_Adopt(_Pvector);
; 47   : 		}

  0000a	5d		 pop	 ebp
  0000b	c2 08 00	 ret	 8
??0?$_Vector_const_iterator@V?$_Vector_val@VioHashString@@V?$allocator@VioHashString@@@std@@@std@@@std@@QAE@PAVioHashString@@PBU_Container_base0@1@@Z ENDP ; std::_Vector_const_iterator<std::_Vector_val<ioHashString,std::allocator<ioHashString> > >::_Vector_const_iterator<std::_Vector_val<ioHashString,std::allocator<ioHashString> > >
_TEXT	ENDS
PUBLIC	??0?$_Vector_iterator@V?$_Vector_val@VioHashString@@V?$allocator@VioHashString@@@std@@@std@@@std@@QAE@PAVioHashString@@PBU_Container_base0@1@@Z ; std::_Vector_iterator<std::_Vector_val<ioHashString,std::allocator<ioHashString> > >::_Vector_iterator<std::_Vector_val<ioHashString,std::allocator<ioHashString> > >
; Function compile flags: /Ogsp
;	COMDAT ??0?$_Vector_iterator@V?$_Vector_val@VioHashString@@V?$allocator@VioHashString@@@std@@@std@@@std@@QAE@PAVioHashString@@PBU_Container_base0@1@@Z
_TEXT	SEGMENT
__Parg$ = 8						; size = 4
__Pvector$ = 12						; size = 4
??0?$_Vector_iterator@V?$_Vector_val@VioHashString@@V?$allocator@VioHashString@@@std@@@std@@@std@@QAE@PAVioHashString@@PBU_Container_base0@1@@Z PROC ; std::_Vector_iterator<std::_Vector_val<ioHashString,std::allocator<ioHashString> > >::_Vector_iterator<std::_Vector_val<ioHashString,std::allocator<ioHashString> > >, COMDAT
; _this$ = ecx

; 304  : 		{	// construct with pointer _Parg

  00000	55		 push	 ebp
  00001	8b ec		 mov	 ebp, esp
  00003	8b c1		 mov	 eax, ecx
  00005	8b 4d 08	 mov	 ecx, DWORD PTR __Parg$[ebp]
  00008	89 08		 mov	 DWORD PTR [eax], ecx

; 305  : 		}

  0000a	5d		 pop	 ebp
  0000b	c2 08 00	 ret	 8
??0?$_Vector_iterator@V?$_Vector_val@VioHashString@@V?$allocator@VioHashString@@@std@@@std@@@std@@QAE@PAVioHashString@@PBU_Container_base0@1@@Z ENDP ; std::_Vector_iterator<std::_Vector_val<ioHashString,std::allocator<ioHashString> > >::_Vector_iterator<std::_Vector_val<ioHashString,std::allocator<ioHashString> > >
_TEXT	ENDS
PUBLIC	?max_size@?$allocator@VioHashString@@@std@@QBEIXZ ; std::allocator<ioHashString>::max_size
; Function compile flags: /Ogsp
; File c:\program files (x86)\microsoft visual studio 10.0\vc\include\xmemory
;	COMDAT ?max_size@?$allocator@VioHashString@@@std@@QBEIXZ
_TEXT	SEGMENT
?max_size@?$allocator@VioHashString@@@std@@QBEIXZ PROC	; std::allocator<ioHashString>::max_size, COMDAT
; _this$ = ecx

; 218  : 		_SIZT _Count = (_SIZT)(-1) / sizeof (_Ty);
; 219  : 		return (0 < _Count ? _Count : 1);

  00000	b8 ff ff ff 0f	 mov	 eax, 268435455		; 0fffffffH

; 220  : 		}

  00005	c3		 ret	 0
?max_size@?$allocator@VioHashString@@@std@@QBEIXZ ENDP	; std::allocator<ioHashString>::max_size
_TEXT	ENDS
PUBLIC	?_Compat@?$_Vector_const_iterator@V?$_Vector_val@VioHashString@@V?$allocator@VioHashString@@@std@@@std@@@std@@QBEXABV12@@Z ; std::_Vector_const_iterator<std::_Vector_val<ioHashString,std::allocator<ioHashString> > >::_Compat
; Function compile flags: /Ogsp
; File c:\program files (x86)\microsoft visual studio 10.0\vc\include\vector
;	COMDAT ?_Compat@?$_Vector_const_iterator@V?$_Vector_val@VioHashString@@V?$allocator@VioHashString@@@std@@@std@@@std@@QBEXABV12@@Z
_TEXT	SEGMENT
___formal$ = 8						; size = 4
?_Compat@?$_Vector_const_iterator@V?$_Vector_val@VioHashString@@V?$allocator@VioHashString@@@std@@@std@@@std@@QBEXABV12@@Z PROC ; std::_Vector_const_iterator<std::_Vector_val<ioHashString,std::allocator<ioHashString> > >::_Compat, COMDAT
; _this$ = ecx

; 253  : 		}

  00000	c2 04 00	 ret	 4
?_Compat@?$_Vector_const_iterator@V?$_Vector_val@VioHashString@@V?$allocator@VioHashString@@@std@@@std@@@std@@QBEXABV12@@Z ENDP ; std::_Vector_const_iterator<std::_Vector_val<ioHashString,std::allocator<ioHashString> > >::_Compat
_TEXT	ENDS
PUBLIC	??$_Allocate@VioHashString@@@std@@YAPAVioHashString@@IPAV1@@Z ; std::_Allocate<ioHashString>
; Function compile flags: /Ogsp
; File c:\program files (x86)\microsoft visual studio 10.0\vc\include\xmemory
;	COMDAT ??$_Allocate@VioHashString@@@std@@YAPAVioHashString@@IPAV1@@Z
_TEXT	SEGMENT
$T511172 = -12						; size = 12
$T511176 = 8						; size = 4
__Count$ = 8						; size = 4
___formal$ = 12						; size = 4
??$_Allocate@VioHashString@@@std@@YAPAVioHashString@@IPAV1@@Z PROC ; std::_Allocate<ioHashString>, COMDAT

; 30   : 	{	// allocate storage for _Count elements of type _Ty

  00000	55		 push	 ebp
  00001	8b ec		 mov	 ebp, esp

; 31   : 	void *_Ptr = 0;
; 32   : 
; 33   : 	if (_Count <= 0)

  00003	8b 4d 08	 mov	 ecx, DWORD PTR __Count$[ebp]
  00006	83 ec 0c	 sub	 esp, 12			; 0000000cH
  00009	33 c0		 xor	 eax, eax
  0000b	85 c9		 test	 ecx, ecx

; 34   : 		_Count = 0;
; 35   : 	else if (((_SIZT)(-1) / sizeof (_Ty) < _Count)

  0000d	74 3c		 je	 SHORT $LN5@Allocate@3

; 36   : 		|| (_Ptr = ::operator new(_Count * sizeof (_Ty))) == 0)

  0000f	81 f9 ff ff ff
	0f		 cmp	 ecx, 268435455		; 0fffffffH
  00015	77 0e		 ja	 SHORT $LN1@Allocate@3
  00017	c1 e1 04	 shl	 ecx, 4
  0001a	51		 push	 ecx
  0001b	e8 00 00 00 00	 call	 ??2@YAPAXI@Z		; operator new
  00020	59		 pop	 ecx
  00021	85 c0		 test	 eax, eax

; 38   : 
; 39   : 	return ((_Ty _FARQ *)_Ptr);

  00023	75 26		 jne	 SHORT $LN5@Allocate@3
$LN1@Allocate@3:

; 37   : 		_THROW_NCEE(bad_alloc, 0);

  00025	83 65 08 00	 and	 DWORD PTR $T511176[ebp], 0
  00029	8d 45 08	 lea	 eax, DWORD PTR $T511176[ebp]
  0002c	50		 push	 eax
  0002d	8d 4d f4	 lea	 ecx, DWORD PTR $T511172[ebp]
  00030	ff 15 00 00 00
	00		 call	 DWORD PTR __imp_??0exception@std@@QAE@ABQBD@Z
  00036	68 00 00 00 00	 push	 OFFSET __TI2?AVbad_alloc@std@@
  0003b	8d 45 f4	 lea	 eax, DWORD PTR $T511172[ebp]
  0003e	50		 push	 eax
  0003f	c7 45 f4 00 00
	00 00		 mov	 DWORD PTR $T511172[ebp], OFFSET ??_7bad_alloc@std@@6B@
  00046	e8 00 00 00 00	 call	 __CxxThrowException@8
$LN10@Allocate@3:
$LN5@Allocate@3:

; 40   : 	}

  0004b	c9		 leave
  0004c	c3		 ret	 0
$LN9@Allocate@3:
??$_Allocate@VioHashString@@@std@@YAPAVioHashString@@IPAV1@@Z ENDP ; std::_Allocate<ioHashString>
_TEXT	ENDS
EXTRN	__imp_??0exception@std@@QAE@ABV01@@Z:PROC
; Function compile flags: /Ogsp
;	COMDAT ??0bad_alloc@std@@QAE@ABV01@@Z
_TEXT	SEGMENT
___that$ = 8						; size = 4
??0bad_alloc@std@@QAE@ABV01@@Z PROC			; std::bad_alloc::bad_alloc, COMDAT
; _this$ = ecx
  00000	55		 push	 ebp
  00001	8b ec		 mov	 ebp, esp
  00003	56		 push	 esi
  00004	ff 75 08	 push	 DWORD PTR ___that$[ebp]
  00007	8b f1		 mov	 esi, ecx
  00009	ff 15 00 00 00
	00		 call	 DWORD PTR __imp_??0exception@std@@QAE@ABV01@@Z
  0000f	c7 06 00 00 00
	00		 mov	 DWORD PTR [esi], OFFSET ??_7bad_alloc@std@@6B@
  00015	8b c6		 mov	 eax, esi
  00017	5e		 pop	 esi
  00018	5d		 pop	 ebp
  00019	c2 04 00	 ret	 4
??0bad_alloc@std@@QAE@ABV01@@Z ENDP			; std::bad_alloc::bad_alloc
_TEXT	ENDS
PUBLIC	??$_Ptr_cat@VioHashString@@V1@@std@@YA?AU_Nonscalar_ptr_iterator_tag@0@PAVioHashString@@0@Z ; std::_Ptr_cat<ioHashString,ioHashString>
; Function compile flags: /Ogsp
; File c:\program files (x86)\microsoft visual studio 10.0\vc\include\xutility
;	COMDAT ??$_Ptr_cat@VioHashString@@V1@@std@@YA?AU_Nonscalar_ptr_iterator_tag@0@PAVioHashString@@0@Z
_TEXT	SEGMENT
__Cat$ = -1						; size = 1
___formal$ = 8						; size = 4
___formal$ = 12						; size = 4
??$_Ptr_cat@VioHashString@@V1@@std@@YA?AU_Nonscalar_ptr_iterator_tag@0@PAVioHashString@@0@Z PROC ; std::_Ptr_cat<ioHashString,ioHashString>, COMDAT

; 516  : 	{	// return pointer category from pointers

  00000	55		 push	 ebp
  00001	8b ec		 mov	 ebp, esp
  00003	51		 push	 ecx

; 517  : 	typename _Ptr_cat_helper<_Elem1, _Elem2>::_Type _Cat;
; 518  : 	return (_Cat);

  00004	8a 45 ff	 mov	 al, BYTE PTR __Cat$[ebp]

; 519  : 	}

  00007	c9		 leave
  00008	c3		 ret	 0
??$_Ptr_cat@VioHashString@@V1@@std@@YA?AU_Nonscalar_ptr_iterator_tag@0@PAVioHashString@@0@Z ENDP ; std::_Ptr_cat<ioHashString,ioHashString>
_TEXT	ENDS
PUBLIC	??$_Move@AAD@std@@YA$$QADAAD@Z			; std::_Move<char &>
; Function compile flags: /Ogsp
; File c:\program files (x86)\microsoft visual studio 10.0\vc\include\utility
;	COMDAT ??$_Move@AAD@std@@YA$$QADAAD@Z
_TEXT	SEGMENT
__Arg$ = 8						; size = 4
??$_Move@AAD@std@@YA$$QADAAD@Z PROC			; std::_Move<char &>, COMDAT

; 94   : 	{	// forward _Arg as movable

  00000	55		 push	 ebp
  00001	8b ec		 mov	 ebp, esp

; 95   : 	return ((typename tr1::_Remove_reference<_Ty>::_Type&&)_Arg);

  00003	8b 45 08	 mov	 eax, DWORD PTR __Arg$[ebp]

; 96   : 	}

  00006	5d		 pop	 ebp
  00007	c3		 ret	 0
??$_Move@AAD@std@@YA$$QADAAD@Z ENDP			; std::_Move<char &>
_TEXT	ENDS
PUBLIC	??$move@AA_N@std@@YA$$QA_NAA_N@Z		; std::move<bool &>
; Function compile flags: /Ogsp
;	COMDAT ??$move@AA_N@std@@YA$$QA_NAA_N@Z
_TEXT	SEGMENT
__Arg$ = 8						; size = 4
??$move@AA_N@std@@YA$$QA_NAA_N@Z PROC			; std::move<bool &>, COMDAT

; 86   : 	{	// forward _Arg as movable

  00000	55		 push	 ebp
  00001	8b ec		 mov	 ebp, esp

; 87   : 	return ((typename tr1::_Remove_reference<_Ty>::_Type&&)_Arg);

  00003	8b 45 08	 mov	 eax, DWORD PTR __Arg$[ebp]

; 88   : 	}

  00006	5d		 pop	 ebp
  00007	c3		 ret	 0
??$move@AA_N@std@@YA$$QA_NAA_N@Z ENDP			; std::move<bool &>
_TEXT	ENDS
PUBLIC	??$move@AAVioHashString@@@std@@YA$$QAVioHashString@@AAV1@@Z ; std::move<ioHashString &>
; Function compile flags: /Ogsp
;	COMDAT ??$move@AAVioHashString@@@std@@YA$$QAVioHashString@@AAV1@@Z
_TEXT	SEGMENT
__Arg$ = 8						; size = 4
??$move@AAVioHashString@@@std@@YA$$QAVioHashString@@AAV1@@Z PROC ; std::move<ioHashString &>, COMDAT

; 86   : 	{	// forward _Arg as movable

  00000	55		 push	 ebp
  00001	8b ec		 mov	 ebp, esp

; 87   : 	return ((typename tr1::_Remove_reference<_Ty>::_Type&&)_Arg);

  00003	8b 45 08	 mov	 eax, DWORD PTR __Arg$[ebp]

; 88   : 	}

  00006	5d		 pop	 ebp
  00007	c3		 ret	 0
??$move@AAVioHashString@@@std@@YA$$QAVioHashString@@AAV1@@Z ENDP ; std::move<ioHashString &>
_TEXT	ENDS
PUBLIC	??$forward@_N@std@@YA$$QA_NAA_N@Z		; std::forward<bool>
; Function compile flags: /Ogsp
;	COMDAT ??$forward@_N@std@@YA$$QA_NAA_N@Z
_TEXT	SEGMENT
__Arg$ = 8						; size = 4
??$forward@_N@std@@YA$$QA_NAA_N@Z PROC			; std::forward<bool>, COMDAT

; 78   : 	{	// forward _Arg, given explicitly specified type parameter

  00000	55		 push	 ebp
  00001	8b ec		 mov	 ebp, esp

; 79   : 	return ((_Ty&&)_Arg);

  00003	8b 45 08	 mov	 eax, DWORD PTR __Arg$[ebp]

; 80   : 	}

  00006	5d		 pop	 ebp
  00007	c3		 ret	 0
??$forward@_N@std@@YA$$QA_NAA_N@Z ENDP			; std::forward<bool>
_TEXT	ENDS
PUBLIC	??_GioHashString@@QAEPAXI@Z			; ioHashString::`scalar deleting destructor'
; Function compile flags: /Ogsp
;	COMDAT ??_GioHashString@@QAEPAXI@Z
_TEXT	SEGMENT
___flags$ = 8						; size = 4
??_GioHashString@@QAEPAXI@Z PROC			; ioHashString::`scalar deleting destructor', COMDAT
; _this$ = ecx
  00000	55		 push	 ebp
  00001	8b ec		 mov	 ebp, esp
  00003	56		 push	 esi
  00004	8b f1		 mov	 esi, ecx
  00006	ff 15 00 00 00
	00		 call	 DWORD PTR __imp_??1ioHashString@@QAE@XZ
  0000c	f6 45 08 01	 test	 BYTE PTR ___flags$[ebp], 1
  00010	74 07		 je	 SHORT $LN1@scalar@2
  00012	56		 push	 esi
  00013	e8 00 00 00 00	 call	 ??3@YAXPAX@Z		; operator delete
  00018	59		 pop	 ecx
$LN1@scalar@2:
  00019	8b c6		 mov	 eax, esi
  0001b	5e		 pop	 esi
  0001c	5d		 pop	 ebp
  0001d	c2 04 00	 ret	 4
??_GioHashString@@QAEPAXI@Z ENDP			; ioHashString::`scalar deleting destructor'
_TEXT	ENDS
PUBLIC	??$forward@$$CBVioHashString@@@std@@YA$$QBVioHashString@@ABV1@@Z ; std::forward<ioHashString const >
; Function compile flags: /Ogsp
;	COMDAT ??$forward@$$CBVioHashString@@@std@@YA$$QBVioHashString@@ABV1@@Z
_TEXT	SEGMENT
__Arg$ = 8						; size = 4
??$forward@$$CBVioHashString@@@std@@YA$$QBVioHashString@@ABV1@@Z PROC ; std::forward<ioHashString const >, COMDAT

; 78   : 	{	// forward _Arg, given explicitly specified type parameter

  00000	55		 push	 ebp
  00001	8b ec		 mov	 ebp, esp

; 79   : 	return ((_Ty&&)_Arg);

  00003	8b 45 08	 mov	 eax, DWORD PTR __Arg$[ebp]

; 80   : 	}

  00006	5d		 pop	 ebp
  00007	c3		 ret	 0
??$forward@$$CBVioHashString@@@std@@YA$$QBVioHashString@@ABV1@@Z ENDP ; std::forward<ioHashString const >
_TEXT	ENDS
PUBLIC	??$move@ABVioHashString@@@std@@YA$$QBVioHashString@@ABV1@@Z ; std::move<ioHashString const &>
; Function compile flags: /Ogsp
;	COMDAT ??$move@ABVioHashString@@@std@@YA$$QBVioHashString@@ABV1@@Z
_TEXT	SEGMENT
__Arg$ = 8						; size = 4
??$move@ABVioHashString@@@std@@YA$$QBVioHashString@@ABV1@@Z PROC ; std::move<ioHashString const &>, COMDAT

; 86   : 	{	// forward _Arg as movable

  00000	55		 push	 ebp
  00001	8b ec		 mov	 ebp, esp

; 87   : 	return ((typename tr1::_Remove_reference<_Ty>::_Type&&)_Arg);

  00003	8b 45 08	 mov	 eax, DWORD PTR __Arg$[ebp]

; 88   : 	}

  00006	5d		 pop	 ebp
  00007	c3		 ret	 0
??$move@ABVioHashString@@@std@@YA$$QBVioHashString@@ABV1@@Z ENDP ; std::move<ioHashString const &>
_TEXT	ENDS
PUBLIC	??D?$_Vector_iterator@V?$_Vector_val@UEntityGroupData@ioWorldMesh@@V?$allocator@UEntityGroupData@ioWorldMesh@@@std@@@std@@@std@@QBEAAUEntityGroupData@ioWorldMesh@@XZ ; std::_Vector_iterator<std::_Vector_val<ioWorldMesh::EntityGroupData,std::allocator<ioWorldMesh::EntityGroupData> > >::operator*
; Function compile flags: /Ogsp
; File c:\program files (x86)\microsoft visual studio 10.0\vc\include\vector
;	COMDAT ??D?$_Vector_iterator@V?$_Vector_val@UEntityGroupData@ioWorldMesh@@V?$allocator@UEntityGroupData@ioWorldMesh@@@std@@@std@@@std@@QBEAAUEntityGroupData@ioWorldMesh@@XZ
_TEXT	SEGMENT
??D?$_Vector_iterator@V?$_Vector_val@UEntityGroupData@ioWorldMesh@@V?$allocator@UEntityGroupData@ioWorldMesh@@@std@@@std@@@std@@QBEAAUEntityGroupData@ioWorldMesh@@XZ PROC ; std::_Vector_iterator<std::_Vector_val<ioWorldMesh::EntityGroupData,std::allocator<ioWorldMesh::EntityGroupData> > >::operator*, COMDAT
; _this$ = ecx

; 322  : 		return ((reference)**(_Mybase *)this);

  00000	8b 01		 mov	 eax, DWORD PTR [ecx]

; 323  : 		}

  00002	c3		 ret	 0
??D?$_Vector_iterator@V?$_Vector_val@UEntityGroupData@ioWorldMesh@@V?$allocator@UEntityGroupData@ioWorldMesh@@@std@@@std@@@std@@QBEAAUEntityGroupData@ioWorldMesh@@XZ ENDP ; std::_Vector_iterator<std::_Vector_val<ioWorldMesh::EntityGroupData,std::allocator<ioWorldMesh::EntityGroupData> > >::operator*
_TEXT	ENDS
PUBLIC	??E?$_Vector_iterator@V?$_Vector_val@UEntityGroupData@ioWorldMesh@@V?$allocator@UEntityGroupData@ioWorldMesh@@@std@@@std@@@std@@QAEAAV01@XZ ; std::_Vector_iterator<std::_Vector_val<ioWorldMesh::EntityGroupData,std::allocator<ioWorldMesh::EntityGroupData> > >::operator++
; Function compile flags: /Ogsp
;	COMDAT ??E?$_Vector_iterator@V?$_Vector_val@UEntityGroupData@ioWorldMesh@@V?$allocator@UEntityGroupData@ioWorldMesh@@@std@@@std@@@std@@QAEAAV01@XZ
_TEXT	SEGMENT
??E?$_Vector_iterator@V?$_Vector_val@UEntityGroupData@ioWorldMesh@@V?$allocator@UEntityGroupData@ioWorldMesh@@@std@@@std@@@std@@QAEAAV01@XZ PROC ; std::_Vector_iterator<std::_Vector_val<ioWorldMesh::EntityGroupData,std::allocator<ioWorldMesh::EntityGroupData> > >::operator++, COMDAT
; _this$ = ecx

; 331  : 		{	// preincrement

  00000	8b c1		 mov	 eax, ecx

; 332  : 		++*(_Mybase *)this;

  00002	83 00 08	 add	 DWORD PTR [eax], 8

; 333  : 		return (*this);
; 334  : 		}

  00005	c3		 ret	 0
??E?$_Vector_iterator@V?$_Vector_val@UEntityGroupData@ioWorldMesh@@V?$allocator@UEntityGroupData@ioWorldMesh@@@std@@@std@@@std@@QAEAAV01@XZ ENDP ; std::_Vector_iterator<std::_Vector_val<ioWorldMesh::EntityGroupData,std::allocator<ioWorldMesh::EntityGroupData> > >::operator++
_TEXT	ENDS
PUBLIC	??1?$pair@$$CBVioHashString@@UD3DXVECTOR3@@@std@@QAE@XZ ; std::pair<ioHashString const ,D3DXVECTOR3>::~pair<ioHashString const ,D3DXVECTOR3>
; Function compile flags: /Ogsp
;	COMDAT ??1?$pair@$$CBVioHashString@@UD3DXVECTOR3@@@std@@QAE@XZ
_TEXT	SEGMENT
??1?$pair@$$CBVioHashString@@UD3DXVECTOR3@@@std@@QAE@XZ PROC ; std::pair<ioHashString const ,D3DXVECTOR3>::~pair<ioHashString const ,D3DXVECTOR3>, COMDAT
; _this$ = ecx
  00000	ff 25 00 00 00
	00		 jmp	 DWORD PTR __imp_??1ioHashString@@QAE@XZ
??1?$pair@$$CBVioHashString@@UD3DXVECTOR3@@@std@@QAE@XZ ENDP ; std::pair<ioHashString const ,D3DXVECTOR3>::~pair<ioHashString const ,D3DXVECTOR3>
_TEXT	ENDS
PUBLIC	??0?$_Vector_val@UEntityGroupData@ioWorldMesh@@V?$allocator@UEntityGroupData@ioWorldMesh@@@std@@@std@@QAE@V?$allocator@UEntityGroupData@ioWorldMesh@@@1@@Z ; std::_Vector_val<ioWorldMesh::EntityGroupData,std::allocator<ioWorldMesh::EntityGroupData> >::_Vector_val<ioWorldMesh::EntityGroupData,std::allocator<ioWorldMesh::EntityGroupData> >
; Function compile flags: /Ogsp
;	COMDAT ??0?$_Vector_val@UEntityGroupData@ioWorldMesh@@V?$allocator@UEntityGroupData@ioWorldMesh@@@std@@@std@@QAE@V?$allocator@UEntityGroupData@ioWorldMesh@@@1@@Z
_TEXT	SEGMENT
__Al$ = 8						; size = 1
??0?$_Vector_val@UEntityGroupData@ioWorldMesh@@V?$allocator@UEntityGroupData@ioWorldMesh@@@std@@@std@@QAE@V?$allocator@UEntityGroupData@ioWorldMesh@@@1@@Z PROC ; std::_Vector_val<ioWorldMesh::EntityGroupData,std::allocator<ioWorldMesh::EntityGroupData> >::_Vector_val<ioWorldMesh::EntityGroupData,std::allocator<ioWorldMesh::EntityGroupData> >, COMDAT
; _this$ = ecx

; 426  : 		{	// construct allocator from _Al

  00000	8b c1		 mov	 eax, ecx

; 427  : 		_Myfirst = 0;

  00002	33 c9		 xor	 ecx, ecx
  00004	89 08		 mov	 DWORD PTR [eax], ecx

; 428  : 		_Mylast = 0;

  00006	89 48 04	 mov	 DWORD PTR [eax+4], ecx

; 429  : 		_Myend = 0;

  00009	89 48 08	 mov	 DWORD PTR [eax+8], ecx

; 430  : 		}

  0000c	c2 04 00	 ret	 4
??0?$_Vector_val@UEntityGroupData@ioWorldMesh@@V?$allocator@UEntityGroupData@ioWorldMesh@@@std@@@std@@QAE@V?$allocator@UEntityGroupData@ioWorldMesh@@@1@@Z ENDP ; std::_Vector_val<ioWorldMesh::EntityGroupData,std::allocator<ioWorldMesh::EntityGroupData> >::_Vector_val<ioWorldMesh::EntityGroupData,std::allocator<ioWorldMesh::EntityGroupData> >
_TEXT	ENDS
PUBLIC	?_Lmost@?$_Tree@V?$_Tmap_traits@VioHashString@@UD3DXVECTOR3@@U?$less@VioHashString@@@std@@V?$allocator@U?$pair@$$CBVioHashString@@UD3DXVECTOR3@@@std@@@4@$0A@@std@@@std@@IBEAAPAU_Node@?$_Tree_nod@V?$_Tmap_traits@VioHashString@@UD3DXVECTOR3@@U?$less@VioHashString@@@std@@V?$allocator@U?$pair@$$CBVioHashString@@UD3DXVECTOR3@@@std@@@4@$0A@@std@@@2@XZ ; std::_Tree<std::_Tmap_traits<ioHashString,D3DXVECTOR3,std::less<ioHashString>,std::allocator<std::pair<ioHashString const ,D3DXVECTOR3> >,0> >::_Lmost
; Function compile flags: /Ogsp
; File c:\program files (x86)\microsoft visual studio 10.0\vc\include\xtree
;	COMDAT ?_Lmost@?$_Tree@V?$_Tmap_traits@VioHashString@@UD3DXVECTOR3@@U?$less@VioHashString@@@std@@V?$allocator@U?$pair@$$CBVioHashString@@UD3DXVECTOR3@@@std@@@4@$0A@@std@@@std@@IBEAAPAU_Node@?$_Tree_nod@V?$_Tmap_traits@VioHashString@@UD3DXVECTOR3@@U?$less@VioHashString@@@std@@V?$allocator@U?$pair@$$CBVioHashString@@UD3DXVECTOR3@@@std@@@4@$0A@@std@@@2@XZ
_TEXT	SEGMENT
?_Lmost@?$_Tree@V?$_Tmap_traits@VioHashString@@UD3DXVECTOR3@@U?$less@VioHashString@@@std@@V?$allocator@U?$pair@$$CBVioHashString@@UD3DXVECTOR3@@@std@@@4@$0A@@std@@@std@@IBEAAPAU_Node@?$_Tree_nod@V?$_Tmap_traits@VioHashString@@UD3DXVECTOR3@@U?$less@VioHashString@@@std@@V?$allocator@U?$pair@$$CBVioHashString@@UD3DXVECTOR3@@@std@@@4@$0A@@std@@@2@XZ PROC ; std::_Tree<std::_Tmap_traits<ioHashString,D3DXVECTOR3,std::less<ioHashString>,std::allocator<std::pair<ioHashString const ,D3DXVECTOR3> >,0> >::_Lmost, COMDAT
; _this$ = ecx

; 1759 : 		return (this->_Left(this->_Myhead));

  00000	8b 41 04	 mov	 eax, DWORD PTR [ecx+4]

; 1760 : 		}

  00003	c3		 ret	 0
?_Lmost@?$_Tree@V?$_Tmap_traits@VioHashString@@UD3DXVECTOR3@@U?$less@VioHashString@@@std@@V?$allocator@U?$pair@$$CBVioHashString@@UD3DXVECTOR3@@@std@@@4@$0A@@std@@@std@@IBEAAPAU_Node@?$_Tree_nod@V?$_Tmap_traits@VioHashString@@UD3DXVECTOR3@@U?$less@VioHashString@@@std@@V?$allocator@U?$pair@$$CBVioHashString@@UD3DXVECTOR3@@@std@@@4@$0A@@std@@@2@XZ ENDP ; std::_Tree<std::_Tmap_traits<ioHashString,D3DXVECTOR3,std::less<ioHashString>,std::allocator<std::pair<ioHashString const ,D3DXVECTOR3> >,0> >::_Lmost
_TEXT	ENDS
PUBLIC	?_Rmost@?$_Tree@V?$_Tmap_traits@VioHashString@@UD3DXVECTOR3@@U?$less@VioHashString@@@std@@V?$allocator@U?$pair@$$CBVioHashString@@UD3DXVECTOR3@@@std@@@4@$0A@@std@@@std@@IBEAAPAU_Node@?$_Tree_nod@V?$_Tmap_traits@VioHashString@@UD3DXVECTOR3@@U?$less@VioHashString@@@std@@V?$allocator@U?$pair@$$CBVioHashString@@UD3DXVECTOR3@@@std@@@4@$0A@@std@@@2@XZ ; std::_Tree<std::_Tmap_traits<ioHashString,D3DXVECTOR3,std::less<ioHashString>,std::allocator<std::pair<ioHashString const ,D3DXVECTOR3> >,0> >::_Rmost
; Function compile flags: /Ogsp
;	COMDAT ?_Rmost@?$_Tree@V?$_Tmap_traits@VioHashString@@UD3DXVECTOR3@@U?$less@VioHashString@@@std@@V?$allocator@U?$pair@$$CBVioHashString@@UD3DXVECTOR3@@@std@@@4@$0A@@std@@@std@@IBEAAPAU_Node@?$_Tree_nod@V?$_Tmap_traits@VioHashString@@UD3DXVECTOR3@@U?$less@VioHashString@@@std@@V?$allocator@U?$pair@$$CBVioHashString@@UD3DXVECTOR3@@@std@@@4@$0A@@std@@@2@XZ
_TEXT	SEGMENT
?_Rmost@?$_Tree@V?$_Tmap_traits@VioHashString@@UD3DXVECTOR3@@U?$less@VioHashString@@@std@@V?$allocator@U?$pair@$$CBVioHashString@@UD3DXVECTOR3@@@std@@@4@$0A@@std@@@std@@IBEAAPAU_Node@?$_Tree_nod@V?$_Tmap_traits@VioHashString@@UD3DXVECTOR3@@U?$less@VioHashString@@@std@@V?$allocator@U?$pair@$$CBVioHashString@@UD3DXVECTOR3@@@std@@@4@$0A@@std@@@2@XZ PROC ; std::_Tree<std::_Tmap_traits<ioHashString,D3DXVECTOR3,std::less<ioHashString>,std::allocator<std::pair<ioHashString const ,D3DXVECTOR3> >,0> >::_Rmost, COMDAT
; _this$ = ecx

; 1784 : 		return (this->_Right(this->_Myhead));

  00000	8b 41 04	 mov	 eax, DWORD PTR [ecx+4]
  00003	83 c0 08	 add	 eax, 8

; 1785 : 		}

  00006	c3		 ret	 0
?_Rmost@?$_Tree@V?$_Tmap_traits@VioHashString@@UD3DXVECTOR3@@U?$less@VioHashString@@@std@@V?$allocator@U?$pair@$$CBVioHashString@@UD3DXVECTOR3@@@std@@@4@$0A@@std@@@std@@IBEAAPAU_Node@?$_Tree_nod@V?$_Tmap_traits@VioHashString@@UD3DXVECTOR3@@U?$less@VioHashString@@@std@@V?$allocator@U?$pair@$$CBVioHashString@@UD3DXVECTOR3@@@std@@@4@$0A@@std@@@2@XZ ENDP ; std::_Tree<std::_Tmap_traits<ioHashString,D3DXVECTOR3,std::less<ioHashString>,std::allocator<std::pair<ioHashString const ,D3DXVECTOR3> >,0> >::_Rmost
_TEXT	ENDS
PUBLIC	?_Root@?$_Tree@V?$_Tmap_traits@VioHashString@@UD3DXVECTOR3@@U?$less@VioHashString@@@std@@V?$allocator@U?$pair@$$CBVioHashString@@UD3DXVECTOR3@@@std@@@4@$0A@@std@@@std@@IBEAAPAU_Node@?$_Tree_nod@V?$_Tmap_traits@VioHashString@@UD3DXVECTOR3@@U?$less@VioHashString@@@std@@V?$allocator@U?$pair@$$CBVioHashString@@UD3DXVECTOR3@@@std@@@4@$0A@@std@@@2@XZ ; std::_Tree<std::_Tmap_traits<ioHashString,D3DXVECTOR3,std::less<ioHashString>,std::allocator<std::pair<ioHashString const ,D3DXVECTOR3> >,0> >::_Root
; Function compile flags: /Ogsp
;	COMDAT ?_Root@?$_Tree@V?$_Tmap_traits@VioHashString@@UD3DXVECTOR3@@U?$less@VioHashString@@@std@@V?$allocator@U?$pair@$$CBVioHashString@@UD3DXVECTOR3@@@std@@@4@$0A@@std@@@std@@IBEAAPAU_Node@?$_Tree_nod@V?$_Tmap_traits@VioHashString@@UD3DXVECTOR3@@U?$less@VioHashString@@@std@@V?$allocator@U?$pair@$$CBVioHashString@@UD3DXVECTOR3@@@std@@@4@$0A@@std@@@2@XZ
_TEXT	SEGMENT
?_Root@?$_Tree@V?$_Tmap_traits@VioHashString@@UD3DXVECTOR3@@U?$less@VioHashString@@@std@@V?$allocator@U?$pair@$$CBVioHashString@@UD3DXVECTOR3@@@std@@@4@$0A@@std@@@std@@IBEAAPAU_Node@?$_Tree_nod@V?$_Tmap_traits@VioHashString@@UD3DXVECTOR3@@U?$less@VioHashString@@@std@@V?$allocator@U?$pair@$$CBVioHashString@@UD3DXVECTOR3@@@std@@@4@$0A@@std@@@2@XZ PROC ; std::_Tree<std::_Tmap_traits<ioHashString,D3DXVECTOR3,std::less<ioHashString>,std::allocator<std::pair<ioHashString const ,D3DXVECTOR3> >,0> >::_Root, COMDAT
; _this$ = ecx

; 1789 : 		return (this->_Parent(this->_Myhead));

  00000	8b 41 04	 mov	 eax, DWORD PTR [ecx+4]
  00003	83 c0 04	 add	 eax, 4

; 1790 : 		}

  00006	c3		 ret	 0
?_Root@?$_Tree@V?$_Tmap_traits@VioHashString@@UD3DXVECTOR3@@U?$less@VioHashString@@@std@@V?$allocator@U?$pair@$$CBVioHashString@@UD3DXVECTOR3@@@std@@@4@$0A@@std@@@std@@IBEAAPAU_Node@?$_Tree_nod@V?$_Tmap_traits@VioHashString@@UD3DXVECTOR3@@U?$less@VioHashString@@@std@@V?$allocator@U?$pair@$$CBVioHashString@@UD3DXVECTOR3@@@std@@@4@$0A@@std@@@2@XZ ENDP ; std::_Tree<std::_Tmap_traits<ioHashString,D3DXVECTOR3,std::less<ioHashString>,std::allocator<std::pair<ioHashString const ,D3DXVECTOR3> >,0> >::_Root
_TEXT	ENDS
PUBLIC	??1?$_Tree_val@V?$_Tmap_traits@VioHashString@@UD3DXVECTOR3@@U?$less@VioHashString@@@std@@V?$allocator@U?$pair@$$CBVioHashString@@UD3DXVECTOR3@@@std@@@4@$0A@@std@@@std@@QAE@XZ ; std::_Tree_val<std::_Tmap_traits<ioHashString,D3DXVECTOR3,std::less<ioHashString>,std::allocator<std::pair<ioHashString const ,D3DXVECTOR3> >,0> >::~_Tree_val<std::_Tmap_traits<ioHashString,D3DXVECTOR3,std::less<ioHashString>,std::allocator<std::pair<ioHashString const ,D3DXVECTOR3> >,0> >
; Function compile flags: /Ogsp
;	COMDAT ??1?$_Tree_val@V?$_Tmap_traits@VioHashString@@UD3DXVECTOR3@@U?$less@VioHashString@@@std@@V?$allocator@U?$pair@$$CBVioHashString@@UD3DXVECTOR3@@@std@@@4@$0A@@std@@@std@@QAE@XZ
_TEXT	SEGMENT
??1?$_Tree_val@V?$_Tmap_traits@VioHashString@@UD3DXVECTOR3@@U?$less@VioHashString@@@std@@V?$allocator@U?$pair@$$CBVioHashString@@UD3DXVECTOR3@@@std@@@4@$0A@@std@@@std@@QAE@XZ PROC ; std::_Tree_val<std::_Tmap_traits<ioHashString,D3DXVECTOR3,std::less<ioHashString>,std::allocator<std::pair<ioHashString const ,D3DXVECTOR3> >,0> >::~_Tree_val<std::_Tmap_traits<ioHashString,D3DXVECTOR3,std::less<ioHashString>,std::allocator<std::pair<ioHashString const ,D3DXVECTOR3> >,0> >, COMDAT
; _this$ = ecx

; 555  : 		this->_Alnod.deallocate(this->_Myhead, 1);

  00000	ff 71 04	 push	 DWORD PTR [ecx+4]
  00003	e8 00 00 00 00	 call	 ??3@YAXPAX@Z		; operator delete
  00008	59		 pop	 ecx

; 556  : 		}

  00009	c3		 ret	 0
??1?$_Tree_val@V?$_Tmap_traits@VioHashString@@UD3DXVECTOR3@@U?$less@VioHashString@@@std@@V?$allocator@U?$pair@$$CBVioHashString@@UD3DXVECTOR3@@@std@@@4@$0A@@std@@@std@@QAE@XZ ENDP ; std::_Tree_val<std::_Tmap_traits<ioHashString,D3DXVECTOR3,std::less<ioHashString>,std::allocator<std::pair<ioHashString const ,D3DXVECTOR3> >,0> >::~_Tree_val<std::_Tmap_traits<ioHashString,D3DXVECTOR3,std::less<ioHashString>,std::allocator<std::pair<ioHashString const ,D3DXVECTOR3> >,0> >
_TEXT	ENDS
PUBLIC	?_Key@?$_Tree_val@V?$_Tmap_traits@VioHashString@@UD3DXVECTOR3@@U?$less@VioHashString@@@std@@V?$allocator@U?$pair@$$CBVioHashString@@UD3DXVECTOR3@@@std@@@4@$0A@@std@@@std@@SAAAVioHashString@@PAU_Node@?$_Tree_nod@V?$_Tmap_traits@VioHashString@@UD3DXVECTOR3@@U?$less@VioHashString@@@std@@V?$allocator@U?$pair@$$CBVioHashString@@UD3DXVECTOR3@@@std@@@4@$0A@@std@@@2@@Z ; std::_Tree_val<std::_Tmap_traits<ioHashString,D3DXVECTOR3,std::less<ioHashString>,std::allocator<std::pair<ioHashString const ,D3DXVECTOR3> >,0> >::_Key
; Function compile flags: /Ogsp
;	COMDAT ?_Key@?$_Tree_val@V?$_Tmap_traits@VioHashString@@UD3DXVECTOR3@@U?$less@VioHashString@@@std@@V?$allocator@U?$pair@$$CBVioHashString@@UD3DXVECTOR3@@@std@@@4@$0A@@std@@@std@@SAAAVioHashString@@PAU_Node@?$_Tree_nod@V?$_Tmap_traits@VioHashString@@UD3DXVECTOR3@@U?$less@VioHashString@@@std@@V?$allocator@U?$pair@$$CBVioHashString@@UD3DXVECTOR3@@@std@@@4@$0A@@std@@@2@@Z
_TEXT	SEGMENT
__Pnode$ = 8						; size = 4
?_Key@?$_Tree_val@V?$_Tmap_traits@VioHashString@@UD3DXVECTOR3@@U?$less@VioHashString@@@std@@V?$allocator@U?$pair@$$CBVioHashString@@UD3DXVECTOR3@@@std@@@4@$0A@@std@@@std@@SAAAVioHashString@@PAU_Node@?$_Tree_nod@V?$_Tmap_traits@VioHashString@@UD3DXVECTOR3@@U?$less@VioHashString@@@std@@V?$allocator@U?$pair@$$CBVioHashString@@UD3DXVECTOR3@@@std@@@4@$0A@@std@@@2@@Z PROC ; std::_Tree_val<std::_Tmap_traits<ioHashString,D3DXVECTOR3,std::less<ioHashString>,std::allocator<std::pair<ioHashString const ,D3DXVECTOR3> >,0> >::_Key, COMDAT

; 616  : 		{	// return reference to key in node

  00000	55		 push	 ebp
  00001	8b ec		 mov	 ebp, esp

; 617  : 		return ((key_type&)_Traits::_Kfn(_Myval(_Pnode)));

  00003	8b 45 08	 mov	 eax, DWORD PTR __Pnode$[ebp]
  00006	83 c0 0c	 add	 eax, 12			; 0000000cH

; 618  : 		}

  00009	5d		 pop	 ebp
  0000a	c3		 ret	 0
?_Key@?$_Tree_val@V?$_Tmap_traits@VioHashString@@UD3DXVECTOR3@@U?$less@VioHashString@@@std@@V?$allocator@U?$pair@$$CBVioHashString@@UD3DXVECTOR3@@@std@@@4@$0A@@std@@@std@@SAAAVioHashString@@PAU_Node@?$_Tree_nod@V?$_Tmap_traits@VioHashString@@UD3DXVECTOR3@@U?$less@VioHashString@@@std@@V?$allocator@U?$pair@$$CBVioHashString@@UD3DXVECTOR3@@@std@@@4@$0A@@std@@@2@@Z ENDP ; std::_Tree_val<std::_Tmap_traits<ioHashString,D3DXVECTOR3,std::less<ioHashString>,std::allocator<std::pair<ioHashString const ,D3DXVECTOR3> >,0> >::_Key
_TEXT	ENDS
PUBLIC	??0?$_Vector_iterator@V?$_Vector_val@UEntityGroupData@ioWorldMesh@@V?$allocator@UEntityGroupData@ioWorldMesh@@@std@@@std@@@std@@QAE@PAUEntityGroupData@ioWorldMesh@@PBU_Container_base0@1@@Z ; std::_Vector_iterator<std::_Vector_val<ioWorldMesh::EntityGroupData,std::allocator<ioWorldMesh::EntityGroupData> > >::_Vector_iterator<std::_Vector_val<ioWorldMesh::EntityGroupData,std::allocator<ioWorldMesh::EntityGroupData> > >
; Function compile flags: /Ogsp
; File c:\program files (x86)\microsoft visual studio 10.0\vc\include\vector
;	COMDAT ??0?$_Vector_iterator@V?$_Vector_val@UEntityGroupData@ioWorldMesh@@V?$allocator@UEntityGroupData@ioWorldMesh@@@std@@@std@@@std@@QAE@PAUEntityGroupData@ioWorldMesh@@PBU_Container_base0@1@@Z
_TEXT	SEGMENT
__Parg$ = 8						; size = 4
__Pvector$ = 12						; size = 4
??0?$_Vector_iterator@V?$_Vector_val@UEntityGroupData@ioWorldMesh@@V?$allocator@UEntityGroupData@ioWorldMesh@@@std@@@std@@@std@@QAE@PAUEntityGroupData@ioWorldMesh@@PBU_Container_base0@1@@Z PROC ; std::_Vector_iterator<std::_Vector_val<ioWorldMesh::EntityGroupData,std::allocator<ioWorldMesh::EntityGroupData> > >::_Vector_iterator<std::_Vector_val<ioWorldMesh::EntityGroupData,std::allocator<ioWorldMesh::EntityGroupData> > >, COMDAT
; _this$ = ecx

; 304  : 		{	// construct with pointer _Parg

  00000	55		 push	 ebp
  00001	8b ec		 mov	 ebp, esp
  00003	8b c1		 mov	 eax, ecx
  00005	8b 4d 08	 mov	 ecx, DWORD PTR __Parg$[ebp]
  00008	89 08		 mov	 DWORD PTR [eax], ecx

; 305  : 		}

  0000a	5d		 pop	 ebp
  0000b	c2 08 00	 ret	 8
??0?$_Vector_iterator@V?$_Vector_val@UEntityGroupData@ioWorldMesh@@V?$allocator@UEntityGroupData@ioWorldMesh@@@std@@@std@@@std@@QAE@PAUEntityGroupData@ioWorldMesh@@PBU_Container_base0@1@@Z ENDP ; std::_Vector_iterator<std::_Vector_val<ioWorldMesh::EntityGroupData,std::allocator<ioWorldMesh::EntityGroupData> > >::_Vector_iterator<std::_Vector_val<ioWorldMesh::EntityGroupData,std::allocator<ioWorldMesh::EntityGroupData> > >
_TEXT	ENDS
PUBLIC	??8?$_Vector_const_iterator@V?$_Vector_val@UEntityGroupData@ioWorldMesh@@V?$allocator@UEntityGroupData@ioWorldMesh@@@std@@@std@@@std@@QBE_NABV01@@Z ; std::_Vector_const_iterator<std::_Vector_val<ioWorldMesh::EntityGroupData,std::allocator<ioWorldMesh::EntityGroupData> > >::operator==
; Function compile flags: /Ogsp
;	COMDAT ??8?$_Vector_const_iterator@V?$_Vector_val@UEntityGroupData@ioWorldMesh@@V?$allocator@UEntityGroupData@ioWorldMesh@@@std@@@std@@@std@@QBE_NABV01@@Z
_TEXT	SEGMENT
__Right$ = 8						; size = 4
??8?$_Vector_const_iterator@V?$_Vector_val@UEntityGroupData@ioWorldMesh@@V?$allocator@UEntityGroupData@ioWorldMesh@@@std@@@std@@@std@@QBE_NABV01@@Z PROC ; std::_Vector_const_iterator<std::_Vector_val<ioWorldMesh::EntityGroupData,std::allocator<ioWorldMesh::EntityGroupData> > >::operator==, COMDAT
; _this$ = ecx

; 201  : 		{	// test for iterator equality

  00000	55		 push	 ebp
  00001	8b ec		 mov	 ebp, esp

; 202  : 		_Compat(_Right);
; 203  : 		return (this->_Ptr == _Right._Ptr);

  00003	8b 01		 mov	 eax, DWORD PTR [ecx]
  00005	8b 4d 08	 mov	 ecx, DWORD PTR __Right$[ebp]
  00008	2b 01		 sub	 eax, DWORD PTR [ecx]
  0000a	f7 d8		 neg	 eax
  0000c	1b c0		 sbb	 eax, eax
  0000e	40		 inc	 eax

; 204  : 		}

  0000f	5d		 pop	 ebp
  00010	c2 04 00	 ret	 4
??8?$_Vector_const_iterator@V?$_Vector_val@UEntityGroupData@ioWorldMesh@@V?$allocator@UEntityGroupData@ioWorldMesh@@@std@@@std@@@std@@QBE_NABV01@@Z ENDP ; std::_Vector_const_iterator<std::_Vector_val<ioWorldMesh::EntityGroupData,std::allocator<ioWorldMesh::EntityGroupData> > >::operator==
_TEXT	ENDS
PUBLIC	??D?$_Tree_iterator@V?$_Tree_val@V?$_Tmap_traits@VioHashString@@UD3DXVECTOR3@@U?$less@VioHashString@@@std@@V?$allocator@U?$pair@$$CBVioHashString@@UD3DXVECTOR3@@@std@@@4@$0A@@std@@@std@@@std@@QBEAAU?$pair@$$CBVioHashString@@UD3DXVECTOR3@@@1@XZ ; std::_Tree_iterator<std::_Tree_val<std::_Tmap_traits<ioHashString,D3DXVECTOR3,std::less<ioHashString>,std::allocator<std::pair<ioHashString const ,D3DXVECTOR3> >,0> > >::operator*
; Function compile flags: /Ogsp
; File c:\program files (x86)\microsoft visual studio 10.0\vc\include\xtree
;	COMDAT ??D?$_Tree_iterator@V?$_Tree_val@V?$_Tmap_traits@VioHashString@@UD3DXVECTOR3@@U?$less@VioHashString@@@std@@V?$allocator@U?$pair@$$CBVioHashString@@UD3DXVECTOR3@@@std@@@4@$0A@@std@@@std@@@std@@QBEAAU?$pair@$$CBVioHashString@@UD3DXVECTOR3@@@1@XZ
_TEXT	SEGMENT
??D?$_Tree_iterator@V?$_Tree_val@V?$_Tmap_traits@VioHashString@@UD3DXVECTOR3@@U?$less@VioHashString@@@std@@V?$allocator@U?$pair@$$CBVioHashString@@UD3DXVECTOR3@@@std@@@4@$0A@@std@@@std@@@std@@QBEAAU?$pair@$$CBVioHashString@@UD3DXVECTOR3@@@1@XZ PROC ; std::_Tree_iterator<std::_Tree_val<std::_Tmap_traits<ioHashString,D3DXVECTOR3,std::less<ioHashString>,std::allocator<std::pair<ioHashString const ,D3DXVECTOR3> >,0> > >::operator*, COMDAT
; _this$ = ecx

; 396  : 		return ((reference)**(_Mybase *)this);

  00000	8b 01		 mov	 eax, DWORD PTR [ecx]
  00002	83 c0 0c	 add	 eax, 12			; 0000000cH

; 397  : 		}

  00005	c3		 ret	 0
??D?$_Tree_iterator@V?$_Tree_val@V?$_Tmap_traits@VioHashString@@UD3DXVECTOR3@@U?$less@VioHashString@@@std@@V?$allocator@U?$pair@$$CBVioHashString@@UD3DXVECTOR3@@@std@@@4@$0A@@std@@@std@@@std@@QBEAAU?$pair@$$CBVioHashString@@UD3DXVECTOR3@@@1@XZ ENDP ; std::_Tree_iterator<std::_Tree_val<std::_Tmap_traits<ioHashString,D3DXVECTOR3,std::less<ioHashString>,std::allocator<std::pair<ioHashString const ,D3DXVECTOR3> >,0> > >::operator*
_TEXT	ENDS
PUBLIC	?_Make_iter@?$vector@UEntityGroupData@ioWorldMesh@@V?$allocator@UEntityGroupData@ioWorldMesh@@@std@@@std@@QBE?AV?$_Vector_iterator@V?$_Vector_val@UEntityGroupData@ioWorldMesh@@V?$allocator@UEntityGroupData@ioWorldMesh@@@std@@@std@@@2@V?$_Vector_const_iterator@V?$_Vector_val@UEntityGroupData@ioWorldMesh@@V?$allocator@UEntityGroupData@ioWorldMesh@@@std@@@std@@@2@@Z ; std::vector<ioWorldMesh::EntityGroupData,std::allocator<ioWorldMesh::EntityGroupData> >::_Make_iter
; Function compile flags: /Ogsp
; File c:\program files (x86)\microsoft visual studio 10.0\vc\include\vector
;	COMDAT ?_Make_iter@?$vector@UEntityGroupData@ioWorldMesh@@V?$allocator@UEntityGroupData@ioWorldMesh@@@std@@@std@@QBE?AV?$_Vector_iterator@V?$_Vector_val@UEntityGroupData@ioWorldMesh@@V?$allocator@UEntityGroupData@ioWorldMesh@@@std@@@std@@@2@V?$_Vector_const_iterator@V?$_Vector_val@UEntityGroupData@ioWorldMesh@@V?$allocator@UEntityGroupData@ioWorldMesh@@@std@@@std@@@2@@Z
_TEXT	SEGMENT
___$ReturnUdt$ = 8					; size = 4
__Where$ = 12						; size = 4
?_Make_iter@?$vector@UEntityGroupData@ioWorldMesh@@V?$allocator@UEntityGroupData@ioWorldMesh@@@std@@@std@@QBE?AV?$_Vector_iterator@V?$_Vector_val@UEntityGroupData@ioWorldMesh@@V?$allocator@UEntityGroupData@ioWorldMesh@@@std@@@std@@@2@V?$_Vector_const_iterator@V?$_Vector_val@UEntityGroupData@ioWorldMesh@@V?$allocator@UEntityGroupData@ioWorldMesh@@@std@@@std@@@2@@Z PROC ; std::vector<ioWorldMesh::EntityGroupData,std::allocator<ioWorldMesh::EntityGroupData> >::_Make_iter, COMDAT
; _this$ = ecx

; 801  : 		{	// make iterator from const_iterator

  00000	55		 push	 ebp
  00001	8b ec		 mov	 ebp, esp

; 802  : 		return (iterator(_Where._Ptr, this));

  00003	8b 45 08	 mov	 eax, DWORD PTR ___$ReturnUdt$[ebp]
  00006	8b 4d 0c	 mov	 ecx, DWORD PTR __Where$[ebp]
  00009	89 08		 mov	 DWORD PTR [eax], ecx

; 803  : 		}

  0000b	5d		 pop	 ebp
  0000c	c2 08 00	 ret	 8
?_Make_iter@?$vector@UEntityGroupData@ioWorldMesh@@V?$allocator@UEntityGroupData@ioWorldMesh@@@std@@@std@@QBE?AV?$_Vector_iterator@V?$_Vector_val@UEntityGroupData@ioWorldMesh@@V?$allocator@UEntityGroupData@ioWorldMesh@@@std@@@std@@@2@V?$_Vector_const_iterator@V?$_Vector_val@UEntityGroupData@ioWorldMesh@@V?$allocator@UEntityGroupData@ioWorldMesh@@@std@@@std@@@2@@Z ENDP ; std::vector<ioWorldMesh::EntityGroupData,std::allocator<ioWorldMesh::EntityGroupData> >::_Make_iter
_TEXT	ENDS
PUBLIC	?max_size@?$vector@UEntityGroupData@ioWorldMesh@@V?$allocator@UEntityGroupData@ioWorldMesh@@@std@@@std@@QBEIXZ ; std::vector<ioWorldMesh::EntityGroupData,std::allocator<ioWorldMesh::EntityGroupData> >::max_size
; Function compile flags: /Ogsp
;	COMDAT ?max_size@?$vector@UEntityGroupData@ioWorldMesh@@V?$allocator@UEntityGroupData@ioWorldMesh@@@std@@@std@@QBEIXZ
_TEXT	SEGMENT
?max_size@?$vector@UEntityGroupData@ioWorldMesh@@V?$allocator@UEntityGroupData@ioWorldMesh@@@std@@@std@@QBEIXZ PROC ; std::vector<ioWorldMesh::EntityGroupData,std::allocator<ioWorldMesh::EntityGroupData> >::max_size, COMDAT
; _this$ = ecx

; 884  : 		return (this->_Alval.max_size());

  00000	b8 ff ff ff 1f	 mov	 eax, 536870911		; 1fffffffH

; 885  : 		}

  00005	c3		 ret	 0
?max_size@?$vector@UEntityGroupData@ioWorldMesh@@V?$allocator@UEntityGroupData@ioWorldMesh@@@std@@@std@@QBEIXZ ENDP ; std::vector<ioWorldMesh::EntityGroupData,std::allocator<ioWorldMesh::EntityGroupData> >::max_size
_TEXT	ENDS
PUBLIC	?_Grow_to@?$vector@UEntityGroupData@ioWorldMesh@@V?$allocator@UEntityGroupData@ioWorldMesh@@@std@@@std@@IBEII@Z ; std::vector<ioWorldMesh::EntityGroupData,std::allocator<ioWorldMesh::EntityGroupData> >::_Grow_to
; Function compile flags: /Ogsp
;	COMDAT ?_Grow_to@?$vector@UEntityGroupData@ioWorldMesh@@V?$allocator@UEntityGroupData@ioWorldMesh@@@std@@@std@@IBEII@Z
_TEXT	SEGMENT
__Count$ = 8						; size = 4
?_Grow_to@?$vector@UEntityGroupData@ioWorldMesh@@V?$allocator@UEntityGroupData@ioWorldMesh@@@std@@@std@@IBEII@Z PROC ; std::vector<ioWorldMesh::EntityGroupData,std::allocator<ioWorldMesh::EntityGroupData> >::_Grow_to, COMDAT
; _this$ = ecx

; 1274 : 		{	// grow by 50% or at least to _Count

  00000	55		 push	 ebp
  00001	8b ec		 mov	 ebp, esp

; 1275 : 		size_type _Capacity = capacity();

  00003	8b 41 08	 mov	 eax, DWORD PTR [ecx+8]
  00006	2b 01		 sub	 eax, DWORD PTR [ecx]

; 1276 : 
; 1277 : 		_Capacity = max_size() - _Capacity / 2 < _Capacity
; 1278 : 			? 0 : _Capacity + _Capacity / 2;	// try to grow by 50%

  00008	ba ff ff ff 1f	 mov	 edx, 536870911		; 1fffffffH
  0000d	c1 f8 03	 sar	 eax, 3
  00010	8b c8		 mov	 ecx, eax
  00012	d1 e9		 shr	 ecx, 1
  00014	2b d1		 sub	 edx, ecx
  00016	3b d0		 cmp	 edx, eax
  00018	73 04		 jae	 SHORT $LN4@Grow_to
  0001a	33 c0		 xor	 eax, eax
  0001c	eb 02		 jmp	 SHORT $LN5@Grow_to
$LN4@Grow_to:
  0001e	03 c1		 add	 eax, ecx
$LN5@Grow_to:

; 1279 : 		if (_Capacity < _Count)

  00020	3b 45 08	 cmp	 eax, DWORD PTR __Count$[ebp]

; 1280 : 			_Capacity = _Count;

  00023	0f 42 45 08	 cmovb	 eax, DWORD PTR __Count$[ebp]

; 1281 : 		return (_Capacity);
; 1282 : 		}

  00027	5d		 pop	 ebp
  00028	c2 04 00	 ret	 4
?_Grow_to@?$vector@UEntityGroupData@ioWorldMesh@@V?$allocator@UEntityGroupData@ioWorldMesh@@@std@@@std@@IBEII@Z ENDP ; std::vector<ioWorldMesh::EntityGroupData,std::allocator<ioWorldMesh::EntityGroupData> >::_Grow_to
_TEXT	ENDS
PUBLIC	?_Lbound@?$_Tree@V?$_Tmap_traits@VioHashString@@UD3DXVECTOR3@@U?$less@VioHashString@@@std@@V?$allocator@U?$pair@$$CBVioHashString@@UD3DXVECTOR3@@@std@@@4@$0A@@std@@@std@@IAEPAU_Node@?$_Tree_nod@V?$_Tmap_traits@VioHashString@@UD3DXVECTOR3@@U?$less@VioHashString@@@std@@V?$allocator@U?$pair@$$CBVioHashString@@UD3DXVECTOR3@@@std@@@4@$0A@@std@@@2@ABVioHashString@@@Z ; std::_Tree<std::_Tmap_traits<ioHashString,D3DXVECTOR3,std::less<ioHashString>,std::allocator<std::pair<ioHashString const ,D3DXVECTOR3> >,0> >::_Lbound
; Function compile flags: /Ogsp
; File c:\program files (x86)\microsoft visual studio 10.0\vc\include\xtree
;	COMDAT ?_Lbound@?$_Tree@V?$_Tmap_traits@VioHashString@@UD3DXVECTOR3@@U?$less@VioHashString@@@std@@V?$allocator@U?$pair@$$CBVioHashString@@UD3DXVECTOR3@@@std@@@4@$0A@@std@@@std@@IAEPAU_Node@?$_Tree_nod@V?$_Tmap_traits@VioHashString@@UD3DXVECTOR3@@U?$less@VioHashString@@@std@@V?$allocator@U?$pair@$$CBVioHashString@@UD3DXVECTOR3@@@std@@@4@$0A@@std@@@2@ABVioHashString@@@Z
_TEXT	SEGMENT
__Keyval$ = 8						; size = 4
?_Lbound@?$_Tree@V?$_Tmap_traits@VioHashString@@UD3DXVECTOR3@@U?$less@VioHashString@@@std@@V?$allocator@U?$pair@$$CBVioHashString@@UD3DXVECTOR3@@@std@@@4@$0A@@std@@@std@@IAEPAU_Node@?$_Tree_nod@V?$_Tmap_traits@VioHashString@@UD3DXVECTOR3@@U?$less@VioHashString@@@std@@V?$allocator@U?$pair@$$CBVioHashString@@UD3DXVECTOR3@@@std@@@4@$0A@@std@@@2@ABVioHashString@@@Z PROC ; std::_Tree<std::_Tmap_traits<ioHashString,D3DXVECTOR3,std::less<ioHashString>,std::allocator<std::pair<ioHashString const ,D3DXVECTOR3> >,0> >::_Lbound, COMDAT
; _this$ = ecx

; 1741 : 		{	// find leftmost node not less than _Keyval

  00000	55		 push	 ebp
  00001	8b ec		 mov	 ebp, esp

; 1742 : 		_Nodeptr _Pnode = _Root();

  00003	8b 41 04	 mov	 eax, DWORD PTR [ecx+4]
  00006	56		 push	 esi
  00007	8b 70 04	 mov	 esi, DWORD PTR [eax+4]
  0000a	57		 push	 edi

; 1743 : 		_Nodeptr _Wherenode = this->_Myhead;	// end() if search fails

  0000b	8b f8		 mov	 edi, eax
  0000d	eb 19		 jmp	 SHORT $LN26@Lbound
$LL4@Lbound:

; 1746 : 			if (_DEBUG_LT_PRED(this->comp, this->_Key(_Pnode), _Keyval))

  0000f	ff 75 08	 push	 DWORD PTR __Keyval$[ebp]
  00012	8d 4e 0c	 lea	 ecx, DWORD PTR [esi+12]
  00015	ff 15 00 00 00
	00		 call	 DWORD PTR __imp_??MioHashString@@QBE_NABV0@@Z
  0001b	84 c0		 test	 al, al
  0001d	74 05		 je	 SHORT $LN2@Lbound

; 1747 : 				_Pnode = this->_Right(_Pnode);	// descend right subtree

  0001f	8b 76 08	 mov	 esi, DWORD PTR [esi+8]

; 1748 : 			else

  00022	eb 04		 jmp	 SHORT $LN26@Lbound
$LN2@Lbound:

; 1749 : 				{	// _Pnode not less than _Keyval, remember it
; 1750 : 				_Wherenode = _Pnode;

  00024	8b fe		 mov	 edi, esi

; 1751 : 				_Pnode = this->_Left(_Pnode);	// descend left subtree

  00026	8b 36		 mov	 esi, DWORD PTR [esi]
$LN26@Lbound:

; 1744 : 
; 1745 : 		while (!this->_Isnil(_Pnode))

  00028	80 7e 29 00	 cmp	 BYTE PTR [esi+41], 0
  0002c	74 e1		 je	 SHORT $LL4@Lbound

; 1752 : 				}
; 1753 : 
; 1754 : 		return (_Wherenode);	// return best remembered candidate

  0002e	8b c7		 mov	 eax, edi
  00030	5f		 pop	 edi
  00031	5e		 pop	 esi

; 1755 : 		}

  00032	5d		 pop	 ebp
  00033	c2 04 00	 ret	 4
?_Lbound@?$_Tree@V?$_Tmap_traits@VioHashString@@UD3DXVECTOR3@@U?$less@VioHashString@@@std@@V?$allocator@U?$pair@$$CBVioHashString@@UD3DXVECTOR3@@@std@@@4@$0A@@std@@@std@@IAEPAU_Node@?$_Tree_nod@V?$_Tmap_traits@VioHashString@@UD3DXVECTOR3@@U?$less@VioHashString@@@std@@V?$allocator@U?$pair@$$CBVioHashString@@UD3DXVECTOR3@@@std@@@4@$0A@@std@@@2@ABVioHashString@@@Z ENDP ; std::_Tree<std::_Tmap_traits<ioHashString,D3DXVECTOR3,std::less<ioHashString>,std::allocator<std::pair<ioHashString const ,D3DXVECTOR3> >,0> >::_Lbound
_TEXT	ENDS
PUBLIC	??0?$_Tree_const_iterator@V?$_Tree_val@V?$_Tmap_traits@VioHashString@@UD3DXVECTOR3@@U?$less@VioHashString@@@std@@V?$allocator@U?$pair@$$CBVioHashString@@UD3DXVECTOR3@@@std@@@4@$0A@@std@@@std@@@std@@QAE@PAU_Node@?$_Tree_nod@V?$_Tmap_traits@VioHashString@@UD3DXVECTOR3@@U?$less@VioHashString@@@std@@V?$allocator@U?$pair@$$CBVioHashString@@UD3DXVECTOR3@@@std@@@4@$0A@@std@@@1@PBV?$_Tree_val@V?$_Tmap_traits@VioHashString@@UD3DXVECTOR3@@U?$less@VioHashString@@@std@@V?$allocator@U?$pair@$$CBVioHashString@@UD3DXVECTOR3@@@std@@@4@$0A@@std@@@1@@Z ; std::_Tree_const_iterator<std::_Tree_val<std::_Tmap_traits<ioHashString,D3DXVECTOR3,std::less<ioHashString>,std::allocator<std::pair<ioHashString const ,D3DXVECTOR3> >,0> > >::_Tree_const_iterator<std::_Tree_val<std::_Tmap_traits<ioHashString,D3DXVECTOR3,std::less<ioHashString>,std::allocator<std::pair<ioHashString const ,D3DXVECTOR3> >,0> > >
; Function compile flags: /Ogsp
;	COMDAT ??0?$_Tree_const_iterator@V?$_Tree_val@V?$_Tmap_traits@VioHashString@@UD3DXVECTOR3@@U?$less@VioHashString@@@std@@V?$allocator@U?$pair@$$CBVioHashString@@UD3DXVECTOR3@@@std@@@4@$0A@@std@@@std@@@std@@QAE@PAU_Node@?$_Tree_nod@V?$_Tmap_traits@VioHashString@@UD3DXVECTOR3@@U?$less@VioHashString@@@std@@V?$allocator@U?$pair@$$CBVioHashString@@UD3DXVECTOR3@@@std@@@4@$0A@@std@@@1@PBV?$_Tree_val@V?$_Tmap_traits@VioHashString@@UD3DXVECTOR3@@U?$less@VioHashString@@@std@@V?$allocator@U?$pair@$$CBVioHashString@@UD3DXVECTOR3@@@std@@@4@$0A@@std@@@1@@Z
_TEXT	SEGMENT
__Pnode$ = 8						; size = 4
__Plist$ = 12						; size = 4
??0?$_Tree_const_iterator@V?$_Tree_val@V?$_Tmap_traits@VioHashString@@UD3DXVECTOR3@@U?$less@VioHashString@@@std@@V?$allocator@U?$pair@$$CBVioHashString@@UD3DXVECTOR3@@@std@@@4@$0A@@std@@@std@@@std@@QAE@PAU_Node@?$_Tree_nod@V?$_Tmap_traits@VioHashString@@UD3DXVECTOR3@@U?$less@VioHashString@@@std@@V?$allocator@U?$pair@$$CBVioHashString@@UD3DXVECTOR3@@@std@@@4@$0A@@std@@@1@PBV?$_Tree_val@V?$_Tmap_traits@VioHashString@@UD3DXVECTOR3@@U?$less@VioHashString@@@std@@V?$allocator@U?$pair@$$CBVioHashString@@UD3DXVECTOR3@@@std@@@4@$0A@@std@@@1@@Z PROC ; std::_Tree_const_iterator<std::_Tree_val<std::_Tmap_traits<ioHashString,D3DXVECTOR3,std::less<ioHashString>,std::allocator<std::pair<ioHashString const ,D3DXVECTOR3> >,0> > >::_Tree_const_iterator<std::_Tree_val<std::_Tmap_traits<ioHashString,D3DXVECTOR3,std::less<ioHashString>,std::allocator<std::pair<ioHashString const ,D3DXVECTOR3> >,0> > >, COMDAT
; _this$ = ecx

; 213  : 		{	// construct with node pointer _Pnode

  00000	55		 push	 ebp
  00001	8b ec		 mov	 ebp, esp
  00003	8b c1		 mov	 eax, ecx
  00005	8b 4d 08	 mov	 ecx, DWORD PTR __Pnode$[ebp]
  00008	89 08		 mov	 DWORD PTR [eax], ecx

; 214  : 		}

  0000a	5d		 pop	 ebp
  0000b	c2 08 00	 ret	 8
??0?$_Tree_const_iterator@V?$_Tree_val@V?$_Tmap_traits@VioHashString@@UD3DXVECTOR3@@U?$less@VioHashString@@@std@@V?$allocator@U?$pair@$$CBVioHashString@@UD3DXVECTOR3@@@std@@@4@$0A@@std@@@std@@@std@@QAE@PAU_Node@?$_Tree_nod@V?$_Tmap_traits@VioHashString@@UD3DXVECTOR3@@U?$less@VioHashString@@@std@@V?$allocator@U?$pair@$$CBVioHashString@@UD3DXVECTOR3@@@std@@@4@$0A@@std@@@1@PBV?$_Tree_val@V?$_Tmap_traits@VioHashString@@UD3DXVECTOR3@@U?$less@VioHashString@@@std@@V?$allocator@U?$pair@$$CBVioHashString@@UD3DXVECTOR3@@@std@@@4@$0A@@std@@@1@@Z ENDP ; std::_Tree_const_iterator<std::_Tree_val<std::_Tmap_traits<ioHashString,D3DXVECTOR3,std::less<ioHashString>,std::allocator<std::pair<ioHashString const ,D3DXVECTOR3> >,0> > >::_Tree_const_iterator<std::_Tree_val<std::_Tmap_traits<ioHashString,D3DXVECTOR3,std::less<ioHashString>,std::allocator<std::pair<ioHashString const ,D3DXVECTOR3> >,0> > >
_TEXT	ENDS
PUBLIC	??0?$_Pair_base@$$CBVioHashString@@UD3DXVECTOR3@@@std@@QAE@ABVioHashString@@$$QAUD3DXVECTOR3@@@Z ; std::_Pair_base<ioHashString const ,D3DXVECTOR3>::_Pair_base<ioHashString const ,D3DXVECTOR3>
; Function compile flags: /Ogsp
; File c:\program files (x86)\microsoft visual studio 10.0\vc\include\utility
;	COMDAT ??0?$_Pair_base@$$CBVioHashString@@UD3DXVECTOR3@@@std@@QAE@ABVioHashString@@$$QAUD3DXVECTOR3@@@Z
_TEXT	SEGMENT
__Val1$ = 8						; size = 4
__Val2$ = 12						; size = 4
??0?$_Pair_base@$$CBVioHashString@@UD3DXVECTOR3@@@std@@QAE@ABVioHashString@@$$QAUD3DXVECTOR3@@@Z PROC ; std::_Pair_base<ioHashString const ,D3DXVECTOR3>::_Pair_base<ioHashString const ,D3DXVECTOR3>, COMDAT
; _this$ = ecx

; 150  : 		{	// construct from specified values

  00000	55		 push	 ebp
  00001	8b ec		 mov	 ebp, esp
  00003	53		 push	 ebx
  00004	56		 push	 esi
  00005	57		 push	 edi
  00006	ff 75 08	 push	 DWORD PTR __Val1$[ebp]
  00009	8b d9		 mov	 ebx, ecx
  0000b	ff 15 00 00 00
	00		 call	 DWORD PTR __imp_??0ioHashString@@QAE@ABV0@@Z
  00011	8b 75 0c	 mov	 esi, DWORD PTR __Val2$[ebp]
  00014	8d 7b 10	 lea	 edi, DWORD PTR [ebx+16]
  00017	a5		 movsd
  00018	a5		 movsd
  00019	a5		 movsd
  0001a	5f		 pop	 edi
  0001b	5e		 pop	 esi

; 151  : 		}

  0001c	8b c3		 mov	 eax, ebx
  0001e	5b		 pop	 ebx
  0001f	5d		 pop	 ebp
  00020	c2 08 00	 ret	 8
??0?$_Pair_base@$$CBVioHashString@@UD3DXVECTOR3@@@std@@QAE@ABVioHashString@@$$QAUD3DXVECTOR3@@@Z ENDP ; std::_Pair_base<ioHashString const ,D3DXVECTOR3>::_Pair_base<ioHashString const ,D3DXVECTOR3>
_TEXT	ENDS
PUBLIC	?allocate@?$allocator@UEntityGroupData@ioWorldMesh@@@std@@QAEPAUEntityGroupData@ioWorldMesh@@I@Z ; std::allocator<ioWorldMesh::EntityGroupData>::allocate
; Function compile flags: /Ogsp
; File c:\program files (x86)\microsoft visual studio 10.0\vc\include\xmemory
;	COMDAT ?allocate@?$allocator@UEntityGroupData@ioWorldMesh@@@std@@QAEPAUEntityGroupData@ioWorldMesh@@I@Z
_TEXT	SEGMENT
__Count$ = 8						; size = 4
?allocate@?$allocator@UEntityGroupData@ioWorldMesh@@@std@@QAEPAUEntityGroupData@ioWorldMesh@@I@Z PROC ; std::allocator<ioWorldMesh::EntityGroupData>::allocate, COMDAT
; _this$ = ecx

; 186  : 		{	// allocate array of _Count elements

  00000	55		 push	 ebp
  00001	8b ec		 mov	 ebp, esp

; 187  : 		return (_Allocate(_Count, (pointer)0));

  00003	6a 00		 push	 0
  00005	ff 75 08	 push	 DWORD PTR __Count$[ebp]
  00008	e8 00 00 00 00	 call	 ??$_Allocate@UEntityGroupData@ioWorldMesh@@@std@@YAPAUEntityGroupData@ioWorldMesh@@IPAU12@@Z ; std::_Allocate<ioWorldMesh::EntityGroupData>
  0000d	59		 pop	 ecx
  0000e	59		 pop	 ecx

; 188  : 		}

  0000f	5d		 pop	 ebp
  00010	c2 04 00	 ret	 4
?allocate@?$allocator@UEntityGroupData@ioWorldMesh@@@std@@QAEPAUEntityGroupData@ioWorldMesh@@I@Z ENDP ; std::allocator<ioWorldMesh::EntityGroupData>::allocate
_TEXT	ENDS
PUBLIC	?_Lrotate@?$_Tree@V?$_Tmap_traits@VioHashString@@UD3DXVECTOR3@@U?$less@VioHashString@@@std@@V?$allocator@U?$pair@$$CBVioHashString@@UD3DXVECTOR3@@@std@@@4@$0A@@std@@@std@@IAEXPAU_Node@?$_Tree_nod@V?$_Tmap_traits@VioHashString@@UD3DXVECTOR3@@U?$less@VioHashString@@@std@@V?$allocator@U?$pair@$$CBVioHashString@@UD3DXVECTOR3@@@std@@@4@$0A@@std@@@2@@Z ; std::_Tree<std::_Tmap_traits<ioHashString,D3DXVECTOR3,std::less<ioHashString>,std::allocator<std::pair<ioHashString const ,D3DXVECTOR3> >,0> >::_Lrotate
; Function compile flags: /Ogsp
; File c:\program files (x86)\microsoft visual studio 10.0\vc\include\xtree
;	COMDAT ?_Lrotate@?$_Tree@V?$_Tmap_traits@VioHashString@@UD3DXVECTOR3@@U?$less@VioHashString@@@std@@V?$allocator@U?$pair@$$CBVioHashString@@UD3DXVECTOR3@@@std@@@4@$0A@@std@@@std@@IAEXPAU_Node@?$_Tree_nod@V?$_Tmap_traits@VioHashString@@UD3DXVECTOR3@@U?$less@VioHashString@@@std@@V?$allocator@U?$pair@$$CBVioHashString@@UD3DXVECTOR3@@@std@@@4@$0A@@std@@@2@@Z
_TEXT	SEGMENT
__Wherenode$ = 8					; size = 4
?_Lrotate@?$_Tree@V?$_Tmap_traits@VioHashString@@UD3DXVECTOR3@@U?$less@VioHashString@@@std@@V?$allocator@U?$pair@$$CBVioHashString@@UD3DXVECTOR3@@@std@@@4@$0A@@std@@@std@@IAEXPAU_Node@?$_Tree_nod@V?$_Tmap_traits@VioHashString@@UD3DXVECTOR3@@U?$less@VioHashString@@@std@@V?$allocator@U?$pair@$$CBVioHashString@@UD3DXVECTOR3@@@std@@@4@$0A@@std@@@2@@Z PROC ; std::_Tree<std::_Tmap_traits<ioHashString,D3DXVECTOR3,std::less<ioHashString>,std::allocator<std::pair<ioHashString const ,D3DXVECTOR3> >,0> >::_Lrotate, COMDAT
; _this$ = ecx

; 1763 : 		{	// promote right node to root of subtree

  00000	55		 push	 ebp
  00001	8b ec		 mov	 ebp, esp

; 1764 : 		_Nodeptr _Pnode = this->_Right(_Wherenode);

  00003	8b 55 08	 mov	 edx, DWORD PTR __Wherenode$[ebp]
  00006	8b 42 08	 mov	 eax, DWORD PTR [edx+8]
  00009	56		 push	 esi

; 1765 : 		this->_Right(_Wherenode) = this->_Left(_Pnode);

  0000a	8b 30		 mov	 esi, DWORD PTR [eax]
  0000c	89 72 08	 mov	 DWORD PTR [edx+8], esi

; 1766 : 
; 1767 : 		if (!this->_Isnil(this->_Left(_Pnode)))

  0000f	8b 30		 mov	 esi, DWORD PTR [eax]
  00011	80 7e 29 00	 cmp	 BYTE PTR [esi+41], 0
  00015	75 03		 jne	 SHORT $LN5@Lrotate

; 1768 : 			this->_Parent(this->_Left(_Pnode)) = _Wherenode;

  00017	89 56 04	 mov	 DWORD PTR [esi+4], edx
$LN5@Lrotate:

; 1769 : 		this->_Parent(_Pnode) = this->_Parent(_Wherenode);

  0001a	8b 72 04	 mov	 esi, DWORD PTR [edx+4]
  0001d	89 70 04	 mov	 DWORD PTR [eax+4], esi

; 1770 : 
; 1771 : 		if (_Wherenode == _Root())

  00020	8b 49 04	 mov	 ecx, DWORD PTR [ecx+4]
  00023	5e		 pop	 esi
  00024	3b 51 04	 cmp	 edx, DWORD PTR [ecx+4]
  00027	75 05		 jne	 SHORT $LN4@Lrotate

; 1772 : 			_Root() = _Pnode;

  00029	89 41 04	 mov	 DWORD PTR [ecx+4], eax

; 1773 : 		else if (_Wherenode == this->_Left(this->_Parent(_Wherenode)))

  0002c	eb 0e		 jmp	 SHORT $LN1@Lrotate
$LN4@Lrotate:
  0002e	8b 4a 04	 mov	 ecx, DWORD PTR [edx+4]
  00031	3b 11		 cmp	 edx, DWORD PTR [ecx]
  00033	75 04		 jne	 SHORT $LN2@Lrotate

; 1774 : 			this->_Left(this->_Parent(_Wherenode)) = _Pnode;

  00035	89 01		 mov	 DWORD PTR [ecx], eax

; 1775 : 		else

  00037	eb 03		 jmp	 SHORT $LN1@Lrotate
$LN2@Lrotate:

; 1776 : 			this->_Right(this->_Parent(_Wherenode)) = _Pnode;

  00039	89 41 08	 mov	 DWORD PTR [ecx+8], eax
$LN1@Lrotate:

; 1777 : 
; 1778 : 		this->_Left(_Pnode) = _Wherenode;

  0003c	89 10		 mov	 DWORD PTR [eax], edx

; 1779 : 		this->_Parent(_Wherenode) = _Pnode;

  0003e	89 42 04	 mov	 DWORD PTR [edx+4], eax

; 1780 : 		}

  00041	5d		 pop	 ebp
  00042	c2 04 00	 ret	 4
?_Lrotate@?$_Tree@V?$_Tmap_traits@VioHashString@@UD3DXVECTOR3@@U?$less@VioHashString@@@std@@V?$allocator@U?$pair@$$CBVioHashString@@UD3DXVECTOR3@@@std@@@4@$0A@@std@@@std@@IAEXPAU_Node@?$_Tree_nod@V?$_Tmap_traits@VioHashString@@UD3DXVECTOR3@@U?$less@VioHashString@@@std@@V?$allocator@U?$pair@$$CBVioHashString@@UD3DXVECTOR3@@@std@@@4@$0A@@std@@@2@@Z ENDP ; std::_Tree<std::_Tmap_traits<ioHashString,D3DXVECTOR3,std::less<ioHashString>,std::allocator<std::pair<ioHashString const ,D3DXVECTOR3> >,0> >::_Lrotate
_TEXT	ENDS
PUBLIC	?_Rrotate@?$_Tree@V?$_Tmap_traits@VioHashString@@UD3DXVECTOR3@@U?$less@VioHashString@@@std@@V?$allocator@U?$pair@$$CBVioHashString@@UD3DXVECTOR3@@@std@@@4@$0A@@std@@@std@@IAEXPAU_Node@?$_Tree_nod@V?$_Tmap_traits@VioHashString@@UD3DXVECTOR3@@U?$less@VioHashString@@@std@@V?$allocator@U?$pair@$$CBVioHashString@@UD3DXVECTOR3@@@std@@@4@$0A@@std@@@2@@Z ; std::_Tree<std::_Tmap_traits<ioHashString,D3DXVECTOR3,std::less<ioHashString>,std::allocator<std::pair<ioHashString const ,D3DXVECTOR3> >,0> >::_Rrotate
; Function compile flags: /Ogsp
;	COMDAT ?_Rrotate@?$_Tree@V?$_Tmap_traits@VioHashString@@UD3DXVECTOR3@@U?$less@VioHashString@@@std@@V?$allocator@U?$pair@$$CBVioHashString@@UD3DXVECTOR3@@@std@@@4@$0A@@std@@@std@@IAEXPAU_Node@?$_Tree_nod@V?$_Tmap_traits@VioHashString@@UD3DXVECTOR3@@U?$less@VioHashString@@@std@@V?$allocator@U?$pair@$$CBVioHashString@@UD3DXVECTOR3@@@std@@@4@$0A@@std@@@2@@Z
_TEXT	SEGMENT
__Wherenode$ = 8					; size = 4
?_Rrotate@?$_Tree@V?$_Tmap_traits@VioHashString@@UD3DXVECTOR3@@U?$less@VioHashString@@@std@@V?$allocator@U?$pair@$$CBVioHashString@@UD3DXVECTOR3@@@std@@@4@$0A@@std@@@std@@IAEXPAU_Node@?$_Tree_nod@V?$_Tmap_traits@VioHashString@@UD3DXVECTOR3@@U?$less@VioHashString@@@std@@V?$allocator@U?$pair@$$CBVioHashString@@UD3DXVECTOR3@@@std@@@4@$0A@@std@@@2@@Z PROC ; std::_Tree<std::_Tmap_traits<ioHashString,D3DXVECTOR3,std::less<ioHashString>,std::allocator<std::pair<ioHashString const ,D3DXVECTOR3> >,0> >::_Rrotate, COMDAT
; _this$ = ecx

; 1793 : 		{	// promote left node to root of subtree

  00000	55		 push	 ebp
  00001	8b ec		 mov	 ebp, esp

; 1794 : 		_Nodeptr _Pnode = this->_Left(_Wherenode);

  00003	8b 55 08	 mov	 edx, DWORD PTR __Wherenode$[ebp]
  00006	8b 02		 mov	 eax, DWORD PTR [edx]
  00008	56		 push	 esi

; 1795 : 		this->_Left(_Wherenode) = this->_Right(_Pnode);

  00009	8b 70 08	 mov	 esi, DWORD PTR [eax+8]
  0000c	89 32		 mov	 DWORD PTR [edx], esi

; 1796 : 
; 1797 : 		if (!this->_Isnil(this->_Right(_Pnode)))

  0000e	8b 70 08	 mov	 esi, DWORD PTR [eax+8]
  00011	80 7e 29 00	 cmp	 BYTE PTR [esi+41], 0
  00015	75 03		 jne	 SHORT $LN5@Rrotate

; 1798 : 			this->_Parent(this->_Right(_Pnode)) = _Wherenode;

  00017	89 56 04	 mov	 DWORD PTR [esi+4], edx
$LN5@Rrotate:

; 1799 : 		this->_Parent(_Pnode) = this->_Parent(_Wherenode);

  0001a	8b 72 04	 mov	 esi, DWORD PTR [edx+4]
  0001d	89 70 04	 mov	 DWORD PTR [eax+4], esi

; 1800 : 
; 1801 : 		if (_Wherenode == _Root())

  00020	8b 49 04	 mov	 ecx, DWORD PTR [ecx+4]
  00023	5e		 pop	 esi
  00024	3b 51 04	 cmp	 edx, DWORD PTR [ecx+4]
  00027	75 05		 jne	 SHORT $LN4@Rrotate

; 1802 : 			_Root() = _Pnode;

  00029	89 41 04	 mov	 DWORD PTR [ecx+4], eax

; 1803 : 		else if (_Wherenode == this->_Right(this->_Parent(_Wherenode)))

  0002c	eb 0f		 jmp	 SHORT $LN1@Rrotate
$LN4@Rrotate:
  0002e	8b 4a 04	 mov	 ecx, DWORD PTR [edx+4]
  00031	3b 51 08	 cmp	 edx, DWORD PTR [ecx+8]
  00034	75 05		 jne	 SHORT $LN2@Rrotate

; 1804 : 			this->_Right(this->_Parent(_Wherenode)) = _Pnode;

  00036	89 41 08	 mov	 DWORD PTR [ecx+8], eax

; 1805 : 		else

  00039	eb 02		 jmp	 SHORT $LN1@Rrotate
$LN2@Rrotate:

; 1806 : 			this->_Left(this->_Parent(_Wherenode)) = _Pnode;

  0003b	89 01		 mov	 DWORD PTR [ecx], eax
$LN1@Rrotate:

; 1807 : 
; 1808 : 		this->_Right(_Pnode) = _Wherenode;

  0003d	89 50 08	 mov	 DWORD PTR [eax+8], edx

; 1809 : 		this->_Parent(_Wherenode) = _Pnode;

  00040	89 42 04	 mov	 DWORD PTR [edx+4], eax

; 1810 : 		}

  00043	5d		 pop	 ebp
  00044	c2 04 00	 ret	 4
?_Rrotate@?$_Tree@V?$_Tmap_traits@VioHashString@@UD3DXVECTOR3@@U?$less@VioHashString@@@std@@V?$allocator@U?$pair@$$CBVioHashString@@UD3DXVECTOR3@@@std@@@4@$0A@@std@@@std@@IAEXPAU_Node@?$_Tree_nod@V?$_Tmap_traits@VioHashString@@UD3DXVECTOR3@@U?$less@VioHashString@@@std@@V?$allocator@U?$pair@$$CBVioHashString@@UD3DXVECTOR3@@@std@@@4@$0A@@std@@@2@@Z ENDP ; std::_Tree<std::_Tmap_traits<ioHashString,D3DXVECTOR3,std::less<ioHashString>,std::allocator<std::pair<ioHashString const ,D3DXVECTOR3> >,0> >::_Rrotate
_TEXT	ENDS
PUBLIC	??0?$_Tree_nod@V?$_Tmap_traits@VioHashString@@UD3DXVECTOR3@@U?$less@VioHashString@@@std@@V?$allocator@U?$pair@$$CBVioHashString@@UD3DXVECTOR3@@@std@@@4@$0A@@std@@@std@@QAE@ABU?$less@VioHashString@@@1@V?$allocator@U?$pair@$$CBVioHashString@@UD3DXVECTOR3@@@std@@@1@@Z ; std::_Tree_nod<std::_Tmap_traits<ioHashString,D3DXVECTOR3,std::less<ioHashString>,std::allocator<std::pair<ioHashString const ,D3DXVECTOR3> >,0> >::_Tree_nod<std::_Tmap_traits<ioHashString,D3DXVECTOR3,std::less<ioHashString>,std::allocator<std::pair<ioHashString const ,D3DXVECTOR3> >,0> >
; Function compile flags: /Ogsp
;	COMDAT ??0?$_Tree_nod@V?$_Tmap_traits@VioHashString@@UD3DXVECTOR3@@U?$less@VioHashString@@@std@@V?$allocator@U?$pair@$$CBVioHashString@@UD3DXVECTOR3@@@std@@@4@$0A@@std@@@std@@QAE@ABU?$less@VioHashString@@@1@V?$allocator@U?$pair@$$CBVioHashString@@UD3DXVECTOR3@@@std@@@1@@Z
_TEXT	SEGMENT
__Parg$ = 8						; size = 4
__Al$ = 12						; size = 1
??0?$_Tree_nod@V?$_Tmap_traits@VioHashString@@UD3DXVECTOR3@@U?$less@VioHashString@@@std@@V?$allocator@U?$pair@$$CBVioHashString@@UD3DXVECTOR3@@@std@@@4@$0A@@std@@@std@@QAE@ABU?$less@VioHashString@@@1@V?$allocator@U?$pair@$$CBVioHashString@@UD3DXVECTOR3@@@std@@@1@@Z PROC ; std::_Tree_nod<std::_Tmap_traits<ioHashString,D3DXVECTOR3,std::less<ioHashString>,std::allocator<std::pair<ioHashString const ,D3DXVECTOR3> >,0> >::_Tree_nod<std::_Tmap_traits<ioHashString,D3DXVECTOR3,std::less<ioHashString>,std::allocator<std::pair<ioHashString const ,D3DXVECTOR3> >,0> >, COMDAT
; _this$ = ecx

; 482  : 		{	// construct traits from _Parg and allocators from _Al

  00000	8b c1		 mov	 eax, ecx

; 483  : 		}

  00002	c2 08 00	 ret	 8
??0?$_Tree_nod@V?$_Tmap_traits@VioHashString@@UD3DXVECTOR3@@U?$less@VioHashString@@@std@@V?$allocator@U?$pair@$$CBVioHashString@@UD3DXVECTOR3@@@std@@@4@$0A@@std@@@std@@QAE@ABU?$less@VioHashString@@@1@V?$allocator@U?$pair@$$CBVioHashString@@UD3DXVECTOR3@@@std@@@1@@Z ENDP ; std::_Tree_nod<std::_Tmap_traits<ioHashString,D3DXVECTOR3,std::less<ioHashString>,std::allocator<std::pair<ioHashString const ,D3DXVECTOR3> >,0> >::_Tree_nod<std::_Tmap_traits<ioHashString,D3DXVECTOR3,std::less<ioHashString>,std::allocator<std::pair<ioHashString const ,D3DXVECTOR3> >,0> >
_TEXT	ENDS
PUBLIC	?allocate@?$allocator@U_Node@?$_Tree_nod@V?$_Tmap_traits@VioHashString@@UD3DXVECTOR3@@U?$less@VioHashString@@@std@@V?$allocator@U?$pair@$$CBVioHashString@@UD3DXVECTOR3@@@std@@@4@$0A@@std@@@std@@@std@@QAEPAU_Node@?$_Tree_nod@V?$_Tmap_traits@VioHashString@@UD3DXVECTOR3@@U?$less@VioHashString@@@std@@V?$allocator@U?$pair@$$CBVioHashString@@UD3DXVECTOR3@@@std@@@4@$0A@@std@@@2@I@Z ; std::allocator<std::_Tree_nod<std::_Tmap_traits<ioHashString,D3DXVECTOR3,std::less<ioHashString>,std::allocator<std::pair<ioHashString const ,D3DXVECTOR3> >,0> >::_Node>::allocate
; Function compile flags: /Ogsp
; File c:\program files (x86)\microsoft visual studio 10.0\vc\include\xmemory
;	COMDAT ?allocate@?$allocator@U_Node@?$_Tree_nod@V?$_Tmap_traits@VioHashString@@UD3DXVECTOR3@@U?$less@VioHashString@@@std@@V?$allocator@U?$pair@$$CBVioHashString@@UD3DXVECTOR3@@@std@@@4@$0A@@std@@@std@@@std@@QAEPAU_Node@?$_Tree_nod@V?$_Tmap_traits@VioHashString@@UD3DXVECTOR3@@U?$less@VioHashString@@@std@@V?$allocator@U?$pair@$$CBVioHashString@@UD3DXVECTOR3@@@std@@@4@$0A@@std@@@2@I@Z
_TEXT	SEGMENT
__Count$ = 8						; size = 4
?allocate@?$allocator@U_Node@?$_Tree_nod@V?$_Tmap_traits@VioHashString@@UD3DXVECTOR3@@U?$less@VioHashString@@@std@@V?$allocator@U?$pair@$$CBVioHashString@@UD3DXVECTOR3@@@std@@@4@$0A@@std@@@std@@@std@@QAEPAU_Node@?$_Tree_nod@V?$_Tmap_traits@VioHashString@@UD3DXVECTOR3@@U?$less@VioHashString@@@std@@V?$allocator@U?$pair@$$CBVioHashString@@UD3DXVECTOR3@@@std@@@4@$0A@@std@@@2@I@Z PROC ; std::allocator<std::_Tree_nod<std::_Tmap_traits<ioHashString,D3DXVECTOR3,std::less<ioHashString>,std::allocator<std::pair<ioHashString const ,D3DXVECTOR3> >,0> >::_Node>::allocate, COMDAT
; _this$ = ecx

; 186  : 		{	// allocate array of _Count elements

  00000	55		 push	 ebp
  00001	8b ec		 mov	 ebp, esp

; 187  : 		return (_Allocate(_Count, (pointer)0));

  00003	6a 00		 push	 0
  00005	ff 75 08	 push	 DWORD PTR __Count$[ebp]
  00008	e8 00 00 00 00	 call	 ??$_Allocate@U_Node@?$_Tree_nod@V?$_Tmap_traits@VioHashString@@UD3DXVECTOR3@@U?$less@VioHashString@@@std@@V?$allocator@U?$pair@$$CBVioHashString@@UD3DXVECTOR3@@@std@@@4@$0A@@std@@@std@@@std@@YAPAU_Node@?$_Tree_nod@V?$_Tmap_traits@VioHashString@@UD3DXVECTOR3@@U?$less@VioHashString@@@std@@V?$allocator@U?$pair@$$CBVioHashString@@UD3DXVECTOR3@@@std@@@4@$0A@@std@@@0@IPAU120@@Z ; std::_Allocate<std::_Tree_nod<std::_Tmap_traits<ioHashString,D3DXVECTOR3,std::less<ioHashString>,std::allocator<std::pair<ioHashString const ,D3DXVECTOR3> >,0> >::_Node>
  0000d	59		 pop	 ecx
  0000e	59		 pop	 ecx

; 188  : 		}

  0000f	5d		 pop	 ebp
  00010	c2 04 00	 ret	 4
?allocate@?$allocator@U_Node@?$_Tree_nod@V?$_Tmap_traits@VioHashString@@UD3DXVECTOR3@@U?$less@VioHashString@@@std@@V?$allocator@U?$pair@$$CBVioHashString@@UD3DXVECTOR3@@@std@@@4@$0A@@std@@@std@@@std@@QAEPAU_Node@?$_Tree_nod@V?$_Tmap_traits@VioHashString@@UD3DXVECTOR3@@U?$less@VioHashString@@@std@@V?$allocator@U?$pair@$$CBVioHashString@@UD3DXVECTOR3@@@std@@@4@$0A@@std@@@2@I@Z ENDP ; std::allocator<std::_Tree_nod<std::_Tmap_traits<ioHashString,D3DXVECTOR3,std::less<ioHashString>,std::allocator<std::pair<ioHashString const ,D3DXVECTOR3> >,0> >::_Node>::allocate
_TEXT	ENDS
PUBLIC	??E?$_Tree_const_iterator@V?$_Tree_val@V?$_Tmap_traits@VioHashString@@UD3DXVECTOR3@@U?$less@VioHashString@@@std@@V?$allocator@U?$pair@$$CBVioHashString@@UD3DXVECTOR3@@@std@@@4@$0A@@std@@@std@@@std@@QAEAAV01@XZ ; std::_Tree_const_iterator<std::_Tree_val<std::_Tmap_traits<ioHashString,D3DXVECTOR3,std::less<ioHashString>,std::allocator<std::pair<ioHashString const ,D3DXVECTOR3> >,0> > >::operator++
; Function compile flags: /Ogsp
; File c:\program files (x86)\microsoft visual studio 10.0\vc\include\xtree
;	COMDAT ??E?$_Tree_const_iterator@V?$_Tree_val@V?$_Tmap_traits@VioHashString@@UD3DXVECTOR3@@U?$less@VioHashString@@@std@@V?$allocator@U?$pair@$$CBVioHashString@@UD3DXVECTOR3@@@std@@@4@$0A@@std@@@std@@@std@@QAEAAV01@XZ
_TEXT	SEGMENT
??E?$_Tree_const_iterator@V?$_Tree_val@V?$_Tmap_traits@VioHashString@@UD3DXVECTOR3@@U?$less@VioHashString@@@std@@V?$allocator@U?$pair@$$CBVioHashString@@UD3DXVECTOR3@@@std@@@4@$0A@@std@@@std@@@std@@QAEAAV01@XZ PROC ; std::_Tree_const_iterator<std::_Tree_val<std::_Tmap_traits<ioHashString,D3DXVECTOR3,std::less<ioHashString>,std::allocator<std::pair<ioHashString const ,D3DXVECTOR3> >,0> > >::operator++, COMDAT
; _this$ = ecx

; 250  : 		{	// preincrement

  00000	56		 push	 esi
  00001	8b f1		 mov	 esi, ecx

; 251  :  #if _ITERATOR_DEBUG_LEVEL == 2
; 252  : 		if (this->_Getcont() == 0
; 253  : 			|| this->_Ptr == 0
; 254  : 			|| _Mytree::_Isnil(this->_Ptr))
; 255  : 			{	// report error
; 256  : 			_DEBUG_ERROR("map/set iterator not incrementable");
; 257  : 			_SCL_SECURE_OUT_OF_RANGE;
; 258  : 			}
; 259  : 
; 260  :  #elif _ITERATOR_DEBUG_LEVEL == 1
; 261  : 		_SCL_SECURE_VALIDATE(this->_Getcont() != 0 && this->_Ptr != 0);
; 262  : 		_SCL_SECURE_VALIDATE_RANGE(!_Mytree::_Isnil(this->_Ptr));
; 263  :  #endif /* _ITERATOR_DEBUG_LEVEL */
; 264  : 
; 265  : 		++(*(_Mybase *)this);

  00003	e8 00 00 00 00	 call	 ??E?$_Tree_unchecked_const_iterator@V?$_Tree_val@V?$_Tmap_traits@VioHashString@@UD3DXVECTOR3@@U?$less@VioHashString@@@std@@V?$allocator@U?$pair@$$CBVioHashString@@UD3DXVECTOR3@@@std@@@4@$0A@@std@@@std@@U_Iterator_base0@2@@std@@QAEAAV01@XZ ; std::_Tree_unchecked_const_iterator<std::_Tree_val<std::_Tmap_traits<ioHashString,D3DXVECTOR3,std::less<ioHashString>,std::allocator<std::pair<ioHashString const ,D3DXVECTOR3> >,0> >,std::_Iterator_base0>::operator++

; 266  : 		return (*this);

  00008	8b c6		 mov	 eax, esi
  0000a	5e		 pop	 esi

; 267  : 		}

  0000b	c3		 ret	 0
??E?$_Tree_const_iterator@V?$_Tree_val@V?$_Tmap_traits@VioHashString@@UD3DXVECTOR3@@U?$less@VioHashString@@@std@@V?$allocator@U?$pair@$$CBVioHashString@@UD3DXVECTOR3@@@std@@@4@$0A@@std@@@std@@@std@@QAEAAV01@XZ ENDP ; std::_Tree_const_iterator<std::_Tree_val<std::_Tmap_traits<ioHashString,D3DXVECTOR3,std::less<ioHashString>,std::allocator<std::pair<ioHashString const ,D3DXVECTOR3> >,0> > >::operator++
_TEXT	ENDS
PUBLIC	__$ArrayPad$
PUBLIC	??$LoadString_e@$09@ioINILoader@@QAEXAAY09$$CBDAAY00$$CBDPADH@Z ; ioINILoader::LoadString_e<10>
EXTRN	__imp_?LoadStringA@ioINILoader@@QAEXPBD0PADH@Z:PROC
EXTRN	___security_cookie:DWORD
; Function compile flags: /Ogsp
; File d:\lost saga for developer\youtube\tutorial\source\src\io3dengine\ioiniloader.h
;	COMDAT ??$LoadString_e@$09@ioINILoader@@QAEXAAY09$$CBDAAY00$$CBDPADH@Z
_TEXT	SEGMENT
__k$ = -20						; size = 10
__$ArrayPad$ = -4					; size = 4
_k$ = 8							; size = 4
_d$ = 12						; size = 4
_b$ = 16						; size = 4
_i$ = 20						; size = 4
??$LoadString_e@$09@ioINILoader@@QAEXAAY09$$CBDAAY00$$CBDPADH@Z PROC ; ioINILoader::LoadString_e<10>, COMDAT
; _this$ = ecx

; 161  : 	{

  00000	55		 push	 ebp
  00001	8b ec		 mov	 ebp, esp
  00003	83 ec 14	 sub	 esp, 20			; 00000014H
  00006	a1 00 00 00 00	 mov	 eax, DWORD PTR ___security_cookie
  0000b	33 c5		 xor	 eax, ebp
  0000d	89 45 fc	 mov	 DWORD PTR __$ArrayPad$[ebp], eax
  00010	8b 45 08	 mov	 eax, DWORD PTR _k$[ebp]

; 162  : 		_ENCSTR(k, _k);

  00013	8a 10		 mov	 dl, BYTE PTR [eax]
  00015	56		 push	 esi
  00016	8b 75 0c	 mov	 esi, DWORD PTR _d$[ebp]
  00019	57		 push	 edi
  0001a	8b 7d 10	 mov	 edi, DWORD PTR _b$[ebp]
  0001d	84 d2		 test	 dl, dl
  0001f	0f 84 0d 01 00
	00		 je	 $LN96@LoadString
  00025	80 f2 ed	 xor	 dl, -19			; ffffffedH
  00028	88 55 ec	 mov	 BYTE PTR __k$[ebp], dl
  0002b	8a 50 01	 mov	 dl, BYTE PTR [eax+1]
  0002e	84 d2		 test	 dl, dl
  00030	0f 84 f6 00 00
	00		 je	 $LN95@LoadString
  00036	80 f2 ec	 xor	 dl, -20			; ffffffecH
  00039	88 55 ed	 mov	 BYTE PTR __k$[ebp+1], dl
  0003c	8a 50 02	 mov	 dl, BYTE PTR [eax+2]
  0003f	84 d2		 test	 dl, dl
  00041	0f 84 df 00 00
	00		 je	 $LN94@LoadString
  00047	80 f2 eb	 xor	 dl, -21			; ffffffebH
  0004a	88 55 ee	 mov	 BYTE PTR __k$[ebp+2], dl
  0004d	8a 50 03	 mov	 dl, BYTE PTR [eax+3]
  00050	84 d2		 test	 dl, dl
  00052	0f 84 c8 00 00
	00		 je	 $LN93@LoadString
  00058	80 f2 ea	 xor	 dl, -22			; ffffffeaH
  0005b	88 55 ef	 mov	 BYTE PTR __k$[ebp+3], dl
  0005e	8a 50 04	 mov	 dl, BYTE PTR [eax+4]
  00061	84 d2		 test	 dl, dl
  00063	0f 84 b1 00 00
	00		 je	 $LN92@LoadString
  00069	80 f2 ed	 xor	 dl, -19			; ffffffedH
  0006c	88 55 f0	 mov	 BYTE PTR __k$[ebp+4], dl
  0006f	8a 50 05	 mov	 dl, BYTE PTR [eax+5]
  00072	84 d2		 test	 dl, dl
  00074	0f 84 9a 00 00
	00		 je	 $LN91@LoadString
  0007a	80 f2 ec	 xor	 dl, -20			; ffffffecH
  0007d	88 55 f1	 mov	 BYTE PTR __k$[ebp+5], dl
  00080	8a 50 06	 mov	 dl, BYTE PTR [eax+6]
  00083	84 d2		 test	 dl, dl
  00085	0f 84 83 00 00
	00		 je	 $LN90@LoadString
  0008b	80 f2 eb	 xor	 dl, -21			; ffffffebH
  0008e	88 55 f2	 mov	 BYTE PTR __k$[ebp+6], dl
  00091	8a 50 07	 mov	 dl, BYTE PTR [eax+7]
  00094	84 d2		 test	 dl, dl
  00096	74 70		 je	 SHORT $LN89@LoadString
  00098	80 f2 ea	 xor	 dl, -22			; ffffffeaH
  0009b	88 55 f3	 mov	 BYTE PTR __k$[ebp+7], dl
  0009e	8a 50 08	 mov	 dl, BYTE PTR [eax+8]
  000a1	84 d2		 test	 dl, dl
  000a3	74 5d		 je	 SHORT $LN88@LoadString
  000a5	80 f2 ed	 xor	 dl, -19			; ffffffedH
  000a8	80 78 09 00	 cmp	 BYTE PTR [eax+9], 0
  000ac	88 55 f4	 mov	 BYTE PTR __k$[ebp+8], dl
  000af	0f 84 81 00 00
	00		 je	 $LN1@LoadString
  000b5	8a 50 0a	 mov	 dl, BYTE PTR [eax+10]
  000b8	84 d2		 test	 dl, dl
  000ba	74 40		 je	 SHORT $LN86@LoadString
  000bc	80 f2 eb	 xor	 dl, -21			; ffffffebH
  000bf	88 55 f6	 mov	 BYTE PTR __k$[ebp+10], dl
  000c2	8a 50 0b	 mov	 dl, BYTE PTR [eax+11]
  000c5	84 d2		 test	 dl, dl
  000c7	74 2d		 je	 SHORT $LN85@LoadString
  000c9	80 f2 ea	 xor	 dl, -22			; ffffffeaH
  000cc	88 55 f7	 mov	 BYTE PTR __k$[ebp+11], dl
  000cf	8a 50 0c	 mov	 dl, BYTE PTR [eax+12]
  000d2	84 d2		 test	 dl, dl
  000d4	74 1a		 je	 SHORT $LN84@LoadString
  000d6	8a 40 0d	 mov	 al, BYTE PTR [eax+13]
  000d9	80 f2 ed	 xor	 dl, -19			; ffffffedH
  000dc	88 55 f8	 mov	 BYTE PTR __k$[ebp+12], dl
  000df	84 c0		 test	 al, al
  000e1	74 07		 je	 SHORT $LN83@LoadString
  000e3	34 ec		 xor	 al, -20			; ffffffecH
  000e5	88 45 f9	 mov	 BYTE PTR __k$[ebp+13], al
  000e8	eb 4c		 jmp	 SHORT $LN1@LoadString
$LN83@LoadString:
  000ea	c6 45 f9 ec	 mov	 BYTE PTR __k$[ebp+13], -20 ; ffffffecH
  000ee	eb 46		 jmp	 SHORT $LN1@LoadString
$LN84@LoadString:
  000f0	c6 45 f8 ed	 mov	 BYTE PTR __k$[ebp+12], -19 ; ffffffedH
  000f4	eb 40		 jmp	 SHORT $LN1@LoadString
$LN85@LoadString:
  000f6	c6 45 f7 ea	 mov	 BYTE PTR __k$[ebp+11], -22 ; ffffffeaH
  000fa	eb 3a		 jmp	 SHORT $LN1@LoadString
$LN86@LoadString:
  000fc	c6 45 f6 eb	 mov	 BYTE PTR __k$[ebp+10], -21 ; ffffffebH
  00100	eb 34		 jmp	 SHORT $LN1@LoadString
$LN88@LoadString:
  00102	c6 45 f4 ed	 mov	 BYTE PTR __k$[ebp+8], -19 ; ffffffedH
  00106	eb 2e		 jmp	 SHORT $LN1@LoadString
$LN89@LoadString:
  00108	c6 45 f3 ea	 mov	 BYTE PTR __k$[ebp+7], -22 ; ffffffeaH
  0010c	eb 28		 jmp	 SHORT $LN1@LoadString
$LN90@LoadString:
  0010e	c6 45 f2 eb	 mov	 BYTE PTR __k$[ebp+6], -21 ; ffffffebH
  00112	eb 22		 jmp	 SHORT $LN1@LoadString
$LN91@LoadString:
  00114	c6 45 f1 ec	 mov	 BYTE PTR __k$[ebp+5], -20 ; ffffffecH
  00118	eb 1c		 jmp	 SHORT $LN1@LoadString
$LN92@LoadString:
  0011a	c6 45 f0 ed	 mov	 BYTE PTR __k$[ebp+4], -19 ; ffffffedH
  0011e	eb 16		 jmp	 SHORT $LN1@LoadString
$LN93@LoadString:
  00120	c6 45 ef ea	 mov	 BYTE PTR __k$[ebp+3], -22 ; ffffffeaH
  00124	eb 10		 jmp	 SHORT $LN1@LoadString
$LN94@LoadString:
  00126	c6 45 ee eb	 mov	 BYTE PTR __k$[ebp+2], -21 ; ffffffebH
  0012a	eb 0a		 jmp	 SHORT $LN1@LoadString
$LN95@LoadString:
  0012c	c6 45 ed ec	 mov	 BYTE PTR __k$[ebp+1], -20 ; ffffffecH
  00130	eb 04		 jmp	 SHORT $LN1@LoadString
$LN96@LoadString:
  00132	c6 45 ec ed	 mov	 BYTE PTR __k$[ebp], -19	; ffffffedH
$LN1@LoadString:
  00136	6a 02		 push	 2
  00138	8d 45 ec	 lea	 eax, DWORD PTR __k$[ebp]
  0013b	c6 45 f5 00	 mov	 BYTE PTR __k$[ebp+9], 0
  0013f	5a		 pop	 edx
$LL104@LoadString:
  00140	81 30 ed ec eb
	ea		 xor	 DWORD PTR [eax], -353637139 ; eaebecedH
  00146	83 c0 04	 add	 eax, 4
  00149	4a		 dec	 edx
  0014a	75 f4		 jne	 SHORT $LL104@LoadString

; 163  : 		LoadString(_k, d, b, i);

  0014c	ff 75 14	 push	 DWORD PTR _i$[ebp]
  0014f	80 75 f4 ed	 xor	 BYTE PTR __k$[ebp+8], -19 ; ffffffedH
  00153	57		 push	 edi
  00154	56		 push	 esi
  00155	8d 45 ec	 lea	 eax, DWORD PTR __k$[ebp]
  00158	50		 push	 eax
  00159	ff 15 00 00 00
	00		 call	 DWORD PTR __imp_?LoadStringA@ioINILoader@@QAEXPBD0PADH@Z

; 164  : 	}

  0015f	8b 4d fc	 mov	 ecx, DWORD PTR __$ArrayPad$[ebp]
  00162	5f		 pop	 edi
  00163	33 cd		 xor	 ecx, ebp
  00165	5e		 pop	 esi
  00166	e8 00 00 00 00	 call	 @__security_check_cookie@4
  0016b	c9		 leave
  0016c	c2 10 00	 ret	 16			; 00000010H
??$LoadString_e@$09@ioINILoader@@QAEXAAY09$$CBDAAY00$$CBDPADH@Z ENDP ; ioINILoader::LoadString_e<10>
_TEXT	ENDS
PUBLIC	__$ArrayPad$
PUBLIC	??$SetTitle_e@$0O@@ioINILoader@@QAEXAAY0O@$$CBD@Z ; ioINILoader::SetTitle_e<14>
EXTRN	__imp_?SetTitle@ioINILoader@@QAEXPBD@Z:PROC
; Function compile flags: /Ogsp
;	COMDAT ??$SetTitle_e@$0O@@ioINILoader@@QAEXAAY0O@$$CBD@Z
_TEXT	SEGMENT
__t$ = -24						; size = 14
__$ArrayPad$ = -4					; size = 4
_t$ = 8							; size = 4
??$SetTitle_e@$0O@@ioINILoader@@QAEXAAY0O@$$CBD@Z PROC	; ioINILoader::SetTitle_e<14>, COMDAT
; _this$ = ecx

; 188  : 	{

  00000	55		 push	 ebp
  00001	8b ec		 mov	 ebp, esp
  00003	83 ec 18	 sub	 esp, 24			; 00000018H
  00006	a1 00 00 00 00	 mov	 eax, DWORD PTR ___security_cookie
  0000b	33 c5		 xor	 eax, ebp
  0000d	89 45 fc	 mov	 DWORD PTR __$ArrayPad$[ebp], eax
  00010	8b 45 08	 mov	 eax, DWORD PTR _t$[ebp]

; 189  : 		_ENCSTR(t, _t);

  00013	8a 10		 mov	 dl, BYTE PTR [eax]
  00015	56		 push	 esi
  00016	8b f1		 mov	 esi, ecx
  00018	84 d2		 test	 dl, dl
  0001a	0f 84 64 01 00
	00		 je	 $LN96@SetTitle_e
  00020	80 f2 ed	 xor	 dl, -19			; ffffffedH
  00023	88 55 e8	 mov	 BYTE PTR __t$[ebp], dl
  00026	8a 50 01	 mov	 dl, BYTE PTR [eax+1]
  00029	84 d2		 test	 dl, dl
  0002b	0f 84 4d 01 00
	00		 je	 $LN95@SetTitle_e
  00031	80 f2 ec	 xor	 dl, -20			; ffffffecH
  00034	88 55 e9	 mov	 BYTE PTR __t$[ebp+1], dl
  00037	8a 50 02	 mov	 dl, BYTE PTR [eax+2]
  0003a	84 d2		 test	 dl, dl
  0003c	0f 84 36 01 00
	00		 je	 $LN94@SetTitle_e
  00042	b1 eb		 mov	 cl, -21			; ffffffebH
  00044	32 d1		 xor	 dl, cl
  00046	88 55 ea	 mov	 BYTE PTR __t$[ebp+2], dl
  00049	8a 50 03	 mov	 dl, BYTE PTR [eax+3]
  0004c	84 d2		 test	 dl, dl
  0004e	0f 84 1e 01 00
	00		 je	 $LN93@SetTitle_e
  00054	80 f2 ea	 xor	 dl, -22			; ffffffeaH
  00057	88 55 eb	 mov	 BYTE PTR __t$[ebp+3], dl
  0005a	8a 50 04	 mov	 dl, BYTE PTR [eax+4]
  0005d	84 d2		 test	 dl, dl
  0005f	0f 84 07 01 00
	00		 je	 $LN92@SetTitle_e
  00065	80 f2 ed	 xor	 dl, -19			; ffffffedH
  00068	88 55 ec	 mov	 BYTE PTR __t$[ebp+4], dl
  0006b	8a 50 05	 mov	 dl, BYTE PTR [eax+5]
  0006e	84 d2		 test	 dl, dl
  00070	0f 84 f0 00 00
	00		 je	 $LN91@SetTitle_e
  00076	80 f2 ec	 xor	 dl, -20			; ffffffecH
  00079	88 55 ed	 mov	 BYTE PTR __t$[ebp+5], dl
  0007c	8a 50 06	 mov	 dl, BYTE PTR [eax+6]
  0007f	84 d2		 test	 dl, dl
  00081	0f 84 da 00 00
	00		 je	 $LN90@SetTitle_e
  00087	32 d1		 xor	 dl, cl
  00089	88 55 ee	 mov	 BYTE PTR __t$[ebp+6], dl
  0008c	8a 50 07	 mov	 dl, BYTE PTR [eax+7]
  0008f	84 d2		 test	 dl, dl
  00091	0f 84 c4 00 00
	00		 je	 $LN89@SetTitle_e
  00097	80 f2 ea	 xor	 dl, -22			; ffffffeaH
  0009a	88 55 ef	 mov	 BYTE PTR __t$[ebp+7], dl
  0009d	8a 50 08	 mov	 dl, BYTE PTR [eax+8]
  000a0	84 d2		 test	 dl, dl
  000a2	0f 84 ad 00 00
	00		 je	 $LN88@SetTitle_e
  000a8	80 f2 ed	 xor	 dl, -19			; ffffffedH
  000ab	88 55 f0	 mov	 BYTE PTR __t$[ebp+8], dl
  000ae	8a 50 09	 mov	 dl, BYTE PTR [eax+9]
  000b1	84 d2		 test	 dl, dl
  000b3	0f 84 96 00 00
	00		 je	 $LN87@SetTitle_e
  000b9	80 f2 ec	 xor	 dl, -20			; ffffffecH
  000bc	88 55 f1	 mov	 BYTE PTR __t$[ebp+9], dl
  000bf	8a 50 0a	 mov	 dl, BYTE PTR [eax+10]
  000c2	84 d2		 test	 dl, dl
  000c4	0f 84 80 00 00
	00		 je	 $LN86@SetTitle_e
  000ca	32 d1		 xor	 dl, cl
  000cc	88 55 f2	 mov	 BYTE PTR __t$[ebp+10], dl
  000cf	8a 50 0b	 mov	 dl, BYTE PTR [eax+11]
  000d2	84 d2		 test	 dl, dl
  000d4	74 6e		 je	 SHORT $LN85@SetTitle_e
  000d6	80 f2 ea	 xor	 dl, -22			; ffffffeaH
  000d9	88 55 f3	 mov	 BYTE PTR __t$[ebp+11], dl
  000dc	8a 50 0c	 mov	 dl, BYTE PTR [eax+12]
  000df	84 d2		 test	 dl, dl
  000e1	74 5b		 je	 SHORT $LN84@SetTitle_e
  000e3	80 f2 ed	 xor	 dl, -19			; ffffffedH
  000e6	80 78 0d 00	 cmp	 BYTE PTR [eax+13], 0
  000ea	88 55 f4	 mov	 BYTE PTR __t$[ebp+12], dl
  000ed	0f 84 95 00 00
	00		 je	 $LN1@SetTitle_e
  000f3	8a 50 0e	 mov	 dl, BYTE PTR [eax+14]
  000f6	84 d2		 test	 dl, dl
  000f8	74 3f		 je	 SHORT $LN82@SetTitle_e
  000fa	32 d1		 xor	 dl, cl
  000fc	88 55 f6	 mov	 BYTE PTR __t$[ebp+14], dl
  000ff	8a 50 0f	 mov	 dl, BYTE PTR [eax+15]
  00102	84 d2		 test	 dl, dl
  00104	74 2d		 je	 SHORT $LN81@SetTitle_e
  00106	80 f2 ea	 xor	 dl, -22			; ffffffeaH
  00109	88 55 f7	 mov	 BYTE PTR __t$[ebp+15], dl
  0010c	8a 50 10	 mov	 dl, BYTE PTR [eax+16]
  0010f	84 d2		 test	 dl, dl
  00111	74 1a		 je	 SHORT $LN80@SetTitle_e
  00113	8a 40 11	 mov	 al, BYTE PTR [eax+17]
  00116	80 f2 ed	 xor	 dl, -19			; ffffffedH
  00119	88 55 f8	 mov	 BYTE PTR __t$[ebp+16], dl
  0011c	84 c0		 test	 al, al
  0011e	74 07		 je	 SHORT $LN79@SetTitle_e
  00120	34 ec		 xor	 al, -20			; ffffffecH
  00122	88 45 f9	 mov	 BYTE PTR __t$[ebp+17], al
  00125	eb 61		 jmp	 SHORT $LN1@SetTitle_e
$LN79@SetTitle_e:
  00127	c6 45 f9 ec	 mov	 BYTE PTR __t$[ebp+17], -20 ; ffffffecH
  0012b	eb 5b		 jmp	 SHORT $LN1@SetTitle_e
$LN80@SetTitle_e:
  0012d	c6 45 f8 ed	 mov	 BYTE PTR __t$[ebp+16], -19 ; ffffffedH
  00131	eb 55		 jmp	 SHORT $LN1@SetTitle_e
$LN81@SetTitle_e:
  00133	c6 45 f7 ea	 mov	 BYTE PTR __t$[ebp+15], -22 ; ffffffeaH
  00137	eb 4f		 jmp	 SHORT $LN1@SetTitle_e
$LN82@SetTitle_e:
  00139	88 4d f6	 mov	 BYTE PTR __t$[ebp+14], cl
  0013c	eb 4a		 jmp	 SHORT $LN1@SetTitle_e
$LN84@SetTitle_e:
  0013e	c6 45 f4 ed	 mov	 BYTE PTR __t$[ebp+12], -19 ; ffffffedH
  00142	eb 44		 jmp	 SHORT $LN1@SetTitle_e
$LN85@SetTitle_e:
  00144	c6 45 f3 ea	 mov	 BYTE PTR __t$[ebp+11], -22 ; ffffffeaH
  00148	eb 3e		 jmp	 SHORT $LN1@SetTitle_e
$LN86@SetTitle_e:
  0014a	88 4d f2	 mov	 BYTE PTR __t$[ebp+10], cl
  0014d	eb 39		 jmp	 SHORT $LN1@SetTitle_e
$LN87@SetTitle_e:
  0014f	c6 45 f1 ec	 mov	 BYTE PTR __t$[ebp+9], -20 ; ffffffecH
  00153	eb 33		 jmp	 SHORT $LN1@SetTitle_e
$LN88@SetTitle_e:
  00155	c6 45 f0 ed	 mov	 BYTE PTR __t$[ebp+8], -19 ; ffffffedH
  00159	eb 2d		 jmp	 SHORT $LN1@SetTitle_e
$LN89@SetTitle_e:
  0015b	c6 45 ef ea	 mov	 BYTE PTR __t$[ebp+7], -22 ; ffffffeaH
  0015f	eb 27		 jmp	 SHORT $LN1@SetTitle_e
$LN90@SetTitle_e:
  00161	88 4d ee	 mov	 BYTE PTR __t$[ebp+6], cl
  00164	eb 22		 jmp	 SHORT $LN1@SetTitle_e
$LN91@SetTitle_e:
  00166	c6 45 ed ec	 mov	 BYTE PTR __t$[ebp+5], -20 ; ffffffecH
  0016a	eb 1c		 jmp	 SHORT $LN1@SetTitle_e
$LN92@SetTitle_e:
  0016c	c6 45 ec ed	 mov	 BYTE PTR __t$[ebp+4], -19 ; ffffffedH
  00170	eb 16		 jmp	 SHORT $LN1@SetTitle_e
$LN93@SetTitle_e:
  00172	c6 45 eb ea	 mov	 BYTE PTR __t$[ebp+3], -22 ; ffffffeaH
  00176	eb 10		 jmp	 SHORT $LN1@SetTitle_e
$LN94@SetTitle_e:
  00178	c6 45 ea eb	 mov	 BYTE PTR __t$[ebp+2], -21 ; ffffffebH
  0017c	eb 0a		 jmp	 SHORT $LN1@SetTitle_e
$LN95@SetTitle_e:
  0017e	c6 45 e9 ec	 mov	 BYTE PTR __t$[ebp+1], -20 ; ffffffecH
  00182	eb 04		 jmp	 SHORT $LN1@SetTitle_e
$LN96@SetTitle_e:
  00184	c6 45 e8 ed	 mov	 BYTE PTR __t$[ebp], -19	; ffffffedH
$LN1@SetTitle_e:
  00188	6a 03		 push	 3
  0018a	8d 45 e8	 lea	 eax, DWORD PTR __t$[ebp]
  0018d	c6 45 f5 00	 mov	 BYTE PTR __t$[ebp+13], 0
  00191	5a		 pop	 edx
$LL104@SetTitle_e:
  00192	81 30 ed ec eb
	ea		 xor	 DWORD PTR [eax], -353637139 ; eaebecedH
  00198	83 c0 04	 add	 eax, 4
  0019b	4a		 dec	 edx
  0019c	75 f4		 jne	 SHORT $LL104@SetTitle_e
  0019e	80 75 f4 ed	 xor	 BYTE PTR __t$[ebp+12], -19 ; ffffffedH

; 190  : 		SetTitle(_t);

  001a2	8d 45 e8	 lea	 eax, DWORD PTR __t$[ebp]
  001a5	50		 push	 eax
  001a6	8b ce		 mov	 ecx, esi
  001a8	ff 15 00 00 00
	00		 call	 DWORD PTR __imp_?SetTitle@ioINILoader@@QAEXPBD@Z

; 191  : 	}

  001ae	8b 4d fc	 mov	 ecx, DWORD PTR __$ArrayPad$[ebp]
  001b1	33 cd		 xor	 ecx, ebp
  001b3	5e		 pop	 esi
  001b4	e8 00 00 00 00	 call	 @__security_check_cookie@4
  001b9	c9		 leave
  001ba	c2 04 00	 ret	 4
??$SetTitle_e@$0O@@ioINILoader@@QAEXAAY0O@$$CBD@Z ENDP	; ioINILoader::SetTitle_e<14>
_TEXT	ENDS
PUBLIC	__$ArrayPad$
PUBLIC	??$LoadInt_e@$0M@@ioINILoader@@QAEHAAY0M@$$CBDH@Z ; ioINILoader::LoadInt_e<12>
EXTRN	__imp_?LoadInt@ioINILoader@@QAEHPBDH@Z:PROC
; Function compile flags: /Ogsp
;	COMDAT ??$LoadInt_e@$0M@@ioINILoader@@QAEHAAY0M@$$CBDH@Z
_TEXT	SEGMENT
__k$ = -20						; size = 12
__$ArrayPad$ = -4					; size = 4
_k$ = 8							; size = 4
_i$ = 12						; size = 4
??$LoadInt_e@$0M@@ioINILoader@@QAEHAAY0M@$$CBDH@Z PROC	; ioINILoader::LoadInt_e<12>, COMDAT
; _this$ = ecx

; 118  : 	{

  00000	55		 push	 ebp
  00001	8b ec		 mov	 ebp, esp
  00003	83 ec 14	 sub	 esp, 20			; 00000014H
  00006	a1 00 00 00 00	 mov	 eax, DWORD PTR ___security_cookie
  0000b	33 c5		 xor	 eax, ebp
  0000d	89 45 fc	 mov	 DWORD PTR __$ArrayPad$[ebp], eax
  00010	8b 45 08	 mov	 eax, DWORD PTR _k$[ebp]

; 119  : 		_ENCSTR(k, _k);

  00013	8a 10		 mov	 dl, BYTE PTR [eax]
  00015	56		 push	 esi
  00016	8b f1		 mov	 esi, ecx
  00018	84 d2		 test	 dl, dl
  0001a	0f 84 32 01 00
	00		 je	 $LN96@LoadInt_e
  00020	80 f2 ed	 xor	 dl, -19			; ffffffedH
  00023	88 55 ec	 mov	 BYTE PTR __k$[ebp], dl
  00026	8a 50 01	 mov	 dl, BYTE PTR [eax+1]
  00029	84 d2		 test	 dl, dl
  0002b	0f 84 1b 01 00
	00		 je	 $LN95@LoadInt_e
  00031	80 f2 ec	 xor	 dl, -20			; ffffffecH
  00034	88 55 ed	 mov	 BYTE PTR __k$[ebp+1], dl
  00037	8a 50 02	 mov	 dl, BYTE PTR [eax+2]
  0003a	84 d2		 test	 dl, dl
  0003c	0f 84 04 01 00
	00		 je	 $LN94@LoadInt_e
  00042	b1 eb		 mov	 cl, -21			; ffffffebH
  00044	32 d1		 xor	 dl, cl
  00046	88 55 ee	 mov	 BYTE PTR __k$[ebp+2], dl
  00049	8a 50 03	 mov	 dl, BYTE PTR [eax+3]
  0004c	84 d2		 test	 dl, dl
  0004e	0f 84 ec 00 00
	00		 je	 $LN93@LoadInt_e
  00054	80 f2 ea	 xor	 dl, -22			; ffffffeaH
  00057	88 55 ef	 mov	 BYTE PTR __k$[ebp+3], dl
  0005a	8a 50 04	 mov	 dl, BYTE PTR [eax+4]
  0005d	84 d2		 test	 dl, dl
  0005f	0f 84 d5 00 00
	00		 je	 $LN92@LoadInt_e
  00065	80 f2 ed	 xor	 dl, -19			; ffffffedH
  00068	88 55 f0	 mov	 BYTE PTR __k$[ebp+4], dl
  0006b	8a 50 05	 mov	 dl, BYTE PTR [eax+5]
  0006e	84 d2		 test	 dl, dl
  00070	0f 84 be 00 00
	00		 je	 $LN91@LoadInt_e
  00076	80 f2 ec	 xor	 dl, -20			; ffffffecH
  00079	88 55 f1	 mov	 BYTE PTR __k$[ebp+5], dl
  0007c	8a 50 06	 mov	 dl, BYTE PTR [eax+6]
  0007f	84 d2		 test	 dl, dl
  00081	0f 84 a8 00 00
	00		 je	 $LN90@LoadInt_e
  00087	32 d1		 xor	 dl, cl
  00089	88 55 f2	 mov	 BYTE PTR __k$[ebp+6], dl
  0008c	8a 50 07	 mov	 dl, BYTE PTR [eax+7]
  0008f	84 d2		 test	 dl, dl
  00091	0f 84 92 00 00
	00		 je	 $LN89@LoadInt_e
  00097	80 f2 ea	 xor	 dl, -22			; ffffffeaH
  0009a	88 55 f3	 mov	 BYTE PTR __k$[ebp+7], dl
  0009d	8a 50 08	 mov	 dl, BYTE PTR [eax+8]
  000a0	84 d2		 test	 dl, dl
  000a2	74 7f		 je	 SHORT $LN88@LoadInt_e
  000a4	80 f2 ed	 xor	 dl, -19			; ffffffedH
  000a7	88 55 f4	 mov	 BYTE PTR __k$[ebp+8], dl
  000aa	8a 50 09	 mov	 dl, BYTE PTR [eax+9]
  000ad	84 d2		 test	 dl, dl
  000af	74 6c		 je	 SHORT $LN87@LoadInt_e
  000b1	80 f2 ec	 xor	 dl, -20			; ffffffecH
  000b4	88 55 f5	 mov	 BYTE PTR __k$[ebp+9], dl
  000b7	8a 50 0a	 mov	 dl, BYTE PTR [eax+10]
  000ba	84 d2		 test	 dl, dl
  000bc	74 5a		 je	 SHORT $LN86@LoadInt_e
  000be	32 d1		 xor	 dl, cl
  000c0	80 78 0b 00	 cmp	 BYTE PTR [eax+11], 0
  000c4	88 55 f6	 mov	 BYTE PTR __k$[ebp+10], dl
  000c7	0f 84 89 00 00
	00		 je	 $LN1@LoadInt_e
  000cd	8a 50 0c	 mov	 dl, BYTE PTR [eax+12]
  000d0	84 d2		 test	 dl, dl
  000d2	74 3e		 je	 SHORT $LN84@LoadInt_e
  000d4	80 f2 ed	 xor	 dl, -19			; ffffffedH
  000d7	88 55 f8	 mov	 BYTE PTR __k$[ebp+12], dl
  000da	8a 50 0d	 mov	 dl, BYTE PTR [eax+13]
  000dd	84 d2		 test	 dl, dl
  000df	74 2b		 je	 SHORT $LN83@LoadInt_e
  000e1	80 f2 ec	 xor	 dl, -20			; ffffffecH
  000e4	88 55 f9	 mov	 BYTE PTR __k$[ebp+13], dl
  000e7	8a 50 0e	 mov	 dl, BYTE PTR [eax+14]
  000ea	84 d2		 test	 dl, dl
  000ec	74 19		 je	 SHORT $LN82@LoadInt_e
  000ee	8a 40 0f	 mov	 al, BYTE PTR [eax+15]
  000f1	32 d1		 xor	 dl, cl
  000f3	88 55 fa	 mov	 BYTE PTR __k$[ebp+14], dl
  000f6	84 c0		 test	 al, al
  000f8	74 07		 je	 SHORT $LN81@LoadInt_e
  000fa	34 ea		 xor	 al, -22			; ffffffeaH
  000fc	88 45 fb	 mov	 BYTE PTR __k$[ebp+15], al
  000ff	eb 55		 jmp	 SHORT $LN1@LoadInt_e
$LN81@LoadInt_e:
  00101	c6 45 fb ea	 mov	 BYTE PTR __k$[ebp+15], -22 ; ffffffeaH
  00105	eb 4f		 jmp	 SHORT $LN1@LoadInt_e
$LN82@LoadInt_e:
  00107	88 4d fa	 mov	 BYTE PTR __k$[ebp+14], cl
  0010a	eb 4a		 jmp	 SHORT $LN1@LoadInt_e
$LN83@LoadInt_e:
  0010c	c6 45 f9 ec	 mov	 BYTE PTR __k$[ebp+13], -20 ; ffffffecH
  00110	eb 44		 jmp	 SHORT $LN1@LoadInt_e
$LN84@LoadInt_e:
  00112	c6 45 f8 ed	 mov	 BYTE PTR __k$[ebp+12], -19 ; ffffffedH
  00116	eb 3e		 jmp	 SHORT $LN1@LoadInt_e
$LN86@LoadInt_e:
  00118	88 4d f6	 mov	 BYTE PTR __k$[ebp+10], cl
  0011b	eb 39		 jmp	 SHORT $LN1@LoadInt_e
$LN87@LoadInt_e:
  0011d	c6 45 f5 ec	 mov	 BYTE PTR __k$[ebp+9], -20 ; ffffffecH
  00121	eb 33		 jmp	 SHORT $LN1@LoadInt_e
$LN88@LoadInt_e:
  00123	c6 45 f4 ed	 mov	 BYTE PTR __k$[ebp+8], -19 ; ffffffedH
  00127	eb 2d		 jmp	 SHORT $LN1@LoadInt_e
$LN89@LoadInt_e:
  00129	c6 45 f3 ea	 mov	 BYTE PTR __k$[ebp+7], -22 ; ffffffeaH
  0012d	eb 27		 jmp	 SHORT $LN1@LoadInt_e
$LN90@LoadInt_e:
  0012f	88 4d f2	 mov	 BYTE PTR __k$[ebp+6], cl
  00132	eb 22		 jmp	 SHORT $LN1@LoadInt_e
$LN91@LoadInt_e:
  00134	c6 45 f1 ec	 mov	 BYTE PTR __k$[ebp+5], -20 ; ffffffecH
  00138	eb 1c		 jmp	 SHORT $LN1@LoadInt_e
$LN92@LoadInt_e:
  0013a	c6 45 f0 ed	 mov	 BYTE PTR __k$[ebp+4], -19 ; ffffffedH
  0013e	eb 16		 jmp	 SHORT $LN1@LoadInt_e
$LN93@LoadInt_e:
  00140	c6 45 ef ea	 mov	 BYTE PTR __k$[ebp+3], -22 ; ffffffeaH
  00144	eb 10		 jmp	 SHORT $LN1@LoadInt_e
$LN94@LoadInt_e:
  00146	c6 45 ee eb	 mov	 BYTE PTR __k$[ebp+2], -21 ; ffffffebH
  0014a	eb 0a		 jmp	 SHORT $LN1@LoadInt_e
$LN95@LoadInt_e:
  0014c	c6 45 ed ec	 mov	 BYTE PTR __k$[ebp+1], -20 ; ffffffecH
  00150	eb 04		 jmp	 SHORT $LN1@LoadInt_e
$LN96@LoadInt_e:
  00152	c6 45 ec ed	 mov	 BYTE PTR __k$[ebp], -19	; ffffffedH
$LN1@LoadInt_e:
  00156	6a 02		 push	 2
  00158	8d 45 ec	 lea	 eax, DWORD PTR __k$[ebp]
  0015b	c6 45 f7 00	 mov	 BYTE PTR __k$[ebp+11], 0
  0015f	5a		 pop	 edx
$LL104@LoadInt_e:
  00160	81 30 ed ec eb
	ea		 xor	 DWORD PTR [eax], -353637139 ; eaebecedH
  00166	83 c0 04	 add	 eax, 4
  00169	4a		 dec	 edx
  0016a	75 f4		 jne	 SHORT $LL104@LoadInt_e
  0016c	6a 08		 push	 8
  0016e	58		 pop	 eax
$LL101@LoadInt_e:
  0016f	8b c8		 mov	 ecx, eax
  00171	81 e1 03 00 00
	80		 and	 ecx, -2147483645	; 80000003H
  00177	79 05		 jns	 SHORT $LN111@LoadInt_e
  00179	49		 dec	 ecx
  0017a	83 c9 fc	 or	 ecx, -4			; fffffffcH
  0017d	41		 inc	 ecx
$LN111@LoadInt_e:
  0017e	b2 ed		 mov	 dl, -19			; ffffffedH
  00180	2a d1		 sub	 dl, cl
  00182	30 54 05 ec	 xor	 BYTE PTR __k$[ebp+eax], dl
  00186	40		 inc	 eax
  00187	83 f8 0b	 cmp	 eax, 11			; 0000000bH
  0018a	7c e3		 jl	 SHORT $LL101@LoadInt_e

; 120  : 		return LoadInt(_k, i);

  0018c	ff 75 0c	 push	 DWORD PTR _i$[ebp]
  0018f	8d 45 ec	 lea	 eax, DWORD PTR __k$[ebp]
  00192	50		 push	 eax
  00193	8b ce		 mov	 ecx, esi
  00195	ff 15 00 00 00
	00		 call	 DWORD PTR __imp_?LoadInt@ioINILoader@@QAEHPBDH@Z

; 121  : 	}

  0019b	8b 4d fc	 mov	 ecx, DWORD PTR __$ArrayPad$[ebp]
  0019e	33 cd		 xor	 ecx, ebp
  001a0	5e		 pop	 esi
  001a1	e8 00 00 00 00	 call	 @__security_check_cookie@4
  001a6	c9		 leave
  001a7	c2 08 00	 ret	 8
??$LoadInt_e@$0M@@ioINILoader@@QAEHAAY0M@$$CBDH@Z ENDP	; ioINILoader::LoadInt_e<12>
_TEXT	ENDS
PUBLIC	??$_Cons_val@V?$allocator@VioHashString@@@std@@VioHashString@@V3@@std@@YAXAAV?$allocator@VioHashString@@@0@PAVioHashString@@$$QAV2@@Z ; std::_Cons_val<std::allocator<ioHashString>,ioHashString,ioHashString>
; Function compile flags: /Ogsp
; File c:\program files (x86)\microsoft visual studio 10.0\vc\include\xmemory
;	COMDAT ??$_Cons_val@V?$allocator@VioHashString@@@std@@VioHashString@@V3@@std@@YAXAAV?$allocator@VioHashString@@@0@PAVioHashString@@$$QAV2@@Z
_TEXT	SEGMENT
__Alval$ = 8						; size = 4
__Pdest$ = 12						; size = 4
__Src$ = 16						; size = 4
??$_Cons_val@V?$allocator@VioHashString@@@std@@VioHashString@@V3@@std@@YAXAAV?$allocator@VioHashString@@@0@PAVioHashString@@$$QAV2@@Z PROC ; std::_Cons_val<std::allocator<ioHashString>,ioHashString,ioHashString>, COMDAT

; 279  : 	{	// construct using allocator

  00000	55		 push	 ebp
  00001	8b ec		 mov	 ebp, esp

; 280  : 	_Alval.construct(_Pdest, _STD forward<_Ty2>(_Src));

  00003	ff 75 10	 push	 DWORD PTR __Src$[ebp]
  00006	8b 4d 08	 mov	 ecx, DWORD PTR __Alval$[ebp]
  00009	ff 75 0c	 push	 DWORD PTR __Pdest$[ebp]
  0000c	e8 00 00 00 00	 call	 ?construct@?$allocator@VioHashString@@@std@@QAEXPAVioHashString@@$$QAV3@@Z ; std::allocator<ioHashString>::construct

; 281  : 	}

  00011	5d		 pop	 ebp
  00012	c3		 ret	 0
??$_Cons_val@V?$allocator@VioHashString@@@std@@VioHashString@@V3@@std@@YAXAAV?$allocator@VioHashString@@@0@PAVioHashString@@$$QAV2@@Z ENDP ; std::_Cons_val<std::allocator<ioHashString>,ioHashString,ioHashString>
_TEXT	ENDS
PUBLIC	??$_Cons_val@V?$allocator@UEntityGroupData@ioWorldMesh@@@std@@UEntityGroupData@ioWorldMesh@@AAU34@@std@@YAXAAV?$allocator@UEntityGroupData@ioWorldMesh@@@0@PAUEntityGroupData@ioWorldMesh@@AAU23@@Z ; std::_Cons_val<std::allocator<ioWorldMesh::EntityGroupData>,ioWorldMesh::EntityGroupData,ioWorldMesh::EntityGroupData &>
; Function compile flags: /Ogsp
;	COMDAT ??$_Cons_val@V?$allocator@UEntityGroupData@ioWorldMesh@@@std@@UEntityGroupData@ioWorldMesh@@AAU34@@std@@YAXAAV?$allocator@UEntityGroupData@ioWorldMesh@@@0@PAUEntityGroupData@ioWorldMesh@@AAU23@@Z
_TEXT	SEGMENT
__Alval$ = 8						; size = 4
__Pdest$ = 12						; size = 4
__Src$ = 16						; size = 4
??$_Cons_val@V?$allocator@UEntityGroupData@ioWorldMesh@@@std@@UEntityGroupData@ioWorldMesh@@AAU34@@std@@YAXAAV?$allocator@UEntityGroupData@ioWorldMesh@@@0@PAUEntityGroupData@ioWorldMesh@@AAU23@@Z PROC ; std::_Cons_val<std::allocator<ioWorldMesh::EntityGroupData>,ioWorldMesh::EntityGroupData,ioWorldMesh::EntityGroupData &>, COMDAT

; 279  : 	{	// construct using allocator

  00000	55		 push	 ebp
  00001	8b ec		 mov	 ebp, esp

; 280  : 	_Alval.construct(_Pdest, _STD forward<_Ty2>(_Src));

  00003	8b 45 0c	 mov	 eax, DWORD PTR __Pdest$[ebp]
  00006	85 c0		 test	 eax, eax
  00008	74 0d		 je	 SHORT $LN7@Cons_val
  0000a	8b 4d 10	 mov	 ecx, DWORD PTR __Src$[ebp]
  0000d	8b 11		 mov	 edx, DWORD PTR [ecx]
  0000f	89 10		 mov	 DWORD PTR [eax], edx
  00011	8b 49 04	 mov	 ecx, DWORD PTR [ecx+4]
  00014	89 48 04	 mov	 DWORD PTR [eax+4], ecx
$LN7@Cons_val:

; 281  : 	}

  00017	5d		 pop	 ebp
  00018	c3		 ret	 0
??$_Cons_val@V?$allocator@UEntityGroupData@ioWorldMesh@@@std@@UEntityGroupData@ioWorldMesh@@AAU34@@std@@YAXAAV?$allocator@UEntityGroupData@ioWorldMesh@@@0@PAUEntityGroupData@ioWorldMesh@@AAU23@@Z ENDP ; std::_Cons_val<std::allocator<ioWorldMesh::EntityGroupData>,ioWorldMesh::EntityGroupData,ioWorldMesh::EntityGroupData &>
_TEXT	ENDS
PUBLIC	??$?0AAV?$_Tree_iterator@V?$_Tree_val@V?$_Tmap_traits@VioHashString@@UD3DXVECTOR3@@U?$less@VioHashString@@@std@@V?$allocator@U?$pair@$$CBVioHashString@@UD3DXVECTOR3@@@std@@@4@$0A@@std@@@std@@@std@@AAV01@@?$pair@V?$_Tree_iterator@V?$_Tree_val@V?$_Tmap_traits@VioHashString@@UD3DXVECTOR3@@U?$less@VioHashString@@@std@@V?$allocator@U?$pair@$$CBVioHashString@@UD3DXVECTOR3@@@std@@@4@$0A@@std@@@std@@@std@@V12@@std@@QAE@AAV?$_Tree_iterator@V?$_Tree_val@V?$_Tmap_traits@VioHashString@@UD3DXVECTOR3@@U?$less@VioHashString@@@std@@V?$allocator@U?$pair@$$CBVioHashString@@UD3DXVECTOR3@@@std@@@4@$0A@@std@@@std@@@1@0@Z ; std::pair<std::_Tree_iterator<std::_Tree_val<std::_Tmap_traits<ioHashString,D3DXVECTOR3,std::less<ioHashString>,std::allocator<std::pair<ioHashString const ,D3DXVECTOR3> >,0> > >,std::_Tree_iterator<std::_Tree_val<std::_Tmap_traits<ioHashString,D3DXVECTOR3,std::less<ioHashString>,std::allocator<std::pair<ioHashString const ,D3DXVECTOR3> >,0> > > >::pair<std::_Tree_iterator<std::_Tree_val<std::_Tmap_traits<ioHashString,D3DXVECTOR3,std::less<ioHashString>,std::allocator<std::pair<ioHashString const ,D3DXVECTOR3> >,0> > >,std::_Tree_iterator<std::_Tree_val<std::_Tmap_traits<ioHashString,D3DXVECTOR3,std::less<ioHashString>,std::allocator<std::pair<ioHashString const ,D3DXVECTOR3> >,0> > > ><std::_Tree_iterator<std::_Tree_val<std::_Tmap_traits<ioHashString,D3DXVECTOR3,std::less<ioHashString>,std::allocator<std::pair<ioHashString const ,D3DXVECTOR3> >,0> > > &,std::_Tree_iterator<std::_Tree_val<std::_Tmap_traits<ioHashString,D3DXVECTOR3,std::less<ioHashString>,std::allocator<std::pair<ioHashString const ,D3DXVECTOR3> >,0> > > &>
; Function compile flags: /Ogsp
; File c:\program files (x86)\microsoft visual studio 10.0\vc\include\utility
;	COMDAT ??$?0AAV?$_Tree_iterator@V?$_Tree_val@V?$_Tmap_traits@VioHashString@@UD3DXVECTOR3@@U?$less@VioHashString@@@std@@V?$allocator@U?$pair@$$CBVioHashString@@UD3DXVECTOR3@@@std@@@4@$0A@@std@@@std@@@std@@AAV01@@?$pair@V?$_Tree_iterator@V?$_Tree_val@V?$_Tmap_traits@VioHashString@@UD3DXVECTOR3@@U?$less@VioHashString@@@std@@V?$allocator@U?$pair@$$CBVioHashString@@UD3DXVECTOR3@@@std@@@4@$0A@@std@@@std@@@std@@V12@@std@@QAE@AAV?$_Tree_iterator@V?$_Tree_val@V?$_Tmap_traits@VioHashString@@UD3DXVECTOR3@@U?$less@VioHashString@@@std@@V?$allocator@U?$pair@$$CBVioHashString@@UD3DXVECTOR3@@@std@@@4@$0A@@std@@@std@@@1@0@Z
_TEXT	SEGMENT
__Val1$ = 8						; size = 4
__Val2$ = 12						; size = 4
??$?0AAV?$_Tree_iterator@V?$_Tree_val@V?$_Tmap_traits@VioHashString@@UD3DXVECTOR3@@U?$less@VioHashString@@@std@@V?$allocator@U?$pair@$$CBVioHashString@@UD3DXVECTOR3@@@std@@@4@$0A@@std@@@std@@@std@@AAV01@@?$pair@V?$_Tree_iterator@V?$_Tree_val@V?$_Tmap_traits@VioHashString@@UD3DXVECTOR3@@U?$less@VioHashString@@@std@@V?$allocator@U?$pair@$$CBVioHashString@@UD3DXVECTOR3@@@std@@@4@$0A@@std@@@std@@@std@@V12@@std@@QAE@AAV?$_Tree_iterator@V?$_Tree_val@V?$_Tmap_traits@VioHashString@@UD3DXVECTOR3@@U?$less@VioHashString@@@std@@V?$allocator@U?$pair@$$CBVioHashString@@UD3DXVECTOR3@@@std@@@4@$0A@@std@@@std@@@1@0@Z PROC ; std::pair<std::_Tree_iterator<std::_Tree_val<std::_Tmap_traits<ioHashString,D3DXVECTOR3,std::less<ioHashString>,std::allocator<std::pair<ioHashString const ,D3DXVECTOR3> >,0> > >,std::_Tree_iterator<std::_Tree_val<std::_Tmap_traits<ioHashString,D3DXVECTOR3,std::less<ioHashString>,std::allocator<std::pair<ioHashString const ,D3DXVECTOR3> >,0> > > >::pair<std::_Tree_iterator<std::_Tree_val<std::_Tmap_traits<ioHashString,D3DXVECTOR3,std::less<ioHashString>,std::allocator<std::pair<ioHashString const ,D3DXVECTOR3> >,0> > >,std::_Tree_iterator<std::_Tree_val<std::_Tmap_traits<ioHashString,D3DXVECTOR3,std::less<ioHashString>,std::allocator<std::pair<ioHashString const ,D3DXVECTOR3> >,0> > > ><std::_Tree_iterator<std::_Tree_val<std::_Tmap_traits<ioHashString,D3DXVECTOR3,std::less<ioHashString>,std::allocator<std::pair<ioHashString const ,D3DXVECTOR3> >,0> > > &,std::_Tree_iterator<std::_Tree_val<std::_Tmap_traits<ioHashString,D3DXVECTOR3,std::less<ioHashString>,std::allocator<std::pair<ioHashString const ,D3DXVECTOR3> >,0> > > &>, COMDAT
; _this$ = ecx

; 247  : 		{	// construct from moved values

  00000	55		 push	 ebp
  00001	8b ec		 mov	 ebp, esp
  00003	8b c1		 mov	 eax, ecx
  00005	8b 4d 08	 mov	 ecx, DWORD PTR __Val1$[ebp]
  00008	8b 09		 mov	 ecx, DWORD PTR [ecx]
  0000a	89 08		 mov	 DWORD PTR [eax], ecx
  0000c	8b 4d 0c	 mov	 ecx, DWORD PTR __Val2$[ebp]
  0000f	8b 09		 mov	 ecx, DWORD PTR [ecx]
  00011	89 48 04	 mov	 DWORD PTR [eax+4], ecx

; 248  : 		}

  00014	5d		 pop	 ebp
  00015	c2 08 00	 ret	 8
??$?0AAV?$_Tree_iterator@V?$_Tree_val@V?$_Tmap_traits@VioHashString@@UD3DXVECTOR3@@U?$less@VioHashString@@@std@@V?$allocator@U?$pair@$$CBVioHashString@@UD3DXVECTOR3@@@std@@@4@$0A@@std@@@std@@@std@@AAV01@@?$pair@V?$_Tree_iterator@V?$_Tree_val@V?$_Tmap_traits@VioHashString@@UD3DXVECTOR3@@U?$less@VioHashString@@@std@@V?$allocator@U?$pair@$$CBVioHashString@@UD3DXVECTOR3@@@std@@@4@$0A@@std@@@std@@@std@@V12@@std@@QAE@AAV?$_Tree_iterator@V?$_Tree_val@V?$_Tmap_traits@VioHashString@@UD3DXVECTOR3@@U?$less@VioHashString@@@std@@V?$allocator@U?$pair@$$CBVioHashString@@UD3DXVECTOR3@@@std@@@4@$0A@@std@@@std@@@1@0@Z ENDP ; std::pair<std::_Tree_iterator<std::_Tree_val<std::_Tmap_traits<ioHashString,D3DXVECTOR3,std::less<ioHashString>,std::allocator<std::pair<ioHashString const ,D3DXVECTOR3> >,0> > >,std::_Tree_iterator<std::_Tree_val<std::_Tmap_traits<ioHashString,D3DXVECTOR3,std::less<ioHashString>,std::allocator<std::pair<ioHashString const ,D3DXVECTOR3> >,0> > > >::pair<std::_Tree_iterator<std::_Tree_val<std::_Tmap_traits<ioHashString,D3DXVECTOR3,std::less<ioHashString>,std::allocator<std::pair<ioHashString const ,D3DXVECTOR3> >,0> > >,std::_Tree_iterator<std::_Tree_val<std::_Tmap_traits<ioHashString,D3DXVECTOR3,std::less<ioHashString>,std::allocator<std::pair<ioHashString const ,D3DXVECTOR3> >,0> > > ><std::_Tree_iterator<std::_Tree_val<std::_Tmap_traits<ioHashString,D3DXVECTOR3,std::less<ioHashString>,std::allocator<std::pair<ioHashString const ,D3DXVECTOR3> >,0> > > &,std::_Tree_iterator<std::_Tree_val<std::_Tmap_traits<ioHashString,D3DXVECTOR3,std::less<ioHashString>,std::allocator<std::pair<ioHashString const ,D3DXVECTOR3> >,0> > > &>
_TEXT	ENDS
PUBLIC	?construct@?$allocator@UEntityGroupData@ioWorldMesh@@@std@@QAEXPAUEntityGroupData@ioWorldMesh@@ABU34@@Z ; std::allocator<ioWorldMesh::EntityGroupData>::construct
; Function compile flags: /Ogsp
; File c:\program files (x86)\microsoft visual studio 10.0\vc\include\xmemory
;	COMDAT ?construct@?$allocator@UEntityGroupData@ioWorldMesh@@@std@@QAEXPAUEntityGroupData@ioWorldMesh@@ABU34@@Z
_TEXT	SEGMENT
__Ptr$ = 8						; size = 4
__Val$ = 12						; size = 4
?construct@?$allocator@UEntityGroupData@ioWorldMesh@@@std@@QAEXPAUEntityGroupData@ioWorldMesh@@ABU34@@Z PROC ; std::allocator<ioWorldMesh::EntityGroupData>::construct, COMDAT
; _this$ = ecx

; 196  : 		{	// construct object at _Ptr with value _Val

  00000	55		 push	 ebp
  00001	8b ec		 mov	 ebp, esp

; 197  : 		_Construct(_Ptr, _Val);

  00003	8b 45 08	 mov	 eax, DWORD PTR __Ptr$[ebp]
  00006	85 c0		 test	 eax, eax
  00008	74 0d		 je	 SHORT $LN5@construct@3
  0000a	8b 4d 0c	 mov	 ecx, DWORD PTR __Val$[ebp]
  0000d	8b 11		 mov	 edx, DWORD PTR [ecx]
  0000f	89 10		 mov	 DWORD PTR [eax], edx
  00011	8b 49 04	 mov	 ecx, DWORD PTR [ecx+4]
  00014	89 48 04	 mov	 DWORD PTR [eax+4], ecx
$LN5@construct@3:

; 198  : 		}

  00017	5d		 pop	 ebp
  00018	c2 08 00	 ret	 8
?construct@?$allocator@UEntityGroupData@ioWorldMesh@@@std@@QAEXPAUEntityGroupData@ioWorldMesh@@ABU34@@Z ENDP ; std::allocator<ioWorldMesh::EntityGroupData>::construct
_TEXT	ENDS
PUBLIC	??0?$_Tree_const_iterator@V?$_Tree_val@V?$_Tmap_traits@VioHashString@@UD3DXVECTOR3@@U?$less@VioHashString@@@std@@V?$allocator@U?$pair@$$CBVioHashString@@UD3DXVECTOR3@@@std@@@4@$0A@@std@@@std@@@std@@QAE@XZ ; std::_Tree_const_iterator<std::_Tree_val<std::_Tmap_traits<ioHashString,D3DXVECTOR3,std::less<ioHashString>,std::allocator<std::pair<ioHashString const ,D3DXVECTOR3> >,0> > >::_Tree_const_iterator<std::_Tree_val<std::_Tmap_traits<ioHashString,D3DXVECTOR3,std::less<ioHashString>,std::allocator<std::pair<ioHashString const ,D3DXVECTOR3> >,0> > >
; Function compile flags: /Ogsp
; File c:\program files (x86)\microsoft visual studio 10.0\vc\include\xtree
;	COMDAT ??0?$_Tree_const_iterator@V?$_Tree_val@V?$_Tmap_traits@VioHashString@@UD3DXVECTOR3@@U?$less@VioHashString@@@std@@V?$allocator@U?$pair@$$CBVioHashString@@UD3DXVECTOR3@@@std@@@4@$0A@@std@@@std@@@std@@QAE@XZ
_TEXT	SEGMENT
??0?$_Tree_const_iterator@V?$_Tree_val@V?$_Tmap_traits@VioHashString@@UD3DXVECTOR3@@U?$less@VioHashString@@@std@@V?$allocator@U?$pair@$$CBVioHashString@@UD3DXVECTOR3@@@std@@@4@$0A@@std@@@std@@@std@@QAE@XZ PROC ; std::_Tree_const_iterator<std::_Tree_val<std::_Tmap_traits<ioHashString,D3DXVECTOR3,std::less<ioHashString>,std::allocator<std::pair<ioHashString const ,D3DXVECTOR3> >,0> > >::_Tree_const_iterator<std::_Tree_val<std::_Tmap_traits<ioHashString,D3DXVECTOR3,std::less<ioHashString>,std::allocator<std::pair<ioHashString const ,D3DXVECTOR3> >,0> > >, COMDAT
; _this$ = ecx

; 208  : 		{	// construct with null node pointer

  00000	8b c1		 mov	 eax, ecx
  00002	83 20 00	 and	 DWORD PTR [eax], 0

; 209  : 		}

  00005	c3		 ret	 0
??0?$_Tree_const_iterator@V?$_Tree_val@V?$_Tmap_traits@VioHashString@@UD3DXVECTOR3@@U?$less@VioHashString@@@std@@V?$allocator@U?$pair@$$CBVioHashString@@UD3DXVECTOR3@@@std@@@4@$0A@@std@@@std@@@std@@QAE@XZ ENDP ; std::_Tree_const_iterator<std::_Tree_val<std::_Tmap_traits<ioHashString,D3DXVECTOR3,std::less<ioHashString>,std::allocator<std::pair<ioHashString const ,D3DXVECTOR3> >,0> > >::_Tree_const_iterator<std::_Tree_val<std::_Tmap_traits<ioHashString,D3DXVECTOR3,std::less<ioHashString>,std::allocator<std::pair<ioHashString const ,D3DXVECTOR3> >,0> > >
_TEXT	ENDS
PUBLIC	??F?$_Tree_const_iterator@V?$_Tree_val@V?$_Tmap_traits@VioHashString@@UD3DXVECTOR3@@U?$less@VioHashString@@@std@@V?$allocator@U?$pair@$$CBVioHashString@@UD3DXVECTOR3@@@std@@@4@$0A@@std@@@std@@@std@@QAEAAV01@XZ ; std::_Tree_const_iterator<std::_Tree_val<std::_Tmap_traits<ioHashString,D3DXVECTOR3,std::less<ioHashString>,std::allocator<std::pair<ioHashString const ,D3DXVECTOR3> >,0> > >::operator--
; Function compile flags: /Ogsp
;	COMDAT ??F?$_Tree_const_iterator@V?$_Tree_val@V?$_Tmap_traits@VioHashString@@UD3DXVECTOR3@@U?$less@VioHashString@@@std@@V?$allocator@U?$pair@$$CBVioHashString@@UD3DXVECTOR3@@@std@@@4@$0A@@std@@@std@@@std@@QAEAAV01@XZ
_TEXT	SEGMENT
??F?$_Tree_const_iterator@V?$_Tree_val@V?$_Tmap_traits@VioHashString@@UD3DXVECTOR3@@U?$less@VioHashString@@@std@@V?$allocator@U?$pair@$$CBVioHashString@@UD3DXVECTOR3@@@std@@@4@$0A@@std@@@std@@@std@@QAEAAV01@XZ PROC ; std::_Tree_const_iterator<std::_Tree_val<std::_Tmap_traits<ioHashString,D3DXVECTOR3,std::less<ioHashString>,std::allocator<std::pair<ioHashString const ,D3DXVECTOR3> >,0> > >::operator--, COMDAT
; _this$ = ecx

; 277  : 		{	// predecrement

  00000	56		 push	 esi
  00001	8b f1		 mov	 esi, ecx

; 278  :  #if _ITERATOR_DEBUG_LEVEL == 2
; 279  : 		if (this->_Getcont() == 0
; 280  : 			|| this->_Ptr == 0)
; 281  : 			{	// report error
; 282  : 			_DEBUG_ERROR("map/set iterator not decrementable");
; 283  : 			_SCL_SECURE_OUT_OF_RANGE;
; 284  : 			}
; 285  : 
; 286  : 		_Nodeptr _Ptrsav = this->_Ptr;
; 287  : 		--(*(_Mybase *)this);
; 288  : 		if (_Ptrsav == this->_Ptr)
; 289  : 			{	// report error
; 290  : 			_DEBUG_ERROR("map/set iterator not decrementable");
; 291  : 			_SCL_SECURE_OUT_OF_RANGE;
; 292  : 			}
; 293  : 
; 294  :  #elif _ITERATOR_DEBUG_LEVEL == 1
; 295  : 		_SCL_SECURE_VALIDATE(this->_Getcont() != 0 && this->_Ptr != 0);
; 296  : 
; 297  : 		_Nodeptr _Ptrsav = this->_Ptr;
; 298  : 		--(*(_Mybase *)this);
; 299  : 		_SCL_SECURE_VALIDATE(_Ptrsav != this->_Ptr);
; 300  : 
; 301  :  #else /* _ITERATOR_DEBUG_LEVEL == 0 */
; 302  : 		--(*(_Mybase *)this);

  00003	e8 00 00 00 00	 call	 ??F?$_Tree_unchecked_const_iterator@V?$_Tree_val@V?$_Tmap_traits@VioHashString@@UD3DXVECTOR3@@U?$less@VioHashString@@@std@@V?$allocator@U?$pair@$$CBVioHashString@@UD3DXVECTOR3@@@std@@@4@$0A@@std@@@std@@U_Iterator_base0@2@@std@@QAEAAV01@XZ ; std::_Tree_unchecked_const_iterator<std::_Tree_val<std::_Tmap_traits<ioHashString,D3DXVECTOR3,std::less<ioHashString>,std::allocator<std::pair<ioHashString const ,D3DXVECTOR3> >,0> >,std::_Iterator_base0>::operator--

; 303  :  #endif /* _ITERATOR_DEBUG_LEVEL */
; 304  : 
; 305  : 		return (*this);

  00008	8b c6		 mov	 eax, esi
  0000a	5e		 pop	 esi

; 306  : 		}

  0000b	c3		 ret	 0
??F?$_Tree_const_iterator@V?$_Tree_val@V?$_Tmap_traits@VioHashString@@UD3DXVECTOR3@@U?$less@VioHashString@@@std@@V?$allocator@U?$pair@$$CBVioHashString@@UD3DXVECTOR3@@@std@@@4@$0A@@std@@@std@@@std@@QAEAAV01@XZ ENDP ; std::_Tree_const_iterator<std::_Tree_val<std::_Tmap_traits<ioHashString,D3DXVECTOR3,std::less<ioHashString>,std::allocator<std::pair<ioHashString const ,D3DXVECTOR3> >,0> > >::operator--
_TEXT	ENDS
PUBLIC	?max_size@?$_Tree@V?$_Tmap_traits@VioHashString@@UD3DXVECTOR3@@U?$less@VioHashString@@@std@@V?$allocator@U?$pair@$$CBVioHashString@@UD3DXVECTOR3@@@std@@@4@$0A@@std@@@std@@QBEIXZ ; std::_Tree<std::_Tmap_traits<ioHashString,D3DXVECTOR3,std::less<ioHashString>,std::allocator<std::pair<ioHashString const ,D3DXVECTOR3> >,0> >::max_size
; Function compile flags: /Ogsp
;	COMDAT ?max_size@?$_Tree@V?$_Tmap_traits@VioHashString@@UD3DXVECTOR3@@U?$less@VioHashString@@@std@@V?$allocator@U?$pair@$$CBVioHashString@@UD3DXVECTOR3@@@std@@@4@$0A@@std@@@std@@QBEIXZ
_TEXT	SEGMENT
?max_size@?$_Tree@V?$_Tmap_traits@VioHashString@@UD3DXVECTOR3@@U?$less@VioHashString@@@std@@V?$allocator@U?$pair@$$CBVioHashString@@UD3DXVECTOR3@@@std@@@4@$0A@@std@@@std@@QBEIXZ PROC ; std::_Tree<std::_Tmap_traits<ioHashString,D3DXVECTOR3,std::less<ioHashString>,std::allocator<std::pair<ioHashString const ,D3DXVECTOR3> >,0> >::max_size, COMDAT
; _this$ = ecx

; 874  : 		return (this->_Alval.max_size());

  00000	b8 49 92 24 09	 mov	 eax, 153391689		; 09249249H

; 875  : 		}

  00005	c3		 ret	 0
?max_size@?$_Tree@V?$_Tmap_traits@VioHashString@@UD3DXVECTOR3@@U?$less@VioHashString@@@std@@V?$allocator@U?$pair@$$CBVioHashString@@UD3DXVECTOR3@@@std@@@4@$0A@@std@@@std@@QBEIXZ ENDP ; std::_Tree<std::_Tmap_traits<ioHashString,D3DXVECTOR3,std::less<ioHashString>,std::allocator<std::pair<ioHashString const ,D3DXVECTOR3> >,0> >::max_size
_TEXT	ENDS
PUBLIC	??F?$_Tree_iterator@V?$_Tree_val@V?$_Tmap_traits@VioHashString@@UD3DXVECTOR3@@U?$less@VioHashString@@@std@@V?$allocator@U?$pair@$$CBVioHashString@@UD3DXVECTOR3@@@std@@@4@$0A@@std@@@std@@@std@@QAEAAV01@XZ ; std::_Tree_iterator<std::_Tree_val<std::_Tmap_traits<ioHashString,D3DXVECTOR3,std::less<ioHashString>,std::allocator<std::pair<ioHashString const ,D3DXVECTOR3> >,0> > >::operator--
; Function compile flags: /Ogsp
;	COMDAT ??F?$_Tree_iterator@V?$_Tree_val@V?$_Tmap_traits@VioHashString@@UD3DXVECTOR3@@U?$less@VioHashString@@@std@@V?$allocator@U?$pair@$$CBVioHashString@@UD3DXVECTOR3@@@std@@@4@$0A@@std@@@std@@@std@@QAEAAV01@XZ
_TEXT	SEGMENT
??F?$_Tree_iterator@V?$_Tree_val@V?$_Tmap_traits@VioHashString@@UD3DXVECTOR3@@U?$less@VioHashString@@@std@@V?$allocator@U?$pair@$$CBVioHashString@@UD3DXVECTOR3@@@std@@@4@$0A@@std@@@std@@@std@@QAEAAV01@XZ PROC ; std::_Tree_iterator<std::_Tree_val<std::_Tmap_traits<ioHashString,D3DXVECTOR3,std::less<ioHashString>,std::allocator<std::pair<ioHashString const ,D3DXVECTOR3> >,0> > >::operator--, COMDAT
; _this$ = ecx

; 418  : 		{	// predecrement

  00000	56		 push	 esi
  00001	8b f1		 mov	 esi, ecx

; 419  : 		--(*(_Mybase *)this);

  00003	e8 00 00 00 00	 call	 ??F?$_Tree_unchecked_const_iterator@V?$_Tree_val@V?$_Tmap_traits@VioHashString@@UD3DXVECTOR3@@U?$less@VioHashString@@@std@@V?$allocator@U?$pair@$$CBVioHashString@@UD3DXVECTOR3@@@std@@@4@$0A@@std@@@std@@U_Iterator_base0@2@@std@@QAEAAV01@XZ ; std::_Tree_unchecked_const_iterator<std::_Tree_val<std::_Tmap_traits<ioHashString,D3DXVECTOR3,std::less<ioHashString>,std::allocator<std::pair<ioHashString const ,D3DXVECTOR3> >,0> >,std::_Iterator_base0>::operator--

; 420  : 		return (*this);

  00008	8b c6		 mov	 eax, esi
  0000a	5e		 pop	 esi

; 421  : 		}

  0000b	c3		 ret	 0
??F?$_Tree_iterator@V?$_Tree_val@V?$_Tmap_traits@VioHashString@@UD3DXVECTOR3@@U?$less@VioHashString@@@std@@V?$allocator@U?$pair@$$CBVioHashString@@UD3DXVECTOR3@@@std@@@4@$0A@@std@@@std@@@std@@QAEAAV01@XZ ENDP ; std::_Tree_iterator<std::_Tree_val<std::_Tmap_traits<ioHashString,D3DXVECTOR3,std::less<ioHashString>,std::allocator<std::pair<ioHashString const ,D3DXVECTOR3> >,0> > >::operator--
_TEXT	ENDS
PUBLIC	??0?$_Pair_base@V?$_Tree_iterator@V?$_Tree_val@V?$_Tmap_traits@VioHashString@@UD3DXVECTOR3@@U?$less@VioHashString@@@std@@V?$allocator@U?$pair@$$CBVioHashString@@UD3DXVECTOR3@@@std@@@4@$0A@@std@@@std@@@std@@_N@std@@QAE@$$QAV?$_Tree_iterator@V?$_Tree_val@V?$_Tmap_traits@VioHashString@@UD3DXVECTOR3@@U?$less@VioHashString@@@std@@V?$allocator@U?$pair@$$CBVioHashString@@UD3DXVECTOR3@@@std@@@4@$0A@@std@@@std@@@1@$$QA_N@Z ; std::_Pair_base<std::_Tree_iterator<std::_Tree_val<std::_Tmap_traits<ioHashString,D3DXVECTOR3,std::less<ioHashString>,std::allocator<std::pair<ioHashString const ,D3DXVECTOR3> >,0> > >,bool>::_Pair_base<std::_Tree_iterator<std::_Tree_val<std::_Tmap_traits<ioHashString,D3DXVECTOR3,std::less<ioHashString>,std::allocator<std::pair<ioHashString const ,D3DXVECTOR3> >,0> > >,bool>
; Function compile flags: /Ogsp
; File c:\program files (x86)\microsoft visual studio 10.0\vc\include\utility
;	COMDAT ??0?$_Pair_base@V?$_Tree_iterator@V?$_Tree_val@V?$_Tmap_traits@VioHashString@@UD3DXVECTOR3@@U?$less@VioHashString@@@std@@V?$allocator@U?$pair@$$CBVioHashString@@UD3DXVECTOR3@@@std@@@4@$0A@@std@@@std@@@std@@_N@std@@QAE@$$QAV?$_Tree_iterator@V?$_Tree_val@V?$_Tmap_traits@VioHashString@@UD3DXVECTOR3@@U?$less@VioHashString@@@std@@V?$allocator@U?$pair@$$CBVioHashString@@UD3DXVECTOR3@@@std@@@4@$0A@@std@@@std@@@1@$$QA_N@Z
_TEXT	SEGMENT
__Val1$ = 8						; size = 4
__Val2$ = 12						; size = 4
??0?$_Pair_base@V?$_Tree_iterator@V?$_Tree_val@V?$_Tmap_traits@VioHashString@@UD3DXVECTOR3@@U?$less@VioHashString@@@std@@V?$allocator@U?$pair@$$CBVioHashString@@UD3DXVECTOR3@@@std@@@4@$0A@@std@@@std@@@std@@_N@std@@QAE@$$QAV?$_Tree_iterator@V?$_Tree_val@V?$_Tmap_traits@VioHashString@@UD3DXVECTOR3@@U?$less@VioHashString@@@std@@V?$allocator@U?$pair@$$CBVioHashString@@UD3DXVECTOR3@@@std@@@4@$0A@@std@@@std@@@1@$$QA_N@Z PROC ; std::_Pair_base<std::_Tree_iterator<std::_Tree_val<std::_Tmap_traits<ioHashString,D3DXVECTOR3,std::less<ioHashString>,std::allocator<std::pair<ioHashString const ,D3DXVECTOR3> >,0> > >,bool>::_Pair_base<std::_Tree_iterator<std::_Tree_val<std::_Tmap_traits<ioHashString,D3DXVECTOR3,std::less<ioHashString>,std::allocator<std::pair<ioHashString const ,D3DXVECTOR3> >,0> > >,bool>, COMDAT
; _this$ = ecx

; 145  : 		{	// construct from specified values

  00000	55		 push	 ebp
  00001	8b ec		 mov	 ebp, esp
  00003	8b c1		 mov	 eax, ecx
  00005	8b 4d 08	 mov	 ecx, DWORD PTR __Val1$[ebp]
  00008	8b 09		 mov	 ecx, DWORD PTR [ecx]
  0000a	89 08		 mov	 DWORD PTR [eax], ecx
  0000c	8b 4d 0c	 mov	 ecx, DWORD PTR __Val2$[ebp]
  0000f	8a 09		 mov	 cl, BYTE PTR [ecx]
  00011	88 48 04	 mov	 BYTE PTR [eax+4], cl

; 146  : 		}

  00014	5d		 pop	 ebp
  00015	c2 08 00	 ret	 8
??0?$_Pair_base@V?$_Tree_iterator@V?$_Tree_val@V?$_Tmap_traits@VioHashString@@UD3DXVECTOR3@@U?$less@VioHashString@@@std@@V?$allocator@U?$pair@$$CBVioHashString@@UD3DXVECTOR3@@@std@@@4@$0A@@std@@@std@@@std@@_N@std@@QAE@$$QAV?$_Tree_iterator@V?$_Tree_val@V?$_Tmap_traits@VioHashString@@UD3DXVECTOR3@@U?$less@VioHashString@@@std@@V?$allocator@U?$pair@$$CBVioHashString@@UD3DXVECTOR3@@@std@@@4@$0A@@std@@@std@@@1@$$QA_N@Z ENDP ; std::_Pair_base<std::_Tree_iterator<std::_Tree_val<std::_Tmap_traits<ioHashString,D3DXVECTOR3,std::less<ioHashString>,std::allocator<std::pair<ioHashString const ,D3DXVECTOR3> >,0> > >,bool>::_Pair_base<std::_Tree_iterator<std::_Tree_val<std::_Tmap_traits<ioHashString,D3DXVECTOR3,std::less<ioHashString>,std::allocator<std::pair<ioHashString const ,D3DXVECTOR3> >,0> > >,bool>
_TEXT	ENDS
PUBLIC	??$_Move@PAUEntityGroupData@ioWorldMesh@@PAU12@@std@@YAPAUEntityGroupData@ioWorldMesh@@PAU12@00U_Nonscalar_ptr_iterator_tag@0@@Z ; std::_Move<ioWorldMesh::EntityGroupData *,ioWorldMesh::EntityGroupData *>
; Function compile flags: /Ogsp
; File c:\program files (x86)\microsoft visual studio 10.0\vc\include\xutility
;	COMDAT ??$_Move@PAUEntityGroupData@ioWorldMesh@@PAU12@@std@@YAPAUEntityGroupData@ioWorldMesh@@PAU12@00U_Nonscalar_ptr_iterator_tag@0@@Z
_TEXT	SEGMENT
__First$ = 8						; size = 4
__Last$ = 12						; size = 4
__Dest$ = 16						; size = 4
___formal$ = 20						; size = 1
??$_Move@PAUEntityGroupData@ioWorldMesh@@PAU12@@std@@YAPAUEntityGroupData@ioWorldMesh@@PAU12@00U_Nonscalar_ptr_iterator_tag@0@@Z PROC ; std::_Move<ioWorldMesh::EntityGroupData *,ioWorldMesh::EntityGroupData *>, COMDAT

; 2512 : 	{	// move [_First, _Last) to [_Dest, ...), arbitrary iterators

  00000	55		 push	 ebp
  00001	8b ec		 mov	 ebp, esp

; 2513 : 	for (; _First != _Last; ++_Dest, ++_First)

  00003	8b 4d 08	 mov	 ecx, DWORD PTR __First$[ebp]
  00006	8b 45 10	 mov	 eax, DWORD PTR __Dest$[ebp]
$LN11@Move:
  00009	3b 4d 0c	 cmp	 ecx, DWORD PTR __Last$[ebp]
  0000c	74 12		 je	 SHORT $LN1@Move

; 2514 : 		*_Dest = _STD move(*_First);

  0000e	8b 11		 mov	 edx, DWORD PTR [ecx]
  00010	89 10		 mov	 DWORD PTR [eax], edx
  00012	8b 51 04	 mov	 edx, DWORD PTR [ecx+4]
  00015	89 50 04	 mov	 DWORD PTR [eax+4], edx
  00018	83 c0 08	 add	 eax, 8
  0001b	83 c1 08	 add	 ecx, 8
  0001e	eb e9		 jmp	 SHORT $LN11@Move
$LN1@Move:

; 2515 : 	return (_Dest);
; 2516 : 	}

  00020	5d		 pop	 ebp
  00021	c3		 ret	 0
??$_Move@PAUEntityGroupData@ioWorldMesh@@PAU12@@std@@YAPAUEntityGroupData@ioWorldMesh@@PAU12@00U_Nonscalar_ptr_iterator_tag@0@@Z ENDP ; std::_Move<ioWorldMesh::EntityGroupData *,ioWorldMesh::EntityGroupData *>
_TEXT	ENDS
PUBLIC	??_G?$pair@$$CBVioHashString@@UD3DXVECTOR3@@@std@@QAEPAXI@Z ; std::pair<ioHashString const ,D3DXVECTOR3>::`scalar deleting destructor'
; Function compile flags: /Ogsp
;	COMDAT ??_G?$pair@$$CBVioHashString@@UD3DXVECTOR3@@@std@@QAEPAXI@Z
_TEXT	SEGMENT
___flags$ = 8						; size = 4
??_G?$pair@$$CBVioHashString@@UD3DXVECTOR3@@@std@@QAEPAXI@Z PROC ; std::pair<ioHashString const ,D3DXVECTOR3>::`scalar deleting destructor', COMDAT
; _this$ = ecx
  00000	55		 push	 ebp
  00001	8b ec		 mov	 ebp, esp
  00003	56		 push	 esi
  00004	8b f1		 mov	 esi, ecx
  00006	ff 15 00 00 00
	00		 call	 DWORD PTR __imp_??1ioHashString@@QAE@XZ
  0000c	f6 45 08 01	 test	 BYTE PTR ___flags$[ebp], 1
  00010	74 07		 je	 SHORT $LN1@scalar@3
  00012	56		 push	 esi
  00013	e8 00 00 00 00	 call	 ??3@YAXPAX@Z		; operator delete
  00018	59		 pop	 ecx
$LN1@scalar@3:
  00019	8b c6		 mov	 eax, esi
  0001b	5e		 pop	 esi
  0001c	5d		 pop	 ebp
  0001d	c2 04 00	 ret	 4
??_G?$pair@$$CBVioHashString@@UD3DXVECTOR3@@@std@@QAEPAXI@Z ENDP ; std::pair<ioHashString const ,D3DXVECTOR3>::`scalar deleting destructor'
_TEXT	ENDS
PUBLIC	?_Buynode@?$_Tree_val@V?$_Tmap_traits@VioHashString@@UD3DXVECTOR3@@U?$less@VioHashString@@@std@@V?$allocator@U?$pair@$$CBVioHashString@@UD3DXVECTOR3@@@std@@@4@$0A@@std@@@std@@QAEPAU_Node@?$_Tree_nod@V?$_Tmap_traits@VioHashString@@UD3DXVECTOR3@@U?$less@VioHashString@@@std@@V?$allocator@U?$pair@$$CBVioHashString@@UD3DXVECTOR3@@@std@@@4@$0A@@std@@@2@XZ ; std::_Tree_val<std::_Tmap_traits<ioHashString,D3DXVECTOR3,std::less<ioHashString>,std::allocator<std::pair<ioHashString const ,D3DXVECTOR3> >,0> >::_Buynode
; Function compile flags: /Ogsp
; File c:\program files (x86)\microsoft visual studio 10.0\vc\include\xtree
;	COMDAT ?_Buynode@?$_Tree_val@V?$_Tmap_traits@VioHashString@@UD3DXVECTOR3@@U?$less@VioHashString@@@std@@V?$allocator@U?$pair@$$CBVioHashString@@UD3DXVECTOR3@@@std@@@4@$0A@@std@@@std@@QAEPAU_Node@?$_Tree_nod@V?$_Tmap_traits@VioHashString@@UD3DXVECTOR3@@U?$less@VioHashString@@@std@@V?$allocator@U?$pair@$$CBVioHashString@@UD3DXVECTOR3@@@std@@@4@$0A@@std@@@2@XZ
_TEXT	SEGMENT
$T511778 = -16						; size = 12
$T511755 = -4						; size = 4
?_Buynode@?$_Tree_val@V?$_Tmap_traits@VioHashString@@UD3DXVECTOR3@@U?$less@VioHashString@@@std@@V?$allocator@U?$pair@$$CBVioHashString@@UD3DXVECTOR3@@@std@@@4@$0A@@std@@@std@@QAEPAU_Node@?$_Tree_nod@V?$_Tmap_traits@VioHashString@@UD3DXVECTOR3@@U?$less@VioHashString@@@std@@V?$allocator@U?$pair@$$CBVioHashString@@UD3DXVECTOR3@@@std@@@4@$0A@@std@@@2@XZ PROC ; std::_Tree_val<std::_Tmap_traits<ioHashString,D3DXVECTOR3,std::less<ioHashString>,std::allocator<std::pair<ioHashString const ,D3DXVECTOR3> >,0> >::_Buynode, COMDAT
; _this$ = ecx

; 559  : 		{	// allocate a node

  00000	55		 push	 ebp
  00001	8b ec		 mov	 ebp, esp
  00003	83 ec 10	 sub	 esp, 16			; 00000010H
  00006	56		 push	 esi

; 560  : 		_Nodeptr _Wherenode = this->_Alnod.allocate(1);

  00007	6a 2c		 push	 44			; 0000002cH
  00009	8b f1		 mov	 esi, ecx
  0000b	e8 00 00 00 00	 call	 ??2@YAPAXI@Z		; operator new
  00010	59		 pop	 ecx
  00011	33 c9		 xor	 ecx, ecx
  00013	3b c1		 cmp	 eax, ecx
  00015	74 18		 je	 SHORT $LN5@Buynode

; 561  : 
; 562  : 		this->_Left(_Wherenode) = this->_Myhead;

  00017	8b 56 04	 mov	 edx, DWORD PTR [esi+4]
  0001a	89 10		 mov	 DWORD PTR [eax], edx

; 563  : 		this->_Parent(_Wherenode) = this->_Myhead;

  0001c	8b 56 04	 mov	 edx, DWORD PTR [esi+4]
  0001f	89 50 04	 mov	 DWORD PTR [eax+4], edx

; 564  : 		this->_Right(_Wherenode) = this->_Myhead;

  00022	8b 56 04	 mov	 edx, DWORD PTR [esi+4]
  00025	89 50 08	 mov	 DWORD PTR [eax+8], edx

; 565  : 		this->_Color(_Wherenode) = this->_Red;

  00028	66 89 48 28	 mov	 WORD PTR [eax+40], cx
  0002c	5e		 pop	 esi

; 566  : 		this->_Isnil(_Wherenode) = false;
; 567  : 		return (_Wherenode);
; 568  : 		}

  0002d	c9		 leave
  0002e	c3		 ret	 0

; 560  : 		_Nodeptr _Wherenode = this->_Alnod.allocate(1);

$LN5@Buynode:
  0002f	8d 45 fc	 lea	 eax, DWORD PTR $T511755[ebp]
  00032	89 4d fc	 mov	 DWORD PTR $T511755[ebp], ecx
  00035	50		 push	 eax
  00036	8d 4d f0	 lea	 ecx, DWORD PTR $T511778[ebp]
  00039	ff 15 00 00 00
	00		 call	 DWORD PTR __imp_??0exception@std@@QAE@ABQBD@Z
  0003f	68 00 00 00 00	 push	 OFFSET __TI2?AVbad_alloc@std@@
  00044	8d 45 f0	 lea	 eax, DWORD PTR $T511778[ebp]
  00047	50		 push	 eax
  00048	c7 45 f0 00 00
	00 00		 mov	 DWORD PTR $T511778[ebp], OFFSET ??_7bad_alloc@std@@6B@
  0004f	e8 00 00 00 00	 call	 __CxxThrowException@8
$LN27@Buynode:
$LN26@Buynode:
  00054	cc		 int	 3
?_Buynode@?$_Tree_val@V?$_Tmap_traits@VioHashString@@UD3DXVECTOR3@@U?$less@VioHashString@@@std@@V?$allocator@U?$pair@$$CBVioHashString@@UD3DXVECTOR3@@@std@@@4@$0A@@std@@@std@@QAEPAU_Node@?$_Tree_nod@V?$_Tmap_traits@VioHashString@@UD3DXVECTOR3@@U?$less@VioHashString@@@std@@V?$allocator@U?$pair@$$CBVioHashString@@UD3DXVECTOR3@@@std@@@4@$0A@@std@@@2@XZ ENDP ; std::_Tree_val<std::_Tmap_traits<ioHashString,D3DXVECTOR3,std::less<ioHashString>,std::allocator<std::pair<ioHashString const ,D3DXVECTOR3> >,0> >::_Buynode
_TEXT	ENDS
PUBLIC	??E?$_Tree_iterator@V?$_Tree_val@V?$_Tmap_traits@VioHashString@@UD3DXVECTOR3@@U?$less@VioHashString@@@std@@V?$allocator@U?$pair@$$CBVioHashString@@UD3DXVECTOR3@@@std@@@4@$0A@@std@@@std@@@std@@QAEAAV01@XZ ; std::_Tree_iterator<std::_Tree_val<std::_Tmap_traits<ioHashString,D3DXVECTOR3,std::less<ioHashString>,std::allocator<std::pair<ioHashString const ,D3DXVECTOR3> >,0> > >::operator++
; Function compile flags: /Ogsp
;	COMDAT ??E?$_Tree_iterator@V?$_Tree_val@V?$_Tmap_traits@VioHashString@@UD3DXVECTOR3@@U?$less@VioHashString@@@std@@V?$allocator@U?$pair@$$CBVioHashString@@UD3DXVECTOR3@@@std@@@4@$0A@@std@@@std@@@std@@QAEAAV01@XZ
_TEXT	SEGMENT
??E?$_Tree_iterator@V?$_Tree_val@V?$_Tmap_traits@VioHashString@@UD3DXVECTOR3@@U?$less@VioHashString@@@std@@V?$allocator@U?$pair@$$CBVioHashString@@UD3DXVECTOR3@@@std@@@4@$0A@@std@@@std@@@std@@QAEAAV01@XZ PROC ; std::_Tree_iterator<std::_Tree_val<std::_Tmap_traits<ioHashString,D3DXVECTOR3,std::less<ioHashString>,std::allocator<std::pair<ioHashString const ,D3DXVECTOR3> >,0> > >::operator++, COMDAT
; _this$ = ecx

; 405  : 		{	// preincrement

  00000	56		 push	 esi
  00001	8b f1		 mov	 esi, ecx

; 406  : 		++(*(_Mybase *)this);

  00003	e8 00 00 00 00	 call	 ??E?$_Tree_unchecked_const_iterator@V?$_Tree_val@V?$_Tmap_traits@VioHashString@@UD3DXVECTOR3@@U?$less@VioHashString@@@std@@V?$allocator@U?$pair@$$CBVioHashString@@UD3DXVECTOR3@@@std@@@4@$0A@@std@@@std@@U_Iterator_base0@2@@std@@QAEAAV01@XZ ; std::_Tree_unchecked_const_iterator<std::_Tree_val<std::_Tmap_traits<ioHashString,D3DXVECTOR3,std::less<ioHashString>,std::allocator<std::pair<ioHashString const ,D3DXVECTOR3> >,0> >,std::_Iterator_base0>::operator++

; 407  : 		return (*this);

  00008	8b c6		 mov	 eax, esi
  0000a	5e		 pop	 esi

; 408  : 		}

  0000b	c3		 ret	 0
??E?$_Tree_iterator@V?$_Tree_val@V?$_Tmap_traits@VioHashString@@UD3DXVECTOR3@@U?$less@VioHashString@@@std@@V?$allocator@U?$pair@$$CBVioHashString@@UD3DXVECTOR3@@@std@@@4@$0A@@std@@@std@@@std@@QAEAAV01@XZ ENDP ; std::_Tree_iterator<std::_Tree_val<std::_Tmap_traits<ioHashString,D3DXVECTOR3,std::less<ioHashString>,std::allocator<std::pair<ioHashString const ,D3DXVECTOR3> >,0> > >::operator++
_TEXT	ENDS
PUBLIC	??$?0AAV?$_Tree_iterator@V?$_Tree_val@V?$_Tmap_traits@VioHashString@@UD3DXVECTOR3@@U?$less@VioHashString@@@std@@V?$allocator@U?$pair@$$CBVioHashString@@UD3DXVECTOR3@@@std@@@4@$0A@@std@@@std@@@std@@_N@?$_Pair_base@V?$_Tree_iterator@V?$_Tree_val@V?$_Tmap_traits@VioHashString@@UD3DXVECTOR3@@U?$less@VioHashString@@@std@@V?$allocator@U?$pair@$$CBVioHashString@@UD3DXVECTOR3@@@std@@@4@$0A@@std@@@std@@@std@@_N@std@@QAE@AAV?$_Tree_iterator@V?$_Tree_val@V?$_Tmap_traits@VioHashString@@UD3DXVECTOR3@@U?$less@VioHashString@@@std@@V?$allocator@U?$pair@$$CBVioHashString@@UD3DXVECTOR3@@@std@@@4@$0A@@std@@@std@@@1@$$QA_N@Z ; std::_Pair_base<std::_Tree_iterator<std::_Tree_val<std::_Tmap_traits<ioHashString,D3DXVECTOR3,std::less<ioHashString>,std::allocator<std::pair<ioHashString const ,D3DXVECTOR3> >,0> > >,bool>::_Pair_base<std::_Tree_iterator<std::_Tree_val<std::_Tmap_traits<ioHashString,D3DXVECTOR3,std::less<ioHashString>,std::allocator<std::pair<ioHashString const ,D3DXVECTOR3> >,0> > >,bool><std::_Tree_iterator<std::_Tree_val<std::_Tmap_traits<ioHashString,D3DXVECTOR3,std::less<ioHashString>,std::allocator<std::pair<ioHashString const ,D3DXVECTOR3> >,0> > > &,bool>
; Function compile flags: /Ogsp
; File c:\program files (x86)\microsoft visual studio 10.0\vc\include\utility
;	COMDAT ??$?0AAV?$_Tree_iterator@V?$_Tree_val@V?$_Tmap_traits@VioHashString@@UD3DXVECTOR3@@U?$less@VioHashString@@@std@@V?$allocator@U?$pair@$$CBVioHashString@@UD3DXVECTOR3@@@std@@@4@$0A@@std@@@std@@@std@@_N@?$_Pair_base@V?$_Tree_iterator@V?$_Tree_val@V?$_Tmap_traits@VioHashString@@UD3DXVECTOR3@@U?$less@VioHashString@@@std@@V?$allocator@U?$pair@$$CBVioHashString@@UD3DXVECTOR3@@@std@@@4@$0A@@std@@@std@@@std@@_N@std@@QAE@AAV?$_Tree_iterator@V?$_Tree_val@V?$_Tmap_traits@VioHashString@@UD3DXVECTOR3@@U?$less@VioHashString@@@std@@V?$allocator@U?$pair@$$CBVioHashString@@UD3DXVECTOR3@@@std@@@4@$0A@@std@@@std@@@1@$$QA_N@Z
_TEXT	SEGMENT
__Val1$ = 8						; size = 4
__Val2$ = 12						; size = 4
??$?0AAV?$_Tree_iterator@V?$_Tree_val@V?$_Tmap_traits@VioHashString@@UD3DXVECTOR3@@U?$less@VioHashString@@@std@@V?$allocator@U?$pair@$$CBVioHashString@@UD3DXVECTOR3@@@std@@@4@$0A@@std@@@std@@@std@@_N@?$_Pair_base@V?$_Tree_iterator@V?$_Tree_val@V?$_Tmap_traits@VioHashString@@UD3DXVECTOR3@@U?$less@VioHashString@@@std@@V?$allocator@U?$pair@$$CBVioHashString@@UD3DXVECTOR3@@@std@@@4@$0A@@std@@@std@@@std@@_N@std@@QAE@AAV?$_Tree_iterator@V?$_Tree_val@V?$_Tmap_traits@VioHashString@@UD3DXVECTOR3@@U?$less@VioHashString@@@std@@V?$allocator@U?$pair@$$CBVioHashString@@UD3DXVECTOR3@@@std@@@4@$0A@@std@@@std@@@1@$$QA_N@Z PROC ; std::_Pair_base<std::_Tree_iterator<std::_Tree_val<std::_Tmap_traits<ioHashString,D3DXVECTOR3,std::less<ioHashString>,std::allocator<std::pair<ioHashString const ,D3DXVECTOR3> >,0> > >,bool>::_Pair_base<std::_Tree_iterator<std::_Tree_val<std::_Tmap_traits<ioHashString,D3DXVECTOR3,std::less<ioHashString>,std::allocator<std::pair<ioHashString const ,D3DXVECTOR3> >,0> > >,bool><std::_Tree_iterator<std::_Tree_val<std::_Tmap_traits<ioHashString,D3DXVECTOR3,std::less<ioHashString>,std::allocator<std::pair<ioHashString const ,D3DXVECTOR3> >,0> > > &,bool>, COMDAT
; _this$ = ecx

; 163  : 		{	// construct from moved values

  00000	55		 push	 ebp
  00001	8b ec		 mov	 ebp, esp
  00003	8b c1		 mov	 eax, ecx
  00005	8b 4d 08	 mov	 ecx, DWORD PTR __Val1$[ebp]
  00008	8b 09		 mov	 ecx, DWORD PTR [ecx]
  0000a	89 08		 mov	 DWORD PTR [eax], ecx
  0000c	8b 4d 0c	 mov	 ecx, DWORD PTR __Val2$[ebp]
  0000f	8a 09		 mov	 cl, BYTE PTR [ecx]
  00011	88 48 04	 mov	 BYTE PTR [eax+4], cl

; 164  : 		}

  00014	5d		 pop	 ebp
  00015	c2 08 00	 ret	 8
??$?0AAV?$_Tree_iterator@V?$_Tree_val@V?$_Tmap_traits@VioHashString@@UD3DXVECTOR3@@U?$less@VioHashString@@@std@@V?$allocator@U?$pair@$$CBVioHashString@@UD3DXVECTOR3@@@std@@@4@$0A@@std@@@std@@@std@@_N@?$_Pair_base@V?$_Tree_iterator@V?$_Tree_val@V?$_Tmap_traits@VioHashString@@UD3DXVECTOR3@@U?$less@VioHashString@@@std@@V?$allocator@U?$pair@$$CBVioHashString@@UD3DXVECTOR3@@@std@@@4@$0A@@std@@@std@@@std@@_N@std@@QAE@AAV?$_Tree_iterator@V?$_Tree_val@V?$_Tmap_traits@VioHashString@@UD3DXVECTOR3@@U?$less@VioHashString@@@std@@V?$allocator@U?$pair@$$CBVioHashString@@UD3DXVECTOR3@@@std@@@4@$0A@@std@@@std@@@1@$$QA_N@Z ENDP ; std::_Pair_base<std::_Tree_iterator<std::_Tree_val<std::_Tmap_traits<ioHashString,D3DXVECTOR3,std::less<ioHashString>,std::allocator<std::pair<ioHashString const ,D3DXVECTOR3> >,0> > >,bool>::_Pair_base<std::_Tree_iterator<std::_Tree_val<std::_Tmap_traits<ioHashString,D3DXVECTOR3,std::less<ioHashString>,std::allocator<std::pair<ioHashString const ,D3DXVECTOR3> >,0> > >,bool><std::_Tree_iterator<std::_Tree_val<std::_Tmap_traits<ioHashString,D3DXVECTOR3,std::less<ioHashString>,std::allocator<std::pair<ioHashString const ,D3DXVECTOR3> >,0> > > &,bool>
_TEXT	ENDS
PUBLIC	?destroy@?$allocator@UEntityGroupData@ioWorldMesh@@@std@@QAEXPAUEntityGroupData@ioWorldMesh@@@Z ; std::allocator<ioWorldMesh::EntityGroupData>::destroy
; Function compile flags: /Ogsp
; File c:\program files (x86)\microsoft visual studio 10.0\vc\include\xmemory
;	COMDAT ?destroy@?$allocator@UEntityGroupData@ioWorldMesh@@@std@@QAEXPAUEntityGroupData@ioWorldMesh@@@Z
_TEXT	SEGMENT
__Ptr$ = 8						; size = 4
?destroy@?$allocator@UEntityGroupData@ioWorldMesh@@@std@@QAEXPAUEntityGroupData@ioWorldMesh@@@Z PROC ; std::allocator<ioWorldMesh::EntityGroupData>::destroy, COMDAT
; _this$ = ecx

; 213  : 		_Destroy(_Ptr);
; 214  : 		}

  00000	c2 04 00	 ret	 4
?destroy@?$allocator@UEntityGroupData@ioWorldMesh@@@std@@QAEXPAUEntityGroupData@ioWorldMesh@@@Z ENDP ; std::allocator<ioWorldMesh::EntityGroupData>::destroy
_TEXT	ENDS
PUBLIC	?construct@?$allocator@UEntityGroupData@ioWorldMesh@@@std@@QAEXPAUEntityGroupData@ioWorldMesh@@$$QAU34@@Z ; std::allocator<ioWorldMesh::EntityGroupData>::construct
; Function compile flags: /Ogsp
;	COMDAT ?construct@?$allocator@UEntityGroupData@ioWorldMesh@@@std@@QAEXPAUEntityGroupData@ioWorldMesh@@$$QAU34@@Z
_TEXT	SEGMENT
__Ptr$ = 8						; size = 4
__Val$ = 12						; size = 4
?construct@?$allocator@UEntityGroupData@ioWorldMesh@@@std@@QAEXPAUEntityGroupData@ioWorldMesh@@$$QAU34@@Z PROC ; std::allocator<ioWorldMesh::EntityGroupData>::construct, COMDAT
; _this$ = ecx

; 201  : 		{	// construct object at _Ptr with value _Val

  00000	55		 push	 ebp
  00001	8b ec		 mov	 ebp, esp

; 202  : 		::new ((void _FARQ *)_Ptr) _Ty(_STD forward<_Ty>(_Val));

  00003	8b 45 08	 mov	 eax, DWORD PTR __Ptr$[ebp]
  00006	85 c0		 test	 eax, eax
  00008	74 0d		 je	 SHORT $LN3@construct@4
  0000a	8b 4d 0c	 mov	 ecx, DWORD PTR __Val$[ebp]
  0000d	8b 11		 mov	 edx, DWORD PTR [ecx]
  0000f	89 10		 mov	 DWORD PTR [eax], edx
  00011	8b 49 04	 mov	 ecx, DWORD PTR [ecx+4]
  00014	89 48 04	 mov	 DWORD PTR [eax+4], ecx
$LN3@construct@4:

; 203  : 		}

  00017	5d		 pop	 ebp
  00018	c2 08 00	 ret	 8
?construct@?$allocator@UEntityGroupData@ioWorldMesh@@@std@@QAEXPAUEntityGroupData@ioWorldMesh@@$$QAU34@@Z ENDP ; std::allocator<ioWorldMesh::EntityGroupData>::construct
_TEXT	ENDS
PUBLIC	??0?$_Pair_base@$$CBVioHashString@@UD3DXVECTOR3@@@std@@QAE@$$QBVioHashString@@$$QAUD3DXVECTOR3@@@Z ; std::_Pair_base<ioHashString const ,D3DXVECTOR3>::_Pair_base<ioHashString const ,D3DXVECTOR3>
; Function compile flags: /Ogsp
; File c:\program files (x86)\microsoft visual studio 10.0\vc\include\utility
;	COMDAT ??0?$_Pair_base@$$CBVioHashString@@UD3DXVECTOR3@@@std@@QAE@$$QBVioHashString@@$$QAUD3DXVECTOR3@@@Z
_TEXT	SEGMENT
__Val1$ = 8						; size = 4
__Val2$ = 12						; size = 4
??0?$_Pair_base@$$CBVioHashString@@UD3DXVECTOR3@@@std@@QAE@$$QBVioHashString@@$$QAUD3DXVECTOR3@@@Z PROC ; std::_Pair_base<ioHashString const ,D3DXVECTOR3>::_Pair_base<ioHashString const ,D3DXVECTOR3>, COMDAT
; _this$ = ecx

; 145  : 		{	// construct from specified values

  00000	55		 push	 ebp
  00001	8b ec		 mov	 ebp, esp
  00003	53		 push	 ebx
  00004	56		 push	 esi
  00005	57		 push	 edi
  00006	ff 75 08	 push	 DWORD PTR __Val1$[ebp]
  00009	8b d9		 mov	 ebx, ecx
  0000b	ff 15 00 00 00
	00		 call	 DWORD PTR __imp_??0ioHashString@@QAE@ABV0@@Z
  00011	8b 75 0c	 mov	 esi, DWORD PTR __Val2$[ebp]
  00014	8d 7b 10	 lea	 edi, DWORD PTR [ebx+16]
  00017	a5		 movsd
  00018	a5		 movsd
  00019	a5		 movsd
  0001a	5f		 pop	 edi
  0001b	5e		 pop	 esi

; 146  : 		}

  0001c	8b c3		 mov	 eax, ebx
  0001e	5b		 pop	 ebx
  0001f	5d		 pop	 ebp
  00020	c2 08 00	 ret	 8
??0?$_Pair_base@$$CBVioHashString@@UD3DXVECTOR3@@@std@@QAE@$$QBVioHashString@@$$QAUD3DXVECTOR3@@@Z ENDP ; std::_Pair_base<ioHashString const ,D3DXVECTOR3>::_Pair_base<ioHashString const ,D3DXVECTOR3>
_TEXT	ENDS
PUBLIC	?begin@?$vector@VioHashString@@V?$allocator@VioHashString@@@std@@@std@@QAE?AV?$_Vector_iterator@V?$_Vector_val@VioHashString@@V?$allocator@VioHashString@@@std@@@std@@@2@XZ ; std::vector<ioHashString,std::allocator<ioHashString> >::begin
; Function compile flags: /Ogsp
; File c:\program files (x86)\microsoft visual studio 10.0\vc\include\vector
;	COMDAT ?begin@?$vector@VioHashString@@V?$allocator@VioHashString@@@std@@@std@@QAE?AV?$_Vector_iterator@V?$_Vector_val@VioHashString@@V?$allocator@VioHashString@@@std@@@std@@@2@XZ
_TEXT	SEGMENT
___$ReturnUdt$ = 8					; size = 4
?begin@?$vector@VioHashString@@V?$allocator@VioHashString@@@std@@@std@@QAE?AV?$_Vector_iterator@V?$_Vector_val@VioHashString@@V?$allocator@VioHashString@@@std@@@std@@@2@XZ PROC ; std::vector<ioHashString,std::allocator<ioHashString> >::begin, COMDAT
; _this$ = ecx

; 781  : 		{	// return iterator for beginning of mutable sequence

  00000	55		 push	 ebp
  00001	8b ec		 mov	 ebp, esp

; 782  : 		return (iterator(this->_Myfirst, this));

  00003	8b 09		 mov	 ecx, DWORD PTR [ecx]
  00005	8b 45 08	 mov	 eax, DWORD PTR ___$ReturnUdt$[ebp]
  00008	89 08		 mov	 DWORD PTR [eax], ecx

; 783  : 		}

  0000a	5d		 pop	 ebp
  0000b	c2 04 00	 ret	 4
?begin@?$vector@VioHashString@@V?$allocator@VioHashString@@@std@@@std@@QAE?AV?$_Vector_iterator@V?$_Vector_val@VioHashString@@V?$allocator@VioHashString@@@std@@@std@@@2@XZ ENDP ; std::vector<ioHashString,std::allocator<ioHashString> >::begin
_TEXT	ENDS
PUBLIC	?end@?$vector@VioHashString@@V?$allocator@VioHashString@@@std@@@std@@QAE?AV?$_Vector_iterator@V?$_Vector_val@VioHashString@@V?$allocator@VioHashString@@@std@@@std@@@2@XZ ; std::vector<ioHashString,std::allocator<ioHashString> >::end
; Function compile flags: /Ogsp
;	COMDAT ?end@?$vector@VioHashString@@V?$allocator@VioHashString@@@std@@@std@@QAE?AV?$_Vector_iterator@V?$_Vector_val@VioHashString@@V?$allocator@VioHashString@@@std@@@std@@@2@XZ
_TEXT	SEGMENT
___$ReturnUdt$ = 8					; size = 4
?end@?$vector@VioHashString@@V?$allocator@VioHashString@@@std@@@std@@QAE?AV?$_Vector_iterator@V?$_Vector_val@VioHashString@@V?$allocator@VioHashString@@@std@@@std@@@2@XZ PROC ; std::vector<ioHashString,std::allocator<ioHashString> >::end, COMDAT
; _this$ = ecx

; 791  : 		{	// return iterator for end of mutable sequence

  00000	55		 push	 ebp
  00001	8b ec		 mov	 ebp, esp

; 792  : 		return (iterator(this->_Mylast, this));

  00003	8b 49 04	 mov	 ecx, DWORD PTR [ecx+4]
  00006	8b 45 08	 mov	 eax, DWORD PTR ___$ReturnUdt$[ebp]
  00009	89 08		 mov	 DWORD PTR [eax], ecx

; 793  : 		}

  0000b	5d		 pop	 ebp
  0000c	c2 04 00	 ret	 4
?end@?$vector@VioHashString@@V?$allocator@VioHashString@@@std@@@std@@QAE?AV?$_Vector_iterator@V?$_Vector_val@VioHashString@@V?$allocator@VioHashString@@@std@@@std@@@2@XZ ENDP ; std::vector<ioHashString,std::allocator<ioHashString> >::end
_TEXT	ENDS
PUBLIC	??0?$_Vector_val@VioHashString@@V?$allocator@VioHashString@@@std@@@std@@QAE@V?$allocator@VioHashString@@@1@@Z ; std::_Vector_val<ioHashString,std::allocator<ioHashString> >::_Vector_val<ioHashString,std::allocator<ioHashString> >
; Function compile flags: /Ogsp
;	COMDAT ??0?$_Vector_val@VioHashString@@V?$allocator@VioHashString@@@std@@@std@@QAE@V?$allocator@VioHashString@@@1@@Z
_TEXT	SEGMENT
__Al$ = 8						; size = 1
??0?$_Vector_val@VioHashString@@V?$allocator@VioHashString@@@std@@@std@@QAE@V?$allocator@VioHashString@@@1@@Z PROC ; std::_Vector_val<ioHashString,std::allocator<ioHashString> >::_Vector_val<ioHashString,std::allocator<ioHashString> >, COMDAT
; _this$ = ecx

; 426  : 		{	// construct allocator from _Al

  00000	8b c1		 mov	 eax, ecx

; 427  : 		_Myfirst = 0;

  00002	33 c9		 xor	 ecx, ecx
  00004	89 08		 mov	 DWORD PTR [eax], ecx

; 428  : 		_Mylast = 0;

  00006	89 48 04	 mov	 DWORD PTR [eax+4], ecx

; 429  : 		_Myend = 0;

  00009	89 48 08	 mov	 DWORD PTR [eax+8], ecx

; 430  : 		}

  0000c	c2 04 00	 ret	 4
??0?$_Vector_val@VioHashString@@V?$allocator@VioHashString@@@std@@@std@@QAE@V?$allocator@VioHashString@@@1@@Z ENDP ; std::_Vector_val<ioHashString,std::allocator<ioHashString> >::_Vector_val<ioHashString,std::allocator<ioHashString> >
_TEXT	ENDS
PUBLIC	?_Make_iter@?$vector@VioHashString@@V?$allocator@VioHashString@@@std@@@std@@QBE?AV?$_Vector_iterator@V?$_Vector_val@VioHashString@@V?$allocator@VioHashString@@@std@@@std@@@2@V?$_Vector_const_iterator@V?$_Vector_val@VioHashString@@V?$allocator@VioHashString@@@std@@@std@@@2@@Z ; std::vector<ioHashString,std::allocator<ioHashString> >::_Make_iter
; Function compile flags: /Ogsp
;	COMDAT ?_Make_iter@?$vector@VioHashString@@V?$allocator@VioHashString@@@std@@@std@@QBE?AV?$_Vector_iterator@V?$_Vector_val@VioHashString@@V?$allocator@VioHashString@@@std@@@std@@@2@V?$_Vector_const_iterator@V?$_Vector_val@VioHashString@@V?$allocator@VioHashString@@@std@@@std@@@2@@Z
_TEXT	SEGMENT
___$ReturnUdt$ = 8					; size = 4
__Where$ = 12						; size = 4
?_Make_iter@?$vector@VioHashString@@V?$allocator@VioHashString@@@std@@@std@@QBE?AV?$_Vector_iterator@V?$_Vector_val@VioHashString@@V?$allocator@VioHashString@@@std@@@std@@@2@V?$_Vector_const_iterator@V?$_Vector_val@VioHashString@@V?$allocator@VioHashString@@@std@@@std@@@2@@Z PROC ; std::vector<ioHashString,std::allocator<ioHashString> >::_Make_iter, COMDAT
; _this$ = ecx

; 801  : 		{	// make iterator from const_iterator

  00000	55		 push	 ebp
  00001	8b ec		 mov	 ebp, esp

; 802  : 		return (iterator(_Where._Ptr, this));

  00003	8b 45 08	 mov	 eax, DWORD PTR ___$ReturnUdt$[ebp]
  00006	8b 4d 0c	 mov	 ecx, DWORD PTR __Where$[ebp]
  00009	89 08		 mov	 DWORD PTR [eax], ecx

; 803  : 		}

  0000b	5d		 pop	 ebp
  0000c	c2 08 00	 ret	 8
?_Make_iter@?$vector@VioHashString@@V?$allocator@VioHashString@@@std@@@std@@QBE?AV?$_Vector_iterator@V?$_Vector_val@VioHashString@@V?$allocator@VioHashString@@@std@@@std@@@2@V?$_Vector_const_iterator@V?$_Vector_val@VioHashString@@V?$allocator@VioHashString@@@std@@@std@@@2@@Z ENDP ; std::vector<ioHashString,std::allocator<ioHashString> >::_Make_iter
_TEXT	ENDS
PUBLIC	?max_size@?$vector@VioHashString@@V?$allocator@VioHashString@@@std@@@std@@QBEIXZ ; std::vector<ioHashString,std::allocator<ioHashString> >::max_size
; Function compile flags: /Ogsp
;	COMDAT ?max_size@?$vector@VioHashString@@V?$allocator@VioHashString@@@std@@@std@@QBEIXZ
_TEXT	SEGMENT
?max_size@?$vector@VioHashString@@V?$allocator@VioHashString@@@std@@@std@@QBEIXZ PROC ; std::vector<ioHashString,std::allocator<ioHashString> >::max_size, COMDAT
; _this$ = ecx

; 884  : 		return (this->_Alval.max_size());

  00000	b8 ff ff ff 0f	 mov	 eax, 268435455		; 0fffffffH

; 885  : 		}

  00005	c3		 ret	 0
?max_size@?$vector@VioHashString@@V?$allocator@VioHashString@@@std@@@std@@QBEIXZ ENDP ; std::vector<ioHashString,std::allocator<ioHashString> >::max_size
_TEXT	ENDS
PUBLIC	?allocate@?$allocator@VioHashString@@@std@@QAEPAVioHashString@@I@Z ; std::allocator<ioHashString>::allocate
; Function compile flags: /Ogsp
; File c:\program files (x86)\microsoft visual studio 10.0\vc\include\xmemory
;	COMDAT ?allocate@?$allocator@VioHashString@@@std@@QAEPAVioHashString@@I@Z
_TEXT	SEGMENT
__Count$ = 8						; size = 4
?allocate@?$allocator@VioHashString@@@std@@QAEPAVioHashString@@I@Z PROC ; std::allocator<ioHashString>::allocate, COMDAT
; _this$ = ecx

; 186  : 		{	// allocate array of _Count elements

  00000	55		 push	 ebp
  00001	8b ec		 mov	 ebp, esp

; 187  : 		return (_Allocate(_Count, (pointer)0));

  00003	6a 00		 push	 0
  00005	ff 75 08	 push	 DWORD PTR __Count$[ebp]
  00008	e8 00 00 00 00	 call	 ??$_Allocate@VioHashString@@@std@@YAPAVioHashString@@IPAV1@@Z ; std::_Allocate<ioHashString>
  0000d	59		 pop	 ecx
  0000e	59		 pop	 ecx

; 188  : 		}

  0000f	5d		 pop	 ebp
  00010	c2 04 00	 ret	 4
?allocate@?$allocator@VioHashString@@@std@@QAEPAVioHashString@@I@Z ENDP ; std::allocator<ioHashString>::allocate
_TEXT	ENDS
PUBLIC	??8?$_Vector_const_iterator@V?$_Vector_val@VioHashString@@V?$allocator@VioHashString@@@std@@@std@@@std@@QBE_NABV01@@Z ; std::_Vector_const_iterator<std::_Vector_val<ioHashString,std::allocator<ioHashString> > >::operator==
; Function compile flags: /Ogsp
; File c:\program files (x86)\microsoft visual studio 10.0\vc\include\vector
;	COMDAT ??8?$_Vector_const_iterator@V?$_Vector_val@VioHashString@@V?$allocator@VioHashString@@@std@@@std@@@std@@QBE_NABV01@@Z
_TEXT	SEGMENT
__Right$ = 8						; size = 4
??8?$_Vector_const_iterator@V?$_Vector_val@VioHashString@@V?$allocator@VioHashString@@@std@@@std@@@std@@QBE_NABV01@@Z PROC ; std::_Vector_const_iterator<std::_Vector_val<ioHashString,std::allocator<ioHashString> > >::operator==, COMDAT
; _this$ = ecx

; 201  : 		{	// test for iterator equality

  00000	55		 push	 ebp
  00001	8b ec		 mov	 ebp, esp

; 202  : 		_Compat(_Right);
; 203  : 		return (this->_Ptr == _Right._Ptr);

  00003	8b 01		 mov	 eax, DWORD PTR [ecx]
  00005	8b 4d 08	 mov	 ecx, DWORD PTR __Right$[ebp]
  00008	2b 01		 sub	 eax, DWORD PTR [ecx]
  0000a	f7 d8		 neg	 eax
  0000c	1b c0		 sbb	 eax, eax
  0000e	40		 inc	 eax

; 204  : 		}

  0000f	5d		 pop	 ebp
  00010	c2 04 00	 ret	 4
??8?$_Vector_const_iterator@V?$_Vector_val@VioHashString@@V?$allocator@VioHashString@@@std@@@std@@@std@@QBE_NABV01@@Z ENDP ; std::_Vector_const_iterator<std::_Vector_val<ioHashString,std::allocator<ioHashString> > >::operator==
_TEXT	ENDS
PUBLIC	??$swap@D@std@@YAXAAD0@Z			; std::swap<char>
; Function compile flags: /Ogsp
; File c:\program files (x86)\microsoft visual studio 10.0\vc\include\utility
;	COMDAT ??$swap@D@std@@YAXAAD0@Z
_TEXT	SEGMENT
__Left$ = 8						; size = 4
__Right$ = 12						; size = 4
??$swap@D@std@@YAXAAD0@Z PROC				; std::swap<char>, COMDAT

; 101  : 	{	// exchange values stored at _Left and _Right

  00000	55		 push	 ebp
  00001	8b ec		 mov	 ebp, esp

; 102  : 	_Ty _Tmp = _Move(_Left);

  00003	8b 45 08	 mov	 eax, DWORD PTR __Left$[ebp]
  00006	8a 08		 mov	 cl, BYTE PTR [eax]
  00008	56		 push	 esi

; 103  : 	_Left = _Move(_Right);

  00009	8b 75 0c	 mov	 esi, DWORD PTR __Right$[ebp]
  0000c	8a 16		 mov	 dl, BYTE PTR [esi]
  0000e	88 10		 mov	 BYTE PTR [eax], dl

; 104  : 	_Right = _Move(_Tmp);

  00010	88 0e		 mov	 BYTE PTR [esi], cl
  00012	5e		 pop	 esi

; 105  : 	}

  00013	5d		 pop	 ebp
  00014	c3		 ret	 0
??$swap@D@std@@YAXAAD0@Z ENDP				; std::swap<char>
_TEXT	ENDS
PUBLIC	??$_Move@PAVioHashString@@PAV1@@std@@YAPAVioHashString@@PAV1@00U_Nonscalar_ptr_iterator_tag@0@@Z ; std::_Move<ioHashString *,ioHashString *>
EXTRN	__imp_??4ioHashString@@QAEAAV0@ABV0@@Z:PROC
; Function compile flags: /Ogsp
; File c:\program files (x86)\microsoft visual studio 10.0\vc\include\xutility
;	COMDAT ??$_Move@PAVioHashString@@PAV1@@std@@YAPAVioHashString@@PAV1@00U_Nonscalar_ptr_iterator_tag@0@@Z
_TEXT	SEGMENT
__First$ = 8						; size = 4
__Last$ = 12						; size = 4
__Dest$ = 16						; size = 4
___formal$ = 20						; size = 1
??$_Move@PAVioHashString@@PAV1@@std@@YAPAVioHashString@@PAV1@00U_Nonscalar_ptr_iterator_tag@0@@Z PROC ; std::_Move<ioHashString *,ioHashString *>, COMDAT

; 2512 : 	{	// move [_First, _Last) to [_Dest, ...), arbitrary iterators

  00000	55		 push	 ebp
  00001	8b ec		 mov	 ebp, esp
  00003	56		 push	 esi

; 2513 : 	for (; _First != _Last; ++_Dest, ++_First)

  00004	8b 75 08	 mov	 esi, DWORD PTR __First$[ebp]
  00007	eb 11		 jmp	 SHORT $LN11@Move@2
$LL3@Move@2:

; 2514 : 		*_Dest = _STD move(*_First);

  00009	8b 4d 10	 mov	 ecx, DWORD PTR __Dest$[ebp]
  0000c	56		 push	 esi
  0000d	ff 15 00 00 00
	00		 call	 DWORD PTR __imp_??4ioHashString@@QAEAAV0@ABV0@@Z
  00013	83 45 10 10	 add	 DWORD PTR __Dest$[ebp], 16 ; 00000010H
  00017	83 c6 10	 add	 esi, 16			; 00000010H
$LN11@Move@2:

; 2513 : 	for (; _First != _Last; ++_Dest, ++_First)

  0001a	3b 75 0c	 cmp	 esi, DWORD PTR __Last$[ebp]
  0001d	75 ea		 jne	 SHORT $LL3@Move@2

; 2515 : 	return (_Dest);

  0001f	8b 45 10	 mov	 eax, DWORD PTR __Dest$[ebp]
  00022	5e		 pop	 esi

; 2516 : 	}

  00023	5d		 pop	 ebp
  00024	c3		 ret	 0
??$_Move@PAVioHashString@@PAV1@@std@@YAPAVioHashString@@PAV1@00U_Nonscalar_ptr_iterator_tag@0@@Z ENDP ; std::_Move<ioHashString *,ioHashString *>
_TEXT	ENDS
PUBLIC	??$_Destroy@VioHashString@@@std@@YAXPAVioHashString@@@Z ; std::_Destroy<ioHashString>
; Function compile flags: /Ogsp
; File c:\program files (x86)\microsoft visual studio 10.0\vc\include\xmemory
;	COMDAT ??$_Destroy@VioHashString@@@std@@YAXPAVioHashString@@@Z
_TEXT	SEGMENT
__Ptr$ = 8						; size = 4
??$_Destroy@VioHashString@@@std@@YAXPAVioHashString@@@Z PROC ; std::_Destroy<ioHashString>, COMDAT

; 62   : 	{	// destroy object at _Ptr

  00000	55		 push	 ebp
  00001	8b ec		 mov	 ebp, esp

; 63   : 	_Ptr->~_Ty();

  00003	8b 4d 08	 mov	 ecx, DWORD PTR __Ptr$[ebp]

; 64   : 	}

  00006	5d		 pop	 ebp

; 63   : 	_Ptr->~_Ty();

  00007	ff 25 00 00 00
	00		 jmp	 DWORD PTR __imp_??1ioHashString@@QAE@XZ
??$_Destroy@VioHashString@@@std@@YAXPAVioHashString@@@Z ENDP ; std::_Destroy<ioHashString>
_TEXT	ENDS
PUBLIC	??0?$vector@UEntityGroupData@ioWorldMesh@@V?$allocator@UEntityGroupData@ioWorldMesh@@@std@@@std@@QAE@XZ ; std::vector<ioWorldMesh::EntityGroupData,std::allocator<ioWorldMesh::EntityGroupData> >::vector<ioWorldMesh::EntityGroupData,std::allocator<ioWorldMesh::EntityGroupData> >
; Function compile flags: /Ogsp
; File c:\program files (x86)\microsoft visual studio 10.0\vc\include\vector
;	COMDAT ??0?$vector@UEntityGroupData@ioWorldMesh@@V?$allocator@UEntityGroupData@ioWorldMesh@@@std@@@std@@QAE@XZ
_TEXT	SEGMENT
??0?$vector@UEntityGroupData@ioWorldMesh@@V?$allocator@UEntityGroupData@ioWorldMesh@@@std@@@std@@QAE@XZ PROC ; std::vector<ioWorldMesh::EntityGroupData,std::allocator<ioWorldMesh::EntityGroupData> >::vector<ioWorldMesh::EntityGroupData,std::allocator<ioWorldMesh::EntityGroupData> >, COMDAT
; _this$ = ecx

; 507  : 		{	// construct empty vector

  00000	8b c1		 mov	 eax, ecx
  00002	33 c9		 xor	 ecx, ecx
  00004	89 08		 mov	 DWORD PTR [eax], ecx
  00006	89 48 04	 mov	 DWORD PTR [eax+4], ecx
  00009	89 48 08	 mov	 DWORD PTR [eax+8], ecx

; 508  : 		}

  0000c	c3		 ret	 0
??0?$vector@UEntityGroupData@ioWorldMesh@@V?$allocator@UEntityGroupData@ioWorldMesh@@@std@@@std@@QAE@XZ ENDP ; std::vector<ioWorldMesh::EntityGroupData,std::allocator<ioWorldMesh::EntityGroupData> >::vector<ioWorldMesh::EntityGroupData,std::allocator<ioWorldMesh::EntityGroupData> >
_TEXT	ENDS
PUBLIC	?begin@?$vector@UEntityGroupData@ioWorldMesh@@V?$allocator@UEntityGroupData@ioWorldMesh@@@std@@@std@@QAE?AV?$_Vector_iterator@V?$_Vector_val@UEntityGroupData@ioWorldMesh@@V?$allocator@UEntityGroupData@ioWorldMesh@@@std@@@std@@@2@XZ ; std::vector<ioWorldMesh::EntityGroupData,std::allocator<ioWorldMesh::EntityGroupData> >::begin
; Function compile flags: /Ogsp
;	COMDAT ?begin@?$vector@UEntityGroupData@ioWorldMesh@@V?$allocator@UEntityGroupData@ioWorldMesh@@@std@@@std@@QAE?AV?$_Vector_iterator@V?$_Vector_val@UEntityGroupData@ioWorldMesh@@V?$allocator@UEntityGroupData@ioWorldMesh@@@std@@@std@@@2@XZ
_TEXT	SEGMENT
___$ReturnUdt$ = 8					; size = 4
?begin@?$vector@UEntityGroupData@ioWorldMesh@@V?$allocator@UEntityGroupData@ioWorldMesh@@@std@@@std@@QAE?AV?$_Vector_iterator@V?$_Vector_val@UEntityGroupData@ioWorldMesh@@V?$allocator@UEntityGroupData@ioWorldMesh@@@std@@@std@@@2@XZ PROC ; std::vector<ioWorldMesh::EntityGroupData,std::allocator<ioWorldMesh::EntityGroupData> >::begin, COMDAT
; _this$ = ecx

; 781  : 		{	// return iterator for beginning of mutable sequence

  00000	55		 push	 ebp
  00001	8b ec		 mov	 ebp, esp

; 782  : 		return (iterator(this->_Myfirst, this));

  00003	8b 09		 mov	 ecx, DWORD PTR [ecx]
  00005	8b 45 08	 mov	 eax, DWORD PTR ___$ReturnUdt$[ebp]
  00008	89 08		 mov	 DWORD PTR [eax], ecx

; 783  : 		}

  0000a	5d		 pop	 ebp
  0000b	c2 04 00	 ret	 4
?begin@?$vector@UEntityGroupData@ioWorldMesh@@V?$allocator@UEntityGroupData@ioWorldMesh@@@std@@@std@@QAE?AV?$_Vector_iterator@V?$_Vector_val@UEntityGroupData@ioWorldMesh@@V?$allocator@UEntityGroupData@ioWorldMesh@@@std@@@std@@@2@XZ ENDP ; std::vector<ioWorldMesh::EntityGroupData,std::allocator<ioWorldMesh::EntityGroupData> >::begin
_TEXT	ENDS
PUBLIC	?end@?$vector@UEntityGroupData@ioWorldMesh@@V?$allocator@UEntityGroupData@ioWorldMesh@@@std@@@std@@QAE?AV?$_Vector_iterator@V?$_Vector_val@UEntityGroupData@ioWorldMesh@@V?$allocator@UEntityGroupData@ioWorldMesh@@@std@@@std@@@2@XZ ; std::vector<ioWorldMesh::EntityGroupData,std::allocator<ioWorldMesh::EntityGroupData> >::end
; Function compile flags: /Ogsp
;	COMDAT ?end@?$vector@UEntityGroupData@ioWorldMesh@@V?$allocator@UEntityGroupData@ioWorldMesh@@@std@@@std@@QAE?AV?$_Vector_iterator@V?$_Vector_val@UEntityGroupData@ioWorldMesh@@V?$allocator@UEntityGroupData@ioWorldMesh@@@std@@@std@@@2@XZ
_TEXT	SEGMENT
___$ReturnUdt$ = 8					; size = 4
?end@?$vector@UEntityGroupData@ioWorldMesh@@V?$allocator@UEntityGroupData@ioWorldMesh@@@std@@@std@@QAE?AV?$_Vector_iterator@V?$_Vector_val@UEntityGroupData@ioWorldMesh@@V?$allocator@UEntityGroupData@ioWorldMesh@@@std@@@std@@@2@XZ PROC ; std::vector<ioWorldMesh::EntityGroupData,std::allocator<ioWorldMesh::EntityGroupData> >::end, COMDAT
; _this$ = ecx

; 791  : 		{	// return iterator for end of mutable sequence

  00000	55		 push	 ebp
  00001	8b ec		 mov	 ebp, esp

; 792  : 		return (iterator(this->_Mylast, this));

  00003	8b 49 04	 mov	 ecx, DWORD PTR [ecx+4]
  00006	8b 45 08	 mov	 eax, DWORD PTR ___$ReturnUdt$[ebp]
  00009	89 08		 mov	 DWORD PTR [eax], ecx

; 793  : 		}

  0000b	5d		 pop	 ebp
  0000c	c2 04 00	 ret	 4
?end@?$vector@UEntityGroupData@ioWorldMesh@@V?$allocator@UEntityGroupData@ioWorldMesh@@@std@@@std@@QAE?AV?$_Vector_iterator@V?$_Vector_val@UEntityGroupData@ioWorldMesh@@V?$allocator@UEntityGroupData@ioWorldMesh@@@std@@@std@@@2@XZ ENDP ; std::vector<ioWorldMesh::EntityGroupData,std::allocator<ioWorldMesh::EntityGroupData> >::end
_TEXT	ENDS
PUBLIC	??9?$_Vector_const_iterator@V?$_Vector_val@UEntityGroupData@ioWorldMesh@@V?$allocator@UEntityGroupData@ioWorldMesh@@@std@@@std@@@std@@QBE_NABV01@@Z ; std::_Vector_const_iterator<std::_Vector_val<ioWorldMesh::EntityGroupData,std::allocator<ioWorldMesh::EntityGroupData> > >::operator!=
; Function compile flags: /Ogsp
;	COMDAT ??9?$_Vector_const_iterator@V?$_Vector_val@UEntityGroupData@ioWorldMesh@@V?$allocator@UEntityGroupData@ioWorldMesh@@@std@@@std@@@std@@QBE_NABV01@@Z
_TEXT	SEGMENT
__Right$ = 8						; size = 4
??9?$_Vector_const_iterator@V?$_Vector_val@UEntityGroupData@ioWorldMesh@@V?$allocator@UEntityGroupData@ioWorldMesh@@@std@@@std@@@std@@QBE_NABV01@@Z PROC ; std::_Vector_const_iterator<std::_Vector_val<ioWorldMesh::EntityGroupData,std::allocator<ioWorldMesh::EntityGroupData> > >::operator!=, COMDAT
; _this$ = ecx

; 207  : 		{	// test for iterator inequality

  00000	55		 push	 ebp
  00001	8b ec		 mov	 ebp, esp

; 208  : 		return (!(*this == _Right));

  00003	8b 01		 mov	 eax, DWORD PTR [ecx]
  00005	8b 55 08	 mov	 edx, DWORD PTR __Right$[ebp]
  00008	33 c9		 xor	 ecx, ecx
  0000a	3b 02		 cmp	 eax, DWORD PTR [edx]
  0000c	0f 95 c0	 setne	 al

; 209  : 		}

  0000f	5d		 pop	 ebp
  00010	c2 04 00	 ret	 4
??9?$_Vector_const_iterator@V?$_Vector_val@UEntityGroupData@ioWorldMesh@@V?$allocator@UEntityGroupData@ioWorldMesh@@@std@@@std@@@std@@QBE_NABV01@@Z ENDP ; std::_Vector_const_iterator<std::_Vector_val<ioWorldMesh::EntityGroupData,std::allocator<ioWorldMesh::EntityGroupData> > >::operator!=
_TEXT	ENDS
PUBLIC	??C?$_Tree_iterator@V?$_Tree_val@V?$_Tmap_traits@VioHashString@@UD3DXVECTOR3@@U?$less@VioHashString@@@std@@V?$allocator@U?$pair@$$CBVioHashString@@UD3DXVECTOR3@@@std@@@4@$0A@@std@@@std@@@std@@QBEPAU?$pair@$$CBVioHashString@@UD3DXVECTOR3@@@1@XZ ; std::_Tree_iterator<std::_Tree_val<std::_Tmap_traits<ioHashString,D3DXVECTOR3,std::less<ioHashString>,std::allocator<std::pair<ioHashString const ,D3DXVECTOR3> >,0> > >::operator->
; Function compile flags: /Ogsp
; File c:\program files (x86)\microsoft visual studio 10.0\vc\include\xtree
;	COMDAT ??C?$_Tree_iterator@V?$_Tree_val@V?$_Tmap_traits@VioHashString@@UD3DXVECTOR3@@U?$less@VioHashString@@@std@@V?$allocator@U?$pair@$$CBVioHashString@@UD3DXVECTOR3@@@std@@@4@$0A@@std@@@std@@@std@@QBEPAU?$pair@$$CBVioHashString@@UD3DXVECTOR3@@@1@XZ
_TEXT	SEGMENT
??C?$_Tree_iterator@V?$_Tree_val@V?$_Tmap_traits@VioHashString@@UD3DXVECTOR3@@U?$less@VioHashString@@@std@@V?$allocator@U?$pair@$$CBVioHashString@@UD3DXVECTOR3@@@std@@@4@$0A@@std@@@std@@@std@@QBEPAU?$pair@$$CBVioHashString@@UD3DXVECTOR3@@@1@XZ PROC ; std::_Tree_iterator<std::_Tree_val<std::_Tmap_traits<ioHashString,D3DXVECTOR3,std::less<ioHashString>,std::allocator<std::pair<ioHashString const ,D3DXVECTOR3> >,0> > >::operator->, COMDAT
; _this$ = ecx

; 401  : 		return (&**this);

  00000	8b 01		 mov	 eax, DWORD PTR [ecx]
  00002	83 c0 0c	 add	 eax, 12			; 0000000cH

; 402  : 		}

  00005	c3		 ret	 0
??C?$_Tree_iterator@V?$_Tree_val@V?$_Tmap_traits@VioHashString@@UD3DXVECTOR3@@U?$less@VioHashString@@@std@@V?$allocator@U?$pair@$$CBVioHashString@@UD3DXVECTOR3@@@std@@@4@$0A@@std@@@std@@@std@@QBEPAU?$pair@$$CBVioHashString@@UD3DXVECTOR3@@@1@XZ ENDP ; std::_Tree_iterator<std::_Tree_val<std::_Tmap_traits<ioHashString,D3DXVECTOR3,std::less<ioHashString>,std::allocator<std::pair<ioHashString const ,D3DXVECTOR3> >,0> > >::operator->
_TEXT	ENDS
PUBLIC	??0?$_Tree_iterator@V?$_Tree_val@V?$_Tmap_traits@VioHashString@@UD3DXVECTOR3@@U?$less@VioHashString@@@std@@V?$allocator@U?$pair@$$CBVioHashString@@UD3DXVECTOR3@@@std@@@4@$0A@@std@@@std@@@std@@QAE@PAU_Node@?$_Tree_nod@V?$_Tmap_traits@VioHashString@@UD3DXVECTOR3@@U?$less@VioHashString@@@std@@V?$allocator@U?$pair@$$CBVioHashString@@UD3DXVECTOR3@@@std@@@4@$0A@@std@@@1@PBV?$_Tree_val@V?$_Tmap_traits@VioHashString@@UD3DXVECTOR3@@U?$less@VioHashString@@@std@@V?$allocator@U?$pair@$$CBVioHashString@@UD3DXVECTOR3@@@std@@@4@$0A@@std@@@1@@Z ; std::_Tree_iterator<std::_Tree_val<std::_Tmap_traits<ioHashString,D3DXVECTOR3,std::less<ioHashString>,std::allocator<std::pair<ioHashString const ,D3DXVECTOR3> >,0> > >::_Tree_iterator<std::_Tree_val<std::_Tmap_traits<ioHashString,D3DXVECTOR3,std::less<ioHashString>,std::allocator<std::pair<ioHashString const ,D3DXVECTOR3> >,0> > >
; Function compile flags: /Ogsp
;	COMDAT ??0?$_Tree_iterator@V?$_Tree_val@V?$_Tmap_traits@VioHashString@@UD3DXVECTOR3@@U?$less@VioHashString@@@std@@V?$allocator@U?$pair@$$CBVioHashString@@UD3DXVECTOR3@@@std@@@4@$0A@@std@@@std@@@std@@QAE@PAU_Node@?$_Tree_nod@V?$_Tmap_traits@VioHashString@@UD3DXVECTOR3@@U?$less@VioHashString@@@std@@V?$allocator@U?$pair@$$CBVioHashString@@UD3DXVECTOR3@@@std@@@4@$0A@@std@@@1@PBV?$_Tree_val@V?$_Tmap_traits@VioHashString@@UD3DXVECTOR3@@U?$less@VioHashString@@@std@@V?$allocator@U?$pair@$$CBVioHashString@@UD3DXVECTOR3@@@std@@@4@$0A@@std@@@1@@Z
_TEXT	SEGMENT
__Pnode$ = 8						; size = 4
__Plist$ = 12						; size = 4
??0?$_Tree_iterator@V?$_Tree_val@V?$_Tmap_traits@VioHashString@@UD3DXVECTOR3@@U?$less@VioHashString@@@std@@V?$allocator@U?$pair@$$CBVioHashString@@UD3DXVECTOR3@@@std@@@4@$0A@@std@@@std@@@std@@QAE@PAU_Node@?$_Tree_nod@V?$_Tmap_traits@VioHashString@@UD3DXVECTOR3@@U?$less@VioHashString@@@std@@V?$allocator@U?$pair@$$CBVioHashString@@UD3DXVECTOR3@@@std@@@4@$0A@@std@@@1@PBV?$_Tree_val@V?$_Tmap_traits@VioHashString@@UD3DXVECTOR3@@U?$less@VioHashString@@@std@@V?$allocator@U?$pair@$$CBVioHashString@@UD3DXVECTOR3@@@std@@@4@$0A@@std@@@1@@Z PROC ; std::_Tree_iterator<std::_Tree_val<std::_Tmap_traits<ioHashString,D3DXVECTOR3,std::less<ioHashString>,std::allocator<std::pair<ioHashString const ,D3DXVECTOR3> >,0> > >::_Tree_iterator<std::_Tree_val<std::_Tmap_traits<ioHashString,D3DXVECTOR3,std::less<ioHashString>,std::allocator<std::pair<ioHashString const ,D3DXVECTOR3> >,0> > >, COMDAT
; _this$ = ecx

; 378  : 		{	// construct with node pointer _Pnode

  00000	55		 push	 ebp
  00001	8b ec		 mov	 ebp, esp
  00003	8b c1		 mov	 eax, ecx
  00005	8b 4d 08	 mov	 ecx, DWORD PTR __Pnode$[ebp]
  00008	89 08		 mov	 DWORD PTR [eax], ecx

; 379  : 		}

  0000a	5d		 pop	 ebp
  0000b	c2 08 00	 ret	 8
??0?$_Tree_iterator@V?$_Tree_val@V?$_Tmap_traits@VioHashString@@UD3DXVECTOR3@@U?$less@VioHashString@@@std@@V?$allocator@U?$pair@$$CBVioHashString@@UD3DXVECTOR3@@@std@@@4@$0A@@std@@@std@@@std@@QAE@PAU_Node@?$_Tree_nod@V?$_Tmap_traits@VioHashString@@UD3DXVECTOR3@@U?$less@VioHashString@@@std@@V?$allocator@U?$pair@$$CBVioHashString@@UD3DXVECTOR3@@@std@@@4@$0A@@std@@@1@PBV?$_Tree_val@V?$_Tmap_traits@VioHashString@@UD3DXVECTOR3@@U?$less@VioHashString@@@std@@V?$allocator@U?$pair@$$CBVioHashString@@UD3DXVECTOR3@@@std@@@4@$0A@@std@@@1@@Z ENDP ; std::_Tree_iterator<std::_Tree_val<std::_Tmap_traits<ioHashString,D3DXVECTOR3,std::less<ioHashString>,std::allocator<std::pair<ioHashString const ,D3DXVECTOR3> >,0> > >::_Tree_iterator<std::_Tree_val<std::_Tmap_traits<ioHashString,D3DXVECTOR3,std::less<ioHashString>,std::allocator<std::pair<ioHashString const ,D3DXVECTOR3> >,0> > >
_TEXT	ENDS
PUBLIC	??0?$pair@$$CBVioHashString@@UD3DXVECTOR3@@@std@@QAE@ABVioHashString@@$$QAUD3DXVECTOR3@@@Z ; std::pair<ioHashString const ,D3DXVECTOR3>::pair<ioHashString const ,D3DXVECTOR3>
; Function compile flags: /Ogsp
; File c:\program files (x86)\microsoft visual studio 10.0\vc\include\utility
;	COMDAT ??0?$pair@$$CBVioHashString@@UD3DXVECTOR3@@@std@@QAE@ABVioHashString@@$$QAUD3DXVECTOR3@@@Z
_TEXT	SEGMENT
__Val1$ = 8						; size = 4
__Val2$ = 12						; size = 4
??0?$pair@$$CBVioHashString@@UD3DXVECTOR3@@@std@@QAE@ABVioHashString@@$$QAUD3DXVECTOR3@@@Z PROC ; std::pair<ioHashString const ,D3DXVECTOR3>::pair<ioHashString const ,D3DXVECTOR3>, COMDAT
; _this$ = ecx

; 233  : 		{	// construct from specified values

  00000	55		 push	 ebp
  00001	8b ec		 mov	 ebp, esp
  00003	53		 push	 ebx
  00004	56		 push	 esi
  00005	57		 push	 edi
  00006	ff 75 08	 push	 DWORD PTR __Val1$[ebp]
  00009	8b d9		 mov	 ebx, ecx
  0000b	ff 15 00 00 00
	00		 call	 DWORD PTR __imp_??0ioHashString@@QAE@ABV0@@Z
  00011	8b 75 0c	 mov	 esi, DWORD PTR __Val2$[ebp]
  00014	8d 7b 10	 lea	 edi, DWORD PTR [ebx+16]
  00017	a5		 movsd
  00018	a5		 movsd
  00019	a5		 movsd
  0001a	5f		 pop	 edi
  0001b	5e		 pop	 esi

; 234  : 		}

  0001c	8b c3		 mov	 eax, ebx
  0001e	5b		 pop	 ebx
  0001f	5d		 pop	 ebp
  00020	c2 08 00	 ret	 8
??0?$pair@$$CBVioHashString@@UD3DXVECTOR3@@@std@@QAE@ABVioHashString@@$$QAUD3DXVECTOR3@@@Z ENDP ; std::pair<ioHashString const ,D3DXVECTOR3>::pair<ioHashString const ,D3DXVECTOR3>
_TEXT	ENDS
PUBLIC	?_Grow_to@?$vector@VioHashString@@V?$allocator@VioHashString@@@std@@@std@@IBEII@Z ; std::vector<ioHashString,std::allocator<ioHashString> >::_Grow_to
; Function compile flags: /Ogsp
; File c:\program files (x86)\microsoft visual studio 10.0\vc\include\vector
;	COMDAT ?_Grow_to@?$vector@VioHashString@@V?$allocator@VioHashString@@@std@@@std@@IBEII@Z
_TEXT	SEGMENT
__Count$ = 8						; size = 4
?_Grow_to@?$vector@VioHashString@@V?$allocator@VioHashString@@@std@@@std@@IBEII@Z PROC ; std::vector<ioHashString,std::allocator<ioHashString> >::_Grow_to, COMDAT
; _this$ = ecx

; 1274 : 		{	// grow by 50% or at least to _Count

  00000	55		 push	 ebp
  00001	8b ec		 mov	 ebp, esp

; 1275 : 		size_type _Capacity = capacity();

  00003	8b 41 08	 mov	 eax, DWORD PTR [ecx+8]
  00006	2b 01		 sub	 eax, DWORD PTR [ecx]

; 1276 : 
; 1277 : 		_Capacity = max_size() - _Capacity / 2 < _Capacity
; 1278 : 			? 0 : _Capacity + _Capacity / 2;	// try to grow by 50%

  00008	ba ff ff ff 0f	 mov	 edx, 268435455		; 0fffffffH
  0000d	c1 f8 04	 sar	 eax, 4
  00010	8b c8		 mov	 ecx, eax
  00012	d1 e9		 shr	 ecx, 1
  00014	2b d1		 sub	 edx, ecx
  00016	3b d0		 cmp	 edx, eax
  00018	73 04		 jae	 SHORT $LN4@Grow_to@2
  0001a	33 c0		 xor	 eax, eax
  0001c	eb 02		 jmp	 SHORT $LN5@Grow_to@2
$LN4@Grow_to@2:
  0001e	03 c1		 add	 eax, ecx
$LN5@Grow_to@2:

; 1279 : 		if (_Capacity < _Count)

  00020	3b 45 08	 cmp	 eax, DWORD PTR __Count$[ebp]

; 1280 : 			_Capacity = _Count;

  00023	0f 42 45 08	 cmovb	 eax, DWORD PTR __Count$[ebp]

; 1281 : 		return (_Capacity);
; 1282 : 		}

  00027	5d		 pop	 ebp
  00028	c2 04 00	 ret	 4
?_Grow_to@?$vector@VioHashString@@V?$allocator@VioHashString@@@std@@@std@@IBEII@Z ENDP ; std::vector<ioHashString,std::allocator<ioHashString> >::_Grow_to
_TEXT	ENDS
PUBLIC	?begin@?$_Tree@V?$_Tmap_traits@VioHashString@@UD3DXVECTOR3@@U?$less@VioHashString@@@std@@V?$allocator@U?$pair@$$CBVioHashString@@UD3DXVECTOR3@@@std@@@4@$0A@@std@@@std@@QAE?AV?$_Tree_iterator@V?$_Tree_val@V?$_Tmap_traits@VioHashString@@UD3DXVECTOR3@@U?$less@VioHashString@@@std@@V?$allocator@U?$pair@$$CBVioHashString@@UD3DXVECTOR3@@@std@@@4@$0A@@std@@@std@@@2@XZ ; std::_Tree<std::_Tmap_traits<ioHashString,D3DXVECTOR3,std::less<ioHashString>,std::allocator<std::pair<ioHashString const ,D3DXVECTOR3> >,0> >::begin
; Function compile flags: /Ogsp
; File c:\program files (x86)\microsoft visual studio 10.0\vc\include\xtree
;	COMDAT ?begin@?$_Tree@V?$_Tmap_traits@VioHashString@@UD3DXVECTOR3@@U?$less@VioHashString@@@std@@V?$allocator@U?$pair@$$CBVioHashString@@UD3DXVECTOR3@@@std@@@4@$0A@@std@@@std@@QAE?AV?$_Tree_iterator@V?$_Tree_val@V?$_Tmap_traits@VioHashString@@UD3DXVECTOR3@@U?$less@VioHashString@@@std@@V?$allocator@U?$pair@$$CBVioHashString@@UD3DXVECTOR3@@@std@@@4@$0A@@std@@@std@@@2@XZ
_TEXT	SEGMENT
___$ReturnUdt$ = 8					; size = 4
?begin@?$_Tree@V?$_Tmap_traits@VioHashString@@UD3DXVECTOR3@@U?$less@VioHashString@@@std@@V?$allocator@U?$pair@$$CBVioHashString@@UD3DXVECTOR3@@@std@@@4@$0A@@std@@@std@@QAE?AV?$_Tree_iterator@V?$_Tree_val@V?$_Tmap_traits@VioHashString@@UD3DXVECTOR3@@U?$less@VioHashString@@@std@@V?$allocator@U?$pair@$$CBVioHashString@@UD3DXVECTOR3@@@std@@@4@$0A@@std@@@std@@@2@XZ PROC ; std::_Tree<std::_Tmap_traits<ioHashString,D3DXVECTOR3,std::less<ioHashString>,std::allocator<std::pair<ioHashString const ,D3DXVECTOR3> >,0> >::begin, COMDAT
; _this$ = ecx

; 806  : 		{	// return iterator for beginning of mutable sequence

  00000	55		 push	 ebp
  00001	8b ec		 mov	 ebp, esp

; 807  : 		return (iterator(_Lmost(), this));

  00003	8b 41 04	 mov	 eax, DWORD PTR [ecx+4]
  00006	8b 08		 mov	 ecx, DWORD PTR [eax]
  00008	8b 45 08	 mov	 eax, DWORD PTR ___$ReturnUdt$[ebp]
  0000b	89 08		 mov	 DWORD PTR [eax], ecx

; 808  : 		}

  0000d	5d		 pop	 ebp
  0000e	c2 04 00	 ret	 4
?begin@?$_Tree@V?$_Tmap_traits@VioHashString@@UD3DXVECTOR3@@U?$less@VioHashString@@@std@@V?$allocator@U?$pair@$$CBVioHashString@@UD3DXVECTOR3@@@std@@@4@$0A@@std@@@std@@QAE?AV?$_Tree_iterator@V?$_Tree_val@V?$_Tmap_traits@VioHashString@@UD3DXVECTOR3@@U?$less@VioHashString@@@std@@V?$allocator@U?$pair@$$CBVioHashString@@UD3DXVECTOR3@@@std@@@4@$0A@@std@@@std@@@2@XZ ENDP ; std::_Tree<std::_Tmap_traits<ioHashString,D3DXVECTOR3,std::less<ioHashString>,std::allocator<std::pair<ioHashString const ,D3DXVECTOR3> >,0> >::begin
_TEXT	ENDS
PUBLIC	?_Eqrange@?$_Tree@V?$_Tmap_traits@VioHashString@@UD3DXVECTOR3@@U?$less@VioHashString@@@std@@V?$allocator@U?$pair@$$CBVioHashString@@UD3DXVECTOR3@@@std@@@4@$0A@@std@@@std@@IAE?AU?$pair@V?$_Tree_iterator@V?$_Tree_val@V?$_Tmap_traits@VioHashString@@UD3DXVECTOR3@@U?$less@VioHashString@@@std@@V?$allocator@U?$pair@$$CBVioHashString@@UD3DXVECTOR3@@@std@@@4@$0A@@std@@@std@@@std@@V12@@2@ABVioHashString@@@Z ; std::_Tree<std::_Tmap_traits<ioHashString,D3DXVECTOR3,std::less<ioHashString>,std::allocator<std::pair<ioHashString const ,D3DXVECTOR3> >,0> >::_Eqrange
; Function compile flags: /Ogsp
;	COMDAT ?_Eqrange@?$_Tree@V?$_Tmap_traits@VioHashString@@UD3DXVECTOR3@@U?$less@VioHashString@@@std@@V?$allocator@U?$pair@$$CBVioHashString@@UD3DXVECTOR3@@@std@@@4@$0A@@std@@@std@@IAE?AU?$pair@V?$_Tree_iterator@V?$_Tree_val@V?$_Tmap_traits@VioHashString@@UD3DXVECTOR3@@U?$less@VioHashString@@@std@@V?$allocator@U?$pair@$$CBVioHashString@@UD3DXVECTOR3@@@std@@@4@$0A@@std@@@std@@@std@@V12@@2@ABVioHashString@@@Z
_TEXT	SEGMENT
__Lonode$ = -4						; size = 4
___$ReturnUdt$ = 8					; size = 4
__Keyval$ = 12						; size = 4
?_Eqrange@?$_Tree@V?$_Tmap_traits@VioHashString@@UD3DXVECTOR3@@U?$less@VioHashString@@@std@@V?$allocator@U?$pair@$$CBVioHashString@@UD3DXVECTOR3@@@std@@@4@$0A@@std@@@std@@IAE?AU?$pair@V?$_Tree_iterator@V?$_Tree_val@V?$_Tmap_traits@VioHashString@@UD3DXVECTOR3@@U?$less@VioHashString@@@std@@V?$allocator@U?$pair@$$CBVioHashString@@UD3DXVECTOR3@@@std@@@4@$0A@@std@@@std@@@std@@V12@@2@ABVioHashString@@@Z PROC ; std::_Tree<std::_Tmap_traits<ioHashString,D3DXVECTOR3,std::less<ioHashString>,std::allocator<std::pair<ioHashString const ,D3DXVECTOR3> >,0> >::_Eqrange, COMDAT
; _this$ = ecx

; 1575 : 		{	// find leftmost node not less than _Keyval

  00000	55		 push	 ebp
  00001	8b ec		 mov	 ebp, esp
  00003	51		 push	 ecx
  00004	53		 push	 ebx
  00005	56		 push	 esi
  00006	8b d9		 mov	 ebx, ecx

; 1576 : 		_Nodeptr _Pnode = _Root();

  00008	8b 43 04	 mov	 eax, DWORD PTR [ebx+4]
  0000b	8b 70 04	 mov	 esi, DWORD PTR [eax+4]
  0000e	57		 push	 edi

; 1577 : 		_Nodeptr _Lonode = this->_Myhead;	// end() if search fails

  0000f	89 45 fc	 mov	 DWORD PTR __Lonode$[ebp], eax

; 1578 : 		_Nodeptr _Hinode = this->_Myhead;	// end() if search fails

  00012	8b f8		 mov	 edi, eax
  00014	eb 33		 jmp	 SHORT $LN94@Eqrange
$LL9@Eqrange:

; 1581 : 			if (_DEBUG_LT_PRED(this->comp, this->_Key(_Pnode), _Keyval))

  00016	ff 75 0c	 push	 DWORD PTR __Keyval$[ebp]
  00019	8d 4e 0c	 lea	 ecx, DWORD PTR [esi+12]
  0001c	ff 15 00 00 00
	00		 call	 DWORD PTR __imp_??MioHashString@@QBE_NABV0@@Z
  00022	84 c0		 test	 al, al
  00024	74 05		 je	 SHORT $LN7@Eqrange

; 1582 : 				_Pnode = this->_Right(_Pnode);	// descend right subtree

  00026	8b 76 08	 mov	 esi, DWORD PTR [esi+8]

; 1583 : 			else

  00029	eb 1e		 jmp	 SHORT $LN94@Eqrange
$LN7@Eqrange:

; 1584 : 				{	// _Pnode not less than _Keyval, remember it
; 1585 : 				if (this->_Isnil(_Hinode)
; 1586 : 						&& _DEBUG_LT_PRED(this->comp, _Keyval,

  0002b	80 7f 29 00	 cmp	 BYTE PTR [edi+41], 0
  0002f	74 13		 je	 SHORT $LN5@Eqrange
  00031	8b 4d 0c	 mov	 ecx, DWORD PTR __Keyval$[ebp]
  00034	8d 46 0c	 lea	 eax, DWORD PTR [esi+12]
  00037	50		 push	 eax
  00038	ff 15 00 00 00
	00		 call	 DWORD PTR __imp_??MioHashString@@QBE_NABV0@@Z
  0003e	84 c0		 test	 al, al
  00040	74 02		 je	 SHORT $LN5@Eqrange

; 1587 : 						 this->_Key(_Pnode)))
; 1588 : 					_Hinode = _Pnode;	// _Pnode greater, remember it

  00042	8b fe		 mov	 edi, esi
$LN5@Eqrange:

; 1589 : 				_Lonode = _Pnode;

  00044	89 75 fc	 mov	 DWORD PTR __Lonode$[ebp], esi

; 1590 : 				_Pnode = this->_Left(_Pnode);	// descend left subtree

  00047	8b 36		 mov	 esi, DWORD PTR [esi]
$LN94@Eqrange:

; 1579 : 
; 1580 : 		while (!this->_Isnil(_Pnode))

  00049	80 7e 29 00	 cmp	 BYTE PTR [esi+41], 0
  0004d	74 c7		 je	 SHORT $LL9@Eqrange

; 1591 : 				}
; 1592 : 
; 1593 : 		_Pnode = this->_Isnil(_Hinode) ? _Root()
; 1594 : 			: this->_Left(_Hinode);	// continue scan for upper bound

  0004f	80 7f 29 00	 cmp	 BYTE PTR [edi+41], 0
  00053	74 08		 je	 SHORT $LN12@Eqrange
  00055	8b 43 04	 mov	 eax, DWORD PTR [ebx+4]
  00058	8b 70 04	 mov	 esi, DWORD PTR [eax+4]
  0005b	eb 1e		 jmp	 SHORT $LN95@Eqrange
$LN12@Eqrange:
  0005d	8b 37		 mov	 esi, DWORD PTR [edi]

; 1595 : 		while (!this->_Isnil(_Pnode))

  0005f	eb 1a		 jmp	 SHORT $LN95@Eqrange
$LL4@Eqrange:

; 1596 : 			if (_DEBUG_LT_PRED(this->comp, _Keyval, this->_Key(_Pnode)))

  00061	8b 4d 0c	 mov	 ecx, DWORD PTR __Keyval$[ebp]
  00064	8d 46 0c	 lea	 eax, DWORD PTR [esi+12]
  00067	50		 push	 eax
  00068	ff 15 00 00 00
	00		 call	 DWORD PTR __imp_??MioHashString@@QBE_NABV0@@Z
  0006e	84 c0		 test	 al, al
  00070	74 06		 je	 SHORT $LN2@Eqrange

; 1597 : 				{	// _Pnode greater than _Keyval, remember it
; 1598 : 				_Hinode = _Pnode;

  00072	8b fe		 mov	 edi, esi

; 1599 : 				_Pnode = this->_Left(_Pnode);	// descend left subtree

  00074	8b 36		 mov	 esi, DWORD PTR [esi]

; 1600 : 				}
; 1601 : 			else

  00076	eb 03		 jmp	 SHORT $LN95@Eqrange
$LN2@Eqrange:

; 1602 : 				_Pnode = this->_Right(_Pnode);	// descend right subtree

  00078	8b 76 08	 mov	 esi, DWORD PTR [esi+8]
$LN95@Eqrange:

; 1595 : 		while (!this->_Isnil(_Pnode))

  0007b	80 7e 29 00	 cmp	 BYTE PTR [esi+41], 0
  0007f	74 e0		 je	 SHORT $LL4@Eqrange

; 1603 : 
; 1604 : 		iterator _First = iterator(_Lonode, this);
; 1605 : 		iterator _Last = iterator(_Hinode, this);
; 1606 : 		return (_Pairii(_First, _Last));

  00081	8b 45 08	 mov	 eax, DWORD PTR ___$ReturnUdt$[ebp]
  00084	8b 4d fc	 mov	 ecx, DWORD PTR __Lonode$[ebp]
  00087	89 78 04	 mov	 DWORD PTR [eax+4], edi
  0008a	5f		 pop	 edi
  0008b	5e		 pop	 esi
  0008c	89 08		 mov	 DWORD PTR [eax], ecx
  0008e	5b		 pop	 ebx

; 1607 : 		}

  0008f	c9		 leave
  00090	c2 08 00	 ret	 8
?_Eqrange@?$_Tree@V?$_Tmap_traits@VioHashString@@UD3DXVECTOR3@@U?$less@VioHashString@@@std@@V?$allocator@U?$pair@$$CBVioHashString@@UD3DXVECTOR3@@@std@@@4@$0A@@std@@@std@@IAE?AU?$pair@V?$_Tree_iterator@V?$_Tree_val@V?$_Tmap_traits@VioHashString@@UD3DXVECTOR3@@U?$less@VioHashString@@@std@@V?$allocator@U?$pair@$$CBVioHashString@@UD3DXVECTOR3@@@std@@@4@$0A@@std@@@std@@@std@@V12@@2@ABVioHashString@@@Z ENDP ; std::_Tree<std::_Tmap_traits<ioHashString,D3DXVECTOR3,std::less<ioHashString>,std::allocator<std::pair<ioHashString const ,D3DXVECTOR3> >,0> >::_Eqrange
_TEXT	ENDS
PUBLIC	??0?$_Tree_val@V?$_Tmap_traits@VioHashString@@UD3DXVECTOR3@@U?$less@VioHashString@@@std@@V?$allocator@U?$pair@$$CBVioHashString@@UD3DXVECTOR3@@@std@@@4@$0A@@std@@@std@@QAE@ABU?$less@VioHashString@@@1@V?$allocator@U?$pair@$$CBVioHashString@@UD3DXVECTOR3@@@std@@@1@@Z ; std::_Tree_val<std::_Tmap_traits<ioHashString,D3DXVECTOR3,std::less<ioHashString>,std::allocator<std::pair<ioHashString const ,D3DXVECTOR3> >,0> >::_Tree_val<std::_Tmap_traits<ioHashString,D3DXVECTOR3,std::less<ioHashString>,std::allocator<std::pair<ioHashString const ,D3DXVECTOR3> >,0> >
; Function compile flags: /Ogsp
;	COMDAT ??0?$_Tree_val@V?$_Tmap_traits@VioHashString@@UD3DXVECTOR3@@U?$less@VioHashString@@@std@@V?$allocator@U?$pair@$$CBVioHashString@@UD3DXVECTOR3@@@std@@@4@$0A@@std@@@std@@QAE@ABU?$less@VioHashString@@@1@V?$allocator@U?$pair@$$CBVioHashString@@UD3DXVECTOR3@@@std@@@1@@Z
_TEXT	SEGMENT
$T512345 = -16						; size = 12
$T512329 = -4						; size = 4
__Parg$ = 8						; size = 4
__Al$ = 12						; size = 1
??0?$_Tree_val@V?$_Tmap_traits@VioHashString@@UD3DXVECTOR3@@U?$less@VioHashString@@@std@@V?$allocator@U?$pair@$$CBVioHashString@@UD3DXVECTOR3@@@std@@@4@$0A@@std@@@std@@QAE@ABU?$less@VioHashString@@@1@V?$allocator@U?$pair@$$CBVioHashString@@UD3DXVECTOR3@@@std@@@1@@Z PROC ; std::_Tree_val<std::_Tmap_traits<ioHashString,D3DXVECTOR3,std::less<ioHashString>,std::allocator<std::pair<ioHashString const ,D3DXVECTOR3> >,0> >::_Tree_val<std::_Tmap_traits<ioHashString,D3DXVECTOR3,std::less<ioHashString>,std::allocator<std::pair<ioHashString const ,D3DXVECTOR3> >,0> >, COMDAT
; _this$ = ecx

; 542  : 		{	// construct base, and allocator from _Al

  00000	55		 push	 ebp
  00001	8b ec		 mov	 ebp, esp
  00003	83 ec 10	 sub	 esp, 16			; 00000010H
  00006	56		 push	 esi
  00007	8b f1		 mov	 esi, ecx

; 543  : 		this->_Mysize = 0;

  00009	83 66 08 00	 and	 DWORD PTR [esi+8], 0

; 544  : 		this->_Myhead = this->_Alnod.allocate(1);

  0000d	6a 2c		 push	 44			; 0000002cH
  0000f	e8 00 00 00 00	 call	 ??2@YAPAXI@Z		; operator new
  00014	59		 pop	 ecx
  00015	85 c0		 test	 eax, eax
  00017	74 26		 je	 SHORT $LN15@Tree_val
  00019	89 46 04	 mov	 DWORD PTR [esi+4], eax

; 545  : 
; 546  : 		this->_Left(this->_Myhead) = this->_Myhead;

  0001c	89 00		 mov	 DWORD PTR [eax], eax

; 547  : 		this->_Parent(this->_Myhead) = this->_Myhead;

  0001e	8b 46 04	 mov	 eax, DWORD PTR [esi+4]
  00021	89 40 04	 mov	 DWORD PTR [eax+4], eax

; 548  : 		this->_Right(this->_Myhead) = this->_Myhead;

  00024	8b 46 04	 mov	 eax, DWORD PTR [esi+4]
  00027	89 40 08	 mov	 DWORD PTR [eax+8], eax

; 549  : 		this->_Color(this->_Myhead) = this->_Black;

  0002a	8b 46 04	 mov	 eax, DWORD PTR [esi+4]
  0002d	c6 40 28 01	 mov	 BYTE PTR [eax+40], 1

; 550  : 		this->_Isnil(this->_Myhead) = true;

  00031	8b 46 04	 mov	 eax, DWORD PTR [esi+4]
  00034	c6 40 29 01	 mov	 BYTE PTR [eax+41], 1

; 551  : 		}

  00038	8b c6		 mov	 eax, esi
  0003a	5e		 pop	 esi
  0003b	c9		 leave
  0003c	c2 08 00	 ret	 8

; 544  : 		this->_Myhead = this->_Alnod.allocate(1);

$LN15@Tree_val:
  0003f	83 65 fc 00	 and	 DWORD PTR $T512329[ebp], 0
  00043	8d 45 fc	 lea	 eax, DWORD PTR $T512329[ebp]
  00046	50		 push	 eax
  00047	8d 4d f0	 lea	 ecx, DWORD PTR $T512345[ebp]
  0004a	ff 15 00 00 00
	00		 call	 DWORD PTR __imp_??0exception@std@@QAE@ABQBD@Z
  00050	68 00 00 00 00	 push	 OFFSET __TI2?AVbad_alloc@std@@
  00055	8d 45 f0	 lea	 eax, DWORD PTR $T512345[ebp]
  00058	50		 push	 eax
  00059	c7 45 f0 00 00
	00 00		 mov	 DWORD PTR $T512345[ebp], OFFSET ??_7bad_alloc@std@@6B@
  00060	e8 00 00 00 00	 call	 __CxxThrowException@8
$LN37@Tree_val:
$LN36@Tree_val:
  00065	cc		 int	 3
??0?$_Tree_val@V?$_Tmap_traits@VioHashString@@UD3DXVECTOR3@@U?$less@VioHashString@@@std@@V?$allocator@U?$pair@$$CBVioHashString@@UD3DXVECTOR3@@@std@@@4@$0A@@std@@@std@@QAE@ABU?$less@VioHashString@@@1@V?$allocator@U?$pair@$$CBVioHashString@@UD3DXVECTOR3@@@std@@@1@@Z ENDP ; std::_Tree_val<std::_Tmap_traits<ioHashString,D3DXVECTOR3,std::less<ioHashString>,std::allocator<std::pair<ioHashString const ,D3DXVECTOR3> >,0> >::_Tree_val<std::_Tmap_traits<ioHashString,D3DXVECTOR3,std::less<ioHashString>,std::allocator<std::pair<ioHashString const ,D3DXVECTOR3> >,0> >
_TEXT	ENDS
PUBLIC	??E?$_Tree_const_iterator@V?$_Tree_val@V?$_Tmap_traits@VioHashString@@UD3DXVECTOR3@@U?$less@VioHashString@@@std@@V?$allocator@U?$pair@$$CBVioHashString@@UD3DXVECTOR3@@@std@@@4@$0A@@std@@@std@@@std@@QAE?AV01@H@Z ; std::_Tree_const_iterator<std::_Tree_val<std::_Tmap_traits<ioHashString,D3DXVECTOR3,std::less<ioHashString>,std::allocator<std::pair<ioHashString const ,D3DXVECTOR3> >,0> > >::operator++
; Function compile flags: /Ogsp
;	COMDAT ??E?$_Tree_const_iterator@V?$_Tree_val@V?$_Tmap_traits@VioHashString@@UD3DXVECTOR3@@U?$less@VioHashString@@@std@@V?$allocator@U?$pair@$$CBVioHashString@@UD3DXVECTOR3@@@std@@@4@$0A@@std@@@std@@@std@@QAE?AV01@H@Z
_TEXT	SEGMENT
___$ReturnUdt$ = 8					; size = 4
___formal$ = 12						; size = 4
??E?$_Tree_const_iterator@V?$_Tree_val@V?$_Tmap_traits@VioHashString@@UD3DXVECTOR3@@U?$less@VioHashString@@@std@@V?$allocator@U?$pair@$$CBVioHashString@@UD3DXVECTOR3@@@std@@@4@$0A@@std@@@std@@@std@@QAE?AV01@H@Z PROC ; std::_Tree_const_iterator<std::_Tree_val<std::_Tmap_traits<ioHashString,D3DXVECTOR3,std::less<ioHashString>,std::allocator<std::pair<ioHashString const ,D3DXVECTOR3> >,0> > >::operator++, COMDAT
; _this$ = ecx

; 270  : 		{	// postincrement

  00000	55		 push	 ebp
  00001	8b ec		 mov	 ebp, esp

; 271  : 		_Myiter _Tmp = *this;

  00003	8b 01		 mov	 eax, DWORD PTR [ecx]
  00005	56		 push	 esi
  00006	8b 75 08	 mov	 esi, DWORD PTR ___$ReturnUdt$[ebp]
  00009	89 06		 mov	 DWORD PTR [esi], eax

; 272  : 		++*this;

  0000b	e8 00 00 00 00	 call	 ??E?$_Tree_unchecked_const_iterator@V?$_Tree_val@V?$_Tmap_traits@VioHashString@@UD3DXVECTOR3@@U?$less@VioHashString@@@std@@V?$allocator@U?$pair@$$CBVioHashString@@UD3DXVECTOR3@@@std@@@4@$0A@@std@@@std@@U_Iterator_base0@2@@std@@QAEAAV01@XZ ; std::_Tree_unchecked_const_iterator<std::_Tree_val<std::_Tmap_traits<ioHashString,D3DXVECTOR3,std::less<ioHashString>,std::allocator<std::pair<ioHashString const ,D3DXVECTOR3> >,0> >,std::_Iterator_base0>::operator++

; 273  : 		return (_Tmp);

  00010	8b c6		 mov	 eax, esi
  00012	5e		 pop	 esi

; 274  : 		}

  00013	5d		 pop	 ebp
  00014	c2 08 00	 ret	 8
??E?$_Tree_const_iterator@V?$_Tree_val@V?$_Tmap_traits@VioHashString@@UD3DXVECTOR3@@U?$less@VioHashString@@@std@@V?$allocator@U?$pair@$$CBVioHashString@@UD3DXVECTOR3@@@std@@@4@$0A@@std@@@std@@@std@@QAE?AV01@H@Z ENDP ; std::_Tree_const_iterator<std::_Tree_val<std::_Tmap_traits<ioHashString,D3DXVECTOR3,std::less<ioHashString>,std::allocator<std::pair<ioHashString const ,D3DXVECTOR3> >,0> > >::operator++
_TEXT	ENDS
PUBLIC	??$_Cons_val@V?$allocator@UEntityGroupData@ioWorldMesh@@@std@@UEntityGroupData@ioWorldMesh@@ABU34@@std@@YAXAAV?$allocator@UEntityGroupData@ioWorldMesh@@@0@PAUEntityGroupData@ioWorldMesh@@ABU23@@Z ; std::_Cons_val<std::allocator<ioWorldMesh::EntityGroupData>,ioWorldMesh::EntityGroupData,ioWorldMesh::EntityGroupData const &>
; Function compile flags: /Ogsp
; File c:\program files (x86)\microsoft visual studio 10.0\vc\include\xmemory
;	COMDAT ??$_Cons_val@V?$allocator@UEntityGroupData@ioWorldMesh@@@std@@UEntityGroupData@ioWorldMesh@@ABU34@@std@@YAXAAV?$allocator@UEntityGroupData@ioWorldMesh@@@0@PAUEntityGroupData@ioWorldMesh@@ABU23@@Z
_TEXT	SEGMENT
__Alval$ = 8						; size = 4
__Pdest$ = 12						; size = 4
__Src$ = 16						; size = 4
??$_Cons_val@V?$allocator@UEntityGroupData@ioWorldMesh@@@std@@UEntityGroupData@ioWorldMesh@@ABU34@@std@@YAXAAV?$allocator@UEntityGroupData@ioWorldMesh@@@0@PAUEntityGroupData@ioWorldMesh@@ABU23@@Z PROC ; std::_Cons_val<std::allocator<ioWorldMesh::EntityGroupData>,ioWorldMesh::EntityGroupData,ioWorldMesh::EntityGroupData const &>, COMDAT

; 279  : 	{	// construct using allocator

  00000	55		 push	 ebp
  00001	8b ec		 mov	 ebp, esp

; 280  : 	_Alval.construct(_Pdest, _STD forward<_Ty2>(_Src));

  00003	8b 45 0c	 mov	 eax, DWORD PTR __Pdest$[ebp]
  00006	85 c0		 test	 eax, eax
  00008	74 0d		 je	 SHORT $LN9@Cons_val@2
  0000a	8b 4d 10	 mov	 ecx, DWORD PTR __Src$[ebp]
  0000d	8b 11		 mov	 edx, DWORD PTR [ecx]
  0000f	89 10		 mov	 DWORD PTR [eax], edx
  00011	8b 49 04	 mov	 ecx, DWORD PTR [ecx+4]
  00014	89 48 04	 mov	 DWORD PTR [eax+4], ecx
$LN9@Cons_val@2:

; 281  : 	}

  00017	5d		 pop	 ebp
  00018	c3		 ret	 0
??$_Cons_val@V?$allocator@UEntityGroupData@ioWorldMesh@@@std@@UEntityGroupData@ioWorldMesh@@ABU34@@std@@YAXAAV?$allocator@UEntityGroupData@ioWorldMesh@@@0@PAUEntityGroupData@ioWorldMesh@@ABU23@@Z ENDP ; std::_Cons_val<std::allocator<ioWorldMesh::EntityGroupData>,ioWorldMesh::EntityGroupData,ioWorldMesh::EntityGroupData const &>
_TEXT	ENDS
PUBLIC	??$_Move@PAUEntityGroupData@ioWorldMesh@@PAU12@@std@@YAPAUEntityGroupData@ioWorldMesh@@PAU12@00@Z ; std::_Move<ioWorldMesh::EntityGroupData *,ioWorldMesh::EntityGroupData *>
; Function compile flags: /Ogsp
; File c:\program files (x86)\microsoft visual studio 10.0\vc\include\xutility
;	COMDAT ??$_Move@PAUEntityGroupData@ioWorldMesh@@PAU12@@std@@YAPAUEntityGroupData@ioWorldMesh@@PAU12@00@Z
_TEXT	SEGMENT
__Cat$512428 = -4					; size = 1
__First$ = 8						; size = 4
__Last$ = 12						; size = 4
__Dest$ = 16						; size = 4
??$_Move@PAUEntityGroupData@ioWorldMesh@@PAU12@@std@@YAPAUEntityGroupData@ioWorldMesh@@PAU12@00@Z PROC ; std::_Move<ioWorldMesh::EntityGroupData *,ioWorldMesh::EntityGroupData *>, COMDAT

; 2533 : 	{	// move [_First, _Last) to [_Dest, ...), unchecked

  00000	55		 push	 ebp
  00001	8b ec		 mov	 ebp, esp
  00003	51		 push	 ecx

; 2534 : 	return (_Move(_First, _Last,
; 2535 : 		_Dest, _Ptr_cat(_First, _Dest)));

  00004	ff 75 fc	 push	 DWORD PTR __Cat$512428[ebp]
  00007	ff 75 10	 push	 DWORD PTR __Dest$[ebp]
  0000a	ff 75 0c	 push	 DWORD PTR __Last$[ebp]
  0000d	ff 75 08	 push	 DWORD PTR __First$[ebp]
  00010	e8 00 00 00 00	 call	 ??$_Move@PAUEntityGroupData@ioWorldMesh@@PAU12@@std@@YAPAUEntityGroupData@ioWorldMesh@@PAU12@00U_Nonscalar_ptr_iterator_tag@0@@Z ; std::_Move<ioWorldMesh::EntityGroupData *,ioWorldMesh::EntityGroupData *>
  00015	83 c4 10	 add	 esp, 16			; 00000010H

; 2536 : 	}

  00018	c9		 leave
  00019	c3		 ret	 0
??$_Move@PAUEntityGroupData@ioWorldMesh@@PAU12@@std@@YAPAUEntityGroupData@ioWorldMesh@@PAU12@00@Z ENDP ; std::_Move<ioWorldMesh::EntityGroupData *,ioWorldMesh::EntityGroupData *>
_TEXT	ENDS
PUBLIC	??0?$pair@V?$_Tree_iterator@V?$_Tree_val@V?$_Tmap_traits@VioHashString@@UD3DXVECTOR3@@U?$less@VioHashString@@@std@@V?$allocator@U?$pair@$$CBVioHashString@@UD3DXVECTOR3@@@std@@@4@$0A@@std@@@std@@@std@@_N@std@@QAE@$$QAV?$_Tree_iterator@V?$_Tree_val@V?$_Tmap_traits@VioHashString@@UD3DXVECTOR3@@U?$less@VioHashString@@@std@@V?$allocator@U?$pair@$$CBVioHashString@@UD3DXVECTOR3@@@std@@@4@$0A@@std@@@std@@@1@$$QA_N@Z ; std::pair<std::_Tree_iterator<std::_Tree_val<std::_Tmap_traits<ioHashString,D3DXVECTOR3,std::less<ioHashString>,std::allocator<std::pair<ioHashString const ,D3DXVECTOR3> >,0> > >,bool>::pair<std::_Tree_iterator<std::_Tree_val<std::_Tmap_traits<ioHashString,D3DXVECTOR3,std::less<ioHashString>,std::allocator<std::pair<ioHashString const ,D3DXVECTOR3> >,0> > >,bool>
; Function compile flags: /Ogsp
; File c:\program files (x86)\microsoft visual studio 10.0\vc\include\utility
;	COMDAT ??0?$pair@V?$_Tree_iterator@V?$_Tree_val@V?$_Tmap_traits@VioHashString@@UD3DXVECTOR3@@U?$less@VioHashString@@@std@@V?$allocator@U?$pair@$$CBVioHashString@@UD3DXVECTOR3@@@std@@@4@$0A@@std@@@std@@@std@@_N@std@@QAE@$$QAV?$_Tree_iterator@V?$_Tree_val@V?$_Tmap_traits@VioHashString@@UD3DXVECTOR3@@U?$less@VioHashString@@@std@@V?$allocator@U?$pair@$$CBVioHashString@@UD3DXVECTOR3@@@std@@@4@$0A@@std@@@std@@@1@$$QA_N@Z
_TEXT	SEGMENT
__Val1$ = 8						; size = 4
__Val2$ = 12						; size = 4
??0?$pair@V?$_Tree_iterator@V?$_Tree_val@V?$_Tmap_traits@VioHashString@@UD3DXVECTOR3@@U?$less@VioHashString@@@std@@V?$allocator@U?$pair@$$CBVioHashString@@UD3DXVECTOR3@@@std@@@4@$0A@@std@@@std@@@std@@_N@std@@QAE@$$QAV?$_Tree_iterator@V?$_Tree_val@V?$_Tmap_traits@VioHashString@@UD3DXVECTOR3@@U?$less@VioHashString@@@std@@V?$allocator@U?$pair@$$CBVioHashString@@UD3DXVECTOR3@@@std@@@4@$0A@@std@@@std@@@1@$$QA_N@Z PROC ; std::pair<std::_Tree_iterator<std::_Tree_val<std::_Tmap_traits<ioHashString,D3DXVECTOR3,std::less<ioHashString>,std::allocator<std::pair<ioHashString const ,D3DXVECTOR3> >,0> > >,bool>::pair<std::_Tree_iterator<std::_Tree_val<std::_Tmap_traits<ioHashString,D3DXVECTOR3,std::less<ioHashString>,std::allocator<std::pair<ioHashString const ,D3DXVECTOR3> >,0> > >,bool>, COMDAT
; _this$ = ecx

; 227  : 		{	// construct from specified values

  00000	55		 push	 ebp
  00001	8b ec		 mov	 ebp, esp
  00003	8b c1		 mov	 eax, ecx
  00005	8b 4d 08	 mov	 ecx, DWORD PTR __Val1$[ebp]
  00008	8b 09		 mov	 ecx, DWORD PTR [ecx]
  0000a	89 08		 mov	 DWORD PTR [eax], ecx
  0000c	8b 4d 0c	 mov	 ecx, DWORD PTR __Val2$[ebp]
  0000f	8a 09		 mov	 cl, BYTE PTR [ecx]
  00011	88 48 04	 mov	 BYTE PTR [eax+4], cl

; 228  : 		}

  00014	5d		 pop	 ebp
  00015	c2 08 00	 ret	 8
??0?$pair@V?$_Tree_iterator@V?$_Tree_val@V?$_Tmap_traits@VioHashString@@UD3DXVECTOR3@@U?$less@VioHashString@@@std@@V?$allocator@U?$pair@$$CBVioHashString@@UD3DXVECTOR3@@@std@@@4@$0A@@std@@@std@@@std@@_N@std@@QAE@$$QAV?$_Tree_iterator@V?$_Tree_val@V?$_Tmap_traits@VioHashString@@UD3DXVECTOR3@@U?$less@VioHashString@@@std@@V?$allocator@U?$pair@$$CBVioHashString@@UD3DXVECTOR3@@@std@@@4@$0A@@std@@@std@@@1@$$QA_N@Z ENDP ; std::pair<std::_Tree_iterator<std::_Tree_val<std::_Tmap_traits<ioHashString,D3DXVECTOR3,std::less<ioHashString>,std::allocator<std::pair<ioHashString const ,D3DXVECTOR3> >,0> > >,bool>::pair<std::_Tree_iterator<std::_Tree_val<std::_Tmap_traits<ioHashString,D3DXVECTOR3,std::less<ioHashString>,std::allocator<std::pair<ioHashString const ,D3DXVECTOR3> >,0> > >,bool>
_TEXT	ENDS
PUBLIC	??$_Distance2@V?$_Tree_iterator@V?$_Tree_val@V?$_Tmap_traits@VioHashString@@UD3DXVECTOR3@@U?$less@VioHashString@@@std@@V?$allocator@U?$pair@$$CBVioHashString@@UD3DXVECTOR3@@@std@@@4@$0A@@std@@@std@@@std@@I@std@@YAXV?$_Tree_iterator@V?$_Tree_val@V?$_Tmap_traits@VioHashString@@UD3DXVECTOR3@@U?$less@VioHashString@@@std@@V?$allocator@U?$pair@$$CBVioHashString@@UD3DXVECTOR3@@@std@@@4@$0A@@std@@@std@@@0@0AAIUbidirectional_iterator_tag@0@@Z ; std::_Distance2<std::_Tree_iterator<std::_Tree_val<std::_Tmap_traits<ioHashString,D3DXVECTOR3,std::less<ioHashString>,std::allocator<std::pair<ioHashString const ,D3DXVECTOR3> >,0> > >,unsigned int>
; Function compile flags: /Ogsp
; File c:\program files (x86)\microsoft visual studio 10.0\vc\include\xutility
;	COMDAT ??$_Distance2@V?$_Tree_iterator@V?$_Tree_val@V?$_Tmap_traits@VioHashString@@UD3DXVECTOR3@@U?$less@VioHashString@@@std@@V?$allocator@U?$pair@$$CBVioHashString@@UD3DXVECTOR3@@@std@@@4@$0A@@std@@@std@@@std@@I@std@@YAXV?$_Tree_iterator@V?$_Tree_val@V?$_Tmap_traits@VioHashString@@UD3DXVECTOR3@@U?$less@VioHashString@@@std@@V?$allocator@U?$pair@$$CBVioHashString@@UD3DXVECTOR3@@@std@@@4@$0A@@std@@@std@@@0@0AAIUbidirectional_iterator_tag@0@@Z
_TEXT	SEGMENT
__First$ = 8						; size = 4
__Last$ = 12						; size = 4
__Off$ = 16						; size = 4
___formal$ = 20						; size = 1
??$_Distance2@V?$_Tree_iterator@V?$_Tree_val@V?$_Tmap_traits@VioHashString@@UD3DXVECTOR3@@U?$less@VioHashString@@@std@@V?$allocator@U?$pair@$$CBVioHashString@@UD3DXVECTOR3@@@std@@@4@$0A@@std@@@std@@@std@@I@std@@YAXV?$_Tree_iterator@V?$_Tree_val@V?$_Tmap_traits@VioHashString@@UD3DXVECTOR3@@U?$less@VioHashString@@@std@@V?$allocator@U?$pair@$$CBVioHashString@@UD3DXVECTOR3@@@std@@@4@$0A@@std@@@std@@@0@0AAIUbidirectional_iterator_tag@0@@Z PROC ; std::_Distance2<std::_Tree_iterator<std::_Tree_val<std::_Tmap_traits<ioHashString,D3DXVECTOR3,std::less<ioHashString>,std::allocator<std::pair<ioHashString const ,D3DXVECTOR3> >,0> > >,unsigned int>, COMDAT

; 876  : 	{	// add to _Off distance between bidirectional iterators (redundant)

  00000	55		 push	 ebp
  00001	8b ec		 mov	 ebp, esp
  00003	57		 push	 edi

; 877  : 	for (; _First != _Last; ++_First)

  00004	8b 7d 0c	 mov	 edi, DWORD PTR __Last$[ebp]
  00007	39 7d 08	 cmp	 DWORD PTR __First$[ebp], edi
  0000a	74 14		 je	 SHORT $LN1@Distance2
  0000c	56		 push	 esi
  0000d	8b 75 10	 mov	 esi, DWORD PTR __Off$[ebp]
$LL8@Distance2:

; 878  : 		++_Off;

  00010	ff 06		 inc	 DWORD PTR [esi]
  00012	8d 4d 08	 lea	 ecx, DWORD PTR __First$[ebp]
  00015	e8 00 00 00 00	 call	 ??E?$_Tree_unchecked_const_iterator@V?$_Tree_val@V?$_Tmap_traits@VioHashString@@UD3DXVECTOR3@@U?$less@VioHashString@@@std@@V?$allocator@U?$pair@$$CBVioHashString@@UD3DXVECTOR3@@@std@@@4@$0A@@std@@@std@@U_Iterator_base0@2@@std@@QAEAAV01@XZ ; std::_Tree_unchecked_const_iterator<std::_Tree_val<std::_Tmap_traits<ioHashString,D3DXVECTOR3,std::less<ioHashString>,std::allocator<std::pair<ioHashString const ,D3DXVECTOR3> >,0> >,std::_Iterator_base0>::operator++
  0001a	39 7d 08	 cmp	 DWORD PTR __First$[ebp], edi
  0001d	75 f1		 jne	 SHORT $LL8@Distance2
  0001f	5e		 pop	 esi
$LN1@Distance2:
  00020	5f		 pop	 edi

; 879  : 	}

  00021	5d		 pop	 ebp
  00022	c3		 ret	 0
??$_Distance2@V?$_Tree_iterator@V?$_Tree_val@V?$_Tmap_traits@VioHashString@@UD3DXVECTOR3@@U?$less@VioHashString@@@std@@V?$allocator@U?$pair@$$CBVioHashString@@UD3DXVECTOR3@@@std@@@4@$0A@@std@@@std@@@std@@I@std@@YAXV?$_Tree_iterator@V?$_Tree_val@V?$_Tmap_traits@VioHashString@@UD3DXVECTOR3@@U?$less@VioHashString@@@std@@V?$allocator@U?$pair@$$CBVioHashString@@UD3DXVECTOR3@@@std@@@4@$0A@@std@@@std@@@0@0AAIUbidirectional_iterator_tag@0@@Z ENDP ; std::_Distance2<std::_Tree_iterator<std::_Tree_val<std::_Tmap_traits<ioHashString,D3DXVECTOR3,std::less<ioHashString>,std::allocator<std::pair<ioHashString const ,D3DXVECTOR3> >,0> > >,unsigned int>
_TEXT	ENDS
PUBLIC	??$_Destroy@U?$pair@$$CBVioHashString@@UD3DXVECTOR3@@@std@@@std@@YAXPAU?$pair@$$CBVioHashString@@UD3DXVECTOR3@@@0@@Z ; std::_Destroy<std::pair<ioHashString const ,D3DXVECTOR3> >
; Function compile flags: /Ogsp
; File c:\program files (x86)\microsoft visual studio 10.0\vc\include\xmemory
;	COMDAT ??$_Destroy@U?$pair@$$CBVioHashString@@UD3DXVECTOR3@@@std@@@std@@YAXPAU?$pair@$$CBVioHashString@@UD3DXVECTOR3@@@0@@Z
_TEXT	SEGMENT
__Ptr$ = 8						; size = 4
??$_Destroy@U?$pair@$$CBVioHashString@@UD3DXVECTOR3@@@std@@@std@@YAXPAU?$pair@$$CBVioHashString@@UD3DXVECTOR3@@@0@@Z PROC ; std::_Destroy<std::pair<ioHashString const ,D3DXVECTOR3> >, COMDAT

; 62   : 	{	// destroy object at _Ptr

  00000	55		 push	 ebp
  00001	8b ec		 mov	 ebp, esp

; 63   : 	_Ptr->~_Ty();

  00003	8b 4d 08	 mov	 ecx, DWORD PTR __Ptr$[ebp]

; 64   : 	}

  00006	5d		 pop	 ebp

; 63   : 	_Ptr->~_Ty();

  00007	ff 25 00 00 00
	00		 jmp	 DWORD PTR __imp_??1ioHashString@@QAE@XZ
??$_Destroy@U?$pair@$$CBVioHashString@@UD3DXVECTOR3@@@std@@@std@@YAXPAU?$pair@$$CBVioHashString@@UD3DXVECTOR3@@@0@@Z ENDP ; std::_Destroy<std::pair<ioHashString const ,D3DXVECTOR3> >
_TEXT	ENDS
PUBLIC	??$?0AAV?$_Tree_iterator@V?$_Tree_val@V?$_Tmap_traits@VioHashString@@UD3DXVECTOR3@@U?$less@VioHashString@@@std@@V?$allocator@U?$pair@$$CBVioHashString@@UD3DXVECTOR3@@@std@@@4@$0A@@std@@@std@@@std@@_N@?$pair@V?$_Tree_iterator@V?$_Tree_val@V?$_Tmap_traits@VioHashString@@UD3DXVECTOR3@@U?$less@VioHashString@@@std@@V?$allocator@U?$pair@$$CBVioHashString@@UD3DXVECTOR3@@@std@@@4@$0A@@std@@@std@@@std@@_N@std@@QAE@AAV?$_Tree_iterator@V?$_Tree_val@V?$_Tmap_traits@VioHashString@@UD3DXVECTOR3@@U?$less@VioHashString@@@std@@V?$allocator@U?$pair@$$CBVioHashString@@UD3DXVECTOR3@@@std@@@4@$0A@@std@@@std@@@1@$$QA_N@Z ; std::pair<std::_Tree_iterator<std::_Tree_val<std::_Tmap_traits<ioHashString,D3DXVECTOR3,std::less<ioHashString>,std::allocator<std::pair<ioHashString const ,D3DXVECTOR3> >,0> > >,bool>::pair<std::_Tree_iterator<std::_Tree_val<std::_Tmap_traits<ioHashString,D3DXVECTOR3,std::less<ioHashString>,std::allocator<std::pair<ioHashString const ,D3DXVECTOR3> >,0> > >,bool><std::_Tree_iterator<std::_Tree_val<std::_Tmap_traits<ioHashString,D3DXVECTOR3,std::less<ioHashString>,std::allocator<std::pair<ioHashString const ,D3DXVECTOR3> >,0> > > &,bool>
; Function compile flags: /Ogsp
; File c:\program files (x86)\microsoft visual studio 10.0\vc\include\utility
;	COMDAT ??$?0AAV?$_Tree_iterator@V?$_Tree_val@V?$_Tmap_traits@VioHashString@@UD3DXVECTOR3@@U?$less@VioHashString@@@std@@V?$allocator@U?$pair@$$CBVioHashString@@UD3DXVECTOR3@@@std@@@4@$0A@@std@@@std@@@std@@_N@?$pair@V?$_Tree_iterator@V?$_Tree_val@V?$_Tmap_traits@VioHashString@@UD3DXVECTOR3@@U?$less@VioHashString@@@std@@V?$allocator@U?$pair@$$CBVioHashString@@UD3DXVECTOR3@@@std@@@4@$0A@@std@@@std@@@std@@_N@std@@QAE@AAV?$_Tree_iterator@V?$_Tree_val@V?$_Tmap_traits@VioHashString@@UD3DXVECTOR3@@U?$less@VioHashString@@@std@@V?$allocator@U?$pair@$$CBVioHashString@@UD3DXVECTOR3@@@std@@@4@$0A@@std@@@std@@@1@$$QA_N@Z
_TEXT	SEGMENT
__Val1$ = 8						; size = 4
__Val2$ = 12						; size = 4
??$?0AAV?$_Tree_iterator@V?$_Tree_val@V?$_Tmap_traits@VioHashString@@UD3DXVECTOR3@@U?$less@VioHashString@@@std@@V?$allocator@U?$pair@$$CBVioHashString@@UD3DXVECTOR3@@@std@@@4@$0A@@std@@@std@@@std@@_N@?$pair@V?$_Tree_iterator@V?$_Tree_val@V?$_Tmap_traits@VioHashString@@UD3DXVECTOR3@@U?$less@VioHashString@@@std@@V?$allocator@U?$pair@$$CBVioHashString@@UD3DXVECTOR3@@@std@@@4@$0A@@std@@@std@@@std@@_N@std@@QAE@AAV?$_Tree_iterator@V?$_Tree_val@V?$_Tmap_traits@VioHashString@@UD3DXVECTOR3@@U?$less@VioHashString@@@std@@V?$allocator@U?$pair@$$CBVioHashString@@UD3DXVECTOR3@@@std@@@4@$0A@@std@@@std@@@1@$$QA_N@Z PROC ; std::pair<std::_Tree_iterator<std::_Tree_val<std::_Tmap_traits<ioHashString,D3DXVECTOR3,std::less<ioHashString>,std::allocator<std::pair<ioHashString const ,D3DXVECTOR3> >,0> > >,bool>::pair<std::_Tree_iterator<std::_Tree_val<std::_Tmap_traits<ioHashString,D3DXVECTOR3,std::less<ioHashString>,std::allocator<std::pair<ioHashString const ,D3DXVECTOR3> >,0> > >,bool><std::_Tree_iterator<std::_Tree_val<std::_Tmap_traits<ioHashString,D3DXVECTOR3,std::less<ioHashString>,std::allocator<std::pair<ioHashString const ,D3DXVECTOR3> >,0> > > &,bool>, COMDAT
; _this$ = ecx

; 247  : 		{	// construct from moved values

  00000	55		 push	 ebp
  00001	8b ec		 mov	 ebp, esp
  00003	8b c1		 mov	 eax, ecx
  00005	8b 4d 08	 mov	 ecx, DWORD PTR __Val1$[ebp]
  00008	8b 09		 mov	 ecx, DWORD PTR [ecx]
  0000a	89 08		 mov	 DWORD PTR [eax], ecx
  0000c	8b 4d 0c	 mov	 ecx, DWORD PTR __Val2$[ebp]
  0000f	8a 09		 mov	 cl, BYTE PTR [ecx]
  00011	88 48 04	 mov	 BYTE PTR [eax+4], cl

; 248  : 		}

  00014	5d		 pop	 ebp
  00015	c2 08 00	 ret	 8
??$?0AAV?$_Tree_iterator@V?$_Tree_val@V?$_Tmap_traits@VioHashString@@UD3DXVECTOR3@@U?$less@VioHashString@@@std@@V?$allocator@U?$pair@$$CBVioHashString@@UD3DXVECTOR3@@@std@@@4@$0A@@std@@@std@@@std@@_N@?$pair@V?$_Tree_iterator@V?$_Tree_val@V?$_Tmap_traits@VioHashString@@UD3DXVECTOR3@@U?$less@VioHashString@@@std@@V?$allocator@U?$pair@$$CBVioHashString@@UD3DXVECTOR3@@@std@@@4@$0A@@std@@@std@@@std@@_N@std@@QAE@AAV?$_Tree_iterator@V?$_Tree_val@V?$_Tmap_traits@VioHashString@@UD3DXVECTOR3@@U?$less@VioHashString@@@std@@V?$allocator@U?$pair@$$CBVioHashString@@UD3DXVECTOR3@@@std@@@4@$0A@@std@@@std@@@1@$$QA_N@Z ENDP ; std::pair<std::_Tree_iterator<std::_Tree_val<std::_Tmap_traits<ioHashString,D3DXVECTOR3,std::less<ioHashString>,std::allocator<std::pair<ioHashString const ,D3DXVECTOR3> >,0> > >,bool>::pair<std::_Tree_iterator<std::_Tree_val<std::_Tmap_traits<ioHashString,D3DXVECTOR3,std::less<ioHashString>,std::allocator<std::pair<ioHashString const ,D3DXVECTOR3> >,0> > >,bool><std::_Tree_iterator<std::_Tree_val<std::_Tmap_traits<ioHashString,D3DXVECTOR3,std::less<ioHashString>,std::allocator<std::pair<ioHashString const ,D3DXVECTOR3> >,0> > > &,bool>
_TEXT	ENDS
PUBLIC	??$_Dest_val@V?$allocator@UEntityGroupData@ioWorldMesh@@@std@@UEntityGroupData@ioWorldMesh@@@std@@YAXAAV?$allocator@UEntityGroupData@ioWorldMesh@@@0@PAUEntityGroupData@ioWorldMesh@@@Z ; std::_Dest_val<std::allocator<ioWorldMesh::EntityGroupData>,ioWorldMesh::EntityGroupData>
; Function compile flags: /Ogsp
; File c:\program files (x86)\microsoft visual studio 10.0\vc\include\xmemory
;	COMDAT ??$_Dest_val@V?$allocator@UEntityGroupData@ioWorldMesh@@@std@@UEntityGroupData@ioWorldMesh@@@std@@YAXAAV?$allocator@UEntityGroupData@ioWorldMesh@@@0@PAUEntityGroupData@ioWorldMesh@@@Z
_TEXT	SEGMENT
__Alval$ = 8						; size = 4
__Pdest$ = 12						; size = 4
??$_Dest_val@V?$allocator@UEntityGroupData@ioWorldMesh@@@std@@UEntityGroupData@ioWorldMesh@@@std@@YAXAAV?$allocator@UEntityGroupData@ioWorldMesh@@@0@PAUEntityGroupData@ioWorldMesh@@@Z PROC ; std::_Dest_val<std::allocator<ioWorldMesh::EntityGroupData>,ioWorldMesh::EntityGroupData>, COMDAT

; 287  : 	_Alval.destroy(_Pdest);
; 288  : 	}

  00000	c3		 ret	 0
??$_Dest_val@V?$allocator@UEntityGroupData@ioWorldMesh@@@std@@UEntityGroupData@ioWorldMesh@@@std@@YAXAAV?$allocator@UEntityGroupData@ioWorldMesh@@@0@PAUEntityGroupData@ioWorldMesh@@@Z ENDP ; std::_Dest_val<std::allocator<ioWorldMesh::EntityGroupData>,ioWorldMesh::EntityGroupData>
_TEXT	ENDS
PUBLIC	??$_Cons_val@V?$allocator@UEntityGroupData@ioWorldMesh@@@std@@UEntityGroupData@ioWorldMesh@@U34@@std@@YAXAAV?$allocator@UEntityGroupData@ioWorldMesh@@@0@PAUEntityGroupData@ioWorldMesh@@$$QAU23@@Z ; std::_Cons_val<std::allocator<ioWorldMesh::EntityGroupData>,ioWorldMesh::EntityGroupData,ioWorldMesh::EntityGroupData>
; Function compile flags: /Ogsp
;	COMDAT ??$_Cons_val@V?$allocator@UEntityGroupData@ioWorldMesh@@@std@@UEntityGroupData@ioWorldMesh@@U34@@std@@YAXAAV?$allocator@UEntityGroupData@ioWorldMesh@@@0@PAUEntityGroupData@ioWorldMesh@@$$QAU23@@Z
_TEXT	SEGMENT
__Alval$ = 8						; size = 4
__Pdest$ = 12						; size = 4
__Src$ = 16						; size = 4
??$_Cons_val@V?$allocator@UEntityGroupData@ioWorldMesh@@@std@@UEntityGroupData@ioWorldMesh@@U34@@std@@YAXAAV?$allocator@UEntityGroupData@ioWorldMesh@@@0@PAUEntityGroupData@ioWorldMesh@@$$QAU23@@Z PROC ; std::_Cons_val<std::allocator<ioWorldMesh::EntityGroupData>,ioWorldMesh::EntityGroupData,ioWorldMesh::EntityGroupData>, COMDAT

; 279  : 	{	// construct using allocator

  00000	55		 push	 ebp
  00001	8b ec		 mov	 ebp, esp

; 280  : 	_Alval.construct(_Pdest, _STD forward<_Ty2>(_Src));

  00003	8b 45 0c	 mov	 eax, DWORD PTR __Pdest$[ebp]
  00006	85 c0		 test	 eax, eax
  00008	74 0d		 je	 SHORT $LN7@Cons_val@3
  0000a	8b 4d 10	 mov	 ecx, DWORD PTR __Src$[ebp]
  0000d	8b 11		 mov	 edx, DWORD PTR [ecx]
  0000f	89 10		 mov	 DWORD PTR [eax], edx
  00011	8b 49 04	 mov	 ecx, DWORD PTR [ecx+4]
  00014	89 48 04	 mov	 DWORD PTR [eax+4], ecx
$LN7@Cons_val@3:

; 281  : 	}

  00017	5d		 pop	 ebp
  00018	c3		 ret	 0
??$_Cons_val@V?$allocator@UEntityGroupData@ioWorldMesh@@@std@@UEntityGroupData@ioWorldMesh@@U34@@std@@YAXAAV?$allocator@UEntityGroupData@ioWorldMesh@@@0@PAUEntityGroupData@ioWorldMesh@@$$QAU23@@Z ENDP ; std::_Cons_val<std::allocator<ioWorldMesh::EntityGroupData>,ioWorldMesh::EntityGroupData,ioWorldMesh::EntityGroupData>
_TEXT	ENDS
PUBLIC	??$?0$$CBVioHashString@@UD3DXVECTOR3@@@?$pair@$$CBVioHashString@@UD3DXVECTOR3@@@std@@QAE@$$QAU01@@Z ; std::pair<ioHashString const ,D3DXVECTOR3>::pair<ioHashString const ,D3DXVECTOR3><ioHashString const ,D3DXVECTOR3>
; Function compile flags: /Ogsp
; File c:\program files (x86)\microsoft visual studio 10.0\vc\include\utility
;	COMDAT ??$?0$$CBVioHashString@@UD3DXVECTOR3@@@?$pair@$$CBVioHashString@@UD3DXVECTOR3@@@std@@QAE@$$QAU01@@Z
_TEXT	SEGMENT
__Right$ = 8						; size = 4
??$?0$$CBVioHashString@@UD3DXVECTOR3@@@?$pair@$$CBVioHashString@@UD3DXVECTOR3@@@std@@QAE@$$QAU01@@Z PROC ; std::pair<ioHashString const ,D3DXVECTOR3>::pair<ioHashString const ,D3DXVECTOR3><ioHashString const ,D3DXVECTOR3>, COMDAT
; _this$ = ecx

; 255  : 		{	// construct from moved compatible pair

  00000	55		 push	 ebp
  00001	8b ec		 mov	 ebp, esp
  00003	53		 push	 ebx
  00004	56		 push	 esi
  00005	8b 75 08	 mov	 esi, DWORD PTR __Right$[ebp]
  00008	57		 push	 edi
  00009	56		 push	 esi
  0000a	8b d9		 mov	 ebx, ecx
  0000c	ff 15 00 00 00
	00		 call	 DWORD PTR __imp_??0ioHashString@@QAE@ABV0@@Z
  00012	83 c6 10	 add	 esi, 16			; 00000010H
  00015	8d 7b 10	 lea	 edi, DWORD PTR [ebx+16]
  00018	a5		 movsd
  00019	a5		 movsd
  0001a	a5		 movsd
  0001b	5f		 pop	 edi
  0001c	5e		 pop	 esi

; 256  : 		}

  0001d	8b c3		 mov	 eax, ebx
  0001f	5b		 pop	 ebx
  00020	5d		 pop	 ebp
  00021	c2 04 00	 ret	 4
??$?0$$CBVioHashString@@UD3DXVECTOR3@@@?$pair@$$CBVioHashString@@UD3DXVECTOR3@@@std@@QAE@$$QAU01@@Z ENDP ; std::pair<ioHashString const ,D3DXVECTOR3>::pair<ioHashString const ,D3DXVECTOR3><ioHashString const ,D3DXVECTOR3>
_TEXT	ENDS
PUBLIC	??0?$vector@VioHashString@@V?$allocator@VioHashString@@@std@@@std@@QAE@XZ ; std::vector<ioHashString,std::allocator<ioHashString> >::vector<ioHashString,std::allocator<ioHashString> >
; Function compile flags: /Ogsp
; File c:\program files (x86)\microsoft visual studio 10.0\vc\include\vector
;	COMDAT ??0?$vector@VioHashString@@V?$allocator@VioHashString@@@std@@@std@@QAE@XZ
_TEXT	SEGMENT
??0?$vector@VioHashString@@V?$allocator@VioHashString@@@std@@@std@@QAE@XZ PROC ; std::vector<ioHashString,std::allocator<ioHashString> >::vector<ioHashString,std::allocator<ioHashString> >, COMDAT
; _this$ = ecx

; 507  : 		{	// construct empty vector

  00000	8b c1		 mov	 eax, ecx
  00002	33 c9		 xor	 ecx, ecx
  00004	89 08		 mov	 DWORD PTR [eax], ecx
  00006	89 48 04	 mov	 DWORD PTR [eax+4], ecx
  00009	89 48 08	 mov	 DWORD PTR [eax+8], ecx

; 508  : 		}

  0000c	c3		 ret	 0
??0?$vector@VioHashString@@V?$allocator@VioHashString@@@std@@@std@@QAE@XZ ENDP ; std::vector<ioHashString,std::allocator<ioHashString> >::vector<ioHashString,std::allocator<ioHashString> >
_TEXT	ENDS
PUBLIC	??9?$_Vector_const_iterator@V?$_Vector_val@VioHashString@@V?$allocator@VioHashString@@@std@@@std@@@std@@QBE_NABV01@@Z ; std::_Vector_const_iterator<std::_Vector_val<ioHashString,std::allocator<ioHashString> > >::operator!=
; Function compile flags: /Ogsp
;	COMDAT ??9?$_Vector_const_iterator@V?$_Vector_val@VioHashString@@V?$allocator@VioHashString@@@std@@@std@@@std@@QBE_NABV01@@Z
_TEXT	SEGMENT
__Right$ = 8						; size = 4
??9?$_Vector_const_iterator@V?$_Vector_val@VioHashString@@V?$allocator@VioHashString@@@std@@@std@@@std@@QBE_NABV01@@Z PROC ; std::_Vector_const_iterator<std::_Vector_val<ioHashString,std::allocator<ioHashString> > >::operator!=, COMDAT
; _this$ = ecx

; 207  : 		{	// test for iterator inequality

  00000	55		 push	 ebp
  00001	8b ec		 mov	 ebp, esp

; 208  : 		return (!(*this == _Right));

  00003	8b 01		 mov	 eax, DWORD PTR [ecx]
  00005	8b 55 08	 mov	 edx, DWORD PTR __Right$[ebp]
  00008	33 c9		 xor	 ecx, ecx
  0000a	3b 02		 cmp	 eax, DWORD PTR [edx]
  0000c	0f 95 c0	 setne	 al

; 209  : 		}

  0000f	5d		 pop	 ebp
  00010	c2 04 00	 ret	 4
??9?$_Vector_const_iterator@V?$_Vector_val@VioHashString@@V?$allocator@VioHashString@@@std@@@std@@@std@@QBE_NABV01@@Z ENDP ; std::_Vector_const_iterator<std::_Vector_val<ioHashString,std::allocator<ioHashString> > >::operator!=
_TEXT	ENDS
PUBLIC	??$_Move@PAVioHashString@@PAV1@@std@@YAPAVioHashString@@PAV1@00@Z ; std::_Move<ioHashString *,ioHashString *>
; Function compile flags: /Ogsp
; File c:\program files (x86)\microsoft visual studio 10.0\vc\include\xutility
;	COMDAT ??$_Move@PAVioHashString@@PAV1@@std@@YAPAVioHashString@@PAV1@00@Z
_TEXT	SEGMENT
__Cat$512604 = -4					; size = 1
__First$ = 8						; size = 4
__Last$ = 12						; size = 4
__Dest$ = 16						; size = 4
??$_Move@PAVioHashString@@PAV1@@std@@YAPAVioHashString@@PAV1@00@Z PROC ; std::_Move<ioHashString *,ioHashString *>, COMDAT

; 2533 : 	{	// move [_First, _Last) to [_Dest, ...), unchecked

  00000	55		 push	 ebp
  00001	8b ec		 mov	 ebp, esp
  00003	51		 push	 ecx

; 2534 : 	return (_Move(_First, _Last,
; 2535 : 		_Dest, _Ptr_cat(_First, _Dest)));

  00004	ff 75 fc	 push	 DWORD PTR __Cat$512604[ebp]
  00007	ff 75 10	 push	 DWORD PTR __Dest$[ebp]
  0000a	ff 75 0c	 push	 DWORD PTR __Last$[ebp]
  0000d	ff 75 08	 push	 DWORD PTR __First$[ebp]
  00010	e8 00 00 00 00	 call	 ??$_Move@PAVioHashString@@PAV1@@std@@YAPAVioHashString@@PAV1@00U_Nonscalar_ptr_iterator_tag@0@@Z ; std::_Move<ioHashString *,ioHashString *>
  00015	83 c4 10	 add	 esp, 16			; 00000010H

; 2536 : 	}

  00018	c9		 leave
  00019	c3		 ret	 0
??$_Move@PAVioHashString@@PAV1@@std@@YAPAVioHashString@@PAV1@00@Z ENDP ; std::_Move<ioHashString *,ioHashString *>
_TEXT	ENDS
PUBLIC	?destroy@?$allocator@VioHashString@@@std@@QAEXPAVioHashString@@@Z ; std::allocator<ioHashString>::destroy
; Function compile flags: /Ogsp
; File c:\program files (x86)\microsoft visual studio 10.0\vc\include\xmemory
;	COMDAT ?destroy@?$allocator@VioHashString@@@std@@QAEXPAVioHashString@@@Z
_TEXT	SEGMENT
__Ptr$ = 8						; size = 4
?destroy@?$allocator@VioHashString@@@std@@QAEXPAVioHashString@@@Z PROC ; std::allocator<ioHashString>::destroy, COMDAT
; _this$ = ecx

; 212  : 		{	// destroy object at _Ptr

  00000	55		 push	 ebp
  00001	8b ec		 mov	 ebp, esp

; 213  : 		_Destroy(_Ptr);

  00003	8b 4d 08	 mov	 ecx, DWORD PTR __Ptr$[ebp]
  00006	ff 15 00 00 00
	00		 call	 DWORD PTR __imp_??1ioHashString@@QAE@XZ

; 214  : 		}

  0000c	5d		 pop	 ebp
  0000d	c2 04 00	 ret	 4
?destroy@?$allocator@VioHashString@@@std@@QAEXPAVioHashString@@@Z ENDP ; std::allocator<ioHashString>::destroy
_TEXT	ENDS
PUBLIC	?ShadowMapEnable@ioWorldMesh@@QAEX_N@Z		; ioWorldMesh::ShadowMapEnable
EXTRN	__imp_?AddPassProperty@ioPass@@QAEXW4PassProperty@1@@Z:PROC
EXTRN	__imp_?HasRenderShadowShader@ioPass@@QBE_NXZ:PROC
EXTRN	__imp_?GetPass@ioTechnique@@QAEPAVioPass@@H@Z:PROC
EXTRN	__imp_?GetSubEntity@ioEntity@@QAEPAVioSubEntity@@H@Z:PROC
EXTRN	__imp_?GetNumSubEntity@ioEntity@@QBEHXZ:PROC
EXTRN	__imp_?GetEntity@ioEntityGroup@@QAEPAVioEntity@@H@Z:PROC
EXTRN	__imp_?GetNumEntities@ioEntityGroup@@QBEHXZ:PROC
; Function compile flags: /Ogsp
; File d:\lost saga for developer\youtube\tutorial\source\src\lsclient\ioworldmesh.cpp
;	COMDAT ?ShadowMapEnable@ioWorldMesh@@QAEX_N@Z
_TEXT	SEGMENT
_iEntityCnt$506957 = -20				; size = 4
_iSubEntityCnt$506963 = -16				; size = 4
_this$ = -12						; size = 4
_i$506958 = -8						; size = 4
_j$506964 = -4						; size = 4
_bEnable$ = 8						; size = 1
?ShadowMapEnable@ioWorldMesh@@QAEX_N@Z PROC		; ioWorldMesh::ShadowMapEnable, COMDAT
; _this$ = ecx

; 39   : {

  00000	55		 push	 ebp
  00001	8b ec		 mov	 ebp, esp
  00003	83 ec 14	 sub	 esp, 20			; 00000014H
  00006	56		 push	 esi
  00007	57		 push	 edi
  00008	8b f9		 mov	 edi, ecx

; 40   : 	EntityGroupDataList::iterator iter = m_GroupList.begin();

  0000a	8b 77 08	 mov	 esi, DWORD PTR [edi+8]
  0000d	89 7d f4	 mov	 DWORD PTR _this$[ebp], edi

; 41   : 	for(;iter != m_GroupList.end();++iter)

  00010	3b 77 0c	 cmp	 esi, DWORD PTR [edi+12]
  00013	0f 84 ad 00 00
	00		 je	 $LN10@ShadowMapE
  00019	53		 push	 ebx
$LL25@ShadowMapE:

; 42   : 	{
; 43   : 		EntityGroupData &rkGroupData = *iter;
; 44   : 		if( rkGroupData.m_pGroup == NULL ) continue;

  0001a	83 7e 04 00	 cmp	 DWORD PTR [esi+4], 0
  0001e	0f 84 95 00 00
	00		 je	 $LN11@ShadowMapE

; 45   : 
; 46   : 		rkGroupData.m_pGroup->SetShadowRecvEnable( bEnable );

  00024	8b 4e 04	 mov	 ecx, DWORD PTR [esi+4]
  00027	ff 75 08	 push	 DWORD PTR _bEnable$[ebp]
  0002a	8b 01		 mov	 eax, DWORD PTR [ecx]
  0002c	ff 50 08	 call	 DWORD PTR [eax+8]

; 47   : 		int iEntityCnt = rkGroupData.m_pGroup->GetNumEntities();

  0002f	8b 4e 04	 mov	 ecx, DWORD PTR [esi+4]
  00032	ff 15 00 00 00
	00		 call	 DWORD PTR __imp_?GetNumEntities@ioEntityGroup@@QBEHXZ

; 48   : 		for( int i=0 ; i<iEntityCnt ; i++ )

  00038	83 65 f8 00	 and	 DWORD PTR _i$506958[ebp], 0
  0003c	89 45 ec	 mov	 DWORD PTR _iEntityCnt$506957[ebp], eax
  0003f	85 c0		 test	 eax, eax
  00041	7e 76		 jle	 SHORT $LN11@ShadowMapE
$LL52@ShadowMapE:

; 49   : 		{
; 50   : 			ioEntity *pEntity = rkGroupData.m_pGroup->GetEntity( i );

  00043	ff 75 f8	 push	 DWORD PTR _i$506958[ebp]
  00046	8b 4e 04	 mov	 ecx, DWORD PTR [esi+4]
  00049	ff 15 00 00 00
	00		 call	 DWORD PTR __imp_?GetEntity@ioEntityGroup@@QAEPAVioEntity@@H@Z
  0004f	8b d8		 mov	 ebx, eax

; 51   : 
; 52   : 			int iSubEntityCnt = pEntity->GetNumSubEntity();

  00051	8b cb		 mov	 ecx, ebx
  00053	ff 15 00 00 00
	00		 call	 DWORD PTR __imp_?GetNumSubEntity@ioEntity@@QBEHXZ

; 53   : 			for( int j=0 ; j<iSubEntityCnt ; j++ )

  00059	83 65 fc 00	 and	 DWORD PTR _j$506964[ebp], 0
  0005d	89 45 f0	 mov	 DWORD PTR _iSubEntityCnt$506963[ebp], eax
  00060	85 c0		 test	 eax, eax
  00062	7e 4a		 jle	 SHORT $LN7@ShadowMapE
$LL53@ShadowMapE:

; 54   : 			{
; 55   : 				ioTechnique *pTech = pEntity->GetSubEntity( j )->GetTechnique();

  00064	ff 75 fc	 push	 DWORD PTR _j$506964[ebp]
  00067	8b cb		 mov	 ecx, ebx
  00069	ff 15 00 00 00
	00		 call	 DWORD PTR __imp_?GetSubEntity@ioEntity@@QAEPAVioSubEntity@@H@Z
  0006f	8b 10		 mov	 edx, DWORD PTR [eax]
  00071	8b c8		 mov	 ecx, eax
  00073	ff 52 14	 call	 DWORD PTR [edx+20]

; 56   : 				if( !pTech )	continue;

  00076	85 c0		 test	 eax, eax
  00078	74 29		 je	 SHORT $LN4@ShadowMapE

; 57   : 
; 58   : 				ioPass *pPass = pTech->GetPass( 0 );

  0007a	6a 00		 push	 0
  0007c	8b c8		 mov	 ecx, eax
  0007e	ff 15 00 00 00
	00		 call	 DWORD PTR __imp_?GetPass@ioTechnique@@QAEPAVioPass@@H@Z
  00084	8b f8		 mov	 edi, eax

; 59   : 				if( pPass && pPass->HasRenderShadowShader() )

  00086	85 ff		 test	 edi, edi
  00088	74 16		 je	 SHORT $LN51@ShadowMapE
  0008a	8b cf		 mov	 ecx, edi
  0008c	ff 15 00 00 00
	00		 call	 DWORD PTR __imp_?HasRenderShadowShader@ioPass@@QBE_NXZ
  00092	84 c0		 test	 al, al
  00094	74 0a		 je	 SHORT $LN51@ShadowMapE

; 60   : 				{
; 61   : 					pPass->AddPassProperty( ioPass::PP_SHADOW_RECV_PASS );

  00096	6a 02		 push	 2
  00098	8b cf		 mov	 ecx, edi
  0009a	ff 15 00 00 00
	00		 call	 DWORD PTR __imp_?AddPassProperty@ioPass@@QAEXW4PassProperty@1@@Z
$LN51@ShadowMapE:
  000a0	8b 7d f4	 mov	 edi, DWORD PTR _this$[ebp]
$LN4@ShadowMapE:

; 53   : 			for( int j=0 ; j<iSubEntityCnt ; j++ )

  000a3	ff 45 fc	 inc	 DWORD PTR _j$506964[ebp]
  000a6	8b 45 fc	 mov	 eax, DWORD PTR _j$506964[ebp]
  000a9	3b 45 f0	 cmp	 eax, DWORD PTR _iSubEntityCnt$506963[ebp]
  000ac	7c b6		 jl	 SHORT $LL53@ShadowMapE
$LN7@ShadowMapE:

; 48   : 		for( int i=0 ; i<iEntityCnt ; i++ )

  000ae	ff 45 f8	 inc	 DWORD PTR _i$506958[ebp]
  000b1	8b 45 f8	 mov	 eax, DWORD PTR _i$506958[ebp]
  000b4	3b 45 ec	 cmp	 eax, DWORD PTR _iEntityCnt$506957[ebp]
  000b7	7c 8a		 jl	 SHORT $LL52@ShadowMapE
$LN11@ShadowMapE:

; 41   : 	for(;iter != m_GroupList.end();++iter)

  000b9	83 c6 08	 add	 esi, 8
  000bc	3b 77 0c	 cmp	 esi, DWORD PTR [edi+12]
  000bf	0f 85 55 ff ff
	ff		 jne	 $LL25@ShadowMapE
  000c5	5b		 pop	 ebx
$LN10@ShadowMapE:
  000c6	5f		 pop	 edi
  000c7	5e		 pop	 esi

; 62   : 				}
; 63   : 			}
; 64   : 		}
; 65   : 	}	
; 66   : }

  000c8	c9		 leave
  000c9	c2 04 00	 ret	 4
?ShadowMapEnable@ioWorldMesh@@QAEX_N@Z ENDP		; ioWorldMesh::ShadowMapEnable
_TEXT	ENDS
PUBLIC	?MapEdgeEnable@ioWorldMesh@@QAEX_N@Z		; ioWorldMesh::MapEdgeEnable
EXTRN	__imp_?EnableEdgeRender@ioEntityGroup@@QAEX_N@Z:PROC
; Function compile flags: /Ogsp
;	COMDAT ?MapEdgeEnable@ioWorldMesh@@QAEX_N@Z
_TEXT	SEGMENT
_bEnable$ = 8						; size = 1
?MapEdgeEnable@ioWorldMesh@@QAEX_N@Z PROC		; ioWorldMesh::MapEdgeEnable, COMDAT
; _this$ = ecx

; 69   : {

  00000	55		 push	 ebp
  00001	8b ec		 mov	 ebp, esp
  00003	56		 push	 esi
  00004	57		 push	 edi
  00005	8b f9		 mov	 edi, ecx

; 70   : 	EntityGroupDataList::iterator iter = m_GroupList.begin();

  00007	8b 77 08	 mov	 esi, DWORD PTR [edi+8]
  0000a	eb 13		 jmp	 SHORT $LN39@MapEdgeEna

; 71   : 	for(;iter != m_GroupList.end();++iter)

$LL17@MapEdgeEna:

; 72   : 	{
; 73   : 		EntityGroupData &rkGroupData = *iter;
; 74   : 		if( rkGroupData.m_pGroup == NULL ) continue;

  0000c	8b 4e 04	 mov	 ecx, DWORD PTR [esi+4]
  0000f	85 c9		 test	 ecx, ecx
  00011	74 09		 je	 SHORT $LN3@MapEdgeEna

; 75   : 
; 76   : 		rkGroupData.m_pGroup ->EnableEdgeRender( bEnable );

  00013	ff 75 08	 push	 DWORD PTR _bEnable$[ebp]
  00016	ff 15 00 00 00
	00		 call	 DWORD PTR __imp_?EnableEdgeRender@ioEntityGroup@@QAEX_N@Z
$LN3@MapEdgeEna:

; 71   : 	for(;iter != m_GroupList.end();++iter)

  0001c	83 c6 08	 add	 esi, 8
$LN39@MapEdgeEna:
  0001f	3b 77 0c	 cmp	 esi, DWORD PTR [edi+12]
  00022	75 e8		 jne	 SHORT $LL17@MapEdgeEna
  00024	5f		 pop	 edi
  00025	5e		 pop	 esi

; 77   : 	}	
; 78   : }

  00026	5d		 pop	 ebp
  00027	c2 04 00	 ret	 4
?MapEdgeEnable@ioWorldMesh@@QAEX_N@Z ENDP		; ioWorldMesh::MapEdgeEnable
_TEXT	ENDS
PUBLIC	?StopAllTextureEffect@ioWorldMesh@@QAEX_N@Z	; ioWorldMesh::StopAllTextureEffect
EXTRN	__imp_?StopAllTextureEffect@ioMaterial@@QAEX_N@Z:PROC
; Function compile flags: /Ogsp
;	COMDAT ?StopAllTextureEffect@ioWorldMesh@@QAEX_N@Z
_TEXT	SEGMENT
_this$ = -16						; size = 4
_iEntityCnt$506996 = -12				; size = 4
_iSubEntityCnt$507002 = -8				; size = 4
_i$506997 = -4						; size = 4
_bStop$ = 8						; size = 1
?StopAllTextureEffect@ioWorldMesh@@QAEX_N@Z PROC	; ioWorldMesh::StopAllTextureEffect, COMDAT
; _this$ = ecx

; 81   : {

  00000	55		 push	 ebp
  00001	8b ec		 mov	 ebp, esp
  00003	83 ec 10	 sub	 esp, 16			; 00000010H
  00006	56		 push	 esi
  00007	57		 push	 edi
  00008	8b f9		 mov	 edi, ecx

; 82   : 	EntityGroupDataList::iterator iter = m_GroupList.begin();

  0000a	8b 77 08	 mov	 esi, DWORD PTR [edi+8]
  0000d	89 7d f0	 mov	 DWORD PTR _this$[ebp], edi

; 83   : 	for(;iter != m_GroupList.end();++iter)

  00010	3b 77 0c	 cmp	 esi, DWORD PTR [edi+12]
  00013	74 73		 je	 SHORT $LN9@StopAllTex
  00015	53		 push	 ebx
$LL24@StopAllTex:

; 84   : 	{
; 85   : 		EntityGroupData &rkGroupData = *iter;
; 86   : 		if( rkGroupData.m_pGroup == NULL ) continue;

  00016	8b 4e 04	 mov	 ecx, DWORD PTR [esi+4]
  00019	85 c9		 test	 ecx, ecx
  0001b	74 62		 je	 SHORT $LN10@StopAllTex

; 87   : 
; 88   : 		int iEntityCnt = rkGroupData.m_pGroup->GetNumEntities();

  0001d	ff 15 00 00 00
	00		 call	 DWORD PTR __imp_?GetNumEntities@ioEntityGroup@@QBEHXZ

; 89   : 		for( int i=0 ; i<iEntityCnt ; i++ )

  00023	83 65 fc 00	 and	 DWORD PTR _i$506997[ebp], 0
  00027	89 45 f4	 mov	 DWORD PTR _iEntityCnt$506996[ebp], eax
  0002a	85 c0		 test	 eax, eax
  0002c	7e 51		 jle	 SHORT $LN10@StopAllTex
$LL50@StopAllTex:

; 90   : 		{
; 91   : 			ioEntity *pEntity = rkGroupData.m_pGroup->GetEntity( i );

  0002e	ff 75 fc	 push	 DWORD PTR _i$506997[ebp]
  00031	8b 4e 04	 mov	 ecx, DWORD PTR [esi+4]
  00034	ff 15 00 00 00
	00		 call	 DWORD PTR __imp_?GetEntity@ioEntityGroup@@QAEPAVioEntity@@H@Z
  0003a	8b f8		 mov	 edi, eax

; 92   : 
; 93   : 			int iSubEntityCnt = pEntity->GetNumSubEntity();

  0003c	8b cf		 mov	 ecx, edi
  0003e	ff 15 00 00 00
	00		 call	 DWORD PTR __imp_?GetNumSubEntity@ioEntity@@QBEHXZ

; 94   : 			for( int j=0 ; j<iSubEntityCnt ; j++ )

  00044	33 db		 xor	 ebx, ebx
  00046	89 45 f8	 mov	 DWORD PTR _iSubEntityCnt$507002[ebp], eax
  00049	85 c0		 test	 eax, eax
  0004b	7e 24		 jle	 SHORT $LN6@StopAllTex
$LL4@StopAllTex:

; 95   : 			{
; 96   : 				ioMaterial *pMaterial = pEntity->GetSubEntity( j )->GetMaterial();

  0004d	53		 push	 ebx
  0004e	8b cf		 mov	 ecx, edi
  00050	ff 15 00 00 00
	00		 call	 DWORD PTR __imp_?GetSubEntity@ioEntity@@QAEPAVioSubEntity@@H@Z
  00056	8b 10		 mov	 edx, DWORD PTR [eax]
  00058	8b c8		 mov	 ecx, eax
  0005a	ff 12		 call	 DWORD PTR [edx]

; 97   : 				if( pMaterial )

  0005c	85 c0		 test	 eax, eax
  0005e	74 0b		 je	 SHORT $LN3@StopAllTex

; 98   : 				{
; 99   : 					pMaterial->StopAllTextureEffect( bStop );

  00060	ff 75 08	 push	 DWORD PTR _bStop$[ebp]
  00063	8b c8		 mov	 ecx, eax
  00065	ff 15 00 00 00
	00		 call	 DWORD PTR __imp_?StopAllTextureEffect@ioMaterial@@QAEX_N@Z
$LN3@StopAllTex:

; 94   : 			for( int j=0 ; j<iSubEntityCnt ; j++ )

  0006b	43		 inc	 ebx
  0006c	3b 5d f8	 cmp	 ebx, DWORD PTR _iSubEntityCnt$507002[ebp]
  0006f	7c dc		 jl	 SHORT $LL4@StopAllTex
$LN6@StopAllTex:

; 89   : 		for( int i=0 ; i<iEntityCnt ; i++ )

  00071	ff 45 fc	 inc	 DWORD PTR _i$506997[ebp]
  00074	8b 45 fc	 mov	 eax, DWORD PTR _i$506997[ebp]
  00077	3b 45 f4	 cmp	 eax, DWORD PTR _iEntityCnt$506996[ebp]
  0007a	7c b2		 jl	 SHORT $LL50@StopAllTex
  0007c	8b 7d f0	 mov	 edi, DWORD PTR _this$[ebp]
$LN10@StopAllTex:

; 83   : 	for(;iter != m_GroupList.end();++iter)

  0007f	83 c6 08	 add	 esi, 8
  00082	3b 77 0c	 cmp	 esi, DWORD PTR [edi+12]
  00085	75 8f		 jne	 SHORT $LL24@StopAllTex
  00087	5b		 pop	 ebx
$LN9@StopAllTex:
  00088	5f		 pop	 edi
  00089	5e		 pop	 esi

; 100  : 				}
; 101  : 			}
; 102  : 		}
; 103  : 	}		
; 104  : }

  0008a	c9		 leave
  0008b	c2 04 00	 ret	 4
?StopAllTextureEffect@ioWorldMesh@@QAEX_N@Z ENDP	; ioWorldMesh::StopAllTextureEffect
_TEXT	ENDS
PUBLIC	?Update@ioWorldMesh@@QAEXXZ			; ioWorldMesh::Update
; Function compile flags: /Ogsp
;	COMDAT ?Update@ioWorldMesh@@QAEXXZ
_TEXT	SEGMENT
?Update@ioWorldMesh@@QAEXXZ PROC			; ioWorldMesh::Update, COMDAT
; _this$ = ecx

; 198  : {

  00000	57		 push	 edi
  00001	8b f9		 mov	 edi, ecx

; 199  : 	if( m_pCreator == NULL ) return;

  00003	8b 47 04	 mov	 eax, DWORD PTR [edi+4]
  00006	85 c0		 test	 eax, eax
  00008	74 3e		 je	 SHORT $LN4@Update

; 200  : 
; 201  : 	int iCurrentMapIndex = m_pCreator->GetMultiMapCurrentIndex();

  0000a	53		 push	 ebx
  0000b	8b 98 a0 05 00
	00		 mov	 ebx, DWORD PTR [eax+1440]
  00011	56		 push	 esi

; 202  : 
; 203  : 	EntityGroupDataList::iterator iter = m_GroupList.begin();

  00012	8b 77 08	 mov	 esi, DWORD PTR [edi+8]
  00015	eb 2a		 jmp	 SHORT $LN47@Update
$LL44@Update:

; 205  : 	{
; 206  : 		EntityGroupData &rkGroupData = *iter;
; 207  : 		if( rkGroupData.m_pGroup == NULL ) continue;

  00017	83 7e 04 00	 cmp	 DWORD PTR [esi+4], 0
  0001b	74 21		 je	 SHORT $LN5@Update

; 208  : 		if( !COMPARE( rkGroupData.m_iMapIndex, iCurrentMapIndex - 1, iCurrentMapIndex + 2 ) ) continue;

  0001d	8b 06		 mov	 eax, DWORD PTR [esi]
  0001f	8d 4b ff	 lea	 ecx, DWORD PTR [ebx-1]
  00022	3b c1		 cmp	 eax, ecx
  00024	7c 18		 jl	 SHORT $LN5@Update
  00026	8d 4b 02	 lea	 ecx, DWORD PTR [ebx+2]
  00029	3b c1		 cmp	 eax, ecx
  0002b	7d 11		 jge	 SHORT $LN5@Update

; 209  : 
; 210  : 		rkGroupData.m_pGroup->Update( 0.0f );

  0002d	8b 4e 04	 mov	 ecx, DWORD PTR [esi+4]
  00030	0f 57 c0	 xorps	 xmm0, xmm0
  00033	8b 01		 mov	 eax, DWORD PTR [ecx]
  00035	51		 push	 ecx
  00036	f3 0f 11 04 24	 movss	 DWORD PTR [esp], xmm0
  0003b	ff 50 40	 call	 DWORD PTR [eax+64]
$LN5@Update:

; 204  : 	for(;iter != m_GroupList.end();++iter)

  0003e	83 c6 08	 add	 esi, 8
$LN47@Update:
  00041	3b 77 0c	 cmp	 esi, DWORD PTR [edi+12]
  00044	75 d1		 jne	 SHORT $LL44@Update
  00046	5e		 pop	 esi
  00047	5b		 pop	 ebx
$LN4@Update:
  00048	5f		 pop	 edi

; 211  : 	}	
; 212  : }

  00049	c3		 ret	 0
?Update@ioWorldMesh@@QAEXXZ ENDP			; ioWorldMesh::Update
_TEXT	ENDS
PUBLIC	?GetEntityGroup@ioWorldMesh@@IAEPAVioEntityGroup@@H@Z ; ioWorldMesh::GetEntityGroup
; Function compile flags: /Ogsp
;	COMDAT ?GetEntityGroup@ioWorldMesh@@IAEPAVioEntityGroup@@H@Z
_TEXT	SEGMENT
_iMapIndex$ = 8						; size = 4
?GetEntityGroup@ioWorldMesh@@IAEPAVioEntityGroup@@H@Z PROC ; ioWorldMesh::GetEntityGroup, COMDAT
; _this$ = ecx

; 215  : {

  00000	55		 push	 ebp
  00001	8b ec		 mov	 ebp, esp

; 216  : 	EntityGroupDataList::iterator iter = m_GroupList.begin();

  00003	8b 41 08	 mov	 eax, DWORD PTR [ecx+8]

; 217  : 	for(;iter != m_GroupList.end();++iter)

  00006	8b 49 0c	 mov	 ecx, DWORD PTR [ecx+12]
  00009	eb 10		 jmp	 SHORT $LN41@GetEntityG
$LL18@GetEntityG:

; 218  : 	{
; 219  : 		EntityGroupData &rkGroupData = *iter;
; 220  : 		if( rkGroupData.m_pGroup == NULL ) continue;

  0000b	83 78 04 00	 cmp	 DWORD PTR [eax+4], 0
  0000f	74 07		 je	 SHORT $LN4@GetEntityG

; 221  : 
; 222  : 		if( rkGroupData.m_iMapIndex == iMapIndex )

  00011	8b 10		 mov	 edx, DWORD PTR [eax]
  00013	3b 55 08	 cmp	 edx, DWORD PTR _iMapIndex$[ebp]
  00016	74 0d		 je	 SHORT $LN39@GetEntityG
$LN4@GetEntityG:

; 217  : 	for(;iter != m_GroupList.end();++iter)

  00018	83 c0 08	 add	 eax, 8
$LN41@GetEntityG:
  0001b	3b c1		 cmp	 eax, ecx
  0001d	75 ec		 jne	 SHORT $LL18@GetEntityG

; 225  : 		}
; 226  : 	}	
; 227  : 	return NULL;

  0001f	33 c0		 xor	 eax, eax
$LN6@GetEntityG:

; 228  : }

  00021	5d		 pop	 ebp
  00022	c2 04 00	 ret	 4
$LN39@GetEntityG:

; 223  : 		{
; 224  : 			return rkGroupData.m_pGroup;

  00025	8b 40 04	 mov	 eax, DWORD PTR [eax+4]
  00028	eb f7		 jmp	 SHORT $LN6@GetEntityG
?GetEntityGroup@ioWorldMesh@@IAEPAVioEntityGroup@@H@Z ENDP ; ioWorldMesh::GetEntityGroup
_TEXT	ENDS
PUBLIC	??_C@_0DA@MIICGFLC@ioWorldMesh?3?3CreateDecal?5?9?5Not?5I@ ; `string'
PUBLIC	_rkName$GSCopy$
PUBLIC	?CreateDecal@ioWorldMesh@@IAEPAVioDecal@@HABVioHashString@@ABVioOrientBox@@M@Z ; ioWorldMesh::CreateDecal
EXTRN	__imp_??1ioDecalMaker@@UAE@XZ:PROC
EXTRN	__imp_??1ioAxisAlignBox@@UAE@XZ:PROC
EXTRN	__imp_?BuildDecal@ioDecalMaker@@QAEPAVioDecal@@ABVioHashString@@H@Z:PROC
EXTRN	__imp_?AddDecal@ioDecalMaker@@QAEXPAVioEntity@@@Z:PROC
EXTRN	__imp_?TestIntersection@ioMath@@SA_NABVioAxisAlignBox@@0@Z:PROC
EXTRN	__imp_?GetBoundBox@ioEntity@@QBEABVioAxisAlignBox@@XZ:PROC
EXTRN	__imp_?SetByOrientBox@ioAxisAlignBox@@QAEXABVioOrientBox@@@Z:PROC
EXTRN	__imp_??0ioAxisAlignBox@@QAE@XZ:PROC
EXTRN	__imp_?Initialize@ioDecalMaker@@QAEXABVioOrientBox@@M@Z:PROC
EXTRN	__imp_??0ioDecalMaker@@QAE@XZ:PROC
EXTRN	__imp_?PrintTimeAndLog@CLog@@QAAXHPADZZ:PROC
EXTRN	__imp_?LOG@@3VCLog@@A:BYTE
EXTRN	__EH_epilog3_GS:PROC
EXTRN	__EH_prolog3_GS:PROC
;	COMDAT ??_C@_0DA@MIICGFLC@ioWorldMesh?3?3CreateDecal?5?9?5Not?5I@
CONST	SEGMENT
??_C@_0DA@MIICGFLC@ioWorldMesh?3?3CreateDecal?5?9?5Not?5I@ DB 'ioWorldMes'
	DB	'h::CreateDecal - Not Initialized - %d', 00H	; `string'
CONST	ENDS
;	COMDAT xdata$x
xdata$x	SEGMENT
__unwindtable$?CreateDecal@ioWorldMesh@@IAEPAVioDecal@@HABVioHashString@@ABVioOrientBox@@M@Z DD 0ffffffffH
	DD	FLAT:__unwindfunclet$?CreateDecal@ioWorldMesh@@IAEPAVioDecal@@HABVioHashString@@ABVioOrientBox@@M@Z$0
	DD	00H
	DD	FLAT:__unwindfunclet$?CreateDecal@ioWorldMesh@@IAEPAVioDecal@@HABVioHashString@@ABVioOrientBox@@M@Z$1
__ehfuncinfo$?CreateDecal@ioWorldMesh@@IAEPAVioDecal@@HABVioHashString@@ABVioOrientBox@@M@Z DD 019930522H
	DD	02H
	DD	FLAT:__unwindtable$?CreateDecal@ioWorldMesh@@IAEPAVioDecal@@HABVioHashString@@ABVioOrientBox@@M@Z
	DD	2 DUP(00H)
	DD	2 DUP(00H)
	DD	00H
	DD	01H
; Function compile flags: /Ogsp
xdata$x	ENDS
;	COMDAT ?CreateDecal@ioWorldMesh@@IAEPAVioDecal@@HABVioHashString@@ABVioOrientBox@@M@Z
_TEXT	SEGMENT
_iEntityCnt$ = -204					; size = 4
_rkName$GSCopy$ = -200					; size = 4
_kMaker$ = -196						; size = 132
_kBoundAABB$ = -64					; size = 48
__$EHRec$ = -12						; size = 12
_iMapIndex$ = 8						; size = 4
_rkName$ = 12						; size = 4
_rkBound$ = 16						; size = 4
_fEpsilon$ = 20						; size = 4
?CreateDecal@ioWorldMesh@@IAEPAVioDecal@@HABVioHashString@@ABVioOrientBox@@M@Z PROC ; ioWorldMesh::CreateDecal, COMDAT
; _this$ = ecx

; 231  : {

  00000	68 c0 00 00 00	 push	 192			; 000000c0H
  00005	b8 00 00 00 00	 mov	 eax, __ehhandler$?CreateDecal@ioWorldMesh@@IAEPAVioDecal@@HABVioHashString@@ABVioOrientBox@@M@Z
  0000a	e8 00 00 00 00	 call	 __EH_prolog3_GS
  0000f	8b 75 08	 mov	 esi, DWORD PTR _iMapIndex$[ebp]
  00012	8b 45 0c	 mov	 eax, DWORD PTR _rkName$[ebp]
  00015	8b 7d 10	 mov	 edi, DWORD PTR _rkBound$[ebp]

; 232  : 	ioEntityGroup *pGroup = GetEntityGroup( iMapIndex );

  00018	56		 push	 esi

; 247  : 	for( int i=0 ; i<iEntityCnt ; i++ )

  00019	89 85 38 ff ff
	ff		 mov	 DWORD PTR _rkName$GSCopy$[ebp], eax
  0001f	e8 00 00 00 00	 call	 ?GetEntityGroup@ioWorldMesh@@IAEPAVioEntityGroup@@H@Z ; ioWorldMesh::GetEntityGroup
  00024	8b d8		 mov	 ebx, eax
  00026	85 db		 test	 ebx, ebx
  00028	75 1e		 jne	 SHORT $LN5@CreateDeca

; 233  : 	if( !pGroup )
; 234  : 	{
; 235  : 		LOG.PrintTimeAndLog( 0, "ioWorldMesh::CreateDecal - Not Initialized - %d", iMapIndex + 1 );

  0002a	46		 inc	 esi
  0002b	56		 push	 esi
  0002c	68 00 00 00 00	 push	 OFFSET ??_C@_0DA@MIICGFLC@ioWorldMesh?3?3CreateDecal?5?9?5Not?5I@
  00031	50		 push	 eax
  00032	ff 35 00 00 00
	00		 push	 DWORD PTR __imp_?LOG@@3VCLog@@A
  00038	ff 15 00 00 00
	00		 call	 DWORD PTR __imp_?PrintTimeAndLog@CLog@@QAAXHPADZZ
  0003e	83 c4 10	 add	 esp, 16			; 00000010H

; 236  : 		return NULL;

  00041	33 c0		 xor	 eax, eax
  00043	e9 c2 00 00 00	 jmp	 $LN6@CreateDeca
$LN5@CreateDeca:

; 237  : 	}
; 238  : 
; 239  : 	ioDecalMaker kMaker;

  00048	8d 8d 3c ff ff
	ff		 lea	 ecx, DWORD PTR _kMaker$[ebp]
  0004e	ff 15 00 00 00
	00		 call	 DWORD PTR __imp_??0ioDecalMaker@@QAE@XZ

; 240  : 	kMaker.Initialize( rkBound, fEpsilon );

  00054	f3 0f 10 45 14	 movss	 xmm0, DWORD PTR _fEpsilon$[ebp]
  00059	83 65 fc 00	 and	 DWORD PTR __$EHRec$[ebp+8], 0
  0005d	51		 push	 ecx
  0005e	f3 0f 11 04 24	 movss	 DWORD PTR [esp], xmm0
  00063	57		 push	 edi
  00064	8d 8d 3c ff ff
	ff		 lea	 ecx, DWORD PTR _kMaker$[ebp]
  0006a	ff 15 00 00 00
	00		 call	 DWORD PTR __imp_?Initialize@ioDecalMaker@@QAEXABVioOrientBox@@M@Z

; 241  : 
; 242  : 	ioAxisAlignBox kBoundAABB;

  00070	8d 4d c0	 lea	 ecx, DWORD PTR _kBoundAABB$[ebp]
  00073	ff 15 00 00 00
	00		 call	 DWORD PTR __imp_??0ioAxisAlignBox@@QAE@XZ

; 243  : 	kBoundAABB.SetByOrientBox( rkBound );

  00079	57		 push	 edi
  0007a	8d 4d c0	 lea	 ecx, DWORD PTR _kBoundAABB$[ebp]
  0007d	c6 45 fc 01	 mov	 BYTE PTR __$EHRec$[ebp+8], 1
  00081	ff 15 00 00 00
	00		 call	 DWORD PTR __imp_?SetByOrientBox@ioAxisAlignBox@@QAEXABVioOrientBox@@@Z

; 244  : 
; 245  : 	ioEntity *pEntity;
; 246  : 	int iEntityCnt = pGroup->GetNumEntities();

  00087	8b cb		 mov	 ecx, ebx
  00089	ff 15 00 00 00
	00		 call	 DWORD PTR __imp_?GetNumEntities@ioEntityGroup@@QBEHXZ

; 247  : 	for( int i=0 ; i<iEntityCnt ; i++ )

  0008f	33 ff		 xor	 edi, edi
  00091	89 85 34 ff ff
	ff		 mov	 DWORD PTR _iEntityCnt$[ebp], eax
  00097	85 c0		 test	 eax, eax
  00099	7e 3a		 jle	 SHORT $LN2@CreateDeca
$LL4@CreateDeca:

; 248  : 	{
; 249  : 		pEntity = pGroup->GetEntity( i );

  0009b	57		 push	 edi
  0009c	8b cb		 mov	 ecx, ebx
  0009e	ff 15 00 00 00
	00		 call	 DWORD PTR __imp_?GetEntity@ioEntityGroup@@QAEPAVioEntity@@H@Z
  000a4	8b f0		 mov	 esi, eax

; 250  : 
; 251  : 		if( ioMath::TestIntersection( kBoundAABB, pEntity->GetBoundBox() ) )

  000a6	8b ce		 mov	 ecx, esi
  000a8	ff 15 00 00 00
	00		 call	 DWORD PTR __imp_?GetBoundBox@ioEntity@@QBEABVioAxisAlignBox@@XZ
  000ae	50		 push	 eax
  000af	8d 45 c0	 lea	 eax, DWORD PTR _kBoundAABB$[ebp]
  000b2	50		 push	 eax
  000b3	ff 15 00 00 00
	00		 call	 DWORD PTR __imp_?TestIntersection@ioMath@@SA_NABVioAxisAlignBox@@0@Z
  000b9	59		 pop	 ecx
  000ba	59		 pop	 ecx
  000bb	84 c0		 test	 al, al
  000bd	74 0d		 je	 SHORT $LN3@CreateDeca

; 252  : 		{
; 253  : 			kMaker.AddDecal( pEntity );

  000bf	56		 push	 esi
  000c0	8d 8d 3c ff ff
	ff		 lea	 ecx, DWORD PTR _kMaker$[ebp]
  000c6	ff 15 00 00 00
	00		 call	 DWORD PTR __imp_?AddDecal@ioDecalMaker@@QAEXPAVioEntity@@@Z
$LN3@CreateDeca:

; 247  : 	for( int i=0 ; i<iEntityCnt ; i++ )

  000cc	47		 inc	 edi
  000cd	3b bd 34 ff ff
	ff		 cmp	 edi, DWORD PTR _iEntityCnt$[ebp]
  000d3	7c c6		 jl	 SHORT $LL4@CreateDeca
$LN2@CreateDeca:

; 254  : 		}
; 255  : 	}
; 256  : 
; 257  : 	return kMaker.BuildDecal( rkName );

  000d5	6a 00		 push	 0
  000d7	ff b5 38 ff ff
	ff		 push	 DWORD PTR _rkName$GSCopy$[ebp]
  000dd	8d 8d 3c ff ff
	ff		 lea	 ecx, DWORD PTR _kMaker$[ebp]
  000e3	ff 15 00 00 00
	00		 call	 DWORD PTR __imp_?BuildDecal@ioDecalMaker@@QAEPAVioDecal@@ABVioHashString@@H@Z
  000e9	8d 4d c0	 lea	 ecx, DWORD PTR _kBoundAABB$[ebp]
  000ec	8b f0		 mov	 esi, eax
  000ee	c6 45 fc 00	 mov	 BYTE PTR __$EHRec$[ebp+8], 0
  000f2	ff 15 00 00 00
	00		 call	 DWORD PTR __imp_??1ioAxisAlignBox@@UAE@XZ
  000f8	83 4d fc ff	 or	 DWORD PTR __$EHRec$[ebp+8], -1
  000fc	8d 8d 3c ff ff
	ff		 lea	 ecx, DWORD PTR _kMaker$[ebp]
  00102	ff 15 00 00 00
	00		 call	 DWORD PTR __imp_??1ioDecalMaker@@UAE@XZ
  00108	8b c6		 mov	 eax, esi
$LN6@CreateDeca:

; 258  : }

  0010a	e8 00 00 00 00	 call	 __EH_epilog3_GS
  0010f	c2 10 00	 ret	 16			; 00000010H
_TEXT	ENDS
;	COMDAT text$x
text$x	SEGMENT
__unwindfunclet$?CreateDecal@ioWorldMesh@@IAEPAVioDecal@@HABVioHashString@@ABVioOrientBox@@M@Z$0:
  00000	8d 8d 3c ff ff
	ff		 lea	 ecx, DWORD PTR _kMaker$[ebp]
  00006	ff 25 00 00 00
	00		 jmp	 DWORD PTR __imp_??1ioDecalMaker@@UAE@XZ
__unwindfunclet$?CreateDecal@ioWorldMesh@@IAEPAVioDecal@@HABVioHashString@@ABVioOrientBox@@M@Z$1:
  0000c	8d 4d c0	 lea	 ecx, DWORD PTR _kBoundAABB$[ebp]
  0000f	ff 25 00 00 00
	00		 jmp	 DWORD PTR __imp_??1ioAxisAlignBox@@UAE@XZ
__ehhandler$?CreateDecal@ioWorldMesh@@IAEPAVioDecal@@HABVioHashString@@ABVioOrientBox@@M@Z:
  00015	8b 54 24 08	 mov	 edx, DWORD PTR [esp+8]
  00019	8d 42 0c	 lea	 eax, DWORD PTR [edx+12]
  0001c	8b 8a 30 ff ff
	ff		 mov	 ecx, DWORD PTR [edx-208]
  00022	33 c8		 xor	 ecx, eax
  00024	e8 00 00 00 00	 call	 @__security_check_cookie@4
  00029	8b 4a fc	 mov	 ecx, DWORD PTR [edx-4]
  0002c	33 c8		 xor	 ecx, eax
  0002e	e8 00 00 00 00	 call	 @__security_check_cookie@4
  00033	b8 00 00 00 00	 mov	 eax, OFFSET __ehfuncinfo$?CreateDecal@ioWorldMesh@@IAEPAVioDecal@@HABVioHashString@@ABVioOrientBox@@M@Z
  00038	e9 00 00 00 00	 jmp	 ___CxxFrameHandler3
text$x	ENDS
?CreateDecal@ioWorldMesh@@IAEPAVioDecal@@HABVioHashString@@ABVioOrientBox@@M@Z ENDP ; ioWorldMesh::CreateDecal
PUBLIC	?HasLightDecal@ioWorldMesh@@QAE_NHABVioHashString@@@Z ; ioWorldMesh::HasLightDecal
EXTRN	__imp_?GetDecal@ioEntityGroup@@QBEPAVioDecal@@ABVioHashString@@@Z:PROC
; Function compile flags: /Ogsp
;	COMDAT ?HasLightDecal@ioWorldMesh@@QAE_NHABVioHashString@@@Z
_TEXT	SEGMENT
_iMapIndex$ = 8						; size = 4
_rkName$ = 12						; size = 4
?HasLightDecal@ioWorldMesh@@QAE_NHABVioHashString@@@Z PROC ; ioWorldMesh::HasLightDecal, COMDAT
; _this$ = ecx

; 372  : {

  00000	55		 push	 ebp
  00001	8b ec		 mov	 ebp, esp

; 373  : 	ioEntityGroup *pGroup = GetEntityGroup( iMapIndex );

  00003	ff 75 08	 push	 DWORD PTR _iMapIndex$[ebp]
  00006	e8 00 00 00 00	 call	 ?GetEntityGroup@ioWorldMesh@@IAEPAVioEntityGroup@@H@Z ; ioWorldMesh::GetEntityGroup

; 374  : 	if( !pGroup ) return false;

  0000b	85 c0		 test	 eax, eax
  0000d	75 04		 jne	 SHORT $LN2@HasLightDe
  0000f	32 c0		 xor	 al, al
  00011	eb 10		 jmp	 SHORT $LN1@HasLightDe
$LN2@HasLightDe:

; 375  : 
; 376  : 	if( pGroup->GetDecal( rkName ) )

  00013	ff 75 0c	 push	 DWORD PTR _rkName$[ebp]
  00016	8b c8		 mov	 ecx, eax
  00018	ff 15 00 00 00
	00		 call	 DWORD PTR __imp_?GetDecal@ioEntityGroup@@QBEPAVioDecal@@ABVioHashString@@@Z
  0001e	85 c0		 test	 eax, eax
  00020	0f 95 c0	 setne	 al
$LN1@HasLightDe:

; 377  : 		return true;
; 378  : 
; 379  : 	return false;
; 380  : }

  00023	5d		 pop	 ebp
  00024	c2 08 00	 ret	 8
?HasLightDecal@ioWorldMesh@@QAE_NHABVioHashString@@@Z ENDP ; ioWorldMesh::HasLightDecal
_TEXT	ENDS
PUBLIC	?GetCollisionShape@ioWorldMesh@@QAEPAVioOpcodeShape@@XZ ; ioWorldMesh::GetCollisionShape
EXTRN	__imp_?GetOpcodeShape@ioEntityGroup@@QBEPAVioOpcodeShape@@XZ:PROC
; Function compile flags: /Ogsp
;	COMDAT ?GetCollisionShape@ioWorldMesh@@QAEPAVioOpcodeShape@@XZ
_TEXT	SEGMENT
?GetCollisionShape@ioWorldMesh@@QAEPAVioOpcodeShape@@XZ PROC ; ioWorldMesh::GetCollisionShape, COMDAT
; _this$ = ecx

; 404  : 	if( m_pCreator == NULL )

  00000	83 79 04 00	 cmp	 DWORD PTR [ecx+4], 0

; 405  : 		return NULL;

  00004	74 13		 je	 SHORT $LN1@GetCollisi

; 406  : 
; 407  : 	const ioEntityGroup *pGroup = GetEntityGroup( 0 );//GetEntityGroup( m_pCreator->GetMultiMapCurrentIndex() );

  00006	6a 00		 push	 0
  00008	e8 00 00 00 00	 call	 ?GetEntityGroup@ioWorldMesh@@IAEPAVioEntityGroup@@H@Z ; ioWorldMesh::GetEntityGroup

; 408  : 	if( pGroup )

  0000d	85 c0		 test	 eax, eax
  0000f	74 08		 je	 SHORT $LN1@GetCollisi

; 409  : 		return pGroup->GetOpcodeShape();

  00011	8b c8		 mov	 ecx, eax
  00013	ff 25 00 00 00
	00		 jmp	 DWORD PTR __imp_?GetOpcodeShape@ioEntityGroup@@QBEPAVioOpcodeShape@@XZ
$LN1@GetCollisi:

; 410  : 
; 411  : 	return NULL;

  00019	33 c0		 xor	 eax, eax

; 412  : }

  0001b	c3		 ret	 0
?GetCollisionShape@ioWorldMesh@@QAEPAVioOpcodeShape@@XZ ENDP ; ioWorldMesh::GetCollisionShape
_TEXT	ENDS
PUBLIC	__real@00000000
PUBLIC	__real@47c35000
PUBLIC	_fXPos$GSCopy$
PUBLIC	?GetHeight@ioWorldMesh@@QAEMMM@Z		; ioWorldMesh::GetHeight
EXTRN	__imp_??1ioRay@@QAE@XZ:PROC
EXTRN	__imp_??0ioRay@@QAE@ABUD3DXVECTOR3@@0@Z:PROC
EXTRN	__imp_?UNIT_Y@ioMath@@2UD3DXVECTOR3@@A:BYTE
;	COMDAT __real@00000000
; File c:\program files (x86)\microsoft directx sdk (june 2010)\include\d3dx9math.inl
CONST	SEGMENT
__real@00000000 DD 000000000r			; 0
CONST	ENDS
;	COMDAT __real@47c35000
CONST	SEGMENT
__real@47c35000 DD 047c35000r			; 100000
CONST	ENDS
;	COMDAT xdata$x
xdata$x	SEGMENT
__unwindtable$?GetHeight@ioWorldMesh@@QAEMMM@Z DD 0ffffffffH
	DD	FLAT:__unwindfunclet$?GetHeight@ioWorldMesh@@QAEMMM@Z$0
__ehfuncinfo$?GetHeight@ioWorldMesh@@QAEMMM@Z DD 019930522H
	DD	01H
	DD	FLAT:__unwindtable$?GetHeight@ioWorldMesh@@QAEMMM@Z
	DD	2 DUP(00H)
	DD	2 DUP(00H)
	DD	00H
	DD	01H
; Function compile flags: /Ogsp
; File d:\lost saga for developer\youtube\tutorial\source\src\lsclient\ioworldmesh.cpp
xdata$x	ENDS
;	COMDAT ?GetHeight@ioWorldMesh@@QAEMMM@Z
_TEXT	SEGMENT
_fXPos$GSCopy$ = -80					; size = 4
$T513101 = -80						; size = 4
_kYRay$507803 = -76					; size = 24
$T507801 = -52						; size = 12
$T507802 = -40						; size = 12
_vColPoint$507804 = -28					; size = 12
__$EHRec$ = -12						; size = 12
_fXPos$ = 8						; size = 4
_fZPos$ = 12						; size = 4
?GetHeight@ioWorldMesh@@QAEMMM@Z PROC			; ioWorldMesh::GetHeight, COMDAT
; _this$ = ecx

; 415  : {

  00000	6a 44		 push	 68			; 00000044H
  00002	b8 00 00 00 00	 mov	 eax, __ehhandler$?GetHeight@ioWorldMesh@@QAEMMM@Z
  00007	e8 00 00 00 00	 call	 __EH_prolog3_GS
  0000c	f3 0f 10 45 08	 movss	 xmm0, DWORD PTR _fXPos$[ebp]

; 416  : 	if( m_pCreator == NULL )

  00011	33 ff		 xor	 edi, edi
  00013	f3 0f 11 45 b0	 movss	 DWORD PTR _fXPos$GSCopy$[ebp], xmm0
  00018	39 79 04	 cmp	 DWORD PTR [ecx+4], edi

; 417  : 		return 0.0f;

  0001b	0f 84 cf 00 00
	00		 je	 $LN2@GetHeight

; 418  : 
; 419  : 	const ioEntityGroup *pGroup = GetEntityGroup( 0 );//GetEntityGroup( m_pCreator->GetMultiMapCurrentIndex() );

  00021	57		 push	 edi
  00022	e8 00 00 00 00	 call	 ?GetEntityGroup@ioWorldMesh@@IAEPAVioEntityGroup@@H@Z ; ioWorldMesh::GetEntityGroup

; 420  : 	if( !pGroup )

  00027	3b c7		 cmp	 eax, edi

; 421  : 		return 0.0f;

  00029	0f 84 c1 00 00
	00		 je	 $LN2@GetHeight

; 422  : 
; 423  : 	ioOpcodeShape *pShape = pGroup->GetOpcodeShape();

  0002f	8b c8		 mov	 ecx, eax
  00031	ff 15 00 00 00
	00		 call	 DWORD PTR __imp_?GetOpcodeShape@ioEntityGroup@@QBEPAVioOpcodeShape@@XZ
  00037	8b f0		 mov	 esi, eax

; 424  : 	if( pShape )

  00039	3b f7		 cmp	 esi, edi
  0003b	0f 84 af 00 00
	00		 je	 $LN2@GetHeight

; 425  : 	{
; 426  : 		ioRay kYRay( D3DXVECTOR3(fXPos, 100000.0f, fZPos), -ioMath::UNIT_Y );

  00041	a1 00 00 00 00	 mov	 eax, DWORD PTR __imp_?UNIT_Y@ioMath@@2UD3DXVECTOR3@@A
  00046	f3 0f 10 08	 movss	 xmm1, DWORD PTR [eax]
  0004a	f3 0f 10 50 04	 movss	 xmm2, DWORD PTR [eax+4]
  0004f	f3 0f 10 58 08	 movss	 xmm3, DWORD PTR [eax+8]
  00054	f3 0f 10 05 00
	00 00 00	 movss	 xmm0, DWORD PTR __mask@@NegFloat@
  0005c	0f 57 c8	 xorps	 xmm1, xmm0
  0005f	0f 57 d0	 xorps	 xmm2, xmm0
  00062	0f 57 d8	 xorps	 xmm3, xmm0
  00065	f3 0f 10 45 b0	 movss	 xmm0, DWORD PTR _fXPos$GSCopy$[ebp]
  0006a	8d 45 d8	 lea	 eax, DWORD PTR $T507802[ebp]
  0006d	f3 0f 11 45 cc	 movss	 DWORD PTR $T507801[ebp], xmm0
  00072	f3 0f 10 05 00
	00 00 00	 movss	 xmm0, DWORD PTR __real@47c35000
  0007a	50		 push	 eax
  0007b	8d 45 cc	 lea	 eax, DWORD PTR $T507801[ebp]
  0007e	f3 0f 11 45 d0	 movss	 DWORD PTR $T507801[ebp+4], xmm0
  00083	f3 0f 10 45 0c	 movss	 xmm0, DWORD PTR _fZPos$[ebp]
  00088	50		 push	 eax
  00089	8d 4d b4	 lea	 ecx, DWORD PTR _kYRay$507803[ebp]
  0008c	f3 0f 11 4d d8	 movss	 DWORD PTR $T507802[ebp], xmm1
  00091	f3 0f 11 55 dc	 movss	 DWORD PTR $T507802[ebp+4], xmm2
  00096	f3 0f 11 5d e0	 movss	 DWORD PTR $T507802[ebp+8], xmm3
  0009b	f3 0f 11 45 d4	 movss	 DWORD PTR $T507801[ebp+8], xmm0
  000a0	ff 15 00 00 00
	00		 call	 DWORD PTR __imp_??0ioRay@@QAE@ABUD3DXVECTOR3@@0@Z

; 427  : 		D3DXVECTOR3 vColPoint( 0.0f, 0.0f, 0.0f );

  000a6	0f 57 c0	 xorps	 xmm0, xmm0

; 428  : 
; 429  : 		if( pShape->TestIntersection( NULL, kYRay, NULL, &vColPoint ) )

  000a9	8b 06		 mov	 eax, DWORD PTR [esi]
  000ab	6a 01		 push	 1
  000ad	8d 4d e4	 lea	 ecx, DWORD PTR _vColPoint$507804[ebp]
  000b0	51		 push	 ecx
  000b1	57		 push	 edi
  000b2	8d 4d b4	 lea	 ecx, DWORD PTR _kYRay$507803[ebp]
  000b5	51		 push	 ecx
  000b6	57		 push	 edi
  000b7	8b ce		 mov	 ecx, esi
  000b9	89 7d fc	 mov	 DWORD PTR __$EHRec$[ebp+8], edi
  000bc	f3 0f 11 45 e4	 movss	 DWORD PTR _vColPoint$507804[ebp], xmm0
  000c1	f3 0f 11 45 e8	 movss	 DWORD PTR _vColPoint$507804[ebp+4], xmm0
  000c6	f3 0f 11 45 ec	 movss	 DWORD PTR _vColPoint$507804[ebp+8], xmm0
  000cb	ff 50 28	 call	 DWORD PTR [eax+40]

; 430  : 			return vColPoint.y;

  000ce	83 4d fc ff	 or	 DWORD PTR __$EHRec$[ebp+8], -1
  000d2	8d 4d b4	 lea	 ecx, DWORD PTR _kYRay$507803[ebp]
  000d5	84 c0		 test	 al, al
  000d7	74 11		 je	 SHORT $LN1@GetHeight
  000d9	d9 45 e8	 fld	 DWORD PTR _vColPoint$507804[ebp+4]
  000dc	d9 5d b0	 fstp	 DWORD PTR $T513101[ebp]
  000df	ff 15 00 00 00
	00		 call	 DWORD PTR __imp_??1ioRay@@QAE@XZ
  000e5	d9 45 b0	 fld	 DWORD PTR $T513101[ebp]
  000e8	eb 08		 jmp	 SHORT $LN5@GetHeight
$LN1@GetHeight:

; 431  : 	}

  000ea	ff 15 00 00 00
	00		 call	 DWORD PTR __imp_??1ioRay@@QAE@XZ
$LN2@GetHeight:

; 432  : 
; 433  : 	return 0.0f;

  000f0	d9 ee		 fldz
$LN5@GetHeight:

; 434  : }

  000f2	e8 00 00 00 00	 call	 __EH_epilog3_GS
  000f7	c2 08 00	 ret	 8
_TEXT	ENDS
;	COMDAT text$x
text$x	SEGMENT
__unwindfunclet$?GetHeight@ioWorldMesh@@QAEMMM@Z$0:
  00000	8d 4d b4	 lea	 ecx, DWORD PTR _kYRay$507803[ebp]
  00003	ff 25 00 00 00
	00		 jmp	 DWORD PTR __imp_??1ioRay@@QAE@XZ
__ehhandler$?GetHeight@ioWorldMesh@@QAEMMM@Z:
  00009	8b 54 24 08	 mov	 edx, DWORD PTR [esp+8]
  0000d	8d 42 0c	 lea	 eax, DWORD PTR [edx+12]
  00010	8b 4a ac	 mov	 ecx, DWORD PTR [edx-84]
  00013	33 c8		 xor	 ecx, eax
  00015	e8 00 00 00 00	 call	 @__security_check_cookie@4
  0001a	8b 4a fc	 mov	 ecx, DWORD PTR [edx-4]
  0001d	33 c8		 xor	 ecx, eax
  0001f	e8 00 00 00 00	 call	 @__security_check_cookie@4
  00024	b8 00 00 00 00	 mov	 eax, OFFSET __ehfuncinfo$?GetHeight@ioWorldMesh@@QAEMMM@Z
  00029	e9 00 00 00 00	 jmp	 ___CxxFrameHandler3
text$x	ENDS
?GetHeight@ioWorldMesh@@QAEMMM@Z ENDP			; ioWorldMesh::GetHeight
PUBLIC	?GetHeight@ioWorldMesh@@QAEMABUD3DXVECTOR3@@@Z	; ioWorldMesh::GetHeight
;	COMDAT xdata$x
; File c:\program files (x86)\microsoft directx sdk (june 2010)\include\d3dx9math.inl
xdata$x	SEGMENT
__unwindtable$?GetHeight@ioWorldMesh@@QAEMABUD3DXVECTOR3@@@Z DD 0ffffffffH
	DD	FLAT:__unwindfunclet$?GetHeight@ioWorldMesh@@QAEMABUD3DXVECTOR3@@@Z$0
__ehfuncinfo$?GetHeight@ioWorldMesh@@QAEMABUD3DXVECTOR3@@@Z DD 019930522H
	DD	01H
	DD	FLAT:__unwindtable$?GetHeight@ioWorldMesh@@QAEMABUD3DXVECTOR3@@@Z
	DD	2 DUP(00H)
	DD	2 DUP(00H)
	DD	00H
	DD	01H
; Function compile flags: /Ogsp
; File d:\lost saga for developer\youtube\tutorial\source\src\lsclient\ioworldmesh.cpp
xdata$x	ENDS
;	COMDAT ?GetHeight@ioWorldMesh@@QAEMABUD3DXVECTOR3@@@Z
_TEXT	SEGMENT
$T513134 = -68						; size = 4
_kYRay$507817 = -64					; size = 24
$T507816 = -40						; size = 12
_vColPoint$507818 = -28					; size = 12
__$EHRec$ = -12						; size = 12
_vPos$ = 8						; size = 4
?GetHeight@ioWorldMesh@@QAEMABUD3DXVECTOR3@@@Z PROC	; ioWorldMesh::GetHeight, COMDAT
; _this$ = ecx

; 437  : {

  00000	6a 38		 push	 56			; 00000038H
  00002	b8 00 00 00 00	 mov	 eax, __ehhandler$?GetHeight@ioWorldMesh@@QAEMABUD3DXVECTOR3@@@Z
  00007	e8 00 00 00 00	 call	 __EH_prolog3_GS
  0000c	8b 5d 08	 mov	 ebx, DWORD PTR _vPos$[ebp]

; 438  : 	if( m_pCreator == NULL )

  0000f	33 ff		 xor	 edi, edi
  00011	39 79 04	 cmp	 DWORD PTR [ecx+4], edi

; 439  : 		return 0.0f;

  00014	0f 84 ab 00 00
	00		 je	 $LN2@GetHeight@2

; 440  : 
; 441  : 	const ioEntityGroup *pGroup = GetEntityGroup( 0 );//GetEntityGroup( m_pCreator->GetMultiMapCurrentIndex() );

  0001a	57		 push	 edi
  0001b	e8 00 00 00 00	 call	 ?GetEntityGroup@ioWorldMesh@@IAEPAVioEntityGroup@@H@Z ; ioWorldMesh::GetEntityGroup

; 442  : 	if( !pGroup )

  00020	3b c7		 cmp	 eax, edi

; 443  : 		return 0.0f;

  00022	0f 84 9d 00 00
	00		 je	 $LN2@GetHeight@2

; 444  : 
; 445  : 	ioOpcodeShape *pShape = pGroup->GetOpcodeShape();

  00028	8b c8		 mov	 ecx, eax
  0002a	ff 15 00 00 00
	00		 call	 DWORD PTR __imp_?GetOpcodeShape@ioEntityGroup@@QBEPAVioOpcodeShape@@XZ
  00030	8b f0		 mov	 esi, eax

; 446  : 	if( pShape )

  00032	3b f7		 cmp	 esi, edi
  00034	0f 84 8b 00 00
	00		 je	 $LN2@GetHeight@2

; 447  : 	{
; 448  : 		ioRay kYRay( vPos, -ioMath::UNIT_Y );

  0003a	a1 00 00 00 00	 mov	 eax, DWORD PTR __imp_?UNIT_Y@ioMath@@2UD3DXVECTOR3@@A
  0003f	f3 0f 10 08	 movss	 xmm1, DWORD PTR [eax]
  00043	f3 0f 10 50 04	 movss	 xmm2, DWORD PTR [eax+4]
  00048	f3 0f 10 58 08	 movss	 xmm3, DWORD PTR [eax+8]
  0004d	f3 0f 10 05 00
	00 00 00	 movss	 xmm0, DWORD PTR __mask@@NegFloat@
  00055	8d 45 d8	 lea	 eax, DWORD PTR $T507816[ebp]
  00058	50		 push	 eax
  00059	0f 57 c8	 xorps	 xmm1, xmm0
  0005c	0f 57 d0	 xorps	 xmm2, xmm0
  0005f	0f 57 d8	 xorps	 xmm3, xmm0
  00062	53		 push	 ebx
  00063	8d 4d c0	 lea	 ecx, DWORD PTR _kYRay$507817[ebp]
  00066	f3 0f 11 4d d8	 movss	 DWORD PTR $T507816[ebp], xmm1
  0006b	f3 0f 11 55 dc	 movss	 DWORD PTR $T507816[ebp+4], xmm2
  00070	f3 0f 11 5d e0	 movss	 DWORD PTR $T507816[ebp+8], xmm3
  00075	ff 15 00 00 00
	00		 call	 DWORD PTR __imp_??0ioRay@@QAE@ABUD3DXVECTOR3@@0@Z

; 449  : 		D3DXVECTOR3 vColPoint( 0.0f, 0.0f, 0.0f );

  0007b	0f 57 c0	 xorps	 xmm0, xmm0

; 450  : 
; 451  : 		if( pShape->TestIntersection( NULL, kYRay, NULL, &vColPoint ) )

  0007e	8b 06		 mov	 eax, DWORD PTR [esi]
  00080	6a 01		 push	 1
  00082	8d 4d e4	 lea	 ecx, DWORD PTR _vColPoint$507818[ebp]
  00085	51		 push	 ecx
  00086	57		 push	 edi
  00087	8d 4d c0	 lea	 ecx, DWORD PTR _kYRay$507817[ebp]
  0008a	51		 push	 ecx
  0008b	57		 push	 edi
  0008c	8b ce		 mov	 ecx, esi
  0008e	89 7d fc	 mov	 DWORD PTR __$EHRec$[ebp+8], edi
  00091	f3 0f 11 45 e4	 movss	 DWORD PTR _vColPoint$507818[ebp], xmm0
  00096	f3 0f 11 45 e8	 movss	 DWORD PTR _vColPoint$507818[ebp+4], xmm0
  0009b	f3 0f 11 45 ec	 movss	 DWORD PTR _vColPoint$507818[ebp+8], xmm0
  000a0	ff 50 28	 call	 DWORD PTR [eax+40]

; 452  : 			return vColPoint.y;

  000a3	83 4d fc ff	 or	 DWORD PTR __$EHRec$[ebp+8], -1
  000a7	8d 4d c0	 lea	 ecx, DWORD PTR _kYRay$507817[ebp]
  000aa	84 c0		 test	 al, al
  000ac	74 11		 je	 SHORT $LN1@GetHeight@2
  000ae	d9 45 e8	 fld	 DWORD PTR _vColPoint$507818[ebp+4]
  000b1	d9 5d bc	 fstp	 DWORD PTR $T513134[ebp]
  000b4	ff 15 00 00 00
	00		 call	 DWORD PTR __imp_??1ioRay@@QAE@XZ
  000ba	d9 45 bc	 fld	 DWORD PTR $T513134[ebp]
  000bd	eb 08		 jmp	 SHORT $LN5@GetHeight@2
$LN1@GetHeight@2:

; 453  : 	}

  000bf	ff 15 00 00 00
	00		 call	 DWORD PTR __imp_??1ioRay@@QAE@XZ
$LN2@GetHeight@2:

; 454  : 
; 455  : 	return 0.0f;

  000c5	d9 ee		 fldz
$LN5@GetHeight@2:

; 456  : }

  000c7	e8 00 00 00 00	 call	 __EH_epilog3_GS
  000cc	c2 04 00	 ret	 4
_TEXT	ENDS
;	COMDAT text$x
text$x	SEGMENT
__unwindfunclet$?GetHeight@ioWorldMesh@@QAEMABUD3DXVECTOR3@@@Z$0:
  00000	8d 4d c0	 lea	 ecx, DWORD PTR _kYRay$507817[ebp]
  00003	ff 25 00 00 00
	00		 jmp	 DWORD PTR __imp_??1ioRay@@QAE@XZ
__ehhandler$?GetHeight@ioWorldMesh@@QAEMABUD3DXVECTOR3@@@Z:
  00009	8b 54 24 08	 mov	 edx, DWORD PTR [esp+8]
  0000d	8d 42 0c	 lea	 eax, DWORD PTR [edx+12]
  00010	8b 4a b8	 mov	 ecx, DWORD PTR [edx-72]
  00013	33 c8		 xor	 ecx, eax
  00015	e8 00 00 00 00	 call	 @__security_check_cookie@4
  0001a	8b 4a fc	 mov	 ecx, DWORD PTR [edx-4]
  0001d	33 c8		 xor	 ecx, eax
  0001f	e8 00 00 00 00	 call	 @__security_check_cookie@4
  00024	b8 00 00 00 00	 mov	 eax, OFFSET __ehfuncinfo$?GetHeight@ioWorldMesh@@QAEMABUD3DXVECTOR3@@@Z
  00029	e9 00 00 00 00	 jmp	 ___CxxFrameHandler3
text$x	ENDS
?GetHeight@ioWorldMesh@@QAEMABUD3DXVECTOR3@@@Z ENDP	; ioWorldMesh::GetHeight
PUBLIC	?SetMultiMapCurrentIndex@ioWorldMesh@@QAEXH@Z	; ioWorldMesh::SetMultiMapCurrentIndex
; Function compile flags: /Ogsp
;	COMDAT ?SetMultiMapCurrentIndex@ioWorldMesh@@QAEXH@Z
_TEXT	SEGMENT
_iMapIndex$ = 8						; size = 4
?SetMultiMapCurrentIndex@ioWorldMesh@@QAEXH@Z PROC	; ioWorldMesh::SetMultiMapCurrentIndex, COMDAT
; _this$ = ecx

; 459  : {

  00000	55		 push	 ebp
  00001	8b ec		 mov	 ebp, esp
  00003	56		 push	 esi
  00004	57		 push	 edi
  00005	8b f9		 mov	 edi, ecx

; 460  : 	EntityGroupDataList::iterator iter = m_GroupList.begin();

  00007	8b 77 08	 mov	 esi, DWORD PTR [edi+8]
  0000a	eb 1d		 jmp	 SHORT $LN41@SetMultiMa

; 461  : 	for(;iter != m_GroupList.end();++iter)

$LL19@SetMultiMa:

; 462  : 	{
; 463  : 		EntityGroupData &rkGroupData = *iter;
; 464  : 		if( rkGroupData.m_pGroup == NULL ) continue;

  0000c	83 7e 04 00	 cmp	 DWORD PTR [esi+4], 0
  00010	74 14		 je	 SHORT $LN5@SetMultiMa

; 465  : 
; 466  : 		if( rkGroupData.m_iMapIndex == iMapIndex )

  00012	8b 06		 mov	 eax, DWORD PTR [esi]

; 467  : 		{
; 468  : 			rkGroupData.m_pGroup->SetVisible( true );

  00014	8b 4e 04	 mov	 ecx, DWORD PTR [esi+4]
  00017	3b 45 08	 cmp	 eax, DWORD PTR _iMapIndex$[ebp]
  0001a	8b 01		 mov	 eax, DWORD PTR [ecx]
  0001c	75 04		 jne	 SHORT $LN2@SetMultiMa
  0001e	6a 01		 push	 1

; 469  : 		}
; 470  : 		else

  00020	eb 02		 jmp	 SHORT $LN42@SetMultiMa
$LN2@SetMultiMa:

; 471  : 		{
; 472  : 			rkGroupData.m_pGroup->SetVisible( false );

  00022	6a 00		 push	 0
$LN42@SetMultiMa:
  00024	ff 10		 call	 DWORD PTR [eax]
$LN5@SetMultiMa:

; 461  : 	for(;iter != m_GroupList.end();++iter)

  00026	83 c6 08	 add	 esi, 8
$LN41@SetMultiMa:
  00029	3b 77 0c	 cmp	 esi, DWORD PTR [edi+12]
  0002c	75 de		 jne	 SHORT $LL19@SetMultiMa
  0002e	5f		 pop	 edi
  0002f	5e		 pop	 esi

; 473  : 		}
; 474  : 	}	
; 475  : }

  00030	5d		 pop	 ebp
  00031	c2 04 00	 ret	 4
?SetMultiMapCurrentIndex@ioWorldMesh@@QAEXH@Z ENDP	; ioWorldMesh::SetMultiMapCurrentIndex
_TEXT	ENDS
PUBLIC	?end@?$_Tree@V?$_Tmap_traits@VioHashString@@UD3DXVECTOR3@@U?$less@VioHashString@@@std@@V?$allocator@U?$pair@$$CBVioHashString@@UD3DXVECTOR3@@@std@@@4@$0A@@std@@@std@@QAE?AV?$_Tree_iterator@V?$_Tree_val@V?$_Tmap_traits@VioHashString@@UD3DXVECTOR3@@U?$less@VioHashString@@@std@@V?$allocator@U?$pair@$$CBVioHashString@@UD3DXVECTOR3@@@std@@@4@$0A@@std@@@std@@@2@XZ ; std::_Tree<std::_Tmap_traits<ioHashString,D3DXVECTOR3,std::less<ioHashString>,std::allocator<std::pair<ioHashString const ,D3DXVECTOR3> >,0> >::end
; Function compile flags: /Ogsp
; File c:\program files (x86)\microsoft visual studio 10.0\vc\include\xtree
;	COMDAT ?end@?$_Tree@V?$_Tmap_traits@VioHashString@@UD3DXVECTOR3@@U?$less@VioHashString@@@std@@V?$allocator@U?$pair@$$CBVioHashString@@UD3DXVECTOR3@@@std@@@4@$0A@@std@@@std@@QAE?AV?$_Tree_iterator@V?$_Tree_val@V?$_Tmap_traits@VioHashString@@UD3DXVECTOR3@@U?$less@VioHashString@@@std@@V?$allocator@U?$pair@$$CBVioHashString@@UD3DXVECTOR3@@@std@@@4@$0A@@std@@@std@@@2@XZ
_TEXT	SEGMENT
___$ReturnUdt$ = 8					; size = 4
?end@?$_Tree@V?$_Tmap_traits@VioHashString@@UD3DXVECTOR3@@U?$less@VioHashString@@@std@@V?$allocator@U?$pair@$$CBVioHashString@@UD3DXVECTOR3@@@std@@@4@$0A@@std@@@std@@QAE?AV?$_Tree_iterator@V?$_Tree_val@V?$_Tmap_traits@VioHashString@@UD3DXVECTOR3@@U?$less@VioHashString@@@std@@V?$allocator@U?$pair@$$CBVioHashString@@UD3DXVECTOR3@@@std@@@4@$0A@@std@@@std@@@2@XZ PROC ; std::_Tree<std::_Tmap_traits<ioHashString,D3DXVECTOR3,std::less<ioHashString>,std::allocator<std::pair<ioHashString const ,D3DXVECTOR3> >,0> >::end, COMDAT
; _this$ = ecx

; 816  : 		{	// return iterator for end of mutable sequence

  00000	55		 push	 ebp
  00001	8b ec		 mov	 ebp, esp

; 817  : 		return (iterator(this->_Myhead, this));

  00003	8b 49 04	 mov	 ecx, DWORD PTR [ecx+4]
  00006	8b 45 08	 mov	 eax, DWORD PTR ___$ReturnUdt$[ebp]
  00009	89 08		 mov	 DWORD PTR [eax], ecx

; 818  : 		}

  0000b	5d		 pop	 ebp
  0000c	c2 04 00	 ret	 4
?end@?$_Tree@V?$_Tmap_traits@VioHashString@@UD3DXVECTOR3@@U?$less@VioHashString@@@std@@V?$allocator@U?$pair@$$CBVioHashString@@UD3DXVECTOR3@@@std@@@4@$0A@@std@@@std@@QAE?AV?$_Tree_iterator@V?$_Tree_val@V?$_Tmap_traits@VioHashString@@UD3DXVECTOR3@@U?$less@VioHashString@@@std@@V?$allocator@U?$pair@$$CBVioHashString@@UD3DXVECTOR3@@@std@@@4@$0A@@std@@@std@@@2@XZ ENDP ; std::_Tree<std::_Tmap_traits<ioHashString,D3DXVECTOR3,std::less<ioHashString>,std::allocator<std::pair<ioHashString const ,D3DXVECTOR3> >,0> >::end
_TEXT	ENDS
PUBLIC	??0?$_Tree@V?$_Tmap_traits@VioHashString@@UD3DXVECTOR3@@U?$less@VioHashString@@@std@@V?$allocator@U?$pair@$$CBVioHashString@@UD3DXVECTOR3@@@std@@@4@$0A@@std@@@std@@QAE@ABU?$less@VioHashString@@@1@ABV?$allocator@U?$pair@$$CBVioHashString@@UD3DXVECTOR3@@@std@@@1@@Z ; std::_Tree<std::_Tmap_traits<ioHashString,D3DXVECTOR3,std::less<ioHashString>,std::allocator<std::pair<ioHashString const ,D3DXVECTOR3> >,0> >::_Tree<std::_Tmap_traits<ioHashString,D3DXVECTOR3,std::less<ioHashString>,std::allocator<std::pair<ioHashString const ,D3DXVECTOR3> >,0> >
; Function compile flags: /Ogsp
;	COMDAT ??0?$_Tree@V?$_Tmap_traits@VioHashString@@UD3DXVECTOR3@@U?$less@VioHashString@@@std@@V?$allocator@U?$pair@$$CBVioHashString@@UD3DXVECTOR3@@@std@@@4@$0A@@std@@@std@@QAE@ABU?$less@VioHashString@@@1@ABV?$allocator@U?$pair@$$CBVioHashString@@UD3DXVECTOR3@@@std@@@1@@Z
_TEXT	SEGMENT
$T513281 = -4						; size = 4
$T513276 = -4						; size = 4
__Parg$ = 8						; size = 4
__Al$ = 12						; size = 4
??0?$_Tree@V?$_Tmap_traits@VioHashString@@UD3DXVECTOR3@@U?$less@VioHashString@@@std@@V?$allocator@U?$pair@$$CBVioHashString@@UD3DXVECTOR3@@@std@@@4@$0A@@std@@@std@@QAE@ABU?$less@VioHashString@@@1@ABV?$allocator@U?$pair@$$CBVioHashString@@UD3DXVECTOR3@@@std@@@1@@Z PROC ; std::_Tree<std::_Tmap_traits<ioHashString,D3DXVECTOR3,std::less<ioHashString>,std::allocator<std::pair<ioHashString const ,D3DXVECTOR3> >,0> >::_Tree<std::_Tmap_traits<ioHashString,D3DXVECTOR3,std::less<ioHashString>,std::allocator<std::pair<ioHashString const ,D3DXVECTOR3> >,0> >, COMDAT
; _this$ = ecx

; 698  : 		{	// construct empty tree

  00000	55		 push	 ebp
  00001	8b ec		 mov	 ebp, esp
  00003	51		 push	 ecx
  00004	56		 push	 esi
  00005	51		 push	 ecx
  00006	89 65 fc	 mov	 DWORD PTR $T513276[ebp], esp
  00009	89 65 fc	 mov	 DWORD PTR $T513281[ebp], esp
  0000c	ff 75 08	 push	 DWORD PTR __Parg$[ebp]
  0000f	8b f1		 mov	 esi, ecx
  00011	e8 00 00 00 00	 call	 ??0?$_Tree_val@V?$_Tmap_traits@VioHashString@@UD3DXVECTOR3@@U?$less@VioHashString@@@std@@V?$allocator@U?$pair@$$CBVioHashString@@UD3DXVECTOR3@@@std@@@4@$0A@@std@@@std@@QAE@ABU?$less@VioHashString@@@1@V?$allocator@U?$pair@$$CBVioHashString@@UD3DXVECTOR3@@@std@@@1@@Z ; std::_Tree_val<std::_Tmap_traits<ioHashString,D3DXVECTOR3,std::less<ioHashString>,std::allocator<std::pair<ioHashString const ,D3DXVECTOR3> >,0> >::_Tree_val<std::_Tmap_traits<ioHashString,D3DXVECTOR3,std::less<ioHashString>,std::allocator<std::pair<ioHashString const ,D3DXVECTOR3> >,0> >

; 699  : 		}

  00016	8b c6		 mov	 eax, esi
  00018	5e		 pop	 esi
  00019	c9		 leave
  0001a	c2 08 00	 ret	 8
??0?$_Tree@V?$_Tmap_traits@VioHashString@@UD3DXVECTOR3@@U?$less@VioHashString@@@std@@V?$allocator@U?$pair@$$CBVioHashString@@UD3DXVECTOR3@@@std@@@4@$0A@@std@@@std@@QAE@ABU?$less@VioHashString@@@1@ABV?$allocator@U?$pair@$$CBVioHashString@@UD3DXVECTOR3@@@std@@@1@@Z ENDP ; std::_Tree<std::_Tmap_traits<ioHashString,D3DXVECTOR3,std::less<ioHashString>,std::allocator<std::pair<ioHashString const ,D3DXVECTOR3> >,0> >::_Tree<std::_Tmap_traits<ioHashString,D3DXVECTOR3,std::less<ioHashString>,std::allocator<std::pair<ioHashString const ,D3DXVECTOR3> >,0> >
_TEXT	ENDS
PUBLIC	?lower_bound@?$_Tree@V?$_Tmap_traits@VioHashString@@UD3DXVECTOR3@@U?$less@VioHashString@@@std@@V?$allocator@U?$pair@$$CBVioHashString@@UD3DXVECTOR3@@@std@@@4@$0A@@std@@@std@@QAE?AV?$_Tree_iterator@V?$_Tree_val@V?$_Tmap_traits@VioHashString@@UD3DXVECTOR3@@U?$less@VioHashString@@@std@@V?$allocator@U?$pair@$$CBVioHashString@@UD3DXVECTOR3@@@std@@@4@$0A@@std@@@std@@@2@ABVioHashString@@@Z ; std::_Tree<std::_Tmap_traits<ioHashString,D3DXVECTOR3,std::less<ioHashString>,std::allocator<std::pair<ioHashString const ,D3DXVECTOR3> >,0> >::lower_bound
; Function compile flags: /Ogsp
;	COMDAT ?lower_bound@?$_Tree@V?$_Tmap_traits@VioHashString@@UD3DXVECTOR3@@U?$less@VioHashString@@@std@@V?$allocator@U?$pair@$$CBVioHashString@@UD3DXVECTOR3@@@std@@@4@$0A@@std@@@std@@QAE?AV?$_Tree_iterator@V?$_Tree_val@V?$_Tmap_traits@VioHashString@@UD3DXVECTOR3@@U?$less@VioHashString@@@std@@V?$allocator@U?$pair@$$CBVioHashString@@UD3DXVECTOR3@@@std@@@4@$0A@@std@@@std@@@2@ABVioHashString@@@Z
_TEXT	SEGMENT
___$ReturnUdt$ = 8					; size = 4
__Keyval$ = 12						; size = 4
?lower_bound@?$_Tree@V?$_Tmap_traits@VioHashString@@UD3DXVECTOR3@@U?$less@VioHashString@@@std@@V?$allocator@U?$pair@$$CBVioHashString@@UD3DXVECTOR3@@@std@@@4@$0A@@std@@@std@@QAE?AV?$_Tree_iterator@V?$_Tree_val@V?$_Tmap_traits@VioHashString@@UD3DXVECTOR3@@U?$less@VioHashString@@@std@@V?$allocator@U?$pair@$$CBVioHashString@@UD3DXVECTOR3@@@std@@@4@$0A@@std@@@std@@@2@ABVioHashString@@@Z PROC ; std::_Tree<std::_Tmap_traits<ioHashString,D3DXVECTOR3,std::less<ioHashString>,std::allocator<std::pair<ioHashString const ,D3DXVECTOR3> >,0> >::lower_bound, COMDAT
; _this$ = ecx

; 1449 : 		{	// find leftmost node not less than _Keyval in mutable tree

  00000	55		 push	 ebp
  00001	8b ec		 mov	 ebp, esp

; 1450 : 		return (iterator(_Lbound(_Keyval), this));

  00003	ff 75 0c	 push	 DWORD PTR __Keyval$[ebp]
  00006	e8 00 00 00 00	 call	 ?_Lbound@?$_Tree@V?$_Tmap_traits@VioHashString@@UD3DXVECTOR3@@U?$less@VioHashString@@@std@@V?$allocator@U?$pair@$$CBVioHashString@@UD3DXVECTOR3@@@std@@@4@$0A@@std@@@std@@IAEPAU_Node@?$_Tree_nod@V?$_Tmap_traits@VioHashString@@UD3DXVECTOR3@@U?$less@VioHashString@@@std@@V?$allocator@U?$pair@$$CBVioHashString@@UD3DXVECTOR3@@@std@@@4@$0A@@std@@@2@ABVioHashString@@@Z ; std::_Tree<std::_Tmap_traits<ioHashString,D3DXVECTOR3,std::less<ioHashString>,std::allocator<std::pair<ioHashString const ,D3DXVECTOR3> >,0> >::_Lbound
  0000b	8b 4d 08	 mov	 ecx, DWORD PTR ___$ReturnUdt$[ebp]
  0000e	89 01		 mov	 DWORD PTR [ecx], eax
  00010	8b c1		 mov	 eax, ecx

; 1451 : 		}

  00012	5d		 pop	 ebp
  00013	c2 08 00	 ret	 8
?lower_bound@?$_Tree@V?$_Tmap_traits@VioHashString@@UD3DXVECTOR3@@U?$less@VioHashString@@@std@@V?$allocator@U?$pair@$$CBVioHashString@@UD3DXVECTOR3@@@std@@@4@$0A@@std@@@std@@QAE?AV?$_Tree_iterator@V?$_Tree_val@V?$_Tmap_traits@VioHashString@@UD3DXVECTOR3@@U?$less@VioHashString@@@std@@V?$allocator@U?$pair@$$CBVioHashString@@UD3DXVECTOR3@@@std@@@4@$0A@@std@@@std@@@2@ABVioHashString@@@Z ENDP ; std::_Tree<std::_Tmap_traits<ioHashString,D3DXVECTOR3,std::less<ioHashString>,std::allocator<std::pair<ioHashString const ,D3DXVECTOR3> >,0> >::lower_bound
_TEXT	ENDS
PUBLIC	?equal_range@?$_Tree@V?$_Tmap_traits@VioHashString@@UD3DXVECTOR3@@U?$less@VioHashString@@@std@@V?$allocator@U?$pair@$$CBVioHashString@@UD3DXVECTOR3@@@std@@@4@$0A@@std@@@std@@QAE?AU?$pair@V?$_Tree_iterator@V?$_Tree_val@V?$_Tmap_traits@VioHashString@@UD3DXVECTOR3@@U?$less@VioHashString@@@std@@V?$allocator@U?$pair@$$CBVioHashString@@UD3DXVECTOR3@@@std@@@4@$0A@@std@@@std@@@std@@V12@@2@ABVioHashString@@@Z ; std::_Tree<std::_Tmap_traits<ioHashString,D3DXVECTOR3,std::less<ioHashString>,std::allocator<std::pair<ioHashString const ,D3DXVECTOR3> >,0> >::equal_range
; Function compile flags: /Ogsp
;	COMDAT ?equal_range@?$_Tree@V?$_Tmap_traits@VioHashString@@UD3DXVECTOR3@@U?$less@VioHashString@@@std@@V?$allocator@U?$pair@$$CBVioHashString@@UD3DXVECTOR3@@@std@@@4@$0A@@std@@@std@@QAE?AU?$pair@V?$_Tree_iterator@V?$_Tree_val@V?$_Tmap_traits@VioHashString@@UD3DXVECTOR3@@U?$less@VioHashString@@@std@@V?$allocator@U?$pair@$$CBVioHashString@@UD3DXVECTOR3@@@std@@@4@$0A@@std@@@std@@@std@@V12@@2@ABVioHashString@@@Z
_TEXT	SEGMENT
___$ReturnUdt$ = 8					; size = 4
__Keyval$ = 12						; size = 4
?equal_range@?$_Tree@V?$_Tmap_traits@VioHashString@@UD3DXVECTOR3@@U?$less@VioHashString@@@std@@V?$allocator@U?$pair@$$CBVioHashString@@UD3DXVECTOR3@@@std@@@4@$0A@@std@@@std@@QAE?AU?$pair@V?$_Tree_iterator@V?$_Tree_val@V?$_Tmap_traits@VioHashString@@UD3DXVECTOR3@@U?$less@VioHashString@@@std@@V?$allocator@U?$pair@$$CBVioHashString@@UD3DXVECTOR3@@@std@@@4@$0A@@std@@@std@@@std@@V12@@2@ABVioHashString@@@Z PROC ; std::_Tree<std::_Tmap_traits<ioHashString,D3DXVECTOR3,std::less<ioHashString>,std::allocator<std::pair<ioHashString const ,D3DXVECTOR3> >,0> >::equal_range, COMDAT
; _this$ = ecx

; 1469 : 		{	// find range equivalent to _Keyval in mutable tree

  00000	55		 push	 ebp
  00001	8b ec		 mov	 ebp, esp

; 1470 : 		return (_Eqrange(_Keyval));

  00003	ff 75 0c	 push	 DWORD PTR __Keyval$[ebp]
  00006	ff 75 08	 push	 DWORD PTR ___$ReturnUdt$[ebp]
  00009	e8 00 00 00 00	 call	 ?_Eqrange@?$_Tree@V?$_Tmap_traits@VioHashString@@UD3DXVECTOR3@@U?$less@VioHashString@@@std@@V?$allocator@U?$pair@$$CBVioHashString@@UD3DXVECTOR3@@@std@@@4@$0A@@std@@@std@@IAE?AU?$pair@V?$_Tree_iterator@V?$_Tree_val@V?$_Tmap_traits@VioHashString@@UD3DXVECTOR3@@U?$less@VioHashString@@@std@@V?$allocator@U?$pair@$$CBVioHashString@@UD3DXVECTOR3@@@std@@@4@$0A@@std@@@std@@@std@@V12@@2@ABVioHashString@@@Z ; std::_Tree<std::_Tmap_traits<ioHashString,D3DXVECTOR3,std::less<ioHashString>,std::allocator<std::pair<ioHashString const ,D3DXVECTOR3> >,0> >::_Eqrange
  0000e	8b 45 08	 mov	 eax, DWORD PTR ___$ReturnUdt$[ebp]

; 1471 : 		}

  00011	5d		 pop	 ebp
  00012	c2 08 00	 ret	 8
?equal_range@?$_Tree@V?$_Tmap_traits@VioHashString@@UD3DXVECTOR3@@U?$less@VioHashString@@@std@@V?$allocator@U?$pair@$$CBVioHashString@@UD3DXVECTOR3@@@std@@@4@$0A@@std@@@std@@QAE?AU?$pair@V?$_Tree_iterator@V?$_Tree_val@V?$_Tmap_traits@VioHashString@@UD3DXVECTOR3@@U?$less@VioHashString@@@std@@V?$allocator@U?$pair@$$CBVioHashString@@UD3DXVECTOR3@@@std@@@4@$0A@@std@@@std@@@std@@V12@@2@ABVioHashString@@@Z ENDP ; std::_Tree<std::_Tmap_traits<ioHashString,D3DXVECTOR3,std::less<ioHashString>,std::allocator<std::pair<ioHashString const ,D3DXVECTOR3> >,0> >::equal_range
_TEXT	ENDS
PUBLIC	??$_Distance@V?$_Tree_iterator@V?$_Tree_val@V?$_Tmap_traits@VioHashString@@UD3DXVECTOR3@@U?$less@VioHashString@@@std@@V?$allocator@U?$pair@$$CBVioHashString@@UD3DXVECTOR3@@@std@@@4@$0A@@std@@@std@@@std@@I@std@@YAXV?$_Tree_iterator@V?$_Tree_val@V?$_Tmap_traits@VioHashString@@UD3DXVECTOR3@@U?$less@VioHashString@@@std@@V?$allocator@U?$pair@$$CBVioHashString@@UD3DXVECTOR3@@@std@@@4@$0A@@std@@@std@@@0@0AAI@Z ; std::_Distance<std::_Tree_iterator<std::_Tree_val<std::_Tmap_traits<ioHashString,D3DXVECTOR3,std::less<ioHashString>,std::allocator<std::pair<ioHashString const ,D3DXVECTOR3> >,0> > >,unsigned int>
; Function compile flags: /Ogsp
; File c:\program files (x86)\microsoft visual studio 10.0\vc\include\xutility
;	COMDAT ??$_Distance@V?$_Tree_iterator@V?$_Tree_val@V?$_Tmap_traits@VioHashString@@UD3DXVECTOR3@@U?$less@VioHashString@@@std@@V?$allocator@U?$pair@$$CBVioHashString@@UD3DXVECTOR3@@@std@@@4@$0A@@std@@@std@@@std@@I@std@@YAXV?$_Tree_iterator@V?$_Tree_val@V?$_Tmap_traits@VioHashString@@UD3DXVECTOR3@@U?$less@VioHashString@@@std@@V?$allocator@U?$pair@$$CBVioHashString@@UD3DXVECTOR3@@@std@@@4@$0A@@std@@@std@@@0@0AAI@Z
_TEXT	SEGMENT
$T513313 = -4						; size = 1
__First$ = 8						; size = 4
__Last$ = 12						; size = 4
__Off$ = 16						; size = 4
??$_Distance@V?$_Tree_iterator@V?$_Tree_val@V?$_Tmap_traits@VioHashString@@UD3DXVECTOR3@@U?$less@VioHashString@@@std@@V?$allocator@U?$pair@$$CBVioHashString@@UD3DXVECTOR3@@@std@@@4@$0A@@std@@@std@@@std@@I@std@@YAXV?$_Tree_iterator@V?$_Tree_val@V?$_Tmap_traits@VioHashString@@UD3DXVECTOR3@@U?$less@VioHashString@@@std@@V?$allocator@U?$pair@$$CBVioHashString@@UD3DXVECTOR3@@@std@@@4@$0A@@std@@@std@@@0@0AAI@Z PROC ; std::_Distance<std::_Tree_iterator<std::_Tree_val<std::_Tmap_traits<ioHashString,D3DXVECTOR3,std::less<ioHashString>,std::allocator<std::pair<ioHashString const ,D3DXVECTOR3> >,0> > >,unsigned int>, COMDAT

; 909  : 	{	// add to _Off distance between iterators

  00000	55		 push	 ebp
  00001	8b ec		 mov	 ebp, esp
  00003	51		 push	 ecx

; 910  : 	_Distance2(_First, _Last, _Off, _Iter_cat(_First));

  00004	ff 75 fc	 push	 DWORD PTR $T513313[ebp]
  00007	ff 75 10	 push	 DWORD PTR __Off$[ebp]
  0000a	ff 75 0c	 push	 DWORD PTR __Last$[ebp]
  0000d	ff 75 08	 push	 DWORD PTR __First$[ebp]
  00010	e8 00 00 00 00	 call	 ??$_Distance2@V?$_Tree_iterator@V?$_Tree_val@V?$_Tmap_traits@VioHashString@@UD3DXVECTOR3@@U?$less@VioHashString@@@std@@V?$allocator@U?$pair@$$CBVioHashString@@UD3DXVECTOR3@@@std@@@4@$0A@@std@@@std@@@std@@I@std@@YAXV?$_Tree_iterator@V?$_Tree_val@V?$_Tmap_traits@VioHashString@@UD3DXVECTOR3@@U?$less@VioHashString@@@std@@V?$allocator@U?$pair@$$CBVioHashString@@UD3DXVECTOR3@@@std@@@4@$0A@@std@@@std@@@0@0AAIUbidirectional_iterator_tag@0@@Z ; std::_Distance2<std::_Tree_iterator<std::_Tree_val<std::_Tmap_traits<ioHashString,D3DXVECTOR3,std::less<ioHashString>,std::allocator<std::pair<ioHashString const ,D3DXVECTOR3> >,0> > >,unsigned int>
  00015	83 c4 10	 add	 esp, 16			; 00000010H

; 911  : 	}

  00018	c9		 leave
  00019	c3		 ret	 0
??$_Distance@V?$_Tree_iterator@V?$_Tree_val@V?$_Tmap_traits@VioHashString@@UD3DXVECTOR3@@U?$less@VioHashString@@@std@@V?$allocator@U?$pair@$$CBVioHashString@@UD3DXVECTOR3@@@std@@@4@$0A@@std@@@std@@@std@@I@std@@YAXV?$_Tree_iterator@V?$_Tree_val@V?$_Tmap_traits@VioHashString@@UD3DXVECTOR3@@U?$less@VioHashString@@@std@@V?$allocator@U?$pair@$$CBVioHashString@@UD3DXVECTOR3@@@std@@@4@$0A@@std@@@std@@@0@0AAI@Z ENDP ; std::_Distance<std::_Tree_iterator<std::_Tree_val<std::_Tmap_traits<ioHashString,D3DXVECTOR3,std::less<ioHashString>,std::allocator<std::pair<ioHashString const ,D3DXVECTOR3> >,0> > >,unsigned int>
_TEXT	ENDS
PUBLIC	?destroy@?$allocator@U?$pair@$$CBVioHashString@@UD3DXVECTOR3@@@std@@@std@@QAEXPAU?$pair@$$CBVioHashString@@UD3DXVECTOR3@@@2@@Z ; std::allocator<std::pair<ioHashString const ,D3DXVECTOR3> >::destroy
; Function compile flags: /Ogsp
; File c:\program files (x86)\microsoft visual studio 10.0\vc\include\xmemory
;	COMDAT ?destroy@?$allocator@U?$pair@$$CBVioHashString@@UD3DXVECTOR3@@@std@@@std@@QAEXPAU?$pair@$$CBVioHashString@@UD3DXVECTOR3@@@2@@Z
_TEXT	SEGMENT
__Ptr$ = 8						; size = 4
?destroy@?$allocator@U?$pair@$$CBVioHashString@@UD3DXVECTOR3@@@std@@@std@@QAEXPAU?$pair@$$CBVioHashString@@UD3DXVECTOR3@@@2@@Z PROC ; std::allocator<std::pair<ioHashString const ,D3DXVECTOR3> >::destroy, COMDAT
; _this$ = ecx

; 212  : 		{	// destroy object at _Ptr

  00000	55		 push	 ebp
  00001	8b ec		 mov	 ebp, esp

; 213  : 		_Destroy(_Ptr);

  00003	8b 4d 08	 mov	 ecx, DWORD PTR __Ptr$[ebp]
  00006	ff 15 00 00 00
	00		 call	 DWORD PTR __imp_??1ioHashString@@QAE@XZ

; 214  : 		}

  0000c	5d		 pop	 ebp
  0000d	c2 04 00	 ret	 4
?destroy@?$allocator@U?$pair@$$CBVioHashString@@UD3DXVECTOR3@@@std@@@std@@QAEXPAU?$pair@$$CBVioHashString@@UD3DXVECTOR3@@@2@@Z ENDP ; std::allocator<std::pair<ioHashString const ,D3DXVECTOR3> >::destroy
_TEXT	ENDS
PUBLIC	??$_Destroy_range@V?$allocator@UEntityGroupData@ioWorldMesh@@@std@@@std@@YAXPAUEntityGroupData@ioWorldMesh@@0AAV?$allocator@UEntityGroupData@ioWorldMesh@@@0@U_Nonscalar_ptr_iterator_tag@0@@Z ; std::_Destroy_range<std::allocator<ioWorldMesh::EntityGroupData> >
; Function compile flags: /Ogsp
;	COMDAT ??$_Destroy_range@V?$allocator@UEntityGroupData@ioWorldMesh@@@std@@@std@@YAXPAUEntityGroupData@ioWorldMesh@@0AAV?$allocator@UEntityGroupData@ioWorldMesh@@@0@U_Nonscalar_ptr_iterator_tag@0@@Z
_TEXT	SEGMENT
__First$ = 8						; size = 4
__Last$ = 12						; size = 4
__Al$ = 16						; size = 4
___formal$ = 20						; size = 1
??$_Destroy_range@V?$allocator@UEntityGroupData@ioWorldMesh@@@std@@@std@@YAXPAUEntityGroupData@ioWorldMesh@@0AAV?$allocator@UEntityGroupData@ioWorldMesh@@@0@U_Nonscalar_ptr_iterator_tag@0@@Z PROC ; std::_Destroy_range<std::allocator<ioWorldMesh::EntityGroupData> >, COMDAT

; 96   : 	for (; _First != _Last; ++_First)
; 97   : 		_Dest_val(_Al, _First);
; 98   : 	}

  00000	c3		 ret	 0
??$_Destroy_range@V?$allocator@UEntityGroupData@ioWorldMesh@@@std@@@std@@YAXPAUEntityGroupData@ioWorldMesh@@0AAV?$allocator@UEntityGroupData@ioWorldMesh@@@0@U_Nonscalar_ptr_iterator_tag@0@@Z ENDP ; std::_Destroy_range<std::allocator<ioWorldMesh::EntityGroupData> >
_TEXT	ENDS
PUBLIC	??$_Uninit_move@PAUEntityGroupData@ioWorldMesh@@PAU12@V?$allocator@UEntityGroupData@ioWorldMesh@@@std@@U12@@std@@YAPAUEntityGroupData@ioWorldMesh@@PAU12@00AAV?$allocator@UEntityGroupData@ioWorldMesh@@@0@0U_Nonscalar_ptr_iterator_tag@0@@Z ; std::_Uninit_move<ioWorldMesh::EntityGroupData *,ioWorldMesh::EntityGroupData *,std::allocator<ioWorldMesh::EntityGroupData>,ioWorldMesh::EntityGroupData>
; Function compile flags: /Ogsp
; File c:\program files (x86)\microsoft visual studio 10.0\vc\include\memory
;	COMDAT ??$_Uninit_move@PAUEntityGroupData@ioWorldMesh@@PAU12@V?$allocator@UEntityGroupData@ioWorldMesh@@@std@@U12@@std@@YAPAUEntityGroupData@ioWorldMesh@@PAU12@00AAV?$allocator@UEntityGroupData@ioWorldMesh@@@0@0U_Nonscalar_ptr_iterator_tag@0@@Z
_TEXT	SEGMENT
__First$ = 8						; size = 4
__Last$ = 12						; size = 4
__Dest$ = 16						; size = 4
__Al$ = 20						; size = 4
___formal$ = 24						; size = 4
___formal$ = 28						; size = 1
??$_Uninit_move@PAUEntityGroupData@ioWorldMesh@@PAU12@V?$allocator@UEntityGroupData@ioWorldMesh@@@std@@U12@@std@@YAPAUEntityGroupData@ioWorldMesh@@PAU12@00AAV?$allocator@UEntityGroupData@ioWorldMesh@@@0@0U_Nonscalar_ptr_iterator_tag@0@@Z PROC ; std::_Uninit_move<ioWorldMesh::EntityGroupData *,ioWorldMesh::EntityGroupData *,std::allocator<ioWorldMesh::EntityGroupData>,ioWorldMesh::EntityGroupData>, COMDAT

; 424  : 	{	// move [_First, _Last) to raw _Dest, using _Al, arbitrary type

  00000	55		 push	 ebp
  00001	8b ec		 mov	 ebp, esp
  00003	56		 push	 esi

; 425  : 	_DEBUG_RANGE(_First, _Last);
; 426  : 	_DEBUG_POINTER(_Dest);
; 427  : 	_FwdIt _Next = _Dest;
; 428  : 
; 429  : 	_TRY_BEGIN
; 430  : 	for (; _First != _Last; ++_Dest, ++_First)

  00004	8b 75 08	 mov	 esi, DWORD PTR __First$[ebp]
  00007	eb 16		 jmp	 SHORT $LN24@Uninit_mov
$LL6@Uninit_mov:

; 431  : 		_Cons_val(_Al, _Dest, (_Valty &&)*_First);

  00009	56		 push	 esi
  0000a	ff 75 10	 push	 DWORD PTR __Dest$[ebp]
  0000d	ff 75 14	 push	 DWORD PTR __Al$[ebp]
  00010	e8 00 00 00 00	 call	 ??$_Cons_val@V?$allocator@UEntityGroupData@ioWorldMesh@@@std@@UEntityGroupData@ioWorldMesh@@U34@@std@@YAXAAV?$allocator@UEntityGroupData@ioWorldMesh@@@0@PAUEntityGroupData@ioWorldMesh@@$$QAU23@@Z ; std::_Cons_val<std::allocator<ioWorldMesh::EntityGroupData>,ioWorldMesh::EntityGroupData,ioWorldMesh::EntityGroupData>
  00015	83 45 10 08	 add	 DWORD PTR __Dest$[ebp], 8
  00019	83 c4 0c	 add	 esp, 12			; 0000000cH
  0001c	83 c6 08	 add	 esi, 8
$LN24@Uninit_mov:

; 425  : 	_DEBUG_RANGE(_First, _Last);
; 426  : 	_DEBUG_POINTER(_Dest);
; 427  : 	_FwdIt _Next = _Dest;
; 428  : 
; 429  : 	_TRY_BEGIN
; 430  : 	for (; _First != _Last; ++_Dest, ++_First)

  0001f	3b 75 0c	 cmp	 esi, DWORD PTR __Last$[ebp]
  00022	75 e5		 jne	 SHORT $LL6@Uninit_mov

; 432  : 	_CATCH_ALL
; 433  : 	for (; _Next != _Dest; ++_Next)
; 434  : 		_Dest_val(_Al, _Next);
; 435  : 	_RERAISE;
; 436  : 	_CATCH_END
; 437  : 	return (_Dest);

  00024	8b 45 10	 mov	 eax, DWORD PTR __Dest$[ebp]
  00027	5e		 pop	 esi

; 438  : 	}

  00028	5d		 pop	 ebp
  00029	c3		 ret	 0
??$_Uninit_move@PAUEntityGroupData@ioWorldMesh@@PAU12@V?$allocator@UEntityGroupData@ioWorldMesh@@@std@@U12@@std@@YAPAUEntityGroupData@ioWorldMesh@@PAU12@00AAV?$allocator@UEntityGroupData@ioWorldMesh@@@0@0U_Nonscalar_ptr_iterator_tag@0@@Z ENDP ; std::_Uninit_move<ioWorldMesh::EntityGroupData *,ioWorldMesh::EntityGroupData *,std::allocator<ioWorldMesh::EntityGroupData>,ioWorldMesh::EntityGroupData>
_TEXT	ENDS
PUBLIC	?construct@?$allocator@U?$pair@$$CBVioHashString@@UD3DXVECTOR3@@@std@@@std@@QAEXPAU?$pair@$$CBVioHashString@@UD3DXVECTOR3@@@2@$$QAU32@@Z ; std::allocator<std::pair<ioHashString const ,D3DXVECTOR3> >::construct
;	COMDAT xdata$x
; File c:\program files (x86)\microsoft visual studio 10.0\vc\include\utility
xdata$x	SEGMENT
__unwindtable$?construct@?$allocator@U?$pair@$$CBVioHashString@@UD3DXVECTOR3@@@std@@@std@@QAEXPAU?$pair@$$CBVioHashString@@UD3DXVECTOR3@@@2@$$QAU32@@Z DD 0ffffffffH
	DD	FLAT:__unwindfunclet$?construct@?$allocator@U?$pair@$$CBVioHashString@@UD3DXVECTOR3@@@std@@@std@@QAEXPAU?$pair@$$CBVioHashString@@UD3DXVECTOR3@@@2@$$QAU32@@Z$0
__ehfuncinfo$?construct@?$allocator@U?$pair@$$CBVioHashString@@UD3DXVECTOR3@@@std@@@std@@QAEXPAU?$pair@$$CBVioHashString@@UD3DXVECTOR3@@@2@$$QAU32@@Z DD 019930522H
	DD	01H
	DD	FLAT:__unwindtable$?construct@?$allocator@U?$pair@$$CBVioHashString@@UD3DXVECTOR3@@@std@@@std@@QAEXPAU?$pair@$$CBVioHashString@@UD3DXVECTOR3@@@2@$$QAU32@@Z
	DD	2 DUP(00H)
	DD	2 DUP(00H)
	DD	00H
	DD	01H
; Function compile flags: /Ogsp
; File c:\program files (x86)\microsoft visual studio 10.0\vc\include\xmemory
xdata$x	ENDS
;	COMDAT ?construct@?$allocator@U?$pair@$$CBVioHashString@@UD3DXVECTOR3@@@std@@@std@@QAEXPAU?$pair@$$CBVioHashString@@UD3DXVECTOR3@@@2@$$QAU32@@Z
_TEXT	SEGMENT
$T513399 = -16						; size = 4
__$EHRec$ = -12						; size = 12
__Ptr$ = 8						; size = 4
__Val$ = 12						; size = 4
?construct@?$allocator@U?$pair@$$CBVioHashString@@UD3DXVECTOR3@@@std@@@std@@QAEXPAU?$pair@$$CBVioHashString@@UD3DXVECTOR3@@@2@$$QAU32@@Z PROC ; std::allocator<std::pair<ioHashString const ,D3DXVECTOR3> >::construct, COMDAT
; _this$ = ecx

; 201  : 		{	// construct object at _Ptr with value _Val

  00000	6a 04		 push	 4
  00002	b8 00 00 00 00	 mov	 eax, __ehhandler$?construct@?$allocator@U?$pair@$$CBVioHashString@@UD3DXVECTOR3@@@std@@@std@@QAEXPAU?$pair@$$CBVioHashString@@UD3DXVECTOR3@@@2@$$QAU32@@Z
  00007	e8 00 00 00 00	 call	 __EH_prolog3

; 202  : 		::new ((void _FARQ *)_Ptr) _Ty(_STD forward<_Ty>(_Val));

  0000c	8b 7d 08	 mov	 edi, DWORD PTR __Ptr$[ebp]
  0000f	89 7d f0	 mov	 DWORD PTR $T513399[ebp], edi
  00012	83 65 fc 00	 and	 DWORD PTR __$EHRec$[ebp+8], 0
  00016	85 ff		 test	 edi, edi
  00018	74 15		 je	 SHORT $LN3@construct@5
  0001a	8b 75 0c	 mov	 esi, DWORD PTR __Val$[ebp]
  0001d	56		 push	 esi
  0001e	8b cf		 mov	 ecx, edi
  00020	ff 15 00 00 00
	00		 call	 DWORD PTR __imp_??0ioHashString@@QAE@ABV0@@Z
  00026	83 c6 10	 add	 esi, 16			; 00000010H
  00029	83 c7 10	 add	 edi, 16			; 00000010H
  0002c	a5		 movsd
  0002d	a5		 movsd
  0002e	a5		 movsd
$LN3@construct@5:

; 203  : 		}

  0002f	e8 00 00 00 00	 call	 __EH_epilog3
  00034	c2 08 00	 ret	 8
_TEXT	ENDS
;	COMDAT text$x
text$x	SEGMENT
__unwindfunclet$?construct@?$allocator@U?$pair@$$CBVioHashString@@UD3DXVECTOR3@@@std@@@std@@QAEXPAU?$pair@$$CBVioHashString@@UD3DXVECTOR3@@@2@$$QAU32@@Z$0:
  00000	ff 75 08	 push	 DWORD PTR __Ptr$[ebp]
  00003	ff 75 f0	 push	 DWORD PTR $T513399[ebp]
  00006	e8 00 00 00 00	 call	 ??3@YAXPAX0@Z		; operator delete
  0000b	59		 pop	 ecx
  0000c	59		 pop	 ecx
  0000d	c3		 ret	 0
__ehhandler$?construct@?$allocator@U?$pair@$$CBVioHashString@@UD3DXVECTOR3@@@std@@@std@@QAEXPAU?$pair@$$CBVioHashString@@UD3DXVECTOR3@@@2@$$QAU32@@Z:
  0000e	8b 54 24 08	 mov	 edx, DWORD PTR [esp+8]
  00012	8d 42 0c	 lea	 eax, DWORD PTR [edx+12]
  00015	8b 4a ec	 mov	 ecx, DWORD PTR [edx-20]
  00018	33 c8		 xor	 ecx, eax
  0001a	e8 00 00 00 00	 call	 @__security_check_cookie@4
  0001f	b8 00 00 00 00	 mov	 eax, OFFSET __ehfuncinfo$?construct@?$allocator@U?$pair@$$CBVioHashString@@UD3DXVECTOR3@@@std@@@std@@QAEXPAU?$pair@$$CBVioHashString@@UD3DXVECTOR3@@@2@$$QAU32@@Z
  00024	e9 00 00 00 00	 jmp	 ___CxxFrameHandler3
text$x	ENDS
?construct@?$allocator@U?$pair@$$CBVioHashString@@UD3DXVECTOR3@@@std@@@std@@QAEXPAU?$pair@$$CBVioHashString@@UD3DXVECTOR3@@@2@$$QAU32@@Z ENDP ; std::allocator<std::pair<ioHashString const ,D3DXVECTOR3> >::construct
PUBLIC	??$_Dest_val@V?$allocator@VioHashString@@@std@@VioHashString@@@std@@YAXAAV?$allocator@VioHashString@@@0@PAVioHashString@@@Z ; std::_Dest_val<std::allocator<ioHashString>,ioHashString>
; Function compile flags: /Ogsp
;	COMDAT ??$_Dest_val@V?$allocator@VioHashString@@@std@@VioHashString@@@std@@YAXAAV?$allocator@VioHashString@@@0@PAVioHashString@@@Z
_TEXT	SEGMENT
__Alval$ = 8						; size = 4
__Pdest$ = 12						; size = 4
??$_Dest_val@V?$allocator@VioHashString@@@std@@VioHashString@@@std@@YAXAAV?$allocator@VioHashString@@@0@PAVioHashString@@@Z PROC ; std::_Dest_val<std::allocator<ioHashString>,ioHashString>, COMDAT

; 286  : 	{	// destroy using allocator

  00000	55		 push	 ebp
  00001	8b ec		 mov	 ebp, esp

; 287  : 	_Alval.destroy(_Pdest);

  00003	8b 4d 0c	 mov	 ecx, DWORD PTR __Pdest$[ebp]

; 288  : 	}

  00006	5d		 pop	 ebp

; 287  : 	_Alval.destroy(_Pdest);

  00007	ff 25 00 00 00
	00		 jmp	 DWORD PTR __imp_??1ioHashString@@QAE@XZ
??$_Dest_val@V?$allocator@VioHashString@@@std@@VioHashString@@@std@@YAXAAV?$allocator@VioHashString@@@0@PAVioHashString@@@Z ENDP ; std::_Dest_val<std::allocator<ioHashString>,ioHashString>
_TEXT	ENDS
PUBLIC	?find@?$_Tree@V?$_Tmap_traits@VioHashString@@UD3DXVECTOR3@@U?$less@VioHashString@@@std@@V?$allocator@U?$pair@$$CBVioHashString@@UD3DXVECTOR3@@@std@@@4@$0A@@std@@@std@@QAE?AV?$_Tree_iterator@V?$_Tree_val@V?$_Tmap_traits@VioHashString@@UD3DXVECTOR3@@U?$less@VioHashString@@@std@@V?$allocator@U?$pair@$$CBVioHashString@@UD3DXVECTOR3@@@std@@@4@$0A@@std@@@std@@@2@ABVioHashString@@@Z ; std::_Tree<std::_Tmap_traits<ioHashString,D3DXVECTOR3,std::less<ioHashString>,std::allocator<std::pair<ioHashString const ,D3DXVECTOR3> >,0> >::find
; Function compile flags: /Ogsp
; File c:\program files (x86)\microsoft visual studio 10.0\vc\include\xtree
;	COMDAT ?find@?$_Tree@V?$_Tmap_traits@VioHashString@@UD3DXVECTOR3@@U?$less@VioHashString@@@std@@V?$allocator@U?$pair@$$CBVioHashString@@UD3DXVECTOR3@@@std@@@4@$0A@@std@@@std@@QAE?AV?$_Tree_iterator@V?$_Tree_val@V?$_Tmap_traits@VioHashString@@UD3DXVECTOR3@@U?$less@VioHashString@@@std@@V?$allocator@U?$pair@$$CBVioHashString@@UD3DXVECTOR3@@@std@@@4@$0A@@std@@@std@@@2@ABVioHashString@@@Z
_TEXT	SEGMENT
__Where$ = -4						; size = 4
___$ReturnUdt$ = 8					; size = 4
$T513475 = 12						; size = 4
__Keyval$ = 12						; size = 4
?find@?$_Tree@V?$_Tmap_traits@VioHashString@@UD3DXVECTOR3@@U?$less@VioHashString@@@std@@V?$allocator@U?$pair@$$CBVioHashString@@UD3DXVECTOR3@@@std@@@4@$0A@@std@@@std@@QAE?AV?$_Tree_iterator@V?$_Tree_val@V?$_Tmap_traits@VioHashString@@UD3DXVECTOR3@@U?$less@VioHashString@@@std@@V?$allocator@U?$pair@$$CBVioHashString@@UD3DXVECTOR3@@@std@@@4@$0A@@std@@@std@@@2@ABVioHashString@@@Z PROC ; std::_Tree<std::_Tmap_traits<ioHashString,D3DXVECTOR3,std::less<ioHashString>,std::allocator<std::pair<ioHashString const ,D3DXVECTOR3> >,0> >::find, COMDAT
; _this$ = ecx

; 1423 : 		{	// find an element in mutable sequence that matches _Keyval

  00000	55		 push	 ebp
  00001	8b ec		 mov	 ebp, esp
  00003	51		 push	 ecx
  00004	56		 push	 esi

; 1424 : 		iterator _Where = lower_bound(_Keyval);

  00005	ff 75 0c	 push	 DWORD PTR __Keyval$[ebp]
  00008	8b f1		 mov	 esi, ecx
  0000a	e8 00 00 00 00	 call	 ?_Lbound@?$_Tree@V?$_Tmap_traits@VioHashString@@UD3DXVECTOR3@@U?$less@VioHashString@@@std@@V?$allocator@U?$pair@$$CBVioHashString@@UD3DXVECTOR3@@@std@@@4@$0A@@std@@@std@@IAEPAU_Node@?$_Tree_nod@V?$_Tmap_traits@VioHashString@@UD3DXVECTOR3@@U?$less@VioHashString@@@std@@V?$allocator@U?$pair@$$CBVioHashString@@UD3DXVECTOR3@@@std@@@4@$0A@@std@@@2@ABVioHashString@@@Z ; std::_Tree<std::_Tmap_traits<ioHashString,D3DXVECTOR3,std::less<ioHashString>,std::allocator<std::pair<ioHashString const ,D3DXVECTOR3> >,0> >::_Lbound
  0000f	89 45 fc	 mov	 DWORD PTR __Where$[ebp], eax

; 1425 : 		return (_Where == end()
; 1426 : 			|| _DEBUG_LT_PRED(this->comp,
; 1427 : 				_Keyval, this->_Key(_Where._Mynode()))
; 1428 : 					? end() : _Where);

  00012	3b 46 04	 cmp	 eax, DWORD PTR [esi+4]
  00015	74 16		 je	 SHORT $LN3@find
  00017	8b 4d 0c	 mov	 ecx, DWORD PTR __Keyval$[ebp]
  0001a	83 c0 0c	 add	 eax, 12			; 0000000cH
  0001d	50		 push	 eax
  0001e	ff 15 00 00 00
	00		 call	 DWORD PTR __imp_??MioHashString@@QBE_NABV0@@Z
  00024	84 c0		 test	 al, al
  00026	75 05		 jne	 SHORT $LN3@find
  00028	8d 45 fc	 lea	 eax, DWORD PTR __Where$[ebp]
  0002b	eb 09		 jmp	 SHORT $LN4@find
$LN3@find:
  0002d	8b 46 04	 mov	 eax, DWORD PTR [esi+4]
  00030	89 45 0c	 mov	 DWORD PTR $T513475[ebp], eax
  00033	8d 45 0c	 lea	 eax, DWORD PTR $T513475[ebp]
$LN4@find:
  00036	8b 08		 mov	 ecx, DWORD PTR [eax]
  00038	8b 45 08	 mov	 eax, DWORD PTR ___$ReturnUdt$[ebp]
  0003b	89 08		 mov	 DWORD PTR [eax], ecx
  0003d	5e		 pop	 esi

; 1429 : 		}

  0003e	c9		 leave
  0003f	c2 08 00	 ret	 8
?find@?$_Tree@V?$_Tmap_traits@VioHashString@@UD3DXVECTOR3@@U?$less@VioHashString@@@std@@V?$allocator@U?$pair@$$CBVioHashString@@UD3DXVECTOR3@@@std@@@4@$0A@@std@@@std@@QAE?AV?$_Tree_iterator@V?$_Tree_val@V?$_Tmap_traits@VioHashString@@UD3DXVECTOR3@@U?$less@VioHashString@@@std@@V?$allocator@U?$pair@$$CBVioHashString@@UD3DXVECTOR3@@@std@@@4@$0A@@std@@@std@@@2@ABVioHashString@@@Z ENDP ; std::_Tree<std::_Tmap_traits<ioHashString,D3DXVECTOR3,std::less<ioHashString>,std::allocator<std::pair<ioHashString const ,D3DXVECTOR3> >,0> >::find
_TEXT	ENDS
PUBLIC	??$_Dest_val@V?$allocator@U?$pair@$$CBVioHashString@@UD3DXVECTOR3@@@std@@@std@@U?$pair@$$CBVioHashString@@UD3DXVECTOR3@@@2@@std@@YAXAAV?$allocator@U?$pair@$$CBVioHashString@@UD3DXVECTOR3@@@std@@@0@PAU?$pair@$$CBVioHashString@@UD3DXVECTOR3@@@0@@Z ; std::_Dest_val<std::allocator<std::pair<ioHashString const ,D3DXVECTOR3> >,std::pair<ioHashString const ,D3DXVECTOR3> >
; Function compile flags: /Ogsp
; File c:\program files (x86)\microsoft visual studio 10.0\vc\include\xmemory
;	COMDAT ??$_Dest_val@V?$allocator@U?$pair@$$CBVioHashString@@UD3DXVECTOR3@@@std@@@std@@U?$pair@$$CBVioHashString@@UD3DXVECTOR3@@@2@@std@@YAXAAV?$allocator@U?$pair@$$CBVioHashString@@UD3DXVECTOR3@@@std@@@0@PAU?$pair@$$CBVioHashString@@UD3DXVECTOR3@@@0@@Z
_TEXT	SEGMENT
__Alval$ = 8						; size = 4
__Pdest$ = 12						; size = 4
??$_Dest_val@V?$allocator@U?$pair@$$CBVioHashString@@UD3DXVECTOR3@@@std@@@std@@U?$pair@$$CBVioHashString@@UD3DXVECTOR3@@@2@@std@@YAXAAV?$allocator@U?$pair@$$CBVioHashString@@UD3DXVECTOR3@@@std@@@0@PAU?$pair@$$CBVioHashString@@UD3DXVECTOR3@@@0@@Z PROC ; std::_Dest_val<std::allocator<std::pair<ioHashString const ,D3DXVECTOR3> >,std::pair<ioHashString const ,D3DXVECTOR3> >, COMDAT

; 286  : 	{	// destroy using allocator

  00000	55		 push	 ebp
  00001	8b ec		 mov	 ebp, esp

; 287  : 	_Alval.destroy(_Pdest);

  00003	8b 4d 0c	 mov	 ecx, DWORD PTR __Pdest$[ebp]

; 288  : 	}

  00006	5d		 pop	 ebp

; 287  : 	_Alval.destroy(_Pdest);

  00007	ff 25 00 00 00
	00		 jmp	 DWORD PTR __imp_??1ioHashString@@QAE@XZ
??$_Dest_val@V?$allocator@U?$pair@$$CBVioHashString@@UD3DXVECTOR3@@@std@@@std@@U?$pair@$$CBVioHashString@@UD3DXVECTOR3@@@2@@std@@YAXAAV?$allocator@U?$pair@$$CBVioHashString@@UD3DXVECTOR3@@@std@@@0@PAU?$pair@$$CBVioHashString@@UD3DXVECTOR3@@@0@@Z ENDP ; std::_Dest_val<std::allocator<std::pair<ioHashString const ,D3DXVECTOR3> >,std::pair<ioHashString const ,D3DXVECTOR3> >
_TEXT	ENDS
PUBLIC	??$_Destroy_range@V?$allocator@UEntityGroupData@ioWorldMesh@@@std@@@std@@YAXPAUEntityGroupData@ioWorldMesh@@0AAV?$allocator@UEntityGroupData@ioWorldMesh@@@0@@Z ; std::_Destroy_range<std::allocator<ioWorldMesh::EntityGroupData> >
; Function compile flags: /Ogsp
;	COMDAT ??$_Destroy_range@V?$allocator@UEntityGroupData@ioWorldMesh@@@std@@@std@@YAXPAUEntityGroupData@ioWorldMesh@@0AAV?$allocator@UEntityGroupData@ioWorldMesh@@@0@@Z
_TEXT	SEGMENT
__First$ = 8						; size = 4
__Last$ = 12						; size = 4
__Al$ = 16						; size = 4
??$_Destroy_range@V?$allocator@UEntityGroupData@ioWorldMesh@@@std@@@std@@YAXPAUEntityGroupData@ioWorldMesh@@0AAV?$allocator@UEntityGroupData@ioWorldMesh@@@0@@Z PROC ; std::_Destroy_range<std::allocator<ioWorldMesh::EntityGroupData> >, COMDAT

; 88   : 	_Destroy_range(_First, _Last, _Al, _Ptr_cat(_First, _Last));
; 89   : 	}

  00000	c3		 ret	 0
??$_Destroy_range@V?$allocator@UEntityGroupData@ioWorldMesh@@@std@@@std@@YAXPAUEntityGroupData@ioWorldMesh@@0AAV?$allocator@UEntityGroupData@ioWorldMesh@@@0@@Z ENDP ; std::_Destroy_range<std::allocator<ioWorldMesh::EntityGroupData> >
_TEXT	ENDS
PUBLIC	??_C@_0BE@JONHPENG@map?1set?$DMT?$DO?5too?5long?$AA@ ; `string'
PUBLIC	?_Insert@?$_Tree@V?$_Tmap_traits@VioHashString@@UD3DXVECTOR3@@U?$less@VioHashString@@@std@@V?$allocator@U?$pair@$$CBVioHashString@@UD3DXVECTOR3@@@std@@@4@$0A@@std@@@std@@IAE?AV?$_Tree_iterator@V?$_Tree_val@V?$_Tmap_traits@VioHashString@@UD3DXVECTOR3@@U?$less@VioHashString@@@std@@V?$allocator@U?$pair@$$CBVioHashString@@UD3DXVECTOR3@@@std@@@4@$0A@@std@@@std@@@2@_NPAU_Node@?$_Tree_nod@V?$_Tmap_traits@VioHashString@@UD3DXVECTOR3@@U?$less@VioHashString@@@std@@V?$allocator@U?$pair@$$CBVioHashString@@UD3DXVECTOR3@@@std@@@4@$0A@@std@@@2@1@Z ; std::_Tree<std::_Tmap_traits<ioHashString,D3DXVECTOR3,std::less<ioHashString>,std::allocator<std::pair<ioHashString const ,D3DXVECTOR3> >,0> >::_Insert
;	COMDAT ??_C@_0BE@JONHPENG@map?1set?$DMT?$DO?5too?5long?$AA@
; File c:\program files (x86)\microsoft visual studio 10.0\vc\include\xutility
CONST	SEGMENT
??_C@_0BE@JONHPENG@map?1set?$DMT?$DO?5too?5long?$AA@ DB 'map/set<T> too l'
	DB	'ong', 00H					; `string'
; Function compile flags: /Ogsp
; File c:\program files (x86)\microsoft visual studio 10.0\vc\include\xtree
CONST	ENDS
;	COMDAT ?_Insert@?$_Tree@V?$_Tmap_traits@VioHashString@@UD3DXVECTOR3@@U?$less@VioHashString@@@std@@V?$allocator@U?$pair@$$CBVioHashString@@UD3DXVECTOR3@@@std@@@4@$0A@@std@@@std@@IAE?AV?$_Tree_iterator@V?$_Tree_val@V?$_Tmap_traits@VioHashString@@UD3DXVECTOR3@@U?$less@VioHashString@@@std@@V?$allocator@U?$pair@$$CBVioHashString@@UD3DXVECTOR3@@@std@@@4@$0A@@std@@@std@@@2@_NPAU_Node@?$_Tree_nod@V?$_Tmap_traits@VioHashString@@UD3DXVECTOR3@@U?$less@VioHashString@@@std@@V?$allocator@U?$pair@$$CBVioHashString@@UD3DXVECTOR3@@@std@@@4@$0A@@std@@@2@1@Z
_TEXT	SEGMENT
___$ReturnUdt$ = 8					; size = 4
__Addleft$ = 12						; size = 1
__Wherenode$ = 16					; size = 4
__Newnode$ = 20						; size = 4
?_Insert@?$_Tree@V?$_Tmap_traits@VioHashString@@UD3DXVECTOR3@@U?$less@VioHashString@@@std@@V?$allocator@U?$pair@$$CBVioHashString@@UD3DXVECTOR3@@@std@@@4@$0A@@std@@@std@@IAE?AV?$_Tree_iterator@V?$_Tree_val@V?$_Tmap_traits@VioHashString@@UD3DXVECTOR3@@U?$less@VioHashString@@@std@@V?$allocator@U?$pair@$$CBVioHashString@@UD3DXVECTOR3@@@std@@@4@$0A@@std@@@std@@@2@_NPAU_Node@?$_Tree_nod@V?$_Tmap_traits@VioHashString@@UD3DXVECTOR3@@U?$less@VioHashString@@@std@@V?$allocator@U?$pair@$$CBVioHashString@@UD3DXVECTOR3@@@std@@@4@$0A@@std@@@2@1@Z PROC ; std::_Tree<std::_Tmap_traits<ioHashString,D3DXVECTOR3,std::less<ioHashString>,std::allocator<std::pair<ioHashString const ,D3DXVECTOR3> >,0> >::_Insert, COMDAT
; _this$ = ecx

; 1631 : 		{	// add node with value next to _Wherenode, to left if _Addleft

  00000	55		 push	 ebp
  00001	8b ec		 mov	 ebp, esp
  00003	53		 push	 ebx
  00004	56		 push	 esi
  00005	57		 push	 edi
  00006	8b f9		 mov	 edi, ecx

; 1632 : 		if (max_size() - 1 <= this->_Mysize)

  00008	8b 47 08	 mov	 eax, DWORD PTR [edi+8]
  0000b	3d 48 92 24 09	 cmp	 eax, 153391688		; 09249248H
  00010	72 1f		 jb	 SHORT $LN17@Insert

; 1633 : 			{	// tree would get too big, fail
; 1634 : 			_Dest_val(this->_Alval,
; 1635 : 				_STD addressof(this->_Myval(_Newnode)));

  00012	8b 75 14	 mov	 esi, DWORD PTR __Newnode$[ebp]
  00015	8d 4e 0c	 lea	 ecx, DWORD PTR [esi+12]
  00018	ff 15 00 00 00
	00		 call	 DWORD PTR __imp_??1ioHashString@@QAE@XZ

; 1636 : 
; 1637 : 			this->_Alnod.deallocate(_Newnode, 1);

  0001e	56		 push	 esi
  0001f	e8 00 00 00 00	 call	 ??3@YAXPAX@Z		; operator delete

; 1638 : 
; 1639 : 			_Xlength_error("map/set<T> too long");

  00024	c7 04 24 00 00
	00 00		 mov	 DWORD PTR [esp], OFFSET ??_C@_0BE@JONHPENG@map?1set?$DMT?$DO?5too?5long?$AA@
  0002b	ff 15 00 00 00
	00		 call	 DWORD PTR __imp_?_Xlength_error@std@@YAXPBD@Z
$LN197@Insert:
$LN17@Insert:

; 1640 : 			}
; 1641 : 		++this->_Mysize;
; 1642 : 		_Newnode->_Parent = _Wherenode;

  00031	8b 5d 14	 mov	 ebx, DWORD PTR __Newnode$[ebp]
  00034	40		 inc	 eax
  00035	89 47 08	 mov	 DWORD PTR [edi+8], eax
  00038	8b 45 10	 mov	 eax, DWORD PTR __Wherenode$[ebp]
  0003b	89 43 04	 mov	 DWORD PTR [ebx+4], eax

; 1643 : 
; 1644 : 		if (_Wherenode == this->_Myhead)

  0003e	8b 4f 04	 mov	 ecx, DWORD PTR [edi+4]
  00041	3b c1		 cmp	 eax, ecx
  00043	75 10		 jne	 SHORT $LN16@Insert

; 1645 : 			{	// first node in tree, just set head values
; 1646 : 			_Root() = _Newnode;

  00045	89 59 04	 mov	 DWORD PTR [ecx+4], ebx

; 1647 : 			_Lmost() = _Newnode;

  00048	8b 47 04	 mov	 eax, DWORD PTR [edi+4]
  0004b	89 18		 mov	 DWORD PTR [eax], ebx

; 1648 : 			_Rmost() = _Newnode;

  0004d	8b 47 04	 mov	 eax, DWORD PTR [edi+4]
  00050	89 58 08	 mov	 DWORD PTR [eax+8], ebx
  00053	eb 21		 jmp	 SHORT $LN11@Insert
$LN16@Insert:

; 1649 : 			}
; 1650 : 		else if (_Addleft)

  00055	80 7d 0c 00	 cmp	 BYTE PTR __Addleft$[ebp], 0
  00059	74 0d		 je	 SHORT $LN14@Insert

; 1651 : 			{	// add to left of _Wherenode
; 1652 : 			this->_Left(_Wherenode) = _Newnode;

  0005b	89 18		 mov	 DWORD PTR [eax], ebx

; 1653 : 			if (_Wherenode == _Lmost())

  0005d	8b 4f 04	 mov	 ecx, DWORD PTR [edi+4]
  00060	3b 01		 cmp	 eax, DWORD PTR [ecx]
  00062	75 12		 jne	 SHORT $LN11@Insert

; 1654 : 				_Lmost() = _Newnode;

  00064	89 19		 mov	 DWORD PTR [ecx], ebx

; 1655 : 			}
; 1656 : 		else

  00066	eb 0e		 jmp	 SHORT $LN11@Insert
$LN14@Insert:

; 1657 : 			{	// add to right of _Wherenode
; 1658 : 			this->_Right(_Wherenode) = _Newnode;

  00068	89 58 08	 mov	 DWORD PTR [eax+8], ebx

; 1659 : 			if (_Wherenode == _Rmost())

  0006b	8b 4f 04	 mov	 ecx, DWORD PTR [edi+4]
  0006e	3b 41 08	 cmp	 eax, DWORD PTR [ecx+8]
  00071	75 03		 jne	 SHORT $LN11@Insert

; 1660 : 				_Rmost() = _Newnode;

  00073	89 59 08	 mov	 DWORD PTR [ecx+8], ebx
$LN11@Insert:

; 1661 : 			}
; 1662 : 
; 1663 : 		for (_Nodeptr _Pnode = _Newnode;
; 1664 : 			this->_Color(this->_Parent(_Pnode)) == this->_Red; )

  00076	8b 43 04	 mov	 eax, DWORD PTR [ebx+4]
  00079	8b f3		 mov	 esi, ebx
  0007b	e9 93 00 00 00	 jmp	 $LN195@Insert
$LL10@Insert:

; 1665 : 			if (this->_Parent(_Pnode)
; 1666 : 				== this->_Left(this->_Parent(this->_Parent(_Pnode))))

  00080	8b 46 04	 mov	 eax, DWORD PTR [esi+4]
  00083	8b 48 04	 mov	 ecx, DWORD PTR [eax+4]
  00086	3b 01		 cmp	 eax, DWORD PTR [ecx]
  00088	75 38		 jne	 SHORT $LN8@Insert

; 1667 : 				{	// fixup red-red in left subtree
; 1668 : 				_Wherenode =
; 1669 : 					this->_Right(this->_Parent(this->_Parent(_Pnode)));

  0008a	8b 49 08	 mov	 ecx, DWORD PTR [ecx+8]

; 1670 : 				if (this->_Color(_Wherenode) == this->_Red)

  0008d	80 79 28 00	 cmp	 BYTE PTR [ecx+40], 0

; 1671 : 					{	// parent has two red children, blacken both
; 1672 : 					this->_Color(this->_Parent(_Pnode)) = this->_Black;
; 1673 : 					this->_Color(_Wherenode) = this->_Black;
; 1674 : 					this->_Color(this->_Parent(this->_Parent(_Pnode)))
; 1675 : 						= this->_Red;
; 1676 : 					_Pnode = this->_Parent(this->_Parent(_Pnode));
; 1677 : 					}
; 1678 : 				else

  00091	74 37		 je	 SHORT $LN196@Insert

; 1679 : 					{	// parent has red and black children
; 1680 : 					if (_Pnode == this->_Right(this->_Parent(_Pnode)))

  00093	3b 70 08	 cmp	 esi, DWORD PTR [eax+8]
  00096	75 0a		 jne	 SHORT $LN5@Insert

; 1681 : 						{	// rotate right child to left
; 1682 : 						_Pnode = this->_Parent(_Pnode);

  00098	8b f0		 mov	 esi, eax

; 1683 : 						_Lrotate(_Pnode);

  0009a	56		 push	 esi
  0009b	8b cf		 mov	 ecx, edi
  0009d	e8 00 00 00 00	 call	 ?_Lrotate@?$_Tree@V?$_Tmap_traits@VioHashString@@UD3DXVECTOR3@@U?$less@VioHashString@@@std@@V?$allocator@U?$pair@$$CBVioHashString@@UD3DXVECTOR3@@@std@@@4@$0A@@std@@@std@@IAEXPAU_Node@?$_Tree_nod@V?$_Tmap_traits@VioHashString@@UD3DXVECTOR3@@U?$less@VioHashString@@@std@@V?$allocator@U?$pair@$$CBVioHashString@@UD3DXVECTOR3@@@std@@@4@$0A@@std@@@2@@Z ; std::_Tree<std::_Tmap_traits<ioHashString,D3DXVECTOR3,std::less<ioHashString>,std::allocator<std::pair<ioHashString const ,D3DXVECTOR3> >,0> >::_Lrotate
$LN5@Insert:

; 1684 : 						}
; 1685 : 					this->_Color(this->_Parent(_Pnode)) =
; 1686 : 						this->_Black;	// propagate red up

  000a2	8b 46 04	 mov	 eax, DWORD PTR [esi+4]
  000a5	c6 40 28 01	 mov	 BYTE PTR [eax+40], 1

; 1687 : 					this->_Color(this->_Parent(this->_Parent(_Pnode))) =
; 1688 : 						this->_Red;

  000a9	8b 46 04	 mov	 eax, DWORD PTR [esi+4]
  000ac	8b 40 04	 mov	 eax, DWORD PTR [eax+4]
  000af	c6 40 28 00	 mov	 BYTE PTR [eax+40], 0

; 1689 : 					_Rrotate(this->_Parent(this->_Parent(_Pnode)));

  000b3	8b 46 04	 mov	 eax, DWORD PTR [esi+4]
  000b6	ff 70 04	 push	 DWORD PTR [eax+4]
  000b9	8b cf		 mov	 ecx, edi
  000bb	e8 00 00 00 00	 call	 ?_Rrotate@?$_Tree@V?$_Tmap_traits@VioHashString@@UD3DXVECTOR3@@U?$less@VioHashString@@@std@@V?$allocator@U?$pair@$$CBVioHashString@@UD3DXVECTOR3@@@std@@@4@$0A@@std@@@std@@IAEXPAU_Node@?$_Tree_nod@V?$_Tmap_traits@VioHashString@@UD3DXVECTOR3@@U?$less@VioHashString@@@std@@V?$allocator@U?$pair@$$CBVioHashString@@UD3DXVECTOR3@@@std@@@4@$0A@@std@@@2@@Z ; std::_Tree<std::_Tmap_traits<ioHashString,D3DXVECTOR3,std::less<ioHashString>,std::allocator<std::pair<ioHashString const ,D3DXVECTOR3> >,0> >::_Rrotate

; 1690 : 					}
; 1691 : 				}
; 1692 : 			else

  000c0	eb 4e		 jmp	 SHORT $LN2@Insert
$LN8@Insert:

; 1693 : 				{	// fixup red-red in right subtree
; 1694 : 				_Wherenode =
; 1695 : 					this->_Left(this->_Parent(this->_Parent(_Pnode)));

  000c2	8b 09		 mov	 ecx, DWORD PTR [ecx]

; 1696 : 				if (this->_Color(_Wherenode) == this->_Red)

  000c4	80 79 28 00	 cmp	 BYTE PTR [ecx+40], 0
  000c8	75 1a		 jne	 SHORT $LN3@Insert
$LN196@Insert:

; 1697 : 					{	// parent has two red children, blacken both
; 1698 : 					this->_Color(this->_Parent(_Pnode)) = this->_Black;

  000ca	c6 40 28 01	 mov	 BYTE PTR [eax+40], 1

; 1699 : 					this->_Color(_Wherenode) = this->_Black;

  000ce	c6 41 28 01	 mov	 BYTE PTR [ecx+40], 1

; 1700 : 					this->_Color(this->_Parent(this->_Parent(_Pnode))) =
; 1701 : 						this->_Red;

  000d2	8b 46 04	 mov	 eax, DWORD PTR [esi+4]
  000d5	8b 40 04	 mov	 eax, DWORD PTR [eax+4]
  000d8	c6 40 28 00	 mov	 BYTE PTR [eax+40], 0

; 1702 : 					_Pnode = this->_Parent(this->_Parent(_Pnode));

  000dc	8b 46 04	 mov	 eax, DWORD PTR [esi+4]
  000df	8b 70 04	 mov	 esi, DWORD PTR [eax+4]

; 1703 : 					}
; 1704 : 				else

  000e2	eb 2c		 jmp	 SHORT $LN2@Insert
$LN3@Insert:

; 1705 : 					{	// parent has red and black children
; 1706 : 					if (_Pnode == this->_Left(this->_Parent(_Pnode)))

  000e4	3b 30		 cmp	 esi, DWORD PTR [eax]
  000e6	75 0a		 jne	 SHORT $LN1@Insert

; 1707 : 						{	// rotate left child to right
; 1708 : 						_Pnode = this->_Parent(_Pnode);

  000e8	8b f0		 mov	 esi, eax

; 1709 : 						_Rrotate(_Pnode);

  000ea	56		 push	 esi
  000eb	8b cf		 mov	 ecx, edi
  000ed	e8 00 00 00 00	 call	 ?_Rrotate@?$_Tree@V?$_Tmap_traits@VioHashString@@UD3DXVECTOR3@@U?$less@VioHashString@@@std@@V?$allocator@U?$pair@$$CBVioHashString@@UD3DXVECTOR3@@@std@@@4@$0A@@std@@@std@@IAEXPAU_Node@?$_Tree_nod@V?$_Tmap_traits@VioHashString@@UD3DXVECTOR3@@U?$less@VioHashString@@@std@@V?$allocator@U?$pair@$$CBVioHashString@@UD3DXVECTOR3@@@std@@@4@$0A@@std@@@2@@Z ; std::_Tree<std::_Tmap_traits<ioHashString,D3DXVECTOR3,std::less<ioHashString>,std::allocator<std::pair<ioHashString const ,D3DXVECTOR3> >,0> >::_Rrotate
$LN1@Insert:

; 1710 : 						}
; 1711 : 					this->_Color(this->_Parent(_Pnode)) =
; 1712 : 						this->_Black;	// propagate red up

  000f2	8b 46 04	 mov	 eax, DWORD PTR [esi+4]
  000f5	c6 40 28 01	 mov	 BYTE PTR [eax+40], 1

; 1713 : 					this->_Color(this->_Parent(this->_Parent(_Pnode))) =
; 1714 : 						this->_Red;

  000f9	8b 46 04	 mov	 eax, DWORD PTR [esi+4]
  000fc	8b 40 04	 mov	 eax, DWORD PTR [eax+4]
  000ff	c6 40 28 00	 mov	 BYTE PTR [eax+40], 0

; 1715 : 					_Lrotate(this->_Parent(this->_Parent(_Pnode)));

  00103	8b 46 04	 mov	 eax, DWORD PTR [esi+4]
  00106	ff 70 04	 push	 DWORD PTR [eax+4]
  00109	8b cf		 mov	 ecx, edi
  0010b	e8 00 00 00 00	 call	 ?_Lrotate@?$_Tree@V?$_Tmap_traits@VioHashString@@UD3DXVECTOR3@@U?$less@VioHashString@@@std@@V?$allocator@U?$pair@$$CBVioHashString@@UD3DXVECTOR3@@@std@@@4@$0A@@std@@@std@@IAEXPAU_Node@?$_Tree_nod@V?$_Tmap_traits@VioHashString@@UD3DXVECTOR3@@U?$less@VioHashString@@@std@@V?$allocator@U?$pair@$$CBVioHashString@@UD3DXVECTOR3@@@std@@@4@$0A@@std@@@2@@Z ; std::_Tree<std::_Tmap_traits<ioHashString,D3DXVECTOR3,std::less<ioHashString>,std::allocator<std::pair<ioHashString const ,D3DXVECTOR3> >,0> >::_Lrotate
$LN2@Insert:

; 1661 : 			}
; 1662 : 
; 1663 : 		for (_Nodeptr _Pnode = _Newnode;
; 1664 : 			this->_Color(this->_Parent(_Pnode)) == this->_Red; )

  00110	8b 46 04	 mov	 eax, DWORD PTR [esi+4]
$LN195@Insert:
  00113	80 78 28 00	 cmp	 BYTE PTR [eax+40], 0
  00117	0f 84 63 ff ff
	ff		 je	 $LL10@Insert

; 1716 : 					}
; 1717 : 				}
; 1718 : 
; 1719 : 		this->_Color(_Root()) = this->_Black;	// root is always black

  0011d	8b 47 04	 mov	 eax, DWORD PTR [edi+4]
  00120	8b 40 04	 mov	 eax, DWORD PTR [eax+4]
  00123	5f		 pop	 edi
  00124	c6 40 28 01	 mov	 BYTE PTR [eax+40], 1

; 1720 : 		return (iterator(_Newnode, this));

  00128	8b 45 08	 mov	 eax, DWORD PTR ___$ReturnUdt$[ebp]
  0012b	5e		 pop	 esi
  0012c	89 18		 mov	 DWORD PTR [eax], ebx
  0012e	5b		 pop	 ebx

; 1721 : 		}

  0012f	5d		 pop	 ebp
  00130	c2 10 00	 ret	 16			; 00000010H
$LN194@Insert:
?_Insert@?$_Tree@V?$_Tmap_traits@VioHashString@@UD3DXVECTOR3@@U?$less@VioHashString@@@std@@V?$allocator@U?$pair@$$CBVioHashString@@UD3DXVECTOR3@@@std@@@4@$0A@@std@@@std@@IAE?AV?$_Tree_iterator@V?$_Tree_val@V?$_Tmap_traits@VioHashString@@UD3DXVECTOR3@@U?$less@VioHashString@@@std@@V?$allocator@U?$pair@$$CBVioHashString@@UD3DXVECTOR3@@@std@@@4@$0A@@std@@@std@@@2@_NPAU_Node@?$_Tree_nod@V?$_Tmap_traits@VioHashString@@UD3DXVECTOR3@@U?$less@VioHashString@@@std@@V?$allocator@U?$pair@$$CBVioHashString@@UD3DXVECTOR3@@@std@@@4@$0A@@std@@@2@1@Z ENDP ; std::_Tree<std::_Tmap_traits<ioHashString,D3DXVECTOR3,std::less<ioHashString>,std::allocator<std::pair<ioHashString const ,D3DXVECTOR3> >,0> >::_Insert
_TEXT	ENDS
PUBLIC	??$_Uninitialized_move@PAUEntityGroupData@ioWorldMesh@@PAU12@V?$allocator@UEntityGroupData@ioWorldMesh@@@std@@@std@@YAPAUEntityGroupData@ioWorldMesh@@PAU12@00AAV?$allocator@UEntityGroupData@ioWorldMesh@@@0@@Z ; std::_Uninitialized_move<ioWorldMesh::EntityGroupData *,ioWorldMesh::EntityGroupData *,std::allocator<ioWorldMesh::EntityGroupData> >
; Function compile flags: /Ogsp
; File c:\program files (x86)\microsoft visual studio 10.0\vc\include\memory
;	COMDAT ??$_Uninitialized_move@PAUEntityGroupData@ioWorldMesh@@PAU12@V?$allocator@UEntityGroupData@ioWorldMesh@@@std@@@std@@YAPAUEntityGroupData@ioWorldMesh@@PAU12@00AAV?$allocator@UEntityGroupData@ioWorldMesh@@@0@@Z
_TEXT	SEGMENT
__Cat$514034 = -4					; size = 1
__First$ = 8						; size = 4
__Last$ = 12						; size = 4
__Dest$ = 16						; size = 4
__Al$ = 20						; size = 4
??$_Uninitialized_move@PAUEntityGroupData@ioWorldMesh@@PAU12@V?$allocator@UEntityGroupData@ioWorldMesh@@@std@@@std@@YAPAUEntityGroupData@ioWorldMesh@@PAU12@00AAV?$allocator@UEntityGroupData@ioWorldMesh@@@0@@Z PROC ; std::_Uninitialized_move<ioWorldMesh::EntityGroupData *,ioWorldMesh::EntityGroupData *,std::allocator<ioWorldMesh::EntityGroupData> >, COMDAT

; 469  : 	{	// move [_First, _Last) to raw _Dest, using _Al

  00000	55		 push	 ebp
  00001	8b ec		 mov	 ebp, esp
  00003	51		 push	 ecx

; 470  : 	return (_Uninit_move(_First, _Last, _Dest, _Al,
; 471  : 		_Val_type(_First), _Ptr_cat(_First, _Dest)));

  00004	ff 75 fc	 push	 DWORD PTR __Cat$514034[ebp]
  00007	6a 00		 push	 0
  00009	ff 75 14	 push	 DWORD PTR __Al$[ebp]
  0000c	ff 75 10	 push	 DWORD PTR __Dest$[ebp]
  0000f	ff 75 0c	 push	 DWORD PTR __Last$[ebp]
  00012	ff 75 08	 push	 DWORD PTR __First$[ebp]
  00015	e8 00 00 00 00	 call	 ??$_Uninit_move@PAUEntityGroupData@ioWorldMesh@@PAU12@V?$allocator@UEntityGroupData@ioWorldMesh@@@std@@U12@@std@@YAPAUEntityGroupData@ioWorldMesh@@PAU12@00AAV?$allocator@UEntityGroupData@ioWorldMesh@@@0@0U_Nonscalar_ptr_iterator_tag@0@@Z ; std::_Uninit_move<ioWorldMesh::EntityGroupData *,ioWorldMesh::EntityGroupData *,std::allocator<ioWorldMesh::EntityGroupData>,ioWorldMesh::EntityGroupData>
  0001a	83 c4 18	 add	 esp, 24			; 00000018H

; 472  : 	}

  0001d	c9		 leave
  0001e	c3		 ret	 0
??$_Uninitialized_move@PAUEntityGroupData@ioWorldMesh@@PAU12@V?$allocator@UEntityGroupData@ioWorldMesh@@@std@@@std@@YAPAUEntityGroupData@ioWorldMesh@@PAU12@00AAV?$allocator@UEntityGroupData@ioWorldMesh@@@0@@Z ENDP ; std::_Uninitialized_move<ioWorldMesh::EntityGroupData *,ioWorldMesh::EntityGroupData *,std::allocator<ioWorldMesh::EntityGroupData> >
_TEXT	ENDS
PUBLIC	??$_Cons_val@V?$allocator@U?$pair@$$CBVioHashString@@UD3DXVECTOR3@@@std@@@std@@U?$pair@$$CBVioHashString@@UD3DXVECTOR3@@@2@U32@@std@@YAXAAV?$allocator@U?$pair@$$CBVioHashString@@UD3DXVECTOR3@@@std@@@0@PAU?$pair@$$CBVioHashString@@UD3DXVECTOR3@@@0@$$QAU20@@Z ; std::_Cons_val<std::allocator<std::pair<ioHashString const ,D3DXVECTOR3> >,std::pair<ioHashString const ,D3DXVECTOR3>,std::pair<ioHashString const ,D3DXVECTOR3> >
; Function compile flags: /Ogsp
; File c:\program files (x86)\microsoft visual studio 10.0\vc\include\xmemory
;	COMDAT ??$_Cons_val@V?$allocator@U?$pair@$$CBVioHashString@@UD3DXVECTOR3@@@std@@@std@@U?$pair@$$CBVioHashString@@UD3DXVECTOR3@@@2@U32@@std@@YAXAAV?$allocator@U?$pair@$$CBVioHashString@@UD3DXVECTOR3@@@std@@@0@PAU?$pair@$$CBVioHashString@@UD3DXVECTOR3@@@0@$$QAU20@@Z
_TEXT	SEGMENT
__Alval$ = 8						; size = 4
__Pdest$ = 12						; size = 4
__Src$ = 16						; size = 4
??$_Cons_val@V?$allocator@U?$pair@$$CBVioHashString@@UD3DXVECTOR3@@@std@@@std@@U?$pair@$$CBVioHashString@@UD3DXVECTOR3@@@2@U32@@std@@YAXAAV?$allocator@U?$pair@$$CBVioHashString@@UD3DXVECTOR3@@@std@@@0@PAU?$pair@$$CBVioHashString@@UD3DXVECTOR3@@@0@$$QAU20@@Z PROC ; std::_Cons_val<std::allocator<std::pair<ioHashString const ,D3DXVECTOR3> >,std::pair<ioHashString const ,D3DXVECTOR3>,std::pair<ioHashString const ,D3DXVECTOR3> >, COMDAT

; 279  : 	{	// construct using allocator

  00000	55		 push	 ebp
  00001	8b ec		 mov	 ebp, esp

; 280  : 	_Alval.construct(_Pdest, _STD forward<_Ty2>(_Src));

  00003	ff 75 10	 push	 DWORD PTR __Src$[ebp]
  00006	8b 4d 08	 mov	 ecx, DWORD PTR __Alval$[ebp]
  00009	ff 75 0c	 push	 DWORD PTR __Pdest$[ebp]
  0000c	e8 00 00 00 00	 call	 ?construct@?$allocator@U?$pair@$$CBVioHashString@@UD3DXVECTOR3@@@std@@@std@@QAEXPAU?$pair@$$CBVioHashString@@UD3DXVECTOR3@@@2@$$QAU32@@Z ; std::allocator<std::pair<ioHashString const ,D3DXVECTOR3> >::construct

; 281  : 	}

  00011	5d		 pop	 ebp
  00012	c3		 ret	 0
??$_Cons_val@V?$allocator@U?$pair@$$CBVioHashString@@UD3DXVECTOR3@@@std@@@std@@U?$pair@$$CBVioHashString@@UD3DXVECTOR3@@@2@U32@@std@@YAXAAV?$allocator@U?$pair@$$CBVioHashString@@UD3DXVECTOR3@@@std@@@0@PAU?$pair@$$CBVioHashString@@UD3DXVECTOR3@@@0@$$QAU20@@Z ENDP ; std::_Cons_val<std::allocator<std::pair<ioHashString const ,D3DXVECTOR3> >,std::pair<ioHashString const ,D3DXVECTOR3>,std::pair<ioHashString const ,D3DXVECTOR3> >
_TEXT	ENDS
PUBLIC	??$_Uninit_move@PAVioHashString@@PAV1@V?$allocator@VioHashString@@@std@@V1@@std@@YAPAVioHashString@@PAV1@00AAV?$allocator@VioHashString@@@0@0U_Nonscalar_ptr_iterator_tag@0@@Z ; std::_Uninit_move<ioHashString *,ioHashString *,std::allocator<ioHashString>,ioHashString>
EXTRN	__EH_prolog3_catch:PROC
;	COMDAT xdata$x
; File c:\program files (x86)\microsoft visual studio 10.0\vc\include\vector
xdata$x	SEGMENT
__catchsym$??$_Uninit_move@PAVioHashString@@PAV1@V?$allocator@VioHashString@@@std@@V1@@std@@YAPAVioHashString@@PAV1@00AAV?$allocator@VioHashString@@@0@0U_Nonscalar_ptr_iterator_tag@0@@Z$2 DD 040H
	DD	00H
	DD	00H
	DD	FLAT:__catch$??$_Uninit_move@PAVioHashString@@PAV1@V?$allocator@VioHashString@@@std@@V1@@std@@YAPAVioHashString@@PAV1@00AAV?$allocator@VioHashString@@@0@0U_Nonscalar_ptr_iterator_tag@0@@Z$0
__unwindtable$??$_Uninit_move@PAVioHashString@@PAV1@V?$allocator@VioHashString@@@std@@V1@@std@@YAPAVioHashString@@PAV1@00AAV?$allocator@VioHashString@@@0@0U_Nonscalar_ptr_iterator_tag@0@@Z DD 0ffffffffH
	DD	00H
	DD	0ffffffffH
	DD	00H
__tryblocktable$??$_Uninit_move@PAVioHashString@@PAV1@V?$allocator@VioHashString@@@std@@V1@@std@@YAPAVioHashString@@PAV1@00AAV?$allocator@VioHashString@@@0@0U_Nonscalar_ptr_iterator_tag@0@@Z DD 00H
	DD	00H
	DD	01H
	DD	01H
	DD	FLAT:__catchsym$??$_Uninit_move@PAVioHashString@@PAV1@V?$allocator@VioHashString@@@std@@V1@@std@@YAPAVioHashString@@PAV1@00AAV?$allocator@VioHashString@@@0@0U_Nonscalar_ptr_iterator_tag@0@@Z$2
__ehfuncinfo$??$_Uninit_move@PAVioHashString@@PAV1@V?$allocator@VioHashString@@@std@@V1@@std@@YAPAVioHashString@@PAV1@00AAV?$allocator@VioHashString@@@0@0U_Nonscalar_ptr_iterator_tag@0@@Z DD 019930522H
	DD	02H
	DD	FLAT:__unwindtable$??$_Uninit_move@PAVioHashString@@PAV1@V?$allocator@VioHashString@@@std@@V1@@std@@YAPAVioHashString@@PAV1@00AAV?$allocator@VioHashString@@@0@0U_Nonscalar_ptr_iterator_tag@0@@Z
	DD	01H
	DD	FLAT:__tryblocktable$??$_Uninit_move@PAVioHashString@@PAV1@V?$allocator@VioHashString@@@std@@V1@@std@@YAPAVioHashString@@PAV1@00AAV?$allocator@VioHashString@@@0@0U_Nonscalar_ptr_iterator_tag@0@@Z
	DD	2 DUP(00H)
	DD	00H
	DD	01H
; Function compile flags: /Ogsp
; File c:\program files (x86)\microsoft visual studio 10.0\vc\include\memory
xdata$x	ENDS
;	COMDAT ??$_Uninit_move@PAVioHashString@@PAV1@V?$allocator@VioHashString@@@std@@V1@@std@@YAPAVioHashString@@PAV1@00AAV?$allocator@VioHashString@@@0@0U_Nonscalar_ptr_iterator_tag@0@@Z
_TEXT	SEGMENT
__Next$ = -20						; size = 4
__$EHRec$ = -16						; size = 16
__First$ = 8						; size = 4
__Last$ = 12						; size = 4
__Dest$ = 16						; size = 4
__Al$ = 20						; size = 4
___formal$ = 24						; size = 4
___formal$ = 28						; size = 1
??$_Uninit_move@PAVioHashString@@PAV1@V?$allocator@VioHashString@@@std@@V1@@std@@YAPAVioHashString@@PAV1@00AAV?$allocator@VioHashString@@@0@0U_Nonscalar_ptr_iterator_tag@0@@Z PROC ; std::_Uninit_move<ioHashString *,ioHashString *,std::allocator<ioHashString>,ioHashString>, COMDAT

; 424  : 	{	// move [_First, _Last) to raw _Dest, using _Al, arbitrary type

  00000	6a 08		 push	 8
  00002	b8 00 00 00 00	 mov	 eax, __ehhandler$??$_Uninit_move@PAVioHashString@@PAV1@V?$allocator@VioHashString@@@std@@V1@@std@@YAPAVioHashString@@PAV1@00AAV?$allocator@VioHashString@@@0@0U_Nonscalar_ptr_iterator_tag@0@@Z
  00007	e8 00 00 00 00	 call	 __EH_prolog3_catch

; 425  : 	_DEBUG_RANGE(_First, _Last);
; 426  : 	_DEBUG_POINTER(_Dest);
; 427  : 	_FwdIt _Next = _Dest;

  0000c	8b 45 10	 mov	 eax, DWORD PTR __Dest$[ebp]

; 428  : 
; 429  : 	_TRY_BEGIN

  0000f	83 65 fc 00	 and	 DWORD PTR __$EHRec$[ebp+12], 0
  00013	8b 75 08	 mov	 esi, DWORD PTR __First$[ebp]
  00016	89 45 ec	 mov	 DWORD PTR __Next$[ebp], eax
$LL6@Uninit_mov@2:

; 430  : 	for (; _First != _Last; ++_Dest, ++_First)

  00019	3b 75 0c	 cmp	 esi, DWORD PTR __Last$[ebp]
  0001c	74 33		 je	 SHORT $LN4@Uninit_mov@2

; 431  : 		_Cons_val(_Al, _Dest, (_Valty &&)*_First);

  0001e	8b 4d 14	 mov	 ecx, DWORD PTR __Al$[ebp]
  00021	56		 push	 esi
  00022	ff 75 10	 push	 DWORD PTR __Dest$[ebp]
  00025	e8 00 00 00 00	 call	 ?construct@?$allocator@VioHashString@@@std@@QAEXPAVioHashString@@$$QAV3@@Z ; std::allocator<ioHashString>::construct
  0002a	83 45 10 10	 add	 DWORD PTR __Dest$[ebp], 16 ; 00000010H
  0002e	83 c6 10	 add	 esi, 16			; 00000010H
  00031	eb e6		 jmp	 SHORT $LL6@Uninit_mov@2
__catch$??$_Uninit_move@PAVioHashString@@PAV1@V?$allocator@VioHashString@@@std@@V1@@std@@YAPAVioHashString@@PAV1@00AAV?$allocator@VioHashString@@@0@0U_Nonscalar_ptr_iterator_tag@0@@Z$0:

; 432  : 	_CATCH_ALL
; 433  : 	for (; _Next != _Dest; ++_Next)

  00033	8b 75 ec	 mov	 esi, DWORD PTR __Next$[ebp]
  00036	eb 0b		 jmp	 SHORT $LN33@Uninit_mov@2
$LL3@Uninit_mov@2:

; 434  : 		_Dest_val(_Al, _Next);

  00038	8b ce		 mov	 ecx, esi
  0003a	ff 15 00 00 00
	00		 call	 DWORD PTR __imp_??1ioHashString@@QAE@XZ
  00040	83 c6 10	 add	 esi, 16			; 00000010H
$LN33@Uninit_mov@2:

; 432  : 	_CATCH_ALL
; 433  : 	for (; _Next != _Dest; ++_Next)

  00043	3b 75 10	 cmp	 esi, DWORD PTR __Dest$[ebp]
  00046	75 f0		 jne	 SHORT $LL3@Uninit_mov@2

; 435  : 	_RERAISE;

  00048	6a 00		 push	 0
  0004a	6a 00		 push	 0
  0004c	e8 00 00 00 00	 call	 __CxxThrowException@8
$LN34@Uninit_mov@2:
$LN4@Uninit_mov@2:

; 436  : 	_CATCH_END
; 437  : 	return (_Dest);

  00051	8b 45 10	 mov	 eax, DWORD PTR __Dest$[ebp]

; 438  : 	}

  00054	e8 00 00 00 00	 call	 __EH_epilog3
  00059	c3		 ret	 0
$LN32@Uninit_mov@2:
_TEXT	ENDS
;	COMDAT text$x
text$x	SEGMENT
__ehhandler$??$_Uninit_move@PAVioHashString@@PAV1@V?$allocator@VioHashString@@@std@@V1@@std@@YAPAVioHashString@@PAV1@00AAV?$allocator@VioHashString@@@0@0U_Nonscalar_ptr_iterator_tag@0@@Z:
  00000	8b 54 24 08	 mov	 edx, DWORD PTR [esp+8]
  00004	8d 42 0c	 lea	 eax, DWORD PTR [edx+12]
  00007	8b 4a e8	 mov	 ecx, DWORD PTR [edx-24]
  0000a	33 c8		 xor	 ecx, eax
  0000c	e8 00 00 00 00	 call	 @__security_check_cookie@4
  00011	b8 00 00 00 00	 mov	 eax, OFFSET __ehfuncinfo$??$_Uninit_move@PAVioHashString@@PAV1@V?$allocator@VioHashString@@@std@@V1@@std@@YAPAVioHashString@@PAV1@00AAV?$allocator@VioHashString@@@0@0U_Nonscalar_ptr_iterator_tag@0@@Z
  00016	e9 00 00 00 00	 jmp	 ___CxxFrameHandler3
text$x	ENDS
??$_Uninit_move@PAVioHashString@@PAV1@V?$allocator@VioHashString@@@std@@V1@@std@@YAPAVioHashString@@PAV1@00AAV?$allocator@VioHashString@@@0@0U_Nonscalar_ptr_iterator_tag@0@@Z ENDP ; std::_Uninit_move<ioHashString *,ioHashString *,std::allocator<ioHashString>,ioHashString>
PUBLIC	??$_Destroy_range@V?$allocator@VioHashString@@@std@@@std@@YAXPAVioHashString@@0AAV?$allocator@VioHashString@@@0@U_Nonscalar_ptr_iterator_tag@0@@Z ; std::_Destroy_range<std::allocator<ioHashString> >
; Function compile flags: /Ogsp
; File c:\program files (x86)\microsoft visual studio 10.0\vc\include\xmemory
;	COMDAT ??$_Destroy_range@V?$allocator@VioHashString@@@std@@@std@@YAXPAVioHashString@@0AAV?$allocator@VioHashString@@@0@U_Nonscalar_ptr_iterator_tag@0@@Z
_TEXT	SEGMENT
__First$ = 8						; size = 4
__Last$ = 12						; size = 4
__Al$ = 16						; size = 4
___formal$ = 20						; size = 1
??$_Destroy_range@V?$allocator@VioHashString@@@std@@@std@@YAXPAVioHashString@@0AAV?$allocator@VioHashString@@@0@U_Nonscalar_ptr_iterator_tag@0@@Z PROC ; std::_Destroy_range<std::allocator<ioHashString> >, COMDAT

; 95   : 	{	// destroy [_First, _Last), arbitrary type

  00000	55		 push	 ebp
  00001	8b ec		 mov	 ebp, esp
  00003	56		 push	 esi

; 96   : 	for (; _First != _Last; ++_First)

  00004	8b 75 08	 mov	 esi, DWORD PTR __First$[ebp]
  00007	eb 0b		 jmp	 SHORT $LN17@Destroy_ra
$LL3@Destroy_ra:

; 97   : 		_Dest_val(_Al, _First);

  00009	8b ce		 mov	 ecx, esi
  0000b	ff 15 00 00 00
	00		 call	 DWORD PTR __imp_??1ioHashString@@QAE@XZ
  00011	83 c6 10	 add	 esi, 16			; 00000010H
$LN17@Destroy_ra:

; 96   : 	for (; _First != _Last; ++_First)

  00014	3b 75 0c	 cmp	 esi, DWORD PTR __Last$[ebp]
  00017	75 f0		 jne	 SHORT $LL3@Destroy_ra
  00019	5e		 pop	 esi

; 98   : 	}

  0001a	5d		 pop	 ebp
  0001b	c3		 ret	 0
??$_Destroy_range@V?$allocator@VioHashString@@@std@@@std@@YAXPAVioHashString@@0AAV?$allocator@VioHashString@@@0@U_Nonscalar_ptr_iterator_tag@0@@Z ENDP ; std::_Destroy_range<std::allocator<ioHashString> >
_TEXT	ENDS
PUBLIC	?_Erase@?$_Tree@V?$_Tmap_traits@VioHashString@@UD3DXVECTOR3@@U?$less@VioHashString@@@std@@V?$allocator@U?$pair@$$CBVioHashString@@UD3DXVECTOR3@@@std@@@4@$0A@@std@@@std@@IAEXPAU_Node@?$_Tree_nod@V?$_Tmap_traits@VioHashString@@UD3DXVECTOR3@@U?$less@VioHashString@@@std@@V?$allocator@U?$pair@$$CBVioHashString@@UD3DXVECTOR3@@@std@@@4@$0A@@std@@@2@@Z ; std::_Tree<std::_Tmap_traits<ioHashString,D3DXVECTOR3,std::less<ioHashString>,std::allocator<std::pair<ioHashString const ,D3DXVECTOR3> >,0> >::_Erase
; Function compile flags: /Ogsp
; File c:\program files (x86)\microsoft visual studio 10.0\vc\include\xtree
;	COMDAT ?_Erase@?$_Tree@V?$_Tmap_traits@VioHashString@@UD3DXVECTOR3@@U?$less@VioHashString@@@std@@V?$allocator@U?$pair@$$CBVioHashString@@UD3DXVECTOR3@@@std@@@4@$0A@@std@@@std@@IAEXPAU_Node@?$_Tree_nod@V?$_Tmap_traits@VioHashString@@UD3DXVECTOR3@@U?$less@VioHashString@@@std@@V?$allocator@U?$pair@$$CBVioHashString@@UD3DXVECTOR3@@@std@@@4@$0A@@std@@@2@@Z
_TEXT	SEGMENT
__Rootnode$ = 8						; size = 4
?_Erase@?$_Tree@V?$_Tmap_traits@VioHashString@@UD3DXVECTOR3@@U?$less@VioHashString@@@std@@V?$allocator@U?$pair@$$CBVioHashString@@UD3DXVECTOR3@@@std@@@4@$0A@@std@@@std@@IAEXPAU_Node@?$_Tree_nod@V?$_Tmap_traits@VioHashString@@UD3DXVECTOR3@@U?$less@VioHashString@@@std@@V?$allocator@U?$pair@$$CBVioHashString@@UD3DXVECTOR3@@@std@@@4@$0A@@std@@@2@@Z PROC ; std::_Tree<std::_Tmap_traits<ioHashString,D3DXVECTOR3,std::less<ioHashString>,std::allocator<std::pair<ioHashString const ,D3DXVECTOR3> >,0> >::_Erase, COMDAT
; _this$ = ecx

; 1610 : 		{	// free entire subtree, recursively

  00000	55		 push	 ebp
  00001	8b ec		 mov	 ebp, esp
  00003	53		 push	 ebx
  00004	56		 push	 esi
  00005	57		 push	 edi

; 1611 : 		for (_Nodeptr _Pnode = _Rootnode;

  00006	8b 7d 08	 mov	 edi, DWORD PTR __Rootnode$[ebp]

; 1612 : 			!this->_Isnil(_Pnode); _Rootnode = _Pnode)

  00009	80 7f 29 00	 cmp	 BYTE PTR [edi+41], 0
  0000d	8b d9		 mov	 ebx, ecx
  0000f	8b f7		 mov	 esi, edi
  00011	75 24		 jne	 SHORT $LN1@Erase
$LL3@Erase:

; 1613 : 			{	// free subtrees, then node
; 1614 : 			_Erase(this->_Right(_Pnode));

  00013	ff 76 08	 push	 DWORD PTR [esi+8]
  00016	8b cb		 mov	 ecx, ebx
  00018	e8 00 00 00 00	 call	 ?_Erase@?$_Tree@V?$_Tmap_traits@VioHashString@@UD3DXVECTOR3@@U?$less@VioHashString@@@std@@V?$allocator@U?$pair@$$CBVioHashString@@UD3DXVECTOR3@@@std@@@4@$0A@@std@@@std@@IAEXPAU_Node@?$_Tree_nod@V?$_Tmap_traits@VioHashString@@UD3DXVECTOR3@@U?$less@VioHashString@@@std@@V?$allocator@U?$pair@$$CBVioHashString@@UD3DXVECTOR3@@@std@@@4@$0A@@std@@@2@@Z ; std::_Tree<std::_Tmap_traits<ioHashString,D3DXVECTOR3,std::less<ioHashString>,std::allocator<std::pair<ioHashString const ,D3DXVECTOR3> >,0> >::_Erase

; 1615 : 			_Pnode = this->_Left(_Pnode);

  0001d	8b 36		 mov	 esi, DWORD PTR [esi]

; 1616 : 			_Dest_val(this->_Alval,
; 1617 : 				_STD addressof(this->_Myval(_Rootnode)));

  0001f	8d 4f 0c	 lea	 ecx, DWORD PTR [edi+12]
  00022	ff 15 00 00 00
	00		 call	 DWORD PTR __imp_??1ioHashString@@QAE@XZ

; 1618 : 
; 1619 : 			this->_Alnod.deallocate(_Rootnode, 1);

  00028	57		 push	 edi
  00029	e8 00 00 00 00	 call	 ??3@YAXPAX@Z		; operator delete
  0002e	80 7e 29 00	 cmp	 BYTE PTR [esi+41], 0
  00032	59		 pop	 ecx
  00033	8b fe		 mov	 edi, esi
  00035	74 dc		 je	 SHORT $LL3@Erase
$LN1@Erase:
  00037	5f		 pop	 edi
  00038	5e		 pop	 esi
  00039	5b		 pop	 ebx

; 1620 : 			}
; 1621 : 		}

  0003a	5d		 pop	 ebp
  0003b	c2 04 00	 ret	 4
?_Erase@?$_Tree@V?$_Tmap_traits@VioHashString@@UD3DXVECTOR3@@U?$less@VioHashString@@@std@@V?$allocator@U?$pair@$$CBVioHashString@@UD3DXVECTOR3@@@std@@@4@$0A@@std@@@std@@IAEXPAU_Node@?$_Tree_nod@V?$_Tmap_traits@VioHashString@@UD3DXVECTOR3@@U?$less@VioHashString@@@std@@V?$allocator@U?$pair@$$CBVioHashString@@UD3DXVECTOR3@@@std@@@4@$0A@@std@@@2@@Z ENDP ; std::_Tree<std::_Tmap_traits<ioHashString,D3DXVECTOR3,std::less<ioHashString>,std::allocator<std::pair<ioHashString const ,D3DXVECTOR3> >,0> >::_Erase
_TEXT	ENDS
PUBLIC	?_Destroy@?$vector@UEntityGroupData@ioWorldMesh@@V?$allocator@UEntityGroupData@ioWorldMesh@@@std@@@std@@IAEXPAUEntityGroupData@ioWorldMesh@@0@Z ; std::vector<ioWorldMesh::EntityGroupData,std::allocator<ioWorldMesh::EntityGroupData> >::_Destroy
; Function compile flags: /Ogsp
; File c:\program files (x86)\microsoft visual studio 10.0\vc\include\vector
;	COMDAT ?_Destroy@?$vector@UEntityGroupData@ioWorldMesh@@V?$allocator@UEntityGroupData@ioWorldMesh@@@std@@@std@@IAEXPAUEntityGroupData@ioWorldMesh@@0@Z
_TEXT	SEGMENT
__First$ = 8						; size = 4
__Last$ = 12						; size = 4
?_Destroy@?$vector@UEntityGroupData@ioWorldMesh@@V?$allocator@UEntityGroupData@ioWorldMesh@@@std@@@std@@IAEXPAUEntityGroupData@ioWorldMesh@@0@Z PROC ; std::vector<ioWorldMesh::EntityGroupData,std::allocator<ioWorldMesh::EntityGroupData> >::_Destroy, COMDAT
; _this$ = ecx

; 1270 : 		_Destroy_range(_First, _Last, this->_Alval);
; 1271 : 		}

  00000	c2 08 00	 ret	 8
?_Destroy@?$vector@UEntityGroupData@ioWorldMesh@@V?$allocator@UEntityGroupData@ioWorldMesh@@@std@@@std@@IAEXPAUEntityGroupData@ioWorldMesh@@0@Z ENDP ; std::vector<ioWorldMesh::EntityGroupData,std::allocator<ioWorldMesh::EntityGroupData> >::_Destroy
_TEXT	ENDS
PUBLIC	??_C@_0BM@PAPJHAGI@invalid?5map?1set?$DMT?$DO?5iterator?$AA@ ; `string'
PUBLIC	?erase@?$_Tree@V?$_Tmap_traits@VioHashString@@UD3DXVECTOR3@@U?$less@VioHashString@@@std@@V?$allocator@U?$pair@$$CBVioHashString@@UD3DXVECTOR3@@@std@@@4@$0A@@std@@@std@@QAE?AV?$_Tree_iterator@V?$_Tree_val@V?$_Tmap_traits@VioHashString@@UD3DXVECTOR3@@U?$less@VioHashString@@@std@@V?$allocator@U?$pair@$$CBVioHashString@@UD3DXVECTOR3@@@std@@@4@$0A@@std@@@std@@@2@V?$_Tree_const_iterator@V?$_Tree_val@V?$_Tmap_traits@VioHashString@@UD3DXVECTOR3@@U?$less@VioHashString@@@std@@V?$allocator@U?$pair@$$CBVioHashString@@UD3DXVECTOR3@@@std@@@4@$0A@@std@@@std@@@2@@Z ; std::_Tree<std::_Tmap_traits<ioHashString,D3DXVECTOR3,std::less<ioHashString>,std::allocator<std::pair<ioHashString const ,D3DXVECTOR3> >,0> >::erase
EXTRN	__imp_?_Xout_of_range@std@@YAXPBD@Z:PROC
;	COMDAT ??_C@_0BM@PAPJHAGI@invalid?5map?1set?$DMT?$DO?5iterator?$AA@
; File c:\program files (x86)\microsoft visual studio 10.0\vc\include\xutility
CONST	SEGMENT
??_C@_0BM@PAPJHAGI@invalid?5map?1set?$DMT?$DO?5iterator?$AA@ DB 'invalid '
	DB	'map/set<T> iterator', 00H			; `string'
; Function compile flags: /Ogsp
; File c:\program files (x86)\microsoft visual studio 10.0\vc\include\xtree
CONST	ENDS
;	COMDAT ?erase@?$_Tree@V?$_Tmap_traits@VioHashString@@UD3DXVECTOR3@@U?$less@VioHashString@@@std@@V?$allocator@U?$pair@$$CBVioHashString@@UD3DXVECTOR3@@@std@@@4@$0A@@std@@@std@@QAE?AV?$_Tree_iterator@V?$_Tree_val@V?$_Tmap_traits@VioHashString@@UD3DXVECTOR3@@U?$less@VioHashString@@@std@@V?$allocator@U?$pair@$$CBVioHashString@@UD3DXVECTOR3@@@std@@@4@$0A@@std@@@std@@@2@V?$_Tree_const_iterator@V?$_Tree_val@V?$_Tmap_traits@VioHashString@@UD3DXVECTOR3@@U?$less@VioHashString@@@std@@V?$allocator@U?$pair@$$CBVioHashString@@UD3DXVECTOR3@@@std@@@4@$0A@@std@@@std@@@2@@Z
_TEXT	SEGMENT
_this$ = -4						; size = 4
___$ReturnUdt$ = 8					; size = 4
__Where$ = 12						; size = 4
?erase@?$_Tree@V?$_Tmap_traits@VioHashString@@UD3DXVECTOR3@@U?$less@VioHashString@@@std@@V?$allocator@U?$pair@$$CBVioHashString@@UD3DXVECTOR3@@@std@@@4@$0A@@std@@@std@@QAE?AV?$_Tree_iterator@V?$_Tree_val@V?$_Tmap_traits@VioHashString@@UD3DXVECTOR3@@U?$less@VioHashString@@@std@@V?$allocator@U?$pair@$$CBVioHashString@@UD3DXVECTOR3@@@std@@@4@$0A@@std@@@std@@@2@V?$_Tree_const_iterator@V?$_Tree_val@V?$_Tmap_traits@VioHashString@@UD3DXVECTOR3@@U?$less@VioHashString@@@std@@V?$allocator@U?$pair@$$CBVioHashString@@UD3DXVECTOR3@@@std@@@4@$0A@@std@@@std@@@2@@Z PROC ; std::_Tree<std::_Tmap_traits<ioHashString,D3DXVECTOR3,std::less<ioHashString>,std::allocator<std::pair<ioHashString const ,D3DXVECTOR3> >,0> >::erase, COMDAT
; _this$ = ecx

; 1195 : 		{	// erase element at _Where

  00000	55		 push	 ebp
  00001	8b ec		 mov	 ebp, esp
  00003	51		 push	 ecx
  00004	53		 push	 ebx
  00005	56		 push	 esi
  00006	57		 push	 edi

; 1196 :  #if _ITERATOR_DEBUG_LEVEL == 2
; 1197 : 		if (_Where._Getcont() != this || this->_Isnil(_Where._Mynode()))
; 1198 : 			_DEBUG_ERROR("map/set erase iterator outside range");
; 1199 : 		_Nodeptr _Erasednode = _Where._Mynode();	// node to erase
; 1200 : 		++_Where;	// save successor iterator for return
; 1201 : 		_Orphan_ptr(*this, _Erasednode);
; 1202 : 
; 1203 :  #else /* _ITERATOR_DEBUG_LEVEL == 2 */
; 1204 : 		if (this->_Isnil(_Where._Mynode()))

  00007	8b 7d 0c	 mov	 edi, DWORD PTR __Where$[ebp]
  0000a	80 7f 29 00	 cmp	 BYTE PTR [edi+41], 0
  0000e	89 4d fc	 mov	 DWORD PTR _this$[ebp], ecx
  00011	74 0b		 je	 SHORT $LN40@erase

; 1205 : 			_Xout_of_range("invalid map/set<T> iterator");

  00013	68 00 00 00 00	 push	 OFFSET ??_C@_0BM@PAPJHAGI@invalid?5map?1set?$DMT?$DO?5iterator?$AA@
  00018	ff 15 00 00 00
	00		 call	 DWORD PTR __imp_?_Xout_of_range@std@@YAXPBD@Z
$LN338@erase:
$LN40@erase:

; 1206 : 		_Nodeptr _Erasednode = _Where._Mynode();	// node to erase
; 1207 : 		++_Where;	// save successor iterator for return

  0001e	8d 4d 0c	 lea	 ecx, DWORD PTR __Where$[ebp]
  00021	e8 00 00 00 00	 call	 ??E?$_Tree_unchecked_const_iterator@V?$_Tree_val@V?$_Tmap_traits@VioHashString@@UD3DXVECTOR3@@U?$less@VioHashString@@@std@@V?$allocator@U?$pair@$$CBVioHashString@@UD3DXVECTOR3@@@std@@@4@$0A@@std@@@std@@U_Iterator_base0@2@@std@@QAEAAV01@XZ ; std::_Tree_unchecked_const_iterator<std::_Tree_val<std::_Tmap_traits<ioHashString,D3DXVECTOR3,std::less<ioHashString>,std::allocator<std::pair<ioHashString const ,D3DXVECTOR3> >,0> >,std::_Iterator_base0>::operator++

; 1208 :  #endif /* _ITERATOR_DEBUG_LEVEL == 2 */
; 1209 : 
; 1210 : 		_Nodeptr _Fixnode;	// the node to recolor as needed
; 1211 : 		_Nodeptr _Fixnodeparent;	// parent of _Fixnode (which may be nil)
; 1212 : 		_Nodeptr _Pnode = _Erasednode;
; 1213 : 
; 1214 : 		if (this->_Isnil(this->_Left(_Pnode)))

  00026	8b 17		 mov	 edx, DWORD PTR [edi]
  00028	80 7a 29 00	 cmp	 BYTE PTR [edx+41], 0
  0002c	74 05		 je	 SHORT $LN39@erase

; 1215 : 			_Fixnode = this->_Right(_Pnode);	// stitch up right subtree

  0002e	8b 5f 08	 mov	 ebx, DWORD PTR [edi+8]

; 1216 : 		else if (this->_Isnil(this->_Right(_Pnode)))

  00031	eb 17		 jmp	 SHORT $LN330@erase
$LN39@erase:
  00033	8b 47 08	 mov	 eax, DWORD PTR [edi+8]
  00036	80 78 29 00	 cmp	 BYTE PTR [eax+41], 0
  0003a	74 04		 je	 SHORT $LN37@erase

; 1217 : 			_Fixnode = this->_Left(_Pnode);	// stitch up left subtree

  0003c	8b da		 mov	 ebx, edx

; 1218 : 		else

  0003e	eb 0a		 jmp	 SHORT $LN330@erase
$LN37@erase:

; 1219 : 			{	// two subtrees, must lift successor node to replace erased
; 1220 : 			_Pnode = _Where._Mynode();	// _Pnode is successor node

  00040	8b 45 0c	 mov	 eax, DWORD PTR __Where$[ebp]

; 1221 : 			_Fixnode = this->_Right(_Pnode);	// _Fixnode is only subtree

  00043	8b 58 08	 mov	 ebx, DWORD PTR [eax+8]

; 1222 : 			}
; 1223 : 
; 1224 : 		if (_Pnode == _Erasednode)

  00046	3b c7		 cmp	 eax, edi
  00048	75 76		 jne	 SHORT $LN35@erase
$LN330@erase:

; 1225 : 			{	// at most one subtree, relink it
; 1226 : 			_Fixnodeparent = this->_Parent(_Erasednode);
; 1227 : 			if (!this->_Isnil(_Fixnode))

  0004a	80 7b 29 00	 cmp	 BYTE PTR [ebx+41], 0
  0004e	8b 77 04	 mov	 esi, DWORD PTR [edi+4]
  00051	75 03		 jne	 SHORT $LN34@erase

; 1228 : 				this->_Parent(_Fixnode) = _Fixnodeparent;	// link up

  00053	89 73 04	 mov	 DWORD PTR [ebx+4], esi
$LN34@erase:

; 1229 : 
; 1230 : 			if (_Root() == _Erasednode)

  00056	8b 4d fc	 mov	 ecx, DWORD PTR _this$[ebp]
  00059	8b 41 04	 mov	 eax, DWORD PTR [ecx+4]
  0005c	39 78 04	 cmp	 DWORD PTR [eax+4], edi
  0005f	75 05		 jne	 SHORT $LN33@erase

; 1231 : 				_Root() = _Fixnode;	// link down from root

  00061	89 58 04	 mov	 DWORD PTR [eax+4], ebx

; 1232 : 			else if (this->_Left(_Fixnodeparent) == _Erasednode)

  00064	eb 0b		 jmp	 SHORT $LN30@erase
$LN33@erase:
  00066	39 3e		 cmp	 DWORD PTR [esi], edi
  00068	75 04		 jne	 SHORT $LN31@erase

; 1233 : 				this->_Left(_Fixnodeparent) = _Fixnode;	// link down to left

  0006a	89 1e		 mov	 DWORD PTR [esi], ebx

; 1234 : 			else

  0006c	eb 03		 jmp	 SHORT $LN30@erase
$LN31@erase:

; 1235 : 				this->_Right(_Fixnodeparent) =
; 1236 : 					_Fixnode;	// link down to right

  0006e	89 5e 08	 mov	 DWORD PTR [esi+8], ebx
$LN30@erase:

; 1237 : 
; 1238 : 			if (_Lmost() == _Erasednode)

  00071	8b 49 04	 mov	 ecx, DWORD PTR [ecx+4]
  00074	39 39		 cmp	 DWORD PTR [ecx], edi
  00076	75 1c		 jne	 SHORT $LN29@erase

; 1239 : 				_Lmost() = this->_Isnil(_Fixnode)
; 1240 : 					? _Fixnodeparent	// smallest is parent of erased node
; 1241 : 					: this->_Min(_Fixnode);	// smallest in relinked subtree

  00078	80 7b 29 00	 cmp	 BYTE PTR [ebx+41], 0
  0007c	74 04		 je	 SHORT $LN43@erase
  0007e	8b d6		 mov	 edx, esi
  00080	eb 10		 jmp	 SHORT $LN97@erase
$LN43@erase:
  00082	8b 03		 mov	 eax, DWORD PTR [ebx]
  00084	8b d3		 mov	 edx, ebx
  00086	eb 04		 jmp	 SHORT $LN332@erase
$LL98@erase:
  00088	8b d0		 mov	 edx, eax
  0008a	8b 02		 mov	 eax, DWORD PTR [edx]
$LN332@erase:
  0008c	80 78 29 00	 cmp	 BYTE PTR [eax+41], 0
  00090	74 f6		 je	 SHORT $LL98@erase
$LN97@erase:
  00092	89 11		 mov	 DWORD PTR [ecx], edx
$LN29@erase:

; 1242 : 
; 1243 : 			if (_Rmost() == _Erasednode)

  00094	8b 45 fc	 mov	 eax, DWORD PTR _this$[ebp]
  00097	8b 48 04	 mov	 ecx, DWORD PTR [eax+4]
  0009a	39 79 08	 cmp	 DWORD PTR [ecx+8], edi
  0009d	75 7b		 jne	 SHORT $LN185@erase

; 1244 : 				_Rmost() = this->_Isnil(_Fixnode)
; 1245 : 					? _Fixnodeparent	// largest is parent of erased node
; 1246 : 					: this->_Max(_Fixnode);	// largest in relinked subtree

  0009f	80 7b 29 00	 cmp	 BYTE PTR [ebx+41], 0
  000a3	74 04		 je	 SHORT $LN45@erase
  000a5	8b d6		 mov	 edx, esi
  000a7	eb 12		 jmp	 SHORT $LN117@erase
$LN45@erase:
  000a9	8b 43 08	 mov	 eax, DWORD PTR [ebx+8]
  000ac	8b d3		 mov	 edx, ebx
  000ae	eb 05		 jmp	 SHORT $LN333@erase
$LL118@erase:
  000b0	8b d0		 mov	 edx, eax
  000b2	8b 42 08	 mov	 eax, DWORD PTR [edx+8]
$LN333@erase:
  000b5	80 78 29 00	 cmp	 BYTE PTR [eax+41], 0
  000b9	74 f5		 je	 SHORT $LL118@erase
$LN117@erase:
  000bb	89 51 08	 mov	 DWORD PTR [ecx+8], edx

; 1247 : 			}
; 1248 : 		else

  000be	eb 5a		 jmp	 SHORT $LN185@erase
$LN35@erase:

; 1249 : 			{	// erased has two subtrees, _Pnode is successor to erased
; 1250 : 			this->_Parent(this->_Left(_Erasednode)) =
; 1251 : 				_Pnode;	// link left up

  000c0	89 42 04	 mov	 DWORD PTR [edx+4], eax

; 1252 : 			this->_Left(_Pnode) =
; 1253 : 				this->_Left(_Erasednode);	// link successor down

  000c3	8b 17		 mov	 edx, DWORD PTR [edi]
  000c5	89 10		 mov	 DWORD PTR [eax], edx

; 1254 : 
; 1255 : 			if (_Pnode == this->_Right(_Erasednode))

  000c7	3b 47 08	 cmp	 eax, DWORD PTR [edi+8]
  000ca	75 04		 jne	 SHORT $LN26@erase

; 1256 : 				_Fixnodeparent = _Pnode;	// successor is next to erased

  000cc	8b f0		 mov	 esi, eax

; 1257 : 			else

  000ce	eb 1a		 jmp	 SHORT $LN25@erase
$LN26@erase:

; 1258 : 				{	// successor further down, link in place of erased
; 1259 : 				_Fixnodeparent =
; 1260 : 					this->_Parent(_Pnode);	// parent is successor's
; 1261 : 				if (!this->_Isnil(_Fixnode))

  000d0	80 7b 29 00	 cmp	 BYTE PTR [ebx+41], 0
  000d4	8b 70 04	 mov	 esi, DWORD PTR [eax+4]
  000d7	75 03		 jne	 SHORT $LN24@erase

; 1262 : 					this->_Parent(_Fixnode) = _Fixnodeparent;	// link fix up

  000d9	89 73 04	 mov	 DWORD PTR [ebx+4], esi
$LN24@erase:

; 1263 : 				this->_Left(_Fixnodeparent) = _Fixnode;	// link fix down

  000dc	89 1e		 mov	 DWORD PTR [esi], ebx

; 1264 : 				this->_Right(_Pnode) =
; 1265 : 					this->_Right(_Erasednode);	// link next down

  000de	8b 57 08	 mov	 edx, DWORD PTR [edi+8]
  000e1	89 50 08	 mov	 DWORD PTR [eax+8], edx

; 1266 : 				this->_Parent(this->_Right(_Erasednode)) =
; 1267 : 					_Pnode;	// right up

  000e4	8b 4f 08	 mov	 ecx, DWORD PTR [edi+8]
  000e7	89 41 04	 mov	 DWORD PTR [ecx+4], eax
$LN25@erase:

; 1268 : 				}
; 1269 : 
; 1270 : 			if (_Root() == _Erasednode)

  000ea	8b 4d fc	 mov	 ecx, DWORD PTR _this$[ebp]
  000ed	8b 49 04	 mov	 ecx, DWORD PTR [ecx+4]
  000f0	39 79 04	 cmp	 DWORD PTR [ecx+4], edi
  000f3	75 05		 jne	 SHORT $LN23@erase

; 1271 : 				_Root() = _Pnode;	// link down from root

  000f5	89 41 04	 mov	 DWORD PTR [ecx+4], eax

; 1272 : 			else if (this->_Left(this->_Parent(_Erasednode)) == _Erasednode)

  000f8	eb 0e		 jmp	 SHORT $LN20@erase
$LN23@erase:
  000fa	8b 4f 04	 mov	 ecx, DWORD PTR [edi+4]
  000fd	39 39		 cmp	 DWORD PTR [ecx], edi
  000ff	75 04		 jne	 SHORT $LN21@erase

; 1273 : 				this->_Left(this->_Parent(_Erasednode)) =
; 1274 : 					_Pnode;	// link down to left

  00101	89 01		 mov	 DWORD PTR [ecx], eax

; 1275 : 			else

  00103	eb 03		 jmp	 SHORT $LN20@erase
$LN21@erase:

; 1276 : 				this->_Right(this->_Parent(_Erasednode)) =
; 1277 : 					_Pnode;	// link down to right

  00105	89 41 08	 mov	 DWORD PTR [ecx+8], eax
$LN20@erase:

; 1278 : 
; 1279 : 			this->_Parent(_Pnode) =
; 1280 : 				this->_Parent(_Erasednode);	// link successor up

  00108	8b 4f 04	 mov	 ecx, DWORD PTR [edi+4]
  0010b	89 48 04	 mov	 DWORD PTR [eax+4], ecx

; 1281 : 			_STD swap(this->_Color(_Pnode),
; 1282 : 				this->_Color(_Erasednode));	// recolor it

  0010e	8a 57 28	 mov	 dl, BYTE PTR [edi+40]
  00111	8a 48 28	 mov	 cl, BYTE PTR [eax+40]
  00114	88 50 28	 mov	 BYTE PTR [eax+40], dl
  00117	88 4f 28	 mov	 BYTE PTR [edi+40], cl
$LN185@erase:

; 1283 : 			}
; 1284 : 
; 1285 : 		if (this->_Color(_Erasednode) == this->_Black)

  0011a	80 7f 28 01	 cmp	 BYTE PTR [edi+40], 1
  0011e	0f 85 03 01 00
	00		 jne	 $LN19@erase

; 1286 : 			{	// erasing black link, must recolor/rebalance tree
; 1287 : 			for (; _Fixnode != _Root()
; 1288 : 				&& this->_Color(_Fixnode) == this->_Black;
; 1289 : 				_Fixnodeparent = this->_Parent(_Fixnode))

  00124	e9 b2 00 00 00	 jmp	 $LN335@erase
$LL18@erase:
  00129	80 7b 28 01	 cmp	 BYTE PTR [ebx+40], 1
  0012d	0f 85 f0 00 00
	00		 jne	 $LN16@erase

; 1290 : 				if (_Fixnode == this->_Left(_Fixnodeparent))

  00133	8b 06		 mov	 eax, DWORD PTR [esi]
  00135	3b d8		 cmp	 ebx, eax
  00137	75 6c		 jne	 SHORT $LN15@erase

; 1291 : 					{	// fixup left subtree
; 1292 : 					_Pnode = this->_Right(_Fixnodeparent);

  00139	8b 46 08	 mov	 eax, DWORD PTR [esi+8]

; 1293 : 					if (this->_Color(_Pnode) == this->_Red)

  0013c	80 78 28 00	 cmp	 BYTE PTR [eax+40], 0
  00140	75 11		 jne	 SHORT $LN14@erase

; 1294 : 						{	// rotate red up from right subtree
; 1295 : 						this->_Color(_Pnode) = this->_Black;

  00142	c6 40 28 01	 mov	 BYTE PTR [eax+40], 1

; 1296 : 						this->_Color(_Fixnodeparent) = this->_Red;
; 1297 : 						_Lrotate(_Fixnodeparent);

  00146	56		 push	 esi
  00147	c6 46 28 00	 mov	 BYTE PTR [esi+40], 0
  0014b	e8 00 00 00 00	 call	 ?_Lrotate@?$_Tree@V?$_Tmap_traits@VioHashString@@UD3DXVECTOR3@@U?$less@VioHashString@@@std@@V?$allocator@U?$pair@$$CBVioHashString@@UD3DXVECTOR3@@@std@@@4@$0A@@std@@@std@@IAEXPAU_Node@?$_Tree_nod@V?$_Tmap_traits@VioHashString@@UD3DXVECTOR3@@U?$less@VioHashString@@@std@@V?$allocator@U?$pair@$$CBVioHashString@@UD3DXVECTOR3@@@std@@@4@$0A@@std@@@2@@Z ; std::_Tree<std::_Tmap_traits<ioHashString,D3DXVECTOR3,std::less<ioHashString>,std::allocator<std::pair<ioHashString const ,D3DXVECTOR3> >,0> >::_Lrotate

; 1298 : 						_Pnode = this->_Right(_Fixnodeparent);

  00150	8b 46 08	 mov	 eax, DWORD PTR [esi+8]
$LN14@erase:

; 1299 : 						}
; 1300 : 
; 1301 : 					if (this->_Isnil(_Pnode))

  00153	80 78 29 00	 cmp	 BYTE PTR [eax+41], 0

; 1302 : 						_Fixnode = _Fixnodeparent;	// shouldn't happen
; 1303 : 					else if (this->_Color(this->_Left(_Pnode)) == this->_Black

  00157	75 7d		 jne	 SHORT $LN336@erase

; 1304 : 						&& this->_Color(this->_Right(_Pnode)) == this->_Black)

  00159	8b 08		 mov	 ecx, DWORD PTR [eax]
  0015b	80 79 28 01	 cmp	 BYTE PTR [ecx+40], 1
  0015f	75 09		 jne	 SHORT $LN11@erase
  00161	8b 48 08	 mov	 ecx, DWORD PTR [eax+8]
  00164	80 79 28 01	 cmp	 BYTE PTR [ecx+40], 1
  00168	74 68		 je	 SHORT $LN337@erase
$LN11@erase:

; 1305 : 						{	// redden right subtree with black children
; 1306 : 						this->_Color(_Pnode) = this->_Red;
; 1307 : 						_Fixnode = _Fixnodeparent;
; 1308 : 						}
; 1309 : 					else
; 1310 : 						{	// must rearrange right subtree
; 1311 : 						if (this->_Color(this->_Right(_Pnode))
; 1312 : 							== this->_Black)

  0016a	8b 48 08	 mov	 ecx, DWORD PTR [eax+8]
  0016d	80 79 28 01	 cmp	 BYTE PTR [ecx+40], 1
  00171	75 16		 jne	 SHORT $LN9@erase

; 1313 : 							{	// rotate red up from left sub-subtree
; 1314 : 							this->_Color(this->_Left(_Pnode)) = this->_Black;

  00173	8b 08		 mov	 ecx, DWORD PTR [eax]
  00175	c6 41 28 01	 mov	 BYTE PTR [ecx+40], 1

; 1315 : 							this->_Color(_Pnode) = this->_Red;
; 1316 : 							_Rrotate(_Pnode);

  00179	8b 4d fc	 mov	 ecx, DWORD PTR _this$[ebp]
  0017c	50		 push	 eax
  0017d	c6 40 28 00	 mov	 BYTE PTR [eax+40], 0
  00181	e8 00 00 00 00	 call	 ?_Rrotate@?$_Tree@V?$_Tmap_traits@VioHashString@@UD3DXVECTOR3@@U?$less@VioHashString@@@std@@V?$allocator@U?$pair@$$CBVioHashString@@UD3DXVECTOR3@@@std@@@4@$0A@@std@@@std@@IAEXPAU_Node@?$_Tree_nod@V?$_Tmap_traits@VioHashString@@UD3DXVECTOR3@@U?$less@VioHashString@@@std@@V?$allocator@U?$pair@$$CBVioHashString@@UD3DXVECTOR3@@@std@@@4@$0A@@std@@@2@@Z ; std::_Tree<std::_Tmap_traits<ioHashString,D3DXVECTOR3,std::less<ioHashString>,std::allocator<std::pair<ioHashString const ,D3DXVECTOR3> >,0> >::_Rrotate

; 1317 : 							_Pnode = this->_Right(_Fixnodeparent);

  00186	8b 46 08	 mov	 eax, DWORD PTR [esi+8]
$LN9@erase:

; 1318 : 							}
; 1319 : 
; 1320 : 						this->_Color(_Pnode) = this->_Color(_Fixnodeparent);

  00189	8a 4e 28	 mov	 cl, BYTE PTR [esi+40]
  0018c	88 48 28	 mov	 BYTE PTR [eax+40], cl

; 1321 : 						this->_Color(_Fixnodeparent) = this->_Black;
; 1322 : 						this->_Color(this->_Right(_Pnode)) = this->_Black;
; 1323 : 						_Lrotate(_Fixnodeparent);

  0018f	8b 4d fc	 mov	 ecx, DWORD PTR _this$[ebp]
  00192	c6 46 28 01	 mov	 BYTE PTR [esi+40], 1
  00196	8b 40 08	 mov	 eax, DWORD PTR [eax+8]
  00199	56		 push	 esi
  0019a	c6 40 28 01	 mov	 BYTE PTR [eax+40], 1
  0019e	e8 00 00 00 00	 call	 ?_Lrotate@?$_Tree@V?$_Tmap_traits@VioHashString@@UD3DXVECTOR3@@U?$less@VioHashString@@@std@@V?$allocator@U?$pair@$$CBVioHashString@@UD3DXVECTOR3@@@std@@@4@$0A@@std@@@std@@IAEXPAU_Node@?$_Tree_nod@V?$_Tmap_traits@VioHashString@@UD3DXVECTOR3@@U?$less@VioHashString@@@std@@V?$allocator@U?$pair@$$CBVioHashString@@UD3DXVECTOR3@@@std@@@4@$0A@@std@@@2@@Z ; std::_Tree<std::_Tmap_traits<ioHashString,D3DXVECTOR3,std::less<ioHashString>,std::allocator<std::pair<ioHashString const ,D3DXVECTOR3> >,0> >::_Lrotate

; 1324 : 						break;	// tree now recolored/rebalanced

  001a3	eb 7e		 jmp	 SHORT $LN16@erase
$LN15@erase:

; 1325 : 						}
; 1326 : 					}
; 1327 : 				else
; 1328 : 					{	// fixup right subtree
; 1329 : 					_Pnode = this->_Left(_Fixnodeparent);
; 1330 : 					if (this->_Color(_Pnode) == this->_Red)

  001a5	80 78 28 00	 cmp	 BYTE PTR [eax+40], 0
  001a9	75 10		 jne	 SHORT $LN7@erase

; 1331 : 						{	// rotate red up from left subtree
; 1332 : 						this->_Color(_Pnode) = this->_Black;

  001ab	c6 40 28 01	 mov	 BYTE PTR [eax+40], 1

; 1333 : 						this->_Color(_Fixnodeparent) = this->_Red;
; 1334 : 						_Rrotate(_Fixnodeparent);

  001af	56		 push	 esi
  001b0	c6 46 28 00	 mov	 BYTE PTR [esi+40], 0
  001b4	e8 00 00 00 00	 call	 ?_Rrotate@?$_Tree@V?$_Tmap_traits@VioHashString@@UD3DXVECTOR3@@U?$less@VioHashString@@@std@@V?$allocator@U?$pair@$$CBVioHashString@@UD3DXVECTOR3@@@std@@@4@$0A@@std@@@std@@IAEXPAU_Node@?$_Tree_nod@V?$_Tmap_traits@VioHashString@@UD3DXVECTOR3@@U?$less@VioHashString@@@std@@V?$allocator@U?$pair@$$CBVioHashString@@UD3DXVECTOR3@@@std@@@4@$0A@@std@@@2@@Z ; std::_Tree<std::_Tmap_traits<ioHashString,D3DXVECTOR3,std::less<ioHashString>,std::allocator<std::pair<ioHashString const ,D3DXVECTOR3> >,0> >::_Rrotate

; 1335 : 						_Pnode = this->_Left(_Fixnodeparent);

  001b9	8b 06		 mov	 eax, DWORD PTR [esi]
$LN7@erase:

; 1336 : 						}
; 1337 : 					if (this->_Isnil(_Pnode))

  001bb	80 78 29 00	 cmp	 BYTE PTR [eax+41], 0

; 1338 : 						_Fixnode = _Fixnodeparent;	// shouldn't happen
; 1339 : 					else if (this->_Color(this->_Right(_Pnode)) ==

  001bf	75 15		 jne	 SHORT $LN336@erase

; 1340 : 						this->_Black
; 1341 : 						&& this->_Color(this->_Left(_Pnode)) == this->_Black)

  001c1	8b 48 08	 mov	 ecx, DWORD PTR [eax+8]
  001c4	80 79 28 01	 cmp	 BYTE PTR [ecx+40], 1
  001c8	75 22		 jne	 SHORT $LN4@erase
  001ca	8b 08		 mov	 ecx, DWORD PTR [eax]
  001cc	80 79 28 01	 cmp	 BYTE PTR [ecx+40], 1
  001d0	75 1a		 jne	 SHORT $LN4@erase
$LN337@erase:

; 1342 : 						{	// redden left subtree with black children
; 1343 : 						this->_Color(_Pnode) = this->_Red;

  001d2	c6 40 28 00	 mov	 BYTE PTR [eax+40], 0
$LN336@erase:

; 1344 : 						_Fixnode = _Fixnodeparent;

  001d6	8b de		 mov	 ebx, esi
  001d8	8b 76 04	 mov	 esi, DWORD PTR [esi+4]
$LN335@erase:

; 1286 : 			{	// erasing black link, must recolor/rebalance tree
; 1287 : 			for (; _Fixnode != _Root()
; 1288 : 				&& this->_Color(_Fixnode) == this->_Black;
; 1289 : 				_Fixnodeparent = this->_Parent(_Fixnode))

  001db	8b 4d fc	 mov	 ecx, DWORD PTR _this$[ebp]
  001de	8b 41 04	 mov	 eax, DWORD PTR [ecx+4]
  001e1	3b 58 04	 cmp	 ebx, DWORD PTR [eax+4]
  001e4	0f 85 3f ff ff
	ff		 jne	 $LL18@erase
  001ea	eb 37		 jmp	 SHORT $LN16@erase
$LN4@erase:

; 1345 : 						}
; 1346 : 					else
; 1347 : 						{	// must rearrange left subtree
; 1348 : 						if (this->_Color(this->_Left(_Pnode)) == this->_Black)

  001ec	8b 08		 mov	 ecx, DWORD PTR [eax]
  001ee	80 79 28 01	 cmp	 BYTE PTR [ecx+40], 1
  001f2	75 16		 jne	 SHORT $LN2@erase

; 1349 : 							{	// rotate red up from right sub-subtree
; 1350 : 							this->_Color(this->_Right(_Pnode)) = this->_Black;

  001f4	8b 48 08	 mov	 ecx, DWORD PTR [eax+8]
  001f7	c6 41 28 01	 mov	 BYTE PTR [ecx+40], 1

; 1351 : 							this->_Color(_Pnode) = this->_Red;
; 1352 : 							_Lrotate(_Pnode);

  001fb	8b 4d fc	 mov	 ecx, DWORD PTR _this$[ebp]
  001fe	50		 push	 eax
  001ff	c6 40 28 00	 mov	 BYTE PTR [eax+40], 0
  00203	e8 00 00 00 00	 call	 ?_Lrotate@?$_Tree@V?$_Tmap_traits@VioHashString@@UD3DXVECTOR3@@U?$less@VioHashString@@@std@@V?$allocator@U?$pair@$$CBVioHashString@@UD3DXVECTOR3@@@std@@@4@$0A@@std@@@std@@IAEXPAU_Node@?$_Tree_nod@V?$_Tmap_traits@VioHashString@@UD3DXVECTOR3@@U?$less@VioHashString@@@std@@V?$allocator@U?$pair@$$CBVioHashString@@UD3DXVECTOR3@@@std@@@4@$0A@@std@@@2@@Z ; std::_Tree<std::_Tmap_traits<ioHashString,D3DXVECTOR3,std::less<ioHashString>,std::allocator<std::pair<ioHashString const ,D3DXVECTOR3> >,0> >::_Lrotate

; 1353 : 							_Pnode = this->_Left(_Fixnodeparent);

  00208	8b 06		 mov	 eax, DWORD PTR [esi]
$LN2@erase:

; 1354 : 							}
; 1355 : 
; 1356 : 						this->_Color(_Pnode) = this->_Color(_Fixnodeparent);

  0020a	8a 4e 28	 mov	 cl, BYTE PTR [esi+40]
  0020d	88 48 28	 mov	 BYTE PTR [eax+40], cl

; 1357 : 						this->_Color(_Fixnodeparent) = this->_Black;
; 1358 : 						this->_Color(this->_Left(_Pnode)) = this->_Black;
; 1359 : 						_Rrotate(_Fixnodeparent);

  00210	8b 4d fc	 mov	 ecx, DWORD PTR _this$[ebp]
  00213	c6 46 28 01	 mov	 BYTE PTR [esi+40], 1
  00217	8b 00		 mov	 eax, DWORD PTR [eax]
  00219	56		 push	 esi
  0021a	c6 40 28 01	 mov	 BYTE PTR [eax+40], 1
  0021e	e8 00 00 00 00	 call	 ?_Rrotate@?$_Tree@V?$_Tmap_traits@VioHashString@@UD3DXVECTOR3@@U?$less@VioHashString@@@std@@V?$allocator@U?$pair@$$CBVioHashString@@UD3DXVECTOR3@@@std@@@4@$0A@@std@@@std@@IAEXPAU_Node@?$_Tree_nod@V?$_Tmap_traits@VioHashString@@UD3DXVECTOR3@@U?$less@VioHashString@@@std@@V?$allocator@U?$pair@$$CBVioHashString@@UD3DXVECTOR3@@@std@@@4@$0A@@std@@@2@@Z ; std::_Tree<std::_Tmap_traits<ioHashString,D3DXVECTOR3,std::less<ioHashString>,std::allocator<std::pair<ioHashString const ,D3DXVECTOR3> >,0> >::_Rrotate
$LN16@erase:

; 1360 : 						break;	// tree now recolored/rebalanced
; 1361 : 						}
; 1362 : 					}
; 1363 : 
; 1364 : 			this->_Color(_Fixnode) = this->_Black;	// stopping node is black

  00223	c6 43 28 01	 mov	 BYTE PTR [ebx+40], 1
$LN19@erase:

; 1365 : 			}
; 1366 : 
; 1367 : 		_Dest_val(this->_Alval,
; 1368 : 			_STD addressof(this->_Myval(_Erasednode)));	// delete erased node

  00227	8d 4f 0c	 lea	 ecx, DWORD PTR [edi+12]
  0022a	ff 15 00 00 00
	00		 call	 DWORD PTR __imp_??1ioHashString@@QAE@XZ

; 1369 : 
; 1370 : 		this->_Alnod.deallocate(_Erasednode, 1);

  00230	57		 push	 edi
  00231	e8 00 00 00 00	 call	 ??3@YAXPAX@Z		; operator delete
  00236	59		 pop	 ecx

; 1371 : 
; 1372 : 		if (0 < this->_Mysize)

  00237	8b 4d fc	 mov	 ecx, DWORD PTR _this$[ebp]
  0023a	8b 41 08	 mov	 eax, DWORD PTR [ecx+8]
  0023d	5f		 pop	 edi
  0023e	5e		 pop	 esi
  0023f	5b		 pop	 ebx
  00240	85 c0		 test	 eax, eax
  00242	74 04		 je	 SHORT $LN1@erase

; 1373 : 			--this->_Mysize;

  00244	48		 dec	 eax
  00245	89 41 08	 mov	 DWORD PTR [ecx+8], eax
$LN1@erase:

; 1374 : 
; 1375 : 		return (iterator(_Where._Ptr, this));	// return successor iterator

  00248	8b 45 08	 mov	 eax, DWORD PTR ___$ReturnUdt$[ebp]
  0024b	8b 4d 0c	 mov	 ecx, DWORD PTR __Where$[ebp]
  0024e	89 08		 mov	 DWORD PTR [eax], ecx

; 1376 : 		}

  00250	c9		 leave
  00251	c2 08 00	 ret	 8
$LN331@erase:
?erase@?$_Tree@V?$_Tmap_traits@VioHashString@@UD3DXVECTOR3@@U?$less@VioHashString@@@std@@V?$allocator@U?$pair@$$CBVioHashString@@UD3DXVECTOR3@@@std@@@4@$0A@@std@@@std@@QAE?AV?$_Tree_iterator@V?$_Tree_val@V?$_Tmap_traits@VioHashString@@UD3DXVECTOR3@@U?$less@VioHashString@@@std@@V?$allocator@U?$pair@$$CBVioHashString@@UD3DXVECTOR3@@@std@@@4@$0A@@std@@@std@@@2@V?$_Tree_const_iterator@V?$_Tree_val@V?$_Tmap_traits@VioHashString@@UD3DXVECTOR3@@U?$less@VioHashString@@@std@@V?$allocator@U?$pair@$$CBVioHashString@@UD3DXVECTOR3@@@std@@@4@$0A@@std@@@std@@@2@@Z ENDP ; std::_Tree<std::_Tmap_traits<ioHashString,D3DXVECTOR3,std::less<ioHashString>,std::allocator<std::pair<ioHashString const ,D3DXVECTOR3> >,0> >::erase
_TEXT	ENDS
PUBLIC	??$_Umove@PAUEntityGroupData@ioWorldMesh@@@?$vector@UEntityGroupData@ioWorldMesh@@V?$allocator@UEntityGroupData@ioWorldMesh@@@std@@@std@@IAEPAUEntityGroupData@ioWorldMesh@@PAU23@00@Z ; std::vector<ioWorldMesh::EntityGroupData,std::allocator<ioWorldMesh::EntityGroupData> >::_Umove<ioWorldMesh::EntityGroupData *>
; Function compile flags: /Ogsp
; File c:\program files (x86)\microsoft visual studio 10.0\vc\include\vector
;	COMDAT ??$_Umove@PAUEntityGroupData@ioWorldMesh@@@?$vector@UEntityGroupData@ioWorldMesh@@V?$allocator@UEntityGroupData@ioWorldMesh@@@std@@@std@@IAEPAUEntityGroupData@ioWorldMesh@@PAU23@00@Z
_TEXT	SEGMENT
__First$ = 8						; size = 4
__Last$ = 12						; size = 4
__Ptr$ = 16						; size = 4
??$_Umove@PAUEntityGroupData@ioWorldMesh@@@?$vector@UEntityGroupData@ioWorldMesh@@V?$allocator@UEntityGroupData@ioWorldMesh@@@std@@@std@@IAEPAUEntityGroupData@ioWorldMesh@@PAU23@00@Z PROC ; std::vector<ioWorldMesh::EntityGroupData,std::allocator<ioWorldMesh::EntityGroupData> >::_Umove<ioWorldMesh::EntityGroupData *>, COMDAT
; _this$ = ecx

; 1322 : 		pointer _Umove(_Iter _First, _Iter _Last, pointer _Ptr)

  00000	55		 push	 ebp
  00001	8b ec		 mov	 ebp, esp

; 1323 : 		{	// move initializing [_First, _Last), using allocator
; 1324 : 		return (_Uninitialized_move(_First, _Last,
; 1325 : 			_Ptr, this->_Alval));

  00003	83 c1 0c	 add	 ecx, 12			; 0000000cH
  00006	51		 push	 ecx
  00007	ff 75 10	 push	 DWORD PTR __Ptr$[ebp]
  0000a	ff 75 0c	 push	 DWORD PTR __Last$[ebp]
  0000d	ff 75 08	 push	 DWORD PTR __First$[ebp]
  00010	e8 00 00 00 00	 call	 ??$_Uninitialized_move@PAUEntityGroupData@ioWorldMesh@@PAU12@V?$allocator@UEntityGroupData@ioWorldMesh@@@std@@@std@@YAPAUEntityGroupData@ioWorldMesh@@PAU12@00AAV?$allocator@UEntityGroupData@ioWorldMesh@@@0@@Z ; std::_Uninitialized_move<ioWorldMesh::EntityGroupData *,ioWorldMesh::EntityGroupData *,std::allocator<ioWorldMesh::EntityGroupData> >
  00015	83 c4 10	 add	 esp, 16			; 00000010H

; 1326 : 		}

  00018	5d		 pop	 ebp
  00019	c2 0c 00	 ret	 12			; 0000000cH
??$_Umove@PAUEntityGroupData@ioWorldMesh@@@?$vector@UEntityGroupData@ioWorldMesh@@V?$allocator@UEntityGroupData@ioWorldMesh@@@std@@@std@@IAEPAUEntityGroupData@ioWorldMesh@@PAU23@00@Z ENDP ; std::vector<ioWorldMesh::EntityGroupData,std::allocator<ioWorldMesh::EntityGroupData> >::_Umove<ioWorldMesh::EntityGroupData *>
_TEXT	ENDS
PUBLIC	?_Linsert@?$_Tree@V?$_Tmap_traits@VioHashString@@UD3DXVECTOR3@@U?$less@VioHashString@@@std@@V?$allocator@U?$pair@$$CBVioHashString@@UD3DXVECTOR3@@@std@@@4@$0A@@std@@@std@@QAE?AU?$pair@V?$_Tree_iterator@V?$_Tree_val@V?$_Tmap_traits@VioHashString@@UD3DXVECTOR3@@U?$less@VioHashString@@@std@@V?$allocator@U?$pair@$$CBVioHashString@@UD3DXVECTOR3@@@std@@@4@$0A@@std@@@std@@@std@@_N@2@PAU_Node@?$_Tree_nod@V?$_Tmap_traits@VioHashString@@UD3DXVECTOR3@@U?$less@VioHashString@@@std@@V?$allocator@U?$pair@$$CBVioHashString@@UD3DXVECTOR3@@@std@@@4@$0A@@std@@@2@_N@Z ; std::_Tree<std::_Tmap_traits<ioHashString,D3DXVECTOR3,std::less<ioHashString>,std::allocator<std::pair<ioHashString const ,D3DXVECTOR3> >,0> >::_Linsert
; Function compile flags: /Ogsp
; File c:\program files (x86)\microsoft visual studio 10.0\vc\include\xtree
;	COMDAT ?_Linsert@?$_Tree@V?$_Tmap_traits@VioHashString@@UD3DXVECTOR3@@U?$less@VioHashString@@@std@@V?$allocator@U?$pair@$$CBVioHashString@@UD3DXVECTOR3@@@std@@@4@$0A@@std@@@std@@QAE?AU?$pair@V?$_Tree_iterator@V?$_Tree_val@V?$_Tmap_traits@VioHashString@@UD3DXVECTOR3@@U?$less@VioHashString@@@std@@V?$allocator@U?$pair@$$CBVioHashString@@UD3DXVECTOR3@@@std@@@4@$0A@@std@@@std@@@std@@_N@2@PAU_Node@?$_Tree_nod@V?$_Tmap_traits@VioHashString@@UD3DXVECTOR3@@U?$less@VioHashString@@@std@@V?$allocator@U?$pair@$$CBVioHashString@@UD3DXVECTOR3@@@std@@@4@$0A@@std@@@2@_N@Z
_TEXT	SEGMENT
__Addleft$ = -8						; size = 1
__Wherenode$ = -4					; size = 4
___$ReturnUdt$ = 8					; size = 4
__Node$ = 12						; size = 4
$T514803 = 16						; size = 4
__Where$509772 = 16					; size = 4
__Leftish$ = 16						; size = 1
?_Linsert@?$_Tree@V?$_Tmap_traits@VioHashString@@UD3DXVECTOR3@@U?$less@VioHashString@@@std@@V?$allocator@U?$pair@$$CBVioHashString@@UD3DXVECTOR3@@@std@@@4@$0A@@std@@@std@@QAE?AU?$pair@V?$_Tree_iterator@V?$_Tree_val@V?$_Tmap_traits@VioHashString@@UD3DXVECTOR3@@U?$less@VioHashString@@@std@@V?$allocator@U?$pair@$$CBVioHashString@@UD3DXVECTOR3@@@std@@@4@$0A@@std@@@std@@@std@@_N@2@PAU_Node@?$_Tree_nod@V?$_Tmap_traits@VioHashString@@UD3DXVECTOR3@@U?$less@VioHashString@@@std@@V?$allocator@U?$pair@$$CBVioHashString@@UD3DXVECTOR3@@@std@@@4@$0A@@std@@@2@_N@Z PROC ; std::_Tree<std::_Tmap_traits<ioHashString,D3DXVECTOR3,std::less<ioHashString>,std::allocator<std::pair<ioHashString const ,D3DXVECTOR3> >,0> >::_Linsert, COMDAT
; _this$ = ecx

; 944  : 		{	// try to insert node at _Node, on left if _Leftish

  00000	55		 push	 ebp
  00001	8b ec		 mov	 ebp, esp
  00003	51		 push	 ecx
  00004	51		 push	 ecx
  00005	53		 push	 ebx

; 945  : 		const value_type& _Val = this->_Myval(_Node);

  00006	8b 5d 0c	 mov	 ebx, DWORD PTR __Node$[ebp]
  00009	56		 push	 esi
  0000a	57		 push	 edi
  0000b	8b f9		 mov	 edi, ecx

; 946  : 
; 947  : 		_Nodeptr _Trynode = _Root();

  0000d	8b 47 04	 mov	 eax, DWORD PTR [edi+4]
  00010	8b 70 04	 mov	 esi, DWORD PTR [eax+4]

; 948  : 		_Nodeptr _Wherenode = this->_Myhead;

  00013	89 45 fc	 mov	 DWORD PTR __Wherenode$[ebp], eax

; 949  : 		bool _Addleft = true;	// add to left of head if tree empty

  00016	b0 01		 mov	 al, 1
  00018	83 c3 0c	 add	 ebx, 12			; 0000000cH
  0001b	88 45 f8	 mov	 BYTE PTR __Addleft$[ebp], al
  0001e	eb 35		 jmp	 SHORT $LN160@Linsert
$LL12@Linsert:

; 951  : 			{	// look for leaf to insert before (_Addleft) or after
; 952  : 			_Wherenode = _Trynode;
; 953  : 			if (_Leftish)

  00020	80 7d 10 00	 cmp	 BYTE PTR __Leftish$[ebp], 0
  00024	89 75 fc	 mov	 DWORD PTR __Wherenode$[ebp], esi
  00027	74 12		 je	 SHORT $LN10@Linsert

; 954  : 				_Addleft = !_DEBUG_LT_PRED(this->comp,

  00029	53		 push	 ebx
  0002a	8d 4e 0c	 lea	 ecx, DWORD PTR [esi+12]
  0002d	ff 15 00 00 00
	00		 call	 DWORD PTR __imp_??MioHashString@@QBE_NABV0@@Z
  00033	f6 d8		 neg	 al
  00035	1a c0		 sbb	 al, al
  00037	fe c0		 inc	 al

; 955  : 					this->_Key(_Trynode),
; 956  : 					this->_Kfn(_Val));	// favor left end
; 957  : 			else

  00039	eb 0c		 jmp	 SHORT $LN161@Linsert
$LN10@Linsert:

; 958  : 				_Addleft = _DEBUG_LT_PRED(this->comp,

  0003b	8d 46 0c	 lea	 eax, DWORD PTR [esi+12]
  0003e	50		 push	 eax
  0003f	8b cb		 mov	 ecx, ebx
  00041	ff 15 00 00 00
	00		 call	 DWORD PTR __imp_??MioHashString@@QBE_NABV0@@Z
$LN161@Linsert:
  00047	88 45 f8	 mov	 BYTE PTR __Addleft$[ebp], al

; 959  : 					this->_Kfn(_Val),
; 960  : 					this->_Key(_Trynode));	// favor right end
; 961  : 			_Trynode = _Addleft ? this->_Left(_Trynode)
; 962  : 				: this->_Right(_Trynode);

  0004a	84 c0		 test	 al, al
  0004c	74 04		 je	 SHORT $LN15@Linsert
  0004e	8b 36		 mov	 esi, DWORD PTR [esi]
  00050	eb 03		 jmp	 SHORT $LN160@Linsert
$LN15@Linsert:
  00052	8b 76 08	 mov	 esi, DWORD PTR [esi+8]
$LN160@Linsert:

; 950  : 		while (!this->_Isnil(_Trynode))

  00055	80 7e 29 00	 cmp	 BYTE PTR [esi+41], 0
  00059	74 c5		 je	 SHORT $LL12@Linsert

; 963  : 			}
; 964  : 
; 965  : 		if (this->_Multi)
; 966  : 			return (_Pairib(_Insert(_Addleft, _Wherenode, _Node), true));
; 967  : 		else
; 968  : 			{	// insert only if unique
; 969  : 			iterator _Where = iterator(_Wherenode, this);

  0005b	8b 75 fc	 mov	 esi, DWORD PTR __Wherenode$[ebp]
  0005e	89 75 10	 mov	 DWORD PTR __Where$509772[ebp], esi

; 970  : 			if (!_Addleft)

  00061	84 c0		 test	 al, al
  00063	74 30		 je	 SHORT $LN99@Linsert

; 971  : 				;	// need to test if insert after is okay
; 972  : 			else if (_Where == begin())

  00065	8b 47 04	 mov	 eax, DWORD PTR [edi+4]
  00068	3b 30		 cmp	 esi, DWORD PTR [eax]
  0006a	75 1e		 jne	 SHORT $LN4@Linsert

; 973  : 				return (_Pairib(_Insert(true, _Wherenode, _Node), true));

  0006c	ff 75 0c	 push	 DWORD PTR __Node$[ebp]
  0006f	56		 push	 esi
  00070	6a 01		 push	 1
$LN162@Linsert:
  00072	8d 45 10	 lea	 eax, DWORD PTR $T514803[ebp]
  00075	50		 push	 eax
  00076	8b cf		 mov	 ecx, edi
  00078	e8 00 00 00 00	 call	 ?_Insert@?$_Tree@V?$_Tmap_traits@VioHashString@@UD3DXVECTOR3@@U?$less@VioHashString@@@std@@V?$allocator@U?$pair@$$CBVioHashString@@UD3DXVECTOR3@@@std@@@4@$0A@@std@@@std@@IAE?AV?$_Tree_iterator@V?$_Tree_val@V?$_Tmap_traits@VioHashString@@UD3DXVECTOR3@@U?$less@VioHashString@@@std@@V?$allocator@U?$pair@$$CBVioHashString@@UD3DXVECTOR3@@@std@@@4@$0A@@std@@@std@@@2@_NPAU_Node@?$_Tree_nod@V?$_Tmap_traits@VioHashString@@UD3DXVECTOR3@@U?$less@VioHashString@@@std@@V?$allocator@U?$pair@$$CBVioHashString@@UD3DXVECTOR3@@@std@@@4@$0A@@std@@@2@1@Z ; std::_Tree<std::_Tmap_traits<ioHashString,D3DXVECTOR3,std::less<ioHashString>,std::allocator<std::pair<ioHashString const ,D3DXVECTOR3> >,0> >::_Insert
  0007d	8b 08		 mov	 ecx, DWORD PTR [eax]
  0007f	8b 45 08	 mov	 eax, DWORD PTR ___$ReturnUdt$[ebp]
  00082	89 08		 mov	 DWORD PTR [eax], ecx
  00084	c6 40 04 01	 mov	 BYTE PTR [eax+4], 1
  00088	eb 3e		 jmp	 SHORT $LN1@Linsert
$LN4@Linsert:

; 974  : 			else
; 975  : 				--_Where;	// need to test if insert before is okay

  0008a	8d 4d 10	 lea	 ecx, DWORD PTR __Where$509772[ebp]
  0008d	e8 00 00 00 00	 call	 ??F?$_Tree_unchecked_const_iterator@V?$_Tree_val@V?$_Tmap_traits@VioHashString@@UD3DXVECTOR3@@U?$less@VioHashString@@@std@@V?$allocator@U?$pair@$$CBVioHashString@@UD3DXVECTOR3@@@std@@@4@$0A@@std@@@std@@U_Iterator_base0@2@@std@@QAEAAV01@XZ ; std::_Tree_unchecked_const_iterator<std::_Tree_val<std::_Tmap_traits<ioHashString,D3DXVECTOR3,std::less<ioHashString>,std::allocator<std::pair<ioHashString const ,D3DXVECTOR3> >,0> >,std::_Iterator_base0>::operator--
  00092	8b 75 10	 mov	 esi, DWORD PTR __Where$509772[ebp]
$LN99@Linsert:

; 976  : 
; 977  : 			if (_DEBUG_LT_PRED(this->comp,

  00095	53		 push	 ebx
  00096	8d 4e 0c	 lea	 ecx, DWORD PTR [esi+12]
  00099	ff 15 00 00 00
	00		 call	 DWORD PTR __imp_??MioHashString@@QBE_NABV0@@Z
  0009f	84 c0		 test	 al, al
  000a1	74 0b		 je	 SHORT $LN2@Linsert

; 978  : 				this->_Key(_Where._Mynode()),
; 979  : 				this->_Kfn(_Val)))
; 980  : 				return (_Pairib(_Insert(_Addleft, _Wherenode, _Node), true));

  000a3	ff 75 0c	 push	 DWORD PTR __Node$[ebp]
  000a6	ff 75 fc	 push	 DWORD PTR __Wherenode$[ebp]
  000a9	ff 75 f8	 push	 DWORD PTR __Addleft$[ebp]
  000ac	eb c4		 jmp	 SHORT $LN162@Linsert
$LN2@Linsert:

; 981  : 			else
; 982  : 				{	// duplicate, don't insert
; 983  : 				_Dest_val(this->_Alval,
; 984  : 					_STD addressof(this->_Myval(_Node)));

  000ae	8b cb		 mov	 ecx, ebx
  000b0	ff 15 00 00 00
	00		 call	 DWORD PTR __imp_??1ioHashString@@QAE@XZ

; 985  : 
; 986  : 				this->_Alnod.deallocate(_Node, 1);

  000b6	ff 75 0c	 push	 DWORD PTR __Node$[ebp]
  000b9	e8 00 00 00 00	 call	 ??3@YAXPAX@Z		; operator delete

; 987  : 
; 988  : 				return (_Pairib(_Where, false));

  000be	8b 45 08	 mov	 eax, DWORD PTR ___$ReturnUdt$[ebp]
  000c1	59		 pop	 ecx
  000c2	89 30		 mov	 DWORD PTR [eax], esi
  000c4	c6 40 04 00	 mov	 BYTE PTR [eax+4], 0
$LN1@Linsert:
  000c8	5f		 pop	 edi
  000c9	5e		 pop	 esi
  000ca	5b		 pop	 ebx

; 989  : 				}
; 990  : 			}
; 991  : 		}

  000cb	c9		 leave
  000cc	c2 0c 00	 ret	 12			; 0000000cH
?_Linsert@?$_Tree@V?$_Tmap_traits@VioHashString@@UD3DXVECTOR3@@U?$less@VioHashString@@@std@@V?$allocator@U?$pair@$$CBVioHashString@@UD3DXVECTOR3@@@std@@@4@$0A@@std@@@std@@QAE?AU?$pair@V?$_Tree_iterator@V?$_Tree_val@V?$_Tmap_traits@VioHashString@@UD3DXVECTOR3@@U?$less@VioHashString@@@std@@V?$allocator@U?$pair@$$CBVioHashString@@UD3DXVECTOR3@@@std@@@4@$0A@@std@@@std@@@std@@_N@2@PAU_Node@?$_Tree_nod@V?$_Tmap_traits@VioHashString@@UD3DXVECTOR3@@U?$less@VioHashString@@@std@@V?$allocator@U?$pair@$$CBVioHashString@@UD3DXVECTOR3@@@std@@@4@$0A@@std@@@2@_N@Z ENDP ; std::_Tree<std::_Tmap_traits<ioHashString,D3DXVECTOR3,std::less<ioHashString>,std::allocator<std::pair<ioHashString const ,D3DXVECTOR3> >,0> >::_Linsert
_TEXT	ENDS
PUBLIC	??$_Buynode@U?$pair@$$CBVioHashString@@UD3DXVECTOR3@@@std@@@?$_Tree_val@V?$_Tmap_traits@VioHashString@@UD3DXVECTOR3@@U?$less@VioHashString@@@std@@V?$allocator@U?$pair@$$CBVioHashString@@UD3DXVECTOR3@@@std@@@4@$0A@@std@@@std@@QAEPAU_Node@?$_Tree_nod@V?$_Tmap_traits@VioHashString@@UD3DXVECTOR3@@U?$less@VioHashString@@@std@@V?$allocator@U?$pair@$$CBVioHashString@@UD3DXVECTOR3@@@std@@@4@$0A@@std@@@1@$$QAU?$pair@$$CBVioHashString@@UD3DXVECTOR3@@@1@@Z ; std::_Tree_val<std::_Tmap_traits<ioHashString,D3DXVECTOR3,std::less<ioHashString>,std::allocator<std::pair<ioHashString const ,D3DXVECTOR3> >,0> >::_Buynode<std::pair<ioHashString const ,D3DXVECTOR3> >
;	COMDAT xdata$x
; File c:\program files (x86)\microsoft visual studio 10.0\vc\include\xmemory
xdata$x	SEGMENT
__catchsym$??$_Buynode@U?$pair@$$CBVioHashString@@UD3DXVECTOR3@@@std@@@?$_Tree_val@V?$_Tmap_traits@VioHashString@@UD3DXVECTOR3@@U?$less@VioHashString@@@std@@V?$allocator@U?$pair@$$CBVioHashString@@UD3DXVECTOR3@@@std@@@4@$0A@@std@@@std@@QAEPAU_Node@?$_Tree_nod@V?$_Tmap_traits@VioHashString@@UD3DXVECTOR3@@U?$less@VioHashString@@@std@@V?$allocator@U?$pair@$$CBVioHashString@@UD3DXVECTOR3@@@std@@@4@$0A@@std@@@1@$$QAU?$pair@$$CBVioHashString@@UD3DXVECTOR3@@@1@@Z$2 DD 040H
	DD	00H
	DD	00H
	DD	FLAT:__catch$??$_Buynode@U?$pair@$$CBVioHashString@@UD3DXVECTOR3@@@std@@@?$_Tree_val@V?$_Tmap_traits@VioHashString@@UD3DXVECTOR3@@U?$less@VioHashString@@@std@@V?$allocator@U?$pair@$$CBVioHashString@@UD3DXVECTOR3@@@std@@@4@$0A@@std@@@std@@QAEPAU_Node@?$_Tree_nod@V?$_Tmap_traits@VioHashString@@UD3DXVECTOR3@@U?$less@VioHashString@@@std@@V?$allocator@U?$pair@$$CBVioHashString@@UD3DXVECTOR3@@@std@@@4@$0A@@std@@@1@$$QAU?$pair@$$CBVioHashString@@UD3DXVECTOR3@@@1@@Z$0
__unwindtable$??$_Buynode@U?$pair@$$CBVioHashString@@UD3DXVECTOR3@@@std@@@?$_Tree_val@V?$_Tmap_traits@VioHashString@@UD3DXVECTOR3@@U?$less@VioHashString@@@std@@V?$allocator@U?$pair@$$CBVioHashString@@UD3DXVECTOR3@@@std@@@4@$0A@@std@@@std@@QAEPAU_Node@?$_Tree_nod@V?$_Tmap_traits@VioHashString@@UD3DXVECTOR3@@U?$less@VioHashString@@@std@@V?$allocator@U?$pair@$$CBVioHashString@@UD3DXVECTOR3@@@std@@@4@$0A@@std@@@1@$$QAU?$pair@$$CBVioHashString@@UD3DXVECTOR3@@@1@@Z DD 0ffffffffH
	DD	00H
	DD	0ffffffffH
	DD	00H
__tryblocktable$??$_Buynode@U?$pair@$$CBVioHashString@@UD3DXVECTOR3@@@std@@@?$_Tree_val@V?$_Tmap_traits@VioHashString@@UD3DXVECTOR3@@U?$less@VioHashString@@@std@@V?$allocator@U?$pair@$$CBVioHashString@@UD3DXVECTOR3@@@std@@@4@$0A@@std@@@std@@QAEPAU_Node@?$_Tree_nod@V?$_Tmap_traits@VioHashString@@UD3DXVECTOR3@@U?$less@VioHashString@@@std@@V?$allocator@U?$pair@$$CBVioHashString@@UD3DXVECTOR3@@@std@@@4@$0A@@std@@@1@$$QAU?$pair@$$CBVioHashString@@UD3DXVECTOR3@@@1@@Z DD 00H
	DD	00H
	DD	01H
	DD	01H
	DD	FLAT:__catchsym$??$_Buynode@U?$pair@$$CBVioHashString@@UD3DXVECTOR3@@@std@@@?$_Tree_val@V?$_Tmap_traits@VioHashString@@UD3DXVECTOR3@@U?$less@VioHashString@@@std@@V?$allocator@U?$pair@$$CBVioHashString@@UD3DXVECTOR3@@@std@@@4@$0A@@std@@@std@@QAEPAU_Node@?$_Tree_nod@V?$_Tmap_traits@VioHashString@@UD3DXVECTOR3@@U?$less@VioHashString@@@std@@V?$allocator@U?$pair@$$CBVioHashString@@UD3DXVECTOR3@@@std@@@4@$0A@@std@@@1@$$QAU?$pair@$$CBVioHashString@@UD3DXVECTOR3@@@1@@Z$2
__ehfuncinfo$??$_Buynode@U?$pair@$$CBVioHashString@@UD3DXVECTOR3@@@std@@@?$_Tree_val@V?$_Tmap_traits@VioHashString@@UD3DXVECTOR3@@U?$less@VioHashString@@@std@@V?$allocator@U?$pair@$$CBVioHashString@@UD3DXVECTOR3@@@std@@@4@$0A@@std@@@std@@QAEPAU_Node@?$_Tree_nod@V?$_Tmap_traits@VioHashString@@UD3DXVECTOR3@@U?$less@VioHashString@@@std@@V?$allocator@U?$pair@$$CBVioHashString@@UD3DXVECTOR3@@@std@@@4@$0A@@std@@@1@$$QAU?$pair@$$CBVioHashString@@UD3DXVECTOR3@@@1@@Z DD 019930522H
	DD	02H
	DD	FLAT:__unwindtable$??$_Buynode@U?$pair@$$CBVioHashString@@UD3DXVECTOR3@@@std@@@?$_Tree_val@V?$_Tmap_traits@VioHashString@@UD3DXVECTOR3@@U?$less@VioHashString@@@std@@V?$allocator@U?$pair@$$CBVioHashString@@UD3DXVECTOR3@@@std@@@4@$0A@@std@@@std@@QAEPAU_Node@?$_Tree_nod@V?$_Tmap_traits@VioHashString@@UD3DXVECTOR3@@U?$less@VioHashString@@@std@@V?$allocator@U?$pair@$$CBVioHashString@@UD3DXVECTOR3@@@std@@@4@$0A@@std@@@1@$$QAU?$pair@$$CBVioHashString@@UD3DXVECTOR3@@@1@@Z
	DD	01H
	DD	FLAT:__tryblocktable$??$_Buynode@U?$pair@$$CBVioHashString@@UD3DXVECTOR3@@@std@@@?$_Tree_val@V?$_Tmap_traits@VioHashString@@UD3DXVECTOR3@@U?$less@VioHashString@@@std@@V?$allocator@U?$pair@$$CBVioHashString@@UD3DXVECTOR3@@@std@@@4@$0A@@std@@@std@@QAEPAU_Node@?$_Tree_nod@V?$_Tmap_traits@VioHashString@@UD3DXVECTOR3@@U?$less@VioHashString@@@std@@V?$allocator@U?$pair@$$CBVioHashString@@UD3DXVECTOR3@@@std@@@4@$0A@@std@@@1@$$QAU?$pair@$$CBVioHashString@@UD3DXVECTOR3@@@1@@Z
	DD	2 DUP(00H)
	DD	00H
	DD	01H
; Function compile flags: /Ogsp
; File c:\program files (x86)\microsoft visual studio 10.0\vc\include\xtree
xdata$x	ENDS
;	COMDAT ??$_Buynode@U?$pair@$$CBVioHashString@@UD3DXVECTOR3@@@std@@@?$_Tree_val@V?$_Tmap_traits@VioHashString@@UD3DXVECTOR3@@U?$less@VioHashString@@@std@@V?$allocator@U?$pair@$$CBVioHashString@@UD3DXVECTOR3@@@std@@@4@$0A@@std@@@std@@QAEPAU_Node@?$_Tree_nod@V?$_Tmap_traits@VioHashString@@UD3DXVECTOR3@@U?$less@VioHashString@@@std@@V?$allocator@U?$pair@$$CBVioHashString@@UD3DXVECTOR3@@@std@@@4@$0A@@std@@@1@$$QAU?$pair@$$CBVioHashString@@UD3DXVECTOR3@@@1@@Z
_TEXT	SEGMENT
__Wherenode$ = -20					; size = 4
__$EHRec$ = -16						; size = 16
__Val$ = 8						; size = 4
??$_Buynode@U?$pair@$$CBVioHashString@@UD3DXVECTOR3@@@std@@@?$_Tree_val@V?$_Tmap_traits@VioHashString@@UD3DXVECTOR3@@U?$less@VioHashString@@@std@@V?$allocator@U?$pair@$$CBVioHashString@@UD3DXVECTOR3@@@std@@@4@$0A@@std@@@std@@QAEPAU_Node@?$_Tree_nod@V?$_Tmap_traits@VioHashString@@UD3DXVECTOR3@@U?$less@VioHashString@@@std@@V?$allocator@U?$pair@$$CBVioHashString@@UD3DXVECTOR3@@@std@@@4@$0A@@std@@@1@$$QAU?$pair@$$CBVioHashString@@UD3DXVECTOR3@@@1@@Z PROC ; std::_Tree_val<std::_Tmap_traits<ioHashString,D3DXVECTOR3,std::less<ioHashString>,std::allocator<std::pair<ioHashString const ,D3DXVECTOR3> >,0> >::_Buynode<std::pair<ioHashString const ,D3DXVECTOR3> >, COMDAT
; _this$ = ecx

; 586  : 		_Nodeptr _Buynode(_Valty&& _Val)

  00000	6a 08		 push	 8
  00002	b8 00 00 00 00	 mov	 eax, __ehhandler$??$_Buynode@U?$pair@$$CBVioHashString@@UD3DXVECTOR3@@@std@@@?$_Tree_val@V?$_Tmap_traits@VioHashString@@UD3DXVECTOR3@@U?$less@VioHashString@@@std@@V?$allocator@U?$pair@$$CBVioHashString@@UD3DXVECTOR3@@@std@@@4@$0A@@std@@@std@@QAEPAU_Node@?$_Tree_nod@V?$_Tmap_traits@VioHashString@@UD3DXVECTOR3@@U?$less@VioHashString@@@std@@V?$allocator@U?$pair@$$CBVioHashString@@UD3DXVECTOR3@@@std@@@4@$0A@@std@@@1@$$QAU?$pair@$$CBVioHashString@@UD3DXVECTOR3@@@1@@Z
  00007	e8 00 00 00 00	 call	 __EH_prolog3_catch
  0000c	8b f1		 mov	 esi, ecx

; 587  : 		{	// allocate a node with defaults
; 588  : 		_Nodeptr _Wherenode = _Buynode();

  0000e	e8 00 00 00 00	 call	 ?_Buynode@?$_Tree_val@V?$_Tmap_traits@VioHashString@@UD3DXVECTOR3@@U?$less@VioHashString@@@std@@V?$allocator@U?$pair@$$CBVioHashString@@UD3DXVECTOR3@@@std@@@4@$0A@@std@@@std@@QAEPAU_Node@?$_Tree_nod@V?$_Tmap_traits@VioHashString@@UD3DXVECTOR3@@U?$less@VioHashString@@@std@@V?$allocator@U?$pair@$$CBVioHashString@@UD3DXVECTOR3@@@std@@@4@$0A@@std@@@2@XZ ; std::_Tree_val<std::_Tmap_traits<ioHashString,D3DXVECTOR3,std::less<ioHashString>,std::allocator<std::pair<ioHashString const ,D3DXVECTOR3> >,0> >::_Buynode

; 589  : 
; 590  : 		_TRY_BEGIN
; 591  : 		_Cons_val(this->_Alval, _STD addressof(this->_Myval(_Wherenode)),
; 592  : 			_STD forward<_Valty>(_Val));

  00013	ff 75 08	 push	 DWORD PTR __Val$[ebp]
  00016	83 65 fc 00	 and	 DWORD PTR __$EHRec$[ebp+12], 0
  0001a	8b f8		 mov	 edi, eax
  0001c	8d 47 0c	 lea	 eax, DWORD PTR [edi+12]
  0001f	50		 push	 eax
  00020	8d 4e 0d	 lea	 ecx, DWORD PTR [esi+13]
  00023	89 7d ec	 mov	 DWORD PTR __Wherenode$[ebp], edi
  00026	e8 00 00 00 00	 call	 ?construct@?$allocator@U?$pair@$$CBVioHashString@@UD3DXVECTOR3@@@std@@@std@@QAEXPAU?$pair@$$CBVioHashString@@UD3DXVECTOR3@@@2@$$QAU32@@Z ; std::allocator<std::pair<ioHashString const ,D3DXVECTOR3> >::construct

; 596  : 		_CATCH_END
; 597  : 
; 598  : 		return (_Wherenode);

  0002b	8b c7		 mov	 eax, edi

; 599  : 		}

  0002d	e8 00 00 00 00	 call	 __EH_epilog3
  00032	c2 04 00	 ret	 4
__catch$??$_Buynode@U?$pair@$$CBVioHashString@@UD3DXVECTOR3@@@std@@@?$_Tree_val@V?$_Tmap_traits@VioHashString@@UD3DXVECTOR3@@U?$less@VioHashString@@@std@@V?$allocator@U?$pair@$$CBVioHashString@@UD3DXVECTOR3@@@std@@@4@$0A@@std@@@std@@QAEPAU_Node@?$_Tree_nod@V?$_Tmap_traits@VioHashString@@UD3DXVECTOR3@@U?$less@VioHashString@@@std@@V?$allocator@U?$pair@$$CBVioHashString@@UD3DXVECTOR3@@@std@@@4@$0A@@std@@@1@$$QAU?$pair@$$CBVioHashString@@UD3DXVECTOR3@@@1@@Z$0:

; 593  : 		_CATCH_ALL
; 594  : 		this->_Alnod.deallocate(_Wherenode, 1);

  00035	ff 75 ec	 push	 DWORD PTR __Wherenode$[ebp]
  00038	e8 00 00 00 00	 call	 ??3@YAXPAX@Z		; operator delete
  0003d	59		 pop	 ecx

; 595  : 		_RERAISE;

  0003e	6a 00		 push	 0
  00040	6a 00		 push	 0
  00042	e8 00 00 00 00	 call	 __CxxThrowException@8
$LN23@Buynode@2:
$LN22@Buynode@2:
  00047	cc		 int	 3
_TEXT	ENDS
;	COMDAT text$x
text$x	SEGMENT
__ehhandler$??$_Buynode@U?$pair@$$CBVioHashString@@UD3DXVECTOR3@@@std@@@?$_Tree_val@V?$_Tmap_traits@VioHashString@@UD3DXVECTOR3@@U?$less@VioHashString@@@std@@V?$allocator@U?$pair@$$CBVioHashString@@UD3DXVECTOR3@@@std@@@4@$0A@@std@@@std@@QAEPAU_Node@?$_Tree_nod@V?$_Tmap_traits@VioHashString@@UD3DXVECTOR3@@U?$less@VioHashString@@@std@@V?$allocator@U?$pair@$$CBVioHashString@@UD3DXVECTOR3@@@std@@@4@$0A@@std@@@1@$$QAU?$pair@$$CBVioHashString@@UD3DXVECTOR3@@@1@@Z:
  00000	8b 54 24 08	 mov	 edx, DWORD PTR [esp+8]
  00004	8d 42 0c	 lea	 eax, DWORD PTR [edx+12]
  00007	8b 4a e8	 mov	 ecx, DWORD PTR [edx-24]
  0000a	33 c8		 xor	 ecx, eax
  0000c	e8 00 00 00 00	 call	 @__security_check_cookie@4
  00011	b8 00 00 00 00	 mov	 eax, OFFSET __ehfuncinfo$??$_Buynode@U?$pair@$$CBVioHashString@@UD3DXVECTOR3@@@std@@@?$_Tree_val@V?$_Tmap_traits@VioHashString@@UD3DXVECTOR3@@U?$less@VioHashString@@@std@@V?$allocator@U?$pair@$$CBVioHashString@@UD3DXVECTOR3@@@std@@@4@$0A@@std@@@std@@QAEPAU_Node@?$_Tree_nod@V?$_Tmap_traits@VioHashString@@UD3DXVECTOR3@@U?$less@VioHashString@@@std@@V?$allocator@U?$pair@$$CBVioHashString@@UD3DXVECTOR3@@@std@@@4@$0A@@std@@@1@$$QAU?$pair@$$CBVioHashString@@UD3DXVECTOR3@@@1@@Z
  00016	e9 00 00 00 00	 jmp	 ___CxxFrameHandler3
text$x	ENDS
??$_Buynode@U?$pair@$$CBVioHashString@@UD3DXVECTOR3@@@std@@@?$_Tree_val@V?$_Tmap_traits@VioHashString@@UD3DXVECTOR3@@U?$less@VioHashString@@@std@@V?$allocator@U?$pair@$$CBVioHashString@@UD3DXVECTOR3@@@std@@@4@$0A@@std@@@std@@QAEPAU_Node@?$_Tree_nod@V?$_Tmap_traits@VioHashString@@UD3DXVECTOR3@@U?$less@VioHashString@@@std@@V?$allocator@U?$pair@$$CBVioHashString@@UD3DXVECTOR3@@@std@@@4@$0A@@std@@@1@$$QAU?$pair@$$CBVioHashString@@UD3DXVECTOR3@@@1@@Z ENDP ; std::_Tree_val<std::_Tmap_traits<ioHashString,D3DXVECTOR3,std::less<ioHashString>,std::allocator<std::pair<ioHashString const ,D3DXVECTOR3> >,0> >::_Buynode<std::pair<ioHashString const ,D3DXVECTOR3> >
PUBLIC	??$_Uninitialized_move@PAVioHashString@@PAV1@V?$allocator@VioHashString@@@std@@@std@@YAPAVioHashString@@PAV1@00AAV?$allocator@VioHashString@@@0@@Z ; std::_Uninitialized_move<ioHashString *,ioHashString *,std::allocator<ioHashString> >
; Function compile flags: /Ogsp
; File c:\program files (x86)\microsoft visual studio 10.0\vc\include\memory
;	COMDAT ??$_Uninitialized_move@PAVioHashString@@PAV1@V?$allocator@VioHashString@@@std@@@std@@YAPAVioHashString@@PAV1@00AAV?$allocator@VioHashString@@@0@@Z
_TEXT	SEGMENT
__Cat$515215 = -4					; size = 1
__First$ = 8						; size = 4
__Last$ = 12						; size = 4
__Dest$ = 16						; size = 4
__Al$ = 20						; size = 4
??$_Uninitialized_move@PAVioHashString@@PAV1@V?$allocator@VioHashString@@@std@@@std@@YAPAVioHashString@@PAV1@00AAV?$allocator@VioHashString@@@0@@Z PROC ; std::_Uninitialized_move<ioHashString *,ioHashString *,std::allocator<ioHashString> >, COMDAT

; 469  : 	{	// move [_First, _Last) to raw _Dest, using _Al

  00000	55		 push	 ebp
  00001	8b ec		 mov	 ebp, esp
  00003	51		 push	 ecx

; 470  : 	return (_Uninit_move(_First, _Last, _Dest, _Al,
; 471  : 		_Val_type(_First), _Ptr_cat(_First, _Dest)));

  00004	ff 75 fc	 push	 DWORD PTR __Cat$515215[ebp]
  00007	6a 00		 push	 0
  00009	ff 75 14	 push	 DWORD PTR __Al$[ebp]
  0000c	ff 75 10	 push	 DWORD PTR __Dest$[ebp]
  0000f	ff 75 0c	 push	 DWORD PTR __Last$[ebp]
  00012	ff 75 08	 push	 DWORD PTR __First$[ebp]
  00015	e8 00 00 00 00	 call	 ??$_Uninit_move@PAVioHashString@@PAV1@V?$allocator@VioHashString@@@std@@V1@@std@@YAPAVioHashString@@PAV1@00AAV?$allocator@VioHashString@@@0@0U_Nonscalar_ptr_iterator_tag@0@@Z ; std::_Uninit_move<ioHashString *,ioHashString *,std::allocator<ioHashString>,ioHashString>
  0001a	83 c4 18	 add	 esp, 24			; 00000018H

; 472  : 	}

  0001d	c9		 leave
  0001e	c3		 ret	 0
??$_Uninitialized_move@PAVioHashString@@PAV1@V?$allocator@VioHashString@@@std@@@std@@YAPAVioHashString@@PAV1@00AAV?$allocator@VioHashString@@@0@@Z ENDP ; std::_Uninitialized_move<ioHashString *,ioHashString *,std::allocator<ioHashString> >
_TEXT	ENDS
PUBLIC	??$_Destroy_range@V?$allocator@VioHashString@@@std@@@std@@YAXPAVioHashString@@0AAV?$allocator@VioHashString@@@0@@Z ; std::_Destroy_range<std::allocator<ioHashString> >
; Function compile flags: /Ogsp
; File c:\program files (x86)\microsoft visual studio 10.0\vc\include\xmemory
;	COMDAT ??$_Destroy_range@V?$allocator@VioHashString@@@std@@@std@@YAXPAVioHashString@@0AAV?$allocator@VioHashString@@@0@@Z
_TEXT	SEGMENT
__First$ = 8						; size = 4
__Last$ = 12						; size = 4
__Al$ = 16						; size = 4
??$_Destroy_range@V?$allocator@VioHashString@@@std@@@std@@YAXPAVioHashString@@0AAV?$allocator@VioHashString@@@0@@Z PROC ; std::_Destroy_range<std::allocator<ioHashString> >, COMDAT

; 87   : 	{	// destroy [_First, _Last)

  00000	55		 push	 ebp
  00001	8b ec		 mov	 ebp, esp
  00003	56		 push	 esi

; 88   : 	_Destroy_range(_First, _Last, _Al, _Ptr_cat(_First, _Last));

  00004	8b 75 08	 mov	 esi, DWORD PTR __First$[ebp]
  00007	eb 0b		 jmp	 SHORT $LN21@Destroy_ra@2
$LL7@Destroy_ra@2:
  00009	8b ce		 mov	 ecx, esi
  0000b	ff 15 00 00 00
	00		 call	 DWORD PTR __imp_??1ioHashString@@QAE@XZ
  00011	83 c6 10	 add	 esi, 16			; 00000010H
$LN21@Destroy_ra@2:
  00014	3b 75 0c	 cmp	 esi, DWORD PTR __Last$[ebp]
  00017	75 f0		 jne	 SHORT $LL7@Destroy_ra@2
  00019	5e		 pop	 esi

; 89   : 	}

  0001a	5d		 pop	 ebp
  0001b	c3		 ret	 0
??$_Destroy_range@V?$allocator@VioHashString@@@std@@@std@@YAXPAVioHashString@@0AAV?$allocator@VioHashString@@@0@@Z ENDP ; std::_Destroy_range<std::allocator<ioHashString> >
_TEXT	ENDS
PUBLIC	?clear@?$_Tree@V?$_Tmap_traits@VioHashString@@UD3DXVECTOR3@@U?$less@VioHashString@@@std@@V?$allocator@U?$pair@$$CBVioHashString@@UD3DXVECTOR3@@@std@@@4@$0A@@std@@@std@@QAEXXZ ; std::_Tree<std::_Tmap_traits<ioHashString,D3DXVECTOR3,std::less<ioHashString>,std::allocator<std::pair<ioHashString const ,D3DXVECTOR3> >,0> >::clear
; Function compile flags: /Ogsp
; File c:\program files (x86)\microsoft visual studio 10.0\vc\include\xtree
;	COMDAT ?clear@?$_Tree@V?$_Tmap_traits@VioHashString@@UD3DXVECTOR3@@U?$less@VioHashString@@@std@@V?$allocator@U?$pair@$$CBVioHashString@@UD3DXVECTOR3@@@std@@@4@$0A@@std@@@std@@QAEXXZ
_TEXT	SEGMENT
?clear@?$_Tree@V?$_Tmap_traits@VioHashString@@UD3DXVECTOR3@@U?$less@VioHashString@@@std@@V?$allocator@U?$pair@$$CBVioHashString@@UD3DXVECTOR3@@@std@@@4@$0A@@std@@@std@@QAEXXZ PROC ; std::_Tree<std::_Tmap_traits<ioHashString,D3DXVECTOR3,std::less<ioHashString>,std::allocator<std::pair<ioHashString const ,D3DXVECTOR3> >,0> >::clear, COMDAT
; _this$ = ecx

; 1410 : 		{	// erase all

  00000	56		 push	 esi
  00001	57		 push	 edi
  00002	8b f9		 mov	 edi, ecx

; 1411 :  #if _ITERATOR_DEBUG_LEVEL == 2
; 1412 : 		this->_Orphan_ptr(*this, 0);
; 1413 :  #endif /* _ITERATOR_DEBUG_LEVEL == 2 */
; 1414 : 
; 1415 : 		_Erase(_Root());

  00004	8b 47 04	 mov	 eax, DWORD PTR [edi+4]
  00007	ff 70 04	 push	 DWORD PTR [eax+4]
  0000a	e8 00 00 00 00	 call	 ?_Erase@?$_Tree@V?$_Tmap_traits@VioHashString@@UD3DXVECTOR3@@U?$less@VioHashString@@@std@@V?$allocator@U?$pair@$$CBVioHashString@@UD3DXVECTOR3@@@std@@@4@$0A@@std@@@std@@IAEXPAU_Node@?$_Tree_nod@V?$_Tmap_traits@VioHashString@@UD3DXVECTOR3@@U?$less@VioHashString@@@std@@V?$allocator@U?$pair@$$CBVioHashString@@UD3DXVECTOR3@@@std@@@4@$0A@@std@@@2@@Z ; std::_Tree<std::_Tmap_traits<ioHashString,D3DXVECTOR3,std::less<ioHashString>,std::allocator<std::pair<ioHashString const ,D3DXVECTOR3> >,0> >::_Erase

; 1416 : 		_Root() = this->_Myhead;

  0000f	8b 47 04	 mov	 eax, DWORD PTR [edi+4]
  00012	89 40 04	 mov	 DWORD PTR [eax+4], eax

; 1417 : 		_Lmost() = this->_Myhead;

  00015	8b 47 04	 mov	 eax, DWORD PTR [edi+4]
  00018	89 00		 mov	 DWORD PTR [eax], eax

; 1418 : 		_Rmost() = this->_Myhead;

  0001a	8b 77 04	 mov	 esi, DWORD PTR [edi+4]
  0001d	89 76 08	 mov	 DWORD PTR [esi+8], esi

; 1419 : 		this->_Mysize = 0;

  00020	83 67 08 00	 and	 DWORD PTR [edi+8], 0
  00024	5f		 pop	 edi
  00025	5e		 pop	 esi

; 1420 : 		}

  00026	c3		 ret	 0
?clear@?$_Tree@V?$_Tmap_traits@VioHashString@@UD3DXVECTOR3@@U?$less@VioHashString@@@std@@V?$allocator@U?$pair@$$CBVioHashString@@UD3DXVECTOR3@@@std@@@4@$0A@@std@@@std@@QAEXXZ ENDP ; std::_Tree<std::_Tmap_traits<ioHashString,D3DXVECTOR3,std::less<ioHashString>,std::allocator<std::pair<ioHashString const ,D3DXVECTOR3> >,0> >::clear
_TEXT	ENDS
PUBLIC	?erase@?$vector@UEntityGroupData@ioWorldMesh@@V?$allocator@UEntityGroupData@ioWorldMesh@@@std@@@std@@QAE?AV?$_Vector_iterator@V?$_Vector_val@UEntityGroupData@ioWorldMesh@@V?$allocator@UEntityGroupData@ioWorldMesh@@@std@@@std@@@2@V?$_Vector_const_iterator@V?$_Vector_val@UEntityGroupData@ioWorldMesh@@V?$allocator@UEntityGroupData@ioWorldMesh@@@std@@@std@@@2@0@Z ; std::vector<ioWorldMesh::EntityGroupData,std::allocator<ioWorldMesh::EntityGroupData> >::erase
; Function compile flags: /Ogsp
; File c:\program files (x86)\microsoft visual studio 10.0\vc\include\vector
;	COMDAT ?erase@?$vector@UEntityGroupData@ioWorldMesh@@V?$allocator@UEntityGroupData@ioWorldMesh@@@std@@@std@@QAE?AV?$_Vector_iterator@V?$_Vector_val@UEntityGroupData@ioWorldMesh@@V?$allocator@UEntityGroupData@ioWorldMesh@@@std@@@std@@@2@V?$_Vector_const_iterator@V?$_Vector_val@UEntityGroupData@ioWorldMesh@@V?$allocator@UEntityGroupData@ioWorldMesh@@@std@@@std@@@2@0@Z
_TEXT	SEGMENT
___$ReturnUdt$ = 8					; size = 4
__First_arg$ = 12					; size = 4
__Cat$515385 = 16					; size = 1
__Last_arg$ = 16					; size = 4
?erase@?$vector@UEntityGroupData@ioWorldMesh@@V?$allocator@UEntityGroupData@ioWorldMesh@@@std@@@std@@QAE?AV?$_Vector_iterator@V?$_Vector_val@UEntityGroupData@ioWorldMesh@@V?$allocator@UEntityGroupData@ioWorldMesh@@@std@@@std@@@2@V?$_Vector_const_iterator@V?$_Vector_val@UEntityGroupData@ioWorldMesh@@V?$allocator@UEntityGroupData@ioWorldMesh@@@std@@@std@@@2@0@Z PROC ; std::vector<ioWorldMesh::EntityGroupData,std::allocator<ioWorldMesh::EntityGroupData> >::erase, COMDAT
; _this$ = ecx

; 1190 : 		{	// erase [_First, _Last)

  00000	55		 push	 ebp
  00001	8b ec		 mov	 ebp, esp

; 1191 : 		iterator _First = _Make_iter(_First_arg);

  00003	8b 45 0c	 mov	 eax, DWORD PTR __First_arg$[ebp]
  00006	56		 push	 esi
  00007	57		 push	 edi
  00008	8b 7d 08	 mov	 edi, DWORD PTR ___$ReturnUdt$[ebp]
  0000b	8b f1		 mov	 esi, ecx
  0000d	89 07		 mov	 DWORD PTR [edi], eax

; 1192 : 		iterator _Last = _Make_iter(_Last_arg);
; 1193 : 
; 1194 : 		if (_First != _Last)

  0000f	3b 45 10	 cmp	 eax, DWORD PTR __Last_arg$[ebp]
  00012	74 16		 je	 SHORT $LN1@erase@2

; 1195 : 			{	// worth doing, copy down over hole
; 1196 :  #if _ITERATOR_DEBUG_LEVEL == 2
; 1197 : 			if (_Last < _First || _VICONT(_First) != this
; 1198 : 				|| _VIPTR(_First) < this->_Myfirst
; 1199 : 				|| this->_Mylast < _VIPTR(_Last))
; 1200 : 				_DEBUG_ERROR("vector erase iterator outside range");
; 1201 : 			pointer _Ptr = _Move(_VIPTR(_Last), this->_Mylast,
; 1202 : 				_VIPTR(_First));
; 1203 : 			_Orphan_range(_VIPTR(_First), this->_Mylast);
; 1204 : 
; 1205 :  #else /* _ITERATOR_DEBUG_LEVEL == 2 */
; 1206 : 			pointer _Ptr = _Move(_VIPTR(_Last), this->_Mylast,
; 1207 : 				_VIPTR(_First));

  00014	ff 75 10	 push	 DWORD PTR __Cat$515385[ebp]
  00017	8b 4e 04	 mov	 ecx, DWORD PTR [esi+4]
  0001a	50		 push	 eax
  0001b	51		 push	 ecx
  0001c	ff 75 10	 push	 DWORD PTR __Last_arg$[ebp]
  0001f	e8 00 00 00 00	 call	 ??$_Move@PAUEntityGroupData@ioWorldMesh@@PAU12@@std@@YAPAUEntityGroupData@ioWorldMesh@@PAU12@00U_Nonscalar_ptr_iterator_tag@0@@Z ; std::_Move<ioWorldMesh::EntityGroupData *,ioWorldMesh::EntityGroupData *>
  00024	83 c4 10	 add	 esp, 16			; 00000010H

; 1208 :  #endif /* _ITERATOR_DEBUG_LEVEL == 2 */
; 1209 : 
; 1210 : 			_Destroy(_Ptr, this->_Mylast);
; 1211 : 			this->_Mylast = _Ptr;

  00027	89 46 04	 mov	 DWORD PTR [esi+4], eax
$LN1@erase@2:

; 1212 : 			}
; 1213 : 		return (_First);

  0002a	8b c7		 mov	 eax, edi
  0002c	5f		 pop	 edi
  0002d	5e		 pop	 esi

; 1214 : 		}

  0002e	5d		 pop	 ebp
  0002f	c2 0c 00	 ret	 12			; 0000000cH
?erase@?$vector@UEntityGroupData@ioWorldMesh@@V?$allocator@UEntityGroupData@ioWorldMesh@@@std@@@std@@QAE?AV?$_Vector_iterator@V?$_Vector_val@UEntityGroupData@ioWorldMesh@@V?$allocator@UEntityGroupData@ioWorldMesh@@@std@@@std@@@2@V?$_Vector_const_iterator@V?$_Vector_val@UEntityGroupData@ioWorldMesh@@V?$allocator@UEntityGroupData@ioWorldMesh@@@std@@@std@@@2@0@Z ENDP ; std::vector<ioWorldMesh::EntityGroupData,std::allocator<ioWorldMesh::EntityGroupData> >::erase
_TEXT	ENDS
PUBLIC	?_Tidy@?$vector@UEntityGroupData@ioWorldMesh@@V?$allocator@UEntityGroupData@ioWorldMesh@@@std@@@std@@IAEXXZ ; std::vector<ioWorldMesh::EntityGroupData,std::allocator<ioWorldMesh::EntityGroupData> >::_Tidy
EXTRN	__imp_?_Orphan_all@_Container_base0@std@@QAEXXZ:PROC
; Function compile flags: /Ogsp
;	COMDAT ?_Tidy@?$vector@UEntityGroupData@ioWorldMesh@@V?$allocator@UEntityGroupData@ioWorldMesh@@@std@@@std@@IAEXXZ
_TEXT	SEGMENT
?_Tidy@?$vector@UEntityGroupData@ioWorldMesh@@V?$allocator@UEntityGroupData@ioWorldMesh@@@std@@@std@@IAEXXZ PROC ; std::vector<ioWorldMesh::EntityGroupData,std::allocator<ioWorldMesh::EntityGroupData> >::_Tidy, COMDAT
; _this$ = ecx

; 1301 : 		{	// free all storage

  00000	56		 push	 esi
  00001	8b f1		 mov	 esi, ecx

; 1302 : 		if (this->_Myfirst != 0)

  00003	83 3e 00	 cmp	 DWORD PTR [esi], 0
  00006	74 0e		 je	 SHORT $LN21@Tidy

; 1303 : 			{	// something to free, destroy and deallocate it
; 1304 : 			this->_Orphan_all();

  00008	ff 15 00 00 00
	00		 call	 DWORD PTR __imp_?_Orphan_all@_Container_base0@std@@QAEXXZ

; 1305 : 			_Destroy(this->_Myfirst, this->_Mylast);
; 1306 : 			this->_Alval.deallocate(this->_Myfirst,
; 1307 : 				this->_Myend - this->_Myfirst);

  0000e	ff 36		 push	 DWORD PTR [esi]
  00010	e8 00 00 00 00	 call	 ??3@YAXPAX@Z		; operator delete
  00015	59		 pop	 ecx
$LN21@Tidy:

; 1308 : 			}
; 1309 : 		this->_Myfirst = 0;

  00016	83 26 00	 and	 DWORD PTR [esi], 0

; 1310 : 		this->_Mylast = 0;

  00019	83 66 04 00	 and	 DWORD PTR [esi+4], 0

; 1311 : 		this->_Myend = 0;

  0001d	83 66 08 00	 and	 DWORD PTR [esi+8], 0
  00021	5e		 pop	 esi

; 1312 : 		}

  00022	c3		 ret	 0
?_Tidy@?$vector@UEntityGroupData@ioWorldMesh@@V?$allocator@UEntityGroupData@ioWorldMesh@@@std@@@std@@IAEXXZ ENDP ; std::vector<ioWorldMesh::EntityGroupData,std::allocator<ioWorldMesh::EntityGroupData> >::_Tidy
_TEXT	ENDS
PUBLIC	?erase@?$_Tree@V?$_Tmap_traits@VioHashString@@UD3DXVECTOR3@@U?$less@VioHashString@@@std@@V?$allocator@U?$pair@$$CBVioHashString@@UD3DXVECTOR3@@@std@@@4@$0A@@std@@@std@@QAE?AV?$_Tree_iterator@V?$_Tree_val@V?$_Tmap_traits@VioHashString@@UD3DXVECTOR3@@U?$less@VioHashString@@@std@@V?$allocator@U?$pair@$$CBVioHashString@@UD3DXVECTOR3@@@std@@@4@$0A@@std@@@std@@@2@V?$_Tree_const_iterator@V?$_Tree_val@V?$_Tmap_traits@VioHashString@@UD3DXVECTOR3@@U?$less@VioHashString@@@std@@V?$allocator@U?$pair@$$CBVioHashString@@UD3DXVECTOR3@@@std@@@4@$0A@@std@@@std@@@2@0@Z ; std::_Tree<std::_Tmap_traits<ioHashString,D3DXVECTOR3,std::less<ioHashString>,std::allocator<std::pair<ioHashString const ,D3DXVECTOR3> >,0> >::erase
; Function compile flags: /Ogsp
; File c:\program files (x86)\microsoft visual studio 10.0\vc\include\xtree
;	COMDAT ?erase@?$_Tree@V?$_Tmap_traits@VioHashString@@UD3DXVECTOR3@@U?$less@VioHashString@@@std@@V?$allocator@U?$pair@$$CBVioHashString@@UD3DXVECTOR3@@@std@@@4@$0A@@std@@@std@@QAE?AV?$_Tree_iterator@V?$_Tree_val@V?$_Tmap_traits@VioHashString@@UD3DXVECTOR3@@U?$less@VioHashString@@@std@@V?$allocator@U?$pair@$$CBVioHashString@@UD3DXVECTOR3@@@std@@@4@$0A@@std@@@std@@@2@V?$_Tree_const_iterator@V?$_Tree_val@V?$_Tmap_traits@VioHashString@@UD3DXVECTOR3@@U?$less@VioHashString@@@std@@V?$allocator@U?$pair@$$CBVioHashString@@UD3DXVECTOR3@@@std@@@4@$0A@@std@@@std@@@2@0@Z
_TEXT	SEGMENT
$T515548 = -4						; size = 4
___$ReturnUdt$ = 8					; size = 4
__First$ = 12						; size = 4
__Last$ = 16						; size = 4
?erase@?$_Tree@V?$_Tmap_traits@VioHashString@@UD3DXVECTOR3@@U?$less@VioHashString@@@std@@V?$allocator@U?$pair@$$CBVioHashString@@UD3DXVECTOR3@@@std@@@4@$0A@@std@@@std@@QAE?AV?$_Tree_iterator@V?$_Tree_val@V?$_Tmap_traits@VioHashString@@UD3DXVECTOR3@@U?$less@VioHashString@@@std@@V?$allocator@U?$pair@$$CBVioHashString@@UD3DXVECTOR3@@@std@@@4@$0A@@std@@@std@@@2@V?$_Tree_const_iterator@V?$_Tree_val@V?$_Tmap_traits@VioHashString@@UD3DXVECTOR3@@U?$less@VioHashString@@@std@@V?$allocator@U?$pair@$$CBVioHashString@@UD3DXVECTOR3@@@std@@@4@$0A@@std@@@std@@@2@0@Z PROC ; std::_Tree<std::_Tmap_traits<ioHashString,D3DXVECTOR3,std::less<ioHashString>,std::allocator<std::pair<ioHashString const ,D3DXVECTOR3> >,0> >::erase, COMDAT
; _this$ = ecx

; 1379 : 		{	// erase [_First, _Last)

  00000	55		 push	 ebp
  00001	8b ec		 mov	 ebp, esp
  00003	51		 push	 ecx
  00004	56		 push	 esi
  00005	8b f1		 mov	 esi, ecx

; 1380 : 		if (_First == begin() && _Last == end())

  00007	8b 46 04	 mov	 eax, DWORD PTR [esi+4]
  0000a	8b 4d 0c	 mov	 ecx, DWORD PTR __First$[ebp]
  0000d	3b 08		 cmp	 ecx, DWORD PTR [eax]
  0000f	75 13		 jne	 SHORT $LN65@erase@3
  00011	39 45 10	 cmp	 DWORD PTR __Last$[ebp], eax
  00014	75 0e		 jne	 SHORT $LN65@erase@3

; 1381 : 			{	// erase all
; 1382 : 			clear();

  00016	8b ce		 mov	 ecx, esi
  00018	e8 00 00 00 00	 call	 ?clear@?$_Tree@V?$_Tmap_traits@VioHashString@@UD3DXVECTOR3@@U?$less@VioHashString@@@std@@V?$allocator@U?$pair@$$CBVioHashString@@UD3DXVECTOR3@@@std@@@4@$0A@@std@@@std@@QAEXXZ ; std::_Tree<std::_Tmap_traits<ioHashString,D3DXVECTOR3,std::less<ioHashString>,std::allocator<std::pair<ioHashString const ,D3DXVECTOR3> >,0> >::clear

; 1383 : 			return (begin());

  0001d	8b 46 04	 mov	 eax, DWORD PTR [esi+4]
  00020	8b 08		 mov	 ecx, DWORD PTR [eax]
  00022	eb 25		 jmp	 SHORT $LN1@erase@3
$LN65@erase@3:

; 1384 : 			}
; 1385 : 		else
; 1386 : 			{	// partial erase, one at a time
; 1387 : 			while (_First != _Last)

  00024	3b 4d 10	 cmp	 ecx, DWORD PTR __Last$[ebp]
  00027	74 20		 je	 SHORT $LN1@erase@3
  00029	57		 push	 edi
$LL2@erase@3:

; 1388 : 				erase(_First++);

  0002a	8b f9		 mov	 edi, ecx
  0002c	8d 4d 0c	 lea	 ecx, DWORD PTR __First$[ebp]
  0002f	e8 00 00 00 00	 call	 ??E?$_Tree_unchecked_const_iterator@V?$_Tree_val@V?$_Tmap_traits@VioHashString@@UD3DXVECTOR3@@U?$less@VioHashString@@@std@@V?$allocator@U?$pair@$$CBVioHashString@@UD3DXVECTOR3@@@std@@@4@$0A@@std@@@std@@U_Iterator_base0@2@@std@@QAEAAV01@XZ ; std::_Tree_unchecked_const_iterator<std::_Tree_val<std::_Tmap_traits<ioHashString,D3DXVECTOR3,std::less<ioHashString>,std::allocator<std::pair<ioHashString const ,D3DXVECTOR3> >,0> >,std::_Iterator_base0>::operator++
  00034	57		 push	 edi
  00035	8d 45 fc	 lea	 eax, DWORD PTR $T515548[ebp]
  00038	50		 push	 eax
  00039	8b ce		 mov	 ecx, esi
  0003b	e8 00 00 00 00	 call	 ?erase@?$_Tree@V?$_Tmap_traits@VioHashString@@UD3DXVECTOR3@@U?$less@VioHashString@@@std@@V?$allocator@U?$pair@$$CBVioHashString@@UD3DXVECTOR3@@@std@@@4@$0A@@std@@@std@@QAE?AV?$_Tree_iterator@V?$_Tree_val@V?$_Tmap_traits@VioHashString@@UD3DXVECTOR3@@U?$less@VioHashString@@@std@@V?$allocator@U?$pair@$$CBVioHashString@@UD3DXVECTOR3@@@std@@@4@$0A@@std@@@std@@@2@V?$_Tree_const_iterator@V?$_Tree_val@V?$_Tmap_traits@VioHashString@@UD3DXVECTOR3@@U?$less@VioHashString@@@std@@V?$allocator@U?$pair@$$CBVioHashString@@UD3DXVECTOR3@@@std@@@4@$0A@@std@@@std@@@2@@Z ; std::_Tree<std::_Tmap_traits<ioHashString,D3DXVECTOR3,std::less<ioHashString>,std::allocator<std::pair<ioHashString const ,D3DXVECTOR3> >,0> >::erase
  00040	8b 4d 0c	 mov	 ecx, DWORD PTR __First$[ebp]
  00043	3b 4d 10	 cmp	 ecx, DWORD PTR __Last$[ebp]
  00046	75 e2		 jne	 SHORT $LL2@erase@3
  00048	5f		 pop	 edi
$LN1@erase@3:

; 1389 : 			return (iterator(_First._Ptr, this));

  00049	8b 45 08	 mov	 eax, DWORD PTR ___$ReturnUdt$[ebp]
  0004c	89 08		 mov	 DWORD PTR [eax], ecx
  0004e	5e		 pop	 esi

; 1390 : 			}
; 1391 : 		}

  0004f	c9		 leave
  00050	c2 0c 00	 ret	 12			; 0000000cH
?erase@?$_Tree@V?$_Tmap_traits@VioHashString@@UD3DXVECTOR3@@U?$less@VioHashString@@@std@@V?$allocator@U?$pair@$$CBVioHashString@@UD3DXVECTOR3@@@std@@@4@$0A@@std@@@std@@QAE?AV?$_Tree_iterator@V?$_Tree_val@V?$_Tmap_traits@VioHashString@@UD3DXVECTOR3@@U?$less@VioHashString@@@std@@V?$allocator@U?$pair@$$CBVioHashString@@UD3DXVECTOR3@@@std@@@4@$0A@@std@@@std@@@2@V?$_Tree_const_iterator@V?$_Tree_val@V?$_Tmap_traits@VioHashString@@UD3DXVECTOR3@@U?$less@VioHashString@@@std@@V?$allocator@U?$pair@$$CBVioHashString@@UD3DXVECTOR3@@@std@@@4@$0A@@std@@@std@@@2@0@Z ENDP ; std::_Tree<std::_Tmap_traits<ioHashString,D3DXVECTOR3,std::less<ioHashString>,std::allocator<std::pair<ioHashString const ,D3DXVECTOR3> >,0> >::erase
_TEXT	ENDS
PUBLIC	?_Tidy@?$_Tree@V?$_Tmap_traits@VioHashString@@UD3DXVECTOR3@@U?$less@VioHashString@@@std@@V?$allocator@U?$pair@$$CBVioHashString@@UD3DXVECTOR3@@@std@@@4@$0A@@std@@@std@@IAEXXZ ; std::_Tree<std::_Tmap_traits<ioHashString,D3DXVECTOR3,std::less<ioHashString>,std::allocator<std::pair<ioHashString const ,D3DXVECTOR3> >,0> >::_Tidy
; Function compile flags: /Ogsp
;	COMDAT ?_Tidy@?$_Tree@V?$_Tmap_traits@VioHashString@@UD3DXVECTOR3@@U?$less@VioHashString@@@std@@V?$allocator@U?$pair@$$CBVioHashString@@UD3DXVECTOR3@@@std@@@4@$0A@@std@@@std@@IAEXXZ
_TEXT	SEGMENT
$T515739 = -4						; size = 4
?_Tidy@?$_Tree@V?$_Tmap_traits@VioHashString@@UD3DXVECTOR3@@U?$less@VioHashString@@@std@@V?$allocator@U?$pair@$$CBVioHashString@@UD3DXVECTOR3@@@std@@@4@$0A@@std@@@std@@IAEXXZ PROC ; std::_Tree<std::_Tmap_traits<ioHashString,D3DXVECTOR3,std::less<ioHashString>,std::allocator<std::pair<ioHashString const ,D3DXVECTOR3> >,0> >::_Tidy, COMDAT
; _this$ = ecx

; 1865 : 		{	// free all storage

  00000	55		 push	 ebp
  00001	8b ec		 mov	 ebp, esp
  00003	51		 push	 ecx

; 1866 : 		erase(begin(), end());

  00004	8b 41 04	 mov	 eax, DWORD PTR [ecx+4]
  00007	8b 10		 mov	 edx, DWORD PTR [eax]
  00009	50		 push	 eax
  0000a	52		 push	 edx
  0000b	8d 45 fc	 lea	 eax, DWORD PTR $T515739[ebp]
  0000e	50		 push	 eax
  0000f	e8 00 00 00 00	 call	 ?erase@?$_Tree@V?$_Tmap_traits@VioHashString@@UD3DXVECTOR3@@U?$less@VioHashString@@@std@@V?$allocator@U?$pair@$$CBVioHashString@@UD3DXVECTOR3@@@std@@@4@$0A@@std@@@std@@QAE?AV?$_Tree_iterator@V?$_Tree_val@V?$_Tmap_traits@VioHashString@@UD3DXVECTOR3@@U?$less@VioHashString@@@std@@V?$allocator@U?$pair@$$CBVioHashString@@UD3DXVECTOR3@@@std@@@4@$0A@@std@@@std@@@2@V?$_Tree_const_iterator@V?$_Tree_val@V?$_Tmap_traits@VioHashString@@UD3DXVECTOR3@@U?$less@VioHashString@@@std@@V?$allocator@U?$pair@$$CBVioHashString@@UD3DXVECTOR3@@@std@@@4@$0A@@std@@@std@@@2@0@Z ; std::_Tree<std::_Tmap_traits<ioHashString,D3DXVECTOR3,std::less<ioHashString>,std::allocator<std::pair<ioHashString const ,D3DXVECTOR3> >,0> >::erase

; 1867 : 		}

  00014	c9		 leave
  00015	c3		 ret	 0
?_Tidy@?$_Tree@V?$_Tmap_traits@VioHashString@@UD3DXVECTOR3@@U?$less@VioHashString@@@std@@V?$allocator@U?$pair@$$CBVioHashString@@UD3DXVECTOR3@@@std@@@4@$0A@@std@@@std@@IAEXXZ ENDP ; std::_Tree<std::_Tmap_traits<ioHashString,D3DXVECTOR3,std::less<ioHashString>,std::allocator<std::pair<ioHashString const ,D3DXVECTOR3> >,0> >::_Tidy
_TEXT	ENDS
PUBLIC	?reserve@?$vector@UEntityGroupData@ioWorldMesh@@V?$allocator@UEntityGroupData@ioWorldMesh@@@std@@@std@@QAEXI@Z ; std::vector<ioWorldMesh::EntityGroupData,std::allocator<ioWorldMesh::EntityGroupData> >::reserve
;	COMDAT xdata$x
; File c:\program files (x86)\microsoft visual studio 10.0\vc\include\xmemory
xdata$x	SEGMENT
__catchsym$?reserve@?$vector@UEntityGroupData@ioWorldMesh@@V?$allocator@UEntityGroupData@ioWorldMesh@@@std@@@std@@QAEXI@Z$2 DD 040H
	DD	00H
	DD	00H
	DD	FLAT:__catch$?reserve@?$vector@UEntityGroupData@ioWorldMesh@@V?$allocator@UEntityGroupData@ioWorldMesh@@@std@@@std@@QAEXI@Z$0
__unwindtable$?reserve@?$vector@UEntityGroupData@ioWorldMesh@@V?$allocator@UEntityGroupData@ioWorldMesh@@@std@@@std@@QAEXI@Z DD 0ffffffffH
	DD	00H
	DD	0ffffffffH
	DD	00H
__tryblocktable$?reserve@?$vector@UEntityGroupData@ioWorldMesh@@V?$allocator@UEntityGroupData@ioWorldMesh@@@std@@@std@@QAEXI@Z DD 00H
	DD	00H
	DD	01H
	DD	01H
	DD	FLAT:__catchsym$?reserve@?$vector@UEntityGroupData@ioWorldMesh@@V?$allocator@UEntityGroupData@ioWorldMesh@@@std@@@std@@QAEXI@Z$2
__ehfuncinfo$?reserve@?$vector@UEntityGroupData@ioWorldMesh@@V?$allocator@UEntityGroupData@ioWorldMesh@@@std@@@std@@QAEXI@Z DD 019930522H
	DD	02H
	DD	FLAT:__unwindtable$?reserve@?$vector@UEntityGroupData@ioWorldMesh@@V?$allocator@UEntityGroupData@ioWorldMesh@@@std@@@std@@QAEXI@Z
	DD	01H
	DD	FLAT:__tryblocktable$?reserve@?$vector@UEntityGroupData@ioWorldMesh@@V?$allocator@UEntityGroupData@ioWorldMesh@@@std@@@std@@QAEXI@Z
	DD	2 DUP(00H)
	DD	00H
	DD	01H
; Function compile flags: /Ogsp
; File c:\program files (x86)\microsoft visual studio 10.0\vc\include\vector
xdata$x	ENDS
;	COMDAT ?reserve@?$vector@UEntityGroupData@ioWorldMesh@@V?$allocator@UEntityGroupData@ioWorldMesh@@@std@@@std@@QAEXI@Z
_TEXT	SEGMENT
__Ptr$508402 = -20					; size = 4
__$EHRec$ = -16						; size = 16
__Count$ = 8						; size = 4
?reserve@?$vector@UEntityGroupData@ioWorldMesh@@V?$allocator@UEntityGroupData@ioWorldMesh@@@std@@@std@@QAEXI@Z PROC ; std::vector<ioWorldMesh::EntityGroupData,std::allocator<ioWorldMesh::EntityGroupData> >::reserve, COMDAT
; _this$ = ecx

; 746  : 		{	// determine new minimum length of allocated storage

  00000	6a 08		 push	 8
  00002	b8 00 00 00 00	 mov	 eax, __ehhandler$?reserve@?$vector@UEntityGroupData@ioWorldMesh@@V?$allocator@UEntityGroupData@ioWorldMesh@@@std@@@std@@QAEXI@Z
  00007	e8 00 00 00 00	 call	 __EH_prolog3_catch
  0000c	8b f1		 mov	 esi, ecx

; 747  : 		if (max_size() < _Count)

  0000e	81 7d 08 ff ff
	ff 1f		 cmp	 DWORD PTR __Count$[ebp], 536870911 ; 1fffffffH
  00015	76 0b		 jbe	 SHORT $LN5@reserve

; 748  : 			_Xlen();	// result too long

  00017	68 00 00 00 00	 push	 OFFSET ??_C@_0BD@OLBABOEK@vector?$DMT?$DO?5too?5long?$AA@
  0001c	ff 15 00 00 00
	00		 call	 DWORD PTR __imp_?_Xlength_error@std@@YAXPBD@Z
$LN56@reserve:
$LN5@reserve:

; 749  : 		else if (capacity() < _Count)

  00022	8b 46 08	 mov	 eax, DWORD PTR [esi+8]
  00025	2b 06		 sub	 eax, DWORD PTR [esi]
  00027	c1 f8 03	 sar	 eax, 3
  0002a	3b 45 08	 cmp	 eax, DWORD PTR __Count$[ebp]
  0002d	73 65		 jae	 SHORT $LN3@reserve

; 750  : 			{	// not enough room, reallocate
; 751  : 			pointer _Ptr = this->_Alval.allocate(_Count);

  0002f	6a 00		 push	 0
  00031	ff 75 08	 push	 DWORD PTR __Count$[ebp]
  00034	e8 00 00 00 00	 call	 ??$_Allocate@UEntityGroupData@ioWorldMesh@@@std@@YAPAUEntityGroupData@ioWorldMesh@@IPAU12@@Z ; std::_Allocate<ioWorldMesh::EntityGroupData>

; 752  : 
; 753  : 			_TRY_BEGIN
; 754  : 			_Umove(this->_Myfirst, this->_Mylast, _Ptr);

  00039	8b 0e		 mov	 ecx, DWORD PTR [esi]
  0003b	83 65 fc 00	 and	 DWORD PTR __$EHRec$[ebp+12], 0
  0003f	8b d8		 mov	 ebx, eax
  00041	8b 46 04	 mov	 eax, DWORD PTR [esi+4]
  00044	8d 56 0c	 lea	 edx, DWORD PTR [esi+12]
  00047	52		 push	 edx
  00048	53		 push	 ebx
  00049	50		 push	 eax
  0004a	51		 push	 ecx
  0004b	89 5d ec	 mov	 DWORD PTR __Ptr$508402[ebp], ebx
  0004e	e8 00 00 00 00	 call	 ??$_Uninitialized_move@PAUEntityGroupData@ioWorldMesh@@PAU12@V?$allocator@UEntityGroupData@ioWorldMesh@@@std@@@std@@YAPAUEntityGroupData@ioWorldMesh@@PAU12@00AAV?$allocator@UEntityGroupData@ioWorldMesh@@@0@@Z ; std::_Uninitialized_move<ioWorldMesh::EntityGroupData *,ioWorldMesh::EntityGroupData *,std::allocator<ioWorldMesh::EntityGroupData> >

; 758  : 			_CATCH_END
; 759  : 
; 760  : 			size_type _Size = size();

  00053	8b 4e 04	 mov	 ecx, DWORD PTR [esi+4]
  00056	8b 06		 mov	 eax, DWORD PTR [esi]
  00058	83 4d fc ff	 or	 DWORD PTR __$EHRec$[ebp+12], -1
  0005c	8b f9		 mov	 edi, ecx
  0005e	2b f8		 sub	 edi, eax
  00060	83 c4 18	 add	 esp, 24			; 00000018H
  00063	c1 ff 03	 sar	 edi, 3
  00066	85 c0		 test	 eax, eax
  00068	74 11		 je	 SHORT $LN48@reserve

; 761  : 			if (this->_Myfirst != 0)

  0006a	eb 03		 jmp	 SHORT $LN55@reserve

; 762  : 				{	// destroy and deallocate old array
; 763  : 				_Destroy(this->_Myfirst, this->_Mylast);

$LL39@reserve:
  0006c	83 c0 08	 add	 eax, 8
$LN55@reserve:
  0006f	3b c1		 cmp	 eax, ecx
  00071	75 f9		 jne	 SHORT $LL39@reserve

; 764  : 				this->_Alval.deallocate(this->_Myfirst,
; 765  : 					this->_Myend - this->_Myfirst);

  00073	ff 36		 push	 DWORD PTR [esi]
  00075	e8 00 00 00 00	 call	 ??3@YAXPAX@Z		; operator delete
  0007a	59		 pop	 ecx
$LN48@reserve:

; 766  : 				}
; 767  : 
; 768  : 			this->_Orphan_all();

  0007b	8b ce		 mov	 ecx, esi
  0007d	ff 15 00 00 00
	00		 call	 DWORD PTR __imp_?_Orphan_all@_Container_base0@std@@QAEXXZ

; 769  : 			this->_Myend = _Ptr + _Count;

  00083	8b 45 08	 mov	 eax, DWORD PTR __Count$[ebp]
  00086	8d 04 c3	 lea	 eax, DWORD PTR [ebx+eax*8]
  00089	89 46 08	 mov	 DWORD PTR [esi+8], eax

; 770  : 			this->_Mylast = _Ptr + _Size;

  0008c	8d 04 fb	 lea	 eax, DWORD PTR [ebx+edi*8]
  0008f	89 46 04	 mov	 DWORD PTR [esi+4], eax

; 771  : 			this->_Myfirst = _Ptr;

  00092	89 1e		 mov	 DWORD PTR [esi], ebx
$LN3@reserve:

; 772  : 			}
; 773  : 		}

  00094	e8 00 00 00 00	 call	 __EH_epilog3
  00099	c2 04 00	 ret	 4
__catch$?reserve@?$vector@UEntityGroupData@ioWorldMesh@@V?$allocator@UEntityGroupData@ioWorldMesh@@@std@@@std@@QAEXI@Z$0:

; 755  : 			_CATCH_ALL
; 756  : 			this->_Alval.deallocate(_Ptr, _Count);

  0009c	ff 75 ec	 push	 DWORD PTR __Ptr$508402[ebp]
  0009f	e8 00 00 00 00	 call	 ??3@YAXPAX@Z		; operator delete
  000a4	59		 pop	 ecx

; 757  : 			_RERAISE;

  000a5	6a 00		 push	 0
  000a7	6a 00		 push	 0
  000a9	e8 00 00 00 00	 call	 __CxxThrowException@8
$LN57@reserve:
$LN54@reserve:
  000ae	cc		 int	 3
_TEXT	ENDS
;	COMDAT text$x
text$x	SEGMENT
__ehhandler$?reserve@?$vector@UEntityGroupData@ioWorldMesh@@V?$allocator@UEntityGroupData@ioWorldMesh@@@std@@@std@@QAEXI@Z:
  00000	8b 54 24 08	 mov	 edx, DWORD PTR [esp+8]
  00004	8d 42 0c	 lea	 eax, DWORD PTR [edx+12]
  00007	8b 4a e8	 mov	 ecx, DWORD PTR [edx-24]
  0000a	33 c8		 xor	 ecx, eax
  0000c	e8 00 00 00 00	 call	 @__security_check_cookie@4
  00011	b8 00 00 00 00	 mov	 eax, OFFSET __ehfuncinfo$?reserve@?$vector@UEntityGroupData@ioWorldMesh@@V?$allocator@UEntityGroupData@ioWorldMesh@@@std@@@std@@QAEXI@Z
  00016	e9 00 00 00 00	 jmp	 ___CxxFrameHandler3
text$x	ENDS
?reserve@?$vector@UEntityGroupData@ioWorldMesh@@V?$allocator@UEntityGroupData@ioWorldMesh@@@std@@@std@@QAEXI@Z ENDP ; std::vector<ioWorldMesh::EntityGroupData,std::allocator<ioWorldMesh::EntityGroupData> >::reserve
PUBLIC	??$_Umove@PAVioHashString@@@?$vector@VioHashString@@V?$allocator@VioHashString@@@std@@@std@@IAEPAVioHashString@@PAV2@00@Z ; std::vector<ioHashString,std::allocator<ioHashString> >::_Umove<ioHashString *>
; Function compile flags: /Ogsp
;	COMDAT ??$_Umove@PAVioHashString@@@?$vector@VioHashString@@V?$allocator@VioHashString@@@std@@@std@@IAEPAVioHashString@@PAV2@00@Z
_TEXT	SEGMENT
__First$ = 8						; size = 4
__Last$ = 12						; size = 4
__Ptr$ = 16						; size = 4
??$_Umove@PAVioHashString@@@?$vector@VioHashString@@V?$allocator@VioHashString@@@std@@@std@@IAEPAVioHashString@@PAV2@00@Z PROC ; std::vector<ioHashString,std::allocator<ioHashString> >::_Umove<ioHashString *>, COMDAT
; _this$ = ecx

; 1322 : 		pointer _Umove(_Iter _First, _Iter _Last, pointer _Ptr)

  00000	55		 push	 ebp
  00001	8b ec		 mov	 ebp, esp

; 1323 : 		{	// move initializing [_First, _Last), using allocator
; 1324 : 		return (_Uninitialized_move(_First, _Last,
; 1325 : 			_Ptr, this->_Alval));

  00003	83 c1 0c	 add	 ecx, 12			; 0000000cH
  00006	51		 push	 ecx
  00007	ff 75 10	 push	 DWORD PTR __Ptr$[ebp]
  0000a	ff 75 0c	 push	 DWORD PTR __Last$[ebp]
  0000d	ff 75 08	 push	 DWORD PTR __First$[ebp]
  00010	e8 00 00 00 00	 call	 ??$_Uninitialized_move@PAVioHashString@@PAV1@V?$allocator@VioHashString@@@std@@@std@@YAPAVioHashString@@PAV1@00AAV?$allocator@VioHashString@@@0@@Z ; std::_Uninitialized_move<ioHashString *,ioHashString *,std::allocator<ioHashString> >
  00015	83 c4 10	 add	 esp, 16			; 00000010H

; 1326 : 		}

  00018	5d		 pop	 ebp
  00019	c2 0c 00	 ret	 12			; 0000000cH
??$_Umove@PAVioHashString@@@?$vector@VioHashString@@V?$allocator@VioHashString@@@std@@@std@@IAEPAVioHashString@@PAV2@00@Z ENDP ; std::vector<ioHashString,std::allocator<ioHashString> >::_Umove<ioHashString *>
_TEXT	ENDS
PUBLIC	?_Insert@?$_Tree@V?$_Tmap_traits@VioHashString@@UD3DXVECTOR3@@U?$less@VioHashString@@@std@@V?$allocator@U?$pair@$$CBVioHashString@@UD3DXVECTOR3@@@std@@@4@$0A@@std@@@std@@QAE?AV?$_Tree_iterator@V?$_Tree_val@V?$_Tmap_traits@VioHashString@@UD3DXVECTOR3@@U?$less@VioHashString@@@std@@V?$allocator@U?$pair@$$CBVioHashString@@UD3DXVECTOR3@@@std@@@4@$0A@@std@@@std@@@2@V?$_Tree_const_iterator@V?$_Tree_val@V?$_Tmap_traits@VioHashString@@UD3DXVECTOR3@@U?$less@VioHashString@@@std@@V?$allocator@U?$pair@$$CBVioHashString@@UD3DXVECTOR3@@@std@@@4@$0A@@std@@@std@@@2@PAU_Node@?$_Tree_nod@V?$_Tmap_traits@VioHashString@@UD3DXVECTOR3@@U?$less@VioHashString@@@std@@V?$allocator@U?$pair@$$CBVioHashString@@UD3DXVECTOR3@@@std@@@4@$0A@@std@@@2@@Z ; std::_Tree<std::_Tmap_traits<ioHashString,D3DXVECTOR3,std::less<ioHashString>,std::allocator<std::pair<ioHashString const ,D3DXVECTOR3> >,0> >::_Insert
; Function compile flags: /Ogsp
; File c:\program files (x86)\microsoft visual studio 10.0\vc\include\xtree
;	COMDAT ?_Insert@?$_Tree@V?$_Tmap_traits@VioHashString@@UD3DXVECTOR3@@U?$less@VioHashString@@@std@@V?$allocator@U?$pair@$$CBVioHashString@@UD3DXVECTOR3@@@std@@@4@$0A@@std@@@std@@QAE?AV?$_Tree_iterator@V?$_Tree_val@V?$_Tmap_traits@VioHashString@@UD3DXVECTOR3@@U?$less@VioHashString@@@std@@V?$allocator@U?$pair@$$CBVioHashString@@UD3DXVECTOR3@@@std@@@4@$0A@@std@@@std@@@2@V?$_Tree_const_iterator@V?$_Tree_val@V?$_Tmap_traits@VioHashString@@UD3DXVECTOR3@@U?$less@VioHashString@@@std@@V?$allocator@U?$pair@$$CBVioHashString@@UD3DXVECTOR3@@@std@@@4@$0A@@std@@@std@@@2@PAU_Node@?$_Tree_nod@V?$_Tmap_traits@VioHashString@@UD3DXVECTOR3@@U?$less@VioHashString@@@std@@V?$allocator@U?$pair@$$CBVioHashString@@UD3DXVECTOR3@@@std@@@4@$0A@@std@@@2@@Z
_TEXT	SEGMENT
$T515969 = -8						; size = 8
___$ReturnUdt$ = 8					; size = 4
__Where$ = 12						; size = 4
__Next$ = 16						; size = 4
__Node$ = 16						; size = 4
?_Insert@?$_Tree@V?$_Tmap_traits@VioHashString@@UD3DXVECTOR3@@U?$less@VioHashString@@@std@@V?$allocator@U?$pair@$$CBVioHashString@@UD3DXVECTOR3@@@std@@@4@$0A@@std@@@std@@QAE?AV?$_Tree_iterator@V?$_Tree_val@V?$_Tmap_traits@VioHashString@@UD3DXVECTOR3@@U?$less@VioHashString@@@std@@V?$allocator@U?$pair@$$CBVioHashString@@UD3DXVECTOR3@@@std@@@4@$0A@@std@@@std@@@2@V?$_Tree_const_iterator@V?$_Tree_val@V?$_Tmap_traits@VioHashString@@UD3DXVECTOR3@@U?$less@VioHashString@@@std@@V?$allocator@U?$pair@$$CBVioHashString@@UD3DXVECTOR3@@@std@@@4@$0A@@std@@@std@@@2@PAU_Node@?$_Tree_nod@V?$_Tmap_traits@VioHashString@@UD3DXVECTOR3@@U?$less@VioHashString@@@std@@V?$allocator@U?$pair@$$CBVioHashString@@UD3DXVECTOR3@@@std@@@4@$0A@@std@@@2@@Z PROC ; std::_Tree<std::_Tmap_traits<ioHashString,D3DXVECTOR3,std::less<ioHashString>,std::allocator<std::pair<ioHashString const ,D3DXVECTOR3> >,0> >::_Insert, COMDAT
; _this$ = ecx

; 1089 : 		{	// try to insert node at _Node using _Where as a hint

  00000	55		 push	 ebp
  00001	8b ec		 mov	 ebp, esp
  00003	51		 push	 ecx
  00004	51		 push	 ecx
  00005	53		 push	 ebx

; 1090 :  #if _ITERATOR_DEBUG_LEVEL == 2
; 1091 : 		if (_Where._Getcont() != this)
; 1092 : 			_DEBUG_ERROR("map/set insert iterator outside range");
; 1093 :  #endif /* _ITERATOR_DEBUG_LEVEL == 2 */
; 1094 : 
; 1095 : 		const value_type& _Val = this->_Myval(_Node);

  00006	8b 5d 10	 mov	 ebx, DWORD PTR __Node$[ebp]
  00009	56		 push	 esi
  0000a	8b f1		 mov	 esi, ecx

; 1096 : 
; 1097 : 		const_iterator _Next;
; 1098 : 		bool _Leftish = false;	// assume nearest point is end of sequence
; 1099 : 
; 1100 : 		if (size() == 0)

  0000c	83 7e 08 00	 cmp	 DWORD PTR [esi+8], 0
  00010	57		 push	 edi
  00011	8d 7b 0c	 lea	 edi, DWORD PTR [ebx+12]
  00014	75 16		 jne	 SHORT $LN33@Insert@2

; 1101 : 			return (_Insert(true, this->_Myhead, _Node));	// empty tree

  00016	53		 push	 ebx
  00017	ff 76 04	 push	 DWORD PTR [esi+4]
$LN336@Insert@2:
  0001a	6a 01		 push	 1
$LN335@Insert@2:
  0001c	ff 75 08	 push	 DWORD PTR ___$ReturnUdt$[ebp]
  0001f	e8 00 00 00 00	 call	 ?_Insert@?$_Tree@V?$_Tmap_traits@VioHashString@@UD3DXVECTOR3@@U?$less@VioHashString@@@std@@V?$allocator@U?$pair@$$CBVioHashString@@UD3DXVECTOR3@@@std@@@4@$0A@@std@@@std@@IAE?AV?$_Tree_iterator@V?$_Tree_val@V?$_Tmap_traits@VioHashString@@UD3DXVECTOR3@@U?$less@VioHashString@@@std@@V?$allocator@U?$pair@$$CBVioHashString@@UD3DXVECTOR3@@@std@@@4@$0A@@std@@@std@@@2@_NPAU_Node@?$_Tree_nod@V?$_Tmap_traits@VioHashString@@UD3DXVECTOR3@@U?$less@VioHashString@@@std@@V?$allocator@U?$pair@$$CBVioHashString@@UD3DXVECTOR3@@@std@@@4@$0A@@std@@@2@1@Z ; std::_Tree<std::_Tmap_traits<ioHashString,D3DXVECTOR3,std::less<ioHashString>,std::allocator<std::pair<ioHashString const ,D3DXVECTOR3> >,0> >::_Insert
  00024	8b 45 08	 mov	 eax, DWORD PTR ___$ReturnUdt$[ebp]
  00027	e9 ff 00 00 00	 jmp	 $LN34@Insert@2
$LN33@Insert@2:

; 1102 : 		else if (this->_Multi)
; 1103 : 			{	// insert even if duplicate
; 1104 : 			if (_Where == begin())
; 1105 : 				{	// insert at beginning if before first element
; 1106 : 				if (!_DEBUG_LT_PRED(this->comp,
; 1107 : 					this->_Key(_Where._Mynode()), this->_Kfn(_Val)))
; 1108 : 					return (_Insert(true, _Where._Mynode(), _Node));
; 1109 : 				_Leftish = true;	// nearest point is beginning of sequence
; 1110 : 				}
; 1111 : 			else if (_Where == end())
; 1112 : 				{	// insert at end if after last element
; 1113 : 				if (!_DEBUG_LT_PRED(this->comp,
; 1114 : 					this->_Kfn(_Val), this->_Key(_Rmost())))
; 1115 : 					return (_Insert(false, _Rmost(), _Node));
; 1116 : 				}
; 1117 : 			else if (!_DEBUG_LT_PRED(this->comp,
; 1118 : 				this->_Key(_Where._Mynode()), this->_Kfn(_Val))
; 1119 : 				&& !_DEBUG_LT_PRED(this->comp,
; 1120 : 					this->_Kfn(_Val),
; 1121 : 					this->_Key((--(_Next = _Where))._Mynode())))
; 1122 : 				{	// insert before _Where
; 1123 : 				if (this->_Isnil(this->_Right(_Next._Mynode())))
; 1124 : 					return (_Insert(false, _Next._Mynode(), _Node));
; 1125 : 				else
; 1126 : 					return (_Insert(true, _Where._Mynode(), _Node));
; 1127 : 				}
; 1128 : 			else if (!_DEBUG_LT_PRED(this->comp,
; 1129 : 				this->_Kfn(_Val), this->_Key(_Where._Mynode()))
; 1130 : 				&& (++(_Next = _Where) == end()
; 1131 : 					|| !_DEBUG_LT_PRED(this->comp,
; 1132 : 						this->_Key(_Next._Mynode()), this->_Kfn(_Val))))
; 1133 : 				{	// insert after _Where
; 1134 : 				if (this->_Isnil(this->_Right(_Where._Mynode())))
; 1135 : 					return (_Insert(false, _Where._Mynode(), _Node));
; 1136 : 				else
; 1137 : 					return (_Insert(true, _Next._Mynode(), _Node));
; 1138 : 				}
; 1139 : 			else
; 1140 : 				_Leftish = true;	// nearest point is beginning of sequence
; 1141 : 			}
; 1142 : 		else
; 1143 : 			{	// insert only if unique
; 1144 : 			if (_Where == begin())

  0002c	8b 46 04	 mov	 eax, DWORD PTR [esi+4]
  0002f	8b 4d 0c	 mov	 ecx, DWORD PTR __Where$[ebp]
  00032	3b 08		 cmp	 ecx, DWORD PTR [eax]
  00034	75 1e		 jne	 SHORT $LN14@Insert@2

; 1145 : 				{	// insert at beginning if before first element
; 1146 : 				if (_DEBUG_LT_PRED(this->comp,

  00036	83 c1 0c	 add	 ecx, 12			; 0000000cH
  00039	51		 push	 ecx
  0003a	8b cf		 mov	 ecx, edi
  0003c	ff 15 00 00 00
	00		 call	 DWORD PTR __imp_??MioHashString@@QBE_NABV0@@Z
  00042	84 c0		 test	 al, al
  00044	0f 84 cc 00 00
	00		 je	 $LN332@Insert@2

; 1147 : 					this->_Kfn(_Val), this->_Key(_Where._Mynode())))
; 1148 : 					return (_Insert(true, _Where._Mynode(), _Node));

  0004a	53		 push	 ebx
  0004b	ff 75 0c	 push	 DWORD PTR __Where$[ebp]
  0004e	6a 01		 push	 1
$LN338@Insert@2:
  00050	8b ce		 mov	 ecx, esi
  00052	eb c8		 jmp	 SHORT $LN335@Insert@2
$LN14@Insert@2:

; 1149 : 				}
; 1150 : 			else if (_Where == end())

  00054	3b c8		 cmp	 ecx, eax
  00056	75 20		 jne	 SHORT $LN11@Insert@2

; 1151 : 				{	// insert at end if after last element
; 1152 : 				if (_DEBUG_LT_PRED(this->comp,

  00058	8b 48 08	 mov	 ecx, DWORD PTR [eax+8]
  0005b	83 c1 0c	 add	 ecx, 12			; 0000000cH
  0005e	57		 push	 edi
  0005f	ff 15 00 00 00
	00		 call	 DWORD PTR __imp_??MioHashString@@QBE_NABV0@@Z
  00065	84 c0		 test	 al, al
  00067	0f 84 a9 00 00
	00		 je	 $LN332@Insert@2

; 1153 : 					this->_Key(_Rmost()), this->_Kfn(_Val)))
; 1154 : 					return (_Insert(false, _Rmost(), _Node));

  0006d	8b 46 04	 mov	 eax, DWORD PTR [esi+4]
  00070	53		 push	 ebx
  00071	ff 70 08	 push	 DWORD PTR [eax+8]
  00074	6a 00		 push	 0
  00076	eb d8		 jmp	 SHORT $LN338@Insert@2
$LN11@Insert@2:

; 1155 : 				}
; 1156 : 			else if (_DEBUG_LT_PRED(this->comp,
; 1157 : 				this->_Kfn(_Val), this->_Key(_Where._Mynode()))
; 1158 : 				&& _DEBUG_LT_PRED(this->comp,

  00078	83 c1 0c	 add	 ecx, 12			; 0000000cH
  0007b	51		 push	 ecx
  0007c	8b cf		 mov	 ecx, edi
  0007e	ff 15 00 00 00
	00		 call	 DWORD PTR __imp_??MioHashString@@QBE_NABV0@@Z
  00084	84 c0		 test	 al, al
  00086	74 3b		 je	 SHORT $LN333@Insert@2
  00088	8b 45 0c	 mov	 eax, DWORD PTR __Where$[ebp]
  0008b	8d 4d 10	 lea	 ecx, DWORD PTR __Next$[ebp]
  0008e	89 45 10	 mov	 DWORD PTR __Next$[ebp], eax
  00091	e8 00 00 00 00	 call	 ??F?$_Tree_unchecked_const_iterator@V?$_Tree_val@V?$_Tmap_traits@VioHashString@@UD3DXVECTOR3@@U?$less@VioHashString@@@std@@V?$allocator@U?$pair@$$CBVioHashString@@UD3DXVECTOR3@@@std@@@4@$0A@@std@@@std@@U_Iterator_base0@2@@std@@QAEAAV01@XZ ; std::_Tree_unchecked_const_iterator<std::_Tree_val<std::_Tmap_traits<ioHashString,D3DXVECTOR3,std::less<ioHashString>,std::allocator<std::pair<ioHashString const ,D3DXVECTOR3> >,0> >,std::_Iterator_base0>::operator--
  00096	57		 push	 edi
  00097	8b 7d 10	 mov	 edi, DWORD PTR __Next$[ebp]
  0009a	8d 4f 0c	 lea	 ecx, DWORD PTR [edi+12]
  0009d	ff 15 00 00 00
	00		 call	 DWORD PTR __imp_??MioHashString@@QBE_NABV0@@Z
  000a3	84 c0		 test	 al, al
  000a5	74 1c		 je	 SHORT $LN333@Insert@2

; 1159 : 					this->_Key((--(_Next = _Where))._Mynode()),
; 1160 : 					this->_Kfn(_Val)))
; 1161 : 				{	// insert before _Where
; 1162 : 				if (this->_Isnil(this->_Right(_Next._Mynode())))

  000a7	8b 47 08	 mov	 eax, DWORD PTR [edi+8]
  000aa	80 78 29 00	 cmp	 BYTE PTR [eax+41], 0

; 1163 : 					return (_Insert(false, _Next._Mynode(), _Node));

  000ae	53		 push	 ebx
  000af	8b ce		 mov	 ecx, esi
  000b1	74 08		 je	 SHORT $LN7@Insert@2
$LN337@Insert@2:
  000b3	57		 push	 edi
  000b4	6a 00		 push	 0
  000b6	e9 61 ff ff ff	 jmp	 $LN335@Insert@2
$LN7@Insert@2:

; 1164 : 				else
; 1165 : 					return (_Insert(true, _Where._Mynode(), _Node));

  000bb	ff 75 0c	 push	 DWORD PTR __Where$[ebp]
  000be	e9 57 ff ff ff	 jmp	 $LN336@Insert@2
$LN333@Insert@2:

; 1166 : 				}
; 1167 : 			else if (_DEBUG_LT_PRED(this->comp,
; 1168 : 				this->_Key(_Where._Mynode()), this->_Kfn(_Val))
; 1169 : 				&& (++(_Next = _Where) == end()
; 1170 : 					|| _DEBUG_LT_PRED(this->comp,

  000c3	8b 4d 0c	 mov	 ecx, DWORD PTR __Where$[ebp]
  000c6	8d 43 0c	 lea	 eax, DWORD PTR [ebx+12]
  000c9	50		 push	 eax
  000ca	83 c1 0c	 add	 ecx, 12			; 0000000cH
  000cd	ff 15 00 00 00
	00		 call	 DWORD PTR __imp_??MioHashString@@QBE_NABV0@@Z
  000d3	84 c0		 test	 al, al
  000d5	74 3f		 je	 SHORT $LN332@Insert@2
  000d7	8b 7d 0c	 mov	 edi, DWORD PTR __Where$[ebp]
  000da	8d 4d 10	 lea	 ecx, DWORD PTR __Next$[ebp]
  000dd	89 7d 10	 mov	 DWORD PTR __Next$[ebp], edi
  000e0	e8 00 00 00 00	 call	 ??E?$_Tree_unchecked_const_iterator@V?$_Tree_val@V?$_Tmap_traits@VioHashString@@UD3DXVECTOR3@@U?$less@VioHashString@@@std@@V?$allocator@U?$pair@$$CBVioHashString@@UD3DXVECTOR3@@@std@@@4@$0A@@std@@@std@@U_Iterator_base0@2@@std@@QAEAAV01@XZ ; std::_Tree_unchecked_const_iterator<std::_Tree_val<std::_Tmap_traits<ioHashString,D3DXVECTOR3,std::less<ioHashString>,std::allocator<std::pair<ioHashString const ,D3DXVECTOR3> >,0> >,std::_Iterator_base0>::operator++
  000e5	8b 45 10	 mov	 eax, DWORD PTR __Next$[ebp]
  000e8	3b 46 04	 cmp	 eax, DWORD PTR [esi+4]
  000eb	74 17		 je	 SHORT $LN3@Insert@2
  000ed	83 c0 0c	 add	 eax, 12			; 0000000cH
  000f0	50		 push	 eax
  000f1	8d 4b 0c	 lea	 ecx, DWORD PTR [ebx+12]
  000f4	ff 15 00 00 00
	00		 call	 DWORD PTR __imp_??MioHashString@@QBE_NABV0@@Z
  000fa	84 c0		 test	 al, al
  000fc	74 18		 je	 SHORT $LN332@Insert@2
  000fe	8b 7d 0c	 mov	 edi, DWORD PTR __Where$[ebp]
  00101	8b 45 10	 mov	 eax, DWORD PTR __Next$[ebp]
$LN3@Insert@2:

; 1171 : 						this->_Kfn(_Val), this->_Key(_Next._Mynode()))))
; 1172 : 				{	// insert after _Where
; 1173 : 				if (this->_Isnil(this->_Right(_Where._Mynode())))

  00104	8b 4f 08	 mov	 ecx, DWORD PTR [edi+8]
  00107	80 79 29 00	 cmp	 BYTE PTR [ecx+41], 0

; 1174 : 					return (_Insert(false, _Where._Mynode(), _Node));

  0010b	53		 push	 ebx
  0010c	8b ce		 mov	 ecx, esi
  0010e	75 a3		 jne	 SHORT $LN337@Insert@2

; 1175 : 				else
; 1176 : 					return (_Insert(true, _Next._Mynode(), _Node));

  00110	50		 push	 eax
  00111	e9 04 ff ff ff	 jmp	 $LN336@Insert@2
$LN332@Insert@2:

; 1177 : 				}
; 1178 : 			}
; 1179 : 
; 1180 : 		return (_Linsert(_Node, _Leftish).first);	// try usual insert

  00116	6a 00		 push	 0
  00118	53		 push	 ebx
  00119	8d 45 f8	 lea	 eax, DWORD PTR $T515969[ebp]
  0011c	50		 push	 eax
  0011d	8b ce		 mov	 ecx, esi
  0011f	e8 00 00 00 00	 call	 ?_Linsert@?$_Tree@V?$_Tmap_traits@VioHashString@@UD3DXVECTOR3@@U?$less@VioHashString@@@std@@V?$allocator@U?$pair@$$CBVioHashString@@UD3DXVECTOR3@@@std@@@4@$0A@@std@@@std@@QAE?AU?$pair@V?$_Tree_iterator@V?$_Tree_val@V?$_Tmap_traits@VioHashString@@UD3DXVECTOR3@@U?$less@VioHashString@@@std@@V?$allocator@U?$pair@$$CBVioHashString@@UD3DXVECTOR3@@@std@@@4@$0A@@std@@@std@@@std@@_N@2@PAU_Node@?$_Tree_nod@V?$_Tmap_traits@VioHashString@@UD3DXVECTOR3@@U?$less@VioHashString@@@std@@V?$allocator@U?$pair@$$CBVioHashString@@UD3DXVECTOR3@@@std@@@4@$0A@@std@@@2@_N@Z ; std::_Tree<std::_Tmap_traits<ioHashString,D3DXVECTOR3,std::less<ioHashString>,std::allocator<std::pair<ioHashString const ,D3DXVECTOR3> >,0> >::_Linsert
  00124	8b 08		 mov	 ecx, DWORD PTR [eax]
  00126	8b 45 08	 mov	 eax, DWORD PTR ___$ReturnUdt$[ebp]
  00129	89 08		 mov	 DWORD PTR [eax], ecx
$LN34@Insert@2:
  0012b	5f		 pop	 edi
  0012c	5e		 pop	 esi
  0012d	5b		 pop	 ebx

; 1181 : 		}

  0012e	c9		 leave
  0012f	c2 0c 00	 ret	 12			; 0000000cH
?_Insert@?$_Tree@V?$_Tmap_traits@VioHashString@@UD3DXVECTOR3@@U?$less@VioHashString@@@std@@V?$allocator@U?$pair@$$CBVioHashString@@UD3DXVECTOR3@@@std@@@4@$0A@@std@@@std@@QAE?AV?$_Tree_iterator@V?$_Tree_val@V?$_Tmap_traits@VioHashString@@UD3DXVECTOR3@@U?$less@VioHashString@@@std@@V?$allocator@U?$pair@$$CBVioHashString@@UD3DXVECTOR3@@@std@@@4@$0A@@std@@@std@@@2@V?$_Tree_const_iterator@V?$_Tree_val@V?$_Tmap_traits@VioHashString@@UD3DXVECTOR3@@U?$less@VioHashString@@@std@@V?$allocator@U?$pair@$$CBVioHashString@@UD3DXVECTOR3@@@std@@@4@$0A@@std@@@std@@@2@PAU_Node@?$_Tree_nod@V?$_Tmap_traits@VioHashString@@UD3DXVECTOR3@@U?$less@VioHashString@@@std@@V?$allocator@U?$pair@$$CBVioHashString@@UD3DXVECTOR3@@@std@@@4@$0A@@std@@@2@@Z ENDP ; std::_Tree<std::_Tmap_traits<ioHashString,D3DXVECTOR3,std::less<ioHashString>,std::allocator<std::pair<ioHashString const ,D3DXVECTOR3> >,0> >::_Insert
_TEXT	ENDS
PUBLIC	?_Destroy@?$vector@VioHashString@@V?$allocator@VioHashString@@@std@@@std@@IAEXPAVioHashString@@0@Z ; std::vector<ioHashString,std::allocator<ioHashString> >::_Destroy
; Function compile flags: /Ogsp
; File c:\program files (x86)\microsoft visual studio 10.0\vc\include\vector
;	COMDAT ?_Destroy@?$vector@VioHashString@@V?$allocator@VioHashString@@@std@@@std@@IAEXPAVioHashString@@0@Z
_TEXT	SEGMENT
__First$ = 8						; size = 4
__Last$ = 12						; size = 4
?_Destroy@?$vector@VioHashString@@V?$allocator@VioHashString@@@std@@@std@@IAEXPAVioHashString@@0@Z PROC ; std::vector<ioHashString,std::allocator<ioHashString> >::_Destroy, COMDAT
; _this$ = ecx

; 1269 : 		{	// destroy [_First, _Last) using allocator

  00000	55		 push	 ebp
  00001	8b ec		 mov	 ebp, esp
  00003	56		 push	 esi

; 1270 : 		_Destroy_range(_First, _Last, this->_Alval);

  00004	8b 75 08	 mov	 esi, DWORD PTR __First$[ebp]
  00007	eb 0b		 jmp	 SHORT $LN23@Destroy
$LL9@Destroy:
  00009	8b ce		 mov	 ecx, esi
  0000b	ff 15 00 00 00
	00		 call	 DWORD PTR __imp_??1ioHashString@@QAE@XZ
  00011	83 c6 10	 add	 esi, 16			; 00000010H
$LN23@Destroy:
  00014	3b 75 0c	 cmp	 esi, DWORD PTR __Last$[ebp]
  00017	75 f0		 jne	 SHORT $LL9@Destroy
  00019	5e		 pop	 esi

; 1271 : 		}

  0001a	5d		 pop	 ebp
  0001b	c2 08 00	 ret	 8
?_Destroy@?$vector@VioHashString@@V?$allocator@VioHashString@@@std@@@std@@IAEXPAVioHashString@@0@Z ENDP ; std::vector<ioHashString,std::allocator<ioHashString> >::_Destroy
_TEXT	ENDS
PUBLIC	?DestroyAllLightDecal@ioWorldMesh@@QAEXH@Z	; ioWorldMesh::DestroyAllLightDecal
EXTRN	__imp_?DestroyAllDecal@ioEntityGroup@@QAEXXZ:PROC
; Function compile flags: /Ogsp
; File d:\lost saga for developer\youtube\tutorial\source\src\lsclient\ioworldmesh.cpp
;	COMDAT ?DestroyAllLightDecal@ioWorldMesh@@QAEXH@Z
_TEXT	SEGMENT
_iMapIndex$ = 8						; size = 4
?DestroyAllLightDecal@ioWorldMesh@@QAEXH@Z PROC		; ioWorldMesh::DestroyAllLightDecal, COMDAT
; _this$ = ecx

; 393  : {

  00000	55		 push	 ebp
  00001	8b ec		 mov	 ebp, esp
  00003	56		 push	 esi

; 394  : 	ioEntityGroup *pGroup = GetEntityGroup( iMapIndex );

  00004	ff 75 08	 push	 DWORD PTR _iMapIndex$[ebp]
  00007	8b f1		 mov	 esi, ecx
  00009	e8 00 00 00 00	 call	 ?GetEntityGroup@ioWorldMesh@@IAEPAVioEntityGroup@@H@Z ; ioWorldMesh::GetEntityGroup

; 395  : 	if( pGroup )

  0000e	85 c0		 test	 eax, eax
  00010	74 10		 je	 SHORT $LN1@DestroyAll

; 396  : 	{
; 397  : 		pGroup->DestroyAllDecal();

  00012	8b c8		 mov	 ecx, eax
  00014	ff 15 00 00 00
	00		 call	 DWORD PTR __imp_?DestroyAllDecal@ioEntityGroup@@QAEXXZ

; 398  : 		m_DecalLightMap.clear();

  0001a	8d 4e 28	 lea	 ecx, DWORD PTR [esi+40]
  0001d	e8 00 00 00 00	 call	 ?clear@?$_Tree@V?$_Tmap_traits@VioHashString@@UD3DXVECTOR3@@U?$less@VioHashString@@@std@@V?$allocator@U?$pair@$$CBVioHashString@@UD3DXVECTOR3@@@std@@@4@$0A@@std@@@std@@QAEXXZ ; std::_Tree<std::_Tmap_traits<ioHashString,D3DXVECTOR3,std::less<ioHashString>,std::allocator<std::pair<ioHashString const ,D3DXVECTOR3> >,0> >::clear
$LN1@DestroyAll:
  00022	5e		 pop	 esi

; 399  : 	}
; 400  : }

  00023	5d		 pop	 ebp
  00024	c2 04 00	 ret	 4
?DestroyAllLightDecal@ioWorldMesh@@QAEXH@Z ENDP		; ioWorldMesh::DestroyAllLightDecal
_TEXT	ENDS
PUBLIC	??1?$vector@UEntityGroupData@ioWorldMesh@@V?$allocator@UEntityGroupData@ioWorldMesh@@@std@@@std@@QAE@XZ ; std::vector<ioWorldMesh::EntityGroupData,std::allocator<ioWorldMesh::EntityGroupData> >::~vector<ioWorldMesh::EntityGroupData,std::allocator<ioWorldMesh::EntityGroupData> >
; Function compile flags: /Ogsp
; File c:\program files (x86)\microsoft visual studio 10.0\vc\include\vector
;	COMDAT ??1?$vector@UEntityGroupData@ioWorldMesh@@V?$allocator@UEntityGroupData@ioWorldMesh@@@std@@@std@@QAE@XZ
_TEXT	SEGMENT
??1?$vector@UEntityGroupData@ioWorldMesh@@V?$allocator@UEntityGroupData@ioWorldMesh@@@std@@@std@@QAE@XZ PROC ; std::vector<ioWorldMesh::EntityGroupData,std::allocator<ioWorldMesh::EntityGroupData> >::~vector<ioWorldMesh::EntityGroupData,std::allocator<ioWorldMesh::EntityGroupData> >, COMDAT
; _this$ = ecx

; 705  : 		_Tidy();

  00000	e9 00 00 00 00	 jmp	 ?_Tidy@?$vector@UEntityGroupData@ioWorldMesh@@V?$allocator@UEntityGroupData@ioWorldMesh@@@std@@@std@@IAEXXZ ; std::vector<ioWorldMesh::EntityGroupData,std::allocator<ioWorldMesh::EntityGroupData> >::_Tidy
??1?$vector@UEntityGroupData@ioWorldMesh@@V?$allocator@UEntityGroupData@ioWorldMesh@@@std@@@std@@QAE@XZ ENDP ; std::vector<ioWorldMesh::EntityGroupData,std::allocator<ioWorldMesh::EntityGroupData> >::~vector<ioWorldMesh::EntityGroupData,std::allocator<ioWorldMesh::EntityGroupData> >
_TEXT	ENDS
PUBLIC	?clear@?$vector@UEntityGroupData@ioWorldMesh@@V?$allocator@UEntityGroupData@ioWorldMesh@@@std@@@std@@QAEXXZ ; std::vector<ioWorldMesh::EntityGroupData,std::allocator<ioWorldMesh::EntityGroupData> >::clear
; Function compile flags: /Ogsp
;	COMDAT ?clear@?$vector@UEntityGroupData@ioWorldMesh@@V?$allocator@UEntityGroupData@ioWorldMesh@@@std@@@std@@QAEXXZ
_TEXT	SEGMENT
$T516724 = -4						; size = 4
?clear@?$vector@UEntityGroupData@ioWorldMesh@@V?$allocator@UEntityGroupData@ioWorldMesh@@@std@@@std@@QAEXXZ PROC ; std::vector<ioWorldMesh::EntityGroupData,std::allocator<ioWorldMesh::EntityGroupData> >::clear, COMDAT
; _this$ = ecx

; 1217 : 		{	// erase all

  00000	55		 push	 ebp
  00001	8b ec		 mov	 ebp, esp
  00003	51		 push	 ecx

; 1218 : 		erase(begin(), end());

  00004	8b 41 04	 mov	 eax, DWORD PTR [ecx+4]
  00007	8b 11		 mov	 edx, DWORD PTR [ecx]
  00009	50		 push	 eax
  0000a	52		 push	 edx
  0000b	8d 45 fc	 lea	 eax, DWORD PTR $T516724[ebp]
  0000e	50		 push	 eax
  0000f	e8 00 00 00 00	 call	 ?erase@?$vector@UEntityGroupData@ioWorldMesh@@V?$allocator@UEntityGroupData@ioWorldMesh@@@std@@@std@@QAE?AV?$_Vector_iterator@V?$_Vector_val@UEntityGroupData@ioWorldMesh@@V?$allocator@UEntityGroupData@ioWorldMesh@@@std@@@std@@@2@V?$_Vector_const_iterator@V?$_Vector_val@UEntityGroupData@ioWorldMesh@@V?$allocator@UEntityGroupData@ioWorldMesh@@@std@@@std@@@2@0@Z ; std::vector<ioWorldMesh::EntityGroupData,std::allocator<ioWorldMesh::EntityGroupData> >::erase

; 1219 : 		}

  00014	c9		 leave
  00015	c3		 ret	 0
?clear@?$vector@UEntityGroupData@ioWorldMesh@@V?$allocator@UEntityGroupData@ioWorldMesh@@@std@@@std@@QAEXXZ ENDP ; std::vector<ioWorldMesh::EntityGroupData,std::allocator<ioWorldMesh::EntityGroupData> >::clear
_TEXT	ENDS
PUBLIC	??1?$_Tree@V?$_Tmap_traits@VioHashString@@UD3DXVECTOR3@@U?$less@VioHashString@@@std@@V?$allocator@U?$pair@$$CBVioHashString@@UD3DXVECTOR3@@@std@@@4@$0A@@std@@@std@@QAE@XZ ; std::_Tree<std::_Tmap_traits<ioHashString,D3DXVECTOR3,std::less<ioHashString>,std::allocator<std::pair<ioHashString const ,D3DXVECTOR3> >,0> >::~_Tree<std::_Tmap_traits<ioHashString,D3DXVECTOR3,std::less<ioHashString>,std::allocator<std::pair<ioHashString const ,D3DXVECTOR3> >,0> >
;	COMDAT xdata$x
; File c:\program files (x86)\microsoft visual studio 10.0\vc\include\xmemory
xdata$x	SEGMENT
__unwindtable$??1?$_Tree@V?$_Tmap_traits@VioHashString@@UD3DXVECTOR3@@U?$less@VioHashString@@@std@@V?$allocator@U?$pair@$$CBVioHashString@@UD3DXVECTOR3@@@std@@@4@$0A@@std@@@std@@QAE@XZ DD 0ffffffffH
	DD	FLAT:__unwindfunclet$??1?$_Tree@V?$_Tmap_traits@VioHashString@@UD3DXVECTOR3@@U?$less@VioHashString@@@std@@V?$allocator@U?$pair@$$CBVioHashString@@UD3DXVECTOR3@@@std@@@4@$0A@@std@@@std@@QAE@XZ$0
__ehfuncinfo$??1?$_Tree@V?$_Tmap_traits@VioHashString@@UD3DXVECTOR3@@U?$less@VioHashString@@@std@@V?$allocator@U?$pair@$$CBVioHashString@@UD3DXVECTOR3@@@std@@@4@$0A@@std@@@std@@QAE@XZ DD 019930522H
	DD	01H
	DD	FLAT:__unwindtable$??1?$_Tree@V?$_Tmap_traits@VioHashString@@UD3DXVECTOR3@@U?$less@VioHashString@@@std@@V?$allocator@U?$pair@$$CBVioHashString@@UD3DXVECTOR3@@@std@@@4@$0A@@std@@@std@@QAE@XZ
	DD	2 DUP(00H)
	DD	2 DUP(00H)
	DD	00H
	DD	01H
; Function compile flags: /Ogsp
; File c:\program files (x86)\microsoft visual studio 10.0\vc\include\xtree
xdata$x	ENDS
;	COMDAT ??1?$_Tree@V?$_Tmap_traits@VioHashString@@UD3DXVECTOR3@@U?$less@VioHashString@@@std@@V?$allocator@U?$pair@$$CBVioHashString@@UD3DXVECTOR3@@@std@@@4@$0A@@std@@@std@@QAE@XZ
_TEXT	SEGMENT
$T516875 = -20						; size = 4
_this$ = -16						; size = 4
__$EHRec$ = -12						; size = 12
??1?$_Tree@V?$_Tmap_traits@VioHashString@@UD3DXVECTOR3@@U?$less@VioHashString@@@std@@V?$allocator@U?$pair@$$CBVioHashString@@UD3DXVECTOR3@@@std@@@4@$0A@@std@@@std@@QAE@XZ PROC ; std::_Tree<std::_Tmap_traits<ioHashString,D3DXVECTOR3,std::less<ioHashString>,std::allocator<std::pair<ioHashString const ,D3DXVECTOR3> >,0> >::~_Tree<std::_Tmap_traits<ioHashString,D3DXVECTOR3,std::less<ioHashString>,std::allocator<std::pair<ioHashString const ,D3DXVECTOR3> >,0> >, COMDAT
; _this$ = ecx

; 790  : 		{	// destroy tree

  00000	6a 08		 push	 8
  00002	b8 00 00 00 00	 mov	 eax, __ehhandler$??1?$_Tree@V?$_Tmap_traits@VioHashString@@UD3DXVECTOR3@@U?$less@VioHashString@@@std@@V?$allocator@U?$pair@$$CBVioHashString@@UD3DXVECTOR3@@@std@@@4@$0A@@std@@@std@@QAE@XZ
  00007	e8 00 00 00 00	 call	 __EH_prolog3
  0000c	8b f1		 mov	 esi, ecx
  0000e	89 75 f0	 mov	 DWORD PTR _this$[ebp], esi

; 791  : 		_Tidy();

  00011	8b 46 04	 mov	 eax, DWORD PTR [esi+4]
  00014	8b 08		 mov	 ecx, DWORD PTR [eax]
  00016	83 65 fc 00	 and	 DWORD PTR __$EHRec$[ebp+8], 0
  0001a	50		 push	 eax
  0001b	51		 push	 ecx
  0001c	8d 45 ec	 lea	 eax, DWORD PTR $T516875[ebp]
  0001f	50		 push	 eax
  00020	8b ce		 mov	 ecx, esi
  00022	e8 00 00 00 00	 call	 ?erase@?$_Tree@V?$_Tmap_traits@VioHashString@@UD3DXVECTOR3@@U?$less@VioHashString@@@std@@V?$allocator@U?$pair@$$CBVioHashString@@UD3DXVECTOR3@@@std@@@4@$0A@@std@@@std@@QAE?AV?$_Tree_iterator@V?$_Tree_val@V?$_Tmap_traits@VioHashString@@UD3DXVECTOR3@@U?$less@VioHashString@@@std@@V?$allocator@U?$pair@$$CBVioHashString@@UD3DXVECTOR3@@@std@@@4@$0A@@std@@@std@@@2@V?$_Tree_const_iterator@V?$_Tree_val@V?$_Tmap_traits@VioHashString@@UD3DXVECTOR3@@U?$less@VioHashString@@@std@@V?$allocator@U?$pair@$$CBVioHashString@@UD3DXVECTOR3@@@std@@@4@$0A@@std@@@std@@@2@0@Z ; std::_Tree<std::_Tmap_traits<ioHashString,D3DXVECTOR3,std::less<ioHashString>,std::allocator<std::pair<ioHashString const ,D3DXVECTOR3> >,0> >::erase

; 792  : 		}

  00027	ff 76 04	 push	 DWORD PTR [esi+4]
  0002a	e8 00 00 00 00	 call	 ??3@YAXPAX@Z		; operator delete
  0002f	59		 pop	 ecx
  00030	e8 00 00 00 00	 call	 __EH_epilog3
  00035	c3		 ret	 0
_TEXT	ENDS
;	COMDAT text$x
text$x	SEGMENT
__unwindfunclet$??1?$_Tree@V?$_Tmap_traits@VioHashString@@UD3DXVECTOR3@@U?$less@VioHashString@@@std@@V?$allocator@U?$pair@$$CBVioHashString@@UD3DXVECTOR3@@@std@@@4@$0A@@std@@@std@@QAE@XZ$0:
  00000	8b 4d f0	 mov	 ecx, DWORD PTR _this$[ebp]
  00003	e9 00 00 00 00	 jmp	 ??1?$_Tree_val@V?$_Tmap_traits@VioHashString@@UD3DXVECTOR3@@U?$less@VioHashString@@@std@@V?$allocator@U?$pair@$$CBVioHashString@@UD3DXVECTOR3@@@std@@@4@$0A@@std@@@std@@QAE@XZ ; std::_Tree_val<std::_Tmap_traits<ioHashString,D3DXVECTOR3,std::less<ioHashString>,std::allocator<std::pair<ioHashString const ,D3DXVECTOR3> >,0> >::~_Tree_val<std::_Tmap_traits<ioHashString,D3DXVECTOR3,std::less<ioHashString>,std::allocator<std::pair<ioHashString const ,D3DXVECTOR3> >,0> >
__ehhandler$??1?$_Tree@V?$_Tmap_traits@VioHashString@@UD3DXVECTOR3@@U?$less@VioHashString@@@std@@V?$allocator@U?$pair@$$CBVioHashString@@UD3DXVECTOR3@@@std@@@4@$0A@@std@@@std@@QAE@XZ:
  00008	8b 54 24 08	 mov	 edx, DWORD PTR [esp+8]
  0000c	8d 42 0c	 lea	 eax, DWORD PTR [edx+12]
  0000f	8b 4a e8	 mov	 ecx, DWORD PTR [edx-24]
  00012	33 c8		 xor	 ecx, eax
  00014	e8 00 00 00 00	 call	 @__security_check_cookie@4
  00019	b8 00 00 00 00	 mov	 eax, OFFSET __ehfuncinfo$??1?$_Tree@V?$_Tmap_traits@VioHashString@@UD3DXVECTOR3@@U?$less@VioHashString@@@std@@V?$allocator@U?$pair@$$CBVioHashString@@UD3DXVECTOR3@@@std@@@4@$0A@@std@@@std@@QAE@XZ
  0001e	e9 00 00 00 00	 jmp	 ___CxxFrameHandler3
text$x	ENDS
??1?$_Tree@V?$_Tmap_traits@VioHashString@@UD3DXVECTOR3@@U?$less@VioHashString@@@std@@V?$allocator@U?$pair@$$CBVioHashString@@UD3DXVECTOR3@@@std@@@4@$0A@@std@@@std@@QAE@XZ ENDP ; std::_Tree<std::_Tmap_traits<ioHashString,D3DXVECTOR3,std::less<ioHashString>,std::allocator<std::pair<ioHashString const ,D3DXVECTOR3> >,0> >::~_Tree<std::_Tmap_traits<ioHashString,D3DXVECTOR3,std::less<ioHashString>,std::allocator<std::pair<ioHashString const ,D3DXVECTOR3> >,0> >
PUBLIC	?erase@?$_Tree@V?$_Tmap_traits@VioHashString@@UD3DXVECTOR3@@U?$less@VioHashString@@@std@@V?$allocator@U?$pair@$$CBVioHashString@@UD3DXVECTOR3@@@std@@@4@$0A@@std@@@std@@QAEIABVioHashString@@@Z ; std::_Tree<std::_Tmap_traits<ioHashString,D3DXVECTOR3,std::less<ioHashString>,std::allocator<std::pair<ioHashString const ,D3DXVECTOR3> >,0> >::erase
; Function compile flags: /Ogsp
;	COMDAT ?erase@?$_Tree@V?$_Tmap_traits@VioHashString@@UD3DXVECTOR3@@U?$less@VioHashString@@@std@@V?$allocator@U?$pair@$$CBVioHashString@@UD3DXVECTOR3@@@std@@@4@$0A@@std@@@std@@QAEIABVioHashString@@@Z
_TEXT	SEGMENT
__Where$ = -8						; size = 8
$T516919 = -4						; size = 4
$T516931 = 8						; size = 1
__Num$ = 8						; size = 4
__Keyval$ = 8						; size = 4
?erase@?$_Tree@V?$_Tmap_traits@VioHashString@@UD3DXVECTOR3@@U?$less@VioHashString@@@std@@V?$allocator@U?$pair@$$CBVioHashString@@UD3DXVECTOR3@@@std@@@4@$0A@@std@@@std@@QAEIABVioHashString@@@Z PROC ; std::_Tree<std::_Tmap_traits<ioHashString,D3DXVECTOR3,std::less<ioHashString>,std::allocator<std::pair<ioHashString const ,D3DXVECTOR3> >,0> >::erase, COMDAT
; _this$ = ecx

; 1394 : 		{	// erase and count all that match _Keyval

  00000	55		 push	 ebp
  00001	8b ec		 mov	 ebp, esp
  00003	51		 push	 ecx
  00004	51		 push	 ecx
  00005	56		 push	 esi

; 1395 : 		_Pairii _Where = equal_range(_Keyval);

  00006	ff 75 08	 push	 DWORD PTR __Keyval$[ebp]
  00009	8d 45 f8	 lea	 eax, DWORD PTR __Where$[ebp]
  0000c	50		 push	 eax
  0000d	8b f1		 mov	 esi, ecx
  0000f	e8 00 00 00 00	 call	 ?_Eqrange@?$_Tree@V?$_Tmap_traits@VioHashString@@UD3DXVECTOR3@@U?$less@VioHashString@@@std@@V?$allocator@U?$pair@$$CBVioHashString@@UD3DXVECTOR3@@@std@@@4@$0A@@std@@@std@@IAE?AU?$pair@V?$_Tree_iterator@V?$_Tree_val@V?$_Tmap_traits@VioHashString@@UD3DXVECTOR3@@U?$less@VioHashString@@@std@@V?$allocator@U?$pair@$$CBVioHashString@@UD3DXVECTOR3@@@std@@@4@$0A@@std@@@std@@@std@@V12@@2@ABVioHashString@@@Z ; std::_Tree<std::_Tmap_traits<ioHashString,D3DXVECTOR3,std::less<ioHashString>,std::allocator<std::pair<ioHashString const ,D3DXVECTOR3> >,0> >::_Eqrange

; 1396 : 		size_type _Num = 0;

  00014	83 65 08 00	 and	 DWORD PTR __Num$[ebp], 0

; 1397 : 		_Distance(_Where.first, _Where.second, _Num);

  00018	ff 75 08	 push	 DWORD PTR $T516931[ebp]
  0001b	8d 45 08	 lea	 eax, DWORD PTR __Num$[ebp]
  0001e	50		 push	 eax
  0001f	ff 75 fc	 push	 DWORD PTR __Where$[ebp+4]
  00022	ff 75 f8	 push	 DWORD PTR __Where$[ebp]
  00025	e8 00 00 00 00	 call	 ??$_Distance2@V?$_Tree_iterator@V?$_Tree_val@V?$_Tmap_traits@VioHashString@@UD3DXVECTOR3@@U?$less@VioHashString@@@std@@V?$allocator@U?$pair@$$CBVioHashString@@UD3DXVECTOR3@@@std@@@4@$0A@@std@@@std@@@std@@I@std@@YAXV?$_Tree_iterator@V?$_Tree_val@V?$_Tmap_traits@VioHashString@@UD3DXVECTOR3@@U?$less@VioHashString@@@std@@V?$allocator@U?$pair@$$CBVioHashString@@UD3DXVECTOR3@@@std@@@4@$0A@@std@@@std@@@0@0AAIUbidirectional_iterator_tag@0@@Z ; std::_Distance2<std::_Tree_iterator<std::_Tree_val<std::_Tmap_traits<ioHashString,D3DXVECTOR3,std::less<ioHashString>,std::allocator<std::pair<ioHashString const ,D3DXVECTOR3> >,0> > >,unsigned int>
  0002a	83 c4 10	 add	 esp, 16			; 00000010H

; 1398 : 		erase(_Where.first, _Where.second);

  0002d	ff 75 fc	 push	 DWORD PTR __Where$[ebp+4]
  00030	8d 45 fc	 lea	 eax, DWORD PTR $T516919[ebp]
  00033	ff 75 f8	 push	 DWORD PTR __Where$[ebp]
  00036	8b ce		 mov	 ecx, esi
  00038	50		 push	 eax
  00039	e8 00 00 00 00	 call	 ?erase@?$_Tree@V?$_Tmap_traits@VioHashString@@UD3DXVECTOR3@@U?$less@VioHashString@@@std@@V?$allocator@U?$pair@$$CBVioHashString@@UD3DXVECTOR3@@@std@@@4@$0A@@std@@@std@@QAE?AV?$_Tree_iterator@V?$_Tree_val@V?$_Tmap_traits@VioHashString@@UD3DXVECTOR3@@U?$less@VioHashString@@@std@@V?$allocator@U?$pair@$$CBVioHashString@@UD3DXVECTOR3@@@std@@@4@$0A@@std@@@std@@@2@V?$_Tree_const_iterator@V?$_Tree_val@V?$_Tmap_traits@VioHashString@@UD3DXVECTOR3@@U?$less@VioHashString@@@std@@V?$allocator@U?$pair@$$CBVioHashString@@UD3DXVECTOR3@@@std@@@4@$0A@@std@@@std@@@2@0@Z ; std::_Tree<std::_Tmap_traits<ioHashString,D3DXVECTOR3,std::less<ioHashString>,std::allocator<std::pair<ioHashString const ,D3DXVECTOR3> >,0> >::erase

; 1399 : 		return (_Num);

  0003e	8b 45 08	 mov	 eax, DWORD PTR __Num$[ebp]
  00041	5e		 pop	 esi

; 1400 : 		}

  00042	c9		 leave
  00043	c2 04 00	 ret	 4
?erase@?$_Tree@V?$_Tmap_traits@VioHashString@@UD3DXVECTOR3@@U?$less@VioHashString@@@std@@V?$allocator@U?$pair@$$CBVioHashString@@UD3DXVECTOR3@@@std@@@4@$0A@@std@@@std@@QAEIABVioHashString@@@Z ENDP ; std::_Tree<std::_Tmap_traits<ioHashString,D3DXVECTOR3,std::less<ioHashString>,std::allocator<std::pair<ioHashString const ,D3DXVECTOR3> >,0> >::erase
_TEXT	ENDS
PUBLIC	?_Reserve@?$vector@UEntityGroupData@ioWorldMesh@@V?$allocator@UEntityGroupData@ioWorldMesh@@@std@@@std@@IAEXI@Z ; std::vector<ioWorldMesh::EntityGroupData,std::allocator<ioWorldMesh::EntityGroupData> >::_Reserve
; Function compile flags: /Ogsp
; File c:\program files (x86)\microsoft visual studio 10.0\vc\include\vector
;	COMDAT ?_Reserve@?$vector@UEntityGroupData@ioWorldMesh@@V?$allocator@UEntityGroupData@ioWorldMesh@@@std@@@std@@IAEXI@Z
_TEXT	SEGMENT
__Count$ = 8						; size = 4
?_Reserve@?$vector@UEntityGroupData@ioWorldMesh@@V?$allocator@UEntityGroupData@ioWorldMesh@@@std@@@std@@IAEXI@Z PROC ; std::vector<ioWorldMesh::EntityGroupData,std::allocator<ioWorldMesh::EntityGroupData> >::_Reserve, COMDAT
; _this$ = ecx

; 1290 : 		{	// ensure room for _Count new elements, grow exponentially

  00000	55		 push	 ebp
  00001	8b ec		 mov	 ebp, esp
  00003	56		 push	 esi
  00004	8b f1		 mov	 esi, ecx

; 1291 : 		size_type _Size = size();

  00006	8b 0e		 mov	 ecx, DWORD PTR [esi]
  00008	8b 46 04	 mov	 eax, DWORD PTR [esi+4]
  0000b	2b c1		 sub	 eax, ecx

; 1292 : 		if (max_size() - _Count < _Size)

  0000d	ba ff ff ff 1f	 mov	 edx, 536870911		; 1fffffffH
  00012	2b 55 08	 sub	 edx, DWORD PTR __Count$[ebp]
  00015	c1 f8 03	 sar	 eax, 3
  00018	3b d0		 cmp	 edx, eax
  0001a	73 0b		 jae	 SHORT $LN4@Reserve

; 1293 : 			_Xlen();

  0001c	68 00 00 00 00	 push	 OFFSET ??_C@_0BD@OLBABOEK@vector?$DMT?$DO?5too?5long?$AA@
  00021	ff 15 00 00 00
	00		 call	 DWORD PTR __imp_?_Xlength_error@std@@YAXPBD@Z
$LN21@Reserve:
$LN4@Reserve:

; 1294 : 		else if ((_Size += _Count) <= capacity())

  00027	8b 56 08	 mov	 edx, DWORD PTR [esi+8]
  0002a	03 45 08	 add	 eax, DWORD PTR __Count$[ebp]
  0002d	2b d1		 sub	 edx, ecx
  0002f	c1 fa 03	 sar	 edx, 3
  00032	3b c2		 cmp	 eax, edx
  00034	76 10		 jbe	 SHORT $LN1@Reserve

; 1295 : 			;
; 1296 : 		else
; 1297 : 			reserve(_Grow_to(_Size));

  00036	50		 push	 eax
  00037	8b ce		 mov	 ecx, esi
  00039	e8 00 00 00 00	 call	 ?_Grow_to@?$vector@UEntityGroupData@ioWorldMesh@@V?$allocator@UEntityGroupData@ioWorldMesh@@@std@@@std@@IBEII@Z ; std::vector<ioWorldMesh::EntityGroupData,std::allocator<ioWorldMesh::EntityGroupData> >::_Grow_to
  0003e	50		 push	 eax
  0003f	8b ce		 mov	 ecx, esi
  00041	e8 00 00 00 00	 call	 ?reserve@?$vector@UEntityGroupData@ioWorldMesh@@V?$allocator@UEntityGroupData@ioWorldMesh@@@std@@@std@@QAEXI@Z ; std::vector<ioWorldMesh::EntityGroupData,std::allocator<ioWorldMesh::EntityGroupData> >::reserve
$LN1@Reserve:
  00046	5e		 pop	 esi

; 1298 : 		}

  00047	5d		 pop	 ebp
  00048	c2 04 00	 ret	 4
$LN20@Reserve:
?_Reserve@?$vector@UEntityGroupData@ioWorldMesh@@V?$allocator@UEntityGroupData@ioWorldMesh@@@std@@@std@@IAEXI@Z ENDP ; std::vector<ioWorldMesh::EntityGroupData,std::allocator<ioWorldMesh::EntityGroupData> >::_Reserve
_TEXT	ENDS
PUBLIC	?reserve@?$vector@VioHashString@@V?$allocator@VioHashString@@@std@@@std@@QAEXI@Z ; std::vector<ioHashString,std::allocator<ioHashString> >::reserve
;	COMDAT xdata$x
; File c:\program files (x86)\microsoft visual studio 10.0\vc\include\xmemory
xdata$x	SEGMENT
__catchsym$?reserve@?$vector@VioHashString@@V?$allocator@VioHashString@@@std@@@std@@QAEXI@Z$2 DD 040H
	DD	00H
	DD	00H
	DD	FLAT:__catch$?reserve@?$vector@VioHashString@@V?$allocator@VioHashString@@@std@@@std@@QAEXI@Z$0
__unwindtable$?reserve@?$vector@VioHashString@@V?$allocator@VioHashString@@@std@@@std@@QAEXI@Z DD 0ffffffffH
	DD	00H
	DD	0ffffffffH
	DD	00H
__tryblocktable$?reserve@?$vector@VioHashString@@V?$allocator@VioHashString@@@std@@@std@@QAEXI@Z DD 00H
	DD	00H
	DD	01H
	DD	01H
	DD	FLAT:__catchsym$?reserve@?$vector@VioHashString@@V?$allocator@VioHashString@@@std@@@std@@QAEXI@Z$2
__ehfuncinfo$?reserve@?$vector@VioHashString@@V?$allocator@VioHashString@@@std@@@std@@QAEXI@Z DD 019930522H
	DD	02H
	DD	FLAT:__unwindtable$?reserve@?$vector@VioHashString@@V?$allocator@VioHashString@@@std@@@std@@QAEXI@Z
	DD	01H
	DD	FLAT:__tryblocktable$?reserve@?$vector@VioHashString@@V?$allocator@VioHashString@@@std@@@std@@QAEXI@Z
	DD	2 DUP(00H)
	DD	00H
	DD	01H
; Function compile flags: /Ogsp
; File c:\program files (x86)\microsoft visual studio 10.0\vc\include\vector
xdata$x	ENDS
;	COMDAT ?reserve@?$vector@VioHashString@@V?$allocator@VioHashString@@@std@@@std@@QAEXI@Z
_TEXT	SEGMENT
tv300 = -24						; size = 4
__Ptr$508382 = -20					; size = 4
__$EHRec$ = -16						; size = 16
$T517060 = 8						; size = 4
__Count$ = 8						; size = 4
?reserve@?$vector@VioHashString@@V?$allocator@VioHashString@@@std@@@std@@QAEXI@Z PROC ; std::vector<ioHashString,std::allocator<ioHashString> >::reserve, COMDAT
; _this$ = ecx

; 746  : 		{	// determine new minimum length of allocated storage

  00000	6a 0c		 push	 12			; 0000000cH
  00002	b8 00 00 00 00	 mov	 eax, __ehhandler$?reserve@?$vector@VioHashString@@V?$allocator@VioHashString@@@std@@@std@@QAEXI@Z
  00007	e8 00 00 00 00	 call	 __EH_prolog3_catch
  0000c	8b f1		 mov	 esi, ecx

; 747  : 		if (max_size() < _Count)

  0000e	8b 5d 08	 mov	 ebx, DWORD PTR __Count$[ebp]
  00011	81 fb ff ff ff
	0f		 cmp	 ebx, 268435455		; 0fffffffH
  00017	76 0b		 jbe	 SHORT $LN5@reserve@2

; 748  : 			_Xlen();	// result too long

  00019	68 00 00 00 00	 push	 OFFSET ??_C@_0BD@OLBABOEK@vector?$DMT?$DO?5too?5long?$AA@
  0001e	ff 15 00 00 00
	00		 call	 DWORD PTR __imp_?_Xlength_error@std@@YAXPBD@Z
$LN59@reserve@2:
$LN5@reserve@2:

; 749  : 		else if (capacity() < _Count)

  00024	8b 46 08	 mov	 eax, DWORD PTR [esi+8]
  00027	2b 06		 sub	 eax, DWORD PTR [esi]
  00029	c1 f8 04	 sar	 eax, 4
  0002c	3b c3		 cmp	 eax, ebx
  0002e	73 7a		 jae	 SHORT $LN3@reserve@2

; 750  : 			{	// not enough room, reallocate
; 751  : 			pointer _Ptr = this->_Alval.allocate(_Count);

  00030	6a 00		 push	 0
  00032	53		 push	 ebx
  00033	e8 00 00 00 00	 call	 ??$_Allocate@VioHashString@@@std@@YAPAVioHashString@@IPAV1@@Z ; std::_Allocate<ioHashString>

; 752  : 
; 753  : 			_TRY_BEGIN
; 754  : 			_Umove(this->_Myfirst, this->_Mylast, _Ptr);

  00038	8b 0e		 mov	 ecx, DWORD PTR [esi]
  0003a	83 65 fc 00	 and	 DWORD PTR __$EHRec$[ebp+12], 0
  0003e	8d 56 0c	 lea	 edx, DWORD PTR [esi+12]
  00041	52		 push	 edx
  00042	89 45 ec	 mov	 DWORD PTR __Ptr$508382[ebp], eax
  00045	ff 75 ec	 push	 DWORD PTR __Ptr$508382[ebp]
  00048	8b 46 04	 mov	 eax, DWORD PTR [esi+4]
  0004b	50		 push	 eax
  0004c	51		 push	 ecx
  0004d	e8 00 00 00 00	 call	 ??$_Uninitialized_move@PAVioHashString@@PAV1@V?$allocator@VioHashString@@@std@@@std@@YAPAVioHashString@@PAV1@00AAV?$allocator@VioHashString@@@0@@Z ; std::_Uninitialized_move<ioHashString *,ioHashString *,std::allocator<ioHashString> >

; 758  : 			_CATCH_END
; 759  : 
; 760  : 			size_type _Size = size();

  00052	8b 4e 04	 mov	 ecx, DWORD PTR [esi+4]
  00055	8b 06		 mov	 eax, DWORD PTR [esi]
  00057	83 4d fc ff	 or	 DWORD PTR __$EHRec$[ebp+12], -1
  0005b	8b f9		 mov	 edi, ecx
  0005d	83 c4 18	 add	 esp, 24			; 00000018H
  00060	2b f8		 sub	 edi, eax
  00062	89 4d e8	 mov	 DWORD PTR tv300[ebp], ecx
  00065	85 c0		 test	 eax, eax
  00067	74 24		 je	 SHORT $LN51@reserve@2

; 761  : 			if (this->_Myfirst != 0)
; 762  : 				{	// destroy and deallocate old array
; 763  : 				_Destroy(this->_Myfirst, this->_Mylast);

  00069	89 45 08	 mov	 DWORD PTR $T517060[ebp], eax
  0006c	3b c1		 cmp	 eax, ecx
  0006e	74 15		 je	 SHORT $LN37@reserve@2
$LN39@reserve@2:
  00070	8b 4d 08	 mov	 ecx, DWORD PTR $T517060[ebp]
  00073	ff 15 00 00 00
	00		 call	 DWORD PTR __imp_??1ioHashString@@QAE@XZ
  00079	83 45 08 10	 add	 DWORD PTR $T517060[ebp], 16 ; 00000010H
  0007d	8b 45 08	 mov	 eax, DWORD PTR $T517060[ebp]
  00080	3b 45 e8	 cmp	 eax, DWORD PTR tv300[ebp]
  00083	75 eb		 jne	 SHORT $LN39@reserve@2
$LN37@reserve@2:

; 764  : 				this->_Alval.deallocate(this->_Myfirst,
; 765  : 					this->_Myend - this->_Myfirst);

  00085	ff 36		 push	 DWORD PTR [esi]
  00087	e8 00 00 00 00	 call	 ??3@YAXPAX@Z		; operator delete
  0008c	59		 pop	 ecx
$LN51@reserve@2:

; 766  : 				}
; 767  : 
; 768  : 			this->_Orphan_all();

  0008d	8b ce		 mov	 ecx, esi
  0008f	ff 15 00 00 00
	00		 call	 DWORD PTR __imp_?_Orphan_all@_Container_base0@std@@QAEXXZ

; 769  : 			this->_Myend = _Ptr + _Count;

  00095	8b 45 ec	 mov	 eax, DWORD PTR __Ptr$508382[ebp]
  00098	c1 e3 04	 shl	 ebx, 4
  0009b	03 d8		 add	 ebx, eax

; 770  : 			this->_Mylast = _Ptr + _Size;

  0009d	83 e7 f0	 and	 edi, -16		; fffffff0H
  000a0	03 f8		 add	 edi, eax
  000a2	89 5e 08	 mov	 DWORD PTR [esi+8], ebx
  000a5	89 7e 04	 mov	 DWORD PTR [esi+4], edi

; 771  : 			this->_Myfirst = _Ptr;

  000a8	89 06		 mov	 DWORD PTR [esi], eax
$LN3@reserve@2:

; 772  : 			}
; 773  : 		}

  000aa	e8 00 00 00 00	 call	 __EH_epilog3
  000af	c2 04 00	 ret	 4
__catch$?reserve@?$vector@VioHashString@@V?$allocator@VioHashString@@@std@@@std@@QAEXI@Z$0:

; 755  : 			_CATCH_ALL
; 756  : 			this->_Alval.deallocate(_Ptr, _Count);

  000b2	ff 75 ec	 push	 DWORD PTR __Ptr$508382[ebp]
  000b5	e8 00 00 00 00	 call	 ??3@YAXPAX@Z		; operator delete
  000ba	59		 pop	 ecx

; 757  : 			_RERAISE;

  000bb	6a 00		 push	 0
  000bd	6a 00		 push	 0
  000bf	e8 00 00 00 00	 call	 __CxxThrowException@8
$LN60@reserve@2:
$LN58@reserve@2:
  000c4	cc		 int	 3
_TEXT	ENDS
;	COMDAT text$x
text$x	SEGMENT
__ehhandler$?reserve@?$vector@VioHashString@@V?$allocator@VioHashString@@@std@@@std@@QAEXI@Z:
  00000	8b 54 24 08	 mov	 edx, DWORD PTR [esp+8]
  00004	8d 42 0c	 lea	 eax, DWORD PTR [edx+12]
  00007	8b 4a e4	 mov	 ecx, DWORD PTR [edx-28]
  0000a	33 c8		 xor	 ecx, eax
  0000c	e8 00 00 00 00	 call	 @__security_check_cookie@4
  00011	b8 00 00 00 00	 mov	 eax, OFFSET __ehfuncinfo$?reserve@?$vector@VioHashString@@V?$allocator@VioHashString@@@std@@@std@@QAEXI@Z
  00016	e9 00 00 00 00	 jmp	 ___CxxFrameHandler3
text$x	ENDS
?reserve@?$vector@VioHashString@@V?$allocator@VioHashString@@@std@@@std@@QAEXI@Z ENDP ; std::vector<ioHashString,std::allocator<ioHashString> >::reserve
PUBLIC	??$insert@U?$pair@$$CBVioHashString@@UD3DXVECTOR3@@@std@@@?$_Tree@V?$_Tmap_traits@VioHashString@@UD3DXVECTOR3@@U?$less@VioHashString@@@std@@V?$allocator@U?$pair@$$CBVioHashString@@UD3DXVECTOR3@@@std@@@4@$0A@@std@@@std@@QAE?AV?$_Tree_iterator@V?$_Tree_val@V?$_Tmap_traits@VioHashString@@UD3DXVECTOR3@@U?$less@VioHashString@@@std@@V?$allocator@U?$pair@$$CBVioHashString@@UD3DXVECTOR3@@@std@@@4@$0A@@std@@@std@@@1@V?$_Tree_const_iterator@V?$_Tree_val@V?$_Tmap_traits@VioHashString@@UD3DXVECTOR3@@U?$less@VioHashString@@@std@@V?$allocator@U?$pair@$$CBVioHashString@@UD3DXVECTOR3@@@std@@@4@$0A@@std@@@std@@@1@$$QAU?$pair@$$CBVioHashString@@UD3DXVECTOR3@@@1@@Z ; std::_Tree<std::_Tmap_traits<ioHashString,D3DXVECTOR3,std::less<ioHashString>,std::allocator<std::pair<ioHashString const ,D3DXVECTOR3> >,0> >::insert<std::pair<ioHashString const ,D3DXVECTOR3> >
; Function compile flags: /Ogsp
; File c:\program files (x86)\microsoft visual studio 10.0\vc\include\xtree
;	COMDAT ??$insert@U?$pair@$$CBVioHashString@@UD3DXVECTOR3@@@std@@@?$_Tree@V?$_Tmap_traits@VioHashString@@UD3DXVECTOR3@@U?$less@VioHashString@@@std@@V?$allocator@U?$pair@$$CBVioHashString@@UD3DXVECTOR3@@@std@@@4@$0A@@std@@@std@@QAE?AV?$_Tree_iterator@V?$_Tree_val@V?$_Tmap_traits@VioHashString@@UD3DXVECTOR3@@U?$less@VioHashString@@@std@@V?$allocator@U?$pair@$$CBVioHashString@@UD3DXVECTOR3@@@std@@@4@$0A@@std@@@std@@@1@V?$_Tree_const_iterator@V?$_Tree_val@V?$_Tmap_traits@VioHashString@@UD3DXVECTOR3@@U?$less@VioHashString@@@std@@V?$allocator@U?$pair@$$CBVioHashString@@UD3DXVECTOR3@@@std@@@4@$0A@@std@@@std@@@1@$$QAU?$pair@$$CBVioHashString@@UD3DXVECTOR3@@@1@@Z
_TEXT	SEGMENT
___$ReturnUdt$ = 8					; size = 4
__Where$ = 12						; size = 4
__Val$ = 16						; size = 4
??$insert@U?$pair@$$CBVioHashString@@UD3DXVECTOR3@@@std@@@?$_Tree@V?$_Tmap_traits@VioHashString@@UD3DXVECTOR3@@U?$less@VioHashString@@@std@@V?$allocator@U?$pair@$$CBVioHashString@@UD3DXVECTOR3@@@std@@@4@$0A@@std@@@std@@QAE?AV?$_Tree_iterator@V?$_Tree_val@V?$_Tmap_traits@VioHashString@@UD3DXVECTOR3@@U?$less@VioHashString@@@std@@V?$allocator@U?$pair@$$CBVioHashString@@UD3DXVECTOR3@@@std@@@4@$0A@@std@@@std@@@1@V?$_Tree_const_iterator@V?$_Tree_val@V?$_Tmap_traits@VioHashString@@UD3DXVECTOR3@@U?$less@VioHashString@@@std@@V?$allocator@U?$pair@$$CBVioHashString@@UD3DXVECTOR3@@@std@@@4@$0A@@std@@@std@@@1@$$QAU?$pair@$$CBVioHashString@@UD3DXVECTOR3@@@1@@Z PROC ; std::_Tree<std::_Tmap_traits<ioHashString,D3DXVECTOR3,std::less<ioHashString>,std::allocator<std::pair<ioHashString const ,D3DXVECTOR3> >,0> >::insert<std::pair<ioHashString const ,D3DXVECTOR3> >, COMDAT
; _this$ = ecx

; 760  : 		typename _STD tr1::enable_if<!_STD tr1::is_same<const_iterator,

  00000	55		 push	 ebp
  00001	8b ec		 mov	 ebp, esp
  00003	56		 push	 esi

; 761  : 			typename _STD tr1::remove_reference<_Valty>::type>::value,
; 762  : 				iterator>::type
; 763  : 		insert(const_iterator _Where,
; 764  : 			_Valty&& _Val)
; 765  : 		{	// try to insert node with value _Val using _Where as a hint
; 766  : 		return (_Insert(_Where,
; 767  : 			this->_Buynode(_STD forward<_Valty>(_Val))));

  00004	ff 75 10	 push	 DWORD PTR __Val$[ebp]
  00007	8b f1		 mov	 esi, ecx
  00009	e8 00 00 00 00	 call	 ??$_Buynode@U?$pair@$$CBVioHashString@@UD3DXVECTOR3@@@std@@@?$_Tree_val@V?$_Tmap_traits@VioHashString@@UD3DXVECTOR3@@U?$less@VioHashString@@@std@@V?$allocator@U?$pair@$$CBVioHashString@@UD3DXVECTOR3@@@std@@@4@$0A@@std@@@std@@QAEPAU_Node@?$_Tree_nod@V?$_Tmap_traits@VioHashString@@UD3DXVECTOR3@@U?$less@VioHashString@@@std@@V?$allocator@U?$pair@$$CBVioHashString@@UD3DXVECTOR3@@@std@@@4@$0A@@std@@@1@$$QAU?$pair@$$CBVioHashString@@UD3DXVECTOR3@@@1@@Z ; std::_Tree_val<std::_Tmap_traits<ioHashString,D3DXVECTOR3,std::less<ioHashString>,std::allocator<std::pair<ioHashString const ,D3DXVECTOR3> >,0> >::_Buynode<std::pair<ioHashString const ,D3DXVECTOR3> >
  0000e	50		 push	 eax
  0000f	ff 75 0c	 push	 DWORD PTR __Where$[ebp]
  00012	8b ce		 mov	 ecx, esi
  00014	ff 75 08	 push	 DWORD PTR ___$ReturnUdt$[ebp]
  00017	e8 00 00 00 00	 call	 ?_Insert@?$_Tree@V?$_Tmap_traits@VioHashString@@UD3DXVECTOR3@@U?$less@VioHashString@@@std@@V?$allocator@U?$pair@$$CBVioHashString@@UD3DXVECTOR3@@@std@@@4@$0A@@std@@@std@@QAE?AV?$_Tree_iterator@V?$_Tree_val@V?$_Tmap_traits@VioHashString@@UD3DXVECTOR3@@U?$less@VioHashString@@@std@@V?$allocator@U?$pair@$$CBVioHashString@@UD3DXVECTOR3@@@std@@@4@$0A@@std@@@std@@@2@V?$_Tree_const_iterator@V?$_Tree_val@V?$_Tmap_traits@VioHashString@@UD3DXVECTOR3@@U?$less@VioHashString@@@std@@V?$allocator@U?$pair@$$CBVioHashString@@UD3DXVECTOR3@@@std@@@4@$0A@@std@@@std@@@2@PAU_Node@?$_Tree_nod@V?$_Tmap_traits@VioHashString@@UD3DXVECTOR3@@U?$less@VioHashString@@@std@@V?$allocator@U?$pair@$$CBVioHashString@@UD3DXVECTOR3@@@std@@@4@$0A@@std@@@2@@Z ; std::_Tree<std::_Tmap_traits<ioHashString,D3DXVECTOR3,std::less<ioHashString>,std::allocator<std::pair<ioHashString const ,D3DXVECTOR3> >,0> >::_Insert
  0001c	8b 45 08	 mov	 eax, DWORD PTR ___$ReturnUdt$[ebp]
  0001f	5e		 pop	 esi

; 768  : 		}

  00020	5d		 pop	 ebp
  00021	c2 0c 00	 ret	 12			; 0000000cH
??$insert@U?$pair@$$CBVioHashString@@UD3DXVECTOR3@@@std@@@?$_Tree@V?$_Tmap_traits@VioHashString@@UD3DXVECTOR3@@U?$less@VioHashString@@@std@@V?$allocator@U?$pair@$$CBVioHashString@@UD3DXVECTOR3@@@std@@@4@$0A@@std@@@std@@QAE?AV?$_Tree_iterator@V?$_Tree_val@V?$_Tmap_traits@VioHashString@@UD3DXVECTOR3@@U?$less@VioHashString@@@std@@V?$allocator@U?$pair@$$CBVioHashString@@UD3DXVECTOR3@@@std@@@4@$0A@@std@@@std@@@1@V?$_Tree_const_iterator@V?$_Tree_val@V?$_Tmap_traits@VioHashString@@UD3DXVECTOR3@@U?$less@VioHashString@@@std@@V?$allocator@U?$pair@$$CBVioHashString@@UD3DXVECTOR3@@@std@@@4@$0A@@std@@@std@@@1@$$QAU?$pair@$$CBVioHashString@@UD3DXVECTOR3@@@1@@Z ENDP ; std::_Tree<std::_Tmap_traits<ioHashString,D3DXVECTOR3,std::less<ioHashString>,std::allocator<std::pair<ioHashString const ,D3DXVECTOR3> >,0> >::insert<std::pair<ioHashString const ,D3DXVECTOR3> >
_TEXT	ENDS
PUBLIC	?erase@?$vector@VioHashString@@V?$allocator@VioHashString@@@std@@@std@@QAE?AV?$_Vector_iterator@V?$_Vector_val@VioHashString@@V?$allocator@VioHashString@@@std@@@std@@@2@V?$_Vector_const_iterator@V?$_Vector_val@VioHashString@@V?$allocator@VioHashString@@@std@@@std@@@2@0@Z ; std::vector<ioHashString,std::allocator<ioHashString> >::erase
; Function compile flags: /Ogsp
; File c:\program files (x86)\microsoft visual studio 10.0\vc\include\vector
;	COMDAT ?erase@?$vector@VioHashString@@V?$allocator@VioHashString@@@std@@@std@@QAE?AV?$_Vector_iterator@V?$_Vector_val@VioHashString@@V?$allocator@VioHashString@@@std@@@std@@@2@V?$_Vector_const_iterator@V?$_Vector_val@VioHashString@@V?$allocator@VioHashString@@@std@@@std@@@2@0@Z
_TEXT	SEGMENT
$T517260 = -4						; size = 4
___$ReturnUdt$ = 8					; size = 4
__First_arg$ = 12					; size = 4
__Cat$517205 = 16					; size = 1
__Last_arg$ = 16					; size = 4
?erase@?$vector@VioHashString@@V?$allocator@VioHashString@@@std@@@std@@QAE?AV?$_Vector_iterator@V?$_Vector_val@VioHashString@@V?$allocator@VioHashString@@@std@@@std@@@2@V?$_Vector_const_iterator@V?$_Vector_val@VioHashString@@V?$allocator@VioHashString@@@std@@@std@@@2@0@Z PROC ; std::vector<ioHashString,std::allocator<ioHashString> >::erase, COMDAT
; _this$ = ecx

; 1190 : 		{	// erase [_First, _Last)

  00000	55		 push	 ebp
  00001	8b ec		 mov	 ebp, esp
  00003	51		 push	 ecx

; 1191 : 		iterator _First = _Make_iter(_First_arg);

  00004	8b 45 08	 mov	 eax, DWORD PTR ___$ReturnUdt$[ebp]
  00007	56		 push	 esi
  00008	8b f1		 mov	 esi, ecx
  0000a	8b 4d 0c	 mov	 ecx, DWORD PTR __First_arg$[ebp]
  0000d	89 08		 mov	 DWORD PTR [eax], ecx

; 1192 : 		iterator _Last = _Make_iter(_Last_arg);
; 1193 : 
; 1194 : 		if (_First != _Last)

  0000f	3b 4d 10	 cmp	 ecx, DWORD PTR __Last_arg$[ebp]
  00012	74 38		 je	 SHORT $LN1@erase@4

; 1195 : 			{	// worth doing, copy down over hole
; 1196 :  #if _ITERATOR_DEBUG_LEVEL == 2
; 1197 : 			if (_Last < _First || _VICONT(_First) != this
; 1198 : 				|| _VIPTR(_First) < this->_Myfirst
; 1199 : 				|| this->_Mylast < _VIPTR(_Last))
; 1200 : 				_DEBUG_ERROR("vector erase iterator outside range");
; 1201 : 			pointer _Ptr = _Move(_VIPTR(_Last), this->_Mylast,
; 1202 : 				_VIPTR(_First));
; 1203 : 			_Orphan_range(_VIPTR(_First), this->_Mylast);
; 1204 : 
; 1205 :  #else /* _ITERATOR_DEBUG_LEVEL == 2 */
; 1206 : 			pointer _Ptr = _Move(_VIPTR(_Last), this->_Mylast,
; 1207 : 				_VIPTR(_First));

  00014	8b 46 04	 mov	 eax, DWORD PTR [esi+4]
  00017	53		 push	 ebx
  00018	57		 push	 edi
  00019	ff 75 10	 push	 DWORD PTR __Cat$517205[ebp]
  0001c	51		 push	 ecx
  0001d	50		 push	 eax
  0001e	ff 75 10	 push	 DWORD PTR __Last_arg$[ebp]
  00021	e8 00 00 00 00	 call	 ??$_Move@PAVioHashString@@PAV1@@std@@YAPAVioHashString@@PAV1@00U_Nonscalar_ptr_iterator_tag@0@@Z ; std::_Move<ioHashString *,ioHashString *>

; 1208 :  #endif /* _ITERATOR_DEBUG_LEVEL == 2 */
; 1209 : 
; 1210 : 			_Destroy(_Ptr, this->_Mylast);

  00026	8b 7e 04	 mov	 edi, DWORD PTR [esi+4]
  00029	8b d8		 mov	 ebx, eax
  0002b	83 c4 10	 add	 esp, 16			; 00000010H
  0002e	89 5d fc	 mov	 DWORD PTR $T517260[ebp], ebx
  00031	3b df		 cmp	 ebx, edi
  00033	74 12		 je	 SHORT $LN36@erase@4
$LL52@erase@4:
  00035	8b 4d fc	 mov	 ecx, DWORD PTR $T517260[ebp]
  00038	ff 15 00 00 00
	00		 call	 DWORD PTR __imp_??1ioHashString@@QAE@XZ
  0003e	83 45 fc 10	 add	 DWORD PTR $T517260[ebp], 16 ; 00000010H
  00042	39 7d fc	 cmp	 DWORD PTR $T517260[ebp], edi
  00045	75 ee		 jne	 SHORT $LL52@erase@4
$LN36@erase@4:

; 1211 : 			this->_Mylast = _Ptr;

  00047	5f		 pop	 edi
  00048	89 5e 04	 mov	 DWORD PTR [esi+4], ebx
  0004b	5b		 pop	 ebx
$LN1@erase@4:

; 1212 : 			}
; 1213 : 		return (_First);

  0004c	8b 45 08	 mov	 eax, DWORD PTR ___$ReturnUdt$[ebp]
  0004f	5e		 pop	 esi

; 1214 : 		}

  00050	c9		 leave
  00051	c2 0c 00	 ret	 12			; 0000000cH
?erase@?$vector@VioHashString@@V?$allocator@VioHashString@@@std@@@std@@QAE?AV?$_Vector_iterator@V?$_Vector_val@VioHashString@@V?$allocator@VioHashString@@@std@@@std@@@2@V?$_Vector_const_iterator@V?$_Vector_val@VioHashString@@V?$allocator@VioHashString@@@std@@@std@@@2@0@Z ENDP ; std::vector<ioHashString,std::allocator<ioHashString> >::erase
_TEXT	ENDS
PUBLIC	?_Tidy@?$vector@VioHashString@@V?$allocator@VioHashString@@@std@@@std@@IAEXXZ ; std::vector<ioHashString,std::allocator<ioHashString> >::_Tidy
; Function compile flags: /Ogsp
;	COMDAT ?_Tidy@?$vector@VioHashString@@V?$allocator@VioHashString@@@std@@@std@@IAEXXZ
_TEXT	SEGMENT
?_Tidy@?$vector@VioHashString@@V?$allocator@VioHashString@@@std@@@std@@IAEXXZ PROC ; std::vector<ioHashString,std::allocator<ioHashString> >::_Tidy, COMDAT
; _this$ = ecx

; 1301 : 		{	// free all storage

  00000	56		 push	 esi
  00001	8b f1		 mov	 esi, ecx

; 1302 : 		if (this->_Myfirst != 0)

  00003	83 3e 00	 cmp	 DWORD PTR [esi], 0
  00006	74 28		 je	 SHORT $LN24@Tidy@2

; 1303 : 			{	// something to free, destroy and deallocate it
; 1304 : 			this->_Orphan_all();

  00008	53		 push	 ebx
  00009	57		 push	 edi
  0000a	ff 15 00 00 00
	00		 call	 DWORD PTR __imp_?_Orphan_all@_Container_base0@std@@QAEXXZ

; 1305 : 			_Destroy(this->_Myfirst, this->_Mylast);

  00010	8b 5e 04	 mov	 ebx, DWORD PTR [esi+4]
  00013	8b 3e		 mov	 edi, DWORD PTR [esi]
  00015	eb 0b		 jmp	 SHORT $LN28@Tidy@2
$LL12@Tidy@2:
  00017	8b cf		 mov	 ecx, edi
  00019	ff 15 00 00 00
	00		 call	 DWORD PTR __imp_??1ioHashString@@QAE@XZ
  0001f	83 c7 10	 add	 edi, 16			; 00000010H
$LN28@Tidy@2:
  00022	3b fb		 cmp	 edi, ebx
  00024	75 f1		 jne	 SHORT $LL12@Tidy@2

; 1306 : 			this->_Alval.deallocate(this->_Myfirst,
; 1307 : 				this->_Myend - this->_Myfirst);

  00026	ff 36		 push	 DWORD PTR [esi]
  00028	e8 00 00 00 00	 call	 ??3@YAXPAX@Z		; operator delete
  0002d	59		 pop	 ecx
  0002e	5f		 pop	 edi
  0002f	5b		 pop	 ebx
$LN24@Tidy@2:

; 1308 : 			}
; 1309 : 		this->_Myfirst = 0;

  00030	33 c0		 xor	 eax, eax
  00032	89 06		 mov	 DWORD PTR [esi], eax

; 1310 : 		this->_Mylast = 0;

  00034	89 46 04	 mov	 DWORD PTR [esi+4], eax

; 1311 : 		this->_Myend = 0;

  00037	89 46 08	 mov	 DWORD PTR [esi+8], eax
  0003a	5e		 pop	 esi

; 1312 : 		}

  0003b	c3		 ret	 0
?_Tidy@?$vector@VioHashString@@V?$allocator@VioHashString@@@std@@@std@@IAEXXZ ENDP ; std::vector<ioHashString,std::allocator<ioHashString> >::_Tidy
_TEXT	ENDS
PUBLIC	??1?$map@VioHashString@@UD3DXVECTOR3@@U?$less@VioHashString@@@std@@V?$allocator@U?$pair@$$CBVioHashString@@UD3DXVECTOR3@@@std@@@4@@std@@QAE@XZ ; std::map<ioHashString,D3DXVECTOR3,std::less<ioHashString>,std::allocator<std::pair<ioHashString const ,D3DXVECTOR3> > >::~map<ioHashString,D3DXVECTOR3,std::less<ioHashString>,std::allocator<std::pair<ioHashString const ,D3DXVECTOR3> > >
; Function compile flags: /Ogsp
;	COMDAT ??1?$map@VioHashString@@UD3DXVECTOR3@@U?$less@VioHashString@@@std@@V?$allocator@U?$pair@$$CBVioHashString@@UD3DXVECTOR3@@@std@@@4@@std@@QAE@XZ
_TEXT	SEGMENT
??1?$map@VioHashString@@UD3DXVECTOR3@@U?$less@VioHashString@@@std@@V?$allocator@U?$pair@$$CBVioHashString@@UD3DXVECTOR3@@@std@@@4@@std@@QAE@XZ PROC ; std::map<ioHashString,D3DXVECTOR3,std::less<ioHashString>,std::allocator<std::pair<ioHashString const ,D3DXVECTOR3> > >::~map<ioHashString,D3DXVECTOR3,std::less<ioHashString>,std::allocator<std::pair<ioHashString const ,D3DXVECTOR3> > >, COMDAT
; _this$ = ecx
  00000	e9 00 00 00 00	 jmp	 ??1?$_Tree@V?$_Tmap_traits@VioHashString@@UD3DXVECTOR3@@U?$less@VioHashString@@@std@@V?$allocator@U?$pair@$$CBVioHashString@@UD3DXVECTOR3@@@std@@@4@$0A@@std@@@std@@QAE@XZ ; std::_Tree<std::_Tmap_traits<ioHashString,D3DXVECTOR3,std::less<ioHashString>,std::allocator<std::pair<ioHashString const ,D3DXVECTOR3> >,0> >::~_Tree<std::_Tmap_traits<ioHashString,D3DXVECTOR3,std::less<ioHashString>,std::allocator<std::pair<ioHashString const ,D3DXVECTOR3> >,0> >
??1?$map@VioHashString@@UD3DXVECTOR3@@U?$less@VioHashString@@@std@@V?$allocator@U?$pair@$$CBVioHashString@@UD3DXVECTOR3@@@std@@@4@@std@@QAE@XZ ENDP ; std::map<ioHashString,D3DXVECTOR3,std::less<ioHashString>,std::allocator<std::pair<ioHashString const ,D3DXVECTOR3> > >::~map<ioHashString,D3DXVECTOR3,std::less<ioHashString>,std::allocator<std::pair<ioHashString const ,D3DXVECTOR3> > >
_TEXT	ENDS
PUBLIC	?DestroyLightDecal@ioWorldMesh@@QAEXHABVioHashString@@@Z ; ioWorldMesh::DestroyLightDecal
EXTRN	__imp_?DestroyDecal@ioEntityGroup@@QAEXABVioHashString@@@Z:PROC
; Function compile flags: /Ogsp
; File d:\lost saga for developer\youtube\tutorial\source\src\lsclient\ioworldmesh.cpp
;	COMDAT ?DestroyLightDecal@ioWorldMesh@@QAEXHABVioHashString@@@Z
_TEXT	SEGMENT
_iMapIndex$ = 8						; size = 4
_rkName$ = 12						; size = 4
?DestroyLightDecal@ioWorldMesh@@QAEXHABVioHashString@@@Z PROC ; ioWorldMesh::DestroyLightDecal, COMDAT
; _this$ = ecx

; 383  : {

  00000	55		 push	 ebp
  00001	8b ec		 mov	 ebp, esp
  00003	56		 push	 esi

; 384  : 	ioEntityGroup *pGroup = GetEntityGroup( iMapIndex );

  00004	ff 75 08	 push	 DWORD PTR _iMapIndex$[ebp]
  00007	8b f1		 mov	 esi, ecx
  00009	e8 00 00 00 00	 call	 ?GetEntityGroup@ioWorldMesh@@IAEPAVioEntityGroup@@H@Z ; ioWorldMesh::GetEntityGroup

; 385  : 	if( pGroup )

  0000e	85 c0		 test	 eax, eax
  00010	74 16		 je	 SHORT $LN1@DestroyLig

; 386  : 	{
; 387  : 		pGroup->DestroyDecal( rkName );

  00012	ff 75 0c	 push	 DWORD PTR _rkName$[ebp]
  00015	8b c8		 mov	 ecx, eax
  00017	ff 15 00 00 00
	00		 call	 DWORD PTR __imp_?DestroyDecal@ioEntityGroup@@QAEXABVioHashString@@@Z

; 388  : 		m_DecalLightMap.erase( rkName );

  0001d	ff 75 0c	 push	 DWORD PTR _rkName$[ebp]
  00020	8d 4e 28	 lea	 ecx, DWORD PTR [esi+40]
  00023	e8 00 00 00 00	 call	 ?erase@?$_Tree@V?$_Tmap_traits@VioHashString@@UD3DXVECTOR3@@U?$less@VioHashString@@@std@@V?$allocator@U?$pair@$$CBVioHashString@@UD3DXVECTOR3@@@std@@@4@$0A@@std@@@std@@QAEIABVioHashString@@@Z ; std::_Tree<std::_Tmap_traits<ioHashString,D3DXVECTOR3,std::less<ioHashString>,std::allocator<std::pair<ioHashString const ,D3DXVECTOR3> >,0> >::erase
$LN1@DestroyLig:
  00028	5e		 pop	 esi

; 389  : 	}
; 390  : }

  00029	5d		 pop	 ebp
  0002a	c2 08 00	 ret	 8
?DestroyLightDecal@ioWorldMesh@@QAEXHABVioHashString@@@Z ENDP ; ioWorldMesh::DestroyLightDecal
_TEXT	ENDS
PUBLIC	?push_back@?$vector@UEntityGroupData@ioWorldMesh@@V?$allocator@UEntityGroupData@ioWorldMesh@@@std@@@std@@QAEXABUEntityGroupData@ioWorldMesh@@@Z ; std::vector<ioWorldMesh::EntityGroupData,std::allocator<ioWorldMesh::EntityGroupData> >::push_back
; Function compile flags: /Ogsp
; File c:\program files (x86)\microsoft visual studio 10.0\vc\include\vector
;	COMDAT ?push_back@?$vector@UEntityGroupData@ioWorldMesh@@V?$allocator@UEntityGroupData@ioWorldMesh@@@std@@@std@@QAEXABUEntityGroupData@ioWorldMesh@@@Z
_TEXT	SEGMENT
__Val$ = 8						; size = 4
?push_back@?$vector@UEntityGroupData@ioWorldMesh@@V?$allocator@UEntityGroupData@ioWorldMesh@@@std@@@std@@QAEXABUEntityGroupData@ioWorldMesh@@@Z PROC ; std::vector<ioWorldMesh::EntityGroupData,std::allocator<ioWorldMesh::EntityGroupData> >::push_back, COMDAT
; _this$ = ecx

; 976  : 		{	// insert element at end

  00000	55		 push	 ebp
  00001	8b ec		 mov	 ebp, esp
  00003	56		 push	 esi
  00004	8b f1		 mov	 esi, ecx

; 977  : 		if (_Inside(_STD addressof(_Val)))

  00006	8b 46 04	 mov	 eax, DWORD PTR [esi+4]
  00009	57		 push	 edi
  0000a	8b 7d 08	 mov	 edi, DWORD PTR __Val$[ebp]
  0000d	3b f8		 cmp	 edi, eax
  0000f	73 2d		 jae	 SHORT $LN4@push_back
  00011	8b 0e		 mov	 ecx, DWORD PTR [esi]
  00013	3b cf		 cmp	 ecx, edi
  00015	77 27		 ja	 SHORT $LN4@push_back

; 978  : 			{	// push back an element
; 979  : 			size_type _Idx = _STD addressof(_Val) - this->_Myfirst;

  00017	2b f9		 sub	 edi, ecx
  00019	c1 ff 03	 sar	 edi, 3

; 980  : 			if (this->_Mylast == this->_Myend)

  0001c	3b 46 08	 cmp	 eax, DWORD PTR [esi+8]
  0001f	75 09		 jne	 SHORT $LN3@push_back

; 981  : 				_Reserve(1);

  00021	6a 01		 push	 1
  00023	8b ce		 mov	 ecx, esi
  00025	e8 00 00 00 00	 call	 ?_Reserve@?$vector@UEntityGroupData@ioWorldMesh@@V?$allocator@UEntityGroupData@ioWorldMesh@@@std@@@std@@IAEXI@Z ; std::vector<ioWorldMesh::EntityGroupData,std::allocator<ioWorldMesh::EntityGroupData> >::_Reserve
$LN3@push_back:

; 982  : 			_Orphan_range(this->_Mylast, this->_Mylast);
; 983  : 			_Cons_val(this->_Alval,
; 984  : 				this->_Mylast,
; 985  : 				this->_Myfirst[_Idx]);

  0002a	8b 06		 mov	 eax, DWORD PTR [esi]
  0002c	8d 04 f8	 lea	 eax, DWORD PTR [eax+edi*8]
  0002f	50		 push	 eax
  00030	ff 76 04	 push	 DWORD PTR [esi+4]
  00033	8d 46 0c	 lea	 eax, DWORD PTR [esi+12]
  00036	50		 push	 eax
  00037	e8 00 00 00 00	 call	 ??$_Cons_val@V?$allocator@UEntityGroupData@ioWorldMesh@@@std@@UEntityGroupData@ioWorldMesh@@AAU34@@std@@YAXAAV?$allocator@UEntityGroupData@ioWorldMesh@@@0@PAUEntityGroupData@ioWorldMesh@@AAU23@@Z ; std::_Cons_val<std::allocator<ioWorldMesh::EntityGroupData>,ioWorldMesh::EntityGroupData,ioWorldMesh::EntityGroupData &>

; 986  : 			++this->_Mylast;
; 987  : 			}
; 988  : 		else

  0003c	eb 1b		 jmp	 SHORT $LN20@push_back
$LN4@push_back:

; 989  : 			{	// push back a non-element
; 990  : 			if (this->_Mylast == this->_Myend)

  0003e	3b 46 08	 cmp	 eax, DWORD PTR [esi+8]
  00041	75 09		 jne	 SHORT $LN1@push_back

; 991  : 				_Reserve(1);

  00043	6a 01		 push	 1
  00045	8b ce		 mov	 ecx, esi
  00047	e8 00 00 00 00	 call	 ?_Reserve@?$vector@UEntityGroupData@ioWorldMesh@@V?$allocator@UEntityGroupData@ioWorldMesh@@@std@@@std@@IAEXI@Z ; std::vector<ioWorldMesh::EntityGroupData,std::allocator<ioWorldMesh::EntityGroupData> >::_Reserve
$LN1@push_back:

; 992  : 			_Orphan_range(this->_Mylast, this->_Mylast);
; 993  : 			_Cons_val(this->_Alval,
; 994  : 				this->_Mylast,
; 995  : 				_Val);

  0004c	57		 push	 edi
  0004d	ff 76 04	 push	 DWORD PTR [esi+4]
  00050	8d 46 0c	 lea	 eax, DWORD PTR [esi+12]
  00053	50		 push	 eax
  00054	e8 00 00 00 00	 call	 ??$_Cons_val@V?$allocator@UEntityGroupData@ioWorldMesh@@@std@@UEntityGroupData@ioWorldMesh@@ABU34@@std@@YAXAAV?$allocator@UEntityGroupData@ioWorldMesh@@@0@PAUEntityGroupData@ioWorldMesh@@ABU23@@Z ; std::_Cons_val<std::allocator<ioWorldMesh::EntityGroupData>,ioWorldMesh::EntityGroupData,ioWorldMesh::EntityGroupData const &>
$LN20@push_back:
  00059	83 c4 0c	 add	 esp, 12			; 0000000cH

; 996  : 			++this->_Mylast;

  0005c	83 46 04 08	 add	 DWORD PTR [esi+4], 8
  00060	5f		 pop	 edi
  00061	5e		 pop	 esi

; 997  : 			}
; 998  : 		}

  00062	5d		 pop	 ebp
  00063	c2 04 00	 ret	 4
?push_back@?$vector@UEntityGroupData@ioWorldMesh@@V?$allocator@UEntityGroupData@ioWorldMesh@@@std@@@std@@QAEXABUEntityGroupData@ioWorldMesh@@@Z ENDP ; std::vector<ioWorldMesh::EntityGroupData,std::allocator<ioWorldMesh::EntityGroupData> >::push_back
_TEXT	ENDS
PUBLIC	??0?$map@VioHashString@@UD3DXVECTOR3@@U?$less@VioHashString@@@std@@V?$allocator@U?$pair@$$CBVioHashString@@UD3DXVECTOR3@@@std@@@4@@std@@QAE@XZ ; std::map<ioHashString,D3DXVECTOR3,std::less<ioHashString>,std::allocator<std::pair<ioHashString const ,D3DXVECTOR3> > >::map<ioHashString,D3DXVECTOR3,std::less<ioHashString>,std::allocator<std::pair<ioHashString const ,D3DXVECTOR3> > >
; Function compile flags: /Ogsp
; File c:\program files (x86)\microsoft visual studio 10.0\vc\include\map
;	COMDAT ??0?$map@VioHashString@@UD3DXVECTOR3@@U?$less@VioHashString@@@std@@V?$allocator@U?$pair@$$CBVioHashString@@UD3DXVECTOR3@@@std@@@4@@std@@QAE@XZ
_TEXT	SEGMENT
$T517457 = -8						; size = 4
$T517459 = -8						; size = 4
$T517446 = -1						; size = 1
??0?$map@VioHashString@@UD3DXVECTOR3@@U?$less@VioHashString@@@std@@V?$allocator@U?$pair@$$CBVioHashString@@UD3DXVECTOR3@@@std@@@4@@std@@QAE@XZ PROC ; std::map<ioHashString,D3DXVECTOR3,std::less<ioHashString>,std::allocator<std::pair<ioHashString const ,D3DXVECTOR3> > >::map<ioHashString,D3DXVECTOR3,std::less<ioHashString>,std::allocator<std::pair<ioHashString const ,D3DXVECTOR3> > >, COMDAT
; _this$ = ecx

; 106  : 		{	// construct empty map from defaults

  00000	55		 push	 ebp
  00001	8b ec		 mov	 ebp, esp
  00003	51		 push	 ecx
  00004	51		 push	 ecx
  00005	56		 push	 esi
  00006	51		 push	 ecx
  00007	89 65 f8	 mov	 DWORD PTR $T517459[ebp], esp
  0000a	8d 45 ff	 lea	 eax, DWORD PTR $T517446[ebp]
  0000d	89 65 f8	 mov	 DWORD PTR $T517457[ebp], esp
  00010	50		 push	 eax
  00011	8b f1		 mov	 esi, ecx
  00013	e8 00 00 00 00	 call	 ??0?$_Tree_val@V?$_Tmap_traits@VioHashString@@UD3DXVECTOR3@@U?$less@VioHashString@@@std@@V?$allocator@U?$pair@$$CBVioHashString@@UD3DXVECTOR3@@@std@@@4@$0A@@std@@@std@@QAE@ABU?$less@VioHashString@@@1@V?$allocator@U?$pair@$$CBVioHashString@@UD3DXVECTOR3@@@std@@@1@@Z ; std::_Tree_val<std::_Tmap_traits<ioHashString,D3DXVECTOR3,std::less<ioHashString>,std::allocator<std::pair<ioHashString const ,D3DXVECTOR3> >,0> >::_Tree_val<std::_Tmap_traits<ioHashString,D3DXVECTOR3,std::less<ioHashString>,std::allocator<std::pair<ioHashString const ,D3DXVECTOR3> >,0> >

; 107  : 		}

  00018	8b c6		 mov	 eax, esi
  0001a	5e		 pop	 esi
  0001b	c9		 leave
  0001c	c3		 ret	 0
??0?$map@VioHashString@@UD3DXVECTOR3@@U?$less@VioHashString@@@std@@V?$allocator@U?$pair@$$CBVioHashString@@UD3DXVECTOR3@@@std@@@4@@std@@QAE@XZ ENDP ; std::map<ioHashString,D3DXVECTOR3,std::less<ioHashString>,std::allocator<std::pair<ioHashString const ,D3DXVECTOR3> > >::map<ioHashString,D3DXVECTOR3,std::less<ioHashString>,std::allocator<std::pair<ioHashString const ,D3DXVECTOR3> > >
_TEXT	ENDS
PUBLIC	_this$GSCopy$
PUBLIC	??A?$map@VioHashString@@UD3DXVECTOR3@@U?$less@VioHashString@@@std@@V?$allocator@U?$pair@$$CBVioHashString@@UD3DXVECTOR3@@@std@@@4@@std@@QAEAAUD3DXVECTOR3@@ABVioHashString@@@Z ; std::map<ioHashString,D3DXVECTOR3,std::less<ioHashString>,std::allocator<std::pair<ioHashString const ,D3DXVECTOR3> > >::operator[]
;	COMDAT xdata$x
; File c:\program files (x86)\microsoft visual studio 10.0\vc\include\xtree
xdata$x	SEGMENT
__unwindtable$??A?$map@VioHashString@@UD3DXVECTOR3@@U?$less@VioHashString@@@std@@V?$allocator@U?$pair@$$CBVioHashString@@UD3DXVECTOR3@@@std@@@4@@std@@QAEAAUD3DXVECTOR3@@ABVioHashString@@@Z DD 0ffffffffH
	DD	FLAT:__unwindfunclet$??A?$map@VioHashString@@UD3DXVECTOR3@@U?$less@VioHashString@@@std@@V?$allocator@U?$pair@$$CBVioHashString@@UD3DXVECTOR3@@@std@@@4@@std@@QAEAAUD3DXVECTOR3@@ABVioHashString@@@Z$0
__ehfuncinfo$??A?$map@VioHashString@@UD3DXVECTOR3@@U?$less@VioHashString@@@std@@V?$allocator@U?$pair@$$CBVioHashString@@UD3DXVECTOR3@@@std@@@4@@std@@QAEAAUD3DXVECTOR3@@ABVioHashString@@@Z DD 019930522H
	DD	01H
	DD	FLAT:__unwindtable$??A?$map@VioHashString@@UD3DXVECTOR3@@U?$less@VioHashString@@@std@@V?$allocator@U?$pair@$$CBVioHashString@@UD3DXVECTOR3@@@std@@@4@@std@@QAEAAUD3DXVECTOR3@@ABVioHashString@@@Z
	DD	2 DUP(00H)
	DD	2 DUP(00H)
	DD	00H
	DD	01H
; Function compile flags: /Ogsp
; File c:\program files (x86)\microsoft visual studio 10.0\vc\include\map
xdata$x	ENDS
;	COMDAT ??A?$map@VioHashString@@UD3DXVECTOR3@@U?$less@VioHashString@@@std@@V?$allocator@U?$pair@$$CBVioHashString@@UD3DXVECTOR3@@@std@@@4@@std@@QAEAAUD3DXVECTOR3@@ABVioHashString@@@Z
_TEXT	SEGMENT
$T507941 = -60						; size = 12
_this$GSCopy$ = -48					; size = 4
$T517468 = -48						; size = 4
$T507947 = -44						; size = 28
__$EHRec$ = -12						; size = 12
__Keyval$ = 8						; size = 4
??A?$map@VioHashString@@UD3DXVECTOR3@@U?$less@VioHashString@@@std@@V?$allocator@U?$pair@$$CBVioHashString@@UD3DXVECTOR3@@@std@@@4@@std@@QAEAAUD3DXVECTOR3@@ABVioHashString@@@Z PROC ; std::map<ioHashString,D3DXVECTOR3,std::less<ioHashString>,std::allocator<std::pair<ioHashString const ,D3DXVECTOR3> > >::operator[], COMDAT
; _this$ = ecx

; 210  : 		{	// find element matching _Keyval or insert with default mapped

  00000	6a 30		 push	 48			; 00000030H
  00002	b8 00 00 00 00	 mov	 eax, __ehhandler$??A?$map@VioHashString@@UD3DXVECTOR3@@U?$less@VioHashString@@@std@@V?$allocator@U?$pair@$$CBVioHashString@@UD3DXVECTOR3@@@std@@@4@@std@@QAEAAUD3DXVECTOR3@@ABVioHashString@@@Z
  00007	e8 00 00 00 00	 call	 __EH_prolog3_GS
  0000c	8b 75 08	 mov	 esi, DWORD PTR __Keyval$[ebp]
  0000f	8b f9		 mov	 edi, ecx

; 211  : 		iterator _Where = this->lower_bound(_Keyval);

  00011	56		 push	 esi

; 216  : 		return ((*_Where).second);

  00012	89 7d d0	 mov	 DWORD PTR _this$GSCopy$[ebp], edi
  00015	e8 00 00 00 00	 call	 ?_Lbound@?$_Tree@V?$_Tmap_traits@VioHashString@@UD3DXVECTOR3@@U?$less@VioHashString@@@std@@V?$allocator@U?$pair@$$CBVioHashString@@UD3DXVECTOR3@@@std@@@4@$0A@@std@@@std@@IAEPAU_Node@?$_Tree_nod@V?$_Tmap_traits@VioHashString@@UD3DXVECTOR3@@U?$less@VioHashString@@@std@@V?$allocator@U?$pair@$$CBVioHashString@@UD3DXVECTOR3@@@std@@@4@$0A@@std@@@2@ABVioHashString@@@Z ; std::_Tree<std::_Tmap_traits<ioHashString,D3DXVECTOR3,std::less<ioHashString>,std::allocator<std::pair<ioHashString const ,D3DXVECTOR3> >,0> >::_Lbound
  0001a	8b d8		 mov	 ebx, eax
  0001c	3b 5f 04	 cmp	 ebx, DWORD PTR [edi+4]
  0001f	74 10		 je	 SHORT $LN1@operator@3

; 212  : 		if (_Where == this->end()
; 213  : 			|| this->comp(_Keyval, this->_Key(_Where._Mynode())))

  00021	8d 43 0c	 lea	 eax, DWORD PTR [ebx+12]
  00024	50		 push	 eax
  00025	8b ce		 mov	 ecx, esi
  00027	ff 15 00 00 00
	00		 call	 DWORD PTR __imp_??MioHashString@@QBE_NABV0@@Z
  0002d	84 c0		 test	 al, al
  0002f	74 41		 je	 SHORT $LN2@operator@3
$LN1@operator@3:

; 214  : 			_Where = this->insert(_Where,
; 215  : 				value_type(_Keyval, mapped_type()));

  00031	56		 push	 esi
  00032	8d 4d d4	 lea	 ecx, DWORD PTR $T507947[ebp]
  00035	ff 15 00 00 00
	00		 call	 DWORD PTR __imp_??0ioHashString@@QAE@ABV0@@Z
  0003b	8d 75 c4	 lea	 esi, DWORD PTR $T507941[ebp]
  0003e	8d 7d e4	 lea	 edi, DWORD PTR $T507947[ebp+16]
  00041	a5		 movsd
  00042	a5		 movsd
  00043	a5		 movsd
  00044	8b 4d d0	 mov	 ecx, DWORD PTR _this$GSCopy$[ebp]
  00047	83 65 fc 00	 and	 DWORD PTR __$EHRec$[ebp+8], 0
  0004b	8d 45 d4	 lea	 eax, DWORD PTR $T507947[ebp]
  0004e	50		 push	 eax
  0004f	e8 00 00 00 00	 call	 ??$_Buynode@U?$pair@$$CBVioHashString@@UD3DXVECTOR3@@@std@@@?$_Tree_val@V?$_Tmap_traits@VioHashString@@UD3DXVECTOR3@@U?$less@VioHashString@@@std@@V?$allocator@U?$pair@$$CBVioHashString@@UD3DXVECTOR3@@@std@@@4@$0A@@std@@@std@@QAEPAU_Node@?$_Tree_nod@V?$_Tmap_traits@VioHashString@@UD3DXVECTOR3@@U?$less@VioHashString@@@std@@V?$allocator@U?$pair@$$CBVioHashString@@UD3DXVECTOR3@@@std@@@4@$0A@@std@@@1@$$QAU?$pair@$$CBVioHashString@@UD3DXVECTOR3@@@1@@Z ; std::_Tree_val<std::_Tmap_traits<ioHashString,D3DXVECTOR3,std::less<ioHashString>,std::allocator<std::pair<ioHashString const ,D3DXVECTOR3> >,0> >::_Buynode<std::pair<ioHashString const ,D3DXVECTOR3> >
  00054	8b 4d d0	 mov	 ecx, DWORD PTR _this$GSCopy$[ebp]
  00057	50		 push	 eax
  00058	53		 push	 ebx
  00059	8d 45 d0	 lea	 eax, DWORD PTR $T517468[ebp]
  0005c	50		 push	 eax
  0005d	e8 00 00 00 00	 call	 ?_Insert@?$_Tree@V?$_Tmap_traits@VioHashString@@UD3DXVECTOR3@@U?$less@VioHashString@@@std@@V?$allocator@U?$pair@$$CBVioHashString@@UD3DXVECTOR3@@@std@@@4@$0A@@std@@@std@@QAE?AV?$_Tree_iterator@V?$_Tree_val@V?$_Tmap_traits@VioHashString@@UD3DXVECTOR3@@U?$less@VioHashString@@@std@@V?$allocator@U?$pair@$$CBVioHashString@@UD3DXVECTOR3@@@std@@@4@$0A@@std@@@std@@@2@V?$_Tree_const_iterator@V?$_Tree_val@V?$_Tmap_traits@VioHashString@@UD3DXVECTOR3@@U?$less@VioHashString@@@std@@V?$allocator@U?$pair@$$CBVioHashString@@UD3DXVECTOR3@@@std@@@4@$0A@@std@@@std@@@2@PAU_Node@?$_Tree_nod@V?$_Tmap_traits@VioHashString@@UD3DXVECTOR3@@U?$less@VioHashString@@@std@@V?$allocator@U?$pair@$$CBVioHashString@@UD3DXVECTOR3@@@std@@@4@$0A@@std@@@2@@Z ; std::_Tree<std::_Tmap_traits<ioHashString,D3DXVECTOR3,std::less<ioHashString>,std::allocator<std::pair<ioHashString const ,D3DXVECTOR3> >,0> >::_Insert
  00062	8b 5d d0	 mov	 ebx, DWORD PTR $T517468[ebp]
  00065	83 4d fc ff	 or	 DWORD PTR __$EHRec$[ebp+8], -1
  00069	8d 4d d4	 lea	 ecx, DWORD PTR $T507947[ebp]
  0006c	ff 15 00 00 00
	00		 call	 DWORD PTR __imp_??1ioHashString@@QAE@XZ
$LN2@operator@3:

; 216  : 		return ((*_Where).second);

  00072	8d 43 1c	 lea	 eax, DWORD PTR [ebx+28]

; 217  : 		}

  00075	e8 00 00 00 00	 call	 __EH_epilog3_GS
  0007a	c2 04 00	 ret	 4
_TEXT	ENDS
;	COMDAT text$x
text$x	SEGMENT
__unwindfunclet$??A?$map@VioHashString@@UD3DXVECTOR3@@U?$less@VioHashString@@@std@@V?$allocator@U?$pair@$$CBVioHashString@@UD3DXVECTOR3@@@std@@@4@@std@@QAEAAUD3DXVECTOR3@@ABVioHashString@@@Z$0:
  00000	8d 4d d4	 lea	 ecx, DWORD PTR $T507947[ebp]
  00003	e9 00 00 00 00	 jmp	 ??1?$pair@$$CBVioHashString@@UD3DXVECTOR3@@@std@@QAE@XZ
__ehhandler$??A?$map@VioHashString@@UD3DXVECTOR3@@U?$less@VioHashString@@@std@@V?$allocator@U?$pair@$$CBVioHashString@@UD3DXVECTOR3@@@std@@@4@@std@@QAEAAUD3DXVECTOR3@@ABVioHashString@@@Z:
  00008	8b 54 24 08	 mov	 edx, DWORD PTR [esp+8]
  0000c	8d 42 0c	 lea	 eax, DWORD PTR [edx+12]
  0000f	8b 4a c0	 mov	 ecx, DWORD PTR [edx-64]
  00012	33 c8		 xor	 ecx, eax
  00014	e8 00 00 00 00	 call	 @__security_check_cookie@4
  00019	8b 4a fc	 mov	 ecx, DWORD PTR [edx-4]
  0001c	33 c8		 xor	 ecx, eax
  0001e	e8 00 00 00 00	 call	 @__security_check_cookie@4
  00023	b8 00 00 00 00	 mov	 eax, OFFSET __ehfuncinfo$??A?$map@VioHashString@@UD3DXVECTOR3@@U?$less@VioHashString@@@std@@V?$allocator@U?$pair@$$CBVioHashString@@UD3DXVECTOR3@@@std@@@4@@std@@QAEAAUD3DXVECTOR3@@ABVioHashString@@@Z
  00028	e9 00 00 00 00	 jmp	 ___CxxFrameHandler3
text$x	ENDS
??A?$map@VioHashString@@UD3DXVECTOR3@@U?$less@VioHashString@@@std@@V?$allocator@U?$pair@$$CBVioHashString@@UD3DXVECTOR3@@@std@@@4@@std@@QAEAAUD3DXVECTOR3@@ABVioHashString@@@Z ENDP ; std::map<ioHashString,D3DXVECTOR3,std::less<ioHashString>,std::allocator<std::pair<ioHashString const ,D3DXVECTOR3> > >::operator[]
PUBLIC	?_Reserve@?$vector@VioHashString@@V?$allocator@VioHashString@@@std@@@std@@IAEXI@Z ; std::vector<ioHashString,std::allocator<ioHashString> >::_Reserve
; Function compile flags: /Ogsp
; File c:\program files (x86)\microsoft visual studio 10.0\vc\include\vector
;	COMDAT ?_Reserve@?$vector@VioHashString@@V?$allocator@VioHashString@@@std@@@std@@IAEXI@Z
_TEXT	SEGMENT
__Count$ = 8						; size = 4
?_Reserve@?$vector@VioHashString@@V?$allocator@VioHashString@@@std@@@std@@IAEXI@Z PROC ; std::vector<ioHashString,std::allocator<ioHashString> >::_Reserve, COMDAT
; _this$ = ecx

; 1290 : 		{	// ensure room for _Count new elements, grow exponentially

  00000	55		 push	 ebp
  00001	8b ec		 mov	 ebp, esp
  00003	56		 push	 esi
  00004	8b f1		 mov	 esi, ecx

; 1291 : 		size_type _Size = size();

  00006	8b 0e		 mov	 ecx, DWORD PTR [esi]
  00008	8b 46 04	 mov	 eax, DWORD PTR [esi+4]
  0000b	2b c1		 sub	 eax, ecx

; 1292 : 		if (max_size() - _Count < _Size)

  0000d	ba ff ff ff 0f	 mov	 edx, 268435455		; 0fffffffH
  00012	2b 55 08	 sub	 edx, DWORD PTR __Count$[ebp]
  00015	c1 f8 04	 sar	 eax, 4
  00018	3b d0		 cmp	 edx, eax
  0001a	73 0b		 jae	 SHORT $LN4@Reserve@2

; 1293 : 			_Xlen();

  0001c	68 00 00 00 00	 push	 OFFSET ??_C@_0BD@OLBABOEK@vector?$DMT?$DO?5too?5long?$AA@
  00021	ff 15 00 00 00
	00		 call	 DWORD PTR __imp_?_Xlength_error@std@@YAXPBD@Z
$LN21@Reserve@2:
$LN4@Reserve@2:

; 1294 : 		else if ((_Size += _Count) <= capacity())

  00027	8b 56 08	 mov	 edx, DWORD PTR [esi+8]
  0002a	03 45 08	 add	 eax, DWORD PTR __Count$[ebp]
  0002d	2b d1		 sub	 edx, ecx
  0002f	c1 fa 04	 sar	 edx, 4
  00032	3b c2		 cmp	 eax, edx
  00034	76 10		 jbe	 SHORT $LN1@Reserve@2

; 1295 : 			;
; 1296 : 		else
; 1297 : 			reserve(_Grow_to(_Size));

  00036	50		 push	 eax
  00037	8b ce		 mov	 ecx, esi
  00039	e8 00 00 00 00	 call	 ?_Grow_to@?$vector@VioHashString@@V?$allocator@VioHashString@@@std@@@std@@IBEII@Z ; std::vector<ioHashString,std::allocator<ioHashString> >::_Grow_to
  0003e	50		 push	 eax
  0003f	8b ce		 mov	 ecx, esi
  00041	e8 00 00 00 00	 call	 ?reserve@?$vector@VioHashString@@V?$allocator@VioHashString@@@std@@@std@@QAEXI@Z ; std::vector<ioHashString,std::allocator<ioHashString> >::reserve
$LN1@Reserve@2:
  00046	5e		 pop	 esi

; 1298 : 		}

  00047	5d		 pop	 ebp
  00048	c2 04 00	 ret	 4
$LN20@Reserve@2:
?_Reserve@?$vector@VioHashString@@V?$allocator@VioHashString@@@std@@@std@@IAEXI@Z ENDP ; std::vector<ioHashString,std::allocator<ioHashString> >::_Reserve
_TEXT	ENDS
PUBLIC	??1?$vector@VioHashString@@V?$allocator@VioHashString@@@std@@@std@@QAE@XZ ; std::vector<ioHashString,std::allocator<ioHashString> >::~vector<ioHashString,std::allocator<ioHashString> >
; Function compile flags: /Ogsp
;	COMDAT ??1?$vector@VioHashString@@V?$allocator@VioHashString@@@std@@@std@@QAE@XZ
_TEXT	SEGMENT
??1?$vector@VioHashString@@V?$allocator@VioHashString@@@std@@@std@@QAE@XZ PROC ; std::vector<ioHashString,std::allocator<ioHashString> >::~vector<ioHashString,std::allocator<ioHashString> >, COMDAT
; _this$ = ecx

; 705  : 		_Tidy();

  00000	e9 00 00 00 00	 jmp	 ?_Tidy@?$vector@VioHashString@@V?$allocator@VioHashString@@@std@@@std@@IAEXXZ ; std::vector<ioHashString,std::allocator<ioHashString> >::_Tidy
??1?$vector@VioHashString@@V?$allocator@VioHashString@@@std@@@std@@QAE@XZ ENDP ; std::vector<ioHashString,std::allocator<ioHashString> >::~vector<ioHashString,std::allocator<ioHashString> >
_TEXT	ENDS
PUBLIC	?clear@?$vector@VioHashString@@V?$allocator@VioHashString@@@std@@@std@@QAEXXZ ; std::vector<ioHashString,std::allocator<ioHashString> >::clear
; Function compile flags: /Ogsp
;	COMDAT ?clear@?$vector@VioHashString@@V?$allocator@VioHashString@@@std@@@std@@QAEXXZ
_TEXT	SEGMENT
$T517675 = -4						; size = 4
?clear@?$vector@VioHashString@@V?$allocator@VioHashString@@@std@@@std@@QAEXXZ PROC ; std::vector<ioHashString,std::allocator<ioHashString> >::clear, COMDAT
; _this$ = ecx

; 1217 : 		{	// erase all

  00000	55		 push	 ebp
  00001	8b ec		 mov	 ebp, esp
  00003	51		 push	 ecx

; 1218 : 		erase(begin(), end());

  00004	8b 41 04	 mov	 eax, DWORD PTR [ecx+4]
  00007	8b 11		 mov	 edx, DWORD PTR [ecx]
  00009	50		 push	 eax
  0000a	52		 push	 edx
  0000b	8d 45 fc	 lea	 eax, DWORD PTR $T517675[ebp]
  0000e	50		 push	 eax
  0000f	e8 00 00 00 00	 call	 ?erase@?$vector@VioHashString@@V?$allocator@VioHashString@@@std@@@std@@QAE?AV?$_Vector_iterator@V?$_Vector_val@VioHashString@@V?$allocator@VioHashString@@@std@@@std@@@2@V?$_Vector_const_iterator@V?$_Vector_val@VioHashString@@V?$allocator@VioHashString@@@std@@@std@@@2@0@Z ; std::vector<ioHashString,std::allocator<ioHashString> >::erase

; 1219 : 		}

  00014	c9		 leave
  00015	c3		 ret	 0
?clear@?$vector@VioHashString@@V?$allocator@VioHashString@@@std@@@std@@QAEXXZ ENDP ; std::vector<ioHashString,std::allocator<ioHashString> >::clear
_TEXT	ENDS
PUBLIC	??_7ioWorldMesh@@6B@				; ioWorldMesh::`vftable'
PUBLIC	??0ioWorldMesh@@QAE@PAVioGameSceneManager@@@Z	; ioWorldMesh::ioWorldMesh
PUBLIC	??_R4ioWorldMesh@@6B@				; ioWorldMesh::`RTTI Complete Object Locator'
PUBLIC	??_R0?AVioWorldMesh@@@8				; ioWorldMesh `RTTI Type Descriptor'
PUBLIC	??_R3ioWorldMesh@@8				; ioWorldMesh::`RTTI Class Hierarchy Descriptor'
PUBLIC	??_R2ioWorldMesh@@8				; ioWorldMesh::`RTTI Base Class Array'
PUBLIC	??_R1A@?0A@EA@ioWorldMesh@@8			; ioWorldMesh::`RTTI Base Class Descriptor at (0,-1,0,64)'
EXTRN	??_EioWorldMesh@@UAEPAXI@Z:PROC			; ioWorldMesh::`vector deleting destructor'
;	COMDAT ??_R1A@?0A@EA@ioWorldMesh@@8
; File c:\program files (x86)\microsoft visual studio 10.0\vc\include\xmemory
rdata$r	SEGMENT
??_R1A@?0A@EA@ioWorldMesh@@8 DD FLAT:??_R0?AVioWorldMesh@@@8 ; ioWorldMesh::`RTTI Base Class Descriptor at (0,-1,0,64)'
	DD	00H
	DD	00H
	DD	0ffffffffH
	DD	00H
	DD	040H
	DD	FLAT:??_R3ioWorldMesh@@8
rdata$r	ENDS
;	COMDAT ??_R2ioWorldMesh@@8
rdata$r	SEGMENT
??_R2ioWorldMesh@@8 DD FLAT:??_R1A@?0A@EA@ioWorldMesh@@8 ; ioWorldMesh::`RTTI Base Class Array'
rdata$r	ENDS
;	COMDAT ??_R3ioWorldMesh@@8
rdata$r	SEGMENT
??_R3ioWorldMesh@@8 DD 00H				; ioWorldMesh::`RTTI Class Hierarchy Descriptor'
	DD	00H
	DD	01H
	DD	FLAT:??_R2ioWorldMesh@@8
rdata$r	ENDS
;	COMDAT ??_R0?AVioWorldMesh@@@8
_DATA	SEGMENT
??_R0?AVioWorldMesh@@@8 DD FLAT:??_7type_info@@6B@	; ioWorldMesh `RTTI Type Descriptor'
	DD	00H
	DB	'.?AVioWorldMesh@@', 00H
_DATA	ENDS
;	COMDAT ??_R4ioWorldMesh@@6B@
rdata$r	SEGMENT
??_R4ioWorldMesh@@6B@ DD 00H				; ioWorldMesh::`RTTI Complete Object Locator'
	DD	00H
	DD	00H
	DD	FLAT:??_R0?AVioWorldMesh@@@8
	DD	FLAT:??_R3ioWorldMesh@@8
rdata$r	ENDS
;	COMDAT ??_7ioWorldMesh@@6B@
CONST	SEGMENT
??_7ioWorldMesh@@6B@ DD FLAT:??_R4ioWorldMesh@@6B@	; ioWorldMesh::`vftable'
	DD	FLAT:??_EioWorldMesh@@UAEPAXI@Z
CONST	ENDS
;	COMDAT xdata$x
xdata$x	SEGMENT
__unwindtable$??0ioWorldMesh@@QAE@PAVioGameSceneManager@@@Z DD 0ffffffffH
	DD	FLAT:__unwindfunclet$??0ioWorldMesh@@QAE@PAVioGameSceneManager@@@Z$0
	DD	00H
	DD	FLAT:__unwindfunclet$??0ioWorldMesh@@QAE@PAVioGameSceneManager@@@Z$1
	DD	01H
	DD	FLAT:__unwindfunclet$??0ioWorldMesh@@QAE@PAVioGameSceneManager@@@Z$2
__ehfuncinfo$??0ioWorldMesh@@QAE@PAVioGameSceneManager@@@Z DD 019930522H
	DD	03H
	DD	FLAT:__unwindtable$??0ioWorldMesh@@QAE@PAVioGameSceneManager@@@Z
	DD	2 DUP(00H)
	DD	2 DUP(00H)
	DD	00H
	DD	01H
; Function compile flags: /Ogsp
; File d:\lost saga for developer\youtube\tutorial\source\src\lsclient\ioworldmesh.cpp
xdata$x	ENDS
;	COMDAT ??0ioWorldMesh@@QAE@PAVioGameSceneManager@@@Z
_TEXT	SEGMENT
$T517795 = -20						; size = 4
$T517809 = -20						; size = 4
_this$ = -16						; size = 4
__$EHRec$ = -12						; size = 12
_pSceneMgr$ = 8						; size = 4
$T517804 = 11						; size = 1
??0ioWorldMesh@@QAE@PAVioGameSceneManager@@@Z PROC	; ioWorldMesh::ioWorldMesh, COMDAT
; _this$ = ecx

; 13   : {

  00000	6a 08		 push	 8
  00002	b8 00 00 00 00	 mov	 eax, __ehhandler$??0ioWorldMesh@@QAE@PAVioGameSceneManager@@@Z
  00007	e8 00 00 00 00	 call	 __EH_prolog3
  0000c	8b f1		 mov	 esi, ecx
  0000e	89 75 f0	 mov	 DWORD PTR _this$[ebp], esi
  00011	33 c0		 xor	 eax, eax
  00013	c7 06 00 00 00
	00		 mov	 DWORD PTR [esi], OFFSET ??_7ioWorldMesh@@6B@
  00019	89 46 08	 mov	 DWORD PTR [esi+8], eax
  0001c	89 46 0c	 mov	 DWORD PTR [esi+12], eax
  0001f	89 46 10	 mov	 DWORD PTR [esi+16], eax
  00022	89 45 fc	 mov	 DWORD PTR __$EHRec$[ebp+8], eax
  00025	89 46 18	 mov	 DWORD PTR [esi+24], eax
  00028	89 46 1c	 mov	 DWORD PTR [esi+28], eax
  0002b	89 46 20	 mov	 DWORD PTR [esi+32], eax
  0002e	8d 4e 28	 lea	 ecx, DWORD PTR [esi+40]
  00031	51		 push	 ecx
  00032	89 65 ec	 mov	 DWORD PTR $T517809[ebp], esp
  00035	8d 45 0b	 lea	 eax, DWORD PTR $T517804[ebp]
  00038	89 65 ec	 mov	 DWORD PTR $T517795[ebp], esp
  0003b	50		 push	 eax
  0003c	c6 45 fc 01	 mov	 BYTE PTR __$EHRec$[ebp+8], 1
  00040	e8 00 00 00 00	 call	 ??0?$_Tree_val@V?$_Tmap_traits@VioHashString@@UD3DXVECTOR3@@U?$less@VioHashString@@@std@@V?$allocator@U?$pair@$$CBVioHashString@@UD3DXVECTOR3@@@std@@@4@$0A@@std@@@std@@QAE@ABU?$less@VioHashString@@@1@V?$allocator@U?$pair@$$CBVioHashString@@UD3DXVECTOR3@@@std@@@1@@Z ; std::_Tree_val<std::_Tmap_traits<ioHashString,D3DXVECTOR3,std::less<ioHashString>,std::allocator<std::pair<ioHashString const ,D3DXVECTOR3> >,0> >::_Tree_val<std::_Tmap_traits<ioHashString,D3DXVECTOR3,std::less<ioHashString>,std::allocator<std::pair<ioHashString const ,D3DXVECTOR3> >,0> >
  00045	8d 4e 38	 lea	 ecx, DWORD PTR [esi+56]
  00048	c6 45 fc 02	 mov	 BYTE PTR __$EHRec$[ebp+8], 2
  0004c	ff 15 00 00 00
	00		 call	 DWORD PTR __imp_??0ioAxisAlignBox@@QAE@XZ

; 14   : 	m_pCreator = pSceneMgr;

  00052	8b 45 08	 mov	 eax, DWORD PTR _pSceneMgr$[ebp]
  00055	89 46 04	 mov	 DWORD PTR [esi+4], eax

; 15   : }

  00058	8b c6		 mov	 eax, esi
  0005a	e8 00 00 00 00	 call	 __EH_epilog3
  0005f	c2 04 00	 ret	 4
_TEXT	ENDS
;	COMDAT text$x
text$x	SEGMENT
__unwindfunclet$??0ioWorldMesh@@QAE@PAVioGameSceneManager@@@Z$0:
  00000	8b 4d f0	 mov	 ecx, DWORD PTR _this$[ebp]
  00003	83 c1 08	 add	 ecx, 8
  00006	e9 00 00 00 00	 jmp	 ??1?$vector@UEntityGroupData@ioWorldMesh@@V?$allocator@UEntityGroupData@ioWorldMesh@@@std@@@std@@QAE@XZ ; std::vector<ioWorldMesh::EntityGroupData,std::allocator<ioWorldMesh::EntityGroupData> >::~vector<ioWorldMesh::EntityGroupData,std::allocator<ioWorldMesh::EntityGroupData> >
__unwindfunclet$??0ioWorldMesh@@QAE@PAVioGameSceneManager@@@Z$1:
  0000b	8b 4d f0	 mov	 ecx, DWORD PTR _this$[ebp]
  0000e	83 c1 18	 add	 ecx, 24			; 00000018H
  00011	e9 00 00 00 00	 jmp	 ??1?$vector@VioHashString@@V?$allocator@VioHashString@@@std@@@std@@QAE@XZ ; std::vector<ioHashString,std::allocator<ioHashString> >::~vector<ioHashString,std::allocator<ioHashString> >
__unwindfunclet$??0ioWorldMesh@@QAE@PAVioGameSceneManager@@@Z$2:
  00016	8b 4d f0	 mov	 ecx, DWORD PTR _this$[ebp]
  00019	83 c1 28	 add	 ecx, 40			; 00000028H
  0001c	e9 00 00 00 00	 jmp	 ??1?$map@VioHashString@@UD3DXVECTOR3@@U?$less@VioHashString@@@std@@V?$allocator@U?$pair@$$CBVioHashString@@UD3DXVECTOR3@@@std@@@4@@std@@QAE@XZ
__ehhandler$??0ioWorldMesh@@QAE@PAVioGameSceneManager@@@Z:
  00021	8b 54 24 08	 mov	 edx, DWORD PTR [esp+8]
  00025	8d 42 0c	 lea	 eax, DWORD PTR [edx+12]
  00028	8b 4a e8	 mov	 ecx, DWORD PTR [edx-24]
  0002b	33 c8		 xor	 ecx, eax
  0002d	e8 00 00 00 00	 call	 @__security_check_cookie@4
  00032	b8 00 00 00 00	 mov	 eax, OFFSET __ehfuncinfo$??0ioWorldMesh@@QAE@PAVioGameSceneManager@@@Z
  00037	e9 00 00 00 00	 jmp	 ___CxxFrameHandler3
text$x	ENDS
??0ioWorldMesh@@QAE@PAVioGameSceneManager@@@Z ENDP	; ioWorldMesh::ioWorldMesh
PUBLIC	??1ioWorldMesh@@UAE@XZ				; ioWorldMesh::~ioWorldMesh
EXTRN	__imp_?GetUniqueID@ioNode@@QBEKXZ:PROC
;	COMDAT xdata$x
; File c:\program files (x86)\microsoft visual studio 10.0\vc\include\vector
xdata$x	SEGMENT
__unwindtable$??1ioWorldMesh@@UAE@XZ DD 0ffffffffH
	DD	FLAT:__unwindfunclet$??1ioWorldMesh@@UAE@XZ$0
	DD	00H
	DD	FLAT:__unwindfunclet$??1ioWorldMesh@@UAE@XZ$1
	DD	01H
	DD	FLAT:__unwindfunclet$??1ioWorldMesh@@UAE@XZ$2
	DD	02H
	DD	FLAT:__unwindfunclet$??1ioWorldMesh@@UAE@XZ$3
__ehfuncinfo$??1ioWorldMesh@@UAE@XZ DD 019930522H
	DD	04H
	DD	FLAT:__unwindtable$??1ioWorldMesh@@UAE@XZ
	DD	2 DUP(00H)
	DD	2 DUP(00H)
	DD	00H
	DD	01H
; Function compile flags: /Ogsp
; File d:\lost saga for developer\youtube\tutorial\source\src\lsclient\ioworldmesh.cpp
xdata$x	ENDS
;	COMDAT ??1ioWorldMesh@@UAE@XZ
_TEXT	SEGMENT
_this$ = -24						; size = 4
tv143 = -20						; size = 4
$T517969 = -20						; size = 4
_pScene$506943 = -16					; size = 4
__$EHRec$ = -12						; size = 12
??1ioWorldMesh@@UAE@XZ PROC				; ioWorldMesh::~ioWorldMesh, COMDAT
; _this$ = ecx

; 18   : {

  00000	6a 0c		 push	 12			; 0000000cH
  00002	b8 00 00 00 00	 mov	 eax, __ehhandler$??1ioWorldMesh@@UAE@XZ
  00007	e8 00 00 00 00	 call	 __EH_prolog3
  0000c	8b f1		 mov	 esi, ecx
  0000e	89 75 e8	 mov	 DWORD PTR _this$[ebp], esi
  00011	c7 06 00 00 00
	00		 mov	 DWORD PTR [esi], OFFSET ??_7ioWorldMesh@@6B@

; 19   : 	EntityGroupDataList::iterator iter = m_GroupList.begin();

  00017	8b 5e 08	 mov	 ebx, DWORD PTR [esi+8]
  0001a	c7 45 fc 03 00
	00 00		 mov	 DWORD PTR __$EHRec$[ebp+8], 3
  00021	eb 4c		 jmp	 SHORT $LN74@ioWorldMes

; 20   : 	for(;iter != m_GroupList.end();++iter)

$LL22@ioWorldMes:

; 21   : 	{
; 22   : 		EntityGroupData &rkGroupData = *iter;
; 23   : 		if( rkGroupData.m_pGroup == NULL ) continue;

  00023	8b 4b 04	 mov	 ecx, DWORD PTR [ebx+4]
  00026	85 c9		 test	 ecx, ecx
  00028	74 42		 je	 SHORT $LN4@ioWorldMes

; 24   : 
; 25   : 		ioSceneNode *pScene = rkGroupData.m_pGroup->GetParentSceneNode();

  0002a	8b 01		 mov	 eax, DWORD PTR [ecx]
  0002c	ff 50 34	 call	 DWORD PTR [eax+52]
  0002f	89 45 f0	 mov	 DWORD PTR _pScene$506943[ebp], eax

; 26   : 		if( pScene )

  00032	85 c0		 test	 eax, eax
  00034	74 27		 je	 SHORT $LN1@ioWorldMes

; 27   : 		{
; 28   : 			pScene->RemoveAndDestroyAllChildren();

  00036	8b 10		 mov	 edx, DWORD PTR [eax]
  00038	8b c8		 mov	 ecx, eax
  0003a	ff 92 d0 00 00
	00		 call	 DWORD PTR [edx+208]

; 29   : 			m_pCreator->DestroySceneNode( pScene->GetUniqueID() );

  00040	8b 46 04	 mov	 eax, DWORD PTR [esi+4]
  00043	8b 00		 mov	 eax, DWORD PTR [eax]
  00045	8b 4d f0	 mov	 ecx, DWORD PTR _pScene$506943[ebp]
  00048	83 c0 24	 add	 eax, 36			; 00000024H
  0004b	89 45 ec	 mov	 DWORD PTR tv143[ebp], eax
  0004e	ff 15 00 00 00
	00		 call	 DWORD PTR __imp_?GetUniqueID@ioNode@@QBEKXZ
  00054	8b 4e 04	 mov	 ecx, DWORD PTR [esi+4]
  00057	50		 push	 eax
  00058	8b 45 ec	 mov	 eax, DWORD PTR tv143[ebp]
  0005b	ff 10		 call	 DWORD PTR [eax]
$LN1@ioWorldMes:

; 30   : 		}
; 31   : 
; 32   : 		m_pCreator->DestroyEntityGrp( rkGroupData.m_pGroup );

  0005d	8b 4e 04	 mov	 ecx, DWORD PTR [esi+4]
  00060	ff 73 04	 push	 DWORD PTR [ebx+4]
  00063	8b 01		 mov	 eax, DWORD PTR [ecx]
  00065	ff 50 38	 call	 DWORD PTR [eax+56]

; 33   : 		rkGroupData.m_pGroup = NULL;

  00068	83 63 04 00	 and	 DWORD PTR [ebx+4], 0
$LN4@ioWorldMes:

; 20   : 	for(;iter != m_GroupList.end();++iter)

  0006c	83 c3 08	 add	 ebx, 8
$LN74@ioWorldMes:
  0006f	3b 5e 0c	 cmp	 ebx, DWORD PTR [esi+12]
  00072	75 af		 jne	 SHORT $LL22@ioWorldMes

; 34   : 	}
; 35   : 	m_GroupList.clear();

  00074	8b 46 0c	 mov	 eax, DWORD PTR [esi+12]
  00077	8b 4e 08	 mov	 ecx, DWORD PTR [esi+8]
  0007a	50		 push	 eax
  0007b	51		 push	 ecx
  0007c	8d 45 ec	 lea	 eax, DWORD PTR $T517969[ebp]
  0007f	50		 push	 eax
  00080	8d 4e 08	 lea	 ecx, DWORD PTR [esi+8]
  00083	e8 00 00 00 00	 call	 ?erase@?$vector@UEntityGroupData@ioWorldMesh@@V?$allocator@UEntityGroupData@ioWorldMesh@@@std@@@std@@QAE?AV?$_Vector_iterator@V?$_Vector_val@UEntityGroupData@ioWorldMesh@@V?$allocator@UEntityGroupData@ioWorldMesh@@@std@@@std@@@2@V?$_Vector_const_iterator@V?$_Vector_val@UEntityGroupData@ioWorldMesh@@V?$allocator@UEntityGroupData@ioWorldMesh@@@std@@@std@@@2@0@Z ; std::vector<ioWorldMesh::EntityGroupData,std::allocator<ioWorldMesh::EntityGroupData> >::erase

; 36   : }

  00088	8d 4e 38	 lea	 ecx, DWORD PTR [esi+56]
  0008b	c6 45 fc 02	 mov	 BYTE PTR __$EHRec$[ebp+8], 2
  0008f	ff 15 00 00 00
	00		 call	 DWORD PTR __imp_??1ioAxisAlignBox@@UAE@XZ
  00095	8d 4e 28	 lea	 ecx, DWORD PTR [esi+40]
  00098	c6 45 fc 01	 mov	 BYTE PTR __$EHRec$[ebp+8], 1
  0009c	e8 00 00 00 00	 call	 ??1?$_Tree@V?$_Tmap_traits@VioHashString@@UD3DXVECTOR3@@U?$less@VioHashString@@@std@@V?$allocator@U?$pair@$$CBVioHashString@@UD3DXVECTOR3@@@std@@@4@$0A@@std@@@std@@QAE@XZ ; std::_Tree<std::_Tmap_traits<ioHashString,D3DXVECTOR3,std::less<ioHashString>,std::allocator<std::pair<ioHashString const ,D3DXVECTOR3> >,0> >::~_Tree<std::_Tmap_traits<ioHashString,D3DXVECTOR3,std::less<ioHashString>,std::allocator<std::pair<ioHashString const ,D3DXVECTOR3> >,0> >
  000a1	8d 4e 18	 lea	 ecx, DWORD PTR [esi+24]
  000a4	c6 45 fc 00	 mov	 BYTE PTR __$EHRec$[ebp+8], 0
  000a8	e8 00 00 00 00	 call	 ?_Tidy@?$vector@VioHashString@@V?$allocator@VioHashString@@@std@@@std@@IAEXXZ ; std::vector<ioHashString,std::allocator<ioHashString> >::_Tidy
  000ad	83 4d fc ff	 or	 DWORD PTR __$EHRec$[ebp+8], -1
  000b1	8d 4e 08	 lea	 ecx, DWORD PTR [esi+8]
  000b4	e8 00 00 00 00	 call	 ?_Tidy@?$vector@UEntityGroupData@ioWorldMesh@@V?$allocator@UEntityGroupData@ioWorldMesh@@@std@@@std@@IAEXXZ ; std::vector<ioWorldMesh::EntityGroupData,std::allocator<ioWorldMesh::EntityGroupData> >::_Tidy
  000b9	e8 00 00 00 00	 call	 __EH_epilog3
  000be	c3		 ret	 0
_TEXT	ENDS
;	COMDAT text$x
text$x	SEGMENT
__unwindfunclet$??1ioWorldMesh@@UAE@XZ$0:
  00000	8b 4d e8	 mov	 ecx, DWORD PTR _this$[ebp]
  00003	83 c1 08	 add	 ecx, 8
  00006	e9 00 00 00 00	 jmp	 ??1?$vector@UEntityGroupData@ioWorldMesh@@V?$allocator@UEntityGroupData@ioWorldMesh@@@std@@@std@@QAE@XZ ; std::vector<ioWorldMesh::EntityGroupData,std::allocator<ioWorldMesh::EntityGroupData> >::~vector<ioWorldMesh::EntityGroupData,std::allocator<ioWorldMesh::EntityGroupData> >
__unwindfunclet$??1ioWorldMesh@@UAE@XZ$1:
  0000b	8b 4d e8	 mov	 ecx, DWORD PTR _this$[ebp]
  0000e	83 c1 18	 add	 ecx, 24			; 00000018H
  00011	e9 00 00 00 00	 jmp	 ??1?$vector@VioHashString@@V?$allocator@VioHashString@@@std@@@std@@QAE@XZ ; std::vector<ioHashString,std::allocator<ioHashString> >::~vector<ioHashString,std::allocator<ioHashString> >
__unwindfunclet$??1ioWorldMesh@@UAE@XZ$2:
  00016	8b 4d e8	 mov	 ecx, DWORD PTR _this$[ebp]
  00019	83 c1 28	 add	 ecx, 40			; 00000028H
  0001c	e9 00 00 00 00	 jmp	 ??1?$map@VioHashString@@UD3DXVECTOR3@@U?$less@VioHashString@@@std@@V?$allocator@U?$pair@$$CBVioHashString@@UD3DXVECTOR3@@@std@@@4@@std@@QAE@XZ
__unwindfunclet$??1ioWorldMesh@@UAE@XZ$3:
  00021	8b 4d e8	 mov	 ecx, DWORD PTR _this$[ebp]
  00024	83 c1 38	 add	 ecx, 56			; 00000038H
  00027	ff 25 00 00 00
	00		 jmp	 DWORD PTR __imp_??1ioAxisAlignBox@@UAE@XZ
__ehhandler$??1ioWorldMesh@@UAE@XZ:
  0002d	8b 54 24 08	 mov	 edx, DWORD PTR [esp+8]
  00031	8d 42 0c	 lea	 eax, DWORD PTR [edx+12]
  00034	8b 4a e4	 mov	 ecx, DWORD PTR [edx-28]
  00037	33 c8		 xor	 ecx, eax
  00039	e8 00 00 00 00	 call	 @__security_check_cookie@4
  0003e	b8 00 00 00 00	 mov	 eax, OFFSET __ehfuncinfo$??1ioWorldMesh@@UAE@XZ
  00043	e9 00 00 00 00	 jmp	 ___CxxFrameHandler3
text$x	ENDS
??1ioWorldMesh@@UAE@XZ ENDP				; ioWorldMesh::~ioWorldMesh
PUBLIC	??_C@_0DH@IMDOLIIG@ioWorldMesh?3?3LoadWorldMesh?5?$CFs?5me@ ; `string'
PUBLIC	??_C@_0DI@HDAPAEHE@ioWorldMesh?3?3LoadWorldMesh?5?$CFs?5me@ ; `string'
PUBLIC	??_C@_00CNPNBAHC@?$AA@				; `string'
PUBLIC	??_C@_03HBNNNHNM@map?$AA@			; `string'
PUBLIC	_rkLoader$GSCopy$
PUBLIC	__$ArrayPad$
PUBLIC	?LoadWorldMesh@ioWorldMesh@@QAE_NAAVioINILoader@@@Z ; ioWorldMesh::LoadWorldMesh
EXTRN	__imp_?GetFileName@ioINILoader@@QBEPBDXZ:PROC
EXTRN	__imp_?GetCollisionBox@ioEntityGroup@@QBEABVioOrientBox@@XZ:PROC
EXTRN	__imp_?LoadGroup@ioEntityGroup@@QAE_NPBD_N@Z:PROC
EXTRN	__imp_?SetEachEntityCull@ioEntityGroup@@QAEX_N@Z:PROC
EXTRN	__imp_?SetLightApplyMask@ioEntityGroup@@QAEXK@Z:PROC
EXTRN	__imp__sprintf:PROC
;	COMDAT ??_C@_0DH@IMDOLIIG@ioWorldMesh?3?3LoadWorldMesh?5?$CFs?5me@
; File d:\lost saga for developer\youtube\tutorial\source\src\lsclient\stringprotect.h
CONST	SEGMENT
??_C@_0DH@IMDOLIIG@ioWorldMesh?3?3LoadWorldMesh?5?$CFs?5me@ DB 'ioWorldMe'
	DB	'sh::LoadWorldMesh %s mesh_name Emtpy No Multi', 00H ; `string'
CONST	ENDS
;	COMDAT ??_C@_0DI@HDAPAEHE@ioWorldMesh?3?3LoadWorldMesh?5?$CFs?5me@
CONST	SEGMENT
??_C@_0DI@HDAPAEHE@ioWorldMesh?3?3LoadWorldMesh?5?$CFs?5me@ DB 'ioWorldMe'
	DB	'sh::LoadWorldMesh %s mesh_name Emtpy Multi(%d)', 00H ; `string'
CONST	ENDS
;	COMDAT ??_C@_00CNPNBAHC@?$AA@
CONST	SEGMENT
??_C@_00CNPNBAHC@?$AA@ DB 00H				; `string'
CONST	ENDS
;	COMDAT ??_C@_03HBNNNHNM@map?$AA@
CONST	SEGMENT
??_C@_03HBNNNHNM@map?$AA@ DB 'map', 00H			; `string'
; Function compile flags: /Ogsp
; File d:\lost saga for developer\youtube\tutorial\source\src\lsclient\ioworldmesh.cpp
CONST	ENDS
;	COMDAT ?LoadWorldMesh@ioWorldMesh@@QAE_NAAVioINILoader@@@Z
_TEXT	SEGMENT
tv1710 = -568						; size = 4
_rkLoader$GSCopy$ = -564				; size = 4
_i$507016 = -560					; size = 4
_szKey$507020 = -556					; size = 260
_szMeshName$507181 = -296				; size = 260
_szMeshName$507174 = -296				; size = 260
___encStr$507024 = -36					; size = 12
__k$518059 = -20					; size = 10
_kEntityGroup$507198 = -16				; size = 8
_kEntityGroup$507177 = -16				; size = 8
__$ArrayPad$ = -4					; size = 4
_rkLoader$ = 8						; size = 4
?LoadWorldMesh@ioWorldMesh@@QAE_NAAVioINILoader@@@Z PROC ; ioWorldMesh::LoadWorldMesh, COMDAT
; _this$ = ecx

; 107  : {

  00000	55		 push	 ebp
  00001	8b ec		 mov	 ebp, esp
  00003	81 ec 38 02 00
	00		 sub	 esp, 568		; 00000238H
  00009	a1 00 00 00 00	 mov	 eax, DWORD PTR ___security_cookie
  0000e	33 c5		 xor	 eax, ebp
  00010	89 45 fc	 mov	 DWORD PTR __$ArrayPad$[ebp], eax
  00013	53		 push	 ebx
  00014	8b d9		 mov	 ebx, ecx

; 108  : 	if( m_pCreator == NULL ) return false;

  00016	8b 43 04	 mov	 eax, DWORD PTR [ebx+4]
  00019	56		 push	 esi
  0001a	8b 75 08	 mov	 esi, DWORD PTR _rkLoader$[ebp]

; 159  : 		}
; 160  : 
; 161  : 		EntityGroupData kEntityGroup;
; 162  : 		kEntityGroup.m_iMapIndex = 0;

  0001d	89 b5 cc fd ff
	ff		 mov	 DWORD PTR _rkLoader$GSCopy$[ebp], esi
  00023	85 c0		 test	 eax, eax
  00025	75 07		 jne	 SHORT $LN108@LoadWorldM

; 108  : 	if( m_pCreator == NULL ) return false;

  00027	32 c0		 xor	 al, al
  00029	e9 cd 02 00 00	 jmp	 $LN109@LoadWorldM
$LN108@LoadWorldM:

; 109  : 
; 110  : 	if( m_pCreator->IsMultiMap() )

  0002e	80 b8 9d 05 00
	00 00		 cmp	 BYTE PTR [eax+1437], 0
  00035	57		 push	 edi

; 111  : 	{
; 112  : 		rkLoader.SetTitle( "map" );

  00036	68 00 00 00 00	 push	 OFFSET ??_C@_03HBNNNHNM@map?$AA@
  0003b	8b ce		 mov	 ecx, esi
  0003d	0f 84 ac 01 00
	00		 je	 $LN107@LoadWorldM
  00043	ff 15 00 00 00
	00		 call	 DWORD PTR __imp_?SetTitle@ioINILoader@@QAEXPBD@Z

; 113  : 
; 114  : 		for(int i = 0;i < m_pCreator->GetMaxMultiMapCount();i++)

  00049	8b 43 04	 mov	 eax, DWORD PTR [ebx+4]
  0004c	83 a5 d0 fd ff
	ff 00		 and	 DWORD PTR _i$507016[ebp], 0
  00053	83 b8 a4 05 00
	00 00		 cmp	 DWORD PTR [eax+1444], 0
  0005a	7f 1b		 jg	 SHORT $LN106@LoadWorldM
$LN104@LoadWorldM:

; 146  : 		}
; 147  : 		SetMultiMapCurrentIndex( m_pCreator->GetMultiMapCurrentIndex() );

  0005c	8b 43 04	 mov	 eax, DWORD PTR [ebx+4]
  0005f	ff b0 a0 05 00
	00		 push	 DWORD PTR [eax+1440]
  00065	8b cb		 mov	 ecx, ebx
  00067	e8 00 00 00 00	 call	 ?SetMultiMapCurrentIndex@ioWorldMesh@@QAEXH@Z ; ioWorldMesh::SetMultiMapCurrentIndex

; 148  : 	}
; 149  : 	else

  0006c	e9 87 02 00 00	 jmp	 $LN2@LoadWorldM
$LL244@LoadWorldM:

; 113  : 
; 114  : 		for(int i = 0;i < m_pCreator->GetMaxMultiMapCount();i++)

  00071	8b b5 cc fd ff
	ff		 mov	 esi, DWORD PTR _rkLoader$GSCopy$[ebp]
$LN106@LoadWorldM:

; 115  : 		{
; 116  : 			char szKey[MAX_PATH];
; 117  : 			sprintf_e( szKey, "mesh_name%d", i + 1 );

  00077	6a 02		 push	 2
  00079	c7 45 dc 80 89
	98 82		 mov	 DWORD PTR ___encStr$507024[ebp], -2103932544 ; 82988980H
  00080	c7 45 e0 b2 82
	8a 87		 mov	 DWORD PTR ___encStr$507024[ebp+4], -2020965710 ; 878a82b2H
  00087	8d 45 dc	 lea	 eax, DWORD PTR ___encStr$507024[ebp]
  0008a	c7 45 e4 88 c9
	8f 00		 mov	 DWORD PTR ___encStr$507024[ebp+8], 9423240 ; 008fc988H
  00091	59		 pop	 ecx
$LL120@LoadWorldM:
  00092	81 30 ed ec eb
	ea		 xor	 DWORD PTR [eax], -353637139 ; eaebecedH
  00098	83 c0 04	 add	 eax, 4
  0009b	49		 dec	 ecx
  0009c	75 f4		 jne	 SHORT $LL120@LoadWorldM
  0009e	6a 08		 push	 8
  000a0	5f		 pop	 edi
$LL117@LoadWorldM:
  000a1	8b c7		 mov	 eax, edi
  000a3	25 03 00 00 80	 and	 eax, -2147483645	; 80000003H
  000a8	79 05		 jns	 SHORT $LN246@LoadWorldM
  000aa	48		 dec	 eax
  000ab	83 c8 fc	 or	 eax, -4			; fffffffcH
  000ae	40		 inc	 eax
$LN246@LoadWorldM:
  000af	b1 ed		 mov	 cl, -19			; ffffffedH
  000b1	2a c8		 sub	 cl, al
  000b3	30 4c 3d dc	 xor	 BYTE PTR ___encStr$507024[ebp+edi], cl
  000b7	47		 inc	 edi
  000b8	83 ff 0b	 cmp	 edi, 11			; 0000000bH
  000bb	7c e4		 jl	 SHORT $LL117@LoadWorldM
  000bd	8b 85 d0 fd ff
	ff		 mov	 eax, DWORD PTR _i$507016[ebp]
  000c3	40		 inc	 eax
  000c4	50		 push	 eax
  000c5	89 85 c8 fd ff
	ff		 mov	 DWORD PTR tv1710[ebp], eax
  000cb	8d 45 dc	 lea	 eax, DWORD PTR ___encStr$507024[ebp]
  000ce	50		 push	 eax
  000cf	8d 85 d4 fd ff
	ff		 lea	 eax, DWORD PTR _szKey$507020[ebp]
  000d5	50		 push	 eax
  000d6	ff 15 00 00 00
	00		 call	 DWORD PTR __imp__sprintf
  000dc	83 c4 0c	 add	 esp, 12			; 0000000cH

; 118  : 
; 119  : 			char szMeshName[MAX_PATH];
; 120  : 			rkLoader.LoadString( szKey, "", szMeshName, MAX_PATH );

  000df	68 04 01 00 00	 push	 260			; 00000104H
  000e4	8d 85 d8 fe ff
	ff		 lea	 eax, DWORD PTR _szMeshName$507174[ebp]
  000ea	50		 push	 eax
  000eb	bf 00 00 00 00	 mov	 edi, OFFSET ??_C@_00CNPNBAHC@?$AA@
  000f0	57		 push	 edi
  000f1	8d 85 d4 fd ff
	ff		 lea	 eax, DWORD PTR _szKey$507020[ebp]
  000f7	50		 push	 eax
  000f8	8b ce		 mov	 ecx, esi
  000fa	ff 15 00 00 00
	00		 call	 DWORD PTR __imp_?LoadStringA@ioINILoader@@QAEXPBD0PADH@Z

; 121  : 			if( !strcmp( szMeshName, "" ) )

  00100	33 c9		 xor	 ecx, ecx
  00102	41		 inc	 ecx
  00103	8d b5 d8 fe ff
	ff		 lea	 esi, DWORD PTR _szMeshName$507174[ebp]
  00109	33 c0		 xor	 eax, eax
  0010b	f3 a6		 repe cmpsb
  0010d	0f 84 ac 00 00
	00		 je	 $LN236@LoadWorldM

; 125  : 			}
; 126  : 
; 127  : 			EntityGroupData kEntityGroup;
; 128  : 			kEntityGroup.m_iMapIndex = i;
; 129  : 			kEntityGroup.m_pGroup    = m_pCreator->CreateEntityGrp();

  00113	8b 4b 04	 mov	 ecx, DWORD PTR [ebx+4]
  00116	8b bd d0 fd ff
	ff		 mov	 edi, DWORD PTR _i$507016[ebp]
  0011c	8b 01		 mov	 eax, DWORD PTR [ecx]
  0011e	89 7d f0	 mov	 DWORD PTR _kEntityGroup$507177[ebp], edi
  00121	ff 50 30	 call	 DWORD PTR [eax+48]

; 130  : 
; 131  : 			ioSceneNode *pSNode = m_pCreator->GetRootSceneNode()->CreateChildSceneNode();

  00124	8b 4b 04	 mov	 ecx, DWORD PTR [ebx+4]
  00127	8b f0		 mov	 esi, eax
  00129	8b 01		 mov	 eax, DWORD PTR [ecx]
  0012b	89 75 f4	 mov	 DWORD PTR _kEntityGroup$507177[ebp+4], esi
  0012e	ff 50 28	 call	 DWORD PTR [eax+40]
  00131	8b 10		 mov	 edx, DWORD PTR [eax]
  00133	8b c8		 mov	 ecx, eax
  00135	ff 92 c4 00 00
	00		 call	 DWORD PTR [edx+196]

; 132  : 			pSNode->AttachObject( kEntityGroup.m_pGroup );

  0013b	8b 10		 mov	 edx, DWORD PTR [eax]
  0013d	56		 push	 esi
  0013e	8b c8		 mov	 ecx, eax
  00140	ff 92 ac 00 00
	00		 call	 DWORD PTR [edx+172]

; 133  : 
; 134  : 			kEntityGroup.m_pGroup->SetLightApplyMask( APPLY_SECOND_MAIN_LIGHT );

  00146	6a 02		 push	 2
  00148	8b ce		 mov	 ecx, esi
  0014a	ff 15 00 00 00
	00		 call	 DWORD PTR __imp_?SetLightApplyMask@ioEntityGroup@@QAEXK@Z

; 135  : 			kEntityGroup.m_pGroup->SetEachEntityCull( true );

  00150	6a 01		 push	 1
  00152	8b ce		 mov	 ecx, esi
  00154	ff 15 00 00 00
	00		 call	 DWORD PTR __imp_?SetEachEntityCull@ioEntityGroup@@QAEX_N@Z

; 136  : 			kEntityGroup.m_pGroup->LoadGroup( szMeshName, false );

  0015a	6a 00		 push	 0
  0015c	8d 85 d8 fe ff
	ff		 lea	 eax, DWORD PTR _szMeshName$507174[ebp]
  00162	50		 push	 eax
  00163	8b ce		 mov	 ecx, esi
  00165	ff 15 00 00 00
	00		 call	 DWORD PTR __imp_?LoadGroup@ioEntityGroup@@QAE_NPBD_N@Z

; 137  : 
; 138  : 			kEntityGroup.m_pGroup->SetLightReceiveType( LRT_ALL_REAL_TIME );

  0016b	8b 06		 mov	 eax, DWORD PTR [esi]
  0016d	6a 00		 push	 0
  0016f	8b ce		 mov	 ecx, esi
  00171	ff 50 1c	 call	 DWORD PTR [eax+28]

; 139  : 			kEntityGroup.m_pGroup->SetRenderQueueGroup( RENDER_PRE_WORLD );

  00174	8b 06		 mov	 eax, DWORD PTR [esi]
  00176	6a 19		 push	 25			; 00000019H
  00178	8b ce		 mov	 ecx, esi
  0017a	ff 50 24	 call	 DWORD PTR [eax+36]

; 140  : 
; 141  : 			if( i == 0 )

  0017d	85 ff		 test	 edi, edi
  0017f	75 12		 jne	 SHORT $LN3@LoadWorldM

; 142  : 			{	//    
; 143  : 				m_WorldAABB.SetByOrientBox( kEntityGroup.m_pGroup->GetCollisionBox() );

  00181	8b ce		 mov	 ecx, esi
  00183	ff 15 00 00 00
	00		 call	 DWORD PTR __imp_?GetCollisionBox@ioEntityGroup@@QBEABVioOrientBox@@XZ
  00189	50		 push	 eax
  0018a	8d 4b 38	 lea	 ecx, DWORD PTR [ebx+56]
  0018d	ff 15 00 00 00
	00		 call	 DWORD PTR __imp_?SetByOrientBox@ioAxisAlignBox@@QAEXABVioOrientBox@@@Z
$LN3@LoadWorldM:

; 144  : 			}
; 145  : 			m_GroupList.push_back( kEntityGroup );

  00193	8d 45 f0	 lea	 eax, DWORD PTR _kEntityGroup$507177[ebp]
  00196	50		 push	 eax
  00197	8d 4b 08	 lea	 ecx, DWORD PTR [ebx+8]
  0019a	e8 00 00 00 00	 call	 ?push_back@?$vector@UEntityGroupData@ioWorldMesh@@V?$allocator@UEntityGroupData@ioWorldMesh@@@std@@@std@@QAEXABUEntityGroupData@ioWorldMesh@@@Z ; std::vector<ioWorldMesh::EntityGroupData,std::allocator<ioWorldMesh::EntityGroupData> >::push_back
  0019f	8b 85 c8 fd ff
	ff		 mov	 eax, DWORD PTR tv1710[ebp]
  001a5	8b 4b 04	 mov	 ecx, DWORD PTR [ebx+4]
  001a8	89 85 d0 fd ff
	ff		 mov	 DWORD PTR _i$507016[ebp], eax
  001ae	3b 81 a4 05 00
	00		 cmp	 eax, DWORD PTR [ecx+1444]
  001b4	0f 8c b7 fe ff
	ff		 jl	 $LL244@LoadWorldM

; 121  : 			if( !strcmp( szMeshName, "" ) )

  001ba	e9 9d fe ff ff	 jmp	 $LN104@LoadWorldM
$LN236@LoadWorldM:

; 122  : 			{
; 123  : 				LOG.PrintTimeAndLog( 0, "ioWorldMesh::LoadWorldMesh %s mesh_name Emtpy Multi(%d)", rkLoader.GetFileName(), i + 1 );

  001bf	8b 85 d0 fd ff
	ff		 mov	 eax, DWORD PTR _i$507016[ebp]
  001c5	8b 8d cc fd ff
	ff		 mov	 ecx, DWORD PTR _rkLoader$GSCopy$[ebp]
  001cb	40		 inc	 eax
  001cc	50		 push	 eax
  001cd	ff 15 00 00 00
	00		 call	 DWORD PTR __imp_?GetFileName@ioINILoader@@QBEPBDXZ
  001d3	50		 push	 eax
  001d4	68 00 00 00 00	 push	 OFFSET ??_C@_0DI@HDAPAEHE@ioWorldMesh?3?3LoadWorldMesh?5?$CFs?5me@
  001d9	6a 00		 push	 0
  001db	ff 35 00 00 00
	00		 push	 DWORD PTR __imp_?LOG@@3VCLog@@A
  001e1	ff 15 00 00 00
	00		 call	 DWORD PTR __imp_?PrintTimeAndLog@CLog@@QAAXHPADZZ
  001e7	83 c4 14	 add	 esp, 20			; 00000014H

; 124  : 				return false;

  001ea	e9 80 00 00 00	 jmp	 $LN247@LoadWorldM
$LN107@LoadWorldM:

; 150  : 	{
; 151  : 		rkLoader.SetTitle( "map" );

  001ef	ff 15 00 00 00
	00		 call	 DWORD PTR __imp_?SetTitle@ioINILoader@@QAEXPBD@Z
  001f5	6a 02		 push	 2

; 152  : 
; 153  : 		char szMeshName[MAX_PATH];
; 154  : 		rkLoader.LoadString_e( "mesh_name", "", szMeshName, MAX_PATH );

  001f7	c7 45 ec 80 89
	98 82		 mov	 DWORD PTR __k$518059[ebp], -2103932544 ; 82988980H
  001fe	c7 45 f0 b2 82
	8a 87		 mov	 DWORD PTR __k$518059[ebp+4], -2020965710 ; 878a82b2H
  00205	8d 45 ec	 lea	 eax, DWORD PTR __k$518059[ebp]
  00208	66 c7 45 f4 88
	00		 mov	 WORD PTR __k$518059[ebp+8], 136 ; 00000088H
  0020e	59		 pop	 ecx
$LL228@LoadWorldM:
  0020f	81 30 ed ec eb
	ea		 xor	 DWORD PTR [eax], -353637139 ; eaebecedH
  00215	83 c0 04	 add	 eax, 4
  00218	49		 dec	 ecx
  00219	75 f4		 jne	 SHORT $LL228@LoadWorldM
  0021b	80 75 f4 ed	 xor	 BYTE PTR __k$518059[ebp+8], -19 ; ffffffedH
  0021f	68 04 01 00 00	 push	 260			; 00000104H
  00224	8d 85 d8 fe ff
	ff		 lea	 eax, DWORD PTR _szMeshName$507181[ebp]
  0022a	50		 push	 eax
  0022b	bf 00 00 00 00	 mov	 edi, OFFSET ??_C@_00CNPNBAHC@?$AA@
  00230	57		 push	 edi
  00231	8d 45 ec	 lea	 eax, DWORD PTR __k$518059[ebp]
  00234	50		 push	 eax
  00235	8b ce		 mov	 ecx, esi
  00237	ff 15 00 00 00
	00		 call	 DWORD PTR __imp_?LoadStringA@ioINILoader@@QAEXPBD0PADH@Z

; 155  : 		if( !strcmp( szMeshName, "" ) )

  0023d	33 c9		 xor	 ecx, ecx
  0023f	41		 inc	 ecx
  00240	8d b5 d8 fe ff
	ff		 lea	 esi, DWORD PTR _szMeshName$507181[ebp]
  00246	33 c0		 xor	 eax, eax
  00248	f3 a6		 repe cmpsb
  0024a	75 2a		 jne	 SHORT $LN1@LoadWorldM

; 156  : 		{
; 157  : 			LOG.PrintTimeAndLog( 0, "ioWorldMesh::LoadWorldMesh %s mesh_name Emtpy No Multi", rkLoader.GetFileName() );

  0024c	8b 8d cc fd ff
	ff		 mov	 ecx, DWORD PTR _rkLoader$GSCopy$[ebp]
  00252	ff 15 00 00 00
	00		 call	 DWORD PTR __imp_?GetFileName@ioINILoader@@QBEPBDXZ
  00258	50		 push	 eax
  00259	68 00 00 00 00	 push	 OFFSET ??_C@_0DH@IMDOLIIG@ioWorldMesh?3?3LoadWorldMesh?5?$CFs?5me@
  0025e	6a 00		 push	 0
  00260	ff 35 00 00 00
	00		 push	 DWORD PTR __imp_?LOG@@3VCLog@@A
  00266	ff 15 00 00 00
	00		 call	 DWORD PTR __imp_?PrintTimeAndLog@CLog@@QAAXHPADZZ
  0026c	83 c4 10	 add	 esp, 16			; 00000010H
$LN247@LoadWorldM:

; 158  : 			return false;

  0026f	32 c0		 xor	 al, al
  00271	e9 84 00 00 00	 jmp	 $LN245@LoadWorldM
$LN1@LoadWorldM:

; 163  : 		kEntityGroup.m_pGroup    = m_pCreator->CreateEntityGrp();

  00276	8b 4b 04	 mov	 ecx, DWORD PTR [ebx+4]
  00279	8b 01		 mov	 eax, DWORD PTR [ecx]
  0027b	33 ff		 xor	 edi, edi
  0027d	89 7d f0	 mov	 DWORD PTR _kEntityGroup$507198[ebp], edi
  00280	ff 50 30	 call	 DWORD PTR [eax+48]

; 164  : 
; 165  : 		ioSceneNode *pSNode = m_pCreator->GetRootSceneNode()->CreateChildSceneNode();

  00283	8b 4b 04	 mov	 ecx, DWORD PTR [ebx+4]
  00286	8b f0		 mov	 esi, eax
  00288	8b 01		 mov	 eax, DWORD PTR [ecx]
  0028a	89 75 f4	 mov	 DWORD PTR _kEntityGroup$507198[ebp+4], esi
  0028d	ff 50 28	 call	 DWORD PTR [eax+40]
  00290	8b 10		 mov	 edx, DWORD PTR [eax]
  00292	8b c8		 mov	 ecx, eax
  00294	ff 92 c4 00 00
	00		 call	 DWORD PTR [edx+196]

; 166  : 		pSNode->AttachObject( kEntityGroup.m_pGroup );

  0029a	8b 10		 mov	 edx, DWORD PTR [eax]
  0029c	56		 push	 esi
  0029d	8b c8		 mov	 ecx, eax
  0029f	ff 92 ac 00 00
	00		 call	 DWORD PTR [edx+172]

; 167  : 
; 168  : 		kEntityGroup.m_pGroup->SetLightApplyMask( APPLY_SECOND_MAIN_LIGHT );

  002a5	6a 02		 push	 2
  002a7	8b ce		 mov	 ecx, esi
  002a9	ff 15 00 00 00
	00		 call	 DWORD PTR __imp_?SetLightApplyMask@ioEntityGroup@@QAEXK@Z

; 169  : 		kEntityGroup.m_pGroup->SetEachEntityCull( true );

  002af	6a 01		 push	 1
  002b1	8b ce		 mov	 ecx, esi
  002b3	ff 15 00 00 00
	00		 call	 DWORD PTR __imp_?SetEachEntityCull@ioEntityGroup@@QAEX_N@Z

; 170  : 		kEntityGroup.m_pGroup->LoadGroup( szMeshName, false );

  002b9	57		 push	 edi
  002ba	8d 85 d8 fe ff
	ff		 lea	 eax, DWORD PTR _szMeshName$507181[ebp]
  002c0	50		 push	 eax
  002c1	8b ce		 mov	 ecx, esi
  002c3	ff 15 00 00 00
	00		 call	 DWORD PTR __imp_?LoadGroup@ioEntityGroup@@QAE_NPBD_N@Z

; 171  : 
; 172  : 		kEntityGroup.m_pGroup->SetLightReceiveType( LRT_ALL_REAL_TIME );

  002c9	8b 06		 mov	 eax, DWORD PTR [esi]
  002cb	57		 push	 edi
  002cc	8b ce		 mov	 ecx, esi
  002ce	ff 50 1c	 call	 DWORD PTR [eax+28]

; 173  : 		kEntityGroup.m_pGroup->SetRenderQueueGroup( RENDER_PRE_WORLD );

  002d1	8b 06		 mov	 eax, DWORD PTR [esi]
  002d3	6a 19		 push	 25			; 00000019H
  002d5	8b ce		 mov	 ecx, esi
  002d7	ff 50 24	 call	 DWORD PTR [eax+36]

; 174  : 
; 175  : 		m_WorldAABB.SetByOrientBox( kEntityGroup.m_pGroup->GetCollisionBox() );		

  002da	8b ce		 mov	 ecx, esi
  002dc	ff 15 00 00 00
	00		 call	 DWORD PTR __imp_?GetCollisionBox@ioEntityGroup@@QBEABVioOrientBox@@XZ
  002e2	50		 push	 eax
  002e3	8d 4b 38	 lea	 ecx, DWORD PTR [ebx+56]
  002e6	ff 15 00 00 00
	00		 call	 DWORD PTR __imp_?SetByOrientBox@ioAxisAlignBox@@QAEXABVioOrientBox@@@Z

; 176  : 		m_GroupList.push_back( kEntityGroup );

  002ec	8d 45 f0	 lea	 eax, DWORD PTR _kEntityGroup$507198[ebp]
  002ef	50		 push	 eax
  002f0	8d 4b 08	 lea	 ecx, DWORD PTR [ebx+8]
  002f3	e8 00 00 00 00	 call	 ?push_back@?$vector@UEntityGroupData@ioWorldMesh@@V?$allocator@UEntityGroupData@ioWorldMesh@@@std@@@std@@QAEXABUEntityGroupData@ioWorldMesh@@@Z ; std::vector<ioWorldMesh::EntityGroupData,std::allocator<ioWorldMesh::EntityGroupData> >::push_back
$LN2@LoadWorldM:

; 177  : 	}
; 178  : 	return true;

  002f8	b0 01		 mov	 al, 1
$LN245@LoadWorldM:
  002fa	5f		 pop	 edi
$LN109@LoadWorldM:

; 179  : }

  002fb	8b 4d fc	 mov	 ecx, DWORD PTR __$ArrayPad$[ebp]
  002fe	5e		 pop	 esi
  002ff	33 cd		 xor	 ecx, ebp
  00301	5b		 pop	 ebx
  00302	e8 00 00 00 00	 call	 @__security_check_cookie@4
  00307	c9		 leave
  00308	c2 04 00	 ret	 4
?LoadWorldMesh@ioWorldMesh@@QAE_NAAVioINILoader@@@Z ENDP ; ioWorldMesh::LoadWorldMesh
_TEXT	ENDS
PUBLIC	??_C@_09IHGAJPPK@DecalToon?$AA@			; `string'
PUBLIC	__real@be99999a
PUBLIC	__real@4f800000
PUBLIC	_iMapIndex$GSCopy$
PUBLIC	_this$GSCopy$
PUBLIC	?BuildOmniLightDecal@ioWorldMesh@@IAEXHPAVioLight@@@Z ; ioWorldMesh::BuildOmniLightDecal
EXTRN	__imp_??1ioSphere@@QAE@XZ:PROC
EXTRN	__imp_??1ioOrientBox@@QAE@XZ:PROC
EXTRN	__imp_?AddDecal@ioEntityGroup@@QAEXPAVioDecal@@@Z:PROC
EXTRN	__imp_?Load@ioMaterial@@QAEXW4ErasePolicy@@@Z:PROC
EXTRN	__imp_?SetTextureAddressMode@ioTextureUnitState@@QAEXW4TextureAddressMode@@@Z:PROC
EXTRN	__imp_?SetAlphaStageBlendOp@ioTextureUnitState@@QAEXW4_D3DTEXTUREOP@@KK@Z:PROC
EXTRN	__imp_?SetColorStageBlendOp@ioTextureUnitState@@QAEXW4_D3DTEXTUREOP@@KK@Z:PROC
EXTRN	__imp_?CreateTextureUnitState@ioPass@@QAEPAVioTextureUnitState@@ABVioHashString@@@Z:PROC
EXTRN	__imp_?SetLightingEnable@ioPass@@QAEX_N@Z:PROC
EXTRN	__imp_?SetDepthBias@ioPass@@QAEXMM@Z:PROC
EXTRN	__imp_?SetDepthWriteEnable@ioPass@@QAEX_N@Z:PROC
EXTRN	__imp_?SetDepthCheckEnable@ioPass@@QAEX_N@Z:PROC
EXTRN	__imp_?SetSceneBlending@ioPass@@QAEXW4_D3DBLENDOP@@W4_D3DBLEND@@1@Z:PROC
EXTRN	__imp_?SetShaderGroup@ioPass@@QAEXABVioHashString@@@Z:PROC
EXTRN	__imp_??0ioHashString@@QAE@PBD@Z:PROC
EXTRN	__imp_?CreatePass@ioTechnique@@QAEPAVioPass@@XZ:PROC
EXTRN	__imp_?CreateTechnique@ioMaterial@@QAEPAVioTechnique@@XZ:PROC
EXTRN	__imp_?SetDiffuse@ioMaterial@@QAEXABU_D3DCOLORVALUE@@@Z:PROC
EXTRN	__imp_?GetDiffuseColor@ioLight@@QBEABU_D3DCOLORVALUE@@XZ:PROC
EXTRN	__imp_?GetName@ioLight@@QBEABVioHashString@@XZ:PROC
EXTRN	__imp_?SetBoxByMinMax@ioOrientBox@@QAEXABUD3DXVECTOR3@@0@Z:PROC
EXTRN	__imp_??0ioOrientBox@@QAE@XZ:PROC
EXTRN	__imp_??0ioSphere@@QAE@ABUD3DXVECTOR3@@M@Z:PROC
EXTRN	__imp_?GetAttenuationRange@ioLight@@QBEMXZ:PROC
EXTRN	__imp_?GetDecalTextureName@ioLight@@QBEPBDXZ:PROC
;	COMDAT ??_C@_09IHGAJPPK@DecalToon?$AA@
; File d:\lost saga for developer\youtube\tutorial\source\src\lsclient\stdafx.h
CONST	SEGMENT
??_C@_09IHGAJPPK@DecalToon?$AA@ DB 'DecalToon', 00H	; `string'
CONST	ENDS
;	COMDAT __real@be99999a
CONST	SEGMENT
__real@be99999a DD 0be99999ar			; -0.3
CONST	ENDS
;	COMDAT __real@4f800000
CONST	SEGMENT
__real@4f800000 DD 04f800000r			; 4.29497e+009
CONST	ENDS
;	COMDAT xdata$x
xdata$x	SEGMENT
__ehfuncinfo$?BuildOmniLightDecal@ioWorldMesh@@IAEXHPAVioLight@@@Z DD 019930522H
	DD	05H
	DD	FLAT:__unwindtable$?BuildOmniLightDecal@ioWorldMesh@@IAEXHPAVioLight@@@Z
	DD	2 DUP(00H)
	DD	2 DUP(00H)
	DD	00H
	DD	01H
__unwindtable$?BuildOmniLightDecal@ioWorldMesh@@IAEXHPAVioLight@@@Z DD 0ffffffffH
	DD	FLAT:__unwindfunclet$?BuildOmniLightDecal@ioWorldMesh@@IAEXHPAVioLight@@@Z$0
	DD	00H
	DD	FLAT:__unwindfunclet$?BuildOmniLightDecal@ioWorldMesh@@IAEXHPAVioLight@@@Z$1
	DD	01H
	DD	FLAT:__unwindfunclet$?BuildOmniLightDecal@ioWorldMesh@@IAEXHPAVioLight@@@Z$2
	DD	02H
	DD	FLAT:__unwindfunclet$?BuildOmniLightDecal@ioWorldMesh@@IAEXHPAVioLight@@@Z$3
	DD	02H
	DD	FLAT:__unwindfunclet$?BuildOmniLightDecal@ioWorldMesh@@IAEXHPAVioLight@@@Z$4
; Function compile flags: /Ogsp
; File d:\lost saga for developer\youtube\tutorial\source\src\lsclient\ioworldmesh.cpp
xdata$x	ENDS
;	COMDAT ?BuildOmniLightDecal@ioWorldMesh@@IAEXHPAVioLight@@@Z
_TEXT	SEGMENT
$T518192 = -236						; size = 16
$T518191 = -220						; size = 16
$T518255 = -216						; size = 12
_pGroup$ = -204						; size = 4
_this$GSCopy$ = -200					; size = 4
tv691 = -196						; size = 4
_pDecal$ = -196						; size = 4
_pShape$ = -196						; size = 4
tv609 = -192						; size = 4
tv447 = -192						; size = 4
_iMapIndex$GSCopy$ = -192				; size = 4
tv361 = -192						; size = 4
_pMtl$ = -188						; size = 4
_fRange$ = -188						; size = 4
_kBound$ = -184						; size = 68
_kDownRay$ = -116					; size = 24
$T507446 = -92						; size = 12
_kLightSphere$ = -80					; size = 16
_vColPoint$ = -64					; size = 12
_vMin$ = -52						; size = 12
_vMax$ = -40						; size = 12
_vLightPos$ = -28					; size = 12
__$EHRec$ = -12						; size = 12
_iMapIndex$ = 8						; size = 4
_pLight$ = 12						; size = 4
?BuildOmniLightDecal@ioWorldMesh@@IAEXHPAVioLight@@@Z PROC ; ioWorldMesh::BuildOmniLightDecal, COMDAT
; _this$ = ecx

; 278  : {

  00000	68 e0 00 00 00	 push	 224			; 000000e0H
  00005	b8 00 00 00 00	 mov	 eax, __ehhandler$?BuildOmniLightDecal@ioWorldMesh@@IAEXHPAVioLight@@@Z
  0000a	e8 00 00 00 00	 call	 __EH_prolog3_GS
  0000f	8b 45 08	 mov	 eax, DWORD PTR _iMapIndex$[ebp]
  00012	8b 5d 0c	 mov	 ebx, DWORD PTR _pLight$[ebp]

; 279  : 	ioEntityGroup *pGroup = GetEntityGroup( iMapIndex );

  00015	50		 push	 eax
  00016	89 8d 38 ff ff
	ff		 mov	 DWORD PTR _this$GSCopy$[ebp], ecx
  0001c	89 85 40 ff ff
	ff		 mov	 DWORD PTR _iMapIndex$GSCopy$[ebp], eax
  00022	e8 00 00 00 00	 call	 ?GetEntityGroup@ioWorldMesh@@IAEPAVioEntityGroup@@H@Z ; ioWorldMesh::GetEntityGroup
  00027	89 85 34 ff ff
	ff		 mov	 DWORD PTR _pGroup$[ebp], eax

; 280  : 	if( !pGroup ) return;

  0002d	85 c0		 test	 eax, eax
  0002f	0f 84 88 04 00
	00		 je	 $LN8@BuildOmniL

; 281  : 	if( !strcmp( pLight->GetDecalTextureName(), "" ) ) return;

  00035	8b cb		 mov	 ecx, ebx
  00037	bf 00 00 00 00	 mov	 edi, OFFSET ??_C@_00CNPNBAHC@?$AA@
  0003c	ff 15 00 00 00
	00		 call	 DWORD PTR __imp_?GetDecalTextureName@ioLight@@QBEPBDXZ
  00042	33 c9		 xor	 ecx, ecx
  00044	8b f0		 mov	 esi, eax
  00046	41		 inc	 ecx
  00047	33 c0		 xor	 eax, eax
  00049	f3 a6		 repe cmpsb
  0004b	0f 84 6c 04 00
	00		 je	 $LN8@BuildOmniL

; 282  : 
; 283  : 	ioOpcodeShape *pShape = GetCollisionShape();

  00051	8b 8d 38 ff ff
	ff		 mov	 ecx, DWORD PTR _this$GSCopy$[ebp]
  00057	e8 00 00 00 00	 call	 ?GetCollisionShape@ioWorldMesh@@QAEPAVioOpcodeShape@@XZ ; ioWorldMesh::GetCollisionShape
  0005c	89 85 3c ff ff
	ff		 mov	 DWORD PTR _pShape$[ebp], eax

; 284  : 	if( !pShape )	return;

  00062	85 c0		 test	 eax, eax
  00064	0f 84 53 04 00
	00		 je	 $LN8@BuildOmniL

; 285  : 
; 286  : 	float fRange = pLight->GetAttenuationRange();

  0006a	8b cb		 mov	 ecx, ebx
  0006c	ff 15 00 00 00
	00		 call	 DWORD PTR __imp_?GetAttenuationRange@ioLight@@QBEMXZ
  00072	d9 9d 44 ff ff
	ff		 fstp	 DWORD PTR _fRange$[ebp]

; 287  : 	D3DXVECTOR3 vLightPos = pLight->GetDerivedPosition();

  00078	8b 03		 mov	 eax, DWORD PTR [ebx]
  0007a	8b cb		 mov	 ecx, ebx
  0007c	ff 50 60	 call	 DWORD PTR [eax+96]

; 288  : 
; 289  : 	ioSphere kLightSphere( vLightPos, fRange );

  0007f	f3 0f 10 85 44
	ff ff ff	 movss	 xmm0, DWORD PTR _fRange$[ebp]
  00087	8b f0		 mov	 esi, eax
  00089	8d 7d e4	 lea	 edi, DWORD PTR _vLightPos$[ebp]
  0008c	a5		 movsd
  0008d	51		 push	 ecx
  0008e	a5		 movsd
  0008f	8d 45 e4	 lea	 eax, DWORD PTR _vLightPos$[ebp]
  00092	f3 0f 11 04 24	 movss	 DWORD PTR [esp], xmm0
  00097	50		 push	 eax
  00098	8d 4d b0	 lea	 ecx, DWORD PTR _kLightSphere$[ebp]
  0009b	a5		 movsd
  0009c	ff 15 00 00 00
	00		 call	 DWORD PTR __imp_??0ioSphere@@QAE@ABUD3DXVECTOR3@@M@Z

; 290  : 	if( !pShape->TestIntersection( NULL, kLightSphere ) )

  000a2	8b b5 3c ff ff
	ff		 mov	 esi, DWORD PTR _pShape$[ebp]
  000a8	8b 06		 mov	 eax, DWORD PTR [esi]
  000aa	33 ff		 xor	 edi, edi
  000ac	57		 push	 edi
  000ad	8d 4d b0	 lea	 ecx, DWORD PTR _kLightSphere$[ebp]
  000b0	51		 push	 ecx
  000b1	57		 push	 edi
  000b2	8b ce		 mov	 ecx, esi
  000b4	89 7d fc	 mov	 DWORD PTR __$EHRec$[ebp+8], edi
  000b7	ff 50 2c	 call	 DWORD PTR [eax+44]
  000ba	84 c0		 test	 al, al

; 291  : 		return;

  000bc	0f 84 ee 03 00
	00		 je	 $LN46@BuildOmniL

; 292  : 
; 293  : 	D3DXVECTOR3 vColPoint;
; 294  : 	ioRay kDownRay( vLightPos, D3DXVECTOR3( 0.0f, -FLOAT1, 0.0f ) );

  000c2	b8 01 00 00 00	 mov	 eax, 1
  000c7	0f 57 c0	 xorps	 xmm0, xmm0
  000ca	89 85 3c ff ff
	ff		 mov	 DWORD PTR tv691[ebp], eax
  000d0	db 85 3c ff ff
	ff		 fild	 DWORD PTR tv691[ebp]
  000d6	f3 0f 11 45 a4	 movss	 DWORD PTR $T507446[ebp], xmm0
  000db	85 c0		 test	 eax, eax
  000dd	79 06		 jns	 SHORT $LN43@BuildOmniL
  000df	d8 05 00 00 00
	00		 fadd	 DWORD PTR __real@4f800000
$LN43@BuildOmniL:
  000e5	8d 45 a4	 lea	 eax, DWORD PTR $T507446[ebp]
  000e8	d9 e0		 fchs
  000ea	50		 push	 eax
  000eb	d9 5d a8	 fstp	 DWORD PTR $T507446[ebp+4]
  000ee	8d 45 e4	 lea	 eax, DWORD PTR _vLightPos$[ebp]
  000f1	50		 push	 eax
  000f2	8d 4d 8c	 lea	 ecx, DWORD PTR _kDownRay$[ebp]
  000f5	f3 0f 11 45 ac	 movss	 DWORD PTR $T507446[ebp+8], xmm0
  000fa	ff 15 00 00 00
	00		 call	 DWORD PTR __imp_??0ioRay@@QAE@ABUD3DXVECTOR3@@0@Z

; 295  : 
; 296  : 	if( !pShape->TestIntersection( NULL, kDownRay, NULL, &vColPoint ) )

  00100	8b 06		 mov	 eax, DWORD PTR [esi]
  00102	6a 01		 push	 1
  00104	8d 4d c0	 lea	 ecx, DWORD PTR _vColPoint$[ebp]
  00107	51		 push	 ecx
  00108	57		 push	 edi
  00109	8d 4d 8c	 lea	 ecx, DWORD PTR _kDownRay$[ebp]
  0010c	51		 push	 ecx
  0010d	57		 push	 edi
  0010e	8b ce		 mov	 ecx, esi
  00110	c6 45 fc 01	 mov	 BYTE PTR __$EHRec$[ebp+8], 1
  00114	ff 50 28	 call	 DWORD PTR [eax+40]
  00117	84 c0		 test	 al, al

; 297  : 		return;

  00119	0f 84 84 03 00
	00		 je	 $LN47@BuildOmniL

; 298  : 
; 299  : 	float fDist = D3DXVec3Length( &(vLightPos - vColPoint) );

  0011f	f3 0f 10 45 e4	 movss	 xmm0, DWORD PTR _vLightPos$[ebp]
  00124	f3 0f 10 4d c0	 movss	 xmm1, DWORD PTR _vColPoint$[ebp]
  00129	f3 0f 10 55 c4	 movss	 xmm2, DWORD PTR _vColPoint$[ebp+4]
  0012e	f3 0f 10 5d c8	 movss	 xmm3, DWORD PTR _vColPoint$[ebp+8]
  00133	0f 5a c0	 cvtps2pd xmm0, xmm0
  00136	0f 5a c9	 cvtps2pd xmm1, xmm1
  00139	f2 0f 5c c1	 subsd	 xmm0, xmm1
  0013d	0f 57 c9	 xorps	 xmm1, xmm1
  00140	f2 0f 5a c8	 cvtsd2ss xmm1, xmm0
  00144	f3 0f 10 45 e8	 movss	 xmm0, DWORD PTR _vLightPos$[ebp+4]
  00149	0f 5a c0	 cvtps2pd xmm0, xmm0
  0014c	0f 5a d2	 cvtps2pd xmm2, xmm2
  0014f	f2 0f 5c c2	 subsd	 xmm0, xmm2
  00153	f3 0f 10 55 ec	 movss	 xmm2, DWORD PTR _vLightPos$[ebp+8]
  00158	66 0f 5a c0	 cvtpd2ps xmm0, xmm0
  0015c	0f 5a d2	 cvtps2pd xmm2, xmm2
  0015f	f3 0f 5a c0	 cvtss2sd xmm0, xmm0
  00163	0f 5a c9	 cvtps2pd xmm1, xmm1
  00166	f2 0f 59 c0	 mulsd	 xmm0, xmm0
  0016a	0f 5a db	 cvtps2pd xmm3, xmm3
  0016d	f2 0f 5c d3	 subsd	 xmm2, xmm3
  00171	66 0f 5a d2	 cvtpd2ps xmm2, xmm2
  00175	f2 0f 59 c9	 mulsd	 xmm1, xmm1
  00179	f2 0f 58 c8	 addsd	 xmm1, xmm0
  0017d	f3 0f 5a d2	 cvtss2sd xmm2, xmm2
  00181	0f 57 c0	 xorps	 xmm0, xmm0
  00184	f2 0f 59 d2	 mulsd	 xmm2, xmm2
  00188	f2 0f 58 ca	 addsd	 xmm1, xmm2

; 300  : 	if( fDist > fRange )	return;

  0018c	f3 0f 10 95 44
	ff ff ff	 movss	 xmm2, DWORD PTR _fRange$[ebp]
  00194	66 0f 5a c1	 cvtpd2ps xmm0, xmm1
  00198	0f 5a c0	 cvtps2pd xmm0, xmm0
  0019b	f2 0f 51 c0	 sqrtsd	 xmm0, xmm0
  0019f	66 0f 5a c0	 cvtpd2ps xmm0, xmm0
  001a3	0f 57 c9	 xorps	 xmm1, xmm1
  001a6	f3 0f 5a c8	 cvtss2sd xmm1, xmm0
  001aa	0f 5a da	 cvtps2pd xmm3, xmm2
  001ad	66 0f 2f cb	 comisd	 xmm1, xmm3
  001b1	0f 87 ec 02 00
	00		 ja	 $LN47@BuildOmniL

; 301  : 
; 302  : 	fDist = sqrt( fRange*fRange - fDist*fDist );

  001b7	0f 5a ca	 cvtps2pd xmm1, xmm2
  001ba	f2 0f 59 c9	 mulsd	 xmm1, xmm1

; 303  : 
; 304  : 	D3DXVECTOR3 vMin, vMax;
; 305  : 	vMin = vMax = vLightPos;

  001be	8d 75 e4	 lea	 esi, DWORD PTR _vLightPos$[ebp]
  001c1	8d 7d d8	 lea	 edi, DWORD PTR _vMax$[ebp]
  001c4	a5		 movsd
  001c5	a5		 movsd
  001c6	a5		 movsd
  001c7	f3 0f 5a c0	 cvtss2sd xmm0, xmm0
  001cb	f2 0f 59 c0	 mulsd	 xmm0, xmm0
  001cf	f2 0f 5c c8	 subsd	 xmm1, xmm0
  001d3	0f 57 c0	 xorps	 xmm0, xmm0
  001d6	66 0f 5a c1	 cvtpd2ps xmm0, xmm1

; 306  : 	vMin.x -= fDist;

  001da	f3 0f 10 4d e4	 movss	 xmm1, DWORD PTR _vLightPos$[ebp]
  001df	0f 5a c9	 cvtps2pd xmm1, xmm1
  001e2	8d 75 e4	 lea	 esi, DWORD PTR _vLightPos$[ebp]
  001e5	8d 7d cc	 lea	 edi, DWORD PTR _vMin$[ebp]
  001e8	a5		 movsd
  001e9	0f 5a c0	 cvtps2pd xmm0, xmm0
  001ec	a5		 movsd
  001ed	0f 57 db	 xorps	 xmm3, xmm3
  001f0	f2 0f 51 c0	 sqrtsd	 xmm0, xmm0
  001f4	66 0f 5a c0	 cvtpd2ps xmm0, xmm0
  001f8	f3 0f 5a d8	 cvtss2sd xmm3, xmm0
  001fc	f2 0f 5c cb	 subsd	 xmm1, xmm3
  00200	f2 0f 5a c9	 cvtsd2ss xmm1, xmm1
  00204	a5		 movsd
  00205	f3 0f 11 4d cc	 movss	 DWORD PTR _vMin$[ebp], xmm1

; 307  : 	vMin.y -= fRange;

  0020a	f3 0f 10 4d d0	 movss	 xmm1, DWORD PTR _vMin$[ebp+4]
  0020f	0f 5a c9	 cvtps2pd xmm1, xmm1
  00212	0f 5a da	 cvtps2pd xmm3, xmm2
  00215	f2 0f 5c cb	 subsd	 xmm1, xmm3
  00219	66 0f 5a c9	 cvtpd2ps xmm1, xmm1
  0021d	f3 0f 11 4d d0	 movss	 DWORD PTR _vMin$[ebp+4], xmm1

; 308  : 	vMin.z -= fDist;

  00222	f3 0f 10 4d d4	 movss	 xmm1, DWORD PTR _vMin$[ebp+8]
  00227	0f 5a c9	 cvtps2pd xmm1, xmm1
  0022a	0f 57 db	 xorps	 xmm3, xmm3
  0022d	f3 0f 5a d8	 cvtss2sd xmm3, xmm0
  00231	f2 0f 5c cb	 subsd	 xmm1, xmm3
  00235	66 0f 5a c9	 cvtpd2ps xmm1, xmm1
  00239	f3 0f 11 4d d4	 movss	 DWORD PTR _vMin$[ebp+8], xmm1

; 309  : 
; 310  : 	vMax.x += fDist;

  0023e	f3 0f 10 4d e4	 movss	 xmm1, DWORD PTR _vLightPos$[ebp]
  00243	0f 5a c9	 cvtps2pd xmm1, xmm1
  00246	0f 57 db	 xorps	 xmm3, xmm3
  00249	f3 0f 5a d8	 cvtss2sd xmm3, xmm0
  0024d	f2 0f 58 cb	 addsd	 xmm1, xmm3
  00251	f2 0f 5a c9	 cvtsd2ss xmm1, xmm1
  00255	f3 0f 11 4d d8	 movss	 DWORD PTR _vMax$[ebp], xmm1

; 311  : 	vMax.y += fRange;

  0025a	f3 0f 10 4d dc	 movss	 xmm1, DWORD PTR _vMax$[ebp+4]
  0025f	0f 5a c9	 cvtps2pd xmm1, xmm1

; 312  : 	vMax.z += fDist;

  00262	f3 0f 5a c0	 cvtss2sd xmm0, xmm0
  00266	0f 5a d2	 cvtps2pd xmm2, xmm2
  00269	f2 0f 58 ca	 addsd	 xmm1, xmm2
  0026d	66 0f 5a c9	 cvtpd2ps xmm1, xmm1
  00271	f3 0f 11 4d dc	 movss	 DWORD PTR _vMax$[ebp+4], xmm1
  00276	f3 0f 10 4d e0	 movss	 xmm1, DWORD PTR _vMax$[ebp+8]
  0027b	0f 5a c9	 cvtps2pd xmm1, xmm1
  0027e	f2 0f 58 c8	 addsd	 xmm1, xmm0
  00282	66 0f 5a c1	 cvtpd2ps xmm0, xmm1

; 313  : 
; 314  : 	ioOrientBox kBound;

  00286	8d 8d 48 ff ff
	ff		 lea	 ecx, DWORD PTR _kBound$[ebp]
  0028c	f3 0f 11 45 e0	 movss	 DWORD PTR _vMax$[ebp+8], xmm0
  00291	ff 15 00 00 00
	00		 call	 DWORD PTR __imp_??0ioOrientBox@@QAE@XZ

; 315  : 	kBound.SetBoxByMinMax( vMin, vMax );

  00297	8d 45 d8	 lea	 eax, DWORD PTR _vMax$[ebp]
  0029a	50		 push	 eax
  0029b	8d 45 cc	 lea	 eax, DWORD PTR _vMin$[ebp]
  0029e	50		 push	 eax
  0029f	8d 8d 48 ff ff
	ff		 lea	 ecx, DWORD PTR _kBound$[ebp]
  002a5	c6 45 fc 02	 mov	 BYTE PTR __$EHRec$[ebp+8], 2
  002a9	ff 15 00 00 00
	00		 call	 DWORD PTR __imp_?SetBoxByMinMax@ioOrientBox@@QAEXABUD3DXVECTOR3@@0@Z

; 316  : 	ioDecal *pDecal = CreateDecal( iMapIndex, pLight->GetName(), kBound, -0.3f );

  002af	f3 0f 10 05 00
	00 00 00	 movss	 xmm0, DWORD PTR __real@be99999a
  002b7	51		 push	 ecx
  002b8	8d 85 48 ff ff
	ff		 lea	 eax, DWORD PTR _kBound$[ebp]
  002be	f3 0f 11 04 24	 movss	 DWORD PTR [esp], xmm0
  002c3	50		 push	 eax
  002c4	8b cb		 mov	 ecx, ebx
  002c6	ff 15 00 00 00
	00		 call	 DWORD PTR __imp_?GetName@ioLight@@QBEABVioHashString@@XZ
  002cc	8b 8d 38 ff ff
	ff		 mov	 ecx, DWORD PTR _this$GSCopy$[ebp]
  002d2	50		 push	 eax
  002d3	ff b5 40 ff ff
	ff		 push	 DWORD PTR _iMapIndex$GSCopy$[ebp]
  002d9	e8 00 00 00 00	 call	 ?CreateDecal@ioWorldMesh@@IAEPAVioDecal@@HABVioHashString@@ABVioOrientBox@@M@Z ; ioWorldMesh::CreateDecal
  002de	89 85 3c ff ff
	ff		 mov	 DWORD PTR _pDecal$[ebp], eax

; 317  : 	if( !pDecal )	return;

  002e4	85 c0		 test	 eax, eax
  002e6	0f 84 a7 01 00
	00		 je	 $LN48@BuildOmniL

; 318  : 
; 319  : 	ioMaterial *pMtl = pDecal->GetMaterial();

  002ec	8b 10		 mov	 edx, DWORD PTR [eax]
  002ee	8b c8		 mov	 ecx, eax
  002f0	ff 12		 call	 DWORD PTR [edx]

; 320  : 	pMtl->SetDiffuse( pLight->GetDiffuseColor() );

  002f2	8b cb		 mov	 ecx, ebx
  002f4	89 85 44 ff ff
	ff		 mov	 DWORD PTR _pMtl$[ebp], eax
  002fa	ff 15 00 00 00
	00		 call	 DWORD PTR __imp_?GetDiffuseColor@ioLight@@QBEABU_D3DCOLORVALUE@@XZ
  00300	8b 8d 44 ff ff
	ff		 mov	 ecx, DWORD PTR _pMtl$[ebp]
  00306	50		 push	 eax
  00307	ff 15 00 00 00
	00		 call	 DWORD PTR __imp_?SetDiffuse@ioMaterial@@QAEXABU_D3DCOLORVALUE@@@Z

; 321  : 
; 322  : 	ioPass *pPass = pMtl->CreateTechnique()->CreatePass();

  0030d	8b 8d 44 ff ff
	ff		 mov	 ecx, DWORD PTR _pMtl$[ebp]
  00313	ff 15 00 00 00
	00		 call	 DWORD PTR __imp_?CreateTechnique@ioMaterial@@QAEPAVioTechnique@@XZ
  00319	8b c8		 mov	 ecx, eax
  0031b	ff 15 00 00 00
	00		 call	 DWORD PTR __imp_?CreatePass@ioTechnique@@QAEPAVioPass@@XZ

; 323  : 	pPass->SetShaderGroup( "DecalToon" );

  00321	8b 3d 00 00 00
	00		 mov	 edi, DWORD PTR __imp_??0ioHashString@@QAE@PBD@Z
  00327	68 00 00 00 00	 push	 OFFSET ??_C@_09IHGAJPPK@DecalToon?$AA@
  0032c	8d 8d 24 ff ff
	ff		 lea	 ecx, DWORD PTR $T518191[ebp]
  00332	8b f0		 mov	 esi, eax
  00334	ff d7		 call	 edi
  00336	8d 85 24 ff ff
	ff		 lea	 eax, DWORD PTR $T518191[ebp]
  0033c	50		 push	 eax
  0033d	8b ce		 mov	 ecx, esi
  0033f	c6 45 fc 03	 mov	 BYTE PTR __$EHRec$[ebp+8], 3
  00343	ff 15 00 00 00
	00		 call	 DWORD PTR __imp_?SetShaderGroup@ioPass@@QAEXABVioHashString@@@Z
  00349	8d 8d 24 ff ff
	ff		 lea	 ecx, DWORD PTR $T518191[ebp]
  0034f	c6 45 fc 02	 mov	 BYTE PTR __$EHRec$[ebp+8], 2
  00353	ff 15 00 00 00
	00		 call	 DWORD PTR __imp_??1ioHashString@@QAE@XZ

; 324  : 	pPass->SetSceneBlending( D3DBLENDOP_ADD, D3DBLEND_ONE, D3DBLEND_ONE );

  00359	6a 02		 push	 2
  0035b	6a 02		 push	 2
  0035d	6a 01		 push	 1
  0035f	8b ce		 mov	 ecx, esi
  00361	ff 15 00 00 00
	00		 call	 DWORD PTR __imp_?SetSceneBlending@ioPass@@QAEXW4_D3DBLENDOP@@W4_D3DBLEND@@1@Z

; 325  : 	pPass->SetDepthCheckEnable( true );

  00367	6a 01		 push	 1
  00369	8b ce		 mov	 ecx, esi
  0036b	ff 15 00 00 00
	00		 call	 DWORD PTR __imp_?SetDepthCheckEnable@ioPass@@QAEX_N@Z

; 326  : 	pPass->SetDepthWriteEnable( false );

  00371	6a 00		 push	 0
  00373	8b ce		 mov	 ecx, esi
  00375	ff 15 00 00 00
	00		 call	 DWORD PTR __imp_?SetDepthWriteEnable@ioPass@@QAEX_N@Z

; 327  : 	pPass->SetDepthBias( -FLOAT0001, 0.0f );

  0037b	b8 01 00 00 00	 mov	 eax, 1
  00380	8b c8		 mov	 ecx, eax
  00382	b8 e8 03 00 00	 mov	 eax, 1000		; 000003e8H
  00387	0f 57 c0	 xorps	 xmm0, xmm0
  0038a	51		 push	 ecx
  0038b	51		 push	 ecx
  0038c	89 8d 40 ff ff
	ff		 mov	 DWORD PTR tv609[ebp], ecx
  00392	db 85 40 ff ff
	ff		 fild	 DWORD PTR tv609[ebp]
  00398	f3 0f 11 44 24
	04		 movss	 DWORD PTR [esp+4], xmm0
  0039e	85 c9		 test	 ecx, ecx
  003a0	79 06		 jns	 SHORT $LN44@BuildOmniL
  003a2	d8 05 00 00 00
	00		 fadd	 DWORD PTR __real@4f800000
$LN44@BuildOmniL:
  003a8	89 85 40 ff ff
	ff		 mov	 DWORD PTR tv361[ebp], eax
  003ae	db 85 40 ff ff
	ff		 fild	 DWORD PTR tv361[ebp]
  003b4	85 c0		 test	 eax, eax
  003b6	79 06		 jns	 SHORT $LN45@BuildOmniL
  003b8	d8 05 00 00 00
	00		 fadd	 DWORD PTR __real@4f800000
$LN45@BuildOmniL:
  003be	de f9		 fdivp	 ST(1), ST(0)
  003c0	8b ce		 mov	 ecx, esi
  003c2	d9 9d 40 ff ff
	ff		 fstp	 DWORD PTR tv447[ebp]
  003c8	d9 85 40 ff ff
	ff		 fld	 DWORD PTR tv447[ebp]
  003ce	d9 e0		 fchs
  003d0	d9 1c 24	 fstp	 DWORD PTR [esp]
  003d3	ff 15 00 00 00
	00		 call	 DWORD PTR __imp_?SetDepthBias@ioPass@@QAEXMM@Z

; 328  : 	pPass->SetLightingEnable( false );

  003d9	6a 00		 push	 0
  003db	8b ce		 mov	 ecx, esi
  003dd	ff 15 00 00 00
	00		 call	 DWORD PTR __imp_?SetLightingEnable@ioPass@@QAEX_N@Z

; 329  : 
; 330  : 	ioTextureUnitState *pState = pPass->CreateTextureUnitState( pLight->GetDecalTextureName() );

  003e3	8b cb		 mov	 ecx, ebx
  003e5	ff 15 00 00 00
	00		 call	 DWORD PTR __imp_?GetDecalTextureName@ioLight@@QBEPBDXZ
  003eb	50		 push	 eax
  003ec	8d 8d 14 ff ff
	ff		 lea	 ecx, DWORD PTR $T518192[ebp]
  003f2	ff d7		 call	 edi
  003f4	8d 85 14 ff ff
	ff		 lea	 eax, DWORD PTR $T518192[ebp]
  003fa	50		 push	 eax
  003fb	8b ce		 mov	 ecx, esi
  003fd	c6 45 fc 04	 mov	 BYTE PTR __$EHRec$[ebp+8], 4
  00401	ff 15 00 00 00
	00		 call	 DWORD PTR __imp_?CreateTextureUnitState@ioPass@@QAEPAVioTextureUnitState@@ABVioHashString@@@Z
  00407	8d 8d 14 ff ff
	ff		 lea	 ecx, DWORD PTR $T518192[ebp]
  0040d	8b f0		 mov	 esi, eax
  0040f	c6 45 fc 02	 mov	 BYTE PTR __$EHRec$[ebp+8], 2
  00413	ff 15 00 00 00
	00		 call	 DWORD PTR __imp_??1ioHashString@@QAE@XZ

; 331  : 	pState->SetColorStageBlendOp( D3DTOP_MODULATE, D3DTA_TEXTURE, D3DTA_DIFFUSE );

  00419	6a 00		 push	 0
  0041b	6a 02		 push	 2
  0041d	6a 04		 push	 4
  0041f	8b ce		 mov	 ecx, esi
  00421	ff 15 00 00 00
	00		 call	 DWORD PTR __imp_?SetColorStageBlendOp@ioTextureUnitState@@QAEXW4_D3DTEXTUREOP@@KK@Z

; 332  : 	pState->SetAlphaStageBlendOp( D3DTOP_MODULATE, D3DTA_TEXTURE, D3DTA_DIFFUSE );

  00427	6a 00		 push	 0
  00429	6a 02		 push	 2
  0042b	6a 04		 push	 4
  0042d	8b ce		 mov	 ecx, esi
  0042f	ff 15 00 00 00
	00		 call	 DWORD PTR __imp_?SetAlphaStageBlendOp@ioTextureUnitState@@QAEXW4_D3DTEXTUREOP@@KK@Z

; 333  : 	pState->SetTextureAddressMode( TAM_CLAMP );

  00435	6a 03		 push	 3
  00437	8b ce		 mov	 ecx, esi
  00439	ff 15 00 00 00
	00		 call	 DWORD PTR __imp_?SetTextureAddressMode@ioTextureUnitState@@QAEXW4TextureAddressMode@@@Z

; 334  : 
; 335  : 	pMtl->Load( EP_MANUAL );

  0043f	8b 8d 44 ff ff
	ff		 mov	 ecx, DWORD PTR _pMtl$[ebp]
  00445	6a 01		 push	 1
  00447	ff 15 00 00 00
	00		 call	 DWORD PTR __imp_?Load@ioMaterial@@QAEXW4ErasePolicy@@@Z

; 336  : 
; 337  : 	pGroup->AddDecal( pDecal );

  0044d	ff b5 3c ff ff
	ff		 push	 DWORD PTR _pDecal$[ebp]
  00453	8b 8d 34 ff ff
	ff		 mov	 ecx, DWORD PTR _pGroup$[ebp]
  00459	ff 15 00 00 00
	00		 call	 DWORD PTR __imp_?AddDecal@ioEntityGroup@@QAEXPAVioDecal@@@Z

; 338  : 	m_DecalLightMap[pLight->GetName()] = pLight->GetDerivedPosition();

  0045f	8b 03		 mov	 eax, DWORD PTR [ebx]
  00461	8b cb		 mov	 ecx, ebx
  00463	ff 50 60	 call	 DWORD PTR [eax+96]
  00466	8b f0		 mov	 esi, eax
  00468	8d bd 28 ff ff
	ff		 lea	 edi, DWORD PTR $T518255[ebp]
  0046e	a5		 movsd
  0046f	a5		 movsd
  00470	8b cb		 mov	 ecx, ebx
  00472	a5		 movsd
  00473	ff 15 00 00 00
	00		 call	 DWORD PTR __imp_?GetName@ioLight@@QBEABVioHashString@@XZ
  00479	8b 8d 38 ff ff
	ff		 mov	 ecx, DWORD PTR _this$GSCopy$[ebp]
  0047f	50		 push	 eax
  00480	83 c1 28	 add	 ecx, 40			; 00000028H
  00483	e8 00 00 00 00	 call	 ??A?$map@VioHashString@@UD3DXVECTOR3@@U?$less@VioHashString@@@std@@V?$allocator@U?$pair@$$CBVioHashString@@UD3DXVECTOR3@@@std@@@4@@std@@QAEAAUD3DXVECTOR3@@ABVioHashString@@@Z ; std::map<ioHashString,D3DXVECTOR3,std::less<ioHashString>,std::allocator<std::pair<ioHashString const ,D3DXVECTOR3> > >::operator[]
  00488	8d b5 28 ff ff
	ff		 lea	 esi, DWORD PTR $T518255[ebp]
  0048e	8b f8		 mov	 edi, eax
  00490	a5		 movsd
  00491	a5		 movsd
  00492	a5		 movsd
$LN48@BuildOmniL:

; 339  : }

  00493	8d 8d 48 ff ff
	ff		 lea	 ecx, DWORD PTR _kBound$[ebp]
  00499	c6 45 fc 01	 mov	 BYTE PTR __$EHRec$[ebp+8], 1
  0049d	ff 15 00 00 00
	00		 call	 DWORD PTR __imp_??1ioOrientBox@@QAE@XZ
$LN47@BuildOmniL:
  004a3	8d 4d 8c	 lea	 ecx, DWORD PTR _kDownRay$[ebp]
  004a6	c6 45 fc 00	 mov	 BYTE PTR __$EHRec$[ebp+8], 0
  004aa	ff 15 00 00 00
	00		 call	 DWORD PTR __imp_??1ioRay@@QAE@XZ
$LN46@BuildOmniL:
  004b0	83 4d fc ff	 or	 DWORD PTR __$EHRec$[ebp+8], -1
  004b4	8d 4d b0	 lea	 ecx, DWORD PTR _kLightSphere$[ebp]
  004b7	ff 15 00 00 00
	00		 call	 DWORD PTR __imp_??1ioSphere@@QAE@XZ
$LN8@BuildOmniL:
  004bd	e8 00 00 00 00	 call	 __EH_epilog3_GS
  004c2	c2 08 00	 ret	 8
_TEXT	ENDS
;	COMDAT text$x
text$x	SEGMENT
__unwindfunclet$?BuildOmniLightDecal@ioWorldMesh@@IAEXHPAVioLight@@@Z$0:
  00000	8d 4d b0	 lea	 ecx, DWORD PTR _kLightSphere$[ebp]
  00003	ff 25 00 00 00
	00		 jmp	 DWORD PTR __imp_??1ioSphere@@QAE@XZ
__unwindfunclet$?BuildOmniLightDecal@ioWorldMesh@@IAEXHPAVioLight@@@Z$1:
  00009	8d 4d 8c	 lea	 ecx, DWORD PTR _kDownRay$[ebp]
  0000c	ff 25 00 00 00
	00		 jmp	 DWORD PTR __imp_??1ioRay@@QAE@XZ
__unwindfunclet$?BuildOmniLightDecal@ioWorldMesh@@IAEXHPAVioLight@@@Z$2:
  00012	8d 8d 48 ff ff
	ff		 lea	 ecx, DWORD PTR _kBound$[ebp]
  00018	ff 25 00 00 00
	00		 jmp	 DWORD PTR __imp_??1ioOrientBox@@QAE@XZ
__unwindfunclet$?BuildOmniLightDecal@ioWorldMesh@@IAEXHPAVioLight@@@Z$3:
  0001e	8d 8d 24 ff ff
	ff		 lea	 ecx, DWORD PTR $T518191[ebp]
  00024	ff 25 00 00 00
	00		 jmp	 DWORD PTR __imp_??1ioHashString@@QAE@XZ
__unwindfunclet$?BuildOmniLightDecal@ioWorldMesh@@IAEXHPAVioLight@@@Z$4:
  0002a	8d 8d 14 ff ff
	ff		 lea	 ecx, DWORD PTR $T518192[ebp]
  00030	ff 25 00 00 00
	00		 jmp	 DWORD PTR __imp_??1ioHashString@@QAE@XZ
__ehhandler$?BuildOmniLightDecal@ioWorldMesh@@IAEXHPAVioLight@@@Z:
  00036	8b 54 24 08	 mov	 edx, DWORD PTR [esp+8]
  0003a	8d 42 0c	 lea	 eax, DWORD PTR [edx+12]
  0003d	8b 8a 10 ff ff
	ff		 mov	 ecx, DWORD PTR [edx-240]
  00043	33 c8		 xor	 ecx, eax
  00045	e8 00 00 00 00	 call	 @__security_check_cookie@4
  0004a	8b 4a fc	 mov	 ecx, DWORD PTR [edx-4]
  0004d	33 c8		 xor	 ecx, eax
  0004f	e8 00 00 00 00	 call	 @__security_check_cookie@4
  00054	b8 00 00 00 00	 mov	 eax, OFFSET __ehfuncinfo$?BuildOmniLightDecal@ioWorldMesh@@IAEXHPAVioLight@@@Z
  00059	e9 00 00 00 00	 jmp	 ___CxxFrameHandler3
text$x	ENDS
?BuildOmniLightDecal@ioWorldMesh@@IAEXHPAVioLight@@@Z ENDP ; ioWorldMesh::BuildOmniLightDecal
PUBLIC	?push_back@?$vector@VioHashString@@V?$allocator@VioHashString@@@std@@@std@@QAEX$$QAVioHashString@@@Z ; std::vector<ioHashString,std::allocator<ioHashString> >::push_back
; Function compile flags: /Ogsp
; File c:\program files (x86)\microsoft visual studio 10.0\vc\include\vector
;	COMDAT ?push_back@?$vector@VioHashString@@V?$allocator@VioHashString@@@std@@@std@@QAEX$$QAVioHashString@@@Z
_TEXT	SEGMENT
__Val$ = 8						; size = 4
?push_back@?$vector@VioHashString@@V?$allocator@VioHashString@@@std@@@std@@QAEX$$QAVioHashString@@@Z PROC ; std::vector<ioHashString,std::allocator<ioHashString> >::push_back, COMDAT
; _this$ = ecx

; 631  : 		{	// insert element at end

  00000	55		 push	 ebp
  00001	8b ec		 mov	 ebp, esp
  00003	56		 push	 esi
  00004	8b f1		 mov	 esi, ecx

; 632  : 		if (_Inside(_STD addressof(_Val)))

  00006	8b 46 04	 mov	 eax, DWORD PTR [esi+4]
  00009	57		 push	 edi
  0000a	8b 7d 08	 mov	 edi, DWORD PTR __Val$[ebp]
  0000d	3b f8		 cmp	 edi, eax
  0000f	73 1d		 jae	 SHORT $LN4@push_back@2
  00011	8b 0e		 mov	 ecx, DWORD PTR [esi]
  00013	3b cf		 cmp	 ecx, edi
  00015	77 17		 ja	 SHORT $LN4@push_back@2

; 633  : 			{	// push back an element
; 634  : 			size_type _Idx = _STD addressof(_Val) - this->_Myfirst;

  00017	2b f9		 sub	 edi, ecx

; 635  : 			if (this->_Mylast == this->_Myend)

  00019	3b 46 08	 cmp	 eax, DWORD PTR [esi+8]
  0001c	75 09		 jne	 SHORT $LN3@push_back@2

; 636  : 				_Reserve(1);

  0001e	6a 01		 push	 1
  00020	8b ce		 mov	 ecx, esi
  00022	e8 00 00 00 00	 call	 ?_Reserve@?$vector@VioHashString@@V?$allocator@VioHashString@@@std@@@std@@IAEXI@Z ; std::vector<ioHashString,std::allocator<ioHashString> >::_Reserve
$LN3@push_back@2:

; 637  : 			_Orphan_range(this->_Mylast, this->_Mylast);
; 638  : 			_Cons_val(this->_Alval,
; 639  : 				this->_Mylast,
; 640  : 				_STD forward<_Ty>(this->_Myfirst[_Idx]));

  00027	83 e7 f0	 and	 edi, -16		; fffffff0H
  0002a	03 3e		 add	 edi, DWORD PTR [esi]

; 641  : 			++this->_Mylast;
; 642  : 			}
; 643  : 		else

  0002c	eb 0e		 jmp	 SHORT $LN1@push_back@2
$LN4@push_back@2:

; 644  : 			{	// push back a non-element
; 645  : 			if (this->_Mylast == this->_Myend)

  0002e	3b 46 08	 cmp	 eax, DWORD PTR [esi+8]
  00031	75 09		 jne	 SHORT $LN1@push_back@2

; 646  : 				_Reserve(1);

  00033	6a 01		 push	 1
  00035	8b ce		 mov	 ecx, esi
  00037	e8 00 00 00 00	 call	 ?_Reserve@?$vector@VioHashString@@V?$allocator@VioHashString@@@std@@@std@@IAEXI@Z ; std::vector<ioHashString,std::allocator<ioHashString> >::_Reserve
$LN1@push_back@2:

; 647  : 			_Orphan_range(this->_Mylast, this->_Mylast);
; 648  : 			_Cons_val(this->_Alval,
; 649  : 				this->_Mylast,
; 650  : 				_STD forward<_Ty>(_Val));

  0003c	57		 push	 edi
  0003d	ff 76 04	 push	 DWORD PTR [esi+4]
  00040	8d 4e 0c	 lea	 ecx, DWORD PTR [esi+12]
  00043	e8 00 00 00 00	 call	 ?construct@?$allocator@VioHashString@@@std@@QAEXPAVioHashString@@$$QAV3@@Z ; std::allocator<ioHashString>::construct

; 651  : 			++this->_Mylast;

  00048	83 46 04 10	 add	 DWORD PTR [esi+4], 16	; 00000010H
  0004c	5f		 pop	 edi
  0004d	5e		 pop	 esi

; 652  : 			}
; 653  : 		}

  0004e	5d		 pop	 ebp
  0004f	c2 04 00	 ret	 4
?push_back@?$vector@VioHashString@@V?$allocator@VioHashString@@@std@@@std@@QAEX$$QAVioHashString@@@Z ENDP ; std::vector<ioHashString,std::allocator<ioHashString> >::push_back
; Function compile flags: /Ogsp
_TEXT	ENDS
;	COMDAT ??_GioWorldMesh@@UAEPAXI@Z
_TEXT	SEGMENT
___flags$ = 8						; size = 4
??_GioWorldMesh@@UAEPAXI@Z PROC				; ioWorldMesh::`scalar deleting destructor', COMDAT
; _this$ = ecx
  00000	55		 push	 ebp
  00001	8b ec		 mov	 ebp, esp
  00003	56		 push	 esi
  00004	8b f1		 mov	 esi, ecx
  00006	e8 00 00 00 00	 call	 ??1ioWorldMesh@@UAE@XZ	; ioWorldMesh::~ioWorldMesh
  0000b	f6 45 08 01	 test	 BYTE PTR ___flags$[ebp], 1
  0000f	74 07		 je	 SHORT $LN1@scalar@4
  00011	56		 push	 esi
  00012	e8 00 00 00 00	 call	 ??3@YAXPAX@Z		; operator delete
  00017	59		 pop	 ecx
$LN1@scalar@4:
  00018	8b c6		 mov	 eax, esi
  0001a	5e		 pop	 esi
  0001b	5d		 pop	 ebp
  0001c	c2 04 00	 ret	 4
??_GioWorldMesh@@UAEPAXI@Z ENDP				; ioWorldMesh::`scalar deleting destructor'
_TEXT	ENDS
PUBLIC	?LoadLightDecalTextureList@ioWorldMesh@@QAEXAAVioINILoader@@@Z ; ioWorldMesh::LoadLightDecalTextureList
EXTRN	__imp__wsprintfA:PROC
;	COMDAT xdata$x
; File d:\lost saga for developer\youtube\tutorial\source\src\lsclient\stringprotect.h
xdata$x	SEGMENT
__unwindtable$?LoadLightDecalTextureList@ioWorldMesh@@QAEXAAVioINILoader@@@Z DD 0ffffffffH
	DD	FLAT:__unwindfunclet$?LoadLightDecalTextureList@ioWorldMesh@@QAEXAAVioINILoader@@@Z$0
__ehfuncinfo$?LoadLightDecalTextureList@ioWorldMesh@@QAEXAAVioINILoader@@@Z DD 019930522H
	DD	01H
	DD	FLAT:__unwindtable$?LoadLightDecalTextureList@ioWorldMesh@@QAEXAAVioINILoader@@@Z
	DD	2 DUP(00H)
	DD	2 DUP(00H)
	DD	00H
	DD	01H
; Function compile flags: /Ogsp
; File d:\lost saga for developer\youtube\tutorial\source\src\lsclient\ioworldmesh.cpp
xdata$x	ENDS
;	COMDAT ?LoadLightDecalTextureList@ioWorldMesh@@QAEXAAVioINILoader@@@Z
_TEXT	SEGMENT
$T518323 = -576						; size = 16
$T518387 = -560						; size = 4
_iTextureCnt$ = -560					; size = 4
_szBuf$ = -556						; size = 260
_szKey$ = -296						; size = 260
__k$518545 = -36					; size = 12
__t$518442 = -36					; size = 14
___encStr$507223 = -36					; size = 12
__$EHRec$ = -12						; size = 12
_rkLoader$ = 8						; size = 4
?LoadLightDecalTextureList@ioWorldMesh@@QAEXAAVioINILoader@@@Z PROC ; ioWorldMesh::LoadLightDecalTextureList, COMDAT
; _this$ = ecx

; 182  : {

  00000	68 34 02 00 00	 push	 564			; 00000234H
  00005	b8 00 00 00 00	 mov	 eax, __ehhandler$?LoadLightDecalTextureList@ioWorldMesh@@QAEXAAVioINILoader@@@Z
  0000a	e8 00 00 00 00	 call	 __EH_prolog3_GS
  0000f	8b f1		 mov	 esi, ecx

; 183  : 	m_LightDecalTextureList.clear();

  00011	8b 46 1c	 mov	 eax, DWORD PTR [esi+28]
  00014	8b 4e 18	 mov	 ecx, DWORD PTR [esi+24]
  00017	8b 5d 08	 mov	 ebx, DWORD PTR _rkLoader$[ebp]
  0001a	50		 push	 eax
  0001b	51		 push	 ecx
  0001c	8d 85 d0 fd ff
	ff		 lea	 eax, DWORD PTR $T518387[ebp]
  00022	50		 push	 eax
  00023	8d 4e 18	 lea	 ecx, DWORD PTR [esi+24]
  00026	e8 00 00 00 00	 call	 ?erase@?$vector@VioHashString@@V?$allocator@VioHashString@@@std@@@std@@QAE?AV?$_Vector_iterator@V?$_Vector_val@VioHashString@@V?$allocator@VioHashString@@@std@@@std@@@2@V?$_Vector_const_iterator@V?$_Vector_val@VioHashString@@V?$allocator@VioHashString@@@std@@@std@@@2@0@Z ; std::vector<ioHashString,std::allocator<ioHashString> >::erase

; 184  : 
; 185  : 	rkLoader.SetTitle_e( "decal_texture" );

  0002b	6a 03		 push	 3
  0002d	c7 45 dc 89 89
	88 8b		 mov	 DWORD PTR __t$518442[ebp], -1953986167 ; 8b888989H
  00034	c7 45 e0 81 b3
	9f 8f		 mov	 DWORD PTR __t$518442[ebp+4], -1885359231 ; 8f9fb381H
  0003b	c7 45 e4 95 98
	9e 98		 mov	 DWORD PTR __t$518442[ebp+8], -1734436715 ; 989e9895H
  00042	8d 45 dc	 lea	 eax, DWORD PTR __t$518442[ebp]
  00045	66 c7 45 e8 88
	00		 mov	 WORD PTR __t$518442[ebp+12], 136 ; 00000088H
  0004b	59		 pop	 ecx
$LL227@LoadLightD:
  0004c	81 30 ed ec eb
	ea		 xor	 DWORD PTR [eax], -353637139 ; eaebecedH
  00052	83 c0 04	 add	 eax, 4
  00055	49		 dec	 ecx
  00056	75 f4		 jne	 SHORT $LL227@LoadLightD
  00058	80 75 e8 ed	 xor	 BYTE PTR __t$518442[ebp+12], -19 ; ffffffedH
  0005c	8d 45 dc	 lea	 eax, DWORD PTR __t$518442[ebp]
  0005f	50		 push	 eax
  00060	8b cb		 mov	 ecx, ebx
  00062	ff 15 00 00 00
	00		 call	 DWORD PTR __imp_?SetTitle@ioINILoader@@QAEXPBD@Z
  00068	6a 02		 push	 2

; 186  : 
; 187  : 	char szKey[MAX_PATH], szBuf[MAX_PATH];
; 188  : 	int iTextureCnt = rkLoader.LoadInt_e( "texture_cnt", 0 );

  0006a	c7 45 dc 99 89
	93 9e		 mov	 DWORD PTR __k$518545[ebp], -1634498151 ; 9e938999H
  00071	c7 45 e0 98 9e
	8e b5		 mov	 DWORD PTR __k$518545[ebp+4], -1248944488 ; b58e9e98H
  00078	8d 45 dc	 lea	 eax, DWORD PTR __k$518545[ebp]
  0007b	c7 45 e4 8e 82
	9f 00		 mov	 DWORD PTR __k$518545[ebp+8], 10453646 ; 009f828eH
  00082	59		 pop	 ecx
$LL333@LoadLightD:
  00083	81 30 ed ec eb
	ea		 xor	 DWORD PTR [eax], -353637139 ; eaebecedH
  00089	83 c0 04	 add	 eax, 4
  0008c	49		 dec	 ecx
  0008d	75 f4		 jne	 SHORT $LL333@LoadLightD
  0008f	6a 08		 push	 8
  00091	5f		 pop	 edi
$LL330@LoadLightD:
  00092	8b c7		 mov	 eax, edi
  00094	25 03 00 00 80	 and	 eax, -2147483645	; 80000003H
  00099	79 05		 jns	 SHORT $LN360@LoadLightD
  0009b	48		 dec	 eax
  0009c	83 c8 fc	 or	 eax, -4			; fffffffcH
  0009f	40		 inc	 eax
$LN360@LoadLightD:
  000a0	b1 ed		 mov	 cl, -19			; ffffffedH
  000a2	2a c8		 sub	 cl, al
  000a4	30 4c 3d dc	 xor	 BYTE PTR __k$518545[ebp+edi], cl
  000a8	47		 inc	 edi
  000a9	83 ff 0b	 cmp	 edi, 11			; 0000000bH
  000ac	7c e4		 jl	 SHORT $LL330@LoadLightD
  000ae	33 ff		 xor	 edi, edi
  000b0	57		 push	 edi
  000b1	8d 45 dc	 lea	 eax, DWORD PTR __k$518545[ebp]
  000b4	50		 push	 eax
  000b5	8b cb		 mov	 ecx, ebx
  000b7	ff 15 00 00 00
	00		 call	 DWORD PTR __imp_?LoadInt@ioINILoader@@QAEHPBDH@Z
  000bd	89 85 d0 fd ff
	ff		 mov	 DWORD PTR _iTextureCnt$[ebp], eax

; 189  : 	for( int i=0 ; i<iTextureCnt ; i++ )

  000c3	3b c7		 cmp	 eax, edi
  000c5	0f 8e b9 00 00
	00		 jle	 $LN100@LoadLightD
$LN102@LoadLightD:

; 190  : 	{
; 191  : 		wsprintf_e( szKey, "decal_tex%d", i+1 );

  000cb	6a 02		 push	 2
  000cd	c7 45 dc 89 89
	88 8b		 mov	 DWORD PTR ___encStr$507223[ebp], -1953986167 ; 8b888989H
  000d4	c7 45 e0 81 b3
	9f 8f		 mov	 DWORD PTR ___encStr$507223[ebp+4], -1885359231 ; 8f9fb381H
  000db	8d 45 dc	 lea	 eax, DWORD PTR ___encStr$507223[ebp]
  000de	c7 45 e4 95 c9
	8f 00		 mov	 DWORD PTR ___encStr$507223[ebp+8], 9423253 ; 008fc995H
  000e5	59		 pop	 ecx
$LL341@LoadLightD:
  000e6	81 30 ed ec eb
	ea		 xor	 DWORD PTR [eax], -353637139 ; eaebecedH
  000ec	83 c0 04	 add	 eax, 4
  000ef	49		 dec	 ecx
  000f0	75 f4		 jne	 SHORT $LL341@LoadLightD
  000f2	6a 08		 push	 8
  000f4	58		 pop	 eax
$LL338@LoadLightD:
  000f5	8b c8		 mov	 ecx, eax
  000f7	81 e1 03 00 00
	80		 and	 ecx, -2147483645	; 80000003H
  000fd	79 05		 jns	 SHORT $LN361@LoadLightD
  000ff	49		 dec	 ecx
  00100	83 c9 fc	 or	 ecx, -4			; fffffffcH
  00103	41		 inc	 ecx
$LN361@LoadLightD:
  00104	b2 ed		 mov	 dl, -19			; ffffffedH
  00106	2a d1		 sub	 dl, cl
  00108	30 54 05 dc	 xor	 BYTE PTR ___encStr$507223[ebp+eax], dl
  0010c	40		 inc	 eax
  0010d	83 f8 0b	 cmp	 eax, 11			; 0000000bH
  00110	7c e3		 jl	 SHORT $LL338@LoadLightD
  00112	47		 inc	 edi
  00113	57		 push	 edi
  00114	8d 45 dc	 lea	 eax, DWORD PTR ___encStr$507223[ebp]
  00117	50		 push	 eax
  00118	8d 85 d8 fe ff
	ff		 lea	 eax, DWORD PTR _szKey$[ebp]
  0011e	50		 push	 eax
  0011f	ff 15 00 00 00
	00		 call	 DWORD PTR __imp__wsprintfA
  00125	83 c4 0c	 add	 esp, 12			; 0000000cH

; 192  : 		rkLoader.LoadString( szKey, "", szBuf, MAX_PATH );

  00128	68 04 01 00 00	 push	 260			; 00000104H
  0012d	8d 85 d4 fd ff
	ff		 lea	 eax, DWORD PTR _szBuf$[ebp]
  00133	50		 push	 eax
  00134	68 00 00 00 00	 push	 OFFSET ??_C@_00CNPNBAHC@?$AA@
  00139	8d 85 d8 fe ff
	ff		 lea	 eax, DWORD PTR _szKey$[ebp]
  0013f	50		 push	 eax
  00140	8b cb		 mov	 ecx, ebx
  00142	ff 15 00 00 00
	00		 call	 DWORD PTR __imp_?LoadStringA@ioINILoader@@QAEXPBD0PADH@Z

; 193  : 		m_LightDecalTextureList.push_back( ioHashString(szBuf) );

  00148	8d 85 d4 fd ff
	ff		 lea	 eax, DWORD PTR _szBuf$[ebp]
  0014e	50		 push	 eax
  0014f	8d 8d c0 fd ff
	ff		 lea	 ecx, DWORD PTR $T518323[ebp]
  00155	ff 15 00 00 00
	00		 call	 DWORD PTR __imp_??0ioHashString@@QAE@PBD@Z
  0015b	83 65 fc 00	 and	 DWORD PTR __$EHRec$[ebp+8], 0
  0015f	50		 push	 eax
  00160	8d 4e 18	 lea	 ecx, DWORD PTR [esi+24]
  00163	e8 00 00 00 00	 call	 ?push_back@?$vector@VioHashString@@V?$allocator@VioHashString@@@std@@@std@@QAEX$$QAVioHashString@@@Z ; std::vector<ioHashString,std::allocator<ioHashString> >::push_back
  00168	83 4d fc ff	 or	 DWORD PTR __$EHRec$[ebp+8], -1
  0016c	8d 8d c0 fd ff
	ff		 lea	 ecx, DWORD PTR $T518323[ebp]
  00172	ff 15 00 00 00
	00		 call	 DWORD PTR __imp_??1ioHashString@@QAE@XZ
  00178	3b bd d0 fd ff
	ff		 cmp	 edi, DWORD PTR _iTextureCnt$[ebp]
  0017e	0f 8c 47 ff ff
	ff		 jl	 $LN102@LoadLightD
$LN100@LoadLightD:

; 194  : 	}
; 195  : }

  00184	e8 00 00 00 00	 call	 __EH_epilog3_GS
  00189	c2 04 00	 ret	 4
_TEXT	ENDS
;	COMDAT text$x
text$x	SEGMENT
__unwindfunclet$?LoadLightDecalTextureList@ioWorldMesh@@QAEXAAVioINILoader@@@Z$0:
  00000	8d 8d c0 fd ff
	ff		 lea	 ecx, DWORD PTR $T518323[ebp]
  00006	ff 25 00 00 00
	00		 jmp	 DWORD PTR __imp_??1ioHashString@@QAE@XZ
__ehhandler$?LoadLightDecalTextureList@ioWorldMesh@@QAEXAAVioINILoader@@@Z:
  0000c	8b 54 24 08	 mov	 edx, DWORD PTR [esp+8]
  00010	8d 42 0c	 lea	 eax, DWORD PTR [edx+12]
  00013	8b 8a bc fd ff
	ff		 mov	 ecx, DWORD PTR [edx-580]
  00019	33 c8		 xor	 ecx, eax
  0001b	e8 00 00 00 00	 call	 @__security_check_cookie@4
  00020	8b 4a fc	 mov	 ecx, DWORD PTR [edx-4]
  00023	33 c8		 xor	 ecx, eax
  00025	e8 00 00 00 00	 call	 @__security_check_cookie@4
  0002a	b8 00 00 00 00	 mov	 eax, OFFSET __ehfuncinfo$?LoadLightDecalTextureList@ioWorldMesh@@QAEXAAVioINILoader@@@Z
  0002f	e9 00 00 00 00	 jmp	 ___CxxFrameHandler3
text$x	ENDS
?LoadLightDecalTextureList@ioWorldMesh@@QAEXAAVioINILoader@@@Z ENDP ; ioWorldMesh::LoadLightDecalTextureList
PUBLIC	?AddOmniLightDecal@ioWorldMesh@@QAEXHPAVioLight@@@Z ; ioWorldMesh::AddOmniLightDecal
EXTRN	__imp_?SetDecalTexture@ioLight@@QAEXABVioHashString@@@Z:PROC
EXTRN	__imp__rand:PROC
EXTRN	__imp_?GetDecalTexture@ioLight@@QBEPAVioTexture@@XZ:PROC
EXTRN	__imp_?GetType@ioLight@@QBE?AW4LightType@@XZ:PROC
; Function compile flags: /Ogsp
;	COMDAT ?AddOmniLightDecal@ioWorldMesh@@QAEXHPAVioLight@@@Z
_TEXT	SEGMENT
_iMapIndex$ = 8						; size = 4
_pLight$ = 12						; size = 4
?AddOmniLightDecal@ioWorldMesh@@QAEXHPAVioLight@@@Z PROC ; ioWorldMesh::AddOmniLightDecal, COMDAT
; _this$ = ecx

; 261  : {

  00000	55		 push	 ebp
  00001	8b ec		 mov	 ebp, esp
  00003	53		 push	 ebx

; 262  : 	if( pLight->GetType() != LT_POINT )

  00004	8b 5d 0c	 mov	 ebx, DWORD PTR _pLight$[ebp]
  00007	56		 push	 esi
  00008	8b f1		 mov	 esi, ecx
  0000a	8b cb		 mov	 ecx, ebx
  0000c	ff 15 00 00 00
	00		 call	 DWORD PTR __imp_?GetType@ioLight@@QBE?AW4LightType@@XZ
  00012	83 f8 01	 cmp	 eax, 1
  00015	75 43		 jne	 SHORT $LN4@AddOmniLig

; 263  : 		return;
; 264  : 
; 265  : 	if( !pLight->GetDecalTexture() )

  00017	8b cb		 mov	 ecx, ebx
  00019	ff 15 00 00 00
	00		 call	 DWORD PTR __imp_?GetDecalTexture@ioLight@@QBEPAVioTexture@@XZ
  0001f	85 c0		 test	 eax, eax
  00021	75 2c		 jne	 SHORT $LN1@AddOmniLig

; 266  : 	{
; 267  : 		if( !m_LightDecalTextureList.empty() )

  00023	8b 4e 18	 mov	 ecx, DWORD PTR [esi+24]
  00026	8b 46 1c	 mov	 eax, DWORD PTR [esi+28]
  00029	3b c8		 cmp	 ecx, eax
  0002b	74 22		 je	 SHORT $LN1@AddOmniLig

; 268  : 		{
; 269  : 			int iRandIdx = rand() % m_LightDecalTextureList.size();

  0002d	2b c1		 sub	 eax, ecx
  0002f	c1 f8 04	 sar	 eax, 4
  00032	57		 push	 edi
  00033	8b f8		 mov	 edi, eax
  00035	ff 15 00 00 00
	00		 call	 DWORD PTR __imp__rand
  0003b	33 d2		 xor	 edx, edx
  0003d	f7 f7		 div	 edi

; 270  : 			pLight->SetDecalTexture( m_LightDecalTextureList[iRandIdx] );

  0003f	8b cb		 mov	 ecx, ebx
  00041	c1 e2 04	 shl	 edx, 4
  00044	03 56 18	 add	 edx, DWORD PTR [esi+24]
  00047	52		 push	 edx
  00048	ff 15 00 00 00
	00		 call	 DWORD PTR __imp_?SetDecalTexture@ioLight@@QAEXABVioHashString@@@Z
  0004e	5f		 pop	 edi
$LN1@AddOmniLig:

; 271  : 		}
; 272  : 	}
; 273  : 
; 274  : 	BuildOmniLightDecal( iMapIndex, pLight );

  0004f	53		 push	 ebx
  00050	ff 75 08	 push	 DWORD PTR _iMapIndex$[ebp]
  00053	8b ce		 mov	 ecx, esi
  00055	e8 00 00 00 00	 call	 ?BuildOmniLightDecal@ioWorldMesh@@IAEXHPAVioLight@@@Z ; ioWorldMesh::BuildOmniLightDecal
$LN4@AddOmniLig:
  0005a	5e		 pop	 esi
  0005b	5b		 pop	 ebx

; 275  : }

  0005c	5d		 pop	 ebp
  0005d	c2 08 00	 ret	 8
?AddOmniLightDecal@ioWorldMesh@@QAEXHPAVioLight@@@Z ENDP ; ioWorldMesh::AddOmniLightDecal
_TEXT	ENDS
PUBLIC	__real@38d1b717
PUBLIC	??_C@_0DG@DKALEOGN@ioWorldMesh?3?3UpdateEffectLightDe@ ; `string'
PUBLIC	?UpdateEffectLightDecal@ioWorldMesh@@QAEXHPAVioLight@@@Z ; ioWorldMesh::UpdateEffectLightDecal
EXTRN	__imp_?GetRatedDiffuseColor@ioLight@@QBEABU_D3DCOLORVALUE@@XZ:PROC
EXTRN	__imp_?IsEqual@ioMath@@SA_NABUD3DXVECTOR3@@0M@Z:PROC
;	COMDAT __real@38d1b717
; File c:\program files (x86)\microsoft visual studio 10.0\vc\include\xtree
CONST	SEGMENT
__real@38d1b717 DD 038d1b717r			; 0.0001
CONST	ENDS
;	COMDAT ??_C@_0DG@DKALEOGN@ioWorldMesh?3?3UpdateEffectLightDe@
CONST	SEGMENT
??_C@_0DG@DKALEOGN@ioWorldMesh?3?3UpdateEffectLightDe@ DB 'ioWorldMesh::U'
	DB	'pdateEffectLightDecal - Not Exist Decal', 00H ; `string'
; Function compile flags: /Ogsp
; File d:\lost saga for developer\youtube\tutorial\source\src\lsclient\ioworldmesh.cpp
CONST	ENDS
;	COMDAT ?UpdateEffectLightDecal@ioWorldMesh@@QAEXHPAVioLight@@@Z
_TEXT	SEGMENT
_pDecal$ = -8						; size = 4
_pGroup$ = -4						; size = 4
_iMapIndex$ = 8						; size = 4
_iter$ = 12						; size = 4
_pLight$ = 12						; size = 4
?UpdateEffectLightDecal@ioWorldMesh@@QAEXHPAVioLight@@@Z PROC ; ioWorldMesh::UpdateEffectLightDecal, COMDAT
; _this$ = ecx

; 342  : {

  00000	55		 push	 ebp
  00001	8b ec		 mov	 ebp, esp
  00003	51		 push	 ecx
  00004	51		 push	 ecx
  00005	56		 push	 esi

; 343  : 	ioEntityGroup *pGroup = GetEntityGroup( iMapIndex );

  00006	ff 75 08	 push	 DWORD PTR _iMapIndex$[ebp]
  00009	8b f1		 mov	 esi, ecx
  0000b	e8 00 00 00 00	 call	 ?GetEntityGroup@ioWorldMesh@@IAEPAVioEntityGroup@@H@Z ; ioWorldMesh::GetEntityGroup
  00010	89 45 fc	 mov	 DWORD PTR _pGroup$[ebp], eax

; 344  : 	if( !pGroup ) return;

  00013	85 c0		 test	 eax, eax
  00015	0f 84 bd 00 00
	00		 je	 $LN1@UpdateEffe

; 345  : 
; 346  : 	ioDecal *pDecal = pGroup->GetDecal( pLight->GetName() );

  0001b	57		 push	 edi
  0001c	8b 7d 0c	 mov	 edi, DWORD PTR _pLight$[ebp]
  0001f	8b cf		 mov	 ecx, edi
  00021	ff 15 00 00 00
	00		 call	 DWORD PTR __imp_?GetName@ioLight@@QBEABVioHashString@@XZ
  00027	8b 4d fc	 mov	 ecx, DWORD PTR _pGroup$[ebp]
  0002a	50		 push	 eax
  0002b	ff 15 00 00 00
	00		 call	 DWORD PTR __imp_?GetDecal@ioEntityGroup@@QBEPAVioDecal@@ABVioHashString@@@Z
  00031	89 45 f8	 mov	 DWORD PTR _pDecal$[ebp], eax

; 347  : 	if( !pDecal )	return;

  00034	85 c0		 test	 eax, eax
  00036	0f 84 9b 00 00
	00		 je	 $LN29@UpdateEffe

; 348  : 
; 349  : 	DecalLightMap::iterator iter = m_DecalLightMap.find( pLight->GetName() );

  0003c	53		 push	 ebx
  0003d	8b cf		 mov	 ecx, edi
  0003f	ff 15 00 00 00
	00		 call	 DWORD PTR __imp_?GetName@ioLight@@QBEABVioHashString@@XZ
  00045	50		 push	 eax
  00046	8d 45 0c	 lea	 eax, DWORD PTR _iter$[ebp]
  00049	50		 push	 eax
  0004a	8d 4e 28	 lea	 ecx, DWORD PTR [esi+40]
  0004d	e8 00 00 00 00	 call	 ?find@?$_Tree@V?$_Tmap_traits@VioHashString@@UD3DXVECTOR3@@U?$less@VioHashString@@@std@@V?$allocator@U?$pair@$$CBVioHashString@@UD3DXVECTOR3@@@std@@@4@$0A@@std@@@std@@QAE?AV?$_Tree_iterator@V?$_Tree_val@V?$_Tmap_traits@VioHashString@@UD3DXVECTOR3@@U?$less@VioHashString@@@std@@V?$allocator@U?$pair@$$CBVioHashString@@UD3DXVECTOR3@@@std@@@4@$0A@@std@@@std@@@2@ABVioHashString@@@Z ; std::_Tree<std::_Tmap_traits<ioHashString,D3DXVECTOR3,std::less<ioHashString>,std::allocator<std::pair<ioHashString const ,D3DXVECTOR3> >,0> >::find

; 350  : 	if( iter == m_DecalLightMap.end() )

  00052	8b 5d 0c	 mov	 ebx, DWORD PTR _iter$[ebp]
  00055	3b 5e 2c	 cmp	 ebx, DWORD PTR [esi+44]
  00058	75 18		 jne	 SHORT $LN4@UpdateEffe

; 351  : 	{
; 352  : 		LOG.PrintTimeAndLog( 0, "ioWorldMesh::UpdateEffectLightDecal - Not Exist Decal" );

  0005a	68 00 00 00 00	 push	 OFFSET ??_C@_0DG@DKALEOGN@ioWorldMesh?3?3UpdateEffectLightDe@
  0005f	6a 00		 push	 0
  00061	ff 35 00 00 00
	00		 push	 DWORD PTR __imp_?LOG@@3VCLog@@A
  00067	ff 15 00 00 00
	00		 call	 DWORD PTR __imp_?PrintTimeAndLog@CLog@@QAAXHPADZZ
  0006d	83 c4 0c	 add	 esp, 12			; 0000000cH

; 353  : 		return;

  00070	eb 64		 jmp	 SHORT $LN30@UpdateEffe
$LN4@UpdateEffe:

; 354  : 	}
; 355  : 
; 356  : 	if( !ioMath::IsEqual( iter->second, pLight->GetDerivedPosition() ) )

  00072	f3 0f 10 05 00
	00 00 00	 movss	 xmm0, DWORD PTR __real@38d1b717
  0007a	8b 07		 mov	 eax, DWORD PTR [edi]
  0007c	51		 push	 ecx
  0007d	8b cf		 mov	 ecx, edi
  0007f	f3 0f 11 04 24	 movss	 DWORD PTR [esp], xmm0
  00084	ff 50 60	 call	 DWORD PTR [eax+96]
  00087	50		 push	 eax
  00088	83 c3 1c	 add	 ebx, 28			; 0000001cH
  0008b	53		 push	 ebx
  0008c	ff 15 00 00 00
	00		 call	 DWORD PTR __imp_?IsEqual@ioMath@@SA_NABUD3DXVECTOR3@@0M@Z
  00092	83 c4 0c	 add	 esp, 12			; 0000000cH
  00095	84 c0		 test	 al, al
  00097	75 1f		 jne	 SHORT $LN3@UpdateEffe

; 357  : 	{
; 358  : 		pGroup->DestroyDecal( pLight->GetName() );

  00099	8b cf		 mov	 ecx, edi
  0009b	ff 15 00 00 00
	00		 call	 DWORD PTR __imp_?GetName@ioLight@@QBEABVioHashString@@XZ
  000a1	8b 4d fc	 mov	 ecx, DWORD PTR _pGroup$[ebp]
  000a4	50		 push	 eax
  000a5	ff 15 00 00 00
	00		 call	 DWORD PTR __imp_?DestroyDecal@ioEntityGroup@@QAEXABVioHashString@@@Z

; 359  : 		AddOmniLightDecal( iMapIndex, pLight );

  000ab	57		 push	 edi
  000ac	ff 75 08	 push	 DWORD PTR _iMapIndex$[ebp]
  000af	8b ce		 mov	 ecx, esi
  000b1	e8 00 00 00 00	 call	 ?AddOmniLightDecal@ioWorldMesh@@QAEXHPAVioLight@@@Z ; ioWorldMesh::AddOmniLightDecal

; 360  : 	}
; 361  : 	else

  000b6	eb 1e		 jmp	 SHORT $LN30@UpdateEffe
$LN3@UpdateEffe:

; 362  : 	{
; 363  : 		ioMaterial *pMaterial = pDecal->GetMaterial();

  000b8	8b 4d f8	 mov	 ecx, DWORD PTR _pDecal$[ebp]
  000bb	8b 01		 mov	 eax, DWORD PTR [ecx]
  000bd	ff 10		 call	 DWORD PTR [eax]
  000bf	8b f0		 mov	 esi, eax

; 364  : 		if( pMaterial )

  000c1	85 f6		 test	 esi, esi
  000c3	74 11		 je	 SHORT $LN30@UpdateEffe

; 365  : 		{
; 366  : 			pMaterial->SetDiffuse( pLight->GetRatedDiffuseColor() );

  000c5	8b cf		 mov	 ecx, edi
  000c7	ff 15 00 00 00
	00		 call	 DWORD PTR __imp_?GetRatedDiffuseColor@ioLight@@QBEABU_D3DCOLORVALUE@@XZ
  000cd	50		 push	 eax
  000ce	8b ce		 mov	 ecx, esi
  000d0	ff 15 00 00 00
	00		 call	 DWORD PTR __imp_?SetDiffuse@ioMaterial@@QAEXABU_D3DCOLORVALUE@@@Z
$LN30@UpdateEffe:
  000d6	5b		 pop	 ebx
$LN29@UpdateEffe:
  000d7	5f		 pop	 edi
$LN1@UpdateEffe:
  000d8	5e		 pop	 esi

; 367  : 		}
; 368  : 	}
; 369  : }

  000d9	c9		 leave
  000da	c2 08 00	 ret	 8
?UpdateEffectLightDecal@ioWorldMesh@@QAEXHPAVioLight@@@Z ENDP ; ioWorldMesh::UpdateEffectLightDecal
_TEXT	ENDS
END
