; Listing generated by Microsoft (R) Optimizing Compiler Version 16.00.30319.01 

	TITLE	D:\Lost Saga For Developer\Youtube\Tutorial\Source\src\LSClient\GUI\ItemMultipleCompoundWnd.cpp
	.686P
	.XMM
	include listing.inc
	.model	flat

INCLUDELIB MSVCRT
INCLUDELIB OLDNAMES

PUBLIC	??0InvenItemInfo@@QAE@XZ			; InvenItemInfo::InvenItemInfo
; Function compile flags: /Ogsp
; File d:\lost saga for developer\youtube\tutorial\source\src\lsclient\gui\itemcompoundwnd.h
;	COMDAT ??0InvenItemInfo@@QAE@XZ
_TEXT	SEGMENT
??0InvenItemInfo@@QAE@XZ PROC				; InvenItemInfo::InvenItemInfo, COMDAT
; _this$ = ecx

; 18   : 	InvenItemInfo()

  00000	8b c1		 mov	 eax, ecx

; 19   : 	{
; 20   : 		m_iSlotIndex = 0;

  00002	33 c9		 xor	 ecx, ecx
  00004	89 08		 mov	 DWORD PTR [eax], ecx

; 21   : 		m_iItemCode = 0;

  00006	89 48 04	 mov	 DWORD PTR [eax+4], ecx

; 22   : 		m_iReinforce = 0;

  00009	89 48 08	 mov	 DWORD PTR [eax+8], ecx

; 23   : 	}

  0000c	c3		 ret	 0
??0InvenItemInfo@@QAE@XZ ENDP				; InvenItemInfo::InvenItemInfo
_TEXT	ENDS
PUBLIC	??RCompoundItemInfoSort1@@QBE_NABUInvenItemInfo@@0@Z ; CompoundItemInfoSort1::operator()
; Function compile flags: /Ogsp
;	COMDAT ??RCompoundItemInfoSort1@@QBE_NABUInvenItemInfo@@0@Z
_TEXT	SEGMENT
_lhs$ = 8						; size = 4
_rhs$ = 12						; size = 4
??RCompoundItemInfoSort1@@QBE_NABUInvenItemInfo@@0@Z PROC ; CompoundItemInfoSort1::operator(), COMDAT
; _this$ = ecx

; 32   : 	{

  00000	55		 push	 ebp
  00001	8b ec		 mov	 ebp, esp

; 33   : 		if( lhs.m_iItemCode < rhs.m_iItemCode )

  00003	8b 55 08	 mov	 edx, DWORD PTR _lhs$[ebp]
  00006	8b 42 04	 mov	 eax, DWORD PTR [edx+4]
  00009	56		 push	 esi
  0000a	8b 75 0c	 mov	 esi, DWORD PTR _rhs$[ebp]
  0000d	8b 4e 04	 mov	 ecx, DWORD PTR [esi+4]
  00010	3b c1		 cmp	 eax, ecx
  00012	7d 04		 jge	 SHORT $LN6@operator
$LN7@operator:

; 34   : 			return true;

  00014	b0 01		 mov	 al, 1
  00016	eb 0c		 jmp	 SHORT $LN4@operator
$LN6@operator:

; 35   : 
; 36   : 		if( lhs.m_iItemCode == rhs.m_iItemCode )

  00018	75 08		 jne	 SHORT $LN1@operator

; 37   : 		{
; 38   : 			if( lhs.m_iReinforce > rhs.m_iReinforce )

  0001a	8b 42 08	 mov	 eax, DWORD PTR [edx+8]
  0001d	3b 46 08	 cmp	 eax, DWORD PTR [esi+8]

; 39   : 				return true;	

  00020	7f f2		 jg	 SHORT $LN7@operator
$LN1@operator:

; 40   : 		}
; 41   : 		return false;

  00022	32 c0		 xor	 al, al
$LN4@operator:
  00024	5e		 pop	 esi

; 42   : 	}

  00025	5d		 pop	 ebp
  00026	c2 08 00	 ret	 8
??RCompoundItemInfoSort1@@QBE_NABUInvenItemInfo@@0@Z ENDP ; CompoundItemInfoSort1::operator()
_TEXT	ENDS
PUBLIC	?GetSelectExtraItemSlot@SelectExtraItemBtn@@QBEHXZ ; SelectExtraItemBtn::GetSelectExtraItemSlot
; Function compile flags: /Ogsp
;	COMDAT ?GetSelectExtraItemSlot@SelectExtraItemBtn@@QBEHXZ
_TEXT	SEGMENT
?GetSelectExtraItemSlot@SelectExtraItemBtn@@QBEHXZ PROC	; SelectExtraItemBtn::GetSelectExtraItemSlot, COMDAT
; _this$ = ecx

; 76   : 	inline int GetSelectExtraItemSlot() const { return m_iCurSelectSlot; }

  00000	8b 81 fc 01 00
	00		 mov	 eax, DWORD PTR [ecx+508]
  00006	c3		 ret	 0
?GetSelectExtraItemSlot@SelectExtraItemBtn@@QBEHXZ ENDP	; SelectExtraItemBtn::GetSelectExtraItemSlot
_TEXT	ENDS
PUBLIC	?iwm_create@ItemMultipleCompoundWnd@@UAEXXZ	; ItemMultipleCompoundWnd::iwm_create
; Function compile flags: /Ogsp
; File d:\lost saga for developer\youtube\tutorial\source\src\lsclient\gui\itemmultiplecompoundwnd.cpp
;	COMDAT ?iwm_create@ItemMultipleCompoundWnd@@UAEXXZ
_TEXT	SEGMENT
?iwm_create@ItemMultipleCompoundWnd@@UAEXXZ PROC	; ItemMultipleCompoundWnd::iwm_create, COMDAT
; _this$ = ecx

; 55   : }

  00000	c3		 ret	 0
?iwm_create@ItemMultipleCompoundWnd@@UAEXXZ ENDP	; ItemMultipleCompoundWnd::iwm_create
_TEXT	ENDS
PUBLIC	??1EXTRAITEMSLOT@@QAE@XZ			; EXTRAITEMSLOT::~EXTRAITEMSLOT
EXTRN	__imp_??1ioHashString@@QAE@XZ:PROC
EXTRN	___CxxFrameHandler3:PROC
EXTRN	@__security_check_cookie@4:PROC
EXTRN	__EH_epilog3:PROC
EXTRN	__EH_prolog3:PROC
;	COMDAT xdata$x
xdata$x	SEGMENT
__unwindtable$??1EXTRAITEMSLOT@@QAE@XZ DD 0ffffffffH
	DD	FLAT:__unwindfunclet$??1EXTRAITEMSLOT@@QAE@XZ$0
__ehfuncinfo$??1EXTRAITEMSLOT@@QAE@XZ DD 019930522H
	DD	01H
	DD	FLAT:__unwindtable$??1EXTRAITEMSLOT@@QAE@XZ
	DD	2 DUP(00H)
	DD	2 DUP(00H)
	DD	00H
	DD	01H
; Function compile flags: /Ogsp
xdata$x	ENDS
;	COMDAT ??1EXTRAITEMSLOT@@QAE@XZ
_TEXT	SEGMENT
_this$ = -16						; size = 4
__$EHRec$ = -12						; size = 12
??1EXTRAITEMSLOT@@QAE@XZ PROC				; EXTRAITEMSLOT::~EXTRAITEMSLOT, COMDAT
; _this$ = ecx
  00000	6a 04		 push	 4
  00002	b8 00 00 00 00	 mov	 eax, __ehhandler$??1EXTRAITEMSLOT@@QAE@XZ
  00007	e8 00 00 00 00	 call	 __EH_prolog3
  0000c	8b f9		 mov	 edi, ecx
  0000e	89 7d f0	 mov	 DWORD PTR _this$[ebp], edi
  00011	8b 35 00 00 00
	00		 mov	 esi, DWORD PTR __imp_??1ioHashString@@QAE@XZ
  00017	83 65 fc 00	 and	 DWORD PTR __$EHRec$[ebp+8], 0
  0001b	8d 4f 38	 lea	 ecx, DWORD PTR [edi+56]
  0001e	ff d6		 call	 esi
  00020	83 4d fc ff	 or	 DWORD PTR __$EHRec$[ebp+8], -1
  00024	8d 4f 28	 lea	 ecx, DWORD PTR [edi+40]
  00027	ff d6		 call	 esi
  00029	e8 00 00 00 00	 call	 __EH_epilog3
  0002e	c3		 ret	 0
_TEXT	ENDS
;	COMDAT text$x
text$x	SEGMENT
__unwindfunclet$??1EXTRAITEMSLOT@@QAE@XZ$0:
  00000	8b 4d f0	 mov	 ecx, DWORD PTR _this$[ebp]
  00003	83 c1 28	 add	 ecx, 40			; 00000028H
  00006	ff 25 00 00 00
	00		 jmp	 DWORD PTR __imp_??1ioHashString@@QAE@XZ
__ehhandler$??1EXTRAITEMSLOT@@QAE@XZ:
  0000c	8b 54 24 08	 mov	 edx, DWORD PTR [esp+8]
  00010	8d 42 0c	 lea	 eax, DWORD PTR [edx+12]
  00013	8b 4a ec	 mov	 ecx, DWORD PTR [edx-20]
  00016	33 c8		 xor	 ecx, eax
  00018	e8 00 00 00 00	 call	 @__security_check_cookie@4
  0001d	b8 00 00 00 00	 mov	 eax, OFFSET __ehfuncinfo$??1EXTRAITEMSLOT@@QAE@XZ
  00022	e9 00 00 00 00	 jmp	 ___CxxFrameHandler3
text$x	ENDS
??1EXTRAITEMSLOT@@QAE@XZ ENDP				; EXTRAITEMSLOT::~EXTRAITEMSLOT
PUBLIC	??_7bad_alloc@std@@6B@				; std::bad_alloc::`vftable'
PUBLIC	??0bad_alloc@std@@QAE@PBD@Z			; std::bad_alloc::bad_alloc
PUBLIC	??_R4bad_alloc@std@@6B@				; std::bad_alloc::`RTTI Complete Object Locator'
PUBLIC	??_R0?AVbad_alloc@std@@@8			; std::bad_alloc `RTTI Type Descriptor'
PUBLIC	??_R3bad_alloc@std@@8				; std::bad_alloc::`RTTI Class Hierarchy Descriptor'
PUBLIC	??_R2bad_alloc@std@@8				; std::bad_alloc::`RTTI Base Class Array'
PUBLIC	??_R1A@?0A@EA@bad_alloc@std@@8			; std::bad_alloc::`RTTI Base Class Descriptor at (0,-1,0,64)'
PUBLIC	??_R1A@?0A@EA@exception@std@@8			; std::exception::`RTTI Base Class Descriptor at (0,-1,0,64)'
PUBLIC	??_R0?AVexception@std@@@8			; std::exception `RTTI Type Descriptor'
PUBLIC	??_R3exception@std@@8				; std::exception::`RTTI Class Hierarchy Descriptor'
PUBLIC	??_R2exception@std@@8				; std::exception::`RTTI Base Class Array'
EXTRN	__imp_??0exception@std@@QAE@ABQBD@Z:PROC
EXTRN	??_7type_info@@6B@:QWORD			; type_info::`vftable'
EXTRN	??_Ebad_alloc@std@@UAEPAXI@Z:PROC		; std::bad_alloc::`vector deleting destructor'
EXTRN	?what@exception@std@@UBEPBDXZ:PROC		; std::exception::what
;	COMDAT ??_R2exception@std@@8
; File c:\program files (x86)\microsoft visual studio 10.0\vc\include\exception
rdata$r	SEGMENT
??_R2exception@std@@8 DD FLAT:??_R1A@?0A@EA@exception@std@@8 ; std::exception::`RTTI Base Class Array'
rdata$r	ENDS
;	COMDAT ??_R3exception@std@@8
rdata$r	SEGMENT
??_R3exception@std@@8 DD 00H				; std::exception::`RTTI Class Hierarchy Descriptor'
	DD	00H
	DD	01H
	DD	FLAT:??_R2exception@std@@8
rdata$r	ENDS
;	COMDAT ??_R0?AVexception@std@@@8
_DATA	SEGMENT
??_R0?AVexception@std@@@8 DD FLAT:??_7type_info@@6B@	; std::exception `RTTI Type Descriptor'
	DD	00H
	DB	'.?AVexception@std@@', 00H
_DATA	ENDS
;	COMDAT ??_R1A@?0A@EA@exception@std@@8
rdata$r	SEGMENT
??_R1A@?0A@EA@exception@std@@8 DD FLAT:??_R0?AVexception@std@@@8 ; std::exception::`RTTI Base Class Descriptor at (0,-1,0,64)'
	DD	00H
	DD	00H
	DD	0ffffffffH
	DD	00H
	DD	040H
	DD	FLAT:??_R3exception@std@@8
rdata$r	ENDS
;	COMDAT ??_R1A@?0A@EA@bad_alloc@std@@8
rdata$r	SEGMENT
??_R1A@?0A@EA@bad_alloc@std@@8 DD FLAT:??_R0?AVbad_alloc@std@@@8 ; std::bad_alloc::`RTTI Base Class Descriptor at (0,-1,0,64)'
	DD	01H
	DD	00H
	DD	0ffffffffH
	DD	00H
	DD	040H
	DD	FLAT:??_R3bad_alloc@std@@8
rdata$r	ENDS
;	COMDAT ??_R2bad_alloc@std@@8
rdata$r	SEGMENT
??_R2bad_alloc@std@@8 DD FLAT:??_R1A@?0A@EA@bad_alloc@std@@8 ; std::bad_alloc::`RTTI Base Class Array'
	DD	FLAT:??_R1A@?0A@EA@exception@std@@8
rdata$r	ENDS
;	COMDAT ??_R3bad_alloc@std@@8
rdata$r	SEGMENT
??_R3bad_alloc@std@@8 DD 00H				; std::bad_alloc::`RTTI Class Hierarchy Descriptor'
	DD	00H
	DD	02H
	DD	FLAT:??_R2bad_alloc@std@@8
rdata$r	ENDS
;	COMDAT ??_R0?AVbad_alloc@std@@@8
_DATA	SEGMENT
??_R0?AVbad_alloc@std@@@8 DD FLAT:??_7type_info@@6B@	; std::bad_alloc `RTTI Type Descriptor'
	DD	00H
	DB	'.?AVbad_alloc@std@@', 00H
_DATA	ENDS
;	COMDAT ??_R4bad_alloc@std@@6B@
rdata$r	SEGMENT
??_R4bad_alloc@std@@6B@ DD 00H				; std::bad_alloc::`RTTI Complete Object Locator'
	DD	00H
	DD	00H
	DD	FLAT:??_R0?AVbad_alloc@std@@@8
	DD	FLAT:??_R3bad_alloc@std@@8
rdata$r	ENDS
;	COMDAT ??_7bad_alloc@std@@6B@
CONST	SEGMENT
??_7bad_alloc@std@@6B@ DD FLAT:??_R4bad_alloc@std@@6B@	; std::bad_alloc::`vftable'
	DD	FLAT:??_Ebad_alloc@std@@UAEPAXI@Z
	DD	FLAT:?what@exception@std@@UBEPBDXZ
; Function compile flags: /Ogsp
CONST	ENDS
;	COMDAT ??0bad_alloc@std@@QAE@PBD@Z
_TEXT	SEGMENT
__Message$ = 8						; size = 4
??0bad_alloc@std@@QAE@PBD@Z PROC			; std::bad_alloc::bad_alloc, COMDAT
; _this$ = ecx

; 345  : 		{	// construct from message string

  00000	55		 push	 ebp
  00001	8b ec		 mov	 ebp, esp
  00003	56		 push	 esi
  00004	8d 45 08	 lea	 eax, DWORD PTR __Message$[ebp]
  00007	50		 push	 eax
  00008	8b f1		 mov	 esi, ecx
  0000a	ff 15 00 00 00
	00		 call	 DWORD PTR __imp_??0exception@std@@QAE@ABQBD@Z
  00010	c7 06 00 00 00
	00		 mov	 DWORD PTR [esi], OFFSET ??_7bad_alloc@std@@6B@

; 346  : 		}

  00016	8b c6		 mov	 eax, esi
  00018	5e		 pop	 esi
  00019	5d		 pop	 ebp
  0001a	c2 04 00	 ret	 4
??0bad_alloc@std@@QAE@PBD@Z ENDP			; std::bad_alloc::bad_alloc
_TEXT	ENDS
PUBLIC	??1NewShopPullDownItem@@QAE@XZ			; NewShopPullDownItem::~NewShopPullDownItem
;	COMDAT xdata$x
xdata$x	SEGMENT
__unwindtable$??1NewShopPullDownItem@@QAE@XZ DD 0ffffffffH
	DD	FLAT:__unwindfunclet$??1NewShopPullDownItem@@QAE@XZ$0
	DD	00H
	DD	FLAT:__unwindfunclet$??1NewShopPullDownItem@@QAE@XZ$1
__ehfuncinfo$??1NewShopPullDownItem@@QAE@XZ DD 019930522H
	DD	02H
	DD	FLAT:__unwindtable$??1NewShopPullDownItem@@QAE@XZ
	DD	2 DUP(00H)
	DD	2 DUP(00H)
	DD	00H
	DD	01H
; Function compile flags: /Ogsp
xdata$x	ENDS
;	COMDAT ??1NewShopPullDownItem@@QAE@XZ
_TEXT	SEGMENT
_this$ = -16						; size = 4
__$EHRec$ = -12						; size = 12
??1NewShopPullDownItem@@QAE@XZ PROC			; NewShopPullDownItem::~NewShopPullDownItem, COMDAT
; _this$ = ecx
  00000	6a 04		 push	 4
  00002	b8 00 00 00 00	 mov	 eax, __ehhandler$??1NewShopPullDownItem@@QAE@XZ
  00007	e8 00 00 00 00	 call	 __EH_prolog3
  0000c	8b f9		 mov	 edi, ecx
  0000e	89 7d f0	 mov	 DWORD PTR _this$[ebp], edi
  00011	8b 35 00 00 00
	00		 mov	 esi, DWORD PTR __imp_??1ioHashString@@QAE@XZ
  00017	8d 4f 3c	 lea	 ecx, DWORD PTR [edi+60]
  0001a	c7 45 fc 01 00
	00 00		 mov	 DWORD PTR __$EHRec$[ebp+8], 1
  00021	ff d6		 call	 esi
  00023	8d 4f 24	 lea	 ecx, DWORD PTR [edi+36]
  00026	c6 45 fc 00	 mov	 BYTE PTR __$EHRec$[ebp+8], 0
  0002a	ff d6		 call	 esi
  0002c	83 4d fc ff	 or	 DWORD PTR __$EHRec$[ebp+8], -1
  00030	8b cf		 mov	 ecx, edi
  00032	ff d6		 call	 esi
  00034	e8 00 00 00 00	 call	 __EH_epilog3
  00039	c3		 ret	 0
_TEXT	ENDS
;	COMDAT text$x
text$x	SEGMENT
__unwindfunclet$??1NewShopPullDownItem@@QAE@XZ$0:
  00000	8b 4d f0	 mov	 ecx, DWORD PTR _this$[ebp]
  00003	ff 25 00 00 00
	00		 jmp	 DWORD PTR __imp_??1ioHashString@@QAE@XZ
__unwindfunclet$??1NewShopPullDownItem@@QAE@XZ$1:
  00009	8b 4d f0	 mov	 ecx, DWORD PTR _this$[ebp]
  0000c	83 c1 24	 add	 ecx, 36			; 00000024H
  0000f	ff 25 00 00 00
	00		 jmp	 DWORD PTR __imp_??1ioHashString@@QAE@XZ
__ehhandler$??1NewShopPullDownItem@@QAE@XZ:
  00015	8b 54 24 08	 mov	 edx, DWORD PTR [esp+8]
  00019	8d 42 0c	 lea	 eax, DWORD PTR [edx+12]
  0001c	8b 4a ec	 mov	 ecx, DWORD PTR [edx-20]
  0001f	33 c8		 xor	 ecx, eax
  00021	e8 00 00 00 00	 call	 @__security_check_cookie@4
  00026	b8 00 00 00 00	 mov	 eax, OFFSET __ehfuncinfo$??1NewShopPullDownItem@@QAE@XZ
  0002b	e9 00 00 00 00	 jmp	 ___CxxFrameHandler3
text$x	ENDS
??1NewShopPullDownItem@@QAE@XZ ENDP			; NewShopPullDownItem::~NewShopPullDownItem
PUBLIC	??1bad_alloc@std@@UAE@XZ			; std::bad_alloc::~bad_alloc
EXTRN	__imp_??1exception@std@@UAE@XZ:PROC
; Function compile flags: /Ogsp
;	COMDAT ??1bad_alloc@std@@UAE@XZ
_TEXT	SEGMENT
??1bad_alloc@std@@UAE@XZ PROC				; std::bad_alloc::~bad_alloc, COMDAT
; _this$ = ecx

; 354  : 		{	// destroy the object

  00000	c7 01 00 00 00
	00		 mov	 DWORD PTR [ecx], OFFSET ??_7bad_alloc@std@@6B@

; 355  : 		}

  00006	ff 25 00 00 00
	00		 jmp	 DWORD PTR __imp_??1exception@std@@UAE@XZ
??1bad_alloc@std@@UAE@XZ ENDP				; std::bad_alloc::~bad_alloc
_TEXT	ENDS
EXTRN	??3@YAXPAX@Z:PROC				; operator delete
; Function compile flags: /Ogsp
;	COMDAT ??_Gbad_alloc@std@@UAEPAXI@Z
_TEXT	SEGMENT
___flags$ = 8						; size = 4
??_Gbad_alloc@std@@UAEPAXI@Z PROC			; std::bad_alloc::`scalar deleting destructor', COMDAT
; _this$ = ecx
  00000	55		 push	 ebp
  00001	8b ec		 mov	 ebp, esp
  00003	56		 push	 esi
  00004	8b f1		 mov	 esi, ecx
  00006	c7 06 00 00 00
	00		 mov	 DWORD PTR [esi], OFFSET ??_7bad_alloc@std@@6B@
  0000c	ff 15 00 00 00
	00		 call	 DWORD PTR __imp_??1exception@std@@UAE@XZ
  00012	f6 45 08 01	 test	 BYTE PTR ___flags$[ebp], 1
  00016	74 07		 je	 SHORT $LN1@scalar
  00018	56		 push	 esi
  00019	e8 00 00 00 00	 call	 ??3@YAXPAX@Z		; operator delete
  0001e	59		 pop	 ecx
$LN1@scalar:
  0001f	8b c6		 mov	 eax, esi
  00021	5e		 pop	 esi
  00022	5d		 pop	 ebp
  00023	c2 04 00	 ret	 4
??_Gbad_alloc@std@@UAEPAXI@Z ENDP			; std::bad_alloc::`scalar deleting destructor'
_TEXT	ENDS
PUBLIC	?iwm_show@ItemMultipleCompoundWnd@@UAEXXZ	; ItemMultipleCompoundWnd::iwm_show
; Function compile flags: /Ogsp
; File d:\lost saga for developer\youtube\tutorial\source\src\lsclient\gui\itemmultiplecompoundwnd.cpp
;	COMDAT ?iwm_show@ItemMultipleCompoundWnd@@UAEXXZ
_TEXT	SEGMENT
?iwm_show@ItemMultipleCompoundWnd@@UAEXXZ PROC		; ItemMultipleCompoundWnd::iwm_show, COMDAT
; _this$ = ecx

; 369  : }

  00000	c3		 ret	 0
?iwm_show@ItemMultipleCompoundWnd@@UAEXXZ ENDP		; ItemMultipleCompoundWnd::iwm_show
_TEXT	ENDS
PUBLIC	??2@YAPAXIPAX@Z					; operator new
; Function compile flags: /Ogsp
; File c:\program files (x86)\microsoft visual studio 10.0\vc\include\new
;	COMDAT ??2@YAPAXIPAX@Z
_TEXT	SEGMENT
___formal$ = 8						; size = 4
__Where$ = 12						; size = 4
??2@YAPAXIPAX@Z PROC					; operator new, COMDAT

; 56   : 	{	// construct array with placement at _Where

  00000	55		 push	 ebp
  00001	8b ec		 mov	 ebp, esp

; 57   : 	return (_Where);

  00003	8b 45 0c	 mov	 eax, DWORD PTR __Where$[ebp]

; 58   : 	}

  00006	5d		 pop	 ebp
  00007	c3		 ret	 0
??2@YAPAXIPAX@Z ENDP					; operator new
_TEXT	ENDS
PUBLIC	??3@YAXPAX0@Z					; operator delete
; Function compile flags: /Ogsp
;	COMDAT ??3@YAXPAX0@Z
_TEXT	SEGMENT
___formal$ = 8						; size = 4
___formal$ = 12						; size = 4
??3@YAXPAX0@Z PROC					; operator delete, COMDAT

; 62   : 	}

  00000	c3		 ret	 0
??3@YAXPAX0@Z ENDP					; operator delete
_TEXT	ENDS
PUBLIC	?empty@?$vector@UEXTRAITEMSLOT@@V?$allocator@UEXTRAITEMSLOT@@@std@@@std@@QBE_NXZ ; std::vector<EXTRAITEMSLOT,std::allocator<EXTRAITEMSLOT> >::empty
; Function compile flags: /Ogsp
; File c:\program files (x86)\microsoft visual studio 10.0\vc\include\vector
;	COMDAT ?empty@?$vector@UEXTRAITEMSLOT@@V?$allocator@UEXTRAITEMSLOT@@@std@@@std@@QBE_NXZ
_TEXT	SEGMENT
?empty@?$vector@UEXTRAITEMSLOT@@V?$allocator@UEXTRAITEMSLOT@@@std@@@std@@QBE_NXZ PROC ; std::vector<EXTRAITEMSLOT,std::allocator<EXTRAITEMSLOT> >::empty, COMDAT
; _this$ = ecx

; 889  : 		return (this->_Myfirst == this->_Mylast);

  00000	8b 01		 mov	 eax, DWORD PTR [ecx]
  00002	2b 41 04	 sub	 eax, DWORD PTR [ecx+4]
  00005	f7 d8		 neg	 eax
  00007	1b c0		 sbb	 eax, eax
  00009	40		 inc	 eax

; 890  : 		}

  0000a	c3		 ret	 0
?empty@?$vector@UEXTRAITEMSLOT@@V?$allocator@UEXTRAITEMSLOT@@@std@@@std@@QBE_NXZ ENDP ; std::vector<EXTRAITEMSLOT,std::allocator<EXTRAITEMSLOT> >::empty
_TEXT	ENDS
PUBLIC	?GetSingleton@?$Singleton@VioEtcItemManager@@@@SAAAVioEtcItemManager@@XZ ; Singleton<ioEtcItemManager>::GetSingleton
EXTRN	?ms_Singleton@?$Singleton@VioEtcItemManager@@@@1PAVioEtcItemManager@@A:DWORD ; Singleton<ioEtcItemManager>::ms_Singleton
; Function compile flags: /Ogsp
; File d:\lost saga for developer\youtube\tutorial\source\src\io3dengine\iosingleton.h
;	COMDAT ?GetSingleton@?$Singleton@VioEtcItemManager@@@@SAAAVioEtcItemManager@@XZ
_TEXT	SEGMENT
?GetSingleton@?$Singleton@VioEtcItemManager@@@@SAAAVioEtcItemManager@@XZ PROC ; Singleton<ioEtcItemManager>::GetSingleton, COMDAT

; 42   : 		assert( ms_Singleton );
; 43   : 		return (*ms_Singleton);

  00000	a1 00 00 00 00	 mov	 eax, DWORD PTR ?ms_Singleton@?$Singleton@VioEtcItemManager@@@@1PAVioEtcItemManager@@A ; Singleton<ioEtcItemManager>::ms_Singleton

; 44   : 	}

  00005	c3		 ret	 0
?GetSingleton@?$Singleton@VioEtcItemManager@@@@SAAAVioEtcItemManager@@XZ ENDP ; Singleton<ioEtcItemManager>::GetSingleton
_TEXT	ENDS
PUBLIC	?size@?$vector@UNewShopPullDownItem@@V?$allocator@UNewShopPullDownItem@@@std@@@std@@QBEIXZ ; std::vector<NewShopPullDownItem,std::allocator<NewShopPullDownItem> >::size
; Function compile flags: /Ogsp
; File c:\program files (x86)\microsoft visual studio 10.0\vc\include\vector
;	COMDAT ?size@?$vector@UNewShopPullDownItem@@V?$allocator@UNewShopPullDownItem@@@std@@@std@@QBEIXZ
_TEXT	SEGMENT
?size@?$vector@UNewShopPullDownItem@@V?$allocator@UNewShopPullDownItem@@@std@@@std@@QBEIXZ PROC ; std::vector<NewShopPullDownItem,std::allocator<NewShopPullDownItem> >::size, COMDAT
; _this$ = ecx

; 879  : 		return (this->_Mylast - this->_Myfirst);

  00000	8b 41 04	 mov	 eax, DWORD PTR [ecx+4]
  00003	2b 01		 sub	 eax, DWORD PTR [ecx]
  00005	6a 50		 push	 80			; 00000050H
  00007	99		 cdq
  00008	59		 pop	 ecx
  00009	f7 f9		 idiv	 ecx

; 880  : 		}

  0000b	c3		 ret	 0
?size@?$vector@UNewShopPullDownItem@@V?$allocator@UNewShopPullDownItem@@@std@@@std@@QBEIXZ ENDP ; std::vector<NewShopPullDownItem,std::allocator<NewShopPullDownItem> >::size
_TEXT	ENDS
PUBLIC	??A?$vector@UNewShopPullDownItem@@V?$allocator@UNewShopPullDownItem@@@std@@@std@@QAEAAUNewShopPullDownItem@@I@Z ; std::vector<NewShopPullDownItem,std::allocator<NewShopPullDownItem> >::operator[]
; Function compile flags: /Ogsp
;	COMDAT ??A?$vector@UNewShopPullDownItem@@V?$allocator@UNewShopPullDownItem@@@std@@@std@@QAEAAUNewShopPullDownItem@@I@Z
_TEXT	SEGMENT
__Pos$ = 8						; size = 4
??A?$vector@UNewShopPullDownItem@@V?$allocator@UNewShopPullDownItem@@@std@@@std@@QAEAAUNewShopPullDownItem@@I@Z PROC ; std::vector<NewShopPullDownItem,std::allocator<NewShopPullDownItem> >::operator[], COMDAT
; _this$ = ecx

; 928  : 		{	// subscript mutable sequence

  00000	55		 push	 ebp
  00001	8b ec		 mov	 ebp, esp

; 929  :  #if _ITERATOR_DEBUG_LEVEL == 2
; 930  : 		if (size() <= _Pos)
; 931  : 			{	// report error
; 932  : 			_DEBUG_ERROR("vector subscript out of range");
; 933  : 			_SCL_SECURE_OUT_OF_RANGE;
; 934  : 			}
; 935  : 
; 936  :  #elif _ITERATOR_DEBUG_LEVEL == 1
; 937  : 		_SCL_SECURE_VALIDATE_RANGE(_Pos < size());
; 938  :  #endif /* _ITERATOR_DEBUG_LEVEL */
; 939  : 
; 940  : 		return (*(this->_Myfirst + _Pos));

  00003	8b 45 08	 mov	 eax, DWORD PTR __Pos$[ebp]
  00006	6b c0 50	 imul	 eax, 80			; 00000050H
  00009	03 01		 add	 eax, DWORD PTR [ecx]

; 941  : 		}

  0000b	5d		 pop	 ebp
  0000c	c2 04 00	 ret	 4
??A?$vector@UNewShopPullDownItem@@V?$allocator@UNewShopPullDownItem@@@std@@@std@@QAEAAUNewShopPullDownItem@@I@Z ENDP ; std::vector<NewShopPullDownItem,std::allocator<NewShopPullDownItem> >::operator[]
_TEXT	ENDS
PUBLIC	?size@?$vector@UInvenItemInfo@@V?$allocator@UInvenItemInfo@@@std@@@std@@QBEIXZ ; std::vector<InvenItemInfo,std::allocator<InvenItemInfo> >::size
; Function compile flags: /Ogsp
;	COMDAT ?size@?$vector@UInvenItemInfo@@V?$allocator@UInvenItemInfo@@@std@@@std@@QBEIXZ
_TEXT	SEGMENT
?size@?$vector@UInvenItemInfo@@V?$allocator@UInvenItemInfo@@@std@@@std@@QBEIXZ PROC ; std::vector<InvenItemInfo,std::allocator<InvenItemInfo> >::size, COMDAT
; _this$ = ecx

; 879  : 		return (this->_Mylast - this->_Myfirst);

  00000	8b 41 04	 mov	 eax, DWORD PTR [ecx+4]
  00003	2b 01		 sub	 eax, DWORD PTR [ecx]
  00005	6a 0c		 push	 12			; 0000000cH
  00007	99		 cdq
  00008	59		 pop	 ecx
  00009	f7 f9		 idiv	 ecx

; 880  : 		}

  0000b	c3		 ret	 0
?size@?$vector@UInvenItemInfo@@V?$allocator@UInvenItemInfo@@@std@@@std@@QBEIXZ ENDP ; std::vector<InvenItemInfo,std::allocator<InvenItemInfo> >::size
_TEXT	ENDS
PUBLIC	?empty@?$vector@UInvenItemInfo@@V?$allocator@UInvenItemInfo@@@std@@@std@@QBE_NXZ ; std::vector<InvenItemInfo,std::allocator<InvenItemInfo> >::empty
; Function compile flags: /Ogsp
;	COMDAT ?empty@?$vector@UInvenItemInfo@@V?$allocator@UInvenItemInfo@@@std@@@std@@QBE_NXZ
_TEXT	SEGMENT
?empty@?$vector@UInvenItemInfo@@V?$allocator@UInvenItemInfo@@@std@@@std@@QBE_NXZ PROC ; std::vector<InvenItemInfo,std::allocator<InvenItemInfo> >::empty, COMDAT
; _this$ = ecx

; 889  : 		return (this->_Myfirst == this->_Mylast);

  00000	8b 01		 mov	 eax, DWORD PTR [ecx]
  00002	2b 41 04	 sub	 eax, DWORD PTR [ecx+4]
  00005	f7 d8		 neg	 eax
  00007	1b c0		 sbb	 eax, eax
  00009	40		 inc	 eax

; 890  : 		}

  0000a	c3		 ret	 0
?empty@?$vector@UInvenItemInfo@@V?$allocator@UInvenItemInfo@@@std@@@std@@QBE_NXZ ENDP ; std::vector<InvenItemInfo,std::allocator<InvenItemInfo> >::empty
_TEXT	ENDS
PUBLIC	??A?$vector@UInvenItemInfo@@V?$allocator@UInvenItemInfo@@@std@@@std@@QAEAAUInvenItemInfo@@I@Z ; std::vector<InvenItemInfo,std::allocator<InvenItemInfo> >::operator[]
; Function compile flags: /Ogsp
;	COMDAT ??A?$vector@UInvenItemInfo@@V?$allocator@UInvenItemInfo@@@std@@@std@@QAEAAUInvenItemInfo@@I@Z
_TEXT	SEGMENT
__Pos$ = 8						; size = 4
??A?$vector@UInvenItemInfo@@V?$allocator@UInvenItemInfo@@@std@@@std@@QAEAAUInvenItemInfo@@I@Z PROC ; std::vector<InvenItemInfo,std::allocator<InvenItemInfo> >::operator[], COMDAT
; _this$ = ecx

; 928  : 		{	// subscript mutable sequence

  00000	55		 push	 ebp
  00001	8b ec		 mov	 ebp, esp

; 929  :  #if _ITERATOR_DEBUG_LEVEL == 2
; 930  : 		if (size() <= _Pos)
; 931  : 			{	// report error
; 932  : 			_DEBUG_ERROR("vector subscript out of range");
; 933  : 			_SCL_SECURE_OUT_OF_RANGE;
; 934  : 			}
; 935  : 
; 936  :  #elif _ITERATOR_DEBUG_LEVEL == 1
; 937  : 		_SCL_SECURE_VALIDATE_RANGE(_Pos < size());
; 938  :  #endif /* _ITERATOR_DEBUG_LEVEL */
; 939  : 
; 940  : 		return (*(this->_Myfirst + _Pos));

  00003	8b 45 08	 mov	 eax, DWORD PTR __Pos$[ebp]
  00006	6b c0 0c	 imul	 eax, 12			; 0000000cH
  00009	03 01		 add	 eax, DWORD PTR [ecx]

; 941  : 		}

  0000b	5d		 pop	 ebp
  0000c	c2 04 00	 ret	 4
??A?$vector@UInvenItemInfo@@V?$allocator@UInvenItemInfo@@@std@@@std@@QAEAAUInvenItemInfo@@I@Z ENDP ; std::vector<InvenItemInfo,std::allocator<InvenItemInfo> >::operator[]
_TEXT	ENDS
PUBLIC	?_Adopt@_Iterator_base0@std@@QAEXPBX@Z		; std::_Iterator_base0::_Adopt
; Function compile flags: /Ogsp
; File c:\program files (x86)\microsoft visual studio 10.0\vc\include\xutility
;	COMDAT ?_Adopt@_Iterator_base0@std@@QAEXPBX@Z
_TEXT	SEGMENT
___formal$ = 8						; size = 4
?_Adopt@_Iterator_base0@std@@QAEXPBX@Z PROC		; std::_Iterator_base0::_Adopt, COMDAT
; _this$ = ecx

; 49   : 		}

  00000	c2 04 00	 ret	 4
?_Adopt@_Iterator_base0@std@@QAEXPBX@Z ENDP		; std::_Iterator_base0::_Adopt
_TEXT	ENDS
PUBLIC	?size@?$vector@UEXTRAITEMSLOT@@V?$allocator@UEXTRAITEMSLOT@@@std@@@std@@QBEIXZ ; std::vector<EXTRAITEMSLOT,std::allocator<EXTRAITEMSLOT> >::size
; Function compile flags: /Ogsp
; File c:\program files (x86)\microsoft visual studio 10.0\vc\include\vector
;	COMDAT ?size@?$vector@UEXTRAITEMSLOT@@V?$allocator@UEXTRAITEMSLOT@@@std@@@std@@QBEIXZ
_TEXT	SEGMENT
?size@?$vector@UEXTRAITEMSLOT@@V?$allocator@UEXTRAITEMSLOT@@@std@@@std@@QBEIXZ PROC ; std::vector<EXTRAITEMSLOT,std::allocator<EXTRAITEMSLOT> >::size, COMDAT
; _this$ = ecx

; 879  : 		return (this->_Mylast - this->_Myfirst);

  00000	8b 41 04	 mov	 eax, DWORD PTR [ecx+4]
  00003	2b 01		 sub	 eax, DWORD PTR [ecx]
  00005	6a 48		 push	 72			; 00000048H
  00007	99		 cdq
  00008	59		 pop	 ecx
  00009	f7 f9		 idiv	 ecx

; 880  : 		}

  0000b	c3		 ret	 0
?size@?$vector@UEXTRAITEMSLOT@@V?$allocator@UEXTRAITEMSLOT@@@std@@@std@@QBEIXZ ENDP ; std::vector<EXTRAITEMSLOT,std::allocator<EXTRAITEMSLOT> >::size
_TEXT	ENDS
PUBLIC	?_Inside@?$vector@UEXTRAITEMSLOT@@V?$allocator@UEXTRAITEMSLOT@@@std@@@std@@IBE_NPBUEXTRAITEMSLOT@@@Z ; std::vector<EXTRAITEMSLOT,std::allocator<EXTRAITEMSLOT> >::_Inside
; Function compile flags: /Ogsp
;	COMDAT ?_Inside@?$vector@UEXTRAITEMSLOT@@V?$allocator@UEXTRAITEMSLOT@@@std@@@std@@IBE_NPBUEXTRAITEMSLOT@@@Z
_TEXT	SEGMENT
__Ptr$ = 8						; size = 4
?_Inside@?$vector@UEXTRAITEMSLOT@@V?$allocator@UEXTRAITEMSLOT@@@std@@@std@@IBE_NPBUEXTRAITEMSLOT@@@Z PROC ; std::vector<EXTRAITEMSLOT,std::allocator<EXTRAITEMSLOT> >::_Inside, COMDAT
; _this$ = ecx

; 1285 : 		{	// test if _Ptr points inside vector

  00000	55		 push	 ebp
  00001	8b ec		 mov	 ebp, esp

; 1286 : 		return (_Ptr < this->_Mylast && this->_Myfirst <= _Ptr);

  00003	8b 45 08	 mov	 eax, DWORD PTR __Ptr$[ebp]
  00006	3b 41 04	 cmp	 eax, DWORD PTR [ecx+4]
  00009	73 09		 jae	 SHORT $LN3@Inside
  0000b	39 01		 cmp	 DWORD PTR [ecx], eax
  0000d	77 05		 ja	 SHORT $LN3@Inside
  0000f	33 c0		 xor	 eax, eax
  00011	40		 inc	 eax
  00012	eb 02		 jmp	 SHORT $LN4@Inside
$LN3@Inside:
  00014	33 c0		 xor	 eax, eax
$LN4@Inside:

; 1287 : 		}

  00016	5d		 pop	 ebp
  00017	c2 04 00	 ret	 4
?_Inside@?$vector@UEXTRAITEMSLOT@@V?$allocator@UEXTRAITEMSLOT@@@std@@@std@@IBE_NPBUEXTRAITEMSLOT@@@Z ENDP ; std::vector<EXTRAITEMSLOT,std::allocator<EXTRAITEMSLOT> >::_Inside
_TEXT	ENDS
PUBLIC	?_Orphan_range@?$vector@UEXTRAITEMSLOT@@V?$allocator@UEXTRAITEMSLOT@@@std@@@std@@IBEXPAUEXTRAITEMSLOT@@0@Z ; std::vector<EXTRAITEMSLOT,std::allocator<EXTRAITEMSLOT> >::_Orphan_range
; Function compile flags: /Ogsp
;	COMDAT ?_Orphan_range@?$vector@UEXTRAITEMSLOT@@V?$allocator@UEXTRAITEMSLOT@@@std@@@std@@IBEXPAUEXTRAITEMSLOT@@0@Z
_TEXT	SEGMENT
___formal$ = 8						; size = 4
___formal$ = 12						; size = 4
?_Orphan_range@?$vector@UEXTRAITEMSLOT@@V?$allocator@UEXTRAITEMSLOT@@@std@@@std@@IBEXPAUEXTRAITEMSLOT@@0@Z PROC ; std::vector<EXTRAITEMSLOT,std::allocator<EXTRAITEMSLOT> >::_Orphan_range, COMDAT
; _this$ = ecx

; 1454 : 		}

  00000	c2 08 00	 ret	 8
?_Orphan_range@?$vector@UEXTRAITEMSLOT@@V?$allocator@UEXTRAITEMSLOT@@@std@@@std@@IBEXPAUEXTRAITEMSLOT@@0@Z ENDP ; std::vector<EXTRAITEMSLOT,std::allocator<EXTRAITEMSLOT> >::_Orphan_range
_TEXT	ENDS
PUBLIC	??1?$_Vector_val@UEXTRAITEMSLOT@@V?$allocator@UEXTRAITEMSLOT@@@std@@@std@@QAE@XZ ; std::_Vector_val<EXTRAITEMSLOT,std::allocator<EXTRAITEMSLOT> >::~_Vector_val<EXTRAITEMSLOT,std::allocator<EXTRAITEMSLOT> >
; Function compile flags: /Ogsp
;	COMDAT ??1?$_Vector_val@UEXTRAITEMSLOT@@V?$allocator@UEXTRAITEMSLOT@@@std@@@std@@QAE@XZ
_TEXT	SEGMENT
??1?$_Vector_val@UEXTRAITEMSLOT@@V?$allocator@UEXTRAITEMSLOT@@@std@@@std@@QAE@XZ PROC ; std::_Vector_val<EXTRAITEMSLOT,std::allocator<EXTRAITEMSLOT> >::~_Vector_val<EXTRAITEMSLOT,std::allocator<EXTRAITEMSLOT> >, COMDAT
; _this$ = ecx

; 434  : 		}

  00000	c3		 ret	 0
??1?$_Vector_val@UEXTRAITEMSLOT@@V?$allocator@UEXTRAITEMSLOT@@@std@@@std@@QAE@XZ ENDP ; std::_Vector_val<EXTRAITEMSLOT,std::allocator<EXTRAITEMSLOT> >::~_Vector_val<EXTRAITEMSLOT,std::allocator<EXTRAITEMSLOT> >
_TEXT	ENDS
PUBLIC	??0?$allocator@UEXTRAITEMSLOT@@@std@@QAE@XZ	; std::allocator<EXTRAITEMSLOT>::allocator<EXTRAITEMSLOT>
; Function compile flags: /Ogsp
; File c:\program files (x86)\microsoft visual studio 10.0\vc\include\xmemory
;	COMDAT ??0?$allocator@UEXTRAITEMSLOT@@@std@@QAE@XZ
_TEXT	SEGMENT
??0?$allocator@UEXTRAITEMSLOT@@@std@@QAE@XZ PROC	; std::allocator<EXTRAITEMSLOT>::allocator<EXTRAITEMSLOT>, COMDAT
; _this$ = ecx

; 161  : 	_ALLOCATOR() _THROW0()

  00000	8b c1		 mov	 eax, ecx

; 162  : 		{	// construct default allocator (do nothing)
; 163  : 		}

  00002	c3		 ret	 0
??0?$allocator@UEXTRAITEMSLOT@@@std@@QAE@XZ ENDP	; std::allocator<EXTRAITEMSLOT>::allocator<EXTRAITEMSLOT>
_TEXT	ENDS
PUBLIC	??0?$allocator@UEXTRAITEMSLOT@@@std@@QAE@ABV01@@Z ; std::allocator<EXTRAITEMSLOT>::allocator<EXTRAITEMSLOT>
; Function compile flags: /Ogsp
;	COMDAT ??0?$allocator@UEXTRAITEMSLOT@@@std@@QAE@ABV01@@Z
_TEXT	SEGMENT
___formal$ = 8						; size = 4
??0?$allocator@UEXTRAITEMSLOT@@@std@@QAE@ABV01@@Z PROC	; std::allocator<EXTRAITEMSLOT>::allocator<EXTRAITEMSLOT>, COMDAT
; _this$ = ecx

; 165  : 	_ALLOCATOR(const _ALLOCATOR<_Ty>&) _THROW0()

  00000	8b c1		 mov	 eax, ecx

; 166  : 		{	// construct by copying (do nothing)
; 167  : 		}

  00002	c2 04 00	 ret	 4
??0?$allocator@UEXTRAITEMSLOT@@@std@@QAE@ABV01@@Z ENDP	; std::allocator<EXTRAITEMSLOT>::allocator<EXTRAITEMSLOT>
_TEXT	ENDS
PUBLIC	?_Inside@?$vector@UNewShopPullDownItem@@V?$allocator@UNewShopPullDownItem@@@std@@@std@@IBE_NPBUNewShopPullDownItem@@@Z ; std::vector<NewShopPullDownItem,std::allocator<NewShopPullDownItem> >::_Inside
; Function compile flags: /Ogsp
; File c:\program files (x86)\microsoft visual studio 10.0\vc\include\vector
;	COMDAT ?_Inside@?$vector@UNewShopPullDownItem@@V?$allocator@UNewShopPullDownItem@@@std@@@std@@IBE_NPBUNewShopPullDownItem@@@Z
_TEXT	SEGMENT
__Ptr$ = 8						; size = 4
?_Inside@?$vector@UNewShopPullDownItem@@V?$allocator@UNewShopPullDownItem@@@std@@@std@@IBE_NPBUNewShopPullDownItem@@@Z PROC ; std::vector<NewShopPullDownItem,std::allocator<NewShopPullDownItem> >::_Inside, COMDAT
; _this$ = ecx

; 1285 : 		{	// test if _Ptr points inside vector

  00000	55		 push	 ebp
  00001	8b ec		 mov	 ebp, esp

; 1286 : 		return (_Ptr < this->_Mylast && this->_Myfirst <= _Ptr);

  00003	8b 45 08	 mov	 eax, DWORD PTR __Ptr$[ebp]
  00006	3b 41 04	 cmp	 eax, DWORD PTR [ecx+4]
  00009	73 09		 jae	 SHORT $LN3@Inside@2
  0000b	39 01		 cmp	 DWORD PTR [ecx], eax
  0000d	77 05		 ja	 SHORT $LN3@Inside@2
  0000f	33 c0		 xor	 eax, eax
  00011	40		 inc	 eax
  00012	eb 02		 jmp	 SHORT $LN4@Inside@2
$LN3@Inside@2:
  00014	33 c0		 xor	 eax, eax
$LN4@Inside@2:

; 1287 : 		}

  00016	5d		 pop	 ebp
  00017	c2 04 00	 ret	 4
?_Inside@?$vector@UNewShopPullDownItem@@V?$allocator@UNewShopPullDownItem@@@std@@@std@@IBE_NPBUNewShopPullDownItem@@@Z ENDP ; std::vector<NewShopPullDownItem,std::allocator<NewShopPullDownItem> >::_Inside
_TEXT	ENDS
PUBLIC	?_Orphan_range@?$vector@UNewShopPullDownItem@@V?$allocator@UNewShopPullDownItem@@@std@@@std@@IBEXPAUNewShopPullDownItem@@0@Z ; std::vector<NewShopPullDownItem,std::allocator<NewShopPullDownItem> >::_Orphan_range
; Function compile flags: /Ogsp
;	COMDAT ?_Orphan_range@?$vector@UNewShopPullDownItem@@V?$allocator@UNewShopPullDownItem@@@std@@@std@@IBEXPAUNewShopPullDownItem@@0@Z
_TEXT	SEGMENT
___formal$ = 8						; size = 4
___formal$ = 12						; size = 4
?_Orphan_range@?$vector@UNewShopPullDownItem@@V?$allocator@UNewShopPullDownItem@@@std@@@std@@IBEXPAUNewShopPullDownItem@@0@Z PROC ; std::vector<NewShopPullDownItem,std::allocator<NewShopPullDownItem> >::_Orphan_range, COMDAT
; _this$ = ecx

; 1454 : 		}

  00000	c2 08 00	 ret	 8
?_Orphan_range@?$vector@UNewShopPullDownItem@@V?$allocator@UNewShopPullDownItem@@@std@@@std@@IBEXPAUNewShopPullDownItem@@0@Z ENDP ; std::vector<NewShopPullDownItem,std::allocator<NewShopPullDownItem> >::_Orphan_range
_TEXT	ENDS
PUBLIC	??1?$_Vector_val@UNewShopPullDownItem@@V?$allocator@UNewShopPullDownItem@@@std@@@std@@QAE@XZ ; std::_Vector_val<NewShopPullDownItem,std::allocator<NewShopPullDownItem> >::~_Vector_val<NewShopPullDownItem,std::allocator<NewShopPullDownItem> >
; Function compile flags: /Ogsp
;	COMDAT ??1?$_Vector_val@UNewShopPullDownItem@@V?$allocator@UNewShopPullDownItem@@@std@@@std@@QAE@XZ
_TEXT	SEGMENT
??1?$_Vector_val@UNewShopPullDownItem@@V?$allocator@UNewShopPullDownItem@@@std@@@std@@QAE@XZ PROC ; std::_Vector_val<NewShopPullDownItem,std::allocator<NewShopPullDownItem> >::~_Vector_val<NewShopPullDownItem,std::allocator<NewShopPullDownItem> >, COMDAT
; _this$ = ecx

; 434  : 		}

  00000	c3		 ret	 0
??1?$_Vector_val@UNewShopPullDownItem@@V?$allocator@UNewShopPullDownItem@@@std@@@std@@QAE@XZ ENDP ; std::_Vector_val<NewShopPullDownItem,std::allocator<NewShopPullDownItem> >::~_Vector_val<NewShopPullDownItem,std::allocator<NewShopPullDownItem> >
_TEXT	ENDS
PUBLIC	??0?$allocator@UNewShopPullDownItem@@@std@@QAE@XZ ; std::allocator<NewShopPullDownItem>::allocator<NewShopPullDownItem>
; Function compile flags: /Ogsp
; File c:\program files (x86)\microsoft visual studio 10.0\vc\include\xmemory
;	COMDAT ??0?$allocator@UNewShopPullDownItem@@@std@@QAE@XZ
_TEXT	SEGMENT
??0?$allocator@UNewShopPullDownItem@@@std@@QAE@XZ PROC	; std::allocator<NewShopPullDownItem>::allocator<NewShopPullDownItem>, COMDAT
; _this$ = ecx

; 161  : 	_ALLOCATOR() _THROW0()

  00000	8b c1		 mov	 eax, ecx

; 162  : 		{	// construct default allocator (do nothing)
; 163  : 		}

  00002	c3		 ret	 0
??0?$allocator@UNewShopPullDownItem@@@std@@QAE@XZ ENDP	; std::allocator<NewShopPullDownItem>::allocator<NewShopPullDownItem>
_TEXT	ENDS
PUBLIC	?_Inside@?$vector@UInvenItemInfo@@V?$allocator@UInvenItemInfo@@@std@@@std@@IBE_NPBUInvenItemInfo@@@Z ; std::vector<InvenItemInfo,std::allocator<InvenItemInfo> >::_Inside
; Function compile flags: /Ogsp
; File c:\program files (x86)\microsoft visual studio 10.0\vc\include\vector
;	COMDAT ?_Inside@?$vector@UInvenItemInfo@@V?$allocator@UInvenItemInfo@@@std@@@std@@IBE_NPBUInvenItemInfo@@@Z
_TEXT	SEGMENT
__Ptr$ = 8						; size = 4
?_Inside@?$vector@UInvenItemInfo@@V?$allocator@UInvenItemInfo@@@std@@@std@@IBE_NPBUInvenItemInfo@@@Z PROC ; std::vector<InvenItemInfo,std::allocator<InvenItemInfo> >::_Inside, COMDAT
; _this$ = ecx

; 1285 : 		{	// test if _Ptr points inside vector

  00000	55		 push	 ebp
  00001	8b ec		 mov	 ebp, esp

; 1286 : 		return (_Ptr < this->_Mylast && this->_Myfirst <= _Ptr);

  00003	8b 45 08	 mov	 eax, DWORD PTR __Ptr$[ebp]
  00006	3b 41 04	 cmp	 eax, DWORD PTR [ecx+4]
  00009	73 09		 jae	 SHORT $LN3@Inside@3
  0000b	39 01		 cmp	 DWORD PTR [ecx], eax
  0000d	77 05		 ja	 SHORT $LN3@Inside@3
  0000f	33 c0		 xor	 eax, eax
  00011	40		 inc	 eax
  00012	eb 02		 jmp	 SHORT $LN4@Inside@3
$LN3@Inside@3:
  00014	33 c0		 xor	 eax, eax
$LN4@Inside@3:

; 1287 : 		}

  00016	5d		 pop	 ebp
  00017	c2 04 00	 ret	 4
?_Inside@?$vector@UInvenItemInfo@@V?$allocator@UInvenItemInfo@@@std@@@std@@IBE_NPBUInvenItemInfo@@@Z ENDP ; std::vector<InvenItemInfo,std::allocator<InvenItemInfo> >::_Inside
_TEXT	ENDS
PUBLIC	?_Orphan_range@?$vector@UInvenItemInfo@@V?$allocator@UInvenItemInfo@@@std@@@std@@IBEXPAUInvenItemInfo@@0@Z ; std::vector<InvenItemInfo,std::allocator<InvenItemInfo> >::_Orphan_range
; Function compile flags: /Ogsp
;	COMDAT ?_Orphan_range@?$vector@UInvenItemInfo@@V?$allocator@UInvenItemInfo@@@std@@@std@@IBEXPAUInvenItemInfo@@0@Z
_TEXT	SEGMENT
___formal$ = 8						; size = 4
___formal$ = 12						; size = 4
?_Orphan_range@?$vector@UInvenItemInfo@@V?$allocator@UInvenItemInfo@@@std@@@std@@IBEXPAUInvenItemInfo@@0@Z PROC ; std::vector<InvenItemInfo,std::allocator<InvenItemInfo> >::_Orphan_range, COMDAT
; _this$ = ecx

; 1454 : 		}

  00000	c2 08 00	 ret	 8
?_Orphan_range@?$vector@UInvenItemInfo@@V?$allocator@UInvenItemInfo@@@std@@@std@@IBEXPAUInvenItemInfo@@0@Z ENDP ; std::vector<InvenItemInfo,std::allocator<InvenItemInfo> >::_Orphan_range
_TEXT	ENDS
PUBLIC	??1?$_Vector_val@UInvenItemInfo@@V?$allocator@UInvenItemInfo@@@std@@@std@@QAE@XZ ; std::_Vector_val<InvenItemInfo,std::allocator<InvenItemInfo> >::~_Vector_val<InvenItemInfo,std::allocator<InvenItemInfo> >
; Function compile flags: /Ogsp
;	COMDAT ??1?$_Vector_val@UInvenItemInfo@@V?$allocator@UInvenItemInfo@@@std@@@std@@QAE@XZ
_TEXT	SEGMENT
??1?$_Vector_val@UInvenItemInfo@@V?$allocator@UInvenItemInfo@@@std@@@std@@QAE@XZ PROC ; std::_Vector_val<InvenItemInfo,std::allocator<InvenItemInfo> >::~_Vector_val<InvenItemInfo,std::allocator<InvenItemInfo> >, COMDAT
; _this$ = ecx

; 434  : 		}

  00000	c3		 ret	 0
??1?$_Vector_val@UInvenItemInfo@@V?$allocator@UInvenItemInfo@@@std@@@std@@QAE@XZ ENDP ; std::_Vector_val<InvenItemInfo,std::allocator<InvenItemInfo> >::~_Vector_val<InvenItemInfo,std::allocator<InvenItemInfo> >
_TEXT	ENDS
PUBLIC	??0?$allocator@UInvenItemInfo@@@std@@QAE@XZ	; std::allocator<InvenItemInfo>::allocator<InvenItemInfo>
; Function compile flags: /Ogsp
; File c:\program files (x86)\microsoft visual studio 10.0\vc\include\xmemory
;	COMDAT ??0?$allocator@UInvenItemInfo@@@std@@QAE@XZ
_TEXT	SEGMENT
??0?$allocator@UInvenItemInfo@@@std@@QAE@XZ PROC	; std::allocator<InvenItemInfo>::allocator<InvenItemInfo>, COMDAT
; _this$ = ecx

; 161  : 	_ALLOCATOR() _THROW0()

  00000	8b c1		 mov	 eax, ecx

; 162  : 		{	// construct default allocator (do nothing)
; 163  : 		}

  00002	c3		 ret	 0
??0?$allocator@UInvenItemInfo@@@std@@QAE@XZ ENDP	; std::allocator<InvenItemInfo>::allocator<InvenItemInfo>
_TEXT	ENDS
PUBLIC	?capacity@?$vector@UEXTRAITEMSLOT@@V?$allocator@UEXTRAITEMSLOT@@@std@@@std@@QBEIXZ ; std::vector<EXTRAITEMSLOT,std::allocator<EXTRAITEMSLOT> >::capacity
; Function compile flags: /Ogsp
; File c:\program files (x86)\microsoft visual studio 10.0\vc\include\vector
;	COMDAT ?capacity@?$vector@UEXTRAITEMSLOT@@V?$allocator@UEXTRAITEMSLOT@@@std@@@std@@QBEIXZ
_TEXT	SEGMENT
?capacity@?$vector@UEXTRAITEMSLOT@@V?$allocator@UEXTRAITEMSLOT@@@std@@@std@@QBEIXZ PROC ; std::vector<EXTRAITEMSLOT,std::allocator<EXTRAITEMSLOT> >::capacity, COMDAT
; _this$ = ecx

; 777  : 		return (this->_Myend - this->_Myfirst);

  00000	8b 41 08	 mov	 eax, DWORD PTR [ecx+8]
  00003	2b 01		 sub	 eax, DWORD PTR [ecx]
  00005	6a 48		 push	 72			; 00000048H
  00007	99		 cdq
  00008	59		 pop	 ecx
  00009	f7 f9		 idiv	 ecx

; 778  : 		}

  0000b	c3		 ret	 0
?capacity@?$vector@UEXTRAITEMSLOT@@V?$allocator@UEXTRAITEMSLOT@@@std@@@std@@QBEIXZ ENDP ; std::vector<EXTRAITEMSLOT,std::allocator<EXTRAITEMSLOT> >::capacity
_TEXT	ENDS
PUBLIC	??_C@_0BD@OLBABOEK@vector?$DMT?$DO?5too?5long?$AA@ ; `string'
PUBLIC	?_Xlen@?$vector@UEXTRAITEMSLOT@@V?$allocator@UEXTRAITEMSLOT@@@std@@@std@@IBEXXZ ; std::vector<EXTRAITEMSLOT,std::allocator<EXTRAITEMSLOT> >::_Xlen
EXTRN	__imp_?_Xlength_error@std@@YAXPBD@Z:PROC
;	COMDAT ??_C@_0BD@OLBABOEK@vector?$DMT?$DO?5too?5long?$AA@
CONST	SEGMENT
??_C@_0BD@OLBABOEK@vector?$DMT?$DO?5too?5long?$AA@ DB 'vector<T> too long'
	DB	00H						; `string'
; Function compile flags: /Ogsp
CONST	ENDS
;	COMDAT ?_Xlen@?$vector@UEXTRAITEMSLOT@@V?$allocator@UEXTRAITEMSLOT@@@std@@@std@@IBEXXZ
_TEXT	SEGMENT
?_Xlen@?$vector@UEXTRAITEMSLOT@@V?$allocator@UEXTRAITEMSLOT@@@std@@@std@@IBEXXZ PROC ; std::vector<EXTRAITEMSLOT,std::allocator<EXTRAITEMSLOT> >::_Xlen, COMDAT
; _this$ = ecx

; 1427 : 		_Xlength_error("vector<T> too long");

  00000	68 00 00 00 00	 push	 OFFSET ??_C@_0BD@OLBABOEK@vector?$DMT?$DO?5too?5long?$AA@
  00005	ff 15 00 00 00
	00		 call	 DWORD PTR __imp_?_Xlength_error@std@@YAXPBD@Z
$LN4@Xlen:
$LN3@Xlen:
  0000b	cc		 int	 3
?_Xlen@?$vector@UEXTRAITEMSLOT@@V?$allocator@UEXTRAITEMSLOT@@@std@@@std@@IBEXXZ ENDP ; std::vector<EXTRAITEMSLOT,std::allocator<EXTRAITEMSLOT> >::_Xlen
_TEXT	ENDS
PUBLIC	?deallocate@?$allocator@UEXTRAITEMSLOT@@@std@@QAEXPAUEXTRAITEMSLOT@@I@Z ; std::allocator<EXTRAITEMSLOT>::deallocate
; Function compile flags: /Ogsp
; File c:\program files (x86)\microsoft visual studio 10.0\vc\include\xmemory
;	COMDAT ?deallocate@?$allocator@UEXTRAITEMSLOT@@@std@@QAEXPAUEXTRAITEMSLOT@@I@Z
_TEXT	SEGMENT
__Ptr$ = 8						; size = 4
___formal$ = 12						; size = 4
?deallocate@?$allocator@UEXTRAITEMSLOT@@@std@@QAEXPAUEXTRAITEMSLOT@@I@Z PROC ; std::allocator<EXTRAITEMSLOT>::deallocate, COMDAT
; _this$ = ecx

; 181  : 		{	// deallocate object at _Ptr, ignore size

  00000	55		 push	 ebp
  00001	8b ec		 mov	 ebp, esp

; 182  : 		::operator delete(_Ptr);

  00003	ff 75 08	 push	 DWORD PTR __Ptr$[ebp]
  00006	e8 00 00 00 00	 call	 ??3@YAXPAX@Z		; operator delete
  0000b	59		 pop	 ecx

; 183  : 		}

  0000c	5d		 pop	 ebp
  0000d	c2 08 00	 ret	 8
?deallocate@?$allocator@UEXTRAITEMSLOT@@@std@@QAEXPAUEXTRAITEMSLOT@@I@Z ENDP ; std::allocator<EXTRAITEMSLOT>::deallocate
_TEXT	ENDS
PUBLIC	?capacity@?$vector@UNewShopPullDownItem@@V?$allocator@UNewShopPullDownItem@@@std@@@std@@QBEIXZ ; std::vector<NewShopPullDownItem,std::allocator<NewShopPullDownItem> >::capacity
; Function compile flags: /Ogsp
; File c:\program files (x86)\microsoft visual studio 10.0\vc\include\vector
;	COMDAT ?capacity@?$vector@UNewShopPullDownItem@@V?$allocator@UNewShopPullDownItem@@@std@@@std@@QBEIXZ
_TEXT	SEGMENT
?capacity@?$vector@UNewShopPullDownItem@@V?$allocator@UNewShopPullDownItem@@@std@@@std@@QBEIXZ PROC ; std::vector<NewShopPullDownItem,std::allocator<NewShopPullDownItem> >::capacity, COMDAT
; _this$ = ecx

; 777  : 		return (this->_Myend - this->_Myfirst);

  00000	8b 41 08	 mov	 eax, DWORD PTR [ecx+8]
  00003	2b 01		 sub	 eax, DWORD PTR [ecx]
  00005	6a 50		 push	 80			; 00000050H
  00007	99		 cdq
  00008	59		 pop	 ecx
  00009	f7 f9		 idiv	 ecx

; 778  : 		}

  0000b	c3		 ret	 0
?capacity@?$vector@UNewShopPullDownItem@@V?$allocator@UNewShopPullDownItem@@@std@@@std@@QBEIXZ ENDP ; std::vector<NewShopPullDownItem,std::allocator<NewShopPullDownItem> >::capacity
_TEXT	ENDS
PUBLIC	?_Xlen@?$vector@UNewShopPullDownItem@@V?$allocator@UNewShopPullDownItem@@@std@@@std@@IBEXXZ ; std::vector<NewShopPullDownItem,std::allocator<NewShopPullDownItem> >::_Xlen
; Function compile flags: /Ogsp
;	COMDAT ?_Xlen@?$vector@UNewShopPullDownItem@@V?$allocator@UNewShopPullDownItem@@@std@@@std@@IBEXXZ
_TEXT	SEGMENT
?_Xlen@?$vector@UNewShopPullDownItem@@V?$allocator@UNewShopPullDownItem@@@std@@@std@@IBEXXZ PROC ; std::vector<NewShopPullDownItem,std::allocator<NewShopPullDownItem> >::_Xlen, COMDAT
; _this$ = ecx

; 1427 : 		_Xlength_error("vector<T> too long");

  00000	68 00 00 00 00	 push	 OFFSET ??_C@_0BD@OLBABOEK@vector?$DMT?$DO?5too?5long?$AA@
  00005	ff 15 00 00 00
	00		 call	 DWORD PTR __imp_?_Xlength_error@std@@YAXPBD@Z
$LN4@Xlen@2:
$LN3@Xlen@2:
  0000b	cc		 int	 3
?_Xlen@?$vector@UNewShopPullDownItem@@V?$allocator@UNewShopPullDownItem@@@std@@@std@@IBEXXZ ENDP ; std::vector<NewShopPullDownItem,std::allocator<NewShopPullDownItem> >::_Xlen
_TEXT	ENDS
PUBLIC	??0?$allocator@UNewShopPullDownItem@@@std@@QAE@ABV01@@Z ; std::allocator<NewShopPullDownItem>::allocator<NewShopPullDownItem>
; Function compile flags: /Ogsp
; File c:\program files (x86)\microsoft visual studio 10.0\vc\include\xmemory
;	COMDAT ??0?$allocator@UNewShopPullDownItem@@@std@@QAE@ABV01@@Z
_TEXT	SEGMENT
___formal$ = 8						; size = 4
??0?$allocator@UNewShopPullDownItem@@@std@@QAE@ABV01@@Z PROC ; std::allocator<NewShopPullDownItem>::allocator<NewShopPullDownItem>, COMDAT
; _this$ = ecx

; 165  : 	_ALLOCATOR(const _ALLOCATOR<_Ty>&) _THROW0()

  00000	8b c1		 mov	 eax, ecx

; 166  : 		{	// construct by copying (do nothing)
; 167  : 		}

  00002	c2 04 00	 ret	 4
??0?$allocator@UNewShopPullDownItem@@@std@@QAE@ABV01@@Z ENDP ; std::allocator<NewShopPullDownItem>::allocator<NewShopPullDownItem>
_TEXT	ENDS
PUBLIC	?deallocate@?$allocator@UNewShopPullDownItem@@@std@@QAEXPAUNewShopPullDownItem@@I@Z ; std::allocator<NewShopPullDownItem>::deallocate
; Function compile flags: /Ogsp
;	COMDAT ?deallocate@?$allocator@UNewShopPullDownItem@@@std@@QAEXPAUNewShopPullDownItem@@I@Z
_TEXT	SEGMENT
__Ptr$ = 8						; size = 4
___formal$ = 12						; size = 4
?deallocate@?$allocator@UNewShopPullDownItem@@@std@@QAEXPAUNewShopPullDownItem@@I@Z PROC ; std::allocator<NewShopPullDownItem>::deallocate, COMDAT
; _this$ = ecx

; 181  : 		{	// deallocate object at _Ptr, ignore size

  00000	55		 push	 ebp
  00001	8b ec		 mov	 ebp, esp

; 182  : 		::operator delete(_Ptr);

  00003	ff 75 08	 push	 DWORD PTR __Ptr$[ebp]
  00006	e8 00 00 00 00	 call	 ??3@YAXPAX@Z		; operator delete
  0000b	59		 pop	 ecx

; 183  : 		}

  0000c	5d		 pop	 ebp
  0000d	c2 08 00	 ret	 8
?deallocate@?$allocator@UNewShopPullDownItem@@@std@@QAEXPAUNewShopPullDownItem@@I@Z ENDP ; std::allocator<NewShopPullDownItem>::deallocate
_TEXT	ENDS
PUBLIC	?capacity@?$vector@UInvenItemInfo@@V?$allocator@UInvenItemInfo@@@std@@@std@@QBEIXZ ; std::vector<InvenItemInfo,std::allocator<InvenItemInfo> >::capacity
; Function compile flags: /Ogsp
; File c:\program files (x86)\microsoft visual studio 10.0\vc\include\vector
;	COMDAT ?capacity@?$vector@UInvenItemInfo@@V?$allocator@UInvenItemInfo@@@std@@@std@@QBEIXZ
_TEXT	SEGMENT
?capacity@?$vector@UInvenItemInfo@@V?$allocator@UInvenItemInfo@@@std@@@std@@QBEIXZ PROC ; std::vector<InvenItemInfo,std::allocator<InvenItemInfo> >::capacity, COMDAT
; _this$ = ecx

; 777  : 		return (this->_Myend - this->_Myfirst);

  00000	8b 41 08	 mov	 eax, DWORD PTR [ecx+8]
  00003	2b 01		 sub	 eax, DWORD PTR [ecx]
  00005	6a 0c		 push	 12			; 0000000cH
  00007	99		 cdq
  00008	59		 pop	 ecx
  00009	f7 f9		 idiv	 ecx

; 778  : 		}

  0000b	c3		 ret	 0
?capacity@?$vector@UInvenItemInfo@@V?$allocator@UInvenItemInfo@@@std@@@std@@QBEIXZ ENDP ; std::vector<InvenItemInfo,std::allocator<InvenItemInfo> >::capacity
_TEXT	ENDS
PUBLIC	?_Xlen@?$vector@UInvenItemInfo@@V?$allocator@UInvenItemInfo@@@std@@@std@@IBEXXZ ; std::vector<InvenItemInfo,std::allocator<InvenItemInfo> >::_Xlen
; Function compile flags: /Ogsp
;	COMDAT ?_Xlen@?$vector@UInvenItemInfo@@V?$allocator@UInvenItemInfo@@@std@@@std@@IBEXXZ
_TEXT	SEGMENT
?_Xlen@?$vector@UInvenItemInfo@@V?$allocator@UInvenItemInfo@@@std@@@std@@IBEXXZ PROC ; std::vector<InvenItemInfo,std::allocator<InvenItemInfo> >::_Xlen, COMDAT
; _this$ = ecx

; 1427 : 		_Xlength_error("vector<T> too long");

  00000	68 00 00 00 00	 push	 OFFSET ??_C@_0BD@OLBABOEK@vector?$DMT?$DO?5too?5long?$AA@
  00005	ff 15 00 00 00
	00		 call	 DWORD PTR __imp_?_Xlength_error@std@@YAXPBD@Z
$LN4@Xlen@3:
$LN3@Xlen@3:
  0000b	cc		 int	 3
?_Xlen@?$vector@UInvenItemInfo@@V?$allocator@UInvenItemInfo@@@std@@@std@@IBEXXZ ENDP ; std::vector<InvenItemInfo,std::allocator<InvenItemInfo> >::_Xlen
_TEXT	ENDS
PUBLIC	??0?$allocator@UInvenItemInfo@@@std@@QAE@ABV01@@Z ; std::allocator<InvenItemInfo>::allocator<InvenItemInfo>
; Function compile flags: /Ogsp
; File c:\program files (x86)\microsoft visual studio 10.0\vc\include\xmemory
;	COMDAT ??0?$allocator@UInvenItemInfo@@@std@@QAE@ABV01@@Z
_TEXT	SEGMENT
___formal$ = 8						; size = 4
??0?$allocator@UInvenItemInfo@@@std@@QAE@ABV01@@Z PROC	; std::allocator<InvenItemInfo>::allocator<InvenItemInfo>, COMDAT
; _this$ = ecx

; 165  : 	_ALLOCATOR(const _ALLOCATOR<_Ty>&) _THROW0()

  00000	8b c1		 mov	 eax, ecx

; 166  : 		{	// construct by copying (do nothing)
; 167  : 		}

  00002	c2 04 00	 ret	 4
??0?$allocator@UInvenItemInfo@@@std@@QAE@ABV01@@Z ENDP	; std::allocator<InvenItemInfo>::allocator<InvenItemInfo>
_TEXT	ENDS
PUBLIC	?deallocate@?$allocator@UInvenItemInfo@@@std@@QAEXPAUInvenItemInfo@@I@Z ; std::allocator<InvenItemInfo>::deallocate
; Function compile flags: /Ogsp
;	COMDAT ?deallocate@?$allocator@UInvenItemInfo@@@std@@QAEXPAUInvenItemInfo@@I@Z
_TEXT	SEGMENT
__Ptr$ = 8						; size = 4
___formal$ = 12						; size = 4
?deallocate@?$allocator@UInvenItemInfo@@@std@@QAEXPAUInvenItemInfo@@I@Z PROC ; std::allocator<InvenItemInfo>::deallocate, COMDAT
; _this$ = ecx

; 181  : 		{	// deallocate object at _Ptr, ignore size

  00000	55		 push	 ebp
  00001	8b ec		 mov	 ebp, esp

; 182  : 		::operator delete(_Ptr);

  00003	ff 75 08	 push	 DWORD PTR __Ptr$[ebp]
  00006	e8 00 00 00 00	 call	 ??3@YAXPAX@Z		; operator delete
  0000b	59		 pop	 ecx

; 183  : 		}

  0000c	5d		 pop	 ebp
  0000d	c2 08 00	 ret	 8
?deallocate@?$allocator@UInvenItemInfo@@@std@@QAEXPAUInvenItemInfo@@I@Z ENDP ; std::allocator<InvenItemInfo>::deallocate
_TEXT	ENDS
PUBLIC	??0?$_Vector_const_iterator@V?$_Vector_val@UInvenItemInfo@@V?$allocator@UInvenItemInfo@@@std@@@std@@@std@@QAE@PAUInvenItemInfo@@PBU_Container_base0@1@@Z ; std::_Vector_const_iterator<std::_Vector_val<InvenItemInfo,std::allocator<InvenItemInfo> > >::_Vector_const_iterator<std::_Vector_val<InvenItemInfo,std::allocator<InvenItemInfo> > >
; Function compile flags: /Ogsp
; File c:\program files (x86)\microsoft visual studio 10.0\vc\include\vector
;	COMDAT ??0?$_Vector_const_iterator@V?$_Vector_val@UInvenItemInfo@@V?$allocator@UInvenItemInfo@@@std@@@std@@@std@@QAE@PAUInvenItemInfo@@PBU_Container_base0@1@@Z
_TEXT	SEGMENT
__Parg$ = 8						; size = 4
__Pvector$ = 12						; size = 4
??0?$_Vector_const_iterator@V?$_Vector_val@UInvenItemInfo@@V?$allocator@UInvenItemInfo@@@std@@@std@@@std@@QAE@PAUInvenItemInfo@@PBU_Container_base0@1@@Z PROC ; std::_Vector_const_iterator<std::_Vector_val<InvenItemInfo,std::allocator<InvenItemInfo> > >::_Vector_const_iterator<std::_Vector_val<InvenItemInfo,std::allocator<InvenItemInfo> > >, COMDAT
; _this$ = ecx

; 45   : 		{	// construct with pointer _Parg

  00000	55		 push	 ebp
  00001	8b ec		 mov	 ebp, esp
  00003	8b c1		 mov	 eax, ecx
  00005	8b 4d 08	 mov	 ecx, DWORD PTR __Parg$[ebp]
  00008	89 08		 mov	 DWORD PTR [eax], ecx

; 46   : 		this->_Adopt(_Pvector);
; 47   : 		}

  0000a	5d		 pop	 ebp
  0000b	c2 08 00	 ret	 8
??0?$_Vector_const_iterator@V?$_Vector_val@UInvenItemInfo@@V?$allocator@UInvenItemInfo@@@std@@@std@@@std@@QAE@PAUInvenItemInfo@@PBU_Container_base0@1@@Z ENDP ; std::_Vector_const_iterator<std::_Vector_val<InvenItemInfo,std::allocator<InvenItemInfo> > >::_Vector_const_iterator<std::_Vector_val<InvenItemInfo,std::allocator<InvenItemInfo> > >
_TEXT	ENDS
PUBLIC	??0?$_Vector_const_iterator@V?$_Vector_val@UEXTRAITEMSLOT@@V?$allocator@UEXTRAITEMSLOT@@@std@@@std@@@std@@QAE@PAUEXTRAITEMSLOT@@PBU_Container_base0@1@@Z ; std::_Vector_const_iterator<std::_Vector_val<EXTRAITEMSLOT,std::allocator<EXTRAITEMSLOT> > >::_Vector_const_iterator<std::_Vector_val<EXTRAITEMSLOT,std::allocator<EXTRAITEMSLOT> > >
; Function compile flags: /Ogsp
;	COMDAT ??0?$_Vector_const_iterator@V?$_Vector_val@UEXTRAITEMSLOT@@V?$allocator@UEXTRAITEMSLOT@@@std@@@std@@@std@@QAE@PAUEXTRAITEMSLOT@@PBU_Container_base0@1@@Z
_TEXT	SEGMENT
__Parg$ = 8						; size = 4
__Pvector$ = 12						; size = 4
??0?$_Vector_const_iterator@V?$_Vector_val@UEXTRAITEMSLOT@@V?$allocator@UEXTRAITEMSLOT@@@std@@@std@@@std@@QAE@PAUEXTRAITEMSLOT@@PBU_Container_base0@1@@Z PROC ; std::_Vector_const_iterator<std::_Vector_val<EXTRAITEMSLOT,std::allocator<EXTRAITEMSLOT> > >::_Vector_const_iterator<std::_Vector_val<EXTRAITEMSLOT,std::allocator<EXTRAITEMSLOT> > >, COMDAT
; _this$ = ecx

; 45   : 		{	// construct with pointer _Parg

  00000	55		 push	 ebp
  00001	8b ec		 mov	 ebp, esp
  00003	8b c1		 mov	 eax, ecx
  00005	8b 4d 08	 mov	 ecx, DWORD PTR __Parg$[ebp]
  00008	89 08		 mov	 DWORD PTR [eax], ecx

; 46   : 		this->_Adopt(_Pvector);
; 47   : 		}

  0000a	5d		 pop	 ebp
  0000b	c2 08 00	 ret	 8
??0?$_Vector_const_iterator@V?$_Vector_val@UEXTRAITEMSLOT@@V?$allocator@UEXTRAITEMSLOT@@@std@@@std@@@std@@QAE@PAUEXTRAITEMSLOT@@PBU_Container_base0@1@@Z ENDP ; std::_Vector_const_iterator<std::_Vector_val<EXTRAITEMSLOT,std::allocator<EXTRAITEMSLOT> > >::_Vector_const_iterator<std::_Vector_val<EXTRAITEMSLOT,std::allocator<EXTRAITEMSLOT> > >
_TEXT	ENDS
PUBLIC	??0?$_Vector_iterator@V?$_Vector_val@UEXTRAITEMSLOT@@V?$allocator@UEXTRAITEMSLOT@@@std@@@std@@@std@@QAE@PAUEXTRAITEMSLOT@@PBU_Container_base0@1@@Z ; std::_Vector_iterator<std::_Vector_val<EXTRAITEMSLOT,std::allocator<EXTRAITEMSLOT> > >::_Vector_iterator<std::_Vector_val<EXTRAITEMSLOT,std::allocator<EXTRAITEMSLOT> > >
; Function compile flags: /Ogsp
;	COMDAT ??0?$_Vector_iterator@V?$_Vector_val@UEXTRAITEMSLOT@@V?$allocator@UEXTRAITEMSLOT@@@std@@@std@@@std@@QAE@PAUEXTRAITEMSLOT@@PBU_Container_base0@1@@Z
_TEXT	SEGMENT
__Parg$ = 8						; size = 4
__Pvector$ = 12						; size = 4
??0?$_Vector_iterator@V?$_Vector_val@UEXTRAITEMSLOT@@V?$allocator@UEXTRAITEMSLOT@@@std@@@std@@@std@@QAE@PAUEXTRAITEMSLOT@@PBU_Container_base0@1@@Z PROC ; std::_Vector_iterator<std::_Vector_val<EXTRAITEMSLOT,std::allocator<EXTRAITEMSLOT> > >::_Vector_iterator<std::_Vector_val<EXTRAITEMSLOT,std::allocator<EXTRAITEMSLOT> > >, COMDAT
; _this$ = ecx

; 304  : 		{	// construct with pointer _Parg

  00000	55		 push	 ebp
  00001	8b ec		 mov	 ebp, esp
  00003	8b c1		 mov	 eax, ecx
  00005	8b 4d 08	 mov	 ecx, DWORD PTR __Parg$[ebp]
  00008	89 08		 mov	 DWORD PTR [eax], ecx

; 305  : 		}

  0000a	5d		 pop	 ebp
  0000b	c2 08 00	 ret	 8
??0?$_Vector_iterator@V?$_Vector_val@UEXTRAITEMSLOT@@V?$allocator@UEXTRAITEMSLOT@@@std@@@std@@@std@@QAE@PAUEXTRAITEMSLOT@@PBU_Container_base0@1@@Z ENDP ; std::_Vector_iterator<std::_Vector_val<EXTRAITEMSLOT,std::allocator<EXTRAITEMSLOT> > >::_Vector_iterator<std::_Vector_val<EXTRAITEMSLOT,std::allocator<EXTRAITEMSLOT> > >
_TEXT	ENDS
PUBLIC	?max_size@?$allocator@UEXTRAITEMSLOT@@@std@@QBEIXZ ; std::allocator<EXTRAITEMSLOT>::max_size
; Function compile flags: /Ogsp
; File c:\program files (x86)\microsoft visual studio 10.0\vc\include\xmemory
;	COMDAT ?max_size@?$allocator@UEXTRAITEMSLOT@@@std@@QBEIXZ
_TEXT	SEGMENT
?max_size@?$allocator@UEXTRAITEMSLOT@@@std@@QBEIXZ PROC	; std::allocator<EXTRAITEMSLOT>::max_size, COMDAT
; _this$ = ecx

; 218  : 		_SIZT _Count = (_SIZT)(-1) / sizeof (_Ty);
; 219  : 		return (0 < _Count ? _Count : 1);

  00000	b8 e3 38 8e 03	 mov	 eax, 59652323		; 038e38e3H

; 220  : 		}

  00005	c3		 ret	 0
?max_size@?$allocator@UEXTRAITEMSLOT@@@std@@QBEIXZ ENDP	; std::allocator<EXTRAITEMSLOT>::max_size
_TEXT	ENDS
PUBLIC	?max_size@?$allocator@UNewShopPullDownItem@@@std@@QBEIXZ ; std::allocator<NewShopPullDownItem>::max_size
; Function compile flags: /Ogsp
;	COMDAT ?max_size@?$allocator@UNewShopPullDownItem@@@std@@QBEIXZ
_TEXT	SEGMENT
?max_size@?$allocator@UNewShopPullDownItem@@@std@@QBEIXZ PROC ; std::allocator<NewShopPullDownItem>::max_size, COMDAT
; _this$ = ecx

; 218  : 		_SIZT _Count = (_SIZT)(-1) / sizeof (_Ty);
; 219  : 		return (0 < _Count ? _Count : 1);

  00000	b8 33 33 33 03	 mov	 eax, 53687091		; 03333333H

; 220  : 		}

  00005	c3		 ret	 0
?max_size@?$allocator@UNewShopPullDownItem@@@std@@QBEIXZ ENDP ; std::allocator<NewShopPullDownItem>::max_size
_TEXT	ENDS
PUBLIC	?max_size@?$allocator@UInvenItemInfo@@@std@@QBEIXZ ; std::allocator<InvenItemInfo>::max_size
; Function compile flags: /Ogsp
;	COMDAT ?max_size@?$allocator@UInvenItemInfo@@@std@@QBEIXZ
_TEXT	SEGMENT
?max_size@?$allocator@UInvenItemInfo@@@std@@QBEIXZ PROC	; std::allocator<InvenItemInfo>::max_size, COMDAT
; _this$ = ecx

; 218  : 		_SIZT _Count = (_SIZT)(-1) / sizeof (_Ty);
; 219  : 		return (0 < _Count ? _Count : 1);

  00000	b8 55 55 55 15	 mov	 eax, 357913941		; 15555555H

; 220  : 		}

  00005	c3		 ret	 0
?max_size@?$allocator@UInvenItemInfo@@@std@@QBEIXZ ENDP	; std::allocator<InvenItemInfo>::max_size
_TEXT	ENDS
PUBLIC	??0?$_Vector_const_iterator@V?$_Vector_val@UNewShopPullDownItem@@V?$allocator@UNewShopPullDownItem@@@std@@@std@@@std@@QAE@PAUNewShopPullDownItem@@PBU_Container_base0@1@@Z ; std::_Vector_const_iterator<std::_Vector_val<NewShopPullDownItem,std::allocator<NewShopPullDownItem> > >::_Vector_const_iterator<std::_Vector_val<NewShopPullDownItem,std::allocator<NewShopPullDownItem> > >
; Function compile flags: /Ogsp
; File c:\program files (x86)\microsoft visual studio 10.0\vc\include\vector
;	COMDAT ??0?$_Vector_const_iterator@V?$_Vector_val@UNewShopPullDownItem@@V?$allocator@UNewShopPullDownItem@@@std@@@std@@@std@@QAE@PAUNewShopPullDownItem@@PBU_Container_base0@1@@Z
_TEXT	SEGMENT
__Parg$ = 8						; size = 4
__Pvector$ = 12						; size = 4
??0?$_Vector_const_iterator@V?$_Vector_val@UNewShopPullDownItem@@V?$allocator@UNewShopPullDownItem@@@std@@@std@@@std@@QAE@PAUNewShopPullDownItem@@PBU_Container_base0@1@@Z PROC ; std::_Vector_const_iterator<std::_Vector_val<NewShopPullDownItem,std::allocator<NewShopPullDownItem> > >::_Vector_const_iterator<std::_Vector_val<NewShopPullDownItem,std::allocator<NewShopPullDownItem> > >, COMDAT
; _this$ = ecx

; 45   : 		{	// construct with pointer _Parg

  00000	55		 push	 ebp
  00001	8b ec		 mov	 ebp, esp
  00003	8b c1		 mov	 eax, ecx
  00005	8b 4d 08	 mov	 ecx, DWORD PTR __Parg$[ebp]
  00008	89 08		 mov	 DWORD PTR [eax], ecx

; 46   : 		this->_Adopt(_Pvector);
; 47   : 		}

  0000a	5d		 pop	 ebp
  0000b	c2 08 00	 ret	 8
??0?$_Vector_const_iterator@V?$_Vector_val@UNewShopPullDownItem@@V?$allocator@UNewShopPullDownItem@@@std@@@std@@@std@@QAE@PAUNewShopPullDownItem@@PBU_Container_base0@1@@Z ENDP ; std::_Vector_const_iterator<std::_Vector_val<NewShopPullDownItem,std::allocator<NewShopPullDownItem> > >::_Vector_const_iterator<std::_Vector_val<NewShopPullDownItem,std::allocator<NewShopPullDownItem> > >
_TEXT	ENDS
PUBLIC	?_Compat@?$_Vector_const_iterator@V?$_Vector_val@UInvenItemInfo@@V?$allocator@UInvenItemInfo@@@std@@@std@@@std@@QBEXABV12@@Z ; std::_Vector_const_iterator<std::_Vector_val<InvenItemInfo,std::allocator<InvenItemInfo> > >::_Compat
; Function compile flags: /Ogsp
;	COMDAT ?_Compat@?$_Vector_const_iterator@V?$_Vector_val@UInvenItemInfo@@V?$allocator@UInvenItemInfo@@@std@@@std@@@std@@QBEXABV12@@Z
_TEXT	SEGMENT
___formal$ = 8						; size = 4
?_Compat@?$_Vector_const_iterator@V?$_Vector_val@UInvenItemInfo@@V?$allocator@UInvenItemInfo@@@std@@@std@@@std@@QBEXABV12@@Z PROC ; std::_Vector_const_iterator<std::_Vector_val<InvenItemInfo,std::allocator<InvenItemInfo> > >::_Compat, COMDAT
; _this$ = ecx

; 253  : 		}

  00000	c2 04 00	 ret	 4
?_Compat@?$_Vector_const_iterator@V?$_Vector_val@UInvenItemInfo@@V?$allocator@UInvenItemInfo@@@std@@@std@@@std@@QBEXABV12@@Z ENDP ; std::_Vector_const_iterator<std::_Vector_val<InvenItemInfo,std::allocator<InvenItemInfo> > >::_Compat
_TEXT	ENDS
PUBLIC	?_Compat@?$_Vector_const_iterator@V?$_Vector_val@UEXTRAITEMSLOT@@V?$allocator@UEXTRAITEMSLOT@@@std@@@std@@@std@@QBEXABV12@@Z ; std::_Vector_const_iterator<std::_Vector_val<EXTRAITEMSLOT,std::allocator<EXTRAITEMSLOT> > >::_Compat
; Function compile flags: /Ogsp
;	COMDAT ?_Compat@?$_Vector_const_iterator@V?$_Vector_val@UEXTRAITEMSLOT@@V?$allocator@UEXTRAITEMSLOT@@@std@@@std@@@std@@QBEXABV12@@Z
_TEXT	SEGMENT
___formal$ = 8						; size = 4
?_Compat@?$_Vector_const_iterator@V?$_Vector_val@UEXTRAITEMSLOT@@V?$allocator@UEXTRAITEMSLOT@@@std@@@std@@@std@@QBEXABV12@@Z PROC ; std::_Vector_const_iterator<std::_Vector_val<EXTRAITEMSLOT,std::allocator<EXTRAITEMSLOT> > >::_Compat, COMDAT
; _this$ = ecx

; 253  : 		}

  00000	c2 04 00	 ret	 4
?_Compat@?$_Vector_const_iterator@V?$_Vector_val@UEXTRAITEMSLOT@@V?$allocator@UEXTRAITEMSLOT@@@std@@@std@@@std@@QBEXABV12@@Z ENDP ; std::_Vector_const_iterator<std::_Vector_val<EXTRAITEMSLOT,std::allocator<EXTRAITEMSLOT> > >::_Compat
_TEXT	ENDS
PUBLIC	?_Compat@?$_Vector_const_iterator@V?$_Vector_val@UNewShopPullDownItem@@V?$allocator@UNewShopPullDownItem@@@std@@@std@@@std@@QBEXABV12@@Z ; std::_Vector_const_iterator<std::_Vector_val<NewShopPullDownItem,std::allocator<NewShopPullDownItem> > >::_Compat
; Function compile flags: /Ogsp
;	COMDAT ?_Compat@?$_Vector_const_iterator@V?$_Vector_val@UNewShopPullDownItem@@V?$allocator@UNewShopPullDownItem@@@std@@@std@@@std@@QBEXABV12@@Z
_TEXT	SEGMENT
___formal$ = 8						; size = 4
?_Compat@?$_Vector_const_iterator@V?$_Vector_val@UNewShopPullDownItem@@V?$allocator@UNewShopPullDownItem@@@std@@@std@@@std@@QBEXABV12@@Z PROC ; std::_Vector_const_iterator<std::_Vector_val<NewShopPullDownItem,std::allocator<NewShopPullDownItem> > >::_Compat, COMDAT
; _this$ = ecx

; 253  : 		}

  00000	c2 04 00	 ret	 4
?_Compat@?$_Vector_const_iterator@V?$_Vector_val@UNewShopPullDownItem@@V?$allocator@UNewShopPullDownItem@@@std@@@std@@@std@@QBEXABV12@@Z ENDP ; std::_Vector_const_iterator<std::_Vector_val<NewShopPullDownItem,std::allocator<NewShopPullDownItem> > >::_Compat
_TEXT	ENDS
PUBLIC	??$addressof@$$CBUEXTRAITEMSLOT@@@std@@YAPBUEXTRAITEMSLOT@@ABU1@@Z ; std::addressof<EXTRAITEMSLOT const >
; Function compile flags: /Ogsp
; File c:\program files (x86)\microsoft visual studio 10.0\vc\include\xmemory
;	COMDAT ??$addressof@$$CBUEXTRAITEMSLOT@@@std@@YAPBUEXTRAITEMSLOT@@ABU1@@Z
_TEXT	SEGMENT
__Val$ = 8						; size = 4
??$addressof@$$CBUEXTRAITEMSLOT@@@std@@YAPBUEXTRAITEMSLOT@@ABU1@@Z PROC ; std::addressof<EXTRAITEMSLOT const >, COMDAT

; 110  : 	{	// return address of _Val

  00000	55		 push	 ebp
  00001	8b ec		 mov	 ebp, esp

; 111  : 	return ((_Ty *) &(char&)_Val);

  00003	8b 45 08	 mov	 eax, DWORD PTR __Val$[ebp]

; 112  : 	}

  00006	5d		 pop	 ebp
  00007	c3		 ret	 0
??$addressof@$$CBUEXTRAITEMSLOT@@@std@@YAPBUEXTRAITEMSLOT@@ABU1@@Z ENDP ; std::addressof<EXTRAITEMSLOT const >
_TEXT	ENDS
PUBLIC	??$addressof@$$CBUNewShopPullDownItem@@@std@@YAPBUNewShopPullDownItem@@ABU1@@Z ; std::addressof<NewShopPullDownItem const >
; Function compile flags: /Ogsp
;	COMDAT ??$addressof@$$CBUNewShopPullDownItem@@@std@@YAPBUNewShopPullDownItem@@ABU1@@Z
_TEXT	SEGMENT
__Val$ = 8						; size = 4
??$addressof@$$CBUNewShopPullDownItem@@@std@@YAPBUNewShopPullDownItem@@ABU1@@Z PROC ; std::addressof<NewShopPullDownItem const >, COMDAT

; 110  : 	{	// return address of _Val

  00000	55		 push	 ebp
  00001	8b ec		 mov	 ebp, esp

; 111  : 	return ((_Ty *) &(char&)_Val);

  00003	8b 45 08	 mov	 eax, DWORD PTR __Val$[ebp]

; 112  : 	}

  00006	5d		 pop	 ebp
  00007	c3		 ret	 0
??$addressof@$$CBUNewShopPullDownItem@@@std@@YAPBUNewShopPullDownItem@@ABU1@@Z ENDP ; std::addressof<NewShopPullDownItem const >
_TEXT	ENDS
PUBLIC	??$addressof@$$CBUInvenItemInfo@@@std@@YAPBUInvenItemInfo@@ABU1@@Z ; std::addressof<InvenItemInfo const >
; Function compile flags: /Ogsp
;	COMDAT ??$addressof@$$CBUInvenItemInfo@@@std@@YAPBUInvenItemInfo@@ABU1@@Z
_TEXT	SEGMENT
__Val$ = 8						; size = 4
??$addressof@$$CBUInvenItemInfo@@@std@@YAPBUInvenItemInfo@@ABU1@@Z PROC ; std::addressof<InvenItemInfo const >, COMDAT

; 110  : 	{	// return address of _Val

  00000	55		 push	 ebp
  00001	8b ec		 mov	 ebp, esp

; 111  : 	return ((_Ty *) &(char&)_Val);

  00003	8b 45 08	 mov	 eax, DWORD PTR __Val$[ebp]

; 112  : 	}

  00006	5d		 pop	 ebp
  00007	c3		 ret	 0
??$addressof@$$CBUInvenItemInfo@@@std@@YAPBUInvenItemInfo@@ABU1@@Z ENDP ; std::addressof<InvenItemInfo const >
_TEXT	ENDS
PUBLIC	__TI2?AVbad_alloc@std@@
PUBLIC	??$_Allocate@UEXTRAITEMSLOT@@@std@@YAPAUEXTRAITEMSLOT@@IPAU1@@Z ; std::_Allocate<EXTRAITEMSLOT>
PUBLIC	__CTA2?AVbad_alloc@std@@
PUBLIC	__CT??_R0?AVbad_alloc@std@@@8??0bad_alloc@std@@QAE@ABV01@@Z12
PUBLIC	??0bad_alloc@std@@QAE@ABV01@@Z			; std::bad_alloc::bad_alloc
PUBLIC	__CT??_R0?AVexception@std@@@8??0exception@std@@QAE@ABV01@@Z12
EXTRN	??2@YAPAXI@Z:PROC				; operator new
EXTRN	__CxxThrowException@8:PROC
EXTRN	??0exception@std@@QAE@ABV01@@Z:PROC		; std::exception::exception
;	COMDAT __CT??_R0?AVexception@std@@@8??0exception@std@@QAE@ABV01@@Z12
; File c:\program files (x86)\microsoft visual studio 10.0\vc\include\exception
xdata$x	SEGMENT
__CT??_R0?AVexception@std@@@8??0exception@std@@QAE@ABV01@@Z12 DD 00H
	DD	FLAT:??_R0?AVexception@std@@@8
	DD	00H
	DD	0ffffffffH
	ORG $+4
	DD	0cH
	DD	FLAT:??0exception@std@@QAE@ABV01@@Z
xdata$x	ENDS
;	COMDAT __CT??_R0?AVbad_alloc@std@@@8??0bad_alloc@std@@QAE@ABV01@@Z12
xdata$x	SEGMENT
__CT??_R0?AVbad_alloc@std@@@8??0bad_alloc@std@@QAE@ABV01@@Z12 DD 00H
	DD	FLAT:??_R0?AVbad_alloc@std@@@8
	DD	00H
	DD	0ffffffffH
	ORG $+4
	DD	0cH
	DD	FLAT:??0bad_alloc@std@@QAE@ABV01@@Z
xdata$x	ENDS
;	COMDAT __CTA2?AVbad_alloc@std@@
xdata$x	SEGMENT
__CTA2?AVbad_alloc@std@@ DD 02H
	DD	FLAT:__CT??_R0?AVbad_alloc@std@@@8??0bad_alloc@std@@QAE@ABV01@@Z12
	DD	FLAT:__CT??_R0?AVexception@std@@@8??0exception@std@@QAE@ABV01@@Z12
xdata$x	ENDS
;	COMDAT __TI2?AVbad_alloc@std@@
xdata$x	SEGMENT
__TI2?AVbad_alloc@std@@ DD 00H
	DD	FLAT:??1bad_alloc@std@@UAE@XZ
	DD	00H
	DD	FLAT:__CTA2?AVbad_alloc@std@@
; Function compile flags: /Ogsp
; File c:\program files (x86)\microsoft visual studio 10.0\vc\include\xmemory
xdata$x	ENDS
;	COMDAT ??$_Allocate@UEXTRAITEMSLOT@@@std@@YAPAUEXTRAITEMSLOT@@IPAU1@@Z
_TEXT	SEGMENT
$T515114 = -12						; size = 12
$T515119 = 8						; size = 4
__Count$ = 8						; size = 4
___formal$ = 12						; size = 4
??$_Allocate@UEXTRAITEMSLOT@@@std@@YAPAUEXTRAITEMSLOT@@IPAU1@@Z PROC ; std::_Allocate<EXTRAITEMSLOT>, COMDAT

; 30   : 	{	// allocate storage for _Count elements of type _Ty

  00000	55		 push	 ebp
  00001	8b ec		 mov	 ebp, esp

; 31   : 	void *_Ptr = 0;
; 32   : 
; 33   : 	if (_Count <= 0)

  00003	8b 4d 08	 mov	 ecx, DWORD PTR __Count$[ebp]
  00006	83 ec 0c	 sub	 esp, 12			; 0000000cH
  00009	33 c0		 xor	 eax, eax
  0000b	85 c9		 test	 ecx, ecx

; 34   : 		_Count = 0;
; 35   : 	else if (((_SIZT)(-1) / sizeof (_Ty) < _Count)

  0000d	74 3c		 je	 SHORT $LN5@Allocate

; 36   : 		|| (_Ptr = ::operator new(_Count * sizeof (_Ty))) == 0)

  0000f	81 f9 e3 38 8e
	03		 cmp	 ecx, 59652323		; 038e38e3H
  00015	77 0e		 ja	 SHORT $LN1@Allocate
  00017	6b c9 48	 imul	 ecx, 72			; 00000048H
  0001a	51		 push	 ecx
  0001b	e8 00 00 00 00	 call	 ??2@YAPAXI@Z		; operator new
  00020	59		 pop	 ecx
  00021	85 c0		 test	 eax, eax

; 38   : 
; 39   : 	return ((_Ty _FARQ *)_Ptr);

  00023	75 26		 jne	 SHORT $LN5@Allocate
$LN1@Allocate:

; 37   : 		_THROW_NCEE(bad_alloc, 0);

  00025	83 65 08 00	 and	 DWORD PTR $T515119[ebp], 0
  00029	8d 45 08	 lea	 eax, DWORD PTR $T515119[ebp]
  0002c	50		 push	 eax
  0002d	8d 4d f4	 lea	 ecx, DWORD PTR $T515114[ebp]
  00030	ff 15 00 00 00
	00		 call	 DWORD PTR __imp_??0exception@std@@QAE@ABQBD@Z
  00036	68 00 00 00 00	 push	 OFFSET __TI2?AVbad_alloc@std@@
  0003b	8d 45 f4	 lea	 eax, DWORD PTR $T515114[ebp]
  0003e	50		 push	 eax
  0003f	c7 45 f4 00 00
	00 00		 mov	 DWORD PTR $T515114[ebp], OFFSET ??_7bad_alloc@std@@6B@
  00046	e8 00 00 00 00	 call	 __CxxThrowException@8
$LN10@Allocate:
$LN5@Allocate:

; 40   : 	}

  0004b	c9		 leave
  0004c	c3		 ret	 0
$LN9@Allocate:
??$_Allocate@UEXTRAITEMSLOT@@@std@@YAPAUEXTRAITEMSLOT@@IPAU1@@Z ENDP ; std::_Allocate<EXTRAITEMSLOT>
_TEXT	ENDS
PUBLIC	??$_Allocate@UNewShopPullDownItem@@@std@@YAPAUNewShopPullDownItem@@IPAU1@@Z ; std::_Allocate<NewShopPullDownItem>
; Function compile flags: /Ogsp
;	COMDAT ??$_Allocate@UNewShopPullDownItem@@@std@@YAPAUNewShopPullDownItem@@IPAU1@@Z
_TEXT	SEGMENT
$T515124 = -12						; size = 12
$T515128 = 8						; size = 4
__Count$ = 8						; size = 4
___formal$ = 12						; size = 4
??$_Allocate@UNewShopPullDownItem@@@std@@YAPAUNewShopPullDownItem@@IPAU1@@Z PROC ; std::_Allocate<NewShopPullDownItem>, COMDAT

; 30   : 	{	// allocate storage for _Count elements of type _Ty

  00000	55		 push	 ebp
  00001	8b ec		 mov	 ebp, esp

; 31   : 	void *_Ptr = 0;
; 32   : 
; 33   : 	if (_Count <= 0)

  00003	8b 4d 08	 mov	 ecx, DWORD PTR __Count$[ebp]
  00006	83 ec 0c	 sub	 esp, 12			; 0000000cH
  00009	33 c0		 xor	 eax, eax
  0000b	85 c9		 test	 ecx, ecx

; 34   : 		_Count = 0;
; 35   : 	else if (((_SIZT)(-1) / sizeof (_Ty) < _Count)

  0000d	74 3c		 je	 SHORT $LN5@Allocate@2

; 36   : 		|| (_Ptr = ::operator new(_Count * sizeof (_Ty))) == 0)

  0000f	81 f9 33 33 33
	03		 cmp	 ecx, 53687091		; 03333333H
  00015	77 0e		 ja	 SHORT $LN1@Allocate@2
  00017	6b c9 50	 imul	 ecx, 80			; 00000050H
  0001a	51		 push	 ecx
  0001b	e8 00 00 00 00	 call	 ??2@YAPAXI@Z		; operator new
  00020	59		 pop	 ecx
  00021	85 c0		 test	 eax, eax

; 38   : 
; 39   : 	return ((_Ty _FARQ *)_Ptr);

  00023	75 26		 jne	 SHORT $LN5@Allocate@2
$LN1@Allocate@2:

; 37   : 		_THROW_NCEE(bad_alloc, 0);

  00025	83 65 08 00	 and	 DWORD PTR $T515128[ebp], 0
  00029	8d 45 08	 lea	 eax, DWORD PTR $T515128[ebp]
  0002c	50		 push	 eax
  0002d	8d 4d f4	 lea	 ecx, DWORD PTR $T515124[ebp]
  00030	ff 15 00 00 00
	00		 call	 DWORD PTR __imp_??0exception@std@@QAE@ABQBD@Z
  00036	68 00 00 00 00	 push	 OFFSET __TI2?AVbad_alloc@std@@
  0003b	8d 45 f4	 lea	 eax, DWORD PTR $T515124[ebp]
  0003e	50		 push	 eax
  0003f	c7 45 f4 00 00
	00 00		 mov	 DWORD PTR $T515124[ebp], OFFSET ??_7bad_alloc@std@@6B@
  00046	e8 00 00 00 00	 call	 __CxxThrowException@8
$LN10@Allocate@2:
$LN5@Allocate@2:

; 40   : 	}

  0004b	c9		 leave
  0004c	c3		 ret	 0
$LN9@Allocate@2:
??$_Allocate@UNewShopPullDownItem@@@std@@YAPAUNewShopPullDownItem@@IPAU1@@Z ENDP ; std::_Allocate<NewShopPullDownItem>
_TEXT	ENDS
PUBLIC	??$_Allocate@UInvenItemInfo@@@std@@YAPAUInvenItemInfo@@IPAU1@@Z ; std::_Allocate<InvenItemInfo>
; Function compile flags: /Ogsp
;	COMDAT ??$_Allocate@UInvenItemInfo@@@std@@YAPAUInvenItemInfo@@IPAU1@@Z
_TEXT	SEGMENT
$T515133 = -12						; size = 12
$T515137 = 8						; size = 4
__Count$ = 8						; size = 4
___formal$ = 12						; size = 4
??$_Allocate@UInvenItemInfo@@@std@@YAPAUInvenItemInfo@@IPAU1@@Z PROC ; std::_Allocate<InvenItemInfo>, COMDAT

; 30   : 	{	// allocate storage for _Count elements of type _Ty

  00000	55		 push	 ebp
  00001	8b ec		 mov	 ebp, esp

; 31   : 	void *_Ptr = 0;
; 32   : 
; 33   : 	if (_Count <= 0)

  00003	8b 4d 08	 mov	 ecx, DWORD PTR __Count$[ebp]
  00006	83 ec 0c	 sub	 esp, 12			; 0000000cH
  00009	33 c0		 xor	 eax, eax
  0000b	85 c9		 test	 ecx, ecx

; 34   : 		_Count = 0;
; 35   : 	else if (((_SIZT)(-1) / sizeof (_Ty) < _Count)

  0000d	74 3c		 je	 SHORT $LN5@Allocate@3

; 36   : 		|| (_Ptr = ::operator new(_Count * sizeof (_Ty))) == 0)

  0000f	81 f9 55 55 55
	15		 cmp	 ecx, 357913941		; 15555555H
  00015	77 0e		 ja	 SHORT $LN1@Allocate@3
  00017	6b c9 0c	 imul	 ecx, 12			; 0000000cH
  0001a	51		 push	 ecx
  0001b	e8 00 00 00 00	 call	 ??2@YAPAXI@Z		; operator new
  00020	59		 pop	 ecx
  00021	85 c0		 test	 eax, eax

; 38   : 
; 39   : 	return ((_Ty _FARQ *)_Ptr);

  00023	75 26		 jne	 SHORT $LN5@Allocate@3
$LN1@Allocate@3:

; 37   : 		_THROW_NCEE(bad_alloc, 0);

  00025	83 65 08 00	 and	 DWORD PTR $T515137[ebp], 0
  00029	8d 45 08	 lea	 eax, DWORD PTR $T515137[ebp]
  0002c	50		 push	 eax
  0002d	8d 4d f4	 lea	 ecx, DWORD PTR $T515133[ebp]
  00030	ff 15 00 00 00
	00		 call	 DWORD PTR __imp_??0exception@std@@QAE@ABQBD@Z
  00036	68 00 00 00 00	 push	 OFFSET __TI2?AVbad_alloc@std@@
  0003b	8d 45 f4	 lea	 eax, DWORD PTR $T515133[ebp]
  0003e	50		 push	 eax
  0003f	c7 45 f4 00 00
	00 00		 mov	 DWORD PTR $T515133[ebp], OFFSET ??_7bad_alloc@std@@6B@
  00046	e8 00 00 00 00	 call	 __CxxThrowException@8
$LN10@Allocate@3:
$LN5@Allocate@3:

; 40   : 	}

  0004b	c9		 leave
  0004c	c3		 ret	 0
$LN9@Allocate@3:
??$_Allocate@UInvenItemInfo@@@std@@YAPAUInvenItemInfo@@IPAU1@@Z ENDP ; std::_Allocate<InvenItemInfo>
_TEXT	ENDS
PUBLIC	??G?$_Vector_const_iterator@V?$_Vector_val@UInvenItemInfo@@V?$allocator@UInvenItemInfo@@@std@@@std@@@std@@QBEHABV01@@Z ; std::_Vector_const_iterator<std::_Vector_val<InvenItemInfo,std::allocator<InvenItemInfo> > >::operator-
; Function compile flags: /Ogsp
; File c:\program files (x86)\microsoft visual studio 10.0\vc\include\vector
;	COMDAT ??G?$_Vector_const_iterator@V?$_Vector_val@UInvenItemInfo@@V?$allocator@UInvenItemInfo@@@std@@@std@@@std@@QBEHABV01@@Z
_TEXT	SEGMENT
__Right$ = 8						; size = 4
??G?$_Vector_const_iterator@V?$_Vector_val@UInvenItemInfo@@V?$allocator@UInvenItemInfo@@@std@@@std@@@std@@QBEHABV01@@Z PROC ; std::_Vector_const_iterator<std::_Vector_val<InvenItemInfo,std::allocator<InvenItemInfo> > >::operator-, COMDAT
; _this$ = ecx

; 190  : 		{	// return difference of iterators

  00000	55		 push	 ebp
  00001	8b ec		 mov	 ebp, esp

; 191  : 		_Compat(_Right);
; 192  : 		return (this->_Ptr - _Right._Ptr);

  00003	8b 01		 mov	 eax, DWORD PTR [ecx]
  00005	8b 4d 08	 mov	 ecx, DWORD PTR __Right$[ebp]
  00008	2b 01		 sub	 eax, DWORD PTR [ecx]
  0000a	6a 0c		 push	 12			; 0000000cH
  0000c	99		 cdq
  0000d	59		 pop	 ecx
  0000e	f7 f9		 idiv	 ecx

; 193  : 		}

  00010	5d		 pop	 ebp
  00011	c2 04 00	 ret	 4
??G?$_Vector_const_iterator@V?$_Vector_val@UInvenItemInfo@@V?$allocator@UInvenItemInfo@@@std@@@std@@@std@@QBEHABV01@@Z ENDP ; std::_Vector_const_iterator<std::_Vector_val<InvenItemInfo,std::allocator<InvenItemInfo> > >::operator-
_TEXT	ENDS
PUBLIC	??$forward@AAUEXTRAITEMSLOT@@@std@@YAAAUEXTRAITEMSLOT@@AAU1@@Z ; std::forward<EXTRAITEMSLOT &>
; Function compile flags: /Ogsp
; File c:\program files (x86)\microsoft visual studio 10.0\vc\include\utility
;	COMDAT ??$forward@AAUEXTRAITEMSLOT@@@std@@YAAAUEXTRAITEMSLOT@@AAU1@@Z
_TEXT	SEGMENT
__Arg$ = 8						; size = 4
??$forward@AAUEXTRAITEMSLOT@@@std@@YAAAUEXTRAITEMSLOT@@AAU1@@Z PROC ; std::forward<EXTRAITEMSLOT &>, COMDAT

; 78   : 	{	// forward _Arg, given explicitly specified type parameter

  00000	55		 push	 ebp
  00001	8b ec		 mov	 ebp, esp

; 79   : 	return ((_Ty&&)_Arg);

  00003	8b 45 08	 mov	 eax, DWORD PTR __Arg$[ebp]

; 80   : 	}

  00006	5d		 pop	 ebp
  00007	c3		 ret	 0
??$forward@AAUEXTRAITEMSLOT@@@std@@YAAAUEXTRAITEMSLOT@@AAU1@@Z ENDP ; std::forward<EXTRAITEMSLOT &>
_TEXT	ENDS
PUBLIC	??$forward@ABUEXTRAITEMSLOT@@@std@@YAABUEXTRAITEMSLOT@@ABU1@@Z ; std::forward<EXTRAITEMSLOT const &>
; Function compile flags: /Ogsp
;	COMDAT ??$forward@ABUEXTRAITEMSLOT@@@std@@YAABUEXTRAITEMSLOT@@ABU1@@Z
_TEXT	SEGMENT
__Arg$ = 8						; size = 4
??$forward@ABUEXTRAITEMSLOT@@@std@@YAABUEXTRAITEMSLOT@@ABU1@@Z PROC ; std::forward<EXTRAITEMSLOT const &>, COMDAT

; 78   : 	{	// forward _Arg, given explicitly specified type parameter

  00000	55		 push	 ebp
  00001	8b ec		 mov	 ebp, esp

; 79   : 	return ((_Ty&&)_Arg);

  00003	8b 45 08	 mov	 eax, DWORD PTR __Arg$[ebp]

; 80   : 	}

  00006	5d		 pop	 ebp
  00007	c3		 ret	 0
??$forward@ABUEXTRAITEMSLOT@@@std@@YAABUEXTRAITEMSLOT@@ABU1@@Z ENDP ; std::forward<EXTRAITEMSLOT const &>
_TEXT	ENDS
PUBLIC	??$forward@AAUNewShopPullDownItem@@@std@@YAAAUNewShopPullDownItem@@AAU1@@Z ; std::forward<NewShopPullDownItem &>
; Function compile flags: /Ogsp
;	COMDAT ??$forward@AAUNewShopPullDownItem@@@std@@YAAAUNewShopPullDownItem@@AAU1@@Z
_TEXT	SEGMENT
__Arg$ = 8						; size = 4
??$forward@AAUNewShopPullDownItem@@@std@@YAAAUNewShopPullDownItem@@AAU1@@Z PROC ; std::forward<NewShopPullDownItem &>, COMDAT

; 78   : 	{	// forward _Arg, given explicitly specified type parameter

  00000	55		 push	 ebp
  00001	8b ec		 mov	 ebp, esp

; 79   : 	return ((_Ty&&)_Arg);

  00003	8b 45 08	 mov	 eax, DWORD PTR __Arg$[ebp]

; 80   : 	}

  00006	5d		 pop	 ebp
  00007	c3		 ret	 0
??$forward@AAUNewShopPullDownItem@@@std@@YAAAUNewShopPullDownItem@@AAU1@@Z ENDP ; std::forward<NewShopPullDownItem &>
_TEXT	ENDS
PUBLIC	??$forward@ABUNewShopPullDownItem@@@std@@YAABUNewShopPullDownItem@@ABU1@@Z ; std::forward<NewShopPullDownItem const &>
; Function compile flags: /Ogsp
;	COMDAT ??$forward@ABUNewShopPullDownItem@@@std@@YAABUNewShopPullDownItem@@ABU1@@Z
_TEXT	SEGMENT
__Arg$ = 8						; size = 4
??$forward@ABUNewShopPullDownItem@@@std@@YAABUNewShopPullDownItem@@ABU1@@Z PROC ; std::forward<NewShopPullDownItem const &>, COMDAT

; 78   : 	{	// forward _Arg, given explicitly specified type parameter

  00000	55		 push	 ebp
  00001	8b ec		 mov	 ebp, esp

; 79   : 	return ((_Ty&&)_Arg);

  00003	8b 45 08	 mov	 eax, DWORD PTR __Arg$[ebp]

; 80   : 	}

  00006	5d		 pop	 ebp
  00007	c3		 ret	 0
??$forward@ABUNewShopPullDownItem@@@std@@YAABUNewShopPullDownItem@@ABU1@@Z ENDP ; std::forward<NewShopPullDownItem const &>
_TEXT	ENDS
PUBLIC	??$forward@AAUInvenItemInfo@@@std@@YAAAUInvenItemInfo@@AAU1@@Z ; std::forward<InvenItemInfo &>
; Function compile flags: /Ogsp
;	COMDAT ??$forward@AAUInvenItemInfo@@@std@@YAAAUInvenItemInfo@@AAU1@@Z
_TEXT	SEGMENT
__Arg$ = 8						; size = 4
??$forward@AAUInvenItemInfo@@@std@@YAAAUInvenItemInfo@@AAU1@@Z PROC ; std::forward<InvenItemInfo &>, COMDAT

; 78   : 	{	// forward _Arg, given explicitly specified type parameter

  00000	55		 push	 ebp
  00001	8b ec		 mov	 ebp, esp

; 79   : 	return ((_Ty&&)_Arg);

  00003	8b 45 08	 mov	 eax, DWORD PTR __Arg$[ebp]

; 80   : 	}

  00006	5d		 pop	 ebp
  00007	c3		 ret	 0
??$forward@AAUInvenItemInfo@@@std@@YAAAUInvenItemInfo@@AAU1@@Z ENDP ; std::forward<InvenItemInfo &>
_TEXT	ENDS
PUBLIC	??$construct@AAUInvenItemInfo@@@?$allocator@UInvenItemInfo@@@std@@QAEXPAUInvenItemInfo@@AAU2@@Z ; std::allocator<InvenItemInfo>::construct<InvenItemInfo &>
; Function compile flags: /Ogsp
; File c:\program files (x86)\microsoft visual studio 10.0\vc\include\xmemory
;	COMDAT ??$construct@AAUInvenItemInfo@@@?$allocator@UInvenItemInfo@@@std@@QAEXPAUInvenItemInfo@@AAU2@@Z
_TEXT	SEGMENT
__Ptr$ = 8						; size = 4
__Val$ = 12						; size = 4
??$construct@AAUInvenItemInfo@@@?$allocator@UInvenItemInfo@@@std@@QAEXPAUInvenItemInfo@@AAU2@@Z PROC ; std::allocator<InvenItemInfo>::construct<InvenItemInfo &>, COMDAT
; _this$ = ecx

; 206  : 		void construct(pointer _Ptr, _Other&& _Val)

  00000	55		 push	 ebp
  00001	8b ec		 mov	 ebp, esp
  00003	57		 push	 edi

; 207  : 		{	// construct object at _Ptr with value _Val
; 208  : 		::new ((void _FARQ *)_Ptr) _Ty(_STD forward<_Other>(_Val));

  00004	8b 7d 08	 mov	 edi, DWORD PTR __Ptr$[ebp]
  00007	85 ff		 test	 edi, edi
  00009	74 08		 je	 SHORT $LN3@construct
  0000b	56		 push	 esi
  0000c	8b 75 0c	 mov	 esi, DWORD PTR __Val$[ebp]
  0000f	a5		 movsd
  00010	a5		 movsd
  00011	a5		 movsd
  00012	5e		 pop	 esi
$LN3@construct:
  00013	5f		 pop	 edi

; 209  : 		}

  00014	5d		 pop	 ebp
  00015	c2 08 00	 ret	 8
??$construct@AAUInvenItemInfo@@@?$allocator@UInvenItemInfo@@@std@@QAEXPAUInvenItemInfo@@AAU2@@Z ENDP ; std::allocator<InvenItemInfo>::construct<InvenItemInfo &>
_TEXT	ENDS
PUBLIC	??$forward@ABUInvenItemInfo@@@std@@YAABUInvenItemInfo@@ABU1@@Z ; std::forward<InvenItemInfo const &>
; Function compile flags: /Ogsp
; File c:\program files (x86)\microsoft visual studio 10.0\vc\include\utility
;	COMDAT ??$forward@ABUInvenItemInfo@@@std@@YAABUInvenItemInfo@@ABU1@@Z
_TEXT	SEGMENT
__Arg$ = 8						; size = 4
??$forward@ABUInvenItemInfo@@@std@@YAABUInvenItemInfo@@ABU1@@Z PROC ; std::forward<InvenItemInfo const &>, COMDAT

; 78   : 	{	// forward _Arg, given explicitly specified type parameter

  00000	55		 push	 ebp
  00001	8b ec		 mov	 ebp, esp

; 79   : 	return ((_Ty&&)_Arg);

  00003	8b 45 08	 mov	 eax, DWORD PTR __Arg$[ebp]

; 80   : 	}

  00006	5d		 pop	 ebp
  00007	c3		 ret	 0
??$forward@ABUInvenItemInfo@@@std@@YAABUInvenItemInfo@@ABU1@@Z ENDP ; std::forward<InvenItemInfo const &>
_TEXT	ENDS
PUBLIC	??$_Ptr_cat@UEXTRAITEMSLOT@@U1@@std@@YA?AU_Nonscalar_ptr_iterator_tag@0@PAUEXTRAITEMSLOT@@0@Z ; std::_Ptr_cat<EXTRAITEMSLOT,EXTRAITEMSLOT>
; Function compile flags: /Ogsp
; File c:\program files (x86)\microsoft visual studio 10.0\vc\include\xutility
;	COMDAT ??$_Ptr_cat@UEXTRAITEMSLOT@@U1@@std@@YA?AU_Nonscalar_ptr_iterator_tag@0@PAUEXTRAITEMSLOT@@0@Z
_TEXT	SEGMENT
__Cat$ = -1						; size = 1
___formal$ = 8						; size = 4
___formal$ = 12						; size = 4
??$_Ptr_cat@UEXTRAITEMSLOT@@U1@@std@@YA?AU_Nonscalar_ptr_iterator_tag@0@PAUEXTRAITEMSLOT@@0@Z PROC ; std::_Ptr_cat<EXTRAITEMSLOT,EXTRAITEMSLOT>, COMDAT

; 516  : 	{	// return pointer category from pointers

  00000	55		 push	 ebp
  00001	8b ec		 mov	 ebp, esp
  00003	51		 push	 ecx

; 517  : 	typename _Ptr_cat_helper<_Elem1, _Elem2>::_Type _Cat;
; 518  : 	return (_Cat);

  00004	8a 45 ff	 mov	 al, BYTE PTR __Cat$[ebp]

; 519  : 	}

  00007	c9		 leave
  00008	c3		 ret	 0
??$_Ptr_cat@UEXTRAITEMSLOT@@U1@@std@@YA?AU_Nonscalar_ptr_iterator_tag@0@PAUEXTRAITEMSLOT@@0@Z ENDP ; std::_Ptr_cat<EXTRAITEMSLOT,EXTRAITEMSLOT>
_TEXT	ENDS
PUBLIC	??$_Ptr_cat@UNewShopPullDownItem@@U1@@std@@YA?AU_Nonscalar_ptr_iterator_tag@0@PAUNewShopPullDownItem@@0@Z ; std::_Ptr_cat<NewShopPullDownItem,NewShopPullDownItem>
; Function compile flags: /Ogsp
;	COMDAT ??$_Ptr_cat@UNewShopPullDownItem@@U1@@std@@YA?AU_Nonscalar_ptr_iterator_tag@0@PAUNewShopPullDownItem@@0@Z
_TEXT	SEGMENT
__Cat$ = -1						; size = 1
___formal$ = 8						; size = 4
___formal$ = 12						; size = 4
??$_Ptr_cat@UNewShopPullDownItem@@U1@@std@@YA?AU_Nonscalar_ptr_iterator_tag@0@PAUNewShopPullDownItem@@0@Z PROC ; std::_Ptr_cat<NewShopPullDownItem,NewShopPullDownItem>, COMDAT

; 516  : 	{	// return pointer category from pointers

  00000	55		 push	 ebp
  00001	8b ec		 mov	 ebp, esp
  00003	51		 push	 ecx

; 517  : 	typename _Ptr_cat_helper<_Elem1, _Elem2>::_Type _Cat;
; 518  : 	return (_Cat);

  00004	8a 45 ff	 mov	 al, BYTE PTR __Cat$[ebp]

; 519  : 	}

  00007	c9		 leave
  00008	c3		 ret	 0
??$_Ptr_cat@UNewShopPullDownItem@@U1@@std@@YA?AU_Nonscalar_ptr_iterator_tag@0@PAUNewShopPullDownItem@@0@Z ENDP ; std::_Ptr_cat<NewShopPullDownItem,NewShopPullDownItem>
_TEXT	ENDS
PUBLIC	??$_Ptr_cat@UInvenItemInfo@@U1@@std@@YA?AU_Nonscalar_ptr_iterator_tag@0@PAUInvenItemInfo@@0@Z ; std::_Ptr_cat<InvenItemInfo,InvenItemInfo>
; Function compile flags: /Ogsp
;	COMDAT ??$_Ptr_cat@UInvenItemInfo@@U1@@std@@YA?AU_Nonscalar_ptr_iterator_tag@0@PAUInvenItemInfo@@0@Z
_TEXT	SEGMENT
__Cat$ = -1						; size = 1
___formal$ = 8						; size = 4
___formal$ = 12						; size = 4
??$_Ptr_cat@UInvenItemInfo@@U1@@std@@YA?AU_Nonscalar_ptr_iterator_tag@0@PAUInvenItemInfo@@0@Z PROC ; std::_Ptr_cat<InvenItemInfo,InvenItemInfo>, COMDAT

; 516  : 	{	// return pointer category from pointers

  00000	55		 push	 ebp
  00001	8b ec		 mov	 ebp, esp
  00003	51		 push	 ecx

; 517  : 	typename _Ptr_cat_helper<_Elem1, _Elem2>::_Type _Cat;
; 518  : 	return (_Cat);

  00004	8a 45 ff	 mov	 al, BYTE PTR __Cat$[ebp]

; 519  : 	}

  00007	c9		 leave
  00008	c3		 ret	 0
??$_Ptr_cat@UInvenItemInfo@@U1@@std@@YA?AU_Nonscalar_ptr_iterator_tag@0@PAUInvenItemInfo@@0@Z ENDP ; std::_Ptr_cat<InvenItemInfo,InvenItemInfo>
_TEXT	ENDS
PUBLIC	??$_Construct@UInvenItemInfo@@ABU1@@std@@YAXPAUInvenItemInfo@@ABU1@@Z ; std::_Construct<InvenItemInfo,InvenItemInfo const &>
; Function compile flags: /Ogsp
; File c:\program files (x86)\microsoft visual studio 10.0\vc\include\xmemory
;	COMDAT ??$_Construct@UInvenItemInfo@@ABU1@@std@@YAXPAUInvenItemInfo@@ABU1@@Z
_TEXT	SEGMENT
__Ptr$ = 8						; size = 4
__Val$ = 12						; size = 4
??$_Construct@UInvenItemInfo@@ABU1@@std@@YAXPAUInvenItemInfo@@ABU1@@Z PROC ; std::_Construct<InvenItemInfo,InvenItemInfo const &>, COMDAT

; 46   : 	{	// construct object at _Ptr with value _Val

  00000	55		 push	 ebp
  00001	8b ec		 mov	 ebp, esp
  00003	57		 push	 edi

; 47   : 	void _FARQ *_Vptr = _Ptr;
; 48   : 	::new (_Vptr) _Ty1(_STD forward<_Ty2>(_Val));

  00004	8b 7d 08	 mov	 edi, DWORD PTR __Ptr$[ebp]
  00007	85 ff		 test	 edi, edi
  00009	74 08		 je	 SHORT $LN3@Construct
  0000b	56		 push	 esi
  0000c	8b 75 0c	 mov	 esi, DWORD PTR __Val$[ebp]
  0000f	a5		 movsd
  00010	a5		 movsd
  00011	a5		 movsd
  00012	5e		 pop	 esi
$LN3@Construct:
  00013	5f		 pop	 edi

; 49   : 	}

  00014	5d		 pop	 ebp
  00015	c3		 ret	 0
??$_Construct@UInvenItemInfo@@ABU1@@std@@YAXPAUInvenItemInfo@@ABU1@@Z ENDP ; std::_Construct<InvenItemInfo,InvenItemInfo const &>
_TEXT	ENDS
PUBLIC	??0EXTRAITEMSLOT@@QAE@ABU0@@Z			; EXTRAITEMSLOT::EXTRAITEMSLOT
EXTRN	__imp_??0ioHashString@@QAE@ABV0@@Z:PROC
;	COMDAT xdata$x
xdata$x	SEGMENT
__unwindtable$??0EXTRAITEMSLOT@@QAE@ABU0@@Z DD 0ffffffffH
	DD	FLAT:__unwindfunclet$??0EXTRAITEMSLOT@@QAE@ABU0@@Z$0
__ehfuncinfo$??0EXTRAITEMSLOT@@QAE@ABU0@@Z DD 019930522H
	DD	01H
	DD	FLAT:__unwindtable$??0EXTRAITEMSLOT@@QAE@ABU0@@Z
	DD	2 DUP(00H)
	DD	2 DUP(00H)
	DD	00H
	DD	01H
; Function compile flags: /Ogsp
xdata$x	ENDS
;	COMDAT ??0EXTRAITEMSLOT@@QAE@ABU0@@Z
_TEXT	SEGMENT
_this$ = -16						; size = 4
__$EHRec$ = -12						; size = 12
___that$ = 8						; size = 4
??0EXTRAITEMSLOT@@QAE@ABU0@@Z PROC			; EXTRAITEMSLOT::EXTRAITEMSLOT, COMDAT
; _this$ = ecx
  00000	6a 04		 push	 4
  00002	b8 00 00 00 00	 mov	 eax, __ehhandler$??0EXTRAITEMSLOT@@QAE@ABU0@@Z
  00007	e8 00 00 00 00	 call	 __EH_prolog3
  0000c	8b f1		 mov	 esi, ecx
  0000e	89 75 f0	 mov	 DWORD PTR _this$[ebp], esi
  00011	8b 7d 08	 mov	 edi, DWORD PTR ___that$[ebp]
  00014	8b 07		 mov	 eax, DWORD PTR [edi]
  00016	89 06		 mov	 DWORD PTR [esi], eax
  00018	8b 47 04	 mov	 eax, DWORD PTR [edi+4]
  0001b	89 46 04	 mov	 DWORD PTR [esi+4], eax
  0001e	8b 47 08	 mov	 eax, DWORD PTR [edi+8]
  00021	89 46 08	 mov	 DWORD PTR [esi+8], eax
  00024	8b 47 0c	 mov	 eax, DWORD PTR [edi+12]
  00027	89 46 0c	 mov	 DWORD PTR [esi+12], eax
  0002a	8b 47 10	 mov	 eax, DWORD PTR [edi+16]
  0002d	8b 1d 00 00 00
	00		 mov	 ebx, DWORD PTR __imp_??0ioHashString@@QAE@ABV0@@Z
  00033	89 46 10	 mov	 DWORD PTR [esi+16], eax
  00036	8b 47 14	 mov	 eax, DWORD PTR [edi+20]
  00039	89 46 14	 mov	 DWORD PTR [esi+20], eax
  0003c	8b 47 18	 mov	 eax, DWORD PTR [edi+24]
  0003f	89 46 18	 mov	 DWORD PTR [esi+24], eax
  00042	8b 47 1c	 mov	 eax, DWORD PTR [edi+28]
  00045	89 46 1c	 mov	 DWORD PTR [esi+28], eax
  00048	8b 47 20	 mov	 eax, DWORD PTR [edi+32]
  0004b	89 46 20	 mov	 DWORD PTR [esi+32], eax
  0004e	66 8b 47 24	 mov	 ax, WORD PTR [edi+36]
  00052	66 89 46 24	 mov	 WORD PTR [esi+36], ax
  00056	8a 47 26	 mov	 al, BYTE PTR [edi+38]
  00059	88 46 26	 mov	 BYTE PTR [esi+38], al
  0005c	8d 47 28	 lea	 eax, DWORD PTR [edi+40]
  0005f	50		 push	 eax
  00060	8d 4e 28	 lea	 ecx, DWORD PTR [esi+40]
  00063	ff d3		 call	 ebx
  00065	83 65 fc 00	 and	 DWORD PTR __$EHRec$[ebp+8], 0
  00069	83 c7 38	 add	 edi, 56			; 00000038H
  0006c	57		 push	 edi
  0006d	8d 4e 38	 lea	 ecx, DWORD PTR [esi+56]
  00070	ff d3		 call	 ebx
  00072	8b c6		 mov	 eax, esi
  00074	e8 00 00 00 00	 call	 __EH_epilog3
  00079	c2 04 00	 ret	 4
_TEXT	ENDS
;	COMDAT text$x
text$x	SEGMENT
__unwindfunclet$??0EXTRAITEMSLOT@@QAE@ABU0@@Z$0:
  00000	8b 4d f0	 mov	 ecx, DWORD PTR _this$[ebp]
  00003	83 c1 28	 add	 ecx, 40			; 00000028H
  00006	ff 25 00 00 00
	00		 jmp	 DWORD PTR __imp_??1ioHashString@@QAE@XZ
__ehhandler$??0EXTRAITEMSLOT@@QAE@ABU0@@Z:
  0000c	8b 54 24 08	 mov	 edx, DWORD PTR [esp+8]
  00010	8d 42 0c	 lea	 eax, DWORD PTR [edx+12]
  00013	8b 4a ec	 mov	 ecx, DWORD PTR [edx-20]
  00016	33 c8		 xor	 ecx, eax
  00018	e8 00 00 00 00	 call	 @__security_check_cookie@4
  0001d	b8 00 00 00 00	 mov	 eax, OFFSET __ehfuncinfo$??0EXTRAITEMSLOT@@QAE@ABU0@@Z
  00022	e9 00 00 00 00	 jmp	 ___CxxFrameHandler3
text$x	ENDS
??0EXTRAITEMSLOT@@QAE@ABU0@@Z ENDP			; EXTRAITEMSLOT::EXTRAITEMSLOT
PUBLIC	??0NewShopPullDownItem@@QAE@ABU0@@Z		; NewShopPullDownItem::NewShopPullDownItem
;	COMDAT xdata$x
xdata$x	SEGMENT
__unwindtable$??0NewShopPullDownItem@@QAE@ABU0@@Z DD 0ffffffffH
	DD	FLAT:__unwindfunclet$??0NewShopPullDownItem@@QAE@ABU0@@Z$0
	DD	00H
	DD	FLAT:__unwindfunclet$??0NewShopPullDownItem@@QAE@ABU0@@Z$1
__ehfuncinfo$??0NewShopPullDownItem@@QAE@ABU0@@Z DD 019930522H
	DD	02H
	DD	FLAT:__unwindtable$??0NewShopPullDownItem@@QAE@ABU0@@Z
	DD	2 DUP(00H)
	DD	2 DUP(00H)
	DD	00H
	DD	01H
; Function compile flags: /Ogsp
xdata$x	ENDS
;	COMDAT ??0NewShopPullDownItem@@QAE@ABU0@@Z
_TEXT	SEGMENT
_this$ = -16						; size = 4
__$EHRec$ = -12						; size = 12
___that$ = 8						; size = 4
??0NewShopPullDownItem@@QAE@ABU0@@Z PROC		; NewShopPullDownItem::NewShopPullDownItem, COMDAT
; _this$ = ecx
  00000	6a 04		 push	 4
  00002	b8 00 00 00 00	 mov	 eax, __ehhandler$??0NewShopPullDownItem@@QAE@ABU0@@Z
  00007	e8 00 00 00 00	 call	 __EH_prolog3
  0000c	8b f1		 mov	 esi, ecx
  0000e	89 75 f0	 mov	 DWORD PTR _this$[ebp], esi
  00011	8b 7d 08	 mov	 edi, DWORD PTR ___that$[ebp]
  00014	8b 1d 00 00 00
	00		 mov	 ebx, DWORD PTR __imp_??0ioHashString@@QAE@ABV0@@Z
  0001a	57		 push	 edi
  0001b	ff d3		 call	 ebx
  0001d	8b 47 10	 mov	 eax, DWORD PTR [edi+16]
  00020	83 65 fc 00	 and	 DWORD PTR __$EHRec$[ebp+8], 0
  00024	89 46 10	 mov	 DWORD PTR [esi+16], eax
  00027	8b 47 14	 mov	 eax, DWORD PTR [edi+20]
  0002a	89 46 14	 mov	 DWORD PTR [esi+20], eax
  0002d	8a 47 18	 mov	 al, BYTE PTR [edi+24]
  00030	88 46 18	 mov	 BYTE PTR [esi+24], al
  00033	8b 47 1c	 mov	 eax, DWORD PTR [edi+28]
  00036	89 46 1c	 mov	 DWORD PTR [esi+28], eax
  00039	8a 47 20	 mov	 al, BYTE PTR [edi+32]
  0003c	88 46 20	 mov	 BYTE PTR [esi+32], al
  0003f	8d 47 24	 lea	 eax, DWORD PTR [edi+36]
  00042	50		 push	 eax
  00043	8d 4e 24	 lea	 ecx, DWORD PTR [esi+36]
  00046	ff d3		 call	 ebx
  00048	8b 47 34	 mov	 eax, DWORD PTR [edi+52]
  0004b	89 46 34	 mov	 DWORD PTR [esi+52], eax
  0004e	8a 47 38	 mov	 al, BYTE PTR [edi+56]
  00051	88 46 38	 mov	 BYTE PTR [esi+56], al
  00054	8d 47 3c	 lea	 eax, DWORD PTR [edi+60]
  00057	50		 push	 eax
  00058	8d 4e 3c	 lea	 ecx, DWORD PTR [esi+60]
  0005b	c6 45 fc 01	 mov	 BYTE PTR __$EHRec$[ebp+8], 1
  0005f	ff d3		 call	 ebx
  00061	8b 47 4c	 mov	 eax, DWORD PTR [edi+76]
  00064	89 46 4c	 mov	 DWORD PTR [esi+76], eax
  00067	8b c6		 mov	 eax, esi
  00069	e8 00 00 00 00	 call	 __EH_epilog3
  0006e	c2 04 00	 ret	 4
_TEXT	ENDS
;	COMDAT text$x
text$x	SEGMENT
__unwindfunclet$??0NewShopPullDownItem@@QAE@ABU0@@Z$0:
  00000	8b 4d f0	 mov	 ecx, DWORD PTR _this$[ebp]
  00003	ff 25 00 00 00
	00		 jmp	 DWORD PTR __imp_??1ioHashString@@QAE@XZ
__unwindfunclet$??0NewShopPullDownItem@@QAE@ABU0@@Z$1:
  00009	8b 4d f0	 mov	 ecx, DWORD PTR _this$[ebp]
  0000c	83 c1 24	 add	 ecx, 36			; 00000024H
  0000f	ff 25 00 00 00
	00		 jmp	 DWORD PTR __imp_??1ioHashString@@QAE@XZ
__ehhandler$??0NewShopPullDownItem@@QAE@ABU0@@Z:
  00015	8b 54 24 08	 mov	 edx, DWORD PTR [esp+8]
  00019	8d 42 0c	 lea	 eax, DWORD PTR [edx+12]
  0001c	8b 4a ec	 mov	 ecx, DWORD PTR [edx-20]
  0001f	33 c8		 xor	 ecx, eax
  00021	e8 00 00 00 00	 call	 @__security_check_cookie@4
  00026	b8 00 00 00 00	 mov	 eax, OFFSET __ehfuncinfo$??0NewShopPullDownItem@@QAE@ABU0@@Z
  0002b	e9 00 00 00 00	 jmp	 ___CxxFrameHandler3
text$x	ENDS
??0NewShopPullDownItem@@QAE@ABU0@@Z ENDP		; NewShopPullDownItem::NewShopPullDownItem
PUBLIC	??4EXTRAITEMSLOT@@QAEAAU0@ABU0@@Z		; EXTRAITEMSLOT::operator=
EXTRN	__imp_??4ioHashString@@QAEAAV0@ABV0@@Z:PROC
; Function compile flags: /Ogsp
;	COMDAT ??4EXTRAITEMSLOT@@QAEAAU0@ABU0@@Z
_TEXT	SEGMENT
___that$ = 8						; size = 4
??4EXTRAITEMSLOT@@QAEAAU0@ABU0@@Z PROC			; EXTRAITEMSLOT::operator=, COMDAT
; _this$ = ecx
  00000	55		 push	 ebp
  00001	8b ec		 mov	 ebp, esp
  00003	53		 push	 ebx
  00004	56		 push	 esi
  00005	8b f1		 mov	 esi, ecx
  00007	57		 push	 edi
  00008	8b 7d 08	 mov	 edi, DWORD PTR ___that$[ebp]
  0000b	8b 07		 mov	 eax, DWORD PTR [edi]
  0000d	89 06		 mov	 DWORD PTR [esi], eax
  0000f	8b 47 04	 mov	 eax, DWORD PTR [edi+4]
  00012	89 46 04	 mov	 DWORD PTR [esi+4], eax
  00015	8b 47 08	 mov	 eax, DWORD PTR [edi+8]
  00018	89 46 08	 mov	 DWORD PTR [esi+8], eax
  0001b	8b 47 0c	 mov	 eax, DWORD PTR [edi+12]
  0001e	89 46 0c	 mov	 DWORD PTR [esi+12], eax
  00021	8b 47 10	 mov	 eax, DWORD PTR [edi+16]
  00024	8b 1d 00 00 00
	00		 mov	 ebx, DWORD PTR __imp_??4ioHashString@@QAEAAV0@ABV0@@Z
  0002a	89 46 10	 mov	 DWORD PTR [esi+16], eax
  0002d	8b 47 14	 mov	 eax, DWORD PTR [edi+20]
  00030	89 46 14	 mov	 DWORD PTR [esi+20], eax
  00033	8b 47 18	 mov	 eax, DWORD PTR [edi+24]
  00036	89 46 18	 mov	 DWORD PTR [esi+24], eax
  00039	8b 47 1c	 mov	 eax, DWORD PTR [edi+28]
  0003c	89 46 1c	 mov	 DWORD PTR [esi+28], eax
  0003f	8b 47 20	 mov	 eax, DWORD PTR [edi+32]
  00042	89 46 20	 mov	 DWORD PTR [esi+32], eax
  00045	66 8b 47 24	 mov	 ax, WORD PTR [edi+36]
  00049	66 89 46 24	 mov	 WORD PTR [esi+36], ax
  0004d	8a 47 26	 mov	 al, BYTE PTR [edi+38]
  00050	88 46 26	 mov	 BYTE PTR [esi+38], al
  00053	8d 47 28	 lea	 eax, DWORD PTR [edi+40]
  00056	50		 push	 eax
  00057	8d 4e 28	 lea	 ecx, DWORD PTR [esi+40]
  0005a	ff d3		 call	 ebx
  0005c	83 c7 38	 add	 edi, 56			; 00000038H
  0005f	57		 push	 edi
  00060	8d 4e 38	 lea	 ecx, DWORD PTR [esi+56]
  00063	ff d3		 call	 ebx
  00065	5f		 pop	 edi
  00066	8b c6		 mov	 eax, esi
  00068	5e		 pop	 esi
  00069	5b		 pop	 ebx
  0006a	5d		 pop	 ebp
  0006b	c2 04 00	 ret	 4
??4EXTRAITEMSLOT@@QAEAAU0@ABU0@@Z ENDP			; EXTRAITEMSLOT::operator=
_TEXT	ENDS
PUBLIC	??4NewShopPullDownItem@@QAEAAU0@ABU0@@Z		; NewShopPullDownItem::operator=
; Function compile flags: /Ogsp
;	COMDAT ??4NewShopPullDownItem@@QAEAAU0@ABU0@@Z
_TEXT	SEGMENT
___that$ = 8						; size = 4
??4NewShopPullDownItem@@QAEAAU0@ABU0@@Z PROC		; NewShopPullDownItem::operator=, COMDAT
; _this$ = ecx
  00000	55		 push	 ebp
  00001	8b ec		 mov	 ebp, esp
  00003	53		 push	 ebx
  00004	8b 1d 00 00 00
	00		 mov	 ebx, DWORD PTR __imp_??4ioHashString@@QAEAAV0@ABV0@@Z
  0000a	56		 push	 esi
  0000b	57		 push	 edi
  0000c	8b 7d 08	 mov	 edi, DWORD PTR ___that$[ebp]
  0000f	57		 push	 edi
  00010	8b f1		 mov	 esi, ecx
  00012	ff d3		 call	 ebx
  00014	8b 47 10	 mov	 eax, DWORD PTR [edi+16]
  00017	89 46 10	 mov	 DWORD PTR [esi+16], eax
  0001a	8b 47 14	 mov	 eax, DWORD PTR [edi+20]
  0001d	89 46 14	 mov	 DWORD PTR [esi+20], eax
  00020	8a 47 18	 mov	 al, BYTE PTR [edi+24]
  00023	88 46 18	 mov	 BYTE PTR [esi+24], al
  00026	8b 47 1c	 mov	 eax, DWORD PTR [edi+28]
  00029	89 46 1c	 mov	 DWORD PTR [esi+28], eax
  0002c	8a 47 20	 mov	 al, BYTE PTR [edi+32]
  0002f	88 46 20	 mov	 BYTE PTR [esi+32], al
  00032	8d 47 24	 lea	 eax, DWORD PTR [edi+36]
  00035	50		 push	 eax
  00036	8d 4e 24	 lea	 ecx, DWORD PTR [esi+36]
  00039	ff d3		 call	 ebx
  0003b	8b 47 34	 mov	 eax, DWORD PTR [edi+52]
  0003e	89 46 34	 mov	 DWORD PTR [esi+52], eax
  00041	8a 47 38	 mov	 al, BYTE PTR [edi+56]
  00044	88 46 38	 mov	 BYTE PTR [esi+56], al
  00047	8d 47 3c	 lea	 eax, DWORD PTR [edi+60]
  0004a	50		 push	 eax
  0004b	8d 4e 3c	 lea	 ecx, DWORD PTR [esi+60]
  0004e	ff d3		 call	 ebx
  00050	8b 47 4c	 mov	 eax, DWORD PTR [edi+76]
  00053	89 46 4c	 mov	 DWORD PTR [esi+76], eax
  00056	5f		 pop	 edi
  00057	8b c6		 mov	 eax, esi
  00059	5e		 pop	 esi
  0005a	5b		 pop	 ebx
  0005b	5d		 pop	 ebp
  0005c	c2 04 00	 ret	 4
??4NewShopPullDownItem@@QAEAAU0@ABU0@@Z ENDP		; NewShopPullDownItem::operator=
_TEXT	ENDS
PUBLIC	?_Unchecked@?$_Vector_iterator@V?$_Vector_val@UInvenItemInfo@@V?$allocator@UInvenItemInfo@@@std@@@std@@@std@@QBEPAUInvenItemInfo@@XZ ; std::_Vector_iterator<std::_Vector_val<InvenItemInfo,std::allocator<InvenItemInfo> > >::_Unchecked
; Function compile flags: /Ogsp
; File c:\program files (x86)\microsoft visual studio 10.0\vc\include\vector
;	COMDAT ?_Unchecked@?$_Vector_iterator@V?$_Vector_val@UInvenItemInfo@@V?$allocator@UInvenItemInfo@@@std@@@std@@@std@@QBEPAUInvenItemInfo@@XZ
_TEXT	SEGMENT
?_Unchecked@?$_Vector_iterator@V?$_Vector_val@UInvenItemInfo@@V?$allocator@UInvenItemInfo@@@std@@@std@@@std@@QBEPAUInvenItemInfo@@XZ PROC ; std::_Vector_iterator<std::_Vector_val<InvenItemInfo,std::allocator<InvenItemInfo> > >::_Unchecked, COMDAT
; _this$ = ecx

; 317  : 		return (_Unchecked_type(this->_Ptr));

  00000	8b 01		 mov	 eax, DWORD PTR [ecx]

; 318  : 		}

  00002	c3		 ret	 0
?_Unchecked@?$_Vector_iterator@V?$_Vector_val@UInvenItemInfo@@V?$allocator@UInvenItemInfo@@@std@@@std@@@std@@QBEPAUInvenItemInfo@@XZ ENDP ; std::_Vector_iterator<std::_Vector_val<InvenItemInfo,std::allocator<InvenItemInfo> > >::_Unchecked
_TEXT	ENDS
PUBLIC	??$_Ptr_cat@V?$_Vector_const_iterator@V?$_Vector_val@UEXTRAITEMSLOT@@V?$allocator@UEXTRAITEMSLOT@@@std@@@std@@@std@@PAUEXTRAITEMSLOT@@@std@@YA?AU_Nonscalar_ptr_iterator_tag@0@AAV?$_Vector_const_iterator@V?$_Vector_val@UEXTRAITEMSLOT@@V?$allocator@UEXTRAITEMSLOT@@@std@@@std@@@0@AAPAUEXTRAITEMSLOT@@@Z ; std::_Ptr_cat<std::_Vector_const_iterator<std::_Vector_val<EXTRAITEMSLOT,std::allocator<EXTRAITEMSLOT> > >,EXTRAITEMSLOT *>
; Function compile flags: /Ogsp
; File c:\program files (x86)\microsoft visual studio 10.0\vc\include\xutility
;	COMDAT ??$_Ptr_cat@V?$_Vector_const_iterator@V?$_Vector_val@UEXTRAITEMSLOT@@V?$allocator@UEXTRAITEMSLOT@@@std@@@std@@@std@@PAUEXTRAITEMSLOT@@@std@@YA?AU_Nonscalar_ptr_iterator_tag@0@AAV?$_Vector_const_iterator@V?$_Vector_val@UEXTRAITEMSLOT@@V?$allocator@UEXTRAITEMSLOT@@@std@@@std@@@0@AAPAUEXTRAITEMSLOT@@@Z
_TEXT	SEGMENT
__Cat$ = -1						; size = 1
___formal$ = 8						; size = 4
___formal$ = 12						; size = 4
??$_Ptr_cat@V?$_Vector_const_iterator@V?$_Vector_val@UEXTRAITEMSLOT@@V?$allocator@UEXTRAITEMSLOT@@@std@@@std@@@std@@PAUEXTRAITEMSLOT@@@std@@YA?AU_Nonscalar_ptr_iterator_tag@0@AAV?$_Vector_const_iterator@V?$_Vector_val@UEXTRAITEMSLOT@@V?$allocator@UEXTRAITEMSLOT@@@std@@@std@@@0@AAPAUEXTRAITEMSLOT@@@Z PROC ; std::_Ptr_cat<std::_Vector_const_iterator<std::_Vector_val<EXTRAITEMSLOT,std::allocator<EXTRAITEMSLOT> > >,EXTRAITEMSLOT *>, COMDAT

; 485  : 	{	// return pointer category from arbitrary arguments

  00000	55		 push	 ebp
  00001	8b ec		 mov	 ebp, esp
  00003	51		 push	 ecx

; 486  : 	_Nonscalar_ptr_iterator_tag _Cat;
; 487  : 	return (_Cat);

  00004	8a 45 ff	 mov	 al, BYTE PTR __Cat$[ebp]

; 488  : 	}

  00007	c9		 leave
  00008	c3		 ret	 0
??$_Ptr_cat@V?$_Vector_const_iterator@V?$_Vector_val@UEXTRAITEMSLOT@@V?$allocator@UEXTRAITEMSLOT@@@std@@@std@@@std@@PAUEXTRAITEMSLOT@@@std@@YA?AU_Nonscalar_ptr_iterator_tag@0@AAV?$_Vector_const_iterator@V?$_Vector_val@UEXTRAITEMSLOT@@V?$allocator@UEXTRAITEMSLOT@@@std@@@std@@@0@AAPAUEXTRAITEMSLOT@@@Z ENDP ; std::_Ptr_cat<std::_Vector_const_iterator<std::_Vector_val<EXTRAITEMSLOT,std::allocator<EXTRAITEMSLOT> > >,EXTRAITEMSLOT *>
_TEXT	ENDS
PUBLIC	??$move@AAUEXTRAITEMSLOT@@@std@@YA$$QAUEXTRAITEMSLOT@@AAU1@@Z ; std::move<EXTRAITEMSLOT &>
; Function compile flags: /Ogsp
; File c:\program files (x86)\microsoft visual studio 10.0\vc\include\utility
;	COMDAT ??$move@AAUEXTRAITEMSLOT@@@std@@YA$$QAUEXTRAITEMSLOT@@AAU1@@Z
_TEXT	SEGMENT
__Arg$ = 8						; size = 4
??$move@AAUEXTRAITEMSLOT@@@std@@YA$$QAUEXTRAITEMSLOT@@AAU1@@Z PROC ; std::move<EXTRAITEMSLOT &>, COMDAT

; 86   : 	{	// forward _Arg as movable

  00000	55		 push	 ebp
  00001	8b ec		 mov	 ebp, esp

; 87   : 	return ((typename tr1::_Remove_reference<_Ty>::_Type&&)_Arg);

  00003	8b 45 08	 mov	 eax, DWORD PTR __Arg$[ebp]

; 88   : 	}

  00006	5d		 pop	 ebp
  00007	c3		 ret	 0
??$move@AAUEXTRAITEMSLOT@@@std@@YA$$QAUEXTRAITEMSLOT@@AAU1@@Z ENDP ; std::move<EXTRAITEMSLOT &>
_TEXT	ENDS
PUBLIC	??$move@AAUNewShopPullDownItem@@@std@@YA$$QAUNewShopPullDownItem@@AAU1@@Z ; std::move<NewShopPullDownItem &>
; Function compile flags: /Ogsp
;	COMDAT ??$move@AAUNewShopPullDownItem@@@std@@YA$$QAUNewShopPullDownItem@@AAU1@@Z
_TEXT	SEGMENT
__Arg$ = 8						; size = 4
??$move@AAUNewShopPullDownItem@@@std@@YA$$QAUNewShopPullDownItem@@AAU1@@Z PROC ; std::move<NewShopPullDownItem &>, COMDAT

; 86   : 	{	// forward _Arg as movable

  00000	55		 push	 ebp
  00001	8b ec		 mov	 ebp, esp

; 87   : 	return ((typename tr1::_Remove_reference<_Ty>::_Type&&)_Arg);

  00003	8b 45 08	 mov	 eax, DWORD PTR __Arg$[ebp]

; 88   : 	}

  00006	5d		 pop	 ebp
  00007	c3		 ret	 0
??$move@AAUNewShopPullDownItem@@@std@@YA$$QAUNewShopPullDownItem@@AAU1@@Z ENDP ; std::move<NewShopPullDownItem &>
_TEXT	ENDS
PUBLIC	??$move@AAUInvenItemInfo@@@std@@YA$$QAUInvenItemInfo@@AAU1@@Z ; std::move<InvenItemInfo &>
; Function compile flags: /Ogsp
;	COMDAT ??$move@AAUInvenItemInfo@@@std@@YA$$QAUInvenItemInfo@@AAU1@@Z
_TEXT	SEGMENT
__Arg$ = 8						; size = 4
??$move@AAUInvenItemInfo@@@std@@YA$$QAUInvenItemInfo@@AAU1@@Z PROC ; std::move<InvenItemInfo &>, COMDAT

; 86   : 	{	// forward _Arg as movable

  00000	55		 push	 ebp
  00001	8b ec		 mov	 ebp, esp

; 87   : 	return ((typename tr1::_Remove_reference<_Ty>::_Type&&)_Arg);

  00003	8b 45 08	 mov	 eax, DWORD PTR __Arg$[ebp]

; 88   : 	}

  00006	5d		 pop	 ebp
  00007	c3		 ret	 0
??$move@AAUInvenItemInfo@@@std@@YA$$QAUInvenItemInfo@@AAU1@@Z ENDP ; std::move<InvenItemInfo &>
_TEXT	ENDS
PUBLIC	??$_Val_type@PAUEXTRAITEMSLOT@@@std@@YAPAUEXTRAITEMSLOT@@PAU1@@Z ; std::_Val_type<EXTRAITEMSLOT *>
; Function compile flags: /Ogsp
; File c:\program files (x86)\microsoft visual studio 10.0\vc\include\xutility
;	COMDAT ??$_Val_type@PAUEXTRAITEMSLOT@@@std@@YAPAUEXTRAITEMSLOT@@PAU1@@Z
_TEXT	SEGMENT
___formal$ = 8						; size = 4
??$_Val_type@PAUEXTRAITEMSLOT@@@std@@YAPAUEXTRAITEMSLOT@@PAU1@@Z PROC ; std::_Val_type<EXTRAITEMSLOT *>, COMDAT

; 790  : 	return (0);

  00000	33 c0		 xor	 eax, eax

; 791  : 	}

  00002	c3		 ret	 0
??$_Val_type@PAUEXTRAITEMSLOT@@@std@@YAPAUEXTRAITEMSLOT@@PAU1@@Z ENDP ; std::_Val_type<EXTRAITEMSLOT *>
_TEXT	ENDS
PUBLIC	??$_Val_type@PAUNewShopPullDownItem@@@std@@YAPAUNewShopPullDownItem@@PAU1@@Z ; std::_Val_type<NewShopPullDownItem *>
; Function compile flags: /Ogsp
;	COMDAT ??$_Val_type@PAUNewShopPullDownItem@@@std@@YAPAUNewShopPullDownItem@@PAU1@@Z
_TEXT	SEGMENT
___formal$ = 8						; size = 4
??$_Val_type@PAUNewShopPullDownItem@@@std@@YAPAUNewShopPullDownItem@@PAU1@@Z PROC ; std::_Val_type<NewShopPullDownItem *>, COMDAT

; 790  : 	return (0);

  00000	33 c0		 xor	 eax, eax

; 791  : 	}

  00002	c3		 ret	 0
??$_Val_type@PAUNewShopPullDownItem@@@std@@YAPAUNewShopPullDownItem@@PAU1@@Z ENDP ; std::_Val_type<NewShopPullDownItem *>
_TEXT	ENDS
PUBLIC	??$_Val_type@PAUInvenItemInfo@@@std@@YAPAUInvenItemInfo@@PAU1@@Z ; std::_Val_type<InvenItemInfo *>
; Function compile flags: /Ogsp
;	COMDAT ??$_Val_type@PAUInvenItemInfo@@@std@@YAPAUInvenItemInfo@@PAU1@@Z
_TEXT	SEGMENT
___formal$ = 8						; size = 4
??$_Val_type@PAUInvenItemInfo@@@std@@YAPAUInvenItemInfo@@PAU1@@Z PROC ; std::_Val_type<InvenItemInfo *>, COMDAT

; 790  : 	return (0);

  00000	33 c0		 xor	 eax, eax

; 791  : 	}

  00002	c3		 ret	 0
??$_Val_type@PAUInvenItemInfo@@@std@@YAPAUInvenItemInfo@@PAU1@@Z ENDP ; std::_Val_type<InvenItemInfo *>
_TEXT	ENDS
PUBLIC	??D?$_Vector_const_iterator@V?$_Vector_val@UEXTRAITEMSLOT@@V?$allocator@UEXTRAITEMSLOT@@@std@@@std@@@std@@QBEABUEXTRAITEMSLOT@@XZ ; std::_Vector_const_iterator<std::_Vector_val<EXTRAITEMSLOT,std::allocator<EXTRAITEMSLOT> > >::operator*
; Function compile flags: /Ogsp
; File c:\program files (x86)\microsoft visual studio 10.0\vc\include\vector
;	COMDAT ??D?$_Vector_const_iterator@V?$_Vector_val@UEXTRAITEMSLOT@@V?$allocator@UEXTRAITEMSLOT@@@std@@@std@@@std@@QBEABUEXTRAITEMSLOT@@XZ
_TEXT	SEGMENT
??D?$_Vector_const_iterator@V?$_Vector_val@UEXTRAITEMSLOT@@V?$allocator@UEXTRAITEMSLOT@@@std@@@std@@@std@@QBEABUEXTRAITEMSLOT@@XZ PROC ; std::_Vector_const_iterator<std::_Vector_val<EXTRAITEMSLOT,std::allocator<EXTRAITEMSLOT> > >::operator*, COMDAT
; _this$ = ecx

; 64   :  #if _ITERATOR_DEBUG_LEVEL == 2
; 65   : 		if (this->_Getcont() == 0
; 66   : 			|| this->_Ptr == 0
; 67   : 			|| this->_Ptr < ((_Myvec *)this->_Getcont())->_Myfirst
; 68   : 			|| ((_Myvec *)this->_Getcont())->_Mylast <= this->_Ptr)
; 69   : 			{	// report error
; 70   : 			_DEBUG_ERROR("vector iterator not dereferencable");
; 71   : 			_SCL_SECURE_OUT_OF_RANGE;
; 72   : 			}
; 73   : 
; 74   :  #elif _ITERATOR_DEBUG_LEVEL == 1
; 75   : 		_SCL_SECURE_VALIDATE(this->_Getcont() != 0);
; 76   : 		_SCL_SECURE_VALIDATE_RANGE(
; 77   : 			this->_Ptr != 0
; 78   : 			&& ((_Myvec *)this->_Getcont())->_Myfirst <= this->_Ptr
; 79   : 			&& this->_Ptr < ((_Myvec *)this->_Getcont())->_Mylast);
; 80   :  #endif /* _ITERATOR_DEBUG_LEVEL */
; 81   : 
; 82   : 		__analysis_assume(this->_Ptr != 0);
; 83   : 
; 84   : 		return (*this->_Ptr);

  00000	8b 01		 mov	 eax, DWORD PTR [ecx]

; 85   : 		}

  00002	c3		 ret	 0
??D?$_Vector_const_iterator@V?$_Vector_val@UEXTRAITEMSLOT@@V?$allocator@UEXTRAITEMSLOT@@@std@@@std@@@std@@QBEABUEXTRAITEMSLOT@@XZ ENDP ; std::_Vector_const_iterator<std::_Vector_val<EXTRAITEMSLOT,std::allocator<EXTRAITEMSLOT> > >::operator*
_TEXT	ENDS
PUBLIC	??E?$_Vector_const_iterator@V?$_Vector_val@UEXTRAITEMSLOT@@V?$allocator@UEXTRAITEMSLOT@@@std@@@std@@@std@@QAEAAV01@XZ ; std::_Vector_const_iterator<std::_Vector_val<EXTRAITEMSLOT,std::allocator<EXTRAITEMSLOT> > >::operator++
; Function compile flags: /Ogsp
;	COMDAT ??E?$_Vector_const_iterator@V?$_Vector_val@UEXTRAITEMSLOT@@V?$allocator@UEXTRAITEMSLOT@@@std@@@std@@@std@@QAEAAV01@XZ
_TEXT	SEGMENT
??E?$_Vector_const_iterator@V?$_Vector_val@UEXTRAITEMSLOT@@V?$allocator@UEXTRAITEMSLOT@@@std@@@std@@@std@@QAEAAV01@XZ PROC ; std::_Vector_const_iterator<std::_Vector_val<EXTRAITEMSLOT,std::allocator<EXTRAITEMSLOT> > >::operator++, COMDAT
; _this$ = ecx

; 93   : 		{	// preincrement

  00000	8b c1		 mov	 eax, ecx

; 94   :  #if _ITERATOR_DEBUG_LEVEL == 2
; 95   : 		if (this->_Getcont() == 0
; 96   : 			|| this->_Ptr == 0
; 97   : 			|| ((_Myvec *)this->_Getcont())->_Mylast <= this->_Ptr)
; 98   : 			{	// report error
; 99   : 			_DEBUG_ERROR("vector iterator not incrementable");
; 100  : 			_SCL_SECURE_OUT_OF_RANGE;
; 101  : 			}
; 102  : 
; 103  :  #elif _ITERATOR_DEBUG_LEVEL == 1
; 104  : 		_SCL_SECURE_VALIDATE(this->_Getcont() != 0);
; 105  : 		_SCL_SECURE_VALIDATE_RANGE(
; 106  : 			this->_Ptr != 0
; 107  : 			&& this->_Ptr < ((_Myvec *)this->_Getcont())->_Mylast);
; 108  :  #endif /* _ITERATOR_DEBUG_LEVEL */
; 109  : 
; 110  : 		++this->_Ptr;

  00002	83 00 48	 add	 DWORD PTR [eax], 72	; 00000048H

; 111  : 		return (*this);
; 112  : 		}

  00005	c3		 ret	 0
??E?$_Vector_const_iterator@V?$_Vector_val@UEXTRAITEMSLOT@@V?$allocator@UEXTRAITEMSLOT@@@std@@@std@@@std@@QAEAAV01@XZ ENDP ; std::_Vector_const_iterator<std::_Vector_val<EXTRAITEMSLOT,std::allocator<EXTRAITEMSLOT> > >::operator++
_TEXT	ENDS
PUBLIC	??$_Unchecked@PAUInvenItemInfo@@@std@@YAPAUInvenItemInfo@@PAU1@@Z ; std::_Unchecked<InvenItemInfo *>
; Function compile flags: /Ogsp
; File c:\program files (x86)\microsoft visual studio 10.0\vc\include\xutility
;	COMDAT ??$_Unchecked@PAUInvenItemInfo@@@std@@YAPAUInvenItemInfo@@PAU1@@Z
_TEXT	SEGMENT
__Src$ = 8						; size = 4
??$_Unchecked@PAUInvenItemInfo@@@std@@YAPAUInvenItemInfo@@PAU1@@Z PROC ; std::_Unchecked<InvenItemInfo *>, COMDAT

; 266  : 	{	// construct unchecked from checked, generic

  00000	55		 push	 ebp
  00001	8b ec		 mov	 ebp, esp

; 267  : 	return (_Src);

  00003	8b 45 08	 mov	 eax, DWORD PTR __Src$[ebp]

; 268  : 	}

  00006	5d		 pop	 ebp
  00007	c3		 ret	 0
??$_Unchecked@PAUInvenItemInfo@@@std@@YAPAUInvenItemInfo@@PAU1@@Z ENDP ; std::_Unchecked<InvenItemInfo *>
_TEXT	ENDS
PUBLIC	??$_Dist_type@PAUInvenItemInfo@@@std@@YAPAHPAUInvenItemInfo@@@Z ; std::_Dist_type<InvenItemInfo *>
; Function compile flags: /Ogsp
;	COMDAT ??$_Dist_type@PAUInvenItemInfo@@@std@@YAPAHPAUInvenItemInfo@@@Z
_TEXT	SEGMENT
___formal$ = 8						; size = 4
??$_Dist_type@PAUInvenItemInfo@@@std@@YAPAHPAUInvenItemInfo@@@Z PROC ; std::_Dist_type<InvenItemInfo *>, COMDAT

; 850  : 	return (0);

  00000	33 c0		 xor	 eax, eax

; 851  : 	}

  00002	c3		 ret	 0
??$_Dist_type@PAUInvenItemInfo@@@std@@YAPAHPAUInvenItemInfo@@@Z ENDP ; std::_Dist_type<InvenItemInfo *>
_TEXT	ENDS
PUBLIC	??$_Destroy@UInvenItemInfo@@@std@@YAXPAUInvenItemInfo@@@Z ; std::_Destroy<InvenItemInfo>
; Function compile flags: /Ogsp
; File c:\program files (x86)\microsoft visual studio 10.0\vc\include\xmemory
;	COMDAT ??$_Destroy@UInvenItemInfo@@@std@@YAXPAUInvenItemInfo@@@Z
_TEXT	SEGMENT
__Ptr$ = 8						; size = 4
??$_Destroy@UInvenItemInfo@@@std@@YAXPAUInvenItemInfo@@@Z PROC ; std::_Destroy<InvenItemInfo>, COMDAT

; 63   : 	_Ptr->~_Ty();
; 64   : 	}

  00000	c3		 ret	 0
??$_Destroy@UInvenItemInfo@@@std@@YAXPAUInvenItemInfo@@@Z ENDP ; std::_Destroy<InvenItemInfo>
_TEXT	ENDS
PUBLIC	??_GEXTRAITEMSLOT@@QAEPAXI@Z			; EXTRAITEMSLOT::`scalar deleting destructor'
; Function compile flags: /Ogsp
;	COMDAT ??_GEXTRAITEMSLOT@@QAEPAXI@Z
_TEXT	SEGMENT
___flags$ = 8						; size = 4
??_GEXTRAITEMSLOT@@QAEPAXI@Z PROC			; EXTRAITEMSLOT::`scalar deleting destructor', COMDAT
; _this$ = ecx
  00000	55		 push	 ebp
  00001	8b ec		 mov	 ebp, esp
  00003	56		 push	 esi
  00004	8b f1		 mov	 esi, ecx
  00006	e8 00 00 00 00	 call	 ??1EXTRAITEMSLOT@@QAE@XZ
  0000b	f6 45 08 01	 test	 BYTE PTR ___flags$[ebp], 1
  0000f	74 07		 je	 SHORT $LN1@scalar@2
  00011	56		 push	 esi
  00012	e8 00 00 00 00	 call	 ??3@YAXPAX@Z		; operator delete
  00017	59		 pop	 ecx
$LN1@scalar@2:
  00018	8b c6		 mov	 eax, esi
  0001a	5e		 pop	 esi
  0001b	5d		 pop	 ebp
  0001c	c2 04 00	 ret	 4
??_GEXTRAITEMSLOT@@QAEPAXI@Z ENDP			; EXTRAITEMSLOT::`scalar deleting destructor'
_TEXT	ENDS
PUBLIC	??_GNewShopPullDownItem@@QAEPAXI@Z		; NewShopPullDownItem::`scalar deleting destructor'
; Function compile flags: /Ogsp
;	COMDAT ??_GNewShopPullDownItem@@QAEPAXI@Z
_TEXT	SEGMENT
___flags$ = 8						; size = 4
??_GNewShopPullDownItem@@QAEPAXI@Z PROC			; NewShopPullDownItem::`scalar deleting destructor', COMDAT
; _this$ = ecx
  00000	55		 push	 ebp
  00001	8b ec		 mov	 ebp, esp
  00003	56		 push	 esi
  00004	8b f1		 mov	 esi, ecx
  00006	e8 00 00 00 00	 call	 ??1NewShopPullDownItem@@QAE@XZ
  0000b	f6 45 08 01	 test	 BYTE PTR ___flags$[ebp], 1
  0000f	74 07		 je	 SHORT $LN1@scalar@3
  00011	56		 push	 esi
  00012	e8 00 00 00 00	 call	 ??3@YAXPAX@Z		; operator delete
  00017	59		 pop	 ecx
$LN1@scalar@3:
  00018	8b c6		 mov	 eax, esi
  0001a	5e		 pop	 esi
  0001b	5d		 pop	 ebp
  0001c	c2 04 00	 ret	 4
??_GNewShopPullDownItem@@QAEPAXI@Z ENDP			; NewShopPullDownItem::`scalar deleting destructor'
_TEXT	ENDS
PUBLIC	??$forward@AAPAUInvenItemInfo@@@std@@YAAAPAUInvenItemInfo@@AAPAU1@@Z ; std::forward<InvenItemInfo * &>
; Function compile flags: /Ogsp
; File c:\program files (x86)\microsoft visual studio 10.0\vc\include\utility
;	COMDAT ??$forward@AAPAUInvenItemInfo@@@std@@YAAAPAUInvenItemInfo@@AAPAU1@@Z
_TEXT	SEGMENT
__Arg$ = 8						; size = 4
??$forward@AAPAUInvenItemInfo@@@std@@YAAAPAUInvenItemInfo@@AAPAU1@@Z PROC ; std::forward<InvenItemInfo * &>, COMDAT

; 78   : 	{	// forward _Arg, given explicitly specified type parameter

  00000	55		 push	 ebp
  00001	8b ec		 mov	 ebp, esp

; 79   : 	return ((_Ty&&)_Arg);

  00003	8b 45 08	 mov	 eax, DWORD PTR __Arg$[ebp]

; 80   : 	}

  00006	5d		 pop	 ebp
  00007	c3		 ret	 0
??$forward@AAPAUInvenItemInfo@@@std@@YAAAPAUInvenItemInfo@@AAPAU1@@Z ENDP ; std::forward<InvenItemInfo * &>
_TEXT	ENDS
PUBLIC	??$?0AAPAUInvenItemInfo@@AAPAU0@@?$_Pair_base@PAUInvenItemInfo@@PAU1@@std@@QAE@AAPAUInvenItemInfo@@0@Z ; std::_Pair_base<InvenItemInfo *,InvenItemInfo *>::_Pair_base<InvenItemInfo *,InvenItemInfo *><InvenItemInfo * &,InvenItemInfo * &>
; Function compile flags: /Ogsp
;	COMDAT ??$?0AAPAUInvenItemInfo@@AAPAU0@@?$_Pair_base@PAUInvenItemInfo@@PAU1@@std@@QAE@AAPAUInvenItemInfo@@0@Z
_TEXT	SEGMENT
__Val1$ = 8						; size = 4
__Val2$ = 12						; size = 4
??$?0AAPAUInvenItemInfo@@AAPAU0@@?$_Pair_base@PAUInvenItemInfo@@PAU1@@std@@QAE@AAPAUInvenItemInfo@@0@Z PROC ; std::_Pair_base<InvenItemInfo *,InvenItemInfo *>::_Pair_base<InvenItemInfo *,InvenItemInfo *><InvenItemInfo * &,InvenItemInfo * &>, COMDAT
; _this$ = ecx

; 163  : 		{	// construct from moved values

  00000	55		 push	 ebp
  00001	8b ec		 mov	 ebp, esp
  00003	8b c1		 mov	 eax, ecx
  00005	8b 4d 08	 mov	 ecx, DWORD PTR __Val1$[ebp]
  00008	8b 09		 mov	 ecx, DWORD PTR [ecx]
  0000a	89 08		 mov	 DWORD PTR [eax], ecx
  0000c	8b 4d 0c	 mov	 ecx, DWORD PTR __Val2$[ebp]
  0000f	8b 09		 mov	 ecx, DWORD PTR [ecx]
  00011	89 48 04	 mov	 DWORD PTR [eax+4], ecx

; 164  : 		}

  00014	5d		 pop	 ebp
  00015	c2 08 00	 ret	 8
??$?0AAPAUInvenItemInfo@@AAPAU0@@?$_Pair_base@PAUInvenItemInfo@@PAU1@@std@@QAE@AAPAUInvenItemInfo@@0@Z ENDP ; std::_Pair_base<InvenItemInfo *,InvenItemInfo *>::_Pair_base<InvenItemInfo *,InvenItemInfo *><InvenItemInfo * &,InvenItemInfo * &>
_TEXT	ENDS
PUBLIC	??$_Move@AAUInvenItemInfo@@@std@@YA$$QAUInvenItemInfo@@AAU1@@Z ; std::_Move<InvenItemInfo &>
; Function compile flags: /Ogsp
;	COMDAT ??$_Move@AAUInvenItemInfo@@@std@@YA$$QAUInvenItemInfo@@AAU1@@Z
_TEXT	SEGMENT
__Arg$ = 8						; size = 4
??$_Move@AAUInvenItemInfo@@@std@@YA$$QAUInvenItemInfo@@AAU1@@Z PROC ; std::_Move<InvenItemInfo &>, COMDAT

; 94   : 	{	// forward _Arg as movable

  00000	55		 push	 ebp
  00001	8b ec		 mov	 ebp, esp

; 95   : 	return ((typename tr1::_Remove_reference<_Ty>::_Type&&)_Arg);

  00003	8b 45 08	 mov	 eax, DWORD PTR __Arg$[ebp]

; 96   : 	}

  00006	5d		 pop	 ebp
  00007	c3		 ret	 0
??$_Move@AAUInvenItemInfo@@@std@@YA$$QAUInvenItemInfo@@AAU1@@Z ENDP ; std::_Move<InvenItemInfo &>
_TEXT	ENDS
PUBLIC	??$forward@UEXTRAITEMSLOT@@@std@@YA$$QAUEXTRAITEMSLOT@@AAU1@@Z ; std::forward<EXTRAITEMSLOT>
; Function compile flags: /Ogsp
;	COMDAT ??$forward@UEXTRAITEMSLOT@@@std@@YA$$QAUEXTRAITEMSLOT@@AAU1@@Z
_TEXT	SEGMENT
__Arg$ = 8						; size = 4
??$forward@UEXTRAITEMSLOT@@@std@@YA$$QAUEXTRAITEMSLOT@@AAU1@@Z PROC ; std::forward<EXTRAITEMSLOT>, COMDAT

; 78   : 	{	// forward _Arg, given explicitly specified type parameter

  00000	55		 push	 ebp
  00001	8b ec		 mov	 ebp, esp

; 79   : 	return ((_Ty&&)_Arg);

  00003	8b 45 08	 mov	 eax, DWORD PTR __Arg$[ebp]

; 80   : 	}

  00006	5d		 pop	 ebp
  00007	c3		 ret	 0
??$forward@UEXTRAITEMSLOT@@@std@@YA$$QAUEXTRAITEMSLOT@@AAU1@@Z ENDP ; std::forward<EXTRAITEMSLOT>
_TEXT	ENDS
PUBLIC	??$forward@UNewShopPullDownItem@@@std@@YA$$QAUNewShopPullDownItem@@AAU1@@Z ; std::forward<NewShopPullDownItem>
; Function compile flags: /Ogsp
;	COMDAT ??$forward@UNewShopPullDownItem@@@std@@YA$$QAUNewShopPullDownItem@@AAU1@@Z
_TEXT	SEGMENT
__Arg$ = 8						; size = 4
??$forward@UNewShopPullDownItem@@@std@@YA$$QAUNewShopPullDownItem@@AAU1@@Z PROC ; std::forward<NewShopPullDownItem>, COMDAT

; 78   : 	{	// forward _Arg, given explicitly specified type parameter

  00000	55		 push	 ebp
  00001	8b ec		 mov	 ebp, esp

; 79   : 	return ((_Ty&&)_Arg);

  00003	8b 45 08	 mov	 eax, DWORD PTR __Arg$[ebp]

; 80   : 	}

  00006	5d		 pop	 ebp
  00007	c3		 ret	 0
??$forward@UNewShopPullDownItem@@@std@@YA$$QAUNewShopPullDownItem@@AAU1@@Z ENDP ; std::forward<NewShopPullDownItem>
_TEXT	ENDS
PUBLIC	??$forward@UInvenItemInfo@@@std@@YA$$QAUInvenItemInfo@@AAU1@@Z ; std::forward<InvenItemInfo>
; Function compile flags: /Ogsp
;	COMDAT ??$forward@UInvenItemInfo@@@std@@YA$$QAUInvenItemInfo@@AAU1@@Z
_TEXT	SEGMENT
__Arg$ = 8						; size = 4
??$forward@UInvenItemInfo@@@std@@YA$$QAUInvenItemInfo@@AAU1@@Z PROC ; std::forward<InvenItemInfo>, COMDAT

; 78   : 	{	// forward _Arg, given explicitly specified type parameter

  00000	55		 push	 ebp
  00001	8b ec		 mov	 ebp, esp

; 79   : 	return ((_Ty&&)_Arg);

  00003	8b 45 08	 mov	 eax, DWORD PTR __Arg$[ebp]

; 80   : 	}

  00006	5d		 pop	 ebp
  00007	c3		 ret	 0
??$forward@UInvenItemInfo@@@std@@YA$$QAUInvenItemInfo@@AAU1@@Z ENDP ; std::forward<InvenItemInfo>
_TEXT	ENDS
PUBLIC	??$_Push_heap@PAUInvenItemInfo@@HU1@VCompoundItemInfoSort1@@@std@@YAXPAUInvenItemInfo@@HH$$QAU1@VCompoundItemInfoSort1@@@Z ; std::_Push_heap<InvenItemInfo *,int,InvenItemInfo,CompoundItemInfoSort1>
; Function compile flags: /Ogsp
; File c:\program files (x86)\microsoft visual studio 10.0\vc\include\algorithm
;	COMDAT ??$_Push_heap@PAUInvenItemInfo@@HU1@VCompoundItemInfoSort1@@@std@@YAXPAUInvenItemInfo@@HH$$QAU1@VCompoundItemInfoSort1@@@Z
_TEXT	SEGMENT
__First$ = 8						; size = 4
__Hole$ = 12						; size = 4
__Top$ = 16						; size = 4
__Val$ = 20						; size = 4
__Pred$ = 24						; size = 1
??$_Push_heap@PAUInvenItemInfo@@HU1@VCompoundItemInfoSort1@@@std@@YAXPAUInvenItemInfo@@HH$$QAU1@VCompoundItemInfoSort1@@@Z PROC ; std::_Push_heap<InvenItemInfo *,int,InvenItemInfo,CompoundItemInfoSort1>, COMDAT

; 2455 : 	{	// percolate _Hole to _Top or where _Val belongs, using operator<

  00000	55		 push	 ebp
  00001	8b ec		 mov	 ebp, esp
  00003	53		 push	 ebx
  00004	56		 push	 esi
  00005	57		 push	 edi

; 2456 : 	for (_Diff _Idx = (_Hole - 1) / 2;

  00006	8b 7d 0c	 mov	 edi, DWORD PTR __Hole$[ebp]
  00009	8d 47 ff	 lea	 eax, DWORD PTR [edi-1]
  0000c	99		 cdq
  0000d	2b c2		 sub	 eax, edx
  0000f	8b d8		 mov	 ebx, eax
  00011	d1 fb		 sar	 ebx, 1
  00013	eb 2d		 jmp	 SHORT $LN13@Push_heap
$LL3@Push_heap:

; 2457 : 		_Top < _Hole && _DEBUG_LT_PRED(_Pred, *(_First + _Idx), _Val);
; 2458 : 		_Idx = (_Hole - 1) / 2)

  00015	ff 75 14	 push	 DWORD PTR __Val$[ebp]
  00018	8b f3		 mov	 esi, ebx
  0001a	6b f6 0c	 imul	 esi, 12			; 0000000cH
  0001d	03 75 08	 add	 esi, DWORD PTR __First$[ebp]
  00020	8d 4d 18	 lea	 ecx, DWORD PTR __Pred$[ebp]
  00023	56		 push	 esi
  00024	e8 00 00 00 00	 call	 ??RCompoundItemInfoSort1@@QBE_NABUInvenItemInfo@@0@Z ; CompoundItemInfoSort1::operator()
  00029	84 c0		 test	 al, al
  0002b	74 1a		 je	 SHORT $LN12@Push_heap

; 2459 : 		{	// move _Hole up to parent
; 2460 : 		*(_First + _Hole) = _Move(*(_First + _Idx));

  0002d	6b ff 0c	 imul	 edi, 12			; 0000000cH
  00030	03 7d 08	 add	 edi, DWORD PTR __First$[ebp]
  00033	8d 43 ff	 lea	 eax, DWORD PTR [ebx-1]
  00036	a5		 movsd
  00037	a5		 movsd
  00038	99		 cdq
  00039	2b c2		 sub	 eax, edx
  0003b	a5		 movsd
  0003c	d1 f8		 sar	 eax, 1

; 2461 : 		_Hole = _Idx;

  0003e	8b fb		 mov	 edi, ebx
  00040	8b d8		 mov	 ebx, eax
$LN13@Push_heap:

; 2457 : 		_Top < _Hole && _DEBUG_LT_PRED(_Pred, *(_First + _Idx), _Val);
; 2458 : 		_Idx = (_Hole - 1) / 2)

  00042	39 7d 10	 cmp	 DWORD PTR __Top$[ebp], edi
  00045	7c ce		 jl	 SHORT $LL3@Push_heap
$LN12@Push_heap:

; 2462 : 		}
; 2463 : 
; 2464 : 	*(_First + _Hole) = _Move(_Val);	// drop _Val into final hole

  00047	8b 75 14	 mov	 esi, DWORD PTR __Val$[ebp]
  0004a	6b ff 0c	 imul	 edi, 12			; 0000000cH
  0004d	03 7d 08	 add	 edi, DWORD PTR __First$[ebp]
  00050	a5		 movsd
  00051	a5		 movsd
  00052	a5		 movsd
  00053	5f		 pop	 edi
  00054	5e		 pop	 esi
  00055	5b		 pop	 ebx

; 2465 : 	}

  00056	5d		 pop	 ebp
  00057	c3		 ret	 0
??$_Push_heap@PAUInvenItemInfo@@HU1@VCompoundItemInfoSort1@@@std@@YAXPAUInvenItemInfo@@HH$$QAU1@VCompoundItemInfoSort1@@@Z ENDP ; std::_Push_heap<InvenItemInfo *,int,InvenItemInfo,CompoundItemInfoSort1>
_TEXT	ENDS
PUBLIC	??$_Move_backward@PAUInvenItemInfo@@PAU1@@std@@YAPAUInvenItemInfo@@PAU1@00U_Nonscalar_ptr_iterator_tag@0@@Z ; std::_Move_backward<InvenItemInfo *,InvenItemInfo *>
; Function compile flags: /Ogsp
; File c:\program files (x86)\microsoft visual studio 10.0\vc\include\xutility
;	COMDAT ??$_Move_backward@PAUInvenItemInfo@@PAU1@@std@@YAPAUInvenItemInfo@@PAU1@00U_Nonscalar_ptr_iterator_tag@0@@Z
_TEXT	SEGMENT
__First$ = 8						; size = 4
__Last$ = 12						; size = 4
__Dest$ = 16						; size = 4
___formal$ = 20						; size = 1
??$_Move_backward@PAUInvenItemInfo@@PAU1@@std@@YAPAUInvenItemInfo@@PAU1@00U_Nonscalar_ptr_iterator_tag@0@@Z PROC ; std::_Move_backward<InvenItemInfo *,InvenItemInfo *>, COMDAT

; 2617 : 	{	// move [_First, _Last) backwards to [..., _Dest), arbitrary iterators

  00000	55		 push	 ebp
  00001	8b ec		 mov	 ebp, esp

; 2618 : 	while (_First != _Last)

  00003	8b 45 0c	 mov	 eax, DWORD PTR __Last$[ebp]
  00006	39 45 08	 cmp	 DWORD PTR __First$[ebp], eax
  00009	74 18		 je	 SHORT $LN9@Move_backw
  0000b	56		 push	 esi
  0000c	57		 push	 edi
$LL2@Move_backw:

; 2619 : 		*--_Dest = _STD move(*--_Last);

  0000d	83 6d 10 0c	 sub	 DWORD PTR __Dest$[ebp], 12 ; 0000000cH
  00011	8b 7d 10	 mov	 edi, DWORD PTR __Dest$[ebp]
  00014	83 e8 0c	 sub	 eax, 12			; 0000000cH
  00017	8b f0		 mov	 esi, eax
  00019	a5		 movsd
  0001a	a5		 movsd
  0001b	a5		 movsd
  0001c	3b 45 08	 cmp	 eax, DWORD PTR __First$[ebp]
  0001f	75 ec		 jne	 SHORT $LL2@Move_backw
  00021	5f		 pop	 edi
  00022	5e		 pop	 esi
$LN9@Move_backw:

; 2620 : 	return (_Dest);

  00023	8b 45 10	 mov	 eax, DWORD PTR __Dest$[ebp]

; 2621 : 	}

  00026	5d		 pop	 ebp
  00027	c3		 ret	 0
??$_Move_backward@PAUInvenItemInfo@@PAU1@@std@@YAPAUInvenItemInfo@@PAU1@00U_Nonscalar_ptr_iterator_tag@0@@Z ENDP ; std::_Move_backward<InvenItemInfo *,InvenItemInfo *>
; Function compile flags: /Ogsp
; File c:\program files (x86)\microsoft sdks\windows\v7.0a\include\strsafe.h
_TEXT	ENDS
;	COMDAT ?StringValidateDestA@@YGJPBDII@Z
_TEXT	SEGMENT
_cchMax$ = 8						; size = 4
?StringValidateDestA@@YGJPBDII@Z PROC			; StringValidateDestA, COMDAT
; _cchDest$ = ecx

; 8721 : {

  00000	55		 push	 ebp
  00001	8b ec		 mov	 ebp, esp

; 8722 :     HRESULT hr = S_OK;

  00003	33 c0		 xor	 eax, eax

; 8723 : 
; 8724 :     if ((cchDest == 0) || (cchDest > cchMax))

  00005	85 c9		 test	 ecx, ecx
  00007	74 05		 je	 SHORT $LN1@StringVali
  00009	3b 4d 08	 cmp	 ecx, DWORD PTR _cchMax$[ebp]
  0000c	76 05		 jbe	 SHORT $LN2@StringVali
$LN1@StringVali:

; 8725 :     {
; 8726 :         hr = STRSAFE_E_INVALID_PARAMETER;

  0000e	b8 57 00 07 80	 mov	 eax, -2147024809	; 80070057H
$LN2@StringVali:

; 8727 :     }
; 8728 : 
; 8729 :     return hr;
; 8730 : }

  00013	5d		 pop	 ebp
  00014	c2 04 00	 ret	 4
?StringValidateDestA@@YGJPBDII@Z ENDP			; StringValidateDestA
_TEXT	ENDS
EXTRN	__imp___vsnprintf:PROC
; Function compile flags: /Ogsp
;	COMDAT ?StringVPrintfWorkerA@@YGJPADIPAIPBD0@Z
_TEXT	SEGMENT
_pcchNewDestLength$ = 8					; size = 4
_pszFormat$ = 12					; size = 4
_argList$ = 16						; size = 4
?StringVPrintfWorkerA@@YGJPADIPAIPBD0@Z PROC		; StringVPrintfWorkerA, COMDAT
; _pszDest$ = edi
; _cchDest$ = eax

; 9029 : {

  00000	55		 push	 ebp
  00001	8b ec		 mov	 ebp, esp
  00003	53		 push	 ebx
  00004	56		 push	 esi

; 9030 :     HRESULT hr = S_OK;
; 9031 :     int iRet;
; 9032 :     size_t cchMax;
; 9033 :     size_t cchNewDestLength = 0;
; 9034 : 
; 9035 :     // leave the last space for the null terminator
; 9036 :     cchMax = cchDest - 1;
; 9037 : 
; 9038 : #if (STRSAFE_USE_SECURE_CRT == 1) && !defined(STRSAFE_LIB_IMPL)
; 9039 :     iRet = _vsnprintf_s(pszDest, cchDest, cchMax, pszFormat, argList);
; 9040 : #else
; 9041 :     #pragma warning(push)
; 9042 :     #pragma warning(disable: __WARNING_BANNED_API_USAGE)// "STRSAFE not included"
; 9043 :     iRet = _vsnprintf(pszDest, cchMax, pszFormat, argList);

  00005	ff 75 10	 push	 DWORD PTR _argList$[ebp]
  00008	8d 70 ff	 lea	 esi, DWORD PTR [eax-1]
  0000b	ff 75 0c	 push	 DWORD PTR _pszFormat$[ebp]
  0000e	33 db		 xor	 ebx, ebx
  00010	56		 push	 esi
  00011	57		 push	 edi
  00012	ff 15 00 00 00
	00		 call	 DWORD PTR __imp___vsnprintf
  00018	83 c4 10	 add	 esp, 16			; 00000010H

; 9044 :     #pragma warning(pop)
; 9045 : #endif
; 9046 :     // ASSERT((iRet < 0) || (((size_t)iRet) <= cchMax));
; 9047 : 
; 9048 :     if ((iRet < 0) || (((size_t)iRet) > cchMax))

  0001b	85 c0		 test	 eax, eax
  0001d	78 0b		 js	 SHORT $LN5@StringVPri
  0001f	3b c6		 cmp	 eax, esi
  00021	77 07		 ja	 SHORT $LN5@StringVPri

; 9058 :     }
; 9059 :     else if (((size_t)iRet) == cchMax)

  00023	75 0f		 jne	 SHORT $LN2@StringVPri

; 9060 :     {
; 9061 :         // need to null terminate the string
; 9062 :         pszDest += cchMax;
; 9063 :         *pszDest = '\0';

  00025	88 1c 3e	 mov	 BYTE PTR [esi+edi], bl

; 9064 : 
; 9065 :         cchNewDestLength = cchMax;
; 9066 :     }
; 9067 :     else

  00028	eb 08		 jmp	 SHORT $LN9@StringVPri
$LN5@StringVPri:

; 9049 :     {
; 9050 :         // need to null terminate the string
; 9051 :         pszDest += cchMax;
; 9052 :         *pszDest = '\0';

  0002a	88 1c 3e	 mov	 BYTE PTR [esi+edi], bl

; 9055 : 
; 9056 :         // we have truncated pszDest
; 9057 :         hr = STRSAFE_E_INSUFFICIENT_BUFFER;

  0002d	bb 7a 00 07 80	 mov	 ebx, -2147024774	; 8007007aH
$LN9@StringVPri:

; 9053 : 
; 9054 :         cchNewDestLength = cchMax;

  00032	8b c6		 mov	 eax, esi
$LN2@StringVPri:

; 9068 :     {
; 9069 :         cchNewDestLength = (size_t)iRet;
; 9070 :     }
; 9071 : 
; 9072 :     if (pcchNewDestLength)

  00034	8b 4d 08	 mov	 ecx, DWORD PTR _pcchNewDestLength$[ebp]
  00037	85 c9		 test	 ecx, ecx
  00039	74 02		 je	 SHORT $LN1@StringVPri

; 9073 :     {
; 9074 :         *pcchNewDestLength = cchNewDestLength;

  0003b	89 01		 mov	 DWORD PTR [ecx], eax
$LN1@StringVPri:
  0003d	5e		 pop	 esi

; 9075 :     }
; 9076 : 
; 9077 :     return hr;

  0003e	8b c3		 mov	 eax, ebx
  00040	5b		 pop	 ebx

; 9078 : }

  00041	5d		 pop	 ebp
  00042	c2 0c 00	 ret	 12			; 0000000cH
?StringVPrintfWorkerA@@YGJPADIPAIPBD0@Z ENDP		; StringVPrintfWorkerA
_TEXT	ENDS
PUBLIC	??_H@YGXPAXIHP6EPAX0@Z@Z			; `vector constructor iterator'
; Function compile flags: /Ogsp
;	COMDAT ??_H@YGXPAXIHP6EPAX0@Z@Z
_TEXT	SEGMENT
___t$ = 8						; size = 4
___s$ = 12						; size = 4
___n$ = 16						; size = 4
___f$ = 20						; size = 4
??_H@YGXPAXIHP6EPAX0@Z@Z PROC				; `vector constructor iterator', COMDAT
  00000	55		 push	 ebp
  00001	8b ec		 mov	 ebp, esp
  00003	ff 4d 10	 dec	 DWORD PTR ___n$[ebp]
  00006	78 12		 js	 SHORT $LN1@vector
  00008	56		 push	 esi
  00009	8b 75 08	 mov	 esi, DWORD PTR ___t$[ebp]
$LL2@vector:
  0000c	8b ce		 mov	 ecx, esi
  0000e	ff 55 14	 call	 DWORD PTR ___f$[ebp]
  00011	03 75 0c	 add	 esi, DWORD PTR ___s$[ebp]
  00014	ff 4d 10	 dec	 DWORD PTR ___n$[ebp]
  00017	79 f3		 jns	 SHORT $LL2@vector
  00019	5e		 pop	 esi
$LN1@vector:
  0001a	5d		 pop	 ebp
  0001b	c2 10 00	 ret	 16			; 00000010H
??_H@YGXPAXIHP6EPAX0@Z@Z ENDP				; `vector constructor iterator'
_TEXT	ENDS
PUBLIC	?_DECSTR@@YAXPADH@Z				; _DECSTR
; Function compile flags: /Ogsp
; File d:\lost saga for developer\youtube\tutorial\source\src\lsclient\stringprotect.h
;	COMDAT ?_DECSTR@@YAXPADH@Z
_TEXT	SEGMENT
_s$ = 8							; size = 4
_l$ = 12						; size = 4
?_DECSTR@@YAXPADH@Z PROC				; _DECSTR, COMDAT

; 40   : __forceinline void _DECSTR(char* s, int l){int i=0,l4=(l-1)/4,*p=(int*)s;s[l-1]=0;for(;i<l4;++i)*(p++)^=0xEAEBECED;for(i=l4*4;i<l-1;++i)s[i]^=0xED-i%4;}

  00000	55		 push	 ebp
  00001	8b ec		 mov	 ebp, esp
  00003	8b 4d 0c	 mov	 ecx, DWORD PTR _l$[ebp]
  00006	56		 push	 esi
  00007	8b 75 08	 mov	 esi, DWORD PTR _s$[ebp]
  0000a	57		 push	 edi
  0000b	8d 79 ff	 lea	 edi, DWORD PTR [ecx-1]
  0000e	8b c7		 mov	 eax, edi
  00010	99		 cdq
  00011	83 e2 03	 and	 edx, 3
  00014	03 c2		 add	 eax, edx
  00016	c1 f8 02	 sar	 eax, 2
  00019	8b d6		 mov	 edx, esi
  0001b	c6 44 0e ff 00	 mov	 BYTE PTR [esi+ecx-1], 0
  00020	85 c0		 test	 eax, eax
  00022	7e 0e		 jle	 SHORT $LN4@DECSTR
  00024	8b c8		 mov	 ecx, eax
$LL6@DECSTR:
  00026	81 32 ed ec eb
	ea		 xor	 DWORD PTR [edx], -353637139 ; eaebecedH
  0002c	83 c2 04	 add	 edx, 4
  0002f	49		 dec	 ecx
  00030	75 f4		 jne	 SHORT $LL6@DECSTR
$LN4@DECSTR:
  00032	c1 e0 02	 shl	 eax, 2
  00035	eb 17		 jmp	 SHORT $LN14@DECSTR
$LL3@DECSTR:
  00037	8b c8		 mov	 ecx, eax
  00039	81 e1 03 00 00
	80		 and	 ecx, -2147483645	; 80000003H
  0003f	79 05		 jns	 SHORT $LN13@DECSTR
  00041	49		 dec	 ecx
  00042	83 c9 fc	 or	 ecx, -4			; fffffffcH
  00045	41		 inc	 ecx
$LN13@DECSTR:
  00046	b2 ed		 mov	 dl, -19			; ffffffedH
  00048	2a d1		 sub	 dl, cl
  0004a	30 14 30	 xor	 BYTE PTR [eax+esi], dl
  0004d	40		 inc	 eax
$LN14@DECSTR:
  0004e	3b c7		 cmp	 eax, edi
  00050	7c e5		 jl	 SHORT $LL3@DECSTR
  00052	5f		 pop	 edi
  00053	5e		 pop	 esi
  00054	5d		 pop	 ebp
  00055	c3		 ret	 0
?_DECSTR@@YAXPADH@Z ENDP				; _DECSTR
_TEXT	ENDS
PUBLIC	?GetGradeType@ioItem@@QBEHXZ			; ioItem::GetGradeType
; Function compile flags: /Ogsp
; File d:\lost saga for developer\youtube\tutorial\source\src\lsclient\ioitem.h
;	COMDAT ?GetGradeType@ioItem@@QBEHXZ
_TEXT	SEGMENT
?GetGradeType@ioItem@@QBEHXZ PROC			; ioItem::GetGradeType, COMDAT
; _this$ = ecx

; 445  : 	inline int GetGradeType() const { return m_nGradeType; }

  00000	8b 81 20 06 00
	00		 mov	 eax, DWORD PTR [ecx+1568]
  00006	c3		 ret	 0
?GetGradeType@ioItem@@QBEHXZ ENDP			; ioItem::GetGradeType
_TEXT	ENDS
PUBLIC	?Init@EXTRAITEMSLOT@@QAEXXZ			; EXTRAITEMSLOT::Init
; Function compile flags: /Ogsp
; File d:\lost saga for developer\youtube\tutorial\source\src\lsclient\iouserextraitem.h
;	COMDAT ?Init@EXTRAITEMSLOT@@QAEXXZ
_TEXT	SEGMENT
?Init@EXTRAITEMSLOT@@QAEXXZ PROC			; EXTRAITEMSLOT::Init, COMDAT
; _this$ = ecx

; 50   : 		m_iItemCode = 0;

  00000	33 c0		 xor	 eax, eax

; 51   : 		m_iReinforce = 0;
; 52   : 		m_iIndex = 0;
; 53   : 
; 54   : 		m_PeriodType = EPT_TIME;
; 55   : 		m_iValue1 = 0;
; 56   : 		m_iValue2 = 0;
; 57   : 
; 58   : 		m_iTradeState = EET_DISABLE;
; 59   : 	
; 60   : 		m_dwMaleCustom = 0;
; 61   : 		m_dwFemaleCustom = 0;
; 62   : 		m_failExp = 0;

  00002	33 d2		 xor	 edx, edx
  00004	89 01		 mov	 DWORD PTR [ecx], eax
  00006	89 41 04	 mov	 DWORD PTR [ecx+4], eax
  00009	89 41 08	 mov	 DWORD PTR [ecx+8], eax
  0000c	89 41 0c	 mov	 DWORD PTR [ecx+12], eax
  0000f	89 41 10	 mov	 DWORD PTR [ecx+16], eax
  00012	89 41 14	 mov	 DWORD PTR [ecx+20], eax
  00015	89 41 18	 mov	 DWORD PTR [ecx+24], eax
  00018	89 41 1c	 mov	 DWORD PTR [ecx+28], eax
  0001b	89 41 20	 mov	 DWORD PTR [ecx+32], eax
  0001e	66 89 51 24	 mov	 WORD PTR [ecx+36], dx

; 63   : 
; 64   : 		m_bCharEquip = false;

  00022	88 41 26	 mov	 BYTE PTR [ecx+38], al

; 65   : 	}

  00025	c3		 ret	 0
?Init@EXTRAITEMSLOT@@QAEXXZ ENDP			; EXTRAITEMSLOT::Init
_TEXT	ENDS
PUBLIC	?GetInventorySubManual@ioEtcItem@@QBEHXZ	; ioEtcItem::GetInventorySubManual
; Function compile flags: /Ogsp
; File d:\lost saga for developer\youtube\tutorial\source\src\lsclient\ioetcitem.h
;	COMDAT ?GetInventorySubManual@ioEtcItem@@QBEHXZ
_TEXT	SEGMENT
?GetInventorySubManual@ioEtcItem@@QBEHXZ PROC		; ioEtcItem::GetInventorySubManual, COMDAT
; _this$ = ecx

; 435  : 	inline int     GetInventorySubManual() const { return m_iInventorySubManual; }

  00000	8b 41 4c	 mov	 eax, DWORD PTR [ecx+76]
  00003	c3		 ret	 0
?GetInventorySubManual@ioEtcItem@@QBEHXZ ENDP		; ioEtcItem::GetInventorySubManual
_TEXT	ENDS
PUBLIC	??0NewShopPullDownItem@@QAE@XZ			; NewShopPullDownItem::NewShopPullDownItem
EXTRN	__imp_??0ioHashString@@QAE@XZ:PROC
;	COMDAT xdata$x
; File d:\lost saga for developer\youtube\tutorial\source\src\lsclient\gui\newshopbuywnd.h
xdata$x	SEGMENT
__unwindtable$??0NewShopPullDownItem@@QAE@XZ DD 0ffffffffH
	DD	FLAT:__unwindfunclet$??0NewShopPullDownItem@@QAE@XZ$0
	DD	00H
	DD	FLAT:__unwindfunclet$??0NewShopPullDownItem@@QAE@XZ$1
__ehfuncinfo$??0NewShopPullDownItem@@QAE@XZ DD 019930522H
	DD	02H
	DD	FLAT:__unwindtable$??0NewShopPullDownItem@@QAE@XZ
	DD	2 DUP(00H)
	DD	2 DUP(00H)
	DD	00H
	DD	01H
; Function compile flags: /Ogsp
xdata$x	ENDS
;	COMDAT ??0NewShopPullDownItem@@QAE@XZ
_TEXT	SEGMENT
_this$ = -16						; size = 4
__$EHRec$ = -12						; size = 12
??0NewShopPullDownItem@@QAE@XZ PROC			; NewShopPullDownItem::NewShopPullDownItem, COMDAT
; _this$ = ecx

; 25   : 	NewShopPullDownItem()

  00000	6a 04		 push	 4
  00002	b8 00 00 00 00	 mov	 eax, __ehhandler$??0NewShopPullDownItem@@QAE@XZ
  00007	e8 00 00 00 00	 call	 __EH_prolog3
  0000c	8b f1		 mov	 esi, ecx
  0000e	89 75 f0	 mov	 DWORD PTR _this$[ebp], esi
  00011	8b 3d 00 00 00
	00		 mov	 edi, DWORD PTR __imp_??0ioHashString@@QAE@XZ
  00017	ff d7		 call	 edi
  00019	33 db		 xor	 ebx, ebx
  0001b	8d 4e 24	 lea	 ecx, DWORD PTR [esi+36]
  0001e	89 5d fc	 mov	 DWORD PTR __$EHRec$[ebp+8], ebx
  00021	ff d7		 call	 edi
  00023	8d 4e 3c	 lea	 ecx, DWORD PTR [esi+60]
  00026	c6 45 fc 01	 mov	 BYTE PTR __$EHRec$[ebp+8], 1
  0002a	ff d7		 call	 edi

; 26   : 	{
; 27   : 		m_iMagicCode = 0;

  0002c	89 5e 10	 mov	 DWORD PTR [esi+16], ebx

; 28   : 		m_dwTextColor= 0; 

  0002f	89 5e 14	 mov	 DWORD PTR [esi+20], ebx

; 29   : 		m_bGrowthCatalystItem = false;

  00032	88 5e 18	 mov	 BYTE PTR [esi+24], bl

; 30   : 		m_iGrowthCatalystLevel = 0;

  00035	89 5e 1c	 mov	 DWORD PTR [esi+28], ebx

; 31   : 		m_bCount = false;

  00038	88 5e 20	 mov	 BYTE PTR [esi+32], bl

; 32   : 		m_dwCntTextColor = 0;

  0003b	89 5e 34	 mov	 DWORD PTR [esi+52], ebx

; 33   : 		m_bPetLevel = false;

  0003e	88 5e 38	 mov	 BYTE PTR [esi+56], bl

; 34   : 		m_dwPetLevelTextColor = 0;

  00041	89 5e 4c	 mov	 DWORD PTR [esi+76], ebx

; 35   : 	}

  00044	8b c6		 mov	 eax, esi
  00046	e8 00 00 00 00	 call	 __EH_epilog3
  0004b	c3		 ret	 0
_TEXT	ENDS
;	COMDAT text$x
text$x	SEGMENT
__unwindfunclet$??0NewShopPullDownItem@@QAE@XZ$0:
  00000	8b 4d f0	 mov	 ecx, DWORD PTR _this$[ebp]
  00003	ff 25 00 00 00
	00		 jmp	 DWORD PTR __imp_??1ioHashString@@QAE@XZ
__unwindfunclet$??0NewShopPullDownItem@@QAE@XZ$1:
  00009	8b 4d f0	 mov	 ecx, DWORD PTR _this$[ebp]
  0000c	83 c1 24	 add	 ecx, 36			; 00000024H
  0000f	ff 25 00 00 00
	00		 jmp	 DWORD PTR __imp_??1ioHashString@@QAE@XZ
__ehhandler$??0NewShopPullDownItem@@QAE@XZ:
  00015	8b 54 24 08	 mov	 edx, DWORD PTR [esp+8]
  00019	8d 42 0c	 lea	 eax, DWORD PTR [edx+12]
  0001c	8b 4a ec	 mov	 ecx, DWORD PTR [edx-20]
  0001f	33 c8		 xor	 ecx, eax
  00021	e8 00 00 00 00	 call	 @__security_check_cookie@4
  00026	b8 00 00 00 00	 mov	 eax, OFFSET __ehfuncinfo$??0NewShopPullDownItem@@QAE@XZ
  0002b	e9 00 00 00 00	 jmp	 ___CxxFrameHandler3
text$x	ENDS
??0NewShopPullDownItem@@QAE@XZ ENDP			; NewShopPullDownItem::NewShopPullDownItem
PUBLIC	?GetOpenBtn@NewShopPullDownWnd@@QAEPAVioWnd@@XZ	; NewShopPullDownWnd::GetOpenBtn
; Function compile flags: /Ogsp
;	COMDAT ?GetOpenBtn@NewShopPullDownWnd@@QAEPAVioWnd@@XZ
_TEXT	SEGMENT
?GetOpenBtn@NewShopPullDownWnd@@QAEPAVioWnd@@XZ PROC	; NewShopPullDownWnd::GetOpenBtn, COMDAT
; _this$ = ecx

; 77   : 	ioWnd *GetOpenBtn(){ return m_pOpenBtn; }

  00000	8b 81 98 01 00
	00		 mov	 eax, DWORD PTR [ecx+408]
  00006	c3		 ret	 0
?GetOpenBtn@NewShopPullDownWnd@@QAEPAVioWnd@@XZ ENDP	; NewShopPullDownWnd::GetOpenBtn
_TEXT	ENDS
PUBLIC	?SetMarkType@InventoryIconBtn@@QAEXH@Z		; InventoryIconBtn::SetMarkType
; Function compile flags: /Ogsp
; File d:\lost saga for developer\youtube\tutorial\source\src\lsclient\gui\myinventorywnd.h
;	COMDAT ?SetMarkType@InventoryIconBtn@@QAEXH@Z
_TEXT	SEGMENT
_iMarkType$ = 8						; size = 4
?SetMarkType@InventoryIconBtn@@QAEXH@Z PROC		; InventoryIconBtn::SetMarkType, COMDAT
; _this$ = ecx

; 551  : 	void SetMarkType( int iMarkType ) { m_iMarkType = iMarkType; } 

  00000	55		 push	 ebp
  00001	8b ec		 mov	 ebp, esp
  00003	8b 45 08	 mov	 eax, DWORD PTR _iMarkType$[ebp]
  00006	89 81 3c 02 00
	00		 mov	 DWORD PTR [ecx+572], eax
  0000c	5d		 pop	 ebp
  0000d	c2 04 00	 ret	 4
?SetMarkType@InventoryIconBtn@@QAEXH@Z ENDP		; InventoryIconBtn::SetMarkType
_TEXT	ENDS
PUBLIC	?SetGradeType@InventoryIconBtn@@QAEXH@Z		; InventoryIconBtn::SetGradeType
; Function compile flags: /Ogsp
;	COMDAT ?SetGradeType@InventoryIconBtn@@QAEXH@Z
_TEXT	SEGMENT
_nGradeType$ = 8					; size = 4
?SetGradeType@InventoryIconBtn@@QAEXH@Z PROC		; InventoryIconBtn::SetGradeType, COMDAT
; _this$ = ecx

; 555  : 	void SetGradeType( int nGradeType ){ m_nGradeType = nGradeType; }

  00000	55		 push	 ebp
  00001	8b ec		 mov	 ebp, esp
  00003	8b 45 08	 mov	 eax, DWORD PTR _nGradeType$[ebp]
  00006	89 81 84 02 00
	00		 mov	 DWORD PTR [ecx+644], eax
  0000c	5d		 pop	 ebp
  0000d	c2 04 00	 ret	 4
?SetGradeType@InventoryIconBtn@@QAEXH@Z ENDP		; InventoryIconBtn::SetGradeType
_TEXT	ENDS
PUBLIC	?GetUserExtraItem@ioMyInfo@@QAEPAVioUserExtraItem@@XZ ; ioMyInfo::GetUserExtraItem
; Function compile flags: /Ogsp
; File d:\lost saga for developer\youtube\tutorial\source\src\lsclient\iomyinfo.h
;	COMDAT ?GetUserExtraItem@ioMyInfo@@QAEPAVioUserExtraItem@@XZ
_TEXT	SEGMENT
?GetUserExtraItem@ioMyInfo@@QAEPAVioUserExtraItem@@XZ PROC ; ioMyInfo::GetUserExtraItem, COMDAT
; _this$ = ecx

; 636  : 	ioUserExtraItem* GetUserExtraItem() { return &m_UserExtraItem; }

  00000	8d 81 ac 01 00
	00		 lea	 eax, DWORD PTR [ecx+428]
  00006	c3		 ret	 0
?GetUserExtraItem@ioMyInfo@@QAEPAVioUserExtraItem@@XZ ENDP ; ioMyInfo::GetUserExtraItem
_TEXT	ENDS
EXTRN	__imp_??0exception@std@@QAE@ABV01@@Z:PROC
; Function compile flags: /Ogsp
;	COMDAT ??0bad_alloc@std@@QAE@ABV01@@Z
_TEXT	SEGMENT
___that$ = 8						; size = 4
??0bad_alloc@std@@QAE@ABV01@@Z PROC			; std::bad_alloc::bad_alloc, COMDAT
; _this$ = ecx
  00000	55		 push	 ebp
  00001	8b ec		 mov	 ebp, esp
  00003	56		 push	 esi
  00004	ff 75 08	 push	 DWORD PTR ___that$[ebp]
  00007	8b f1		 mov	 esi, ecx
  00009	ff 15 00 00 00
	00		 call	 DWORD PTR __imp_??0exception@std@@QAE@ABV01@@Z
  0000f	c7 06 00 00 00
	00		 mov	 DWORD PTR [esi], OFFSET ??_7bad_alloc@std@@6B@
  00015	8b c6		 mov	 eax, esi
  00017	5e		 pop	 esi
  00018	5d		 pop	 ebp
  00019	c2 04 00	 ret	 4
??0bad_alloc@std@@QAE@ABV01@@Z ENDP			; std::bad_alloc::bad_alloc
_TEXT	ENDS
PUBLIC	__real@434c0000
PUBLIC	?PrintManual@ItemMultipleCompoundWnd@@IAEXHHM@Z	; ItemMultipleCompoundWnd::PrintManual
EXTRN	??1ioComplexStringPrinter@@QAE@XZ:PROC		; ioComplexStringPrinter::~ioComplexStringPrinter
EXTRN	?ClearList@ioComplexStringPrinter@@QAEXXZ:PROC	; ioComplexStringPrinter::ClearList
EXTRN	?PrintFullTextWidthCut@ioComplexStringPrinter@@QAEXMMW4TextAlignType@@ME@Z:PROC ; ioComplexStringPrinter::PrintFullTextWidthCut
EXTRN	??0ioComplexStringPrinter@@QAE@XZ:PROC		; ioComplexStringPrinter::ioComplexStringPrinter
EXTRN	?FindEtcItem@ioEtcItemManager@@QAEPAVioEtcItem@@K@Z:PROC ; ioEtcItemManager::FindEtcItem
EXTRN	__fltused:DWORD
;	COMDAT __real@434c0000
; File d:\lost saga for developer\youtube\tutorial\source\src\lsclient\ioetcitem.h
CONST	SEGMENT
__real@434c0000 DD 0434c0000r			; 204
CONST	ENDS
;	COMDAT xdata$x
xdata$x	SEGMENT
__unwindtable$?PrintManual@ItemMultipleCompoundWnd@@IAEXHHM@Z DD 0ffffffffH
	DD	FLAT:__unwindfunclet$?PrintManual@ItemMultipleCompoundWnd@@IAEXHHM@Z$0
__ehfuncinfo$?PrintManual@ItemMultipleCompoundWnd@@IAEXHHM@Z DD 019930522H
	DD	01H
	DD	FLAT:__unwindtable$?PrintManual@ItemMultipleCompoundWnd@@IAEXHHM@Z
	DD	2 DUP(00H)
	DD	2 DUP(00H)
	DD	00H
	DD	01H
; Function compile flags: /Ogsp
; File d:\lost saga for developer\youtube\tutorial\source\src\lsclient\gui\itemmultiplecompoundwnd.cpp
xdata$x	ENDS
;	COMDAT ?PrintManual@ItemMultipleCompoundWnd@@IAEXHHM@Z
_TEXT	SEGMENT
_kPrinter$ = -48					; size = 32
_iMaxLine$ = -16					; size = 4
__$EHRec$ = -12						; size = 12
tv196 = 8						; size = 4
_a_iXPos$ = 8						; size = 4
_a_iYPos$ = 12						; size = 4
_fScale$ = 16						; size = 4
?PrintManual@ItemMultipleCompoundWnd@@IAEXHHM@Z PROC	; ItemMultipleCompoundWnd::PrintManual, COMDAT
; _this$ = ecx

; 732  : {

  00000	6a 24		 push	 36			; 00000024H
  00002	b8 00 00 00 00	 mov	 eax, __ehhandler$?PrintManual@ItemMultipleCompoundWnd@@IAEXHHM@Z
  00007	e8 00 00 00 00	 call	 __EH_prolog3
  0000c	8b f1		 mov	 esi, ecx

; 733  : 	if( !m_pManual )

  0000e	83 be 7c 01 00
	00 00		 cmp	 DWORD PTR [esi+380], 0
  00015	0f 84 c9 00 00
	00		 je	 $LN6@PrintManua

; 734  : 		return;
; 735  : 
; 736  : 	ioEtcItem *pItem = NULL;
; 737  : 
; 738  : 	pItem = g_EtcItemMgr.FindEtcItem( m_dwEtcItemType );

  0001b	ff b6 60 01 00
	00		 push	 DWORD PTR [esi+352]
  00021	8b 0d 00 00 00
	00		 mov	 ecx, DWORD PTR ?ms_Singleton@?$Singleton@VioEtcItemManager@@@@1PAVioEtcItemManager@@A ; Singleton<ioEtcItemManager>::ms_Singleton
  00027	e8 00 00 00 00	 call	 ?FindEtcItem@ioEtcItemManager@@QAEPAVioEtcItem@@K@Z ; ioEtcItemManager::FindEtcItem

; 739  : 
; 740  : 	if( !pItem ) return;

  0002c	85 c0		 test	 eax, eax
  0002e	0f 84 b0 00 00
	00		 je	 $LN6@PrintManua

; 741  : 
; 742  : 	int iSubManual = pItem->GetInventorySubManual() - 1;

  00034	8b 78 4c	 mov	 edi, DWORD PTR [eax+76]

; 743  : 	ioComplexStringPrinter kPrinter;

  00037	8d 4d d0	 lea	 ecx, DWORD PTR _kPrinter$[ebp]
  0003a	4f		 dec	 edi
  0003b	e8 00 00 00 00	 call	 ??0ioComplexStringPrinter@@QAE@XZ ; ioComplexStringPrinter::ioComplexStringPrinter

; 744  : 	int iMaxLine = m_pManual->GetMaxLine( iSubManual );

  00040	8b 8e 7c 01 00
	00		 mov	 ecx, DWORD PTR [esi+380]
  00046	8b 01		 mov	 eax, DWORD PTR [ecx]
  00048	83 65 fc 00	 and	 DWORD PTR __$EHRec$[ebp+8], 0
  0004c	57		 push	 edi
  0004d	ff 50 08	 call	 DWORD PTR [eax+8]

; 745  : 	for(int iLine = 1; iLine < iMaxLine; iLine++)

  00050	33 db		 xor	 ebx, ebx
  00052	43		 inc	 ebx
  00053	89 45 f0	 mov	 DWORD PTR _iMaxLine$[ebp], eax
  00056	3b c3		 cmp	 eax, ebx
  00058	7e 7e		 jle	 SHORT $LN1@PrintManua
  0005a	66 0f 6e 45 08	 movd	 xmm0, DWORD PTR _a_iXPos$[ebp]
  0005f	0f 5b c0	 cvtdq2ps xmm0, xmm0
  00062	f3 0f 11 45 08	 movss	 DWORD PTR tv196[ebp], xmm0
$LL3@PrintManua:

; 746  : 	{
; 747  : 		m_pManual->SetPrinter( iSubManual, iLine, fScale, kPrinter);

  00067	8b 8e 7c 01 00
	00		 mov	 ecx, DWORD PTR [esi+380]
  0006d	f3 0f 10 45 10	 movss	 xmm0, DWORD PTR _fScale$[ebp]
  00072	8b 01		 mov	 eax, DWORD PTR [ecx]
  00074	8d 55 d0	 lea	 edx, DWORD PTR _kPrinter$[ebp]
  00077	52		 push	 edx
  00078	51		 push	 ecx
  00079	f3 0f 11 04 24	 movss	 DWORD PTR [esp], xmm0
  0007e	53		 push	 ebx
  0007f	57		 push	 edi
  00080	ff 50 10	 call	 DWORD PTR [eax+16]

; 748  : 		a_iYPos += m_pManual->GetSpaceLine( iSubManual, iLine);

  00083	8b 8e 7c 01 00
	00		 mov	 ecx, DWORD PTR [esi+380]
  00089	8b 01		 mov	 eax, DWORD PTR [ecx]
  0008b	53		 push	 ebx
  0008c	57		 push	 edi
  0008d	ff 50 0c	 call	 DWORD PTR [eax+12]

; 749  : 		kPrinter.PrintFullTextWidthCut( a_iXPos, a_iYPos, TAT_LEFT, DESC_WIDTH );

  00090	f3 0f 10 05 00
	00 00 00	 movss	 xmm0, DWORD PTR __real@434c0000
  00098	01 45 0c	 add	 DWORD PTR _a_iYPos$[ebp], eax
  0009b	68 ff 00 00 00	 push	 255			; 000000ffH
  000a0	51		 push	 ecx
  000a1	f3 0f 11 04 24	 movss	 DWORD PTR [esp], xmm0
  000a6	66 0f 6e 45 0c	 movd	 xmm0, DWORD PTR _a_iYPos$[ebp]
  000ab	6a 00		 push	 0
  000ad	51		 push	 ecx
  000ae	51		 push	 ecx
  000af	0f 5b c0	 cvtdq2ps xmm0, xmm0
  000b2	f3 0f 11 44 24
	04		 movss	 DWORD PTR [esp+4], xmm0
  000b8	f3 0f 10 45 08	 movss	 xmm0, DWORD PTR tv196[ebp]
  000bd	8d 4d d0	 lea	 ecx, DWORD PTR _kPrinter$[ebp]
  000c0	f3 0f 11 04 24	 movss	 DWORD PTR [esp], xmm0
  000c5	e8 00 00 00 00	 call	 ?PrintFullTextWidthCut@ioComplexStringPrinter@@QAEXMMW4TextAlignType@@ME@Z ; ioComplexStringPrinter::PrintFullTextWidthCut

; 750  : 		kPrinter.ClearList();

  000ca	8d 4d d0	 lea	 ecx, DWORD PTR _kPrinter$[ebp]
  000cd	e8 00 00 00 00	 call	 ?ClearList@ioComplexStringPrinter@@QAEXXZ ; ioComplexStringPrinter::ClearList
  000d2	43		 inc	 ebx
  000d3	3b 5d f0	 cmp	 ebx, DWORD PTR _iMaxLine$[ebp]
  000d6	7c 8f		 jl	 SHORT $LL3@PrintManua
$LN1@PrintManua:

; 751  : 	}
; 752  : }

  000d8	83 4d fc ff	 or	 DWORD PTR __$EHRec$[ebp+8], -1
  000dc	8d 4d d0	 lea	 ecx, DWORD PTR _kPrinter$[ebp]
  000df	e8 00 00 00 00	 call	 ??1ioComplexStringPrinter@@QAE@XZ ; ioComplexStringPrinter::~ioComplexStringPrinter
$LN6@PrintManua:
  000e4	e8 00 00 00 00	 call	 __EH_epilog3
  000e9	c2 0c 00	 ret	 12			; 0000000cH
_TEXT	ENDS
;	COMDAT text$x
text$x	SEGMENT
__unwindfunclet$?PrintManual@ItemMultipleCompoundWnd@@IAEXHHM@Z$0:
  00000	8d 4d d0	 lea	 ecx, DWORD PTR _kPrinter$[ebp]
  00003	e9 00 00 00 00	 jmp	 ??1ioComplexStringPrinter@@QAE@XZ ; ioComplexStringPrinter::~ioComplexStringPrinter
__ehhandler$?PrintManual@ItemMultipleCompoundWnd@@IAEXHHM@Z:
  00008	8b 54 24 08	 mov	 edx, DWORD PTR [esp+8]
  0000c	8d 42 0c	 lea	 eax, DWORD PTR [edx+12]
  0000f	8b 4a cc	 mov	 ecx, DWORD PTR [edx-52]
  00012	33 c8		 xor	 ecx, eax
  00014	e8 00 00 00 00	 call	 @__security_check_cookie@4
  00019	b8 00 00 00 00	 mov	 eax, OFFSET __ehfuncinfo$?PrintManual@ItemMultipleCompoundWnd@@IAEXHHM@Z
  0001e	e9 00 00 00 00	 jmp	 ___CxxFrameHandler3
text$x	ENDS
?PrintManual@ItemMultipleCompoundWnd@@IAEXHHM@Z ENDP	; ItemMultipleCompoundWnd::PrintManual
PUBLIC	?begin@?$vector@UEXTRAITEMSLOT@@V?$allocator@UEXTRAITEMSLOT@@@std@@@std@@QAE?AV?$_Vector_iterator@V?$_Vector_val@UEXTRAITEMSLOT@@V?$allocator@UEXTRAITEMSLOT@@@std@@@std@@@2@XZ ; std::vector<EXTRAITEMSLOT,std::allocator<EXTRAITEMSLOT> >::begin
; Function compile flags: /Ogsp
; File c:\program files (x86)\microsoft visual studio 10.0\vc\include\vector
;	COMDAT ?begin@?$vector@UEXTRAITEMSLOT@@V?$allocator@UEXTRAITEMSLOT@@@std@@@std@@QAE?AV?$_Vector_iterator@V?$_Vector_val@UEXTRAITEMSLOT@@V?$allocator@UEXTRAITEMSLOT@@@std@@@std@@@2@XZ
_TEXT	SEGMENT
___$ReturnUdt$ = 8					; size = 4
?begin@?$vector@UEXTRAITEMSLOT@@V?$allocator@UEXTRAITEMSLOT@@@std@@@std@@QAE?AV?$_Vector_iterator@V?$_Vector_val@UEXTRAITEMSLOT@@V?$allocator@UEXTRAITEMSLOT@@@std@@@std@@@2@XZ PROC ; std::vector<EXTRAITEMSLOT,std::allocator<EXTRAITEMSLOT> >::begin, COMDAT
; _this$ = ecx

; 781  : 		{	// return iterator for beginning of mutable sequence

  00000	55		 push	 ebp
  00001	8b ec		 mov	 ebp, esp

; 782  : 		return (iterator(this->_Myfirst, this));

  00003	8b 09		 mov	 ecx, DWORD PTR [ecx]
  00005	8b 45 08	 mov	 eax, DWORD PTR ___$ReturnUdt$[ebp]
  00008	89 08		 mov	 DWORD PTR [eax], ecx

; 783  : 		}

  0000a	5d		 pop	 ebp
  0000b	c2 04 00	 ret	 4
?begin@?$vector@UEXTRAITEMSLOT@@V?$allocator@UEXTRAITEMSLOT@@@std@@@std@@QAE?AV?$_Vector_iterator@V?$_Vector_val@UEXTRAITEMSLOT@@V?$allocator@UEXTRAITEMSLOT@@@std@@@std@@@2@XZ ENDP ; std::vector<EXTRAITEMSLOT,std::allocator<EXTRAITEMSLOT> >::begin
_TEXT	ENDS
PUBLIC	?begin@?$vector@UEXTRAITEMSLOT@@V?$allocator@UEXTRAITEMSLOT@@@std@@@std@@QBE?AV?$_Vector_const_iterator@V?$_Vector_val@UEXTRAITEMSLOT@@V?$allocator@UEXTRAITEMSLOT@@@std@@@std@@@2@XZ ; std::vector<EXTRAITEMSLOT,std::allocator<EXTRAITEMSLOT> >::begin
; Function compile flags: /Ogsp
;	COMDAT ?begin@?$vector@UEXTRAITEMSLOT@@V?$allocator@UEXTRAITEMSLOT@@@std@@@std@@QBE?AV?$_Vector_const_iterator@V?$_Vector_val@UEXTRAITEMSLOT@@V?$allocator@UEXTRAITEMSLOT@@@std@@@std@@@2@XZ
_TEXT	SEGMENT
___$ReturnUdt$ = 8					; size = 4
?begin@?$vector@UEXTRAITEMSLOT@@V?$allocator@UEXTRAITEMSLOT@@@std@@@std@@QBE?AV?$_Vector_const_iterator@V?$_Vector_val@UEXTRAITEMSLOT@@V?$allocator@UEXTRAITEMSLOT@@@std@@@std@@@2@XZ PROC ; std::vector<EXTRAITEMSLOT,std::allocator<EXTRAITEMSLOT> >::begin, COMDAT
; _this$ = ecx

; 786  : 		{	// return iterator for beginning of nonmutable sequence

  00000	55		 push	 ebp
  00001	8b ec		 mov	 ebp, esp

; 787  : 		return (const_iterator(this->_Myfirst, this));

  00003	8b 09		 mov	 ecx, DWORD PTR [ecx]
  00005	8b 45 08	 mov	 eax, DWORD PTR ___$ReturnUdt$[ebp]
  00008	89 08		 mov	 DWORD PTR [eax], ecx

; 788  : 		}

  0000a	5d		 pop	 ebp
  0000b	c2 04 00	 ret	 4
?begin@?$vector@UEXTRAITEMSLOT@@V?$allocator@UEXTRAITEMSLOT@@@std@@@std@@QBE?AV?$_Vector_const_iterator@V?$_Vector_val@UEXTRAITEMSLOT@@V?$allocator@UEXTRAITEMSLOT@@@std@@@std@@@2@XZ ENDP ; std::vector<EXTRAITEMSLOT,std::allocator<EXTRAITEMSLOT> >::begin
_TEXT	ENDS
PUBLIC	?end@?$vector@UEXTRAITEMSLOT@@V?$allocator@UEXTRAITEMSLOT@@@std@@@std@@QAE?AV?$_Vector_iterator@V?$_Vector_val@UEXTRAITEMSLOT@@V?$allocator@UEXTRAITEMSLOT@@@std@@@std@@@2@XZ ; std::vector<EXTRAITEMSLOT,std::allocator<EXTRAITEMSLOT> >::end
; Function compile flags: /Ogsp
;	COMDAT ?end@?$vector@UEXTRAITEMSLOT@@V?$allocator@UEXTRAITEMSLOT@@@std@@@std@@QAE?AV?$_Vector_iterator@V?$_Vector_val@UEXTRAITEMSLOT@@V?$allocator@UEXTRAITEMSLOT@@@std@@@std@@@2@XZ
_TEXT	SEGMENT
___$ReturnUdt$ = 8					; size = 4
?end@?$vector@UEXTRAITEMSLOT@@V?$allocator@UEXTRAITEMSLOT@@@std@@@std@@QAE?AV?$_Vector_iterator@V?$_Vector_val@UEXTRAITEMSLOT@@V?$allocator@UEXTRAITEMSLOT@@@std@@@std@@@2@XZ PROC ; std::vector<EXTRAITEMSLOT,std::allocator<EXTRAITEMSLOT> >::end, COMDAT
; _this$ = ecx

; 791  : 		{	// return iterator for end of mutable sequence

  00000	55		 push	 ebp
  00001	8b ec		 mov	 ebp, esp

; 792  : 		return (iterator(this->_Mylast, this));

  00003	8b 49 04	 mov	 ecx, DWORD PTR [ecx+4]
  00006	8b 45 08	 mov	 eax, DWORD PTR ___$ReturnUdt$[ebp]
  00009	89 08		 mov	 DWORD PTR [eax], ecx

; 793  : 		}

  0000b	5d		 pop	 ebp
  0000c	c2 04 00	 ret	 4
?end@?$vector@UEXTRAITEMSLOT@@V?$allocator@UEXTRAITEMSLOT@@@std@@@std@@QAE?AV?$_Vector_iterator@V?$_Vector_val@UEXTRAITEMSLOT@@V?$allocator@UEXTRAITEMSLOT@@@std@@@std@@@2@XZ ENDP ; std::vector<EXTRAITEMSLOT,std::allocator<EXTRAITEMSLOT> >::end
_TEXT	ENDS
PUBLIC	?end@?$vector@UEXTRAITEMSLOT@@V?$allocator@UEXTRAITEMSLOT@@@std@@@std@@QBE?AV?$_Vector_const_iterator@V?$_Vector_val@UEXTRAITEMSLOT@@V?$allocator@UEXTRAITEMSLOT@@@std@@@std@@@2@XZ ; std::vector<EXTRAITEMSLOT,std::allocator<EXTRAITEMSLOT> >::end
; Function compile flags: /Ogsp
;	COMDAT ?end@?$vector@UEXTRAITEMSLOT@@V?$allocator@UEXTRAITEMSLOT@@@std@@@std@@QBE?AV?$_Vector_const_iterator@V?$_Vector_val@UEXTRAITEMSLOT@@V?$allocator@UEXTRAITEMSLOT@@@std@@@std@@@2@XZ
_TEXT	SEGMENT
___$ReturnUdt$ = 8					; size = 4
?end@?$vector@UEXTRAITEMSLOT@@V?$allocator@UEXTRAITEMSLOT@@@std@@@std@@QBE?AV?$_Vector_const_iterator@V?$_Vector_val@UEXTRAITEMSLOT@@V?$allocator@UEXTRAITEMSLOT@@@std@@@std@@@2@XZ PROC ; std::vector<EXTRAITEMSLOT,std::allocator<EXTRAITEMSLOT> >::end, COMDAT
; _this$ = ecx

; 796  : 		{	// return iterator for end of nonmutable sequence

  00000	55		 push	 ebp
  00001	8b ec		 mov	 ebp, esp

; 797  : 		return (const_iterator(this->_Mylast, this));

  00003	8b 49 04	 mov	 ecx, DWORD PTR [ecx+4]
  00006	8b 45 08	 mov	 eax, DWORD PTR ___$ReturnUdt$[ebp]
  00009	89 08		 mov	 DWORD PTR [eax], ecx

; 798  : 		}

  0000b	5d		 pop	 ebp
  0000c	c2 04 00	 ret	 4
?end@?$vector@UEXTRAITEMSLOT@@V?$allocator@UEXTRAITEMSLOT@@@std@@@std@@QBE?AV?$_Vector_const_iterator@V?$_Vector_val@UEXTRAITEMSLOT@@V?$allocator@UEXTRAITEMSLOT@@@std@@@std@@@2@XZ ENDP ; std::vector<EXTRAITEMSLOT,std::allocator<EXTRAITEMSLOT> >::end
_TEXT	ENDS
PUBLIC	??0?$_Vector_val@UEXTRAITEMSLOT@@V?$allocator@UEXTRAITEMSLOT@@@std@@@std@@QAE@V?$allocator@UEXTRAITEMSLOT@@@1@@Z ; std::_Vector_val<EXTRAITEMSLOT,std::allocator<EXTRAITEMSLOT> >::_Vector_val<EXTRAITEMSLOT,std::allocator<EXTRAITEMSLOT> >
; Function compile flags: /Ogsp
;	COMDAT ??0?$_Vector_val@UEXTRAITEMSLOT@@V?$allocator@UEXTRAITEMSLOT@@@std@@@std@@QAE@V?$allocator@UEXTRAITEMSLOT@@@1@@Z
_TEXT	SEGMENT
__Al$ = 8						; size = 1
??0?$_Vector_val@UEXTRAITEMSLOT@@V?$allocator@UEXTRAITEMSLOT@@@std@@@std@@QAE@V?$allocator@UEXTRAITEMSLOT@@@1@@Z PROC ; std::_Vector_val<EXTRAITEMSLOT,std::allocator<EXTRAITEMSLOT> >::_Vector_val<EXTRAITEMSLOT,std::allocator<EXTRAITEMSLOT> >, COMDAT
; _this$ = ecx

; 426  : 		{	// construct allocator from _Al

  00000	8b c1		 mov	 eax, ecx

; 427  : 		_Myfirst = 0;

  00002	33 c9		 xor	 ecx, ecx
  00004	89 08		 mov	 DWORD PTR [eax], ecx

; 428  : 		_Mylast = 0;

  00006	89 48 04	 mov	 DWORD PTR [eax+4], ecx

; 429  : 		_Myend = 0;

  00009	89 48 08	 mov	 DWORD PTR [eax+8], ecx

; 430  : 		}

  0000c	c2 04 00	 ret	 4
??0?$_Vector_val@UEXTRAITEMSLOT@@V?$allocator@UEXTRAITEMSLOT@@@std@@@std@@QAE@V?$allocator@UEXTRAITEMSLOT@@@1@@Z ENDP ; std::_Vector_val<EXTRAITEMSLOT,std::allocator<EXTRAITEMSLOT> >::_Vector_val<EXTRAITEMSLOT,std::allocator<EXTRAITEMSLOT> >
_TEXT	ENDS
PUBLIC	??0?$_Vector_val@UNewShopPullDownItem@@V?$allocator@UNewShopPullDownItem@@@std@@@std@@QAE@V?$allocator@UNewShopPullDownItem@@@1@@Z ; std::_Vector_val<NewShopPullDownItem,std::allocator<NewShopPullDownItem> >::_Vector_val<NewShopPullDownItem,std::allocator<NewShopPullDownItem> >
; Function compile flags: /Ogsp
;	COMDAT ??0?$_Vector_val@UNewShopPullDownItem@@V?$allocator@UNewShopPullDownItem@@@std@@@std@@QAE@V?$allocator@UNewShopPullDownItem@@@1@@Z
_TEXT	SEGMENT
__Al$ = 8						; size = 1
??0?$_Vector_val@UNewShopPullDownItem@@V?$allocator@UNewShopPullDownItem@@@std@@@std@@QAE@V?$allocator@UNewShopPullDownItem@@@1@@Z PROC ; std::_Vector_val<NewShopPullDownItem,std::allocator<NewShopPullDownItem> >::_Vector_val<NewShopPullDownItem,std::allocator<NewShopPullDownItem> >, COMDAT
; _this$ = ecx

; 426  : 		{	// construct allocator from _Al

  00000	8b c1		 mov	 eax, ecx

; 427  : 		_Myfirst = 0;

  00002	33 c9		 xor	 ecx, ecx
  00004	89 08		 mov	 DWORD PTR [eax], ecx

; 428  : 		_Mylast = 0;

  00006	89 48 04	 mov	 DWORD PTR [eax+4], ecx

; 429  : 		_Myend = 0;

  00009	89 48 08	 mov	 DWORD PTR [eax+8], ecx

; 430  : 		}

  0000c	c2 04 00	 ret	 4
??0?$_Vector_val@UNewShopPullDownItem@@V?$allocator@UNewShopPullDownItem@@@std@@@std@@QAE@V?$allocator@UNewShopPullDownItem@@@1@@Z ENDP ; std::_Vector_val<NewShopPullDownItem,std::allocator<NewShopPullDownItem> >::_Vector_val<NewShopPullDownItem,std::allocator<NewShopPullDownItem> >
_TEXT	ENDS
PUBLIC	??0?$_Vector_val@UInvenItemInfo@@V?$allocator@UInvenItemInfo@@@std@@@std@@QAE@V?$allocator@UInvenItemInfo@@@1@@Z ; std::_Vector_val<InvenItemInfo,std::allocator<InvenItemInfo> >::_Vector_val<InvenItemInfo,std::allocator<InvenItemInfo> >
; Function compile flags: /Ogsp
;	COMDAT ??0?$_Vector_val@UInvenItemInfo@@V?$allocator@UInvenItemInfo@@@std@@@std@@QAE@V?$allocator@UInvenItemInfo@@@1@@Z
_TEXT	SEGMENT
__Al$ = 8						; size = 1
??0?$_Vector_val@UInvenItemInfo@@V?$allocator@UInvenItemInfo@@@std@@@std@@QAE@V?$allocator@UInvenItemInfo@@@1@@Z PROC ; std::_Vector_val<InvenItemInfo,std::allocator<InvenItemInfo> >::_Vector_val<InvenItemInfo,std::allocator<InvenItemInfo> >, COMDAT
; _this$ = ecx

; 426  : 		{	// construct allocator from _Al

  00000	8b c1		 mov	 eax, ecx

; 427  : 		_Myfirst = 0;

  00002	33 c9		 xor	 ecx, ecx
  00004	89 08		 mov	 DWORD PTR [eax], ecx

; 428  : 		_Mylast = 0;

  00006	89 48 04	 mov	 DWORD PTR [eax+4], ecx

; 429  : 		_Myend = 0;

  00009	89 48 08	 mov	 DWORD PTR [eax+8], ecx

; 430  : 		}

  0000c	c2 04 00	 ret	 4
??0?$_Vector_val@UInvenItemInfo@@V?$allocator@UInvenItemInfo@@@std@@@std@@QAE@V?$allocator@UInvenItemInfo@@@1@@Z ENDP ; std::_Vector_val<InvenItemInfo,std::allocator<InvenItemInfo> >::_Vector_val<InvenItemInfo,std::allocator<InvenItemInfo> >
_TEXT	ENDS
PUBLIC	??0?$_Vector_iterator@V?$_Vector_val@UInvenItemInfo@@V?$allocator@UInvenItemInfo@@@std@@@std@@@std@@QAE@PAUInvenItemInfo@@PBU_Container_base0@1@@Z ; std::_Vector_iterator<std::_Vector_val<InvenItemInfo,std::allocator<InvenItemInfo> > >::_Vector_iterator<std::_Vector_val<InvenItemInfo,std::allocator<InvenItemInfo> > >
; Function compile flags: /Ogsp
;	COMDAT ??0?$_Vector_iterator@V?$_Vector_val@UInvenItemInfo@@V?$allocator@UInvenItemInfo@@@std@@@std@@@std@@QAE@PAUInvenItemInfo@@PBU_Container_base0@1@@Z
_TEXT	SEGMENT
__Parg$ = 8						; size = 4
__Pvector$ = 12						; size = 4
??0?$_Vector_iterator@V?$_Vector_val@UInvenItemInfo@@V?$allocator@UInvenItemInfo@@@std@@@std@@@std@@QAE@PAUInvenItemInfo@@PBU_Container_base0@1@@Z PROC ; std::_Vector_iterator<std::_Vector_val<InvenItemInfo,std::allocator<InvenItemInfo> > >::_Vector_iterator<std::_Vector_val<InvenItemInfo,std::allocator<InvenItemInfo> > >, COMDAT
; _this$ = ecx

; 304  : 		{	// construct with pointer _Parg

  00000	55		 push	 ebp
  00001	8b ec		 mov	 ebp, esp
  00003	8b c1		 mov	 eax, ecx
  00005	8b 4d 08	 mov	 ecx, DWORD PTR __Parg$[ebp]
  00008	89 08		 mov	 DWORD PTR [eax], ecx

; 305  : 		}

  0000a	5d		 pop	 ebp
  0000b	c2 08 00	 ret	 8
??0?$_Vector_iterator@V?$_Vector_val@UInvenItemInfo@@V?$allocator@UInvenItemInfo@@@std@@@std@@@std@@QAE@PAUInvenItemInfo@@PBU_Container_base0@1@@Z ENDP ; std::_Vector_iterator<std::_Vector_val<InvenItemInfo,std::allocator<InvenItemInfo> > >::_Vector_iterator<std::_Vector_val<InvenItemInfo,std::allocator<InvenItemInfo> > >
_TEXT	ENDS
PUBLIC	?_Make_iter@?$vector@UEXTRAITEMSLOT@@V?$allocator@UEXTRAITEMSLOT@@@std@@@std@@QBE?AV?$_Vector_iterator@V?$_Vector_val@UEXTRAITEMSLOT@@V?$allocator@UEXTRAITEMSLOT@@@std@@@std@@@2@V?$_Vector_const_iterator@V?$_Vector_val@UEXTRAITEMSLOT@@V?$allocator@UEXTRAITEMSLOT@@@std@@@std@@@2@@Z ; std::vector<EXTRAITEMSLOT,std::allocator<EXTRAITEMSLOT> >::_Make_iter
; Function compile flags: /Ogsp
;	COMDAT ?_Make_iter@?$vector@UEXTRAITEMSLOT@@V?$allocator@UEXTRAITEMSLOT@@@std@@@std@@QBE?AV?$_Vector_iterator@V?$_Vector_val@UEXTRAITEMSLOT@@V?$allocator@UEXTRAITEMSLOT@@@std@@@std@@@2@V?$_Vector_const_iterator@V?$_Vector_val@UEXTRAITEMSLOT@@V?$allocator@UEXTRAITEMSLOT@@@std@@@std@@@2@@Z
_TEXT	SEGMENT
___$ReturnUdt$ = 8					; size = 4
__Where$ = 12						; size = 4
?_Make_iter@?$vector@UEXTRAITEMSLOT@@V?$allocator@UEXTRAITEMSLOT@@@std@@@std@@QBE?AV?$_Vector_iterator@V?$_Vector_val@UEXTRAITEMSLOT@@V?$allocator@UEXTRAITEMSLOT@@@std@@@std@@@2@V?$_Vector_const_iterator@V?$_Vector_val@UEXTRAITEMSLOT@@V?$allocator@UEXTRAITEMSLOT@@@std@@@std@@@2@@Z PROC ; std::vector<EXTRAITEMSLOT,std::allocator<EXTRAITEMSLOT> >::_Make_iter, COMDAT
; _this$ = ecx

; 801  : 		{	// make iterator from const_iterator

  00000	55		 push	 ebp
  00001	8b ec		 mov	 ebp, esp

; 802  : 		return (iterator(_Where._Ptr, this));

  00003	8b 45 08	 mov	 eax, DWORD PTR ___$ReturnUdt$[ebp]
  00006	8b 4d 0c	 mov	 ecx, DWORD PTR __Where$[ebp]
  00009	89 08		 mov	 DWORD PTR [eax], ecx

; 803  : 		}

  0000b	5d		 pop	 ebp
  0000c	c2 08 00	 ret	 8
?_Make_iter@?$vector@UEXTRAITEMSLOT@@V?$allocator@UEXTRAITEMSLOT@@@std@@@std@@QBE?AV?$_Vector_iterator@V?$_Vector_val@UEXTRAITEMSLOT@@V?$allocator@UEXTRAITEMSLOT@@@std@@@std@@@2@V?$_Vector_const_iterator@V?$_Vector_val@UEXTRAITEMSLOT@@V?$allocator@UEXTRAITEMSLOT@@@std@@@std@@@2@@Z ENDP ; std::vector<EXTRAITEMSLOT,std::allocator<EXTRAITEMSLOT> >::_Make_iter
_TEXT	ENDS
PUBLIC	?max_size@?$vector@UEXTRAITEMSLOT@@V?$allocator@UEXTRAITEMSLOT@@@std@@@std@@QBEIXZ ; std::vector<EXTRAITEMSLOT,std::allocator<EXTRAITEMSLOT> >::max_size
; Function compile flags: /Ogsp
;	COMDAT ?max_size@?$vector@UEXTRAITEMSLOT@@V?$allocator@UEXTRAITEMSLOT@@@std@@@std@@QBEIXZ
_TEXT	SEGMENT
?max_size@?$vector@UEXTRAITEMSLOT@@V?$allocator@UEXTRAITEMSLOT@@@std@@@std@@QBEIXZ PROC ; std::vector<EXTRAITEMSLOT,std::allocator<EXTRAITEMSLOT> >::max_size, COMDAT
; _this$ = ecx

; 884  : 		return (this->_Alval.max_size());

  00000	b8 e3 38 8e 03	 mov	 eax, 59652323		; 038e38e3H

; 885  : 		}

  00005	c3		 ret	 0
?max_size@?$vector@UEXTRAITEMSLOT@@V?$allocator@UEXTRAITEMSLOT@@@std@@@std@@QBEIXZ ENDP ; std::vector<EXTRAITEMSLOT,std::allocator<EXTRAITEMSLOT> >::max_size
_TEXT	ENDS
PUBLIC	?_Grow_to@?$vector@UEXTRAITEMSLOT@@V?$allocator@UEXTRAITEMSLOT@@@std@@@std@@IBEII@Z ; std::vector<EXTRAITEMSLOT,std::allocator<EXTRAITEMSLOT> >::_Grow_to
; Function compile flags: /Ogsp
;	COMDAT ?_Grow_to@?$vector@UEXTRAITEMSLOT@@V?$allocator@UEXTRAITEMSLOT@@@std@@@std@@IBEII@Z
_TEXT	SEGMENT
__Count$ = 8						; size = 4
?_Grow_to@?$vector@UEXTRAITEMSLOT@@V?$allocator@UEXTRAITEMSLOT@@@std@@@std@@IBEII@Z PROC ; std::vector<EXTRAITEMSLOT,std::allocator<EXTRAITEMSLOT> >::_Grow_to, COMDAT
; _this$ = ecx

; 1274 : 		{	// grow by 50% or at least to _Count

  00000	55		 push	 ebp
  00001	8b ec		 mov	 ebp, esp

; 1275 : 		size_type _Capacity = capacity();

  00003	8b 41 08	 mov	 eax, DWORD PTR [ecx+8]
  00006	2b 01		 sub	 eax, DWORD PTR [ecx]
  00008	6a 48		 push	 72			; 00000048H
  0000a	99		 cdq
  0000b	59		 pop	 ecx
  0000c	f7 f9		 idiv	 ecx

; 1276 : 
; 1277 : 		_Capacity = max_size() - _Capacity / 2 < _Capacity
; 1278 : 			? 0 : _Capacity + _Capacity / 2;	// try to grow by 50%

  0000e	ba e3 38 8e 03	 mov	 edx, 59652323		; 038e38e3H
  00013	8b c8		 mov	 ecx, eax
  00015	d1 e9		 shr	 ecx, 1
  00017	2b d1		 sub	 edx, ecx
  00019	3b d0		 cmp	 edx, eax
  0001b	73 04		 jae	 SHORT $LN4@Grow_to
  0001d	33 c0		 xor	 eax, eax
  0001f	eb 02		 jmp	 SHORT $LN5@Grow_to
$LN4@Grow_to:
  00021	03 c1		 add	 eax, ecx
$LN5@Grow_to:

; 1279 : 		if (_Capacity < _Count)

  00023	3b 45 08	 cmp	 eax, DWORD PTR __Count$[ebp]

; 1280 : 			_Capacity = _Count;

  00026	0f 42 45 08	 cmovb	 eax, DWORD PTR __Count$[ebp]

; 1281 : 		return (_Capacity);
; 1282 : 		}

  0002a	5d		 pop	 ebp
  0002b	c2 04 00	 ret	 4
?_Grow_to@?$vector@UEXTRAITEMSLOT@@V?$allocator@UEXTRAITEMSLOT@@@std@@@std@@IBEII@Z ENDP ; std::vector<EXTRAITEMSLOT,std::allocator<EXTRAITEMSLOT> >::_Grow_to
_TEXT	ENDS
PUBLIC	?allocate@?$allocator@UEXTRAITEMSLOT@@@std@@QAEPAUEXTRAITEMSLOT@@I@Z ; std::allocator<EXTRAITEMSLOT>::allocate
; Function compile flags: /Ogsp
; File c:\program files (x86)\microsoft visual studio 10.0\vc\include\xmemory
;	COMDAT ?allocate@?$allocator@UEXTRAITEMSLOT@@@std@@QAEPAUEXTRAITEMSLOT@@I@Z
_TEXT	SEGMENT
__Count$ = 8						; size = 4
?allocate@?$allocator@UEXTRAITEMSLOT@@@std@@QAEPAUEXTRAITEMSLOT@@I@Z PROC ; std::allocator<EXTRAITEMSLOT>::allocate, COMDAT
; _this$ = ecx

; 186  : 		{	// allocate array of _Count elements

  00000	55		 push	 ebp
  00001	8b ec		 mov	 ebp, esp

; 187  : 		return (_Allocate(_Count, (pointer)0));

  00003	6a 00		 push	 0
  00005	ff 75 08	 push	 DWORD PTR __Count$[ebp]
  00008	e8 00 00 00 00	 call	 ??$_Allocate@UEXTRAITEMSLOT@@@std@@YAPAUEXTRAITEMSLOT@@IPAU1@@Z ; std::_Allocate<EXTRAITEMSLOT>
  0000d	59		 pop	 ecx
  0000e	59		 pop	 ecx

; 188  : 		}

  0000f	5d		 pop	 ebp
  00010	c2 04 00	 ret	 4
?allocate@?$allocator@UEXTRAITEMSLOT@@@std@@QAEPAUEXTRAITEMSLOT@@I@Z ENDP ; std::allocator<EXTRAITEMSLOT>::allocate
_TEXT	ENDS
PUBLIC	?max_size@?$vector@UNewShopPullDownItem@@V?$allocator@UNewShopPullDownItem@@@std@@@std@@QBEIXZ ; std::vector<NewShopPullDownItem,std::allocator<NewShopPullDownItem> >::max_size
; Function compile flags: /Ogsp
; File c:\program files (x86)\microsoft visual studio 10.0\vc\include\vector
;	COMDAT ?max_size@?$vector@UNewShopPullDownItem@@V?$allocator@UNewShopPullDownItem@@@std@@@std@@QBEIXZ
_TEXT	SEGMENT
?max_size@?$vector@UNewShopPullDownItem@@V?$allocator@UNewShopPullDownItem@@@std@@@std@@QBEIXZ PROC ; std::vector<NewShopPullDownItem,std::allocator<NewShopPullDownItem> >::max_size, COMDAT
; _this$ = ecx

; 884  : 		return (this->_Alval.max_size());

  00000	b8 33 33 33 03	 mov	 eax, 53687091		; 03333333H

; 885  : 		}

  00005	c3		 ret	 0
?max_size@?$vector@UNewShopPullDownItem@@V?$allocator@UNewShopPullDownItem@@@std@@@std@@QBEIXZ ENDP ; std::vector<NewShopPullDownItem,std::allocator<NewShopPullDownItem> >::max_size
_TEXT	ENDS
PUBLIC	?_Grow_to@?$vector@UNewShopPullDownItem@@V?$allocator@UNewShopPullDownItem@@@std@@@std@@IBEII@Z ; std::vector<NewShopPullDownItem,std::allocator<NewShopPullDownItem> >::_Grow_to
; Function compile flags: /Ogsp
;	COMDAT ?_Grow_to@?$vector@UNewShopPullDownItem@@V?$allocator@UNewShopPullDownItem@@@std@@@std@@IBEII@Z
_TEXT	SEGMENT
__Count$ = 8						; size = 4
?_Grow_to@?$vector@UNewShopPullDownItem@@V?$allocator@UNewShopPullDownItem@@@std@@@std@@IBEII@Z PROC ; std::vector<NewShopPullDownItem,std::allocator<NewShopPullDownItem> >::_Grow_to, COMDAT
; _this$ = ecx

; 1274 : 		{	// grow by 50% or at least to _Count

  00000	55		 push	 ebp
  00001	8b ec		 mov	 ebp, esp

; 1275 : 		size_type _Capacity = capacity();

  00003	8b 41 08	 mov	 eax, DWORD PTR [ecx+8]
  00006	2b 01		 sub	 eax, DWORD PTR [ecx]
  00008	6a 50		 push	 80			; 00000050H
  0000a	99		 cdq
  0000b	59		 pop	 ecx
  0000c	f7 f9		 idiv	 ecx

; 1276 : 
; 1277 : 		_Capacity = max_size() - _Capacity / 2 < _Capacity
; 1278 : 			? 0 : _Capacity + _Capacity / 2;	// try to grow by 50%

  0000e	ba 33 33 33 03	 mov	 edx, 53687091		; 03333333H
  00013	8b c8		 mov	 ecx, eax
  00015	d1 e9		 shr	 ecx, 1
  00017	2b d1		 sub	 edx, ecx
  00019	3b d0		 cmp	 edx, eax
  0001b	73 04		 jae	 SHORT $LN4@Grow_to@2
  0001d	33 c0		 xor	 eax, eax
  0001f	eb 02		 jmp	 SHORT $LN5@Grow_to@2
$LN4@Grow_to@2:
  00021	03 c1		 add	 eax, ecx
$LN5@Grow_to@2:

; 1279 : 		if (_Capacity < _Count)

  00023	3b 45 08	 cmp	 eax, DWORD PTR __Count$[ebp]

; 1280 : 			_Capacity = _Count;

  00026	0f 42 45 08	 cmovb	 eax, DWORD PTR __Count$[ebp]

; 1281 : 		return (_Capacity);
; 1282 : 		}

  0002a	5d		 pop	 ebp
  0002b	c2 04 00	 ret	 4
?_Grow_to@?$vector@UNewShopPullDownItem@@V?$allocator@UNewShopPullDownItem@@@std@@@std@@IBEII@Z ENDP ; std::vector<NewShopPullDownItem,std::allocator<NewShopPullDownItem> >::_Grow_to
_TEXT	ENDS
PUBLIC	?_Make_iter@?$vector@UInvenItemInfo@@V?$allocator@UInvenItemInfo@@@std@@@std@@QBE?AV?$_Vector_iterator@V?$_Vector_val@UInvenItemInfo@@V?$allocator@UInvenItemInfo@@@std@@@std@@@2@V?$_Vector_const_iterator@V?$_Vector_val@UInvenItemInfo@@V?$allocator@UInvenItemInfo@@@std@@@std@@@2@@Z ; std::vector<InvenItemInfo,std::allocator<InvenItemInfo> >::_Make_iter
; Function compile flags: /Ogsp
;	COMDAT ?_Make_iter@?$vector@UInvenItemInfo@@V?$allocator@UInvenItemInfo@@@std@@@std@@QBE?AV?$_Vector_iterator@V?$_Vector_val@UInvenItemInfo@@V?$allocator@UInvenItemInfo@@@std@@@std@@@2@V?$_Vector_const_iterator@V?$_Vector_val@UInvenItemInfo@@V?$allocator@UInvenItemInfo@@@std@@@std@@@2@@Z
_TEXT	SEGMENT
___$ReturnUdt$ = 8					; size = 4
__Where$ = 12						; size = 4
?_Make_iter@?$vector@UInvenItemInfo@@V?$allocator@UInvenItemInfo@@@std@@@std@@QBE?AV?$_Vector_iterator@V?$_Vector_val@UInvenItemInfo@@V?$allocator@UInvenItemInfo@@@std@@@std@@@2@V?$_Vector_const_iterator@V?$_Vector_val@UInvenItemInfo@@V?$allocator@UInvenItemInfo@@@std@@@std@@@2@@Z PROC ; std::vector<InvenItemInfo,std::allocator<InvenItemInfo> >::_Make_iter, COMDAT
; _this$ = ecx

; 801  : 		{	// make iterator from const_iterator

  00000	55		 push	 ebp
  00001	8b ec		 mov	 ebp, esp

; 802  : 		return (iterator(_Where._Ptr, this));

  00003	8b 45 08	 mov	 eax, DWORD PTR ___$ReturnUdt$[ebp]
  00006	8b 4d 0c	 mov	 ecx, DWORD PTR __Where$[ebp]
  00009	89 08		 mov	 DWORD PTR [eax], ecx

; 803  : 		}

  0000b	5d		 pop	 ebp
  0000c	c2 08 00	 ret	 8
?_Make_iter@?$vector@UInvenItemInfo@@V?$allocator@UInvenItemInfo@@@std@@@std@@QBE?AV?$_Vector_iterator@V?$_Vector_val@UInvenItemInfo@@V?$allocator@UInvenItemInfo@@@std@@@std@@@2@V?$_Vector_const_iterator@V?$_Vector_val@UInvenItemInfo@@V?$allocator@UInvenItemInfo@@@std@@@std@@@2@@Z ENDP ; std::vector<InvenItemInfo,std::allocator<InvenItemInfo> >::_Make_iter
_TEXT	ENDS
PUBLIC	?max_size@?$vector@UInvenItemInfo@@V?$allocator@UInvenItemInfo@@@std@@@std@@QBEIXZ ; std::vector<InvenItemInfo,std::allocator<InvenItemInfo> >::max_size
; Function compile flags: /Ogsp
;	COMDAT ?max_size@?$vector@UInvenItemInfo@@V?$allocator@UInvenItemInfo@@@std@@@std@@QBEIXZ
_TEXT	SEGMENT
?max_size@?$vector@UInvenItemInfo@@V?$allocator@UInvenItemInfo@@@std@@@std@@QBEIXZ PROC ; std::vector<InvenItemInfo,std::allocator<InvenItemInfo> >::max_size, COMDAT
; _this$ = ecx

; 884  : 		return (this->_Alval.max_size());

  00000	b8 55 55 55 15	 mov	 eax, 357913941		; 15555555H

; 885  : 		}

  00005	c3		 ret	 0
?max_size@?$vector@UInvenItemInfo@@V?$allocator@UInvenItemInfo@@@std@@@std@@QBEIXZ ENDP ; std::vector<InvenItemInfo,std::allocator<InvenItemInfo> >::max_size
_TEXT	ENDS
PUBLIC	?_Grow_to@?$vector@UInvenItemInfo@@V?$allocator@UInvenItemInfo@@@std@@@std@@IBEII@Z ; std::vector<InvenItemInfo,std::allocator<InvenItemInfo> >::_Grow_to
; Function compile flags: /Ogsp
;	COMDAT ?_Grow_to@?$vector@UInvenItemInfo@@V?$allocator@UInvenItemInfo@@@std@@@std@@IBEII@Z
_TEXT	SEGMENT
__Count$ = 8						; size = 4
?_Grow_to@?$vector@UInvenItemInfo@@V?$allocator@UInvenItemInfo@@@std@@@std@@IBEII@Z PROC ; std::vector<InvenItemInfo,std::allocator<InvenItemInfo> >::_Grow_to, COMDAT
; _this$ = ecx

; 1274 : 		{	// grow by 50% or at least to _Count

  00000	55		 push	 ebp
  00001	8b ec		 mov	 ebp, esp

; 1275 : 		size_type _Capacity = capacity();

  00003	8b 41 08	 mov	 eax, DWORD PTR [ecx+8]
  00006	2b 01		 sub	 eax, DWORD PTR [ecx]
  00008	6a 0c		 push	 12			; 0000000cH
  0000a	99		 cdq
  0000b	59		 pop	 ecx
  0000c	f7 f9		 idiv	 ecx

; 1276 : 
; 1277 : 		_Capacity = max_size() - _Capacity / 2 < _Capacity
; 1278 : 			? 0 : _Capacity + _Capacity / 2;	// try to grow by 50%

  0000e	ba 55 55 55 15	 mov	 edx, 357913941		; 15555555H
  00013	8b c8		 mov	 ecx, eax
  00015	d1 e9		 shr	 ecx, 1
  00017	2b d1		 sub	 edx, ecx
  00019	3b d0		 cmp	 edx, eax
  0001b	73 04		 jae	 SHORT $LN4@Grow_to@3
  0001d	33 c0		 xor	 eax, eax
  0001f	eb 02		 jmp	 SHORT $LN5@Grow_to@3
$LN4@Grow_to@3:
  00021	03 c1		 add	 eax, ecx
$LN5@Grow_to@3:

; 1279 : 		if (_Capacity < _Count)

  00023	3b 45 08	 cmp	 eax, DWORD PTR __Count$[ebp]

; 1280 : 			_Capacity = _Count;

  00026	0f 42 45 08	 cmovb	 eax, DWORD PTR __Count$[ebp]

; 1281 : 		return (_Capacity);
; 1282 : 		}

  0002a	5d		 pop	 ebp
  0002b	c2 04 00	 ret	 4
?_Grow_to@?$vector@UInvenItemInfo@@V?$allocator@UInvenItemInfo@@@std@@@std@@IBEII@Z ENDP ; std::vector<InvenItemInfo,std::allocator<InvenItemInfo> >::_Grow_to
_TEXT	ENDS
PUBLIC	??0?$_Vector_iterator@V?$_Vector_val@UNewShopPullDownItem@@V?$allocator@UNewShopPullDownItem@@@std@@@std@@@std@@QAE@PAUNewShopPullDownItem@@PBU_Container_base0@1@@Z ; std::_Vector_iterator<std::_Vector_val<NewShopPullDownItem,std::allocator<NewShopPullDownItem> > >::_Vector_iterator<std::_Vector_val<NewShopPullDownItem,std::allocator<NewShopPullDownItem> > >
; Function compile flags: /Ogsp
;	COMDAT ??0?$_Vector_iterator@V?$_Vector_val@UNewShopPullDownItem@@V?$allocator@UNewShopPullDownItem@@@std@@@std@@@std@@QAE@PAUNewShopPullDownItem@@PBU_Container_base0@1@@Z
_TEXT	SEGMENT
__Parg$ = 8						; size = 4
__Pvector$ = 12						; size = 4
??0?$_Vector_iterator@V?$_Vector_val@UNewShopPullDownItem@@V?$allocator@UNewShopPullDownItem@@@std@@@std@@@std@@QAE@PAUNewShopPullDownItem@@PBU_Container_base0@1@@Z PROC ; std::_Vector_iterator<std::_Vector_val<NewShopPullDownItem,std::allocator<NewShopPullDownItem> > >::_Vector_iterator<std::_Vector_val<NewShopPullDownItem,std::allocator<NewShopPullDownItem> > >, COMDAT
; _this$ = ecx

; 304  : 		{	// construct with pointer _Parg

  00000	55		 push	 ebp
  00001	8b ec		 mov	 ebp, esp
  00003	8b c1		 mov	 eax, ecx
  00005	8b 4d 08	 mov	 ecx, DWORD PTR __Parg$[ebp]
  00008	89 08		 mov	 DWORD PTR [eax], ecx

; 305  : 		}

  0000a	5d		 pop	 ebp
  0000b	c2 08 00	 ret	 8
??0?$_Vector_iterator@V?$_Vector_val@UNewShopPullDownItem@@V?$allocator@UNewShopPullDownItem@@@std@@@std@@@std@@QAE@PAUNewShopPullDownItem@@PBU_Container_base0@1@@Z ENDP ; std::_Vector_iterator<std::_Vector_val<NewShopPullDownItem,std::allocator<NewShopPullDownItem> > >::_Vector_iterator<std::_Vector_val<NewShopPullDownItem,std::allocator<NewShopPullDownItem> > >
_TEXT	ENDS
PUBLIC	?allocate@?$allocator@UNewShopPullDownItem@@@std@@QAEPAUNewShopPullDownItem@@I@Z ; std::allocator<NewShopPullDownItem>::allocate
; Function compile flags: /Ogsp
; File c:\program files (x86)\microsoft visual studio 10.0\vc\include\xmemory
;	COMDAT ?allocate@?$allocator@UNewShopPullDownItem@@@std@@QAEPAUNewShopPullDownItem@@I@Z
_TEXT	SEGMENT
__Count$ = 8						; size = 4
?allocate@?$allocator@UNewShopPullDownItem@@@std@@QAEPAUNewShopPullDownItem@@I@Z PROC ; std::allocator<NewShopPullDownItem>::allocate, COMDAT
; _this$ = ecx

; 186  : 		{	// allocate array of _Count elements

  00000	55		 push	 ebp
  00001	8b ec		 mov	 ebp, esp

; 187  : 		return (_Allocate(_Count, (pointer)0));

  00003	6a 00		 push	 0
  00005	ff 75 08	 push	 DWORD PTR __Count$[ebp]
  00008	e8 00 00 00 00	 call	 ??$_Allocate@UNewShopPullDownItem@@@std@@YAPAUNewShopPullDownItem@@IPAU1@@Z ; std::_Allocate<NewShopPullDownItem>
  0000d	59		 pop	 ecx
  0000e	59		 pop	 ecx

; 188  : 		}

  0000f	5d		 pop	 ebp
  00010	c2 04 00	 ret	 4
?allocate@?$allocator@UNewShopPullDownItem@@@std@@QAEPAUNewShopPullDownItem@@I@Z ENDP ; std::allocator<NewShopPullDownItem>::allocate
_TEXT	ENDS
PUBLIC	?allocate@?$allocator@UInvenItemInfo@@@std@@QAEPAUInvenItemInfo@@I@Z ; std::allocator<InvenItemInfo>::allocate
; Function compile flags: /Ogsp
;	COMDAT ?allocate@?$allocator@UInvenItemInfo@@@std@@QAEPAUInvenItemInfo@@I@Z
_TEXT	SEGMENT
__Count$ = 8						; size = 4
?allocate@?$allocator@UInvenItemInfo@@@std@@QAEPAUInvenItemInfo@@I@Z PROC ; std::allocator<InvenItemInfo>::allocate, COMDAT
; _this$ = ecx

; 186  : 		{	// allocate array of _Count elements

  00000	55		 push	 ebp
  00001	8b ec		 mov	 ebp, esp

; 187  : 		return (_Allocate(_Count, (pointer)0));

  00003	6a 00		 push	 0
  00005	ff 75 08	 push	 DWORD PTR __Count$[ebp]
  00008	e8 00 00 00 00	 call	 ??$_Allocate@UInvenItemInfo@@@std@@YAPAUInvenItemInfo@@IPAU1@@Z ; std::_Allocate<InvenItemInfo>
  0000d	59		 pop	 ecx
  0000e	59		 pop	 ecx

; 188  : 		}

  0000f	5d		 pop	 ebp
  00010	c2 04 00	 ret	 4
?allocate@?$allocator@UInvenItemInfo@@@std@@QAEPAUInvenItemInfo@@I@Z ENDP ; std::allocator<InvenItemInfo>::allocate
_TEXT	ENDS
PUBLIC	??8?$_Vector_const_iterator@V?$_Vector_val@UInvenItemInfo@@V?$allocator@UInvenItemInfo@@@std@@@std@@@std@@QBE_NABV01@@Z ; std::_Vector_const_iterator<std::_Vector_val<InvenItemInfo,std::allocator<InvenItemInfo> > >::operator==
; Function compile flags: /Ogsp
; File c:\program files (x86)\microsoft visual studio 10.0\vc\include\vector
;	COMDAT ??8?$_Vector_const_iterator@V?$_Vector_val@UInvenItemInfo@@V?$allocator@UInvenItemInfo@@@std@@@std@@@std@@QBE_NABV01@@Z
_TEXT	SEGMENT
__Right$ = 8						; size = 4
??8?$_Vector_const_iterator@V?$_Vector_val@UInvenItemInfo@@V?$allocator@UInvenItemInfo@@@std@@@std@@@std@@QBE_NABV01@@Z PROC ; std::_Vector_const_iterator<std::_Vector_val<InvenItemInfo,std::allocator<InvenItemInfo> > >::operator==, COMDAT
; _this$ = ecx

; 201  : 		{	// test for iterator equality

  00000	55		 push	 ebp
  00001	8b ec		 mov	 ebp, esp

; 202  : 		_Compat(_Right);
; 203  : 		return (this->_Ptr == _Right._Ptr);

  00003	8b 01		 mov	 eax, DWORD PTR [ecx]
  00005	8b 4d 08	 mov	 ecx, DWORD PTR __Right$[ebp]
  00008	2b 01		 sub	 eax, DWORD PTR [ecx]
  0000a	f7 d8		 neg	 eax
  0000c	1b c0		 sbb	 eax, eax
  0000e	40		 inc	 eax

; 204  : 		}

  0000f	5d		 pop	 ebp
  00010	c2 04 00	 ret	 4
??8?$_Vector_const_iterator@V?$_Vector_val@UInvenItemInfo@@V?$allocator@UInvenItemInfo@@@std@@@std@@@std@@QBE_NABV01@@Z ENDP ; std::_Vector_const_iterator<std::_Vector_val<InvenItemInfo,std::allocator<InvenItemInfo> > >::operator==
_TEXT	ENDS
PUBLIC	??8?$_Vector_const_iterator@V?$_Vector_val@UEXTRAITEMSLOT@@V?$allocator@UEXTRAITEMSLOT@@@std@@@std@@@std@@QBE_NABV01@@Z ; std::_Vector_const_iterator<std::_Vector_val<EXTRAITEMSLOT,std::allocator<EXTRAITEMSLOT> > >::operator==
; Function compile flags: /Ogsp
;	COMDAT ??8?$_Vector_const_iterator@V?$_Vector_val@UEXTRAITEMSLOT@@V?$allocator@UEXTRAITEMSLOT@@@std@@@std@@@std@@QBE_NABV01@@Z
_TEXT	SEGMENT
__Right$ = 8						; size = 4
??8?$_Vector_const_iterator@V?$_Vector_val@UEXTRAITEMSLOT@@V?$allocator@UEXTRAITEMSLOT@@@std@@@std@@@std@@QBE_NABV01@@Z PROC ; std::_Vector_const_iterator<std::_Vector_val<EXTRAITEMSLOT,std::allocator<EXTRAITEMSLOT> > >::operator==, COMDAT
; _this$ = ecx

; 201  : 		{	// test for iterator equality

  00000	55		 push	 ebp
  00001	8b ec		 mov	 ebp, esp

; 202  : 		_Compat(_Right);
; 203  : 		return (this->_Ptr == _Right._Ptr);

  00003	8b 01		 mov	 eax, DWORD PTR [ecx]
  00005	8b 4d 08	 mov	 ecx, DWORD PTR __Right$[ebp]
  00008	2b 01		 sub	 eax, DWORD PTR [ecx]
  0000a	f7 d8		 neg	 eax
  0000c	1b c0		 sbb	 eax, eax
  0000e	40		 inc	 eax

; 204  : 		}

  0000f	5d		 pop	 ebp
  00010	c2 04 00	 ret	 4
??8?$_Vector_const_iterator@V?$_Vector_val@UEXTRAITEMSLOT@@V?$allocator@UEXTRAITEMSLOT@@@std@@@std@@@std@@QBE_NABV01@@Z ENDP ; std::_Vector_const_iterator<std::_Vector_val<EXTRAITEMSLOT,std::allocator<EXTRAITEMSLOT> > >::operator==
_TEXT	ENDS
PUBLIC	??8?$_Vector_const_iterator@V?$_Vector_val@UNewShopPullDownItem@@V?$allocator@UNewShopPullDownItem@@@std@@@std@@@std@@QBE_NABV01@@Z ; std::_Vector_const_iterator<std::_Vector_val<NewShopPullDownItem,std::allocator<NewShopPullDownItem> > >::operator==
; Function compile flags: /Ogsp
;	COMDAT ??8?$_Vector_const_iterator@V?$_Vector_val@UNewShopPullDownItem@@V?$allocator@UNewShopPullDownItem@@@std@@@std@@@std@@QBE_NABV01@@Z
_TEXT	SEGMENT
__Right$ = 8						; size = 4
??8?$_Vector_const_iterator@V?$_Vector_val@UNewShopPullDownItem@@V?$allocator@UNewShopPullDownItem@@@std@@@std@@@std@@QBE_NABV01@@Z PROC ; std::_Vector_const_iterator<std::_Vector_val<NewShopPullDownItem,std::allocator<NewShopPullDownItem> > >::operator==, COMDAT
; _this$ = ecx

; 201  : 		{	// test for iterator equality

  00000	55		 push	 ebp
  00001	8b ec		 mov	 ebp, esp

; 202  : 		_Compat(_Right);
; 203  : 		return (this->_Ptr == _Right._Ptr);

  00003	8b 01		 mov	 eax, DWORD PTR [ecx]
  00005	8b 4d 08	 mov	 ecx, DWORD PTR __Right$[ebp]
  00008	2b 01		 sub	 eax, DWORD PTR [ecx]
  0000a	f7 d8		 neg	 eax
  0000c	1b c0		 sbb	 eax, eax
  0000e	40		 inc	 eax

; 204  : 		}

  0000f	5d		 pop	 ebp
  00010	c2 04 00	 ret	 4
??8?$_Vector_const_iterator@V?$_Vector_val@UNewShopPullDownItem@@V?$allocator@UNewShopPullDownItem@@@std@@@std@@@std@@QBE_NABV01@@Z ENDP ; std::_Vector_const_iterator<std::_Vector_val<NewShopPullDownItem,std::allocator<NewShopPullDownItem> > >::operator==
_TEXT	ENDS
PUBLIC	??$_Cons_val@V?$allocator@UInvenItemInfo@@@std@@UInvenItemInfo@@AAU3@@std@@YAXAAV?$allocator@UInvenItemInfo@@@0@PAUInvenItemInfo@@AAU2@@Z ; std::_Cons_val<std::allocator<InvenItemInfo>,InvenItemInfo,InvenItemInfo &>
; Function compile flags: /Ogsp
; File c:\program files (x86)\microsoft visual studio 10.0\vc\include\xmemory
;	COMDAT ??$_Cons_val@V?$allocator@UInvenItemInfo@@@std@@UInvenItemInfo@@AAU3@@std@@YAXAAV?$allocator@UInvenItemInfo@@@0@PAUInvenItemInfo@@AAU2@@Z
_TEXT	SEGMENT
__Alval$ = 8						; size = 4
__Pdest$ = 12						; size = 4
__Src$ = 16						; size = 4
??$_Cons_val@V?$allocator@UInvenItemInfo@@@std@@UInvenItemInfo@@AAU3@@std@@YAXAAV?$allocator@UInvenItemInfo@@@0@PAUInvenItemInfo@@AAU2@@Z PROC ; std::_Cons_val<std::allocator<InvenItemInfo>,InvenItemInfo,InvenItemInfo &>, COMDAT

; 279  : 	{	// construct using allocator

  00000	55		 push	 ebp
  00001	8b ec		 mov	 ebp, esp
  00003	57		 push	 edi

; 280  : 	_Alval.construct(_Pdest, _STD forward<_Ty2>(_Src));

  00004	8b 7d 0c	 mov	 edi, DWORD PTR __Pdest$[ebp]
  00007	85 ff		 test	 edi, edi
  00009	74 08		 je	 SHORT $LN7@Cons_val
  0000b	56		 push	 esi
  0000c	8b 75 10	 mov	 esi, DWORD PTR __Src$[ebp]
  0000f	a5		 movsd
  00010	a5		 movsd
  00011	a5		 movsd
  00012	5e		 pop	 esi
$LN7@Cons_val:
  00013	5f		 pop	 edi

; 281  : 	}

  00014	5d		 pop	 ebp
  00015	c3		 ret	 0
??$_Cons_val@V?$allocator@UInvenItemInfo@@@std@@UInvenItemInfo@@AAU3@@std@@YAXAAV?$allocator@UInvenItemInfo@@@0@PAUInvenItemInfo@@AAU2@@Z ENDP ; std::_Cons_val<std::allocator<InvenItemInfo>,InvenItemInfo,InvenItemInfo &>
_TEXT	ENDS
PUBLIC	?construct@?$allocator@UInvenItemInfo@@@std@@QAEXPAUInvenItemInfo@@ABU3@@Z ; std::allocator<InvenItemInfo>::construct
; Function compile flags: /Ogsp
;	COMDAT ?construct@?$allocator@UInvenItemInfo@@@std@@QAEXPAUInvenItemInfo@@ABU3@@Z
_TEXT	SEGMENT
__Ptr$ = 8						; size = 4
__Val$ = 12						; size = 4
?construct@?$allocator@UInvenItemInfo@@@std@@QAEXPAUInvenItemInfo@@ABU3@@Z PROC ; std::allocator<InvenItemInfo>::construct, COMDAT
; _this$ = ecx

; 196  : 		{	// construct object at _Ptr with value _Val

  00000	55		 push	 ebp
  00001	8b ec		 mov	 ebp, esp
  00003	57		 push	 edi

; 197  : 		_Construct(_Ptr, _Val);

  00004	8b 7d 08	 mov	 edi, DWORD PTR __Ptr$[ebp]
  00007	85 ff		 test	 edi, edi
  00009	74 08		 je	 SHORT $LN5@construct@2
  0000b	56		 push	 esi
  0000c	8b 75 0c	 mov	 esi, DWORD PTR __Val$[ebp]
  0000f	a5		 movsd
  00010	a5		 movsd
  00011	a5		 movsd
  00012	5e		 pop	 esi
$LN5@construct@2:
  00013	5f		 pop	 edi

; 198  : 		}

  00014	5d		 pop	 ebp
  00015	c2 08 00	 ret	 8
?construct@?$allocator@UInvenItemInfo@@@std@@QAEXPAUInvenItemInfo@@ABU3@@Z ENDP ; std::allocator<InvenItemInfo>::construct
_TEXT	ENDS
PUBLIC	??G?$_Vector_iterator@V?$_Vector_val@UInvenItemInfo@@V?$allocator@UInvenItemInfo@@@std@@@std@@@std@@QBEHABV?$_Vector_const_iterator@V?$_Vector_val@UInvenItemInfo@@V?$allocator@UInvenItemInfo@@@std@@@std@@@1@@Z ; std::_Vector_iterator<std::_Vector_val<InvenItemInfo,std::allocator<InvenItemInfo> > >::operator-
; Function compile flags: /Ogsp
; File c:\program files (x86)\microsoft visual studio 10.0\vc\include\vector
;	COMDAT ??G?$_Vector_iterator@V?$_Vector_val@UInvenItemInfo@@V?$allocator@UInvenItemInfo@@@std@@@std@@@std@@QBEHABV?$_Vector_const_iterator@V?$_Vector_val@UInvenItemInfo@@V?$allocator@UInvenItemInfo@@@std@@@std@@@1@@Z
_TEXT	SEGMENT
__Right$ = 8						; size = 4
??G?$_Vector_iterator@V?$_Vector_val@UInvenItemInfo@@V?$allocator@UInvenItemInfo@@@std@@@std@@@std@@QBEHABV?$_Vector_const_iterator@V?$_Vector_val@UInvenItemInfo@@V?$allocator@UInvenItemInfo@@@std@@@std@@@1@@Z PROC ; std::_Vector_iterator<std::_Vector_val<InvenItemInfo,std::allocator<InvenItemInfo> > >::operator-, COMDAT
; _this$ = ecx

; 380  : 		{	// return difference of iterators

  00000	55		 push	 ebp
  00001	8b ec		 mov	 ebp, esp

; 381  : 		return (*(_Mybase *)this - _Right);

  00003	8b 01		 mov	 eax, DWORD PTR [ecx]
  00005	8b 4d 08	 mov	 ecx, DWORD PTR __Right$[ebp]
  00008	2b 01		 sub	 eax, DWORD PTR [ecx]
  0000a	6a 0c		 push	 12			; 0000000cH
  0000c	99		 cdq
  0000d	59		 pop	 ecx
  0000e	f7 f9		 idiv	 ecx

; 382  : 		}

  00010	5d		 pop	 ebp
  00011	c2 04 00	 ret	 4
??G?$_Vector_iterator@V?$_Vector_val@UInvenItemInfo@@V?$allocator@UInvenItemInfo@@@std@@@std@@@std@@QBEHABV?$_Vector_const_iterator@V?$_Vector_val@UInvenItemInfo@@V?$allocator@UInvenItemInfo@@@std@@@std@@@1@@Z ENDP ; std::_Vector_iterator<std::_Vector_val<InvenItemInfo,std::allocator<InvenItemInfo> > >::operator-
_TEXT	ENDS
PUBLIC	??$_Unchecked@V?$_Vector_val@UInvenItemInfo@@V?$allocator@UInvenItemInfo@@@std@@@std@@@std@@YAPAUInvenItemInfo@@V?$_Vector_iterator@V?$_Vector_val@UInvenItemInfo@@V?$allocator@UInvenItemInfo@@@std@@@std@@@0@@Z ; std::_Unchecked<std::_Vector_val<InvenItemInfo,std::allocator<InvenItemInfo> > >
; Function compile flags: /Ogsp
;	COMDAT ??$_Unchecked@V?$_Vector_val@UInvenItemInfo@@V?$allocator@UInvenItemInfo@@@std@@@std@@@std@@YAPAUInvenItemInfo@@V?$_Vector_iterator@V?$_Vector_val@UInvenItemInfo@@V?$allocator@UInvenItemInfo@@@std@@@std@@@0@@Z
_TEXT	SEGMENT
__Iter$ = 8						; size = 4
??$_Unchecked@V?$_Vector_val@UInvenItemInfo@@V?$allocator@UInvenItemInfo@@@std@@@std@@@std@@YAPAUInvenItemInfo@@V?$_Vector_iterator@V?$_Vector_val@UInvenItemInfo@@V?$allocator@UInvenItemInfo@@@std@@@std@@@0@@Z PROC ; std::_Unchecked<std::_Vector_val<InvenItemInfo,std::allocator<InvenItemInfo> > >, COMDAT

; 393  : 	{	// convert to unchecked

  00000	55		 push	 ebp
  00001	8b ec		 mov	 ebp, esp

; 394  : 	return (_Iter._Unchecked());

  00003	8b 45 08	 mov	 eax, DWORD PTR __Iter$[ebp]

; 395  : 	}

  00006	5d		 pop	 ebp
  00007	c3		 ret	 0
??$_Unchecked@V?$_Vector_val@UInvenItemInfo@@V?$allocator@UInvenItemInfo@@@std@@@std@@@std@@YAPAUInvenItemInfo@@V?$_Vector_iterator@V?$_Vector_val@UInvenItemInfo@@V?$allocator@UInvenItemInfo@@@std@@@std@@@0@@Z ENDP ; std::_Unchecked<std::_Vector_val<InvenItemInfo,std::allocator<InvenItemInfo> > >
_TEXT	ENDS
PUBLIC	??$construct@AAUEXTRAITEMSLOT@@@?$allocator@UEXTRAITEMSLOT@@@std@@QAEXPAUEXTRAITEMSLOT@@AAU2@@Z ; std::allocator<EXTRAITEMSLOT>::construct<EXTRAITEMSLOT &>
;	COMDAT xdata$x
; File c:\program files (x86)\microsoft visual studio 10.0\vc\include\utility
xdata$x	SEGMENT
__unwindtable$??$construct@AAUEXTRAITEMSLOT@@@?$allocator@UEXTRAITEMSLOT@@@std@@QAEXPAUEXTRAITEMSLOT@@AAU2@@Z DD 0ffffffffH
	DD	FLAT:__unwindfunclet$??$construct@AAUEXTRAITEMSLOT@@@?$allocator@UEXTRAITEMSLOT@@@std@@QAEXPAUEXTRAITEMSLOT@@AAU2@@Z$0
__ehfuncinfo$??$construct@AAUEXTRAITEMSLOT@@@?$allocator@UEXTRAITEMSLOT@@@std@@QAEXPAUEXTRAITEMSLOT@@AAU2@@Z DD 019930522H
	DD	01H
	DD	FLAT:__unwindtable$??$construct@AAUEXTRAITEMSLOT@@@?$allocator@UEXTRAITEMSLOT@@@std@@QAEXPAUEXTRAITEMSLOT@@AAU2@@Z
	DD	2 DUP(00H)
	DD	2 DUP(00H)
	DD	00H
	DD	01H
; Function compile flags: /Ogsp
; File c:\program files (x86)\microsoft visual studio 10.0\vc\include\xmemory
xdata$x	ENDS
;	COMDAT ??$construct@AAUEXTRAITEMSLOT@@@?$allocator@UEXTRAITEMSLOT@@@std@@QAEXPAUEXTRAITEMSLOT@@AAU2@@Z
_TEXT	SEGMENT
$T515683 = -16						; size = 4
__$EHRec$ = -12						; size = 12
__Ptr$ = 8						; size = 4
__Val$ = 12						; size = 4
??$construct@AAUEXTRAITEMSLOT@@@?$allocator@UEXTRAITEMSLOT@@@std@@QAEXPAUEXTRAITEMSLOT@@AAU2@@Z PROC ; std::allocator<EXTRAITEMSLOT>::construct<EXTRAITEMSLOT &>, COMDAT
; _this$ = ecx

; 206  : 		void construct(pointer _Ptr, _Other&& _Val)

  00000	6a 04		 push	 4
  00002	b8 00 00 00 00	 mov	 eax, __ehhandler$??$construct@AAUEXTRAITEMSLOT@@@?$allocator@UEXTRAITEMSLOT@@@std@@QAEXPAUEXTRAITEMSLOT@@AAU2@@Z
  00007	e8 00 00 00 00	 call	 __EH_prolog3

; 207  : 		{	// construct object at _Ptr with value _Val
; 208  : 		::new ((void _FARQ *)_Ptr) _Ty(_STD forward<_Other>(_Val));

  0000c	8b 4d 08	 mov	 ecx, DWORD PTR __Ptr$[ebp]
  0000f	89 4d f0	 mov	 DWORD PTR $T515683[ebp], ecx
  00012	83 65 fc 00	 and	 DWORD PTR __$EHRec$[ebp+8], 0
  00016	85 c9		 test	 ecx, ecx
  00018	74 08		 je	 SHORT $LN3@construct@3
  0001a	ff 75 0c	 push	 DWORD PTR __Val$[ebp]
  0001d	e8 00 00 00 00	 call	 ??0EXTRAITEMSLOT@@QAE@ABU0@@Z
$LN3@construct@3:

; 209  : 		}

  00022	e8 00 00 00 00	 call	 __EH_epilog3
  00027	c2 08 00	 ret	 8
_TEXT	ENDS
;	COMDAT text$x
text$x	SEGMENT
__unwindfunclet$??$construct@AAUEXTRAITEMSLOT@@@?$allocator@UEXTRAITEMSLOT@@@std@@QAEXPAUEXTRAITEMSLOT@@AAU2@@Z$0:
  00000	ff 75 08	 push	 DWORD PTR __Ptr$[ebp]
  00003	ff 75 f0	 push	 DWORD PTR $T515683[ebp]
  00006	e8 00 00 00 00	 call	 ??3@YAXPAX0@Z		; operator delete
  0000b	59		 pop	 ecx
  0000c	59		 pop	 ecx
  0000d	c3		 ret	 0
__ehhandler$??$construct@AAUEXTRAITEMSLOT@@@?$allocator@UEXTRAITEMSLOT@@@std@@QAEXPAUEXTRAITEMSLOT@@AAU2@@Z:
  0000e	8b 54 24 08	 mov	 edx, DWORD PTR [esp+8]
  00012	8d 42 0c	 lea	 eax, DWORD PTR [edx+12]
  00015	8b 4a ec	 mov	 ecx, DWORD PTR [edx-20]
  00018	33 c8		 xor	 ecx, eax
  0001a	e8 00 00 00 00	 call	 @__security_check_cookie@4
  0001f	b8 00 00 00 00	 mov	 eax, OFFSET __ehfuncinfo$??$construct@AAUEXTRAITEMSLOT@@@?$allocator@UEXTRAITEMSLOT@@@std@@QAEXPAUEXTRAITEMSLOT@@AAU2@@Z
  00024	e9 00 00 00 00	 jmp	 ___CxxFrameHandler3
text$x	ENDS
??$construct@AAUEXTRAITEMSLOT@@@?$allocator@UEXTRAITEMSLOT@@@std@@QAEXPAUEXTRAITEMSLOT@@AAU2@@Z ENDP ; std::allocator<EXTRAITEMSLOT>::construct<EXTRAITEMSLOT &>
PUBLIC	??$construct@AAUNewShopPullDownItem@@@?$allocator@UNewShopPullDownItem@@@std@@QAEXPAUNewShopPullDownItem@@AAU2@@Z ; std::allocator<NewShopPullDownItem>::construct<NewShopPullDownItem &>
;	COMDAT xdata$x
; File c:\program files (x86)\microsoft visual studio 10.0\vc\include\utility
xdata$x	SEGMENT
__unwindtable$??$construct@AAUNewShopPullDownItem@@@?$allocator@UNewShopPullDownItem@@@std@@QAEXPAUNewShopPullDownItem@@AAU2@@Z DD 0ffffffffH
	DD	FLAT:__unwindfunclet$??$construct@AAUNewShopPullDownItem@@@?$allocator@UNewShopPullDownItem@@@std@@QAEXPAUNewShopPullDownItem@@AAU2@@Z$0
__ehfuncinfo$??$construct@AAUNewShopPullDownItem@@@?$allocator@UNewShopPullDownItem@@@std@@QAEXPAUNewShopPullDownItem@@AAU2@@Z DD 019930522H
	DD	01H
	DD	FLAT:__unwindtable$??$construct@AAUNewShopPullDownItem@@@?$allocator@UNewShopPullDownItem@@@std@@QAEXPAUNewShopPullDownItem@@AAU2@@Z
	DD	2 DUP(00H)
	DD	2 DUP(00H)
	DD	00H
	DD	01H
; Function compile flags: /Ogsp
; File c:\program files (x86)\microsoft visual studio 10.0\vc\include\xmemory
xdata$x	ENDS
;	COMDAT ??$construct@AAUNewShopPullDownItem@@@?$allocator@UNewShopPullDownItem@@@std@@QAEXPAUNewShopPullDownItem@@AAU2@@Z
_TEXT	SEGMENT
$T515702 = -16						; size = 4
__$EHRec$ = -12						; size = 12
__Ptr$ = 8						; size = 4
__Val$ = 12						; size = 4
??$construct@AAUNewShopPullDownItem@@@?$allocator@UNewShopPullDownItem@@@std@@QAEXPAUNewShopPullDownItem@@AAU2@@Z PROC ; std::allocator<NewShopPullDownItem>::construct<NewShopPullDownItem &>, COMDAT
; _this$ = ecx

; 206  : 		void construct(pointer _Ptr, _Other&& _Val)

  00000	6a 04		 push	 4
  00002	b8 00 00 00 00	 mov	 eax, __ehhandler$??$construct@AAUNewShopPullDownItem@@@?$allocator@UNewShopPullDownItem@@@std@@QAEXPAUNewShopPullDownItem@@AAU2@@Z
  00007	e8 00 00 00 00	 call	 __EH_prolog3

; 207  : 		{	// construct object at _Ptr with value _Val
; 208  : 		::new ((void _FARQ *)_Ptr) _Ty(_STD forward<_Other>(_Val));

  0000c	8b 4d 08	 mov	 ecx, DWORD PTR __Ptr$[ebp]
  0000f	89 4d f0	 mov	 DWORD PTR $T515702[ebp], ecx
  00012	83 65 fc 00	 and	 DWORD PTR __$EHRec$[ebp+8], 0
  00016	85 c9		 test	 ecx, ecx
  00018	74 08		 je	 SHORT $LN3@construct@4
  0001a	ff 75 0c	 push	 DWORD PTR __Val$[ebp]
  0001d	e8 00 00 00 00	 call	 ??0NewShopPullDownItem@@QAE@ABU0@@Z
$LN3@construct@4:

; 209  : 		}

  00022	e8 00 00 00 00	 call	 __EH_epilog3
  00027	c2 08 00	 ret	 8
_TEXT	ENDS
;	COMDAT text$x
text$x	SEGMENT
__unwindfunclet$??$construct@AAUNewShopPullDownItem@@@?$allocator@UNewShopPullDownItem@@@std@@QAEXPAUNewShopPullDownItem@@AAU2@@Z$0:
  00000	ff 75 08	 push	 DWORD PTR __Ptr$[ebp]
  00003	ff 75 f0	 push	 DWORD PTR $T515702[ebp]
  00006	e8 00 00 00 00	 call	 ??3@YAXPAX0@Z		; operator delete
  0000b	59		 pop	 ecx
  0000c	59		 pop	 ecx
  0000d	c3		 ret	 0
__ehhandler$??$construct@AAUNewShopPullDownItem@@@?$allocator@UNewShopPullDownItem@@@std@@QAEXPAUNewShopPullDownItem@@AAU2@@Z:
  0000e	8b 54 24 08	 mov	 edx, DWORD PTR [esp+8]
  00012	8d 42 0c	 lea	 eax, DWORD PTR [edx+12]
  00015	8b 4a ec	 mov	 ecx, DWORD PTR [edx-20]
  00018	33 c8		 xor	 ecx, eax
  0001a	e8 00 00 00 00	 call	 @__security_check_cookie@4
  0001f	b8 00 00 00 00	 mov	 eax, OFFSET __ehfuncinfo$??$construct@AAUNewShopPullDownItem@@@?$allocator@UNewShopPullDownItem@@@std@@QAEXPAUNewShopPullDownItem@@AAU2@@Z
  00024	e9 00 00 00 00	 jmp	 ___CxxFrameHandler3
text$x	ENDS
??$construct@AAUNewShopPullDownItem@@@?$allocator@UNewShopPullDownItem@@@std@@QAEXPAUNewShopPullDownItem@@AAU2@@Z ENDP ; std::allocator<NewShopPullDownItem>::construct<NewShopPullDownItem &>
PUBLIC	??$_Move@PAUEXTRAITEMSLOT@@PAU1@@std@@YAPAUEXTRAITEMSLOT@@PAU1@00U_Nonscalar_ptr_iterator_tag@0@@Z ; std::_Move<EXTRAITEMSLOT *,EXTRAITEMSLOT *>
; Function compile flags: /Ogsp
; File c:\program files (x86)\microsoft visual studio 10.0\vc\include\xutility
;	COMDAT ??$_Move@PAUEXTRAITEMSLOT@@PAU1@@std@@YAPAUEXTRAITEMSLOT@@PAU1@00U_Nonscalar_ptr_iterator_tag@0@@Z
_TEXT	SEGMENT
__First$ = 8						; size = 4
__Last$ = 12						; size = 4
__Dest$ = 16						; size = 4
___formal$ = 20						; size = 1
??$_Move@PAUEXTRAITEMSLOT@@PAU1@@std@@YAPAUEXTRAITEMSLOT@@PAU1@00U_Nonscalar_ptr_iterator_tag@0@@Z PROC ; std::_Move<EXTRAITEMSLOT *,EXTRAITEMSLOT *>, COMDAT

; 2512 : 	{	// move [_First, _Last) to [_Dest, ...), arbitrary iterators

  00000	55		 push	 ebp
  00001	8b ec		 mov	 ebp, esp
  00003	56		 push	 esi

; 2513 : 	for (; _First != _Last; ++_Dest, ++_First)

  00004	8b 75 08	 mov	 esi, DWORD PTR __First$[ebp]
  00007	eb 10		 jmp	 SHORT $LN11@Move
$LL3@Move:

; 2514 : 		*_Dest = _STD move(*_First);

  00009	8b 4d 10	 mov	 ecx, DWORD PTR __Dest$[ebp]
  0000c	56		 push	 esi
  0000d	e8 00 00 00 00	 call	 ??4EXTRAITEMSLOT@@QAEAAU0@ABU0@@Z
  00012	83 45 10 48	 add	 DWORD PTR __Dest$[ebp], 72 ; 00000048H
  00016	83 c6 48	 add	 esi, 72			; 00000048H
$LN11@Move:

; 2513 : 	for (; _First != _Last; ++_Dest, ++_First)

  00019	3b 75 0c	 cmp	 esi, DWORD PTR __Last$[ebp]
  0001c	75 eb		 jne	 SHORT $LL3@Move

; 2515 : 	return (_Dest);

  0001e	8b 45 10	 mov	 eax, DWORD PTR __Dest$[ebp]
  00021	5e		 pop	 esi

; 2516 : 	}

  00022	5d		 pop	 ebp
  00023	c3		 ret	 0
??$_Move@PAUEXTRAITEMSLOT@@PAU1@@std@@YAPAUEXTRAITEMSLOT@@PAU1@00U_Nonscalar_ptr_iterator_tag@0@@Z ENDP ; std::_Move<EXTRAITEMSLOT *,EXTRAITEMSLOT *>
_TEXT	ENDS
PUBLIC	??$_Move@PAUNewShopPullDownItem@@PAU1@@std@@YAPAUNewShopPullDownItem@@PAU1@00U_Nonscalar_ptr_iterator_tag@0@@Z ; std::_Move<NewShopPullDownItem *,NewShopPullDownItem *>
; Function compile flags: /Ogsp
;	COMDAT ??$_Move@PAUNewShopPullDownItem@@PAU1@@std@@YAPAUNewShopPullDownItem@@PAU1@00U_Nonscalar_ptr_iterator_tag@0@@Z
_TEXT	SEGMENT
__First$ = 8						; size = 4
__Last$ = 12						; size = 4
__Dest$ = 16						; size = 4
___formal$ = 20						; size = 1
??$_Move@PAUNewShopPullDownItem@@PAU1@@std@@YAPAUNewShopPullDownItem@@PAU1@00U_Nonscalar_ptr_iterator_tag@0@@Z PROC ; std::_Move<NewShopPullDownItem *,NewShopPullDownItem *>, COMDAT

; 2512 : 	{	// move [_First, _Last) to [_Dest, ...), arbitrary iterators

  00000	55		 push	 ebp
  00001	8b ec		 mov	 ebp, esp
  00003	56		 push	 esi

; 2513 : 	for (; _First != _Last; ++_Dest, ++_First)

  00004	8b 75 08	 mov	 esi, DWORD PTR __First$[ebp]
  00007	eb 10		 jmp	 SHORT $LN11@Move@2
$LL3@Move@2:

; 2514 : 		*_Dest = _STD move(*_First);

  00009	8b 4d 10	 mov	 ecx, DWORD PTR __Dest$[ebp]
  0000c	56		 push	 esi
  0000d	e8 00 00 00 00	 call	 ??4NewShopPullDownItem@@QAEAAU0@ABU0@@Z
  00012	83 45 10 50	 add	 DWORD PTR __Dest$[ebp], 80 ; 00000050H
  00016	83 c6 50	 add	 esi, 80			; 00000050H
$LN11@Move@2:

; 2513 : 	for (; _First != _Last; ++_Dest, ++_First)

  00019	3b 75 0c	 cmp	 esi, DWORD PTR __Last$[ebp]
  0001c	75 eb		 jne	 SHORT $LL3@Move@2

; 2515 : 	return (_Dest);

  0001e	8b 45 10	 mov	 eax, DWORD PTR __Dest$[ebp]
  00021	5e		 pop	 esi

; 2516 : 	}

  00022	5d		 pop	 ebp
  00023	c3		 ret	 0
??$_Move@PAUNewShopPullDownItem@@PAU1@@std@@YAPAUNewShopPullDownItem@@PAU1@00U_Nonscalar_ptr_iterator_tag@0@@Z ENDP ; std::_Move<NewShopPullDownItem *,NewShopPullDownItem *>
_TEXT	ENDS
PUBLIC	??$_Move@PAUInvenItemInfo@@PAU1@@std@@YAPAUInvenItemInfo@@PAU1@00U_Nonscalar_ptr_iterator_tag@0@@Z ; std::_Move<InvenItemInfo *,InvenItemInfo *>
; Function compile flags: /Ogsp
;	COMDAT ??$_Move@PAUInvenItemInfo@@PAU1@@std@@YAPAUInvenItemInfo@@PAU1@00U_Nonscalar_ptr_iterator_tag@0@@Z
_TEXT	SEGMENT
__First$ = 8						; size = 4
__Last$ = 12						; size = 4
__Dest$ = 16						; size = 4
___formal$ = 20						; size = 1
??$_Move@PAUInvenItemInfo@@PAU1@@std@@YAPAUInvenItemInfo@@PAU1@00U_Nonscalar_ptr_iterator_tag@0@@Z PROC ; std::_Move<InvenItemInfo *,InvenItemInfo *>, COMDAT

; 2512 : 	{	// move [_First, _Last) to [_Dest, ...), arbitrary iterators

  00000	55		 push	 ebp
  00001	8b ec		 mov	 ebp, esp

; 2513 : 	for (; _First != _Last; ++_Dest, ++_First)

  00003	8b 45 08	 mov	 eax, DWORD PTR __First$[ebp]
  00006	3b 45 0c	 cmp	 eax, DWORD PTR __Last$[ebp]
  00009	74 18		 je	 SHORT $LN10@Move@3
  0000b	56		 push	 esi
  0000c	57		 push	 edi
$LL3@Move@3:

; 2514 : 		*_Dest = _STD move(*_First);

  0000d	8b 7d 10	 mov	 edi, DWORD PTR __Dest$[ebp]
  00010	83 45 10 0c	 add	 DWORD PTR __Dest$[ebp], 12 ; 0000000cH
  00014	8b f0		 mov	 esi, eax
  00016	a5		 movsd
  00017	a5		 movsd
  00018	83 c0 0c	 add	 eax, 12			; 0000000cH
  0001b	a5		 movsd
  0001c	3b 45 0c	 cmp	 eax, DWORD PTR __Last$[ebp]
  0001f	75 ec		 jne	 SHORT $LL3@Move@3
  00021	5f		 pop	 edi
  00022	5e		 pop	 esi
$LN10@Move@3:

; 2515 : 	return (_Dest);

  00023	8b 45 10	 mov	 eax, DWORD PTR __Dest$[ebp]

; 2516 : 	}

  00026	5d		 pop	 ebp
  00027	c3		 ret	 0
??$_Move@PAUInvenItemInfo@@PAU1@@std@@YAPAUInvenItemInfo@@PAU1@00U_Nonscalar_ptr_iterator_tag@0@@Z ENDP ; std::_Move<InvenItemInfo *,InvenItemInfo *>
_TEXT	ENDS
PUBLIC	??$_Construct@UEXTRAITEMSLOT@@ABU1@@std@@YAXPAUEXTRAITEMSLOT@@ABU1@@Z ; std::_Construct<EXTRAITEMSLOT,EXTRAITEMSLOT const &>
;	COMDAT xdata$x
; File c:\program files (x86)\microsoft visual studio 10.0\vc\include\utility
xdata$x	SEGMENT
__unwindtable$??$_Construct@UEXTRAITEMSLOT@@ABU1@@std@@YAXPAUEXTRAITEMSLOT@@ABU1@@Z DD 0ffffffffH
	DD	FLAT:__unwindfunclet$??$_Construct@UEXTRAITEMSLOT@@ABU1@@std@@YAXPAUEXTRAITEMSLOT@@ABU1@@Z$0
__ehfuncinfo$??$_Construct@UEXTRAITEMSLOT@@ABU1@@std@@YAXPAUEXTRAITEMSLOT@@ABU1@@Z DD 019930522H
	DD	01H
	DD	FLAT:__unwindtable$??$_Construct@UEXTRAITEMSLOT@@ABU1@@std@@YAXPAUEXTRAITEMSLOT@@ABU1@@Z
	DD	2 DUP(00H)
	DD	2 DUP(00H)
	DD	00H
	DD	01H
; Function compile flags: /Ogsp
; File c:\program files (x86)\microsoft visual studio 10.0\vc\include\xmemory
xdata$x	ENDS
;	COMDAT ??$_Construct@UEXTRAITEMSLOT@@ABU1@@std@@YAXPAUEXTRAITEMSLOT@@ABU1@@Z
_TEXT	SEGMENT
$T515747 = -16						; size = 4
__$EHRec$ = -12						; size = 12
__Vptr$ = 8						; size = 4
__Ptr$ = 8						; size = 4
__Val$ = 12						; size = 4
??$_Construct@UEXTRAITEMSLOT@@ABU1@@std@@YAXPAUEXTRAITEMSLOT@@ABU1@@Z PROC ; std::_Construct<EXTRAITEMSLOT,EXTRAITEMSLOT const &>, COMDAT

; 46   : 	{	// construct object at _Ptr with value _Val

  00000	6a 04		 push	 4
  00002	b8 00 00 00 00	 mov	 eax, __ehhandler$??$_Construct@UEXTRAITEMSLOT@@ABU1@@std@@YAXPAUEXTRAITEMSLOT@@ABU1@@Z
  00007	e8 00 00 00 00	 call	 __EH_prolog3

; 47   : 	void _FARQ *_Vptr = _Ptr;

  0000c	8b 4d 08	 mov	 ecx, DWORD PTR __Ptr$[ebp]
  0000f	89 4d 08	 mov	 DWORD PTR __Vptr$[ebp], ecx

; 48   : 	::new (_Vptr) _Ty1(_STD forward<_Ty2>(_Val));

  00012	89 4d f0	 mov	 DWORD PTR $T515747[ebp], ecx
  00015	83 65 fc 00	 and	 DWORD PTR __$EHRec$[ebp+8], 0
  00019	85 c9		 test	 ecx, ecx
  0001b	74 08		 je	 SHORT $LN3@Construct@2
  0001d	ff 75 0c	 push	 DWORD PTR __Val$[ebp]
  00020	e8 00 00 00 00	 call	 ??0EXTRAITEMSLOT@@QAE@ABU0@@Z
$LN3@Construct@2:

; 49   : 	}

  00025	e8 00 00 00 00	 call	 __EH_epilog3
  0002a	c3		 ret	 0
_TEXT	ENDS
;	COMDAT text$x
text$x	SEGMENT
__unwindfunclet$??$_Construct@UEXTRAITEMSLOT@@ABU1@@std@@YAXPAUEXTRAITEMSLOT@@ABU1@@Z$0:
  00000	ff 75 08	 push	 DWORD PTR __Vptr$[ebp]
  00003	ff 75 f0	 push	 DWORD PTR $T515747[ebp]
  00006	e8 00 00 00 00	 call	 ??3@YAXPAX0@Z		; operator delete
  0000b	59		 pop	 ecx
  0000c	59		 pop	 ecx
  0000d	c3		 ret	 0
__ehhandler$??$_Construct@UEXTRAITEMSLOT@@ABU1@@std@@YAXPAUEXTRAITEMSLOT@@ABU1@@Z:
  0000e	8b 54 24 08	 mov	 edx, DWORD PTR [esp+8]
  00012	8d 42 0c	 lea	 eax, DWORD PTR [edx+12]
  00015	8b 4a ec	 mov	 ecx, DWORD PTR [edx-20]
  00018	33 c8		 xor	 ecx, eax
  0001a	e8 00 00 00 00	 call	 @__security_check_cookie@4
  0001f	b8 00 00 00 00	 mov	 eax, OFFSET __ehfuncinfo$??$_Construct@UEXTRAITEMSLOT@@ABU1@@std@@YAXPAUEXTRAITEMSLOT@@ABU1@@Z
  00024	e9 00 00 00 00	 jmp	 ___CxxFrameHandler3
text$x	ENDS
??$_Construct@UEXTRAITEMSLOT@@ABU1@@std@@YAXPAUEXTRAITEMSLOT@@ABU1@@Z ENDP ; std::_Construct<EXTRAITEMSLOT,EXTRAITEMSLOT const &>
PUBLIC	??$_Construct@UNewShopPullDownItem@@ABU1@@std@@YAXPAUNewShopPullDownItem@@ABU1@@Z ; std::_Construct<NewShopPullDownItem,NewShopPullDownItem const &>
;	COMDAT xdata$x
; File c:\program files (x86)\microsoft visual studio 10.0\vc\include\utility
xdata$x	SEGMENT
__unwindtable$??$_Construct@UNewShopPullDownItem@@ABU1@@std@@YAXPAUNewShopPullDownItem@@ABU1@@Z DD 0ffffffffH
	DD	FLAT:__unwindfunclet$??$_Construct@UNewShopPullDownItem@@ABU1@@std@@YAXPAUNewShopPullDownItem@@ABU1@@Z$0
__ehfuncinfo$??$_Construct@UNewShopPullDownItem@@ABU1@@std@@YAXPAUNewShopPullDownItem@@ABU1@@Z DD 019930522H
	DD	01H
	DD	FLAT:__unwindtable$??$_Construct@UNewShopPullDownItem@@ABU1@@std@@YAXPAUNewShopPullDownItem@@ABU1@@Z
	DD	2 DUP(00H)
	DD	2 DUP(00H)
	DD	00H
	DD	01H
; Function compile flags: /Ogsp
; File c:\program files (x86)\microsoft visual studio 10.0\vc\include\xmemory
xdata$x	ENDS
;	COMDAT ??$_Construct@UNewShopPullDownItem@@ABU1@@std@@YAXPAUNewShopPullDownItem@@ABU1@@Z
_TEXT	SEGMENT
$T515766 = -16						; size = 4
__$EHRec$ = -12						; size = 12
__Vptr$ = 8						; size = 4
__Ptr$ = 8						; size = 4
__Val$ = 12						; size = 4
??$_Construct@UNewShopPullDownItem@@ABU1@@std@@YAXPAUNewShopPullDownItem@@ABU1@@Z PROC ; std::_Construct<NewShopPullDownItem,NewShopPullDownItem const &>, COMDAT

; 46   : 	{	// construct object at _Ptr with value _Val

  00000	6a 04		 push	 4
  00002	b8 00 00 00 00	 mov	 eax, __ehhandler$??$_Construct@UNewShopPullDownItem@@ABU1@@std@@YAXPAUNewShopPullDownItem@@ABU1@@Z
  00007	e8 00 00 00 00	 call	 __EH_prolog3

; 47   : 	void _FARQ *_Vptr = _Ptr;

  0000c	8b 4d 08	 mov	 ecx, DWORD PTR __Ptr$[ebp]
  0000f	89 4d 08	 mov	 DWORD PTR __Vptr$[ebp], ecx

; 48   : 	::new (_Vptr) _Ty1(_STD forward<_Ty2>(_Val));

  00012	89 4d f0	 mov	 DWORD PTR $T515766[ebp], ecx
  00015	83 65 fc 00	 and	 DWORD PTR __$EHRec$[ebp+8], 0
  00019	85 c9		 test	 ecx, ecx
  0001b	74 08		 je	 SHORT $LN3@Construct@3
  0001d	ff 75 0c	 push	 DWORD PTR __Val$[ebp]
  00020	e8 00 00 00 00	 call	 ??0NewShopPullDownItem@@QAE@ABU0@@Z
$LN3@Construct@3:

; 49   : 	}

  00025	e8 00 00 00 00	 call	 __EH_epilog3
  0002a	c3		 ret	 0
_TEXT	ENDS
;	COMDAT text$x
text$x	SEGMENT
__unwindfunclet$??$_Construct@UNewShopPullDownItem@@ABU1@@std@@YAXPAUNewShopPullDownItem@@ABU1@@Z$0:
  00000	ff 75 08	 push	 DWORD PTR __Vptr$[ebp]
  00003	ff 75 f0	 push	 DWORD PTR $T515766[ebp]
  00006	e8 00 00 00 00	 call	 ??3@YAXPAX0@Z		; operator delete
  0000b	59		 pop	 ecx
  0000c	59		 pop	 ecx
  0000d	c3		 ret	 0
__ehhandler$??$_Construct@UNewShopPullDownItem@@ABU1@@std@@YAXPAUNewShopPullDownItem@@ABU1@@Z:
  0000e	8b 54 24 08	 mov	 edx, DWORD PTR [esp+8]
  00012	8d 42 0c	 lea	 eax, DWORD PTR [edx+12]
  00015	8b 4a ec	 mov	 ecx, DWORD PTR [edx-20]
  00018	33 c8		 xor	 ecx, eax
  0001a	e8 00 00 00 00	 call	 @__security_check_cookie@4
  0001f	b8 00 00 00 00	 mov	 eax, OFFSET __ehfuncinfo$??$_Construct@UNewShopPullDownItem@@ABU1@@std@@YAXPAUNewShopPullDownItem@@ABU1@@Z
  00024	e9 00 00 00 00	 jmp	 ___CxxFrameHandler3
text$x	ENDS
??$_Construct@UNewShopPullDownItem@@ABU1@@std@@YAXPAUNewShopPullDownItem@@ABU1@@Z ENDP ; std::_Construct<NewShopPullDownItem,NewShopPullDownItem const &>
PUBLIC	?destroy@?$allocator@UInvenItemInfo@@@std@@QAEXPAUInvenItemInfo@@@Z ; std::allocator<InvenItemInfo>::destroy
; Function compile flags: /Ogsp
;	COMDAT ?destroy@?$allocator@UInvenItemInfo@@@std@@QAEXPAUInvenItemInfo@@@Z
_TEXT	SEGMENT
__Ptr$ = 8						; size = 4
?destroy@?$allocator@UInvenItemInfo@@@std@@QAEXPAUInvenItemInfo@@@Z PROC ; std::allocator<InvenItemInfo>::destroy, COMDAT
; _this$ = ecx

; 213  : 		_Destroy(_Ptr);
; 214  : 		}

  00000	c2 04 00	 ret	 4
?destroy@?$allocator@UInvenItemInfo@@@std@@QAEXPAUInvenItemInfo@@@Z ENDP ; std::allocator<InvenItemInfo>::destroy
_TEXT	ENDS
PUBLIC	??$?0AAPAUInvenItemInfo@@AAPAU0@@?$pair@PAUInvenItemInfo@@PAU1@@std@@QAE@AAPAUInvenItemInfo@@0@Z ; std::pair<InvenItemInfo *,InvenItemInfo *>::pair<InvenItemInfo *,InvenItemInfo *><InvenItemInfo * &,InvenItemInfo * &>
; Function compile flags: /Ogsp
; File c:\program files (x86)\microsoft visual studio 10.0\vc\include\utility
;	COMDAT ??$?0AAPAUInvenItemInfo@@AAPAU0@@?$pair@PAUInvenItemInfo@@PAU1@@std@@QAE@AAPAUInvenItemInfo@@0@Z
_TEXT	SEGMENT
__Val1$ = 8						; size = 4
__Val2$ = 12						; size = 4
??$?0AAPAUInvenItemInfo@@AAPAU0@@?$pair@PAUInvenItemInfo@@PAU1@@std@@QAE@AAPAUInvenItemInfo@@0@Z PROC ; std::pair<InvenItemInfo *,InvenItemInfo *>::pair<InvenItemInfo *,InvenItemInfo *><InvenItemInfo * &,InvenItemInfo * &>, COMDAT
; _this$ = ecx

; 247  : 		{	// construct from moved values

  00000	55		 push	 ebp
  00001	8b ec		 mov	 ebp, esp
  00003	8b c1		 mov	 eax, ecx
  00005	8b 4d 08	 mov	 ecx, DWORD PTR __Val1$[ebp]
  00008	8b 09		 mov	 ecx, DWORD PTR [ecx]
  0000a	89 08		 mov	 DWORD PTR [eax], ecx
  0000c	8b 4d 0c	 mov	 ecx, DWORD PTR __Val2$[ebp]
  0000f	8b 09		 mov	 ecx, DWORD PTR [ecx]
  00011	89 48 04	 mov	 DWORD PTR [eax+4], ecx

; 248  : 		}

  00014	5d		 pop	 ebp
  00015	c2 08 00	 ret	 8
??$?0AAPAUInvenItemInfo@@AAPAU0@@?$pair@PAUInvenItemInfo@@PAU1@@std@@QAE@AAPAUInvenItemInfo@@0@Z ENDP ; std::pair<InvenItemInfo *,InvenItemInfo *>::pair<InvenItemInfo *,InvenItemInfo *><InvenItemInfo * &,InvenItemInfo * &>
_TEXT	ENDS
PUBLIC	??$_Destroy@UEXTRAITEMSLOT@@@std@@YAXPAUEXTRAITEMSLOT@@@Z ; std::_Destroy<EXTRAITEMSLOT>
; Function compile flags: /Ogsp
; File c:\program files (x86)\microsoft visual studio 10.0\vc\include\xmemory
;	COMDAT ??$_Destroy@UEXTRAITEMSLOT@@@std@@YAXPAUEXTRAITEMSLOT@@@Z
_TEXT	SEGMENT
__Ptr$ = 8						; size = 4
??$_Destroy@UEXTRAITEMSLOT@@@std@@YAXPAUEXTRAITEMSLOT@@@Z PROC ; std::_Destroy<EXTRAITEMSLOT>, COMDAT

; 62   : 	{	// destroy object at _Ptr

  00000	55		 push	 ebp
  00001	8b ec		 mov	 ebp, esp

; 63   : 	_Ptr->~_Ty();

  00003	8b 4d 08	 mov	 ecx, DWORD PTR __Ptr$[ebp]

; 64   : 	}

  00006	5d		 pop	 ebp

; 63   : 	_Ptr->~_Ty();

  00007	e9 00 00 00 00	 jmp	 ??1EXTRAITEMSLOT@@QAE@XZ
??$_Destroy@UEXTRAITEMSLOT@@@std@@YAXPAUEXTRAITEMSLOT@@@Z ENDP ; std::_Destroy<EXTRAITEMSLOT>
_TEXT	ENDS
PUBLIC	??$_Destroy@UNewShopPullDownItem@@@std@@YAXPAUNewShopPullDownItem@@@Z ; std::_Destroy<NewShopPullDownItem>
; Function compile flags: /Ogsp
;	COMDAT ??$_Destroy@UNewShopPullDownItem@@@std@@YAXPAUNewShopPullDownItem@@@Z
_TEXT	SEGMENT
__Ptr$ = 8						; size = 4
??$_Destroy@UNewShopPullDownItem@@@std@@YAXPAUNewShopPullDownItem@@@Z PROC ; std::_Destroy<NewShopPullDownItem>, COMDAT

; 62   : 	{	// destroy object at _Ptr

  00000	55		 push	 ebp
  00001	8b ec		 mov	 ebp, esp

; 63   : 	_Ptr->~_Ty();

  00003	8b 4d 08	 mov	 ecx, DWORD PTR __Ptr$[ebp]

; 64   : 	}

  00006	5d		 pop	 ebp

; 63   : 	_Ptr->~_Ty();

  00007	e9 00 00 00 00	 jmp	 ??1NewShopPullDownItem@@QAE@XZ
??$_Destroy@UNewShopPullDownItem@@@std@@YAXPAUNewShopPullDownItem@@@Z ENDP ; std::_Destroy<NewShopPullDownItem>
_TEXT	ENDS
PUBLIC	?construct@?$allocator@UEXTRAITEMSLOT@@@std@@QAEXPAUEXTRAITEMSLOT@@$$QAU3@@Z ; std::allocator<EXTRAITEMSLOT>::construct
;	COMDAT xdata$x
; File c:\program files (x86)\microsoft visual studio 10.0\vc\include\utility
xdata$x	SEGMENT
__unwindtable$?construct@?$allocator@UEXTRAITEMSLOT@@@std@@QAEXPAUEXTRAITEMSLOT@@$$QAU3@@Z DD 0ffffffffH
	DD	FLAT:__unwindfunclet$?construct@?$allocator@UEXTRAITEMSLOT@@@std@@QAEXPAUEXTRAITEMSLOT@@$$QAU3@@Z$0
__ehfuncinfo$?construct@?$allocator@UEXTRAITEMSLOT@@@std@@QAEXPAUEXTRAITEMSLOT@@$$QAU3@@Z DD 019930522H
	DD	01H
	DD	FLAT:__unwindtable$?construct@?$allocator@UEXTRAITEMSLOT@@@std@@QAEXPAUEXTRAITEMSLOT@@$$QAU3@@Z
	DD	2 DUP(00H)
	DD	2 DUP(00H)
	DD	00H
	DD	01H
; Function compile flags: /Ogsp
; File c:\program files (x86)\microsoft visual studio 10.0\vc\include\xmemory
xdata$x	ENDS
;	COMDAT ?construct@?$allocator@UEXTRAITEMSLOT@@@std@@QAEXPAUEXTRAITEMSLOT@@$$QAU3@@Z
_TEXT	SEGMENT
$T515828 = -16						; size = 4
__$EHRec$ = -12						; size = 12
__Ptr$ = 8						; size = 4
__Val$ = 12						; size = 4
?construct@?$allocator@UEXTRAITEMSLOT@@@std@@QAEXPAUEXTRAITEMSLOT@@$$QAU3@@Z PROC ; std::allocator<EXTRAITEMSLOT>::construct, COMDAT
; _this$ = ecx

; 201  : 		{	// construct object at _Ptr with value _Val

  00000	6a 04		 push	 4
  00002	b8 00 00 00 00	 mov	 eax, __ehhandler$?construct@?$allocator@UEXTRAITEMSLOT@@@std@@QAEXPAUEXTRAITEMSLOT@@$$QAU3@@Z
  00007	e8 00 00 00 00	 call	 __EH_prolog3

; 202  : 		::new ((void _FARQ *)_Ptr) _Ty(_STD forward<_Ty>(_Val));

  0000c	8b 4d 08	 mov	 ecx, DWORD PTR __Ptr$[ebp]
  0000f	89 4d f0	 mov	 DWORD PTR $T515828[ebp], ecx
  00012	83 65 fc 00	 and	 DWORD PTR __$EHRec$[ebp+8], 0
  00016	85 c9		 test	 ecx, ecx
  00018	74 08		 je	 SHORT $LN3@construct@5
  0001a	ff 75 0c	 push	 DWORD PTR __Val$[ebp]
  0001d	e8 00 00 00 00	 call	 ??0EXTRAITEMSLOT@@QAE@ABU0@@Z
$LN3@construct@5:

; 203  : 		}

  00022	e8 00 00 00 00	 call	 __EH_epilog3
  00027	c2 08 00	 ret	 8
_TEXT	ENDS
;	COMDAT text$x
text$x	SEGMENT
__unwindfunclet$?construct@?$allocator@UEXTRAITEMSLOT@@@std@@QAEXPAUEXTRAITEMSLOT@@$$QAU3@@Z$0:
  00000	ff 75 08	 push	 DWORD PTR __Ptr$[ebp]
  00003	ff 75 f0	 push	 DWORD PTR $T515828[ebp]
  00006	e8 00 00 00 00	 call	 ??3@YAXPAX0@Z		; operator delete
  0000b	59		 pop	 ecx
  0000c	59		 pop	 ecx
  0000d	c3		 ret	 0
__ehhandler$?construct@?$allocator@UEXTRAITEMSLOT@@@std@@QAEXPAUEXTRAITEMSLOT@@$$QAU3@@Z:
  0000e	8b 54 24 08	 mov	 edx, DWORD PTR [esp+8]
  00012	8d 42 0c	 lea	 eax, DWORD PTR [edx+12]
  00015	8b 4a ec	 mov	 ecx, DWORD PTR [edx-20]
  00018	33 c8		 xor	 ecx, eax
  0001a	e8 00 00 00 00	 call	 @__security_check_cookie@4
  0001f	b8 00 00 00 00	 mov	 eax, OFFSET __ehfuncinfo$?construct@?$allocator@UEXTRAITEMSLOT@@@std@@QAEXPAUEXTRAITEMSLOT@@$$QAU3@@Z
  00024	e9 00 00 00 00	 jmp	 ___CxxFrameHandler3
text$x	ENDS
?construct@?$allocator@UEXTRAITEMSLOT@@@std@@QAEXPAUEXTRAITEMSLOT@@$$QAU3@@Z ENDP ; std::allocator<EXTRAITEMSLOT>::construct
PUBLIC	?construct@?$allocator@UNewShopPullDownItem@@@std@@QAEXPAUNewShopPullDownItem@@$$QAU3@@Z ; std::allocator<NewShopPullDownItem>::construct
;	COMDAT xdata$x
; File c:\program files (x86)\microsoft visual studio 10.0\vc\include\utility
xdata$x	SEGMENT
__unwindtable$?construct@?$allocator@UNewShopPullDownItem@@@std@@QAEXPAUNewShopPullDownItem@@$$QAU3@@Z DD 0ffffffffH
	DD	FLAT:__unwindfunclet$?construct@?$allocator@UNewShopPullDownItem@@@std@@QAEXPAUNewShopPullDownItem@@$$QAU3@@Z$0
__ehfuncinfo$?construct@?$allocator@UNewShopPullDownItem@@@std@@QAEXPAUNewShopPullDownItem@@$$QAU3@@Z DD 019930522H
	DD	01H
	DD	FLAT:__unwindtable$?construct@?$allocator@UNewShopPullDownItem@@@std@@QAEXPAUNewShopPullDownItem@@$$QAU3@@Z
	DD	2 DUP(00H)
	DD	2 DUP(00H)
	DD	00H
	DD	01H
; Function compile flags: /Ogsp
; File c:\program files (x86)\microsoft visual studio 10.0\vc\include\xmemory
xdata$x	ENDS
;	COMDAT ?construct@?$allocator@UNewShopPullDownItem@@@std@@QAEXPAUNewShopPullDownItem@@$$QAU3@@Z
_TEXT	SEGMENT
$T515847 = -16						; size = 4
__$EHRec$ = -12						; size = 12
__Ptr$ = 8						; size = 4
__Val$ = 12						; size = 4
?construct@?$allocator@UNewShopPullDownItem@@@std@@QAEXPAUNewShopPullDownItem@@$$QAU3@@Z PROC ; std::allocator<NewShopPullDownItem>::construct, COMDAT
; _this$ = ecx

; 201  : 		{	// construct object at _Ptr with value _Val

  00000	6a 04		 push	 4
  00002	b8 00 00 00 00	 mov	 eax, __ehhandler$?construct@?$allocator@UNewShopPullDownItem@@@std@@QAEXPAUNewShopPullDownItem@@$$QAU3@@Z
  00007	e8 00 00 00 00	 call	 __EH_prolog3

; 202  : 		::new ((void _FARQ *)_Ptr) _Ty(_STD forward<_Ty>(_Val));

  0000c	8b 4d 08	 mov	 ecx, DWORD PTR __Ptr$[ebp]
  0000f	89 4d f0	 mov	 DWORD PTR $T515847[ebp], ecx
  00012	83 65 fc 00	 and	 DWORD PTR __$EHRec$[ebp+8], 0
  00016	85 c9		 test	 ecx, ecx
  00018	74 08		 je	 SHORT $LN3@construct@6
  0001a	ff 75 0c	 push	 DWORD PTR __Val$[ebp]
  0001d	e8 00 00 00 00	 call	 ??0NewShopPullDownItem@@QAE@ABU0@@Z
$LN3@construct@6:

; 203  : 		}

  00022	e8 00 00 00 00	 call	 __EH_epilog3
  00027	c2 08 00	 ret	 8
_TEXT	ENDS
;	COMDAT text$x
text$x	SEGMENT
__unwindfunclet$?construct@?$allocator@UNewShopPullDownItem@@@std@@QAEXPAUNewShopPullDownItem@@$$QAU3@@Z$0:
  00000	ff 75 08	 push	 DWORD PTR __Ptr$[ebp]
  00003	ff 75 f0	 push	 DWORD PTR $T515847[ebp]
  00006	e8 00 00 00 00	 call	 ??3@YAXPAX0@Z		; operator delete
  0000b	59		 pop	 ecx
  0000c	59		 pop	 ecx
  0000d	c3		 ret	 0
__ehhandler$?construct@?$allocator@UNewShopPullDownItem@@@std@@QAEXPAUNewShopPullDownItem@@$$QAU3@@Z:
  0000e	8b 54 24 08	 mov	 edx, DWORD PTR [esp+8]
  00012	8d 42 0c	 lea	 eax, DWORD PTR [edx+12]
  00015	8b 4a ec	 mov	 ecx, DWORD PTR [edx-20]
  00018	33 c8		 xor	 ecx, eax
  0001a	e8 00 00 00 00	 call	 @__security_check_cookie@4
  0001f	b8 00 00 00 00	 mov	 eax, OFFSET __ehfuncinfo$?construct@?$allocator@UNewShopPullDownItem@@@std@@QAEXPAUNewShopPullDownItem@@$$QAU3@@Z
  00024	e9 00 00 00 00	 jmp	 ___CxxFrameHandler3
text$x	ENDS
?construct@?$allocator@UNewShopPullDownItem@@@std@@QAEXPAUNewShopPullDownItem@@$$QAU3@@Z ENDP ; std::allocator<NewShopPullDownItem>::construct
PUBLIC	?construct@?$allocator@UInvenItemInfo@@@std@@QAEXPAUInvenItemInfo@@$$QAU3@@Z ; std::allocator<InvenItemInfo>::construct
; Function compile flags: /Ogsp
;	COMDAT ?construct@?$allocator@UInvenItemInfo@@@std@@QAEXPAUInvenItemInfo@@$$QAU3@@Z
_TEXT	SEGMENT
__Ptr$ = 8						; size = 4
__Val$ = 12						; size = 4
?construct@?$allocator@UInvenItemInfo@@@std@@QAEXPAUInvenItemInfo@@$$QAU3@@Z PROC ; std::allocator<InvenItemInfo>::construct, COMDAT
; _this$ = ecx

; 201  : 		{	// construct object at _Ptr with value _Val

  00000	55		 push	 ebp
  00001	8b ec		 mov	 ebp, esp
  00003	57		 push	 edi

; 202  : 		::new ((void _FARQ *)_Ptr) _Ty(_STD forward<_Ty>(_Val));

  00004	8b 7d 08	 mov	 edi, DWORD PTR __Ptr$[ebp]
  00007	85 ff		 test	 edi, edi
  00009	74 08		 je	 SHORT $LN3@construct@7
  0000b	56		 push	 esi
  0000c	8b 75 0c	 mov	 esi, DWORD PTR __Val$[ebp]
  0000f	a5		 movsd
  00010	a5		 movsd
  00011	a5		 movsd
  00012	5e		 pop	 esi
$LN3@construct@7:
  00013	5f		 pop	 edi

; 203  : 		}

  00014	5d		 pop	 ebp
  00015	c2 08 00	 ret	 8
?construct@?$allocator@UInvenItemInfo@@@std@@QAEXPAUInvenItemInfo@@$$QAU3@@Z ENDP ; std::allocator<InvenItemInfo>::construct
_TEXT	ENDS
PUBLIC	??$swap@UInvenItemInfo@@@std@@YAXAAUInvenItemInfo@@0@Z ; std::swap<InvenItemInfo>
; Function compile flags: /Ogsp
; File c:\program files (x86)\microsoft visual studio 10.0\vc\include\utility
;	COMDAT ??$swap@UInvenItemInfo@@@std@@YAXAAUInvenItemInfo@@0@Z
_TEXT	SEGMENT
__Tmp$ = -12						; size = 12
__Left$ = 8						; size = 4
__Right$ = 12						; size = 4
??$swap@UInvenItemInfo@@@std@@YAXAAUInvenItemInfo@@0@Z PROC ; std::swap<InvenItemInfo>, COMDAT

; 101  : 	{	// exchange values stored at _Left and _Right

  00000	55		 push	 ebp
  00001	8b ec		 mov	 ebp, esp
  00003	83 ec 0c	 sub	 esp, 12			; 0000000cH
  00006	56		 push	 esi

; 102  : 	_Ty _Tmp = _Move(_Left);

  00007	8b 75 08	 mov	 esi, DWORD PTR __Left$[ebp]
  0000a	57		 push	 edi
  0000b	8d 7d f4	 lea	 edi, DWORD PTR __Tmp$[ebp]
  0000e	a5		 movsd
  0000f	a5		 movsd
  00010	a5		 movsd

; 103  : 	_Left = _Move(_Right);

  00011	8b 75 0c	 mov	 esi, DWORD PTR __Right$[ebp]
  00014	8b 7d 08	 mov	 edi, DWORD PTR __Left$[ebp]
  00017	a5		 movsd
  00018	a5		 movsd
  00019	a5		 movsd

; 104  : 	_Right = _Move(_Tmp);

  0001a	8b 7d 0c	 mov	 edi, DWORD PTR __Right$[ebp]
  0001d	8d 75 f4	 lea	 esi, DWORD PTR __Tmp$[ebp]
  00020	a5		 movsd
  00021	a5		 movsd
  00022	a5		 movsd
  00023	5f		 pop	 edi
  00024	5e		 pop	 esi

; 105  : 	}

  00025	c9		 leave
  00026	c3		 ret	 0
??$swap@UInvenItemInfo@@@std@@YAXAAUInvenItemInfo@@0@Z ENDP ; std::swap<InvenItemInfo>
_TEXT	ENDS
PUBLIC	??$_Adjust_heap@PAUInvenItemInfo@@HU1@VCompoundItemInfoSort1@@@std@@YAXPAUInvenItemInfo@@HH$$QAU1@VCompoundItemInfoSort1@@@Z ; std::_Adjust_heap<InvenItemInfo *,int,InvenItemInfo,CompoundItemInfoSort1>
; Function compile flags: /Ogsp
; File c:\program files (x86)\microsoft visual studio 10.0\vc\include\algorithm
;	COMDAT ??$_Adjust_heap@PAUInvenItemInfo@@HU1@VCompoundItemInfoSort1@@@std@@YAXPAUInvenItemInfo@@HH$$QAU1@VCompoundItemInfoSort1@@@Z
_TEXT	SEGMENT
__First$ = 8						; size = 4
__Top$ = 12						; size = 4
__Hole$ = 12						; size = 4
__Bottom$ = 16						; size = 4
__Val$ = 20						; size = 4
__Pred$ = 24						; size = 1
??$_Adjust_heap@PAUInvenItemInfo@@HU1@VCompoundItemInfoSort1@@@std@@YAXPAUInvenItemInfo@@HH$$QAU1@VCompoundItemInfoSort1@@@Z PROC ; std::_Adjust_heap<InvenItemInfo *,int,InvenItemInfo,CompoundItemInfoSort1>, COMDAT

; 2565 : 	{	// percolate _Hole to _Bottom, then push _Val, using _Pred

  00000	55		 push	 ebp
  00001	8b ec		 mov	 ebp, esp
  00003	53		 push	 ebx
  00004	56		 push	 esi
  00005	57		 push	 edi

; 2566 : 	_Diff _Top = _Hole;

  00006	8b 7d 0c	 mov	 edi, DWORD PTR __Hole$[ebp]
  00009	89 7d 0c	 mov	 DWORD PTR __Top$[ebp], edi

; 2567 : 	_Diff _Idx = 2 * _Hole + 2;

  0000c	8d 5c 3f 02	 lea	 ebx, DWORD PTR [edi+edi+2]
  00010	eb 31		 jmp	 SHORT $LN17@Adjust_hea
$LL5@Adjust_hea:

; 2570 : 		{	// move _Hole down to larger child
; 2571 : 		if (_DEBUG_LT_PRED(_Pred, *(_First + _Idx), *(_First + (_Idx - 1))))

  00012	8b c3		 mov	 eax, ebx
  00014	6b c0 0c	 imul	 eax, 12			; 0000000cH
  00017	03 45 08	 add	 eax, DWORD PTR __First$[ebp]
  0001a	8d 48 f4	 lea	 ecx, DWORD PTR [eax-12]
  0001d	51		 push	 ecx
  0001e	50		 push	 eax
  0001f	8d 4d 18	 lea	 ecx, DWORD PTR __Pred$[ebp]
  00022	e8 00 00 00 00	 call	 ??RCompoundItemInfoSort1@@QBE_NABUInvenItemInfo@@0@Z ; CompoundItemInfoSort1::operator()
  00027	84 c0		 test	 al, al
  00029	74 01		 je	 SHORT $LN2@Adjust_hea

; 2572 : 			--_Idx;

  0002b	4b		 dec	 ebx
$LN2@Adjust_hea:

; 2573 : 		*(_First + _Hole) = _Move(*(_First + _Idx));

  0002c	8b f3		 mov	 esi, ebx
  0002e	6b ff 0c	 imul	 edi, 12			; 0000000cH
  00031	6b f6 0c	 imul	 esi, 12			; 0000000cH
  00034	03 75 08	 add	 esi, DWORD PTR __First$[ebp]
  00037	03 7d 08	 add	 edi, DWORD PTR __First$[ebp]
  0003a	a5		 movsd
  0003b	a5		 movsd
  0003c	a5		 movsd

; 2574 : 		_Hole = _Idx;

  0003d	8b fb		 mov	 edi, ebx
  0003f	8d 5c 1b 02	 lea	 ebx, DWORD PTR [ebx+ebx+2]
$LN17@Adjust_hea:

; 2568 : 
; 2569 : 	for (; _Idx < _Bottom; _Idx = 2 * _Idx + 2)

  00043	3b 5d 10	 cmp	 ebx, DWORD PTR __Bottom$[ebp]
  00046	7c ca		 jl	 SHORT $LL5@Adjust_hea

; 2575 : 		}
; 2576 : 
; 2577 : 	if (_Idx == _Bottom)

  00048	75 19		 jne	 SHORT $LN16@Adjust_hea

; 2578 : 		{	// only child at bottom, move _Hole down to it
; 2579 : 		*(_First + _Hole) = _Move(*(_First + (_Bottom - 1)));

  0004a	8b 4d 10	 mov	 ecx, DWORD PTR __Bottom$[ebp]
  0004d	6b ff 0c	 imul	 edi, 12			; 0000000cH
  00050	8b 45 08	 mov	 eax, DWORD PTR __First$[ebp]
  00053	6b c9 0c	 imul	 ecx, 12			; 0000000cH
  00056	03 f8		 add	 edi, eax
  00058	8d 74 01 f4	 lea	 esi, DWORD PTR [ecx+eax-12]
  0005c	a5		 movsd
  0005d	a5		 movsd
  0005e	a5		 movsd

; 2580 : 		_Hole = _Bottom - 1;

  0005f	8b 7d 10	 mov	 edi, DWORD PTR __Bottom$[ebp]
  00062	4f		 dec	 edi
$LN16@Adjust_hea:

; 2581 : 		}
; 2582 : 	_Push_heap(_First, _Hole, _Top, _Move(_Val), _Pred);

  00063	ff 75 18	 push	 DWORD PTR __Pred$[ebp]
  00066	ff 75 14	 push	 DWORD PTR __Val$[ebp]
  00069	ff 75 0c	 push	 DWORD PTR __Top$[ebp]
  0006c	57		 push	 edi
  0006d	ff 75 08	 push	 DWORD PTR __First$[ebp]
  00070	e8 00 00 00 00	 call	 ??$_Push_heap@PAUInvenItemInfo@@HU1@VCompoundItemInfoSort1@@@std@@YAXPAUInvenItemInfo@@HH$$QAU1@VCompoundItemInfoSort1@@@Z ; std::_Push_heap<InvenItemInfo *,int,InvenItemInfo,CompoundItemInfoSort1>
  00075	83 c4 14	 add	 esp, 20			; 00000014H
  00078	5f		 pop	 edi
  00079	5e		 pop	 esi
  0007a	5b		 pop	 ebx

; 2583 : 	}

  0007b	5d		 pop	 ebp
  0007c	c3		 ret	 0
??$_Adjust_heap@PAUInvenItemInfo@@HU1@VCompoundItemInfoSort1@@@std@@YAXPAUInvenItemInfo@@HH$$QAU1@VCompoundItemInfoSort1@@@Z ENDP ; std::_Adjust_heap<InvenItemInfo *,int,InvenItemInfo,CompoundItemInfoSort1>
_TEXT	ENDS
PUBLIC	??$_Move_backward@PAUInvenItemInfo@@PAU1@@std@@YAPAUInvenItemInfo@@PAU1@00@Z ; std::_Move_backward<InvenItemInfo *,InvenItemInfo *>
; Function compile flags: /Ogsp
; File c:\program files (x86)\microsoft visual studio 10.0\vc\include\xutility
;	COMDAT ??$_Move_backward@PAUInvenItemInfo@@PAU1@@std@@YAPAUInvenItemInfo@@PAU1@00@Z
_TEXT	SEGMENT
__Cat$515907 = -4					; size = 1
__First$ = 8						; size = 4
__Last$ = 12						; size = 4
__Dest$ = 16						; size = 4
??$_Move_backward@PAUInvenItemInfo@@PAU1@@std@@YAPAUInvenItemInfo@@PAU1@00@Z PROC ; std::_Move_backward<InvenItemInfo *,InvenItemInfo *>, COMDAT

; 2638 : 	{	// move [_First, _Last) backwards to [..., _Dest), unchecked

  00000	55		 push	 ebp
  00001	8b ec		 mov	 ebp, esp
  00003	51		 push	 ecx

; 2639 : 	return (_Move_backward(_First, _Last,
; 2640 : 		_Dest, _Ptr_cat(_First, _Dest)));

  00004	ff 75 fc	 push	 DWORD PTR __Cat$515907[ebp]
  00007	ff 75 10	 push	 DWORD PTR __Dest$[ebp]
  0000a	ff 75 0c	 push	 DWORD PTR __Last$[ebp]
  0000d	ff 75 08	 push	 DWORD PTR __First$[ebp]
  00010	e8 00 00 00 00	 call	 ??$_Move_backward@PAUInvenItemInfo@@PAU1@@std@@YAPAUInvenItemInfo@@PAU1@00U_Nonscalar_ptr_iterator_tag@0@@Z ; std::_Move_backward<InvenItemInfo *,InvenItemInfo *>
  00015	83 c4 10	 add	 esp, 16			; 00000010H

; 2641 : 	}

  00018	c9		 leave
  00019	c3		 ret	 0
??$_Move_backward@PAUInvenItemInfo@@PAU1@@std@@YAPAUInvenItemInfo@@PAU1@00@Z ENDP ; std::_Move_backward<InvenItemInfo *,InvenItemInfo *>
_TEXT	ENDS
PUBLIC	??$_Pop_heap@PAUInvenItemInfo@@HU1@VCompoundItemInfoSort1@@@std@@YAXPAUInvenItemInfo@@00$$QAU1@VCompoundItemInfoSort1@@PAH@Z ; std::_Pop_heap<InvenItemInfo *,int,InvenItemInfo,CompoundItemInfoSort1>
; Function compile flags: /Ogsp
; File c:\program files (x86)\microsoft visual studio 10.0\vc\include\algorithm
;	COMDAT ??$_Pop_heap@PAUInvenItemInfo@@HU1@VCompoundItemInfoSort1@@@std@@YAXPAUInvenItemInfo@@00$$QAU1@VCompoundItemInfoSort1@@PAH@Z
_TEXT	SEGMENT
__First$ = 8						; size = 4
__Last$ = 12						; size = 4
__Dest$ = 16						; size = 4
__Val$ = 20						; size = 4
__Pred$ = 24						; size = 1
___formal$ = 28						; size = 4
??$_Pop_heap@PAUInvenItemInfo@@HU1@VCompoundItemInfoSort1@@@std@@YAXPAUInvenItemInfo@@00$$QAU1@VCompoundItemInfoSort1@@PAH@Z PROC ; std::_Pop_heap<InvenItemInfo *,int,InvenItemInfo,CompoundItemInfoSort1>, COMDAT

; 2591 : 	{	// pop *_First to *_Dest and reheap, using _Pred

  00000	55		 push	 ebp
  00001	8b ec		 mov	 ebp, esp

; 2592 : 	*_Dest = _Move(*_First);
; 2593 : 	_Adjust_heap(_First, _Diff(0), _Diff(_Last - _First),
; 2594 : 		_Move(_Val), _Pred);

  00003	8b 45 0c	 mov	 eax, DWORD PTR __Last$[ebp]
  00006	2b 45 08	 sub	 eax, DWORD PTR __First$[ebp]
  00009	56		 push	 esi
  0000a	57		 push	 edi
  0000b	ff 75 18	 push	 DWORD PTR __Pred$[ebp]
  0000e	99		 cdq
  0000f	ff 75 14	 push	 DWORD PTR __Val$[ebp]
  00012	8b 75 08	 mov	 esi, DWORD PTR __First$[ebp]
  00015	6a 0c		 push	 12			; 0000000cH
  00017	59		 pop	 ecx
  00018	f7 f9		 idiv	 ecx
  0001a	8b 7d 10	 mov	 edi, DWORD PTR __Dest$[ebp]
  0001d	a5		 movsd
  0001e	a5		 movsd
  0001f	a5		 movsd
  00020	50		 push	 eax
  00021	6a 00		 push	 0
  00023	ff 75 08	 push	 DWORD PTR __First$[ebp]
  00026	e8 00 00 00 00	 call	 ??$_Adjust_heap@PAUInvenItemInfo@@HU1@VCompoundItemInfoSort1@@@std@@YAXPAUInvenItemInfo@@HH$$QAU1@VCompoundItemInfoSort1@@@Z ; std::_Adjust_heap<InvenItemInfo *,int,InvenItemInfo,CompoundItemInfoSort1>
  0002b	83 c4 14	 add	 esp, 20			; 00000014H
  0002e	5f		 pop	 edi
  0002f	5e		 pop	 esi

; 2595 : 	}

  00030	5d		 pop	 ebp
  00031	c3		 ret	 0
??$_Pop_heap@PAUInvenItemInfo@@HU1@VCompoundItemInfoSort1@@@std@@YAXPAUInvenItemInfo@@00$$QAU1@VCompoundItemInfoSort1@@PAH@Z ENDP ; std::_Pop_heap<InvenItemInfo *,int,InvenItemInfo,CompoundItemInfoSort1>
_TEXT	ENDS
PUBLIC	?StringCbPrintfA@@YAJPADIPBDZZ			; StringCbPrintfA
; Function compile flags: /Ogsp
; File c:\program files (x86)\microsoft sdks\windows\v7.0a\include\strsafe.h
;	COMDAT ?StringCbPrintfA@@YAJPADIPBDZZ
_TEXT	SEGMENT
_pszDest$ = 8						; size = 4
_cbDest$ = 12						; size = 4
_pszFormat$ = 16					; size = 4
?StringCbPrintfA@@YAJPADIPBDZZ PROC			; StringCbPrintfA, COMDAT

; 4767 : {

  00000	55		 push	 ebp
  00001	8b ec		 mov	 ebp, esp

; 4768 :     HRESULT hr;
; 4769 :     size_t cchDest = cbDest / sizeof(char);
; 4770 : 
; 4771 :     hr = StringValidateDestA(pszDest, cchDest, STRSAFE_MAX_CCH);

  00003	8b 4d 0c	 mov	 ecx, DWORD PTR _cbDest$[ebp]
  00006	33 c0		 xor	 eax, eax
  00008	85 c9		 test	 ecx, ecx
  0000a	74 08		 je	 SHORT $LN4@StringCbPr
  0000c	81 f9 ff ff ff
	7f		 cmp	 ecx, 2147483647		; 7fffffffH
  00012	76 05		 jbe	 SHORT $LN5@StringCbPr
$LN4@StringCbPr:
  00014	b8 57 00 07 80	 mov	 eax, -2147024809	; 80070057H
$LN5@StringCbPr:

; 4772 :     
; 4773 :     if (SUCCEEDED(hr))

  00019	85 c0		 test	 eax, eax
  0001b	78 39		 js	 SHORT $LN1@StringCbPr

; 4774 :     {
; 4775 :         va_list argList;
; 4776 : 
; 4777 :         va_start(argList, pszFormat);
; 4778 : 
; 4779 :         hr = StringVPrintfWorkerA(pszDest,
; 4780 :                                   cchDest,
; 4781 :                                   NULL,
; 4782 :                                   pszFormat,
; 4783 :                                   argList);

  0001d	53		 push	 ebx
  0001e	56		 push	 esi
  0001f	57		 push	 edi
  00020	8b 7d 08	 mov	 edi, DWORD PTR _pszDest$[ebp]
  00023	8d 45 14	 lea	 eax, DWORD PTR _pszFormat$[ebp+4]
  00026	50		 push	 eax
  00027	ff 75 10	 push	 DWORD PTR _pszFormat$[ebp]
  0002a	8d 71 ff	 lea	 esi, DWORD PTR [ecx-1]
  0002d	56		 push	 esi
  0002e	57		 push	 edi
  0002f	33 db		 xor	 ebx, ebx
  00031	ff 15 00 00 00
	00		 call	 DWORD PTR __imp___vsnprintf
  00037	83 c4 10	 add	 esp, 16			; 00000010H
  0003a	85 c0		 test	 eax, eax
  0003c	78 0b		 js	 SHORT $LN12@StringCbPr
  0003e	3b c6		 cmp	 eax, esi
  00040	77 07		 ja	 SHORT $LN12@StringCbPr
  00042	75 0d		 jne	 SHORT $LN9@StringCbPr
  00044	88 1c 3e	 mov	 BYTE PTR [esi+edi], bl
  00047	eb 08		 jmp	 SHORT $LN9@StringCbPr
$LN12@StringCbPr:
  00049	88 1c 3e	 mov	 BYTE PTR [esi+edi], bl
  0004c	bb 7a 00 07 80	 mov	 ebx, -2147024774	; 8007007aH
$LN9@StringCbPr:
  00051	5f		 pop	 edi
  00052	5e		 pop	 esi
  00053	8b c3		 mov	 eax, ebx
  00055	5b		 pop	 ebx
$LN1@StringCbPr:

; 4784 : 
; 4785 :         va_end(argList);
; 4786 :     }
; 4787 : 
; 4788 :     return hr;
; 4789 : }

  00056	5d		 pop	 ebp
  00057	c3		 ret	 0
?StringCbPrintfA@@YAJPADIPBDZZ ENDP			; StringCbPrintfA
_TEXT	ENDS
PUBLIC	??0EXTRAITEMSLOT@@QAE@XZ			; EXTRAITEMSLOT::EXTRAITEMSLOT
;	COMDAT xdata$x
; File d:\lost saga for developer\youtube\tutorial\source\src\lsclient\iouserextraitem.h
xdata$x	SEGMENT
__unwindtable$??0EXTRAITEMSLOT@@QAE@XZ DD 0ffffffffH
	DD	FLAT:__unwindfunclet$??0EXTRAITEMSLOT@@QAE@XZ$0
__ehfuncinfo$??0EXTRAITEMSLOT@@QAE@XZ DD 019930522H
	DD	01H
	DD	FLAT:__unwindtable$??0EXTRAITEMSLOT@@QAE@XZ
	DD	2 DUP(00H)
	DD	2 DUP(00H)
	DD	00H
	DD	01H
; Function compile flags: /Ogsp
xdata$x	ENDS
;	COMDAT ??0EXTRAITEMSLOT@@QAE@XZ
_TEXT	SEGMENT
_this$ = -16						; size = 4
__$EHRec$ = -12						; size = 12
??0EXTRAITEMSLOT@@QAE@XZ PROC				; EXTRAITEMSLOT::EXTRAITEMSLOT, COMDAT
; _this$ = ecx

; 43   : 	EXTRAITEMSLOT()

  00000	6a 04		 push	 4
  00002	b8 00 00 00 00	 mov	 eax, __ehhandler$??0EXTRAITEMSLOT@@QAE@XZ
  00007	e8 00 00 00 00	 call	 __EH_prolog3
  0000c	8b f1		 mov	 esi, ecx
  0000e	89 75 f0	 mov	 DWORD PTR _this$[ebp], esi
  00011	8b 3d 00 00 00
	00		 mov	 edi, DWORD PTR __imp_??0ioHashString@@QAE@XZ
  00017	8d 4e 28	 lea	 ecx, DWORD PTR [esi+40]
  0001a	ff d7		 call	 edi
  0001c	83 65 fc 00	 and	 DWORD PTR __$EHRec$[ebp+8], 0
  00020	8d 4e 38	 lea	 ecx, DWORD PTR [esi+56]
  00023	ff d7		 call	 edi

; 44   : 	{
; 45   : 		Init();

  00025	8b ce		 mov	 ecx, esi
  00027	e8 00 00 00 00	 call	 ?Init@EXTRAITEMSLOT@@QAEXXZ ; EXTRAITEMSLOT::Init

; 46   : 	}

  0002c	8b c6		 mov	 eax, esi
  0002e	e8 00 00 00 00	 call	 __EH_epilog3
  00033	c3		 ret	 0
_TEXT	ENDS
;	COMDAT text$x
text$x	SEGMENT
__unwindfunclet$??0EXTRAITEMSLOT@@QAE@XZ$0:
  00000	8b 4d f0	 mov	 ecx, DWORD PTR _this$[ebp]
  00003	83 c1 28	 add	 ecx, 40			; 00000028H
  00006	ff 25 00 00 00
	00		 jmp	 DWORD PTR __imp_??1ioHashString@@QAE@XZ
__ehhandler$??0EXTRAITEMSLOT@@QAE@XZ:
  0000c	8b 54 24 08	 mov	 edx, DWORD PTR [esp+8]
  00010	8d 42 0c	 lea	 eax, DWORD PTR [edx+12]
  00013	8b 4a ec	 mov	 ecx, DWORD PTR [edx-20]
  00016	33 c8		 xor	 ecx, eax
  00018	e8 00 00 00 00	 call	 @__security_check_cookie@4
  0001d	b8 00 00 00 00	 mov	 eax, OFFSET __ehfuncinfo$??0EXTRAITEMSLOT@@QAE@XZ
  00022	e9 00 00 00 00	 jmp	 ___CxxFrameHandler3
text$x	ENDS
??0EXTRAITEMSLOT@@QAE@XZ ENDP				; EXTRAITEMSLOT::EXTRAITEMSLOT
PUBLIC	__real@3f19999a
PUBLIC	?OnRender@ItemMultipleCompoundWnd@@MAEXXZ	; ItemMultipleCompoundWnd::OnRender
EXTRN	__imp_?GetDerivedPosY@ioWnd@@QBEHXZ:PROC
EXTRN	__imp_?GetDerivedPosX@ioWnd@@QBEHXZ:PROC
EXTRN	__imp_?OnRender@ioWnd@@MAEXXZ:PROC
;	COMDAT __real@3f19999a
; File d:\lost saga for developer\youtube\tutorial\source\src\lsclient\gui\itemmultiplecompoundwnd.cpp
CONST	SEGMENT
__real@3f19999a DD 03f19999ar			; 0.6
; Function compile flags: /Ogsp
CONST	ENDS
;	COMDAT ?OnRender@ItemMultipleCompoundWnd@@MAEXXZ
_TEXT	SEGMENT
?OnRender@ItemMultipleCompoundWnd@@MAEXXZ PROC		; ItemMultipleCompoundWnd::OnRender, COMDAT
; _this$ = ecx

; 439  : {

  00000	56		 push	 esi
  00001	57		 push	 edi
  00002	8b f1		 mov	 esi, ecx

; 440  : 	ioWnd::OnRender();

  00004	ff 15 00 00 00
	00		 call	 DWORD PTR __imp_?OnRender@ioWnd@@MAEXXZ

; 441  : 
; 442  : 	int iXPos = GetDerivedPosX();

  0000a	8b ce		 mov	 ecx, esi
  0000c	ff 15 00 00 00
	00		 call	 DWORD PTR __imp_?GetDerivedPosX@ioWnd@@QBEHXZ

; 443  : 	int iYPos = GetDerivedPosY();

  00012	8b ce		 mov	 ecx, esi
  00014	8b f8		 mov	 edi, eax
  00016	ff 15 00 00 00
	00		 call	 DWORD PTR __imp_?GetDerivedPosY@ioWnd@@QBEHXZ

; 444  : 
; 445  : 	PrintManual( iXPos+27, iYPos+290, FONT_SIZE_12 );

  0001c	f3 0f 10 05 00
	00 00 00	 movss	 xmm0, DWORD PTR __real@3f19999a
  00024	51		 push	 ecx
  00025	f3 0f 11 04 24	 movss	 DWORD PTR [esp], xmm0
  0002a	05 22 01 00 00	 add	 eax, 290		; 00000122H
  0002f	50		 push	 eax
  00030	83 c7 1b	 add	 edi, 27			; 0000001bH
  00033	57		 push	 edi
  00034	8b ce		 mov	 ecx, esi
  00036	e8 00 00 00 00	 call	 ?PrintManual@ItemMultipleCompoundWnd@@IAEXHHM@Z ; ItemMultipleCompoundWnd::PrintManual
  0003b	5f		 pop	 edi
  0003c	5e		 pop	 esi

; 446  : }

  0003d	c3		 ret	 0
?OnRender@ItemMultipleCompoundWnd@@MAEXXZ ENDP		; ItemMultipleCompoundWnd::OnRender
_TEXT	ENDS
PUBLIC	??_C@_0CE@ENLOPAJL@ItemMultipleCompoundWnd?3?3UpdateD@ ; `string'
PUBLIC	__real@3f1eb852
PUBLIC	??_R0?AVInventoryIconBtn@@@8			; InventoryIconBtn `RTTI Type Descriptor'
PUBLIC	??_R0?AVioWnd@@@8				; ioWnd `RTTI Type Descriptor'
PUBLIC	??_R0?AVSelectExtraItemBtn@@@8			; SelectExtraItemBtn `RTTI Type Descriptor'
PUBLIC	?UpdateData@ItemMultipleCompoundWnd@@IAEXXZ	; ItemMultipleCompoundWnd::UpdateData
EXTRN	__imp_?SetChildActive@ioWnd@@QAEXK@Z:PROC
EXTRN	?GetItemConst@ioItemMaker@@QBEPBVioItem@@KABVioHashString@@@Z:PROC ; ioItemMaker::GetItemConst
EXTRN	?GetSingleton@ioItemMaker@@SAAAV1@XZ:PROC	; ioItemMaker::GetSingleton
EXTRN	__imp_??0ioHashString@@QAE@PBD@Z:PROC
EXTRN	?SetIcon@InventoryIconBtn@@QAE_NPAVioUIRenderImage@@MMHW4NumberType@1@@Z:PROC ; InventoryIconBtn::SetIcon
EXTRN	__imp_?CreateImageByFullName@ioUIImageSetManager@@QAEPAVioUIRenderImage@@ABVioHashString@@_N@Z:PROC
EXTRN	__imp_?GetSingleton@ioUIImageSetManager@@SAAAV1@XZ:PROC
EXTRN	?GetExtraItem@ioUserExtraItem@@QAE_NHAAUEXTRAITEMSLOT@@@Z:PROC ; ioUserExtraItem::GetExtraItem
EXTRN	?GetSingleton@ioMyInfo@@SAAAV1@XZ:PROC		; ioMyInfo::GetSingleton
EXTRN	__imp_?FindChildWnd@ioWnd@@QAEPAV1@K@Z:PROC
EXTRN	___RTDynamicCast:PROC
;	COMDAT ??_C@_0CE@ENLOPAJL@ItemMultipleCompoundWnd?3?3UpdateD@
; File d:\lost saga for developer\youtube\tutorial\source\src\lsclient\gui\myinventorywnd.h
CONST	SEGMENT
??_C@_0CE@ENLOPAJL@ItemMultipleCompoundWnd?3?3UpdateD@ DB 'ItemMultipleCo'
	DB	'mpoundWnd::UpdateData', 00H			; `string'
CONST	ENDS
;	COMDAT __real@3f1eb852
CONST	SEGMENT
__real@3f1eb852 DD 03f1eb852r			; 0.62
CONST	ENDS
;	COMDAT ??_R0?AVInventoryIconBtn@@@8
_DATA	SEGMENT
??_R0?AVInventoryIconBtn@@@8 DD FLAT:??_7type_info@@6B@	; InventoryIconBtn `RTTI Type Descriptor'
	DD	00H
	DB	'.?AVInventoryIconBtn@@', 00H
_DATA	ENDS
;	COMDAT ??_R0?AVioWnd@@@8
_DATA	SEGMENT
??_R0?AVioWnd@@@8 DD FLAT:??_7type_info@@6B@		; ioWnd `RTTI Type Descriptor'
	DD	00H
	DB	'.?AVioWnd@@', 00H
_DATA	ENDS
;	COMDAT ??_R0?AVSelectExtraItemBtn@@@8
_DATA	SEGMENT
??_R0?AVSelectExtraItemBtn@@@8 DD FLAT:??_7type_info@@6B@ ; SelectExtraItemBtn `RTTI Type Descriptor'
	DD	00H
	DB	'.?AVSelectExtraItemBtn@@', 00H
_DATA	ENDS
;	COMDAT xdata$x
xdata$x	SEGMENT
__unwindtable$?UpdateData@ItemMultipleCompoundWnd@@IAEXXZ DD 0ffffffffH
	DD	FLAT:__unwindfunclet$?UpdateData@ItemMultipleCompoundWnd@@IAEXXZ$0
	DD	00H
	DD	FLAT:__unwindfunclet$?UpdateData@ItemMultipleCompoundWnd@@IAEXXZ$1
	DD	00H
	DD	FLAT:__unwindfunclet$?UpdateData@ItemMultipleCompoundWnd@@IAEXXZ$2
	DD	00H
	DD	FLAT:__unwindfunclet$?UpdateData@ItemMultipleCompoundWnd@@IAEXXZ$3
__ehfuncinfo$?UpdateData@ItemMultipleCompoundWnd@@IAEXXZ DD 019930522H
	DD	04H
	DD	FLAT:__unwindtable$?UpdateData@ItemMultipleCompoundWnd@@IAEXXZ
	DD	2 DUP(00H)
	DD	2 DUP(00H)
	DD	00H
	DD	01H
; Function compile flags: /Ogsp
; File d:\lost saga for developer\youtube\tutorial\source\src\lsclient\gui\itemmultiplecompoundwnd.cpp
xdata$x	ENDS
;	COMDAT ?UpdateData@ItemMultipleCompoundWnd@@IAEXXZ
_TEXT	SEGMENT
_kSlot$ = -132						; size = 72
$T515960 = -60						; size = 16
$T515959 = -60						; size = 16
$T515958 = -60						; size = 16
_iItemIndex3$ = -44					; size = 4
_pItem$511462 = -40					; size = 4
_iItemIndex2$ = -40					; size = 4
_pItem$511448 = -36					; size = 4
_iItemIndex1$ = -32					; size = 4
_pItem1$ = -32						; size = 4
_pExtraItem$ = -28					; size = 4
_pItem2$ = -28						; size = 4
_pIconBtn$511458 = -24					; size = 4
_pIconBtn$511444 = -24					; size = 4
_this$ = -20						; size = 4
_bSelect3$511469 = -15					; size = 1
_bSelect2$511456 = -14					; size = 1
_bSelect1$511442 = -13					; size = 1
__$EHRec$ = -12						; size = 12
?UpdateData@ItemMultipleCompoundWnd@@IAEXXZ PROC	; ItemMultipleCompoundWnd::UpdateData, COMDAT
; _this$ = ecx

; 449  : {

  00000	6a 78		 push	 120			; 00000078H
  00002	b8 00 00 00 00	 mov	 eax, __ehhandler$?UpdateData@ItemMultipleCompoundWnd@@IAEXXZ
  00007	e8 00 00 00 00	 call	 __EH_prolog3
  0000c	89 4d ec	 mov	 DWORD PTR _this$[ebp], ecx

; 450  : 	SelectExtraItemBtn *pItem1 = dynamic_cast<SelectExtraItemBtn*>(FindChildWnd(ID_ITEM1_BTN));

  0000f	8b 35 00 00 00
	00		 mov	 esi, DWORD PTR __imp_?FindChildWnd@ioWnd@@QAEPAV1@K@Z
  00015	33 db		 xor	 ebx, ebx
  00017	53		 push	 ebx
  00018	68 00 00 00 00	 push	 OFFSET ??_R0?AVSelectExtraItemBtn@@@8
  0001d	bf 00 00 00 00	 mov	 edi, OFFSET ??_R0?AVioWnd@@@8
  00022	57		 push	 edi
  00023	53		 push	 ebx
  00024	6a 0b		 push	 11			; 0000000bH
  00026	ff d6		 call	 esi
  00028	50		 push	 eax
  00029	e8 00 00 00 00	 call	 ___RTDynamicCast
  0002e	83 c4 14	 add	 esp, 20			; 00000014H
  00031	89 45 e0	 mov	 DWORD PTR _pItem1$[ebp], eax

; 451  : 	if( !pItem1 ) return;

  00034	3b c3		 cmp	 eax, ebx
  00036	0f 84 f9 03 00
	00		 je	 $LN24@UpdateData

; 452  : 
; 453  : 	SelectExtraItemBtn *pItem2 = dynamic_cast<SelectExtraItemBtn*>(FindChildWnd(ID_ITEM2_BTN));

  0003c	8b 4d ec	 mov	 ecx, DWORD PTR _this$[ebp]
  0003f	53		 push	 ebx
  00040	68 00 00 00 00	 push	 OFFSET ??_R0?AVSelectExtraItemBtn@@@8
  00045	57		 push	 edi
  00046	53		 push	 ebx
  00047	6a 0c		 push	 12			; 0000000cH
  00049	ff d6		 call	 esi
  0004b	50		 push	 eax
  0004c	e8 00 00 00 00	 call	 ___RTDynamicCast
  00051	83 c4 14	 add	 esp, 20			; 00000014H
  00054	89 45 e4	 mov	 DWORD PTR _pItem2$[ebp], eax

; 454  : 	if( !pItem2 ) return;

  00057	3b c3		 cmp	 eax, ebx
  00059	0f 84 d6 03 00
	00		 je	 $LN24@UpdateData

; 455  : 
; 456  : 	SelectExtraItemBtn *pItem3 = dynamic_cast<SelectExtraItemBtn*>(FindChildWnd(ID_ITEM3_BTN));

  0005f	8b 4d ec	 mov	 ecx, DWORD PTR _this$[ebp]
  00062	53		 push	 ebx
  00063	68 00 00 00 00	 push	 OFFSET ??_R0?AVSelectExtraItemBtn@@@8
  00068	57		 push	 edi
  00069	53		 push	 ebx
  0006a	6a 0d		 push	 13			; 0000000dH
  0006c	ff d6		 call	 esi
  0006e	50		 push	 eax
  0006f	e8 00 00 00 00	 call	 ___RTDynamicCast
  00074	83 c4 14	 add	 esp, 20			; 00000014H

; 457  : 	if( !pItem3 ) return;

  00077	3b c3		 cmp	 eax, ebx
  00079	0f 84 b6 03 00
	00		 je	 $LN24@UpdateData

; 458  : 
; 459  : 	int iItemIndex1 = pItem1->GetSelectExtraItemSlot();

  0007f	8b 4d e0	 mov	 ecx, DWORD PTR _pItem1$[ebp]
  00082	8b 89 fc 01 00
	00		 mov	 ecx, DWORD PTR [ecx+508]

; 460  : 	int iItemIndex2 = pItem2->GetSelectExtraItemSlot();
; 461  : 	int iItemIndex3 = pItem3->GetSelectExtraItemSlot();

  00088	8b 80 fc 01 00
	00		 mov	 eax, DWORD PTR [eax+508]
  0008e	89 4d e0	 mov	 DWORD PTR _iItemIndex1$[ebp], ecx
  00091	8b 4d e4	 mov	 ecx, DWORD PTR _pItem2$[ebp]
  00094	8b 89 fc 01 00
	00		 mov	 ecx, DWORD PTR [ecx+508]
  0009a	89 45 d4	 mov	 DWORD PTR _iItemIndex3$[ebp], eax

; 462  : 
; 463  : 	m_bAllSelect = false;

  0009d	8b 45 ec	 mov	 eax, DWORD PTR _this$[ebp]
  000a0	89 4d d8	 mov	 DWORD PTR _iItemIndex2$[ebp], ecx

; 464  : 
; 465  : 	EXTRAITEMSLOT kSlot;

  000a3	8d 8d 7c ff ff
	ff		 lea	 ecx, DWORD PTR _kSlot$[ebp]
  000a9	88 98 64 01 00
	00		 mov	 BYTE PTR [eax+356], bl
  000af	e8 00 00 00 00	 call	 ??0EXTRAITEMSLOT@@QAE@XZ ; EXTRAITEMSLOT::EXTRAITEMSLOT
  000b4	89 5d fc	 mov	 DWORD PTR __$EHRec$[ebp+8], ebx

; 466  : 	ioUserExtraItem *pExtraItem = g_MyInfo.GetUserExtraItem();

  000b7	e8 00 00 00 00	 call	 ?GetSingleton@ioMyInfo@@SAAAV1@XZ ; ioMyInfo::GetSingleton
  000bc	05 ac 01 00 00	 add	 eax, 428		; 000001acH
  000c1	89 45 e4	 mov	 DWORD PTR _pExtraItem$[ebp], eax

; 467  : 	if( pExtraItem )

  000c4	3b c3		 cmp	 eax, ebx
  000c6	0f 84 14 03 00
	00		 je	 $LN4@UpdateData

; 468  : 	{
; 469  : 		bool bSelect1 = false;
; 470  : 		if( pExtraItem->GetExtraItem( iItemIndex1, kSlot ) )

  000cc	8d 8d 7c ff ff
	ff		 lea	 ecx, DWORD PTR _kSlot$[ebp]
  000d2	51		 push	 ecx
  000d3	ff 75 e0	 push	 DWORD PTR _iItemIndex1$[ebp]
  000d6	8b c8		 mov	 ecx, eax
  000d8	88 5d f3	 mov	 BYTE PTR _bSelect1$511442[ebp], bl
  000db	e8 00 00 00 00	 call	 ?GetExtraItem@ioUserExtraItem@@QAE_NHAAUEXTRAITEMSLOT@@@Z ; ioUserExtraItem::GetExtraItem

; 471  : 		{
; 472  : 			bSelect1 = true;
; 473  : 			InventoryIconBtn *pIconBtn = dynamic_cast<InventoryIconBtn*>(FindChildWnd(ID_ICON1_BTN));

  000e0	8b 4d ec	 mov	 ecx, DWORD PTR _this$[ebp]
  000e3	53		 push	 ebx
  000e4	68 00 00 00 00	 push	 OFFSET ??_R0?AVInventoryIconBtn@@@8
  000e9	57		 push	 edi
  000ea	53		 push	 ebx
  000eb	6a 15		 push	 21			; 00000015H
  000ed	84 c0		 test	 al, al
  000ef	0f 84 a9 00 00
	00		 je	 $LN19@UpdateData
  000f5	c6 45 f3 01	 mov	 BYTE PTR _bSelect1$511442[ebp], 1
  000f9	ff d6		 call	 esi
  000fb	50		 push	 eax
  000fc	e8 00 00 00 00	 call	 ___RTDynamicCast
  00101	83 c4 14	 add	 esp, 20			; 00000014H
  00104	89 45 e8	 mov	 DWORD PTR _pIconBtn$511444[ebp], eax

; 474  : 			if( pIconBtn )

  00107	3b c3		 cmp	 eax, ebx
  00109	0f 84 bd 00 00
	00		 je	 $LN15@UpdateData

; 475  : 			{
; 476  : 				ioUIRenderImage *pImg = NULL;
; 477  : 				pImg = g_UIImageSetMgr.CreateImageByFullName( kSlot.m_IconName );

  0010f	8d 45 b4	 lea	 eax, DWORD PTR _kSlot$[ebp+56]
  00112	53		 push	 ebx
  00113	50		 push	 eax
  00114	ff 15 00 00 00
	00		 call	 DWORD PTR __imp_?GetSingleton@ioUIImageSetManager@@SAAAV1@XZ
  0011a	8b c8		 mov	 ecx, eax
  0011c	ff 15 00 00 00
	00		 call	 DWORD PTR __imp_?CreateImageByFullName@ioUIImageSetManager@@QAEPAVioUIRenderImage@@ABVioHashString@@_N@Z

; 478  : 				pIconBtn->SetIcon( pImg, 0.62f, 0.62f, kSlot.m_iReinforce );

  00122	f3 0f 10 05 00
	00 00 00	 movss	 xmm0, DWORD PTR __real@3f1eb852
  0012a	53		 push	 ebx
  0012b	ff 75 80	 push	 DWORD PTR _kSlot$[ebp+4]
  0012e	51		 push	 ecx
  0012f	51		 push	 ecx
  00130	8b 4d e8	 mov	 ecx, DWORD PTR _pIconBtn$511444[ebp]
  00133	f3 0f 11 44 24
	04		 movss	 DWORD PTR [esp+4], xmm0
  00139	f3 0f 11 04 24	 movss	 DWORD PTR [esp], xmm0
  0013e	50		 push	 eax
  0013f	e8 00 00 00 00	 call	 ?SetIcon@InventoryIconBtn@@QAE_NPAVioUIRenderImage@@MMHW4NumberType@1@@Z ; InventoryIconBtn::SetIcon

; 479  : 
; 480  : 				const ioItem *pItem = g_ItemMaker.GetItemConst( kSlot.m_iItemCode, __FUNCTION__ );

  00144	68 00 00 00 00	 push	 OFFSET ??_C@_0CE@ENLOPAJL@ItemMultipleCompoundWnd?3?3UpdateD@
  00149	8d 4d c4	 lea	 ecx, DWORD PTR $T515958[ebp]
  0014c	ff 15 00 00 00
	00		 call	 DWORD PTR __imp_??0ioHashString@@QAE@PBD@Z
  00152	8d 45 c4	 lea	 eax, DWORD PTR $T515958[ebp]
  00155	50		 push	 eax
  00156	ff b5 7c ff ff
	ff		 push	 DWORD PTR _kSlot$[ebp]
  0015c	c6 45 fc 01	 mov	 BYTE PTR __$EHRec$[ebp+8], 1
  00160	e8 00 00 00 00	 call	 ?GetSingleton@ioItemMaker@@SAAAV1@XZ ; ioItemMaker::GetSingleton
  00165	8b c8		 mov	 ecx, eax
  00167	e8 00 00 00 00	 call	 ?GetItemConst@ioItemMaker@@QBEPBVioItem@@KABVioHashString@@@Z ; ioItemMaker::GetItemConst
  0016c	8d 4d c4	 lea	 ecx, DWORD PTR $T515958[ebp]
  0016f	89 45 dc	 mov	 DWORD PTR _pItem$511448[ebp], eax
  00172	88 5d fc	 mov	 BYTE PTR __$EHRec$[ebp+8], bl
  00175	ff 15 00 00 00
	00		 call	 DWORD PTR __imp_??1ioHashString@@QAE@XZ

; 481  : 				if( pItem )

  0017b	8b 45 dc	 mov	 eax, DWORD PTR _pItem$511448[ebp]

; 482  : 					pIconBtn->SetGradeType( pItem->GetGradeType() );

  0017e	8b 4d e8	 mov	 ecx, DWORD PTR _pIconBtn$511444[ebp]
  00181	3b c3		 cmp	 eax, ebx
  00183	74 0c		 je	 SHORT $LN40@UpdateData
  00185	8b 80 20 06 00
	00		 mov	 eax, DWORD PTR [eax+1568]
  0018b	89 81 84 02 00
	00		 mov	 DWORD PTR [ecx+644], eax
$LN40@UpdateData:

; 483  : 
; 484  : 				pIconBtn->SetMarkType( INVENTORY_MARK_TYPE_NONE );
; 485  : 				pIconBtn->SetActive();

  00191	8b 01		 mov	 eax, DWORD PTR [ecx]
  00193	89 99 3c 02 00
	00		 mov	 DWORD PTR [ecx+572], ebx
  00199	ff 50 20	 call	 DWORD PTR [eax+32]

; 486  : 			}
; 487  : 		}
; 488  : 		else

  0019c	eb 2e		 jmp	 SHORT $LN15@UpdateData
$LN19@UpdateData:

; 489  : 		{
; 490  : 			InventoryIconBtn *pIconBtn = dynamic_cast<InventoryIconBtn*>(FindChildWnd(ID_ICON1_BTN));

  0019e	ff d6		 call	 esi
  001a0	50		 push	 eax
  001a1	e8 00 00 00 00	 call	 ___RTDynamicCast
  001a6	83 c4 14	 add	 esp, 20			; 00000014H

; 491  : 			if( pIconBtn )

  001a9	3b c3		 cmp	 eax, ebx
  001ab	74 1f		 je	 SHORT $LN15@UpdateData

; 492  : 				pIconBtn->SetIcon( NULL, 0.62f, 0.62f );

  001ad	f3 0f 10 05 00
	00 00 00	 movss	 xmm0, DWORD PTR __real@3f1eb852
  001b5	53		 push	 ebx
  001b6	53		 push	 ebx
  001b7	51		 push	 ecx
  001b8	51		 push	 ecx
  001b9	f3 0f 11 44 24
	04		 movss	 DWORD PTR [esp+4], xmm0
  001bf	f3 0f 11 04 24	 movss	 DWORD PTR [esp], xmm0
  001c4	53		 push	 ebx
  001c5	8b c8		 mov	 ecx, eax
  001c7	e8 00 00 00 00	 call	 ?SetIcon@InventoryIconBtn@@QAE_NPAVioUIRenderImage@@MMHW4NumberType@1@@Z ; InventoryIconBtn::SetIcon
$LN15@UpdateData:

; 493  : 		}
; 494  : 
; 495  : 		bool bSelect2 = false;
; 496  : 		if( pExtraItem->GetExtraItem( iItemIndex2, kSlot ) )

  001cc	8b 4d e4	 mov	 ecx, DWORD PTR _pExtraItem$[ebp]
  001cf	8d 85 7c ff ff
	ff		 lea	 eax, DWORD PTR _kSlot$[ebp]
  001d5	50		 push	 eax
  001d6	ff 75 d8	 push	 DWORD PTR _iItemIndex2$[ebp]
  001d9	88 5d f2	 mov	 BYTE PTR _bSelect2$511456[ebp], bl
  001dc	e8 00 00 00 00	 call	 ?GetExtraItem@ioUserExtraItem@@QAE_NHAAUEXTRAITEMSLOT@@@Z ; ioUserExtraItem::GetExtraItem

; 497  : 		{
; 498  : 			bSelect2 = true;
; 499  : 			InventoryIconBtn *pIconBtn = dynamic_cast<InventoryIconBtn*>(FindChildWnd(ID_ICON2_BTN));

  001e1	8b 4d ec	 mov	 ecx, DWORD PTR _this$[ebp]
  001e4	53		 push	 ebx
  001e5	68 00 00 00 00	 push	 OFFSET ??_R0?AVInventoryIconBtn@@@8
  001ea	57		 push	 edi
  001eb	53		 push	 ebx
  001ec	6a 16		 push	 22			; 00000016H
  001ee	84 c0		 test	 al, al
  001f0	0f 84 a9 00 00
	00		 je	 $LN14@UpdateData
  001f6	c6 45 f2 01	 mov	 BYTE PTR _bSelect2$511456[ebp], 1
  001fa	ff d6		 call	 esi
  001fc	50		 push	 eax
  001fd	e8 00 00 00 00	 call	 ___RTDynamicCast
  00202	83 c4 14	 add	 esp, 20			; 00000014H
  00205	89 45 e8	 mov	 DWORD PTR _pIconBtn$511458[ebp], eax

; 500  : 			if( pIconBtn )

  00208	3b c3		 cmp	 eax, ebx
  0020a	0f 84 bd 00 00
	00		 je	 $LN10@UpdateData

; 501  : 			{
; 502  : 				ioUIRenderImage *pImg = NULL;
; 503  : 				pImg = g_UIImageSetMgr.CreateImageByFullName( kSlot.m_IconName );

  00210	8d 45 b4	 lea	 eax, DWORD PTR _kSlot$[ebp+56]
  00213	53		 push	 ebx
  00214	50		 push	 eax
  00215	ff 15 00 00 00
	00		 call	 DWORD PTR __imp_?GetSingleton@ioUIImageSetManager@@SAAAV1@XZ
  0021b	8b c8		 mov	 ecx, eax
  0021d	ff 15 00 00 00
	00		 call	 DWORD PTR __imp_?CreateImageByFullName@ioUIImageSetManager@@QAEPAVioUIRenderImage@@ABVioHashString@@_N@Z

; 504  : 				pIconBtn->SetIcon( pImg, 0.62f, 0.62f, kSlot.m_iReinforce );

  00223	f3 0f 10 05 00
	00 00 00	 movss	 xmm0, DWORD PTR __real@3f1eb852
  0022b	53		 push	 ebx
  0022c	ff 75 80	 push	 DWORD PTR _kSlot$[ebp+4]
  0022f	51		 push	 ecx
  00230	51		 push	 ecx
  00231	8b 4d e8	 mov	 ecx, DWORD PTR _pIconBtn$511458[ebp]
  00234	f3 0f 11 44 24
	04		 movss	 DWORD PTR [esp+4], xmm0
  0023a	f3 0f 11 04 24	 movss	 DWORD PTR [esp], xmm0
  0023f	50		 push	 eax
  00240	e8 00 00 00 00	 call	 ?SetIcon@InventoryIconBtn@@QAE_NPAVioUIRenderImage@@MMHW4NumberType@1@@Z ; InventoryIconBtn::SetIcon

; 505  : 
; 506  : 				const ioItem *pItem = g_ItemMaker.GetItemConst( kSlot.m_iItemCode, __FUNCTION__ );

  00245	68 00 00 00 00	 push	 OFFSET ??_C@_0CE@ENLOPAJL@ItemMultipleCompoundWnd?3?3UpdateD@
  0024a	8d 4d c4	 lea	 ecx, DWORD PTR $T515959[ebp]
  0024d	ff 15 00 00 00
	00		 call	 DWORD PTR __imp_??0ioHashString@@QAE@PBD@Z
  00253	8d 45 c4	 lea	 eax, DWORD PTR $T515959[ebp]
  00256	50		 push	 eax
  00257	ff b5 7c ff ff
	ff		 push	 DWORD PTR _kSlot$[ebp]
  0025d	c6 45 fc 02	 mov	 BYTE PTR __$EHRec$[ebp+8], 2
  00261	e8 00 00 00 00	 call	 ?GetSingleton@ioItemMaker@@SAAAV1@XZ ; ioItemMaker::GetSingleton
  00266	8b c8		 mov	 ecx, eax
  00268	e8 00 00 00 00	 call	 ?GetItemConst@ioItemMaker@@QBEPBVioItem@@KABVioHashString@@@Z ; ioItemMaker::GetItemConst
  0026d	8d 4d c4	 lea	 ecx, DWORD PTR $T515959[ebp]
  00270	89 45 d8	 mov	 DWORD PTR _pItem$511462[ebp], eax
  00273	88 5d fc	 mov	 BYTE PTR __$EHRec$[ebp+8], bl
  00276	ff 15 00 00 00
	00		 call	 DWORD PTR __imp_??1ioHashString@@QAE@XZ

; 507  : 				if( pItem )

  0027c	8b 45 d8	 mov	 eax, DWORD PTR _pItem$511462[ebp]

; 508  : 					pIconBtn->SetGradeType( pItem->GetGradeType() );

  0027f	8b 4d e8	 mov	 ecx, DWORD PTR _pIconBtn$511458[ebp]
  00282	3b c3		 cmp	 eax, ebx
  00284	74 0c		 je	 SHORT $LN46@UpdateData
  00286	8b 80 20 06 00
	00		 mov	 eax, DWORD PTR [eax+1568]
  0028c	89 81 84 02 00
	00		 mov	 DWORD PTR [ecx+644], eax
$LN46@UpdateData:

; 509  : 
; 510  : 				pIconBtn->SetMarkType( INVENTORY_MARK_TYPE_NONE );
; 511  : 				pIconBtn->SetActive();

  00292	8b 01		 mov	 eax, DWORD PTR [ecx]
  00294	89 99 3c 02 00
	00		 mov	 DWORD PTR [ecx+572], ebx
  0029a	ff 50 20	 call	 DWORD PTR [eax+32]

; 512  : 			}
; 513  : 		}
; 514  : 		else

  0029d	eb 2e		 jmp	 SHORT $LN10@UpdateData
$LN14@UpdateData:

; 515  : 		{
; 516  : 			InventoryIconBtn *pIconBtn = dynamic_cast<InventoryIconBtn*>(FindChildWnd(ID_ICON2_BTN));

  0029f	ff d6		 call	 esi
  002a1	50		 push	 eax
  002a2	e8 00 00 00 00	 call	 ___RTDynamicCast
  002a7	83 c4 14	 add	 esp, 20			; 00000014H

; 517  : 			if( pIconBtn )

  002aa	3b c3		 cmp	 eax, ebx
  002ac	74 1f		 je	 SHORT $LN10@UpdateData

; 518  : 				pIconBtn->SetIcon( NULL, 0.62f, 0.62f );

  002ae	f3 0f 10 05 00
	00 00 00	 movss	 xmm0, DWORD PTR __real@3f1eb852
  002b6	53		 push	 ebx
  002b7	53		 push	 ebx
  002b8	51		 push	 ecx
  002b9	51		 push	 ecx
  002ba	f3 0f 11 44 24
	04		 movss	 DWORD PTR [esp+4], xmm0
  002c0	f3 0f 11 04 24	 movss	 DWORD PTR [esp], xmm0
  002c5	53		 push	 ebx
  002c6	8b c8		 mov	 ecx, eax
  002c8	e8 00 00 00 00	 call	 ?SetIcon@InventoryIconBtn@@QAE_NPAVioUIRenderImage@@MMHW4NumberType@1@@Z ; InventoryIconBtn::SetIcon
$LN10@UpdateData:

; 519  : 		}
; 520  : 
; 521  : 		bool bSelect3 = false;
; 522  : 		if( pExtraItem->GetExtraItem( iItemIndex3, kSlot ) )

  002cd	8b 4d e4	 mov	 ecx, DWORD PTR _pExtraItem$[ebp]
  002d0	8d 85 7c ff ff
	ff		 lea	 eax, DWORD PTR _kSlot$[ebp]
  002d6	50		 push	 eax
  002d7	ff 75 d4	 push	 DWORD PTR _iItemIndex3$[ebp]
  002da	88 5d f1	 mov	 BYTE PTR _bSelect3$511469[ebp], bl
  002dd	e8 00 00 00 00	 call	 ?GetExtraItem@ioUserExtraItem@@QAE_NHAAUEXTRAITEMSLOT@@@Z ; ioUserExtraItem::GetExtraItem

; 523  : 		{
; 524  : 			bSelect3 = true;
; 525  : 			InventoryIconBtn *pIconBtn = dynamic_cast<InventoryIconBtn*>(FindChildWnd(ID_ICON3_BTN));

  002e2	8b 4d ec	 mov	 ecx, DWORD PTR _this$[ebp]
  002e5	53		 push	 ebx
  002e6	68 00 00 00 00	 push	 OFFSET ??_R0?AVInventoryIconBtn@@@8
  002eb	57		 push	 edi
  002ec	53		 push	 ebx
  002ed	6a 17		 push	 23			; 00000017H
  002ef	84 c0		 test	 al, al
  002f1	0f 84 a2 00 00
	00		 je	 $LN9@UpdateData
  002f7	c6 45 f1 01	 mov	 BYTE PTR _bSelect3$511469[ebp], 1
  002fb	ff d6		 call	 esi
  002fd	50		 push	 eax
  002fe	e8 00 00 00 00	 call	 ___RTDynamicCast
  00303	8b f0		 mov	 esi, eax
  00305	83 c4 14	 add	 esp, 20			; 00000014H

; 526  : 			if( pIconBtn )

  00308	3b f3		 cmp	 esi, ebx
  0030a	0f 84 b7 00 00
	00		 je	 $LN5@UpdateData

; 527  : 			{
; 528  : 				ioUIRenderImage *pImg = NULL;
; 529  : 				pImg = g_UIImageSetMgr.CreateImageByFullName( kSlot.m_IconName );

  00310	8d 45 b4	 lea	 eax, DWORD PTR _kSlot$[ebp+56]
  00313	53		 push	 ebx
  00314	50		 push	 eax
  00315	ff 15 00 00 00
	00		 call	 DWORD PTR __imp_?GetSingleton@ioUIImageSetManager@@SAAAV1@XZ
  0031b	8b c8		 mov	 ecx, eax
  0031d	ff 15 00 00 00
	00		 call	 DWORD PTR __imp_?CreateImageByFullName@ioUIImageSetManager@@QAEPAVioUIRenderImage@@ABVioHashString@@_N@Z

; 530  : 				pIconBtn->SetIcon( pImg, 0.62f, 0.62f, kSlot.m_iReinforce );

  00323	f3 0f 10 05 00
	00 00 00	 movss	 xmm0, DWORD PTR __real@3f1eb852
  0032b	53		 push	 ebx
  0032c	ff 75 80	 push	 DWORD PTR _kSlot$[ebp+4]
  0032f	51		 push	 ecx
  00330	51		 push	 ecx
  00331	f3 0f 11 44 24
	04		 movss	 DWORD PTR [esp+4], xmm0
  00337	f3 0f 11 04 24	 movss	 DWORD PTR [esp], xmm0
  0033c	50		 push	 eax
  0033d	8b ce		 mov	 ecx, esi
  0033f	e8 00 00 00 00	 call	 ?SetIcon@InventoryIconBtn@@QAE_NPAVioUIRenderImage@@MMHW4NumberType@1@@Z ; InventoryIconBtn::SetIcon

; 531  : 
; 532  : 				const ioItem *pItem = g_ItemMaker.GetItemConst( kSlot.m_iItemCode, __FUNCTION__ );

  00344	68 00 00 00 00	 push	 OFFSET ??_C@_0CE@ENLOPAJL@ItemMultipleCompoundWnd?3?3UpdateD@
  00349	8d 4d c4	 lea	 ecx, DWORD PTR $T515960[ebp]
  0034c	ff 15 00 00 00
	00		 call	 DWORD PTR __imp_??0ioHashString@@QAE@PBD@Z
  00352	8d 45 c4	 lea	 eax, DWORD PTR $T515960[ebp]
  00355	50		 push	 eax
  00356	ff b5 7c ff ff
	ff		 push	 DWORD PTR _kSlot$[ebp]
  0035c	c6 45 fc 03	 mov	 BYTE PTR __$EHRec$[ebp+8], 3
  00360	e8 00 00 00 00	 call	 ?GetSingleton@ioItemMaker@@SAAAV1@XZ ; ioItemMaker::GetSingleton
  00365	8b c8		 mov	 ecx, eax
  00367	e8 00 00 00 00	 call	 ?GetItemConst@ioItemMaker@@QBEPBVioItem@@KABVioHashString@@@Z ; ioItemMaker::GetItemConst
  0036c	8d 4d c4	 lea	 ecx, DWORD PTR $T515960[ebp]
  0036f	8b f8		 mov	 edi, eax
  00371	88 5d fc	 mov	 BYTE PTR __$EHRec$[ebp+8], bl
  00374	ff 15 00 00 00
	00		 call	 DWORD PTR __imp_??1ioHashString@@QAE@XZ

; 533  : 				if( pItem )

  0037a	3b fb		 cmp	 edi, ebx
  0037c	74 0c		 je	 SHORT $LN52@UpdateData

; 534  : 					pIconBtn->SetGradeType( pItem->GetGradeType() );

  0037e	8b bf 20 06 00
	00		 mov	 edi, DWORD PTR [edi+1568]
  00384	89 be 84 02 00
	00		 mov	 DWORD PTR [esi+644], edi
$LN52@UpdateData:

; 535  : 
; 536  : 				pIconBtn->SetMarkType( INVENTORY_MARK_TYPE_NONE );
; 537  : 				pIconBtn->SetActive();

  0038a	8b 06		 mov	 eax, DWORD PTR [esi]
  0038c	8b ce		 mov	 ecx, esi
  0038e	89 9e 3c 02 00
	00		 mov	 DWORD PTR [esi+572], ebx
  00394	ff 50 20	 call	 DWORD PTR [eax+32]

; 538  : 			}
; 539  : 		}
; 540  : 		else

  00397	eb 2e		 jmp	 SHORT $LN5@UpdateData
$LN9@UpdateData:

; 541  : 		{
; 542  : 			InventoryIconBtn *pIconBtn = dynamic_cast<InventoryIconBtn*>(FindChildWnd(ID_ICON3_BTN));

  00399	ff d6		 call	 esi
  0039b	50		 push	 eax
  0039c	e8 00 00 00 00	 call	 ___RTDynamicCast
  003a1	83 c4 14	 add	 esp, 20			; 00000014H

; 543  : 			if( pIconBtn )

  003a4	3b c3		 cmp	 eax, ebx
  003a6	74 1f		 je	 SHORT $LN5@UpdateData

; 544  : 				pIconBtn->SetIcon( NULL, 0.62f, 0.62f );

  003a8	f3 0f 10 05 00
	00 00 00	 movss	 xmm0, DWORD PTR __real@3f1eb852
  003b0	53		 push	 ebx
  003b1	53		 push	 ebx
  003b2	51		 push	 ecx
  003b3	51		 push	 ecx
  003b4	f3 0f 11 44 24
	04		 movss	 DWORD PTR [esp+4], xmm0
  003ba	f3 0f 11 04 24	 movss	 DWORD PTR [esp], xmm0
  003bf	53		 push	 ebx
  003c0	8b c8		 mov	 ecx, eax
  003c2	e8 00 00 00 00	 call	 ?SetIcon@InventoryIconBtn@@QAE_NPAVioUIRenderImage@@MMHW4NumberType@1@@Z ; InventoryIconBtn::SetIcon
$LN5@UpdateData:

; 545  : 		}
; 546  : 
; 547  : 		if( bSelect1 && bSelect2 && bSelect3 )

  003c7	38 5d f3	 cmp	 BYTE PTR _bSelect1$511442[ebp], bl
  003ca	74 14		 je	 SHORT $LN4@UpdateData
  003cc	38 5d f2	 cmp	 BYTE PTR _bSelect2$511456[ebp], bl
  003cf	74 0f		 je	 SHORT $LN4@UpdateData
  003d1	38 5d f1	 cmp	 BYTE PTR _bSelect3$511469[ebp], bl
  003d4	74 0a		 je	 SHORT $LN4@UpdateData

; 548  : 		{
; 549  : 			m_bAllSelect = true;

  003d6	8b 45 ec	 mov	 eax, DWORD PTR _this$[ebp]
  003d9	c6 80 64 01 00
	00 01		 mov	 BYTE PTR [eax+356], 1
$LN4@UpdateData:

; 550  : 		}
; 551  : 	}
; 552  : 
; 553  : 	if( m_dwEtcItemType == ioEtcItem::EIT_ETC_MULTIPLE_EQUAL_COMPOUND ||
; 554  : 		m_dwEtcItemType == ioEtcItem::EIT_ETC_MULTIPLE_EQUAL_COMPOUND2 ||
; 555  : 		m_dwEtcItemType == ioEtcItem::EIT_ETC_MULTIPLE_EQUAL_COMPOUND3 )

  003e0	8b 7d ec	 mov	 edi, DWORD PTR _this$[ebp]
  003e3	8b 87 60 01 00
	00		 mov	 eax, DWORD PTR [edi+352]
  003e9	3d 5f 42 0f 00	 cmp	 eax, 1000031		; 000f425fH
  003ee	74 0e		 je	 SHORT $LN2@UpdateData
  003f0	3d a4 42 0f 00	 cmp	 eax, 1000100		; 000f42a4H
  003f5	74 07		 je	 SHORT $LN2@UpdateData
  003f7	3d a5 42 0f 00	 cmp	 eax, 1000101		; 000f42a5H
  003fc	75 28		 jne	 SHORT $LN1@UpdateData
$LN2@UpdateData:

; 556  : 	{
; 557  : 		if( pExtraItem->GetExtraItem( iItemIndex1, kSlot ) )

  003fe	8b 4d e4	 mov	 ecx, DWORD PTR _pExtraItem$[ebp]
  00401	8d 85 7c ff ff
	ff		 lea	 eax, DWORD PTR _kSlot$[ebp]
  00407	50		 push	 eax
  00408	ff 75 e0	 push	 DWORD PTR _iItemIndex1$[ebp]
  0040b	e8 00 00 00 00	 call	 ?GetExtraItem@ioUserExtraItem@@QAE_NHAAUEXTRAITEMSLOT@@@Z ; ioUserExtraItem::GetExtraItem
  00410	84 c0		 test	 al, al
  00412	74 12		 je	 SHORT $LN1@UpdateData

; 558  : 		{
; 559  : 			SetChildActive(ID_ITEM2_BTN);

  00414	8b 35 00 00 00
	00		 mov	 esi, DWORD PTR __imp_?SetChildActive@ioWnd@@QAEXK@Z
  0041a	6a 0c		 push	 12			; 0000000cH
  0041c	8b cf		 mov	 ecx, edi
  0041e	ff d6		 call	 esi

; 560  : 			SetChildActive(ID_ITEM3_BTN);

  00420	6a 0d		 push	 13			; 0000000dH
  00422	8b cf		 mov	 ecx, edi
  00424	ff d6		 call	 esi
$LN1@UpdateData:

; 561  : 		}
; 562  : 	}
; 563  : }

  00426	83 4d fc ff	 or	 DWORD PTR __$EHRec$[ebp+8], -1
  0042a	8d 8d 7c ff ff
	ff		 lea	 ecx, DWORD PTR _kSlot$[ebp]
  00430	e8 00 00 00 00	 call	 ??1EXTRAITEMSLOT@@QAE@XZ
$LN24@UpdateData:
  00435	e8 00 00 00 00	 call	 __EH_epilog3
  0043a	c3		 ret	 0
_TEXT	ENDS
;	COMDAT text$x
text$x	SEGMENT
__unwindfunclet$?UpdateData@ItemMultipleCompoundWnd@@IAEXXZ$0:
  00000	8d 8d 7c ff ff
	ff		 lea	 ecx, DWORD PTR _kSlot$[ebp]
  00006	e9 00 00 00 00	 jmp	 ??1EXTRAITEMSLOT@@QAE@XZ
__unwindfunclet$?UpdateData@ItemMultipleCompoundWnd@@IAEXXZ$1:
  0000b	8d 4d c4	 lea	 ecx, DWORD PTR $T515958[ebp]
  0000e	ff 25 00 00 00
	00		 jmp	 DWORD PTR __imp_??1ioHashString@@QAE@XZ
__unwindfunclet$?UpdateData@ItemMultipleCompoundWnd@@IAEXXZ$2:
  00014	8d 4d c4	 lea	 ecx, DWORD PTR $T515959[ebp]
  00017	ff 25 00 00 00
	00		 jmp	 DWORD PTR __imp_??1ioHashString@@QAE@XZ
__unwindfunclet$?UpdateData@ItemMultipleCompoundWnd@@IAEXXZ$3:
  0001d	8d 4d c4	 lea	 ecx, DWORD PTR $T515960[ebp]
  00020	ff 25 00 00 00
	00		 jmp	 DWORD PTR __imp_??1ioHashString@@QAE@XZ
__ehhandler$?UpdateData@ItemMultipleCompoundWnd@@IAEXXZ:
  00026	8b 54 24 08	 mov	 edx, DWORD PTR [esp+8]
  0002a	8d 42 0c	 lea	 eax, DWORD PTR [edx+12]
  0002d	8b 8a 78 ff ff
	ff		 mov	 ecx, DWORD PTR [edx-136]
  00033	33 c8		 xor	 ecx, eax
  00035	e8 00 00 00 00	 call	 @__security_check_cookie@4
  0003a	b8 00 00 00 00	 mov	 eax, OFFSET __ehfuncinfo$?UpdateData@ItemMultipleCompoundWnd@@IAEXXZ
  0003f	e9 00 00 00 00	 jmp	 ___CxxFrameHandler3
text$x	ENDS
?UpdateData@ItemMultipleCompoundWnd@@IAEXXZ ENDP	; ItemMultipleCompoundWnd::UpdateData
PUBLIC	??_C@_0DP@IJGLMGGP@ItemMultipleCompoundWnd?3?3SendIte@ ; `string'
PUBLIC	??_C@_0CK@FCJICNDB@ItemMultipleCompoundWnd?3?3SendIte@ ; `string'
PUBLIC	??_C@_00CNPNBAHC@?$AA@				; `string'
PUBLIC	_this$GSCopy$
PUBLIC	__$ArrayPad$
PUBLIC	?SendItemCompound@ItemMultipleCompoundWnd@@IAEXXZ ; ItemMultipleCompoundWnd::SendItemCompound
EXTRN	__imp_?PrintTimeAndLog@CLog@@QAAXHPADZZ:PROC
EXTRN	__imp_?LOG@@3VCLog@@A:BYTE
EXTRN	?SetMsgBox@ioSP2GUIManager@@QAAXHPAVioWnd@@PBDZZ:PROC ; ioSP2GUIManager::SetMsgBox
EXTRN	?GetSingleton@ioSP2GUIManager@@SAAAV1@XZ:PROC	; ioSP2GUIManager::GetSingleton
EXTRN	__imp_?GetString@ioStringManager@@QAEPADPBD0HW4FileNamePrefix@1@@Z:PROC
EXTRN	__imp_?GetSingleton@ioStringManager@@SAAAV1@XZ:PROC
EXTRN	??1SP2Packet@@UAE@XZ:PROC			; SP2Packet::~SP2Packet
EXTRN	__imp_?HideWnd@ioWnd@@QAEXXZ:PROC
EXTRN	?MouseBusy@TCPNetwork@@YAX_N@Z:PROC		; TCPNetwork::MouseBusy
EXTRN	?SendToServer@TCPNetwork@@YAXAAVSP2Packet@@@Z:PROC ; TCPNetwork::SendToServer
EXTRN	??6SP2Packet@@QAEAAV0@H@Z:PROC			; SP2Packet::operator<<
EXTRN	??0SP2Packet@@QAE@K@Z:PROC			; SP2Packet::SP2Packet
EXTRN	___security_cookie:DWORD
EXTRN	__chkstk:PROC
;	COMDAT ??_C@_0DP@IJGLMGGP@ItemMultipleCompoundWnd?3?3SendIte@
; File d:\lost saga for developer\youtube\tutorial\source\src\lsclient\iomyinfo.h
CONST	SEGMENT
??_C@_0DP@IJGLMGGP@ItemMultipleCompoundWnd?3?3SendIte@ DB 'ItemMultipleCo'
	DB	'mpoundWnd::SendItemCompound - Exception Error(1)', 00H ; `string'
CONST	ENDS
;	COMDAT ??_C@_0CK@FCJICNDB@ItemMultipleCompoundWnd?3?3SendIte@
CONST	SEGMENT
??_C@_0CK@FCJICNDB@ItemMultipleCompoundWnd?3?3SendIte@ DB 'ItemMultipleCo'
	DB	'mpoundWnd::SendItemCompound', 00H		; `string'
CONST	ENDS
;	COMDAT ??_C@_00CNPNBAHC@?$AA@
CONST	SEGMENT
??_C@_00CNPNBAHC@?$AA@ DB 00H				; `string'
CONST	ENDS
;	COMDAT xdata$x
xdata$x	SEGMENT
__unwindtable$?SendItemCompound@ItemMultipleCompoundWnd@@IAEXXZ DD 0ffffffffH
	DD	FLAT:__unwindfunclet$?SendItemCompound@ItemMultipleCompoundWnd@@IAEXXZ$0
	DD	0ffffffffH
	DD	FLAT:__unwindfunclet$?SendItemCompound@ItemMultipleCompoundWnd@@IAEXXZ$1
__ehfuncinfo$?SendItemCompound@ItemMultipleCompoundWnd@@IAEXXZ DD 019930522H
	DD	02H
	DD	FLAT:__unwindtable$?SendItemCompound@ItemMultipleCompoundWnd@@IAEXXZ
	DD	2 DUP(00H)
	DD	2 DUP(00H)
	DD	00H
	DD	01H
; Function compile flags: /Ogsp
; File d:\lost saga for developer\youtube\tutorial\source\src\lsclient\gui\itemmultiplecompoundwnd.cpp
xdata$x	ENDS
;	COMDAT ?SendItemCompound@ItemMultipleCompoundWnd@@IAEXXZ
_TEXT	SEGMENT
_kSlot$511504 = -32892					; size = 72
_pItem2$ = -32820					; size = 4
_iItemIndex3$ = -32816					; size = 4
_pItem1$ = -32816					; size = 4
_this$GSCopy$ = -32812					; size = 4
_kPacket$ = -32808					; size = 32792
__$ArrayPad$ = -16					; size = 4
__$EHRec$ = -12						; size = 12
?SendItemCompound@ItemMultipleCompoundWnd@@IAEXXZ PROC	; ItemMultipleCompoundWnd::SendItemCompound, COMDAT
; _this$ = ecx

; 566  : {

  00000	55		 push	 ebp
  00001	8b ec		 mov	 ebp, esp
  00003	6a ff		 push	 -1
  00005	68 00 00 00 00	 push	 __ehhandler$?SendItemCompound@ItemMultipleCompoundWnd@@IAEXXZ
  0000a	64 a1 00 00 00
	00		 mov	 eax, DWORD PTR fs:0
  00010	50		 push	 eax
  00011	b8 70 80 00 00	 mov	 eax, 32880		; 00008070H
  00016	e8 00 00 00 00	 call	 __chkstk
  0001b	a1 00 00 00 00	 mov	 eax, DWORD PTR ___security_cookie
  00020	33 c5		 xor	 eax, ebp
  00022	89 45 f0	 mov	 DWORD PTR __$ArrayPad$[ebp], eax
  00025	53		 push	 ebx
  00026	56		 push	 esi
  00027	57		 push	 edi
  00028	50		 push	 eax
  00029	8d 45 f4	 lea	 eax, DWORD PTR __$EHRec$[ebp]
  0002c	64 a3 00 00 00
	00		 mov	 DWORD PTR fs:0, eax

; 567  : 	SelectExtraItemBtn *pItem1 = dynamic_cast<SelectExtraItemBtn*>(FindChildWnd(ID_ITEM1_BTN));

  00032	8b 35 00 00 00
	00		 mov	 esi, DWORD PTR __imp_?FindChildWnd@ioWnd@@QAEPAV1@K@Z
  00038	6a 00		 push	 0
  0003a	bb 00 00 00 00	 mov	 ebx, OFFSET ??_R0?AVSelectExtraItemBtn@@@8
  0003f	53		 push	 ebx
  00040	bf 00 00 00 00	 mov	 edi, OFFSET ??_R0?AVioWnd@@@8
  00045	57		 push	 edi
  00046	6a 00		 push	 0
  00048	6a 0b		 push	 11			; 0000000bH
  0004a	89 8d d4 7f ff
	ff		 mov	 DWORD PTR _this$GSCopy$[ebp], ecx
  00050	ff d6		 call	 esi
  00052	50		 push	 eax
  00053	e8 00 00 00 00	 call	 ___RTDynamicCast
  00058	83 c4 14	 add	 esp, 20			; 00000014H
  0005b	89 85 d0 7f ff
	ff		 mov	 DWORD PTR _pItem1$[ebp], eax

; 568  : 	if( !pItem1 ) return;

  00061	85 c0		 test	 eax, eax
  00063	0f 84 eb 01 00
	00		 je	 $LN12@SendItemCo

; 569  : 
; 570  : 	SelectExtraItemBtn *pItem2 = dynamic_cast<SelectExtraItemBtn*>(FindChildWnd(ID_ITEM2_BTN));

  00069	8b 8d d4 7f ff
	ff		 mov	 ecx, DWORD PTR _this$GSCopy$[ebp]
  0006f	6a 00		 push	 0
  00071	53		 push	 ebx
  00072	57		 push	 edi
  00073	6a 00		 push	 0
  00075	6a 0c		 push	 12			; 0000000cH
  00077	ff d6		 call	 esi
  00079	50		 push	 eax
  0007a	e8 00 00 00 00	 call	 ___RTDynamicCast
  0007f	83 c4 14	 add	 esp, 20			; 00000014H
  00082	89 85 cc 7f ff
	ff		 mov	 DWORD PTR _pItem2$[ebp], eax

; 571  : 	if( !pItem2 ) return;

  00088	85 c0		 test	 eax, eax
  0008a	0f 84 c4 01 00
	00		 je	 $LN12@SendItemCo

; 572  : 
; 573  : 	SelectExtraItemBtn *pItem3 = dynamic_cast<SelectExtraItemBtn*>(FindChildWnd(ID_ITEM3_BTN));

  00090	8b 8d d4 7f ff
	ff		 mov	 ecx, DWORD PTR _this$GSCopy$[ebp]
  00096	6a 00		 push	 0
  00098	53		 push	 ebx
  00099	57		 push	 edi
  0009a	6a 00		 push	 0
  0009c	6a 0d		 push	 13			; 0000000dH
  0009e	ff d6		 call	 esi
  000a0	50		 push	 eax
  000a1	e8 00 00 00 00	 call	 ___RTDynamicCast
  000a6	83 c4 14	 add	 esp, 20			; 00000014H

; 574  : 	if( !pItem3 ) return;

  000a9	85 c0		 test	 eax, eax
  000ab	0f 84 a3 01 00
	00		 je	 $LN12@SendItemCo

; 575  : 
; 576  : 	int iItemIndex1 = pItem1->GetSelectExtraItemSlot();

  000b1	8b 8d d0 7f ff
	ff		 mov	 ecx, DWORD PTR _pItem1$[ebp]
  000b7	8b b9 fc 01 00
	00		 mov	 edi, DWORD PTR [ecx+508]

; 577  : 	int iItemIndex2 = pItem2->GetSelectExtraItemSlot();

  000bd	8b 8d cc 7f ff
	ff		 mov	 ecx, DWORD PTR _pItem2$[ebp]

; 578  : 	int iItemIndex3 = pItem3->GetSelectExtraItemSlot();

  000c3	8b 80 fc 01 00
	00		 mov	 eax, DWORD PTR [eax+508]
  000c9	8b 99 fc 01 00
	00		 mov	 ebx, DWORD PTR [ecx+508]
  000cf	89 85 d0 7f ff
	ff		 mov	 DWORD PTR _iItemIndex3$[ebp], eax

; 579  : 
; 580  : 	int iItemType = -1;
; 581  : 
; 582  : 	ioUserExtraItem *pExtraItem = g_MyInfo.GetUserExtraItem();

  000d5	e8 00 00 00 00	 call	 ?GetSingleton@ioMyInfo@@SAAAV1@XZ ; ioMyInfo::GetSingleton
  000da	8d b0 ac 01 00
	00		 lea	 esi, DWORD PTR [eax+428]

; 583  : 	if( pExtraItem )

  000e0	85 f6		 test	 esi, esi
  000e2	0f 84 56 01 00
	00		 je	 $LN8@SendItemCo

; 584  : 	{
; 585  : 		EXTRAITEMSLOT kSlot;

  000e8	8d 8d 84 7f ff
	ff		 lea	 ecx, DWORD PTR _kSlot$511504[ebp]
  000ee	e8 00 00 00 00	 call	 ??0EXTRAITEMSLOT@@QAE@XZ ; EXTRAITEMSLOT::EXTRAITEMSLOT
  000f3	83 65 fc 00	 and	 DWORD PTR __$EHRec$[ebp+8], 0

; 586  : 
; 587  : 		if( !pExtraItem->GetExtraItem( iItemIndex1, kSlot ) ||
; 588  : 			!pExtraItem->GetExtraItem( iItemIndex2, kSlot ) ||
; 589  : 			!pExtraItem->GetExtraItem( iItemIndex3, kSlot ) )

  000f7	8d 85 84 7f ff
	ff		 lea	 eax, DWORD PTR _kSlot$511504[ebp]
  000fd	50		 push	 eax
  000fe	57		 push	 edi
  000ff	8b ce		 mov	 ecx, esi
  00101	e8 00 00 00 00	 call	 ?GetExtraItem@ioUserExtraItem@@QAE_NHAAUEXTRAITEMSLOT@@@Z ; ioUserExtraItem::GetExtraItem
  00106	84 c0		 test	 al, al
  00108	0f 84 c9 00 00
	00		 je	 $LN6@SendItemCo
  0010e	8d 85 84 7f ff
	ff		 lea	 eax, DWORD PTR _kSlot$511504[ebp]
  00114	50		 push	 eax
  00115	53		 push	 ebx
  00116	8b ce		 mov	 ecx, esi
  00118	e8 00 00 00 00	 call	 ?GetExtraItem@ioUserExtraItem@@QAE_NHAAUEXTRAITEMSLOT@@@Z ; ioUserExtraItem::GetExtraItem
  0011d	84 c0		 test	 al, al
  0011f	0f 84 b2 00 00
	00		 je	 $LN6@SendItemCo
  00125	8d 85 84 7f ff
	ff		 lea	 eax, DWORD PTR _kSlot$511504[ebp]
  0012b	50		 push	 eax
  0012c	ff b5 d0 7f ff
	ff		 push	 DWORD PTR _iItemIndex3$[ebp]
  00132	8b ce		 mov	 ecx, esi
  00134	e8 00 00 00 00	 call	 ?GetExtraItem@ioUserExtraItem@@QAE_NHAAUEXTRAITEMSLOT@@@Z ; ioUserExtraItem::GetExtraItem
  00139	84 c0		 test	 al, al
  0013b	0f 84 96 00 00
	00		 je	 $LN6@SendItemCo

; 598  : 		}
; 599  : 		else
; 600  : 		{
; 601  : 			iItemType = kSlot.m_iItemCode / DEFAULT_BASIC_ITEM_CODE;
; 602  : 		}
; 603  : 	}

  00141	83 4d fc ff	 or	 DWORD PTR __$EHRec$[ebp+8], -1
  00145	8d 8d 84 7f ff
	ff		 lea	 ecx, DWORD PTR _kSlot$511504[ebp]
  0014b	e8 00 00 00 00	 call	 ??1EXTRAITEMSLOT@@QAE@XZ

; 607  : 		return;
; 608  : 	}
; 609  : 
; 610  : 	SP2Packet kPacket( CTPK_ETCITEM_USE );

  00150	68 59 01 00 00	 push	 345			; 00000159H
  00155	8d 8d d8 7f ff
	ff		 lea	 ecx, DWORD PTR _kPacket$[ebp]
  0015b	e8 00 00 00 00	 call	 ??0SP2Packet@@QAE@K@Z	; SP2Packet::SP2Packet

; 611  : 	kPacket << (int)m_dwEtcItemType;

  00160	8b 85 d4 7f ff
	ff		 mov	 eax, DWORD PTR _this$GSCopy$[ebp]
  00166	ff b0 60 01 00
	00		 push	 DWORD PTR [eax+352]
  0016c	33 f6		 xor	 esi, esi
  0016e	46		 inc	 esi
  0016f	8d 8d d8 7f ff
	ff		 lea	 ecx, DWORD PTR _kPacket$[ebp]
  00175	89 75 fc	 mov	 DWORD PTR __$EHRec$[ebp+8], esi
  00178	e8 00 00 00 00	 call	 ??6SP2Packet@@QAEAAV0@H@Z ; SP2Packet::operator<<

; 612  : 	kPacket << iItemIndex1;

  0017d	57		 push	 edi
  0017e	8d 8d d8 7f ff
	ff		 lea	 ecx, DWORD PTR _kPacket$[ebp]
  00184	e8 00 00 00 00	 call	 ??6SP2Packet@@QAEAAV0@H@Z ; SP2Packet::operator<<

; 613  : 	kPacket << iItemIndex2;

  00189	53		 push	 ebx
  0018a	8d 8d d8 7f ff
	ff		 lea	 ecx, DWORD PTR _kPacket$[ebp]
  00190	e8 00 00 00 00	 call	 ??6SP2Packet@@QAEAAV0@H@Z ; SP2Packet::operator<<

; 614  : 	kPacket << iItemIndex3;

  00195	ff b5 d0 7f ff
	ff		 push	 DWORD PTR _iItemIndex3$[ebp]
  0019b	8d 8d d8 7f ff
	ff		 lea	 ecx, DWORD PTR _kPacket$[ebp]
  001a1	e8 00 00 00 00	 call	 ??6SP2Packet@@QAEAAV0@H@Z ; SP2Packet::operator<<

; 615  : 	TCPNetwork::SendToServer( kPacket );

  001a6	8d 85 d8 7f ff
	ff		 lea	 eax, DWORD PTR _kPacket$[ebp]
  001ac	50		 push	 eax
  001ad	e8 00 00 00 00	 call	 ?SendToServer@TCPNetwork@@YAXAAVSP2Packet@@@Z ; TCPNetwork::SendToServer

; 616  : 
; 617  : 	TCPNetwork::MouseBusy( true );

  001b2	56		 push	 esi
  001b3	e8 00 00 00 00	 call	 ?MouseBusy@TCPNetwork@@YAX_N@Z ; TCPNetwork::MouseBusy
  001b8	59		 pop	 ecx
  001b9	59		 pop	 ecx

; 618  : 
; 619  : 	HideWnd();

  001ba	8b 8d d4 7f ff
	ff		 mov	 ecx, DWORD PTR _this$GSCopy$[ebp]
  001c0	ff 15 00 00 00
	00		 call	 DWORD PTR __imp_?HideWnd@ioWnd@@QAEXXZ

; 620  : }

  001c6	83 4d fc ff	 or	 DWORD PTR __$EHRec$[ebp+8], -1
  001ca	8d 8d d8 7f ff
	ff		 lea	 ecx, DWORD PTR _kPacket$[ebp]
  001d0	e8 00 00 00 00	 call	 ??1SP2Packet@@UAE@XZ	; SP2Packet::~SP2Packet
  001d5	eb 7d		 jmp	 SHORT $LN12@SendItemCo
$LN6@SendItemCo:

; 590  : 		{
; 591  : 			if( m_dwEtcItemType == ioEtcItem::EIT_ETC_MULTIPLE_EQUAL_COMPOUND ||
; 592  : 				m_dwEtcItemType == ioEtcItem::EIT_ETC_MULTIPLE_EQUAL_COMPOUND2 ||
; 593  : 				m_dwEtcItemType == ioEtcItem::EIT_ETC_MULTIPLE_EQUAL_COMPOUND3 )

  001d7	8b 85 d4 7f ff
	ff		 mov	 eax, DWORD PTR _this$GSCopy$[ebp]
  001dd	8b 80 60 01 00
	00		 mov	 eax, DWORD PTR [eax+352]
  001e3	3d 5f 42 0f 00	 cmp	 eax, 1000031		; 000f425fH
  001e8	74 15		 je	 SHORT $LN4@SendItemCo
  001ea	3d a4 42 0f 00	 cmp	 eax, 1000100		; 000f42a4H
  001ef	74 0e		 je	 SHORT $LN4@SendItemCo
  001f1	3d a5 42 0f 00	 cmp	 eax, 1000101		; 000f42a5H
  001f6	74 07		 je	 SHORT $LN4@SendItemCo

; 595  : 			else
; 596  : 				g_GUIMgr.SetMsgBox( MB_OK, NULL, STR(2) );

  001f8	33 f6		 xor	 esi, esi
  001fa	56		 push	 esi
  001fb	6a 02		 push	 2
  001fd	eb 05		 jmp	 SHORT $LN25@SendItemCo
$LN4@SendItemCo:

; 594  : 				g_GUIMgr.SetMsgBox( MB_OK, NULL, STR(1) );

  001ff	33 f6		 xor	 esi, esi
  00201	56		 push	 esi
  00202	6a 01		 push	 1
$LN25@SendItemCo:
  00204	68 00 00 00 00	 push	 OFFSET ??_C@_00CNPNBAHC@?$AA@
  00209	68 00 00 00 00	 push	 OFFSET ??_C@_0CK@FCJICNDB@ItemMultipleCompoundWnd?3?3SendIte@
  0020e	ff 15 00 00 00
	00		 call	 DWORD PTR __imp_?GetSingleton@ioStringManager@@SAAAV1@XZ
  00214	8b c8		 mov	 ecx, eax
  00216	ff 15 00 00 00
	00		 call	 DWORD PTR __imp_?GetString@ioStringManager@@QAEPADPBD0HW4FileNamePrefix@1@@Z
  0021c	50		 push	 eax
  0021d	56		 push	 esi
  0021e	56		 push	 esi
  0021f	e8 00 00 00 00	 call	 ?GetSingleton@ioSP2GUIManager@@SAAAV1@XZ ; ioSP2GUIManager::GetSingleton
  00224	50		 push	 eax
  00225	e8 00 00 00 00	 call	 ?SetMsgBox@ioSP2GUIManager@@QAAXHPAVioWnd@@PBDZZ ; ioSP2GUIManager::SetMsgBox

; 597  : 			return;

  0022a	83 4d fc ff	 or	 DWORD PTR __$EHRec$[ebp+8], -1
  0022e	83 c4 10	 add	 esp, 16			; 00000010H
  00231	8d 8d 84 7f ff
	ff		 lea	 ecx, DWORD PTR _kSlot$511504[ebp]
  00237	e8 00 00 00 00	 call	 ??1EXTRAITEMSLOT@@QAE@XZ
  0023c	eb 16		 jmp	 SHORT $LN12@SendItemCo
$LN8@SendItemCo:

; 604  : 	else
; 605  : 	{
; 606  : 		LOG.PrintTimeAndLog( 0, "ItemMultipleCompoundWnd::SendItemCompound - Exception Error(1)" );

  0023e	68 00 00 00 00	 push	 OFFSET ??_C@_0DP@IJGLMGGP@ItemMultipleCompoundWnd?3?3SendIte@
  00243	6a 00		 push	 0
  00245	ff 35 00 00 00
	00		 push	 DWORD PTR __imp_?LOG@@3VCLog@@A
  0024b	ff 15 00 00 00
	00		 call	 DWORD PTR __imp_?PrintTimeAndLog@CLog@@QAAXHPADZZ
  00251	83 c4 0c	 add	 esp, 12			; 0000000cH
$LN12@SendItemCo:

; 620  : }

  00254	8b 4d f4	 mov	 ecx, DWORD PTR __$EHRec$[ebp]
  00257	64 89 0d 00 00
	00 00		 mov	 DWORD PTR fs:0, ecx
  0025e	59		 pop	 ecx
  0025f	5f		 pop	 edi
  00260	5e		 pop	 esi
  00261	5b		 pop	 ebx
  00262	8b 4d f0	 mov	 ecx, DWORD PTR __$ArrayPad$[ebp]
  00265	33 cd		 xor	 ecx, ebp
  00267	e8 00 00 00 00	 call	 @__security_check_cookie@4
  0026c	c9		 leave
  0026d	c3		 ret	 0
_TEXT	ENDS
;	COMDAT text$x
text$x	SEGMENT
__unwindfunclet$?SendItemCompound@ItemMultipleCompoundWnd@@IAEXXZ$0:
  00000	8d 8d 84 7f ff
	ff		 lea	 ecx, DWORD PTR _kSlot$511504[ebp]
  00006	e9 00 00 00 00	 jmp	 ??1EXTRAITEMSLOT@@QAE@XZ
__unwindfunclet$?SendItemCompound@ItemMultipleCompoundWnd@@IAEXXZ$1:
  0000b	8d 8d d8 7f ff
	ff		 lea	 ecx, DWORD PTR _kPacket$[ebp]
  00011	e9 00 00 00 00	 jmp	 ??1SP2Packet@@UAE@XZ	; SP2Packet::~SP2Packet
__ehhandler$?SendItemCompound@ItemMultipleCompoundWnd@@IAEXXZ:
  00016	8b 54 24 08	 mov	 edx, DWORD PTR [esp+8]
  0001a	8d 42 0c	 lea	 eax, DWORD PTR [edx+12]
  0001d	8b 8a 80 7f ff
	ff		 mov	 ecx, DWORD PTR [edx-32896]
  00023	33 c8		 xor	 ecx, eax
  00025	e8 00 00 00 00	 call	 @__security_check_cookie@4
  0002a	8b 4a fc	 mov	 ecx, DWORD PTR [edx-4]
  0002d	33 c8		 xor	 ecx, eax
  0002f	e8 00 00 00 00	 call	 @__security_check_cookie@4
  00034	b8 00 00 00 00	 mov	 eax, OFFSET __ehfuncinfo$?SendItemCompound@ItemMultipleCompoundWnd@@IAEXXZ
  00039	e9 00 00 00 00	 jmp	 ___CxxFrameHandler3
text$x	ENDS
?SendItemCompound@ItemMultipleCompoundWnd@@IAEXXZ ENDP	; ItemMultipleCompoundWnd::SendItemCompound
PUBLIC	??0?$vector@UEXTRAITEMSLOT@@V?$allocator@UEXTRAITEMSLOT@@@std@@@std@@QAE@XZ ; std::vector<EXTRAITEMSLOT,std::allocator<EXTRAITEMSLOT> >::vector<EXTRAITEMSLOT,std::allocator<EXTRAITEMSLOT> >
; Function compile flags: /Ogsp
; File c:\program files (x86)\microsoft visual studio 10.0\vc\include\vector
;	COMDAT ??0?$vector@UEXTRAITEMSLOT@@V?$allocator@UEXTRAITEMSLOT@@@std@@@std@@QAE@XZ
_TEXT	SEGMENT
??0?$vector@UEXTRAITEMSLOT@@V?$allocator@UEXTRAITEMSLOT@@@std@@@std@@QAE@XZ PROC ; std::vector<EXTRAITEMSLOT,std::allocator<EXTRAITEMSLOT> >::vector<EXTRAITEMSLOT,std::allocator<EXTRAITEMSLOT> >, COMDAT
; _this$ = ecx

; 507  : 		{	// construct empty vector

  00000	8b c1		 mov	 eax, ecx
  00002	33 c9		 xor	 ecx, ecx
  00004	89 08		 mov	 DWORD PTR [eax], ecx
  00006	89 48 04	 mov	 DWORD PTR [eax+4], ecx
  00009	89 48 08	 mov	 DWORD PTR [eax+8], ecx

; 508  : 		}

  0000c	c3		 ret	 0
??0?$vector@UEXTRAITEMSLOT@@V?$allocator@UEXTRAITEMSLOT@@@std@@@std@@QAE@XZ ENDP ; std::vector<EXTRAITEMSLOT,std::allocator<EXTRAITEMSLOT> >::vector<EXTRAITEMSLOT,std::allocator<EXTRAITEMSLOT> >
_TEXT	ENDS
PUBLIC	??0?$vector@UNewShopPullDownItem@@V?$allocator@UNewShopPullDownItem@@@std@@@std@@QAE@XZ ; std::vector<NewShopPullDownItem,std::allocator<NewShopPullDownItem> >::vector<NewShopPullDownItem,std::allocator<NewShopPullDownItem> >
; Function compile flags: /Ogsp
;	COMDAT ??0?$vector@UNewShopPullDownItem@@V?$allocator@UNewShopPullDownItem@@@std@@@std@@QAE@XZ
_TEXT	SEGMENT
??0?$vector@UNewShopPullDownItem@@V?$allocator@UNewShopPullDownItem@@@std@@@std@@QAE@XZ PROC ; std::vector<NewShopPullDownItem,std::allocator<NewShopPullDownItem> >::vector<NewShopPullDownItem,std::allocator<NewShopPullDownItem> >, COMDAT
; _this$ = ecx

; 507  : 		{	// construct empty vector

  00000	8b c1		 mov	 eax, ecx
  00002	33 c9		 xor	 ecx, ecx
  00004	89 08		 mov	 DWORD PTR [eax], ecx
  00006	89 48 04	 mov	 DWORD PTR [eax+4], ecx
  00009	89 48 08	 mov	 DWORD PTR [eax+8], ecx

; 508  : 		}

  0000c	c3		 ret	 0
??0?$vector@UNewShopPullDownItem@@V?$allocator@UNewShopPullDownItem@@@std@@@std@@QAE@XZ ENDP ; std::vector<NewShopPullDownItem,std::allocator<NewShopPullDownItem> >::vector<NewShopPullDownItem,std::allocator<NewShopPullDownItem> >
_TEXT	ENDS
PUBLIC	??0?$vector@UInvenItemInfo@@V?$allocator@UInvenItemInfo@@@std@@@std@@QAE@XZ ; std::vector<InvenItemInfo,std::allocator<InvenItemInfo> >::vector<InvenItemInfo,std::allocator<InvenItemInfo> >
; Function compile flags: /Ogsp
;	COMDAT ??0?$vector@UInvenItemInfo@@V?$allocator@UInvenItemInfo@@@std@@@std@@QAE@XZ
_TEXT	SEGMENT
??0?$vector@UInvenItemInfo@@V?$allocator@UInvenItemInfo@@@std@@@std@@QAE@XZ PROC ; std::vector<InvenItemInfo,std::allocator<InvenItemInfo> >::vector<InvenItemInfo,std::allocator<InvenItemInfo> >, COMDAT
; _this$ = ecx

; 507  : 		{	// construct empty vector

  00000	8b c1		 mov	 eax, ecx
  00002	33 c9		 xor	 ecx, ecx
  00004	89 08		 mov	 DWORD PTR [eax], ecx
  00006	89 48 04	 mov	 DWORD PTR [eax+4], ecx
  00009	89 48 08	 mov	 DWORD PTR [eax+8], ecx

; 508  : 		}

  0000c	c3		 ret	 0
??0?$vector@UInvenItemInfo@@V?$allocator@UInvenItemInfo@@@std@@@std@@QAE@XZ ENDP ; std::vector<InvenItemInfo,std::allocator<InvenItemInfo> >::vector<InvenItemInfo,std::allocator<InvenItemInfo> >
_TEXT	ENDS
PUBLIC	?begin@?$vector@UInvenItemInfo@@V?$allocator@UInvenItemInfo@@@std@@@std@@QAE?AV?$_Vector_iterator@V?$_Vector_val@UInvenItemInfo@@V?$allocator@UInvenItemInfo@@@std@@@std@@@2@XZ ; std::vector<InvenItemInfo,std::allocator<InvenItemInfo> >::begin
; Function compile flags: /Ogsp
;	COMDAT ?begin@?$vector@UInvenItemInfo@@V?$allocator@UInvenItemInfo@@@std@@@std@@QAE?AV?$_Vector_iterator@V?$_Vector_val@UInvenItemInfo@@V?$allocator@UInvenItemInfo@@@std@@@std@@@2@XZ
_TEXT	SEGMENT
___$ReturnUdt$ = 8					; size = 4
?begin@?$vector@UInvenItemInfo@@V?$allocator@UInvenItemInfo@@@std@@@std@@QAE?AV?$_Vector_iterator@V?$_Vector_val@UInvenItemInfo@@V?$allocator@UInvenItemInfo@@@std@@@std@@@2@XZ PROC ; std::vector<InvenItemInfo,std::allocator<InvenItemInfo> >::begin, COMDAT
; _this$ = ecx

; 781  : 		{	// return iterator for beginning of mutable sequence

  00000	55		 push	 ebp
  00001	8b ec		 mov	 ebp, esp

; 782  : 		return (iterator(this->_Myfirst, this));

  00003	8b 09		 mov	 ecx, DWORD PTR [ecx]
  00005	8b 45 08	 mov	 eax, DWORD PTR ___$ReturnUdt$[ebp]
  00008	89 08		 mov	 DWORD PTR [eax], ecx

; 783  : 		}

  0000a	5d		 pop	 ebp
  0000b	c2 04 00	 ret	 4
?begin@?$vector@UInvenItemInfo@@V?$allocator@UInvenItemInfo@@@std@@@std@@QAE?AV?$_Vector_iterator@V?$_Vector_val@UInvenItemInfo@@V?$allocator@UInvenItemInfo@@@std@@@std@@@2@XZ ENDP ; std::vector<InvenItemInfo,std::allocator<InvenItemInfo> >::begin
_TEXT	ENDS
PUBLIC	?end@?$vector@UInvenItemInfo@@V?$allocator@UInvenItemInfo@@@std@@@std@@QAE?AV?$_Vector_iterator@V?$_Vector_val@UInvenItemInfo@@V?$allocator@UInvenItemInfo@@@std@@@std@@@2@XZ ; std::vector<InvenItemInfo,std::allocator<InvenItemInfo> >::end
; Function compile flags: /Ogsp
;	COMDAT ?end@?$vector@UInvenItemInfo@@V?$allocator@UInvenItemInfo@@@std@@@std@@QAE?AV?$_Vector_iterator@V?$_Vector_val@UInvenItemInfo@@V?$allocator@UInvenItemInfo@@@std@@@std@@@2@XZ
_TEXT	SEGMENT
___$ReturnUdt$ = 8					; size = 4
?end@?$vector@UInvenItemInfo@@V?$allocator@UInvenItemInfo@@@std@@@std@@QAE?AV?$_Vector_iterator@V?$_Vector_val@UInvenItemInfo@@V?$allocator@UInvenItemInfo@@@std@@@std@@@2@XZ PROC ; std::vector<InvenItemInfo,std::allocator<InvenItemInfo> >::end, COMDAT
; _this$ = ecx

; 791  : 		{	// return iterator for end of mutable sequence

  00000	55		 push	 ebp
  00001	8b ec		 mov	 ebp, esp

; 792  : 		return (iterator(this->_Mylast, this));

  00003	8b 49 04	 mov	 ecx, DWORD PTR [ecx+4]
  00006	8b 45 08	 mov	 eax, DWORD PTR ___$ReturnUdt$[ebp]
  00009	89 08		 mov	 DWORD PTR [eax], ecx

; 793  : 		}

  0000b	5d		 pop	 ebp
  0000c	c2 04 00	 ret	 4
?end@?$vector@UInvenItemInfo@@V?$allocator@UInvenItemInfo@@@std@@@std@@QAE?AV?$_Vector_iterator@V?$_Vector_val@UInvenItemInfo@@V?$allocator@UInvenItemInfo@@@std@@@std@@@2@XZ ENDP ; std::vector<InvenItemInfo,std::allocator<InvenItemInfo> >::end
_TEXT	ENDS
PUBLIC	?_Buy@?$vector@UEXTRAITEMSLOT@@V?$allocator@UEXTRAITEMSLOT@@@std@@@std@@IAE_NI@Z ; std::vector<EXTRAITEMSLOT,std::allocator<EXTRAITEMSLOT> >::_Buy
; Function compile flags: /Ogsp
;	COMDAT ?_Buy@?$vector@UEXTRAITEMSLOT@@V?$allocator@UEXTRAITEMSLOT@@@std@@@std@@IAE_NI@Z
_TEXT	SEGMENT
__Capacity$ = 8						; size = 4
?_Buy@?$vector@UEXTRAITEMSLOT@@V?$allocator@UEXTRAITEMSLOT@@@std@@@std@@IAE_NI@Z PROC ; std::vector<EXTRAITEMSLOT,std::allocator<EXTRAITEMSLOT> >::_Buy, COMDAT
; _this$ = ecx

; 1250 : 		{	// allocate array with _Capacity elements

  00000	55		 push	 ebp
  00001	8b ec		 mov	 ebp, esp
  00003	56		 push	 esi

; 1251 : 		this->_Myfirst = 0;

  00004	33 c0		 xor	 eax, eax
  00006	57		 push	 edi

; 1252 : 		this->_Mylast = 0;
; 1253 : 		this->_Myend = 0;
; 1254 : 
; 1255 : 		if (_Capacity == 0)

  00007	8b 7d 08	 mov	 edi, DWORD PTR __Capacity$[ebp]
  0000a	8b f1		 mov	 esi, ecx
  0000c	89 06		 mov	 DWORD PTR [esi], eax
  0000e	89 46 04	 mov	 DWORD PTR [esi+4], eax
  00011	89 46 08	 mov	 DWORD PTR [esi+8], eax
  00014	3b f8		 cmp	 edi, eax
  00016	75 04		 jne	 SHORT $LN4@Buy

; 1256 : 			return (false);

  00018	32 c0		 xor	 al, al
  0001a	eb 2b		 jmp	 SHORT $LN5@Buy
$LN4@Buy:

; 1257 : 		else if (max_size() < _Capacity)

  0001c	81 ff e3 38 8e
	03		 cmp	 edi, 59652323		; 038e38e3H
  00022	76 0b		 jbe	 SHORT $LN2@Buy

; 1258 : 			_Xlen();	// result too long

  00024	68 00 00 00 00	 push	 OFFSET ??_C@_0BD@OLBABOEK@vector?$DMT?$DO?5too?5long?$AA@
  00029	ff 15 00 00 00
	00		 call	 DWORD PTR __imp_?_Xlength_error@std@@YAXPBD@Z
$LN19@Buy:
$LN2@Buy:

; 1259 : 		else
; 1260 : 			{	// nonempty array, allocate storage
; 1261 : 			this->_Myfirst = this->_Alval.allocate(_Capacity);

  0002f	50		 push	 eax
  00030	57		 push	 edi
  00031	e8 00 00 00 00	 call	 ??$_Allocate@UEXTRAITEMSLOT@@@std@@YAPAUEXTRAITEMSLOT@@IPAU1@@Z ; std::_Allocate<EXTRAITEMSLOT>

; 1262 : 			this->_Mylast = this->_Myfirst;
; 1263 : 			this->_Myend = this->_Myfirst + _Capacity;

  00036	6b ff 48	 imul	 edi, 72			; 00000048H
  00039	03 f8		 add	 edi, eax
  0003b	59		 pop	 ecx
  0003c	89 06		 mov	 DWORD PTR [esi], eax
  0003e	89 46 04	 mov	 DWORD PTR [esi+4], eax
  00041	59		 pop	 ecx
  00042	89 7e 08	 mov	 DWORD PTR [esi+8], edi

; 1264 : 			}
; 1265 : 		return (true);

  00045	b0 01		 mov	 al, 1
$LN5@Buy:
  00047	5f		 pop	 edi
  00048	5e		 pop	 esi

; 1266 : 		}

  00049	5d		 pop	 ebp
  0004a	c2 04 00	 ret	 4
$LN18@Buy:
?_Buy@?$vector@UEXTRAITEMSLOT@@V?$allocator@UEXTRAITEMSLOT@@@std@@@std@@IAE_NI@Z ENDP ; std::vector<EXTRAITEMSLOT,std::allocator<EXTRAITEMSLOT> >::_Buy
_TEXT	ENDS
PUBLIC	?begin@?$vector@UNewShopPullDownItem@@V?$allocator@UNewShopPullDownItem@@@std@@@std@@QAE?AV?$_Vector_iterator@V?$_Vector_val@UNewShopPullDownItem@@V?$allocator@UNewShopPullDownItem@@@std@@@std@@@2@XZ ; std::vector<NewShopPullDownItem,std::allocator<NewShopPullDownItem> >::begin
; Function compile flags: /Ogsp
;	COMDAT ?begin@?$vector@UNewShopPullDownItem@@V?$allocator@UNewShopPullDownItem@@@std@@@std@@QAE?AV?$_Vector_iterator@V?$_Vector_val@UNewShopPullDownItem@@V?$allocator@UNewShopPullDownItem@@@std@@@std@@@2@XZ
_TEXT	SEGMENT
___$ReturnUdt$ = 8					; size = 4
?begin@?$vector@UNewShopPullDownItem@@V?$allocator@UNewShopPullDownItem@@@std@@@std@@QAE?AV?$_Vector_iterator@V?$_Vector_val@UNewShopPullDownItem@@V?$allocator@UNewShopPullDownItem@@@std@@@std@@@2@XZ PROC ; std::vector<NewShopPullDownItem,std::allocator<NewShopPullDownItem> >::begin, COMDAT
; _this$ = ecx

; 781  : 		{	// return iterator for beginning of mutable sequence

  00000	55		 push	 ebp
  00001	8b ec		 mov	 ebp, esp

; 782  : 		return (iterator(this->_Myfirst, this));

  00003	8b 09		 mov	 ecx, DWORD PTR [ecx]
  00005	8b 45 08	 mov	 eax, DWORD PTR ___$ReturnUdt$[ebp]
  00008	89 08		 mov	 DWORD PTR [eax], ecx

; 783  : 		}

  0000a	5d		 pop	 ebp
  0000b	c2 04 00	 ret	 4
?begin@?$vector@UNewShopPullDownItem@@V?$allocator@UNewShopPullDownItem@@@std@@@std@@QAE?AV?$_Vector_iterator@V?$_Vector_val@UNewShopPullDownItem@@V?$allocator@UNewShopPullDownItem@@@std@@@std@@@2@XZ ENDP ; std::vector<NewShopPullDownItem,std::allocator<NewShopPullDownItem> >::begin
_TEXT	ENDS
PUBLIC	?end@?$vector@UNewShopPullDownItem@@V?$allocator@UNewShopPullDownItem@@@std@@@std@@QAE?AV?$_Vector_iterator@V?$_Vector_val@UNewShopPullDownItem@@V?$allocator@UNewShopPullDownItem@@@std@@@std@@@2@XZ ; std::vector<NewShopPullDownItem,std::allocator<NewShopPullDownItem> >::end
; Function compile flags: /Ogsp
;	COMDAT ?end@?$vector@UNewShopPullDownItem@@V?$allocator@UNewShopPullDownItem@@@std@@@std@@QAE?AV?$_Vector_iterator@V?$_Vector_val@UNewShopPullDownItem@@V?$allocator@UNewShopPullDownItem@@@std@@@std@@@2@XZ
_TEXT	SEGMENT
___$ReturnUdt$ = 8					; size = 4
?end@?$vector@UNewShopPullDownItem@@V?$allocator@UNewShopPullDownItem@@@std@@@std@@QAE?AV?$_Vector_iterator@V?$_Vector_val@UNewShopPullDownItem@@V?$allocator@UNewShopPullDownItem@@@std@@@std@@@2@XZ PROC ; std::vector<NewShopPullDownItem,std::allocator<NewShopPullDownItem> >::end, COMDAT
; _this$ = ecx

; 791  : 		{	// return iterator for end of mutable sequence

  00000	55		 push	 ebp
  00001	8b ec		 mov	 ebp, esp

; 792  : 		return (iterator(this->_Mylast, this));

  00003	8b 49 04	 mov	 ecx, DWORD PTR [ecx+4]
  00006	8b 45 08	 mov	 eax, DWORD PTR ___$ReturnUdt$[ebp]
  00009	89 08		 mov	 DWORD PTR [eax], ecx

; 793  : 		}

  0000b	5d		 pop	 ebp
  0000c	c2 04 00	 ret	 4
?end@?$vector@UNewShopPullDownItem@@V?$allocator@UNewShopPullDownItem@@@std@@@std@@QAE?AV?$_Vector_iterator@V?$_Vector_val@UNewShopPullDownItem@@V?$allocator@UNewShopPullDownItem@@@std@@@std@@@2@XZ ENDP ; std::vector<NewShopPullDownItem,std::allocator<NewShopPullDownItem> >::end
_TEXT	ENDS
PUBLIC	?_Make_iter@?$vector@UNewShopPullDownItem@@V?$allocator@UNewShopPullDownItem@@@std@@@std@@QBE?AV?$_Vector_iterator@V?$_Vector_val@UNewShopPullDownItem@@V?$allocator@UNewShopPullDownItem@@@std@@@std@@@2@V?$_Vector_const_iterator@V?$_Vector_val@UNewShopPullDownItem@@V?$allocator@UNewShopPullDownItem@@@std@@@std@@@2@@Z ; std::vector<NewShopPullDownItem,std::allocator<NewShopPullDownItem> >::_Make_iter
; Function compile flags: /Ogsp
;	COMDAT ?_Make_iter@?$vector@UNewShopPullDownItem@@V?$allocator@UNewShopPullDownItem@@@std@@@std@@QBE?AV?$_Vector_iterator@V?$_Vector_val@UNewShopPullDownItem@@V?$allocator@UNewShopPullDownItem@@@std@@@std@@@2@V?$_Vector_const_iterator@V?$_Vector_val@UNewShopPullDownItem@@V?$allocator@UNewShopPullDownItem@@@std@@@std@@@2@@Z
_TEXT	SEGMENT
___$ReturnUdt$ = 8					; size = 4
__Where$ = 12						; size = 4
?_Make_iter@?$vector@UNewShopPullDownItem@@V?$allocator@UNewShopPullDownItem@@@std@@@std@@QBE?AV?$_Vector_iterator@V?$_Vector_val@UNewShopPullDownItem@@V?$allocator@UNewShopPullDownItem@@@std@@@std@@@2@V?$_Vector_const_iterator@V?$_Vector_val@UNewShopPullDownItem@@V?$allocator@UNewShopPullDownItem@@@std@@@std@@@2@@Z PROC ; std::vector<NewShopPullDownItem,std::allocator<NewShopPullDownItem> >::_Make_iter, COMDAT
; _this$ = ecx

; 801  : 		{	// make iterator from const_iterator

  00000	55		 push	 ebp
  00001	8b ec		 mov	 ebp, esp

; 802  : 		return (iterator(_Where._Ptr, this));

  00003	8b 45 08	 mov	 eax, DWORD PTR ___$ReturnUdt$[ebp]
  00006	8b 4d 0c	 mov	 ecx, DWORD PTR __Where$[ebp]
  00009	89 08		 mov	 DWORD PTR [eax], ecx

; 803  : 		}

  0000b	5d		 pop	 ebp
  0000c	c2 08 00	 ret	 8
?_Make_iter@?$vector@UNewShopPullDownItem@@V?$allocator@UNewShopPullDownItem@@@std@@@std@@QBE?AV?$_Vector_iterator@V?$_Vector_val@UNewShopPullDownItem@@V?$allocator@UNewShopPullDownItem@@@std@@@std@@@2@V?$_Vector_const_iterator@V?$_Vector_val@UNewShopPullDownItem@@V?$allocator@UNewShopPullDownItem@@@std@@@std@@@2@@Z ENDP ; std::vector<NewShopPullDownItem,std::allocator<NewShopPullDownItem> >::_Make_iter
_TEXT	ENDS
PUBLIC	??9?$_Vector_const_iterator@V?$_Vector_val@UInvenItemInfo@@V?$allocator@UInvenItemInfo@@@std@@@std@@@std@@QBE_NABV01@@Z ; std::_Vector_const_iterator<std::_Vector_val<InvenItemInfo,std::allocator<InvenItemInfo> > >::operator!=
; Function compile flags: /Ogsp
;	COMDAT ??9?$_Vector_const_iterator@V?$_Vector_val@UInvenItemInfo@@V?$allocator@UInvenItemInfo@@@std@@@std@@@std@@QBE_NABV01@@Z
_TEXT	SEGMENT
__Right$ = 8						; size = 4
??9?$_Vector_const_iterator@V?$_Vector_val@UInvenItemInfo@@V?$allocator@UInvenItemInfo@@@std@@@std@@@std@@QBE_NABV01@@Z PROC ; std::_Vector_const_iterator<std::_Vector_val<InvenItemInfo,std::allocator<InvenItemInfo> > >::operator!=, COMDAT
; _this$ = ecx

; 207  : 		{	// test for iterator inequality

  00000	55		 push	 ebp
  00001	8b ec		 mov	 ebp, esp

; 208  : 		return (!(*this == _Right));

  00003	8b 01		 mov	 eax, DWORD PTR [ecx]
  00005	8b 55 08	 mov	 edx, DWORD PTR __Right$[ebp]
  00008	33 c9		 xor	 ecx, ecx
  0000a	3b 02		 cmp	 eax, DWORD PTR [edx]
  0000c	0f 95 c0	 setne	 al

; 209  : 		}

  0000f	5d		 pop	 ebp
  00010	c2 04 00	 ret	 4
??9?$_Vector_const_iterator@V?$_Vector_val@UInvenItemInfo@@V?$allocator@UInvenItemInfo@@@std@@@std@@@std@@QBE_NABV01@@Z ENDP ; std::_Vector_const_iterator<std::_Vector_val<InvenItemInfo,std::allocator<InvenItemInfo> > >::operator!=
_TEXT	ENDS
PUBLIC	??9?$_Vector_const_iterator@V?$_Vector_val@UEXTRAITEMSLOT@@V?$allocator@UEXTRAITEMSLOT@@@std@@@std@@@std@@QBE_NABV01@@Z ; std::_Vector_const_iterator<std::_Vector_val<EXTRAITEMSLOT,std::allocator<EXTRAITEMSLOT> > >::operator!=
; Function compile flags: /Ogsp
;	COMDAT ??9?$_Vector_const_iterator@V?$_Vector_val@UEXTRAITEMSLOT@@V?$allocator@UEXTRAITEMSLOT@@@std@@@std@@@std@@QBE_NABV01@@Z
_TEXT	SEGMENT
__Right$ = 8						; size = 4
??9?$_Vector_const_iterator@V?$_Vector_val@UEXTRAITEMSLOT@@V?$allocator@UEXTRAITEMSLOT@@@std@@@std@@@std@@QBE_NABV01@@Z PROC ; std::_Vector_const_iterator<std::_Vector_val<EXTRAITEMSLOT,std::allocator<EXTRAITEMSLOT> > >::operator!=, COMDAT
; _this$ = ecx

; 207  : 		{	// test for iterator inequality

  00000	55		 push	 ebp
  00001	8b ec		 mov	 ebp, esp

; 208  : 		return (!(*this == _Right));

  00003	8b 01		 mov	 eax, DWORD PTR [ecx]
  00005	8b 55 08	 mov	 edx, DWORD PTR __Right$[ebp]
  00008	33 c9		 xor	 ecx, ecx
  0000a	3b 02		 cmp	 eax, DWORD PTR [edx]
  0000c	0f 95 c0	 setne	 al

; 209  : 		}

  0000f	5d		 pop	 ebp
  00010	c2 04 00	 ret	 4
??9?$_Vector_const_iterator@V?$_Vector_val@UEXTRAITEMSLOT@@V?$allocator@UEXTRAITEMSLOT@@@std@@@std@@@std@@QBE_NABV01@@Z ENDP ; std::_Vector_const_iterator<std::_Vector_val<EXTRAITEMSLOT,std::allocator<EXTRAITEMSLOT> > >::operator!=
_TEXT	ENDS
PUBLIC	??9?$_Vector_const_iterator@V?$_Vector_val@UNewShopPullDownItem@@V?$allocator@UNewShopPullDownItem@@@std@@@std@@@std@@QBE_NABV01@@Z ; std::_Vector_const_iterator<std::_Vector_val<NewShopPullDownItem,std::allocator<NewShopPullDownItem> > >::operator!=
; Function compile flags: /Ogsp
;	COMDAT ??9?$_Vector_const_iterator@V?$_Vector_val@UNewShopPullDownItem@@V?$allocator@UNewShopPullDownItem@@@std@@@std@@@std@@QBE_NABV01@@Z
_TEXT	SEGMENT
__Right$ = 8						; size = 4
??9?$_Vector_const_iterator@V?$_Vector_val@UNewShopPullDownItem@@V?$allocator@UNewShopPullDownItem@@@std@@@std@@@std@@QBE_NABV01@@Z PROC ; std::_Vector_const_iterator<std::_Vector_val<NewShopPullDownItem,std::allocator<NewShopPullDownItem> > >::operator!=, COMDAT
; _this$ = ecx

; 207  : 		{	// test for iterator inequality

  00000	55		 push	 ebp
  00001	8b ec		 mov	 ebp, esp

; 208  : 		return (!(*this == _Right));

  00003	8b 01		 mov	 eax, DWORD PTR [ecx]
  00005	8b 55 08	 mov	 edx, DWORD PTR __Right$[ebp]
  00008	33 c9		 xor	 ecx, ecx
  0000a	3b 02		 cmp	 eax, DWORD PTR [edx]
  0000c	0f 95 c0	 setne	 al

; 209  : 		}

  0000f	5d		 pop	 ebp
  00010	c2 04 00	 ret	 4
??9?$_Vector_const_iterator@V?$_Vector_val@UNewShopPullDownItem@@V?$allocator@UNewShopPullDownItem@@@std@@@std@@@std@@QBE_NABV01@@Z ENDP ; std::_Vector_const_iterator<std::_Vector_val<NewShopPullDownItem,std::allocator<NewShopPullDownItem> > >::operator!=
_TEXT	ENDS
PUBLIC	??$_Cons_val@V?$allocator@UEXTRAITEMSLOT@@@std@@UEXTRAITEMSLOT@@AAU3@@std@@YAXAAV?$allocator@UEXTRAITEMSLOT@@@0@PAUEXTRAITEMSLOT@@AAU2@@Z ; std::_Cons_val<std::allocator<EXTRAITEMSLOT>,EXTRAITEMSLOT,EXTRAITEMSLOT &>
;	COMDAT xdata$x
; File c:\program files (x86)\microsoft visual studio 10.0\vc\include\utility
xdata$x	SEGMENT
__unwindtable$??$_Cons_val@V?$allocator@UEXTRAITEMSLOT@@@std@@UEXTRAITEMSLOT@@AAU3@@std@@YAXAAV?$allocator@UEXTRAITEMSLOT@@@0@PAUEXTRAITEMSLOT@@AAU2@@Z DD 0ffffffffH
	DD	FLAT:__unwindfunclet$??$_Cons_val@V?$allocator@UEXTRAITEMSLOT@@@std@@UEXTRAITEMSLOT@@AAU3@@std@@YAXAAV?$allocator@UEXTRAITEMSLOT@@@0@PAUEXTRAITEMSLOT@@AAU2@@Z$0
__ehfuncinfo$??$_Cons_val@V?$allocator@UEXTRAITEMSLOT@@@std@@UEXTRAITEMSLOT@@AAU3@@std@@YAXAAV?$allocator@UEXTRAITEMSLOT@@@0@PAUEXTRAITEMSLOT@@AAU2@@Z DD 019930522H
	DD	01H
	DD	FLAT:__unwindtable$??$_Cons_val@V?$allocator@UEXTRAITEMSLOT@@@std@@UEXTRAITEMSLOT@@AAU3@@std@@YAXAAV?$allocator@UEXTRAITEMSLOT@@@0@PAUEXTRAITEMSLOT@@AAU2@@Z
	DD	2 DUP(00H)
	DD	2 DUP(00H)
	DD	00H
	DD	01H
; Function compile flags: /Ogsp
; File c:\program files (x86)\microsoft visual studio 10.0\vc\include\xmemory
xdata$x	ENDS
;	COMDAT ??$_Cons_val@V?$allocator@UEXTRAITEMSLOT@@@std@@UEXTRAITEMSLOT@@AAU3@@std@@YAXAAV?$allocator@UEXTRAITEMSLOT@@@0@PAUEXTRAITEMSLOT@@AAU2@@Z
_TEXT	SEGMENT
$T516265 = -16						; size = 4
__$EHRec$ = -12						; size = 12
__Alval$ = 8						; size = 4
__Pdest$ = 12						; size = 4
__Src$ = 16						; size = 4
??$_Cons_val@V?$allocator@UEXTRAITEMSLOT@@@std@@UEXTRAITEMSLOT@@AAU3@@std@@YAXAAV?$allocator@UEXTRAITEMSLOT@@@0@PAUEXTRAITEMSLOT@@AAU2@@Z PROC ; std::_Cons_val<std::allocator<EXTRAITEMSLOT>,EXTRAITEMSLOT,EXTRAITEMSLOT &>, COMDAT

; 279  : 	{	// construct using allocator

  00000	6a 04		 push	 4
  00002	b8 00 00 00 00	 mov	 eax, __ehhandler$??$_Cons_val@V?$allocator@UEXTRAITEMSLOT@@@std@@UEXTRAITEMSLOT@@AAU3@@std@@YAXAAV?$allocator@UEXTRAITEMSLOT@@@0@PAUEXTRAITEMSLOT@@AAU2@@Z
  00007	e8 00 00 00 00	 call	 __EH_prolog3

; 280  : 	_Alval.construct(_Pdest, _STD forward<_Ty2>(_Src));

  0000c	8b 4d 0c	 mov	 ecx, DWORD PTR __Pdest$[ebp]
  0000f	89 4d f0	 mov	 DWORD PTR $T516265[ebp], ecx
  00012	83 65 fc 00	 and	 DWORD PTR __$EHRec$[ebp+8], 0
  00016	85 c9		 test	 ecx, ecx
  00018	74 08		 je	 SHORT $LN7@Cons_val@2
  0001a	ff 75 10	 push	 DWORD PTR __Src$[ebp]
  0001d	e8 00 00 00 00	 call	 ??0EXTRAITEMSLOT@@QAE@ABU0@@Z
$LN7@Cons_val@2:

; 281  : 	}

  00022	e8 00 00 00 00	 call	 __EH_epilog3
  00027	c3		 ret	 0
_TEXT	ENDS
;	COMDAT text$x
text$x	SEGMENT
__unwindfunclet$??$_Cons_val@V?$allocator@UEXTRAITEMSLOT@@@std@@UEXTRAITEMSLOT@@AAU3@@std@@YAXAAV?$allocator@UEXTRAITEMSLOT@@@0@PAUEXTRAITEMSLOT@@AAU2@@Z$0:
  00000	ff 75 0c	 push	 DWORD PTR __Pdest$[ebp]
  00003	ff 75 f0	 push	 DWORD PTR $T516265[ebp]
  00006	e8 00 00 00 00	 call	 ??3@YAXPAX0@Z		; operator delete
  0000b	59		 pop	 ecx
  0000c	59		 pop	 ecx
  0000d	c3		 ret	 0
__ehhandler$??$_Cons_val@V?$allocator@UEXTRAITEMSLOT@@@std@@UEXTRAITEMSLOT@@AAU3@@std@@YAXAAV?$allocator@UEXTRAITEMSLOT@@@0@PAUEXTRAITEMSLOT@@AAU2@@Z:
  0000e	8b 54 24 08	 mov	 edx, DWORD PTR [esp+8]
  00012	8d 42 0c	 lea	 eax, DWORD PTR [edx+12]
  00015	8b 4a ec	 mov	 ecx, DWORD PTR [edx-20]
  00018	33 c8		 xor	 ecx, eax
  0001a	e8 00 00 00 00	 call	 @__security_check_cookie@4
  0001f	b8 00 00 00 00	 mov	 eax, OFFSET __ehfuncinfo$??$_Cons_val@V?$allocator@UEXTRAITEMSLOT@@@std@@UEXTRAITEMSLOT@@AAU3@@std@@YAXAAV?$allocator@UEXTRAITEMSLOT@@@0@PAUEXTRAITEMSLOT@@AAU2@@Z
  00024	e9 00 00 00 00	 jmp	 ___CxxFrameHandler3
text$x	ENDS
??$_Cons_val@V?$allocator@UEXTRAITEMSLOT@@@std@@UEXTRAITEMSLOT@@AAU3@@std@@YAXAAV?$allocator@UEXTRAITEMSLOT@@@0@PAUEXTRAITEMSLOT@@AAU2@@Z ENDP ; std::_Cons_val<std::allocator<EXTRAITEMSLOT>,EXTRAITEMSLOT,EXTRAITEMSLOT &>
PUBLIC	??$_Cons_val@V?$allocator@UNewShopPullDownItem@@@std@@UNewShopPullDownItem@@AAU3@@std@@YAXAAV?$allocator@UNewShopPullDownItem@@@0@PAUNewShopPullDownItem@@AAU2@@Z ; std::_Cons_val<std::allocator<NewShopPullDownItem>,NewShopPullDownItem,NewShopPullDownItem &>
;	COMDAT xdata$x
; File c:\program files (x86)\microsoft visual studio 10.0\vc\include\utility
xdata$x	SEGMENT
__unwindtable$??$_Cons_val@V?$allocator@UNewShopPullDownItem@@@std@@UNewShopPullDownItem@@AAU3@@std@@YAXAAV?$allocator@UNewShopPullDownItem@@@0@PAUNewShopPullDownItem@@AAU2@@Z DD 0ffffffffH
	DD	FLAT:__unwindfunclet$??$_Cons_val@V?$allocator@UNewShopPullDownItem@@@std@@UNewShopPullDownItem@@AAU3@@std@@YAXAAV?$allocator@UNewShopPullDownItem@@@0@PAUNewShopPullDownItem@@AAU2@@Z$0
__ehfuncinfo$??$_Cons_val@V?$allocator@UNewShopPullDownItem@@@std@@UNewShopPullDownItem@@AAU3@@std@@YAXAAV?$allocator@UNewShopPullDownItem@@@0@PAUNewShopPullDownItem@@AAU2@@Z DD 019930522H
	DD	01H
	DD	FLAT:__unwindtable$??$_Cons_val@V?$allocator@UNewShopPullDownItem@@@std@@UNewShopPullDownItem@@AAU3@@std@@YAXAAV?$allocator@UNewShopPullDownItem@@@0@PAUNewShopPullDownItem@@AAU2@@Z
	DD	2 DUP(00H)
	DD	2 DUP(00H)
	DD	00H
	DD	01H
; Function compile flags: /Ogsp
; File c:\program files (x86)\microsoft visual studio 10.0\vc\include\xmemory
xdata$x	ENDS
;	COMDAT ??$_Cons_val@V?$allocator@UNewShopPullDownItem@@@std@@UNewShopPullDownItem@@AAU3@@std@@YAXAAV?$allocator@UNewShopPullDownItem@@@0@PAUNewShopPullDownItem@@AAU2@@Z
_TEXT	SEGMENT
$T516298 = -16						; size = 4
__$EHRec$ = -12						; size = 12
__Alval$ = 8						; size = 4
__Pdest$ = 12						; size = 4
__Src$ = 16						; size = 4
??$_Cons_val@V?$allocator@UNewShopPullDownItem@@@std@@UNewShopPullDownItem@@AAU3@@std@@YAXAAV?$allocator@UNewShopPullDownItem@@@0@PAUNewShopPullDownItem@@AAU2@@Z PROC ; std::_Cons_val<std::allocator<NewShopPullDownItem>,NewShopPullDownItem,NewShopPullDownItem &>, COMDAT

; 279  : 	{	// construct using allocator

  00000	6a 04		 push	 4
  00002	b8 00 00 00 00	 mov	 eax, __ehhandler$??$_Cons_val@V?$allocator@UNewShopPullDownItem@@@std@@UNewShopPullDownItem@@AAU3@@std@@YAXAAV?$allocator@UNewShopPullDownItem@@@0@PAUNewShopPullDownItem@@AAU2@@Z
  00007	e8 00 00 00 00	 call	 __EH_prolog3

; 280  : 	_Alval.construct(_Pdest, _STD forward<_Ty2>(_Src));

  0000c	8b 4d 0c	 mov	 ecx, DWORD PTR __Pdest$[ebp]
  0000f	89 4d f0	 mov	 DWORD PTR $T516298[ebp], ecx
  00012	83 65 fc 00	 and	 DWORD PTR __$EHRec$[ebp+8], 0
  00016	85 c9		 test	 ecx, ecx
  00018	74 08		 je	 SHORT $LN7@Cons_val@3
  0001a	ff 75 10	 push	 DWORD PTR __Src$[ebp]
  0001d	e8 00 00 00 00	 call	 ??0NewShopPullDownItem@@QAE@ABU0@@Z
$LN7@Cons_val@3:

; 281  : 	}

  00022	e8 00 00 00 00	 call	 __EH_epilog3
  00027	c3		 ret	 0
_TEXT	ENDS
;	COMDAT text$x
text$x	SEGMENT
__unwindfunclet$??$_Cons_val@V?$allocator@UNewShopPullDownItem@@@std@@UNewShopPullDownItem@@AAU3@@std@@YAXAAV?$allocator@UNewShopPullDownItem@@@0@PAUNewShopPullDownItem@@AAU2@@Z$0:
  00000	ff 75 0c	 push	 DWORD PTR __Pdest$[ebp]
  00003	ff 75 f0	 push	 DWORD PTR $T516298[ebp]
  00006	e8 00 00 00 00	 call	 ??3@YAXPAX0@Z		; operator delete
  0000b	59		 pop	 ecx
  0000c	59		 pop	 ecx
  0000d	c3		 ret	 0
__ehhandler$??$_Cons_val@V?$allocator@UNewShopPullDownItem@@@std@@UNewShopPullDownItem@@AAU3@@std@@YAXAAV?$allocator@UNewShopPullDownItem@@@0@PAUNewShopPullDownItem@@AAU2@@Z:
  0000e	8b 54 24 08	 mov	 edx, DWORD PTR [esp+8]
  00012	8d 42 0c	 lea	 eax, DWORD PTR [edx+12]
  00015	8b 4a ec	 mov	 ecx, DWORD PTR [edx-20]
  00018	33 c8		 xor	 ecx, eax
  0001a	e8 00 00 00 00	 call	 @__security_check_cookie@4
  0001f	b8 00 00 00 00	 mov	 eax, OFFSET __ehfuncinfo$??$_Cons_val@V?$allocator@UNewShopPullDownItem@@@std@@UNewShopPullDownItem@@AAU3@@std@@YAXAAV?$allocator@UNewShopPullDownItem@@@0@PAUNewShopPullDownItem@@AAU2@@Z
  00024	e9 00 00 00 00	 jmp	 ___CxxFrameHandler3
text$x	ENDS
??$_Cons_val@V?$allocator@UNewShopPullDownItem@@@std@@UNewShopPullDownItem@@AAU3@@std@@YAXAAV?$allocator@UNewShopPullDownItem@@@0@PAUNewShopPullDownItem@@AAU2@@Z ENDP ; std::_Cons_val<std::allocator<NewShopPullDownItem>,NewShopPullDownItem,NewShopPullDownItem &>
PUBLIC	??$_Cons_val@V?$allocator@UInvenItemInfo@@@std@@UInvenItemInfo@@ABU3@@std@@YAXAAV?$allocator@UInvenItemInfo@@@0@PAUInvenItemInfo@@ABU2@@Z ; std::_Cons_val<std::allocator<InvenItemInfo>,InvenItemInfo,InvenItemInfo const &>
; Function compile flags: /Ogsp
;	COMDAT ??$_Cons_val@V?$allocator@UInvenItemInfo@@@std@@UInvenItemInfo@@ABU3@@std@@YAXAAV?$allocator@UInvenItemInfo@@@0@PAUInvenItemInfo@@ABU2@@Z
_TEXT	SEGMENT
__Alval$ = 8						; size = 4
__Pdest$ = 12						; size = 4
__Src$ = 16						; size = 4
??$_Cons_val@V?$allocator@UInvenItemInfo@@@std@@UInvenItemInfo@@ABU3@@std@@YAXAAV?$allocator@UInvenItemInfo@@@0@PAUInvenItemInfo@@ABU2@@Z PROC ; std::_Cons_val<std::allocator<InvenItemInfo>,InvenItemInfo,InvenItemInfo const &>, COMDAT

; 279  : 	{	// construct using allocator

  00000	55		 push	 ebp
  00001	8b ec		 mov	 ebp, esp
  00003	57		 push	 edi

; 280  : 	_Alval.construct(_Pdest, _STD forward<_Ty2>(_Src));

  00004	8b 7d 0c	 mov	 edi, DWORD PTR __Pdest$[ebp]
  00007	85 ff		 test	 edi, edi
  00009	74 08		 je	 SHORT $LN9@Cons_val@4
  0000b	56		 push	 esi
  0000c	8b 75 10	 mov	 esi, DWORD PTR __Src$[ebp]
  0000f	a5		 movsd
  00010	a5		 movsd
  00011	a5		 movsd
  00012	5e		 pop	 esi
$LN9@Cons_val@4:
  00013	5f		 pop	 edi

; 281  : 	}

  00014	5d		 pop	 ebp
  00015	c3		 ret	 0
??$_Cons_val@V?$allocator@UInvenItemInfo@@@std@@UInvenItemInfo@@ABU3@@std@@YAXAAV?$allocator@UInvenItemInfo@@@0@PAUInvenItemInfo@@ABU2@@Z ENDP ; std::_Cons_val<std::allocator<InvenItemInfo>,InvenItemInfo,InvenItemInfo const &>
_TEXT	ENDS
PUBLIC	??$_Move@PAUEXTRAITEMSLOT@@PAU1@@std@@YAPAUEXTRAITEMSLOT@@PAU1@00@Z ; std::_Move<EXTRAITEMSLOT *,EXTRAITEMSLOT *>
; Function compile flags: /Ogsp
; File c:\program files (x86)\microsoft visual studio 10.0\vc\include\xutility
;	COMDAT ??$_Move@PAUEXTRAITEMSLOT@@PAU1@@std@@YAPAUEXTRAITEMSLOT@@PAU1@00@Z
_TEXT	SEGMENT
__Cat$516359 = -4					; size = 1
__First$ = 8						; size = 4
__Last$ = 12						; size = 4
__Dest$ = 16						; size = 4
??$_Move@PAUEXTRAITEMSLOT@@PAU1@@std@@YAPAUEXTRAITEMSLOT@@PAU1@00@Z PROC ; std::_Move<EXTRAITEMSLOT *,EXTRAITEMSLOT *>, COMDAT

; 2533 : 	{	// move [_First, _Last) to [_Dest, ...), unchecked

  00000	55		 push	 ebp
  00001	8b ec		 mov	 ebp, esp
  00003	51		 push	 ecx

; 2534 : 	return (_Move(_First, _Last,
; 2535 : 		_Dest, _Ptr_cat(_First, _Dest)));

  00004	ff 75 fc	 push	 DWORD PTR __Cat$516359[ebp]
  00007	ff 75 10	 push	 DWORD PTR __Dest$[ebp]
  0000a	ff 75 0c	 push	 DWORD PTR __Last$[ebp]
  0000d	ff 75 08	 push	 DWORD PTR __First$[ebp]
  00010	e8 00 00 00 00	 call	 ??$_Move@PAUEXTRAITEMSLOT@@PAU1@@std@@YAPAUEXTRAITEMSLOT@@PAU1@00U_Nonscalar_ptr_iterator_tag@0@@Z ; std::_Move<EXTRAITEMSLOT *,EXTRAITEMSLOT *>
  00015	83 c4 10	 add	 esp, 16			; 00000010H

; 2536 : 	}

  00018	c9		 leave
  00019	c3		 ret	 0
??$_Move@PAUEXTRAITEMSLOT@@PAU1@@std@@YAPAUEXTRAITEMSLOT@@PAU1@00@Z ENDP ; std::_Move<EXTRAITEMSLOT *,EXTRAITEMSLOT *>
_TEXT	ENDS
PUBLIC	??$_Move@PAUNewShopPullDownItem@@PAU1@@std@@YAPAUNewShopPullDownItem@@PAU1@00@Z ; std::_Move<NewShopPullDownItem *,NewShopPullDownItem *>
; Function compile flags: /Ogsp
;	COMDAT ??$_Move@PAUNewShopPullDownItem@@PAU1@@std@@YAPAUNewShopPullDownItem@@PAU1@00@Z
_TEXT	SEGMENT
__Cat$516366 = -4					; size = 1
__First$ = 8						; size = 4
__Last$ = 12						; size = 4
__Dest$ = 16						; size = 4
??$_Move@PAUNewShopPullDownItem@@PAU1@@std@@YAPAUNewShopPullDownItem@@PAU1@00@Z PROC ; std::_Move<NewShopPullDownItem *,NewShopPullDownItem *>, COMDAT

; 2533 : 	{	// move [_First, _Last) to [_Dest, ...), unchecked

  00000	55		 push	 ebp
  00001	8b ec		 mov	 ebp, esp
  00003	51		 push	 ecx

; 2534 : 	return (_Move(_First, _Last,
; 2535 : 		_Dest, _Ptr_cat(_First, _Dest)));

  00004	ff 75 fc	 push	 DWORD PTR __Cat$516366[ebp]
  00007	ff 75 10	 push	 DWORD PTR __Dest$[ebp]
  0000a	ff 75 0c	 push	 DWORD PTR __Last$[ebp]
  0000d	ff 75 08	 push	 DWORD PTR __First$[ebp]
  00010	e8 00 00 00 00	 call	 ??$_Move@PAUNewShopPullDownItem@@PAU1@@std@@YAPAUNewShopPullDownItem@@PAU1@00U_Nonscalar_ptr_iterator_tag@0@@Z ; std::_Move<NewShopPullDownItem *,NewShopPullDownItem *>
  00015	83 c4 10	 add	 esp, 16			; 00000010H

; 2536 : 	}

  00018	c9		 leave
  00019	c3		 ret	 0
??$_Move@PAUNewShopPullDownItem@@PAU1@@std@@YAPAUNewShopPullDownItem@@PAU1@00@Z ENDP ; std::_Move<NewShopPullDownItem *,NewShopPullDownItem *>
_TEXT	ENDS
PUBLIC	??$_Move@PAUInvenItemInfo@@PAU1@@std@@YAPAUInvenItemInfo@@PAU1@00@Z ; std::_Move<InvenItemInfo *,InvenItemInfo *>
; Function compile flags: /Ogsp
;	COMDAT ??$_Move@PAUInvenItemInfo@@PAU1@@std@@YAPAUInvenItemInfo@@PAU1@00@Z
_TEXT	SEGMENT
__Cat$516373 = -4					; size = 1
__First$ = 8						; size = 4
__Last$ = 12						; size = 4
__Dest$ = 16						; size = 4
??$_Move@PAUInvenItemInfo@@PAU1@@std@@YAPAUInvenItemInfo@@PAU1@00@Z PROC ; std::_Move<InvenItemInfo *,InvenItemInfo *>, COMDAT

; 2533 : 	{	// move [_First, _Last) to [_Dest, ...), unchecked

  00000	55		 push	 ebp
  00001	8b ec		 mov	 ebp, esp
  00003	51		 push	 ecx

; 2534 : 	return (_Move(_First, _Last,
; 2535 : 		_Dest, _Ptr_cat(_First, _Dest)));

  00004	ff 75 fc	 push	 DWORD PTR __Cat$516373[ebp]
  00007	ff 75 10	 push	 DWORD PTR __Dest$[ebp]
  0000a	ff 75 0c	 push	 DWORD PTR __Last$[ebp]
  0000d	ff 75 08	 push	 DWORD PTR __First$[ebp]
  00010	e8 00 00 00 00	 call	 ??$_Move@PAUInvenItemInfo@@PAU1@@std@@YAPAUInvenItemInfo@@PAU1@00U_Nonscalar_ptr_iterator_tag@0@@Z ; std::_Move<InvenItemInfo *,InvenItemInfo *>
  00015	83 c4 10	 add	 esp, 16			; 00000010H

; 2536 : 	}

  00018	c9		 leave
  00019	c3		 ret	 0
??$_Move@PAUInvenItemInfo@@PAU1@@std@@YAPAUInvenItemInfo@@PAU1@00@Z ENDP ; std::_Move<InvenItemInfo *,InvenItemInfo *>
_TEXT	ENDS
PUBLIC	?construct@?$allocator@UEXTRAITEMSLOT@@@std@@QAEXPAUEXTRAITEMSLOT@@ABU3@@Z ; std::allocator<EXTRAITEMSLOT>::construct
; Function compile flags: /Ogsp
; File c:\program files (x86)\microsoft visual studio 10.0\vc\include\xmemory
;	COMDAT ?construct@?$allocator@UEXTRAITEMSLOT@@@std@@QAEXPAUEXTRAITEMSLOT@@ABU3@@Z
_TEXT	SEGMENT
__Ptr$ = 8						; size = 4
__Val$ = 12						; size = 4
?construct@?$allocator@UEXTRAITEMSLOT@@@std@@QAEXPAUEXTRAITEMSLOT@@ABU3@@Z PROC ; std::allocator<EXTRAITEMSLOT>::construct, COMDAT
; _this$ = ecx

; 196  : 		{	// construct object at _Ptr with value _Val

  00000	55		 push	 ebp
  00001	8b ec		 mov	 ebp, esp

; 197  : 		_Construct(_Ptr, _Val);

  00003	ff 75 0c	 push	 DWORD PTR __Val$[ebp]
  00006	ff 75 08	 push	 DWORD PTR __Ptr$[ebp]
  00009	e8 00 00 00 00	 call	 ??$_Construct@UEXTRAITEMSLOT@@ABU1@@std@@YAXPAUEXTRAITEMSLOT@@ABU1@@Z ; std::_Construct<EXTRAITEMSLOT,EXTRAITEMSLOT const &>
  0000e	59		 pop	 ecx
  0000f	59		 pop	 ecx

; 198  : 		}

  00010	5d		 pop	 ebp
  00011	c2 08 00	 ret	 8
?construct@?$allocator@UEXTRAITEMSLOT@@@std@@QAEXPAUEXTRAITEMSLOT@@ABU3@@Z ENDP ; std::allocator<EXTRAITEMSLOT>::construct
_TEXT	ENDS
PUBLIC	?construct@?$allocator@UNewShopPullDownItem@@@std@@QAEXPAUNewShopPullDownItem@@ABU3@@Z ; std::allocator<NewShopPullDownItem>::construct
; Function compile flags: /Ogsp
;	COMDAT ?construct@?$allocator@UNewShopPullDownItem@@@std@@QAEXPAUNewShopPullDownItem@@ABU3@@Z
_TEXT	SEGMENT
__Ptr$ = 8						; size = 4
__Val$ = 12						; size = 4
?construct@?$allocator@UNewShopPullDownItem@@@std@@QAEXPAUNewShopPullDownItem@@ABU3@@Z PROC ; std::allocator<NewShopPullDownItem>::construct, COMDAT
; _this$ = ecx

; 196  : 		{	// construct object at _Ptr with value _Val

  00000	55		 push	 ebp
  00001	8b ec		 mov	 ebp, esp

; 197  : 		_Construct(_Ptr, _Val);

  00003	ff 75 0c	 push	 DWORD PTR __Val$[ebp]
  00006	ff 75 08	 push	 DWORD PTR __Ptr$[ebp]
  00009	e8 00 00 00 00	 call	 ??$_Construct@UNewShopPullDownItem@@ABU1@@std@@YAXPAUNewShopPullDownItem@@ABU1@@Z ; std::_Construct<NewShopPullDownItem,NewShopPullDownItem const &>
  0000e	59		 pop	 ecx
  0000f	59		 pop	 ecx

; 198  : 		}

  00010	5d		 pop	 ebp
  00011	c2 08 00	 ret	 8
?construct@?$allocator@UNewShopPullDownItem@@@std@@QAEXPAUNewShopPullDownItem@@ABU3@@Z ENDP ; std::allocator<NewShopPullDownItem>::construct
_TEXT	ENDS
PUBLIC	??$_Dest_val@V?$allocator@UInvenItemInfo@@@std@@UInvenItemInfo@@@std@@YAXAAV?$allocator@UInvenItemInfo@@@0@PAUInvenItemInfo@@@Z ; std::_Dest_val<std::allocator<InvenItemInfo>,InvenItemInfo>
; Function compile flags: /Ogsp
;	COMDAT ??$_Dest_val@V?$allocator@UInvenItemInfo@@@std@@UInvenItemInfo@@@std@@YAXAAV?$allocator@UInvenItemInfo@@@0@PAUInvenItemInfo@@@Z
_TEXT	SEGMENT
__Alval$ = 8						; size = 4
__Pdest$ = 12						; size = 4
??$_Dest_val@V?$allocator@UInvenItemInfo@@@std@@UInvenItemInfo@@@std@@YAXAAV?$allocator@UInvenItemInfo@@@0@PAUInvenItemInfo@@@Z PROC ; std::_Dest_val<std::allocator<InvenItemInfo>,InvenItemInfo>, COMDAT

; 287  : 	_Alval.destroy(_Pdest);
; 288  : 	}

  00000	c3		 ret	 0
??$_Dest_val@V?$allocator@UInvenItemInfo@@@std@@UInvenItemInfo@@@std@@YAXAAV?$allocator@UInvenItemInfo@@@0@PAUInvenItemInfo@@@Z ENDP ; std::_Dest_val<std::allocator<InvenItemInfo>,InvenItemInfo>
_TEXT	ENDS
PUBLIC	?destroy@?$allocator@UEXTRAITEMSLOT@@@std@@QAEXPAUEXTRAITEMSLOT@@@Z ; std::allocator<EXTRAITEMSLOT>::destroy
; Function compile flags: /Ogsp
;	COMDAT ?destroy@?$allocator@UEXTRAITEMSLOT@@@std@@QAEXPAUEXTRAITEMSLOT@@@Z
_TEXT	SEGMENT
__Ptr$ = 8						; size = 4
?destroy@?$allocator@UEXTRAITEMSLOT@@@std@@QAEXPAUEXTRAITEMSLOT@@@Z PROC ; std::allocator<EXTRAITEMSLOT>::destroy, COMDAT
; _this$ = ecx

; 212  : 		{	// destroy object at _Ptr

  00000	55		 push	 ebp
  00001	8b ec		 mov	 ebp, esp

; 213  : 		_Destroy(_Ptr);

  00003	8b 4d 08	 mov	 ecx, DWORD PTR __Ptr$[ebp]
  00006	e8 00 00 00 00	 call	 ??1EXTRAITEMSLOT@@QAE@XZ

; 214  : 		}

  0000b	5d		 pop	 ebp
  0000c	c2 04 00	 ret	 4
?destroy@?$allocator@UEXTRAITEMSLOT@@@std@@QAEXPAUEXTRAITEMSLOT@@@Z ENDP ; std::allocator<EXTRAITEMSLOT>::destroy
_TEXT	ENDS
PUBLIC	?destroy@?$allocator@UNewShopPullDownItem@@@std@@QAEXPAUNewShopPullDownItem@@@Z ; std::allocator<NewShopPullDownItem>::destroy
; Function compile flags: /Ogsp
;	COMDAT ?destroy@?$allocator@UNewShopPullDownItem@@@std@@QAEXPAUNewShopPullDownItem@@@Z
_TEXT	SEGMENT
__Ptr$ = 8						; size = 4
?destroy@?$allocator@UNewShopPullDownItem@@@std@@QAEXPAUNewShopPullDownItem@@@Z PROC ; std::allocator<NewShopPullDownItem>::destroy, COMDAT
; _this$ = ecx

; 212  : 		{	// destroy object at _Ptr

  00000	55		 push	 ebp
  00001	8b ec		 mov	 ebp, esp

; 213  : 		_Destroy(_Ptr);

  00003	8b 4d 08	 mov	 ecx, DWORD PTR __Ptr$[ebp]
  00006	e8 00 00 00 00	 call	 ??1NewShopPullDownItem@@QAE@XZ

; 214  : 		}

  0000b	5d		 pop	 ebp
  0000c	c2 04 00	 ret	 4
?destroy@?$allocator@UNewShopPullDownItem@@@std@@QAEXPAUNewShopPullDownItem@@@Z ENDP ; std::allocator<NewShopPullDownItem>::destroy
_TEXT	ENDS
PUBLIC	??$iter_swap@PAUInvenItemInfo@@PAU1@@std@@YAXPAUInvenItemInfo@@0@Z ; std::iter_swap<InvenItemInfo *,InvenItemInfo *>
; Function compile flags: /Ogsp
; File c:\program files (x86)\microsoft visual studio 10.0\vc\include\xutility
;	COMDAT ??$iter_swap@PAUInvenItemInfo@@PAU1@@std@@YAXPAUInvenItemInfo@@0@Z
_TEXT	SEGMENT
__Tmp$516426 = -12					; size = 12
__Left$ = 8						; size = 4
__Right$ = 12						; size = 4
??$iter_swap@PAUInvenItemInfo@@PAU1@@std@@YAXPAUInvenItemInfo@@0@Z PROC ; std::iter_swap<InvenItemInfo *,InvenItemInfo *>, COMDAT

; 2133 : 	{	// swap *_Left and *_Right

  00000	55		 push	 ebp
  00001	8b ec		 mov	 ebp, esp
  00003	83 ec 0c	 sub	 esp, 12			; 0000000cH
  00006	56		 push	 esi

; 2134 : 	swap(*_Left, *_Right);

  00007	8b 75 08	 mov	 esi, DWORD PTR __Left$[ebp]
  0000a	57		 push	 edi
  0000b	8d 7d f4	 lea	 edi, DWORD PTR __Tmp$516426[ebp]
  0000e	a5		 movsd
  0000f	a5		 movsd
  00010	a5		 movsd
  00011	8b 75 0c	 mov	 esi, DWORD PTR __Right$[ebp]
  00014	8b 7d 08	 mov	 edi, DWORD PTR __Left$[ebp]
  00017	a5		 movsd
  00018	a5		 movsd
  00019	a5		 movsd
  0001a	8b 7d 0c	 mov	 edi, DWORD PTR __Right$[ebp]
  0001d	8d 75 f4	 lea	 esi, DWORD PTR __Tmp$516426[ebp]
  00020	a5		 movsd
  00021	a5		 movsd
  00022	a5		 movsd
  00023	5f		 pop	 edi
  00024	5e		 pop	 esi

; 2135 : 	}

  00025	c9		 leave
  00026	c3		 ret	 0
??$iter_swap@PAUInvenItemInfo@@PAU1@@std@@YAXPAUInvenItemInfo@@0@Z ENDP ; std::iter_swap<InvenItemInfo *,InvenItemInfo *>
_TEXT	ENDS
PUBLIC	??$_Make_heap@PAUInvenItemInfo@@HU1@VCompoundItemInfoSort1@@@std@@YAXPAUInvenItemInfo@@0VCompoundItemInfoSort1@@PAH0@Z ; std::_Make_heap<InvenItemInfo *,int,InvenItemInfo,CompoundItemInfoSort1>
; Function compile flags: /Ogsp
; File c:\program files (x86)\microsoft visual studio 10.0\vc\include\algorithm
;	COMDAT ??$_Make_heap@PAUInvenItemInfo@@HU1@VCompoundItemInfoSort1@@@std@@YAXPAUInvenItemInfo@@0VCompoundItemInfoSort1@@PAH0@Z
_TEXT	SEGMENT
__Val$514196 = -16					; size = 12
__Bottom$ = -4						; size = 4
__First$ = 8						; size = 4
tv149 = 12						; size = 4
__Last$ = 12						; size = 4
__Pred$ = 16						; size = 1
___formal$ = 20						; size = 4
___formal$ = 24						; size = 4
??$_Make_heap@PAUInvenItemInfo@@HU1@VCompoundItemInfoSort1@@@std@@YAXPAUInvenItemInfo@@0VCompoundItemInfoSort1@@PAH0@Z PROC ; std::_Make_heap<InvenItemInfo *,int,InvenItemInfo,CompoundItemInfoSort1>, COMDAT

; 2658 : 	{	// make nontrivial [_First, _Last) into a heap, using _Pred

  00000	55		 push	 ebp
  00001	8b ec		 mov	 ebp, esp
  00003	83 ec 10	 sub	 esp, 16			; 00000010H

; 2659 : 	_Diff _Bottom = _Last - _First;

  00006	8b 45 0c	 mov	 eax, DWORD PTR __Last$[ebp]
  00009	2b 45 08	 sub	 eax, DWORD PTR __First$[ebp]
  0000c	53		 push	 ebx
  0000d	99		 cdq
  0000e	6a 0c		 push	 12			; 0000000cH
  00010	59		 pop	 ecx
  00011	f7 f9		 idiv	 ecx
  00013	89 45 fc	 mov	 DWORD PTR __Bottom$[ebp], eax

; 2660 : 	for (_Diff _Hole = _Bottom / 2; 0 < _Hole; )

  00016	99		 cdq
  00017	2b c2		 sub	 eax, edx
  00019	8b d8		 mov	 ebx, eax
  0001b	d1 fb		 sar	 ebx, 1
  0001d	85 db		 test	 ebx, ebx
  0001f	7e 38		 jle	 SHORT $LN1@Make_heap

; 2659 : 	_Diff _Bottom = _Last - _First;

  00021	56		 push	 esi
  00022	8b f3		 mov	 esi, ebx
  00024	6b f6 0c	 imul	 esi, 12			; 0000000cH
  00027	03 75 08	 add	 esi, DWORD PTR __First$[ebp]
  0002a	57		 push	 edi
  0002b	eb 03		 jmp	 SHORT $LN2@Make_heap
$LL11@Make_heap:
  0002d	8b 75 0c	 mov	 esi, DWORD PTR tv149[ebp]
$LN2@Make_heap:

; 2661 : 		{	// reheap top half, bottom to top
; 2662 : 		--_Hole;
; 2663 : 		_Ty _Val = _Move(*(_First + _Hole));
; 2664 : 		_Adjust_heap(_First, _Hole, _Bottom,
; 2665 : 			_Move(_Val), _Pred);

  00030	ff 75 10	 push	 DWORD PTR __Pred$[ebp]
  00033	83 ee 0c	 sub	 esi, 12			; 0000000cH
  00036	89 75 0c	 mov	 DWORD PTR tv149[ebp], esi
  00039	8d 7d f0	 lea	 edi, DWORD PTR __Val$514196[ebp]
  0003c	a5		 movsd
  0003d	8d 45 f0	 lea	 eax, DWORD PTR __Val$514196[ebp]
  00040	50		 push	 eax
  00041	ff 75 fc	 push	 DWORD PTR __Bottom$[ebp]
  00044	4b		 dec	 ebx
  00045	a5		 movsd
  00046	53		 push	 ebx
  00047	ff 75 08	 push	 DWORD PTR __First$[ebp]
  0004a	a5		 movsd
  0004b	e8 00 00 00 00	 call	 ??$_Adjust_heap@PAUInvenItemInfo@@HU1@VCompoundItemInfoSort1@@@std@@YAXPAUInvenItemInfo@@HH$$QAU1@VCompoundItemInfoSort1@@@Z ; std::_Adjust_heap<InvenItemInfo *,int,InvenItemInfo,CompoundItemInfoSort1>
  00050	83 c4 14	 add	 esp, 20			; 00000014H
  00053	85 db		 test	 ebx, ebx
  00055	7f d6		 jg	 SHORT $LL11@Make_heap
  00057	5f		 pop	 edi
  00058	5e		 pop	 esi
$LN1@Make_heap:
  00059	5b		 pop	 ebx

; 2666 : 		}
; 2667 : 	}

  0005a	c9		 leave
  0005b	c3		 ret	 0
??$_Make_heap@PAUInvenItemInfo@@HU1@VCompoundItemInfoSort1@@@std@@YAXPAUInvenItemInfo@@0VCompoundItemInfoSort1@@PAH0@Z ENDP ; std::_Make_heap<InvenItemInfo *,int,InvenItemInfo,CompoundItemInfoSort1>
_TEXT	ENDS
PUBLIC	??$_Insertion_sort1@PAUInvenItemInfo@@VCompoundItemInfoSort1@@U1@@std@@YAXPAUInvenItemInfo@@0VCompoundItemInfoSort1@@0@Z ; std::_Insertion_sort1<InvenItemInfo *,CompoundItemInfoSort1,InvenItemInfo>
; Function compile flags: /Ogsp
;	COMDAT ??$_Insertion_sort1@PAUInvenItemInfo@@VCompoundItemInfoSort1@@U1@@std@@YAXPAUInvenItemInfo@@0VCompoundItemInfoSort1@@0@Z
_TEXT	SEGMENT
__Val$514231 = -16					; size = 12
__Next1$514230 = -4					; size = 4
__Cat$516468 = 8					; size = 1
__First$ = 8						; size = 4
__Last$ = 12						; size = 4
__Pred$ = 16						; size = 1
___formal$ = 20						; size = 4
??$_Insertion_sort1@PAUInvenItemInfo@@VCompoundItemInfoSort1@@U1@@std@@YAXPAUInvenItemInfo@@0VCompoundItemInfoSort1@@0@Z PROC ; std::_Insertion_sort1<InvenItemInfo *,CompoundItemInfoSort1,InvenItemInfo>, COMDAT

; 3650 : 	{	// insertion sort [_First, _Last), using _Pred

  00000	55		 push	 ebp
  00001	8b ec		 mov	 ebp, esp

; 3651 : 	if (_First != _Last)

  00003	8b 55 08	 mov	 edx, DWORD PTR __First$[ebp]
  00006	83 ec 10	 sub	 esp, 16			; 00000010H
  00009	3b 55 0c	 cmp	 edx, DWORD PTR __Last$[ebp]
  0000c	74 7b		 je	 SHORT $LN6@Insertion_

; 3652 : 		for (_BidIt _Next = _First; ++_Next != _Last; )

  0000e	53		 push	 ebx
  0000f	8d 5a 0c	 lea	 ebx, DWORD PTR [edx+12]
  00012	3b 5d 0c	 cmp	 ebx, DWORD PTR __Last$[ebp]
  00015	74 71		 je	 SHORT $LN38@Insertion_
  00017	56		 push	 esi
  00018	57		 push	 edi
$LL7@Insertion_:

; 3653 : 			{	// order next element
; 3654 : 			_BidIt _Next1 = _Next;
; 3655 : 			_Ty _Val = _Move(*_Next);
; 3656 : 
; 3657 : 			if (_DEBUG_LT_PRED(_Pred, _Val, *_First))

  00019	8b 42 04	 mov	 eax, DWORD PTR [edx+4]
  0001c	8b f3		 mov	 esi, ebx
  0001e	8d 7d f0	 lea	 edi, DWORD PTR __Val$514231[ebp]
  00021	a5		 movsd
  00022	a5		 movsd
  00023	a5		 movsd
  00024	89 5d fc	 mov	 DWORD PTR __Next1$514230[ebp], ebx
  00027	39 45 f4	 cmp	 DWORD PTR __Val$514231[ebp+4], eax
  0002a	7c 0a		 jl	 SHORT $LN35@Insertion_
  0002c	75 20		 jne	 SHORT $LN37@Insertion_
  0002e	8b 45 f8	 mov	 eax, DWORD PTR __Val$514231[ebp+8]
  00031	3b 42 08	 cmp	 eax, DWORD PTR [edx+8]
  00034	7e 18		 jle	 SHORT $LN37@Insertion_
$LN35@Insertion_:

; 3658 : 				{	// found new earliest element, move to front
; 3659 : 				_Move_backward(_First, _Next, ++_Next1);

  00036	ff 75 08	 push	 DWORD PTR __Cat$516468[ebp]
  00039	8d 43 0c	 lea	 eax, DWORD PTR [ebx+12]
  0003c	50		 push	 eax
  0003d	53		 push	 ebx
  0003e	52		 push	 edx
  0003f	e8 00 00 00 00	 call	 ??$_Move_backward@PAUInvenItemInfo@@PAU1@@std@@YAPAUInvenItemInfo@@PAU1@00U_Nonscalar_ptr_iterator_tag@0@@Z ; std::_Move_backward<InvenItemInfo *,InvenItemInfo *>

; 3660 : 				*_First = _Move(_Val);

  00044	8b 7d 08	 mov	 edi, DWORD PTR __First$[ebp]
  00047	83 c4 10	 add	 esp, 16			; 00000010H

; 3661 : 				}
; 3662 : 			else

  0004a	8b d7		 mov	 edx, edi
  0004c	eb 2a		 jmp	 SHORT $LN40@Insertion_
$LN37@Insertion_:

; 3652 : 		for (_BidIt _Next = _First; ++_Next != _Last; )

  0004e	8d 43 04	 lea	 eax, DWORD PTR [ebx+4]
$LL3@Insertion_:

; 3663 : 				{	// look for insertion point after first
; 3664 : 				for (_BidIt _First1 = _Next1;
; 3665 : 					_DEBUG_LT_PRED(_Pred, _Val, *--_First1);
; 3666 : 					_Next1 = _First1)

  00051	83 e8 0c	 sub	 eax, 12			; 0000000cH
  00054	8b 08		 mov	 ecx, DWORD PTR [eax]
  00056	39 4d f4	 cmp	 DWORD PTR __Val$514231[ebp+4], ecx
  00059	7c 0a		 jl	 SHORT $LN36@Insertion_
  0005b	75 18		 jne	 SHORT $LN24@Insertion_
  0005d	8b 4d f8	 mov	 ecx, DWORD PTR __Val$514231[ebp+8]
  00060	3b 48 04	 cmp	 ecx, DWORD PTR [eax+4]
  00063	7e 10		 jle	 SHORT $LN24@Insertion_
$LN36@Insertion_:

; 3667 : 					*_Next1 = _Move(*_First1);	// move hole down

  00065	8b 7d fc	 mov	 edi, DWORD PTR __Next1$514230[ebp]
  00068	8d 48 fc	 lea	 ecx, DWORD PTR [eax-4]
  0006b	8b f1		 mov	 esi, ecx
  0006d	a5		 movsd
  0006e	a5		 movsd
  0006f	a5		 movsd
  00070	89 4d fc	 mov	 DWORD PTR __Next1$514230[ebp], ecx
  00073	eb dc		 jmp	 SHORT $LL3@Insertion_

; 3663 : 				{	// look for insertion point after first
; 3664 : 				for (_BidIt _First1 = _Next1;
; 3665 : 					_DEBUG_LT_PRED(_Pred, _Val, *--_First1);
; 3666 : 					_Next1 = _First1)

$LN24@Insertion_:

; 3668 : 				*_Next1 = _Move(_Val);	// insert element in hole

  00075	8b 7d fc	 mov	 edi, DWORD PTR __Next1$514230[ebp]
$LN40@Insertion_:
  00078	8d 75 f0	 lea	 esi, DWORD PTR __Val$514231[ebp]
  0007b	a5		 movsd
  0007c	a5		 movsd
  0007d	83 c3 0c	 add	 ebx, 12			; 0000000cH
  00080	a5		 movsd
  00081	3b 5d 0c	 cmp	 ebx, DWORD PTR __Last$[ebp]
  00084	75 93		 jne	 SHORT $LL7@Insertion_
  00086	5f		 pop	 edi
  00087	5e		 pop	 esi
$LN38@Insertion_:
  00088	5b		 pop	 ebx
$LN6@Insertion_:

; 3669 : 				}
; 3670 : 			}
; 3671 : 	}

  00089	c9		 leave
  0008a	c3		 ret	 0
??$_Insertion_sort1@PAUInvenItemInfo@@VCompoundItemInfoSort1@@U1@@std@@YAXPAUInvenItemInfo@@0VCompoundItemInfoSort1@@0@Z ENDP ; std::_Insertion_sort1<InvenItemInfo *,CompoundItemInfoSort1,InvenItemInfo>
_TEXT	ENDS
PUBLIC	??$_Cons_val@V?$allocator@UEXTRAITEMSLOT@@@std@@UEXTRAITEMSLOT@@U3@@std@@YAXAAV?$allocator@UEXTRAITEMSLOT@@@0@PAUEXTRAITEMSLOT@@$$QAU2@@Z ; std::_Cons_val<std::allocator<EXTRAITEMSLOT>,EXTRAITEMSLOT,EXTRAITEMSLOT>
;	COMDAT xdata$x
; File c:\program files (x86)\microsoft visual studio 10.0\vc\include\utility
xdata$x	SEGMENT
__unwindtable$??$_Cons_val@V?$allocator@UEXTRAITEMSLOT@@@std@@UEXTRAITEMSLOT@@U3@@std@@YAXAAV?$allocator@UEXTRAITEMSLOT@@@0@PAUEXTRAITEMSLOT@@$$QAU2@@Z DD 0ffffffffH
	DD	FLAT:__unwindfunclet$??$_Cons_val@V?$allocator@UEXTRAITEMSLOT@@@std@@UEXTRAITEMSLOT@@U3@@std@@YAXAAV?$allocator@UEXTRAITEMSLOT@@@0@PAUEXTRAITEMSLOT@@$$QAU2@@Z$0
__ehfuncinfo$??$_Cons_val@V?$allocator@UEXTRAITEMSLOT@@@std@@UEXTRAITEMSLOT@@U3@@std@@YAXAAV?$allocator@UEXTRAITEMSLOT@@@0@PAUEXTRAITEMSLOT@@$$QAU2@@Z DD 019930522H
	DD	01H
	DD	FLAT:__unwindtable$??$_Cons_val@V?$allocator@UEXTRAITEMSLOT@@@std@@UEXTRAITEMSLOT@@U3@@std@@YAXAAV?$allocator@UEXTRAITEMSLOT@@@0@PAUEXTRAITEMSLOT@@$$QAU2@@Z
	DD	2 DUP(00H)
	DD	2 DUP(00H)
	DD	00H
	DD	01H
; Function compile flags: /Ogsp
; File c:\program files (x86)\microsoft visual studio 10.0\vc\include\xmemory
xdata$x	ENDS
;	COMDAT ??$_Cons_val@V?$allocator@UEXTRAITEMSLOT@@@std@@UEXTRAITEMSLOT@@U3@@std@@YAXAAV?$allocator@UEXTRAITEMSLOT@@@0@PAUEXTRAITEMSLOT@@$$QAU2@@Z
_TEXT	SEGMENT
$T516513 = -16						; size = 4
__$EHRec$ = -12						; size = 12
__Alval$ = 8						; size = 4
__Pdest$ = 12						; size = 4
__Src$ = 16						; size = 4
??$_Cons_val@V?$allocator@UEXTRAITEMSLOT@@@std@@UEXTRAITEMSLOT@@U3@@std@@YAXAAV?$allocator@UEXTRAITEMSLOT@@@0@PAUEXTRAITEMSLOT@@$$QAU2@@Z PROC ; std::_Cons_val<std::allocator<EXTRAITEMSLOT>,EXTRAITEMSLOT,EXTRAITEMSLOT>, COMDAT

; 279  : 	{	// construct using allocator

  00000	6a 04		 push	 4
  00002	b8 00 00 00 00	 mov	 eax, __ehhandler$??$_Cons_val@V?$allocator@UEXTRAITEMSLOT@@@std@@UEXTRAITEMSLOT@@U3@@std@@YAXAAV?$allocator@UEXTRAITEMSLOT@@@0@PAUEXTRAITEMSLOT@@$$QAU2@@Z
  00007	e8 00 00 00 00	 call	 __EH_prolog3

; 280  : 	_Alval.construct(_Pdest, _STD forward<_Ty2>(_Src));

  0000c	8b 4d 0c	 mov	 ecx, DWORD PTR __Pdest$[ebp]
  0000f	89 4d f0	 mov	 DWORD PTR $T516513[ebp], ecx
  00012	83 65 fc 00	 and	 DWORD PTR __$EHRec$[ebp+8], 0
  00016	85 c9		 test	 ecx, ecx
  00018	74 08		 je	 SHORT $LN7@Cons_val@5
  0001a	ff 75 10	 push	 DWORD PTR __Src$[ebp]
  0001d	e8 00 00 00 00	 call	 ??0EXTRAITEMSLOT@@QAE@ABU0@@Z
$LN7@Cons_val@5:

; 281  : 	}

  00022	e8 00 00 00 00	 call	 __EH_epilog3
  00027	c3		 ret	 0
_TEXT	ENDS
;	COMDAT text$x
text$x	SEGMENT
__unwindfunclet$??$_Cons_val@V?$allocator@UEXTRAITEMSLOT@@@std@@UEXTRAITEMSLOT@@U3@@std@@YAXAAV?$allocator@UEXTRAITEMSLOT@@@0@PAUEXTRAITEMSLOT@@$$QAU2@@Z$0:
  00000	ff 75 0c	 push	 DWORD PTR __Pdest$[ebp]
  00003	ff 75 f0	 push	 DWORD PTR $T516513[ebp]
  00006	e8 00 00 00 00	 call	 ??3@YAXPAX0@Z		; operator delete
  0000b	59		 pop	 ecx
  0000c	59		 pop	 ecx
  0000d	c3		 ret	 0
__ehhandler$??$_Cons_val@V?$allocator@UEXTRAITEMSLOT@@@std@@UEXTRAITEMSLOT@@U3@@std@@YAXAAV?$allocator@UEXTRAITEMSLOT@@@0@PAUEXTRAITEMSLOT@@$$QAU2@@Z:
  0000e	8b 54 24 08	 mov	 edx, DWORD PTR [esp+8]
  00012	8d 42 0c	 lea	 eax, DWORD PTR [edx+12]
  00015	8b 4a ec	 mov	 ecx, DWORD PTR [edx-20]
  00018	33 c8		 xor	 ecx, eax
  0001a	e8 00 00 00 00	 call	 @__security_check_cookie@4
  0001f	b8 00 00 00 00	 mov	 eax, OFFSET __ehfuncinfo$??$_Cons_val@V?$allocator@UEXTRAITEMSLOT@@@std@@UEXTRAITEMSLOT@@U3@@std@@YAXAAV?$allocator@UEXTRAITEMSLOT@@@0@PAUEXTRAITEMSLOT@@$$QAU2@@Z
  00024	e9 00 00 00 00	 jmp	 ___CxxFrameHandler3
text$x	ENDS
??$_Cons_val@V?$allocator@UEXTRAITEMSLOT@@@std@@UEXTRAITEMSLOT@@U3@@std@@YAXAAV?$allocator@UEXTRAITEMSLOT@@@0@PAUEXTRAITEMSLOT@@$$QAU2@@Z ENDP ; std::_Cons_val<std::allocator<EXTRAITEMSLOT>,EXTRAITEMSLOT,EXTRAITEMSLOT>
PUBLIC	??$_Cons_val@V?$allocator@UNewShopPullDownItem@@@std@@UNewShopPullDownItem@@U3@@std@@YAXAAV?$allocator@UNewShopPullDownItem@@@0@PAUNewShopPullDownItem@@$$QAU2@@Z ; std::_Cons_val<std::allocator<NewShopPullDownItem>,NewShopPullDownItem,NewShopPullDownItem>
;	COMDAT xdata$x
; File c:\program files (x86)\microsoft visual studio 10.0\vc\include\utility
xdata$x	SEGMENT
__unwindtable$??$_Cons_val@V?$allocator@UNewShopPullDownItem@@@std@@UNewShopPullDownItem@@U3@@std@@YAXAAV?$allocator@UNewShopPullDownItem@@@0@PAUNewShopPullDownItem@@$$QAU2@@Z DD 0ffffffffH
	DD	FLAT:__unwindfunclet$??$_Cons_val@V?$allocator@UNewShopPullDownItem@@@std@@UNewShopPullDownItem@@U3@@std@@YAXAAV?$allocator@UNewShopPullDownItem@@@0@PAUNewShopPullDownItem@@$$QAU2@@Z$0
__ehfuncinfo$??$_Cons_val@V?$allocator@UNewShopPullDownItem@@@std@@UNewShopPullDownItem@@U3@@std@@YAXAAV?$allocator@UNewShopPullDownItem@@@0@PAUNewShopPullDownItem@@$$QAU2@@Z DD 019930522H
	DD	01H
	DD	FLAT:__unwindtable$??$_Cons_val@V?$allocator@UNewShopPullDownItem@@@std@@UNewShopPullDownItem@@U3@@std@@YAXAAV?$allocator@UNewShopPullDownItem@@@0@PAUNewShopPullDownItem@@$$QAU2@@Z
	DD	2 DUP(00H)
	DD	2 DUP(00H)
	DD	00H
	DD	01H
; Function compile flags: /Ogsp
; File c:\program files (x86)\microsoft visual studio 10.0\vc\include\xmemory
xdata$x	ENDS
;	COMDAT ??$_Cons_val@V?$allocator@UNewShopPullDownItem@@@std@@UNewShopPullDownItem@@U3@@std@@YAXAAV?$allocator@UNewShopPullDownItem@@@0@PAUNewShopPullDownItem@@$$QAU2@@Z
_TEXT	SEGMENT
$T516546 = -16						; size = 4
__$EHRec$ = -12						; size = 12
__Alval$ = 8						; size = 4
__Pdest$ = 12						; size = 4
__Src$ = 16						; size = 4
??$_Cons_val@V?$allocator@UNewShopPullDownItem@@@std@@UNewShopPullDownItem@@U3@@std@@YAXAAV?$allocator@UNewShopPullDownItem@@@0@PAUNewShopPullDownItem@@$$QAU2@@Z PROC ; std::_Cons_val<std::allocator<NewShopPullDownItem>,NewShopPullDownItem,NewShopPullDownItem>, COMDAT

; 279  : 	{	// construct using allocator

  00000	6a 04		 push	 4
  00002	b8 00 00 00 00	 mov	 eax, __ehhandler$??$_Cons_val@V?$allocator@UNewShopPullDownItem@@@std@@UNewShopPullDownItem@@U3@@std@@YAXAAV?$allocator@UNewShopPullDownItem@@@0@PAUNewShopPullDownItem@@$$QAU2@@Z
  00007	e8 00 00 00 00	 call	 __EH_prolog3

; 280  : 	_Alval.construct(_Pdest, _STD forward<_Ty2>(_Src));

  0000c	8b 4d 0c	 mov	 ecx, DWORD PTR __Pdest$[ebp]
  0000f	89 4d f0	 mov	 DWORD PTR $T516546[ebp], ecx
  00012	83 65 fc 00	 and	 DWORD PTR __$EHRec$[ebp+8], 0
  00016	85 c9		 test	 ecx, ecx
  00018	74 08		 je	 SHORT $LN7@Cons_val@6
  0001a	ff 75 10	 push	 DWORD PTR __Src$[ebp]
  0001d	e8 00 00 00 00	 call	 ??0NewShopPullDownItem@@QAE@ABU0@@Z
$LN7@Cons_val@6:

; 281  : 	}

  00022	e8 00 00 00 00	 call	 __EH_epilog3
  00027	c3		 ret	 0
_TEXT	ENDS
;	COMDAT text$x
text$x	SEGMENT
__unwindfunclet$??$_Cons_val@V?$allocator@UNewShopPullDownItem@@@std@@UNewShopPullDownItem@@U3@@std@@YAXAAV?$allocator@UNewShopPullDownItem@@@0@PAUNewShopPullDownItem@@$$QAU2@@Z$0:
  00000	ff 75 0c	 push	 DWORD PTR __Pdest$[ebp]
  00003	ff 75 f0	 push	 DWORD PTR $T516546[ebp]
  00006	e8 00 00 00 00	 call	 ??3@YAXPAX0@Z		; operator delete
  0000b	59		 pop	 ecx
  0000c	59		 pop	 ecx
  0000d	c3		 ret	 0
__ehhandler$??$_Cons_val@V?$allocator@UNewShopPullDownItem@@@std@@UNewShopPullDownItem@@U3@@std@@YAXAAV?$allocator@UNewShopPullDownItem@@@0@PAUNewShopPullDownItem@@$$QAU2@@Z:
  0000e	8b 54 24 08	 mov	 edx, DWORD PTR [esp+8]
  00012	8d 42 0c	 lea	 eax, DWORD PTR [edx+12]
  00015	8b 4a ec	 mov	 ecx, DWORD PTR [edx-20]
  00018	33 c8		 xor	 ecx, eax
  0001a	e8 00 00 00 00	 call	 @__security_check_cookie@4
  0001f	b8 00 00 00 00	 mov	 eax, OFFSET __ehfuncinfo$??$_Cons_val@V?$allocator@UNewShopPullDownItem@@@std@@UNewShopPullDownItem@@U3@@std@@YAXAAV?$allocator@UNewShopPullDownItem@@@0@PAUNewShopPullDownItem@@$$QAU2@@Z
  00024	e9 00 00 00 00	 jmp	 ___CxxFrameHandler3
text$x	ENDS
??$_Cons_val@V?$allocator@UNewShopPullDownItem@@@std@@UNewShopPullDownItem@@U3@@std@@YAXAAV?$allocator@UNewShopPullDownItem@@@0@PAUNewShopPullDownItem@@$$QAU2@@Z ENDP ; std::_Cons_val<std::allocator<NewShopPullDownItem>,NewShopPullDownItem,NewShopPullDownItem>
PUBLIC	??$_Cons_val@V?$allocator@UInvenItemInfo@@@std@@UInvenItemInfo@@U3@@std@@YAXAAV?$allocator@UInvenItemInfo@@@0@PAUInvenItemInfo@@$$QAU2@@Z ; std::_Cons_val<std::allocator<InvenItemInfo>,InvenItemInfo,InvenItemInfo>
; Function compile flags: /Ogsp
;	COMDAT ??$_Cons_val@V?$allocator@UInvenItemInfo@@@std@@UInvenItemInfo@@U3@@std@@YAXAAV?$allocator@UInvenItemInfo@@@0@PAUInvenItemInfo@@$$QAU2@@Z
_TEXT	SEGMENT
__Alval$ = 8						; size = 4
__Pdest$ = 12						; size = 4
__Src$ = 16						; size = 4
??$_Cons_val@V?$allocator@UInvenItemInfo@@@std@@UInvenItemInfo@@U3@@std@@YAXAAV?$allocator@UInvenItemInfo@@@0@PAUInvenItemInfo@@$$QAU2@@Z PROC ; std::_Cons_val<std::allocator<InvenItemInfo>,InvenItemInfo,InvenItemInfo>, COMDAT

; 279  : 	{	// construct using allocator

  00000	55		 push	 ebp
  00001	8b ec		 mov	 ebp, esp
  00003	57		 push	 edi

; 280  : 	_Alval.construct(_Pdest, _STD forward<_Ty2>(_Src));

  00004	8b 7d 0c	 mov	 edi, DWORD PTR __Pdest$[ebp]
  00007	85 ff		 test	 edi, edi
  00009	74 08		 je	 SHORT $LN7@Cons_val@7
  0000b	56		 push	 esi
  0000c	8b 75 10	 mov	 esi, DWORD PTR __Src$[ebp]
  0000f	a5		 movsd
  00010	a5		 movsd
  00011	a5		 movsd
  00012	5e		 pop	 esi
$LN7@Cons_val@7:
  00013	5f		 pop	 edi

; 281  : 	}

  00014	5d		 pop	 ebp
  00015	c3		 ret	 0
??$_Cons_val@V?$allocator@UInvenItemInfo@@@std@@UInvenItemInfo@@U3@@std@@YAXAAV?$allocator@UInvenItemInfo@@@0@PAUInvenItemInfo@@$$QAU2@@Z ENDP ; std::_Cons_val<std::allocator<InvenItemInfo>,InvenItemInfo,InvenItemInfo>
_TEXT	ENDS
PUBLIC	??$_Med3@PAUInvenItemInfo@@VCompoundItemInfoSort1@@@std@@YAXPAUInvenItemInfo@@00VCompoundItemInfoSort1@@@Z ; std::_Med3<InvenItemInfo *,CompoundItemInfoSort1>
; Function compile flags: /Ogsp
; File c:\program files (x86)\microsoft visual studio 10.0\vc\include\algorithm
;	COMDAT ??$_Med3@PAUInvenItemInfo@@VCompoundItemInfoSort1@@@std@@YAXPAUInvenItemInfo@@00VCompoundItemInfoSort1@@@Z
_TEXT	SEGMENT
__Tmp$516672 = -12					; size = 12
__Tmp$516641 = -12					; size = 12
__Tmp$516610 = -12					; size = 12
__First$ = 8						; size = 4
__Mid$ = 12						; size = 4
__Last$ = 16						; size = 4
__Pred$ = 20						; size = 1
??$_Med3@PAUInvenItemInfo@@VCompoundItemInfoSort1@@@std@@YAXPAUInvenItemInfo@@00VCompoundItemInfoSort1@@@Z PROC ; std::_Med3<InvenItemInfo *,CompoundItemInfoSort1>, COMDAT

; 3683 : 	{	// sort median of three elements to middle

  00000	55		 push	 ebp
  00001	8b ec		 mov	 ebp, esp
  00003	83 ec 0c	 sub	 esp, 12			; 0000000cH
  00006	53		 push	 ebx

; 3684 : 	if (_DEBUG_LT_PRED(_Pred, *_Mid, *_First))

  00007	8b 5d 0c	 mov	 ebx, DWORD PTR __Mid$[ebp]
  0000a	56		 push	 esi
  0000b	57		 push	 edi
  0000c	ff 75 08	 push	 DWORD PTR __First$[ebp]
  0000f	8d 4d 14	 lea	 ecx, DWORD PTR __Pred$[ebp]
  00012	53		 push	 ebx
  00013	e8 00 00 00 00	 call	 ??RCompoundItemInfoSort1@@QBE_NABUInvenItemInfo@@0@Z ; CompoundItemInfoSort1::operator()
  00018	84 c0		 test	 al, al
  0001a	74 19		 je	 SHORT $LN8@Med3

; 3685 : 		_STD iter_swap(_Mid, _First);

  0001c	8b f3		 mov	 esi, ebx
  0001e	8d 7d f4	 lea	 edi, DWORD PTR __Tmp$516610[ebp]
  00021	a5		 movsd
  00022	a5		 movsd
  00023	a5		 movsd
  00024	8b 75 08	 mov	 esi, DWORD PTR __First$[ebp]
  00027	8b fb		 mov	 edi, ebx
  00029	a5		 movsd
  0002a	a5		 movsd
  0002b	a5		 movsd
  0002c	8b 7d 08	 mov	 edi, DWORD PTR __First$[ebp]
  0002f	8d 75 f4	 lea	 esi, DWORD PTR __Tmp$516610[ebp]
  00032	a5		 movsd
  00033	a5		 movsd
  00034	a5		 movsd
$LN8@Med3:

; 3686 : 	if (_DEBUG_LT_PRED(_Pred, *_Last, *_Mid))

  00035	8b 75 10	 mov	 esi, DWORD PTR __Last$[ebp]
  00038	53		 push	 ebx
  00039	56		 push	 esi
  0003a	8d 4d 14	 lea	 ecx, DWORD PTR __Pred$[ebp]
  0003d	e8 00 00 00 00	 call	 ??RCompoundItemInfoSort1@@QBE_NABUInvenItemInfo@@0@Z ; CompoundItemInfoSort1::operator()
  00042	84 c0		 test	 al, al
  00044	74 16		 je	 SHORT $LN18@Med3

; 3687 : 		_STD iter_swap(_Last, _Mid);

  00046	8d 7d f4	 lea	 edi, DWORD PTR __Tmp$516641[ebp]
  00049	a5		 movsd
  0004a	a5		 movsd
  0004b	a5		 movsd
  0004c	8b 7d 10	 mov	 edi, DWORD PTR __Last$[ebp]
  0004f	8b f3		 mov	 esi, ebx
  00051	a5		 movsd
  00052	a5		 movsd
  00053	a5		 movsd
  00054	8d 75 f4	 lea	 esi, DWORD PTR __Tmp$516641[ebp]
  00057	8b fb		 mov	 edi, ebx
  00059	a5		 movsd
  0005a	a5		 movsd
  0005b	a5		 movsd
$LN18@Med3:

; 3688 : 	if (_DEBUG_LT_PRED(_Pred, *_Mid, *_First))

  0005c	ff 75 08	 push	 DWORD PTR __First$[ebp]
  0005f	8d 4d 14	 lea	 ecx, DWORD PTR __Pred$[ebp]
  00062	53		 push	 ebx
  00063	e8 00 00 00 00	 call	 ??RCompoundItemInfoSort1@@QBE_NABUInvenItemInfo@@0@Z ; CompoundItemInfoSort1::operator()
  00068	84 c0		 test	 al, al
  0006a	74 19		 je	 SHORT $LN28@Med3

; 3689 : 		_STD iter_swap(_Mid, _First);

  0006c	8b f3		 mov	 esi, ebx
  0006e	8d 7d f4	 lea	 edi, DWORD PTR __Tmp$516672[ebp]
  00071	a5		 movsd
  00072	a5		 movsd
  00073	a5		 movsd
  00074	8b 75 08	 mov	 esi, DWORD PTR __First$[ebp]
  00077	8b fb		 mov	 edi, ebx
  00079	a5		 movsd
  0007a	a5		 movsd
  0007b	a5		 movsd
  0007c	8b 7d 08	 mov	 edi, DWORD PTR __First$[ebp]
  0007f	8d 75 f4	 lea	 esi, DWORD PTR __Tmp$516672[ebp]
  00082	a5		 movsd
  00083	a5		 movsd
  00084	a5		 movsd
$LN28@Med3:
  00085	5f		 pop	 edi
  00086	5e		 pop	 esi
  00087	5b		 pop	 ebx

; 3690 : 	}

  00088	c9		 leave
  00089	c3		 ret	 0
??$_Med3@PAUInvenItemInfo@@VCompoundItemInfoSort1@@@std@@YAXPAUInvenItemInfo@@00VCompoundItemInfoSort1@@@Z ENDP ; std::_Med3<InvenItemInfo *,CompoundItemInfoSort1>
_TEXT	ENDS
PUBLIC	??$_Pop_heap_0@PAUInvenItemInfo@@U1@VCompoundItemInfoSort1@@@std@@YAXPAUInvenItemInfo@@0VCompoundItemInfoSort1@@0@Z ; std::_Pop_heap_0<InvenItemInfo *,InvenItemInfo,CompoundItemInfoSort1>
; Function compile flags: /Ogsp
;	COMDAT ??$_Pop_heap_0@PAUInvenItemInfo@@U1@VCompoundItemInfoSort1@@@std@@YAXPAUInvenItemInfo@@0VCompoundItemInfoSort1@@0@Z
_TEXT	SEGMENT
__Val$ = -12						; size = 12
__First$ = 8						; size = 4
__Last$ = 12						; size = 4
__Pred$ = 16						; size = 1
___formal$ = 20						; size = 4
??$_Pop_heap_0@PAUInvenItemInfo@@U1@VCompoundItemInfoSort1@@@std@@YAXPAUInvenItemInfo@@0VCompoundItemInfoSort1@@0@Z PROC ; std::_Pop_heap_0<InvenItemInfo *,InvenItemInfo,CompoundItemInfoSort1>, COMDAT

; 2601 : 	{	// pop *_First to *(_Last - 1) and reheap, using _Pred

  00000	55		 push	 ebp
  00001	8b ec		 mov	 ebp, esp

; 2602 : 	_Ty _Val = _Move(*(_Last - 1));

  00003	8b 45 0c	 mov	 eax, DWORD PTR __Last$[ebp]
  00006	83 ec 0c	 sub	 esp, 12			; 0000000cH
  00009	56		 push	 esi
  0000a	57		 push	 edi
  0000b	83 c0 f4	 add	 eax, -12		; fffffff4H

; 2603 : 	_Pop_heap(_First, _Last - 1, _Last - 1,
; 2604 : 		_Move(_Val), _Pred, _Dist_type(_First));

  0000e	6a 00		 push	 0
  00010	ff 75 10	 push	 DWORD PTR __Pred$[ebp]
  00013	8b f0		 mov	 esi, eax
  00015	8d 7d f4	 lea	 edi, DWORD PTR __Val$[ebp]
  00018	a5		 movsd
  00019	8d 4d f4	 lea	 ecx, DWORD PTR __Val$[ebp]
  0001c	51		 push	 ecx
  0001d	50		 push	 eax
  0001e	a5		 movsd
  0001f	50		 push	 eax
  00020	ff 75 08	 push	 DWORD PTR __First$[ebp]
  00023	a5		 movsd
  00024	e8 00 00 00 00	 call	 ??$_Pop_heap@PAUInvenItemInfo@@HU1@VCompoundItemInfoSort1@@@std@@YAXPAUInvenItemInfo@@00$$QAU1@VCompoundItemInfoSort1@@PAH@Z ; std::_Pop_heap<InvenItemInfo *,int,InvenItemInfo,CompoundItemInfoSort1>
  00029	83 c4 18	 add	 esp, 24			; 00000018H
  0002c	5f		 pop	 edi
  0002d	5e		 pop	 esi

; 2605 : 	}

  0002e	c9		 leave
  0002f	c3		 ret	 0
??$_Pop_heap_0@PAUInvenItemInfo@@U1@VCompoundItemInfoSort1@@@std@@YAXPAUInvenItemInfo@@0VCompoundItemInfoSort1@@0@Z ENDP ; std::_Pop_heap_0<InvenItemInfo *,InvenItemInfo,CompoundItemInfoSort1>
_TEXT	ENDS
PUBLIC	??$_Cons_val@V?$allocator@UEXTRAITEMSLOT@@@std@@UEXTRAITEMSLOT@@ABU3@@std@@YAXAAV?$allocator@UEXTRAITEMSLOT@@@0@PAUEXTRAITEMSLOT@@ABU2@@Z ; std::_Cons_val<std::allocator<EXTRAITEMSLOT>,EXTRAITEMSLOT,EXTRAITEMSLOT const &>
; Function compile flags: /Ogsp
; File c:\program files (x86)\microsoft visual studio 10.0\vc\include\xmemory
;	COMDAT ??$_Cons_val@V?$allocator@UEXTRAITEMSLOT@@@std@@UEXTRAITEMSLOT@@ABU3@@std@@YAXAAV?$allocator@UEXTRAITEMSLOT@@@0@PAUEXTRAITEMSLOT@@ABU2@@Z
_TEXT	SEGMENT
__Alval$ = 8						; size = 4
__Pdest$ = 12						; size = 4
__Src$ = 16						; size = 4
??$_Cons_val@V?$allocator@UEXTRAITEMSLOT@@@std@@UEXTRAITEMSLOT@@ABU3@@std@@YAXAAV?$allocator@UEXTRAITEMSLOT@@@0@PAUEXTRAITEMSLOT@@ABU2@@Z PROC ; std::_Cons_val<std::allocator<EXTRAITEMSLOT>,EXTRAITEMSLOT,EXTRAITEMSLOT const &>, COMDAT

; 279  : 	{	// construct using allocator

  00000	55		 push	 ebp
  00001	8b ec		 mov	 ebp, esp

; 280  : 	_Alval.construct(_Pdest, _STD forward<_Ty2>(_Src));

  00003	ff 75 10	 push	 DWORD PTR __Src$[ebp]
  00006	ff 75 0c	 push	 DWORD PTR __Pdest$[ebp]
  00009	e8 00 00 00 00	 call	 ??$_Construct@UEXTRAITEMSLOT@@ABU1@@std@@YAXPAUEXTRAITEMSLOT@@ABU1@@Z ; std::_Construct<EXTRAITEMSLOT,EXTRAITEMSLOT const &>
  0000e	59		 pop	 ecx
  0000f	59		 pop	 ecx

; 281  : 	}

  00010	5d		 pop	 ebp
  00011	c3		 ret	 0
??$_Cons_val@V?$allocator@UEXTRAITEMSLOT@@@std@@UEXTRAITEMSLOT@@ABU3@@std@@YAXAAV?$allocator@UEXTRAITEMSLOT@@@0@PAUEXTRAITEMSLOT@@ABU2@@Z ENDP ; std::_Cons_val<std::allocator<EXTRAITEMSLOT>,EXTRAITEMSLOT,EXTRAITEMSLOT const &>
_TEXT	ENDS
PUBLIC	??$_Cons_val@V?$allocator@UNewShopPullDownItem@@@std@@UNewShopPullDownItem@@ABU3@@std@@YAXAAV?$allocator@UNewShopPullDownItem@@@0@PAUNewShopPullDownItem@@ABU2@@Z ; std::_Cons_val<std::allocator<NewShopPullDownItem>,NewShopPullDownItem,NewShopPullDownItem const &>
; Function compile flags: /Ogsp
;	COMDAT ??$_Cons_val@V?$allocator@UNewShopPullDownItem@@@std@@UNewShopPullDownItem@@ABU3@@std@@YAXAAV?$allocator@UNewShopPullDownItem@@@0@PAUNewShopPullDownItem@@ABU2@@Z
_TEXT	SEGMENT
__Alval$ = 8						; size = 4
__Pdest$ = 12						; size = 4
__Src$ = 16						; size = 4
??$_Cons_val@V?$allocator@UNewShopPullDownItem@@@std@@UNewShopPullDownItem@@ABU3@@std@@YAXAAV?$allocator@UNewShopPullDownItem@@@0@PAUNewShopPullDownItem@@ABU2@@Z PROC ; std::_Cons_val<std::allocator<NewShopPullDownItem>,NewShopPullDownItem,NewShopPullDownItem const &>, COMDAT

; 279  : 	{	// construct using allocator

  00000	55		 push	 ebp
  00001	8b ec		 mov	 ebp, esp

; 280  : 	_Alval.construct(_Pdest, _STD forward<_Ty2>(_Src));

  00003	ff 75 10	 push	 DWORD PTR __Src$[ebp]
  00006	ff 75 0c	 push	 DWORD PTR __Pdest$[ebp]
  00009	e8 00 00 00 00	 call	 ??$_Construct@UNewShopPullDownItem@@ABU1@@std@@YAXPAUNewShopPullDownItem@@ABU1@@Z ; std::_Construct<NewShopPullDownItem,NewShopPullDownItem const &>
  0000e	59		 pop	 ecx
  0000f	59		 pop	 ecx

; 281  : 	}

  00010	5d		 pop	 ebp
  00011	c3		 ret	 0
??$_Cons_val@V?$allocator@UNewShopPullDownItem@@@std@@UNewShopPullDownItem@@ABU3@@std@@YAXAAV?$allocator@UNewShopPullDownItem@@@0@PAUNewShopPullDownItem@@ABU2@@Z ENDP ; std::_Cons_val<std::allocator<NewShopPullDownItem>,NewShopPullDownItem,NewShopPullDownItem const &>
_TEXT	ENDS
PUBLIC	??$_Destroy_range@V?$allocator@UInvenItemInfo@@@std@@@std@@YAXPAUInvenItemInfo@@0AAV?$allocator@UInvenItemInfo@@@0@U_Nonscalar_ptr_iterator_tag@0@@Z ; std::_Destroy_range<std::allocator<InvenItemInfo> >
; Function compile flags: /Ogsp
;	COMDAT ??$_Destroy_range@V?$allocator@UInvenItemInfo@@@std@@@std@@YAXPAUInvenItemInfo@@0AAV?$allocator@UInvenItemInfo@@@0@U_Nonscalar_ptr_iterator_tag@0@@Z
_TEXT	SEGMENT
__First$ = 8						; size = 4
__Last$ = 12						; size = 4
__Al$ = 16						; size = 4
___formal$ = 20						; size = 1
??$_Destroy_range@V?$allocator@UInvenItemInfo@@@std@@@std@@YAXPAUInvenItemInfo@@0AAV?$allocator@UInvenItemInfo@@@0@U_Nonscalar_ptr_iterator_tag@0@@Z PROC ; std::_Destroy_range<std::allocator<InvenItemInfo> >, COMDAT

; 96   : 	for (; _First != _Last; ++_First)
; 97   : 		_Dest_val(_Al, _First);
; 98   : 	}

  00000	c3		 ret	 0
??$_Destroy_range@V?$allocator@UInvenItemInfo@@@std@@@std@@YAXPAUInvenItemInfo@@0AAV?$allocator@UInvenItemInfo@@@0@U_Nonscalar_ptr_iterator_tag@0@@Z ENDP ; std::_Destroy_range<std::allocator<InvenItemInfo> >
_TEXT	ENDS
PUBLIC	??$make_heap@PAUInvenItemInfo@@VCompoundItemInfoSort1@@@std@@YAXPAUInvenItemInfo@@0VCompoundItemInfoSort1@@@Z ; std::make_heap<InvenItemInfo *,CompoundItemInfoSort1>
; Function compile flags: /Ogsp
; File c:\program files (x86)\microsoft visual studio 10.0\vc\include\algorithm
;	COMDAT ??$make_heap@PAUInvenItemInfo@@VCompoundItemInfoSort1@@@std@@YAXPAUInvenItemInfo@@0VCompoundItemInfoSort1@@@Z
_TEXT	SEGMENT
__First$ = 8						; size = 4
__Last$ = 12						; size = 4
__Pred$ = 16						; size = 1
??$make_heap@PAUInvenItemInfo@@VCompoundItemInfoSort1@@@std@@YAXPAUInvenItemInfo@@0VCompoundItemInfoSort1@@@Z PROC ; std::make_heap<InvenItemInfo *,CompoundItemInfoSort1>, COMDAT

; 2672 : 	{	// make [_First, _Last) into a heap, using _Pred

  00000	55		 push	 ebp
  00001	8b ec		 mov	 ebp, esp

; 2673 : 	_DEBUG_RANGE(_First, _Last);
; 2674 : 	_DEBUG_POINTER(_Pred);
; 2675 : 	if (1 < _Last - _First)

  00003	8b 45 0c	 mov	 eax, DWORD PTR __Last$[ebp]
  00006	2b 45 08	 sub	 eax, DWORD PTR __First$[ebp]
  00009	6a 0c		 push	 12			; 0000000cH
  0000b	99		 cdq
  0000c	59		 pop	 ecx
  0000d	f7 f9		 idiv	 ecx
  0000f	83 f8 01	 cmp	 eax, 1
  00012	7e 15		 jle	 SHORT $LN1@make_heap

; 2676 : 		_Make_heap(_Unchecked(_First), _Unchecked(_Last), _Pred,
; 2677 : 			_Dist_type(_First), _Val_type(_First));

  00014	6a 00		 push	 0
  00016	6a 00		 push	 0
  00018	ff 75 10	 push	 DWORD PTR __Pred$[ebp]
  0001b	ff 75 0c	 push	 DWORD PTR __Last$[ebp]
  0001e	ff 75 08	 push	 DWORD PTR __First$[ebp]
  00021	e8 00 00 00 00	 call	 ??$_Make_heap@PAUInvenItemInfo@@HU1@VCompoundItemInfoSort1@@@std@@YAXPAUInvenItemInfo@@0VCompoundItemInfoSort1@@PAH0@Z ; std::_Make_heap<InvenItemInfo *,int,InvenItemInfo,CompoundItemInfoSort1>
  00026	83 c4 14	 add	 esp, 20			; 00000014H
$LN1@make_heap:

; 2678 : 	}

  00029	5d		 pop	 ebp
  0002a	c3		 ret	 0
??$make_heap@PAUInvenItemInfo@@VCompoundItemInfoSort1@@@std@@YAXPAUInvenItemInfo@@0VCompoundItemInfoSort1@@@Z ENDP ; std::make_heap<InvenItemInfo *,CompoundItemInfoSort1>
_TEXT	ENDS
PUBLIC	??$_Insertion_sort@PAUInvenItemInfo@@VCompoundItemInfoSort1@@@std@@YAXPAUInvenItemInfo@@0VCompoundItemInfoSort1@@@Z ; std::_Insertion_sort<InvenItemInfo *,CompoundItemInfoSort1>
; Function compile flags: /Ogsp
;	COMDAT ??$_Insertion_sort@PAUInvenItemInfo@@VCompoundItemInfoSort1@@@std@@YAXPAUInvenItemInfo@@0VCompoundItemInfoSort1@@@Z
_TEXT	SEGMENT
__First$ = 8						; size = 4
__Last$ = 12						; size = 4
__Pred$ = 16						; size = 1
??$_Insertion_sort@PAUInvenItemInfo@@VCompoundItemInfoSort1@@@std@@YAXPAUInvenItemInfo@@0VCompoundItemInfoSort1@@@Z PROC ; std::_Insertion_sort<InvenItemInfo *,CompoundItemInfoSort1>, COMDAT

; 3676 : 	{	// insertion sort [_First, _Last), using _Pred

  00000	55		 push	 ebp
  00001	8b ec		 mov	 ebp, esp

; 3677 : 	_Insertion_sort1(_First, _Last, _Pred, _Val_type(_First));

  00003	6a 00		 push	 0
  00005	ff 75 10	 push	 DWORD PTR __Pred$[ebp]
  00008	ff 75 0c	 push	 DWORD PTR __Last$[ebp]
  0000b	ff 75 08	 push	 DWORD PTR __First$[ebp]
  0000e	e8 00 00 00 00	 call	 ??$_Insertion_sort1@PAUInvenItemInfo@@VCompoundItemInfoSort1@@U1@@std@@YAXPAUInvenItemInfo@@0VCompoundItemInfoSort1@@0@Z ; std::_Insertion_sort1<InvenItemInfo *,CompoundItemInfoSort1,InvenItemInfo>
  00013	83 c4 10	 add	 esp, 16			; 00000010H

; 3678 : 	}

  00016	5d		 pop	 ebp
  00017	c3		 ret	 0
??$_Insertion_sort@PAUInvenItemInfo@@VCompoundItemInfoSort1@@@std@@YAXPAUInvenItemInfo@@0VCompoundItemInfoSort1@@@Z ENDP ; std::_Insertion_sort<InvenItemInfo *,CompoundItemInfoSort1>
_TEXT	ENDS
PUBLIC	??$_Dest_val@V?$allocator@UEXTRAITEMSLOT@@@std@@UEXTRAITEMSLOT@@@std@@YAXAAV?$allocator@UEXTRAITEMSLOT@@@0@PAUEXTRAITEMSLOT@@@Z ; std::_Dest_val<std::allocator<EXTRAITEMSLOT>,EXTRAITEMSLOT>
; Function compile flags: /Ogsp
; File c:\program files (x86)\microsoft visual studio 10.0\vc\include\xmemory
;	COMDAT ??$_Dest_val@V?$allocator@UEXTRAITEMSLOT@@@std@@UEXTRAITEMSLOT@@@std@@YAXAAV?$allocator@UEXTRAITEMSLOT@@@0@PAUEXTRAITEMSLOT@@@Z
_TEXT	SEGMENT
__Alval$ = 8						; size = 4
__Pdest$ = 12						; size = 4
??$_Dest_val@V?$allocator@UEXTRAITEMSLOT@@@std@@UEXTRAITEMSLOT@@@std@@YAXAAV?$allocator@UEXTRAITEMSLOT@@@0@PAUEXTRAITEMSLOT@@@Z PROC ; std::_Dest_val<std::allocator<EXTRAITEMSLOT>,EXTRAITEMSLOT>, COMDAT

; 286  : 	{	// destroy using allocator

  00000	55		 push	 ebp
  00001	8b ec		 mov	 ebp, esp

; 287  : 	_Alval.destroy(_Pdest);

  00003	8b 4d 0c	 mov	 ecx, DWORD PTR __Pdest$[ebp]

; 288  : 	}

  00006	5d		 pop	 ebp

; 287  : 	_Alval.destroy(_Pdest);

  00007	e9 00 00 00 00	 jmp	 ??1EXTRAITEMSLOT@@QAE@XZ
??$_Dest_val@V?$allocator@UEXTRAITEMSLOT@@@std@@UEXTRAITEMSLOT@@@std@@YAXAAV?$allocator@UEXTRAITEMSLOT@@@0@PAUEXTRAITEMSLOT@@@Z ENDP ; std::_Dest_val<std::allocator<EXTRAITEMSLOT>,EXTRAITEMSLOT>
_TEXT	ENDS
PUBLIC	??$_Dest_val@V?$allocator@UNewShopPullDownItem@@@std@@UNewShopPullDownItem@@@std@@YAXAAV?$allocator@UNewShopPullDownItem@@@0@PAUNewShopPullDownItem@@@Z ; std::_Dest_val<std::allocator<NewShopPullDownItem>,NewShopPullDownItem>
; Function compile flags: /Ogsp
;	COMDAT ??$_Dest_val@V?$allocator@UNewShopPullDownItem@@@std@@UNewShopPullDownItem@@@std@@YAXAAV?$allocator@UNewShopPullDownItem@@@0@PAUNewShopPullDownItem@@@Z
_TEXT	SEGMENT
__Alval$ = 8						; size = 4
__Pdest$ = 12						; size = 4
??$_Dest_val@V?$allocator@UNewShopPullDownItem@@@std@@UNewShopPullDownItem@@@std@@YAXAAV?$allocator@UNewShopPullDownItem@@@0@PAUNewShopPullDownItem@@@Z PROC ; std::_Dest_val<std::allocator<NewShopPullDownItem>,NewShopPullDownItem>, COMDAT

; 286  : 	{	// destroy using allocator

  00000	55		 push	 ebp
  00001	8b ec		 mov	 ebp, esp

; 287  : 	_Alval.destroy(_Pdest);

  00003	8b 4d 0c	 mov	 ecx, DWORD PTR __Pdest$[ebp]

; 288  : 	}

  00006	5d		 pop	 ebp

; 287  : 	_Alval.destroy(_Pdest);

  00007	e9 00 00 00 00	 jmp	 ??1NewShopPullDownItem@@QAE@XZ
??$_Dest_val@V?$allocator@UNewShopPullDownItem@@@std@@UNewShopPullDownItem@@@std@@YAXAAV?$allocator@UNewShopPullDownItem@@@0@PAUNewShopPullDownItem@@@Z ENDP ; std::_Dest_val<std::allocator<NewShopPullDownItem>,NewShopPullDownItem>
_TEXT	ENDS
PUBLIC	??$_Uninit_move@PAUInvenItemInfo@@PAU1@V?$allocator@UInvenItemInfo@@@std@@U1@@std@@YAPAUInvenItemInfo@@PAU1@00AAV?$allocator@UInvenItemInfo@@@0@0U_Nonscalar_ptr_iterator_tag@0@@Z ; std::_Uninit_move<InvenItemInfo *,InvenItemInfo *,std::allocator<InvenItemInfo>,InvenItemInfo>
; Function compile flags: /Ogsp
; File c:\program files (x86)\microsoft visual studio 10.0\vc\include\memory
;	COMDAT ??$_Uninit_move@PAUInvenItemInfo@@PAU1@V?$allocator@UInvenItemInfo@@@std@@U1@@std@@YAPAUInvenItemInfo@@PAU1@00AAV?$allocator@UInvenItemInfo@@@0@0U_Nonscalar_ptr_iterator_tag@0@@Z
_TEXT	SEGMENT
__First$ = 8						; size = 4
__Last$ = 12						; size = 4
__Dest$ = 16						; size = 4
__Al$ = 20						; size = 4
___formal$ = 24						; size = 4
___formal$ = 28						; size = 1
??$_Uninit_move@PAUInvenItemInfo@@PAU1@V?$allocator@UInvenItemInfo@@@std@@U1@@std@@YAPAUInvenItemInfo@@PAU1@00AAV?$allocator@UInvenItemInfo@@@0@0U_Nonscalar_ptr_iterator_tag@0@@Z PROC ; std::_Uninit_move<InvenItemInfo *,InvenItemInfo *,std::allocator<InvenItemInfo>,InvenItemInfo>, COMDAT

; 424  : 	{	// move [_First, _Last) to raw _Dest, using _Al, arbitrary type

  00000	55		 push	 ebp
  00001	8b ec		 mov	 ebp, esp
  00003	56		 push	 esi

; 425  : 	_DEBUG_RANGE(_First, _Last);
; 426  : 	_DEBUG_POINTER(_Dest);
; 427  : 	_FwdIt _Next = _Dest;
; 428  : 
; 429  : 	_TRY_BEGIN
; 430  : 	for (; _First != _Last; ++_Dest, ++_First)

  00004	8b 75 08	 mov	 esi, DWORD PTR __First$[ebp]
  00007	eb 16		 jmp	 SHORT $LN24@Uninit_mov
$LL6@Uninit_mov:

; 431  : 		_Cons_val(_Al, _Dest, (_Valty &&)*_First);

  00009	56		 push	 esi
  0000a	ff 75 10	 push	 DWORD PTR __Dest$[ebp]
  0000d	ff 75 14	 push	 DWORD PTR __Al$[ebp]
  00010	e8 00 00 00 00	 call	 ??$_Cons_val@V?$allocator@UInvenItemInfo@@@std@@UInvenItemInfo@@U3@@std@@YAXAAV?$allocator@UInvenItemInfo@@@0@PAUInvenItemInfo@@$$QAU2@@Z ; std::_Cons_val<std::allocator<InvenItemInfo>,InvenItemInfo,InvenItemInfo>
  00015	83 45 10 0c	 add	 DWORD PTR __Dest$[ebp], 12 ; 0000000cH
  00019	83 c4 0c	 add	 esp, 12			; 0000000cH
  0001c	83 c6 0c	 add	 esi, 12			; 0000000cH
$LN24@Uninit_mov:

; 425  : 	_DEBUG_RANGE(_First, _Last);
; 426  : 	_DEBUG_POINTER(_Dest);
; 427  : 	_FwdIt _Next = _Dest;
; 428  : 
; 429  : 	_TRY_BEGIN
; 430  : 	for (; _First != _Last; ++_Dest, ++_First)

  0001f	3b 75 0c	 cmp	 esi, DWORD PTR __Last$[ebp]
  00022	75 e5		 jne	 SHORT $LL6@Uninit_mov

; 432  : 	_CATCH_ALL
; 433  : 	for (; _Next != _Dest; ++_Next)
; 434  : 		_Dest_val(_Al, _Next);
; 435  : 	_RERAISE;
; 436  : 	_CATCH_END
; 437  : 	return (_Dest);

  00024	8b 45 10	 mov	 eax, DWORD PTR __Dest$[ebp]
  00027	5e		 pop	 esi

; 438  : 	}

  00028	5d		 pop	 ebp
  00029	c3		 ret	 0
??$_Uninit_move@PAUInvenItemInfo@@PAU1@V?$allocator@UInvenItemInfo@@@std@@U1@@std@@YAPAUInvenItemInfo@@PAU1@00AAV?$allocator@UInvenItemInfo@@@0@0U_Nonscalar_ptr_iterator_tag@0@@Z ENDP ; std::_Uninit_move<InvenItemInfo *,InvenItemInfo *,std::allocator<InvenItemInfo>,InvenItemInfo>
_TEXT	ENDS
PUBLIC	??$_Median@PAUInvenItemInfo@@VCompoundItemInfoSort1@@@std@@YAXPAUInvenItemInfo@@00VCompoundItemInfoSort1@@@Z ; std::_Median<InvenItemInfo *,CompoundItemInfoSort1>
; Function compile flags: /Ogsp
; File c:\program files (x86)\microsoft visual studio 10.0\vc\include\algorithm
;	COMDAT ??$_Median@PAUInvenItemInfo@@VCompoundItemInfoSort1@@@std@@YAXPAUInvenItemInfo@@00VCompoundItemInfoSort1@@@Z
_TEXT	SEGMENT
tv200 = 8						; size = 4
__First$ = 8						; size = 4
__Mid$ = 12						; size = 4
tv203 = 16						; size = 4
__Last$ = 16						; size = 4
__Pred$ = 20						; size = 1
??$_Median@PAUInvenItemInfo@@VCompoundItemInfoSort1@@@std@@YAXPAUInvenItemInfo@@00VCompoundItemInfoSort1@@@Z PROC ; std::_Median<InvenItemInfo *,CompoundItemInfoSort1>, COMDAT

; 3695 : 	{	// sort median element to middle

  00000	55		 push	 ebp
  00001	8b ec		 mov	 ebp, esp

; 3696 : 	if (40 < _Last - _First)

  00003	8b 4d 08	 mov	 ecx, DWORD PTR __First$[ebp]
  00006	53		 push	 ebx
  00007	8b 5d 10	 mov	 ebx, DWORD PTR __Last$[ebp]
  0000a	56		 push	 esi
  0000b	8b c3		 mov	 eax, ebx
  0000d	2b c1		 sub	 eax, ecx
  0000f	6a 0c		 push	 12			; 0000000cH
  00011	99		 cdq
  00012	5e		 pop	 esi
  00013	f7 fe		 idiv	 esi
  00015	83 f8 28	 cmp	 eax, 40			; 00000028H
  00018	7e 68		 jle	 SHORT $LN2@Median

; 3697 : 		{	// median of nine
; 3698 : 		size_t _Step = (_Last - _First + 1) / 8;

  0001a	40		 inc	 eax
  0001b	99		 cdq
  0001c	83 e2 07	 and	 edx, 7
  0001f	03 c2		 add	 eax, edx
  00021	57		 push	 edi

; 3699 : 		_Med3(_First, _First + _Step, _First + 2 * _Step, _Pred);

  00022	ff 75 14	 push	 DWORD PTR __Pred$[ebp]
  00025	c1 f8 03	 sar	 eax, 3
  00028	8b f8		 mov	 edi, eax
  0002a	8b f0		 mov	 esi, eax
  0002c	6b ff 18	 imul	 edi, 24			; 00000018H
  0002f	6b f6 0c	 imul	 esi, 12			; 0000000cH
  00032	8d 14 0f	 lea	 edx, DWORD PTR [edi+ecx]
  00035	8d 04 0e	 lea	 eax, DWORD PTR [esi+ecx]
  00038	52		 push	 edx
  00039	50		 push	 eax
  0003a	51		 push	 ecx
  0003b	89 45 08	 mov	 DWORD PTR tv200[ebp], eax
  0003e	e8 00 00 00 00	 call	 ??$_Med3@PAUInvenItemInfo@@VCompoundItemInfoSort1@@@std@@YAXPAUInvenItemInfo@@00VCompoundItemInfoSort1@@@Z ; std::_Med3<InvenItemInfo *,CompoundItemInfoSort1>

; 3700 : 		_Med3(_Mid - _Step, _Mid, _Mid + _Step, _Pred);

  00043	8b 45 0c	 mov	 eax, DWORD PTR __Mid$[ebp]
  00046	ff 75 14	 push	 DWORD PTR __Pred$[ebp]
  00049	8d 0c 06	 lea	 ecx, DWORD PTR [esi+eax]
  0004c	51		 push	 ecx
  0004d	50		 push	 eax
  0004e	2b c6		 sub	 eax, esi
  00050	50		 push	 eax
  00051	e8 00 00 00 00	 call	 ??$_Med3@PAUInvenItemInfo@@VCompoundItemInfoSort1@@@std@@YAXPAUInvenItemInfo@@00VCompoundItemInfoSort1@@@Z ; std::_Med3<InvenItemInfo *,CompoundItemInfoSort1>

; 3701 : 		_Med3(_Last - 2 * _Step, _Last - _Step, _Last, _Pred);

  00056	ff 75 14	 push	 DWORD PTR __Pred$[ebp]
  00059	89 5d 10	 mov	 DWORD PTR tv203[ebp], ebx
  0005c	29 75 10	 sub	 DWORD PTR tv203[ebp], esi
  0005f	53		 push	 ebx
  00060	ff 75 10	 push	 DWORD PTR tv203[ebp]
  00063	2b df		 sub	 ebx, edi
  00065	53		 push	 ebx
  00066	e8 00 00 00 00	 call	 ??$_Med3@PAUInvenItemInfo@@VCompoundItemInfoSort1@@@std@@YAXPAUInvenItemInfo@@00VCompoundItemInfoSort1@@@Z ; std::_Med3<InvenItemInfo *,CompoundItemInfoSort1>

; 3702 : 		_Med3(_First + _Step, _Mid, _Last - _Step, _Pred);

  0006b	ff 75 14	 push	 DWORD PTR __Pred$[ebp]
  0006e	ff 75 10	 push	 DWORD PTR tv203[ebp]
  00071	ff 75 0c	 push	 DWORD PTR __Mid$[ebp]
  00074	ff 75 08	 push	 DWORD PTR tv200[ebp]
  00077	e8 00 00 00 00	 call	 ??$_Med3@PAUInvenItemInfo@@VCompoundItemInfoSort1@@@std@@YAXPAUInvenItemInfo@@00VCompoundItemInfoSort1@@@Z ; std::_Med3<InvenItemInfo *,CompoundItemInfoSort1>
  0007c	83 c4 40	 add	 esp, 64			; 00000040H
  0007f	5f		 pop	 edi

; 3703 : 		}
; 3704 : 	else

  00080	eb 10		 jmp	 SHORT $LN1@Median
$LN2@Median:

; 3705 : 		_Med3(_First, _Mid, _Last, _Pred);

  00082	ff 75 14	 push	 DWORD PTR __Pred$[ebp]
  00085	53		 push	 ebx
  00086	ff 75 0c	 push	 DWORD PTR __Mid$[ebp]
  00089	51		 push	 ecx
  0008a	e8 00 00 00 00	 call	 ??$_Med3@PAUInvenItemInfo@@VCompoundItemInfoSort1@@@std@@YAXPAUInvenItemInfo@@00VCompoundItemInfoSort1@@@Z ; std::_Med3<InvenItemInfo *,CompoundItemInfoSort1>
  0008f	83 c4 10	 add	 esp, 16			; 00000010H
$LN1@Median:
  00092	5e		 pop	 esi
  00093	5b		 pop	 ebx

; 3706 : 	}

  00094	5d		 pop	 ebp
  00095	c3		 ret	 0
??$_Median@PAUInvenItemInfo@@VCompoundItemInfoSort1@@@std@@YAXPAUInvenItemInfo@@00VCompoundItemInfoSort1@@@Z ENDP ; std::_Median<InvenItemInfo *,CompoundItemInfoSort1>
_TEXT	ENDS
PUBLIC	??$_Pop_heap@PAUInvenItemInfo@@VCompoundItemInfoSort1@@@std@@YAXPAUInvenItemInfo@@0VCompoundItemInfoSort1@@@Z ; std::_Pop_heap<InvenItemInfo *,CompoundItemInfoSort1>
; Function compile flags: /Ogsp
;	COMDAT ??$_Pop_heap@PAUInvenItemInfo@@VCompoundItemInfoSort1@@@std@@YAXPAUInvenItemInfo@@0VCompoundItemInfoSort1@@@Z
_TEXT	SEGMENT
__First$ = 8						; size = 4
__Last$ = 12						; size = 4
__Pred$ = 16						; size = 1
??$_Pop_heap@PAUInvenItemInfo@@VCompoundItemInfoSort1@@@std@@YAXPAUInvenItemInfo@@0VCompoundItemInfoSort1@@@Z PROC ; std::_Pop_heap<InvenItemInfo *,CompoundItemInfoSort1>, COMDAT

; 2610 : 	{	// pop *_First to *(_Last - 1) and reheap, using _Pred

  00000	55		 push	 ebp
  00001	8b ec		 mov	 ebp, esp

; 2611 : 	_Pop_heap_0(_Unchecked(_First), _Unchecked(_Last), _Pred,
; 2612 : 		_Val_type(_First));

  00003	6a 00		 push	 0
  00005	ff 75 10	 push	 DWORD PTR __Pred$[ebp]
  00008	ff 75 0c	 push	 DWORD PTR __Last$[ebp]
  0000b	ff 75 08	 push	 DWORD PTR __First$[ebp]
  0000e	e8 00 00 00 00	 call	 ??$_Pop_heap_0@PAUInvenItemInfo@@U1@VCompoundItemInfoSort1@@@std@@YAXPAUInvenItemInfo@@0VCompoundItemInfoSort1@@0@Z ; std::_Pop_heap_0<InvenItemInfo *,InvenItemInfo,CompoundItemInfoSort1>
  00013	83 c4 10	 add	 esp, 16			; 00000010H

; 2613 : 	}

  00016	5d		 pop	 ebp
  00017	c3		 ret	 0
??$_Pop_heap@PAUInvenItemInfo@@VCompoundItemInfoSort1@@@std@@YAXPAUInvenItemInfo@@0VCompoundItemInfoSort1@@@Z ENDP ; std::_Pop_heap<InvenItemInfo *,CompoundItemInfoSort1>
_TEXT	ENDS
PUBLIC	??$_Destroy_range@V?$allocator@UInvenItemInfo@@@std@@@std@@YAXPAUInvenItemInfo@@0AAV?$allocator@UInvenItemInfo@@@0@@Z ; std::_Destroy_range<std::allocator<InvenItemInfo> >
; Function compile flags: /Ogsp
; File c:\program files (x86)\microsoft visual studio 10.0\vc\include\xmemory
;	COMDAT ??$_Destroy_range@V?$allocator@UInvenItemInfo@@@std@@@std@@YAXPAUInvenItemInfo@@0AAV?$allocator@UInvenItemInfo@@@0@@Z
_TEXT	SEGMENT
__First$ = 8						; size = 4
__Last$ = 12						; size = 4
__Al$ = 16						; size = 4
??$_Destroy_range@V?$allocator@UInvenItemInfo@@@std@@@std@@YAXPAUInvenItemInfo@@0AAV?$allocator@UInvenItemInfo@@@0@@Z PROC ; std::_Destroy_range<std::allocator<InvenItemInfo> >, COMDAT

; 88   : 	_Destroy_range(_First, _Last, _Al, _Ptr_cat(_First, _Last));
; 89   : 	}

  00000	c3		 ret	 0
??$_Destroy_range@V?$allocator@UInvenItemInfo@@@std@@@std@@YAXPAUInvenItemInfo@@0AAV?$allocator@UInvenItemInfo@@@0@@Z ENDP ; std::_Destroy_range<std::allocator<InvenItemInfo> >
_TEXT	ENDS
PUBLIC	??$_Destroy_range@V?$allocator@UEXTRAITEMSLOT@@@std@@@std@@YAXPAUEXTRAITEMSLOT@@0AAV?$allocator@UEXTRAITEMSLOT@@@0@U_Nonscalar_ptr_iterator_tag@0@@Z ; std::_Destroy_range<std::allocator<EXTRAITEMSLOT> >
; Function compile flags: /Ogsp
;	COMDAT ??$_Destroy_range@V?$allocator@UEXTRAITEMSLOT@@@std@@@std@@YAXPAUEXTRAITEMSLOT@@0AAV?$allocator@UEXTRAITEMSLOT@@@0@U_Nonscalar_ptr_iterator_tag@0@@Z
_TEXT	SEGMENT
__First$ = 8						; size = 4
__Last$ = 12						; size = 4
__Al$ = 16						; size = 4
___formal$ = 20						; size = 1
??$_Destroy_range@V?$allocator@UEXTRAITEMSLOT@@@std@@@std@@YAXPAUEXTRAITEMSLOT@@0AAV?$allocator@UEXTRAITEMSLOT@@@0@U_Nonscalar_ptr_iterator_tag@0@@Z PROC ; std::_Destroy_range<std::allocator<EXTRAITEMSLOT> >, COMDAT

; 95   : 	{	// destroy [_First, _Last), arbitrary type

  00000	55		 push	 ebp
  00001	8b ec		 mov	 ebp, esp
  00003	56		 push	 esi

; 96   : 	for (; _First != _Last; ++_First)

  00004	8b 75 08	 mov	 esi, DWORD PTR __First$[ebp]
  00007	eb 0a		 jmp	 SHORT $LN17@Destroy_ra
$LL3@Destroy_ra:

; 97   : 		_Dest_val(_Al, _First);

  00009	8b ce		 mov	 ecx, esi
  0000b	e8 00 00 00 00	 call	 ??1EXTRAITEMSLOT@@QAE@XZ
  00010	83 c6 48	 add	 esi, 72			; 00000048H
$LN17@Destroy_ra:

; 96   : 	for (; _First != _Last; ++_First)

  00013	3b 75 0c	 cmp	 esi, DWORD PTR __Last$[ebp]
  00016	75 f1		 jne	 SHORT $LL3@Destroy_ra
  00018	5e		 pop	 esi

; 98   : 	}

  00019	5d		 pop	 ebp
  0001a	c3		 ret	 0
??$_Destroy_range@V?$allocator@UEXTRAITEMSLOT@@@std@@@std@@YAXPAUEXTRAITEMSLOT@@0AAV?$allocator@UEXTRAITEMSLOT@@@0@U_Nonscalar_ptr_iterator_tag@0@@Z ENDP ; std::_Destroy_range<std::allocator<EXTRAITEMSLOT> >
_TEXT	ENDS
PUBLIC	??$_Destroy_range@V?$allocator@UNewShopPullDownItem@@@std@@@std@@YAXPAUNewShopPullDownItem@@0AAV?$allocator@UNewShopPullDownItem@@@0@U_Nonscalar_ptr_iterator_tag@0@@Z ; std::_Destroy_range<std::allocator<NewShopPullDownItem> >
; Function compile flags: /Ogsp
;	COMDAT ??$_Destroy_range@V?$allocator@UNewShopPullDownItem@@@std@@@std@@YAXPAUNewShopPullDownItem@@0AAV?$allocator@UNewShopPullDownItem@@@0@U_Nonscalar_ptr_iterator_tag@0@@Z
_TEXT	SEGMENT
__First$ = 8						; size = 4
__Last$ = 12						; size = 4
__Al$ = 16						; size = 4
___formal$ = 20						; size = 1
??$_Destroy_range@V?$allocator@UNewShopPullDownItem@@@std@@@std@@YAXPAUNewShopPullDownItem@@0AAV?$allocator@UNewShopPullDownItem@@@0@U_Nonscalar_ptr_iterator_tag@0@@Z PROC ; std::_Destroy_range<std::allocator<NewShopPullDownItem> >, COMDAT

; 95   : 	{	// destroy [_First, _Last), arbitrary type

  00000	55		 push	 ebp
  00001	8b ec		 mov	 ebp, esp
  00003	56		 push	 esi

; 96   : 	for (; _First != _Last; ++_First)

  00004	8b 75 08	 mov	 esi, DWORD PTR __First$[ebp]
  00007	eb 0a		 jmp	 SHORT $LN17@Destroy_ra@2
$LL3@Destroy_ra@2:

; 97   : 		_Dest_val(_Al, _First);

  00009	8b ce		 mov	 ecx, esi
  0000b	e8 00 00 00 00	 call	 ??1NewShopPullDownItem@@QAE@XZ
  00010	83 c6 50	 add	 esi, 80			; 00000050H
$LN17@Destroy_ra@2:

; 96   : 	for (; _First != _Last; ++_First)

  00013	3b 75 0c	 cmp	 esi, DWORD PTR __Last$[ebp]
  00016	75 f1		 jne	 SHORT $LL3@Destroy_ra@2
  00018	5e		 pop	 esi

; 98   : 	}

  00019	5d		 pop	 ebp
  0001a	c3		 ret	 0
??$_Destroy_range@V?$allocator@UNewShopPullDownItem@@@std@@@std@@YAXPAUNewShopPullDownItem@@0AAV?$allocator@UNewShopPullDownItem@@@0@U_Nonscalar_ptr_iterator_tag@0@@Z ENDP ; std::_Destroy_range<std::allocator<NewShopPullDownItem> >
_TEXT	ENDS
PUBLIC	??$_Uninitialized_move@PAUInvenItemInfo@@PAU1@V?$allocator@UInvenItemInfo@@@std@@@std@@YAPAUInvenItemInfo@@PAU1@00AAV?$allocator@UInvenItemInfo@@@0@@Z ; std::_Uninitialized_move<InvenItemInfo *,InvenItemInfo *,std::allocator<InvenItemInfo> >
; Function compile flags: /Ogsp
; File c:\program files (x86)\microsoft visual studio 10.0\vc\include\memory
;	COMDAT ??$_Uninitialized_move@PAUInvenItemInfo@@PAU1@V?$allocator@UInvenItemInfo@@@std@@@std@@YAPAUInvenItemInfo@@PAU1@00AAV?$allocator@UInvenItemInfo@@@0@@Z
_TEXT	SEGMENT
__Cat$516940 = -4					; size = 1
__First$ = 8						; size = 4
__Last$ = 12						; size = 4
__Dest$ = 16						; size = 4
__Al$ = 20						; size = 4
??$_Uninitialized_move@PAUInvenItemInfo@@PAU1@V?$allocator@UInvenItemInfo@@@std@@@std@@YAPAUInvenItemInfo@@PAU1@00AAV?$allocator@UInvenItemInfo@@@0@@Z PROC ; std::_Uninitialized_move<InvenItemInfo *,InvenItemInfo *,std::allocator<InvenItemInfo> >, COMDAT

; 469  : 	{	// move [_First, _Last) to raw _Dest, using _Al

  00000	55		 push	 ebp
  00001	8b ec		 mov	 ebp, esp
  00003	51		 push	 ecx

; 470  : 	return (_Uninit_move(_First, _Last, _Dest, _Al,
; 471  : 		_Val_type(_First), _Ptr_cat(_First, _Dest)));

  00004	ff 75 fc	 push	 DWORD PTR __Cat$516940[ebp]
  00007	6a 00		 push	 0
  00009	ff 75 14	 push	 DWORD PTR __Al$[ebp]
  0000c	ff 75 10	 push	 DWORD PTR __Dest$[ebp]
  0000f	ff 75 0c	 push	 DWORD PTR __Last$[ebp]
  00012	ff 75 08	 push	 DWORD PTR __First$[ebp]
  00015	e8 00 00 00 00	 call	 ??$_Uninit_move@PAUInvenItemInfo@@PAU1@V?$allocator@UInvenItemInfo@@@std@@U1@@std@@YAPAUInvenItemInfo@@PAU1@00AAV?$allocator@UInvenItemInfo@@@0@0U_Nonscalar_ptr_iterator_tag@0@@Z ; std::_Uninit_move<InvenItemInfo *,InvenItemInfo *,std::allocator<InvenItemInfo>,InvenItemInfo>
  0001a	83 c4 18	 add	 esp, 24			; 00000018H

; 472  : 	}

  0001d	c9		 leave
  0001e	c3		 ret	 0
??$_Uninitialized_move@PAUInvenItemInfo@@PAU1@V?$allocator@UInvenItemInfo@@@std@@@std@@YAPAUInvenItemInfo@@PAU1@00AAV?$allocator@UInvenItemInfo@@@0@@Z ENDP ; std::_Uninitialized_move<InvenItemInfo *,InvenItemInfo *,std::allocator<InvenItemInfo> >
_TEXT	ENDS
PUBLIC	??$_Unguarded_partition@PAUInvenItemInfo@@VCompoundItemInfoSort1@@@std@@YA?AU?$pair@PAUInvenItemInfo@@PAU1@@0@PAUInvenItemInfo@@0VCompoundItemInfoSort1@@@Z ; std::_Unguarded_partition<InvenItemInfo *,CompoundItemInfoSort1>
; Function compile flags: /Ogsp
; File c:\program files (x86)\microsoft visual studio 10.0\vc\include\algorithm
;	COMDAT ??$_Unguarded_partition@PAUInvenItemInfo@@VCompoundItemInfoSort1@@@std@@YA?AU?$pair@PAUInvenItemInfo@@PAU1@@0@PAUInvenItemInfo@@0VCompoundItemInfoSort1@@@Z
_TEXT	SEGMENT
__Tmp$517204 = -100					; size = 12
__Tmp$517171 = -88					; size = 12
__Tmp$517132 = -76					; size = 12
__Tmp$517100 = -64					; size = 12
__Tmp$517067 = -52					; size = 12
__Tmp$517002 = -40					; size = 12
__Tmp$516970 = -28					; size = 12
tv470 = -16						; size = 4
__Plast$ = -12						; size = 4
__Glast$ = -8						; size = 4
__Gfirst$ = -4						; size = 4
___$ReturnUdt$ = 8					; size = 4
__First$ = 12						; size = 4
__Last$ = 16						; size = 4
__Pred$ = 20						; size = 1
??$_Unguarded_partition@PAUInvenItemInfo@@VCompoundItemInfoSort1@@@std@@YA?AU?$pair@PAUInvenItemInfo@@PAU1@@0@PAUInvenItemInfo@@0VCompoundItemInfoSort1@@@Z PROC ; std::_Unguarded_partition<InvenItemInfo *,CompoundItemInfoSort1>, COMDAT

; 3712 : 	{	// partition [_First, _Last), using _Pred

  00000	55		 push	 ebp
  00001	8b ec		 mov	 ebp, esp
  00003	83 ec 64	 sub	 esp, 100		; 00000064H

; 3713 : 	_RanIt _Mid = _First + (_Last - _First) / 2;

  00006	8b 4d 10	 mov	 ecx, DWORD PTR __Last$[ebp]
  00009	53		 push	 ebx
  0000a	56		 push	 esi
  0000b	57		 push	 edi
  0000c	8b c1		 mov	 eax, ecx
  0000e	2b 45 0c	 sub	 eax, DWORD PTR __First$[ebp]
  00011	6a 0c		 push	 12			; 0000000cH
  00013	5e		 pop	 esi
  00014	99		 cdq
  00015	f7 fe		 idiv	 esi

; 3714 : 	_Median(_First, _Mid, _Last - 1, _Pred);

  00017	ff 75 14	 push	 DWORD PTR __Pred$[ebp]
  0001a	83 c1 f4	 add	 ecx, -12		; fffffff4H
  0001d	51		 push	 ecx
  0001e	99		 cdq
  0001f	2b c2		 sub	 eax, edx
  00021	8b f0		 mov	 esi, eax
  00023	d1 fe		 sar	 esi, 1
  00025	6b f6 0c	 imul	 esi, 12			; 0000000cH
  00028	03 75 0c	 add	 esi, DWORD PTR __First$[ebp]
  0002b	56		 push	 esi
  0002c	ff 75 0c	 push	 DWORD PTR __First$[ebp]
  0002f	e8 00 00 00 00	 call	 ??$_Median@PAUInvenItemInfo@@VCompoundItemInfoSort1@@@std@@YAXPAUInvenItemInfo@@00VCompoundItemInfoSort1@@@Z ; std::_Median<InvenItemInfo *,CompoundItemInfoSort1>
  00034	83 c4 10	 add	 esp, 16			; 00000010H

; 3715 : 	_RanIt _Pfirst = _Mid;
; 3716 : 	_RanIt _Plast = _Pfirst + 1;

  00037	8d 7e 0c	 lea	 edi, DWORD PTR [esi+12]
  0003a	8b de		 mov	 ebx, esi
  0003c	89 7d f4	 mov	 DWORD PTR __Plast$[ebp], edi

; 3717 : 
; 3718 : 	while (_First < _Pfirst
; 3719 : 		&& !_DEBUG_LT_PRED(_Pred, *(_Pfirst - 1), *_Pfirst)
; 3720 : 		&& !_Pred(*_Pfirst, *(_Pfirst - 1)))

  0003f	39 75 0c	 cmp	 DWORD PTR __First$[ebp], esi
  00042	73 4a		 jae	 SHORT $LN128@Unguarded_
$LL27@Unguarded_:
  00044	53		 push	 ebx
  00045	8d 73 f4	 lea	 esi, DWORD PTR [ebx-12]
  00048	56		 push	 esi
  00049	8d 4d 14	 lea	 ecx, DWORD PTR __Pred$[ebp]
  0004c	e8 00 00 00 00	 call	 ??RCompoundItemInfoSort1@@QBE_NABUInvenItemInfo@@0@Z ; CompoundItemInfoSort1::operator()
  00051	84 c0		 test	 al, al
  00053	75 39		 jne	 SHORT $LN128@Unguarded_
  00055	56		 push	 esi
  00056	53		 push	 ebx
  00057	8d 4d 14	 lea	 ecx, DWORD PTR __Pred$[ebp]
  0005a	e8 00 00 00 00	 call	 ??RCompoundItemInfoSort1@@QBE_NABUInvenItemInfo@@0@Z ; CompoundItemInfoSort1::operator()
  0005f	84 c0		 test	 al, al
  00061	75 2b		 jne	 SHORT $LN128@Unguarded_

; 3721 : 		--_Pfirst;

  00063	8b de		 mov	 ebx, esi
  00065	39 5d 0c	 cmp	 DWORD PTR __First$[ebp], ebx
  00068	72 da		 jb	 SHORT $LL27@Unguarded_

; 3725 : 		++_Plast;

  0006a	eb 22		 jmp	 SHORT $LN128@Unguarded_
$LL25@Unguarded_:

; 3722 : 	while (_Plast < _Last
; 3723 : 		&& !_DEBUG_LT_PRED(_Pred, *_Plast, *_Pfirst)
; 3724 : 		&& !_Pred(*_Pfirst, *_Plast))

  0006c	53		 push	 ebx
  0006d	57		 push	 edi
  0006e	8d 4d 14	 lea	 ecx, DWORD PTR __Pred$[ebp]
  00071	e8 00 00 00 00	 call	 ??RCompoundItemInfoSort1@@QBE_NABUInvenItemInfo@@0@Z ; CompoundItemInfoSort1::operator()
  00076	84 c0		 test	 al, al
  00078	75 19		 jne	 SHORT $LN24@Unguarded_
  0007a	57		 push	 edi
  0007b	53		 push	 ebx
  0007c	8d 4d 14	 lea	 ecx, DWORD PTR __Pred$[ebp]
  0007f	e8 00 00 00 00	 call	 ??RCompoundItemInfoSort1@@QBE_NABUInvenItemInfo@@0@Z ; CompoundItemInfoSort1::operator()
  00084	84 c0		 test	 al, al
  00086	75 0b		 jne	 SHORT $LN24@Unguarded_

; 3725 : 		++_Plast;

  00088	83 c7 0c	 add	 edi, 12			; 0000000cH
  0008b	89 7d f4	 mov	 DWORD PTR __Plast$[ebp], edi
$LN128@Unguarded_:

; 3722 : 	while (_Plast < _Last
; 3723 : 		&& !_DEBUG_LT_PRED(_Pred, *_Plast, *_Pfirst)
; 3724 : 		&& !_Pred(*_Pfirst, *_Plast))

  0008e	3b 7d 10	 cmp	 edi, DWORD PTR __Last$[ebp]
  00091	72 d9		 jb	 SHORT $LL25@Unguarded_
$LN24@Unguarded_:

; 3726 : 
; 3727 : 	_RanIt _Gfirst = _Plast;

  00093	89 7d fc	 mov	 DWORD PTR __Gfirst$[ebp], edi

; 3728 : 	_RanIt _Glast = _Pfirst;

  00096	89 5d f8	 mov	 DWORD PTR __Glast$[ebp], ebx

; 3729 : 
; 3730 : 	for (; ; )
; 3731 : 		{	// partition
; 3732 : 		for (; _Gfirst < _Last; ++_Gfirst)

  00099	eb 44		 jmp	 SHORT $LL23@Unguarded_
$LL21@Unguarded_:

; 3733 : 			if (_DEBUG_LT_PRED(_Pred, *_Pfirst, *_Gfirst))

  0009b	ff 75 fc	 push	 DWORD PTR __Gfirst$[ebp]
  0009e	8d 4d 14	 lea	 ecx, DWORD PTR __Pred$[ebp]
  000a1	53		 push	 ebx
  000a2	e8 00 00 00 00	 call	 ??RCompoundItemInfoSort1@@QBE_NABUInvenItemInfo@@0@Z ; CompoundItemInfoSort1::operator()
  000a7	84 c0		 test	 al, al
  000a9	75 30		 jne	 SHORT $LN20@Unguarded_

; 3734 : 				;
; 3735 : 			else if (_Pred(*_Gfirst, *_Pfirst))

  000ab	53		 push	 ebx
  000ac	ff 75 fc	 push	 DWORD PTR __Gfirst$[ebp]
  000af	8d 4d 14	 lea	 ecx, DWORD PTR __Pred$[ebp]
  000b2	e8 00 00 00 00	 call	 ??RCompoundItemInfoSort1@@QBE_NABUInvenItemInfo@@0@Z ; CompoundItemInfoSort1::operator()
  000b7	84 c0		 test	 al, al
  000b9	75 2c		 jne	 SHORT $LN118@Unguarded_

; 3736 : 				break;
; 3737 : 			else
; 3738 : 				_STD iter_swap(_Plast++, _Gfirst);

  000bb	8b 45 f4	 mov	 eax, DWORD PTR __Plast$[ebp]
  000be	83 45 f4 0c	 add	 DWORD PTR __Plast$[ebp], 12 ; 0000000cH
  000c2	8b f0		 mov	 esi, eax
  000c4	8d 7d e4	 lea	 edi, DWORD PTR __Tmp$516970[ebp]
  000c7	a5		 movsd
  000c8	a5		 movsd
  000c9	a5		 movsd
  000ca	8b 75 fc	 mov	 esi, DWORD PTR __Gfirst$[ebp]
  000cd	8b f8		 mov	 edi, eax
  000cf	a5		 movsd
  000d0	a5		 movsd
  000d1	a5		 movsd
  000d2	8b 7d fc	 mov	 edi, DWORD PTR __Gfirst$[ebp]
  000d5	8d 75 e4	 lea	 esi, DWORD PTR __Tmp$516970[ebp]
$LN132@Unguarded_:
  000d8	a5		 movsd
  000d9	a5		 movsd
  000da	a5		 movsd
$LN20@Unguarded_:

; 3729 : 
; 3730 : 	for (; ; )
; 3731 : 		{	// partition
; 3732 : 		for (; _Gfirst < _Last; ++_Gfirst)

  000db	83 45 fc 0c	 add	 DWORD PTR __Gfirst$[ebp], 12 ; 0000000cH
$LL23@Unguarded_:
  000df	8b 45 fc	 mov	 eax, DWORD PTR __Gfirst$[ebp]
  000e2	3b 45 10	 cmp	 eax, DWORD PTR __Last$[ebp]
  000e5	72 b4		 jb	 SHORT $LL21@Unguarded_
$LN118@Unguarded_:

; 3739 : 		for (; _First < _Glast; --_Glast)

  000e7	8b 75 0c	 mov	 esi, DWORD PTR __First$[ebp]
  000ea	39 75 f8	 cmp	 DWORD PTR __Glast$[ebp], esi
  000ed	76 58		 jbe	 SHORT $LN131@Unguarded_
  000ef	8b 45 f8	 mov	 eax, DWORD PTR __Glast$[ebp]
  000f2	83 c0 f4	 add	 eax, -12		; fffffff4H
  000f5	89 45 f0	 mov	 DWORD PTR tv470[ebp], eax
$LL125@Unguarded_:

; 3740 : 			if (_DEBUG_LT_PRED(_Pred, *(_Glast - 1), *_Pfirst))

  000f8	53		 push	 ebx
  000f9	ff 75 f0	 push	 DWORD PTR tv470[ebp]
  000fc	8d 4d 14	 lea	 ecx, DWORD PTR __Pred$[ebp]
  000ff	e8 00 00 00 00	 call	 ??RCompoundItemInfoSort1@@QBE_NABUInvenItemInfo@@0@Z ; CompoundItemInfoSort1::operator()
  00104	84 c0		 test	 al, al
  00106	75 2c		 jne	 SHORT $LN13@Unguarded_

; 3741 : 				;
; 3742 : 			else if (_Pred(*_Pfirst, *(_Glast - 1)))

  00108	ff 75 f0	 push	 DWORD PTR tv470[ebp]
  0010b	8d 4d 14	 lea	 ecx, DWORD PTR __Pred$[ebp]
  0010e	53		 push	 ebx
  0010f	e8 00 00 00 00	 call	 ??RCompoundItemInfoSort1@@QBE_NABUInvenItemInfo@@0@Z ; CompoundItemInfoSort1::operator()
  00114	84 c0		 test	 al, al
  00116	75 2c		 jne	 SHORT $LN119@Unguarded_

; 3743 : 				break;
; 3744 : 			else
; 3745 : 				_STD iter_swap(--_Pfirst, _Glast - 1);

  00118	83 eb 0c	 sub	 ebx, 12			; 0000000cH
  0011b	8b f3		 mov	 esi, ebx
  0011d	8d 7d d8	 lea	 edi, DWORD PTR __Tmp$517002[ebp]
  00120	a5		 movsd
  00121	a5		 movsd
  00122	a5		 movsd
  00123	8b 75 f0	 mov	 esi, DWORD PTR tv470[ebp]
  00126	8b fb		 mov	 edi, ebx
  00128	a5		 movsd
  00129	a5		 movsd
  0012a	a5		 movsd
  0012b	8b 7d f0	 mov	 edi, DWORD PTR tv470[ebp]
  0012e	8d 75 d8	 lea	 esi, DWORD PTR __Tmp$517002[ebp]
  00131	a5		 movsd
  00132	a5		 movsd
  00133	a5		 movsd
$LN13@Unguarded_:

; 3739 : 		for (; _First < _Glast; --_Glast)

  00134	83 6d f8 0c	 sub	 DWORD PTR __Glast$[ebp], 12 ; 0000000cH
  00138	8b 75 0c	 mov	 esi, DWORD PTR __First$[ebp]
  0013b	83 6d f0 0c	 sub	 DWORD PTR tv470[ebp], 12 ; 0000000cH
  0013f	3b 75 f8	 cmp	 esi, DWORD PTR __Glast$[ebp]
  00142	72 b4		 jb	 SHORT $LL125@Unguarded_
$LN119@Unguarded_:

; 3746 : 		if (_Glast == _First && _Gfirst == _Last)

  00144	39 75 f8	 cmp	 DWORD PTR __Glast$[ebp], esi
$LN131@Unguarded_:
  00147	75 50		 jne	 SHORT $LN6@Unguarded_
  00149	8b 45 fc	 mov	 eax, DWORD PTR __Gfirst$[ebp]
  0014c	3b 45 10	 cmp	 eax, DWORD PTR __Last$[ebp]
  0014f	0f 84 ad 00 00
	00		 je	 $LN120@Unguarded_

; 3748 : 
; 3749 : 		if (_Glast == _First)
; 3750 : 			{	// no room at bottom, rotate pivot upward
; 3751 : 			if (_Plast != _Gfirst)

  00155	39 45 f4	 cmp	 DWORD PTR __Plast$[ebp], eax
  00158	74 19		 je	 SHORT $LN64@Unguarded_

; 3752 : 				_STD iter_swap(_Pfirst, _Plast);

  0015a	8b f3		 mov	 esi, ebx
  0015c	8d 7d cc	 lea	 edi, DWORD PTR __Tmp$517067[ebp]
  0015f	a5		 movsd
  00160	a5		 movsd
  00161	a5		 movsd
  00162	8b 75 f4	 mov	 esi, DWORD PTR __Plast$[ebp]
  00165	8b fb		 mov	 edi, ebx
  00167	a5		 movsd
  00168	a5		 movsd
  00169	a5		 movsd
  0016a	8b 7d f4	 mov	 edi, DWORD PTR __Plast$[ebp]
  0016d	8d 75 cc	 lea	 esi, DWORD PTR __Tmp$517067[ebp]
  00170	a5		 movsd
  00171	a5		 movsd
  00172	a5		 movsd
$LN64@Unguarded_:

; 3753 : 			++_Plast;
; 3754 : 			_STD iter_swap(_Pfirst++, _Gfirst++);

  00173	8b 45 fc	 mov	 eax, DWORD PTR __Gfirst$[ebp]
  00176	83 45 f4 0c	 add	 DWORD PTR __Plast$[ebp], 12 ; 0000000cH
  0017a	8b cb		 mov	 ecx, ebx
  0017c	8b f1		 mov	 esi, ecx
  0017e	8d 7d c0	 lea	 edi, DWORD PTR __Tmp$517100[ebp]
  00181	a5		 movsd
  00182	a5		 movsd
  00183	a5		 movsd
  00184	8b f0		 mov	 esi, eax
  00186	8b f9		 mov	 edi, ecx
  00188	a5		 movsd
  00189	a5		 movsd
  0018a	a5		 movsd
  0018b	83 c3 0c	 add	 ebx, 12			; 0000000cH
  0018e	83 45 fc 0c	 add	 DWORD PTR __Gfirst$[ebp], 12 ; 0000000cH
  00192	8d 75 c0	 lea	 esi, DWORD PTR __Tmp$517100[ebp]
  00195	8b f8		 mov	 edi, eax
  00197	eb 47		 jmp	 SHORT $LN129@Unguarded_
$LN6@Unguarded_:

; 3755 : 			}
; 3756 : 		else if (_Gfirst == _Last)

  00199	8b 75 fc	 mov	 esi, DWORD PTR __Gfirst$[ebp]

; 3757 : 			{	// no room at top, rotate pivot downward
; 3758 : 			if (--_Glast != --_Pfirst)

  0019c	83 6d f8 0c	 sub	 DWORD PTR __Glast$[ebp], 12 ; 0000000cH
  001a0	3b 75 10	 cmp	 esi, DWORD PTR __Last$[ebp]
  001a3	75 43		 jne	 SHORT $LN3@Unguarded_
  001a5	83 eb 0c	 sub	 ebx, 12			; 0000000cH
  001a8	39 5d f8	 cmp	 DWORD PTR __Glast$[ebp], ebx
  001ab	74 19		 je	 SHORT $LN84@Unguarded_

; 3759 : 				_STD iter_swap(_Glast, _Pfirst);

  001ad	8b 75 f8	 mov	 esi, DWORD PTR __Glast$[ebp]
  001b0	8d 7d b4	 lea	 edi, DWORD PTR __Tmp$517132[ebp]
  001b3	a5		 movsd
  001b4	a5		 movsd
  001b5	a5		 movsd
  001b6	8b 7d f8	 mov	 edi, DWORD PTR __Glast$[ebp]
  001b9	8b f3		 mov	 esi, ebx
  001bb	a5		 movsd
  001bc	a5		 movsd
  001bd	a5		 movsd
  001be	8d 75 b4	 lea	 esi, DWORD PTR __Tmp$517132[ebp]
  001c1	8b fb		 mov	 edi, ebx
  001c3	a5		 movsd
  001c4	a5		 movsd
  001c5	a5		 movsd
$LN84@Unguarded_:

; 3760 : 			_STD iter_swap(_Pfirst, --_Plast);

  001c6	83 6d f4 0c	 sub	 DWORD PTR __Plast$[ebp], 12 ; 0000000cH
  001ca	8b f3		 mov	 esi, ebx
  001cc	8d 7d a8	 lea	 edi, DWORD PTR __Tmp$517171[ebp]
  001cf	a5		 movsd
  001d0	a5		 movsd
  001d1	a5		 movsd
  001d2	8b 75 f4	 mov	 esi, DWORD PTR __Plast$[ebp]
  001d5	8b fb		 mov	 edi, ebx
  001d7	a5		 movsd
  001d8	a5		 movsd
  001d9	a5		 movsd
  001da	8b 7d f4	 mov	 edi, DWORD PTR __Plast$[ebp]
  001dd	8d 75 a8	 lea	 esi, DWORD PTR __Tmp$517171[ebp]
$LN129@Unguarded_:
  001e0	a5		 movsd
  001e1	a5		 movsd
  001e2	a5		 movsd

; 3761 : 			}
; 3762 : 		else

  001e3	e9 f7 fe ff ff	 jmp	 $LL23@Unguarded_
$LN3@Unguarded_:

; 3763 : 			_STD iter_swap(_Gfirst++, --_Glast);

  001e8	8d 7d 9c	 lea	 edi, DWORD PTR __Tmp$517204[ebp]
  001eb	a5		 movsd
  001ec	a5		 movsd
  001ed	a5		 movsd
  001ee	8b 75 f8	 mov	 esi, DWORD PTR __Glast$[ebp]
  001f1	8b 7d fc	 mov	 edi, DWORD PTR __Gfirst$[ebp]
  001f4	a5		 movsd
  001f5	a5		 movsd
  001f6	a5		 movsd
  001f7	8b 7d f8	 mov	 edi, DWORD PTR __Glast$[ebp]
  001fa	8d 75 9c	 lea	 esi, DWORD PTR __Tmp$517204[ebp]

; 3764 : 		}

  001fd	e9 d6 fe ff ff	 jmp	 $LN132@Unguarded_
$LN120@Unguarded_:

; 3747 : 			return (_STD pair<_RanIt, _RanIt>(_Pfirst, _Plast));

  00202	8b 45 08	 mov	 eax, DWORD PTR ___$ReturnUdt$[ebp]
  00205	8b 4d f4	 mov	 ecx, DWORD PTR __Plast$[ebp]
  00208	5f		 pop	 edi
  00209	5e		 pop	 esi
  0020a	89 18		 mov	 DWORD PTR [eax], ebx
  0020c	89 48 04	 mov	 DWORD PTR [eax+4], ecx
  0020f	5b		 pop	 ebx

; 3765 : 	}

  00210	c9		 leave
  00211	c3		 ret	 0
??$_Unguarded_partition@PAUInvenItemInfo@@VCompoundItemInfoSort1@@@std@@YA?AU?$pair@PAUInvenItemInfo@@PAU1@@0@PAUInvenItemInfo@@0VCompoundItemInfoSort1@@@Z ENDP ; std::_Unguarded_partition<InvenItemInfo *,CompoundItemInfoSort1>
_TEXT	ENDS
PUBLIC	??$_Uninit_copy@V?$_Vector_const_iterator@V?$_Vector_val@UEXTRAITEMSLOT@@V?$allocator@UEXTRAITEMSLOT@@@std@@@std@@@std@@PAUEXTRAITEMSLOT@@V?$allocator@UEXTRAITEMSLOT@@@2@@std@@YAPAUEXTRAITEMSLOT@@V?$_Vector_const_iterator@V?$_Vector_val@UEXTRAITEMSLOT@@V?$allocator@UEXTRAITEMSLOT@@@std@@@std@@@0@0PAU1@AAV?$allocator@UEXTRAITEMSLOT@@@0@U_Nonscalar_ptr_iterator_tag@0@@Z ; std::_Uninit_copy<std::_Vector_const_iterator<std::_Vector_val<EXTRAITEMSLOT,std::allocator<EXTRAITEMSLOT> > >,EXTRAITEMSLOT *,std::allocator<EXTRAITEMSLOT> >
EXTRN	__EH_prolog3_catch:PROC
;	COMDAT xdata$x
; File c:\program files (x86)\microsoft visual studio 10.0\vc\include\xmemory
xdata$x	SEGMENT
__catchsym$??$_Uninit_copy@V?$_Vector_const_iterator@V?$_Vector_val@UEXTRAITEMSLOT@@V?$allocator@UEXTRAITEMSLOT@@@std@@@std@@@std@@PAUEXTRAITEMSLOT@@V?$allocator@UEXTRAITEMSLOT@@@2@@std@@YAPAUEXTRAITEMSLOT@@V?$_Vector_const_iterator@V?$_Vector_val@UEXTRAITEMSLOT@@V?$allocator@UEXTRAITEMSLOT@@@std@@@std@@@0@0PAU1@AAV?$allocator@UEXTRAITEMSLOT@@@0@U_Nonscalar_ptr_iterator_tag@0@@Z$2 DD 040H
	DD	00H
	DD	00H
	DD	FLAT:__catch$??$_Uninit_copy@V?$_Vector_const_iterator@V?$_Vector_val@UEXTRAITEMSLOT@@V?$allocator@UEXTRAITEMSLOT@@@std@@@std@@@std@@PAUEXTRAITEMSLOT@@V?$allocator@UEXTRAITEMSLOT@@@2@@std@@YAPAUEXTRAITEMSLOT@@V?$_Vector_const_iterator@V?$_Vector_val@UEXTRAITEMSLOT@@V?$allocator@UEXTRAITEMSLOT@@@std@@@std@@@0@0PAU1@AAV?$allocator@UEXTRAITEMSLOT@@@0@U_Nonscalar_ptr_iterator_tag@0@@Z$0
__unwindtable$??$_Uninit_copy@V?$_Vector_const_iterator@V?$_Vector_val@UEXTRAITEMSLOT@@V?$allocator@UEXTRAITEMSLOT@@@std@@@std@@@std@@PAUEXTRAITEMSLOT@@V?$allocator@UEXTRAITEMSLOT@@@2@@std@@YAPAUEXTRAITEMSLOT@@V?$_Vector_const_iterator@V?$_Vector_val@UEXTRAITEMSLOT@@V?$allocator@UEXTRAITEMSLOT@@@std@@@std@@@0@0PAU1@AAV?$allocator@UEXTRAITEMSLOT@@@0@U_Nonscalar_ptr_iterator_tag@0@@Z DD 0ffffffffH
	DD	00H
	DD	0ffffffffH
	DD	00H
__tryblocktable$??$_Uninit_copy@V?$_Vector_const_iterator@V?$_Vector_val@UEXTRAITEMSLOT@@V?$allocator@UEXTRAITEMSLOT@@@std@@@std@@@std@@PAUEXTRAITEMSLOT@@V?$allocator@UEXTRAITEMSLOT@@@2@@std@@YAPAUEXTRAITEMSLOT@@V?$_Vector_const_iterator@V?$_Vector_val@UEXTRAITEMSLOT@@V?$allocator@UEXTRAITEMSLOT@@@std@@@std@@@0@0PAU1@AAV?$allocator@UEXTRAITEMSLOT@@@0@U_Nonscalar_ptr_iterator_tag@0@@Z DD 00H
	DD	00H
	DD	01H
	DD	01H
	DD	FLAT:__catchsym$??$_Uninit_copy@V?$_Vector_const_iterator@V?$_Vector_val@UEXTRAITEMSLOT@@V?$allocator@UEXTRAITEMSLOT@@@std@@@std@@@std@@PAUEXTRAITEMSLOT@@V?$allocator@UEXTRAITEMSLOT@@@2@@std@@YAPAUEXTRAITEMSLOT@@V?$_Vector_const_iterator@V?$_Vector_val@UEXTRAITEMSLOT@@V?$allocator@UEXTRAITEMSLOT@@@std@@@std@@@0@0PAU1@AAV?$allocator@UEXTRAITEMSLOT@@@0@U_Nonscalar_ptr_iterator_tag@0@@Z$2
__ehfuncinfo$??$_Uninit_copy@V?$_Vector_const_iterator@V?$_Vector_val@UEXTRAITEMSLOT@@V?$allocator@UEXTRAITEMSLOT@@@std@@@std@@@std@@PAUEXTRAITEMSLOT@@V?$allocator@UEXTRAITEMSLOT@@@2@@std@@YAPAUEXTRAITEMSLOT@@V?$_Vector_const_iterator@V?$_Vector_val@UEXTRAITEMSLOT@@V?$allocator@UEXTRAITEMSLOT@@@std@@@std@@@0@0PAU1@AAV?$allocator@UEXTRAITEMSLOT@@@0@U_Nonscalar_ptr_iterator_tag@0@@Z DD 019930522H
	DD	02H
	DD	FLAT:__unwindtable$??$_Uninit_copy@V?$_Vector_const_iterator@V?$_Vector_val@UEXTRAITEMSLOT@@V?$allocator@UEXTRAITEMSLOT@@@std@@@std@@@std@@PAUEXTRAITEMSLOT@@V?$allocator@UEXTRAITEMSLOT@@@2@@std@@YAPAUEXTRAITEMSLOT@@V?$_Vector_const_iterator@V?$_Vector_val@UEXTRAITEMSLOT@@V?$allocator@UEXTRAITEMSLOT@@@std@@@std@@@0@0PAU1@AAV?$allocator@UEXTRAITEMSLOT@@@0@U_Nonscalar_ptr_iterator_tag@0@@Z
	DD	01H
	DD	FLAT:__tryblocktable$??$_Uninit_copy@V?$_Vector_const_iterator@V?$_Vector_val@UEXTRAITEMSLOT@@V?$allocator@UEXTRAITEMSLOT@@@std@@@std@@@std@@PAUEXTRAITEMSLOT@@V?$allocator@UEXTRAITEMSLOT@@@2@@std@@YAPAUEXTRAITEMSLOT@@V?$_Vector_const_iterator@V?$_Vector_val@UEXTRAITEMSLOT@@V?$allocator@UEXTRAITEMSLOT@@@std@@@std@@@0@0PAU1@AAV?$allocator@UEXTRAITEMSLOT@@@0@U_Nonscalar_ptr_iterator_tag@0@@Z
	DD	2 DUP(00H)
	DD	00H
	DD	01H
; Function compile flags: /Ogsp
; File c:\program files (x86)\microsoft visual studio 10.0\vc\include\memory
xdata$x	ENDS
;	COMDAT ??$_Uninit_copy@V?$_Vector_const_iterator@V?$_Vector_val@UEXTRAITEMSLOT@@V?$allocator@UEXTRAITEMSLOT@@@std@@@std@@@std@@PAUEXTRAITEMSLOT@@V?$allocator@UEXTRAITEMSLOT@@@2@@std@@YAPAUEXTRAITEMSLOT@@V?$_Vector_const_iterator@V?$_Vector_val@UEXTRAITEMSLOT@@V?$allocator@UEXTRAITEMSLOT@@@std@@@std@@@0@0PAU1@AAV?$allocator@UEXTRAITEMSLOT@@@0@U_Nonscalar_ptr_iterator_tag@0@@Z
_TEXT	SEGMENT
__Next$ = -20						; size = 4
__$EHRec$ = -16						; size = 16
__First$ = 8						; size = 4
__Last$ = 12						; size = 4
__Dest$ = 16						; size = 4
__Al$ = 20						; size = 4
___formal$ = 24						; size = 1
??$_Uninit_copy@V?$_Vector_const_iterator@V?$_Vector_val@UEXTRAITEMSLOT@@V?$allocator@UEXTRAITEMSLOT@@@std@@@std@@@std@@PAUEXTRAITEMSLOT@@V?$allocator@UEXTRAITEMSLOT@@@2@@std@@YAPAUEXTRAITEMSLOT@@V?$_Vector_const_iterator@V?$_Vector_val@UEXTRAITEMSLOT@@V?$allocator@UEXTRAITEMSLOT@@@std@@@std@@@0@0PAU1@AAV?$allocator@UEXTRAITEMSLOT@@@0@U_Nonscalar_ptr_iterator_tag@0@@Z PROC ; std::_Uninit_copy<std::_Vector_const_iterator<std::_Vector_val<EXTRAITEMSLOT,std::allocator<EXTRAITEMSLOT> > >,EXTRAITEMSLOT *,std::allocator<EXTRAITEMSLOT> >, COMDAT

; 369  : 	{	// copy [_First, _Last) to raw _Dest, using _Al, arbitrary type

  00000	6a 08		 push	 8
  00002	b8 00 00 00 00	 mov	 eax, __ehhandler$??$_Uninit_copy@V?$_Vector_const_iterator@V?$_Vector_val@UEXTRAITEMSLOT@@V?$allocator@UEXTRAITEMSLOT@@@std@@@std@@@std@@PAUEXTRAITEMSLOT@@V?$allocator@UEXTRAITEMSLOT@@@2@@std@@YAPAUEXTRAITEMSLOT@@V?$_Vector_const_iterator@V?$_Vector_val@UEXTRAITEMSLOT@@V?$allocator@UEXTRAITEMSLOT@@@std@@@std@@@0@0PAU1@AAV?$allocator@UEXTRAITEMSLOT@@@0@U_Nonscalar_ptr_iterator_tag@0@@Z
  00007	e8 00 00 00 00	 call	 __EH_prolog3_catch

; 370  : 	_DEBUG_RANGE(_First, _Last);
; 371  : 	_DEBUG_POINTER(_Dest);
; 372  : 	_FwdIt _Next = _Dest;

  0000c	8b 45 10	 mov	 eax, DWORD PTR __Dest$[ebp]

; 373  : 
; 374  : 	_TRY_BEGIN

  0000f	83 65 fc 00	 and	 DWORD PTR __$EHRec$[ebp+12], 0
  00013	89 45 ec	 mov	 DWORD PTR __Next$[ebp], eax

; 375  : 	for (; _First != _Last; ++_Dest, ++_First)

$LL14@Uninit_cop:
  00016	8b 45 08	 mov	 eax, DWORD PTR __First$[ebp]
  00019	3b 45 0c	 cmp	 eax, DWORD PTR __Last$[ebp]
  0001c	74 32		 je	 SHORT $LN4@Uninit_cop

; 376  : 		_Cons_val(_Al, _Dest, *_First);

  0001e	50		 push	 eax
  0001f	ff 75 10	 push	 DWORD PTR __Dest$[ebp]
  00022	e8 00 00 00 00	 call	 ??$_Construct@UEXTRAITEMSLOT@@ABU1@@std@@YAXPAUEXTRAITEMSLOT@@ABU1@@Z ; std::_Construct<EXTRAITEMSLOT,EXTRAITEMSLOT const &>
  00027	83 45 10 48	 add	 DWORD PTR __Dest$[ebp], 72 ; 00000048H
  0002b	83 45 08 48	 add	 DWORD PTR __First$[ebp], 72 ; 00000048H
  0002f	59		 pop	 ecx
  00030	59		 pop	 ecx
  00031	eb e3		 jmp	 SHORT $LL14@Uninit_cop
__catch$??$_Uninit_copy@V?$_Vector_const_iterator@V?$_Vector_val@UEXTRAITEMSLOT@@V?$allocator@UEXTRAITEMSLOT@@@std@@@std@@@std@@PAUEXTRAITEMSLOT@@V?$allocator@UEXTRAITEMSLOT@@@2@@std@@YAPAUEXTRAITEMSLOT@@V?$_Vector_const_iterator@V?$_Vector_val@UEXTRAITEMSLOT@@V?$allocator@UEXTRAITEMSLOT@@@std@@@std@@@0@0PAU1@AAV?$allocator@UEXTRAITEMSLOT@@@0@U_Nonscalar_ptr_iterator_tag@0@@Z$0:

; 377  : 	_CATCH_ALL
; 378  : 	for (; _Next != _Dest; ++_Next)

  00033	8b 75 ec	 mov	 esi, DWORD PTR __Next$[ebp]
  00036	eb 0a		 jmp	 SHORT $LN45@Uninit_cop
$LL3@Uninit_cop:

; 379  : 		_Dest_val(_Al, _Next);

  00038	8b ce		 mov	 ecx, esi
  0003a	e8 00 00 00 00	 call	 ??1EXTRAITEMSLOT@@QAE@XZ
  0003f	83 c6 48	 add	 esi, 72			; 00000048H
$LN45@Uninit_cop:

; 377  : 	_CATCH_ALL
; 378  : 	for (; _Next != _Dest; ++_Next)

  00042	3b 75 10	 cmp	 esi, DWORD PTR __Dest$[ebp]
  00045	75 f1		 jne	 SHORT $LL3@Uninit_cop

; 380  : 	_RERAISE;

  00047	6a 00		 push	 0
  00049	6a 00		 push	 0
  0004b	e8 00 00 00 00	 call	 __CxxThrowException@8
$LN46@Uninit_cop:
$LN4@Uninit_cop:

; 381  : 	_CATCH_END
; 382  : 	return (_Dest);

  00050	8b 45 10	 mov	 eax, DWORD PTR __Dest$[ebp]

; 383  : 	}

  00053	e8 00 00 00 00	 call	 __EH_epilog3
  00058	c3		 ret	 0
$LN44@Uninit_cop:
_TEXT	ENDS
;	COMDAT text$x
text$x	SEGMENT
__ehhandler$??$_Uninit_copy@V?$_Vector_const_iterator@V?$_Vector_val@UEXTRAITEMSLOT@@V?$allocator@UEXTRAITEMSLOT@@@std@@@std@@@std@@PAUEXTRAITEMSLOT@@V?$allocator@UEXTRAITEMSLOT@@@2@@std@@YAPAUEXTRAITEMSLOT@@V?$_Vector_const_iterator@V?$_Vector_val@UEXTRAITEMSLOT@@V?$allocator@UEXTRAITEMSLOT@@@std@@@std@@@0@0PAU1@AAV?$allocator@UEXTRAITEMSLOT@@@0@U_Nonscalar_ptr_iterator_tag@0@@Z:
  00000	8b 54 24 08	 mov	 edx, DWORD PTR [esp+8]
  00004	8d 42 0c	 lea	 eax, DWORD PTR [edx+12]
  00007	8b 4a e8	 mov	 ecx, DWORD PTR [edx-24]
  0000a	33 c8		 xor	 ecx, eax
  0000c	e8 00 00 00 00	 call	 @__security_check_cookie@4
  00011	b8 00 00 00 00	 mov	 eax, OFFSET __ehfuncinfo$??$_Uninit_copy@V?$_Vector_const_iterator@V?$_Vector_val@UEXTRAITEMSLOT@@V?$allocator@UEXTRAITEMSLOT@@@std@@@std@@@std@@PAUEXTRAITEMSLOT@@V?$allocator@UEXTRAITEMSLOT@@@2@@std@@YAPAUEXTRAITEMSLOT@@V?$_Vector_const_iterator@V?$_Vector_val@UEXTRAITEMSLOT@@V?$allocator@UEXTRAITEMSLOT@@@std@@@std@@@0@0PAU1@AAV?$allocator@UEXTRAITEMSLOT@@@0@U_Nonscalar_ptr_iterator_tag@0@@Z
  00016	e9 00 00 00 00	 jmp	 ___CxxFrameHandler3
text$x	ENDS
??$_Uninit_copy@V?$_Vector_const_iterator@V?$_Vector_val@UEXTRAITEMSLOT@@V?$allocator@UEXTRAITEMSLOT@@@std@@@std@@@std@@PAUEXTRAITEMSLOT@@V?$allocator@UEXTRAITEMSLOT@@@2@@std@@YAPAUEXTRAITEMSLOT@@V?$_Vector_const_iterator@V?$_Vector_val@UEXTRAITEMSLOT@@V?$allocator@UEXTRAITEMSLOT@@@std@@@std@@@0@0PAU1@AAV?$allocator@UEXTRAITEMSLOT@@@0@U_Nonscalar_ptr_iterator_tag@0@@Z ENDP ; std::_Uninit_copy<std::_Vector_const_iterator<std::_Vector_val<EXTRAITEMSLOT,std::allocator<EXTRAITEMSLOT> > >,EXTRAITEMSLOT *,std::allocator<EXTRAITEMSLOT> >
PUBLIC	??$_Uninit_move@PAUEXTRAITEMSLOT@@PAU1@V?$allocator@UEXTRAITEMSLOT@@@std@@U1@@std@@YAPAUEXTRAITEMSLOT@@PAU1@00AAV?$allocator@UEXTRAITEMSLOT@@@0@0U_Nonscalar_ptr_iterator_tag@0@@Z ; std::_Uninit_move<EXTRAITEMSLOT *,EXTRAITEMSLOT *,std::allocator<EXTRAITEMSLOT>,EXTRAITEMSLOT>
;	COMDAT xdata$x
; File c:\program files (x86)\microsoft visual studio 10.0\vc\include\xmemory
xdata$x	SEGMENT
__catchsym$??$_Uninit_move@PAUEXTRAITEMSLOT@@PAU1@V?$allocator@UEXTRAITEMSLOT@@@std@@U1@@std@@YAPAUEXTRAITEMSLOT@@PAU1@00AAV?$allocator@UEXTRAITEMSLOT@@@0@0U_Nonscalar_ptr_iterator_tag@0@@Z$2 DD 040H
	DD	00H
	DD	00H
	DD	FLAT:__catch$??$_Uninit_move@PAUEXTRAITEMSLOT@@PAU1@V?$allocator@UEXTRAITEMSLOT@@@std@@U1@@std@@YAPAUEXTRAITEMSLOT@@PAU1@00AAV?$allocator@UEXTRAITEMSLOT@@@0@0U_Nonscalar_ptr_iterator_tag@0@@Z$0
__unwindtable$??$_Uninit_move@PAUEXTRAITEMSLOT@@PAU1@V?$allocator@UEXTRAITEMSLOT@@@std@@U1@@std@@YAPAUEXTRAITEMSLOT@@PAU1@00AAV?$allocator@UEXTRAITEMSLOT@@@0@0U_Nonscalar_ptr_iterator_tag@0@@Z DD 0ffffffffH
	DD	00H
	DD	0ffffffffH
	DD	00H
__tryblocktable$??$_Uninit_move@PAUEXTRAITEMSLOT@@PAU1@V?$allocator@UEXTRAITEMSLOT@@@std@@U1@@std@@YAPAUEXTRAITEMSLOT@@PAU1@00AAV?$allocator@UEXTRAITEMSLOT@@@0@0U_Nonscalar_ptr_iterator_tag@0@@Z DD 00H
	DD	00H
	DD	01H
	DD	01H
	DD	FLAT:__catchsym$??$_Uninit_move@PAUEXTRAITEMSLOT@@PAU1@V?$allocator@UEXTRAITEMSLOT@@@std@@U1@@std@@YAPAUEXTRAITEMSLOT@@PAU1@00AAV?$allocator@UEXTRAITEMSLOT@@@0@0U_Nonscalar_ptr_iterator_tag@0@@Z$2
__ehfuncinfo$??$_Uninit_move@PAUEXTRAITEMSLOT@@PAU1@V?$allocator@UEXTRAITEMSLOT@@@std@@U1@@std@@YAPAUEXTRAITEMSLOT@@PAU1@00AAV?$allocator@UEXTRAITEMSLOT@@@0@0U_Nonscalar_ptr_iterator_tag@0@@Z DD 019930522H
	DD	02H
	DD	FLAT:__unwindtable$??$_Uninit_move@PAUEXTRAITEMSLOT@@PAU1@V?$allocator@UEXTRAITEMSLOT@@@std@@U1@@std@@YAPAUEXTRAITEMSLOT@@PAU1@00AAV?$allocator@UEXTRAITEMSLOT@@@0@0U_Nonscalar_ptr_iterator_tag@0@@Z
	DD	01H
	DD	FLAT:__tryblocktable$??$_Uninit_move@PAUEXTRAITEMSLOT@@PAU1@V?$allocator@UEXTRAITEMSLOT@@@std@@U1@@std@@YAPAUEXTRAITEMSLOT@@PAU1@00AAV?$allocator@UEXTRAITEMSLOT@@@0@0U_Nonscalar_ptr_iterator_tag@0@@Z
	DD	2 DUP(00H)
	DD	00H
	DD	01H
; Function compile flags: /Ogsp
; File c:\program files (x86)\microsoft visual studio 10.0\vc\include\memory
xdata$x	ENDS
;	COMDAT ??$_Uninit_move@PAUEXTRAITEMSLOT@@PAU1@V?$allocator@UEXTRAITEMSLOT@@@std@@U1@@std@@YAPAUEXTRAITEMSLOT@@PAU1@00AAV?$allocator@UEXTRAITEMSLOT@@@0@0U_Nonscalar_ptr_iterator_tag@0@@Z
_TEXT	SEGMENT
__Next$ = -20						; size = 4
__$EHRec$ = -16						; size = 16
__First$ = 8						; size = 4
__Last$ = 12						; size = 4
__Dest$ = 16						; size = 4
__Al$ = 20						; size = 4
___formal$ = 24						; size = 4
___formal$ = 28						; size = 1
??$_Uninit_move@PAUEXTRAITEMSLOT@@PAU1@V?$allocator@UEXTRAITEMSLOT@@@std@@U1@@std@@YAPAUEXTRAITEMSLOT@@PAU1@00AAV?$allocator@UEXTRAITEMSLOT@@@0@0U_Nonscalar_ptr_iterator_tag@0@@Z PROC ; std::_Uninit_move<EXTRAITEMSLOT *,EXTRAITEMSLOT *,std::allocator<EXTRAITEMSLOT>,EXTRAITEMSLOT>, COMDAT

; 424  : 	{	// move [_First, _Last) to raw _Dest, using _Al, arbitrary type

  00000	6a 08		 push	 8
  00002	b8 00 00 00 00	 mov	 eax, __ehhandler$??$_Uninit_move@PAUEXTRAITEMSLOT@@PAU1@V?$allocator@UEXTRAITEMSLOT@@@std@@U1@@std@@YAPAUEXTRAITEMSLOT@@PAU1@00AAV?$allocator@UEXTRAITEMSLOT@@@0@0U_Nonscalar_ptr_iterator_tag@0@@Z
  00007	e8 00 00 00 00	 call	 __EH_prolog3_catch

; 425  : 	_DEBUG_RANGE(_First, _Last);
; 426  : 	_DEBUG_POINTER(_Dest);
; 427  : 	_FwdIt _Next = _Dest;

  0000c	8b 45 10	 mov	 eax, DWORD PTR __Dest$[ebp]

; 428  : 
; 429  : 	_TRY_BEGIN

  0000f	83 65 fc 00	 and	 DWORD PTR __$EHRec$[ebp+12], 0
  00013	8b 75 08	 mov	 esi, DWORD PTR __First$[ebp]
  00016	89 45 ec	 mov	 DWORD PTR __Next$[ebp], eax
$LL6@Uninit_mov@2:

; 430  : 	for (; _First != _Last; ++_Dest, ++_First)

  00019	3b 75 0c	 cmp	 esi, DWORD PTR __Last$[ebp]
  0001c	74 35		 je	 SHORT $LN4@Uninit_mov@2

; 431  : 		_Cons_val(_Al, _Dest, (_Valty &&)*_First);

  0001e	56		 push	 esi
  0001f	ff 75 10	 push	 DWORD PTR __Dest$[ebp]
  00022	ff 75 14	 push	 DWORD PTR __Al$[ebp]
  00025	e8 00 00 00 00	 call	 ??$_Cons_val@V?$allocator@UEXTRAITEMSLOT@@@std@@UEXTRAITEMSLOT@@U3@@std@@YAXAAV?$allocator@UEXTRAITEMSLOT@@@0@PAUEXTRAITEMSLOT@@$$QAU2@@Z ; std::_Cons_val<std::allocator<EXTRAITEMSLOT>,EXTRAITEMSLOT,EXTRAITEMSLOT>
  0002a	83 45 10 48	 add	 DWORD PTR __Dest$[ebp], 72 ; 00000048H
  0002e	83 c4 0c	 add	 esp, 12			; 0000000cH
  00031	83 c6 48	 add	 esi, 72			; 00000048H
  00034	eb e3		 jmp	 SHORT $LL6@Uninit_mov@2
__catch$??$_Uninit_move@PAUEXTRAITEMSLOT@@PAU1@V?$allocator@UEXTRAITEMSLOT@@@std@@U1@@std@@YAPAUEXTRAITEMSLOT@@PAU1@00AAV?$allocator@UEXTRAITEMSLOT@@@0@0U_Nonscalar_ptr_iterator_tag@0@@Z$0:

; 432  : 	_CATCH_ALL
; 433  : 	for (; _Next != _Dest; ++_Next)

  00036	8b 75 ec	 mov	 esi, DWORD PTR __Next$[ebp]
  00039	eb 0a		 jmp	 SHORT $LN29@Uninit_mov@2
$LL3@Uninit_mov@2:

; 434  : 		_Dest_val(_Al, _Next);

  0003b	8b ce		 mov	 ecx, esi
  0003d	e8 00 00 00 00	 call	 ??1EXTRAITEMSLOT@@QAE@XZ
  00042	83 c6 48	 add	 esi, 72			; 00000048H
$LN29@Uninit_mov@2:

; 432  : 	_CATCH_ALL
; 433  : 	for (; _Next != _Dest; ++_Next)

  00045	3b 75 10	 cmp	 esi, DWORD PTR __Dest$[ebp]
  00048	75 f1		 jne	 SHORT $LL3@Uninit_mov@2

; 435  : 	_RERAISE;

  0004a	6a 00		 push	 0
  0004c	6a 00		 push	 0
  0004e	e8 00 00 00 00	 call	 __CxxThrowException@8
$LN30@Uninit_mov@2:
$LN4@Uninit_mov@2:

; 436  : 	_CATCH_END
; 437  : 	return (_Dest);

  00053	8b 45 10	 mov	 eax, DWORD PTR __Dest$[ebp]

; 438  : 	}

  00056	e8 00 00 00 00	 call	 __EH_epilog3
  0005b	c3		 ret	 0
$LN28@Uninit_mov@2:
_TEXT	ENDS
;	COMDAT text$x
text$x	SEGMENT
__ehhandler$??$_Uninit_move@PAUEXTRAITEMSLOT@@PAU1@V?$allocator@UEXTRAITEMSLOT@@@std@@U1@@std@@YAPAUEXTRAITEMSLOT@@PAU1@00AAV?$allocator@UEXTRAITEMSLOT@@@0@0U_Nonscalar_ptr_iterator_tag@0@@Z:
  00000	8b 54 24 08	 mov	 edx, DWORD PTR [esp+8]
  00004	8d 42 0c	 lea	 eax, DWORD PTR [edx+12]
  00007	8b 4a e8	 mov	 ecx, DWORD PTR [edx-24]
  0000a	33 c8		 xor	 ecx, eax
  0000c	e8 00 00 00 00	 call	 @__security_check_cookie@4
  00011	b8 00 00 00 00	 mov	 eax, OFFSET __ehfuncinfo$??$_Uninit_move@PAUEXTRAITEMSLOT@@PAU1@V?$allocator@UEXTRAITEMSLOT@@@std@@U1@@std@@YAPAUEXTRAITEMSLOT@@PAU1@00AAV?$allocator@UEXTRAITEMSLOT@@@0@0U_Nonscalar_ptr_iterator_tag@0@@Z
  00016	e9 00 00 00 00	 jmp	 ___CxxFrameHandler3
text$x	ENDS
??$_Uninit_move@PAUEXTRAITEMSLOT@@PAU1@V?$allocator@UEXTRAITEMSLOT@@@std@@U1@@std@@YAPAUEXTRAITEMSLOT@@PAU1@00AAV?$allocator@UEXTRAITEMSLOT@@@0@0U_Nonscalar_ptr_iterator_tag@0@@Z ENDP ; std::_Uninit_move<EXTRAITEMSLOT *,EXTRAITEMSLOT *,std::allocator<EXTRAITEMSLOT>,EXTRAITEMSLOT>
PUBLIC	??$_Uninit_move@PAUNewShopPullDownItem@@PAU1@V?$allocator@UNewShopPullDownItem@@@std@@U1@@std@@YAPAUNewShopPullDownItem@@PAU1@00AAV?$allocator@UNewShopPullDownItem@@@0@0U_Nonscalar_ptr_iterator_tag@0@@Z ; std::_Uninit_move<NewShopPullDownItem *,NewShopPullDownItem *,std::allocator<NewShopPullDownItem>,NewShopPullDownItem>
;	COMDAT xdata$x
; File c:\program files (x86)\microsoft visual studio 10.0\vc\include\xmemory
xdata$x	SEGMENT
__catchsym$??$_Uninit_move@PAUNewShopPullDownItem@@PAU1@V?$allocator@UNewShopPullDownItem@@@std@@U1@@std@@YAPAUNewShopPullDownItem@@PAU1@00AAV?$allocator@UNewShopPullDownItem@@@0@0U_Nonscalar_ptr_iterator_tag@0@@Z$2 DD 040H
	DD	00H
	DD	00H
	DD	FLAT:__catch$??$_Uninit_move@PAUNewShopPullDownItem@@PAU1@V?$allocator@UNewShopPullDownItem@@@std@@U1@@std@@YAPAUNewShopPullDownItem@@PAU1@00AAV?$allocator@UNewShopPullDownItem@@@0@0U_Nonscalar_ptr_iterator_tag@0@@Z$0
__unwindtable$??$_Uninit_move@PAUNewShopPullDownItem@@PAU1@V?$allocator@UNewShopPullDownItem@@@std@@U1@@std@@YAPAUNewShopPullDownItem@@PAU1@00AAV?$allocator@UNewShopPullDownItem@@@0@0U_Nonscalar_ptr_iterator_tag@0@@Z DD 0ffffffffH
	DD	00H
	DD	0ffffffffH
	DD	00H
__tryblocktable$??$_Uninit_move@PAUNewShopPullDownItem@@PAU1@V?$allocator@UNewShopPullDownItem@@@std@@U1@@std@@YAPAUNewShopPullDownItem@@PAU1@00AAV?$allocator@UNewShopPullDownItem@@@0@0U_Nonscalar_ptr_iterator_tag@0@@Z DD 00H
	DD	00H
	DD	01H
	DD	01H
	DD	FLAT:__catchsym$??$_Uninit_move@PAUNewShopPullDownItem@@PAU1@V?$allocator@UNewShopPullDownItem@@@std@@U1@@std@@YAPAUNewShopPullDownItem@@PAU1@00AAV?$allocator@UNewShopPullDownItem@@@0@0U_Nonscalar_ptr_iterator_tag@0@@Z$2
__ehfuncinfo$??$_Uninit_move@PAUNewShopPullDownItem@@PAU1@V?$allocator@UNewShopPullDownItem@@@std@@U1@@std@@YAPAUNewShopPullDownItem@@PAU1@00AAV?$allocator@UNewShopPullDownItem@@@0@0U_Nonscalar_ptr_iterator_tag@0@@Z DD 019930522H
	DD	02H
	DD	FLAT:__unwindtable$??$_Uninit_move@PAUNewShopPullDownItem@@PAU1@V?$allocator@UNewShopPullDownItem@@@std@@U1@@std@@YAPAUNewShopPullDownItem@@PAU1@00AAV?$allocator@UNewShopPullDownItem@@@0@0U_Nonscalar_ptr_iterator_tag@0@@Z
	DD	01H
	DD	FLAT:__tryblocktable$??$_Uninit_move@PAUNewShopPullDownItem@@PAU1@V?$allocator@UNewShopPullDownItem@@@std@@U1@@std@@YAPAUNewShopPullDownItem@@PAU1@00AAV?$allocator@UNewShopPullDownItem@@@0@0U_Nonscalar_ptr_iterator_tag@0@@Z
	DD	2 DUP(00H)
	DD	00H
	DD	01H
; Function compile flags: /Ogsp
; File c:\program files (x86)\microsoft visual studio 10.0\vc\include\memory
xdata$x	ENDS
;	COMDAT ??$_Uninit_move@PAUNewShopPullDownItem@@PAU1@V?$allocator@UNewShopPullDownItem@@@std@@U1@@std@@YAPAUNewShopPullDownItem@@PAU1@00AAV?$allocator@UNewShopPullDownItem@@@0@0U_Nonscalar_ptr_iterator_tag@0@@Z
_TEXT	SEGMENT
__Next$ = -20						; size = 4
__$EHRec$ = -16						; size = 16
__First$ = 8						; size = 4
__Last$ = 12						; size = 4
__Dest$ = 16						; size = 4
__Al$ = 20						; size = 4
___formal$ = 24						; size = 4
___formal$ = 28						; size = 1
??$_Uninit_move@PAUNewShopPullDownItem@@PAU1@V?$allocator@UNewShopPullDownItem@@@std@@U1@@std@@YAPAUNewShopPullDownItem@@PAU1@00AAV?$allocator@UNewShopPullDownItem@@@0@0U_Nonscalar_ptr_iterator_tag@0@@Z PROC ; std::_Uninit_move<NewShopPullDownItem *,NewShopPullDownItem *,std::allocator<NewShopPullDownItem>,NewShopPullDownItem>, COMDAT

; 424  : 	{	// move [_First, _Last) to raw _Dest, using _Al, arbitrary type

  00000	6a 08		 push	 8
  00002	b8 00 00 00 00	 mov	 eax, __ehhandler$??$_Uninit_move@PAUNewShopPullDownItem@@PAU1@V?$allocator@UNewShopPullDownItem@@@std@@U1@@std@@YAPAUNewShopPullDownItem@@PAU1@00AAV?$allocator@UNewShopPullDownItem@@@0@0U_Nonscalar_ptr_iterator_tag@0@@Z
  00007	e8 00 00 00 00	 call	 __EH_prolog3_catch

; 425  : 	_DEBUG_RANGE(_First, _Last);
; 426  : 	_DEBUG_POINTER(_Dest);
; 427  : 	_FwdIt _Next = _Dest;

  0000c	8b 45 10	 mov	 eax, DWORD PTR __Dest$[ebp]

; 428  : 
; 429  : 	_TRY_BEGIN

  0000f	83 65 fc 00	 and	 DWORD PTR __$EHRec$[ebp+12], 0
  00013	8b 75 08	 mov	 esi, DWORD PTR __First$[ebp]
  00016	89 45 ec	 mov	 DWORD PTR __Next$[ebp], eax
$LL6@Uninit_mov@3:

; 430  : 	for (; _First != _Last; ++_Dest, ++_First)

  00019	3b 75 0c	 cmp	 esi, DWORD PTR __Last$[ebp]
  0001c	74 35		 je	 SHORT $LN4@Uninit_mov@3

; 431  : 		_Cons_val(_Al, _Dest, (_Valty &&)*_First);

  0001e	56		 push	 esi
  0001f	ff 75 10	 push	 DWORD PTR __Dest$[ebp]
  00022	ff 75 14	 push	 DWORD PTR __Al$[ebp]
  00025	e8 00 00 00 00	 call	 ??$_Cons_val@V?$allocator@UNewShopPullDownItem@@@std@@UNewShopPullDownItem@@U3@@std@@YAXAAV?$allocator@UNewShopPullDownItem@@@0@PAUNewShopPullDownItem@@$$QAU2@@Z ; std::_Cons_val<std::allocator<NewShopPullDownItem>,NewShopPullDownItem,NewShopPullDownItem>
  0002a	83 45 10 50	 add	 DWORD PTR __Dest$[ebp], 80 ; 00000050H
  0002e	83 c4 0c	 add	 esp, 12			; 0000000cH
  00031	83 c6 50	 add	 esi, 80			; 00000050H
  00034	eb e3		 jmp	 SHORT $LL6@Uninit_mov@3
__catch$??$_Uninit_move@PAUNewShopPullDownItem@@PAU1@V?$allocator@UNewShopPullDownItem@@@std@@U1@@std@@YAPAUNewShopPullDownItem@@PAU1@00AAV?$allocator@UNewShopPullDownItem@@@0@0U_Nonscalar_ptr_iterator_tag@0@@Z$0:

; 432  : 	_CATCH_ALL
; 433  : 	for (; _Next != _Dest; ++_Next)

  00036	8b 75 ec	 mov	 esi, DWORD PTR __Next$[ebp]
  00039	eb 0a		 jmp	 SHORT $LN29@Uninit_mov@3
$LL3@Uninit_mov@3:

; 434  : 		_Dest_val(_Al, _Next);

  0003b	8b ce		 mov	 ecx, esi
  0003d	e8 00 00 00 00	 call	 ??1NewShopPullDownItem@@QAE@XZ
  00042	83 c6 50	 add	 esi, 80			; 00000050H
$LN29@Uninit_mov@3:

; 432  : 	_CATCH_ALL
; 433  : 	for (; _Next != _Dest; ++_Next)

  00045	3b 75 10	 cmp	 esi, DWORD PTR __Dest$[ebp]
  00048	75 f1		 jne	 SHORT $LL3@Uninit_mov@3

; 435  : 	_RERAISE;

  0004a	6a 00		 push	 0
  0004c	6a 00		 push	 0
  0004e	e8 00 00 00 00	 call	 __CxxThrowException@8
$LN30@Uninit_mov@3:
$LN4@Uninit_mov@3:

; 436  : 	_CATCH_END
; 437  : 	return (_Dest);

  00053	8b 45 10	 mov	 eax, DWORD PTR __Dest$[ebp]

; 438  : 	}

  00056	e8 00 00 00 00	 call	 __EH_epilog3
  0005b	c3		 ret	 0
$LN28@Uninit_mov@3:
_TEXT	ENDS
;	COMDAT text$x
text$x	SEGMENT
__ehhandler$??$_Uninit_move@PAUNewShopPullDownItem@@PAU1@V?$allocator@UNewShopPullDownItem@@@std@@U1@@std@@YAPAUNewShopPullDownItem@@PAU1@00AAV?$allocator@UNewShopPullDownItem@@@0@0U_Nonscalar_ptr_iterator_tag@0@@Z:
  00000	8b 54 24 08	 mov	 edx, DWORD PTR [esp+8]
  00004	8d 42 0c	 lea	 eax, DWORD PTR [edx+12]
  00007	8b 4a e8	 mov	 ecx, DWORD PTR [edx-24]
  0000a	33 c8		 xor	 ecx, eax
  0000c	e8 00 00 00 00	 call	 @__security_check_cookie@4
  00011	b8 00 00 00 00	 mov	 eax, OFFSET __ehfuncinfo$??$_Uninit_move@PAUNewShopPullDownItem@@PAU1@V?$allocator@UNewShopPullDownItem@@@std@@U1@@std@@YAPAUNewShopPullDownItem@@PAU1@00AAV?$allocator@UNewShopPullDownItem@@@0@0U_Nonscalar_ptr_iterator_tag@0@@Z
  00016	e9 00 00 00 00	 jmp	 ___CxxFrameHandler3
text$x	ENDS
??$_Uninit_move@PAUNewShopPullDownItem@@PAU1@V?$allocator@UNewShopPullDownItem@@@std@@U1@@std@@YAPAUNewShopPullDownItem@@PAU1@00AAV?$allocator@UNewShopPullDownItem@@@0@0U_Nonscalar_ptr_iterator_tag@0@@Z ENDP ; std::_Uninit_move<NewShopPullDownItem *,NewShopPullDownItem *,std::allocator<NewShopPullDownItem>,NewShopPullDownItem>
PUBLIC	??$_Sort_heap@PAUInvenItemInfo@@VCompoundItemInfoSort1@@@std@@YAXPAUInvenItemInfo@@0VCompoundItemInfoSort1@@@Z ; std::_Sort_heap<InvenItemInfo *,CompoundItemInfoSort1>
; Function compile flags: /Ogsp
; File c:\program files (x86)\microsoft visual studio 10.0\vc\include\algorithm
;	COMDAT ??$_Sort_heap@PAUInvenItemInfo@@VCompoundItemInfoSort1@@@std@@YAXPAUInvenItemInfo@@0VCompoundItemInfoSort1@@@Z
_TEXT	SEGMENT
__First$ = 8						; size = 4
__Last$ = 12						; size = 4
__Pred$ = 16						; size = 1
??$_Sort_heap@PAUInvenItemInfo@@VCompoundItemInfoSort1@@@std@@YAXPAUInvenItemInfo@@0VCompoundItemInfoSort1@@@Z PROC ; std::_Sort_heap<InvenItemInfo *,CompoundItemInfoSort1>, COMDAT

; 2700 : 	{	// order heap by repeatedly popping, using _Pred

  00000	55		 push	 ebp
  00001	8b ec		 mov	 ebp, esp

; 2701 : 	for (; 1 < _Last - _First; --_Last)

  00003	8b 4d 0c	 mov	 ecx, DWORD PTR __Last$[ebp]
  00006	2b 4d 08	 sub	 ecx, DWORD PTR __First$[ebp]
  00009	57		 push	 edi
  0000a	8b c1		 mov	 eax, ecx
  0000c	6a 0c		 push	 12			; 0000000cH
  0000e	99		 cdq
  0000f	5f		 pop	 edi
  00010	f7 ff		 idiv	 edi
  00012	83 f8 01	 cmp	 eax, 1
  00015	7e 29		 jle	 SHORT $LN1@Sort_heap
  00017	8b f9		 mov	 edi, ecx
$LL3@Sort_heap:

; 2702 : 		_Pop_heap(_First, _Last, _Pred);

  00019	6a 00		 push	 0
  0001b	ff 75 10	 push	 DWORD PTR __Pred$[ebp]
  0001e	ff 75 0c	 push	 DWORD PTR __Last$[ebp]
  00021	ff 75 08	 push	 DWORD PTR __First$[ebp]
  00024	e8 00 00 00 00	 call	 ??$_Pop_heap_0@PAUInvenItemInfo@@U1@VCompoundItemInfoSort1@@@std@@YAXPAUInvenItemInfo@@0VCompoundItemInfoSort1@@0@Z ; std::_Pop_heap_0<InvenItemInfo *,InvenItemInfo,CompoundItemInfoSort1>
  00029	83 c4 10	 add	 esp, 16			; 00000010H
  0002c	83 ef 0c	 sub	 edi, 12			; 0000000cH
  0002f	8b c7		 mov	 eax, edi
  00031	6a 0c		 push	 12			; 0000000cH
  00033	99		 cdq
  00034	59		 pop	 ecx
  00035	f7 f9		 idiv	 ecx
  00037	83 6d 0c 0c	 sub	 DWORD PTR __Last$[ebp], 12 ; 0000000cH
  0003b	83 f8 01	 cmp	 eax, 1
  0003e	7f d9		 jg	 SHORT $LL3@Sort_heap
$LN1@Sort_heap:
  00040	5f		 pop	 edi

; 2703 : 	}

  00041	5d		 pop	 ebp
  00042	c3		 ret	 0
??$_Sort_heap@PAUInvenItemInfo@@VCompoundItemInfoSort1@@@std@@YAXPAUInvenItemInfo@@0VCompoundItemInfoSort1@@@Z ENDP ; std::_Sort_heap<InvenItemInfo *,CompoundItemInfoSort1>
_TEXT	ENDS
PUBLIC	?_Destroy@?$vector@UInvenItemInfo@@V?$allocator@UInvenItemInfo@@@std@@@std@@IAEXPAUInvenItemInfo@@0@Z ; std::vector<InvenItemInfo,std::allocator<InvenItemInfo> >::_Destroy
; Function compile flags: /Ogsp
; File c:\program files (x86)\microsoft visual studio 10.0\vc\include\vector
;	COMDAT ?_Destroy@?$vector@UInvenItemInfo@@V?$allocator@UInvenItemInfo@@@std@@@std@@IAEXPAUInvenItemInfo@@0@Z
_TEXT	SEGMENT
__First$ = 8						; size = 4
__Last$ = 12						; size = 4
?_Destroy@?$vector@UInvenItemInfo@@V?$allocator@UInvenItemInfo@@@std@@@std@@IAEXPAUInvenItemInfo@@0@Z PROC ; std::vector<InvenItemInfo,std::allocator<InvenItemInfo> >::_Destroy, COMDAT
; _this$ = ecx

; 1270 : 		_Destroy_range(_First, _Last, this->_Alval);
; 1271 : 		}

  00000	c2 08 00	 ret	 8
?_Destroy@?$vector@UInvenItemInfo@@V?$allocator@UInvenItemInfo@@@std@@@std@@IAEXPAUInvenItemInfo@@0@Z ENDP ; std::vector<InvenItemInfo,std::allocator<InvenItemInfo> >::_Destroy
_TEXT	ENDS
PUBLIC	??$_Destroy_range@V?$allocator@UEXTRAITEMSLOT@@@std@@@std@@YAXPAUEXTRAITEMSLOT@@0AAV?$allocator@UEXTRAITEMSLOT@@@0@@Z ; std::_Destroy_range<std::allocator<EXTRAITEMSLOT> >
; Function compile flags: /Ogsp
; File c:\program files (x86)\microsoft visual studio 10.0\vc\include\xmemory
;	COMDAT ??$_Destroy_range@V?$allocator@UEXTRAITEMSLOT@@@std@@@std@@YAXPAUEXTRAITEMSLOT@@0AAV?$allocator@UEXTRAITEMSLOT@@@0@@Z
_TEXT	SEGMENT
__First$ = 8						; size = 4
__Last$ = 12						; size = 4
__Al$ = 16						; size = 4
??$_Destroy_range@V?$allocator@UEXTRAITEMSLOT@@@std@@@std@@YAXPAUEXTRAITEMSLOT@@0AAV?$allocator@UEXTRAITEMSLOT@@@0@@Z PROC ; std::_Destroy_range<std::allocator<EXTRAITEMSLOT> >, COMDAT

; 87   : 	{	// destroy [_First, _Last)

  00000	55		 push	 ebp
  00001	8b ec		 mov	 ebp, esp
  00003	56		 push	 esi

; 88   : 	_Destroy_range(_First, _Last, _Al, _Ptr_cat(_First, _Last));

  00004	8b 75 08	 mov	 esi, DWORD PTR __First$[ebp]
  00007	eb 0a		 jmp	 SHORT $LN21@Destroy_ra@3
$LL7@Destroy_ra@3:
  00009	8b ce		 mov	 ecx, esi
  0000b	e8 00 00 00 00	 call	 ??1EXTRAITEMSLOT@@QAE@XZ
  00010	83 c6 48	 add	 esi, 72			; 00000048H
$LN21@Destroy_ra@3:
  00013	3b 75 0c	 cmp	 esi, DWORD PTR __Last$[ebp]
  00016	75 f1		 jne	 SHORT $LL7@Destroy_ra@3
  00018	5e		 pop	 esi

; 89   : 	}

  00019	5d		 pop	 ebp
  0001a	c3		 ret	 0
??$_Destroy_range@V?$allocator@UEXTRAITEMSLOT@@@std@@@std@@YAXPAUEXTRAITEMSLOT@@0AAV?$allocator@UEXTRAITEMSLOT@@@0@@Z ENDP ; std::_Destroy_range<std::allocator<EXTRAITEMSLOT> >
_TEXT	ENDS
PUBLIC	??$_Destroy_range@V?$allocator@UNewShopPullDownItem@@@std@@@std@@YAXPAUNewShopPullDownItem@@0AAV?$allocator@UNewShopPullDownItem@@@0@@Z ; std::_Destroy_range<std::allocator<NewShopPullDownItem> >
; Function compile flags: /Ogsp
;	COMDAT ??$_Destroy_range@V?$allocator@UNewShopPullDownItem@@@std@@@std@@YAXPAUNewShopPullDownItem@@0AAV?$allocator@UNewShopPullDownItem@@@0@@Z
_TEXT	SEGMENT
__First$ = 8						; size = 4
__Last$ = 12						; size = 4
__Al$ = 16						; size = 4
??$_Destroy_range@V?$allocator@UNewShopPullDownItem@@@std@@@std@@YAXPAUNewShopPullDownItem@@0AAV?$allocator@UNewShopPullDownItem@@@0@@Z PROC ; std::_Destroy_range<std::allocator<NewShopPullDownItem> >, COMDAT

; 87   : 	{	// destroy [_First, _Last)

  00000	55		 push	 ebp
  00001	8b ec		 mov	 ebp, esp
  00003	56		 push	 esi

; 88   : 	_Destroy_range(_First, _Last, _Al, _Ptr_cat(_First, _Last));

  00004	8b 75 08	 mov	 esi, DWORD PTR __First$[ebp]
  00007	eb 0a		 jmp	 SHORT $LN21@Destroy_ra@4
$LL7@Destroy_ra@4:
  00009	8b ce		 mov	 ecx, esi
  0000b	e8 00 00 00 00	 call	 ??1NewShopPullDownItem@@QAE@XZ
  00010	83 c6 50	 add	 esi, 80			; 00000050H
$LN21@Destroy_ra@4:
  00013	3b 75 0c	 cmp	 esi, DWORD PTR __Last$[ebp]
  00016	75 f1		 jne	 SHORT $LL7@Destroy_ra@4
  00018	5e		 pop	 esi

; 89   : 	}

  00019	5d		 pop	 ebp
  0001a	c3		 ret	 0
??$_Destroy_range@V?$allocator@UNewShopPullDownItem@@@std@@@std@@YAXPAUNewShopPullDownItem@@0AAV?$allocator@UNewShopPullDownItem@@@0@@Z ENDP ; std::_Destroy_range<std::allocator<NewShopPullDownItem> >
_TEXT	ENDS
PUBLIC	??$_Umove@PAUInvenItemInfo@@@?$vector@UInvenItemInfo@@V?$allocator@UInvenItemInfo@@@std@@@std@@IAEPAUInvenItemInfo@@PAU2@00@Z ; std::vector<InvenItemInfo,std::allocator<InvenItemInfo> >::_Umove<InvenItemInfo *>
; Function compile flags: /Ogsp
; File c:\program files (x86)\microsoft visual studio 10.0\vc\include\vector
;	COMDAT ??$_Umove@PAUInvenItemInfo@@@?$vector@UInvenItemInfo@@V?$allocator@UInvenItemInfo@@@std@@@std@@IAEPAUInvenItemInfo@@PAU2@00@Z
_TEXT	SEGMENT
__First$ = 8						; size = 4
__Last$ = 12						; size = 4
__Ptr$ = 16						; size = 4
??$_Umove@PAUInvenItemInfo@@@?$vector@UInvenItemInfo@@V?$allocator@UInvenItemInfo@@@std@@@std@@IAEPAUInvenItemInfo@@PAU2@00@Z PROC ; std::vector<InvenItemInfo,std::allocator<InvenItemInfo> >::_Umove<InvenItemInfo *>, COMDAT
; _this$ = ecx

; 1322 : 		pointer _Umove(_Iter _First, _Iter _Last, pointer _Ptr)

  00000	55		 push	 ebp
  00001	8b ec		 mov	 ebp, esp

; 1323 : 		{	// move initializing [_First, _Last), using allocator
; 1324 : 		return (_Uninitialized_move(_First, _Last,
; 1325 : 			_Ptr, this->_Alval));

  00003	83 c1 0c	 add	 ecx, 12			; 0000000cH
  00006	51		 push	 ecx
  00007	ff 75 10	 push	 DWORD PTR __Ptr$[ebp]
  0000a	ff 75 0c	 push	 DWORD PTR __Last$[ebp]
  0000d	ff 75 08	 push	 DWORD PTR __First$[ebp]
  00010	e8 00 00 00 00	 call	 ??$_Uninitialized_move@PAUInvenItemInfo@@PAU1@V?$allocator@UInvenItemInfo@@@std@@@std@@YAPAUInvenItemInfo@@PAU1@00AAV?$allocator@UInvenItemInfo@@@0@@Z ; std::_Uninitialized_move<InvenItemInfo *,InvenItemInfo *,std::allocator<InvenItemInfo> >
  00015	83 c4 10	 add	 esp, 16			; 00000010H

; 1326 : 		}

  00018	5d		 pop	 ebp
  00019	c2 0c 00	 ret	 12			; 0000000cH
??$_Umove@PAUInvenItemInfo@@@?$vector@UInvenItemInfo@@V?$allocator@UInvenItemInfo@@@std@@@std@@IAEPAUInvenItemInfo@@PAU2@00@Z ENDP ; std::vector<InvenItemInfo,std::allocator<InvenItemInfo> >::_Umove<InvenItemInfo *>
_TEXT	ENDS
PUBLIC	??$_Uninitialized_copy@V?$_Vector_const_iterator@V?$_Vector_val@UEXTRAITEMSLOT@@V?$allocator@UEXTRAITEMSLOT@@@std@@@std@@@std@@PAUEXTRAITEMSLOT@@V?$allocator@UEXTRAITEMSLOT@@@2@@std@@YAPAUEXTRAITEMSLOT@@V?$_Vector_const_iterator@V?$_Vector_val@UEXTRAITEMSLOT@@V?$allocator@UEXTRAITEMSLOT@@@std@@@std@@@0@0PAU1@AAV?$allocator@UEXTRAITEMSLOT@@@0@@Z ; std::_Uninitialized_copy<std::_Vector_const_iterator<std::_Vector_val<EXTRAITEMSLOT,std::allocator<EXTRAITEMSLOT> > >,EXTRAITEMSLOT *,std::allocator<EXTRAITEMSLOT> >
; Function compile flags: /Ogsp
; File c:\program files (x86)\microsoft visual studio 10.0\vc\include\memory
;	COMDAT ??$_Uninitialized_copy@V?$_Vector_const_iterator@V?$_Vector_val@UEXTRAITEMSLOT@@V?$allocator@UEXTRAITEMSLOT@@@std@@@std@@@std@@PAUEXTRAITEMSLOT@@V?$allocator@UEXTRAITEMSLOT@@@2@@std@@YAPAUEXTRAITEMSLOT@@V?$_Vector_const_iterator@V?$_Vector_val@UEXTRAITEMSLOT@@V?$allocator@UEXTRAITEMSLOT@@@std@@@std@@@0@0PAU1@AAV?$allocator@UEXTRAITEMSLOT@@@0@@Z
_TEXT	SEGMENT
__Cat$517605 = -4					; size = 1
__First$ = 8						; size = 4
__Last$ = 12						; size = 4
__Dest$ = 16						; size = 4
__Al$ = 20						; size = 4
??$_Uninitialized_copy@V?$_Vector_const_iterator@V?$_Vector_val@UEXTRAITEMSLOT@@V?$allocator@UEXTRAITEMSLOT@@@std@@@std@@@std@@PAUEXTRAITEMSLOT@@V?$allocator@UEXTRAITEMSLOT@@@2@@std@@YAPAUEXTRAITEMSLOT@@V?$_Vector_const_iterator@V?$_Vector_val@UEXTRAITEMSLOT@@V?$allocator@UEXTRAITEMSLOT@@@std@@@std@@@0@0PAU1@AAV?$allocator@UEXTRAITEMSLOT@@@0@@Z PROC ; std::_Uninitialized_copy<std::_Vector_const_iterator<std::_Vector_val<EXTRAITEMSLOT,std::allocator<EXTRAITEMSLOT> > >,EXTRAITEMSLOT *,std::allocator<EXTRAITEMSLOT> >, COMDAT

; 412  : 	{	// copy [_First, _Last) to raw _Dest, using _Al

  00000	55		 push	 ebp
  00001	8b ec		 mov	 ebp, esp
  00003	51		 push	 ecx

; 413  : 	return (_Uninit_copy(_First, _Last, _Dest, _Al,
; 414  : 		_Ptr_cat(_First, _Dest)));

  00004	ff 75 fc	 push	 DWORD PTR __Cat$517605[ebp]
  00007	ff 75 14	 push	 DWORD PTR __Al$[ebp]
  0000a	ff 75 10	 push	 DWORD PTR __Dest$[ebp]
  0000d	ff 75 0c	 push	 DWORD PTR __Last$[ebp]
  00010	ff 75 08	 push	 DWORD PTR __First$[ebp]
  00013	e8 00 00 00 00	 call	 ??$_Uninit_copy@V?$_Vector_const_iterator@V?$_Vector_val@UEXTRAITEMSLOT@@V?$allocator@UEXTRAITEMSLOT@@@std@@@std@@@std@@PAUEXTRAITEMSLOT@@V?$allocator@UEXTRAITEMSLOT@@@2@@std@@YAPAUEXTRAITEMSLOT@@V?$_Vector_const_iterator@V?$_Vector_val@UEXTRAITEMSLOT@@V?$allocator@UEXTRAITEMSLOT@@@std@@@std@@@0@0PAU1@AAV?$allocator@UEXTRAITEMSLOT@@@0@U_Nonscalar_ptr_iterator_tag@0@@Z ; std::_Uninit_copy<std::_Vector_const_iterator<std::_Vector_val<EXTRAITEMSLOT,std::allocator<EXTRAITEMSLOT> > >,EXTRAITEMSLOT *,std::allocator<EXTRAITEMSLOT> >
  00018	83 c4 14	 add	 esp, 20			; 00000014H

; 415  : 	}

  0001b	c9		 leave
  0001c	c3		 ret	 0
??$_Uninitialized_copy@V?$_Vector_const_iterator@V?$_Vector_val@UEXTRAITEMSLOT@@V?$allocator@UEXTRAITEMSLOT@@@std@@@std@@@std@@PAUEXTRAITEMSLOT@@V?$allocator@UEXTRAITEMSLOT@@@2@@std@@YAPAUEXTRAITEMSLOT@@V?$_Vector_const_iterator@V?$_Vector_val@UEXTRAITEMSLOT@@V?$allocator@UEXTRAITEMSLOT@@@std@@@std@@@0@0PAU1@AAV?$allocator@UEXTRAITEMSLOT@@@0@@Z ENDP ; std::_Uninitialized_copy<std::_Vector_const_iterator<std::_Vector_val<EXTRAITEMSLOT,std::allocator<EXTRAITEMSLOT> > >,EXTRAITEMSLOT *,std::allocator<EXTRAITEMSLOT> >
_TEXT	ENDS
PUBLIC	??$_Uninitialized_move@PAUEXTRAITEMSLOT@@PAU1@V?$allocator@UEXTRAITEMSLOT@@@std@@@std@@YAPAUEXTRAITEMSLOT@@PAU1@00AAV?$allocator@UEXTRAITEMSLOT@@@0@@Z ; std::_Uninitialized_move<EXTRAITEMSLOT *,EXTRAITEMSLOT *,std::allocator<EXTRAITEMSLOT> >
; Function compile flags: /Ogsp
;	COMDAT ??$_Uninitialized_move@PAUEXTRAITEMSLOT@@PAU1@V?$allocator@UEXTRAITEMSLOT@@@std@@@std@@YAPAUEXTRAITEMSLOT@@PAU1@00AAV?$allocator@UEXTRAITEMSLOT@@@0@@Z
_TEXT	SEGMENT
__Cat$517612 = -4					; size = 1
__First$ = 8						; size = 4
__Last$ = 12						; size = 4
__Dest$ = 16						; size = 4
__Al$ = 20						; size = 4
??$_Uninitialized_move@PAUEXTRAITEMSLOT@@PAU1@V?$allocator@UEXTRAITEMSLOT@@@std@@@std@@YAPAUEXTRAITEMSLOT@@PAU1@00AAV?$allocator@UEXTRAITEMSLOT@@@0@@Z PROC ; std::_Uninitialized_move<EXTRAITEMSLOT *,EXTRAITEMSLOT *,std::allocator<EXTRAITEMSLOT> >, COMDAT

; 469  : 	{	// move [_First, _Last) to raw _Dest, using _Al

  00000	55		 push	 ebp
  00001	8b ec		 mov	 ebp, esp
  00003	51		 push	 ecx

; 470  : 	return (_Uninit_move(_First, _Last, _Dest, _Al,
; 471  : 		_Val_type(_First), _Ptr_cat(_First, _Dest)));

  00004	ff 75 fc	 push	 DWORD PTR __Cat$517612[ebp]
  00007	6a 00		 push	 0
  00009	ff 75 14	 push	 DWORD PTR __Al$[ebp]
  0000c	ff 75 10	 push	 DWORD PTR __Dest$[ebp]
  0000f	ff 75 0c	 push	 DWORD PTR __Last$[ebp]
  00012	ff 75 08	 push	 DWORD PTR __First$[ebp]
  00015	e8 00 00 00 00	 call	 ??$_Uninit_move@PAUEXTRAITEMSLOT@@PAU1@V?$allocator@UEXTRAITEMSLOT@@@std@@U1@@std@@YAPAUEXTRAITEMSLOT@@PAU1@00AAV?$allocator@UEXTRAITEMSLOT@@@0@0U_Nonscalar_ptr_iterator_tag@0@@Z ; std::_Uninit_move<EXTRAITEMSLOT *,EXTRAITEMSLOT *,std::allocator<EXTRAITEMSLOT>,EXTRAITEMSLOT>
  0001a	83 c4 18	 add	 esp, 24			; 00000018H

; 472  : 	}

  0001d	c9		 leave
  0001e	c3		 ret	 0
??$_Uninitialized_move@PAUEXTRAITEMSLOT@@PAU1@V?$allocator@UEXTRAITEMSLOT@@@std@@@std@@YAPAUEXTRAITEMSLOT@@PAU1@00AAV?$allocator@UEXTRAITEMSLOT@@@0@@Z ENDP ; std::_Uninitialized_move<EXTRAITEMSLOT *,EXTRAITEMSLOT *,std::allocator<EXTRAITEMSLOT> >
_TEXT	ENDS
PUBLIC	??$_Uninitialized_move@PAUNewShopPullDownItem@@PAU1@V?$allocator@UNewShopPullDownItem@@@std@@@std@@YAPAUNewShopPullDownItem@@PAU1@00AAV?$allocator@UNewShopPullDownItem@@@0@@Z ; std::_Uninitialized_move<NewShopPullDownItem *,NewShopPullDownItem *,std::allocator<NewShopPullDownItem> >
; Function compile flags: /Ogsp
;	COMDAT ??$_Uninitialized_move@PAUNewShopPullDownItem@@PAU1@V?$allocator@UNewShopPullDownItem@@@std@@@std@@YAPAUNewShopPullDownItem@@PAU1@00AAV?$allocator@UNewShopPullDownItem@@@0@@Z
_TEXT	SEGMENT
__Cat$517622 = -4					; size = 1
__First$ = 8						; size = 4
__Last$ = 12						; size = 4
__Dest$ = 16						; size = 4
__Al$ = 20						; size = 4
??$_Uninitialized_move@PAUNewShopPullDownItem@@PAU1@V?$allocator@UNewShopPullDownItem@@@std@@@std@@YAPAUNewShopPullDownItem@@PAU1@00AAV?$allocator@UNewShopPullDownItem@@@0@@Z PROC ; std::_Uninitialized_move<NewShopPullDownItem *,NewShopPullDownItem *,std::allocator<NewShopPullDownItem> >, COMDAT

; 469  : 	{	// move [_First, _Last) to raw _Dest, using _Al

  00000	55		 push	 ebp
  00001	8b ec		 mov	 ebp, esp
  00003	51		 push	 ecx

; 470  : 	return (_Uninit_move(_First, _Last, _Dest, _Al,
; 471  : 		_Val_type(_First), _Ptr_cat(_First, _Dest)));

  00004	ff 75 fc	 push	 DWORD PTR __Cat$517622[ebp]
  00007	6a 00		 push	 0
  00009	ff 75 14	 push	 DWORD PTR __Al$[ebp]
  0000c	ff 75 10	 push	 DWORD PTR __Dest$[ebp]
  0000f	ff 75 0c	 push	 DWORD PTR __Last$[ebp]
  00012	ff 75 08	 push	 DWORD PTR __First$[ebp]
  00015	e8 00 00 00 00	 call	 ??$_Uninit_move@PAUNewShopPullDownItem@@PAU1@V?$allocator@UNewShopPullDownItem@@@std@@U1@@std@@YAPAUNewShopPullDownItem@@PAU1@00AAV?$allocator@UNewShopPullDownItem@@@0@0U_Nonscalar_ptr_iterator_tag@0@@Z ; std::_Uninit_move<NewShopPullDownItem *,NewShopPullDownItem *,std::allocator<NewShopPullDownItem>,NewShopPullDownItem>
  0001a	83 c4 18	 add	 esp, 24			; 00000018H

; 472  : 	}

  0001d	c9		 leave
  0001e	c3		 ret	 0
??$_Uninitialized_move@PAUNewShopPullDownItem@@PAU1@V?$allocator@UNewShopPullDownItem@@@std@@@std@@YAPAUNewShopPullDownItem@@PAU1@00AAV?$allocator@UNewShopPullDownItem@@@0@@Z ENDP ; std::_Uninitialized_move<NewShopPullDownItem *,NewShopPullDownItem *,std::allocator<NewShopPullDownItem> >
_TEXT	ENDS
PUBLIC	??$sort_heap@PAUInvenItemInfo@@VCompoundItemInfoSort1@@@std@@YAXPAUInvenItemInfo@@0VCompoundItemInfoSort1@@@Z ; std::sort_heap<InvenItemInfo *,CompoundItemInfoSort1>
; Function compile flags: /Ogsp
; File c:\program files (x86)\microsoft visual studio 10.0\vc\include\algorithm
;	COMDAT ??$sort_heap@PAUInvenItemInfo@@VCompoundItemInfoSort1@@@std@@YAXPAUInvenItemInfo@@0VCompoundItemInfoSort1@@@Z
_TEXT	SEGMENT
__First$ = 8						; size = 4
__Last$ = 12						; size = 4
__Pred$ = 16						; size = 1
??$sort_heap@PAUInvenItemInfo@@VCompoundItemInfoSort1@@@std@@YAXPAUInvenItemInfo@@0VCompoundItemInfoSort1@@@Z PROC ; std::sort_heap<InvenItemInfo *,CompoundItemInfoSort1>, COMDAT

; 2708 : 	{	// order heap by repeatedly popping, using _Pred

  00000	55		 push	 ebp
  00001	8b ec		 mov	 ebp, esp

; 2709 : 	_DEBUG_RANGE(_First, _Last);
; 2710 : 	_DEBUG_POINTER(_Pred);
; 2711 : 	_DEBUG_HEAP_PRED(_First, _Last, _Pred);
; 2712 : 	_Sort_heap(_Unchecked(_First), _Unchecked(_Last), _Pred);

  00003	ff 75 10	 push	 DWORD PTR __Pred$[ebp]
  00006	ff 75 0c	 push	 DWORD PTR __Last$[ebp]
  00009	ff 75 08	 push	 DWORD PTR __First$[ebp]
  0000c	e8 00 00 00 00	 call	 ??$_Sort_heap@PAUInvenItemInfo@@VCompoundItemInfoSort1@@@std@@YAXPAUInvenItemInfo@@0VCompoundItemInfoSort1@@@Z ; std::_Sort_heap<InvenItemInfo *,CompoundItemInfoSort1>
  00011	83 c4 0c	 add	 esp, 12			; 0000000cH

; 2713 : 	}

  00014	5d		 pop	 ebp
  00015	c3		 ret	 0
??$sort_heap@PAUInvenItemInfo@@VCompoundItemInfoSort1@@@std@@YAXPAUInvenItemInfo@@0VCompoundItemInfoSort1@@@Z ENDP ; std::sort_heap<InvenItemInfo *,CompoundItemInfoSort1>
_TEXT	ENDS
PUBLIC	?erase@?$vector@UInvenItemInfo@@V?$allocator@UInvenItemInfo@@@std@@@std@@QAE?AV?$_Vector_iterator@V?$_Vector_val@UInvenItemInfo@@V?$allocator@UInvenItemInfo@@@std@@@std@@@2@V?$_Vector_const_iterator@V?$_Vector_val@UInvenItemInfo@@V?$allocator@UInvenItemInfo@@@std@@@std@@@2@0@Z ; std::vector<InvenItemInfo,std::allocator<InvenItemInfo> >::erase
; Function compile flags: /Ogsp
; File c:\program files (x86)\microsoft visual studio 10.0\vc\include\vector
;	COMDAT ?erase@?$vector@UInvenItemInfo@@V?$allocator@UInvenItemInfo@@@std@@@std@@QAE?AV?$_Vector_iterator@V?$_Vector_val@UInvenItemInfo@@V?$allocator@UInvenItemInfo@@@std@@@std@@@2@V?$_Vector_const_iterator@V?$_Vector_val@UInvenItemInfo@@V?$allocator@UInvenItemInfo@@@std@@@std@@@2@0@Z
_TEXT	SEGMENT
___$ReturnUdt$ = 8					; size = 4
__First_arg$ = 12					; size = 4
__Cat$517709 = 16					; size = 1
__Last_arg$ = 16					; size = 4
?erase@?$vector@UInvenItemInfo@@V?$allocator@UInvenItemInfo@@@std@@@std@@QAE?AV?$_Vector_iterator@V?$_Vector_val@UInvenItemInfo@@V?$allocator@UInvenItemInfo@@@std@@@std@@@2@V?$_Vector_const_iterator@V?$_Vector_val@UInvenItemInfo@@V?$allocator@UInvenItemInfo@@@std@@@std@@@2@0@Z PROC ; std::vector<InvenItemInfo,std::allocator<InvenItemInfo> >::erase, COMDAT
; _this$ = ecx

; 1190 : 		{	// erase [_First, _Last)

  00000	55		 push	 ebp
  00001	8b ec		 mov	 ebp, esp

; 1191 : 		iterator _First = _Make_iter(_First_arg);

  00003	8b 45 0c	 mov	 eax, DWORD PTR __First_arg$[ebp]
  00006	56		 push	 esi
  00007	57		 push	 edi
  00008	8b 7d 08	 mov	 edi, DWORD PTR ___$ReturnUdt$[ebp]
  0000b	8b f1		 mov	 esi, ecx
  0000d	89 07		 mov	 DWORD PTR [edi], eax

; 1192 : 		iterator _Last = _Make_iter(_Last_arg);
; 1193 : 
; 1194 : 		if (_First != _Last)

  0000f	3b 45 10	 cmp	 eax, DWORD PTR __Last_arg$[ebp]
  00012	74 16		 je	 SHORT $LN1@erase

; 1195 : 			{	// worth doing, copy down over hole
; 1196 :  #if _ITERATOR_DEBUG_LEVEL == 2
; 1197 : 			if (_Last < _First || _VICONT(_First) != this
; 1198 : 				|| _VIPTR(_First) < this->_Myfirst
; 1199 : 				|| this->_Mylast < _VIPTR(_Last))
; 1200 : 				_DEBUG_ERROR("vector erase iterator outside range");
; 1201 : 			pointer _Ptr = _Move(_VIPTR(_Last), this->_Mylast,
; 1202 : 				_VIPTR(_First));
; 1203 : 			_Orphan_range(_VIPTR(_First), this->_Mylast);
; 1204 : 
; 1205 :  #else /* _ITERATOR_DEBUG_LEVEL == 2 */
; 1206 : 			pointer _Ptr = _Move(_VIPTR(_Last), this->_Mylast,
; 1207 : 				_VIPTR(_First));

  00014	ff 75 10	 push	 DWORD PTR __Cat$517709[ebp]
  00017	8b 4e 04	 mov	 ecx, DWORD PTR [esi+4]
  0001a	50		 push	 eax
  0001b	51		 push	 ecx
  0001c	ff 75 10	 push	 DWORD PTR __Last_arg$[ebp]
  0001f	e8 00 00 00 00	 call	 ??$_Move@PAUInvenItemInfo@@PAU1@@std@@YAPAUInvenItemInfo@@PAU1@00U_Nonscalar_ptr_iterator_tag@0@@Z ; std::_Move<InvenItemInfo *,InvenItemInfo *>
  00024	83 c4 10	 add	 esp, 16			; 00000010H

; 1208 :  #endif /* _ITERATOR_DEBUG_LEVEL == 2 */
; 1209 : 
; 1210 : 			_Destroy(_Ptr, this->_Mylast);
; 1211 : 			this->_Mylast = _Ptr;

  00027	89 46 04	 mov	 DWORD PTR [esi+4], eax
$LN1@erase:

; 1212 : 			}
; 1213 : 		return (_First);

  0002a	8b c7		 mov	 eax, edi
  0002c	5f		 pop	 edi
  0002d	5e		 pop	 esi

; 1214 : 		}

  0002e	5d		 pop	 ebp
  0002f	c2 0c 00	 ret	 12			; 0000000cH
?erase@?$vector@UInvenItemInfo@@V?$allocator@UInvenItemInfo@@@std@@@std@@QAE?AV?$_Vector_iterator@V?$_Vector_val@UInvenItemInfo@@V?$allocator@UInvenItemInfo@@@std@@@std@@@2@V?$_Vector_const_iterator@V?$_Vector_val@UInvenItemInfo@@V?$allocator@UInvenItemInfo@@@std@@@std@@@2@0@Z ENDP ; std::vector<InvenItemInfo,std::allocator<InvenItemInfo> >::erase
_TEXT	ENDS
PUBLIC	?_Tidy@?$vector@UInvenItemInfo@@V?$allocator@UInvenItemInfo@@@std@@@std@@IAEXXZ ; std::vector<InvenItemInfo,std::allocator<InvenItemInfo> >::_Tidy
EXTRN	__imp_?_Orphan_all@_Container_base0@std@@QAEXXZ:PROC
; Function compile flags: /Ogsp
;	COMDAT ?_Tidy@?$vector@UInvenItemInfo@@V?$allocator@UInvenItemInfo@@@std@@@std@@IAEXXZ
_TEXT	SEGMENT
?_Tidy@?$vector@UInvenItemInfo@@V?$allocator@UInvenItemInfo@@@std@@@std@@IAEXXZ PROC ; std::vector<InvenItemInfo,std::allocator<InvenItemInfo> >::_Tidy, COMDAT
; _this$ = ecx

; 1301 : 		{	// free all storage

  00000	56		 push	 esi
  00001	8b f1		 mov	 esi, ecx

; 1302 : 		if (this->_Myfirst != 0)

  00003	83 3e 00	 cmp	 DWORD PTR [esi], 0
  00006	74 0e		 je	 SHORT $LN21@Tidy

; 1303 : 			{	// something to free, destroy and deallocate it
; 1304 : 			this->_Orphan_all();

  00008	ff 15 00 00 00
	00		 call	 DWORD PTR __imp_?_Orphan_all@_Container_base0@std@@QAEXXZ

; 1305 : 			_Destroy(this->_Myfirst, this->_Mylast);
; 1306 : 			this->_Alval.deallocate(this->_Myfirst,
; 1307 : 				this->_Myend - this->_Myfirst);

  0000e	ff 36		 push	 DWORD PTR [esi]
  00010	e8 00 00 00 00	 call	 ??3@YAXPAX@Z		; operator delete
  00015	59		 pop	 ecx
$LN21@Tidy:

; 1308 : 			}
; 1309 : 		this->_Myfirst = 0;

  00016	83 26 00	 and	 DWORD PTR [esi], 0

; 1310 : 		this->_Mylast = 0;

  00019	83 66 04 00	 and	 DWORD PTR [esi+4], 0

; 1311 : 		this->_Myend = 0;

  0001d	83 66 08 00	 and	 DWORD PTR [esi+8], 0
  00021	5e		 pop	 esi

; 1312 : 		}

  00022	c3		 ret	 0
?_Tidy@?$vector@UInvenItemInfo@@V?$allocator@UInvenItemInfo@@@std@@@std@@IAEXXZ ENDP ; std::vector<InvenItemInfo,std::allocator<InvenItemInfo> >::_Tidy
_TEXT	ENDS
PUBLIC	?_Destroy@?$vector@UEXTRAITEMSLOT@@V?$allocator@UEXTRAITEMSLOT@@@std@@@std@@IAEXPAUEXTRAITEMSLOT@@0@Z ; std::vector<EXTRAITEMSLOT,std::allocator<EXTRAITEMSLOT> >::_Destroy
; Function compile flags: /Ogsp
;	COMDAT ?_Destroy@?$vector@UEXTRAITEMSLOT@@V?$allocator@UEXTRAITEMSLOT@@@std@@@std@@IAEXPAUEXTRAITEMSLOT@@0@Z
_TEXT	SEGMENT
__First$ = 8						; size = 4
__Last$ = 12						; size = 4
?_Destroy@?$vector@UEXTRAITEMSLOT@@V?$allocator@UEXTRAITEMSLOT@@@std@@@std@@IAEXPAUEXTRAITEMSLOT@@0@Z PROC ; std::vector<EXTRAITEMSLOT,std::allocator<EXTRAITEMSLOT> >::_Destroy, COMDAT
; _this$ = ecx

; 1269 : 		{	// destroy [_First, _Last) using allocator

  00000	55		 push	 ebp
  00001	8b ec		 mov	 ebp, esp
  00003	56		 push	 esi

; 1270 : 		_Destroy_range(_First, _Last, this->_Alval);

  00004	8b 75 08	 mov	 esi, DWORD PTR __First$[ebp]
  00007	eb 0a		 jmp	 SHORT $LN23@Destroy
$LL9@Destroy:
  00009	8b ce		 mov	 ecx, esi
  0000b	e8 00 00 00 00	 call	 ??1EXTRAITEMSLOT@@QAE@XZ
  00010	83 c6 48	 add	 esi, 72			; 00000048H
$LN23@Destroy:
  00013	3b 75 0c	 cmp	 esi, DWORD PTR __Last$[ebp]
  00016	75 f1		 jne	 SHORT $LL9@Destroy
  00018	5e		 pop	 esi

; 1271 : 		}

  00019	5d		 pop	 ebp
  0001a	c2 08 00	 ret	 8
?_Destroy@?$vector@UEXTRAITEMSLOT@@V?$allocator@UEXTRAITEMSLOT@@@std@@@std@@IAEXPAUEXTRAITEMSLOT@@0@Z ENDP ; std::vector<EXTRAITEMSLOT,std::allocator<EXTRAITEMSLOT> >::_Destroy
_TEXT	ENDS
PUBLIC	?_Destroy@?$vector@UNewShopPullDownItem@@V?$allocator@UNewShopPullDownItem@@@std@@@std@@IAEXPAUNewShopPullDownItem@@0@Z ; std::vector<NewShopPullDownItem,std::allocator<NewShopPullDownItem> >::_Destroy
; Function compile flags: /Ogsp
;	COMDAT ?_Destroy@?$vector@UNewShopPullDownItem@@V?$allocator@UNewShopPullDownItem@@@std@@@std@@IAEXPAUNewShopPullDownItem@@0@Z
_TEXT	SEGMENT
__First$ = 8						; size = 4
__Last$ = 12						; size = 4
?_Destroy@?$vector@UNewShopPullDownItem@@V?$allocator@UNewShopPullDownItem@@@std@@@std@@IAEXPAUNewShopPullDownItem@@0@Z PROC ; std::vector<NewShopPullDownItem,std::allocator<NewShopPullDownItem> >::_Destroy, COMDAT
; _this$ = ecx

; 1269 : 		{	// destroy [_First, _Last) using allocator

  00000	55		 push	 ebp
  00001	8b ec		 mov	 ebp, esp
  00003	56		 push	 esi

; 1270 : 		_Destroy_range(_First, _Last, this->_Alval);

  00004	8b 75 08	 mov	 esi, DWORD PTR __First$[ebp]
  00007	eb 0a		 jmp	 SHORT $LN23@Destroy@2
$LL9@Destroy@2:
  00009	8b ce		 mov	 ecx, esi
  0000b	e8 00 00 00 00	 call	 ??1NewShopPullDownItem@@QAE@XZ
  00010	83 c6 50	 add	 esi, 80			; 00000050H
$LN23@Destroy@2:
  00013	3b 75 0c	 cmp	 esi, DWORD PTR __Last$[ebp]
  00016	75 f1		 jne	 SHORT $LL9@Destroy@2
  00018	5e		 pop	 esi

; 1271 : 		}

  00019	5d		 pop	 ebp
  0001a	c2 08 00	 ret	 8
?_Destroy@?$vector@UNewShopPullDownItem@@V?$allocator@UNewShopPullDownItem@@@std@@@std@@IAEXPAUNewShopPullDownItem@@0@Z ENDP ; std::vector<NewShopPullDownItem,std::allocator<NewShopPullDownItem> >::_Destroy
_TEXT	ENDS
PUBLIC	?reserve@?$vector@UInvenItemInfo@@V?$allocator@UInvenItemInfo@@@std@@@std@@QAEXI@Z ; std::vector<InvenItemInfo,std::allocator<InvenItemInfo> >::reserve
;	COMDAT xdata$x
; File c:\program files (x86)\microsoft visual studio 10.0\vc\include\xmemory
xdata$x	SEGMENT
__catchsym$?reserve@?$vector@UInvenItemInfo@@V?$allocator@UInvenItemInfo@@@std@@@std@@QAEXI@Z$2 DD 040H
	DD	00H
	DD	00H
	DD	FLAT:__catch$?reserve@?$vector@UInvenItemInfo@@V?$allocator@UInvenItemInfo@@@std@@@std@@QAEXI@Z$0
__unwindtable$?reserve@?$vector@UInvenItemInfo@@V?$allocator@UInvenItemInfo@@@std@@@std@@QAEXI@Z DD 0ffffffffH
	DD	00H
	DD	0ffffffffH
	DD	00H
__tryblocktable$?reserve@?$vector@UInvenItemInfo@@V?$allocator@UInvenItemInfo@@@std@@@std@@QAEXI@Z DD 00H
	DD	00H
	DD	01H
	DD	01H
	DD	FLAT:__catchsym$?reserve@?$vector@UInvenItemInfo@@V?$allocator@UInvenItemInfo@@@std@@@std@@QAEXI@Z$2
__ehfuncinfo$?reserve@?$vector@UInvenItemInfo@@V?$allocator@UInvenItemInfo@@@std@@@std@@QAEXI@Z DD 019930522H
	DD	02H
	DD	FLAT:__unwindtable$?reserve@?$vector@UInvenItemInfo@@V?$allocator@UInvenItemInfo@@@std@@@std@@QAEXI@Z
	DD	01H
	DD	FLAT:__tryblocktable$?reserve@?$vector@UInvenItemInfo@@V?$allocator@UInvenItemInfo@@@std@@@std@@QAEXI@Z
	DD	2 DUP(00H)
	DD	00H
	DD	01H
; Function compile flags: /Ogsp
; File c:\program files (x86)\microsoft visual studio 10.0\vc\include\vector
xdata$x	ENDS
;	COMDAT ?reserve@?$vector@UInvenItemInfo@@V?$allocator@UInvenItemInfo@@@std@@@std@@QAEXI@Z
_TEXT	SEGMENT
__$EHRec$ = -16						; size = 16
__Ptr$512281 = 8					; size = 4
__Count$ = 8						; size = 4
?reserve@?$vector@UInvenItemInfo@@V?$allocator@UInvenItemInfo@@@std@@@std@@QAEXI@Z PROC ; std::vector<InvenItemInfo,std::allocator<InvenItemInfo> >::reserve, COMDAT
; _this$ = ecx

; 746  : 		{	// determine new minimum length of allocated storage

  00000	6a 04		 push	 4
  00002	b8 00 00 00 00	 mov	 eax, __ehhandler$?reserve@?$vector@UInvenItemInfo@@V?$allocator@UInvenItemInfo@@@std@@@std@@QAEXI@Z
  00007	e8 00 00 00 00	 call	 __EH_prolog3_catch
  0000c	8b f1		 mov	 esi, ecx

; 747  : 		if (max_size() < _Count)

  0000e	8b 5d 08	 mov	 ebx, DWORD PTR __Count$[ebp]
  00011	81 fb 55 55 55
	15		 cmp	 ebx, 357913941		; 15555555H
  00017	76 0b		 jbe	 SHORT $LN5@reserve

; 748  : 			_Xlen();	// result too long

  00019	68 00 00 00 00	 push	 OFFSET ??_C@_0BD@OLBABOEK@vector?$DMT?$DO?5too?5long?$AA@
  0001e	ff 15 00 00 00
	00		 call	 DWORD PTR __imp_?_Xlength_error@std@@YAXPBD@Z
$LN56@reserve:
$LN5@reserve:

; 749  : 		else if (capacity() < _Count)

  00024	8b 46 08	 mov	 eax, DWORD PTR [esi+8]
  00027	2b 06		 sub	 eax, DWORD PTR [esi]
  00029	6a 0c		 push	 12			; 0000000cH
  0002b	99		 cdq
  0002c	59		 pop	 ecx
  0002d	f7 f9		 idiv	 ecx
  0002f	3b c3		 cmp	 eax, ebx
  00031	73 6b		 jae	 SHORT $LN3@reserve

; 750  : 			{	// not enough room, reallocate
; 751  : 			pointer _Ptr = this->_Alval.allocate(_Count);

  00033	6a 00		 push	 0
  00035	53		 push	 ebx
  00036	e8 00 00 00 00	 call	 ??$_Allocate@UInvenItemInfo@@@std@@YAPAUInvenItemInfo@@IPAU1@@Z ; std::_Allocate<InvenItemInfo>

; 752  : 
; 753  : 			_TRY_BEGIN
; 754  : 			_Umove(this->_Myfirst, this->_Mylast, _Ptr);

  0003b	8b 0e		 mov	 ecx, DWORD PTR [esi]
  0003d	83 65 fc 00	 and	 DWORD PTR __$EHRec$[ebp+12], 0
  00041	8d 56 0c	 lea	 edx, DWORD PTR [esi+12]
  00044	52		 push	 edx
  00045	89 45 08	 mov	 DWORD PTR __Ptr$512281[ebp], eax
  00048	ff 75 08	 push	 DWORD PTR __Ptr$512281[ebp]
  0004b	8b 46 04	 mov	 eax, DWORD PTR [esi+4]
  0004e	50		 push	 eax
  0004f	51		 push	 ecx
  00050	e8 00 00 00 00	 call	 ??$_Uninitialized_move@PAUInvenItemInfo@@PAU1@V?$allocator@UInvenItemInfo@@@std@@@std@@YAPAUInvenItemInfo@@PAU1@00AAV?$allocator@UInvenItemInfo@@@0@@Z ; std::_Uninitialized_move<InvenItemInfo *,InvenItemInfo *,std::allocator<InvenItemInfo> >

; 758  : 			_CATCH_END
; 759  : 
; 760  : 			size_type _Size = size();

  00055	8b 0e		 mov	 ecx, DWORD PTR [esi]
  00057	8b 46 04	 mov	 eax, DWORD PTR [esi+4]
  0005a	83 c4 18	 add	 esp, 24			; 00000018H
  0005d	2b c1		 sub	 eax, ecx
  0005f	6a 0c		 push	 12			; 0000000cH
  00061	99		 cdq
  00062	5f		 pop	 edi
  00063	f7 ff		 idiv	 edi
  00065	83 4d fc ff	 or	 DWORD PTR __$EHRec$[ebp+12], -1
  00069	8b f8		 mov	 edi, eax
  0006b	85 c9		 test	 ecx, ecx
  0006d	74 12		 je	 SHORT $LN48@reserve

; 761  : 			if (this->_Myfirst != 0)

  0006f	eb 03		 jmp	 SHORT $LN55@reserve

; 762  : 				{	// destroy and deallocate old array
; 763  : 				_Destroy(this->_Myfirst, this->_Mylast);

$LL39@reserve:
  00071	83 c1 0c	 add	 ecx, 12			; 0000000cH
$LN55@reserve:
  00074	3b 4e 04	 cmp	 ecx, DWORD PTR [esi+4]
  00077	75 f8		 jne	 SHORT $LL39@reserve

; 764  : 				this->_Alval.deallocate(this->_Myfirst,
; 765  : 					this->_Myend - this->_Myfirst);

  00079	ff 36		 push	 DWORD PTR [esi]
  0007b	e8 00 00 00 00	 call	 ??3@YAXPAX@Z		; operator delete
  00080	59		 pop	 ecx
$LN48@reserve:

; 766  : 				}
; 767  : 
; 768  : 			this->_Orphan_all();

  00081	8b ce		 mov	 ecx, esi
  00083	ff 15 00 00 00
	00		 call	 DWORD PTR __imp_?_Orphan_all@_Container_base0@std@@QAEXXZ

; 769  : 			this->_Myend = _Ptr + _Count;

  00089	6b db 0c	 imul	 ebx, 12			; 0000000cH

; 770  : 			this->_Mylast = _Ptr + _Size;

  0008c	6b ff 0c	 imul	 edi, 12			; 0000000cH
  0008f	8b 45 08	 mov	 eax, DWORD PTR __Ptr$512281[ebp]
  00092	03 d8		 add	 ebx, eax
  00094	03 f8		 add	 edi, eax
  00096	89 5e 08	 mov	 DWORD PTR [esi+8], ebx
  00099	89 7e 04	 mov	 DWORD PTR [esi+4], edi

; 771  : 			this->_Myfirst = _Ptr;

  0009c	89 06		 mov	 DWORD PTR [esi], eax
$LN3@reserve:

; 772  : 			}
; 773  : 		}

  0009e	e8 00 00 00 00	 call	 __EH_epilog3
  000a3	c2 04 00	 ret	 4
__catch$?reserve@?$vector@UInvenItemInfo@@V?$allocator@UInvenItemInfo@@@std@@@std@@QAEXI@Z$0:

; 755  : 			_CATCH_ALL
; 756  : 			this->_Alval.deallocate(_Ptr, _Count);

  000a6	ff 75 08	 push	 DWORD PTR __Ptr$512281[ebp]
  000a9	e8 00 00 00 00	 call	 ??3@YAXPAX@Z		; operator delete
  000ae	59		 pop	 ecx

; 757  : 			_RERAISE;

  000af	6a 00		 push	 0
  000b1	6a 00		 push	 0
  000b3	e8 00 00 00 00	 call	 __CxxThrowException@8
$LN57@reserve:
$LN54@reserve:
  000b8	cc		 int	 3
_TEXT	ENDS
;	COMDAT text$x
text$x	SEGMENT
__ehhandler$?reserve@?$vector@UInvenItemInfo@@V?$allocator@UInvenItemInfo@@@std@@@std@@QAEXI@Z:
  00000	8b 54 24 08	 mov	 edx, DWORD PTR [esp+8]
  00004	8d 42 0c	 lea	 eax, DWORD PTR [edx+12]
  00007	8b 4a ec	 mov	 ecx, DWORD PTR [edx-20]
  0000a	33 c8		 xor	 ecx, eax
  0000c	e8 00 00 00 00	 call	 @__security_check_cookie@4
  00011	b8 00 00 00 00	 mov	 eax, OFFSET __ehfuncinfo$?reserve@?$vector@UInvenItemInfo@@V?$allocator@UInvenItemInfo@@@std@@@std@@QAEXI@Z
  00016	e9 00 00 00 00	 jmp	 ___CxxFrameHandler3
text$x	ENDS
?reserve@?$vector@UInvenItemInfo@@V?$allocator@UInvenItemInfo@@@std@@@std@@QAEXI@Z ENDP ; std::vector<InvenItemInfo,std::allocator<InvenItemInfo> >::reserve
PUBLIC	??$_Ucopy@V?$_Vector_const_iterator@V?$_Vector_val@UEXTRAITEMSLOT@@V?$allocator@UEXTRAITEMSLOT@@@std@@@std@@@std@@@?$vector@UEXTRAITEMSLOT@@V?$allocator@UEXTRAITEMSLOT@@@std@@@std@@IAEPAUEXTRAITEMSLOT@@V?$_Vector_const_iterator@V?$_Vector_val@UEXTRAITEMSLOT@@V?$allocator@UEXTRAITEMSLOT@@@std@@@std@@@1@0PAU2@@Z ; std::vector<EXTRAITEMSLOT,std::allocator<EXTRAITEMSLOT> >::_Ucopy<std::_Vector_const_iterator<std::_Vector_val<EXTRAITEMSLOT,std::allocator<EXTRAITEMSLOT> > > >
; Function compile flags: /Ogsp
;	COMDAT ??$_Ucopy@V?$_Vector_const_iterator@V?$_Vector_val@UEXTRAITEMSLOT@@V?$allocator@UEXTRAITEMSLOT@@@std@@@std@@@std@@@?$vector@UEXTRAITEMSLOT@@V?$allocator@UEXTRAITEMSLOT@@@std@@@std@@IAEPAUEXTRAITEMSLOT@@V?$_Vector_const_iterator@V?$_Vector_val@UEXTRAITEMSLOT@@V?$allocator@UEXTRAITEMSLOT@@@std@@@std@@@1@0PAU2@@Z
_TEXT	SEGMENT
__First$ = 8						; size = 4
__Last$ = 12						; size = 4
__Cat$518164 = 16					; size = 1
__Ptr$ = 16						; size = 4
??$_Ucopy@V?$_Vector_const_iterator@V?$_Vector_val@UEXTRAITEMSLOT@@V?$allocator@UEXTRAITEMSLOT@@@std@@@std@@@std@@@?$vector@UEXTRAITEMSLOT@@V?$allocator@UEXTRAITEMSLOT@@@std@@@std@@IAEPAUEXTRAITEMSLOT@@V?$_Vector_const_iterator@V?$_Vector_val@UEXTRAITEMSLOT@@V?$allocator@UEXTRAITEMSLOT@@@std@@@std@@@1@0PAU2@@Z PROC ; std::vector<EXTRAITEMSLOT,std::allocator<EXTRAITEMSLOT> >::_Ucopy<std::_Vector_const_iterator<std::_Vector_val<EXTRAITEMSLOT,std::allocator<EXTRAITEMSLOT> > > >, COMDAT
; _this$ = ecx

; 1315 : 		pointer _Ucopy(_Iter _First, _Iter _Last, pointer _Ptr)

  00000	55		 push	 ebp
  00001	8b ec		 mov	 ebp, esp

; 1316 : 		{	// copy initializing [_First, _Last), using allocator
; 1317 : 		return (_Uninitialized_copy(_First, _Last,
; 1318 : 			_Ptr, this->_Alval));

  00003	ff 75 10	 push	 DWORD PTR __Cat$518164[ebp]
  00006	83 c1 0c	 add	 ecx, 12			; 0000000cH
  00009	51		 push	 ecx
  0000a	ff 75 10	 push	 DWORD PTR __Ptr$[ebp]
  0000d	ff 75 0c	 push	 DWORD PTR __Last$[ebp]
  00010	ff 75 08	 push	 DWORD PTR __First$[ebp]
  00013	e8 00 00 00 00	 call	 ??$_Uninit_copy@V?$_Vector_const_iterator@V?$_Vector_val@UEXTRAITEMSLOT@@V?$allocator@UEXTRAITEMSLOT@@@std@@@std@@@std@@PAUEXTRAITEMSLOT@@V?$allocator@UEXTRAITEMSLOT@@@2@@std@@YAPAUEXTRAITEMSLOT@@V?$_Vector_const_iterator@V?$_Vector_val@UEXTRAITEMSLOT@@V?$allocator@UEXTRAITEMSLOT@@@std@@@std@@@0@0PAU1@AAV?$allocator@UEXTRAITEMSLOT@@@0@U_Nonscalar_ptr_iterator_tag@0@@Z ; std::_Uninit_copy<std::_Vector_const_iterator<std::_Vector_val<EXTRAITEMSLOT,std::allocator<EXTRAITEMSLOT> > >,EXTRAITEMSLOT *,std::allocator<EXTRAITEMSLOT> >
  00018	83 c4 14	 add	 esp, 20			; 00000014H

; 1319 : 		}

  0001b	5d		 pop	 ebp
  0001c	c2 0c 00	 ret	 12			; 0000000cH
??$_Ucopy@V?$_Vector_const_iterator@V?$_Vector_val@UEXTRAITEMSLOT@@V?$allocator@UEXTRAITEMSLOT@@@std@@@std@@@std@@@?$vector@UEXTRAITEMSLOT@@V?$allocator@UEXTRAITEMSLOT@@@std@@@std@@IAEPAUEXTRAITEMSLOT@@V?$_Vector_const_iterator@V?$_Vector_val@UEXTRAITEMSLOT@@V?$allocator@UEXTRAITEMSLOT@@@std@@@std@@@1@0PAU2@@Z ENDP ; std::vector<EXTRAITEMSLOT,std::allocator<EXTRAITEMSLOT> >::_Ucopy<std::_Vector_const_iterator<std::_Vector_val<EXTRAITEMSLOT,std::allocator<EXTRAITEMSLOT> > > >
_TEXT	ENDS
PUBLIC	??$_Umove@PAUEXTRAITEMSLOT@@@?$vector@UEXTRAITEMSLOT@@V?$allocator@UEXTRAITEMSLOT@@@std@@@std@@IAEPAUEXTRAITEMSLOT@@PAU2@00@Z ; std::vector<EXTRAITEMSLOT,std::allocator<EXTRAITEMSLOT> >::_Umove<EXTRAITEMSLOT *>
; Function compile flags: /Ogsp
;	COMDAT ??$_Umove@PAUEXTRAITEMSLOT@@@?$vector@UEXTRAITEMSLOT@@V?$allocator@UEXTRAITEMSLOT@@@std@@@std@@IAEPAUEXTRAITEMSLOT@@PAU2@00@Z
_TEXT	SEGMENT
__First$ = 8						; size = 4
__Last$ = 12						; size = 4
__Ptr$ = 16						; size = 4
??$_Umove@PAUEXTRAITEMSLOT@@@?$vector@UEXTRAITEMSLOT@@V?$allocator@UEXTRAITEMSLOT@@@std@@@std@@IAEPAUEXTRAITEMSLOT@@PAU2@00@Z PROC ; std::vector<EXTRAITEMSLOT,std::allocator<EXTRAITEMSLOT> >::_Umove<EXTRAITEMSLOT *>, COMDAT
; _this$ = ecx

; 1322 : 		pointer _Umove(_Iter _First, _Iter _Last, pointer _Ptr)

  00000	55		 push	 ebp
  00001	8b ec		 mov	 ebp, esp

; 1323 : 		{	// move initializing [_First, _Last), using allocator
; 1324 : 		return (_Uninitialized_move(_First, _Last,
; 1325 : 			_Ptr, this->_Alval));

  00003	83 c1 0c	 add	 ecx, 12			; 0000000cH
  00006	51		 push	 ecx
  00007	ff 75 10	 push	 DWORD PTR __Ptr$[ebp]
  0000a	ff 75 0c	 push	 DWORD PTR __Last$[ebp]
  0000d	ff 75 08	 push	 DWORD PTR __First$[ebp]
  00010	e8 00 00 00 00	 call	 ??$_Uninitialized_move@PAUEXTRAITEMSLOT@@PAU1@V?$allocator@UEXTRAITEMSLOT@@@std@@@std@@YAPAUEXTRAITEMSLOT@@PAU1@00AAV?$allocator@UEXTRAITEMSLOT@@@0@@Z ; std::_Uninitialized_move<EXTRAITEMSLOT *,EXTRAITEMSLOT *,std::allocator<EXTRAITEMSLOT> >
  00015	83 c4 10	 add	 esp, 16			; 00000010H

; 1326 : 		}

  00018	5d		 pop	 ebp
  00019	c2 0c 00	 ret	 12			; 0000000cH
??$_Umove@PAUEXTRAITEMSLOT@@@?$vector@UEXTRAITEMSLOT@@V?$allocator@UEXTRAITEMSLOT@@@std@@@std@@IAEPAUEXTRAITEMSLOT@@PAU2@00@Z ENDP ; std::vector<EXTRAITEMSLOT,std::allocator<EXTRAITEMSLOT> >::_Umove<EXTRAITEMSLOT *>
_TEXT	ENDS
PUBLIC	??$_Umove@PAUNewShopPullDownItem@@@?$vector@UNewShopPullDownItem@@V?$allocator@UNewShopPullDownItem@@@std@@@std@@IAEPAUNewShopPullDownItem@@PAU2@00@Z ; std::vector<NewShopPullDownItem,std::allocator<NewShopPullDownItem> >::_Umove<NewShopPullDownItem *>
; Function compile flags: /Ogsp
;	COMDAT ??$_Umove@PAUNewShopPullDownItem@@@?$vector@UNewShopPullDownItem@@V?$allocator@UNewShopPullDownItem@@@std@@@std@@IAEPAUNewShopPullDownItem@@PAU2@00@Z
_TEXT	SEGMENT
__First$ = 8						; size = 4
__Last$ = 12						; size = 4
__Ptr$ = 16						; size = 4
??$_Umove@PAUNewShopPullDownItem@@@?$vector@UNewShopPullDownItem@@V?$allocator@UNewShopPullDownItem@@@std@@@std@@IAEPAUNewShopPullDownItem@@PAU2@00@Z PROC ; std::vector<NewShopPullDownItem,std::allocator<NewShopPullDownItem> >::_Umove<NewShopPullDownItem *>, COMDAT
; _this$ = ecx

; 1322 : 		pointer _Umove(_Iter _First, _Iter _Last, pointer _Ptr)

  00000	55		 push	 ebp
  00001	8b ec		 mov	 ebp, esp

; 1323 : 		{	// move initializing [_First, _Last), using allocator
; 1324 : 		return (_Uninitialized_move(_First, _Last,
; 1325 : 			_Ptr, this->_Alval));

  00003	83 c1 0c	 add	 ecx, 12			; 0000000cH
  00006	51		 push	 ecx
  00007	ff 75 10	 push	 DWORD PTR __Ptr$[ebp]
  0000a	ff 75 0c	 push	 DWORD PTR __Last$[ebp]
  0000d	ff 75 08	 push	 DWORD PTR __First$[ebp]
  00010	e8 00 00 00 00	 call	 ??$_Uninitialized_move@PAUNewShopPullDownItem@@PAU1@V?$allocator@UNewShopPullDownItem@@@std@@@std@@YAPAUNewShopPullDownItem@@PAU1@00AAV?$allocator@UNewShopPullDownItem@@@0@@Z ; std::_Uninitialized_move<NewShopPullDownItem *,NewShopPullDownItem *,std::allocator<NewShopPullDownItem> >
  00015	83 c4 10	 add	 esp, 16			; 00000010H

; 1326 : 		}

  00018	5d		 pop	 ebp
  00019	c2 0c 00	 ret	 12			; 0000000cH
??$_Umove@PAUNewShopPullDownItem@@@?$vector@UNewShopPullDownItem@@V?$allocator@UNewShopPullDownItem@@@std@@@std@@IAEPAUNewShopPullDownItem@@PAU2@00@Z ENDP ; std::vector<NewShopPullDownItem,std::allocator<NewShopPullDownItem> >::_Umove<NewShopPullDownItem *>
_TEXT	ENDS
PUBLIC	??$_Sort@PAUInvenItemInfo@@HVCompoundItemInfoSort1@@@std@@YAXPAUInvenItemInfo@@0HVCompoundItemInfoSort1@@@Z ; std::_Sort<InvenItemInfo *,int,CompoundItemInfoSort1>
; Function compile flags: /Ogsp
; File c:\program files (x86)\microsoft visual studio 10.0\vc\include\algorithm
;	COMDAT ??$_Sort@PAUInvenItemInfo@@HVCompoundItemInfoSort1@@@std@@YAXPAUInvenItemInfo@@0HVCompoundItemInfoSort1@@@Z
_TEXT	SEGMENT
__Mid$513511 = -8					; size = 8
__First$ = 8						; size = 4
__Last$ = 12						; size = 4
__Ideal$ = 16						; size = 4
__Pred$ = 20						; size = 1
??$_Sort@PAUInvenItemInfo@@HVCompoundItemInfoSort1@@@std@@YAXPAUInvenItemInfo@@0HVCompoundItemInfoSort1@@@Z PROC ; std::_Sort<InvenItemInfo *,int,CompoundItemInfoSort1>, COMDAT

; 3771 : 	{	// order [_First, _Last), using _Pred

  00000	55		 push	 ebp
  00001	8b ec		 mov	 ebp, esp
  00003	51		 push	 ecx
  00004	51		 push	 ecx
  00005	53		 push	 ebx

; 3772 : 	_Diff _Count;
; 3773 : 	for (; _ISORT_MAX < (_Count = _Last - _First) && 0 < _Ideal; )

  00006	8b 5d 08	 mov	 ebx, DWORD PTR __First$[ebp]
  00009	57		 push	 edi
  0000a	8b 7d 0c	 mov	 edi, DWORD PTR __Last$[ebp]
  0000d	8b c7		 mov	 eax, edi
  0000f	2b c3		 sub	 eax, ebx
  00011	6a 0c		 push	 12			; 0000000cH
  00013	99		 cdq
  00014	59		 pop	 ecx
  00015	f7 f9		 idiv	 ecx
  00017	83 f8 20	 cmp	 eax, 32			; 00000020H
  0001a	0f 8e 9c 00 00
	00		 jle	 $LN22@Sort
  00020	56		 push	 esi
  00021	8b 75 10	 mov	 esi, DWORD PTR __Ideal$[ebp]
$LL7@Sort:
  00024	85 f6		 test	 esi, esi
  00026	7e 75		 jle	 SHORT $LN6@Sort

; 3774 : 		{	// divide and conquer by quicksort
; 3775 : 		_STD pair<_RanIt, _RanIt> _Mid =
; 3776 : 			_Unguarded_partition(_First, _Last, _Pred);

  00028	ff 75 14	 push	 DWORD PTR __Pred$[ebp]
  0002b	8d 45 f8	 lea	 eax, DWORD PTR __Mid$513511[ebp]
  0002e	57		 push	 edi
  0002f	53		 push	 ebx
  00030	50		 push	 eax
  00031	e8 00 00 00 00	 call	 ??$_Unguarded_partition@PAUInvenItemInfo@@VCompoundItemInfoSort1@@@std@@YA?AU?$pair@PAUInvenItemInfo@@PAU1@@0@PAUInvenItemInfo@@0VCompoundItemInfoSort1@@@Z ; std::_Unguarded_partition<InvenItemInfo *,CompoundItemInfoSort1>

; 3777 : 		_Ideal /= 2, _Ideal += _Ideal / 2;	// allow 1.5 log2(N) divisions

  00036	8b c6		 mov	 eax, esi
  00038	99		 cdq
  00039	2b c2		 sub	 eax, edx
  0003b	d1 f8		 sar	 eax, 1
  0003d	8b f0		 mov	 esi, eax
  0003f	99		 cdq
  00040	2b c2		 sub	 eax, edx
  00042	d1 f8		 sar	 eax, 1
  00044	03 f0		 add	 esi, eax
  00046	83 c4 10	 add	 esp, 16			; 00000010H

; 3778 : 
; 3779 : 		if (_Mid.first - _First < _Last - _Mid.second)

  00049	8b c7		 mov	 eax, edi
  0004b	2b 45 fc	 sub	 eax, DWORD PTR __Mid$513511[ebp+4]
  0004e	6a 0c		 push	 12			; 0000000cH
  00050	99		 cdq
  00051	59		 pop	 ecx
  00052	f7 f9		 idiv	 ecx
  00054	6a 0c		 push	 12			; 0000000cH
  00056	8b c8		 mov	 ecx, eax
  00058	8b 45 f8	 mov	 eax, DWORD PTR __Mid$513511[ebp]
  0005b	2b c3		 sub	 eax, ebx
  0005d	5b		 pop	 ebx
  0005e	99		 cdq
  0005f	f7 fb		 idiv	 ebx

; 3780 : 			{	// loop on second half
; 3781 : 			_Sort(_First, _Mid.first, _Ideal, _Pred);

  00061	ff 75 14	 push	 DWORD PTR __Pred$[ebp]
  00064	56		 push	 esi
  00065	3b c1		 cmp	 eax, ecx
  00067	7d 13		 jge	 SHORT $LN5@Sort
  00069	ff 75 f8	 push	 DWORD PTR __Mid$513511[ebp]
  0006c	ff 75 08	 push	 DWORD PTR __First$[ebp]
  0006f	e8 00 00 00 00	 call	 ??$_Sort@PAUInvenItemInfo@@HVCompoundItemInfoSort1@@@std@@YAXPAUInvenItemInfo@@0HVCompoundItemInfoSort1@@@Z ; std::_Sort<InvenItemInfo *,int,CompoundItemInfoSort1>

; 3782 : 			_First = _Mid.second;

  00074	8b 5d fc	 mov	 ebx, DWORD PTR __Mid$513511[ebp+4]
  00077	89 5d 08	 mov	 DWORD PTR __First$[ebp], ebx

; 3783 : 			}
; 3784 : 		else

  0007a	eb 0f		 jmp	 SHORT $LN23@Sort
$LN5@Sort:

; 3785 : 			{	// loop on first half
; 3786 : 			_Sort(_Mid.second, _Last, _Ideal, _Pred);

  0007c	57		 push	 edi
  0007d	ff 75 fc	 push	 DWORD PTR __Mid$513511[ebp+4]
  00080	e8 00 00 00 00	 call	 ??$_Sort@PAUInvenItemInfo@@HVCompoundItemInfoSort1@@@std@@YAXPAUInvenItemInfo@@0HVCompoundItemInfoSort1@@@Z ; std::_Sort<InvenItemInfo *,int,CompoundItemInfoSort1>

; 3787 : 			_Last = _Mid.first;

  00085	8b 7d f8	 mov	 edi, DWORD PTR __Mid$513511[ebp]
  00088	8b 5d 08	 mov	 ebx, DWORD PTR __First$[ebp]
$LN23@Sort:

; 3772 : 	_Diff _Count;
; 3773 : 	for (; _ISORT_MAX < (_Count = _Last - _First) && 0 < _Ideal; )

  0008b	83 c4 10	 add	 esp, 16			; 00000010H
  0008e	8b c7		 mov	 eax, edi
  00090	2b c3		 sub	 eax, ebx
  00092	6a 0c		 push	 12			; 0000000cH
  00094	99		 cdq
  00095	59		 pop	 ecx
  00096	f7 f9		 idiv	 ecx
  00098	83 f8 20	 cmp	 eax, 32			; 00000020H
  0009b	7f 87		 jg	 SHORT $LL7@Sort
$LN6@Sort:
  0009d	5e		 pop	 esi

; 3788 : 			}
; 3789 : 		}
; 3790 : 
; 3791 : 	if (_ISORT_MAX < _Count)

  0009e	83 f8 20	 cmp	 eax, 32			; 00000020H
  000a1	7e 19		 jle	 SHORT $LN22@Sort

; 3792 : 		{	// heap sort if too many divisions
; 3793 : 		_STD make_heap(_First, _Last, _Pred);

  000a3	ff 75 14	 push	 DWORD PTR __Pred$[ebp]
  000a6	57		 push	 edi
  000a7	53		 push	 ebx
  000a8	e8 00 00 00 00	 call	 ??$make_heap@PAUInvenItemInfo@@VCompoundItemInfoSort1@@@std@@YAXPAUInvenItemInfo@@0VCompoundItemInfoSort1@@@Z ; std::make_heap<InvenItemInfo *,CompoundItemInfoSort1>

; 3794 : 		_STD sort_heap(_First, _Last, _Pred);

  000ad	ff 75 14	 push	 DWORD PTR __Pred$[ebp]
  000b0	57		 push	 edi
  000b1	53		 push	 ebx
  000b2	e8 00 00 00 00	 call	 ??$_Sort_heap@PAUInvenItemInfo@@VCompoundItemInfoSort1@@@std@@YAXPAUInvenItemInfo@@0VCompoundItemInfoSort1@@@Z ; std::_Sort_heap<InvenItemInfo *,CompoundItemInfoSort1>
  000b7	83 c4 18	 add	 esp, 24			; 00000018H
  000ba	eb 14		 jmp	 SHORT $LN16@Sort
$LN22@Sort:

; 3795 : 		}
; 3796 : 	else if (1 < _Count)

  000bc	83 f8 01	 cmp	 eax, 1
  000bf	7e 0f		 jle	 SHORT $LN16@Sort

; 3797 : 		_Insertion_sort(_First, _Last, _Pred);	// small

  000c1	6a 00		 push	 0
  000c3	ff 75 14	 push	 DWORD PTR __Pred$[ebp]
  000c6	57		 push	 edi
  000c7	53		 push	 ebx
  000c8	e8 00 00 00 00	 call	 ??$_Insertion_sort1@PAUInvenItemInfo@@VCompoundItemInfoSort1@@U1@@std@@YAXPAUInvenItemInfo@@0VCompoundItemInfoSort1@@0@Z ; std::_Insertion_sort1<InvenItemInfo *,CompoundItemInfoSort1,InvenItemInfo>
  000cd	83 c4 10	 add	 esp, 16			; 00000010H
$LN16@Sort:
  000d0	5f		 pop	 edi
  000d1	5b		 pop	 ebx

; 3798 : 	}

  000d2	c9		 leave
  000d3	c3		 ret	 0
??$_Sort@PAUInvenItemInfo@@HVCompoundItemInfoSort1@@@std@@YAXPAUInvenItemInfo@@0HVCompoundItemInfoSort1@@@Z ENDP ; std::_Sort<InvenItemInfo *,int,CompoundItemInfoSort1>
_TEXT	ENDS
PUBLIC	??1?$vector@UInvenItemInfo@@V?$allocator@UInvenItemInfo@@@std@@@std@@QAE@XZ ; std::vector<InvenItemInfo,std::allocator<InvenItemInfo> >::~vector<InvenItemInfo,std::allocator<InvenItemInfo> >
; Function compile flags: /Ogsp
; File c:\program files (x86)\microsoft visual studio 10.0\vc\include\vector
;	COMDAT ??1?$vector@UInvenItemInfo@@V?$allocator@UInvenItemInfo@@@std@@@std@@QAE@XZ
_TEXT	SEGMENT
??1?$vector@UInvenItemInfo@@V?$allocator@UInvenItemInfo@@@std@@@std@@QAE@XZ PROC ; std::vector<InvenItemInfo,std::allocator<InvenItemInfo> >::~vector<InvenItemInfo,std::allocator<InvenItemInfo> >, COMDAT
; _this$ = ecx

; 705  : 		_Tidy();

  00000	e9 00 00 00 00	 jmp	 ?_Tidy@?$vector@UInvenItemInfo@@V?$allocator@UInvenItemInfo@@@std@@@std@@IAEXXZ ; std::vector<InvenItemInfo,std::allocator<InvenItemInfo> >::_Tidy
??1?$vector@UInvenItemInfo@@V?$allocator@UInvenItemInfo@@@std@@@std@@QAE@XZ ENDP ; std::vector<InvenItemInfo,std::allocator<InvenItemInfo> >::~vector<InvenItemInfo,std::allocator<InvenItemInfo> >
_TEXT	ENDS
PUBLIC	?clear@?$vector@UInvenItemInfo@@V?$allocator@UInvenItemInfo@@@std@@@std@@QAEXXZ ; std::vector<InvenItemInfo,std::allocator<InvenItemInfo> >::clear
; Function compile flags: /Ogsp
;	COMDAT ?clear@?$vector@UInvenItemInfo@@V?$allocator@UInvenItemInfo@@@std@@@std@@QAEXXZ
_TEXT	SEGMENT
$T518212 = -4						; size = 4
?clear@?$vector@UInvenItemInfo@@V?$allocator@UInvenItemInfo@@@std@@@std@@QAEXXZ PROC ; std::vector<InvenItemInfo,std::allocator<InvenItemInfo> >::clear, COMDAT
; _this$ = ecx

; 1217 : 		{	// erase all

  00000	55		 push	 ebp
  00001	8b ec		 mov	 ebp, esp
  00003	51		 push	 ecx

; 1218 : 		erase(begin(), end());

  00004	8b 41 04	 mov	 eax, DWORD PTR [ecx+4]
  00007	8b 11		 mov	 edx, DWORD PTR [ecx]
  00009	50		 push	 eax
  0000a	52		 push	 edx
  0000b	8d 45 fc	 lea	 eax, DWORD PTR $T518212[ebp]
  0000e	50		 push	 eax
  0000f	e8 00 00 00 00	 call	 ?erase@?$vector@UInvenItemInfo@@V?$allocator@UInvenItemInfo@@@std@@@std@@QAE?AV?$_Vector_iterator@V?$_Vector_val@UInvenItemInfo@@V?$allocator@UInvenItemInfo@@@std@@@std@@@2@V?$_Vector_const_iterator@V?$_Vector_val@UInvenItemInfo@@V?$allocator@UInvenItemInfo@@@std@@@std@@@2@0@Z ; std::vector<InvenItemInfo,std::allocator<InvenItemInfo> >::erase

; 1219 : 		}

  00014	c9		 leave
  00015	c3		 ret	 0
?clear@?$vector@UInvenItemInfo@@V?$allocator@UInvenItemInfo@@@std@@@std@@QAEXXZ ENDP ; std::vector<InvenItemInfo,std::allocator<InvenItemInfo> >::clear
_TEXT	ENDS
PUBLIC	?erase@?$vector@UEXTRAITEMSLOT@@V?$allocator@UEXTRAITEMSLOT@@@std@@@std@@QAE?AV?$_Vector_iterator@V?$_Vector_val@UEXTRAITEMSLOT@@V?$allocator@UEXTRAITEMSLOT@@@std@@@std@@@2@V?$_Vector_const_iterator@V?$_Vector_val@UEXTRAITEMSLOT@@V?$allocator@UEXTRAITEMSLOT@@@std@@@std@@@2@0@Z ; std::vector<EXTRAITEMSLOT,std::allocator<EXTRAITEMSLOT> >::erase
; Function compile flags: /Ogsp
;	COMDAT ?erase@?$vector@UEXTRAITEMSLOT@@V?$allocator@UEXTRAITEMSLOT@@@std@@@std@@QAE?AV?$_Vector_iterator@V?$_Vector_val@UEXTRAITEMSLOT@@V?$allocator@UEXTRAITEMSLOT@@@std@@@std@@@2@V?$_Vector_const_iterator@V?$_Vector_val@UEXTRAITEMSLOT@@V?$allocator@UEXTRAITEMSLOT@@@std@@@std@@@2@0@Z
_TEXT	SEGMENT
$T518393 = -4						; size = 4
___$ReturnUdt$ = 8					; size = 4
__First_arg$ = 12					; size = 4
__Cat$518338 = 16					; size = 1
__Last_arg$ = 16					; size = 4
?erase@?$vector@UEXTRAITEMSLOT@@V?$allocator@UEXTRAITEMSLOT@@@std@@@std@@QAE?AV?$_Vector_iterator@V?$_Vector_val@UEXTRAITEMSLOT@@V?$allocator@UEXTRAITEMSLOT@@@std@@@std@@@2@V?$_Vector_const_iterator@V?$_Vector_val@UEXTRAITEMSLOT@@V?$allocator@UEXTRAITEMSLOT@@@std@@@std@@@2@0@Z PROC ; std::vector<EXTRAITEMSLOT,std::allocator<EXTRAITEMSLOT> >::erase, COMDAT
; _this$ = ecx

; 1190 : 		{	// erase [_First, _Last)

  00000	55		 push	 ebp
  00001	8b ec		 mov	 ebp, esp
  00003	51		 push	 ecx

; 1191 : 		iterator _First = _Make_iter(_First_arg);

  00004	8b 45 08	 mov	 eax, DWORD PTR ___$ReturnUdt$[ebp]
  00007	56		 push	 esi
  00008	8b f1		 mov	 esi, ecx
  0000a	8b 4d 0c	 mov	 ecx, DWORD PTR __First_arg$[ebp]
  0000d	89 08		 mov	 DWORD PTR [eax], ecx

; 1192 : 		iterator _Last = _Make_iter(_Last_arg);
; 1193 : 
; 1194 : 		if (_First != _Last)

  0000f	3b 4d 10	 cmp	 ecx, DWORD PTR __Last_arg$[ebp]
  00012	74 37		 je	 SHORT $LN1@erase@2

; 1195 : 			{	// worth doing, copy down over hole
; 1196 :  #if _ITERATOR_DEBUG_LEVEL == 2
; 1197 : 			if (_Last < _First || _VICONT(_First) != this
; 1198 : 				|| _VIPTR(_First) < this->_Myfirst
; 1199 : 				|| this->_Mylast < _VIPTR(_Last))
; 1200 : 				_DEBUG_ERROR("vector erase iterator outside range");
; 1201 : 			pointer _Ptr = _Move(_VIPTR(_Last), this->_Mylast,
; 1202 : 				_VIPTR(_First));
; 1203 : 			_Orphan_range(_VIPTR(_First), this->_Mylast);
; 1204 : 
; 1205 :  #else /* _ITERATOR_DEBUG_LEVEL == 2 */
; 1206 : 			pointer _Ptr = _Move(_VIPTR(_Last), this->_Mylast,
; 1207 : 				_VIPTR(_First));

  00014	8b 46 04	 mov	 eax, DWORD PTR [esi+4]
  00017	53		 push	 ebx
  00018	57		 push	 edi
  00019	ff 75 10	 push	 DWORD PTR __Cat$518338[ebp]
  0001c	51		 push	 ecx
  0001d	50		 push	 eax
  0001e	ff 75 10	 push	 DWORD PTR __Last_arg$[ebp]
  00021	e8 00 00 00 00	 call	 ??$_Move@PAUEXTRAITEMSLOT@@PAU1@@std@@YAPAUEXTRAITEMSLOT@@PAU1@00U_Nonscalar_ptr_iterator_tag@0@@Z ; std::_Move<EXTRAITEMSLOT *,EXTRAITEMSLOT *>

; 1208 :  #endif /* _ITERATOR_DEBUG_LEVEL == 2 */
; 1209 : 
; 1210 : 			_Destroy(_Ptr, this->_Mylast);

  00026	8b 7e 04	 mov	 edi, DWORD PTR [esi+4]
  00029	8b d8		 mov	 ebx, eax
  0002b	83 c4 10	 add	 esp, 16			; 00000010H
  0002e	89 5d fc	 mov	 DWORD PTR $T518393[ebp], ebx
  00031	3b df		 cmp	 ebx, edi
  00033	74 11		 je	 SHORT $LN36@erase@2
$LL52@erase@2:
  00035	8b 4d fc	 mov	 ecx, DWORD PTR $T518393[ebp]
  00038	e8 00 00 00 00	 call	 ??1EXTRAITEMSLOT@@QAE@XZ
  0003d	83 45 fc 48	 add	 DWORD PTR $T518393[ebp], 72 ; 00000048H
  00041	39 7d fc	 cmp	 DWORD PTR $T518393[ebp], edi
  00044	75 ef		 jne	 SHORT $LL52@erase@2
$LN36@erase@2:

; 1211 : 			this->_Mylast = _Ptr;

  00046	5f		 pop	 edi
  00047	89 5e 04	 mov	 DWORD PTR [esi+4], ebx
  0004a	5b		 pop	 ebx
$LN1@erase@2:

; 1212 : 			}
; 1213 : 		return (_First);

  0004b	8b 45 08	 mov	 eax, DWORD PTR ___$ReturnUdt$[ebp]
  0004e	5e		 pop	 esi

; 1214 : 		}

  0004f	c9		 leave
  00050	c2 0c 00	 ret	 12			; 0000000cH
?erase@?$vector@UEXTRAITEMSLOT@@V?$allocator@UEXTRAITEMSLOT@@@std@@@std@@QAE?AV?$_Vector_iterator@V?$_Vector_val@UEXTRAITEMSLOT@@V?$allocator@UEXTRAITEMSLOT@@@std@@@std@@@2@V?$_Vector_const_iterator@V?$_Vector_val@UEXTRAITEMSLOT@@V?$allocator@UEXTRAITEMSLOT@@@std@@@std@@@2@0@Z ENDP ; std::vector<EXTRAITEMSLOT,std::allocator<EXTRAITEMSLOT> >::erase
_TEXT	ENDS
PUBLIC	?_Tidy@?$vector@UEXTRAITEMSLOT@@V?$allocator@UEXTRAITEMSLOT@@@std@@@std@@IAEXXZ ; std::vector<EXTRAITEMSLOT,std::allocator<EXTRAITEMSLOT> >::_Tidy
; Function compile flags: /Ogsp
;	COMDAT ?_Tidy@?$vector@UEXTRAITEMSLOT@@V?$allocator@UEXTRAITEMSLOT@@@std@@@std@@IAEXXZ
_TEXT	SEGMENT
?_Tidy@?$vector@UEXTRAITEMSLOT@@V?$allocator@UEXTRAITEMSLOT@@@std@@@std@@IAEXXZ PROC ; std::vector<EXTRAITEMSLOT,std::allocator<EXTRAITEMSLOT> >::_Tidy, COMDAT
; _this$ = ecx

; 1301 : 		{	// free all storage

  00000	56		 push	 esi
  00001	8b f1		 mov	 esi, ecx

; 1302 : 		if (this->_Myfirst != 0)

  00003	83 3e 00	 cmp	 DWORD PTR [esi], 0
  00006	74 27		 je	 SHORT $LN24@Tidy@2

; 1303 : 			{	// something to free, destroy and deallocate it
; 1304 : 			this->_Orphan_all();

  00008	53		 push	 ebx
  00009	57		 push	 edi
  0000a	ff 15 00 00 00
	00		 call	 DWORD PTR __imp_?_Orphan_all@_Container_base0@std@@QAEXXZ

; 1305 : 			_Destroy(this->_Myfirst, this->_Mylast);

  00010	8b 5e 04	 mov	 ebx, DWORD PTR [esi+4]
  00013	8b 3e		 mov	 edi, DWORD PTR [esi]
  00015	eb 0a		 jmp	 SHORT $LN28@Tidy@2
$LL12@Tidy@2:
  00017	8b cf		 mov	 ecx, edi
  00019	e8 00 00 00 00	 call	 ??1EXTRAITEMSLOT@@QAE@XZ
  0001e	83 c7 48	 add	 edi, 72			; 00000048H
$LN28@Tidy@2:
  00021	3b fb		 cmp	 edi, ebx
  00023	75 f2		 jne	 SHORT $LL12@Tidy@2

; 1306 : 			this->_Alval.deallocate(this->_Myfirst,
; 1307 : 				this->_Myend - this->_Myfirst);

  00025	ff 36		 push	 DWORD PTR [esi]
  00027	e8 00 00 00 00	 call	 ??3@YAXPAX@Z		; operator delete
  0002c	59		 pop	 ecx
  0002d	5f		 pop	 edi
  0002e	5b		 pop	 ebx
$LN24@Tidy@2:

; 1308 : 			}
; 1309 : 		this->_Myfirst = 0;

  0002f	33 c0		 xor	 eax, eax
  00031	89 06		 mov	 DWORD PTR [esi], eax

; 1310 : 		this->_Mylast = 0;

  00033	89 46 04	 mov	 DWORD PTR [esi+4], eax

; 1311 : 		this->_Myend = 0;

  00036	89 46 08	 mov	 DWORD PTR [esi+8], eax
  00039	5e		 pop	 esi

; 1312 : 		}

  0003a	c3		 ret	 0
?_Tidy@?$vector@UEXTRAITEMSLOT@@V?$allocator@UEXTRAITEMSLOT@@@std@@@std@@IAEXXZ ENDP ; std::vector<EXTRAITEMSLOT,std::allocator<EXTRAITEMSLOT> >::_Tidy
_TEXT	ENDS
PUBLIC	?erase@?$vector@UNewShopPullDownItem@@V?$allocator@UNewShopPullDownItem@@@std@@@std@@QAE?AV?$_Vector_iterator@V?$_Vector_val@UNewShopPullDownItem@@V?$allocator@UNewShopPullDownItem@@@std@@@std@@@2@V?$_Vector_const_iterator@V?$_Vector_val@UNewShopPullDownItem@@V?$allocator@UNewShopPullDownItem@@@std@@@std@@@2@0@Z ; std::vector<NewShopPullDownItem,std::allocator<NewShopPullDownItem> >::erase
; Function compile flags: /Ogsp
;	COMDAT ?erase@?$vector@UNewShopPullDownItem@@V?$allocator@UNewShopPullDownItem@@@std@@@std@@QAE?AV?$_Vector_iterator@V?$_Vector_val@UNewShopPullDownItem@@V?$allocator@UNewShopPullDownItem@@@std@@@std@@@2@V?$_Vector_const_iterator@V?$_Vector_val@UNewShopPullDownItem@@V?$allocator@UNewShopPullDownItem@@@std@@@std@@@2@0@Z
_TEXT	SEGMENT
$T518676 = -4						; size = 4
___$ReturnUdt$ = 8					; size = 4
__First_arg$ = 12					; size = 4
__Cat$518621 = 16					; size = 1
__Last_arg$ = 16					; size = 4
?erase@?$vector@UNewShopPullDownItem@@V?$allocator@UNewShopPullDownItem@@@std@@@std@@QAE?AV?$_Vector_iterator@V?$_Vector_val@UNewShopPullDownItem@@V?$allocator@UNewShopPullDownItem@@@std@@@std@@@2@V?$_Vector_const_iterator@V?$_Vector_val@UNewShopPullDownItem@@V?$allocator@UNewShopPullDownItem@@@std@@@std@@@2@0@Z PROC ; std::vector<NewShopPullDownItem,std::allocator<NewShopPullDownItem> >::erase, COMDAT
; _this$ = ecx

; 1190 : 		{	// erase [_First, _Last)

  00000	55		 push	 ebp
  00001	8b ec		 mov	 ebp, esp
  00003	51		 push	 ecx

; 1191 : 		iterator _First = _Make_iter(_First_arg);

  00004	8b 45 08	 mov	 eax, DWORD PTR ___$ReturnUdt$[ebp]
  00007	56		 push	 esi
  00008	8b f1		 mov	 esi, ecx
  0000a	8b 4d 0c	 mov	 ecx, DWORD PTR __First_arg$[ebp]
  0000d	89 08		 mov	 DWORD PTR [eax], ecx

; 1192 : 		iterator _Last = _Make_iter(_Last_arg);
; 1193 : 
; 1194 : 		if (_First != _Last)

  0000f	3b 4d 10	 cmp	 ecx, DWORD PTR __Last_arg$[ebp]
  00012	74 37		 je	 SHORT $LN1@erase@3

; 1195 : 			{	// worth doing, copy down over hole
; 1196 :  #if _ITERATOR_DEBUG_LEVEL == 2
; 1197 : 			if (_Last < _First || _VICONT(_First) != this
; 1198 : 				|| _VIPTR(_First) < this->_Myfirst
; 1199 : 				|| this->_Mylast < _VIPTR(_Last))
; 1200 : 				_DEBUG_ERROR("vector erase iterator outside range");
; 1201 : 			pointer _Ptr = _Move(_VIPTR(_Last), this->_Mylast,
; 1202 : 				_VIPTR(_First));
; 1203 : 			_Orphan_range(_VIPTR(_First), this->_Mylast);
; 1204 : 
; 1205 :  #else /* _ITERATOR_DEBUG_LEVEL == 2 */
; 1206 : 			pointer _Ptr = _Move(_VIPTR(_Last), this->_Mylast,
; 1207 : 				_VIPTR(_First));

  00014	8b 46 04	 mov	 eax, DWORD PTR [esi+4]
  00017	53		 push	 ebx
  00018	57		 push	 edi
  00019	ff 75 10	 push	 DWORD PTR __Cat$518621[ebp]
  0001c	51		 push	 ecx
  0001d	50		 push	 eax
  0001e	ff 75 10	 push	 DWORD PTR __Last_arg$[ebp]
  00021	e8 00 00 00 00	 call	 ??$_Move@PAUNewShopPullDownItem@@PAU1@@std@@YAPAUNewShopPullDownItem@@PAU1@00U_Nonscalar_ptr_iterator_tag@0@@Z ; std::_Move<NewShopPullDownItem *,NewShopPullDownItem *>

; 1208 :  #endif /* _ITERATOR_DEBUG_LEVEL == 2 */
; 1209 : 
; 1210 : 			_Destroy(_Ptr, this->_Mylast);

  00026	8b 7e 04	 mov	 edi, DWORD PTR [esi+4]
  00029	8b d8		 mov	 ebx, eax
  0002b	83 c4 10	 add	 esp, 16			; 00000010H
  0002e	89 5d fc	 mov	 DWORD PTR $T518676[ebp], ebx
  00031	3b df		 cmp	 ebx, edi
  00033	74 11		 je	 SHORT $LN36@erase@3
$LL52@erase@3:
  00035	8b 4d fc	 mov	 ecx, DWORD PTR $T518676[ebp]
  00038	e8 00 00 00 00	 call	 ??1NewShopPullDownItem@@QAE@XZ
  0003d	83 45 fc 50	 add	 DWORD PTR $T518676[ebp], 80 ; 00000050H
  00041	39 7d fc	 cmp	 DWORD PTR $T518676[ebp], edi
  00044	75 ef		 jne	 SHORT $LL52@erase@3
$LN36@erase@3:

; 1211 : 			this->_Mylast = _Ptr;

  00046	5f		 pop	 edi
  00047	89 5e 04	 mov	 DWORD PTR [esi+4], ebx
  0004a	5b		 pop	 ebx
$LN1@erase@3:

; 1212 : 			}
; 1213 : 		return (_First);

  0004b	8b 45 08	 mov	 eax, DWORD PTR ___$ReturnUdt$[ebp]
  0004e	5e		 pop	 esi

; 1214 : 		}

  0004f	c9		 leave
  00050	c2 0c 00	 ret	 12			; 0000000cH
?erase@?$vector@UNewShopPullDownItem@@V?$allocator@UNewShopPullDownItem@@@std@@@std@@QAE?AV?$_Vector_iterator@V?$_Vector_val@UNewShopPullDownItem@@V?$allocator@UNewShopPullDownItem@@@std@@@std@@@2@V?$_Vector_const_iterator@V?$_Vector_val@UNewShopPullDownItem@@V?$allocator@UNewShopPullDownItem@@@std@@@std@@@2@0@Z ENDP ; std::vector<NewShopPullDownItem,std::allocator<NewShopPullDownItem> >::erase
_TEXT	ENDS
PUBLIC	?_Tidy@?$vector@UNewShopPullDownItem@@V?$allocator@UNewShopPullDownItem@@@std@@@std@@IAEXXZ ; std::vector<NewShopPullDownItem,std::allocator<NewShopPullDownItem> >::_Tidy
; Function compile flags: /Ogsp
;	COMDAT ?_Tidy@?$vector@UNewShopPullDownItem@@V?$allocator@UNewShopPullDownItem@@@std@@@std@@IAEXXZ
_TEXT	SEGMENT
?_Tidy@?$vector@UNewShopPullDownItem@@V?$allocator@UNewShopPullDownItem@@@std@@@std@@IAEXXZ PROC ; std::vector<NewShopPullDownItem,std::allocator<NewShopPullDownItem> >::_Tidy, COMDAT
; _this$ = ecx

; 1301 : 		{	// free all storage

  00000	56		 push	 esi
  00001	8b f1		 mov	 esi, ecx

; 1302 : 		if (this->_Myfirst != 0)

  00003	83 3e 00	 cmp	 DWORD PTR [esi], 0
  00006	74 27		 je	 SHORT $LN24@Tidy@3

; 1303 : 			{	// something to free, destroy and deallocate it
; 1304 : 			this->_Orphan_all();

  00008	53		 push	 ebx
  00009	57		 push	 edi
  0000a	ff 15 00 00 00
	00		 call	 DWORD PTR __imp_?_Orphan_all@_Container_base0@std@@QAEXXZ

; 1305 : 			_Destroy(this->_Myfirst, this->_Mylast);

  00010	8b 5e 04	 mov	 ebx, DWORD PTR [esi+4]
  00013	8b 3e		 mov	 edi, DWORD PTR [esi]
  00015	eb 0a		 jmp	 SHORT $LN28@Tidy@3
$LL12@Tidy@3:
  00017	8b cf		 mov	 ecx, edi
  00019	e8 00 00 00 00	 call	 ??1NewShopPullDownItem@@QAE@XZ
  0001e	83 c7 50	 add	 edi, 80			; 00000050H
$LN28@Tidy@3:
  00021	3b fb		 cmp	 edi, ebx
  00023	75 f2		 jne	 SHORT $LL12@Tidy@3

; 1306 : 			this->_Alval.deallocate(this->_Myfirst,
; 1307 : 				this->_Myend - this->_Myfirst);

  00025	ff 36		 push	 DWORD PTR [esi]
  00027	e8 00 00 00 00	 call	 ??3@YAXPAX@Z		; operator delete
  0002c	59		 pop	 ecx
  0002d	5f		 pop	 edi
  0002e	5b		 pop	 ebx
$LN24@Tidy@3:

; 1308 : 			}
; 1309 : 		this->_Myfirst = 0;

  0002f	33 c0		 xor	 eax, eax
  00031	89 06		 mov	 DWORD PTR [esi], eax

; 1310 : 		this->_Mylast = 0;

  00033	89 46 04	 mov	 DWORD PTR [esi+4], eax

; 1311 : 		this->_Myend = 0;

  00036	89 46 08	 mov	 DWORD PTR [esi+8], eax
  00039	5e		 pop	 esi

; 1312 : 		}

  0003a	c3		 ret	 0
?_Tidy@?$vector@UNewShopPullDownItem@@V?$allocator@UNewShopPullDownItem@@@std@@@std@@IAEXXZ ENDP ; std::vector<NewShopPullDownItem,std::allocator<NewShopPullDownItem> >::_Tidy
_TEXT	ENDS
PUBLIC	?_Reserve@?$vector@UInvenItemInfo@@V?$allocator@UInvenItemInfo@@@std@@@std@@IAEXI@Z ; std::vector<InvenItemInfo,std::allocator<InvenItemInfo> >::_Reserve
; Function compile flags: /Ogsp
;	COMDAT ?_Reserve@?$vector@UInvenItemInfo@@V?$allocator@UInvenItemInfo@@@std@@@std@@IAEXI@Z
_TEXT	SEGMENT
__Count$ = 8						; size = 4
?_Reserve@?$vector@UInvenItemInfo@@V?$allocator@UInvenItemInfo@@@std@@@std@@IAEXI@Z PROC ; std::vector<InvenItemInfo,std::allocator<InvenItemInfo> >::_Reserve, COMDAT
; _this$ = ecx

; 1290 : 		{	// ensure room for _Count new elements, grow exponentially

  00000	55		 push	 ebp
  00001	8b ec		 mov	 ebp, esp
  00003	56		 push	 esi
  00004	8b f1		 mov	 esi, ecx

; 1291 : 		size_type _Size = size();

  00006	8b 0e		 mov	 ecx, DWORD PTR [esi]
  00008	8b 46 04	 mov	 eax, DWORD PTR [esi+4]
  0000b	2b c1		 sub	 eax, ecx
  0000d	57		 push	 edi
  0000e	99		 cdq
  0000f	6a 0c		 push	 12			; 0000000cH
  00011	5f		 pop	 edi
  00012	f7 ff		 idiv	 edi
  00014	8b f8		 mov	 edi, eax

; 1292 : 		if (max_size() - _Count < _Size)

  00016	b8 55 55 55 15	 mov	 eax, 357913941		; 15555555H
  0001b	2b 45 08	 sub	 eax, DWORD PTR __Count$[ebp]
  0001e	3b c7		 cmp	 eax, edi
  00020	73 0b		 jae	 SHORT $LN4@Reserve

; 1293 : 			_Xlen();

  00022	68 00 00 00 00	 push	 OFFSET ??_C@_0BD@OLBABOEK@vector?$DMT?$DO?5too?5long?$AA@
  00027	ff 15 00 00 00
	00		 call	 DWORD PTR __imp_?_Xlength_error@std@@YAXPBD@Z
$LN21@Reserve:
$LN4@Reserve:

; 1294 : 		else if ((_Size += _Count) <= capacity())

  0002d	8b 46 08	 mov	 eax, DWORD PTR [esi+8]
  00030	2b c1		 sub	 eax, ecx
  00032	6a 0c		 push	 12			; 0000000cH
  00034	99		 cdq
  00035	59		 pop	 ecx
  00036	f7 f9		 idiv	 ecx
  00038	03 7d 08	 add	 edi, DWORD PTR __Count$[ebp]
  0003b	3b f8		 cmp	 edi, eax
  0003d	76 10		 jbe	 SHORT $LN1@Reserve

; 1295 : 			;
; 1296 : 		else
; 1297 : 			reserve(_Grow_to(_Size));

  0003f	57		 push	 edi
  00040	8b ce		 mov	 ecx, esi
  00042	e8 00 00 00 00	 call	 ?_Grow_to@?$vector@UInvenItemInfo@@V?$allocator@UInvenItemInfo@@@std@@@std@@IBEII@Z ; std::vector<InvenItemInfo,std::allocator<InvenItemInfo> >::_Grow_to
  00047	50		 push	 eax
  00048	8b ce		 mov	 ecx, esi
  0004a	e8 00 00 00 00	 call	 ?reserve@?$vector@UInvenItemInfo@@V?$allocator@UInvenItemInfo@@@std@@@std@@QAEXI@Z ; std::vector<InvenItemInfo,std::allocator<InvenItemInfo> >::reserve
$LN1@Reserve:
  0004f	5f		 pop	 edi
  00050	5e		 pop	 esi

; 1298 : 		}

  00051	5d		 pop	 ebp
  00052	c2 04 00	 ret	 4
$LN20@Reserve:
?_Reserve@?$vector@UInvenItemInfo@@V?$allocator@UInvenItemInfo@@@std@@@std@@IAEXI@Z ENDP ; std::vector<InvenItemInfo,std::allocator<InvenItemInfo> >::_Reserve
_TEXT	ENDS
PUBLIC	?reserve@?$vector@UEXTRAITEMSLOT@@V?$allocator@UEXTRAITEMSLOT@@@std@@@std@@QAEXI@Z ; std::vector<EXTRAITEMSLOT,std::allocator<EXTRAITEMSLOT> >::reserve
;	COMDAT xdata$x
; File c:\program files (x86)\microsoft visual studio 10.0\vc\include\xmemory
xdata$x	SEGMENT
__catchsym$?reserve@?$vector@UEXTRAITEMSLOT@@V?$allocator@UEXTRAITEMSLOT@@@std@@@std@@QAEXI@Z$2 DD 040H
	DD	00H
	DD	00H
	DD	FLAT:__catch$?reserve@?$vector@UEXTRAITEMSLOT@@V?$allocator@UEXTRAITEMSLOT@@@std@@@std@@QAEXI@Z$0
__unwindtable$?reserve@?$vector@UEXTRAITEMSLOT@@V?$allocator@UEXTRAITEMSLOT@@@std@@@std@@QAEXI@Z DD 0ffffffffH
	DD	00H
	DD	0ffffffffH
	DD	00H
__tryblocktable$?reserve@?$vector@UEXTRAITEMSLOT@@V?$allocator@UEXTRAITEMSLOT@@@std@@@std@@QAEXI@Z DD 00H
	DD	00H
	DD	01H
	DD	01H
	DD	FLAT:__catchsym$?reserve@?$vector@UEXTRAITEMSLOT@@V?$allocator@UEXTRAITEMSLOT@@@std@@@std@@QAEXI@Z$2
__ehfuncinfo$?reserve@?$vector@UEXTRAITEMSLOT@@V?$allocator@UEXTRAITEMSLOT@@@std@@@std@@QAEXI@Z DD 019930522H
	DD	02H
	DD	FLAT:__unwindtable$?reserve@?$vector@UEXTRAITEMSLOT@@V?$allocator@UEXTRAITEMSLOT@@@std@@@std@@QAEXI@Z
	DD	01H
	DD	FLAT:__tryblocktable$?reserve@?$vector@UEXTRAITEMSLOT@@V?$allocator@UEXTRAITEMSLOT@@@std@@@std@@QAEXI@Z
	DD	2 DUP(00H)
	DD	00H
	DD	01H
; Function compile flags: /Ogsp
; File c:\program files (x86)\microsoft visual studio 10.0\vc\include\vector
xdata$x	ENDS
;	COMDAT ?reserve@?$vector@UEXTRAITEMSLOT@@V?$allocator@UEXTRAITEMSLOT@@@std@@@std@@QAEXI@Z
_TEXT	SEGMENT
__Ptr$512195 = -24					; size = 4
$T518952 = -20						; size = 4
__$EHRec$ = -16						; size = 16
__Count$ = 8						; size = 4
?reserve@?$vector@UEXTRAITEMSLOT@@V?$allocator@UEXTRAITEMSLOT@@@std@@@std@@QAEXI@Z PROC ; std::vector<EXTRAITEMSLOT,std::allocator<EXTRAITEMSLOT> >::reserve, COMDAT
; _this$ = ecx

; 746  : 		{	// determine new minimum length of allocated storage

  00000	6a 0c		 push	 12			; 0000000cH
  00002	b8 00 00 00 00	 mov	 eax, __ehhandler$?reserve@?$vector@UEXTRAITEMSLOT@@V?$allocator@UEXTRAITEMSLOT@@@std@@@std@@QAEXI@Z
  00007	e8 00 00 00 00	 call	 __EH_prolog3_catch
  0000c	8b f1		 mov	 esi, ecx

; 747  : 		if (max_size() < _Count)

  0000e	81 7d 08 e3 38
	8e 03		 cmp	 DWORD PTR __Count$[ebp], 59652323 ; 038e38e3H
  00015	76 0b		 jbe	 SHORT $LN5@reserve@2

; 748  : 			_Xlen();	// result too long

  00017	68 00 00 00 00	 push	 OFFSET ??_C@_0BD@OLBABOEK@vector?$DMT?$DO?5too?5long?$AA@
  0001c	ff 15 00 00 00
	00		 call	 DWORD PTR __imp_?_Xlength_error@std@@YAXPBD@Z
$LN59@reserve@2:
$LN5@reserve@2:

; 749  : 		else if (capacity() < _Count)

  00022	8b 46 08	 mov	 eax, DWORD PTR [esi+8]
  00025	2b 06		 sub	 eax, DWORD PTR [esi]
  00027	6a 48		 push	 72			; 00000048H
  00029	99		 cdq
  0002a	59		 pop	 ecx
  0002b	f7 f9		 idiv	 ecx
  0002d	3b 45 08	 cmp	 eax, DWORD PTR __Count$[ebp]
  00030	0f 83 80 00 00
	00		 jae	 $LN3@reserve@2

; 750  : 			{	// not enough room, reallocate
; 751  : 			pointer _Ptr = this->_Alval.allocate(_Count);

  00036	6a 00		 push	 0
  00038	ff 75 08	 push	 DWORD PTR __Count$[ebp]
  0003b	e8 00 00 00 00	 call	 ??$_Allocate@UEXTRAITEMSLOT@@@std@@YAPAUEXTRAITEMSLOT@@IPAU1@@Z ; std::_Allocate<EXTRAITEMSLOT>

; 752  : 
; 753  : 			_TRY_BEGIN
; 754  : 			_Umove(this->_Myfirst, this->_Mylast, _Ptr);

  00040	8b 0e		 mov	 ecx, DWORD PTR [esi]
  00042	83 65 fc 00	 and	 DWORD PTR __$EHRec$[ebp+12], 0
  00046	8d 56 0c	 lea	 edx, DWORD PTR [esi+12]
  00049	52		 push	 edx
  0004a	89 45 e8	 mov	 DWORD PTR __Ptr$512195[ebp], eax
  0004d	ff 75 e8	 push	 DWORD PTR __Ptr$512195[ebp]
  00050	8b 46 04	 mov	 eax, DWORD PTR [esi+4]
  00053	50		 push	 eax
  00054	51		 push	 ecx
  00055	e8 00 00 00 00	 call	 ??$_Uninitialized_move@PAUEXTRAITEMSLOT@@PAU1@V?$allocator@UEXTRAITEMSLOT@@@std@@@std@@YAPAUEXTRAITEMSLOT@@PAU1@00AAV?$allocator@UEXTRAITEMSLOT@@@0@@Z ; std::_Uninitialized_move<EXTRAITEMSLOT *,EXTRAITEMSLOT *,std::allocator<EXTRAITEMSLOT> >

; 758  : 			_CATCH_END
; 759  : 
; 760  : 			size_type _Size = size();

  0005a	8b 5e 04	 mov	 ebx, DWORD PTR [esi+4]
  0005d	8b 0e		 mov	 ecx, DWORD PTR [esi]
  0005f	83 c4 18	 add	 esp, 24			; 00000018H
  00062	8b c3		 mov	 eax, ebx
  00064	2b c1		 sub	 eax, ecx
  00066	6a 48		 push	 72			; 00000048H
  00068	99		 cdq
  00069	5f		 pop	 edi
  0006a	f7 ff		 idiv	 edi
  0006c	83 4d fc ff	 or	 DWORD PTR __$EHRec$[ebp+12], -1
  00070	8b f8		 mov	 edi, eax
  00072	85 c9		 test	 ecx, ecx
  00074	74 20		 je	 SHORT $LN51@reserve@2

; 761  : 			if (this->_Myfirst != 0)
; 762  : 				{	// destroy and deallocate old array
; 763  : 				_Destroy(this->_Myfirst, this->_Mylast);

  00076	89 4d ec	 mov	 DWORD PTR $T518952[ebp], ecx
  00079	3b cb		 cmp	 ecx, ebx
  0007b	74 11		 je	 SHORT $LN37@reserve@2
$LN39@reserve@2:
  0007d	8b 4d ec	 mov	 ecx, DWORD PTR $T518952[ebp]
  00080	e8 00 00 00 00	 call	 ??1EXTRAITEMSLOT@@QAE@XZ
  00085	83 45 ec 48	 add	 DWORD PTR $T518952[ebp], 72 ; 00000048H
  00089	39 5d ec	 cmp	 DWORD PTR $T518952[ebp], ebx
  0008c	75 ef		 jne	 SHORT $LN39@reserve@2
$LN37@reserve@2:

; 764  : 				this->_Alval.deallocate(this->_Myfirst,
; 765  : 					this->_Myend - this->_Myfirst);

  0008e	ff 36		 push	 DWORD PTR [esi]
  00090	e8 00 00 00 00	 call	 ??3@YAXPAX@Z		; operator delete
  00095	59		 pop	 ecx
$LN51@reserve@2:

; 766  : 				}
; 767  : 
; 768  : 			this->_Orphan_all();

  00096	8b ce		 mov	 ecx, esi
  00098	ff 15 00 00 00
	00		 call	 DWORD PTR __imp_?_Orphan_all@_Container_base0@std@@QAEXXZ

; 769  : 			this->_Myend = _Ptr + _Count;
; 770  : 			this->_Mylast = _Ptr + _Size;

  0009e	6b ff 48	 imul	 edi, 72			; 00000048H
  000a1	8b 45 08	 mov	 eax, DWORD PTR __Count$[ebp]
  000a4	8b 4d e8	 mov	 ecx, DWORD PTR __Ptr$512195[ebp]
  000a7	6b c0 48	 imul	 eax, 72			; 00000048H
  000aa	03 c1		 add	 eax, ecx
  000ac	03 f9		 add	 edi, ecx
  000ae	89 46 08	 mov	 DWORD PTR [esi+8], eax
  000b1	89 7e 04	 mov	 DWORD PTR [esi+4], edi

; 771  : 			this->_Myfirst = _Ptr;

  000b4	89 0e		 mov	 DWORD PTR [esi], ecx
$LN3@reserve@2:

; 772  : 			}
; 773  : 		}

  000b6	e8 00 00 00 00	 call	 __EH_epilog3
  000bb	c2 04 00	 ret	 4
__catch$?reserve@?$vector@UEXTRAITEMSLOT@@V?$allocator@UEXTRAITEMSLOT@@@std@@@std@@QAEXI@Z$0:

; 755  : 			_CATCH_ALL
; 756  : 			this->_Alval.deallocate(_Ptr, _Count);

  000be	ff 75 e8	 push	 DWORD PTR __Ptr$512195[ebp]
  000c1	e8 00 00 00 00	 call	 ??3@YAXPAX@Z		; operator delete
  000c6	59		 pop	 ecx

; 757  : 			_RERAISE;

  000c7	6a 00		 push	 0
  000c9	6a 00		 push	 0
  000cb	e8 00 00 00 00	 call	 __CxxThrowException@8
$LN60@reserve@2:
$LN58@reserve@2:
  000d0	cc		 int	 3
_TEXT	ENDS
;	COMDAT text$x
text$x	SEGMENT
__ehhandler$?reserve@?$vector@UEXTRAITEMSLOT@@V?$allocator@UEXTRAITEMSLOT@@@std@@@std@@QAEXI@Z:
  00000	8b 54 24 08	 mov	 edx, DWORD PTR [esp+8]
  00004	8d 42 0c	 lea	 eax, DWORD PTR [edx+12]
  00007	8b 4a e4	 mov	 ecx, DWORD PTR [edx-28]
  0000a	33 c8		 xor	 ecx, eax
  0000c	e8 00 00 00 00	 call	 @__security_check_cookie@4
  00011	b8 00 00 00 00	 mov	 eax, OFFSET __ehfuncinfo$?reserve@?$vector@UEXTRAITEMSLOT@@V?$allocator@UEXTRAITEMSLOT@@@std@@@std@@QAEXI@Z
  00016	e9 00 00 00 00	 jmp	 ___CxxFrameHandler3
text$x	ENDS
?reserve@?$vector@UEXTRAITEMSLOT@@V?$allocator@UEXTRAITEMSLOT@@@std@@@std@@QAEXI@Z ENDP ; std::vector<EXTRAITEMSLOT,std::allocator<EXTRAITEMSLOT> >::reserve
PUBLIC	?reserve@?$vector@UNewShopPullDownItem@@V?$allocator@UNewShopPullDownItem@@@std@@@std@@QAEXI@Z ; std::vector<NewShopPullDownItem,std::allocator<NewShopPullDownItem> >::reserve
;	COMDAT xdata$x
; File c:\program files (x86)\microsoft visual studio 10.0\vc\include\xmemory
xdata$x	SEGMENT
__catchsym$?reserve@?$vector@UNewShopPullDownItem@@V?$allocator@UNewShopPullDownItem@@@std@@@std@@QAEXI@Z$2 DD 040H
	DD	00H
	DD	00H
	DD	FLAT:__catch$?reserve@?$vector@UNewShopPullDownItem@@V?$allocator@UNewShopPullDownItem@@@std@@@std@@QAEXI@Z$0
__unwindtable$?reserve@?$vector@UNewShopPullDownItem@@V?$allocator@UNewShopPullDownItem@@@std@@@std@@QAEXI@Z DD 0ffffffffH
	DD	00H
	DD	0ffffffffH
	DD	00H
__tryblocktable$?reserve@?$vector@UNewShopPullDownItem@@V?$allocator@UNewShopPullDownItem@@@std@@@std@@QAEXI@Z DD 00H
	DD	00H
	DD	01H
	DD	01H
	DD	FLAT:__catchsym$?reserve@?$vector@UNewShopPullDownItem@@V?$allocator@UNewShopPullDownItem@@@std@@@std@@QAEXI@Z$2
__ehfuncinfo$?reserve@?$vector@UNewShopPullDownItem@@V?$allocator@UNewShopPullDownItem@@@std@@@std@@QAEXI@Z DD 019930522H
	DD	02H
	DD	FLAT:__unwindtable$?reserve@?$vector@UNewShopPullDownItem@@V?$allocator@UNewShopPullDownItem@@@std@@@std@@QAEXI@Z
	DD	01H
	DD	FLAT:__tryblocktable$?reserve@?$vector@UNewShopPullDownItem@@V?$allocator@UNewShopPullDownItem@@@std@@@std@@QAEXI@Z
	DD	2 DUP(00H)
	DD	00H
	DD	01H
; Function compile flags: /Ogsp
; File c:\program files (x86)\microsoft visual studio 10.0\vc\include\vector
xdata$x	ENDS
;	COMDAT ?reserve@?$vector@UNewShopPullDownItem@@V?$allocator@UNewShopPullDownItem@@@std@@@std@@QAEXI@Z
_TEXT	SEGMENT
__Ptr$512241 = -24					; size = 4
$T519110 = -20						; size = 4
__$EHRec$ = -16						; size = 16
__Count$ = 8						; size = 4
?reserve@?$vector@UNewShopPullDownItem@@V?$allocator@UNewShopPullDownItem@@@std@@@std@@QAEXI@Z PROC ; std::vector<NewShopPullDownItem,std::allocator<NewShopPullDownItem> >::reserve, COMDAT
; _this$ = ecx

; 746  : 		{	// determine new minimum length of allocated storage

  00000	6a 0c		 push	 12			; 0000000cH
  00002	b8 00 00 00 00	 mov	 eax, __ehhandler$?reserve@?$vector@UNewShopPullDownItem@@V?$allocator@UNewShopPullDownItem@@@std@@@std@@QAEXI@Z
  00007	e8 00 00 00 00	 call	 __EH_prolog3_catch
  0000c	8b f1		 mov	 esi, ecx

; 747  : 		if (max_size() < _Count)

  0000e	81 7d 08 33 33
	33 03		 cmp	 DWORD PTR __Count$[ebp], 53687091 ; 03333333H
  00015	76 0b		 jbe	 SHORT $LN5@reserve@3

; 748  : 			_Xlen();	// result too long

  00017	68 00 00 00 00	 push	 OFFSET ??_C@_0BD@OLBABOEK@vector?$DMT?$DO?5too?5long?$AA@
  0001c	ff 15 00 00 00
	00		 call	 DWORD PTR __imp_?_Xlength_error@std@@YAXPBD@Z
$LN59@reserve@3:
$LN5@reserve@3:

; 749  : 		else if (capacity() < _Count)

  00022	8b 46 08	 mov	 eax, DWORD PTR [esi+8]
  00025	2b 06		 sub	 eax, DWORD PTR [esi]
  00027	6a 50		 push	 80			; 00000050H
  00029	99		 cdq
  0002a	59		 pop	 ecx
  0002b	f7 f9		 idiv	 ecx
  0002d	3b 45 08	 cmp	 eax, DWORD PTR __Count$[ebp]
  00030	0f 83 80 00 00
	00		 jae	 $LN3@reserve@3

; 750  : 			{	// not enough room, reallocate
; 751  : 			pointer _Ptr = this->_Alval.allocate(_Count);

  00036	6a 00		 push	 0
  00038	ff 75 08	 push	 DWORD PTR __Count$[ebp]
  0003b	e8 00 00 00 00	 call	 ??$_Allocate@UNewShopPullDownItem@@@std@@YAPAUNewShopPullDownItem@@IPAU1@@Z ; std::_Allocate<NewShopPullDownItem>

; 752  : 
; 753  : 			_TRY_BEGIN
; 754  : 			_Umove(this->_Myfirst, this->_Mylast, _Ptr);

  00040	8b 0e		 mov	 ecx, DWORD PTR [esi]
  00042	83 65 fc 00	 and	 DWORD PTR __$EHRec$[ebp+12], 0
  00046	8d 56 0c	 lea	 edx, DWORD PTR [esi+12]
  00049	52		 push	 edx
  0004a	89 45 e8	 mov	 DWORD PTR __Ptr$512241[ebp], eax
  0004d	ff 75 e8	 push	 DWORD PTR __Ptr$512241[ebp]
  00050	8b 46 04	 mov	 eax, DWORD PTR [esi+4]
  00053	50		 push	 eax
  00054	51		 push	 ecx
  00055	e8 00 00 00 00	 call	 ??$_Uninitialized_move@PAUNewShopPullDownItem@@PAU1@V?$allocator@UNewShopPullDownItem@@@std@@@std@@YAPAUNewShopPullDownItem@@PAU1@00AAV?$allocator@UNewShopPullDownItem@@@0@@Z ; std::_Uninitialized_move<NewShopPullDownItem *,NewShopPullDownItem *,std::allocator<NewShopPullDownItem> >

; 758  : 			_CATCH_END
; 759  : 
; 760  : 			size_type _Size = size();

  0005a	8b 5e 04	 mov	 ebx, DWORD PTR [esi+4]
  0005d	8b 0e		 mov	 ecx, DWORD PTR [esi]
  0005f	83 c4 18	 add	 esp, 24			; 00000018H
  00062	8b c3		 mov	 eax, ebx
  00064	2b c1		 sub	 eax, ecx
  00066	6a 50		 push	 80			; 00000050H
  00068	99		 cdq
  00069	5f		 pop	 edi
  0006a	f7 ff		 idiv	 edi
  0006c	83 4d fc ff	 or	 DWORD PTR __$EHRec$[ebp+12], -1
  00070	8b f8		 mov	 edi, eax
  00072	85 c9		 test	 ecx, ecx
  00074	74 20		 je	 SHORT $LN51@reserve@3

; 761  : 			if (this->_Myfirst != 0)
; 762  : 				{	// destroy and deallocate old array
; 763  : 				_Destroy(this->_Myfirst, this->_Mylast);

  00076	89 4d ec	 mov	 DWORD PTR $T519110[ebp], ecx
  00079	3b cb		 cmp	 ecx, ebx
  0007b	74 11		 je	 SHORT $LN37@reserve@3
$LN39@reserve@3:
  0007d	8b 4d ec	 mov	 ecx, DWORD PTR $T519110[ebp]
  00080	e8 00 00 00 00	 call	 ??1NewShopPullDownItem@@QAE@XZ
  00085	83 45 ec 50	 add	 DWORD PTR $T519110[ebp], 80 ; 00000050H
  00089	39 5d ec	 cmp	 DWORD PTR $T519110[ebp], ebx
  0008c	75 ef		 jne	 SHORT $LN39@reserve@3
$LN37@reserve@3:

; 764  : 				this->_Alval.deallocate(this->_Myfirst,
; 765  : 					this->_Myend - this->_Myfirst);

  0008e	ff 36		 push	 DWORD PTR [esi]
  00090	e8 00 00 00 00	 call	 ??3@YAXPAX@Z		; operator delete
  00095	59		 pop	 ecx
$LN51@reserve@3:

; 766  : 				}
; 767  : 
; 768  : 			this->_Orphan_all();

  00096	8b ce		 mov	 ecx, esi
  00098	ff 15 00 00 00
	00		 call	 DWORD PTR __imp_?_Orphan_all@_Container_base0@std@@QAEXXZ

; 769  : 			this->_Myend = _Ptr + _Count;
; 770  : 			this->_Mylast = _Ptr + _Size;

  0009e	6b ff 50	 imul	 edi, 80			; 00000050H
  000a1	8b 45 08	 mov	 eax, DWORD PTR __Count$[ebp]
  000a4	8b 4d e8	 mov	 ecx, DWORD PTR __Ptr$512241[ebp]
  000a7	6b c0 50	 imul	 eax, 80			; 00000050H
  000aa	03 c1		 add	 eax, ecx
  000ac	03 f9		 add	 edi, ecx
  000ae	89 46 08	 mov	 DWORD PTR [esi+8], eax
  000b1	89 7e 04	 mov	 DWORD PTR [esi+4], edi

; 771  : 			this->_Myfirst = _Ptr;

  000b4	89 0e		 mov	 DWORD PTR [esi], ecx
$LN3@reserve@3:

; 772  : 			}
; 773  : 		}

  000b6	e8 00 00 00 00	 call	 __EH_epilog3
  000bb	c2 04 00	 ret	 4
__catch$?reserve@?$vector@UNewShopPullDownItem@@V?$allocator@UNewShopPullDownItem@@@std@@@std@@QAEXI@Z$0:

; 755  : 			_CATCH_ALL
; 756  : 			this->_Alval.deallocate(_Ptr, _Count);

  000be	ff 75 e8	 push	 DWORD PTR __Ptr$512241[ebp]
  000c1	e8 00 00 00 00	 call	 ??3@YAXPAX@Z		; operator delete
  000c6	59		 pop	 ecx

; 757  : 			_RERAISE;

  000c7	6a 00		 push	 0
  000c9	6a 00		 push	 0
  000cb	e8 00 00 00 00	 call	 __CxxThrowException@8
$LN60@reserve@3:
$LN58@reserve@3:
  000d0	cc		 int	 3
_TEXT	ENDS
;	COMDAT text$x
text$x	SEGMENT
__ehhandler$?reserve@?$vector@UNewShopPullDownItem@@V?$allocator@UNewShopPullDownItem@@@std@@@std@@QAEXI@Z:
  00000	8b 54 24 08	 mov	 edx, DWORD PTR [esp+8]
  00004	8d 42 0c	 lea	 eax, DWORD PTR [edx+12]
  00007	8b 4a e4	 mov	 ecx, DWORD PTR [edx-28]
  0000a	33 c8		 xor	 ecx, eax
  0000c	e8 00 00 00 00	 call	 @__security_check_cookie@4
  00011	b8 00 00 00 00	 mov	 eax, OFFSET __ehfuncinfo$?reserve@?$vector@UNewShopPullDownItem@@V?$allocator@UNewShopPullDownItem@@@std@@@std@@QAEXI@Z
  00016	e9 00 00 00 00	 jmp	 ___CxxFrameHandler3
text$x	ENDS
?reserve@?$vector@UNewShopPullDownItem@@V?$allocator@UNewShopPullDownItem@@@std@@@std@@QAEXI@Z ENDP ; std::vector<NewShopPullDownItem,std::allocator<NewShopPullDownItem> >::reserve
PUBLIC	??$sort@V?$_Vector_iterator@V?$_Vector_val@UInvenItemInfo@@V?$allocator@UInvenItemInfo@@@std@@@std@@@std@@VCompoundItemInfoSort1@@@std@@YAXV?$_Vector_iterator@V?$_Vector_val@UInvenItemInfo@@V?$allocator@UInvenItemInfo@@@std@@@std@@@0@0VCompoundItemInfoSort1@@@Z ; std::sort<std::_Vector_iterator<std::_Vector_val<InvenItemInfo,std::allocator<InvenItemInfo> > >,CompoundItemInfoSort1>
; Function compile flags: /Ogsp
; File c:\program files (x86)\microsoft visual studio 10.0\vc\include\algorithm
;	COMDAT ??$sort@V?$_Vector_iterator@V?$_Vector_val@UInvenItemInfo@@V?$allocator@UInvenItemInfo@@@std@@@std@@@std@@VCompoundItemInfoSort1@@@std@@YAXV?$_Vector_iterator@V?$_Vector_val@UInvenItemInfo@@V?$allocator@UInvenItemInfo@@@std@@@std@@@0@0VCompoundItemInfoSort1@@@Z
_TEXT	SEGMENT
__First$ = 8						; size = 4
__Last$ = 12						; size = 4
__Pred$ = 16						; size = 1
??$sort@V?$_Vector_iterator@V?$_Vector_val@UInvenItemInfo@@V?$allocator@UInvenItemInfo@@@std@@@std@@@std@@VCompoundItemInfoSort1@@@std@@YAXV?$_Vector_iterator@V?$_Vector_val@UInvenItemInfo@@V?$allocator@UInvenItemInfo@@@std@@@std@@@0@0VCompoundItemInfoSort1@@@Z PROC ; std::sort<std::_Vector_iterator<std::_Vector_val<InvenItemInfo,std::allocator<InvenItemInfo> > >,CompoundItemInfoSort1>, COMDAT

; 3803 : 	{	// order [_First, _Last), using _Pred

  00000	55		 push	 ebp
  00001	8b ec		 mov	 ebp, esp

; 3804 : 	_DEBUG_RANGE(_First, _Last);
; 3805 : 	_DEBUG_POINTER(_Pred);
; 3806 : 	_Sort(_Unchecked(_First), _Unchecked(_Last), _Last - _First, _Pred);

  00003	ff 75 10	 push	 DWORD PTR __Pred$[ebp]
  00006	8b 45 0c	 mov	 eax, DWORD PTR __Last$[ebp]
  00009	2b 45 08	 sub	 eax, DWORD PTR __First$[ebp]
  0000c	6a 0c		 push	 12			; 0000000cH
  0000e	59		 pop	 ecx
  0000f	99		 cdq
  00010	f7 f9		 idiv	 ecx
  00012	50		 push	 eax
  00013	ff 75 0c	 push	 DWORD PTR __Last$[ebp]
  00016	ff 75 08	 push	 DWORD PTR __First$[ebp]
  00019	e8 00 00 00 00	 call	 ??$_Sort@PAUInvenItemInfo@@HVCompoundItemInfoSort1@@@std@@YAXPAUInvenItemInfo@@0HVCompoundItemInfoSort1@@@Z ; std::_Sort<InvenItemInfo *,int,CompoundItemInfoSort1>
  0001e	83 c4 10	 add	 esp, 16			; 00000010H

; 3807 : 	}

  00021	5d		 pop	 ebp
  00022	c3		 ret	 0
??$sort@V?$_Vector_iterator@V?$_Vector_val@UInvenItemInfo@@V?$allocator@UInvenItemInfo@@@std@@@std@@@std@@VCompoundItemInfoSort1@@@std@@YAXV?$_Vector_iterator@V?$_Vector_val@UInvenItemInfo@@V?$allocator@UInvenItemInfo@@@std@@@std@@@0@0VCompoundItemInfoSort1@@@Z ENDP ; std::sort<std::_Vector_iterator<std::_Vector_val<InvenItemInfo,std::allocator<InvenItemInfo> > >,CompoundItemInfoSort1>
_TEXT	ENDS
PUBLIC	??_7ItemMultipleCompoundWnd@@6B@		; ItemMultipleCompoundWnd::`vftable'
PUBLIC	??0ItemMultipleCompoundWnd@@QAE@XZ		; ItemMultipleCompoundWnd::ItemMultipleCompoundWnd
PUBLIC	??_R4ItemMultipleCompoundWnd@@6B@		; ItemMultipleCompoundWnd::`RTTI Complete Object Locator'
PUBLIC	??_R0?AVItemMultipleCompoundWnd@@@8		; ItemMultipleCompoundWnd `RTTI Type Descriptor'
PUBLIC	??_R3ItemMultipleCompoundWnd@@8			; ItemMultipleCompoundWnd::`RTTI Class Hierarchy Descriptor'
PUBLIC	??_R2ItemMultipleCompoundWnd@@8			; ItemMultipleCompoundWnd::`RTTI Base Class Array'
PUBLIC	??_R1A@?0A@EA@ItemMultipleCompoundWnd@@8	; ItemMultipleCompoundWnd::`RTTI Base Class Descriptor at (0,-1,0,64)'
PUBLIC	??_R1A@?0A@EA@ioWnd@@8				; ioWnd::`RTTI Base Class Descriptor at (0,-1,0,64)'
PUBLIC	??_R3ioWnd@@8					; ioWnd::`RTTI Class Hierarchy Descriptor'
PUBLIC	??_R2ioWnd@@8					; ioWnd::`RTTI Base Class Array'
PUBLIC	?iwm_command@ItemMultipleCompoundWnd@@UAEXPAVioWnd@@HK@Z ; ItemMultipleCompoundWnd::iwm_command
PUBLIC	?iwm_hide@ItemMultipleCompoundWnd@@UAEXXZ	; ItemMultipleCompoundWnd::iwm_hide
EXTRN	__imp_??0ioWnd@@QAE@XZ:PROC
EXTRN	?AddRenderFrame@ioWnd@@UAEXABVioHashString@@PAVioUIRenderFrame@@@Z:PROC ; ioWnd::AddRenderFrame
EXTRN	?AddRenderImage@ioWnd@@UAEXABVioHashString@@PAVioUIRenderImage@@@Z:PROC ; ioWnd::AddRenderImage
EXTRN	?AddTooltipHelp@ioWnd@@UAEXABVioHashString@@00@Z:PROC ; ioWnd::AddTooltipHelp
EXTRN	?ParseExtraInfo@ioWnd@@UAEXAAVioXMLElement@@@Z:PROC ; ioWnd::ParseExtraInfo
EXTRN	?AddNamedRenderImage@ioWnd@@UAEXABVioHashString@@PAVioUIRenderImage@@@Z:PROC ; ioWnd::AddNamedRenderImage
EXTRN	?RemoveNamedRenderImage@ioWnd@@UAEXABVioHashString@@@Z:PROC ; ioWnd::RemoveNamedRenderImage
EXTRN	?GetNamedRenderImage@ioWnd@@UBEPAVioUIRenderImage@@ABVioHashString@@@Z:PROC ; ioWnd::GetNamedRenderImage
EXTRN	?SetWindowAlpha@ioWnd@@UAEXH@Z:PROC		; ioWnd::SetWindowAlpha
EXTRN	?SetActive@ioWnd@@UAEXXZ:PROC			; ioWnd::SetActive
EXTRN	?SetInActive@ioWnd@@UAEXXZ:PROC			; ioWnd::SetInActive
EXTRN	?ClearElementImageList@ioWnd@@UAEXXZ:PROC	; ioWnd::ClearElementImageList
EXTRN	?SetSize@ioWnd@@UAEXHH@Z:PROC			; ioWnd::SetSize
EXTRN	?SetPositionToDefault@ioWnd@@UAEXHH_N0@Z:PROC	; ioWnd::SetPositionToDefault
EXTRN	?IsNeedProcess@ioWnd@@UBE_NXZ:PROC		; ioWnd::IsNeedProcess
EXTRN	?IsCanMouseReaction@ioWnd@@UBE_NXZ:PROC		; ioWnd::IsCanMouseReaction
EXTRN	?AddChild@ioWnd@@UAEXPAV1@@Z:PROC		; ioWnd::AddChild
EXTRN	?DeleteChild@ioWnd@@UAEXK@Z:PROC		; ioWnd::DeleteChild
EXTRN	?DeleteAllChild@ioWnd@@UAEXXZ:PROC		; ioWnd::DeleteAllChild
EXTRN	?OnRenderShowAndHide@ioWnd@@MAE_NXZ:PROC	; ioWnd::OnRenderShowAndHide
EXTRN	?OnRenderShowAndHideByDefault@ioWnd@@MAE_NK@Z:PROC ; ioWnd::OnRenderShowAndHideByDefault
EXTRN	?OnRenderShowAndHideByTop@ioWnd@@MAE_NK@Z:PROC	; ioWnd::OnRenderShowAndHideByTop
EXTRN	?OnRenderShowAndHideByDown@ioWnd@@MAE_NK@Z:PROC	; ioWnd::OnRenderShowAndHideByDown
EXTRN	?OnRenderAfterChild@ioWnd@@MAEXXZ:PROC		; ioWnd::OnRenderAfterChild
EXTRN	?OnProcess@ioWnd@@MAEXM@Z:PROC			; ioWnd::OnProcess
EXTRN	?OnMouseProcess@ioWnd@@MAEXABVioMouse@@@Z:PROC	; ioWnd::OnMouseProcess
EXTRN	?CheckFrameReSize@ioWnd@@MAEXHHHH@Z:PROC	; ioWnd::CheckFrameReSize
EXTRN	?RenderImageList@ioWnd@@MAEXHHW4UIRenderType@@@Z:PROC ; ioWnd::RenderImageList
EXTRN	?iwm_destroy@ioWnd@@UAEXXZ:PROC			; ioWnd::iwm_destroy
EXTRN	?iwm_lbuttondown@ioWnd@@UAEXABVioMouse@@@Z:PROC	; ioWnd::iwm_lbuttondown
EXTRN	?iwm_lbuttonup@ioWnd@@UAEXABVioMouse@@@Z:PROC	; ioWnd::iwm_lbuttonup
EXTRN	?iwm_lbuttonDBLCLK@ioWnd@@UAEXABVioMouse@@@Z:PROC ; ioWnd::iwm_lbuttonDBLCLK
EXTRN	?iwm_rbuttondown@ioWnd@@UAEXABVioMouse@@@Z:PROC	; ioWnd::iwm_rbuttondown
EXTRN	?iwm_rbuttonup@ioWnd@@UAEXABVioMouse@@@Z:PROC	; ioWnd::iwm_rbuttonup
EXTRN	?iwm_mouseover@ioWnd@@UAEXABVioMouse@@@Z:PROC	; ioWnd::iwm_mouseover
EXTRN	?iwm_mousemove@ioWnd@@UAEXABVioMouse@@@Z:PROC	; ioWnd::iwm_mousemove
EXTRN	?iwm_mouseleave@ioWnd@@UAEXABVioMouse@@@Z:PROC	; ioWnd::iwm_mouseleave
EXTRN	?iwm_vscroll@ioWnd@@UAEXKH@Z:PROC		; ioWnd::iwm_vscroll
EXTRN	?iwm_wheel@ioWnd@@UAEXH@Z:PROC			; ioWnd::iwm_wheel
EXTRN	?iwm_esc@ioWnd@@UAE_NXZ:PROC			; ioWnd::iwm_esc
EXTRN	?iwm_spacebar@ioWnd@@UAE_NXZ:PROC		; ioWnd::iwm_spacebar
EXTRN	?iwm_gototop@ioWnd@@UAEXXZ:PROC			; ioWnd::iwm_gototop
EXTRN	?iwm_dragenter@ioWnd@@UAE?AW4IWDropEffect@@PAVioDragItem@@ABVioMouse@@@Z:PROC ; ioWnd::iwm_dragenter
EXTRN	?iwm_dragover@ioWnd@@UAE?AW4IWDropEffect@@PAVioDragItem@@ABVioMouse@@@Z:PROC ; ioWnd::iwm_dragover
EXTRN	?iwm_dragleave@ioWnd@@UAEXXZ:PROC		; ioWnd::iwm_dragleave
EXTRN	?iwm_dropitem@ioWnd@@UAE_NPAVioDragItem@@ABVioMouse@@PAV1@@Z:PROC ; ioWnd::iwm_dropitem
EXTRN	?iwm_dropdone@ioWnd@@UAEXPAVioDragItem@@PAV1@_N@Z:PROC ; ioWnd::iwm_dropdone
EXTRN	?IsEXType@ioWnd@@UBE_NXZ:PROC			; ioWnd::IsEXType
EXTRN	?GetWndType@ioWnd@@UBEKXZ:PROC			; ioWnd::GetWndType
EXTRN	?RenderWnd@ioWnd@@UAEXXZ:PROC			; ioWnd::RenderWnd
EXTRN	?SetIDEX@ioWnd@@UAEXAAK_N@Z:PROC		; ioWnd::SetIDEX
EXTRN	?ParseXML@ioWnd@@UAEXAAVioXMLElement@@@Z:PROC	; ioWnd::ParseXML
EXTRN	?GetHeaderFileName@ioWnd@@UAEPBDXZ:PROC		; ioWnd::GetHeaderFileName
EXTRN	?GetTemplateName@ioWnd@@UAEPBDXZ:PROC		; ioWnd::GetTemplateName
EXTRN	?GetDefClassName@ioWnd@@UBEPBDXZ:PROC		; ioWnd::GetDefClassName
EXTRN	?_Clone@ioWnd@@UAEPAV1@XZ:PROC			; ioWnd::_Clone
EXTRN	?Copy@ioWnd@@UAEXPAV1@@Z:PROC			; ioWnd::Copy
EXTRN	?Save@ioWnd@@UAE_NAAVioXMLElement@@@Z:PROC	; ioWnd::Save
EXTRN	?SetSaveData@ioWnd@@UAEXAAVioXMLElement@@@Z:PROC ; ioWnd::SetSaveData
EXTRN	?SetPosX@ioWnd@@UAEXH@Z:PROC			; ioWnd::SetPosX
EXTRN	?SetPosY@ioWnd@@UAEXH@Z:PROC			; ioWnd::SetPosY
EXTRN	?SetWidth@ioWnd@@UAEXH@Z:PROC			; ioWnd::SetWidth
EXTRN	?SetHeight@ioWnd@@UAEXH@Z:PROC			; ioWnd::SetHeight
EXTRN	?GetNumFixedRenderFrame@ioWnd@@UBEHXZ:PROC	; ioWnd::GetNumFixedRenderFrame
EXTRN	?GetFixedRenderFrameType@ioWnd@@UAEPBDH@Z:PROC	; ioWnd::GetFixedRenderFrameType
EXTRN	?GetRenderFrame@ioWnd@@UAEPAPAVioUIRenderElement@@PBD@Z:PROC ; ioWnd::GetRenderFrame
EXTRN	?GetNumFixedRenderImage@ioWnd@@UBEHXZ:PROC	; ioWnd::GetNumFixedRenderImage
EXTRN	?GetFixedRenderImageType@ioWnd@@UAEPBDH@Z:PROC	; ioWnd::GetFixedRenderImageType
EXTRN	?GetRenderImage@ioWnd@@UAEPAPAVioUIRenderElement@@PBD@Z:PROC ; ioWnd::GetRenderImage
EXTRN	?AddEffect@ioWnd@@UAEXABVioHashString@@PAVioUI3DEffectRender@@@Z:PROC ; ioWnd::AddEffect
EXTRN	?GetEffect@ioWnd@@UAEPAVioUI3DEffectRender@@VioHashString@@@Z:PROC ; ioWnd::GetEffect
EXTRN	??_EItemMultipleCompoundWnd@@UAEPAXI@Z:PROC	; ItemMultipleCompoundWnd::`vector deleting destructor'
;	COMDAT ??_R2ioWnd@@8
; File c:\program files (x86)\microsoft visual studio 10.0\vc\include\xutility
rdata$r	SEGMENT
??_R2ioWnd@@8 DD FLAT:??_R1A@?0A@EA@ioWnd@@8		; ioWnd::`RTTI Base Class Array'
rdata$r	ENDS
;	COMDAT ??_R3ioWnd@@8
rdata$r	SEGMENT
??_R3ioWnd@@8 DD 00H					; ioWnd::`RTTI Class Hierarchy Descriptor'
	DD	00H
	DD	01H
	DD	FLAT:??_R2ioWnd@@8
rdata$r	ENDS
;	COMDAT ??_R1A@?0A@EA@ioWnd@@8
rdata$r	SEGMENT
??_R1A@?0A@EA@ioWnd@@8 DD FLAT:??_R0?AVioWnd@@@8	; ioWnd::`RTTI Base Class Descriptor at (0,-1,0,64)'
	DD	00H
	DD	00H
	DD	0ffffffffH
	DD	00H
	DD	040H
	DD	FLAT:??_R3ioWnd@@8
rdata$r	ENDS
;	COMDAT ??_R1A@?0A@EA@ItemMultipleCompoundWnd@@8
rdata$r	SEGMENT
??_R1A@?0A@EA@ItemMultipleCompoundWnd@@8 DD FLAT:??_R0?AVItemMultipleCompoundWnd@@@8 ; ItemMultipleCompoundWnd::`RTTI Base Class Descriptor at (0,-1,0,64)'
	DD	01H
	DD	00H
	DD	0ffffffffH
	DD	00H
	DD	040H
	DD	FLAT:??_R3ItemMultipleCompoundWnd@@8
rdata$r	ENDS
;	COMDAT ??_R2ItemMultipleCompoundWnd@@8
rdata$r	SEGMENT
??_R2ItemMultipleCompoundWnd@@8 DD FLAT:??_R1A@?0A@EA@ItemMultipleCompoundWnd@@8 ; ItemMultipleCompoundWnd::`RTTI Base Class Array'
	DD	FLAT:??_R1A@?0A@EA@ioWnd@@8
rdata$r	ENDS
;	COMDAT ??_R3ItemMultipleCompoundWnd@@8
rdata$r	SEGMENT
??_R3ItemMultipleCompoundWnd@@8 DD 00H			; ItemMultipleCompoundWnd::`RTTI Class Hierarchy Descriptor'
	DD	00H
	DD	02H
	DD	FLAT:??_R2ItemMultipleCompoundWnd@@8
rdata$r	ENDS
;	COMDAT ??_R0?AVItemMultipleCompoundWnd@@@8
_DATA	SEGMENT
??_R0?AVItemMultipleCompoundWnd@@@8 DD FLAT:??_7type_info@@6B@ ; ItemMultipleCompoundWnd `RTTI Type Descriptor'
	DD	00H
	DB	'.?AVItemMultipleCompoundWnd@@', 00H
_DATA	ENDS
;	COMDAT ??_R4ItemMultipleCompoundWnd@@6B@
rdata$r	SEGMENT
??_R4ItemMultipleCompoundWnd@@6B@ DD 00H		; ItemMultipleCompoundWnd::`RTTI Complete Object Locator'
	DD	00H
	DD	00H
	DD	FLAT:??_R0?AVItemMultipleCompoundWnd@@@8
	DD	FLAT:??_R3ItemMultipleCompoundWnd@@8
rdata$r	ENDS
;	COMDAT ??_7ItemMultipleCompoundWnd@@6B@
CONST	SEGMENT
??_7ItemMultipleCompoundWnd@@6B@ DD FLAT:??_R4ItemMultipleCompoundWnd@@6B@ ; ItemMultipleCompoundWnd::`vftable'
	DD	FLAT:?AddRenderFrame@ioWnd@@UAEXABVioHashString@@PAVioUIRenderFrame@@@Z
	DD	FLAT:?AddRenderImage@ioWnd@@UAEXABVioHashString@@PAVioUIRenderImage@@@Z
	DD	FLAT:?AddTooltipHelp@ioWnd@@UAEXABVioHashString@@00@Z
	DD	FLAT:?ParseExtraInfo@ioWnd@@UAEXAAVioXMLElement@@@Z
	DD	FLAT:?AddNamedRenderImage@ioWnd@@UAEXABVioHashString@@PAVioUIRenderImage@@@Z
	DD	FLAT:?RemoveNamedRenderImage@ioWnd@@UAEXABVioHashString@@@Z
	DD	FLAT:?GetNamedRenderImage@ioWnd@@UBEPAVioUIRenderImage@@ABVioHashString@@@Z
	DD	FLAT:?SetWindowAlpha@ioWnd@@UAEXH@Z
	DD	FLAT:?SetActive@ioWnd@@UAEXXZ
	DD	FLAT:?SetInActive@ioWnd@@UAEXXZ
	DD	FLAT:?ClearElementImageList@ioWnd@@UAEXXZ
	DD	FLAT:?SetSize@ioWnd@@UAEXHH@Z
	DD	FLAT:?SetPositionToDefault@ioWnd@@UAEXHH_N0@Z
	DD	FLAT:?IsNeedProcess@ioWnd@@UBE_NXZ
	DD	FLAT:?IsCanMouseReaction@ioWnd@@UBE_NXZ
	DD	FLAT:?AddChild@ioWnd@@UAEXPAV1@@Z
	DD	FLAT:?DeleteChild@ioWnd@@UAEXK@Z
	DD	FLAT:?DeleteAllChild@ioWnd@@UAEXXZ
	DD	FLAT:?OnRenderShowAndHide@ioWnd@@MAE_NXZ
	DD	FLAT:?OnRenderShowAndHideByDefault@ioWnd@@MAE_NK@Z
	DD	FLAT:?OnRenderShowAndHideByTop@ioWnd@@MAE_NK@Z
	DD	FLAT:?OnRenderShowAndHideByDown@ioWnd@@MAE_NK@Z
	DD	FLAT:?OnRender@ItemMultipleCompoundWnd@@MAEXXZ
	DD	FLAT:?OnRenderAfterChild@ioWnd@@MAEXXZ
	DD	FLAT:?OnProcess@ioWnd@@MAEXM@Z
	DD	FLAT:?OnMouseProcess@ioWnd@@MAEXABVioMouse@@@Z
	DD	FLAT:?CheckFrameReSize@ioWnd@@MAEXHHHH@Z
	DD	FLAT:?RenderImageList@ioWnd@@MAEXHHW4UIRenderType@@@Z
	DD	FLAT:?iwm_create@ItemMultipleCompoundWnd@@UAEXXZ
	DD	FLAT:?iwm_destroy@ioWnd@@UAEXXZ
	DD	FLAT:?iwm_lbuttondown@ioWnd@@UAEXABVioMouse@@@Z
	DD	FLAT:?iwm_lbuttonup@ioWnd@@UAEXABVioMouse@@@Z
	DD	FLAT:?iwm_lbuttonDBLCLK@ioWnd@@UAEXABVioMouse@@@Z
	DD	FLAT:?iwm_rbuttondown@ioWnd@@UAEXABVioMouse@@@Z
	DD	FLAT:?iwm_rbuttonup@ioWnd@@UAEXABVioMouse@@@Z
	DD	FLAT:?iwm_command@ItemMultipleCompoundWnd@@UAEXPAVioWnd@@HK@Z
	DD	FLAT:?iwm_mouseover@ioWnd@@UAEXABVioMouse@@@Z
	DD	FLAT:?iwm_mousemove@ioWnd@@UAEXABVioMouse@@@Z
	DD	FLAT:?iwm_mouseleave@ioWnd@@UAEXABVioMouse@@@Z
	DD	FLAT:?iwm_vscroll@ioWnd@@UAEXKH@Z
	DD	FLAT:?iwm_wheel@ioWnd@@UAEXH@Z
	DD	FLAT:?iwm_show@ItemMultipleCompoundWnd@@UAEXXZ
	DD	FLAT:?iwm_hide@ItemMultipleCompoundWnd@@UAEXXZ
	DD	FLAT:?iwm_esc@ioWnd@@UAE_NXZ
	DD	FLAT:?iwm_spacebar@ioWnd@@UAE_NXZ
	DD	FLAT:?iwm_gototop@ioWnd@@UAEXXZ
	DD	FLAT:?iwm_dragenter@ioWnd@@UAE?AW4IWDropEffect@@PAVioDragItem@@ABVioMouse@@@Z
	DD	FLAT:?iwm_dragover@ioWnd@@UAE?AW4IWDropEffect@@PAVioDragItem@@ABVioMouse@@@Z
	DD	FLAT:?iwm_dragleave@ioWnd@@UAEXXZ
	DD	FLAT:?iwm_dropitem@ioWnd@@UAE_NPAVioDragItem@@ABVioMouse@@PAV1@@Z
	DD	FLAT:?iwm_dropdone@ioWnd@@UAEXPAVioDragItem@@PAV1@_N@Z
	DD	FLAT:?IsEXType@ioWnd@@UBE_NXZ
	DD	FLAT:?GetWndType@ioWnd@@UBEKXZ
	DD	FLAT:?RenderWnd@ioWnd@@UAEXXZ
	DD	FLAT:?SetIDEX@ioWnd@@UAEXAAK_N@Z
	DD	FLAT:?ParseXML@ioWnd@@UAEXAAVioXMLElement@@@Z
	DD	FLAT:?GetHeaderFileName@ioWnd@@UAEPBDXZ
	DD	FLAT:?GetTemplateName@ioWnd@@UAEPBDXZ
	DD	FLAT:?GetDefClassName@ioWnd@@UBEPBDXZ
	DD	FLAT:?_Clone@ioWnd@@UAEPAV1@XZ
	DD	FLAT:?Copy@ioWnd@@UAEXPAV1@@Z
	DD	FLAT:?Save@ioWnd@@UAE_NAAVioXMLElement@@@Z
	DD	FLAT:?SetSaveData@ioWnd@@UAEXAAVioXMLElement@@@Z
	DD	FLAT:?SetPosX@ioWnd@@UAEXH@Z
	DD	FLAT:?SetPosY@ioWnd@@UAEXH@Z
	DD	FLAT:?SetWidth@ioWnd@@UAEXH@Z
	DD	FLAT:?SetHeight@ioWnd@@UAEXH@Z
	DD	FLAT:?GetNumFixedRenderFrame@ioWnd@@UBEHXZ
	DD	FLAT:?GetFixedRenderFrameType@ioWnd@@UAEPBDH@Z
	DD	FLAT:?GetRenderFrame@ioWnd@@UAEPAPAVioUIRenderElement@@PBD@Z
	DD	FLAT:?GetNumFixedRenderImage@ioWnd@@UBEHXZ
	DD	FLAT:?GetFixedRenderImageType@ioWnd@@UAEPBDH@Z
	DD	FLAT:?GetRenderImage@ioWnd@@UAEPAPAVioUIRenderElement@@PBD@Z
	DD	FLAT:?AddEffect@ioWnd@@UAEXABVioHashString@@PAVioUI3DEffectRender@@@Z
	DD	FLAT:?GetEffect@ioWnd@@UAEPAVioUI3DEffectRender@@VioHashString@@@Z
	DD	FLAT:??_EItemMultipleCompoundWnd@@UAEPAXI@Z
; Function compile flags: /Ogsp
; File d:\lost saga for developer\youtube\tutorial\source\src\lsclient\gui\itemmultiplecompoundwnd.cpp
CONST	ENDS
;	COMDAT ??0ItemMultipleCompoundWnd@@QAE@XZ
_TEXT	SEGMENT
$T519300 = -4						; size = 4
??0ItemMultipleCompoundWnd@@QAE@XZ PROC			; ItemMultipleCompoundWnd::ItemMultipleCompoundWnd, COMDAT
; _this$ = ecx

; 41   : {

  00000	55		 push	 ebp
  00001	8b ec		 mov	 ebp, esp
  00003	51		 push	 ecx
  00004	53		 push	 ebx
  00005	56		 push	 esi
  00006	8b f1		 mov	 esi, ecx
  00008	ff 15 00 00 00
	00		 call	 DWORD PTR __imp_??0ioWnd@@QAE@XZ
  0000e	8d 8e 68 01 00
	00		 lea	 ecx, DWORD PTR [esi+360]
  00014	33 db		 xor	 ebx, ebx
  00016	c7 06 00 00 00
	00		 mov	 DWORD PTR [esi], OFFSET ??_7ItemMultipleCompoundWnd@@6B@
  0001c	89 19		 mov	 DWORD PTR [ecx], ebx
  0001e	89 59 04	 mov	 DWORD PTR [ecx+4], ebx
  00021	89 59 08	 mov	 DWORD PTR [ecx+8], ebx

; 42   : 	m_dwEtcItemType = 0;

  00024	89 9e 60 01 00
	00		 mov	 DWORD PTR [esi+352], ebx

; 43   : 	m_bAllSelect = false;

  0002a	88 9e 64 01 00
	00		 mov	 BYTE PTR [esi+356], bl

; 44   : 
; 45   : 	m_vTotalList.clear();

  00030	8b 41 04	 mov	 eax, DWORD PTR [ecx+4]
  00033	8b 11		 mov	 edx, DWORD PTR [ecx]
  00035	50		 push	 eax
  00036	52		 push	 edx
  00037	8d 45 fc	 lea	 eax, DWORD PTR $T519300[ebp]
  0003a	50		 push	 eax
  0003b	e8 00 00 00 00	 call	 ?erase@?$vector@UInvenItemInfo@@V?$allocator@UInvenItemInfo@@@std@@@std@@QAE?AV?$_Vector_iterator@V?$_Vector_val@UInvenItemInfo@@V?$allocator@UInvenItemInfo@@@std@@@std@@@2@V?$_Vector_const_iterator@V?$_Vector_val@UInvenItemInfo@@V?$allocator@UInvenItemInfo@@@std@@@std@@@2@0@Z ; std::vector<InvenItemInfo,std::allocator<InvenItemInfo> >::erase

; 46   : 	m_pManual = NULL;

  00040	89 9e 7c 01 00
	00		 mov	 DWORD PTR [esi+380], ebx

; 47   : }

  00046	8b c6		 mov	 eax, esi
  00048	5e		 pop	 esi
  00049	5b		 pop	 ebx
  0004a	c9		 leave
  0004b	c3		 ret	 0
??0ItemMultipleCompoundWnd@@QAE@XZ ENDP			; ItemMultipleCompoundWnd::ItemMultipleCompoundWnd
_TEXT	ENDS
PUBLIC	??1ItemMultipleCompoundWnd@@UAE@XZ		; ItemMultipleCompoundWnd::~ItemMultipleCompoundWnd
EXTRN	__imp_??1ioWnd@@UAE@XZ:PROC
;	COMDAT xdata$x
; File c:\program files (x86)\microsoft visual studio 10.0\vc\include\vector
xdata$x	SEGMENT
__unwindtable$??1ItemMultipleCompoundWnd@@UAE@XZ DD 0ffffffffH
	DD	FLAT:__unwindfunclet$??1ItemMultipleCompoundWnd@@UAE@XZ$0
__ehfuncinfo$??1ItemMultipleCompoundWnd@@UAE@XZ DD 019930522H
	DD	01H
	DD	FLAT:__unwindtable$??1ItemMultipleCompoundWnd@@UAE@XZ
	DD	2 DUP(00H)
	DD	2 DUP(00H)
	DD	00H
	DD	01H
; Function compile flags: /Ogsp
; File d:\lost saga for developer\youtube\tutorial\source\src\lsclient\gui\itemmultiplecompoundwnd.cpp
xdata$x	ENDS
;	COMDAT ??1ItemMultipleCompoundWnd@@UAE@XZ
_TEXT	SEGMENT
_this$ = -16						; size = 4
__$EHRec$ = -12						; size = 12
??1ItemMultipleCompoundWnd@@UAE@XZ PROC			; ItemMultipleCompoundWnd::~ItemMultipleCompoundWnd, COMDAT
; _this$ = ecx

; 50   : {

  00000	6a 04		 push	 4
  00002	b8 00 00 00 00	 mov	 eax, __ehhandler$??1ItemMultipleCompoundWnd@@UAE@XZ
  00007	e8 00 00 00 00	 call	 __EH_prolog3
  0000c	8b f1		 mov	 esi, ecx
  0000e	89 75 f0	 mov	 DWORD PTR _this$[ebp], esi
  00011	c7 06 00 00 00
	00		 mov	 DWORD PTR [esi], OFFSET ??_7ItemMultipleCompoundWnd@@6B@
  00017	83 65 fc 00	 and	 DWORD PTR __$EHRec$[ebp+8], 0

; 51   : }

  0001b	8d 8e 68 01 00
	00		 lea	 ecx, DWORD PTR [esi+360]
  00021	e8 00 00 00 00	 call	 ?_Tidy@?$vector@UInvenItemInfo@@V?$allocator@UInvenItemInfo@@@std@@@std@@IAEXXZ ; std::vector<InvenItemInfo,std::allocator<InvenItemInfo> >::_Tidy
  00026	83 4d fc ff	 or	 DWORD PTR __$EHRec$[ebp+8], -1
  0002a	8b ce		 mov	 ecx, esi
  0002c	ff 15 00 00 00
	00		 call	 DWORD PTR __imp_??1ioWnd@@UAE@XZ
  00032	e8 00 00 00 00	 call	 __EH_epilog3
  00037	c3		 ret	 0
_TEXT	ENDS
;	COMDAT text$x
text$x	SEGMENT
__unwindfunclet$??1ItemMultipleCompoundWnd@@UAE@XZ$0:
  00000	8b 4d f0	 mov	 ecx, DWORD PTR _this$[ebp]
  00003	ff 25 00 00 00
	00		 jmp	 DWORD PTR __imp_??1ioWnd@@UAE@XZ
__ehhandler$??1ItemMultipleCompoundWnd@@UAE@XZ:
  00009	8b 54 24 08	 mov	 edx, DWORD PTR [esp+8]
  0000d	8d 42 0c	 lea	 eax, DWORD PTR [edx+12]
  00010	8b 4a ec	 mov	 ecx, DWORD PTR [edx-20]
  00013	33 c8		 xor	 ecx, eax
  00015	e8 00 00 00 00	 call	 @__security_check_cookie@4
  0001a	b8 00 00 00 00	 mov	 eax, OFFSET __ehfuncinfo$??1ItemMultipleCompoundWnd@@UAE@XZ
  0001f	e9 00 00 00 00	 jmp	 ___CxxFrameHandler3
text$x	ENDS
??1ItemMultipleCompoundWnd@@UAE@XZ ENDP			; ItemMultipleCompoundWnd::~ItemMultipleCompoundWnd
EXTRN	?InitData@SelectExtraItemBtn@@QAEXXZ:PROC	; SelectExtraItemBtn::InitData
; Function compile flags: /Ogsp
;	COMDAT ?iwm_hide@ItemMultipleCompoundWnd@@UAEXXZ
_TEXT	SEGMENT
$T519400 = -4						; size = 4
?iwm_hide@ItemMultipleCompoundWnd@@UAEXXZ PROC		; ItemMultipleCompoundWnd::iwm_hide, COMDAT
; _this$ = ecx

; 372  : {

  00000	55		 push	 ebp
  00001	8b ec		 mov	 ebp, esp
  00003	51		 push	 ecx
  00004	53		 push	 ebx
  00005	56		 push	 esi
  00006	57		 push	 edi
  00007	8b f1		 mov	 esi, ecx

; 373  : 	m_dwEtcItemType = 0;
; 374  : 	m_bAllSelect = false;
; 375  : 
; 376  : 	m_vTotalList.clear();

  00009	8d 8e 68 01 00
	00		 lea	 ecx, DWORD PTR [esi+360]
  0000f	33 ff		 xor	 edi, edi
  00011	89 be 60 01 00
	00		 mov	 DWORD PTR [esi+352], edi
  00017	c6 86 64 01 00
	00 00		 mov	 BYTE PTR [esi+356], 0
  0001e	8b 41 04	 mov	 eax, DWORD PTR [ecx+4]
  00021	8b 11		 mov	 edx, DWORD PTR [ecx]
  00023	50		 push	 eax
  00024	52		 push	 edx
  00025	8d 45 fc	 lea	 eax, DWORD PTR $T519400[ebp]
  00028	50		 push	 eax
  00029	e8 00 00 00 00	 call	 ?erase@?$vector@UInvenItemInfo@@V?$allocator@UInvenItemInfo@@@std@@@std@@QAE?AV?$_Vector_iterator@V?$_Vector_val@UInvenItemInfo@@V?$allocator@UInvenItemInfo@@@std@@@std@@@2@V?$_Vector_const_iterator@V?$_Vector_val@UInvenItemInfo@@V?$allocator@UInvenItemInfo@@@std@@@std@@@2@0@Z ; std::vector<InvenItemInfo,std::allocator<InvenItemInfo> >::erase

; 377  : 
; 378  : 	SelectExtraItemBtn *pItemBtn = dynamic_cast<SelectExtraItemBtn*>(FindChildWnd(ID_ITEM1_BTN));

  0002e	57		 push	 edi
  0002f	68 00 00 00 00	 push	 OFFSET ??_R0?AVSelectExtraItemBtn@@@8
  00034	bb 00 00 00 00	 mov	 ebx, OFFSET ??_R0?AVioWnd@@@8
  00039	53		 push	 ebx
  0003a	57		 push	 edi
  0003b	8b 3d 00 00 00
	00		 mov	 edi, DWORD PTR __imp_?FindChildWnd@ioWnd@@QAEPAV1@K@Z
  00041	6a 0b		 push	 11			; 0000000bH
  00043	8b ce		 mov	 ecx, esi
  00045	ff d7		 call	 edi
  00047	50		 push	 eax
  00048	e8 00 00 00 00	 call	 ___RTDynamicCast
  0004d	83 c4 14	 add	 esp, 20			; 00000014H

; 379  : 	if( pItemBtn )

  00050	85 c0		 test	 eax, eax
  00052	74 07		 je	 SHORT $LN3@iwm_hide

; 380  : 		pItemBtn->InitData();

  00054	8b c8		 mov	 ecx, eax
  00056	e8 00 00 00 00	 call	 ?InitData@SelectExtraItemBtn@@QAEXXZ ; SelectExtraItemBtn::InitData
$LN3@iwm_hide:

; 381  : 
; 382  : 	pItemBtn = dynamic_cast<SelectExtraItemBtn*>(FindChildWnd(ID_ITEM2_BTN));

  0005b	6a 00		 push	 0
  0005d	68 00 00 00 00	 push	 OFFSET ??_R0?AVSelectExtraItemBtn@@@8
  00062	53		 push	 ebx
  00063	6a 00		 push	 0
  00065	6a 0c		 push	 12			; 0000000cH
  00067	8b ce		 mov	 ecx, esi
  00069	ff d7		 call	 edi
  0006b	50		 push	 eax
  0006c	e8 00 00 00 00	 call	 ___RTDynamicCast
  00071	83 c4 14	 add	 esp, 20			; 00000014H

; 383  : 	if( pItemBtn )

  00074	85 c0		 test	 eax, eax
  00076	74 07		 je	 SHORT $LN2@iwm_hide

; 384  : 		pItemBtn->InitData();

  00078	8b c8		 mov	 ecx, eax
  0007a	e8 00 00 00 00	 call	 ?InitData@SelectExtraItemBtn@@QAEXXZ ; SelectExtraItemBtn::InitData
$LN2@iwm_hide:

; 385  : 
; 386  : 	pItemBtn = dynamic_cast<SelectExtraItemBtn*>(FindChildWnd(ID_ITEM3_BTN));

  0007f	6a 00		 push	 0
  00081	68 00 00 00 00	 push	 OFFSET ??_R0?AVSelectExtraItemBtn@@@8
  00086	53		 push	 ebx
  00087	6a 00		 push	 0
  00089	6a 0d		 push	 13			; 0000000dH
  0008b	8b ce		 mov	 ecx, esi
  0008d	ff d7		 call	 edi
  0008f	50		 push	 eax
  00090	e8 00 00 00 00	 call	 ___RTDynamicCast
  00095	83 c4 14	 add	 esp, 20			; 00000014H
  00098	5f		 pop	 edi
  00099	5e		 pop	 esi
  0009a	5b		 pop	 ebx

; 387  : 	if( pItemBtn )

  0009b	85 c0		 test	 eax, eax
  0009d	74 07		 je	 SHORT $LN1@iwm_hide

; 388  : 		pItemBtn->InitData();

  0009f	8b c8		 mov	 ecx, eax
  000a1	e8 00 00 00 00	 call	 ?InitData@SelectExtraItemBtn@@QAEXXZ ; SelectExtraItemBtn::InitData
$LN1@iwm_hide:

; 389  : }

  000a6	c9		 leave
  000a7	c3		 ret	 0
?iwm_hide@ItemMultipleCompoundWnd@@UAEXXZ ENDP		; ItemMultipleCompoundWnd::iwm_hide
_TEXT	ENDS
PUBLIC	??0?$vector@UEXTRAITEMSLOT@@V?$allocator@UEXTRAITEMSLOT@@@std@@@std@@QAE@ABV01@@Z ; std::vector<EXTRAITEMSLOT,std::allocator<EXTRAITEMSLOT> >::vector<EXTRAITEMSLOT,std::allocator<EXTRAITEMSLOT> >
;	COMDAT xdata$x
; File c:\program files (x86)\microsoft visual studio 10.0\vc\include\xutility
xdata$x	SEGMENT
__catchsym$??0?$vector@UEXTRAITEMSLOT@@V?$allocator@UEXTRAITEMSLOT@@@std@@@std@@QAE@ABV01@@Z$2 DD 040H
	DD	00H
	DD	00H
	DD	FLAT:__catch$??0?$vector@UEXTRAITEMSLOT@@V?$allocator@UEXTRAITEMSLOT@@@std@@@std@@QAE@ABV01@@Z$0
__unwindtable$??0?$vector@UEXTRAITEMSLOT@@V?$allocator@UEXTRAITEMSLOT@@@std@@@std@@QAE@ABV01@@Z DD 0ffffffffH
	DD	00H
	DD	0ffffffffH
	DD	00H
__tryblocktable$??0?$vector@UEXTRAITEMSLOT@@V?$allocator@UEXTRAITEMSLOT@@@std@@@std@@QAE@ABV01@@Z DD 00H
	DD	00H
	DD	01H
	DD	01H
	DD	FLAT:__catchsym$??0?$vector@UEXTRAITEMSLOT@@V?$allocator@UEXTRAITEMSLOT@@@std@@@std@@QAE@ABV01@@Z$2
__ehfuncinfo$??0?$vector@UEXTRAITEMSLOT@@V?$allocator@UEXTRAITEMSLOT@@@std@@@std@@QAE@ABV01@@Z DD 019930522H
	DD	02H
	DD	FLAT:__unwindtable$??0?$vector@UEXTRAITEMSLOT@@V?$allocator@UEXTRAITEMSLOT@@@std@@@std@@QAE@ABV01@@Z
	DD	01H
	DD	FLAT:__tryblocktable$??0?$vector@UEXTRAITEMSLOT@@V?$allocator@UEXTRAITEMSLOT@@@std@@@std@@QAE@ABV01@@Z
	DD	2 DUP(00H)
	DD	00H
	DD	01H
; Function compile flags: /Ogsp
; File c:\program files (x86)\microsoft visual studio 10.0\vc\include\vector
xdata$x	ENDS
;	COMDAT ??0?$vector@UEXTRAITEMSLOT@@V?$allocator@UEXTRAITEMSLOT@@@std@@@std@@QAE@ABV01@@Z
_TEXT	SEGMENT
_this$ = -20						; size = 4
__$EHRec$ = -16						; size = 16
__Cat$519497 = 8					; size = 1
__Right$ = 8						; size = 4
??0?$vector@UEXTRAITEMSLOT@@V?$allocator@UEXTRAITEMSLOT@@@std@@@std@@QAE@ABV01@@Z PROC ; std::vector<EXTRAITEMSLOT,std::allocator<EXTRAITEMSLOT> >::vector<EXTRAITEMSLOT,std::allocator<EXTRAITEMSLOT> >, COMDAT
; _this$ = ecx

; 535  : 		{	// construct by copying _Right

  00000	6a 08		 push	 8
  00002	b8 00 00 00 00	 mov	 eax, __ehhandler$??0?$vector@UEXTRAITEMSLOT@@V?$allocator@UEXTRAITEMSLOT@@@std@@@std@@QAE@ABV01@@Z
  00007	e8 00 00 00 00	 call	 __EH_prolog3_catch
  0000c	8b f1		 mov	 esi, ecx
  0000e	89 75 ec	 mov	 DWORD PTR _this$[ebp], esi

; 536  : 		if (_Buy(_Right.size()))

  00011	8b 7d 08	 mov	 edi, DWORD PTR __Right$[ebp]
  00014	33 db		 xor	 ebx, ebx
  00016	89 1e		 mov	 DWORD PTR [esi], ebx
  00018	89 5e 04	 mov	 DWORD PTR [esi+4], ebx
  0001b	89 5e 08	 mov	 DWORD PTR [esi+8], ebx
  0001e	8b 47 04	 mov	 eax, DWORD PTR [edi+4]
  00021	2b 07		 sub	 eax, DWORD PTR [edi]
  00023	6a 48		 push	 72			; 00000048H
  00025	59		 pop	 ecx
  00026	99		 cdq
  00027	f7 f9		 idiv	 ecx
  00029	8b ce		 mov	 ecx, esi
  0002b	50		 push	 eax
  0002c	e8 00 00 00 00	 call	 ?_Buy@?$vector@UEXTRAITEMSLOT@@V?$allocator@UEXTRAITEMSLOT@@@std@@@std@@IAE_NI@Z ; std::vector<EXTRAITEMSLOT,std::allocator<EXTRAITEMSLOT> >::_Buy
  00031	84 c0		 test	 al, al
  00033	74 1f		 je	 SHORT $LN7@vector@2

; 537  : 			_TRY_BEGIN
; 538  : 			this->_Mylast = _Ucopy(_Right.begin(), _Right.end(),
; 539  : 				this->_Myfirst);

  00035	ff 75 08	 push	 DWORD PTR __Cat$519497[ebp]
  00038	8b 0e		 mov	 ecx, DWORD PTR [esi]
  0003a	8b 47 04	 mov	 eax, DWORD PTR [edi+4]
  0003d	8b 3f		 mov	 edi, DWORD PTR [edi]
  0003f	8d 56 0c	 lea	 edx, DWORD PTR [esi+12]
  00042	52		 push	 edx
  00043	51		 push	 ecx
  00044	50		 push	 eax
  00045	57		 push	 edi
  00046	89 5d fc	 mov	 DWORD PTR __$EHRec$[ebp+12], ebx
  00049	e8 00 00 00 00	 call	 ??$_Uninit_copy@V?$_Vector_const_iterator@V?$_Vector_val@UEXTRAITEMSLOT@@V?$allocator@UEXTRAITEMSLOT@@@std@@@std@@@std@@PAUEXTRAITEMSLOT@@V?$allocator@UEXTRAITEMSLOT@@@2@@std@@YAPAUEXTRAITEMSLOT@@V?$_Vector_const_iterator@V?$_Vector_val@UEXTRAITEMSLOT@@V?$allocator@UEXTRAITEMSLOT@@@std@@@std@@@0@0PAU1@AAV?$allocator@UEXTRAITEMSLOT@@@0@U_Nonscalar_ptr_iterator_tag@0@@Z ; std::_Uninit_copy<std::_Vector_const_iterator<std::_Vector_val<EXTRAITEMSLOT,std::allocator<EXTRAITEMSLOT> > >,EXTRAITEMSLOT *,std::allocator<EXTRAITEMSLOT> >
  0004e	83 c4 14	 add	 esp, 20			; 00000014H
  00051	89 46 04	 mov	 DWORD PTR [esi+4], eax
$LN7@vector@2:

; 543  : 			_CATCH_END
; 544  : 		}

  00054	8b c6		 mov	 eax, esi
  00056	e8 00 00 00 00	 call	 __EH_epilog3
  0005b	c2 04 00	 ret	 4
__catch$??0?$vector@UEXTRAITEMSLOT@@V?$allocator@UEXTRAITEMSLOT@@@std@@@std@@QAE@ABV01@@Z$0:

; 540  : 			_CATCH_ALL
; 541  : 			_Tidy();

  0005e	8b 4d ec	 mov	 ecx, DWORD PTR _this$[ebp]
  00061	e8 00 00 00 00	 call	 ?_Tidy@?$vector@UEXTRAITEMSLOT@@V?$allocator@UEXTRAITEMSLOT@@@std@@@std@@IAEXXZ ; std::vector<EXTRAITEMSLOT,std::allocator<EXTRAITEMSLOT> >::_Tidy

; 542  : 			_RERAISE;

  00066	33 db		 xor	 ebx, ebx
  00068	53		 push	 ebx
  00069	53		 push	 ebx
  0006a	e8 00 00 00 00	 call	 __CxxThrowException@8
$LN38@vector@2:
$LN37@vector@2:
  0006f	cc		 int	 3
_TEXT	ENDS
;	COMDAT text$x
text$x	SEGMENT
__ehhandler$??0?$vector@UEXTRAITEMSLOT@@V?$allocator@UEXTRAITEMSLOT@@@std@@@std@@QAE@ABV01@@Z:
  00000	8b 54 24 08	 mov	 edx, DWORD PTR [esp+8]
  00004	8d 42 0c	 lea	 eax, DWORD PTR [edx+12]
  00007	8b 4a e8	 mov	 ecx, DWORD PTR [edx-24]
  0000a	33 c8		 xor	 ecx, eax
  0000c	e8 00 00 00 00	 call	 @__security_check_cookie@4
  00011	b8 00 00 00 00	 mov	 eax, OFFSET __ehfuncinfo$??0?$vector@UEXTRAITEMSLOT@@V?$allocator@UEXTRAITEMSLOT@@@std@@@std@@QAE@ABV01@@Z
  00016	e9 00 00 00 00	 jmp	 ___CxxFrameHandler3
text$x	ENDS
??0?$vector@UEXTRAITEMSLOT@@V?$allocator@UEXTRAITEMSLOT@@@std@@@std@@QAE@ABV01@@Z ENDP ; std::vector<EXTRAITEMSLOT,std::allocator<EXTRAITEMSLOT> >::vector<EXTRAITEMSLOT,std::allocator<EXTRAITEMSLOT> >
PUBLIC	??1?$vector@UEXTRAITEMSLOT@@V?$allocator@UEXTRAITEMSLOT@@@std@@@std@@QAE@XZ ; std::vector<EXTRAITEMSLOT,std::allocator<EXTRAITEMSLOT> >::~vector<EXTRAITEMSLOT,std::allocator<EXTRAITEMSLOT> >
; Function compile flags: /Ogsp
;	COMDAT ??1?$vector@UEXTRAITEMSLOT@@V?$allocator@UEXTRAITEMSLOT@@@std@@@std@@QAE@XZ
_TEXT	SEGMENT
??1?$vector@UEXTRAITEMSLOT@@V?$allocator@UEXTRAITEMSLOT@@@std@@@std@@QAE@XZ PROC ; std::vector<EXTRAITEMSLOT,std::allocator<EXTRAITEMSLOT> >::~vector<EXTRAITEMSLOT,std::allocator<EXTRAITEMSLOT> >, COMDAT
; _this$ = ecx

; 705  : 		_Tidy();

  00000	e9 00 00 00 00	 jmp	 ?_Tidy@?$vector@UEXTRAITEMSLOT@@V?$allocator@UEXTRAITEMSLOT@@@std@@@std@@IAEXXZ ; std::vector<EXTRAITEMSLOT,std::allocator<EXTRAITEMSLOT> >::_Tidy
??1?$vector@UEXTRAITEMSLOT@@V?$allocator@UEXTRAITEMSLOT@@@std@@@std@@QAE@XZ ENDP ; std::vector<EXTRAITEMSLOT,std::allocator<EXTRAITEMSLOT> >::~vector<EXTRAITEMSLOT,std::allocator<EXTRAITEMSLOT> >
_TEXT	ENDS
PUBLIC	?clear@?$vector@UEXTRAITEMSLOT@@V?$allocator@UEXTRAITEMSLOT@@@std@@@std@@QAEXXZ ; std::vector<EXTRAITEMSLOT,std::allocator<EXTRAITEMSLOT> >::clear
; Function compile flags: /Ogsp
;	COMDAT ?clear@?$vector@UEXTRAITEMSLOT@@V?$allocator@UEXTRAITEMSLOT@@@std@@@std@@QAEXXZ
_TEXT	SEGMENT
$T519527 = -4						; size = 4
?clear@?$vector@UEXTRAITEMSLOT@@V?$allocator@UEXTRAITEMSLOT@@@std@@@std@@QAEXXZ PROC ; std::vector<EXTRAITEMSLOT,std::allocator<EXTRAITEMSLOT> >::clear, COMDAT
; _this$ = ecx

; 1217 : 		{	// erase all

  00000	55		 push	 ebp
  00001	8b ec		 mov	 ebp, esp
  00003	51		 push	 ecx

; 1218 : 		erase(begin(), end());

  00004	8b 41 04	 mov	 eax, DWORD PTR [ecx+4]
  00007	8b 11		 mov	 edx, DWORD PTR [ecx]
  00009	50		 push	 eax
  0000a	52		 push	 edx
  0000b	8d 45 fc	 lea	 eax, DWORD PTR $T519527[ebp]
  0000e	50		 push	 eax
  0000f	e8 00 00 00 00	 call	 ?erase@?$vector@UEXTRAITEMSLOT@@V?$allocator@UEXTRAITEMSLOT@@@std@@@std@@QAE?AV?$_Vector_iterator@V?$_Vector_val@UEXTRAITEMSLOT@@V?$allocator@UEXTRAITEMSLOT@@@std@@@std@@@2@V?$_Vector_const_iterator@V?$_Vector_val@UEXTRAITEMSLOT@@V?$allocator@UEXTRAITEMSLOT@@@std@@@std@@@2@0@Z ; std::vector<EXTRAITEMSLOT,std::allocator<EXTRAITEMSLOT> >::erase

; 1219 : 		}

  00014	c9		 leave
  00015	c3		 ret	 0
?clear@?$vector@UEXTRAITEMSLOT@@V?$allocator@UEXTRAITEMSLOT@@@std@@@std@@QAEXXZ ENDP ; std::vector<EXTRAITEMSLOT,std::allocator<EXTRAITEMSLOT> >::clear
_TEXT	ENDS
PUBLIC	??1?$vector@UNewShopPullDownItem@@V?$allocator@UNewShopPullDownItem@@@std@@@std@@QAE@XZ ; std::vector<NewShopPullDownItem,std::allocator<NewShopPullDownItem> >::~vector<NewShopPullDownItem,std::allocator<NewShopPullDownItem> >
; Function compile flags: /Ogsp
;	COMDAT ??1?$vector@UNewShopPullDownItem@@V?$allocator@UNewShopPullDownItem@@@std@@@std@@QAE@XZ
_TEXT	SEGMENT
??1?$vector@UNewShopPullDownItem@@V?$allocator@UNewShopPullDownItem@@@std@@@std@@QAE@XZ PROC ; std::vector<NewShopPullDownItem,std::allocator<NewShopPullDownItem> >::~vector<NewShopPullDownItem,std::allocator<NewShopPullDownItem> >, COMDAT
; _this$ = ecx

; 705  : 		_Tidy();

  00000	e9 00 00 00 00	 jmp	 ?_Tidy@?$vector@UNewShopPullDownItem@@V?$allocator@UNewShopPullDownItem@@@std@@@std@@IAEXXZ ; std::vector<NewShopPullDownItem,std::allocator<NewShopPullDownItem> >::_Tidy
??1?$vector@UNewShopPullDownItem@@V?$allocator@UNewShopPullDownItem@@@std@@@std@@QAE@XZ ENDP ; std::vector<NewShopPullDownItem,std::allocator<NewShopPullDownItem> >::~vector<NewShopPullDownItem,std::allocator<NewShopPullDownItem> >
_TEXT	ENDS
PUBLIC	?clear@?$vector@UNewShopPullDownItem@@V?$allocator@UNewShopPullDownItem@@@std@@@std@@QAEXXZ ; std::vector<NewShopPullDownItem,std::allocator<NewShopPullDownItem> >::clear
; Function compile flags: /Ogsp
;	COMDAT ?clear@?$vector@UNewShopPullDownItem@@V?$allocator@UNewShopPullDownItem@@@std@@@std@@QAEXXZ
_TEXT	SEGMENT
$T519591 = -4						; size = 4
?clear@?$vector@UNewShopPullDownItem@@V?$allocator@UNewShopPullDownItem@@@std@@@std@@QAEXXZ PROC ; std::vector<NewShopPullDownItem,std::allocator<NewShopPullDownItem> >::clear, COMDAT
; _this$ = ecx

; 1217 : 		{	// erase all

  00000	55		 push	 ebp
  00001	8b ec		 mov	 ebp, esp
  00003	51		 push	 ecx

; 1218 : 		erase(begin(), end());

  00004	8b 41 04	 mov	 eax, DWORD PTR [ecx+4]
  00007	8b 11		 mov	 edx, DWORD PTR [ecx]
  00009	50		 push	 eax
  0000a	52		 push	 edx
  0000b	8d 45 fc	 lea	 eax, DWORD PTR $T519591[ebp]
  0000e	50		 push	 eax
  0000f	e8 00 00 00 00	 call	 ?erase@?$vector@UNewShopPullDownItem@@V?$allocator@UNewShopPullDownItem@@@std@@@std@@QAE?AV?$_Vector_iterator@V?$_Vector_val@UNewShopPullDownItem@@V?$allocator@UNewShopPullDownItem@@@std@@@std@@@2@V?$_Vector_const_iterator@V?$_Vector_val@UNewShopPullDownItem@@V?$allocator@UNewShopPullDownItem@@@std@@@std@@@2@0@Z ; std::vector<NewShopPullDownItem,std::allocator<NewShopPullDownItem> >::erase

; 1219 : 		}

  00014	c9		 leave
  00015	c3		 ret	 0
?clear@?$vector@UNewShopPullDownItem@@V?$allocator@UNewShopPullDownItem@@@std@@@std@@QAEXXZ ENDP ; std::vector<NewShopPullDownItem,std::allocator<NewShopPullDownItem> >::clear
_TEXT	ENDS
PUBLIC	?push_back@?$vector@UInvenItemInfo@@V?$allocator@UInvenItemInfo@@@std@@@std@@QAEXABUInvenItemInfo@@@Z ; std::vector<InvenItemInfo,std::allocator<InvenItemInfo> >::push_back
; Function compile flags: /Ogsp
;	COMDAT ?push_back@?$vector@UInvenItemInfo@@V?$allocator@UInvenItemInfo@@@std@@@std@@QAEXABUInvenItemInfo@@@Z
_TEXT	SEGMENT
__Val$ = 8						; size = 4
?push_back@?$vector@UInvenItemInfo@@V?$allocator@UInvenItemInfo@@@std@@@std@@QAEXABUInvenItemInfo@@@Z PROC ; std::vector<InvenItemInfo,std::allocator<InvenItemInfo> >::push_back, COMDAT
; _this$ = ecx

; 976  : 		{	// insert element at end

  00000	55		 push	 ebp
  00001	8b ec		 mov	 ebp, esp
  00003	56		 push	 esi
  00004	8b f1		 mov	 esi, ecx

; 977  : 		if (_Inside(_STD addressof(_Val)))

  00006	8b 4e 04	 mov	 ecx, DWORD PTR [esi+4]
  00009	57		 push	 edi
  0000a	8b 7d 08	 mov	 edi, DWORD PTR __Val$[ebp]
  0000d	3b f9		 cmp	 edi, ecx
  0000f	73 34		 jae	 SHORT $LN4@push_back
  00011	8b 16		 mov	 edx, DWORD PTR [esi]
  00013	3b d7		 cmp	 edx, edi
  00015	77 2e		 ja	 SHORT $LN4@push_back

; 978  : 			{	// push back an element
; 979  : 			size_type _Idx = _STD addressof(_Val) - this->_Myfirst;

  00017	8b c7		 mov	 eax, edi
  00019	2b c2		 sub	 eax, edx
  0001b	6a 0c		 push	 12			; 0000000cH
  0001d	99		 cdq
  0001e	5f		 pop	 edi
  0001f	f7 ff		 idiv	 edi
  00021	8b f8		 mov	 edi, eax

; 980  : 			if (this->_Mylast == this->_Myend)

  00023	3b 4e 08	 cmp	 ecx, DWORD PTR [esi+8]
  00026	75 09		 jne	 SHORT $LN3@push_back

; 981  : 				_Reserve(1);

  00028	6a 01		 push	 1
  0002a	8b ce		 mov	 ecx, esi
  0002c	e8 00 00 00 00	 call	 ?_Reserve@?$vector@UInvenItemInfo@@V?$allocator@UInvenItemInfo@@@std@@@std@@IAEXI@Z ; std::vector<InvenItemInfo,std::allocator<InvenItemInfo> >::_Reserve
$LN3@push_back:

; 982  : 			_Orphan_range(this->_Mylast, this->_Mylast);
; 983  : 			_Cons_val(this->_Alval,
; 984  : 				this->_Mylast,
; 985  : 				this->_Myfirst[_Idx]);

  00031	6b ff 0c	 imul	 edi, 12			; 0000000cH
  00034	03 3e		 add	 edi, DWORD PTR [esi]
  00036	8d 46 0c	 lea	 eax, DWORD PTR [esi+12]
  00039	57		 push	 edi
  0003a	ff 76 04	 push	 DWORD PTR [esi+4]
  0003d	50		 push	 eax
  0003e	e8 00 00 00 00	 call	 ??$_Cons_val@V?$allocator@UInvenItemInfo@@@std@@UInvenItemInfo@@AAU3@@std@@YAXAAV?$allocator@UInvenItemInfo@@@0@PAUInvenItemInfo@@AAU2@@Z ; std::_Cons_val<std::allocator<InvenItemInfo>,InvenItemInfo,InvenItemInfo &>

; 986  : 			++this->_Mylast;
; 987  : 			}
; 988  : 		else

  00043	eb 1b		 jmp	 SHORT $LN20@push_back
$LN4@push_back:

; 989  : 			{	// push back a non-element
; 990  : 			if (this->_Mylast == this->_Myend)

  00045	3b 4e 08	 cmp	 ecx, DWORD PTR [esi+8]
  00048	75 09		 jne	 SHORT $LN1@push_back

; 991  : 				_Reserve(1);

  0004a	6a 01		 push	 1
  0004c	8b ce		 mov	 ecx, esi
  0004e	e8 00 00 00 00	 call	 ?_Reserve@?$vector@UInvenItemInfo@@V?$allocator@UInvenItemInfo@@@std@@@std@@IAEXI@Z ; std::vector<InvenItemInfo,std::allocator<InvenItemInfo> >::_Reserve
$LN1@push_back:

; 992  : 			_Orphan_range(this->_Mylast, this->_Mylast);
; 993  : 			_Cons_val(this->_Alval,
; 994  : 				this->_Mylast,
; 995  : 				_Val);

  00053	57		 push	 edi
  00054	ff 76 04	 push	 DWORD PTR [esi+4]
  00057	8d 46 0c	 lea	 eax, DWORD PTR [esi+12]
  0005a	50		 push	 eax
  0005b	e8 00 00 00 00	 call	 ??$_Cons_val@V?$allocator@UInvenItemInfo@@@std@@UInvenItemInfo@@ABU3@@std@@YAXAAV?$allocator@UInvenItemInfo@@@0@PAUInvenItemInfo@@ABU2@@Z ; std::_Cons_val<std::allocator<InvenItemInfo>,InvenItemInfo,InvenItemInfo const &>
$LN20@push_back:
  00060	83 c4 0c	 add	 esp, 12			; 0000000cH

; 996  : 			++this->_Mylast;

  00063	83 46 04 0c	 add	 DWORD PTR [esi+4], 12	; 0000000cH
  00067	5f		 pop	 edi
  00068	5e		 pop	 esi

; 997  : 			}
; 998  : 		}

  00069	5d		 pop	 ebp
  0006a	c2 04 00	 ret	 4
?push_back@?$vector@UInvenItemInfo@@V?$allocator@UInvenItemInfo@@@std@@@std@@QAEXABUInvenItemInfo@@@Z ENDP ; std::vector<InvenItemInfo,std::allocator<InvenItemInfo> >::push_back
_TEXT	ENDS
PUBLIC	?_Reserve@?$vector@UEXTRAITEMSLOT@@V?$allocator@UEXTRAITEMSLOT@@@std@@@std@@IAEXI@Z ; std::vector<EXTRAITEMSLOT,std::allocator<EXTRAITEMSLOT> >::_Reserve
; Function compile flags: /Ogsp
;	COMDAT ?_Reserve@?$vector@UEXTRAITEMSLOT@@V?$allocator@UEXTRAITEMSLOT@@@std@@@std@@IAEXI@Z
_TEXT	SEGMENT
__Count$ = 8						; size = 4
?_Reserve@?$vector@UEXTRAITEMSLOT@@V?$allocator@UEXTRAITEMSLOT@@@std@@@std@@IAEXI@Z PROC ; std::vector<EXTRAITEMSLOT,std::allocator<EXTRAITEMSLOT> >::_Reserve, COMDAT
; _this$ = ecx

; 1290 : 		{	// ensure room for _Count new elements, grow exponentially

  00000	55		 push	 ebp
  00001	8b ec		 mov	 ebp, esp
  00003	56		 push	 esi
  00004	8b f1		 mov	 esi, ecx

; 1291 : 		size_type _Size = size();

  00006	8b 0e		 mov	 ecx, DWORD PTR [esi]
  00008	8b 46 04	 mov	 eax, DWORD PTR [esi+4]
  0000b	2b c1		 sub	 eax, ecx
  0000d	57		 push	 edi
  0000e	99		 cdq
  0000f	6a 48		 push	 72			; 00000048H
  00011	5f		 pop	 edi
  00012	f7 ff		 idiv	 edi
  00014	8b f8		 mov	 edi, eax

; 1292 : 		if (max_size() - _Count < _Size)

  00016	b8 e3 38 8e 03	 mov	 eax, 59652323		; 038e38e3H
  0001b	2b 45 08	 sub	 eax, DWORD PTR __Count$[ebp]
  0001e	3b c7		 cmp	 eax, edi
  00020	73 0b		 jae	 SHORT $LN4@Reserve@2

; 1293 : 			_Xlen();

  00022	68 00 00 00 00	 push	 OFFSET ??_C@_0BD@OLBABOEK@vector?$DMT?$DO?5too?5long?$AA@
  00027	ff 15 00 00 00
	00		 call	 DWORD PTR __imp_?_Xlength_error@std@@YAXPBD@Z
$LN21@Reserve@2:
$LN4@Reserve@2:

; 1294 : 		else if ((_Size += _Count) <= capacity())

  0002d	8b 46 08	 mov	 eax, DWORD PTR [esi+8]
  00030	2b c1		 sub	 eax, ecx
  00032	6a 48		 push	 72			; 00000048H
  00034	99		 cdq
  00035	59		 pop	 ecx
  00036	f7 f9		 idiv	 ecx
  00038	03 7d 08	 add	 edi, DWORD PTR __Count$[ebp]
  0003b	3b f8		 cmp	 edi, eax
  0003d	76 10		 jbe	 SHORT $LN1@Reserve@2

; 1295 : 			;
; 1296 : 		else
; 1297 : 			reserve(_Grow_to(_Size));

  0003f	57		 push	 edi
  00040	8b ce		 mov	 ecx, esi
  00042	e8 00 00 00 00	 call	 ?_Grow_to@?$vector@UEXTRAITEMSLOT@@V?$allocator@UEXTRAITEMSLOT@@@std@@@std@@IBEII@Z ; std::vector<EXTRAITEMSLOT,std::allocator<EXTRAITEMSLOT> >::_Grow_to
  00047	50		 push	 eax
  00048	8b ce		 mov	 ecx, esi
  0004a	e8 00 00 00 00	 call	 ?reserve@?$vector@UEXTRAITEMSLOT@@V?$allocator@UEXTRAITEMSLOT@@@std@@@std@@QAEXI@Z ; std::vector<EXTRAITEMSLOT,std::allocator<EXTRAITEMSLOT> >::reserve
$LN1@Reserve@2:
  0004f	5f		 pop	 edi
  00050	5e		 pop	 esi

; 1298 : 		}

  00051	5d		 pop	 ebp
  00052	c2 04 00	 ret	 4
$LN20@Reserve@2:
?_Reserve@?$vector@UEXTRAITEMSLOT@@V?$allocator@UEXTRAITEMSLOT@@@std@@@std@@IAEXI@Z ENDP ; std::vector<EXTRAITEMSLOT,std::allocator<EXTRAITEMSLOT> >::_Reserve
_TEXT	ENDS
PUBLIC	?_Reserve@?$vector@UNewShopPullDownItem@@V?$allocator@UNewShopPullDownItem@@@std@@@std@@IAEXI@Z ; std::vector<NewShopPullDownItem,std::allocator<NewShopPullDownItem> >::_Reserve
; Function compile flags: /Ogsp
;	COMDAT ?_Reserve@?$vector@UNewShopPullDownItem@@V?$allocator@UNewShopPullDownItem@@@std@@@std@@IAEXI@Z
_TEXT	SEGMENT
__Count$ = 8						; size = 4
?_Reserve@?$vector@UNewShopPullDownItem@@V?$allocator@UNewShopPullDownItem@@@std@@@std@@IAEXI@Z PROC ; std::vector<NewShopPullDownItem,std::allocator<NewShopPullDownItem> >::_Reserve, COMDAT
; _this$ = ecx

; 1290 : 		{	// ensure room for _Count new elements, grow exponentially

  00000	55		 push	 ebp
  00001	8b ec		 mov	 ebp, esp
  00003	56		 push	 esi
  00004	8b f1		 mov	 esi, ecx

; 1291 : 		size_type _Size = size();

  00006	8b 0e		 mov	 ecx, DWORD PTR [esi]
  00008	8b 46 04	 mov	 eax, DWORD PTR [esi+4]
  0000b	2b c1		 sub	 eax, ecx
  0000d	57		 push	 edi
  0000e	99		 cdq
  0000f	6a 50		 push	 80			; 00000050H
  00011	5f		 pop	 edi
  00012	f7 ff		 idiv	 edi
  00014	8b f8		 mov	 edi, eax

; 1292 : 		if (max_size() - _Count < _Size)

  00016	b8 33 33 33 03	 mov	 eax, 53687091		; 03333333H
  0001b	2b 45 08	 sub	 eax, DWORD PTR __Count$[ebp]
  0001e	3b c7		 cmp	 eax, edi
  00020	73 0b		 jae	 SHORT $LN4@Reserve@3

; 1293 : 			_Xlen();

  00022	68 00 00 00 00	 push	 OFFSET ??_C@_0BD@OLBABOEK@vector?$DMT?$DO?5too?5long?$AA@
  00027	ff 15 00 00 00
	00		 call	 DWORD PTR __imp_?_Xlength_error@std@@YAXPBD@Z
$LN21@Reserve@3:
$LN4@Reserve@3:

; 1294 : 		else if ((_Size += _Count) <= capacity())

  0002d	8b 46 08	 mov	 eax, DWORD PTR [esi+8]
  00030	2b c1		 sub	 eax, ecx
  00032	6a 50		 push	 80			; 00000050H
  00034	99		 cdq
  00035	59		 pop	 ecx
  00036	f7 f9		 idiv	 ecx
  00038	03 7d 08	 add	 edi, DWORD PTR __Count$[ebp]
  0003b	3b f8		 cmp	 edi, eax
  0003d	76 10		 jbe	 SHORT $LN1@Reserve@3

; 1295 : 			;
; 1296 : 		else
; 1297 : 			reserve(_Grow_to(_Size));

  0003f	57		 push	 edi
  00040	8b ce		 mov	 ecx, esi
  00042	e8 00 00 00 00	 call	 ?_Grow_to@?$vector@UNewShopPullDownItem@@V?$allocator@UNewShopPullDownItem@@@std@@@std@@IBEII@Z ; std::vector<NewShopPullDownItem,std::allocator<NewShopPullDownItem> >::_Grow_to
  00047	50		 push	 eax
  00048	8b ce		 mov	 ecx, esi
  0004a	e8 00 00 00 00	 call	 ?reserve@?$vector@UNewShopPullDownItem@@V?$allocator@UNewShopPullDownItem@@@std@@@std@@QAEXI@Z ; std::vector<NewShopPullDownItem,std::allocator<NewShopPullDownItem> >::reserve
$LN1@Reserve@3:
  0004f	5f		 pop	 edi
  00050	5e		 pop	 esi

; 1298 : 		}

  00051	5d		 pop	 ebp
  00052	c2 04 00	 ret	 4
$LN20@Reserve@3:
?_Reserve@?$vector@UNewShopPullDownItem@@V?$allocator@UNewShopPullDownItem@@@std@@@std@@IAEXI@Z ENDP ; std::vector<NewShopPullDownItem,std::allocator<NewShopPullDownItem> >::_Reserve
; Function compile flags: /Ogsp
_TEXT	ENDS
;	COMDAT ??_GItemMultipleCompoundWnd@@UAEPAXI@Z
_TEXT	SEGMENT
___flags$ = 8						; size = 4
??_GItemMultipleCompoundWnd@@UAEPAXI@Z PROC		; ItemMultipleCompoundWnd::`scalar deleting destructor', COMDAT
; _this$ = ecx
  00000	55		 push	 ebp
  00001	8b ec		 mov	 ebp, esp
  00003	56		 push	 esi
  00004	8b f1		 mov	 esi, ecx
  00006	e8 00 00 00 00	 call	 ??1ItemMultipleCompoundWnd@@UAE@XZ ; ItemMultipleCompoundWnd::~ItemMultipleCompoundWnd
  0000b	f6 45 08 01	 test	 BYTE PTR ___flags$[ebp], 1
  0000f	74 07		 je	 SHORT $LN1@scalar@4
  00011	56		 push	 esi
  00012	e8 00 00 00 00	 call	 ??3@YAXPAX@Z		; operator delete
  00017	59		 pop	 ecx
$LN1@scalar@4:
  00018	8b c6		 mov	 eax, esi
  0001a	5e		 pop	 esi
  0001b	5d		 pop	 ebp
  0001c	c2 04 00	 ret	 4
??_GItemMultipleCompoundWnd@@UAEPAXI@Z ENDP		; ItemMultipleCompoundWnd::`scalar deleting destructor'
_TEXT	ENDS
PUBLIC	?LoadTotalList@ItemMultipleCompoundWnd@@IAEXXZ	; ItemMultipleCompoundWnd::LoadTotalList
EXTRN	?GetExtraItemArray@ioUserExtraItem@@QAE_NHAAUEXTRAITEMSLOT@@@Z:PROC ; ioUserExtraItem::GetExtraItemArray
EXTRN	?GetExtraItemCnt@ioUserExtraItem@@QAEHXZ:PROC	; ioUserExtraItem::GetExtraItemCnt
;	COMDAT xdata$x
; File c:\program files (x86)\microsoft visual studio 10.0\vc\include\xutility
xdata$x	SEGMENT
__unwindtable$?LoadTotalList@ItemMultipleCompoundWnd@@IAEXXZ DD 0ffffffffH
	DD	FLAT:__unwindfunclet$?LoadTotalList@ItemMultipleCompoundWnd@@IAEXXZ$0
__ehfuncinfo$?LoadTotalList@ItemMultipleCompoundWnd@@IAEXXZ DD 019930522H
	DD	01H
	DD	FLAT:__unwindtable$?LoadTotalList@ItemMultipleCompoundWnd@@IAEXXZ
	DD	2 DUP(00H)
	DD	2 DUP(00H)
	DD	00H
	DD	01H
; Function compile flags: /Ogsp
; File d:\lost saga for developer\youtube\tutorial\source\src\lsclient\gui\itemmultiplecompoundwnd.cpp
xdata$x	ENDS
;	COMDAT ?LoadTotalList@ItemMultipleCompoundWnd@@IAEXXZ
_TEXT	SEGMENT
_kSlot$510982 = -100					; size = 72
_kInfo$510986 = -28					; size = 12
$T519729 = -16						; size = 1
_iSize$ = -16						; size = 4
__$EHRec$ = -12						; size = 12
?LoadTotalList@ItemMultipleCompoundWnd@@IAEXXZ PROC	; ItemMultipleCompoundWnd::LoadTotalList, COMDAT
; _this$ = ecx

; 128  : {

  00000	6a 58		 push	 88			; 00000058H
  00002	b8 00 00 00 00	 mov	 eax, __ehhandler$?LoadTotalList@ItemMultipleCompoundWnd@@IAEXXZ
  00007	e8 00 00 00 00	 call	 __EH_prolog3
  0000c	8b f1		 mov	 esi, ecx

; 129  : 	ioUserExtraItem *pItem = g_MyInfo.GetUserExtraItem();

  0000e	e8 00 00 00 00	 call	 ?GetSingleton@ioMyInfo@@SAAAV1@XZ ; ioMyInfo::GetSingleton
  00013	8d b8 ac 01 00
	00		 lea	 edi, DWORD PTR [eax+428]

; 130  : 	if( !pItem )

  00019	85 ff		 test	 edi, edi
  0001b	75 0d		 jne	 SHORT $LN7@LoadTotalL

; 131  : 	{
; 132  : 		HideWnd();

  0001d	8b ce		 mov	 ecx, esi
  0001f	ff 15 00 00 00
	00		 call	 DWORD PTR __imp_?HideWnd@ioWnd@@QAEXXZ

; 133  : 		return;

  00025	e9 84 00 00 00	 jmp	 $LN8@LoadTotalL
$LN7@LoadTotalL:

; 134  : 	}
; 135  : 
; 136  : 	int iSize = pItem->GetExtraItemCnt();

  0002a	8b cf		 mov	 ecx, edi
  0002c	e8 00 00 00 00	 call	 ?GetExtraItemCnt@ioUserExtraItem@@QAEHXZ ; ioUserExtraItem::GetExtraItemCnt

; 137  : 	for( int i=0; i < iSize; ++i )

  00031	33 db		 xor	 ebx, ebx
  00033	89 45 f0	 mov	 DWORD PTR _iSize$[ebp], eax
  00036	85 c0		 test	 eax, eax
  00038	7e 5b		 jle	 SHORT $LN4@LoadTotalL
$LL6@LoadTotalL:

; 138  : 	{
; 139  : 		EXTRAITEMSLOT kSlot;

  0003a	8d 4d 9c	 lea	 ecx, DWORD PTR _kSlot$510982[ebp]
  0003d	e8 00 00 00 00	 call	 ??0EXTRAITEMSLOT@@QAE@XZ ; EXTRAITEMSLOT::EXTRAITEMSLOT
  00042	83 65 fc 00	 and	 DWORD PTR __$EHRec$[ebp+8], 0

; 140  : 		if( !pItem->GetExtraItemArray( i, kSlot ) )

  00046	8d 45 9c	 lea	 eax, DWORD PTR _kSlot$510982[ebp]
  00049	50		 push	 eax
  0004a	53		 push	 ebx
  0004b	8b cf		 mov	 ecx, edi
  0004d	e8 00 00 00 00	 call	 ?GetExtraItemArray@ioUserExtraItem@@QAE_NHAAUEXTRAITEMSLOT@@@Z ; ioUserExtraItem::GetExtraItemArray
  00052	84 c0		 test	 al, al

; 141  : 			continue;

  00054	74 2d		 je	 SHORT $LN34@LoadTotalL

; 142  : 
; 143  : 		if( kSlot.m_bCharEquip )

  00056	80 7d c2 00	 cmp	 BYTE PTR _kSlot$510982[ebp+38], 0

; 144  : 			continue;

  0005a	75 27		 jne	 SHORT $LN34@LoadTotalL

; 145  : 
; 146  : 		if( kSlot.m_PeriodType != EPT_MORTMAIN )

  0005c	83 7d a8 01	 cmp	 DWORD PTR _kSlot$510982[ebp+12], 1

; 147  : 			continue;

  00060	75 21		 jne	 SHORT $LN34@LoadTotalL

; 148  : 
; 149  : 		InvenItemInfo kInfo;
; 150  : 		kInfo.m_iSlotIndex = kSlot.m_iIndex;

  00062	8b 45 a4	 mov	 eax, DWORD PTR _kSlot$510982[ebp+8]
  00065	89 45 e4	 mov	 DWORD PTR _kInfo$510986[ebp], eax

; 151  : 		kInfo.m_iItemCode = kSlot.m_iItemCode;

  00068	8b 45 9c	 mov	 eax, DWORD PTR _kSlot$510982[ebp]
  0006b	89 45 e8	 mov	 DWORD PTR _kInfo$510986[ebp+4], eax

; 152  : 		kInfo.m_iReinforce = kSlot.m_iReinforce;

  0006e	8b 45 a0	 mov	 eax, DWORD PTR _kSlot$510982[ebp+4]
  00071	89 45 ec	 mov	 DWORD PTR _kInfo$510986[ebp+8], eax

; 153  : 
; 154  : 		m_vTotalList.push_back( kInfo );

  00074	8d 45 e4	 lea	 eax, DWORD PTR _kInfo$510986[ebp]
  00077	50		 push	 eax
  00078	8d 8e 68 01 00
	00		 lea	 ecx, DWORD PTR [esi+360]
  0007e	e8 00 00 00 00	 call	 ?push_back@?$vector@UInvenItemInfo@@V?$allocator@UInvenItemInfo@@@std@@@std@@QAEXABUInvenItemInfo@@@Z ; std::vector<InvenItemInfo,std::allocator<InvenItemInfo> >::push_back
$LN34@LoadTotalL:

; 155  : 	}

  00083	83 4d fc ff	 or	 DWORD PTR __$EHRec$[ebp+8], -1
  00087	8d 4d 9c	 lea	 ecx, DWORD PTR _kSlot$510982[ebp]
  0008a	e8 00 00 00 00	 call	 ??1EXTRAITEMSLOT@@QAE@XZ
  0008f	43		 inc	 ebx
  00090	3b 5d f0	 cmp	 ebx, DWORD PTR _iSize$[ebp]
  00093	7c a5		 jl	 SHORT $LL6@LoadTotalL
$LN4@LoadTotalL:

; 156  : 
; 157  : 	std::sort( m_vTotalList.begin(), m_vTotalList.end(), CompoundItemInfoSort1() );

  00095	8b 86 6c 01 00
	00		 mov	 eax, DWORD PTR [esi+364]
  0009b	ff 75 f0	 push	 DWORD PTR $T519729[ebp]
  0009e	8b b6 68 01 00
	00		 mov	 esi, DWORD PTR [esi+360]
  000a4	50		 push	 eax
  000a5	56		 push	 esi
  000a6	e8 00 00 00 00	 call	 ??$sort@V?$_Vector_iterator@V?$_Vector_val@UInvenItemInfo@@V?$allocator@UInvenItemInfo@@@std@@@std@@@std@@VCompoundItemInfoSort1@@@std@@YAXV?$_Vector_iterator@V?$_Vector_val@UInvenItemInfo@@V?$allocator@UInvenItemInfo@@@std@@@std@@@0@0VCompoundItemInfoSort1@@@Z ; std::sort<std::_Vector_iterator<std::_Vector_val<InvenItemInfo,std::allocator<InvenItemInfo> > >,CompoundItemInfoSort1>
  000ab	83 c4 0c	 add	 esp, 12			; 0000000cH
$LN8@LoadTotalL:

; 158  : }

  000ae	e8 00 00 00 00	 call	 __EH_epilog3
  000b3	c3		 ret	 0
_TEXT	ENDS
;	COMDAT text$x
text$x	SEGMENT
__unwindfunclet$?LoadTotalList@ItemMultipleCompoundWnd@@IAEXXZ$0:
  00000	8d 4d 9c	 lea	 ecx, DWORD PTR _kSlot$510982[ebp]
  00003	e9 00 00 00 00	 jmp	 ??1EXTRAITEMSLOT@@QAE@XZ
__ehhandler$?LoadTotalList@ItemMultipleCompoundWnd@@IAEXXZ:
  00008	8b 54 24 08	 mov	 edx, DWORD PTR [esp+8]
  0000c	8d 42 0c	 lea	 eax, DWORD PTR [edx+12]
  0000f	8b 4a 98	 mov	 ecx, DWORD PTR [edx-104]
  00012	33 c8		 xor	 ecx, eax
  00014	e8 00 00 00 00	 call	 @__security_check_cookie@4
  00019	b8 00 00 00 00	 mov	 eax, OFFSET __ehfuncinfo$?LoadTotalList@ItemMultipleCompoundWnd@@IAEXXZ
  0001e	e9 00 00 00 00	 jmp	 ___CxxFrameHandler3
text$x	ENDS
?LoadTotalList@ItemMultipleCompoundWnd@@IAEXXZ ENDP	; ItemMultipleCompoundWnd::LoadTotalList
PUBLIC	?push_back@?$vector@UEXTRAITEMSLOT@@V?$allocator@UEXTRAITEMSLOT@@@std@@@std@@QAEXABUEXTRAITEMSLOT@@@Z ; std::vector<EXTRAITEMSLOT,std::allocator<EXTRAITEMSLOT> >::push_back
; Function compile flags: /Ogsp
; File c:\program files (x86)\microsoft visual studio 10.0\vc\include\vector
;	COMDAT ?push_back@?$vector@UEXTRAITEMSLOT@@V?$allocator@UEXTRAITEMSLOT@@@std@@@std@@QAEXABUEXTRAITEMSLOT@@@Z
_TEXT	SEGMENT
__Val$ = 8						; size = 4
?push_back@?$vector@UEXTRAITEMSLOT@@V?$allocator@UEXTRAITEMSLOT@@@std@@@std@@QAEXABUEXTRAITEMSLOT@@@Z PROC ; std::vector<EXTRAITEMSLOT,std::allocator<EXTRAITEMSLOT> >::push_back, COMDAT
; _this$ = ecx

; 976  : 		{	// insert element at end

  00000	55		 push	 ebp
  00001	8b ec		 mov	 ebp, esp
  00003	56		 push	 esi
  00004	8b f1		 mov	 esi, ecx

; 977  : 		if (_Inside(_STD addressof(_Val)))

  00006	8b 4e 04	 mov	 ecx, DWORD PTR [esi+4]
  00009	57		 push	 edi
  0000a	8b 7d 08	 mov	 edi, DWORD PTR __Val$[ebp]
  0000d	3b f9		 cmp	 edi, ecx
  0000f	73 37		 jae	 SHORT $LN4@push_back@2
  00011	8b 16		 mov	 edx, DWORD PTR [esi]
  00013	3b d7		 cmp	 edx, edi
  00015	77 31		 ja	 SHORT $LN4@push_back@2

; 978  : 			{	// push back an element
; 979  : 			size_type _Idx = _STD addressof(_Val) - this->_Myfirst;

  00017	8b c7		 mov	 eax, edi
  00019	2b c2		 sub	 eax, edx
  0001b	6a 48		 push	 72			; 00000048H
  0001d	99		 cdq
  0001e	5f		 pop	 edi
  0001f	f7 ff		 idiv	 edi
  00021	8b f8		 mov	 edi, eax

; 980  : 			if (this->_Mylast == this->_Myend)

  00023	3b 4e 08	 cmp	 ecx, DWORD PTR [esi+8]
  00026	75 09		 jne	 SHORT $LN3@push_back@2

; 981  : 				_Reserve(1);

  00028	6a 01		 push	 1
  0002a	8b ce		 mov	 ecx, esi
  0002c	e8 00 00 00 00	 call	 ?_Reserve@?$vector@UEXTRAITEMSLOT@@V?$allocator@UEXTRAITEMSLOT@@@std@@@std@@IAEXI@Z ; std::vector<EXTRAITEMSLOT,std::allocator<EXTRAITEMSLOT> >::_Reserve
$LN3@push_back@2:

; 982  : 			_Orphan_range(this->_Mylast, this->_Mylast);
; 983  : 			_Cons_val(this->_Alval,
; 984  : 				this->_Mylast,
; 985  : 				this->_Myfirst[_Idx]);

  00031	6b ff 48	 imul	 edi, 72			; 00000048H
  00034	03 3e		 add	 edi, DWORD PTR [esi]
  00036	8d 46 0c	 lea	 eax, DWORD PTR [esi+12]
  00039	57		 push	 edi
  0003a	ff 76 04	 push	 DWORD PTR [esi+4]
  0003d	50		 push	 eax
  0003e	e8 00 00 00 00	 call	 ??$_Cons_val@V?$allocator@UEXTRAITEMSLOT@@@std@@UEXTRAITEMSLOT@@AAU3@@std@@YAXAAV?$allocator@UEXTRAITEMSLOT@@@0@PAUEXTRAITEMSLOT@@AAU2@@Z ; std::_Cons_val<std::allocator<EXTRAITEMSLOT>,EXTRAITEMSLOT,EXTRAITEMSLOT &>
  00043	83 c4 0c	 add	 esp, 12			; 0000000cH

; 986  : 			++this->_Mylast;
; 987  : 			}
; 988  : 		else

  00046	eb 19		 jmp	 SHORT $LN26@push_back@2
$LN4@push_back@2:

; 989  : 			{	// push back a non-element
; 990  : 			if (this->_Mylast == this->_Myend)

  00048	3b 4e 08	 cmp	 ecx, DWORD PTR [esi+8]
  0004b	75 09		 jne	 SHORT $LN1@push_back@2

; 991  : 				_Reserve(1);

  0004d	6a 01		 push	 1
  0004f	8b ce		 mov	 ecx, esi
  00051	e8 00 00 00 00	 call	 ?_Reserve@?$vector@UEXTRAITEMSLOT@@V?$allocator@UEXTRAITEMSLOT@@@std@@@std@@IAEXI@Z ; std::vector<EXTRAITEMSLOT,std::allocator<EXTRAITEMSLOT> >::_Reserve
$LN1@push_back@2:

; 992  : 			_Orphan_range(this->_Mylast, this->_Mylast);
; 993  : 			_Cons_val(this->_Alval,
; 994  : 				this->_Mylast,
; 995  : 				_Val);

  00056	57		 push	 edi
  00057	ff 76 04	 push	 DWORD PTR [esi+4]
  0005a	e8 00 00 00 00	 call	 ??$_Construct@UEXTRAITEMSLOT@@ABU1@@std@@YAXPAUEXTRAITEMSLOT@@ABU1@@Z ; std::_Construct<EXTRAITEMSLOT,EXTRAITEMSLOT const &>
  0005f	59		 pop	 ecx
  00060	59		 pop	 ecx
$LN26@push_back@2:

; 996  : 			++this->_Mylast;

  00061	83 46 04 48	 add	 DWORD PTR [esi+4], 72	; 00000048H
  00065	5f		 pop	 edi
  00066	5e		 pop	 esi

; 997  : 			}
; 998  : 		}

  00067	5d		 pop	 ebp
  00068	c2 04 00	 ret	 4
?push_back@?$vector@UEXTRAITEMSLOT@@V?$allocator@UEXTRAITEMSLOT@@@std@@@std@@QAEXABUEXTRAITEMSLOT@@@Z ENDP ; std::vector<EXTRAITEMSLOT,std::allocator<EXTRAITEMSLOT> >::push_back
_TEXT	ENDS
PUBLIC	?push_back@?$vector@UNewShopPullDownItem@@V?$allocator@UNewShopPullDownItem@@@std@@@std@@QAEXABUNewShopPullDownItem@@@Z ; std::vector<NewShopPullDownItem,std::allocator<NewShopPullDownItem> >::push_back
; Function compile flags: /Ogsp
;	COMDAT ?push_back@?$vector@UNewShopPullDownItem@@V?$allocator@UNewShopPullDownItem@@@std@@@std@@QAEXABUNewShopPullDownItem@@@Z
_TEXT	SEGMENT
__Val$ = 8						; size = 4
?push_back@?$vector@UNewShopPullDownItem@@V?$allocator@UNewShopPullDownItem@@@std@@@std@@QAEXABUNewShopPullDownItem@@@Z PROC ; std::vector<NewShopPullDownItem,std::allocator<NewShopPullDownItem> >::push_back, COMDAT
; _this$ = ecx

; 976  : 		{	// insert element at end

  00000	55		 push	 ebp
  00001	8b ec		 mov	 ebp, esp
  00003	56		 push	 esi
  00004	8b f1		 mov	 esi, ecx

; 977  : 		if (_Inside(_STD addressof(_Val)))

  00006	8b 4e 04	 mov	 ecx, DWORD PTR [esi+4]
  00009	57		 push	 edi
  0000a	8b 7d 08	 mov	 edi, DWORD PTR __Val$[ebp]
  0000d	3b f9		 cmp	 edi, ecx
  0000f	73 37		 jae	 SHORT $LN4@push_back@3
  00011	8b 16		 mov	 edx, DWORD PTR [esi]
  00013	3b d7		 cmp	 edx, edi
  00015	77 31		 ja	 SHORT $LN4@push_back@3

; 978  : 			{	// push back an element
; 979  : 			size_type _Idx = _STD addressof(_Val) - this->_Myfirst;

  00017	8b c7		 mov	 eax, edi
  00019	2b c2		 sub	 eax, edx
  0001b	6a 50		 push	 80			; 00000050H
  0001d	99		 cdq
  0001e	5f		 pop	 edi
  0001f	f7 ff		 idiv	 edi
  00021	8b f8		 mov	 edi, eax

; 980  : 			if (this->_Mylast == this->_Myend)

  00023	3b 4e 08	 cmp	 ecx, DWORD PTR [esi+8]
  00026	75 09		 jne	 SHORT $LN3@push_back@3

; 981  : 				_Reserve(1);

  00028	6a 01		 push	 1
  0002a	8b ce		 mov	 ecx, esi
  0002c	e8 00 00 00 00	 call	 ?_Reserve@?$vector@UNewShopPullDownItem@@V?$allocator@UNewShopPullDownItem@@@std@@@std@@IAEXI@Z ; std::vector<NewShopPullDownItem,std::allocator<NewShopPullDownItem> >::_Reserve
$LN3@push_back@3:

; 982  : 			_Orphan_range(this->_Mylast, this->_Mylast);
; 983  : 			_Cons_val(this->_Alval,
; 984  : 				this->_Mylast,
; 985  : 				this->_Myfirst[_Idx]);

  00031	6b ff 50	 imul	 edi, 80			; 00000050H
  00034	03 3e		 add	 edi, DWORD PTR [esi]
  00036	8d 46 0c	 lea	 eax, DWORD PTR [esi+12]
  00039	57		 push	 edi
  0003a	ff 76 04	 push	 DWORD PTR [esi+4]
  0003d	50		 push	 eax
  0003e	e8 00 00 00 00	 call	 ??$_Cons_val@V?$allocator@UNewShopPullDownItem@@@std@@UNewShopPullDownItem@@AAU3@@std@@YAXAAV?$allocator@UNewShopPullDownItem@@@0@PAUNewShopPullDownItem@@AAU2@@Z ; std::_Cons_val<std::allocator<NewShopPullDownItem>,NewShopPullDownItem,NewShopPullDownItem &>
  00043	83 c4 0c	 add	 esp, 12			; 0000000cH

; 986  : 			++this->_Mylast;
; 987  : 			}
; 988  : 		else

  00046	eb 19		 jmp	 SHORT $LN26@push_back@3
$LN4@push_back@3:

; 989  : 			{	// push back a non-element
; 990  : 			if (this->_Mylast == this->_Myend)

  00048	3b 4e 08	 cmp	 ecx, DWORD PTR [esi+8]
  0004b	75 09		 jne	 SHORT $LN1@push_back@3

; 991  : 				_Reserve(1);

  0004d	6a 01		 push	 1
  0004f	8b ce		 mov	 ecx, esi
  00051	e8 00 00 00 00	 call	 ?_Reserve@?$vector@UNewShopPullDownItem@@V?$allocator@UNewShopPullDownItem@@@std@@@std@@IAEXI@Z ; std::vector<NewShopPullDownItem,std::allocator<NewShopPullDownItem> >::_Reserve
$LN1@push_back@3:

; 992  : 			_Orphan_range(this->_Mylast, this->_Mylast);
; 993  : 			_Cons_val(this->_Alval,
; 994  : 				this->_Mylast,
; 995  : 				_Val);

  00056	57		 push	 edi
  00057	ff 76 04	 push	 DWORD PTR [esi+4]
  0005a	e8 00 00 00 00	 call	 ??$_Construct@UNewShopPullDownItem@@ABU1@@std@@YAXPAUNewShopPullDownItem@@ABU1@@Z ; std::_Construct<NewShopPullDownItem,NewShopPullDownItem const &>
  0005f	59		 pop	 ecx
  00060	59		 pop	 ecx
$LN26@push_back@3:

; 996  : 			++this->_Mylast;

  00061	83 46 04 50	 add	 DWORD PTR [esi+4], 80	; 00000050H
  00065	5f		 pop	 edi
  00066	5e		 pop	 esi

; 997  : 			}
; 998  : 		}

  00067	5d		 pop	 ebp
  00068	c2 04 00	 ret	 4
?push_back@?$vector@UNewShopPullDownItem@@V?$allocator@UNewShopPullDownItem@@@std@@@std@@QAEXABUNewShopPullDownItem@@@Z ENDP ; std::vector<NewShopPullDownItem,std::allocator<NewShopPullDownItem> >::push_back
_TEXT	ENDS
PUBLIC	?SetInfoAndShow@ItemMultipleCompoundWnd@@QAEXK@Z ; ItemMultipleCompoundWnd::SetInfoAndShow
EXTRN	__imp_?ShowWnd@ioWnd@@QAEXXZ:PROC
EXTRN	__imp_?HideChildWnd@ioWnd@@QAEXK_N@Z:PROC
EXTRN	__imp_?SetChildInActive@ioWnd@@QAEXK@Z:PROC
EXTRN	?GetSingletonPtr@ioEtcInvenSubManualMgr@@SAPAV1@XZ:PROC ; ioEtcInvenSubManualMgr::GetSingletonPtr
; Function compile flags: /Ogsp
; File d:\lost saga for developer\youtube\tutorial\source\src\lsclient\gui\itemmultiplecompoundwnd.cpp
;	COMDAT ?SetInfoAndShow@ItemMultipleCompoundWnd@@QAEXK@Z
_TEXT	SEGMENT
$T519936 = -4						; size = 4
_dwType$ = 8						; size = 4
?SetInfoAndShow@ItemMultipleCompoundWnd@@QAEXK@Z PROC	; ItemMultipleCompoundWnd::SetInfoAndShow, COMDAT
; _this$ = ecx

; 58   : {

  00000	55		 push	 ebp
  00001	8b ec		 mov	 ebp, esp
  00003	51		 push	 ecx
  00004	53		 push	 ebx
  00005	56		 push	 esi
  00006	8b f1		 mov	 esi, ecx

; 59   : 	m_vTotalList.clear();

  00008	8d 8e 68 01 00
	00		 lea	 ecx, DWORD PTR [esi+360]
  0000e	8b 41 04	 mov	 eax, DWORD PTR [ecx+4]
  00011	8b 11		 mov	 edx, DWORD PTR [ecx]
  00013	57		 push	 edi
  00014	50		 push	 eax
  00015	52		 push	 edx
  00016	8d 45 fc	 lea	 eax, DWORD PTR $T519936[ebp]
  00019	50		 push	 eax
  0001a	e8 00 00 00 00	 call	 ?erase@?$vector@UInvenItemInfo@@V?$allocator@UInvenItemInfo@@@std@@@std@@QAE?AV?$_Vector_iterator@V?$_Vector_val@UInvenItemInfo@@V?$allocator@UInvenItemInfo@@@std@@@std@@@2@V?$_Vector_const_iterator@V?$_Vector_val@UInvenItemInfo@@V?$allocator@UInvenItemInfo@@@std@@@std@@@2@0@Z ; std::vector<InvenItemInfo,std::allocator<InvenItemInfo> >::erase

; 60   : 
; 61   : 	m_bAllSelect = false;
; 62   : 	m_dwEtcItemType = dwType;

  0001f	8b 45 08	 mov	 eax, DWORD PTR _dwType$[ebp]

; 63   : 
; 64   : 	// Load Total ExtraItemList
; 65   : 	LoadTotalList();

  00022	8b ce		 mov	 ecx, esi
  00024	c6 86 64 01 00
	00 00		 mov	 BYTE PTR [esi+356], 0
  0002b	89 86 60 01 00
	00		 mov	 DWORD PTR [esi+352], eax
  00031	e8 00 00 00 00	 call	 ?LoadTotalList@ItemMultipleCompoundWnd@@IAEXXZ ; ItemMultipleCompoundWnd::LoadTotalList

; 66   : 
; 67   : 	m_pManual = ioEtcInvenSubManualMgr::GetSingletonPtr();

  00036	e8 00 00 00 00	 call	 ?GetSingletonPtr@ioEtcInvenSubManualMgr@@SAPAV1@XZ ; ioEtcInvenSubManualMgr::GetSingletonPtr

; 68   : 
; 69   : 	// 
; 70   : 	SelectExtraItemBtn *pItemBtn = dynamic_cast<SelectExtraItemBtn*>(FindChildWnd(ID_ITEM1_BTN));

  0003b	8b 3d 00 00 00
	00		 mov	 edi, DWORD PTR __imp_?FindChildWnd@ioWnd@@QAEPAV1@K@Z
  00041	6a 00		 push	 0
  00043	68 00 00 00 00	 push	 OFFSET ??_R0?AVSelectExtraItemBtn@@@8
  00048	bb 00 00 00 00	 mov	 ebx, OFFSET ??_R0?AVioWnd@@@8
  0004d	53		 push	 ebx
  0004e	6a 00		 push	 0
  00050	6a 0b		 push	 11			; 0000000bH
  00052	8b ce		 mov	 ecx, esi
  00054	89 86 7c 01 00
	00		 mov	 DWORD PTR [esi+380], eax
  0005a	ff d7		 call	 edi
  0005c	50		 push	 eax
  0005d	e8 00 00 00 00	 call	 ___RTDynamicCast
  00062	83 c4 14	 add	 esp, 20			; 00000014H

; 71   : 	if( pItemBtn )

  00065	85 c0		 test	 eax, eax
  00067	74 07		 je	 SHORT $LN11@SetInfoAnd

; 72   : 		pItemBtn->InitData();

  00069	8b c8		 mov	 ecx, eax
  0006b	e8 00 00 00 00	 call	 ?InitData@SelectExtraItemBtn@@QAEXXZ ; SelectExtraItemBtn::InitData
$LN11@SetInfoAnd:

; 73   : 
; 74   : 	pItemBtn = dynamic_cast<SelectExtraItemBtn*>(FindChildWnd(ID_ITEM2_BTN));

  00070	6a 00		 push	 0
  00072	68 00 00 00 00	 push	 OFFSET ??_R0?AVSelectExtraItemBtn@@@8
  00077	53		 push	 ebx
  00078	6a 00		 push	 0
  0007a	6a 0c		 push	 12			; 0000000cH
  0007c	8b ce		 mov	 ecx, esi
  0007e	ff d7		 call	 edi
  00080	50		 push	 eax
  00081	e8 00 00 00 00	 call	 ___RTDynamicCast
  00086	83 c4 14	 add	 esp, 20			; 00000014H

; 75   : 	if( pItemBtn )

  00089	85 c0		 test	 eax, eax
  0008b	74 07		 je	 SHORT $LN10@SetInfoAnd

; 76   : 		pItemBtn->InitData();

  0008d	8b c8		 mov	 ecx, eax
  0008f	e8 00 00 00 00	 call	 ?InitData@SelectExtraItemBtn@@QAEXXZ ; SelectExtraItemBtn::InitData
$LN10@SetInfoAnd:

; 77   : 
; 78   : 	pItemBtn = dynamic_cast<SelectExtraItemBtn*>(FindChildWnd(ID_ITEM3_BTN));

  00094	6a 00		 push	 0
  00096	68 00 00 00 00	 push	 OFFSET ??_R0?AVSelectExtraItemBtn@@@8
  0009b	53		 push	 ebx
  0009c	6a 00		 push	 0
  0009e	6a 0d		 push	 13			; 0000000dH
  000a0	8b ce		 mov	 ecx, esi
  000a2	ff d7		 call	 edi
  000a4	50		 push	 eax
  000a5	e8 00 00 00 00	 call	 ___RTDynamicCast
  000aa	83 c4 14	 add	 esp, 20			; 00000014H

; 79   : 	if( pItemBtn )

  000ad	85 c0		 test	 eax, eax
  000af	74 07		 je	 SHORT $LN9@SetInfoAnd

; 80   : 		pItemBtn->InitData();

  000b1	8b c8		 mov	 ecx, eax
  000b3	e8 00 00 00 00	 call	 ?InitData@SelectExtraItemBtn@@QAEXXZ ; SelectExtraItemBtn::InitData
$LN9@SetInfoAnd:

; 81   : 
; 82   : 	InventoryIconBtn *pIconBtn = NULL;
; 83   : 	pIconBtn = dynamic_cast<InventoryIconBtn*>(FindChildWnd(ID_ICON1_BTN));

  000b8	6a 00		 push	 0
  000ba	68 00 00 00 00	 push	 OFFSET ??_R0?AVInventoryIconBtn@@@8
  000bf	53		 push	 ebx
  000c0	6a 00		 push	 0
  000c2	6a 15		 push	 21			; 00000015H
  000c4	8b ce		 mov	 ecx, esi
  000c6	ff d7		 call	 edi
  000c8	50		 push	 eax
  000c9	e8 00 00 00 00	 call	 ___RTDynamicCast

; 84   : 	if( pIconBtn )

  000ce	f3 0f 10 05 00
	00 00 00	 movss	 xmm0, DWORD PTR __real@3f1eb852
  000d6	33 d2		 xor	 edx, edx
  000d8	83 c4 14	 add	 esp, 20			; 00000014H
  000db	3b c2		 cmp	 eax, edx
  000dd	74 19		 je	 SHORT $LN8@SetInfoAnd

; 85   : 		pIconBtn->SetIcon( NULL, 0.62f, 0.62f );

  000df	52		 push	 edx
  000e0	52		 push	 edx
  000e1	51		 push	 ecx
  000e2	51		 push	 ecx
  000e3	f3 0f 11 44 24
	04		 movss	 DWORD PTR [esp+4], xmm0
  000e9	f3 0f 11 04 24	 movss	 DWORD PTR [esp], xmm0
  000ee	52		 push	 edx
  000ef	8b c8		 mov	 ecx, eax
  000f1	e8 00 00 00 00	 call	 ?SetIcon@InventoryIconBtn@@QAE_NPAVioUIRenderImage@@MMHW4NumberType@1@@Z ; InventoryIconBtn::SetIcon
  000f6	33 d2		 xor	 edx, edx
$LN8@SetInfoAnd:

; 86   : 
; 87   : 	pIconBtn = dynamic_cast<InventoryIconBtn*>(FindChildWnd(ID_ICON2_BTN));

  000f8	52		 push	 edx
  000f9	68 00 00 00 00	 push	 OFFSET ??_R0?AVInventoryIconBtn@@@8
  000fe	53		 push	 ebx
  000ff	52		 push	 edx
  00100	6a 16		 push	 22			; 00000016H
  00102	8b ce		 mov	 ecx, esi
  00104	ff d7		 call	 edi
  00106	50		 push	 eax
  00107	e8 00 00 00 00	 call	 ___RTDynamicCast

; 88   : 	if( pIconBtn )

  0010c	33 d2		 xor	 edx, edx
  0010e	83 c4 14	 add	 esp, 20			; 00000014H
  00111	3b c2		 cmp	 eax, edx
  00113	74 21		 je	 SHORT $LN7@SetInfoAnd

; 89   : 		pIconBtn->SetIcon( NULL, 0.62f, 0.62f );

  00115	f3 0f 10 05 00
	00 00 00	 movss	 xmm0, DWORD PTR __real@3f1eb852
  0011d	52		 push	 edx
  0011e	52		 push	 edx
  0011f	51		 push	 ecx
  00120	51		 push	 ecx
  00121	f3 0f 11 44 24
	04		 movss	 DWORD PTR [esp+4], xmm0
  00127	f3 0f 11 04 24	 movss	 DWORD PTR [esp], xmm0
  0012c	52		 push	 edx
  0012d	8b c8		 mov	 ecx, eax
  0012f	e8 00 00 00 00	 call	 ?SetIcon@InventoryIconBtn@@QAE_NPAVioUIRenderImage@@MMHW4NumberType@1@@Z ; InventoryIconBtn::SetIcon
  00134	33 d2		 xor	 edx, edx
$LN7@SetInfoAnd:

; 90   : 
; 91   : 	pIconBtn = dynamic_cast<InventoryIconBtn*>(FindChildWnd(ID_ICON3_BTN));

  00136	52		 push	 edx
  00137	68 00 00 00 00	 push	 OFFSET ??_R0?AVInventoryIconBtn@@@8
  0013c	53		 push	 ebx
  0013d	52		 push	 edx
  0013e	6a 17		 push	 23			; 00000017H
  00140	8b ce		 mov	 ecx, esi
  00142	ff d7		 call	 edi
  00144	50		 push	 eax
  00145	e8 00 00 00 00	 call	 ___RTDynamicCast

; 92   : 	if( pIconBtn )

  0014a	33 db		 xor	 ebx, ebx
  0014c	83 c4 14	 add	 esp, 20			; 00000014H
  0014f	3b c3		 cmp	 eax, ebx
  00151	74 1f		 je	 SHORT $LN6@SetInfoAnd

; 93   : 		pIconBtn->SetIcon( NULL, 0.62f, 0.62f );

  00153	f3 0f 10 05 00
	00 00 00	 movss	 xmm0, DWORD PTR __real@3f1eb852
  0015b	53		 push	 ebx
  0015c	53		 push	 ebx
  0015d	51		 push	 ecx
  0015e	51		 push	 ecx
  0015f	f3 0f 11 44 24
	04		 movss	 DWORD PTR [esp+4], xmm0
  00165	f3 0f 11 04 24	 movss	 DWORD PTR [esp], xmm0
  0016a	53		 push	 ebx
  0016b	8b c8		 mov	 ecx, eax
  0016d	e8 00 00 00 00	 call	 ?SetIcon@InventoryIconBtn@@QAE_NPAVioUIRenderImage@@MMHW4NumberType@1@@Z ; InventoryIconBtn::SetIcon
$LN6@SetInfoAnd:

; 94   : 
; 95   : 
; 96   : 	if( m_vTotalList.empty() )

  00172	8b 8e 68 01 00
	00		 mov	 ecx, DWORD PTR [esi+360]
  00178	3b 8e 6c 01 00
	00		 cmp	 ecx, DWORD PTR [esi+364]
  0017e	75 0e		 jne	 SHORT $LN5@SetInfoAnd

; 97   : 	{
; 98   : 		SetChildInActive( ID_ITEM1_BTN );

  00180	8b 3d 00 00 00
	00		 mov	 edi, DWORD PTR __imp_?SetChildInActive@ioWnd@@QAEXK@Z
$LN36@SetInfoAnd:
  00186	8b ce		 mov	 ecx, esi
  00188	6a 0b		 push	 11			; 0000000bH
  0018a	ff d7		 call	 edi

; 99   : 		SetChildInActive( ID_ITEM2_BTN );
; 100  : 		SetChildInActive( ID_ITEM3_BTN );
; 101  : 	}
; 102  : 	else

  0018c	eb 33		 jmp	 SHORT $LN34@SetInfoAnd
$LN5@SetInfoAnd:

; 103  : 	{
; 104  : 		if( m_dwEtcItemType == ioEtcItem::EIT_ETC_MULTIPLE_EQUAL_COMPOUND ||
; 105  : 			m_dwEtcItemType == ioEtcItem::EIT_ETC_MULTIPLE_EQUAL_COMPOUND2 ||
; 106  : 			m_dwEtcItemType == ioEtcItem::EIT_ETC_MULTIPLE_EQUAL_COMPOUND3 )

  0018e	8b 86 60 01 00
	00		 mov	 eax, DWORD PTR [esi+352]
  00194	3d 5f 42 0f 00	 cmp	 eax, 1000031		; 000f425fH
  00199	74 16		 je	 SHORT $LN2@SetInfoAnd
  0019b	3d a4 42 0f 00	 cmp	 eax, 1000100		; 000f42a4H
  001a0	74 0f		 je	 SHORT $LN2@SetInfoAnd
  001a2	3d a5 42 0f 00	 cmp	 eax, 1000101		; 000f42a5H
  001a7	74 08		 je	 SHORT $LN2@SetInfoAnd

; 111  : 		}
; 112  : 		else
; 113  : 		{
; 114  : 			SetChildActive( ID_ITEM1_BTN );

  001a9	8b 3d 00 00 00
	00		 mov	 edi, DWORD PTR __imp_?SetChildActive@ioWnd@@QAEXK@Z

; 115  : 			SetChildActive( ID_ITEM2_BTN );
; 116  : 			SetChildActive( ID_ITEM3_BTN );

  001af	eb d5		 jmp	 SHORT $LN36@SetInfoAnd
$LN2@SetInfoAnd:

; 107  : 		{
; 108  : 			SetChildActive( ID_ITEM1_BTN );

  001b1	6a 0b		 push	 11			; 0000000bH
  001b3	8b ce		 mov	 ecx, esi
  001b5	ff 15 00 00 00
	00		 call	 DWORD PTR __imp_?SetChildActive@ioWnd@@QAEXK@Z

; 109  : 			SetChildInActive( ID_ITEM2_BTN );

  001bb	8b 3d 00 00 00
	00		 mov	 edi, DWORD PTR __imp_?SetChildInActive@ioWnd@@QAEXK@Z
$LN34@SetInfoAnd:
  001c1	6a 0c		 push	 12			; 0000000cH
  001c3	8b ce		 mov	 ecx, esi
  001c5	ff d7		 call	 edi

; 110  : 			SetChildInActive( ID_ITEM3_BTN );

  001c7	6a 0d		 push	 13			; 0000000dH
  001c9	8b ce		 mov	 ecx, esi
  001cb	ff d7		 call	 edi

; 117  : 		}
; 118  : 	}
; 119  : 
; 120  : 	HideChildWnd( ID_ITEM_LIST_WND );

  001cd	53		 push	 ebx
  001ce	6a 65		 push	 101			; 00000065H
  001d0	8b ce		 mov	 ecx, esi
  001d2	ff 15 00 00 00
	00		 call	 DWORD PTR __imp_?HideChildWnd@ioWnd@@QAEXK_N@Z

; 121  : 
; 122  : 	UpdateData();

  001d8	8b ce		 mov	 ecx, esi
  001da	e8 00 00 00 00	 call	 ?UpdateData@ItemMultipleCompoundWnd@@IAEXXZ ; ItemMultipleCompoundWnd::UpdateData

; 123  : 
; 124  : 	ShowWnd();

  001df	8b ce		 mov	 ecx, esi
  001e1	ff 15 00 00 00
	00		 call	 DWORD PTR __imp_?ShowWnd@ioWnd@@QAEXXZ
  001e7	5f		 pop	 edi
  001e8	5e		 pop	 esi
  001e9	5b		 pop	 ebx

; 125  : }

  001ea	c9		 leave
  001eb	c2 04 00	 ret	 4
?SetInfoAndShow@ItemMultipleCompoundWnd@@QAEXK@Z ENDP	; ItemMultipleCompoundWnd::SetInfoAndShow
_TEXT	ENDS
PUBLIC	??_C@_0CE@BCKKEKEP@ItemMultipleCompoundWnd?3?3GetCurL@ ; `string'
PUBLIC	_rkList$GSCopy$
PUBLIC	_this$GSCopy$
PUBLIC	?GetCurList@ItemMultipleCompoundWnd@@IAEXKAAV?$vector@UNewShopPullDownItem@@V?$allocator@UNewShopPullDownItem@@@std@@@std@@@Z ; ItemMultipleCompoundWnd::GetCurList
EXTRN	__imp_??4ioHashString@@QAEAAV0@PBD@Z:PROC
EXTRN	__imp_?c_str@ioHashString@@QBEPBDXZ:PROC
EXTRN	__imp_?SafeSprintf@@YAXPADHPBD1H@Z:PROC
EXTRN	__EH_epilog3_GS:PROC
EXTRN	__EH_prolog3_GS:PROC
EXTRN	_memset:PROC
;	COMDAT ??_C@_0CE@BCKKEKEP@ItemMultipleCompoundWnd?3?3GetCurL@
; File d:\lost saga for developer\youtube\tutorial\source\src\lsclient\stringprotect.h
CONST	SEGMENT
??_C@_0CE@BCKKEKEP@ItemMultipleCompoundWnd?3?3GetCurL@ DB 'ItemMultipleCo'
	DB	'mpoundWnd::GetCurList', 00H			; `string'
CONST	ENDS
;	COMDAT xdata$x
xdata$x	SEGMENT
__ehfuncinfo$?GetCurList@ItemMultipleCompoundWnd@@IAEXKAAV?$vector@UNewShopPullDownItem@@V?$allocator@UNewShopPullDownItem@@@std@@@std@@@Z DD 019930522H
	DD	05H
	DD	FLAT:__unwindtable$?GetCurList@ItemMultipleCompoundWnd@@IAEXKAAV?$vector@UNewShopPullDownItem@@V?$allocator@UNewShopPullDownItem@@@std@@@std@@@Z
	DD	2 DUP(00H)
	DD	2 DUP(00H)
	DD	00H
	DD	01H
__unwindtable$?GetCurList@ItemMultipleCompoundWnd@@IAEXKAAV?$vector@UNewShopPullDownItem@@V?$allocator@UNewShopPullDownItem@@@std@@@std@@@Z DD 0ffffffffH
	DD	FLAT:__unwindfunclet$?GetCurList@ItemMultipleCompoundWnd@@IAEXKAAV?$vector@UNewShopPullDownItem@@V?$allocator@UNewShopPullDownItem@@@std@@@std@@@Z$0
	DD	0ffffffffH
	DD	FLAT:__unwindfunclet$?GetCurList@ItemMultipleCompoundWnd@@IAEXKAAV?$vector@UNewShopPullDownItem@@V?$allocator@UNewShopPullDownItem@@@std@@@std@@@Z$1
	DD	0ffffffffH
	DD	FLAT:__unwindfunclet$?GetCurList@ItemMultipleCompoundWnd@@IAEXKAAV?$vector@UNewShopPullDownItem@@V?$allocator@UNewShopPullDownItem@@@std@@@std@@@Z$2
	DD	0ffffffffH
	DD	FLAT:__unwindfunclet$?GetCurList@ItemMultipleCompoundWnd@@IAEXKAAV?$vector@UNewShopPullDownItem@@V?$allocator@UNewShopPullDownItem@@@std@@@std@@@Z$3
	DD	03H
	DD	FLAT:__unwindfunclet$?GetCurList@ItemMultipleCompoundWnd@@IAEXKAAV?$vector@UNewShopPullDownItem@@V?$allocator@UNewShopPullDownItem@@@std@@@std@@@Z$4
; Function compile flags: /Ogsp
; File d:\lost saga for developer\youtube\tutorial\source\src\lsclient\gui\itemmultiplecompoundwnd.cpp
xdata$x	ENDS
;	COMDAT ?GetCurList@ItemMultipleCompoundWnd@@IAEXKAAV?$vector@UNewShopPullDownItem@@V?$allocator@UNewShopPullDownItem@@@std@@@std@@@Z
_TEXT	SEGMENT
_kItem$511170 = -560					; size = 80
_kTargetSlot$511150 = -480				; size = 72
_kTargetSlot$511146 = -480				; size = 72
_kTargetSlot$511142 = -480				; size = 72
_kTargetSlot$511168 = -408				; size = 72
_rkList$GSCopy$ = -336					; size = 4
tv1333 = -332						; size = 4
_iItemType1$ = -328					; size = 4
_iItemIndex3$ = -324					; size = 4
_iItemType2$ = -320					; size = 4
_iItemType3$ = -316					; size = 4
_pItem$ = -312						; size = 4
_iItemIndex2$ = -308					; size = 4
_iItemIndex1$ = -304					; size = 4
_this$GSCopy$ = -300					; size = 4
$T520031 = -296						; size = 4
tv503 = -296						; size = 4
_iSize$ = -296						; size = 4
_bTotal$ = -289						; size = 1
_szName$511171 = -288					; size = 260
___encStr$511182 = -28					; size = 7
__$EHRec$ = -12						; size = 12
_dwID$ = 8						; size = 4
_rkList$ = 12						; size = 4
?GetCurList@ItemMultipleCompoundWnd@@IAEXKAAV?$vector@UNewShopPullDownItem@@V?$allocator@UNewShopPullDownItem@@@std@@@std@@@Z PROC ; ItemMultipleCompoundWnd::GetCurList, COMDAT
; _this$ = ecx

; 161  : {

  00000	68 24 02 00 00	 push	 548			; 00000224H
  00005	b8 00 00 00 00	 mov	 eax, __ehhandler$?GetCurList@ItemMultipleCompoundWnd@@IAEXKAAV?$vector@UNewShopPullDownItem@@V?$allocator@UNewShopPullDownItem@@@std@@@std@@@Z
  0000a	e8 00 00 00 00	 call	 __EH_prolog3_GS
  0000f	8b f1		 mov	 esi, ecx
  00011	8b 4d 0c	 mov	 ecx, DWORD PTR _rkList$[ebp]

; 162  : 	rkList.clear();

  00014	8b 41 04	 mov	 eax, DWORD PTR [ecx+4]
  00017	8b 11		 mov	 edx, DWORD PTR [ecx]
  00019	50		 push	 eax
  0001a	52		 push	 edx
  0001b	8d 85 d8 fe ff
	ff		 lea	 eax, DWORD PTR $T520031[ebp]
  00021	50		 push	 eax

; 163  : 
; 164  : 	ioUserExtraItem *pItem = g_MyInfo.GetUserExtraItem();

  00022	89 b5 d4 fe ff
	ff		 mov	 DWORD PTR _this$GSCopy$[ebp], esi
  00028	89 8d b0 fe ff
	ff		 mov	 DWORD PTR _rkList$GSCopy$[ebp], ecx
  0002e	e8 00 00 00 00	 call	 ?erase@?$vector@UNewShopPullDownItem@@V?$allocator@UNewShopPullDownItem@@@std@@@std@@QAE?AV?$_Vector_iterator@V?$_Vector_val@UNewShopPullDownItem@@V?$allocator@UNewShopPullDownItem@@@std@@@std@@@2@V?$_Vector_const_iterator@V?$_Vector_val@UNewShopPullDownItem@@V?$allocator@UNewShopPullDownItem@@@std@@@std@@@2@0@Z ; std::vector<NewShopPullDownItem,std::allocator<NewShopPullDownItem> >::erase
  00033	e8 00 00 00 00	 call	 ?GetSingleton@ioMyInfo@@SAAAV1@XZ ; ioMyInfo::GetSingleton
  00038	05 ac 01 00 00	 add	 eax, 428		; 000001acH

; 165  : 	if( !pItem )

  0003d	33 c9		 xor	 ecx, ecx
  0003f	89 85 c8 fe ff
	ff		 mov	 DWORD PTR _pItem$[ebp], eax
  00045	3b c1		 cmp	 eax, ecx
  00047	0f 84 48 04 00
	00		 je	 $LN113@GetCurList

; 166  : 		return;
; 167  : 
; 168  : 	int iSize = m_vTotalList.size();

  0004d	8b 86 6c 01 00
	00		 mov	 eax, DWORD PTR [esi+364]
  00053	2b 86 68 01 00
	00		 sub	 eax, DWORD PTR [esi+360]
  00059	6a 0c		 push	 12			; 0000000cH
  0005b	5f		 pop	 edi
  0005c	99		 cdq
  0005d	f7 ff		 idiv	 edi

; 169  : 
; 170  : 	SelectExtraItemBtn *pTarget = NULL;
; 171  : 	int iItemIndex1, iItemIndex2, iItemIndex3;
; 172  : 	int iItemType1, iItemType2, iItemType3;
; 173  : 
; 174  : 	iItemIndex1 = iItemIndex2 = iItemIndex3 = 0;
; 175  : 	iItemType1 = iItemType2 = iItemType3 = -1;

  0005f	83 8d c4 fe ff
	ff ff		 or	 DWORD PTR _iItemType3$[ebp], -1
  00066	83 8d c0 fe ff
	ff ff		 or	 DWORD PTR _iItemType2$[ebp], -1
  0006d	83 8d b8 fe ff
	ff ff		 or	 DWORD PTR _iItemType1$[ebp], -1

; 176  : 
; 177  : 	pTarget = dynamic_cast<SelectExtraItemBtn*>(FindChildWnd(ID_ITEM1_BTN));

  00074	51		 push	 ecx
  00075	bb 00 00 00 00	 mov	 ebx, OFFSET ??_R0?AVSelectExtraItemBtn@@@8
  0007a	53		 push	 ebx
  0007b	bf 00 00 00 00	 mov	 edi, OFFSET ??_R0?AVioWnd@@@8
  00080	57		 push	 edi
  00081	51		 push	 ecx
  00082	89 8d bc fe ff
	ff		 mov	 DWORD PTR _iItemIndex3$[ebp], ecx
  00088	89 8d cc fe ff
	ff		 mov	 DWORD PTR _iItemIndex2$[ebp], ecx
  0008e	89 8d d0 fe ff
	ff		 mov	 DWORD PTR _iItemIndex1$[ebp], ecx
  00094	8b ce		 mov	 ecx, esi
  00096	8b 35 00 00 00
	00		 mov	 esi, DWORD PTR __imp_?FindChildWnd@ioWnd@@QAEPAV1@K@Z
  0009c	6a 0b		 push	 11			; 0000000bH
  0009e	89 85 d8 fe ff
	ff		 mov	 DWORD PTR _iSize$[ebp], eax
  000a4	ff d6		 call	 esi
  000a6	50		 push	 eax
  000a7	e8 00 00 00 00	 call	 ___RTDynamicCast
  000ac	83 c4 14	 add	 esp, 20			; 00000014H

; 178  : 	if( pTarget )

  000af	85 c0		 test	 eax, eax
  000b1	74 5a		 je	 SHORT $LN122@GetCurList

; 179  : 	{
; 180  : 		iItemIndex1 = pTarget->GetSelectExtraItemSlot();

  000b3	8b 80 fc 01 00
	00		 mov	 eax, DWORD PTR [eax+508]

; 181  : 
; 182  : 		EXTRAITEMSLOT kTargetSlot;

  000b9	8d 8d 20 fe ff
	ff		 lea	 ecx, DWORD PTR _kTargetSlot$511142[ebp]
  000bf	89 85 d0 fe ff
	ff		 mov	 DWORD PTR _iItemIndex1$[ebp], eax
  000c5	e8 00 00 00 00	 call	 ??0EXTRAITEMSLOT@@QAE@XZ ; EXTRAITEMSLOT::EXTRAITEMSLOT

; 183  : 		if( pItem->GetExtraItem( iItemIndex1, kTargetSlot ) )

  000ca	8b 8d c8 fe ff
	ff		 mov	 ecx, DWORD PTR _pItem$[ebp]
  000d0	83 65 fc 00	 and	 DWORD PTR __$EHRec$[ebp+8], 0
  000d4	8d 85 20 fe ff
	ff		 lea	 eax, DWORD PTR _kTargetSlot$511142[ebp]
  000da	50		 push	 eax
  000db	ff b5 d0 fe ff
	ff		 push	 DWORD PTR _iItemIndex1$[ebp]
  000e1	e8 00 00 00 00	 call	 ?GetExtraItem@ioUserExtraItem@@QAE_NHAAUEXTRAITEMSLOT@@@Z ; ioUserExtraItem::GetExtraItem
  000e6	84 c0		 test	 al, al
  000e8	74 14		 je	 SHORT $LN121@GetCurList

; 184  : 		{
; 185  : 			iItemType1 = kTargetSlot.m_iItemCode / DEFAULT_BASIC_ITEM_CODE;		

  000ea	8b 85 20 fe ff
	ff		 mov	 eax, DWORD PTR _kTargetSlot$511142[ebp]
  000f0	99		 cdq
  000f1	b9 a0 86 01 00	 mov	 ecx, 100000		; 000186a0H
  000f6	f7 f9		 idiv	 ecx
  000f8	89 85 b8 fe ff
	ff		 mov	 DWORD PTR _iItemType1$[ebp], eax
$LN121@GetCurList:

; 186  : 		}
; 187  : 	}

  000fe	83 4d fc ff	 or	 DWORD PTR __$EHRec$[ebp+8], -1
  00102	8d 8d 20 fe ff
	ff		 lea	 ecx, DWORD PTR _kTargetSlot$511142[ebp]
  00108	e8 00 00 00 00	 call	 ??1EXTRAITEMSLOT@@QAE@XZ
$LN122@GetCurList:

; 188  : 
; 189  : 	pTarget = dynamic_cast<SelectExtraItemBtn*>(FindChildWnd(ID_ITEM2_BTN));

  0010d	8b 8d d4 fe ff
	ff		 mov	 ecx, DWORD PTR _this$GSCopy$[ebp]
  00113	6a 00		 push	 0
  00115	53		 push	 ebx
  00116	57		 push	 edi
  00117	6a 00		 push	 0
  00119	6a 0c		 push	 12			; 0000000cH
  0011b	ff d6		 call	 esi
  0011d	50		 push	 eax
  0011e	e8 00 00 00 00	 call	 ___RTDynamicCast
  00123	83 c4 14	 add	 esp, 20			; 00000014H

; 190  : 	if( pTarget )

  00126	85 c0		 test	 eax, eax
  00128	74 5d		 je	 SHORT $LN120@GetCurList

; 191  : 	{
; 192  : 		iItemIndex2 = pTarget->GetSelectExtraItemSlot();

  0012a	8b 80 fc 01 00
	00		 mov	 eax, DWORD PTR [eax+508]

; 193  : 
; 194  : 		EXTRAITEMSLOT kTargetSlot;

  00130	8d 8d 20 fe ff
	ff		 lea	 ecx, DWORD PTR _kTargetSlot$511146[ebp]
  00136	89 85 cc fe ff
	ff		 mov	 DWORD PTR _iItemIndex2$[ebp], eax
  0013c	e8 00 00 00 00	 call	 ??0EXTRAITEMSLOT@@QAE@XZ ; EXTRAITEMSLOT::EXTRAITEMSLOT

; 195  : 		if( pItem->GetExtraItem( iItemIndex2, kTargetSlot ) )

  00141	8b 8d c8 fe ff
	ff		 mov	 ecx, DWORD PTR _pItem$[ebp]
  00147	8d 85 20 fe ff
	ff		 lea	 eax, DWORD PTR _kTargetSlot$511146[ebp]
  0014d	50		 push	 eax
  0014e	ff b5 cc fe ff
	ff		 push	 DWORD PTR _iItemIndex2$[ebp]
  00154	c7 45 fc 01 00
	00 00		 mov	 DWORD PTR __$EHRec$[ebp+8], 1
  0015b	e8 00 00 00 00	 call	 ?GetExtraItem@ioUserExtraItem@@QAE_NHAAUEXTRAITEMSLOT@@@Z ; ioUserExtraItem::GetExtraItem
  00160	84 c0		 test	 al, al
  00162	74 14		 je	 SHORT $LN119@GetCurList

; 196  : 		{
; 197  : 			iItemType2 = kTargetSlot.m_iItemCode / DEFAULT_BASIC_ITEM_CODE;		

  00164	8b 85 20 fe ff
	ff		 mov	 eax, DWORD PTR _kTargetSlot$511146[ebp]
  0016a	99		 cdq
  0016b	b9 a0 86 01 00	 mov	 ecx, 100000		; 000186a0H
  00170	f7 f9		 idiv	 ecx
  00172	89 85 c0 fe ff
	ff		 mov	 DWORD PTR _iItemType2$[ebp], eax
$LN119@GetCurList:

; 198  : 		}
; 199  : 	}

  00178	83 4d fc ff	 or	 DWORD PTR __$EHRec$[ebp+8], -1
  0017c	8d 8d 20 fe ff
	ff		 lea	 ecx, DWORD PTR _kTargetSlot$511146[ebp]
  00182	e8 00 00 00 00	 call	 ??1EXTRAITEMSLOT@@QAE@XZ
$LN120@GetCurList:

; 200  : 
; 201  : 	pTarget = dynamic_cast<SelectExtraItemBtn*>(FindChildWnd(ID_ITEM3_BTN));

  00187	8b 8d d4 fe ff
	ff		 mov	 ecx, DWORD PTR _this$GSCopy$[ebp]
  0018d	6a 00		 push	 0
  0018f	53		 push	 ebx
  00190	57		 push	 edi
  00191	6a 00		 push	 0
  00193	6a 0d		 push	 13			; 0000000dH
  00195	ff d6		 call	 esi
  00197	50		 push	 eax
  00198	e8 00 00 00 00	 call	 ___RTDynamicCast

; 202  : 	if( pTarget )

  0019d	33 ff		 xor	 edi, edi
  0019f	83 c4 14	 add	 esp, 20			; 00000014H
  001a2	3b c7		 cmp	 eax, edi
  001a4	74 58		 je	 SHORT $LN118@GetCurList

; 203  : 	{
; 204  : 		iItemIndex3 = pTarget->GetSelectExtraItemSlot();

  001a6	8b b0 fc 01 00
	00		 mov	 esi, DWORD PTR [eax+508]

; 205  : 
; 206  : 		EXTRAITEMSLOT kTargetSlot;

  001ac	8d 8d 20 fe ff
	ff		 lea	 ecx, DWORD PTR _kTargetSlot$511150[ebp]
  001b2	89 b5 bc fe ff
	ff		 mov	 DWORD PTR _iItemIndex3$[ebp], esi
  001b8	e8 00 00 00 00	 call	 ??0EXTRAITEMSLOT@@QAE@XZ ; EXTRAITEMSLOT::EXTRAITEMSLOT

; 207  : 		if( pItem->GetExtraItem( iItemIndex3, kTargetSlot ) )

  001bd	8b 8d c8 fe ff
	ff		 mov	 ecx, DWORD PTR _pItem$[ebp]
  001c3	8d 85 20 fe ff
	ff		 lea	 eax, DWORD PTR _kTargetSlot$511150[ebp]
  001c9	50		 push	 eax
  001ca	56		 push	 esi
  001cb	c7 45 fc 02 00
	00 00		 mov	 DWORD PTR __$EHRec$[ebp+8], 2
  001d2	e8 00 00 00 00	 call	 ?GetExtraItem@ioUserExtraItem@@QAE_NHAAUEXTRAITEMSLOT@@@Z ; ioUserExtraItem::GetExtraItem
  001d7	84 c0		 test	 al, al
  001d9	74 14		 je	 SHORT $LN117@GetCurList

; 208  : 		{
; 209  : 			iItemType3 = kTargetSlot.m_iItemCode / DEFAULT_BASIC_ITEM_CODE;		

  001db	8b 85 20 fe ff
	ff		 mov	 eax, DWORD PTR _kTargetSlot$511150[ebp]
  001e1	99		 cdq
  001e2	b9 a0 86 01 00	 mov	 ecx, 100000		; 000186a0H
  001e7	f7 f9		 idiv	 ecx
  001e9	89 85 c4 fe ff
	ff		 mov	 DWORD PTR _iItemType3$[ebp], eax
$LN117@GetCurList:

; 210  : 		}
; 211  : 	}

  001ef	83 4d fc ff	 or	 DWORD PTR __$EHRec$[ebp+8], -1
  001f3	8d 8d 20 fe ff
	ff		 lea	 ecx, DWORD PTR _kTargetSlot$511150[ebp]
  001f9	e8 00 00 00 00	 call	 ??1EXTRAITEMSLOT@@QAE@XZ
$LN118@GetCurList:

; 212  : 
; 213  : 	bool bTotal = false;

  001fe	c6 85 df fe ff
	ff 00		 mov	 BYTE PTR _bTotal$[ebp], 0

; 214  : 	if( iItemIndex1 == 0 && iItemIndex2 == 0 && iItemIndex3 == 0 )

  00205	39 bd d0 fe ff
	ff		 cmp	 DWORD PTR _iItemIndex1$[ebp], edi
  0020b	75 17		 jne	 SHORT $LN116@GetCurList
  0020d	39 bd cc fe ff
	ff		 cmp	 DWORD PTR _iItemIndex2$[ebp], edi
  00213	75 0f		 jne	 SHORT $LN116@GetCurList
  00215	39 bd bc fe ff
	ff		 cmp	 DWORD PTR _iItemIndex3$[ebp], edi
  0021b	75 07		 jne	 SHORT $LN116@GetCurList

; 215  : 		bTotal = true;

  0021d	c6 85 df fe ff
	ff 01		 mov	 BYTE PTR _bTotal$[ebp], 1
$LN116@GetCurList:

; 216  : 
; 217  : 	for( int i=0; i < iSize; ++i )

  00224	8b 85 d8 fe ff
	ff		 mov	 eax, DWORD PTR _iSize$[ebp]
  0022a	3b c7		 cmp	 eax, edi
  0022c	0f 8e 63 02 00
	00		 jle	 $LN113@GetCurList
  00232	8b 1d 00 00 00
	00		 mov	 ebx, DWORD PTR __imp_?SafeSprintf@@YAXPADHPBD1H@Z
  00238	89 bd b4 fe ff
	ff		 mov	 DWORD PTR tv1333[ebp], edi
  0023e	89 85 d8 fe ff
	ff		 mov	 DWORD PTR tv503[ebp], eax
  00244	be 04 01 00 00	 mov	 esi, 260		; 00000104H
$LN115@GetCurList:

; 218  : 	{
; 219  : 		int iCurIndex = m_vTotalList[i].m_iSlotIndex;

  00249	8b 85 d4 fe ff
	ff		 mov	 eax, DWORD PTR _this$GSCopy$[ebp]
  0024f	8b 80 68 01 00
	00		 mov	 eax, DWORD PTR [eax+360]
  00255	8b 8d b4 fe ff
	ff		 mov	 ecx, DWORD PTR tv1333[ebp]
  0025b	8b 3c 08	 mov	 edi, DWORD PTR [eax+ecx]

; 220  : 		int iCurType = m_vTotalList[i].m_iItemCode / DEFAULT_BASIC_ITEM_CODE;

  0025e	8b 44 08 04	 mov	 eax, DWORD PTR [eax+ecx+4]
  00262	99		 cdq
  00263	b9 a0 86 01 00	 mov	 ecx, 100000		; 000186a0H
  00268	f7 f9		 idiv	 ecx

; 221  : 
; 222  : 		if( !bTotal )

  0026a	80 bd df fe ff
	ff 00		 cmp	 BYTE PTR _bTotal$[ebp], 0
  00271	0f 85 87 00 00
	00		 jne	 $LN105@GetCurList

; 223  : 		{
; 224  : 			// Equal Index
; 225  : 			if( iCurIndex == iItemIndex1 || iCurIndex == iItemIndex2 || iCurIndex == iItemIndex3 )

  00277	3b bd d0 fe ff
	ff		 cmp	 edi, DWORD PTR _iItemIndex1$[ebp]
  0027d	0f 84 ff 01 00
	00		 je	 $LN114@GetCurList
  00283	3b bd cc fe ff
	ff		 cmp	 edi, DWORD PTR _iItemIndex2$[ebp]
  00289	0f 84 f3 01 00
	00		 je	 $LN114@GetCurList
  0028f	3b bd bc fe ff
	ff		 cmp	 edi, DWORD PTR _iItemIndex3$[ebp]
  00295	0f 84 e7 01 00
	00		 je	 $LN114@GetCurList

; 226  : 				continue;
; 227  : 
; 228  : 			// Part Check
; 229  : 			if( m_dwEtcItemType == ioEtcItem::EIT_ETC_MULTIPLE_EQUAL_COMPOUND ||
; 230  : 				m_dwEtcItemType == ioEtcItem::EIT_ETC_MULTIPLE_EQUAL_COMPOUND2 ||
; 231  : 				m_dwEtcItemType == ioEtcItem::EIT_ETC_MULTIPLE_EQUAL_COMPOUND3 )

  0029b	8b 8d d4 fe ff
	ff		 mov	 ecx, DWORD PTR _this$GSCopy$[ebp]
  002a1	8b 89 60 01 00
	00		 mov	 ecx, DWORD PTR [ecx+352]
  002a7	81 f9 5f 42 0f
	00		 cmp	 ecx, 1000031		; 000f425fH
  002ad	74 10		 je	 SHORT $LN108@GetCurList
  002af	81 f9 a4 42 0f
	00		 cmp	 ecx, 1000100		; 000f42a4H
  002b5	74 08		 je	 SHORT $LN108@GetCurList
  002b7	81 f9 a5 42 0f
	00		 cmp	 ecx, 1000101		; 000f42a5H
  002bd	75 3f		 jne	 SHORT $LN105@GetCurList
$LN108@GetCurList:

; 232  : 			{
; 233  : 				if( iItemType1 != -1 && iItemType1 != iCurType )

  002bf	83 bd b8 fe ff
	ff ff		 cmp	 DWORD PTR _iItemType1$[ebp], -1
  002c6	74 0c		 je	 SHORT $LN107@GetCurList
  002c8	39 85 b8 fe ff
	ff		 cmp	 DWORD PTR _iItemType1$[ebp], eax
  002ce	0f 85 ae 01 00
	00		 jne	 $LN114@GetCurList
$LN107@GetCurList:

; 234  : 					continue;
; 235  : 
; 236  : 				if( iItemType2 != -1 && iItemType2 != iCurType )

  002d4	83 bd c0 fe ff
	ff ff		 cmp	 DWORD PTR _iItemType2$[ebp], -1
  002db	74 0c		 je	 SHORT $LN106@GetCurList
  002dd	39 85 c0 fe ff
	ff		 cmp	 DWORD PTR _iItemType2$[ebp], eax
  002e3	0f 85 99 01 00
	00		 jne	 $LN114@GetCurList
$LN106@GetCurList:

; 237  : 					continue;
; 238  : 
; 239  : 				if( iItemType3 != -1 && iItemType3 != iCurType )

  002e9	83 bd c4 fe ff
	ff ff		 cmp	 DWORD PTR _iItemType3$[ebp], -1
  002f0	74 0c		 je	 SHORT $LN105@GetCurList
  002f2	39 85 c4 fe ff
	ff		 cmp	 DWORD PTR _iItemType3$[ebp], eax

; 240  : 					continue;

  002f8	0f 85 84 01 00
	00		 jne	 $LN114@GetCurList
$LN105@GetCurList:

; 241  : 			}
; 242  : 		}
; 243  : 
; 244  : 		EXTRAITEMSLOT kTargetSlot;

  002fe	8d 8d 68 fe ff
	ff		 lea	 ecx, DWORD PTR _kTargetSlot$511168[ebp]
  00304	e8 00 00 00 00	 call	 ??0EXTRAITEMSLOT@@QAE@XZ ; EXTRAITEMSLOT::EXTRAITEMSLOT

; 245  : 		if( !pItem->GetExtraItem( iCurIndex, kTargetSlot ) )

  00309	8b 8d c8 fe ff
	ff		 mov	 ecx, DWORD PTR _pItem$[ebp]
  0030f	8d 85 68 fe ff
	ff		 lea	 eax, DWORD PTR _kTargetSlot$511168[ebp]
  00315	50		 push	 eax
  00316	57		 push	 edi
  00317	c7 45 fc 03 00
	00 00		 mov	 DWORD PTR __$EHRec$[ebp+8], 3
  0031e	e8 00 00 00 00	 call	 ?GetExtraItem@ioUserExtraItem@@QAE_NHAAUEXTRAITEMSLOT@@@Z ; ioUserExtraItem::GetExtraItem
  00323	84 c0		 test	 al, al

; 246  : 			continue;

  00325	0f 84 48 01 00
	00		 je	 $LN183@GetCurList

; 247  : 
; 248  : 		NewShopPullDownItem kItem;

  0032b	8d 8d d0 fd ff
	ff		 lea	 ecx, DWORD PTR _kItem$511170[ebp]
  00331	e8 00 00 00 00	 call	 ??0NewShopPullDownItem@@QAE@XZ ; NewShopPullDownItem::NewShopPullDownItem

; 249  : 		kItem.m_iMagicCode = kTargetSlot.m_iIndex;

  00336	8b 85 70 fe ff
	ff		 mov	 eax, DWORD PTR _kTargetSlot$511168[ebp+8]

; 250  : 
; 251  : 		char szName[MAX_PATH]="";

  0033c	68 03 01 00 00	 push	 259			; 00000103H
  00341	89 85 e0 fd ff
	ff		 mov	 DWORD PTR _kItem$511170[ebp+16], eax
  00347	33 ff		 xor	 edi, edi
  00349	8d 85 e1 fe ff
	ff		 lea	 eax, DWORD PTR _szName$511171[ebp+1]
  0034f	57		 push	 edi
  00350	50		 push	 eax
  00351	c6 45 fc 04	 mov	 BYTE PTR __$EHRec$[ebp+8], 4
  00355	c6 85 e0 fe ff
	ff 00		 mov	 BYTE PTR _szName$511171[ebp], 0
  0035c	e8 00 00 00 00	 call	 _memset
  00361	83 c4 0c	 add	 esp, 12			; 0000000cH

; 252  : 
; 253  : 		if( kTargetSlot.m_iTradeState == EET_ENABLE )

  00364	83 bd 80 fe ff
	ff 02		 cmp	 DWORD PTR _kTargetSlot$511168[ebp+24], 2
  0036b	75 48		 jne	 SHORT $LN103@GetCurList

; 254  : 		{
; 255  : 			SafeSprintf( szName, sizeof( szName ), STR(1), kTargetSlot.m_Name.c_str(), kTargetSlot.m_iReinforce );

  0036d	ff b5 6c fe ff
	ff		 push	 DWORD PTR _kTargetSlot$511168[ebp+4]
  00373	8d 8d 90 fe ff
	ff		 lea	 ecx, DWORD PTR _kTargetSlot$511168[ebp+40]
  00379	ff 15 00 00 00
	00		 call	 DWORD PTR __imp_?c_str@ioHashString@@QBEPBDXZ
  0037f	50		 push	 eax
  00380	57		 push	 edi
  00381	6a 01		 push	 1
$LN185@GetCurList:
  00383	68 00 00 00 00	 push	 OFFSET ??_C@_00CNPNBAHC@?$AA@
  00388	68 00 00 00 00	 push	 OFFSET ??_C@_0CE@BCKKEKEP@ItemMultipleCompoundWnd?3?3GetCurL@
  0038d	ff 15 00 00 00
	00		 call	 DWORD PTR __imp_?GetSingleton@ioStringManager@@SAAAV1@XZ
  00393	8b c8		 mov	 ecx, eax
  00395	ff 15 00 00 00
	00		 call	 DWORD PTR __imp_?GetString@ioStringManager@@QAEPADPBD0HW4FileNamePrefix@1@@Z
  0039b	50		 push	 eax
  0039c	8d 85 e0 fe ff
	ff		 lea	 eax, DWORD PTR _szName$511171[ebp]
  003a2	56		 push	 esi
  003a3	50		 push	 eax
  003a4	ff d3		 call	 ebx

; 256  : 			kItem.m_dwTextColor = TCT_DEFAULT_RED;

  003a6	c7 85 e4 fd ff
	ff 00 16 b9 ff	 mov	 DWORD PTR _kItem$511170[ebp+20], -4647424 ; ffb91600H
  003b0	e9 87 00 00 00	 jmp	 $LN184@GetCurList
$LN103@GetCurList:

; 257  : 		}
; 258  : 		else if( kTargetSlot.m_iTradeState == EET_NORMAL )

  003b5	83 bd 80 fe ff
	ff 01		 cmp	 DWORD PTR _kTargetSlot$511168[ebp+24], 1
  003bc	75 18		 jne	 SHORT $LN99@GetCurList

; 259  : 		{
; 260  : 			SafeSprintf( szName, sizeof( szName ), STR(2), kTargetSlot.m_Name.c_str(), kTargetSlot.m_iReinforce );

  003be	ff b5 6c fe ff
	ff		 push	 DWORD PTR _kTargetSlot$511168[ebp+4]
  003c4	8d 8d 90 fe ff
	ff		 lea	 ecx, DWORD PTR _kTargetSlot$511168[ebp+40]
  003ca	ff 15 00 00 00
	00		 call	 DWORD PTR __imp_?c_str@ioHashString@@QBEPBDXZ
  003d0	50		 push	 eax
  003d1	57		 push	 edi
  003d2	6a 02		 push	 2

; 261  : 			kItem.m_dwTextColor = TCT_DEFAULT_RED;
; 262  : 		}
; 263  : 		else

  003d4	eb ad		 jmp	 SHORT $LN185@GetCurList
$LN99@GetCurList:

; 264  : 		{
; 265  : 			StringCbPrintf_e( szName, sizeof( szName ), "%s +%d", kTargetSlot.m_Name.c_str(), kTargetSlot.m_iReinforce );

  003d6	6a 04		 push	 4
  003d8	c7 45 e4 c8 9f
	cb c1		 mov	 DWORD PTR ___encStr$511182[ebp], -1043619896 ; c1cb9fc8H
  003df	81 75 e4 ed ec
	eb ea		 xor	 DWORD PTR ___encStr$511182[ebp], -353637139 ; eaebecedH
  003e6	66 c7 45 e8 c8
	88		 mov	 WORD PTR ___encStr$511182[ebp+4], 35016 ; 000088c8H
  003ec	c6 45 ea 00	 mov	 BYTE PTR ___encStr$511182[ebp+6], 0
  003f0	58		 pop	 eax
$LL165@GetCurList:
  003f1	8b c8		 mov	 ecx, eax
  003f3	81 e1 03 00 00
	80		 and	 ecx, -2147483645	; 80000003H
  003f9	79 05		 jns	 SHORT $LN182@GetCurList
  003fb	49		 dec	 ecx
  003fc	83 c9 fc	 or	 ecx, -4			; fffffffcH
  003ff	41		 inc	 ecx
$LN182@GetCurList:
  00400	b2 ed		 mov	 dl, -19			; ffffffedH
  00402	2a d1		 sub	 dl, cl
  00404	30 54 05 e4	 xor	 BYTE PTR ___encStr$511182[ebp+eax], dl
  00408	40		 inc	 eax
  00409	83 f8 06	 cmp	 eax, 6
  0040c	7c e3		 jl	 SHORT $LL165@GetCurList
  0040e	ff b5 6c fe ff
	ff		 push	 DWORD PTR _kTargetSlot$511168[ebp+4]
  00414	8d 8d 90 fe ff
	ff		 lea	 ecx, DWORD PTR _kTargetSlot$511168[ebp+40]
  0041a	ff 15 00 00 00
	00		 call	 DWORD PTR __imp_?c_str@ioHashString@@QBEPBDXZ
  00420	50		 push	 eax
  00421	8d 45 e4	 lea	 eax, DWORD PTR ___encStr$511182[ebp]
  00424	50		 push	 eax
  00425	8d 85 e0 fe ff
	ff		 lea	 eax, DWORD PTR _szName$511171[ebp]
  0042b	56		 push	 esi
  0042c	50		 push	 eax
  0042d	e8 00 00 00 00	 call	 ?StringCbPrintfA@@YAJPADIPBDZZ ; StringCbPrintfA

; 266  : 			kItem.m_dwTextColor = TCT_DEFAULT_DARKGRAY;

  00432	c7 85 e4 fd ff
	ff 3a 3a 3a ff	 mov	 DWORD PTR _kItem$511170[ebp+20], -12961222 ; ff3a3a3aH
$LN184@GetCurList:

; 267  : 		}
; 268  : 
; 269  : 		kItem.m_szName      = szName;

  0043c	83 c4 14	 add	 esp, 20			; 00000014H
  0043f	8d 85 e0 fe ff
	ff		 lea	 eax, DWORD PTR _szName$511171[ebp]
  00445	50		 push	 eax
  00446	8d 8d d0 fd ff
	ff		 lea	 ecx, DWORD PTR _kItem$511170[ebp]
  0044c	ff 15 00 00 00
	00		 call	 DWORD PTR __imp_??4ioHashString@@QAEAAV0@PBD@Z

; 270  : 		rkList.push_back( kItem );

  00452	8b 8d b0 fe ff
	ff		 mov	 ecx, DWORD PTR _rkList$GSCopy$[ebp]
  00458	8d 85 d0 fd ff
	ff		 lea	 eax, DWORD PTR _kItem$511170[ebp]
  0045e	50		 push	 eax
  0045f	e8 00 00 00 00	 call	 ?push_back@?$vector@UNewShopPullDownItem@@V?$allocator@UNewShopPullDownItem@@@std@@@std@@QAEXABUNewShopPullDownItem@@@Z ; std::vector<NewShopPullDownItem,std::allocator<NewShopPullDownItem> >::push_back

; 271  : 	}

  00464	8d 8d d0 fd ff
	ff		 lea	 ecx, DWORD PTR _kItem$511170[ebp]
  0046a	c6 45 fc 03	 mov	 BYTE PTR __$EHRec$[ebp+8], 3
  0046e	e8 00 00 00 00	 call	 ??1NewShopPullDownItem@@QAE@XZ
$LN183@GetCurList:
  00473	83 4d fc ff	 or	 DWORD PTR __$EHRec$[ebp+8], -1
  00477	8d 8d 68 fe ff
	ff		 lea	 ecx, DWORD PTR _kTargetSlot$511168[ebp]
  0047d	e8 00 00 00 00	 call	 ??1EXTRAITEMSLOT@@QAE@XZ
$LN114@GetCurList:

; 216  : 
; 217  : 	for( int i=0; i < iSize; ++i )

  00482	83 85 b4 fe ff
	ff 0c		 add	 DWORD PTR tv1333[ebp], 12 ; 0000000cH
  00489	ff 8d d8 fe ff
	ff		 dec	 DWORD PTR tv503[ebp]
  0048f	0f 85 b4 fd ff
	ff		 jne	 $LN115@GetCurList
$LN113@GetCurList:

; 272  : }

  00495	e8 00 00 00 00	 call	 __EH_epilog3_GS
  0049a	c2 08 00	 ret	 8
_TEXT	ENDS
;	COMDAT text$x
text$x	SEGMENT
__unwindfunclet$?GetCurList@ItemMultipleCompoundWnd@@IAEXKAAV?$vector@UNewShopPullDownItem@@V?$allocator@UNewShopPullDownItem@@@std@@@std@@@Z$0:
  00000	8d 8d 20 fe ff
	ff		 lea	 ecx, DWORD PTR _kTargetSlot$511142[ebp]
  00006	e9 00 00 00 00	 jmp	 ??1EXTRAITEMSLOT@@QAE@XZ
__unwindfunclet$?GetCurList@ItemMultipleCompoundWnd@@IAEXKAAV?$vector@UNewShopPullDownItem@@V?$allocator@UNewShopPullDownItem@@@std@@@std@@@Z$1:
  0000b	8d 8d 20 fe ff
	ff		 lea	 ecx, DWORD PTR _kTargetSlot$511146[ebp]
  00011	e9 00 00 00 00	 jmp	 ??1EXTRAITEMSLOT@@QAE@XZ
__unwindfunclet$?GetCurList@ItemMultipleCompoundWnd@@IAEXKAAV?$vector@UNewShopPullDownItem@@V?$allocator@UNewShopPullDownItem@@@std@@@std@@@Z$2:
  00016	8d 8d 20 fe ff
	ff		 lea	 ecx, DWORD PTR _kTargetSlot$511150[ebp]
  0001c	e9 00 00 00 00	 jmp	 ??1EXTRAITEMSLOT@@QAE@XZ
__unwindfunclet$?GetCurList@ItemMultipleCompoundWnd@@IAEXKAAV?$vector@UNewShopPullDownItem@@V?$allocator@UNewShopPullDownItem@@@std@@@std@@@Z$3:
  00021	8d 8d 68 fe ff
	ff		 lea	 ecx, DWORD PTR _kTargetSlot$511168[ebp]
  00027	e9 00 00 00 00	 jmp	 ??1EXTRAITEMSLOT@@QAE@XZ
__unwindfunclet$?GetCurList@ItemMultipleCompoundWnd@@IAEXKAAV?$vector@UNewShopPullDownItem@@V?$allocator@UNewShopPullDownItem@@@std@@@std@@@Z$4:
  0002c	8d 8d d0 fd ff
	ff		 lea	 ecx, DWORD PTR _kItem$511170[ebp]
  00032	e9 00 00 00 00	 jmp	 ??1NewShopPullDownItem@@QAE@XZ
__ehhandler$?GetCurList@ItemMultipleCompoundWnd@@IAEXKAAV?$vector@UNewShopPullDownItem@@V?$allocator@UNewShopPullDownItem@@@std@@@std@@@Z:
  00037	8b 54 24 08	 mov	 edx, DWORD PTR [esp+8]
  0003b	8d 42 0c	 lea	 eax, DWORD PTR [edx+12]
  0003e	8b 8a cc fd ff
	ff		 mov	 ecx, DWORD PTR [edx-564]
  00044	33 c8		 xor	 ecx, eax
  00046	e8 00 00 00 00	 call	 @__security_check_cookie@4
  0004b	8b 4a fc	 mov	 ecx, DWORD PTR [edx-4]
  0004e	33 c8		 xor	 ecx, eax
  00050	e8 00 00 00 00	 call	 @__security_check_cookie@4
  00055	b8 00 00 00 00	 mov	 eax, OFFSET __ehfuncinfo$?GetCurList@ItemMultipleCompoundWnd@@IAEXKAAV?$vector@UNewShopPullDownItem@@V?$allocator@UNewShopPullDownItem@@@std@@@std@@@Z
  0005a	e9 00 00 00 00	 jmp	 ___CxxFrameHandler3
text$x	ENDS
?GetCurList@ItemMultipleCompoundWnd@@IAEXKAAV?$vector@UNewShopPullDownItem@@V?$allocator@UNewShopPullDownItem@@@std@@@std@@@Z ENDP ; ItemMultipleCompoundWnd::GetCurList
PUBLIC	?GetCurSeletedBtnList@ItemMultipleCompoundWnd@@IAEXKAAV?$vector@UEXTRAITEMSLOT@@V?$allocator@UEXTRAITEMSLOT@@@std@@@std@@@Z ; ItemMultipleCompoundWnd::GetCurSeletedBtnList
;	COMDAT xdata$x
; File c:\program files (x86)\microsoft visual studio 10.0\vc\include\vector
xdata$x	SEGMENT
__unwindtable$?GetCurSeletedBtnList@ItemMultipleCompoundWnd@@IAEXKAAV?$vector@UEXTRAITEMSLOT@@V?$allocator@UEXTRAITEMSLOT@@@std@@@std@@@Z DD 0ffffffffH
	DD	FLAT:__unwindfunclet$?GetCurSeletedBtnList@ItemMultipleCompoundWnd@@IAEXKAAV?$vector@UEXTRAITEMSLOT@@V?$allocator@UEXTRAITEMSLOT@@@std@@@std@@@Z$0
	DD	0ffffffffH
	DD	FLAT:__unwindfunclet$?GetCurSeletedBtnList@ItemMultipleCompoundWnd@@IAEXKAAV?$vector@UEXTRAITEMSLOT@@V?$allocator@UEXTRAITEMSLOT@@@std@@@std@@@Z$1
	DD	0ffffffffH
	DD	FLAT:__unwindfunclet$?GetCurSeletedBtnList@ItemMultipleCompoundWnd@@IAEXKAAV?$vector@UEXTRAITEMSLOT@@V?$allocator@UEXTRAITEMSLOT@@@std@@@std@@@Z$2
	DD	0ffffffffH
	DD	FLAT:__unwindfunclet$?GetCurSeletedBtnList@ItemMultipleCompoundWnd@@IAEXKAAV?$vector@UEXTRAITEMSLOT@@V?$allocator@UEXTRAITEMSLOT@@@std@@@std@@@Z$3
__ehfuncinfo$?GetCurSeletedBtnList@ItemMultipleCompoundWnd@@IAEXKAAV?$vector@UEXTRAITEMSLOT@@V?$allocator@UEXTRAITEMSLOT@@@std@@@std@@@Z DD 019930522H
	DD	04H
	DD	FLAT:__unwindtable$?GetCurSeletedBtnList@ItemMultipleCompoundWnd@@IAEXKAAV?$vector@UEXTRAITEMSLOT@@V?$allocator@UEXTRAITEMSLOT@@@std@@@std@@@Z
	DD	2 DUP(00H)
	DD	2 DUP(00H)
	DD	00H
	DD	01H
; Function compile flags: /Ogsp
; File d:\lost saga for developer\youtube\tutorial\source\src\lsclient\gui\itemmultiplecompoundwnd.cpp
xdata$x	ENDS
;	COMDAT ?GetCurSeletedBtnList@ItemMultipleCompoundWnd@@IAEXKAAV?$vector@UEXTRAITEMSLOT@@V?$allocator@UEXTRAITEMSLOT@@@std@@@std@@@Z
_TEXT	SEGMENT
_kTargetSlot$511378 = -196				; size = 72
_kTargetSlot$511360 = -124				; size = 72
_kTargetSlot$511356 = -124				; size = 72
_kTargetSlot$511352 = -124				; size = 72
$T520177 = -52						; size = 4
_iSize$ = -52						; size = 4
_iItemType2$ = -48					; size = 4
_iItemType3$ = -44					; size = 4
_iItemIndex3$ = -40					; size = 4
_iItemType1$ = -36					; size = 4
_iItemIndex1$ = -32					; size = 4
_pItem$ = -28						; size = 4
_iItemIndex2$ = -24					; size = 4
tv327 = -20						; size = 4
_this$ = -20						; size = 4
_bTotal$ = -13						; size = 1
__$EHRec$ = -12						; size = 12
_dwID$ = 8						; size = 4
_rkList$ = 12						; size = 4
?GetCurSeletedBtnList@ItemMultipleCompoundWnd@@IAEXKAAV?$vector@UEXTRAITEMSLOT@@V?$allocator@UEXTRAITEMSLOT@@@std@@@std@@@Z PROC ; ItemMultipleCompoundWnd::GetCurSeletedBtnList, COMDAT
; _this$ = ecx

; 275  : {

  00000	68 b8 00 00 00	 push	 184			; 000000b8H
  00005	b8 00 00 00 00	 mov	 eax, __ehhandler$?GetCurSeletedBtnList@ItemMultipleCompoundWnd@@IAEXKAAV?$vector@UEXTRAITEMSLOT@@V?$allocator@UEXTRAITEMSLOT@@@std@@@std@@@Z
  0000a	e8 00 00 00 00	 call	 __EH_prolog3
  0000f	8b f1		 mov	 esi, ecx
  00011	89 75 ec	 mov	 DWORD PTR _this$[ebp], esi

; 276  : 	rkList.clear();

  00014	8b 4d 0c	 mov	 ecx, DWORD PTR _rkList$[ebp]
  00017	8b 41 04	 mov	 eax, DWORD PTR [ecx+4]
  0001a	8b 11		 mov	 edx, DWORD PTR [ecx]
  0001c	50		 push	 eax
  0001d	52		 push	 edx
  0001e	8d 45 cc	 lea	 eax, DWORD PTR $T520177[ebp]
  00021	50		 push	 eax
  00022	e8 00 00 00 00	 call	 ?erase@?$vector@UEXTRAITEMSLOT@@V?$allocator@UEXTRAITEMSLOT@@@std@@@std@@QAE?AV?$_Vector_iterator@V?$_Vector_val@UEXTRAITEMSLOT@@V?$allocator@UEXTRAITEMSLOT@@@std@@@std@@@2@V?$_Vector_const_iterator@V?$_Vector_val@UEXTRAITEMSLOT@@V?$allocator@UEXTRAITEMSLOT@@@std@@@std@@@2@0@Z ; std::vector<EXTRAITEMSLOT,std::allocator<EXTRAITEMSLOT> >::erase

; 277  : 
; 278  : 	ioUserExtraItem *pItem = g_MyInfo.GetUserExtraItem();

  00027	e8 00 00 00 00	 call	 ?GetSingleton@ioMyInfo@@SAAAV1@XZ ; ioMyInfo::GetSingleton
  0002c	05 ac 01 00 00	 add	 eax, 428		; 000001acH

; 279  : 	if( !pItem )

  00031	33 c9		 xor	 ecx, ecx
  00033	89 45 e4	 mov	 DWORD PTR _pItem$[ebp], eax
  00036	3b c1		 cmp	 eax, ecx
  00038	0f 84 3d 02 00
	00		 je	 $LN10@GetCurSele

; 280  : 		return;
; 281  : 
; 282  : 	int iSize = m_vTotalList.size();

  0003e	8b 86 6c 01 00
	00		 mov	 eax, DWORD PTR [esi+364]
  00044	2b 86 68 01 00
	00		 sub	 eax, DWORD PTR [esi+360]
  0004a	6a 0c		 push	 12			; 0000000cH
  0004c	5f		 pop	 edi
  0004d	99		 cdq
  0004e	f7 ff		 idiv	 edi

; 283  : 
; 284  : 	SelectExtraItemBtn *pTarget = NULL;
; 285  : 	int iItemIndex1, iItemIndex2, iItemIndex3;
; 286  : 	int iItemType1, iItemType2, iItemType3;
; 287  : 
; 288  : 	iItemIndex1 = iItemIndex2 = iItemIndex3 = 0;
; 289  : 	iItemType1 = iItemType2 = iItemType3 = -1;

  00050	83 4d d4 ff	 or	 DWORD PTR _iItemType3$[ebp], -1
  00054	83 4d d0 ff	 or	 DWORD PTR _iItemType2$[ebp], -1
  00058	83 4d dc ff	 or	 DWORD PTR _iItemType1$[ebp], -1

; 290  : 
; 291  : 	pTarget = dynamic_cast<SelectExtraItemBtn*>(FindChildWnd(ID_ITEM1_BTN));

  0005c	51		 push	 ecx
  0005d	bb 00 00 00 00	 mov	 ebx, OFFSET ??_R0?AVSelectExtraItemBtn@@@8
  00062	53		 push	 ebx
  00063	bf 00 00 00 00	 mov	 edi, OFFSET ??_R0?AVioWnd@@@8
  00068	57		 push	 edi
  00069	51		 push	 ecx
  0006a	89 4d d8	 mov	 DWORD PTR _iItemIndex3$[ebp], ecx
  0006d	89 4d e8	 mov	 DWORD PTR _iItemIndex2$[ebp], ecx
  00070	89 4d e0	 mov	 DWORD PTR _iItemIndex1$[ebp], ecx
  00073	8b ce		 mov	 ecx, esi
  00075	8b 35 00 00 00
	00		 mov	 esi, DWORD PTR __imp_?FindChildWnd@ioWnd@@QAEPAV1@K@Z
  0007b	6a 0b		 push	 11			; 0000000bH
  0007d	89 45 cc	 mov	 DWORD PTR _iSize$[ebp], eax
  00080	ff d6		 call	 esi
  00082	50		 push	 eax
  00083	e8 00 00 00 00	 call	 ___RTDynamicCast
  00088	83 c4 14	 add	 esp, 20			; 00000014H

; 292  : 	if( pTarget )

  0008b	85 c0		 test	 eax, eax
  0008d	74 42		 je	 SHORT $LN19@GetCurSele

; 293  : 	{
; 294  : 		iItemIndex1 = pTarget->GetSelectExtraItemSlot();

  0008f	8b 80 fc 01 00
	00		 mov	 eax, DWORD PTR [eax+508]

; 295  : 
; 296  : 		EXTRAITEMSLOT kTargetSlot;

  00095	8d 4d 84	 lea	 ecx, DWORD PTR _kTargetSlot$511352[ebp]
  00098	89 45 e0	 mov	 DWORD PTR _iItemIndex1$[ebp], eax
  0009b	e8 00 00 00 00	 call	 ??0EXTRAITEMSLOT@@QAE@XZ ; EXTRAITEMSLOT::EXTRAITEMSLOT

; 297  : 		if( pItem->GetExtraItem( iItemIndex1, kTargetSlot ) )

  000a0	8b 4d e4	 mov	 ecx, DWORD PTR _pItem$[ebp]
  000a3	83 65 fc 00	 and	 DWORD PTR __$EHRec$[ebp+8], 0
  000a7	8d 45 84	 lea	 eax, DWORD PTR _kTargetSlot$511352[ebp]
  000aa	50		 push	 eax
  000ab	ff 75 e0	 push	 DWORD PTR _iItemIndex1$[ebp]
  000ae	e8 00 00 00 00	 call	 ?GetExtraItem@ioUserExtraItem@@QAE_NHAAUEXTRAITEMSLOT@@@Z ; ioUserExtraItem::GetExtraItem
  000b3	84 c0		 test	 al, al
  000b5	74 0e		 je	 SHORT $LN18@GetCurSele

; 298  : 		{
; 299  : 			iItemType1 = kTargetSlot.m_iItemCode / DEFAULT_BASIC_ITEM_CODE;		

  000b7	8b 45 84	 mov	 eax, DWORD PTR _kTargetSlot$511352[ebp]
  000ba	99		 cdq
  000bb	b9 a0 86 01 00	 mov	 ecx, 100000		; 000186a0H
  000c0	f7 f9		 idiv	 ecx
  000c2	89 45 dc	 mov	 DWORD PTR _iItemType1$[ebp], eax
$LN18@GetCurSele:

; 300  : 		}
; 301  : 	}

  000c5	83 4d fc ff	 or	 DWORD PTR __$EHRec$[ebp+8], -1
  000c9	8d 4d 84	 lea	 ecx, DWORD PTR _kTargetSlot$511352[ebp]
  000cc	e8 00 00 00 00	 call	 ??1EXTRAITEMSLOT@@QAE@XZ
$LN19@GetCurSele:

; 302  : 
; 303  : 	pTarget = dynamic_cast<SelectExtraItemBtn*>(FindChildWnd(ID_ITEM2_BTN));

  000d1	8b 4d ec	 mov	 ecx, DWORD PTR _this$[ebp]
  000d4	6a 00		 push	 0
  000d6	53		 push	 ebx
  000d7	57		 push	 edi
  000d8	6a 00		 push	 0
  000da	6a 0c		 push	 12			; 0000000cH
  000dc	ff d6		 call	 esi
  000de	50		 push	 eax
  000df	e8 00 00 00 00	 call	 ___RTDynamicCast
  000e4	83 c4 14	 add	 esp, 20			; 00000014H

; 304  : 	if( pTarget )

  000e7	85 c0		 test	 eax, eax
  000e9	74 45		 je	 SHORT $LN17@GetCurSele

; 305  : 	{
; 306  : 		iItemIndex2 = pTarget->GetSelectExtraItemSlot();

  000eb	8b 80 fc 01 00
	00		 mov	 eax, DWORD PTR [eax+508]

; 307  : 
; 308  : 		EXTRAITEMSLOT kTargetSlot;

  000f1	8d 4d 84	 lea	 ecx, DWORD PTR _kTargetSlot$511356[ebp]
  000f4	89 45 e8	 mov	 DWORD PTR _iItemIndex2$[ebp], eax
  000f7	e8 00 00 00 00	 call	 ??0EXTRAITEMSLOT@@QAE@XZ ; EXTRAITEMSLOT::EXTRAITEMSLOT

; 309  : 		if( pItem->GetExtraItem( iItemIndex2, kTargetSlot ) )

  000fc	8b 4d e4	 mov	 ecx, DWORD PTR _pItem$[ebp]
  000ff	8d 45 84	 lea	 eax, DWORD PTR _kTargetSlot$511356[ebp]
  00102	50		 push	 eax
  00103	ff 75 e8	 push	 DWORD PTR _iItemIndex2$[ebp]
  00106	c7 45 fc 01 00
	00 00		 mov	 DWORD PTR __$EHRec$[ebp+8], 1
  0010d	e8 00 00 00 00	 call	 ?GetExtraItem@ioUserExtraItem@@QAE_NHAAUEXTRAITEMSLOT@@@Z ; ioUserExtraItem::GetExtraItem
  00112	84 c0		 test	 al, al
  00114	74 0e		 je	 SHORT $LN16@GetCurSele

; 310  : 		{
; 311  : 			iItemType2 = kTargetSlot.m_iItemCode / DEFAULT_BASIC_ITEM_CODE;		

  00116	8b 45 84	 mov	 eax, DWORD PTR _kTargetSlot$511356[ebp]
  00119	99		 cdq
  0011a	b9 a0 86 01 00	 mov	 ecx, 100000		; 000186a0H
  0011f	f7 f9		 idiv	 ecx
  00121	89 45 d0	 mov	 DWORD PTR _iItemType2$[ebp], eax
$LN16@GetCurSele:

; 312  : 		}
; 313  : 	}

  00124	83 4d fc ff	 or	 DWORD PTR __$EHRec$[ebp+8], -1
  00128	8d 4d 84	 lea	 ecx, DWORD PTR _kTargetSlot$511356[ebp]
  0012b	e8 00 00 00 00	 call	 ??1EXTRAITEMSLOT@@QAE@XZ
$LN17@GetCurSele:

; 314  : 
; 315  : 	pTarget = dynamic_cast<SelectExtraItemBtn*>(FindChildWnd(ID_ITEM3_BTN));

  00130	6a 00		 push	 0
  00132	53		 push	 ebx
  00133	8b 5d ec	 mov	 ebx, DWORD PTR _this$[ebp]
  00136	57		 push	 edi
  00137	6a 00		 push	 0
  00139	6a 0d		 push	 13			; 0000000dH
  0013b	8b cb		 mov	 ecx, ebx
  0013d	ff d6		 call	 esi
  0013f	50		 push	 eax
  00140	e8 00 00 00 00	 call	 ___RTDynamicCast

; 316  : 	if( pTarget )

  00145	33 ff		 xor	 edi, edi
  00147	83 c4 14	 add	 esp, 20			; 00000014H
  0014a	3b c7		 cmp	 eax, edi
  0014c	74 43		 je	 SHORT $LN15@GetCurSele

; 317  : 	{
; 318  : 		iItemIndex3 = pTarget->GetSelectExtraItemSlot();

  0014e	8b b0 fc 01 00
	00		 mov	 esi, DWORD PTR [eax+508]

; 319  : 
; 320  : 		EXTRAITEMSLOT kTargetSlot;

  00154	8d 4d 84	 lea	 ecx, DWORD PTR _kTargetSlot$511360[ebp]
  00157	89 75 d8	 mov	 DWORD PTR _iItemIndex3$[ebp], esi
  0015a	e8 00 00 00 00	 call	 ??0EXTRAITEMSLOT@@QAE@XZ ; EXTRAITEMSLOT::EXTRAITEMSLOT

; 321  : 		if( pItem->GetExtraItem( iItemIndex3, kTargetSlot ) )

  0015f	8b 4d e4	 mov	 ecx, DWORD PTR _pItem$[ebp]
  00162	8d 45 84	 lea	 eax, DWORD PTR _kTargetSlot$511360[ebp]
  00165	50		 push	 eax
  00166	56		 push	 esi
  00167	c7 45 fc 02 00
	00 00		 mov	 DWORD PTR __$EHRec$[ebp+8], 2
  0016e	e8 00 00 00 00	 call	 ?GetExtraItem@ioUserExtraItem@@QAE_NHAAUEXTRAITEMSLOT@@@Z ; ioUserExtraItem::GetExtraItem
  00173	84 c0		 test	 al, al
  00175	74 0e		 je	 SHORT $LN14@GetCurSele

; 322  : 		{
; 323  : 			iItemType3 = kTargetSlot.m_iItemCode / DEFAULT_BASIC_ITEM_CODE;		

  00177	8b 45 84	 mov	 eax, DWORD PTR _kTargetSlot$511360[ebp]
  0017a	99		 cdq
  0017b	b9 a0 86 01 00	 mov	 ecx, 100000		; 000186a0H
  00180	f7 f9		 idiv	 ecx
  00182	89 45 d4	 mov	 DWORD PTR _iItemType3$[ebp], eax
$LN14@GetCurSele:

; 324  : 		}
; 325  : 	}

  00185	83 4d fc ff	 or	 DWORD PTR __$EHRec$[ebp+8], -1
  00189	8d 4d 84	 lea	 ecx, DWORD PTR _kTargetSlot$511360[ebp]
  0018c	e8 00 00 00 00	 call	 ??1EXTRAITEMSLOT@@QAE@XZ
$LN15@GetCurSele:

; 326  : 
; 327  : 	bool bTotal = false;

  00191	c6 45 f3 00	 mov	 BYTE PTR _bTotal$[ebp], 0

; 328  : 	if( iItemIndex1 == 0 && iItemIndex2 == 0 && iItemIndex3 == 0 )

  00195	39 7d e0	 cmp	 DWORD PTR _iItemIndex1$[ebp], edi
  00198	75 0e		 jne	 SHORT $LN13@GetCurSele
  0019a	39 7d e8	 cmp	 DWORD PTR _iItemIndex2$[ebp], edi
  0019d	75 09		 jne	 SHORT $LN13@GetCurSele
  0019f	39 7d d8	 cmp	 DWORD PTR _iItemIndex3$[ebp], edi
  001a2	75 04		 jne	 SHORT $LN13@GetCurSele

; 329  : 		bTotal = true;

  001a4	c6 45 f3 01	 mov	 BYTE PTR _bTotal$[ebp], 1
$LN13@GetCurSele:

; 330  : 
; 331  : 	for( int i=0; i < iSize; ++i )

  001a8	8b 45 cc	 mov	 eax, DWORD PTR _iSize$[ebp]
  001ab	3b c7		 cmp	 eax, edi
  001ad	0f 8e c8 00 00
	00		 jle	 $LN10@GetCurSele
  001b3	89 45 ec	 mov	 DWORD PTR tv327[ebp], eax
$LL12@GetCurSele:

; 332  : 	{
; 333  : 		int iCurIndex = m_vTotalList[i].m_iSlotIndex;

  001b6	8b 83 68 01 00
	00		 mov	 eax, DWORD PTR [ebx+360]
  001bc	8b 34 38	 mov	 esi, DWORD PTR [eax+edi]

; 334  : 		int iCurType = m_vTotalList[i].m_iItemCode / DEFAULT_BASIC_ITEM_CODE;

  001bf	8b 44 38 04	 mov	 eax, DWORD PTR [eax+edi+4]
  001c3	99		 cdq
  001c4	b9 a0 86 01 00	 mov	 ecx, 100000		; 000186a0H
  001c9	f7 f9		 idiv	 ecx

; 335  : 
; 336  : 		if( !bTotal )

  001cb	80 7d f3 00	 cmp	 BYTE PTR _bTotal$[ebp], 0
  001cf	75 5a		 jne	 SHORT $LN2@GetCurSele

; 337  : 		{
; 338  : 			// Equal Index
; 339  : 			if( iCurIndex == iItemIndex1 || iCurIndex == iItemIndex2 || iCurIndex == iItemIndex3 )

  001d1	3b 75 e0	 cmp	 esi, DWORD PTR _iItemIndex1$[ebp]
  001d4	0f 84 95 00 00
	00		 je	 $LN11@GetCurSele
  001da	3b 75 e8	 cmp	 esi, DWORD PTR _iItemIndex2$[ebp]
  001dd	0f 84 8c 00 00
	00		 je	 $LN11@GetCurSele
  001e3	3b 75 d8	 cmp	 esi, DWORD PTR _iItemIndex3$[ebp]
  001e6	0f 84 83 00 00
	00		 je	 $LN11@GetCurSele

; 340  : 				continue;
; 341  : 
; 342  : 			// Part Check
; 343  : 			if( m_dwEtcItemType == ioEtcItem::EIT_ETC_MULTIPLE_EQUAL_COMPOUND ||
; 344  : 				m_dwEtcItemType == ioEtcItem::EIT_ETC_MULTIPLE_EQUAL_COMPOUND2 ||
; 345  : 				m_dwEtcItemType == ioEtcItem::EIT_ETC_MULTIPLE_EQUAL_COMPOUND3 )

  001ec	8b 8b 60 01 00
	00		 mov	 ecx, DWORD PTR [ebx+352]
  001f2	81 f9 5f 42 0f
	00		 cmp	 ecx, 1000031		; 000f425fH
  001f8	74 10		 je	 SHORT $LN5@GetCurSele
  001fa	81 f9 a4 42 0f
	00		 cmp	 ecx, 1000100		; 000f42a4H
  00200	74 08		 je	 SHORT $LN5@GetCurSele
  00202	81 f9 a5 42 0f
	00		 cmp	 ecx, 1000101		; 000f42a5H
  00208	75 21		 jne	 SHORT $LN2@GetCurSele
$LN5@GetCurSele:

; 346  : 			{
; 347  : 				if( iItemType1 != -1 && iItemType1 != iCurType )

  0020a	83 7d dc ff	 cmp	 DWORD PTR _iItemType1$[ebp], -1
  0020e	74 05		 je	 SHORT $LN4@GetCurSele
  00210	39 45 dc	 cmp	 DWORD PTR _iItemType1$[ebp], eax
  00213	75 5a		 jne	 SHORT $LN11@GetCurSele
$LN4@GetCurSele:

; 348  : 					continue;
; 349  : 
; 350  : 				if( iItemType2 != -1 && iItemType2 != iCurType )

  00215	83 7d d0 ff	 cmp	 DWORD PTR _iItemType2$[ebp], -1
  00219	74 05		 je	 SHORT $LN3@GetCurSele
  0021b	39 45 d0	 cmp	 DWORD PTR _iItemType2$[ebp], eax
  0021e	75 4f		 jne	 SHORT $LN11@GetCurSele
$LN3@GetCurSele:

; 351  : 					continue;
; 352  : 
; 353  : 				if( iItemType3 != -1 && iItemType3 != iCurType )

  00220	83 7d d4 ff	 cmp	 DWORD PTR _iItemType3$[ebp], -1
  00224	74 05		 je	 SHORT $LN2@GetCurSele
  00226	39 45 d4	 cmp	 DWORD PTR _iItemType3$[ebp], eax

; 354  : 					continue;

  00229	75 44		 jne	 SHORT $LN11@GetCurSele
$LN2@GetCurSele:

; 355  : 			}
; 356  : 		}
; 357  : 
; 358  : 		EXTRAITEMSLOT kTargetSlot;

  0022b	8d 8d 3c ff ff
	ff		 lea	 ecx, DWORD PTR _kTargetSlot$511378[ebp]
  00231	e8 00 00 00 00	 call	 ??0EXTRAITEMSLOT@@QAE@XZ ; EXTRAITEMSLOT::EXTRAITEMSLOT

; 359  : 		if( !pItem->GetExtraItem( iCurIndex, kTargetSlot ) )

  00236	8b 4d e4	 mov	 ecx, DWORD PTR _pItem$[ebp]
  00239	8d 85 3c ff ff
	ff		 lea	 eax, DWORD PTR _kTargetSlot$511378[ebp]
  0023f	50		 push	 eax
  00240	56		 push	 esi
  00241	c7 45 fc 03 00
	00 00		 mov	 DWORD PTR __$EHRec$[ebp+8], 3
  00248	e8 00 00 00 00	 call	 ?GetExtraItem@ioUserExtraItem@@QAE_NHAAUEXTRAITEMSLOT@@@Z ; ioUserExtraItem::GetExtraItem
  0024d	84 c0		 test	 al, al

; 360  : 			continue;

  0024f	74 0f		 je	 SHORT $LN65@GetCurSele

; 361  : 
; 362  : 		rkList.push_back( kTargetSlot );

  00251	8b 4d 0c	 mov	 ecx, DWORD PTR _rkList$[ebp]
  00254	8d 85 3c ff ff
	ff		 lea	 eax, DWORD PTR _kTargetSlot$511378[ebp]
  0025a	50		 push	 eax
  0025b	e8 00 00 00 00	 call	 ?push_back@?$vector@UEXTRAITEMSLOT@@V?$allocator@UEXTRAITEMSLOT@@@std@@@std@@QAEXABUEXTRAITEMSLOT@@@Z ; std::vector<EXTRAITEMSLOT,std::allocator<EXTRAITEMSLOT> >::push_back
$LN65@GetCurSele:

; 363  : 	}

  00260	83 4d fc ff	 or	 DWORD PTR __$EHRec$[ebp+8], -1
  00264	8d 8d 3c ff ff
	ff		 lea	 ecx, DWORD PTR _kTargetSlot$511378[ebp]
  0026a	e8 00 00 00 00	 call	 ??1EXTRAITEMSLOT@@QAE@XZ
$LN11@GetCurSele:

; 330  : 
; 331  : 	for( int i=0; i < iSize; ++i )

  0026f	83 c7 0c	 add	 edi, 12			; 0000000cH
  00272	ff 4d ec	 dec	 DWORD PTR tv327[ebp]
  00275	0f 85 3b ff ff
	ff		 jne	 $LL12@GetCurSele
$LN10@GetCurSele:

; 364  : }

  0027b	e8 00 00 00 00	 call	 __EH_epilog3
  00280	c2 08 00	 ret	 8
_TEXT	ENDS
;	COMDAT text$x
text$x	SEGMENT
__unwindfunclet$?GetCurSeletedBtnList@ItemMultipleCompoundWnd@@IAEXKAAV?$vector@UEXTRAITEMSLOT@@V?$allocator@UEXTRAITEMSLOT@@@std@@@std@@@Z$0:
  00000	8d 4d 84	 lea	 ecx, DWORD PTR _kTargetSlot$511352[ebp]
  00003	e9 00 00 00 00	 jmp	 ??1EXTRAITEMSLOT@@QAE@XZ
__unwindfunclet$?GetCurSeletedBtnList@ItemMultipleCompoundWnd@@IAEXKAAV?$vector@UEXTRAITEMSLOT@@V?$allocator@UEXTRAITEMSLOT@@@std@@@std@@@Z$1:
  00008	8d 4d 84	 lea	 ecx, DWORD PTR _kTargetSlot$511356[ebp]
  0000b	e9 00 00 00 00	 jmp	 ??1EXTRAITEMSLOT@@QAE@XZ
__unwindfunclet$?GetCurSeletedBtnList@ItemMultipleCompoundWnd@@IAEXKAAV?$vector@UEXTRAITEMSLOT@@V?$allocator@UEXTRAITEMSLOT@@@std@@@std@@@Z$2:
  00010	8d 4d 84	 lea	 ecx, DWORD PTR _kTargetSlot$511360[ebp]
  00013	e9 00 00 00 00	 jmp	 ??1EXTRAITEMSLOT@@QAE@XZ
__unwindfunclet$?GetCurSeletedBtnList@ItemMultipleCompoundWnd@@IAEXKAAV?$vector@UEXTRAITEMSLOT@@V?$allocator@UEXTRAITEMSLOT@@@std@@@std@@@Z$3:
  00018	8d 8d 3c ff ff
	ff		 lea	 ecx, DWORD PTR _kTargetSlot$511378[ebp]
  0001e	e9 00 00 00 00	 jmp	 ??1EXTRAITEMSLOT@@QAE@XZ
__ehhandler$?GetCurSeletedBtnList@ItemMultipleCompoundWnd@@IAEXKAAV?$vector@UEXTRAITEMSLOT@@V?$allocator@UEXTRAITEMSLOT@@@std@@@std@@@Z:
  00023	8b 54 24 08	 mov	 edx, DWORD PTR [esp+8]
  00027	8d 42 0c	 lea	 eax, DWORD PTR [edx+12]
  0002a	8b 8a 38 ff ff
	ff		 mov	 ecx, DWORD PTR [edx-200]
  00030	33 c8		 xor	 ecx, eax
  00032	e8 00 00 00 00	 call	 @__security_check_cookie@4
  00037	b8 00 00 00 00	 mov	 eax, OFFSET __ehfuncinfo$?GetCurSeletedBtnList@ItemMultipleCompoundWnd@@IAEXKAAV?$vector@UEXTRAITEMSLOT@@V?$allocator@UEXTRAITEMSLOT@@@std@@@std@@@Z
  0003c	e9 00 00 00 00	 jmp	 ___CxxFrameHandler3
text$x	ENDS
?GetCurSeletedBtnList@ItemMultipleCompoundWnd@@IAEXKAAV?$vector@UEXTRAITEMSLOT@@V?$allocator@UEXTRAITEMSLOT@@@std@@@std@@@Z ENDP ; ItemMultipleCompoundWnd::GetCurSeletedBtnList
PUBLIC	??_R0?AVMyItemSelecteWnd@@@8			; MyItemSelecteWnd `RTTI Type Descriptor'
PUBLIC	?CheckCompoundItemBtn@ItemMultipleCompoundWnd@@IAEXPAVioWnd@@K@Z ; ItemMultipleCompoundWnd::CheckCompoundItemBtn
EXTRN	?ShowItemSeletWnd@MyItemSelecteWnd@@QAEXV?$vector@UEXTRAITEMSLOT@@V?$allocator@UEXTRAITEMSLOT@@@std@@@std@@PAVioWnd@@@Z:PROC ; MyItemSelecteWnd::ShowItemSeletWnd
EXTRN	__imp_?FindWnd@ioGUIManager@@QAEPAVioWnd@@K@Z:PROC
;	COMDAT ??_R0?AVMyItemSelecteWnd@@@8
; File c:\program files (x86)\microsoft visual studio 10.0\vc\include\vector
_DATA	SEGMENT
??_R0?AVMyItemSelecteWnd@@@8 DD FLAT:??_7type_info@@6B@	; MyItemSelecteWnd `RTTI Type Descriptor'
	DD	00H
	DB	'.?AVMyItemSelecteWnd@@', 00H
_DATA	ENDS
;	COMDAT xdata$x
xdata$x	SEGMENT
__unwindtable$?CheckCompoundItemBtn@ItemMultipleCompoundWnd@@IAEXPAVioWnd@@K@Z DD 0ffffffffH
	DD	FLAT:__unwindfunclet$?CheckCompoundItemBtn@ItemMultipleCompoundWnd@@IAEXPAVioWnd@@K@Z$0
__ehfuncinfo$?CheckCompoundItemBtn@ItemMultipleCompoundWnd@@IAEXPAVioWnd@@K@Z DD 019930522H
	DD	01H
	DD	FLAT:__unwindtable$?CheckCompoundItemBtn@ItemMultipleCompoundWnd@@IAEXPAVioWnd@@K@Z
	DD	2 DUP(00H)
	DD	2 DUP(00H)
	DD	00H
	DD	01H
; Function compile flags: /Ogsp
; File d:\lost saga for developer\youtube\tutorial\source\src\lsclient\gui\itemmultiplecompoundwnd.cpp
xdata$x	ENDS
;	COMDAT ?CheckCompoundItemBtn@ItemMultipleCompoundWnd@@IAEXPAVioWnd@@K@Z
_TEXT	SEGMENT
_rkList$511535 = -32					; size = 16
_this$ = -16						; size = 4
__$EHRec$ = -12						; size = 12
_pWnd$ = 8						; size = 4
$T520231 = 12						; size = 4
_dwID$ = 12						; size = 4
?CheckCompoundItemBtn@ItemMultipleCompoundWnd@@IAEXPAVioWnd@@K@Z PROC ; ItemMultipleCompoundWnd::CheckCompoundItemBtn, COMDAT
; _this$ = ecx

; 623  : {

  00000	6a 14		 push	 20			; 00000014H
  00002	b8 00 00 00 00	 mov	 eax, __ehhandler$?CheckCompoundItemBtn@ItemMultipleCompoundWnd@@IAEXPAVioWnd@@K@Z
  00007	e8 00 00 00 00	 call	 __EH_prolog3
  0000c	8b f9		 mov	 edi, ecx
  0000e	89 7d f0	 mov	 DWORD PTR _this$[ebp], edi

; 624  : 	if( m_dwEtcItemType == ioEtcItem::EIT_ETC_MULTIPLE_EQUAL_COMPOUND ||
; 625  : 		m_dwEtcItemType == ioEtcItem::EIT_ETC_MULTIPLE_EQUAL_COMPOUND2 ||
; 626  : 		m_dwEtcItemType == ioEtcItem::EIT_ETC_MULTIPLE_EQUAL_COMPOUND3 )

  00011	8b 87 60 01 00
	00		 mov	 eax, DWORD PTR [edi+352]
  00017	be 00 00 00 00	 mov	 esi, OFFSET ??_R0?AVioWnd@@@8
  0001c	3d 5f 42 0f 00	 cmp	 eax, 1000031		; 000f425fH
  00021	74 12		 je	 SHORT $LN7@CheckCompo
  00023	3d a4 42 0f 00	 cmp	 eax, 1000100		; 000f42a4H
  00028	74 0b		 je	 SHORT $LN7@CheckCompo
  0002a	3d a5 42 0f 00	 cmp	 eax, 1000101		; 000f42a5H
  0002f	0f 85 8c 00 00
	00		 jne	 $LN6@CheckCompo
$LN7@CheckCompo:

; 627  : 	{
; 628  : 		if( dwID == ID_ITEM1_BTN )

  00035	83 7d 0c 0b	 cmp	 DWORD PTR _dwID$[ebp], 11 ; 0000000bH
  00039	0f 85 82 00 00
	00		 jne	 $LN6@CheckCompo

; 629  : 		{
; 630  : 			SelectExtraItemBtn *pItemBtn = dynamic_cast<SelectExtraItemBtn*>(FindChildWnd(ID_ITEM1_BTN));

  0003f	8b 3d 00 00 00
	00		 mov	 edi, DWORD PTR __imp_?FindChildWnd@ioWnd@@QAEPAV1@K@Z
  00045	6a 00		 push	 0
  00047	bb 00 00 00 00	 mov	 ebx, OFFSET ??_R0?AVSelectExtraItemBtn@@@8
  0004c	53		 push	 ebx
  0004d	56		 push	 esi
  0004e	6a 00		 push	 0
  00050	6a 0b		 push	 11			; 0000000bH
  00052	ff d7		 call	 edi
  00054	50		 push	 eax
  00055	e8 00 00 00 00	 call	 ___RTDynamicCast
  0005a	83 c4 14	 add	 esp, 20			; 00000014H

; 631  : 			if( pItemBtn )

  0005d	85 c0		 test	 eax, eax
  0005f	74 07		 je	 SHORT $LN5@CheckCompo

; 632  : 				pItemBtn->InitData();

  00061	8b c8		 mov	 ecx, eax
  00063	e8 00 00 00 00	 call	 ?InitData@SelectExtraItemBtn@@QAEXXZ ; SelectExtraItemBtn::InitData
$LN5@CheckCompo:

; 633  : 
; 634  : 			pItemBtn = dynamic_cast<SelectExtraItemBtn*>(FindChildWnd(ID_ITEM2_BTN));

  00068	8b 4d f0	 mov	 ecx, DWORD PTR _this$[ebp]
  0006b	6a 00		 push	 0
  0006d	53		 push	 ebx
  0006e	56		 push	 esi
  0006f	6a 00		 push	 0
  00071	6a 0c		 push	 12			; 0000000cH
  00073	ff d7		 call	 edi
  00075	50		 push	 eax
  00076	e8 00 00 00 00	 call	 ___RTDynamicCast
  0007b	83 c4 14	 add	 esp, 20			; 00000014H

; 635  : 			if( pItemBtn )

  0007e	85 c0		 test	 eax, eax
  00080	74 07		 je	 SHORT $LN4@CheckCompo

; 636  : 				pItemBtn->InitData();

  00082	8b c8		 mov	 ecx, eax
  00084	e8 00 00 00 00	 call	 ?InitData@SelectExtraItemBtn@@QAEXXZ ; SelectExtraItemBtn::InitData
$LN4@CheckCompo:

; 637  : 
; 638  : 			pItemBtn = dynamic_cast<SelectExtraItemBtn*>(FindChildWnd(ID_ITEM3_BTN));

  00089	8b 4d f0	 mov	 ecx, DWORD PTR _this$[ebp]
  0008c	6a 00		 push	 0
  0008e	53		 push	 ebx
  0008f	56		 push	 esi
  00090	6a 00		 push	 0
  00092	6a 0d		 push	 13			; 0000000dH
  00094	ff d7		 call	 edi
  00096	50		 push	 eax
  00097	e8 00 00 00 00	 call	 ___RTDynamicCast
  0009c	83 c4 14	 add	 esp, 20			; 00000014H

; 639  : 			if( pItemBtn )

  0009f	85 c0		 test	 eax, eax
  000a1	74 07		 je	 SHORT $LN3@CheckCompo

; 640  : 				pItemBtn->InitData();

  000a3	8b c8		 mov	 ecx, eax
  000a5	e8 00 00 00 00	 call	 ?InitData@SelectExtraItemBtn@@QAEXXZ ; SelectExtraItemBtn::InitData
$LN3@CheckCompo:

; 641  : 
; 642  : 			SetChildInActive( ID_ITEM2_BTN );

  000aa	8b 4d f0	 mov	 ecx, DWORD PTR _this$[ebp]
  000ad	8b 3d 00 00 00
	00		 mov	 edi, DWORD PTR __imp_?SetChildInActive@ioWnd@@QAEXK@Z
  000b3	6a 0c		 push	 12			; 0000000cH
  000b5	ff d7		 call	 edi

; 643  : 			SetChildInActive( ID_ITEM3_BTN );

  000b7	8b 4d f0	 mov	 ecx, DWORD PTR _this$[ebp]
  000ba	6a 0d		 push	 13			; 0000000dH
  000bc	ff d7		 call	 edi
  000be	8b 7d f0	 mov	 edi, DWORD PTR _this$[ebp]
$LN6@CheckCompo:

; 644  : 		}
; 645  : 	}
; 646  : 
; 647  : 	MyItemSelecteWnd *pSelectWnd = dynamic_cast<MyItemSelecteWnd*>( g_GUIMgr.FindWnd( MYITEM_SELECT_WND ) );

  000c1	33 db		 xor	 ebx, ebx
  000c3	53		 push	 ebx
  000c4	68 00 00 00 00	 push	 OFFSET ??_R0?AVMyItemSelecteWnd@@@8
  000c9	56		 push	 esi
  000ca	53		 push	 ebx
  000cb	68 70 18 00 00	 push	 6256			; 00001870H
  000d0	e8 00 00 00 00	 call	 ?GetSingleton@ioSP2GUIManager@@SAAAV1@XZ ; ioSP2GUIManager::GetSingleton
  000d5	8b c8		 mov	 ecx, eax
  000d7	ff 15 00 00 00
	00		 call	 DWORD PTR __imp_?FindWnd@ioGUIManager@@QAEPAVioWnd@@K@Z
  000dd	50		 push	 eax
  000de	e8 00 00 00 00	 call	 ___RTDynamicCast
  000e3	8b f0		 mov	 esi, eax
  000e5	83 c4 14	 add	 esp, 20			; 00000014H

; 648  : 	if ( pSelectWnd )

  000e8	3b f3		 cmp	 esi, ebx
  000ea	74 55		 je	 SHORT $LN23@CheckCompo

; 649  : 	{
; 650  : 		ExtraItemList rkList;

  000ec	89 5d e0	 mov	 DWORD PTR _rkList$511535[ebp], ebx
  000ef	89 5d e4	 mov	 DWORD PTR _rkList$511535[ebp+4], ebx
  000f2	89 5d e8	 mov	 DWORD PTR _rkList$511535[ebp+8], ebx

; 651  : 		GetCurSeletedBtnList( dwID, rkList );

  000f5	8d 45 e0	 lea	 eax, DWORD PTR _rkList$511535[ebp]
  000f8	89 5d fc	 mov	 DWORD PTR __$EHRec$[ebp+8], ebx
  000fb	8b 5d 0c	 mov	 ebx, DWORD PTR _dwID$[ebp]
  000fe	50		 push	 eax
  000ff	53		 push	 ebx
  00100	8b cf		 mov	 ecx, edi
  00102	e8 00 00 00 00	 call	 ?GetCurSeletedBtnList@ItemMultipleCompoundWnd@@IAEXKAAV?$vector@UEXTRAITEMSLOT@@V?$allocator@UEXTRAITEMSLOT@@@std@@@std@@@Z ; ItemMultipleCompoundWnd::GetCurSeletedBtnList

; 652  : 		if ( !rkList.empty() )

  00107	8b 45 e0	 mov	 eax, DWORD PTR _rkList$511535[ebp]
  0010a	3b 45 e4	 cmp	 eax, DWORD PTR _rkList$511535[ebp+4]
  0010d	74 26		 je	 SHORT $LN1@CheckCompo

; 653  : 		{
; 654  : 			m_dwCurItemBtn = dwID;
; 655  : 			pSelectWnd->ShowItemSeletWnd( rkList, this );

  0010f	57		 push	 edi
  00110	83 ec 10	 sub	 esp, 16			; 00000010H
  00113	8d 45 e0	 lea	 eax, DWORD PTR _rkList$511535[ebp]
  00116	8b cc		 mov	 ecx, esp
  00118	89 65 0c	 mov	 DWORD PTR $T520231[ebp], esp
  0011b	50		 push	 eax
  0011c	89 9f 78 01 00
	00		 mov	 DWORD PTR [edi+376], ebx
  00122	e8 00 00 00 00	 call	 ??0?$vector@UEXTRAITEMSLOT@@V?$allocator@UEXTRAITEMSLOT@@@std@@@std@@QAE@ABV01@@Z ; std::vector<EXTRAITEMSLOT,std::allocator<EXTRAITEMSLOT> >::vector<EXTRAITEMSLOT,std::allocator<EXTRAITEMSLOT> >
  00127	8b ce		 mov	 ecx, esi
  00129	e8 00 00 00 00	 call	 ?ShowItemSeletWnd@MyItemSelecteWnd@@QAEXV?$vector@UEXTRAITEMSLOT@@V?$allocator@UEXTRAITEMSLOT@@@std@@@std@@PAVioWnd@@@Z ; MyItemSelecteWnd::ShowItemSeletWnd

; 656  : 			UpdateData();

  0012e	8b cf		 mov	 ecx, edi
  00130	e8 00 00 00 00	 call	 ?UpdateData@ItemMultipleCompoundWnd@@IAEXXZ ; ItemMultipleCompoundWnd::UpdateData
$LN1@CheckCompo:

; 657  : 		}
; 658  : 	}

  00135	83 4d fc ff	 or	 DWORD PTR __$EHRec$[ebp+8], -1
  00139	8d 4d e0	 lea	 ecx, DWORD PTR _rkList$511535[ebp]
  0013c	e8 00 00 00 00	 call	 ?_Tidy@?$vector@UEXTRAITEMSLOT@@V?$allocator@UEXTRAITEMSLOT@@@std@@@std@@IAEXXZ ; std::vector<EXTRAITEMSLOT,std::allocator<EXTRAITEMSLOT> >::_Tidy
$LN23@CheckCompo:

; 659  : 	/*
; 660  : 	NewShopPullDownWnd *pListWnd = dynamic_cast<NewShopPullDownWnd*>(FindChildWnd(ID_ITEM_LIST_WND));
; 661  : 	if( pListWnd && pListWnd->IsShow() )
; 662  : 	{
; 663  : 		pListWnd->HideWnd();
; 664  : 	}
; 665  : 	else if( pListWnd )
; 666  : 	{
; 667  : 		m_dwCurItemBtn = dwID;
; 668  : 
; 669  : 		int iXPos, iYPos;
; 670  : 		iXPos = GetDerivedPosX();
; 671  : 		iYPos = GetDerivedPosY();
; 672  : 
; 673  : 		pListWnd->CreatePullDown( pWnd, pWnd->GetXPos(), pWnd->GetYPos() + 25 );
; 674  : 
; 675  : 		vNewShopPullDownItem kItemList;
; 676  : 		GetCurList( dwID, kItemList );
; 677  : 
; 678  : 		if( !kItemList.empty() )
; 679  : 		{
; 680  : 			int iSize = kItemList.size();
; 681  : 			for(int i = 0;i < iSize; i++)
; 682  : 			{
; 683  : 				pListWnd->InsertItem( kItemList[i] );
; 684  : 			}
; 685  : 			pListWnd->ShowWnd();
; 686  : 
; 687  : 			UpdateData();
; 688  : 		}
; 689  : 		else
; 690  : 		{
; 691  : 			g_GUIMgr.SetMsgBox( MB_OK, NULL, STR(1) );
; 692  : 		}
; 693  : 	}
; 694  : 	*/
; 695  : 
; 696  : }

  00141	e8 00 00 00 00	 call	 __EH_epilog3
  00146	c2 08 00	 ret	 8
_TEXT	ENDS
;	COMDAT text$x
text$x	SEGMENT
__unwindfunclet$?CheckCompoundItemBtn@ItemMultipleCompoundWnd@@IAEXPAVioWnd@@K@Z$0:
  00000	8d 4d e0	 lea	 ecx, DWORD PTR _rkList$511535[ebp]
  00003	e9 00 00 00 00	 jmp	 ??1?$vector@UEXTRAITEMSLOT@@V?$allocator@UEXTRAITEMSLOT@@@std@@@std@@QAE@XZ ; std::vector<EXTRAITEMSLOT,std::allocator<EXTRAITEMSLOT> >::~vector<EXTRAITEMSLOT,std::allocator<EXTRAITEMSLOT> >
__ehhandler$?CheckCompoundItemBtn@ItemMultipleCompoundWnd@@IAEXPAVioWnd@@K@Z:
  00008	8b 54 24 08	 mov	 edx, DWORD PTR [esp+8]
  0000c	8d 42 0c	 lea	 eax, DWORD PTR [edx+12]
  0000f	8b 4a dc	 mov	 ecx, DWORD PTR [edx-36]
  00012	33 c8		 xor	 ecx, eax
  00014	e8 00 00 00 00	 call	 @__security_check_cookie@4
  00019	b8 00 00 00 00	 mov	 eax, OFFSET __ehfuncinfo$?CheckCompoundItemBtn@ItemMultipleCompoundWnd@@IAEXPAVioWnd@@K@Z
  0001e	e9 00 00 00 00	 jmp	 ___CxxFrameHandler3
text$x	ENDS
?CheckCompoundItemBtn@ItemMultipleCompoundWnd@@IAEXPAVioWnd@@K@Z ENDP ; ItemMultipleCompoundWnd::CheckCompoundItemBtn
PUBLIC	?CheckItemListWnd@ItemMultipleCompoundWnd@@IAEXPAVioWnd@@H@Z ; ItemMultipleCompoundWnd::CheckItemListWnd
EXTRN	?SetSelectExtraItemSlot@SelectExtraItemBtn@@QAEXH@Z:PROC ; SelectExtraItemBtn::SetSelectExtraItemSlot
EXTRN	__imp_??8ioHashString@@QBE_NABV0@@Z:PROC
EXTRN	__imp_?GetFirstText@ioUITitle@@QAEXAAVioHashString@@@Z:PROC
EXTRN	__imp_?GetTitle@ioWnd@@QBEPAVioUITitle@@XZ:PROC
EXTRN	__imp_?GetID@ioWnd@@QBEKXZ:PROC
;	COMDAT xdata$x
; File c:\program files (x86)\microsoft visual studio 10.0\vc\include\vector
xdata$x	SEGMENT
__unwindtable$?CheckItemListWnd@ItemMultipleCompoundWnd@@IAEXPAVioWnd@@H@Z DD 0ffffffffH
	DD	FLAT:__unwindfunclet$?CheckItemListWnd@ItemMultipleCompoundWnd@@IAEXPAVioWnd@@H@Z$0
	DD	00H
	DD	FLAT:__unwindfunclet$?CheckItemListWnd@ItemMultipleCompoundWnd@@IAEXPAVioWnd@@H@Z$1
__ehfuncinfo$?CheckItemListWnd@ItemMultipleCompoundWnd@@IAEXPAVioWnd@@H@Z DD 019930522H
	DD	02H
	DD	FLAT:__unwindtable$?CheckItemListWnd@ItemMultipleCompoundWnd@@IAEXPAVioWnd@@H@Z
	DD	2 DUP(00H)
	DD	2 DUP(00H)
	DD	00H
	DD	01H
; Function compile flags: /Ogsp
; File d:\lost saga for developer\youtube\tutorial\source\src\lsclient\gui\itemmultiplecompoundwnd.cpp
xdata$x	ENDS
;	COMDAT ?CheckItemListWnd@ItemMultipleCompoundWnd@@IAEXPAVioWnd@@H@Z
_TEXT	SEGMENT
_szTitle$ = -48						; size = 16
_kItemList$ = -32					; size = 16
_this$ = -16						; size = 4
__$EHRec$ = -12						; size = 12
_pTitle$ = 8						; size = 4
_pWnd$ = 8						; size = 4
_iArray$ = 12						; size = 4
?CheckItemListWnd@ItemMultipleCompoundWnd@@IAEXPAVioWnd@@H@Z PROC ; ItemMultipleCompoundWnd::CheckItemListWnd, COMDAT
; _this$ = ecx

; 699  : {

  00000	6a 24		 push	 36			; 00000024H
  00002	b8 00 00 00 00	 mov	 eax, __ehhandler$?CheckItemListWnd@ItemMultipleCompoundWnd@@IAEXPAVioWnd@@H@Z
  00007	e8 00 00 00 00	 call	 __EH_prolog3
  0000c	89 4d f0	 mov	 DWORD PTR _this$[ebp], ecx

; 700  : 	if( !pWnd )  return;

  0000f	8b 7d 08	 mov	 edi, DWORD PTR _pWnd$[ebp]
  00012	33 db		 xor	 ebx, ebx
  00014	3b fb		 cmp	 edi, ebx
  00016	0f 84 c2 00 00
	00		 je	 $LN35@CheckItemL

; 701  : 
; 702  : 	vNewShopPullDownItem kItemList;

  0001c	89 5d e0	 mov	 DWORD PTR _kItemList$[ebp], ebx
  0001f	89 5d e4	 mov	 DWORD PTR _kItemList$[ebp+4], ebx
  00022	89 5d e8	 mov	 DWORD PTR _kItemList$[ebp+8], ebx

; 703  : 	DWORD dwID = pWnd->GetID();

  00025	8b cf		 mov	 ecx, edi
  00027	89 5d fc	 mov	 DWORD PTR __$EHRec$[ebp+8], ebx
  0002a	ff 15 00 00 00
	00		 call	 DWORD PTR __imp_?GetID@ioWnd@@QBEKXZ

; 704  : 
; 705  : 	GetCurList( dwID, kItemList );

  00030	8d 4d e0	 lea	 ecx, DWORD PTR _kItemList$[ebp]
  00033	51		 push	 ecx
  00034	8b 4d f0	 mov	 ecx, DWORD PTR _this$[ebp]
  00037	50		 push	 eax
  00038	e8 00 00 00 00	 call	 ?GetCurList@ItemMultipleCompoundWnd@@IAEXKAAV?$vector@UNewShopPullDownItem@@V?$allocator@UNewShopPullDownItem@@@std@@@std@@@Z ; ItemMultipleCompoundWnd::GetCurList

; 706  : 
; 707  : 	if( !COMPARE( iArray, 0, (int)kItemList.size() ) ) 

  0003d	8b 75 0c	 mov	 esi, DWORD PTR _iArray$[ebp]
  00040	3b f3		 cmp	 esi, ebx
  00042	0f 8c 8a 00 00
	00		 jl	 $LN4@CheckItemL
  00048	8b 45 e4	 mov	 eax, DWORD PTR _kItemList$[ebp+4]
  0004b	2b 45 e0	 sub	 eax, DWORD PTR _kItemList$[ebp]
  0004e	6a 50		 push	 80			; 00000050H
  00050	99		 cdq
  00051	59		 pop	 ecx
  00052	f7 f9		 idiv	 ecx
  00054	3b f0		 cmp	 esi, eax
  00056	7d 7a		 jge	 SHORT $LN4@CheckItemL

; 709  : 
; 710  : 	ioUITitle *pTitle =  pWnd->GetTitle();

  00058	8b cf		 mov	 ecx, edi
  0005a	ff 15 00 00 00
	00		 call	 DWORD PTR __imp_?GetTitle@ioWnd@@QBEPAVioUITitle@@XZ
  00060	89 45 08	 mov	 DWORD PTR _pTitle$[ebp], eax

; 711  : 	if( !pTitle )

  00063	3b c3		 cmp	 eax, ebx

; 712  : 		return;

  00065	74 6b		 je	 SHORT $LN4@CheckItemL

; 713  : 
; 714  : 	ioHashString szTitle;

  00067	8d 4d d0	 lea	 ecx, DWORD PTR _szTitle$[ebp]
  0006a	ff 15 00 00 00
	00		 call	 DWORD PTR __imp_??0ioHashString@@QAE@XZ

; 715  : 	pTitle->GetFirstText( szTitle );

  00070	8b 4d 08	 mov	 ecx, DWORD PTR _pTitle$[ebp]
  00073	8d 45 d0	 lea	 eax, DWORD PTR _szTitle$[ebp]
  00076	50		 push	 eax
  00077	c6 45 fc 01	 mov	 BYTE PTR __$EHRec$[ebp+8], 1
  0007b	ff 15 00 00 00
	00		 call	 DWORD PTR __imp_?GetFirstText@ioUITitle@@QAEXAAVioHashString@@@Z

; 716  : 
; 717  : 	NewShopPullDownItem &rkItem = kItemList[iArray];

  00081	6b f6 50	 imul	 esi, 80			; 00000050H
  00084	03 75 e0	 add	 esi, DWORD PTR _kItemList$[ebp]

; 718  : 	if( szTitle == rkItem.m_szName ) 

  00087	8d 4d d0	 lea	 ecx, DWORD PTR _szTitle$[ebp]
  0008a	56		 push	 esi
  0008b	ff 15 00 00 00
	00		 call	 DWORD PTR __imp_??8ioHashString@@QBE_NABV0@@Z
  00091	84 c0		 test	 al, al

; 719  : 		return;

  00093	75 31		 jne	 SHORT $LN40@CheckItemL

; 720  : 
; 721  : 	int iSlot = rkItem.m_iMagicCode;

  00095	8b 76 10	 mov	 esi, DWORD PTR [esi+16]

; 722  : 	SelectExtraItemBtn *pTarget = dynamic_cast<SelectExtraItemBtn*>(pWnd);

  00098	53		 push	 ebx
  00099	68 00 00 00 00	 push	 OFFSET ??_R0?AVSelectExtraItemBtn@@@8
  0009e	68 00 00 00 00	 push	 OFFSET ??_R0?AVioWnd@@@8
  000a3	53		 push	 ebx
  000a4	57		 push	 edi
  000a5	e8 00 00 00 00	 call	 ___RTDynamicCast
  000aa	83 c4 14	 add	 esp, 20			; 00000014H

; 723  : 	if( pTarget && iSlot > 0 )

  000ad	3b c3		 cmp	 eax, ebx
  000af	74 0c		 je	 SHORT $LN1@CheckItemL
  000b1	3b f3		 cmp	 esi, ebx
  000b3	7e 08		 jle	 SHORT $LN1@CheckItemL

; 724  : 	{
; 725  : 		pTarget->SetSelectExtraItemSlot( iSlot );

  000b5	56		 push	 esi
  000b6	8b c8		 mov	 ecx, eax
  000b8	e8 00 00 00 00	 call	 ?SetSelectExtraItemSlot@SelectExtraItemBtn@@QAEXH@Z ; SelectExtraItemBtn::SetSelectExtraItemSlot
$LN1@CheckItemL:

; 726  : 	}
; 727  : 
; 728  : 	m_dwCurItemBtn = 0;

  000bd	8b 45 f0	 mov	 eax, DWORD PTR _this$[ebp]
  000c0	89 98 78 01 00
	00		 mov	 DWORD PTR [eax+376], ebx
$LN40@CheckItemL:

; 729  : }

  000c6	8d 4d d0	 lea	 ecx, DWORD PTR _szTitle$[ebp]
  000c9	88 5d fc	 mov	 BYTE PTR __$EHRec$[ebp+8], bl
  000cc	ff 15 00 00 00
	00		 call	 DWORD PTR __imp_??1ioHashString@@QAE@XZ
$LN4@CheckItemL:

; 708  : 		return;

  000d2	83 4d fc ff	 or	 DWORD PTR __$EHRec$[ebp+8], -1
  000d6	8d 4d e0	 lea	 ecx, DWORD PTR _kItemList$[ebp]
  000d9	e8 00 00 00 00	 call	 ?_Tidy@?$vector@UNewShopPullDownItem@@V?$allocator@UNewShopPullDownItem@@@std@@@std@@IAEXXZ ; std::vector<NewShopPullDownItem,std::allocator<NewShopPullDownItem> >::_Tidy

; 729  : }

$LN35@CheckItemL:
  000de	e8 00 00 00 00	 call	 __EH_epilog3
  000e3	c2 08 00	 ret	 8
_TEXT	ENDS
;	COMDAT text$x
text$x	SEGMENT
__unwindfunclet$?CheckItemListWnd@ItemMultipleCompoundWnd@@IAEXPAVioWnd@@H@Z$0:
  00000	8d 4d e0	 lea	 ecx, DWORD PTR _kItemList$[ebp]
  00003	e9 00 00 00 00	 jmp	 ??1?$vector@UNewShopPullDownItem@@V?$allocator@UNewShopPullDownItem@@@std@@@std@@QAE@XZ ; std::vector<NewShopPullDownItem,std::allocator<NewShopPullDownItem> >::~vector<NewShopPullDownItem,std::allocator<NewShopPullDownItem> >
__unwindfunclet$?CheckItemListWnd@ItemMultipleCompoundWnd@@IAEXPAVioWnd@@H@Z$1:
  00008	8d 4d d0	 lea	 ecx, DWORD PTR _szTitle$[ebp]
  0000b	ff 25 00 00 00
	00		 jmp	 DWORD PTR __imp_??1ioHashString@@QAE@XZ
__ehhandler$?CheckItemListWnd@ItemMultipleCompoundWnd@@IAEXPAVioWnd@@H@Z:
  00011	8b 54 24 08	 mov	 edx, DWORD PTR [esp+8]
  00015	8d 42 0c	 lea	 eax, DWORD PTR [edx+12]
  00018	8b 4a cc	 mov	 ecx, DWORD PTR [edx-52]
  0001b	33 c8		 xor	 ecx, eax
  0001d	e8 00 00 00 00	 call	 @__security_check_cookie@4
  00022	b8 00 00 00 00	 mov	 eax, OFFSET __ehfuncinfo$?CheckItemListWnd@ItemMultipleCompoundWnd@@IAEXPAVioWnd@@H@Z
  00027	e9 00 00 00 00	 jmp	 ___CxxFrameHandler3
text$x	ENDS
?CheckItemListWnd@ItemMultipleCompoundWnd@@IAEXPAVioWnd@@H@Z ENDP ; ItemMultipleCompoundWnd::CheckItemListWnd
PUBLIC	??_R0?AVNewShopPullDownWnd@@@8			; NewShopPullDownWnd `RTTI Type Descriptor'
;	COMDAT ??_R0?AVNewShopPullDownWnd@@@8
; File d:\lost saga for developer\youtube\tutorial\source\src\lsclient\gui\newshopbuywnd.h
_DATA	SEGMENT
??_R0?AVNewShopPullDownWnd@@@8 DD FLAT:??_7type_info@@6B@ ; NewShopPullDownWnd `RTTI Type Descriptor'
	DD	00H
	DB	'.?AVNewShopPullDownWnd@@', 00H
; Function compile flags: /Ogsp
; File d:\lost saga for developer\youtube\tutorial\source\src\lsclient\gui\itemmultiplecompoundwnd.cpp
_DATA	ENDS
;	COMDAT ?iwm_command@ItemMultipleCompoundWnd@@UAEXPAVioWnd@@HK@Z
_TEXT	SEGMENT
_pWnd$ = 8						; size = 4
_cmd$ = 12						; size = 4
_param$ = 16						; size = 4
?iwm_command@ItemMultipleCompoundWnd@@UAEXPAVioWnd@@HK@Z PROC ; ItemMultipleCompoundWnd::iwm_command, COMDAT
; _this$ = ecx

; 392  : {

  00000	55		 push	 ebp
  00001	8b ec		 mov	 ebp, esp
  00003	56		 push	 esi
  00004	8b f1		 mov	 esi, ecx

; 393  : 	DWORD dwID = pWnd->GetID();

  00006	8b 4d 08	 mov	 ecx, DWORD PTR _pWnd$[ebp]
  00009	ff 15 00 00 00
	00		 call	 DWORD PTR __imp_?GetID@ioWnd@@QBEKXZ

; 394  : 	switch( dwID )

  0000f	83 f8 01	 cmp	 eax, 1
  00012	0f 84 d0 00 00
	00		 je	 $LN10@iwm_comman
  00018	83 f8 0a	 cmp	 eax, 10			; 0000000aH
  0001b	0f 86 d4 00 00
	00		 jbe	 $LN9@iwm_comman
  00021	83 f8 0d	 cmp	 eax, 13			; 0000000dH
  00024	0f 86 a4 00 00
	00		 jbe	 $LN8@iwm_comman
  0002a	83 f8 65	 cmp	 eax, 101		; 00000065H
  0002d	74 57		 je	 SHORT $LN6@iwm_comman
  0002f	3d 70 18 00 00	 cmp	 eax, 6256		; 00001870H
  00034	0f 85 bb 00 00
	00		 jne	 $LN9@iwm_comman

; 424  : 	case MYITEM_SELECT_WND:
; 425  : 		if( cmd == IOBN_BTNUP )

  0003a	83 7d 0c 11	 cmp	 DWORD PTR _cmd$[ebp], 17 ; 00000011H
  0003e	0f 85 b1 00 00
	00		 jne	 $LN9@iwm_comman

; 426  : 		{
; 427  : 			SelectExtraItemBtn *pTarget = dynamic_cast<SelectExtraItemBtn*>( FindChildWnd( m_dwCurItemBtn ) );

  00044	6a 00		 push	 0
  00046	68 00 00 00 00	 push	 OFFSET ??_R0?AVSelectExtraItemBtn@@@8
  0004b	68 00 00 00 00	 push	 OFFSET ??_R0?AVioWnd@@@8
  00050	6a 00		 push	 0
  00052	ff b6 78 01 00
	00		 push	 DWORD PTR [esi+376]
  00058	8b ce		 mov	 ecx, esi
  0005a	ff 15 00 00 00
	00		 call	 DWORD PTR __imp_?FindChildWnd@ioWnd@@QAEPAV1@K@Z
  00060	50		 push	 eax
  00061	e8 00 00 00 00	 call	 ___RTDynamicCast
  00066	83 c4 14	 add	 esp, 20			; 00000014H

; 428  : 			if( pTarget && param > 0 )

  00069	85 c0		 test	 eax, eax
  0006b	74 10		 je	 SHORT $LN1@iwm_comman
  0006d	83 7d 10 00	 cmp	 DWORD PTR _param$[ebp], 0
  00071	76 0a		 jbe	 SHORT $LN1@iwm_comman

; 429  : 				pTarget->SetSelectExtraItemSlot( param );

  00073	ff 75 10	 push	 DWORD PTR _param$[ebp]
  00076	8b c8		 mov	 ecx, eax
  00078	e8 00 00 00 00	 call	 ?SetSelectExtraItemSlot@SelectExtraItemBtn@@QAEXH@Z ; SelectExtraItemBtn::SetSelectExtraItemSlot
$LN1@iwm_comman:

; 430  : 
; 431  : 			m_dwCurItemBtn = 0;

  0007d	83 a6 78 01 00
	00 00		 and	 DWORD PTR [esi+376], 0

; 432  : 			UpdateData();
; 433  : 		}
; 434  : 		break;

  00084	eb 59		 jmp	 SHORT $LN17@iwm_comman
$LN6@iwm_comman:

; 411  : 	case ID_ITEM_LIST_WND:
; 412  : 		if( cmd == IOBN_BTNUP )

  00086	83 7d 0c 11	 cmp	 DWORD PTR _cmd$[ebp], 17 ; 00000011H
  0008a	75 69		 jne	 SHORT $LN9@iwm_comman

; 413  : 		{
; 414  : 			NewShopPullDownWnd *pPullDownWnd = dynamic_cast<NewShopPullDownWnd *>(pWnd);

  0008c	57		 push	 edi
  0008d	6a 00		 push	 0
  0008f	68 00 00 00 00	 push	 OFFSET ??_R0?AVNewShopPullDownWnd@@@8
  00094	68 00 00 00 00	 push	 OFFSET ??_R0?AVioWnd@@@8
  00099	6a 00		 push	 0
  0009b	ff 75 08	 push	 DWORD PTR _pWnd$[ebp]
  0009e	e8 00 00 00 00	 call	 ___RTDynamicCast
  000a3	8b f8		 mov	 edi, eax
  000a5	83 c4 14	 add	 esp, 20			; 00000014H

; 415  : 			if( pPullDownWnd )

  000a8	85 ff		 test	 edi, edi
  000aa	74 18		 je	 SHORT $LN4@iwm_comman

; 416  : 			{
; 417  : 				CheckItemListWnd( pPullDownWnd->GetOpenBtn(), param );

  000ac	ff 75 10	 push	 DWORD PTR _param$[ebp]
  000af	8b ce		 mov	 ecx, esi
  000b1	ff b7 98 01 00
	00		 push	 DWORD PTR [edi+408]
  000b7	e8 00 00 00 00	 call	 ?CheckItemListWnd@ItemMultipleCompoundWnd@@IAEXPAVioWnd@@H@Z ; ItemMultipleCompoundWnd::CheckItemListWnd

; 418  : 				pPullDownWnd->HideWnd();

  000bc	8b cf		 mov	 ecx, edi
  000be	ff 15 00 00 00
	00		 call	 DWORD PTR __imp_?HideWnd@ioWnd@@QAEXXZ
$LN4@iwm_comman:

; 419  : 			}
; 420  : 
; 421  : 			UpdateData();

  000c4	8b ce		 mov	 ecx, esi
  000c6	e8 00 00 00 00	 call	 ?UpdateData@ItemMultipleCompoundWnd@@IAEXXZ ; ItemMultipleCompoundWnd::UpdateData
  000cb	5f		 pop	 edi

; 422  : 		}
; 423  : 		break;

  000cc	eb 27		 jmp	 SHORT $LN9@iwm_comman
$LN8@iwm_comman:

; 400  : 		}
; 401  : 		break;
; 402  : 	case ID_ITEM1_BTN:
; 403  : 	case ID_ITEM2_BTN:
; 404  : 	case ID_ITEM3_BTN:
; 405  : 		if( cmd == IOBN_BTNUP )

  000ce	83 7d 0c 11	 cmp	 DWORD PTR _cmd$[ebp], 17 ; 00000011H
  000d2	75 21		 jne	 SHORT $LN9@iwm_comman

; 406  : 		{
; 407  : 			CheckCompoundItemBtn( pWnd, dwID );

  000d4	50		 push	 eax
  000d5	ff 75 08	 push	 DWORD PTR _pWnd$[ebp]
  000d8	8b ce		 mov	 ecx, esi
  000da	e8 00 00 00 00	 call	 ?CheckCompoundItemBtn@ItemMultipleCompoundWnd@@IAEXPAVioWnd@@K@Z ; ItemMultipleCompoundWnd::CheckCompoundItemBtn
$LN17@iwm_comman:

; 408  : 			UpdateData();

  000df	8b ce		 mov	 ecx, esi
  000e1	e8 00 00 00 00	 call	 ?UpdateData@ItemMultipleCompoundWnd@@IAEXXZ ; ItemMultipleCompoundWnd::UpdateData

; 409  : 		}
; 410  : 		break;

  000e6	eb 0d		 jmp	 SHORT $LN9@iwm_comman
$LN10@iwm_comman:

; 395  : 	{
; 396  : 	case ID_COMPOUND_BTN:
; 397  : 		if( cmd == IOBN_BTNUP )

  000e8	83 7d 0c 11	 cmp	 DWORD PTR _cmd$[ebp], 17 ; 00000011H
  000ec	75 07		 jne	 SHORT $LN9@iwm_comman

; 398  : 		{
; 399  : 			SendItemCompound();

  000ee	8b ce		 mov	 ecx, esi
  000f0	e8 00 00 00 00	 call	 ?SendItemCompound@ItemMultipleCompoundWnd@@IAEXXZ ; ItemMultipleCompoundWnd::SendItemCompound
$LN9@iwm_comman:
  000f5	5e		 pop	 esi

; 435  : 	}
; 436  : }

  000f6	5d		 pop	 ebp
  000f7	c2 0c 00	 ret	 12			; 0000000cH
?iwm_command@ItemMultipleCompoundWnd@@UAEXPAVioWnd@@HK@Z ENDP ; ItemMultipleCompoundWnd::iwm_command
_TEXT	ENDS
END
