; Listing generated by Microsoft (R) Optimizing Compiler Version 16.00.30319.01 

	TITLE	D:\Lost Saga For Developer\Youtube\Tutorial\Source\src\LSClient\GUI\ItemMaterialCompoundWnd.cpp
	.686P
	.XMM
	include listing.inc
	.model	flat

INCLUDELIB MSVCRT
INCLUDELIB OLDNAMES

PUBLIC	??0MaterialCompoundTargetItemInfo@ItemMaterialCompoundWnd@@QAE@XZ ; ItemMaterialCompoundWnd::MaterialCompoundTargetItemInfo::MaterialCompoundTargetItemInfo
; Function compile flags: /Ogsp
; File d:\lost saga for developer\youtube\tutorial\source\src\lsclient\gui\itemmaterialcompoundwnd.h
;	COMDAT ??0MaterialCompoundTargetItemInfo@ItemMaterialCompoundWnd@@QAE@XZ
_TEXT	SEGMENT
??0MaterialCompoundTargetItemInfo@ItemMaterialCompoundWnd@@QAE@XZ PROC ; ItemMaterialCompoundWnd::MaterialCompoundTargetItemInfo::MaterialCompoundTargetItemInfo, COMDAT
; _this$ = ecx

; 17   : 		MaterialCompoundTargetItemInfo()

  00000	8b c1		 mov	 eax, ecx

; 18   : 		{
; 19   : 			m_iSlotIndex = 0;

  00002	33 c9		 xor	 ecx, ecx
  00004	89 08		 mov	 DWORD PTR [eax], ecx

; 20   : 			m_iItemCode = 0;

  00006	89 48 04	 mov	 DWORD PTR [eax+4], ecx

; 21   : 			m_iReinforce = 0;

  00009	89 48 08	 mov	 DWORD PTR [eax+8], ecx

; 22   : 		}

  0000c	c3		 ret	 0
??0MaterialCompoundTargetItemInfo@ItemMaterialCompoundWnd@@QAE@XZ ENDP ; ItemMaterialCompoundWnd::MaterialCompoundTargetItemInfo::MaterialCompoundTargetItemInfo
_TEXT	ENDS
PUBLIC	??RMaterialCompoundItemInfoSort@ItemMaterialCompoundWnd@@QBE_NABUMaterialCompoundTargetItemInfo@1@0@Z ; ItemMaterialCompoundWnd::MaterialCompoundItemInfoSort::operator()
; Function compile flags: /Ogsp
;	COMDAT ??RMaterialCompoundItemInfoSort@ItemMaterialCompoundWnd@@QBE_NABUMaterialCompoundTargetItemInfo@1@0@Z
_TEXT	SEGMENT
_lhs$ = 8						; size = 4
_rhs$ = 12						; size = 4
??RMaterialCompoundItemInfoSort@ItemMaterialCompoundWnd@@QBE_NABUMaterialCompoundTargetItemInfo@1@0@Z PROC ; ItemMaterialCompoundWnd::MaterialCompoundItemInfoSort::operator(), COMDAT
; _this$ = ecx

; 31   : 		{

  00000	55		 push	 ebp
  00001	8b ec		 mov	 ebp, esp

; 32   : 			if( lhs.m_iItemCode < rhs.m_iItemCode )

  00003	8b 55 08	 mov	 edx, DWORD PTR _lhs$[ebp]
  00006	8b 42 04	 mov	 eax, DWORD PTR [edx+4]
  00009	56		 push	 esi
  0000a	8b 75 0c	 mov	 esi, DWORD PTR _rhs$[ebp]
  0000d	8b 4e 04	 mov	 ecx, DWORD PTR [esi+4]
  00010	3b c1		 cmp	 eax, ecx
  00012	7d 04		 jge	 SHORT $LN6@operator
$LN7@operator:

; 33   : 				return true;

  00014	b0 01		 mov	 al, 1
  00016	eb 0c		 jmp	 SHORT $LN4@operator
$LN6@operator:

; 34   : 
; 35   : 			if( lhs.m_iItemCode == rhs.m_iItemCode )

  00018	75 08		 jne	 SHORT $LN1@operator

; 36   : 			{
; 37   : 				if( lhs.m_iReinforce > rhs.m_iReinforce )

  0001a	8b 42 08	 mov	 eax, DWORD PTR [edx+8]
  0001d	3b 46 08	 cmp	 eax, DWORD PTR [esi+8]

; 38   : 					return true;	

  00020	7f f2		 jg	 SHORT $LN7@operator
$LN1@operator:

; 39   : 			}
; 40   : 			return false;

  00022	32 c0		 xor	 al, al
$LN4@operator:
  00024	5e		 pop	 esi

; 41   : 		}

  00025	5d		 pop	 ebp
  00026	c2 08 00	 ret	 8
??RMaterialCompoundItemInfoSort@ItemMaterialCompoundWnd@@QBE_NABUMaterialCompoundTargetItemInfo@1@0@Z ENDP ; ItemMaterialCompoundWnd::MaterialCompoundItemInfoSort::operator()
_TEXT	ENDS
PUBLIC	??RMaterialItemSort@ItemMaterialCompoundWnd@@QBE_NABUtagAlchemicItemInfo@@0@Z ; ItemMaterialCompoundWnd::MaterialItemSort::operator()
; Function compile flags: /Ogsp
;	COMDAT ??RMaterialItemSort@ItemMaterialCompoundWnd@@QBE_NABUtagAlchemicItemInfo@@0@Z
_TEXT	SEGMENT
_lhs$ = 8						; size = 4
_rhs$ = 12						; size = 4
??RMaterialItemSort@ItemMaterialCompoundWnd@@QBE_NABUtagAlchemicItemInfo@@0@Z PROC ; ItemMaterialCompoundWnd::MaterialItemSort::operator(), COMDAT
; _this$ = ecx

; 48   : 		{

  00000	55		 push	 ebp
  00001	8b ec		 mov	 ebp, esp

; 49   : 			if( lhs.m_iCount > rhs.m_iCount )

  00003	8b 55 08	 mov	 edx, DWORD PTR _lhs$[ebp]
  00006	8b 42 04	 mov	 eax, DWORD PTR [edx+4]
  00009	56		 push	 esi
  0000a	8b 75 0c	 mov	 esi, DWORD PTR _rhs$[ebp]
  0000d	8b 4e 04	 mov	 ecx, DWORD PTR [esi+4]
  00010	3b c1		 cmp	 eax, ecx
  00012	7e 04		 jle	 SHORT $LN6@operator@2
$LN7@operator@2:

; 50   : 				return true;

  00014	b0 01		 mov	 al, 1
  00016	eb 0a		 jmp	 SHORT $LN4@operator@2
$LN6@operator@2:

; 51   : 
; 52   : 			if( lhs.m_iCount == rhs.m_iCount )

  00018	75 06		 jne	 SHORT $LN1@operator@2

; 53   : 			{
; 54   : 				if( lhs.m_iCode < rhs.m_iCode )

  0001a	8b 02		 mov	 eax, DWORD PTR [edx]
  0001c	3b 06		 cmp	 eax, DWORD PTR [esi]

; 55   : 					return true;	

  0001e	7c f4		 jl	 SHORT $LN7@operator@2
$LN1@operator@2:

; 56   : 			}
; 57   : 			return false;

  00020	32 c0		 xor	 al, al
$LN4@operator@2:
  00022	5e		 pop	 esi

; 58   : 		}

  00023	5d		 pop	 ebp
  00024	c2 08 00	 ret	 8
??RMaterialItemSort@ItemMaterialCompoundWnd@@QBE_NABUtagAlchemicItemInfo@@0@Z ENDP ; ItemMaterialCompoundWnd::MaterialItemSort::operator()
_TEXT	ENDS
PUBLIC	?GetSelectExtraItemSlot@SelectExtraItemBtn@@QBEHXZ ; SelectExtraItemBtn::GetSelectExtraItemSlot
; Function compile flags: /Ogsp
; File d:\lost saga for developer\youtube\tutorial\source\src\lsclient\gui\itemcompoundwnd.h
;	COMDAT ?GetSelectExtraItemSlot@SelectExtraItemBtn@@QBEHXZ
_TEXT	SEGMENT
?GetSelectExtraItemSlot@SelectExtraItemBtn@@QBEHXZ PROC	; SelectExtraItemBtn::GetSelectExtraItemSlot, COMDAT
; _this$ = ecx

; 76   : 	inline int GetSelectExtraItemSlot() const { return m_iCurSelectSlot; }

  00000	8b 81 fc 01 00
	00		 mov	 eax, DWORD PTR [ecx+508]
  00006	c3		 ret	 0
?GetSelectExtraItemSlot@SelectExtraItemBtn@@QBEHXZ ENDP	; SelectExtraItemBtn::GetSelectExtraItemSlot
_TEXT	ENDS
PUBLIC	?return1@@YAIXZ					; return1
; Function compile flags: /Ogsp
; File d:\lost saga for developer\youtube\tutorial\source\src\lsclient\stdafx.h
;	COMDAT ?return1@@YAIXZ
_TEXT	SEGMENT
?return1@@YAIXZ PROC					; return1, COMDAT

; 17   : 	__forceinline unsigned int return1() { __asm mov eax, 1 };

  00000	b8 01 00 00 00	 mov	 eax, 1
  00005	c3		 ret	 0
?return1@@YAIXZ ENDP					; return1
_TEXT	ENDS
PUBLIC	?return100@@YAIXZ				; return100
; Function compile flags: /Ogsp
;	COMDAT ?return100@@YAIXZ
_TEXT	SEGMENT
?return100@@YAIXZ PROC					; return100, COMDAT

; 25   : 	__forceinline unsigned int return100() { __asm mov eax, 100 };

  00000	b8 64 00 00 00	 mov	 eax, 100		; 00000064H
  00005	c3		 ret	 0
?return100@@YAIXZ ENDP					; return100
_TEXT	ENDS
PUBLIC	?iwm_create@ItemMaterialCompoundWnd@@UAEXXZ	; ItemMaterialCompoundWnd::iwm_create
; Function compile flags: /Ogsp
; File d:\lost saga for developer\youtube\tutorial\source\src\lsclient\gui\itemmaterialcompoundwnd.cpp
;	COMDAT ?iwm_create@ItemMaterialCompoundWnd@@UAEXXZ
_TEXT	SEGMENT
?iwm_create@ItemMaterialCompoundWnd@@UAEXXZ PROC	; ItemMaterialCompoundWnd::iwm_create, COMDAT
; _this$ = ecx

; 38   : }

  00000	c3		 ret	 0
?iwm_create@ItemMaterialCompoundWnd@@UAEXXZ ENDP	; ItemMaterialCompoundWnd::iwm_create
_TEXT	ENDS
PUBLIC	??_7bad_alloc@std@@6B@				; std::bad_alloc::`vftable'
PUBLIC	??0bad_alloc@std@@QAE@PBD@Z			; std::bad_alloc::bad_alloc
PUBLIC	??_R4bad_alloc@std@@6B@				; std::bad_alloc::`RTTI Complete Object Locator'
PUBLIC	??_R0?AVbad_alloc@std@@@8			; std::bad_alloc `RTTI Type Descriptor'
PUBLIC	??_R3bad_alloc@std@@8				; std::bad_alloc::`RTTI Class Hierarchy Descriptor'
PUBLIC	??_R2bad_alloc@std@@8				; std::bad_alloc::`RTTI Base Class Array'
PUBLIC	??_R1A@?0A@EA@bad_alloc@std@@8			; std::bad_alloc::`RTTI Base Class Descriptor at (0,-1,0,64)'
PUBLIC	??_R1A@?0A@EA@exception@std@@8			; std::exception::`RTTI Base Class Descriptor at (0,-1,0,64)'
PUBLIC	??_R0?AVexception@std@@@8			; std::exception `RTTI Type Descriptor'
PUBLIC	??_R3exception@std@@8				; std::exception::`RTTI Class Hierarchy Descriptor'
PUBLIC	??_R2exception@std@@8				; std::exception::`RTTI Base Class Array'
EXTRN	__imp_??0exception@std@@QAE@ABQBD@Z:PROC
EXTRN	??_7type_info@@6B@:QWORD			; type_info::`vftable'
EXTRN	??_Ebad_alloc@std@@UAEPAXI@Z:PROC		; std::bad_alloc::`vector deleting destructor'
EXTRN	?what@exception@std@@UBEPBDXZ:PROC		; std::exception::what
;	COMDAT ??_R2exception@std@@8
; File c:\program files (x86)\microsoft visual studio 10.0\vc\include\exception
rdata$r	SEGMENT
??_R2exception@std@@8 DD FLAT:??_R1A@?0A@EA@exception@std@@8 ; std::exception::`RTTI Base Class Array'
rdata$r	ENDS
;	COMDAT ??_R3exception@std@@8
rdata$r	SEGMENT
??_R3exception@std@@8 DD 00H				; std::exception::`RTTI Class Hierarchy Descriptor'
	DD	00H
	DD	01H
	DD	FLAT:??_R2exception@std@@8
rdata$r	ENDS
;	COMDAT ??_R0?AVexception@std@@@8
_DATA	SEGMENT
??_R0?AVexception@std@@@8 DD FLAT:??_7type_info@@6B@	; std::exception `RTTI Type Descriptor'
	DD	00H
	DB	'.?AVexception@std@@', 00H
_DATA	ENDS
;	COMDAT ??_R1A@?0A@EA@exception@std@@8
rdata$r	SEGMENT
??_R1A@?0A@EA@exception@std@@8 DD FLAT:??_R0?AVexception@std@@@8 ; std::exception::`RTTI Base Class Descriptor at (0,-1,0,64)'
	DD	00H
	DD	00H
	DD	0ffffffffH
	DD	00H
	DD	040H
	DD	FLAT:??_R3exception@std@@8
rdata$r	ENDS
;	COMDAT ??_R1A@?0A@EA@bad_alloc@std@@8
rdata$r	SEGMENT
??_R1A@?0A@EA@bad_alloc@std@@8 DD FLAT:??_R0?AVbad_alloc@std@@@8 ; std::bad_alloc::`RTTI Base Class Descriptor at (0,-1,0,64)'
	DD	01H
	DD	00H
	DD	0ffffffffH
	DD	00H
	DD	040H
	DD	FLAT:??_R3bad_alloc@std@@8
rdata$r	ENDS
;	COMDAT ??_R2bad_alloc@std@@8
rdata$r	SEGMENT
??_R2bad_alloc@std@@8 DD FLAT:??_R1A@?0A@EA@bad_alloc@std@@8 ; std::bad_alloc::`RTTI Base Class Array'
	DD	FLAT:??_R1A@?0A@EA@exception@std@@8
rdata$r	ENDS
;	COMDAT ??_R3bad_alloc@std@@8
rdata$r	SEGMENT
??_R3bad_alloc@std@@8 DD 00H				; std::bad_alloc::`RTTI Class Hierarchy Descriptor'
	DD	00H
	DD	02H
	DD	FLAT:??_R2bad_alloc@std@@8
rdata$r	ENDS
;	COMDAT ??_R0?AVbad_alloc@std@@@8
_DATA	SEGMENT
??_R0?AVbad_alloc@std@@@8 DD FLAT:??_7type_info@@6B@	; std::bad_alloc `RTTI Type Descriptor'
	DD	00H
	DB	'.?AVbad_alloc@std@@', 00H
_DATA	ENDS
;	COMDAT ??_R4bad_alloc@std@@6B@
rdata$r	SEGMENT
??_R4bad_alloc@std@@6B@ DD 00H				; std::bad_alloc::`RTTI Complete Object Locator'
	DD	00H
	DD	00H
	DD	FLAT:??_R0?AVbad_alloc@std@@@8
	DD	FLAT:??_R3bad_alloc@std@@8
rdata$r	ENDS
;	COMDAT ??_7bad_alloc@std@@6B@
CONST	SEGMENT
??_7bad_alloc@std@@6B@ DD FLAT:??_R4bad_alloc@std@@6B@	; std::bad_alloc::`vftable'
	DD	FLAT:??_Ebad_alloc@std@@UAEPAXI@Z
	DD	FLAT:?what@exception@std@@UBEPBDXZ
; Function compile flags: /Ogsp
CONST	ENDS
;	COMDAT ??0bad_alloc@std@@QAE@PBD@Z
_TEXT	SEGMENT
__Message$ = 8						; size = 4
??0bad_alloc@std@@QAE@PBD@Z PROC			; std::bad_alloc::bad_alloc, COMDAT
; _this$ = ecx

; 345  : 		{	// construct from message string

  00000	55		 push	 ebp
  00001	8b ec		 mov	 ebp, esp
  00003	56		 push	 esi
  00004	8d 45 08	 lea	 eax, DWORD PTR __Message$[ebp]
  00007	50		 push	 eax
  00008	8b f1		 mov	 esi, ecx
  0000a	ff 15 00 00 00
	00		 call	 DWORD PTR __imp_??0exception@std@@QAE@ABQBD@Z
  00010	c7 06 00 00 00
	00		 mov	 DWORD PTR [esi], OFFSET ??_7bad_alloc@std@@6B@

; 346  : 		}

  00016	8b c6		 mov	 eax, esi
  00018	5e		 pop	 esi
  00019	5d		 pop	 ebp
  0001a	c2 04 00	 ret	 4
??0bad_alloc@std@@QAE@PBD@Z ENDP			; std::bad_alloc::bad_alloc
_TEXT	ENDS
PUBLIC	??1bad_alloc@std@@UAE@XZ			; std::bad_alloc::~bad_alloc
EXTRN	__imp_??1exception@std@@UAE@XZ:PROC
; Function compile flags: /Ogsp
;	COMDAT ??1bad_alloc@std@@UAE@XZ
_TEXT	SEGMENT
??1bad_alloc@std@@UAE@XZ PROC				; std::bad_alloc::~bad_alloc, COMDAT
; _this$ = ecx

; 354  : 		{	// destroy the object

  00000	c7 01 00 00 00
	00		 mov	 DWORD PTR [ecx], OFFSET ??_7bad_alloc@std@@6B@

; 355  : 		}

  00006	ff 25 00 00 00
	00		 jmp	 DWORD PTR __imp_??1exception@std@@UAE@XZ
??1bad_alloc@std@@UAE@XZ ENDP				; std::bad_alloc::~bad_alloc
_TEXT	ENDS
EXTRN	??3@YAXPAX@Z:PROC				; operator delete
; Function compile flags: /Ogsp
;	COMDAT ??_Gbad_alloc@std@@UAEPAXI@Z
_TEXT	SEGMENT
___flags$ = 8						; size = 4
??_Gbad_alloc@std@@UAEPAXI@Z PROC			; std::bad_alloc::`scalar deleting destructor', COMDAT
; _this$ = ecx
  00000	55		 push	 ebp
  00001	8b ec		 mov	 ebp, esp
  00003	56		 push	 esi
  00004	8b f1		 mov	 esi, ecx
  00006	c7 06 00 00 00
	00		 mov	 DWORD PTR [esi], OFFSET ??_7bad_alloc@std@@6B@
  0000c	ff 15 00 00 00
	00		 call	 DWORD PTR __imp_??1exception@std@@UAE@XZ
  00012	f6 45 08 01	 test	 BYTE PTR ___flags$[ebp], 1
  00016	74 07		 je	 SHORT $LN1@scalar
  00018	56		 push	 esi
  00019	e8 00 00 00 00	 call	 ??3@YAXPAX@Z		; operator delete
  0001e	59		 pop	 ecx
$LN1@scalar:
  0001f	8b c6		 mov	 eax, esi
  00021	5e		 pop	 esi
  00022	5d		 pop	 ebp
  00023	c2 04 00	 ret	 4
??_Gbad_alloc@std@@UAEPAXI@Z ENDP			; std::bad_alloc::`scalar deleting destructor'
_TEXT	ENDS
PUBLIC	??2@YAPAXIPAX@Z					; operator new
; Function compile flags: /Ogsp
; File c:\program files (x86)\microsoft visual studio 10.0\vc\include\new
;	COMDAT ??2@YAPAXIPAX@Z
_TEXT	SEGMENT
___formal$ = 8						; size = 4
__Where$ = 12						; size = 4
??2@YAPAXIPAX@Z PROC					; operator new, COMDAT

; 56   : 	{	// construct array with placement at _Where

  00000	55		 push	 ebp
  00001	8b ec		 mov	 ebp, esp

; 57   : 	return (_Where);

  00003	8b 45 0c	 mov	 eax, DWORD PTR __Where$[ebp]

; 58   : 	}

  00006	5d		 pop	 ebp
  00007	c3		 ret	 0
??2@YAPAXIPAX@Z ENDP					; operator new
_TEXT	ENDS
PUBLIC	??3@YAXPAX0@Z					; operator delete
; Function compile flags: /Ogsp
;	COMDAT ??3@YAXPAX0@Z
_TEXT	SEGMENT
___formal$ = 8						; size = 4
___formal$ = 12						; size = 4
??3@YAXPAX0@Z PROC					; operator delete, COMDAT

; 62   : 	}

  00000	c3		 ret	 0
??3@YAXPAX0@Z ENDP					; operator delete
_TEXT	ENDS
PUBLIC	__real@3f19999a
PUBLIC	??_C@_0CP@HFCFFJBM@ItemMaterialCompoundWnd?3?3Success@ ; `string'
PUBLIC	??_C@_00CNPNBAHC@?$AA@				; `string'
PUBLIC	?SuccessRateDescRender@ItemMaterialCompoundWnd@@IAEXXZ ; ItemMaterialCompoundWnd::SuccessRateDescRender
EXTRN	__imp_?PrintText@ioFontManager@@QAEXMMMPBDM@Z:PROC
EXTRN	__imp_?PrintText@ioFontManager@@QAAXMMMPBDZZ:PROC
EXTRN	__imp_?GetString@ioStringManager@@QAEPADPBD0HW4FileNamePrefix@1@@Z:PROC
EXTRN	__imp_?GetSingleton@ioStringManager@@SAAAV1@XZ:PROC
EXTRN	__imp_?SetTextColor@ioFontManager@@QAEXK@Z:PROC
EXTRN	__imp_?SetBkColor@ioFontManager@@QAEXHHH@Z:PROC
EXTRN	__imp_?SetTextStyle@ioFontManager@@QAEXW4TextStyle@@@Z:PROC
EXTRN	__imp_?SetAlignType@ioFontManager@@QAEXW4TextAlignType@@@Z:PROC
EXTRN	__imp_?GetSingleton@ioFontManager@@SAAAV1@XZ:PROC
EXTRN	__imp_?FindChildWnd@ioWnd@@QAEPAV1@K@Z:PROC
EXTRN	__imp_?GetDerivedPosY@ioWnd@@QBEHXZ:PROC
EXTRN	__imp_?GetDerivedPosX@ioWnd@@QBEHXZ:PROC
EXTRN	__fltused:DWORD
;	COMDAT __real@3f19999a
; File d:\lost saga for developer\youtube\tutorial\source\src\lsclient\gui\itemcompoundwnd.h
CONST	SEGMENT
__real@3f19999a DD 03f19999ar			; 0.6
CONST	ENDS
;	COMDAT ??_C@_0CP@HFCFFJBM@ItemMaterialCompoundWnd?3?3Success@
CONST	SEGMENT
??_C@_0CP@HFCFFJBM@ItemMaterialCompoundWnd?3?3Success@ DB 'ItemMaterialCo'
	DB	'mpoundWnd::SuccessRateDescRender', 00H	; `string'
CONST	ENDS
;	COMDAT ??_C@_00CNPNBAHC@?$AA@
CONST	SEGMENT
??_C@_00CNPNBAHC@?$AA@ DB 00H				; `string'
; Function compile flags: /Ogsp
; File d:\lost saga for developer\youtube\tutorial\source\src\lsclient\gui\itemmaterialcompoundwnd.cpp
CONST	ENDS
;	COMDAT ?SuccessRateDescRender@ItemMaterialCompoundWnd@@IAEXXZ
_TEXT	SEGMENT
_this$ = -12						; size = 4
_iXPos$ = -8						; size = 4
tv234 = -4						; size = 4
_iYPos$ = -4						; size = 4
?SuccessRateDescRender@ItemMaterialCompoundWnd@@IAEXXZ PROC ; ItemMaterialCompoundWnd::SuccessRateDescRender, COMDAT
; _this$ = ecx

; 321  : {

  00000	55		 push	 ebp
  00001	8b ec		 mov	 ebp, esp
  00003	83 ec 0c	 sub	 esp, 12			; 0000000cH
  00006	53		 push	 ebx
  00007	56		 push	 esi
  00008	8b f1		 mov	 esi, ecx
  0000a	57		 push	 edi
  0000b	89 75 f4	 mov	 DWORD PTR _this$[ebp], esi

; 322  : 	int iXPos = GetDerivedPosX();

  0000e	ff 15 00 00 00
	00		 call	 DWORD PTR __imp_?GetDerivedPosX@ioWnd@@QBEHXZ
  00014	8b f8		 mov	 edi, eax

; 323  : 	int iYPos = GetDerivedPosY();

  00016	8b ce		 mov	 ecx, esi
  00018	89 7d f8	 mov	 DWORD PTR _iXPos$[ebp], edi
  0001b	ff 15 00 00 00
	00		 call	 DWORD PTR __imp_?GetDerivedPosY@ioWnd@@QBEHXZ

; 324  : 
; 325  : 	enum 
; 326  : 	{
; 327  : 		INFO_LEFT_X_OFFSET = 33,
; 328  : 		INFO_LEFT_Y_OFFSET = 415,
; 329  : 
; 330  : 		INFO_RIGHT_X_OFFSET = 225,
; 331  : 		INFO_RIGHT_Y_OFFSET = 415,
; 332  : 	};
; 333  : 
; 334  : 	if ( m_bIsSelectMaterial )

  00021	33 db		 xor	 ebx, ebx
  00023	89 45 fc	 mov	 DWORD PTR _iYPos$[ebp], eax
  00026	38 9e 9e 01 00
	00		 cmp	 BYTE PTR [esi+414], bl
  0002c	0f 84 45 01 00
	00		 je	 $LN4@SuccessRat

; 335  : 	{
; 336  : 		SelectExtraItemBtn *pTarget = (SelectExtraItemBtn*)(FindChildWnd(ID_TARGETITEM_BTN));

  00032	6a 0b		 push	 11			; 0000000bH
  00034	8b ce		 mov	 ecx, esi
  00036	ff 15 00 00 00
	00		 call	 DWORD PTR __imp_?FindChildWnd@ioWnd@@QAEPAV1@K@Z

; 337  : 		if( !pTarget ) 

  0003c	3b c3		 cmp	 eax, ebx
  0003e	0f 84 c8 01 00
	00		 je	 $LN1@SuccessRat

; 338  : 			return;
; 339  : 
; 340  : 		int nTargetSlot = pTarget->GetSelectExtraItemSlot();
; 341  : 		if ( nTargetSlot > 0)

  00044	39 98 fc 01 00
	00		 cmp	 DWORD PTR [eax+508], ebx
  0004a	0f 8e bc 01 00
	00		 jle	 $LN1@SuccessRat

; 342  : 		{
; 343  : 			g_FontMgr.SetAlignType( TAT_LEFT );

  00050	8b 35 00 00 00
	00		 mov	 esi, DWORD PTR __imp_?GetSingleton@ioFontManager@@SAAAV1@XZ
  00056	53		 push	 ebx
  00057	ff d6		 call	 esi
  00059	8b c8		 mov	 ecx, eax
  0005b	ff 15 00 00 00
	00		 call	 DWORD PTR __imp_?SetAlignType@ioFontManager@@QAEXW4TextAlignType@@@Z

; 344  : 			g_FontMgr.SetTextStyle( TS_NORMAL );

  00061	53		 push	 ebx
  00062	ff d6		 call	 esi
  00064	8b c8		 mov	 ecx, eax
  00066	ff 15 00 00 00
	00		 call	 DWORD PTR __imp_?SetTextStyle@ioFontManager@@QAEXW4TextStyle@@@Z

; 345  : 			g_FontMgr.SetBkColor( 0, 0, 0 );

  0006c	53		 push	 ebx
  0006d	53		 push	 ebx
  0006e	53		 push	 ebx
  0006f	ff d6		 call	 esi
  00071	8b c8		 mov	 ecx, eax
  00073	ff 15 00 00 00
	00		 call	 DWORD PTR __imp_?SetBkColor@ioFontManager@@QAEXHHH@Z

; 346  : 			g_FontMgr.SetTextColor( TCT_DEFAULT_GREEN );

  00079	68 22 72 11 ff	 push	 -15633886		; ff117222H
  0007e	ff d6		 call	 esi
  00080	8b 3d 00 00 00
	00		 mov	 edi, DWORD PTR __imp_?SetTextColor@ioFontManager@@QAEXK@Z
  00086	8b c8		 mov	 ecx, eax
  00088	ff d7		 call	 edi

; 347  : 			g_FontMgr.PrintText( iXPos + INFO_LEFT_X_OFFSET, iYPos + INFO_LEFT_Y_OFFSET, FONT_SIZE_12, STR(1) );

  0008a	8b 45 fc	 mov	 eax, DWORD PTR _iYPos$[ebp]
  0008d	53		 push	 ebx
  0008e	6a 01		 push	 1
  00090	05 9f 01 00 00	 add	 eax, 415		; 0000019fH
  00095	0f 57 c0	 xorps	 xmm0, xmm0
  00098	68 00 00 00 00	 push	 OFFSET ??_C@_00CNPNBAHC@?$AA@
  0009d	f3 0f 2a c0	 cvtsi2ss xmm0, eax
  000a1	68 00 00 00 00	 push	 OFFSET ??_C@_0CP@HFCFFJBM@ItemMaterialCompoundWnd?3?3Success@
  000a6	f3 0f 11 45 fc	 movss	 DWORD PTR tv234[ebp], xmm0
  000ab	ff 15 00 00 00
	00		 call	 DWORD PTR __imp_?GetSingleton@ioStringManager@@SAAAV1@XZ
  000b1	8b c8		 mov	 ecx, eax
  000b3	ff 15 00 00 00
	00		 call	 DWORD PTR __imp_?GetString@ioStringManager@@QAEPADPBD0HW4FileNamePrefix@1@@Z
  000b9	f3 0f 10 05 00
	00 00 00	 movss	 xmm0, DWORD PTR __real@3f19999a
  000c1	50		 push	 eax
  000c2	8b 45 f8	 mov	 eax, DWORD PTR _iXPos$[ebp]
  000c5	83 ec 0c	 sub	 esp, 12			; 0000000cH
  000c8	f3 0f 11 44 24
	08		 movss	 DWORD PTR [esp+8], xmm0
  000ce	f3 0f 10 45 fc	 movss	 xmm0, DWORD PTR tv234[ebp]
  000d3	f3 0f 11 44 24
	04		 movss	 DWORD PTR [esp+4], xmm0
  000d9	83 c0 21	 add	 eax, 33			; 00000021H
  000dc	0f 57 c0	 xorps	 xmm0, xmm0
  000df	f3 0f 2a c0	 cvtsi2ss xmm0, eax
  000e3	f3 0f 11 04 24	 movss	 DWORD PTR [esp], xmm0
  000e8	ff d6		 call	 esi
  000ea	50		 push	 eax
  000eb	ff 15 00 00 00
	00		 call	 DWORD PTR __imp_?PrintText@ioFontManager@@QAAXMMMPBDZZ
  000f1	83 c4 14	 add	 esp, 20			; 00000014H

; 348  : 
; 349  : 			g_FontMgr.SetAlignType( TAT_RIGHT );

  000f4	6a 02		 push	 2
  000f6	ff d6		 call	 esi
  000f8	8b c8		 mov	 ecx, eax
  000fa	ff 15 00 00 00
	00		 call	 DWORD PTR __imp_?SetAlignType@ioFontManager@@QAEXW4TextAlignType@@@Z

; 350  : 			g_FontMgr.SetTextColor( TCT_DEFAULT_GREEN );

  00100	68 22 72 11 ff	 push	 -15633886		; ff117222H
  00105	ff d6		 call	 esi
  00107	8b c8		 mov	 ecx, eax
  00109	ff d7		 call	 edi

; 351  : 			g_FontMgr.PrintText( iXPos + INFO_RIGHT_X_OFFSET, iYPos + INFO_RIGHT_Y_OFFSET, FONT_SIZE_12, STR(2), m_fSuccessRate );

  0010b	8b 45 f4	 mov	 eax, DWORD PTR _this$[ebp]
  0010e	f3 0f 10 80 8c
	01 00 00	 movss	 xmm0, DWORD PTR [eax+396]
  00116	51		 push	 ecx
  00117	f3 0f 11 04 24	 movss	 DWORD PTR [esp], xmm0
  0011c	53		 push	 ebx
  0011d	6a 02		 push	 2
  0011f	68 00 00 00 00	 push	 OFFSET ??_C@_00CNPNBAHC@?$AA@
  00124	68 00 00 00 00	 push	 OFFSET ??_C@_0CP@HFCFFJBM@ItemMaterialCompoundWnd?3?3Success@
  00129	ff 15 00 00 00
	00		 call	 DWORD PTR __imp_?GetSingleton@ioStringManager@@SAAAV1@XZ
  0012f	8b c8		 mov	 ecx, eax
  00131	ff 15 00 00 00
	00		 call	 DWORD PTR __imp_?GetString@ioStringManager@@QAEPADPBD0HW4FileNamePrefix@1@@Z
  00137	f3 0f 10 05 00
	00 00 00	 movss	 xmm0, DWORD PTR __real@3f19999a
  0013f	50		 push	 eax
  00140	8b 45 f8	 mov	 eax, DWORD PTR _iXPos$[ebp]
  00143	83 ec 0c	 sub	 esp, 12			; 0000000cH
  00146	f3 0f 11 44 24
	08		 movss	 DWORD PTR [esp+8], xmm0
  0014c	f3 0f 10 45 fc	 movss	 xmm0, DWORD PTR tv234[ebp]
  00151	f3 0f 11 44 24
	04		 movss	 DWORD PTR [esp+4], xmm0
  00157	05 e1 00 00 00	 add	 eax, 225		; 000000e1H
  0015c	0f 57 c0	 xorps	 xmm0, xmm0
  0015f	f3 0f 2a c0	 cvtsi2ss xmm0, eax
  00163	f3 0f 11 04 24	 movss	 DWORD PTR [esp], xmm0
  00168	ff d6		 call	 esi
  0016a	8b c8		 mov	 ecx, eax
  0016c	ff 15 00 00 00
	00		 call	 DWORD PTR __imp_?PrintText@ioFontManager@@QAEXMMMPBDM@Z

; 352  : 		}
; 353  : 	}
; 354  : 	else

  00172	e9 95 00 00 00	 jmp	 $LN1@SuccessRat
$LN4@SuccessRat:

; 355  : 	{
; 356  : 		g_FontMgr.SetAlignType( TAT_LEFT );

  00177	8b 35 00 00 00
	00		 mov	 esi, DWORD PTR __imp_?GetSingleton@ioFontManager@@SAAAV1@XZ
  0017d	53		 push	 ebx
  0017e	ff d6		 call	 esi
  00180	8b c8		 mov	 ecx, eax
  00182	ff 15 00 00 00
	00		 call	 DWORD PTR __imp_?SetAlignType@ioFontManager@@QAEXW4TextAlignType@@@Z

; 357  : 		g_FontMgr.SetTextStyle( TS_NORMAL );

  00188	53		 push	 ebx
  00189	ff d6		 call	 esi
  0018b	8b c8		 mov	 ecx, eax
  0018d	ff 15 00 00 00
	00		 call	 DWORD PTR __imp_?SetTextStyle@ioFontManager@@QAEXW4TextStyle@@@Z

; 358  : 		g_FontMgr.SetBkColor( 0, 0, 0 );

  00193	53		 push	 ebx
  00194	53		 push	 ebx
  00195	53		 push	 ebx
  00196	ff d6		 call	 esi
  00198	8b c8		 mov	 ecx, eax
  0019a	ff 15 00 00 00
	00		 call	 DWORD PTR __imp_?SetBkColor@ioFontManager@@QAEXHHH@Z

; 359  : 		g_FontMgr.SetTextColor( TCT_DEFAULT_RED );

  001a0	68 00 16 b9 ff	 push	 -4647424		; ffb91600H
  001a5	ff d6		 call	 esi
  001a7	8b c8		 mov	 ecx, eax
  001a9	ff 15 00 00 00
	00		 call	 DWORD PTR __imp_?SetTextColor@ioFontManager@@QAEXK@Z

; 360  : 		g_FontMgr.PrintText( iXPos + INFO_LEFT_X_OFFSET, iYPos + INFO_LEFT_Y_OFFSET, FONT_SIZE_12, STR(3) );

  001af	53		 push	 ebx
  001b0	6a 03		 push	 3
  001b2	68 00 00 00 00	 push	 OFFSET ??_C@_00CNPNBAHC@?$AA@
  001b7	68 00 00 00 00	 push	 OFFSET ??_C@_0CP@HFCFFJBM@ItemMaterialCompoundWnd?3?3Success@
  001bc	ff 15 00 00 00
	00		 call	 DWORD PTR __imp_?GetSingleton@ioStringManager@@SAAAV1@XZ
  001c2	8b c8		 mov	 ecx, eax
  001c4	ff 15 00 00 00
	00		 call	 DWORD PTR __imp_?GetString@ioStringManager@@QAEPADPBD0HW4FileNamePrefix@1@@Z
  001ca	f3 0f 10 05 00
	00 00 00	 movss	 xmm0, DWORD PTR __real@3f19999a
  001d2	50		 push	 eax
  001d3	8b 45 fc	 mov	 eax, DWORD PTR _iYPos$[ebp]
  001d6	83 ec 0c	 sub	 esp, 12			; 0000000cH
  001d9	f3 0f 11 44 24
	08		 movss	 DWORD PTR [esp+8], xmm0
  001df	0f 57 c0	 xorps	 xmm0, xmm0
  001e2	05 9f 01 00 00	 add	 eax, 415		; 0000019fH
  001e7	f3 0f 2a c0	 cvtsi2ss xmm0, eax
  001eb	f3 0f 11 44 24
	04		 movss	 DWORD PTR [esp+4], xmm0
  001f1	83 c7 21	 add	 edi, 33			; 00000021H
  001f4	0f 57 c0	 xorps	 xmm0, xmm0
  001f7	f3 0f 2a c7	 cvtsi2ss xmm0, edi
  001fb	f3 0f 11 04 24	 movss	 DWORD PTR [esp], xmm0
  00200	ff d6		 call	 esi
  00202	50		 push	 eax
  00203	ff 15 00 00 00
	00		 call	 DWORD PTR __imp_?PrintText@ioFontManager@@QAAXMMMPBDZZ
  00209	83 c4 14	 add	 esp, 20			; 00000014H
$LN1@SuccessRat:
  0020c	5f		 pop	 edi
  0020d	5e		 pop	 esi
  0020e	5b		 pop	 ebx

; 361  : 	}
; 362  : }

  0020f	c9		 leave
  00210	c3		 ret	 0
?SuccessRateDescRender@ItemMaterialCompoundWnd@@IAEXXZ ENDP ; ItemMaterialCompoundWnd::SuccessRateDescRender
_TEXT	ENDS
PUBLIC	__real@4f800000
PUBLIC	??_C@_0CH@MEKPMAKH@ItemMaterialCompoundWnd?3?3RenderF@ ; `string'
PUBLIC	?RenderFailExp@ItemMaterialCompoundWnd@@IAEXHH@Z ; ItemMaterialCompoundWnd::RenderFailExp
EXTRN	??1ioComplexStringPrinter@@QAE@XZ:PROC		; ioComplexStringPrinter::~ioComplexStringPrinter
EXTRN	__imp_?RenderWidthCut@ioUIRenderImage@@QAEXMMHHW4UIRenderType@@W4TextureFilterOption@@0@Z:PROC
EXTRN	__imp_?GetWidth@ioUIRenderElement@@QBEHXZ:PROC
EXTRN	?ClearList@ioComplexStringPrinter@@QAEXXZ:PROC	; ioComplexStringPrinter::ClearList
EXTRN	?PrintFullText@ioComplexStringPrinter@@QAEXMMW4TextAlignType@@E@Z:PROC ; ioComplexStringPrinter::PrintFullText
EXTRN	?AddTextPiece@ioComplexStringPrinter@@QAEXMPBDH@Z:PROC ; ioComplexStringPrinter::AddTextPiece
EXTRN	?AddTextPiece@ioComplexStringPrinter@@QAAXMPBDZZ:PROC ; ioComplexStringPrinter::AddTextPiece
EXTRN	?SetTextColor@ioComplexStringPrinter@@QAEXK@Z:PROC ; ioComplexStringPrinter::SetTextColor
EXTRN	?SetBkColor@ioComplexStringPrinter@@QAEXHHH@Z:PROC ; ioComplexStringPrinter::SetBkColor
EXTRN	?SetTextStyle@ioComplexStringPrinter@@QAEXW4TextStyle@@@Z:PROC ; ioComplexStringPrinter::SetTextStyle
EXTRN	??0ioComplexStringPrinter@@QAE@XZ:PROC		; ioComplexStringPrinter::ioComplexStringPrinter
EXTRN	___CxxFrameHandler3:PROC
EXTRN	@__security_check_cookie@4:PROC
EXTRN	__EH_epilog3:PROC
EXTRN	__EH_prolog3:PROC
EXTRN	__ftol2_sse:PROC
;	COMDAT __real@4f800000
; File d:\lost saga for developer\youtube\tutorial\source\src\lsclient\stdafx.h
CONST	SEGMENT
__real@4f800000 DD 04f800000r			; 4.29497e+009
CONST	ENDS
;	COMDAT ??_C@_0CH@MEKPMAKH@ItemMaterialCompoundWnd?3?3RenderF@
CONST	SEGMENT
??_C@_0CH@MEKPMAKH@ItemMaterialCompoundWnd?3?3RenderF@ DB 'ItemMaterialCo'
	DB	'mpoundWnd::RenderFailExp', 00H		; `string'
CONST	ENDS
;	COMDAT xdata$x
xdata$x	SEGMENT
__unwindtable$?RenderFailExp@ItemMaterialCompoundWnd@@IAEXHH@Z DD 0ffffffffH
	DD	FLAT:__unwindfunclet$?RenderFailExp@ItemMaterialCompoundWnd@@IAEXHH@Z$0
__ehfuncinfo$?RenderFailExp@ItemMaterialCompoundWnd@@IAEXHH@Z DD 019930522H
	DD	01H
	DD	FLAT:__unwindtable$?RenderFailExp@ItemMaterialCompoundWnd@@IAEXHH@Z
	DD	2 DUP(00H)
	DD	2 DUP(00H)
	DD	00H
	DD	01H
; Function compile flags: /Ogsp
; File d:\lost saga for developer\youtube\tutorial\source\src\lsclient\gui\itemmaterialcompoundwnd.cpp
xdata$x	ENDS
;	COMDAT ?RenderFailExp@ItemMaterialCompoundWnd@@IAEXHH@Z
_TEXT	SEGMENT
_kPrinter$ = -52					; size = 32
tv339 = -20						; size = 4
tv336 = -20						; size = 4
tv320 = -20						; size = 4
tv351 = -16						; size = 4
__$EHRec$ = -12						; size = 12
tv311 = 8						; size = 4
tv310 = 8						; size = 4
tv182 = 8						; size = 4
_nGaugeWidth$ = 8					; size = 4
_iXPos$ = 8						; size = 4
tv349 = 12						; size = 4
_iYPos$ = 12						; size = 4
?RenderFailExp@ItemMaterialCompoundWnd@@IAEXHH@Z PROC	; ItemMaterialCompoundWnd::RenderFailExp, COMDAT
; _this$ = ecx

; 365  : {

  00000	6a 28		 push	 40			; 00000028H
  00002	b8 00 00 00 00	 mov	 eax, __ehhandler$?RenderFailExp@ItemMaterialCompoundWnd@@IAEXHH@Z
  00007	e8 00 00 00 00	 call	 __EH_prolog3
  0000c	8b f1		 mov	 esi, ecx

; 366  : 	if( !m_pManualMark || !m_pGaugeMainBack || !m_pGaugeBack || !m_pGauge || m_nMaxFailExp <= 0 )

  0000e	33 ff		 xor	 edi, edi
  00010	39 be 64 01 00
	00		 cmp	 DWORD PTR [esi+356], edi
  00016	0f 84 82 02 00
	00		 je	 $LN1@RenderFail
  0001c	39 be 68 01 00
	00		 cmp	 DWORD PTR [esi+360], edi
  00022	0f 84 76 02 00
	00		 je	 $LN1@RenderFail
  00028	39 be 6c 01 00
	00		 cmp	 DWORD PTR [esi+364], edi
  0002e	0f 84 6a 02 00
	00		 je	 $LN1@RenderFail
  00034	39 be 70 01 00
	00		 cmp	 DWORD PTR [esi+368], edi
  0003a	0f 84 5e 02 00
	00		 je	 $LN1@RenderFail
  00040	39 be a0 01 00
	00		 cmp	 DWORD PTR [esi+416], edi
  00046	0f 8e 52 02 00
	00		 jle	 $LN1@RenderFail

; 367  : 		return;
; 368  : 
; 369  : 	enum 
; 370  : 	{		
; 371  : 		GAUGE_X_OFFSET = 57,
; 372  : 		GAUGE_Y_OFFSET = 392,
; 373  : 		GAUGE_BACK_OFFSET = 2,
; 374  : 
; 375  : 		TEXT_X_OFFSET  = 130,
; 376  : 		TEXT_Y_OFFSET  = 374,
; 377  : 
; 378  : 		MANUAL_X_OFFSET = 207,
; 379  : 		MANUAL_Y_OFFSET = 390,
; 380  : 	};
; 381  : 	
; 382  : 	ioComplexStringPrinter kPrinter;

  0004c	8d 4d cc	 lea	 ecx, DWORD PTR _kPrinter$[ebp]
  0004f	e8 00 00 00 00	 call	 ??0ioComplexStringPrinter@@QAE@XZ ; ioComplexStringPrinter::ioComplexStringPrinter

; 383  : 	kPrinter.SetTextStyle( TS_NORMAL );

  00054	57		 push	 edi
  00055	8d 4d cc	 lea	 ecx, DWORD PTR _kPrinter$[ebp]
  00058	89 7d fc	 mov	 DWORD PTR __$EHRec$[ebp+8], edi
  0005b	e8 00 00 00 00	 call	 ?SetTextStyle@ioComplexStringPrinter@@QAEXW4TextStyle@@@Z ; ioComplexStringPrinter::SetTextStyle

; 384  : 	kPrinter.SetBkColor( 0, 0, 0 );

  00060	57		 push	 edi
  00061	57		 push	 edi
  00062	57		 push	 edi
  00063	8d 4d cc	 lea	 ecx, DWORD PTR _kPrinter$[ebp]
  00066	e8 00 00 00 00	 call	 ?SetBkColor@ioComplexStringPrinter@@QAEXHHH@Z ; ioComplexStringPrinter::SetBkColor

; 385  : 	kPrinter.SetTextColor( TCT_DEFAULT_DARKGRAY );		

  0006b	68 3a 3a 3a ff	 push	 -12961222		; ff3a3a3aH
  00070	8d 4d cc	 lea	 ecx, DWORD PTR _kPrinter$[ebp]
  00073	e8 00 00 00 00	 call	 ?SetTextColor@ioComplexStringPrinter@@QAEXK@Z ; ioComplexStringPrinter::SetTextColor

; 386  : 	kPrinter.AddTextPiece( FONT_SIZE_12, STR(1) );	

  00078	8b 1d 00 00 00
	00		 mov	 ebx, DWORD PTR __imp_?GetSingleton@ioStringManager@@SAAAV1@XZ
  0007e	57		 push	 edi
  0007f	6a 01		 push	 1
  00081	68 00 00 00 00	 push	 OFFSET ??_C@_00CNPNBAHC@?$AA@
  00086	68 00 00 00 00	 push	 OFFSET ??_C@_0CH@MEKPMAKH@ItemMaterialCompoundWnd?3?3RenderF@
  0008b	ff d3		 call	 ebx
  0008d	8b c8		 mov	 ecx, eax
  0008f	ff 15 00 00 00
	00		 call	 DWORD PTR __imp_?GetString@ioStringManager@@QAEPADPBD0HW4FileNamePrefix@1@@Z
  00095	f3 0f 10 05 00
	00 00 00	 movss	 xmm0, DWORD PTR __real@3f19999a
  0009d	50		 push	 eax
  0009e	51		 push	 ecx
  0009f	8d 45 cc	 lea	 eax, DWORD PTR _kPrinter$[ebp]
  000a2	f3 0f 11 04 24	 movss	 DWORD PTR [esp], xmm0
  000a7	50		 push	 eax
  000a8	e8 00 00 00 00	 call	 ?AddTextPiece@ioComplexStringPrinter@@QAAXMPBDZZ ; ioComplexStringPrinter::AddTextPiece
  000ad	83 c4 0c	 add	 esp, 12			; 0000000cH

; 387  : 	kPrinter.SetTextColor( TCT_DEFAULT_GRAY );		

  000b0	68 6e 6e 6e ff	 push	 -9539986		; ff6e6e6eH
  000b5	8d 4d cc	 lea	 ecx, DWORD PTR _kPrinter$[ebp]
  000b8	e8 00 00 00 00	 call	 ?SetTextColor@ioComplexStringPrinter@@QAEXK@Z ; ioComplexStringPrinter::SetTextColor

; 388  : 	kPrinter.AddTextPiece( FONT_SIZE_12, STR(2), (int)(m_fFailExpRate * FLOAT100) );	

  000bd	b8 64 00 00 00	 mov	 eax, 100		; 00000064H
  000c2	89 45 ec	 mov	 DWORD PTR tv336[ebp], eax
  000c5	db 45 ec	 fild	 DWORD PTR tv336[ebp]
  000c8	85 c0		 test	 eax, eax
  000ca	79 06		 jns	 SHORT $LN15@RenderFail
  000cc	d8 05 00 00 00
	00		 fadd	 DWORD PTR __real@4f800000
$LN15@RenderFail:
  000d2	d8 8e a8 01 00
	00		 fmul	 DWORD PTR [esi+424]
  000d8	e8 00 00 00 00	 call	 __ftol2_sse
  000dd	50		 push	 eax
  000de	57		 push	 edi
  000df	6a 02		 push	 2
  000e1	68 00 00 00 00	 push	 OFFSET ??_C@_00CNPNBAHC@?$AA@
  000e6	68 00 00 00 00	 push	 OFFSET ??_C@_0CH@MEKPMAKH@ItemMaterialCompoundWnd?3?3RenderF@
  000eb	ff d3		 call	 ebx
  000ed	8b c8		 mov	 ecx, eax
  000ef	ff 15 00 00 00
	00		 call	 DWORD PTR __imp_?GetString@ioStringManager@@QAEPADPBD0HW4FileNamePrefix@1@@Z
  000f5	f3 0f 10 05 00
	00 00 00	 movss	 xmm0, DWORD PTR __real@3f19999a
  000fd	50		 push	 eax
  000fe	51		 push	 ecx
  000ff	8d 4d cc	 lea	 ecx, DWORD PTR _kPrinter$[ebp]
  00102	f3 0f 11 04 24	 movss	 DWORD PTR [esp], xmm0
  00107	e8 00 00 00 00	 call	 ?AddTextPiece@ioComplexStringPrinter@@QAEXMPBDH@Z ; ioComplexStringPrinter::AddTextPiece

; 389  : 	kPrinter.PrintFullText( iXPos + TEXT_X_OFFSET, iYPos + TEXT_Y_OFFSET, TAT_CENTER );

  0010c	8b 45 0c	 mov	 eax, DWORD PTR _iYPos$[ebp]
  0010f	8b 5d 08	 mov	 ebx, DWORD PTR _iXPos$[ebp]
  00112	68 ff 00 00 00	 push	 255			; 000000ffH
  00117	6a 01		 push	 1
  00119	51		 push	 ecx
  0011a	05 76 01 00 00	 add	 eax, 374		; 00000176H
  0011f	0f 57 c0	 xorps	 xmm0, xmm0
  00122	f3 0f 2a c0	 cvtsi2ss xmm0, eax
  00126	51		 push	 ecx
  00127	f3 0f 11 44 24
	04		 movss	 DWORD PTR [esp+4], xmm0
  0012d	8d 83 82 00 00
	00		 lea	 eax, DWORD PTR [ebx+130]
  00133	0f 57 c0	 xorps	 xmm0, xmm0
  00136	f3 0f 2a c0	 cvtsi2ss xmm0, eax
  0013a	8d 4d cc	 lea	 ecx, DWORD PTR _kPrinter$[ebp]
  0013d	f3 0f 11 04 24	 movss	 DWORD PTR [esp], xmm0
  00142	e8 00 00 00 00	 call	 ?PrintFullText@ioComplexStringPrinter@@QAEXMMW4TextAlignType@@E@Z ; ioComplexStringPrinter::PrintFullText

; 390  : 	kPrinter.ClearList();

  00147	8d 4d cc	 lea	 ecx, DWORD PTR _kPrinter$[ebp]
  0014a	e8 00 00 00 00	 call	 ?ClearList@ioComplexStringPrinter@@QAEXXZ ; ioComplexStringPrinter::ClearList

; 391  : 
; 392  : 	//게이지
; 393  : 	int nGaugeWidth = m_pGauge->GetWidth() * (float)min( FLOAT1, m_fFailExpRate );

  0014f	b8 01 00 00 00	 mov	 eax, 1
  00154	d9 86 a8 01 00
	00		 fld	 DWORD PTR [esi+424]
  0015a	89 45 ec	 mov	 DWORD PTR tv320[ebp], eax
  0015d	d9 5d 08	 fstp	 DWORD PTR tv310[ebp]
  00160	db 45 ec	 fild	 DWORD PTR tv320[ebp]
  00163	85 c0		 test	 eax, eax
  00165	79 06		 jns	 SHORT $LN16@RenderFail
  00167	d8 05 00 00 00
	00		 fadd	 DWORD PTR __real@4f800000
$LN16@RenderFail:
  0016d	d9 45 08	 fld	 DWORD PTR tv310[ebp]
  00170	df f1		 fcomip	 ST(1)
  00172	dd d8		 fstp	 ST(0)
  00174	76 1a		 jbe	 SHORT $LN5@RenderFail
  00176	b8 01 00 00 00	 mov	 eax, 1
  0017b	89 45 08	 mov	 DWORD PTR tv311[ebp], eax
  0017e	db 45 08	 fild	 DWORD PTR tv311[ebp]
  00181	85 c0		 test	 eax, eax
  00183	79 06		 jns	 SHORT $LN17@RenderFail
  00185	d8 05 00 00 00
	00		 fadd	 DWORD PTR __real@4f800000
$LN17@RenderFail:
  0018b	d9 5d 08	 fstp	 DWORD PTR tv182[ebp]
  0018e	eb 0a		 jmp	 SHORT $LN6@RenderFail
$LN5@RenderFail:
  00190	f3 0f 10 45 08	 movss	 xmm0, DWORD PTR tv310[ebp]
  00195	f3 0f 11 45 08	 movss	 DWORD PTR tv182[ebp], xmm0
$LN6@RenderFail:
  0019a	8b 8e 70 01 00
	00		 mov	 ecx, DWORD PTR [esi+368]
  001a0	ff 15 00 00 00
	00		 call	 DWORD PTR __imp_?GetWidth@ioUIRenderElement@@QBEHXZ
  001a6	f3 0f 10 4d 08	 movss	 xmm1, DWORD PTR tv182[ebp]

; 394  : 	m_pGaugeMainBack->Render( iXPos + GAUGE_X_OFFSET - GAUGE_BACK_OFFSET, iYPos + GAUGE_Y_OFFSET - GAUGE_BACK_OFFSET );

  001ab	8b 8e 68 01 00
	00		 mov	 ecx, DWORD PTR [esi+360]
  001b1	0f 57 c0	 xorps	 xmm0, xmm0
  001b4	f3 0f 2a c0	 cvtsi2ss xmm0, eax
  001b8	57		 push	 edi
  001b9	0f 5a c0	 cvtps2pd xmm0, xmm0
  001bc	57		 push	 edi
  001bd	57		 push	 edi
  001be	0f 5a c9	 cvtps2pd xmm1, xmm1
  001c1	f2 0f 59 c1	 mulsd	 xmm0, xmm1
  001c5	f2 0f 2c c0	 cvttsd2si eax, xmm0
  001c9	89 45 08	 mov	 DWORD PTR _nGaugeWidth$[ebp], eax
  001cc	8b 45 0c	 mov	 eax, DWORD PTR _iYPos$[ebp]
  001cf	57		 push	 edi
  001d0	05 86 01 00 00	 add	 eax, 390		; 00000186H
  001d5	0f 57 c0	 xorps	 xmm0, xmm0
  001d8	f3 0f 2a c0	 cvtsi2ss xmm0, eax
  001dc	8b 01		 mov	 eax, DWORD PTR [ecx]
  001de	51		 push	 ecx
  001df	51		 push	 ecx
  001e0	f3 0f 11 44 24
	04		 movss	 DWORD PTR [esp+4], xmm0
  001e6	f3 0f 11 45 ec	 movss	 DWORD PTR tv339[ebp], xmm0
  001eb	8d 53 37	 lea	 edx, DWORD PTR [ebx+55]
  001ee	0f 57 c0	 xorps	 xmm0, xmm0
  001f1	f3 0f 2a c2	 cvtsi2ss xmm0, edx
  001f5	f3 0f 11 04 24	 movss	 DWORD PTR [esp], xmm0
  001fa	ff 10		 call	 DWORD PTR [eax]

; 395  : 	m_pGaugeBack->Render( iXPos + GAUGE_X_OFFSET, iYPos + GAUGE_Y_OFFSET );

  001fc	8b 8e 6c 01 00
	00		 mov	 ecx, DWORD PTR [esi+364]
  00202	8b 45 0c	 mov	 eax, DWORD PTR _iYPos$[ebp]
  00205	57		 push	 edi
  00206	57		 push	 edi
  00207	57		 push	 edi
  00208	05 88 01 00 00	 add	 eax, 392		; 00000188H
  0020d	57		 push	 edi
  0020e	0f 57 c0	 xorps	 xmm0, xmm0
  00211	f3 0f 2a c0	 cvtsi2ss xmm0, eax
  00215	51		 push	 ecx
  00216	8d 43 39	 lea	 eax, DWORD PTR [ebx+57]
  00219	51		 push	 ecx
  0021a	0f 57 c9	 xorps	 xmm1, xmm1
  0021d	f3 0f 2a c8	 cvtsi2ss xmm1, eax
  00221	8b 01		 mov	 eax, DWORD PTR [ecx]
  00223	f3 0f 11 44 24
	04		 movss	 DWORD PTR [esp+4], xmm0
  00229	f3 0f 11 45 0c	 movss	 DWORD PTR tv349[ebp], xmm0
  0022e	f3 0f 11 4d f0	 movss	 DWORD PTR tv351[ebp], xmm1
  00233	f3 0f 11 0c 24	 movss	 DWORD PTR [esp], xmm1
  00238	ff 10		 call	 DWORD PTR [eax]

; 396  : 	m_pGauge->RenderWidthCut( iXPos + GAUGE_X_OFFSET, iYPos + GAUGE_Y_OFFSET, 0, nGaugeWidth );

  0023a	f3 0f 10 45 0c	 movss	 xmm0, DWORD PTR tv349[ebp]
  0023f	57		 push	 edi
  00240	57		 push	 edi
  00241	57		 push	 edi
  00242	ff 75 08	 push	 DWORD PTR _nGaugeWidth$[ebp]
  00245	57		 push	 edi
  00246	51		 push	 ecx
  00247	51		 push	 ecx
  00248	8b 8e 70 01 00
	00		 mov	 ecx, DWORD PTR [esi+368]
  0024e	f3 0f 11 44 24
	04		 movss	 DWORD PTR [esp+4], xmm0
  00254	f3 0f 10 45 f0	 movss	 xmm0, DWORD PTR tv351[ebp]
  00259	f3 0f 11 04 24	 movss	 DWORD PTR [esp], xmm0
  0025e	ff 15 00 00 00
	00		 call	 DWORD PTR __imp_?RenderWidthCut@ioUIRenderImage@@QAEXMMHHW4UIRenderType@@W4TextureFilterOption@@0@Z

; 397  : 	m_pManualMark->Render( iXPos + MANUAL_X_OFFSET, iYPos + MANUAL_Y_OFFSET, UI_RENDER_NORMAL_ADD_COLOR );

  00264	8b 8e 64 01 00
	00		 mov	 ecx, DWORD PTR [esi+356]
  0026a	f3 0f 10 45 ec	 movss	 xmm0, DWORD PTR tv339[ebp]
  0026f	8b 01		 mov	 eax, DWORD PTR [ecx]
  00271	57		 push	 edi
  00272	57		 push	 edi
  00273	57		 push	 edi
  00274	6a 04		 push	 4
  00276	51		 push	 ecx
  00277	51		 push	 ecx
  00278	f3 0f 11 44 24
	04		 movss	 DWORD PTR [esp+4], xmm0
  0027e	81 c3 cf 00 00
	00		 add	 ebx, 207		; 000000cfH
  00284	0f 57 c0	 xorps	 xmm0, xmm0
  00287	f3 0f 2a c3	 cvtsi2ss xmm0, ebx
  0028b	f3 0f 11 04 24	 movss	 DWORD PTR [esp], xmm0
  00290	ff 10		 call	 DWORD PTR [eax]

; 398  : }

  00292	83 4d fc ff	 or	 DWORD PTR __$EHRec$[ebp+8], -1
  00296	8d 4d cc	 lea	 ecx, DWORD PTR _kPrinter$[ebp]
  00299	e8 00 00 00 00	 call	 ??1ioComplexStringPrinter@@QAE@XZ ; ioComplexStringPrinter::~ioComplexStringPrinter
$LN1@RenderFail:
  0029e	e8 00 00 00 00	 call	 __EH_epilog3
  002a3	c2 08 00	 ret	 8
_TEXT	ENDS
;	COMDAT text$x
text$x	SEGMENT
__unwindfunclet$?RenderFailExp@ItemMaterialCompoundWnd@@IAEXHH@Z$0:
  00000	8d 4d cc	 lea	 ecx, DWORD PTR _kPrinter$[ebp]
  00003	e9 00 00 00 00	 jmp	 ??1ioComplexStringPrinter@@QAE@XZ ; ioComplexStringPrinter::~ioComplexStringPrinter
__ehhandler$?RenderFailExp@ItemMaterialCompoundWnd@@IAEXHH@Z:
  00008	8b 54 24 08	 mov	 edx, DWORD PTR [esp+8]
  0000c	8d 42 0c	 lea	 eax, DWORD PTR [edx+12]
  0000f	8b 4a c8	 mov	 ecx, DWORD PTR [edx-56]
  00012	33 c8		 xor	 ecx, eax
  00014	e8 00 00 00 00	 call	 @__security_check_cookie@4
  00019	b8 00 00 00 00	 mov	 eax, OFFSET __ehfuncinfo$?RenderFailExp@ItemMaterialCompoundWnd@@IAEXHH@Z
  0001e	e9 00 00 00 00	 jmp	 ___CxxFrameHandler3
text$x	ENDS
?RenderFailExp@ItemMaterialCompoundWnd@@IAEXHH@Z ENDP	; ItemMaterialCompoundWnd::RenderFailExp
PUBLIC	?ShowWndWithEtcItemCode@ItemMaterialCompoundWnd@@QAEXK@Z ; ItemMaterialCompoundWnd::ShowWndWithEtcItemCode
EXTRN	__imp_?ShowWnd@ioWnd@@QAEXXZ:PROC
; Function compile flags: /Ogsp
;	COMDAT ?ShowWndWithEtcItemCode@ItemMaterialCompoundWnd@@QAEXK@Z
_TEXT	SEGMENT
_dwCode$ = 8						; size = 4
?ShowWndWithEtcItemCode@ItemMaterialCompoundWnd@@QAEXK@Z PROC ; ItemMaterialCompoundWnd::ShowWndWithEtcItemCode, COMDAT
; _this$ = ecx

; 462  : {

  00000	55		 push	 ebp
  00001	8b ec		 mov	 ebp, esp

; 463  : 	m_dwEtcItemCode = dwCode;

  00003	8b 45 08	 mov	 eax, DWORD PTR _dwCode$[ebp]
  00006	89 81 b4 01 00
	00		 mov	 DWORD PTR [ecx+436], eax

; 464  : 
; 465  : 	ShowWnd();

  0000c	ff 15 00 00 00
	00		 call	 DWORD PTR __imp_?ShowWnd@ioWnd@@QAEXXZ

; 466  : }

  00012	5d		 pop	 ebp
  00013	c2 04 00	 ret	 4
?ShowWndWithEtcItemCode@ItemMaterialCompoundWnd@@QAEXK@Z ENDP ; ItemMaterialCompoundWnd::ShowWndWithEtcItemCode
_TEXT	ENDS
PUBLIC	??1EXTRAITEMSLOT@@QAE@XZ			; EXTRAITEMSLOT::~EXTRAITEMSLOT
EXTRN	__imp_??1ioHashString@@QAE@XZ:PROC
;	COMDAT xdata$x
xdata$x	SEGMENT
__unwindtable$??1EXTRAITEMSLOT@@QAE@XZ DD 0ffffffffH
	DD	FLAT:__unwindfunclet$??1EXTRAITEMSLOT@@QAE@XZ$0
__ehfuncinfo$??1EXTRAITEMSLOT@@QAE@XZ DD 019930522H
	DD	01H
	DD	FLAT:__unwindtable$??1EXTRAITEMSLOT@@QAE@XZ
	DD	2 DUP(00H)
	DD	2 DUP(00H)
	DD	00H
	DD	01H
; Function compile flags: /Ogsp
xdata$x	ENDS
;	COMDAT ??1EXTRAITEMSLOT@@QAE@XZ
_TEXT	SEGMENT
_this$ = -16						; size = 4
__$EHRec$ = -12						; size = 12
??1EXTRAITEMSLOT@@QAE@XZ PROC				; EXTRAITEMSLOT::~EXTRAITEMSLOT, COMDAT
; _this$ = ecx
  00000	6a 04		 push	 4
  00002	b8 00 00 00 00	 mov	 eax, __ehhandler$??1EXTRAITEMSLOT@@QAE@XZ
  00007	e8 00 00 00 00	 call	 __EH_prolog3
  0000c	8b f9		 mov	 edi, ecx
  0000e	89 7d f0	 mov	 DWORD PTR _this$[ebp], edi
  00011	8b 35 00 00 00
	00		 mov	 esi, DWORD PTR __imp_??1ioHashString@@QAE@XZ
  00017	83 65 fc 00	 and	 DWORD PTR __$EHRec$[ebp+8], 0
  0001b	8d 4f 38	 lea	 ecx, DWORD PTR [edi+56]
  0001e	ff d6		 call	 esi
  00020	83 4d fc ff	 or	 DWORD PTR __$EHRec$[ebp+8], -1
  00024	8d 4f 28	 lea	 ecx, DWORD PTR [edi+40]
  00027	ff d6		 call	 esi
  00029	e8 00 00 00 00	 call	 __EH_epilog3
  0002e	c3		 ret	 0
_TEXT	ENDS
;	COMDAT text$x
text$x	SEGMENT
__unwindfunclet$??1EXTRAITEMSLOT@@QAE@XZ$0:
  00000	8b 4d f0	 mov	 ecx, DWORD PTR _this$[ebp]
  00003	83 c1 28	 add	 ecx, 40			; 00000028H
  00006	ff 25 00 00 00
	00		 jmp	 DWORD PTR __imp_??1ioHashString@@QAE@XZ
__ehhandler$??1EXTRAITEMSLOT@@QAE@XZ:
  0000c	8b 54 24 08	 mov	 edx, DWORD PTR [esp+8]
  00010	8d 42 0c	 lea	 eax, DWORD PTR [edx+12]
  00013	8b 4a ec	 mov	 ecx, DWORD PTR [edx-20]
  00016	33 c8		 xor	 ecx, eax
  00018	e8 00 00 00 00	 call	 @__security_check_cookie@4
  0001d	b8 00 00 00 00	 mov	 eax, OFFSET __ehfuncinfo$??1EXTRAITEMSLOT@@QAE@XZ
  00022	e9 00 00 00 00	 jmp	 ___CxxFrameHandler3
text$x	ENDS
??1EXTRAITEMSLOT@@QAE@XZ ENDP				; EXTRAITEMSLOT::~EXTRAITEMSLOT
PUBLIC	?TargetItemInit@ItemMaterialCompoundWnd@@IAEXXZ	; ItemMaterialCompoundWnd::TargetItemInit
EXTRN	__imp_?SetChildInActive@ioWnd@@QAEXK@Z:PROC
EXTRN	?SetIcon@InventoryIconBtn@@QAE_NPAVioUIRenderImage@@MMHW4NumberType@1@@Z:PROC ; InventoryIconBtn::SetIcon
EXTRN	?InitData@SelectExtraItemBtn@@QAEXXZ:PROC	; SelectExtraItemBtn::InitData
; Function compile flags: /Ogsp
;	COMDAT ?TargetItemInit@ItemMaterialCompoundWnd@@IAEXXZ
_TEXT	SEGMENT
tv160 = -4						; size = 4
tv140 = -4						; size = 4
?TargetItemInit@ItemMaterialCompoundWnd@@IAEXXZ PROC	; ItemMaterialCompoundWnd::TargetItemInit, COMDAT
; _this$ = ecx

; 566  : {

  00000	55		 push	 ebp
  00001	8b ec		 mov	 ebp, esp
  00003	51		 push	 ecx
  00004	53		 push	 ebx
  00005	56		 push	 esi

; 567  : 	SelectExtraItemBtn *pTarget = (SelectExtraItemBtn*)(FindChildWnd(ID_TARGETITEM_BTN));

  00006	8b 35 00 00 00
	00		 mov	 esi, DWORD PTR __imp_?FindChildWnd@ioWnd@@QAEPAV1@K@Z
  0000c	6a 0b		 push	 11			; 0000000bH
  0000e	8b d9		 mov	 ebx, ecx
  00010	ff d6		 call	 esi

; 568  : 	if( pTarget )

  00012	85 c0		 test	 eax, eax
  00014	74 07		 je	 SHORT $LN2@TargetItem

; 569  : 		pTarget->InitData();

  00016	8b c8		 mov	 ecx, eax
  00018	e8 00 00 00 00	 call	 ?InitData@SelectExtraItemBtn@@QAEXXZ ; SelectExtraItemBtn::InitData
$LN2@TargetItem:

; 570  : 
; 571  : 	InventoryIconBtn *pTargetIconBtn = (InventoryIconBtn*)(FindChildWnd(ID_TARGET_ICON));

  0001d	68 c9 00 00 00	 push	 201			; 000000c9H
  00022	8b cb		 mov	 ecx, ebx
  00024	ff d6		 call	 esi
  00026	8b c8		 mov	 ecx, eax

; 572  : 	if( pTargetIconBtn )

  00028	85 c9		 test	 ecx, ecx
  0002a	74 40		 je	 SHORT $LN1@TargetItem

; 573  : 		pTargetIconBtn->SetIcon( NULL, FLOAT1, FLOAT1 );

  0002c	b8 01 00 00 00	 mov	 eax, 1
  00031	8b d0		 mov	 edx, eax
  00033	b8 01 00 00 00	 mov	 eax, 1
  00038	6a 00		 push	 0
  0003a	89 55 fc	 mov	 DWORD PTR tv160[ebp], edx
  0003d	db 45 fc	 fild	 DWORD PTR tv160[ebp]
  00040	6a 00		 push	 0
  00042	85 d2		 test	 edx, edx
  00044	79 06		 jns	 SHORT $LN9@TargetItem
  00046	d8 05 00 00 00
	00		 fadd	 DWORD PTR __real@4f800000
$LN9@TargetItem:
  0004c	51		 push	 ecx
  0004d	51		 push	 ecx
  0004e	89 45 fc	 mov	 DWORD PTR tv140[ebp], eax
  00051	d9 5c 24 04	 fstp	 DWORD PTR [esp+4]
  00055	db 45 fc	 fild	 DWORD PTR tv140[ebp]
  00058	85 c0		 test	 eax, eax
  0005a	79 06		 jns	 SHORT $LN10@TargetItem
  0005c	d8 05 00 00 00
	00		 fadd	 DWORD PTR __real@4f800000
$LN10@TargetItem:
  00062	d9 1c 24	 fstp	 DWORD PTR [esp]
  00065	6a 00		 push	 0
  00067	e8 00 00 00 00	 call	 ?SetIcon@InventoryIconBtn@@QAE_NPAVioUIRenderImage@@MMHW4NumberType@1@@Z ; InventoryIconBtn::SetIcon
$LN1@TargetItem:

; 574  : 
; 575  : 	SetChildInActive( ID_MATERIALITEM_BTN );

  0006c	6a 0c		 push	 12			; 0000000cH
  0006e	8b cb		 mov	 ecx, ebx
  00070	ff 15 00 00 00
	00		 call	 DWORD PTR __imp_?SetChildInActive@ioWnd@@QAEXK@Z
  00076	5e		 pop	 esi
  00077	5b		 pop	 ebx

; 576  : }

  00078	c9		 leave
  00079	c3		 ret	 0
?TargetItemInit@ItemMaterialCompoundWnd@@IAEXXZ ENDP	; ItemMaterialCompoundWnd::TargetItemInit
_TEXT	ENDS
PUBLIC	?_Adopt@_Iterator_base0@std@@QAEXPBX@Z		; std::_Iterator_base0::_Adopt
; Function compile flags: /Ogsp
; File c:\program files (x86)\microsoft visual studio 10.0\vc\include\xutility
;	COMDAT ?_Adopt@_Iterator_base0@std@@QAEXPBX@Z
_TEXT	SEGMENT
___formal$ = 8						; size = 4
?_Adopt@_Iterator_base0@std@@QAEXPBX@Z PROC		; std::_Iterator_base0::_Adopt, COMDAT
; _this$ = ecx

; 49   : 		}

  00000	c2 04 00	 ret	 4
?_Adopt@_Iterator_base0@std@@QAEXPBX@Z ENDP		; std::_Iterator_base0::_Adopt
_TEXT	ENDS
PUBLIC	??1NewShopPullDownItem@@QAE@XZ			; NewShopPullDownItem::~NewShopPullDownItem
;	COMDAT xdata$x
xdata$x	SEGMENT
__unwindtable$??1NewShopPullDownItem@@QAE@XZ DD 0ffffffffH
	DD	FLAT:__unwindfunclet$??1NewShopPullDownItem@@QAE@XZ$0
	DD	00H
	DD	FLAT:__unwindfunclet$??1NewShopPullDownItem@@QAE@XZ$1
__ehfuncinfo$??1NewShopPullDownItem@@QAE@XZ DD 019930522H
	DD	02H
	DD	FLAT:__unwindtable$??1NewShopPullDownItem@@QAE@XZ
	DD	2 DUP(00H)
	DD	2 DUP(00H)
	DD	00H
	DD	01H
; Function compile flags: /Ogsp
xdata$x	ENDS
;	COMDAT ??1NewShopPullDownItem@@QAE@XZ
_TEXT	SEGMENT
_this$ = -16						; size = 4
__$EHRec$ = -12						; size = 12
??1NewShopPullDownItem@@QAE@XZ PROC			; NewShopPullDownItem::~NewShopPullDownItem, COMDAT
; _this$ = ecx
  00000	6a 04		 push	 4
  00002	b8 00 00 00 00	 mov	 eax, __ehhandler$??1NewShopPullDownItem@@QAE@XZ
  00007	e8 00 00 00 00	 call	 __EH_prolog3
  0000c	8b f9		 mov	 edi, ecx
  0000e	89 7d f0	 mov	 DWORD PTR _this$[ebp], edi
  00011	8b 35 00 00 00
	00		 mov	 esi, DWORD PTR __imp_??1ioHashString@@QAE@XZ
  00017	8d 4f 3c	 lea	 ecx, DWORD PTR [edi+60]
  0001a	c7 45 fc 01 00
	00 00		 mov	 DWORD PTR __$EHRec$[ebp+8], 1
  00021	ff d6		 call	 esi
  00023	8d 4f 24	 lea	 ecx, DWORD PTR [edi+36]
  00026	c6 45 fc 00	 mov	 BYTE PTR __$EHRec$[ebp+8], 0
  0002a	ff d6		 call	 esi
  0002c	83 4d fc ff	 or	 DWORD PTR __$EHRec$[ebp+8], -1
  00030	8b cf		 mov	 ecx, edi
  00032	ff d6		 call	 esi
  00034	e8 00 00 00 00	 call	 __EH_epilog3
  00039	c3		 ret	 0
_TEXT	ENDS
;	COMDAT text$x
text$x	SEGMENT
__unwindfunclet$??1NewShopPullDownItem@@QAE@XZ$0:
  00000	8b 4d f0	 mov	 ecx, DWORD PTR _this$[ebp]
  00003	ff 25 00 00 00
	00		 jmp	 DWORD PTR __imp_??1ioHashString@@QAE@XZ
__unwindfunclet$??1NewShopPullDownItem@@QAE@XZ$1:
  00009	8b 4d f0	 mov	 ecx, DWORD PTR _this$[ebp]
  0000c	83 c1 24	 add	 ecx, 36			; 00000024H
  0000f	ff 25 00 00 00
	00		 jmp	 DWORD PTR __imp_??1ioHashString@@QAE@XZ
__ehhandler$??1NewShopPullDownItem@@QAE@XZ:
  00015	8b 54 24 08	 mov	 edx, DWORD PTR [esp+8]
  00019	8d 42 0c	 lea	 eax, DWORD PTR [edx+12]
  0001c	8b 4a ec	 mov	 ecx, DWORD PTR [edx-20]
  0001f	33 c8		 xor	 ecx, eax
  00021	e8 00 00 00 00	 call	 @__security_check_cookie@4
  00026	b8 00 00 00 00	 mov	 eax, OFFSET __ehfuncinfo$??1NewShopPullDownItem@@QAE@XZ
  0002b	e9 00 00 00 00	 jmp	 ___CxxFrameHandler3
text$x	ENDS
??1NewShopPullDownItem@@QAE@XZ ENDP			; NewShopPullDownItem::~NewShopPullDownItem
PUBLIC	?ApplySuccessRate@ItemMaterialCompoundWnd@@IAEXXZ ; ItemMaterialCompoundWnd::ApplySuccessRate
EXTRN	?GetPCRoomBonusReinforceSuccessRate@ioItemCompoundMaterialManager@@QAEHHK@Z:PROC ; ioItemCompoundMaterialManager::GetPCRoomBonusReinforceSuccessRate
EXTRN	?GetReinforceSuccessRate@ioItemCompoundMaterialManager@@QAEHHK@Z:PROC ; ioItemCompoundMaterialManager::GetReinforceSuccessRate
EXTRN	?GetSuccessConst@ioItemCompoundMaterialManager@@QAEHK@Z:PROC ; ioItemCompoundMaterialManager::GetSuccessConst
EXTRN	?GetSingleton@ioItemCompoundMaterialManager@@SAAAV1@XZ:PROC ; ioItemCompoundMaterialManager::GetSingleton
; Function compile flags: /Ogsp
; File d:\lost saga for developer\youtube\tutorial\source\src\lsclient\gui\itemmaterialcompoundwnd.cpp
;	COMDAT ?ApplySuccessRate@ItemMaterialCompoundWnd@@IAEXXZ
_TEXT	SEGMENT
tv250 = -8						; size = 4
tv241 = -8						; size = 4
tv274 = -4						; size = 4
tv270 = -4						; size = 4
tv266 = -4						; size = 4
tv264 = -4						; size = 4
tv162 = -4						; size = 4
_fSuccessRate$ = -4					; size = 4
?ApplySuccessRate@ItemMaterialCompoundWnd@@IAEXXZ PROC	; ItemMaterialCompoundWnd::ApplySuccessRate, COMDAT
; _this$ = ecx

; 1009 : {	

  00000	55		 push	 ebp
  00001	8b ec		 mov	 ebp, esp
  00003	51		 push	 ecx
  00004	51		 push	 ecx

; 1010 : 	float fSuccessRate = 0.0f;

  00005	0f 57 c0	 xorps	 xmm0, xmm0
  00008	56		 push	 esi
  00009	8b f1		 mov	 esi, ecx

; 1011 : 
; 1012 : 	//최대 실패경험치가 존재할 때
; 1013 : 	if ( m_nMaxFailExp > 0 )

  0000b	8b 86 a0 01 00
	00		 mov	 eax, DWORD PTR [esi+416]
  00011	57		 push	 edi
  00012	f3 0f 11 45 fc	 movss	 DWORD PTR _fSuccessRate$[ebp], xmm0
  00017	85 c0		 test	 eax, eax
  00019	7e 4c		 jle	 SHORT $LN19@ApplySucce

; 1014 : 	{
; 1015 : 		//성공율 얻기
; 1016 : 		fSuccessRate = g_CompoundMaterialMgr.GetSuccessConst( m_dwEtcItemCode );

  0001b	ff b6 b4 01 00
	00		 push	 DWORD PTR [esi+436]
  00021	e8 00 00 00 00	 call	 ?GetSingleton@ioItemCompoundMaterialManager@@SAAAV1@XZ ; ioItemCompoundMaterialManager::GetSingleton
  00026	8b c8		 mov	 ecx, eax
  00028	e8 00 00 00 00	 call	 ?GetSuccessConst@ioItemCompoundMaterialManager@@QAEHK@Z ; ioItemCompoundMaterialManager::GetSuccessConst
  0002d	89 45 fc	 mov	 DWORD PTR tv274[ebp], eax
  00030	db 45 fc	 fild	 DWORD PTR tv274[ebp]
  00033	d9 5d fc	 fstp	 DWORD PTR _fSuccessRate$[ebp]

; 1017 : 		fSuccessRate = ((float)( m_nCurFailExp + fSuccessRate ) / m_nMaxFailExp * FLOAT100 );

  00036	b8 64 00 00 00	 mov	 eax, 100		; 00000064H
  0003b	db 86 a4 01 00
	00		 fild	 DWORD PTR [esi+420]
  00041	d8 45 fc	 fadd	 DWORD PTR _fSuccessRate$[ebp]
  00044	d9 5d fc	 fstp	 DWORD PTR tv270[ebp]
  00047	d9 45 fc	 fld	 DWORD PTR tv270[ebp]
  0004a	89 45 fc	 mov	 DWORD PTR tv264[ebp], eax
  0004d	da b6 a0 01 00
	00		 fidiv	 DWORD PTR [esi+416]
  00053	db 45 fc	 fild	 DWORD PTR tv264[ebp]
  00056	85 c0		 test	 eax, eax
  00058	79 06		 jns	 SHORT $LN16@ApplySucce
  0005a	d8 05 00 00 00
	00		 fadd	 DWORD PTR __real@4f800000
$LN16@ApplySucce:
  00060	de c9		 fmulp	 ST(1), ST(0)
  00062	d9 5d fc	 fstp	 DWORD PTR _fSuccessRate$[ebp]
  00065	eb 26		 jmp	 SHORT $LN1@ApplySucce
$LN19@ApplySucce:

; 1018 : 	}
; 1019 : 	else if ( m_nMaxFailExp == 0 )

  00067	75 24		 jne	 SHORT $LN1@ApplySucce

; 1020 : 		fSuccessRate = g_CompoundMaterialMgr.GetReinforceSuccessRate( m_nCurReinforce, m_dwEtcItemCode );

  00069	ff b6 b4 01 00
	00		 push	 DWORD PTR [esi+436]
  0006f	ff b6 88 01 00
	00		 push	 DWORD PTR [esi+392]
  00075	e8 00 00 00 00	 call	 ?GetSingleton@ioItemCompoundMaterialManager@@SAAAV1@XZ ; ioItemCompoundMaterialManager::GetSingleton
  0007a	8b c8		 mov	 ecx, eax
  0007c	e8 00 00 00 00	 call	 ?GetReinforceSuccessRate@ioItemCompoundMaterialManager@@QAEHHK@Z ; ioItemCompoundMaterialManager::GetReinforceSuccessRate
  00081	0f 57 c0	 xorps	 xmm0, xmm0
  00084	f3 0f 2a c0	 cvtsi2ss xmm0, eax
  00088	f3 0f 11 45 fc	 movss	 DWORD PTR _fSuccessRate$[ebp], xmm0
$LN1@ApplySucce:

; 1021 : 
; 1022 : 	fSuccessRate += g_CompoundMaterialMgr.GetPCRoomBonusReinforceSuccessRate( m_nCurReinforce, m_dwEtcItemCode );

  0008d	ff b6 b4 01 00
	00		 push	 DWORD PTR [esi+436]
  00093	ff b6 88 01 00
	00		 push	 DWORD PTR [esi+392]
  00099	e8 00 00 00 00	 call	 ?GetSingleton@ioItemCompoundMaterialManager@@SAAAV1@XZ ; ioItemCompoundMaterialManager::GetSingleton
  0009e	8b c8		 mov	 ecx, eax
  000a0	e8 00 00 00 00	 call	 ?GetPCRoomBonusReinforceSuccessRate@ioItemCompoundMaterialManager@@QAEHHK@Z ; ioItemCompoundMaterialManager::GetPCRoomBonusReinforceSuccessRate

; 1023 : 
; 1024 : 	m_fSuccessRate = fSuccessRate;

  000a5	f3 0f 10 4d fc	 movss	 xmm1, DWORD PTR _fSuccessRate$[ebp]
  000aa	0f 57 c0	 xorps	 xmm0, xmm0
  000ad	f3 0f 2a c0	 cvtsi2ss xmm0, eax
  000b1	0f 5a c0	 cvtps2pd xmm0, xmm0
  000b4	0f 5a c9	 cvtps2pd xmm1, xmm1
  000b7	f2 0f 58 c1	 addsd	 xmm0, xmm1
  000bb	66 0f 5a c0	 cvtpd2ps xmm0, xmm0
  000bf	f3 0f 11 86 8c
	01 00 00	 movss	 DWORD PTR [esi+396], xmm0

; 1025 : 
; 1026 : 	m_fSuccessRate = min( FLOAT100, m_fSuccessRate );

  000c7	b8 64 00 00 00	 mov	 eax, 100		; 00000064H
  000cc	d9 86 8c 01 00
	00		 fld	 DWORD PTR [esi+396]
  000d2	89 45 f8	 mov	 DWORD PTR tv250[ebp], eax
  000d5	d9 5d fc	 fstp	 DWORD PTR tv266[ebp]
  000d8	db 45 f8	 fild	 DWORD PTR tv250[ebp]
  000db	85 c0		 test	 eax, eax
  000dd	79 06		 jns	 SHORT $LN17@ApplySucce
  000df	d8 05 00 00 00
	00		 fadd	 DWORD PTR __real@4f800000
$LN17@ApplySucce:
  000e5	d9 45 fc	 fld	 DWORD PTR tv266[ebp]
  000e8	df f1		 fcomip	 ST(1)
  000ea	dd d8		 fstp	 ST(0)
  000ec	76 1f		 jbe	 SHORT $LN6@ApplySucce
  000ee	b8 64 00 00 00	 mov	 eax, 100		; 00000064H
  000f3	89 45 f8	 mov	 DWORD PTR tv241[ebp], eax
  000f6	db 45 f8	 fild	 DWORD PTR tv241[ebp]
  000f9	85 c0		 test	 eax, eax
  000fb	79 06		 jns	 SHORT $LN18@ApplySucce
  000fd	d8 05 00 00 00
	00		 fadd	 DWORD PTR __real@4f800000
$LN18@ApplySucce:
  00103	d9 5d fc	 fstp	 DWORD PTR tv162[ebp]
  00106	f3 0f 10 45 fc	 movss	 xmm0, DWORD PTR tv162[ebp]
  0010b	eb 05		 jmp	 SHORT $LN7@ApplySucce
$LN6@ApplySucce:
  0010d	f3 0f 10 45 fc	 movss	 xmm0, DWORD PTR tv266[ebp]
$LN7@ApplySucce:

; 1027 : 	m_fSuccessRate = max( 0.0f, m_fSuccessRate );

  00112	0f 57 d2	 xorps	 xmm2, xmm2
  00115	0f 5a c8	 cvtps2pd xmm1, xmm0
  00118	66 0f 2f d1	 comisd	 xmm2, xmm1
  0011c	f3 0f 11 86 8c
	01 00 00	 movss	 DWORD PTR [esi+396], xmm0
  00124	76 03		 jbe	 SHORT $LN8@ApplySucce
  00126	0f 57 c0	 xorps	 xmm0, xmm0
$LN8@ApplySucce:
  00129	5f		 pop	 edi
  0012a	f3 0f 11 86 8c
	01 00 00	 movss	 DWORD PTR [esi+396], xmm0
  00132	5e		 pop	 esi

; 1028 : }

  00133	c9		 leave
  00134	c3		 ret	 0
?ApplySuccessRate@ItemMaterialCompoundWnd@@IAEXXZ ENDP	; ItemMaterialCompoundWnd::ApplySuccessRate
_TEXT	ENDS
PUBLIC	?GetCurAlchemicItemInfo@ItemMaterialCompoundWnd@@QAE_NAAUtagAlchemicToolTipInfo@@K@Z ; ItemMaterialCompoundWnd::GetCurAlchemicItemInfo
EXTRN	?GetCode@SelectMaterialItemBtn@@QAEHXZ:PROC	; SelectMaterialItemBtn::GetCode
; Function compile flags: /Ogsp
;	COMDAT ?GetCurAlchemicItemInfo@ItemMaterialCompoundWnd@@QAE_NAAUtagAlchemicToolTipInfo@@K@Z
_TEXT	SEGMENT
_rkInfo$ = 8						; size = 4
_dwItemInfoID$ = 12					; size = 4
?GetCurAlchemicItemInfo@ItemMaterialCompoundWnd@@QAE_NAAUtagAlchemicToolTipInfo@@K@Z PROC ; ItemMaterialCompoundWnd::GetCurAlchemicItemInfo, COMDAT
; _this$ = ecx

; 1031 : {

  00000	55		 push	 ebp
  00001	8b ec		 mov	 ebp, esp

; 1032 : 	if( COMPARE(dwItemInfoID, ID_MATERIALITEM_ICON, ID_MATERIALITEM_ICON+1) )

  00003	8b 45 0c	 mov	 eax, DWORD PTR _dwItemInfoID$[ebp]
  00006	8d 90 36 ff ff
	ff		 lea	 edx, DWORD PTR [eax-202]
  0000c	85 d2		 test	 edx, edx
  0000e	75 23		 jne	 SHORT $LN2@GetCurAlch

; 1033 : 	{
; 1034 : 		SelectMaterialItemBtn *pItem = (SelectMaterialItemBtn*)(FindChildWnd(dwItemInfoID));

  00010	50		 push	 eax
  00011	ff 15 00 00 00
	00		 call	 DWORD PTR __imp_?FindChildWnd@ioWnd@@QAEPAV1@K@Z

; 1035 : 		if( pItem )

  00017	85 c0		 test	 eax, eax
  00019	74 18		 je	 SHORT $LN2@GetCurAlch

; 1036 : 		{
; 1037 : 			int nCode = pItem->GetCode();

  0001b	8b c8		 mov	 ecx, eax
  0001d	e8 00 00 00 00	 call	 ?GetCode@SelectMaterialItemBtn@@QAEHXZ ; SelectMaterialItemBtn::GetCode

; 1038 : 			if( nCode <= 0 )

  00022	85 c0		 test	 eax, eax

; 1039 : 				return false;

  00024	7e 0d		 jle	 SHORT $LN2@GetCurAlch

; 1040 : 
; 1041 : 			rkInfo.m_iCode = nCode;

  00026	8b 4d 08	 mov	 ecx, DWORD PTR _rkInfo$[ebp]

; 1042 : 			rkInfo.m_iType = AlchemicItemToolTip::ATT_ALCHEMIC_ITEM;

  00029	83 61 04 00	 and	 DWORD PTR [ecx+4], 0
  0002d	89 01		 mov	 DWORD PTR [ecx], eax

; 1043 : 
; 1044 : 			return true;

  0002f	b0 01		 mov	 al, 1
  00031	eb 02		 jmp	 SHORT $LN4@GetCurAlch
$LN2@GetCurAlch:

; 1045 : 		}
; 1046 : 	}
; 1047 : 	return false;

  00033	32 c0		 xor	 al, al
$LN4@GetCurAlch:

; 1048 : }

  00035	5d		 pop	 ebp
  00036	c2 08 00	 ret	 8
?GetCurAlchemicItemInfo@ItemMaterialCompoundWnd@@QAE_NAAUtagAlchemicToolTipInfo@@K@Z ENDP ; ItemMaterialCompoundWnd::GetCurAlchemicItemInfo
_TEXT	ENDS
PUBLIC	?GetSingleton@?$Singleton@VioEtcItemManager@@@@SAAAVioEtcItemManager@@XZ ; Singleton<ioEtcItemManager>::GetSingleton
EXTRN	?ms_Singleton@?$Singleton@VioEtcItemManager@@@@1PAVioEtcItemManager@@A:DWORD ; Singleton<ioEtcItemManager>::ms_Singleton
; Function compile flags: /Ogsp
; File d:\lost saga for developer\youtube\tutorial\source\src\io3dengine\iosingleton.h
;	COMDAT ?GetSingleton@?$Singleton@VioEtcItemManager@@@@SAAAVioEtcItemManager@@XZ
_TEXT	SEGMENT
?GetSingleton@?$Singleton@VioEtcItemManager@@@@SAAAVioEtcItemManager@@XZ PROC ; Singleton<ioEtcItemManager>::GetSingleton, COMDAT

; 42   : 		assert( ms_Singleton );
; 43   : 		return (*ms_Singleton);

  00000	a1 00 00 00 00	 mov	 eax, DWORD PTR ?ms_Singleton@?$Singleton@VioEtcItemManager@@@@1PAVioEtcItemManager@@A ; Singleton<ioEtcItemManager>::ms_Singleton

; 44   : 	}

  00005	c3		 ret	 0
?GetSingleton@?$Singleton@VioEtcItemManager@@@@SAAAVioEtcItemManager@@XZ ENDP ; Singleton<ioEtcItemManager>::GetSingleton
_TEXT	ENDS
PUBLIC	?size@?$vector@UNewShopPullDownItem@@V?$allocator@UNewShopPullDownItem@@@std@@@std@@QBEIXZ ; std::vector<NewShopPullDownItem,std::allocator<NewShopPullDownItem> >::size
; Function compile flags: /Ogsp
; File c:\program files (x86)\microsoft visual studio 10.0\vc\include\vector
;	COMDAT ?size@?$vector@UNewShopPullDownItem@@V?$allocator@UNewShopPullDownItem@@@std@@@std@@QBEIXZ
_TEXT	SEGMENT
?size@?$vector@UNewShopPullDownItem@@V?$allocator@UNewShopPullDownItem@@@std@@@std@@QBEIXZ PROC ; std::vector<NewShopPullDownItem,std::allocator<NewShopPullDownItem> >::size, COMDAT
; _this$ = ecx

; 879  : 		return (this->_Mylast - this->_Myfirst);

  00000	8b 41 04	 mov	 eax, DWORD PTR [ecx+4]
  00003	2b 01		 sub	 eax, DWORD PTR [ecx]
  00005	6a 50		 push	 80			; 00000050H
  00007	99		 cdq
  00008	59		 pop	 ecx
  00009	f7 f9		 idiv	 ecx

; 880  : 		}

  0000b	c3		 ret	 0
?size@?$vector@UNewShopPullDownItem@@V?$allocator@UNewShopPullDownItem@@@std@@@std@@QBEIXZ ENDP ; std::vector<NewShopPullDownItem,std::allocator<NewShopPullDownItem> >::size
_TEXT	ENDS
PUBLIC	?empty@?$vector@UNewShopPullDownItem@@V?$allocator@UNewShopPullDownItem@@@std@@@std@@QBE_NXZ ; std::vector<NewShopPullDownItem,std::allocator<NewShopPullDownItem> >::empty
; Function compile flags: /Ogsp
;	COMDAT ?empty@?$vector@UNewShopPullDownItem@@V?$allocator@UNewShopPullDownItem@@@std@@@std@@QBE_NXZ
_TEXT	SEGMENT
?empty@?$vector@UNewShopPullDownItem@@V?$allocator@UNewShopPullDownItem@@@std@@@std@@QBE_NXZ PROC ; std::vector<NewShopPullDownItem,std::allocator<NewShopPullDownItem> >::empty, COMDAT
; _this$ = ecx

; 889  : 		return (this->_Myfirst == this->_Mylast);

  00000	8b 01		 mov	 eax, DWORD PTR [ecx]
  00002	2b 41 04	 sub	 eax, DWORD PTR [ecx+4]
  00005	f7 d8		 neg	 eax
  00007	1b c0		 sbb	 eax, eax
  00009	40		 inc	 eax

; 890  : 		}

  0000a	c3		 ret	 0
?empty@?$vector@UNewShopPullDownItem@@V?$allocator@UNewShopPullDownItem@@@std@@@std@@QBE_NXZ ENDP ; std::vector<NewShopPullDownItem,std::allocator<NewShopPullDownItem> >::empty
_TEXT	ENDS
PUBLIC	??A?$vector@UNewShopPullDownItem@@V?$allocator@UNewShopPullDownItem@@@std@@@std@@QAEAAUNewShopPullDownItem@@I@Z ; std::vector<NewShopPullDownItem,std::allocator<NewShopPullDownItem> >::operator[]
; Function compile flags: /Ogsp
;	COMDAT ??A?$vector@UNewShopPullDownItem@@V?$allocator@UNewShopPullDownItem@@@std@@@std@@QAEAAUNewShopPullDownItem@@I@Z
_TEXT	SEGMENT
__Pos$ = 8						; size = 4
??A?$vector@UNewShopPullDownItem@@V?$allocator@UNewShopPullDownItem@@@std@@@std@@QAEAAUNewShopPullDownItem@@I@Z PROC ; std::vector<NewShopPullDownItem,std::allocator<NewShopPullDownItem> >::operator[], COMDAT
; _this$ = ecx

; 928  : 		{	// subscript mutable sequence

  00000	55		 push	 ebp
  00001	8b ec		 mov	 ebp, esp

; 929  :  #if _ITERATOR_DEBUG_LEVEL == 2
; 930  : 		if (size() <= _Pos)
; 931  : 			{	// report error
; 932  : 			_DEBUG_ERROR("vector subscript out of range");
; 933  : 			_SCL_SECURE_OUT_OF_RANGE;
; 934  : 			}
; 935  : 
; 936  :  #elif _ITERATOR_DEBUG_LEVEL == 1
; 937  : 		_SCL_SECURE_VALIDATE_RANGE(_Pos < size());
; 938  :  #endif /* _ITERATOR_DEBUG_LEVEL */
; 939  : 
; 940  : 		return (*(this->_Myfirst + _Pos));

  00003	8b 45 08	 mov	 eax, DWORD PTR __Pos$[ebp]
  00006	6b c0 50	 imul	 eax, 80			; 00000050H
  00009	03 01		 add	 eax, DWORD PTR [ecx]

; 941  : 		}

  0000b	5d		 pop	 ebp
  0000c	c2 04 00	 ret	 4
??A?$vector@UNewShopPullDownItem@@V?$allocator@UNewShopPullDownItem@@@std@@@std@@QAEAAUNewShopPullDownItem@@I@Z ENDP ; std::vector<NewShopPullDownItem,std::allocator<NewShopPullDownItem> >::operator[]
_TEXT	ENDS
PUBLIC	?size@?$vector@UtagAlchemicItemInfo@@V?$allocator@UtagAlchemicItemInfo@@@std@@@std@@QBEIXZ ; std::vector<tagAlchemicItemInfo,std::allocator<tagAlchemicItemInfo> >::size
; Function compile flags: /Ogsp
;	COMDAT ?size@?$vector@UtagAlchemicItemInfo@@V?$allocator@UtagAlchemicItemInfo@@@std@@@std@@QBEIXZ
_TEXT	SEGMENT
?size@?$vector@UtagAlchemicItemInfo@@V?$allocator@UtagAlchemicItemInfo@@@std@@@std@@QBEIXZ PROC ; std::vector<tagAlchemicItemInfo,std::allocator<tagAlchemicItemInfo> >::size, COMDAT
; _this$ = ecx

; 879  : 		return (this->_Mylast - this->_Myfirst);

  00000	8b 41 04	 mov	 eax, DWORD PTR [ecx+4]
  00003	2b 01		 sub	 eax, DWORD PTR [ecx]
  00005	6a 1c		 push	 28			; 0000001cH
  00007	99		 cdq
  00008	59		 pop	 ecx
  00009	f7 f9		 idiv	 ecx

; 880  : 		}

  0000b	c3		 ret	 0
?size@?$vector@UtagAlchemicItemInfo@@V?$allocator@UtagAlchemicItemInfo@@@std@@@std@@QBEIXZ ENDP ; std::vector<tagAlchemicItemInfo,std::allocator<tagAlchemicItemInfo> >::size
_TEXT	ENDS
PUBLIC	??A?$vector@UtagAlchemicItemInfo@@V?$allocator@UtagAlchemicItemInfo@@@std@@@std@@QAEAAUtagAlchemicItemInfo@@I@Z ; std::vector<tagAlchemicItemInfo,std::allocator<tagAlchemicItemInfo> >::operator[]
; Function compile flags: /Ogsp
;	COMDAT ??A?$vector@UtagAlchemicItemInfo@@V?$allocator@UtagAlchemicItemInfo@@@std@@@std@@QAEAAUtagAlchemicItemInfo@@I@Z
_TEXT	SEGMENT
__Pos$ = 8						; size = 4
??A?$vector@UtagAlchemicItemInfo@@V?$allocator@UtagAlchemicItemInfo@@@std@@@std@@QAEAAUtagAlchemicItemInfo@@I@Z PROC ; std::vector<tagAlchemicItemInfo,std::allocator<tagAlchemicItemInfo> >::operator[], COMDAT
; _this$ = ecx

; 928  : 		{	// subscript mutable sequence

  00000	55		 push	 ebp
  00001	8b ec		 mov	 ebp, esp

; 929  :  #if _ITERATOR_DEBUG_LEVEL == 2
; 930  : 		if (size() <= _Pos)
; 931  : 			{	// report error
; 932  : 			_DEBUG_ERROR("vector subscript out of range");
; 933  : 			_SCL_SECURE_OUT_OF_RANGE;
; 934  : 			}
; 935  : 
; 936  :  #elif _ITERATOR_DEBUG_LEVEL == 1
; 937  : 		_SCL_SECURE_VALIDATE_RANGE(_Pos < size());
; 938  :  #endif /* _ITERATOR_DEBUG_LEVEL */
; 939  : 
; 940  : 		return (*(this->_Myfirst + _Pos));

  00003	8b 45 08	 mov	 eax, DWORD PTR __Pos$[ebp]
  00006	6b c0 1c	 imul	 eax, 28			; 0000001cH
  00009	03 01		 add	 eax, DWORD PTR [ecx]

; 941  : 		}

  0000b	5d		 pop	 ebp
  0000c	c2 04 00	 ret	 4
??A?$vector@UtagAlchemicItemInfo@@V?$allocator@UtagAlchemicItemInfo@@@std@@@std@@QAEAAUtagAlchemicItemInfo@@I@Z ENDP ; std::vector<tagAlchemicItemInfo,std::allocator<tagAlchemicItemInfo> >::operator[]
_TEXT	ENDS
PUBLIC	?size@?$vector@UMaterialCompoundTargetItemInfo@ItemMaterialCompoundWnd@@V?$allocator@UMaterialCompoundTargetItemInfo@ItemMaterialCompoundWnd@@@std@@@std@@QBEIXZ ; std::vector<ItemMaterialCompoundWnd::MaterialCompoundTargetItemInfo,std::allocator<ItemMaterialCompoundWnd::MaterialCompoundTargetItemInfo> >::size
; Function compile flags: /Ogsp
;	COMDAT ?size@?$vector@UMaterialCompoundTargetItemInfo@ItemMaterialCompoundWnd@@V?$allocator@UMaterialCompoundTargetItemInfo@ItemMaterialCompoundWnd@@@std@@@std@@QBEIXZ
_TEXT	SEGMENT
?size@?$vector@UMaterialCompoundTargetItemInfo@ItemMaterialCompoundWnd@@V?$allocator@UMaterialCompoundTargetItemInfo@ItemMaterialCompoundWnd@@@std@@@std@@QBEIXZ PROC ; std::vector<ItemMaterialCompoundWnd::MaterialCompoundTargetItemInfo,std::allocator<ItemMaterialCompoundWnd::MaterialCompoundTargetItemInfo> >::size, COMDAT
; _this$ = ecx

; 879  : 		return (this->_Mylast - this->_Myfirst);

  00000	8b 41 04	 mov	 eax, DWORD PTR [ecx+4]
  00003	2b 01		 sub	 eax, DWORD PTR [ecx]
  00005	6a 0c		 push	 12			; 0000000cH
  00007	99		 cdq
  00008	59		 pop	 ecx
  00009	f7 f9		 idiv	 ecx

; 880  : 		}

  0000b	c3		 ret	 0
?size@?$vector@UMaterialCompoundTargetItemInfo@ItemMaterialCompoundWnd@@V?$allocator@UMaterialCompoundTargetItemInfo@ItemMaterialCompoundWnd@@@std@@@std@@QBEIXZ ENDP ; std::vector<ItemMaterialCompoundWnd::MaterialCompoundTargetItemInfo,std::allocator<ItemMaterialCompoundWnd::MaterialCompoundTargetItemInfo> >::size
_TEXT	ENDS
PUBLIC	?empty@?$vector@UMaterialCompoundTargetItemInfo@ItemMaterialCompoundWnd@@V?$allocator@UMaterialCompoundTargetItemInfo@ItemMaterialCompoundWnd@@@std@@@std@@QBE_NXZ ; std::vector<ItemMaterialCompoundWnd::MaterialCompoundTargetItemInfo,std::allocator<ItemMaterialCompoundWnd::MaterialCompoundTargetItemInfo> >::empty
; Function compile flags: /Ogsp
;	COMDAT ?empty@?$vector@UMaterialCompoundTargetItemInfo@ItemMaterialCompoundWnd@@V?$allocator@UMaterialCompoundTargetItemInfo@ItemMaterialCompoundWnd@@@std@@@std@@QBE_NXZ
_TEXT	SEGMENT
?empty@?$vector@UMaterialCompoundTargetItemInfo@ItemMaterialCompoundWnd@@V?$allocator@UMaterialCompoundTargetItemInfo@ItemMaterialCompoundWnd@@@std@@@std@@QBE_NXZ PROC ; std::vector<ItemMaterialCompoundWnd::MaterialCompoundTargetItemInfo,std::allocator<ItemMaterialCompoundWnd::MaterialCompoundTargetItemInfo> >::empty, COMDAT
; _this$ = ecx

; 889  : 		return (this->_Myfirst == this->_Mylast);

  00000	8b 01		 mov	 eax, DWORD PTR [ecx]
  00002	2b 41 04	 sub	 eax, DWORD PTR [ecx+4]
  00005	f7 d8		 neg	 eax
  00007	1b c0		 sbb	 eax, eax
  00009	40		 inc	 eax

; 890  : 		}

  0000a	c3		 ret	 0
?empty@?$vector@UMaterialCompoundTargetItemInfo@ItemMaterialCompoundWnd@@V?$allocator@UMaterialCompoundTargetItemInfo@ItemMaterialCompoundWnd@@@std@@@std@@QBE_NXZ ENDP ; std::vector<ItemMaterialCompoundWnd::MaterialCompoundTargetItemInfo,std::allocator<ItemMaterialCompoundWnd::MaterialCompoundTargetItemInfo> >::empty
_TEXT	ENDS
PUBLIC	??A?$vector@UMaterialCompoundTargetItemInfo@ItemMaterialCompoundWnd@@V?$allocator@UMaterialCompoundTargetItemInfo@ItemMaterialCompoundWnd@@@std@@@std@@QAEAAUMaterialCompoundTargetItemInfo@ItemMaterialCompoundWnd@@I@Z ; std::vector<ItemMaterialCompoundWnd::MaterialCompoundTargetItemInfo,std::allocator<ItemMaterialCompoundWnd::MaterialCompoundTargetItemInfo> >::operator[]
; Function compile flags: /Ogsp
;	COMDAT ??A?$vector@UMaterialCompoundTargetItemInfo@ItemMaterialCompoundWnd@@V?$allocator@UMaterialCompoundTargetItemInfo@ItemMaterialCompoundWnd@@@std@@@std@@QAEAAUMaterialCompoundTargetItemInfo@ItemMaterialCompoundWnd@@I@Z
_TEXT	SEGMENT
__Pos$ = 8						; size = 4
??A?$vector@UMaterialCompoundTargetItemInfo@ItemMaterialCompoundWnd@@V?$allocator@UMaterialCompoundTargetItemInfo@ItemMaterialCompoundWnd@@@std@@@std@@QAEAAUMaterialCompoundTargetItemInfo@ItemMaterialCompoundWnd@@I@Z PROC ; std::vector<ItemMaterialCompoundWnd::MaterialCompoundTargetItemInfo,std::allocator<ItemMaterialCompoundWnd::MaterialCompoundTargetItemInfo> >::operator[], COMDAT
; _this$ = ecx

; 928  : 		{	// subscript mutable sequence

  00000	55		 push	 ebp
  00001	8b ec		 mov	 ebp, esp

; 929  :  #if _ITERATOR_DEBUG_LEVEL == 2
; 930  : 		if (size() <= _Pos)
; 931  : 			{	// report error
; 932  : 			_DEBUG_ERROR("vector subscript out of range");
; 933  : 			_SCL_SECURE_OUT_OF_RANGE;
; 934  : 			}
; 935  : 
; 936  :  #elif _ITERATOR_DEBUG_LEVEL == 1
; 937  : 		_SCL_SECURE_VALIDATE_RANGE(_Pos < size());
; 938  :  #endif /* _ITERATOR_DEBUG_LEVEL */
; 939  : 
; 940  : 		return (*(this->_Myfirst + _Pos));

  00003	8b 45 08	 mov	 eax, DWORD PTR __Pos$[ebp]
  00006	6b c0 0c	 imul	 eax, 12			; 0000000cH
  00009	03 01		 add	 eax, DWORD PTR [ecx]

; 941  : 		}

  0000b	5d		 pop	 ebp
  0000c	c2 04 00	 ret	 4
??A?$vector@UMaterialCompoundTargetItemInfo@ItemMaterialCompoundWnd@@V?$allocator@UMaterialCompoundTargetItemInfo@ItemMaterialCompoundWnd@@@std@@@std@@QAEAAUMaterialCompoundTargetItemInfo@ItemMaterialCompoundWnd@@I@Z ENDP ; std::vector<ItemMaterialCompoundWnd::MaterialCompoundTargetItemInfo,std::allocator<ItemMaterialCompoundWnd::MaterialCompoundTargetItemInfo> >::operator[]
_TEXT	ENDS
PUBLIC	?capacity@?$vector@UEXTRAITEMSLOT@@V?$allocator@UEXTRAITEMSLOT@@@std@@@std@@QBEIXZ ; std::vector<EXTRAITEMSLOT,std::allocator<EXTRAITEMSLOT> >::capacity
; Function compile flags: /Ogsp
;	COMDAT ?capacity@?$vector@UEXTRAITEMSLOT@@V?$allocator@UEXTRAITEMSLOT@@@std@@@std@@QBEIXZ
_TEXT	SEGMENT
?capacity@?$vector@UEXTRAITEMSLOT@@V?$allocator@UEXTRAITEMSLOT@@@std@@@std@@QBEIXZ PROC ; std::vector<EXTRAITEMSLOT,std::allocator<EXTRAITEMSLOT> >::capacity, COMDAT
; _this$ = ecx

; 777  : 		return (this->_Myend - this->_Myfirst);

  00000	8b 41 08	 mov	 eax, DWORD PTR [ecx+8]
  00003	2b 01		 sub	 eax, DWORD PTR [ecx]
  00005	6a 48		 push	 72			; 00000048H
  00007	99		 cdq
  00008	59		 pop	 ecx
  00009	f7 f9		 idiv	 ecx

; 778  : 		}

  0000b	c3		 ret	 0
?capacity@?$vector@UEXTRAITEMSLOT@@V?$allocator@UEXTRAITEMSLOT@@@std@@@std@@QBEIXZ ENDP ; std::vector<EXTRAITEMSLOT,std::allocator<EXTRAITEMSLOT> >::capacity
_TEXT	ENDS
PUBLIC	?size@?$vector@UEXTRAITEMSLOT@@V?$allocator@UEXTRAITEMSLOT@@@std@@@std@@QBEIXZ ; std::vector<EXTRAITEMSLOT,std::allocator<EXTRAITEMSLOT> >::size
; Function compile flags: /Ogsp
;	COMDAT ?size@?$vector@UEXTRAITEMSLOT@@V?$allocator@UEXTRAITEMSLOT@@@std@@@std@@QBEIXZ
_TEXT	SEGMENT
?size@?$vector@UEXTRAITEMSLOT@@V?$allocator@UEXTRAITEMSLOT@@@std@@@std@@QBEIXZ PROC ; std::vector<EXTRAITEMSLOT,std::allocator<EXTRAITEMSLOT> >::size, COMDAT
; _this$ = ecx

; 879  : 		return (this->_Mylast - this->_Myfirst);

  00000	8b 41 04	 mov	 eax, DWORD PTR [ecx+4]
  00003	2b 01		 sub	 eax, DWORD PTR [ecx]
  00005	6a 48		 push	 72			; 00000048H
  00007	99		 cdq
  00008	59		 pop	 ecx
  00009	f7 f9		 idiv	 ecx

; 880  : 		}

  0000b	c3		 ret	 0
?size@?$vector@UEXTRAITEMSLOT@@V?$allocator@UEXTRAITEMSLOT@@@std@@@std@@QBEIXZ ENDP ; std::vector<EXTRAITEMSLOT,std::allocator<EXTRAITEMSLOT> >::size
_TEXT	ENDS
PUBLIC	?_Inside@?$vector@UEXTRAITEMSLOT@@V?$allocator@UEXTRAITEMSLOT@@@std@@@std@@IBE_NPBUEXTRAITEMSLOT@@@Z ; std::vector<EXTRAITEMSLOT,std::allocator<EXTRAITEMSLOT> >::_Inside
; Function compile flags: /Ogsp
;	COMDAT ?_Inside@?$vector@UEXTRAITEMSLOT@@V?$allocator@UEXTRAITEMSLOT@@@std@@@std@@IBE_NPBUEXTRAITEMSLOT@@@Z
_TEXT	SEGMENT
__Ptr$ = 8						; size = 4
?_Inside@?$vector@UEXTRAITEMSLOT@@V?$allocator@UEXTRAITEMSLOT@@@std@@@std@@IBE_NPBUEXTRAITEMSLOT@@@Z PROC ; std::vector<EXTRAITEMSLOT,std::allocator<EXTRAITEMSLOT> >::_Inside, COMDAT
; _this$ = ecx

; 1285 : 		{	// test if _Ptr points inside vector

  00000	55		 push	 ebp
  00001	8b ec		 mov	 ebp, esp

; 1286 : 		return (_Ptr < this->_Mylast && this->_Myfirst <= _Ptr);

  00003	8b 45 08	 mov	 eax, DWORD PTR __Ptr$[ebp]
  00006	3b 41 04	 cmp	 eax, DWORD PTR [ecx+4]
  00009	73 09		 jae	 SHORT $LN3@Inside
  0000b	39 01		 cmp	 DWORD PTR [ecx], eax
  0000d	77 05		 ja	 SHORT $LN3@Inside
  0000f	33 c0		 xor	 eax, eax
  00011	40		 inc	 eax
  00012	eb 02		 jmp	 SHORT $LN4@Inside
$LN3@Inside:
  00014	33 c0		 xor	 eax, eax
$LN4@Inside:

; 1287 : 		}

  00016	5d		 pop	 ebp
  00017	c2 04 00	 ret	 4
?_Inside@?$vector@UEXTRAITEMSLOT@@V?$allocator@UEXTRAITEMSLOT@@@std@@@std@@IBE_NPBUEXTRAITEMSLOT@@@Z ENDP ; std::vector<EXTRAITEMSLOT,std::allocator<EXTRAITEMSLOT> >::_Inside
_TEXT	ENDS
PUBLIC	??_C@_0BD@OLBABOEK@vector?$DMT?$DO?5too?5long?$AA@ ; `string'
PUBLIC	?_Xlen@?$vector@UEXTRAITEMSLOT@@V?$allocator@UEXTRAITEMSLOT@@@std@@@std@@IBEXXZ ; std::vector<EXTRAITEMSLOT,std::allocator<EXTRAITEMSLOT> >::_Xlen
EXTRN	__imp_?_Xlength_error@std@@YAXPBD@Z:PROC
;	COMDAT ??_C@_0BD@OLBABOEK@vector?$DMT?$DO?5too?5long?$AA@
CONST	SEGMENT
??_C@_0BD@OLBABOEK@vector?$DMT?$DO?5too?5long?$AA@ DB 'vector<T> too long'
	DB	00H						; `string'
; Function compile flags: /Ogsp
CONST	ENDS
;	COMDAT ?_Xlen@?$vector@UEXTRAITEMSLOT@@V?$allocator@UEXTRAITEMSLOT@@@std@@@std@@IBEXXZ
_TEXT	SEGMENT
?_Xlen@?$vector@UEXTRAITEMSLOT@@V?$allocator@UEXTRAITEMSLOT@@@std@@@std@@IBEXXZ PROC ; std::vector<EXTRAITEMSLOT,std::allocator<EXTRAITEMSLOT> >::_Xlen, COMDAT
; _this$ = ecx

; 1427 : 		_Xlength_error("vector<T> too long");

  00000	68 00 00 00 00	 push	 OFFSET ??_C@_0BD@OLBABOEK@vector?$DMT?$DO?5too?5long?$AA@
  00005	ff 15 00 00 00
	00		 call	 DWORD PTR __imp_?_Xlength_error@std@@YAXPBD@Z
$LN4@Xlen:
$LN3@Xlen:
  0000b	cc		 int	 3
?_Xlen@?$vector@UEXTRAITEMSLOT@@V?$allocator@UEXTRAITEMSLOT@@@std@@@std@@IBEXXZ ENDP ; std::vector<EXTRAITEMSLOT,std::allocator<EXTRAITEMSLOT> >::_Xlen
_TEXT	ENDS
PUBLIC	?_Orphan_range@?$vector@UEXTRAITEMSLOT@@V?$allocator@UEXTRAITEMSLOT@@@std@@@std@@IBEXPAUEXTRAITEMSLOT@@0@Z ; std::vector<EXTRAITEMSLOT,std::allocator<EXTRAITEMSLOT> >::_Orphan_range
; Function compile flags: /Ogsp
;	COMDAT ?_Orphan_range@?$vector@UEXTRAITEMSLOT@@V?$allocator@UEXTRAITEMSLOT@@@std@@@std@@IBEXPAUEXTRAITEMSLOT@@0@Z
_TEXT	SEGMENT
___formal$ = 8						; size = 4
___formal$ = 12						; size = 4
?_Orphan_range@?$vector@UEXTRAITEMSLOT@@V?$allocator@UEXTRAITEMSLOT@@@std@@@std@@IBEXPAUEXTRAITEMSLOT@@0@Z PROC ; std::vector<EXTRAITEMSLOT,std::allocator<EXTRAITEMSLOT> >::_Orphan_range, COMDAT
; _this$ = ecx

; 1454 : 		}

  00000	c2 08 00	 ret	 8
?_Orphan_range@?$vector@UEXTRAITEMSLOT@@V?$allocator@UEXTRAITEMSLOT@@@std@@@std@@IBEXPAUEXTRAITEMSLOT@@0@Z ENDP ; std::vector<EXTRAITEMSLOT,std::allocator<EXTRAITEMSLOT> >::_Orphan_range
_TEXT	ENDS
PUBLIC	??1?$_Vector_val@UEXTRAITEMSLOT@@V?$allocator@UEXTRAITEMSLOT@@@std@@@std@@QAE@XZ ; std::_Vector_val<EXTRAITEMSLOT,std::allocator<EXTRAITEMSLOT> >::~_Vector_val<EXTRAITEMSLOT,std::allocator<EXTRAITEMSLOT> >
; Function compile flags: /Ogsp
;	COMDAT ??1?$_Vector_val@UEXTRAITEMSLOT@@V?$allocator@UEXTRAITEMSLOT@@@std@@@std@@QAE@XZ
_TEXT	SEGMENT
??1?$_Vector_val@UEXTRAITEMSLOT@@V?$allocator@UEXTRAITEMSLOT@@@std@@@std@@QAE@XZ PROC ; std::_Vector_val<EXTRAITEMSLOT,std::allocator<EXTRAITEMSLOT> >::~_Vector_val<EXTRAITEMSLOT,std::allocator<EXTRAITEMSLOT> >, COMDAT
; _this$ = ecx

; 434  : 		}

  00000	c3		 ret	 0
??1?$_Vector_val@UEXTRAITEMSLOT@@V?$allocator@UEXTRAITEMSLOT@@@std@@@std@@QAE@XZ ENDP ; std::_Vector_val<EXTRAITEMSLOT,std::allocator<EXTRAITEMSLOT> >::~_Vector_val<EXTRAITEMSLOT,std::allocator<EXTRAITEMSLOT> >
_TEXT	ENDS
PUBLIC	??0?$allocator@UEXTRAITEMSLOT@@@std@@QAE@XZ	; std::allocator<EXTRAITEMSLOT>::allocator<EXTRAITEMSLOT>
; Function compile flags: /Ogsp
; File c:\program files (x86)\microsoft visual studio 10.0\vc\include\xmemory
;	COMDAT ??0?$allocator@UEXTRAITEMSLOT@@@std@@QAE@XZ
_TEXT	SEGMENT
??0?$allocator@UEXTRAITEMSLOT@@@std@@QAE@XZ PROC	; std::allocator<EXTRAITEMSLOT>::allocator<EXTRAITEMSLOT>, COMDAT
; _this$ = ecx

; 161  : 	_ALLOCATOR() _THROW0()

  00000	8b c1		 mov	 eax, ecx

; 162  : 		{	// construct default allocator (do nothing)
; 163  : 		}

  00002	c3		 ret	 0
??0?$allocator@UEXTRAITEMSLOT@@@std@@QAE@XZ ENDP	; std::allocator<EXTRAITEMSLOT>::allocator<EXTRAITEMSLOT>
_TEXT	ENDS
PUBLIC	??0?$allocator@UEXTRAITEMSLOT@@@std@@QAE@ABV01@@Z ; std::allocator<EXTRAITEMSLOT>::allocator<EXTRAITEMSLOT>
; Function compile flags: /Ogsp
;	COMDAT ??0?$allocator@UEXTRAITEMSLOT@@@std@@QAE@ABV01@@Z
_TEXT	SEGMENT
___formal$ = 8						; size = 4
??0?$allocator@UEXTRAITEMSLOT@@@std@@QAE@ABV01@@Z PROC	; std::allocator<EXTRAITEMSLOT>::allocator<EXTRAITEMSLOT>, COMDAT
; _this$ = ecx

; 165  : 	_ALLOCATOR(const _ALLOCATOR<_Ty>&) _THROW0()

  00000	8b c1		 mov	 eax, ecx

; 166  : 		{	// construct by copying (do nothing)
; 167  : 		}

  00002	c2 04 00	 ret	 4
??0?$allocator@UEXTRAITEMSLOT@@@std@@QAE@ABV01@@Z ENDP	; std::allocator<EXTRAITEMSLOT>::allocator<EXTRAITEMSLOT>
_TEXT	ENDS
PUBLIC	?deallocate@?$allocator@UEXTRAITEMSLOT@@@std@@QAEXPAUEXTRAITEMSLOT@@I@Z ; std::allocator<EXTRAITEMSLOT>::deallocate
; Function compile flags: /Ogsp
;	COMDAT ?deallocate@?$allocator@UEXTRAITEMSLOT@@@std@@QAEXPAUEXTRAITEMSLOT@@I@Z
_TEXT	SEGMENT
__Ptr$ = 8						; size = 4
___formal$ = 12						; size = 4
?deallocate@?$allocator@UEXTRAITEMSLOT@@@std@@QAEXPAUEXTRAITEMSLOT@@I@Z PROC ; std::allocator<EXTRAITEMSLOT>::deallocate, COMDAT
; _this$ = ecx

; 181  : 		{	// deallocate object at _Ptr, ignore size

  00000	55		 push	 ebp
  00001	8b ec		 mov	 ebp, esp

; 182  : 		::operator delete(_Ptr);

  00003	ff 75 08	 push	 DWORD PTR __Ptr$[ebp]
  00006	e8 00 00 00 00	 call	 ??3@YAXPAX@Z		; operator delete
  0000b	59		 pop	 ecx

; 183  : 		}

  0000c	5d		 pop	 ebp
  0000d	c2 08 00	 ret	 8
?deallocate@?$allocator@UEXTRAITEMSLOT@@@std@@QAEXPAUEXTRAITEMSLOT@@I@Z ENDP ; std::allocator<EXTRAITEMSLOT>::deallocate
_TEXT	ENDS
PUBLIC	?capacity@?$vector@UNewShopPullDownItem@@V?$allocator@UNewShopPullDownItem@@@std@@@std@@QBEIXZ ; std::vector<NewShopPullDownItem,std::allocator<NewShopPullDownItem> >::capacity
; Function compile flags: /Ogsp
; File c:\program files (x86)\microsoft visual studio 10.0\vc\include\vector
;	COMDAT ?capacity@?$vector@UNewShopPullDownItem@@V?$allocator@UNewShopPullDownItem@@@std@@@std@@QBEIXZ
_TEXT	SEGMENT
?capacity@?$vector@UNewShopPullDownItem@@V?$allocator@UNewShopPullDownItem@@@std@@@std@@QBEIXZ PROC ; std::vector<NewShopPullDownItem,std::allocator<NewShopPullDownItem> >::capacity, COMDAT
; _this$ = ecx

; 777  : 		return (this->_Myend - this->_Myfirst);

  00000	8b 41 08	 mov	 eax, DWORD PTR [ecx+8]
  00003	2b 01		 sub	 eax, DWORD PTR [ecx]
  00005	6a 50		 push	 80			; 00000050H
  00007	99		 cdq
  00008	59		 pop	 ecx
  00009	f7 f9		 idiv	 ecx

; 778  : 		}

  0000b	c3		 ret	 0
?capacity@?$vector@UNewShopPullDownItem@@V?$allocator@UNewShopPullDownItem@@@std@@@std@@QBEIXZ ENDP ; std::vector<NewShopPullDownItem,std::allocator<NewShopPullDownItem> >::capacity
_TEXT	ENDS
PUBLIC	?_Inside@?$vector@UNewShopPullDownItem@@V?$allocator@UNewShopPullDownItem@@@std@@@std@@IBE_NPBUNewShopPullDownItem@@@Z ; std::vector<NewShopPullDownItem,std::allocator<NewShopPullDownItem> >::_Inside
; Function compile flags: /Ogsp
;	COMDAT ?_Inside@?$vector@UNewShopPullDownItem@@V?$allocator@UNewShopPullDownItem@@@std@@@std@@IBE_NPBUNewShopPullDownItem@@@Z
_TEXT	SEGMENT
__Ptr$ = 8						; size = 4
?_Inside@?$vector@UNewShopPullDownItem@@V?$allocator@UNewShopPullDownItem@@@std@@@std@@IBE_NPBUNewShopPullDownItem@@@Z PROC ; std::vector<NewShopPullDownItem,std::allocator<NewShopPullDownItem> >::_Inside, COMDAT
; _this$ = ecx

; 1285 : 		{	// test if _Ptr points inside vector

  00000	55		 push	 ebp
  00001	8b ec		 mov	 ebp, esp

; 1286 : 		return (_Ptr < this->_Mylast && this->_Myfirst <= _Ptr);

  00003	8b 45 08	 mov	 eax, DWORD PTR __Ptr$[ebp]
  00006	3b 41 04	 cmp	 eax, DWORD PTR [ecx+4]
  00009	73 09		 jae	 SHORT $LN3@Inside@2
  0000b	39 01		 cmp	 DWORD PTR [ecx], eax
  0000d	77 05		 ja	 SHORT $LN3@Inside@2
  0000f	33 c0		 xor	 eax, eax
  00011	40		 inc	 eax
  00012	eb 02		 jmp	 SHORT $LN4@Inside@2
$LN3@Inside@2:
  00014	33 c0		 xor	 eax, eax
$LN4@Inside@2:

; 1287 : 		}

  00016	5d		 pop	 ebp
  00017	c2 04 00	 ret	 4
?_Inside@?$vector@UNewShopPullDownItem@@V?$allocator@UNewShopPullDownItem@@@std@@@std@@IBE_NPBUNewShopPullDownItem@@@Z ENDP ; std::vector<NewShopPullDownItem,std::allocator<NewShopPullDownItem> >::_Inside
_TEXT	ENDS
PUBLIC	?_Xlen@?$vector@UNewShopPullDownItem@@V?$allocator@UNewShopPullDownItem@@@std@@@std@@IBEXXZ ; std::vector<NewShopPullDownItem,std::allocator<NewShopPullDownItem> >::_Xlen
; Function compile flags: /Ogsp
;	COMDAT ?_Xlen@?$vector@UNewShopPullDownItem@@V?$allocator@UNewShopPullDownItem@@@std@@@std@@IBEXXZ
_TEXT	SEGMENT
?_Xlen@?$vector@UNewShopPullDownItem@@V?$allocator@UNewShopPullDownItem@@@std@@@std@@IBEXXZ PROC ; std::vector<NewShopPullDownItem,std::allocator<NewShopPullDownItem> >::_Xlen, COMDAT
; _this$ = ecx

; 1427 : 		_Xlength_error("vector<T> too long");

  00000	68 00 00 00 00	 push	 OFFSET ??_C@_0BD@OLBABOEK@vector?$DMT?$DO?5too?5long?$AA@
  00005	ff 15 00 00 00
	00		 call	 DWORD PTR __imp_?_Xlength_error@std@@YAXPBD@Z
$LN4@Xlen@2:
$LN3@Xlen@2:
  0000b	cc		 int	 3
?_Xlen@?$vector@UNewShopPullDownItem@@V?$allocator@UNewShopPullDownItem@@@std@@@std@@IBEXXZ ENDP ; std::vector<NewShopPullDownItem,std::allocator<NewShopPullDownItem> >::_Xlen
_TEXT	ENDS
PUBLIC	?_Orphan_range@?$vector@UNewShopPullDownItem@@V?$allocator@UNewShopPullDownItem@@@std@@@std@@IBEXPAUNewShopPullDownItem@@0@Z ; std::vector<NewShopPullDownItem,std::allocator<NewShopPullDownItem> >::_Orphan_range
; Function compile flags: /Ogsp
;	COMDAT ?_Orphan_range@?$vector@UNewShopPullDownItem@@V?$allocator@UNewShopPullDownItem@@@std@@@std@@IBEXPAUNewShopPullDownItem@@0@Z
_TEXT	SEGMENT
___formal$ = 8						; size = 4
___formal$ = 12						; size = 4
?_Orphan_range@?$vector@UNewShopPullDownItem@@V?$allocator@UNewShopPullDownItem@@@std@@@std@@IBEXPAUNewShopPullDownItem@@0@Z PROC ; std::vector<NewShopPullDownItem,std::allocator<NewShopPullDownItem> >::_Orphan_range, COMDAT
; _this$ = ecx

; 1454 : 		}

  00000	c2 08 00	 ret	 8
?_Orphan_range@?$vector@UNewShopPullDownItem@@V?$allocator@UNewShopPullDownItem@@@std@@@std@@IBEXPAUNewShopPullDownItem@@0@Z ENDP ; std::vector<NewShopPullDownItem,std::allocator<NewShopPullDownItem> >::_Orphan_range
_TEXT	ENDS
PUBLIC	??1?$_Vector_val@UNewShopPullDownItem@@V?$allocator@UNewShopPullDownItem@@@std@@@std@@QAE@XZ ; std::_Vector_val<NewShopPullDownItem,std::allocator<NewShopPullDownItem> >::~_Vector_val<NewShopPullDownItem,std::allocator<NewShopPullDownItem> >
; Function compile flags: /Ogsp
;	COMDAT ??1?$_Vector_val@UNewShopPullDownItem@@V?$allocator@UNewShopPullDownItem@@@std@@@std@@QAE@XZ
_TEXT	SEGMENT
??1?$_Vector_val@UNewShopPullDownItem@@V?$allocator@UNewShopPullDownItem@@@std@@@std@@QAE@XZ PROC ; std::_Vector_val<NewShopPullDownItem,std::allocator<NewShopPullDownItem> >::~_Vector_val<NewShopPullDownItem,std::allocator<NewShopPullDownItem> >, COMDAT
; _this$ = ecx

; 434  : 		}

  00000	c3		 ret	 0
??1?$_Vector_val@UNewShopPullDownItem@@V?$allocator@UNewShopPullDownItem@@@std@@@std@@QAE@XZ ENDP ; std::_Vector_val<NewShopPullDownItem,std::allocator<NewShopPullDownItem> >::~_Vector_val<NewShopPullDownItem,std::allocator<NewShopPullDownItem> >
_TEXT	ENDS
PUBLIC	??0?$allocator@UNewShopPullDownItem@@@std@@QAE@XZ ; std::allocator<NewShopPullDownItem>::allocator<NewShopPullDownItem>
; Function compile flags: /Ogsp
; File c:\program files (x86)\microsoft visual studio 10.0\vc\include\xmemory
;	COMDAT ??0?$allocator@UNewShopPullDownItem@@@std@@QAE@XZ
_TEXT	SEGMENT
??0?$allocator@UNewShopPullDownItem@@@std@@QAE@XZ PROC	; std::allocator<NewShopPullDownItem>::allocator<NewShopPullDownItem>, COMDAT
; _this$ = ecx

; 161  : 	_ALLOCATOR() _THROW0()

  00000	8b c1		 mov	 eax, ecx

; 162  : 		{	// construct default allocator (do nothing)
; 163  : 		}

  00002	c3		 ret	 0
??0?$allocator@UNewShopPullDownItem@@@std@@QAE@XZ ENDP	; std::allocator<NewShopPullDownItem>::allocator<NewShopPullDownItem>
_TEXT	ENDS
PUBLIC	?deallocate@?$allocator@UNewShopPullDownItem@@@std@@QAEXPAUNewShopPullDownItem@@I@Z ; std::allocator<NewShopPullDownItem>::deallocate
; Function compile flags: /Ogsp
;	COMDAT ?deallocate@?$allocator@UNewShopPullDownItem@@@std@@QAEXPAUNewShopPullDownItem@@I@Z
_TEXT	SEGMENT
__Ptr$ = 8						; size = 4
___formal$ = 12						; size = 4
?deallocate@?$allocator@UNewShopPullDownItem@@@std@@QAEXPAUNewShopPullDownItem@@I@Z PROC ; std::allocator<NewShopPullDownItem>::deallocate, COMDAT
; _this$ = ecx

; 181  : 		{	// deallocate object at _Ptr, ignore size

  00000	55		 push	 ebp
  00001	8b ec		 mov	 ebp, esp

; 182  : 		::operator delete(_Ptr);

  00003	ff 75 08	 push	 DWORD PTR __Ptr$[ebp]
  00006	e8 00 00 00 00	 call	 ??3@YAXPAX@Z		; operator delete
  0000b	59		 pop	 ecx

; 183  : 		}

  0000c	5d		 pop	 ebp
  0000d	c2 08 00	 ret	 8
?deallocate@?$allocator@UNewShopPullDownItem@@@std@@QAEXPAUNewShopPullDownItem@@I@Z ENDP ; std::allocator<NewShopPullDownItem>::deallocate
_TEXT	ENDS
PUBLIC	?_Inside@?$vector@UtagAlchemicItemInfo@@V?$allocator@UtagAlchemicItemInfo@@@std@@@std@@IBE_NPBUtagAlchemicItemInfo@@@Z ; std::vector<tagAlchemicItemInfo,std::allocator<tagAlchemicItemInfo> >::_Inside
; Function compile flags: /Ogsp
; File c:\program files (x86)\microsoft visual studio 10.0\vc\include\vector
;	COMDAT ?_Inside@?$vector@UtagAlchemicItemInfo@@V?$allocator@UtagAlchemicItemInfo@@@std@@@std@@IBE_NPBUtagAlchemicItemInfo@@@Z
_TEXT	SEGMENT
__Ptr$ = 8						; size = 4
?_Inside@?$vector@UtagAlchemicItemInfo@@V?$allocator@UtagAlchemicItemInfo@@@std@@@std@@IBE_NPBUtagAlchemicItemInfo@@@Z PROC ; std::vector<tagAlchemicItemInfo,std::allocator<tagAlchemicItemInfo> >::_Inside, COMDAT
; _this$ = ecx

; 1285 : 		{	// test if _Ptr points inside vector

  00000	55		 push	 ebp
  00001	8b ec		 mov	 ebp, esp

; 1286 : 		return (_Ptr < this->_Mylast && this->_Myfirst <= _Ptr);

  00003	8b 45 08	 mov	 eax, DWORD PTR __Ptr$[ebp]
  00006	3b 41 04	 cmp	 eax, DWORD PTR [ecx+4]
  00009	73 09		 jae	 SHORT $LN3@Inside@3
  0000b	39 01		 cmp	 DWORD PTR [ecx], eax
  0000d	77 05		 ja	 SHORT $LN3@Inside@3
  0000f	33 c0		 xor	 eax, eax
  00011	40		 inc	 eax
  00012	eb 02		 jmp	 SHORT $LN4@Inside@3
$LN3@Inside@3:
  00014	33 c0		 xor	 eax, eax
$LN4@Inside@3:

; 1287 : 		}

  00016	5d		 pop	 ebp
  00017	c2 04 00	 ret	 4
?_Inside@?$vector@UtagAlchemicItemInfo@@V?$allocator@UtagAlchemicItemInfo@@@std@@@std@@IBE_NPBUtagAlchemicItemInfo@@@Z ENDP ; std::vector<tagAlchemicItemInfo,std::allocator<tagAlchemicItemInfo> >::_Inside
_TEXT	ENDS
PUBLIC	?_Orphan_range@?$vector@UtagAlchemicItemInfo@@V?$allocator@UtagAlchemicItemInfo@@@std@@@std@@IBEXPAUtagAlchemicItemInfo@@0@Z ; std::vector<tagAlchemicItemInfo,std::allocator<tagAlchemicItemInfo> >::_Orphan_range
; Function compile flags: /Ogsp
;	COMDAT ?_Orphan_range@?$vector@UtagAlchemicItemInfo@@V?$allocator@UtagAlchemicItemInfo@@@std@@@std@@IBEXPAUtagAlchemicItemInfo@@0@Z
_TEXT	SEGMENT
___formal$ = 8						; size = 4
___formal$ = 12						; size = 4
?_Orphan_range@?$vector@UtagAlchemicItemInfo@@V?$allocator@UtagAlchemicItemInfo@@@std@@@std@@IBEXPAUtagAlchemicItemInfo@@0@Z PROC ; std::vector<tagAlchemicItemInfo,std::allocator<tagAlchemicItemInfo> >::_Orphan_range, COMDAT
; _this$ = ecx

; 1454 : 		}

  00000	c2 08 00	 ret	 8
?_Orphan_range@?$vector@UtagAlchemicItemInfo@@V?$allocator@UtagAlchemicItemInfo@@@std@@@std@@IBEXPAUtagAlchemicItemInfo@@0@Z ENDP ; std::vector<tagAlchemicItemInfo,std::allocator<tagAlchemicItemInfo> >::_Orphan_range
_TEXT	ENDS
PUBLIC	??1?$_Vector_val@UtagAlchemicItemInfo@@V?$allocator@UtagAlchemicItemInfo@@@std@@@std@@QAE@XZ ; std::_Vector_val<tagAlchemicItemInfo,std::allocator<tagAlchemicItemInfo> >::~_Vector_val<tagAlchemicItemInfo,std::allocator<tagAlchemicItemInfo> >
; Function compile flags: /Ogsp
;	COMDAT ??1?$_Vector_val@UtagAlchemicItemInfo@@V?$allocator@UtagAlchemicItemInfo@@@std@@@std@@QAE@XZ
_TEXT	SEGMENT
??1?$_Vector_val@UtagAlchemicItemInfo@@V?$allocator@UtagAlchemicItemInfo@@@std@@@std@@QAE@XZ PROC ; std::_Vector_val<tagAlchemicItemInfo,std::allocator<tagAlchemicItemInfo> >::~_Vector_val<tagAlchemicItemInfo,std::allocator<tagAlchemicItemInfo> >, COMDAT
; _this$ = ecx

; 434  : 		}

  00000	c3		 ret	 0
??1?$_Vector_val@UtagAlchemicItemInfo@@V?$allocator@UtagAlchemicItemInfo@@@std@@@std@@QAE@XZ ENDP ; std::_Vector_val<tagAlchemicItemInfo,std::allocator<tagAlchemicItemInfo> >::~_Vector_val<tagAlchemicItemInfo,std::allocator<tagAlchemicItemInfo> >
_TEXT	ENDS
PUBLIC	??0?$allocator@UtagAlchemicItemInfo@@@std@@QAE@XZ ; std::allocator<tagAlchemicItemInfo>::allocator<tagAlchemicItemInfo>
; Function compile flags: /Ogsp
; File c:\program files (x86)\microsoft visual studio 10.0\vc\include\xmemory
;	COMDAT ??0?$allocator@UtagAlchemicItemInfo@@@std@@QAE@XZ
_TEXT	SEGMENT
??0?$allocator@UtagAlchemicItemInfo@@@std@@QAE@XZ PROC	; std::allocator<tagAlchemicItemInfo>::allocator<tagAlchemicItemInfo>, COMDAT
; _this$ = ecx

; 161  : 	_ALLOCATOR() _THROW0()

  00000	8b c1		 mov	 eax, ecx

; 162  : 		{	// construct default allocator (do nothing)
; 163  : 		}

  00002	c3		 ret	 0
??0?$allocator@UtagAlchemicItemInfo@@@std@@QAE@XZ ENDP	; std::allocator<tagAlchemicItemInfo>::allocator<tagAlchemicItemInfo>
_TEXT	ENDS
PUBLIC	?_Inside@?$vector@UMaterialCompoundTargetItemInfo@ItemMaterialCompoundWnd@@V?$allocator@UMaterialCompoundTargetItemInfo@ItemMaterialCompoundWnd@@@std@@@std@@IBE_NPBUMaterialCompoundTargetItemInfo@ItemMaterialCompoundWnd@@@Z ; std::vector<ItemMaterialCompoundWnd::MaterialCompoundTargetItemInfo,std::allocator<ItemMaterialCompoundWnd::MaterialCompoundTargetItemInfo> >::_Inside
; Function compile flags: /Ogsp
; File c:\program files (x86)\microsoft visual studio 10.0\vc\include\vector
;	COMDAT ?_Inside@?$vector@UMaterialCompoundTargetItemInfo@ItemMaterialCompoundWnd@@V?$allocator@UMaterialCompoundTargetItemInfo@ItemMaterialCompoundWnd@@@std@@@std@@IBE_NPBUMaterialCompoundTargetItemInfo@ItemMaterialCompoundWnd@@@Z
_TEXT	SEGMENT
__Ptr$ = 8						; size = 4
?_Inside@?$vector@UMaterialCompoundTargetItemInfo@ItemMaterialCompoundWnd@@V?$allocator@UMaterialCompoundTargetItemInfo@ItemMaterialCompoundWnd@@@std@@@std@@IBE_NPBUMaterialCompoundTargetItemInfo@ItemMaterialCompoundWnd@@@Z PROC ; std::vector<ItemMaterialCompoundWnd::MaterialCompoundTargetItemInfo,std::allocator<ItemMaterialCompoundWnd::MaterialCompoundTargetItemInfo> >::_Inside, COMDAT
; _this$ = ecx

; 1285 : 		{	// test if _Ptr points inside vector

  00000	55		 push	 ebp
  00001	8b ec		 mov	 ebp, esp

; 1286 : 		return (_Ptr < this->_Mylast && this->_Myfirst <= _Ptr);

  00003	8b 45 08	 mov	 eax, DWORD PTR __Ptr$[ebp]
  00006	3b 41 04	 cmp	 eax, DWORD PTR [ecx+4]
  00009	73 09		 jae	 SHORT $LN3@Inside@4
  0000b	39 01		 cmp	 DWORD PTR [ecx], eax
  0000d	77 05		 ja	 SHORT $LN3@Inside@4
  0000f	33 c0		 xor	 eax, eax
  00011	40		 inc	 eax
  00012	eb 02		 jmp	 SHORT $LN4@Inside@4
$LN3@Inside@4:
  00014	33 c0		 xor	 eax, eax
$LN4@Inside@4:

; 1287 : 		}

  00016	5d		 pop	 ebp
  00017	c2 04 00	 ret	 4
?_Inside@?$vector@UMaterialCompoundTargetItemInfo@ItemMaterialCompoundWnd@@V?$allocator@UMaterialCompoundTargetItemInfo@ItemMaterialCompoundWnd@@@std@@@std@@IBE_NPBUMaterialCompoundTargetItemInfo@ItemMaterialCompoundWnd@@@Z ENDP ; std::vector<ItemMaterialCompoundWnd::MaterialCompoundTargetItemInfo,std::allocator<ItemMaterialCompoundWnd::MaterialCompoundTargetItemInfo> >::_Inside
_TEXT	ENDS
PUBLIC	?_Orphan_range@?$vector@UMaterialCompoundTargetItemInfo@ItemMaterialCompoundWnd@@V?$allocator@UMaterialCompoundTargetItemInfo@ItemMaterialCompoundWnd@@@std@@@std@@IBEXPAUMaterialCompoundTargetItemInfo@ItemMaterialCompoundWnd@@0@Z ; std::vector<ItemMaterialCompoundWnd::MaterialCompoundTargetItemInfo,std::allocator<ItemMaterialCompoundWnd::MaterialCompoundTargetItemInfo> >::_Orphan_range
; Function compile flags: /Ogsp
;	COMDAT ?_Orphan_range@?$vector@UMaterialCompoundTargetItemInfo@ItemMaterialCompoundWnd@@V?$allocator@UMaterialCompoundTargetItemInfo@ItemMaterialCompoundWnd@@@std@@@std@@IBEXPAUMaterialCompoundTargetItemInfo@ItemMaterialCompoundWnd@@0@Z
_TEXT	SEGMENT
___formal$ = 8						; size = 4
___formal$ = 12						; size = 4
?_Orphan_range@?$vector@UMaterialCompoundTargetItemInfo@ItemMaterialCompoundWnd@@V?$allocator@UMaterialCompoundTargetItemInfo@ItemMaterialCompoundWnd@@@std@@@std@@IBEXPAUMaterialCompoundTargetItemInfo@ItemMaterialCompoundWnd@@0@Z PROC ; std::vector<ItemMaterialCompoundWnd::MaterialCompoundTargetItemInfo,std::allocator<ItemMaterialCompoundWnd::MaterialCompoundTargetItemInfo> >::_Orphan_range, COMDAT
; _this$ = ecx

; 1454 : 		}

  00000	c2 08 00	 ret	 8
?_Orphan_range@?$vector@UMaterialCompoundTargetItemInfo@ItemMaterialCompoundWnd@@V?$allocator@UMaterialCompoundTargetItemInfo@ItemMaterialCompoundWnd@@@std@@@std@@IBEXPAUMaterialCompoundTargetItemInfo@ItemMaterialCompoundWnd@@0@Z ENDP ; std::vector<ItemMaterialCompoundWnd::MaterialCompoundTargetItemInfo,std::allocator<ItemMaterialCompoundWnd::MaterialCompoundTargetItemInfo> >::_Orphan_range
_TEXT	ENDS
PUBLIC	??1?$_Vector_val@UMaterialCompoundTargetItemInfo@ItemMaterialCompoundWnd@@V?$allocator@UMaterialCompoundTargetItemInfo@ItemMaterialCompoundWnd@@@std@@@std@@QAE@XZ ; std::_Vector_val<ItemMaterialCompoundWnd::MaterialCompoundTargetItemInfo,std::allocator<ItemMaterialCompoundWnd::MaterialCompoundTargetItemInfo> >::~_Vector_val<ItemMaterialCompoundWnd::MaterialCompoundTargetItemInfo,std::allocator<ItemMaterialCompoundWnd::MaterialCompoundTargetItemInfo> >
; Function compile flags: /Ogsp
;	COMDAT ??1?$_Vector_val@UMaterialCompoundTargetItemInfo@ItemMaterialCompoundWnd@@V?$allocator@UMaterialCompoundTargetItemInfo@ItemMaterialCompoundWnd@@@std@@@std@@QAE@XZ
_TEXT	SEGMENT
??1?$_Vector_val@UMaterialCompoundTargetItemInfo@ItemMaterialCompoundWnd@@V?$allocator@UMaterialCompoundTargetItemInfo@ItemMaterialCompoundWnd@@@std@@@std@@QAE@XZ PROC ; std::_Vector_val<ItemMaterialCompoundWnd::MaterialCompoundTargetItemInfo,std::allocator<ItemMaterialCompoundWnd::MaterialCompoundTargetItemInfo> >::~_Vector_val<ItemMaterialCompoundWnd::MaterialCompoundTargetItemInfo,std::allocator<ItemMaterialCompoundWnd::MaterialCompoundTargetItemInfo> >, COMDAT
; _this$ = ecx

; 434  : 		}

  00000	c3		 ret	 0
??1?$_Vector_val@UMaterialCompoundTargetItemInfo@ItemMaterialCompoundWnd@@V?$allocator@UMaterialCompoundTargetItemInfo@ItemMaterialCompoundWnd@@@std@@@std@@QAE@XZ ENDP ; std::_Vector_val<ItemMaterialCompoundWnd::MaterialCompoundTargetItemInfo,std::allocator<ItemMaterialCompoundWnd::MaterialCompoundTargetItemInfo> >::~_Vector_val<ItemMaterialCompoundWnd::MaterialCompoundTargetItemInfo,std::allocator<ItemMaterialCompoundWnd::MaterialCompoundTargetItemInfo> >
_TEXT	ENDS
PUBLIC	??0?$allocator@UMaterialCompoundTargetItemInfo@ItemMaterialCompoundWnd@@@std@@QAE@XZ ; std::allocator<ItemMaterialCompoundWnd::MaterialCompoundTargetItemInfo>::allocator<ItemMaterialCompoundWnd::MaterialCompoundTargetItemInfo>
; Function compile flags: /Ogsp
; File c:\program files (x86)\microsoft visual studio 10.0\vc\include\xmemory
;	COMDAT ??0?$allocator@UMaterialCompoundTargetItemInfo@ItemMaterialCompoundWnd@@@std@@QAE@XZ
_TEXT	SEGMENT
??0?$allocator@UMaterialCompoundTargetItemInfo@ItemMaterialCompoundWnd@@@std@@QAE@XZ PROC ; std::allocator<ItemMaterialCompoundWnd::MaterialCompoundTargetItemInfo>::allocator<ItemMaterialCompoundWnd::MaterialCompoundTargetItemInfo>, COMDAT
; _this$ = ecx

; 161  : 	_ALLOCATOR() _THROW0()

  00000	8b c1		 mov	 eax, ecx

; 162  : 		{	// construct default allocator (do nothing)
; 163  : 		}

  00002	c3		 ret	 0
??0?$allocator@UMaterialCompoundTargetItemInfo@ItemMaterialCompoundWnd@@@std@@QAE@XZ ENDP ; std::allocator<ItemMaterialCompoundWnd::MaterialCompoundTargetItemInfo>::allocator<ItemMaterialCompoundWnd::MaterialCompoundTargetItemInfo>
_TEXT	ENDS
PUBLIC	??D?$_Vector_const_iterator@V?$_Vector_val@UNewShopPullDownItem@@V?$allocator@UNewShopPullDownItem@@@std@@@std@@@std@@QBEABUNewShopPullDownItem@@XZ ; std::_Vector_const_iterator<std::_Vector_val<NewShopPullDownItem,std::allocator<NewShopPullDownItem> > >::operator*
; Function compile flags: /Ogsp
; File c:\program files (x86)\microsoft visual studio 10.0\vc\include\vector
;	COMDAT ??D?$_Vector_const_iterator@V?$_Vector_val@UNewShopPullDownItem@@V?$allocator@UNewShopPullDownItem@@@std@@@std@@@std@@QBEABUNewShopPullDownItem@@XZ
_TEXT	SEGMENT
??D?$_Vector_const_iterator@V?$_Vector_val@UNewShopPullDownItem@@V?$allocator@UNewShopPullDownItem@@@std@@@std@@@std@@QBEABUNewShopPullDownItem@@XZ PROC ; std::_Vector_const_iterator<std::_Vector_val<NewShopPullDownItem,std::allocator<NewShopPullDownItem> > >::operator*, COMDAT
; _this$ = ecx

; 64   :  #if _ITERATOR_DEBUG_LEVEL == 2
; 65   : 		if (this->_Getcont() == 0
; 66   : 			|| this->_Ptr == 0
; 67   : 			|| this->_Ptr < ((_Myvec *)this->_Getcont())->_Myfirst
; 68   : 			|| ((_Myvec *)this->_Getcont())->_Mylast <= this->_Ptr)
; 69   : 			{	// report error
; 70   : 			_DEBUG_ERROR("vector iterator not dereferencable");
; 71   : 			_SCL_SECURE_OUT_OF_RANGE;
; 72   : 			}
; 73   : 
; 74   :  #elif _ITERATOR_DEBUG_LEVEL == 1
; 75   : 		_SCL_SECURE_VALIDATE(this->_Getcont() != 0);
; 76   : 		_SCL_SECURE_VALIDATE_RANGE(
; 77   : 			this->_Ptr != 0
; 78   : 			&& ((_Myvec *)this->_Getcont())->_Myfirst <= this->_Ptr
; 79   : 			&& this->_Ptr < ((_Myvec *)this->_Getcont())->_Mylast);
; 80   :  #endif /* _ITERATOR_DEBUG_LEVEL */
; 81   : 
; 82   : 		__analysis_assume(this->_Ptr != 0);
; 83   : 
; 84   : 		return (*this->_Ptr);

  00000	8b 01		 mov	 eax, DWORD PTR [ecx]

; 85   : 		}

  00002	c3		 ret	 0
??D?$_Vector_const_iterator@V?$_Vector_val@UNewShopPullDownItem@@V?$allocator@UNewShopPullDownItem@@@std@@@std@@@std@@QBEABUNewShopPullDownItem@@XZ ENDP ; std::_Vector_const_iterator<std::_Vector_val<NewShopPullDownItem,std::allocator<NewShopPullDownItem> > >::operator*
_TEXT	ENDS
PUBLIC	??E?$_Vector_const_iterator@V?$_Vector_val@UNewShopPullDownItem@@V?$allocator@UNewShopPullDownItem@@@std@@@std@@@std@@QAEAAV01@XZ ; std::_Vector_const_iterator<std::_Vector_val<NewShopPullDownItem,std::allocator<NewShopPullDownItem> > >::operator++
; Function compile flags: /Ogsp
;	COMDAT ??E?$_Vector_const_iterator@V?$_Vector_val@UNewShopPullDownItem@@V?$allocator@UNewShopPullDownItem@@@std@@@std@@@std@@QAEAAV01@XZ
_TEXT	SEGMENT
??E?$_Vector_const_iterator@V?$_Vector_val@UNewShopPullDownItem@@V?$allocator@UNewShopPullDownItem@@@std@@@std@@@std@@QAEAAV01@XZ PROC ; std::_Vector_const_iterator<std::_Vector_val<NewShopPullDownItem,std::allocator<NewShopPullDownItem> > >::operator++, COMDAT
; _this$ = ecx

; 93   : 		{	// preincrement

  00000	8b c1		 mov	 eax, ecx

; 94   :  #if _ITERATOR_DEBUG_LEVEL == 2
; 95   : 		if (this->_Getcont() == 0
; 96   : 			|| this->_Ptr == 0
; 97   : 			|| ((_Myvec *)this->_Getcont())->_Mylast <= this->_Ptr)
; 98   : 			{	// report error
; 99   : 			_DEBUG_ERROR("vector iterator not incrementable");
; 100  : 			_SCL_SECURE_OUT_OF_RANGE;
; 101  : 			}
; 102  : 
; 103  :  #elif _ITERATOR_DEBUG_LEVEL == 1
; 104  : 		_SCL_SECURE_VALIDATE(this->_Getcont() != 0);
; 105  : 		_SCL_SECURE_VALIDATE_RANGE(
; 106  : 			this->_Ptr != 0
; 107  : 			&& this->_Ptr < ((_Myvec *)this->_Getcont())->_Mylast);
; 108  :  #endif /* _ITERATOR_DEBUG_LEVEL */
; 109  : 
; 110  : 		++this->_Ptr;

  00002	83 00 50	 add	 DWORD PTR [eax], 80	; 00000050H

; 111  : 		return (*this);
; 112  : 		}

  00005	c3		 ret	 0
??E?$_Vector_const_iterator@V?$_Vector_val@UNewShopPullDownItem@@V?$allocator@UNewShopPullDownItem@@@std@@@std@@@std@@QAEAAV01@XZ ENDP ; std::_Vector_const_iterator<std::_Vector_val<NewShopPullDownItem,std::allocator<NewShopPullDownItem> > >::operator++
_TEXT	ENDS
PUBLIC	??D?$_Vector_const_iterator@V?$_Vector_val@UtagAlchemicItemInfo@@V?$allocator@UtagAlchemicItemInfo@@@std@@@std@@@std@@QBEABUtagAlchemicItemInfo@@XZ ; std::_Vector_const_iterator<std::_Vector_val<tagAlchemicItemInfo,std::allocator<tagAlchemicItemInfo> > >::operator*
; Function compile flags: /Ogsp
;	COMDAT ??D?$_Vector_const_iterator@V?$_Vector_val@UtagAlchemicItemInfo@@V?$allocator@UtagAlchemicItemInfo@@@std@@@std@@@std@@QBEABUtagAlchemicItemInfo@@XZ
_TEXT	SEGMENT
??D?$_Vector_const_iterator@V?$_Vector_val@UtagAlchemicItemInfo@@V?$allocator@UtagAlchemicItemInfo@@@std@@@std@@@std@@QBEABUtagAlchemicItemInfo@@XZ PROC ; std::_Vector_const_iterator<std::_Vector_val<tagAlchemicItemInfo,std::allocator<tagAlchemicItemInfo> > >::operator*, COMDAT
; _this$ = ecx

; 64   :  #if _ITERATOR_DEBUG_LEVEL == 2
; 65   : 		if (this->_Getcont() == 0
; 66   : 			|| this->_Ptr == 0
; 67   : 			|| this->_Ptr < ((_Myvec *)this->_Getcont())->_Myfirst
; 68   : 			|| ((_Myvec *)this->_Getcont())->_Mylast <= this->_Ptr)
; 69   : 			{	// report error
; 70   : 			_DEBUG_ERROR("vector iterator not dereferencable");
; 71   : 			_SCL_SECURE_OUT_OF_RANGE;
; 72   : 			}
; 73   : 
; 74   :  #elif _ITERATOR_DEBUG_LEVEL == 1
; 75   : 		_SCL_SECURE_VALIDATE(this->_Getcont() != 0);
; 76   : 		_SCL_SECURE_VALIDATE_RANGE(
; 77   : 			this->_Ptr != 0
; 78   : 			&& ((_Myvec *)this->_Getcont())->_Myfirst <= this->_Ptr
; 79   : 			&& this->_Ptr < ((_Myvec *)this->_Getcont())->_Mylast);
; 80   :  #endif /* _ITERATOR_DEBUG_LEVEL */
; 81   : 
; 82   : 		__analysis_assume(this->_Ptr != 0);
; 83   : 
; 84   : 		return (*this->_Ptr);

  00000	8b 01		 mov	 eax, DWORD PTR [ecx]

; 85   : 		}

  00002	c3		 ret	 0
??D?$_Vector_const_iterator@V?$_Vector_val@UtagAlchemicItemInfo@@V?$allocator@UtagAlchemicItemInfo@@@std@@@std@@@std@@QBEABUtagAlchemicItemInfo@@XZ ENDP ; std::_Vector_const_iterator<std::_Vector_val<tagAlchemicItemInfo,std::allocator<tagAlchemicItemInfo> > >::operator*
_TEXT	ENDS
PUBLIC	??E?$_Vector_const_iterator@V?$_Vector_val@UtagAlchemicItemInfo@@V?$allocator@UtagAlchemicItemInfo@@@std@@@std@@@std@@QAEAAV01@XZ ; std::_Vector_const_iterator<std::_Vector_val<tagAlchemicItemInfo,std::allocator<tagAlchemicItemInfo> > >::operator++
; Function compile flags: /Ogsp
;	COMDAT ??E?$_Vector_const_iterator@V?$_Vector_val@UtagAlchemicItemInfo@@V?$allocator@UtagAlchemicItemInfo@@@std@@@std@@@std@@QAEAAV01@XZ
_TEXT	SEGMENT
??E?$_Vector_const_iterator@V?$_Vector_val@UtagAlchemicItemInfo@@V?$allocator@UtagAlchemicItemInfo@@@std@@@std@@@std@@QAEAAV01@XZ PROC ; std::_Vector_const_iterator<std::_Vector_val<tagAlchemicItemInfo,std::allocator<tagAlchemicItemInfo> > >::operator++, COMDAT
; _this$ = ecx

; 93   : 		{	// preincrement

  00000	8b c1		 mov	 eax, ecx

; 94   :  #if _ITERATOR_DEBUG_LEVEL == 2
; 95   : 		if (this->_Getcont() == 0
; 96   : 			|| this->_Ptr == 0
; 97   : 			|| ((_Myvec *)this->_Getcont())->_Mylast <= this->_Ptr)
; 98   : 			{	// report error
; 99   : 			_DEBUG_ERROR("vector iterator not incrementable");
; 100  : 			_SCL_SECURE_OUT_OF_RANGE;
; 101  : 			}
; 102  : 
; 103  :  #elif _ITERATOR_DEBUG_LEVEL == 1
; 104  : 		_SCL_SECURE_VALIDATE(this->_Getcont() != 0);
; 105  : 		_SCL_SECURE_VALIDATE_RANGE(
; 106  : 			this->_Ptr != 0
; 107  : 			&& this->_Ptr < ((_Myvec *)this->_Getcont())->_Mylast);
; 108  :  #endif /* _ITERATOR_DEBUG_LEVEL */
; 109  : 
; 110  : 		++this->_Ptr;

  00002	83 00 1c	 add	 DWORD PTR [eax], 28	; 0000001cH

; 111  : 		return (*this);
; 112  : 		}

  00005	c3		 ret	 0
??E?$_Vector_const_iterator@V?$_Vector_val@UtagAlchemicItemInfo@@V?$allocator@UtagAlchemicItemInfo@@@std@@@std@@@std@@QAEAAV01@XZ ENDP ; std::_Vector_const_iterator<std::_Vector_val<tagAlchemicItemInfo,std::allocator<tagAlchemicItemInfo> > >::operator++
_TEXT	ENDS
PUBLIC	?max_size@?$allocator@UEXTRAITEMSLOT@@@std@@QBEIXZ ; std::allocator<EXTRAITEMSLOT>::max_size
; Function compile flags: /Ogsp
; File c:\program files (x86)\microsoft visual studio 10.0\vc\include\xmemory
;	COMDAT ?max_size@?$allocator@UEXTRAITEMSLOT@@@std@@QBEIXZ
_TEXT	SEGMENT
?max_size@?$allocator@UEXTRAITEMSLOT@@@std@@QBEIXZ PROC	; std::allocator<EXTRAITEMSLOT>::max_size, COMDAT
; _this$ = ecx

; 218  : 		_SIZT _Count = (_SIZT)(-1) / sizeof (_Ty);
; 219  : 		return (0 < _Count ? _Count : 1);

  00000	b8 e3 38 8e 03	 mov	 eax, 59652323		; 038e38e3H

; 220  : 		}

  00005	c3		 ret	 0
?max_size@?$allocator@UEXTRAITEMSLOT@@@std@@QBEIXZ ENDP	; std::allocator<EXTRAITEMSLOT>::max_size
_TEXT	ENDS
PUBLIC	??0?$allocator@UNewShopPullDownItem@@@std@@QAE@ABV01@@Z ; std::allocator<NewShopPullDownItem>::allocator<NewShopPullDownItem>
; Function compile flags: /Ogsp
;	COMDAT ??0?$allocator@UNewShopPullDownItem@@@std@@QAE@ABV01@@Z
_TEXT	SEGMENT
___formal$ = 8						; size = 4
??0?$allocator@UNewShopPullDownItem@@@std@@QAE@ABV01@@Z PROC ; std::allocator<NewShopPullDownItem>::allocator<NewShopPullDownItem>, COMDAT
; _this$ = ecx

; 165  : 	_ALLOCATOR(const _ALLOCATOR<_Ty>&) _THROW0()

  00000	8b c1		 mov	 eax, ecx

; 166  : 		{	// construct by copying (do nothing)
; 167  : 		}

  00002	c2 04 00	 ret	 4
??0?$allocator@UNewShopPullDownItem@@@std@@QAE@ABV01@@Z ENDP ; std::allocator<NewShopPullDownItem>::allocator<NewShopPullDownItem>
_TEXT	ENDS
PUBLIC	?max_size@?$allocator@UNewShopPullDownItem@@@std@@QBEIXZ ; std::allocator<NewShopPullDownItem>::max_size
; Function compile flags: /Ogsp
;	COMDAT ?max_size@?$allocator@UNewShopPullDownItem@@@std@@QBEIXZ
_TEXT	SEGMENT
?max_size@?$allocator@UNewShopPullDownItem@@@std@@QBEIXZ PROC ; std::allocator<NewShopPullDownItem>::max_size, COMDAT
; _this$ = ecx

; 218  : 		_SIZT _Count = (_SIZT)(-1) / sizeof (_Ty);
; 219  : 		return (0 < _Count ? _Count : 1);

  00000	b8 33 33 33 03	 mov	 eax, 53687091		; 03333333H

; 220  : 		}

  00005	c3		 ret	 0
?max_size@?$allocator@UNewShopPullDownItem@@@std@@QBEIXZ ENDP ; std::allocator<NewShopPullDownItem>::max_size
_TEXT	ENDS
PUBLIC	?capacity@?$vector@UtagAlchemicItemInfo@@V?$allocator@UtagAlchemicItemInfo@@@std@@@std@@QBEIXZ ; std::vector<tagAlchemicItemInfo,std::allocator<tagAlchemicItemInfo> >::capacity
; Function compile flags: /Ogsp
; File c:\program files (x86)\microsoft visual studio 10.0\vc\include\vector
;	COMDAT ?capacity@?$vector@UtagAlchemicItemInfo@@V?$allocator@UtagAlchemicItemInfo@@@std@@@std@@QBEIXZ
_TEXT	SEGMENT
?capacity@?$vector@UtagAlchemicItemInfo@@V?$allocator@UtagAlchemicItemInfo@@@std@@@std@@QBEIXZ PROC ; std::vector<tagAlchemicItemInfo,std::allocator<tagAlchemicItemInfo> >::capacity, COMDAT
; _this$ = ecx

; 777  : 		return (this->_Myend - this->_Myfirst);

  00000	8b 41 08	 mov	 eax, DWORD PTR [ecx+8]
  00003	2b 01		 sub	 eax, DWORD PTR [ecx]
  00005	6a 1c		 push	 28			; 0000001cH
  00007	99		 cdq
  00008	59		 pop	 ecx
  00009	f7 f9		 idiv	 ecx

; 778  : 		}

  0000b	c3		 ret	 0
?capacity@?$vector@UtagAlchemicItemInfo@@V?$allocator@UtagAlchemicItemInfo@@@std@@@std@@QBEIXZ ENDP ; std::vector<tagAlchemicItemInfo,std::allocator<tagAlchemicItemInfo> >::capacity
_TEXT	ENDS
PUBLIC	?_Xlen@?$vector@UtagAlchemicItemInfo@@V?$allocator@UtagAlchemicItemInfo@@@std@@@std@@IBEXXZ ; std::vector<tagAlchemicItemInfo,std::allocator<tagAlchemicItemInfo> >::_Xlen
; Function compile flags: /Ogsp
;	COMDAT ?_Xlen@?$vector@UtagAlchemicItemInfo@@V?$allocator@UtagAlchemicItemInfo@@@std@@@std@@IBEXXZ
_TEXT	SEGMENT
?_Xlen@?$vector@UtagAlchemicItemInfo@@V?$allocator@UtagAlchemicItemInfo@@@std@@@std@@IBEXXZ PROC ; std::vector<tagAlchemicItemInfo,std::allocator<tagAlchemicItemInfo> >::_Xlen, COMDAT
; _this$ = ecx

; 1427 : 		_Xlength_error("vector<T> too long");

  00000	68 00 00 00 00	 push	 OFFSET ??_C@_0BD@OLBABOEK@vector?$DMT?$DO?5too?5long?$AA@
  00005	ff 15 00 00 00
	00		 call	 DWORD PTR __imp_?_Xlength_error@std@@YAXPBD@Z
$LN4@Xlen@3:
$LN3@Xlen@3:
  0000b	cc		 int	 3
?_Xlen@?$vector@UtagAlchemicItemInfo@@V?$allocator@UtagAlchemicItemInfo@@@std@@@std@@IBEXXZ ENDP ; std::vector<tagAlchemicItemInfo,std::allocator<tagAlchemicItemInfo> >::_Xlen
_TEXT	ENDS
PUBLIC	??0?$allocator@UtagAlchemicItemInfo@@@std@@QAE@ABV01@@Z ; std::allocator<tagAlchemicItemInfo>::allocator<tagAlchemicItemInfo>
; Function compile flags: /Ogsp
; File c:\program files (x86)\microsoft visual studio 10.0\vc\include\xmemory
;	COMDAT ??0?$allocator@UtagAlchemicItemInfo@@@std@@QAE@ABV01@@Z
_TEXT	SEGMENT
___formal$ = 8						; size = 4
??0?$allocator@UtagAlchemicItemInfo@@@std@@QAE@ABV01@@Z PROC ; std::allocator<tagAlchemicItemInfo>::allocator<tagAlchemicItemInfo>, COMDAT
; _this$ = ecx

; 165  : 	_ALLOCATOR(const _ALLOCATOR<_Ty>&) _THROW0()

  00000	8b c1		 mov	 eax, ecx

; 166  : 		{	// construct by copying (do nothing)
; 167  : 		}

  00002	c2 04 00	 ret	 4
??0?$allocator@UtagAlchemicItemInfo@@@std@@QAE@ABV01@@Z ENDP ; std::allocator<tagAlchemicItemInfo>::allocator<tagAlchemicItemInfo>
_TEXT	ENDS
PUBLIC	?deallocate@?$allocator@UtagAlchemicItemInfo@@@std@@QAEXPAUtagAlchemicItemInfo@@I@Z ; std::allocator<tagAlchemicItemInfo>::deallocate
; Function compile flags: /Ogsp
;	COMDAT ?deallocate@?$allocator@UtagAlchemicItemInfo@@@std@@QAEXPAUtagAlchemicItemInfo@@I@Z
_TEXT	SEGMENT
__Ptr$ = 8						; size = 4
___formal$ = 12						; size = 4
?deallocate@?$allocator@UtagAlchemicItemInfo@@@std@@QAEXPAUtagAlchemicItemInfo@@I@Z PROC ; std::allocator<tagAlchemicItemInfo>::deallocate, COMDAT
; _this$ = ecx

; 181  : 		{	// deallocate object at _Ptr, ignore size

  00000	55		 push	 ebp
  00001	8b ec		 mov	 ebp, esp

; 182  : 		::operator delete(_Ptr);

  00003	ff 75 08	 push	 DWORD PTR __Ptr$[ebp]
  00006	e8 00 00 00 00	 call	 ??3@YAXPAX@Z		; operator delete
  0000b	59		 pop	 ecx

; 183  : 		}

  0000c	5d		 pop	 ebp
  0000d	c2 08 00	 ret	 8
?deallocate@?$allocator@UtagAlchemicItemInfo@@@std@@QAEXPAUtagAlchemicItemInfo@@I@Z ENDP ; std::allocator<tagAlchemicItemInfo>::deallocate
_TEXT	ENDS
PUBLIC	?capacity@?$vector@UMaterialCompoundTargetItemInfo@ItemMaterialCompoundWnd@@V?$allocator@UMaterialCompoundTargetItemInfo@ItemMaterialCompoundWnd@@@std@@@std@@QBEIXZ ; std::vector<ItemMaterialCompoundWnd::MaterialCompoundTargetItemInfo,std::allocator<ItemMaterialCompoundWnd::MaterialCompoundTargetItemInfo> >::capacity
; Function compile flags: /Ogsp
; File c:\program files (x86)\microsoft visual studio 10.0\vc\include\vector
;	COMDAT ?capacity@?$vector@UMaterialCompoundTargetItemInfo@ItemMaterialCompoundWnd@@V?$allocator@UMaterialCompoundTargetItemInfo@ItemMaterialCompoundWnd@@@std@@@std@@QBEIXZ
_TEXT	SEGMENT
?capacity@?$vector@UMaterialCompoundTargetItemInfo@ItemMaterialCompoundWnd@@V?$allocator@UMaterialCompoundTargetItemInfo@ItemMaterialCompoundWnd@@@std@@@std@@QBEIXZ PROC ; std::vector<ItemMaterialCompoundWnd::MaterialCompoundTargetItemInfo,std::allocator<ItemMaterialCompoundWnd::MaterialCompoundTargetItemInfo> >::capacity, COMDAT
; _this$ = ecx

; 777  : 		return (this->_Myend - this->_Myfirst);

  00000	8b 41 08	 mov	 eax, DWORD PTR [ecx+8]
  00003	2b 01		 sub	 eax, DWORD PTR [ecx]
  00005	6a 0c		 push	 12			; 0000000cH
  00007	99		 cdq
  00008	59		 pop	 ecx
  00009	f7 f9		 idiv	 ecx

; 778  : 		}

  0000b	c3		 ret	 0
?capacity@?$vector@UMaterialCompoundTargetItemInfo@ItemMaterialCompoundWnd@@V?$allocator@UMaterialCompoundTargetItemInfo@ItemMaterialCompoundWnd@@@std@@@std@@QBEIXZ ENDP ; std::vector<ItemMaterialCompoundWnd::MaterialCompoundTargetItemInfo,std::allocator<ItemMaterialCompoundWnd::MaterialCompoundTargetItemInfo> >::capacity
_TEXT	ENDS
PUBLIC	?_Xlen@?$vector@UMaterialCompoundTargetItemInfo@ItemMaterialCompoundWnd@@V?$allocator@UMaterialCompoundTargetItemInfo@ItemMaterialCompoundWnd@@@std@@@std@@IBEXXZ ; std::vector<ItemMaterialCompoundWnd::MaterialCompoundTargetItemInfo,std::allocator<ItemMaterialCompoundWnd::MaterialCompoundTargetItemInfo> >::_Xlen
; Function compile flags: /Ogsp
;	COMDAT ?_Xlen@?$vector@UMaterialCompoundTargetItemInfo@ItemMaterialCompoundWnd@@V?$allocator@UMaterialCompoundTargetItemInfo@ItemMaterialCompoundWnd@@@std@@@std@@IBEXXZ
_TEXT	SEGMENT
?_Xlen@?$vector@UMaterialCompoundTargetItemInfo@ItemMaterialCompoundWnd@@V?$allocator@UMaterialCompoundTargetItemInfo@ItemMaterialCompoundWnd@@@std@@@std@@IBEXXZ PROC ; std::vector<ItemMaterialCompoundWnd::MaterialCompoundTargetItemInfo,std::allocator<ItemMaterialCompoundWnd::MaterialCompoundTargetItemInfo> >::_Xlen, COMDAT
; _this$ = ecx

; 1427 : 		_Xlength_error("vector<T> too long");

  00000	68 00 00 00 00	 push	 OFFSET ??_C@_0BD@OLBABOEK@vector?$DMT?$DO?5too?5long?$AA@
  00005	ff 15 00 00 00
	00		 call	 DWORD PTR __imp_?_Xlength_error@std@@YAXPBD@Z
$LN4@Xlen@4:
$LN3@Xlen@4:
  0000b	cc		 int	 3
?_Xlen@?$vector@UMaterialCompoundTargetItemInfo@ItemMaterialCompoundWnd@@V?$allocator@UMaterialCompoundTargetItemInfo@ItemMaterialCompoundWnd@@@std@@@std@@IBEXXZ ENDP ; std::vector<ItemMaterialCompoundWnd::MaterialCompoundTargetItemInfo,std::allocator<ItemMaterialCompoundWnd::MaterialCompoundTargetItemInfo> >::_Xlen
_TEXT	ENDS
PUBLIC	??0?$allocator@UMaterialCompoundTargetItemInfo@ItemMaterialCompoundWnd@@@std@@QAE@ABV01@@Z ; std::allocator<ItemMaterialCompoundWnd::MaterialCompoundTargetItemInfo>::allocator<ItemMaterialCompoundWnd::MaterialCompoundTargetItemInfo>
; Function compile flags: /Ogsp
; File c:\program files (x86)\microsoft visual studio 10.0\vc\include\xmemory
;	COMDAT ??0?$allocator@UMaterialCompoundTargetItemInfo@ItemMaterialCompoundWnd@@@std@@QAE@ABV01@@Z
_TEXT	SEGMENT
___formal$ = 8						; size = 4
??0?$allocator@UMaterialCompoundTargetItemInfo@ItemMaterialCompoundWnd@@@std@@QAE@ABV01@@Z PROC ; std::allocator<ItemMaterialCompoundWnd::MaterialCompoundTargetItemInfo>::allocator<ItemMaterialCompoundWnd::MaterialCompoundTargetItemInfo>, COMDAT
; _this$ = ecx

; 165  : 	_ALLOCATOR(const _ALLOCATOR<_Ty>&) _THROW0()

  00000	8b c1		 mov	 eax, ecx

; 166  : 		{	// construct by copying (do nothing)
; 167  : 		}

  00002	c2 04 00	 ret	 4
??0?$allocator@UMaterialCompoundTargetItemInfo@ItemMaterialCompoundWnd@@@std@@QAE@ABV01@@Z ENDP ; std::allocator<ItemMaterialCompoundWnd::MaterialCompoundTargetItemInfo>::allocator<ItemMaterialCompoundWnd::MaterialCompoundTargetItemInfo>
_TEXT	ENDS
PUBLIC	?deallocate@?$allocator@UMaterialCompoundTargetItemInfo@ItemMaterialCompoundWnd@@@std@@QAEXPAUMaterialCompoundTargetItemInfo@ItemMaterialCompoundWnd@@I@Z ; std::allocator<ItemMaterialCompoundWnd::MaterialCompoundTargetItemInfo>::deallocate
; Function compile flags: /Ogsp
;	COMDAT ?deallocate@?$allocator@UMaterialCompoundTargetItemInfo@ItemMaterialCompoundWnd@@@std@@QAEXPAUMaterialCompoundTargetItemInfo@ItemMaterialCompoundWnd@@I@Z
_TEXT	SEGMENT
__Ptr$ = 8						; size = 4
___formal$ = 12						; size = 4
?deallocate@?$allocator@UMaterialCompoundTargetItemInfo@ItemMaterialCompoundWnd@@@std@@QAEXPAUMaterialCompoundTargetItemInfo@ItemMaterialCompoundWnd@@I@Z PROC ; std::allocator<ItemMaterialCompoundWnd::MaterialCompoundTargetItemInfo>::deallocate, COMDAT
; _this$ = ecx

; 181  : 		{	// deallocate object at _Ptr, ignore size

  00000	55		 push	 ebp
  00001	8b ec		 mov	 ebp, esp

; 182  : 		::operator delete(_Ptr);

  00003	ff 75 08	 push	 DWORD PTR __Ptr$[ebp]
  00006	e8 00 00 00 00	 call	 ??3@YAXPAX@Z		; operator delete
  0000b	59		 pop	 ecx

; 183  : 		}

  0000c	5d		 pop	 ebp
  0000d	c2 08 00	 ret	 8
?deallocate@?$allocator@UMaterialCompoundTargetItemInfo@ItemMaterialCompoundWnd@@@std@@QAEXPAUMaterialCompoundTargetItemInfo@ItemMaterialCompoundWnd@@I@Z ENDP ; std::allocator<ItemMaterialCompoundWnd::MaterialCompoundTargetItemInfo>::deallocate
_TEXT	ENDS
PUBLIC	??0?$_Vector_const_iterator@V?$_Vector_val@UMaterialCompoundTargetItemInfo@ItemMaterialCompoundWnd@@V?$allocator@UMaterialCompoundTargetItemInfo@ItemMaterialCompoundWnd@@@std@@@std@@@std@@QAE@PAUMaterialCompoundTargetItemInfo@ItemMaterialCompoundWnd@@PBU_Container_base0@1@@Z ; std::_Vector_const_iterator<std::_Vector_val<ItemMaterialCompoundWnd::MaterialCompoundTargetItemInfo,std::allocator<ItemMaterialCompoundWnd::MaterialCompoundTargetItemInfo> > >::_Vector_const_iterator<std::_Vector_val<ItemMaterialCompoundWnd::MaterialCompoundTargetItemInfo,std::allocator<ItemMaterialCompoundWnd::MaterialCompoundTargetItemInfo> > >
; Function compile flags: /Ogsp
; File c:\program files (x86)\microsoft visual studio 10.0\vc\include\vector
;	COMDAT ??0?$_Vector_const_iterator@V?$_Vector_val@UMaterialCompoundTargetItemInfo@ItemMaterialCompoundWnd@@V?$allocator@UMaterialCompoundTargetItemInfo@ItemMaterialCompoundWnd@@@std@@@std@@@std@@QAE@PAUMaterialCompoundTargetItemInfo@ItemMaterialCompoundWnd@@PBU_Container_base0@1@@Z
_TEXT	SEGMENT
__Parg$ = 8						; size = 4
__Pvector$ = 12						; size = 4
??0?$_Vector_const_iterator@V?$_Vector_val@UMaterialCompoundTargetItemInfo@ItemMaterialCompoundWnd@@V?$allocator@UMaterialCompoundTargetItemInfo@ItemMaterialCompoundWnd@@@std@@@std@@@std@@QAE@PAUMaterialCompoundTargetItemInfo@ItemMaterialCompoundWnd@@PBU_Container_base0@1@@Z PROC ; std::_Vector_const_iterator<std::_Vector_val<ItemMaterialCompoundWnd::MaterialCompoundTargetItemInfo,std::allocator<ItemMaterialCompoundWnd::MaterialCompoundTargetItemInfo> > >::_Vector_const_iterator<std::_Vector_val<ItemMaterialCompoundWnd::MaterialCompoundTargetItemInfo,std::allocator<ItemMaterialCompoundWnd::MaterialCompoundTargetItemInfo> > >, COMDAT
; _this$ = ecx

; 45   : 		{	// construct with pointer _Parg

  00000	55		 push	 ebp
  00001	8b ec		 mov	 ebp, esp
  00003	8b c1		 mov	 eax, ecx
  00005	8b 4d 08	 mov	 ecx, DWORD PTR __Parg$[ebp]
  00008	89 08		 mov	 DWORD PTR [eax], ecx

; 46   : 		this->_Adopt(_Pvector);
; 47   : 		}

  0000a	5d		 pop	 ebp
  0000b	c2 08 00	 ret	 8
??0?$_Vector_const_iterator@V?$_Vector_val@UMaterialCompoundTargetItemInfo@ItemMaterialCompoundWnd@@V?$allocator@UMaterialCompoundTargetItemInfo@ItemMaterialCompoundWnd@@@std@@@std@@@std@@QAE@PAUMaterialCompoundTargetItemInfo@ItemMaterialCompoundWnd@@PBU_Container_base0@1@@Z ENDP ; std::_Vector_const_iterator<std::_Vector_val<ItemMaterialCompoundWnd::MaterialCompoundTargetItemInfo,std::allocator<ItemMaterialCompoundWnd::MaterialCompoundTargetItemInfo> > >::_Vector_const_iterator<std::_Vector_val<ItemMaterialCompoundWnd::MaterialCompoundTargetItemInfo,std::allocator<ItemMaterialCompoundWnd::MaterialCompoundTargetItemInfo> > >
_TEXT	ENDS
PUBLIC	??0?$_Vector_const_iterator@V?$_Vector_val@UNewShopPullDownItem@@V?$allocator@UNewShopPullDownItem@@@std@@@std@@@std@@QAE@PAUNewShopPullDownItem@@PBU_Container_base0@1@@Z ; std::_Vector_const_iterator<std::_Vector_val<NewShopPullDownItem,std::allocator<NewShopPullDownItem> > >::_Vector_const_iterator<std::_Vector_val<NewShopPullDownItem,std::allocator<NewShopPullDownItem> > >
; Function compile flags: /Ogsp
;	COMDAT ??0?$_Vector_const_iterator@V?$_Vector_val@UNewShopPullDownItem@@V?$allocator@UNewShopPullDownItem@@@std@@@std@@@std@@QAE@PAUNewShopPullDownItem@@PBU_Container_base0@1@@Z
_TEXT	SEGMENT
__Parg$ = 8						; size = 4
__Pvector$ = 12						; size = 4
??0?$_Vector_const_iterator@V?$_Vector_val@UNewShopPullDownItem@@V?$allocator@UNewShopPullDownItem@@@std@@@std@@@std@@QAE@PAUNewShopPullDownItem@@PBU_Container_base0@1@@Z PROC ; std::_Vector_const_iterator<std::_Vector_val<NewShopPullDownItem,std::allocator<NewShopPullDownItem> > >::_Vector_const_iterator<std::_Vector_val<NewShopPullDownItem,std::allocator<NewShopPullDownItem> > >, COMDAT
; _this$ = ecx

; 45   : 		{	// construct with pointer _Parg

  00000	55		 push	 ebp
  00001	8b ec		 mov	 ebp, esp
  00003	8b c1		 mov	 eax, ecx
  00005	8b 4d 08	 mov	 ecx, DWORD PTR __Parg$[ebp]
  00008	89 08		 mov	 DWORD PTR [eax], ecx

; 46   : 		this->_Adopt(_Pvector);
; 47   : 		}

  0000a	5d		 pop	 ebp
  0000b	c2 08 00	 ret	 8
??0?$_Vector_const_iterator@V?$_Vector_val@UNewShopPullDownItem@@V?$allocator@UNewShopPullDownItem@@@std@@@std@@@std@@QAE@PAUNewShopPullDownItem@@PBU_Container_base0@1@@Z ENDP ; std::_Vector_const_iterator<std::_Vector_val<NewShopPullDownItem,std::allocator<NewShopPullDownItem> > >::_Vector_const_iterator<std::_Vector_val<NewShopPullDownItem,std::allocator<NewShopPullDownItem> > >
_TEXT	ENDS
PUBLIC	?_Compat@?$_Vector_const_iterator@V?$_Vector_val@UNewShopPullDownItem@@V?$allocator@UNewShopPullDownItem@@@std@@@std@@@std@@QBEXABV12@@Z ; std::_Vector_const_iterator<std::_Vector_val<NewShopPullDownItem,std::allocator<NewShopPullDownItem> > >::_Compat
; Function compile flags: /Ogsp
;	COMDAT ?_Compat@?$_Vector_const_iterator@V?$_Vector_val@UNewShopPullDownItem@@V?$allocator@UNewShopPullDownItem@@@std@@@std@@@std@@QBEXABV12@@Z
_TEXT	SEGMENT
___formal$ = 8						; size = 4
?_Compat@?$_Vector_const_iterator@V?$_Vector_val@UNewShopPullDownItem@@V?$allocator@UNewShopPullDownItem@@@std@@@std@@@std@@QBEXABV12@@Z PROC ; std::_Vector_const_iterator<std::_Vector_val<NewShopPullDownItem,std::allocator<NewShopPullDownItem> > >::_Compat, COMDAT
; _this$ = ecx

; 253  : 		}

  00000	c2 04 00	 ret	 4
?_Compat@?$_Vector_const_iterator@V?$_Vector_val@UNewShopPullDownItem@@V?$allocator@UNewShopPullDownItem@@@std@@@std@@@std@@QBEXABV12@@Z ENDP ; std::_Vector_const_iterator<std::_Vector_val<NewShopPullDownItem,std::allocator<NewShopPullDownItem> > >::_Compat
_TEXT	ENDS
PUBLIC	??0?$_Vector_const_iterator@V?$_Vector_val@UtagAlchemicItemInfo@@V?$allocator@UtagAlchemicItemInfo@@@std@@@std@@@std@@QAE@PAUtagAlchemicItemInfo@@PBU_Container_base0@1@@Z ; std::_Vector_const_iterator<std::_Vector_val<tagAlchemicItemInfo,std::allocator<tagAlchemicItemInfo> > >::_Vector_const_iterator<std::_Vector_val<tagAlchemicItemInfo,std::allocator<tagAlchemicItemInfo> > >
; Function compile flags: /Ogsp
;	COMDAT ??0?$_Vector_const_iterator@V?$_Vector_val@UtagAlchemicItemInfo@@V?$allocator@UtagAlchemicItemInfo@@@std@@@std@@@std@@QAE@PAUtagAlchemicItemInfo@@PBU_Container_base0@1@@Z
_TEXT	SEGMENT
__Parg$ = 8						; size = 4
__Pvector$ = 12						; size = 4
??0?$_Vector_const_iterator@V?$_Vector_val@UtagAlchemicItemInfo@@V?$allocator@UtagAlchemicItemInfo@@@std@@@std@@@std@@QAE@PAUtagAlchemicItemInfo@@PBU_Container_base0@1@@Z PROC ; std::_Vector_const_iterator<std::_Vector_val<tagAlchemicItemInfo,std::allocator<tagAlchemicItemInfo> > >::_Vector_const_iterator<std::_Vector_val<tagAlchemicItemInfo,std::allocator<tagAlchemicItemInfo> > >, COMDAT
; _this$ = ecx

; 45   : 		{	// construct with pointer _Parg

  00000	55		 push	 ebp
  00001	8b ec		 mov	 ebp, esp
  00003	8b c1		 mov	 eax, ecx
  00005	8b 4d 08	 mov	 ecx, DWORD PTR __Parg$[ebp]
  00008	89 08		 mov	 DWORD PTR [eax], ecx

; 46   : 		this->_Adopt(_Pvector);
; 47   : 		}

  0000a	5d		 pop	 ebp
  0000b	c2 08 00	 ret	 8
??0?$_Vector_const_iterator@V?$_Vector_val@UtagAlchemicItemInfo@@V?$allocator@UtagAlchemicItemInfo@@@std@@@std@@@std@@QAE@PAUtagAlchemicItemInfo@@PBU_Container_base0@1@@Z ENDP ; std::_Vector_const_iterator<std::_Vector_val<tagAlchemicItemInfo,std::allocator<tagAlchemicItemInfo> > >::_Vector_const_iterator<std::_Vector_val<tagAlchemicItemInfo,std::allocator<tagAlchemicItemInfo> > >
_TEXT	ENDS
PUBLIC	?_Compat@?$_Vector_const_iterator@V?$_Vector_val@UtagAlchemicItemInfo@@V?$allocator@UtagAlchemicItemInfo@@@std@@@std@@@std@@QBEXABV12@@Z ; std::_Vector_const_iterator<std::_Vector_val<tagAlchemicItemInfo,std::allocator<tagAlchemicItemInfo> > >::_Compat
; Function compile flags: /Ogsp
;	COMDAT ?_Compat@?$_Vector_const_iterator@V?$_Vector_val@UtagAlchemicItemInfo@@V?$allocator@UtagAlchemicItemInfo@@@std@@@std@@@std@@QBEXABV12@@Z
_TEXT	SEGMENT
___formal$ = 8						; size = 4
?_Compat@?$_Vector_const_iterator@V?$_Vector_val@UtagAlchemicItemInfo@@V?$allocator@UtagAlchemicItemInfo@@@std@@@std@@@std@@QBEXABV12@@Z PROC ; std::_Vector_const_iterator<std::_Vector_val<tagAlchemicItemInfo,std::allocator<tagAlchemicItemInfo> > >::_Compat, COMDAT
; _this$ = ecx

; 253  : 		}

  00000	c2 04 00	 ret	 4
?_Compat@?$_Vector_const_iterator@V?$_Vector_val@UtagAlchemicItemInfo@@V?$allocator@UtagAlchemicItemInfo@@@std@@@std@@@std@@QBEXABV12@@Z ENDP ; std::_Vector_const_iterator<std::_Vector_val<tagAlchemicItemInfo,std::allocator<tagAlchemicItemInfo> > >::_Compat
_TEXT	ENDS
PUBLIC	??0?$_Vector_const_iterator@V?$_Vector_val@UEXTRAITEMSLOT@@V?$allocator@UEXTRAITEMSLOT@@@std@@@std@@@std@@QAE@PAUEXTRAITEMSLOT@@PBU_Container_base0@1@@Z ; std::_Vector_const_iterator<std::_Vector_val<EXTRAITEMSLOT,std::allocator<EXTRAITEMSLOT> > >::_Vector_const_iterator<std::_Vector_val<EXTRAITEMSLOT,std::allocator<EXTRAITEMSLOT> > >
; Function compile flags: /Ogsp
;	COMDAT ??0?$_Vector_const_iterator@V?$_Vector_val@UEXTRAITEMSLOT@@V?$allocator@UEXTRAITEMSLOT@@@std@@@std@@@std@@QAE@PAUEXTRAITEMSLOT@@PBU_Container_base0@1@@Z
_TEXT	SEGMENT
__Parg$ = 8						; size = 4
__Pvector$ = 12						; size = 4
??0?$_Vector_const_iterator@V?$_Vector_val@UEXTRAITEMSLOT@@V?$allocator@UEXTRAITEMSLOT@@@std@@@std@@@std@@QAE@PAUEXTRAITEMSLOT@@PBU_Container_base0@1@@Z PROC ; std::_Vector_const_iterator<std::_Vector_val<EXTRAITEMSLOT,std::allocator<EXTRAITEMSLOT> > >::_Vector_const_iterator<std::_Vector_val<EXTRAITEMSLOT,std::allocator<EXTRAITEMSLOT> > >, COMDAT
; _this$ = ecx

; 45   : 		{	// construct with pointer _Parg

  00000	55		 push	 ebp
  00001	8b ec		 mov	 ebp, esp
  00003	8b c1		 mov	 eax, ecx
  00005	8b 4d 08	 mov	 ecx, DWORD PTR __Parg$[ebp]
  00008	89 08		 mov	 DWORD PTR [eax], ecx

; 46   : 		this->_Adopt(_Pvector);
; 47   : 		}

  0000a	5d		 pop	 ebp
  0000b	c2 08 00	 ret	 8
??0?$_Vector_const_iterator@V?$_Vector_val@UEXTRAITEMSLOT@@V?$allocator@UEXTRAITEMSLOT@@@std@@@std@@@std@@QAE@PAUEXTRAITEMSLOT@@PBU_Container_base0@1@@Z ENDP ; std::_Vector_const_iterator<std::_Vector_val<EXTRAITEMSLOT,std::allocator<EXTRAITEMSLOT> > >::_Vector_const_iterator<std::_Vector_val<EXTRAITEMSLOT,std::allocator<EXTRAITEMSLOT> > >
_TEXT	ENDS
PUBLIC	??0?$_Vector_iterator@V?$_Vector_val@UEXTRAITEMSLOT@@V?$allocator@UEXTRAITEMSLOT@@@std@@@std@@@std@@QAE@PAUEXTRAITEMSLOT@@PBU_Container_base0@1@@Z ; std::_Vector_iterator<std::_Vector_val<EXTRAITEMSLOT,std::allocator<EXTRAITEMSLOT> > >::_Vector_iterator<std::_Vector_val<EXTRAITEMSLOT,std::allocator<EXTRAITEMSLOT> > >
; Function compile flags: /Ogsp
;	COMDAT ??0?$_Vector_iterator@V?$_Vector_val@UEXTRAITEMSLOT@@V?$allocator@UEXTRAITEMSLOT@@@std@@@std@@@std@@QAE@PAUEXTRAITEMSLOT@@PBU_Container_base0@1@@Z
_TEXT	SEGMENT
__Parg$ = 8						; size = 4
__Pvector$ = 12						; size = 4
??0?$_Vector_iterator@V?$_Vector_val@UEXTRAITEMSLOT@@V?$allocator@UEXTRAITEMSLOT@@@std@@@std@@@std@@QAE@PAUEXTRAITEMSLOT@@PBU_Container_base0@1@@Z PROC ; std::_Vector_iterator<std::_Vector_val<EXTRAITEMSLOT,std::allocator<EXTRAITEMSLOT> > >::_Vector_iterator<std::_Vector_val<EXTRAITEMSLOT,std::allocator<EXTRAITEMSLOT> > >, COMDAT
; _this$ = ecx

; 304  : 		{	// construct with pointer _Parg

  00000	55		 push	 ebp
  00001	8b ec		 mov	 ebp, esp
  00003	8b c1		 mov	 eax, ecx
  00005	8b 4d 08	 mov	 ecx, DWORD PTR __Parg$[ebp]
  00008	89 08		 mov	 DWORD PTR [eax], ecx

; 305  : 		}

  0000a	5d		 pop	 ebp
  0000b	c2 08 00	 ret	 8
??0?$_Vector_iterator@V?$_Vector_val@UEXTRAITEMSLOT@@V?$allocator@UEXTRAITEMSLOT@@@std@@@std@@@std@@QAE@PAUEXTRAITEMSLOT@@PBU_Container_base0@1@@Z ENDP ; std::_Vector_iterator<std::_Vector_val<EXTRAITEMSLOT,std::allocator<EXTRAITEMSLOT> > >::_Vector_iterator<std::_Vector_val<EXTRAITEMSLOT,std::allocator<EXTRAITEMSLOT> > >
_TEXT	ENDS
PUBLIC	?max_size@?$allocator@UtagAlchemicItemInfo@@@std@@QBEIXZ ; std::allocator<tagAlchemicItemInfo>::max_size
; Function compile flags: /Ogsp
; File c:\program files (x86)\microsoft visual studio 10.0\vc\include\xmemory
;	COMDAT ?max_size@?$allocator@UtagAlchemicItemInfo@@@std@@QBEIXZ
_TEXT	SEGMENT
?max_size@?$allocator@UtagAlchemicItemInfo@@@std@@QBEIXZ PROC ; std::allocator<tagAlchemicItemInfo>::max_size, COMDAT
; _this$ = ecx

; 218  : 		_SIZT _Count = (_SIZT)(-1) / sizeof (_Ty);
; 219  : 		return (0 < _Count ? _Count : 1);

  00000	b8 49 92 24 09	 mov	 eax, 153391689		; 09249249H

; 220  : 		}

  00005	c3		 ret	 0
?max_size@?$allocator@UtagAlchemicItemInfo@@@std@@QBEIXZ ENDP ; std::allocator<tagAlchemicItemInfo>::max_size
_TEXT	ENDS
PUBLIC	?max_size@?$allocator@UMaterialCompoundTargetItemInfo@ItemMaterialCompoundWnd@@@std@@QBEIXZ ; std::allocator<ItemMaterialCompoundWnd::MaterialCompoundTargetItemInfo>::max_size
; Function compile flags: /Ogsp
;	COMDAT ?max_size@?$allocator@UMaterialCompoundTargetItemInfo@ItemMaterialCompoundWnd@@@std@@QBEIXZ
_TEXT	SEGMENT
?max_size@?$allocator@UMaterialCompoundTargetItemInfo@ItemMaterialCompoundWnd@@@std@@QBEIXZ PROC ; std::allocator<ItemMaterialCompoundWnd::MaterialCompoundTargetItemInfo>::max_size, COMDAT
; _this$ = ecx

; 218  : 		_SIZT _Count = (_SIZT)(-1) / sizeof (_Ty);
; 219  : 		return (0 < _Count ? _Count : 1);

  00000	b8 55 55 55 15	 mov	 eax, 357913941		; 15555555H

; 220  : 		}

  00005	c3		 ret	 0
?max_size@?$allocator@UMaterialCompoundTargetItemInfo@ItemMaterialCompoundWnd@@@std@@QBEIXZ ENDP ; std::allocator<ItemMaterialCompoundWnd::MaterialCompoundTargetItemInfo>::max_size
_TEXT	ENDS
PUBLIC	?_Compat@?$_Vector_const_iterator@V?$_Vector_val@UMaterialCompoundTargetItemInfo@ItemMaterialCompoundWnd@@V?$allocator@UMaterialCompoundTargetItemInfo@ItemMaterialCompoundWnd@@@std@@@std@@@std@@QBEXABV12@@Z ; std::_Vector_const_iterator<std::_Vector_val<ItemMaterialCompoundWnd::MaterialCompoundTargetItemInfo,std::allocator<ItemMaterialCompoundWnd::MaterialCompoundTargetItemInfo> > >::_Compat
; Function compile flags: /Ogsp
; File c:\program files (x86)\microsoft visual studio 10.0\vc\include\vector
;	COMDAT ?_Compat@?$_Vector_const_iterator@V?$_Vector_val@UMaterialCompoundTargetItemInfo@ItemMaterialCompoundWnd@@V?$allocator@UMaterialCompoundTargetItemInfo@ItemMaterialCompoundWnd@@@std@@@std@@@std@@QBEXABV12@@Z
_TEXT	SEGMENT
___formal$ = 8						; size = 4
?_Compat@?$_Vector_const_iterator@V?$_Vector_val@UMaterialCompoundTargetItemInfo@ItemMaterialCompoundWnd@@V?$allocator@UMaterialCompoundTargetItemInfo@ItemMaterialCompoundWnd@@@std@@@std@@@std@@QBEXABV12@@Z PROC ; std::_Vector_const_iterator<std::_Vector_val<ItemMaterialCompoundWnd::MaterialCompoundTargetItemInfo,std::allocator<ItemMaterialCompoundWnd::MaterialCompoundTargetItemInfo> > >::_Compat, COMDAT
; _this$ = ecx

; 253  : 		}

  00000	c2 04 00	 ret	 4
?_Compat@?$_Vector_const_iterator@V?$_Vector_val@UMaterialCompoundTargetItemInfo@ItemMaterialCompoundWnd@@V?$allocator@UMaterialCompoundTargetItemInfo@ItemMaterialCompoundWnd@@@std@@@std@@@std@@QBEXABV12@@Z ENDP ; std::_Vector_const_iterator<std::_Vector_val<ItemMaterialCompoundWnd::MaterialCompoundTargetItemInfo,std::allocator<ItemMaterialCompoundWnd::MaterialCompoundTargetItemInfo> > >::_Compat
_TEXT	ENDS
PUBLIC	?_Compat@?$_Vector_const_iterator@V?$_Vector_val@UEXTRAITEMSLOT@@V?$allocator@UEXTRAITEMSLOT@@@std@@@std@@@std@@QBEXABV12@@Z ; std::_Vector_const_iterator<std::_Vector_val<EXTRAITEMSLOT,std::allocator<EXTRAITEMSLOT> > >::_Compat
; Function compile flags: /Ogsp
;	COMDAT ?_Compat@?$_Vector_const_iterator@V?$_Vector_val@UEXTRAITEMSLOT@@V?$allocator@UEXTRAITEMSLOT@@@std@@@std@@@std@@QBEXABV12@@Z
_TEXT	SEGMENT
___formal$ = 8						; size = 4
?_Compat@?$_Vector_const_iterator@V?$_Vector_val@UEXTRAITEMSLOT@@V?$allocator@UEXTRAITEMSLOT@@@std@@@std@@@std@@QBEXABV12@@Z PROC ; std::_Vector_const_iterator<std::_Vector_val<EXTRAITEMSLOT,std::allocator<EXTRAITEMSLOT> > >::_Compat, COMDAT
; _this$ = ecx

; 253  : 		}

  00000	c2 04 00	 ret	 4
?_Compat@?$_Vector_const_iterator@V?$_Vector_val@UEXTRAITEMSLOT@@V?$allocator@UEXTRAITEMSLOT@@@std@@@std@@@std@@QBEXABV12@@Z ENDP ; std::_Vector_const_iterator<std::_Vector_val<EXTRAITEMSLOT,std::allocator<EXTRAITEMSLOT> > >::_Compat
_TEXT	ENDS
PUBLIC	??$addressof@$$CBUEXTRAITEMSLOT@@@std@@YAPBUEXTRAITEMSLOT@@ABU1@@Z ; std::addressof<EXTRAITEMSLOT const >
; Function compile flags: /Ogsp
; File c:\program files (x86)\microsoft visual studio 10.0\vc\include\xmemory
;	COMDAT ??$addressof@$$CBUEXTRAITEMSLOT@@@std@@YAPBUEXTRAITEMSLOT@@ABU1@@Z
_TEXT	SEGMENT
__Val$ = 8						; size = 4
??$addressof@$$CBUEXTRAITEMSLOT@@@std@@YAPBUEXTRAITEMSLOT@@ABU1@@Z PROC ; std::addressof<EXTRAITEMSLOT const >, COMDAT

; 110  : 	{	// return address of _Val

  00000	55		 push	 ebp
  00001	8b ec		 mov	 ebp, esp

; 111  : 	return ((_Ty *) &(char&)_Val);

  00003	8b 45 08	 mov	 eax, DWORD PTR __Val$[ebp]

; 112  : 	}

  00006	5d		 pop	 ebp
  00007	c3		 ret	 0
??$addressof@$$CBUEXTRAITEMSLOT@@@std@@YAPBUEXTRAITEMSLOT@@ABU1@@Z ENDP ; std::addressof<EXTRAITEMSLOT const >
_TEXT	ENDS
PUBLIC	??$addressof@$$CBUNewShopPullDownItem@@@std@@YAPBUNewShopPullDownItem@@ABU1@@Z ; std::addressof<NewShopPullDownItem const >
; Function compile flags: /Ogsp
;	COMDAT ??$addressof@$$CBUNewShopPullDownItem@@@std@@YAPBUNewShopPullDownItem@@ABU1@@Z
_TEXT	SEGMENT
__Val$ = 8						; size = 4
??$addressof@$$CBUNewShopPullDownItem@@@std@@YAPBUNewShopPullDownItem@@ABU1@@Z PROC ; std::addressof<NewShopPullDownItem const >, COMDAT

; 110  : 	{	// return address of _Val

  00000	55		 push	 ebp
  00001	8b ec		 mov	 ebp, esp

; 111  : 	return ((_Ty *) &(char&)_Val);

  00003	8b 45 08	 mov	 eax, DWORD PTR __Val$[ebp]

; 112  : 	}

  00006	5d		 pop	 ebp
  00007	c3		 ret	 0
??$addressof@$$CBUNewShopPullDownItem@@@std@@YAPBUNewShopPullDownItem@@ABU1@@Z ENDP ; std::addressof<NewShopPullDownItem const >
_TEXT	ENDS
PUBLIC	??$addressof@$$CBUtagAlchemicItemInfo@@@std@@YAPBUtagAlchemicItemInfo@@ABU1@@Z ; std::addressof<tagAlchemicItemInfo const >
; Function compile flags: /Ogsp
;	COMDAT ??$addressof@$$CBUtagAlchemicItemInfo@@@std@@YAPBUtagAlchemicItemInfo@@ABU1@@Z
_TEXT	SEGMENT
__Val$ = 8						; size = 4
??$addressof@$$CBUtagAlchemicItemInfo@@@std@@YAPBUtagAlchemicItemInfo@@ABU1@@Z PROC ; std::addressof<tagAlchemicItemInfo const >, COMDAT

; 110  : 	{	// return address of _Val

  00000	55		 push	 ebp
  00001	8b ec		 mov	 ebp, esp

; 111  : 	return ((_Ty *) &(char&)_Val);

  00003	8b 45 08	 mov	 eax, DWORD PTR __Val$[ebp]

; 112  : 	}

  00006	5d		 pop	 ebp
  00007	c3		 ret	 0
??$addressof@$$CBUtagAlchemicItemInfo@@@std@@YAPBUtagAlchemicItemInfo@@ABU1@@Z ENDP ; std::addressof<tagAlchemicItemInfo const >
_TEXT	ENDS
PUBLIC	??$addressof@$$CBUMaterialCompoundTargetItemInfo@ItemMaterialCompoundWnd@@@std@@YAPBUMaterialCompoundTargetItemInfo@ItemMaterialCompoundWnd@@ABU12@@Z ; std::addressof<ItemMaterialCompoundWnd::MaterialCompoundTargetItemInfo const >
; Function compile flags: /Ogsp
;	COMDAT ??$addressof@$$CBUMaterialCompoundTargetItemInfo@ItemMaterialCompoundWnd@@@std@@YAPBUMaterialCompoundTargetItemInfo@ItemMaterialCompoundWnd@@ABU12@@Z
_TEXT	SEGMENT
__Val$ = 8						; size = 4
??$addressof@$$CBUMaterialCompoundTargetItemInfo@ItemMaterialCompoundWnd@@@std@@YAPBUMaterialCompoundTargetItemInfo@ItemMaterialCompoundWnd@@ABU12@@Z PROC ; std::addressof<ItemMaterialCompoundWnd::MaterialCompoundTargetItemInfo const >, COMDAT

; 110  : 	{	// return address of _Val

  00000	55		 push	 ebp
  00001	8b ec		 mov	 ebp, esp

; 111  : 	return ((_Ty *) &(char&)_Val);

  00003	8b 45 08	 mov	 eax, DWORD PTR __Val$[ebp]

; 112  : 	}

  00006	5d		 pop	 ebp
  00007	c3		 ret	 0
??$addressof@$$CBUMaterialCompoundTargetItemInfo@ItemMaterialCompoundWnd@@@std@@YAPBUMaterialCompoundTargetItemInfo@ItemMaterialCompoundWnd@@ABU12@@Z ENDP ; std::addressof<ItemMaterialCompoundWnd::MaterialCompoundTargetItemInfo const >
_TEXT	ENDS
PUBLIC	__TI2?AVbad_alloc@std@@
PUBLIC	??$_Allocate@UEXTRAITEMSLOT@@@std@@YAPAUEXTRAITEMSLOT@@IPAU1@@Z ; std::_Allocate<EXTRAITEMSLOT>
PUBLIC	__CTA2?AVbad_alloc@std@@
PUBLIC	__CT??_R0?AVbad_alloc@std@@@8??0bad_alloc@std@@QAE@ABV01@@Z12
PUBLIC	??0bad_alloc@std@@QAE@ABV01@@Z			; std::bad_alloc::bad_alloc
PUBLIC	__CT??_R0?AVexception@std@@@8??0exception@std@@QAE@ABV01@@Z12
EXTRN	??2@YAPAXI@Z:PROC				; operator new
EXTRN	__CxxThrowException@8:PROC
EXTRN	??0exception@std@@QAE@ABV01@@Z:PROC		; std::exception::exception
;	COMDAT __CT??_R0?AVexception@std@@@8??0exception@std@@QAE@ABV01@@Z12
; File c:\program files (x86)\microsoft visual studio 10.0\vc\include\exception
xdata$x	SEGMENT
__CT??_R0?AVexception@std@@@8??0exception@std@@QAE@ABV01@@Z12 DD 00H
	DD	FLAT:??_R0?AVexception@std@@@8
	DD	00H
	DD	0ffffffffH
	ORG $+4
	DD	0cH
	DD	FLAT:??0exception@std@@QAE@ABV01@@Z
xdata$x	ENDS
;	COMDAT __CT??_R0?AVbad_alloc@std@@@8??0bad_alloc@std@@QAE@ABV01@@Z12
xdata$x	SEGMENT
__CT??_R0?AVbad_alloc@std@@@8??0bad_alloc@std@@QAE@ABV01@@Z12 DD 00H
	DD	FLAT:??_R0?AVbad_alloc@std@@@8
	DD	00H
	DD	0ffffffffH
	ORG $+4
	DD	0cH
	DD	FLAT:??0bad_alloc@std@@QAE@ABV01@@Z
xdata$x	ENDS
;	COMDAT __CTA2?AVbad_alloc@std@@
xdata$x	SEGMENT
__CTA2?AVbad_alloc@std@@ DD 02H
	DD	FLAT:__CT??_R0?AVbad_alloc@std@@@8??0bad_alloc@std@@QAE@ABV01@@Z12
	DD	FLAT:__CT??_R0?AVexception@std@@@8??0exception@std@@QAE@ABV01@@Z12
xdata$x	ENDS
;	COMDAT __TI2?AVbad_alloc@std@@
xdata$x	SEGMENT
__TI2?AVbad_alloc@std@@ DD 00H
	DD	FLAT:??1bad_alloc@std@@UAE@XZ
	DD	00H
	DD	FLAT:__CTA2?AVbad_alloc@std@@
; Function compile flags: /Ogsp
; File c:\program files (x86)\microsoft visual studio 10.0\vc\include\xmemory
xdata$x	ENDS
;	COMDAT ??$_Allocate@UEXTRAITEMSLOT@@@std@@YAPAUEXTRAITEMSLOT@@IPAU1@@Z
_TEXT	SEGMENT
$T518138 = -12						; size = 12
$T518143 = 8						; size = 4
__Count$ = 8						; size = 4
___formal$ = 12						; size = 4
??$_Allocate@UEXTRAITEMSLOT@@@std@@YAPAUEXTRAITEMSLOT@@IPAU1@@Z PROC ; std::_Allocate<EXTRAITEMSLOT>, COMDAT

; 30   : 	{	// allocate storage for _Count elements of type _Ty

  00000	55		 push	 ebp
  00001	8b ec		 mov	 ebp, esp

; 31   : 	void *_Ptr = 0;
; 32   : 
; 33   : 	if (_Count <= 0)

  00003	8b 4d 08	 mov	 ecx, DWORD PTR __Count$[ebp]
  00006	83 ec 0c	 sub	 esp, 12			; 0000000cH
  00009	33 c0		 xor	 eax, eax
  0000b	85 c9		 test	 ecx, ecx

; 34   : 		_Count = 0;
; 35   : 	else if (((_SIZT)(-1) / sizeof (_Ty) < _Count)

  0000d	74 3c		 je	 SHORT $LN5@Allocate

; 36   : 		|| (_Ptr = ::operator new(_Count * sizeof (_Ty))) == 0)

  0000f	81 f9 e3 38 8e
	03		 cmp	 ecx, 59652323		; 038e38e3H
  00015	77 0e		 ja	 SHORT $LN1@Allocate
  00017	6b c9 48	 imul	 ecx, 72			; 00000048H
  0001a	51		 push	 ecx
  0001b	e8 00 00 00 00	 call	 ??2@YAPAXI@Z		; operator new
  00020	59		 pop	 ecx
  00021	85 c0		 test	 eax, eax

; 38   : 
; 39   : 	return ((_Ty _FARQ *)_Ptr);

  00023	75 26		 jne	 SHORT $LN5@Allocate
$LN1@Allocate:

; 37   : 		_THROW_NCEE(bad_alloc, 0);

  00025	83 65 08 00	 and	 DWORD PTR $T518143[ebp], 0
  00029	8d 45 08	 lea	 eax, DWORD PTR $T518143[ebp]
  0002c	50		 push	 eax
  0002d	8d 4d f4	 lea	 ecx, DWORD PTR $T518138[ebp]
  00030	ff 15 00 00 00
	00		 call	 DWORD PTR __imp_??0exception@std@@QAE@ABQBD@Z
  00036	68 00 00 00 00	 push	 OFFSET __TI2?AVbad_alloc@std@@
  0003b	8d 45 f4	 lea	 eax, DWORD PTR $T518138[ebp]
  0003e	50		 push	 eax
  0003f	c7 45 f4 00 00
	00 00		 mov	 DWORD PTR $T518138[ebp], OFFSET ??_7bad_alloc@std@@6B@
  00046	e8 00 00 00 00	 call	 __CxxThrowException@8
$LN10@Allocate:
$LN5@Allocate:

; 40   : 	}

  0004b	c9		 leave
  0004c	c3		 ret	 0
$LN9@Allocate:
??$_Allocate@UEXTRAITEMSLOT@@@std@@YAPAUEXTRAITEMSLOT@@IPAU1@@Z ENDP ; std::_Allocate<EXTRAITEMSLOT>
_TEXT	ENDS
PUBLIC	??$_Allocate@UNewShopPullDownItem@@@std@@YAPAUNewShopPullDownItem@@IPAU1@@Z ; std::_Allocate<NewShopPullDownItem>
; Function compile flags: /Ogsp
;	COMDAT ??$_Allocate@UNewShopPullDownItem@@@std@@YAPAUNewShopPullDownItem@@IPAU1@@Z
_TEXT	SEGMENT
$T518148 = -12						; size = 12
$T518152 = 8						; size = 4
__Count$ = 8						; size = 4
___formal$ = 12						; size = 4
??$_Allocate@UNewShopPullDownItem@@@std@@YAPAUNewShopPullDownItem@@IPAU1@@Z PROC ; std::_Allocate<NewShopPullDownItem>, COMDAT

; 30   : 	{	// allocate storage for _Count elements of type _Ty

  00000	55		 push	 ebp
  00001	8b ec		 mov	 ebp, esp

; 31   : 	void *_Ptr = 0;
; 32   : 
; 33   : 	if (_Count <= 0)

  00003	8b 4d 08	 mov	 ecx, DWORD PTR __Count$[ebp]
  00006	83 ec 0c	 sub	 esp, 12			; 0000000cH
  00009	33 c0		 xor	 eax, eax
  0000b	85 c9		 test	 ecx, ecx

; 34   : 		_Count = 0;
; 35   : 	else if (((_SIZT)(-1) / sizeof (_Ty) < _Count)

  0000d	74 3c		 je	 SHORT $LN5@Allocate@2

; 36   : 		|| (_Ptr = ::operator new(_Count * sizeof (_Ty))) == 0)

  0000f	81 f9 33 33 33
	03		 cmp	 ecx, 53687091		; 03333333H
  00015	77 0e		 ja	 SHORT $LN1@Allocate@2
  00017	6b c9 50	 imul	 ecx, 80			; 00000050H
  0001a	51		 push	 ecx
  0001b	e8 00 00 00 00	 call	 ??2@YAPAXI@Z		; operator new
  00020	59		 pop	 ecx
  00021	85 c0		 test	 eax, eax

; 38   : 
; 39   : 	return ((_Ty _FARQ *)_Ptr);

  00023	75 26		 jne	 SHORT $LN5@Allocate@2
$LN1@Allocate@2:

; 37   : 		_THROW_NCEE(bad_alloc, 0);

  00025	83 65 08 00	 and	 DWORD PTR $T518152[ebp], 0
  00029	8d 45 08	 lea	 eax, DWORD PTR $T518152[ebp]
  0002c	50		 push	 eax
  0002d	8d 4d f4	 lea	 ecx, DWORD PTR $T518148[ebp]
  00030	ff 15 00 00 00
	00		 call	 DWORD PTR __imp_??0exception@std@@QAE@ABQBD@Z
  00036	68 00 00 00 00	 push	 OFFSET __TI2?AVbad_alloc@std@@
  0003b	8d 45 f4	 lea	 eax, DWORD PTR $T518148[ebp]
  0003e	50		 push	 eax
  0003f	c7 45 f4 00 00
	00 00		 mov	 DWORD PTR $T518148[ebp], OFFSET ??_7bad_alloc@std@@6B@
  00046	e8 00 00 00 00	 call	 __CxxThrowException@8
$LN10@Allocate@2:
$LN5@Allocate@2:

; 40   : 	}

  0004b	c9		 leave
  0004c	c3		 ret	 0
$LN9@Allocate@2:
??$_Allocate@UNewShopPullDownItem@@@std@@YAPAUNewShopPullDownItem@@IPAU1@@Z ENDP ; std::_Allocate<NewShopPullDownItem>
_TEXT	ENDS
PUBLIC	??$_Allocate@UtagAlchemicItemInfo@@@std@@YAPAUtagAlchemicItemInfo@@IPAU1@@Z ; std::_Allocate<tagAlchemicItemInfo>
; Function compile flags: /Ogsp
;	COMDAT ??$_Allocate@UtagAlchemicItemInfo@@@std@@YAPAUtagAlchemicItemInfo@@IPAU1@@Z
_TEXT	SEGMENT
$T518157 = -12						; size = 12
$T518161 = 8						; size = 4
__Count$ = 8						; size = 4
___formal$ = 12						; size = 4
??$_Allocate@UtagAlchemicItemInfo@@@std@@YAPAUtagAlchemicItemInfo@@IPAU1@@Z PROC ; std::_Allocate<tagAlchemicItemInfo>, COMDAT

; 30   : 	{	// allocate storage for _Count elements of type _Ty

  00000	55		 push	 ebp
  00001	8b ec		 mov	 ebp, esp

; 31   : 	void *_Ptr = 0;
; 32   : 
; 33   : 	if (_Count <= 0)

  00003	8b 4d 08	 mov	 ecx, DWORD PTR __Count$[ebp]
  00006	83 ec 0c	 sub	 esp, 12			; 0000000cH
  00009	33 c0		 xor	 eax, eax
  0000b	85 c9		 test	 ecx, ecx

; 34   : 		_Count = 0;
; 35   : 	else if (((_SIZT)(-1) / sizeof (_Ty) < _Count)

  0000d	74 3c		 je	 SHORT $LN5@Allocate@3

; 36   : 		|| (_Ptr = ::operator new(_Count * sizeof (_Ty))) == 0)

  0000f	81 f9 49 92 24
	09		 cmp	 ecx, 153391689		; 09249249H
  00015	77 0e		 ja	 SHORT $LN1@Allocate@3
  00017	6b c9 1c	 imul	 ecx, 28			; 0000001cH
  0001a	51		 push	 ecx
  0001b	e8 00 00 00 00	 call	 ??2@YAPAXI@Z		; operator new
  00020	59		 pop	 ecx
  00021	85 c0		 test	 eax, eax

; 38   : 
; 39   : 	return ((_Ty _FARQ *)_Ptr);

  00023	75 26		 jne	 SHORT $LN5@Allocate@3
$LN1@Allocate@3:

; 37   : 		_THROW_NCEE(bad_alloc, 0);

  00025	83 65 08 00	 and	 DWORD PTR $T518161[ebp], 0
  00029	8d 45 08	 lea	 eax, DWORD PTR $T518161[ebp]
  0002c	50		 push	 eax
  0002d	8d 4d f4	 lea	 ecx, DWORD PTR $T518157[ebp]
  00030	ff 15 00 00 00
	00		 call	 DWORD PTR __imp_??0exception@std@@QAE@ABQBD@Z
  00036	68 00 00 00 00	 push	 OFFSET __TI2?AVbad_alloc@std@@
  0003b	8d 45 f4	 lea	 eax, DWORD PTR $T518157[ebp]
  0003e	50		 push	 eax
  0003f	c7 45 f4 00 00
	00 00		 mov	 DWORD PTR $T518157[ebp], OFFSET ??_7bad_alloc@std@@6B@
  00046	e8 00 00 00 00	 call	 __CxxThrowException@8
$LN10@Allocate@3:
$LN5@Allocate@3:

; 40   : 	}

  0004b	c9		 leave
  0004c	c3		 ret	 0
$LN9@Allocate@3:
??$_Allocate@UtagAlchemicItemInfo@@@std@@YAPAUtagAlchemicItemInfo@@IPAU1@@Z ENDP ; std::_Allocate<tagAlchemicItemInfo>
_TEXT	ENDS
PUBLIC	??$_Allocate@UMaterialCompoundTargetItemInfo@ItemMaterialCompoundWnd@@@std@@YAPAUMaterialCompoundTargetItemInfo@ItemMaterialCompoundWnd@@IPAU12@@Z ; std::_Allocate<ItemMaterialCompoundWnd::MaterialCompoundTargetItemInfo>
; Function compile flags: /Ogsp
;	COMDAT ??$_Allocate@UMaterialCompoundTargetItemInfo@ItemMaterialCompoundWnd@@@std@@YAPAUMaterialCompoundTargetItemInfo@ItemMaterialCompoundWnd@@IPAU12@@Z
_TEXT	SEGMENT
$T518166 = -12						; size = 12
$T518170 = 8						; size = 4
__Count$ = 8						; size = 4
___formal$ = 12						; size = 4
??$_Allocate@UMaterialCompoundTargetItemInfo@ItemMaterialCompoundWnd@@@std@@YAPAUMaterialCompoundTargetItemInfo@ItemMaterialCompoundWnd@@IPAU12@@Z PROC ; std::_Allocate<ItemMaterialCompoundWnd::MaterialCompoundTargetItemInfo>, COMDAT

; 30   : 	{	// allocate storage for _Count elements of type _Ty

  00000	55		 push	 ebp
  00001	8b ec		 mov	 ebp, esp

; 31   : 	void *_Ptr = 0;
; 32   : 
; 33   : 	if (_Count <= 0)

  00003	8b 4d 08	 mov	 ecx, DWORD PTR __Count$[ebp]
  00006	83 ec 0c	 sub	 esp, 12			; 0000000cH
  00009	33 c0		 xor	 eax, eax
  0000b	85 c9		 test	 ecx, ecx

; 34   : 		_Count = 0;
; 35   : 	else if (((_SIZT)(-1) / sizeof (_Ty) < _Count)

  0000d	74 3c		 je	 SHORT $LN5@Allocate@4

; 36   : 		|| (_Ptr = ::operator new(_Count * sizeof (_Ty))) == 0)

  0000f	81 f9 55 55 55
	15		 cmp	 ecx, 357913941		; 15555555H
  00015	77 0e		 ja	 SHORT $LN1@Allocate@4
  00017	6b c9 0c	 imul	 ecx, 12			; 0000000cH
  0001a	51		 push	 ecx
  0001b	e8 00 00 00 00	 call	 ??2@YAPAXI@Z		; operator new
  00020	59		 pop	 ecx
  00021	85 c0		 test	 eax, eax

; 38   : 
; 39   : 	return ((_Ty _FARQ *)_Ptr);

  00023	75 26		 jne	 SHORT $LN5@Allocate@4
$LN1@Allocate@4:

; 37   : 		_THROW_NCEE(bad_alloc, 0);

  00025	83 65 08 00	 and	 DWORD PTR $T518170[ebp], 0
  00029	8d 45 08	 lea	 eax, DWORD PTR $T518170[ebp]
  0002c	50		 push	 eax
  0002d	8d 4d f4	 lea	 ecx, DWORD PTR $T518166[ebp]
  00030	ff 15 00 00 00
	00		 call	 DWORD PTR __imp_??0exception@std@@QAE@ABQBD@Z
  00036	68 00 00 00 00	 push	 OFFSET __TI2?AVbad_alloc@std@@
  0003b	8d 45 f4	 lea	 eax, DWORD PTR $T518166[ebp]
  0003e	50		 push	 eax
  0003f	c7 45 f4 00 00
	00 00		 mov	 DWORD PTR $T518166[ebp], OFFSET ??_7bad_alloc@std@@6B@
  00046	e8 00 00 00 00	 call	 __CxxThrowException@8
$LN10@Allocate@4:
$LN5@Allocate@4:

; 40   : 	}

  0004b	c9		 leave
  0004c	c3		 ret	 0
$LN9@Allocate@4:
??$_Allocate@UMaterialCompoundTargetItemInfo@ItemMaterialCompoundWnd@@@std@@YAPAUMaterialCompoundTargetItemInfo@ItemMaterialCompoundWnd@@IPAU12@@Z ENDP ; std::_Allocate<ItemMaterialCompoundWnd::MaterialCompoundTargetItemInfo>
_TEXT	ENDS
PUBLIC	??G?$_Vector_const_iterator@V?$_Vector_val@UMaterialCompoundTargetItemInfo@ItemMaterialCompoundWnd@@V?$allocator@UMaterialCompoundTargetItemInfo@ItemMaterialCompoundWnd@@@std@@@std@@@std@@QBEHABV01@@Z ; std::_Vector_const_iterator<std::_Vector_val<ItemMaterialCompoundWnd::MaterialCompoundTargetItemInfo,std::allocator<ItemMaterialCompoundWnd::MaterialCompoundTargetItemInfo> > >::operator-
; Function compile flags: /Ogsp
; File c:\program files (x86)\microsoft visual studio 10.0\vc\include\vector
;	COMDAT ??G?$_Vector_const_iterator@V?$_Vector_val@UMaterialCompoundTargetItemInfo@ItemMaterialCompoundWnd@@V?$allocator@UMaterialCompoundTargetItemInfo@ItemMaterialCompoundWnd@@@std@@@std@@@std@@QBEHABV01@@Z
_TEXT	SEGMENT
__Right$ = 8						; size = 4
??G?$_Vector_const_iterator@V?$_Vector_val@UMaterialCompoundTargetItemInfo@ItemMaterialCompoundWnd@@V?$allocator@UMaterialCompoundTargetItemInfo@ItemMaterialCompoundWnd@@@std@@@std@@@std@@QBEHABV01@@Z PROC ; std::_Vector_const_iterator<std::_Vector_val<ItemMaterialCompoundWnd::MaterialCompoundTargetItemInfo,std::allocator<ItemMaterialCompoundWnd::MaterialCompoundTargetItemInfo> > >::operator-, COMDAT
; _this$ = ecx

; 190  : 		{	// return difference of iterators

  00000	55		 push	 ebp
  00001	8b ec		 mov	 ebp, esp

; 191  : 		_Compat(_Right);
; 192  : 		return (this->_Ptr - _Right._Ptr);

  00003	8b 01		 mov	 eax, DWORD PTR [ecx]
  00005	8b 4d 08	 mov	 ecx, DWORD PTR __Right$[ebp]
  00008	2b 01		 sub	 eax, DWORD PTR [ecx]
  0000a	6a 0c		 push	 12			; 0000000cH
  0000c	99		 cdq
  0000d	59		 pop	 ecx
  0000e	f7 f9		 idiv	 ecx

; 193  : 		}

  00010	5d		 pop	 ebp
  00011	c2 04 00	 ret	 4
??G?$_Vector_const_iterator@V?$_Vector_val@UMaterialCompoundTargetItemInfo@ItemMaterialCompoundWnd@@V?$allocator@UMaterialCompoundTargetItemInfo@ItemMaterialCompoundWnd@@@std@@@std@@@std@@QBEHABV01@@Z ENDP ; std::_Vector_const_iterator<std::_Vector_val<ItemMaterialCompoundWnd::MaterialCompoundTargetItemInfo,std::allocator<ItemMaterialCompoundWnd::MaterialCompoundTargetItemInfo> > >::operator-
_TEXT	ENDS
PUBLIC	??G?$_Vector_const_iterator@V?$_Vector_val@UtagAlchemicItemInfo@@V?$allocator@UtagAlchemicItemInfo@@@std@@@std@@@std@@QBEHABV01@@Z ; std::_Vector_const_iterator<std::_Vector_val<tagAlchemicItemInfo,std::allocator<tagAlchemicItemInfo> > >::operator-
; Function compile flags: /Ogsp
;	COMDAT ??G?$_Vector_const_iterator@V?$_Vector_val@UtagAlchemicItemInfo@@V?$allocator@UtagAlchemicItemInfo@@@std@@@std@@@std@@QBEHABV01@@Z
_TEXT	SEGMENT
__Right$ = 8						; size = 4
??G?$_Vector_const_iterator@V?$_Vector_val@UtagAlchemicItemInfo@@V?$allocator@UtagAlchemicItemInfo@@@std@@@std@@@std@@QBEHABV01@@Z PROC ; std::_Vector_const_iterator<std::_Vector_val<tagAlchemicItemInfo,std::allocator<tagAlchemicItemInfo> > >::operator-, COMDAT
; _this$ = ecx

; 190  : 		{	// return difference of iterators

  00000	55		 push	 ebp
  00001	8b ec		 mov	 ebp, esp

; 191  : 		_Compat(_Right);
; 192  : 		return (this->_Ptr - _Right._Ptr);

  00003	8b 01		 mov	 eax, DWORD PTR [ecx]
  00005	8b 4d 08	 mov	 ecx, DWORD PTR __Right$[ebp]
  00008	2b 01		 sub	 eax, DWORD PTR [ecx]
  0000a	6a 1c		 push	 28			; 0000001cH
  0000c	99		 cdq
  0000d	59		 pop	 ecx
  0000e	f7 f9		 idiv	 ecx

; 193  : 		}

  00010	5d		 pop	 ebp
  00011	c2 04 00	 ret	 4
??G?$_Vector_const_iterator@V?$_Vector_val@UtagAlchemicItemInfo@@V?$allocator@UtagAlchemicItemInfo@@@std@@@std@@@std@@QBEHABV01@@Z ENDP ; std::_Vector_const_iterator<std::_Vector_val<tagAlchemicItemInfo,std::allocator<tagAlchemicItemInfo> > >::operator-
_TEXT	ENDS
PUBLIC	??$forward@AAUEXTRAITEMSLOT@@@std@@YAAAUEXTRAITEMSLOT@@AAU1@@Z ; std::forward<EXTRAITEMSLOT &>
; Function compile flags: /Ogsp
; File c:\program files (x86)\microsoft visual studio 10.0\vc\include\utility
;	COMDAT ??$forward@AAUEXTRAITEMSLOT@@@std@@YAAAUEXTRAITEMSLOT@@AAU1@@Z
_TEXT	SEGMENT
__Arg$ = 8						; size = 4
??$forward@AAUEXTRAITEMSLOT@@@std@@YAAAUEXTRAITEMSLOT@@AAU1@@Z PROC ; std::forward<EXTRAITEMSLOT &>, COMDAT

; 78   : 	{	// forward _Arg, given explicitly specified type parameter

  00000	55		 push	 ebp
  00001	8b ec		 mov	 ebp, esp

; 79   : 	return ((_Ty&&)_Arg);

  00003	8b 45 08	 mov	 eax, DWORD PTR __Arg$[ebp]

; 80   : 	}

  00006	5d		 pop	 ebp
  00007	c3		 ret	 0
??$forward@AAUEXTRAITEMSLOT@@@std@@YAAAUEXTRAITEMSLOT@@AAU1@@Z ENDP ; std::forward<EXTRAITEMSLOT &>
_TEXT	ENDS
PUBLIC	??$forward@ABUEXTRAITEMSLOT@@@std@@YAABUEXTRAITEMSLOT@@ABU1@@Z ; std::forward<EXTRAITEMSLOT const &>
; Function compile flags: /Ogsp
;	COMDAT ??$forward@ABUEXTRAITEMSLOT@@@std@@YAABUEXTRAITEMSLOT@@ABU1@@Z
_TEXT	SEGMENT
__Arg$ = 8						; size = 4
??$forward@ABUEXTRAITEMSLOT@@@std@@YAABUEXTRAITEMSLOT@@ABU1@@Z PROC ; std::forward<EXTRAITEMSLOT const &>, COMDAT

; 78   : 	{	// forward _Arg, given explicitly specified type parameter

  00000	55		 push	 ebp
  00001	8b ec		 mov	 ebp, esp

; 79   : 	return ((_Ty&&)_Arg);

  00003	8b 45 08	 mov	 eax, DWORD PTR __Arg$[ebp]

; 80   : 	}

  00006	5d		 pop	 ebp
  00007	c3		 ret	 0
??$forward@ABUEXTRAITEMSLOT@@@std@@YAABUEXTRAITEMSLOT@@ABU1@@Z ENDP ; std::forward<EXTRAITEMSLOT const &>
_TEXT	ENDS
PUBLIC	??$forward@AAUNewShopPullDownItem@@@std@@YAAAUNewShopPullDownItem@@AAU1@@Z ; std::forward<NewShopPullDownItem &>
; Function compile flags: /Ogsp
;	COMDAT ??$forward@AAUNewShopPullDownItem@@@std@@YAAAUNewShopPullDownItem@@AAU1@@Z
_TEXT	SEGMENT
__Arg$ = 8						; size = 4
??$forward@AAUNewShopPullDownItem@@@std@@YAAAUNewShopPullDownItem@@AAU1@@Z PROC ; std::forward<NewShopPullDownItem &>, COMDAT

; 78   : 	{	// forward _Arg, given explicitly specified type parameter

  00000	55		 push	 ebp
  00001	8b ec		 mov	 ebp, esp

; 79   : 	return ((_Ty&&)_Arg);

  00003	8b 45 08	 mov	 eax, DWORD PTR __Arg$[ebp]

; 80   : 	}

  00006	5d		 pop	 ebp
  00007	c3		 ret	 0
??$forward@AAUNewShopPullDownItem@@@std@@YAAAUNewShopPullDownItem@@AAU1@@Z ENDP ; std::forward<NewShopPullDownItem &>
_TEXT	ENDS
PUBLIC	??$forward@ABUNewShopPullDownItem@@@std@@YAABUNewShopPullDownItem@@ABU1@@Z ; std::forward<NewShopPullDownItem const &>
; Function compile flags: /Ogsp
;	COMDAT ??$forward@ABUNewShopPullDownItem@@@std@@YAABUNewShopPullDownItem@@ABU1@@Z
_TEXT	SEGMENT
__Arg$ = 8						; size = 4
??$forward@ABUNewShopPullDownItem@@@std@@YAABUNewShopPullDownItem@@ABU1@@Z PROC ; std::forward<NewShopPullDownItem const &>, COMDAT

; 78   : 	{	// forward _Arg, given explicitly specified type parameter

  00000	55		 push	 ebp
  00001	8b ec		 mov	 ebp, esp

; 79   : 	return ((_Ty&&)_Arg);

  00003	8b 45 08	 mov	 eax, DWORD PTR __Arg$[ebp]

; 80   : 	}

  00006	5d		 pop	 ebp
  00007	c3		 ret	 0
??$forward@ABUNewShopPullDownItem@@@std@@YAABUNewShopPullDownItem@@ABU1@@Z ENDP ; std::forward<NewShopPullDownItem const &>
_TEXT	ENDS
PUBLIC	??$forward@AAUtagAlchemicItemInfo@@@std@@YAAAUtagAlchemicItemInfo@@AAU1@@Z ; std::forward<tagAlchemicItemInfo &>
; Function compile flags: /Ogsp
;	COMDAT ??$forward@AAUtagAlchemicItemInfo@@@std@@YAAAUtagAlchemicItemInfo@@AAU1@@Z
_TEXT	SEGMENT
__Arg$ = 8						; size = 4
??$forward@AAUtagAlchemicItemInfo@@@std@@YAAAUtagAlchemicItemInfo@@AAU1@@Z PROC ; std::forward<tagAlchemicItemInfo &>, COMDAT

; 78   : 	{	// forward _Arg, given explicitly specified type parameter

  00000	55		 push	 ebp
  00001	8b ec		 mov	 ebp, esp

; 79   : 	return ((_Ty&&)_Arg);

  00003	8b 45 08	 mov	 eax, DWORD PTR __Arg$[ebp]

; 80   : 	}

  00006	5d		 pop	 ebp
  00007	c3		 ret	 0
??$forward@AAUtagAlchemicItemInfo@@@std@@YAAAUtagAlchemicItemInfo@@AAU1@@Z ENDP ; std::forward<tagAlchemicItemInfo &>
_TEXT	ENDS
PUBLIC	??$forward@ABUtagAlchemicItemInfo@@@std@@YAABUtagAlchemicItemInfo@@ABU1@@Z ; std::forward<tagAlchemicItemInfo const &>
; Function compile flags: /Ogsp
;	COMDAT ??$forward@ABUtagAlchemicItemInfo@@@std@@YAABUtagAlchemicItemInfo@@ABU1@@Z
_TEXT	SEGMENT
__Arg$ = 8						; size = 4
??$forward@ABUtagAlchemicItemInfo@@@std@@YAABUtagAlchemicItemInfo@@ABU1@@Z PROC ; std::forward<tagAlchemicItemInfo const &>, COMDAT

; 78   : 	{	// forward _Arg, given explicitly specified type parameter

  00000	55		 push	 ebp
  00001	8b ec		 mov	 ebp, esp

; 79   : 	return ((_Ty&&)_Arg);

  00003	8b 45 08	 mov	 eax, DWORD PTR __Arg$[ebp]

; 80   : 	}

  00006	5d		 pop	 ebp
  00007	c3		 ret	 0
??$forward@ABUtagAlchemicItemInfo@@@std@@YAABUtagAlchemicItemInfo@@ABU1@@Z ENDP ; std::forward<tagAlchemicItemInfo const &>
_TEXT	ENDS
PUBLIC	??$_Ptr_cat@UtagAlchemicItemInfo@@U1@@std@@YA?AU_Nonscalar_ptr_iterator_tag@0@PAUtagAlchemicItemInfo@@0@Z ; std::_Ptr_cat<tagAlchemicItemInfo,tagAlchemicItemInfo>
; Function compile flags: /Ogsp
; File c:\program files (x86)\microsoft visual studio 10.0\vc\include\xutility
;	COMDAT ??$_Ptr_cat@UtagAlchemicItemInfo@@U1@@std@@YA?AU_Nonscalar_ptr_iterator_tag@0@PAUtagAlchemicItemInfo@@0@Z
_TEXT	SEGMENT
__Cat$ = -1						; size = 1
___formal$ = 8						; size = 4
___formal$ = 12						; size = 4
??$_Ptr_cat@UtagAlchemicItemInfo@@U1@@std@@YA?AU_Nonscalar_ptr_iterator_tag@0@PAUtagAlchemicItemInfo@@0@Z PROC ; std::_Ptr_cat<tagAlchemicItemInfo,tagAlchemicItemInfo>, COMDAT

; 516  : 	{	// return pointer category from pointers

  00000	55		 push	 ebp
  00001	8b ec		 mov	 ebp, esp
  00003	51		 push	 ecx

; 517  : 	typename _Ptr_cat_helper<_Elem1, _Elem2>::_Type _Cat;
; 518  : 	return (_Cat);

  00004	8a 45 ff	 mov	 al, BYTE PTR __Cat$[ebp]

; 519  : 	}

  00007	c9		 leave
  00008	c3		 ret	 0
??$_Ptr_cat@UtagAlchemicItemInfo@@U1@@std@@YA?AU_Nonscalar_ptr_iterator_tag@0@PAUtagAlchemicItemInfo@@0@Z ENDP ; std::_Ptr_cat<tagAlchemicItemInfo,tagAlchemicItemInfo>
_TEXT	ENDS
PUBLIC	??$forward@AAUMaterialCompoundTargetItemInfo@ItemMaterialCompoundWnd@@@std@@YAAAUMaterialCompoundTargetItemInfo@ItemMaterialCompoundWnd@@AAU12@@Z ; std::forward<ItemMaterialCompoundWnd::MaterialCompoundTargetItemInfo &>
; Function compile flags: /Ogsp
; File c:\program files (x86)\microsoft visual studio 10.0\vc\include\utility
;	COMDAT ??$forward@AAUMaterialCompoundTargetItemInfo@ItemMaterialCompoundWnd@@@std@@YAAAUMaterialCompoundTargetItemInfo@ItemMaterialCompoundWnd@@AAU12@@Z
_TEXT	SEGMENT
__Arg$ = 8						; size = 4
??$forward@AAUMaterialCompoundTargetItemInfo@ItemMaterialCompoundWnd@@@std@@YAAAUMaterialCompoundTargetItemInfo@ItemMaterialCompoundWnd@@AAU12@@Z PROC ; std::forward<ItemMaterialCompoundWnd::MaterialCompoundTargetItemInfo &>, COMDAT

; 78   : 	{	// forward _Arg, given explicitly specified type parameter

  00000	55		 push	 ebp
  00001	8b ec		 mov	 ebp, esp

; 79   : 	return ((_Ty&&)_Arg);

  00003	8b 45 08	 mov	 eax, DWORD PTR __Arg$[ebp]

; 80   : 	}

  00006	5d		 pop	 ebp
  00007	c3		 ret	 0
??$forward@AAUMaterialCompoundTargetItemInfo@ItemMaterialCompoundWnd@@@std@@YAAAUMaterialCompoundTargetItemInfo@ItemMaterialCompoundWnd@@AAU12@@Z ENDP ; std::forward<ItemMaterialCompoundWnd::MaterialCompoundTargetItemInfo &>
_TEXT	ENDS
PUBLIC	??$construct@AAUMaterialCompoundTargetItemInfo@ItemMaterialCompoundWnd@@@?$allocator@UMaterialCompoundTargetItemInfo@ItemMaterialCompoundWnd@@@std@@QAEXPAUMaterialCompoundTargetItemInfo@ItemMaterialCompoundWnd@@AAU23@@Z ; std::allocator<ItemMaterialCompoundWnd::MaterialCompoundTargetItemInfo>::construct<ItemMaterialCompoundWnd::MaterialCompoundTargetItemInfo &>
; Function compile flags: /Ogsp
; File c:\program files (x86)\microsoft visual studio 10.0\vc\include\xmemory
;	COMDAT ??$construct@AAUMaterialCompoundTargetItemInfo@ItemMaterialCompoundWnd@@@?$allocator@UMaterialCompoundTargetItemInfo@ItemMaterialCompoundWnd@@@std@@QAEXPAUMaterialCompoundTargetItemInfo@ItemMaterialCompoundWnd@@AAU23@@Z
_TEXT	SEGMENT
__Ptr$ = 8						; size = 4
__Val$ = 12						; size = 4
??$construct@AAUMaterialCompoundTargetItemInfo@ItemMaterialCompoundWnd@@@?$allocator@UMaterialCompoundTargetItemInfo@ItemMaterialCompoundWnd@@@std@@QAEXPAUMaterialCompoundTargetItemInfo@ItemMaterialCompoundWnd@@AAU23@@Z PROC ; std::allocator<ItemMaterialCompoundWnd::MaterialCompoundTargetItemInfo>::construct<ItemMaterialCompoundWnd::MaterialCompoundTargetItemInfo &>, COMDAT
; _this$ = ecx

; 206  : 		void construct(pointer _Ptr, _Other&& _Val)

  00000	55		 push	 ebp
  00001	8b ec		 mov	 ebp, esp
  00003	57		 push	 edi

; 207  : 		{	// construct object at _Ptr with value _Val
; 208  : 		::new ((void _FARQ *)_Ptr) _Ty(_STD forward<_Other>(_Val));

  00004	8b 7d 08	 mov	 edi, DWORD PTR __Ptr$[ebp]
  00007	85 ff		 test	 edi, edi
  00009	74 08		 je	 SHORT $LN3@construct
  0000b	56		 push	 esi
  0000c	8b 75 0c	 mov	 esi, DWORD PTR __Val$[ebp]
  0000f	a5		 movsd
  00010	a5		 movsd
  00011	a5		 movsd
  00012	5e		 pop	 esi
$LN3@construct:
  00013	5f		 pop	 edi

; 209  : 		}

  00014	5d		 pop	 ebp
  00015	c2 08 00	 ret	 8
??$construct@AAUMaterialCompoundTargetItemInfo@ItemMaterialCompoundWnd@@@?$allocator@UMaterialCompoundTargetItemInfo@ItemMaterialCompoundWnd@@@std@@QAEXPAUMaterialCompoundTargetItemInfo@ItemMaterialCompoundWnd@@AAU23@@Z ENDP ; std::allocator<ItemMaterialCompoundWnd::MaterialCompoundTargetItemInfo>::construct<ItemMaterialCompoundWnd::MaterialCompoundTargetItemInfo &>
_TEXT	ENDS
PUBLIC	??$forward@ABUMaterialCompoundTargetItemInfo@ItemMaterialCompoundWnd@@@std@@YAABUMaterialCompoundTargetItemInfo@ItemMaterialCompoundWnd@@ABU12@@Z ; std::forward<ItemMaterialCompoundWnd::MaterialCompoundTargetItemInfo const &>
; Function compile flags: /Ogsp
; File c:\program files (x86)\microsoft visual studio 10.0\vc\include\utility
;	COMDAT ??$forward@ABUMaterialCompoundTargetItemInfo@ItemMaterialCompoundWnd@@@std@@YAABUMaterialCompoundTargetItemInfo@ItemMaterialCompoundWnd@@ABU12@@Z
_TEXT	SEGMENT
__Arg$ = 8						; size = 4
??$forward@ABUMaterialCompoundTargetItemInfo@ItemMaterialCompoundWnd@@@std@@YAABUMaterialCompoundTargetItemInfo@ItemMaterialCompoundWnd@@ABU12@@Z PROC ; std::forward<ItemMaterialCompoundWnd::MaterialCompoundTargetItemInfo const &>, COMDAT

; 78   : 	{	// forward _Arg, given explicitly specified type parameter

  00000	55		 push	 ebp
  00001	8b ec		 mov	 ebp, esp

; 79   : 	return ((_Ty&&)_Arg);

  00003	8b 45 08	 mov	 eax, DWORD PTR __Arg$[ebp]

; 80   : 	}

  00006	5d		 pop	 ebp
  00007	c3		 ret	 0
??$forward@ABUMaterialCompoundTargetItemInfo@ItemMaterialCompoundWnd@@@std@@YAABUMaterialCompoundTargetItemInfo@ItemMaterialCompoundWnd@@ABU12@@Z ENDP ; std::forward<ItemMaterialCompoundWnd::MaterialCompoundTargetItemInfo const &>
_TEXT	ENDS
PUBLIC	??$_Ptr_cat@UEXTRAITEMSLOT@@U1@@std@@YA?AU_Nonscalar_ptr_iterator_tag@0@PAUEXTRAITEMSLOT@@0@Z ; std::_Ptr_cat<EXTRAITEMSLOT,EXTRAITEMSLOT>
; Function compile flags: /Ogsp
; File c:\program files (x86)\microsoft visual studio 10.0\vc\include\xutility
;	COMDAT ??$_Ptr_cat@UEXTRAITEMSLOT@@U1@@std@@YA?AU_Nonscalar_ptr_iterator_tag@0@PAUEXTRAITEMSLOT@@0@Z
_TEXT	SEGMENT
__Cat$ = -1						; size = 1
___formal$ = 8						; size = 4
___formal$ = 12						; size = 4
??$_Ptr_cat@UEXTRAITEMSLOT@@U1@@std@@YA?AU_Nonscalar_ptr_iterator_tag@0@PAUEXTRAITEMSLOT@@0@Z PROC ; std::_Ptr_cat<EXTRAITEMSLOT,EXTRAITEMSLOT>, COMDAT

; 516  : 	{	// return pointer category from pointers

  00000	55		 push	 ebp
  00001	8b ec		 mov	 ebp, esp
  00003	51		 push	 ecx

; 517  : 	typename _Ptr_cat_helper<_Elem1, _Elem2>::_Type _Cat;
; 518  : 	return (_Cat);

  00004	8a 45 ff	 mov	 al, BYTE PTR __Cat$[ebp]

; 519  : 	}

  00007	c9		 leave
  00008	c3		 ret	 0
??$_Ptr_cat@UEXTRAITEMSLOT@@U1@@std@@YA?AU_Nonscalar_ptr_iterator_tag@0@PAUEXTRAITEMSLOT@@0@Z ENDP ; std::_Ptr_cat<EXTRAITEMSLOT,EXTRAITEMSLOT>
_TEXT	ENDS
PUBLIC	??$_Ptr_cat@UNewShopPullDownItem@@U1@@std@@YA?AU_Nonscalar_ptr_iterator_tag@0@PAUNewShopPullDownItem@@0@Z ; std::_Ptr_cat<NewShopPullDownItem,NewShopPullDownItem>
; Function compile flags: /Ogsp
;	COMDAT ??$_Ptr_cat@UNewShopPullDownItem@@U1@@std@@YA?AU_Nonscalar_ptr_iterator_tag@0@PAUNewShopPullDownItem@@0@Z
_TEXT	SEGMENT
__Cat$ = -1						; size = 1
___formal$ = 8						; size = 4
___formal$ = 12						; size = 4
??$_Ptr_cat@UNewShopPullDownItem@@U1@@std@@YA?AU_Nonscalar_ptr_iterator_tag@0@PAUNewShopPullDownItem@@0@Z PROC ; std::_Ptr_cat<NewShopPullDownItem,NewShopPullDownItem>, COMDAT

; 516  : 	{	// return pointer category from pointers

  00000	55		 push	 ebp
  00001	8b ec		 mov	 ebp, esp
  00003	51		 push	 ecx

; 517  : 	typename _Ptr_cat_helper<_Elem1, _Elem2>::_Type _Cat;
; 518  : 	return (_Cat);

  00004	8a 45 ff	 mov	 al, BYTE PTR __Cat$[ebp]

; 519  : 	}

  00007	c9		 leave
  00008	c3		 ret	 0
??$_Ptr_cat@UNewShopPullDownItem@@U1@@std@@YA?AU_Nonscalar_ptr_iterator_tag@0@PAUNewShopPullDownItem@@0@Z ENDP ; std::_Ptr_cat<NewShopPullDownItem,NewShopPullDownItem>
_TEXT	ENDS
PUBLIC	??$_Ptr_cat@UMaterialCompoundTargetItemInfo@ItemMaterialCompoundWnd@@U12@@std@@YA?AU_Nonscalar_ptr_iterator_tag@0@PAUMaterialCompoundTargetItemInfo@ItemMaterialCompoundWnd@@0@Z ; std::_Ptr_cat<ItemMaterialCompoundWnd::MaterialCompoundTargetItemInfo,ItemMaterialCompoundWnd::MaterialCompoundTargetItemInfo>
; Function compile flags: /Ogsp
;	COMDAT ??$_Ptr_cat@UMaterialCompoundTargetItemInfo@ItemMaterialCompoundWnd@@U12@@std@@YA?AU_Nonscalar_ptr_iterator_tag@0@PAUMaterialCompoundTargetItemInfo@ItemMaterialCompoundWnd@@0@Z
_TEXT	SEGMENT
__Cat$ = -1						; size = 1
___formal$ = 8						; size = 4
___formal$ = 12						; size = 4
??$_Ptr_cat@UMaterialCompoundTargetItemInfo@ItemMaterialCompoundWnd@@U12@@std@@YA?AU_Nonscalar_ptr_iterator_tag@0@PAUMaterialCompoundTargetItemInfo@ItemMaterialCompoundWnd@@0@Z PROC ; std::_Ptr_cat<ItemMaterialCompoundWnd::MaterialCompoundTargetItemInfo,ItemMaterialCompoundWnd::MaterialCompoundTargetItemInfo>, COMDAT

; 516  : 	{	// return pointer category from pointers

  00000	55		 push	 ebp
  00001	8b ec		 mov	 ebp, esp
  00003	51		 push	 ecx

; 517  : 	typename _Ptr_cat_helper<_Elem1, _Elem2>::_Type _Cat;
; 518  : 	return (_Cat);

  00004	8a 45 ff	 mov	 al, BYTE PTR __Cat$[ebp]

; 519  : 	}

  00007	c9		 leave
  00008	c3		 ret	 0
??$_Ptr_cat@UMaterialCompoundTargetItemInfo@ItemMaterialCompoundWnd@@U12@@std@@YA?AU_Nonscalar_ptr_iterator_tag@0@PAUMaterialCompoundTargetItemInfo@ItemMaterialCompoundWnd@@0@Z ENDP ; std::_Ptr_cat<ItemMaterialCompoundWnd::MaterialCompoundTargetItemInfo,ItemMaterialCompoundWnd::MaterialCompoundTargetItemInfo>
_TEXT	ENDS
PUBLIC	??$_Construct@UMaterialCompoundTargetItemInfo@ItemMaterialCompoundWnd@@ABU12@@std@@YAXPAUMaterialCompoundTargetItemInfo@ItemMaterialCompoundWnd@@ABU12@@Z ; std::_Construct<ItemMaterialCompoundWnd::MaterialCompoundTargetItemInfo,ItemMaterialCompoundWnd::MaterialCompoundTargetItemInfo const &>
; Function compile flags: /Ogsp
; File c:\program files (x86)\microsoft visual studio 10.0\vc\include\xmemory
;	COMDAT ??$_Construct@UMaterialCompoundTargetItemInfo@ItemMaterialCompoundWnd@@ABU12@@std@@YAXPAUMaterialCompoundTargetItemInfo@ItemMaterialCompoundWnd@@ABU12@@Z
_TEXT	SEGMENT
__Ptr$ = 8						; size = 4
__Val$ = 12						; size = 4
??$_Construct@UMaterialCompoundTargetItemInfo@ItemMaterialCompoundWnd@@ABU12@@std@@YAXPAUMaterialCompoundTargetItemInfo@ItemMaterialCompoundWnd@@ABU12@@Z PROC ; std::_Construct<ItemMaterialCompoundWnd::MaterialCompoundTargetItemInfo,ItemMaterialCompoundWnd::MaterialCompoundTargetItemInfo const &>, COMDAT

; 46   : 	{	// construct object at _Ptr with value _Val

  00000	55		 push	 ebp
  00001	8b ec		 mov	 ebp, esp
  00003	57		 push	 edi

; 47   : 	void _FARQ *_Vptr = _Ptr;
; 48   : 	::new (_Vptr) _Ty1(_STD forward<_Ty2>(_Val));

  00004	8b 7d 08	 mov	 edi, DWORD PTR __Ptr$[ebp]
  00007	85 ff		 test	 edi, edi
  00009	74 08		 je	 SHORT $LN3@Construct
  0000b	56		 push	 esi
  0000c	8b 75 0c	 mov	 esi, DWORD PTR __Val$[ebp]
  0000f	a5		 movsd
  00010	a5		 movsd
  00011	a5		 movsd
  00012	5e		 pop	 esi
$LN3@Construct:
  00013	5f		 pop	 edi

; 49   : 	}

  00014	5d		 pop	 ebp
  00015	c3		 ret	 0
??$_Construct@UMaterialCompoundTargetItemInfo@ItemMaterialCompoundWnd@@ABU12@@std@@YAXPAUMaterialCompoundTargetItemInfo@ItemMaterialCompoundWnd@@ABU12@@Z ENDP ; std::_Construct<ItemMaterialCompoundWnd::MaterialCompoundTargetItemInfo,ItemMaterialCompoundWnd::MaterialCompoundTargetItemInfo const &>
_TEXT	ENDS
PUBLIC	??0EXTRAITEMSLOT@@QAE@ABU0@@Z			; EXTRAITEMSLOT::EXTRAITEMSLOT
EXTRN	__imp_??0ioHashString@@QAE@ABV0@@Z:PROC
;	COMDAT xdata$x
xdata$x	SEGMENT
__unwindtable$??0EXTRAITEMSLOT@@QAE@ABU0@@Z DD 0ffffffffH
	DD	FLAT:__unwindfunclet$??0EXTRAITEMSLOT@@QAE@ABU0@@Z$0
__ehfuncinfo$??0EXTRAITEMSLOT@@QAE@ABU0@@Z DD 019930522H
	DD	01H
	DD	FLAT:__unwindtable$??0EXTRAITEMSLOT@@QAE@ABU0@@Z
	DD	2 DUP(00H)
	DD	2 DUP(00H)
	DD	00H
	DD	01H
; Function compile flags: /Ogsp
xdata$x	ENDS
;	COMDAT ??0EXTRAITEMSLOT@@QAE@ABU0@@Z
_TEXT	SEGMENT
_this$ = -16						; size = 4
__$EHRec$ = -12						; size = 12
___that$ = 8						; size = 4
??0EXTRAITEMSLOT@@QAE@ABU0@@Z PROC			; EXTRAITEMSLOT::EXTRAITEMSLOT, COMDAT
; _this$ = ecx
  00000	6a 04		 push	 4
  00002	b8 00 00 00 00	 mov	 eax, __ehhandler$??0EXTRAITEMSLOT@@QAE@ABU0@@Z
  00007	e8 00 00 00 00	 call	 __EH_prolog3
  0000c	8b f1		 mov	 esi, ecx
  0000e	89 75 f0	 mov	 DWORD PTR _this$[ebp], esi
  00011	8b 7d 08	 mov	 edi, DWORD PTR ___that$[ebp]
  00014	8b 07		 mov	 eax, DWORD PTR [edi]
  00016	89 06		 mov	 DWORD PTR [esi], eax
  00018	8b 47 04	 mov	 eax, DWORD PTR [edi+4]
  0001b	89 46 04	 mov	 DWORD PTR [esi+4], eax
  0001e	8b 47 08	 mov	 eax, DWORD PTR [edi+8]
  00021	89 46 08	 mov	 DWORD PTR [esi+8], eax
  00024	8b 47 0c	 mov	 eax, DWORD PTR [edi+12]
  00027	89 46 0c	 mov	 DWORD PTR [esi+12], eax
  0002a	8b 47 10	 mov	 eax, DWORD PTR [edi+16]
  0002d	8b 1d 00 00 00
	00		 mov	 ebx, DWORD PTR __imp_??0ioHashString@@QAE@ABV0@@Z
  00033	89 46 10	 mov	 DWORD PTR [esi+16], eax
  00036	8b 47 14	 mov	 eax, DWORD PTR [edi+20]
  00039	89 46 14	 mov	 DWORD PTR [esi+20], eax
  0003c	8b 47 18	 mov	 eax, DWORD PTR [edi+24]
  0003f	89 46 18	 mov	 DWORD PTR [esi+24], eax
  00042	8b 47 1c	 mov	 eax, DWORD PTR [edi+28]
  00045	89 46 1c	 mov	 DWORD PTR [esi+28], eax
  00048	8b 47 20	 mov	 eax, DWORD PTR [edi+32]
  0004b	89 46 20	 mov	 DWORD PTR [esi+32], eax
  0004e	66 8b 47 24	 mov	 ax, WORD PTR [edi+36]
  00052	66 89 46 24	 mov	 WORD PTR [esi+36], ax
  00056	8a 47 26	 mov	 al, BYTE PTR [edi+38]
  00059	88 46 26	 mov	 BYTE PTR [esi+38], al
  0005c	8d 47 28	 lea	 eax, DWORD PTR [edi+40]
  0005f	50		 push	 eax
  00060	8d 4e 28	 lea	 ecx, DWORD PTR [esi+40]
  00063	ff d3		 call	 ebx
  00065	83 65 fc 00	 and	 DWORD PTR __$EHRec$[ebp+8], 0
  00069	83 c7 38	 add	 edi, 56			; 00000038H
  0006c	57		 push	 edi
  0006d	8d 4e 38	 lea	 ecx, DWORD PTR [esi+56]
  00070	ff d3		 call	 ebx
  00072	8b c6		 mov	 eax, esi
  00074	e8 00 00 00 00	 call	 __EH_epilog3
  00079	c2 04 00	 ret	 4
_TEXT	ENDS
;	COMDAT text$x
text$x	SEGMENT
__unwindfunclet$??0EXTRAITEMSLOT@@QAE@ABU0@@Z$0:
  00000	8b 4d f0	 mov	 ecx, DWORD PTR _this$[ebp]
  00003	83 c1 28	 add	 ecx, 40			; 00000028H
  00006	ff 25 00 00 00
	00		 jmp	 DWORD PTR __imp_??1ioHashString@@QAE@XZ
__ehhandler$??0EXTRAITEMSLOT@@QAE@ABU0@@Z:
  0000c	8b 54 24 08	 mov	 edx, DWORD PTR [esp+8]
  00010	8d 42 0c	 lea	 eax, DWORD PTR [edx+12]
  00013	8b 4a ec	 mov	 ecx, DWORD PTR [edx-20]
  00016	33 c8		 xor	 ecx, eax
  00018	e8 00 00 00 00	 call	 @__security_check_cookie@4
  0001d	b8 00 00 00 00	 mov	 eax, OFFSET __ehfuncinfo$??0EXTRAITEMSLOT@@QAE@ABU0@@Z
  00022	e9 00 00 00 00	 jmp	 ___CxxFrameHandler3
text$x	ENDS
??0EXTRAITEMSLOT@@QAE@ABU0@@Z ENDP			; EXTRAITEMSLOT::EXTRAITEMSLOT
PUBLIC	??0NewShopPullDownItem@@QAE@ABU0@@Z		; NewShopPullDownItem::NewShopPullDownItem
;	COMDAT xdata$x
xdata$x	SEGMENT
__unwindtable$??0NewShopPullDownItem@@QAE@ABU0@@Z DD 0ffffffffH
	DD	FLAT:__unwindfunclet$??0NewShopPullDownItem@@QAE@ABU0@@Z$0
	DD	00H
	DD	FLAT:__unwindfunclet$??0NewShopPullDownItem@@QAE@ABU0@@Z$1
__ehfuncinfo$??0NewShopPullDownItem@@QAE@ABU0@@Z DD 019930522H
	DD	02H
	DD	FLAT:__unwindtable$??0NewShopPullDownItem@@QAE@ABU0@@Z
	DD	2 DUP(00H)
	DD	2 DUP(00H)
	DD	00H
	DD	01H
; Function compile flags: /Ogsp
xdata$x	ENDS
;	COMDAT ??0NewShopPullDownItem@@QAE@ABU0@@Z
_TEXT	SEGMENT
_this$ = -16						; size = 4
__$EHRec$ = -12						; size = 12
___that$ = 8						; size = 4
??0NewShopPullDownItem@@QAE@ABU0@@Z PROC		; NewShopPullDownItem::NewShopPullDownItem, COMDAT
; _this$ = ecx
  00000	6a 04		 push	 4
  00002	b8 00 00 00 00	 mov	 eax, __ehhandler$??0NewShopPullDownItem@@QAE@ABU0@@Z
  00007	e8 00 00 00 00	 call	 __EH_prolog3
  0000c	8b f1		 mov	 esi, ecx
  0000e	89 75 f0	 mov	 DWORD PTR _this$[ebp], esi
  00011	8b 7d 08	 mov	 edi, DWORD PTR ___that$[ebp]
  00014	8b 1d 00 00 00
	00		 mov	 ebx, DWORD PTR __imp_??0ioHashString@@QAE@ABV0@@Z
  0001a	57		 push	 edi
  0001b	ff d3		 call	 ebx
  0001d	8b 47 10	 mov	 eax, DWORD PTR [edi+16]
  00020	83 65 fc 00	 and	 DWORD PTR __$EHRec$[ebp+8], 0
  00024	89 46 10	 mov	 DWORD PTR [esi+16], eax
  00027	8b 47 14	 mov	 eax, DWORD PTR [edi+20]
  0002a	89 46 14	 mov	 DWORD PTR [esi+20], eax
  0002d	8a 47 18	 mov	 al, BYTE PTR [edi+24]
  00030	88 46 18	 mov	 BYTE PTR [esi+24], al
  00033	8b 47 1c	 mov	 eax, DWORD PTR [edi+28]
  00036	89 46 1c	 mov	 DWORD PTR [esi+28], eax
  00039	8a 47 20	 mov	 al, BYTE PTR [edi+32]
  0003c	88 46 20	 mov	 BYTE PTR [esi+32], al
  0003f	8d 47 24	 lea	 eax, DWORD PTR [edi+36]
  00042	50		 push	 eax
  00043	8d 4e 24	 lea	 ecx, DWORD PTR [esi+36]
  00046	ff d3		 call	 ebx
  00048	8b 47 34	 mov	 eax, DWORD PTR [edi+52]
  0004b	89 46 34	 mov	 DWORD PTR [esi+52], eax
  0004e	8a 47 38	 mov	 al, BYTE PTR [edi+56]
  00051	88 46 38	 mov	 BYTE PTR [esi+56], al
  00054	8d 47 3c	 lea	 eax, DWORD PTR [edi+60]
  00057	50		 push	 eax
  00058	8d 4e 3c	 lea	 ecx, DWORD PTR [esi+60]
  0005b	c6 45 fc 01	 mov	 BYTE PTR __$EHRec$[ebp+8], 1
  0005f	ff d3		 call	 ebx
  00061	8b 47 4c	 mov	 eax, DWORD PTR [edi+76]
  00064	89 46 4c	 mov	 DWORD PTR [esi+76], eax
  00067	8b c6		 mov	 eax, esi
  00069	e8 00 00 00 00	 call	 __EH_epilog3
  0006e	c2 04 00	 ret	 4
_TEXT	ENDS
;	COMDAT text$x
text$x	SEGMENT
__unwindfunclet$??0NewShopPullDownItem@@QAE@ABU0@@Z$0:
  00000	8b 4d f0	 mov	 ecx, DWORD PTR _this$[ebp]
  00003	ff 25 00 00 00
	00		 jmp	 DWORD PTR __imp_??1ioHashString@@QAE@XZ
__unwindfunclet$??0NewShopPullDownItem@@QAE@ABU0@@Z$1:
  00009	8b 4d f0	 mov	 ecx, DWORD PTR _this$[ebp]
  0000c	83 c1 24	 add	 ecx, 36			; 00000024H
  0000f	ff 25 00 00 00
	00		 jmp	 DWORD PTR __imp_??1ioHashString@@QAE@XZ
__ehhandler$??0NewShopPullDownItem@@QAE@ABU0@@Z:
  00015	8b 54 24 08	 mov	 edx, DWORD PTR [esp+8]
  00019	8d 42 0c	 lea	 eax, DWORD PTR [edx+12]
  0001c	8b 4a ec	 mov	 ecx, DWORD PTR [edx-20]
  0001f	33 c8		 xor	 ecx, eax
  00021	e8 00 00 00 00	 call	 @__security_check_cookie@4
  00026	b8 00 00 00 00	 mov	 eax, OFFSET __ehfuncinfo$??0NewShopPullDownItem@@QAE@ABU0@@Z
  0002b	e9 00 00 00 00	 jmp	 ___CxxFrameHandler3
text$x	ENDS
??0NewShopPullDownItem@@QAE@ABU0@@Z ENDP		; NewShopPullDownItem::NewShopPullDownItem
PUBLIC	??0tagAlchemicItemInfo@@QAE@ABU0@@Z		; tagAlchemicItemInfo::tagAlchemicItemInfo
; Function compile flags: /Ogsp
;	COMDAT ??0tagAlchemicItemInfo@@QAE@ABU0@@Z
_TEXT	SEGMENT
___that$ = 8						; size = 4
??0tagAlchemicItemInfo@@QAE@ABU0@@Z PROC		; tagAlchemicItemInfo::tagAlchemicItemInfo, COMDAT
; _this$ = ecx
  00000	55		 push	 ebp
  00001	8b ec		 mov	 ebp, esp
  00003	56		 push	 esi
  00004	57		 push	 edi
  00005	8b 7d 08	 mov	 edi, DWORD PTR ___that$[ebp]
  00008	8b 07		 mov	 eax, DWORD PTR [edi]
  0000a	8b f1		 mov	 esi, ecx
  0000c	89 06		 mov	 DWORD PTR [esi], eax
  0000e	8b 47 04	 mov	 eax, DWORD PTR [edi+4]
  00011	89 46 04	 mov	 DWORD PTR [esi+4], eax
  00014	8d 47 08	 lea	 eax, DWORD PTR [edi+8]
  00017	50		 push	 eax
  00018	8d 4e 08	 lea	 ecx, DWORD PTR [esi+8]
  0001b	ff 15 00 00 00
	00		 call	 DWORD PTR __imp_??0ioHashString@@QAE@ABV0@@Z
  00021	8a 47 18	 mov	 al, BYTE PTR [edi+24]
  00024	88 46 18	 mov	 BYTE PTR [esi+24], al
  00027	5f		 pop	 edi
  00028	8b c6		 mov	 eax, esi
  0002a	5e		 pop	 esi
  0002b	5d		 pop	 ebp
  0002c	c2 04 00	 ret	 4
??0tagAlchemicItemInfo@@QAE@ABU0@@Z ENDP		; tagAlchemicItemInfo::tagAlchemicItemInfo
_TEXT	ENDS
PUBLIC	??4tagAlchemicItemInfo@@QAEAAU0@ABU0@@Z		; tagAlchemicItemInfo::operator=
EXTRN	__imp_??4ioHashString@@QAEAAV0@ABV0@@Z:PROC
; Function compile flags: /Ogsp
;	COMDAT ??4tagAlchemicItemInfo@@QAEAAU0@ABU0@@Z
_TEXT	SEGMENT
___that$ = 8						; size = 4
??4tagAlchemicItemInfo@@QAEAAU0@ABU0@@Z PROC		; tagAlchemicItemInfo::operator=, COMDAT
; _this$ = ecx
  00000	55		 push	 ebp
  00001	8b ec		 mov	 ebp, esp
  00003	56		 push	 esi
  00004	57		 push	 edi
  00005	8b 7d 08	 mov	 edi, DWORD PTR ___that$[ebp]
  00008	8b 07		 mov	 eax, DWORD PTR [edi]
  0000a	8b f1		 mov	 esi, ecx
  0000c	89 06		 mov	 DWORD PTR [esi], eax
  0000e	8b 47 04	 mov	 eax, DWORD PTR [edi+4]
  00011	89 46 04	 mov	 DWORD PTR [esi+4], eax
  00014	8d 47 08	 lea	 eax, DWORD PTR [edi+8]
  00017	50		 push	 eax
  00018	8d 4e 08	 lea	 ecx, DWORD PTR [esi+8]
  0001b	ff 15 00 00 00
	00		 call	 DWORD PTR __imp_??4ioHashString@@QAEAAV0@ABV0@@Z
  00021	8a 47 18	 mov	 al, BYTE PTR [edi+24]
  00024	88 46 18	 mov	 BYTE PTR [esi+24], al
  00027	5f		 pop	 edi
  00028	8b c6		 mov	 eax, esi
  0002a	5e		 pop	 esi
  0002b	5d		 pop	 ebp
  0002c	c2 04 00	 ret	 4
??4tagAlchemicItemInfo@@QAEAAU0@ABU0@@Z ENDP		; tagAlchemicItemInfo::operator=
_TEXT	ENDS
PUBLIC	??4EXTRAITEMSLOT@@QAEAAU0@ABU0@@Z		; EXTRAITEMSLOT::operator=
; Function compile flags: /Ogsp
;	COMDAT ??4EXTRAITEMSLOT@@QAEAAU0@ABU0@@Z
_TEXT	SEGMENT
___that$ = 8						; size = 4
??4EXTRAITEMSLOT@@QAEAAU0@ABU0@@Z PROC			; EXTRAITEMSLOT::operator=, COMDAT
; _this$ = ecx
  00000	55		 push	 ebp
  00001	8b ec		 mov	 ebp, esp
  00003	53		 push	 ebx
  00004	56		 push	 esi
  00005	8b f1		 mov	 esi, ecx
  00007	57		 push	 edi
  00008	8b 7d 08	 mov	 edi, DWORD PTR ___that$[ebp]
  0000b	8b 07		 mov	 eax, DWORD PTR [edi]
  0000d	89 06		 mov	 DWORD PTR [esi], eax
  0000f	8b 47 04	 mov	 eax, DWORD PTR [edi+4]
  00012	89 46 04	 mov	 DWORD PTR [esi+4], eax
  00015	8b 47 08	 mov	 eax, DWORD PTR [edi+8]
  00018	89 46 08	 mov	 DWORD PTR [esi+8], eax
  0001b	8b 47 0c	 mov	 eax, DWORD PTR [edi+12]
  0001e	89 46 0c	 mov	 DWORD PTR [esi+12], eax
  00021	8b 47 10	 mov	 eax, DWORD PTR [edi+16]
  00024	8b 1d 00 00 00
	00		 mov	 ebx, DWORD PTR __imp_??4ioHashString@@QAEAAV0@ABV0@@Z
  0002a	89 46 10	 mov	 DWORD PTR [esi+16], eax
  0002d	8b 47 14	 mov	 eax, DWORD PTR [edi+20]
  00030	89 46 14	 mov	 DWORD PTR [esi+20], eax
  00033	8b 47 18	 mov	 eax, DWORD PTR [edi+24]
  00036	89 46 18	 mov	 DWORD PTR [esi+24], eax
  00039	8b 47 1c	 mov	 eax, DWORD PTR [edi+28]
  0003c	89 46 1c	 mov	 DWORD PTR [esi+28], eax
  0003f	8b 47 20	 mov	 eax, DWORD PTR [edi+32]
  00042	89 46 20	 mov	 DWORD PTR [esi+32], eax
  00045	66 8b 47 24	 mov	 ax, WORD PTR [edi+36]
  00049	66 89 46 24	 mov	 WORD PTR [esi+36], ax
  0004d	8a 47 26	 mov	 al, BYTE PTR [edi+38]
  00050	88 46 26	 mov	 BYTE PTR [esi+38], al
  00053	8d 47 28	 lea	 eax, DWORD PTR [edi+40]
  00056	50		 push	 eax
  00057	8d 4e 28	 lea	 ecx, DWORD PTR [esi+40]
  0005a	ff d3		 call	 ebx
  0005c	83 c7 38	 add	 edi, 56			; 00000038H
  0005f	57		 push	 edi
  00060	8d 4e 38	 lea	 ecx, DWORD PTR [esi+56]
  00063	ff d3		 call	 ebx
  00065	5f		 pop	 edi
  00066	8b c6		 mov	 eax, esi
  00068	5e		 pop	 esi
  00069	5b		 pop	 ebx
  0006a	5d		 pop	 ebp
  0006b	c2 04 00	 ret	 4
??4EXTRAITEMSLOT@@QAEAAU0@ABU0@@Z ENDP			; EXTRAITEMSLOT::operator=
_TEXT	ENDS
PUBLIC	??4NewShopPullDownItem@@QAEAAU0@ABU0@@Z		; NewShopPullDownItem::operator=
; Function compile flags: /Ogsp
;	COMDAT ??4NewShopPullDownItem@@QAEAAU0@ABU0@@Z
_TEXT	SEGMENT
___that$ = 8						; size = 4
??4NewShopPullDownItem@@QAEAAU0@ABU0@@Z PROC		; NewShopPullDownItem::operator=, COMDAT
; _this$ = ecx
  00000	55		 push	 ebp
  00001	8b ec		 mov	 ebp, esp
  00003	53		 push	 ebx
  00004	8b 1d 00 00 00
	00		 mov	 ebx, DWORD PTR __imp_??4ioHashString@@QAEAAV0@ABV0@@Z
  0000a	56		 push	 esi
  0000b	57		 push	 edi
  0000c	8b 7d 08	 mov	 edi, DWORD PTR ___that$[ebp]
  0000f	57		 push	 edi
  00010	8b f1		 mov	 esi, ecx
  00012	ff d3		 call	 ebx
  00014	8b 47 10	 mov	 eax, DWORD PTR [edi+16]
  00017	89 46 10	 mov	 DWORD PTR [esi+16], eax
  0001a	8b 47 14	 mov	 eax, DWORD PTR [edi+20]
  0001d	89 46 14	 mov	 DWORD PTR [esi+20], eax
  00020	8a 47 18	 mov	 al, BYTE PTR [edi+24]
  00023	88 46 18	 mov	 BYTE PTR [esi+24], al
  00026	8b 47 1c	 mov	 eax, DWORD PTR [edi+28]
  00029	89 46 1c	 mov	 DWORD PTR [esi+28], eax
  0002c	8a 47 20	 mov	 al, BYTE PTR [edi+32]
  0002f	88 46 20	 mov	 BYTE PTR [esi+32], al
  00032	8d 47 24	 lea	 eax, DWORD PTR [edi+36]
  00035	50		 push	 eax
  00036	8d 4e 24	 lea	 ecx, DWORD PTR [esi+36]
  00039	ff d3		 call	 ebx
  0003b	8b 47 34	 mov	 eax, DWORD PTR [edi+52]
  0003e	89 46 34	 mov	 DWORD PTR [esi+52], eax
  00041	8a 47 38	 mov	 al, BYTE PTR [edi+56]
  00044	88 46 38	 mov	 BYTE PTR [esi+56], al
  00047	8d 47 3c	 lea	 eax, DWORD PTR [edi+60]
  0004a	50		 push	 eax
  0004b	8d 4e 3c	 lea	 ecx, DWORD PTR [esi+60]
  0004e	ff d3		 call	 ebx
  00050	8b 47 4c	 mov	 eax, DWORD PTR [edi+76]
  00053	89 46 4c	 mov	 DWORD PTR [esi+76], eax
  00056	5f		 pop	 edi
  00057	8b c6		 mov	 eax, esi
  00059	5e		 pop	 esi
  0005a	5b		 pop	 ebx
  0005b	5d		 pop	 ebp
  0005c	c2 04 00	 ret	 4
??4NewShopPullDownItem@@QAEAAU0@ABU0@@Z ENDP		; NewShopPullDownItem::operator=
_TEXT	ENDS
PUBLIC	?_Unchecked@?$_Vector_iterator@V?$_Vector_val@UMaterialCompoundTargetItemInfo@ItemMaterialCompoundWnd@@V?$allocator@UMaterialCompoundTargetItemInfo@ItemMaterialCompoundWnd@@@std@@@std@@@std@@QBEPAUMaterialCompoundTargetItemInfo@ItemMaterialCompoundWnd@@XZ ; std::_Vector_iterator<std::_Vector_val<ItemMaterialCompoundWnd::MaterialCompoundTargetItemInfo,std::allocator<ItemMaterialCompoundWnd::MaterialCompoundTargetItemInfo> > >::_Unchecked
; Function compile flags: /Ogsp
; File c:\program files (x86)\microsoft visual studio 10.0\vc\include\vector
;	COMDAT ?_Unchecked@?$_Vector_iterator@V?$_Vector_val@UMaterialCompoundTargetItemInfo@ItemMaterialCompoundWnd@@V?$allocator@UMaterialCompoundTargetItemInfo@ItemMaterialCompoundWnd@@@std@@@std@@@std@@QBEPAUMaterialCompoundTargetItemInfo@ItemMaterialCompoundWnd@@XZ
_TEXT	SEGMENT
?_Unchecked@?$_Vector_iterator@V?$_Vector_val@UMaterialCompoundTargetItemInfo@ItemMaterialCompoundWnd@@V?$allocator@UMaterialCompoundTargetItemInfo@ItemMaterialCompoundWnd@@@std@@@std@@@std@@QBEPAUMaterialCompoundTargetItemInfo@ItemMaterialCompoundWnd@@XZ PROC ; std::_Vector_iterator<std::_Vector_val<ItemMaterialCompoundWnd::MaterialCompoundTargetItemInfo,std::allocator<ItemMaterialCompoundWnd::MaterialCompoundTargetItemInfo> > >::_Unchecked, COMDAT
; _this$ = ecx

; 317  : 		return (_Unchecked_type(this->_Ptr));

  00000	8b 01		 mov	 eax, DWORD PTR [ecx]

; 318  : 		}

  00002	c3		 ret	 0
?_Unchecked@?$_Vector_iterator@V?$_Vector_val@UMaterialCompoundTargetItemInfo@ItemMaterialCompoundWnd@@V?$allocator@UMaterialCompoundTargetItemInfo@ItemMaterialCompoundWnd@@@std@@@std@@@std@@QBEPAUMaterialCompoundTargetItemInfo@ItemMaterialCompoundWnd@@XZ ENDP ; std::_Vector_iterator<std::_Vector_val<ItemMaterialCompoundWnd::MaterialCompoundTargetItemInfo,std::allocator<ItemMaterialCompoundWnd::MaterialCompoundTargetItemInfo> > >::_Unchecked
_TEXT	ENDS
PUBLIC	?_Unchecked@?$_Vector_iterator@V?$_Vector_val@UtagAlchemicItemInfo@@V?$allocator@UtagAlchemicItemInfo@@@std@@@std@@@std@@QBEPAUtagAlchemicItemInfo@@XZ ; std::_Vector_iterator<std::_Vector_val<tagAlchemicItemInfo,std::allocator<tagAlchemicItemInfo> > >::_Unchecked
; Function compile flags: /Ogsp
;	COMDAT ?_Unchecked@?$_Vector_iterator@V?$_Vector_val@UtagAlchemicItemInfo@@V?$allocator@UtagAlchemicItemInfo@@@std@@@std@@@std@@QBEPAUtagAlchemicItemInfo@@XZ
_TEXT	SEGMENT
?_Unchecked@?$_Vector_iterator@V?$_Vector_val@UtagAlchemicItemInfo@@V?$allocator@UtagAlchemicItemInfo@@@std@@@std@@@std@@QBEPAUtagAlchemicItemInfo@@XZ PROC ; std::_Vector_iterator<std::_Vector_val<tagAlchemicItemInfo,std::allocator<tagAlchemicItemInfo> > >::_Unchecked, COMDAT
; _this$ = ecx

; 317  : 		return (_Unchecked_type(this->_Ptr));

  00000	8b 01		 mov	 eax, DWORD PTR [ecx]

; 318  : 		}

  00002	c3		 ret	 0
?_Unchecked@?$_Vector_iterator@V?$_Vector_val@UtagAlchemicItemInfo@@V?$allocator@UtagAlchemicItemInfo@@@std@@@std@@@std@@QBEPAUtagAlchemicItemInfo@@XZ ENDP ; std::_Vector_iterator<std::_Vector_val<tagAlchemicItemInfo,std::allocator<tagAlchemicItemInfo> > >::_Unchecked
_TEXT	ENDS
PUBLIC	??$_Ptr_cat@V?$_Vector_const_iterator@V?$_Vector_val@UEXTRAITEMSLOT@@V?$allocator@UEXTRAITEMSLOT@@@std@@@std@@@std@@PAUEXTRAITEMSLOT@@@std@@YA?AU_Nonscalar_ptr_iterator_tag@0@AAV?$_Vector_const_iterator@V?$_Vector_val@UEXTRAITEMSLOT@@V?$allocator@UEXTRAITEMSLOT@@@std@@@std@@@0@AAPAUEXTRAITEMSLOT@@@Z ; std::_Ptr_cat<std::_Vector_const_iterator<std::_Vector_val<EXTRAITEMSLOT,std::allocator<EXTRAITEMSLOT> > >,EXTRAITEMSLOT *>
; Function compile flags: /Ogsp
; File c:\program files (x86)\microsoft visual studio 10.0\vc\include\xutility
;	COMDAT ??$_Ptr_cat@V?$_Vector_const_iterator@V?$_Vector_val@UEXTRAITEMSLOT@@V?$allocator@UEXTRAITEMSLOT@@@std@@@std@@@std@@PAUEXTRAITEMSLOT@@@std@@YA?AU_Nonscalar_ptr_iterator_tag@0@AAV?$_Vector_const_iterator@V?$_Vector_val@UEXTRAITEMSLOT@@V?$allocator@UEXTRAITEMSLOT@@@std@@@std@@@0@AAPAUEXTRAITEMSLOT@@@Z
_TEXT	SEGMENT
__Cat$ = -1						; size = 1
___formal$ = 8						; size = 4
___formal$ = 12						; size = 4
??$_Ptr_cat@V?$_Vector_const_iterator@V?$_Vector_val@UEXTRAITEMSLOT@@V?$allocator@UEXTRAITEMSLOT@@@std@@@std@@@std@@PAUEXTRAITEMSLOT@@@std@@YA?AU_Nonscalar_ptr_iterator_tag@0@AAV?$_Vector_const_iterator@V?$_Vector_val@UEXTRAITEMSLOT@@V?$allocator@UEXTRAITEMSLOT@@@std@@@std@@@0@AAPAUEXTRAITEMSLOT@@@Z PROC ; std::_Ptr_cat<std::_Vector_const_iterator<std::_Vector_val<EXTRAITEMSLOT,std::allocator<EXTRAITEMSLOT> > >,EXTRAITEMSLOT *>, COMDAT

; 485  : 	{	// return pointer category from arbitrary arguments

  00000	55		 push	 ebp
  00001	8b ec		 mov	 ebp, esp
  00003	51		 push	 ecx

; 486  : 	_Nonscalar_ptr_iterator_tag _Cat;
; 487  : 	return (_Cat);

  00004	8a 45 ff	 mov	 al, BYTE PTR __Cat$[ebp]

; 488  : 	}

  00007	c9		 leave
  00008	c3		 ret	 0
??$_Ptr_cat@V?$_Vector_const_iterator@V?$_Vector_val@UEXTRAITEMSLOT@@V?$allocator@UEXTRAITEMSLOT@@@std@@@std@@@std@@PAUEXTRAITEMSLOT@@@std@@YA?AU_Nonscalar_ptr_iterator_tag@0@AAV?$_Vector_const_iterator@V?$_Vector_val@UEXTRAITEMSLOT@@V?$allocator@UEXTRAITEMSLOT@@@std@@@std@@@0@AAPAUEXTRAITEMSLOT@@@Z ENDP ; std::_Ptr_cat<std::_Vector_const_iterator<std::_Vector_val<EXTRAITEMSLOT,std::allocator<EXTRAITEMSLOT> > >,EXTRAITEMSLOT *>
_TEXT	ENDS
PUBLIC	??$_Val_type@PAUEXTRAITEMSLOT@@@std@@YAPAUEXTRAITEMSLOT@@PAU1@@Z ; std::_Val_type<EXTRAITEMSLOT *>
; Function compile flags: /Ogsp
;	COMDAT ??$_Val_type@PAUEXTRAITEMSLOT@@@std@@YAPAUEXTRAITEMSLOT@@PAU1@@Z
_TEXT	SEGMENT
___formal$ = 8						; size = 4
??$_Val_type@PAUEXTRAITEMSLOT@@@std@@YAPAUEXTRAITEMSLOT@@PAU1@@Z PROC ; std::_Val_type<EXTRAITEMSLOT *>, COMDAT

; 790  : 	return (0);

  00000	33 c0		 xor	 eax, eax

; 791  : 	}

  00002	c3		 ret	 0
??$_Val_type@PAUEXTRAITEMSLOT@@@std@@YAPAUEXTRAITEMSLOT@@PAU1@@Z ENDP ; std::_Val_type<EXTRAITEMSLOT *>
_TEXT	ENDS
PUBLIC	??$_Val_type@PAUNewShopPullDownItem@@@std@@YAPAUNewShopPullDownItem@@PAU1@@Z ; std::_Val_type<NewShopPullDownItem *>
; Function compile flags: /Ogsp
;	COMDAT ??$_Val_type@PAUNewShopPullDownItem@@@std@@YAPAUNewShopPullDownItem@@PAU1@@Z
_TEXT	SEGMENT
___formal$ = 8						; size = 4
??$_Val_type@PAUNewShopPullDownItem@@@std@@YAPAUNewShopPullDownItem@@PAU1@@Z PROC ; std::_Val_type<NewShopPullDownItem *>, COMDAT

; 790  : 	return (0);

  00000	33 c0		 xor	 eax, eax

; 791  : 	}

  00002	c3		 ret	 0
??$_Val_type@PAUNewShopPullDownItem@@@std@@YAPAUNewShopPullDownItem@@PAU1@@Z ENDP ; std::_Val_type<NewShopPullDownItem *>
_TEXT	ENDS
PUBLIC	??$move@AAUtagAlchemicItemInfo@@@std@@YA$$QAUtagAlchemicItemInfo@@AAU1@@Z ; std::move<tagAlchemicItemInfo &>
; Function compile flags: /Ogsp
; File c:\program files (x86)\microsoft visual studio 10.0\vc\include\utility
;	COMDAT ??$move@AAUtagAlchemicItemInfo@@@std@@YA$$QAUtagAlchemicItemInfo@@AAU1@@Z
_TEXT	SEGMENT
__Arg$ = 8						; size = 4
??$move@AAUtagAlchemicItemInfo@@@std@@YA$$QAUtagAlchemicItemInfo@@AAU1@@Z PROC ; std::move<tagAlchemicItemInfo &>, COMDAT

; 86   : 	{	// forward _Arg as movable

  00000	55		 push	 ebp
  00001	8b ec		 mov	 ebp, esp

; 87   : 	return ((typename tr1::_Remove_reference<_Ty>::_Type&&)_Arg);

  00003	8b 45 08	 mov	 eax, DWORD PTR __Arg$[ebp]

; 88   : 	}

  00006	5d		 pop	 ebp
  00007	c3		 ret	 0
??$move@AAUtagAlchemicItemInfo@@@std@@YA$$QAUtagAlchemicItemInfo@@AAU1@@Z ENDP ; std::move<tagAlchemicItemInfo &>
_TEXT	ENDS
PUBLIC	??$move@AAUEXTRAITEMSLOT@@@std@@YA$$QAUEXTRAITEMSLOT@@AAU1@@Z ; std::move<EXTRAITEMSLOT &>
; Function compile flags: /Ogsp
;	COMDAT ??$move@AAUEXTRAITEMSLOT@@@std@@YA$$QAUEXTRAITEMSLOT@@AAU1@@Z
_TEXT	SEGMENT
__Arg$ = 8						; size = 4
??$move@AAUEXTRAITEMSLOT@@@std@@YA$$QAUEXTRAITEMSLOT@@AAU1@@Z PROC ; std::move<EXTRAITEMSLOT &>, COMDAT

; 86   : 	{	// forward _Arg as movable

  00000	55		 push	 ebp
  00001	8b ec		 mov	 ebp, esp

; 87   : 	return ((typename tr1::_Remove_reference<_Ty>::_Type&&)_Arg);

  00003	8b 45 08	 mov	 eax, DWORD PTR __Arg$[ebp]

; 88   : 	}

  00006	5d		 pop	 ebp
  00007	c3		 ret	 0
??$move@AAUEXTRAITEMSLOT@@@std@@YA$$QAUEXTRAITEMSLOT@@AAU1@@Z ENDP ; std::move<EXTRAITEMSLOT &>
_TEXT	ENDS
PUBLIC	??$move@AAUNewShopPullDownItem@@@std@@YA$$QAUNewShopPullDownItem@@AAU1@@Z ; std::move<NewShopPullDownItem &>
; Function compile flags: /Ogsp
;	COMDAT ??$move@AAUNewShopPullDownItem@@@std@@YA$$QAUNewShopPullDownItem@@AAU1@@Z
_TEXT	SEGMENT
__Arg$ = 8						; size = 4
??$move@AAUNewShopPullDownItem@@@std@@YA$$QAUNewShopPullDownItem@@AAU1@@Z PROC ; std::move<NewShopPullDownItem &>, COMDAT

; 86   : 	{	// forward _Arg as movable

  00000	55		 push	 ebp
  00001	8b ec		 mov	 ebp, esp

; 87   : 	return ((typename tr1::_Remove_reference<_Ty>::_Type&&)_Arg);

  00003	8b 45 08	 mov	 eax, DWORD PTR __Arg$[ebp]

; 88   : 	}

  00006	5d		 pop	 ebp
  00007	c3		 ret	 0
??$move@AAUNewShopPullDownItem@@@std@@YA$$QAUNewShopPullDownItem@@AAU1@@Z ENDP ; std::move<NewShopPullDownItem &>
_TEXT	ENDS
PUBLIC	??$move@AAUMaterialCompoundTargetItemInfo@ItemMaterialCompoundWnd@@@std@@YA$$QAUMaterialCompoundTargetItemInfo@ItemMaterialCompoundWnd@@AAU12@@Z ; std::move<ItemMaterialCompoundWnd::MaterialCompoundTargetItemInfo &>
; Function compile flags: /Ogsp
;	COMDAT ??$move@AAUMaterialCompoundTargetItemInfo@ItemMaterialCompoundWnd@@@std@@YA$$QAUMaterialCompoundTargetItemInfo@ItemMaterialCompoundWnd@@AAU12@@Z
_TEXT	SEGMENT
__Arg$ = 8						; size = 4
??$move@AAUMaterialCompoundTargetItemInfo@ItemMaterialCompoundWnd@@@std@@YA$$QAUMaterialCompoundTargetItemInfo@ItemMaterialCompoundWnd@@AAU12@@Z PROC ; std::move<ItemMaterialCompoundWnd::MaterialCompoundTargetItemInfo &>, COMDAT

; 86   : 	{	// forward _Arg as movable

  00000	55		 push	 ebp
  00001	8b ec		 mov	 ebp, esp

; 87   : 	return ((typename tr1::_Remove_reference<_Ty>::_Type&&)_Arg);

  00003	8b 45 08	 mov	 eax, DWORD PTR __Arg$[ebp]

; 88   : 	}

  00006	5d		 pop	 ebp
  00007	c3		 ret	 0
??$move@AAUMaterialCompoundTargetItemInfo@ItemMaterialCompoundWnd@@@std@@YA$$QAUMaterialCompoundTargetItemInfo@ItemMaterialCompoundWnd@@AAU12@@Z ENDP ; std::move<ItemMaterialCompoundWnd::MaterialCompoundTargetItemInfo &>
_TEXT	ENDS
PUBLIC	??$_Val_type@PAUtagAlchemicItemInfo@@@std@@YAPAUtagAlchemicItemInfo@@PAU1@@Z ; std::_Val_type<tagAlchemicItemInfo *>
; Function compile flags: /Ogsp
; File c:\program files (x86)\microsoft visual studio 10.0\vc\include\xutility
;	COMDAT ??$_Val_type@PAUtagAlchemicItemInfo@@@std@@YAPAUtagAlchemicItemInfo@@PAU1@@Z
_TEXT	SEGMENT
___formal$ = 8						; size = 4
??$_Val_type@PAUtagAlchemicItemInfo@@@std@@YAPAUtagAlchemicItemInfo@@PAU1@@Z PROC ; std::_Val_type<tagAlchemicItemInfo *>, COMDAT

; 790  : 	return (0);

  00000	33 c0		 xor	 eax, eax

; 791  : 	}

  00002	c3		 ret	 0
??$_Val_type@PAUtagAlchemicItemInfo@@@std@@YAPAUtagAlchemicItemInfo@@PAU1@@Z ENDP ; std::_Val_type<tagAlchemicItemInfo *>
_TEXT	ENDS
PUBLIC	??$_Val_type@PAUMaterialCompoundTargetItemInfo@ItemMaterialCompoundWnd@@@std@@YAPAUMaterialCompoundTargetItemInfo@ItemMaterialCompoundWnd@@PAU12@@Z ; std::_Val_type<ItemMaterialCompoundWnd::MaterialCompoundTargetItemInfo *>
; Function compile flags: /Ogsp
;	COMDAT ??$_Val_type@PAUMaterialCompoundTargetItemInfo@ItemMaterialCompoundWnd@@@std@@YAPAUMaterialCompoundTargetItemInfo@ItemMaterialCompoundWnd@@PAU12@@Z
_TEXT	SEGMENT
___formal$ = 8						; size = 4
??$_Val_type@PAUMaterialCompoundTargetItemInfo@ItemMaterialCompoundWnd@@@std@@YAPAUMaterialCompoundTargetItemInfo@ItemMaterialCompoundWnd@@PAU12@@Z PROC ; std::_Val_type<ItemMaterialCompoundWnd::MaterialCompoundTargetItemInfo *>, COMDAT

; 790  : 	return (0);

  00000	33 c0		 xor	 eax, eax

; 791  : 	}

  00002	c3		 ret	 0
??$_Val_type@PAUMaterialCompoundTargetItemInfo@ItemMaterialCompoundWnd@@@std@@YAPAUMaterialCompoundTargetItemInfo@ItemMaterialCompoundWnd@@PAU12@@Z ENDP ; std::_Val_type<ItemMaterialCompoundWnd::MaterialCompoundTargetItemInfo *>
_TEXT	ENDS
PUBLIC	??D?$_Vector_const_iterator@V?$_Vector_val@UEXTRAITEMSLOT@@V?$allocator@UEXTRAITEMSLOT@@@std@@@std@@@std@@QBEABUEXTRAITEMSLOT@@XZ ; std::_Vector_const_iterator<std::_Vector_val<EXTRAITEMSLOT,std::allocator<EXTRAITEMSLOT> > >::operator*
; Function compile flags: /Ogsp
; File c:\program files (x86)\microsoft visual studio 10.0\vc\include\vector
;	COMDAT ??D?$_Vector_const_iterator@V?$_Vector_val@UEXTRAITEMSLOT@@V?$allocator@UEXTRAITEMSLOT@@@std@@@std@@@std@@QBEABUEXTRAITEMSLOT@@XZ
_TEXT	SEGMENT
??D?$_Vector_const_iterator@V?$_Vector_val@UEXTRAITEMSLOT@@V?$allocator@UEXTRAITEMSLOT@@@std@@@std@@@std@@QBEABUEXTRAITEMSLOT@@XZ PROC ; std::_Vector_const_iterator<std::_Vector_val<EXTRAITEMSLOT,std::allocator<EXTRAITEMSLOT> > >::operator*, COMDAT
; _this$ = ecx

; 64   :  #if _ITERATOR_DEBUG_LEVEL == 2
; 65   : 		if (this->_Getcont() == 0
; 66   : 			|| this->_Ptr == 0
; 67   : 			|| this->_Ptr < ((_Myvec *)this->_Getcont())->_Myfirst
; 68   : 			|| ((_Myvec *)this->_Getcont())->_Mylast <= this->_Ptr)
; 69   : 			{	// report error
; 70   : 			_DEBUG_ERROR("vector iterator not dereferencable");
; 71   : 			_SCL_SECURE_OUT_OF_RANGE;
; 72   : 			}
; 73   : 
; 74   :  #elif _ITERATOR_DEBUG_LEVEL == 1
; 75   : 		_SCL_SECURE_VALIDATE(this->_Getcont() != 0);
; 76   : 		_SCL_SECURE_VALIDATE_RANGE(
; 77   : 			this->_Ptr != 0
; 78   : 			&& ((_Myvec *)this->_Getcont())->_Myfirst <= this->_Ptr
; 79   : 			&& this->_Ptr < ((_Myvec *)this->_Getcont())->_Mylast);
; 80   :  #endif /* _ITERATOR_DEBUG_LEVEL */
; 81   : 
; 82   : 		__analysis_assume(this->_Ptr != 0);
; 83   : 
; 84   : 		return (*this->_Ptr);

  00000	8b 01		 mov	 eax, DWORD PTR [ecx]

; 85   : 		}

  00002	c3		 ret	 0
??D?$_Vector_const_iterator@V?$_Vector_val@UEXTRAITEMSLOT@@V?$allocator@UEXTRAITEMSLOT@@@std@@@std@@@std@@QBEABUEXTRAITEMSLOT@@XZ ENDP ; std::_Vector_const_iterator<std::_Vector_val<EXTRAITEMSLOT,std::allocator<EXTRAITEMSLOT> > >::operator*
_TEXT	ENDS
PUBLIC	??E?$_Vector_const_iterator@V?$_Vector_val@UEXTRAITEMSLOT@@V?$allocator@UEXTRAITEMSLOT@@@std@@@std@@@std@@QAEAAV01@XZ ; std::_Vector_const_iterator<std::_Vector_val<EXTRAITEMSLOT,std::allocator<EXTRAITEMSLOT> > >::operator++
; Function compile flags: /Ogsp
;	COMDAT ??E?$_Vector_const_iterator@V?$_Vector_val@UEXTRAITEMSLOT@@V?$allocator@UEXTRAITEMSLOT@@@std@@@std@@@std@@QAEAAV01@XZ
_TEXT	SEGMENT
??E?$_Vector_const_iterator@V?$_Vector_val@UEXTRAITEMSLOT@@V?$allocator@UEXTRAITEMSLOT@@@std@@@std@@@std@@QAEAAV01@XZ PROC ; std::_Vector_const_iterator<std::_Vector_val<EXTRAITEMSLOT,std::allocator<EXTRAITEMSLOT> > >::operator++, COMDAT
; _this$ = ecx

; 93   : 		{	// preincrement

  00000	8b c1		 mov	 eax, ecx

; 94   :  #if _ITERATOR_DEBUG_LEVEL == 2
; 95   : 		if (this->_Getcont() == 0
; 96   : 			|| this->_Ptr == 0
; 97   : 			|| ((_Myvec *)this->_Getcont())->_Mylast <= this->_Ptr)
; 98   : 			{	// report error
; 99   : 			_DEBUG_ERROR("vector iterator not incrementable");
; 100  : 			_SCL_SECURE_OUT_OF_RANGE;
; 101  : 			}
; 102  : 
; 103  :  #elif _ITERATOR_DEBUG_LEVEL == 1
; 104  : 		_SCL_SECURE_VALIDATE(this->_Getcont() != 0);
; 105  : 		_SCL_SECURE_VALIDATE_RANGE(
; 106  : 			this->_Ptr != 0
; 107  : 			&& this->_Ptr < ((_Myvec *)this->_Getcont())->_Mylast);
; 108  :  #endif /* _ITERATOR_DEBUG_LEVEL */
; 109  : 
; 110  : 		++this->_Ptr;

  00002	83 00 48	 add	 DWORD PTR [eax], 72	; 00000048H

; 111  : 		return (*this);
; 112  : 		}

  00005	c3		 ret	 0
??E?$_Vector_const_iterator@V?$_Vector_val@UEXTRAITEMSLOT@@V?$allocator@UEXTRAITEMSLOT@@@std@@@std@@@std@@QAEAAV01@XZ ENDP ; std::_Vector_const_iterator<std::_Vector_val<EXTRAITEMSLOT,std::allocator<EXTRAITEMSLOT> > >::operator++
_TEXT	ENDS
PUBLIC	??$_Unchecked@PAUMaterialCompoundTargetItemInfo@ItemMaterialCompoundWnd@@@std@@YAPAUMaterialCompoundTargetItemInfo@ItemMaterialCompoundWnd@@PAU12@@Z ; std::_Unchecked<ItemMaterialCompoundWnd::MaterialCompoundTargetItemInfo *>
; Function compile flags: /Ogsp
; File c:\program files (x86)\microsoft visual studio 10.0\vc\include\xutility
;	COMDAT ??$_Unchecked@PAUMaterialCompoundTargetItemInfo@ItemMaterialCompoundWnd@@@std@@YAPAUMaterialCompoundTargetItemInfo@ItemMaterialCompoundWnd@@PAU12@@Z
_TEXT	SEGMENT
__Src$ = 8						; size = 4
??$_Unchecked@PAUMaterialCompoundTargetItemInfo@ItemMaterialCompoundWnd@@@std@@YAPAUMaterialCompoundTargetItemInfo@ItemMaterialCompoundWnd@@PAU12@@Z PROC ; std::_Unchecked<ItemMaterialCompoundWnd::MaterialCompoundTargetItemInfo *>, COMDAT

; 266  : 	{	// construct unchecked from checked, generic

  00000	55		 push	 ebp
  00001	8b ec		 mov	 ebp, esp

; 267  : 	return (_Src);

  00003	8b 45 08	 mov	 eax, DWORD PTR __Src$[ebp]

; 268  : 	}

  00006	5d		 pop	 ebp
  00007	c3		 ret	 0
??$_Unchecked@PAUMaterialCompoundTargetItemInfo@ItemMaterialCompoundWnd@@@std@@YAPAUMaterialCompoundTargetItemInfo@ItemMaterialCompoundWnd@@PAU12@@Z ENDP ; std::_Unchecked<ItemMaterialCompoundWnd::MaterialCompoundTargetItemInfo *>
_TEXT	ENDS
PUBLIC	??$_Dist_type@PAUMaterialCompoundTargetItemInfo@ItemMaterialCompoundWnd@@@std@@YAPAHPAUMaterialCompoundTargetItemInfo@ItemMaterialCompoundWnd@@@Z ; std::_Dist_type<ItemMaterialCompoundWnd::MaterialCompoundTargetItemInfo *>
; Function compile flags: /Ogsp
;	COMDAT ??$_Dist_type@PAUMaterialCompoundTargetItemInfo@ItemMaterialCompoundWnd@@@std@@YAPAHPAUMaterialCompoundTargetItemInfo@ItemMaterialCompoundWnd@@@Z
_TEXT	SEGMENT
___formal$ = 8						; size = 4
??$_Dist_type@PAUMaterialCompoundTargetItemInfo@ItemMaterialCompoundWnd@@@std@@YAPAHPAUMaterialCompoundTargetItemInfo@ItemMaterialCompoundWnd@@@Z PROC ; std::_Dist_type<ItemMaterialCompoundWnd::MaterialCompoundTargetItemInfo *>, COMDAT

; 850  : 	return (0);

  00000	33 c0		 xor	 eax, eax

; 851  : 	}

  00002	c3		 ret	 0
??$_Dist_type@PAUMaterialCompoundTargetItemInfo@ItemMaterialCompoundWnd@@@std@@YAPAHPAUMaterialCompoundTargetItemInfo@ItemMaterialCompoundWnd@@@Z ENDP ; std::_Dist_type<ItemMaterialCompoundWnd::MaterialCompoundTargetItemInfo *>
_TEXT	ENDS
PUBLIC	??$_Unchecked@PAUtagAlchemicItemInfo@@@std@@YAPAUtagAlchemicItemInfo@@PAU1@@Z ; std::_Unchecked<tagAlchemicItemInfo *>
; Function compile flags: /Ogsp
;	COMDAT ??$_Unchecked@PAUtagAlchemicItemInfo@@@std@@YAPAUtagAlchemicItemInfo@@PAU1@@Z
_TEXT	SEGMENT
__Src$ = 8						; size = 4
??$_Unchecked@PAUtagAlchemicItemInfo@@@std@@YAPAUtagAlchemicItemInfo@@PAU1@@Z PROC ; std::_Unchecked<tagAlchemicItemInfo *>, COMDAT

; 266  : 	{	// construct unchecked from checked, generic

  00000	55		 push	 ebp
  00001	8b ec		 mov	 ebp, esp

; 267  : 	return (_Src);

  00003	8b 45 08	 mov	 eax, DWORD PTR __Src$[ebp]

; 268  : 	}

  00006	5d		 pop	 ebp
  00007	c3		 ret	 0
??$_Unchecked@PAUtagAlchemicItemInfo@@@std@@YAPAUtagAlchemicItemInfo@@PAU1@@Z ENDP ; std::_Unchecked<tagAlchemicItemInfo *>
_TEXT	ENDS
PUBLIC	??$_Dist_type@PAUtagAlchemicItemInfo@@@std@@YAPAHPAUtagAlchemicItemInfo@@@Z ; std::_Dist_type<tagAlchemicItemInfo *>
; Function compile flags: /Ogsp
;	COMDAT ??$_Dist_type@PAUtagAlchemicItemInfo@@@std@@YAPAHPAUtagAlchemicItemInfo@@@Z
_TEXT	SEGMENT
___formal$ = 8						; size = 4
??$_Dist_type@PAUtagAlchemicItemInfo@@@std@@YAPAHPAUtagAlchemicItemInfo@@@Z PROC ; std::_Dist_type<tagAlchemicItemInfo *>, COMDAT

; 850  : 	return (0);

  00000	33 c0		 xor	 eax, eax

; 851  : 	}

  00002	c3		 ret	 0
??$_Dist_type@PAUtagAlchemicItemInfo@@@std@@YAPAHPAUtagAlchemicItemInfo@@@Z ENDP ; std::_Dist_type<tagAlchemicItemInfo *>
_TEXT	ENDS
PUBLIC	??$_Destroy@UMaterialCompoundTargetItemInfo@ItemMaterialCompoundWnd@@@std@@YAXPAUMaterialCompoundTargetItemInfo@ItemMaterialCompoundWnd@@@Z ; std::_Destroy<ItemMaterialCompoundWnd::MaterialCompoundTargetItemInfo>
; Function compile flags: /Ogsp
; File c:\program files (x86)\microsoft visual studio 10.0\vc\include\xmemory
;	COMDAT ??$_Destroy@UMaterialCompoundTargetItemInfo@ItemMaterialCompoundWnd@@@std@@YAXPAUMaterialCompoundTargetItemInfo@ItemMaterialCompoundWnd@@@Z
_TEXT	SEGMENT
__Ptr$ = 8						; size = 4
??$_Destroy@UMaterialCompoundTargetItemInfo@ItemMaterialCompoundWnd@@@std@@YAXPAUMaterialCompoundTargetItemInfo@ItemMaterialCompoundWnd@@@Z PROC ; std::_Destroy<ItemMaterialCompoundWnd::MaterialCompoundTargetItemInfo>, COMDAT

; 63   : 	_Ptr->~_Ty();
; 64   : 	}

  00000	c3		 ret	 0
??$_Destroy@UMaterialCompoundTargetItemInfo@ItemMaterialCompoundWnd@@@std@@YAXPAUMaterialCompoundTargetItemInfo@ItemMaterialCompoundWnd@@@Z ENDP ; std::_Destroy<ItemMaterialCompoundWnd::MaterialCompoundTargetItemInfo>
_TEXT	ENDS
PUBLIC	??1tagAlchemicItemInfo@@QAE@XZ			; tagAlchemicItemInfo::~tagAlchemicItemInfo
; Function compile flags: /Ogsp
;	COMDAT ??1tagAlchemicItemInfo@@QAE@XZ
_TEXT	SEGMENT
??1tagAlchemicItemInfo@@QAE@XZ PROC			; tagAlchemicItemInfo::~tagAlchemicItemInfo, COMDAT
; _this$ = ecx
  00000	83 c1 08	 add	 ecx, 8
  00003	ff 25 00 00 00
	00		 jmp	 DWORD PTR __imp_??1ioHashString@@QAE@XZ
??1tagAlchemicItemInfo@@QAE@XZ ENDP			; tagAlchemicItemInfo::~tagAlchemicItemInfo
_TEXT	ENDS
PUBLIC	??_GEXTRAITEMSLOT@@QAEPAXI@Z			; EXTRAITEMSLOT::`scalar deleting destructor'
; Function compile flags: /Ogsp
;	COMDAT ??_GEXTRAITEMSLOT@@QAEPAXI@Z
_TEXT	SEGMENT
___flags$ = 8						; size = 4
??_GEXTRAITEMSLOT@@QAEPAXI@Z PROC			; EXTRAITEMSLOT::`scalar deleting destructor', COMDAT
; _this$ = ecx
  00000	55		 push	 ebp
  00001	8b ec		 mov	 ebp, esp
  00003	56		 push	 esi
  00004	8b f1		 mov	 esi, ecx
  00006	e8 00 00 00 00	 call	 ??1EXTRAITEMSLOT@@QAE@XZ
  0000b	f6 45 08 01	 test	 BYTE PTR ___flags$[ebp], 1
  0000f	74 07		 je	 SHORT $LN1@scalar@2
  00011	56		 push	 esi
  00012	e8 00 00 00 00	 call	 ??3@YAXPAX@Z		; operator delete
  00017	59		 pop	 ecx
$LN1@scalar@2:
  00018	8b c6		 mov	 eax, esi
  0001a	5e		 pop	 esi
  0001b	5d		 pop	 ebp
  0001c	c2 04 00	 ret	 4
??_GEXTRAITEMSLOT@@QAEPAXI@Z ENDP			; EXTRAITEMSLOT::`scalar deleting destructor'
_TEXT	ENDS
PUBLIC	??_GNewShopPullDownItem@@QAEPAXI@Z		; NewShopPullDownItem::`scalar deleting destructor'
; Function compile flags: /Ogsp
;	COMDAT ??_GNewShopPullDownItem@@QAEPAXI@Z
_TEXT	SEGMENT
___flags$ = 8						; size = 4
??_GNewShopPullDownItem@@QAEPAXI@Z PROC			; NewShopPullDownItem::`scalar deleting destructor', COMDAT
; _this$ = ecx
  00000	55		 push	 ebp
  00001	8b ec		 mov	 ebp, esp
  00003	56		 push	 esi
  00004	8b f1		 mov	 esi, ecx
  00006	e8 00 00 00 00	 call	 ??1NewShopPullDownItem@@QAE@XZ
  0000b	f6 45 08 01	 test	 BYTE PTR ___flags$[ebp], 1
  0000f	74 07		 je	 SHORT $LN1@scalar@3
  00011	56		 push	 esi
  00012	e8 00 00 00 00	 call	 ??3@YAXPAX@Z		; operator delete
  00017	59		 pop	 ecx
$LN1@scalar@3:
  00018	8b c6		 mov	 eax, esi
  0001a	5e		 pop	 esi
  0001b	5d		 pop	 ebp
  0001c	c2 04 00	 ret	 4
??_GNewShopPullDownItem@@QAEPAXI@Z ENDP			; NewShopPullDownItem::`scalar deleting destructor'
_TEXT	ENDS
PUBLIC	??_GtagAlchemicItemInfo@@QAEPAXI@Z		; tagAlchemicItemInfo::`scalar deleting destructor'
; Function compile flags: /Ogsp
;	COMDAT ??_GtagAlchemicItemInfo@@QAEPAXI@Z
_TEXT	SEGMENT
___flags$ = 8						; size = 4
??_GtagAlchemicItemInfo@@QAEPAXI@Z PROC			; tagAlchemicItemInfo::`scalar deleting destructor', COMDAT
; _this$ = ecx
  00000	55		 push	 ebp
  00001	8b ec		 mov	 ebp, esp
  00003	56		 push	 esi
  00004	8b f1		 mov	 esi, ecx
  00006	8d 4e 08	 lea	 ecx, DWORD PTR [esi+8]
  00009	ff 15 00 00 00
	00		 call	 DWORD PTR __imp_??1ioHashString@@QAE@XZ
  0000f	f6 45 08 01	 test	 BYTE PTR ___flags$[ebp], 1
  00013	74 07		 je	 SHORT $LN1@scalar@4
  00015	56		 push	 esi
  00016	e8 00 00 00 00	 call	 ??3@YAXPAX@Z		; operator delete
  0001b	59		 pop	 ecx
$LN1@scalar@4:
  0001c	8b c6		 mov	 eax, esi
  0001e	5e		 pop	 esi
  0001f	5d		 pop	 ebp
  00020	c2 04 00	 ret	 4
??_GtagAlchemicItemInfo@@QAEPAXI@Z ENDP			; tagAlchemicItemInfo::`scalar deleting destructor'
_TEXT	ENDS
PUBLIC	??$forward@AAPAUMaterialCompoundTargetItemInfo@ItemMaterialCompoundWnd@@@std@@YAAAPAUMaterialCompoundTargetItemInfo@ItemMaterialCompoundWnd@@AAPAU12@@Z ; std::forward<ItemMaterialCompoundWnd::MaterialCompoundTargetItemInfo * &>
; Function compile flags: /Ogsp
; File c:\program files (x86)\microsoft visual studio 10.0\vc\include\utility
;	COMDAT ??$forward@AAPAUMaterialCompoundTargetItemInfo@ItemMaterialCompoundWnd@@@std@@YAAAPAUMaterialCompoundTargetItemInfo@ItemMaterialCompoundWnd@@AAPAU12@@Z
_TEXT	SEGMENT
__Arg$ = 8						; size = 4
??$forward@AAPAUMaterialCompoundTargetItemInfo@ItemMaterialCompoundWnd@@@std@@YAAAPAUMaterialCompoundTargetItemInfo@ItemMaterialCompoundWnd@@AAPAU12@@Z PROC ; std::forward<ItemMaterialCompoundWnd::MaterialCompoundTargetItemInfo * &>, COMDAT

; 78   : 	{	// forward _Arg, given explicitly specified type parameter

  00000	55		 push	 ebp
  00001	8b ec		 mov	 ebp, esp

; 79   : 	return ((_Ty&&)_Arg);

  00003	8b 45 08	 mov	 eax, DWORD PTR __Arg$[ebp]

; 80   : 	}

  00006	5d		 pop	 ebp
  00007	c3		 ret	 0
??$forward@AAPAUMaterialCompoundTargetItemInfo@ItemMaterialCompoundWnd@@@std@@YAAAPAUMaterialCompoundTargetItemInfo@ItemMaterialCompoundWnd@@AAPAU12@@Z ENDP ; std::forward<ItemMaterialCompoundWnd::MaterialCompoundTargetItemInfo * &>
_TEXT	ENDS
PUBLIC	??$?0AAPAUMaterialCompoundTargetItemInfo@ItemMaterialCompoundWnd@@AAPAU01@@?$_Pair_base@PAUMaterialCompoundTargetItemInfo@ItemMaterialCompoundWnd@@PAU12@@std@@QAE@AAPAUMaterialCompoundTargetItemInfo@ItemMaterialCompoundWnd@@0@Z ; std::_Pair_base<ItemMaterialCompoundWnd::MaterialCompoundTargetItemInfo *,ItemMaterialCompoundWnd::MaterialCompoundTargetItemInfo *>::_Pair_base<ItemMaterialCompoundWnd::MaterialCompoundTargetItemInfo *,ItemMaterialCompoundWnd::MaterialCompoundTargetItemInfo *><ItemMaterialCompoundWnd::MaterialCompoundTargetItemInfo * &,ItemMaterialCompoundWnd::MaterialCompoundTargetItemInfo * &>
; Function compile flags: /Ogsp
;	COMDAT ??$?0AAPAUMaterialCompoundTargetItemInfo@ItemMaterialCompoundWnd@@AAPAU01@@?$_Pair_base@PAUMaterialCompoundTargetItemInfo@ItemMaterialCompoundWnd@@PAU12@@std@@QAE@AAPAUMaterialCompoundTargetItemInfo@ItemMaterialCompoundWnd@@0@Z
_TEXT	SEGMENT
__Val1$ = 8						; size = 4
__Val2$ = 12						; size = 4
??$?0AAPAUMaterialCompoundTargetItemInfo@ItemMaterialCompoundWnd@@AAPAU01@@?$_Pair_base@PAUMaterialCompoundTargetItemInfo@ItemMaterialCompoundWnd@@PAU12@@std@@QAE@AAPAUMaterialCompoundTargetItemInfo@ItemMaterialCompoundWnd@@0@Z PROC ; std::_Pair_base<ItemMaterialCompoundWnd::MaterialCompoundTargetItemInfo *,ItemMaterialCompoundWnd::MaterialCompoundTargetItemInfo *>::_Pair_base<ItemMaterialCompoundWnd::MaterialCompoundTargetItemInfo *,ItemMaterialCompoundWnd::MaterialCompoundTargetItemInfo *><ItemMaterialCompoundWnd::MaterialCompoundTargetItemInfo * &,ItemMaterialCompoundWnd::MaterialCompoundTargetItemInfo * &>, COMDAT
; _this$ = ecx

; 163  : 		{	// construct from moved values

  00000	55		 push	 ebp
  00001	8b ec		 mov	 ebp, esp
  00003	8b c1		 mov	 eax, ecx
  00005	8b 4d 08	 mov	 ecx, DWORD PTR __Val1$[ebp]
  00008	8b 09		 mov	 ecx, DWORD PTR [ecx]
  0000a	89 08		 mov	 DWORD PTR [eax], ecx
  0000c	8b 4d 0c	 mov	 ecx, DWORD PTR __Val2$[ebp]
  0000f	8b 09		 mov	 ecx, DWORD PTR [ecx]
  00011	89 48 04	 mov	 DWORD PTR [eax+4], ecx

; 164  : 		}

  00014	5d		 pop	 ebp
  00015	c2 08 00	 ret	 8
??$?0AAPAUMaterialCompoundTargetItemInfo@ItemMaterialCompoundWnd@@AAPAU01@@?$_Pair_base@PAUMaterialCompoundTargetItemInfo@ItemMaterialCompoundWnd@@PAU12@@std@@QAE@AAPAUMaterialCompoundTargetItemInfo@ItemMaterialCompoundWnd@@0@Z ENDP ; std::_Pair_base<ItemMaterialCompoundWnd::MaterialCompoundTargetItemInfo *,ItemMaterialCompoundWnd::MaterialCompoundTargetItemInfo *>::_Pair_base<ItemMaterialCompoundWnd::MaterialCompoundTargetItemInfo *,ItemMaterialCompoundWnd::MaterialCompoundTargetItemInfo *><ItemMaterialCompoundWnd::MaterialCompoundTargetItemInfo * &,ItemMaterialCompoundWnd::MaterialCompoundTargetItemInfo * &>
_TEXT	ENDS
PUBLIC	??$_Move@AAUMaterialCompoundTargetItemInfo@ItemMaterialCompoundWnd@@@std@@YA$$QAUMaterialCompoundTargetItemInfo@ItemMaterialCompoundWnd@@AAU12@@Z ; std::_Move<ItemMaterialCompoundWnd::MaterialCompoundTargetItemInfo &>
; Function compile flags: /Ogsp
;	COMDAT ??$_Move@AAUMaterialCompoundTargetItemInfo@ItemMaterialCompoundWnd@@@std@@YA$$QAUMaterialCompoundTargetItemInfo@ItemMaterialCompoundWnd@@AAU12@@Z
_TEXT	SEGMENT
__Arg$ = 8						; size = 4
??$_Move@AAUMaterialCompoundTargetItemInfo@ItemMaterialCompoundWnd@@@std@@YA$$QAUMaterialCompoundTargetItemInfo@ItemMaterialCompoundWnd@@AAU12@@Z PROC ; std::_Move<ItemMaterialCompoundWnd::MaterialCompoundTargetItemInfo &>, COMDAT

; 94   : 	{	// forward _Arg as movable

  00000	55		 push	 ebp
  00001	8b ec		 mov	 ebp, esp

; 95   : 	return ((typename tr1::_Remove_reference<_Ty>::_Type&&)_Arg);

  00003	8b 45 08	 mov	 eax, DWORD PTR __Arg$[ebp]

; 96   : 	}

  00006	5d		 pop	 ebp
  00007	c3		 ret	 0
??$_Move@AAUMaterialCompoundTargetItemInfo@ItemMaterialCompoundWnd@@@std@@YA$$QAUMaterialCompoundTargetItemInfo@ItemMaterialCompoundWnd@@AAU12@@Z ENDP ; std::_Move<ItemMaterialCompoundWnd::MaterialCompoundTargetItemInfo &>
_TEXT	ENDS
PUBLIC	??$forward@AAPAUtagAlchemicItemInfo@@@std@@YAAAPAUtagAlchemicItemInfo@@AAPAU1@@Z ; std::forward<tagAlchemicItemInfo * &>
; Function compile flags: /Ogsp
;	COMDAT ??$forward@AAPAUtagAlchemicItemInfo@@@std@@YAAAPAUtagAlchemicItemInfo@@AAPAU1@@Z
_TEXT	SEGMENT
__Arg$ = 8						; size = 4
??$forward@AAPAUtagAlchemicItemInfo@@@std@@YAAAPAUtagAlchemicItemInfo@@AAPAU1@@Z PROC ; std::forward<tagAlchemicItemInfo * &>, COMDAT

; 78   : 	{	// forward _Arg, given explicitly specified type parameter

  00000	55		 push	 ebp
  00001	8b ec		 mov	 ebp, esp

; 79   : 	return ((_Ty&&)_Arg);

  00003	8b 45 08	 mov	 eax, DWORD PTR __Arg$[ebp]

; 80   : 	}

  00006	5d		 pop	 ebp
  00007	c3		 ret	 0
??$forward@AAPAUtagAlchemicItemInfo@@@std@@YAAAPAUtagAlchemicItemInfo@@AAPAU1@@Z ENDP ; std::forward<tagAlchemicItemInfo * &>
_TEXT	ENDS
PUBLIC	??$?0AAPAUtagAlchemicItemInfo@@AAPAU0@@?$_Pair_base@PAUtagAlchemicItemInfo@@PAU1@@std@@QAE@AAPAUtagAlchemicItemInfo@@0@Z ; std::_Pair_base<tagAlchemicItemInfo *,tagAlchemicItemInfo *>::_Pair_base<tagAlchemicItemInfo *,tagAlchemicItemInfo *><tagAlchemicItemInfo * &,tagAlchemicItemInfo * &>
; Function compile flags: /Ogsp
;	COMDAT ??$?0AAPAUtagAlchemicItemInfo@@AAPAU0@@?$_Pair_base@PAUtagAlchemicItemInfo@@PAU1@@std@@QAE@AAPAUtagAlchemicItemInfo@@0@Z
_TEXT	SEGMENT
__Val1$ = 8						; size = 4
__Val2$ = 12						; size = 4
??$?0AAPAUtagAlchemicItemInfo@@AAPAU0@@?$_Pair_base@PAUtagAlchemicItemInfo@@PAU1@@std@@QAE@AAPAUtagAlchemicItemInfo@@0@Z PROC ; std::_Pair_base<tagAlchemicItemInfo *,tagAlchemicItemInfo *>::_Pair_base<tagAlchemicItemInfo *,tagAlchemicItemInfo *><tagAlchemicItemInfo * &,tagAlchemicItemInfo * &>, COMDAT
; _this$ = ecx

; 163  : 		{	// construct from moved values

  00000	55		 push	 ebp
  00001	8b ec		 mov	 ebp, esp
  00003	8b c1		 mov	 eax, ecx
  00005	8b 4d 08	 mov	 ecx, DWORD PTR __Val1$[ebp]
  00008	8b 09		 mov	 ecx, DWORD PTR [ecx]
  0000a	89 08		 mov	 DWORD PTR [eax], ecx
  0000c	8b 4d 0c	 mov	 ecx, DWORD PTR __Val2$[ebp]
  0000f	8b 09		 mov	 ecx, DWORD PTR [ecx]
  00011	89 48 04	 mov	 DWORD PTR [eax+4], ecx

; 164  : 		}

  00014	5d		 pop	 ebp
  00015	c2 08 00	 ret	 8
??$?0AAPAUtagAlchemicItemInfo@@AAPAU0@@?$_Pair_base@PAUtagAlchemicItemInfo@@PAU1@@std@@QAE@AAPAUtagAlchemicItemInfo@@0@Z ENDP ; std::_Pair_base<tagAlchemicItemInfo *,tagAlchemicItemInfo *>::_Pair_base<tagAlchemicItemInfo *,tagAlchemicItemInfo *><tagAlchemicItemInfo * &,tagAlchemicItemInfo * &>
_TEXT	ENDS
PUBLIC	??$_Move@AAUtagAlchemicItemInfo@@@std@@YA$$QAUtagAlchemicItemInfo@@AAU1@@Z ; std::_Move<tagAlchemicItemInfo &>
; Function compile flags: /Ogsp
;	COMDAT ??$_Move@AAUtagAlchemicItemInfo@@@std@@YA$$QAUtagAlchemicItemInfo@@AAU1@@Z
_TEXT	SEGMENT
__Arg$ = 8						; size = 4
??$_Move@AAUtagAlchemicItemInfo@@@std@@YA$$QAUtagAlchemicItemInfo@@AAU1@@Z PROC ; std::_Move<tagAlchemicItemInfo &>, COMDAT

; 94   : 	{	// forward _Arg as movable

  00000	55		 push	 ebp
  00001	8b ec		 mov	 ebp, esp

; 95   : 	return ((typename tr1::_Remove_reference<_Ty>::_Type&&)_Arg);

  00003	8b 45 08	 mov	 eax, DWORD PTR __Arg$[ebp]

; 96   : 	}

  00006	5d		 pop	 ebp
  00007	c3		 ret	 0
??$_Move@AAUtagAlchemicItemInfo@@@std@@YA$$QAUtagAlchemicItemInfo@@AAU1@@Z ENDP ; std::_Move<tagAlchemicItemInfo &>
_TEXT	ENDS
PUBLIC	??$forward@UEXTRAITEMSLOT@@@std@@YA$$QAUEXTRAITEMSLOT@@AAU1@@Z ; std::forward<EXTRAITEMSLOT>
; Function compile flags: /Ogsp
;	COMDAT ??$forward@UEXTRAITEMSLOT@@@std@@YA$$QAUEXTRAITEMSLOT@@AAU1@@Z
_TEXT	SEGMENT
__Arg$ = 8						; size = 4
??$forward@UEXTRAITEMSLOT@@@std@@YA$$QAUEXTRAITEMSLOT@@AAU1@@Z PROC ; std::forward<EXTRAITEMSLOT>, COMDAT

; 78   : 	{	// forward _Arg, given explicitly specified type parameter

  00000	55		 push	 ebp
  00001	8b ec		 mov	 ebp, esp

; 79   : 	return ((_Ty&&)_Arg);

  00003	8b 45 08	 mov	 eax, DWORD PTR __Arg$[ebp]

; 80   : 	}

  00006	5d		 pop	 ebp
  00007	c3		 ret	 0
??$forward@UEXTRAITEMSLOT@@@std@@YA$$QAUEXTRAITEMSLOT@@AAU1@@Z ENDP ; std::forward<EXTRAITEMSLOT>
_TEXT	ENDS
PUBLIC	??$forward@UNewShopPullDownItem@@@std@@YA$$QAUNewShopPullDownItem@@AAU1@@Z ; std::forward<NewShopPullDownItem>
; Function compile flags: /Ogsp
;	COMDAT ??$forward@UNewShopPullDownItem@@@std@@YA$$QAUNewShopPullDownItem@@AAU1@@Z
_TEXT	SEGMENT
__Arg$ = 8						; size = 4
??$forward@UNewShopPullDownItem@@@std@@YA$$QAUNewShopPullDownItem@@AAU1@@Z PROC ; std::forward<NewShopPullDownItem>, COMDAT

; 78   : 	{	// forward _Arg, given explicitly specified type parameter

  00000	55		 push	 ebp
  00001	8b ec		 mov	 ebp, esp

; 79   : 	return ((_Ty&&)_Arg);

  00003	8b 45 08	 mov	 eax, DWORD PTR __Arg$[ebp]

; 80   : 	}

  00006	5d		 pop	 ebp
  00007	c3		 ret	 0
??$forward@UNewShopPullDownItem@@@std@@YA$$QAUNewShopPullDownItem@@AAU1@@Z ENDP ; std::forward<NewShopPullDownItem>
_TEXT	ENDS
PUBLIC	??$forward@UtagAlchemicItemInfo@@@std@@YA$$QAUtagAlchemicItemInfo@@AAU1@@Z ; std::forward<tagAlchemicItemInfo>
; Function compile flags: /Ogsp
;	COMDAT ??$forward@UtagAlchemicItemInfo@@@std@@YA$$QAUtagAlchemicItemInfo@@AAU1@@Z
_TEXT	SEGMENT
__Arg$ = 8						; size = 4
??$forward@UtagAlchemicItemInfo@@@std@@YA$$QAUtagAlchemicItemInfo@@AAU1@@Z PROC ; std::forward<tagAlchemicItemInfo>, COMDAT

; 78   : 	{	// forward _Arg, given explicitly specified type parameter

  00000	55		 push	 ebp
  00001	8b ec		 mov	 ebp, esp

; 79   : 	return ((_Ty&&)_Arg);

  00003	8b 45 08	 mov	 eax, DWORD PTR __Arg$[ebp]

; 80   : 	}

  00006	5d		 pop	 ebp
  00007	c3		 ret	 0
??$forward@UtagAlchemicItemInfo@@@std@@YA$$QAUtagAlchemicItemInfo@@AAU1@@Z ENDP ; std::forward<tagAlchemicItemInfo>
_TEXT	ENDS
PUBLIC	??$forward@UMaterialCompoundTargetItemInfo@ItemMaterialCompoundWnd@@@std@@YA$$QAUMaterialCompoundTargetItemInfo@ItemMaterialCompoundWnd@@AAU12@@Z ; std::forward<ItemMaterialCompoundWnd::MaterialCompoundTargetItemInfo>
; Function compile flags: /Ogsp
;	COMDAT ??$forward@UMaterialCompoundTargetItemInfo@ItemMaterialCompoundWnd@@@std@@YA$$QAUMaterialCompoundTargetItemInfo@ItemMaterialCompoundWnd@@AAU12@@Z
_TEXT	SEGMENT
__Arg$ = 8						; size = 4
??$forward@UMaterialCompoundTargetItemInfo@ItemMaterialCompoundWnd@@@std@@YA$$QAUMaterialCompoundTargetItemInfo@ItemMaterialCompoundWnd@@AAU12@@Z PROC ; std::forward<ItemMaterialCompoundWnd::MaterialCompoundTargetItemInfo>, COMDAT

; 78   : 	{	// forward _Arg, given explicitly specified type parameter

  00000	55		 push	 ebp
  00001	8b ec		 mov	 ebp, esp

; 79   : 	return ((_Ty&&)_Arg);

  00003	8b 45 08	 mov	 eax, DWORD PTR __Arg$[ebp]

; 80   : 	}

  00006	5d		 pop	 ebp
  00007	c3		 ret	 0
??$forward@UMaterialCompoundTargetItemInfo@ItemMaterialCompoundWnd@@@std@@YA$$QAUMaterialCompoundTargetItemInfo@ItemMaterialCompoundWnd@@AAU12@@Z ENDP ; std::forward<ItemMaterialCompoundWnd::MaterialCompoundTargetItemInfo>
_TEXT	ENDS
PUBLIC	??$_Push_heap@PAUMaterialCompoundTargetItemInfo@ItemMaterialCompoundWnd@@HU12@VMaterialCompoundItemInfoSort@2@@std@@YAXPAUMaterialCompoundTargetItemInfo@ItemMaterialCompoundWnd@@HH$$QAU12@VMaterialCompoundItemInfoSort@2@@Z ; std::_Push_heap<ItemMaterialCompoundWnd::MaterialCompoundTargetItemInfo *,int,ItemMaterialCompoundWnd::MaterialCompoundTargetItemInfo,ItemMaterialCompoundWnd::MaterialCompoundItemInfoSort>
; Function compile flags: /Ogsp
; File c:\program files (x86)\microsoft visual studio 10.0\vc\include\algorithm
;	COMDAT ??$_Push_heap@PAUMaterialCompoundTargetItemInfo@ItemMaterialCompoundWnd@@HU12@VMaterialCompoundItemInfoSort@2@@std@@YAXPAUMaterialCompoundTargetItemInfo@ItemMaterialCompoundWnd@@HH$$QAU12@VMaterialCompoundItemInfoSort@2@@Z
_TEXT	SEGMENT
__First$ = 8						; size = 4
__Hole$ = 12						; size = 4
__Top$ = 16						; size = 4
__Val$ = 20						; size = 4
__Pred$ = 24						; size = 1
??$_Push_heap@PAUMaterialCompoundTargetItemInfo@ItemMaterialCompoundWnd@@HU12@VMaterialCompoundItemInfoSort@2@@std@@YAXPAUMaterialCompoundTargetItemInfo@ItemMaterialCompoundWnd@@HH$$QAU12@VMaterialCompoundItemInfoSort@2@@Z PROC ; std::_Push_heap<ItemMaterialCompoundWnd::MaterialCompoundTargetItemInfo *,int,ItemMaterialCompoundWnd::MaterialCompoundTargetItemInfo,ItemMaterialCompoundWnd::MaterialCompoundItemInfoSort>, COMDAT

; 2455 : 	{	// percolate _Hole to _Top or where _Val belongs, using operator<

  00000	55		 push	 ebp
  00001	8b ec		 mov	 ebp, esp
  00003	53		 push	 ebx
  00004	56		 push	 esi
  00005	57		 push	 edi

; 2456 : 	for (_Diff _Idx = (_Hole - 1) / 2;

  00006	8b 7d 0c	 mov	 edi, DWORD PTR __Hole$[ebp]
  00009	8d 47 ff	 lea	 eax, DWORD PTR [edi-1]
  0000c	99		 cdq
  0000d	2b c2		 sub	 eax, edx
  0000f	8b d8		 mov	 ebx, eax
  00011	d1 fb		 sar	 ebx, 1
  00013	eb 2d		 jmp	 SHORT $LN13@Push_heap
$LL3@Push_heap:

; 2457 : 		_Top < _Hole && _DEBUG_LT_PRED(_Pred, *(_First + _Idx), _Val);
; 2458 : 		_Idx = (_Hole - 1) / 2)

  00015	ff 75 14	 push	 DWORD PTR __Val$[ebp]
  00018	8b f3		 mov	 esi, ebx
  0001a	6b f6 0c	 imul	 esi, 12			; 0000000cH
  0001d	03 75 08	 add	 esi, DWORD PTR __First$[ebp]
  00020	8d 4d 18	 lea	 ecx, DWORD PTR __Pred$[ebp]
  00023	56		 push	 esi
  00024	e8 00 00 00 00	 call	 ??RMaterialCompoundItemInfoSort@ItemMaterialCompoundWnd@@QBE_NABUMaterialCompoundTargetItemInfo@1@0@Z ; ItemMaterialCompoundWnd::MaterialCompoundItemInfoSort::operator()
  00029	84 c0		 test	 al, al
  0002b	74 1a		 je	 SHORT $LN12@Push_heap

; 2459 : 		{	// move _Hole up to parent
; 2460 : 		*(_First + _Hole) = _Move(*(_First + _Idx));

  0002d	6b ff 0c	 imul	 edi, 12			; 0000000cH
  00030	03 7d 08	 add	 edi, DWORD PTR __First$[ebp]
  00033	8d 43 ff	 lea	 eax, DWORD PTR [ebx-1]
  00036	a5		 movsd
  00037	a5		 movsd
  00038	99		 cdq
  00039	2b c2		 sub	 eax, edx
  0003b	a5		 movsd
  0003c	d1 f8		 sar	 eax, 1

; 2461 : 		_Hole = _Idx;

  0003e	8b fb		 mov	 edi, ebx
  00040	8b d8		 mov	 ebx, eax
$LN13@Push_heap:

; 2457 : 		_Top < _Hole && _DEBUG_LT_PRED(_Pred, *(_First + _Idx), _Val);
; 2458 : 		_Idx = (_Hole - 1) / 2)

  00042	39 7d 10	 cmp	 DWORD PTR __Top$[ebp], edi
  00045	7c ce		 jl	 SHORT $LL3@Push_heap
$LN12@Push_heap:

; 2462 : 		}
; 2463 : 
; 2464 : 	*(_First + _Hole) = _Move(_Val);	// drop _Val into final hole

  00047	8b 75 14	 mov	 esi, DWORD PTR __Val$[ebp]
  0004a	6b ff 0c	 imul	 edi, 12			; 0000000cH
  0004d	03 7d 08	 add	 edi, DWORD PTR __First$[ebp]
  00050	a5		 movsd
  00051	a5		 movsd
  00052	a5		 movsd
  00053	5f		 pop	 edi
  00054	5e		 pop	 esi
  00055	5b		 pop	 ebx

; 2465 : 	}

  00056	5d		 pop	 ebp
  00057	c3		 ret	 0
??$_Push_heap@PAUMaterialCompoundTargetItemInfo@ItemMaterialCompoundWnd@@HU12@VMaterialCompoundItemInfoSort@2@@std@@YAXPAUMaterialCompoundTargetItemInfo@ItemMaterialCompoundWnd@@HH$$QAU12@VMaterialCompoundItemInfoSort@2@@Z ENDP ; std::_Push_heap<ItemMaterialCompoundWnd::MaterialCompoundTargetItemInfo *,int,ItemMaterialCompoundWnd::MaterialCompoundTargetItemInfo,ItemMaterialCompoundWnd::MaterialCompoundItemInfoSort>
_TEXT	ENDS
PUBLIC	??$_Move_backward@PAUMaterialCompoundTargetItemInfo@ItemMaterialCompoundWnd@@PAU12@@std@@YAPAUMaterialCompoundTargetItemInfo@ItemMaterialCompoundWnd@@PAU12@00U_Nonscalar_ptr_iterator_tag@0@@Z ; std::_Move_backward<ItemMaterialCompoundWnd::MaterialCompoundTargetItemInfo *,ItemMaterialCompoundWnd::MaterialCompoundTargetItemInfo *>
; Function compile flags: /Ogsp
; File c:\program files (x86)\microsoft visual studio 10.0\vc\include\xutility
;	COMDAT ??$_Move_backward@PAUMaterialCompoundTargetItemInfo@ItemMaterialCompoundWnd@@PAU12@@std@@YAPAUMaterialCompoundTargetItemInfo@ItemMaterialCompoundWnd@@PAU12@00U_Nonscalar_ptr_iterator_tag@0@@Z
_TEXT	SEGMENT
__First$ = 8						; size = 4
__Last$ = 12						; size = 4
__Dest$ = 16						; size = 4
___formal$ = 20						; size = 1
??$_Move_backward@PAUMaterialCompoundTargetItemInfo@ItemMaterialCompoundWnd@@PAU12@@std@@YAPAUMaterialCompoundTargetItemInfo@ItemMaterialCompoundWnd@@PAU12@00U_Nonscalar_ptr_iterator_tag@0@@Z PROC ; std::_Move_backward<ItemMaterialCompoundWnd::MaterialCompoundTargetItemInfo *,ItemMaterialCompoundWnd::MaterialCompoundTargetItemInfo *>, COMDAT

; 2617 : 	{	// move [_First, _Last) backwards to [..., _Dest), arbitrary iterators

  00000	55		 push	 ebp
  00001	8b ec		 mov	 ebp, esp

; 2618 : 	while (_First != _Last)

  00003	8b 45 0c	 mov	 eax, DWORD PTR __Last$[ebp]
  00006	39 45 08	 cmp	 DWORD PTR __First$[ebp], eax
  00009	74 18		 je	 SHORT $LN9@Move_backw
  0000b	56		 push	 esi
  0000c	57		 push	 edi
$LL2@Move_backw:

; 2619 : 		*--_Dest = _STD move(*--_Last);

  0000d	83 6d 10 0c	 sub	 DWORD PTR __Dest$[ebp], 12 ; 0000000cH
  00011	8b 7d 10	 mov	 edi, DWORD PTR __Dest$[ebp]
  00014	83 e8 0c	 sub	 eax, 12			; 0000000cH
  00017	8b f0		 mov	 esi, eax
  00019	a5		 movsd
  0001a	a5		 movsd
  0001b	a5		 movsd
  0001c	3b 45 08	 cmp	 eax, DWORD PTR __First$[ebp]
  0001f	75 ec		 jne	 SHORT $LL2@Move_backw
  00021	5f		 pop	 edi
  00022	5e		 pop	 esi
$LN9@Move_backw:

; 2620 : 	return (_Dest);

  00023	8b 45 10	 mov	 eax, DWORD PTR __Dest$[ebp]

; 2621 : 	}

  00026	5d		 pop	 ebp
  00027	c3		 ret	 0
??$_Move_backward@PAUMaterialCompoundTargetItemInfo@ItemMaterialCompoundWnd@@PAU12@@std@@YAPAUMaterialCompoundTargetItemInfo@ItemMaterialCompoundWnd@@PAU12@00U_Nonscalar_ptr_iterator_tag@0@@Z ENDP ; std::_Move_backward<ItemMaterialCompoundWnd::MaterialCompoundTargetItemInfo *,ItemMaterialCompoundWnd::MaterialCompoundTargetItemInfo *>
_TEXT	ENDS
PUBLIC	??$_Push_heap@PAUtagAlchemicItemInfo@@HU1@VMaterialItemSort@ItemMaterialCompoundWnd@@@std@@YAXPAUtagAlchemicItemInfo@@HH$$QAU1@VMaterialItemSort@ItemMaterialCompoundWnd@@@Z ; std::_Push_heap<tagAlchemicItemInfo *,int,tagAlchemicItemInfo,ItemMaterialCompoundWnd::MaterialItemSort>
; Function compile flags: /Ogsp
; File c:\program files (x86)\microsoft visual studio 10.0\vc\include\algorithm
;	COMDAT ??$_Push_heap@PAUtagAlchemicItemInfo@@HU1@VMaterialItemSort@ItemMaterialCompoundWnd@@@std@@YAXPAUtagAlchemicItemInfo@@HH$$QAU1@VMaterialItemSort@ItemMaterialCompoundWnd@@@Z
_TEXT	SEGMENT
__First$ = 8						; size = 4
__Hole$ = 12						; size = 4
__Top$ = 16						; size = 4
__Val$ = 20						; size = 4
__Pred$ = 24						; size = 1
??$_Push_heap@PAUtagAlchemicItemInfo@@HU1@VMaterialItemSort@ItemMaterialCompoundWnd@@@std@@YAXPAUtagAlchemicItemInfo@@HH$$QAU1@VMaterialItemSort@ItemMaterialCompoundWnd@@@Z PROC ; std::_Push_heap<tagAlchemicItemInfo *,int,tagAlchemicItemInfo,ItemMaterialCompoundWnd::MaterialItemSort>, COMDAT

; 2455 : 	{	// percolate _Hole to _Top or where _Val belongs, using operator<

  00000	55		 push	 ebp
  00001	8b ec		 mov	 ebp, esp

; 2456 : 	for (_Diff _Idx = (_Hole - 1) / 2;

  00003	8b 4d 0c	 mov	 ecx, DWORD PTR __Hole$[ebp]
  00006	8d 41 ff	 lea	 eax, DWORD PTR [ecx-1]
  00009	99		 cdq
  0000a	53		 push	 ebx

; 2457 : 		_Top < _Hole && _DEBUG_LT_PRED(_Pred, *(_First + _Idx), _Val);
; 2458 : 		_Idx = (_Hole - 1) / 2)

  0000b	8b 5d 08	 mov	 ebx, DWORD PTR __First$[ebp]
  0000e	2b c2		 sub	 eax, edx
  00010	56		 push	 esi
  00011	8b f0		 mov	 esi, eax
  00013	d1 fe		 sar	 esi, 1
  00015	39 4d 10	 cmp	 DWORD PTR __Top$[ebp], ecx
  00018	7d 3d		 jge	 SHORT $LN18@Push_heap@2
  0001a	57		 push	 edi
$LL3@Push_heap@2:
  0001b	8b 7d 14	 mov	 edi, DWORD PTR __Val$[ebp]
  0001e	8b 7f 04	 mov	 edi, DWORD PTR [edi+4]
  00021	8b c6		 mov	 eax, esi
  00023	6b c0 1c	 imul	 eax, 28			; 0000001cH
  00026	03 c3		 add	 eax, ebx
  00028	8b 50 04	 mov	 edx, DWORD PTR [eax+4]
  0002b	3b d7		 cmp	 edx, edi
  0002d	7f 0b		 jg	 SHORT $LN17@Push_heap@2
  0002f	75 25		 jne	 SHORT $LN19@Push_heap@2
  00031	8b 10		 mov	 edx, DWORD PTR [eax]
  00033	8b 7d 14	 mov	 edi, DWORD PTR __Val$[ebp]
  00036	3b 17		 cmp	 edx, DWORD PTR [edi]
  00038	7d 1c		 jge	 SHORT $LN19@Push_heap@2
$LN17@Push_heap@2:

; 2459 : 		{	// move _Hole up to parent
; 2460 : 		*(_First + _Hole) = _Move(*(_First + _Idx));

  0003a	6b c9 1c	 imul	 ecx, 28			; 0000001cH
  0003d	50		 push	 eax
  0003e	03 cb		 add	 ecx, ebx
  00040	e8 00 00 00 00	 call	 ??4tagAlchemicItemInfo@@QAEAAU0@ABU0@@Z
  00045	8d 46 ff	 lea	 eax, DWORD PTR [esi-1]
  00048	99		 cdq
  00049	2b c2		 sub	 eax, edx

; 2461 : 		_Hole = _Idx;

  0004b	8b ce		 mov	 ecx, esi
  0004d	d1 f8		 sar	 eax, 1
  0004f	8b f0		 mov	 esi, eax
  00051	39 4d 10	 cmp	 DWORD PTR __Top$[ebp], ecx
  00054	7c c5		 jl	 SHORT $LL3@Push_heap@2
$LN19@Push_heap@2:
  00056	5f		 pop	 edi
$LN18@Push_heap@2:

; 2462 : 		}
; 2463 : 
; 2464 : 	*(_First + _Hole) = _Move(_Val);	// drop _Val into final hole

  00057	ff 75 14	 push	 DWORD PTR __Val$[ebp]
  0005a	6b c9 1c	 imul	 ecx, 28			; 0000001cH
  0005d	03 cb		 add	 ecx, ebx
  0005f	e8 00 00 00 00	 call	 ??4tagAlchemicItemInfo@@QAEAAU0@ABU0@@Z
  00064	5e		 pop	 esi
  00065	5b		 pop	 ebx

; 2465 : 	}

  00066	5d		 pop	 ebp
  00067	c3		 ret	 0
??$_Push_heap@PAUtagAlchemicItemInfo@@HU1@VMaterialItemSort@ItemMaterialCompoundWnd@@@std@@YAXPAUtagAlchemicItemInfo@@HH$$QAU1@VMaterialItemSort@ItemMaterialCompoundWnd@@@Z ENDP ; std::_Push_heap<tagAlchemicItemInfo *,int,tagAlchemicItemInfo,ItemMaterialCompoundWnd::MaterialItemSort>
_TEXT	ENDS
PUBLIC	??$_Move_backward@PAUtagAlchemicItemInfo@@PAU1@@std@@YAPAUtagAlchemicItemInfo@@PAU1@00U_Nonscalar_ptr_iterator_tag@0@@Z ; std::_Move_backward<tagAlchemicItemInfo *,tagAlchemicItemInfo *>
; Function compile flags: /Ogsp
; File c:\program files (x86)\microsoft visual studio 10.0\vc\include\xutility
;	COMDAT ??$_Move_backward@PAUtagAlchemicItemInfo@@PAU1@@std@@YAPAUtagAlchemicItemInfo@@PAU1@00U_Nonscalar_ptr_iterator_tag@0@@Z
_TEXT	SEGMENT
__First$ = 8						; size = 4
__Last$ = 12						; size = 4
__Dest$ = 16						; size = 4
___formal$ = 20						; size = 1
??$_Move_backward@PAUtagAlchemicItemInfo@@PAU1@@std@@YAPAUtagAlchemicItemInfo@@PAU1@00U_Nonscalar_ptr_iterator_tag@0@@Z PROC ; std::_Move_backward<tagAlchemicItemInfo *,tagAlchemicItemInfo *>, COMDAT

; 2617 : 	{	// move [_First, _Last) backwards to [..., _Dest), arbitrary iterators

  00000	55		 push	 ebp
  00001	8b ec		 mov	 ebp, esp
  00003	56		 push	 esi

; 2618 : 	while (_First != _Last)

  00004	8b 75 0c	 mov	 esi, DWORD PTR __Last$[ebp]
  00007	39 75 08	 cmp	 DWORD PTR __First$[ebp], esi
  0000a	74 15		 je	 SHORT $LN9@Move_backw@2
$LL2@Move_backw@2:

; 2619 : 		*--_Dest = _STD move(*--_Last);

  0000c	83 6d 10 1c	 sub	 DWORD PTR __Dest$[ebp], 28 ; 0000001cH
  00010	8b 4d 10	 mov	 ecx, DWORD PTR __Dest$[ebp]
  00013	83 ee 1c	 sub	 esi, 28			; 0000001cH
  00016	56		 push	 esi
  00017	e8 00 00 00 00	 call	 ??4tagAlchemicItemInfo@@QAEAAU0@ABU0@@Z
  0001c	3b 75 08	 cmp	 esi, DWORD PTR __First$[ebp]
  0001f	75 eb		 jne	 SHORT $LL2@Move_backw@2
$LN9@Move_backw@2:

; 2620 : 	return (_Dest);

  00021	8b 45 10	 mov	 eax, DWORD PTR __Dest$[ebp]
  00024	5e		 pop	 esi

; 2621 : 	}

  00025	5d		 pop	 ebp
  00026	c3		 ret	 0
??$_Move_backward@PAUtagAlchemicItemInfo@@PAU1@@std@@YAPAUtagAlchemicItemInfo@@PAU1@00U_Nonscalar_ptr_iterator_tag@0@@Z ENDP ; std::_Move_backward<tagAlchemicItemInfo *,tagAlchemicItemInfo *>
; Function compile flags: /Ogsp
; File c:\program files (x86)\microsoft sdks\windows\v7.0a\include\strsafe.h
_TEXT	ENDS
;	COMDAT ?StringValidateDestA@@YGJPBDII@Z
_TEXT	SEGMENT
_cchMax$ = 8						; size = 4
?StringValidateDestA@@YGJPBDII@Z PROC			; StringValidateDestA, COMDAT
; _cchDest$ = ecx

; 8721 : {

  00000	55		 push	 ebp
  00001	8b ec		 mov	 ebp, esp

; 8722 :     HRESULT hr = S_OK;

  00003	33 c0		 xor	 eax, eax

; 8723 : 
; 8724 :     if ((cchDest == 0) || (cchDest > cchMax))

  00005	85 c9		 test	 ecx, ecx
  00007	74 05		 je	 SHORT $LN1@StringVali
  00009	3b 4d 08	 cmp	 ecx, DWORD PTR _cchMax$[ebp]
  0000c	76 05		 jbe	 SHORT $LN2@StringVali
$LN1@StringVali:

; 8725 :     {
; 8726 :         hr = STRSAFE_E_INVALID_PARAMETER;

  0000e	b8 57 00 07 80	 mov	 eax, -2147024809	; 80070057H
$LN2@StringVali:

; 8727 :     }
; 8728 : 
; 8729 :     return hr;
; 8730 : }

  00013	5d		 pop	 ebp
  00014	c2 04 00	 ret	 4
?StringValidateDestA@@YGJPBDII@Z ENDP			; StringValidateDestA
_TEXT	ENDS
EXTRN	__imp___vsnprintf:PROC
; Function compile flags: /Ogsp
;	COMDAT ?StringVPrintfWorkerA@@YGJPADIPAIPBD0@Z
_TEXT	SEGMENT
_pcchNewDestLength$ = 8					; size = 4
_pszFormat$ = 12					; size = 4
_argList$ = 16						; size = 4
?StringVPrintfWorkerA@@YGJPADIPAIPBD0@Z PROC		; StringVPrintfWorkerA, COMDAT
; _pszDest$ = edi
; _cchDest$ = eax

; 9029 : {

  00000	55		 push	 ebp
  00001	8b ec		 mov	 ebp, esp
  00003	53		 push	 ebx
  00004	56		 push	 esi

; 9030 :     HRESULT hr = S_OK;
; 9031 :     int iRet;
; 9032 :     size_t cchMax;
; 9033 :     size_t cchNewDestLength = 0;
; 9034 : 
; 9035 :     // leave the last space for the null terminator
; 9036 :     cchMax = cchDest - 1;
; 9037 : 
; 9038 : #if (STRSAFE_USE_SECURE_CRT == 1) && !defined(STRSAFE_LIB_IMPL)
; 9039 :     iRet = _vsnprintf_s(pszDest, cchDest, cchMax, pszFormat, argList);
; 9040 : #else
; 9041 :     #pragma warning(push)
; 9042 :     #pragma warning(disable: __WARNING_BANNED_API_USAGE)// "STRSAFE not included"
; 9043 :     iRet = _vsnprintf(pszDest, cchMax, pszFormat, argList);

  00005	ff 75 10	 push	 DWORD PTR _argList$[ebp]
  00008	8d 70 ff	 lea	 esi, DWORD PTR [eax-1]
  0000b	ff 75 0c	 push	 DWORD PTR _pszFormat$[ebp]
  0000e	33 db		 xor	 ebx, ebx
  00010	56		 push	 esi
  00011	57		 push	 edi
  00012	ff 15 00 00 00
	00		 call	 DWORD PTR __imp___vsnprintf
  00018	83 c4 10	 add	 esp, 16			; 00000010H

; 9044 :     #pragma warning(pop)
; 9045 : #endif
; 9046 :     // ASSERT((iRet < 0) || (((size_t)iRet) <= cchMax));
; 9047 : 
; 9048 :     if ((iRet < 0) || (((size_t)iRet) > cchMax))

  0001b	85 c0		 test	 eax, eax
  0001d	78 0b		 js	 SHORT $LN5@StringVPri
  0001f	3b c6		 cmp	 eax, esi
  00021	77 07		 ja	 SHORT $LN5@StringVPri

; 9058 :     }
; 9059 :     else if (((size_t)iRet) == cchMax)

  00023	75 0f		 jne	 SHORT $LN2@StringVPri

; 9060 :     {
; 9061 :         // need to null terminate the string
; 9062 :         pszDest += cchMax;
; 9063 :         *pszDest = '\0';

  00025	88 1c 3e	 mov	 BYTE PTR [esi+edi], bl

; 9064 : 
; 9065 :         cchNewDestLength = cchMax;
; 9066 :     }
; 9067 :     else

  00028	eb 08		 jmp	 SHORT $LN9@StringVPri
$LN5@StringVPri:

; 9049 :     {
; 9050 :         // need to null terminate the string
; 9051 :         pszDest += cchMax;
; 9052 :         *pszDest = '\0';

  0002a	88 1c 3e	 mov	 BYTE PTR [esi+edi], bl

; 9055 : 
; 9056 :         // we have truncated pszDest
; 9057 :         hr = STRSAFE_E_INSUFFICIENT_BUFFER;

  0002d	bb 7a 00 07 80	 mov	 ebx, -2147024774	; 8007007aH
$LN9@StringVPri:

; 9053 : 
; 9054 :         cchNewDestLength = cchMax;

  00032	8b c6		 mov	 eax, esi
$LN2@StringVPri:

; 9068 :     {
; 9069 :         cchNewDestLength = (size_t)iRet;
; 9070 :     }
; 9071 : 
; 9072 :     if (pcchNewDestLength)

  00034	8b 4d 08	 mov	 ecx, DWORD PTR _pcchNewDestLength$[ebp]
  00037	85 c9		 test	 ecx, ecx
  00039	74 02		 je	 SHORT $LN1@StringVPri

; 9073 :     {
; 9074 :         *pcchNewDestLength = cchNewDestLength;

  0003b	89 01		 mov	 DWORD PTR [ecx], eax
$LN1@StringVPri:
  0003d	5e		 pop	 esi

; 9075 :     }
; 9076 : 
; 9077 :     return hr;

  0003e	8b c3		 mov	 eax, ebx
  00040	5b		 pop	 ebx

; 9078 : }

  00041	5d		 pop	 ebp
  00042	c2 0c 00	 ret	 12			; 0000000cH
?StringVPrintfWorkerA@@YGJPADIPAIPBD0@Z ENDP		; StringVPrintfWorkerA
_TEXT	ENDS
PUBLIC	??_H@YGXPAXIHP6EPAX0@Z@Z			; `vector constructor iterator'
; Function compile flags: /Ogsp
;	COMDAT ??_H@YGXPAXIHP6EPAX0@Z@Z
_TEXT	SEGMENT
___t$ = 8						; size = 4
___s$ = 12						; size = 4
___n$ = 16						; size = 4
___f$ = 20						; size = 4
??_H@YGXPAXIHP6EPAX0@Z@Z PROC				; `vector constructor iterator', COMDAT
  00000	55		 push	 ebp
  00001	8b ec		 mov	 ebp, esp
  00003	ff 4d 10	 dec	 DWORD PTR ___n$[ebp]
  00006	78 12		 js	 SHORT $LN1@vector
  00008	56		 push	 esi
  00009	8b 75 08	 mov	 esi, DWORD PTR ___t$[ebp]
$LL2@vector:
  0000c	8b ce		 mov	 ecx, esi
  0000e	ff 55 14	 call	 DWORD PTR ___f$[ebp]
  00011	03 75 0c	 add	 esi, DWORD PTR ___s$[ebp]
  00014	ff 4d 10	 dec	 DWORD PTR ___n$[ebp]
  00017	79 f3		 jns	 SHORT $LL2@vector
  00019	5e		 pop	 esi
$LN1@vector:
  0001a	5d		 pop	 ebp
  0001b	c2 10 00	 ret	 16			; 00000010H
??_H@YGXPAXIHP6EPAX0@Z@Z ENDP				; `vector constructor iterator'
_TEXT	ENDS
PUBLIC	?_DECSTR@@YAXPADH@Z				; _DECSTR
; Function compile flags: /Ogsp
; File d:\lost saga for developer\youtube\tutorial\source\src\lsclient\stringprotect.h
;	COMDAT ?_DECSTR@@YAXPADH@Z
_TEXT	SEGMENT
_s$ = 8							; size = 4
_l$ = 12						; size = 4
?_DECSTR@@YAXPADH@Z PROC				; _DECSTR, COMDAT

; 40   : __forceinline void _DECSTR(char* s, int l){int i=0,l4=(l-1)/4,*p=(int*)s;s[l-1]=0;for(;i<l4;++i)*(p++)^=0xEAEBECED;for(i=l4*4;i<l-1;++i)s[i]^=0xED-i%4;}

  00000	55		 push	 ebp
  00001	8b ec		 mov	 ebp, esp
  00003	8b 4d 0c	 mov	 ecx, DWORD PTR _l$[ebp]
  00006	56		 push	 esi
  00007	8b 75 08	 mov	 esi, DWORD PTR _s$[ebp]
  0000a	57		 push	 edi
  0000b	8d 79 ff	 lea	 edi, DWORD PTR [ecx-1]
  0000e	8b c7		 mov	 eax, edi
  00010	99		 cdq
  00011	83 e2 03	 and	 edx, 3
  00014	03 c2		 add	 eax, edx
  00016	c1 f8 02	 sar	 eax, 2
  00019	8b d6		 mov	 edx, esi
  0001b	c6 44 0e ff 00	 mov	 BYTE PTR [esi+ecx-1], 0
  00020	85 c0		 test	 eax, eax
  00022	7e 0e		 jle	 SHORT $LN4@DECSTR
  00024	8b c8		 mov	 ecx, eax
$LL6@DECSTR:
  00026	81 32 ed ec eb
	ea		 xor	 DWORD PTR [edx], -353637139 ; eaebecedH
  0002c	83 c2 04	 add	 edx, 4
  0002f	49		 dec	 ecx
  00030	75 f4		 jne	 SHORT $LL6@DECSTR
$LN4@DECSTR:
  00032	c1 e0 02	 shl	 eax, 2
  00035	eb 17		 jmp	 SHORT $LN14@DECSTR
$LL3@DECSTR:
  00037	8b c8		 mov	 ecx, eax
  00039	81 e1 03 00 00
	80		 and	 ecx, -2147483645	; 80000003H
  0003f	79 05		 jns	 SHORT $LN13@DECSTR
  00041	49		 dec	 ecx
  00042	83 c9 fc	 or	 ecx, -4			; fffffffcH
  00045	41		 inc	 ecx
$LN13@DECSTR:
  00046	b2 ed		 mov	 dl, -19			; ffffffedH
  00048	2a d1		 sub	 dl, cl
  0004a	30 14 30	 xor	 BYTE PTR [eax+esi], dl
  0004d	40		 inc	 eax
$LN14@DECSTR:
  0004e	3b c7		 cmp	 eax, edi
  00050	7c e5		 jl	 SHORT $LL3@DECSTR
  00052	5f		 pop	 edi
  00053	5e		 pop	 esi
  00054	5d		 pop	 ebp
  00055	c3		 ret	 0
?_DECSTR@@YAXPADH@Z ENDP				; _DECSTR
_TEXT	ENDS
PUBLIC	?GetGradeType@ioItem@@QBEHXZ			; ioItem::GetGradeType
; Function compile flags: /Ogsp
; File d:\lost saga for developer\youtube\tutorial\source\src\lsclient\ioitem.h
;	COMDAT ?GetGradeType@ioItem@@QBEHXZ
_TEXT	SEGMENT
?GetGradeType@ioItem@@QBEHXZ PROC			; ioItem::GetGradeType, COMDAT
; _this$ = ecx

; 445  : 	inline int GetGradeType() const { return m_nGradeType; }

  00000	8b 81 20 06 00
	00		 mov	 eax, DWORD PTR [ecx+1568]
  00006	c3		 ret	 0
?GetGradeType@ioItem@@QBEHXZ ENDP			; ioItem::GetGradeType
_TEXT	ENDS
PUBLIC	?Init@EXTRAITEMSLOT@@QAEXXZ			; EXTRAITEMSLOT::Init
; Function compile flags: /Ogsp
; File d:\lost saga for developer\youtube\tutorial\source\src\lsclient\iouserextraitem.h
;	COMDAT ?Init@EXTRAITEMSLOT@@QAEXXZ
_TEXT	SEGMENT
?Init@EXTRAITEMSLOT@@QAEXXZ PROC			; EXTRAITEMSLOT::Init, COMDAT
; _this$ = ecx

; 50   : 		m_iItemCode = 0;

  00000	33 c0		 xor	 eax, eax

; 51   : 		m_iReinforce = 0;
; 52   : 		m_iIndex = 0;
; 53   : 
; 54   : 		m_PeriodType = EPT_TIME;
; 55   : 		m_iValue1 = 0;
; 56   : 		m_iValue2 = 0;
; 57   : 
; 58   : 		m_iTradeState = EET_DISABLE;
; 59   : 	
; 60   : 		m_dwMaleCustom = 0;
; 61   : 		m_dwFemaleCustom = 0;
; 62   : 		m_failExp = 0;

  00002	33 d2		 xor	 edx, edx
  00004	89 01		 mov	 DWORD PTR [ecx], eax
  00006	89 41 04	 mov	 DWORD PTR [ecx+4], eax
  00009	89 41 08	 mov	 DWORD PTR [ecx+8], eax
  0000c	89 41 0c	 mov	 DWORD PTR [ecx+12], eax
  0000f	89 41 10	 mov	 DWORD PTR [ecx+16], eax
  00012	89 41 14	 mov	 DWORD PTR [ecx+20], eax
  00015	89 41 18	 mov	 DWORD PTR [ecx+24], eax
  00018	89 41 1c	 mov	 DWORD PTR [ecx+28], eax
  0001b	89 41 20	 mov	 DWORD PTR [ecx+32], eax
  0001e	66 89 51 24	 mov	 WORD PTR [ecx+36], dx

; 63   : 
; 64   : 		m_bCharEquip = false;

  00022	88 41 26	 mov	 BYTE PTR [ecx+38], al

; 65   : 	}

  00025	c3		 ret	 0
?Init@EXTRAITEMSLOT@@QAEXXZ ENDP			; EXTRAITEMSLOT::Init
_TEXT	ENDS
PUBLIC	?GetInventorySubManual@ioEtcItem@@QBEHXZ	; ioEtcItem::GetInventorySubManual
; Function compile flags: /Ogsp
; File d:\lost saga for developer\youtube\tutorial\source\src\lsclient\ioetcitem.h
;	COMDAT ?GetInventorySubManual@ioEtcItem@@QBEHXZ
_TEXT	SEGMENT
?GetInventorySubManual@ioEtcItem@@QBEHXZ PROC		; ioEtcItem::GetInventorySubManual, COMDAT
; _this$ = ecx

; 435  : 	inline int     GetInventorySubManual() const { return m_iInventorySubManual; }

  00000	8b 41 4c	 mov	 eax, DWORD PTR [ecx+76]
  00003	c3		 ret	 0
?GetInventorySubManual@ioEtcItem@@QBEHXZ ENDP		; ioEtcItem::GetInventorySubManual
_TEXT	ENDS
PUBLIC	??0NewShopPullDownItem@@QAE@XZ			; NewShopPullDownItem::NewShopPullDownItem
EXTRN	__imp_??0ioHashString@@QAE@XZ:PROC
;	COMDAT xdata$x
; File d:\lost saga for developer\youtube\tutorial\source\src\lsclient\gui\newshopbuywnd.h
xdata$x	SEGMENT
__unwindtable$??0NewShopPullDownItem@@QAE@XZ DD 0ffffffffH
	DD	FLAT:__unwindfunclet$??0NewShopPullDownItem@@QAE@XZ$0
	DD	00H
	DD	FLAT:__unwindfunclet$??0NewShopPullDownItem@@QAE@XZ$1
__ehfuncinfo$??0NewShopPullDownItem@@QAE@XZ DD 019930522H
	DD	02H
	DD	FLAT:__unwindtable$??0NewShopPullDownItem@@QAE@XZ
	DD	2 DUP(00H)
	DD	2 DUP(00H)
	DD	00H
	DD	01H
; Function compile flags: /Ogsp
xdata$x	ENDS
;	COMDAT ??0NewShopPullDownItem@@QAE@XZ
_TEXT	SEGMENT
_this$ = -16						; size = 4
__$EHRec$ = -12						; size = 12
??0NewShopPullDownItem@@QAE@XZ PROC			; NewShopPullDownItem::NewShopPullDownItem, COMDAT
; _this$ = ecx

; 25   : 	NewShopPullDownItem()

  00000	6a 04		 push	 4
  00002	b8 00 00 00 00	 mov	 eax, __ehhandler$??0NewShopPullDownItem@@QAE@XZ
  00007	e8 00 00 00 00	 call	 __EH_prolog3
  0000c	8b f1		 mov	 esi, ecx
  0000e	89 75 f0	 mov	 DWORD PTR _this$[ebp], esi
  00011	8b 3d 00 00 00
	00		 mov	 edi, DWORD PTR __imp_??0ioHashString@@QAE@XZ
  00017	ff d7		 call	 edi
  00019	33 db		 xor	 ebx, ebx
  0001b	8d 4e 24	 lea	 ecx, DWORD PTR [esi+36]
  0001e	89 5d fc	 mov	 DWORD PTR __$EHRec$[ebp+8], ebx
  00021	ff d7		 call	 edi
  00023	8d 4e 3c	 lea	 ecx, DWORD PTR [esi+60]
  00026	c6 45 fc 01	 mov	 BYTE PTR __$EHRec$[ebp+8], 1
  0002a	ff d7		 call	 edi

; 26   : 	{
; 27   : 		m_iMagicCode = 0;

  0002c	89 5e 10	 mov	 DWORD PTR [esi+16], ebx

; 28   : 		m_dwTextColor= 0; 

  0002f	89 5e 14	 mov	 DWORD PTR [esi+20], ebx

; 29   : 		m_bGrowthCatalystItem = false;

  00032	88 5e 18	 mov	 BYTE PTR [esi+24], bl

; 30   : 		m_iGrowthCatalystLevel = 0;

  00035	89 5e 1c	 mov	 DWORD PTR [esi+28], ebx

; 31   : 		m_bCount = false;

  00038	88 5e 20	 mov	 BYTE PTR [esi+32], bl

; 32   : 		m_dwCntTextColor = 0;

  0003b	89 5e 34	 mov	 DWORD PTR [esi+52], ebx

; 33   : 		m_bPetLevel = false;

  0003e	88 5e 38	 mov	 BYTE PTR [esi+56], bl

; 34   : 		m_dwPetLevelTextColor = 0;

  00041	89 5e 4c	 mov	 DWORD PTR [esi+76], ebx

; 35   : 	}

  00044	8b c6		 mov	 eax, esi
  00046	e8 00 00 00 00	 call	 __EH_epilog3
  0004b	c3		 ret	 0
_TEXT	ENDS
;	COMDAT text$x
text$x	SEGMENT
__unwindfunclet$??0NewShopPullDownItem@@QAE@XZ$0:
  00000	8b 4d f0	 mov	 ecx, DWORD PTR _this$[ebp]
  00003	ff 25 00 00 00
	00		 jmp	 DWORD PTR __imp_??1ioHashString@@QAE@XZ
__unwindfunclet$??0NewShopPullDownItem@@QAE@XZ$1:
  00009	8b 4d f0	 mov	 ecx, DWORD PTR _this$[ebp]
  0000c	83 c1 24	 add	 ecx, 36			; 00000024H
  0000f	ff 25 00 00 00
	00		 jmp	 DWORD PTR __imp_??1ioHashString@@QAE@XZ
__ehhandler$??0NewShopPullDownItem@@QAE@XZ:
  00015	8b 54 24 08	 mov	 edx, DWORD PTR [esp+8]
  00019	8d 42 0c	 lea	 eax, DWORD PTR [edx+12]
  0001c	8b 4a ec	 mov	 ecx, DWORD PTR [edx-20]
  0001f	33 c8		 xor	 ecx, eax
  00021	e8 00 00 00 00	 call	 @__security_check_cookie@4
  00026	b8 00 00 00 00	 mov	 eax, OFFSET __ehfuncinfo$??0NewShopPullDownItem@@QAE@XZ
  0002b	e9 00 00 00 00	 jmp	 ___CxxFrameHandler3
text$x	ENDS
??0NewShopPullDownItem@@QAE@XZ ENDP			; NewShopPullDownItem::NewShopPullDownItem
PUBLIC	?GetOpenBtn@NewShopPullDownWnd@@QAEPAVioWnd@@XZ	; NewShopPullDownWnd::GetOpenBtn
; Function compile flags: /Ogsp
;	COMDAT ?GetOpenBtn@NewShopPullDownWnd@@QAEPAVioWnd@@XZ
_TEXT	SEGMENT
?GetOpenBtn@NewShopPullDownWnd@@QAEPAVioWnd@@XZ PROC	; NewShopPullDownWnd::GetOpenBtn, COMDAT
; _this$ = ecx

; 77   : 	ioWnd *GetOpenBtn(){ return m_pOpenBtn; }

  00000	8b 81 98 01 00
	00		 mov	 eax, DWORD PTR [ecx+408]
  00006	c3		 ret	 0
?GetOpenBtn@NewShopPullDownWnd@@QAEPAVioWnd@@XZ ENDP	; NewShopPullDownWnd::GetOpenBtn
_TEXT	ENDS
PUBLIC	?SetMarkType@InventoryIconBtn@@QAEXH@Z		; InventoryIconBtn::SetMarkType
; Function compile flags: /Ogsp
; File d:\lost saga for developer\youtube\tutorial\source\src\lsclient\gui\myinventorywnd.h
;	COMDAT ?SetMarkType@InventoryIconBtn@@QAEXH@Z
_TEXT	SEGMENT
_iMarkType$ = 8						; size = 4
?SetMarkType@InventoryIconBtn@@QAEXH@Z PROC		; InventoryIconBtn::SetMarkType, COMDAT
; _this$ = ecx

; 551  : 	void SetMarkType( int iMarkType ) { m_iMarkType = iMarkType; } 

  00000	55		 push	 ebp
  00001	8b ec		 mov	 ebp, esp
  00003	8b 45 08	 mov	 eax, DWORD PTR _iMarkType$[ebp]
  00006	89 81 3c 02 00
	00		 mov	 DWORD PTR [ecx+572], eax
  0000c	5d		 pop	 ebp
  0000d	c2 04 00	 ret	 4
?SetMarkType@InventoryIconBtn@@QAEXH@Z ENDP		; InventoryIconBtn::SetMarkType
_TEXT	ENDS
PUBLIC	?SetGradeType@InventoryIconBtn@@QAEXH@Z		; InventoryIconBtn::SetGradeType
; Function compile flags: /Ogsp
;	COMDAT ?SetGradeType@InventoryIconBtn@@QAEXH@Z
_TEXT	SEGMENT
_nGradeType$ = 8					; size = 4
?SetGradeType@InventoryIconBtn@@QAEXH@Z PROC		; InventoryIconBtn::SetGradeType, COMDAT
; _this$ = ecx

; 555  : 	void SetGradeType( int nGradeType ){ m_nGradeType = nGradeType; }

  00000	55		 push	 ebp
  00001	8b ec		 mov	 ebp, esp
  00003	8b 45 08	 mov	 eax, DWORD PTR _nGradeType$[ebp]
  00006	89 81 84 02 00
	00		 mov	 DWORD PTR [ecx+644], eax
  0000c	5d		 pop	 ebp
  0000d	c2 04 00	 ret	 4
?SetGradeType@InventoryIconBtn@@QAEXH@Z ENDP		; InventoryIconBtn::SetGradeType
_TEXT	ENDS
PUBLIC	?GetUserExtraItem@ioMyInfo@@QAEPAVioUserExtraItem@@XZ ; ioMyInfo::GetUserExtraItem
; Function compile flags: /Ogsp
; File d:\lost saga for developer\youtube\tutorial\source\src\lsclient\iomyinfo.h
;	COMDAT ?GetUserExtraItem@ioMyInfo@@QAEPAVioUserExtraItem@@XZ
_TEXT	SEGMENT
?GetUserExtraItem@ioMyInfo@@QAEPAVioUserExtraItem@@XZ PROC ; ioMyInfo::GetUserExtraItem, COMDAT
; _this$ = ecx

; 636  : 	ioUserExtraItem* GetUserExtraItem() { return &m_UserExtraItem; }

  00000	8d 81 ac 01 00
	00		 lea	 eax, DWORD PTR [ecx+428]
  00006	c3		 ret	 0
?GetUserExtraItem@ioMyInfo@@QAEPAVioUserExtraItem@@XZ ENDP ; ioMyInfo::GetUserExtraItem
_TEXT	ENDS
PUBLIC	?GetAlchemicInventory@ioMyInfo@@QAEPAVioAlchemicInventory@@XZ ; ioMyInfo::GetAlchemicInventory
; Function compile flags: /Ogsp
;	COMDAT ?GetAlchemicInventory@ioMyInfo@@QAEPAVioAlchemicInventory@@XZ
_TEXT	SEGMENT
?GetAlchemicInventory@ioMyInfo@@QAEPAVioAlchemicInventory@@XZ PROC ; ioMyInfo::GetAlchemicInventory, COMDAT
; _this$ = ecx

; 640  : 	ioAlchemicInventory* GetAlchemicInventory() { return &m_UserAlchmicInven; }

  00000	8d 81 84 02 00
	00		 lea	 eax, DWORD PTR [ecx+644]
  00006	c3		 ret	 0
?GetAlchemicInventory@ioMyInfo@@QAEPAVioAlchemicInventory@@XZ ENDP ; ioMyInfo::GetAlchemicInventory
_TEXT	ENDS
PUBLIC	?GetMaxReinforce@ioItemCompoundMaterialManager@@QBEHXZ ; ioItemCompoundMaterialManager::GetMaxReinforce
; Function compile flags: /Ogsp
; File d:\lost saga for developer\youtube\tutorial\source\src\lsclient\ioitemcompoundmaterialmanager.h
;	COMDAT ?GetMaxReinforce@ioItemCompoundMaterialManager@@QBEHXZ
_TEXT	SEGMENT
?GetMaxReinforce@ioItemCompoundMaterialManager@@QBEHXZ PROC ; ioItemCompoundMaterialManager::GetMaxReinforce, COMDAT
; _this$ = ecx

; 124  : 	inline int GetMaxReinforce() const { return m_nMaxReinforce; }

  00000	8b 41 48	 mov	 eax, DWORD PTR [ecx+72]
  00003	c3		 ret	 0
?GetMaxReinforce@ioItemCompoundMaterialManager@@QBEHXZ ENDP ; ioItemCompoundMaterialManager::GetMaxReinforce
_TEXT	ENDS
PUBLIC	?GetFixedFailReinforce@ioItemCompoundMaterialManager@@QBEHXZ ; ioItemCompoundMaterialManager::GetFixedFailReinforce
; Function compile flags: /Ogsp
;	COMDAT ?GetFixedFailReinforce@ioItemCompoundMaterialManager@@QBEHXZ
_TEXT	SEGMENT
?GetFixedFailReinforce@ioItemCompoundMaterialManager@@QBEHXZ PROC ; ioItemCompoundMaterialManager::GetFixedFailReinforce, COMDAT
; _this$ = ecx

; 125  : 	inline int GetFixedFailReinforce() const { return m_nFixedFailReinforce; }

  00000	8b 41 4c	 mov	 eax, DWORD PTR [ecx+76]
  00003	c3		 ret	 0
?GetFixedFailReinforce@ioItemCompoundMaterialManager@@QBEHXZ ENDP ; ioItemCompoundMaterialManager::GetFixedFailReinforce
_TEXT	ENDS
EXTRN	__imp_??0exception@std@@QAE@ABV01@@Z:PROC
; Function compile flags: /Ogsp
;	COMDAT ??0bad_alloc@std@@QAE@ABV01@@Z
_TEXT	SEGMENT
___that$ = 8						; size = 4
??0bad_alloc@std@@QAE@ABV01@@Z PROC			; std::bad_alloc::bad_alloc, COMDAT
; _this$ = ecx
  00000	55		 push	 ebp
  00001	8b ec		 mov	 ebp, esp
  00003	56		 push	 esi
  00004	ff 75 08	 push	 DWORD PTR ___that$[ebp]
  00007	8b f1		 mov	 esi, ecx
  00009	ff 15 00 00 00
	00		 call	 DWORD PTR __imp_??0exception@std@@QAE@ABV01@@Z
  0000f	c7 06 00 00 00
	00		 mov	 DWORD PTR [esi], OFFSET ??_7bad_alloc@std@@6B@
  00015	8b c6		 mov	 eax, esi
  00017	5e		 pop	 esi
  00018	5d		 pop	 ebp
  00019	c2 04 00	 ret	 4
??0bad_alloc@std@@QAE@ABV01@@Z ENDP			; std::bad_alloc::bad_alloc
_TEXT	ENDS
PUBLIC	__real@434c0000
PUBLIC	?PrintManual@ItemMaterialCompoundWnd@@IAEXHHM@Z	; ItemMaterialCompoundWnd::PrintManual
EXTRN	?PrintFullTextWidthCut@ioComplexStringPrinter@@QAEXMMW4TextAlignType@@ME@Z:PROC ; ioComplexStringPrinter::PrintFullTextWidthCut
EXTRN	?FindEtcItem@ioEtcItemManager@@QAEPAVioEtcItem@@K@Z:PROC ; ioEtcItemManager::FindEtcItem
;	COMDAT __real@434c0000
CONST	SEGMENT
__real@434c0000 DD 0434c0000r			; 204
CONST	ENDS
;	COMDAT xdata$x
xdata$x	SEGMENT
__unwindtable$?PrintManual@ItemMaterialCompoundWnd@@IAEXHHM@Z DD 0ffffffffH
	DD	FLAT:__unwindfunclet$?PrintManual@ItemMaterialCompoundWnd@@IAEXHHM@Z$0
__ehfuncinfo$?PrintManual@ItemMaterialCompoundWnd@@IAEXHHM@Z DD 019930522H
	DD	01H
	DD	FLAT:__unwindtable$?PrintManual@ItemMaterialCompoundWnd@@IAEXHHM@Z
	DD	2 DUP(00H)
	DD	2 DUP(00H)
	DD	00H
	DD	01H
; Function compile flags: /Ogsp
; File d:\lost saga for developer\youtube\tutorial\source\src\lsclient\gui\itemmaterialcompoundwnd.cpp
xdata$x	ENDS
;	COMDAT ?PrintManual@ItemMaterialCompoundWnd@@IAEXHHM@Z
_TEXT	SEGMENT
_kPrinter$ = -56					; size = 32
_iMaxLine$511581 = -24					; size = 4
_iMaxLine$ = -24					; size = 4
tv294 = -20						; size = 4
_iLine$511575 = -16					; size = 4
_nYpos$ = -16						; size = 4
__$EHRec$ = -12						; size = 12
_a_iXPos$ = 8						; size = 4
_a_iYPos$ = 12						; size = 4
_fScale$ = 16						; size = 4
?PrintManual@ItemMaterialCompoundWnd@@IAEXHHM@Z PROC	; ItemMaterialCompoundWnd::PrintManual, COMDAT
; _this$ = ecx

; 401  : {

  00000	6a 2c		 push	 44			; 0000002cH
  00002	b8 00 00 00 00	 mov	 eax, __ehhandler$?PrintManual@ItemMaterialCompoundWnd@@IAEXHHM@Z
  00007	e8 00 00 00 00	 call	 __EH_prolog3
  0000c	8b f1		 mov	 esi, ecx

; 402  : 	enum
; 403  : 	{
; 404  : 		DEFAULT_MANUAL_X_OFFSET = 28,
; 405  : 		DEFAULT_MANUAL_Y_OFFSET = 281,
; 406  : 
; 407  : 		SUB_MANUAL_X_OFFSET = 28,
; 408  : 		SUB_MANUAL_Y_OFFSET = 281,
; 409  : 
; 410  : 		EXTRA_SUB_MANUAL_X_OFFSET = 28,
; 411  : 		EXTRA_SUB_MANUAL_Y_OFFSET = 333,
; 412  : 
; 413  : 		EXTRA_SUB_BACK_X_OFFSET = 27,
; 414  : 		EXTRA_SUB_BACK_Y_OFFSET = 332,
; 415  : 	};
; 416  : 
; 417  : 	if( !m_pManual )

  0000e	83 be b8 01 00
	00 00		 cmp	 DWORD PTR [esi+440], 0
  00015	0f 84 f1 01 00
	00		 je	 $LN11@PrintManua

; 418  : 		return;
; 419  : 
; 420  : 	ioEtcItem *pItem = g_EtcItemMgr.FindEtcItem( m_dwEtcItemCode );

  0001b	ff b6 b4 01 00
	00		 push	 DWORD PTR [esi+436]
  00021	8b 0d 00 00 00
	00		 mov	 ecx, DWORD PTR ?ms_Singleton@?$Singleton@VioEtcItemManager@@@@1PAVioEtcItemManager@@A ; Singleton<ioEtcItemManager>::ms_Singleton
  00027	e8 00 00 00 00	 call	 ?FindEtcItem@ioEtcItemManager@@QAEPAVioEtcItem@@K@Z ; ioEtcItemManager::FindEtcItem

; 421  : 	if( !pItem ) 

  0002c	85 c0		 test	 eax, eax
  0002e	0f 84 d8 01 00
	00		 je	 $LN11@PrintManua

; 422  : 		return;
; 423  : 
; 424  : 	int iSubManual = pItem->GetInventorySubManual() - 1;

  00034	8b 78 4c	 mov	 edi, DWORD PTR [eax+76]

; 425  : 	int nXpos = a_iXPos + DEFAULT_MANUAL_X_OFFSET;
; 426  : 	int nYpos = a_iYPos + DEFAULT_MANUAL_Y_OFFSET;

  00037	8b 5d 0c	 mov	 ebx, DWORD PTR _a_iYPos$[ebp]

; 427  : 
; 428  : 	ioComplexStringPrinter kPrinter;

  0003a	8d 4d c8	 lea	 ecx, DWORD PTR _kPrinter$[ebp]
  0003d	4f		 dec	 edi
  0003e	81 c3 19 01 00
	00		 add	 ebx, 281		; 00000119H
  00044	e8 00 00 00 00	 call	 ??0ioComplexStringPrinter@@QAE@XZ ; ioComplexStringPrinter::ioComplexStringPrinter

; 429  : 	int iMaxLine = m_pManual->GetMaxLine( iSubManual );

  00049	8b 8e b8 01 00
	00		 mov	 ecx, DWORD PTR [esi+440]
  0004f	8b 01		 mov	 eax, DWORD PTR [ecx]
  00051	83 65 fc 00	 and	 DWORD PTR __$EHRec$[ebp+8], 0
  00055	57		 push	 edi
  00056	ff 50 08	 call	 DWORD PTR [eax+8]
  00059	89 45 e8	 mov	 DWORD PTR _iMaxLine$[ebp], eax

; 430  : 	for(int iLine = 1; iLine < iMaxLine; iLine++)

  0005c	33 c0		 xor	 eax, eax
  0005e	40		 inc	 eax
  0005f	89 45 f0	 mov	 DWORD PTR _iLine$511575[ebp], eax
  00062	39 45 e8	 cmp	 DWORD PTR _iMaxLine$[ebp], eax
  00065	0f 8e 8a 00 00
	00		 jle	 $LN6@PrintManua
  0006b	8b 45 08	 mov	 eax, DWORD PTR _a_iXPos$[ebp]
  0006e	83 c0 1c	 add	 eax, 28			; 0000001cH
  00071	0f 57 c0	 xorps	 xmm0, xmm0
  00074	f3 0f 2a c0	 cvtsi2ss xmm0, eax
  00078	f3 0f 11 45 ec	 movss	 DWORD PTR tv294[ebp], xmm0
$LN8@PrintManua:

; 431  : 	{
; 432  : 		m_pManual->SetPrinter( iSubManual, iLine, fScale, kPrinter);

  0007d	8b 8e b8 01 00
	00		 mov	 ecx, DWORD PTR [esi+440]
  00083	f3 0f 10 45 10	 movss	 xmm0, DWORD PTR _fScale$[ebp]
  00088	8b 01		 mov	 eax, DWORD PTR [ecx]
  0008a	8d 55 c8	 lea	 edx, DWORD PTR _kPrinter$[ebp]
  0008d	52		 push	 edx
  0008e	51		 push	 ecx
  0008f	f3 0f 11 04 24	 movss	 DWORD PTR [esp], xmm0
  00094	ff 75 f0	 push	 DWORD PTR _iLine$511575[ebp]
  00097	57		 push	 edi
  00098	ff 50 10	 call	 DWORD PTR [eax+16]

; 433  : 		nYpos += m_pManual->GetSpaceLine( iSubManual, iLine);

  0009b	ff 75 f0	 push	 DWORD PTR _iLine$511575[ebp]
  0009e	8b 8e b8 01 00
	00		 mov	 ecx, DWORD PTR [esi+440]
  000a4	8b 01		 mov	 eax, DWORD PTR [ecx]
  000a6	57		 push	 edi
  000a7	ff 50 0c	 call	 DWORD PTR [eax+12]

; 434  : 		kPrinter.PrintFullTextWidthCut( nXpos, nYpos, TAT_LEFT, DESC_WIDTH );

  000aa	f3 0f 10 05 00
	00 00 00	 movss	 xmm0, DWORD PTR __real@434c0000
  000b2	68 ff 00 00 00	 push	 255			; 000000ffH
  000b7	51		 push	 ecx
  000b8	f3 0f 11 04 24	 movss	 DWORD PTR [esp], xmm0
  000bd	6a 00		 push	 0
  000bf	51		 push	 ecx
  000c0	51		 push	 ecx
  000c1	03 d8		 add	 ebx, eax
  000c3	0f 57 c0	 xorps	 xmm0, xmm0
  000c6	f3 0f 2a c3	 cvtsi2ss xmm0, ebx
  000ca	f3 0f 11 44 24
	04		 movss	 DWORD PTR [esp+4], xmm0
  000d0	f3 0f 10 45 ec	 movss	 xmm0, DWORD PTR tv294[ebp]
  000d5	8d 4d c8	 lea	 ecx, DWORD PTR _kPrinter$[ebp]
  000d8	f3 0f 11 04 24	 movss	 DWORD PTR [esp], xmm0
  000dd	e8 00 00 00 00	 call	 ?PrintFullTextWidthCut@ioComplexStringPrinter@@QAEXMMW4TextAlignType@@ME@Z ; ioComplexStringPrinter::PrintFullTextWidthCut

; 435  : 		kPrinter.ClearList();

  000e2	8d 4d c8	 lea	 ecx, DWORD PTR _kPrinter$[ebp]
  000e5	e8 00 00 00 00	 call	 ?ClearList@ioComplexStringPrinter@@QAEXXZ ; ioComplexStringPrinter::ClearList
  000ea	ff 45 f0	 inc	 DWORD PTR _iLine$511575[ebp]
