; Listing generated by Microsoft (R) Optimizing Compiler Version 16.00.30319.01 

	TITLE	D:\Lost Saga For Developer\Youtube\Tutorial\Source\src\LSClient\GUI\ItemCompoundResultWnd.cpp
	.686P
	.XMM
	include listing.inc
	.model	flat

INCLUDELIB MSVCRT
INCLUDELIB OLDNAMES

PUBLIC	?return1@@YAIXZ					; return1
; Function compile flags: /Ogsp
; File d:\lost saga for developer\youtube\tutorial\source\src\lsclient\stdafx.h
;	COMDAT ?return1@@YAIXZ
_TEXT	SEGMENT
?return1@@YAIXZ PROC					; return1, COMDAT

; 17   : 	__forceinline unsigned int return1() { __asm mov eax, 1 };

  00000	b8 01 00 00 00	 mov	 eax, 1
  00005	c3		 ret	 0
?return1@@YAIXZ ENDP					; return1
_TEXT	ENDS
PUBLIC	?return100@@YAIXZ				; return100
; Function compile flags: /Ogsp
;	COMDAT ?return100@@YAIXZ
_TEXT	SEGMENT
?return100@@YAIXZ PROC					; return100, COMDAT

; 25   : 	__forceinline unsigned int return100() { __asm mov eax, 100 };

  00000	b8 64 00 00 00	 mov	 eax, 100		; 00000064H
  00005	c3		 ret	 0
?return100@@YAIXZ ENDP					; return100
_TEXT	ENDS
PUBLIC	?iwm_hide@ItemCompoundResultWnd@@UAEXXZ		; ItemCompoundResultWnd::iwm_hide
EXTRN	?ProcessCompleteReserve@ioQuestManager@@QAEXXZ:PROC ; ioQuestManager::ProcessCompleteReserve
EXTRN	?GetSingleton@ioQuestManager@@SAAAV1@XZ:PROC	; ioQuestManager::GetSingleton
EXTRN	__imp_?GetSingleton@ioSoundManager@@SAAAV1@XZ:PROC
EXTRN	__imp_?StopSound@ioSoundManager@@QAEXABVioHashString@@K@Z:PROC
EXTRN	__imp_?IsEmpty@ioHashString@@QBE_NXZ:PROC
; Function compile flags: /Ogsp
; File d:\lost saga for developer\youtube\tutorial\source\src\lsclient\gui\itemcompoundresultwnd.cpp
;	COMDAT ?iwm_hide@ItemCompoundResultWnd@@UAEXXZ
_TEXT	SEGMENT
?iwm_hide@ItemCompoundResultWnd@@UAEXXZ PROC		; ItemCompoundResultWnd::iwm_hide, COMDAT
; _this$ = ecx

; 90   : {

  00000	53		 push	 ebx
  00001	56		 push	 esi
  00002	8b d9		 mov	 ebx, ecx
  00004	57		 push	 edi

; 91   : 	if( !m_szRollingSound.IsEmpty() )

  00005	8d 8b fc 01 00
	00		 lea	 ecx, DWORD PTR [ebx+508]
  0000b	ff 15 00 00 00
	00		 call	 DWORD PTR __imp_?IsEmpty@ioHashString@@QBE_NXZ
  00011	8b 35 00 00 00
	00		 mov	 esi, DWORD PTR __imp_?StopSound@ioSoundManager@@QAEXABVioHashString@@K@Z
  00017	8b 3d 00 00 00
	00		 mov	 edi, DWORD PTR __imp_?GetSingleton@ioSoundManager@@SAAAV1@XZ
  0001d	84 c0		 test	 al, al
  0001f	75 0f		 jne	 SHORT $LN4@iwm_hide

; 92   : 		g_SoundMgr.StopSound( m_szRollingSound, 0 );

  00021	8d 83 fc 01 00
	00		 lea	 eax, DWORD PTR [ebx+508]
  00027	6a 00		 push	 0
  00029	50		 push	 eax
  0002a	ff d7		 call	 edi
  0002c	8b c8		 mov	 ecx, eax
  0002e	ff d6		 call	 esi
$LN4@iwm_hide:

; 93   : 
; 94   : 	if( !m_szSuccessSound.IsEmpty() )

  00030	8d 8b 0c 02 00
	00		 lea	 ecx, DWORD PTR [ebx+524]
  00036	ff 15 00 00 00
	00		 call	 DWORD PTR __imp_?IsEmpty@ioHashString@@QBE_NXZ
  0003c	84 c0		 test	 al, al
  0003e	75 0f		 jne	 SHORT $LN3@iwm_hide

; 95   : 		g_SoundMgr.StopSound( m_szSuccessSound, 0 );

  00040	8d 83 0c 02 00
	00		 lea	 eax, DWORD PTR [ebx+524]
  00046	6a 00		 push	 0
  00048	50		 push	 eax
  00049	ff d7		 call	 edi
  0004b	8b c8		 mov	 ecx, eax
  0004d	ff d6		 call	 esi
$LN3@iwm_hide:

; 96   : 
; 97   : 	if( !m_szBigSuccessSound.IsEmpty() )

  0004f	8d 8b 1c 02 00
	00		 lea	 ecx, DWORD PTR [ebx+540]
  00055	ff 15 00 00 00
	00		 call	 DWORD PTR __imp_?IsEmpty@ioHashString@@QBE_NXZ
  0005b	84 c0		 test	 al, al
  0005d	75 0f		 jne	 SHORT $LN2@iwm_hide

; 98   : 		g_SoundMgr.StopSound( m_szBigSuccessSound, 0 );

  0005f	8d 83 1c 02 00
	00		 lea	 eax, DWORD PTR [ebx+540]
  00065	6a 00		 push	 0
  00067	50		 push	 eax
  00068	ff d7		 call	 edi
  0006a	8b c8		 mov	 ecx, eax
  0006c	ff d6		 call	 esi
$LN2@iwm_hide:

; 99   : 
; 100  : 	if( !m_szFailSound.IsEmpty() )

  0006e	81 c3 2c 02 00
	00		 add	 ebx, 556		; 0000022cH
  00074	8b cb		 mov	 ecx, ebx
  00076	ff 15 00 00 00
	00		 call	 DWORD PTR __imp_?IsEmpty@ioHashString@@QBE_NXZ
  0007c	84 c0		 test	 al, al
  0007e	75 09		 jne	 SHORT $LN1@iwm_hide

; 101  : 		g_SoundMgr.StopSound( m_szFailSound, 0 );

  00080	6a 00		 push	 0
  00082	53		 push	 ebx
  00083	ff d7		 call	 edi
  00085	8b c8		 mov	 ecx, eax
  00087	ff d6		 call	 esi
$LN1@iwm_hide:

; 102  : 
; 103  : 	g_QuestMgr.ProcessCompleteReserve();

  00089	e8 00 00 00 00	 call	 ?GetSingleton@ioQuestManager@@SAAAV1@XZ ; ioQuestManager::GetSingleton
  0008e	5f		 pop	 edi
  0008f	5e		 pop	 esi
  00090	8b c8		 mov	 ecx, eax
  00092	5b		 pop	 ebx
  00093	e9 00 00 00 00	 jmp	 ?ProcessCompleteReserve@ioQuestManager@@QAEXXZ ; ioQuestManager::ProcessCompleteReserve
?iwm_hide@ItemCompoundResultWnd@@UAEXXZ ENDP		; ItemCompoundResultWnd::iwm_hide
_TEXT	ENDS
PUBLIC	??_7bad_alloc@std@@6B@				; std::bad_alloc::`vftable'
PUBLIC	??0bad_alloc@std@@QAE@PBD@Z			; std::bad_alloc::bad_alloc
PUBLIC	??_R4bad_alloc@std@@6B@				; std::bad_alloc::`RTTI Complete Object Locator'
PUBLIC	??_R0?AVbad_alloc@std@@@8			; std::bad_alloc `RTTI Type Descriptor'
PUBLIC	??_R3bad_alloc@std@@8				; std::bad_alloc::`RTTI Class Hierarchy Descriptor'
PUBLIC	??_R2bad_alloc@std@@8				; std::bad_alloc::`RTTI Base Class Array'
PUBLIC	??_R1A@?0A@EA@bad_alloc@std@@8			; std::bad_alloc::`RTTI Base Class Descriptor at (0,-1,0,64)'
PUBLIC	??_R1A@?0A@EA@exception@std@@8			; std::exception::`RTTI Base Class Descriptor at (0,-1,0,64)'
PUBLIC	??_R0?AVexception@std@@@8			; std::exception `RTTI Type Descriptor'
PUBLIC	??_R3exception@std@@8				; std::exception::`RTTI Class Hierarchy Descriptor'
PUBLIC	??_R2exception@std@@8				; std::exception::`RTTI Base Class Array'
EXTRN	__imp_??0exception@std@@QAE@ABQBD@Z:PROC
EXTRN	??_7type_info@@6B@:QWORD			; type_info::`vftable'
EXTRN	??_Ebad_alloc@std@@UAEPAXI@Z:PROC		; std::bad_alloc::`vector deleting destructor'
EXTRN	?what@exception@std@@UBEPBDXZ:PROC		; std::exception::what
;	COMDAT ??_R2exception@std@@8
; File c:\program files (x86)\microsoft visual studio 10.0\vc\include\exception
rdata$r	SEGMENT
??_R2exception@std@@8 DD FLAT:??_R1A@?0A@EA@exception@std@@8 ; std::exception::`RTTI Base Class Array'
rdata$r	ENDS
;	COMDAT ??_R3exception@std@@8
rdata$r	SEGMENT
??_R3exception@std@@8 DD 00H				; std::exception::`RTTI Class Hierarchy Descriptor'
	DD	00H
	DD	01H
	DD	FLAT:??_R2exception@std@@8
rdata$r	ENDS
;	COMDAT ??_R0?AVexception@std@@@8
_DATA	SEGMENT
??_R0?AVexception@std@@@8 DD FLAT:??_7type_info@@6B@	; std::exception `RTTI Type Descriptor'
	DD	00H
	DB	'.?AVexception@std@@', 00H
_DATA	ENDS
;	COMDAT ??_R1A@?0A@EA@exception@std@@8
rdata$r	SEGMENT
??_R1A@?0A@EA@exception@std@@8 DD FLAT:??_R0?AVexception@std@@@8 ; std::exception::`RTTI Base Class Descriptor at (0,-1,0,64)'
	DD	00H
	DD	00H
	DD	0ffffffffH
	DD	00H
	DD	040H
	DD	FLAT:??_R3exception@std@@8
rdata$r	ENDS
;	COMDAT ??_R1A@?0A@EA@bad_alloc@std@@8
rdata$r	SEGMENT
??_R1A@?0A@EA@bad_alloc@std@@8 DD FLAT:??_R0?AVbad_alloc@std@@@8 ; std::bad_alloc::`RTTI Base Class Descriptor at (0,-1,0,64)'
	DD	01H
	DD	00H
	DD	0ffffffffH
	DD	00H
	DD	040H
	DD	FLAT:??_R3bad_alloc@std@@8
rdata$r	ENDS
;	COMDAT ??_R2bad_alloc@std@@8
rdata$r	SEGMENT
??_R2bad_alloc@std@@8 DD FLAT:??_R1A@?0A@EA@bad_alloc@std@@8 ; std::bad_alloc::`RTTI Base Class Array'
	DD	FLAT:??_R1A@?0A@EA@exception@std@@8
rdata$r	ENDS
;	COMDAT ??_R3bad_alloc@std@@8
rdata$r	SEGMENT
??_R3bad_alloc@std@@8 DD 00H				; std::bad_alloc::`RTTI Class Hierarchy Descriptor'
	DD	00H
	DD	02H
	DD	FLAT:??_R2bad_alloc@std@@8
rdata$r	ENDS
;	COMDAT ??_R0?AVbad_alloc@std@@@8
_DATA	SEGMENT
??_R0?AVbad_alloc@std@@@8 DD FLAT:??_7type_info@@6B@	; std::bad_alloc `RTTI Type Descriptor'
	DD	00H
	DB	'.?AVbad_alloc@std@@', 00H
_DATA	ENDS
;	COMDAT ??_R4bad_alloc@std@@6B@
rdata$r	SEGMENT
??_R4bad_alloc@std@@6B@ DD 00H				; std::bad_alloc::`RTTI Complete Object Locator'
	DD	00H
	DD	00H
	DD	FLAT:??_R0?AVbad_alloc@std@@@8
	DD	FLAT:??_R3bad_alloc@std@@8
rdata$r	ENDS
;	COMDAT ??_7bad_alloc@std@@6B@
CONST	SEGMENT
??_7bad_alloc@std@@6B@ DD FLAT:??_R4bad_alloc@std@@6B@	; std::bad_alloc::`vftable'
	DD	FLAT:??_Ebad_alloc@std@@UAEPAXI@Z
	DD	FLAT:?what@exception@std@@UBEPBDXZ
; Function compile flags: /Ogsp
CONST	ENDS
;	COMDAT ??0bad_alloc@std@@QAE@PBD@Z
_TEXT	SEGMENT
__Message$ = 8						; size = 4
??0bad_alloc@std@@QAE@PBD@Z PROC			; std::bad_alloc::bad_alloc, COMDAT
; _this$ = ecx

; 345  : 		{	// construct from message string

  00000	55		 push	 ebp
  00001	8b ec		 mov	 ebp, esp
  00003	56		 push	 esi
  00004	8d 45 08	 lea	 eax, DWORD PTR __Message$[ebp]
  00007	50		 push	 eax
  00008	8b f1		 mov	 esi, ecx
  0000a	ff 15 00 00 00
	00		 call	 DWORD PTR __imp_??0exception@std@@QAE@ABQBD@Z
  00010	c7 06 00 00 00
	00		 mov	 DWORD PTR [esi], OFFSET ??_7bad_alloc@std@@6B@

; 346  : 		}

  00016	8b c6		 mov	 eax, esi
  00018	5e		 pop	 esi
  00019	5d		 pop	 ebp
  0001a	c2 04 00	 ret	 4
??0bad_alloc@std@@QAE@PBD@Z ENDP			; std::bad_alloc::bad_alloc
_TEXT	ENDS
PUBLIC	??1bad_alloc@std@@UAE@XZ			; std::bad_alloc::~bad_alloc
EXTRN	__imp_??1exception@std@@UAE@XZ:PROC
; Function compile flags: /Ogsp
;	COMDAT ??1bad_alloc@std@@UAE@XZ
_TEXT	SEGMENT
??1bad_alloc@std@@UAE@XZ PROC				; std::bad_alloc::~bad_alloc, COMDAT
; _this$ = ecx

; 354  : 		{	// destroy the object

  00000	c7 01 00 00 00
	00		 mov	 DWORD PTR [ecx], OFFSET ??_7bad_alloc@std@@6B@

; 355  : 		}

  00006	ff 25 00 00 00
	00		 jmp	 DWORD PTR __imp_??1exception@std@@UAE@XZ
??1bad_alloc@std@@UAE@XZ ENDP				; std::bad_alloc::~bad_alloc
_TEXT	ENDS
EXTRN	??3@YAXPAX@Z:PROC				; operator delete
; Function compile flags: /Ogsp
;	COMDAT ??_Gbad_alloc@std@@UAEPAXI@Z
_TEXT	SEGMENT
___flags$ = 8						; size = 4
??_Gbad_alloc@std@@UAEPAXI@Z PROC			; std::bad_alloc::`scalar deleting destructor', COMDAT
; _this$ = ecx
  00000	55		 push	 ebp
  00001	8b ec		 mov	 ebp, esp
  00003	56		 push	 esi
  00004	8b f1		 mov	 esi, ecx
  00006	c7 06 00 00 00
	00		 mov	 DWORD PTR [esi], OFFSET ??_7bad_alloc@std@@6B@
  0000c	ff 15 00 00 00
	00		 call	 DWORD PTR __imp_??1exception@std@@UAE@XZ
  00012	f6 45 08 01	 test	 BYTE PTR ___flags$[ebp], 1
  00016	74 07		 je	 SHORT $LN1@scalar
  00018	56		 push	 esi
  00019	e8 00 00 00 00	 call	 ??3@YAXPAX@Z		; operator delete
  0001e	59		 pop	 ecx
$LN1@scalar:
  0001f	8b c6		 mov	 eax, esi
  00021	5e		 pop	 esi
  00022	5d		 pop	 ebp
  00023	c2 04 00	 ret	 4
??_Gbad_alloc@std@@UAEPAXI@Z ENDP			; std::bad_alloc::`scalar deleting destructor'
_TEXT	ENDS
PUBLIC	??2@YAPAXIPAX@Z					; operator new
; Function compile flags: /Ogsp
; File c:\program files (x86)\microsoft visual studio 10.0\vc\include\new
;	COMDAT ??2@YAPAXIPAX@Z
_TEXT	SEGMENT
___formal$ = 8						; size = 4
__Where$ = 12						; size = 4
??2@YAPAXIPAX@Z PROC					; operator new, COMDAT

; 56   : 	{	// construct array with placement at _Where

  00000	55		 push	 ebp
  00001	8b ec		 mov	 ebp, esp

; 57   : 	return (_Where);

  00003	8b 45 0c	 mov	 eax, DWORD PTR __Where$[ebp]

; 58   : 	}

  00006	5d		 pop	 ebp
  00007	c3		 ret	 0
??2@YAPAXIPAX@Z ENDP					; operator new
_TEXT	ENDS
PUBLIC	??3@YAXPAX0@Z					; operator delete
; Function compile flags: /Ogsp
;	COMDAT ??3@YAXPAX0@Z
_TEXT	SEGMENT
___formal$ = 8						; size = 4
___formal$ = 12						; size = 4
??3@YAXPAX0@Z PROC					; operator delete, COMDAT

; 62   : 	}

  00000	c3		 ret	 0
??3@YAXPAX0@Z ENDP					; operator delete
_TEXT	ENDS
PUBLIC	?_Adopt@_Iterator_base0@std@@QAEXPBX@Z		; std::_Iterator_base0::_Adopt
; Function compile flags: /Ogsp
; File c:\program files (x86)\microsoft visual studio 10.0\vc\include\xutility
;	COMDAT ?_Adopt@_Iterator_base0@std@@QAEXPBX@Z
_TEXT	SEGMENT
___formal$ = 8						; size = 4
?_Adopt@_Iterator_base0@std@@QAEXPBX@Z PROC		; std::_Iterator_base0::_Adopt, COMDAT
; _this$ = ecx

; 49   : 		}

  00000	c2 04 00	 ret	 4
?_Adopt@_Iterator_base0@std@@QAEXPBX@Z ENDP		; std::_Iterator_base0::_Adopt
_TEXT	ENDS
PUBLIC	??1EXTRAITEMSLOT@@QAE@XZ			; EXTRAITEMSLOT::~EXTRAITEMSLOT
EXTRN	__imp_??1ioHashString@@QAE@XZ:PROC
EXTRN	___CxxFrameHandler3:PROC
EXTRN	@__security_check_cookie@4:PROC
EXTRN	__EH_epilog3:PROC
EXTRN	__EH_prolog3:PROC
;	COMDAT xdata$x
xdata$x	SEGMENT
__unwindtable$??1EXTRAITEMSLOT@@QAE@XZ DD 0ffffffffH
	DD	FLAT:__unwindfunclet$??1EXTRAITEMSLOT@@QAE@XZ$0
__ehfuncinfo$??1EXTRAITEMSLOT@@QAE@XZ DD 019930522H
	DD	01H
	DD	FLAT:__unwindtable$??1EXTRAITEMSLOT@@QAE@XZ
	DD	2 DUP(00H)
	DD	2 DUP(00H)
	DD	00H
	DD	01H
; Function compile flags: /Ogsp
xdata$x	ENDS
;	COMDAT ??1EXTRAITEMSLOT@@QAE@XZ
_TEXT	SEGMENT
_this$ = -16						; size = 4
__$EHRec$ = -12						; size = 12
??1EXTRAITEMSLOT@@QAE@XZ PROC				; EXTRAITEMSLOT::~EXTRAITEMSLOT, COMDAT
; _this$ = ecx
  00000	6a 04		 push	 4
  00002	b8 00 00 00 00	 mov	 eax, __ehhandler$??1EXTRAITEMSLOT@@QAE@XZ
  00007	e8 00 00 00 00	 call	 __EH_prolog3
  0000c	8b f9		 mov	 edi, ecx
  0000e	89 7d f0	 mov	 DWORD PTR _this$[ebp], edi
  00011	8b 35 00 00 00
	00		 mov	 esi, DWORD PTR __imp_??1ioHashString@@QAE@XZ
  00017	83 65 fc 00	 and	 DWORD PTR __$EHRec$[ebp+8], 0
  0001b	8d 4f 38	 lea	 ecx, DWORD PTR [edi+56]
  0001e	ff d6		 call	 esi
  00020	83 4d fc ff	 or	 DWORD PTR __$EHRec$[ebp+8], -1
  00024	8d 4f 28	 lea	 ecx, DWORD PTR [edi+40]
  00027	ff d6		 call	 esi
  00029	e8 00 00 00 00	 call	 __EH_epilog3
  0002e	c3		 ret	 0
_TEXT	ENDS
;	COMDAT text$x
text$x	SEGMENT
__unwindfunclet$??1EXTRAITEMSLOT@@QAE@XZ$0:
  00000	8b 4d f0	 mov	 ecx, DWORD PTR _this$[ebp]
  00003	83 c1 28	 add	 ecx, 40			; 00000028H
  00006	ff 25 00 00 00
	00		 jmp	 DWORD PTR __imp_??1ioHashString@@QAE@XZ
__ehhandler$??1EXTRAITEMSLOT@@QAE@XZ:
  0000c	8b 54 24 08	 mov	 edx, DWORD PTR [esp+8]
  00010	8d 42 0c	 lea	 eax, DWORD PTR [edx+12]
  00013	8b 4a ec	 mov	 ecx, DWORD PTR [edx-20]
  00016	33 c8		 xor	 ecx, eax
  00018	e8 00 00 00 00	 call	 @__security_check_cookie@4
  0001d	b8 00 00 00 00	 mov	 eax, OFFSET __ehfuncinfo$??1EXTRAITEMSLOT@@QAE@XZ
  00022	e9 00 00 00 00	 jmp	 ___CxxFrameHandler3
text$x	ENDS
??1EXTRAITEMSLOT@@QAE@XZ ENDP				; EXTRAITEMSLOT::~EXTRAITEMSLOT
PUBLIC	?iwm_hide@ItemGrowthCatalystResultWnd@@UAEXXZ	; ItemGrowthCatalystResultWnd::iwm_hide
; Function compile flags: /Ogsp
; File d:\lost saga for developer\youtube\tutorial\source\src\lsclient\gui\itemcompoundresultwnd.cpp
;	COMDAT ?iwm_hide@ItemGrowthCatalystResultWnd@@UAEXXZ
_TEXT	SEGMENT
?iwm_hide@ItemGrowthCatalystResultWnd@@UAEXXZ PROC	; ItemGrowthCatalystResultWnd::iwm_hide, COMDAT
; _this$ = ecx

; 815  : {

  00000	53		 push	 ebx
  00001	56		 push	 esi
  00002	8b d9		 mov	 ebx, ecx
  00004	57		 push	 edi

; 816  : 	if( !m_szRollingSound.IsEmpty() )

  00005	8d 8b 04 02 00
	00		 lea	 ecx, DWORD PTR [ebx+516]
  0000b	ff 15 00 00 00
	00		 call	 DWORD PTR __imp_?IsEmpty@ioHashString@@QBE_NXZ
  00011	8b 35 00 00 00
	00		 mov	 esi, DWORD PTR __imp_?StopSound@ioSoundManager@@QAEXABVioHashString@@K@Z
  00017	8b 3d 00 00 00
	00		 mov	 edi, DWORD PTR __imp_?GetSingleton@ioSoundManager@@SAAAV1@XZ
  0001d	84 c0		 test	 al, al
  0001f	75 0f		 jne	 SHORT $LN4@iwm_hide@2

; 817  : 		g_SoundMgr.StopSound( m_szRollingSound, 0 );

  00021	8d 83 04 02 00
	00		 lea	 eax, DWORD PTR [ebx+516]
  00027	6a 00		 push	 0
  00029	50		 push	 eax
  0002a	ff d7		 call	 edi
  0002c	8b c8		 mov	 ecx, eax
  0002e	ff d6		 call	 esi
$LN4@iwm_hide@2:

; 818  : 
; 819  : 	if( !m_szSuccessSound.IsEmpty() )

  00030	8d 8b 14 02 00
	00		 lea	 ecx, DWORD PTR [ebx+532]
  00036	ff 15 00 00 00
	00		 call	 DWORD PTR __imp_?IsEmpty@ioHashString@@QBE_NXZ
  0003c	84 c0		 test	 al, al
  0003e	75 0f		 jne	 SHORT $LN3@iwm_hide@2

; 820  : 		g_SoundMgr.StopSound( m_szSuccessSound, 0 );

  00040	8d 83 14 02 00
	00		 lea	 eax, DWORD PTR [ebx+532]
  00046	6a 00		 push	 0
  00048	50		 push	 eax
  00049	ff d7		 call	 edi
  0004b	8b c8		 mov	 ecx, eax
  0004d	ff d6		 call	 esi
$LN3@iwm_hide@2:

; 821  : 
; 822  : 	if( !m_szBigSuccessSound.IsEmpty() )

  0004f	8d 8b 24 02 00
	00		 lea	 ecx, DWORD PTR [ebx+548]
  00055	ff 15 00 00 00
	00		 call	 DWORD PTR __imp_?IsEmpty@ioHashString@@QBE_NXZ
  0005b	84 c0		 test	 al, al
  0005d	75 0f		 jne	 SHORT $LN2@iwm_hide@2

; 823  : 		g_SoundMgr.StopSound( m_szBigSuccessSound, 0 );

  0005f	8d 83 24 02 00
	00		 lea	 eax, DWORD PTR [ebx+548]
  00065	6a 00		 push	 0
  00067	50		 push	 eax
  00068	ff d7		 call	 edi
  0006a	8b c8		 mov	 ecx, eax
  0006c	ff d6		 call	 esi
$LN2@iwm_hide@2:

; 824  : 
; 825  : 	if( !m_szFailSound.IsEmpty() )

  0006e	81 c3 34 02 00
	00		 add	 ebx, 564		; 00000234H
  00074	8b cb		 mov	 ecx, ebx
  00076	ff 15 00 00 00
	00		 call	 DWORD PTR __imp_?IsEmpty@ioHashString@@QBE_NXZ
  0007c	84 c0		 test	 al, al
  0007e	75 09		 jne	 SHORT $LN1@iwm_hide@2

; 826  : 		g_SoundMgr.StopSound( m_szFailSound, 0 );

  00080	6a 00		 push	 0
  00082	53		 push	 ebx
  00083	ff d7		 call	 edi
  00085	8b c8		 mov	 ecx, eax
  00087	ff d6		 call	 esi
$LN1@iwm_hide@2:

; 827  : }

  00089	5f		 pop	 edi
  0008a	5e		 pop	 esi
  0008b	5b		 pop	 ebx
  0008c	c3		 ret	 0
?iwm_hide@ItemGrowthCatalystResultWnd@@UAEXXZ ENDP	; ItemGrowthCatalystResultWnd::iwm_hide
_TEXT	ENDS
PUBLIC	?iwm_hide@ItemCompoundExResultWnd@@UAEXXZ	; ItemCompoundExResultWnd::iwm_hide
; Function compile flags: /Ogsp
;	COMDAT ?iwm_hide@ItemCompoundExResultWnd@@UAEXXZ
_TEXT	SEGMENT
?iwm_hide@ItemCompoundExResultWnd@@UAEXXZ PROC		; ItemCompoundExResultWnd::iwm_hide, COMDAT
; _this$ = ecx

; 1563 : {

  00000	53		 push	 ebx
  00001	56		 push	 esi
  00002	8b d9		 mov	 ebx, ecx
  00004	57		 push	 edi

; 1564 : 	if( !m_szRollingSound.IsEmpty() )

  00005	8d 8b fc 01 00
	00		 lea	 ecx, DWORD PTR [ebx+508]
  0000b	ff 15 00 00 00
	00		 call	 DWORD PTR __imp_?IsEmpty@ioHashString@@QBE_NXZ
  00011	8b 35 00 00 00
	00		 mov	 esi, DWORD PTR __imp_?StopSound@ioSoundManager@@QAEXABVioHashString@@K@Z
  00017	8b 3d 00 00 00
	00		 mov	 edi, DWORD PTR __imp_?GetSingleton@ioSoundManager@@SAAAV1@XZ
  0001d	84 c0		 test	 al, al
  0001f	75 0f		 jne	 SHORT $LN4@iwm_hide@3

; 1565 : 		g_SoundMgr.StopSound( m_szRollingSound, 0 );

  00021	8d 83 fc 01 00
	00		 lea	 eax, DWORD PTR [ebx+508]
  00027	6a 00		 push	 0
  00029	50		 push	 eax
  0002a	ff d7		 call	 edi
  0002c	8b c8		 mov	 ecx, eax
  0002e	ff d6		 call	 esi
$LN4@iwm_hide@3:

; 1566 : 
; 1567 : 	if( !m_szSuccessSound.IsEmpty() )

  00030	8d 8b 0c 02 00
	00		 lea	 ecx, DWORD PTR [ebx+524]
  00036	ff 15 00 00 00
	00		 call	 DWORD PTR __imp_?IsEmpty@ioHashString@@QBE_NXZ
  0003c	84 c0		 test	 al, al
  0003e	75 0f		 jne	 SHORT $LN3@iwm_hide@3

; 1568 : 		g_SoundMgr.StopSound( m_szSuccessSound, 0 );

  00040	8d 83 0c 02 00
	00		 lea	 eax, DWORD PTR [ebx+524]
  00046	6a 00		 push	 0
  00048	50		 push	 eax
  00049	ff d7		 call	 edi
  0004b	8b c8		 mov	 ecx, eax
  0004d	ff d6		 call	 esi
$LN3@iwm_hide@3:

; 1569 : 
; 1570 : 	if( !m_szBigSuccessSound.IsEmpty() )

  0004f	8d 8b 1c 02 00
	00		 lea	 ecx, DWORD PTR [ebx+540]
  00055	ff 15 00 00 00
	00		 call	 DWORD PTR __imp_?IsEmpty@ioHashString@@QBE_NXZ
  0005b	84 c0		 test	 al, al
  0005d	75 0f		 jne	 SHORT $LN2@iwm_hide@3

; 1571 : 		g_SoundMgr.StopSound( m_szBigSuccessSound, 0 );

  0005f	8d 83 1c 02 00
	00		 lea	 eax, DWORD PTR [ebx+540]
  00065	6a 00		 push	 0
  00067	50		 push	 eax
  00068	ff d7		 call	 edi
  0006a	8b c8		 mov	 ecx, eax
  0006c	ff d6		 call	 esi
$LN2@iwm_hide@3:

; 1572 : 
; 1573 : 	if( !m_szFailSound.IsEmpty() )

  0006e	81 c3 2c 02 00
	00		 add	 ebx, 556		; 0000022cH
  00074	8b cb		 mov	 ecx, ebx
  00076	ff 15 00 00 00
	00		 call	 DWORD PTR __imp_?IsEmpty@ioHashString@@QBE_NXZ
  0007c	84 c0		 test	 al, al
  0007e	75 09		 jne	 SHORT $LN1@iwm_hide@3

; 1574 : 		g_SoundMgr.StopSound( m_szFailSound, 0 );

  00080	6a 00		 push	 0
  00082	53		 push	 ebx
  00083	ff d7		 call	 edi
  00085	8b c8		 mov	 ecx, eax
  00087	ff d6		 call	 esi
$LN1@iwm_hide@3:

; 1575 : 
; 1576 : 	g_QuestMgr.ProcessCompleteReserve();

  00089	e8 00 00 00 00	 call	 ?GetSingleton@ioQuestManager@@SAAAV1@XZ ; ioQuestManager::GetSingleton
  0008e	5f		 pop	 edi
  0008f	5e		 pop	 esi
  00090	8b c8		 mov	 ecx, eax
  00092	5b		 pop	 ebx
  00093	e9 00 00 00 00	 jmp	 ?ProcessCompleteReserve@ioQuestManager@@QAEXXZ ; ioQuestManager::ProcessCompleteReserve
?iwm_hide@ItemCompoundExResultWnd@@UAEXXZ ENDP		; ItemCompoundExResultWnd::iwm_hide
_TEXT	ENDS
PUBLIC	?iwm_hide@ItemLuckyCoinResultWnd@@UAEXXZ	; ItemLuckyCoinResultWnd::iwm_hide
; Function compile flags: /Ogsp
;	COMDAT ?iwm_hide@ItemLuckyCoinResultWnd@@UAEXXZ
_TEXT	SEGMENT
?iwm_hide@ItemLuckyCoinResultWnd@@UAEXXZ PROC		; ItemLuckyCoinResultWnd::iwm_hide, COMDAT
; _this$ = ecx

; 2255 : {

  00000	56		 push	 esi

; 2256 : 	if( !m_szSuccessSound.IsEmpty() )

  00001	8d b1 dc 01 00
	00		 lea	 esi, DWORD PTR [ecx+476]
  00007	8b ce		 mov	 ecx, esi
  00009	ff 15 00 00 00
	00		 call	 DWORD PTR __imp_?IsEmpty@ioHashString@@QBE_NXZ
  0000f	84 c0		 test	 al, al
  00011	75 11		 jne	 SHORT $LN1@iwm_hide@4

; 2257 : 		g_SoundMgr.StopSound( m_szSuccessSound, 0 );

  00013	6a 00		 push	 0
  00015	56		 push	 esi
  00016	ff 15 00 00 00
	00		 call	 DWORD PTR __imp_?GetSingleton@ioSoundManager@@SAAAV1@XZ
  0001c	8b c8		 mov	 ecx, eax
  0001e	ff 15 00 00 00
	00		 call	 DWORD PTR __imp_?StopSound@ioSoundManager@@QAEXABVioHashString@@K@Z
$LN1@iwm_hide@4:
  00024	5e		 pop	 esi

; 2258 : }

  00025	c3		 ret	 0
?iwm_hide@ItemLuckyCoinResultWnd@@UAEXXZ ENDP		; ItemLuckyCoinResultWnd::iwm_hide
_TEXT	ENDS
PUBLIC	?UpdateItemLuckyCoinResultInfo@ItemLuckyCoinResultWnd@@IAEXXZ ; ItemLuckyCoinResultWnd::UpdateItemLuckyCoinResultInfo
; Function compile flags: /Ogsp
;	COMDAT ?UpdateItemLuckyCoinResultInfo@ItemLuckyCoinResultWnd@@IAEXXZ
_TEXT	SEGMENT
?UpdateItemLuckyCoinResultInfo@ItemLuckyCoinResultWnd@@IAEXXZ PROC ; ItemLuckyCoinResultWnd::UpdateItemLuckyCoinResultInfo, COMDAT
; _this$ = ecx

; 2437 : }

  00000	c3		 ret	 0
?UpdateItemLuckyCoinResultInfo@ItemLuckyCoinResultWnd@@IAEXXZ ENDP ; ItemLuckyCoinResultWnd::UpdateItemLuckyCoinResultInfo
_TEXT	ENDS
PUBLIC	__real@434c0000
PUBLIC	?PrintManual@ItemLuckyCoinResultWnd@@IAEXHHM@Z	; ItemLuckyCoinResultWnd::PrintManual
EXTRN	??1ioComplexStringPrinter@@QAE@XZ:PROC		; ioComplexStringPrinter::~ioComplexStringPrinter
EXTRN	?ClearList@ioComplexStringPrinter@@QAEXXZ:PROC	; ioComplexStringPrinter::ClearList
EXTRN	?PrintFullTextWidthCut@ioComplexStringPrinter@@QAEXMMW4TextAlignType@@ME@Z:PROC ; ioComplexStringPrinter::PrintFullTextWidthCut
EXTRN	??0ioComplexStringPrinter@@QAE@XZ:PROC		; ioComplexStringPrinter::ioComplexStringPrinter
EXTRN	__fltused:DWORD
;	COMDAT __real@434c0000
CONST	SEGMENT
__real@434c0000 DD 0434c0000r			; 204
CONST	ENDS
;	COMDAT xdata$x
xdata$x	SEGMENT
__unwindtable$?PrintManual@ItemLuckyCoinResultWnd@@IAEXHHM@Z DD 0ffffffffH
	DD	FLAT:__unwindfunclet$?PrintManual@ItemLuckyCoinResultWnd@@IAEXHHM@Z$0
__ehfuncinfo$?PrintManual@ItemLuckyCoinResultWnd@@IAEXHHM@Z DD 019930522H
	DD	01H
	DD	FLAT:__unwindtable$?PrintManual@ItemLuckyCoinResultWnd@@IAEXHHM@Z
	DD	2 DUP(00H)
	DD	2 DUP(00H)
	DD	00H
	DD	01H
; Function compile flags: /Ogsp
xdata$x	ENDS
;	COMDAT ?PrintManual@ItemLuckyCoinResultWnd@@IAEXHHM@Z
_TEXT	SEGMENT
_kPrinter$ = -48					; size = 32
_iMaxLine$ = -16					; size = 4
__$EHRec$ = -12						; size = 12
tv193 = 8						; size = 4
_a_iXPos$ = 8						; size = 4
_a_iYPos$ = 12						; size = 4
_fScale$ = 16						; size = 4
?PrintManual@ItemLuckyCoinResultWnd@@IAEXHHM@Z PROC	; ItemLuckyCoinResultWnd::PrintManual, COMDAT
; _this$ = ecx

; 2479 : {

  00000	6a 24		 push	 36			; 00000024H
  00002	b8 00 00 00 00	 mov	 eax, __ehhandler$?PrintManual@ItemLuckyCoinResultWnd@@IAEXHHM@Z
  00007	e8 00 00 00 00	 call	 __EH_prolog3
  0000c	8b f1		 mov	 esi, ecx

; 2480 : 	if( !m_pManual ) return;

  0000e	83 be 70 01 00
	00 00		 cmp	 DWORD PTR [esi+368], 0
  00015	0f 84 bc 00 00
	00		 je	 $LN6@PrintManua

; 2481 : 	if( m_iExchangeManual == -1 ) return;

  0001b	8b be 8c 01 00
	00		 mov	 edi, DWORD PTR [esi+396]
  00021	83 ff ff	 cmp	 edi, -1
  00024	0f 84 ad 00 00
	00		 je	 $LN6@PrintManua

; 2482 : 
; 2483 : 	int iSubManual = m_iExchangeManual - 1;
; 2484 : 	ioComplexStringPrinter kPrinter;

  0002a	8d 4d d0	 lea	 ecx, DWORD PTR _kPrinter$[ebp]
  0002d	4f		 dec	 edi
  0002e	e8 00 00 00 00	 call	 ??0ioComplexStringPrinter@@QAE@XZ ; ioComplexStringPrinter::ioComplexStringPrinter

; 2485 : 	int iMaxLine = m_pManual->GetMaxLine( iSubManual );

  00033	8b 8e 70 01 00
	00		 mov	 ecx, DWORD PTR [esi+368]
  00039	8b 01		 mov	 eax, DWORD PTR [ecx]
  0003b	83 65 fc 00	 and	 DWORD PTR __$EHRec$[ebp+8], 0
  0003f	57		 push	 edi
  00040	ff 50 08	 call	 DWORD PTR [eax+8]

; 2486 : 	for(int iLine = 1; iLine < iMaxLine; iLine++)

  00043	33 db		 xor	 ebx, ebx
  00045	43		 inc	 ebx
  00046	89 45 f0	 mov	 DWORD PTR _iMaxLine$[ebp], eax
  00049	3b c3		 cmp	 eax, ebx
  0004b	7e 7e		 jle	 SHORT $LN1@PrintManua
  0004d	66 0f 6e 45 08	 movd	 xmm0, DWORD PTR _a_iXPos$[ebp]
  00052	0f 5b c0	 cvtdq2ps xmm0, xmm0
  00055	f3 0f 11 45 08	 movss	 DWORD PTR tv193[ebp], xmm0
$LL3@PrintManua:

; 2487 : 	{
; 2488 : 		m_pManual->SetPrinter( iSubManual, iLine, fScale, kPrinter);

  0005a	8b 8e 70 01 00
	00		 mov	 ecx, DWORD PTR [esi+368]
  00060	f3 0f 10 45 10	 movss	 xmm0, DWORD PTR _fScale$[ebp]
  00065	8b 01		 mov	 eax, DWORD PTR [ecx]
  00067	8d 55 d0	 lea	 edx, DWORD PTR _kPrinter$[ebp]
  0006a	52		 push	 edx
  0006b	51		 push	 ecx
  0006c	f3 0f 11 04 24	 movss	 DWORD PTR [esp], xmm0
  00071	53		 push	 ebx
  00072	57		 push	 edi
  00073	ff 50 10	 call	 DWORD PTR [eax+16]

; 2489 : 		a_iYPos += m_pManual->GetSpaceLine( iSubManual, iLine);

  00076	8b 8e 70 01 00
	00		 mov	 ecx, DWORD PTR [esi+368]
  0007c	8b 01		 mov	 eax, DWORD PTR [ecx]
  0007e	53		 push	 ebx
  0007f	57		 push	 edi
  00080	ff 50 0c	 call	 DWORD PTR [eax+12]

; 2490 : 		kPrinter.PrintFullTextWidthCut( a_iXPos, a_iYPos, TAT_LEFT, DESC_WIDTH );

  00083	f3 0f 10 05 00
	00 00 00	 movss	 xmm0, DWORD PTR __real@434c0000
  0008b	01 45 0c	 add	 DWORD PTR _a_iYPos$[ebp], eax
  0008e	68 ff 00 00 00	 push	 255			; 000000ffH
  00093	51		 push	 ecx
  00094	f3 0f 11 04 24	 movss	 DWORD PTR [esp], xmm0
  00099	66 0f 6e 45 0c	 movd	 xmm0, DWORD PTR _a_iYPos$[ebp]
  0009e	6a 00		 push	 0
  000a0	51		 push	 ecx
  000a1	51		 push	 ecx
  000a2	0f 5b c0	 cvtdq2ps xmm0, xmm0
  000a5	f3 0f 11 44 24
	04		 movss	 DWORD PTR [esp+4], xmm0
  000ab	f3 0f 10 45 08	 movss	 xmm0, DWORD PTR tv193[ebp]
  000b0	8d 4d d0	 lea	 ecx, DWORD PTR _kPrinter$[ebp]
  000b3	f3 0f 11 04 24	 movss	 DWORD PTR [esp], xmm0
  000b8	e8 00 00 00 00	 call	 ?PrintFullTextWidthCut@ioComplexStringPrinter@@QAEXMMW4TextAlignType@@ME@Z ; ioComplexStringPrinter::PrintFullTextWidthCut

; 2491 : 		kPrinter.ClearList();

  000bd	8d 4d d0	 lea	 ecx, DWORD PTR _kPrinter$[ebp]
  000c0	e8 00 00 00 00	 call	 ?ClearList@ioComplexStringPrinter@@QAEXXZ ; ioComplexStringPrinter::ClearList
  000c5	43		 inc	 ebx
  000c6	3b 5d f0	 cmp	 ebx, DWORD PTR _iMaxLine$[ebp]
  000c9	7c 8f		 jl	 SHORT $LL3@PrintManua
$LN1@PrintManua:

; 2492 : 	}
; 2493 : }

  000cb	83 4d fc ff	 or	 DWORD PTR __$EHRec$[ebp+8], -1
  000cf	8d 4d d0	 lea	 ecx, DWORD PTR _kPrinter$[ebp]
  000d2	e8 00 00 00 00	 call	 ??1ioComplexStringPrinter@@QAE@XZ ; ioComplexStringPrinter::~ioComplexStringPrinter
$LN6@PrintManua:
  000d7	e8 00 00 00 00	 call	 __EH_epilog3
  000dc	c2 0c 00	 ret	 12			; 0000000cH
_TEXT	ENDS
;	COMDAT text$x
text$x	SEGMENT
__unwindfunclet$?PrintManual@ItemLuckyCoinResultWnd@@IAEXHHM@Z$0:
  00000	8d 4d d0	 lea	 ecx, DWORD PTR _kPrinter$[ebp]
  00003	e9 00 00 00 00	 jmp	 ??1ioComplexStringPrinter@@QAE@XZ ; ioComplexStringPrinter::~ioComplexStringPrinter
__ehhandler$?PrintManual@ItemLuckyCoinResultWnd@@IAEXHHM@Z:
  00008	8b 54 24 08	 mov	 edx, DWORD PTR [esp+8]
  0000c	8d 42 0c	 lea	 eax, DWORD PTR [edx+12]
  0000f	8b 4a cc	 mov	 ecx, DWORD PTR [edx-52]
  00012	33 c8		 xor	 ecx, eax
  00014	e8 00 00 00 00	 call	 @__security_check_cookie@4
  00019	b8 00 00 00 00	 mov	 eax, OFFSET __ehfuncinfo$?PrintManual@ItemLuckyCoinResultWnd@@IAEXHHM@Z
  0001e	e9 00 00 00 00	 jmp	 ___CxxFrameHandler3
text$x	ENDS
?PrintManual@ItemLuckyCoinResultWnd@@IAEXHHM@Z ENDP	; ItemLuckyCoinResultWnd::PrintManual
; Function compile flags: /Ogsp
; File c:\program files (x86)\microsoft sdks\windows\v7.0a\include\strsafe.h
;	COMDAT ?StringValidateDestA@@YGJPBDII@Z
_TEXT	SEGMENT
_cchMax$ = 8						; size = 4
?StringValidateDestA@@YGJPBDII@Z PROC			; StringValidateDestA, COMDAT
; _cchDest$ = ecx

; 8721 : {

  00000	55		 push	 ebp
  00001	8b ec		 mov	 ebp, esp

; 8722 :     HRESULT hr = S_OK;

  00003	33 c0		 xor	 eax, eax

; 8723 : 
; 8724 :     if ((cchDest == 0) || (cchDest > cchMax))

  00005	85 c9		 test	 ecx, ecx
  00007	74 05		 je	 SHORT $LN1@StringVali
  00009	3b 4d 08	 cmp	 ecx, DWORD PTR _cchMax$[ebp]
  0000c	76 05		 jbe	 SHORT $LN2@StringVali
$LN1@StringVali:

; 8725 :     {
; 8726 :         hr = STRSAFE_E_INVALID_PARAMETER;

  0000e	b8 57 00 07 80	 mov	 eax, -2147024809	; 80070057H
$LN2@StringVali:

; 8727 :     }
; 8728 : 
; 8729 :     return hr;
; 8730 : }

  00013	5d		 pop	 ebp
  00014	c2 04 00	 ret	 4
?StringValidateDestA@@YGJPBDII@Z ENDP			; StringValidateDestA
_TEXT	ENDS
PUBLIC	?iwm_hide@ItemRainbowMixerResultWnd@@UAEXXZ	; ItemRainbowMixerResultWnd::iwm_hide
; Function compile flags: /Ogsp
; File d:\lost saga for developer\youtube\tutorial\source\src\lsclient\gui\itemcompoundresultwnd.cpp
;	COMDAT ?iwm_hide@ItemRainbowMixerResultWnd@@UAEXXZ
_TEXT	SEGMENT
?iwm_hide@ItemRainbowMixerResultWnd@@UAEXXZ PROC	; ItemRainbowMixerResultWnd::iwm_hide, COMDAT
; _this$ = ecx

; 2661 : {

  00000	56		 push	 esi

; 2662 : 	if( !m_szSuccessSound.IsEmpty() )

  00001	8d b1 c0 01 00
	00		 lea	 esi, DWORD PTR [ecx+448]
  00007	8b ce		 mov	 ecx, esi
  00009	ff 15 00 00 00
	00		 call	 DWORD PTR __imp_?IsEmpty@ioHashString@@QBE_NXZ
  0000f	84 c0		 test	 al, al
  00011	75 11		 jne	 SHORT $LN1@iwm_hide@5

; 2663 : 		g_SoundMgr.StopSound( m_szSuccessSound, 0 );

  00013	6a 00		 push	 0
  00015	56		 push	 esi
  00016	ff 15 00 00 00
	00		 call	 DWORD PTR __imp_?GetSingleton@ioSoundManager@@SAAAV1@XZ
  0001c	8b c8		 mov	 ecx, eax
  0001e	ff 15 00 00 00
	00		 call	 DWORD PTR __imp_?StopSound@ioSoundManager@@QAEXABVioHashString@@K@Z
$LN1@iwm_hide@5:
  00024	5e		 pop	 esi

; 2664 : }

  00025	c3		 ret	 0
?iwm_hide@ItemRainbowMixerResultWnd@@UAEXXZ ENDP	; ItemRainbowMixerResultWnd::iwm_hide
_TEXT	ENDS
EXTRN	__imp___vsnprintf:PROC
; Function compile flags: /Ogsp
; File c:\program files (x86)\microsoft sdks\windows\v7.0a\include\strsafe.h
;	COMDAT ?StringVPrintfWorkerA@@YGJPADIPAIPBD0@Z
_TEXT	SEGMENT
_pcchNewDestLength$ = 8					; size = 4
_pszFormat$ = 12					; size = 4
_argList$ = 16						; size = 4
?StringVPrintfWorkerA@@YGJPADIPAIPBD0@Z PROC		; StringVPrintfWorkerA, COMDAT
; _pszDest$ = edi
; _cchDest$ = eax

; 9029 : {

  00000	55		 push	 ebp
  00001	8b ec		 mov	 ebp, esp
  00003	53		 push	 ebx
  00004	56		 push	 esi

; 9030 :     HRESULT hr = S_OK;
; 9031 :     int iRet;
; 9032 :     size_t cchMax;
; 9033 :     size_t cchNewDestLength = 0;
; 9034 : 
; 9035 :     // leave the last space for the null terminator
; 9036 :     cchMax = cchDest - 1;
; 9037 : 
; 9038 : #if (STRSAFE_USE_SECURE_CRT == 1) && !defined(STRSAFE_LIB_IMPL)
; 9039 :     iRet = _vsnprintf_s(pszDest, cchDest, cchMax, pszFormat, argList);
; 9040 : #else
; 9041 :     #pragma warning(push)
; 9042 :     #pragma warning(disable: __WARNING_BANNED_API_USAGE)// "STRSAFE not included"
; 9043 :     iRet = _vsnprintf(pszDest, cchMax, pszFormat, argList);

  00005	ff 75 10	 push	 DWORD PTR _argList$[ebp]
  00008	8d 70 ff	 lea	 esi, DWORD PTR [eax-1]
  0000b	ff 75 0c	 push	 DWORD PTR _pszFormat$[ebp]
  0000e	33 db		 xor	 ebx, ebx
  00010	56		 push	 esi
  00011	57		 push	 edi
  00012	ff 15 00 00 00
	00		 call	 DWORD PTR __imp___vsnprintf
  00018	83 c4 10	 add	 esp, 16			; 00000010H

; 9044 :     #pragma warning(pop)
; 9045 : #endif
; 9046 :     // ASSERT((iRet < 0) || (((size_t)iRet) <= cchMax));
; 9047 : 
; 9048 :     if ((iRet < 0) || (((size_t)iRet) > cchMax))

  0001b	85 c0		 test	 eax, eax
  0001d	78 0b		 js	 SHORT $LN5@StringVPri
  0001f	3b c6		 cmp	 eax, esi
  00021	77 07		 ja	 SHORT $LN5@StringVPri

; 9058 :     }
; 9059 :     else if (((size_t)iRet) == cchMax)

  00023	75 0f		 jne	 SHORT $LN2@StringVPri

; 9060 :     {
; 9061 :         // need to null terminate the string
; 9062 :         pszDest += cchMax;
; 9063 :         *pszDest = '\0';

  00025	88 1c 3e	 mov	 BYTE PTR [esi+edi], bl

; 9064 : 
; 9065 :         cchNewDestLength = cchMax;
; 9066 :     }
; 9067 :     else

  00028	eb 08		 jmp	 SHORT $LN9@StringVPri
$LN5@StringVPri:

; 9049 :     {
; 9050 :         // need to null terminate the string
; 9051 :         pszDest += cchMax;
; 9052 :         *pszDest = '\0';

  0002a	88 1c 3e	 mov	 BYTE PTR [esi+edi], bl

; 9055 : 
; 9056 :         // we have truncated pszDest
; 9057 :         hr = STRSAFE_E_INSUFFICIENT_BUFFER;

  0002d	bb 7a 00 07 80	 mov	 ebx, -2147024774	; 8007007aH
$LN9@StringVPri:

; 9053 : 
; 9054 :         cchNewDestLength = cchMax;

  00032	8b c6		 mov	 eax, esi
$LN2@StringVPri:

; 9068 :     {
; 9069 :         cchNewDestLength = (size_t)iRet;
; 9070 :     }
; 9071 : 
; 9072 :     if (pcchNewDestLength)

  00034	8b 4d 08	 mov	 ecx, DWORD PTR _pcchNewDestLength$[ebp]
  00037	85 c9		 test	 ecx, ecx
  00039	74 02		 je	 SHORT $LN1@StringVPri

; 9073 :     {
; 9074 :         *pcchNewDestLength = cchNewDestLength;

  0003b	89 01		 mov	 DWORD PTR [ecx], eax
$LN1@StringVPri:
  0003d	5e		 pop	 esi

; 9075 :     }
; 9076 : 
; 9077 :     return hr;

  0003e	8b c3		 mov	 eax, ebx
  00040	5b		 pop	 ebx

; 9078 : }

  00041	5d		 pop	 ebp
  00042	c2 0c 00	 ret	 12			; 0000000cH
?StringVPrintfWorkerA@@YGJPADIPAIPBD0@Z ENDP		; StringVPrintfWorkerA
_TEXT	ENDS
PUBLIC	?UpdateItemResultInfo@ItemRainbowMixerResultWnd@@IAEXXZ ; ItemRainbowMixerResultWnd::UpdateItemResultInfo
; Function compile flags: /Ogsp
; File d:\lost saga for developer\youtube\tutorial\source\src\lsclient\gui\itemcompoundresultwnd.cpp
;	COMDAT ?UpdateItemResultInfo@ItemRainbowMixerResultWnd@@IAEXXZ
_TEXT	SEGMENT
?UpdateItemResultInfo@ItemRainbowMixerResultWnd@@IAEXXZ PROC ; ItemRainbowMixerResultWnd::UpdateItemResultInfo, COMDAT
; _this$ = ecx

; 2828 : }

  00000	c3		 ret	 0
?UpdateItemResultInfo@ItemRainbowMixerResultWnd@@IAEXXZ ENDP ; ItemRainbowMixerResultWnd::UpdateItemResultInfo
_TEXT	ENDS
PUBLIC	?iwm_hide@ItemLostSagaMixerResultWnd@@UAEXXZ	; ItemLostSagaMixerResultWnd::iwm_hide
; Function compile flags: /Ogsp
;	COMDAT ?iwm_hide@ItemLostSagaMixerResultWnd@@UAEXXZ
_TEXT	SEGMENT
?iwm_hide@ItemLostSagaMixerResultWnd@@UAEXXZ PROC	; ItemLostSagaMixerResultWnd::iwm_hide, COMDAT
; _this$ = ecx

; 3055 : {

  00000	56		 push	 esi

; 3056 : 	if( !m_szSuccessSound.IsEmpty() )

  00001	8d b1 c0 01 00
	00		 lea	 esi, DWORD PTR [ecx+448]
  00007	8b ce		 mov	 ecx, esi
  00009	ff 15 00 00 00
	00		 call	 DWORD PTR __imp_?IsEmpty@ioHashString@@QBE_NXZ
  0000f	84 c0		 test	 al, al
  00011	75 11		 jne	 SHORT $LN1@iwm_hide@6

; 3057 : 		g_SoundMgr.StopSound( m_szSuccessSound, 0 );

  00013	6a 00		 push	 0
  00015	56		 push	 esi
  00016	ff 15 00 00 00
	00		 call	 DWORD PTR __imp_?GetSingleton@ioSoundManager@@SAAAV1@XZ
  0001c	8b c8		 mov	 ecx, eax
  0001e	ff 15 00 00 00
	00		 call	 DWORD PTR __imp_?StopSound@ioSoundManager@@QAEXABVioHashString@@K@Z
$LN1@iwm_hide@6:
  00024	5e		 pop	 esi

; 3058 : }

  00025	c3		 ret	 0
?iwm_hide@ItemLostSagaMixerResultWnd@@UAEXXZ ENDP	; ItemLostSagaMixerResultWnd::iwm_hide
_TEXT	ENDS
PUBLIC	?UpdateItemResultInfo@ItemLostSagaMixerResultWnd@@IAEXXZ ; ItemLostSagaMixerResultWnd::UpdateItemResultInfo
; Function compile flags: /Ogsp
;	COMDAT ?UpdateItemResultInfo@ItemLostSagaMixerResultWnd@@IAEXXZ
_TEXT	SEGMENT
?UpdateItemResultInfo@ItemLostSagaMixerResultWnd@@IAEXXZ PROC ; ItemLostSagaMixerResultWnd::UpdateItemResultInfo, COMDAT
; _this$ = ecx

; 3222 : }

  00000	c3		 ret	 0
?UpdateItemResultInfo@ItemLostSagaMixerResultWnd@@IAEXXZ ENDP ; ItemLostSagaMixerResultWnd::UpdateItemResultInfo
_TEXT	ENDS
PUBLIC	??A?$vector@VioHashString@@V?$allocator@VioHashString@@@std@@@std@@QAEAAVioHashString@@I@Z ; std::vector<ioHashString,std::allocator<ioHashString> >::operator[]
; Function compile flags: /Ogsp
; File c:\program files (x86)\microsoft visual studio 10.0\vc\include\vector
;	COMDAT ??A?$vector@VioHashString@@V?$allocator@VioHashString@@@std@@@std@@QAEAAVioHashString@@I@Z
_TEXT	SEGMENT
__Pos$ = 8						; size = 4
??A?$vector@VioHashString@@V?$allocator@VioHashString@@@std@@@std@@QAEAAVioHashString@@I@Z PROC ; std::vector<ioHashString,std::allocator<ioHashString> >::operator[], COMDAT
; _this$ = ecx

; 928  : 		{	// subscript mutable sequence

  00000	55		 push	 ebp
  00001	8b ec		 mov	 ebp, esp

; 929  :  #if _ITERATOR_DEBUG_LEVEL == 2
; 930  : 		if (size() <= _Pos)
; 931  : 			{	// report error
; 932  : 			_DEBUG_ERROR("vector subscript out of range");
; 933  : 			_SCL_SECURE_OUT_OF_RANGE;
; 934  : 			}
; 935  : 
; 936  :  #elif _ITERATOR_DEBUG_LEVEL == 1
; 937  : 		_SCL_SECURE_VALIDATE_RANGE(_Pos < size());
; 938  :  #endif /* _ITERATOR_DEBUG_LEVEL */
; 939  : 
; 940  : 		return (*(this->_Myfirst + _Pos));

  00003	8b 45 08	 mov	 eax, DWORD PTR __Pos$[ebp]
  00006	c1 e0 04	 shl	 eax, 4
  00009	03 01		 add	 eax, DWORD PTR [ecx]

; 941  : 		}

  0000b	5d		 pop	 ebp
  0000c	c2 04 00	 ret	 4
??A?$vector@VioHashString@@V?$allocator@VioHashString@@@std@@@std@@QAEAAVioHashString@@I@Z ENDP ; std::vector<ioHashString,std::allocator<ioHashString> >::operator[]
_TEXT	ENDS
PUBLIC	?GetSingleton@?$Singleton@VioEtcItemManager@@@@SAAAVioEtcItemManager@@XZ ; Singleton<ioEtcItemManager>::GetSingleton
EXTRN	?ms_Singleton@?$Singleton@VioEtcItemManager@@@@1PAVioEtcItemManager@@A:DWORD ; Singleton<ioEtcItemManager>::ms_Singleton
; Function compile flags: /Ogsp
; File d:\lost saga for developer\youtube\tutorial\source\src\io3dengine\iosingleton.h
;	COMDAT ?GetSingleton@?$Singleton@VioEtcItemManager@@@@SAAAVioEtcItemManager@@XZ
_TEXT	SEGMENT
?GetSingleton@?$Singleton@VioEtcItemManager@@@@SAAAVioEtcItemManager@@XZ PROC ; Singleton<ioEtcItemManager>::GetSingleton, COMDAT

; 42   : 		assert( ms_Singleton );
; 43   : 		return (*ms_Singleton);

  00000	a1 00 00 00 00	 mov	 eax, DWORD PTR ?ms_Singleton@?$Singleton@VioEtcItemManager@@@@1PAVioEtcItemManager@@A ; Singleton<ioEtcItemManager>::ms_Singleton

; 44   : 	}

  00005	c3		 ret	 0
?GetSingleton@?$Singleton@VioEtcItemManager@@@@SAAAVioEtcItemManager@@XZ ENDP ; Singleton<ioEtcItemManager>::GetSingleton
_TEXT	ENDS
PUBLIC	?capacity@?$vector@VioHashString@@V?$allocator@VioHashString@@@std@@@std@@QBEIXZ ; std::vector<ioHashString,std::allocator<ioHashString> >::capacity
; Function compile flags: /Ogsp
; File c:\program files (x86)\microsoft visual studio 10.0\vc\include\vector
;	COMDAT ?capacity@?$vector@VioHashString@@V?$allocator@VioHashString@@@std@@@std@@QBEIXZ
_TEXT	SEGMENT
?capacity@?$vector@VioHashString@@V?$allocator@VioHashString@@@std@@@std@@QBEIXZ PROC ; std::vector<ioHashString,std::allocator<ioHashString> >::capacity, COMDAT
; _this$ = ecx

; 777  : 		return (this->_Myend - this->_Myfirst);

  00000	8b 41 08	 mov	 eax, DWORD PTR [ecx+8]
  00003	2b 01		 sub	 eax, DWORD PTR [ecx]
  00005	c1 f8 04	 sar	 eax, 4

; 778  : 		}

  00008	c3		 ret	 0
?capacity@?$vector@VioHashString@@V?$allocator@VioHashString@@@std@@@std@@QBEIXZ ENDP ; std::vector<ioHashString,std::allocator<ioHashString> >::capacity
_TEXT	ENDS
PUBLIC	?_Inside@?$vector@VioHashString@@V?$allocator@VioHashString@@@std@@@std@@IBE_NPBVioHashString@@@Z ; std::vector<ioHashString,std::allocator<ioHashString> >::_Inside
; Function compile flags: /Ogsp
;	COMDAT ?_Inside@?$vector@VioHashString@@V?$allocator@VioHashString@@@std@@@std@@IBE_NPBVioHashString@@@Z
_TEXT	SEGMENT
__Ptr$ = 8						; size = 4
?_Inside@?$vector@VioHashString@@V?$allocator@VioHashString@@@std@@@std@@IBE_NPBVioHashString@@@Z PROC ; std::vector<ioHashString,std::allocator<ioHashString> >::_Inside, COMDAT
; _this$ = ecx

; 1285 : 		{	// test if _Ptr points inside vector

  00000	55		 push	 ebp
  00001	8b ec		 mov	 ebp, esp

; 1286 : 		return (_Ptr < this->_Mylast && this->_Myfirst <= _Ptr);

  00003	8b 45 08	 mov	 eax, DWORD PTR __Ptr$[ebp]
  00006	3b 41 04	 cmp	 eax, DWORD PTR [ecx+4]
  00009	73 09		 jae	 SHORT $LN3@Inside
  0000b	39 01		 cmp	 DWORD PTR [ecx], eax
  0000d	77 05		 ja	 SHORT $LN3@Inside
  0000f	33 c0		 xor	 eax, eax
  00011	40		 inc	 eax
  00012	eb 02		 jmp	 SHORT $LN4@Inside
$LN3@Inside:
  00014	33 c0		 xor	 eax, eax
$LN4@Inside:

; 1287 : 		}

  00016	5d		 pop	 ebp
  00017	c2 04 00	 ret	 4
?_Inside@?$vector@VioHashString@@V?$allocator@VioHashString@@@std@@@std@@IBE_NPBVioHashString@@@Z ENDP ; std::vector<ioHashString,std::allocator<ioHashString> >::_Inside
_TEXT	ENDS
PUBLIC	?_Orphan_range@?$vector@VioHashString@@V?$allocator@VioHashString@@@std@@@std@@IBEXPAVioHashString@@0@Z ; std::vector<ioHashString,std::allocator<ioHashString> >::_Orphan_range
; Function compile flags: /Ogsp
;	COMDAT ?_Orphan_range@?$vector@VioHashString@@V?$allocator@VioHashString@@@std@@@std@@IBEXPAVioHashString@@0@Z
_TEXT	SEGMENT
___formal$ = 8						; size = 4
___formal$ = 12						; size = 4
?_Orphan_range@?$vector@VioHashString@@V?$allocator@VioHashString@@@std@@@std@@IBEXPAVioHashString@@0@Z PROC ; std::vector<ioHashString,std::allocator<ioHashString> >::_Orphan_range, COMDAT
; _this$ = ecx

; 1454 : 		}

  00000	c2 08 00	 ret	 8
?_Orphan_range@?$vector@VioHashString@@V?$allocator@VioHashString@@@std@@@std@@IBEXPAVioHashString@@0@Z ENDP ; std::vector<ioHashString,std::allocator<ioHashString> >::_Orphan_range
_TEXT	ENDS
PUBLIC	??$addressof@$$CBVioHashString@@@std@@YAPBVioHashString@@ABV1@@Z ; std::addressof<ioHashString const >
; Function compile flags: /Ogsp
; File c:\program files (x86)\microsoft visual studio 10.0\vc\include\xmemory
;	COMDAT ??$addressof@$$CBVioHashString@@@std@@YAPBVioHashString@@ABV1@@Z
_TEXT	SEGMENT
__Val$ = 8						; size = 4
??$addressof@$$CBVioHashString@@@std@@YAPBVioHashString@@ABV1@@Z PROC ; std::addressof<ioHashString const >, COMDAT

; 110  : 	{	// return address of _Val

  00000	55		 push	 ebp
  00001	8b ec		 mov	 ebp, esp

; 111  : 	return ((_Ty *) &(char&)_Val);

  00003	8b 45 08	 mov	 eax, DWORD PTR __Val$[ebp]

; 112  : 	}

  00006	5d		 pop	 ebp
  00007	c3		 ret	 0
??$addressof@$$CBVioHashString@@@std@@YAPBVioHashString@@ABV1@@Z ENDP ; std::addressof<ioHashString const >
_TEXT	ENDS
PUBLIC	??$_Val_type@PAVioHashString@@@std@@YAPAVioHashString@@PAV1@@Z ; std::_Val_type<ioHashString *>
; Function compile flags: /Ogsp
; File c:\program files (x86)\microsoft visual studio 10.0\vc\include\xutility
;	COMDAT ??$_Val_type@PAVioHashString@@@std@@YAPAVioHashString@@PAV1@@Z
_TEXT	SEGMENT
___formal$ = 8						; size = 4
??$_Val_type@PAVioHashString@@@std@@YAPAVioHashString@@PAV1@@Z PROC ; std::_Val_type<ioHashString *>, COMDAT

; 790  : 	return (0);

  00000	33 c0		 xor	 eax, eax

; 791  : 	}

  00002	c3		 ret	 0
??$_Val_type@PAVioHashString@@@std@@YAPAVioHashString@@PAV1@@Z ENDP ; std::_Val_type<ioHashString *>
_TEXT	ENDS
PUBLIC	??$forward@VioHashString@@@std@@YA$$QAVioHashString@@AAV1@@Z ; std::forward<ioHashString>
; Function compile flags: /Ogsp
; File c:\program files (x86)\microsoft visual studio 10.0\vc\include\utility
;	COMDAT ??$forward@VioHashString@@@std@@YA$$QAVioHashString@@AAV1@@Z
_TEXT	SEGMENT
__Arg$ = 8						; size = 4
??$forward@VioHashString@@@std@@YA$$QAVioHashString@@AAV1@@Z PROC ; std::forward<ioHashString>, COMDAT

; 78   : 	{	// forward _Arg, given explicitly specified type parameter

  00000	55		 push	 ebp
  00001	8b ec		 mov	 ebp, esp

; 79   : 	return ((_Ty&&)_Arg);

  00003	8b 45 08	 mov	 eax, DWORD PTR __Arg$[ebp]

; 80   : 	}

  00006	5d		 pop	 ebp
  00007	c3		 ret	 0
??$forward@VioHashString@@@std@@YA$$QAVioHashString@@AAV1@@Z ENDP ; std::forward<ioHashString>
_TEXT	ENDS
PUBLIC	?_DECSTR@@YAXPADH@Z				; _DECSTR
; Function compile flags: /Ogsp
; File d:\lost saga for developer\youtube\tutorial\source\src\lsclient\stringprotect.h
;	COMDAT ?_DECSTR@@YAXPADH@Z
_TEXT	SEGMENT
_s$ = 8							; size = 4
_l$ = 12						; size = 4
?_DECSTR@@YAXPADH@Z PROC				; _DECSTR, COMDAT

; 40   : __forceinline void _DECSTR(char* s, int l){int i=0,l4=(l-1)/4,*p=(int*)s;s[l-1]=0;for(;i<l4;++i)*(p++)^=0xEAEBECED;for(i=l4*4;i<l-1;++i)s[i]^=0xED-i%4;}

  00000	55		 push	 ebp
  00001	8b ec		 mov	 ebp, esp
  00003	8b 4d 0c	 mov	 ecx, DWORD PTR _l$[ebp]
  00006	56		 push	 esi
  00007	8b 75 08	 mov	 esi, DWORD PTR _s$[ebp]
  0000a	57		 push	 edi
  0000b	8d 79 ff	 lea	 edi, DWORD PTR [ecx-1]
  0000e	8b c7		 mov	 eax, edi
  00010	99		 cdq
  00011	83 e2 03	 and	 edx, 3
  00014	03 c2		 add	 eax, edx
  00016	c1 f8 02	 sar	 eax, 2
  00019	8b d6		 mov	 edx, esi
  0001b	c6 44 0e ff 00	 mov	 BYTE PTR [esi+ecx-1], 0
  00020	85 c0		 test	 eax, eax
  00022	7e 0e		 jle	 SHORT $LN4@DECSTR
  00024	8b c8		 mov	 ecx, eax
$LL6@DECSTR:
  00026	81 32 ed ec eb
	ea		 xor	 DWORD PTR [edx], -353637139 ; eaebecedH
  0002c	83 c2 04	 add	 edx, 4
  0002f	49		 dec	 ecx
  00030	75 f4		 jne	 SHORT $LL6@DECSTR
$LN4@DECSTR:
  00032	c1 e0 02	 shl	 eax, 2
  00035	eb 17		 jmp	 SHORT $LN14@DECSTR
$LL3@DECSTR:
  00037	8b c8		 mov	 ecx, eax
  00039	81 e1 03 00 00
	80		 and	 ecx, -2147483645	; 80000003H
  0003f	79 05		 jns	 SHORT $LN13@DECSTR
  00041	49		 dec	 ecx
  00042	83 c9 fc	 or	 ecx, -4			; fffffffcH
  00045	41		 inc	 ecx
$LN13@DECSTR:
  00046	b2 ed		 mov	 dl, -19			; ffffffedH
  00048	2a d1		 sub	 dl, cl
  0004a	30 14 30	 xor	 BYTE PTR [eax+esi], dl
  0004d	40		 inc	 eax
$LN14@DECSTR:
  0004e	3b c7		 cmp	 eax, edi
  00050	7c e5		 jl	 SHORT $LL3@DECSTR
  00052	5f		 pop	 edi
  00053	5e		 pop	 esi
  00054	5d		 pop	 ebp
  00055	c3		 ret	 0
?_DECSTR@@YAXPADH@Z ENDP				; _DECSTR
_TEXT	ENDS
PUBLIC	?GetGradeType@ioItem@@QBEHXZ			; ioItem::GetGradeType
; Function compile flags: /Ogsp
; File d:\lost saga for developer\youtube\tutorial\source\src\lsclient\ioitem.h
;	COMDAT ?GetGradeType@ioItem@@QBEHXZ
_TEXT	SEGMENT
?GetGradeType@ioItem@@QBEHXZ PROC			; ioItem::GetGradeType, COMDAT
; _this$ = ecx

; 445  : 	inline int GetGradeType() const { return m_nGradeType; }

  00000	8b 81 20 06 00
	00		 mov	 eax, DWORD PTR [ecx+1568]
  00006	c3		 ret	 0
?GetGradeType@ioItem@@QBEHXZ ENDP			; ioItem::GetGradeType
_TEXT	ENDS
PUBLIC	??0ETCITEMSLOT@ioUserEtcItem@@QAE@XZ		; ioUserEtcItem::ETCITEMSLOT::ETCITEMSLOT
; Function compile flags: /Ogsp
; File d:\lost saga for developer\youtube\tutorial\source\src\lsclient\iouseretcitem.h
;	COMDAT ??0ETCITEMSLOT@ioUserEtcItem@@QAE@XZ
_TEXT	SEGMENT
??0ETCITEMSLOT@ioUserEtcItem@@QAE@XZ PROC		; ioUserEtcItem::ETCITEMSLOT::ETCITEMSLOT, COMDAT
; _this$ = ecx

; 22   : 		ETCITEMSLOT()

  00000	8b c1		 mov	 eax, ecx

; 23   : 		{
; 24   : 			m_iType   = 0;

  00002	33 c9		 xor	 ecx, ecx
  00004	89 08		 mov	 DWORD PTR [eax], ecx

; 25   : 			m_iValue1 = 0;

  00006	89 48 04	 mov	 DWORD PTR [eax+4], ecx

; 26   : 			m_iValue2 = 0;

  00009	89 48 08	 mov	 DWORD PTR [eax+8], ecx

; 27   : 		}

  0000c	c3		 ret	 0
??0ETCITEMSLOT@ioUserEtcItem@@QAE@XZ ENDP		; ioUserEtcItem::ETCITEMSLOT::ETCITEMSLOT
_TEXT	ENDS
PUBLIC	?Init@EXTRAITEMSLOT@@QAEXXZ			; EXTRAITEMSLOT::Init
; Function compile flags: /Ogsp
; File d:\lost saga for developer\youtube\tutorial\source\src\lsclient\iouserextraitem.h
;	COMDAT ?Init@EXTRAITEMSLOT@@QAEXXZ
_TEXT	SEGMENT
?Init@EXTRAITEMSLOT@@QAEXXZ PROC			; EXTRAITEMSLOT::Init, COMDAT
; _this$ = ecx

; 50   : 		m_iItemCode = 0;

  00000	33 c0		 xor	 eax, eax

; 51   : 		m_iReinforce = 0;
; 52   : 		m_iIndex = 0;
; 53   : 
; 54   : 		m_PeriodType = EPT_TIME;
; 55   : 		m_iValue1 = 0;
; 56   : 		m_iValue2 = 0;
; 57   : 
; 58   : 		m_iTradeState = EET_DISABLE;
; 59   : 	
; 60   : 		m_dwMaleCustom = 0;
; 61   : 		m_dwFemaleCustom = 0;
; 62   : 		m_failExp = 0;

  00002	33 d2		 xor	 edx, edx
  00004	89 01		 mov	 DWORD PTR [ecx], eax
  00006	89 41 04	 mov	 DWORD PTR [ecx+4], eax
  00009	89 41 08	 mov	 DWORD PTR [ecx+8], eax
  0000c	89 41 0c	 mov	 DWORD PTR [ecx+12], eax
  0000f	89 41 10	 mov	 DWORD PTR [ecx+16], eax
  00012	89 41 14	 mov	 DWORD PTR [ecx+20], eax
  00015	89 41 18	 mov	 DWORD PTR [ecx+24], eax
  00018	89 41 1c	 mov	 DWORD PTR [ecx+28], eax
  0001b	89 41 20	 mov	 DWORD PTR [ecx+32], eax
  0001e	66 89 51 24	 mov	 WORD PTR [ecx+36], dx

; 63   : 
; 64   : 		m_bCharEquip = false;

  00022	88 41 26	 mov	 BYTE PTR [ecx+38], al

; 65   : 	}

  00025	c3		 ret	 0
?Init@EXTRAITEMSLOT@@QAEXXZ ENDP			; EXTRAITEMSLOT::Init
_TEXT	ENDS
PUBLIC	?GetInventorySubManual@ioEtcItem@@QBEHXZ	; ioEtcItem::GetInventorySubManual
; Function compile flags: /Ogsp
; File d:\lost saga for developer\youtube\tutorial\source\src\lsclient\ioetcitem.h
;	COMDAT ?GetInventorySubManual@ioEtcItem@@QBEHXZ
_TEXT	SEGMENT
?GetInventorySubManual@ioEtcItem@@QBEHXZ PROC		; ioEtcItem::GetInventorySubManual, COMDAT
; _this$ = ecx

; 435  : 	inline int     GetInventorySubManual() const { return m_iInventorySubManual; }

  00000	8b 41 4c	 mov	 eax, DWORD PTR [ecx+76]
  00003	c3		 ret	 0
?GetInventorySubManual@ioEtcItem@@QBEHXZ ENDP		; ioEtcItem::GetInventorySubManual
_TEXT	ENDS
PUBLIC	?GetSubResultManual@ioEtcItemRainbowMixer@@QAEHXZ ; ioEtcItemRainbowMixer::GetSubResultManual
; Function compile flags: /Ogsp
;	COMDAT ?GetSubResultManual@ioEtcItemRainbowMixer@@QAEHXZ
_TEXT	SEGMENT
?GetSubResultManual@ioEtcItemRainbowMixer@@QAEHXZ PROC	; ioEtcItemRainbowMixer::GetSubResultManual, COMDAT
; _this$ = ecx

; 1424 : 	int  GetSubResultManual(){ return m_iSubResultManual; }

  00000	8b 81 b8 01 00
	00		 mov	 eax, DWORD PTR [ecx+440]
  00006	c3		 ret	 0
?GetSubResultManual@ioEtcItemRainbowMixer@@QAEHXZ ENDP	; ioEtcItemRainbowMixer::GetSubResultManual
_TEXT	ENDS
PUBLIC	?GetPublicID@ioMyInfo@@QBEABVioHashString@@XZ	; ioMyInfo::GetPublicID
; Function compile flags: /Ogsp
; File d:\lost saga for developer\youtube\tutorial\source\src\lsclient\iomyinfo.h
;	COMDAT ?GetPublicID@ioMyInfo@@QBEABVioHashString@@XZ
_TEXT	SEGMENT
?GetPublicID@ioMyInfo@@QBEABVioHashString@@XZ PROC	; ioMyInfo::GetPublicID, COMDAT
; _this$ = ecx

; 517  : 	const ioHashString& GetPublicID() const { return m_user_data.m_public_id; }    

  00000	8d 41 1c	 lea	 eax, DWORD PTR [ecx+28]
  00003	c3		 ret	 0
?GetPublicID@ioMyInfo@@QBEABVioHashString@@XZ ENDP	; ioMyInfo::GetPublicID
_TEXT	ENDS
PUBLIC	?GetUserEtcItem@ioMyInfo@@QAEPAVioUserEtcItem@@XZ ; ioMyInfo::GetUserEtcItem
; Function compile flags: /Ogsp
;	COMDAT ?GetUserEtcItem@ioMyInfo@@QAEPAVioUserEtcItem@@XZ
_TEXT	SEGMENT
?GetUserEtcItem@ioMyInfo@@QAEPAVioUserEtcItem@@XZ PROC	; ioMyInfo::GetUserEtcItem, COMDAT
; _this$ = ecx

; 635  : 	ioUserEtcItem* GetUserEtcItem() { return &m_UserEtcItem; }

  00000	8d 81 44 01 00
	00		 lea	 eax, DWORD PTR [ecx+324]
  00006	c3		 ret	 0
?GetUserEtcItem@ioMyInfo@@QAEPAVioUserEtcItem@@XZ ENDP	; ioMyInfo::GetUserEtcItem
_TEXT	ENDS
PUBLIC	?GetUserExtraItem@ioMyInfo@@QAEPAVioUserExtraItem@@XZ ; ioMyInfo::GetUserExtraItem
; Function compile flags: /Ogsp
;	COMDAT ?GetUserExtraItem@ioMyInfo@@QAEPAVioUserExtraItem@@XZ
_TEXT	SEGMENT
?GetUserExtraItem@ioMyInfo@@QAEPAVioUserExtraItem@@XZ PROC ; ioMyInfo::GetUserExtraItem, COMDAT
; _this$ = ecx

; 636  : 	ioUserExtraItem* GetUserExtraItem() { return &m_UserExtraItem; }

  00000	8d 81 ac 01 00
	00		 lea	 eax, DWORD PTR [ecx+428]
  00006	c3		 ret	 0
?GetUserExtraItem@ioMyInfo@@QAEPAVioUserExtraItem@@XZ ENDP ; ioMyInfo::GetUserExtraItem
_TEXT	ENDS
PUBLIC	?size@?$vector@VioHashString@@V?$allocator@VioHashString@@@std@@@std@@QBEIXZ ; std::vector<ioHashString,std::allocator<ioHashString> >::size
; Function compile flags: /Ogsp
; File c:\program files (x86)\microsoft visual studio 10.0\vc\include\vector
;	COMDAT ?size@?$vector@VioHashString@@V?$allocator@VioHashString@@@std@@@std@@QBEIXZ
_TEXT	SEGMENT
?size@?$vector@VioHashString@@V?$allocator@VioHashString@@@std@@@std@@QBEIXZ PROC ; std::vector<ioHashString,std::allocator<ioHashString> >::size, COMDAT
; _this$ = ecx

; 879  : 		return (this->_Mylast - this->_Myfirst);

  00000	8b 41 04	 mov	 eax, DWORD PTR [ecx+4]
  00003	2b 01		 sub	 eax, DWORD PTR [ecx]
  00005	c1 f8 04	 sar	 eax, 4

; 880  : 		}

  00008	c3		 ret	 0
?size@?$vector@VioHashString@@V?$allocator@VioHashString@@@std@@@std@@QBEIXZ ENDP ; std::vector<ioHashString,std::allocator<ioHashString> >::size
_TEXT	ENDS
PUBLIC	??1?$_Vector_val@VioHashString@@V?$allocator@VioHashString@@@std@@@std@@QAE@XZ ; std::_Vector_val<ioHashString,std::allocator<ioHashString> >::~_Vector_val<ioHashString,std::allocator<ioHashString> >
; Function compile flags: /Ogsp
;	COMDAT ??1?$_Vector_val@VioHashString@@V?$allocator@VioHashString@@@std@@@std@@QAE@XZ
_TEXT	SEGMENT
??1?$_Vector_val@VioHashString@@V?$allocator@VioHashString@@@std@@@std@@QAE@XZ PROC ; std::_Vector_val<ioHashString,std::allocator<ioHashString> >::~_Vector_val<ioHashString,std::allocator<ioHashString> >, COMDAT
; _this$ = ecx

; 434  : 		}

  00000	c3		 ret	 0
??1?$_Vector_val@VioHashString@@V?$allocator@VioHashString@@@std@@@std@@QAE@XZ ENDP ; std::_Vector_val<ioHashString,std::allocator<ioHashString> >::~_Vector_val<ioHashString,std::allocator<ioHashString> >
_TEXT	ENDS
PUBLIC	??0?$allocator@VioHashString@@@std@@QAE@XZ	; std::allocator<ioHashString>::allocator<ioHashString>
; Function compile flags: /Ogsp
; File c:\program files (x86)\microsoft visual studio 10.0\vc\include\xmemory
;	COMDAT ??0?$allocator@VioHashString@@@std@@QAE@XZ
_TEXT	SEGMENT
??0?$allocator@VioHashString@@@std@@QAE@XZ PROC		; std::allocator<ioHashString>::allocator<ioHashString>, COMDAT
; _this$ = ecx

; 161  : 	_ALLOCATOR() _THROW0()

  00000	8b c1		 mov	 eax, ecx

; 162  : 		{	// construct default allocator (do nothing)
; 163  : 		}

  00002	c3		 ret	 0
??0?$allocator@VioHashString@@@std@@QAE@XZ ENDP		; std::allocator<ioHashString>::allocator<ioHashString>
_TEXT	ENDS
PUBLIC	??0?$allocator@VioHashString@@@std@@QAE@ABV01@@Z ; std::allocator<ioHashString>::allocator<ioHashString>
; Function compile flags: /Ogsp
;	COMDAT ??0?$allocator@VioHashString@@@std@@QAE@ABV01@@Z
_TEXT	SEGMENT
___formal$ = 8						; size = 4
??0?$allocator@VioHashString@@@std@@QAE@ABV01@@Z PROC	; std::allocator<ioHashString>::allocator<ioHashString>, COMDAT
; _this$ = ecx

; 165  : 	_ALLOCATOR(const _ALLOCATOR<_Ty>&) _THROW0()

  00000	8b c1		 mov	 eax, ecx

; 166  : 		{	// construct by copying (do nothing)
; 167  : 		}

  00002	c2 04 00	 ret	 4
??0?$allocator@VioHashString@@@std@@QAE@ABV01@@Z ENDP	; std::allocator<ioHashString>::allocator<ioHashString>
_TEXT	ENDS
PUBLIC	??_C@_0BD@OLBABOEK@vector?$DMT?$DO?5too?5long?$AA@ ; `string'
PUBLIC	?_Xlen@?$vector@VioHashString@@V?$allocator@VioHashString@@@std@@@std@@IBEXXZ ; std::vector<ioHashString,std::allocator<ioHashString> >::_Xlen
EXTRN	__imp_?_Xlength_error@std@@YAXPBD@Z:PROC
;	COMDAT ??_C@_0BD@OLBABOEK@vector?$DMT?$DO?5too?5long?$AA@
; File c:\program files (x86)\microsoft visual studio 10.0\vc\include\vector
CONST	SEGMENT
??_C@_0BD@OLBABOEK@vector?$DMT?$DO?5too?5long?$AA@ DB 'vector<T> too long'
	DB	00H						; `string'
; Function compile flags: /Ogsp
CONST	ENDS
;	COMDAT ?_Xlen@?$vector@VioHashString@@V?$allocator@VioHashString@@@std@@@std@@IBEXXZ
_TEXT	SEGMENT
?_Xlen@?$vector@VioHashString@@V?$allocator@VioHashString@@@std@@@std@@IBEXXZ PROC ; std::vector<ioHashString,std::allocator<ioHashString> >::_Xlen, COMDAT
; _this$ = ecx

; 1427 : 		_Xlength_error("vector<T> too long");

  00000	68 00 00 00 00	 push	 OFFSET ??_C@_0BD@OLBABOEK@vector?$DMT?$DO?5too?5long?$AA@
  00005	ff 15 00 00 00
	00		 call	 DWORD PTR __imp_?_Xlength_error@std@@YAXPBD@Z
$LN4@Xlen:
$LN3@Xlen:
  0000b	cc		 int	 3
?_Xlen@?$vector@VioHashString@@V?$allocator@VioHashString@@@std@@@std@@IBEXXZ ENDP ; std::vector<ioHashString,std::allocator<ioHashString> >::_Xlen
_TEXT	ENDS
PUBLIC	?deallocate@?$allocator@VioHashString@@@std@@QAEXPAVioHashString@@I@Z ; std::allocator<ioHashString>::deallocate
; Function compile flags: /Ogsp
; File c:\program files (x86)\microsoft visual studio 10.0\vc\include\xmemory
;	COMDAT ?deallocate@?$allocator@VioHashString@@@std@@QAEXPAVioHashString@@I@Z
_TEXT	SEGMENT
__Ptr$ = 8						; size = 4
___formal$ = 12						; size = 4
?deallocate@?$allocator@VioHashString@@@std@@QAEXPAVioHashString@@I@Z PROC ; std::allocator<ioHashString>::deallocate, COMDAT
; _this$ = ecx

; 181  : 		{	// deallocate object at _Ptr, ignore size

  00000	55		 push	 ebp
  00001	8b ec		 mov	 ebp, esp

; 182  : 		::operator delete(_Ptr);

  00003	ff 75 08	 push	 DWORD PTR __Ptr$[ebp]
  00006	e8 00 00 00 00	 call	 ??3@YAXPAX@Z		; operator delete
  0000b	59		 pop	 ecx

; 183  : 		}

  0000c	5d		 pop	 ebp
  0000d	c2 08 00	 ret	 8
?deallocate@?$allocator@VioHashString@@@std@@QAEXPAVioHashString@@I@Z ENDP ; std::allocator<ioHashString>::deallocate
_TEXT	ENDS
PUBLIC	??0?$_Vector_const_iterator@V?$_Vector_val@VioHashString@@V?$allocator@VioHashString@@@std@@@std@@@std@@QAE@PAVioHashString@@PBU_Container_base0@1@@Z ; std::_Vector_const_iterator<std::_Vector_val<ioHashString,std::allocator<ioHashString> > >::_Vector_const_iterator<std::_Vector_val<ioHashString,std::allocator<ioHashString> > >
; Function compile flags: /Ogsp
; File c:\program files (x86)\microsoft visual studio 10.0\vc\include\vector
;	COMDAT ??0?$_Vector_const_iterator@V?$_Vector_val@VioHashString@@V?$allocator@VioHashString@@@std@@@std@@@std@@QAE@PAVioHashString@@PBU_Container_base0@1@@Z
_TEXT	SEGMENT
__Parg$ = 8						; size = 4
__Pvector$ = 12						; size = 4
??0?$_Vector_const_iterator@V?$_Vector_val@VioHashString@@V?$allocator@VioHashString@@@std@@@std@@@std@@QAE@PAVioHashString@@PBU_Container_base0@1@@Z PROC ; std::_Vector_const_iterator<std::_Vector_val<ioHashString,std::allocator<ioHashString> > >::_Vector_const_iterator<std::_Vector_val<ioHashString,std::allocator<ioHashString> > >, COMDAT
; _this$ = ecx

; 45   : 		{	// construct with pointer _Parg

  00000	55		 push	 ebp
  00001	8b ec		 mov	 ebp, esp
  00003	8b c1		 mov	 eax, ecx
  00005	8b 4d 08	 mov	 ecx, DWORD PTR __Parg$[ebp]
  00008	89 08		 mov	 DWORD PTR [eax], ecx

; 46   : 		this->_Adopt(_Pvector);
; 47   : 		}

  0000a	5d		 pop	 ebp
  0000b	c2 08 00	 ret	 8
??0?$_Vector_const_iterator@V?$_Vector_val@VioHashString@@V?$allocator@VioHashString@@@std@@@std@@@std@@QAE@PAVioHashString@@PBU_Container_base0@1@@Z ENDP ; std::_Vector_const_iterator<std::_Vector_val<ioHashString,std::allocator<ioHashString> > >::_Vector_const_iterator<std::_Vector_val<ioHashString,std::allocator<ioHashString> > >
_TEXT	ENDS
PUBLIC	??0?$_Vector_iterator@V?$_Vector_val@VioHashString@@V?$allocator@VioHashString@@@std@@@std@@@std@@QAE@PAVioHashString@@PBU_Container_base0@1@@Z ; std::_Vector_iterator<std::_Vector_val<ioHashString,std::allocator<ioHashString> > >::_Vector_iterator<std::_Vector_val<ioHashString,std::allocator<ioHashString> > >
; Function compile flags: /Ogsp
;	COMDAT ??0?$_Vector_iterator@V?$_Vector_val@VioHashString@@V?$allocator@VioHashString@@@std@@@std@@@std@@QAE@PAVioHashString@@PBU_Container_base0@1@@Z
_TEXT	SEGMENT
__Parg$ = 8						; size = 4
__Pvector$ = 12						; size = 4
??0?$_Vector_iterator@V?$_Vector_val@VioHashString@@V?$allocator@VioHashString@@@std@@@std@@@std@@QAE@PAVioHashString@@PBU_Container_base0@1@@Z PROC ; std::_Vector_iterator<std::_Vector_val<ioHashString,std::allocator<ioHashString> > >::_Vector_iterator<std::_Vector_val<ioHashString,std::allocator<ioHashString> > >, COMDAT
; _this$ = ecx

; 304  : 		{	// construct with pointer _Parg

  00000	55		 push	 ebp
  00001	8b ec		 mov	 ebp, esp
  00003	8b c1		 mov	 eax, ecx
  00005	8b 4d 08	 mov	 ecx, DWORD PTR __Parg$[ebp]
  00008	89 08		 mov	 DWORD PTR [eax], ecx

; 305  : 		}

  0000a	5d		 pop	 ebp
  0000b	c2 08 00	 ret	 8
??0?$_Vector_iterator@V?$_Vector_val@VioHashString@@V?$allocator@VioHashString@@@std@@@std@@@std@@QAE@PAVioHashString@@PBU_Container_base0@1@@Z ENDP ; std::_Vector_iterator<std::_Vector_val<ioHashString,std::allocator<ioHashString> > >::_Vector_iterator<std::_Vector_val<ioHashString,std::allocator<ioHashString> > >
_TEXT	ENDS
PUBLIC	?max_size@?$allocator@VioHashString@@@std@@QBEIXZ ; std::allocator<ioHashString>::max_size
; Function compile flags: /Ogsp
; File c:\program files (x86)\microsoft visual studio 10.0\vc\include\xmemory
;	COMDAT ?max_size@?$allocator@VioHashString@@@std@@QBEIXZ
_TEXT	SEGMENT
?max_size@?$allocator@VioHashString@@@std@@QBEIXZ PROC	; std::allocator<ioHashString>::max_size, COMDAT
; _this$ = ecx

; 218  : 		_SIZT _Count = (_SIZT)(-1) / sizeof (_Ty);
; 219  : 		return (0 < _Count ? _Count : 1);

  00000	b8 ff ff ff 0f	 mov	 eax, 268435455		; 0fffffffH

; 220  : 		}

  00005	c3		 ret	 0
?max_size@?$allocator@VioHashString@@@std@@QBEIXZ ENDP	; std::allocator<ioHashString>::max_size
_TEXT	ENDS
PUBLIC	?_Compat@?$_Vector_const_iterator@V?$_Vector_val@VioHashString@@V?$allocator@VioHashString@@@std@@@std@@@std@@QBEXABV12@@Z ; std::_Vector_const_iterator<std::_Vector_val<ioHashString,std::allocator<ioHashString> > >::_Compat
; Function compile flags: /Ogsp
; File c:\program files (x86)\microsoft visual studio 10.0\vc\include\vector
;	COMDAT ?_Compat@?$_Vector_const_iterator@V?$_Vector_val@VioHashString@@V?$allocator@VioHashString@@@std@@@std@@@std@@QBEXABV12@@Z
_TEXT	SEGMENT
___formal$ = 8						; size = 4
?_Compat@?$_Vector_const_iterator@V?$_Vector_val@VioHashString@@V?$allocator@VioHashString@@@std@@@std@@@std@@QBEXABV12@@Z PROC ; std::_Vector_const_iterator<std::_Vector_val<ioHashString,std::allocator<ioHashString> > >::_Compat, COMDAT
; _this$ = ecx

; 253  : 		}

  00000	c2 04 00	 ret	 4
?_Compat@?$_Vector_const_iterator@V?$_Vector_val@VioHashString@@V?$allocator@VioHashString@@@std@@@std@@@std@@QBEXABV12@@Z ENDP ; std::_Vector_const_iterator<std::_Vector_val<ioHashString,std::allocator<ioHashString> > >::_Compat
_TEXT	ENDS
PUBLIC	__TI2?AVbad_alloc@std@@
PUBLIC	??$_Allocate@VioHashString@@@std@@YAPAVioHashString@@IPAV1@@Z ; std::_Allocate<ioHashString>
PUBLIC	__CTA2?AVbad_alloc@std@@
PUBLIC	__CT??_R0?AVbad_alloc@std@@@8??0bad_alloc@std@@QAE@ABV01@@Z12
PUBLIC	??0bad_alloc@std@@QAE@ABV01@@Z			; std::bad_alloc::bad_alloc
PUBLIC	__CT??_R0?AVexception@std@@@8??0exception@std@@QAE@ABV01@@Z12
EXTRN	??2@YAPAXI@Z:PROC				; operator new
EXTRN	__CxxThrowException@8:PROC
EXTRN	??0exception@std@@QAE@ABV01@@Z:PROC		; std::exception::exception
;	COMDAT __CT??_R0?AVexception@std@@@8??0exception@std@@QAE@ABV01@@Z12
; File c:\program files (x86)\microsoft visual studio 10.0\vc\include\exception
xdata$x	SEGMENT
__CT??_R0?AVexception@std@@@8??0exception@std@@QAE@ABV01@@Z12 DD 00H
	DD	FLAT:??_R0?AVexception@std@@@8
	DD	00H
	DD	0ffffffffH
	ORG $+4
	DD	0cH
	DD	FLAT:??0exception@std@@QAE@ABV01@@Z
xdata$x	ENDS
;	COMDAT __CT??_R0?AVbad_alloc@std@@@8??0bad_alloc@std@@QAE@ABV01@@Z12
xdata$x	SEGMENT
__CT??_R0?AVbad_alloc@std@@@8??0bad_alloc@std@@QAE@ABV01@@Z12 DD 00H
	DD	FLAT:??_R0?AVbad_alloc@std@@@8
	DD	00H
	DD	0ffffffffH
	ORG $+4
	DD	0cH
	DD	FLAT:??0bad_alloc@std@@QAE@ABV01@@Z
xdata$x	ENDS
;	COMDAT __CTA2?AVbad_alloc@std@@
xdata$x	SEGMENT
__CTA2?AVbad_alloc@std@@ DD 02H
	DD	FLAT:__CT??_R0?AVbad_alloc@std@@@8??0bad_alloc@std@@QAE@ABV01@@Z12
	DD	FLAT:__CT??_R0?AVexception@std@@@8??0exception@std@@QAE@ABV01@@Z12
xdata$x	ENDS
;	COMDAT __TI2?AVbad_alloc@std@@
xdata$x	SEGMENT
__TI2?AVbad_alloc@std@@ DD 00H
	DD	FLAT:??1bad_alloc@std@@UAE@XZ
	DD	00H
	DD	FLAT:__CTA2?AVbad_alloc@std@@
; Function compile flags: /Ogsp
; File c:\program files (x86)\microsoft visual studio 10.0\vc\include\xmemory
xdata$x	ENDS
;	COMDAT ??$_Allocate@VioHashString@@@std@@YAPAVioHashString@@IPAV1@@Z
_TEXT	SEGMENT
$T520511 = -12						; size = 12
$T520516 = 8						; size = 4
__Count$ = 8						; size = 4
___formal$ = 12						; size = 4
??$_Allocate@VioHashString@@@std@@YAPAVioHashString@@IPAV1@@Z PROC ; std::_Allocate<ioHashString>, COMDAT

; 30   : 	{	// allocate storage for _Count elements of type _Ty

  00000	55		 push	 ebp
  00001	8b ec		 mov	 ebp, esp

; 31   : 	void *_Ptr = 0;
; 32   : 
; 33   : 	if (_Count <= 0)

  00003	8b 4d 08	 mov	 ecx, DWORD PTR __Count$[ebp]
  00006	83 ec 0c	 sub	 esp, 12			; 0000000cH
  00009	33 c0		 xor	 eax, eax
  0000b	85 c9		 test	 ecx, ecx

; 34   : 		_Count = 0;
; 35   : 	else if (((_SIZT)(-1) / sizeof (_Ty) < _Count)

  0000d	74 3c		 je	 SHORT $LN5@Allocate

; 36   : 		|| (_Ptr = ::operator new(_Count * sizeof (_Ty))) == 0)

  0000f	81 f9 ff ff ff
	0f		 cmp	 ecx, 268435455		; 0fffffffH
  00015	77 0e		 ja	 SHORT $LN1@Allocate
  00017	c1 e1 04	 shl	 ecx, 4
  0001a	51		 push	 ecx
  0001b	e8 00 00 00 00	 call	 ??2@YAPAXI@Z		; operator new
  00020	59		 pop	 ecx
  00021	85 c0		 test	 eax, eax

; 38   : 
; 39   : 	return ((_Ty _FARQ *)_Ptr);

  00023	75 26		 jne	 SHORT $LN5@Allocate
$LN1@Allocate:

; 37   : 		_THROW_NCEE(bad_alloc, 0);

  00025	83 65 08 00	 and	 DWORD PTR $T520516[ebp], 0
  00029	8d 45 08	 lea	 eax, DWORD PTR $T520516[ebp]
  0002c	50		 push	 eax
  0002d	8d 4d f4	 lea	 ecx, DWORD PTR $T520511[ebp]
  00030	ff 15 00 00 00
	00		 call	 DWORD PTR __imp_??0exception@std@@QAE@ABQBD@Z
  00036	68 00 00 00 00	 push	 OFFSET __TI2?AVbad_alloc@std@@
  0003b	8d 45 f4	 lea	 eax, DWORD PTR $T520511[ebp]
  0003e	50		 push	 eax
  0003f	c7 45 f4 00 00
	00 00		 mov	 DWORD PTR $T520511[ebp], OFFSET ??_7bad_alloc@std@@6B@
  00046	e8 00 00 00 00	 call	 __CxxThrowException@8
$LN10@Allocate:
$LN5@Allocate:

; 40   : 	}

  0004b	c9		 leave
  0004c	c3		 ret	 0
$LN9@Allocate:
??$_Allocate@VioHashString@@@std@@YAPAVioHashString@@IPAV1@@Z ENDP ; std::_Allocate<ioHashString>
_TEXT	ENDS
EXTRN	__imp_??0exception@std@@QAE@ABV01@@Z:PROC
; Function compile flags: /Ogsp
;	COMDAT ??0bad_alloc@std@@QAE@ABV01@@Z
_TEXT	SEGMENT
___that$ = 8						; size = 4
??0bad_alloc@std@@QAE@ABV01@@Z PROC			; std::bad_alloc::bad_alloc, COMDAT
; _this$ = ecx
  00000	55		 push	 ebp
  00001	8b ec		 mov	 ebp, esp
  00003	56		 push	 esi
  00004	ff 75 08	 push	 DWORD PTR ___that$[ebp]
  00007	8b f1		 mov	 esi, ecx
  00009	ff 15 00 00 00
	00		 call	 DWORD PTR __imp_??0exception@std@@QAE@ABV01@@Z
  0000f	c7 06 00 00 00
	00		 mov	 DWORD PTR [esi], OFFSET ??_7bad_alloc@std@@6B@
  00015	8b c6		 mov	 eax, esi
  00017	5e		 pop	 esi
  00018	5d		 pop	 ebp
  00019	c2 04 00	 ret	 4
??0bad_alloc@std@@QAE@ABV01@@Z ENDP			; std::bad_alloc::bad_alloc
_TEXT	ENDS
PUBLIC	??$forward@ABVioHashString@@@std@@YAABVioHashString@@ABV1@@Z ; std::forward<ioHashString const &>
; Function compile flags: /Ogsp
; File c:\program files (x86)\microsoft visual studio 10.0\vc\include\utility
;	COMDAT ??$forward@ABVioHashString@@@std@@YAABVioHashString@@ABV1@@Z
_TEXT	SEGMENT
__Arg$ = 8						; size = 4
??$forward@ABVioHashString@@@std@@YAABVioHashString@@ABV1@@Z PROC ; std::forward<ioHashString const &>, COMDAT

; 78   : 	{	// forward _Arg, given explicitly specified type parameter

  00000	55		 push	 ebp
  00001	8b ec		 mov	 ebp, esp

; 79   : 	return ((_Ty&&)_Arg);

  00003	8b 45 08	 mov	 eax, DWORD PTR __Arg$[ebp]

; 80   : 	}

  00006	5d		 pop	 ebp
  00007	c3		 ret	 0
??$forward@ABVioHashString@@@std@@YAABVioHashString@@ABV1@@Z ENDP ; std::forward<ioHashString const &>
_TEXT	ENDS
PUBLIC	??$forward@AAVioHashString@@@std@@YAAAVioHashString@@AAV1@@Z ; std::forward<ioHashString &>
; Function compile flags: /Ogsp
;	COMDAT ??$forward@AAVioHashString@@@std@@YAAAVioHashString@@AAV1@@Z
_TEXT	SEGMENT
__Arg$ = 8						; size = 4
??$forward@AAVioHashString@@@std@@YAAAVioHashString@@AAV1@@Z PROC ; std::forward<ioHashString &>, COMDAT

; 78   : 	{	// forward _Arg, given explicitly specified type parameter

  00000	55		 push	 ebp
  00001	8b ec		 mov	 ebp, esp

; 79   : 	return ((_Ty&&)_Arg);

  00003	8b 45 08	 mov	 eax, DWORD PTR __Arg$[ebp]

; 80   : 	}

  00006	5d		 pop	 ebp
  00007	c3		 ret	 0
??$forward@AAVioHashString@@@std@@YAAAVioHashString@@AAV1@@Z ENDP ; std::forward<ioHashString &>
_TEXT	ENDS
PUBLIC	??$_Ptr_cat@VioHashString@@V1@@std@@YA?AU_Nonscalar_ptr_iterator_tag@0@PAVioHashString@@0@Z ; std::_Ptr_cat<ioHashString,ioHashString>
; Function compile flags: /Ogsp
; File c:\program files (x86)\microsoft visual studio 10.0\vc\include\xutility
;	COMDAT ??$_Ptr_cat@VioHashString@@V1@@std@@YA?AU_Nonscalar_ptr_iterator_tag@0@PAVioHashString@@0@Z
_TEXT	SEGMENT
__Cat$ = -1						; size = 1
___formal$ = 8						; size = 4
___formal$ = 12						; size = 4
??$_Ptr_cat@VioHashString@@V1@@std@@YA?AU_Nonscalar_ptr_iterator_tag@0@PAVioHashString@@0@Z PROC ; std::_Ptr_cat<ioHashString,ioHashString>, COMDAT

; 516  : 	{	// return pointer category from pointers

  00000	55		 push	 ebp
  00001	8b ec		 mov	 ebp, esp
  00003	51		 push	 ecx

; 517  : 	typename _Ptr_cat_helper<_Elem1, _Elem2>::_Type _Cat;
; 518  : 	return (_Cat);

  00004	8a 45 ff	 mov	 al, BYTE PTR __Cat$[ebp]

; 519  : 	}

  00007	c9		 leave
  00008	c3		 ret	 0
??$_Ptr_cat@VioHashString@@V1@@std@@YA?AU_Nonscalar_ptr_iterator_tag@0@PAVioHashString@@0@Z ENDP ; std::_Ptr_cat<ioHashString,ioHashString>
_TEXT	ENDS
PUBLIC	??$move@AAVioHashString@@@std@@YA$$QAVioHashString@@AAV1@@Z ; std::move<ioHashString &>
; Function compile flags: /Ogsp
; File c:\program files (x86)\microsoft visual studio 10.0\vc\include\utility
;	COMDAT ??$move@AAVioHashString@@@std@@YA$$QAVioHashString@@AAV1@@Z
_TEXT	SEGMENT
__Arg$ = 8						; size = 4
??$move@AAVioHashString@@@std@@YA$$QAVioHashString@@AAV1@@Z PROC ; std::move<ioHashString &>, COMDAT

; 86   : 	{	// forward _Arg as movable

  00000	55		 push	 ebp
  00001	8b ec		 mov	 ebp, esp

; 87   : 	return ((typename tr1::_Remove_reference<_Ty>::_Type&&)_Arg);

  00003	8b 45 08	 mov	 eax, DWORD PTR __Arg$[ebp]

; 88   : 	}

  00006	5d		 pop	 ebp
  00007	c3		 ret	 0
??$move@AAVioHashString@@@std@@YA$$QAVioHashString@@AAV1@@Z ENDP ; std::move<ioHashString &>
_TEXT	ENDS
PUBLIC	??_GioHashString@@QAEPAXI@Z			; ioHashString::`scalar deleting destructor'
; Function compile flags: /Ogsp
;	COMDAT ??_GioHashString@@QAEPAXI@Z
_TEXT	SEGMENT
___flags$ = 8						; size = 4
??_GioHashString@@QAEPAXI@Z PROC			; ioHashString::`scalar deleting destructor', COMDAT
; _this$ = ecx
  00000	55		 push	 ebp
  00001	8b ec		 mov	 ebp, esp
  00003	56		 push	 esi
  00004	8b f1		 mov	 esi, ecx
  00006	ff 15 00 00 00
	00		 call	 DWORD PTR __imp_??1ioHashString@@QAE@XZ
  0000c	f6 45 08 01	 test	 BYTE PTR ___flags$[ebp], 1
  00010	74 07		 je	 SHORT $LN1@scalar@2
  00012	56		 push	 esi
  00013	e8 00 00 00 00	 call	 ??3@YAXPAX@Z		; operator delete
  00018	59		 pop	 ecx
$LN1@scalar@2:
  00019	8b c6		 mov	 eax, esi
  0001b	5e		 pop	 esi
  0001c	5d		 pop	 ebp
  0001d	c2 04 00	 ret	 4
??_GioHashString@@QAEPAXI@Z ENDP			; ioHashString::`scalar deleting destructor'
_TEXT	ENDS
PUBLIC	??$_Construct@VioHashString@@ABV1@@std@@YAXPAVioHashString@@ABV1@@Z ; std::_Construct<ioHashString,ioHashString const &>
EXTRN	__imp_??0ioHashString@@QAE@ABV0@@Z:PROC
;	COMDAT xdata$x
xdata$x	SEGMENT
__unwindtable$??$_Construct@VioHashString@@ABV1@@std@@YAXPAVioHashString@@ABV1@@Z DD 0ffffffffH
	DD	FLAT:__unwindfunclet$??$_Construct@VioHashString@@ABV1@@std@@YAXPAVioHashString@@ABV1@@Z$0
__ehfuncinfo$??$_Construct@VioHashString@@ABV1@@std@@YAXPAVioHashString@@ABV1@@Z DD 019930522H
	DD	01H
	DD	FLAT:__unwindtable$??$_Construct@VioHashString@@ABV1@@std@@YAXPAVioHashString@@ABV1@@Z
	DD	2 DUP(00H)
	DD	2 DUP(00H)
	DD	00H
	DD	01H
; Function compile flags: /Ogsp
; File c:\program files (x86)\microsoft visual studio 10.0\vc\include\xmemory
xdata$x	ENDS
;	COMDAT ??$_Construct@VioHashString@@ABV1@@std@@YAXPAVioHashString@@ABV1@@Z
_TEXT	SEGMENT
$T520535 = -16						; size = 4
__$EHRec$ = -12						; size = 12
__Vptr$ = 8						; size = 4
__Ptr$ = 8						; size = 4
__Val$ = 12						; size = 4
??$_Construct@VioHashString@@ABV1@@std@@YAXPAVioHashString@@ABV1@@Z PROC ; std::_Construct<ioHashString,ioHashString const &>, COMDAT

; 46   : 	{	// construct object at _Ptr with value _Val

  00000	6a 04		 push	 4
  00002	b8 00 00 00 00	 mov	 eax, __ehhandler$??$_Construct@VioHashString@@ABV1@@std@@YAXPAVioHashString@@ABV1@@Z
  00007	e8 00 00 00 00	 call	 __EH_prolog3

; 47   : 	void _FARQ *_Vptr = _Ptr;

  0000c	8b 4d 08	 mov	 ecx, DWORD PTR __Ptr$[ebp]
  0000f	89 4d 08	 mov	 DWORD PTR __Vptr$[ebp], ecx

; 48   : 	::new (_Vptr) _Ty1(_STD forward<_Ty2>(_Val));

  00012	89 4d f0	 mov	 DWORD PTR $T520535[ebp], ecx
  00015	83 65 fc 00	 and	 DWORD PTR __$EHRec$[ebp+8], 0
  00019	85 c9		 test	 ecx, ecx
  0001b	74 09		 je	 SHORT $LN3@Construct
  0001d	ff 75 0c	 push	 DWORD PTR __Val$[ebp]
  00020	ff 15 00 00 00
	00		 call	 DWORD PTR __imp_??0ioHashString@@QAE@ABV0@@Z
$LN3@Construct:

; 49   : 	}

  00026	e8 00 00 00 00	 call	 __EH_epilog3
  0002b	c3		 ret	 0
_TEXT	ENDS
;	COMDAT text$x
text$x	SEGMENT
__unwindfunclet$??$_Construct@VioHashString@@ABV1@@std@@YAXPAVioHashString@@ABV1@@Z$0:
  00000	ff 75 08	 push	 DWORD PTR __Vptr$[ebp]
  00003	ff 75 f0	 push	 DWORD PTR $T520535[ebp]
  00006	e8 00 00 00 00	 call	 ??3@YAXPAX0@Z		; operator delete
  0000b	59		 pop	 ecx
  0000c	59		 pop	 ecx
  0000d	c3		 ret	 0
__ehhandler$??$_Construct@VioHashString@@ABV1@@std@@YAXPAVioHashString@@ABV1@@Z:
  0000e	8b 54 24 08	 mov	 edx, DWORD PTR [esp+8]
  00012	8d 42 0c	 lea	 eax, DWORD PTR [edx+12]
  00015	8b 4a ec	 mov	 ecx, DWORD PTR [edx-20]
  00018	33 c8		 xor	 ecx, eax
  0001a	e8 00 00 00 00	 call	 @__security_check_cookie@4
  0001f	b8 00 00 00 00	 mov	 eax, OFFSET __ehfuncinfo$??$_Construct@VioHashString@@ABV1@@std@@YAXPAVioHashString@@ABV1@@Z
  00024	e9 00 00 00 00	 jmp	 ___CxxFrameHandler3
text$x	ENDS
??$_Construct@VioHashString@@ABV1@@std@@YAXPAVioHashString@@ABV1@@Z ENDP ; std::_Construct<ioHashString,ioHashString const &>
PUBLIC	??_C@_0BJ@MBKFFGIH@?$CFs?5pEtcItem?5?$DN?$DN?5NULL?5?3?5?$CFd?$AA@ ; `string'
PUBLIC	??_C@_0CD@PEHGCOOB@ItemCompoundResultWnd?3?3iwm_comma@ ; `string'
PUBLIC	??_R0?AVioWnd@@@8				; ioWnd `RTTI Type Descriptor'
PUBLIC	??_R0?AVMyInventoryWnd@@@8			; MyInventoryWnd `RTTI Type Descriptor'
PUBLIC	?iwm_command@ItemCompoundResultWnd@@UAEXPAVioWnd@@HK@Z ; ItemCompoundResultWnd::iwm_command
EXTRN	__imp_?PrintTimeAndLog@CLog@@QAAXHPADZZ:PROC
EXTRN	__imp_?LOG@@3VCLog@@A:BYTE
EXTRN	?FindEtcItem@ioEtcItemManager@@QAEPAVioEtcItem@@K@Z:PROC ; ioEtcItemManager::FindEtcItem
EXTRN	?ShowExtraItemTabDirect@MyInventoryWnd@@QAEXHH@Z:PROC ; MyInventoryWnd::ShowExtraItemTabDirect
EXTRN	?GetClassType@ioMyInfo@@QAEHXZ:PROC		; ioMyInfo::GetClassType
EXTRN	?GetSingleton@ioMyInfo@@SAAAV1@XZ:PROC		; ioMyInfo::GetSingleton
EXTRN	__imp_?FindWnd@ioGUIManager@@QAEPAVioWnd@@K@Z:PROC
EXTRN	?GetSingleton@ioSP2GUIManager@@SAAAV1@XZ:PROC	; ioSP2GUIManager::GetSingleton
EXTRN	__imp_?HideWnd@ioWnd@@QAEXXZ:PROC
EXTRN	__imp_?GetID@ioWnd@@QBEKXZ:PROC
EXTRN	___RTDynamicCast:PROC
;	COMDAT ??_C@_0BJ@MBKFFGIH@?$CFs?5pEtcItem?5?$DN?$DN?5NULL?5?3?5?$CFd?$AA@
; File d:\lost saga for developer\youtube\tutorial\source\src\io3dengine\iosingleton.h
CONST	SEGMENT
??_C@_0BJ@MBKFFGIH@?$CFs?5pEtcItem?5?$DN?$DN?5NULL?5?3?5?$CFd?$AA@ DB '%s'
	DB	' pEtcItem == NULL : %d', 00H		; `string'
CONST	ENDS
;	COMDAT ??_C@_0CD@PEHGCOOB@ItemCompoundResultWnd?3?3iwm_comma@
CONST	SEGMENT
??_C@_0CD@PEHGCOOB@ItemCompoundResultWnd?3?3iwm_comma@ DB 'ItemCompoundRe'
	DB	'sultWnd::iwm_command', 00H			; `string'
CONST	ENDS
;	COMDAT ??_R0?AVioWnd@@@8
_DATA	SEGMENT
??_R0?AVioWnd@@@8 DD FLAT:??_7type_info@@6B@		; ioWnd `RTTI Type Descriptor'
	DD	00H
	DB	'.?AVioWnd@@', 00H
_DATA	ENDS
;	COMDAT ??_R0?AVMyInventoryWnd@@@8
_DATA	SEGMENT
??_R0?AVMyInventoryWnd@@@8 DD FLAT:??_7type_info@@6B@	; MyInventoryWnd `RTTI Type Descriptor'
	DD	00H
	DB	'.?AVMyInventoryWnd@@', 00H
; Function compile flags: /Ogsp
; File d:\lost saga for developer\youtube\tutorial\source\src\lsclient\gui\itemcompoundresultwnd.cpp
_DATA	ENDS
;	COMDAT ?iwm_command@ItemCompoundResultWnd@@UAEXPAVioWnd@@HK@Z
_TEXT	SEGMENT
_pWnd$ = 8						; size = 4
_cmd$ = 12						; size = 4
_param$ = 16						; size = 4
?iwm_command@ItemCompoundResultWnd@@UAEXPAVioWnd@@HK@Z PROC ; ItemCompoundResultWnd::iwm_command, COMDAT
; _this$ = ecx

; 533  : {

  00000	55		 push	 ebp
  00001	8b ec		 mov	 ebp, esp
  00003	56		 push	 esi
  00004	8b f1		 mov	 esi, ecx

; 534  : 	DWORD dwID = pWnd->GetID();

  00006	8b 4d 08	 mov	 ecx, DWORD PTR _pWnd$[ebp]
  00009	ff 15 00 00 00
	00		 call	 DWORD PTR __imp_?GetID@ioWnd@@QBEKXZ

; 535  : 
; 536  : 	switch( dwID )

  0000f	48		 dec	 eax
  00010	48		 dec	 eax
  00011	74 64		 je	 SHORT $LN4@iwm_comman
  00013	48		 dec	 eax
  00014	0f 85 c7 00 00
	00		 jne	 $LN2@iwm_comman

; 537  : 	{
; 538  : 	case ID_GO:
; 539  : 		if( cmd == IOBN_BTNUP )

  0001a	83 7d 0c 11	 cmp	 DWORD PTR _cmd$[ebp], 17 ; 00000011H
  0001e	0f 85 bd 00 00
	00		 jne	 $LN2@iwm_comman

; 540  : 		{
; 541  : 			HideWnd();

  00024	8b ce		 mov	 ecx, esi
  00026	ff 15 00 00 00
	00		 call	 DWORD PTR __imp_?HideWnd@ioWnd@@QAEXXZ

; 542  : 
; 543  : 			MyInventoryWnd *pInvenWnd = dynamic_cast<MyInventoryWnd*>(g_GUIMgr.FindWnd(MY_INVENTORY_WND));

  0002c	6a 00		 push	 0
  0002e	68 00 00 00 00	 push	 OFFSET ??_R0?AVMyInventoryWnd@@@8
  00033	68 00 00 00 00	 push	 OFFSET ??_R0?AVioWnd@@@8
  00038	6a 00		 push	 0
  0003a	68 96 17 00 00	 push	 6038			; 00001796H
  0003f	e8 00 00 00 00	 call	 ?GetSingleton@ioSP2GUIManager@@SAAAV1@XZ ; ioSP2GUIManager::GetSingleton
  00044	8b c8		 mov	 ecx, eax
  00046	ff 15 00 00 00
	00		 call	 DWORD PTR __imp_?FindWnd@ioGUIManager@@QAEPAVioWnd@@K@Z
  0004c	50		 push	 eax
  0004d	e8 00 00 00 00	 call	 ___RTDynamicCast
  00052	8b f0		 mov	 esi, eax
  00054	83 c4 14	 add	 esp, 20			; 00000014H

; 544  : 			if( pInvenWnd )

  00057	85 f6		 test	 esi, esi
  00059	0f 84 82 00 00
	00		 je	 $LN2@iwm_comman

; 545  : 			{
; 546  : 				pInvenWnd->ShowExtraItemTabDirect( g_MyInfo.GetClassType() );

  0005f	6a ff		 push	 -1
  00061	e8 00 00 00 00	 call	 ?GetSingleton@ioMyInfo@@SAAAV1@XZ ; ioMyInfo::GetSingleton
  00066	8b c8		 mov	 ecx, eax
  00068	e8 00 00 00 00	 call	 ?GetClassType@ioMyInfo@@QAEHXZ ; ioMyInfo::GetClassType
  0006d	50		 push	 eax
  0006e	8b ce		 mov	 ecx, esi
  00070	e8 00 00 00 00	 call	 ?ShowExtraItemTabDirect@MyInventoryWnd@@QAEXHH@Z ; MyInventoryWnd::ShowExtraItemTabDirect

; 547  : 			}
; 548  : 		}
; 549  : 		break;

  00075	eb 6a		 jmp	 SHORT $LN2@iwm_comman
$LN4@iwm_comman:

; 550  : 	case ID_USE:
; 551  : 		if( cmd == IOBN_BTNUP )

  00077	83 7d 0c 11	 cmp	 DWORD PTR _cmd$[ebp], 17 ; 00000011H
  0007b	75 64		 jne	 SHORT $LN2@iwm_comman

; 552  : 		{
; 553  : 			ioUserEtcItem *pUserEtcItem =  g_MyInfo.GetUserEtcItem();

  0007d	53		 push	 ebx
  0007e	e8 00 00 00 00	 call	 ?GetSingleton@ioMyInfo@@SAAAV1@XZ ; ioMyInfo::GetSingleton
  00083	8b d8		 mov	 ebx, eax
  00085	81 c3 44 01 00
	00		 add	 ebx, 324		; 00000144H

; 554  : 			if( pUserEtcItem )

  0008b	74 53		 je	 SHORT $LN16@iwm_comman

; 555  : 			{
; 556  : 				ioEtcItem *pEtcItem = g_EtcItemMgr.FindEtcItem( m_dwEtcItemCode );

  0008d	8b 0d 00 00 00
	00		 mov	 ecx, DWORD PTR ?ms_Singleton@?$Singleton@VioEtcItemManager@@@@1PAVioEtcItemManager@@A ; Singleton<ioEtcItemManager>::ms_Singleton
  00093	57		 push	 edi
  00094	ff b6 ac 01 00
	00		 push	 DWORD PTR [esi+428]
  0009a	e8 00 00 00 00	 call	 ?FindEtcItem@ioEtcItemManager@@QAEPAVioEtcItem@@K@Z ; ioEtcItemManager::FindEtcItem
  0009f	8b f8		 mov	 edi, eax

; 557  : 				if( !pEtcItem )

  000a1	85 ff		 test	 edi, edi
  000a3	75 22		 jne	 SHORT $LN1@iwm_comman

; 558  : 				{
; 559  : 					LOG.PrintTimeAndLog( 0, "%s pEtcItem == NULL : %d", __FUNCTION__, m_dwEtcItemCode );

  000a5	ff b6 ac 01 00
	00		 push	 DWORD PTR [esi+428]
  000ab	68 00 00 00 00	 push	 OFFSET ??_C@_0CD@PEHGCOOB@ItemCompoundResultWnd?3?3iwm_comma@
  000b0	68 00 00 00 00	 push	 OFFSET ??_C@_0BJ@MBKFFGIH@?$CFs?5pEtcItem?5?$DN?$DN?5NULL?5?3?5?$CFd?$AA@
  000b5	50		 push	 eax
  000b6	ff 35 00 00 00
	00		 push	 DWORD PTR __imp_?LOG@@3VCLog@@A
  000bc	ff 15 00 00 00
	00		 call	 DWORD PTR __imp_?PrintTimeAndLog@CLog@@QAAXHPADZZ
  000c2	83 c4 14	 add	 esp, 20			; 00000014H

; 560  : 					return;

  000c5	eb 18		 jmp	 SHORT $LN17@iwm_comman
$LN1@iwm_comman:

; 561  : 				}
; 562  : 				HideWnd();

  000c7	8b ce		 mov	 ecx, esi
  000c9	ff 15 00 00 00
	00		 call	 DWORD PTR __imp_?HideWnd@ioWnd@@QAEXXZ

; 563  : 
; 564  : 				pEtcItem->OnUseBtnPush( m_dwEtcItemCode, pUserEtcItem );

  000cf	8b 07		 mov	 eax, DWORD PTR [edi]
  000d1	6a 01		 push	 1
  000d3	53		 push	 ebx
  000d4	ff b6 ac 01 00
	00		 push	 DWORD PTR [esi+428]
  000da	8b cf		 mov	 ecx, edi
  000dc	ff 50 20	 call	 DWORD PTR [eax+32]
$LN17@iwm_comman:
  000df	5f		 pop	 edi
$LN16@iwm_comman:
  000e0	5b		 pop	 ebx
$LN2@iwm_comman:
  000e1	5e		 pop	 esi

; 565  : 			}
; 566  : 		}
; 567  : 		break;
; 568  : 	}
; 569  : }

  000e2	5d		 pop	 ebp
  000e3	c2 0c 00	 ret	 12			; 0000000cH
?iwm_command@ItemCompoundResultWnd@@UAEXPAVioWnd@@HK@Z ENDP ; ItemCompoundResultWnd::iwm_command
_TEXT	ENDS
PUBLIC	?PrintManual@ItemCompoundResultWnd@@IAEXHHM@Z	; ItemCompoundResultWnd::PrintManual
;	COMDAT xdata$x
; File d:\lost saga for developer\youtube\tutorial\source\src\lsclient\ioetcitem.h
xdata$x	SEGMENT
__unwindtable$?PrintManual@ItemCompoundResultWnd@@IAEXHHM@Z DD 0ffffffffH
	DD	FLAT:__unwindfunclet$?PrintManual@ItemCompoundResultWnd@@IAEXHHM@Z$0
__ehfuncinfo$?PrintManual@ItemCompoundResultWnd@@IAEXHHM@Z DD 019930522H
	DD	01H
	DD	FLAT:__unwindtable$?PrintManual@ItemCompoundResultWnd@@IAEXHHM@Z
	DD	2 DUP(00H)
	DD	2 DUP(00H)
	DD	00H
	DD	01H
; Function compile flags: /Ogsp
; File d:\lost saga for developer\youtube\tutorial\source\src\lsclient\gui\itemcompoundresultwnd.cpp
xdata$x	ENDS
;	COMDAT ?PrintManual@ItemCompoundResultWnd@@IAEXHHM@Z
_TEXT	SEGMENT
_kPrinter$ = -48					; size = 32
_iMaxLine$ = -16					; size = 4
__$EHRec$ = -12						; size = 12
tv196 = 8						; size = 4
_a_iXPos$ = 8						; size = 4
_a_iYPos$ = 12						; size = 4
_fScale$ = 16						; size = 4
?PrintManual@ItemCompoundResultWnd@@IAEXHHM@Z PROC	; ItemCompoundResultWnd::PrintManual, COMDAT
; _this$ = ecx

; 572  : {

  00000	6a 24		 push	 36			; 00000024H
  00002	b8 00 00 00 00	 mov	 eax, __ehhandler$?PrintManual@ItemCompoundResultWnd@@IAEXHHM@Z
  00007	e8 00 00 00 00	 call	 __EH_prolog3
  0000c	8b f1		 mov	 esi, ecx

; 573  : 	if( !m_pManual )

  0000e	83 be 70 01 00
	00 00		 cmp	 DWORD PTR [esi+368], 0
  00015	0f 84 c9 00 00
	00		 je	 $LN6@PrintManua@2

; 574  : 		return;
; 575  : 
; 576  : 	ioEtcItem *pItem = NULL;
; 577  : 	pItem = g_EtcItemMgr.FindEtcItem( m_dwEtcItemCode );

  0001b	ff b6 ac 01 00
	00		 push	 DWORD PTR [esi+428]
  00021	8b 0d 00 00 00
	00		 mov	 ecx, DWORD PTR ?ms_Singleton@?$Singleton@VioEtcItemManager@@@@1PAVioEtcItemManager@@A ; Singleton<ioEtcItemManager>::ms_Singleton
  00027	e8 00 00 00 00	 call	 ?FindEtcItem@ioEtcItemManager@@QAEPAVioEtcItem@@K@Z ; ioEtcItemManager::FindEtcItem

; 578  : 
; 579  : 	if( !pItem ) return;

  0002c	85 c0		 test	 eax, eax
  0002e	0f 84 b0 00 00
	00		 je	 $LN6@PrintManua@2

; 580  : 
; 581  : 	int iSubManual = pItem->GetInventorySubManual() - 1;

  00034	8b 78 4c	 mov	 edi, DWORD PTR [eax+76]

; 582  : 	ioComplexStringPrinter kPrinter;

  00037	8d 4d d0	 lea	 ecx, DWORD PTR _kPrinter$[ebp]
  0003a	4f		 dec	 edi
  0003b	e8 00 00 00 00	 call	 ??0ioComplexStringPrinter@@QAE@XZ ; ioComplexStringPrinter::ioComplexStringPrinter

; 583  : 	int iMaxLine = m_pManual->GetMaxLine( iSubManual );

  00040	8b 8e 70 01 00
	00		 mov	 ecx, DWORD PTR [esi+368]
  00046	8b 01		 mov	 eax, DWORD PTR [ecx]
  00048	83 65 fc 00	 and	 DWORD PTR __$EHRec$[ebp+8], 0
  0004c	57		 push	 edi
  0004d	ff 50 08	 call	 DWORD PTR [eax+8]

; 584  : 	for(int iLine = 1; iLine < iMaxLine; iLine++)

  00050	33 db		 xor	 ebx, ebx
  00052	43		 inc	 ebx
  00053	89 45 f0	 mov	 DWORD PTR _iMaxLine$[ebp], eax
  00056	3b c3		 cmp	 eax, ebx
  00058	7e 7e		 jle	 SHORT $LN1@PrintManua@2
  0005a	66 0f 6e 45 08	 movd	 xmm0, DWORD PTR _a_iXPos$[ebp]
  0005f	0f 5b c0	 cvtdq2ps xmm0, xmm0
  00062	f3 0f 11 45 08	 movss	 DWORD PTR tv196[ebp], xmm0
$LL3@PrintManua@2:

; 585  : 	{
; 586  : 		m_pManual->SetPrinter( iSubManual, iLine, fScale, kPrinter);

  00067	8b 8e 70 01 00
	00		 mov	 ecx, DWORD PTR [esi+368]
  0006d	f3 0f 10 45 10	 movss	 xmm0, DWORD PTR _fScale$[ebp]
  00072	8b 01		 mov	 eax, DWORD PTR [ecx]
  00074	8d 55 d0	 lea	 edx, DWORD PTR _kPrinter$[ebp]
  00077	52		 push	 edx
  00078	51		 push	 ecx
  00079	f3 0f 11 04 24	 movss	 DWORD PTR [esp], xmm0
  0007e	53		 push	 ebx
  0007f	57		 push	 edi
  00080	ff 50 10	 call	 DWORD PTR [eax+16]

; 587  : 		a_iYPos += m_pManual->GetSpaceLine( iSubManual, iLine);

  00083	8b 8e 70 01 00
	00		 mov	 ecx, DWORD PTR [esi+368]
  00089	8b 01		 mov	 eax, DWORD PTR [ecx]
  0008b	53		 push	 ebx
  0008c	57		 push	 edi
  0008d	ff 50 0c	 call	 DWORD PTR [eax+12]

; 588  : 		kPrinter.PrintFullTextWidthCut( a_iXPos, a_iYPos, TAT_LEFT, DESC_WIDTH );

  00090	f3 0f 10 05 00
	00 00 00	 movss	 xmm0, DWORD PTR __real@434c0000
  00098	01 45 0c	 add	 DWORD PTR _a_iYPos$[ebp], eax
  0009b	68 ff 00 00 00	 push	 255			; 000000ffH
  000a0	51		 push	 ecx
  000a1	f3 0f 11 04 24	 movss	 DWORD PTR [esp], xmm0
  000a6	66 0f 6e 45 0c	 movd	 xmm0, DWORD PTR _a_iYPos$[ebp]
  000ab	6a 00		 push	 0
  000ad	51		 push	 ecx
  000ae	51		 push	 ecx
  000af	0f 5b c0	 cvtdq2ps xmm0, xmm0
  000b2	f3 0f 11 44 24
	04		 movss	 DWORD PTR [esp+4], xmm0
  000b8	f3 0f 10 45 08	 movss	 xmm0, DWORD PTR tv196[ebp]
  000bd	8d 4d d0	 lea	 ecx, DWORD PTR _kPrinter$[ebp]
  000c0	f3 0f 11 04 24	 movss	 DWORD PTR [esp], xmm0
  000c5	e8 00 00 00 00	 call	 ?PrintFullTextWidthCut@ioComplexStringPrinter@@QAEXMMW4TextAlignType@@ME@Z ; ioComplexStringPrinter::PrintFullTextWidthCut

; 589  : 		kPrinter.ClearList();

  000ca	8d 4d d0	 lea	 ecx, DWORD PTR _kPrinter$[ebp]
  000cd	e8 00 00 00 00	 call	 ?ClearList@ioComplexStringPrinter@@QAEXXZ ; ioComplexStringPrinter::ClearList
  000d2	43		 inc	 ebx
  000d3	3b 5d f0	 cmp	 ebx, DWORD PTR _iMaxLine$[ebp]
  000d6	7c 8f		 jl	 SHORT $LL3@PrintManua@2
$LN1@PrintManua@2:

; 590  : 	}
; 591  : }

  000d8	83 4d fc ff	 or	 DWORD PTR __$EHRec$[ebp+8], -1
  000dc	8d 4d d0	 lea	 ecx, DWORD PTR _kPrinter$[ebp]
  000df	e8 00 00 00 00	 call	 ??1ioComplexStringPrinter@@QAE@XZ ; ioComplexStringPrinter::~ioComplexStringPrinter
$LN6@PrintManua@2:
  000e4	e8 00 00 00 00	 call	 __EH_epilog3
  000e9	c2 0c 00	 ret	 12			; 0000000cH
_TEXT	ENDS
;	COMDAT text$x
text$x	SEGMENT
__unwindfunclet$?PrintManual@ItemCompoundResultWnd@@IAEXHHM@Z$0:
  00000	8d 4d d0	 lea	 ecx, DWORD PTR _kPrinter$[ebp]
  00003	e9 00 00 00 00	 jmp	 ??1ioComplexStringPrinter@@QAE@XZ ; ioComplexStringPrinter::~ioComplexStringPrinter
__ehhandler$?PrintManual@ItemCompoundResultWnd@@IAEXHHM@Z:
  00008	8b 54 24 08	 mov	 edx, DWORD PTR [esp+8]
  0000c	8d 42 0c	 lea	 eax, DWORD PTR [edx+12]
  0000f	8b 4a cc	 mov	 ecx, DWORD PTR [edx-52]
  00012	33 c8		 xor	 ecx, eax
  00014	e8 00 00 00 00	 call	 @__security_check_cookie@4
  00019	b8 00 00 00 00	 mov	 eax, OFFSET __ehfuncinfo$?PrintManual@ItemCompoundResultWnd@@IAEXHHM@Z
  0001e	e9 00 00 00 00	 jmp	 ___CxxFrameHandler3
text$x	ENDS
?PrintManual@ItemCompoundResultWnd@@IAEXHHM@Z ENDP	; ItemCompoundResultWnd::PrintManual
PUBLIC	?RollingEffect@ItemCompoundResultWnd@@IAEXM@Z	; ItemCompoundResultWnd::RollingEffect
EXTRN	__imp_?CreateImageByFullName@ioUIImageSetManager@@QAEPAVioUIRenderImage@@ABVioHashString@@_N@Z:PROC
EXTRN	__imp_?GetSingleton@ioUIImageSetManager@@SAAAV1@XZ:PROC
EXTRN	__imp_??4ioHashString@@QAEAAV0@ABV0@@Z:PROC
EXTRN	__imp_??0ioHashString@@QAE@XZ:PROC
EXTRN	__imp_?GetLoopSec@ioFrameTimer@@QBEKXZ:PROC
EXTRN	__imp_?GetSingleton@ioFrameTimer@@SAAAV1@XZ:PROC
;	COMDAT xdata$x
; File c:\program files (x86)\microsoft visual studio 10.0\vc\include\vector
xdata$x	SEGMENT
__unwindtable$?RollingEffect@ItemCompoundResultWnd@@IAEXM@Z DD 0ffffffffH
	DD	FLAT:__unwindfunclet$?RollingEffect@ItemCompoundResultWnd@@IAEXM@Z$0
	DD	0ffffffffH
	DD	FLAT:__unwindfunclet$?RollingEffect@ItemCompoundResultWnd@@IAEXM@Z$1
__ehfuncinfo$?RollingEffect@ItemCompoundResultWnd@@IAEXM@Z DD 019930522H
	DD	02H
	DD	FLAT:__unwindtable$?RollingEffect@ItemCompoundResultWnd@@IAEXM@Z
	DD	2 DUP(00H)
	DD	2 DUP(00H)
	DD	00H
	DD	01H
; Function compile flags: /Ogsp
; File d:\lost saga for developer\youtube\tutorial\source\src\lsclient\gui\itemcompoundresultwnd.cpp
xdata$x	ENDS
;	COMDAT ?RollingEffect@ItemCompoundResultWnd@@IAEXM@Z
_TEXT	SEGMENT
_szEffect$510905 = -48					; size = 16
_szEffect$510893 = -32					; size = 16
_dwCurTime$ = -16					; size = 4
__$EHRec$ = -12						; size = 12
_fTimePerSec$ = 8					; size = 4
?RollingEffect@ItemCompoundResultWnd@@IAEXM@Z PROC	; ItemCompoundResultWnd::RollingEffect, COMDAT
; _this$ = ecx

; 594  : {

  00000	6a 24		 push	 36			; 00000024H
  00002	b8 00 00 00 00	 mov	 eax, __ehhandler$?RollingEffect@ItemCompoundResultWnd@@IAEXM@Z
  00007	e8 00 00 00 00	 call	 __EH_prolog3
  0000c	8b f1		 mov	 esi, ecx

; 595  : 	DWORD dwCurTime = FRAMEGETTIME();

  0000e	ff 15 00 00 00
	00		 call	 DWORD PTR __imp_?GetSingleton@ioFrameTimer@@SAAAV1@XZ
  00014	8b c8		 mov	 ecx, eax
  00016	ff 15 00 00 00
	00		 call	 DWORD PTR __imp_?GetLoopSec@ioFrameTimer@@QBEKXZ

; 596  : 
; 597  : 	int iEffectListCnt = m_vRollingEffect.size();

  0001c	8b be 80 01 00
	00		 mov	 edi, DWORD PTR [esi+384]
  00022	2b be 7c 01 00
	00		 sub	 edi, DWORD PTR [esi+380]

; 598  : 	if( m_bResult )

  00028	8a 8e b0 01 00
	00		 mov	 cl, BYTE PTR [esi+432]
  0002e	c1 ff 04	 sar	 edi, 4
  00031	89 45 f0	 mov	 DWORD PTR _dwCurTime$[ebp], eax
  00034	84 c9		 test	 cl, cl
  00036	74 26		 je	 SHORT $LN21@RollingEff

; 599  : 	{
; 600  : 		if( m_bSuccess )

  00038	80 be b1 01 00
	00 00		 cmp	 BYTE PTR [esi+433], 0
  0003f	74 0e		 je	 SHORT $LN22@RollingEff

; 601  : 			iEffectListCnt = m_vEndEfffect_S.size();

  00041	8b be 90 01 00
	00		 mov	 edi, DWORD PTR [esi+400]
  00047	2b be 8c 01 00
	00		 sub	 edi, DWORD PTR [esi+396]

; 602  : 		else

  0004d	eb 0c		 jmp	 SHORT $LN49@RollingEff
$LN22@RollingEff:

; 603  : 			iEffectListCnt = m_vEndEfffect_F.size();

  0004f	8b be a0 01 00
	00		 mov	 edi, DWORD PTR [esi+416]
  00055	2b be 9c 01 00
	00		 sub	 edi, DWORD PTR [esi+412]
$LN49@RollingEff:
  0005b	c1 ff 04	 sar	 edi, 4
$LN21@RollingEff:

; 604  : 	}
; 605  : 
; 606  : 	if( iEffectListCnt == 0 )

  0005e	33 db		 xor	 ebx, ebx
  00060	3b fb		 cmp	 edi, ebx
  00062	75 20		 jne	 SHORT $LN20@RollingEff
$LN52@RollingEff:

; 607  : 	{
; 608  : 		SAFEDELETE( m_pEffect );

  00064	8b 8e 64 01 00
	00		 mov	 ecx, DWORD PTR [esi+356]
  0006a	3b cb		 cmp	 ecx, ebx
  0006c	0f 84 7a 01 00
	00		 je	 $LN6@RollingEff
  00072	8b 01		 mov	 eax, DWORD PTR [ecx]
  00074	6a 01		 push	 1
  00076	ff 50 40	 call	 DWORD PTR [eax+64]
  00079	89 9e 64 01 00
	00		 mov	 DWORD PTR [esi+356], ebx

; 609  : 		return;

  0007f	e9 68 01 00 00	 jmp	 $LN6@RollingEff
$LN20@RollingEff:

; 610  : 	}
; 611  : 
; 612  : 	if( m_bResult )

  00084	84 c9		 test	 cl, cl
  00086	0f 84 b9 00 00
	00		 je	 $LN18@RollingEff

; 613  : 	{
; 614  : 		if( m_iCurEffectArray == iEffectListCnt-1 )

  0008c	8d 47 ff	 lea	 eax, DWORD PTR [edi-1]
  0008f	39 86 f0 01 00
	00		 cmp	 DWORD PTR [esi+496], eax

; 615  : 		{
; 616  : 			SAFEDELETE( m_pEffect );
; 617  : 			return;

  00095	74 cd		 je	 SHORT $LN52@RollingEff

; 618  : 		}
; 619  : 
; 620  : 		if( m_dwRollingEffectCheckTime == 0 || dwCurTime - m_dwRollingEffectCheckTime > m_dwRollingEffectTime )		// 

  00097	8b 86 f8 01 00
	00		 mov	 eax, DWORD PTR [esi+504]
  0009d	3b c3		 cmp	 eax, ebx
  0009f	74 11		 je	 SHORT $LN14@RollingEff
  000a1	8b 4d f0	 mov	 ecx, DWORD PTR _dwCurTime$[ebp]
  000a4	2b c8		 sub	 ecx, eax
  000a6	3b 8e f4 01 00
	00		 cmp	 ecx, DWORD PTR [esi+500]
  000ac	0f 86 3a 01 00
	00		 jbe	 $LN6@RollingEff
$LN14@RollingEff:

; 621  : 		{
; 622  : 			SAFEDELETE( m_pEffect );

  000b2	8b 8e 64 01 00
	00		 mov	 ecx, DWORD PTR [esi+356]
  000b8	3b cb		 cmp	 ecx, ebx
  000ba	74 0d		 je	 SHORT $LN13@RollingEff
  000bc	8b 01		 mov	 eax, DWORD PTR [ecx]
  000be	6a 01		 push	 1
  000c0	ff 50 40	 call	 DWORD PTR [eax+64]
  000c3	89 9e 64 01 00
	00		 mov	 DWORD PTR [esi+356], ebx
$LN13@RollingEff:

; 623  : 
; 624  : 			m_iCurEffectArray++;

  000c9	ff 86 f0 01 00
	00		 inc	 DWORD PTR [esi+496]
  000cf	8b 86 f0 01 00
	00		 mov	 eax, DWORD PTR [esi+496]

; 625  : 
; 626  : 			if( !COMPARE( m_iCurEffectArray, 0, iEffectListCnt ) )

  000d5	78 04		 js	 SHORT $LN11@RollingEff
  000d7	3b c7		 cmp	 eax, edi
  000d9	7c 06		 jl	 SHORT $LN12@RollingEff
$LN11@RollingEff:

; 627  : 				m_iCurEffectArray = 0;

  000db	89 9e f0 01 00
	00		 mov	 DWORD PTR [esi+496], ebx
$LN12@RollingEff:

; 628  : 
; 629  : 			ioHashString szEffect;

  000e1	8d 4d e0	 lea	 ecx, DWORD PTR _szEffect$510893[ebp]
  000e4	ff 15 00 00 00
	00		 call	 DWORD PTR __imp_??0ioHashString@@QAE@XZ

; 630  : 			if( m_bSuccess )
; 631  : 				szEffect = m_vEndEfffect_S[m_iCurEffectArray];

  000ea	8b 86 f0 01 00
	00		 mov	 eax, DWORD PTR [esi+496]
  000f0	c1 e0 04	 shl	 eax, 4
  000f3	80 be b1 01 00
	00 00		 cmp	 BYTE PTR [esi+433], 0
  000fa	89 5d fc	 mov	 DWORD PTR __$EHRec$[ebp+8], ebx
  000fd	8d 4d e0	 lea	 ecx, DWORD PTR _szEffect$510893[ebp]
  00100	74 08		 je	 SHORT $LN10@RollingEff
  00102	03 86 8c 01 00
	00		 add	 eax, DWORD PTR [esi+396]

; 632  : 			else

  00108	eb 06		 jmp	 SHORT $LN50@RollingEff
$LN10@RollingEff:

; 633  : 				szEffect = m_vEndEfffect_F[m_iCurEffectArray];

  0010a	03 86 9c 01 00
	00		 add	 eax, DWORD PTR [esi+412]
$LN50@RollingEff:
  00110	50		 push	 eax
  00111	ff 15 00 00 00
	00		 call	 DWORD PTR __imp_??4ioHashString@@QAEAAV0@ABV0@@Z

; 634  : 
; 635  : 
; 636  : 			if( !szEffect.IsEmpty() )

  00117	8d 4d e0	 lea	 ecx, DWORD PTR _szEffect$510893[ebp]
  0011a	ff 15 00 00 00
	00		 call	 DWORD PTR __imp_?IsEmpty@ioHashString@@QBE_NXZ
  00120	84 c0		 test	 al, al
  00122	75 19		 jne	 SHORT $LN8@RollingEff

; 637  : 			{
; 638  : 				m_pEffect = g_UIImageSetMgr.CreateImageByFullName( szEffect );

  00124	8d 45 e0	 lea	 eax, DWORD PTR _szEffect$510893[ebp]
  00127	53		 push	 ebx
  00128	50		 push	 eax
  00129	ff 15 00 00 00
	00		 call	 DWORD PTR __imp_?GetSingleton@ioUIImageSetManager@@SAAAV1@XZ
  0012f	8b c8		 mov	 ecx, eax
  00131	ff 15 00 00 00
	00		 call	 DWORD PTR __imp_?CreateImageByFullName@ioUIImageSetManager@@QAEPAVioUIRenderImage@@ABVioHashString@@_N@Z
  00137	89 86 64 01 00
	00		 mov	 DWORD PTR [esi+356], eax
$LN8@RollingEff:

; 639  : 			}
; 640  : 
; 641  : 			m_dwRollingEffectCheckTime = dwCurTime;
; 642  : 		}

  0013d	8d 4d e0	 lea	 ecx, DWORD PTR _szEffect$510893[ebp]

; 643  : 	}
; 644  : 	else

  00140	e9 94 00 00 00	 jmp	 $LN51@RollingEff
$LN18@RollingEff:

; 645  : 	{
; 646  : 		if( m_dwRollingEffectCheckTime == 0 || dwCurTime - m_dwRollingEffectCheckTime > m_dwRollingEffectTime )		// 

  00145	8b 86 f8 01 00
	00		 mov	 eax, DWORD PTR [esi+504]
  0014b	3b c3		 cmp	 eax, ebx
  0014d	74 11		 je	 SHORT $LN5@RollingEff
  0014f	8b 4d f0	 mov	 ecx, DWORD PTR _dwCurTime$[ebp]
  00152	2b c8		 sub	 ecx, eax
  00154	3b 8e f4 01 00
	00		 cmp	 ecx, DWORD PTR [esi+500]
  0015a	0f 86 8c 00 00
	00		 jbe	 $LN6@RollingEff
$LN5@RollingEff:

; 647  : 		{
; 648  : 			SAFEDELETE( m_pEffect );

  00160	8b 8e 64 01 00
	00		 mov	 ecx, DWORD PTR [esi+356]
  00166	33 db		 xor	 ebx, ebx
  00168	43		 inc	 ebx
  00169	85 c9		 test	 ecx, ecx
  0016b	74 0d		 je	 SHORT $LN4@RollingEff
  0016d	8b 01		 mov	 eax, DWORD PTR [ecx]
  0016f	53		 push	 ebx
  00170	ff 50 40	 call	 DWORD PTR [eax+64]
  00173	83 a6 64 01 00
	00 00		 and	 DWORD PTR [esi+356], 0
$LN4@RollingEff:

; 649  : 
; 650  : 			m_iCurEffectArray++;

  0017a	ff 86 f0 01 00
	00		 inc	 DWORD PTR [esi+496]
  00180	8b 8e f0 01 00
	00		 mov	 ecx, DWORD PTR [esi+496]

; 651  : 
; 652  : 			if( !COMPARE( m_iCurEffectArray, 0, iEffectListCnt ) )

  00186	78 04		 js	 SHORT $LN2@RollingEff
  00188	3b cf		 cmp	 ecx, edi
  0018a	7c 07		 jl	 SHORT $LN3@RollingEff
$LN2@RollingEff:

; 653  : 				m_iCurEffectArray = 0;

  0018c	83 a6 f0 01 00
	00 00		 and	 DWORD PTR [esi+496], 0
$LN3@RollingEff:

; 654  : 
; 655  : 			ioHashString szEffect = m_vRollingEffect[m_iCurEffectArray];

  00193	8b 86 f0 01 00
	00		 mov	 eax, DWORD PTR [esi+496]
  00199	c1 e0 04	 shl	 eax, 4
  0019c	03 86 7c 01 00
	00		 add	 eax, DWORD PTR [esi+380]
  001a2	8d 4d d0	 lea	 ecx, DWORD PTR _szEffect$510905[ebp]
  001a5	50		 push	 eax
  001a6	ff 15 00 00 00
	00		 call	 DWORD PTR __imp_??0ioHashString@@QAE@ABV0@@Z

; 656  : 
; 657  : 			if( !szEffect.IsEmpty() )

  001ac	8d 4d d0	 lea	 ecx, DWORD PTR _szEffect$510905[ebp]
  001af	89 5d fc	 mov	 DWORD PTR __$EHRec$[ebp+8], ebx
  001b2	ff 15 00 00 00
	00		 call	 DWORD PTR __imp_?IsEmpty@ioHashString@@QBE_NXZ
  001b8	84 c0		 test	 al, al
  001ba	75 1a		 jne	 SHORT $LN1@RollingEff

; 658  : 			{
; 659  : 				m_pEffect = g_UIImageSetMgr.CreateImageByFullName( szEffect );

  001bc	8d 45 d0	 lea	 eax, DWORD PTR _szEffect$510905[ebp]
  001bf	6a 00		 push	 0
  001c1	50		 push	 eax
  001c2	ff 15 00 00 00
	00		 call	 DWORD PTR __imp_?GetSingleton@ioUIImageSetManager@@SAAAV1@XZ
  001c8	8b c8		 mov	 ecx, eax
  001ca	ff 15 00 00 00
	00		 call	 DWORD PTR __imp_?CreateImageByFullName@ioUIImageSetManager@@QAEPAVioUIRenderImage@@ABVioHashString@@_N@Z
  001d0	89 86 64 01 00
	00		 mov	 DWORD PTR [esi+356], eax
$LN1@RollingEff:

; 663  : 		}

  001d6	8d 4d d0	 lea	 ecx, DWORD PTR _szEffect$510905[ebp]
$LN51@RollingEff:

; 660  : 			}
; 661  : 
; 662  : 			m_dwRollingEffectCheckTime = dwCurTime;

  001d9	8b 45 f0	 mov	 eax, DWORD PTR _dwCurTime$[ebp]

; 663  : 		}

  001dc	83 4d fc ff	 or	 DWORD PTR __$EHRec$[ebp+8], -1
  001e0	89 86 f8 01 00
	00		 mov	 DWORD PTR [esi+504], eax
  001e6	ff 15 00 00 00
	00		 call	 DWORD PTR __imp_??1ioHashString@@QAE@XZ
$LN6@RollingEff:

; 664  : 	}
; 665  : }

  001ec	e8 00 00 00 00	 call	 __EH_epilog3
  001f1	c2 04 00	 ret	 4
_TEXT	ENDS
;	COMDAT text$x
text$x	SEGMENT
__unwindfunclet$?RollingEffect@ItemCompoundResultWnd@@IAEXM@Z$0:
  00000	8d 4d e0	 lea	 ecx, DWORD PTR _szEffect$510893[ebp]
  00003	ff 25 00 00 00
	00		 jmp	 DWORD PTR __imp_??1ioHashString@@QAE@XZ
__unwindfunclet$?RollingEffect@ItemCompoundResultWnd@@IAEXM@Z$1:
  00009	8d 4d d0	 lea	 ecx, DWORD PTR _szEffect$510905[ebp]
  0000c	ff 25 00 00 00
	00		 jmp	 DWORD PTR __imp_??1ioHashString@@QAE@XZ
__ehhandler$?RollingEffect@ItemCompoundResultWnd@@IAEXM@Z:
  00012	8b 54 24 08	 mov	 edx, DWORD PTR [esp+8]
  00016	8d 42 0c	 lea	 eax, DWORD PTR [edx+12]
  00019	8b 4a cc	 mov	 ecx, DWORD PTR [edx-52]
  0001c	33 c8		 xor	 ecx, eax
  0001e	e8 00 00 00 00	 call	 @__security_check_cookie@4
  00023	b8 00 00 00 00	 mov	 eax, OFFSET __ehfuncinfo$?RollingEffect@ItemCompoundResultWnd@@IAEXM@Z
  00028	e9 00 00 00 00	 jmp	 ___CxxFrameHandler3
text$x	ENDS
?RollingEffect@ItemCompoundResultWnd@@IAEXM@Z ENDP	; ItemCompoundResultWnd::RollingEffect
PUBLIC	??_R0?AVioButton@@@8				; ioButton `RTTI Type Descriptor'
PUBLIC	?ReBatchButton@ItemCompoundResultWnd@@IAEXH@Z	; ItemCompoundResultWnd::ReBatchButton
EXTRN	__imp_?SetChildInActive@ioWnd@@QAEXK@Z:PROC
EXTRN	__imp_?ShowChildWnd@ioWnd@@QAEXK_N@Z:PROC
EXTRN	?GetEtcItem@ioUserEtcItem@@QAE_NHAAUETCITEMSLOT@1@@Z:PROC ; ioUserEtcItem::GetEtcItem
EXTRN	__imp_?ShowWnd@ioWnd@@QAEXXZ:PROC
EXTRN	__imp_?SetOffset@ioUITitle@@QAEXHH@Z:PROC
EXTRN	__imp_?GetTextYOffSet@ioUITitle@@QBEHXZ:PROC
EXTRN	__imp_?GetTitle@ioWnd@@QBEPAVioUITitle@@XZ:PROC
EXTRN	__imp_?SetWndPos@ioWnd@@QAEXHH@Z:PROC
EXTRN	__imp_?GetYPos@ioWnd@@QBEHXZ:PROC
EXTRN	__imp_?GetHeight@ioWnd@@QBEHXZ:PROC
EXTRN	__imp_?FindChildWnd@ioWnd@@QAEPAV1@K@Z:PROC
EXTRN	__imp_?HideChildWnd@ioWnd@@QAEXK_N@Z:PROC
;	COMDAT ??_R0?AVioButton@@@8
; File d:\lost saga for developer\youtube\tutorial\source\src\lsclient\iouseretcitem.h
_DATA	SEGMENT
??_R0?AVioButton@@@8 DD FLAT:??_7type_info@@6B@		; ioButton `RTTI Type Descriptor'
	DD	00H
	DB	'.?AVioButton@@', 00H
; Function compile flags: /Ogsp
; File d:\lost saga for developer\youtube\tutorial\source\src\lsclient\gui\itemcompoundresultwnd.cpp
_DATA	ENDS
;	COMDAT ?ReBatchButton@ItemCompoundResultWnd@@IAEXH@Z
_TEXT	SEGMENT
_kSlot$510931 = -16					; size = 12
_this$ = -4						; size = 4
tv467 = 8						; size = 4
_pTitle$510942 = 8					; size = 4
_iType$ = 8						; size = 4
?ReBatchButton@ItemCompoundResultWnd@@IAEXH@Z PROC	; ItemCompoundResultWnd::ReBatchButton, COMDAT
; _this$ = ecx

; 668  : {

  00000	55		 push	 ebp
  00001	8b ec		 mov	 ebp, esp
  00003	83 ec 10	 sub	 esp, 16			; 00000010H

; 669  : 	enum
; 670  : 	{
; 671  : 		ONE_BTN_SIZE	= 204,
; 672  : 		TWO_BTN_SIZE	= 102,
; 673  : 
; 674  : 		ONE_BTN_X		= 27,
; 675  : 		TWO_BTN_X		= 131,
; 676  : 
; 677  : 		ONE_TEXT_X		= 102,
; 678  : 		TWO_TEXT_X		= 51,
; 679  : 	};
; 680  : 
; 681  : 	switch( iType )

  00006	8b 45 08	 mov	 eax, DWORD PTR _iType$[ebp]
  00009	48		 dec	 eax
  0000a	53		 push	 ebx
  0000b	56		 push	 esi
  0000c	8b d9		 mov	 ebx, ecx
  0000e	57		 push	 edi
  0000f	89 5d fc	 mov	 DWORD PTR _this$[ebp], ebx
  00012	0f 84 b8 01 00
	00		 je	 $LN13@ReBatchBut
  00018	48		 dec	 eax
  00019	0f 85 da 01 00
	00		 jne	 $LN14@ReBatchBut

; 689  : 		break;
; 690  : 	case RESULT_BTN:
; 691  : 		HideChildWnd(ID_ROLLING);

  0001f	8b 3d 00 00 00
	00		 mov	 edi, DWORD PTR __imp_?HideChildWnd@ioWnd@@QAEXK_N@Z
  00025	33 f6		 xor	 esi, esi
  00027	56		 push	 esi
  00028	6a 01		 push	 1
  0002a	ff d7		 call	 edi

; 692  : 		HideChildWnd(ID_USE);

  0002c	56		 push	 esi
  0002d	6a 02		 push	 2
  0002f	8b cb		 mov	 ecx, ebx
  00031	ff d7		 call	 edi

; 693  : 		HideChildWnd(ID_GO);

  00033	56		 push	 esi
  00034	6a 03		 push	 3
  00036	8b cb		 mov	 ecx, ebx
  00038	ff d7		 call	 edi

; 694  : 
; 695  : 		// 
; 696  : 		ioUserEtcItem *pUserEtcItem = g_MyInfo.GetUserEtcItem();

  0003a	e8 00 00 00 00	 call	 ?GetSingleton@ioMyInfo@@SAAAV1@XZ ; ioMyInfo::GetSingleton
  0003f	05 44 01 00 00	 add	 eax, 324		; 00000144H

; 697  : 		if( !pUserEtcItem )

  00044	75 7f		 jne	 SHORT $LN11@ReBatchBut

; 698  : 		{
; 699  : 			ioButton *pButton = dynamic_cast<ioButton*>(FindChildWnd(ID_GO));

  00046	56		 push	 esi
  00047	68 00 00 00 00	 push	 OFFSET ??_R0?AVioButton@@@8
  0004c	68 00 00 00 00	 push	 OFFSET ??_R0?AVioWnd@@@8
  00051	56		 push	 esi
  00052	8b cb		 mov	 ecx, ebx
$LN24@ReBatchBut:
  00054	6a 03		 push	 3
  00056	ff 15 00 00 00
	00		 call	 DWORD PTR __imp_?FindChildWnd@ioWnd@@QAEPAV1@K@Z
  0005c	50		 push	 eax
  0005d	e8 00 00 00 00	 call	 ___RTDynamicCast
  00062	8b f8		 mov	 edi, eax
  00064	83 c4 14	 add	 esp, 20			; 00000014H

; 700  : 			if( pButton )

  00067	3b fe		 cmp	 edi, esi
  00069	0f 84 8a 01 00
	00		 je	 $LN14@ReBatchBut

; 701  : 			{
; 702  : 				pButton->SetSize( ONE_BTN_SIZE, pButton->GetHeight() );

  0006f	8b 1f		 mov	 ebx, DWORD PTR [edi]
  00071	8b cf		 mov	 ecx, edi
  00073	ff 15 00 00 00
	00		 call	 DWORD PTR __imp_?GetHeight@ioWnd@@QBEHXZ
  00079	50		 push	 eax
  0007a	68 cc 00 00 00	 push	 204			; 000000ccH
  0007f	8b cf		 mov	 ecx, edi
  00081	ff 53 2c	 call	 DWORD PTR [ebx+44]

; 703  : 				pButton->SetWndPos( ONE_BTN_X, pButton->GetYPos() );

  00084	8b cf		 mov	 ecx, edi
  00086	ff 15 00 00 00
	00		 call	 DWORD PTR __imp_?GetYPos@ioWnd@@QBEHXZ
  0008c	50		 push	 eax
  0008d	6a 1b		 push	 27			; 0000001bH
  0008f	8b cf		 mov	 ecx, edi
  00091	ff 15 00 00 00
	00		 call	 DWORD PTR __imp_?SetWndPos@ioWnd@@QAEXHH@Z

; 704  : 
; 705  : 				ioUITitle *pTitle =  pButton->GetTitle();

  00097	8b cf		 mov	 ecx, edi
  00099	ff 15 00 00 00
	00		 call	 DWORD PTR __imp_?GetTitle@ioWnd@@QBEPAVioUITitle@@XZ
  0009f	8b d8		 mov	 ebx, eax

; 706  : 				if( pTitle )

  000a1	3b de		 cmp	 ebx, esi
  000a3	74 13		 je	 SHORT $LN9@ReBatchBut

; 707  : 				{
; 708  : 					pTitle->SetOffset( ONE_TEXT_X, pTitle->GetTextYOffSet() );

  000a5	8b cb		 mov	 ecx, ebx
  000a7	ff 15 00 00 00
	00		 call	 DWORD PTR __imp_?GetTextYOffSet@ioUITitle@@QBEHXZ
  000ad	50		 push	 eax
  000ae	6a 66		 push	 102			; 00000066H
$LN22@ReBatchBut:
  000b0	8b cb		 mov	 ecx, ebx
  000b2	ff 15 00 00 00
	00		 call	 DWORD PTR __imp_?SetOffset@ioUITitle@@QAEXHH@Z
$LN9@ReBatchBut:

; 709  : 				}
; 710  : 
; 711  : 				pButton->ShowWnd();

  000b8	8b cf		 mov	 ecx, edi
  000ba	ff 15 00 00 00
	00		 call	 DWORD PTR __imp_?ShowWnd@ioWnd@@QAEXXZ

; 712  : 			}
; 713  : 			break;

  000c0	e9 34 01 00 00	 jmp	 $LN14@ReBatchBut
$LN11@ReBatchBut:

; 714  : 		}
; 715  : 
; 716  : 		ioUserEtcItem::ETCITEMSLOT kSlot;
; 717  : 		if( !pUserEtcItem->GetEtcItem( m_dwEtcItemCode, kSlot) )

  000c5	8d 4d f0	 lea	 ecx, DWORD PTR _kSlot$510931[ebp]
  000c8	51		 push	 ecx
  000c9	ff b3 ac 01 00
	00		 push	 DWORD PTR [ebx+428]
  000cf	8b c8		 mov	 ecx, eax
  000d1	89 75 f0	 mov	 DWORD PTR _kSlot$510931[ebp], esi
  000d4	89 75 f4	 mov	 DWORD PTR _kSlot$510931[ebp+4], esi
  000d7	89 75 f8	 mov	 DWORD PTR _kSlot$510931[ebp+8], esi
  000da	e8 00 00 00 00	 call	 ?GetEtcItem@ioUserEtcItem@@QAE_NHAAUETCITEMSLOT@1@@Z ; ioUserEtcItem::GetEtcItem

; 718  : 		{
; 719  : 			ioButton *pButton = dynamic_cast<ioButton*>(FindChildWnd(ID_GO));

  000df	56		 push	 esi
  000e0	68 00 00 00 00	 push	 OFFSET ??_R0?AVioButton@@@8
  000e5	68 00 00 00 00	 push	 OFFSET ??_R0?AVioWnd@@@8
  000ea	8b cb		 mov	 ecx, ebx
  000ec	56		 push	 esi
  000ed	84 c0		 test	 al, al

; 720  : 			if( pButton )
; 721  : 			{
; 722  : 				pButton->SetSize( ONE_BTN_SIZE, pButton->GetHeight() );
; 723  : 				pButton->SetWndPos( ONE_BTN_X, pButton->GetYPos() );
; 724  : 
; 725  : 				ioUITitle *pTitle =  pButton->GetTitle();
; 726  : 				if( pTitle )
; 727  : 				{
; 728  : 					pTitle->SetOffset( ONE_TEXT_X, pTitle->GetTextYOffSet() );
; 729  : 				}
; 730  : 
; 731  : 				pButton->ShowWnd();
; 732  : 			}
; 733  : 		}
; 734  : 		else

  000ef	0f 84 5f ff ff
	ff		 je	 $LN24@ReBatchBut

; 735  : 		{
; 736  : 			ioButton *pButton = dynamic_cast<ioButton*>(FindChildWnd(ID_USE));

  000f5	8b 1d 00 00 00
	00		 mov	 ebx, DWORD PTR __imp_?FindChildWnd@ioWnd@@QAEPAV1@K@Z
  000fb	6a 02		 push	 2
  000fd	ff d3		 call	 ebx
  000ff	50		 push	 eax
  00100	e8 00 00 00 00	 call	 ___RTDynamicCast
  00105	8b f8		 mov	 edi, eax
  00107	83 c4 14	 add	 esp, 20			; 00000014H

; 737  : 			if( pButton )

  0010a	3b fe		 cmp	 edi, esi
  0010c	74 56		 je	 SHORT $LN4@ReBatchBut

; 738  : 			{
; 739  : 				pButton->SetSize( TWO_BTN_SIZE, pButton->GetHeight() );

  0010e	8b 07		 mov	 eax, DWORD PTR [edi]
  00110	8b cf		 mov	 ecx, edi
  00112	89 45 08	 mov	 DWORD PTR tv467[ebp], eax
  00115	ff 15 00 00 00
	00		 call	 DWORD PTR __imp_?GetHeight@ioWnd@@QBEHXZ
  0011b	50		 push	 eax
  0011c	8b 45 08	 mov	 eax, DWORD PTR tv467[ebp]
  0011f	6a 66		 push	 102			; 00000066H
  00121	8b cf		 mov	 ecx, edi
  00123	ff 50 2c	 call	 DWORD PTR [eax+44]

; 740  : 				pButton->SetWndPos( ONE_BTN_X, pButton->GetYPos() );

  00126	8b cf		 mov	 ecx, edi
  00128	ff 15 00 00 00
	00		 call	 DWORD PTR __imp_?GetYPos@ioWnd@@QBEHXZ
  0012e	50		 push	 eax
  0012f	6a 1b		 push	 27			; 0000001bH
  00131	8b cf		 mov	 ecx, edi
  00133	ff 15 00 00 00
	00		 call	 DWORD PTR __imp_?SetWndPos@ioWnd@@QAEXHH@Z

; 741  : 
; 742  : 				ioUITitle *pTitle =  pButton->GetTitle();

  00139	8b cf		 mov	 ecx, edi
  0013b	ff 15 00 00 00
	00		 call	 DWORD PTR __imp_?GetTitle@ioWnd@@QBEPAVioUITitle@@XZ
  00141	8b c8		 mov	 ecx, eax
  00143	89 4d 08	 mov	 DWORD PTR _pTitle$510942[ebp], ecx

; 743  : 				if( pTitle )

  00146	3b ce		 cmp	 ecx, esi
  00148	74 12		 je	 SHORT $LN3@ReBatchBut

; 744  : 				{
; 745  : 					pTitle->SetOffset( TWO_TEXT_X, pTitle->GetTextYOffSet() );

  0014a	ff 15 00 00 00
	00		 call	 DWORD PTR __imp_?GetTextYOffSet@ioUITitle@@QBEHXZ
  00150	8b 4d 08	 mov	 ecx, DWORD PTR _pTitle$510942[ebp]
  00153	50		 push	 eax
  00154	6a 33		 push	 51			; 00000033H
  00156	ff 15 00 00 00
	00		 call	 DWORD PTR __imp_?SetOffset@ioUITitle@@QAEXHH@Z
$LN3@ReBatchBut:

; 746  : 				}
; 747  : 
; 748  : 				pButton->ShowWnd();

  0015c	8b cf		 mov	 ecx, edi
  0015e	ff 15 00 00 00
	00		 call	 DWORD PTR __imp_?ShowWnd@ioWnd@@QAEXXZ
$LN4@ReBatchBut:

; 749  : 			}
; 750  : 
; 751  : 			pButton = dynamic_cast<ioButton*>(FindChildWnd(ID_GO));

  00164	8b 4d fc	 mov	 ecx, DWORD PTR _this$[ebp]
  00167	56		 push	 esi
  00168	68 00 00 00 00	 push	 OFFSET ??_R0?AVioButton@@@8
  0016d	68 00 00 00 00	 push	 OFFSET ??_R0?AVioWnd@@@8
  00172	56		 push	 esi
  00173	6a 03		 push	 3
  00175	ff d3		 call	 ebx
  00177	50		 push	 eax
  00178	e8 00 00 00 00	 call	 ___RTDynamicCast
  0017d	8b f8		 mov	 edi, eax
  0017f	83 c4 14	 add	 esp, 20			; 00000014H

; 752  : 			if( pButton )

  00182	3b fe		 cmp	 edi, esi
  00184	74 73		 je	 SHORT $LN14@ReBatchBut

; 753  : 			{
; 754  : 				pButton->SetSize( TWO_BTN_SIZE, pButton->GetHeight() );

  00186	8b 1f		 mov	 ebx, DWORD PTR [edi]
  00188	8b cf		 mov	 ecx, edi
  0018a	ff 15 00 00 00
	00		 call	 DWORD PTR __imp_?GetHeight@ioWnd@@QBEHXZ
  00190	50		 push	 eax
  00191	6a 66		 push	 102			; 00000066H
  00193	8b cf		 mov	 ecx, edi
  00195	ff 53 2c	 call	 DWORD PTR [ebx+44]

; 755  : 				pButton->SetWndPos( TWO_BTN_X, pButton->GetYPos() );

  00198	8b cf		 mov	 ecx, edi
  0019a	ff 15 00 00 00
	00		 call	 DWORD PTR __imp_?GetYPos@ioWnd@@QBEHXZ
  001a0	50		 push	 eax
  001a1	68 83 00 00 00	 push	 131			; 00000083H
  001a6	8b cf		 mov	 ecx, edi
  001a8	ff 15 00 00 00
	00		 call	 DWORD PTR __imp_?SetWndPos@ioWnd@@QAEXHH@Z

; 756  : 
; 757  : 				ioUITitle *pTitle =  pButton->GetTitle();

  001ae	8b cf		 mov	 ecx, edi
  001b0	ff 15 00 00 00
	00		 call	 DWORD PTR __imp_?GetTitle@ioWnd@@QBEPAVioUITitle@@XZ
  001b6	8b d8		 mov	 ebx, eax

; 758  : 				if( pTitle )

  001b8	3b de		 cmp	 ebx, esi
  001ba	0f 84 f8 fe ff
	ff		 je	 $LN9@ReBatchBut

; 759  : 				{
; 760  : 					pTitle->SetOffset( TWO_TEXT_X, pTitle->GetTextYOffSet() );

  001c0	8b cb		 mov	 ecx, ebx
  001c2	ff 15 00 00 00
	00		 call	 DWORD PTR __imp_?GetTextYOffSet@ioUITitle@@QBEHXZ
  001c8	50		 push	 eax
  001c9	6a 33		 push	 51			; 00000033H

; 761  : 				}
; 762  : 
; 763  : 				pButton->ShowWnd();
; 764  : 			}
; 765  : 		}
; 766  : 		break;

  001cb	e9 e0 fe ff ff	 jmp	 $LN22@ReBatchBut
$LN13@ReBatchBut:

; 682  : 	{
; 683  : 	case ROLLING_BTN:
; 684  : 		ShowChildWnd(ID_ROLLING);

  001d0	33 f6		 xor	 esi, esi
  001d2	56		 push	 esi
  001d3	6a 01		 push	 1
  001d5	ff 15 00 00 00
	00		 call	 DWORD PTR __imp_?ShowChildWnd@ioWnd@@QAEXK_N@Z

; 685  : 		SetChildInActive(ID_ROLLING);

  001db	6a 01		 push	 1
  001dd	8b cb		 mov	 ecx, ebx
  001df	ff 15 00 00 00
	00		 call	 DWORD PTR __imp_?SetChildInActive@ioWnd@@QAEXK@Z

; 686  : 
; 687  : 		HideChildWnd(ID_USE);

  001e5	8b 3d 00 00 00
	00		 mov	 edi, DWORD PTR __imp_?HideChildWnd@ioWnd@@QAEXK_N@Z
  001eb	56		 push	 esi
  001ec	6a 02		 push	 2
  001ee	8b cb		 mov	 ecx, ebx
  001f0	ff d7		 call	 edi

; 688  : 		HideChildWnd(ID_GO);

  001f2	56		 push	 esi
  001f3	6a 03		 push	 3
  001f5	8b cb		 mov	 ecx, ebx
  001f7	ff d7		 call	 edi
$LN14@ReBatchBut:
  001f9	5f		 pop	 edi
  001fa	5e		 pop	 esi
  001fb	5b		 pop	 ebx

; 767  : 	}
; 768  : }

  001fc	c9		 leave
  001fd	c2 04 00	 ret	 4
?ReBatchButton@ItemCompoundResultWnd@@IAEXH@Z ENDP	; ItemCompoundResultWnd::ReBatchButton
_TEXT	ENDS
PUBLIC	??_C@_0CJ@IMBODJBK@ItemGrowthCatalystResultWnd?3?3iwm@ ; `string'
PUBLIC	?iwm_command@ItemGrowthCatalystResultWnd@@UAEXPAVioWnd@@HK@Z ; ItemGrowthCatalystResultWnd::iwm_command
;	COMDAT ??_C@_0CJ@IMBODJBK@ItemGrowthCatalystResultWnd?3?3iwm@
; File d:\lost saga for developer\youtube\tutorial\source\src\io3dengine\iosingleton.h
CONST	SEGMENT
??_C@_0CJ@IMBODJBK@ItemGrowthCatalystResultWnd?3?3iwm@ DB 'ItemGrowthCata'
	DB	'lystResultWnd::iwm_command', 00H		; `string'
; Function compile flags: /Ogsp
; File d:\lost saga for developer\youtube\tutorial\source\src\lsclient\gui\itemcompoundresultwnd.cpp
CONST	ENDS
;	COMDAT ?iwm_command@ItemGrowthCatalystResultWnd@@UAEXPAVioWnd@@HK@Z
_TEXT	SEGMENT
_pWnd$ = 8						; size = 4
_cmd$ = 12						; size = 4
_param$ = 16						; size = 4
?iwm_command@ItemGrowthCatalystResultWnd@@UAEXPAVioWnd@@HK@Z PROC ; ItemGrowthCatalystResultWnd::iwm_command, COMDAT
; _this$ = ecx

; 1273 : {

  00000	55		 push	 ebp
  00001	8b ec		 mov	 ebp, esp
  00003	56		 push	 esi
  00004	8b f1		 mov	 esi, ecx

; 1274 : 	DWORD dwID = pWnd->GetID();

  00006	8b 4d 08	 mov	 ecx, DWORD PTR _pWnd$[ebp]
  00009	ff 15 00 00 00
	00		 call	 DWORD PTR __imp_?GetID@ioWnd@@QBEKXZ

; 1275 : 
; 1276 : 	switch( dwID )

  0000f	48		 dec	 eax
  00010	48		 dec	 eax
  00011	74 64		 je	 SHORT $LN4@iwm_comman@2
  00013	48		 dec	 eax
  00014	0f 85 c7 00 00
	00		 jne	 $LN2@iwm_comman@2

; 1277 : 	{
; 1278 : 	case ID_GO:
; 1279 : 		if( cmd == IOBN_BTNUP )

  0001a	83 7d 0c 11	 cmp	 DWORD PTR _cmd$[ebp], 17 ; 00000011H
  0001e	0f 85 bd 00 00
	00		 jne	 $LN2@iwm_comman@2

; 1280 : 		{
; 1281 : 			HideWnd();

  00024	8b ce		 mov	 ecx, esi
  00026	ff 15 00 00 00
	00		 call	 DWORD PTR __imp_?HideWnd@ioWnd@@QAEXXZ

; 1282 : 
; 1283 : 			MyInventoryWnd *pInvenWnd = dynamic_cast<MyInventoryWnd*>(g_GUIMgr.FindWnd(MY_INVENTORY_WND));

  0002c	6a 00		 push	 0
  0002e	68 00 00 00 00	 push	 OFFSET ??_R0?AVMyInventoryWnd@@@8
  00033	68 00 00 00 00	 push	 OFFSET ??_R0?AVioWnd@@@8
  00038	6a 00		 push	 0
  0003a	68 96 17 00 00	 push	 6038			; 00001796H
  0003f	e8 00 00 00 00	 call	 ?GetSingleton@ioSP2GUIManager@@SAAAV1@XZ ; ioSP2GUIManager::GetSingleton
  00044	8b c8		 mov	 ecx, eax
  00046	ff 15 00 00 00
	00		 call	 DWORD PTR __imp_?FindWnd@ioGUIManager@@QAEPAVioWnd@@K@Z
  0004c	50		 push	 eax
  0004d	e8 00 00 00 00	 call	 ___RTDynamicCast
  00052	8b f0		 mov	 esi, eax
  00054	83 c4 14	 add	 esp, 20			; 00000014H

; 1284 : 			if( pInvenWnd )

  00057	85 f6		 test	 esi, esi
  00059	0f 84 82 00 00
	00		 je	 $LN2@iwm_comman@2

; 1285 : 			{
; 1286 : 				pInvenWnd->ShowExtraItemTabDirect( g_MyInfo.GetClassType() );

  0005f	6a ff		 push	 -1
  00061	e8 00 00 00 00	 call	 ?GetSingleton@ioMyInfo@@SAAAV1@XZ ; ioMyInfo::GetSingleton
  00066	8b c8		 mov	 ecx, eax
  00068	e8 00 00 00 00	 call	 ?GetClassType@ioMyInfo@@QAEHXZ ; ioMyInfo::GetClassType
  0006d	50		 push	 eax
  0006e	8b ce		 mov	 ecx, esi
  00070	e8 00 00 00 00	 call	 ?ShowExtraItemTabDirect@MyInventoryWnd@@QAEXHH@Z ; MyInventoryWnd::ShowExtraItemTabDirect

; 1287 : 			}
; 1288 : 		}
; 1289 : 		break;

  00075	eb 6a		 jmp	 SHORT $LN2@iwm_comman@2
$LN4@iwm_comman@2:

; 1290 : 	case ID_USE:
; 1291 : 		if( cmd == IOBN_BTNUP )

  00077	83 7d 0c 11	 cmp	 DWORD PTR _cmd$[ebp], 17 ; 00000011H
  0007b	75 64		 jne	 SHORT $LN2@iwm_comman@2

; 1292 : 		{
; 1293 : 			ioUserEtcItem *pUserEtcItem =  g_MyInfo.GetUserEtcItem();

  0007d	53		 push	 ebx
  0007e	e8 00 00 00 00	 call	 ?GetSingleton@ioMyInfo@@SAAAV1@XZ ; ioMyInfo::GetSingleton
  00083	8b d8		 mov	 ebx, eax
  00085	81 c3 44 01 00
	00		 add	 ebx, 324		; 00000144H

; 1294 : 			if( pUserEtcItem )

  0008b	74 53		 je	 SHORT $LN16@iwm_comman@2

; 1295 : 			{
; 1296 : 				ioEtcItem *pEtcItem = g_EtcItemMgr.FindEtcItem( m_dwEtcItemCode );

  0008d	8b 0d 00 00 00
	00		 mov	 ecx, DWORD PTR ?ms_Singleton@?$Singleton@VioEtcItemManager@@@@1PAVioEtcItemManager@@A ; Singleton<ioEtcItemManager>::ms_Singleton
  00093	57		 push	 edi
  00094	ff b6 b0 01 00
	00		 push	 DWORD PTR [esi+432]
  0009a	e8 00 00 00 00	 call	 ?FindEtcItem@ioEtcItemManager@@QAEPAVioEtcItem@@K@Z ; ioEtcItemManager::FindEtcItem
  0009f	8b f8		 mov	 edi, eax

; 1297 : 				if( !pEtcItem )

  000a1	85 ff		 test	 edi, edi
  000a3	75 22		 jne	 SHORT $LN1@iwm_comman@2

; 1298 : 				{
; 1299 : 					LOG.PrintTimeAndLog( 0, "%s pEtcItem == NULL : %d", __FUNCTION__, m_dwEtcItemCode );

  000a5	ff b6 b0 01 00
	00		 push	 DWORD PTR [esi+432]
  000ab	68 00 00 00 00	 push	 OFFSET ??_C@_0CJ@IMBODJBK@ItemGrowthCatalystResultWnd?3?3iwm@
  000b0	68 00 00 00 00	 push	 OFFSET ??_C@_0BJ@MBKFFGIH@?$CFs?5pEtcItem?5?$DN?$DN?5NULL?5?3?5?$CFd?$AA@
  000b5	50		 push	 eax
  000b6	ff 35 00 00 00
	00		 push	 DWORD PTR __imp_?LOG@@3VCLog@@A
  000bc	ff 15 00 00 00
	00		 call	 DWORD PTR __imp_?PrintTimeAndLog@CLog@@QAAXHPADZZ
  000c2	83 c4 14	 add	 esp, 20			; 00000014H

; 1300 : 					return;

  000c5	eb 18		 jmp	 SHORT $LN17@iwm_comman@2
$LN1@iwm_comman@2:

; 1301 : 				}
; 1302 : 				HideWnd();

  000c7	8b ce		 mov	 ecx, esi
  000c9	ff 15 00 00 00
	00		 call	 DWORD PTR __imp_?HideWnd@ioWnd@@QAEXXZ

; 1303 : 
; 1304 : 				pEtcItem->OnUseBtnPush( m_dwEtcItemCode, pUserEtcItem );

  000cf	8b 07		 mov	 eax, DWORD PTR [edi]
  000d1	6a 01		 push	 1
  000d3	53		 push	 ebx
  000d4	ff b6 b0 01 00
	00		 push	 DWORD PTR [esi+432]
  000da	8b cf		 mov	 ecx, edi
  000dc	ff 50 20	 call	 DWORD PTR [eax+32]
$LN17@iwm_comman@2:
  000df	5f		 pop	 edi
$LN16@iwm_comman@2:
  000e0	5b		 pop	 ebx
$LN2@iwm_comman@2:
  000e1	5e		 pop	 esi

; 1305 : 			}
; 1306 : 		}
; 1307 : 		break;
; 1308 : 	}
; 1309 : }

  000e2	5d		 pop	 ebp
  000e3	c2 0c 00	 ret	 12			; 0000000cH
?iwm_command@ItemGrowthCatalystResultWnd@@UAEXPAVioWnd@@HK@Z ENDP ; ItemGrowthCatalystResultWnd::iwm_command
_TEXT	ENDS
PUBLIC	?PrintManual@ItemGrowthCatalystResultWnd@@IAEXHHM@Z ; ItemGrowthCatalystResultWnd::PrintManual
;	COMDAT xdata$x
; File d:\lost saga for developer\youtube\tutorial\source\src\lsclient\ioetcitem.h
xdata$x	SEGMENT
__unwindtable$?PrintManual@ItemGrowthCatalystResultWnd@@IAEXHHM@Z DD 0ffffffffH
	DD	FLAT:__unwindfunclet$?PrintManual@ItemGrowthCatalystResultWnd@@IAEXHHM@Z$0
__ehfuncinfo$?PrintManual@ItemGrowthCatalystResultWnd@@IAEXHHM@Z DD 019930522H
	DD	01H
	DD	FLAT:__unwindtable$?PrintManual@ItemGrowthCatalystResultWnd@@IAEXHHM@Z
	DD	2 DUP(00H)
	DD	2 DUP(00H)
	DD	00H
	DD	01H
; Function compile flags: /Ogsp
; File d:\lost saga for developer\youtube\tutorial\source\src\lsclient\gui\itemcompoundresultwnd.cpp
xdata$x	ENDS
;	COMDAT ?PrintManual@ItemGrowthCatalystResultWnd@@IAEXHHM@Z
_TEXT	SEGMENT
_kPrinter$ = -48					; size = 32
_iMaxLine$ = -16					; size = 4
__$EHRec$ = -12						; size = 12
tv196 = 8						; size = 4
_a_iXPos$ = 8						; size = 4
_a_iYPos$ = 12						; size = 4
_fScale$ = 16						; size = 4
?PrintManual@ItemGrowthCatalystResultWnd@@IAEXHHM@Z PROC ; ItemGrowthCatalystResultWnd::PrintManual, COMDAT
; _this$ = ecx

; 1312 : {

  00000	6a 24		 push	 36			; 00000024H
  00002	b8 00 00 00 00	 mov	 eax, __ehhandler$?PrintManual@ItemGrowthCatalystResultWnd@@IAEXHHM@Z
  00007	e8 00 00 00 00	 call	 __EH_prolog3
  0000c	8b f1		 mov	 esi, ecx

; 1313 : 	if( !m_pManual )

  0000e	83 be 74 01 00
	00 00		 cmp	 DWORD PTR [esi+372], 0
  00015	0f 84 c9 00 00
	00		 je	 $LN6@PrintManua@3

; 1314 : 		return;
; 1315 : 
; 1316 : 	ioEtcItem *pItem = NULL;
; 1317 : 	pItem = g_EtcItemMgr.FindEtcItem( m_dwEtcItemCode );

  0001b	ff b6 b0 01 00
	00		 push	 DWORD PTR [esi+432]
  00021	8b 0d 00 00 00
	00		 mov	 ecx, DWORD PTR ?ms_Singleton@?$Singleton@VioEtcItemManager@@@@1PAVioEtcItemManager@@A ; Singleton<ioEtcItemManager>::ms_Singleton
  00027	e8 00 00 00 00	 call	 ?FindEtcItem@ioEtcItemManager@@QAEPAVioEtcItem@@K@Z ; ioEtcItemManager::FindEtcItem

; 1318 : 
; 1319 : 	if( !pItem ) return;

  0002c	85 c0		 test	 eax, eax
  0002e	0f 84 b0 00 00
	00		 je	 $LN6@PrintManua@3

; 1320 : 
; 1321 : 	int iSubManual = pItem->GetInventorySubManual() - 1;

  00034	8b 78 4c	 mov	 edi, DWORD PTR [eax+76]

; 1322 : 	ioComplexStringPrinter kPrinter;

  00037	8d 4d d0	 lea	 ecx, DWORD PTR _kPrinter$[ebp]
  0003a	4f		 dec	 edi
  0003b	e8 00 00 00 00	 call	 ??0ioComplexStringPrinter@@QAE@XZ ; ioComplexStringPrinter::ioComplexStringPrinter

; 1323 : 	int iMaxLine = m_pManual->GetMaxLine( iSubManual );

  00040	8b 8e 74 01 00
	00		 mov	 ecx, DWORD PTR [esi+372]
  00046	8b 01		 mov	 eax, DWORD PTR [ecx]
  00048	83 65 fc 00	 and	 DWORD PTR __$EHRec$[ebp+8], 0
  0004c	57		 push	 edi
  0004d	ff 50 08	 call	 DWORD PTR [eax+8]

; 1324 : 	for(int iLine = 1; iLine < iMaxLine; iLine++)

  00050	33 db		 xor	 ebx, ebx
  00052	43		 inc	 ebx
  00053	89 45 f0	 mov	 DWORD PTR _iMaxLine$[ebp], eax
  00056	3b c3		 cmp	 eax, ebx
  00058	7e 7e		 jle	 SHORT $LN1@PrintManua@3
  0005a	66 0f 6e 45 08	 movd	 xmm0, DWORD PTR _a_iXPos$[ebp]
  0005f	0f 5b c0	 cvtdq2ps xmm0, xmm0
  00062	f3 0f 11 45 08	 movss	 DWORD PTR tv196[ebp], xmm0
$LL3@PrintManua@3:

; 1325 : 	{
; 1326 : 		m_pManual->SetPrinter( iSubManual, iLine, fScale, kPrinter);

  00067	8b 8e 74 01 00
	00		 mov	 ecx, DWORD PTR [esi+372]
  0006d	f3 0f 10 45 10	 movss	 xmm0, DWORD PTR _fScale$[ebp]
  00072	8b 01		 mov	 eax, DWORD PTR [ecx]
  00074	8d 55 d0	 lea	 edx, DWORD PTR _kPrinter$[ebp]
  00077	52		 push	 edx
  00078	51		 push	 ecx
  00079	f3 0f 11 04 24	 movss	 DWORD PTR [esp], xmm0
  0007e	53		 push	 ebx
  0007f	57		 push	 edi
  00080	ff 50 10	 call	 DWORD PTR [eax+16]

; 1327 : 		a_iYPos += m_pManual->GetSpaceLine( iSubManual, iLine);

  00083	8b 8e 74 01 00
	00		 mov	 ecx, DWORD PTR [esi+372]
  00089	8b 01		 mov	 eax, DWORD PTR [ecx]
  0008b	53		 push	 ebx
  0008c	57		 push	 edi
  0008d	ff 50 0c	 call	 DWORD PTR [eax+12]

; 1328 : 		kPrinter.PrintFullTextWidthCut( a_iXPos, a_iYPos, TAT_LEFT, DESC_WIDTH );

  00090	f3 0f 10 05 00
	00 00 00	 movss	 xmm0, DWORD PTR __real@434c0000
  00098	01 45 0c	 add	 DWORD PTR _a_iYPos$[ebp], eax
  0009b	68 ff 00 00 00	 push	 255			; 000000ffH
  000a0	51		 push	 ecx
  000a1	f3 0f 11 04 24	 movss	 DWORD PTR [esp], xmm0
  000a6	66 0f 6e 45 0c	 movd	 xmm0, DWORD PTR _a_iYPos$[ebp]
  000ab	6a 00		 push	 0
  000ad	51		 push	 ecx
  000ae	51		 push	 ecx
  000af	0f 5b c0	 cvtdq2ps xmm0, xmm0
  000b2	f3 0f 11 44 24
	04		 movss	 DWORD PTR [esp+4], xmm0
  000b8	f3 0f 10 45 08	 movss	 xmm0, DWORD PTR tv196[ebp]
  000bd	8d 4d d0	 lea	 ecx, DWORD PTR _kPrinter$[ebp]
  000c0	f3 0f 11 04 24	 movss	 DWORD PTR [esp], xmm0
  000c5	e8 00 00 00 00	 call	 ?PrintFullTextWidthCut@ioComplexStringPrinter@@QAEXMMW4TextAlignType@@ME@Z ; ioComplexStringPrinter::PrintFullTextWidthCut

; 1329 : 		kPrinter.ClearList();

  000ca	8d 4d d0	 lea	 ecx, DWORD PTR _kPrinter$[ebp]
  000cd	e8 00 00 00 00	 call	 ?ClearList@ioComplexStringPrinter@@QAEXXZ ; ioComplexStringPrinter::ClearList
  000d2	43		 inc	 ebx
  000d3	3b 5d f0	 cmp	 ebx, DWORD PTR _iMaxLine$[ebp]
  000d6	7c 8f		 jl	 SHORT $LL3@PrintManua@3
$LN1@PrintManua@3:

; 1330 : 	}
; 1331 : }

  000d8	83 4d fc ff	 or	 DWORD PTR __$EHRec$[ebp+8], -1
  000dc	8d 4d d0	 lea	 ecx, DWORD PTR _kPrinter$[ebp]
  000df	e8 00 00 00 00	 call	 ??1ioComplexStringPrinter@@QAE@XZ ; ioComplexStringPrinter::~ioComplexStringPrinter
$LN6@PrintManua@3:
  000e4	e8 00 00 00 00	 call	 __EH_epilog3
  000e9	c2 0c 00	 ret	 12			; 0000000cH
_TEXT	ENDS
;	COMDAT text$x
text$x	SEGMENT
__unwindfunclet$?PrintManual@ItemGrowthCatalystResultWnd@@IAEXHHM@Z$0:
  00000	8d 4d d0	 lea	 ecx, DWORD PTR _kPrinter$[ebp]
  00003	e9 00 00 00 00	 jmp	 ??1ioComplexStringPrinter@@QAE@XZ ; ioComplexStringPrinter::~ioComplexStringPrinter
__ehhandler$?PrintManual@ItemGrowthCatalystResultWnd@@IAEXHHM@Z:
  00008	8b 54 24 08	 mov	 edx, DWORD PTR [esp+8]
  0000c	8d 42 0c	 lea	 eax, DWORD PTR [edx+12]
  0000f	8b 4a cc	 mov	 ecx, DWORD PTR [edx-52]
  00012	33 c8		 xor	 ecx, eax
  00014	e8 00 00 00 00	 call	 @__security_check_cookie@4
  00019	b8 00 00 00 00	 mov	 eax, OFFSET __ehfuncinfo$?PrintManual@ItemGrowthCatalystResultWnd@@IAEXHHM@Z
  0001e	e9 00 00 00 00	 jmp	 ___CxxFrameHandler3
text$x	ENDS
?PrintManual@ItemGrowthCatalystResultWnd@@IAEXHHM@Z ENDP ; ItemGrowthCatalystResultWnd::PrintManual
PUBLIC	?RollingEffect@ItemGrowthCatalystResultWnd@@IAEXM@Z ; ItemGrowthCatalystResultWnd::RollingEffect
;	COMDAT xdata$x
; File c:\program files (x86)\microsoft visual studio 10.0\vc\include\vector
xdata$x	SEGMENT
__unwindtable$?RollingEffect@ItemGrowthCatalystResultWnd@@IAEXM@Z DD 0ffffffffH
	DD	FLAT:__unwindfunclet$?RollingEffect@ItemGrowthCatalystResultWnd@@IAEXM@Z$0
	DD	0ffffffffH
	DD	FLAT:__unwindfunclet$?RollingEffect@ItemGrowthCatalystResultWnd@@IAEXM@Z$1
__ehfuncinfo$?RollingEffect@ItemGrowthCatalystResultWnd@@IAEXM@Z DD 019930522H
	DD	02H
	DD	FLAT:__unwindtable$?RollingEffect@ItemGrowthCatalystResultWnd@@IAEXM@Z
	DD	2 DUP(00H)
	DD	2 DUP(00H)
	DD	00H
	DD	01H
; Function compile flags: /Ogsp
; File d:\lost saga for developer\youtube\tutorial\source\src\lsclient\gui\itemcompoundresultwnd.cpp
xdata$x	ENDS
;	COMDAT ?RollingEffect@ItemGrowthCatalystResultWnd@@IAEXM@Z
_TEXT	SEGMENT
_szEffect$512929 = -48					; size = 16
_szEffect$512917 = -32					; size = 16
_dwCurTime$ = -16					; size = 4
__$EHRec$ = -12						; size = 12
_fTimePerSec$ = 8					; size = 4
?RollingEffect@ItemGrowthCatalystResultWnd@@IAEXM@Z PROC ; ItemGrowthCatalystResultWnd::RollingEffect, COMDAT
; _this$ = ecx

; 1334 : {

  00000	6a 24		 push	 36			; 00000024H
  00002	b8 00 00 00 00	 mov	 eax, __ehhandler$?RollingEffect@ItemGrowthCatalystResultWnd@@IAEXM@Z
  00007	e8 00 00 00 00	 call	 __EH_prolog3
  0000c	8b f1		 mov	 esi, ecx

; 1335 : 	DWORD dwCurTime = FRAMEGETTIME();

  0000e	ff 15 00 00 00
	00		 call	 DWORD PTR __imp_?GetSingleton@ioFrameTimer@@SAAAV1@XZ
  00014	8b c8		 mov	 ecx, eax
  00016	ff 15 00 00 00
	00		 call	 DWORD PTR __imp_?GetLoopSec@ioFrameTimer@@QBEKXZ

; 1336 : 
; 1337 : 	int iEffectListCnt = m_vRollingEffect.size();

  0001c	8b be 84 01 00
	00		 mov	 edi, DWORD PTR [esi+388]
  00022	2b be 80 01 00
	00		 sub	 edi, DWORD PTR [esi+384]

; 1338 : 	if( m_bResult )

  00028	8a 8e b4 01 00
	00		 mov	 cl, BYTE PTR [esi+436]
  0002e	c1 ff 04	 sar	 edi, 4
  00031	89 45 f0	 mov	 DWORD PTR _dwCurTime$[ebp], eax
  00034	84 c9		 test	 cl, cl
  00036	74 26		 je	 SHORT $LN21@RollingEff@2

; 1339 : 	{
; 1340 : 		if( m_bSuccess )

  00038	80 be b5 01 00
	00 00		 cmp	 BYTE PTR [esi+437], 0
  0003f	74 0e		 je	 SHORT $LN22@RollingEff@2

; 1341 : 			iEffectListCnt = m_vEndEfffect_S.size();

  00041	8b be 94 01 00
	00		 mov	 edi, DWORD PTR [esi+404]
  00047	2b be 90 01 00
	00		 sub	 edi, DWORD PTR [esi+400]

; 1342 : 		else

  0004d	eb 0c		 jmp	 SHORT $LN49@RollingEff@2
$LN22@RollingEff@2:

; 1343 : 			iEffectListCnt = m_vEndEfffect_F.size();

  0004f	8b be a4 01 00
	00		 mov	 edi, DWORD PTR [esi+420]
  00055	2b be a0 01 00
	00		 sub	 edi, DWORD PTR [esi+416]
$LN49@RollingEff@2:
  0005b	c1 ff 04	 sar	 edi, 4
$LN21@RollingEff@2:

; 1344 : 	}
; 1345 : 
; 1346 : 	if( iEffectListCnt == 0 )

  0005e	33 db		 xor	 ebx, ebx
  00060	3b fb		 cmp	 edi, ebx
  00062	75 20		 jne	 SHORT $LN20@RollingEff@2
$LN52@RollingEff@2:

; 1347 : 	{
; 1348 : 		SAFEDELETE( m_pEffect );

  00064	8b 8e 64 01 00
	00		 mov	 ecx, DWORD PTR [esi+356]
  0006a	3b cb		 cmp	 ecx, ebx
  0006c	0f 84 7a 01 00
	00		 je	 $LN6@RollingEff@2
  00072	8b 01		 mov	 eax, DWORD PTR [ecx]
  00074	6a 01		 push	 1
  00076	ff 50 40	 call	 DWORD PTR [eax+64]
  00079	89 9e 64 01 00
	00		 mov	 DWORD PTR [esi+356], ebx

; 1349 : 		return;

  0007f	e9 68 01 00 00	 jmp	 $LN6@RollingEff@2
$LN20@RollingEff@2:

; 1350 : 	}
; 1351 : 
; 1352 : 	if( m_bResult )

  00084	84 c9		 test	 cl, cl
  00086	0f 84 b9 00 00
	00		 je	 $LN18@RollingEff@2

; 1353 : 	{
; 1354 : 		if( m_iCurEffectArray == iEffectListCnt-1 )

  0008c	8d 47 ff	 lea	 eax, DWORD PTR [edi-1]
  0008f	39 86 f8 01 00
	00		 cmp	 DWORD PTR [esi+504], eax

; 1355 : 		{
; 1356 : 			SAFEDELETE( m_pEffect );
; 1357 : 			return;

  00095	74 cd		 je	 SHORT $LN52@RollingEff@2

; 1358 : 		}
; 1359 : 
; 1360 : 		if( m_dwRollingEffectCheckTime == 0 || dwCurTime - m_dwRollingEffectCheckTime > m_dwRollingEffectTime )		// 

  00097	8b 86 00 02 00
	00		 mov	 eax, DWORD PTR [esi+512]
  0009d	3b c3		 cmp	 eax, ebx
  0009f	74 11		 je	 SHORT $LN14@RollingEff@2
  000a1	8b 4d f0	 mov	 ecx, DWORD PTR _dwCurTime$[ebp]
  000a4	2b c8		 sub	 ecx, eax
  000a6	3b 8e fc 01 00
	00		 cmp	 ecx, DWORD PTR [esi+508]
  000ac	0f 86 3a 01 00
	00		 jbe	 $LN6@RollingEff@2
$LN14@RollingEff@2:

; 1361 : 		{
; 1362 : 			SAFEDELETE( m_pEffect );

  000b2	8b 8e 64 01 00
	00		 mov	 ecx, DWORD PTR [esi+356]
  000b8	3b cb		 cmp	 ecx, ebx
  000ba	74 0d		 je	 SHORT $LN13@RollingEff@2
  000bc	8b 01		 mov	 eax, DWORD PTR [ecx]
  000be	6a 01		 push	 1
  000c0	ff 50 40	 call	 DWORD PTR [eax+64]
  000c3	89 9e 64 01 00
	00		 mov	 DWORD PTR [esi+356], ebx
$LN13@RollingEff@2:

; 1363 : 
; 1364 : 			m_iCurEffectArray++;

  000c9	ff 86 f8 01 00
	00		 inc	 DWORD PTR [esi+504]
  000cf	8b 86 f8 01 00
	00		 mov	 eax, DWORD PTR [esi+504]

; 1365 : 
; 1366 : 			if( !COMPARE( m_iCurEffectArray, 0, iEffectListCnt ) )

  000d5	78 04		 js	 SHORT $LN11@RollingEff@2
  000d7	3b c7		 cmp	 eax, edi
  000d9	7c 06		 jl	 SHORT $LN12@RollingEff@2
$LN11@RollingEff@2:

; 1367 : 				m_iCurEffectArray = 0;

  000db	89 9e f8 01 00
	00		 mov	 DWORD PTR [esi+504], ebx
$LN12@RollingEff@2:

; 1368 : 
; 1369 : 			ioHashString szEffect;

  000e1	8d 4d e0	 lea	 ecx, DWORD PTR _szEffect$512917[ebp]
  000e4	ff 15 00 00 00
	00		 call	 DWORD PTR __imp_??0ioHashString@@QAE@XZ

; 1370 : 			if( m_bSuccess )
; 1371 : 				szEffect = m_vEndEfffect_S[m_iCurEffectArray];

  000ea	8b 86 f8 01 00
	00		 mov	 eax, DWORD PTR [esi+504]
  000f0	c1 e0 04	 shl	 eax, 4
  000f3	80 be b5 01 00
	00 00		 cmp	 BYTE PTR [esi+437], 0
  000fa	89 5d fc	 mov	 DWORD PTR __$EHRec$[ebp+8], ebx
  000fd	8d 4d e0	 lea	 ecx, DWORD PTR _szEffect$512917[ebp]
  00100	74 08		 je	 SHORT $LN10@RollingEff@2
  00102	03 86 90 01 00
	00		 add	 eax, DWORD PTR [esi+400]

; 1372 : 			else

  00108	eb 06		 jmp	 SHORT $LN50@RollingEff@2
$LN10@RollingEff@2:

; 1373 : 				szEffect = m_vEndEfffect_F[m_iCurEffectArray];

  0010a	03 86 a0 01 00
	00		 add	 eax, DWORD PTR [esi+416]
$LN50@RollingEff@2:
  00110	50		 push	 eax
  00111	ff 15 00 00 00
	00		 call	 DWORD PTR __imp_??4ioHashString@@QAEAAV0@ABV0@@Z

; 1374 : 
; 1375 : 
; 1376 : 			if( !szEffect.IsEmpty() )

  00117	8d 4d e0	 lea	 ecx, DWORD PTR _szEffect$512917[ebp]
  0011a	ff 15 00 00 00
	00		 call	 DWORD PTR __imp_?IsEmpty@ioHashString@@QBE_NXZ
  00120	84 c0		 test	 al, al
  00122	75 19		 jne	 SHORT $LN8@RollingEff@2

; 1377 : 			{
; 1378 : 				m_pEffect = g_UIImageSetMgr.CreateImageByFullName( szEffect );

  00124	8d 45 e0	 lea	 eax, DWORD PTR _szEffect$512917[ebp]
  00127	53		 push	 ebx
  00128	50		 push	 eax
  00129	ff 15 00 00 00
	00		 call	 DWORD PTR __imp_?GetSingleton@ioUIImageSetManager@@SAAAV1@XZ
  0012f	8b c8		 mov	 ecx, eax
  00131	ff 15 00 00 00
	00		 call	 DWORD PTR __imp_?CreateImageByFullName@ioUIImageSetManager@@QAEPAVioUIRenderImage@@ABVioHashString@@_N@Z
  00137	89 86 64 01 00
	00		 mov	 DWORD PTR [esi+356], eax
$LN8@RollingEff@2:

; 1379 : 			}
; 1380 : 
; 1381 : 			m_dwRollingEffectCheckTime = dwCurTime;
; 1382 : 		}

  0013d	8d 4d e0	 lea	 ecx, DWORD PTR _szEffect$512917[ebp]

; 1383 : 	}
; 1384 : 	else

  00140	e9 94 00 00 00	 jmp	 $LN51@RollingEff@2
$LN18@RollingEff@2:

; 1385 : 	{
; 1386 : 		if( m_dwRollingEffectCheckTime == 0 || dwCurTime - m_dwRollingEffectCheckTime > m_dwRollingEffectTime )		// 

  00145	8b 86 00 02 00
	00		 mov	 eax, DWORD PTR [esi+512]
  0014b	3b c3		 cmp	 eax, ebx
  0014d	74 11		 je	 SHORT $LN5@RollingEff@2
  0014f	8b 4d f0	 mov	 ecx, DWORD PTR _dwCurTime$[ebp]
  00152	2b c8		 sub	 ecx, eax
  00154	3b 8e fc 01 00
	00		 cmp	 ecx, DWORD PTR [esi+508]
  0015a	0f 86 8c 00 00
	00		 jbe	 $LN6@RollingEff@2
$LN5@RollingEff@2:

; 1387 : 		{
; 1388 : 			SAFEDELETE( m_pEffect );

  00160	8b 8e 64 01 00
	00		 mov	 ecx, DWORD PTR [esi+356]
  00166	33 db		 xor	 ebx, ebx
  00168	43		 inc	 ebx
  00169	85 c9		 test	 ecx, ecx
  0016b	74 0d		 je	 SHORT $LN4@RollingEff@2
  0016d	8b 01		 mov	 eax, DWORD PTR [ecx]
  0016f	53		 push	 ebx
  00170	ff 50 40	 call	 DWORD PTR [eax+64]
  00173	83 a6 64 01 00
	00 00		 and	 DWORD PTR [esi+356], 0
$LN4@RollingEff@2:

; 1389 : 
; 1390 : 			m_iCurEffectArray++;

  0017a	ff 86 f8 01 00
	00		 inc	 DWORD PTR [esi+504]
  00180	8b 8e f8 01 00
	00		 mov	 ecx, DWORD PTR [esi+504]

; 1391 : 
; 1392 : 			if( !COMPARE( m_iCurEffectArray, 0, iEffectListCnt ) )

  00186	78 04		 js	 SHORT $LN2@RollingEff@2
  00188	3b cf		 cmp	 ecx, edi
  0018a	7c 07		 jl	 SHORT $LN3@RollingEff@2
$LN2@RollingEff@2:

; 1393 : 				m_iCurEffectArray = 0;

  0018c	83 a6 f8 01 00
	00 00		 and	 DWORD PTR [esi+504], 0
$LN3@RollingEff@2:

; 1394 : 
; 1395 : 			ioHashString szEffect = m_vRollingEffect[m_iCurEffectArray];

  00193	8b 86 f8 01 00
	00		 mov	 eax, DWORD PTR [esi+504]
  00199	c1 e0 04	 shl	 eax, 4
  0019c	03 86 80 01 00
	00		 add	 eax, DWORD PTR [esi+384]
  001a2	8d 4d d0	 lea	 ecx, DWORD PTR _szEffect$512929[ebp]
  001a5	50		 push	 eax
  001a6	ff 15 00 00 00
	00		 call	 DWORD PTR __imp_??0ioHashString@@QAE@ABV0@@Z

; 1396 : 
; 1397 : 			if( !szEffect.IsEmpty() )

  001ac	8d 4d d0	 lea	 ecx, DWORD PTR _szEffect$512929[ebp]
  001af	89 5d fc	 mov	 DWORD PTR __$EHRec$[ebp+8], ebx
  001b2	ff 15 00 00 00
	00		 call	 DWORD PTR __imp_?IsEmpty@ioHashString@@QBE_NXZ
  001b8	84 c0		 test	 al, al
  001ba	75 1a		 jne	 SHORT $LN1@RollingEff@2

; 1398 : 			{
; 1399 : 				m_pEffect = g_UIImageSetMgr.CreateImageByFullName( szEffect );

  001bc	8d 45 d0	 lea	 eax, DWORD PTR _szEffect$512929[ebp]
  001bf	6a 00		 push	 0
  001c1	50		 push	 eax
  001c2	ff 15 00 00 00
	00		 call	 DWORD PTR __imp_?GetSingleton@ioUIImageSetManager@@SAAAV1@XZ
  001c8	8b c8		 mov	 ecx, eax
  001ca	ff 15 00 00 00
	00		 call	 DWORD PTR __imp_?CreateImageByFullName@ioUIImageSetManager@@QAEPAVioUIRenderImage@@ABVioHashString@@_N@Z
  001d0	89 86 64 01 00
	00		 mov	 DWORD PTR [esi+356], eax
$LN1@RollingEff@2:

; 1403 : 		}

  001d6	8d 4d d0	 lea	 ecx, DWORD PTR _szEffect$512929[ebp]
$LN51@RollingEff@2:

; 1400 : 			}
; 1401 : 
; 1402 : 			m_dwRollingEffectCheckTime = dwCurTime;

  001d9	8b 45 f0	 mov	 eax, DWORD PTR _dwCurTime$[ebp]

; 1403 : 		}

  001dc	83 4d fc ff	 or	 DWORD PTR __$EHRec$[ebp+8], -1
  001e0	89 86 00 02 00
	00		 mov	 DWORD PTR [esi+512], eax
  001e6	ff 15 00 00 00
	00		 call	 DWORD PTR __imp_??1ioHashString@@QAE@XZ
$LN6@RollingEff@2:

; 1404 : 	}
; 1405 : }

  001ec	e8 00 00 00 00	 call	 __EH_epilog3
  001f1	c2 04 00	 ret	 4
_TEXT	ENDS
;	COMDAT text$x
text$x	SEGMENT
__unwindfunclet$?RollingEffect@ItemGrowthCatalystResultWnd@@IAEXM@Z$0:
  00000	8d 4d e0	 lea	 ecx, DWORD PTR _szEffect$512917[ebp]
  00003	ff 25 00 00 00
	00		 jmp	 DWORD PTR __imp_??1ioHashString@@QAE@XZ
__unwindfunclet$?RollingEffect@ItemGrowthCatalystResultWnd@@IAEXM@Z$1:
  00009	8d 4d d0	 lea	 ecx, DWORD PTR _szEffect$512929[ebp]
  0000c	ff 25 00 00 00
	00		 jmp	 DWORD PTR __imp_??1ioHashString@@QAE@XZ
__ehhandler$?RollingEffect@ItemGrowthCatalystResultWnd@@IAEXM@Z:
  00012	8b 54 24 08	 mov	 edx, DWORD PTR [esp+8]
  00016	8d 42 0c	 lea	 eax, DWORD PTR [edx+12]
  00019	8b 4a cc	 mov	 ecx, DWORD PTR [edx-52]
  0001c	33 c8		 xor	 ecx, eax
  0001e	e8 00 00 00 00	 call	 @__security_check_cookie@4
  00023	b8 00 00 00 00	 mov	 eax, OFFSET __ehfuncinfo$?RollingEffect@ItemGrowthCatalystResultWnd@@IAEXM@Z
  00028	e9 00 00 00 00	 jmp	 ___CxxFrameHandler3
text$x	ENDS
?RollingEffect@ItemGrowthCatalystResultWnd@@IAEXM@Z ENDP ; ItemGrowthCatalystResultWnd::RollingEffect
PUBLIC	?ReBatchButton@ItemGrowthCatalystResultWnd@@IAEXH@Z ; ItemGrowthCatalystResultWnd::ReBatchButton
; Function compile flags: /Ogsp
;	COMDAT ?ReBatchButton@ItemGrowthCatalystResultWnd@@IAEXH@Z
_TEXT	SEGMENT
_kSlot$512955 = -16					; size = 12
_this$ = -4						; size = 4
tv467 = 8						; size = 4
_pTitle$512966 = 8					; size = 4
_iType$ = 8						; size = 4
?ReBatchButton@ItemGrowthCatalystResultWnd@@IAEXH@Z PROC ; ItemGrowthCatalystResultWnd::ReBatchButton, COMDAT
; _this$ = ecx

; 1408 : {

  00000	55		 push	 ebp
  00001	8b ec		 mov	 ebp, esp
  00003	83 ec 10	 sub	 esp, 16			; 00000010H

; 1409 : 	enum
; 1410 : 	{
; 1411 : 		ONE_BTN_SIZE	= 204,
; 1412 : 		TWO_BTN_SIZE	= 102,
; 1413 : 
; 1414 : 		ONE_BTN_X		= 27,
; 1415 : 		TWO_BTN_X		= 131,
; 1416 : 
; 1417 : 		ONE_TEXT_X		= 102,
; 1418 : 		TWO_TEXT_X		= 51,
; 1419 : 	};
; 1420 : 
; 1421 : 	switch( iType )

  00006	8b 45 08	 mov	 eax, DWORD PTR _iType$[ebp]
  00009	48		 dec	 eax
  0000a	53		 push	 ebx
  0000b	56		 push	 esi
  0000c	8b d9		 mov	 ebx, ecx
  0000e	57		 push	 edi
  0000f	89 5d fc	 mov	 DWORD PTR _this$[ebp], ebx
  00012	0f 84 b8 01 00
	00		 je	 $LN13@ReBatchBut@2
  00018	48		 dec	 eax
  00019	0f 85 da 01 00
	00		 jne	 $LN14@ReBatchBut@2

; 1429 : 		break;
; 1430 : 	case RESULT_BTN:
; 1431 : 		HideChildWnd(ID_ROLLING);

  0001f	8b 3d 00 00 00
	00		 mov	 edi, DWORD PTR __imp_?HideChildWnd@ioWnd@@QAEXK_N@Z
  00025	33 f6		 xor	 esi, esi
  00027	56		 push	 esi
  00028	6a 01		 push	 1
  0002a	ff d7		 call	 edi

; 1432 : 		HideChildWnd(ID_USE);

  0002c	56		 push	 esi
  0002d	6a 02		 push	 2
  0002f	8b cb		 mov	 ecx, ebx
  00031	ff d7		 call	 edi

; 1433 : 		HideChildWnd(ID_GO);

  00033	56		 push	 esi
  00034	6a 03		 push	 3
  00036	8b cb		 mov	 ecx, ebx
  00038	ff d7		 call	 edi

; 1434 : 
; 1435 : 		// 
; 1436 : 		ioUserEtcItem *pUserEtcItem = g_MyInfo.GetUserEtcItem();

  0003a	e8 00 00 00 00	 call	 ?GetSingleton@ioMyInfo@@SAAAV1@XZ ; ioMyInfo::GetSingleton
  0003f	05 44 01 00 00	 add	 eax, 324		; 00000144H

; 1437 : 		if( !pUserEtcItem )

  00044	75 7f		 jne	 SHORT $LN11@ReBatchBut@2

; 1438 : 		{
; 1439 : 			ioButton *pButton = dynamic_cast<ioButton*>(FindChildWnd(ID_GO));

  00046	56		 push	 esi
  00047	68 00 00 00 00	 push	 OFFSET ??_R0?AVioButton@@@8
  0004c	68 00 00 00 00	 push	 OFFSET ??_R0?AVioWnd@@@8
  00051	56		 push	 esi
  00052	8b cb		 mov	 ecx, ebx
$LN24@ReBatchBut@2:
  00054	6a 03		 push	 3
  00056	ff 15 00 00 00
	00		 call	 DWORD PTR __imp_?FindChildWnd@ioWnd@@QAEPAV1@K@Z
  0005c	50		 push	 eax
  0005d	e8 00 00 00 00	 call	 ___RTDynamicCast
  00062	8b f8		 mov	 edi, eax
  00064	83 c4 14	 add	 esp, 20			; 00000014H

; 1440 : 			if( pButton )

  00067	3b fe		 cmp	 edi, esi
  00069	0f 84 8a 01 00
	00		 je	 $LN14@ReBatchBut@2

; 1441 : 			{
; 1442 : 				pButton->SetSize( ONE_BTN_SIZE, pButton->GetHeight() );

  0006f	8b 1f		 mov	 ebx, DWORD PTR [edi]
  00071	8b cf		 mov	 ecx, edi
  00073	ff 15 00 00 00
	00		 call	 DWORD PTR __imp_?GetHeight@ioWnd@@QBEHXZ
  00079	50		 push	 eax
  0007a	68 cc 00 00 00	 push	 204			; 000000ccH
  0007f	8b cf		 mov	 ecx, edi
  00081	ff 53 2c	 call	 DWORD PTR [ebx+44]

; 1443 : 				pButton->SetWndPos( ONE_BTN_X, pButton->GetYPos() );

  00084	8b cf		 mov	 ecx, edi
  00086	ff 15 00 00 00
	00		 call	 DWORD PTR __imp_?GetYPos@ioWnd@@QBEHXZ
  0008c	50		 push	 eax
  0008d	6a 1b		 push	 27			; 0000001bH
  0008f	8b cf		 mov	 ecx, edi
  00091	ff 15 00 00 00
	00		 call	 DWORD PTR __imp_?SetWndPos@ioWnd@@QAEXHH@Z

; 1444 : 
; 1445 : 				ioUITitle *pTitle =  pButton->GetTitle();

  00097	8b cf		 mov	 ecx, edi
  00099	ff 15 00 00 00
	00		 call	 DWORD PTR __imp_?GetTitle@ioWnd@@QBEPAVioUITitle@@XZ
  0009f	8b d8		 mov	 ebx, eax

; 1446 : 				if( pTitle )

  000a1	3b de		 cmp	 ebx, esi
  000a3	74 13		 je	 SHORT $LN9@ReBatchBut@2

; 1447 : 				{
; 1448 : 					pTitle->SetOffset( ONE_TEXT_X, pTitle->GetTextYOffSet() );

  000a5	8b cb		 mov	 ecx, ebx
  000a7	ff 15 00 00 00
	00		 call	 DWORD PTR __imp_?GetTextYOffSet@ioUITitle@@QBEHXZ
  000ad	50		 push	 eax
  000ae	6a 66		 push	 102			; 00000066H
$LN22@ReBatchBut@2:
  000b0	8b cb		 mov	 ecx, ebx
  000b2	ff 15 00 00 00
	00		 call	 DWORD PTR __imp_?SetOffset@ioUITitle@@QAEXHH@Z
$LN9@ReBatchBut@2:

; 1449 : 				}
; 1450 : 
; 1451 : 				pButton->ShowWnd();

  000b8	8b cf		 mov	 ecx, edi
  000ba	ff 15 00 00 00
	00		 call	 DWORD PTR __imp_?ShowWnd@ioWnd@@QAEXXZ

; 1452 : 			}
; 1453 : 			break;

  000c0	e9 34 01 00 00	 jmp	 $LN14@ReBatchBut@2
$LN11@ReBatchBut@2:

; 1454 : 		}
; 1455 : 
; 1456 : 		ioUserEtcItem::ETCITEMSLOT kSlot;
; 1457 : 		if( !pUserEtcItem->GetEtcItem( m_dwEtcItemCode, kSlot) )

  000c5	8d 4d f0	 lea	 ecx, DWORD PTR _kSlot$512955[ebp]
  000c8	51		 push	 ecx
  000c9	ff b3 b0 01 00
	00		 push	 DWORD PTR [ebx+432]
  000cf	8b c8		 mov	 ecx, eax
  000d1	89 75 f0	 mov	 DWORD PTR _kSlot$512955[ebp], esi
  000d4	89 75 f4	 mov	 DWORD PTR _kSlot$512955[ebp+4], esi
  000d7	89 75 f8	 mov	 DWORD PTR _kSlot$512955[ebp+8], esi
  000da	e8 00 00 00 00	 call	 ?GetEtcItem@ioUserEtcItem@@QAE_NHAAUETCITEMSLOT@1@@Z ; ioUserEtcItem::GetEtcItem

; 1458 : 		{
; 1459 : 			ioButton *pButton = dynamic_cast<ioButton*>(FindChildWnd(ID_GO));

  000df	56		 push	 esi
  000e0	68 00 00 00 00	 push	 OFFSET ??_R0?AVioButton@@@8
  000e5	68 00 00 00 00	 push	 OFFSET ??_R0?AVioWnd@@@8
  000ea	8b cb		 mov	 ecx, ebx
  000ec	56		 push	 esi
  000ed	84 c0		 test	 al, al

; 1460 : 			if( pButton )
; 1461 : 			{
; 1462 : 				pButton->SetSize( ONE_BTN_SIZE, pButton->GetHeight() );
; 1463 : 				pButton->SetWndPos( ONE_BTN_X, pButton->GetYPos() );
; 1464 : 
; 1465 : 				ioUITitle *pTitle =  pButton->GetTitle();
; 1466 : 				if( pTitle )
; 1467 : 				{
; 1468 : 					pTitle->SetOffset( ONE_TEXT_X, pTitle->GetTextYOffSet() );
; 1469 : 				}
; 1470 : 
; 1471 : 				pButton->ShowWnd();
; 1472 : 			}
; 1473 : 		}
; 1474 : 		else

  000ef	0f 84 5f ff ff
	ff		 je	 $LN24@ReBatchBut@2

; 1475 : 		{
; 1476 : 			ioButton *pButton = dynamic_cast<ioButton*>(FindChildWnd(ID_USE));

  000f5	8b 1d 00 00 00
	00		 mov	 ebx, DWORD PTR __imp_?FindChildWnd@ioWnd@@QAEPAV1@K@Z
  000fb	6a 02		 push	 2
  000fd	ff d3		 call	 ebx
  000ff	50		 push	 eax
  00100	e8 00 00 00 00	 call	 ___RTDynamicCast
  00105	8b f8		 mov	 edi, eax
  00107	83 c4 14	 add	 esp, 20			; 00000014H

; 1477 : 			if( pButton )

  0010a	3b fe		 cmp	 edi, esi
  0010c	74 56		 je	 SHORT $LN4@ReBatchBut@2

; 1478 : 			{
; 1479 : 				pButton->SetSize( TWO_BTN_SIZE, pButton->GetHeight() );

  0010e	8b 07		 mov	 eax, DWORD PTR [edi]
  00110	8b cf		 mov	 ecx, edi
  00112	89 45 08	 mov	 DWORD PTR tv467[ebp], eax
  00115	ff 15 00 00 00
	00		 call	 DWORD PTR __imp_?GetHeight@ioWnd@@QBEHXZ
  0011b	50		 push	 eax
  0011c	8b 45 08	 mov	 eax, DWORD PTR tv467[ebp]
  0011f	6a 66		 push	 102			; 00000066H
  00121	8b cf		 mov	 ecx, edi
  00123	ff 50 2c	 call	 DWORD PTR [eax+44]

; 1480 : 				pButton->SetWndPos( ONE_BTN_X, pButton->GetYPos() );

  00126	8b cf		 mov	 ecx, edi
  00128	ff 15 00 00 00
	00		 call	 DWORD PTR __imp_?GetYPos@ioWnd@@QBEHXZ
  0012e	50		 push	 eax
  0012f	6a 1b		 push	 27			; 0000001bH
  00131	8b cf		 mov	 ecx, edi
  00133	ff 15 00 00 00
	00		 call	 DWORD PTR __imp_?SetWndPos@ioWnd@@QAEXHH@Z

; 1481 : 
; 1482 : 				ioUITitle *pTitle =  pButton->GetTitle();

  00139	8b cf		 mov	 ecx, edi
  0013b	ff 15 00 00 00
	00		 call	 DWORD PTR __imp_?GetTitle@ioWnd@@QBEPAVioUITitle@@XZ
  00141	8b c8		 mov	 ecx, eax
  00143	89 4d 08	 mov	 DWORD PTR _pTitle$512966[ebp], ecx

; 1483 : 				if( pTitle )

  00146	3b ce		 cmp	 ecx, esi
  00148	74 12		 je	 SHORT $LN3@ReBatchBut@2

; 1484 : 				{
; 1485 : 					pTitle->SetOffset( TWO_TEXT_X, pTitle->GetTextYOffSet() );

  0014a	ff 15 00 00 00
	00		 call	 DWORD PTR __imp_?GetTextYOffSet@ioUITitle@@QBEHXZ
  00150	8b 4d 08	 mov	 ecx, DWORD PTR _pTitle$512966[ebp]
  00153	50		 push	 eax
  00154	6a 33		 push	 51			; 00000033H
  00156	ff 15 00 00 00
	00		 call	 DWORD PTR __imp_?SetOffset@ioUITitle@@QAEXHH@Z
$LN3@ReBatchBut@2:

; 1486 : 				}
; 1487 : 
; 1488 : 				pButton->ShowWnd();

  0015c	8b cf		 mov	 ecx, edi
  0015e	ff 15 00 00 00
	00		 call	 DWORD PTR __imp_?ShowWnd@ioWnd@@QAEXXZ
$LN4@ReBatchBut@2:

; 1489 : 			}
; 1490 : 
; 1491 : 			pButton = dynamic_cast<ioButton*>(FindChildWnd(ID_GO));

  00164	8b 4d fc	 mov	 ecx, DWORD PTR _this$[ebp]
  00167	56		 push	 esi
  00168	68 00 00 00 00	 push	 OFFSET ??_R0?AVioButton@@@8
  0016d	68 00 00 00 00	 push	 OFFSET ??_R0?AVioWnd@@@8
  00172	56		 push	 esi
  00173	6a 03		 push	 3
  00175	ff d3		 call	 ebx
  00177	50		 push	 eax
  00178	e8 00 00 00 00	 call	 ___RTDynamicCast
  0017d	8b f8		 mov	 edi, eax
  0017f	83 c4 14	 add	 esp, 20			; 00000014H

; 1492 : 			if( pButton )

  00182	3b fe		 cmp	 edi, esi
  00184	74 73		 je	 SHORT $LN14@ReBatchBut@2

; 1493 : 			{
; 1494 : 				pButton->SetSize( TWO_BTN_SIZE, pButton->GetHeight() );

  00186	8b 1f		 mov	 ebx, DWORD PTR [edi]
  00188	8b cf		 mov	 ecx, edi
  0018a	ff 15 00 00 00
	00		 call	 DWORD PTR __imp_?GetHeight@ioWnd@@QBEHXZ
  00190	50		 push	 eax
  00191	6a 66		 push	 102			; 00000066H
  00193	8b cf		 mov	 ecx, edi
  00195	ff 53 2c	 call	 DWORD PTR [ebx+44]

; 1495 : 				pButton->SetWndPos( TWO_BTN_X, pButton->GetYPos() );

  00198	8b cf		 mov	 ecx, edi
  0019a	ff 15 00 00 00
	00		 call	 DWORD PTR __imp_?GetYPos@ioWnd@@QBEHXZ
  001a0	50		 push	 eax
  001a1	68 83 00 00 00	 push	 131			; 00000083H
  001a6	8b cf		 mov	 ecx, edi
  001a8	ff 15 00 00 00
	00		 call	 DWORD PTR __imp_?SetWndPos@ioWnd@@QAEXHH@Z

; 1496 : 
; 1497 : 				ioUITitle *pTitle =  pButton->GetTitle();

  001ae	8b cf		 mov	 ecx, edi
  001b0	ff 15 00 00 00
	00		 call	 DWORD PTR __imp_?GetTitle@ioWnd@@QBEPAVioUITitle@@XZ
  001b6	8b d8		 mov	 ebx, eax

; 1498 : 				if( pTitle )

  001b8	3b de		 cmp	 ebx, esi
  001ba	0f 84 f8 fe ff
	ff		 je	 $LN9@ReBatchBut@2

; 1499 : 				{
; 1500 : 					pTitle->SetOffset( TWO_TEXT_X, pTitle->GetTextYOffSet() );

  001c0	8b cb		 mov	 ecx, ebx
  001c2	ff 15 00 00 00
	00		 call	 DWORD PTR __imp_?GetTextYOffSet@ioUITitle@@QBEHXZ
  001c8	50		 push	 eax
  001c9	6a 33		 push	 51			; 00000033H

; 1501 : 				}
; 1502 : 
; 1503 : 				pButton->ShowWnd();
; 1504 : 			}
; 1505 : 		}
; 1506 : 		break;

  001cb	e9 e0 fe ff ff	 jmp	 $LN22@ReBatchBut@2
$LN13@ReBatchBut@2:

; 1422 : 	{
; 1423 : 	case ROLLING_BTN:
; 1424 : 		ShowChildWnd(ID_ROLLING);

  001d0	33 f6		 xor	 esi, esi
  001d2	56		 push	 esi
  001d3	6a 01		 push	 1
  001d5	ff 15 00 00 00
	00		 call	 DWORD PTR __imp_?ShowChildWnd@ioWnd@@QAEXK_N@Z

; 1425 : 		SetChildInActive(ID_ROLLING);

  001db	6a 01		 push	 1
  001dd	8b cb		 mov	 ecx, ebx
  001df	ff 15 00 00 00
	00		 call	 DWORD PTR __imp_?SetChildInActive@ioWnd@@QAEXK@Z

; 1426 : 
; 1427 : 		HideChildWnd(ID_USE);

  001e5	8b 3d 00 00 00
	00		 mov	 edi, DWORD PTR __imp_?HideChildWnd@ioWnd@@QAEXK_N@Z
  001eb	56		 push	 esi
  001ec	6a 02		 push	 2
  001ee	8b cb		 mov	 ecx, ebx
  001f0	ff d7		 call	 edi

; 1428 : 		HideChildWnd(ID_GO);

  001f2	56		 push	 esi
  001f3	6a 03		 push	 3
  001f5	8b cb		 mov	 ecx, ebx
  001f7	ff d7		 call	 edi
$LN14@ReBatchBut@2:
  001f9	5f		 pop	 edi
  001fa	5e		 pop	 esi
  001fb	5b		 pop	 ebx

; 1507 : 	}
; 1508 : }

  001fc	c9		 leave
  001fd	c2 04 00	 ret	 4
?ReBatchButton@ItemGrowthCatalystResultWnd@@IAEXH@Z ENDP ; ItemGrowthCatalystResultWnd::ReBatchButton
_TEXT	ENDS
PUBLIC	??_C@_0CF@MEKACOLG@ItemCompoundExResultWnd?3?3iwm_com@ ; `string'
PUBLIC	?iwm_command@ItemCompoundExResultWnd@@UAEXPAVioWnd@@HK@Z ; ItemCompoundExResultWnd::iwm_command
;	COMDAT ??_C@_0CF@MEKACOLG@ItemCompoundExResultWnd?3?3iwm_com@
; File d:\lost saga for developer\youtube\tutorial\source\src\io3dengine\iosingleton.h
CONST	SEGMENT
??_C@_0CF@MEKACOLG@ItemCompoundExResultWnd?3?3iwm_com@ DB 'ItemCompoundEx'
	DB	'ResultWnd::iwm_command', 00H		; `string'
; Function compile flags: /Ogsp
; File d:\lost saga for developer\youtube\tutorial\source\src\lsclient\gui\itemcompoundresultwnd.cpp
CONST	ENDS
;	COMDAT ?iwm_command@ItemCompoundExResultWnd@@UAEXPAVioWnd@@HK@Z
_TEXT	SEGMENT
_pWnd$ = 8						; size = 4
_cmd$ = 12						; size = 4
_param$ = 16						; size = 4
?iwm_command@ItemCompoundExResultWnd@@UAEXPAVioWnd@@HK@Z PROC ; ItemCompoundExResultWnd::iwm_command, COMDAT
; _this$ = ecx

; 1985 : {

  00000	55		 push	 ebp
  00001	8b ec		 mov	 ebp, esp
  00003	56		 push	 esi
  00004	8b f1		 mov	 esi, ecx

; 1986 : 	DWORD dwID = pWnd->GetID();

  00006	8b 4d 08	 mov	 ecx, DWORD PTR _pWnd$[ebp]
  00009	ff 15 00 00 00
	00		 call	 DWORD PTR __imp_?GetID@ioWnd@@QBEKXZ

; 1987 : 
; 1988 : 	switch( dwID )

  0000f	48		 dec	 eax
  00010	48		 dec	 eax
  00011	74 64		 je	 SHORT $LN4@iwm_comman@3
  00013	48		 dec	 eax
  00014	0f 85 c7 00 00
	00		 jne	 $LN2@iwm_comman@3

; 1989 : 	{
; 1990 : 	case ID_GO:
; 1991 : 		if( cmd == IOBN_BTNUP )

  0001a	83 7d 0c 11	 cmp	 DWORD PTR _cmd$[ebp], 17 ; 00000011H
  0001e	0f 85 bd 00 00
	00		 jne	 $LN2@iwm_comman@3

; 1992 : 		{
; 1993 : 			HideWnd();

  00024	8b ce		 mov	 ecx, esi
  00026	ff 15 00 00 00
	00		 call	 DWORD PTR __imp_?HideWnd@ioWnd@@QAEXXZ

; 1994 : 
; 1995 : 			MyInventoryWnd *pInvenWnd = dynamic_cast<MyInventoryWnd*>(g_GUIMgr.FindWnd(MY_INVENTORY_WND));

  0002c	6a 00		 push	 0
  0002e	68 00 00 00 00	 push	 OFFSET ??_R0?AVMyInventoryWnd@@@8
  00033	68 00 00 00 00	 push	 OFFSET ??_R0?AVioWnd@@@8
  00038	6a 00		 push	 0
  0003a	68 96 17 00 00	 push	 6038			; 00001796H
  0003f	e8 00 00 00 00	 call	 ?GetSingleton@ioSP2GUIManager@@SAAAV1@XZ ; ioSP2GUIManager::GetSingleton
  00044	8b c8		 mov	 ecx, eax
  00046	ff 15 00 00 00
	00		 call	 DWORD PTR __imp_?FindWnd@ioGUIManager@@QAEPAVioWnd@@K@Z
  0004c	50		 push	 eax
  0004d	e8 00 00 00 00	 call	 ___RTDynamicCast
  00052	8b f0		 mov	 esi, eax
  00054	83 c4 14	 add	 esp, 20			; 00000014H

; 1996 : 			if( pInvenWnd )

  00057	85 f6		 test	 esi, esi
  00059	0f 84 82 00 00
	00		 je	 $LN2@iwm_comman@3

; 1997 : 			{
; 1998 : 				pInvenWnd->ShowExtraItemTabDirect( g_MyInfo.GetClassType() );

  0005f	6a ff		 push	 -1
  00061	e8 00 00 00 00	 call	 ?GetSingleton@ioMyInfo@@SAAAV1@XZ ; ioMyInfo::GetSingleton
  00066	8b c8		 mov	 ecx, eax
  00068	e8 00 00 00 00	 call	 ?GetClassType@ioMyInfo@@QAEHXZ ; ioMyInfo::GetClassType
  0006d	50		 push	 eax
  0006e	8b ce		 mov	 ecx, esi
  00070	e8 00 00 00 00	 call	 ?ShowExtraItemTabDirect@MyInventoryWnd@@QAEXHH@Z ; MyInventoryWnd::ShowExtraItemTabDirect

; 1999 : 			}
; 2000 : 		}
; 2001 : 		break;

  00075	eb 6a		 jmp	 SHORT $LN2@iwm_comman@3
$LN4@iwm_comman@3:

; 2002 : 	case ID_USE:
; 2003 : 		if( cmd == IOBN_BTNUP )

  00077	83 7d 0c 11	 cmp	 DWORD PTR _cmd$[ebp], 17 ; 00000011H
  0007b	75 64		 jne	 SHORT $LN2@iwm_comman@3

; 2004 : 		{
; 2005 : 			ioUserEtcItem *pUserEtcItem =  g_MyInfo.GetUserEtcItem();

  0007d	53		 push	 ebx
  0007e	e8 00 00 00 00	 call	 ?GetSingleton@ioMyInfo@@SAAAV1@XZ ; ioMyInfo::GetSingleton
  00083	8b d8		 mov	 ebx, eax
  00085	81 c3 44 01 00
	00		 add	 ebx, 324		; 00000144H

; 2006 : 			if( pUserEtcItem )

  0008b	74 53		 je	 SHORT $LN16@iwm_comman@3

; 2007 : 			{
; 2008 : 				ioEtcItem *pEtcItem = g_EtcItemMgr.FindEtcItem( m_dwEtcItemCode );

  0008d	8b 0d 00 00 00
	00		 mov	 ecx, DWORD PTR ?ms_Singleton@?$Singleton@VioEtcItemManager@@@@1PAVioEtcItemManager@@A ; Singleton<ioEtcItemManager>::ms_Singleton
  00093	57		 push	 edi
  00094	ff b6 ac 01 00
	00		 push	 DWORD PTR [esi+428]
  0009a	e8 00 00 00 00	 call	 ?FindEtcItem@ioEtcItemManager@@QAEPAVioEtcItem@@K@Z ; ioEtcItemManager::FindEtcItem
  0009f	8b f8		 mov	 edi, eax

; 2009 : 				if( !pEtcItem )

  000a1	85 ff		 test	 edi, edi
  000a3	75 22		 jne	 SHORT $LN1@iwm_comman@3

; 2010 : 				{
; 2011 : 					LOG.PrintTimeAndLog( 0, "%s pEtcItem == NULL : %d", __FUNCTION__, m_dwEtcItemCode );

  000a5	ff b6 ac 01 00
	00		 push	 DWORD PTR [esi+428]
  000ab	68 00 00 00 00	 push	 OFFSET ??_C@_0CF@MEKACOLG@ItemCompoundExResultWnd?3?3iwm_com@
  000b0	68 00 00 00 00	 push	 OFFSET ??_C@_0BJ@MBKFFGIH@?$CFs?5pEtcItem?5?$DN?$DN?5NULL?5?3?5?$CFd?$AA@
  000b5	50		 push	 eax
  000b6	ff 35 00 00 00
	00		 push	 DWORD PTR __imp_?LOG@@3VCLog@@A
  000bc	ff 15 00 00 00
	00		 call	 DWORD PTR __imp_?PrintTimeAndLog@CLog@@QAAXHPADZZ
  000c2	83 c4 14	 add	 esp, 20			; 00000014H

; 2012 : 					return;

  000c5	eb 18		 jmp	 SHORT $LN17@iwm_comman@3
$LN1@iwm_comman@3:

; 2013 : 				}
; 2014 : 				HideWnd();

  000c7	8b ce		 mov	 ecx, esi
  000c9	ff 15 00 00 00
	00		 call	 DWORD PTR __imp_?HideWnd@ioWnd@@QAEXXZ

; 2015 : 
; 2016 : 				pEtcItem->OnUseBtnPush( m_dwEtcItemCode, pUserEtcItem );

  000cf	8b 07		 mov	 eax, DWORD PTR [edi]
  000d1	6a 01		 push	 1
  000d3	53		 push	 ebx
  000d4	ff b6 ac 01 00
	00		 push	 DWORD PTR [esi+428]
  000da	8b cf		 mov	 ecx, edi
  000dc	ff 50 20	 call	 DWORD PTR [eax+32]
$LN17@iwm_comman@3:
  000df	5f		 pop	 edi
$LN16@iwm_comman@3:
  000e0	5b		 pop	 ebx
$LN2@iwm_comman@3:
  000e1	5e		 pop	 esi

; 2017 : 			}
; 2018 : 		}
; 2019 : 		break;
; 2020 : 	}
; 2021 : }

  000e2	5d		 pop	 ebp
  000e3	c2 0c 00	 ret	 12			; 0000000cH
?iwm_command@ItemCompoundExResultWnd@@UAEXPAVioWnd@@HK@Z ENDP ; ItemCompoundExResultWnd::iwm_command
_TEXT	ENDS
PUBLIC	?PrintManual@ItemCompoundExResultWnd@@IAEXHHM@Z	; ItemCompoundExResultWnd::PrintManual
;	COMDAT xdata$x
; File d:\lost saga for developer\youtube\tutorial\source\src\lsclient\ioetcitem.h
xdata$x	SEGMENT
__unwindtable$?PrintManual@ItemCompoundExResultWnd@@IAEXHHM@Z DD 0ffffffffH
	DD	FLAT:__unwindfunclet$?PrintManual@ItemCompoundExResultWnd@@IAEXHHM@Z$0
__ehfuncinfo$?PrintManual@ItemCompoundExResultWnd@@IAEXHHM@Z DD 019930522H
	DD	01H
	DD	FLAT:__unwindtable$?PrintManual@ItemCompoundExResultWnd@@IAEXHHM@Z
	DD	2 DUP(00H)
	DD	2 DUP(00H)
	DD	00H
	DD	01H
; Function compile flags: /Ogsp
; File d:\lost saga for developer\youtube\tutorial\source\src\lsclient\gui\itemcompoundresultwnd.cpp
xdata$x	ENDS
;	COMDAT ?PrintManual@ItemCompoundExResultWnd@@IAEXHHM@Z
_TEXT	SEGMENT
_kPrinter$ = -48					; size = 32
_iMaxLine$ = -16					; size = 4
__$EHRec$ = -12						; size = 12
tv196 = 8						; size = 4
_a_iXPos$ = 8						; size = 4
_a_iYPos$ = 12						; size = 4
_fScale$ = 16						; size = 4
?PrintManual@ItemCompoundExResultWnd@@IAEXHHM@Z PROC	; ItemCompoundExResultWnd::PrintManual, COMDAT
; _this$ = ecx

; 2024 : {

  00000	6a 24		 push	 36			; 00000024H
  00002	b8 00 00 00 00	 mov	 eax, __ehhandler$?PrintManual@ItemCompoundExResultWnd@@IAEXHHM@Z
  00007	e8 00 00 00 00	 call	 __EH_prolog3
  0000c	8b f1		 mov	 esi, ecx

; 2025 : 	if( !m_pManual )

  0000e	83 be 70 01 00
	00 00		 cmp	 DWORD PTR [esi+368], 0
  00015	0f 84 c9 00 00
	00		 je	 $LN6@PrintManua@4

; 2026 : 		return;
; 2027 : 
; 2028 : 	ioEtcItem *pItem = NULL;
; 2029 : 	pItem = g_EtcItemMgr.FindEtcItem( m_dwEtcItemCode );

  0001b	ff b6 ac 01 00
	00		 push	 DWORD PTR [esi+428]
  00021	8b 0d 00 00 00
	00		 mov	 ecx, DWORD PTR ?ms_Singleton@?$Singleton@VioEtcItemManager@@@@1PAVioEtcItemManager@@A ; Singleton<ioEtcItemManager>::ms_Singleton
  00027	e8 00 00 00 00	 call	 ?FindEtcItem@ioEtcItemManager@@QAEPAVioEtcItem@@K@Z ; ioEtcItemManager::FindEtcItem

; 2030 : 
; 2031 : 	if( !pItem ) return;

  0002c	85 c0		 test	 eax, eax
  0002e	0f 84 b0 00 00
	00		 je	 $LN6@PrintManua@4

; 2032 : 
; 2033 : 	int iSubManual = pItem->GetInventorySubManual() - 1;

  00034	8b 78 4c	 mov	 edi, DWORD PTR [eax+76]

; 2034 : 	ioComplexStringPrinter kPrinter;

  00037	8d 4d d0	 lea	 ecx, DWORD PTR _kPrinter$[ebp]
  0003a	4f		 dec	 edi
  0003b	e8 00 00 00 00	 call	 ??0ioComplexStringPrinter@@QAE@XZ ; ioComplexStringPrinter::ioComplexStringPrinter

; 2035 : 	int iMaxLine = m_pManual->GetMaxLine( iSubManual );

  00040	8b 8e 70 01 00
	00		 mov	 ecx, DWORD PTR [esi+368]
  00046	8b 01		 mov	 eax, DWORD PTR [ecx]
  00048	83 65 fc 00	 and	 DWORD PTR __$EHRec$[ebp+8], 0
  0004c	57		 push	 edi
  0004d	ff 50 08	 call	 DWORD PTR [eax+8]

; 2036 : 	for(int iLine = 1; iLine < iMaxLine; iLine++)

  00050	33 db		 xor	 ebx, ebx
  00052	43		 inc	 ebx
  00053	89 45 f0	 mov	 DWORD PTR _iMaxLine$[ebp], eax
  00056	3b c3		 cmp	 eax, ebx
  00058	7e 7e		 jle	 SHORT $LN1@PrintManua@4
  0005a	66 0f 6e 45 08	 movd	 xmm0, DWORD PTR _a_iXPos$[ebp]
  0005f	0f 5b c0	 cvtdq2ps xmm0, xmm0
  00062	f3 0f 11 45 08	 movss	 DWORD PTR tv196[ebp], xmm0
$LL3@PrintManua@4:

; 2037 : 	{
; 2038 : 		m_pManual->SetPrinter( iSubManual, iLine, fScale, kPrinter);

  00067	8b 8e 70 01 00
	00		 mov	 ecx, DWORD PTR [esi+368]
  0006d	f3 0f 10 45 10	 movss	 xmm0, DWORD PTR _fScale$[ebp]
  00072	8b 01		 mov	 eax, DWORD PTR [ecx]
  00074	8d 55 d0	 lea	 edx, DWORD PTR _kPrinter$[ebp]
  00077	52		 push	 edx
  00078	51		 push	 ecx
  00079	f3 0f 11 04 24	 movss	 DWORD PTR [esp], xmm0
  0007e	53		 push	 ebx
  0007f	57		 push	 edi
  00080	ff 50 10	 call	 DWORD PTR [eax+16]

; 2039 : 		a_iYPos += m_pManual->GetSpaceLine( iSubManual, iLine);

  00083	8b 8e 70 01 00
	00		 mov	 ecx, DWORD PTR [esi+368]
  00089	8b 01		 mov	 eax, DWORD PTR [ecx]
  0008b	53		 push	 ebx
  0008c	57		 push	 edi
  0008d	ff 50 0c	 call	 DWORD PTR [eax+12]

; 2040 : 		kPrinter.PrintFullTextWidthCut( a_iXPos, a_iYPos, TAT_LEFT, DESC_WIDTH );

  00090	f3 0f 10 05 00
	00 00 00	 movss	 xmm0, DWORD PTR __real@434c0000
  00098	01 45 0c	 add	 DWORD PTR _a_iYPos$[ebp], eax
  0009b	68 ff 00 00 00	 push	 255			; 000000ffH
  000a0	51		 push	 ecx
  000a1	f3 0f 11 04 24	 movss	 DWORD PTR [esp], xmm0
  000a6	66 0f 6e 45 0c	 movd	 xmm0, DWORD PTR _a_iYPos$[ebp]
  000ab	6a 00		 push	 0
  000ad	51		 push	 ecx
  000ae	51		 push	 ecx
  000af	0f 5b c0	 cvtdq2ps xmm0, xmm0
  000b2	f3 0f 11 44 24
	04		 movss	 DWORD PTR [esp+4], xmm0
  000b8	f3 0f 10 45 08	 movss	 xmm0, DWORD PTR tv196[ebp]
  000bd	8d 4d d0	 lea	 ecx, DWORD PTR _kPrinter$[ebp]
  000c0	f3 0f 11 04 24	 movss	 DWORD PTR [esp], xmm0
  000c5	e8 00 00 00 00	 call	 ?PrintFullTextWidthCut@ioComplexStringPrinter@@QAEXMMW4TextAlignType@@ME@Z ; ioComplexStringPrinter::PrintFullTextWidthCut

; 2041 : 		kPrinter.ClearList();

  000ca	8d 4d d0	 lea	 ecx, DWORD PTR _kPrinter$[ebp]
  000cd	e8 00 00 00 00	 call	 ?ClearList@ioComplexStringPrinter@@QAEXXZ ; ioComplexStringPrinter::ClearList
  000d2	43		 inc	 ebx
  000d3	3b 5d f0	 cmp	 ebx, DWORD PTR _iMaxLine$[ebp]
  000d6	7c 8f		 jl	 SHORT $LL3@PrintManua@4
$LN1@PrintManua@4:

; 2042 : 	}
; 2043 : }

  000d8	83 4d fc ff	 or	 DWORD PTR __$EHRec$[ebp+8], -1
  000dc	8d 4d d0	 lea	 ecx, DWORD PTR _kPrinter$[ebp]
  000df	e8 00 00 00 00	 call	 ??1ioComplexStringPrinter@@QAE@XZ ; ioComplexStringPrinter::~ioComplexStringPrinter
$LN6@PrintManua@4:
  000e4	e8 00 00 00 00	 call	 __EH_epilog3
  000e9	c2 0c 00	 ret	 12			; 0000000cH
_TEXT	ENDS
;	COMDAT text$x
text$x	SEGMENT
__unwindfunclet$?PrintManual@ItemCompoundExResultWnd@@IAEXHHM@Z$0:
  00000	8d 4d d0	 lea	 ecx, DWORD PTR _kPrinter$[ebp]
  00003	e9 00 00 00 00	 jmp	 ??1ioComplexStringPrinter@@QAE@XZ ; ioComplexStringPrinter::~ioComplexStringPrinter
__ehhandler$?PrintManual@ItemCompoundExResultWnd@@IAEXHHM@Z:
  00008	8b 54 24 08	 mov	 edx, DWORD PTR [esp+8]
  0000c	8d 42 0c	 lea	 eax, DWORD PTR [edx+12]
  0000f	8b 4a cc	 mov	 ecx, DWORD PTR [edx-52]
  00012	33 c8		 xor	 ecx, eax
  00014	e8 00 00 00 00	 call	 @__security_check_cookie@4
  00019	b8 00 00 00 00	 mov	 eax, OFFSET __ehfuncinfo$?PrintManual@ItemCompoundExResultWnd@@IAEXHHM@Z
  0001e	e9 00 00 00 00	 jmp	 ___CxxFrameHandler3
text$x	ENDS
?PrintManual@ItemCompoundExResultWnd@@IAEXHHM@Z ENDP	; ItemCompoundExResultWnd::PrintManual
PUBLIC	?RollingEffect@ItemCompoundExResultWnd@@IAEXM@Z	; ItemCompoundExResultWnd::RollingEffect
;	COMDAT xdata$x
; File c:\program files (x86)\microsoft visual studio 10.0\vc\include\vector
xdata$x	SEGMENT
__unwindtable$?RollingEffect@ItemCompoundExResultWnd@@IAEXM@Z DD 0ffffffffH
	DD	FLAT:__unwindfunclet$?RollingEffect@ItemCompoundExResultWnd@@IAEXM@Z$0
	DD	0ffffffffH
	DD	FLAT:__unwindfunclet$?RollingEffect@ItemCompoundExResultWnd@@IAEXM@Z$1
__ehfuncinfo$?RollingEffect@ItemCompoundExResultWnd@@IAEXM@Z DD 019930522H
	DD	02H
	DD	FLAT:__unwindtable$?RollingEffect@ItemCompoundExResultWnd@@IAEXM@Z
	DD	2 DUP(00H)
	DD	2 DUP(00H)
	DD	00H
	DD	01H
; Function compile flags: /Ogsp
; File d:\lost saga for developer\youtube\tutorial\source\src\lsclient\gui\itemcompoundresultwnd.cpp
xdata$x	ENDS
;	COMDAT ?RollingEffect@ItemCompoundExResultWnd@@IAEXM@Z
_TEXT	SEGMENT
_szEffect$514913 = -48					; size = 16
_szEffect$514901 = -32					; size = 16
_dwCurTime$ = -16					; size = 4
__$EHRec$ = -12						; size = 12
_fTimePerSec$ = 8					; size = 4
?RollingEffect@ItemCompoundExResultWnd@@IAEXM@Z PROC	; ItemCompoundExResultWnd::RollingEffect, COMDAT
; _this$ = ecx

; 2046 : {

  00000	6a 24		 push	 36			; 00000024H
  00002	b8 00 00 00 00	 mov	 eax, __ehhandler$?RollingEffect@ItemCompoundExResultWnd@@IAEXM@Z
  00007	e8 00 00 00 00	 call	 __EH_prolog3
  0000c	8b f1		 mov	 esi, ecx

; 2047 : 	DWORD dwCurTime = FRAMEGETTIME();

  0000e	ff 15 00 00 00
	00		 call	 DWORD PTR __imp_?GetSingleton@ioFrameTimer@@SAAAV1@XZ
  00014	8b c8		 mov	 ecx, eax
  00016	ff 15 00 00 00
	00		 call	 DWORD PTR __imp_?GetLoopSec@ioFrameTimer@@QBEKXZ

; 2048 : 
; 2049 : 	int iEffectListCnt = m_vRollingEffect.size();

  0001c	8b be 80 01 00
	00		 mov	 edi, DWORD PTR [esi+384]
  00022	2b be 7c 01 00
	00		 sub	 edi, DWORD PTR [esi+380]

; 2050 : 	if( m_bResult )

  00028	8a 8e b0 01 00
	00		 mov	 cl, BYTE PTR [esi+432]
  0002e	c1 ff 04	 sar	 edi, 4
  00031	89 45 f0	 mov	 DWORD PTR _dwCurTime$[ebp], eax
  00034	84 c9		 test	 cl, cl
  00036	74 26		 je	 SHORT $LN21@RollingEff@3

; 2051 : 	{
; 2052 : 		if( m_bSuccess )

  00038	80 be b1 01 00
	00 00		 cmp	 BYTE PTR [esi+433], 0
  0003f	74 0e		 je	 SHORT $LN22@RollingEff@3

; 2053 : 			iEffectListCnt = m_vEndEfffect_S.size();

  00041	8b be 90 01 00
	00		 mov	 edi, DWORD PTR [esi+400]
  00047	2b be 8c 01 00
	00		 sub	 edi, DWORD PTR [esi+396]

; 2054 : 		else

  0004d	eb 0c		 jmp	 SHORT $LN49@RollingEff@3
$LN22@RollingEff@3:

; 2055 : 			iEffectListCnt = m_vEndEfffect_F.size();

  0004f	8b be a0 01 00
	00		 mov	 edi, DWORD PTR [esi+416]
  00055	2b be 9c 01 00
	00		 sub	 edi, DWORD PTR [esi+412]
$LN49@RollingEff@3:
  0005b	c1 ff 04	 sar	 edi, 4
$LN21@RollingEff@3:

; 2056 : 	}
; 2057 : 
; 2058 : 	if( iEffectListCnt == 0 )

  0005e	33 db		 xor	 ebx, ebx
  00060	3b fb		 cmp	 edi, ebx
  00062	75 20		 jne	 SHORT $LN20@RollingEff@3
$LN52@RollingEff@3:

; 2059 : 	{
; 2060 : 		SAFEDELETE( m_pEffect );

  00064	8b 8e 64 01 00
	00		 mov	 ecx, DWORD PTR [esi+356]
  0006a	3b cb		 cmp	 ecx, ebx
  0006c	0f 84 7a 01 00
	00		 je	 $LN6@RollingEff@3
  00072	8b 01		 mov	 eax, DWORD PTR [ecx]
  00074	6a 01		 push	 1
  00076	ff 50 40	 call	 DWORD PTR [eax+64]
  00079	89 9e 64 01 00
	00		 mov	 DWORD PTR [esi+356], ebx

; 2061 : 		return;

  0007f	e9 68 01 00 00	 jmp	 $LN6@RollingEff@3
$LN20@RollingEff@3:

; 2062 : 	}
; 2063 : 
; 2064 : 	if( m_bResult )

  00084	84 c9		 test	 cl, cl
  00086	0f 84 b9 00 00
	00		 je	 $LN18@RollingEff@3

; 2065 : 	{
; 2066 : 		if( m_iCurEffectArray == iEffectListCnt-1 )

  0008c	8d 47 ff	 lea	 eax, DWORD PTR [edi-1]
  0008f	39 86 f0 01 00
	00		 cmp	 DWORD PTR [esi+496], eax

; 2067 : 		{
; 2068 : 			SAFEDELETE( m_pEffect );
; 2069 : 			return;

  00095	74 cd		 je	 SHORT $LN52@RollingEff@3

; 2070 : 		}
; 2071 : 
; 2072 : 		if( m_dwRollingEffectCheckTime == 0 || dwCurTime - m_dwRollingEffectCheckTime > m_dwRollingEffectTime )		// 

  00097	8b 86 f8 01 00
	00		 mov	 eax, DWORD PTR [esi+504]
  0009d	3b c3		 cmp	 eax, ebx
  0009f	74 11		 je	 SHORT $LN14@RollingEff@3
  000a1	8b 4d f0	 mov	 ecx, DWORD PTR _dwCurTime$[ebp]
  000a4	2b c8		 sub	 ecx, eax
  000a6	3b 8e f4 01 00
	00		 cmp	 ecx, DWORD PTR [esi+500]
  000ac	0f 86 3a 01 00
	00		 jbe	 $LN6@RollingEff@3
$LN14@RollingEff@3:

; 2073 : 		{
; 2074 : 			SAFEDELETE( m_pEffect );

  000b2	8b 8e 64 01 00
	00		 mov	 ecx, DWORD PTR [esi+356]
  000b8	3b cb		 cmp	 ecx, ebx
  000ba	74 0d		 je	 SHORT $LN13@RollingEff@3
  000bc	8b 01		 mov	 eax, DWORD PTR [ecx]
  000be	6a 01		 push	 1
  000c0	ff 50 40	 call	 DWORD PTR [eax+64]
  000c3	89 9e 64 01 00
	00		 mov	 DWORD PTR [esi+356], ebx
$LN13@RollingEff@3:

; 2075 : 
; 2076 : 			m_iCurEffectArray++;

  000c9	ff 86 f0 01 00
	00		 inc	 DWORD PTR [esi+496]
  000cf	8b 86 f0 01 00
	00		 mov	 eax, DWORD PTR [esi+496]

; 2077 : 
; 2078 : 			if( !COMPARE( m_iCurEffectArray, 0, iEffectListCnt ) )

  000d5	78 04		 js	 SHORT $LN11@RollingEff@3
  000d7	3b c7		 cmp	 eax, edi
  000d9	7c 06		 jl	 SHORT $LN12@RollingEff@3
$LN11@RollingEff@3:

; 2079 : 				m_iCurEffectArray = 0;

  000db	89 9e f0 01 00
	00		 mov	 DWORD PTR [esi+496], ebx
$LN12@RollingEff@3:

; 2080 : 
; 2081 : 			ioHashString szEffect;

  000e1	8d 4d e0	 lea	 ecx, DWORD PTR _szEffect$514901[ebp]
  000e4	ff 15 00 00 00
	00		 call	 DWORD PTR __imp_??0ioHashString@@QAE@XZ

; 2082 : 			if( m_bSuccess )
; 2083 : 				szEffect = m_vEndEfffect_S[m_iCurEffectArray];

  000ea	8b 86 f0 01 00
	00		 mov	 eax, DWORD PTR [esi+496]
  000f0	c1 e0 04	 shl	 eax, 4
  000f3	80 be b1 01 00
	00 00		 cmp	 BYTE PTR [esi+433], 0
  000fa	89 5d fc	 mov	 DWORD PTR __$EHRec$[ebp+8], ebx
  000fd	8d 4d e0	 lea	 ecx, DWORD PTR _szEffect$514901[ebp]
  00100	74 08		 je	 SHORT $LN10@RollingEff@3
  00102	03 86 8c 01 00
	00		 add	 eax, DWORD PTR [esi+396]

; 2084 : 			else

  00108	eb 06		 jmp	 SHORT $LN50@RollingEff@3
$LN10@RollingEff@3:

; 2085 : 				szEffect = m_vEndEfffect_F[m_iCurEffectArray];

  0010a	03 86 9c 01 00
	00		 add	 eax, DWORD PTR [esi+412]
$LN50@RollingEff@3:
  00110	50		 push	 eax
  00111	ff 15 00 00 00
	00		 call	 DWORD PTR __imp_??4ioHashString@@QAEAAV0@ABV0@@Z

; 2086 : 
; 2087 : 
; 2088 : 			if( !szEffect.IsEmpty() )

  00117	8d 4d e0	 lea	 ecx, DWORD PTR _szEffect$514901[ebp]
  0011a	ff 15 00 00 00
	00		 call	 DWORD PTR __imp_?IsEmpty@ioHashString@@QBE_NXZ
  00120	84 c0		 test	 al, al
  00122	75 19		 jne	 SHORT $LN8@RollingEff@3

; 2089 : 			{
; 2090 : 				m_pEffect = g_UIImageSetMgr.CreateImageByFullName( szEffect );

  00124	8d 45 e0	 lea	 eax, DWORD PTR _szEffect$514901[ebp]
  00127	53		 push	 ebx
  00128	50		 push	 eax
  00129	ff 15 00 00 00
	00		 call	 DWORD PTR __imp_?GetSingleton@ioUIImageSetManager@@SAAAV1@XZ
  0012f	8b c8		 mov	 ecx, eax
  00131	ff 15 00 00 00
	00		 call	 DWORD PTR __imp_?CreateImageByFullName@ioUIImageSetManager@@QAEPAVioUIRenderImage@@ABVioHashString@@_N@Z
  00137	89 86 64 01 00
	00		 mov	 DWORD PTR [esi+356], eax
$LN8@RollingEff@3:

; 2091 : 			}
; 2092 : 
; 2093 : 			m_dwRollingEffectCheckTime = dwCurTime;
; 2094 : 		}

  0013d	8d 4d e0	 lea	 ecx, DWORD PTR _szEffect$514901[ebp]

; 2095 : 	}
; 2096 : 	else

  00140	e9 94 00 00 00	 jmp	 $LN51@RollingEff@3
$LN18@RollingEff@3:

; 2097 : 	{
; 2098 : 		if( m_dwRollingEffectCheckTime == 0 || dwCurTime - m_dwRollingEffectCheckTime > m_dwRollingEffectTime )		// 

  00145	8b 86 f8 01 00
	00		 mov	 eax, DWORD PTR [esi+504]
  0014b	3b c3		 cmp	 eax, ebx
  0014d	74 11		 je	 SHORT $LN5@RollingEff@3
  0014f	8b 4d f0	 mov	 ecx, DWORD PTR _dwCurTime$[ebp]
  00152	2b c8		 sub	 ecx, eax
  00154	3b 8e f4 01 00
	00		 cmp	 ecx, DWORD PTR [esi+500]
  0015a	0f 86 8c 00 00
	00		 jbe	 $LN6@RollingEff@3
$LN5@RollingEff@3:

; 2099 : 		{
; 2100 : 			SAFEDELETE( m_pEffect );

  00160	8b 8e 64 01 00
	00		 mov	 ecx, DWORD PTR [esi+356]
  00166	33 db		 xor	 ebx, ebx
  00168	43		 inc	 ebx
  00169	85 c9		 test	 ecx, ecx
  0016b	74 0d		 je	 SHORT $LN4@RollingEff@3
  0016d	8b 01		 mov	 eax, DWORD PTR [ecx]
  0016f	53		 push	 ebx
  00170	ff 50 40	 call	 DWORD PTR [eax+64]
  00173	83 a6 64 01 00
	00 00		 and	 DWORD PTR [esi+356], 0
$LN4@RollingEff@3:

; 2101 : 
; 2102 : 			m_iCurEffectArray++;

  0017a	ff 86 f0 01 00
	00		 inc	 DWORD PTR [esi+496]
  00180	8b 8e f0 01 00
	00		 mov	 ecx, DWORD PTR [esi+496]

; 2103 : 
; 2104 : 			if( !COMPARE( m_iCurEffectArray, 0, iEffectListCnt ) )

  00186	78 04		 js	 SHORT $LN2@RollingEff@3
  00188	3b cf		 cmp	 ecx, edi
  0018a	7c 07		 jl	 SHORT $LN3@RollingEff@3
$LN2@RollingEff@3:

; 2105 : 				m_iCurEffectArray = 0;

  0018c	83 a6 f0 01 00
	00 00		 and	 DWORD PTR [esi+496], 0
$LN3@RollingEff@3:

; 2106 : 
; 2107 : 			ioHashString szEffect = m_vRollingEffect[m_iCurEffectArray];

  00193	8b 86 f0 01 00
	00		 mov	 eax, DWORD PTR [esi+496]
  00199	c1 e0 04	 shl	 eax, 4
  0019c	03 86 7c 01 00
	00		 add	 eax, DWORD PTR [esi+380]
  001a2	8d 4d d0	 lea	 ecx, DWORD PTR _szEffect$514913[ebp]
  001a5	50		 push	 eax
  001a6	ff 15 00 00 00
	00		 call	 DWORD PTR __imp_??0ioHashString@@QAE@ABV0@@Z

; 2108 : 
; 2109 : 			if( !szEffect.IsEmpty() )

  001ac	8d 4d d0	 lea	 ecx, DWORD PTR _szEffect$514913[ebp]
  001af	89 5d fc	 mov	 DWORD PTR __$EHRec$[ebp+8], ebx
  001b2	ff 15 00 00 00
	00		 call	 DWORD PTR __imp_?IsEmpty@ioHashString@@QBE_NXZ
  001b8	84 c0		 test	 al, al
  001ba	75 1a		 jne	 SHORT $LN1@RollingEff@3

; 2110 : 			{
; 2111 : 				m_pEffect = g_UIImageSetMgr.CreateImageByFullName( szEffect );

  001bc	8d 45 d0	 lea	 eax, DWORD PTR _szEffect$514913[ebp]
  001bf	6a 00		 push	 0
  001c1	50		 push	 eax
  001c2	ff 15 00 00 00
	00		 call	 DWORD PTR __imp_?GetSingleton@ioUIImageSetManager@@SAAAV1@XZ
  001c8	8b c8		 mov	 ecx, eax
  001ca	ff 15 00 00 00
	00		 call	 DWORD PTR __imp_?CreateImageByFullName@ioUIImageSetManager@@QAEPAVioUIRenderImage@@ABVioHashString@@_N@Z
  001d0	89 86 64 01 00
	00		 mov	 DWORD PTR [esi+356], eax
$LN1@RollingEff@3:

; 2115 : 		}

  001d6	8d 4d d0	 lea	 ecx, DWORD PTR _szEffect$514913[ebp]
$LN51@RollingEff@3:

; 2112 : 			}
; 2113 : 
; 2114 : 			m_dwRollingEffectCheckTime = dwCurTime;

  001d9	8b 45 f0	 mov	 eax, DWORD PTR _dwCurTime$[ebp]

; 2115 : 		}

  001dc	83 4d fc ff	 or	 DWORD PTR __$EHRec$[ebp+8], -1
  001e0	89 86 f8 01 00
	00		 mov	 DWORD PTR [esi+504], eax
  001e6	ff 15 00 00 00
	00		 call	 DWORD PTR __imp_??1ioHashString@@QAE@XZ
$LN6@RollingEff@3:

; 2116 : 	}
; 2117 : }

  001ec	e8 00 00 00 00	 call	 __EH_epilog3
  001f1	c2 04 00	 ret	 4
_TEXT	ENDS
;	COMDAT text$x
text$x	SEGMENT
__unwindfunclet$?RollingEffect@ItemCompoundExResultWnd@@IAEXM@Z$0:
  00000	8d 4d e0	 lea	 ecx, DWORD PTR _szEffect$514901[ebp]
  00003	ff 25 00 00 00
	00		 jmp	 DWORD PTR __imp_??1ioHashString@@QAE@XZ
__unwindfunclet$?RollingEffect@ItemCompoundExResultWnd@@IAEXM@Z$1:
  00009	8d 4d d0	 lea	 ecx, DWORD PTR _szEffect$514913[ebp]
  0000c	ff 25 00 00 00
	00		 jmp	 DWORD PTR __imp_??1ioHashString@@QAE@XZ
__ehhandler$?RollingEffect@ItemCompoundExResultWnd@@IAEXM@Z:
  00012	8b 54 24 08	 mov	 edx, DWORD PTR [esp+8]
  00016	8d 42 0c	 lea	 eax, DWORD PTR [edx+12]
  00019	8b 4a cc	 mov	 ecx, DWORD PTR [edx-52]
  0001c	33 c8		 xor	 ecx, eax
  0001e	e8 00 00 00 00	 call	 @__security_check_cookie@4
  00023	b8 00 00 00 00	 mov	 eax, OFFSET __ehfuncinfo$?RollingEffect@ItemCompoundExResultWnd@@IAEXM@Z
  00028	e9 00 00 00 00	 jmp	 ___CxxFrameHandler3
text$x	ENDS
?RollingEffect@ItemCompoundExResultWnd@@IAEXM@Z ENDP	; ItemCompoundExResultWnd::RollingEffect
PUBLIC	?ReBatchButton@ItemCompoundExResultWnd@@IAEXH@Z	; ItemCompoundExResultWnd::ReBatchButton
; Function compile flags: /Ogsp
;	COMDAT ?ReBatchButton@ItemCompoundExResultWnd@@IAEXH@Z
_TEXT	SEGMENT
_kSlot$514939 = -16					; size = 12
_this$ = -4						; size = 4
tv467 = 8						; size = 4
_pTitle$514950 = 8					; size = 4
_iType$ = 8						; size = 4
?ReBatchButton@ItemCompoundExResultWnd@@IAEXH@Z PROC	; ItemCompoundExResultWnd::ReBatchButton, COMDAT
; _this$ = ecx

; 2120 : {

  00000	55		 push	 ebp
  00001	8b ec		 mov	 ebp, esp
  00003	83 ec 10	 sub	 esp, 16			; 00000010H

; 2121 : 	enum
; 2122 : 	{
; 2123 : 		ONE_BTN_SIZE	= 204,
; 2124 : 		TWO_BTN_SIZE	= 102,
; 2125 : 
; 2126 : 		ONE_BTN_X		= 27,
; 2127 : 		TWO_BTN_X		= 131,
; 2128 : 
; 2129 : 		ONE_TEXT_X		= 102,
; 2130 : 		TWO_TEXT_X		= 51,
; 2131 : 	};
; 2132 : 
; 2133 : 	switch( iType )

  00006	8b 45 08	 mov	 eax, DWORD PTR _iType$[ebp]
  00009	48		 dec	 eax
  0000a	53		 push	 ebx
  0000b	56		 push	 esi
  0000c	8b d9		 mov	 ebx, ecx
  0000e	57		 push	 edi
  0000f	89 5d fc	 mov	 DWORD PTR _this$[ebp], ebx
  00012	0f 84 b8 01 00
	00		 je	 $LN13@ReBatchBut@3
  00018	48		 dec	 eax
  00019	0f 85 da 01 00
	00		 jne	 $LN14@ReBatchBut@3

; 2141 : 		break;
; 2142 : 	case RESULT_BTN:
; 2143 : 		HideChildWnd(ID_ROLLING);

  0001f	8b 3d 00 00 00
	00		 mov	 edi, DWORD PTR __imp_?HideChildWnd@ioWnd@@QAEXK_N@Z
  00025	33 f6		 xor	 esi, esi
  00027	56		 push	 esi
  00028	6a 01		 push	 1
  0002a	ff d7		 call	 edi

; 2144 : 		HideChildWnd(ID_USE);

  0002c	56		 push	 esi
  0002d	6a 02		 push	 2
  0002f	8b cb		 mov	 ecx, ebx
  00031	ff d7		 call	 edi

; 2145 : 		HideChildWnd(ID_GO);

  00033	56		 push	 esi
  00034	6a 03		 push	 3
  00036	8b cb		 mov	 ecx, ebx
  00038	ff d7		 call	 edi

; 2146 : 
; 2147 : 		// 
; 2148 : 		ioUserEtcItem *pUserEtcItem = g_MyInfo.GetUserEtcItem();

  0003a	e8 00 00 00 00	 call	 ?GetSingleton@ioMyInfo@@SAAAV1@XZ ; ioMyInfo::GetSingleton
  0003f	05 44 01 00 00	 add	 eax, 324		; 00000144H

; 2149 : 		if( !pUserEtcItem )

  00044	75 7f		 jne	 SHORT $LN11@ReBatchBut@3

; 2150 : 		{
; 2151 : 			ioButton *pButton = dynamic_cast<ioButton*>(FindChildWnd(ID_GO));

  00046	56		 push	 esi
  00047	68 00 00 00 00	 push	 OFFSET ??_R0?AVioButton@@@8
  0004c	68 00 00 00 00	 push	 OFFSET ??_R0?AVioWnd@@@8
  00051	56		 push	 esi
  00052	8b cb		 mov	 ecx, ebx
$LN24@ReBatchBut@3:
  00054	6a 03		 push	 3
  00056	ff 15 00 00 00
	00		 call	 DWORD PTR __imp_?FindChildWnd@ioWnd@@QAEPAV1@K@Z
  0005c	50		 push	 eax
  0005d	e8 00 00 00 00	 call	 ___RTDynamicCast
  00062	8b f8		 mov	 edi, eax
  00064	83 c4 14	 add	 esp, 20			; 00000014H

; 2152 : 			if( pButton )

  00067	3b fe		 cmp	 edi, esi
  00069	0f 84 8a 01 00
	00		 je	 $LN14@ReBatchBut@3

; 2153 : 			{
; 2154 : 				pButton->SetSize( ONE_BTN_SIZE, pButton->GetHeight() );

  0006f	8b 1f		 mov	 ebx, DWORD PTR [edi]
  00071	8b cf		 mov	 ecx, edi
  00073	ff 15 00 00 00
	00		 call	 DWORD PTR __imp_?GetHeight@ioWnd@@QBEHXZ
  00079	50		 push	 eax
  0007a	68 cc 00 00 00	 push	 204			; 000000ccH
  0007f	8b cf		 mov	 ecx, edi
  00081	ff 53 2c	 call	 DWORD PTR [ebx+44]

; 2155 : 				pButton->SetWndPos( ONE_BTN_X, pButton->GetYPos() );

  00084	8b cf		 mov	 ecx, edi
  00086	ff 15 00 00 00
	00		 call	 DWORD PTR __imp_?GetYPos@ioWnd@@QBEHXZ
  0008c	50		 push	 eax
  0008d	6a 1b		 push	 27			; 0000001bH
  0008f	8b cf		 mov	 ecx, edi
  00091	ff 15 00 00 00
	00		 call	 DWORD PTR __imp_?SetWndPos@ioWnd@@QAEXHH@Z

; 2156 : 
; 2157 : 				ioUITitle *pTitle =  pButton->GetTitle();

  00097	8b cf		 mov	 ecx, edi
  00099	ff 15 00 00 00
	00		 call	 DWORD PTR __imp_?GetTitle@ioWnd@@QBEPAVioUITitle@@XZ
  0009f	8b d8		 mov	 ebx, eax

; 2158 : 				if( pTitle )

  000a1	3b de		 cmp	 ebx, esi
  000a3	74 13		 je	 SHORT $LN9@ReBatchBut@3

; 2159 : 				{
; 2160 : 					pTitle->SetOffset( ONE_TEXT_X, pTitle->GetTextYOffSet() );

  000a5	8b cb		 mov	 ecx, ebx
  000a7	ff 15 00 00 00
	00		 call	 DWORD PTR __imp_?GetTextYOffSet@ioUITitle@@QBEHXZ
  000ad	50		 push	 eax
  000ae	6a 66		 push	 102			; 00000066H
$LN22@ReBatchBut@3:
  000b0	8b cb		 mov	 ecx, ebx
  000b2	ff 15 00 00 00
	00		 call	 DWORD PTR __imp_?SetOffset@ioUITitle@@QAEXHH@Z
$LN9@ReBatchBut@3:

; 2161 : 				}
; 2162 : 
; 2163 : 				pButton->ShowWnd();

  000b8	8b cf		 mov	 ecx, edi
  000ba	ff 15 00 00 00
	00		 call	 DWORD PTR __imp_?ShowWnd@ioWnd@@QAEXXZ

; 2164 : 			}
; 2165 : 			break;

  000c0	e9 34 01 00 00	 jmp	 $LN14@ReBatchBut@3
$LN11@ReBatchBut@3:

; 2166 : 		}
; 2167 : 
; 2168 : 		ioUserEtcItem::ETCITEMSLOT kSlot;
; 2169 : 		if( !pUserEtcItem->GetEtcItem( m_dwEtcItemCode, kSlot) )

  000c5	8d 4d f0	 lea	 ecx, DWORD PTR _kSlot$514939[ebp]
  000c8	51		 push	 ecx
  000c9	ff b3 ac 01 00
	00		 push	 DWORD PTR [ebx+428]
  000cf	8b c8		 mov	 ecx, eax
  000d1	89 75 f0	 mov	 DWORD PTR _kSlot$514939[ebp], esi
  000d4	89 75 f4	 mov	 DWORD PTR _kSlot$514939[ebp+4], esi
  000d7	89 75 f8	 mov	 DWORD PTR _kSlot$514939[ebp+8], esi
  000da	e8 00 00 00 00	 call	 ?GetEtcItem@ioUserEtcItem@@QAE_NHAAUETCITEMSLOT@1@@Z ; ioUserEtcItem::GetEtcItem

; 2170 : 		{
; 2171 : 			ioButton *pButton = dynamic_cast<ioButton*>(FindChildWnd(ID_GO));

  000df	56		 push	 esi
  000e0	68 00 00 00 00	 push	 OFFSET ??_R0?AVioButton@@@8
  000e5	68 00 00 00 00	 push	 OFFSET ??_R0?AVioWnd@@@8
  000ea	8b cb		 mov	 ecx, ebx
  000ec	56		 push	 esi
  000ed	84 c0		 test	 al, al

; 2172 : 			if( pButton )
; 2173 : 			{
; 2174 : 				pButton->SetSize( ONE_BTN_SIZE, pButton->GetHeight() );
; 2175 : 				pButton->SetWndPos( ONE_BTN_X, pButton->GetYPos() );
; 2176 : 
; 2177 : 				ioUITitle *pTitle =  pButton->GetTitle();
; 2178 : 				if( pTitle )
; 2179 : 				{
; 2180 : 					pTitle->SetOffset( ONE_TEXT_X, pTitle->GetTextYOffSet() );
; 2181 : 				}
; 2182 : 
; 2183 : 				pButton->ShowWnd();
; 2184 : 			}
; 2185 : 		}
; 2186 : 		else

  000ef	0f 84 5f ff ff
	ff		 je	 $LN24@ReBatchBut@3

; 2187 : 		{
; 2188 : 			ioButton *pButton = dynamic_cast<ioButton*>(FindChildWnd(ID_USE));

  000f5	8b 1d 00 00 00
	00		 mov	 ebx, DWORD PTR __imp_?FindChildWnd@ioWnd@@QAEPAV1@K@Z
  000fb	6a 02		 push	 2
  000fd	ff d3		 call	 ebx
  000ff	50		 push	 eax
  00100	e8 00 00 00 00	 call	 ___RTDynamicCast
  00105	8b f8		 mov	 edi, eax
  00107	83 c4 14	 add	 esp, 20			; 00000014H

; 2189 : 			if( pButton )

  0010a	3b fe		 cmp	 edi, esi
  0010c	74 56		 je	 SHORT $LN4@ReBatchBut@3

; 2190 : 			{
; 2191 : 				pButton->SetSize( TWO_BTN_SIZE, pButton->GetHeight() );

  0010e	8b 07		 mov	 eax, DWORD PTR [edi]
  00110	8b cf		 mov	 ecx, edi
  00112	89 45 08	 mov	 DWORD PTR tv467[ebp], eax
  00115	ff 15 00 00 00
	00		 call	 DWORD PTR __imp_?GetHeight@ioWnd@@QBEHXZ
  0011b	50		 push	 eax
  0011c	8b 45 08	 mov	 eax, DWORD PTR tv467[ebp]
  0011f	6a 66		 push	 102			; 00000066H
  00121	8b cf		 mov	 ecx, edi
  00123	ff 50 2c	 call	 DWORD PTR [eax+44]

; 2192 : 				pButton->SetWndPos( ONE_BTN_X, pButton->GetYPos() );

  00126	8b cf		 mov	 ecx, edi
  00128	ff 15 00 00 00
	00		 call	 DWORD PTR __imp_?GetYPos@ioWnd@@QBEHXZ
  0012e	50		 push	 eax
  0012f	6a 1b		 push	 27			; 0000001bH
  00131	8b cf		 mov	 ecx, edi
  00133	ff 15 00 00 00
	00		 call	 DWORD PTR __imp_?SetWndPos@ioWnd@@QAEXHH@Z

; 2193 : 
; 2194 : 				ioUITitle *pTitle =  pButton->GetTitle();

  00139	8b cf		 mov	 ecx, edi
  0013b	ff 15 00 00 00
	00		 call	 DWORD PTR __imp_?GetTitle@ioWnd@@QBEPAVioUITitle@@XZ
  00141	8b c8		 mov	 ecx, eax
  00143	89 4d 08	 mov	 DWORD PTR _pTitle$514950[ebp], ecx

; 2195 : 				if( pTitle )

  00146	3b ce		 cmp	 ecx, esi
  00148	74 12		 je	 SHORT $LN3@ReBatchBut@3

; 2196 : 				{
; 2197 : 					pTitle->SetOffset( TWO_TEXT_X, pTitle->GetTextYOffSet() );

  0014a	ff 15 00 00 00
	00		 call	 DWORD PTR __imp_?GetTextYOffSet@ioUITitle@@QBEHXZ
  00150	8b 4d 08	 mov	 ecx, DWORD PTR _pTitle$514950[ebp]
  00153	50		 push	 eax
  00154	6a 33		 push	 51			; 00000033H
  00156	ff 15 00 00 00
	00		 call	 DWORD PTR __imp_?SetOffset@ioUITitle@@QAEXHH@Z
$LN3@ReBatchBut@3:

; 2198 : 				}
; 2199 : 
; 2200 : 				pButton->ShowWnd();

  0015c	8b cf		 mov	 ecx, edi
  0015e	ff 15 00 00 00
	00		 call	 DWORD PTR __imp_?ShowWnd@ioWnd@@QAEXXZ
$LN4@ReBatchBut@3:

; 2201 : 			}
; 2202 : 
; 2203 : 			pButton = dynamic_cast<ioButton*>(FindChildWnd(ID_GO));

  00164	8b 4d fc	 mov	 ecx, DWORD PTR _this$[ebp]
  00167	56		 push	 esi
  00168	68 00 00 00 00	 push	 OFFSET ??_R0?AVioButton@@@8
  0016d	68 00 00 00 00	 push	 OFFSET ??_R0?AVioWnd@@@8
  00172	56		 push	 esi
  00173	6a 03		 push	 3
  00175	ff d3		 call	 ebx
  00177	50		 push	 eax
  00178	e8 00 00 00 00	 call	 ___RTDynamicCast
  0017d	8b f8		 mov	 edi, eax
  0017f	83 c4 14	 add	 esp, 20			; 00000014H

; 2204 : 			if( pButton )

  00182	3b fe		 cmp	 edi, esi
  00184	74 73		 je	 SHORT $LN14@ReBatchBut@3

; 2205 : 			{
; 2206 : 				pButton->SetSize( TWO_BTN_SIZE, pButton->GetHeight() );

  00186	8b 1f		 mov	 ebx, DWORD PTR [edi]
  00188	8b cf		 mov	 ecx, edi
  0018a	ff 15 00 00 00
	00		 call	 DWORD PTR __imp_?GetHeight@ioWnd@@QBEHXZ
  00190	50		 push	 eax
  00191	6a 66		 push	 102			; 00000066H
  00193	8b cf		 mov	 ecx, edi
  00195	ff 53 2c	 call	 DWORD PTR [ebx+44]

; 2207 : 				pButton->SetWndPos( TWO_BTN_X, pButton->GetYPos() );

  00198	8b cf		 mov	 ecx, edi
  0019a	ff 15 00 00 00
	00		 call	 DWORD PTR __imp_?GetYPos@ioWnd@@QBEHXZ
  001a0	50		 push	 eax
  001a1	68 83 00 00 00	 push	 131			; 00000083H
  001a6	8b cf		 mov	 ecx, edi
  001a8	ff 15 00 00 00
	00		 call	 DWORD PTR __imp_?SetWndPos@ioWnd@@QAEXHH@Z

; 2208 : 
; 2209 : 				ioUITitle *pTitle =  pButton->GetTitle();

  001ae	8b cf		 mov	 ecx, edi
  001b0	ff 15 00 00 00
	00		 call	 DWORD PTR __imp_?GetTitle@ioWnd@@QBEPAVioUITitle@@XZ
  001b6	8b d8		 mov	 ebx, eax

; 2210 : 				if( pTitle )

  001b8	3b de		 cmp	 ebx, esi
  001ba	0f 84 f8 fe ff
	ff		 je	 $LN9@ReBatchBut@3

; 2211 : 				{
; 2212 : 					pTitle->SetOffset( TWO_TEXT_X, pTitle->GetTextYOffSet() );

  001c0	8b cb		 mov	 ecx, ebx
  001c2	ff 15 00 00 00
	00		 call	 DWORD PTR __imp_?GetTextYOffSet@ioUITitle@@QBEHXZ
  001c8	50		 push	 eax
  001c9	6a 33		 push	 51			; 00000033H

; 2213 : 				}
; 2214 : 
; 2215 : 				pButton->ShowWnd();
; 2216 : 			}
; 2217 : 		}
; 2218 : 		break;

  001cb	e9 e0 fe ff ff	 jmp	 $LN22@ReBatchBut@3
$LN13@ReBatchBut@3:

; 2134 : 	{
; 2135 : 	case ROLLING_BTN:
; 2136 : 		ShowChildWnd(ID_ROLLING);

  001d0	33 f6		 xor	 esi, esi
  001d2	56		 push	 esi
  001d3	6a 01		 push	 1
  001d5	ff 15 00 00 00
	00		 call	 DWORD PTR __imp_?ShowChildWnd@ioWnd@@QAEXK_N@Z

; 2137 : 		SetChildInActive(ID_ROLLING);

  001db	6a 01		 push	 1
  001dd	8b cb		 mov	 ecx, ebx
  001df	ff 15 00 00 00
	00		 call	 DWORD PTR __imp_?SetChildInActive@ioWnd@@QAEXK@Z

; 2138 : 
; 2139 : 		HideChildWnd(ID_USE);

  001e5	8b 3d 00 00 00
	00		 mov	 edi, DWORD PTR __imp_?HideChildWnd@ioWnd@@QAEXK_N@Z
  001eb	56		 push	 esi
  001ec	6a 02		 push	 2
  001ee	8b cb		 mov	 ecx, ebx
  001f0	ff d7		 call	 edi

; 2140 : 		HideChildWnd(ID_GO);

  001f2	56		 push	 esi
  001f3	6a 03		 push	 3
  001f5	8b cb		 mov	 ecx, ebx
  001f7	ff d7		 call	 edi
$LN14@ReBatchBut@3:
  001f9	5f		 pop	 edi
  001fa	5e		 pop	 esi
  001fb	5b		 pop	 ebx

; 2219 : 	}
; 2220 : }

  001fc	c9		 leave
  001fd	c2 04 00	 ret	 4
?ReBatchButton@ItemCompoundExResultWnd@@IAEXH@Z ENDP	; ItemCompoundExResultWnd::ReBatchButton
_TEXT	ENDS
PUBLIC	?StringCbPrintfA@@YAJPADIPBDZZ			; StringCbPrintfA
; Function compile flags: /Ogsp
; File c:\program files (x86)\microsoft sdks\windows\v7.0a\include\strsafe.h
;	COMDAT ?StringCbPrintfA@@YAJPADIPBDZZ
_TEXT	SEGMENT
_pszDest$ = 8						; size = 4
_cbDest$ = 12						; size = 4
_pszFormat$ = 16					; size = 4
?StringCbPrintfA@@YAJPADIPBDZZ PROC			; StringCbPrintfA, COMDAT

; 4767 : {

  00000	55		 push	 ebp
  00001	8b ec		 mov	 ebp, esp

; 4768 :     HRESULT hr;
; 4769 :     size_t cchDest = cbDest / sizeof(char);
; 4770 : 
; 4771 :     hr = StringValidateDestA(pszDest, cchDest, STRSAFE_MAX_CCH);

  00003	8b 4d 0c	 mov	 ecx, DWORD PTR _cbDest$[ebp]
  00006	33 c0		 xor	 eax, eax
  00008	85 c9		 test	 ecx, ecx
  0000a	74 08		 je	 SHORT $LN4@StringCbPr
  0000c	81 f9 ff ff ff
	7f		 cmp	 ecx, 2147483647		; 7fffffffH
  00012	76 05		 jbe	 SHORT $LN5@StringCbPr
$LN4@StringCbPr:
  00014	b8 57 00 07 80	 mov	 eax, -2147024809	; 80070057H
$LN5@StringCbPr:

; 4772 :     
; 4773 :     if (SUCCEEDED(hr))

  00019	85 c0		 test	 eax, eax
  0001b	78 39		 js	 SHORT $LN1@StringCbPr

; 4774 :     {
; 4775 :         va_list argList;
; 4776 : 
; 4777 :         va_start(argList, pszFormat);
; 4778 : 
; 4779 :         hr = StringVPrintfWorkerA(pszDest,
; 4780 :                                   cchDest,
; 4781 :                                   NULL,
; 4782 :                                   pszFormat,
; 4783 :                                   argList);

  0001d	53		 push	 ebx
  0001e	56		 push	 esi
  0001f	57		 push	 edi
  00020	8b 7d 08	 mov	 edi, DWORD PTR _pszDest$[ebp]
  00023	8d 45 14	 lea	 eax, DWORD PTR _pszFormat$[ebp+4]
  00026	50		 push	 eax
  00027	ff 75 10	 push	 DWORD PTR _pszFormat$[ebp]
  0002a	8d 71 ff	 lea	 esi, DWORD PTR [ecx-1]
  0002d	56		 push	 esi
  0002e	57		 push	 edi
  0002f	33 db		 xor	 ebx, ebx
  00031	ff 15 00 00 00
	00		 call	 DWORD PTR __imp___vsnprintf
  00037	83 c4 10	 add	 esp, 16			; 00000010H
  0003a	85 c0		 test	 eax, eax
  0003c	78 0b		 js	 SHORT $LN12@StringCbPr
  0003e	3b c6		 cmp	 eax, esi
  00040	77 07		 ja	 SHORT $LN12@StringCbPr
  00042	75 0d		 jne	 SHORT $LN9@StringCbPr
  00044	88 1c 3e	 mov	 BYTE PTR [esi+edi], bl
  00047	eb 08		 jmp	 SHORT $LN9@StringCbPr
$LN12@StringCbPr:
  00049	88 1c 3e	 mov	 BYTE PTR [esi+edi], bl
  0004c	bb 7a 00 07 80	 mov	 ebx, -2147024774	; 8007007aH
$LN9@StringCbPr:
  00051	5f		 pop	 edi
  00052	5e		 pop	 esi
  00053	8b c3		 mov	 eax, ebx
  00055	5b		 pop	 ebx
$LN1@StringCbPr:

; 4784 : 
; 4785 :         va_end(argList);
; 4786 :     }
; 4787 : 
; 4788 :     return hr;
; 4789 : }

  00056	5d		 pop	 ebp
  00057	c3		 ret	 0
?StringCbPrintfA@@YAJPADIPBDZZ ENDP			; StringCbPrintfA
_TEXT	ENDS
PUBLIC	__real@3f19999a
PUBLIC	__real@3f59999a
PUBLIC	??_C@_0CB@DGPCGPJO@ItemLuckyCoinResultWnd?3?3OnRender@ ; `string'
PUBLIC	??_C@_00CNPNBAHC@?$AA@				; `string'
PUBLIC	__real@40000000
PUBLIC	__real@3f800000
PUBLIC	?OnRender@ItemLuckyCoinResultWnd@@MAEXXZ	; ItemLuckyCoinResultWnd::OnRender
EXTRN	?PrintFullText@ioComplexStringPrinter@@QAEXMMW4TextAlignType@@E@Z:PROC ; ioComplexStringPrinter::PrintFullText
EXTRN	?AddTextPiece@ioComplexStringPrinter@@QAAXMPBDZZ:PROC ; ioComplexStringPrinter::AddTextPiece
EXTRN	__imp_?c_str@ioHashString@@QBEPBDXZ:PROC
EXTRN	?SetTextColor@ioComplexStringPrinter@@QAEXK@Z:PROC ; ioComplexStringPrinter::SetTextColor
EXTRN	?SetBkColor@ioComplexStringPrinter@@QAEXHHH@Z:PROC ; ioComplexStringPrinter::SetBkColor
EXTRN	?SetTextStyle@ioComplexStringPrinter@@QAEXW4TextStyle@@@Z:PROC ; ioComplexStringPrinter::SetTextStyle
EXTRN	__imp_?PrintText@ioFontManager@@QAAXMMMPBDZZ:PROC
EXTRN	__imp_?GetString@ioStringManager@@QAEPADPBD0HW4FileNamePrefix@1@@Z:PROC
EXTRN	__imp_?GetSingleton@ioStringManager@@SAAAV1@XZ:PROC
EXTRN	__imp_?SetTextColor@ioFontManager@@QAEXK@Z:PROC
EXTRN	__imp_?SetBkColor@ioFontManager@@QAEXHHH@Z:PROC
EXTRN	__imp_?SetAlignType@ioFontManager@@QAEXW4TextAlignType@@@Z:PROC
EXTRN	__imp_?SetTextStyle@ioFontManager@@QAEXW4TextStyle@@@Z:PROC
EXTRN	__imp_?GetSingleton@ioFontManager@@SAAAV1@XZ:PROC
EXTRN	?RenderGradeIconBack@ioUIImageRenderManager@@QAEXHHHMW4UIRenderType@@W4TextureFilterOption@@HHH_N0@Z:PROC ; ioUIImageRenderManager::RenderGradeIconBack
EXTRN	?GetSingleton@ioUIImageRenderManager@@SAAAV1@XZ:PROC ; ioUIImageRenderManager::GetSingleton
EXTRN	__imp_?GetDerivedPosY@ioWnd@@QBEHXZ:PROC
EXTRN	__imp_?GetDerivedPosX@ioWnd@@QBEHXZ:PROC
EXTRN	__imp_?OnRender@ioWnd@@MAEXXZ:PROC
;	COMDAT __real@3f19999a
; File d:\lost saga for developer\youtube\tutorial\source\src\lsclient\gui\itemcompoundresultwnd.cpp
CONST	SEGMENT
__real@3f19999a DD 03f19999ar			; 0.6
CONST	ENDS
;	COMDAT __real@3f59999a
CONST	SEGMENT
__real@3f59999a DD 03f59999ar			; 0.85
CONST	ENDS
;	COMDAT ??_C@_0CB@DGPCGPJO@ItemLuckyCoinResultWnd?3?3OnRender@
CONST	SEGMENT
??_C@_0CB@DGPCGPJO@ItemLuckyCoinResultWnd?3?3OnRender@ DB 'ItemLuckyCoinR'
	DB	'esultWnd::OnRender', 00H			; `string'
CONST	ENDS
;	COMDAT ??_C@_00CNPNBAHC@?$AA@
CONST	SEGMENT
??_C@_00CNPNBAHC@?$AA@ DB 00H				; `string'
CONST	ENDS
;	COMDAT __real@40000000
CONST	SEGMENT
__real@40000000 DD 040000000r			; 2
CONST	ENDS
;	COMDAT __real@3f800000
CONST	SEGMENT
__real@3f800000 DD 03f800000r			; 1
CONST	ENDS
;	COMDAT xdata$x
xdata$x	SEGMENT
__unwindtable$?OnRender@ItemLuckyCoinResultWnd@@MAEXXZ DD 0ffffffffH
	DD	FLAT:__unwindfunclet$?OnRender@ItemLuckyCoinResultWnd@@MAEXXZ$0
	DD	00H
	DD	FLAT:__unwindfunclet$?OnRender@ItemLuckyCoinResultWnd@@MAEXXZ$1
__ehfuncinfo$?OnRender@ItemLuckyCoinResultWnd@@MAEXXZ DD 019930522H
	DD	02H
	DD	FLAT:__unwindtable$?OnRender@ItemLuckyCoinResultWnd@@MAEXXZ
	DD	2 DUP(00H)
	DD	2 DUP(00H)
	DD	00H
	DD	01H
; Function compile flags: /Ogsp
xdata$x	ENDS
;	COMDAT ?OnRender@ItemLuckyCoinResultWnd@@MAEXXZ
_TEXT	SEGMENT
_kPrinter$ = -72					; size = 32
_szName$ = -40						; size = 16
tv338 = -24						; size = 4
_iXPos$ = -20						; size = 4
_iYPos$ = -16						; size = 4
__$EHRec$ = -12						; size = 12
?OnRender@ItemLuckyCoinResultWnd@@MAEXXZ PROC		; ItemLuckyCoinResultWnd::OnRender, COMDAT
; _this$ = ecx

; 2365 : {

  00000	6a 3c		 push	 60			; 0000003cH
  00002	b8 00 00 00 00	 mov	 eax, __ehhandler$?OnRender@ItemLuckyCoinResultWnd@@MAEXXZ
  00007	e8 00 00 00 00	 call	 __EH_prolog3
  0000c	8b f1		 mov	 esi, ecx

; 2366 : 	ioWnd::OnRender();

  0000e	ff 15 00 00 00
	00		 call	 DWORD PTR __imp_?OnRender@ioWnd@@MAEXXZ

; 2367 : 
; 2368 : 	int iXPos = GetDerivedPosX();

  00014	8b ce		 mov	 ecx, esi
  00016	ff 15 00 00 00
	00		 call	 DWORD PTR __imp_?GetDerivedPosX@ioWnd@@QBEHXZ
  0001c	8b f8		 mov	 edi, eax

; 2369 : 	int iYPos = GetDerivedPosY();

  0001e	8b ce		 mov	 ecx, esi
  00020	89 7d ec	 mov	 DWORD PTR _iXPos$[ebp], edi
  00023	ff 15 00 00 00
	00		 call	 DWORD PTR __imp_?GetDerivedPosY@ioWnd@@QBEHXZ

; 2370 : 
; 2371 : 	enum
; 2372 : 	{
; 2373 : 		ICON_X		= 129,
; 2374 : 		ICON_Y		= 248,
; 2375 : 		FINAL_DESC_X	= 128,
; 2376 : 		FINAL_DESC_Y	= 421,
; 2377 : 	};
; 2378 : 
; 2379 : 	// Back
; 2380 : 	if( m_pFinalBackEffect )

  00029	33 db		 xor	 ebx, ebx
  0002b	8b d0		 mov	 edx, eax
  0002d	89 55 f0	 mov	 DWORD PTR _iYPos$[ebp], edx
  00030	39 9e 68 01 00
	00		 cmp	 DWORD PTR [esi+360], ebx
  00036	74 36		 je	 SHORT $LN5@OnRender

; 2381 : 		m_pFinalBackEffect->Render( iXPos+2, iYPos+39 );

  00038	8b 86 68 01 00
	00		 mov	 eax, DWORD PTR [esi+360]
  0003e	8b 08		 mov	 ecx, DWORD PTR [eax]
  00040	53		 push	 ebx
  00041	53		 push	 ebx
  00042	53		 push	 ebx
  00043	53		 push	 ebx
  00044	51		 push	 ecx
  00045	83 c2 27	 add	 edx, 39			; 00000027H
  00048	0f 57 c0	 xorps	 xmm0, xmm0
  0004b	f3 0f 2a c2	 cvtsi2ss xmm0, edx
  0004f	51		 push	 ecx
  00050	f3 0f 11 44 24
	04		 movss	 DWORD PTR [esp+4], xmm0
  00056	8d 57 02	 lea	 edx, DWORD PTR [edi+2]
  00059	0f 57 c0	 xorps	 xmm0, xmm0
  0005c	8b c8		 mov	 ecx, eax
  0005e	8b 00		 mov	 eax, DWORD PTR [eax]
  00060	f3 0f 2a c2	 cvtsi2ss xmm0, edx
  00064	f3 0f 11 04 24	 movss	 DWORD PTR [esp], xmm0
  00069	ff 10		 call	 DWORD PTR [eax]
  0006b	8b 55 f0	 mov	 edx, DWORD PTR _iYPos$[ebp]
$LN5@OnRender:

; 2382 : 
; 2383 : 	g_UIImageRenderMgr.RenderGradeIconBack( m_nGradeType, iXPos+ICON_X, iYPos+ICON_Y );

  0006e	f3 0f 10 05 00
	00 00 00	 movss	 xmm0, DWORD PTR __real@3f800000
  00076	53		 push	 ebx
  00077	53		 push	 ebx
  00078	8d 8f 81 00 00
	00		 lea	 ecx, DWORD PTR [edi+129]
  0007e	bf ff 00 00 00	 mov	 edi, 255		; 000000ffH
  00083	57		 push	 edi
  00084	57		 push	 edi
  00085	57		 push	 edi
  00086	53		 push	 ebx
  00087	53		 push	 ebx
  00088	51		 push	 ecx
  00089	f3 0f 11 04 24	 movss	 DWORD PTR [esp], xmm0
  0008e	8d 82 f8 00 00
	00		 lea	 eax, DWORD PTR [edx+248]
  00094	50		 push	 eax
  00095	51		 push	 ecx
  00096	ff b6 ec 01 00
	00		 push	 DWORD PTR [esi+492]
  0009c	e8 00 00 00 00	 call	 ?GetSingleton@ioUIImageRenderManager@@SAAAV1@XZ ; ioUIImageRenderManager::GetSingleton
  000a1	8b c8		 mov	 ecx, eax
  000a3	e8 00 00 00 00	 call	 ?RenderGradeIconBack@ioUIImageRenderManager@@QAEXHHHMW4UIRenderType@@W4TextureFilterOption@@HHH_N0@Z ; ioUIImageRenderManager::RenderGradeIconBack

; 2384 : 
; 2385 : 	// Icon
; 2386 : 	if( m_pIcon )

  000a8	39 9e 60 01 00
	00		 cmp	 DWORD PTR [esi+352], ebx
  000ae	74 3e		 je	 SHORT $LN4@OnRender

; 2387 : 	{
; 2388 : 		m_pIcon->Render( iXPos+ICON_X, iYPos+ICON_Y, UI_RENDER_NORMAL, TFO_BILINEAR );

  000b0	8b 4d f0	 mov	 ecx, DWORD PTR _iYPos$[ebp]
  000b3	8b 86 60 01 00
	00		 mov	 eax, DWORD PTR [esi+352]
  000b9	8b 10		 mov	 edx, DWORD PTR [eax]
  000bb	53		 push	 ebx
  000bc	53		 push	 ebx
  000bd	81 c1 f8 00 00
	00		 add	 ecx, 248		; 000000f8H
  000c3	6a 01		 push	 1
  000c5	53		 push	 ebx
  000c6	51		 push	 ecx
  000c7	51		 push	 ecx
  000c8	0f 57 c0	 xorps	 xmm0, xmm0
  000cb	f3 0f 2a c1	 cvtsi2ss xmm0, ecx
  000cf	8b 4d ec	 mov	 ecx, DWORD PTR _iXPos$[ebp]
  000d2	f3 0f 11 44 24
	04		 movss	 DWORD PTR [esp+4], xmm0
  000d8	81 c1 81 00 00
	00		 add	 ecx, 129		; 00000081H
  000de	0f 57 c0	 xorps	 xmm0, xmm0
  000e1	f3 0f 2a c1	 cvtsi2ss xmm0, ecx
  000e5	8b c8		 mov	 ecx, eax
  000e7	f3 0f 11 04 24	 movss	 DWORD PTR [esp], xmm0
  000ec	ff 12		 call	 DWORD PTR [edx]
$LN4@OnRender:

; 2389 : 	}
; 2390 : 
; 2391 : 	// UI  ( )
; 2392 : 	if( m_bExchangeCostume && m_pCostumeMark )

  000ee	38 9e b0 01 00
	00		 cmp	 BYTE PTR [esi+432], bl
  000f4	74 42		 je	 SHORT $LN3@OnRender
  000f6	39 9e 6c 01 00
	00		 cmp	 DWORD PTR [esi+364], ebx
  000fc	74 3a		 je	 SHORT $LN3@OnRender

; 2393 : 		m_pCostumeMark->Render( iXPos+ICON_X, iYPos+ICON_Y, UI_RENDER_NORMAL, TFO_BILINEAR );

  000fe	8b 8e 6c 01 00
	00		 mov	 ecx, DWORD PTR [esi+364]
  00104	8b 45 f0	 mov	 eax, DWORD PTR _iYPos$[ebp]
  00107	8b 11		 mov	 edx, DWORD PTR [ecx]
  00109	53		 push	 ebx
  0010a	53		 push	 ebx
  0010b	6a 01		 push	 1
  0010d	53		 push	 ebx
  0010e	05 f8 00 00 00	 add	 eax, 248		; 000000f8H
  00113	0f 57 c0	 xorps	 xmm0, xmm0
  00116	f3 0f 2a c0	 cvtsi2ss xmm0, eax
  0011a	8b 45 ec	 mov	 eax, DWORD PTR _iXPos$[ebp]
  0011d	51		 push	 ecx
  0011e	51		 push	 ecx
  0011f	f3 0f 11 44 24
	04		 movss	 DWORD PTR [esp+4], xmm0
  00125	05 81 00 00 00	 add	 eax, 129		; 00000081H
  0012a	0f 57 c0	 xorps	 xmm0, xmm0
  0012d	f3 0f 2a c0	 cvtsi2ss xmm0, eax
  00131	f3 0f 11 04 24	 movss	 DWORD PTR [esp], xmm0
  00136	ff 12		 call	 DWORD PTR [edx]
$LN3@OnRender:

; 2394 : 
; 2395 : 	// Effect
; 2396 : 	if( m_pEffect )

  00138	39 9e 64 01 00
	00		 cmp	 DWORD PTR [esi+356], ebx
  0013e	74 53		 je	 SHORT $LN2@OnRender

; 2397 : 	{
; 2398 : 		m_pEffect->SetScale( 2.0f );

  00140	8b 8e 64 01 00
	00		 mov	 ecx, DWORD PTR [esi+356]
  00146	f3 0f 10 05 00
	00 00 00	 movss	 xmm0, DWORD PTR __real@40000000
  0014e	8b 01		 mov	 eax, DWORD PTR [ecx]
  00150	51		 push	 ecx
  00151	f3 0f 11 04 24	 movss	 DWORD PTR [esp], xmm0
  00156	ff 50 1c	 call	 DWORD PTR [eax+28]

; 2399 : 		m_pEffect->Render( iXPos+ICON_X, iYPos+ICON_Y, UI_RENDER_ADD );

  00159	8b 8e 64 01 00
	00		 mov	 ecx, DWORD PTR [esi+356]
  0015f	8b 45 f0	 mov	 eax, DWORD PTR _iYPos$[ebp]
  00162	8b 11		 mov	 edx, DWORD PTR [ecx]
  00164	53		 push	 ebx
  00165	53		 push	 ebx
  00166	53		 push	 ebx
  00167	6a 03		 push	 3
  00169	05 f8 00 00 00	 add	 eax, 248		; 000000f8H
  0016e	0f 57 c0	 xorps	 xmm0, xmm0
  00171	f3 0f 2a c0	 cvtsi2ss xmm0, eax
  00175	8b 45 ec	 mov	 eax, DWORD PTR _iXPos$[ebp]
  00178	51		 push	 ecx
  00179	51		 push	 ecx
  0017a	f3 0f 11 44 24
	04		 movss	 DWORD PTR [esp+4], xmm0
  00180	05 81 00 00 00	 add	 eax, 129		; 00000081H
  00185	0f 57 c0	 xorps	 xmm0, xmm0
  00188	f3 0f 2a c0	 cvtsi2ss xmm0, eax
  0018c	f3 0f 11 04 24	 movss	 DWORD PTR [esp], xmm0
  00191	ff 12		 call	 DWORD PTR [edx]
$LN2@OnRender:

; 2400 : 	}
; 2401 : 
; 2402 : 	// Reinforce
; 2403 : 	enum
; 2404 : 	{
; 2405 : 		REINFORCE_Y	= 14,
; 2406 : 
; 2407 : 		TEXT_SIZE	= 14,
; 2408 : 		TEXT_GAP	= 4,
; 2409 : 	};
; 2410 : 
; 2411 : 	if( m_bResult )

  00193	38 9e b1 01 00
	00		 cmp	 BYTE PTR [esi+433], bl
  00199	0f 84 9e 00 00
	00		 je	 $LN1@OnRender

; 2412 : 	{
; 2413 : 		g_FontMgr.SetTextStyle( TS_NORMAL );

  0019f	8b 3d 00 00 00
	00		 mov	 edi, DWORD PTR __imp_?GetSingleton@ioFontManager@@SAAAV1@XZ
  001a5	53		 push	 ebx
  001a6	ff d7		 call	 edi
  001a8	8b c8		 mov	 ecx, eax
  001aa	ff 15 00 00 00
	00		 call	 DWORD PTR __imp_?SetTextStyle@ioFontManager@@QAEXW4TextStyle@@@Z

; 2414 : 		g_FontMgr.SetAlignType( TAT_CENTER );

  001b0	6a 01		 push	 1
  001b2	ff d7		 call	 edi
  001b4	8b c8		 mov	 ecx, eax
  001b6	ff 15 00 00 00
	00		 call	 DWORD PTR __imp_?SetAlignType@ioFontManager@@QAEXW4TextAlignType@@@Z

; 2415 : 		g_FontMgr.SetBkColor( 0, 0, 0 );

  001bc	53		 push	 ebx
  001bd	53		 push	 ebx
  001be	53		 push	 ebx
  001bf	ff d7		 call	 edi
  001c1	8b c8		 mov	 ecx, eax
  001c3	ff 15 00 00 00
	00		 call	 DWORD PTR __imp_?SetBkColor@ioFontManager@@QAEXHHH@Z

; 2416 : 		g_FontMgr.SetTextColor( TCT_DEFAULT_GREEN );

  001c9	68 22 72 11 ff	 push	 -15633886		; ff117222H
  001ce	ff d7		 call	 edi
  001d0	8b c8		 mov	 ecx, eax
  001d2	ff 15 00 00 00
	00		 call	 DWORD PTR __imp_?SetTextColor@ioFontManager@@QAEXK@Z

; 2417 : 		g_FontMgr.PrintText( iXPos+FINAL_DESC_X, iYPos+FINAL_DESC_Y, FONT_SIZE_17, STR(1) );

  001d8	53		 push	 ebx
  001d9	6a 01		 push	 1
  001db	68 00 00 00 00	 push	 OFFSET ??_C@_00CNPNBAHC@?$AA@
  001e0	68 00 00 00 00	 push	 OFFSET ??_C@_0CB@DGPCGPJO@ItemLuckyCoinResultWnd?3?3OnRender@
  001e5	ff 15 00 00 00
	00		 call	 DWORD PTR __imp_?GetSingleton@ioStringManager@@SAAAV1@XZ
  001eb	8b c8		 mov	 ecx, eax
  001ed	ff 15 00 00 00
	00		 call	 DWORD PTR __imp_?GetString@ioStringManager@@QAEPADPBD0HW4FileNamePrefix@1@@Z
  001f3	f3 0f 10 05 00
	00 00 00	 movss	 xmm0, DWORD PTR __real@3f59999a
  001fb	50		 push	 eax
  001fc	8b 45 f0	 mov	 eax, DWORD PTR _iYPos$[ebp]
  001ff	83 ec 0c	 sub	 esp, 12			; 0000000cH
  00202	f3 0f 11 44 24
	08		 movss	 DWORD PTR [esp+8], xmm0
  00208	05 a5 01 00 00	 add	 eax, 421		; 000001a5H
  0020d	0f 57 c0	 xorps	 xmm0, xmm0
  00210	f3 0f 2a c0	 cvtsi2ss xmm0, eax
  00214	8b 45 ec	 mov	 eax, DWORD PTR _iXPos$[ebp]
  00217	f3 0f 11 44 24
	04		 movss	 DWORD PTR [esp+4], xmm0
  0021d	83 e8 80	 sub	 eax, -128		; ffffff80H
  00220	0f 57 c0	 xorps	 xmm0, xmm0
  00223	f3 0f 2a c0	 cvtsi2ss xmm0, eax
  00227	f3 0f 11 04 24	 movss	 DWORD PTR [esp], xmm0
  0022c	ff d7		 call	 edi
  0022e	50		 push	 eax
  0022f	ff 15 00 00 00
	00		 call	 DWORD PTR __imp_?PrintText@ioFontManager@@QAAXMMMPBDZZ
  00235	83 c4 14	 add	 esp, 20			; 00000014H
  00238	bf ff 00 00 00	 mov	 edi, 255		; 000000ffH
$LN1@OnRender:

; 2418 : 	}
; 2419 : 
; 2420 : 	// Name
; 2421 : 	ioComplexStringPrinter kPrinter;

  0023d	8d 4d b8	 lea	 ecx, DWORD PTR _kPrinter$[ebp]
  00240	e8 00 00 00 00	 call	 ??0ioComplexStringPrinter@@QAE@XZ ; ioComplexStringPrinter::ioComplexStringPrinter

; 2422 : 
; 2423 : 	ioHashString szName = m_szExchangeName;

  00245	8d 86 90 01 00
	00		 lea	 eax, DWORD PTR [esi+400]
  0024b	50		 push	 eax
  0024c	8d 4d d8	 lea	 ecx, DWORD PTR _szName$[ebp]
  0024f	89 5d fc	 mov	 DWORD PTR __$EHRec$[ebp+8], ebx
  00252	ff 15 00 00 00
	00		 call	 DWORD PTR __imp_??0ioHashString@@QAE@ABV0@@Z

; 2424 : 
; 2425 : 	kPrinter.ClearList();

  00258	8d 4d b8	 lea	 ecx, DWORD PTR _kPrinter$[ebp]
  0025b	c6 45 fc 01	 mov	 BYTE PTR __$EHRec$[ebp+8], 1
  0025f	e8 00 00 00 00	 call	 ?ClearList@ioComplexStringPrinter@@QAEXXZ ; ioComplexStringPrinter::ClearList

; 2426 : 	kPrinter.SetTextStyle( TS_NORMAL );

  00264	53		 push	 ebx
  00265	8d 4d b8	 lea	 ecx, DWORD PTR _kPrinter$[ebp]
  00268	e8 00 00 00 00	 call	 ?SetTextStyle@ioComplexStringPrinter@@QAEXW4TextStyle@@@Z ; ioComplexStringPrinter::SetTextStyle

; 2427 : 	kPrinter.SetBkColor( 0, 0, 0 );	

  0026d	53		 push	 ebx
  0026e	53		 push	 ebx
  0026f	53		 push	 ebx
  00270	8d 4d b8	 lea	 ecx, DWORD PTR _kPrinter$[ebp]
  00273	e8 00 00 00 00	 call	 ?SetBkColor@ioComplexStringPrinter@@QAEXHHH@Z ; ioComplexStringPrinter::SetBkColor

; 2428 : 	kPrinter.SetTextColor( TCT_DEFAULT_DARKGRAY );

  00278	68 3a 3a 3a ff	 push	 -12961222		; ff3a3a3aH
  0027d	8d 4d b8	 lea	 ecx, DWORD PTR _kPrinter$[ebp]
  00280	e8 00 00 00 00	 call	 ?SetTextColor@ioComplexStringPrinter@@QAEXK@Z ; ioComplexStringPrinter::SetTextColor

; 2429 : 	kPrinter.AddTextPiece( FONT_SIZE_17, szName.c_str() );

  00285	8d 4d d8	 lea	 ecx, DWORD PTR _szName$[ebp]
  00288	ff 15 00 00 00
	00		 call	 DWORD PTR __imp_?c_str@ioHashString@@QBEPBDXZ
  0028e	f3 0f 10 05 00
	00 00 00	 movss	 xmm0, DWORD PTR __real@3f59999a
  00296	50		 push	 eax
  00297	51		 push	 ecx
  00298	8d 45 b8	 lea	 eax, DWORD PTR _kPrinter$[ebp]
  0029b	f3 0f 11 04 24	 movss	 DWORD PTR [esp], xmm0
  002a0	50		 push	 eax
  002a1	e8 00 00 00 00	 call	 ?AddTextPiece@ioComplexStringPrinter@@QAAXMPBDZZ ; ioComplexStringPrinter::AddTextPiece

; 2430 : 	kPrinter.PrintFullText( iXPos+131, iYPos+308, TAT_CENTER );

  002a6	8b 45 f0	 mov	 eax, DWORD PTR _iYPos$[ebp]
  002a9	83 c4 0c	 add	 esp, 12			; 0000000cH
  002ac	57		 push	 edi
  002ad	8b 7d ec	 mov	 edi, DWORD PTR _iXPos$[ebp]
  002b0	6a 01		 push	 1
  002b2	51		 push	 ecx
  002b3	05 34 01 00 00	 add	 eax, 308		; 00000134H
  002b8	0f 57 c0	 xorps	 xmm0, xmm0
  002bb	f3 0f 2a c0	 cvtsi2ss xmm0, eax
  002bf	51		 push	 ecx
  002c0	f3 0f 11 44 24
	04		 movss	 DWORD PTR [esp+4], xmm0
  002c6	8d 87 83 00 00
	00		 lea	 eax, DWORD PTR [edi+131]
  002cc	0f 57 c0	 xorps	 xmm0, xmm0
  002cf	f3 0f 2a c0	 cvtsi2ss xmm0, eax
  002d3	8d 4d b8	 lea	 ecx, DWORD PTR _kPrinter$[ebp]
  002d6	f3 0f 11 04 24	 movss	 DWORD PTR [esp], xmm0
  002db	e8 00 00 00 00	 call	 ?PrintFullText@ioComplexStringPrinter@@QAEXMMW4TextAlignType@@E@Z ; ioComplexStringPrinter::PrintFullText

; 2431 : 
; 2432 : 	PrintManual( iXPos+33, iYPos+352, FONT_SIZE_12 );

  002e0	8b 45 f0	 mov	 eax, DWORD PTR _iYPos$[ebp]
  002e3	f3 0f 10 05 00
	00 00 00	 movss	 xmm0, DWORD PTR __real@3f19999a
  002eb	51		 push	 ecx
  002ec	f3 0f 11 04 24	 movss	 DWORD PTR [esp], xmm0
  002f1	05 60 01 00 00	 add	 eax, 352		; 00000160H
  002f6	50		 push	 eax
  002f7	83 c7 21	 add	 edi, 33			; 00000021H
  002fa	57		 push	 edi
  002fb	8b ce		 mov	 ecx, esi
  002fd	e8 00 00 00 00	 call	 ?PrintManual@ItemLuckyCoinResultWnd@@IAEXHHM@Z ; ItemLuckyCoinResultWnd::PrintManual

; 2433 : }

  00302	8d 4d d8	 lea	 ecx, DWORD PTR _szName$[ebp]
  00305	88 5d fc	 mov	 BYTE PTR __$EHRec$[ebp+8], bl
  00308	ff 15 00 00 00
	00		 call	 DWORD PTR __imp_??1ioHashString@@QAE@XZ
  0030e	83 4d fc ff	 or	 DWORD PTR __$EHRec$[ebp+8], -1
  00312	8d 4d b8	 lea	 ecx, DWORD PTR _kPrinter$[ebp]
  00315	e8 00 00 00 00	 call	 ??1ioComplexStringPrinter@@QAE@XZ ; ioComplexStringPrinter::~ioComplexStringPrinter
  0031a	e8 00 00 00 00	 call	 __EH_epilog3
  0031f	c3		 ret	 0
_TEXT	ENDS
;	COMDAT text$x
text$x	SEGMENT
__unwindfunclet$?OnRender@ItemLuckyCoinResultWnd@@MAEXXZ$0:
  00000	8d 4d b8	 lea	 ecx, DWORD PTR _kPrinter$[ebp]
  00003	e9 00 00 00 00	 jmp	 ??1ioComplexStringPrinter@@QAE@XZ ; ioComplexStringPrinter::~ioComplexStringPrinter
__unwindfunclet$?OnRender@ItemLuckyCoinResultWnd@@MAEXXZ$1:
  00008	8d 4d d8	 lea	 ecx, DWORD PTR _szName$[ebp]
  0000b	ff 25 00 00 00
	00		 jmp	 DWORD PTR __imp_??1ioHashString@@QAE@XZ
__ehhandler$?OnRender@ItemLuckyCoinResultWnd@@MAEXXZ:
  00011	8b 54 24 08	 mov	 edx, DWORD PTR [esp+8]
  00015	8d 42 0c	 lea	 eax, DWORD PTR [edx+12]
  00018	8b 4a b4	 mov	 ecx, DWORD PTR [edx-76]
  0001b	33 c8		 xor	 ecx, eax
  0001d	e8 00 00 00 00	 call	 @__security_check_cookie@4
  00022	b8 00 00 00 00	 mov	 eax, OFFSET __ehfuncinfo$?OnRender@ItemLuckyCoinResultWnd@@MAEXXZ
  00027	e9 00 00 00 00	 jmp	 ___CxxFrameHandler3
text$x	ENDS
?OnRender@ItemLuckyCoinResultWnd@@MAEXXZ ENDP		; ItemLuckyCoinResultWnd::OnRender
PUBLIC	??_C@_0CE@BBKIHNMB@ItemLuckyCoinResultWnd?3?3iwm_comm@ ; `string'
PUBLIC	?iwm_command@ItemLuckyCoinResultWnd@@UAEXPAVioWnd@@HK@Z ; ItemLuckyCoinResultWnd::iwm_command
EXTRN	?ShowPresentTabDirect@MyInventoryWnd@@QAEXXZ:PROC ; MyInventoryWnd::ShowPresentTabDirect
;	COMDAT ??_C@_0CE@BBKIHNMB@ItemLuckyCoinResultWnd?3?3iwm_comm@
; File d:\lost saga for developer\youtube\tutorial\source\src\io3dengine\iosingleton.h
CONST	SEGMENT
??_C@_0CE@BBKIHNMB@ItemLuckyCoinResultWnd?3?3iwm_comm@ DB 'ItemLuckyCoinR'
	DB	'esultWnd::iwm_command', 00H			; `string'
; Function compile flags: /Ogsp
; File d:\lost saga for developer\youtube\tutorial\source\src\lsclient\gui\itemcompoundresultwnd.cpp
CONST	ENDS
;	COMDAT ?iwm_command@ItemLuckyCoinResultWnd@@UAEXPAVioWnd@@HK@Z
_TEXT	SEGMENT
_pWnd$ = 8						; size = 4
_cmd$ = 12						; size = 4
_param$ = 16						; size = 4
?iwm_command@ItemLuckyCoinResultWnd@@UAEXPAVioWnd@@HK@Z PROC ; ItemLuckyCoinResultWnd::iwm_command, COMDAT
; _this$ = ecx

; 2440 : {

  00000	55		 push	 ebp
  00001	8b ec		 mov	 ebp, esp
  00003	56		 push	 esi
  00004	8b f1		 mov	 esi, ecx

; 2441 : 	DWORD dwID = pWnd->GetID();

  00006	8b 4d 08	 mov	 ecx, DWORD PTR _pWnd$[ebp]
  00009	ff 15 00 00 00
	00		 call	 DWORD PTR __imp_?GetID@ioWnd@@QBEKXZ

; 2442 : 
; 2443 : 	switch( dwID )

  0000f	48		 dec	 eax
  00010	48		 dec	 eax
  00011	74 4f		 je	 SHORT $LN4@iwm_comman@4
  00013	48		 dec	 eax
  00014	0f 85 b2 00 00
	00		 jne	 $LN2@iwm_comman@4

; 2444 : 	{
; 2445 : 	case ID_GO:
; 2446 : 		if( cmd == IOBN_BTNUP )

  0001a	83 7d 0c 11	 cmp	 DWORD PTR _cmd$[ebp], 17 ; 00000011H
  0001e	0f 85 a8 00 00
	00		 jne	 $LN2@iwm_comman@4

; 2447 : 		{
; 2448 : 			HideWnd();

  00024	8b ce		 mov	 ecx, esi
  00026	ff 15 00 00 00
	00		 call	 DWORD PTR __imp_?HideWnd@ioWnd@@QAEXXZ

; 2449 : 
; 2450 : 			MyInventoryWnd *pInvenWnd = dynamic_cast<MyInventoryWnd*>(g_GUIMgr.FindWnd(MY_INVENTORY_WND));

  0002c	6a 00		 push	 0
  0002e	68 00 00 00 00	 push	 OFFSET ??_R0?AVMyInventoryWnd@@@8
  00033	68 00 00 00 00	 push	 OFFSET ??_R0?AVioWnd@@@8
  00038	6a 00		 push	 0
  0003a	68 96 17 00 00	 push	 6038			; 00001796H
  0003f	e8 00 00 00 00	 call	 ?GetSingleton@ioSP2GUIManager@@SAAAV1@XZ ; ioSP2GUIManager::GetSingleton
  00044	8b c8		 mov	 ecx, eax
  00046	ff 15 00 00 00
	00		 call	 DWORD PTR __imp_?FindWnd@ioGUIManager@@QAEPAVioWnd@@K@Z
  0004c	50		 push	 eax
  0004d	e8 00 00 00 00	 call	 ___RTDynamicCast
  00052	83 c4 14	 add	 esp, 20			; 00000014H

; 2451 : 			if( pInvenWnd )

  00055	85 c0		 test	 eax, eax
  00057	74 73		 je	 SHORT $LN2@iwm_comman@4

; 2452 : 			{
; 2453 : 				pInvenWnd->ShowPresentTabDirect();

  00059	8b c8		 mov	 ecx, eax
  0005b	e8 00 00 00 00	 call	 ?ShowPresentTabDirect@MyInventoryWnd@@QAEXXZ ; MyInventoryWnd::ShowPresentTabDirect

; 2454 : 			}
; 2455 : 		}
; 2456 : 		break;

  00060	eb 6a		 jmp	 SHORT $LN2@iwm_comman@4
$LN4@iwm_comman@4:

; 2457 : 	case ID_USE:
; 2458 : 		if( cmd == IOBN_BTNUP )

  00062	83 7d 0c 11	 cmp	 DWORD PTR _cmd$[ebp], 17 ; 00000011H
  00066	75 64		 jne	 SHORT $LN2@iwm_comman@4

; 2459 : 		{
; 2460 : 			ioUserEtcItem *pUserEtcItem =  g_MyInfo.GetUserEtcItem();

  00068	53		 push	 ebx
  00069	e8 00 00 00 00	 call	 ?GetSingleton@ioMyInfo@@SAAAV1@XZ ; ioMyInfo::GetSingleton
  0006e	8b d8		 mov	 ebx, eax
  00070	81 c3 44 01 00
	00		 add	 ebx, 324		; 00000144H

; 2461 : 			if( pUserEtcItem )

  00076	74 53		 je	 SHORT $LN16@iwm_comman@4

; 2462 : 			{
; 2463 : 				ioEtcItem *pEtcItem = g_EtcItemMgr.FindEtcItem( m_dwEtcItemCode );

  00078	8b 0d 00 00 00
	00		 mov	 ecx, DWORD PTR ?ms_Singleton@?$Singleton@VioEtcItemManager@@@@1PAVioEtcItemManager@@A ; Singleton<ioEtcItemManager>::ms_Singleton
  0007e	57		 push	 edi
  0007f	ff b6 84 01 00
	00		 push	 DWORD PTR [esi+388]
  00085	e8 00 00 00 00	 call	 ?FindEtcItem@ioEtcItemManager@@QAEPAVioEtcItem@@K@Z ; ioEtcItemManager::FindEtcItem
  0008a	8b f8		 mov	 edi, eax

; 2464 : 				if( !pEtcItem )

  0008c	85 ff		 test	 edi, edi
  0008e	75 22		 jne	 SHORT $LN1@iwm_comman@4

; 2465 : 				{
; 2466 : 					LOG.PrintTimeAndLog( 0, "%s pEtcItem == NULL : %d", __FUNCTION__, m_dwEtcItemCode );

  00090	ff b6 84 01 00
	00		 push	 DWORD PTR [esi+388]
  00096	68 00 00 00 00	 push	 OFFSET ??_C@_0CE@BBKIHNMB@ItemLuckyCoinResultWnd?3?3iwm_comm@
  0009b	68 00 00 00 00	 push	 OFFSET ??_C@_0BJ@MBKFFGIH@?$CFs?5pEtcItem?5?$DN?$DN?5NULL?5?3?5?$CFd?$AA@
  000a0	50		 push	 eax
  000a1	ff 35 00 00 00
	00		 push	 DWORD PTR __imp_?LOG@@3VCLog@@A
  000a7	ff 15 00 00 00
	00		 call	 DWORD PTR __imp_?PrintTimeAndLog@CLog@@QAAXHPADZZ
  000ad	83 c4 14	 add	 esp, 20			; 00000014H

; 2467 : 					return;

  000b0	eb 18		 jmp	 SHORT $LN17@iwm_comman@4
$LN1@iwm_comman@4:

; 2468 : 				}
; 2469 : 				HideWnd();

  000b2	8b ce		 mov	 ecx, esi
  000b4	ff 15 00 00 00
	00		 call	 DWORD PTR __imp_?HideWnd@ioWnd@@QAEXXZ

; 2470 : 
; 2471 : 				pEtcItem->OnUseBtnPush( m_dwEtcItemCode, pUserEtcItem );

  000ba	8b 07		 mov	 eax, DWORD PTR [edi]
  000bc	6a 01		 push	 1
  000be	53		 push	 ebx
  000bf	ff b6 84 01 00
	00		 push	 DWORD PTR [esi+388]
  000c5	8b cf		 mov	 ecx, edi
  000c7	ff 50 20	 call	 DWORD PTR [eax+32]
$LN17@iwm_comman@4:
  000ca	5f		 pop	 edi
$LN16@iwm_comman@4:
  000cb	5b		 pop	 ebx
$LN2@iwm_comman@4:
  000cc	5e		 pop	 esi

; 2472 : 			}
; 2473 : 		}
; 2474 : 		break;
; 2475 : 	}
; 2476 : }

  000cd	5d		 pop	 ebp
  000ce	c2 0c 00	 ret	 12			; 0000000cH
?iwm_command@ItemLuckyCoinResultWnd@@UAEXPAVioWnd@@HK@Z ENDP ; ItemLuckyCoinResultWnd::iwm_command
_TEXT	ENDS
PUBLIC	?RollingEffect@ItemLuckyCoinResultWnd@@IAEXM@Z	; ItemLuckyCoinResultWnd::RollingEffect
;	COMDAT xdata$x
; File c:\program files (x86)\microsoft visual studio 10.0\vc\include\vector
xdata$x	SEGMENT
__unwindtable$?RollingEffect@ItemLuckyCoinResultWnd@@IAEXM@Z DD 0ffffffffH
	DD	FLAT:__unwindfunclet$?RollingEffect@ItemLuckyCoinResultWnd@@IAEXM@Z$0
__ehfuncinfo$?RollingEffect@ItemLuckyCoinResultWnd@@IAEXM@Z DD 019930522H
	DD	01H
	DD	FLAT:__unwindtable$?RollingEffect@ItemLuckyCoinResultWnd@@IAEXM@Z
	DD	2 DUP(00H)
	DD	2 DUP(00H)
	DD	00H
	DD	01H
; Function compile flags: /Ogsp
; File d:\lost saga for developer\youtube\tutorial\source\src\lsclient\gui\itemcompoundresultwnd.cpp
xdata$x	ENDS
;	COMDAT ?RollingEffect@ItemLuckyCoinResultWnd@@IAEXM@Z
_TEXT	SEGMENT
_szEffect$516034 = -32					; size = 16
_dwCurTime$ = -16					; size = 4
__$EHRec$ = -12						; size = 12
_fTimePerSec$ = 8					; size = 4
?RollingEffect@ItemLuckyCoinResultWnd@@IAEXM@Z PROC	; ItemLuckyCoinResultWnd::RollingEffect, COMDAT
; _this$ = ecx

; 2496 : {

  00000	6a 14		 push	 20			; 00000014H
  00002	b8 00 00 00 00	 mov	 eax, __ehhandler$?RollingEffect@ItemLuckyCoinResultWnd@@IAEXM@Z
  00007	e8 00 00 00 00	 call	 __EH_prolog3
  0000c	8b f1		 mov	 esi, ecx

; 2497 : 	DWORD dwCurTime = FRAMEGETTIME();

  0000e	ff 15 00 00 00
	00		 call	 DWORD PTR __imp_?GetSingleton@ioFrameTimer@@SAAAV1@XZ
  00014	8b c8		 mov	 ecx, eax
  00016	ff 15 00 00 00
	00		 call	 DWORD PTR __imp_?GetLoopSec@ioFrameTimer@@QBEKXZ

; 2498 : 
; 2499 : 	int iEffectListCnt = m_vEndEfffect_S.size();

  0001c	8b be 78 01 00
	00		 mov	 edi, DWORD PTR [esi+376]
  00022	2b be 74 01 00
	00		 sub	 edi, DWORD PTR [esi+372]

; 2500 : 
; 2501 : 	if( iEffectListCnt == 0 )

  00028	33 db		 xor	 ebx, ebx
  0002a	c1 ff 04	 sar	 edi, 4
  0002d	89 45 f0	 mov	 DWORD PTR _dwCurTime$[ebp], eax
  00030	3b fb		 cmp	 edi, ebx
  00032	75 20		 jne	 SHORT $LN10@RollingEff@4
$LN25@RollingEff@4:

; 2502 : 	{
; 2503 : 		SAFEDELETE( m_pEffect );

  00034	8b 8e 64 01 00
	00		 mov	 ecx, DWORD PTR [esi+356]
  0003a	3b cb		 cmp	 ecx, ebx
  0003c	0f 84 bf 00 00
	00		 je	 $LN6@RollingEff@4
  00042	8b 01		 mov	 eax, DWORD PTR [ecx]
  00044	6a 01		 push	 1
  00046	ff 50 40	 call	 DWORD PTR [eax+64]
  00049	89 9e 64 01 00
	00		 mov	 DWORD PTR [esi+356], ebx

; 2504 : 		return;

  0004f	e9 ad 00 00 00	 jmp	 $LN6@RollingEff@4
$LN10@RollingEff@4:

; 2505 : 	}
; 2506 : 
; 2507 : 	if( m_iCurEffectArray == iEffectListCnt-1 )

  00054	8d 47 ff	 lea	 eax, DWORD PTR [edi-1]
  00057	39 86 d0 01 00
	00		 cmp	 DWORD PTR [esi+464], eax

; 2508 : 	{
; 2509 : 		SAFEDELETE( m_pEffect );
; 2510 : 		return;

  0005d	74 d5		 je	 SHORT $LN25@RollingEff@4

; 2511 : 	}
; 2512 : 
; 2513 : 	if( m_dwRollingEffectCheckTime == 0 || dwCurTime - m_dwRollingEffectCheckTime > m_dwRollingEffectTime )		// 

  0005f	8b 86 d8 01 00
	00		 mov	 eax, DWORD PTR [esi+472]
  00065	3b c3		 cmp	 eax, ebx
  00067	74 11		 je	 SHORT $LN5@RollingEff@4
  00069	8b 4d f0	 mov	 ecx, DWORD PTR _dwCurTime$[ebp]
  0006c	2b c8		 sub	 ecx, eax
  0006e	3b 8e d4 01 00
	00		 cmp	 ecx, DWORD PTR [esi+468]
  00074	0f 86 87 00 00
	00		 jbe	 $LN6@RollingEff@4
$LN5@RollingEff@4:

; 2514 : 	{
; 2515 : 		SAFEDELETE( m_pEffect );

  0007a	8b 8e 64 01 00
	00		 mov	 ecx, DWORD PTR [esi+356]
  00080	3b cb		 cmp	 ecx, ebx
  00082	74 0d		 je	 SHORT $LN4@RollingEff@4
  00084	8b 01		 mov	 eax, DWORD PTR [ecx]
  00086	6a 01		 push	 1
  00088	ff 50 40	 call	 DWORD PTR [eax+64]
  0008b	89 9e 64 01 00
	00		 mov	 DWORD PTR [esi+356], ebx
$LN4@RollingEff@4:

; 2516 : 
; 2517 : 		m_iCurEffectArray++;

  00091	ff 86 d0 01 00
	00		 inc	 DWORD PTR [esi+464]
  00097	8b 86 d0 01 00
	00		 mov	 eax, DWORD PTR [esi+464]

; 2518 : 
; 2519 : 		if( !COMPARE( m_iCurEffectArray, 0, iEffectListCnt ) )

  0009d	78 04		 js	 SHORT $LN2@RollingEff@4
  0009f	3b c7		 cmp	 eax, edi
  000a1	7c 06		 jl	 SHORT $LN3@RollingEff@4
$LN2@RollingEff@4:

; 2520 : 			m_iCurEffectArray = 0;

  000a3	89 9e d0 01 00
	00		 mov	 DWORD PTR [esi+464], ebx
$LN3@RollingEff@4:

; 2521 : 
; 2522 : 		ioHashString szEffect = m_vEndEfffect_S[m_iCurEffectArray];

  000a9	8b 86 d0 01 00
	00		 mov	 eax, DWORD PTR [esi+464]
  000af	c1 e0 04	 shl	 eax, 4
  000b2	03 86 74 01 00
	00		 add	 eax, DWORD PTR [esi+372]
  000b8	8d 4d e0	 lea	 ecx, DWORD PTR _szEffect$516034[ebp]
  000bb	50		 push	 eax
  000bc	ff 15 00 00 00
	00		 call	 DWORD PTR __imp_??0ioHashString@@QAE@ABV0@@Z

; 2523 : 
; 2524 : 		if( !szEffect.IsEmpty() )

  000c2	8d 4d e0	 lea	 ecx, DWORD PTR _szEffect$516034[ebp]
  000c5	89 5d fc	 mov	 DWORD PTR __$EHRec$[ebp+8], ebx
  000c8	ff 15 00 00 00
	00		 call	 DWORD PTR __imp_?IsEmpty@ioHashString@@QBE_NXZ
  000ce	84 c0		 test	 al, al
  000d0	75 19		 jne	 SHORT $LN1@RollingEff@4

; 2525 : 		{
; 2526 : 			m_pEffect = g_UIImageSetMgr.CreateImageByFullName( szEffect );

  000d2	8d 45 e0	 lea	 eax, DWORD PTR _szEffect$516034[ebp]
  000d5	53		 push	 ebx
  000d6	50		 push	 eax
  000d7	ff 15 00 00 00
	00		 call	 DWORD PTR __imp_?GetSingleton@ioUIImageSetManager@@SAAAV1@XZ
  000dd	8b c8		 mov	 ecx, eax
  000df	ff 15 00 00 00
	00		 call	 DWORD PTR __imp_?CreateImageByFullName@ioUIImageSetManager@@QAEPAVioUIRenderImage@@ABVioHashString@@_N@Z
  000e5	89 86 64 01 00
	00		 mov	 DWORD PTR [esi+356], eax
$LN1@RollingEff@4:

; 2527 : 		}
; 2528 : 
; 2529 : 		m_dwRollingEffectCheckTime = dwCurTime;

  000eb	8b 45 f0	 mov	 eax, DWORD PTR _dwCurTime$[ebp]

; 2530 : 	}

  000ee	83 4d fc ff	 or	 DWORD PTR __$EHRec$[ebp+8], -1
  000f2	8d 4d e0	 lea	 ecx, DWORD PTR _szEffect$516034[ebp]
  000f5	89 86 d8 01 00
	00		 mov	 DWORD PTR [esi+472], eax
  000fb	ff 15 00 00 00
	00		 call	 DWORD PTR __imp_??1ioHashString@@QAE@XZ
$LN6@RollingEff@4:

; 2531 : }

  00101	e8 00 00 00 00	 call	 __EH_epilog3
  00106	c2 04 00	 ret	 4
_TEXT	ENDS
;	COMDAT text$x
text$x	SEGMENT
__unwindfunclet$?RollingEffect@ItemLuckyCoinResultWnd@@IAEXM@Z$0:
  00000	8d 4d e0	 lea	 ecx, DWORD PTR _szEffect$516034[ebp]
  00003	ff 25 00 00 00
	00		 jmp	 DWORD PTR __imp_??1ioHashString@@QAE@XZ
__ehhandler$?RollingEffect@ItemLuckyCoinResultWnd@@IAEXM@Z:
  00009	8b 54 24 08	 mov	 edx, DWORD PTR [esp+8]
  0000d	8d 42 0c	 lea	 eax, DWORD PTR [edx+12]
  00010	8b 4a dc	 mov	 ecx, DWORD PTR [edx-36]
  00013	33 c8		 xor	 ecx, eax
  00015	e8 00 00 00 00	 call	 @__security_check_cookie@4
  0001a	b8 00 00 00 00	 mov	 eax, OFFSET __ehfuncinfo$?RollingEffect@ItemLuckyCoinResultWnd@@IAEXM@Z
  0001f	e9 00 00 00 00	 jmp	 ___CxxFrameHandler3
text$x	ENDS
?RollingEffect@ItemLuckyCoinResultWnd@@IAEXM@Z ENDP	; ItemLuckyCoinResultWnd::RollingEffect
PUBLIC	?ReBatchButton@ItemLuckyCoinResultWnd@@IAEXH@Z	; ItemLuckyCoinResultWnd::ReBatchButton
; Function compile flags: /Ogsp
;	COMDAT ?ReBatchButton@ItemLuckyCoinResultWnd@@IAEXH@Z
_TEXT	SEGMENT
_kSlot$516060 = -16					; size = 12
_this$ = -4						; size = 4
tv467 = 8						; size = 4
_pTitle$516071 = 8					; size = 4
_iType$ = 8						; size = 4
?ReBatchButton@ItemLuckyCoinResultWnd@@IAEXH@Z PROC	; ItemLuckyCoinResultWnd::ReBatchButton, COMDAT
; _this$ = ecx

; 2534 : {

  00000	55		 push	 ebp
  00001	8b ec		 mov	 ebp, esp
  00003	83 ec 10	 sub	 esp, 16			; 00000010H

; 2535 : 	enum
; 2536 : 	{
; 2537 : 		ONE_BTN_SIZE	= 204,
; 2538 : 		TWO_BTN_SIZE	= 102,
; 2539 : 
; 2540 : 		ONE_BTN_X		= 27,
; 2541 : 		TWO_BTN_X		= 131,
; 2542 : 
; 2543 : 		ONE_TEXT_X		= 102,
; 2544 : 		TWO_TEXT_X		= 51,
; 2545 : 	};
; 2546 : 
; 2547 : 	switch( iType )

  00006	8b 45 08	 mov	 eax, DWORD PTR _iType$[ebp]
  00009	48		 dec	 eax
  0000a	53		 push	 ebx
  0000b	56		 push	 esi
  0000c	8b d9		 mov	 ebx, ecx
  0000e	57		 push	 edi
  0000f	89 5d fc	 mov	 DWORD PTR _this$[ebp], ebx
  00012	0f 84 b8 01 00
	00		 je	 $LN13@ReBatchBut@4
  00018	48		 dec	 eax
  00019	0f 85 da 01 00
	00		 jne	 $LN14@ReBatchBut@4

; 2555 : 		break;
; 2556 : 	case RESULT_BTN:
; 2557 : 		HideChildWnd(ID_ROLLING);

  0001f	8b 3d 00 00 00
	00		 mov	 edi, DWORD PTR __imp_?HideChildWnd@ioWnd@@QAEXK_N@Z
  00025	33 f6		 xor	 esi, esi
  00027	56		 push	 esi
  00028	6a 01		 push	 1
  0002a	ff d7		 call	 edi

; 2558 : 		HideChildWnd(ID_USE);

  0002c	56		 push	 esi
  0002d	6a 02		 push	 2
  0002f	8b cb		 mov	 ecx, ebx
  00031	ff d7		 call	 edi

; 2559 : 		HideChildWnd(ID_GO);

  00033	56		 push	 esi
  00034	6a 03		 push	 3
  00036	8b cb		 mov	 ecx, ebx
  00038	ff d7		 call	 edi

; 2560 : 
; 2561 : 		// 
; 2562 : 		ioUserEtcItem *pUserEtcItem = g_MyInfo.GetUserEtcItem();

  0003a	e8 00 00 00 00	 call	 ?GetSingleton@ioMyInfo@@SAAAV1@XZ ; ioMyInfo::GetSingleton
  0003f	05 44 01 00 00	 add	 eax, 324		; 00000144H

; 2563 : 		if( !pUserEtcItem )

  00044	75 7f		 jne	 SHORT $LN11@ReBatchBut@4

; 2564 : 		{
; 2565 : 			ioButton *pButton = dynamic_cast<ioButton*>(FindChildWnd(ID_GO));

  00046	56		 push	 esi
  00047	68 00 00 00 00	 push	 OFFSET ??_R0?AVioButton@@@8
  0004c	68 00 00 00 00	 push	 OFFSET ??_R0?AVioWnd@@@8
  00051	56		 push	 esi
  00052	8b cb		 mov	 ecx, ebx
$LN24@ReBatchBut@4:
  00054	6a 03		 push	 3
  00056	ff 15 00 00 00
	00		 call	 DWORD PTR __imp_?FindChildWnd@ioWnd@@QAEPAV1@K@Z
  0005c	50		 push	 eax
  0005d	e8 00 00 00 00	 call	 ___RTDynamicCast
  00062	8b f8		 mov	 edi, eax
  00064	83 c4 14	 add	 esp, 20			; 00000014H

; 2566 : 			if( pButton )

  00067	3b fe		 cmp	 edi, esi
  00069	0f 84 8a 01 00
	00		 je	 $LN14@ReBatchBut@4

; 2567 : 			{
; 2568 : 				pButton->SetSize( ONE_BTN_SIZE, pButton->GetHeight() );

  0006f	8b 1f		 mov	 ebx, DWORD PTR [edi]
  00071	8b cf		 mov	 ecx, edi
  00073	ff 15 00 00 00
	00		 call	 DWORD PTR __imp_?GetHeight@ioWnd@@QBEHXZ
  00079	50		 push	 eax
  0007a	68 cc 00 00 00	 push	 204			; 000000ccH
  0007f	8b cf		 mov	 ecx, edi
  00081	ff 53 2c	 call	 DWORD PTR [ebx+44]

; 2569 : 				pButton->SetWndPos( ONE_BTN_X, pButton->GetYPos() );

  00084	8b cf		 mov	 ecx, edi
  00086	ff 15 00 00 00
	00		 call	 DWORD PTR __imp_?GetYPos@ioWnd@@QBEHXZ
  0008c	50		 push	 eax
  0008d	6a 1b		 push	 27			; 0000001bH
  0008f	8b cf		 mov	 ecx, edi
  00091	ff 15 00 00 00
	00		 call	 DWORD PTR __imp_?SetWndPos@ioWnd@@QAEXHH@Z

; 2570 : 
; 2571 : 				ioUITitle *pTitle =  pButton->GetTitle();

  00097	8b cf		 mov	 ecx, edi
  00099	ff 15 00 00 00
	00		 call	 DWORD PTR __imp_?GetTitle@ioWnd@@QBEPAVioUITitle@@XZ
  0009f	8b d8		 mov	 ebx, eax

; 2572 : 				if( pTitle )

  000a1	3b de		 cmp	 ebx, esi
  000a3	74 13		 je	 SHORT $LN9@ReBatchBut@4

; 2573 : 				{
; 2574 : 					pTitle->SetOffset( ONE_TEXT_X, pTitle->GetTextYOffSet() );

  000a5	8b cb		 mov	 ecx, ebx
  000a7	ff 15 00 00 00
	00		 call	 DWORD PTR __imp_?GetTextYOffSet@ioUITitle@@QBEHXZ
  000ad	50		 push	 eax
  000ae	6a 66		 push	 102			; 00000066H
$LN22@ReBatchBut@4:
  000b0	8b cb		 mov	 ecx, ebx
  000b2	ff 15 00 00 00
	00		 call	 DWORD PTR __imp_?SetOffset@ioUITitle@@QAEXHH@Z
$LN9@ReBatchBut@4:

; 2575 : 				}
; 2576 : 
; 2577 : 				pButton->ShowWnd();

  000b8	8b cf		 mov	 ecx, edi
  000ba	ff 15 00 00 00
	00		 call	 DWORD PTR __imp_?ShowWnd@ioWnd@@QAEXXZ

; 2578 : 			}
; 2579 : 			break;

  000c0	e9 34 01 00 00	 jmp	 $LN14@ReBatchBut@4
$LN11@ReBatchBut@4:

; 2580 : 		}
; 2581 : 
; 2582 : 		ioUserEtcItem::ETCITEMSLOT kSlot;
; 2583 : 		if( !pUserEtcItem->GetEtcItem( m_dwEtcItemCode, kSlot) )

  000c5	8d 4d f0	 lea	 ecx, DWORD PTR _kSlot$516060[ebp]
  000c8	51		 push	 ecx
  000c9	ff b3 84 01 00
	00		 push	 DWORD PTR [ebx+388]
  000cf	8b c8		 mov	 ecx, eax
  000d1	89 75 f0	 mov	 DWORD PTR _kSlot$516060[ebp], esi
  000d4	89 75 f4	 mov	 DWORD PTR _kSlot$516060[ebp+4], esi
  000d7	89 75 f8	 mov	 DWORD PTR _kSlot$516060[ebp+8], esi
  000da	e8 00 00 00 00	 call	 ?GetEtcItem@ioUserEtcItem@@QAE_NHAAUETCITEMSLOT@1@@Z ; ioUserEtcItem::GetEtcItem

; 2584 : 		{
; 2585 : 			ioButton *pButton = dynamic_cast<ioButton*>(FindChildWnd(ID_GO));

  000df	56		 push	 esi
  000e0	68 00 00 00 00	 push	 OFFSET ??_R0?AVioButton@@@8
  000e5	68 00 00 00 00	 push	 OFFSET ??_R0?AVioWnd@@@8
  000ea	8b cb		 mov	 ecx, ebx
  000ec	56		 push	 esi
  000ed	84 c0		 test	 al, al

; 2586 : 			if( pButton )
; 2587 : 			{
; 2588 : 				pButton->SetSize( ONE_BTN_SIZE, pButton->GetHeight() );
; 2589 : 				pButton->SetWndPos( ONE_BTN_X, pButton->GetYPos() );
; 2590 : 
; 2591 : 				ioUITitle *pTitle =  pButton->GetTitle();
; 2592 : 				if( pTitle )
; 2593 : 				{
; 2594 : 					pTitle->SetOffset( ONE_TEXT_X, pTitle->GetTextYOffSet() );
; 2595 : 				}
; 2596 : 
; 2597 : 				pButton->ShowWnd();
; 2598 : 			}
; 2599 : 		}
; 2600 : 		else

  000ef	0f 84 5f ff ff
	ff		 je	 $LN24@ReBatchBut@4

; 2601 : 		{
; 2602 : 			ioButton *pButton = dynamic_cast<ioButton*>(FindChildWnd(ID_USE));

  000f5	8b 1d 00 00 00
	00		 mov	 ebx, DWORD PTR __imp_?FindChildWnd@ioWnd@@QAEPAV1@K@Z
  000fb	6a 02		 push	 2
  000fd	ff d3		 call	 ebx
  000ff	50		 push	 eax
  00100	e8 00 00 00 00	 call	 ___RTDynamicCast
  00105	8b f8		 mov	 edi, eax
  00107	83 c4 14	 add	 esp, 20			; 00000014H

; 2603 : 			if( pButton )

  0010a	3b fe		 cmp	 edi, esi
  0010c	74 56		 je	 SHORT $LN4@ReBatchBut@4

; 2604 : 			{
; 2605 : 				pButton->SetSize( TWO_BTN_SIZE, pButton->GetHeight() );

  0010e	8b 07		 mov	 eax, DWORD PTR [edi]
  00110	8b cf		 mov	 ecx, edi
  00112	89 45 08	 mov	 DWORD PTR tv467[ebp], eax
  00115	ff 15 00 00 00
	00		 call	 DWORD PTR __imp_?GetHeight@ioWnd@@QBEHXZ
  0011b	50		 push	 eax
  0011c	8b 45 08	 mov	 eax, DWORD PTR tv467[ebp]
  0011f	6a 66		 push	 102			; 00000066H
  00121	8b cf		 mov	 ecx, edi
  00123	ff 50 2c	 call	 DWORD PTR [eax+44]

; 2606 : 				pButton->SetWndPos( ONE_BTN_X, pButton->GetYPos() );

  00126	8b cf		 mov	 ecx, edi
  00128	ff 15 00 00 00
	00		 call	 DWORD PTR __imp_?GetYPos@ioWnd@@QBEHXZ
  0012e	50		 push	 eax
  0012f	6a 1b		 push	 27			; 0000001bH
  00131	8b cf		 mov	 ecx, edi
  00133	ff 15 00 00 00
	00		 call	 DWORD PTR __imp_?SetWndPos@ioWnd@@QAEXHH@Z

; 2607 : 
; 2608 : 				ioUITitle *pTitle =  pButton->GetTitle();

  00139	8b cf		 mov	 ecx, edi
  0013b	ff 15 00 00 00
	00		 call	 DWORD PTR __imp_?GetTitle@ioWnd@@QBEPAVioUITitle@@XZ
  00141	8b c8		 mov	 ecx, eax
  00143	89 4d 08	 mov	 DWORD PTR _pTitle$516071[ebp], ecx

; 2609 : 				if( pTitle )

  00146	3b ce		 cmp	 ecx, esi
  00148	74 12		 je	 SHORT $LN3@ReBatchBut@4

; 2610 : 				{
; 2611 : 					pTitle->SetOffset( TWO_TEXT_X, pTitle->GetTextYOffSet() );

  0014a	ff 15 00 00 00
	00		 call	 DWORD PTR __imp_?GetTextYOffSet@ioUITitle@@QBEHXZ
  00150	8b 4d 08	 mov	 ecx, DWORD PTR _pTitle$516071[ebp]
  00153	50		 push	 eax
  00154	6a 33		 push	 51			; 00000033H
  00156	ff 15 00 00 00
	00		 call	 DWORD PTR __imp_?SetOffset@ioUITitle@@QAEXHH@Z
$LN3@ReBatchBut@4:

; 2612 : 				}
; 2613 : 
; 2614 : 				pButton->ShowWnd();

  0015c	8b cf		 mov	 ecx, edi
  0015e	ff 15 00 00 00
	00		 call	 DWORD PTR __imp_?ShowWnd@ioWnd@@QAEXXZ
$LN4@ReBatchBut@4:

; 2615 : 			}
; 2616 : 
; 2617 : 			pButton = dynamic_cast<ioButton*>(FindChildWnd(ID_GO));

  00164	8b 4d fc	 mov	 ecx, DWORD PTR _this$[ebp]
  00167	56		 push	 esi
  00168	68 00 00 00 00	 push	 OFFSET ??_R0?AVioButton@@@8
  0016d	68 00 00 00 00	 push	 OFFSET ??_R0?AVioWnd@@@8
  00172	56		 push	 esi
  00173	6a 03		 push	 3
  00175	ff d3		 call	 ebx
  00177	50		 push	 eax
  00178	e8 00 00 00 00	 call	 ___RTDynamicCast
  0017d	8b f8		 mov	 edi, eax
  0017f	83 c4 14	 add	 esp, 20			; 00000014H

; 2618 : 			if( pButton )

  00182	3b fe		 cmp	 edi, esi
  00184	74 73		 je	 SHORT $LN14@ReBatchBut@4

; 2619 : 			{
; 2620 : 				pButton->SetSize( TWO_BTN_SIZE, pButton->GetHeight() );

  00186	8b 1f		 mov	 ebx, DWORD PTR [edi]
  00188	8b cf		 mov	 ecx, edi
  0018a	ff 15 00 00 00
	00		 call	 DWORD PTR __imp_?GetHeight@ioWnd@@QBEHXZ
  00190	50		 push	 eax
  00191	6a 66		 push	 102			; 00000066H
  00193	8b cf		 mov	 ecx, edi
  00195	ff 53 2c	 call	 DWORD PTR [ebx+44]

; 2621 : 				pButton->SetWndPos( TWO_BTN_X, pButton->GetYPos() );

  00198	8b cf		 mov	 ecx, edi
  0019a	ff 15 00 00 00
	00		 call	 DWORD PTR __imp_?GetYPos@ioWnd@@QBEHXZ
  001a0	50		 push	 eax
  001a1	68 83 00 00 00	 push	 131			; 00000083H
  001a6	8b cf		 mov	 ecx, edi
  001a8	ff 15 00 00 00
	00		 call	 DWORD PTR __imp_?SetWndPos@ioWnd@@QAEXHH@Z

; 2622 : 
; 2623 : 				ioUITitle *pTitle =  pButton->GetTitle();

  001ae	8b cf		 mov	 ecx, edi
  001b0	ff 15 00 00 00
	00		 call	 DWORD PTR __imp_?GetTitle@ioWnd@@QBEPAVioUITitle@@XZ
  001b6	8b d8		 mov	 ebx, eax

; 2624 : 				if( pTitle )

  001b8	3b de		 cmp	 ebx, esi
  001ba	0f 84 f8 fe ff
	ff		 je	 $LN9@ReBatchBut@4

; 2625 : 				{
; 2626 : 					pTitle->SetOffset( TWO_TEXT_X, pTitle->GetTextYOffSet() );

  001c0	8b cb		 mov	 ecx, ebx
  001c2	ff 15 00 00 00
	00		 call	 DWORD PTR __imp_?GetTextYOffSet@ioUITitle@@QBEHXZ
  001c8	50		 push	 eax
  001c9	6a 33		 push	 51			; 00000033H

; 2627 : 				}
; 2628 : 
; 2629 : 				pButton->ShowWnd();
; 2630 : 			}
; 2631 : 		}
; 2632 : 		break;

  001cb	e9 e0 fe ff ff	 jmp	 $LN22@ReBatchBut@4
$LN13@ReBatchBut@4:

; 2548 : 	{
; 2549 : 	case ROLLING_BTN:
; 2550 : 		ShowChildWnd(ID_ROLLING);

  001d0	33 f6		 xor	 esi, esi
  001d2	56		 push	 esi
  001d3	6a 01		 push	 1
  001d5	ff 15 00 00 00
	00		 call	 DWORD PTR __imp_?ShowChildWnd@ioWnd@@QAEXK_N@Z

; 2551 : 		SetChildInActive(ID_ROLLING);

  001db	6a 01		 push	 1
  001dd	8b cb		 mov	 ecx, ebx
  001df	ff 15 00 00 00
	00		 call	 DWORD PTR __imp_?SetChildInActive@ioWnd@@QAEXK@Z

; 2552 : 
; 2553 : 		HideChildWnd(ID_USE);

  001e5	8b 3d 00 00 00
	00		 mov	 edi, DWORD PTR __imp_?HideChildWnd@ioWnd@@QAEXK_N@Z
  001eb	56		 push	 esi
  001ec	6a 02		 push	 2
  001ee	8b cb		 mov	 ecx, ebx
  001f0	ff d7		 call	 edi

; 2554 : 		HideChildWnd(ID_GO);

  001f2	56		 push	 esi
  001f3	6a 03		 push	 3
  001f5	8b cb		 mov	 ecx, ebx
  001f7	ff d7		 call	 edi
$LN14@ReBatchBut@4:
  001f9	5f		 pop	 edi
  001fa	5e		 pop	 esi
  001fb	5b		 pop	 ebx

; 2633 : 	}
; 2634 : }

  001fc	c9		 leave
  001fd	c2 04 00	 ret	 4
?ReBatchButton@ItemLuckyCoinResultWnd@@IAEXH@Z ENDP	; ItemLuckyCoinResultWnd::ReBatchButton
_TEXT	ENDS
PUBLIC	??_C@_0CH@FOAAHKKL@ItemRainbowMixerResultWnd?3?3iwm_c@ ; `string'
PUBLIC	?iwm_command@ItemRainbowMixerResultWnd@@UAEXPAVioWnd@@HK@Z ; ItemRainbowMixerResultWnd::iwm_command
;	COMDAT ??_C@_0CH@FOAAHKKL@ItemRainbowMixerResultWnd?3?3iwm_c@
; File d:\lost saga for developer\youtube\tutorial\source\src\io3dengine\iosingleton.h
CONST	SEGMENT
??_C@_0CH@FOAAHKKL@ItemRainbowMixerResultWnd?3?3iwm_c@ DB 'ItemRainbowMix'
	DB	'erResultWnd::iwm_command', 00H		; `string'
; Function compile flags: /Ogsp
; File d:\lost saga for developer\youtube\tutorial\source\src\lsclient\gui\itemcompoundresultwnd.cpp
CONST	ENDS
;	COMDAT ?iwm_command@ItemRainbowMixerResultWnd@@UAEXPAVioWnd@@HK@Z
_TEXT	SEGMENT
_pWnd$ = 8						; size = 4
_cmd$ = 12						; size = 4
_param$ = 16						; size = 4
?iwm_command@ItemRainbowMixerResultWnd@@UAEXPAVioWnd@@HK@Z PROC ; ItemRainbowMixerResultWnd::iwm_command, COMDAT
; _this$ = ecx

; 2831 : {

  00000	55		 push	 ebp
  00001	8b ec		 mov	 ebp, esp
  00003	56		 push	 esi
  00004	8b f1		 mov	 esi, ecx

; 2832 : 	DWORD dwID = pWnd->GetID();

  00006	8b 4d 08	 mov	 ecx, DWORD PTR _pWnd$[ebp]
  00009	ff 15 00 00 00
	00		 call	 DWORD PTR __imp_?GetID@ioWnd@@QBEKXZ

; 2833 : 
; 2834 : 	switch( dwID )

  0000f	48		 dec	 eax
  00010	48		 dec	 eax
  00011	74 4f		 je	 SHORT $LN4@iwm_comman@5
  00013	48		 dec	 eax
  00014	0f 85 b2 00 00
	00		 jne	 $LN2@iwm_comman@5

; 2835 : 	{
; 2836 : 	case ID_GO:
; 2837 : 		if( cmd == IOBN_BTNUP )

  0001a	83 7d 0c 11	 cmp	 DWORD PTR _cmd$[ebp], 17 ; 00000011H
  0001e	0f 85 a8 00 00
	00		 jne	 $LN2@iwm_comman@5

; 2838 : 		{
; 2839 : 			HideWnd();

  00024	8b ce		 mov	 ecx, esi
  00026	ff 15 00 00 00
	00		 call	 DWORD PTR __imp_?HideWnd@ioWnd@@QAEXXZ

; 2840 : 
; 2841 : 			MyInventoryWnd *pInvenWnd = dynamic_cast<MyInventoryWnd*>(g_GUIMgr.FindWnd(MY_INVENTORY_WND));

  0002c	6a 00		 push	 0
  0002e	68 00 00 00 00	 push	 OFFSET ??_R0?AVMyInventoryWnd@@@8
  00033	68 00 00 00 00	 push	 OFFSET ??_R0?AVioWnd@@@8
  00038	6a 00		 push	 0
  0003a	68 96 17 00 00	 push	 6038			; 00001796H
  0003f	e8 00 00 00 00	 call	 ?GetSingleton@ioSP2GUIManager@@SAAAV1@XZ ; ioSP2GUIManager::GetSingleton
  00044	8b c8		 mov	 ecx, eax
  00046	ff 15 00 00 00
	00		 call	 DWORD PTR __imp_?FindWnd@ioGUIManager@@QAEPAVioWnd@@K@Z
  0004c	50		 push	 eax
  0004d	e8 00 00 00 00	 call	 ___RTDynamicCast
  00052	83 c4 14	 add	 esp, 20			; 00000014H

; 2842 : 			if( pInvenWnd )

  00055	85 c0		 test	 eax, eax
  00057	74 73		 je	 SHORT $LN2@iwm_comman@5

; 2843 : 			{
; 2844 : 				pInvenWnd->ShowPresentTabDirect();

  00059	8b c8		 mov	 ecx, eax
  0005b	e8 00 00 00 00	 call	 ?ShowPresentTabDirect@MyInventoryWnd@@QAEXXZ ; MyInventoryWnd::ShowPresentTabDirect

; 2845 : 			}
; 2846 : 		}
; 2847 : 		break;

  00060	eb 6a		 jmp	 SHORT $LN2@iwm_comman@5
$LN4@iwm_comman@5:

; 2848 : 	case ID_USE:
; 2849 : 		if( cmd == IOBN_BTNUP )

  00062	83 7d 0c 11	 cmp	 DWORD PTR _cmd$[ebp], 17 ; 00000011H
  00066	75 64		 jne	 SHORT $LN2@iwm_comman@5

; 2850 : 		{
; 2851 : 			ioUserEtcItem *pUserEtcItem =  g_MyInfo.GetUserEtcItem();

  00068	53		 push	 ebx
  00069	e8 00 00 00 00	 call	 ?GetSingleton@ioMyInfo@@SAAAV1@XZ ; ioMyInfo::GetSingleton
  0006e	8b d8		 mov	 ebx, eax
  00070	81 c3 44 01 00
	00		 add	 ebx, 324		; 00000144H

; 2852 : 			if( pUserEtcItem )

  00076	74 53		 je	 SHORT $LN16@iwm_comman@5

; 2853 : 			{
; 2854 : 				ioEtcItem *pEtcItem = g_EtcItemMgr.FindEtcItem( m_dwEtcItemCode );

  00078	8b 0d 00 00 00
	00		 mov	 ecx, DWORD PTR ?ms_Singleton@?$Singleton@VioEtcItemManager@@@@1PAVioEtcItemManager@@A ; Singleton<ioEtcItemManager>::ms_Singleton
  0007e	57		 push	 edi
  0007f	ff b6 80 01 00
	00		 push	 DWORD PTR [esi+384]
  00085	e8 00 00 00 00	 call	 ?FindEtcItem@ioEtcItemManager@@QAEPAVioEtcItem@@K@Z ; ioEtcItemManager::FindEtcItem
  0008a	8b f8		 mov	 edi, eax

; 2855 : 				if( !pEtcItem )

  0008c	85 ff		 test	 edi, edi
  0008e	75 22		 jne	 SHORT $LN1@iwm_comman@5

; 2856 : 				{
; 2857 : 					LOG.PrintTimeAndLog( 0, "%s pEtcItem == NULL : %d", __FUNCTION__, m_dwEtcItemCode );

  00090	ff b6 80 01 00
	00		 push	 DWORD PTR [esi+384]
  00096	68 00 00 00 00	 push	 OFFSET ??_C@_0CH@FOAAHKKL@ItemRainbowMixerResultWnd?3?3iwm_c@
  0009b	68 00 00 00 00	 push	 OFFSET ??_C@_0BJ@MBKFFGIH@?$CFs?5pEtcItem?5?$DN?$DN?5NULL?5?3?5?$CFd?$AA@
  000a0	50		 push	 eax
  000a1	ff 35 00 00 00
	00		 push	 DWORD PTR __imp_?LOG@@3VCLog@@A
  000a7	ff 15 00 00 00
	00		 call	 DWORD PTR __imp_?PrintTimeAndLog@CLog@@QAAXHPADZZ
  000ad	83 c4 14	 add	 esp, 20			; 00000014H

; 2858 : 					return;

  000b0	eb 18		 jmp	 SHORT $LN17@iwm_comman@5
$LN1@iwm_comman@5:

; 2859 : 				}
; 2860 : 				HideWnd();

  000b2	8b ce		 mov	 ecx, esi
  000b4	ff 15 00 00 00
	00		 call	 DWORD PTR __imp_?HideWnd@ioWnd@@QAEXXZ

; 2861 : 
; 2862 : 				pEtcItem->OnUseBtnPush( m_dwEtcItemCode, pUserEtcItem );

  000ba	8b 07		 mov	 eax, DWORD PTR [edi]
  000bc	6a 01		 push	 1
  000be	53		 push	 ebx
  000bf	ff b6 80 01 00
	00		 push	 DWORD PTR [esi+384]
  000c5	8b cf		 mov	 ecx, edi
  000c7	ff 50 20	 call	 DWORD PTR [eax+32]
$LN17@iwm_comman@5:
  000ca	5f		 pop	 edi
$LN16@iwm_comman@5:
  000cb	5b		 pop	 ebx
$LN2@iwm_comman@5:
  000cc	5e		 pop	 esi

; 2863 : 			}
; 2864 : 		}
; 2865 : 		break;
; 2866 : 	}
; 2867 : }

  000cd	5d		 pop	 ebp
  000ce	c2 0c 00	 ret	 12			; 0000000cH
?iwm_command@ItemRainbowMixerResultWnd@@UAEXPAVioWnd@@HK@Z ENDP ; ItemRainbowMixerResultWnd::iwm_command
_TEXT	ENDS
PUBLIC	??_R0?AVioEtcItem@@@8				; ioEtcItem `RTTI Type Descriptor'
PUBLIC	??_R0?AVioEtcItemRainbowMixer@@@8		; ioEtcItemRainbowMixer `RTTI Type Descriptor'
PUBLIC	?PrintManual@ItemRainbowMixerResultWnd@@IAEXHHM@Z ; ItemRainbowMixerResultWnd::PrintManual
;	COMDAT ??_R0?AVioEtcItem@@@8
; File d:\lost saga for developer\youtube\tutorial\source\src\lsclient\ioetcitem.h
_DATA	SEGMENT
??_R0?AVioEtcItem@@@8 DD FLAT:??_7type_info@@6B@	; ioEtcItem `RTTI Type Descriptor'
	DD	00H
	DB	'.?AVioEtcItem@@', 00H
_DATA	ENDS
;	COMDAT ??_R0?AVioEtcItemRainbowMixer@@@8
_DATA	SEGMENT
??_R0?AVioEtcItemRainbowMixer@@@8 DD FLAT:??_7type_info@@6B@ ; ioEtcItemRainbowMixer `RTTI Type Descriptor'
	DD	00H
	DB	'.?AVioEtcItemRainbowMixer@@', 00H
_DATA	ENDS
;	COMDAT xdata$x
xdata$x	SEGMENT
__unwindtable$?PrintManual@ItemRainbowMixerResultWnd@@IAEXHHM@Z DD 0ffffffffH
	DD	FLAT:__unwindfunclet$?PrintManual@ItemRainbowMixerResultWnd@@IAEXHHM@Z$0
__ehfuncinfo$?PrintManual@ItemRainbowMixerResultWnd@@IAEXHHM@Z DD 019930522H
	DD	01H
	DD	FLAT:__unwindtable$?PrintManual@ItemRainbowMixerResultWnd@@IAEXHHM@Z
	DD	2 DUP(00H)
	DD	2 DUP(00H)
	DD	00H
	DD	01H
; Function compile flags: /Ogsp
; File d:\lost saga for developer\youtube\tutorial\source\src\lsclient\gui\itemcompoundresultwnd.cpp
xdata$x	ENDS
;	COMDAT ?PrintManual@ItemRainbowMixerResultWnd@@IAEXHHM@Z
_TEXT	SEGMENT
_kPrinter$ = -48					; size = 32
_iMaxLine$ = -16					; size = 4
__$EHRec$ = -12						; size = 12
tv228 = 8						; size = 4
_a_iXPos$ = 8						; size = 4
_a_iYPos$ = 12						; size = 4
_fScale$ = 16						; size = 4
?PrintManual@ItemRainbowMixerResultWnd@@IAEXHHM@Z PROC	; ItemRainbowMixerResultWnd::PrintManual, COMDAT
; _this$ = ecx

; 2870 : {

  00000	6a 24		 push	 36			; 00000024H
  00002	b8 00 00 00 00	 mov	 eax, __ehhandler$?PrintManual@ItemRainbowMixerResultWnd@@IAEXHHM@Z
  00007	e8 00 00 00 00	 call	 __EH_prolog3
  0000c	8b f1		 mov	 esi, ecx

; 2871 : 	if( !m_pManual ) return;

  0000e	33 db		 xor	 ebx, ebx
  00010	39 9e 6c 01 00
	00		 cmp	 DWORD PTR [esi+364], ebx
  00016	0f 84 de 00 00
	00		 je	 $LN6@PrintManua@5

; 2872 : 	
; 2873 : 	ioEtcItemRainbowMixer *pEtcItem = dynamic_cast< ioEtcItemRainbowMixer * >(g_EtcItemMgr.FindEtcItem( m_dwEtcItemCode ));

  0001c	8b 0d 00 00 00
	00		 mov	 ecx, DWORD PTR ?ms_Singleton@?$Singleton@VioEtcItemManager@@@@1PAVioEtcItemManager@@A ; Singleton<ioEtcItemManager>::ms_Singleton
  00022	53		 push	 ebx
  00023	68 00 00 00 00	 push	 OFFSET ??_R0?AVioEtcItemRainbowMixer@@@8
  00028	68 00 00 00 00	 push	 OFFSET ??_R0?AVioEtcItem@@@8
  0002d	53		 push	 ebx
  0002e	ff b6 80 01 00
	00		 push	 DWORD PTR [esi+384]
  00034	e8 00 00 00 00	 call	 ?FindEtcItem@ioEtcItemManager@@QAEPAVioEtcItem@@K@Z ; ioEtcItemManager::FindEtcItem
  00039	50		 push	 eax
  0003a	e8 00 00 00 00	 call	 ___RTDynamicCast
  0003f	83 c4 14	 add	 esp, 20			; 00000014H

; 2874 : 
; 2875 : 	if( !pEtcItem ) return;

  00042	3b c3		 cmp	 eax, ebx
  00044	0f 84 b0 00 00
	00		 je	 $LN6@PrintManua@5

; 2876 : 
; 2877 : 	int iSubManual = pEtcItem->GetSubResultManual() - 1;

  0004a	8b b8 b8 01 00
	00		 mov	 edi, DWORD PTR [eax+440]

; 2878 : 	ioComplexStringPrinter kPrinter;

  00050	8d 4d d0	 lea	 ecx, DWORD PTR _kPrinter$[ebp]
  00053	4f		 dec	 edi
  00054	e8 00 00 00 00	 call	 ??0ioComplexStringPrinter@@QAE@XZ ; ioComplexStringPrinter::ioComplexStringPrinter

; 2879 : 	int iMaxLine = m_pManual->GetMaxLine( iSubManual );

  00059	8b 8e 6c 01 00
	00		 mov	 ecx, DWORD PTR [esi+364]
  0005f	8b 01		 mov	 eax, DWORD PTR [ecx]
  00061	57		 push	 edi
  00062	89 5d fc	 mov	 DWORD PTR __$EHRec$[ebp+8], ebx
  00065	ff 50 08	 call	 DWORD PTR [eax+8]

; 2880 : 	for(int iLine = 1; iLine < iMaxLine; iLine++)

  00068	43		 inc	 ebx
  00069	89 45 f0	 mov	 DWORD PTR _iMaxLine$[ebp], eax
  0006c	3b c3		 cmp	 eax, ebx
  0006e	7e 7e		 jle	 SHORT $LN1@PrintManua@5
  00070	66 0f 6e 45 08	 movd	 xmm0, DWORD PTR _a_iXPos$[ebp]
  00075	0f 5b c0	 cvtdq2ps xmm0, xmm0
  00078	f3 0f 11 45 08	 movss	 DWORD PTR tv228[ebp], xmm0
$LL3@PrintManua@5:

; 2881 : 	{
; 2882 : 		m_pManual->SetPrinter( iSubManual, iLine, fScale, kPrinter);

  0007d	8b 8e 6c 01 00
	00		 mov	 ecx, DWORD PTR [esi+364]
  00083	f3 0f 10 45 10	 movss	 xmm0, DWORD PTR _fScale$[ebp]
  00088	8b 01		 mov	 eax, DWORD PTR [ecx]
  0008a	8d 55 d0	 lea	 edx, DWORD PTR _kPrinter$[ebp]
  0008d	52		 push	 edx
  0008e	51		 push	 ecx
  0008f	f3 0f 11 04 24	 movss	 DWORD PTR [esp], xmm0
  00094	53		 push	 ebx
  00095	57		 push	 edi
  00096	ff 50 10	 call	 DWORD PTR [eax+16]

; 2883 : 		a_iYPos += m_pManual->GetSpaceLine( iSubManual, iLine);

  00099	8b 8e 6c 01 00
	00		 mov	 ecx, DWORD PTR [esi+364]
  0009f	8b 01		 mov	 eax, DWORD PTR [ecx]
  000a1	53		 push	 ebx
  000a2	57		 push	 edi
  000a3	ff 50 0c	 call	 DWORD PTR [eax+12]

; 2884 : 		kPrinter.PrintFullTextWidthCut( a_iXPos, a_iYPos, TAT_LEFT, DESC_WIDTH );

  000a6	f3 0f 10 05 00
	00 00 00	 movss	 xmm0, DWORD PTR __real@434c0000
  000ae	01 45 0c	 add	 DWORD PTR _a_iYPos$[ebp], eax
  000b1	68 ff 00 00 00	 push	 255			; 000000ffH
  000b6	51		 push	 ecx
  000b7	f3 0f 11 04 24	 movss	 DWORD PTR [esp], xmm0
  000bc	66 0f 6e 45 0c	 movd	 xmm0, DWORD PTR _a_iYPos$[ebp]
  000c1	6a 00		 push	 0
  000c3	51		 push	 ecx
  000c4	51		 push	 ecx
  000c5	0f 5b c0	 cvtdq2ps xmm0, xmm0
  000c8	f3 0f 11 44 24
	04		 movss	 DWORD PTR [esp+4], xmm0
  000ce	f3 0f 10 45 08	 movss	 xmm0, DWORD PTR tv228[ebp]
  000d3	8d 4d d0	 lea	 ecx, DWORD PTR _kPrinter$[ebp]
  000d6	f3 0f 11 04 24	 movss	 DWORD PTR [esp], xmm0
  000db	e8 00 00 00 00	 call	 ?PrintFullTextWidthCut@ioComplexStringPrinter@@QAEXMMW4TextAlignType@@ME@Z ; ioComplexStringPrinter::PrintFullTextWidthCut

; 2885 : 		kPrinter.ClearList();

  000e0	8d 4d d0	 lea	 ecx, DWORD PTR _kPrinter$[ebp]
  000e3	e8 00 00 00 00	 call	 ?ClearList@ioComplexStringPrinter@@QAEXXZ ; ioComplexStringPrinter::ClearList
  000e8	43		 inc	 ebx
  000e9	3b 5d f0	 cmp	 ebx, DWORD PTR _iMaxLine$[ebp]
  000ec	7c 8f		 jl	 SHORT $LL3@PrintManua@5
$LN1@PrintManua@5:

; 2886 : 	}
; 2887 : }

  000ee	83 4d fc ff	 or	 DWORD PTR __$EHRec$[ebp+8], -1
  000f2	8d 4d d0	 lea	 ecx, DWORD PTR _kPrinter$[ebp]
  000f5	e8 00 00 00 00	 call	 ??1ioComplexStringPrinter@@QAE@XZ ; ioComplexStringPrinter::~ioComplexStringPrinter
$LN6@PrintManua@5:
  000fa	e8 00 00 00 00	 call	 __EH_epilog3
  000ff	c2 0c 00	 ret	 12			; 0000000cH
_TEXT	ENDS
;	COMDAT text$x
text$x	SEGMENT
__unwindfunclet$?PrintManual@ItemRainbowMixerResultWnd@@IAEXHHM@Z$0:
  00000	8d 4d d0	 lea	 ecx, DWORD PTR _kPrinter$[ebp]
  00003	e9 00 00 00 00	 jmp	 ??1ioComplexStringPrinter@@QAE@XZ ; ioComplexStringPrinter::~ioComplexStringPrinter
__ehhandler$?PrintManual@ItemRainbowMixerResultWnd@@IAEXHHM@Z:
  00008	8b 54 24 08	 mov	 edx, DWORD PTR [esp+8]
  0000c	8d 42 0c	 lea	 eax, DWORD PTR [edx+12]
  0000f	8b 4a cc	 mov	 ecx, DWORD PTR [edx-52]
  00012	33 c8		 xor	 ecx, eax
  00014	e8 00 00 00 00	 call	 @__security_check_cookie@4
  00019	b8 00 00 00 00	 mov	 eax, OFFSET __ehfuncinfo$?PrintManual@ItemRainbowMixerResultWnd@@IAEXHHM@Z
  0001e	e9 00 00 00 00	 jmp	 ___CxxFrameHandler3
text$x	ENDS
?PrintManual@ItemRainbowMixerResultWnd@@IAEXHHM@Z ENDP	; ItemRainbowMixerResultWnd::PrintManual
PUBLIC	?RollingEffect@ItemRainbowMixerResultWnd@@IAEXM@Z ; ItemRainbowMixerResultWnd::RollingEffect
;	COMDAT xdata$x
; File c:\program files (x86)\microsoft visual studio 10.0\vc\include\vector
xdata$x	SEGMENT
__unwindtable$?RollingEffect@ItemRainbowMixerResultWnd@@IAEXM@Z DD 0ffffffffH
	DD	FLAT:__unwindfunclet$?RollingEffect@ItemRainbowMixerResultWnd@@IAEXM@Z$0
__ehfuncinfo$?RollingEffect@ItemRainbowMixerResultWnd@@IAEXM@Z DD 019930522H
	DD	01H
	DD	FLAT:__unwindtable$?RollingEffect@ItemRainbowMixerResultWnd@@IAEXM@Z
	DD	2 DUP(00H)
	DD	2 DUP(00H)
	DD	00H
	DD	01H
; Function compile flags: /Ogsp
; File d:\lost saga for developer\youtube\tutorial\source\src\lsclient\gui\itemcompoundresultwnd.cpp
xdata$x	ENDS
;	COMDAT ?RollingEffect@ItemRainbowMixerResultWnd@@IAEXM@Z
_TEXT	SEGMENT
_szEffect$517140 = -32					; size = 16
_dwCurTime$ = -16					; size = 4
__$EHRec$ = -12						; size = 12
_fTimePerSec$ = 8					; size = 4
?RollingEffect@ItemRainbowMixerResultWnd@@IAEXM@Z PROC	; ItemRainbowMixerResultWnd::RollingEffect, COMDAT
; _this$ = ecx

; 2890 : {

  00000	6a 14		 push	 20			; 00000014H
  00002	b8 00 00 00 00	 mov	 eax, __ehhandler$?RollingEffect@ItemRainbowMixerResultWnd@@IAEXM@Z
  00007	e8 00 00 00 00	 call	 __EH_prolog3
  0000c	8b f1		 mov	 esi, ecx

; 2891 : 	DWORD dwCurTime = FRAMEGETTIME();

  0000e	ff 15 00 00 00
	00		 call	 DWORD PTR __imp_?GetSingleton@ioFrameTimer@@SAAAV1@XZ
  00014	8b c8		 mov	 ecx, eax
  00016	ff 15 00 00 00
	00		 call	 DWORD PTR __imp_?GetLoopSec@ioFrameTimer@@QBEKXZ

; 2892 : 
; 2893 : 	int iEffectListCnt = m_vEndEfffect_S.size();

  0001c	8b be 74 01 00
	00		 mov	 edi, DWORD PTR [esi+372]
  00022	2b be 70 01 00
	00		 sub	 edi, DWORD PTR [esi+368]

; 2894 : 
; 2895 : 	if( iEffectListCnt == 0 )

  00028	33 db		 xor	 ebx, ebx
  0002a	c1 ff 04	 sar	 edi, 4
  0002d	89 45 f0	 mov	 DWORD PTR _dwCurTime$[ebp], eax
  00030	3b fb		 cmp	 edi, ebx
  00032	75 20		 jne	 SHORT $LN10@RollingEff@5
$LN25@RollingEff@5:

; 2896 : 	{
; 2897 : 		SAFEDELETE( m_pEffect );

  00034	8b 8e 64 01 00
	00		 mov	 ecx, DWORD PTR [esi+356]
  0003a	3b cb		 cmp	 ecx, ebx
  0003c	0f 84 bf 00 00
	00		 je	 $LN6@RollingEff@5
  00042	8b 01		 mov	 eax, DWORD PTR [ecx]
  00044	6a 01		 push	 1
  00046	ff 50 40	 call	 DWORD PTR [eax+64]
  00049	89 9e 64 01 00
	00		 mov	 DWORD PTR [esi+356], ebx

; 2898 : 		return;

  0004f	e9 ad 00 00 00	 jmp	 $LN6@RollingEff@5
$LN10@RollingEff@5:

; 2899 : 	}
; 2900 : 
; 2901 : 	if( m_iCurEffectArray == iEffectListCnt-1 )

  00054	8d 47 ff	 lea	 eax, DWORD PTR [edi-1]
  00057	39 86 b4 01 00
	00		 cmp	 DWORD PTR [esi+436], eax

; 2902 : 	{
; 2903 : 		SAFEDELETE( m_pEffect );
; 2904 : 		return;

  0005d	74 d5		 je	 SHORT $LN25@RollingEff@5

; 2905 : 	}
; 2906 : 
; 2907 : 	if( m_dwRollingEffectCheckTime == 0 || dwCurTime - m_dwRollingEffectCheckTime > m_dwRollingEffectTime )		// 

  0005f	8b 86 bc 01 00
	00		 mov	 eax, DWORD PTR [esi+444]
  00065	3b c3		 cmp	 eax, ebx
  00067	74 11		 je	 SHORT $LN5@RollingEff@5
  00069	8b 4d f0	 mov	 ecx, DWORD PTR _dwCurTime$[ebp]
  0006c	2b c8		 sub	 ecx, eax
  0006e	3b 8e b8 01 00
	00		 cmp	 ecx, DWORD PTR [esi+440]
  00074	0f 86 87 00 00
	00		 jbe	 $LN6@RollingEff@5
$LN5@RollingEff@5:

; 2908 : 	{
; 2909 : 		SAFEDELETE( m_pEffect );

  0007a	8b 8e 64 01 00
	00		 mov	 ecx, DWORD PTR [esi+356]
  00080	3b cb		 cmp	 ecx, ebx
  00082	74 0d		 je	 SHORT $LN4@RollingEff@5
  00084	8b 01		 mov	 eax, DWORD PTR [ecx]
  00086	6a 01		 push	 1
  00088	ff 50 40	 call	 DWORD PTR [eax+64]
  0008b	89 9e 64 01 00
	00		 mov	 DWORD PTR [esi+356], ebx
$LN4@RollingEff@5:

; 2910 : 
; 2911 : 		m_iCurEffectArray++;

  00091	ff 86 b4 01 00
	00		 inc	 DWORD PTR [esi+436]
  00097	8b 86 b4 01 00
	00		 mov	 eax, DWORD PTR [esi+436]

; 2912 : 
; 2913 : 		if( !COMPARE( m_iCurEffectArray, 0, iEffectListCnt ) )

  0009d	78 04		 js	 SHORT $LN2@RollingEff@5
  0009f	3b c7		 cmp	 eax, edi
  000a1	7c 06		 jl	 SHORT $LN3@RollingEff@5
$LN2@RollingEff@5:

; 2914 : 			m_iCurEffectArray = 0;

  000a3	89 9e b4 01 00
	00		 mov	 DWORD PTR [esi+436], ebx
$LN3@RollingEff@5:

; 2915 : 
; 2916 : 		ioHashString szEffect = m_vEndEfffect_S[m_iCurEffectArray];

  000a9	8b 86 b4 01 00
	00		 mov	 eax, DWORD PTR [esi+436]
  000af	c1 e0 04	 shl	 eax, 4
  000b2	03 86 70 01 00
	00		 add	 eax, DWORD PTR [esi+368]
  000b8	8d 4d e0	 lea	 ecx, DWORD PTR _szEffect$517140[ebp]
  000bb	50		 push	 eax
  000bc	ff 15 00 00 00
	00		 call	 DWORD PTR __imp_??0ioHashString@@QAE@ABV0@@Z

; 2917 : 
; 2918 : 		if( !szEffect.IsEmpty() )

  000c2	8d 4d e0	 lea	 ecx, DWORD PTR _szEffect$517140[ebp]
  000c5	89 5d fc	 mov	 DWORD PTR __$EHRec$[ebp+8], ebx
  000c8	ff 15 00 00 00
	00		 call	 DWORD PTR __imp_?IsEmpty@ioHashString@@QBE_NXZ
  000ce	84 c0		 test	 al, al
  000d0	75 19		 jne	 SHORT $LN1@RollingEff@5

; 2919 : 		{
; 2920 : 			m_pEffect = g_UIImageSetMgr.CreateImageByFullName( szEffect );

  000d2	8d 45 e0	 lea	 eax, DWORD PTR _szEffect$517140[ebp]
  000d5	53		 push	 ebx
  000d6	50		 push	 eax
  000d7	ff 15 00 00 00
	00		 call	 DWORD PTR __imp_?GetSingleton@ioUIImageSetManager@@SAAAV1@XZ
  000dd	8b c8		 mov	 ecx, eax
  000df	ff 15 00 00 00
	00		 call	 DWORD PTR __imp_?CreateImageByFullName@ioUIImageSetManager@@QAEPAVioUIRenderImage@@ABVioHashString@@_N@Z
  000e5	89 86 64 01 00
	00		 mov	 DWORD PTR [esi+356], eax
$LN1@RollingEff@5:

; 2921 : 		}
; 2922 : 
; 2923 : 		m_dwRollingEffectCheckTime = dwCurTime;

  000eb	8b 45 f0	 mov	 eax, DWORD PTR _dwCurTime$[ebp]

; 2924 : 	}

  000ee	83 4d fc ff	 or	 DWORD PTR __$EHRec$[ebp+8], -1
  000f2	8d 4d e0	 lea	 ecx, DWORD PTR _szEffect$517140[ebp]
  000f5	89 86 bc 01 00
	00		 mov	 DWORD PTR [esi+444], eax
  000fb	ff 15 00 00 00
	00		 call	 DWORD PTR __imp_??1ioHashString@@QAE@XZ
$LN6@RollingEff@5:

; 2925 : }

  00101	e8 00 00 00 00	 call	 __EH_epilog3
  00106	c2 04 00	 ret	 4
_TEXT	ENDS
;	COMDAT text$x
text$x	SEGMENT
__unwindfunclet$?RollingEffect@ItemRainbowMixerResultWnd@@IAEXM@Z$0:
  00000	8d 4d e0	 lea	 ecx, DWORD PTR _szEffect$517140[ebp]
  00003	ff 25 00 00 00
	00		 jmp	 DWORD PTR __imp_??1ioHashString@@QAE@XZ
__ehhandler$?RollingEffect@ItemRainbowMixerResultWnd@@IAEXM@Z:
  00009	8b 54 24 08	 mov	 edx, DWORD PTR [esp+8]
  0000d	8d 42 0c	 lea	 eax, DWORD PTR [edx+12]
  00010	8b 4a dc	 mov	 ecx, DWORD PTR [edx-36]
  00013	33 c8		 xor	 ecx, eax
  00015	e8 00 00 00 00	 call	 @__security_check_cookie@4
  0001a	b8 00 00 00 00	 mov	 eax, OFFSET __ehfuncinfo$?RollingEffect@ItemRainbowMixerResultWnd@@IAEXM@Z
  0001f	e9 00 00 00 00	 jmp	 ___CxxFrameHandler3
text$x	ENDS
?RollingEffect@ItemRainbowMixerResultWnd@@IAEXM@Z ENDP	; ItemRainbowMixerResultWnd::RollingEffect
PUBLIC	?ReBatchButton@ItemRainbowMixerResultWnd@@IAEXH@Z ; ItemRainbowMixerResultWnd::ReBatchButton
; Function compile flags: /Ogsp
;	COMDAT ?ReBatchButton@ItemRainbowMixerResultWnd@@IAEXH@Z
_TEXT	SEGMENT
_kSlot$517166 = -16					; size = 12
_this$ = -4						; size = 4
tv467 = 8						; size = 4
_pTitle$517177 = 8					; size = 4
_iType$ = 8						; size = 4
?ReBatchButton@ItemRainbowMixerResultWnd@@IAEXH@Z PROC	; ItemRainbowMixerResultWnd::ReBatchButton, COMDAT
; _this$ = ecx

; 2928 : {

  00000	55		 push	 ebp
  00001	8b ec		 mov	 ebp, esp
  00003	83 ec 10	 sub	 esp, 16			; 00000010H

; 2929 : 	enum
; 2930 : 	{
; 2931 : 		ONE_BTN_SIZE	= 204,
; 2932 : 		TWO_BTN_SIZE	= 102,
; 2933 : 
; 2934 : 		ONE_BTN_X		= 27,
; 2935 : 		TWO_BTN_X		= 131,
; 2936 : 
; 2937 : 		ONE_TEXT_X		= 102,
; 2938 : 		TWO_TEXT_X		= 51,
; 2939 : 	};
; 2940 : 
; 2941 : 	switch( iType )

  00006	8b 45 08	 mov	 eax, DWORD PTR _iType$[ebp]
  00009	48		 dec	 eax
  0000a	53		 push	 ebx
  0000b	56		 push	 esi
  0000c	8b d9		 mov	 ebx, ecx
  0000e	57		 push	 edi
  0000f	89 5d fc	 mov	 DWORD PTR _this$[ebp], ebx
  00012	0f 84 b8 01 00
	00		 je	 $LN13@ReBatchBut@5
  00018	48		 dec	 eax
  00019	0f 85 da 01 00
	00		 jne	 $LN14@ReBatchBut@5

; 2949 : 		break;
; 2950 : 	case RESULT_BTN:
; 2951 : 		HideChildWnd(ID_ROLLING);

  0001f	8b 3d 00 00 00
	00		 mov	 edi, DWORD PTR __imp_?HideChildWnd@ioWnd@@QAEXK_N@Z
  00025	33 f6		 xor	 esi, esi
  00027	56		 push	 esi
  00028	6a 01		 push	 1
  0002a	ff d7		 call	 edi

; 2952 : 		HideChildWnd(ID_USE);

  0002c	56		 push	 esi
  0002d	6a 02		 push	 2
  0002f	8b cb		 mov	 ecx, ebx
  00031	ff d7		 call	 edi

; 2953 : 		HideChildWnd(ID_GO);

  00033	56		 push	 esi
  00034	6a 03		 push	 3
  00036	8b cb		 mov	 ecx, ebx
  00038	ff d7		 call	 edi

; 2954 : 
; 2955 : 		// 
; 2956 : 		ioUserEtcItem *pUserEtcItem = g_MyInfo.GetUserEtcItem();

  0003a	e8 00 00 00 00	 call	 ?GetSingleton@ioMyInfo@@SAAAV1@XZ ; ioMyInfo::GetSingleton
  0003f	05 44 01 00 00	 add	 eax, 324		; 00000144H

; 2957 : 		if( !pUserEtcItem )

  00044	75 7f		 jne	 SHORT $LN11@ReBatchBut@5

; 2958 : 		{
; 2959 : 			ioButton *pButton = dynamic_cast<ioButton*>(FindChildWnd(ID_GO));

  00046	56		 push	 esi
  00047	68 00 00 00 00	 push	 OFFSET ??_R0?AVioButton@@@8
  0004c	68 00 00 00 00	 push	 OFFSET ??_R0?AVioWnd@@@8
  00051	56		 push	 esi
  00052	8b cb		 mov	 ecx, ebx
$LN24@ReBatchBut@5:
  00054	6a 03		 push	 3
  00056	ff 15 00 00 00
	00		 call	 DWORD PTR __imp_?FindChildWnd@ioWnd@@QAEPAV1@K@Z
  0005c	50		 push	 eax
  0005d	e8 00 00 00 00	 call	 ___RTDynamicCast
  00062	8b f8		 mov	 edi, eax
  00064	83 c4 14	 add	 esp, 20			; 00000014H

; 2960 : 			if( pButton )

  00067	3b fe		 cmp	 edi, esi
  00069	0f 84 8a 01 00
	00		 je	 $LN14@ReBatchBut@5

; 2961 : 			{
; 2962 : 				pButton->SetSize( ONE_BTN_SIZE, pButton->GetHeight() );

  0006f	8b 1f		 mov	 ebx, DWORD PTR [edi]
  00071	8b cf		 mov	 ecx, edi
  00073	ff 15 00 00 00
	00		 call	 DWORD PTR __imp_?GetHeight@ioWnd@@QBEHXZ
  00079	50		 push	 eax
  0007a	68 cc 00 00 00	 push	 204			; 000000ccH
  0007f	8b cf		 mov	 ecx, edi
  00081	ff 53 2c	 call	 DWORD PTR [ebx+44]

; 2963 : 				pButton->SetWndPos( ONE_BTN_X, pButton->GetYPos() );

  00084	8b cf		 mov	 ecx, edi
  00086	ff 15 00 00 00
	00		 call	 DWORD PTR __imp_?GetYPos@ioWnd@@QBEHXZ
  0008c	50		 push	 eax
  0008d	6a 1b		 push	 27			; 0000001bH
  0008f	8b cf		 mov	 ecx, edi
  00091	ff 15 00 00 00
	00		 call	 DWORD PTR __imp_?SetWndPos@ioWnd@@QAEXHH@Z

; 2964 : 
; 2965 : 				ioUITitle *pTitle =  pButton->GetTitle();

  00097	8b cf		 mov	 ecx, edi
  00099	ff 15 00 00 00
	00		 call	 DWORD PTR __imp_?GetTitle@ioWnd@@QBEPAVioUITitle@@XZ
  0009f	8b d8		 mov	 ebx, eax

; 2966 : 				if( pTitle )

  000a1	3b de		 cmp	 ebx, esi
  000a3	74 13		 je	 SHORT $LN9@ReBatchBut@5

; 2967 : 				{
; 2968 : 					pTitle->SetOffset( ONE_TEXT_X, pTitle->GetTextYOffSet() );

  000a5	8b cb		 mov	 ecx, ebx
  000a7	ff 15 00 00 00
	00		 call	 DWORD PTR __imp_?GetTextYOffSet@ioUITitle@@QBEHXZ
  000ad	50		 push	 eax
  000ae	6a 66		 push	 102			; 00000066H
$LN22@ReBatchBut@5:
  000b0	8b cb		 mov	 ecx, ebx
  000b2	ff 15 00 00 00
	00		 call	 DWORD PTR __imp_?SetOffset@ioUITitle@@QAEXHH@Z
$LN9@ReBatchBut@5:

; 2969 : 				}
; 2970 : 
; 2971 : 				pButton->ShowWnd();

  000b8	8b cf		 mov	 ecx, edi
  000ba	ff 15 00 00 00
	00		 call	 DWORD PTR __imp_?ShowWnd@ioWnd@@QAEXXZ

; 2972 : 			}
; 2973 : 			break;

  000c0	e9 34 01 00 00	 jmp	 $LN14@ReBatchBut@5
$LN11@ReBatchBut@5:

; 2974 : 		}
; 2975 : 
; 2976 : 		ioUserEtcItem::ETCITEMSLOT kSlot;
; 2977 : 		if( !pUserEtcItem->GetEtcItem( m_dwEtcItemCode, kSlot) )

  000c5	8d 4d f0	 lea	 ecx, DWORD PTR _kSlot$517166[ebp]
  000c8	51		 push	 ecx
  000c9	ff b3 80 01 00
	00		 push	 DWORD PTR [ebx+384]
  000cf	8b c8		 mov	 ecx, eax
  000d1	89 75 f0	 mov	 DWORD PTR _kSlot$517166[ebp], esi
  000d4	89 75 f4	 mov	 DWORD PTR _kSlot$517166[ebp+4], esi
  000d7	89 75 f8	 mov	 DWORD PTR _kSlot$517166[ebp+8], esi
  000da	e8 00 00 00 00	 call	 ?GetEtcItem@ioUserEtcItem@@QAE_NHAAUETCITEMSLOT@1@@Z ; ioUserEtcItem::GetEtcItem

; 2978 : 		{
; 2979 : 			ioButton *pButton = dynamic_cast<ioButton*>(FindChildWnd(ID_GO));

  000df	56		 push	 esi
  000e0	68 00 00 00 00	 push	 OFFSET ??_R0?AVioButton@@@8
  000e5	68 00 00 00 00	 push	 OFFSET ??_R0?AVioWnd@@@8
  000ea	8b cb		 mov	 ecx, ebx
  000ec	56		 push	 esi
  000ed	84 c0		 test	 al, al

; 2980 : 			if( pButton )
; 2981 : 			{
; 2982 : 				pButton->SetSize( ONE_BTN_SIZE, pButton->GetHeight() );
; 2983 : 				pButton->SetWndPos( ONE_BTN_X, pButton->GetYPos() );
; 2984 : 
; 2985 : 				ioUITitle *pTitle =  pButton->GetTitle();
; 2986 : 				if( pTitle )
; 2987 : 				{
; 2988 : 					pTitle->SetOffset( ONE_TEXT_X, pTitle->GetTextYOffSet() );
; 2989 : 				}
; 2990 : 
; 2991 : 				pButton->ShowWnd();
; 2992 : 			}
; 2993 : 		}
; 2994 : 		else

  000ef	0f 84 5f ff ff
	ff		 je	 $LN24@ReBatchBut@5

; 2995 : 		{
; 2996 : 			ioButton *pButton = dynamic_cast<ioButton*>(FindChildWnd(ID_USE));

  000f5	8b 1d 00 00 00
	00		 mov	 ebx, DWORD PTR __imp_?FindChildWnd@ioWnd@@QAEPAV1@K@Z
  000fb	6a 02		 push	 2
  000fd	ff d3		 call	 ebx
  000ff	50		 push	 eax
  00100	e8 00 00 00 00	 call	 ___RTDynamicCast
  00105	8b f8		 mov	 edi, eax
  00107	83 c4 14	 add	 esp, 20			; 00000014H

; 2997 : 			if( pButton )

  0010a	3b fe		 cmp	 edi, esi
  0010c	74 56		 je	 SHORT $LN4@ReBatchBut@5

; 2998 : 			{
; 2999 : 				pButton->SetSize( TWO_BTN_SIZE, pButton->GetHeight() );

  0010e	8b 07		 mov	 eax, DWORD PTR [edi]
  00110	8b cf		 mov	 ecx, edi
  00112	89 45 08	 mov	 DWORD PTR tv467[ebp], eax
  00115	ff 15 00 00 00
	00		 call	 DWORD PTR __imp_?GetHeight@ioWnd@@QBEHXZ
  0011b	50		 push	 eax
  0011c	8b 45 08	 mov	 eax, DWORD PTR tv467[ebp]
  0011f	6a 66		 push	 102			; 00000066H
  00121	8b cf		 mov	 ecx, edi
  00123	ff 50 2c	 call	 DWORD PTR [eax+44]

; 3000 : 				pButton->SetWndPos( ONE_BTN_X, pButton->GetYPos() );

  00126	8b cf		 mov	 ecx, edi
  00128	ff 15 00 00 00
	00		 call	 DWORD PTR __imp_?GetYPos@ioWnd@@QBEHXZ
  0012e	50		 push	 eax
  0012f	6a 1b		 push	 27			; 0000001bH
  00131	8b cf		 mov	 ecx, edi
  00133	ff 15 00 00 00
	00		 call	 DWORD PTR __imp_?SetWndPos@ioWnd@@QAEXHH@Z

; 3001 : 
; 3002 : 				ioUITitle *pTitle =  pButton->GetTitle();

  00139	8b cf		 mov	 ecx, edi
  0013b	ff 15 00 00 00
	00		 call	 DWORD PTR __imp_?GetTitle@ioWnd@@QBEPAVioUITitle@@XZ
  00141	8b c8		 mov	 ecx, eax
  00143	89 4d 08	 mov	 DWORD PTR _pTitle$517177[ebp], ecx

; 3003 : 				if( pTitle )

  00146	3b ce		 cmp	 ecx, esi
  00148	74 12		 je	 SHORT $LN3@ReBatchBut@5

; 3004 : 				{
