; Listing generated by Microsoft (R) Optimizing Compiler Version 16.00.30319.01 

	TITLE	D:\Lost Saga For Developer\Youtube\Tutorial\Source\src\LSClient\GUI\LobbyMainWnd.cpp
	.686P
	.XMM
	include listing.inc
	.model	flat

INCLUDELIB MSVCRT
INCLUDELIB OLDNAMES

PUBLIC	?return1@@YAIXZ					; return1
; Function compile flags: /Ogsp
; File d:\lost saga for developer\youtube\tutorial\source\src\lsclient\stdafx.h
;	COMDAT ?return1@@YAIXZ
_TEXT	SEGMENT
?return1@@YAIXZ PROC					; return1, COMDAT

; 17   : 	__forceinline unsigned int return1() { __asm mov eax, 1 };

  00000	b8 01 00 00 00	 mov	 eax, 1
  00005	c3		 ret	 0
?return1@@YAIXZ ENDP					; return1
_TEXT	ENDS
PUBLIC	?return5@@YAIXZ					; return5
; Function compile flags: /Ogsp
;	COMDAT ?return5@@YAIXZ
_TEXT	SEGMENT
?return5@@YAIXZ PROC					; return5, COMDAT

; 18   : 	__forceinline unsigned int return5() { __asm mov eax, 5 };

  00000	b8 05 00 00 00	 mov	 eax, 5
  00005	c3		 ret	 0
?return5@@YAIXZ ENDP					; return5
_TEXT	ENDS
PUBLIC	?return10@@YAIXZ				; return10
; Function compile flags: /Ogsp
;	COMDAT ?return10@@YAIXZ
_TEXT	SEGMENT
?return10@@YAIXZ PROC					; return10, COMDAT

; 21   : 	__forceinline unsigned int return10() { __asm mov eax, 10 };

  00000	b8 0a 00 00 00	 mov	 eax, 10			; 0000000aH
  00005	c3		 ret	 0
?return10@@YAIXZ ENDP					; return10
_TEXT	ENDS
PUBLIC	?return100@@YAIXZ				; return100
; Function compile flags: /Ogsp
;	COMDAT ?return100@@YAIXZ
_TEXT	SEGMENT
?return100@@YAIXZ PROC					; return100, COMDAT

; 25   : 	__forceinline unsigned int return100() { __asm mov eax, 100 };

  00000	b8 64 00 00 00	 mov	 eax, 100		; 00000064H
  00005	c3		 ret	 0
?return100@@YAIXZ ENDP					; return100
_TEXT	ENDS
PUBLIC	??_7LobbyBtn@@6B@				; LobbyBtn::`vftable'
PUBLIC	??0LobbyBtn@@QAE@XZ				; LobbyBtn::LobbyBtn
PUBLIC	??_R4LobbyBtn@@6B@				; LobbyBtn::`RTTI Complete Object Locator'
PUBLIC	??_R0?AVLobbyBtn@@@8				; LobbyBtn `RTTI Type Descriptor'
PUBLIC	??_R3LobbyBtn@@8				; LobbyBtn::`RTTI Class Hierarchy Descriptor'
PUBLIC	??_R2LobbyBtn@@8				; LobbyBtn::`RTTI Base Class Array'
PUBLIC	??_R1A@?0A@EA@LobbyBtn@@8			; LobbyBtn::`RTTI Base Class Descriptor at (0,-1,0,64)'
PUBLIC	??_R1A@?0A@EA@ioRadioButton@@8			; ioRadioButton::`RTTI Base Class Descriptor at (0,-1,0,64)'
PUBLIC	??_R0?AVioRadioButton@@@8			; ioRadioButton `RTTI Type Descriptor'
PUBLIC	??_R3ioRadioButton@@8				; ioRadioButton::`RTTI Class Hierarchy Descriptor'
PUBLIC	??_R2ioRadioButton@@8				; ioRadioButton::`RTTI Base Class Array'
PUBLIC	??_R1A@?0A@EA@ioButton@@8			; ioButton::`RTTI Base Class Descriptor at (0,-1,0,64)'
PUBLIC	??_R0?AVioButton@@@8				; ioButton `RTTI Type Descriptor'
PUBLIC	??_R3ioButton@@8				; ioButton::`RTTI Class Hierarchy Descriptor'
PUBLIC	??_R2ioButton@@8				; ioButton::`RTTI Base Class Array'
PUBLIC	??_R1A@?0A@EA@ioWnd@@8				; ioWnd::`RTTI Base Class Descriptor at (0,-1,0,64)'
PUBLIC	??_R0?AVioWnd@@@8				; ioWnd `RTTI Type Descriptor'
PUBLIC	??_R3ioWnd@@8					; ioWnd::`RTTI Class Hierarchy Descriptor'
PUBLIC	??_R2ioWnd@@8					; ioWnd::`RTTI Base Class Array'
PUBLIC	?AddRenderFrame@LobbyBtn@@MAEXABVioHashString@@PAVioUIRenderFrame@@@Z ; LobbyBtn::AddRenderFrame
PUBLIC	?AddRenderImage@LobbyBtn@@MAEXABVioHashString@@PAVioUIRenderImage@@@Z ; LobbyBtn::AddRenderImage
PUBLIC	?OnRender@LobbyBtn@@MAEXXZ			; LobbyBtn::OnRender
PUBLIC	?iwm_show@LobbyBtn@@UAEXXZ			; LobbyBtn::iwm_show
PUBLIC	?iwm_hide@LobbyBtn@@UAEXXZ			; LobbyBtn::iwm_hide
EXTRN	__imp_??0ioRadioButton@@QAE@XZ:PROC
EXTRN	??_7type_info@@6B@:QWORD			; type_info::`vftable'
EXTRN	?AddTooltipHelp@ioWnd@@UAEXABVioHashString@@00@Z:PROC ; ioWnd::AddTooltipHelp
EXTRN	?ParseExtraInfo@ioButton@@UAEXAAVioXMLElement@@@Z:PROC ; ioButton::ParseExtraInfo
EXTRN	?AddNamedRenderImage@ioWnd@@UAEXABVioHashString@@PAVioUIRenderImage@@@Z:PROC ; ioWnd::AddNamedRenderImage
EXTRN	?RemoveNamedRenderImage@ioWnd@@UAEXABVioHashString@@@Z:PROC ; ioWnd::RemoveNamedRenderImage
EXTRN	?GetNamedRenderImage@ioWnd@@UBEPAVioUIRenderImage@@ABVioHashString@@@Z:PROC ; ioWnd::GetNamedRenderImage
EXTRN	?SetWindowAlpha@ioButton@@UAEXH@Z:PROC		; ioButton::SetWindowAlpha
EXTRN	?SetActive@ioWnd@@UAEXXZ:PROC			; ioWnd::SetActive
EXTRN	?SetInActive@ioWnd@@UAEXXZ:PROC			; ioWnd::SetInActive
EXTRN	?ClearElementImageList@ioWnd@@UAEXXZ:PROC	; ioWnd::ClearElementImageList
EXTRN	?SetSize@ioWnd@@UAEXHH@Z:PROC			; ioWnd::SetSize
EXTRN	?SetPositionToDefault@ioWnd@@UAEXHH_N0@Z:PROC	; ioWnd::SetPositionToDefault
EXTRN	?IsNeedProcess@ioWnd@@UBE_NXZ:PROC		; ioWnd::IsNeedProcess
EXTRN	?IsCanMouseReaction@ioWnd@@UBE_NXZ:PROC		; ioWnd::IsCanMouseReaction
EXTRN	?AddChild@ioWnd@@UAEXPAV1@@Z:PROC		; ioWnd::AddChild
EXTRN	?DeleteChild@ioWnd@@UAEXK@Z:PROC		; ioWnd::DeleteChild
EXTRN	?DeleteAllChild@ioWnd@@UAEXXZ:PROC		; ioWnd::DeleteAllChild
EXTRN	?OnRenderShowAndHide@ioWnd@@MAE_NXZ:PROC	; ioWnd::OnRenderShowAndHide
EXTRN	?OnRenderShowAndHideByDefault@ioWnd@@MAE_NK@Z:PROC ; ioWnd::OnRenderShowAndHideByDefault
EXTRN	?OnRenderShowAndHideByTop@ioWnd@@MAE_NK@Z:PROC	; ioWnd::OnRenderShowAndHideByTop
EXTRN	?OnRenderShowAndHideByDown@ioWnd@@MAE_NK@Z:PROC	; ioWnd::OnRenderShowAndHideByDown
EXTRN	?OnRenderAfterChild@ioWnd@@MAEXXZ:PROC		; ioWnd::OnRenderAfterChild
EXTRN	?OnProcess@ioWnd@@MAEXM@Z:PROC			; ioWnd::OnProcess
EXTRN	?OnMouseProcess@ioWnd@@MAEXABVioMouse@@@Z:PROC	; ioWnd::OnMouseProcess
EXTRN	?CheckFrameReSize@ioButton@@MAEXHHHH@Z:PROC	; ioButton::CheckFrameReSize
EXTRN	?RenderImageList@ioWnd@@MAEXHHW4UIRenderType@@@Z:PROC ; ioWnd::RenderImageList
EXTRN	?iwm_create@ioWnd@@UAEXXZ:PROC			; ioWnd::iwm_create
EXTRN	?iwm_destroy@ioWnd@@UAEXXZ:PROC			; ioWnd::iwm_destroy
EXTRN	?iwm_lbuttondown@ioButton@@UAEXABVioMouse@@@Z:PROC ; ioButton::iwm_lbuttondown
EXTRN	?iwm_lbuttonup@ioRadioButton@@UAEXABVioMouse@@@Z:PROC ; ioRadioButton::iwm_lbuttonup
EXTRN	?iwm_lbuttonDBLCLK@ioButton@@UAEXABVioMouse@@@Z:PROC ; ioButton::iwm_lbuttonDBLCLK
EXTRN	?iwm_rbuttondown@ioButton@@UAEXABVioMouse@@@Z:PROC ; ioButton::iwm_rbuttondown
EXTRN	?iwm_rbuttonup@ioButton@@UAEXABVioMouse@@@Z:PROC ; ioButton::iwm_rbuttonup
EXTRN	?iwm_command@ioWnd@@UAEXPAV1@HK@Z:PROC		; ioWnd::iwm_command
EXTRN	?iwm_mouseover@ioButton@@UAEXABVioMouse@@@Z:PROC ; ioButton::iwm_mouseover
EXTRN	?iwm_mousemove@ioWnd@@UAEXABVioMouse@@@Z:PROC	; ioWnd::iwm_mousemove
EXTRN	?iwm_mouseleave@ioRadioButton@@UAEXABVioMouse@@@Z:PROC ; ioRadioButton::iwm_mouseleave
EXTRN	?iwm_vscroll@ioWnd@@UAEXKH@Z:PROC		; ioWnd::iwm_vscroll
EXTRN	?iwm_wheel@ioWnd@@UAEXH@Z:PROC			; ioWnd::iwm_wheel
EXTRN	?iwm_esc@ioWnd@@UAE_NXZ:PROC			; ioWnd::iwm_esc
EXTRN	?iwm_spacebar@ioWnd@@UAE_NXZ:PROC		; ioWnd::iwm_spacebar
EXTRN	?iwm_gototop@ioWnd@@UAEXXZ:PROC			; ioWnd::iwm_gototop
EXTRN	?iwm_dragenter@ioWnd@@UAE?AW4IWDropEffect@@PAVioDragItem@@ABVioMouse@@@Z:PROC ; ioWnd::iwm_dragenter
EXTRN	?iwm_dragover@ioWnd@@UAE?AW4IWDropEffect@@PAVioDragItem@@ABVioMouse@@@Z:PROC ; ioWnd::iwm_dragover
EXTRN	?iwm_dragleave@ioWnd@@UAEXXZ:PROC		; ioWnd::iwm_dragleave
EXTRN	?iwm_dropitem@ioWnd@@UAE_NPAVioDragItem@@ABVioMouse@@PAV1@@Z:PROC ; ioWnd::iwm_dropitem
EXTRN	?iwm_dropdone@ioWnd@@UAEXPAVioDragItem@@PAV1@_N@Z:PROC ; ioWnd::iwm_dropdone
EXTRN	?IsEXType@ioWnd@@UBE_NXZ:PROC			; ioWnd::IsEXType
EXTRN	?GetWndType@ioRadioButton@@UBEKXZ:PROC		; ioRadioButton::GetWndType
EXTRN	?RenderWnd@ioWnd@@UAEXXZ:PROC			; ioWnd::RenderWnd
EXTRN	?SetIDEX@ioWnd@@UAEXAAK_N@Z:PROC		; ioWnd::SetIDEX
EXTRN	?ParseXML@ioWnd@@UAEXAAVioXMLElement@@@Z:PROC	; ioWnd::ParseXML
EXTRN	?GetHeaderFileName@ioRadioButton@@UAEPBDXZ:PROC	; ioRadioButton::GetHeaderFileName
EXTRN	?GetTemplateName@ioRadioButton@@UAEPBDXZ:PROC	; ioRadioButton::GetTemplateName
EXTRN	?GetDefClassName@ioRadioButton@@UBEPBDXZ:PROC	; ioRadioButton::GetDefClassName
EXTRN	?_Clone@ioRadioButton@@UAEPAVioWnd@@XZ:PROC	; ioRadioButton::_Clone
EXTRN	?Copy@ioButton@@UAEXPAVioWnd@@@Z:PROC		; ioButton::Copy
EXTRN	?Save@ioWnd@@UAE_NAAVioXMLElement@@@Z:PROC	; ioWnd::Save
EXTRN	?SetSaveData@ioButton@@UAEXAAVioXMLElement@@@Z:PROC ; ioButton::SetSaveData
EXTRN	?SetPosX@ioWnd@@UAEXH@Z:PROC			; ioWnd::SetPosX
EXTRN	?SetPosY@ioWnd@@UAEXH@Z:PROC			; ioWnd::SetPosY
EXTRN	?SetWidth@ioWnd@@UAEXH@Z:PROC			; ioWnd::SetWidth
EXTRN	?SetHeight@ioWnd@@UAEXH@Z:PROC			; ioWnd::SetHeight
EXTRN	?GetNumFixedRenderFrame@ioButton@@UBEHXZ:PROC	; ioButton::GetNumFixedRenderFrame
EXTRN	?GetFixedRenderFrameType@ioButton@@UAEPBDH@Z:PROC ; ioButton::GetFixedRenderFrameType
EXTRN	?GetRenderFrame@ioButton@@UAEPAPAVioUIRenderElement@@PBD@Z:PROC ; ioButton::GetRenderFrame
EXTRN	?GetNumFixedRenderImage@ioButton@@UBEHXZ:PROC	; ioButton::GetNumFixedRenderImage
EXTRN	?GetFixedRenderImageType@ioButton@@UAEPBDH@Z:PROC ; ioButton::GetFixedRenderImageType
EXTRN	?GetRenderImage@ioButton@@UAEPAPAVioUIRenderElement@@PBD@Z:PROC ; ioButton::GetRenderImage
EXTRN	?AddEffect@ioWnd@@UAEXABVioHashString@@PAVioUI3DEffectRender@@@Z:PROC ; ioWnd::AddEffect
EXTRN	?GetEffect@ioWnd@@UAEPAVioUI3DEffectRender@@VioHashString@@@Z:PROC ; ioWnd::GetEffect
EXTRN	??_ELobbyBtn@@UAEPAXI@Z:PROC			; LobbyBtn::`vector deleting destructor'
EXTRN	?OnDrawNormal@ioButton@@MAEXHH@Z:PROC		; ioButton::OnDrawNormal
EXTRN	?OnDrawOvered@ioButton@@MAEXHH@Z:PROC		; ioButton::OnDrawOvered
EXTRN	?OnDrawOveredAdd@ioButton@@MAEXHH@Z:PROC	; ioButton::OnDrawOveredAdd
EXTRN	?OnDrawPushed@ioRadioButton@@MAEXHH@Z:PROC	; ioRadioButton::OnDrawPushed
EXTRN	?OnDrawDisabled@ioButton@@MAEXHH@Z:PROC		; ioButton::OnDrawDisabled
EXTRN	?OnDrawExDisabledNormal@ioButton@@MAEXHH@Z:PROC	; ioButton::OnDrawExDisabledNormal
EXTRN	?OnDrawExDisabledOvered@ioButton@@MAEXHH@Z:PROC	; ioButton::OnDrawExDisabledOvered
EXTRN	?OnDrawExDisabledPushed@ioButton@@MAEXHH@Z:PROC	; ioButton::OnDrawExDisabledPushed
EXTRN	?OnDrawBack@ioButton@@MAEXHH@Z:PROC		; ioButton::OnDrawBack
EXTRN	?OnDrawNormalList@ioButton@@MAEXHH@Z:PROC	; ioButton::OnDrawNormalList
EXTRN	?OnDrawDisableList@ioButton@@MAEXHH@Z:PROC	; ioButton::OnDrawDisableList
;	COMDAT ??_R2ioWnd@@8
; File d:\lost saga for developer\youtube\tutorial\source\src\lsclient\gui\lobbymainwnd.cpp
rdata$r	SEGMENT
??_R2ioWnd@@8 DD FLAT:??_R1A@?0A@EA@ioWnd@@8		; ioWnd::`RTTI Base Class Array'
rdata$r	ENDS
;	COMDAT ??_R3ioWnd@@8
rdata$r	SEGMENT
??_R3ioWnd@@8 DD 00H					; ioWnd::`RTTI Class Hierarchy Descriptor'
	DD	00H
	DD	01H
	DD	FLAT:??_R2ioWnd@@8
rdata$r	ENDS
;	COMDAT ??_R0?AVioWnd@@@8
_DATA	SEGMENT
??_R0?AVioWnd@@@8 DD FLAT:??_7type_info@@6B@		; ioWnd `RTTI Type Descriptor'
	DD	00H
	DB	'.?AVioWnd@@', 00H
_DATA	ENDS
;	COMDAT ??_R1A@?0A@EA@ioWnd@@8
rdata$r	SEGMENT
??_R1A@?0A@EA@ioWnd@@8 DD FLAT:??_R0?AVioWnd@@@8	; ioWnd::`RTTI Base Class Descriptor at (0,-1,0,64)'
	DD	00H
	DD	00H
	DD	0ffffffffH
	DD	00H
	DD	040H
	DD	FLAT:??_R3ioWnd@@8
rdata$r	ENDS
;	COMDAT ??_R2ioButton@@8
rdata$r	SEGMENT
??_R2ioButton@@8 DD FLAT:??_R1A@?0A@EA@ioButton@@8	; ioButton::`RTTI Base Class Array'
	DD	FLAT:??_R1A@?0A@EA@ioWnd@@8
rdata$r	ENDS
;	COMDAT ??_R3ioButton@@8
rdata$r	SEGMENT
??_R3ioButton@@8 DD 00H					; ioButton::`RTTI Class Hierarchy Descriptor'
	DD	00H
	DD	02H
	DD	FLAT:??_R2ioButton@@8
rdata$r	ENDS
;	COMDAT ??_R0?AVioButton@@@8
_DATA	SEGMENT
??_R0?AVioButton@@@8 DD FLAT:??_7type_info@@6B@		; ioButton `RTTI Type Descriptor'
	DD	00H
	DB	'.?AVioButton@@', 00H
_DATA	ENDS
;	COMDAT ??_R1A@?0A@EA@ioButton@@8
rdata$r	SEGMENT
??_R1A@?0A@EA@ioButton@@8 DD FLAT:??_R0?AVioButton@@@8	; ioButton::`RTTI Base Class Descriptor at (0,-1,0,64)'
	DD	01H
	DD	00H
	DD	0ffffffffH
	DD	00H
	DD	040H
	DD	FLAT:??_R3ioButton@@8
rdata$r	ENDS
;	COMDAT ??_R2ioRadioButton@@8
rdata$r	SEGMENT
??_R2ioRadioButton@@8 DD FLAT:??_R1A@?0A@EA@ioRadioButton@@8 ; ioRadioButton::`RTTI Base Class Array'
	DD	FLAT:??_R1A@?0A@EA@ioButton@@8
	DD	FLAT:??_R1A@?0A@EA@ioWnd@@8
rdata$r	ENDS
;	COMDAT ??_R3ioRadioButton@@8
rdata$r	SEGMENT
??_R3ioRadioButton@@8 DD 00H				; ioRadioButton::`RTTI Class Hierarchy Descriptor'
	DD	00H
	DD	03H
	DD	FLAT:??_R2ioRadioButton@@8
rdata$r	ENDS
;	COMDAT ??_R0?AVioRadioButton@@@8
_DATA	SEGMENT
??_R0?AVioRadioButton@@@8 DD FLAT:??_7type_info@@6B@	; ioRadioButton `RTTI Type Descriptor'
	DD	00H
	DB	'.?AVioRadioButton@@', 00H
_DATA	ENDS
;	COMDAT ??_R1A@?0A@EA@ioRadioButton@@8
rdata$r	SEGMENT
??_R1A@?0A@EA@ioRadioButton@@8 DD FLAT:??_R0?AVioRadioButton@@@8 ; ioRadioButton::`RTTI Base Class Descriptor at (0,-1,0,64)'
	DD	02H
	DD	00H
	DD	0ffffffffH
	DD	00H
	DD	040H
	DD	FLAT:??_R3ioRadioButton@@8
rdata$r	ENDS
;	COMDAT ??_R1A@?0A@EA@LobbyBtn@@8
rdata$r	SEGMENT
??_R1A@?0A@EA@LobbyBtn@@8 DD FLAT:??_R0?AVLobbyBtn@@@8	; LobbyBtn::`RTTI Base Class Descriptor at (0,-1,0,64)'
	DD	03H
	DD	00H
	DD	0ffffffffH
	DD	00H
	DD	040H
	DD	FLAT:??_R3LobbyBtn@@8
rdata$r	ENDS
;	COMDAT ??_R2LobbyBtn@@8
rdata$r	SEGMENT
??_R2LobbyBtn@@8 DD FLAT:??_R1A@?0A@EA@LobbyBtn@@8	; LobbyBtn::`RTTI Base Class Array'
	DD	FLAT:??_R1A@?0A@EA@ioRadioButton@@8
	DD	FLAT:??_R1A@?0A@EA@ioButton@@8
	DD	FLAT:??_R1A@?0A@EA@ioWnd@@8
rdata$r	ENDS
;	COMDAT ??_R3LobbyBtn@@8
rdata$r	SEGMENT
??_R3LobbyBtn@@8 DD 00H					; LobbyBtn::`RTTI Class Hierarchy Descriptor'
	DD	00H
	DD	04H
	DD	FLAT:??_R2LobbyBtn@@8
rdata$r	ENDS
;	COMDAT ??_R0?AVLobbyBtn@@@8
_DATA	SEGMENT
??_R0?AVLobbyBtn@@@8 DD FLAT:??_7type_info@@6B@		; LobbyBtn `RTTI Type Descriptor'
	DD	00H
	DB	'.?AVLobbyBtn@@', 00H
_DATA	ENDS
;	COMDAT ??_R4LobbyBtn@@6B@
rdata$r	SEGMENT
??_R4LobbyBtn@@6B@ DD 00H				; LobbyBtn::`RTTI Complete Object Locator'
	DD	00H
	DD	00H
	DD	FLAT:??_R0?AVLobbyBtn@@@8
	DD	FLAT:??_R3LobbyBtn@@8
rdata$r	ENDS
;	COMDAT ??_7LobbyBtn@@6B@
CONST	SEGMENT
??_7LobbyBtn@@6B@ DD FLAT:??_R4LobbyBtn@@6B@		; LobbyBtn::`vftable'
	DD	FLAT:?AddRenderFrame@LobbyBtn@@MAEXABVioHashString@@PAVioUIRenderFrame@@@Z
	DD	FLAT:?AddRenderImage@LobbyBtn@@MAEXABVioHashString@@PAVioUIRenderImage@@@Z
	DD	FLAT:?AddTooltipHelp@ioWnd@@UAEXABVioHashString@@00@Z
	DD	FLAT:?ParseExtraInfo@ioButton@@UAEXAAVioXMLElement@@@Z
	DD	FLAT:?AddNamedRenderImage@ioWnd@@UAEXABVioHashString@@PAVioUIRenderImage@@@Z
	DD	FLAT:?RemoveNamedRenderImage@ioWnd@@UAEXABVioHashString@@@Z
	DD	FLAT:?GetNamedRenderImage@ioWnd@@UBEPAVioUIRenderImage@@ABVioHashString@@@Z
	DD	FLAT:?SetWindowAlpha@ioButton@@UAEXH@Z
	DD	FLAT:?SetActive@ioWnd@@UAEXXZ
	DD	FLAT:?SetInActive@ioWnd@@UAEXXZ
	DD	FLAT:?ClearElementImageList@ioWnd@@UAEXXZ
	DD	FLAT:?SetSize@ioWnd@@UAEXHH@Z
	DD	FLAT:?SetPositionToDefault@ioWnd@@UAEXHH_N0@Z
	DD	FLAT:?IsNeedProcess@ioWnd@@UBE_NXZ
	DD	FLAT:?IsCanMouseReaction@ioWnd@@UBE_NXZ
	DD	FLAT:?AddChild@ioWnd@@UAEXPAV1@@Z
	DD	FLAT:?DeleteChild@ioWnd@@UAEXK@Z
	DD	FLAT:?DeleteAllChild@ioWnd@@UAEXXZ
	DD	FLAT:?OnRenderShowAndHide@ioWnd@@MAE_NXZ
	DD	FLAT:?OnRenderShowAndHideByDefault@ioWnd@@MAE_NK@Z
	DD	FLAT:?OnRenderShowAndHideByTop@ioWnd@@MAE_NK@Z
	DD	FLAT:?OnRenderShowAndHideByDown@ioWnd@@MAE_NK@Z
	DD	FLAT:?OnRender@LobbyBtn@@MAEXXZ
	DD	FLAT:?OnRenderAfterChild@ioWnd@@MAEXXZ
	DD	FLAT:?OnProcess@ioWnd@@MAEXM@Z
	DD	FLAT:?OnMouseProcess@ioWnd@@MAEXABVioMouse@@@Z
	DD	FLAT:?CheckFrameReSize@ioButton@@MAEXHHHH@Z
	DD	FLAT:?RenderImageList@ioWnd@@MAEXHHW4UIRenderType@@@Z
	DD	FLAT:?iwm_create@ioWnd@@UAEXXZ
	DD	FLAT:?iwm_destroy@ioWnd@@UAEXXZ
	DD	FLAT:?iwm_lbuttondown@ioButton@@UAEXABVioMouse@@@Z
	DD	FLAT:?iwm_lbuttonup@ioRadioButton@@UAEXABVioMouse@@@Z
	DD	FLAT:?iwm_lbuttonDBLCLK@ioButton@@UAEXABVioMouse@@@Z
	DD	FLAT:?iwm_rbuttondown@ioButton@@UAEXABVioMouse@@@Z
	DD	FLAT:?iwm_rbuttonup@ioButton@@UAEXABVioMouse@@@Z
	DD	FLAT:?iwm_command@ioWnd@@UAEXPAV1@HK@Z
	DD	FLAT:?iwm_mouseover@ioButton@@UAEXABVioMouse@@@Z
	DD	FLAT:?iwm_mousemove@ioWnd@@UAEXABVioMouse@@@Z
	DD	FLAT:?iwm_mouseleave@ioRadioButton@@UAEXABVioMouse@@@Z
	DD	FLAT:?iwm_vscroll@ioWnd@@UAEXKH@Z
	DD	FLAT:?iwm_wheel@ioWnd@@UAEXH@Z
	DD	FLAT:?iwm_show@LobbyBtn@@UAEXXZ
	DD	FLAT:?iwm_hide@LobbyBtn@@UAEXXZ
	DD	FLAT:?iwm_esc@ioWnd@@UAE_NXZ
	DD	FLAT:?iwm_spacebar@ioWnd@@UAE_NXZ
	DD	FLAT:?iwm_gototop@ioWnd@@UAEXXZ
	DD	FLAT:?iwm_dragenter@ioWnd@@UAE?AW4IWDropEffect@@PAVioDragItem@@ABVioMouse@@@Z
	DD	FLAT:?iwm_dragover@ioWnd@@UAE?AW4IWDropEffect@@PAVioDragItem@@ABVioMouse@@@Z
	DD	FLAT:?iwm_dragleave@ioWnd@@UAEXXZ
	DD	FLAT:?iwm_dropitem@ioWnd@@UAE_NPAVioDragItem@@ABVioMouse@@PAV1@@Z
	DD	FLAT:?iwm_dropdone@ioWnd@@UAEXPAVioDragItem@@PAV1@_N@Z
	DD	FLAT:?IsEXType@ioWnd@@UBE_NXZ
	DD	FLAT:?GetWndType@ioRadioButton@@UBEKXZ
	DD	FLAT:?RenderWnd@ioWnd@@UAEXXZ
	DD	FLAT:?SetIDEX@ioWnd@@UAEXAAK_N@Z
	DD	FLAT:?ParseXML@ioWnd@@UAEXAAVioXMLElement@@@Z
	DD	FLAT:?GetHeaderFileName@ioRadioButton@@UAEPBDXZ
	DD	FLAT:?GetTemplateName@ioRadioButton@@UAEPBDXZ
	DD	FLAT:?GetDefClassName@ioRadioButton@@UBEPBDXZ
	DD	FLAT:?_Clone@ioRadioButton@@UAEPAVioWnd@@XZ
	DD	FLAT:?Copy@ioButton@@UAEXPAVioWnd@@@Z
	DD	FLAT:?Save@ioWnd@@UAE_NAAVioXMLElement@@@Z
	DD	FLAT:?SetSaveData@ioButton@@UAEXAAVioXMLElement@@@Z
	DD	FLAT:?SetPosX@ioWnd@@UAEXH@Z
	DD	FLAT:?SetPosY@ioWnd@@UAEXH@Z
	DD	FLAT:?SetWidth@ioWnd@@UAEXH@Z
	DD	FLAT:?SetHeight@ioWnd@@UAEXH@Z
	DD	FLAT:?GetNumFixedRenderFrame@ioButton@@UBEHXZ
	DD	FLAT:?GetFixedRenderFrameType@ioButton@@UAEPBDH@Z
	DD	FLAT:?GetRenderFrame@ioButton@@UAEPAPAVioUIRenderElement@@PBD@Z
	DD	FLAT:?GetNumFixedRenderImage@ioButton@@UBEHXZ
	DD	FLAT:?GetFixedRenderImageType@ioButton@@UAEPBDH@Z
	DD	FLAT:?GetRenderImage@ioButton@@UAEPAPAVioUIRenderElement@@PBD@Z
	DD	FLAT:?AddEffect@ioWnd@@UAEXABVioHashString@@PAVioUI3DEffectRender@@@Z
	DD	FLAT:?GetEffect@ioWnd@@UAEPAVioUI3DEffectRender@@VioHashString@@@Z
	DD	FLAT:??_ELobbyBtn@@UAEPAXI@Z
	DD	FLAT:?OnDrawNormal@ioButton@@MAEXHH@Z
	DD	FLAT:?OnDrawOvered@ioButton@@MAEXHH@Z
	DD	FLAT:?OnDrawOveredAdd@ioButton@@MAEXHH@Z
	DD	FLAT:?OnDrawPushed@ioRadioButton@@MAEXHH@Z
	DD	FLAT:?OnDrawDisabled@ioButton@@MAEXHH@Z
	DD	FLAT:?OnDrawExDisabledNormal@ioButton@@MAEXHH@Z
	DD	FLAT:?OnDrawExDisabledOvered@ioButton@@MAEXHH@Z
	DD	FLAT:?OnDrawExDisabledPushed@ioButton@@MAEXHH@Z
	DD	FLAT:?OnDrawBack@ioButton@@MAEXHH@Z
	DD	FLAT:?OnDrawNormalList@ioButton@@MAEXHH@Z
	DD	FLAT:?OnDrawDisableList@ioButton@@MAEXHH@Z
; Function compile flags: /Ogsp
CONST	ENDS
;	COMDAT ??0LobbyBtn@@QAE@XZ
_TEXT	SEGMENT
??0LobbyBtn@@QAE@XZ PROC				; LobbyBtn::LobbyBtn, COMDAT
; _this$ = ecx

; 32   : {

  00000	56		 push	 esi
  00001	8b f1		 mov	 esi, ecx
  00003	ff 15 00 00 00
	00		 call	 DWORD PTR __imp_??0ioRadioButton@@QAE@XZ

; 33   : 	m_pIconBack = NULL;

  00009	33 c0		 xor	 eax, eax
  0000b	89 86 fc 01 00
	00		 mov	 DWORD PTR [esi+508], eax

; 34   : 	m_pIcon = NULL;

  00011	89 86 00 02 00
	00		 mov	 DWORD PTR [esi+512], eax

; 35   : 	m_pStateGreenFrm = NULL;

  00017	89 86 04 02 00
	00		 mov	 DWORD PTR [esi+516], eax

; 36   : 	m_pStateRedFrm = NULL;

  0001d	89 86 08 02 00
	00		 mov	 DWORD PTR [esi+520], eax

; 37   : 	m_pStateOrangeFrm = NULL;

  00023	89 86 0c 02 00
	00		 mov	 DWORD PTR [esi+524], eax

; 38   : 	m_pStatePinkFrm = NULL;

  00029	89 86 10 02 00
	00		 mov	 DWORD PTR [esi+528], eax
  0002f	c7 06 00 00 00
	00		 mov	 DWORD PTR [esi], OFFSET ??_7LobbyBtn@@6B@

; 39   : }

  00035	8b c6		 mov	 eax, esi
  00037	5e		 pop	 esi
  00038	c3		 ret	 0
??0LobbyBtn@@QAE@XZ ENDP				; LobbyBtn::LobbyBtn
_TEXT	ENDS
PUBLIC	??1LobbyBtn@@UAE@XZ				; LobbyBtn::~LobbyBtn
EXTRN	__imp_??1ioRadioButton@@UAE@XZ:PROC
EXTRN	___CxxFrameHandler3:PROC
EXTRN	@__security_check_cookie@4:PROC
EXTRN	__EH_epilog3:PROC
EXTRN	__EH_prolog3:PROC
;	COMDAT xdata$x
xdata$x	SEGMENT
__unwindtable$??1LobbyBtn@@UAE@XZ DD 0ffffffffH
	DD	FLAT:__unwindfunclet$??1LobbyBtn@@UAE@XZ$0
__ehfuncinfo$??1LobbyBtn@@UAE@XZ DD 019930522H
	DD	01H
	DD	FLAT:__unwindtable$??1LobbyBtn@@UAE@XZ
	DD	2 DUP(00H)
	DD	2 DUP(00H)
	DD	00H
	DD	01H
; Function compile flags: /Ogsp
xdata$x	ENDS
;	COMDAT ??1LobbyBtn@@UAE@XZ
_TEXT	SEGMENT
_this$ = -16						; size = 4
__$EHRec$ = -12						; size = 12
??1LobbyBtn@@UAE@XZ PROC				; LobbyBtn::~LobbyBtn, COMDAT
; _this$ = ecx

; 42   : {

  00000	6a 04		 push	 4
  00002	b8 00 00 00 00	 mov	 eax, __ehhandler$??1LobbyBtn@@UAE@XZ
  00007	e8 00 00 00 00	 call	 __EH_prolog3
  0000c	8b f1		 mov	 esi, ecx
  0000e	89 75 f0	 mov	 DWORD PTR _this$[ebp], esi
  00011	c7 06 00 00 00
	00		 mov	 DWORD PTR [esi], OFFSET ??_7LobbyBtn@@6B@

; 43   : 	SAFEDELETE( m_pIconBack );

  00017	8b 8e fc 01 00
	00		 mov	 ecx, DWORD PTR [esi+508]
  0001d	33 db		 xor	 ebx, ebx
  0001f	89 5d fc	 mov	 DWORD PTR __$EHRec$[ebp+8], ebx
  00022	3b cb		 cmp	 ecx, ebx
  00024	74 0d		 je	 SHORT $LN6@LobbyBtn
  00026	8b 01		 mov	 eax, DWORD PTR [ecx]
  00028	6a 01		 push	 1
  0002a	ff 50 40	 call	 DWORD PTR [eax+64]
  0002d	89 9e fc 01 00
	00		 mov	 DWORD PTR [esi+508], ebx
$LN6@LobbyBtn:

; 44   : 	SAFEDELETE( m_pIcon );

  00033	8b 8e 00 02 00
	00		 mov	 ecx, DWORD PTR [esi+512]
  00039	3b cb		 cmp	 ecx, ebx
  0003b	74 0d		 je	 SHORT $LN5@LobbyBtn
  0003d	8b 01		 mov	 eax, DWORD PTR [ecx]
  0003f	6a 01		 push	 1
  00041	ff 50 40	 call	 DWORD PTR [eax+64]
  00044	89 9e 00 02 00
	00		 mov	 DWORD PTR [esi+512], ebx
$LN5@LobbyBtn:

; 45   : 	SAFEDELETE( m_pStateGreenFrm );

  0004a	8b 8e 04 02 00
	00		 mov	 ecx, DWORD PTR [esi+516]
  00050	3b cb		 cmp	 ecx, ebx
  00052	74 0d		 je	 SHORT $LN4@LobbyBtn
  00054	8b 01		 mov	 eax, DWORD PTR [ecx]
  00056	6a 01		 push	 1
  00058	ff 50 40	 call	 DWORD PTR [eax+64]
  0005b	89 9e 04 02 00
	00		 mov	 DWORD PTR [esi+516], ebx
$LN4@LobbyBtn:

; 46   : 	SAFEDELETE( m_pStateRedFrm );

  00061	8b 8e 08 02 00
	00		 mov	 ecx, DWORD PTR [esi+520]
  00067	3b cb		 cmp	 ecx, ebx
  00069	74 0d		 je	 SHORT $LN3@LobbyBtn
  0006b	8b 01		 mov	 eax, DWORD PTR [ecx]
  0006d	6a 01		 push	 1
  0006f	ff 50 40	 call	 DWORD PTR [eax+64]
  00072	89 9e 08 02 00
	00		 mov	 DWORD PTR [esi+520], ebx
$LN3@LobbyBtn:

; 47   : 	SAFEDELETE( m_pStateOrangeFrm );

  00078	8b 8e 0c 02 00
	00		 mov	 ecx, DWORD PTR [esi+524]
  0007e	3b cb		 cmp	 ecx, ebx
  00080	74 0d		 je	 SHORT $LN2@LobbyBtn
  00082	8b 01		 mov	 eax, DWORD PTR [ecx]
  00084	6a 01		 push	 1
  00086	ff 50 40	 call	 DWORD PTR [eax+64]
  00089	89 9e 0c 02 00
	00		 mov	 DWORD PTR [esi+524], ebx
$LN2@LobbyBtn:

; 48   : 	SAFEDELETE( m_pStatePinkFrm );

  0008f	8b 8e 10 02 00
	00		 mov	 ecx, DWORD PTR [esi+528]
  00095	3b cb		 cmp	 ecx, ebx
  00097	74 0d		 je	 SHORT $LN1@LobbyBtn
  00099	8b 01		 mov	 eax, DWORD PTR [ecx]
  0009b	6a 01		 push	 1
  0009d	ff 50 40	 call	 DWORD PTR [eax+64]
  000a0	89 9e 10 02 00
	00		 mov	 DWORD PTR [esi+528], ebx
$LN1@LobbyBtn:

; 49   : }

  000a6	83 4d fc ff	 or	 DWORD PTR __$EHRec$[ebp+8], -1
  000aa	8b ce		 mov	 ecx, esi
  000ac	ff 15 00 00 00
	00		 call	 DWORD PTR __imp_??1ioRadioButton@@UAE@XZ
  000b2	e8 00 00 00 00	 call	 __EH_epilog3
  000b7	c3		 ret	 0
_TEXT	ENDS
;	COMDAT text$x
text$x	SEGMENT
__unwindfunclet$??1LobbyBtn@@UAE@XZ$0:
  00000	8b 4d f0	 mov	 ecx, DWORD PTR _this$[ebp]
  00003	ff 25 00 00 00
	00		 jmp	 DWORD PTR __imp_??1ioRadioButton@@UAE@XZ
__ehhandler$??1LobbyBtn@@UAE@XZ:
  00009	8b 54 24 08	 mov	 edx, DWORD PTR [esp+8]
  0000d	8d 42 0c	 lea	 eax, DWORD PTR [edx+12]
  00010	8b 4a ec	 mov	 ecx, DWORD PTR [edx-20]
  00013	33 c8		 xor	 ecx, eax
  00015	e8 00 00 00 00	 call	 @__security_check_cookie@4
  0001a	b8 00 00 00 00	 mov	 eax, OFFSET __ehfuncinfo$??1LobbyBtn@@UAE@XZ
  0001f	e9 00 00 00 00	 jmp	 ___CxxFrameHandler3
text$x	ENDS
??1LobbyBtn@@UAE@XZ ENDP				; LobbyBtn::~LobbyBtn
; Function compile flags: /Ogsp
;	COMDAT ?iwm_show@LobbyBtn@@UAEXXZ
_TEXT	SEGMENT
?iwm_show@LobbyBtn@@UAEXXZ PROC				; LobbyBtn::iwm_show, COMDAT
; _this$ = ecx

; 102  : }

  00000	c3		 ret	 0
?iwm_show@LobbyBtn@@UAEXXZ ENDP				; LobbyBtn::iwm_show
; Function compile flags: /Ogsp
_TEXT	ENDS
;	COMDAT ?iwm_hide@LobbyBtn@@UAEXXZ
_TEXT	SEGMENT
?iwm_hide@LobbyBtn@@UAEXXZ PROC				; LobbyBtn::iwm_hide, COMDAT
; _this$ = ecx

; 106  : }

  00000	c3		 ret	 0
?iwm_hide@LobbyBtn@@UAEXXZ ENDP				; LobbyBtn::iwm_hide
_TEXT	ENDS
PUBLIC	??_7IconBtn@@6B@				; IconBtn::`vftable'
PUBLIC	??0IconBtn@@QAE@XZ				; IconBtn::IconBtn
PUBLIC	??_R4IconBtn@@6B@				; IconBtn::`RTTI Complete Object Locator'
PUBLIC	??_R0?AVIconBtn@@@8				; IconBtn `RTTI Type Descriptor'
PUBLIC	??_R3IconBtn@@8					; IconBtn::`RTTI Class Hierarchy Descriptor'
PUBLIC	??_R2IconBtn@@8					; IconBtn::`RTTI Base Class Array'
PUBLIC	??_R1A@?0A@EA@IconBtn@@8			; IconBtn::`RTTI Base Class Descriptor at (0,-1,0,64)'
PUBLIC	?AddRenderImage@IconBtn@@UAEXABVioHashString@@PAVioUIRenderImage@@@Z ; IconBtn::AddRenderImage
PUBLIC	?ParseExtraInfo@IconBtn@@UAEXAAVioXMLElement@@@Z ; IconBtn::ParseExtraInfo
PUBLIC	?OnRender@IconBtn@@MAEXXZ			; IconBtn::OnRender
EXTRN	__imp_??0ioButton@@QAE@XZ:PROC
EXTRN	?AddRenderFrame@ioButton@@UAEXABVioHashString@@PAVioUIRenderFrame@@@Z:PROC ; ioButton::AddRenderFrame
EXTRN	?iwm_lbuttonup@ioButton@@UAEXABVioMouse@@@Z:PROC ; ioButton::iwm_lbuttonup
EXTRN	?iwm_mouseleave@ioWnd@@UAEXABVioMouse@@@Z:PROC	; ioWnd::iwm_mouseleave
EXTRN	?iwm_show@ioWnd@@UAEXXZ:PROC			; ioWnd::iwm_show
EXTRN	?iwm_hide@ioWnd@@UAEXXZ:PROC			; ioWnd::iwm_hide
EXTRN	?GetWndType@ioButton@@UBEKXZ:PROC		; ioButton::GetWndType
EXTRN	?GetHeaderFileName@ioButton@@UAEPBDXZ:PROC	; ioButton::GetHeaderFileName
EXTRN	?GetTemplateName@ioButton@@UAEPBDXZ:PROC	; ioButton::GetTemplateName
EXTRN	?GetDefClassName@ioButton@@UBEPBDXZ:PROC	; ioButton::GetDefClassName
EXTRN	?_Clone@ioButton@@UAEPAVioWnd@@XZ:PROC		; ioButton::_Clone
EXTRN	??_EIconBtn@@UAEPAXI@Z:PROC			; IconBtn::`vector deleting destructor'
EXTRN	?OnDrawPushed@ioButton@@MAEXHH@Z:PROC		; ioButton::OnDrawPushed
;	COMDAT ??_R1A@?0A@EA@IconBtn@@8
rdata$r	SEGMENT
??_R1A@?0A@EA@IconBtn@@8 DD FLAT:??_R0?AVIconBtn@@@8	; IconBtn::`RTTI Base Class Descriptor at (0,-1,0,64)'
	DD	02H
	DD	00H
	DD	0ffffffffH
	DD	00H
	DD	040H
	DD	FLAT:??_R3IconBtn@@8
rdata$r	ENDS
;	COMDAT ??_R2IconBtn@@8
rdata$r	SEGMENT
??_R2IconBtn@@8 DD FLAT:??_R1A@?0A@EA@IconBtn@@8	; IconBtn::`RTTI Base Class Array'
	DD	FLAT:??_R1A@?0A@EA@ioButton@@8
	DD	FLAT:??_R1A@?0A@EA@ioWnd@@8
rdata$r	ENDS
;	COMDAT ??_R3IconBtn@@8
rdata$r	SEGMENT
??_R3IconBtn@@8 DD 00H					; IconBtn::`RTTI Class Hierarchy Descriptor'
	DD	00H
	DD	03H
	DD	FLAT:??_R2IconBtn@@8
rdata$r	ENDS
;	COMDAT ??_R0?AVIconBtn@@@8
_DATA	SEGMENT
??_R0?AVIconBtn@@@8 DD FLAT:??_7type_info@@6B@		; IconBtn `RTTI Type Descriptor'
	DD	00H
	DB	'.?AVIconBtn@@', 00H
_DATA	ENDS
;	COMDAT ??_R4IconBtn@@6B@
rdata$r	SEGMENT
??_R4IconBtn@@6B@ DD 00H				; IconBtn::`RTTI Complete Object Locator'
	DD	00H
	DD	00H
	DD	FLAT:??_R0?AVIconBtn@@@8
	DD	FLAT:??_R3IconBtn@@8
rdata$r	ENDS
;	COMDAT ??_7IconBtn@@6B@
CONST	SEGMENT
??_7IconBtn@@6B@ DD FLAT:??_R4IconBtn@@6B@		; IconBtn::`vftable'
	DD	FLAT:?AddRenderFrame@ioButton@@UAEXABVioHashString@@PAVioUIRenderFrame@@@Z
	DD	FLAT:?AddRenderImage@IconBtn@@UAEXABVioHashString@@PAVioUIRenderImage@@@Z
	DD	FLAT:?AddTooltipHelp@ioWnd@@UAEXABVioHashString@@00@Z
	DD	FLAT:?ParseExtraInfo@IconBtn@@UAEXAAVioXMLElement@@@Z
	DD	FLAT:?AddNamedRenderImage@ioWnd@@UAEXABVioHashString@@PAVioUIRenderImage@@@Z
	DD	FLAT:?RemoveNamedRenderImage@ioWnd@@UAEXABVioHashString@@@Z
	DD	FLAT:?GetNamedRenderImage@ioWnd@@UBEPAVioUIRenderImage@@ABVioHashString@@@Z
	DD	FLAT:?SetWindowAlpha@ioButton@@UAEXH@Z
	DD	FLAT:?SetActive@ioWnd@@UAEXXZ
	DD	FLAT:?SetInActive@ioWnd@@UAEXXZ
	DD	FLAT:?ClearElementImageList@ioWnd@@UAEXXZ
	DD	FLAT:?SetSize@ioWnd@@UAEXHH@Z
	DD	FLAT:?SetPositionToDefault@ioWnd@@UAEXHH_N0@Z
	DD	FLAT:?IsNeedProcess@ioWnd@@UBE_NXZ
	DD	FLAT:?IsCanMouseReaction@ioWnd@@UBE_NXZ
	DD	FLAT:?AddChild@ioWnd@@UAEXPAV1@@Z
	DD	FLAT:?DeleteChild@ioWnd@@UAEXK@Z
	DD	FLAT:?DeleteAllChild@ioWnd@@UAEXXZ
	DD	FLAT:?OnRenderShowAndHide@ioWnd@@MAE_NXZ
	DD	FLAT:?OnRenderShowAndHideByDefault@ioWnd@@MAE_NK@Z
	DD	FLAT:?OnRenderShowAndHideByTop@ioWnd@@MAE_NK@Z
	DD	FLAT:?OnRenderShowAndHideByDown@ioWnd@@MAE_NK@Z
	DD	FLAT:?OnRender@IconBtn@@MAEXXZ
	DD	FLAT:?OnRenderAfterChild@ioWnd@@MAEXXZ
	DD	FLAT:?OnProcess@ioWnd@@MAEXM@Z
	DD	FLAT:?OnMouseProcess@ioWnd@@MAEXABVioMouse@@@Z
	DD	FLAT:?CheckFrameReSize@ioButton@@MAEXHHHH@Z
	DD	FLAT:?RenderImageList@ioWnd@@MAEXHHW4UIRenderType@@@Z
	DD	FLAT:?iwm_create@ioWnd@@UAEXXZ
	DD	FLAT:?iwm_destroy@ioWnd@@UAEXXZ
	DD	FLAT:?iwm_lbuttondown@ioButton@@UAEXABVioMouse@@@Z
	DD	FLAT:?iwm_lbuttonup@ioButton@@UAEXABVioMouse@@@Z
	DD	FLAT:?iwm_lbuttonDBLCLK@ioButton@@UAEXABVioMouse@@@Z
	DD	FLAT:?iwm_rbuttondown@ioButton@@UAEXABVioMouse@@@Z
	DD	FLAT:?iwm_rbuttonup@ioButton@@UAEXABVioMouse@@@Z
	DD	FLAT:?iwm_command@ioWnd@@UAEXPAV1@HK@Z
	DD	FLAT:?iwm_mouseover@ioButton@@UAEXABVioMouse@@@Z
	DD	FLAT:?iwm_mousemove@ioWnd@@UAEXABVioMouse@@@Z
	DD	FLAT:?iwm_mouseleave@ioWnd@@UAEXABVioMouse@@@Z
	DD	FLAT:?iwm_vscroll@ioWnd@@UAEXKH@Z
	DD	FLAT:?iwm_wheel@ioWnd@@UAEXH@Z
	DD	FLAT:?iwm_show@ioWnd@@UAEXXZ
	DD	FLAT:?iwm_hide@ioWnd@@UAEXXZ
	DD	FLAT:?iwm_esc@ioWnd@@UAE_NXZ
	DD	FLAT:?iwm_spacebar@ioWnd@@UAE_NXZ
	DD	FLAT:?iwm_gototop@ioWnd@@UAEXXZ
	DD	FLAT:?iwm_dragenter@ioWnd@@UAE?AW4IWDropEffect@@PAVioDragItem@@ABVioMouse@@@Z
	DD	FLAT:?iwm_dragover@ioWnd@@UAE?AW4IWDropEffect@@PAVioDragItem@@ABVioMouse@@@Z
	DD	FLAT:?iwm_dragleave@ioWnd@@UAEXXZ
	DD	FLAT:?iwm_dropitem@ioWnd@@UAE_NPAVioDragItem@@ABVioMouse@@PAV1@@Z
	DD	FLAT:?iwm_dropdone@ioWnd@@UAEXPAVioDragItem@@PAV1@_N@Z
	DD	FLAT:?IsEXType@ioWnd@@UBE_NXZ
	DD	FLAT:?GetWndType@ioButton@@UBEKXZ
	DD	FLAT:?RenderWnd@ioWnd@@UAEXXZ
	DD	FLAT:?SetIDEX@ioWnd@@UAEXAAK_N@Z
	DD	FLAT:?ParseXML@ioWnd@@UAEXAAVioXMLElement@@@Z
	DD	FLAT:?GetHeaderFileName@ioButton@@UAEPBDXZ
	DD	FLAT:?GetTemplateName@ioButton@@UAEPBDXZ
	DD	FLAT:?GetDefClassName@ioButton@@UBEPBDXZ
	DD	FLAT:?_Clone@ioButton@@UAEPAVioWnd@@XZ
	DD	FLAT:?Copy@ioButton@@UAEXPAVioWnd@@@Z
	DD	FLAT:?Save@ioWnd@@UAE_NAAVioXMLElement@@@Z
	DD	FLAT:?SetSaveData@ioButton@@UAEXAAVioXMLElement@@@Z
	DD	FLAT:?SetPosX@ioWnd@@UAEXH@Z
	DD	FLAT:?SetPosY@ioWnd@@UAEXH@Z
	DD	FLAT:?SetWidth@ioWnd@@UAEXH@Z
	DD	FLAT:?SetHeight@ioWnd@@UAEXH@Z
	DD	FLAT:?GetNumFixedRenderFrame@ioButton@@UBEHXZ
	DD	FLAT:?GetFixedRenderFrameType@ioButton@@UAEPBDH@Z
	DD	FLAT:?GetRenderFrame@ioButton@@UAEPAPAVioUIRenderElement@@PBD@Z
	DD	FLAT:?GetNumFixedRenderImage@ioButton@@UBEHXZ
	DD	FLAT:?GetFixedRenderImageType@ioButton@@UAEPBDH@Z
	DD	FLAT:?GetRenderImage@ioButton@@UAEPAPAVioUIRenderElement@@PBD@Z
	DD	FLAT:?AddEffect@ioWnd@@UAEXABVioHashString@@PAVioUI3DEffectRender@@@Z
	DD	FLAT:?GetEffect@ioWnd@@UAEPAVioUI3DEffectRender@@VioHashString@@@Z
	DD	FLAT:??_EIconBtn@@UAEPAXI@Z
	DD	FLAT:?OnDrawNormal@ioButton@@MAEXHH@Z
	DD	FLAT:?OnDrawOvered@ioButton@@MAEXHH@Z
	DD	FLAT:?OnDrawOveredAdd@ioButton@@MAEXHH@Z
	DD	FLAT:?OnDrawPushed@ioButton@@MAEXHH@Z
	DD	FLAT:?OnDrawDisabled@ioButton@@MAEXHH@Z
	DD	FLAT:?OnDrawExDisabledNormal@ioButton@@MAEXHH@Z
	DD	FLAT:?OnDrawExDisabledOvered@ioButton@@MAEXHH@Z
	DD	FLAT:?OnDrawExDisabledPushed@ioButton@@MAEXHH@Z
	DD	FLAT:?OnDrawBack@ioButton@@MAEXHH@Z
	DD	FLAT:?OnDrawNormalList@ioButton@@MAEXHH@Z
	DD	FLAT:?OnDrawDisableList@ioButton@@MAEXHH@Z
; Function compile flags: /Ogsp
CONST	ENDS
;	COMDAT ??0IconBtn@@QAE@XZ
_TEXT	SEGMENT
??0IconBtn@@QAE@XZ PROC					; IconBtn::IconBtn, COMDAT
; _this$ = ecx

; 344  : {

  00000	56		 push	 esi
  00001	8b f1		 mov	 esi, ecx
  00003	ff 15 00 00 00
	00		 call	 DWORD PTR __imp_??0ioButton@@QAE@XZ

; 345  : 	m_pIconBack   = NULL;

  00009	83 a6 fc 01 00
	00 00		 and	 DWORD PTR [esi+508], 0

; 346  : 	m_pIcon       = NULL;

  00010	83 a6 00 02 00
	00 00		 and	 DWORD PTR [esi+512], 0
  00017	c7 06 00 00 00
	00		 mov	 DWORD PTR [esi], OFFSET ??_7IconBtn@@6B@

; 347  : }

  0001d	8b c6		 mov	 eax, esi
  0001f	5e		 pop	 esi
  00020	c3		 ret	 0
??0IconBtn@@QAE@XZ ENDP					; IconBtn::IconBtn
_TEXT	ENDS
PUBLIC	??1IconBtn@@UAE@XZ				; IconBtn::~IconBtn
EXTRN	__imp_??1ioButton@@UAE@XZ:PROC
;	COMDAT xdata$x
xdata$x	SEGMENT
__unwindtable$??1IconBtn@@UAE@XZ DD 0ffffffffH
	DD	FLAT:__unwindfunclet$??1IconBtn@@UAE@XZ$0
__ehfuncinfo$??1IconBtn@@UAE@XZ DD 019930522H
	DD	01H
	DD	FLAT:__unwindtable$??1IconBtn@@UAE@XZ
	DD	2 DUP(00H)
	DD	2 DUP(00H)
	DD	00H
	DD	01H
; Function compile flags: /Ogsp
xdata$x	ENDS
;	COMDAT ??1IconBtn@@UAE@XZ
_TEXT	SEGMENT
_this$ = -16						; size = 4
__$EHRec$ = -12						; size = 12
??1IconBtn@@UAE@XZ PROC					; IconBtn::~IconBtn, COMDAT
; _this$ = ecx

; 350  : {

  00000	6a 04		 push	 4
  00002	b8 00 00 00 00	 mov	 eax, __ehhandler$??1IconBtn@@UAE@XZ
  00007	e8 00 00 00 00	 call	 __EH_prolog3
  0000c	8b f9		 mov	 edi, ecx
  0000e	89 7d f0	 mov	 DWORD PTR _this$[ebp], edi
  00011	c7 07 00 00 00
	00		 mov	 DWORD PTR [edi], OFFSET ??_7IconBtn@@6B@

; 351  : 	SAFEDELETE( m_pIconBack );

  00017	8b 8f fc 01 00
	00		 mov	 ecx, DWORD PTR [edi+508]
  0001d	83 65 fc 00	 and	 DWORD PTR __$EHRec$[ebp+8], 0
  00021	85 c9		 test	 ecx, ecx
  00023	74 0e		 je	 SHORT $LN2@IconBtn
  00025	8b 01		 mov	 eax, DWORD PTR [ecx]
  00027	6a 01		 push	 1
  00029	ff 50 40	 call	 DWORD PTR [eax+64]
  0002c	83 a7 fc 01 00
	00 00		 and	 DWORD PTR [edi+508], 0
$LN2@IconBtn:

; 352  : 	SAFEDELETE( m_pIcon );

  00033	8b 8f 00 02 00
	00		 mov	 ecx, DWORD PTR [edi+512]
  00039	85 c9		 test	 ecx, ecx
  0003b	74 0e		 je	 SHORT $LN1@IconBtn
  0003d	8b 01		 mov	 eax, DWORD PTR [ecx]
  0003f	6a 01		 push	 1
  00041	ff 50 40	 call	 DWORD PTR [eax+64]
  00044	83 a7 00 02 00
	00 00		 and	 DWORD PTR [edi+512], 0
$LN1@IconBtn:

; 353  : }

  0004b	83 4d fc ff	 or	 DWORD PTR __$EHRec$[ebp+8], -1
  0004f	8b cf		 mov	 ecx, edi
  00051	ff 15 00 00 00
	00		 call	 DWORD PTR __imp_??1ioButton@@UAE@XZ
  00057	e8 00 00 00 00	 call	 __EH_epilog3
  0005c	c3		 ret	 0
_TEXT	ENDS
;	COMDAT text$x
text$x	SEGMENT
__unwindfunclet$??1IconBtn@@UAE@XZ$0:
  00000	8b 4d f0	 mov	 ecx, DWORD PTR _this$[ebp]
  00003	ff 25 00 00 00
	00		 jmp	 DWORD PTR __imp_??1ioButton@@UAE@XZ
__ehhandler$??1IconBtn@@UAE@XZ:
  00009	8b 54 24 08	 mov	 edx, DWORD PTR [esp+8]
  0000d	8d 42 0c	 lea	 eax, DWORD PTR [edx+12]
  00010	8b 4a ec	 mov	 ecx, DWORD PTR [edx-20]
  00013	33 c8		 xor	 ecx, eax
  00015	e8 00 00 00 00	 call	 @__security_check_cookie@4
  0001a	b8 00 00 00 00	 mov	 eax, OFFSET __ehfuncinfo$??1IconBtn@@UAE@XZ
  0001f	e9 00 00 00 00	 jmp	 ___CxxFrameHandler3
text$x	ENDS
??1IconBtn@@UAE@XZ ENDP					; IconBtn::~IconBtn
EXTRN	__imp_?HasWndStyle@ioWnd@@QBE_NK@Z:PROC
EXTRN	__imp_?GetDerivedPosY@ioWnd@@QBEHXZ:PROC
EXTRN	__imp_?GetDerivedPosX@ioWnd@@QBEHXZ:PROC
EXTRN	__imp_?OnRender@ioButton@@MAEXXZ:PROC
EXTRN	__fltused:DWORD
; Function compile flags: /Ogsp
;	COMDAT ?OnRender@IconBtn@@MAEXXZ
_TEXT	SEGMENT
_iYPos$ = -4						; size = 4
?OnRender@IconBtn@@MAEXXZ PROC				; IconBtn::OnRender, COMDAT
; _this$ = ecx

; 356  : {

  00000	55		 push	 ebp
  00001	8b ec		 mov	 ebp, esp
  00003	51		 push	 ecx
  00004	53		 push	 ebx
  00005	56		 push	 esi
  00006	57		 push	 edi
  00007	8b f1		 mov	 esi, ecx

; 357  : 	ioButton::OnRender();

  00009	ff 15 00 00 00
	00		 call	 DWORD PTR __imp_?OnRender@ioButton@@MAEXXZ

; 358  : 
; 359  : 	int iXPos = GetDerivedPosX();

  0000f	8b ce		 mov	 ecx, esi
  00011	ff 15 00 00 00
	00		 call	 DWORD PTR __imp_?GetDerivedPosX@ioWnd@@QBEHXZ

; 360  : 	int iYPos = GetDerivedPosY();

  00017	8b ce		 mov	 ecx, esi
  00019	8b d8		 mov	 ebx, eax
  0001b	ff 15 00 00 00
	00		 call	 DWORD PTR __imp_?GetDerivedPosY@ioWnd@@QBEHXZ

; 361  : 
; 362  : 	// x, y offset은 xml에서 조정 
; 363  : 	if( m_pIconBack )

  00021	33 ff		 xor	 edi, edi
  00023	89 45 fc	 mov	 DWORD PTR _iYPos$[ebp], eax
  00026	39 be fc 01 00
	00		 cmp	 DWORD PTR [esi+508], edi
  0002c	74 45		 je	 SHORT $LN4@OnRender

; 364  : 	{
; 365  : 		m_pIconBack->SetScale( m_fIconBackScale );		

  0002e	8b 8e fc 01 00
	00		 mov	 ecx, DWORD PTR [esi+508]
  00034	f3 0f 10 86 08
	02 00 00	 movss	 xmm0, DWORD PTR [esi+520]
  0003c	8b 01		 mov	 eax, DWORD PTR [ecx]
  0003e	51		 push	 ecx
  0003f	f3 0f 11 04 24	 movss	 DWORD PTR [esp], xmm0
  00044	ff 50 1c	 call	 DWORD PTR [eax+28]

; 366  : 		m_pIconBack->Render( iXPos, iYPos, UI_RENDER_MULTIPLY, TFO_BILINEAR );

  00047	8b 8e fc 01 00
	00		 mov	 ecx, DWORD PTR [esi+508]
  0004d	66 0f 6e 45 fc	 movd	 xmm0, DWORD PTR _iYPos$[ebp]
  00052	8b 01		 mov	 eax, DWORD PTR [ecx]
  00054	57		 push	 edi
  00055	57		 push	 edi
  00056	6a 01		 push	 1
  00058	6a 08		 push	 8
  0005a	51		 push	 ecx
  0005b	0f 5b c0	 cvtdq2ps xmm0, xmm0
  0005e	51		 push	 ecx
  0005f	f3 0f 11 44 24
	04		 movss	 DWORD PTR [esp+4], xmm0
  00065	0f 57 c0	 xorps	 xmm0, xmm0
  00068	f3 0f 2a c3	 cvtsi2ss xmm0, ebx
  0006c	f3 0f 11 04 24	 movss	 DWORD PTR [esp], xmm0
  00071	ff 10		 call	 DWORD PTR [eax]
$LN4@OnRender:

; 367  : 	}
; 368  : 
; 369  : 	if( m_pIcon )

  00073	39 be 00 02 00
	00		 cmp	 DWORD PTR [esi+512], edi
  00079	74 59		 je	 SHORT $LN1@OnRender

; 370  : 	{
; 371  : 		m_pIcon->SetScale( m_fIconScale );

  0007b	8b 8e 00 02 00
	00		 mov	 ecx, DWORD PTR [esi+512]
  00081	f3 0f 10 86 04
	02 00 00	 movss	 xmm0, DWORD PTR [esi+516]
  00089	8b 01		 mov	 eax, DWORD PTR [ecx]
  0008b	51		 push	 ecx
  0008c	f3 0f 11 04 24	 movss	 DWORD PTR [esp], xmm0
  00091	ff 50 1c	 call	 DWORD PTR [eax+28]

; 372  : 
; 373  : 		if( HasWndStyle( IWS_EXACTIVE ) )

  00094	68 00 10 00 00	 push	 4096			; 00001000H
  00099	8b ce		 mov	 ecx, esi
  0009b	ff 15 00 00 00
	00		 call	 DWORD PTR __imp_?HasWndStyle@ioWnd@@QBE_NK@Z

; 374  : 		{
; 375  : 			m_pIcon->Render( iXPos, iYPos, UI_RENDER_GRAY, TFO_BILINEAR );

  000a1	8b 8e 00 02 00
	00		 mov	 ecx, DWORD PTR [esi+512]
  000a7	66 0f 6e 45 fc	 movd	 xmm0, DWORD PTR _iYPos$[ebp]
  000ac	57		 push	 edi
  000ad	57		 push	 edi
  000ae	84 c0		 test	 al, al
  000b0	8b 01		 mov	 eax, DWORD PTR [ecx]
  000b2	0f 5b c0	 cvtdq2ps xmm0, xmm0
  000b5	6a 01		 push	 1
  000b7	74 04		 je	 SHORT $LN2@OnRender
  000b9	6a 02		 push	 2

; 376  : 		}
; 377  : 		else

  000bb	eb 01		 jmp	 SHORT $LN7@OnRender
$LN2@OnRender:

; 378  : 		{
; 379  : 			m_pIcon->Render( iXPos, iYPos, UI_RENDER_NORMAL, TFO_BILINEAR );

  000bd	57		 push	 edi
$LN7@OnRender:
  000be	51		 push	 ecx
  000bf	51		 push	 ecx
  000c0	f3 0f 11 44 24
	04		 movss	 DWORD PTR [esp+4], xmm0
  000c6	0f 57 c0	 xorps	 xmm0, xmm0
  000c9	f3 0f 2a c3	 cvtsi2ss xmm0, ebx
  000cd	f3 0f 11 04 24	 movss	 DWORD PTR [esp], xmm0
  000d2	ff 10		 call	 DWORD PTR [eax]
$LN1@OnRender:
  000d4	5f		 pop	 edi
  000d5	5e		 pop	 esi
  000d6	5b		 pop	 ebx

; 380  : 		}
; 381  : 	}
; 382  : }

  000d7	c9		 leave
  000d8	c3		 ret	 0
?OnRender@IconBtn@@MAEXXZ ENDP				; IconBtn::OnRender
_TEXT	ENDS
PUBLIC	??_7LobbyWnd@@6B@				; LobbyWnd::`vftable'
PUBLIC	??0LobbyWnd@@QAE@XZ				; LobbyWnd::LobbyWnd
PUBLIC	??_R4LobbyWnd@@6B@				; LobbyWnd::`RTTI Complete Object Locator'
PUBLIC	??_R0?AVLobbyWnd@@@8				; LobbyWnd `RTTI Type Descriptor'
PUBLIC	??_R3LobbyWnd@@8				; LobbyWnd::`RTTI Class Hierarchy Descriptor'
PUBLIC	??_R2LobbyWnd@@8				; LobbyWnd::`RTTI Base Class Array'
PUBLIC	??_R1A@?0A@EA@LobbyWnd@@8			; LobbyWnd::`RTTI Base Class Descriptor at (0,-1,0,64)'
PUBLIC	?AddRenderFrame@LobbyWnd@@MAEXABVioHashString@@PAVioUIRenderFrame@@@Z ; LobbyWnd::AddRenderFrame
PUBLIC	?AddRenderImage@LobbyWnd@@MAEXABVioHashString@@PAVioUIRenderImage@@@Z ; LobbyWnd::AddRenderImage
PUBLIC	?OnRender@LobbyWnd@@MAEXXZ			; LobbyWnd::OnRender
PUBLIC	?OnProcess@LobbyWnd@@MAEXM@Z			; LobbyWnd::OnProcess
PUBLIC	?iwm_create@LobbyWnd@@UAEXXZ			; LobbyWnd::iwm_create
PUBLIC	?iwm_command@LobbyWnd@@UAEXPAVioWnd@@HK@Z	; LobbyWnd::iwm_command
PUBLIC	?iwm_show@LobbyWnd@@UAEXXZ			; LobbyWnd::iwm_show
PUBLIC	?iwm_hide@LobbyWnd@@UAEXXZ			; LobbyWnd::iwm_hide
EXTRN	__imp_??0ioWnd@@QAE@XZ:PROC
EXTRN	?ParseExtraInfo@ioWnd@@UAEXAAVioXMLElement@@@Z:PROC ; ioWnd::ParseExtraInfo
EXTRN	?SetWindowAlpha@ioWnd@@UAEXH@Z:PROC		; ioWnd::SetWindowAlpha
EXTRN	?CheckFrameReSize@ioWnd@@MAEXHHHH@Z:PROC	; ioWnd::CheckFrameReSize
EXTRN	?iwm_lbuttondown@ioWnd@@UAEXABVioMouse@@@Z:PROC	; ioWnd::iwm_lbuttondown
EXTRN	?iwm_lbuttonup@ioWnd@@UAEXABVioMouse@@@Z:PROC	; ioWnd::iwm_lbuttonup
EXTRN	?iwm_lbuttonDBLCLK@ioWnd@@UAEXABVioMouse@@@Z:PROC ; ioWnd::iwm_lbuttonDBLCLK
EXTRN	?iwm_rbuttondown@ioWnd@@UAEXABVioMouse@@@Z:PROC	; ioWnd::iwm_rbuttondown
EXTRN	?iwm_rbuttonup@ioWnd@@UAEXABVioMouse@@@Z:PROC	; ioWnd::iwm_rbuttonup
EXTRN	?iwm_mouseover@ioWnd@@UAEXABVioMouse@@@Z:PROC	; ioWnd::iwm_mouseover
EXTRN	?GetWndType@ioWnd@@UBEKXZ:PROC			; ioWnd::GetWndType
EXTRN	?GetHeaderFileName@ioWnd@@UAEPBDXZ:PROC		; ioWnd::GetHeaderFileName
EXTRN	?GetTemplateName@ioWnd@@UAEPBDXZ:PROC		; ioWnd::GetTemplateName
EXTRN	?GetDefClassName@ioWnd@@UBEPBDXZ:PROC		; ioWnd::GetDefClassName
EXTRN	?_Clone@ioWnd@@UAEPAV1@XZ:PROC			; ioWnd::_Clone
EXTRN	?Copy@ioWnd@@UAEXPAV1@@Z:PROC			; ioWnd::Copy
EXTRN	?SetSaveData@ioWnd@@UAEXAAVioXMLElement@@@Z:PROC ; ioWnd::SetSaveData
EXTRN	?GetNumFixedRenderFrame@ioWnd@@UBEHXZ:PROC	; ioWnd::GetNumFixedRenderFrame
EXTRN	?GetFixedRenderFrameType@ioWnd@@UAEPBDH@Z:PROC	; ioWnd::GetFixedRenderFrameType
EXTRN	?GetRenderFrame@ioWnd@@UAEPAPAVioUIRenderElement@@PBD@Z:PROC ; ioWnd::GetRenderFrame
EXTRN	?GetNumFixedRenderImage@ioWnd@@UBEHXZ:PROC	; ioWnd::GetNumFixedRenderImage
EXTRN	?GetFixedRenderImageType@ioWnd@@UAEPBDH@Z:PROC	; ioWnd::GetFixedRenderImageType
EXTRN	?GetRenderImage@ioWnd@@UAEPAPAVioUIRenderElement@@PBD@Z:PROC ; ioWnd::GetRenderImage
EXTRN	??_ELobbyWnd@@UAEPAXI@Z:PROC			; LobbyWnd::`vector deleting destructor'
;	COMDAT ??_R1A@?0A@EA@LobbyWnd@@8
rdata$r	SEGMENT
??_R1A@?0A@EA@LobbyWnd@@8 DD FLAT:??_R0?AVLobbyWnd@@@8	; LobbyWnd::`RTTI Base Class Descriptor at (0,-1,0,64)'
	DD	01H
	DD	00H
	DD	0ffffffffH
	DD	00H
	DD	040H
	DD	FLAT:??_R3LobbyWnd@@8
rdata$r	ENDS
;	COMDAT ??_R2LobbyWnd@@8
rdata$r	SEGMENT
??_R2LobbyWnd@@8 DD FLAT:??_R1A@?0A@EA@LobbyWnd@@8	; LobbyWnd::`RTTI Base Class Array'
	DD	FLAT:??_R1A@?0A@EA@ioWnd@@8
rdata$r	ENDS
;	COMDAT ??_R3LobbyWnd@@8
rdata$r	SEGMENT
??_R3LobbyWnd@@8 DD 00H					; LobbyWnd::`RTTI Class Hierarchy Descriptor'
	DD	00H
	DD	02H
	DD	FLAT:??_R2LobbyWnd@@8
rdata$r	ENDS
;	COMDAT ??_R0?AVLobbyWnd@@@8
_DATA	SEGMENT
??_R0?AVLobbyWnd@@@8 DD FLAT:??_7type_info@@6B@		; LobbyWnd `RTTI Type Descriptor'
	DD	00H
	DB	'.?AVLobbyWnd@@', 00H
_DATA	ENDS
;	COMDAT ??_R4LobbyWnd@@6B@
rdata$r	SEGMENT
??_R4LobbyWnd@@6B@ DD 00H				; LobbyWnd::`RTTI Complete Object Locator'
	DD	00H
	DD	00H
	DD	FLAT:??_R0?AVLobbyWnd@@@8
	DD	FLAT:??_R3LobbyWnd@@8
rdata$r	ENDS
;	COMDAT ??_7LobbyWnd@@6B@
CONST	SEGMENT
??_7LobbyWnd@@6B@ DD FLAT:??_R4LobbyWnd@@6B@		; LobbyWnd::`vftable'
	DD	FLAT:?AddRenderFrame@LobbyWnd@@MAEXABVioHashString@@PAVioUIRenderFrame@@@Z
	DD	FLAT:?AddRenderImage@LobbyWnd@@MAEXABVioHashString@@PAVioUIRenderImage@@@Z
	DD	FLAT:?AddTooltipHelp@ioWnd@@UAEXABVioHashString@@00@Z
	DD	FLAT:?ParseExtraInfo@ioWnd@@UAEXAAVioXMLElement@@@Z
	DD	FLAT:?AddNamedRenderImage@ioWnd@@UAEXABVioHashString@@PAVioUIRenderImage@@@Z
	DD	FLAT:?RemoveNamedRenderImage@ioWnd@@UAEXABVioHashString@@@Z
	DD	FLAT:?GetNamedRenderImage@ioWnd@@UBEPAVioUIRenderImage@@ABVioHashString@@@Z
	DD	FLAT:?SetWindowAlpha@ioWnd@@UAEXH@Z
	DD	FLAT:?SetActive@ioWnd@@UAEXXZ
	DD	FLAT:?SetInActive@ioWnd@@UAEXXZ
	DD	FLAT:?ClearElementImageList@ioWnd@@UAEXXZ
	DD	FLAT:?SetSize@ioWnd@@UAEXHH@Z
	DD	FLAT:?SetPositionToDefault@ioWnd@@UAEXHH_N0@Z
	DD	FLAT:?IsNeedProcess@ioWnd@@UBE_NXZ
	DD	FLAT:?IsCanMouseReaction@ioWnd@@UBE_NXZ
	DD	FLAT:?AddChild@ioWnd@@UAEXPAV1@@Z
	DD	FLAT:?DeleteChild@ioWnd@@UAEXK@Z
	DD	FLAT:?DeleteAllChild@ioWnd@@UAEXXZ
	DD	FLAT:?OnRenderShowAndHide@ioWnd@@MAE_NXZ
	DD	FLAT:?OnRenderShowAndHideByDefault@ioWnd@@MAE_NK@Z
	DD	FLAT:?OnRenderShowAndHideByTop@ioWnd@@MAE_NK@Z
	DD	FLAT:?OnRenderShowAndHideByDown@ioWnd@@MAE_NK@Z
	DD	FLAT:?OnRender@LobbyWnd@@MAEXXZ
	DD	FLAT:?OnRenderAfterChild@ioWnd@@MAEXXZ
	DD	FLAT:?OnProcess@LobbyWnd@@MAEXM@Z
	DD	FLAT:?OnMouseProcess@ioWnd@@MAEXABVioMouse@@@Z
	DD	FLAT:?CheckFrameReSize@ioWnd@@MAEXHHHH@Z
	DD	FLAT:?RenderImageList@ioWnd@@MAEXHHW4UIRenderType@@@Z
	DD	FLAT:?iwm_create@LobbyWnd@@UAEXXZ
	DD	FLAT:?iwm_destroy@ioWnd@@UAEXXZ
	DD	FLAT:?iwm_lbuttondown@ioWnd@@UAEXABVioMouse@@@Z
	DD	FLAT:?iwm_lbuttonup@ioWnd@@UAEXABVioMouse@@@Z
	DD	FLAT:?iwm_lbuttonDBLCLK@ioWnd@@UAEXABVioMouse@@@Z
	DD	FLAT:?iwm_rbuttondown@ioWnd@@UAEXABVioMouse@@@Z
	DD	FLAT:?iwm_rbuttonup@ioWnd@@UAEXABVioMouse@@@Z
	DD	FLAT:?iwm_command@LobbyWnd@@UAEXPAVioWnd@@HK@Z
	DD	FLAT:?iwm_mouseover@ioWnd@@UAEXABVioMouse@@@Z
	DD	FLAT:?iwm_mousemove@ioWnd@@UAEXABVioMouse@@@Z
	DD	FLAT:?iwm_mouseleave@ioWnd@@UAEXABVioMouse@@@Z
	DD	FLAT:?iwm_vscroll@ioWnd@@UAEXKH@Z
	DD	FLAT:?iwm_wheel@ioWnd@@UAEXH@Z
	DD	FLAT:?iwm_show@LobbyWnd@@UAEXXZ
	DD	FLAT:?iwm_hide@LobbyWnd@@UAEXXZ
	DD	FLAT:?iwm_esc@ioWnd@@UAE_NXZ
	DD	FLAT:?iwm_spacebar@ioWnd@@UAE_NXZ
	DD	FLAT:?iwm_gototop@ioWnd@@UAEXXZ
	DD	FLAT:?iwm_dragenter@ioWnd@@UAE?AW4IWDropEffect@@PAVioDragItem@@ABVioMouse@@@Z
	DD	FLAT:?iwm_dragover@ioWnd@@UAE?AW4IWDropEffect@@PAVioDragItem@@ABVioMouse@@@Z
	DD	FLAT:?iwm_dragleave@ioWnd@@UAEXXZ
	DD	FLAT:?iwm_dropitem@ioWnd@@UAE_NPAVioDragItem@@ABVioMouse@@PAV1@@Z
	DD	FLAT:?iwm_dropdone@ioWnd@@UAEXPAVioDragItem@@PAV1@_N@Z
	DD	FLAT:?IsEXType@ioWnd@@UBE_NXZ
	DD	FLAT:?GetWndType@ioWnd@@UBEKXZ
	DD	FLAT:?RenderWnd@ioWnd@@UAEXXZ
	DD	FLAT:?SetIDEX@ioWnd@@UAEXAAK_N@Z
	DD	FLAT:?ParseXML@ioWnd@@UAEXAAVioXMLElement@@@Z
	DD	FLAT:?GetHeaderFileName@ioWnd@@UAEPBDXZ
	DD	FLAT:?GetTemplateName@ioWnd@@UAEPBDXZ
	DD	FLAT:?GetDefClassName@ioWnd@@UBEPBDXZ
	DD	FLAT:?_Clone@ioWnd@@UAEPAV1@XZ
	DD	FLAT:?Copy@ioWnd@@UAEXPAV1@@Z
	DD	FLAT:?Save@ioWnd@@UAE_NAAVioXMLElement@@@Z
	DD	FLAT:?SetSaveData@ioWnd@@UAEXAAVioXMLElement@@@Z
	DD	FLAT:?SetPosX@ioWnd@@UAEXH@Z
	DD	FLAT:?SetPosY@ioWnd@@UAEXH@Z
	DD	FLAT:?SetWidth@ioWnd@@UAEXH@Z
	DD	FLAT:?SetHeight@ioWnd@@UAEXH@Z
	DD	FLAT:?GetNumFixedRenderFrame@ioWnd@@UBEHXZ
	DD	FLAT:?GetFixedRenderFrameType@ioWnd@@UAEPBDH@Z
	DD	FLAT:?GetRenderFrame@ioWnd@@UAEPAPAVioUIRenderElement@@PBD@Z
	DD	FLAT:?GetNumFixedRenderImage@ioWnd@@UBEHXZ
	DD	FLAT:?GetFixedRenderImageType@ioWnd@@UAEPBDH@Z
	DD	FLAT:?GetRenderImage@ioWnd@@UAEPAPAVioUIRenderElement@@PBD@Z
	DD	FLAT:?AddEffect@ioWnd@@UAEXABVioHashString@@PAVioUI3DEffectRender@@@Z
	DD	FLAT:?GetEffect@ioWnd@@UAEPAVioUI3DEffectRender@@VioHashString@@@Z
	DD	FLAT:??_ELobbyWnd@@UAEPAXI@Z
; Function compile flags: /Ogsp
CONST	ENDS
;	COMDAT ??0LobbyWnd@@QAE@XZ
_TEXT	SEGMENT
??0LobbyWnd@@QAE@XZ PROC				; LobbyWnd::LobbyWnd, COMDAT
; _this$ = ecx

; 409  : {

  00000	56		 push	 esi
  00001	8b f1		 mov	 esi, ecx
  00003	ff 15 00 00 00
	00		 call	 DWORD PTR __imp_??0ioWnd@@QAE@XZ

; 410  : 	m_pCustomTitle = NULL;
; 411  : 	m_pTabBack1	= NULL;
; 412  : 	m_pTabBack2	= NULL;
; 413  : 	m_pTabBack3	= NULL;
; 414  : 	m_pTabBack4 = NULL;
; 415  : 
; 416  : 	m_dwTabID = ID_BATTLE_BTN;
; 417  : 	m_iMyCampPos = 0;
; 418  : 
; 419  : 	m_pMajorMark  = NULL;
; 420  : 	m_pMinorGrade = NULL;
; 421  : 	m_pGaugeBack  = NULL;
; 422  : 	m_pGauge      = NULL;
; 423  : 	m_iPrevGradeLevel = -1;

  00009	83 8e 84 01 00
	00 ff		 or	 DWORD PTR [esi+388], -1
  00010	33 c0		 xor	 eax, eax
  00012	89 86 60 01 00
	00		 mov	 DWORD PTR [esi+352], eax
  00018	89 86 64 01 00
	00		 mov	 DWORD PTR [esi+356], eax
  0001e	89 86 68 01 00
	00		 mov	 DWORD PTR [esi+360], eax
  00024	89 86 6c 01 00
	00		 mov	 DWORD PTR [esi+364], eax
  0002a	89 86 70 01 00
	00		 mov	 DWORD PTR [esi+368], eax
  00030	89 86 8c 01 00
	00		 mov	 DWORD PTR [esi+396], eax
  00036	89 86 74 01 00
	00		 mov	 DWORD PTR [esi+372], eax
  0003c	89 86 78 01 00
	00		 mov	 DWORD PTR [esi+376], eax
  00042	89 86 7c 01 00
	00		 mov	 DWORD PTR [esi+380], eax
  00048	89 86 80 01 00
	00		 mov	 DWORD PTR [esi+384], eax

; 424  : 
; 425  : 	m_bMileage = false;

  0004e	88 86 90 01 00
	00		 mov	 BYTE PTR [esi+400], al
  00054	c7 06 00 00 00
	00		 mov	 DWORD PTR [esi], OFFSET ??_7LobbyWnd@@6B@
  0005a	c7 86 88 01 00
	00 01 00 00 00	 mov	 DWORD PTR [esi+392], 1

; 426  : }

  00064	8b c6		 mov	 eax, esi
  00066	5e		 pop	 esi
  00067	c3		 ret	 0
??0LobbyWnd@@QAE@XZ ENDP				; LobbyWnd::LobbyWnd
_TEXT	ENDS
PUBLIC	??1LobbyWnd@@UAE@XZ				; LobbyWnd::~LobbyWnd
EXTRN	__imp_??1ioWnd@@UAE@XZ:PROC
;	COMDAT xdata$x
xdata$x	SEGMENT
__unwindtable$??1LobbyWnd@@UAE@XZ DD 0ffffffffH
	DD	FLAT:__unwindfunclet$??1LobbyWnd@@UAE@XZ$0
__ehfuncinfo$??1LobbyWnd@@UAE@XZ DD 019930522H
	DD	01H
	DD	FLAT:__unwindtable$??1LobbyWnd@@UAE@XZ
	DD	2 DUP(00H)
	DD	2 DUP(00H)
	DD	00H
	DD	01H
; Function compile flags: /Ogsp
xdata$x	ENDS
;	COMDAT ??1LobbyWnd@@UAE@XZ
_TEXT	SEGMENT
_this$ = -16						; size = 4
__$EHRec$ = -12						; size = 12
??1LobbyWnd@@UAE@XZ PROC				; LobbyWnd::~LobbyWnd, COMDAT
; _this$ = ecx

; 429  : {

  00000	6a 04		 push	 4
  00002	b8 00 00 00 00	 mov	 eax, __ehhandler$??1LobbyWnd@@UAE@XZ
  00007	e8 00 00 00 00	 call	 __EH_prolog3
  0000c	8b f1		 mov	 esi, ecx
  0000e	89 75 f0	 mov	 DWORD PTR _this$[ebp], esi
  00011	c7 06 00 00 00
	00		 mov	 DWORD PTR [esi], OFFSET ??_7LobbyWnd@@6B@

; 430  : 	SAFEDELETE( m_pCustomTitle );

  00017	8b 8e 60 01 00
	00		 mov	 ecx, DWORD PTR [esi+352]
  0001d	33 db		 xor	 ebx, ebx
  0001f	89 5d fc	 mov	 DWORD PTR __$EHRec$[ebp+8], ebx
  00022	3b cb		 cmp	 ecx, ebx
  00024	74 0d		 je	 SHORT $LN9@LobbyWnd
  00026	8b 01		 mov	 eax, DWORD PTR [ecx]
  00028	6a 01		 push	 1
  0002a	ff 50 40	 call	 DWORD PTR [eax+64]
  0002d	89 9e 60 01 00
	00		 mov	 DWORD PTR [esi+352], ebx
$LN9@LobbyWnd:

; 431  : 	SAFEDELETE( m_pTabBack1 );

  00033	8b 8e 64 01 00
	00		 mov	 ecx, DWORD PTR [esi+356]
  00039	3b cb		 cmp	 ecx, ebx
  0003b	74 0d		 je	 SHORT $LN8@LobbyWnd
  0003d	8b 01		 mov	 eax, DWORD PTR [ecx]
  0003f	6a 01		 push	 1
  00041	ff 50 40	 call	 DWORD PTR [eax+64]
  00044	89 9e 64 01 00
	00		 mov	 DWORD PTR [esi+356], ebx
$LN8@LobbyWnd:

; 432  : 	SAFEDELETE( m_pTabBack2 );

  0004a	8b 8e 68 01 00
	00		 mov	 ecx, DWORD PTR [esi+360]
  00050	3b cb		 cmp	 ecx, ebx
  00052	74 0d		 je	 SHORT $LN7@LobbyWnd
  00054	8b 01		 mov	 eax, DWORD PTR [ecx]
  00056	6a 01		 push	 1
  00058	ff 50 40	 call	 DWORD PTR [eax+64]
  0005b	89 9e 68 01 00
	00		 mov	 DWORD PTR [esi+360], ebx
$LN7@LobbyWnd:

; 433  : 	SAFEDELETE( m_pTabBack3 );

  00061	8b 8e 6c 01 00
	00		 mov	 ecx, DWORD PTR [esi+364]
  00067	3b cb		 cmp	 ecx, ebx
  00069	74 0d		 je	 SHORT $LN6@LobbyWnd
  0006b	8b 01		 mov	 eax, DWORD PTR [ecx]
  0006d	6a 01		 push	 1
  0006f	ff 50 40	 call	 DWORD PTR [eax+64]
  00072	89 9e 6c 01 00
	00		 mov	 DWORD PTR [esi+364], ebx
$LN6@LobbyWnd:

; 434  : 	SAFEDELETE( m_pTabBack4 );

  00078	8b 8e 70 01 00
	00		 mov	 ecx, DWORD PTR [esi+368]
  0007e	3b cb		 cmp	 ecx, ebx
  00080	74 0d		 je	 SHORT $LN5@LobbyWnd
  00082	8b 01		 mov	 eax, DWORD PTR [ecx]
  00084	6a 01		 push	 1
  00086	ff 50 40	 call	 DWORD PTR [eax+64]
  00089	89 9e 70 01 00
	00		 mov	 DWORD PTR [esi+368], ebx
$LN5@LobbyWnd:

; 435  : 	SAFEDELETE( m_pMajorMark );

  0008f	8b 8e 74 01 00
	00		 mov	 ecx, DWORD PTR [esi+372]
  00095	3b cb		 cmp	 ecx, ebx
  00097	74 0d		 je	 SHORT $LN4@LobbyWnd
  00099	8b 01		 mov	 eax, DWORD PTR [ecx]
  0009b	6a 01		 push	 1
  0009d	ff 50 40	 call	 DWORD PTR [eax+64]
  000a0	89 9e 74 01 00
	00		 mov	 DWORD PTR [esi+372], ebx
$LN4@LobbyWnd:

; 436  : 	SAFEDELETE( m_pMinorGrade );

  000a6	8b 8e 78 01 00
	00		 mov	 ecx, DWORD PTR [esi+376]
  000ac	3b cb		 cmp	 ecx, ebx
  000ae	74 0d		 je	 SHORT $LN3@LobbyWnd
  000b0	8b 01		 mov	 eax, DWORD PTR [ecx]
  000b2	6a 01		 push	 1
  000b4	ff 50 40	 call	 DWORD PTR [eax+64]
  000b7	89 9e 78 01 00
	00		 mov	 DWORD PTR [esi+376], ebx
$LN3@LobbyWnd:

; 437  : 	SAFEDELETE( m_pGaugeBack );

  000bd	8b 8e 7c 01 00
	00		 mov	 ecx, DWORD PTR [esi+380]
  000c3	3b cb		 cmp	 ecx, ebx
  000c5	74 0d		 je	 SHORT $LN2@LobbyWnd
  000c7	8b 01		 mov	 eax, DWORD PTR [ecx]
  000c9	6a 01		 push	 1
  000cb	ff 50 40	 call	 DWORD PTR [eax+64]
  000ce	89 9e 7c 01 00
	00		 mov	 DWORD PTR [esi+380], ebx
$LN2@LobbyWnd:

; 438  : 	SAFEDELETE( m_pGauge );

  000d4	8b 8e 80 01 00
	00		 mov	 ecx, DWORD PTR [esi+384]
  000da	3b cb		 cmp	 ecx, ebx
  000dc	74 0d		 je	 SHORT $LN1@LobbyWnd
  000de	8b 01		 mov	 eax, DWORD PTR [ecx]
  000e0	6a 01		 push	 1
  000e2	ff 50 40	 call	 DWORD PTR [eax+64]
  000e5	89 9e 80 01 00
	00		 mov	 DWORD PTR [esi+384], ebx
$LN1@LobbyWnd:

; 439  : }

  000eb	83 4d fc ff	 or	 DWORD PTR __$EHRec$[ebp+8], -1
  000ef	8b ce		 mov	 ecx, esi
  000f1	ff 15 00 00 00
	00		 call	 DWORD PTR __imp_??1ioWnd@@UAE@XZ
  000f7	e8 00 00 00 00	 call	 __EH_epilog3
  000fc	c3		 ret	 0
_TEXT	ENDS
;	COMDAT text$x
text$x	SEGMENT
__unwindfunclet$??1LobbyWnd@@UAE@XZ$0:
  00000	8b 4d f0	 mov	 ecx, DWORD PTR _this$[ebp]
  00003	ff 25 00 00 00
	00		 jmp	 DWORD PTR __imp_??1ioWnd@@UAE@XZ
__ehhandler$??1LobbyWnd@@UAE@XZ:
  00009	8b 54 24 08	 mov	 edx, DWORD PTR [esp+8]
  0000d	8d 42 0c	 lea	 eax, DWORD PTR [edx+12]
  00010	8b 4a ec	 mov	 ecx, DWORD PTR [edx-20]
  00013	33 c8		 xor	 ecx, eax
  00015	e8 00 00 00 00	 call	 @__security_check_cookie@4
  0001a	b8 00 00 00 00	 mov	 eax, OFFSET __ehfuncinfo$??1LobbyWnd@@UAE@XZ
  0001f	e9 00 00 00 00	 jmp	 ___CxxFrameHandler3
text$x	ENDS
??1LobbyWnd@@UAE@XZ ENDP				; LobbyWnd::~LobbyWnd
PUBLIC	??_C@_0BK@GELFMGMP@XML?1tournamentmainwnd?4xml?$AA@ ; `string'
PUBLIC	??_C@_0BF@LKPPHECA@XML?1trademainwnd?4xml?$AA@	; `string'
PUBLIC	??_C@_0BE@LMGAIKKD@XML?1heromainwnd?4xml?$AA@	; `string'
PUBLIC	??_C@_0BF@EKMGOMEE@XML?1plazalistwnd?4xml?$AA@	; `string'
PUBLIC	??_C@_0BE@MPJGDPAI@XML?1campmainwnd?4xml?$AA@	; `string'
PUBLIC	??_C@_0BK@NFJAMPAN@XML?1partycataloguewnd?4xml?$AA@ ; `string'
EXTRN	?GetLocal@ioLocalManager@@QAEPAVioLocalParent@@W4LocalType@ioLocalManagerParent@@@Z:PROC ; ioLocalManager::GetLocal
EXTRN	?GetSingleton@ioLocalManager@@SAAAV1@XZ:PROC	; ioLocalManager::GetSingleton
EXTRN	__imp_?GetLocalType@ioLocalManagerParent@@SA?AW4LocalType@1@XZ:PROC
EXTRN	__imp_?AddWnd@ioGUIManager@@QAEPAVioWnd@@PBDPAV2@@Z:PROC
EXTRN	?GetSingleton@ioSP2GUIManager@@SAAAV1@XZ:PROC	; ioSP2GUIManager::GetSingleton
;	COMDAT ??_C@_0BK@GELFMGMP@XML?1tournamentmainwnd?4xml?$AA@
CONST	SEGMENT
??_C@_0BK@GELFMGMP@XML?1tournamentmainwnd?4xml?$AA@ DB 'XML/tournamentmai'
	DB	'nwnd.xml', 00H				; `string'
CONST	ENDS
;	COMDAT ??_C@_0BF@LKPPHECA@XML?1trademainwnd?4xml?$AA@
CONST	SEGMENT
??_C@_0BF@LKPPHECA@XML?1trademainwnd?4xml?$AA@ DB 'XML/trademainwnd.xml', 00H ; `string'
CONST	ENDS
;	COMDAT ??_C@_0BE@LMGAIKKD@XML?1heromainwnd?4xml?$AA@
CONST	SEGMENT
??_C@_0BE@LMGAIKKD@XML?1heromainwnd?4xml?$AA@ DB 'XML/heromainwnd.xml', 00H ; `string'
CONST	ENDS
;	COMDAT ??_C@_0BF@EKMGOMEE@XML?1plazalistwnd?4xml?$AA@
CONST	SEGMENT
??_C@_0BF@EKMGOMEE@XML?1plazalistwnd?4xml?$AA@ DB 'XML/plazalistwnd.xml', 00H ; `string'
CONST	ENDS
;	COMDAT ??_C@_0BE@MPJGDPAI@XML?1campmainwnd?4xml?$AA@
CONST	SEGMENT
??_C@_0BE@MPJGDPAI@XML?1campmainwnd?4xml?$AA@ DB 'XML/campmainwnd.xml', 00H ; `string'
CONST	ENDS
;	COMDAT ??_C@_0BK@NFJAMPAN@XML?1partycataloguewnd?4xml?$AA@
CONST	SEGMENT
??_C@_0BK@NFJAMPAN@XML?1partycataloguewnd?4xml?$AA@ DB 'XML/partycatalogu'
	DB	'ewnd.xml', 00H				; `string'
; Function compile flags: /Ogsp
CONST	ENDS
;	COMDAT ?iwm_create@LobbyWnd@@UAEXXZ
_TEXT	SEGMENT
?iwm_create@LobbyWnd@@UAEXXZ PROC			; LobbyWnd::iwm_create, COMDAT
; _this$ = ecx

; 498  : {

  00000	56		 push	 esi
  00001	57		 push	 edi
  00002	8b f9		 mov	 edi, ecx

; 499  : 	g_GUIMgr.AddWnd( "XML/partycataloguewnd.xml", this );

  00004	57		 push	 edi
  00005	68 00 00 00 00	 push	 OFFSET ??_C@_0BK@NFJAMPAN@XML?1partycataloguewnd?4xml?$AA@
  0000a	e8 00 00 00 00	 call	 ?GetSingleton@ioSP2GUIManager@@SAAAV1@XZ ; ioSP2GUIManager::GetSingleton
  0000f	8b 35 00 00 00
	00		 mov	 esi, DWORD PTR __imp_?AddWnd@ioGUIManager@@QAEPAVioWnd@@PBDPAV2@@Z
  00015	8b c8		 mov	 ecx, eax
  00017	ff d6		 call	 esi

; 500  : 	g_GUIMgr.AddWnd( "XML/campmainwnd.xml", this );

  00019	57		 push	 edi
  0001a	68 00 00 00 00	 push	 OFFSET ??_C@_0BE@MPJGDPAI@XML?1campmainwnd?4xml?$AA@
  0001f	e8 00 00 00 00	 call	 ?GetSingleton@ioSP2GUIManager@@SAAAV1@XZ ; ioSP2GUIManager::GetSingleton
  00024	8b c8		 mov	 ecx, eax
  00026	ff d6		 call	 esi

; 501  : 	g_GUIMgr.AddWnd( "XML/plazalistwnd.xml", this );

  00028	57		 push	 edi
  00029	68 00 00 00 00	 push	 OFFSET ??_C@_0BF@EKMGOMEE@XML?1plazalistwnd?4xml?$AA@
  0002e	e8 00 00 00 00	 call	 ?GetSingleton@ioSP2GUIManager@@SAAAV1@XZ ; ioSP2GUIManager::GetSingleton
  00033	8b c8		 mov	 ecx, eax
  00035	ff d6		 call	 esi

; 502  : 
; 503  : 	g_GUIMgr.AddWnd( "XML/heromainwnd.xml", this );

  00037	57		 push	 edi
  00038	68 00 00 00 00	 push	 OFFSET ??_C@_0BE@LMGAIKKD@XML?1heromainwnd?4xml?$AA@
  0003d	e8 00 00 00 00	 call	 ?GetSingleton@ioSP2GUIManager@@SAAAV1@XZ ; ioSP2GUIManager::GetSingleton
  00042	8b c8		 mov	 ecx, eax
  00044	ff d6		 call	 esi

; 504  : 	g_GUIMgr.AddWnd( "XML/trademainwnd.xml", this );

  00046	57		 push	 edi
  00047	68 00 00 00 00	 push	 OFFSET ??_C@_0BF@LKPPHECA@XML?1trademainwnd?4xml?$AA@
  0004c	e8 00 00 00 00	 call	 ?GetSingleton@ioSP2GUIManager@@SAAAV1@XZ ; ioSP2GUIManager::GetSingleton
  00051	8b c8		 mov	 ecx, eax
  00053	ff d6		 call	 esi

; 505  : 	g_GUIMgr.AddWnd( "XML/tournamentmainwnd.xml", this );

  00055	57		 push	 edi
  00056	68 00 00 00 00	 push	 OFFSET ??_C@_0BK@GELFMGMP@XML?1tournamentmainwnd?4xml?$AA@
  0005b	e8 00 00 00 00	 call	 ?GetSingleton@ioSP2GUIManager@@SAAAV1@XZ ; ioSP2GUIManager::GetSingleton
  00060	8b c8		 mov	 ecx, eax
  00062	ff d6		 call	 esi

; 506  : 
; 507  : 	ioLocalParent *pLocal = g_LocalMgr.GetLocal( ioLocalManager::GetLocalType() );

  00064	ff 15 00 00 00
	00		 call	 DWORD PTR __imp_?GetLocalType@ioLocalManagerParent@@SA?AW4LocalType@1@XZ
  0006a	50		 push	 eax
  0006b	e8 00 00 00 00	 call	 ?GetSingleton@ioLocalManager@@SAAAV1@XZ ; ioLocalManager::GetSingleton
  00070	8b c8		 mov	 ecx, eax
  00072	e8 00 00 00 00	 call	 ?GetLocal@ioLocalManager@@QAEPAVioLocalParent@@W4LocalType@ioLocalManagerParent@@@Z ; ioLocalManager::GetLocal

; 508  : 	if( !pLocal )

  00077	85 c0		 test	 eax, eax
  00079	74 10		 je	 SHORT $LN2@iwm_create

; 509  : 		return;
; 510  : 	m_bMileage = pLocal->IsMileage();

  0007b	8b 10		 mov	 edx, DWORD PTR [eax]
  0007d	8b c8		 mov	 ecx, eax
  0007f	ff 92 b4 00 00
	00		 call	 DWORD PTR [edx+180]
  00085	88 87 90 01 00
	00		 mov	 BYTE PTR [edi+400], al
$LN2@iwm_create:

; 511  : }

  0008b	5f		 pop	 edi
  0008c	5e		 pop	 esi
  0008d	c3		 ret	 0
?iwm_create@LobbyWnd@@UAEXXZ ENDP			; LobbyWnd::iwm_create
; Function compile flags: /Ogsp
_TEXT	ENDS
;	COMDAT ?iwm_hide@LobbyWnd@@UAEXXZ
_TEXT	SEGMENT
?iwm_hide@LobbyWnd@@UAEXXZ PROC				; LobbyWnd::iwm_hide, COMDAT
; _this$ = ecx

; 524  : 
; 525  : }

  00000	c3		 ret	 0
?iwm_hide@LobbyWnd@@UAEXXZ ENDP				; LobbyWnd::iwm_hide
_TEXT	ENDS
PUBLIC	?UpdateHomeButton@LobbyWnd@@IAEXXZ		; LobbyWnd::UpdateHomeButton
EXTRN	__imp_?SetChildWndStyleRemove@ioWnd@@QAEXKK@Z:PROC
EXTRN	?IsHouseOpen@ioMyInfo@@QAE_NXZ:PROC		; ioMyInfo::IsHouseOpen
EXTRN	?GetSingleton@ioMyInfo@@SAAAV1@XZ:PROC		; ioMyInfo::GetSingleton
EXTRN	__imp_?SetChildWndStyleAdd@ioWnd@@QAEXKK@Z:PROC
; Function compile flags: /Ogsp
;	COMDAT ?UpdateHomeButton@LobbyWnd@@IAEXXZ
_TEXT	SEGMENT
?UpdateHomeButton@LobbyWnd@@IAEXXZ PROC			; LobbyWnd::UpdateHomeButton, COMDAT
; _this$ = ecx

; 539  : {

  00000	56		 push	 esi
  00001	57		 push	 edi

; 540  : 	SetChildWndStyleAdd( ID_MY_HOME_BTN, IWS_EXACTIVE );

  00002	be 00 10 00 00	 mov	 esi, 4096		; 00001000H
  00007	56		 push	 esi
  00008	6a 09		 push	 9
  0000a	8b f9		 mov	 edi, ecx
  0000c	ff 15 00 00 00
	00		 call	 DWORD PTR __imp_?SetChildWndStyleAdd@ioWnd@@QAEXKK@Z

; 541  : 
; 542  : 	if( g_MyInfo.IsHouseOpen() )

  00012	e8 00 00 00 00	 call	 ?GetSingleton@ioMyInfo@@SAAAV1@XZ ; ioMyInfo::GetSingleton
  00017	8b c8		 mov	 ecx, eax
  00019	e8 00 00 00 00	 call	 ?IsHouseOpen@ioMyInfo@@QAE_NXZ ; ioMyInfo::IsHouseOpen
  0001e	84 c0		 test	 al, al
  00020	74 0b		 je	 SHORT $LN1@UpdateHome

; 543  : 		SetChildWndStyleRemove( ID_MY_HOME_BTN, IWS_EXACTIVE );

  00022	56		 push	 esi
  00023	6a 09		 push	 9
  00025	8b cf		 mov	 ecx, edi
  00027	ff 15 00 00 00
	00		 call	 DWORD PTR __imp_?SetChildWndStyleRemove@ioWnd@@QAEXKK@Z
$LN1@UpdateHome:

; 544  : }

  0002d	5f		 pop	 edi
  0002e	5e		 pop	 esi
  0002f	c3		 ret	 0
?UpdateHomeButton@LobbyWnd@@IAEXXZ ENDP			; LobbyWnd::UpdateHomeButton
_TEXT	ENDS
PUBLIC	??_C@_0CE@NNBEKDBF@LobbyWnd?3?3OnCreateGuildHeadquart@ ; `string'
PUBLIC	??_C@_00CNPNBAHC@?$AA@				; `string'
PUBLIC	__$ArrayPad$
PUBLIC	?OnCreateGuildHeadquarters@LobbyWnd@@IAEXXZ	; LobbyWnd::OnCreateGuildHeadquarters
EXTRN	??1SP2Packet@@UAE@XZ:PROC			; SP2Packet::~SP2Packet
EXTRN	?MouseBusy@TCPNetwork@@YAX_N@Z:PROC		; TCPNetwork::MouseBusy
EXTRN	?SendToServer@TCPNetwork@@YAXAAVSP2Packet@@@Z:PROC ; TCPNetwork::SendToServer
EXTRN	??6SP2Packet@@QAEAAV0@H@Z:PROC			; SP2Packet::operator<<
EXTRN	??0SP2Packet@@QAE@K@Z:PROC			; SP2Packet::SP2Packet
EXTRN	?IsShuffleRoom@ioShuffleRoomMgr@@QAE_NXZ:PROC	; ioShuffleRoomMgr::IsShuffleRoom
EXTRN	?GetSingleton@ioShuffleRoomMgr@@SAAAV1@XZ:PROC	; ioShuffleRoomMgr::GetSingleton
EXTRN	?IsLadderTeam@ioLadderTeamMgr@@QAE_NXZ:PROC	; ioLadderTeamMgr::IsLadderTeam
EXTRN	?GetSingleton@ioLadderTeamMgr@@SAAAV1@XZ:PROC	; ioLadderTeamMgr::GetSingleton
EXTRN	?SetMsgBox@ioSP2GUIManager@@QAAXHPAVioWnd@@PBDZZ:PROC ; ioSP2GUIManager::SetMsgBox
EXTRN	__imp_?GetString@ioStringManager@@QAEPADPBD0HW4FileNamePrefix@1@@Z:PROC
EXTRN	__imp_?GetSingleton@ioStringManager@@SAAAV1@XZ:PROC
EXTRN	?IsBattleRoom@ioBattleRoomMgr@@QAE_NXZ:PROC	; ioBattleRoomMgr::IsBattleRoom
EXTRN	?GetSingleton@ioBattleRoomMgr@@SAAAV1@XZ:PROC	; ioBattleRoomMgr::GetSingleton
EXTRN	?IsMouseBusy@ioApplication@@QAE_NXZ:PROC	; ioApplication::IsMouseBusy
EXTRN	?GetSingleton@ioApplication@@SAAAV1@XZ:PROC	; ioApplication::GetSingleton
EXTRN	___security_cookie:DWORD
EXTRN	__chkstk:PROC
;	COMDAT ??_C@_0CE@NNBEKDBF@LobbyWnd?3?3OnCreateGuildHeadquart@
CONST	SEGMENT
??_C@_0CE@NNBEKDBF@LobbyWnd?3?3OnCreateGuildHeadquart@ DB 'LobbyWnd::OnCr'
	DB	'eateGuildHeadquarters', 00H			; `string'
CONST	ENDS
;	COMDAT ??_C@_00CNPNBAHC@?$AA@
CONST	SEGMENT
??_C@_00CNPNBAHC@?$AA@ DB 00H				; `string'
CONST	ENDS
;	COMDAT xdata$x
xdata$x	SEGMENT
__unwindtable$?OnCreateGuildHeadquarters@LobbyWnd@@IAEXXZ DD 0ffffffffH
	DD	FLAT:__unwindfunclet$?OnCreateGuildHeadquarters@LobbyWnd@@IAEXXZ$0
__ehfuncinfo$?OnCreateGuildHeadquarters@LobbyWnd@@IAEXXZ DD 019930522H
	DD	01H
	DD	FLAT:__unwindtable$?OnCreateGuildHeadquarters@LobbyWnd@@IAEXXZ
	DD	2 DUP(00H)
	DD	2 DUP(00H)
	DD	00H
	DD	01H
; Function compile flags: /Ogsp
xdata$x	ENDS
;	COMDAT ?OnCreateGuildHeadquarters@LobbyWnd@@IAEXXZ
_TEXT	SEGMENT
_kPacket$ = -32808					; size = 32792
__$ArrayPad$ = -16					; size = 4
__$EHRec$ = -12						; size = 12
?OnCreateGuildHeadquarters@LobbyWnd@@IAEXXZ PROC	; LobbyWnd::OnCreateGuildHeadquarters, COMDAT
; _this$ = ecx

; 645  : {

  00000	55		 push	 ebp
  00001	8b ec		 mov	 ebp, esp
  00003	6a ff		 push	 -1
  00005	68 00 00 00 00	 push	 __ehhandler$?OnCreateGuildHeadquarters@LobbyWnd@@IAEXXZ
  0000a	64 a1 00 00 00
	00		 mov	 eax, DWORD PTR fs:0
  00010	50		 push	 eax
  00011	b8 1c 80 00 00	 mov	 eax, 32796		; 0000801cH
  00016	e8 00 00 00 00	 call	 __chkstk
  0001b	a1 00 00 00 00	 mov	 eax, DWORD PTR ___security_cookie
  00020	33 c5		 xor	 eax, ebp
  00022	89 45 f0	 mov	 DWORD PTR __$ArrayPad$[ebp], eax
  00025	56		 push	 esi
  00026	50		 push	 eax
  00027	8d 45 f4	 lea	 eax, DWORD PTR __$EHRec$[ebp]
  0002a	64 a3 00 00 00
	00		 mov	 DWORD PTR fs:0, eax

; 646  : 	if( g_App.IsMouseBusy() )

  00030	e8 00 00 00 00	 call	 ?GetSingleton@ioApplication@@SAAAV1@XZ ; ioApplication::GetSingleton
  00035	8b c8		 mov	 ecx, eax
  00037	e8 00 00 00 00	 call	 ?IsMouseBusy@ioApplication@@QAE_NXZ ; ioApplication::IsMouseBusy
  0003c	84 c0		 test	 al, al
  0003e	0f 85 b3 00 00
	00		 jne	 $LN5@OnCreateGu

; 647  : 		return;	
; 648  : 
; 649  : 	if( g_BattleRoomMgr.IsBattleRoom() )

  00044	e8 00 00 00 00	 call	 ?GetSingleton@ioBattleRoomMgr@@SAAAV1@XZ ; ioBattleRoomMgr::GetSingleton
  00049	8b c8		 mov	 ecx, eax
  0004b	e8 00 00 00 00	 call	 ?IsBattleRoom@ioBattleRoomMgr@@QAE_NXZ ; ioBattleRoomMgr::IsBattleRoom
  00050	84 c0		 test	 al, al
  00052	74 30		 je	 SHORT $LN3@OnCreateGu

; 650  : 	{
; 651  : 		g_GUIMgr.SetMsgBox( MB_OK, NULL, STR(1) );

  00054	33 f6		 xor	 esi, esi
  00056	56		 push	 esi
  00057	6a 01		 push	 1
$LN9@OnCreateGu:
  00059	68 00 00 00 00	 push	 OFFSET ??_C@_00CNPNBAHC@?$AA@
  0005e	68 00 00 00 00	 push	 OFFSET ??_C@_0CE@NNBEKDBF@LobbyWnd?3?3OnCreateGuildHeadquart@
  00063	ff 15 00 00 00
	00		 call	 DWORD PTR __imp_?GetSingleton@ioStringManager@@SAAAV1@XZ
  00069	8b c8		 mov	 ecx, eax
  0006b	ff 15 00 00 00
	00		 call	 DWORD PTR __imp_?GetString@ioStringManager@@QAEPADPBD0HW4FileNamePrefix@1@@Z
  00071	50		 push	 eax
  00072	56		 push	 esi
  00073	56		 push	 esi
  00074	e8 00 00 00 00	 call	 ?GetSingleton@ioSP2GUIManager@@SAAAV1@XZ ; ioSP2GUIManager::GetSingleton
  00079	50		 push	 eax
  0007a	e8 00 00 00 00	 call	 ?SetMsgBox@ioSP2GUIManager@@QAAXHPAVioWnd@@PBDZZ ; ioSP2GUIManager::SetMsgBox
  0007f	83 c4 10	 add	 esp, 16			; 00000010H

; 652  : 		return;

  00082	eb 73		 jmp	 SHORT $LN5@OnCreateGu
$LN3@OnCreateGu:

; 653  : 	}
; 654  : 
; 655  : 	if( g_LadderTeamMgr.IsLadderTeam() )

  00084	e8 00 00 00 00	 call	 ?GetSingleton@ioLadderTeamMgr@@SAAAV1@XZ ; ioLadderTeamMgr::GetSingleton
  00089	8b c8		 mov	 ecx, eax
  0008b	e8 00 00 00 00	 call	 ?IsLadderTeam@ioLadderTeamMgr@@QAE_NXZ ; ioLadderTeamMgr::IsLadderTeam
  00090	84 c0		 test	 al, al
  00092	74 07		 je	 SHORT $LN2@OnCreateGu

; 656  : 	{
; 657  : 		g_GUIMgr.SetMsgBox( MB_OK, NULL, STR(2) );

  00094	33 f6		 xor	 esi, esi
  00096	56		 push	 esi
  00097	6a 02		 push	 2

; 658  : 		return;

  00099	eb be		 jmp	 SHORT $LN9@OnCreateGu
$LN2@OnCreateGu:

; 659  : 	}
; 660  : 
; 661  : 	if( g_ShuffleRoomMgr.IsShuffleRoom() )

  0009b	e8 00 00 00 00	 call	 ?GetSingleton@ioShuffleRoomMgr@@SAAAV1@XZ ; ioShuffleRoomMgr::GetSingleton
  000a0	8b c8		 mov	 ecx, eax
  000a2	e8 00 00 00 00	 call	 ?IsShuffleRoom@ioShuffleRoomMgr@@QAE_NXZ ; ioShuffleRoomMgr::IsShuffleRoom
  000a7	84 c0		 test	 al, al
  000a9	74 07		 je	 SHORT $LN1@OnCreateGu

; 662  : 	{
; 663  : 		g_GUIMgr.SetMsgBox( MB_OK, NULL, STR(3) );

  000ab	33 f6		 xor	 esi, esi
  000ad	56		 push	 esi
  000ae	6a 03		 push	 3

; 664  : 		return;

  000b0	eb a7		 jmp	 SHORT $LN9@OnCreateGu
$LN1@OnCreateGu:

; 665  : 	}
; 666  : 
; 667  : 	SP2Packet kPacket( CTPK_ENTER_GUILD_ROOM );

  000b2	68 51 03 00 00	 push	 849			; 00000351H
  000b7	8d 8d d8 7f ff
	ff		 lea	 ecx, DWORD PTR _kPacket$[ebp]
  000bd	e8 00 00 00 00	 call	 ??0SP2Packet@@QAE@K@Z	; SP2Packet::SP2Packet
  000c2	83 65 fc 00	 and	 DWORD PTR __$EHRec$[ebp+8], 0

; 668  : #if defined( SRC_ID ) || defined( SRC_SEA )
; 669  : 	kPacket << 17;
; 670  : #else
; 671  : 	kPacket << 16;

  000c6	6a 10		 push	 16			; 00000010H
  000c8	8d 8d d8 7f ff
	ff		 lea	 ecx, DWORD PTR _kPacket$[ebp]
  000ce	e8 00 00 00 00	 call	 ??6SP2Packet@@QAEAAV0@H@Z ; SP2Packet::operator<<

; 672  : #endif
; 673  : 	TCPNetwork::SendToServer( kPacket );

  000d3	8d 85 d8 7f ff
	ff		 lea	 eax, DWORD PTR _kPacket$[ebp]
  000d9	50		 push	 eax
  000da	e8 00 00 00 00	 call	 ?SendToServer@TCPNetwork@@YAXAAVSP2Packet@@@Z ; TCPNetwork::SendToServer

; 674  : 	TCPNetwork::MouseBusy( true );

  000df	6a 01		 push	 1
  000e1	e8 00 00 00 00	 call	 ?MouseBusy@TCPNetwork@@YAX_N@Z ; TCPNetwork::MouseBusy

; 675  : }

  000e6	83 4d fc ff	 or	 DWORD PTR __$EHRec$[ebp+8], -1
  000ea	59		 pop	 ecx
  000eb	59		 pop	 ecx
  000ec	8d 8d d8 7f ff
	ff		 lea	 ecx, DWORD PTR _kPacket$[ebp]
  000f2	e8 00 00 00 00	 call	 ??1SP2Packet@@UAE@XZ	; SP2Packet::~SP2Packet
$LN5@OnCreateGu:
  000f7	8b 4d f4	 mov	 ecx, DWORD PTR __$EHRec$[ebp]
  000fa	64 89 0d 00 00
	00 00		 mov	 DWORD PTR fs:0, ecx
  00101	59		 pop	 ecx
  00102	5e		 pop	 esi
  00103	8b 4d f0	 mov	 ecx, DWORD PTR __$ArrayPad$[ebp]
  00106	33 cd		 xor	 ecx, ebp
  00108	e8 00 00 00 00	 call	 @__security_check_cookie@4
  0010d	c9		 leave
  0010e	c3		 ret	 0
_TEXT	ENDS
;	COMDAT text$x
text$x	SEGMENT
__unwindfunclet$?OnCreateGuildHeadquarters@LobbyWnd@@IAEXXZ$0:
  00000	8d 8d d8 7f ff
	ff		 lea	 ecx, DWORD PTR _kPacket$[ebp]
  00006	e9 00 00 00 00	 jmp	 ??1SP2Packet@@UAE@XZ	; SP2Packet::~SP2Packet
__ehhandler$?OnCreateGuildHeadquarters@LobbyWnd@@IAEXXZ:
  0000b	8b 54 24 08	 mov	 edx, DWORD PTR [esp+8]
  0000f	8d 42 0c	 lea	 eax, DWORD PTR [edx+12]
  00012	8b 8a dc 7f ff
	ff		 mov	 ecx, DWORD PTR [edx-32804]
  00018	33 c8		 xor	 ecx, eax
  0001a	e8 00 00 00 00	 call	 @__security_check_cookie@4
  0001f	8b 4a fc	 mov	 ecx, DWORD PTR [edx-4]
  00022	33 c8		 xor	 ecx, eax
  00024	e8 00 00 00 00	 call	 @__security_check_cookie@4
  00029	b8 00 00 00 00	 mov	 eax, OFFSET __ehfuncinfo$?OnCreateGuildHeadquarters@LobbyWnd@@IAEXXZ
  0002e	e9 00 00 00 00	 jmp	 ___CxxFrameHandler3
text$x	ENDS
?OnCreateGuildHeadquarters@LobbyWnd@@IAEXXZ ENDP	; LobbyWnd::OnCreateGuildHeadquarters
PUBLIC	??_R0?AVPartyCatalogueWnd@@@8			; PartyCatalogueWnd `RTTI Type Descriptor'
PUBLIC	?ApplyNormalTeamList@LobbyWnd@@QAEXAAVSP2Packet@@@Z ; LobbyWnd::ApplyNormalTeamList
EXTRN	?SetPartyList@PartyCatalogueWnd@@QAEXAAVSP2Packet@@@Z:PROC ; PartyCatalogueWnd::SetPartyList
EXTRN	__imp_?IsShow@ioWnd@@QBE_NXZ:PROC
EXTRN	__imp_?FindChildWnd@ioWnd@@QAEPAV1@K@Z:PROC
EXTRN	___RTDynamicCast:PROC
;	COMDAT ??_R0?AVPartyCatalogueWnd@@@8
_DATA	SEGMENT
??_R0?AVPartyCatalogueWnd@@@8 DD FLAT:??_7type_info@@6B@ ; PartyCatalogueWnd `RTTI Type Descriptor'
	DD	00H
	DB	'.?AVPartyCatalogueWnd@@', 00H
; Function compile flags: /Ogsp
_DATA	ENDS
;	COMDAT ?ApplyNormalTeamList@LobbyWnd@@QAEXAAVSP2Packet@@@Z
_TEXT	SEGMENT
_rkPacket$ = 8						; size = 4
?ApplyNormalTeamList@LobbyWnd@@QAEXAAVSP2Packet@@@Z PROC ; LobbyWnd::ApplyNormalTeamList, COMDAT
; _this$ = ecx

; 1012 : {

  00000	55		 push	 ebp
  00001	8b ec		 mov	 ebp, esp

; 1013 : 	if( m_dwTabID != ID_BATTLE_BTN ) return;

  00003	83 b9 88 01 00
	00 01		 cmp	 DWORD PTR [ecx+392], 1
  0000a	75 3d		 jne	 SHORT $LN1@ApplyNorma

; 1014 : 
; 1015 : 	PartyCatalogueWnd *pCatalogueWnd = dynamic_cast<PartyCatalogueWnd*>(FindChildWnd( ID_BATTLE_WND ));

  0000c	56		 push	 esi
  0000d	6a 00		 push	 0
  0000f	68 00 00 00 00	 push	 OFFSET ??_R0?AVPartyCatalogueWnd@@@8
  00014	68 00 00 00 00	 push	 OFFSET ??_R0?AVioWnd@@@8
  00019	6a 00		 push	 0
  0001b	6a 0a		 push	 10			; 0000000aH
  0001d	ff 15 00 00 00
	00		 call	 DWORD PTR __imp_?FindChildWnd@ioWnd@@QAEPAV1@K@Z
  00023	50		 push	 eax
  00024	e8 00 00 00 00	 call	 ___RTDynamicCast
  00029	8b f0		 mov	 esi, eax
  0002b	83 c4 14	 add	 esp, 20			; 00000014H

; 1016 : 	if( !pCatalogueWnd || !pCatalogueWnd->IsShow() )

  0002e	85 f6		 test	 esi, esi
  00030	74 16		 je	 SHORT $LN6@ApplyNorma
  00032	8b ce		 mov	 ecx, esi
  00034	ff 15 00 00 00
	00		 call	 DWORD PTR __imp_?IsShow@ioWnd@@QBE_NXZ
  0003a	84 c0		 test	 al, al
  0003c	74 0a		 je	 SHORT $LN6@ApplyNorma

; 1017 : 		return;
; 1018 : 
; 1019 : 	pCatalogueWnd->SetPartyList( rkPacket );

  0003e	ff 75 08	 push	 DWORD PTR _rkPacket$[ebp]
  00041	8b ce		 mov	 ecx, esi
  00043	e8 00 00 00 00	 call	 ?SetPartyList@PartyCatalogueWnd@@QAEXAAVSP2Packet@@@Z ; PartyCatalogueWnd::SetPartyList
$LN6@ApplyNorma:
  00048	5e		 pop	 esi
$LN1@ApplyNorma:

; 1020 : }

  00049	5d		 pop	 ebp
  0004a	c2 04 00	 ret	 4
?ApplyNormalTeamList@LobbyWnd@@QAEXAAVSP2Packet@@@Z ENDP ; LobbyWnd::ApplyNormalTeamList
_TEXT	ENDS
PUBLIC	??_R0?AVPlazaListWnd@@@8			; PlazaListWnd `RTTI Type Descriptor'
PUBLIC	?ApplyPlazaList@LobbyWnd@@QAEXAAVSP2Packet@@@Z	; LobbyWnd::ApplyPlazaList
EXTRN	?SetPlazaList@PlazaListWnd@@QAEXAAVSP2Packet@@@Z:PROC ; PlazaListWnd::SetPlazaList
;	COMDAT ??_R0?AVPlazaListWnd@@@8
_DATA	SEGMENT
??_R0?AVPlazaListWnd@@@8 DD FLAT:??_7type_info@@6B@	; PlazaListWnd `RTTI Type Descriptor'
	DD	00H
	DB	'.?AVPlazaListWnd@@', 00H
; Function compile flags: /Ogsp
_DATA	ENDS
;	COMDAT ?ApplyPlazaList@LobbyWnd@@QAEXAAVSP2Packet@@@Z
_TEXT	SEGMENT
_rkPacket$ = 8						; size = 4
?ApplyPlazaList@LobbyWnd@@QAEXAAVSP2Packet@@@Z PROC	; LobbyWnd::ApplyPlazaList, COMDAT
; _this$ = ecx

; 1023 : {

  00000	55		 push	 ebp
  00001	8b ec		 mov	 ebp, esp

; 1024 : 	if( m_dwTabID != ID_PLAZA_BTN ) return;

  00003	83 b9 88 01 00
	00 04		 cmp	 DWORD PTR [ecx+392], 4
  0000a	75 3d		 jne	 SHORT $LN1@ApplyPlaza

; 1025 : 
; 1026 : 	PlazaListWnd *pPlazaListWnd = dynamic_cast<PlazaListWnd*>(FindChildWnd( ID_PLAZA_WND ));

  0000c	56		 push	 esi
  0000d	6a 00		 push	 0
  0000f	68 00 00 00 00	 push	 OFFSET ??_R0?AVPlazaListWnd@@@8
  00014	68 00 00 00 00	 push	 OFFSET ??_R0?AVioWnd@@@8
  00019	6a 00		 push	 0
  0001b	6a 0c		 push	 12			; 0000000cH
  0001d	ff 15 00 00 00
	00		 call	 DWORD PTR __imp_?FindChildWnd@ioWnd@@QAEPAV1@K@Z
  00023	50		 push	 eax
  00024	e8 00 00 00 00	 call	 ___RTDynamicCast
  00029	8b f0		 mov	 esi, eax
  0002b	83 c4 14	 add	 esp, 20			; 00000014H

; 1027 : 	if( !pPlazaListWnd || !pPlazaListWnd->IsShow() )

  0002e	85 f6		 test	 esi, esi
  00030	74 16		 je	 SHORT $LN6@ApplyPlaza
  00032	8b ce		 mov	 ecx, esi
  00034	ff 15 00 00 00
	00		 call	 DWORD PTR __imp_?IsShow@ioWnd@@QBE_NXZ
  0003a	84 c0		 test	 al, al
  0003c	74 0a		 je	 SHORT $LN6@ApplyPlaza

; 1028 : 		return;
; 1029 : 
; 1030 : 	pPlazaListWnd->SetPlazaList( rkPacket );

  0003e	ff 75 08	 push	 DWORD PTR _rkPacket$[ebp]
  00041	8b ce		 mov	 ecx, esi
  00043	e8 00 00 00 00	 call	 ?SetPlazaList@PlazaListWnd@@QAEXAAVSP2Packet@@@Z ; PlazaListWnd::SetPlazaList
$LN6@ApplyPlaza:
  00048	5e		 pop	 esi
$LN1@ApplyPlaza:

; 1031 : }

  00049	5d		 pop	 ebp
  0004a	c2 04 00	 ret	 4
?ApplyPlazaList@LobbyWnd@@QAEXAAVSP2Packet@@@Z ENDP	; LobbyWnd::ApplyPlazaList
_TEXT	ENDS
PUBLIC	??_R0?AVCampMainWnd@@@8				; CampMainWnd `RTTI Type Descriptor'
PUBLIC	?ApplyLadderTeamList@LobbyWnd@@QAEXAAVSP2Packet@@@Z ; LobbyWnd::ApplyLadderTeamList
EXTRN	?SetLadderTeamList@CampMainWnd@@QAEXAAVSP2Packet@@@Z:PROC ; CampMainWnd::SetLadderTeamList
;	COMDAT ??_R0?AVCampMainWnd@@@8
_DATA	SEGMENT
??_R0?AVCampMainWnd@@@8 DD FLAT:??_7type_info@@6B@	; CampMainWnd `RTTI Type Descriptor'
	DD	00H
	DB	'.?AVCampMainWnd@@', 00H
; Function compile flags: /Ogsp
_DATA	ENDS
;	COMDAT ?ApplyLadderTeamList@LobbyWnd@@QAEXAAVSP2Packet@@@Z
_TEXT	SEGMENT
_rkPacket$ = 8						; size = 4
?ApplyLadderTeamList@LobbyWnd@@QAEXAAVSP2Packet@@@Z PROC ; LobbyWnd::ApplyLadderTeamList, COMDAT
; _this$ = ecx

; 1034 : {

  00000	55		 push	 ebp
  00001	8b ec		 mov	 ebp, esp

; 1035 : 	if( m_dwTabID != ID_CAMP_BTN ) return;

  00003	83 b9 88 01 00
	00 02		 cmp	 DWORD PTR [ecx+392], 2
  0000a	75 3d		 jne	 SHORT $LN1@ApplyLadde

; 1036 : 
; 1037 : 	CampMainWnd *pCampMainWnd = dynamic_cast<CampMainWnd*>(FindChildWnd( ID_CAMP_MAIN_WND ));

  0000c	56		 push	 esi
  0000d	6a 00		 push	 0
  0000f	68 00 00 00 00	 push	 OFFSET ??_R0?AVCampMainWnd@@@8
  00014	68 00 00 00 00	 push	 OFFSET ??_R0?AVioWnd@@@8
  00019	6a 00		 push	 0
  0001b	6a 0b		 push	 11			; 0000000bH
  0001d	ff 15 00 00 00
	00		 call	 DWORD PTR __imp_?FindChildWnd@ioWnd@@QAEPAV1@K@Z
  00023	50		 push	 eax
  00024	e8 00 00 00 00	 call	 ___RTDynamicCast
  00029	8b f0		 mov	 esi, eax
  0002b	83 c4 14	 add	 esp, 20			; 00000014H

; 1038 : 	if( !pCampMainWnd || !pCampMainWnd->IsShow() )

  0002e	85 f6		 test	 esi, esi
  00030	74 16		 je	 SHORT $LN6@ApplyLadde
  00032	8b ce		 mov	 ecx, esi
  00034	ff 15 00 00 00
	00		 call	 DWORD PTR __imp_?IsShow@ioWnd@@QBE_NXZ
  0003a	84 c0		 test	 al, al
  0003c	74 0a		 je	 SHORT $LN6@ApplyLadde

; 1039 : 		return;
; 1040 : 
; 1041 : 	pCampMainWnd->SetLadderTeamList( rkPacket );

  0003e	ff 75 08	 push	 DWORD PTR _rkPacket$[ebp]
  00041	8b ce		 mov	 ecx, esi
  00043	e8 00 00 00 00	 call	 ?SetLadderTeamList@CampMainWnd@@QAEXAAVSP2Packet@@@Z ; CampMainWnd::SetLadderTeamList
$LN6@ApplyLadde:
  00048	5e		 pop	 esi
$LN1@ApplyLadde:

; 1042 : }

  00049	5d		 pop	 ebp
  0004a	c2 04 00	 ret	 4
?ApplyLadderTeamList@LobbyWnd@@QAEXAAVSP2Packet@@@Z ENDP ; LobbyWnd::ApplyLadderTeamList
_TEXT	ENDS
PUBLIC	?RefreshBattleList@LobbyWnd@@QAEXK@Z		; LobbyWnd::RefreshBattleList
EXTRN	?StartSend@PartyCatalogueWnd@@QAEX_N@Z:PROC	; PartyCatalogueWnd::StartSend
EXTRN	?IsIndexToList@PartyCatalogueWnd@@QAE_NK@Z:PROC	; PartyCatalogueWnd::IsIndexToList
; Function compile flags: /Ogsp
;	COMDAT ?RefreshBattleList@LobbyWnd@@QAEXK@Z
_TEXT	SEGMENT
_dwIndex$ = 8						; size = 4
?RefreshBattleList@LobbyWnd@@QAEXK@Z PROC		; LobbyWnd::RefreshBattleList, COMDAT
; _this$ = ecx

; 1045 : {

  00000	55		 push	 ebp
  00001	8b ec		 mov	 ebp, esp
  00003	56		 push	 esi

; 1046 : 	PartyCatalogueWnd *pCatalogueWnd = dynamic_cast<PartyCatalogueWnd*>(FindChildWnd( ID_BATTLE_WND ));

  00004	6a 00		 push	 0
  00006	68 00 00 00 00	 push	 OFFSET ??_R0?AVPartyCatalogueWnd@@@8
  0000b	68 00 00 00 00	 push	 OFFSET ??_R0?AVioWnd@@@8
  00010	6a 00		 push	 0
  00012	6a 0a		 push	 10			; 0000000aH
  00014	ff 15 00 00 00
	00		 call	 DWORD PTR __imp_?FindChildWnd@ioWnd@@QAEPAV1@K@Z
  0001a	50		 push	 eax
  0001b	e8 00 00 00 00	 call	 ___RTDynamicCast
  00020	8b f0		 mov	 esi, eax
  00022	83 c4 14	 add	 esp, 20			; 00000014H

; 1047 : 	if( pCatalogueWnd && pCatalogueWnd->IsShow() )

  00025	85 f6		 test	 esi, esi
  00027	74 29		 je	 SHORT $LN2@RefreshBat
  00029	8b ce		 mov	 ecx, esi
  0002b	ff 15 00 00 00
	00		 call	 DWORD PTR __imp_?IsShow@ioWnd@@QBE_NXZ
  00031	84 c0		 test	 al, al
  00033	74 1d		 je	 SHORT $LN2@RefreshBat

; 1048 : 	{
; 1049 : 		if( dwIndex == 0 || pCatalogueWnd->IsIndexToList( dwIndex ) )

  00035	83 7d 08 00	 cmp	 DWORD PTR _dwIndex$[ebp], 0
  00039	74 0e		 je	 SHORT $LN1@RefreshBat
  0003b	ff 75 08	 push	 DWORD PTR _dwIndex$[ebp]
  0003e	8b ce		 mov	 ecx, esi
  00040	e8 00 00 00 00	 call	 ?IsIndexToList@PartyCatalogueWnd@@QAE_NK@Z ; PartyCatalogueWnd::IsIndexToList
  00045	84 c0		 test	 al, al
  00047	74 09		 je	 SHORT $LN2@RefreshBat
$LN1@RefreshBat:

; 1050 : 			pCatalogueWnd->StartSend( false );

  00049	6a 00		 push	 0
  0004b	8b ce		 mov	 ecx, esi
  0004d	e8 00 00 00 00	 call	 ?StartSend@PartyCatalogueWnd@@QAEX_N@Z ; PartyCatalogueWnd::StartSend
$LN2@RefreshBat:
  00052	5e		 pop	 esi

; 1051 : 	}
; 1052 : }

  00053	5d		 pop	 ebp
  00054	c2 04 00	 ret	 4
?RefreshBattleList@LobbyWnd@@QAEXK@Z ENDP		; LobbyWnd::RefreshBattleList
_TEXT	ENDS
PUBLIC	?QuestGuide@LobbyWnd@@QAE_NHAAM0@Z		; LobbyWnd::QuestGuide
EXTRN	?QuestGuide@PartyCatalogueWnd@@QAE_NHAAM0@Z:PROC ; PartyCatalogueWnd::QuestGuide
; Function compile flags: /Ogsp
;	COMDAT ?QuestGuide@LobbyWnd@@QAE_NHAAM0@Z
_TEXT	SEGMENT
_iModeSelectIndex$ = 8					; size = 4
_rfXPos$ = 12						; size = 4
_rfYPos$ = 16						; size = 4
?QuestGuide@LobbyWnd@@QAE_NHAAM0@Z PROC			; LobbyWnd::QuestGuide, COMDAT
; _this$ = ecx

; 1071 : {

  00000	55		 push	 ebp
  00001	8b ec		 mov	 ebp, esp
  00003	56		 push	 esi

; 1072 : 	PartyCatalogueWnd *pCatalogueWnd = dynamic_cast<PartyCatalogueWnd*>( FindChildWnd( ID_BATTLE_WND ) );

  00004	6a 00		 push	 0
  00006	68 00 00 00 00	 push	 OFFSET ??_R0?AVPartyCatalogueWnd@@@8
  0000b	68 00 00 00 00	 push	 OFFSET ??_R0?AVioWnd@@@8
  00010	6a 00		 push	 0
  00012	6a 0a		 push	 10			; 0000000aH
  00014	ff 15 00 00 00
	00		 call	 DWORD PTR __imp_?FindChildWnd@ioWnd@@QAEPAV1@K@Z
  0001a	50		 push	 eax
  0001b	e8 00 00 00 00	 call	 ___RTDynamicCast
  00020	8b f0		 mov	 esi, eax
  00022	83 c4 14	 add	 esp, 20			; 00000014H

; 1073 : 	if( pCatalogueWnd && pCatalogueWnd->IsShow() )

  00025	85 f6		 test	 esi, esi
  00027	74 1e		 je	 SHORT $LN1@QuestGuide
  00029	8b ce		 mov	 ecx, esi
  0002b	ff 15 00 00 00
	00		 call	 DWORD PTR __imp_?IsShow@ioWnd@@QBE_NXZ
  00031	84 c0		 test	 al, al
  00033	74 12		 je	 SHORT $LN1@QuestGuide

; 1074 : 	{
; 1075 : 		return pCatalogueWnd->QuestGuide( iModeSelectIndex, rfXPos, rfYPos );

  00035	ff 75 10	 push	 DWORD PTR _rfYPos$[ebp]
  00038	8b ce		 mov	 ecx, esi
  0003a	ff 75 0c	 push	 DWORD PTR _rfXPos$[ebp]
  0003d	ff 75 08	 push	 DWORD PTR _iModeSelectIndex$[ebp]
  00040	e8 00 00 00 00	 call	 ?QuestGuide@PartyCatalogueWnd@@QAE_NHAAM0@Z ; PartyCatalogueWnd::QuestGuide
  00045	eb 02		 jmp	 SHORT $LN2@QuestGuide
$LN1@QuestGuide:

; 1076 : 	}
; 1077 : 	return false;

  00047	32 c0		 xor	 al, al
$LN2@QuestGuide:
  00049	5e		 pop	 esi

; 1078 : }

  0004a	5d		 pop	 ebp
  0004b	c2 0c 00	 ret	 12			; 0000000cH
?QuestGuide@LobbyWnd@@QAE_NHAAM0@Z ENDP			; LobbyWnd::QuestGuide
_TEXT	ENDS
PUBLIC	??_R0?AVTournamentMainWnd@@@8			; TournamentMainWnd `RTTI Type Descriptor'
PUBLIC	?ApplyTournamentList@LobbyWnd@@QAEXAAVSP2Packet@@@Z ; LobbyWnd::ApplyTournamentList
EXTRN	?ApplyTournamentList@TournamentMainWnd@@QAEXAAVSP2Packet@@@Z:PROC ; TournamentMainWnd::ApplyTournamentList
;	COMDAT ??_R0?AVTournamentMainWnd@@@8
_DATA	SEGMENT
??_R0?AVTournamentMainWnd@@@8 DD FLAT:??_7type_info@@6B@ ; TournamentMainWnd `RTTI Type Descriptor'
	DD	00H
	DB	'.?AVTournamentMainWnd@@', 00H
; Function compile flags: /Ogsp
_DATA	ENDS
;	COMDAT ?ApplyTournamentList@LobbyWnd@@QAEXAAVSP2Packet@@@Z
_TEXT	SEGMENT
_rkPacket$ = 8						; size = 4
?ApplyTournamentList@LobbyWnd@@QAEXAAVSP2Packet@@@Z PROC ; LobbyWnd::ApplyTournamentList, COMDAT
; _this$ = ecx

; 1187 : {

  00000	55		 push	 ebp
  00001	8b ec		 mov	 ebp, esp

; 1188 : 	if( m_dwTabID != ID_TOURNAMENT_BTN ) return;

  00003	83 b9 88 01 00
	00 07		 cmp	 DWORD PTR [ecx+392], 7
  0000a	75 3d		 jne	 SHORT $LN1@ApplyTourn

; 1189 : 
; 1190 : 	TournamentMainWnd *pTournamentWnd = dynamic_cast< TournamentMainWnd * >( FindChildWnd( ID_TOURNAMENT_WND ) );

  0000c	56		 push	 esi
  0000d	6a 00		 push	 0
  0000f	68 00 00 00 00	 push	 OFFSET ??_R0?AVTournamentMainWnd@@@8
  00014	68 00 00 00 00	 push	 OFFSET ??_R0?AVioWnd@@@8
  00019	6a 00		 push	 0
  0001b	6a 10		 push	 16			; 00000010H
  0001d	ff 15 00 00 00
	00		 call	 DWORD PTR __imp_?FindChildWnd@ioWnd@@QAEPAV1@K@Z
  00023	50		 push	 eax
  00024	e8 00 00 00 00	 call	 ___RTDynamicCast
  00029	8b f0		 mov	 esi, eax
  0002b	83 c4 14	 add	 esp, 20			; 00000014H

; 1191 : 	if( pTournamentWnd && pTournamentWnd->IsShow() )

  0002e	85 f6		 test	 esi, esi
  00030	74 16		 je	 SHORT $LN5@ApplyTourn
  00032	8b ce		 mov	 ecx, esi
  00034	ff 15 00 00 00
	00		 call	 DWORD PTR __imp_?IsShow@ioWnd@@QBE_NXZ
  0003a	84 c0		 test	 al, al
  0003c	74 0a		 je	 SHORT $LN5@ApplyTourn

; 1192 : 	{
; 1193 : 		pTournamentWnd->ApplyTournamentList( rkPacket );

  0003e	ff 75 08	 push	 DWORD PTR _rkPacket$[ebp]
  00041	8b ce		 mov	 ecx, esi
  00043	e8 00 00 00 00	 call	 ?ApplyTournamentList@TournamentMainWnd@@QAEXAAVSP2Packet@@@Z ; TournamentMainWnd::ApplyTournamentList
$LN5@ApplyTourn:
  00048	5e		 pop	 esi
$LN1@ApplyTourn:

; 1194 : 	}
; 1195 : }

  00049	5d		 pop	 ebp
  0004a	c2 04 00	 ret	 4
?ApplyTournamentList@LobbyWnd@@QAEXAAVSP2Packet@@@Z ENDP ; LobbyWnd::ApplyTournamentList
_TEXT	ENDS
PUBLIC	?ApplyTournamentConfirmCheck@LobbyWnd@@QAEXAAVSP2Packet@@@Z ; LobbyWnd::ApplyTournamentConfirmCheck
EXTRN	?ApplyTournamentConfirmCheck@TournamentMainWnd@@QAEXAAVSP2Packet@@@Z:PROC ; TournamentMainWnd::ApplyTournamentConfirmCheck
; Function compile flags: /Ogsp
;	COMDAT ?ApplyTournamentConfirmCheck@LobbyWnd@@QAEXAAVSP2Packet@@@Z
_TEXT	SEGMENT
_rkPacket$ = 8						; size = 4
?ApplyTournamentConfirmCheck@LobbyWnd@@QAEXAAVSP2Packet@@@Z PROC ; LobbyWnd::ApplyTournamentConfirmCheck, COMDAT
; _this$ = ecx

; 1198 : {

  00000	55		 push	 ebp
  00001	8b ec		 mov	 ebp, esp

; 1199 : 	if( m_dwTabID != ID_TOURNAMENT_BTN ) return;

  00003	83 b9 88 01 00
	00 07		 cmp	 DWORD PTR [ecx+392], 7
  0000a	75 3d		 jne	 SHORT $LN1@ApplyTourn@2

; 1200 : 
; 1201 : 	TournamentMainWnd *pTournamentWnd = dynamic_cast< TournamentMainWnd * >( FindChildWnd( ID_TOURNAMENT_WND ) );

  0000c	56		 push	 esi
  0000d	6a 00		 push	 0
  0000f	68 00 00 00 00	 push	 OFFSET ??_R0?AVTournamentMainWnd@@@8
  00014	68 00 00 00 00	 push	 OFFSET ??_R0?AVioWnd@@@8
  00019	6a 00		 push	 0
  0001b	6a 10		 push	 16			; 00000010H
  0001d	ff 15 00 00 00
	00		 call	 DWORD PTR __imp_?FindChildWnd@ioWnd@@QAEPAV1@K@Z
  00023	50		 push	 eax
  00024	e8 00 00 00 00	 call	 ___RTDynamicCast
  00029	8b f0		 mov	 esi, eax
  0002b	83 c4 14	 add	 esp, 20			; 00000014H

; 1202 : 	if( pTournamentWnd && pTournamentWnd->IsShow() )

  0002e	85 f6		 test	 esi, esi
  00030	74 16		 je	 SHORT $LN5@ApplyTourn@2
  00032	8b ce		 mov	 ecx, esi
  00034	ff 15 00 00 00
	00		 call	 DWORD PTR __imp_?IsShow@ioWnd@@QBE_NXZ
  0003a	84 c0		 test	 al, al
  0003c	74 0a		 je	 SHORT $LN5@ApplyTourn@2

; 1203 : 	{
; 1204 : 		pTournamentWnd->ApplyTournamentConfirmCheck( rkPacket );

  0003e	ff 75 08	 push	 DWORD PTR _rkPacket$[ebp]
  00041	8b ce		 mov	 ecx, esi
  00043	e8 00 00 00 00	 call	 ?ApplyTournamentConfirmCheck@TournamentMainWnd@@QAEXAAVSP2Packet@@@Z ; TournamentMainWnd::ApplyTournamentConfirmCheck
$LN5@ApplyTourn@2:
  00048	5e		 pop	 esi
$LN1@ApplyTourn@2:

; 1205 : 	}
; 1206 : }

  00049	5d		 pop	 ebp
  0004a	c2 04 00	 ret	 4
?ApplyTournamentConfirmCheck@LobbyWnd@@QAEXAAVSP2Packet@@@Z ENDP ; LobbyWnd::ApplyTournamentConfirmCheck
_TEXT	ENDS
PUBLIC	?ApplyTournamentConfirmRequest@LobbyWnd@@QAEXAAVSP2Packet@@@Z ; LobbyWnd::ApplyTournamentConfirmRequest
EXTRN	?ApplyTournamentConfirmRequest@TournamentMainWnd@@QAEXAAVSP2Packet@@@Z:PROC ; TournamentMainWnd::ApplyTournamentConfirmRequest
; Function compile flags: /Ogsp
;	COMDAT ?ApplyTournamentConfirmRequest@LobbyWnd@@QAEXAAVSP2Packet@@@Z
_TEXT	SEGMENT
_rkPacket$ = 8						; size = 4
?ApplyTournamentConfirmRequest@LobbyWnd@@QAEXAAVSP2Packet@@@Z PROC ; LobbyWnd::ApplyTournamentConfirmRequest, COMDAT
; _this$ = ecx

; 1209 : {

  00000	55		 push	 ebp
  00001	8b ec		 mov	 ebp, esp

; 1210 : 	if( m_dwTabID != ID_TOURNAMENT_BTN ) return;

  00003	83 b9 88 01 00
	00 07		 cmp	 DWORD PTR [ecx+392], 7
  0000a	75 3d		 jne	 SHORT $LN1@ApplyTourn@3

; 1211 : 
; 1212 : 	TournamentMainWnd *pTournamentWnd = dynamic_cast< TournamentMainWnd * >( FindChildWnd( ID_TOURNAMENT_WND ) );

  0000c	56		 push	 esi
  0000d	6a 00		 push	 0
  0000f	68 00 00 00 00	 push	 OFFSET ??_R0?AVTournamentMainWnd@@@8
  00014	68 00 00 00 00	 push	 OFFSET ??_R0?AVioWnd@@@8
  00019	6a 00		 push	 0
  0001b	6a 10		 push	 16			; 00000010H
  0001d	ff 15 00 00 00
	00		 call	 DWORD PTR __imp_?FindChildWnd@ioWnd@@QAEPAV1@K@Z
  00023	50		 push	 eax
  00024	e8 00 00 00 00	 call	 ___RTDynamicCast
  00029	8b f0		 mov	 esi, eax
  0002b	83 c4 14	 add	 esp, 20			; 00000014H

; 1213 : 	if( pTournamentWnd && pTournamentWnd->IsShow() )

  0002e	85 f6		 test	 esi, esi
  00030	74 16		 je	 SHORT $LN5@ApplyTourn@3
  00032	8b ce		 mov	 ecx, esi
  00034	ff 15 00 00 00
	00		 call	 DWORD PTR __imp_?IsShow@ioWnd@@QBE_NXZ
  0003a	84 c0		 test	 al, al
  0003c	74 0a		 je	 SHORT $LN5@ApplyTourn@3

; 1214 : 	{
; 1215 : 		pTournamentWnd->ApplyTournamentConfirmRequest( rkPacket );

  0003e	ff 75 08	 push	 DWORD PTR _rkPacket$[ebp]
  00041	8b ce		 mov	 ecx, esi
  00043	e8 00 00 00 00	 call	 ?ApplyTournamentConfirmRequest@TournamentMainWnd@@QAEXAAVSP2Packet@@@Z ; TournamentMainWnd::ApplyTournamentConfirmRequest
$LN5@ApplyTourn@3:
  00048	5e		 pop	 esi
$LN1@ApplyTourn@3:

; 1216 : 	}
; 1217 : }

  00049	5d		 pop	 ebp
  0004a	c2 04 00	 ret	 4
?ApplyTournamentConfirmRequest@LobbyWnd@@QAEXAAVSP2Packet@@@Z ENDP ; LobbyWnd::ApplyTournamentConfirmRequest
_TEXT	ENDS
PUBLIC	??_R0?AVTradeMainWnd@@@8			; TradeMainWnd `RTTI Type Descriptor'
PUBLIC	?OnRefreshTradeItemList@LobbyWnd@@QAEXXZ	; LobbyWnd::OnRefreshTradeItemList
EXTRN	?OnRefreshTradeItemList@TradeMainWnd@@QAEXXZ:PROC ; TradeMainWnd::OnRefreshTradeItemList
;	COMDAT ??_R0?AVTradeMainWnd@@@8
_DATA	SEGMENT
??_R0?AVTradeMainWnd@@@8 DD FLAT:??_7type_info@@6B@	; TradeMainWnd `RTTI Type Descriptor'
	DD	00H
	DB	'.?AVTradeMainWnd@@', 00H
; Function compile flags: /Ogsp
_DATA	ENDS
;	COMDAT ?OnRefreshTradeItemList@LobbyWnd@@QAEXXZ
_TEXT	SEGMENT
?OnRefreshTradeItemList@LobbyWnd@@QAEXXZ PROC		; LobbyWnd::OnRefreshTradeItemList, COMDAT
; _this$ = ecx

; 1220 : {

  00000	56		 push	 esi

; 1221 : 	TradeMainWnd *pTradeWnd = dynamic_cast<TradeMainWnd*>(FindChildWnd( ID_TRADE_MAIN_WND ));

  00001	6a 00		 push	 0
  00003	68 00 00 00 00	 push	 OFFSET ??_R0?AVTradeMainWnd@@@8
  00008	68 00 00 00 00	 push	 OFFSET ??_R0?AVioWnd@@@8
  0000d	6a 00		 push	 0
  0000f	6a 0f		 push	 15			; 0000000fH
  00011	ff 15 00 00 00
	00		 call	 DWORD PTR __imp_?FindChildWnd@ioWnd@@QAEPAV1@K@Z
  00017	50		 push	 eax
  00018	e8 00 00 00 00	 call	 ___RTDynamicCast
  0001d	8b f0		 mov	 esi, eax
  0001f	83 c4 14	 add	 esp, 20			; 00000014H

; 1222 : 	if( !pTradeWnd || !pTradeWnd->IsShow() )

  00022	85 f6		 test	 esi, esi
  00024	74 14		 je	 SHORT $LN1@OnRefreshT
  00026	8b ce		 mov	 ecx, esi
  00028	ff 15 00 00 00
	00		 call	 DWORD PTR __imp_?IsShow@ioWnd@@QBE_NXZ
  0002e	84 c0		 test	 al, al
  00030	74 08		 je	 SHORT $LN1@OnRefreshT

; 1223 : 		return;
; 1224 : 
; 1225 : 	pTradeWnd->OnRefreshTradeItemList();

  00032	8b ce		 mov	 ecx, esi
  00034	5e		 pop	 esi
  00035	e9 00 00 00 00	 jmp	 ?OnRefreshTradeItemList@TradeMainWnd@@QAEXXZ ; TradeMainWnd::OnRefreshTradeItemList
$LN1@OnRefreshT:
  0003a	5e		 pop	 esi

; 1226 : }

  0003b	c3		 ret	 0
?OnRefreshTradeItemList@LobbyWnd@@QAEXXZ ENDP		; LobbyWnd::OnRefreshTradeItemList
_TEXT	ENDS
PUBLIC	?ApplyLadderList@LobbyWnd@@QAEXAAVSP2Packet@@@Z	; LobbyWnd::ApplyLadderList
EXTRN	?SetLadderList@PartyCatalogueWnd@@QAEXAAVSP2Packet@@@Z:PROC ; PartyCatalogueWnd::SetLadderList
; Function compile flags: /Ogsp
;	COMDAT ?ApplyLadderList@LobbyWnd@@QAEXAAVSP2Packet@@@Z
_TEXT	SEGMENT
_rkPacket$ = 8						; size = 4
?ApplyLadderList@LobbyWnd@@QAEXAAVSP2Packet@@@Z PROC	; LobbyWnd::ApplyLadderList, COMDAT
; _this$ = ecx

; 1254 : {

  00000	55		 push	 ebp
  00001	8b ec		 mov	 ebp, esp

; 1255 : 	if( m_dwTabID != ID_BATTLE_BTN ) return;

  00003	83 b9 88 01 00
	00 01		 cmp	 DWORD PTR [ecx+392], 1
  0000a	75 3d		 jne	 SHORT $LN1@ApplyLadde@2

; 1256 : 
; 1257 : 	PartyCatalogueWnd *pCatalogueWnd = dynamic_cast<PartyCatalogueWnd*>(FindChildWnd( ID_BATTLE_WND ));

  0000c	56		 push	 esi
  0000d	6a 00		 push	 0
  0000f	68 00 00 00 00	 push	 OFFSET ??_R0?AVPartyCatalogueWnd@@@8
  00014	68 00 00 00 00	 push	 OFFSET ??_R0?AVioWnd@@@8
  00019	6a 00		 push	 0
  0001b	6a 0a		 push	 10			; 0000000aH
  0001d	ff 15 00 00 00
	00		 call	 DWORD PTR __imp_?FindChildWnd@ioWnd@@QAEPAV1@K@Z
  00023	50		 push	 eax
  00024	e8 00 00 00 00	 call	 ___RTDynamicCast
  00029	8b f0		 mov	 esi, eax
  0002b	83 c4 14	 add	 esp, 20			; 00000014H

; 1258 : 	if( !pCatalogueWnd || !pCatalogueWnd->IsShow() )

  0002e	85 f6		 test	 esi, esi
  00030	74 16		 je	 SHORT $LN6@ApplyLadde@2
  00032	8b ce		 mov	 ecx, esi
  00034	ff 15 00 00 00
	00		 call	 DWORD PTR __imp_?IsShow@ioWnd@@QBE_NXZ
  0003a	84 c0		 test	 al, al
  0003c	74 0a		 je	 SHORT $LN6@ApplyLadde@2

; 1259 : 		return;
; 1260 : 
; 1261 : 	pCatalogueWnd->SetLadderList(rkPacket);

  0003e	ff 75 08	 push	 DWORD PTR _rkPacket$[ebp]
  00041	8b ce		 mov	 ecx, esi
  00043	e8 00 00 00 00	 call	 ?SetLadderList@PartyCatalogueWnd@@QAEXAAVSP2Packet@@@Z ; PartyCatalogueWnd::SetLadderList
$LN6@ApplyLadde@2:
  00048	5e		 pop	 esi
$LN1@ApplyLadde@2:

; 1262 : }

  00049	5d		 pop	 ebp
  0004a	c2 04 00	 ret	 4
?ApplyLadderList@LobbyWnd@@QAEXAAVSP2Packet@@@Z ENDP	; LobbyWnd::ApplyLadderList
_TEXT	ENDS
PUBLIC	??_7LobbyChatWnd@@6B@				; LobbyChatWnd::`vftable'
PUBLIC	??0LobbyChatWnd@@QAE@XZ				; LobbyChatWnd::LobbyChatWnd
PUBLIC	??_R4LobbyChatWnd@@6B@				; LobbyChatWnd::`RTTI Complete Object Locator'
PUBLIC	??_R0?AVLobbyChatWnd@@@8			; LobbyChatWnd `RTTI Type Descriptor'
PUBLIC	??_R3LobbyChatWnd@@8				; LobbyChatWnd::`RTTI Class Hierarchy Descriptor'
PUBLIC	??_R2LobbyChatWnd@@8				; LobbyChatWnd::`RTTI Base Class Array'
PUBLIC	??_R1A@?0A@EA@LobbyChatWnd@@8			; LobbyChatWnd::`RTTI Base Class Descriptor at (0,-1,0,64)'
PUBLIC	?ParseExtraInfo@LobbyChatWnd@@UAEXAAVioXMLElement@@@Z ; LobbyChatWnd::ParseExtraInfo
PUBLIC	?iwm_create@LobbyChatWnd@@UAEXXZ		; LobbyChatWnd::iwm_create
PUBLIC	?iwm_command@LobbyChatWnd@@UAEXPAVioWnd@@HK@Z	; LobbyChatWnd::iwm_command
PUBLIC	?iwm_show@LobbyChatWnd@@UAEXXZ			; LobbyChatWnd::iwm_show
PUBLIC	?iwm_hide@LobbyChatWnd@@UAEXXZ			; LobbyChatWnd::iwm_hide
PUBLIC	?iwm_esc@LobbyChatWnd@@UAE_NXZ			; LobbyChatWnd::iwm_esc
EXTRN	__imp_??0ioHashString@@QAE@XZ:PROC
EXTRN	?AddRenderFrame@ioWnd@@UAEXABVioHashString@@PAVioUIRenderFrame@@@Z:PROC ; ioWnd::AddRenderFrame
EXTRN	?AddRenderImage@ioWnd@@UAEXABVioHashString@@PAVioUIRenderImage@@@Z:PROC ; ioWnd::AddRenderImage
EXTRN	?OnRender@ioWnd@@MAEXXZ:PROC			; ioWnd::OnRender
EXTRN	??_ELobbyChatWnd@@UAEPAXI@Z:PROC		; LobbyChatWnd::`vector deleting destructor'
;	COMDAT ??_R1A@?0A@EA@LobbyChatWnd@@8
rdata$r	SEGMENT
??_R1A@?0A@EA@LobbyChatWnd@@8 DD FLAT:??_R0?AVLobbyChatWnd@@@8 ; LobbyChatWnd::`RTTI Base Class Descriptor at (0,-1,0,64)'
	DD	01H
	DD	00H
	DD	0ffffffffH
	DD	00H
	DD	040H
	DD	FLAT:??_R3LobbyChatWnd@@8
rdata$r	ENDS
;	COMDAT ??_R2LobbyChatWnd@@8
rdata$r	SEGMENT
??_R2LobbyChatWnd@@8 DD FLAT:??_R1A@?0A@EA@LobbyChatWnd@@8 ; LobbyChatWnd::`RTTI Base Class Array'
	DD	FLAT:??_R1A@?0A@EA@ioWnd@@8
rdata$r	ENDS
;	COMDAT ??_R3LobbyChatWnd@@8
rdata$r	SEGMENT
??_R3LobbyChatWnd@@8 DD 00H				; LobbyChatWnd::`RTTI Class Hierarchy Descriptor'
	DD	00H
	DD	02H
	DD	FLAT:??_R2LobbyChatWnd@@8
rdata$r	ENDS
;	COMDAT ??_R0?AVLobbyChatWnd@@@8
_DATA	SEGMENT
??_R0?AVLobbyChatWnd@@@8 DD FLAT:??_7type_info@@6B@	; LobbyChatWnd `RTTI Type Descriptor'
	DD	00H
	DB	'.?AVLobbyChatWnd@@', 00H
_DATA	ENDS
;	COMDAT ??_R4LobbyChatWnd@@6B@
rdata$r	SEGMENT
??_R4LobbyChatWnd@@6B@ DD 00H				; LobbyChatWnd::`RTTI Complete Object Locator'
	DD	00H
	DD	00H
	DD	FLAT:??_R0?AVLobbyChatWnd@@@8
	DD	FLAT:??_R3LobbyChatWnd@@8
rdata$r	ENDS
;	COMDAT ??_7LobbyChatWnd@@6B@
CONST	SEGMENT
??_7LobbyChatWnd@@6B@ DD FLAT:??_R4LobbyChatWnd@@6B@	; LobbyChatWnd::`vftable'
	DD	FLAT:?AddRenderFrame@ioWnd@@UAEXABVioHashString@@PAVioUIRenderFrame@@@Z
	DD	FLAT:?AddRenderImage@ioWnd@@UAEXABVioHashString@@PAVioUIRenderImage@@@Z
	DD	FLAT:?AddTooltipHelp@ioWnd@@UAEXABVioHashString@@00@Z
	DD	FLAT:?ParseExtraInfo@LobbyChatWnd@@UAEXAAVioXMLElement@@@Z
	DD	FLAT:?AddNamedRenderImage@ioWnd@@UAEXABVioHashString@@PAVioUIRenderImage@@@Z
	DD	FLAT:?RemoveNamedRenderImage@ioWnd@@UAEXABVioHashString@@@Z
	DD	FLAT:?GetNamedRenderImage@ioWnd@@UBEPAVioUIRenderImage@@ABVioHashString@@@Z
	DD	FLAT:?SetWindowAlpha@ioWnd@@UAEXH@Z
	DD	FLAT:?SetActive@ioWnd@@UAEXXZ
	DD	FLAT:?SetInActive@ioWnd@@UAEXXZ
	DD	FLAT:?ClearElementImageList@ioWnd@@UAEXXZ
	DD	FLAT:?SetSize@ioWnd@@UAEXHH@Z
	DD	FLAT:?SetPositionToDefault@ioWnd@@UAEXHH_N0@Z
	DD	FLAT:?IsNeedProcess@ioWnd@@UBE_NXZ
	DD	FLAT:?IsCanMouseReaction@ioWnd@@UBE_NXZ
	DD	FLAT:?AddChild@ioWnd@@UAEXPAV1@@Z
	DD	FLAT:?DeleteChild@ioWnd@@UAEXK@Z
	DD	FLAT:?DeleteAllChild@ioWnd@@UAEXXZ
	DD	FLAT:?OnRenderShowAndHide@ioWnd@@MAE_NXZ
	DD	FLAT:?OnRenderShowAndHideByDefault@ioWnd@@MAE_NK@Z
	DD	FLAT:?OnRenderShowAndHideByTop@ioWnd@@MAE_NK@Z
	DD	FLAT:?OnRenderShowAndHideByDown@ioWnd@@MAE_NK@Z
	DD	FLAT:?OnRender@ioWnd@@MAEXXZ
	DD	FLAT:?OnRenderAfterChild@ioWnd@@MAEXXZ
	DD	FLAT:?OnProcess@ioWnd@@MAEXM@Z
	DD	FLAT:?OnMouseProcess@ioWnd@@MAEXABVioMouse@@@Z
	DD	FLAT:?CheckFrameReSize@ioWnd@@MAEXHHHH@Z
	DD	FLAT:?RenderImageList@ioWnd@@MAEXHHW4UIRenderType@@@Z
	DD	FLAT:?iwm_create@LobbyChatWnd@@UAEXXZ
	DD	FLAT:?iwm_destroy@ioWnd@@UAEXXZ
	DD	FLAT:?iwm_lbuttondown@ioWnd@@UAEXABVioMouse@@@Z
	DD	FLAT:?iwm_lbuttonup@ioWnd@@UAEXABVioMouse@@@Z
	DD	FLAT:?iwm_lbuttonDBLCLK@ioWnd@@UAEXABVioMouse@@@Z
	DD	FLAT:?iwm_rbuttondown@ioWnd@@UAEXABVioMouse@@@Z
	DD	FLAT:?iwm_rbuttonup@ioWnd@@UAEXABVioMouse@@@Z
	DD	FLAT:?iwm_command@LobbyChatWnd@@UAEXPAVioWnd@@HK@Z
	DD	FLAT:?iwm_mouseover@ioWnd@@UAEXABVioMouse@@@Z
	DD	FLAT:?iwm_mousemove@ioWnd@@UAEXABVioMouse@@@Z
	DD	FLAT:?iwm_mouseleave@ioWnd@@UAEXABVioMouse@@@Z
	DD	FLAT:?iwm_vscroll@ioWnd@@UAEXKH@Z
	DD	FLAT:?iwm_wheel@ioWnd@@UAEXH@Z
	DD	FLAT:?iwm_show@LobbyChatWnd@@UAEXXZ
	DD	FLAT:?iwm_hide@LobbyChatWnd@@UAEXXZ
	DD	FLAT:?iwm_esc@LobbyChatWnd@@UAE_NXZ
	DD	FLAT:?iwm_spacebar@ioWnd@@UAE_NXZ
	DD	FLAT:?iwm_gototop@ioWnd@@UAEXXZ
	DD	FLAT:?iwm_dragenter@ioWnd@@UAE?AW4IWDropEffect@@PAVioDragItem@@ABVioMouse@@@Z
	DD	FLAT:?iwm_dragover@ioWnd@@UAE?AW4IWDropEffect@@PAVioDragItem@@ABVioMouse@@@Z
	DD	FLAT:?iwm_dragleave@ioWnd@@UAEXXZ
	DD	FLAT:?iwm_dropitem@ioWnd@@UAE_NPAVioDragItem@@ABVioMouse@@PAV1@@Z
	DD	FLAT:?iwm_dropdone@ioWnd@@UAEXPAVioDragItem@@PAV1@_N@Z
	DD	FLAT:?IsEXType@ioWnd@@UBE_NXZ
	DD	FLAT:?GetWndType@ioWnd@@UBEKXZ
	DD	FLAT:?RenderWnd@ioWnd@@UAEXXZ
	DD	FLAT:?SetIDEX@ioWnd@@UAEXAAK_N@Z
	DD	FLAT:?ParseXML@ioWnd@@UAEXAAVioXMLElement@@@Z
	DD	FLAT:?GetHeaderFileName@ioWnd@@UAEPBDXZ
	DD	FLAT:?GetTemplateName@ioWnd@@UAEPBDXZ
	DD	FLAT:?GetDefClassName@ioWnd@@UBEPBDXZ
	DD	FLAT:?_Clone@ioWnd@@UAEPAV1@XZ
	DD	FLAT:?Copy@ioWnd@@UAEXPAV1@@Z
	DD	FLAT:?Save@ioWnd@@UAE_NAAVioXMLElement@@@Z
	DD	FLAT:?SetSaveData@ioWnd@@UAEXAAVioXMLElement@@@Z
	DD	FLAT:?SetPosX@ioWnd@@UAEXH@Z
	DD	FLAT:?SetPosY@ioWnd@@UAEXH@Z
	DD	FLAT:?SetWidth@ioWnd@@UAEXH@Z
	DD	FLAT:?SetHeight@ioWnd@@UAEXH@Z
	DD	FLAT:?GetNumFixedRenderFrame@ioWnd@@UBEHXZ
	DD	FLAT:?GetFixedRenderFrameType@ioWnd@@UAEPBDH@Z
	DD	FLAT:?GetRenderFrame@ioWnd@@UAEPAPAVioUIRenderElement@@PBD@Z
	DD	FLAT:?GetNumFixedRenderImage@ioWnd@@UBEHXZ
	DD	FLAT:?GetFixedRenderImageType@ioWnd@@UAEPBDH@Z
	DD	FLAT:?GetRenderImage@ioWnd@@UAEPAPAVioUIRenderElement@@PBD@Z
	DD	FLAT:?AddEffect@ioWnd@@UAEXABVioHashString@@PAVioUI3DEffectRender@@@Z
	DD	FLAT:?GetEffect@ioWnd@@UAEPAVioUI3DEffectRender@@VioHashString@@@Z
	DD	FLAT:??_ELobbyChatWnd@@UAEPAXI@Z
CONST	ENDS
;	COMDAT xdata$x
xdata$x	SEGMENT
__unwindtable$??0LobbyChatWnd@@QAE@XZ DD 0ffffffffH
	DD	FLAT:__unwindfunclet$??0LobbyChatWnd@@QAE@XZ$0
__ehfuncinfo$??0LobbyChatWnd@@QAE@XZ DD 019930522H
	DD	01H
	DD	FLAT:__unwindtable$??0LobbyChatWnd@@QAE@XZ
	DD	2 DUP(00H)
	DD	2 DUP(00H)
	DD	00H
	DD	01H
; Function compile flags: /Ogsp
xdata$x	ENDS
;	COMDAT ??0LobbyChatWnd@@QAE@XZ
_TEXT	SEGMENT
_this$ = -16						; size = 4
__$EHRec$ = -12						; size = 12
??0LobbyChatWnd@@QAE@XZ PROC				; LobbyChatWnd::LobbyChatWnd, COMDAT
; _this$ = ecx

; 1266 : {

  00000	6a 04		 push	 4
  00002	b8 00 00 00 00	 mov	 eax, __ehhandler$??0LobbyChatWnd@@QAE@XZ
  00007	e8 00 00 00 00	 call	 __EH_prolog3
  0000c	8b f1		 mov	 esi, ecx
  0000e	89 75 f0	 mov	 DWORD PTR _this$[ebp], esi
  00011	ff 15 00 00 00
	00		 call	 DWORD PTR __imp_??0ioWnd@@QAE@XZ
  00017	83 65 fc 00	 and	 DWORD PTR __$EHRec$[ebp+8], 0
  0001b	8d 8e 60 01 00
	00		 lea	 ecx, DWORD PTR [esi+352]
  00021	c7 06 00 00 00
	00		 mov	 DWORD PTR [esi], OFFSET ??_7LobbyChatWnd@@6B@
  00027	ff 15 00 00 00
	00		 call	 DWORD PTR __imp_??0ioHashString@@QAE@XZ

; 1267 : }

  0002d	8b c6		 mov	 eax, esi
  0002f	e8 00 00 00 00	 call	 __EH_epilog3
  00034	c3		 ret	 0
_TEXT	ENDS
;	COMDAT text$x
text$x	SEGMENT
__unwindfunclet$??0LobbyChatWnd@@QAE@XZ$0:
  00000	8b 4d f0	 mov	 ecx, DWORD PTR _this$[ebp]
  00003	ff 25 00 00 00
	00		 jmp	 DWORD PTR __imp_??1ioWnd@@UAE@XZ
__ehhandler$??0LobbyChatWnd@@QAE@XZ:
  00009	8b 54 24 08	 mov	 edx, DWORD PTR [esp+8]
  0000d	8d 42 0c	 lea	 eax, DWORD PTR [edx+12]
  00010	8b 4a ec	 mov	 ecx, DWORD PTR [edx-20]
  00013	33 c8		 xor	 ecx, eax
  00015	e8 00 00 00 00	 call	 @__security_check_cookie@4
  0001a	b8 00 00 00 00	 mov	 eax, OFFSET __ehfuncinfo$??0LobbyChatWnd@@QAE@XZ
  0001f	e9 00 00 00 00	 jmp	 ___CxxFrameHandler3
text$x	ENDS
??0LobbyChatWnd@@QAE@XZ ENDP				; LobbyChatWnd::LobbyChatWnd
PUBLIC	??1LobbyChatWnd@@UAE@XZ				; LobbyChatWnd::~LobbyChatWnd
EXTRN	__imp_??1ioHashString@@QAE@XZ:PROC
;	COMDAT xdata$x
xdata$x	SEGMENT
__unwindtable$??1LobbyChatWnd@@UAE@XZ DD 0ffffffffH
	DD	FLAT:__unwindfunclet$??1LobbyChatWnd@@UAE@XZ$0
__ehfuncinfo$??1LobbyChatWnd@@UAE@XZ DD 019930522H
	DD	01H
	DD	FLAT:__unwindtable$??1LobbyChatWnd@@UAE@XZ
	DD	2 DUP(00H)
	DD	2 DUP(00H)
	DD	00H
	DD	01H
; Function compile flags: /Ogsp
xdata$x	ENDS
;	COMDAT ??1LobbyChatWnd@@UAE@XZ
_TEXT	SEGMENT
_this$ = -16						; size = 4
__$EHRec$ = -12						; size = 12
??1LobbyChatWnd@@UAE@XZ PROC				; LobbyChatWnd::~LobbyChatWnd, COMDAT
; _this$ = ecx

; 1270 : {

  00000	6a 04		 push	 4
  00002	b8 00 00 00 00	 mov	 eax, __ehhandler$??1LobbyChatWnd@@UAE@XZ
  00007	e8 00 00 00 00	 call	 __EH_prolog3
  0000c	8b f1		 mov	 esi, ecx
  0000e	89 75 f0	 mov	 DWORD PTR _this$[ebp], esi
  00011	c7 06 00 00 00
	00		 mov	 DWORD PTR [esi], OFFSET ??_7LobbyChatWnd@@6B@
  00017	83 65 fc 00	 and	 DWORD PTR __$EHRec$[ebp+8], 0

; 1271 : }

  0001b	8d 8e 60 01 00
	00		 lea	 ecx, DWORD PTR [esi+352]
  00021	ff 15 00 00 00
	00		 call	 DWORD PTR __imp_??1ioHashString@@QAE@XZ
  00027	83 4d fc ff	 or	 DWORD PTR __$EHRec$[ebp+8], -1
  0002b	8b ce		 mov	 ecx, esi
  0002d	ff 15 00 00 00
	00		 call	 DWORD PTR __imp_??1ioWnd@@UAE@XZ
  00033	e8 00 00 00 00	 call	 __EH_epilog3
  00038	c3		 ret	 0
_TEXT	ENDS
;	COMDAT text$x
text$x	SEGMENT
__unwindfunclet$??1LobbyChatWnd@@UAE@XZ$0:
  00000	8b 4d f0	 mov	 ecx, DWORD PTR _this$[ebp]
  00003	ff 25 00 00 00
	00		 jmp	 DWORD PTR __imp_??1ioWnd@@UAE@XZ
__ehhandler$??1LobbyChatWnd@@UAE@XZ:
  00009	8b 54 24 08	 mov	 edx, DWORD PTR [esp+8]
  0000d	8d 42 0c	 lea	 eax, DWORD PTR [edx+12]
  00010	8b 4a ec	 mov	 ecx, DWORD PTR [edx-20]
  00013	33 c8		 xor	 ecx, eax
  00015	e8 00 00 00 00	 call	 @__security_check_cookie@4
  0001a	b8 00 00 00 00	 mov	 eax, OFFSET __ehfuncinfo$??1LobbyChatWnd@@UAE@XZ
  0001f	e9 00 00 00 00	 jmp	 ___CxxFrameHandler3
text$x	ENDS
??1LobbyChatWnd@@UAE@XZ ENDP				; LobbyChatWnd::~LobbyChatWnd
PUBLIC	??_R0?AVGameChatInput@@@8			; GameChatInput `RTTI Type Descriptor'
PUBLIC	?SetPlayStage@LobbyChatWnd@@QAEXPAVioPlayStage@@@Z ; LobbyChatWnd::SetPlayStage
EXTRN	?SetChatTypeToBtn@GameChatInput@@QAEXW4ChatType@@@Z:PROC ; GameChatInput::SetChatTypeToBtn
EXTRN	?SetPlayStage@GameChatInput@@QAEXPAVioPlayStage@@@Z:PROC ; GameChatInput::SetPlayStage
;	COMDAT ??_R0?AVGameChatInput@@@8
_DATA	SEGMENT
??_R0?AVGameChatInput@@@8 DD FLAT:??_7type_info@@6B@	; GameChatInput `RTTI Type Descriptor'
	DD	00H
	DB	'.?AVGameChatInput@@', 00H
; Function compile flags: /Ogsp
_DATA	ENDS
;	COMDAT ?SetPlayStage@LobbyChatWnd@@QAEXPAVioPlayStage@@@Z
_TEXT	SEGMENT
_pPlayStage$ = 8					; size = 4
?SetPlayStage@LobbyChatWnd@@QAEXPAVioPlayStage@@@Z PROC	; LobbyChatWnd::SetPlayStage, COMDAT
; _this$ = ecx

; 1274 : {

  00000	55		 push	 ebp
  00001	8b ec		 mov	 ebp, esp
  00003	56		 push	 esi

; 1275 : 	GameChatInput *pGameChatInput = dynamic_cast<GameChatInput*>(FindChildWnd( ID_CHAT_INPUT_WND ));

  00004	6a 00		 push	 0
  00006	68 00 00 00 00	 push	 OFFSET ??_R0?AVGameChatInput@@@8
  0000b	68 00 00 00 00	 push	 OFFSET ??_R0?AVioWnd@@@8
  00010	6a 00		 push	 0
  00012	6a 02		 push	 2
  00014	ff 15 00 00 00
	00		 call	 DWORD PTR __imp_?FindChildWnd@ioWnd@@QAEPAV1@K@Z
  0001a	50		 push	 eax
  0001b	e8 00 00 00 00	 call	 ___RTDynamicCast
  00020	8b f0		 mov	 esi, eax
  00022	83 c4 14	 add	 esp, 20			; 00000014H

; 1276 : 	if( pGameChatInput )

  00025	85 f6		 test	 esi, esi
  00027	74 13		 je	 SHORT $LN1@SetPlaySta

; 1277 : 	{
; 1278 : 		pGameChatInput->SetPlayStage( pPlayStage );

  00029	ff 75 08	 push	 DWORD PTR _pPlayStage$[ebp]
  0002c	8b ce		 mov	 ecx, esi
  0002e	e8 00 00 00 00	 call	 ?SetPlayStage@GameChatInput@@QAEXPAVioPlayStage@@@Z ; GameChatInput::SetPlayStage

; 1279 : 		pGameChatInput->SetChatTypeToBtn( CT_SERVER_LOBBY );

  00033	6a 06		 push	 6
  00035	8b ce		 mov	 ecx, esi
  00037	e8 00 00 00 00	 call	 ?SetChatTypeToBtn@GameChatInput@@QAEXW4ChatType@@@Z ; GameChatInput::SetChatTypeToBtn
$LN1@SetPlaySta:
  0003c	5e		 pop	 esi

; 1280 : 	}
; 1281 : }

  0003d	5d		 pop	 ebp
  0003e	c2 04 00	 ret	 4
?SetPlayStage@LobbyChatWnd@@QAEXPAVioPlayStage@@@Z ENDP	; LobbyChatWnd::SetPlayStage
; Function compile flags: /Ogsp
_TEXT	ENDS
;	COMDAT ?iwm_create@LobbyChatWnd@@UAEXXZ
_TEXT	SEGMENT
?iwm_create@LobbyChatWnd@@UAEXXZ PROC			; LobbyChatWnd::iwm_create, COMDAT
; _this$ = ecx

; 1285 : }

  00000	c3		 ret	 0
?iwm_create@LobbyChatWnd@@UAEXXZ ENDP			; LobbyChatWnd::iwm_create
_TEXT	ENDS
EXTRN	?SetMsgWndFeature@ioSP2ChatManager@@QAEXK@Z:PROC ; ioSP2ChatManager::SetMsgWndFeature
EXTRN	?SetFirstChatTypeToBtn@GameChatInput@@QAEXW4ChatType@@@Z:PROC ; GameChatInput::SetFirstChatTypeToBtn
EXTRN	__imp_?ShowChildWnd@ioWnd@@QAEXK_N@Z:PROC
EXTRN	?LoadChatInfo@ioSP2ChatManager@@QAEXABVioHashString@@@Z:PROC ; ioSP2ChatManager::LoadChatInfo
EXTRN	?GetSingleton@ioSP2ChatManager@@SAAAV1@XZ:PROC	; ioSP2ChatManager::GetSingleton
EXTRN	__imp_?HideWnd@ioGUIManager@@QAEXK_N@Z:PROC
; Function compile flags: /Ogsp
;	COMDAT ?iwm_show@LobbyChatWnd@@UAEXXZ
_TEXT	SEGMENT
?iwm_show@LobbyChatWnd@@UAEXXZ PROC			; LobbyChatWnd::iwm_show, COMDAT
; _this$ = ecx

; 1293 : {

  00000	53		 push	 ebx
  00001	56		 push	 esi
  00002	57		 push	 edi

; 1294 : 	g_GUIMgr.HideWnd( GLOBAL_CHAT_WND );

  00003	33 db		 xor	 ebx, ebx
  00005	53		 push	 ebx
  00006	68 8f 17 00 00	 push	 6031			; 0000178fH
  0000b	8b f9		 mov	 edi, ecx
  0000d	e8 00 00 00 00	 call	 ?GetSingleton@ioSP2GUIManager@@SAAAV1@XZ ; ioSP2GUIManager::GetSingleton
  00012	8b c8		 mov	 ecx, eax
  00014	ff 15 00 00 00
	00		 call	 DWORD PTR __imp_?HideWnd@ioGUIManager@@QAEXK_N@Z

; 1295 : 
; 1296 : 	g_ChatMgr.LoadChatInfo( m_szLoadInfo );

  0001a	8d 87 60 01 00
	00		 lea	 eax, DWORD PTR [edi+352]
  00020	50		 push	 eax
  00021	e8 00 00 00 00	 call	 ?GetSingleton@ioSP2ChatManager@@SAAAV1@XZ ; ioSP2ChatManager::GetSingleton
  00026	8b c8		 mov	 ecx, eax
  00028	e8 00 00 00 00	 call	 ?LoadChatInfo@ioSP2ChatManager@@QAEXABVioHashString@@@Z ; ioSP2ChatManager::LoadChatInfo

; 1297 : 
; 1298 : 	ShowChildWnd( ID_CHAT_MSG_WND );

  0002d	8b 35 00 00 00
	00		 mov	 esi, DWORD PTR __imp_?ShowChildWnd@ioWnd@@QAEXK_N@Z
  00033	53		 push	 ebx
  00034	6a 01		 push	 1
  00036	8b cf		 mov	 ecx, edi
  00038	ff d6		 call	 esi

; 1299 : 	ShowChildWnd( ID_CHAT_INPUT_WND );

  0003a	53		 push	 ebx
  0003b	6a 02		 push	 2
  0003d	8b cf		 mov	 ecx, edi
  0003f	ff d6		 call	 esi

; 1300 : 
; 1301 : 	GameChatInput *pGameChatInput = dynamic_cast<GameChatInput*>(FindChildWnd( ID_CHAT_INPUT_WND ));

  00041	53		 push	 ebx
  00042	68 00 00 00 00	 push	 OFFSET ??_R0?AVGameChatInput@@@8
  00047	68 00 00 00 00	 push	 OFFSET ??_R0?AVioWnd@@@8
  0004c	53		 push	 ebx
  0004d	6a 02		 push	 2
  0004f	8b cf		 mov	 ecx, edi
  00051	ff 15 00 00 00
	00		 call	 DWORD PTR __imp_?FindChildWnd@ioWnd@@QAEPAV1@K@Z
  00057	50		 push	 eax
  00058	e8 00 00 00 00	 call	 ___RTDynamicCast
  0005d	83 c4 14	 add	 esp, 20			; 00000014H

; 1302 : 	if( pGameChatInput )

  00060	3b c3		 cmp	 eax, ebx
  00062	74 09		 je	 SHORT $LN1@iwm_show

; 1303 : 	{
; 1304 : 		pGameChatInput->SetFirstChatTypeToBtn( CT_SERVER_LOBBY );

  00064	6a 06		 push	 6
  00066	8b c8		 mov	 ecx, eax
  00068	e8 00 00 00 00	 call	 ?SetFirstChatTypeToBtn@GameChatInput@@QAEXW4ChatType@@@Z ; GameChatInput::SetFirstChatTypeToBtn
$LN1@iwm_show:

; 1305 : 	}
; 1306 : 
; 1307 : 	g_ChatMgr.SetMsgWndFeature( 0 );

  0006d	53		 push	 ebx
  0006e	e8 00 00 00 00	 call	 ?GetSingleton@ioSP2ChatManager@@SAAAV1@XZ ; ioSP2ChatManager::GetSingleton
  00073	8b c8		 mov	 ecx, eax
  00075	e8 00 00 00 00	 call	 ?SetMsgWndFeature@ioSP2ChatManager@@QAEXK@Z ; ioSP2ChatManager::SetMsgWndFeature
  0007a	5f		 pop	 edi
  0007b	5e		 pop	 esi
  0007c	5b		 pop	 ebx

; 1308 : }

  0007d	c3		 ret	 0
?iwm_show@LobbyChatWnd@@UAEXXZ ENDP			; LobbyChatWnd::iwm_show
_TEXT	ENDS
EXTRN	__imp_?HideChildWnd@ioWnd@@QAEXK_N@Z:PROC
; Function compile flags: /Ogsp
;	COMDAT ?iwm_hide@LobbyChatWnd@@UAEXXZ
_TEXT	SEGMENT
?iwm_hide@LobbyChatWnd@@UAEXXZ PROC			; LobbyChatWnd::iwm_hide, COMDAT
; _this$ = ecx

; 1311 : {

  00000	56		 push	 esi

; 1312 : 	HideChildWnd( ID_CHAT_MSG_WND );

  00001	8b 35 00 00 00
	00		 mov	 esi, DWORD PTR __imp_?HideChildWnd@ioWnd@@QAEXK_N@Z
  00007	57		 push	 edi
  00008	6a 00		 push	 0
  0000a	6a 01		 push	 1
  0000c	8b f9		 mov	 edi, ecx
  0000e	ff d6		 call	 esi

; 1313 : 	HideChildWnd( ID_CHAT_INPUT_WND );

  00010	6a 00		 push	 0
  00012	6a 02		 push	 2
  00014	8b cf		 mov	 ecx, edi
  00016	ff d6		 call	 esi
  00018	5f		 pop	 edi
  00019	5e		 pop	 esi

; 1314 : }

  0001a	c3		 ret	 0
?iwm_hide@LobbyChatWnd@@UAEXXZ ENDP			; LobbyChatWnd::iwm_hide
; Function compile flags: /Ogsp
_TEXT	ENDS
;	COMDAT ?iwm_esc@LobbyChatWnd@@UAE_NXZ
_TEXT	SEGMENT
?iwm_esc@LobbyChatWnd@@UAE_NXZ PROC			; LobbyChatWnd::iwm_esc, COMDAT
; _this$ = ecx

; 1318 : 	GameChatInput *pGameChatInput = dynamic_cast<GameChatInput*>(FindChildWnd( ID_CHAT_INPUT_WND ));

  00000	6a 00		 push	 0
  00002	68 00 00 00 00	 push	 OFFSET ??_R0?AVGameChatInput@@@8
  00007	68 00 00 00 00	 push	 OFFSET ??_R0?AVioWnd@@@8
  0000c	6a 00		 push	 0
  0000e	6a 02		 push	 2
  00010	ff 15 00 00 00
	00		 call	 DWORD PTR __imp_?FindChildWnd@ioWnd@@QAEPAV1@K@Z
  00016	50		 push	 eax
  00017	e8 00 00 00 00	 call	 ___RTDynamicCast
  0001c	83 c4 14	 add	 esp, 20			; 00000014H

; 1319 : 	if( pGameChatInput )

  0001f	85 c0		 test	 eax, eax
  00021	74 0a		 je	 SHORT $LN1@iwm_esc

; 1320 : 		return pGameChatInput->iwm_esc();

  00023	8b 10		 mov	 edx, DWORD PTR [eax]
  00025	8b c8		 mov	 ecx, eax
  00027	ff a2 ac 00 00
	00		 jmp	 DWORD PTR [edx+172]
$LN1@iwm_esc:

; 1321 : 	return false;

  0002d	32 c0		 xor	 al, al

; 1322 : }

  0002f	c3		 ret	 0
?iwm_esc@LobbyChatWnd@@UAE_NXZ ENDP			; LobbyChatWnd::iwm_esc
_TEXT	ENDS
PUBLIC	??_R0?AVChatMsgWnd@@@8				; ChatMsgWnd `RTTI Type Descriptor'
EXTRN	?InitScrollPos@ChatMsgWnd@@QAEXXZ:PROC		; ChatMsgWnd::InitScrollPos
EXTRN	__imp_?GetID@ioWnd@@QBEKXZ:PROC
;	COMDAT ??_R0?AVChatMsgWnd@@@8
_DATA	SEGMENT
??_R0?AVChatMsgWnd@@@8 DD FLAT:??_7type_info@@6B@	; ChatMsgWnd `RTTI Type Descriptor'
	DD	00H
	DB	'.?AVChatMsgWnd@@', 00H
; Function compile flags: /Ogsp
_DATA	ENDS
;	COMDAT ?iwm_command@LobbyChatWnd@@UAEXPAVioWnd@@HK@Z
_TEXT	SEGMENT
_pWnd$ = 8						; size = 4
_cmd$ = 12						; size = 4
_param$ = 16						; size = 4
?iwm_command@LobbyChatWnd@@UAEXPAVioWnd@@HK@Z PROC	; LobbyChatWnd::iwm_command, COMDAT
; _this$ = ecx

; 1325 : {

  00000	55		 push	 ebp
  00001	8b ec		 mov	 ebp, esp
  00003	56		 push	 esi
  00004	8b f1		 mov	 esi, ecx

; 1326 : 	DWORD dwID = pWnd->GetID();

  00006	8b 4d 08	 mov	 ecx, DWORD PTR _pWnd$[ebp]
  00009	ff 15 00 00 00
	00		 call	 DWORD PTR __imp_?GetID@ioWnd@@QBEKXZ

; 1327 : 	switch( dwID )

  0000f	48		 dec	 eax
  00010	48		 dec	 eax
  00011	75 30		 jne	 SHORT $LN1@iwm_comman

; 1328 : 	{
; 1329 : 	case ID_CHAT_INPUT_WND:
; 1330 : 		if( cmd == IOBN_BTNUP )

  00013	83 7d 0c 11	 cmp	 DWORD PTR _cmd$[ebp], 17 ; 00000011H
  00017	75 2a		 jne	 SHORT $LN1@iwm_comman

; 1331 : 		{
; 1332 : 			ChatMsgWnd *pChatWnd = dynamic_cast<ChatMsgWnd*>( FindChildWnd( ID_CHAT_MSG_WND ) );

  00019	50		 push	 eax
  0001a	68 00 00 00 00	 push	 OFFSET ??_R0?AVChatMsgWnd@@@8
  0001f	68 00 00 00 00	 push	 OFFSET ??_R0?AVioWnd@@@8
  00024	50		 push	 eax
  00025	6a 01		 push	 1
  00027	8b ce		 mov	 ecx, esi
  00029	ff 15 00 00 00
	00		 call	 DWORD PTR __imp_?FindChildWnd@ioWnd@@QAEPAV1@K@Z
  0002f	50		 push	 eax
  00030	e8 00 00 00 00	 call	 ___RTDynamicCast
  00035	83 c4 14	 add	 esp, 20			; 00000014H

; 1333 : 			if( pChatWnd )

  00038	85 c0		 test	 eax, eax
  0003a	74 07		 je	 SHORT $LN1@iwm_comman

; 1334 : 			{
; 1335 : 				pChatWnd->InitScrollPos();

  0003c	8b c8		 mov	 ecx, eax
  0003e	e8 00 00 00 00	 call	 ?InitScrollPos@ChatMsgWnd@@QAEXXZ ; ChatMsgWnd::InitScrollPos
$LN1@iwm_comman:
  00043	5e		 pop	 esi

; 1336 : 			}
; 1337 : 		}
; 1338 : 		break;
; 1339 : 	}
; 1340 : }

  00044	5d		 pop	 ebp
  00045	c2 0c 00	 ret	 12			; 0000000cH
?iwm_command@LobbyChatWnd@@UAEXPAVioWnd@@HK@Z ENDP	; LobbyChatWnd::iwm_command
_TEXT	ENDS
PUBLIC	??_7LobbyMainWnd@@6B@				; LobbyMainWnd::`vftable'
PUBLIC	??0LobbyMainWnd@@QAE@XZ				; LobbyMainWnd::LobbyMainWnd
PUBLIC	??_R4LobbyMainWnd@@6B@				; LobbyMainWnd::`RTTI Complete Object Locator'
PUBLIC	??_R0?AVLobbyMainWnd@@@8			; LobbyMainWnd `RTTI Type Descriptor'
PUBLIC	??_R3LobbyMainWnd@@8				; LobbyMainWnd::`RTTI Class Hierarchy Descriptor'
PUBLIC	??_R2LobbyMainWnd@@8				; LobbyMainWnd::`RTTI Base Class Array'
PUBLIC	??_R1A@?0A@EA@LobbyMainWnd@@8			; LobbyMainWnd::`RTTI Base Class Descriptor at (0,-1,0,64)'
PUBLIC	??_R1A@?0A@EA@ioMovingWnd@@8			; ioMovingWnd::`RTTI Base Class Descriptor at (0,-1,0,64)'
PUBLIC	??_R0?AVioMovingWnd@@@8				; ioMovingWnd `RTTI Type Descriptor'
PUBLIC	??_R3ioMovingWnd@@8				; ioMovingWnd::`RTTI Class Hierarchy Descriptor'
PUBLIC	??_R2ioMovingWnd@@8				; ioMovingWnd::`RTTI Base Class Array'
PUBLIC	?ParseExtraInfo@LobbyMainWnd@@UAEXAAVioXMLElement@@@Z ; LobbyMainWnd::ParseExtraInfo
PUBLIC	?SetPositionToDefault@LobbyMainWnd@@UAEXHH_N0@Z	; LobbyMainWnd::SetPositionToDefault
PUBLIC	?OnRender@LobbyMainWnd@@MAEXXZ			; LobbyMainWnd::OnRender
PUBLIC	?OnProcess@LobbyMainWnd@@MAEXM@Z		; LobbyMainWnd::OnProcess
PUBLIC	?iwm_create@LobbyMainWnd@@UAEXXZ		; LobbyMainWnd::iwm_create
PUBLIC	?iwm_command@LobbyMainWnd@@UAEXPAVioWnd@@HK@Z	; LobbyMainWnd::iwm_command
PUBLIC	?iwm_show@LobbyMainWnd@@UAEXXZ			; LobbyMainWnd::iwm_show
PUBLIC	?iwm_hide@LobbyMainWnd@@UAEXXZ			; LobbyMainWnd::iwm_hide
PUBLIC	?iwm_esc@LobbyMainWnd@@UAE_NXZ			; LobbyMainWnd::iwm_esc
EXTRN	??_M@YGXPAXIHP6EX0@Z@Z:PROC			; `eh vector destructor iterator'
EXTRN	__imp_??1ioMovingWnd@@UAE@XZ:PROC
EXTRN	??_L@YGXPAXIHP6EX0@Z1@Z:PROC			; `eh vector constructor iterator'
EXTRN	??0ioComplexStringPrinter@@QAE@XZ:PROC		; ioComplexStringPrinter::ioComplexStringPrinter
EXTRN	??1ioComplexStringPrinter@@QAE@XZ:PROC		; ioComplexStringPrinter::~ioComplexStringPrinter
EXTRN	__imp_??0ioMovingWnd@@QAE@XZ:PROC
EXTRN	?OnMouseProcess@ioMovingWnd@@MAEXABVioMouse@@@Z:PROC ; ioMovingWnd::OnMouseProcess
EXTRN	?iwm_lbuttondown@ioMovingWnd@@UAEXABVioMouse@@@Z:PROC ; ioMovingWnd::iwm_lbuttondown
EXTRN	?iwm_lbuttonup@ioMovingWnd@@UAEXABVioMouse@@@Z:PROC ; ioMovingWnd::iwm_lbuttonup
EXTRN	??_ELobbyMainWnd@@UAEPAXI@Z:PROC		; LobbyMainWnd::`vector deleting destructor'
;	COMDAT ??_R2ioMovingWnd@@8
rdata$r	SEGMENT
??_R2ioMovingWnd@@8 DD FLAT:??_R1A@?0A@EA@ioMovingWnd@@8 ; ioMovingWnd::`RTTI Base Class Array'
	DD	FLAT:??_R1A@?0A@EA@ioWnd@@8
rdata$r	ENDS
;	COMDAT ??_R3ioMovingWnd@@8
rdata$r	SEGMENT
??_R3ioMovingWnd@@8 DD 00H				; ioMovingWnd::`RTTI Class Hierarchy Descriptor'
	DD	00H
	DD	02H
	DD	FLAT:??_R2ioMovingWnd@@8
rdata$r	ENDS
;	COMDAT ??_R0?AVioMovingWnd@@@8
_DATA	SEGMENT
??_R0?AVioMovingWnd@@@8 DD FLAT:??_7type_info@@6B@	; ioMovingWnd `RTTI Type Descriptor'
	DD	00H
	DB	'.?AVioMovingWnd@@', 00H
_DATA	ENDS
;	COMDAT ??_R1A@?0A@EA@ioMovingWnd@@8
rdata$r	SEGMENT
??_R1A@?0A@EA@ioMovingWnd@@8 DD FLAT:??_R0?AVioMovingWnd@@@8 ; ioMovingWnd::`RTTI Base Class Descriptor at (0,-1,0,64)'
	DD	01H
	DD	00H
	DD	0ffffffffH
	DD	00H
	DD	040H
	DD	FLAT:??_R3ioMovingWnd@@8
rdata$r	ENDS
;	COMDAT ??_R1A@?0A@EA@LobbyMainWnd@@8
rdata$r	SEGMENT
??_R1A@?0A@EA@LobbyMainWnd@@8 DD FLAT:??_R0?AVLobbyMainWnd@@@8 ; LobbyMainWnd::`RTTI Base Class Descriptor at (0,-1,0,64)'
	DD	02H
	DD	00H
	DD	0ffffffffH
	DD	00H
	DD	040H
	DD	FLAT:??_R3LobbyMainWnd@@8
rdata$r	ENDS
;	COMDAT ??_R2LobbyMainWnd@@8
rdata$r	SEGMENT
??_R2LobbyMainWnd@@8 DD FLAT:??_R1A@?0A@EA@LobbyMainWnd@@8 ; LobbyMainWnd::`RTTI Base Class Array'
	DD	FLAT:??_R1A@?0A@EA@ioMovingWnd@@8
	DD	FLAT:??_R1A@?0A@EA@ioWnd@@8
rdata$r	ENDS
;	COMDAT ??_R3LobbyMainWnd@@8
rdata$r	SEGMENT
??_R3LobbyMainWnd@@8 DD 00H				; LobbyMainWnd::`RTTI Class Hierarchy Descriptor'
	DD	00H
	DD	03H
	DD	FLAT:??_R2LobbyMainWnd@@8
rdata$r	ENDS
;	COMDAT ??_R0?AVLobbyMainWnd@@@8
_DATA	SEGMENT
??_R0?AVLobbyMainWnd@@@8 DD FLAT:??_7type_info@@6B@	; LobbyMainWnd `RTTI Type Descriptor'
	DD	00H
	DB	'.?AVLobbyMainWnd@@', 00H
_DATA	ENDS
;	COMDAT ??_R4LobbyMainWnd@@6B@
rdata$r	SEGMENT
??_R4LobbyMainWnd@@6B@ DD 00H				; LobbyMainWnd::`RTTI Complete Object Locator'
	DD	00H
	DD	00H
	DD	FLAT:??_R0?AVLobbyMainWnd@@@8
	DD	FLAT:??_R3LobbyMainWnd@@8
rdata$r	ENDS
;	COMDAT ??_7LobbyMainWnd@@6B@
CONST	SEGMENT
??_7LobbyMainWnd@@6B@ DD FLAT:??_R4LobbyMainWnd@@6B@	; LobbyMainWnd::`vftable'
	DD	FLAT:?AddRenderFrame@ioWnd@@UAEXABVioHashString@@PAVioUIRenderFrame@@@Z
	DD	FLAT:?AddRenderImage@ioWnd@@UAEXABVioHashString@@PAVioUIRenderImage@@@Z
	DD	FLAT:?AddTooltipHelp@ioWnd@@UAEXABVioHashString@@00@Z
	DD	FLAT:?ParseExtraInfo@LobbyMainWnd@@UAEXAAVioXMLElement@@@Z
	DD	FLAT:?AddNamedRenderImage@ioWnd@@UAEXABVioHashString@@PAVioUIRenderImage@@@Z
	DD	FLAT:?RemoveNamedRenderImage@ioWnd@@UAEXABVioHashString@@@Z
	DD	FLAT:?GetNamedRenderImage@ioWnd@@UBEPAVioUIRenderImage@@ABVioHashString@@@Z
	DD	FLAT:?SetWindowAlpha@ioWnd@@UAEXH@Z
	DD	FLAT:?SetActive@ioWnd@@UAEXXZ
	DD	FLAT:?SetInActive@ioWnd@@UAEXXZ
	DD	FLAT:?ClearElementImageList@ioWnd@@UAEXXZ
	DD	FLAT:?SetSize@ioWnd@@UAEXHH@Z
	DD	FLAT:?SetPositionToDefault@LobbyMainWnd@@UAEXHH_N0@Z
	DD	FLAT:?IsNeedProcess@ioWnd@@UBE_NXZ
	DD	FLAT:?IsCanMouseReaction@ioWnd@@UBE_NXZ
	DD	FLAT:?AddChild@ioWnd@@UAEXPAV1@@Z
	DD	FLAT:?DeleteChild@ioWnd@@UAEXK@Z
	DD	FLAT:?DeleteAllChild@ioWnd@@UAEXXZ
	DD	FLAT:?OnRenderShowAndHide@ioWnd@@MAE_NXZ
	DD	FLAT:?OnRenderShowAndHideByDefault@ioWnd@@MAE_NK@Z
	DD	FLAT:?OnRenderShowAndHideByTop@ioWnd@@MAE_NK@Z
	DD	FLAT:?OnRenderShowAndHideByDown@ioWnd@@MAE_NK@Z
	DD	FLAT:?OnRender@LobbyMainWnd@@MAEXXZ
	DD	FLAT:?OnRenderAfterChild@ioWnd@@MAEXXZ
	DD	FLAT:?OnProcess@LobbyMainWnd@@MAEXM@Z
	DD	FLAT:?OnMouseProcess@ioMovingWnd@@MAEXABVioMouse@@@Z
	DD	FLAT:?CheckFrameReSize@ioWnd@@MAEXHHHH@Z
	DD	FLAT:?RenderImageList@ioWnd@@MAEXHHW4UIRenderType@@@Z
	DD	FLAT:?iwm_create@LobbyMainWnd@@UAEXXZ
	DD	FLAT:?iwm_destroy@ioWnd@@UAEXXZ
	DD	FLAT:?iwm_lbuttondown@ioMovingWnd@@UAEXABVioMouse@@@Z
	DD	FLAT:?iwm_lbuttonup@ioMovingWnd@@UAEXABVioMouse@@@Z
	DD	FLAT:?iwm_lbuttonDBLCLK@ioWnd@@UAEXABVioMouse@@@Z
	DD	FLAT:?iwm_rbuttondown@ioWnd@@UAEXABVioMouse@@@Z
	DD	FLAT:?iwm_rbuttonup@ioWnd@@UAEXABVioMouse@@@Z
	DD	FLAT:?iwm_command@LobbyMainWnd@@UAEXPAVioWnd@@HK@Z
	DD	FLAT:?iwm_mouseover@ioWnd@@UAEXABVioMouse@@@Z
	DD	FLAT:?iwm_mousemove@ioWnd@@UAEXABVioMouse@@@Z
	DD	FLAT:?iwm_mouseleave@ioWnd@@UAEXABVioMouse@@@Z
	DD	FLAT:?iwm_vscroll@ioWnd@@UAEXKH@Z
	DD	FLAT:?iwm_wheel@ioWnd@@UAEXH@Z
	DD	FLAT:?iwm_show@LobbyMainWnd@@UAEXXZ
	DD	FLAT:?iwm_hide@LobbyMainWnd@@UAEXXZ
	DD	FLAT:?iwm_esc@LobbyMainWnd@@UAE_NXZ
	DD	FLAT:?iwm_spacebar@ioWnd@@UAE_NXZ
	DD	FLAT:?iwm_gototop@ioWnd@@UAEXXZ
	DD	FLAT:?iwm_dragenter@ioWnd@@UAE?AW4IWDropEffect@@PAVioDragItem@@ABVioMouse@@@Z
	DD	FLAT:?iwm_dragover@ioWnd@@UAE?AW4IWDropEffect@@PAVioDragItem@@ABVioMouse@@@Z
	DD	FLAT:?iwm_dragleave@ioWnd@@UAEXXZ
	DD	FLAT:?iwm_dropitem@ioWnd@@UAE_NPAVioDragItem@@ABVioMouse@@PAV1@@Z
	DD	FLAT:?iwm_dropdone@ioWnd@@UAEXPAVioDragItem@@PAV1@_N@Z
	DD	FLAT:?IsEXType@ioWnd@@UBE_NXZ
	DD	FLAT:?GetWndType@ioWnd@@UBEKXZ
	DD	FLAT:?RenderWnd@ioWnd@@UAEXXZ
	DD	FLAT:?SetIDEX@ioWnd@@UAEXAAK_N@Z
	DD	FLAT:?ParseXML@ioWnd@@UAEXAAVioXMLElement@@@Z
	DD	FLAT:?GetHeaderFileName@ioWnd@@UAEPBDXZ
	DD	FLAT:?GetTemplateName@ioWnd@@UAEPBDXZ
	DD	FLAT:?GetDefClassName@ioWnd@@UBEPBDXZ
	DD	FLAT:?_Clone@ioWnd@@UAEPAV1@XZ
	DD	FLAT:?Copy@ioWnd@@UAEXPAV1@@Z
	DD	FLAT:?Save@ioWnd@@UAE_NAAVioXMLElement@@@Z
	DD	FLAT:?SetSaveData@ioWnd@@UAEXAAVioXMLElement@@@Z
	DD	FLAT:?SetPosX@ioWnd@@UAEXH@Z
	DD	FLAT:?SetPosY@ioWnd@@UAEXH@Z
	DD	FLAT:?SetWidth@ioWnd@@UAEXH@Z
	DD	FLAT:?SetHeight@ioWnd@@UAEXH@Z
	DD	FLAT:?GetNumFixedRenderFrame@ioWnd@@UBEHXZ
	DD	FLAT:?GetFixedRenderFrameType@ioWnd@@UAEPBDH@Z
	DD	FLAT:?GetRenderFrame@ioWnd@@UAEPAPAVioUIRenderElement@@PBD@Z
	DD	FLAT:?GetNumFixedRenderImage@ioWnd@@UBEHXZ
	DD	FLAT:?GetFixedRenderImageType@ioWnd@@UAEPBDH@Z
	DD	FLAT:?GetRenderImage@ioWnd@@UAEPAPAVioUIRenderElement@@PBD@Z
	DD	FLAT:?AddEffect@ioWnd@@UAEXABVioHashString@@PAVioUI3DEffectRender@@@Z
	DD	FLAT:?GetEffect@ioWnd@@UAEPAVioUI3DEffectRender@@VioHashString@@@Z
	DD	FLAT:??_ELobbyMainWnd@@UAEPAXI@Z
CONST	ENDS
;	COMDAT xdata$x
xdata$x	SEGMENT
__unwindtable$??0LobbyMainWnd@@QAE@XZ DD 0ffffffffH
	DD	FLAT:__unwindfunclet$??0LobbyMainWnd@@QAE@XZ$0
	DD	00H
	DD	FLAT:__unwindfunclet$??0LobbyMainWnd@@QAE@XZ$1
__ehfuncinfo$??0LobbyMainWnd@@QAE@XZ DD 019930522H
	DD	02H
	DD	FLAT:__unwindtable$??0LobbyMainWnd@@QAE@XZ
	DD	2 DUP(00H)
	DD	2 DUP(00H)
	DD	00H
	DD	01H
; Function compile flags: /Ogsp
xdata$x	ENDS
;	COMDAT ??0LobbyMainWnd@@QAE@XZ
_TEXT	SEGMENT
_this$ = -16						; size = 4
__$EHRec$ = -12						; size = 12
??0LobbyMainWnd@@QAE@XZ PROC				; LobbyMainWnd::LobbyMainWnd, COMDAT
; _this$ = ecx

; 1343 : {

  00000	6a 04		 push	 4
  00002	b8 00 00 00 00	 mov	 eax, __ehhandler$??0LobbyMainWnd@@QAE@XZ
  00007	e8 00 00 00 00	 call	 __EH_prolog3
  0000c	8b f1		 mov	 esi, ecx
  0000e	89 75 f0	 mov	 DWORD PTR _this$[ebp], esi
  00011	ff 15 00 00 00
	00		 call	 DWORD PTR __imp_??0ioMovingWnd@@QAE@XZ
  00017	68 00 00 00 00	 push	 OFFSET ??1ioComplexStringPrinter@@QAE@XZ ; ioComplexStringPrinter::~ioComplexStringPrinter
  0001c	68 00 00 00 00	 push	 OFFSET ??0ioComplexStringPrinter@@QAE@XZ ; ioComplexStringPrinter::ioComplexStringPrinter
  00021	6a 05		 push	 5
  00023	6a 20		 push	 32			; 00000020H
  00025	8d 86 ac 01 00
	00		 lea	 eax, DWORD PTR [esi+428]
  0002b	33 ff		 xor	 edi, edi
  0002d	50		 push	 eax
  0002e	89 7d fc	 mov	 DWORD PTR __$EHRec$[ebp+8], edi
  00031	c7 06 00 00 00
	00		 mov	 DWORD PTR [esi], OFFSET ??_7LobbyMainWnd@@6B@
  00037	e8 00 00 00 00	 call	 ??_L@YGXPAXIHP6EX0@Z1@Z
  0003c	8d 8e 4c 02 00
	00		 lea	 ecx, DWORD PTR [esi+588]
  00042	c6 45 fc 01	 mov	 BYTE PTR __$EHRec$[ebp+8], 1
  00046	ff 15 00 00 00
	00		 call	 DWORD PTR __imp_??0ioHashString@@QAE@XZ

; 1344 : 	m_pPlayStage  = NULL;

  0004c	89 be 98 01 00
	00		 mov	 DWORD PTR [esi+408], edi

; 1345 : 	m_iDefaultX   = 0;

  00052	89 be 90 01 00
	00		 mov	 DWORD PTR [esi+400], edi

; 1346 : 	m_iDefaultY   = 0;

  00058	89 be 94 01 00
	00		 mov	 DWORD PTR [esi+404], edi

; 1347 : 	m_pModeHelpTooltip  = NULL;

  0005e	89 be 9c 01 00
	00		 mov	 DWORD PTR [esi+412], edi

; 1348 : 	m_pQuickJoinTooltip = NULL;

  00064	89 be a0 01 00
	00		 mov	 DWORD PTR [esi+416], edi

; 1349 : 	m_pNoviceBtn = NULL;

  0006a	89 be a4 01 00
	00		 mov	 DWORD PTR [esi+420], edi

; 1350 : 	m_pEventEff = NULL;

  00070	89 be 5c 02 00
	00		 mov	 DWORD PTR [esi+604], edi

; 1351 : 
; 1352 : 	m_dwBonusCashTooltipCheckStartTime = 0;

  00076	89 be 64 02 00
	00		 mov	 DWORD PTR [esi+612], edi

; 1353 : }

  0007c	8b c6		 mov	 eax, esi
  0007e	e8 00 00 00 00	 call	 __EH_epilog3
  00083	c3		 ret	 0
_TEXT	ENDS
;	COMDAT text$x
text$x	SEGMENT
__unwindfunclet$??0LobbyMainWnd@@QAE@XZ$0:
  00000	8b 4d f0	 mov	 ecx, DWORD PTR _this$[ebp]
  00003	ff 25 00 00 00
	00		 jmp	 DWORD PTR __imp_??1ioMovingWnd@@UAE@XZ
__unwindfunclet$??0LobbyMainWnd@@QAE@XZ$1:
  00009	68 00 00 00 00	 push	 OFFSET ??1ioComplexStringPrinter@@QAE@XZ ; ioComplexStringPrinter::~ioComplexStringPrinter
  0000e	6a 05		 push	 5
  00010	6a 20		 push	 32			; 00000020H
  00012	8b 45 f0	 mov	 eax, DWORD PTR _this$[ebp]
  00015	05 ac 01 00 00	 add	 eax, 428		; 000001acH
  0001a	50		 push	 eax
  0001b	e8 00 00 00 00	 call	 ??_M@YGXPAXIHP6EX0@Z@Z
  00020	c3		 ret	 0
__ehhandler$??0LobbyMainWnd@@QAE@XZ:
  00021	8b 54 24 08	 mov	 edx, DWORD PTR [esp+8]
  00025	8d 42 0c	 lea	 eax, DWORD PTR [edx+12]
  00028	8b 4a ec	 mov	 ecx, DWORD PTR [edx-20]
  0002b	33 c8		 xor	 ecx, eax
  0002d	e8 00 00 00 00	 call	 @__security_check_cookie@4
  00032	b8 00 00 00 00	 mov	 eax, OFFSET __ehfuncinfo$??0LobbyMainWnd@@QAE@XZ
  00037	e9 00 00 00 00	 jmp	 ___CxxFrameHandler3
text$x	ENDS
??0LobbyMainWnd@@QAE@XZ ENDP				; LobbyMainWnd::LobbyMainWnd
PUBLIC	??_C@_04IAEKAMNC@YPos?$AA@			; `string'
PUBLIC	??_C@_04LNCKCFGC@XPos?$AA@			; `string'
PUBLIC	??_C@_0N@IPHCJECP@LobbyMainWnd?$AA@		; `string'
PUBLIC	??1LobbyMainWnd@@UAE@XZ				; LobbyMainWnd::~LobbyMainWnd
EXTRN	?GUIPosSaveInt@ioSP2GUIManager@@QAEHPBD0HH@Z:PROC ; ioSP2GUIManager::GUIPosSaveInt
EXTRN	?Height@Setting@@SAHXZ:PROC			; Setting::Height
EXTRN	?Width@Setting@@SAHXZ:PROC			; Setting::Width
EXTRN	__imp_?StopStream@ioSoundManager@@QAEXXZ:PROC
EXTRN	__imp_?GetSingleton@ioSoundManager@@SAAAV1@XZ:PROC
;	COMDAT ??_C@_04IAEKAMNC@YPos?$AA@
CONST	SEGMENT
??_C@_04IAEKAMNC@YPos?$AA@ DB 'YPos', 00H		; `string'
CONST	ENDS
;	COMDAT ??_C@_04LNCKCFGC@XPos?$AA@
CONST	SEGMENT
??_C@_04LNCKCFGC@XPos?$AA@ DB 'XPos', 00H		; `string'
CONST	ENDS
;	COMDAT ??_C@_0N@IPHCJECP@LobbyMainWnd?$AA@
CONST	SEGMENT
??_C@_0N@IPHCJECP@LobbyMainWnd?$AA@ DB 'LobbyMainWnd', 00H ; `string'
CONST	ENDS
;	COMDAT xdata$x
xdata$x	SEGMENT
__unwindtable$??1LobbyMainWnd@@UAE@XZ DD 0ffffffffH
	DD	FLAT:__unwindfunclet$??1LobbyMainWnd@@UAE@XZ$0
	DD	00H
	DD	FLAT:__unwindfunclet$??1LobbyMainWnd@@UAE@XZ$1
	DD	01H
	DD	FLAT:__unwindfunclet$??1LobbyMainWnd@@UAE@XZ$2
__ehfuncinfo$??1LobbyMainWnd@@UAE@XZ DD 019930522H
	DD	03H
	DD	FLAT:__unwindtable$??1LobbyMainWnd@@UAE@XZ
	DD	2 DUP(00H)
	DD	2 DUP(00H)
	DD	00H
	DD	01H
; Function compile flags: /Ogsp
xdata$x	ENDS
;	COMDAT ??1LobbyMainWnd@@UAE@XZ
_TEXT	SEGMENT
_this$ = -16						; size = 4
__$EHRec$ = -12						; size = 12
??1LobbyMainWnd@@UAE@XZ PROC				; LobbyMainWnd::~LobbyMainWnd, COMDAT
; _this$ = ecx

; 1356 : {

  00000	6a 04		 push	 4
  00002	b8 00 00 00 00	 mov	 eax, __ehhandler$??1LobbyMainWnd@@UAE@XZ
  00007	e8 00 00 00 00	 call	 __EH_prolog3
  0000c	8b f1		 mov	 esi, ecx
  0000e	89 75 f0	 mov	 DWORD PTR _this$[ebp], esi
  00011	c7 06 00 00 00
	00		 mov	 DWORD PTR [esi], OFFSET ??_7LobbyMainWnd@@6B@
  00017	c7 45 fc 02 00
	00 00		 mov	 DWORD PTR __$EHRec$[ebp+8], 2

; 1357 : 	g_SoundMgr.StopStream();

  0001e	ff 15 00 00 00
	00		 call	 DWORD PTR __imp_?GetSingleton@ioSoundManager@@SAAAV1@XZ
  00024	8b c8		 mov	 ecx, eax
  00026	ff 15 00 00 00
	00		 call	 DWORD PTR __imp_?StopStream@ioSoundManager@@QAEXXZ

; 1358 : 
; 1359 : 	if( !COMPARE( m_iDefaultX, 0, Setting::Width() ) || 
; 1360 : 		!COMPARE( m_iDefaultY, 0, Setting::Height() ) )

  0002c	83 be 90 01 00
	00 00		 cmp	 DWORD PTR [esi+400], 0
  00033	7c 5c		 jl	 SHORT $LN1@LobbyMainW
  00035	e8 00 00 00 00	 call	 ?Width@Setting@@SAHXZ	; Setting::Width
  0003a	39 86 90 01 00
	00		 cmp	 DWORD PTR [esi+400], eax
  00040	7d 4f		 jge	 SHORT $LN1@LobbyMainW
  00042	83 be 94 01 00
	00 00		 cmp	 DWORD PTR [esi+404], 0
  00049	7c 46		 jl	 SHORT $LN1@LobbyMainW
  0004b	e8 00 00 00 00	 call	 ?Height@Setting@@SAHXZ	; Setting::Height
  00050	39 86 94 01 00
	00		 cmp	 DWORD PTR [esi+404], eax
  00056	7d 39		 jge	 SHORT $LN1@LobbyMainW

; 1361 : 		return;
; 1362 : 
; 1363 : 	g_GUIMgr.GUIPosSaveInt( "LobbyMainWnd", "XPos", m_iDefaultX ,POS_SAVE_VERSION );

  00058	6a 04		 push	 4
  0005a	ff b6 90 01 00
	00		 push	 DWORD PTR [esi+400]
  00060	bf 00 00 00 00	 mov	 edi, OFFSET ??_C@_0N@IPHCJECP@LobbyMainWnd?$AA@
  00065	68 00 00 00 00	 push	 OFFSET ??_C@_04LNCKCFGC@XPos?$AA@
  0006a	57		 push	 edi
  0006b	e8 00 00 00 00	 call	 ?GetSingleton@ioSP2GUIManager@@SAAAV1@XZ ; ioSP2GUIManager::GetSingleton
  00070	8b c8		 mov	 ecx, eax
  00072	e8 00 00 00 00	 call	 ?GUIPosSaveInt@ioSP2GUIManager@@QAEHPBD0HH@Z ; ioSP2GUIManager::GUIPosSaveInt

; 1364 : 	g_GUIMgr.GUIPosSaveInt( "LobbyMainWnd", "YPos", m_iDefaultY ,POS_SAVE_VERSION );

  00077	6a 04		 push	 4
  00079	ff b6 94 01 00
	00		 push	 DWORD PTR [esi+404]
  0007f	68 00 00 00 00	 push	 OFFSET ??_C@_04IAEKAMNC@YPos?$AA@
  00084	57		 push	 edi
  00085	e8 00 00 00 00	 call	 ?GetSingleton@ioSP2GUIManager@@SAAAV1@XZ ; ioSP2GUIManager::GetSingleton
  0008a	8b c8		 mov	 ecx, eax
  0008c	e8 00 00 00 00	 call	 ?GUIPosSaveInt@ioSP2GUIManager@@QAEHPBD0HH@Z ; ioSP2GUIManager::GUIPosSaveInt
$LN1@LobbyMainW:

; 1365 : }

  00091	8d 8e 4c 02 00
	00		 lea	 ecx, DWORD PTR [esi+588]
  00097	c6 45 fc 01	 mov	 BYTE PTR __$EHRec$[ebp+8], 1
  0009b	ff 15 00 00 00
	00		 call	 DWORD PTR __imp_??1ioHashString@@QAE@XZ
  000a1	68 00 00 00 00	 push	 OFFSET ??1ioComplexStringPrinter@@QAE@XZ ; ioComplexStringPrinter::~ioComplexStringPrinter
  000a6	6a 05		 push	 5
  000a8	6a 20		 push	 32			; 00000020H
  000aa	8d 86 ac 01 00
	00		 lea	 eax, DWORD PTR [esi+428]
  000b0	50		 push	 eax
  000b1	c6 45 fc 00	 mov	 BYTE PTR __$EHRec$[ebp+8], 0
  000b5	e8 00 00 00 00	 call	 ??_M@YGXPAXIHP6EX0@Z@Z
  000ba	83 4d fc ff	 or	 DWORD PTR __$EHRec$[ebp+8], -1
  000be	8b ce		 mov	 ecx, esi
  000c0	ff 15 00 00 00
	00		 call	 DWORD PTR __imp_??1ioMovingWnd@@UAE@XZ
  000c6	e8 00 00 00 00	 call	 __EH_epilog3
  000cb	c3		 ret	 0
_TEXT	ENDS
;	COMDAT text$x
text$x	SEGMENT
__unwindfunclet$??1LobbyMainWnd@@UAE@XZ$0:
  00000	8b 4d f0	 mov	 ecx, DWORD PTR _this$[ebp]
  00003	ff 25 00 00 00
	00		 jmp	 DWORD PTR __imp_??1ioMovingWnd@@UAE@XZ
__unwindfunclet$??1LobbyMainWnd@@UAE@XZ$1:
  00009	68 00 00 00 00	 push	 OFFSET ??1ioComplexStringPrinter@@QAE@XZ ; ioComplexStringPrinter::~ioComplexStringPrinter
  0000e	6a 05		 push	 5
  00010	6a 20		 push	 32			; 00000020H
  00012	8b 45 f0	 mov	 eax, DWORD PTR _this$[ebp]
  00015	05 ac 01 00 00	 add	 eax, 428		; 000001acH
  0001a	50		 push	 eax
  0001b	e8 00 00 00 00	 call	 ??_M@YGXPAXIHP6EX0@Z@Z
  00020	c3		 ret	 0
__unwindfunclet$??1LobbyMainWnd@@UAE@XZ$2:
  00021	8b 4d f0	 mov	 ecx, DWORD PTR _this$[ebp]
  00024	81 c1 4c 02 00
	00		 add	 ecx, 588		; 0000024cH
  0002a	ff 25 00 00 00
	00		 jmp	 DWORD PTR __imp_??1ioHashString@@QAE@XZ
__ehhandler$??1LobbyMainWnd@@UAE@XZ:
  00030	8b 54 24 08	 mov	 edx, DWORD PTR [esp+8]
  00034	8d 42 0c	 lea	 eax, DWORD PTR [edx+12]
  00037	8b 4a ec	 mov	 ecx, DWORD PTR [edx-20]
  0003a	33 c8		 xor	 ecx, eax
  0003c	e8 00 00 00 00	 call	 @__security_check_cookie@4
  00041	b8 00 00 00 00	 mov	 eax, OFFSET __ehfuncinfo$??1LobbyMainWnd@@UAE@XZ
  00046	e9 00 00 00 00	 jmp	 ___CxxFrameHandler3
text$x	ENDS
??1LobbyMainWnd@@UAE@XZ ENDP				; LobbyMainWnd::~LobbyMainWnd
PUBLIC	?SetPlayStage@LobbyMainWnd@@QAEXPAVioPlayStage@@@Z ; LobbyMainWnd::SetPlayStage
EXTRN	__imp_?ShowWnd@ioWnd@@QAEXXZ:PROC
; Function compile flags: /Ogsp
;	COMDAT ?SetPlayStage@LobbyMainWnd@@QAEXPAVioPlayStage@@@Z
_TEXT	SEGMENT
_pPlayStage$ = 8					; size = 4
?SetPlayStage@LobbyMainWnd@@QAEXPAVioPlayStage@@@Z PROC	; LobbyMainWnd::SetPlayStage, COMDAT
; _this$ = ecx

; 1368 : {

  00000	55		 push	 ebp
  00001	8b ec		 mov	 ebp, esp
  00003	56		 push	 esi
  00004	57		 push	 edi

; 1369 : 	m_pPlayStage = pPlayStage;

  00005	8b 7d 08	 mov	 edi, DWORD PTR _pPlayStage$[ebp]

; 1370 : 
; 1371 : 	LobbyChatWnd *pChatWnd = dynamic_cast<LobbyChatWnd*>(FindChildWnd(ID_CHAT_WND));

  00008	6a 00		 push	 0
  0000a	68 00 00 00 00	 push	 OFFSET ??_R0?AVLobbyChatWnd@@@8
  0000f	68 00 00 00 00	 push	 OFFSET ??_R0?AVioWnd@@@8
  00014	6a 00		 push	 0
  00016	8b f1		 mov	 esi, ecx
  00018	6a 02		 push	 2
  0001a	89 be 98 01 00
	00		 mov	 DWORD PTR [esi+408], edi
  00020	ff 15 00 00 00
	00		 call	 DWORD PTR __imp_?FindChildWnd@ioWnd@@QAEPAV1@K@Z
  00026	50		 push	 eax
  00027	e8 00 00 00 00	 call	 ___RTDynamicCast
  0002c	83 c4 14	 add	 esp, 20			; 00000014H

; 1372 : 	if( pChatWnd )

  0002f	85 c0		 test	 eax, eax
  00031	74 08		 je	 SHORT $LN1@SetPlaySta@2

; 1373 : 	{
; 1374 : 		pChatWnd->SetPlayStage( pPlayStage );

  00033	57		 push	 edi
  00034	8b c8		 mov	 ecx, eax
  00036	e8 00 00 00 00	 call	 ?SetPlayStage@LobbyChatWnd@@QAEXPAVioPlayStage@@@Z ; LobbyChatWnd::SetPlayStage
$LN1@SetPlaySta@2:

; 1375 : 	}
; 1376 : 	ShowWnd();

  0003b	8b ce		 mov	 ecx, esi
  0003d	ff 15 00 00 00
	00		 call	 DWORD PTR __imp_?ShowWnd@ioWnd@@QAEXXZ
  00043	5f		 pop	 edi
  00044	5e		 pop	 esi

; 1377 : }

  00045	5d		 pop	 ebp
  00046	c2 04 00	 ret	 4
?SetPlayStage@LobbyMainWnd@@QAEXPAVioPlayStage@@@Z ENDP	; LobbyMainWnd::SetPlayStage
_TEXT	ENDS
PUBLIC	??_C@_0BD@GFCAHKPI@lobby?5event?5effect?$AA@	; `string'
PUBLIC	??_C@_0BH@EAKPEOPJ@XML?1shuffletooptip?4xml?$AA@ ; `string'
PUBLIC	??_C@_0BK@KNGMOODP@XML?1campentermodalwnd?4xml?$AA@ ; `string'
PUBLIC	??_C@_0BK@BCDLEGLI@XML?1tournamentinfownd?4xml?$AA@ ; `string'
PUBLIC	??_C@_0BK@GFCKKGML@XML?1lobbytradeinfownd?4xml?$AA@ ; `string'
PUBLIC	??_C@_0BK@LNBHEKEL@XML?1lobbyplazainfownd?4xml?$AA@ ; `string'
PUBLIC	??_C@_0BL@NADIGFPB@XML?1lobbybattleinfownd?4xml?$AA@ ; `string'
PUBLIC	??_C@_0BJ@FOOEHAJD@XML?1lobbycampinfownd?4xml?$AA@ ; `string'
PUBLIC	??_C@_0BF@NLJEIFGK@XML?1lobbychatwnd?4xml?$AA@	; `string'
PUBLIC	??_C@_0BB@FBLMIOBE@XML?1lobbywnd?4xml?$AA@	; `string'
EXTRN	__imp_??0ioHashString@@QAE@PBD@Z:PROC
EXTRN	__imp_?SetWndPos@ioWnd@@QAEXHH@Z:PROC
EXTRN	__imp_?GetYPos@ioWnd@@QBEHXZ:PROC
EXTRN	?GUIPosLoadInt@ioSP2GUIManager@@QAEHPBD0HH@Z:PROC ; ioSP2GUIManager::GUIPosLoadInt
EXTRN	__imp_?GetXPos@ioWnd@@QBEHXZ:PROC
EXTRN	__imp_?AddWnd@ioGUIManager@@QAEPAVioWnd@@PBD@Z:PROC
;	COMDAT ??_C@_0BD@GFCAHKPI@lobby?5event?5effect?$AA@
CONST	SEGMENT
??_C@_0BD@GFCAHKPI@lobby?5event?5effect?$AA@ DB 'lobby event effect', 00H ; `string'
CONST	ENDS
;	COMDAT ??_C@_0BH@EAKPEOPJ@XML?1shuffletooptip?4xml?$AA@
CONST	SEGMENT
??_C@_0BH@EAKPEOPJ@XML?1shuffletooptip?4xml?$AA@ DB 'XML/shuffletooptip.x'
	DB	'ml', 00H					; `string'
CONST	ENDS
;	COMDAT ??_C@_0BK@KNGMOODP@XML?1campentermodalwnd?4xml?$AA@
CONST	SEGMENT
??_C@_0BK@KNGMOODP@XML?1campentermodalwnd?4xml?$AA@ DB 'XML/campentermoda'
	DB	'lwnd.xml', 00H				; `string'
CONST	ENDS
;	COMDAT ??_C@_0BK@BCDLEGLI@XML?1tournamentinfownd?4xml?$AA@
CONST	SEGMENT
??_C@_0BK@BCDLEGLI@XML?1tournamentinfownd?4xml?$AA@ DB 'XML/tournamentinf'
	DB	'ownd.xml', 00H				; `string'
CONST	ENDS
;	COMDAT ??_C@_0BK@GFCKKGML@XML?1lobbytradeinfownd?4xml?$AA@
CONST	SEGMENT
??_C@_0BK@GFCKKGML@XML?1lobbytradeinfownd?4xml?$AA@ DB 'XML/lobbytradeinf'
	DB	'ownd.xml', 00H				; `string'
CONST	ENDS
;	COMDAT ??_C@_0BK@LNBHEKEL@XML?1lobbyplazainfownd?4xml?$AA@
CONST	SEGMENT
??_C@_0BK@LNBHEKEL@XML?1lobbyplazainfownd?4xml?$AA@ DB 'XML/lobbyplazainf'
	DB	'ownd.xml', 00H				; `string'
CONST	ENDS
;	COMDAT ??_C@_0BL@NADIGFPB@XML?1lobbybattleinfownd?4xml?$AA@
CONST	SEGMENT
??_C@_0BL@NADIGFPB@XML?1lobbybattleinfownd?4xml?$AA@ DB 'XML/lobbybattlei'
	DB	'nfownd.xml', 00H				; `string'
CONST	ENDS
;	COMDAT ??_C@_0BJ@FOOEHAJD@XML?1lobbycampinfownd?4xml?$AA@
CONST	SEGMENT
??_C@_0BJ@FOOEHAJD@XML?1lobbycampinfownd?4xml?$AA@ DB 'XML/lobbycampinfow'
	DB	'nd.xml', 00H				; `string'
CONST	ENDS
;	COMDAT ??_C@_0BF@NLJEIFGK@XML?1lobbychatwnd?4xml?$AA@
CONST	SEGMENT
??_C@_0BF@NLJEIFGK@XML?1lobbychatwnd?4xml?$AA@ DB 'XML/lobbychatwnd.xml', 00H ; `string'
CONST	ENDS
;	COMDAT ??_C@_0BB@FBLMIOBE@XML?1lobbywnd?4xml?$AA@
CONST	SEGMENT
??_C@_0BB@FBLMIOBE@XML?1lobbywnd?4xml?$AA@ DB 'XML/lobbywnd.xml', 00H ; `string'
; Function compile flags: /Ogsp
CONST	ENDS
;	COMDAT ?iwm_create@LobbyMainWnd@@UAEXXZ
_TEXT	SEGMENT
$T537919 = -4						; size = 4
?iwm_create@LobbyMainWnd@@UAEXXZ PROC			; LobbyMainWnd::iwm_create, COMDAT
; _this$ = ecx

; 1386 : {

  00000	55		 push	 ebp
  00001	8b ec		 mov	 ebp, esp
  00003	51		 push	 ecx
  00004	53		 push	 ebx
  00005	56		 push	 esi
  00006	57		 push	 edi
  00007	8b f9		 mov	 edi, ecx

; 1387 : 	g_GUIMgr.AddWnd( "XML/lobbywnd.xml", this );

  00009	57		 push	 edi
  0000a	68 00 00 00 00	 push	 OFFSET ??_C@_0BB@FBLMIOBE@XML?1lobbywnd?4xml?$AA@
  0000f	e8 00 00 00 00	 call	 ?GetSingleton@ioSP2GUIManager@@SAAAV1@XZ ; ioSP2GUIManager::GetSingleton
  00014	8b 35 00 00 00
	00		 mov	 esi, DWORD PTR __imp_?AddWnd@ioGUIManager@@QAEPAVioWnd@@PBDPAV2@@Z
  0001a	8b c8		 mov	 ecx, eax
  0001c	ff d6		 call	 esi

; 1388 : 	g_GUIMgr.AddWnd( "XML/lobbychatwnd.xml", this );

  0001e	57		 push	 edi
  0001f	68 00 00 00 00	 push	 OFFSET ??_C@_0BF@NLJEIFGK@XML?1lobbychatwnd?4xml?$AA@
  00024	e8 00 00 00 00	 call	 ?GetSingleton@ioSP2GUIManager@@SAAAV1@XZ ; ioSP2GUIManager::GetSingleton
  00029	8b c8		 mov	 ecx, eax
  0002b	ff d6		 call	 esi

; 1389 : 	g_GUIMgr.AddWnd( "XML/lobbycampinfownd.xml", this );

  0002d	57		 push	 edi
  0002e	68 00 00 00 00	 push	 OFFSET ??_C@_0BJ@FOOEHAJD@XML?1lobbycampinfownd?4xml?$AA@
  00033	e8 00 00 00 00	 call	 ?GetSingleton@ioSP2GUIManager@@SAAAV1@XZ ; ioSP2GUIManager::GetSingleton
  00038	8b c8		 mov	 ecx, eax
  0003a	ff d6		 call	 esi

; 1390 : 	g_GUIMgr.AddWnd( "XML/lobbybattleinfownd.xml", this );

  0003c	57		 push	 edi
  0003d	68 00 00 00 00	 push	 OFFSET ??_C@_0BL@NADIGFPB@XML?1lobbybattleinfownd?4xml?$AA@
  00042	e8 00 00 00 00	 call	 ?GetSingleton@ioSP2GUIManager@@SAAAV1@XZ ; ioSP2GUIManager::GetSingleton
  00047	8b c8		 mov	 ecx, eax
  00049	ff d6		 call	 esi

; 1391 : 	g_GUIMgr.AddWnd( "XML/lobbyplazainfownd.xml", this );

  0004b	57		 push	 edi
  0004c	bb 00 00 00 00	 mov	 ebx, OFFSET ??_C@_0BK@LNBHEKEL@XML?1lobbyplazainfownd?4xml?$AA@
  00051	53		 push	 ebx
  00052	e8 00 00 00 00	 call	 ?GetSingleton@ioSP2GUIManager@@SAAAV1@XZ ; ioSP2GUIManager::GetSingleton
  00057	8b c8		 mov	 ecx, eax
  00059	ff d6		 call	 esi

; 1392 : 	g_GUIMgr.AddWnd( "XML/lobbytradeinfownd.xml", this );

  0005b	57		 push	 edi
  0005c	68 00 00 00 00	 push	 OFFSET ??_C@_0BK@GFCKKGML@XML?1lobbytradeinfownd?4xml?$AA@
  00061	e8 00 00 00 00	 call	 ?GetSingleton@ioSP2GUIManager@@SAAAV1@XZ ; ioSP2GUIManager::GetSingleton
  00066	8b c8		 mov	 ecx, eax
  00068	ff d6		 call	 esi

; 1393 : 	g_GUIMgr.AddWnd( "XML/tournamentinfownd.xml", this );

  0006a	57		 push	 edi
  0006b	68 00 00 00 00	 push	 OFFSET ??_C@_0BK@BCDLEGLI@XML?1tournamentinfownd?4xml?$AA@
  00070	e8 00 00 00 00	 call	 ?GetSingleton@ioSP2GUIManager@@SAAAV1@XZ ; ioSP2GUIManager::GetSingleton
  00075	8b c8		 mov	 ecx, eax
  00077	ff d6		 call	 esi

; 1394 : 	g_GUIMgr.AddWnd( "XML/campentermodalwnd.xml" );

  00079	68 00 00 00 00	 push	 OFFSET ??_C@_0BK@KNGMOODP@XML?1campentermodalwnd?4xml?$AA@
  0007e	e8 00 00 00 00	 call	 ?GetSingleton@ioSP2GUIManager@@SAAAV1@XZ ; ioSP2GUIManager::GetSingleton
  00083	8b c8		 mov	 ecx, eax
  00085	ff 15 00 00 00
	00		 call	 DWORD PTR __imp_?AddWnd@ioGUIManager@@QAEPAVioWnd@@PBD@Z

; 1395 : 	g_GUIMgr.AddWnd( "XML/lobbyplazainfownd.xml", this );

  0008b	57		 push	 edi
  0008c	53		 push	 ebx
  0008d	e8 00 00 00 00	 call	 ?GetSingleton@ioSP2GUIManager@@SAAAV1@XZ ; ioSP2GUIManager::GetSingleton
  00092	8b c8		 mov	 ecx, eax
  00094	ff d6		 call	 esi

; 1396 : 	g_GUIMgr.AddWnd( "XML/shuffletooptip.xml", this );

  00096	57		 push	 edi
  00097	68 00 00 00 00	 push	 OFFSET ??_C@_0BH@EAKPEOPJ@XML?1shuffletooptip?4xml?$AA@
  0009c	e8 00 00 00 00	 call	 ?GetSingleton@ioSP2GUIManager@@SAAAV1@XZ ; ioSP2GUIManager::GetSingleton
  000a1	8b c8		 mov	 ecx, eax
  000a3	ff d6		 call	 esi

; 1397 : 	
; 1398 : 	int iXPos = g_GUIMgr.GUIPosLoadInt( "LobbyMainWnd", "XPos", GetXPos() ,POS_SAVE_VERSION );

  000a5	6a 04		 push	 4
  000a7	8b cf		 mov	 ecx, edi
  000a9	ff 15 00 00 00
	00		 call	 DWORD PTR __imp_?GetXPos@ioWnd@@QBEHXZ
  000af	50		 push	 eax
  000b0	68 00 00 00 00	 push	 OFFSET ??_C@_04LNCKCFGC@XPos?$AA@
  000b5	be 00 00 00 00	 mov	 esi, OFFSET ??_C@_0N@IPHCJECP@LobbyMainWnd?$AA@
  000ba	56		 push	 esi
  000bb	e8 00 00 00 00	 call	 ?GetSingleton@ioSP2GUIManager@@SAAAV1@XZ ; ioSP2GUIManager::GetSingleton
  000c0	8b c8		 mov	 ecx, eax
  000c2	e8 00 00 00 00	 call	 ?GUIPosLoadInt@ioSP2GUIManager@@QAEHPBD0HH@Z ; ioSP2GUIManager::GUIPosLoadInt

; 1399 : 	int iYPos = g_GUIMgr.GUIPosLoadInt( "LobbyMainWnd", "YPos", GetYPos() ,POS_SAVE_VERSION );

  000c7	6a 04		 push	 4
  000c9	8b cf		 mov	 ecx, edi
  000cb	8b d8		 mov	 ebx, eax
  000cd	ff 15 00 00 00
	00		 call	 DWORD PTR __imp_?GetYPos@ioWnd@@QBEHXZ
  000d3	50		 push	 eax
  000d4	68 00 00 00 00	 push	 OFFSET ??_C@_04IAEKAMNC@YPos?$AA@
  000d9	56		 push	 esi
  000da	e8 00 00 00 00	 call	 ?GetSingleton@ioSP2GUIManager@@SAAAV1@XZ ; ioSP2GUIManager::GetSingleton
  000df	8b c8		 mov	 ecx, eax
  000e1	e8 00 00 00 00	 call	 ?GUIPosLoadInt@ioSP2GUIManager@@QAEHPBD0HH@Z ; ioSP2GUIManager::GUIPosLoadInt
  000e6	8b f0		 mov	 esi, eax

; 1400 : 
; 1401 : 	if( COMPARE( iXPos, 0, Setting::Width() ) && COMPARE( iYPos, 0, Setting::Height() ) )

  000e8	85 db		 test	 ebx, ebx
  000ea	78 20		 js	 SHORT $LN2@iwm_create@2
  000ec	e8 00 00 00 00	 call	 ?Width@Setting@@SAHXZ	; Setting::Width
  000f1	3b d8		 cmp	 ebx, eax
  000f3	7d 17		 jge	 SHORT $LN2@iwm_create@2
  000f5	85 f6		 test	 esi, esi
  000f7	78 13		 js	 SHORT $LN2@iwm_create@2
  000f9	e8 00 00 00 00	 call	 ?Height@Setting@@SAHXZ	; Setting::Height
  000fe	3b f0		 cmp	 esi, eax
  00100	7d 0a		 jge	 SHORT $LN2@iwm_create@2

; 1402 : 	{
; 1403 : 		SetWndPos( iXPos, iYPos );

  00102	56		 push	 esi
  00103	53		 push	 ebx
  00104	8b cf		 mov	 ecx, edi
  00106	ff 15 00 00 00
	00		 call	 DWORD PTR __imp_?SetWndPos@ioWnd@@QAEXHH@Z
$LN2@iwm_create@2:

; 1404 : 	}
; 1405 : 	m_iDefaultX = GetXPos();

  0010c	8b cf		 mov	 ecx, edi
  0010e	ff 15 00 00 00
	00		 call	 DWORD PTR __imp_?GetXPos@ioWnd@@QBEHXZ

; 1406 : 	m_iDefaultY = GetYPos();

  00114	8b cf		 mov	 ecx, edi
  00116	89 87 90 01 00
	00		 mov	 DWORD PTR [edi+400], eax
  0011c	ff 15 00 00 00
	00		 call	 DWORD PTR __imp_?GetYPos@ioWnd@@QBEHXZ

; 1407 : 
; 1408 : 	ioWnd * pEffWnd = FindChildWnd(ID_EFFECT_WND);

  00122	68 f8 01 00 00	 push	 504			; 000001f8H
  00127	8b cf		 mov	 ecx, edi
  00129	89 87 94 01 00
	00		 mov	 DWORD PTR [edi+404], eax
  0012f	ff 15 00 00 00
	00		 call	 DWORD PTR __imp_?FindChildWnd@ioWnd@@QAEPAV1@K@Z
  00135	8b f0		 mov	 esi, eax

; 1409 : 	if(pEffWnd)

  00137	85 f6		 test	 esi, esi
  00139	74 23		 je	 SHORT $LN1@iwm_create@2

; 1410 : 	{
; 1411 : 		m_pEventEff = pEffWnd->GetEffect("lobby event effect");

  0013b	83 ec 10	 sub	 esp, 16			; 00000010H
  0013e	8b cc		 mov	 ecx, esp
  00140	89 65 fc	 mov	 DWORD PTR $T537919[ebp], esp
  00143	68 00 00 00 00	 push	 OFFSET ??_C@_0BD@GFCAHKPI@lobby?5event?5effect?$AA@
  00148	ff 15 00 00 00
	00		 call	 DWORD PTR __imp_??0ioHashString@@QAE@PBD@Z
  0014e	8b 06		 mov	 eax, DWORD PTR [esi]
  00150	8b ce		 mov	 ecx, esi
  00152	ff 90 28 01 00
	00		 call	 DWORD PTR [eax+296]
  00158	89 87 5c 02 00
	00		 mov	 DWORD PTR [edi+604], eax
$LN1@iwm_create@2:

; 1412 : 	}
; 1413 : }

  0015e	5f		 pop	 edi
  0015f	5e		 pop	 esi
  00160	5b		 pop	 ebx
  00161	c9		 leave
  00162	c3		 ret	 0
?iwm_create@LobbyMainWnd@@UAEXXZ ENDP			; LobbyMainWnd::iwm_create
_TEXT	ENDS
PUBLIC	??_C@_0BH@COOJFIFO@LobbyMainWnd?3?3iwm_show?$AA@ ; `string'
PUBLIC	__$ArrayPad$
EXTRN	__imp_?Start@ioUI3DEffectRender@@QAEXXZ:PROC
EXTRN	?IsAutoFix@ioKeyManager@@QAE_NXZ:PROC		; ioKeyManager::IsAutoFix
EXTRN	?GetSingleton@ioKeyManager@@SAAAV1@XZ:PROC	; ioKeyManager::GetSingleton
EXTRN	??6SP2Packet@@QAEAAV0@_N@Z:PROC			; SP2Packet::operator<<
EXTRN	?SetBackground@ioInterfaceBackground@@QAEXW4BackGroundType@@@Z:PROC ; ioInterfaceBackground::SetBackground
EXTRN	?GetSingleton@ioInterfaceBackground@@SAAAV1@XZ:PROC ; ioInterfaceBackground::GetSingleton
;	COMDAT ?bShow@?1??iwm_show@LobbyMainWnd@@UAEXXZ@4_NA
_BSS	SEGMENT
?bShow@?1??iwm_show@LobbyMainWnd@@UAEXXZ@4_NA DB 01H DUP (?) ; `LobbyMainWnd::iwm_show'::`2'::bShow
_BSS	ENDS
;	COMDAT ??_C@_0BH@COOJFIFO@LobbyMainWnd?3?3iwm_show?$AA@
CONST	SEGMENT
??_C@_0BH@COOJFIFO@LobbyMainWnd?3?3iwm_show?$AA@ DB 'LobbyMainWnd::iwm_sh'
	DB	'ow', 00H					; `string'
CONST	ENDS
;	COMDAT xdata$x
xdata$x	SEGMENT
__unwindtable$?iwm_show@LobbyMainWnd@@UAEXXZ DD 0ffffffffH
	DD	FLAT:__unwindfunclet$?iwm_show@LobbyMainWnd@@UAEXXZ$0
__ehfuncinfo$?iwm_show@LobbyMainWnd@@UAEXXZ DD 019930522H
	DD	01H
	DD	FLAT:__unwindtable$?iwm_show@LobbyMainWnd@@UAEXXZ
	DD	2 DUP(00H)
	DD	2 DUP(00H)
	DD	00H
	DD	01H
; Function compile flags: /Ogsp
xdata$x	ENDS
;	COMDAT ?iwm_show@LobbyMainWnd@@UAEXXZ
_TEXT	SEGMENT
_kPacket$ = -32808					; size = 32792
__$ArrayPad$ = -16					; size = 4
__$EHRec$ = -12						; size = 12
?iwm_show@LobbyMainWnd@@UAEXXZ PROC			; LobbyMainWnd::iwm_show, COMDAT
; _this$ = ecx

; 1416 : {

  00000	55		 push	 ebp
  00001	8b ec		 mov	 ebp, esp
  00003	6a ff		 push	 -1
  00005	68 00 00 00 00	 push	 __ehhandler$?iwm_show@LobbyMainWnd@@UAEXXZ
  0000a	64 a1 00 00 00
	00		 mov	 eax, DWORD PTR fs:0
  00010	50		 push	 eax
  00011	b8 1c 80 00 00	 mov	 eax, 32796		; 0000801cH
  00016	e8 00 00 00 00	 call	 __chkstk
  0001b	a1 00 00 00 00	 mov	 eax, DWORD PTR ___security_cookie
  00020	33 c5		 xor	 eax, ebp
  00022	89 45 f0	 mov	 DWORD PTR __$ArrayPad$[ebp], eax
  00025	53		 push	 ebx
  00026	56		 push	 esi
  00027	50		 push	 eax
  00028	8d 45 f4	 lea	 eax, DWORD PTR __$EHRec$[ebp]
  0002b	64 a3 00 00 00
	00		 mov	 DWORD PTR fs:0, eax

; 1417 : 	ShowChildWnd( ID_LOBBY_WND );	

  00031	33 db		 xor	 ebx, ebx
  00033	53		 push	 ebx
  00034	6a 01		 push	 1
  00036	8b f1		 mov	 esi, ecx
  00038	ff 15 00 00 00
	00		 call	 DWORD PTR __imp_?ShowChildWnd@ioWnd@@QAEXK_N@Z

; 1418 : 
; 1419 : 	g_BackgroundMgr.SetBackground( BGT_LOBBY );

  0003e	6a 01		 push	 1
  00040	e8 00 00 00 00	 call	 ?GetSingleton@ioInterfaceBackground@@SAAAV1@XZ ; ioInterfaceBackground::GetSingleton
  00045	8b c8		 mov	 ecx, eax
  00047	e8 00 00 00 00	 call	 ?SetBackground@ioInterfaceBackground@@QAEXW4BackGroundType@@@Z ; ioInterfaceBackground::SetBackground

; 1420 : 
; 1421 : 	// 로비 입장
; 1422 : 
; 1423 : 	SP2Packet kPacket( CTPK_JOIN_SERVER_LOBBY_INFO );

  0004c	68 67 01 00 00	 push	 359			; 00000167H
  00051	8d 8d d8 7f ff
	ff		 lea	 ecx, DWORD PTR _kPacket$[ebp]
  00057	e8 00 00 00 00	 call	 ??0SP2Packet@@QAE@K@Z	; SP2Packet::SP2Packet

; 1424 : 	kPacket << true;

  0005c	6a 01		 push	 1
  0005e	8d 8d d8 7f ff
	ff		 lea	 ecx, DWORD PTR _kPacket$[ebp]
  00064	89 5d fc	 mov	 DWORD PTR __$EHRec$[ebp+8], ebx
  00067	e8 00 00 00 00	 call	 ??6SP2Packet@@QAEAAV0@_N@Z ; SP2Packet::operator<<

; 1425 : 	TCPNetwork::SendToServer( kPacket );

  0006c	8d 85 d8 7f ff
	ff		 lea	 eax, DWORD PTR _kPacket$[ebp]
  00072	50		 push	 eax
  00073	e8 00 00 00 00	 call	 ?SendToServer@TCPNetwork@@YAXAAVSP2Packet@@@Z ; TCPNetwork::SendToServer
  00078	59		 pop	 ecx

; 1426 : 
; 1427 : 
; 1428 : 	// special notice
; 1429 : 	static bool bShow = false;
; 1430 : 	if( !bShow )

  00079	38 1d 00 00 00
	00		 cmp	 BYTE PTR ?bShow@?1??iwm_show@LobbyMainWnd@@UAEXXZ@4_NA, bl
  0007f	75 43		 jne	 SHORT $LN2@iwm_show@2

; 1431 : 	{
; 1432 : 		bShow = true;

  00081	c6 05 00 00 00
	00 01		 mov	 BYTE PTR ?bShow@?1??iwm_show@LobbyMainWnd@@UAEXXZ@4_NA, 1

; 1433 : 		if( g_KeyManager.IsAutoFix() )

  00088	e8 00 00 00 00	 call	 ?GetSingleton@ioKeyManager@@SAAAV1@XZ ; ioKeyManager::GetSingleton
  0008d	8b c8		 mov	 ecx, eax
  0008f	e8 00 00 00 00	 call	 ?IsAutoFix@ioKeyManager@@QAE_NXZ ; ioKeyManager::IsAutoFix
  00094	84 c0		 test	 al, al
  00096	74 2c		 je	 SHORT $LN2@iwm_show@2

; 1434 : 			g_GUIMgr.SetMsgBox( MB_OK, NULL, STR(1) );

  00098	53		 push	 ebx
  00099	6a 01		 push	 1
  0009b	68 00 00 00 00	 push	 OFFSET ??_C@_00CNPNBAHC@?$AA@
  000a0	68 00 00 00 00	 push	 OFFSET ??_C@_0BH@COOJFIFO@LobbyMainWnd?3?3iwm_show?$AA@
  000a5	ff 15 00 00 00
	00		 call	 DWORD PTR __imp_?GetSingleton@ioStringManager@@SAAAV1@XZ
  000ab	8b c8		 mov	 ecx, eax
  000ad	ff 15 00 00 00
	00		 call	 DWORD PTR __imp_?GetString@ioStringManager@@QAEPADPBD0HW4FileNamePrefix@1@@Z
  000b3	50		 push	 eax
  000b4	53		 push	 ebx
  000b5	53		 push	 ebx
  000b6	e8 00 00 00 00	 call	 ?GetSingleton@ioSP2GUIManager@@SAAAV1@XZ ; ioSP2GUIManager::GetSingleton
  000bb	50		 push	 eax
  000bc	e8 00 00 00 00	 call	 ?SetMsgBox@ioSP2GUIManager@@QAAXHPAVioWnd@@PBDZZ ; ioSP2GUIManager::SetMsgBox
  000c1	83 c4 10	 add	 esp, 16			; 00000010H
$LN2@iwm_show@2:

; 1435 : 	}
; 1436 : 
; 1437 : 	if(m_pEventEff)

  000c4	8b 8e 5c 02 00
	00		 mov	 ecx, DWORD PTR [esi+604]
  000ca	3b cb		 cmp	 ecx, ebx
  000cc	74 06		 je	 SHORT $LN1@iwm_show@2

; 1438 : 		m_pEventEff->Start();

  000ce	ff 15 00 00 00
	00		 call	 DWORD PTR __imp_?Start@ioUI3DEffectRender@@QAEXXZ
$LN1@iwm_show@2:

; 1439 : }

  000d4	83 4d fc ff	 or	 DWORD PTR __$EHRec$[ebp+8], -1
  000d8	8d 8d d8 7f ff
	ff		 lea	 ecx, DWORD PTR _kPacket$[ebp]
  000de	e8 00 00 00 00	 call	 ??1SP2Packet@@UAE@XZ	; SP2Packet::~SP2Packet
  000e3	8b 4d f4	 mov	 ecx, DWORD PTR __$EHRec$[ebp]
  000e6	64 89 0d 00 00
	00 00		 mov	 DWORD PTR fs:0, ecx
  000ed	59		 pop	 ecx
  000ee	5e		 pop	 esi
  000ef	5b		 pop	 ebx
  000f0	8b 4d f0	 mov	 ecx, DWORD PTR __$ArrayPad$[ebp]
  000f3	33 cd		 xor	 ecx, ebp
  000f5	e8 00 00 00 00	 call	 @__security_check_cookie@4
  000fa	c9		 leave
  000fb	c3		 ret	 0
_TEXT	ENDS
;	COMDAT text$x
text$x	SEGMENT
__unwindfunclet$?iwm_show@LobbyMainWnd@@UAEXXZ$0:
  00000	8d 8d d8 7f ff
	ff		 lea	 ecx, DWORD PTR _kPacket$[ebp]
  00006	e9 00 00 00 00	 jmp	 ??1SP2Packet@@UAE@XZ	; SP2Packet::~SP2Packet
__ehhandler$?iwm_show@LobbyMainWnd@@UAEXXZ:
  0000b	8b 54 24 08	 mov	 edx, DWORD PTR [esp+8]
  0000f	8d 42 0c	 lea	 eax, DWORD PTR [edx+12]
  00012	8b 8a d8 7f ff
	ff		 mov	 ecx, DWORD PTR [edx-32808]
  00018	33 c8		 xor	 ecx, eax
  0001a	e8 00 00 00 00	 call	 @__security_check_cookie@4
  0001f	8b 4a fc	 mov	 ecx, DWORD PTR [edx-4]
  00022	33 c8		 xor	 ecx, eax
  00024	e8 00 00 00 00	 call	 @__security_check_cookie@4
  00029	b8 00 00 00 00	 mov	 eax, OFFSET __ehfuncinfo$?iwm_show@LobbyMainWnd@@UAEXXZ
  0002e	e9 00 00 00 00	 jmp	 ___CxxFrameHandler3
text$x	ENDS
?iwm_show@LobbyMainWnd@@UAEXXZ ENDP			; LobbyMainWnd::iwm_show
PUBLIC	__$ArrayPad$
EXTRN	__imp_?Stop@ioUI3DEffectRender@@QAEXXZ:PROC
EXTRN	?SetModeHelpTooltip@CQuickModeToolTip@@QAEXPAVioWnd@@H@Z:PROC ; CQuickModeToolTip::SetModeHelpTooltip
EXTRN	?SetModeHelpTooltip@ModeHelpTooltip@@QAEXPAVioWnd@@ABVioHashString@@H@Z:PROC ; ModeHelpTooltip::SetModeHelpTooltip
;	COMDAT xdata$x
xdata$x	SEGMENT
__unwindtable$?iwm_hide@LobbyMainWnd@@UAEXXZ DD 0ffffffffH
	DD	FLAT:__unwindfunclet$?iwm_hide@LobbyMainWnd@@UAEXXZ$0
	DD	0ffffffffH
	DD	FLAT:__unwindfunclet$?iwm_hide@LobbyMainWnd@@UAEXXZ$1
__ehfuncinfo$?iwm_hide@LobbyMainWnd@@UAEXXZ DD 019930522H
	DD	02H
	DD	FLAT:__unwindtable$?iwm_hide@LobbyMainWnd@@UAEXXZ
	DD	2 DUP(00H)
	DD	2 DUP(00H)
	DD	00H
	DD	01H
; Function compile flags: /Ogsp
xdata$x	ENDS
;	COMDAT ?iwm_hide@LobbyMainWnd@@UAEXXZ
_TEXT	SEGMENT
$T537936 = -32824					; size = 16
_kPacket$ = -32808					; size = 32792
__$ArrayPad$ = -16					; size = 4
__$EHRec$ = -12						; size = 12
?iwm_hide@LobbyMainWnd@@UAEXXZ PROC			; LobbyMainWnd::iwm_hide, COMDAT
; _this$ = ecx

; 1442 : {

  00000	55		 push	 ebp
  00001	8b ec		 mov	 ebp, esp
  00003	6a ff		 push	 -1
  00005	68 00 00 00 00	 push	 __ehhandler$?iwm_hide@LobbyMainWnd@@UAEXXZ
  0000a	64 a1 00 00 00
	00		 mov	 eax, DWORD PTR fs:0
  00010	50		 push	 eax
  00011	b8 2c 80 00 00	 mov	 eax, 32812		; 0000802cH
  00016	e8 00 00 00 00	 call	 __chkstk
  0001b	a1 00 00 00 00	 mov	 eax, DWORD PTR ___security_cookie
  00020	33 c5		 xor	 eax, ebp
  00022	89 45 f0	 mov	 DWORD PTR __$ArrayPad$[ebp], eax
  00025	53		 push	 ebx
  00026	56		 push	 esi
  00027	57		 push	 edi
  00028	50		 push	 eax
  00029	8d 45 f4	 lea	 eax, DWORD PTR __$EHRec$[ebp]
  0002c	64 a3 00 00 00
	00		 mov	 DWORD PTR fs:0, eax

; 1443 : 	HideChildWnd( ID_LOBBY_WND );

  00032	8b 35 00 00 00
	00		 mov	 esi, DWORD PTR __imp_?HideChildWnd@ioWnd@@QAEXK_N@Z
  00038	33 db		 xor	 ebx, ebx
  0003a	53		 push	 ebx
  0003b	6a 01		 push	 1
  0003d	8b f9		 mov	 edi, ecx
  0003f	ff d6		 call	 esi

; 1444 : 	HideChildWnd( ID_CHAT_WND );

  00041	53		 push	 ebx
  00042	6a 02		 push	 2
  00044	8b cf		 mov	 ecx, edi
  00046	ff d6		 call	 esi

; 1445 : 	HideChildWnd( ID_CAMP_INFO_WND );

  00048	53		 push	 ebx
  00049	6a 03		 push	 3
  0004b	8b cf		 mov	 ecx, edi
  0004d	ff d6		 call	 esi

; 1446 : 	HideChildWnd( ID_BATTLE_INFO_WND );

  0004f	53		 push	 ebx
  00050	6a 04		 push	 4
  00052	8b cf		 mov	 ecx, edi
  00054	ff d6		 call	 esi

; 1447 : 	HideChildWnd( ID_PLAZA_INFO_WND );

  00056	53		 push	 ebx
  00057	6a 05		 push	 5
  00059	8b cf		 mov	 ecx, edi
  0005b	ff d6		 call	 esi

; 1448 : 	HideChildWnd( ID_TRADE_INFO_WND );

  0005d	53		 push	 ebx
  0005e	6a 06		 push	 6
  00060	8b cf		 mov	 ecx, edi
  00062	ff d6		 call	 esi

; 1449 : 	HideChildWnd( ID_TOURNAMENT_INFO_WND );

  00064	53		 push	 ebx
  00065	6a 07		 push	 7
  00067	8b cf		 mov	 ecx, edi
  00069	ff d6		 call	 esi

; 1450 : 
; 1451 : 	ModeHelpTooltip *pModeHelpTooltip = (ModeHelpTooltip*)( m_pModeHelpTooltip );	

  0006b	8b b7 9c 01 00
	00		 mov	 esi, DWORD PTR [edi+412]

; 1452 : 	if( pModeHelpTooltip )

  00071	3b f3		 cmp	 esi, ebx
  00073	74 35		 je	 SHORT $LN3@iwm_hide

; 1453 : 	{
; 1454 : 		pModeHelpTooltip->SetModeHelpTooltip( NULL, "", -1 );

  00075	68 00 00 00 00	 push	 OFFSET ??_C@_00CNPNBAHC@?$AA@
  0007a	8d 8d c8 7f ff
	ff		 lea	 ecx, DWORD PTR $T537936[ebp]
  00080	ff 15 00 00 00
	00		 call	 DWORD PTR __imp_??0ioHashString@@QAE@PBD@Z
  00086	6a ff		 push	 -1
  00088	8d 85 c8 7f ff
	ff		 lea	 eax, DWORD PTR $T537936[ebp]
  0008e	50		 push	 eax
  0008f	53		 push	 ebx
  00090	8b ce		 mov	 ecx, esi
  00092	89 5d fc	 mov	 DWORD PTR __$EHRec$[ebp+8], ebx
  00095	e8 00 00 00 00	 call	 ?SetModeHelpTooltip@ModeHelpTooltip@@QAEXPAVioWnd@@ABVioHashString@@H@Z ; ModeHelpTooltip::SetModeHelpTooltip
  0009a	83 4d fc ff	 or	 DWORD PTR __$EHRec$[ebp+8], -1
  0009e	8d 8d c8 7f ff
	ff		 lea	 ecx, DWORD PTR $T537936[ebp]
  000a4	ff 15 00 00 00
	00		 call	 DWORD PTR __imp_??1ioHashString@@QAE@XZ
$LN3@iwm_hide:

; 1455 : 	}	
; 1456 : 
; 1457 : 	CQuickModeToolTip *pQuickTooltip = (CQuickModeToolTip*)( m_pQuickJoinTooltip );

  000aa	8b 8f a0 01 00
	00		 mov	 ecx, DWORD PTR [edi+416]

; 1458 : 	if(pQuickTooltip)

  000b0	3b cb		 cmp	 ecx, ebx
  000b2	74 08		 je	 SHORT $LN2@iwm_hide

; 1459 : 		pQuickTooltip->SetModeHelpTooltip(NULL, -1);

  000b4	6a ff		 push	 -1
  000b6	53		 push	 ebx
  000b7	e8 00 00 00 00	 call	 ?SetModeHelpTooltip@CQuickModeToolTip@@QAEXPAVioWnd@@H@Z ; CQuickModeToolTip::SetModeHelpTooltip
$LN2@iwm_hide:

; 1460 : 
; 1461 : 
; 1462 : 	// 로비 퇴장
; 1463 : 	SP2Packet kPacket( CTPK_JOIN_SERVER_LOBBY_INFO );

  000bc	68 67 01 00 00	 push	 359			; 00000167H
  000c1	8d 8d d8 7f ff
	ff		 lea	 ecx, DWORD PTR _kPacket$[ebp]
  000c7	e8 00 00 00 00	 call	 ??0SP2Packet@@QAE@K@Z	; SP2Packet::SP2Packet

; 1464 : 	kPacket << false;

  000cc	53		 push	 ebx
  000cd	8d 8d d8 7f ff
	ff		 lea	 ecx, DWORD PTR _kPacket$[ebp]
  000d3	c7 45 fc 01 00
	00 00		 mov	 DWORD PTR __$EHRec$[ebp+8], 1
  000da	e8 00 00 00 00	 call	 ??6SP2Packet@@QAEAAV0@_N@Z ; SP2Packet::operator<<

; 1465 : 	TCPNetwork::SendToServer( kPacket );

  000df	8d 85 d8 7f ff
	ff		 lea	 eax, DWORD PTR _kPacket$[ebp]
  000e5	50		 push	 eax
  000e6	e8 00 00 00 00	 call	 ?SendToServer@TCPNetwork@@YAXAAVSP2Packet@@@Z ; TCPNetwork::SendToServer

; 1466 : 	if(m_pEventEff)

  000eb	8b bf 5c 02 00
	00		 mov	 edi, DWORD PTR [edi+604]
  000f1	59		 pop	 ecx
  000f2	3b fb		 cmp	 edi, ebx
  000f4	74 08		 je	 SHORT $LN1@iwm_hide

; 1467 : 		m_pEventEff->Stop();

  000f6	8b cf		 mov	 ecx, edi
  000f8	ff 15 00 00 00
	00		 call	 DWORD PTR __imp_?Stop@ioUI3DEffectRender@@QAEXXZ
$LN1@iwm_hide:

; 1468 : }

  000fe	83 4d fc ff	 or	 DWORD PTR __$EHRec$[ebp+8], -1
  00102	8d 8d d8 7f ff
	ff		 lea	 ecx, DWORD PTR _kPacket$[ebp]
  00108	e8 00 00 00 00	 call	 ??1SP2Packet@@UAE@XZ	; SP2Packet::~SP2Packet
  0010d	8b 4d f4	 mov	 ecx, DWORD PTR __$EHRec$[ebp]
  00110	64 89 0d 00 00
	00 00		 mov	 DWORD PTR fs:0, ecx
  00117	59		 pop	 ecx
  00118	5f		 pop	 edi
  00119	5e		 pop	 esi
  0011a	5b		 pop	 ebx
  0011b	8b 4d f0	 mov	 ecx, DWORD PTR __$ArrayPad$[ebp]
  0011e	33 cd		 xor	 ecx, ebp
  00120	e8 00 00 00 00	 call	 @__security_check_cookie@4
  00125	c9		 leave
  00126	c3		 ret	 0
_TEXT	ENDS
;	COMDAT text$x
text$x	SEGMENT
__unwindfunclet$?iwm_hide@LobbyMainWnd@@UAEXXZ$0:
  00000	8d 8d c8 7f ff
	ff		 lea	 ecx, DWORD PTR $T537936[ebp]
  00006	ff 25 00 00 00
	00		 jmp	 DWORD PTR __imp_??1ioHashString@@QAE@XZ
__unwindfunclet$?iwm_hide@LobbyMainWnd@@UAEXXZ$1:
  0000c	8d 8d d8 7f ff
	ff		 lea	 ecx, DWORD PTR _kPacket$[ebp]
  00012	e9 00 00 00 00	 jmp	 ??1SP2Packet@@UAE@XZ	; SP2Packet::~SP2Packet
__ehhandler$?iwm_hide@LobbyMainWnd@@UAEXXZ:
  00017	8b 54 24 08	 mov	 edx, DWORD PTR [esp+8]
  0001b	8d 42 0c	 lea	 eax, DWORD PTR [edx+12]
  0001e	8b 8a c4 7f ff
	ff		 mov	 ecx, DWORD PTR [edx-32828]
  00024	33 c8		 xor	 ecx, eax
  00026	e8 00 00 00 00	 call	 @__security_check_cookie@4
  0002b	8b 4a fc	 mov	 ecx, DWORD PTR [edx-4]
  0002e	33 c8		 xor	 ecx, eax
  00030	e8 00 00 00 00	 call	 @__security_check_cookie@4
  00035	b8 00 00 00 00	 mov	 eax, OFFSET __ehfuncinfo$?iwm_hide@LobbyMainWnd@@UAEXXZ
  0003a	e9 00 00 00 00	 jmp	 ___CxxFrameHandler3
text$x	ENDS
?iwm_hide@LobbyMainWnd@@UAEXXZ ENDP			; LobbyMainWnd::iwm_hide
PUBLIC	??_R0?AVModeHelpTooltip@@@8			; ModeHelpTooltip `RTTI Type Descriptor'
PUBLIC	?SetModeHelpTooltip@LobbyMainWnd@@QAEXPAVioWnd@@ABVioHashString@@H@Z ; LobbyMainWnd::SetModeHelpTooltip
;	COMDAT ??_R0?AVModeHelpTooltip@@@8
_DATA	SEGMENT
??_R0?AVModeHelpTooltip@@@8 DD FLAT:??_7type_info@@6B@	; ModeHelpTooltip `RTTI Type Descriptor'
	DD	00H
	DB	'.?AVModeHelpTooltip@@', 00H
; Function compile flags: /Ogsp
_DATA	ENDS
;	COMDAT ?SetModeHelpTooltip@LobbyMainWnd@@QAEXPAVioWnd@@ABVioHashString@@H@Z
_TEXT	SEGMENT
_pCallWnd$ = 8						; size = 4
_szTitle$ = 12						; size = 4
_iQuickstartModeHelpIndex$ = 16				; size = 4
?SetModeHelpTooltip@LobbyMainWnd@@QAEXPAVioWnd@@ABVioHashString@@H@Z PROC ; LobbyMainWnd::SetModeHelpTooltip, COMDAT
; _this$ = ecx

; 1471 : {

  00000	55		 push	 ebp
  00001	8b ec		 mov	 ebp, esp
  00003	53		 push	 ebx
  00004	56		 push	 esi
  00005	8b f1		 mov	 esi, ecx

; 1472 : 	if( m_pModeHelpTooltip == NULL )

  00007	33 c0		 xor	 eax, eax
  00009	57		 push	 edi
  0000a	bb 00 00 00 00	 mov	 ebx, OFFSET ??_R0?AVModeHelpTooltip@@@8
  0000f	bf 00 00 00 00	 mov	 edi, OFFSET ??_R0?AVioWnd@@@8
  00014	39 86 9c 01 00
	00		 cmp	 DWORD PTR [esi+412], eax
  0001a	75 20		 jne	 SHORT $LN2@SetModeHel

; 1473 : 		m_pModeHelpTooltip = dynamic_cast< ModeHelpTooltip * >( FindChildWnd( ID_MODE_HELP_TOOLTIP ) );

  0001c	50		 push	 eax
  0001d	53		 push	 ebx
  0001e	57		 push	 edi
  0001f	50		 push	 eax
  00020	68 f4 01 00 00	 push	 500			; 000001f4H
  00025	ff 15 00 00 00
	00		 call	 DWORD PTR __imp_?FindChildWnd@ioWnd@@QAEPAV1@K@Z
  0002b	50		 push	 eax
  0002c	e8 00 00 00 00	 call	 ___RTDynamicCast
  00031	83 c4 14	 add	 esp, 20			; 00000014H
  00034	89 86 9c 01 00
	00		 mov	 DWORD PTR [esi+412], eax
  0003a	33 c0		 xor	 eax, eax
$LN2@SetModeHel:

; 1474 : 
; 1475 : 	ModeHelpTooltip *pModeHelpTooltip = dynamic_cast< ModeHelpTooltip * >( m_pModeHelpTooltip );	

  0003c	50		 push	 eax
  0003d	53		 push	 ebx
  0003e	57		 push	 edi
  0003f	50		 push	 eax
  00040	ff b6 9c 01 00
	00		 push	 DWORD PTR [esi+412]
  00046	e8 00 00 00 00	 call	 ___RTDynamicCast
  0004b	83 c4 14	 add	 esp, 20			; 00000014H
  0004e	5f		 pop	 edi
  0004f	5e		 pop	 esi
  00050	5b		 pop	 ebx

; 1476 : 	if( pModeHelpTooltip )

  00051	85 c0		 test	 eax, eax
  00053	74 08		 je	 SHORT $LN1@SetModeHel

; 1477 : 	{
; 1478 : 		pModeHelpTooltip->SetModeHelpTooltip(  pCallWnd, szTitle, iQuickstartModeHelpIndex );

  00055	8b c8		 mov	 ecx, eax

; 1479 : 	}	
; 1480 : }

  00057	5d		 pop	 ebp

; 1477 : 	{
; 1478 : 		pModeHelpTooltip->SetModeHelpTooltip(  pCallWnd, szTitle, iQuickstartModeHelpIndex );

  00058	e9 00 00 00 00	 jmp	 ?SetModeHelpTooltip@ModeHelpTooltip@@QAEXPAVioWnd@@ABVioHashString@@H@Z ; ModeHelpTooltip::SetModeHelpTooltip
$LN1@SetModeHel:

; 1479 : 	}	
; 1480 : }

  0005d	5d		 pop	 ebp
  0005e	c2 0c 00	 ret	 12			; 0000000cH
?SetModeHelpTooltip@LobbyMainWnd@@QAEXPAVioWnd@@ABVioHashString@@H@Z ENDP ; LobbyMainWnd::SetModeHelpTooltip
_TEXT	ENDS
PUBLIC	?SetQuickJoinTooltip@LobbyMainWnd@@QAEXPAVioWnd@@H@Z ; LobbyMainWnd::SetQuickJoinTooltip
; Function compile flags: /Ogsp
;	COMDAT ?SetQuickJoinTooltip@LobbyMainWnd@@QAEXPAVioWnd@@H@Z
_TEXT	SEGMENT
_pCallWnd$ = 8						; size = 4
_nMode$ = 12						; size = 4
?SetQuickJoinTooltip@LobbyMainWnd@@QAEXPAVioWnd@@H@Z PROC ; LobbyMainWnd::SetQuickJoinTooltip, COMDAT
; _this$ = ecx

; 1483 : {

  00000	55		 push	 ebp
  00001	8b ec		 mov	 ebp, esp
  00003	56		 push	 esi

; 1484 : 	if( m_pQuickJoinTooltip == NULL )

  00004	8d b1 a0 01 00
	00		 lea	 esi, DWORD PTR [ecx+416]
  0000a	83 3e 00	 cmp	 DWORD PTR [esi], 0
  0000d	75 0d		 jne	 SHORT $LN2@SetQuickJo

; 1485 : 		m_pQuickJoinTooltip = (CQuickModeToolTip*)( FindChildWnd( ID_QUICKJOIN_TOOLTIP ) );

  0000f	68 f5 01 00 00	 push	 501			; 000001f5H
  00014	ff 15 00 00 00
	00		 call	 DWORD PTR __imp_?FindChildWnd@ioWnd@@QAEPAV1@K@Z
  0001a	89 06		 mov	 DWORD PTR [esi], eax
$LN2@SetQuickJo:

; 1486 : 
; 1487 : 	CQuickModeToolTip *pQuickTooltip = (CQuickModeToolTip*)( m_pQuickJoinTooltip );

  0001c	8b 0e		 mov	 ecx, DWORD PTR [esi]
  0001e	5e		 pop	 esi

; 1488 : 	if( pQuickTooltip )

  0001f	85 c9		 test	 ecx, ecx
  00021	74 06		 je	 SHORT $LN1@SetQuickJo

; 1490 : }

  00023	5d		 pop	 ebp

; 1489 : 		pQuickTooltip->SetModeHelpTooltip(pCallWnd, nMode);

  00024	e9 00 00 00 00	 jmp	 ?SetModeHelpTooltip@CQuickModeToolTip@@QAEXPAVioWnd@@H@Z ; CQuickModeToolTip::SetModeHelpTooltip
$LN1@SetQuickJo:

; 1490 : }

  00029	5d		 pop	 ebp
  0002a	c2 08 00	 ret	 8
?SetQuickJoinTooltip@LobbyMainWnd@@QAEXPAVioWnd@@H@Z ENDP ; LobbyMainWnd::SetQuickJoinTooltip
_TEXT	ENDS
PUBLIC	?SetShuffleToolTip@LobbyMainWnd@@QAEX_N@Z	; LobbyMainWnd::SetShuffleToolTip
; Function compile flags: /Ogsp
;	COMDAT ?SetShuffleToolTip@LobbyMainWnd@@QAEX_N@Z
_TEXT	SEGMENT
_bShow$ = 8						; size = 1
?SetShuffleToolTip@LobbyMainWnd@@QAEX_N@Z PROC		; LobbyMainWnd::SetShuffleToolTip, COMDAT
; _this$ = ecx

; 1493 : {

  00000	55		 push	 ebp
  00001	8b ec		 mov	 ebp, esp

; 1494 : 	if( bShow )

  00003	80 7d 08 00	 cmp	 BYTE PTR _bShow$[ebp], 0
  00007	56		 push	 esi
  00008	74 27		 je	 SHORT $LN3@SetShuffle

; 1495 : 	{
; 1496 : 		ioWnd *pWnd = FindChildWnd( ID_SHUFFLE_TOOLTIP );

  0000a	68 f6 01 00 00	 push	 502			; 000001f6H
  0000f	ff 15 00 00 00
	00		 call	 DWORD PTR __imp_?FindChildWnd@ioWnd@@QAEPAV1@K@Z
  00015	8b f0		 mov	 esi, eax

; 1497 : 		if( pWnd && !pWnd->IsShow() )

  00017	85 f6		 test	 esi, esi
  00019	74 23		 je	 SHORT $LN1@SetShuffle
  0001b	8b ce		 mov	 ecx, esi
  0001d	ff 15 00 00 00
	00		 call	 DWORD PTR __imp_?IsShow@ioWnd@@QBE_NXZ
  00023	84 c0		 test	 al, al
  00025	75 17		 jne	 SHORT $LN1@SetShuffle

; 1498 : 			pWnd->ShowWnd();

  00027	8b ce		 mov	 ecx, esi
  00029	ff 15 00 00 00
	00		 call	 DWORD PTR __imp_?ShowWnd@ioWnd@@QAEXXZ

; 1499 : 	}
; 1500 : 	else

  0002f	eb 0d		 jmp	 SHORT $LN1@SetShuffle
$LN3@SetShuffle:

; 1501 : 	{
; 1502 : 		HideChildWnd( ID_SHUFFLE_TOOLTIP );

  00031	6a 00		 push	 0
  00033	68 f6 01 00 00	 push	 502			; 000001f6H
  00038	ff 15 00 00 00
	00		 call	 DWORD PTR __imp_?HideChildWnd@ioWnd@@QAEXK_N@Z
$LN1@SetShuffle:
  0003e	5e		 pop	 esi

; 1503 : 	}
; 1504 : }

  0003f	5d		 pop	 ebp
  00040	c2 04 00	 ret	 4
?SetShuffleToolTip@LobbyMainWnd@@QAEX_N@Z ENDP		; LobbyMainWnd::SetShuffleToolTip
; Function compile flags: /Ogsp
_TEXT	ENDS
;	COMDAT ?iwm_esc@LobbyMainWnd@@UAE_NXZ
_TEXT	SEGMENT
?iwm_esc@LobbyMainWnd@@UAE_NXZ PROC			; LobbyMainWnd::iwm_esc, COMDAT
; _this$ = ecx

; 1507 : {

  00000	56		 push	 esi

; 1508 : 	LobbyChatWnd *pChatWnd = dynamic_cast<LobbyChatWnd*>( FindChildWnd(ID_CHAT_WND) );

  00001	6a 00		 push	 0
  00003	68 00 00 00 00	 push	 OFFSET ??_R0?AVLobbyChatWnd@@@8
  00008	68 00 00 00 00	 push	 OFFSET ??_R0?AVioWnd@@@8
  0000d	6a 00		 push	 0
  0000f	6a 02		 push	 2
  00011	ff 15 00 00 00
	00		 call	 DWORD PTR __imp_?FindChildWnd@ioWnd@@QAEPAV1@K@Z
  00017	50		 push	 eax
  00018	e8 00 00 00 00	 call	 ___RTDynamicCast
  0001d	8b f0		 mov	 esi, eax
  0001f	83 c4 14	 add	 esp, 20			; 00000014H

; 1509 : 	if( pChatWnd && pChatWnd->IsShow() )

  00022	85 f6		 test	 esi, esi
  00024	74 17		 je	 SHORT $LN1@iwm_esc@2
  00026	8b ce		 mov	 ecx, esi
  00028	ff 15 00 00 00
	00		 call	 DWORD PTR __imp_?IsShow@ioWnd@@QBE_NXZ
  0002e	84 c0		 test	 al, al
  00030	74 0b		 je	 SHORT $LN1@iwm_esc@2

; 1510 : 		return pChatWnd->iwm_esc();

  00032	8b 06		 mov	 eax, DWORD PTR [esi]
  00034	8b ce		 mov	 ecx, esi
  00036	5e		 pop	 esi
  00037	ff a0 ac 00 00
	00		 jmp	 DWORD PTR [eax+172]
$LN1@iwm_esc@2:

; 1511 : 	return false;

  0003d	32 c0		 xor	 al, al
  0003f	5e		 pop	 esi

; 1512 : }

  00040	c3		 ret	 0
?iwm_esc@LobbyMainWnd@@UAE_NXZ ENDP			; LobbyMainWnd::iwm_esc
_TEXT	ENDS
EXTRN	__imp_?SetPositionToDefault@ioMovingWnd@@UAEXHH_N0@Z:PROC
; Function compile flags: /Ogsp
;	COMDAT ?SetPositionToDefault@LobbyMainWnd@@UAEXHH_N0@Z
_TEXT	SEGMENT
_iParentWidth$ = 8					; size = 4
_iParentHeight$ = 12					; size = 4
_bChildMove$ = 16					; size = 1
_bCreate$ = 20						; size = 1
?SetPositionToDefault@LobbyMainWnd@@UAEXHH_N0@Z PROC	; LobbyMainWnd::SetPositionToDefault, COMDAT
; _this$ = ecx

; 1556 : {

  00000	55		 push	 ebp
  00001	8b ec		 mov	 ebp, esp
  00003	56		 push	 esi

; 1557 : 	ioMovingWnd::SetPositionToDefault( iParentWidth, iParentHeight, bChildMove, bCreate );

  00004	ff 75 14	 push	 DWORD PTR _bCreate$[ebp]
  00007	8b f1		 mov	 esi, ecx
  00009	ff 75 10	 push	 DWORD PTR _bChildMove$[ebp]
  0000c	ff 75 0c	 push	 DWORD PTR _iParentHeight$[ebp]
  0000f	ff 75 08	 push	 DWORD PTR _iParentWidth$[ebp]
  00012	ff 15 00 00 00
	00		 call	 DWORD PTR __imp_?SetPositionToDefault@ioMovingWnd@@UAEXHH_N0@Z

; 1558 : 
; 1559 : 	if( !bCreate )

  00018	80 7d 14 00	 cmp	 BYTE PTR _bCreate$[ebp], 0
  0001c	75 1c		 jne	 SHORT $LN1@SetPositio

; 1560 : 	{
; 1561 : 		m_iDefaultX = GetXPos();

  0001e	8b ce		 mov	 ecx, esi
  00020	ff 15 00 00 00
	00		 call	 DWORD PTR __imp_?GetXPos@ioWnd@@QBEHXZ

; 1562 : 		m_iDefaultY = GetYPos();

  00026	8b ce		 mov	 ecx, esi
  00028	89 86 90 01 00
	00		 mov	 DWORD PTR [esi+400], eax
  0002e	ff 15 00 00 00
	00		 call	 DWORD PTR __imp_?GetYPos@ioWnd@@QBEHXZ
  00034	89 86 94 01 00
	00		 mov	 DWORD PTR [esi+404], eax
$LN1@SetPositio:
  0003a	5e		 pop	 esi

; 1563 : 	}
; 1564 : }

  0003b	5d		 pop	 ebp
  0003c	c2 10 00	 ret	 16			; 00000010H
?SetPositionToDefault@LobbyMainWnd@@UAEXHH_N0@Z ENDP	; LobbyMainWnd::SetPositionToDefault
_TEXT	ENDS
PUBLIC	??_C@_05DNIIFBMG@?$CFs?5?$CFs?$AA@		; `string'
PUBLIC	??_C@_0CA@KOGEAFDO@LobbyMainWnd?3?3PlayBackgroundOGG?$AA@ ; `string'
PUBLIC	??_C@_0CN@GMNFKGGD@There?5are?5?$CFd?5free?5Mbytes?5of?5exte@ ; `string'
PUBLIC	??_C@_0CM@JDEOAGKO@There?5are?5?$CFd?5free?5Mbytes?5of?5virt@ ; `string'
PUBLIC	??_C@_0CN@BMCLKNEO@There?5are?5?$CFd?5total?5Mbytes?5of?5vir@ ; `string'
PUBLIC	??_C@_0CJ@DAJMLJFP@There?5are?5?$CFd?5free?5Mbytes?5of?5pagi@ ; `string'
PUBLIC	??_C@_0CK@JKOIEDHH@There?5are?5?$CFd?5total?5Mbytes?5of?5pag@ ; `string'
PUBLIC	??_C@_0CN@KBJGDEHL@There?5are?5?$CFd?5free?5Mbytes?5of?5phys@ ; `string'
PUBLIC	??_C@_0CO@BBDLDKI@There?5are?5?$CFd?5total?5Mbytes?5of?5phy@ ; `string'
PUBLIC	??_C@_0CH@JECOCODG@There?5is?5?5?$CFd?5percent?5of?5memory?5i@ ; `string'
PUBLIC	??_C@_0BB@CPGJMDHL@Resource?1wave?1?$CFs?$AA@	; `string'
PUBLIC	_this$GSCopy$
PUBLIC	?PlayBackgroundOGG@LobbyMainWnd@@QAEXXZ		; LobbyMainWnd::PlayBackgroundOGG
EXTRN	__imp_?PrintTimeAndLog@CLog@@QAAXHPADZZ:PROC
EXTRN	__imp_?LOG@@3VCLog@@A:BYTE
EXTRN	__imp__GlobalMemoryStatusEx@4:PROC
EXTRN	__imp_?PlayStream@ioSoundManager@@QAEX_N@Z:PROC
EXTRN	__imp_?OpenOggStream@ioSoundManager@@QAEXPBD@Z:PROC
EXTRN	__imp__sprintf:PROC
EXTRN	__imp_?c_str@ioHashString@@QBEPBDXZ:PROC
EXTRN	__imp_?IsEmpty@ioHashString@@QBE_NXZ:PROC
EXTRN	__SEH_epilog4_GS:PROC
EXTRN	__except_handler4:PROC
EXTRN	__SEH_prolog4_GS:PROC
;	COMDAT ??_C@_05DNIIFBMG@?$CFs?5?$CFs?$AA@
CONST	SEGMENT
??_C@_05DNIIFBMG@?$CFs?5?$CFs?$AA@ DB '%s %s', 00H	; `string'
CONST	ENDS
;	COMDAT ??_C@_0CA@KOGEAFDO@LobbyMainWnd?3?3PlayBackgroundOGG?$AA@
CONST	SEGMENT
??_C@_0CA@KOGEAFDO@LobbyMainWnd?3?3PlayBackgroundOGG?$AA@ DB 'LobbyMainWn'
	DB	'd::PlayBackgroundOGG', 00H			; `string'
CONST	ENDS
;	COMDAT ??_C@_0CN@GMNFKGGD@There?5are?5?$CFd?5free?5Mbytes?5of?5exte@
CONST	SEGMENT
??_C@_0CN@GMNFKGGD@There?5are?5?$CFd?5free?5Mbytes?5of?5exte@ DB 'There a'
	DB	're %d free Mbytes of extended memory.', 00H	; `string'
CONST	ENDS
;	COMDAT ??_C@_0CM@JDEOAGKO@There?5are?5?$CFd?5free?5Mbytes?5of?5virt@
CONST	SEGMENT
??_C@_0CM@JDEOAGKO@There?5are?5?$CFd?5free?5Mbytes?5of?5virt@ DB 'There a'
	DB	're %d free Mbytes of virtual memory.', 00H	; `string'
CONST	ENDS
;	COMDAT ??_C@_0CN@BMCLKNEO@There?5are?5?$CFd?5total?5Mbytes?5of?5vir@
CONST	SEGMENT
??_C@_0CN@BMCLKNEO@There?5are?5?$CFd?5total?5Mbytes?5of?5vir@ DB 'There a'
	DB	're %d total Mbytes of virtual memory.', 00H	; `string'
CONST	ENDS
;	COMDAT ??_C@_0CJ@DAJMLJFP@There?5are?5?$CFd?5free?5Mbytes?5of?5pagi@
CONST	SEGMENT
??_C@_0CJ@DAJMLJFP@There?5are?5?$CFd?5free?5Mbytes?5of?5pagi@ DB 'There a'
	DB	're %d free Mbytes of paging file.', 00H	; `string'
CONST	ENDS
;	COMDAT ??_C@_0CK@JKOIEDHH@There?5are?5?$CFd?5total?5Mbytes?5of?5pag@
CONST	SEGMENT
??_C@_0CK@JKOIEDHH@There?5are?5?$CFd?5total?5Mbytes?5of?5pag@ DB 'There a'
	DB	're %d total Mbytes of paging file.', 00H	; `string'
CONST	ENDS
;	COMDAT ??_C@_0CN@KBJGDEHL@There?5are?5?$CFd?5free?5Mbytes?5of?5phys@
CONST	SEGMENT
??_C@_0CN@KBJGDEHL@There?5are?5?$CFd?5free?5Mbytes?5of?5phys@ DB 'There a'
	DB	're %d free Mbytes of physical memory.', 00H	; `string'
CONST	ENDS
;	COMDAT ??_C@_0CO@BBDLDKI@There?5are?5?$CFd?5total?5Mbytes?5of?5phy@
CONST	SEGMENT
??_C@_0CO@BBDLDKI@There?5are?5?$CFd?5total?5Mbytes?5of?5phy@ DB 'There ar'
	DB	'e %d total Mbytes of physical memory.', 00H	; `string'
CONST	ENDS
;	COMDAT ??_C@_0CH@JECOCODG@There?5is?5?5?$CFd?5percent?5of?5memory?5i@
CONST	SEGMENT
??_C@_0CH@JECOCODG@There?5is?5?5?$CFd?5percent?5of?5memory?5i@ DB 'There '
	DB	'is  %d percent of memory in use.', 00H	; `string'
CONST	ENDS
;	COMDAT ??_C@_0BB@CPGJMDHL@Resource?1wave?1?$CFs?$AA@
CONST	SEGMENT
??_C@_0BB@CPGJMDHL@Resource?1wave?1?$CFs?$AA@ DB 'Resource/wave/%s', 00H ; `string'
CONST	ENDS
;	COMDAT xdata$x
xdata$x	SEGMENT
__sehtable$?PlayBackgroundOGG@LobbyMainWnd@@QAEXXZ DD 0ffffffe4H
	DD	00H
	DD	0fffffe8cH
	DD	00H
	DD	0fffffffeH
	DD	FLAT:$LN7@PlayBackgr
	DD	FLAT:$LN8@PlayBackgr
; Function compile flags: /Ogsp
xdata$x	ENDS
;	COMDAT ?PlayBackgroundOGG@LobbyMainWnd@@QAEXXZ
_TEXT	SEGMENT
_this$GSCopy$ = -356					; size = 4
_statex$534395 = -352					; size = 64
_szName$534392 = -288					; size = 260
__$ArrayPad$ = -28					; size = 4
__$SEHRec$ = -24					; size = 24
?PlayBackgroundOGG@LobbyMainWnd@@QAEXXZ PROC		; LobbyMainWnd::PlayBackgroundOGG, COMDAT
; _this$ = ecx

; 1567 : {

  00000	68 54 01 00 00	 push	 340			; 00000154H
  00005	68 00 00 00 00	 push	 OFFSET __sehtable$?PlayBackgroundOGG@LobbyMainWnd@@QAEXXZ
  0000a	e8 00 00 00 00	 call	 __SEH_prolog4_GS
  0000f	8b f1		 mov	 esi, ecx

; 1568 : 	if( !IsShow() )

  00011	89 b5 9c fe ff
	ff		 mov	 DWORD PTR _this$GSCopy$[ebp], esi
  00017	ff 15 00 00 00
	00		 call	 DWORD PTR __imp_?IsShow@ioWnd@@QBE_NXZ
  0001d	84 c0		 test	 al, al
  0001f	0f 84 cf 01 00
	00		 je	 $LN10@PlayBackgr

; 1569 : 		return;
; 1570 : 
; 1571 : 	if( !m_szBackOgg.IsEmpty() )

  00025	8d be 4c 02 00
	00		 lea	 edi, DWORD PTR [esi+588]
  0002b	8b cf		 mov	 ecx, edi
  0002d	ff 15 00 00 00
	00		 call	 DWORD PTR __imp_?IsEmpty@ioHashString@@QBE_NXZ
  00033	84 c0		 test	 al, al
  00035	0f 85 b9 01 00
	00		 jne	 $LN10@PlayBackgr

; 1572 : 	{
; 1573 : 		g_SoundMgr.StopStream();

  0003b	8b 35 00 00 00
	00		 mov	 esi, DWORD PTR __imp_?GetSingleton@ioSoundManager@@SAAAV1@XZ
  00041	ff d6		 call	 esi
  00043	8b c8		 mov	 ecx, eax
  00045	ff 15 00 00 00
	00		 call	 DWORD PTR __imp_?StopStream@ioSoundManager@@QAEXXZ

; 1574 : 
; 1575 : 		char szName[MAX_PATH];
; 1576 : 		sprintf( szName, "Resource/wave/%s", m_szBackOgg.c_str() );

  0004b	8b cf		 mov	 ecx, edi
  0004d	ff 15 00 00 00
	00		 call	 DWORD PTR __imp_?c_str@ioHashString@@QBEPBDXZ
  00053	50		 push	 eax
  00054	68 00 00 00 00	 push	 OFFSET ??_C@_0BB@CPGJMDHL@Resource?1wave?1?$CFs?$AA@
  00059	8d 85 e0 fe ff
	ff		 lea	 eax, DWORD PTR _szName$534392[ebp]
  0005f	50		 push	 eax
  00060	ff 15 00 00 00
	00		 call	 DWORD PTR __imp__sprintf
  00066	83 c4 0c	 add	 esp, 12			; 0000000cH

; 1577 : 
; 1578 : 		__try

  00069	83 65 fc 00	 and	 DWORD PTR __$SEHRec$[ebp+20], 0

; 1579 : 		{
; 1580 : 			g_SoundMgr.OpenOggStream( szName );

  0006d	8d 85 e0 fe ff
	ff		 lea	 eax, DWORD PTR _szName$534392[ebp]
  00073	50		 push	 eax
  00074	ff d6		 call	 esi
  00076	8b c8		 mov	 ecx, eax
  00078	ff 15 00 00 00
	00		 call	 DWORD PTR __imp_?OpenOggStream@ioSoundManager@@QAEXPBD@Z

; 1581 : 			g_SoundMgr.PlayStream( true );

  0007e	6a 01		 push	 1
  00080	ff d6		 call	 esi
  00082	8b c8		 mov	 ecx, eax
  00084	ff 15 00 00 00
	00		 call	 DWORD PTR __imp_?PlayStream@ioSoundManager@@QAEX_N@Z

; 1582 : 		}

  0008a	e9 5e 01 00 00	 jmp	 $LN12@PlayBackgr
$LN7@PlayBackgr:
$LN13@PlayBackgr:

; 1583 : 		__except( EXCEPTION_EXECUTE_HANDLER )

  0008f	33 c0		 xor	 eax, eax
  00091	40		 inc	 eax
$LN11@PlayBackgr:
$LN9@PlayBackgr:
  00092	c3		 ret	 0
$LN8@PlayBackgr:
  00093	8b 65 e8	 mov	 esp, DWORD PTR __$SEHRec$[ebp]

; 1584 : 		{
; 1585 : 			MEMORYSTATUSEX statex;
; 1586 : 			statex.dwLength = sizeof (statex);

  00096	c7 85 a0 fe ff
	ff 40 00 00 00	 mov	 DWORD PTR _statex$534395[ebp], 64 ; 00000040H

; 1587 : 			GlobalMemoryStatusEx (&statex);

  000a0	8d 85 a0 fe ff
	ff		 lea	 eax, DWORD PTR _statex$534395[ebp]
  000a6	50		 push	 eax
  000a7	ff 15 00 00 00
	00		 call	 DWORD PTR __imp__GlobalMemoryStatusEx@4

; 1588 : 
; 1589 : 			LOG.PrintTimeAndLog(0, ("There is  %d percent of memory in use."),statex.dwMemoryLoad);

  000ad	ff b5 a4 fe ff
	ff		 push	 DWORD PTR _statex$534395[ebp+4]
  000b3	68 00 00 00 00	 push	 OFFSET ??_C@_0CH@JECOCODG@There?5is?5?5?$CFd?5percent?5of?5memory?5i@
  000b8	33 ff		 xor	 edi, edi
  000ba	57		 push	 edi
  000bb	ff 35 00 00 00
	00		 push	 DWORD PTR __imp_?LOG@@3VCLog@@A
  000c1	8b 35 00 00 00
	00		 mov	 esi, DWORD PTR __imp_?PrintTimeAndLog@CLog@@QAAXHPADZZ
  000c7	ff d6		 call	 esi

; 1590 : 			LOG.PrintTimeAndLog(0, ("There are %d total Mbytes of physical memory."),statex.ullTotalPhys/1048576);

  000c9	8b 85 a8 fe ff
	ff		 mov	 eax, DWORD PTR _statex$534395[ebp+8]
  000cf	8b 8d ac fe ff
	ff		 mov	 ecx, DWORD PTR _statex$534395[ebp+12]
  000d5	0f ac c8 14	 shrd	 eax, ecx, 20
  000d9	c1 e9 14	 shr	 ecx, 20			; 00000014H
  000dc	51		 push	 ecx
  000dd	50		 push	 eax
  000de	68 00 00 00 00	 push	 OFFSET ??_C@_0CO@BBDLDKI@There?5are?5?$CFd?5total?5Mbytes?5of?5phy@
  000e3	57		 push	 edi
  000e4	ff 35 00 00 00
	00		 push	 DWORD PTR __imp_?LOG@@3VCLog@@A
  000ea	ff d6		 call	 esi

; 1591 : 			LOG.PrintTimeAndLog(0, ("There are %d free Mbytes of physical memory."), statex.ullAvailPhys/1048576);

  000ec	8b 85 b0 fe ff
	ff		 mov	 eax, DWORD PTR _statex$534395[ebp+16]
  000f2	8b 8d b4 fe ff
	ff		 mov	 ecx, DWORD PTR _statex$534395[ebp+20]
  000f8	0f ac c8 14	 shrd	 eax, ecx, 20
  000fc	c1 e9 14	 shr	 ecx, 20			; 00000014H
  000ff	51		 push	 ecx
  00100	50		 push	 eax
  00101	68 00 00 00 00	 push	 OFFSET ??_C@_0CN@KBJGDEHL@There?5are?5?$CFd?5free?5Mbytes?5of?5phys@
  00106	57		 push	 edi
  00107	ff 35 00 00 00
	00		 push	 DWORD PTR __imp_?LOG@@3VCLog@@A
  0010d	ff d6		 call	 esi

; 1592 : 			LOG.PrintTimeAndLog(0, ("There are %d total Mbytes of paging file."), statex.ullTotalPageFile/1048576);

  0010f	8b 85 b8 fe ff
	ff		 mov	 eax, DWORD PTR _statex$534395[ebp+24]
  00115	8b 8d bc fe ff
	ff		 mov	 ecx, DWORD PTR _statex$534395[ebp+28]
  0011b	0f ac c8 14	 shrd	 eax, ecx, 20
  0011f	c1 e9 14	 shr	 ecx, 20			; 00000014H
  00122	51		 push	 ecx
  00123	50		 push	 eax
  00124	68 00 00 00 00	 push	 OFFSET ??_C@_0CK@JKOIEDHH@There?5are?5?$CFd?5total?5Mbytes?5of?5pag@
  00129	57		 push	 edi
  0012a	ff 35 00 00 00
	00		 push	 DWORD PTR __imp_?LOG@@3VCLog@@A
  00130	ff d6		 call	 esi
  00132	83 c4 4c	 add	 esp, 76			; 0000004cH

; 1593 : 			LOG.PrintTimeAndLog(0, ("There are %d free Mbytes of paging file."), statex.ullAvailPageFile/1048576);

  00135	8b 85 c0 fe ff
	ff		 mov	 eax, DWORD PTR _statex$534395[ebp+32]
  0013b	8b 8d c4 fe ff
	ff		 mov	 ecx, DWORD PTR _statex$534395[ebp+36]
  00141	0f ac c8 14	 shrd	 eax, ecx, 20
  00145	c1 e9 14	 shr	 ecx, 20			; 00000014H
  00148	51		 push	 ecx
  00149	50		 push	 eax
  0014a	68 00 00 00 00	 push	 OFFSET ??_C@_0CJ@DAJMLJFP@There?5are?5?$CFd?5free?5Mbytes?5of?5pagi@
  0014f	57		 push	 edi
  00150	ff 35 00 00 00
	00		 push	 DWORD PTR __imp_?LOG@@3VCLog@@A
  00156	ff d6		 call	 esi

; 1594 : 			LOG.PrintTimeAndLog(0, ("There are %d total Mbytes of virtual memory."), statex.ullTotalVirtual/1048576);

  00158	8b 85 c8 fe ff
	ff		 mov	 eax, DWORD PTR _statex$534395[ebp+40]
  0015e	8b 8d cc fe ff
	ff		 mov	 ecx, DWORD PTR _statex$534395[ebp+44]
  00164	0f ac c8 14	 shrd	 eax, ecx, 20
  00168	c1 e9 14	 shr	 ecx, 20			; 00000014H
  0016b	51		 push	 ecx
  0016c	50		 push	 eax
  0016d	68 00 00 00 00	 push	 OFFSET ??_C@_0CN@BMCLKNEO@There?5are?5?$CFd?5total?5Mbytes?5of?5vir@
  00172	57		 push	 edi
  00173	ff 35 00 00 00
	00		 push	 DWORD PTR __imp_?LOG@@3VCLog@@A
  00179	ff d6		 call	 esi

; 1595 : 			LOG.PrintTimeAndLog(0, ("There are %d free Mbytes of virtual memory."), statex.ullAvailVirtual/1048576);

  0017b	8b 85 d0 fe ff
	ff		 mov	 eax, DWORD PTR _statex$534395[ebp+48]
  00181	8b 8d d4 fe ff
	ff		 mov	 ecx, DWORD PTR _statex$534395[ebp+52]
  00187	0f ac c8 14	 shrd	 eax, ecx, 20
  0018b	c1 e9 14	 shr	 ecx, 20			; 00000014H
  0018e	51		 push	 ecx
  0018f	50		 push	 eax
  00190	68 00 00 00 00	 push	 OFFSET ??_C@_0CM@JDEOAGKO@There?5are?5?$CFd?5free?5Mbytes?5of?5virt@
  00195	57		 push	 edi
  00196	ff 35 00 00 00
	00		 push	 DWORD PTR __imp_?LOG@@3VCLog@@A
  0019c	ff d6		 call	 esi

; 1596 : 			LOG.PrintTimeAndLog(0, ("There are %d free Mbytes of extended memory."), statex.ullAvailExtendedVirtual/1048576);

  0019e	8b 85 d8 fe ff
	ff		 mov	 eax, DWORD PTR _statex$534395[ebp+56]
  001a4	8b 8d dc fe ff
	ff		 mov	 ecx, DWORD PTR _statex$534395[ebp+60]
  001aa	0f ac c8 14	 shrd	 eax, ecx, 20
  001ae	c1 e9 14	 shr	 ecx, 20			; 00000014H
  001b1	51		 push	 ecx
  001b2	50		 push	 eax
  001b3	68 00 00 00 00	 push	 OFFSET ??_C@_0CN@GMNFKGGD@There?5are?5?$CFd?5free?5Mbytes?5of?5exte@
  001b8	57		 push	 edi
  001b9	ff 35 00 00 00
	00		 push	 DWORD PTR __imp_?LOG@@3VCLog@@A
  001bf	ff d6		 call	 esi
  001c1	83 c4 50	 add	 esp, 80			; 00000050H

; 1597 : 
; 1598 : 			LOG.PrintTimeAndLog( 0, "%s %s", __FUNCTION__, m_szBackOgg.c_str() );

  001c4	8b 8d 9c fe ff
	ff		 mov	 ecx, DWORD PTR _this$GSCopy$[ebp]
  001ca	81 c1 4c 02 00
	00		 add	 ecx, 588		; 0000024cH
  001d0	ff 15 00 00 00
	00		 call	 DWORD PTR __imp_?c_str@ioHashString@@QBEPBDXZ
  001d6	50		 push	 eax
  001d7	68 00 00 00 00	 push	 OFFSET ??_C@_0CA@KOGEAFDO@LobbyMainWnd?3?3PlayBackgroundOGG?$AA@
  001dc	68 00 00 00 00	 push	 OFFSET ??_C@_05DNIIFBMG@?$CFs?5?$CFs?$AA@
  001e1	57		 push	 edi
  001e2	ff 35 00 00 00
	00		 push	 DWORD PTR __imp_?LOG@@3VCLog@@A
  001e8	ff d6		 call	 esi
  001ea	83 c4 14	 add	 esp, 20			; 00000014H
$LN12@PlayBackgr:

; 1599 : 		}

  001ed	c7 45 fc fe ff
	ff ff		 mov	 DWORD PTR __$SEHRec$[ebp+20], -2 ; fffffffeH
$LN10@PlayBackgr:

; 1600 : 	}
; 1601 : }

  001f4	e8 00 00 00 00	 call	 __SEH_epilog4_GS
  001f9	c3		 ret	 0
?PlayBackgroundOGG@LobbyMainWnd@@QAEXXZ ENDP		; LobbyMainWnd::PlayBackgroundOGG
_TEXT	ENDS
EXTRN	?RenderBackground@ioInterfaceBackground@@QAEXXZ:PROC ; ioInterfaceBackground::RenderBackground
; Function compile flags: /Ogsp
;	COMDAT ?OnRender@LobbyMainWnd@@MAEXXZ
_TEXT	SEGMENT
?OnRender@LobbyMainWnd@@MAEXXZ PROC			; LobbyMainWnd::OnRender, COMDAT
; _this$ = ecx

; 1747 : 	g_BackgroundMgr.RenderBackground();

  00000	e8 00 00 00 00	 call	 ?GetSingleton@ioInterfaceBackground@@SAAAV1@XZ ; ioInterfaceBackground::GetSingleton
  00005	8b c8		 mov	 ecx, eax
  00007	e9 00 00 00 00	 jmp	 ?RenderBackground@ioInterfaceBackground@@QAEXXZ ; ioInterfaceBackground::RenderBackground
?OnRender@LobbyMainWnd@@MAEXXZ ENDP			; LobbyMainWnd::OnRender
_TEXT	ENDS
PUBLIC	?ApplyNormalTeamList@LobbyMainWnd@@QAEXAAVSP2Packet@@@Z ; LobbyMainWnd::ApplyNormalTeamList
; Function compile flags: /Ogsp
;	COMDAT ?ApplyNormalTeamList@LobbyMainWnd@@QAEXAAVSP2Packet@@@Z
_TEXT	SEGMENT
_rkPacket$ = 8						; size = 4
?ApplyNormalTeamList@LobbyMainWnd@@QAEXAAVSP2Packet@@@Z PROC ; LobbyMainWnd::ApplyNormalTeamList, COMDAT
; _this$ = ecx

; 1751 : {

  00000	55		 push	 ebp
  00001	8b ec		 mov	 ebp, esp

; 1752 : 	LobbyWnd *pLobbyWnd = dynamic_cast<LobbyWnd*>(FindChildWnd(ID_LOBBY_WND));

  00003	6a 00		 push	 0
  00005	68 00 00 00 00	 push	 OFFSET ??_R0?AVLobbyWnd@@@8
  0000a	68 00 00 00 00	 push	 OFFSET ??_R0?AVioWnd@@@8
  0000f	6a 00		 push	 0
  00011	6a 01		 push	 1
  00013	ff 15 00 00 00
	00		 call	 DWORD PTR __imp_?FindChildWnd@ioWnd@@QAEPAV1@K@Z
  00019	50		 push	 eax
  0001a	e8 00 00 00 00	 call	 ___RTDynamicCast
  0001f	83 c4 14	 add	 esp, 20			; 00000014H

; 1753 : 	if( pLobbyWnd )

  00022	85 c0		 test	 eax, eax
  00024	74 08		 je	 SHORT $LN1@ApplyNorma@2

; 1754 : 	{
; 1755 : 		pLobbyWnd->ApplyNormalTeamList( rkPacket );

  00026	8b c8		 mov	 ecx, eax

; 1756 : 	}
; 1757 : }

  00028	5d		 pop	 ebp

; 1754 : 	{
; 1755 : 		pLobbyWnd->ApplyNormalTeamList( rkPacket );

  00029	e9 00 00 00 00	 jmp	 ?ApplyNormalTeamList@LobbyWnd@@QAEXAAVSP2Packet@@@Z ; LobbyWnd::ApplyNormalTeamList
$LN1@ApplyNorma@2:

; 1756 : 	}
; 1757 : }

  0002e	5d		 pop	 ebp
  0002f	c2 04 00	 ret	 4
?ApplyNormalTeamList@LobbyMainWnd@@QAEXAAVSP2Packet@@@Z ENDP ; LobbyMainWnd::ApplyNormalTeamList
_TEXT	ENDS
PUBLIC	?ApplyPlazaList@LobbyMainWnd@@QAEXAAVSP2Packet@@@Z ; LobbyMainWnd::ApplyPlazaList
; Function compile flags: /Ogsp
;	COMDAT ?ApplyPlazaList@LobbyMainWnd@@QAEXAAVSP2Packet@@@Z
_TEXT	SEGMENT
_rkPacket$ = 8						; size = 4
?ApplyPlazaList@LobbyMainWnd@@QAEXAAVSP2Packet@@@Z PROC	; LobbyMainWnd::ApplyPlazaList, COMDAT
; _this$ = ecx

; 1760 : {

  00000	55		 push	 ebp
  00001	8b ec		 mov	 ebp, esp

; 1761 : 	LobbyWnd *pLobbyWnd = dynamic_cast<LobbyWnd*>(FindChildWnd(ID_LOBBY_WND));

  00003	6a 00		 push	 0
  00005	68 00 00 00 00	 push	 OFFSET ??_R0?AVLobbyWnd@@@8
  0000a	68 00 00 00 00	 push	 OFFSET ??_R0?AVioWnd@@@8
  0000f	6a 00		 push	 0
  00011	6a 01		 push	 1
  00013	ff 15 00 00 00
	00		 call	 DWORD PTR __imp_?FindChildWnd@ioWnd@@QAEPAV1@K@Z
  00019	50		 push	 eax
  0001a	e8 00 00 00 00	 call	 ___RTDynamicCast
  0001f	83 c4 14	 add	 esp, 20			; 00000014H

; 1762 : 	if( pLobbyWnd )

  00022	85 c0		 test	 eax, eax
  00024	74 08		 je	 SHORT $LN1@ApplyPlaza@2

; 1763 : 	{
; 1764 : 		pLobbyWnd->ApplyPlazaList( rkPacket );

  00026	8b c8		 mov	 ecx, eax

; 1765 : 	}
; 1766 : }

  00028	5d		 pop	 ebp

; 1763 : 	{
; 1764 : 		pLobbyWnd->ApplyPlazaList( rkPacket );

  00029	e9 00 00 00 00	 jmp	 ?ApplyPlazaList@LobbyWnd@@QAEXAAVSP2Packet@@@Z ; LobbyWnd::ApplyPlazaList
$LN1@ApplyPlaza@2:

; 1765 : 	}
; 1766 : }

  0002e	5d		 pop	 ebp
  0002f	c2 04 00	 ret	 4
?ApplyPlazaList@LobbyMainWnd@@QAEXAAVSP2Packet@@@Z ENDP	; LobbyMainWnd::ApplyPlazaList
_TEXT	ENDS
PUBLIC	?ApplyLadderTeamList@LobbyMainWnd@@QAEXAAVSP2Packet@@@Z ; LobbyMainWnd::ApplyLadderTeamList
; Function compile flags: /Ogsp
;	COMDAT ?ApplyLadderTeamList@LobbyMainWnd@@QAEXAAVSP2Packet@@@Z
_TEXT	SEGMENT
_rkPacket$ = 8						; size = 4
?ApplyLadderTeamList@LobbyMainWnd@@QAEXAAVSP2Packet@@@Z PROC ; LobbyMainWnd::ApplyLadderTeamList, COMDAT
; _this$ = ecx

; 1769 : {

  00000	55		 push	 ebp
  00001	8b ec		 mov	 ebp, esp

; 1770 : 	LobbyWnd *pLobbyWnd = dynamic_cast<LobbyWnd*>(FindChildWnd(ID_LOBBY_WND));

  00003	6a 00		 push	 0
  00005	68 00 00 00 00	 push	 OFFSET ??_R0?AVLobbyWnd@@@8
  0000a	68 00 00 00 00	 push	 OFFSET ??_R0?AVioWnd@@@8
  0000f	6a 00		 push	 0
  00011	6a 01		 push	 1
  00013	ff 15 00 00 00
	00		 call	 DWORD PTR __imp_?FindChildWnd@ioWnd@@QAEPAV1@K@Z
  00019	50		 push	 eax
  0001a	e8 00 00 00 00	 call	 ___RTDynamicCast
  0001f	83 c4 14	 add	 esp, 20			; 00000014H

; 1771 : 	if( pLobbyWnd )

  00022	85 c0		 test	 eax, eax
  00024	74 08		 je	 SHORT $LN1@ApplyLadde@3

; 1772 : 	{
; 1773 : 		pLobbyWnd->ApplyLadderTeamList( rkPacket );

  00026	8b c8		 mov	 ecx, eax

; 1774 : 	}	
; 1775 : }

  00028	5d		 pop	 ebp

; 1772 : 	{
; 1773 : 		pLobbyWnd->ApplyLadderTeamList( rkPacket );

  00029	e9 00 00 00 00	 jmp	 ?ApplyLadderTeamList@LobbyWnd@@QAEXAAVSP2Packet@@@Z ; LobbyWnd::ApplyLadderTeamList
$LN1@ApplyLadde@3:

; 1774 : 	}	
; 1775 : }

  0002e	5d		 pop	 ebp
  0002f	c2 04 00	 ret	 4
?ApplyLadderTeamList@LobbyMainWnd@@QAEXAAVSP2Packet@@@Z ENDP ; LobbyMainWnd::ApplyLadderTeamList
_TEXT	ENDS
PUBLIC	??_R0?AVLobbyTradeInfoWnd@@@8			; LobbyTradeInfoWnd `RTTI Type Descriptor'
PUBLIC	??_R0?AVLobbyPlazaInfoWnd@@@8			; LobbyPlazaInfoWnd `RTTI Type Descriptor'
PUBLIC	??_R0?AVLobbyBattleInfoWnd@@@8			; LobbyBattleInfoWnd `RTTI Type Descriptor'
PUBLIC	?ApplyLobbyUserList@LobbyMainWnd@@QAEXAAVSP2Packet@@@Z ; LobbyMainWnd::ApplyLobbyUserList
EXTRN	?ApplyLobbyUserList@LobbyTradeInfoWnd@@QAEXAAVSP2Packet@@@Z:PROC ; LobbyTradeInfoWnd::ApplyLobbyUserList
EXTRN	?ApplyLobbyUserList@LobbyPlazaInfoWnd@@QAEXAAVSP2Packet@@@Z:PROC ; LobbyPlazaInfoWnd::ApplyLobbyUserList
EXTRN	?ApplyLobbyUserList@LobbyBattleInfoWnd@@QAEXAAVSP2Packet@@@Z:PROC ; LobbyBattleInfoWnd::ApplyLobbyUserList
;	COMDAT ??_R0?AVLobbyTradeInfoWnd@@@8
_DATA	SEGMENT
??_R0?AVLobbyTradeInfoWnd@@@8 DD FLAT:??_7type_info@@6B@ ; LobbyTradeInfoWnd `RTTI Type Descriptor'
	DD	00H
	DB	'.?AVLobbyTradeInfoWnd@@', 00H
_DATA	ENDS
;	COMDAT ??_R0?AVLobbyPlazaInfoWnd@@@8
_DATA	SEGMENT
??_R0?AVLobbyPlazaInfoWnd@@@8 DD FLAT:??_7type_info@@6B@ ; LobbyPlazaInfoWnd `RTTI Type Descriptor'
	DD	00H
	DB	'.?AVLobbyPlazaInfoWnd@@', 00H
_DATA	ENDS
;	COMDAT ??_R0?AVLobbyBattleInfoWnd@@@8
_DATA	SEGMENT
??_R0?AVLobbyBattleInfoWnd@@@8 DD FLAT:??_7type_info@@6B@ ; LobbyBattleInfoWnd `RTTI Type Descriptor'
	DD	00H
	DB	'.?AVLobbyBattleInfoWnd@@', 00H
; Function compile flags: /Ogsp
_DATA	ENDS
;	COMDAT ?ApplyLobbyUserList@LobbyMainWnd@@QAEXAAVSP2Packet@@@Z
_TEXT	SEGMENT
_this$ = -12						; size = 4
_pPlazaInfoWnd$ = -8					; size = 4
_pBattleInfoWnd$ = -4					; size = 4
_rkPacket$ = 8						; size = 4
?ApplyLobbyUserList@LobbyMainWnd@@QAEXAAVSP2Packet@@@Z PROC ; LobbyMainWnd::ApplyLobbyUserList, COMDAT
; _this$ = ecx

; 1778 : {

  00000	55		 push	 ebp
  00001	8b ec		 mov	 ebp, esp
  00003	83 ec 0c	 sub	 esp, 12			; 0000000cH
  00006	53		 push	 ebx
  00007	56		 push	 esi

; 1779 : 	LobbyBattleInfoWnd *pBattleInfoWnd = dynamic_cast<LobbyBattleInfoWnd *>(FindChildWnd(ID_BATTLE_INFO_WND));

  00008	8b 35 00 00 00
	00		 mov	 esi, DWORD PTR __imp_?FindChildWnd@ioWnd@@QAEPAV1@K@Z
  0000e	57		 push	 edi
  0000f	33 db		 xor	 ebx, ebx
  00011	53		 push	 ebx
  00012	68 00 00 00 00	 push	 OFFSET ??_R0?AVLobbyBattleInfoWnd@@@8
  00017	bf 00 00 00 00	 mov	 edi, OFFSET ??_R0?AVioWnd@@@8
  0001c	57		 push	 edi
  0001d	53		 push	 ebx
  0001e	6a 04		 push	 4
  00020	89 4d f4	 mov	 DWORD PTR _this$[ebp], ecx
  00023	ff d6		 call	 esi
  00025	50		 push	 eax
  00026	e8 00 00 00 00	 call	 ___RTDynamicCast

; 1780 : 	LobbyPlazaInfoWnd *pPlazaInfoWnd = dynamic_cast<LobbyPlazaInfoWnd*>(FindChildWnd(ID_PLAZA_INFO_WND));

  0002b	8b 4d f4	 mov	 ecx, DWORD PTR _this$[ebp]
  0002e	83 c4 14	 add	 esp, 20			; 00000014H
  00031	53		 push	 ebx
  00032	68 00 00 00 00	 push	 OFFSET ??_R0?AVLobbyPlazaInfoWnd@@@8
  00037	57		 push	 edi
  00038	53		 push	 ebx
  00039	6a 05		 push	 5
  0003b	89 45 fc	 mov	 DWORD PTR _pBattleInfoWnd$[ebp], eax
  0003e	ff d6		 call	 esi
  00040	50		 push	 eax
  00041	e8 00 00 00 00	 call	 ___RTDynamicCast

; 1781 : 	LobbyTradeInfoWnd *pTradeInfoWnd = dynamic_cast<LobbyTradeInfoWnd*>(FindChildWnd(ID_TRADE_INFO_WND));

  00046	8b 4d f4	 mov	 ecx, DWORD PTR _this$[ebp]
  00049	83 c4 14	 add	 esp, 20			; 00000014H
  0004c	53		 push	 ebx
  0004d	68 00 00 00 00	 push	 OFFSET ??_R0?AVLobbyTradeInfoWnd@@@8
  00052	57		 push	 edi
  00053	53		 push	 ebx
  00054	6a 06		 push	 6
  00056	89 45 f8	 mov	 DWORD PTR _pPlazaInfoWnd$[ebp], eax
  00059	ff d6		 call	 esi
  0005b	50		 push	 eax
  0005c	e8 00 00 00 00	 call	 ___RTDynamicCast
  00061	83 c4 14	 add	 esp, 20			; 00000014H
  00064	8b f0		 mov	 esi, eax

; 1782 : 
; 1783 : 	if( pBattleInfoWnd && pBattleInfoWnd->IsShow() )

  00066	39 5d fc	 cmp	 DWORD PTR _pBattleInfoWnd$[ebp], ebx
  00069	74 1a		 je	 SHORT $LN5@ApplyLobby
  0006b	8b 4d fc	 mov	 ecx, DWORD PTR _pBattleInfoWnd$[ebp]
  0006e	ff 15 00 00 00
	00		 call	 DWORD PTR __imp_?IsShow@ioWnd@@QBE_NXZ
  00074	84 c0		 test	 al, al
  00076	74 0d		 je	 SHORT $LN5@ApplyLobby

; 1784 : 		pBattleInfoWnd->ApplyLobbyUserList( rkPacket );

  00078	ff 75 08	 push	 DWORD PTR _rkPacket$[ebp]
  0007b	8b 4d fc	 mov	 ecx, DWORD PTR _pBattleInfoWnd$[ebp]
  0007e	e8 00 00 00 00	 call	 ?ApplyLobbyUserList@LobbyBattleInfoWnd@@QAEXAAVSP2Packet@@@Z ; LobbyBattleInfoWnd::ApplyLobbyUserList
  00083	eb 39		 jmp	 SHORT $LN1@ApplyLobby
$LN5@ApplyLobby:

; 1785 : 	else if( pPlazaInfoWnd && pPlazaInfoWnd->IsShow() )

  00085	39 5d f8	 cmp	 DWORD PTR _pPlazaInfoWnd$[ebp], ebx
  00088	74 1a		 je	 SHORT $LN3@ApplyLobby
  0008a	8b 4d f8	 mov	 ecx, DWORD PTR _pPlazaInfoWnd$[ebp]
  0008d	ff 15 00 00 00
	00		 call	 DWORD PTR __imp_?IsShow@ioWnd@@QBE_NXZ
  00093	84 c0		 test	 al, al
  00095	74 0d		 je	 SHORT $LN3@ApplyLobby

; 1786 : 		pPlazaInfoWnd->ApplyLobbyUserList( rkPacket );

  00097	ff 75 08	 push	 DWORD PTR _rkPacket$[ebp]
  0009a	8b 4d f8	 mov	 ecx, DWORD PTR _pPlazaInfoWnd$[ebp]
  0009d	e8 00 00 00 00	 call	 ?ApplyLobbyUserList@LobbyPlazaInfoWnd@@QAEXAAVSP2Packet@@@Z ; LobbyPlazaInfoWnd::ApplyLobbyUserList
  000a2	eb 1a		 jmp	 SHORT $LN1@ApplyLobby
$LN3@ApplyLobby:

; 1787 : 	else if( pTradeInfoWnd && pTradeInfoWnd->IsShow() )

  000a4	3b f3		 cmp	 esi, ebx
  000a6	74 16		 je	 SHORT $LN1@ApplyLobby
  000a8	8b ce		 mov	 ecx, esi
  000aa	ff 15 00 00 00
	00		 call	 DWORD PTR __imp_?IsShow@ioWnd@@QBE_NXZ
  000b0	84 c0		 test	 al, al
  000b2	74 0a		 je	 SHORT $LN1@ApplyLobby

; 1788 : 		pTradeInfoWnd->ApplyLobbyUserList( rkPacket );

  000b4	ff 75 08	 push	 DWORD PTR _rkPacket$[ebp]
  000b7	8b ce		 mov	 ecx, esi
  000b9	e8 00 00 00 00	 call	 ?ApplyLobbyUserList@LobbyTradeInfoWnd@@QAEXAAVSP2Packet@@@Z ; LobbyTradeInfoWnd::ApplyLobbyUserList
$LN1@ApplyLobby:
  000be	5f		 pop	 edi
  000bf	5e		 pop	 esi
  000c0	5b		 pop	 ebx

; 1789 : }

  000c1	c9		 leave
  000c2	c2 04 00	 ret	 4
?ApplyLobbyUserList@LobbyMainWnd@@QAEXAAVSP2Packet@@@Z ENDP ; LobbyMainWnd::ApplyLobbyUserList
_TEXT	ENDS
PUBLIC	?RefreshBattleList@LobbyMainWnd@@QAEXK@Z	; LobbyMainWnd::RefreshBattleList
; Function compile flags: /Ogsp
;	COMDAT ?RefreshBattleList@LobbyMainWnd@@QAEXK@Z
_TEXT	SEGMENT
_dwIndex$ = 8						; size = 4
?RefreshBattleList@LobbyMainWnd@@QAEXK@Z PROC		; LobbyMainWnd::RefreshBattleList, COMDAT
; _this$ = ecx

; 1792 : {

  00000	55		 push	 ebp
  00001	8b ec		 mov	 ebp, esp
  00003	56		 push	 esi

; 1793 : 	LobbyWnd *pLobbyWnd = dynamic_cast<LobbyWnd*>(FindChildWnd( ID_LOBBY_WND ));

  00004	6a 00		 push	 0
  00006	68 00 00 00 00	 push	 OFFSET ??_R0?AVLobbyWnd@@@8
  0000b	68 00 00 00 00	 push	 OFFSET ??_R0?AVioWnd@@@8
  00010	6a 00		 push	 0
  00012	6a 01		 push	 1
  00014	ff 15 00 00 00
	00		 call	 DWORD PTR __imp_?FindChildWnd@ioWnd@@QAEPAV1@K@Z
  0001a	50		 push	 eax
  0001b	e8 00 00 00 00	 call	 ___RTDynamicCast
  00020	8b f0		 mov	 esi, eax
  00022	83 c4 14	 add	 esp, 20			; 00000014H

; 1794 : 	if( pLobbyWnd && pLobbyWnd->IsShow() )

  00025	85 f6		 test	 esi, esi
  00027	74 16		 je	 SHORT $LN1@RefreshBat@2
  00029	8b ce		 mov	 ecx, esi
  0002b	ff 15 00 00 00
	00		 call	 DWORD PTR __imp_?IsShow@ioWnd@@QBE_NXZ
  00031	84 c0		 test	 al, al
  00033	74 0a		 je	 SHORT $LN1@RefreshBat@2

; 1795 : 		pLobbyWnd->RefreshBattleList( dwIndex );

  00035	ff 75 08	 push	 DWORD PTR _dwIndex$[ebp]
  00038	8b ce		 mov	 ecx, esi
  0003a	e8 00 00 00 00	 call	 ?RefreshBattleList@LobbyWnd@@QAEXK@Z ; LobbyWnd::RefreshBattleList
$LN1@RefreshBat@2:
  0003f	5e		 pop	 esi

; 1796 : }

  00040	5d		 pop	 ebp
  00041	c2 04 00	 ret	 4
?RefreshBattleList@LobbyMainWnd@@QAEXK@Z ENDP		; LobbyMainWnd::RefreshBattleList
_TEXT	ENDS
PUBLIC	?ShowChatWnd@LobbyMainWnd@@QAEX_N@Z		; LobbyMainWnd::ShowChatWnd
; Function compile flags: /Ogsp
;	COMDAT ?ShowChatWnd@LobbyMainWnd@@QAEX_N@Z
_TEXT	SEGMENT
_bShow$ = 8						; size = 1
?ShowChatWnd@LobbyMainWnd@@QAEX_N@Z PROC		; LobbyMainWnd::ShowChatWnd, COMDAT
; _this$ = ecx

; 1799 : {

  00000	55		 push	 ebp
  00001	8b ec		 mov	 ebp, esp

; 1800 : 	if( bShow )

  00003	33 c0		 xor	 eax, eax

; 1801 : 		ShowChildWnd( ID_CHAT_WND );

  00005	50		 push	 eax
  00006	6a 02		 push	 2
  00008	38 45 08	 cmp	 BYTE PTR _bShow$[ebp], al
  0000b	74 08		 je	 SHORT $LN2@ShowChatWn
  0000d	ff 15 00 00 00
	00		 call	 DWORD PTR __imp_?ShowChildWnd@ioWnd@@QAEXK_N@Z

; 1802 : 	else

  00013	eb 06		 jmp	 SHORT $LN1@ShowChatWn
$LN2@ShowChatWn:

; 1803 : 		HideChildWnd( ID_CHAT_WND );

  00015	ff 15 00 00 00
	00		 call	 DWORD PTR __imp_?HideChildWnd@ioWnd@@QAEXK_N@Z
$LN1@ShowChatWn:

; 1804 : }

  0001b	5d		 pop	 ebp
  0001c	c2 04 00	 ret	 4
?ShowChatWnd@LobbyMainWnd@@QAEX_N@Z ENDP		; LobbyMainWnd::ShowChatWnd
_TEXT	ENDS
PUBLIC	?QuestGuide@LobbyMainWnd@@QAE_NHAAM0@Z		; LobbyMainWnd::QuestGuide
; Function compile flags: /Ogsp
;	COMDAT ?QuestGuide@LobbyMainWnd@@QAE_NHAAM0@Z
_TEXT	SEGMENT
_iModeSelectIndex$ = 8					; size = 4
_rfXPos$ = 12						; size = 4
_rfYPos$ = 16						; size = 4
?QuestGuide@LobbyMainWnd@@QAE_NHAAM0@Z PROC		; LobbyMainWnd::QuestGuide, COMDAT
; _this$ = ecx

; 1807 : {

  00000	55		 push	 ebp
  00001	8b ec		 mov	 ebp, esp

; 1808 : 	LobbyWnd *pLobbyWnd = dynamic_cast<LobbyWnd*>(FindChildWnd( ID_LOBBY_WND ) );

  00003	6a 00		 push	 0
  00005	68 00 00 00 00	 push	 OFFSET ??_R0?AVLobbyWnd@@@8
  0000a	68 00 00 00 00	 push	 OFFSET ??_R0?AVioWnd@@@8
  0000f	6a 00		 push	 0
  00011	6a 01		 push	 1
  00013	ff 15 00 00 00
	00		 call	 DWORD PTR __imp_?FindChildWnd@ioWnd@@QAEPAV1@K@Z
  00019	50		 push	 eax
  0001a	e8 00 00 00 00	 call	 ___RTDynamicCast
  0001f	83 c4 14	 add	 esp, 20			; 00000014H

; 1809 : 	if( pLobbyWnd )

  00022	85 c0		 test	 eax, eax
  00024	74 08		 je	 SHORT $LN1@QuestGuide@2

; 1810 : 	{
; 1811 : 		return pLobbyWnd->QuestGuide( iModeSelectIndex, rfXPos, rfYPos );

  00026	8b c8		 mov	 ecx, eax

; 1814 : }

  00028	5d		 pop	 ebp

; 1810 : 	{
; 1811 : 		return pLobbyWnd->QuestGuide( iModeSelectIndex, rfXPos, rfYPos );

  00029	e9 00 00 00 00	 jmp	 ?QuestGuide@LobbyWnd@@QAE_NHAAM0@Z ; LobbyWnd::QuestGuide
$LN1@QuestGuide@2:

; 1812 : 	}
; 1813 : 	return false;

  0002e	32 c0		 xor	 al, al

; 1814 : }

  00030	5d		 pop	 ebp
  00031	c2 0c 00	 ret	 12			; 0000000cH
?QuestGuide@LobbyMainWnd@@QAE_NHAAM0@Z ENDP		; LobbyMainWnd::QuestGuide
_TEXT	ENDS
PUBLIC	?ApplyTournamentList@LobbyMainWnd@@QAEXAAVSP2Packet@@@Z ; LobbyMainWnd::ApplyTournamentList
; Function compile flags: /Ogsp
;	COMDAT ?ApplyTournamentList@LobbyMainWnd@@QAEXAAVSP2Packet@@@Z
_TEXT	SEGMENT
_rkPacket$ = 8						; size = 4
?ApplyTournamentList@LobbyMainWnd@@QAEXAAVSP2Packet@@@Z PROC ; LobbyMainWnd::ApplyTournamentList, COMDAT
; _this$ = ecx

; 1817 : {

  00000	55		 push	 ebp
  00001	8b ec		 mov	 ebp, esp

; 1818 : 	LobbyWnd *pLobbyWnd = dynamic_cast<LobbyWnd*>(FindChildWnd(ID_LOBBY_WND));

  00003	6a 00		 push	 0
  00005	68 00 00 00 00	 push	 OFFSET ??_R0?AVLobbyWnd@@@8
  0000a	68 00 00 00 00	 push	 OFFSET ??_R0?AVioWnd@@@8
  0000f	6a 00		 push	 0
  00011	6a 01		 push	 1
  00013	ff 15 00 00 00
	00		 call	 DWORD PTR __imp_?FindChildWnd@ioWnd@@QAEPAV1@K@Z
  00019	50		 push	 eax
  0001a	e8 00 00 00 00	 call	 ___RTDynamicCast
  0001f	83 c4 14	 add	 esp, 20			; 00000014H

; 1819 : 	if( pLobbyWnd )

  00022	85 c0		 test	 eax, eax
  00024	74 08		 je	 SHORT $LN1@ApplyTourn@4

; 1820 : 	{
; 1821 : 		pLobbyWnd->ApplyTournamentList( rkPacket );

  00026	8b c8		 mov	 ecx, eax

; 1822 : 	}	
; 1823 : }

  00028	5d		 pop	 ebp

; 1820 : 	{
; 1821 : 		pLobbyWnd->ApplyTournamentList( rkPacket );

  00029	e9 00 00 00 00	 jmp	 ?ApplyTournamentList@LobbyWnd@@QAEXAAVSP2Packet@@@Z ; LobbyWnd::ApplyTournamentList
$LN1@ApplyTourn@4:

; 1822 : 	}	
; 1823 : }

  0002e	5d		 pop	 ebp
  0002f	c2 04 00	 ret	 4
?ApplyTournamentList@LobbyMainWnd@@QAEXAAVSP2Packet@@@Z ENDP ; LobbyMainWnd::ApplyTournamentList
_TEXT	ENDS
PUBLIC	?ApplyTournamentConfirmCheck@LobbyMainWnd@@QAEXAAVSP2Packet@@@Z ; LobbyMainWnd::ApplyTournamentConfirmCheck
; Function compile flags: /Ogsp
;	COMDAT ?ApplyTournamentConfirmCheck@LobbyMainWnd@@QAEXAAVSP2Packet@@@Z
_TEXT	SEGMENT
_rkPacket$ = 8						; size = 4
?ApplyTournamentConfirmCheck@LobbyMainWnd@@QAEXAAVSP2Packet@@@Z PROC ; LobbyMainWnd::ApplyTournamentConfirmCheck, COMDAT
; _this$ = ecx

; 1826 : {

  00000	55		 push	 ebp
  00001	8b ec		 mov	 ebp, esp

; 1827 : 	LobbyWnd *pLobbyWnd = dynamic_cast<LobbyWnd*>(FindChildWnd(ID_LOBBY_WND));

  00003	6a 00		 push	 0
  00005	68 00 00 00 00	 push	 OFFSET ??_R0?AVLobbyWnd@@@8
  0000a	68 00 00 00 00	 push	 OFFSET ??_R0?AVioWnd@@@8
  0000f	6a 00		 push	 0
  00011	6a 01		 push	 1
  00013	ff 15 00 00 00
	00		 call	 DWORD PTR __imp_?FindChildWnd@ioWnd@@QAEPAV1@K@Z
  00019	50		 push	 eax
  0001a	e8 00 00 00 00	 call	 ___RTDynamicCast
  0001f	83 c4 14	 add	 esp, 20			; 00000014H

; 1828 : 	if( pLobbyWnd )

  00022	85 c0		 test	 eax, eax
  00024	74 08		 je	 SHORT $LN1@ApplyTourn@5

; 1829 : 	{
; 1830 : 		pLobbyWnd->ApplyTournamentConfirmCheck( rkPacket );

  00026	8b c8		 mov	 ecx, eax

; 1831 : 	}	
; 1832 : }

  00028	5d		 pop	 ebp

; 1829 : 	{
; 1830 : 		pLobbyWnd->ApplyTournamentConfirmCheck( rkPacket );

  00029	e9 00 00 00 00	 jmp	 ?ApplyTournamentConfirmCheck@LobbyWnd@@QAEXAAVSP2Packet@@@Z ; LobbyWnd::ApplyTournamentConfirmCheck
$LN1@ApplyTourn@5:

; 1831 : 	}	
; 1832 : }

  0002e	5d		 pop	 ebp
  0002f	c2 04 00	 ret	 4
?ApplyTournamentConfirmCheck@LobbyMainWnd@@QAEXAAVSP2Packet@@@Z ENDP ; LobbyMainWnd::ApplyTournamentConfirmCheck
_TEXT	ENDS
PUBLIC	?ApplyTournamentConfirmRequest@LobbyMainWnd@@QAEXAAVSP2Packet@@@Z ; LobbyMainWnd::ApplyTournamentConfirmRequest
; Function compile flags: /Ogsp
;	COMDAT ?ApplyTournamentConfirmRequest@LobbyMainWnd@@QAEXAAVSP2Packet@@@Z
_TEXT	SEGMENT
_rkPacket$ = 8						; size = 4
?ApplyTournamentConfirmRequest@LobbyMainWnd@@QAEXAAVSP2Packet@@@Z PROC ; LobbyMainWnd::ApplyTournamentConfirmRequest, COMDAT
; _this$ = ecx

; 1835 : {

  00000	55		 push	 ebp
  00001	8b ec		 mov	 ebp, esp

; 1836 : 	LobbyWnd *pLobbyWnd = dynamic_cast<LobbyWnd*>(FindChildWnd(ID_LOBBY_WND));

  00003	6a 00		 push	 0
  00005	68 00 00 00 00	 push	 OFFSET ??_R0?AVLobbyWnd@@@8
  0000a	68 00 00 00 00	 push	 OFFSET ??_R0?AVioWnd@@@8
  0000f	6a 00		 push	 0
  00011	6a 01		 push	 1
  00013	ff 15 00 00 00
	00		 call	 DWORD PTR __imp_?FindChildWnd@ioWnd@@QAEPAV1@K@Z
  00019	50		 push	 eax
  0001a	e8 00 00 00 00	 call	 ___RTDynamicCast
  0001f	83 c4 14	 add	 esp, 20			; 00000014H

; 1837 : 	if( pLobbyWnd )

  00022	85 c0		 test	 eax, eax
  00024	74 08		 je	 SHORT $LN1@ApplyTourn@6

; 1838 : 	{
; 1839 : 		pLobbyWnd->ApplyTournamentConfirmRequest( rkPacket );

  00026	8b c8		 mov	 ecx, eax

; 1840 : 	}	
; 1841 : }

  00028	5d		 pop	 ebp

; 1838 : 	{
; 1839 : 		pLobbyWnd->ApplyTournamentConfirmRequest( rkPacket );

  00029	e9 00 00 00 00	 jmp	 ?ApplyTournamentConfirmRequest@LobbyWnd@@QAEXAAVSP2Packet@@@Z ; LobbyWnd::ApplyTournamentConfirmRequest
$LN1@ApplyTourn@6:

; 1840 : 	}	
; 1841 : }

  0002e	5d		 pop	 ebp
  0002f	c2 04 00	 ret	 4
?ApplyTournamentConfirmRequest@LobbyMainWnd@@QAEXAAVSP2Packet@@@Z ENDP ; LobbyMainWnd::ApplyTournamentConfirmRequest
_TEXT	ENDS
PUBLIC	?OnRefreshTradeItemList@LobbyMainWnd@@QAEXXZ	; LobbyMainWnd::OnRefreshTradeItemList
EXTRN	?OnRefreshTradeItemList@LobbyTradeInfoWnd@@QAEXXZ:PROC ; LobbyTradeInfoWnd::OnRefreshTradeItemList
; Function compile flags: /Ogsp
;	COMDAT ?OnRefreshTradeItemList@LobbyMainWnd@@QAEXXZ
_TEXT	SEGMENT
_this$ = -4						; size = 4
?OnRefreshTradeItemList@LobbyMainWnd@@QAEXXZ PROC	; LobbyMainWnd::OnRefreshTradeItemList, COMDAT
; _this$ = ecx

; 1844 : {

  00000	55		 push	 ebp
  00001	8b ec		 mov	 ebp, esp
  00003	51		 push	 ecx
  00004	56		 push	 esi

; 1845 : 	// Trade info wnd
; 1846 : 	LobbyTradeInfoWnd *pTradeInfoWnd = dynamic_cast<LobbyTradeInfoWnd*>( FindChildWnd( ID_TRADE_INFO_WND ) );

  00005	8b 35 00 00 00
	00		 mov	 esi, DWORD PTR __imp_?FindChildWnd@ioWnd@@QAEPAV1@K@Z
  0000b	57		 push	 edi
  0000c	6a 00		 push	 0
  0000e	68 00 00 00 00	 push	 OFFSET ??_R0?AVLobbyTradeInfoWnd@@@8
  00013	bf 00 00 00 00	 mov	 edi, OFFSET ??_R0?AVioWnd@@@8
  00018	57		 push	 edi
  00019	6a 00		 push	 0
  0001b	6a 06		 push	 6
  0001d	89 4d fc	 mov	 DWORD PTR _this$[ebp], ecx
  00020	ff d6		 call	 esi
  00022	50		 push	 eax
  00023	e8 00 00 00 00	 call	 ___RTDynamicCast
  00028	83 c4 14	 add	 esp, 20			; 00000014H

; 1847 : 	if( pTradeInfoWnd )

  0002b	85 c0		 test	 eax, eax
  0002d	74 07		 je	 SHORT $LN2@OnRefreshT@2

; 1848 : 	{
; 1849 : 		pTradeInfoWnd->OnRefreshTradeItemList();

  0002f	8b c8		 mov	 ecx, eax
  00031	e8 00 00 00 00	 call	 ?OnRefreshTradeItemList@LobbyTradeInfoWnd@@QAEXXZ ; LobbyTradeInfoWnd::OnRefreshTradeItemList
$LN2@OnRefreshT@2:

; 1850 : 	}
; 1851 : 
; 1852 : 	// lobby wnd
; 1853 : 	LobbyWnd *pLobbyWnd = dynamic_cast<LobbyWnd*>( FindChildWnd( ID_LOBBY_WND ) );

  00036	8b 4d fc	 mov	 ecx, DWORD PTR _this$[ebp]
  00039	6a 00		 push	 0
  0003b	68 00 00 00 00	 push	 OFFSET ??_R0?AVLobbyWnd@@@8
  00040	57		 push	 edi
  00041	6a 00		 push	 0
  00043	6a 01		 push	 1
  00045	ff d6		 call	 esi
  00047	50		 push	 eax
  00048	e8 00 00 00 00	 call	 ___RTDynamicCast
  0004d	83 c4 14	 add	 esp, 20			; 00000014H
  00050	5f		 pop	 edi
  00051	5e		 pop	 esi

; 1854 : 	if( pLobbyWnd )

  00052	85 c0		 test	 eax, eax
  00054	74 07		 je	 SHORT $LN1@OnRefreshT@2

; 1855 : 	{
; 1856 : 		pLobbyWnd->OnRefreshTradeItemList();

  00056	8b c8		 mov	 ecx, eax
  00058	e8 00 00 00 00	 call	 ?OnRefreshTradeItemList@LobbyWnd@@QAEXXZ ; LobbyWnd::OnRefreshTradeItemList
$LN1@OnRefreshT@2:

; 1857 : 	}
; 1858 : 
; 1859 : }

  0005d	c9		 leave
  0005e	c3		 ret	 0
?OnRefreshTradeItemList@LobbyMainWnd@@QAEXXZ ENDP	; LobbyMainWnd::OnRefreshTradeItemList
_TEXT	ENDS
PUBLIC	?ApplyLadderList@LobbyMainWnd@@QAEXAAVSP2Packet@@@Z ; LobbyMainWnd::ApplyLadderList
; Function compile flags: /Ogsp
;	COMDAT ?ApplyLadderList@LobbyMainWnd@@QAEXAAVSP2Packet@@@Z
_TEXT	SEGMENT
_rkPacket$ = 8						; size = 4
?ApplyLadderList@LobbyMainWnd@@QAEXAAVSP2Packet@@@Z PROC ; LobbyMainWnd::ApplyLadderList, COMDAT
; _this$ = ecx

; 1887 : {

  00000	55		 push	 ebp
  00001	8b ec		 mov	 ebp, esp

; 1888 : 	LobbyWnd *pLobbyWnd = dynamic_cast<LobbyWnd*>(FindChildWnd(ID_LOBBY_WND));

  00003	6a 00		 push	 0
  00005	68 00 00 00 00	 push	 OFFSET ??_R0?AVLobbyWnd@@@8
  0000a	68 00 00 00 00	 push	 OFFSET ??_R0?AVioWnd@@@8
  0000f	6a 00		 push	 0
  00011	6a 01		 push	 1
  00013	ff 15 00 00 00
	00		 call	 DWORD PTR __imp_?FindChildWnd@ioWnd@@QAEPAV1@K@Z
  00019	50		 push	 eax
  0001a	e8 00 00 00 00	 call	 ___RTDynamicCast
  0001f	83 c4 14	 add	 esp, 20			; 00000014H

; 1889 : 	if( pLobbyWnd )

  00022	85 c0		 test	 eax, eax
  00024	74 08		 je	 SHORT $LN1@ApplyLadde@4

; 1890 : 	{
; 1891 : 		pLobbyWnd->ApplyLadderList( rkPacket );

  00026	8b c8		 mov	 ecx, eax

; 1892 : 		//pLobbyWnd->ApplyNormalTeamList( rkPacket );
; 1893 : 	}
; 1894 : }

  00028	5d		 pop	 ebp

; 1890 : 	{
; 1891 : 		pLobbyWnd->ApplyLadderList( rkPacket );

  00029	e9 00 00 00 00	 jmp	 ?ApplyLadderList@LobbyWnd@@QAEXAAVSP2Packet@@@Z ; LobbyWnd::ApplyLadderList
$LN1@ApplyLadde@4:

; 1892 : 		//pLobbyWnd->ApplyNormalTeamList( rkPacket );
; 1893 : 	}
; 1894 : }

  0002e	5d		 pop	 ebp
  0002f	c2 04 00	 ret	 4
?ApplyLadderList@LobbyMainWnd@@QAEXAAVSP2Packet@@@Z ENDP ; LobbyMainWnd::ApplyLadderList
_TEXT	ENDS
PUBLIC	?GetSingleton@?$Singleton@VioEtcItemManager@@@@SAAAVioEtcItemManager@@XZ ; Singleton<ioEtcItemManager>::GetSingleton
EXTRN	?ms_Singleton@?$Singleton@VioEtcItemManager@@@@1PAVioEtcItemManager@@A:DWORD ; Singleton<ioEtcItemManager>::ms_Singleton
; Function compile flags: /Ogsp
; File d:\lost saga for developer\youtube\tutorial\source\src\io3dengine\iosingleton.h
;	COMDAT ?GetSingleton@?$Singleton@VioEtcItemManager@@@@SAAAVioEtcItemManager@@XZ
_TEXT	SEGMENT
?GetSingleton@?$Singleton@VioEtcItemManager@@@@SAAAVioEtcItemManager@@XZ PROC ; Singleton<ioEtcItemManager>::GetSingleton, COMDAT

; 42   : 		assert( ms_Singleton );
; 43   : 		return (*ms_Singleton);

  00000	a1 00 00 00 00	 mov	 eax, DWORD PTR ?ms_Singleton@?$Singleton@VioEtcItemManager@@@@1PAVioEtcItemManager@@A ; Singleton<ioEtcItemManager>::ms_Singleton

; 44   : 	}

  00005	c3		 ret	 0
?GetSingleton@?$Singleton@VioEtcItemManager@@@@SAAAVioEtcItemManager@@XZ ENDP ; Singleton<ioEtcItemManager>::GetSingleton
_TEXT	ENDS
PUBLIC	?GetSingleton@?$Singleton@VioBonusCashManager@@@@SAAAVioBonusCashManager@@XZ ; Singleton<ioBonusCashManager>::GetSingleton
EXTRN	?ms_Singleton@?$Singleton@VioBonusCashManager@@@@1PAVioBonusCashManager@@A:DWORD ; Singleton<ioBonusCashManager>::ms_Singleton
; Function compile flags: /Ogsp
;	COMDAT ?GetSingleton@?$Singleton@VioBonusCashManager@@@@SAAAVioBonusCashManager@@XZ
_TEXT	SEGMENT
?GetSingleton@?$Singleton@VioBonusCashManager@@@@SAAAVioBonusCashManager@@XZ PROC ; Singleton<ioBonusCashManager>::GetSingleton, COMDAT

; 42   : 		assert( ms_Singleton );
; 43   : 		return (*ms_Singleton);

  00000	a1 00 00 00 00	 mov	 eax, DWORD PTR ?ms_Singleton@?$Singleton@VioBonusCashManager@@@@1PAVioBonusCashManager@@A ; Singleton<ioBonusCashManager>::ms_Singleton

; 44   : 	}

  00005	c3		 ret	 0
?GetSingleton@?$Singleton@VioBonusCashManager@@@@SAAAVioBonusCashManager@@XZ ENDP ; Singleton<ioBonusCashManager>::GetSingleton
; Function compile flags: /Ogsp
; File c:\program files (x86)\microsoft sdks\windows\v7.0a\include\strsafe.h
_TEXT	ENDS
;	COMDAT ?StringValidateDestA@@YGJPBDII@Z
_TEXT	SEGMENT
_cchMax$ = 8						; size = 4
?StringValidateDestA@@YGJPBDII@Z PROC			; StringValidateDestA, COMDAT
; _cchDest$ = ecx

; 8721 : {

  00000	55		 push	 ebp
  00001	8b ec		 mov	 ebp, esp

; 8722 :     HRESULT hr = S_OK;

  00003	33 c0		 xor	 eax, eax

; 8723 : 
; 8724 :     if ((cchDest == 0) || (cchDest > cchMax))

  00005	85 c9		 test	 ecx, ecx
  00007	74 05		 je	 SHORT $LN1@StringVali
  00009	3b 4d 08	 cmp	 ecx, DWORD PTR _cchMax$[ebp]
  0000c	76 05		 jbe	 SHORT $LN2@StringVali
$LN1@StringVali:

; 8725 :     {
; 8726 :         hr = STRSAFE_E_INVALID_PARAMETER;

  0000e	b8 57 00 07 80	 mov	 eax, -2147024809	; 80070057H
$LN2@StringVali:

; 8727 :     }
; 8728 : 
; 8729 :     return hr;
; 8730 : }

  00013	5d		 pop	 ebp
  00014	c2 04 00	 ret	 4
?StringValidateDestA@@YGJPBDII@Z ENDP			; StringValidateDestA
_TEXT	ENDS
EXTRN	__imp___vsnprintf:PROC
; Function compile flags: /Ogsp
;	COMDAT ?StringVPrintfWorkerA@@YGJPADIPAIPBD0@Z
_TEXT	SEGMENT
_pcchNewDestLength$ = 8					; size = 4
_pszFormat$ = 12					; size = 4
_argList$ = 16						; size = 4
?StringVPrintfWorkerA@@YGJPADIPAIPBD0@Z PROC		; StringVPrintfWorkerA, COMDAT
; _pszDest$ = edi
; _cchDest$ = eax

; 9029 : {

  00000	55		 push	 ebp
  00001	8b ec		 mov	 ebp, esp
  00003	53		 push	 ebx
  00004	56		 push	 esi

; 9030 :     HRESULT hr = S_OK;
; 9031 :     int iRet;
; 9032 :     size_t cchMax;
; 9033 :     size_t cchNewDestLength = 0;
; 9034 : 
; 9035 :     // leave the last space for the null terminator
; 9036 :     cchMax = cchDest - 1;
; 9037 : 
; 9038 : #if (STRSAFE_USE_SECURE_CRT == 1) && !defined(STRSAFE_LIB_IMPL)
; 9039 :     iRet = _vsnprintf_s(pszDest, cchDest, cchMax, pszFormat, argList);
; 9040 : #else
; 9041 :     #pragma warning(push)
; 9042 :     #pragma warning(disable: __WARNING_BANNED_API_USAGE)// "STRSAFE not included"
; 9043 :     iRet = _vsnprintf(pszDest, cchMax, pszFormat, argList);

  00005	ff 75 10	 push	 DWORD PTR _argList$[ebp]
  00008	8d 70 ff	 lea	 esi, DWORD PTR [eax-1]
  0000b	ff 75 0c	 push	 DWORD PTR _pszFormat$[ebp]
  0000e	33 db		 xor	 ebx, ebx
  00010	56		 push	 esi
  00011	57		 push	 edi
  00012	ff 15 00 00 00
	00		 call	 DWORD PTR __imp___vsnprintf
  00018	83 c4 10	 add	 esp, 16			; 00000010H

; 9044 :     #pragma warning(pop)
; 9045 : #endif
; 9046 :     // ASSERT((iRet < 0) || (((size_t)iRet) <= cchMax));
; 9047 : 
; 9048 :     if ((iRet < 0) || (((size_t)iRet) > cchMax))

  0001b	85 c0		 test	 eax, eax
  0001d	78 0b		 js	 SHORT $LN5@StringVPri
  0001f	3b c6		 cmp	 eax, esi
  00021	77 07		 ja	 SHORT $LN5@StringVPri

; 9058 :     }
; 9059 :     else if (((size_t)iRet) == cchMax)

  00023	75 0f		 jne	 SHORT $LN2@StringVPri

; 9060 :     {
; 9061 :         // need to null terminate the string
; 9062 :         pszDest += cchMax;
; 9063 :         *pszDest = '\0';

  00025	88 1c 3e	 mov	 BYTE PTR [esi+edi], bl

; 9064 : 
; 9065 :         cchNewDestLength = cchMax;
; 9066 :     }
; 9067 :     else

  00028	eb 08		 jmp	 SHORT $LN9@StringVPri
$LN5@StringVPri:

; 9049 :     {
; 9050 :         // need to null terminate the string
; 9051 :         pszDest += cchMax;
; 9052 :         *pszDest = '\0';

  0002a	88 1c 3e	 mov	 BYTE PTR [esi+edi], bl

; 9055 : 
; 9056 :         // we have truncated pszDest
; 9057 :         hr = STRSAFE_E_INSUFFICIENT_BUFFER;

  0002d	bb 7a 00 07 80	 mov	 ebx, -2147024774	; 8007007aH
$LN9@StringVPri:

; 9053 : 
; 9054 :         cchNewDestLength = cchMax;

  00032	8b c6		 mov	 eax, esi
$LN2@StringVPri:

; 9068 :     {
; 9069 :         cchNewDestLength = (size_t)iRet;
; 9070 :     }
; 9071 : 
; 9072 :     if (pcchNewDestLength)

  00034	8b 4d 08	 mov	 ecx, DWORD PTR _pcchNewDestLength$[ebp]
  00037	85 c9		 test	 ecx, ecx
  00039	74 02		 je	 SHORT $LN1@StringVPri

; 9073 :     {
; 9074 :         *pcchNewDestLength = cchNewDestLength;

  0003b	89 01		 mov	 DWORD PTR [ecx], eax
$LN1@StringVPri:
  0003d	5e		 pop	 esi

; 9075 :     }
; 9076 : 
; 9077 :     return hr;

  0003e	8b c3		 mov	 eax, ebx
  00040	5b		 pop	 ebx

; 9078 : }

  00041	5d		 pop	 ebp
  00042	c2 0c 00	 ret	 12			; 0000000cH
?StringVPrintfWorkerA@@YGJPADIPAIPBD0@Z ENDP		; StringVPrintfWorkerA
_TEXT	ENDS
PUBLIC	??_H@YGXPAXIHP6EPAX0@Z@Z			; `vector constructor iterator'
; Function compile flags: /Ogsp
;	COMDAT ??_H@YGXPAXIHP6EPAX0@Z@Z
_TEXT	SEGMENT
___t$ = 8						; size = 4
___s$ = 12						; size = 4
___n$ = 16						; size = 4
___f$ = 20						; size = 4
??_H@YGXPAXIHP6EPAX0@Z@Z PROC				; `vector constructor iterator', COMDAT
  00000	55		 push	 ebp
  00001	8b ec		 mov	 ebp, esp
  00003	ff 4d 10	 dec	 DWORD PTR ___n$[ebp]
  00006	78 12		 js	 SHORT $LN1@vector
  00008	56		 push	 esi
  00009	8b 75 08	 mov	 esi, DWORD PTR ___t$[ebp]
$LL2@vector:
  0000c	8b ce		 mov	 ecx, esi
  0000e	ff 55 14	 call	 DWORD PTR ___f$[ebp]
  00011	03 75 0c	 add	 esi, DWORD PTR ___s$[ebp]
  00014	ff 4d 10	 dec	 DWORD PTR ___n$[ebp]
  00017	79 f3		 jns	 SHORT $LL2@vector
  00019	5e		 pop	 esi
$LN1@vector:
  0001a	5d		 pop	 ebp
  0001b	c2 10 00	 ret	 16			; 00000010H
??_H@YGXPAXIHP6EPAX0@Z@Z ENDP				; `vector constructor iterator'
_TEXT	ENDS
PUBLIC	?_DECSTR@@YAXPADH@Z				; _DECSTR
; Function compile flags: /Ogsp
; File d:\lost saga for developer\youtube\tutorial\source\src\lsclient\stringprotect.h
;	COMDAT ?_DECSTR@@YAXPADH@Z
_TEXT	SEGMENT
_s$ = 8							; size = 4
_l$ = 12						; size = 4
?_DECSTR@@YAXPADH@Z PROC				; _DECSTR, COMDAT

; 40   : __forceinline void _DECSTR(char* s, int l){int i=0,l4=(l-1)/4,*p=(int*)s;s[l-1]=0;for(;i<l4;++i)*(p++)^=0xEAEBECED;for(i=l4*4;i<l-1;++i)s[i]^=0xED-i%4;}

  00000	55		 push	 ebp
  00001	8b ec		 mov	 ebp, esp
  00003	8b 4d 0c	 mov	 ecx, DWORD PTR _l$[ebp]
  00006	56		 push	 esi
  00007	8b 75 08	 mov	 esi, DWORD PTR _s$[ebp]
  0000a	57		 push	 edi
  0000b	8d 79 ff	 lea	 edi, DWORD PTR [ecx-1]
  0000e	8b c7		 mov	 eax, edi
  00010	99		 cdq
  00011	83 e2 03	 and	 edx, 3
  00014	03 c2		 add	 eax, edx
  00016	c1 f8 02	 sar	 eax, 2
  00019	8b d6		 mov	 edx, esi
  0001b	c6 44 0e ff 00	 mov	 BYTE PTR [esi+ecx-1], 0
  00020	85 c0		 test	 eax, eax
  00022	7e 0e		 jle	 SHORT $LN4@DECSTR
  00024	8b c8		 mov	 ecx, eax
$LL6@DECSTR:
  00026	81 32 ed ec eb
	ea		 xor	 DWORD PTR [edx], -353637139 ; eaebecedH
  0002c	83 c2 04	 add	 edx, 4
  0002f	49		 dec	 ecx
  00030	75 f4		 jne	 SHORT $LL6@DECSTR
$LN4@DECSTR:
  00032	c1 e0 02	 shl	 eax, 2
  00035	eb 17		 jmp	 SHORT $LN14@DECSTR
$LL3@DECSTR:
  00037	8b c8		 mov	 ecx, eax
  00039	81 e1 03 00 00
	80		 and	 ecx, -2147483645	; 80000003H
  0003f	79 05		 jns	 SHORT $LN13@DECSTR
  00041	49		 dec	 ecx
  00042	83 c9 fc	 or	 ecx, -4			; fffffffcH
  00045	41		 inc	 ecx
$LN13@DECSTR:
  00046	b2 ed		 mov	 dl, -19			; ffffffedH
  00048	2a d1		 sub	 dl, cl
  0004a	30 14 30	 xor	 BYTE PTR [eax+esi], dl
  0004d	40		 inc	 eax
$LN14@DECSTR:
  0004e	3b c7		 cmp	 eax, edi
  00050	7c e5		 jl	 SHORT $LL3@DECSTR
  00052	5f		 pop	 edi
  00053	5e		 pop	 esi
  00054	5d		 pop	 ebp
  00055	c3		 ret	 0
?_DECSTR@@YAXPADH@Z ENDP				; _DECSTR
_TEXT	ENDS
PUBLIC	?GetMouse@ioApplication@@QAEPAVioLSMouse@@XZ	; ioApplication::GetMouse
; Function compile flags: /Ogsp
; File d:\lost saga for developer\youtube\tutorial\source\src\lsclient\ioapplication.h
;	COMDAT ?GetMouse@ioApplication@@QAEPAVioLSMouse@@XZ
_TEXT	SEGMENT
?GetMouse@ioApplication@@QAEPAVioLSMouse@@XZ PROC	; ioApplication::GetMouse, COMDAT
; _this$ = ecx

; 796  : 	inline ioLSMouse* GetMouse(){ return &m_Mouse;	}

  00000	8d 81 90 00 00
	00		 lea	 eax, DWORD PTR [ecx+144]
  00006	c3		 ret	 0
?GetMouse@ioApplication@@QAEPAVioLSMouse@@XZ ENDP	; ioApplication::GetMouse
_TEXT	ENDS
PUBLIC	??0ETCITEMSLOT@ioUserEtcItem@@QAE@XZ		; ioUserEtcItem::ETCITEMSLOT::ETCITEMSLOT
; Function compile flags: /Ogsp
; File d:\lost saga for developer\youtube\tutorial\source\src\lsclient\iouseretcitem.h
;	COMDAT ??0ETCITEMSLOT@ioUserEtcItem@@QAE@XZ
_TEXT	SEGMENT
??0ETCITEMSLOT@ioUserEtcItem@@QAE@XZ PROC		; ioUserEtcItem::ETCITEMSLOT::ETCITEMSLOT, COMDAT
; _this$ = ecx

; 22   : 		ETCITEMSLOT()

  00000	8b c1		 mov	 eax, ecx

; 23   : 		{
; 24   : 			m_iType   = 0;

  00002	33 c9		 xor	 ecx, ecx
  00004	89 08		 mov	 DWORD PTR [eax], ecx

; 25   : 			m_iValue1 = 0;

  00006	89 48 04	 mov	 DWORD PTR [eax+4], ecx

; 26   : 			m_iValue2 = 0;

  00009	89 48 08	 mov	 DWORD PTR [eax+8], ecx

; 27   : 		}

  0000c	c3		 ret	 0
??0ETCITEMSLOT@ioUserEtcItem@@QAE@XZ ENDP		; ioUserEtcItem::ETCITEMSLOT::ETCITEMSLOT
_TEXT	ENDS
PUBLIC	?GetName@ioEtcItem@@QBEABVioHashString@@XZ	; ioEtcItem::GetName
; Function compile flags: /Ogsp
; File d:\lost saga for developer\youtube\tutorial\source\src\lsclient\ioetcitem.h
;	COMDAT ?GetName@ioEtcItem@@QBEABVioHashString@@XZ
_TEXT	SEGMENT
?GetName@ioEtcItem@@QBEABVioHashString@@XZ PROC		; ioEtcItem::GetName, COMDAT
; _this$ = ecx

; 465  : 	inline const ioHashString& GetName() const { return m_Name; }

  00000	8d 41 04	 lea	 eax, DWORD PTR [ecx+4]
  00003	c3		 ret	 0
?GetName@ioEtcItem@@QBEABVioHashString@@XZ ENDP		; ioEtcItem::GetName
_TEXT	ENDS
PUBLIC	?SetJoinHeadquartersRequestName@ioMyInfo@@QAEXABVioHashString@@@Z ; ioMyInfo::SetJoinHeadquartersRequestName
EXTRN	__imp_??4ioHashString@@QAEAAV0@ABV0@@Z:PROC
; Function compile flags: /Ogsp
; File d:\lost saga for developer\youtube\tutorial\source\src\lsclient\iomyinfo.h
;	COMDAT ?SetJoinHeadquartersRequestName@ioMyInfo@@QAEXABVioHashString@@@Z
_TEXT	SEGMENT
_rkName$ = 8						; size = 4
?SetJoinHeadquartersRequestName@ioMyInfo@@QAEXABVioHashString@@@Z PROC ; ioMyInfo::SetJoinHeadquartersRequestName, COMDAT
; _this$ = ecx

; 495  : 	void SetJoinHeadquartersRequestName( const ioHashString &rkName ){ m_szJoinHeadquartersRequestName = rkName; };

  00000	55		 push	 ebp
  00001	8b ec		 mov	 ebp, esp
  00003	81 c1 6c 09 00
	00		 add	 ecx, 2412		; 0000096cH
  00009	5d		 pop	 ebp
  0000a	ff 25 00 00 00
	00		 jmp	 DWORD PTR __imp_??4ioHashString@@QAEAAV0@ABV0@@Z
?SetJoinHeadquartersRequestName@ioMyInfo@@QAEXABVioHashString@@@Z ENDP ; ioMyInfo::SetJoinHeadquartersRequestName
_TEXT	ENDS
PUBLIC	?SetJoinHouseRequestName@ioMyInfo@@QAEXABVioHashString@@@Z ; ioMyInfo::SetJoinHouseRequestName
; Function compile flags: /Ogsp
;	COMDAT ?SetJoinHouseRequestName@ioMyInfo@@QAEXABVioHashString@@@Z
_TEXT	SEGMENT
_rkName$ = 8						; size = 4
?SetJoinHouseRequestName@ioMyInfo@@QAEXABVioHashString@@@Z PROC ; ioMyInfo::SetJoinHouseRequestName, COMDAT
; _this$ = ecx

; 496  : 	void SetJoinHouseRequestName( const ioHashString &rkName ){ m_szJoinHouseRequestName = rkName; };

  00000	55		 push	 ebp
  00001	8b ec		 mov	 ebp, esp
  00003	81 c1 7c 09 00
	00		 add	 ecx, 2428		; 0000097cH
  00009	5d		 pop	 ebp
  0000a	ff 25 00 00 00
	00		 jmp	 DWORD PTR __imp_??4ioHashString@@QAEAAV0@ABV0@@Z
?SetJoinHouseRequestName@ioMyInfo@@QAEXABVioHashString@@@Z ENDP ; ioMyInfo::SetJoinHouseRequestName
_TEXT	ENDS
PUBLIC	?GetPublicID@ioMyInfo@@QBEABVioHashString@@XZ	; ioMyInfo::GetPublicID
; Function compile flags: /Ogsp
;	COMDAT ?GetPublicID@ioMyInfo@@QBEABVioHashString@@XZ
_TEXT	SEGMENT
?GetPublicID@ioMyInfo@@QBEABVioHashString@@XZ PROC	; ioMyInfo::GetPublicID, COMDAT
; _this$ = ecx

; 517  : 	const ioHashString& GetPublicID() const { return m_user_data.m_public_id; }    

  00000	8d 41 1c	 lea	 eax, DWORD PTR [ecx+28]
  00003	c3		 ret	 0
?GetPublicID@ioMyInfo@@QBEABVioHashString@@XZ ENDP	; ioMyInfo::GetPublicID
_TEXT	ENDS
PUBLIC	?GetUserCampPos@ioMyInfo@@QBE?BHXZ		; ioMyInfo::GetUserCampPos
; Function compile flags: /Ogsp
;	COMDAT ?GetUserCampPos@ioMyInfo@@QBE?BHXZ
_TEXT	SEGMENT
?GetUserCampPos@ioMyInfo@@QBE?BHXZ PROC			; ioMyInfo::GetUserCampPos, COMDAT
; _this$ = ecx

; 519  : 	const int GetUserCampPos() const { return m_user_data.m_camp_position; }

  00000	8b 41 60	 mov	 eax, DWORD PTR [ecx+96]
  00003	c3		 ret	 0
?GetUserCampPos@ioMyInfo@@QBE?BHXZ ENDP			; ioMyInfo::GetUserCampPos
_TEXT	ENDS
PUBLIC	?GetUserRanking@ioMyInfo@@QBE?BHXZ		; ioMyInfo::GetUserRanking
; Function compile flags: /Ogsp
;	COMDAT ?GetUserRanking@ioMyInfo@@QBE?BHXZ
_TEXT	SEGMENT
?GetUserRanking@ioMyInfo@@QBE?BHXZ PROC			; ioMyInfo::GetUserRanking, COMDAT
; _this$ = ecx

; 520  : 	const int GetUserRanking() const { return m_user_data.m_user_rank; }

  00000	8b 41 58	 mov	 eax, DWORD PTR [ecx+88]
  00003	c3		 ret	 0
?GetUserRanking@ioMyInfo@@QBE?BHXZ ENDP			; ioMyInfo::GetUserRanking
_TEXT	ENDS
PUBLIC	?GetMoney@ioMyInfo@@QBE_JXZ			; ioMyInfo::GetMoney
; Function compile flags: /Ogsp
;	COMDAT ?GetMoney@ioMyInfo@@QBE_JXZ
_TEXT	SEGMENT
?GetMoney@ioMyInfo@@QBE_JXZ PROC			; ioMyInfo::GetMoney, COMDAT
; _this$ = ecx

; 545  : 	__int64 GetMoney() const { return m_user_data.m_money; }

  00000	8b 41 30	 mov	 eax, DWORD PTR [ecx+48]
  00003	8b 51 34	 mov	 edx, DWORD PTR [ecx+52]
  00006	c3		 ret	 0
?GetMoney@ioMyInfo@@QBE_JXZ ENDP			; ioMyInfo::GetMoney
_TEXT	ENDS
PUBLIC	?GetUserEtcItem@ioMyInfo@@QAEPAVioUserEtcItem@@XZ ; ioMyInfo::GetUserEtcItem
; Function compile flags: /Ogsp
;	COMDAT ?GetUserEtcItem@ioMyInfo@@QAEPAVioUserEtcItem@@XZ
_TEXT	SEGMENT
?GetUserEtcItem@ioMyInfo@@QAEPAVioUserEtcItem@@XZ PROC	; ioMyInfo::GetUserEtcItem, COMDAT
; _this$ = ecx

; 635  : 	ioUserEtcItem* GetUserEtcItem() { return &m_UserEtcItem; }

  00000	8d 81 44 01 00
	00		 lea	 eax, DWORD PTR [ecx+324]
  00006	c3		 ret	 0
?GetUserEtcItem@ioMyInfo@@QAEPAVioUserEtcItem@@XZ ENDP	; ioMyInfo::GetUserEtcItem
_TEXT	ENDS
PUBLIC	?GetGuildRoomOpen@ioGuildData@@QAEHXZ		; ioGuildData::GetGuildRoomOpen
; Function compile flags: /Ogsp
; File d:\lost saga for developer\youtube\tutorial\source\src\lsclient\ioguildinfo.h
;	COMDAT ?GetGuildRoomOpen@ioGuildData@@QAEHXZ
_TEXT	SEGMENT
?GetGuildRoomOpen@ioGuildData@@QAEHXZ PROC		; ioGuildData::GetGuildRoomOpen, COMDAT
; _this$ = ecx

; 106  : 	inline BOOL GetGuildRoomOpen(){ return m_bGuildRoomOpen; }

  00000	8b 41 54	 mov	 eax, DWORD PTR [ecx+84]
  00003	c3		 ret	 0
?GetGuildRoomOpen@ioGuildData@@QAEHXZ ENDP		; ioGuildData::GetGuildRoomOpen
_TEXT	ENDS
PUBLIC	?GetGuildIndex@ioGuildInfo@@QAEKXZ		; ioGuildInfo::GetGuildIndex
; Function compile flags: /Ogsp
;	COMDAT ?GetGuildIndex@ioGuildInfo@@QAEKXZ
_TEXT	SEGMENT
?GetGuildIndex@ioGuildInfo@@QAEKXZ PROC			; ioGuildInfo::GetGuildIndex, COMDAT
; _this$ = ecx

; 302  : 	inline DWORD GetGuildIndex(){ return m_dwGuildIndex; }

  00000	8b 81 90 00 00
	00		 mov	 eax, DWORD PTR [ecx+144]
  00006	c3		 ret	 0
?GetGuildIndex@ioGuildInfo@@QAEKXZ ENDP			; ioGuildInfo::GetGuildIndex
_TEXT	ENDS
PUBLIC	?GetNextTodayBattleSec@ioCampManager@@QAEHXZ	; ioCampManager::GetNextTodayBattleSec
; Function compile flags: /Ogsp
; File d:\lost saga for developer\youtube\tutorial\source\src\lsclient\iocampmanager.h
;	COMDAT ?GetNextTodayBattleSec@ioCampManager@@QAEHXZ
_TEXT	SEGMENT
?GetNextTodayBattleSec@ioCampManager@@QAEHXZ PROC	; ioCampManager::GetNextTodayBattleSec, COMDAT
; _this$ = ecx

; 201  : 	int GetNextTodayBattleSec(){ return m_iNextTodayBattleSec; }

  00000	8b 81 c8 00 00
	00		 mov	 eax, DWORD PTR [ecx+200]
  00006	c3		 ret	 0
?GetNextTodayBattleSec@ioCampManager@@QAEHXZ ENDP	; ioCampManager::GetNextTodayBattleSec
_TEXT	ENDS
EXTRN	??3@YAXPAX@Z:PROC				; operator delete
; Function compile flags: /Ogsp
;	COMDAT ??_GLobbyBtn@@UAEPAXI@Z
_TEXT	SEGMENT
___flags$ = 8						; size = 4
??_GLobbyBtn@@UAEPAXI@Z PROC				; LobbyBtn::`scalar deleting destructor', COMDAT
; _this$ = ecx
  00000	55		 push	 ebp
  00001	8b ec		 mov	 ebp, esp
  00003	56		 push	 esi
  00004	8b f1		 mov	 esi, ecx
  00006	e8 00 00 00 00	 call	 ??1LobbyBtn@@UAE@XZ	; LobbyBtn::~LobbyBtn
  0000b	f6 45 08 01	 test	 BYTE PTR ___flags$[ebp], 1
  0000f	74 07		 je	 SHORT $LN1@scalar
  00011	56		 push	 esi
  00012	e8 00 00 00 00	 call	 ??3@YAXPAX@Z		; operator delete
  00017	59		 pop	 ecx
$LN1@scalar:
  00018	8b c6		 mov	 eax, esi
  0001a	5e		 pop	 esi
  0001b	5d		 pop	 ebp
  0001c	c2 04 00	 ret	 4
??_GLobbyBtn@@UAEPAXI@Z ENDP				; LobbyBtn::`scalar deleting destructor'
_TEXT	ENDS
PUBLIC	__real@3f59999a
PUBLIC	??_C@_0BD@LHBDDMNH@LobbyBtn?3?3OnRender?$AA@	; `string'
PUBLIC	__real@4f800000
PUBLIC	__real@3f0ccccd
EXTRN	?GetSingleton@ioCampManager@@SAAAV1@XZ:PROC	; ioCampManager::GetSingleton
EXTRN	__imp_?SetBkColor@ioFontManager@@QAEXK@Z:PROC
EXTRN	__imp_?PrintText@ioFontManager@@QAAXMMMPBDZZ:PROC
EXTRN	__imp_?SetTextColor@ioFontManager@@QAEXK@Z:PROC
EXTRN	__imp_?SetTextColor@ioFontManager@@QAEXHHH@Z:PROC
EXTRN	__imp_?SetBkColor@ioFontManager@@QAEXHHH@Z:PROC
EXTRN	__imp_?SetAlignType@ioFontManager@@QAEXW4TextAlignType@@@Z:PROC
EXTRN	__imp_?SetTextStyle@ioFontManager@@QAEXW4TextStyle@@@Z:PROC
EXTRN	__imp_?GetSingleton@ioFontManager@@SAAAV1@XZ:PROC
EXTRN	?GetRegularState@ioTournamentManager@@QAEHXZ:PROC ; ioTournamentManager::GetRegularState
EXTRN	?IsRegularDisableTournament@ioTournamentManager@@QAE_NXZ:PROC ; ioTournamentManager::IsRegularDisableTournament
EXTRN	?GetSingleton@ioTournamentManager@@SAAAV1@XZ:PROC ; ioTournamentManager::GetSingleton
;	COMDAT __real@3f59999a
CONST	SEGMENT
__real@3f59999a DD 03f59999ar			; 0.85
CONST	ENDS
;	COMDAT ??_C@_0BD@LHBDDMNH@LobbyBtn?3?3OnRender?$AA@
CONST	SEGMENT
??_C@_0BD@LHBDDMNH@LobbyBtn?3?3OnRender?$AA@ DB 'LobbyBtn::OnRender', 00H ; `string'
CONST	ENDS
;	COMDAT __real@4f800000
CONST	SEGMENT
__real@4f800000 DD 04f800000r			; 4.29497e+009
CONST	ENDS
;	COMDAT __real@3f0ccccd
CONST	SEGMENT
__real@3f0ccccd DD 03f0ccccdr			; 0.55
; Function compile flags: /Ogsp
; File d:\lost saga for developer\youtube\tutorial\source\src\lsclient\gui\lobbymainwnd.cpp
CONST	ENDS
;	COMDAT ?OnRender@LobbyBtn@@MAEXXZ
_TEXT	SEGMENT
tv1314 = -28						; size = 4
tv1310 = -28						; size = 4
tv1304 = -28						; size = 4
tv1299 = -28						; size = 4
tv1280 = -28						; size = 4
tv1275 = -28						; size = 4
tv1268 = -28						; size = 4
tv1264 = -28						; size = 4
tv1294 = -24						; size = 4
tv1271 = -24						; size = 4
tv1259 = -24						; size = 4
$T538116 = -24						; size = 4
$T538108 = -24						; size = 4
$T538120 = -20						; size = 4
$T538104 = -20						; size = 4
tv1306 = -16						; size = 4
$T538124 = -16						; size = 4
$T538100 = -16						; size = 4
_this$ = -12						; size = 4
_iState$533616 = -8					; size = 4
_iYPos$ = -8						; size = 4
tv1346 = -4						; size = 4
_iXPos$ = -4						; size = 4
?OnRender@LobbyBtn@@MAEXXZ PROC				; LobbyBtn::OnRender, COMDAT
; _this$ = ecx

; 114  : {

  00000	55		 push	 ebp
  00001	8b ec		 mov	 ebp, esp
  00003	83 ec 1c	 sub	 esp, 28			; 0000001cH
  00006	53		 push	 ebx
  00007	56		 push	 esi
  00008	8b f1		 mov	 esi, ecx
  0000a	57		 push	 edi
  0000b	89 75 f4	 mov	 DWORD PTR _this$[ebp], esi

; 115  : 	ioRadioButton::OnRender();

  0000e	ff 15 00 00 00
	00		 call	 DWORD PTR __imp_?OnRender@ioButton@@MAEXXZ

; 116  : 
; 117  : 	int iXPos = GetDerivedPosX();

  00014	8b ce		 mov	 ecx, esi
  00016	ff 15 00 00 00
	00		 call	 DWORD PTR __imp_?GetDerivedPosX@ioWnd@@QBEHXZ
  0001c	8b d8		 mov	 ebx, eax

; 118  : 	int iYPos = GetDerivedPosY();

  0001e	8b ce		 mov	 ecx, esi
  00020	89 5d fc	 mov	 DWORD PTR _iXPos$[ebp], ebx
  00023	ff 15 00 00 00
	00		 call	 DWORD PTR __imp_?GetDerivedPosY@ioWnd@@QBEHXZ

; 119  : 
; 120  : 	if( m_bClicked )

  00029	80 be a6 00 00
	00 00		 cmp	 BYTE PTR [esi+166], 0
  00030	f3 0f 10 05 00
	00 00 00	 movss	 xmm0, DWORD PTR __real@3f0ccccd
  00038	8b f8		 mov	 edi, eax
  0003a	89 7d f8	 mov	 DWORD PTR _iYPos$[ebp], edi
  0003d	0f 84 8c 01 00
	00		 je	 $LN39@OnRender@2

; 121  : 	{
; 122  : 		if( m_pIconBack )

  00043	33 db		 xor	 ebx, ebx
  00045	39 9e fc 01 00
	00		 cmp	 DWORD PTR [esi+508], ebx
  0004b	0f 84 b7 00 00
	00		 je	 $LN62@OnRender@2

; 123  : 		{
; 124  : 			m_pIconBack->SetScale( FLOAT05, FLOAT05 );

  00051	b8 05 00 00 00	 mov	 eax, 5
  00056	8b d0		 mov	 edx, eax
  00058	b8 0a 00 00 00	 mov	 eax, 10			; 0000000aH
  0005d	89 45 f0	 mov	 DWORD PTR $T538100[ebp], eax
  00060	b8 05 00 00 00	 mov	 eax, 5
  00065	89 45 ec	 mov	 DWORD PTR $T538104[ebp], eax
  00068	b8 0a 00 00 00	 mov	 eax, 10			; 0000000aH
  0006d	8b 8e fc 01 00
	00		 mov	 ecx, DWORD PTR [esi+508]
  00073	89 55 e4	 mov	 DWORD PTR tv1314[ebp], edx
  00076	db 45 e4	 fild	 DWORD PTR tv1314[ebp]
  00079	89 45 e8	 mov	 DWORD PTR $T538108[ebp], eax
  0007c	8b 01		 mov	 eax, DWORD PTR [ecx]
  0007e	85 d2		 test	 edx, edx
  00080	79 06		 jns	 SHORT $LN70@OnRender@2
  00082	d8 05 00 00 00
	00		 fadd	 DWORD PTR __real@4f800000
$LN70@OnRender@2:
  00088	8b 55 f0	 mov	 edx, DWORD PTR $T538100[ebp]
  0008b	db 45 f0	 fild	 DWORD PTR $T538100[ebp]
  0008e	85 d2		 test	 edx, edx
  00090	79 06		 jns	 SHORT $LN71@OnRender@2
  00092	d8 05 00 00 00
	00		 fadd	 DWORD PTR __real@4f800000
$LN71@OnRender@2:
  00098	de f9		 fdivp	 ST(1), ST(0)
  0009a	8b 55 ec	 mov	 edx, DWORD PTR $T538104[ebp]
  0009d	51		 push	 ecx
  0009e	51		 push	 ecx
  0009f	d9 5d f0	 fstp	 DWORD PTR tv1306[ebp]
  000a2	d9 45 f0	 fld	 DWORD PTR tv1306[ebp]
  000a5	d9 5c 24 04	 fstp	 DWORD PTR [esp+4]
  000a9	db 45 ec	 fild	 DWORD PTR $T538104[ebp]
  000ac	85 d2		 test	 edx, edx
  000ae	79 06		 jns	 SHORT $LN72@OnRender@2
  000b0	d8 05 00 00 00
	00		 fadd	 DWORD PTR __real@4f800000
$LN72@OnRender@2:
  000b6	8b 55 e8	 mov	 edx, DWORD PTR $T538108[ebp]
  000b9	db 45 e8	 fild	 DWORD PTR $T538108[ebp]
  000bc	85 d2		 test	 edx, edx
  000be	79 06		 jns	 SHORT $LN73@OnRender@2
  000c0	d8 05 00 00 00
	00		 fadd	 DWORD PTR __real@4f800000
$LN73@OnRender@2:
  000c6	de f9		 fdivp	 ST(1), ST(0)
  000c8	d9 5d e8	 fstp	 DWORD PTR tv1294[ebp]
  000cb	d9 45 e8	 fld	 DWORD PTR tv1294[ebp]
  000ce	d9 1c 24	 fstp	 DWORD PTR [esp]
  000d1	ff 50 18	 call	 DWORD PTR [eax+24]

; 125  : 			m_pIconBack->Render( iXPos + 35, iYPos + 35, UI_RENDER_MULTIPLY, TFO_BILINEAR );

  000d4	8b 8e fc 01 00
	00		 mov	 ecx, DWORD PTR [esi+508]
  000da	8b 01		 mov	 eax, DWORD PTR [ecx]
  000dc	53		 push	 ebx
  000dd	53		 push	 ebx
  000de	6a 01		 push	 1
  000e0	6a 08		 push	 8
  000e2	0f 57 c0	 xorps	 xmm0, xmm0
  000e5	8d 57 23	 lea	 edx, DWORD PTR [edi+35]
  000e8	f3 0f 2a c2	 cvtsi2ss xmm0, edx
  000ec	8b 55 fc	 mov	 edx, DWORD PTR _iXPos$[ebp]
  000ef	51		 push	 ecx
  000f0	51		 push	 ecx
  000f1	f3 0f 11 44 24
	04		 movss	 DWORD PTR [esp+4], xmm0
  000f7	83 c2 23	 add	 edx, 35			; 00000023H
  000fa	0f 57 c0	 xorps	 xmm0, xmm0
  000fd	f3 0f 2a c2	 cvtsi2ss xmm0, edx
  00101	f3 0f 11 04 24	 movss	 DWORD PTR [esp], xmm0
  00106	ff 10		 call	 DWORD PTR [eax]
$LN62@OnRender@2:

; 126  : 		}
; 127  : 
; 128  : 		if( m_pIcon )

  00108	39 9e 00 02 00
	00		 cmp	 DWORD PTR [esi+512], ebx
  0010e	0f 84 c2 01 00
	00		 je	 $LN64@OnRender@2

; 129  : 		{
; 130  : 			m_pIcon->SetScale( FLOAT05, FLOAT05 );

  00114	b8 05 00 00 00	 mov	 eax, 5
  00119	8b d0		 mov	 edx, eax
  0011b	b8 0a 00 00 00	 mov	 eax, 10			; 0000000aH
  00120	89 45 e8	 mov	 DWORD PTR $T538116[ebp], eax
  00123	b8 05 00 00 00	 mov	 eax, 5
  00128	89 45 ec	 mov	 DWORD PTR $T538120[ebp], eax
  0012b	b8 0a 00 00 00	 mov	 eax, 10			; 0000000aH
  00130	8b 8e 00 02 00
	00		 mov	 ecx, DWORD PTR [esi+512]
  00136	89 55 e4	 mov	 DWORD PTR tv1280[ebp], edx
  00139	db 45 e4	 fild	 DWORD PTR tv1280[ebp]
  0013c	89 45 f0	 mov	 DWORD PTR $T538124[ebp], eax
  0013f	8b 01		 mov	 eax, DWORD PTR [ecx]
  00141	85 d2		 test	 edx, edx
  00143	79 06		 jns	 SHORT $LN74@OnRender@2
  00145	d8 05 00 00 00
	00		 fadd	 DWORD PTR __real@4f800000
$LN74@OnRender@2:
  0014b	8b 55 e8	 mov	 edx, DWORD PTR $T538116[ebp]
  0014e	db 45 e8	 fild	 DWORD PTR $T538116[ebp]
  00151	85 d2		 test	 edx, edx
  00153	79 06		 jns	 SHORT $LN75@OnRender@2
  00155	d8 05 00 00 00
	00		 fadd	 DWORD PTR __real@4f800000
$LN75@OnRender@2:
  0015b	de f9		 fdivp	 ST(1), ST(0)
  0015d	8b 55 ec	 mov	 edx, DWORD PTR $T538120[ebp]
  00160	51		 push	 ecx
  00161	51		 push	 ecx
  00162	d9 5d e8	 fstp	 DWORD PTR tv1271[ebp]
  00165	d9 45 e8	 fld	 DWORD PTR tv1271[ebp]
  00168	d9 5c 24 04	 fstp	 DWORD PTR [esp+4]
  0016c	db 45 ec	 fild	 DWORD PTR $T538120[ebp]
  0016f	85 d2		 test	 edx, edx
  00171	79 06		 jns	 SHORT $LN76@OnRender@2
  00173	d8 05 00 00 00
	00		 fadd	 DWORD PTR __real@4f800000
$LN76@OnRender@2:
  00179	8b 55 f0	 mov	 edx, DWORD PTR $T538124[ebp]
  0017c	db 45 f0	 fild	 DWORD PTR $T538124[ebp]
  0017f	85 d2		 test	 edx, edx
  00181	79 06		 jns	 SHORT $LN77@OnRender@2
  00183	d8 05 00 00 00
	00		 fadd	 DWORD PTR __real@4f800000
$LN77@OnRender@2:
  00189	de f9		 fdivp	 ST(1), ST(0)
  0018b	d9 5d e8	 fstp	 DWORD PTR tv1259[ebp]
  0018e	d9 45 e8	 fld	 DWORD PTR tv1259[ebp]
  00191	d9 1c 24	 fstp	 DWORD PTR [esp]
  00194	ff 50 18	 call	 DWORD PTR [eax+24]

; 131  : 			m_pIcon->Render( iXPos + 35, iYPos + 35, UI_RENDER_NORMAL, TFO_BILINEAR );

  00197	8b 8e 00 02 00
	00		 mov	 ecx, DWORD PTR [esi+512]
  0019d	8b 01		 mov	 eax, DWORD PTR [ecx]
  0019f	53		 push	 ebx
  001a0	53		 push	 ebx
  001a1	6a 01		 push	 1
  001a3	53		 push	 ebx
  001a4	0f 57 c0	 xorps	 xmm0, xmm0
  001a7	8d 57 23	 lea	 edx, DWORD PTR [edi+35]
  001aa	f3 0f 2a c2	 cvtsi2ss xmm0, edx
  001ae	8b 55 fc	 mov	 edx, DWORD PTR _iXPos$[ebp]
  001b1	51		 push	 ecx
  001b2	51		 push	 ecx
  001b3	f3 0f 11 44 24
	04		 movss	 DWORD PTR [esp+4], xmm0
  001b9	83 c2 23	 add	 edx, 35			; 00000023H
  001bc	0f 57 c0	 xorps	 xmm0, xmm0
  001bf	f3 0f 2a c2	 cvtsi2ss xmm0, edx
  001c3	f3 0f 11 04 24	 movss	 DWORD PTR [esp], xmm0
  001c8	ff 10		 call	 DWORD PTR [eax]

; 132  : 		}
; 133  : 	}
; 134  : 	else

  001ca	e9 07 01 00 00	 jmp	 $LN64@OnRender@2
$LN39@OnRender@2:

; 135  : 	{
; 136  : 		if( m_pIconBack )

  001cf	83 be fc 01 00
	00 00		 cmp	 DWORD PTR [esi+508], 0
  001d6	74 53		 je	 SHORT $LN35@OnRender@2

; 137  : 		{
; 138  : 			m_pIconBack->SetScale( 0.55f, 0.55f );

  001d8	8b 8e fc 01 00
	00		 mov	 ecx, DWORD PTR [esi+508]
  001de	8b 01		 mov	 eax, DWORD PTR [ecx]
  001e0	51		 push	 ecx
  001e1	51		 push	 ecx
  001e2	f3 0f 11 44 24
	04		 movss	 DWORD PTR [esp+4], xmm0
  001e8	f3 0f 11 04 24	 movss	 DWORD PTR [esp], xmm0
  001ed	ff 50 18	 call	 DWORD PTR [eax+24]

; 139  : 			m_pIconBack->Render( iXPos + 35, iYPos + 35, UI_RENDER_MULTIPLY, TFO_BILINEAR );

  001f0	8b 8e fc 01 00
	00		 mov	 ecx, DWORD PTR [esi+508]
  001f6	8b 01		 mov	 eax, DWORD PTR [ecx]
  001f8	6a 00		 push	 0
  001fa	6a 00		 push	 0
  001fc	6a 01		 push	 1
  001fe	6a 08		 push	 8
  00200	0f 57 c0	 xorps	 xmm0, xmm0
  00203	51		 push	 ecx
  00204	8d 57 23	 lea	 edx, DWORD PTR [edi+35]
  00207	f3 0f 2a c2	 cvtsi2ss xmm0, edx
  0020b	51		 push	 ecx
  0020c	f3 0f 11 44 24
	04		 movss	 DWORD PTR [esp+4], xmm0
  00212	8d 53 23	 lea	 edx, DWORD PTR [ebx+35]
  00215	0f 57 c0	 xorps	 xmm0, xmm0
  00218	f3 0f 2a c2	 cvtsi2ss xmm0, edx
  0021c	f3 0f 11 04 24	 movss	 DWORD PTR [esp], xmm0
  00221	ff 10		 call	 DWORD PTR [eax]
  00223	f3 0f 10 05 00
	00 00 00	 movss	 xmm0, DWORD PTR __real@3f0ccccd
$LN35@OnRender@2:

; 140  : 		}
; 141  : 
; 142  : 		if( m_pIcon )

  0022b	83 be 00 02 00
	00 00		 cmp	 DWORD PTR [esi+512], 0
  00232	0f 84 9c 00 00
	00		 je	 $LN63@OnRender@2

; 143  : 		{
; 144  : 			m_pIcon->SetScale( 0.55f, 0.55f );

  00238	8b 8e 00 02 00
	00		 mov	 ecx, DWORD PTR [esi+512]
  0023e	8b 01		 mov	 eax, DWORD PTR [ecx]
  00240	51		 push	 ecx
  00241	51		 push	 ecx
  00242	f3 0f 11 44 24
	04		 movss	 DWORD PTR [esp+4], xmm0
  00248	f3 0f 11 04 24	 movss	 DWORD PTR [esp], xmm0
  0024d	ff 50 18	 call	 DWORD PTR [eax+24]

; 145  : 			if( g_TournamentMgr.IsRegularDisableTournament() && GetID() == LobbyWnd::ID_TOURNAMENT_BTN )

  00250	e8 00 00 00 00	 call	 ?GetSingleton@ioTournamentManager@@SAAAV1@XZ ; ioTournamentManager::GetSingleton
  00255	8b c8		 mov	 ecx, eax
  00257	e8 00 00 00 00	 call	 ?IsRegularDisableTournament@ioTournamentManager@@QAE_NXZ ; ioTournamentManager::IsRegularDisableTournament
  0025c	84 c0		 test	 al, al
  0025e	74 42		 je	 SHORT $LN33@OnRender@2
  00260	8b ce		 mov	 ecx, esi
  00262	ff 15 00 00 00
	00		 call	 DWORD PTR __imp_?GetID@ioWnd@@QBEKXZ
  00268	83 f8 07	 cmp	 eax, 7
  0026b	75 35		 jne	 SHORT $LN33@OnRender@2

; 146  : 				m_pIcon->Render( iXPos + 35, iYPos + 35, UI_RENDER_GRAY_LIGHT, TFO_BILINEAR );

  0026d	8b 8e 00 02 00
	00		 mov	 ecx, DWORD PTR [esi+512]
  00273	8b 01		 mov	 eax, DWORD PTR [ecx]
  00275	6a 00		 push	 0
  00277	6a 00		 push	 0
  00279	6a 01		 push	 1
  0027b	6a 09		 push	 9
  0027d	0f 57 c0	 xorps	 xmm0, xmm0
  00280	51		 push	 ecx
  00281	8d 57 23	 lea	 edx, DWORD PTR [edi+35]
  00284	f3 0f 2a c2	 cvtsi2ss xmm0, edx
  00288	51		 push	 ecx
  00289	f3 0f 11 44 24
	04		 movss	 DWORD PTR [esp+4], xmm0
  0028f	83 c3 23	 add	 ebx, 35			; 00000023H
  00292	0f 57 c0	 xorps	 xmm0, xmm0
  00295	f3 0f 2a c3	 cvtsi2ss xmm0, ebx
  00299	f3 0f 11 04 24	 movss	 DWORD PTR [esp], xmm0
  0029e	ff 10		 call	 DWORD PTR [eax]

; 147  : 			else

  002a0	eb 32		 jmp	 SHORT $LN63@OnRender@2
$LN33@OnRender@2:

; 148  : 				m_pIcon->Render( iXPos + 35, iYPos + 35, UI_RENDER_NORMAL, TFO_BILINEAR );

  002a2	8b 8e 00 02 00
	00		 mov	 ecx, DWORD PTR [esi+512]
  002a8	8b 11		 mov	 edx, DWORD PTR [ecx]
  002aa	33 c0		 xor	 eax, eax
  002ac	50		 push	 eax
  002ad	50		 push	 eax
  002ae	6a 01		 push	 1
  002b0	50		 push	 eax
  002b1	0f 57 c0	 xorps	 xmm0, xmm0
  002b4	51		 push	 ecx
  002b5	8d 47 23	 lea	 eax, DWORD PTR [edi+35]
  002b8	f3 0f 2a c0	 cvtsi2ss xmm0, eax
  002bc	51		 push	 ecx
  002bd	f3 0f 11 44 24
	04		 movss	 DWORD PTR [esp+4], xmm0
  002c3	83 c3 23	 add	 ebx, 35			; 00000023H
  002c6	0f 57 c0	 xorps	 xmm0, xmm0
  002c9	f3 0f 2a c3	 cvtsi2ss xmm0, ebx
  002cd	f3 0f 11 04 24	 movss	 DWORD PTR [esp], xmm0
  002d2	ff 12		 call	 DWORD PTR [edx]
$LN63@OnRender@2:

; 147  : 			else

  002d4	33 db		 xor	 ebx, ebx
$LN64@OnRender@2:

; 149  : 		}
; 150  : 	}
; 151  : 
; 152  : 	switch( GetID() )

  002d6	8b ce		 mov	 ecx, esi
  002d8	ff 15 00 00 00
	00		 call	 DWORD PTR __imp_?GetID@ioWnd@@QBEKXZ
  002de	48		 dec	 eax
  002df	0f 84 31 09 00
	00		 je	 $LN29@OnRender@2
  002e5	48		 dec	 eax
  002e6	0f 84 1e 07 00
	00		 je	 $LN28@OnRender@2
  002ec	48		 dec	 eax
  002ed	0f 84 c6 04 00
	00		 je	 $LN23@OnRender@2
  002f3	48		 dec	 eax
  002f4	0f 84 e8 03 00
	00		 je	 $LN18@OnRender@2
  002fa	48		 dec	 eax
  002fb	0f 84 0a 03 00
	00		 je	 $LN17@OnRender@2
  00301	48		 dec	 eax
  00302	48		 dec	 eax
  00303	0f 85 2b 0a 00
	00		 jne	 $LN30@OnRender@2

; 265  : 	case LobbyWnd::ID_TOURNAMENT_BTN:
; 266  : 		{
; 267  : 			int iState = g_TournamentMgr.GetRegularState();

  00309	e8 00 00 00 00	 call	 ?GetSingleton@ioTournamentManager@@SAAAV1@XZ ; ioTournamentManager::GetSingleton
  0030e	8b c8		 mov	 ecx, eax
  00310	e8 00 00 00 00	 call	 ?GetRegularState@ioTournamentManager@@QAEHXZ ; ioTournamentManager::GetRegularState

; 268  : 			if( iState != -1 )       // 아직 정보가 도착하지 않았음.
; 269  : 			{
; 270  : 				g_FontMgr.SetTextStyle( TS_NORMAL );

  00315	8b 35 00 00 00
	00		 mov	 esi, DWORD PTR __imp_?GetSingleton@ioFontManager@@SAAAV1@XZ
  0031b	89 45 f8	 mov	 DWORD PTR _iState$533616[ebp], eax
  0031e	bb 00 00 00 00	 mov	 ebx, OFFSET ??_C@_0BD@LHBDDMNH@LobbyBtn?3?3OnRender?$AA@
  00323	83 f8 ff	 cmp	 eax, -1
  00326	0f 84 aa 01 00
	00		 je	 $LN6@OnRender@2
  0032c	6a 00		 push	 0
  0032e	ff d6		 call	 esi
  00330	8b c8		 mov	 ecx, eax
  00332	ff 15 00 00 00
	00		 call	 DWORD PTR __imp_?SetTextStyle@ioFontManager@@QAEXW4TextStyle@@@Z

; 271  : 				g_FontMgr.SetAlignType( TAT_CENTER );

  00338	6a 01		 push	 1
  0033a	ff d6		 call	 esi
  0033c	8b c8		 mov	 ecx, eax
  0033e	ff 15 00 00 00
	00		 call	 DWORD PTR __imp_?SetAlignType@ioFontManager@@QAEXW4TextAlignType@@@Z

; 272  : 				g_FontMgr.SetBkColor( 255, 255, 255 );

  00344	be ff 00 00 00	 mov	 esi, 255		; 000000ffH
  00349	56		 push	 esi
  0034a	56		 push	 esi
  0034b	56		 push	 esi
  0034c	ff 15 00 00 00
	00		 call	 DWORD PTR __imp_?GetSingleton@ioFontManager@@SAAAV1@XZ
  00352	8b c8		 mov	 ecx, eax
  00354	ff 15 00 00 00
	00		 call	 DWORD PTR __imp_?SetBkColor@ioFontManager@@QAEXHHH@Z

; 273  : 				g_FontMgr.SetTextColor( 255, 255, 255 );

  0035a	56		 push	 esi
  0035b	56		 push	 esi
  0035c	56		 push	 esi
  0035d	8b 35 00 00 00
	00		 mov	 esi, DWORD PTR __imp_?GetSingleton@ioFontManager@@SAAAV1@XZ
  00363	ff d6		 call	 esi
  00365	8b c8		 mov	 ecx, eax
  00367	ff 15 00 00 00
	00		 call	 DWORD PTR __imp_?SetTextColor@ioFontManager@@QAEXHHH@Z

; 274  : 
; 275  : 				if( g_TournamentMgr.IsRegularDisableTournament() )

  0036d	e8 00 00 00 00	 call	 ?GetSingleton@ioTournamentManager@@SAAAV1@XZ ; ioTournamentManager::GetSingleton
  00372	8b c8		 mov	 ecx, eax
  00374	e8 00 00 00 00	 call	 ?IsRegularDisableTournament@ioTournamentManager@@QAE_NXZ ; ioTournamentManager::IsRegularDisableTournament

; 276  : 				{
; 277  : 					if( m_pStateGreenFrm )

  00379	33 d2		 xor	 edx, edx
  0037b	84 c0		 test	 al, al
  0037d	8b 45 f4	 mov	 eax, DWORD PTR _this$[ebp]
  00380	74 4b		 je	 SHORT $LN14@OnRender@2
  00382	39 90 04 02 00
	00		 cmp	 DWORD PTR [eax+516], edx
  00388	74 2b		 je	 SHORT $LN66@OnRender@2

; 278  : 						m_pStateGreenFrm->Render( iXPos, iYPos, UI_RENDER_GRAY_LIGHT );

  0038a	8b 88 04 02 00
	00		 mov	 ecx, DWORD PTR [eax+516]
  00390	8b 01		 mov	 eax, DWORD PTR [ecx]
  00392	52		 push	 edx
  00393	52		 push	 edx
  00394	52		 push	 edx
  00395	6a 09		 push	 9
  00397	0f 57 c0	 xorps	 xmm0, xmm0
  0039a	51		 push	 ecx
  0039b	f3 0f 2a c7	 cvtsi2ss xmm0, edi
  0039f	51		 push	 ecx
  003a0	f3 0f 11 44 24
	04		 movss	 DWORD PTR [esp+4], xmm0
  003a6	66 0f 6e 45 fc	 movd	 xmm0, DWORD PTR _iXPos$[ebp]
  003ab	0f 5b c0	 cvtdq2ps xmm0, xmm0
  003ae	f3 0f 11 04 24	 movss	 DWORD PTR [esp], xmm0
  003b3	ff 10		 call	 DWORD PTR [eax]
$LN66@OnRender@2:

; 279  : 
; 280  : 					g_FontMgr.SetTextColor( TCT_DEFAULT_LIGHTGRAY );

  003b5	68 a7 a7 a7 ff	 push	 -5789785		; ffa7a7a7H
  003ba	ff d6		 call	 esi
  003bc	8b c8		 mov	 ecx, eax
  003be	ff 15 00 00 00
	00		 call	 DWORD PTR __imp_?SetTextColor@ioFontManager@@QAEXK@Z

; 281  : 					g_FontMgr.PrintText( iXPos + 27, iYPos + 9, FONT_SIZE_11, STR(20) );

  003c4	6a 00		 push	 0
  003c6	6a 14		 push	 20			; 00000014H

; 282  : 				}
; 283  : 				else

  003c8	e9 b5 00 00 00	 jmp	 $LN78@OnRender@2
$LN14@OnRender@2:

; 284  : 				{
; 285  : 					if( iState == TournamentNode::STATE_TEAM_APP )

  003cd	83 7d f8 01	 cmp	 DWORD PTR _iState$533616[ebp], 1
  003d1	75 39		 jne	 SHORT $LN11@OnRender@2

; 286  : 					{
; 287  : 						if( m_pStateOrangeFrm )

  003d3	39 90 0c 02 00
	00		 cmp	 DWORD PTR [eax+524], edx
  003d9	74 2c		 je	 SHORT $LN67@OnRender@2

; 288  : 							m_pStateOrangeFrm->Render( iXPos, iYPos );

  003db	8b 88 0c 02 00
	00		 mov	 ecx, DWORD PTR [eax+524]
  003e1	8b 01		 mov	 eax, DWORD PTR [ecx]
  003e3	52		 push	 edx
  003e4	52		 push	 edx
  003e5	52		 push	 edx
  003e6	52		 push	 edx
  003e7	0f 57 c0	 xorps	 xmm0, xmm0
  003ea	51		 push	 ecx
  003eb	f3 0f 2a c7	 cvtsi2ss xmm0, edi
  003ef	51		 push	 ecx
  003f0	f3 0f 11 44 24
	04		 movss	 DWORD PTR [esp+4], xmm0
  003f6	66 0f 6e 45 fc	 movd	 xmm0, DWORD PTR _iXPos$[ebp]
  003fb	0f 5b c0	 cvtdq2ps xmm0, xmm0
  003fe	f3 0f 11 04 24	 movss	 DWORD PTR [esp], xmm0
  00403	ff 10		 call	 DWORD PTR [eax]
  00405	33 d2		 xor	 edx, edx
$LN67@OnRender@2:

; 289  : 
; 290  : 						g_FontMgr.PrintText( iXPos + 27, iYPos + 9, FONT_SIZE_11, STR(21) );

  00407	52		 push	 edx
  00408	6a 15		 push	 21			; 00000015H
  0040a	eb 76		 jmp	 SHORT $LN78@OnRender@2
$LN11@OnRender@2:

; 291  : 					}
; 292  : 					else if( iState == TournamentNode::STATE_TEAM_DELAY )

  0040c	83 7d f8 02	 cmp	 DWORD PTR _iState$533616[ebp], 2
  00410	75 39		 jne	 SHORT $LN8@OnRender@2

; 293  : 					{
; 294  : 						if( m_pStatePinkFrm )

  00412	39 90 10 02 00
	00		 cmp	 DWORD PTR [eax+528], edx
  00418	74 2c		 je	 SHORT $LN68@OnRender@2

; 295  : 							m_pStatePinkFrm->Render( iXPos, iYPos );

  0041a	8b 88 10 02 00
	00		 mov	 ecx, DWORD PTR [eax+528]
  00420	8b 01		 mov	 eax, DWORD PTR [ecx]
  00422	52		 push	 edx
  00423	52		 push	 edx
  00424	52		 push	 edx
  00425	52		 push	 edx
  00426	0f 57 c0	 xorps	 xmm0, xmm0
  00429	51		 push	 ecx
  0042a	f3 0f 2a c7	 cvtsi2ss xmm0, edi
  0042e	51		 push	 ecx
  0042f	f3 0f 11 44 24
	04		 movss	 DWORD PTR [esp+4], xmm0
  00435	66 0f 6e 45 fc	 movd	 xmm0, DWORD PTR _iXPos$[ebp]
  0043a	0f 5b c0	 cvtdq2ps xmm0, xmm0
  0043d	f3 0f 11 04 24	 movss	 DWORD PTR [esp], xmm0
  00442	ff 10		 call	 DWORD PTR [eax]
  00444	33 d2		 xor	 edx, edx
$LN68@OnRender@2:

; 296  : 
; 297  : 						g_FontMgr.PrintText( iXPos + 27, iYPos + 9, FONT_SIZE_11, STR(22) );

  00446	52		 push	 edx
  00447	6a 16		 push	 22			; 00000016H

; 298  : 
; 299  : 					}
; 300  : 					else

  00449	eb 37		 jmp	 SHORT $LN78@OnRender@2
$LN8@OnRender@2:

; 301  : 					{
; 302  : 						if( m_pStateGreenFrm )

  0044b	39 90 04 02 00
	00		 cmp	 DWORD PTR [eax+516], edx
  00451	74 2c		 je	 SHORT $LN69@OnRender@2

; 303  : 							m_pStateGreenFrm->Render( iXPos, iYPos );

  00453	8b 88 04 02 00
	00		 mov	 ecx, DWORD PTR [eax+516]
  00459	8b 01		 mov	 eax, DWORD PTR [ecx]
  0045b	52		 push	 edx
  0045c	52		 push	 edx
  0045d	52		 push	 edx
  0045e	52		 push	 edx
  0045f	0f 57 c0	 xorps	 xmm0, xmm0
  00462	51		 push	 ecx
  00463	f3 0f 2a c7	 cvtsi2ss xmm0, edi
  00467	51		 push	 ecx
  00468	f3 0f 11 44 24
	04		 movss	 DWORD PTR [esp+4], xmm0
  0046e	66 0f 6e 45 fc	 movd	 xmm0, DWORD PTR _iXPos$[ebp]
  00473	0f 5b c0	 cvtdq2ps xmm0, xmm0
  00476	f3 0f 11 04 24	 movss	 DWORD PTR [esp], xmm0
  0047b	ff 10		 call	 DWORD PTR [eax]
  0047d	33 d2		 xor	 edx, edx
$LN69@OnRender@2:

; 304  : 
; 305  : 						g_FontMgr.PrintText( iXPos + 27, iYPos + 9, FONT_SIZE_11, STR(23) );

  0047f	52		 push	 edx
  00480	6a 17		 push	 23			; 00000017H
$LN78@OnRender@2:
  00482	68 00 00 00 00	 push	 OFFSET ??_C@_00CNPNBAHC@?$AA@
  00487	53		 push	 ebx
  00488	ff 15 00 00 00
	00		 call	 DWORD PTR __imp_?GetSingleton@ioStringManager@@SAAAV1@XZ
  0048e	8b c8		 mov	 ecx, eax
  00490	ff 15 00 00 00
	00		 call	 DWORD PTR __imp_?GetString@ioStringManager@@QAEPADPBD0HW4FileNamePrefix@1@@Z
  00496	f3 0f 10 05 00
	00 00 00	 movss	 xmm0, DWORD PTR __real@3f0ccccd
  0049e	50		 push	 eax
  0049f	83 ec 0c	 sub	 esp, 12			; 0000000cH
  004a2	f3 0f 11 44 24
	08		 movss	 DWORD PTR [esp+8], xmm0
  004a8	0f 57 c0	 xorps	 xmm0, xmm0
  004ab	8d 47 09	 lea	 eax, DWORD PTR [edi+9]
  004ae	f3 0f 2a c0	 cvtsi2ss xmm0, eax
  004b2	8b 45 fc	 mov	 eax, DWORD PTR _iXPos$[ebp]
  004b5	f3 0f 11 44 24
	04		 movss	 DWORD PTR [esp+4], xmm0
  004bb	83 c0 1b	 add	 eax, 27			; 0000001bH
  004be	0f 57 c0	 xorps	 xmm0, xmm0
  004c1	f3 0f 2a c0	 cvtsi2ss xmm0, eax
  004c5	f3 0f 11 04 24	 movss	 DWORD PTR [esp], xmm0
  004ca	ff d6		 call	 esi
  004cc	50		 push	 eax
  004cd	ff 15 00 00 00
	00		 call	 DWORD PTR __imp_?PrintText@ioFontManager@@QAAXMMMPBDZZ
  004d3	83 c4 14	 add	 esp, 20			; 00000014H
$LN6@OnRender@2:

; 306  : 					}
; 307  : 				}
; 308  : 			}
; 309  : 
; 310  : 			g_FontMgr.SetTextStyle( TS_NORMAL );

  004d6	6a 00		 push	 0
  004d8	ff d6		 call	 esi
  004da	8b c8		 mov	 ecx, eax
  004dc	ff 15 00 00 00
	00		 call	 DWORD PTR __imp_?SetTextStyle@ioFontManager@@QAEXW4TextStyle@@@Z

; 311  : 			g_FontMgr.SetAlignType( TAT_LEFT );

  004e2	6a 00		 push	 0
  004e4	ff d6		 call	 esi
  004e6	8b c8		 mov	 ecx, eax
  004e8	ff 15 00 00 00
	00		 call	 DWORD PTR __imp_?SetAlignType@ioFontManager@@QAEXW4TextAlignType@@@Z

; 312  : 
; 313  : 			if( g_TournamentMgr.IsRegularDisableTournament() )

  004ee	e8 00 00 00 00	 call	 ?GetSingleton@ioTournamentManager@@SAAAV1@XZ ; ioTournamentManager::GetSingleton
  004f3	8b c8		 mov	 ecx, eax
  004f5	e8 00 00 00 00	 call	 ?IsRegularDisableTournament@ioTournamentManager@@QAE_NXZ ; ioTournamentManager::IsRegularDisableTournament
  004fa	84 c0		 test	 al, al
  004fc	74 20		 je	 SHORT $LN4@OnRender@2

; 314  : 			{
; 315  : 				g_FontMgr.SetBkColor( TCT_DEFAULT_LIGHTGRAY );

  004fe	68 a7 a7 a7 ff	 push	 -5789785		; ffa7a7a7H
  00503	ff d6		 call	 esi
  00505	8b c8		 mov	 ecx, eax
  00507	ff 15 00 00 00
	00		 call	 DWORD PTR __imp_?SetBkColor@ioFontManager@@QAEXK@Z

; 316  : 				g_FontMgr.SetTextColor( TCT_DEFAULT_LIGHTGRAY );

  0050d	68 a7 a7 a7 ff	 push	 -5789785		; ffa7a7a7H
  00512	ff d6		 call	 esi
  00514	8b c8		 mov	 ecx, eax
  00516	ff 15 00 00 00
	00		 call	 DWORD PTR __imp_?SetTextColor@ioFontManager@@QAEXK@Z

; 317  : 			}
; 318  : 			else

  0051c	eb 29		 jmp	 SHORT $LN3@OnRender@2
$LN4@OnRender@2:

; 319  : 			{
; 320  : 				g_FontMgr.SetBkColor( TCT_DEFAULT_DARKGRAY );

  0051e	be 3a 3a 3a ff	 mov	 esi, -12961222		; ff3a3a3aH
  00523	56		 push	 esi
  00524	ff 15 00 00 00
	00		 call	 DWORD PTR __imp_?GetSingleton@ioFontManager@@SAAAV1@XZ
  0052a	8b c8		 mov	 ecx, eax
  0052c	ff 15 00 00 00
	00		 call	 DWORD PTR __imp_?SetBkColor@ioFontManager@@QAEXK@Z

; 321  : 				g_FontMgr.SetTextColor( TCT_DEFAULT_DARKGRAY );

  00532	56		 push	 esi
  00533	ff 15 00 00 00
	00		 call	 DWORD PTR __imp_?GetSingleton@ioFontManager@@SAAAV1@XZ
  00539	8b c8		 mov	 ecx, eax
  0053b	ff 15 00 00 00
	00		 call	 DWORD PTR __imp_?SetTextColor@ioFontManager@@QAEXK@Z
  00541	8b 35 00 00 00
	00		 mov	 esi, DWORD PTR __imp_?GetSingleton@ioFontManager@@SAAAV1@XZ
$LN3@OnRender@2:

; 322  : 			}
; 323  : 
; 324  : 			g_FontMgr.PrintText( iXPos + 59, iYPos + 18, FONT_SIZE_17, STR(24) );

  00547	8b 45 fc	 mov	 eax, DWORD PTR _iXPos$[ebp]
  0054a	6a 00		 push	 0
  0054c	6a 18		 push	 24			; 00000018H
  0054e	83 c0 3b	 add	 eax, 59			; 0000003bH
  00551	0f 57 c0	 xorps	 xmm0, xmm0
  00554	68 00 00 00 00	 push	 OFFSET ??_C@_00CNPNBAHC@?$AA@
  00559	f3 0f 2a c0	 cvtsi2ss xmm0, eax
  0055d	53		 push	 ebx
  0055e	f3 0f 11 45 fc	 movss	 DWORD PTR tv1346[ebp], xmm0
  00563	ff 15 00 00 00
	00		 call	 DWORD PTR __imp_?GetSingleton@ioStringManager@@SAAAV1@XZ
  00569	8b c8		 mov	 ecx, eax
  0056b	ff 15 00 00 00
	00		 call	 DWORD PTR __imp_?GetString@ioStringManager@@QAEPADPBD0HW4FileNamePrefix@1@@Z
  00571	f3 0f 10 05 00
	00 00 00	 movss	 xmm0, DWORD PTR __real@3f59999a
  00579	50		 push	 eax
  0057a	83 ec 0c	 sub	 esp, 12			; 0000000cH
  0057d	f3 0f 11 44 24
	08		 movss	 DWORD PTR [esp+8], xmm0
  00583	8d 47 12	 lea	 eax, DWORD PTR [edi+18]
  00586	0f 57 c0	 xorps	 xmm0, xmm0
  00589	f3 0f 2a c0	 cvtsi2ss xmm0, eax
  0058d	f3 0f 11 44 24
	04		 movss	 DWORD PTR [esp+4], xmm0
  00593	f3 0f 10 45 fc	 movss	 xmm0, DWORD PTR tv1346[ebp]
  00598	f3 0f 11 04 24	 movss	 DWORD PTR [esp], xmm0
  0059d	ff d6		 call	 esi
  0059f	50		 push	 eax
  005a0	ff 15 00 00 00
	00		 call	 DWORD PTR __imp_?PrintText@ioFontManager@@QAAXMMMPBDZZ
  005a6	83 c4 14	 add	 esp, 20			; 00000014H

; 325  : 
; 326  : 			if( g_TournamentMgr.IsRegularDisableTournament() )

  005a9	e8 00 00 00 00	 call	 ?GetSingleton@ioTournamentManager@@SAAAV1@XZ ; ioTournamentManager::GetSingleton
  005ae	8b c8		 mov	 ecx, eax
  005b0	e8 00 00 00 00	 call	 ?IsRegularDisableTournament@ioTournamentManager@@QAE_NXZ ; ioTournamentManager::IsRegularDisableTournament
  005b5	84 c0		 test	 al, al
  005b7	74 20		 je	 SHORT $LN2@OnRender@2

; 327  : 			{
; 328  : 				g_FontMgr.SetBkColor( TCT_DEFAULT_LIGHTGRAY );

  005b9	68 a7 a7 a7 ff	 push	 -5789785		; ffa7a7a7H
  005be	ff d6		 call	 esi
  005c0	8b c8		 mov	 ecx, eax
  005c2	ff 15 00 00 00
	00		 call	 DWORD PTR __imp_?SetBkColor@ioFontManager@@QAEXK@Z

; 329  : 				g_FontMgr.SetTextColor( TCT_DEFAULT_LIGHTGRAY );

  005c8	68 a7 a7 a7 ff	 push	 -5789785		; ffa7a7a7H
  005cd	ff d6		 call	 esi
  005cf	8b c8		 mov	 ecx, eax
  005d1	ff 15 00 00 00
	00		 call	 DWORD PTR __imp_?SetTextColor@ioFontManager@@QAEXK@Z

; 330  : 			}
; 331  : 			else

  005d7	eb 29		 jmp	 SHORT $LN1@OnRender@2
$LN2@OnRender@2:

; 332  : 			{
; 333  : 				g_FontMgr.SetBkColor( TCT_DEFAULT_GRAY );

  005d9	be 6e 6e 6e ff	 mov	 esi, -9539986		; ff6e6e6eH
  005de	56		 push	 esi
  005df	ff 15 00 00 00
	00		 call	 DWORD PTR __imp_?GetSingleton@ioFontManager@@SAAAV1@XZ
  005e5	8b c8		 mov	 ecx, eax
  005e7	ff 15 00 00 00
	00		 call	 DWORD PTR __imp_?SetBkColor@ioFontManager@@QAEXK@Z

; 334  : 				g_FontMgr.SetTextColor( TCT_DEFAULT_GRAY );

  005ed	56		 push	 esi
  005ee	ff 15 00 00 00
	00		 call	 DWORD PTR __imp_?GetSingleton@ioFontManager@@SAAAV1@XZ
  005f4	8b c8		 mov	 ecx, eax
  005f6	ff 15 00 00 00
	00		 call	 DWORD PTR __imp_?SetTextColor@ioFontManager@@QAEXK@Z
  005fc	8b 35 00 00 00
	00		 mov	 esi, DWORD PTR __imp_?GetSingleton@ioFontManager@@SAAAV1@XZ
$LN1@OnRender@2:

; 335  : 			}
; 336  : 			g_FontMgr.PrintText( iXPos + 59, iYPos + 39, FONT_SIZE_11, STR(25) );

  00602	6a 00		 push	 0
  00604	6a 19		 push	 25			; 00000019H

; 337  : 		}
; 338  : 		break;

  00606	e9 dd 06 00 00	 jmp	 $LN79@OnRender@2
$LN17@OnRender@2:

; 252  : 	case LobbyWnd::ID_TRADE_BTN:
; 253  : 		{
; 254  : 			g_FontMgr.SetTextStyle( TS_NORMAL );

  0060b	8b 35 00 00 00
	00		 mov	 esi, DWORD PTR __imp_?GetSingleton@ioFontManager@@SAAAV1@XZ
  00611	53		 push	 ebx
  00612	ff d6		 call	 esi
  00614	8b c8		 mov	 ecx, eax
  00616	ff 15 00 00 00
	00		 call	 DWORD PTR __imp_?SetTextStyle@ioFontManager@@QAEXW4TextStyle@@@Z

; 255  : 			g_FontMgr.SetAlignType( TAT_LEFT );

  0061c	53		 push	 ebx
  0061d	ff d6		 call	 esi
  0061f	8b c8		 mov	 ecx, eax
  00621	ff 15 00 00 00
	00		 call	 DWORD PTR __imp_?SetAlignType@ioFontManager@@QAEXW4TextAlignType@@@Z

; 256  : 			g_FontMgr.SetBkColor( TCT_DEFAULT_DARKGRAY );

  00627	be 3a 3a 3a ff	 mov	 esi, -12961222		; ff3a3a3aH
  0062c	56		 push	 esi
  0062d	ff 15 00 00 00
	00		 call	 DWORD PTR __imp_?GetSingleton@ioFontManager@@SAAAV1@XZ
  00633	8b c8		 mov	 ecx, eax
  00635	ff 15 00 00 00
	00		 call	 DWORD PTR __imp_?SetBkColor@ioFontManager@@QAEXK@Z

; 257  : 			g_FontMgr.SetTextColor( TCT_DEFAULT_DARKGRAY );

  0063b	56		 push	 esi
  0063c	ff 15 00 00 00
	00		 call	 DWORD PTR __imp_?GetSingleton@ioFontManager@@SAAAV1@XZ
  00642	8b c8		 mov	 ecx, eax
  00644	ff 15 00 00 00
	00		 call	 DWORD PTR __imp_?SetTextColor@ioFontManager@@QAEXK@Z

; 258  : 			g_FontMgr.PrintText( iXPos + 59, iYPos + 18, FONT_SIZE_17, STR(13) );

  0064a	8b 45 fc	 mov	 eax, DWORD PTR _iXPos$[ebp]
  0064d	53		 push	 ebx
  0064e	6a 0d		 push	 13			; 0000000dH
  00650	83 c0 3b	 add	 eax, 59			; 0000003bH
  00653	0f 57 c0	 xorps	 xmm0, xmm0
  00656	68 00 00 00 00	 push	 OFFSET ??_C@_00CNPNBAHC@?$AA@
  0065b	bb 00 00 00 00	 mov	 ebx, OFFSET ??_C@_0BD@LHBDDMNH@LobbyBtn?3?3OnRender?$AA@
  00660	f3 0f 2a c0	 cvtsi2ss xmm0, eax
  00664	53		 push	 ebx
  00665	f3 0f 11 45 fc	 movss	 DWORD PTR tv1346[ebp], xmm0
  0066a	ff 15 00 00 00
	00		 call	 DWORD PTR __imp_?GetSingleton@ioStringManager@@SAAAV1@XZ
  00670	8b c8		 mov	 ecx, eax
  00672	ff 15 00 00 00
	00		 call	 DWORD PTR __imp_?GetString@ioStringManager@@QAEPADPBD0HW4FileNamePrefix@1@@Z
  00678	f3 0f 10 05 00
	00 00 00	 movss	 xmm0, DWORD PTR __real@3f59999a
  00680	50		 push	 eax
  00681	83 ec 0c	 sub	 esp, 12			; 0000000cH
  00684	f3 0f 11 44 24
	08		 movss	 DWORD PTR [esp+8], xmm0
  0068a	8d 47 12	 lea	 eax, DWORD PTR [edi+18]
  0068d	0f 57 c0	 xorps	 xmm0, xmm0
  00690	f3 0f 2a c0	 cvtsi2ss xmm0, eax
  00694	f3 0f 11 44 24
	04		 movss	 DWORD PTR [esp+4], xmm0
  0069a	f3 0f 10 45 fc	 movss	 xmm0, DWORD PTR tv1346[ebp]
  0069f	f3 0f 11 04 24	 movss	 DWORD PTR [esp], xmm0
  006a4	ff 15 00 00 00
	00		 call	 DWORD PTR __imp_?GetSingleton@ioFontManager@@SAAAV1@XZ
  006aa	50		 push	 eax
  006ab	ff 15 00 00 00
	00		 call	 DWORD PTR __imp_?PrintText@ioFontManager@@QAAXMMMPBDZZ
  006b1	83 c4 14	 add	 esp, 20			; 00000014H

; 259  : 
; 260  : 			g_FontMgr.SetBkColor( TCT_DEFAULT_GRAY );

