; Listing generated by Microsoft (R) Optimizing Compiler Version 16.00.30319.01 

	TITLE	D:\Lost Saga For Developer\Youtube\Tutorial\Source\src\LSClient\GUI\LobbyMainWnd.cpp
	.686P
	.XMM
	include listing.inc
	.model	flat

INCLUDELIB MSVCRT
INCLUDELIB OLDNAMES

PUBLIC	?return1@@YAIXZ					; return1
; Function compile flags: /Ogsp
; File d:\lost saga for developer\youtube\tutorial\source\src\lsclient\stdafx.h
;	COMDAT ?return1@@YAIXZ
_TEXT	SEGMENT
?return1@@YAIXZ PROC					; return1, COMDAT

; 17   : 	__forceinline unsigned int return1() { __asm mov eax, 1 };

  00000	b8 01 00 00 00	 mov	 eax, 1
  00005	c3		 ret	 0
?return1@@YAIXZ ENDP					; return1
_TEXT	ENDS
PUBLIC	?return5@@YAIXZ					; return5
; Function compile flags: /Ogsp
;	COMDAT ?return5@@YAIXZ
_TEXT	SEGMENT
?return5@@YAIXZ PROC					; return5, COMDAT

; 18   : 	__forceinline unsigned int return5() { __asm mov eax, 5 };

  00000	b8 05 00 00 00	 mov	 eax, 5
  00005	c3		 ret	 0
?return5@@YAIXZ ENDP					; return5
_TEXT	ENDS
PUBLIC	?return10@@YAIXZ				; return10
; Function compile flags: /Ogsp
;	COMDAT ?return10@@YAIXZ
_TEXT	SEGMENT
?return10@@YAIXZ PROC					; return10, COMDAT

; 21   : 	__forceinline unsigned int return10() { __asm mov eax, 10 };

  00000	b8 0a 00 00 00	 mov	 eax, 10			; 0000000aH
  00005	c3		 ret	 0
?return10@@YAIXZ ENDP					; return10
_TEXT	ENDS
PUBLIC	?return100@@YAIXZ				; return100
; Function compile flags: /Ogsp
;	COMDAT ?return100@@YAIXZ
_TEXT	SEGMENT
?return100@@YAIXZ PROC					; return100, COMDAT

; 25   : 	__forceinline unsigned int return100() { __asm mov eax, 100 };

  00000	b8 64 00 00 00	 mov	 eax, 100		; 00000064H
  00005	c3		 ret	 0
?return100@@YAIXZ ENDP					; return100
_TEXT	ENDS
PUBLIC	??_7LobbyBtn@@6B@				; LobbyBtn::`vftable'
PUBLIC	??0LobbyBtn@@QAE@XZ				; LobbyBtn::LobbyBtn
PUBLIC	??_R4LobbyBtn@@6B@				; LobbyBtn::`RTTI Complete Object Locator'
PUBLIC	??_R0?AVLobbyBtn@@@8				; LobbyBtn `RTTI Type Descriptor'
PUBLIC	??_R3LobbyBtn@@8				; LobbyBtn::`RTTI Class Hierarchy Descriptor'
PUBLIC	??_R2LobbyBtn@@8				; LobbyBtn::`RTTI Base Class Array'
PUBLIC	??_R1A@?0A@EA@LobbyBtn@@8			; LobbyBtn::`RTTI Base Class Descriptor at (0,-1,0,64)'
PUBLIC	??_R1A@?0A@EA@ioRadioButton@@8			; ioRadioButton::`RTTI Base Class Descriptor at (0,-1,0,64)'
PUBLIC	??_R0?AVioRadioButton@@@8			; ioRadioButton `RTTI Type Descriptor'
PUBLIC	??_R3ioRadioButton@@8				; ioRadioButton::`RTTI Class Hierarchy Descriptor'
PUBLIC	??_R2ioRadioButton@@8				; ioRadioButton::`RTTI Base Class Array'
PUBLIC	??_R1A@?0A@EA@ioButton@@8			; ioButton::`RTTI Base Class Descriptor at (0,-1,0,64)'
PUBLIC	??_R0?AVioButton@@@8				; ioButton `RTTI Type Descriptor'
PUBLIC	??_R3ioButton@@8				; ioButton::`RTTI Class Hierarchy Descriptor'
PUBLIC	??_R2ioButton@@8				; ioButton::`RTTI Base Class Array'
PUBLIC	??_R1A@?0A@EA@ioWnd@@8				; ioWnd::`RTTI Base Class Descriptor at (0,-1,0,64)'
PUBLIC	??_R0?AVioWnd@@@8				; ioWnd `RTTI Type Descriptor'
PUBLIC	??_R3ioWnd@@8					; ioWnd::`RTTI Class Hierarchy Descriptor'
PUBLIC	??_R2ioWnd@@8					; ioWnd::`RTTI Base Class Array'
PUBLIC	?AddRenderFrame@LobbyBtn@@MAEXABVioHashString@@PAVioUIRenderFrame@@@Z ; LobbyBtn::AddRenderFrame
PUBLIC	?AddRenderImage@LobbyBtn@@MAEXABVioHashString@@PAVioUIRenderImage@@@Z ; LobbyBtn::AddRenderImage
PUBLIC	?OnRender@LobbyBtn@@MAEXXZ			; LobbyBtn::OnRender
PUBLIC	?iwm_show@LobbyBtn@@UAEXXZ			; LobbyBtn::iwm_show
PUBLIC	?iwm_hide@LobbyBtn@@UAEXXZ			; LobbyBtn::iwm_hide
EXTRN	__imp_??0ioRadioButton@@QAE@XZ:PROC
EXTRN	??_7type_info@@6B@:QWORD			; type_info::`vftable'
EXTRN	?AddTooltipHelp@ioWnd@@UAEXABVioHashString@@00@Z:PROC ; ioWnd::AddTooltipHelp
EXTRN	?ParseExtraInfo@ioButton@@UAEXAAVioXMLElement@@@Z:PROC ; ioButton::ParseExtraInfo
EXTRN	?AddNamedRenderImage@ioWnd@@UAEXABVioHashString@@PAVioUIRenderImage@@@Z:PROC ; ioWnd::AddNamedRenderImage
EXTRN	?RemoveNamedRenderImage@ioWnd@@UAEXABVioHashString@@@Z:PROC ; ioWnd::RemoveNamedRenderImage
EXTRN	?GetNamedRenderImage@ioWnd@@UBEPAVioUIRenderImage@@ABVioHashString@@@Z:PROC ; ioWnd::GetNamedRenderImage
EXTRN	?SetWindowAlpha@ioButton@@UAEXH@Z:PROC		; ioButton::SetWindowAlpha
EXTRN	?SetActive@ioWnd@@UAEXXZ:PROC			; ioWnd::SetActive
EXTRN	?SetInActive@ioWnd@@UAEXXZ:PROC			; ioWnd::SetInActive
EXTRN	?ClearElementImageList@ioWnd@@UAEXXZ:PROC	; ioWnd::ClearElementImageList
EXTRN	?SetSize@ioWnd@@UAEXHH@Z:PROC			; ioWnd::SetSize
EXTRN	?SetPositionToDefault@ioWnd@@UAEXHH_N0@Z:PROC	; ioWnd::SetPositionToDefault
EXTRN	?IsNeedProcess@ioWnd@@UBE_NXZ:PROC		; ioWnd::IsNeedProcess
EXTRN	?IsCanMouseReaction@ioWnd@@UBE_NXZ:PROC		; ioWnd::IsCanMouseReaction
EXTRN	?AddChild@ioWnd@@UAEXPAV1@@Z:PROC		; ioWnd::AddChild
EXTRN	?DeleteChild@ioWnd@@UAEXK@Z:PROC		; ioWnd::DeleteChild
EXTRN	?DeleteAllChild@ioWnd@@UAEXXZ:PROC		; ioWnd::DeleteAllChild
EXTRN	?OnRenderShowAndHide@ioWnd@@MAE_NXZ:PROC	; ioWnd::OnRenderShowAndHide
EXTRN	?OnRenderShowAndHideByDefault@ioWnd@@MAE_NK@Z:PROC ; ioWnd::OnRenderShowAndHideByDefault
EXTRN	?OnRenderShowAndHideByTop@ioWnd@@MAE_NK@Z:PROC	; ioWnd::OnRenderShowAndHideByTop
EXTRN	?OnRenderShowAndHideByDown@ioWnd@@MAE_NK@Z:PROC	; ioWnd::OnRenderShowAndHideByDown
EXTRN	?OnRenderAfterChild@ioWnd@@MAEXXZ:PROC		; ioWnd::OnRenderAfterChild
EXTRN	?OnProcess@ioWnd@@MAEXM@Z:PROC			; ioWnd::OnProcess
EXTRN	?OnMouseProcess@ioWnd@@MAEXABVioMouse@@@Z:PROC	; ioWnd::OnMouseProcess
EXTRN	?CheckFrameReSize@ioButton@@MAEXHHHH@Z:PROC	; ioButton::CheckFrameReSize
EXTRN	?RenderImageList@ioWnd@@MAEXHHW4UIRenderType@@@Z:PROC ; ioWnd::RenderImageList
EXTRN	?iwm_create@ioWnd@@UAEXXZ:PROC			; ioWnd::iwm_create
EXTRN	?iwm_destroy@ioWnd@@UAEXXZ:PROC			; ioWnd::iwm_destroy
EXTRN	?iwm_lbuttondown@ioButton@@UAEXABVioMouse@@@Z:PROC ; ioButton::iwm_lbuttondown
EXTRN	?iwm_lbuttonup@ioRadioButton@@UAEXABVioMouse@@@Z:PROC ; ioRadioButton::iwm_lbuttonup
EXTRN	?iwm_lbuttonDBLCLK@ioButton@@UAEXABVioMouse@@@Z:PROC ; ioButton::iwm_lbuttonDBLCLK
EXTRN	?iwm_rbuttondown@ioButton@@UAEXABVioMouse@@@Z:PROC ; ioButton::iwm_rbuttondown
EXTRN	?iwm_rbuttonup@ioButton@@UAEXABVioMouse@@@Z:PROC ; ioButton::iwm_rbuttonup
EXTRN	?iwm_command@ioWnd@@UAEXPAV1@HK@Z:PROC		; ioWnd::iwm_command
EXTRN	?iwm_mouseover@ioButton@@UAEXABVioMouse@@@Z:PROC ; ioButton::iwm_mouseover
EXTRN	?iwm_mousemove@ioWnd@@UAEXABVioMouse@@@Z:PROC	; ioWnd::iwm_mousemove
EXTRN	?iwm_mouseleave@ioRadioButton@@UAEXABVioMouse@@@Z:PROC ; ioRadioButton::iwm_mouseleave
EXTRN	?iwm_vscroll@ioWnd@@UAEXKH@Z:PROC		; ioWnd::iwm_vscroll
EXTRN	?iwm_wheel@ioWnd@@UAEXH@Z:PROC			; ioWnd::iwm_wheel
EXTRN	?iwm_esc@ioWnd@@UAE_NXZ:PROC			; ioWnd::iwm_esc
EXTRN	?iwm_spacebar@ioWnd@@UAE_NXZ:PROC		; ioWnd::iwm_spacebar
EXTRN	?iwm_gototop@ioWnd@@UAEXXZ:PROC			; ioWnd::iwm_gototop
EXTRN	?iwm_dragenter@ioWnd@@UAE?AW4IWDropEffect@@PAVioDragItem@@ABVioMouse@@@Z:PROC ; ioWnd::iwm_dragenter
EXTRN	?iwm_dragover@ioWnd@@UAE?AW4IWDropEffect@@PAVioDragItem@@ABVioMouse@@@Z:PROC ; ioWnd::iwm_dragover
EXTRN	?iwm_dragleave@ioWnd@@UAEXXZ:PROC		; ioWnd::iwm_dragleave
EXTRN	?iwm_dropitem@ioWnd@@UAE_NPAVioDragItem@@ABVioMouse@@PAV1@@Z:PROC ; ioWnd::iwm_dropitem
EXTRN	?iwm_dropdone@ioWnd@@UAEXPAVioDragItem@@PAV1@_N@Z:PROC ; ioWnd::iwm_dropdone
EXTRN	?IsEXType@ioWnd@@UBE_NXZ:PROC			; ioWnd::IsEXType
EXTRN	?GetWndType@ioRadioButton@@UBEKXZ:PROC		; ioRadioButton::GetWndType
EXTRN	?RenderWnd@ioWnd@@UAEXXZ:PROC			; ioWnd::RenderWnd
EXTRN	?SetIDEX@ioWnd@@UAEXAAK_N@Z:PROC		; ioWnd::SetIDEX
EXTRN	?ParseXML@ioWnd@@UAEXAAVioXMLElement@@@Z:PROC	; ioWnd::ParseXML
EXTRN	?GetHeaderFileName@ioRadioButton@@UAEPBDXZ:PROC	; ioRadioButton::GetHeaderFileName
EXTRN	?GetTemplateName@ioRadioButton@@UAEPBDXZ:PROC	; ioRadioButton::GetTemplateName
EXTRN	?GetDefClassName@ioRadioButton@@UBEPBDXZ:PROC	; ioRadioButton::GetDefClassName
EXTRN	?_Clone@ioRadioButton@@UAEPAVioWnd@@XZ:PROC	; ioRadioButton::_Clone
EXTRN	?Copy@ioButton@@UAEXPAVioWnd@@@Z:PROC		; ioButton::Copy
EXTRN	?Save@ioWnd@@UAE_NAAVioXMLElement@@@Z:PROC	; ioWnd::Save
EXTRN	?SetSaveData@ioButton@@UAEXAAVioXMLElement@@@Z:PROC ; ioButton::SetSaveData
EXTRN	?SetPosX@ioWnd@@UAEXH@Z:PROC			; ioWnd::SetPosX
EXTRN	?SetPosY@ioWnd@@UAEXH@Z:PROC			; ioWnd::SetPosY
EXTRN	?SetWidth@ioWnd@@UAEXH@Z:PROC			; ioWnd::SetWidth
EXTRN	?SetHeight@ioWnd@@UAEXH@Z:PROC			; ioWnd::SetHeight
EXTRN	?GetNumFixedRenderFrame@ioButton@@UBEHXZ:PROC	; ioButton::GetNumFixedRenderFrame
EXTRN	?GetFixedRenderFrameType@ioButton@@UAEPBDH@Z:PROC ; ioButton::GetFixedRenderFrameType
EXTRN	?GetRenderFrame@ioButton@@UAEPAPAVioUIRenderElement@@PBD@Z:PROC ; ioButton::GetRenderFrame
EXTRN	?GetNumFixedRenderImage@ioButton@@UBEHXZ:PROC	; ioButton::GetNumFixedRenderImage
EXTRN	?GetFixedRenderImageType@ioButton@@UAEPBDH@Z:PROC ; ioButton::GetFixedRenderImageType
EXTRN	?GetRenderImage@ioButton@@UAEPAPAVioUIRenderElement@@PBD@Z:PROC ; ioButton::GetRenderImage
EXTRN	?AddEffect@ioWnd@@UAEXABVioHashString@@PAVioUI3DEffectRender@@@Z:PROC ; ioWnd::AddEffect
EXTRN	?GetEffect@ioWnd@@UAEPAVioUI3DEffectRender@@VioHashString@@@Z:PROC ; ioWnd::GetEffect
EXTRN	??_ELobbyBtn@@UAEPAXI@Z:PROC			; LobbyBtn::`vector deleting destructor'
EXTRN	?OnDrawNormal@ioButton@@MAEXHH@Z:PROC		; ioButton::OnDrawNormal
EXTRN	?OnDrawOvered@ioButton@@MAEXHH@Z:PROC		; ioButton::OnDrawOvered
EXTRN	?OnDrawOveredAdd@ioButton@@MAEXHH@Z:PROC	; ioButton::OnDrawOveredAdd
EXTRN	?OnDrawPushed@ioRadioButton@@MAEXHH@Z:PROC	; ioRadioButton::OnDrawPushed
EXTRN	?OnDrawDisabled@ioButton@@MAEXHH@Z:PROC		; ioButton::OnDrawDisabled
EXTRN	?OnDrawExDisabledNormal@ioButton@@MAEXHH@Z:PROC	; ioButton::OnDrawExDisabledNormal
EXTRN	?OnDrawExDisabledOvered@ioButton@@MAEXHH@Z:PROC	; ioButton::OnDrawExDisabledOvered
EXTRN	?OnDrawExDisabledPushed@ioButton@@MAEXHH@Z:PROC	; ioButton::OnDrawExDisabledPushed
EXTRN	?OnDrawBack@ioButton@@MAEXHH@Z:PROC		; ioButton::OnDrawBack
EXTRN	?OnDrawNormalList@ioButton@@MAEXHH@Z:PROC	; ioButton::OnDrawNormalList
EXTRN	?OnDrawDisableList@ioButton@@MAEXHH@Z:PROC	; ioButton::OnDrawDisableList
;	COMDAT ??_R2ioWnd@@8
; File d:\lost saga for developer\youtube\tutorial\source\src\lsclient\gui\lobbymainwnd.cpp
rdata$r	SEGMENT
??_R2ioWnd@@8 DD FLAT:??_R1A@?0A@EA@ioWnd@@8		; ioWnd::`RTTI Base Class Array'
rdata$r	ENDS
;	COMDAT ??_R3ioWnd@@8
rdata$r	SEGMENT
??_R3ioWnd@@8 DD 00H					; ioWnd::`RTTI Class Hierarchy Descriptor'
	DD	00H
	DD	01H
	DD	FLAT:??_R2ioWnd@@8
rdata$r	ENDS
;	COMDAT ??_R0?AVioWnd@@@8
_DATA	SEGMENT
??_R0?AVioWnd@@@8 DD FLAT:??_7type_info@@6B@		; ioWnd `RTTI Type Descriptor'
	DD	00H
	DB	'.?AVioWnd@@', 00H
_DATA	ENDS
;	COMDAT ??_R1A@?0A@EA@ioWnd@@8
rdata$r	SEGMENT
??_R1A@?0A@EA@ioWnd@@8 DD FLAT:??_R0?AVioWnd@@@8	; ioWnd::`RTTI Base Class Descriptor at (0,-1,0,64)'
	DD	00H
	DD	00H
	DD	0ffffffffH
	DD	00H
	DD	040H
	DD	FLAT:??_R3ioWnd@@8
rdata$r	ENDS
;	COMDAT ??_R2ioButton@@8
rdata$r	SEGMENT
??_R2ioButton@@8 DD FLAT:??_R1A@?0A@EA@ioButton@@8	; ioButton::`RTTI Base Class Array'
	DD	FLAT:??_R1A@?0A@EA@ioWnd@@8
rdata$r	ENDS
;	COMDAT ??_R3ioButton@@8
rdata$r	SEGMENT
??_R3ioButton@@8 DD 00H					; ioButton::`RTTI Class Hierarchy Descriptor'
	DD	00H
	DD	02H
	DD	FLAT:??_R2ioButton@@8
rdata$r	ENDS
;	COMDAT ??_R0?AVioButton@@@8
_DATA	SEGMENT
??_R0?AVioButton@@@8 DD FLAT:??_7type_info@@6B@		; ioButton `RTTI Type Descriptor'
	DD	00H
	DB	'.?AVioButton@@', 00H
_DATA	ENDS
;	COMDAT ??_R1A@?0A@EA@ioButton@@8
rdata$r	SEGMENT
??_R1A@?0A@EA@ioButton@@8 DD FLAT:??_R0?AVioButton@@@8	; ioButton::`RTTI Base Class Descriptor at (0,-1,0,64)'
	DD	01H
	DD	00H
	DD	0ffffffffH
	DD	00H
	DD	040H
	DD	FLAT:??_R3ioButton@@8
rdata$r	ENDS
;	COMDAT ??_R2ioRadioButton@@8
rdata$r	SEGMENT
??_R2ioRadioButton@@8 DD FLAT:??_R1A@?0A@EA@ioRadioButton@@8 ; ioRadioButton::`RTTI Base Class Array'
	DD	FLAT:??_R1A@?0A@EA@ioButton@@8
	DD	FLAT:??_R1A@?0A@EA@ioWnd@@8
rdata$r	ENDS
;	COMDAT ??_R3ioRadioButton@@8
rdata$r	SEGMENT
??_R3ioRadioButton@@8 DD 00H				; ioRadioButton::`RTTI Class Hierarchy Descriptor'
	DD	00H
	DD	03H
	DD	FLAT:??_R2ioRadioButton@@8
rdata$r	ENDS
;	COMDAT ??_R0?AVioRadioButton@@@8
_DATA	SEGMENT
??_R0?AVioRadioButton@@@8 DD FLAT:??_7type_info@@6B@	; ioRadioButton `RTTI Type Descriptor'
	DD	00H
	DB	'.?AVioRadioButton@@', 00H
_DATA	ENDS
;	COMDAT ??_R1A@?0A@EA@ioRadioButton@@8
rdata$r	SEGMENT
??_R1A@?0A@EA@ioRadioButton@@8 DD FLAT:??_R0?AVioRadioButton@@@8 ; ioRadioButton::`RTTI Base Class Descriptor at (0,-1,0,64)'
	DD	02H
	DD	00H
	DD	0ffffffffH
	DD	00H
	DD	040H
	DD	FLAT:??_R3ioRadioButton@@8
rdata$r	ENDS
;	COMDAT ??_R1A@?0A@EA@LobbyBtn@@8
rdata$r	SEGMENT
??_R1A@?0A@EA@LobbyBtn@@8 DD FLAT:??_R0?AVLobbyBtn@@@8	; LobbyBtn::`RTTI Base Class Descriptor at (0,-1,0,64)'
	DD	03H
	DD	00H
	DD	0ffffffffH
	DD	00H
	DD	040H
	DD	FLAT:??_R3LobbyBtn@@8
rdata$r	ENDS
;	COMDAT ??_R2LobbyBtn@@8
rdata$r	SEGMENT
??_R2LobbyBtn@@8 DD FLAT:??_R1A@?0A@EA@LobbyBtn@@8	; LobbyBtn::`RTTI Base Class Array'
	DD	FLAT:??_R1A@?0A@EA@ioRadioButton@@8
	DD	FLAT:??_R1A@?0A@EA@ioButton@@8
	DD	FLAT:??_R1A@?0A@EA@ioWnd@@8
rdata$r	ENDS
;	COMDAT ??_R3LobbyBtn@@8
rdata$r	SEGMENT
??_R3LobbyBtn@@8 DD 00H					; LobbyBtn::`RTTI Class Hierarchy Descriptor'
	DD	00H
	DD	04H
	DD	FLAT:??_R2LobbyBtn@@8
rdata$r	ENDS
;	COMDAT ??_R0?AVLobbyBtn@@@8
_DATA	SEGMENT
??_R0?AVLobbyBtn@@@8 DD FLAT:??_7type_info@@6B@		; LobbyBtn `RTTI Type Descriptor'
	DD	00H
	DB	'.?AVLobbyBtn@@', 00H
_DATA	ENDS
;	COMDAT ??_R4LobbyBtn@@6B@
rdata$r	SEGMENT
??_R4LobbyBtn@@6B@ DD 00H				; LobbyBtn::`RTTI Complete Object Locator'
	DD	00H
	DD	00H
	DD	FLAT:??_R0?AVLobbyBtn@@@8
	DD	FLAT:??_R3LobbyBtn@@8
rdata$r	ENDS
;	COMDAT ??_7LobbyBtn@@6B@
CONST	SEGMENT
??_7LobbyBtn@@6B@ DD FLAT:??_R4LobbyBtn@@6B@		; LobbyBtn::`vftable'
	DD	FLAT:?AddRenderFrame@LobbyBtn@@MAEXABVioHashString@@PAVioUIRenderFrame@@@Z
	DD	FLAT:?AddRenderImage@LobbyBtn@@MAEXABVioHashString@@PAVioUIRenderImage@@@Z
	DD	FLAT:?AddTooltipHelp@ioWnd@@UAEXABVioHashString@@00@Z
	DD	FLAT:?ParseExtraInfo@ioButton@@UAEXAAVioXMLElement@@@Z
	DD	FLAT:?AddNamedRenderImage@ioWnd@@UAEXABVioHashString@@PAVioUIRenderImage@@@Z
	DD	FLAT:?RemoveNamedRenderImage@ioWnd@@UAEXABVioHashString@@@Z
	DD	FLAT:?GetNamedRenderImage@ioWnd@@UBEPAVioUIRenderImage@@ABVioHashString@@@Z
	DD	FLAT:?SetWindowAlpha@ioButton@@UAEXH@Z
	DD	FLAT:?SetActive@ioWnd@@UAEXXZ
	DD	FLAT:?SetInActive@ioWnd@@UAEXXZ
	DD	FLAT:?ClearElementImageList@ioWnd@@UAEXXZ
	DD	FLAT:?SetSize@ioWnd@@UAEXHH@Z
	DD	FLAT:?SetPositionToDefault@ioWnd@@UAEXHH_N0@Z
	DD	FLAT:?IsNeedProcess@ioWnd@@UBE_NXZ
	DD	FLAT:?IsCanMouseReaction@ioWnd@@UBE_NXZ
	DD	FLAT:?AddChild@ioWnd@@UAEXPAV1@@Z
	DD	FLAT:?DeleteChild@ioWnd@@UAEXK@Z
	DD	FLAT:?DeleteAllChild@ioWnd@@UAEXXZ
	DD	FLAT:?OnRenderShowAndHide@ioWnd@@MAE_NXZ
	DD	FLAT:?OnRenderShowAndHideByDefault@ioWnd@@MAE_NK@Z
	DD	FLAT:?OnRenderShowAndHideByTop@ioWnd@@MAE_NK@Z
	DD	FLAT:?OnRenderShowAndHideByDown@ioWnd@@MAE_NK@Z
	DD	FLAT:?OnRender@LobbyBtn@@MAEXXZ
	DD	FLAT:?OnRenderAfterChild@ioWnd@@MAEXXZ
	DD	FLAT:?OnProcess@ioWnd@@MAEXM@Z
	DD	FLAT:?OnMouseProcess@ioWnd@@MAEXABVioMouse@@@Z
	DD	FLAT:?CheckFrameReSize@ioButton@@MAEXHHHH@Z
	DD	FLAT:?RenderImageList@ioWnd@@MAEXHHW4UIRenderType@@@Z
	DD	FLAT:?iwm_create@ioWnd@@UAEXXZ
	DD	FLAT:?iwm_destroy@ioWnd@@UAEXXZ
	DD	FLAT:?iwm_lbuttondown@ioButton@@UAEXABVioMouse@@@Z
	DD	FLAT:?iwm_lbuttonup@ioRadioButton@@UAEXABVioMouse@@@Z
	DD	FLAT:?iwm_lbuttonDBLCLK@ioButton@@UAEXABVioMouse@@@Z
	DD	FLAT:?iwm_rbuttondown@ioButton@@UAEXABVioMouse@@@Z
	DD	FLAT:?iwm_rbuttonup@ioButton@@UAEXABVioMouse@@@Z
	DD	FLAT:?iwm_command@ioWnd@@UAEXPAV1@HK@Z
	DD	FLAT:?iwm_mouseover@ioButton@@UAEXABVioMouse@@@Z
	DD	FLAT:?iwm_mousemove@ioWnd@@UAEXABVioMouse@@@Z
	DD	FLAT:?iwm_mouseleave@ioRadioButton@@UAEXABVioMouse@@@Z
	DD	FLAT:?iwm_vscroll@ioWnd@@UAEXKH@Z
	DD	FLAT:?iwm_wheel@ioWnd@@UAEXH@Z
	DD	FLAT:?iwm_show@LobbyBtn@@UAEXXZ
	DD	FLAT:?iwm_hide@LobbyBtn@@UAEXXZ
	DD	FLAT:?iwm_esc@ioWnd@@UAE_NXZ
	DD	FLAT:?iwm_spacebar@ioWnd@@UAE_NXZ
	DD	FLAT:?iwm_gototop@ioWnd@@UAEXXZ
	DD	FLAT:?iwm_dragenter@ioWnd@@UAE?AW4IWDropEffect@@PAVioDragItem@@ABVioMouse@@@Z
	DD	FLAT:?iwm_dragover@ioWnd@@UAE?AW4IWDropEffect@@PAVioDragItem@@ABVioMouse@@@Z
	DD	FLAT:?iwm_dragleave@ioWnd@@UAEXXZ
	DD	FLAT:?iwm_dropitem@ioWnd@@UAE_NPAVioDragItem@@ABVioMouse@@PAV1@@Z
	DD	FLAT:?iwm_dropdone@ioWnd@@UAEXPAVioDragItem@@PAV1@_N@Z
	DD	FLAT:?IsEXType@ioWnd@@UBE_NXZ
	DD	FLAT:?GetWndType@ioRadioButton@@UBEKXZ
	DD	FLAT:?RenderWnd@ioWnd@@UAEXXZ
	DD	FLAT:?SetIDEX@ioWnd@@UAEXAAK_N@Z
	DD	FLAT:?ParseXML@ioWnd@@UAEXAAVioXMLElement@@@Z
	DD	FLAT:?GetHeaderFileName@ioRadioButton@@UAEPBDXZ
	DD	FLAT:?GetTemplateName@ioRadioButton@@UAEPBDXZ
	DD	FLAT:?GetDefClassName@ioRadioButton@@UBEPBDXZ
	DD	FLAT:?_Clone@ioRadioButton@@UAEPAVioWnd@@XZ
	DD	FLAT:?Copy@ioButton@@UAEXPAVioWnd@@@Z
	DD	FLAT:?Save@ioWnd@@UAE_NAAVioXMLElement@@@Z
	DD	FLAT:?SetSaveData@ioButton@@UAEXAAVioXMLElement@@@Z
	DD	FLAT:?SetPosX@ioWnd@@UAEXH@Z
	DD	FLAT:?SetPosY@ioWnd@@UAEXH@Z
	DD	FLAT:?SetWidth@ioWnd@@UAEXH@Z
	DD	FLAT:?SetHeight@ioWnd@@UAEXH@Z
	DD	FLAT:?GetNumFixedRenderFrame@ioButton@@UBEHXZ
	DD	FLAT:?GetFixedRenderFrameType@ioButton@@UAEPBDH@Z
	DD	FLAT:?GetRenderFrame@ioButton@@UAEPAPAVioUIRenderElement@@PBD@Z
	DD	FLAT:?GetNumFixedRenderImage@ioButton@@UBEHXZ
	DD	FLAT:?GetFixedRenderImageType@ioButton@@UAEPBDH@Z
	DD	FLAT:?GetRenderImage@ioButton@@UAEPAPAVioUIRenderElement@@PBD@Z
	DD	FLAT:?AddEffect@ioWnd@@UAEXABVioHashString@@PAVioUI3DEffectRender@@@Z
	DD	FLAT:?GetEffect@ioWnd@@UAEPAVioUI3DEffectRender@@VioHashString@@@Z
	DD	FLAT:??_ELobbyBtn@@UAEPAXI@Z
	DD	FLAT:?OnDrawNormal@ioButton@@MAEXHH@Z
	DD	FLAT:?OnDrawOvered@ioButton@@MAEXHH@Z
	DD	FLAT:?OnDrawOveredAdd@ioButton@@MAEXHH@Z
	DD	FLAT:?OnDrawPushed@ioRadioButton@@MAEXHH@Z
	DD	FLAT:?OnDrawDisabled@ioButton@@MAEXHH@Z
	DD	FLAT:?OnDrawExDisabledNormal@ioButton@@MAEXHH@Z
	DD	FLAT:?OnDrawExDisabledOvered@ioButton@@MAEXHH@Z
	DD	FLAT:?OnDrawExDisabledPushed@ioButton@@MAEXHH@Z
	DD	FLAT:?OnDrawBack@ioButton@@MAEXHH@Z
	DD	FLAT:?OnDrawNormalList@ioButton@@MAEXHH@Z
	DD	FLAT:?OnDrawDisableList@ioButton@@MAEXHH@Z
; Function compile flags: /Ogsp
CONST	ENDS
;	COMDAT ??0LobbyBtn@@QAE@XZ
_TEXT	SEGMENT
??0LobbyBtn@@QAE@XZ PROC				; LobbyBtn::LobbyBtn, COMDAT
; _this$ = ecx

; 32   : {

  00000	56		 push	 esi
  00001	8b f1		 mov	 esi, ecx
  00003	ff 15 00 00 00
	00		 call	 DWORD PTR __imp_??0ioRadioButton@@QAE@XZ

; 33   : 	m_pIconBack = NULL;

  00009	33 c0		 xor	 eax, eax
  0000b	89 86 fc 01 00
	00		 mov	 DWORD PTR [esi+508], eax

; 34   : 	m_pIcon = NULL;

  00011	89 86 00 02 00
	00		 mov	 DWORD PTR [esi+512], eax

; 35   : 	m_pStateGreenFrm = NULL;

  00017	89 86 04 02 00
	00		 mov	 DWORD PTR [esi+516], eax

; 36   : 	m_pStateRedFrm = NULL;

  0001d	89 86 08 02 00
	00		 mov	 DWORD PTR [esi+520], eax

; 37   : 	m_pStateOrangeFrm = NULL;

  00023	89 86 0c 02 00
	00		 mov	 DWORD PTR [esi+524], eax

; 38   : 	m_pStatePinkFrm = NULL;

  00029	89 86 10 02 00
	00		 mov	 DWORD PTR [esi+528], eax
  0002f	c7 06 00 00 00
	00		 mov	 DWORD PTR [esi], OFFSET ??_7LobbyBtn@@6B@

; 39   : }

  00035	8b c6		 mov	 eax, esi
  00037	5e		 pop	 esi
  00038	c3		 ret	 0
??0LobbyBtn@@QAE@XZ ENDP				; LobbyBtn::LobbyBtn
_TEXT	ENDS
PUBLIC	??1LobbyBtn@@UAE@XZ				; LobbyBtn::~LobbyBtn
EXTRN	__imp_??1ioRadioButton@@UAE@XZ:PROC
EXTRN	___CxxFrameHandler3:PROC
EXTRN	@__security_check_cookie@4:PROC
EXTRN	__EH_epilog3:PROC
EXTRN	__EH_prolog3:PROC
;	COMDAT xdata$x
xdata$x	SEGMENT
__unwindtable$??1LobbyBtn@@UAE@XZ DD 0ffffffffH
	DD	FLAT:__unwindfunclet$??1LobbyBtn@@UAE@XZ$0
__ehfuncinfo$??1LobbyBtn@@UAE@XZ DD 019930522H
	DD	01H
	DD	FLAT:__unwindtable$??1LobbyBtn@@UAE@XZ
	DD	2 DUP(00H)
	DD	2 DUP(00H)
	DD	00H
	DD	01H
; Function compile flags: /Ogsp
xdata$x	ENDS
;	COMDAT ??1LobbyBtn@@UAE@XZ
_TEXT	SEGMENT
_this$ = -16						; size = 4
__$EHRec$ = -12						; size = 12
??1LobbyBtn@@UAE@XZ PROC				; LobbyBtn::~LobbyBtn, COMDAT
; _this$ = ecx

; 42   : {

  00000	6a 04		 push	 4
  00002	b8 00 00 00 00	 mov	 eax, __ehhandler$??1LobbyBtn@@UAE@XZ
  00007	e8 00 00 00 00	 call	 __EH_prolog3
  0000c	8b f1		 mov	 esi, ecx
  0000e	89 75 f0	 mov	 DWORD PTR _this$[ebp], esi
  00011	c7 06 00 00 00
	00		 mov	 DWORD PTR [esi], OFFSET ??_7LobbyBtn@@6B@

; 43   : 	SAFEDELETE( m_pIconBack );

  00017	8b 8e fc 01 00
	00		 mov	 ecx, DWORD PTR [esi+508]
  0001d	33 db		 xor	 ebx, ebx
  0001f	89 5d fc	 mov	 DWORD PTR __$EHRec$[ebp+8], ebx
  00022	3b cb		 cmp	 ecx, ebx
  00024	74 0d		 je	 SHORT $LN6@LobbyBtn
  00026	8b 01		 mov	 eax, DWORD PTR [ecx]
  00028	6a 01		 push	 1
  0002a	ff 50 40	 call	 DWORD PTR [eax+64]
  0002d	89 9e fc 01 00
	00		 mov	 DWORD PTR [esi+508], ebx
$LN6@LobbyBtn:

; 44   : 	SAFEDELETE( m_pIcon );

  00033	8b 8e 00 02 00
	00		 mov	 ecx, DWORD PTR [esi+512]
  00039	3b cb		 cmp	 ecx, ebx
  0003b	74 0d		 je	 SHORT $LN5@LobbyBtn
  0003d	8b 01		 mov	 eax, DWORD PTR [ecx]
  0003f	6a 01		 push	 1
  00041	ff 50 40	 call	 DWORD PTR [eax+64]
  00044	89 9e 00 02 00
	00		 mov	 DWORD PTR [esi+512], ebx
$LN5@LobbyBtn:

; 45   : 	SAFEDELETE( m_pStateGreenFrm );

  0004a	8b 8e 04 02 00
	00		 mov	 ecx, DWORD PTR [esi+516]
  00050	3b cb		 cmp	 ecx, ebx
  00052	74 0d		 je	 SHORT $LN4@LobbyBtn
  00054	8b 01		 mov	 eax, DWORD PTR [ecx]
  00056	6a 01		 push	 1
  00058	ff 50 40	 call	 DWORD PTR [eax+64]
  0005b	89 9e 04 02 00
	00		 mov	 DWORD PTR [esi+516], ebx
$LN4@LobbyBtn:

; 46   : 	SAFEDELETE( m_pStateRedFrm );

  00061	8b 8e 08 02 00
	00		 mov	 ecx, DWORD PTR [esi+520]
  00067	3b cb		 cmp	 ecx, ebx
  00069	74 0d		 je	 SHORT $LN3@LobbyBtn
  0006b	8b 01		 mov	 eax, DWORD PTR [ecx]
  0006d	6a 01		 push	 1
  0006f	ff 50 40	 call	 DWORD PTR [eax+64]
  00072	89 9e 08 02 00
	00		 mov	 DWORD PTR [esi+520], ebx
$LN3@LobbyBtn:

; 47   : 	SAFEDELETE( m_pStateOrangeFrm );

  00078	8b 8e 0c 02 00
	00		 mov	 ecx, DWORD PTR [esi+524]
  0007e	3b cb		 cmp	 ecx, ebx
  00080	74 0d		 je	 SHORT $LN2@LobbyBtn
  00082	8b 01		 mov	 eax, DWORD PTR [ecx]
  00084	6a 01		 push	 1
  00086	ff 50 40	 call	 DWORD PTR [eax+64]
  00089	89 9e 0c 02 00
	00		 mov	 DWORD PTR [esi+524], ebx
$LN2@LobbyBtn:

; 48   : 	SAFEDELETE( m_pStatePinkFrm );

  0008f	8b 8e 10 02 00
	00		 mov	 ecx, DWORD PTR [esi+528]
  00095	3b cb		 cmp	 ecx, ebx
  00097	74 0d		 je	 SHORT $LN1@LobbyBtn
  00099	8b 01		 mov	 eax, DWORD PTR [ecx]
  0009b	6a 01		 push	 1
  0009d	ff 50 40	 call	 DWORD PTR [eax+64]
  000a0	89 9e 10 02 00
	00		 mov	 DWORD PTR [esi+528], ebx
$LN1@LobbyBtn:

; 49   : }

  000a6	83 4d fc ff	 or	 DWORD PTR __$EHRec$[ebp+8], -1
  000aa	8b ce		 mov	 ecx, esi
  000ac	ff 15 00 00 00
	00		 call	 DWORD PTR __imp_??1ioRadioButton@@UAE@XZ
  000b2	e8 00 00 00 00	 call	 __EH_epilog3
  000b7	c3		 ret	 0
_TEXT	ENDS
;	COMDAT text$x
text$x	SEGMENT
__unwindfunclet$??1LobbyBtn@@UAE@XZ$0:
  00000	8b 4d f0	 mov	 ecx, DWORD PTR _this$[ebp]
  00003	ff 25 00 00 00
	00		 jmp	 DWORD PTR __imp_??1ioRadioButton@@UAE@XZ
__ehhandler$??1LobbyBtn@@UAE@XZ:
  00009	8b 54 24 08	 mov	 edx, DWORD PTR [esp+8]
  0000d	8d 42 0c	 lea	 eax, DWORD PTR [edx+12]
  00010	8b 4a ec	 mov	 ecx, DWORD PTR [edx-20]
  00013	33 c8		 xor	 ecx, eax
  00015	e8 00 00 00 00	 call	 @__security_check_cookie@4
  0001a	b8 00 00 00 00	 mov	 eax, OFFSET __ehfuncinfo$??1LobbyBtn@@UAE@XZ
  0001f	e9 00 00 00 00	 jmp	 ___CxxFrameHandler3
text$x	ENDS
??1LobbyBtn@@UAE@XZ ENDP				; LobbyBtn::~LobbyBtn
; Function compile flags: /Ogsp
;	COMDAT ?iwm_show@LobbyBtn@@UAEXXZ
_TEXT	SEGMENT
?iwm_show@LobbyBtn@@UAEXXZ PROC				; LobbyBtn::iwm_show, COMDAT
; _this$ = ecx

; 102  : }

  00000	c3		 ret	 0
?iwm_show@LobbyBtn@@UAEXXZ ENDP				; LobbyBtn::iwm_show
; Function compile flags: /Ogsp
_TEXT	ENDS
;	COMDAT ?iwm_hide@LobbyBtn@@UAEXXZ
_TEXT	SEGMENT
?iwm_hide@LobbyBtn@@UAEXXZ PROC				; LobbyBtn::iwm_hide, COMDAT
; _this$ = ecx

; 106  : }

  00000	c3		 ret	 0
?iwm_hide@LobbyBtn@@UAEXXZ ENDP				; LobbyBtn::iwm_hide
_TEXT	ENDS
PUBLIC	??_7IconBtn@@6B@				; IconBtn::`vftable'
PUBLIC	??0IconBtn@@QAE@XZ				; IconBtn::IconBtn
PUBLIC	??_R4IconBtn@@6B@				; IconBtn::`RTTI Complete Object Locator'
PUBLIC	??_R0?AVIconBtn@@@8				; IconBtn `RTTI Type Descriptor'
PUBLIC	??_R3IconBtn@@8					; IconBtn::`RTTI Class Hierarchy Descriptor'
PUBLIC	??_R2IconBtn@@8					; IconBtn::`RTTI Base Class Array'
PUBLIC	??_R1A@?0A@EA@IconBtn@@8			; IconBtn::`RTTI Base Class Descriptor at (0,-1,0,64)'
PUBLIC	?AddRenderImage@IconBtn@@UAEXABVioHashString@@PAVioUIRenderImage@@@Z ; IconBtn::AddRenderImage
PUBLIC	?ParseExtraInfo@IconBtn@@UAEXAAVioXMLElement@@@Z ; IconBtn::ParseExtraInfo
PUBLIC	?OnRender@IconBtn@@MAEXXZ			; IconBtn::OnRender
EXTRN	__imp_??0ioButton@@QAE@XZ:PROC
EXTRN	?AddRenderFrame@ioButton@@UAEXABVioHashString@@PAVioUIRenderFrame@@@Z:PROC ; ioButton::AddRenderFrame
EXTRN	?iwm_lbuttonup@ioButton@@UAEXABVioMouse@@@Z:PROC ; ioButton::iwm_lbuttonup
EXTRN	?iwm_mouseleave@ioWnd@@UAEXABVioMouse@@@Z:PROC	; ioWnd::iwm_mouseleave
EXTRN	?iwm_show@ioWnd@@UAEXXZ:PROC			; ioWnd::iwm_show
EXTRN	?iwm_hide@ioWnd@@UAEXXZ:PROC			; ioWnd::iwm_hide
EXTRN	?GetWndType@ioButton@@UBEKXZ:PROC		; ioButton::GetWndType
EXTRN	?GetHeaderFileName@ioButton@@UAEPBDXZ:PROC	; ioButton::GetHeaderFileName
EXTRN	?GetTemplateName@ioButton@@UAEPBDXZ:PROC	; ioButton::GetTemplateName
EXTRN	?GetDefClassName@ioButton@@UBEPBDXZ:PROC	; ioButton::GetDefClassName
EXTRN	?_Clone@ioButton@@UAEPAVioWnd@@XZ:PROC		; ioButton::_Clone
EXTRN	??_EIconBtn@@UAEPAXI@Z:PROC			; IconBtn::`vector deleting destructor'
EXTRN	?OnDrawPushed@ioButton@@MAEXHH@Z:PROC		; ioButton::OnDrawPushed
;	COMDAT ??_R1A@?0A@EA@IconBtn@@8
rdata$r	SEGMENT
??_R1A@?0A@EA@IconBtn@@8 DD FLAT:??_R0?AVIconBtn@@@8	; IconBtn::`RTTI Base Class Descriptor at (0,-1,0,64)'
	DD	02H
	DD	00H
	DD	0ffffffffH
	DD	00H
	DD	040H
	DD	FLAT:??_R3IconBtn@@8
rdata$r	ENDS
;	COMDAT ??_R2IconBtn@@8
rdata$r	SEGMENT
??_R2IconBtn@@8 DD FLAT:??_R1A@?0A@EA@IconBtn@@8	; IconBtn::`RTTI Base Class Array'
	DD	FLAT:??_R1A@?0A@EA@ioButton@@8
	DD	FLAT:??_R1A@?0A@EA@ioWnd@@8
rdata$r	ENDS
;	COMDAT ??_R3IconBtn@@8
rdata$r	SEGMENT
??_R3IconBtn@@8 DD 00H					; IconBtn::`RTTI Class Hierarchy Descriptor'
	DD	00H
	DD	03H
	DD	FLAT:??_R2IconBtn@@8
rdata$r	ENDS
;	COMDAT ??_R0?AVIconBtn@@@8
_DATA	SEGMENT
??_R0?AVIconBtn@@@8 DD FLAT:??_7type_info@@6B@		; IconBtn `RTTI Type Descriptor'
	DD	00H
	DB	'.?AVIconBtn@@', 00H
_DATA	ENDS
;	COMDAT ??_R4IconBtn@@6B@
rdata$r	SEGMENT
??_R4IconBtn@@6B@ DD 00H				; IconBtn::`RTTI Complete Object Locator'
	DD	00H
	DD	00H
	DD	FLAT:??_R0?AVIconBtn@@@8
	DD	FLAT:??_R3IconBtn@@8
rdata$r	ENDS
;	COMDAT ??_7IconBtn@@6B@
CONST	SEGMENT
??_7IconBtn@@6B@ DD FLAT:??_R4IconBtn@@6B@		; IconBtn::`vftable'
	DD	FLAT:?AddRenderFrame@ioButton@@UAEXABVioHashString@@PAVioUIRenderFrame@@@Z
	DD	FLAT:?AddRenderImage@IconBtn@@UAEXABVioHashString@@PAVioUIRenderImage@@@Z
	DD	FLAT:?AddTooltipHelp@ioWnd@@UAEXABVioHashString@@00@Z
	DD	FLAT:?ParseExtraInfo@IconBtn@@UAEXAAVioXMLElement@@@Z
	DD	FLAT:?AddNamedRenderImage@ioWnd@@UAEXABVioHashString@@PAVioUIRenderImage@@@Z
	DD	FLAT:?RemoveNamedRenderImage@ioWnd@@UAEXABVioHashString@@@Z
	DD	FLAT:?GetNamedRenderImage@ioWnd@@UBEPAVioUIRenderImage@@ABVioHashString@@@Z
	DD	FLAT:?SetWindowAlpha@ioButton@@UAEXH@Z
	DD	FLAT:?SetActive@ioWnd@@UAEXXZ
	DD	FLAT:?SetInActive@ioWnd@@UAEXXZ
	DD	FLAT:?ClearElementImageList@ioWnd@@UAEXXZ
	DD	FLAT:?SetSize@ioWnd@@UAEXHH@Z
	DD	FLAT:?SetPositionToDefault@ioWnd@@UAEXHH_N0@Z
	DD	FLAT:?IsNeedProcess@ioWnd@@UBE_NXZ
	DD	FLAT:?IsCanMouseReaction@ioWnd@@UBE_NXZ
	DD	FLAT:?AddChild@ioWnd@@UAEXPAV1@@Z
	DD	FLAT:?DeleteChild@ioWnd@@UAEXK@Z
	DD	FLAT:?DeleteAllChild@ioWnd@@UAEXXZ
	DD	FLAT:?OnRenderShowAndHide@ioWnd@@MAE_NXZ
	DD	FLAT:?OnRenderShowAndHideByDefault@ioWnd@@MAE_NK@Z
	DD	FLAT:?OnRenderShowAndHideByTop@ioWnd@@MAE_NK@Z
	DD	FLAT:?OnRenderShowAndHideByDown@ioWnd@@MAE_NK@Z
	DD	FLAT:?OnRender@IconBtn@@MAEXXZ
	DD	FLAT:?OnRenderAfterChild@ioWnd@@MAEXXZ
	DD	FLAT:?OnProcess@ioWnd@@MAEXM@Z
	DD	FLAT:?OnMouseProcess@ioWnd@@MAEXABVioMouse@@@Z
	DD	FLAT:?CheckFrameReSize@ioButton@@MAEXHHHH@Z
	DD	FLAT:?RenderImageList@ioWnd@@MAEXHHW4UIRenderType@@@Z
	DD	FLAT:?iwm_create@ioWnd@@UAEXXZ
	DD	FLAT:?iwm_destroy@ioWnd@@UAEXXZ
	DD	FLAT:?iwm_lbuttondown@ioButton@@UAEXABVioMouse@@@Z
	DD	FLAT:?iwm_lbuttonup@ioButton@@UAEXABVioMouse@@@Z
	DD	FLAT:?iwm_lbuttonDBLCLK@ioButton@@UAEXABVioMouse@@@Z
	DD	FLAT:?iwm_rbuttondown@ioButton@@UAEXABVioMouse@@@Z
	DD	FLAT:?iwm_rbuttonup@ioButton@@UAEXABVioMouse@@@Z
	DD	FLAT:?iwm_command@ioWnd@@UAEXPAV1@HK@Z
	DD	FLAT:?iwm_mouseover@ioButton@@UAEXABVioMouse@@@Z
	DD	FLAT:?iwm_mousemove@ioWnd@@UAEXABVioMouse@@@Z
	DD	FLAT:?iwm_mouseleave@ioWnd@@UAEXABVioMouse@@@Z
	DD	FLAT:?iwm_vscroll@ioWnd@@UAEXKH@Z
	DD	FLAT:?iwm_wheel@ioWnd@@UAEXH@Z
	DD	FLAT:?iwm_show@ioWnd@@UAEXXZ
	DD	FLAT:?iwm_hide@ioWnd@@UAEXXZ
	DD	FLAT:?iwm_esc@ioWnd@@UAE_NXZ
	DD	FLAT:?iwm_spacebar@ioWnd@@UAE_NXZ
	DD	FLAT:?iwm_gototop@ioWnd@@UAEXXZ
	DD	FLAT:?iwm_dragenter@ioWnd@@UAE?AW4IWDropEffect@@PAVioDragItem@@ABVioMouse@@@Z
	DD	FLAT:?iwm_dragover@ioWnd@@UAE?AW4IWDropEffect@@PAVioDragItem@@ABVioMouse@@@Z
	DD	FLAT:?iwm_dragleave@ioWnd@@UAEXXZ
	DD	FLAT:?iwm_dropitem@ioWnd@@UAE_NPAVioDragItem@@ABVioMouse@@PAV1@@Z
	DD	FLAT:?iwm_dropdone@ioWnd@@UAEXPAVioDragItem@@PAV1@_N@Z
	DD	FLAT:?IsEXType@ioWnd@@UBE_NXZ
	DD	FLAT:?GetWndType@ioButton@@UBEKXZ
	DD	FLAT:?RenderWnd@ioWnd@@UAEXXZ
	DD	FLAT:?SetIDEX@ioWnd@@UAEXAAK_N@Z
	DD	FLAT:?ParseXML@ioWnd@@UAEXAAVioXMLElement@@@Z
	DD	FLAT:?GetHeaderFileName@ioButton@@UAEPBDXZ
	DD	FLAT:?GetTemplateName@ioButton@@UAEPBDXZ
	DD	FLAT:?GetDefClassName@ioButton@@UBEPBDXZ
	DD	FLAT:?_Clone@ioButton@@UAEPAVioWnd@@XZ
	DD	FLAT:?Copy@ioButton@@UAEXPAVioWnd@@@Z
	DD	FLAT:?Save@ioWnd@@UAE_NAAVioXMLElement@@@Z
	DD	FLAT:?SetSaveData@ioButton@@UAEXAAVioXMLElement@@@Z
	DD	FLAT:?SetPosX@ioWnd@@UAEXH@Z
	DD	FLAT:?SetPosY@ioWnd@@UAEXH@Z
	DD	FLAT:?SetWidth@ioWnd@@UAEXH@Z
	DD	FLAT:?SetHeight@ioWnd@@UAEXH@Z
	DD	FLAT:?GetNumFixedRenderFrame@ioButton@@UBEHXZ
	DD	FLAT:?GetFixedRenderFrameType@ioButton@@UAEPBDH@Z
	DD	FLAT:?GetRenderFrame@ioButton@@UAEPAPAVioUIRenderElement@@PBD@Z
	DD	FLAT:?GetNumFixedRenderImage@ioButton@@UBEHXZ
	DD	FLAT:?GetFixedRenderImageType@ioButton@@UAEPBDH@Z
	DD	FLAT:?GetRenderImage@ioButton@@UAEPAPAVioUIRenderElement@@PBD@Z
	DD	FLAT:?AddEffect@ioWnd@@UAEXABVioHashString@@PAVioUI3DEffectRender@@@Z
	DD	FLAT:?GetEffect@ioWnd@@UAEPAVioUI3DEffectRender@@VioHashString@@@Z
	DD	FLAT:??_EIconBtn@@UAEPAXI@Z
	DD	FLAT:?OnDrawNormal@ioButton@@MAEXHH@Z
	DD	FLAT:?OnDrawOvered@ioButton@@MAEXHH@Z
	DD	FLAT:?OnDrawOveredAdd@ioButton@@MAEXHH@Z
	DD	FLAT:?OnDrawPushed@ioButton@@MAEXHH@Z
	DD	FLAT:?OnDrawDisabled@ioButton@@MAEXHH@Z
	DD	FLAT:?OnDrawExDisabledNormal@ioButton@@MAEXHH@Z
	DD	FLAT:?OnDrawExDisabledOvered@ioButton@@MAEXHH@Z
	DD	FLAT:?OnDrawExDisabledPushed@ioButton@@MAEXHH@Z
	DD	FLAT:?OnDrawBack@ioButton@@MAEXHH@Z
	DD	FLAT:?OnDrawNormalList@ioButton@@MAEXHH@Z
	DD	FLAT:?OnDrawDisableList@ioButton@@MAEXHH@Z
; Function compile flags: /Ogsp
CONST	ENDS
;	COMDAT ??0IconBtn@@QAE@XZ
_TEXT	SEGMENT
??0IconBtn@@QAE@XZ PROC					; IconBtn::IconBtn, COMDAT
; _this$ = ecx

; 344  : {

  00000	56		 push	 esi
  00001	8b f1		 mov	 esi, ecx
  00003	ff 15 00 00 00
	00		 call	 DWORD PTR __imp_??0ioButton@@QAE@XZ

; 345  : 	m_pIconBack   = NULL;

  00009	83 a6 fc 01 00
	00 00		 and	 DWORD PTR [esi+508], 0

; 346  : 	m_pIcon       = NULL;

  00010	83 a6 00 02 00
	00 00		 and	 DWORD PTR [esi+512], 0
  00017	c7 06 00 00 00
	00		 mov	 DWORD PTR [esi], OFFSET ??_7IconBtn@@6B@

; 347  : }

  0001d	8b c6		 mov	 eax, esi
  0001f	5e		 pop	 esi
  00020	c3		 ret	 0
??0IconBtn@@QAE@XZ ENDP					; IconBtn::IconBtn
_TEXT	ENDS
PUBLIC	??1IconBtn@@UAE@XZ				; IconBtn::~IconBtn
EXTRN	__imp_??1ioButton@@UAE@XZ:PROC
;	COMDAT xdata$x
xdata$x	SEGMENT
__unwindtable$??1IconBtn@@UAE@XZ DD 0ffffffffH
	DD	FLAT:__unwindfunclet$??1IconBtn@@UAE@XZ$0
__ehfuncinfo$??1IconBtn@@UAE@XZ DD 019930522H
	DD	01H
	DD	FLAT:__unwindtable$??1IconBtn@@UAE@XZ
	DD	2 DUP(00H)
	DD	2 DUP(00H)
	DD	00H
	DD	01H
; Function compile flags: /Ogsp
xdata$x	ENDS
;	COMDAT ??1IconBtn@@UAE@XZ
_TEXT	SEGMENT
_this$ = -16						; size = 4
__$EHRec$ = -12						; size = 12
??1IconBtn@@UAE@XZ PROC					; IconBtn::~IconBtn, COMDAT
; _this$ = ecx

; 350  : {

  00000	6a 04		 push	 4
  00002	b8 00 00 00 00	 mov	 eax, __ehhandler$??1IconBtn@@UAE@XZ
  00007	e8 00 00 00 00	 call	 __EH_prolog3
  0000c	8b f9		 mov	 edi, ecx
  0000e	89 7d f0	 mov	 DWORD PTR _this$[ebp], edi
  00011	c7 07 00 00 00
	00		 mov	 DWORD PTR [edi], OFFSET ??_7IconBtn@@6B@

; 351  : 	SAFEDELETE( m_pIconBack );

  00017	8b 8f fc 01 00
	00		 mov	 ecx, DWORD PTR [edi+508]
  0001d	83 65 fc 00	 and	 DWORD PTR __$EHRec$[ebp+8], 0
  00021	85 c9		 test	 ecx, ecx
  00023	74 0e		 je	 SHORT $LN2@IconBtn
  00025	8b 01		 mov	 eax, DWORD PTR [ecx]
  00027	6a 01		 push	 1
  00029	ff 50 40	 call	 DWORD PTR [eax+64]
  0002c	83 a7 fc 01 00
	00 00		 and	 DWORD PTR [edi+508], 0
$LN2@IconBtn:

; 352  : 	SAFEDELETE( m_pIcon );

  00033	8b 8f 00 02 00
	00		 mov	 ecx, DWORD PTR [edi+512]
  00039	85 c9		 test	 ecx, ecx
  0003b	74 0e		 je	 SHORT $LN1@IconBtn
  0003d	8b 01		 mov	 eax, DWORD PTR [ecx]
  0003f	6a 01		 push	 1
  00041	ff 50 40	 call	 DWORD PTR [eax+64]
  00044	83 a7 00 02 00
	00 00		 and	 DWORD PTR [edi+512], 0
$LN1@IconBtn:

; 353  : }

  0004b	83 4d fc ff	 or	 DWORD PTR __$EHRec$[ebp+8], -1
  0004f	8b cf		 mov	 ecx, edi
  00051	ff 15 00 00 00
	00		 call	 DWORD PTR __imp_??1ioButton@@UAE@XZ
  00057	e8 00 00 00 00	 call	 __EH_epilog3
  0005c	c3		 ret	 0
_TEXT	ENDS
;	COMDAT text$x
text$x	SEGMENT
__unwindfunclet$??1IconBtn@@UAE@XZ$0:
  00000	8b 4d f0	 mov	 ecx, DWORD PTR _this$[ebp]
  00003	ff 25 00 00 00
	00		 jmp	 DWORD PTR __imp_??1ioButton@@UAE@XZ
__ehhandler$??1IconBtn@@UAE@XZ:
  00009	8b 54 24 08	 mov	 edx, DWORD PTR [esp+8]
  0000d	8d 42 0c	 lea	 eax, DWORD PTR [edx+12]
  00010	8b 4a ec	 mov	 ecx, DWORD PTR [edx-20]
  00013	33 c8		 xor	 ecx, eax
  00015	e8 00 00 00 00	 call	 @__security_check_cookie@4
  0001a	b8 00 00 00 00	 mov	 eax, OFFSET __ehfuncinfo$??1IconBtn@@UAE@XZ
  0001f	e9 00 00 00 00	 jmp	 ___CxxFrameHandler3
text$x	ENDS
??1IconBtn@@UAE@XZ ENDP					; IconBtn::~IconBtn
EXTRN	__imp_?HasWndStyle@ioWnd@@QBE_NK@Z:PROC
EXTRN	__imp_?GetDerivedPosY@ioWnd@@QBEHXZ:PROC
EXTRN	__imp_?GetDerivedPosX@ioWnd@@QBEHXZ:PROC
EXTRN	__imp_?OnRender@ioButton@@MAEXXZ:PROC
EXTRN	__fltused:DWORD
; Function compile flags: /Ogsp
;	COMDAT ?OnRender@IconBtn@@MAEXXZ
_TEXT	SEGMENT
_iYPos$ = -4						; size = 4
?OnRender@IconBtn@@MAEXXZ PROC				; IconBtn::OnRender, COMDAT
; _this$ = ecx

; 356  : {

  00000	55		 push	 ebp
  00001	8b ec		 mov	 ebp, esp
  00003	51		 push	 ecx
  00004	53		 push	 ebx
  00005	56		 push	 esi
  00006	57		 push	 edi
  00007	8b f1		 mov	 esi, ecx

; 357  : 	ioButton::OnRender();

  00009	ff 15 00 00 00
	00		 call	 DWORD PTR __imp_?OnRender@ioButton@@MAEXXZ

; 358  : 
; 359  : 	int iXPos = GetDerivedPosX();

  0000f	8b ce		 mov	 ecx, esi
  00011	ff 15 00 00 00
	00		 call	 DWORD PTR __imp_?GetDerivedPosX@ioWnd@@QBEHXZ

; 360  : 	int iYPos = GetDerivedPosY();

  00017	8b ce		 mov	 ecx, esi
  00019	8b d8		 mov	 ebx, eax
  0001b	ff 15 00 00 00
	00		 call	 DWORD PTR __imp_?GetDerivedPosY@ioWnd@@QBEHXZ

; 361  : 
; 362  : 	// x, y offset은 xml에서 조정 
; 363  : 	if( m_pIconBack )

  00021	33 ff		 xor	 edi, edi
  00023	89 45 fc	 mov	 DWORD PTR _iYPos$[ebp], eax
  00026	39 be fc 01 00
	00		 cmp	 DWORD PTR [esi+508], edi
  0002c	74 45		 je	 SHORT $LN4@OnRender

; 364  : 	{
; 365  : 		m_pIconBack->SetScale( m_fIconBackScale );		

  0002e	8b 8e fc 01 00
	00		 mov	 ecx, DWORD PTR [esi+508]
  00034	f3 0f 10 86 08
	02 00 00	 movss	 xmm0, DWORD PTR [esi+520]
  0003c	8b 01		 mov	 eax, DWORD PTR [ecx]
  0003e	51		 push	 ecx
  0003f	f3 0f 11 04 24	 movss	 DWORD PTR [esp], xmm0
  00044	ff 50 1c	 call	 DWORD PTR [eax+28]

; 366  : 		m_pIconBack->Render( iXPos, iYPos, UI_RENDER_MULTIPLY, TFO_BILINEAR );

  00047	8b 8e fc 01 00
	00		 mov	 ecx, DWORD PTR [esi+508]
  0004d	66 0f 6e 45 fc	 movd	 xmm0, DWORD PTR _iYPos$[ebp]
  00052	8b 01		 mov	 eax, DWORD PTR [ecx]
  00054	57		 push	 edi
  00055	57		 push	 edi
  00056	6a 01		 push	 1
  00058	6a 08		 push	 8
  0005a	51		 push	 ecx
  0005b	0f 5b c0	 cvtdq2ps xmm0, xmm0
  0005e	51		 push	 ecx
  0005f	f3 0f 11 44 24
	04		 movss	 DWORD PTR [esp+4], xmm0
  00065	0f 57 c0	 xorps	 xmm0, xmm0
  00068	f3 0f 2a c3	 cvtsi2ss xmm0, ebx
  0006c	f3 0f 11 04 24	 movss	 DWORD PTR [esp], xmm0
  00071	ff 10		 call	 DWORD PTR [eax]
$LN4@OnRender:

; 367  : 	}
; 368  : 
; 369  : 	if( m_pIcon )

  00073	39 be 00 02 00
	00		 cmp	 DWORD PTR [esi+512], edi
  00079	74 59		 je	 SHORT $LN1@OnRender

; 370  : 	{
; 371  : 		m_pIcon->SetScale( m_fIconScale );

  0007b	8b 8e 00 02 00
	00		 mov	 ecx, DWORD PTR [esi+512]
  00081	f3 0f 10 86 04
	02 00 00	 movss	 xmm0, DWORD PTR [esi+516]
  00089	8b 01		 mov	 eax, DWORD PTR [ecx]
  0008b	51		 push	 ecx
  0008c	f3 0f 11 04 24	 movss	 DWORD PTR [esp], xmm0
  00091	ff 50 1c	 call	 DWORD PTR [eax+28]

; 372  : 
; 373  : 		if( HasWndStyle( IWS_EXACTIVE ) )

  00094	68 00 10 00 00	 push	 4096			; 00001000H
  00099	8b ce		 mov	 ecx, esi
  0009b	ff 15 00 00 00
	00		 call	 DWORD PTR __imp_?HasWndStyle@ioWnd@@QBE_NK@Z

; 374  : 		{
; 375  : 			m_pIcon->Render( iXPos, iYPos, UI_RENDER_GRAY, TFO_BILINEAR );

  000a1	8b 8e 00 02 00
	00		 mov	 ecx, DWORD PTR [esi+512]
  000a7	66 0f 6e 45 fc	 movd	 xmm0, DWORD PTR _iYPos$[ebp]
  000ac	57		 push	 edi
  000ad	57		 push	 edi
  000ae	84 c0		 test	 al, al
  000b0	8b 01		 mov	 eax, DWORD PTR [ecx]
  000b2	0f 5b c0	 cvtdq2ps xmm0, xmm0
  000b5	6a 01		 push	 1
  000b7	74 04		 je	 SHORT $LN2@OnRender
  000b9	6a 02		 push	 2

; 376  : 		}
; 377  : 		else

  000bb	eb 01		 jmp	 SHORT $LN7@OnRender
$LN2@OnRender:

; 378  : 		{
; 379  : 			m_pIcon->Render( iXPos, iYPos, UI_RENDER_NORMAL, TFO_BILINEAR );

  000bd	57		 push	 edi
$LN7@OnRender:
  000be	51		 push	 ecx
  000bf	51		 push	 ecx
  000c0	f3 0f 11 44 24
	04		 movss	 DWORD PTR [esp+4], xmm0
  000c6	0f 57 c0	 xorps	 xmm0, xmm0
  000c9	f3 0f 2a c3	 cvtsi2ss xmm0, ebx
  000cd	f3 0f 11 04 24	 movss	 DWORD PTR [esp], xmm0
  000d2	ff 10		 call	 DWORD PTR [eax]
$LN1@OnRender:
  000d4	5f		 pop	 edi
  000d5	5e		 pop	 esi
  000d6	5b		 pop	 ebx

; 380  : 		}
; 381  : 	}
; 382  : }

  000d7	c9		 leave
  000d8	c3		 ret	 0
?OnRender@IconBtn@@MAEXXZ ENDP				; IconBtn::OnRender
_TEXT	ENDS
PUBLIC	??_7LobbyWnd@@6B@				; LobbyWnd::`vftable'
PUBLIC	??0LobbyWnd@@QAE@XZ				; LobbyWnd::LobbyWnd
PUBLIC	??_R4LobbyWnd@@6B@				; LobbyWnd::`RTTI Complete Object Locator'
PUBLIC	??_R0?AVLobbyWnd@@@8				; LobbyWnd `RTTI Type Descriptor'
PUBLIC	??_R3LobbyWnd@@8				; LobbyWnd::`RTTI Class Hierarchy Descriptor'
PUBLIC	??_R2LobbyWnd@@8				; LobbyWnd::`RTTI Base Class Array'
PUBLIC	??_R1A@?0A@EA@LobbyWnd@@8			; LobbyWnd::`RTTI Base Class Descriptor at (0,-1,0,64)'
PUBLIC	?AddRenderFrame@LobbyWnd@@MAEXABVioHashString@@PAVioUIRenderFrame@@@Z ; LobbyWnd::AddRenderFrame
PUBLIC	?AddRenderImage@LobbyWnd@@MAEXABVioHashString@@PAVioUIRenderImage@@@Z ; LobbyWnd::AddRenderImage
PUBLIC	?OnRender@LobbyWnd@@MAEXXZ			; LobbyWnd::OnRender
PUBLIC	?OnProcess@LobbyWnd@@MAEXM@Z			; LobbyWnd::OnProcess
PUBLIC	?iwm_create@LobbyWnd@@UAEXXZ			; LobbyWnd::iwm_create
PUBLIC	?iwm_command@LobbyWnd@@UAEXPAVioWnd@@HK@Z	; LobbyWnd::iwm_command
PUBLIC	?iwm_show@LobbyWnd@@UAEXXZ			; LobbyWnd::iwm_show
PUBLIC	?iwm_hide@LobbyWnd@@UAEXXZ			; LobbyWnd::iwm_hide
EXTRN	__imp_??0ioWnd@@QAE@XZ:PROC
EXTRN	?ParseExtraInfo@ioWnd@@UAEXAAVioXMLElement@@@Z:PROC ; ioWnd::ParseExtraInfo
EXTRN	?SetWindowAlpha@ioWnd@@UAEXH@Z:PROC		; ioWnd::SetWindowAlpha
EXTRN	?CheckFrameReSize@ioWnd@@MAEXHHHH@Z:PROC	; ioWnd::CheckFrameReSize
EXTRN	?iwm_lbuttondown@ioWnd@@UAEXABVioMouse@@@Z:PROC	; ioWnd::iwm_lbuttondown
EXTRN	?iwm_lbuttonup@ioWnd@@UAEXABVioMouse@@@Z:PROC	; ioWnd::iwm_lbuttonup
EXTRN	?iwm_lbuttonDBLCLK@ioWnd@@UAEXABVioMouse@@@Z:PROC ; ioWnd::iwm_lbuttonDBLCLK
EXTRN	?iwm_rbuttondown@ioWnd@@UAEXABVioMouse@@@Z:PROC	; ioWnd::iwm_rbuttondown
EXTRN	?iwm_rbuttonup@ioWnd@@UAEXABVioMouse@@@Z:PROC	; ioWnd::iwm_rbuttonup
EXTRN	?iwm_mouseover@ioWnd@@UAEXABVioMouse@@@Z:PROC	; ioWnd::iwm_mouseover
EXTRN	?GetWndType@ioWnd@@UBEKXZ:PROC			; ioWnd::GetWndType
EXTRN	?GetHeaderFileName@ioWnd@@UAEPBDXZ:PROC		; ioWnd::GetHeaderFileName
EXTRN	?GetTemplateName@ioWnd@@UAEPBDXZ:PROC		; ioWnd::GetTemplateName
EXTRN	?GetDefClassName@ioWnd@@UBEPBDXZ:PROC		; ioWnd::GetDefClassName
EXTRN	?_Clone@ioWnd@@UAEPAV1@XZ:PROC			; ioWnd::_Clone
EXTRN	?Copy@ioWnd@@UAEXPAV1@@Z:PROC			; ioWnd::Copy
EXTRN	?SetSaveData@ioWnd@@UAEXAAVioXMLElement@@@Z:PROC ; ioWnd::SetSaveData
EXTRN	?GetNumFixedRenderFrame@ioWnd@@UBEHXZ:PROC	; ioWnd::GetNumFixedRenderFrame
EXTRN	?GetFixedRenderFrameType@ioWnd@@UAEPBDH@Z:PROC	; ioWnd::GetFixedRenderFrameType
EXTRN	?GetRenderFrame@ioWnd@@UAEPAPAVioUIRenderElement@@PBD@Z:PROC ; ioWnd::GetRenderFrame
EXTRN	?GetNumFixedRenderImage@ioWnd@@UBEHXZ:PROC	; ioWnd::GetNumFixedRenderImage
EXTRN	?GetFixedRenderImageType@ioWnd@@UAEPBDH@Z:PROC	; ioWnd::GetFixedRenderImageType
EXTRN	?GetRenderImage@ioWnd@@UAEPAPAVioUIRenderElement@@PBD@Z:PROC ; ioWnd::GetRenderImage
EXTRN	??_ELobbyWnd@@UAEPAXI@Z:PROC			; LobbyWnd::`vector deleting destructor'
;	COMDAT ??_R1A@?0A@EA@LobbyWnd@@8
rdata$r	SEGMENT
??_R1A@?0A@EA@LobbyWnd@@8 DD FLAT:??_R0?AVLobbyWnd@@@8	; LobbyWnd::`RTTI Base Class Descriptor at (0,-1,0,64)'
	DD	01H
	DD	00H
	DD	0ffffffffH
	DD	00H
	DD	040H
	DD	FLAT:??_R3LobbyWnd@@8
rdata$r	ENDS
;	COMDAT ??_R2LobbyWnd@@8
rdata$r	SEGMENT
??_R2LobbyWnd@@8 DD FLAT:??_R1A@?0A@EA@LobbyWnd@@8	; LobbyWnd::`RTTI Base Class Array'
	DD	FLAT:??_R1A@?0A@EA@ioWnd@@8
rdata$r	ENDS
;	COMDAT ??_R3LobbyWnd@@8
rdata$r	SEGMENT
??_R3LobbyWnd@@8 DD 00H					; LobbyWnd::`RTTI Class Hierarchy Descriptor'
	DD	00H
	DD	02H
	DD	FLAT:??_R2LobbyWnd@@8
rdata$r	ENDS
;	COMDAT ??_R0?AVLobbyWnd@@@8
_DATA	SEGMENT
??_R0?AVLobbyWnd@@@8 DD FLAT:??_7type_info@@6B@		; LobbyWnd `RTTI Type Descriptor'
	DD	00H
	DB	'.?AVLobbyWnd@@', 00H
_DATA	ENDS
;	COMDAT ??_R4LobbyWnd@@6B@
rdata$r	SEGMENT
??_R4LobbyWnd@@6B@ DD 00H				; LobbyWnd::`RTTI Complete Object Locator'
	DD	00H
	DD	00H
	DD	FLAT:??_R0?AVLobbyWnd@@@8
	DD	FLAT:??_R3LobbyWnd@@8
rdata$r	ENDS
;	COMDAT ??_7LobbyWnd@@6B@
CONST	SEGMENT
??_7LobbyWnd@@6B@ DD FLAT:??_R4LobbyWnd@@6B@		; LobbyWnd::`vftable'
	DD	FLAT:?AddRenderFrame@LobbyWnd@@MAEXABVioHashString@@PAVioUIRenderFrame@@@Z
	DD	FLAT:?AddRenderImage@LobbyWnd@@MAEXABVioHashString@@PAVioUIRenderImage@@@Z
	DD	FLAT:?AddTooltipHelp@ioWnd@@UAEXABVioHashString@@00@Z
	DD	FLAT:?ParseExtraInfo@ioWnd@@UAEXAAVioXMLElement@@@Z
	DD	FLAT:?AddNamedRenderImage@ioWnd@@UAEXABVioHashString@@PAVioUIRenderImage@@@Z
	DD	FLAT:?RemoveNamedRenderImage@ioWnd@@UAEXABVioHashString@@@Z
	DD	FLAT:?GetNamedRenderImage@ioWnd@@UBEPAVioUIRenderImage@@ABVioHashString@@@Z
	DD	FLAT:?SetWindowAlpha@ioWnd@@UAEXH@Z
	DD	FLAT:?SetActive@ioWnd@@UAEXXZ
	DD	FLAT:?SetInActive@ioWnd@@UAEXXZ
	DD	FLAT:?ClearElementImageList@ioWnd@@UAEXXZ
	DD	FLAT:?SetSize@ioWnd@@UAEXHH@Z
	DD	FLAT:?SetPositionToDefault@ioWnd@@UAEXHH_N0@Z
	DD	FLAT:?IsNeedProcess@ioWnd@@UBE_NXZ
	DD	FLAT:?IsCanMouseReaction@ioWnd@@UBE_NXZ
	DD	FLAT:?AddChild@ioWnd@@UAEXPAV1@@Z
	DD	FLAT:?DeleteChild@ioWnd@@UAEXK@Z
	DD	FLAT:?DeleteAllChild@ioWnd@@UAEXXZ
	DD	FLAT:?OnRenderShowAndHide@ioWnd@@MAE_NXZ
	DD	FLAT:?OnRenderShowAndHideByDefault@ioWnd@@MAE_NK@Z
	DD	FLAT:?OnRenderShowAndHideByTop@ioWnd@@MAE_NK@Z
	DD	FLAT:?OnRenderShowAndHideByDown@ioWnd@@MAE_NK@Z
	DD	FLAT:?OnRender@LobbyWnd@@MAEXXZ
	DD	FLAT:?OnRenderAfterChild@ioWnd@@MAEXXZ
	DD	FLAT:?OnProcess@LobbyWnd@@MAEXM@Z
	DD	FLAT:?OnMouseProcess@ioWnd@@MAEXABVioMouse@@@Z
	DD	FLAT:?CheckFrameReSize@ioWnd@@MAEXHHHH@Z
	DD	FLAT:?RenderImageList@ioWnd@@MAEXHHW4UIRenderType@@@Z
	DD	FLAT:?iwm_create@LobbyWnd@@UAEXXZ
	DD	FLAT:?iwm_destroy@ioWnd@@UAEXXZ
	DD	FLAT:?iwm_lbuttondown@ioWnd@@UAEXABVioMouse@@@Z
	DD	FLAT:?iwm_lbuttonup@ioWnd@@UAEXABVioMouse@@@Z
	DD	FLAT:?iwm_lbuttonDBLCLK@ioWnd@@UAEXABVioMouse@@@Z
	DD	FLAT:?iwm_rbuttondown@ioWnd@@UAEXABVioMouse@@@Z
	DD	FLAT:?iwm_rbuttonup@ioWnd@@UAEXABVioMouse@@@Z
	DD	FLAT:?iwm_command@LobbyWnd@@UAEXPAVioWnd@@HK@Z
	DD	FLAT:?iwm_mouseover@ioWnd@@UAEXABVioMouse@@@Z
	DD	FLAT:?iwm_mousemove@ioWnd@@UAEXABVioMouse@@@Z
	DD	FLAT:?iwm_mouseleave@ioWnd@@UAEXABVioMouse@@@Z
	DD	FLAT:?iwm_vscroll@ioWnd@@UAEXKH@Z
	DD	FLAT:?iwm_wheel@ioWnd@@UAEXH@Z
	DD	FLAT:?iwm_show@LobbyWnd@@UAEXXZ
	DD	FLAT:?iwm_hide@LobbyWnd@@UAEXXZ
	DD	FLAT:?iwm_esc@ioWnd@@UAE_NXZ
	DD	FLAT:?iwm_spacebar@ioWnd@@UAE_NXZ
	DD	FLAT:?iwm_gototop@ioWnd@@UAEXXZ
	DD	FLAT:?iwm_dragenter@ioWnd@@UAE?AW4IWDropEffect@@PAVioDragItem@@ABVioMouse@@@Z
	DD	FLAT:?iwm_dragover@ioWnd@@UAE?AW4IWDropEffect@@PAVioDragItem@@ABVioMouse@@@Z
	DD	FLAT:?iwm_dragleave@ioWnd@@UAEXXZ
	DD	FLAT:?iwm_dropitem@ioWnd@@UAE_NPAVioDragItem@@ABVioMouse@@PAV1@@Z
	DD	FLAT:?iwm_dropdone@ioWnd@@UAEXPAVioDragItem@@PAV1@_N@Z
	DD	FLAT:?IsEXType@ioWnd@@UBE_NXZ
	DD	FLAT:?GetWndType@ioWnd@@UBEKXZ
	DD	FLAT:?RenderWnd@ioWnd@@UAEXXZ
	DD	FLAT:?SetIDEX@ioWnd@@UAEXAAK_N@Z
	DD	FLAT:?ParseXML@ioWnd@@UAEXAAVioXMLElement@@@Z
	DD	FLAT:?GetHeaderFileName@ioWnd@@UAEPBDXZ
	DD	FLAT:?GetTemplateName@ioWnd@@UAEPBDXZ
	DD	FLAT:?GetDefClassName@ioWnd@@UBEPBDXZ
	DD	FLAT:?_Clone@ioWnd@@UAEPAV1@XZ
	DD	FLAT:?Copy@ioWnd@@UAEXPAV1@@Z
	DD	FLAT:?Save@ioWnd@@UAE_NAAVioXMLElement@@@Z
	DD	FLAT:?SetSaveData@ioWnd@@UAEXAAVioXMLElement@@@Z
	DD	FLAT:?SetPosX@ioWnd@@UAEXH@Z
	DD	FLAT:?SetPosY@ioWnd@@UAEXH@Z
	DD	FLAT:?SetWidth@ioWnd@@UAEXH@Z
	DD	FLAT:?SetHeight@ioWnd@@UAEXH@Z
	DD	FLAT:?GetNumFixedRenderFrame@ioWnd@@UBEHXZ
	DD	FLAT:?GetFixedRenderFrameType@ioWnd@@UAEPBDH@Z
	DD	FLAT:?GetRenderFrame@ioWnd@@UAEPAPAVioUIRenderElement@@PBD@Z
	DD	FLAT:?GetNumFixedRenderImage@ioWnd@@UBEHXZ
	DD	FLAT:?GetFixedRenderImageType@ioWnd@@UAEPBDH@Z
	DD	FLAT:?GetRenderImage@ioWnd@@UAEPAPAVioUIRenderElement@@PBD@Z
	DD	FLAT:?AddEffect@ioWnd@@UAEXABVioHashString@@PAVioUI3DEffectRender@@@Z
	DD	FLAT:?GetEffect@ioWnd@@UAEPAVioUI3DEffectRender@@VioHashString@@@Z
	DD	FLAT:??_ELobbyWnd@@UAEPAXI@Z
; Function compile flags: /Ogsp
CONST	ENDS
;	COMDAT ??0LobbyWnd@@QAE@XZ
_TEXT	SEGMENT
??0LobbyWnd@@QAE@XZ PROC				; LobbyWnd::LobbyWnd, COMDAT
; _this$ = ecx

; 409  : {

  00000	56		 push	 esi
  00001	8b f1		 mov	 esi, ecx
  00003	ff 15 00 00 00
	00		 call	 DWORD PTR __imp_??0ioWnd@@QAE@XZ

; 410  : 	m_pCustomTitle = NULL;
; 411  : 	m_pTabBack1	= NULL;
; 412  : 	m_pTabBack2	= NULL;
; 413  : 	m_pTabBack3	= NULL;
; 414  : 	m_pTabBack4 = NULL;
; 415  : 
; 416  : 	m_dwTabID = ID_BATTLE_BTN;
; 417  : 	m_iMyCampPos = 0;
; 418  : 
; 419  : 	m_pMajorMark  = NULL;
; 420  : 	m_pMinorGrade = NULL;
; 421  : 	m_pGaugeBack  = NULL;
; 422  : 	m_pGauge      = NULL;
; 423  : 	m_iPrevGradeLevel = -1;

  00009	83 8e 84 01 00
	00 ff		 or	 DWORD PTR [esi+388], -1
  00010	33 c0		 xor	 eax, eax
  00012	89 86 60 01 00
	00		 mov	 DWORD PTR [esi+352], eax
  00018	89 86 64 01 00
	00		 mov	 DWORD PTR [esi+356], eax
  0001e	89 86 68 01 00
	00		 mov	 DWORD PTR [esi+360], eax
  00024	89 86 6c 01 00
	00		 mov	 DWORD PTR [esi+364], eax
  0002a	89 86 70 01 00
	00		 mov	 DWORD PTR [esi+368], eax
  00030	89 86 8c 01 00
	00		 mov	 DWORD PTR [esi+396], eax
  00036	89 86 74 01 00
	00		 mov	 DWORD PTR [esi+372], eax
  0003c	89 86 78 01 00
	00		 mov	 DWORD PTR [esi+376], eax
  00042	89 86 7c 01 00
	00		 mov	 DWORD PTR [esi+380], eax
  00048	89 86 80 01 00
	00		 mov	 DWORD PTR [esi+384], eax

; 424  : 
; 425  : 	m_bMileage = false;

  0004e	88 86 90 01 00
	00		 mov	 BYTE PTR [esi+400], al
  00054	c7 06 00 00 00
	00		 mov	 DWORD PTR [esi], OFFSET ??_7LobbyWnd@@6B@
  0005a	c7 86 88 01 00
	00 01 00 00 00	 mov	 DWORD PTR [esi+392], 1

; 426  : }

  00064	8b c6		 mov	 eax, esi
  00066	5e		 pop	 esi
  00067	c3		 ret	 0
??0LobbyWnd@@QAE@XZ ENDP				; LobbyWnd::LobbyWnd
_TEXT	ENDS
PUBLIC	??1LobbyWnd@@UAE@XZ				; LobbyWnd::~LobbyWnd
EXTRN	__imp_??1ioWnd@@UAE@XZ:PROC
;	COMDAT xdata$x
xdata$x	SEGMENT
__unwindtable$??1LobbyWnd@@UAE@XZ DD 0ffffffffH
	DD	FLAT:__unwindfunclet$??1LobbyWnd@@UAE@XZ$0
__ehfuncinfo$??1LobbyWnd@@UAE@XZ DD 019930522H
	DD	01H
	DD	FLAT:__unwindtable$??1LobbyWnd@@UAE@XZ
	DD	2 DUP(00H)
	DD	2 DUP(00H)
	DD	00H
	DD	01H
; Function compile flags: /Ogsp
xdata$x	ENDS
;	COMDAT ??1LobbyWnd@@UAE@XZ
_TEXT	SEGMENT
_this$ = -16						; size = 4
__$EHRec$ = -12						; size = 12
??1LobbyWnd@@UAE@XZ PROC				; LobbyWnd::~LobbyWnd, COMDAT
; _this$ = ecx

; 429  : {

  00000	6a 04		 push	 4
  00002	b8 00 00 00 00	 mov	 eax, __ehhandler$??1LobbyWnd@@UAE@XZ
  00007	e8 00 00 00 00	 call	 __EH_prolog3
  0000c	8b f1		 mov	 esi, ecx
  0000e	89 75 f0	 mov	 DWORD PTR _this$[ebp], esi
  00011	c7 06 00 00 00
	00		 mov	 DWORD PTR [esi], OFFSET ??_7LobbyWnd@@6B@

; 430  : 	SAFEDELETE( m_pCustomTitle );

  00017	8b 8e 60 01 00
	00		 mov	 ecx, DWORD PTR [esi+352]
  0001d	33 db		 xor	 ebx, ebx
  0001f	89 5d fc	 mov	 DWORD PTR __$EHRec$[ebp+8], ebx
  00022	3b cb		 cmp	 ecx, ebx
  00024	74 0d		 je	 SHORT $LN9@LobbyWnd
  00026	8b 01		 mov	 eax, DWORD PTR [ecx]
  00028	6a 01		 push	 1
  0002a	ff 50 40	 call	 DWORD PTR [eax+64]
  0002d	89 9e 60 01 00
	00		 mov	 DWORD PTR [esi+352], ebx
$LN9@LobbyWnd:

; 431  : 	SAFEDELETE( m_pTabBack1 );

  00033	8b 8e 64 01 00
	00		 mov	 ecx, DWORD PTR [esi+356]
  00039	3b cb		 cmp	 ecx, ebx
  0003b	74 0d		 je	 SHORT $LN8@LobbyWnd
  0003d	8b 01		 mov	 eax, DWORD PTR [ecx]
  0003f	6a 01		 push	 1
  00041	ff 50 40	 call	 DWORD PTR [eax+64]
  00044	89 9e 64 01 00
	00		 mov	 DWORD PTR [esi+356], ebx
$LN8@LobbyWnd:

; 432  : 	SAFEDELETE( m_pTabBack2 );

  0004a	8b 8e 68 01 00
	00		 mov	 ecx, DWORD PTR [esi+360]
  00050	3b cb		 cmp	 ecx, ebx
  00052	74 0d		 je	 SHORT $LN7@LobbyWnd
  00054	8b 01		 mov	 eax, DWORD PTR [ecx]
  00056	6a 01		 push	 1
  00058	ff 50 40	 call	 DWORD PTR [eax+64]
  0005b	89 9e 68 01 00
	00		 mov	 DWORD PTR [esi+360], ebx
$LN7@LobbyWnd:

; 433  : 	SAFEDELETE( m_pTabBack3 );

  00061	8b 8e 6c 01 00
	00		 mov	 ecx, DWORD PTR [esi+364]
  00067	3b cb		 cmp	 ecx, ebx
  00069	74 0d		 je	 SHORT $LN6@LobbyWnd
  0006b	8b 01		 mov	 eax, DWORD PTR [ecx]
  0006d	6a 01		 push	 1
  0006f	ff 50 40	 call	 DWORD PTR [eax+64]
  00072	89 9e 6c 01 00
	00		 mov	 DWORD PTR [esi+364], ebx
$LN6@LobbyWnd:

; 434  : 	SAFEDELETE( m_pTabBack4 );

  00078	8b 8e 70 01 00
	00		 mov	 ecx, DWORD PTR [esi+368]
  0007e	3b cb		 cmp	 ecx, ebx
  00080	74 0d		 je	 SHORT $LN5@LobbyWnd
  00082	8b 01		 mov	 eax, DWORD PTR [ecx]
  00084	6a 01		 push	 1
  00086	ff 50 40	 call	 DWORD PTR [eax+64]
  00089	89 9e 70 01 00
	00		 mov	 DWORD PTR [esi+368], ebx
$LN5@LobbyWnd:

; 435  : 	SAFEDELETE( m_pMajorMark );

  0008f	8b 8e 74 01 00
	00		 mov	 ecx, DWORD PTR [esi+372]
  00095	3b cb		 cmp	 ecx, ebx
  00097	74 0d		 je	 SHORT $LN4@LobbyWnd
  00099	8b 01		 mov	 eax, DWORD PTR [ecx]
  0009b	6a 01		 push	 1
  0009d	ff 50 40	 call	 DWORD PTR [eax+64]
  000a0	89 9e 74 01 00
	00		 mov	 DWORD PTR [esi+372], ebx
$LN4@LobbyWnd:

; 436  : 	SAFEDELETE( m_pMinorGrade );

  000a6	8b 8e 78 01 00
	00		 mov	 ecx, DWORD PTR [esi+376]
  000ac	3b cb		 cmp	 ecx, ebx
  000ae	74 0d		 je	 SHORT $LN3@LobbyWnd
  000b0	8b 01		 mov	 eax, DWORD PTR [ecx]
  000b2	6a 01		 push	 1
  000b4	ff 50 40	 call	 DWORD PTR [eax+64]
  000b7	89 9e 78 01 00
	00		 mov	 DWORD PTR [esi+376], ebx
$LN3@LobbyWnd:

; 437  : 	SAFEDELETE( m_pGaugeBack );

  000bd	8b 8e 7c 01 00
	00		 mov	 ecx, DWORD PTR [esi+380]
  000c3	3b cb		 cmp	 ecx, ebx
  000c5	74 0d		 je	 SHORT $LN2@LobbyWnd
  000c7	8b 01		 mov	 eax, DWORD PTR [ecx]
  000c9	6a 01		 push	 1
  000cb	ff 50 40	 call	 DWORD PTR [eax+64]
  000ce	89 9e 7c 01 00
	00		 mov	 DWORD PTR [esi+380], ebx
$LN2@LobbyWnd:

; 438  : 	SAFEDELETE( m_pGauge );

  000d4	8b 8e 80 01 00
	00		 mov	 ecx, DWORD PTR [esi+384]
  000da	3b cb		 cmp	 ecx, ebx
  000dc	74 0d		 je	 SHORT $LN1@LobbyWnd
  000de	8b 01		 mov	 eax, DWORD PTR [ecx]
  000e0	6a 01		 push	 1
  000e2	ff 50 40	 call	 DWORD PTR [eax+64]
  000e5	89 9e 80 01 00
	00		 mov	 DWORD PTR [esi+384], ebx
$LN1@LobbyWnd:

; 439  : }

  000eb	83 4d fc ff	 or	 DWORD PTR __$EHRec$[ebp+8], -1
  000ef	8b ce		 mov	 ecx, esi
  000f1	ff 15 00 00 00
	00		 call	 DWORD PTR __imp_??1ioWnd@@UAE@XZ
  000f7	e8 00 00 00 00	 call	 __EH_epilog3
  000fc	c3		 ret	 0
_TEXT	ENDS
;	COMDAT text$x
text$x	SEGMENT
__unwindfunclet$??1LobbyWnd@@UAE@XZ$0:
  00000	8b 4d f0	 mov	 ecx, DWORD PTR _this$[ebp]
  00003	ff 25 00 00 00
	00		 jmp	 DWORD PTR __imp_??1ioWnd@@UAE@XZ
__ehhandler$??1LobbyWnd@@UAE@XZ:
  00009	8b 54 24 08	 mov	 edx, DWORD PTR [esp+8]
  0000d	8d 42 0c	 lea	 eax, DWORD PTR [edx+12]
  00010	8b 4a ec	 mov	 ecx, DWORD PTR [edx-20]
  00013	33 c8		 xor	 ecx, eax
  00015	e8 00 00 00 00	 call	 @__security_check_cookie@4
  0001a	b8 00 00 00 00	 mov	 eax, OFFSET __ehfuncinfo$??1LobbyWnd@@UAE@XZ
  0001f	e9 00 00 00 00	 jmp	 ___CxxFrameHandler3
text$x	ENDS
??1LobbyWnd@@UAE@XZ ENDP				; LobbyWnd::~LobbyWnd
PUBLIC	??_C@_0BK@GELFMGMP@XML?1tournamentmainwnd?4xml?$AA@ ; `string'
PUBLIC	??_C@_0BF@LKPPHECA@XML?1trademainwnd?4xml?$AA@	; `string'
PUBLIC	??_C@_0BE@LMGAIKKD@XML?1heromainwnd?4xml?$AA@	; `string'
PUBLIC	??_C@_0BF@EKMGOMEE@XML?1plazalistwnd?4xml?$AA@	; `string'
PUBLIC	??_C@_0BE@MPJGDPAI@XML?1campmainwnd?4xml?$AA@	; `string'
PUBLIC	??_C@_0BK@NFJAMPAN@XML?1partycataloguewnd?4xml?$AA@ ; `string'
EXTRN	?GetLocal@ioLocalManager@@QAEPAVioLocalParent@@W4LocalType@ioLocalManagerParent@@@Z:PROC ; ioLocalManager::GetLocal
EXTRN	?GetSingleton@ioLocalManager@@SAAAV1@XZ:PROC	; ioLocalManager::GetSingleton
EXTRN	__imp_?GetLocalType@ioLocalManagerParent@@SA?AW4LocalType@1@XZ:PROC
EXTRN	__imp_?AddWnd@ioGUIManager@@QAEPAVioWnd@@PBDPAV2@@Z:PROC
EXTRN	?GetSingleton@ioSP2GUIManager@@SAAAV1@XZ:PROC	; ioSP2GUIManager::GetSingleton
;	COMDAT ??_C@_0BK@GELFMGMP@XML?1tournamentmainwnd?4xml?$AA@
CONST	SEGMENT
??_C@_0BK@GELFMGMP@XML?1tournamentmainwnd?4xml?$AA@ DB 'XML/tournamentmai'
	DB	'nwnd.xml', 00H				; `string'
CONST	ENDS
;	COMDAT ??_C@_0BF@LKPPHECA@XML?1trademainwnd?4xml?$AA@
CONST	SEGMENT
??_C@_0BF@LKPPHECA@XML?1trademainwnd?4xml?$AA@ DB 'XML/trademainwnd.xml', 00H ; `string'
CONST	ENDS
;	COMDAT ??_C@_0BE@LMGAIKKD@XML?1heromainwnd?4xml?$AA@
CONST	SEGMENT
??_C@_0BE@LMGAIKKD@XML?1heromainwnd?4xml?$AA@ DB 'XML/heromainwnd.xml', 00H ; `string'
CONST	ENDS
;	COMDAT ??_C@_0BF@EKMGOMEE@XML?1plazalistwnd?4xml?$AA@
CONST	SEGMENT
??_C@_0BF@EKMGOMEE@XML?1plazalistwnd?4xml?$AA@ DB 'XML/plazalistwnd.xml', 00H ; `string'
CONST	ENDS
;	COMDAT ??_C@_0BE@MPJGDPAI@XML?1campmainwnd?4xml?$AA@
CONST	SEGMENT
??_C@_0BE@MPJGDPAI@XML?1campmainwnd?4xml?$AA@ DB 'XML/campmainwnd.xml', 00H ; `string'
CONST	ENDS
;	COMDAT ??_C@_0BK@NFJAMPAN@XML?1partycataloguewnd?4xml?$AA@
CONST	SEGMENT
??_C@_0BK@NFJAMPAN@XML?1partycataloguewnd?4xml?$AA@ DB 'XML/partycatalogu'
	DB	'ewnd.xml', 00H				; `string'
; Function compile flags: /Ogsp
CONST	ENDS
;	COMDAT ?iwm_create@LobbyWnd@@UAEXXZ
_TEXT	SEGMENT
?iwm_create@LobbyWnd@@UAEXXZ PROC			; LobbyWnd::iwm_create, COMDAT
; _this$ = ecx

; 498  : {

  00000	56		 push	 esi
  00001	57		 push	 edi
  00002	8b f9		 mov	 edi, ecx

; 499  : 	g_GUIMgr.AddWnd( "XML/partycataloguewnd.xml", this );

  00004	57		 push	 edi
  00005	68 00 00 00 00	 push	 OFFSET ??_C@_0BK@NFJAMPAN@XML?1partycataloguewnd?4xml?$AA@
  0000a	e8 00 00 00 00	 call	 ?GetSingleton@ioSP2GUIManager@@SAAAV1@XZ ; ioSP2GUIManager::GetSingleton
  0000f	8b 35 00 00 00
	00		 mov	 esi, DWORD PTR __imp_?AddWnd@ioGUIManager@@QAEPAVioWnd@@PBDPAV2@@Z
  00015	8b c8		 mov	 ecx, eax
  00017	ff d6		 call	 esi

; 500  : 	g_GUIMgr.AddWnd( "XML/campmainwnd.xml", this );

  00019	57		 push	 edi
  0001a	68 00 00 00 00	 push	 OFFSET ??_C@_0BE@MPJGDPAI@XML?1campmainwnd?4xml?$AA@
  0001f	e8 00 00 00 00	 call	 ?GetSingleton@ioSP2GUIManager@@SAAAV1@XZ ; ioSP2GUIManager::GetSingleton
  00024	8b c8		 mov	 ecx, eax
  00026	ff d6		 call	 esi

; 501  : 	g_GUIMgr.AddWnd( "XML/plazalistwnd.xml", this );

  00028	57		 push	 edi
  00029	68 00 00 00 00	 push	 OFFSET ??_C@_0BF@EKMGOMEE@XML?1plazalistwnd?4xml?$AA@
  0002e	e8 00 00 00 00	 call	 ?GetSingleton@ioSP2GUIManager@@SAAAV1@XZ ; ioSP2GUIManager::GetSingleton
  00033	8b c8		 mov	 ecx, eax
  00035	ff d6		 call	 esi

; 502  : 
; 503  : 	g_GUIMgr.AddWnd( "XML/heromainwnd.xml", this );

  00037	57		 push	 edi
  00038	68 00 00 00 00	 push	 OFFSET ??_C@_0BE@LMGAIKKD@XML?1heromainwnd?4xml?$AA@
  0003d	e8 00 00 00 00	 call	 ?GetSingleton@ioSP2GUIManager@@SAAAV1@XZ ; ioSP2GUIManager::GetSingleton
  00042	8b c8		 mov	 ecx, eax
  00044	ff d6		 call	 esi

; 504  : 	g_GUIMgr.AddWnd( "XML/trademainwnd.xml", this );

  00046	57		 push	 edi
  00047	68 00 00 00 00	 push	 OFFSET ??_C@_0BF@LKPPHECA@XML?1trademainwnd?4xml?$AA@
  0004c	e8 00 00 00 00	 call	 ?GetSingleton@ioSP2GUIManager@@SAAAV1@XZ ; ioSP2GUIManager::GetSingleton
  00051	8b c8		 mov	 ecx, eax
  00053	ff d6		 call	 esi

; 505  : 	g_GUIMgr.AddWnd( "XML/tournamentmainwnd.xml", this );

  00055	57		 push	 edi
  00056	68 00 00 00 00	 push	 OFFSET ??_C@_0BK@GELFMGMP@XML?1tournamentmainwnd?4xml?$AA@
  0005b	e8 00 00 00 00	 call	 ?GetSingleton@ioSP2GUIManager@@SAAAV1@XZ ; ioSP2GUIManager::GetSingleton
  00060	8b c8		 mov	 ecx, eax
  00062	ff d6		 call	 esi

; 506  : 
; 507  : 	ioLocalParent *pLocal = g_LocalMgr.GetLocal( ioLocalManager::GetLocalType() );

  00064	ff 15 00 00 00
	00		 call	 DWORD PTR __imp_?GetLocalType@ioLocalManagerParent@@SA?AW4LocalType@1@XZ
  0006a	50		 push	 eax
  0006b	e8 00 00 00 00	 call	 ?GetSingleton@ioLocalManager@@SAAAV1@XZ ; ioLocalManager::GetSingleton
  00070	8b c8		 mov	 ecx, eax
  00072	e8 00 00 00 00	 call	 ?GetLocal@ioLocalManager@@QAEPAVioLocalParent@@W4LocalType@ioLocalManagerParent@@@Z ; ioLocalManager::GetLocal

; 508  : 	if( !pLocal )

  00077	85 c0		 test	 eax, eax
  00079	74 10		 je	 SHORT $LN2@iwm_create

; 509  : 		return;
; 510  : 	m_bMileage = pLocal->IsMileage();

  0007b	8b 10		 mov	 edx, DWORD PTR [eax]
  0007d	8b c8		 mov	 ecx, eax
  0007f	ff 92 b4 00 00
	00		 call	 DWORD PTR [edx+180]
  00085	88 87 90 01 00
	00		 mov	 BYTE PTR [edi+400], al
$LN2@iwm_create:

; 511  : }

  0008b	5f		 pop	 edi
  0008c	5e		 pop	 esi
  0008d	c3		 ret	 0
?iwm_create@LobbyWnd@@UAEXXZ ENDP			; LobbyWnd::iwm_create
; Function compile flags: /Ogsp
_TEXT	ENDS
;	COMDAT ?iwm_hide@LobbyWnd@@UAEXXZ
_TEXT	SEGMENT
?iwm_hide@LobbyWnd@@UAEXXZ PROC				; LobbyWnd::iwm_hide, COMDAT
; _this$ = ecx

; 524  : 
; 525  : }

  00000	c3		 ret	 0
?iwm_hide@LobbyWnd@@UAEXXZ ENDP				; LobbyWnd::iwm_hide
_TEXT	ENDS
PUBLIC	?UpdateHomeButton@LobbyWnd@@IAEXXZ		; LobbyWnd::UpdateHomeButton
EXTRN	__imp_?SetChildWndStyleRemove@ioWnd@@QAEXKK@Z:PROC
EXTRN	?IsHouseOpen@ioMyInfo@@QAE_NXZ:PROC		; ioMyInfo::IsHouseOpen
EXTRN	?GetSingleton@ioMyInfo@@SAAAV1@XZ:PROC		; ioMyInfo::GetSingleton
EXTRN	__imp_?SetChildWndStyleAdd@ioWnd@@QAEXKK@Z:PROC
; Function compile flags: /Ogsp
;	COMDAT ?UpdateHomeButton@LobbyWnd@@IAEXXZ
_TEXT	SEGMENT
?UpdateHomeButton@LobbyWnd@@IAEXXZ PROC			; LobbyWnd::UpdateHomeButton, COMDAT
; _this$ = ecx

; 539  : {

  00000	56		 push	 esi
  00001	57		 push	 edi

; 540  : 	SetChildWndStyleAdd( ID_MY_HOME_BTN, IWS_EXACTIVE );

  00002	be 00 10 00 00	 mov	 esi, 4096		; 00001000H
  00007	56		 push	 esi
  00008	6a 09		 push	 9
  0000a	8b f9		 mov	 edi, ecx
  0000c	ff 15 00 00 00
	00		 call	 DWORD PTR __imp_?SetChildWndStyleAdd@ioWnd@@QAEXKK@Z

; 541  : 
; 542  : 	if( g_MyInfo.IsHouseOpen() )

  00012	e8 00 00 00 00	 call	 ?GetSingleton@ioMyInfo@@SAAAV1@XZ ; ioMyInfo::GetSingleton
  00017	8b c8		 mov	 ecx, eax
  00019	e8 00 00 00 00	 call	 ?IsHouseOpen@ioMyInfo@@QAE_NXZ ; ioMyInfo::IsHouseOpen
  0001e	84 c0		 test	 al, al
  00020	74 0b		 je	 SHORT $LN1@UpdateHome

; 543  : 		SetChildWndStyleRemove( ID_MY_HOME_BTN, IWS_EXACTIVE );

  00022	56		 push	 esi
  00023	6a 09		 push	 9
  00025	8b cf		 mov	 ecx, edi
  00027	ff 15 00 00 00
	00		 call	 DWORD PTR __imp_?SetChildWndStyleRemove@ioWnd@@QAEXKK@Z
$LN1@UpdateHome:

; 544  : }

  0002d	5f		 pop	 edi
  0002e	5e		 pop	 esi
  0002f	c3		 ret	 0
?UpdateHomeButton@LobbyWnd@@IAEXXZ ENDP			; LobbyWnd::UpdateHomeButton
_TEXT	ENDS
PUBLIC	??_C@_0CE@NNBEKDBF@LobbyWnd?3?3OnCreateGuildHeadquart@ ; `string'
PUBLIC	??_C@_00CNPNBAHC@?$AA@				; `string'
PUBLIC	__$ArrayPad$
PUBLIC	?OnCreateGuildHeadquarters@LobbyWnd@@IAEXXZ	; LobbyWnd::OnCreateGuildHeadquarters
EXTRN	??1SP2Packet@@UAE@XZ:PROC			; SP2Packet::~SP2Packet
EXTRN	?MouseBusy@TCPNetwork@@YAX_N@Z:PROC		; TCPNetwork::MouseBusy
EXTRN	?SendToServer@TCPNetwork@@YAXAAVSP2Packet@@@Z:PROC ; TCPNetwork::SendToServer
EXTRN	??6SP2Packet@@QAEAAV0@H@Z:PROC			; SP2Packet::operator<<
EXTRN	??0SP2Packet@@QAE@K@Z:PROC			; SP2Packet::SP2Packet
EXTRN	?IsShuffleRoom@ioShuffleRoomMgr@@QAE_NXZ:PROC	; ioShuffleRoomMgr::IsShuffleRoom
EXTRN	?GetSingleton@ioShuffleRoomMgr@@SAAAV1@XZ:PROC	; ioShuffleRoomMgr::GetSingleton
EXTRN	?IsLadderTeam@ioLadderTeamMgr@@QAE_NXZ:PROC	; ioLadderTeamMgr::IsLadderTeam
EXTRN	?GetSingleton@ioLadderTeamMgr@@SAAAV1@XZ:PROC	; ioLadderTeamMgr::GetSingleton
EXTRN	?SetMsgBox@ioSP2GUIManager@@QAAXHPAVioWnd@@PBDZZ:PROC ; ioSP2GUIManager::SetMsgBox
EXTRN	__imp_?GetString@ioStringManager@@QAEPADPBD0HW4FileNamePrefix@1@@Z:PROC
EXTRN	__imp_?GetSingleton@ioStringManager@@SAAAV1@XZ:PROC
EXTRN	?IsBattleRoom@ioBattleRoomMgr@@QAE_NXZ:PROC	; ioBattleRoomMgr::IsBattleRoom
EXTRN	?GetSingleton@ioBattleRoomMgr@@SAAAV1@XZ:PROC	; ioBattleRoomMgr::GetSingleton
EXTRN	?IsMouseBusy@ioApplication@@QAE_NXZ:PROC	; ioApplication::IsMouseBusy
EXTRN	?GetSingleton@ioApplication@@SAAAV1@XZ:PROC	; ioApplication::GetSingleton
EXTRN	___security_cookie:DWORD
EXTRN	__chkstk:PROC
;	COMDAT ??_C@_0CE@NNBEKDBF@LobbyWnd?3?3OnCreateGuildHeadquart@
CONST	SEGMENT
??_C@_0CE@NNBEKDBF@LobbyWnd?3?3OnCreateGuildHeadquart@ DB 'LobbyWnd::OnCr'
	DB	'eateGuildHeadquarters', 00H			; `string'
CONST	ENDS
;	COMDAT ??_C@_00CNPNBAHC@?$AA@
CONST	SEGMENT
??_C@_00CNPNBAHC@?$AA@ DB 00H				; `string'
CONST	ENDS
;	COMDAT xdata$x
xdata$x	SEGMENT
__unwindtable$?OnCreateGuildHeadquarters@LobbyWnd@@IAEXXZ DD 0ffffffffH
	DD	FLAT:__unwindfunclet$?OnCreateGuildHeadquarters@LobbyWnd@@IAEXXZ$0
__ehfuncinfo$?OnCreateGuildHeadquarters@LobbyWnd@@IAEXXZ DD 019930522H
	DD	01H
	DD	FLAT:__unwindtable$?OnCreateGuildHeadquarters@LobbyWnd@@IAEXXZ
	DD	2 DUP(00H)
	DD	2 DUP(00H)
	DD	00H
	DD	01H
; Function compile flags: /Ogsp
xdata$x	ENDS
;	COMDAT ?OnCreateGuildHeadquarters@LobbyWnd@@IAEXXZ
_TEXT	SEGMENT
_kPacket$ = -32808					; size = 32792
__$ArrayPad$ = -16					; size = 4
__$EHRec$ = -12						; size = 12
?OnCreateGuildHeadquarters@LobbyWnd@@IAEXXZ PROC	; LobbyWnd::OnCreateGuildHeadquarters, COMDAT
; _this$ = ecx

; 645  : {

  00000	55		 push	 ebp
  00001	8b ec		 mov	 ebp, esp
  00003	6a ff		 push	 -1
  00005	68 00 00 00 00	 push	 __ehhandler$?OnCreateGuildHeadquarters@LobbyWnd@@IAEXXZ
  0000a	64 a1 00 00 00
	00		 mov	 eax, DWORD PTR fs:0
  00010	50		 push	 eax
  00011	b8 1c 80 00 00	 mov	 eax, 32796		; 0000801cH
  00016	e8 00 00 00 00	 call	 __chkstk
  0001b	a1 00 00 00 00	 mov	 eax, DWORD PTR ___security_cookie
  00020	33 c5		 xor	 eax, ebp
  00022	89 45 f0	 mov	 DWORD PTR __$ArrayPad$[ebp], eax
  00025	56		 push	 esi
  00026	50		 push	 eax
  00027	8d 45 f4	 lea	 eax, DWORD PTR __$EHRec$[ebp]
  0002a	64 a3 00 00 00
	00		 mov	 DWORD PTR fs:0, eax

; 646  : 	if( g_App.IsMouseBusy() )

  00030	e8 00 00 00 00	 call	 ?GetSingleton@ioApplication@@SAAAV1@XZ ; ioApplication::GetSingleton
  00035	8b c8		 mov	 ecx, eax
  00037	e8 00 00 00 00	 call	 ?IsMouseBusy@ioApplication@@QAE_NXZ ; ioApplication::IsMouseBusy
  0003c	84 c0		 test	 al, al
  0003e	0f 85 b3 00 00
	00		 jne	 $LN5@OnCreateGu

; 647  : 		return;	
; 648  : 
; 649  : 	if( g_BattleRoomMgr.IsBattleRoom() )

  00044	e8 00 00 00 00	 call	 ?GetSingleton@ioBattleRoomMgr@@SAAAV1@XZ ; ioBattleRoomMgr::GetSingleton
  00049	8b c8		 mov	 ecx, eax
  0004b	e8 00 00 00 00	 call	 ?IsBattleRoom@ioBattleRoomMgr@@QAE_NXZ ; ioBattleRoomMgr::IsBattleRoom
  00050	84 c0		 test	 al, al
  00052	74 30		 je	 SHORT $LN3@OnCreateGu

; 650  : 	{
; 651  : 		g_GUIMgr.SetMsgBox( MB_OK, NULL, STR(1) );

  00054	33 f6		 xor	 esi, esi
  00056	56		 push	 esi
  00057	6a 01		 push	 1
$LN9@OnCreateGu:
  00059	68 00 00 00 00	 push	 OFFSET ??_C@_00CNPNBAHC@?$AA@
  0005e	68 00 00 00 00	 push	 OFFSET ??_C@_0CE@NNBEKDBF@LobbyWnd?3?3OnCreateGuildHeadquart@
  00063	ff 15 00 00 00
	00		 call	 DWORD PTR __imp_?GetSingleton@ioStringManager@@SAAAV1@XZ
  00069	8b c8		 mov	 ecx, eax
  0006b	ff 15 00 00 00
	00		 call	 DWORD PTR __imp_?GetString@ioStringManager@@QAEPADPBD0HW4FileNamePrefix@1@@Z
  00071	50		 push	 eax
  00072	56		 push	 esi
  00073	56		 push	 esi
  00074	e8 00 00 00 00	 call	 ?GetSingleton@ioSP2GUIManager@@SAAAV1@XZ ; ioSP2GUIManager::GetSingleton
  00079	50		 push	 eax
  0007a	e8 00 00 00 00	 call	 ?SetMsgBox@ioSP2GUIManager@@QAAXHPAVioWnd@@PBDZZ ; ioSP2GUIManager::SetMsgBox
  0007f	83 c4 10	 add	 esp, 16			; 00000010H

; 652  : 		return;

  00082	eb 73		 jmp	 SHORT $LN5@OnCreateGu
$LN3@OnCreateGu:

; 653  : 	}
; 654  : 
; 655  : 	if( g_LadderTeamMgr.IsLadderTeam() )

  00084	e8 00 00 00 00	 call	 ?GetSingleton@ioLadderTeamMgr@@SAAAV1@XZ ; ioLadderTeamMgr::GetSingleton
  00089	8b c8		 mov	 ecx, eax
  0008b	e8 00 00 00 00	 call	 ?IsLadderTeam@ioLadderTeamMgr@@QAE_NXZ ; ioLadderTeamMgr::IsLadderTeam
  00090	84 c0		 test	 al, al
  00092	74 07		 je	 SHORT $LN2@OnCreateGu

; 656  : 	{
; 657  : 		g_GUIMgr.SetMsgBox( MB_OK, NULL, STR(2) );

  00094	33 f6		 xor	 esi, esi
  00096	56		 push	 esi
  00097	6a 02		 push	 2

; 658  : 		return;

  00099	eb be		 jmp	 SHORT $LN9@OnCreateGu
$LN2@OnCreateGu:

; 659  : 	}
; 660  : 
; 661  : 	if( g_ShuffleRoomMgr.IsShuffleRoom() )

  0009b	e8 00 00 00 00	 call	 ?GetSingleton@ioShuffleRoomMgr@@SAAAV1@XZ ; ioShuffleRoomMgr::GetSingleton
  000a0	8b c8		 mov	 ecx, eax
  000a2	e8 00 00 00 00	 call	 ?IsShuffleRoom@ioShuffleRoomMgr@@QAE_NXZ ; ioShuffleRoomMgr::IsShuffleRoom
  000a7	84 c0		 test	 al, al
  000a9	74 07		 je	 SHORT $LN1@OnCreateGu

; 662  : 	{
; 663  : 		g_GUIMgr.SetMsgBox( MB_OK, NULL, STR(3) );

  000ab	33 f6		 xor	 esi, esi
  000ad	56		 push	 esi
  000ae	6a 03		 push	 3

; 664  : 		return;

  000b0	eb a7		 jmp	 SHORT $LN9@OnCreateGu
$LN1@OnCreateGu:

; 665  : 	}
; 666  : 
; 667  : 	SP2Packet kPacket( CTPK_ENTER_GUILD_ROOM );

  000b2	68 51 03 00 00	 push	 849			; 00000351H
  000b7	8d 8d d8 7f ff
	ff		 lea	 ecx, DWORD PTR _kPacket$[ebp]
  000bd	e8 00 00 00 00	 call	 ??0SP2Packet@@QAE@K@Z	; SP2Packet::SP2Packet
  000c2	83 65 fc 00	 and	 DWORD PTR __$EHRec$[ebp+8], 0

; 668  : #if defined( SRC_ID ) || defined( SRC_SEA )
; 669  : 	kPacket << 17;
; 670  : #else
; 671  : 	kPacket << 16;

  000c6	6a 10		 push	 16			; 00000010H
  000c8	8d 8d d8 7f ff
	ff		 lea	 ecx, DWORD PTR _kPacket$[ebp]
  000ce	e8 00 00 00 00	 call	 ??6SP2Packet@@QAEAAV0@H@Z ; SP2Packet::operator<<

; 672  : #endif
; 673  : 	TCPNetwork::SendToServer( kPacket );

  000d3	8d 85 d8 7f ff
	ff		 lea	 eax, DWORD PTR _kPacket$[ebp]
  000d9	50		 push	 eax
  000da	e8 00 00 00 00	 call	 ?SendToServer@TCPNetwork@@YAXAAVSP2Packet@@@Z ; TCPNetwork::SendToServer

; 674  : 	TCPNetwork::MouseBusy( true );

  000df	6a 01		 push	 1
  000e1	e8 00 00 00 00	 call	 ?MouseBusy@TCPNetwork@@YAX_N@Z ; TCPNetwork::MouseBusy

; 675  : }

  000e6	83 4d fc ff	 or	 DWORD PTR __$EHRec$[ebp+8], -1
  000ea	59		 pop	 ecx
  000eb	59		 pop	 ecx
  000ec	8d 8d d8 7f ff
	ff		 lea	 ecx, DWORD PTR _kPacket$[ebp]
  000f2	e8 00 00 00 00	 call	 ??1SP2Packet@@UAE@XZ	; SP2Packet::~SP2Packet
$LN5@OnCreateGu:
  000f7	8b 4d f4	 mov	 ecx, DWORD PTR __$EHRec$[ebp]
  000fa	64 89 0d 00 00
	00 00		 mov	 DWORD PTR fs:0, ecx
  00101	59		 pop	 ecx
  00102	5e		 pop	 esi
  00103	8b 4d f0	 mov	 ecx, DWORD PTR __$ArrayPad$[ebp]
  00106	33 cd		 xor	 ecx, ebp
  00108	e8 00 00 00 00	 call	 @__security_check_cookie@4
  0010d	c9		 leave
  0010e	c3		 ret	 0
_TEXT	ENDS
;	COMDAT text$x
text$x	SEGMENT
__unwindfunclet$?OnCreateGuildHeadquarters@LobbyWnd@@IAEXXZ$0:
  00000	8d 8d d8 7f ff
	ff		 lea	 ecx, DWORD PTR _kPacket$[ebp]
  00006	e9 00 00 00 00	 jmp	 ??1SP2Packet@@UAE@XZ	; SP2Packet::~SP2Packet
__ehhandler$?OnCreateGuildHeadquarters@LobbyWnd@@IAEXXZ:
  0000b	8b 54 24 08	 mov	 edx, DWORD PTR [esp+8]
  0000f	8d 42 0c	 lea	 eax, DWORD PTR [edx+12]
  00012	8b 8a dc 7f ff
	ff		 mov	 ecx, DWORD PTR [edx-32804]
  00018	33 c8		 xor	 ecx, eax
  0001a	e8 00 00 00 00	 call	 @__security_check_cookie@4
  0001f	8b 4a fc	 mov	 ecx, DWORD PTR [edx-4]
  00022	33 c8		 xor	 ecx, eax
  00024	e8 00 00 00 00	 call	 @__security_check_cookie@4
  00029	b8 00 00 00 00	 mov	 eax, OFFSET __ehfuncinfo$?OnCreateGuildHeadquarters@LobbyWnd@@IAEXXZ
  0002e	e9 00 00 00 00	 jmp	 ___CxxFrameHandler3
text$x	ENDS
?OnCreateGuildHeadquarters@LobbyWnd@@IAEXXZ ENDP	; LobbyWnd::OnCreateGuildHeadquarters
PUBLIC	??_R0?AVPartyCatalogueWnd@@@8			; PartyCatalogueWnd `RTTI Type Descriptor'
PUBLIC	?ApplyNormalTeamList@LobbyWnd@@QAEXAAVSP2Packet@@@Z ; LobbyWnd::ApplyNormalTeamList
EXTRN	?SetPartyList@PartyCatalogueWnd@@QAEXAAVSP2Packet@@@Z:PROC ; PartyCatalogueWnd::SetPartyList
EXTRN	__imp_?IsShow@ioWnd@@QBE_NXZ:PROC
EXTRN	__imp_?FindChildWnd@ioWnd@@QAEPAV1@K@Z:PROC
EXTRN	___RTDynamicCast:PROC
;	COMDAT ??_R0?AVPartyCatalogueWnd@@@8
_DATA	SEGMENT
??_R0?AVPartyCatalogueWnd@@@8 DD FLAT:??_7type_info@@6B@ ; PartyCatalogueWnd `RTTI Type Descriptor'
	DD	00H
	DB	'.?AVPartyCatalogueWnd@@', 00H
; Function compile flags: /Ogsp
_DATA	ENDS
;	COMDAT ?ApplyNormalTeamList@LobbyWnd@@QAEXAAVSP2Packet@@@Z
_TEXT	SEGMENT
_rkPacket$ = 8						; size = 4
?ApplyNormalTeamList@LobbyWnd@@QAEXAAVSP2Packet@@@Z PROC ; LobbyWnd::ApplyNormalTeamList, COMDAT
; _this$ = ecx

; 1012 : {

  00000	55		 push	 ebp
  00001	8b ec		 mov	 ebp, esp

; 1013 : 	if( m_dwTabID != ID_BATTLE_BTN ) return;

  00003	83 b9 88 01 00
	00 01		 cmp	 DWORD PTR [ecx+392], 1
  0000a	75 3d		 jne	 SHORT $LN1@ApplyNorma

; 1014 : 
; 1015 : 	PartyCatalogueWnd *pCatalogueWnd = dynamic_cast<PartyCatalogueWnd*>(FindChildWnd( ID_BATTLE_WND ));

  0000c	56		 push	 esi
  0000d	6a 00		 push	 0
  0000f	68 00 00 00 00	 push	 OFFSET ??_R0?AVPartyCatalogueWnd@@@8
  00014	68 00 00 00 00	 push	 OFFSET ??_R0?AVioWnd@@@8
  00019	6a 00		 push	 0
  0001b	6a 0a		 push	 10			; 0000000aH
  0001d	ff 15 00 00 00
	00		 call	 DWORD PTR __imp_?FindChildWnd@ioWnd@@QAEPAV1@K@Z
  00023	50		 push	 eax
  00024	e8 00 00 00 00	 call	 ___RTDynamicCast
  00029	8b f0		 mov	 esi, eax
  0002b	83 c4 14	 add	 esp, 20			; 00000014H

; 1016 : 	if( !pCatalogueWnd || !pCatalogueWnd->IsShow() )

  0002e	85 f6		 test	 esi, esi
  00030	74 16		 je	 SHORT $LN6@ApplyNorma
  00032	8b ce		 mov	 ecx, esi
  00034	ff 15 00 00 00
	00		 call	 DWORD PTR __imp_?IsShow@ioWnd@@QBE_NXZ
  0003a	84 c0		 test	 al, al
  0003c	74 0a		 je	 SHORT $LN6@ApplyNorma

; 1017 : 		return;
; 1018 : 
; 1019 : 	pCatalogueWnd->SetPartyList( rkPacket );

  0003e	ff 75 08	 push	 DWORD PTR _rkPacket$[ebp]
  00041	8b ce		 mov	 ecx, esi
  00043	e8 00 00 00 00	 call	 ?SetPartyList@PartyCatalogueWnd@@QAEXAAVSP2Packet@@@Z ; PartyCatalogueWnd::SetPartyList
$LN6@ApplyNorma:
  00048	5e		 pop	 esi
$LN1@ApplyNorma:

; 1020 : }

  00049	5d		 pop	 ebp
  0004a	c2 04 00	 ret	 4
?ApplyNormalTeamList@LobbyWnd@@QAEXAAVSP2Packet@@@Z ENDP ; LobbyWnd::ApplyNormalTeamList
_TEXT	ENDS
PUBLIC	??_R0?AVPlazaListWnd@@@8			; PlazaListWnd `RTTI Type Descriptor'
PUBLIC	?ApplyPlazaList@LobbyWnd@@QAEXAAVSP2Packet@@@Z	; LobbyWnd::ApplyPlazaList
EXTRN	?SetPlazaList@PlazaListWnd@@QAEXAAVSP2Packet@@@Z:PROC ; PlazaListWnd::SetPlazaList
;	COMDAT ??_R0?AVPlazaListWnd@@@8
_DATA	SEGMENT
??_R0?AVPlazaListWnd@@@8 DD FLAT:??_7type_info@@6B@	; PlazaListWnd `RTTI Type Descriptor'
	DD	00H
	DB	'.?AVPlazaListWnd@@', 00H
; Function compile flags: /Ogsp
_DATA	ENDS
;	COMDAT ?ApplyPlazaList@LobbyWnd@@QAEXAAVSP2Packet@@@Z
_TEXT	SEGMENT
_rkPacket$ = 8						; size = 4
?ApplyPlazaList@LobbyWnd@@QAEXAAVSP2Packet@@@Z PROC	; LobbyWnd::ApplyPlazaList, COMDAT
; _this$ = ecx

; 1023 : {

  00000	55		 push	 ebp
  00001	8b ec		 mov	 ebp, esp

; 1024 : 	if( m_dwTabID != ID_PLAZA_BTN ) return;

  00003	83 b9 88 01 00
	00 04		 cmp	 DWORD PTR [ecx+392], 4
  0000a	75 3d		 jne	 SHORT $LN1@ApplyPlaza

; 1025 : 
; 1026 : 	PlazaListWnd *pPlazaListWnd = dynamic_cast<PlazaListWnd*>(FindChildWnd( ID_PLAZA_WND ));

  0000c	56		 push	 esi
  0000d	6a 00		 push	 0
  0000f	68 00 00 00 00	 push	 OFFSET ??_R0?AVPlazaListWnd@@@8
  00014	68 00 00 00 00	 push	 OFFSET ??_R0?AVioWnd@@@8
  00019	6a 00		 push	 0
  0001b	6a 0c		 push	 12			; 0000000cH
  0001d	ff 15 00 00 00
	00		 call	 DWORD PTR __imp_?FindChildWnd@ioWnd@@QAEPAV1@K@Z
  00023	50		 push	 eax
  00024	e8 00 00 00 00	 call	 ___RTDynamicCast
  00029	8b f0		 mov	 esi, eax
  0002b	83 c4 14	 add	 esp, 20			; 00000014H

; 1027 : 	if( !pPlazaListWnd || !pPlazaListWnd->IsShow() )

  0002e	85 f6		 test	 esi, esi
  00030	74 16		 je	 SHORT $LN6@ApplyPlaza
  00032	8b ce		 mov	 ecx, esi
  00034	ff 15 00 00 00
	00		 call	 DWORD PTR __imp_?IsShow@ioWnd@@QBE_NXZ
  0003a	84 c0		 test	 al, al
  0003c	74 0a		 je	 SHORT $LN6@ApplyPlaza

; 1028 : 		return;
; 1029 : 
; 1030 : 	pPlazaListWnd->SetPlazaList( rkPacket );

  0003e	ff 75 08	 push	 DWORD PTR _rkPacket$[ebp]
  00041	8b ce		 mov	 ecx, esi
  00043	e8 00 00 00 00	 call	 ?SetPlazaList@PlazaListWnd@@QAEXAAVSP2Packet@@@Z ; PlazaListWnd::SetPlazaList
$LN6@ApplyPlaza:
  00048	5e		 pop	 esi
$LN1@ApplyPlaza:

; 1031 : }

  00049	5d		 pop	 ebp
  0004a	c2 04 00	 ret	 4
?ApplyPlazaList@LobbyWnd@@QAEXAAVSP2Packet@@@Z ENDP	; LobbyWnd::ApplyPlazaList
_TEXT	ENDS
PUBLIC	??_R0?AVCampMainWnd@@@8				; CampMainWnd `RTTI Type Descriptor'
PUBLIC	?ApplyLadderTeamList@LobbyWnd@@QAEXAAVSP2Packet@@@Z ; LobbyWnd::ApplyLadderTeamList
EXTRN	?SetLadderTeamList@CampMainWnd@@QAEXAAVSP2Packet@@@Z:PROC ; CampMainWnd::SetLadderTeamList
;	COMDAT ??_R0?AVCampMainWnd@@@8
_DATA	SEGMENT
??_R0?AVCampMainWnd@@@8 DD FLAT:??_7type_info@@6B@	; CampMainWnd `RTTI Type Descriptor'
	DD	00H
	DB	'.?AVCampMainWnd@@', 00H
; Function compile flags: /Ogsp
_DATA	ENDS
;	COMDAT ?ApplyLadderTeamList@LobbyWnd@@QAEXAAVSP2Packet@@@Z
_TEXT	SEGMENT
_rkPacket$ = 8						; size = 4
?ApplyLadderTeamList@LobbyWnd@@QAEXAAVSP2Packet@@@Z PROC ; LobbyWnd::ApplyLadderTeamList, COMDAT
; _this$ = ecx

; 1034 : {

  00000	55		 push	 ebp
  00001	8b ec		 mov	 ebp, esp

; 1035 : 	if( m_dwTabID != ID_CAMP_BTN ) return;

  00003	83 b9 88 01 00
	00 02		 cmp	 DWORD PTR [ecx+392], 2
  0000a	75 3d		 jne	 SHORT $LN1@ApplyLadde

; 1036 : 
; 1037 : 	CampMainWnd *pCampMainWnd = dynamic_cast<CampMainWnd*>(FindChildWnd( ID_CAMP_MAIN_WND ));

  0000c	56		 push	 esi
  0000d	6a 00		 push	 0
  0000f	68 00 00 00 00	 push	 OFFSET ??_R0?AVCampMainWnd@@@8
  00014	68 00 00 00 00	 push	 OFFSET ??_R0?AVioWnd@@@8
  00019	6a 00		 push	 0
  0001b	6a 0b		 push	 11			; 0000000bH
  0001d	ff 15 00 00 00
	00		 call	 DWORD PTR __imp_?FindChildWnd@ioWnd@@QAEPAV1@K@Z
  00023	50		 push	 eax
  00024	e8 00 00 00 00	 call	 ___RTDynamicCast
  00029	8b f0		 mov	 esi, eax
  0002b	83 c4 14	 add	 esp, 20			; 00000014H

; 1038 : 	if( !pCampMainWnd || !pCampMainWnd->IsShow() )

  0002e	85 f6		 test	 esi, esi
  00030	74 16		 je	 SHORT $LN6@ApplyLadde
  00032	8b ce		 mov	 ecx, esi
  00034	ff 15 00 00 00
	00		 call	 DWORD PTR __imp_?IsShow@ioWnd@@QBE_NXZ
  0003a	84 c0		 test	 al, al
  0003c	74 0a		 je	 SHORT $LN6@ApplyLadde

; 1039 : 		return;
; 1040 : 
; 1041 : 	pCampMainWnd->SetLadderTeamList( rkPacket );

  0003e	ff 75 08	 push	 DWORD PTR _rkPacket$[ebp]
  00041	8b ce		 mov	 ecx, esi
  00043	e8 00 00 00 00	 call	 ?SetLadderTeamList@CampMainWnd@@QAEXAAVSP2Packet@@@Z ; CampMainWnd::SetLadderTeamList
$LN6@ApplyLadde:
  00048	5e		 pop	 esi
$LN1@ApplyLadde:

; 1042 : }

  00049	5d		 pop	 ebp
  0004a	c2 04 00	 ret	 4
?ApplyLadderTeamList@LobbyWnd@@QAEXAAVSP2Packet@@@Z ENDP ; LobbyWnd::ApplyLadderTeamList
_TEXT	ENDS
PUBLIC	?RefreshBattleList@LobbyWnd@@QAEXK@Z		; LobbyWnd::RefreshBattleList
EXTRN	?StartSend@PartyCatalogueWnd@@QAEX_N@Z:PROC	; PartyCatalogueWnd::StartSend
EXTRN	?IsIndexToList@PartyCatalogueWnd@@QAE_NK@Z:PROC	; PartyCatalogueWnd::IsIndexToList
; Function compile flags: /Ogsp
;	COMDAT ?RefreshBattleList@LobbyWnd@@QAEXK@Z
_TEXT	SEGMENT
_dwIndex$ = 8						; size = 4
?RefreshBattleList@LobbyWnd@@QAEXK@Z PROC		; LobbyWnd::RefreshBattleList, COMDAT
; _this$ = ecx

; 1045 : {

  00000	55		 push	 ebp
  00001	8b ec		 mov	 ebp, esp
  00003	56		 push	 esi

; 1046 : 	PartyCatalogueWnd *pCatalogueWnd = dynamic_cast<PartyCatalogueWnd*>(FindChildWnd( ID_BATTLE_WND ));

  00004	6a 00		 push	 0
  00006	68 00 00 00 00	 push	 OFFSET ??_R0?AVPartyCatalogueWnd@@@8
  0000b	68 00 00 00 00	 push	 OFFSET ??_R0?AVioWnd@@@8
  00010	6a 00		 push	 0
  00012	6a 0a		 push	 10			; 0000000aH
  00014	ff 15 00 00 00
	00		 call	 DWORD PTR __imp_?FindChildWnd@ioWnd@@QAEPAV1@K@Z
  0001a	50		 push	 eax
  0001b	e8 00 00 00 00	 call	 ___RTDynamicCast
  00020	8b f0		 mov	 esi, eax
  00022	83 c4 14	 add	 esp, 20			; 00000014H

; 1047 : 	if( pCatalogueWnd && pCatalogueWnd->IsShow() )

  00025	85 f6		 test	 esi, esi
  00027	74 29		 je	 SHORT $LN2@RefreshBat
  00029	8b ce		 mov	 ecx, esi
  0002b	ff 15 00 00 00
	00		 call	 DWORD PTR __imp_?IsShow@ioWnd@@QBE_NXZ
  00031	84 c0		 test	 al, al
  00033	74 1d		 je	 SHORT $LN2@RefreshBat

; 1048 : 	{
; 1049 : 		if( dwIndex == 0 || pCatalogueWnd->IsIndexToList( dwIndex ) )

  00035	83 7d 08 00	 cmp	 DWORD PTR _dwIndex$[ebp], 0
  00039	74 0e		 je	 SHORT $LN1@RefreshBat
  0003b	ff 75 08	 push	 DWORD PTR _dwIndex$[ebp]
  0003e	8b ce		 mov	 ecx, esi
  00040	e8 00 00 00 00	 call	 ?IsIndexToList@PartyCatalogueWnd@@QAE_NK@Z ; PartyCatalogueWnd::IsIndexToList
  00045	84 c0		 test	 al, al
  00047	74 09		 je	 SHORT $LN2@RefreshBat
$LN1@RefreshBat:

; 1050 : 			pCatalogueWnd->StartSend( false );

  00049	6a 00		 push	 0
  0004b	8b ce		 mov	 ecx, esi
  0004d	e8 00 00 00 00	 call	 ?StartSend@PartyCatalogueWnd@@QAEX_N@Z ; PartyCatalogueWnd::StartSend
$LN2@RefreshBat:
  00052	5e		 pop	 esi

; 1051 : 	}
; 1052 : }

  00053	5d		 pop	 ebp
  00054	c2 04 00	 ret	 4
?RefreshBattleList@LobbyWnd@@QAEXK@Z ENDP		; LobbyWnd::RefreshBattleList
_TEXT	ENDS
PUBLIC	?QuestGuide@LobbyWnd@@QAE_NHAAM0@Z		; LobbyWnd::QuestGuide
EXTRN	?QuestGuide@PartyCatalogueWnd@@QAE_NHAAM0@Z:PROC ; PartyCatalogueWnd::QuestGuide
; Function compile flags: /Ogsp
;	COMDAT ?QuestGuide@LobbyWnd@@QAE_NHAAM0@Z
_TEXT	SEGMENT
_iModeSelectIndex$ = 8					; size = 4
_rfXPos$ = 12						; size = 4
_rfYPos$ = 16						; size = 4
?QuestGuide@LobbyWnd@@QAE_NHAAM0@Z PROC			; LobbyWnd::QuestGuide, COMDAT
; _this$ = ecx

; 1071 : {

  00000	55		 push	 ebp
  00001	8b ec		 mov	 ebp, esp
  00003	56		 push	 esi

; 1072 : 	PartyCatalogueWnd *pCatalogueWnd = dynamic_cast<PartyCatalogueWnd*>( FindChildWnd( ID_BATTLE_WND ) );

  00004	6a 00		 push	 0
  00006	68 00 00 00 00	 push	 OFFSET ??_R0?AVPartyCatalogueWnd@@@8
  0000b	68 00 00 00 00	 push	 OFFSET ??_R0?AVioWnd@@@8
  00010	6a 00		 push	 0
  00012	6a 0a		 push	 10			; 0000000aH
  00014	ff 15 00 00 00
	00		 call	 DWORD PTR __imp_?FindChildWnd@ioWnd@@QAEPAV1@K@Z
  0001a	50		 push	 eax
  0001b	e8 00 00 00 00	 call	 ___RTDynamicCast
  00020	8b f0		 mov	 esi, eax
  00022	83 c4 14	 add	 esp, 20			; 00000014H

; 1073 : 	if( pCatalogueWnd && pCatalogueWnd->IsShow() )

  00025	85 f6		 test	 esi, esi
  00027	74 1e		 je	 SHORT $LN1@QuestGuide
  00029	8b ce		 mov	 ecx, esi
  0002b	ff 15 00 00 00
	00		 call	 DWORD PTR __imp_?IsShow@ioWnd@@QBE_NXZ
  00031	84 c0		 test	 al, al
  00033	74 12		 je	 SHORT $LN1@QuestGuide

; 1074 : 	{
; 1075 : 		return pCatalogueWnd->QuestGuide( iModeSelectIndex, rfXPos, rfYPos );

  00035	ff 75 10	 push	 DWORD PTR _rfYPos$[ebp]
  00038	8b ce		 mov	 ecx, esi
  0003a	ff 75 0c	 push	 DWORD PTR _rfXPos$[ebp]
  0003d	ff 75 08	 push	 DWORD PTR _iModeSelectIndex$[ebp]
  00040	e8 00 00 00 00	 call	 ?QuestGuide@PartyCatalogueWnd@@QAE_NHAAM0@Z ; PartyCatalogueWnd::QuestGuide
  00045	eb 02		 jmp	 SHORT $LN2@QuestGuide
$LN1@QuestGuide:

; 1076 : 	}
; 1077 : 	return false;

  00047	32 c0		 xor	 al, al
$LN2@QuestGuide:
  00049	5e		 pop	 esi

; 1078 : }

  0004a	5d		 pop	 ebp
  0004b	c2 0c 00	 ret	 12			; 0000000cH
?QuestGuide@LobbyWnd@@QAE_NHAAM0@Z ENDP			; LobbyWnd::QuestGuide
_TEXT	ENDS
PUBLIC	??_R0?AVTournamentMainWnd@@@8			; TournamentMainWnd `RTTI Type Descriptor'
PUBLIC	?ApplyTournamentList@LobbyWnd@@QAEXAAVSP2Packet@@@Z ; LobbyWnd::ApplyTournamentList
EXTRN	?ApplyTournamentList@TournamentMainWnd@@QAEXAAVSP2Packet@@@Z:PROC ; TournamentMainWnd::ApplyTournamentList
;	COMDAT ??_R0?AVTournamentMainWnd@@@8
_DATA	SEGMENT
??_R0?AVTournamentMainWnd@@@8 DD FLAT:??_7type_info@@6B@ ; TournamentMainWnd `RTTI Type Descriptor'
	DD	00H
	DB	'.?AVTournamentMainWnd@@', 00H
; Function compile flags: /Ogsp
_DATA	ENDS
;	COMDAT ?ApplyTournamentList@LobbyWnd@@QAEXAAVSP2Packet@@@Z
_TEXT	SEGMENT
_rkPacket$ = 8						; size = 4
?ApplyTournamentList@LobbyWnd@@QAEXAAVSP2Packet@@@Z PROC ; LobbyWnd::ApplyTournamentList, COMDAT
; _this$ = ecx

; 1187 : {

  00000	55		 push	 ebp
  00001	8b ec		 mov	 ebp, esp

; 1188 : 	if( m_dwTabID != ID_TOURNAMENT_BTN ) return;

  00003	83 b9 88 01 00
	00 07		 cmp	 DWORD PTR [ecx+392], 7
  0000a	75 3d		 jne	 SHORT $LN1@ApplyTourn

; 1189 : 
; 1190 : 	TournamentMainWnd *pTournamentWnd = dynamic_cast< TournamentMainWnd * >( FindChildWnd( ID_TOURNAMENT_WND ) );

  0000c	56		 push	 esi
  0000d	6a 00		 push	 0
  0000f	68 00 00 00 00	 push	 OFFSET ??_R0?AVTournamentMainWnd@@@8
  00014	68 00 00 00 00	 push	 OFFSET ??_R0?AVioWnd@@@8
  00019	6a 00		 push	 0
  0001b	6a 10		 push	 16			; 00000010H
  0001d	ff 15 00 00 00
	00		 call	 DWORD PTR __imp_?FindChildWnd@ioWnd@@QAEPAV1@K@Z
  00023	50		 push	 eax
  00024	e8 00 00 00 00	 call	 ___RTDynamicCast
  00029	8b f0		 mov	 esi, eax
  0002b	83 c4 14	 add	 esp, 20			; 00000014H

; 1191 : 	if( pTournamentWnd && pTournamentWnd->IsShow() )

  0002e	85 f6		 test	 esi, esi
  00030	74 16		 je	 SHORT $LN5@ApplyTourn
  00032	8b ce		 mov	 ecx, esi
  00034	ff 15 00 00 00
	00		 call	 DWORD PTR __imp_?IsShow@ioWnd@@QBE_NXZ
  0003a	84 c0		 test	 al, al
  0003c	74 0a		 je	 SHORT $LN5@ApplyTourn

; 1192 : 	{
; 1193 : 		pTournamentWnd->ApplyTournamentList( rkPacket );

  0003e	ff 75 08	 push	 DWORD PTR _rkPacket$[ebp]
  00041	8b ce		 mov	 ecx, esi
  00043	e8 00 00 00 00	 call	 ?ApplyTournamentList@TournamentMainWnd@@QAEXAAVSP2Packet@@@Z ; TournamentMainWnd::ApplyTournamentList
$LN5@ApplyTourn:
  00048	5e		 pop	 esi
$LN1@ApplyTourn:

; 1194 : 	}
; 1195 : }

  00049	5d		 pop	 ebp
  0004a	c2 04 00	 ret	 4
?ApplyTournamentList@LobbyWnd@@QAEXAAVSP2Packet@@@Z ENDP ; LobbyWnd::ApplyTournamentList
_TEXT	ENDS
PUBLIC	?ApplyTournamentConfirmCheck@LobbyWnd@@QAEXAAVSP2Packet@@@Z ; LobbyWnd::ApplyTournamentConfirmCheck
EXTRN	?ApplyTournamentConfirmCheck@TournamentMainWnd@@QAEXAAVSP2Packet@@@Z:PROC ; TournamentMainWnd::ApplyTournamentConfirmCheck
; Function compile flags: /Ogsp
;	COMDAT ?ApplyTournamentConfirmCheck@LobbyWnd@@QAEXAAVSP2Packet@@@Z
_TEXT	SEGMENT
_rkPacket$ = 8						; size = 4
?ApplyTournamentConfirmCheck@LobbyWnd@@QAEXAAVSP2Packet@@@Z PROC ; LobbyWnd::ApplyTournamentConfirmCheck, COMDAT
; _this$ = ecx

; 1198 : {

  00000	55		 push	 ebp
  00001	8b ec		 mov	 ebp, esp

; 1199 : 	if( m_dwTabID != ID_TOURNAMENT_BTN ) return;

  00003	83 b9 88 01 00
	00 07		 cmp	 DWORD PTR [ecx+392], 7
  0000a	75 3d		 jne	 SHORT $LN1@ApplyTourn@2

; 1200 : 
; 1201 : 	TournamentMainWnd *pTournamentWnd = dynamic_cast< TournamentMainWnd * >( FindChildWnd( ID_TOURNAMENT_WND ) );

  0000c	56		 push	 esi
  0000d	6a 00		 push	 0
  0000f	68 00 00 00 00	 push	 OFFSET ??_R0?AVTournamentMainWnd@@@8
  00014	68 00 00 00 00	 push	 OFFSET ??_R0?AVioWnd@@@8
  00019	6a 00		 push	 0
  0001b	6a 10		 push	 16			; 00000010H
  0001d	ff 15 00 00 00
	00		 call	 DWORD PTR __imp_?FindChildWnd@ioWnd@@QAEPAV1@K@Z
  00023	50		 push	 eax
  00024	e8 00 00 00 00	 call	 ___RTDynamicCast
  00029	8b f0		 mov	 esi, eax
  0002b	83 c4 14	 add	 esp, 20			; 00000014H

; 1202 : 	if( pTournamentWnd && pTournamentWnd->IsShow() )

  0002e	85 f6		 test	 esi, esi
  00030	74 16		 je	 SHORT $LN5@ApplyTourn@2
  00032	8b ce		 mov	 ecx, esi
  00034	ff 15 00 00 00
	00		 call	 DWORD PTR __imp_?IsShow@ioWnd@@QBE_NXZ
  0003a	84 c0		 test	 al, al
  0003c	74 0a		 je	 SHORT $LN5@ApplyTourn@2

; 1203 : 	{
; 1204 : 		pTournamentWnd->ApplyTournamentConfirmCheck( rkPacket );

  0003e	ff 75 08	 push	 DWORD PTR _rkPacket$[ebp]
  00041	8b ce		 mov	 ecx, esi
  00043	e8 00 00 00 00	 call	 ?ApplyTournamentConfirmCheck@TournamentMainWnd@@QAEXAAVSP2Packet@@@Z ; TournamentMainWnd::ApplyTournamentConfirmCheck
$LN5@ApplyTourn@2:
  00048	5e		 pop	 esi
$LN1@ApplyTourn@2:

; 1205 : 	}
; 1206 : }

  00049	5d		 pop	 ebp
  0004a	c2 04 00	 ret	 4
?ApplyTournamentConfirmCheck@LobbyWnd@@QAEXAAVSP2Packet@@@Z ENDP ; LobbyWnd::ApplyTournamentConfirmCheck
_TEXT	ENDS
PUBLIC	?ApplyTournamentConfirmRequest@LobbyWnd@@QAEXAAVSP2Packet@@@Z ; LobbyWnd::ApplyTournamentConfirmRequest
EXTRN	?ApplyTournamentConfirmRequest@TournamentMainWnd@@QAEXAAVSP2Packet@@@Z:PROC ; TournamentMainWnd::ApplyTournamentConfirmRequest
; Function compile flags: /Ogsp
;	COMDAT ?ApplyTournamentConfirmRequest@LobbyWnd@@QAEXAAVSP2Packet@@@Z
_TEXT	SEGMENT
_rkPacket$ = 8						; size = 4
?ApplyTournamentConfirmRequest@LobbyWnd@@QAEXAAVSP2Packet@@@Z PROC ; LobbyWnd::ApplyTournamentConfirmRequest, COMDAT
; _this$ = ecx

; 1209 : {

  00000	55		 push	 ebp
  00001	8b ec		 mov	 ebp, esp

; 1210 : 	if( m_dwTabID != ID_TOURNAMENT_BTN ) return;

  00003	83 b9 88 01 00
	00 07		 cmp	 DWORD PTR [ecx+392], 7
  0000a	75 3d		 jne	 SHORT $LN1@ApplyTourn@3

; 1211 : 
; 1212 : 	TournamentMainWnd *pTournamentWnd = dynamic_cast< TournamentMainWnd * >( FindChildWnd( ID_TOURNAMENT_WND ) );

  0000c	56		 push	 esi
  0000d	6a 00		 push	 0
  0000f	68 00 00 00 00	 push	 OFFSET ??_R0?AVTournamentMainWnd@@@8
  00014	68 00 00 00 00	 push	 OFFSET ??_R0?AVioWnd@@@8
  00019	6a 00		 push	 0
  0001b	6a 10		 push	 16			; 00000010H
  0001d	ff 15 00 00 00
	00		 call	 DWORD PTR __imp_?FindChildWnd@ioWnd@@QAEPAV1@K@Z
  00023	50		 push	 eax
  00024	e8 00 00 00 00	 call	 ___RTDynamicCast
  00029	8b f0		 mov	 esi, eax
  0002b	83 c4 14	 add	 esp, 20			; 00000014H

; 1213 : 	if( pTournamentWnd && pTournamentWnd->IsShow() )

  0002e	85 f6		 test	 esi, esi
  00030	74 16		 je	 SHORT $LN5@ApplyTourn@3
  00032	8b ce		 mov	 ecx, esi
  00034	ff 15 00 00 00
	00		 call	 DWORD PTR __imp_?IsShow@ioWnd@@QBE_NXZ
  0003a	84 c0		 test	 al, al
  0003c	74 0a		 je	 SHORT $LN5@ApplyTourn@3

; 1214 : 	{
; 1215 : 		pTournamentWnd->ApplyTournamentConfirmRequest( rkPacket );

  0003e	ff 75 08	 push	 DWORD PTR _rkPacket$[ebp]
  00041	8b ce		 mov	 ecx, esi
  00043	e8 00 00 00 00	 call	 ?ApplyTournamentConfirmRequest@TournamentMainWnd@@QAEXAAVSP2Packet@@@Z ; TournamentMainWnd::ApplyTournamentConfirmRequest
$LN5@ApplyTourn@3:
  00048	5e		 pop	 esi
$LN1@ApplyTourn@3:

; 1216 : 	}
; 1217 : }

  00049	5d		 pop	 ebp
  0004a	c2 04 00	 ret	 4
?ApplyTournamentConfirmRequest@LobbyWnd@@QAEXAAVSP2Packet@@@Z ENDP ; LobbyWnd::ApplyTournamentConfirmRequest
_TEXT	ENDS
PUBLIC	??_R0?AVTradeMainWnd@@@8			; TradeMainWnd `RTTI Type Descriptor'
PUBLIC	?OnRefreshTradeItemList@LobbyWnd@@QAEXXZ	; LobbyWnd::OnRefreshTradeItemList
EXTRN	?OnRefreshTradeItemList@TradeMainWnd@@QAEXXZ:PROC ; TradeMainWnd::OnRefreshTradeItemList
;	COMDAT ??_R0?AVTradeMainWnd@@@8
_DATA	SEGMENT
??_R0?AVTradeMainWnd@@@8 DD FLAT:??_7type_info@@6B@	; TradeMainWnd `RTTI Type Descriptor'
	DD	00H
	DB	'.?AVTradeMainWnd@@', 00H
; Function compile flags: /Ogsp
_DATA	ENDS
;	COMDAT ?OnRefreshTradeItemList@LobbyWnd@@QAEXXZ
_TEXT	SEGMENT
?OnRefreshTradeItemList@LobbyWnd@@QAEXXZ PROC		; LobbyWnd::OnRefreshTradeItemList, COMDAT
; _this$ = ecx

; 1220 : {

  00000	56		 push	 esi

; 1221 : 	TradeMainWnd *pTradeWnd = dynamic_cast<TradeMainWnd*>(FindChildWnd( ID_TRADE_MAIN_WND ));

  00001	6a 00		 push	 0
  00003	68 00 00 00 00	 push	 OFFSET ??_R0?AVTradeMainWnd@@@8
  00008	68 00 00 00 00	 push	 OFFSET ??_R0?AVioWnd@@@8
  0000d	6a 00		 push	 0
  0000f	6a 0f		 push	 15			; 0000000fH
  00011	ff 15 00 00 00
	00		 call	 DWORD PTR __imp_?FindChildWnd@ioWnd@@QAEPAV1@K@Z
  00017	50		 push	 eax
  00018	e8 00 00 00 00	 call	 ___RTDynamicCast
  0001d	8b f0		 mov	 esi, eax
  0001f	83 c4 14	 add	 esp, 20			; 00000014H

; 1222 : 	if( !pTradeWnd || !pTradeWnd->IsShow() )

  00022	85 f6		 test	 esi, esi
  00024	74 14		 je	 SHORT $LN1@OnRefreshT
  00026	8b ce		 mov	 ecx, esi
  00028	ff 15 00 00 00
	00		 call	 DWORD PTR __imp_?IsShow@ioWnd@@QBE_NXZ
  0002e	84 c0		 test	 al, al
  00030	74 08		 je	 SHORT $LN1@OnRefreshT

; 1223 : 		return;
; 1224 : 
; 1225 : 	pTradeWnd->OnRefreshTradeItemList();

  00032	8b ce		 mov	 ecx, esi
  00034	5e		 pop	 esi
  00035	e9 00 00 00 00	 jmp	 ?OnRefreshTradeItemList@TradeMainWnd@@QAEXXZ ; TradeMainWnd::OnRefreshTradeItemList
$LN1@OnRefreshT:
  0003a	5e		 pop	 esi

; 1226 : }

  0003b	c3		 ret	 0
?OnRefreshTradeItemList@LobbyWnd@@QAEXXZ ENDP		; LobbyWnd::OnRefreshTradeItemList
_TEXT	ENDS
PUBLIC	?ApplyLadderList@LobbyWnd@@QAEXAAVSP2Packet@@@Z	; LobbyWnd::ApplyLadderList
EXTRN	?SetLadderList@PartyCatalogueWnd@@QAEXAAVSP2Packet@@@Z:PROC ; PartyCatalogueWnd::SetLadderList
; Function compile flags: /Ogsp
;	COMDAT ?ApplyLadderList@LobbyWnd@@QAEXAAVSP2Packet@@@Z
_TEXT	SEGMENT
_rkPacket$ = 8						; size = 4
?ApplyLadderList@LobbyWnd@@QAEXAAVSP2Packet@@@Z PROC	; LobbyWnd::ApplyLadderList, COMDAT
; _this$ = ecx

; 1254 : {

  00000	55		 push	 ebp
  00001	8b ec		 mov	 ebp, esp

; 1255 : 	if( m_dwTabID != ID_BATTLE_BTN ) return;

  00003	83 b9 88 01 00
	00 01		 cmp	 DWORD PTR [ecx+392], 1
  0000a	75 3d		 jne	 SHORT $LN1@ApplyLadde@2

; 1256 : 
; 1257 : 	PartyCatalogueWnd *pCatalogueWnd = dynamic_cast<PartyCatalogueWnd*>(FindChildWnd( ID_BATTLE_WND ));

  0000c	56		 push	 esi
  0000d	6a 00		 push	 0
  0000f	68 00 00 00 00	 push	 OFFSET ??_R0?AVPartyCatalogueWnd@@@8
  00014	68 00 00 00 00	 push	 OFFSET ??_R0?AVioWnd@@@8
  00019	6a 00		 push	 0
  0001b	6a 0a		 push	 10			; 0000000aH
  0001d	ff 15 00 00 00
	00		 call	 DWORD PTR __imp_?FindChildWnd@ioWnd@@QAEPAV1@K@Z
  00023	50		 push	 eax
  00024	e8 00 00 00 00	 call	 ___RTDynamicCast
  00029	8b f0		 mov	 esi, eax
  0002b	83 c4 14	 add	 esp, 20			; 00000014H

; 1258 : 	if( !pCatalogueWnd || !pCatalogueWnd->IsShow() )

  0002e	85 f6		 test	 esi, esi
  00030	74 16		 je	 SHORT $LN6@ApplyLadde@2
  00032	8b ce		 mov	 ecx, esi
  00034	ff 15 00 00 00
	00		 call	 DWORD PTR __imp_?IsShow@ioWnd@@QBE_NXZ
  0003a	84 c0		 test	 al, al
  0003c	74 0a		 je	 SHORT $LN6@ApplyLadde@2

; 1259 : 		return;
; 1260 : 
; 1261 : 	pCatalogueWnd->SetLadderList(rkPacket);

  0003e	ff 75 08	 push	 DWORD PTR _rkPacket$[ebp]
  00041	8b ce		 mov	 ecx, esi
  00043	e8 00 00 00 00	 call	 ?SetLadderList@PartyCatalogueWnd@@QAEXAAVSP2Packet@@@Z ; PartyCatalogueWnd::SetLadderList
$LN6@ApplyLadde@2:
  00048	5e		 pop	 esi
$LN1@ApplyLadde@2:

; 1262 : }

  00049	5d		 pop	 ebp
  0004a	c2 04 00	 ret	 4
?ApplyLadderList@LobbyWnd@@QAEXAAVSP2Packet@@@Z ENDP	; LobbyWnd::ApplyLadderList
_TEXT	ENDS
PUBLIC	??_7LobbyChatWnd@@6B@				; LobbyChatWnd::`vftable'
PUBLIC	??0LobbyChatWnd@@QAE@XZ				; LobbyChatWnd::LobbyChatWnd
PUBLIC	??_R4LobbyChatWnd@@6B@				; LobbyChatWnd::`RTTI Complete Object Locator'
PUBLIC	??_R0?AVLobbyChatWnd@@@8			; LobbyChatWnd `RTTI Type Descriptor'
PUBLIC	??_R3LobbyChatWnd@@8				; LobbyChatWnd::`RTTI Class Hierarchy Descriptor'
PUBLIC	??_R2LobbyChatWnd@@8				; LobbyChatWnd::`RTTI Base Class Array'
PUBLIC	??_R1A@?0A@EA@LobbyChatWnd@@8			; LobbyChatWnd::`RTTI Base Class Descriptor at (0,-1,0,64)'
PUBLIC	?ParseExtraInfo@LobbyChatWnd@@UAEXAAVioXMLElement@@@Z ; LobbyChatWnd::ParseExtraInfo
PUBLIC	?iwm_create@LobbyChatWnd@@UAEXXZ		; LobbyChatWnd::iwm_create
PUBLIC	?iwm_command@LobbyChatWnd@@UAEXPAVioWnd@@HK@Z	; LobbyChatWnd::iwm_command
PUBLIC	?iwm_show@LobbyChatWnd@@UAEXXZ			; LobbyChatWnd::iwm_show
PUBLIC	?iwm_hide@LobbyChatWnd@@UAEXXZ			; LobbyChatWnd::iwm_hide
PUBLIC	?iwm_esc@LobbyChatWnd@@UAE_NXZ			; LobbyChatWnd::iwm_esc
EXTRN	__imp_??0ioHashString@@QAE@XZ:PROC
EXTRN	?AddRenderFrame@ioWnd@@UAEXABVioHashString@@PAVioUIRenderFrame@@@Z:PROC ; ioWnd::AddRenderFrame
EXTRN	?AddRenderImage@ioWnd@@UAEXABVioHashString@@PAVioUIRenderImage@@@Z:PROC ; ioWnd::AddRenderImage
EXTRN	?OnRender@ioWnd@@MAEXXZ:PROC			; ioWnd::OnRender
EXTRN	??_ELobbyChatWnd@@UAEPAXI@Z:PROC		; LobbyChatWnd::`vector deleting destructor'
;	COMDAT ??_R1A@?0A@EA@LobbyChatWnd@@8
rdata$r	SEGMENT
??_R1A@?0A@EA@LobbyChatWnd@@8 DD FLAT:??_R0?AVLobbyChatWnd@@@8 ; LobbyChatWnd::`RTTI Base Class Descriptor at (0,-1,0,64)'
	DD	01H
	DD	00H
	DD	0ffffffffH
	DD	00H
	DD	040H
	DD	FLAT:??_R3LobbyChatWnd@@8
rdata$r	ENDS
;	COMDAT ??_R2LobbyChatWnd@@8
rdata$r	SEGMENT
??_R2LobbyChatWnd@@8 DD FLAT:??_R1A@?0A@EA@LobbyChatWnd@@8 ; LobbyChatWnd::`RTTI Base Class Array'
	DD	FLAT:??_R1A@?0A@EA@ioWnd@@8
rdata$r	ENDS
;	COMDAT ??_R3LobbyChatWnd@@8
rdata$r	SEGMENT
??_R3LobbyChatWnd@@8 DD 00H				; LobbyChatWnd::`RTTI Class Hierarchy Descriptor'
	DD	00H
	DD	02H
	DD	FLAT:??_R2LobbyChatWnd@@8
rdata$r	ENDS
;	COMDAT ??_R0?AVLobbyChatWnd@@@8
_DATA	SEGMENT
??_R0?AVLobbyChatWnd@@@8 DD FLAT:??_7type_info@@6B@	; LobbyChatWnd `RTTI Type Descriptor'
	DD	00H
	DB	'.?AVLobbyChatWnd@@', 00H
_DATA	ENDS
;	COMDAT ??_R4LobbyChatWnd@@6B@
rdata$r	SEGMENT
??_R4LobbyChatWnd@@6B@ DD 00H				; LobbyChatWnd::`RTTI Complete Object Locator'
	DD	00H
	DD	00H
	DD	FLAT:??_R0?AVLobbyChatWnd@@@8
	DD	FLAT:??_R3LobbyChatWnd@@8
rdata$r	ENDS
;	COMDAT ??_7LobbyChatWnd@@6B@
CONST	SEGMENT
??_7LobbyChatWnd@@6B@ DD FLAT:??_R4LobbyChatWnd@@6B@	; LobbyChatWnd::`vftable'
	DD	FLAT:?AddRenderFrame@ioWnd@@UAEXABVioHashString@@PAVioUIRenderFrame@@@Z
	DD	FLAT:?AddRenderImage@ioWnd@@UAEXABVioHashString@@PAVioUIRenderImage@@@Z
	DD	FLAT:?AddTooltipHelp@ioWnd@@UAEXABVioHashString@@00@Z
	DD	FLAT:?ParseExtraInfo@LobbyChatWnd@@UAEXAAVioXMLElement@@@Z
	DD	FLAT:?AddNamedRenderImage@ioWnd@@UAEXABVioHashString@@PAVioUIRenderImage@@@Z
	DD	FLAT:?RemoveNamedRenderImage@ioWnd@@UAEXABVioHashString@@@Z
	DD	FLAT:?GetNamedRenderImage@ioWnd@@UBEPAVioUIRenderImage@@ABVioHashString@@@Z
	DD	FLAT:?SetWindowAlpha@ioWnd@@UAEXH@Z
	DD	FLAT:?SetActive@ioWnd@@UAEXXZ
	DD	FLAT:?SetInActive@ioWnd@@UAEXXZ
	DD	FLAT:?ClearElementImageList@ioWnd@@UAEXXZ
	DD	FLAT:?SetSize@ioWnd@@UAEXHH@Z
	DD	FLAT:?SetPositionToDefault@ioWnd@@UAEXHH_N0@Z
	DD	FLAT:?IsNeedProcess@ioWnd@@UBE_NXZ
	DD	FLAT:?IsCanMouseReaction@ioWnd@@UBE_NXZ
	DD	FLAT:?AddChild@ioWnd@@UAEXPAV1@@Z
	DD	FLAT:?DeleteChild@ioWnd@@UAEXK@Z
	DD	FLAT:?DeleteAllChild@ioWnd@@UAEXXZ
	DD	FLAT:?OnRenderShowAndHide@ioWnd@@MAE_NXZ
	DD	FLAT:?OnRenderShowAndHideByDefault@ioWnd@@MAE_NK@Z
	DD	FLAT:?OnRenderShowAndHideByTop@ioWnd@@MAE_NK@Z
	DD	FLAT:?OnRenderShowAndHideByDown@ioWnd@@MAE_NK@Z
	DD	FLAT:?OnRender@ioWnd@@MAEXXZ
	DD	FLAT:?OnRenderAfterChild@ioWnd@@MAEXXZ
	DD	FLAT:?OnProcess@ioWnd@@MAEXM@Z
	DD	FLAT:?OnMouseProcess@ioWnd@@MAEXABVioMouse@@@Z
	DD	FLAT:?CheckFrameReSize@ioWnd@@MAEXHHHH@Z
	DD	FLAT:?RenderImageList@ioWnd@@MAEXHHW4UIRenderType@@@Z
	DD	FLAT:?iwm_create@LobbyChatWnd@@UAEXXZ
	DD	FLAT:?iwm_destroy@ioWnd@@UAEXXZ
	DD	FLAT:?iwm_lbuttondown@ioWnd@@UAEXABVioMouse@@@Z
	DD	FLAT:?iwm_lbuttonup@ioWnd@@UAEXABVioMouse@@@Z
	DD	FLAT:?iwm_lbuttonDBLCLK@ioWnd@@UAEXABVioMouse@@@Z
	DD	FLAT:?iwm_rbuttondown@ioWnd@@UAEXABVioMouse@@@Z
	DD	FLAT:?iwm_rbuttonup@ioWnd@@UAEXABVioMouse@@@Z
	DD	FLAT:?iwm_command@LobbyChatWnd@@UAEXPAVioWnd@@HK@Z
	DD	FLAT:?iwm_mouseover@ioWnd@@UAEXABVioMouse@@@Z
	DD	FLAT:?iwm_mousemove@ioWnd@@UAEXABVioMouse@@@Z
	DD	FLAT:?iwm_mouseleave@ioWnd@@UAEXABVioMouse@@@Z
	DD	FLAT:?iwm_vscroll@ioWnd@@UAEXKH@Z
	DD	FLAT:?iwm_wheel@ioWnd@@UAEXH@Z
	DD	FLAT:?iwm_show@LobbyChatWnd@@UAEXXZ
	DD	FLAT:?iwm_hide@LobbyChatWnd@@UAEXXZ
	DD	FLAT:?iwm_esc@LobbyChatWnd@@UAE_NXZ
	DD	FLAT:?iwm_spacebar@ioWnd@@UAE_NXZ
	DD	FLAT:?iwm_gototop@ioWnd@@UAEXXZ
	DD	FLAT:?iwm_dragenter@ioWnd@@UAE?AW4IWDropEffect@@PAVioDragItem@@ABVioMouse@@@Z
	DD	FLAT:?iwm_dragover@ioWnd@@UAE?AW4IWDropEffect@@PAVioDragItem@@ABVioMouse@@@Z
	DD	FLAT:?iwm_dragleave@ioWnd@@UAEXXZ
	DD	FLAT:?iwm_dropitem@ioWnd@@UAE_NPAVioDragItem@@ABVioMouse@@PAV1@@Z
	DD	FLAT:?iwm_dropdone@ioWnd@@UAEXPAVioDragItem@@PAV1@_N@Z
	DD	FLAT:?IsEXType@ioWnd@@UBE_NXZ
	DD	FLAT:?GetWndType@ioWnd@@UBEKXZ
	DD	FLAT:?RenderWnd@ioWnd@@UAEXXZ
	DD	FLAT:?SetIDEX@ioWnd@@UAEXAAK_N@Z
	DD	FLAT:?ParseXML@ioWnd@@UAEXAAVioXMLElement@@@Z
	DD	FLAT:?GetHeaderFileName@ioWnd@@UAEPBDXZ
	DD	FLAT:?GetTemplateName@ioWnd@@UAEPBDXZ
	DD	FLAT:?GetDefClassName@ioWnd@@UBEPBDXZ
	DD	FLAT:?_Clone@ioWnd@@UAEPAV1@XZ
	DD	FLAT:?Copy@ioWnd@@UAEXPAV1@@Z
	DD	FLAT:?Save@ioWnd@@UAE_NAAVioXMLElement@@@Z
	DD	FLAT:?SetSaveData@ioWnd@@UAEXAAVioXMLElement@@@Z
	DD	FLAT:?SetPosX@ioWnd@@UAEXH@Z
	DD	FLAT:?SetPosY@ioWnd@@UAEXH@Z
	DD	FLAT:?SetWidth@ioWnd@@UAEXH@Z
	DD	FLAT:?SetHeight@ioWnd@@UAEXH@Z
	DD	FLAT:?GetNumFixedRenderFrame@ioWnd@@UBEHXZ
	DD	FLAT:?GetFixedRenderFrameType@ioWnd@@UAEPBDH@Z
	DD	FLAT:?GetRenderFrame@ioWnd@@UAEPAPAVioUIRenderElement@@PBD@Z
	DD	FLAT:?GetNumFixedRenderImage@ioWnd@@UBEHXZ
	DD	FLAT:?GetFixedRenderImageType@ioWnd@@UAEPBDH@Z
	DD	FLAT:?GetRenderImage@ioWnd@@UAEPAPAVioUIRenderElement@@PBD@Z
	DD	FLAT:?AddEffect@ioWnd@@UAEXABVioHashString@@PAVioUI3DEffectRender@@@Z
	DD	FLAT:?GetEffect@ioWnd@@UAEPAVioUI3DEffectRender@@VioHashString@@@Z
	DD	FLAT:??_ELobbyChatWnd@@UAEPAXI@Z
CONST	ENDS
;	COMDAT xdata$x
xdata$x	SEGMENT
__unwindtable$??0LobbyChatWnd@@QAE@XZ DD 0ffffffffH
	DD	FLAT:__unwindfunclet$??0LobbyChatWnd@@QAE@XZ$0
__ehfuncinfo$??0LobbyChatWnd@@QAE@XZ DD 019930522H
	DD	01H
	DD	FLAT:__unwindtable$??0LobbyChatWnd@@QAE@XZ
	DD	2 DUP(00H)
	DD	2 DUP(00H)
	DD	00H
	DD	01H
; Function compile flags: /Ogsp
xdata$x	ENDS
;	COMDAT ??0LobbyChatWnd@@QAE@XZ
_TEXT	SEGMENT
_this$ = -16						; size = 4
__$EHRec$ = -12						; size = 12
??0LobbyChatWnd@@QAE@XZ PROC				; LobbyChatWnd::LobbyChatWnd, COMDAT
; _this$ = ecx

; 1266 : {

  00000	6a 04		 push	 4
  00002	b8 00 00 00 00	 mov	 eax, __ehhandler$??0LobbyChatWnd@@QAE@XZ
  00007	e8 00 00 00 00	 call	 __EH_prolog3
  0000c	8b f1		 mov	 esi, ecx
  0000e	89 75 f0	 mov	 DWORD PTR _this$[ebp], esi
  00011	ff 15 00 00 00
	00		 call	 DWORD PTR __imp_??0ioWnd@@QAE@XZ
  00017	83 65 fc 00	 and	 DWORD PTR __$EHRec$[ebp+8], 0
  0001b	8d 8e 60 01 00
	00		 lea	 ecx, DWORD PTR [esi+352]
  00021	c7 06 00 00 00
	00		 mov	 DWORD PTR [esi], OFFSET ??_7LobbyChatWnd@@6B@
  00027	ff 15 00 00 00
	00		 call	 DWORD PTR __imp_??0ioHashString@@QAE@XZ

; 1267 : }

  0002d	8b c6		 mov	 eax, esi
  0002f	e8 00 00 00 00	 call	 __EH_epilog3
  00034	c3		 ret	 0
_TEXT	ENDS
;	COMDAT text$x
text$x	SEGMENT
__unwindfunclet$??0LobbyChatWnd@@QAE@XZ$0:
  00000	8b 4d f0	 mov	 ecx, DWORD PTR _this$[ebp]
  00003	ff 25 00 00 00
	00		 jmp	 DWORD PTR __imp_??1ioWnd@@UAE@XZ
__ehhandler$??0LobbyChatWnd@@QAE@XZ:
  00009	8b 54 24 08	 mov	 edx, DWORD PTR [esp+8]
  0000d	8d 42 0c	 lea	 eax, DWORD PTR [edx+12]
  00010	8b 4a ec	 mov	 ecx, DWORD PTR [edx-20]
  00013	33 c8		 xor	 ecx, eax
  00015	e8 00 00 00 00	 call	 @__security_check_cookie@4
  0001a	b8 00 00 00 00	 mov	 eax, OFFSET __ehfuncinfo$??0LobbyChatWnd@@QAE@XZ
  0001f	e9 00 00 00 00	 jmp	 ___CxxFrameHandler3
text$x	ENDS
??0LobbyChatWnd@@QAE@XZ ENDP				; LobbyChatWnd::LobbyChatWnd
PUBLIC	??1LobbyChatWnd@@UAE@XZ				; LobbyChatWnd::~LobbyChatWnd
EXTRN	__imp_??1ioHashString@@QAE@XZ:PROC
;	COMDAT xdata$x
xdata$x	SEGMENT
__unwindtable$??1LobbyChatWnd@@UAE@XZ DD 0ffffffffH
	DD	FLAT:__unwindfunclet$??1LobbyChatWnd@@UAE@XZ$0
__ehfuncinfo$??1LobbyChatWnd@@UAE@XZ DD 019930522H
	DD	01H
	DD	FLAT:__unwindtable$??1LobbyChatWnd@@UAE@XZ
	DD	2 DUP(00H)
	DD	2 DUP(00H)
	DD	00H
	DD	01H
; Function compile flags: /Ogsp
xdata$x	ENDS
;	COMDAT ??1LobbyChatWnd@@UAE@XZ
_TEXT	SEGMENT
_this$ = -16						; size = 4
__$EHRec$ = -12						; size = 12
??1LobbyChatWnd@@UAE@XZ PROC				; LobbyChatWnd::~LobbyChatWnd, COMDAT
; _this$ = ecx

; 1270 : {

  00000	6a 04		 push	 4
  00002	b8 00 00 00 00	 mov	 eax, __ehhandler$??1LobbyChatWnd@@UAE@XZ
  00007	e8 00 00 00 00	 call	 __EH_prolog3
  0000c	8b f1		 mov	 esi, ecx
  0000e	89 75 f0	 mov	 DWORD PTR _this$[ebp], esi
  00011	c7 06 00 00 00
	00		 mov	 DWORD PTR [esi], OFFSET ??_7LobbyChatWnd@@6B@
  00017	83 65 fc 00	 and	 DWORD PTR __$EHRec$[ebp+8], 0

; 1271 : }

  0001b	8d 8e 60 01 00
	00		 lea	 ecx, DWORD PTR [esi+352]
  00021	ff 15 00 00 00
	00		 call	 DWORD PTR __imp_??1ioHashString@@QAE@XZ
  00027	83 4d fc ff	 or	 DWORD PTR __$EHRec$[ebp+8], -1
  0002b	8b ce		 mov	 ecx, esi
  0002d	ff 15 00 00 00
	00		 call	 DWORD PTR __imp_??1ioWnd@@UAE@XZ
  00033	e8 00 00 00 00	 call	 __EH_epilog3
  00038	c3		 ret	 0
_TEXT	ENDS
;	COMDAT text$x
text$x	SEGMENT
__unwindfunclet$??1LobbyChatWnd@@UAE@XZ$0:
  00000	8b 4d f0	 mov	 ecx, DWORD PTR _this$[ebp]
  00003	ff 25 00 00 00
	00		 jmp	 DWORD PTR __imp_??1ioWnd@@UAE@XZ
__ehhandler$??1LobbyChatWnd@@UAE@XZ:
  00009	8b 54 24 08	 mov	 edx, DWORD PTR [esp+8]
  0000d	8d 42 0c	 lea	 eax, DWORD PTR [edx+12]
  00010	8b 4a ec	 mov	 ecx, DWORD PTR [edx-20]
  00013	33 c8		 xor	 ecx, eax
  00015	e8 00 00 00 00	 call	 @__security_check_cookie@4
  0001a	b8 00 00 00 00	 mov	 eax, OFFSET __ehfuncinfo$??1LobbyChatWnd@@UAE@XZ
  0001f	e9 00 00 00 00	 jmp	 ___CxxFrameHandler3
text$x	ENDS
??1LobbyChatWnd@@UAE@XZ ENDP				; LobbyChatWnd::~LobbyChatWnd
PUBLIC	??_R0?AVGameChatInput@@@8			; GameChatInput `RTTI Type Descriptor'
PUBLIC	?SetPlayStage@LobbyChatWnd@@QAEXPAVioPlayStage@@@Z ; LobbyChatWnd::SetPlayStage
EXTRN	?SetChatTypeToBtn@GameChatInput@@QAEXW4ChatType@@@Z:PROC ; GameChatInput::SetChatTypeToBtn
EXTRN	?SetPlayStage@GameChatInput@@QAEXPAVioPlayStage@@@Z:PROC ; GameChatInput::SetPlayStage
;	COMDAT ??_R0?AVGameChatInput@@@8
_DATA	SEGMENT
??_R0?AVGameChatInput@@@8 DD FLAT:??_7type_info@@6B@	; GameChatInput `RTTI Type Descriptor'
	DD	00H
	DB	'.?AVGameChatInput@@', 00H
; Function compile flags: /Ogsp
_DATA	ENDS
;	COMDAT ?SetPlayStage@LobbyChatWnd@@QAEXPAVioPlayStage@@@Z
_TEXT	SEGMENT
_pPlayStage$ = 8					; size = 4
?SetPlayStage@LobbyChatWnd@@QAEXPAVioPlayStage@@@Z PROC	; LobbyChatWnd::SetPlayStage, COMDAT
; _this$ = ecx

; 1274 : {

  00000	55		 push	 ebp
  00001	8b ec		 mov	 ebp, esp
  00003	56		 push	 esi

; 1275 : 	GameChatInput *pGameChatInput = dynamic_cast<GameChatInput*>(FindChildWnd( ID_CHAT_INPUT_WND ));

  00004	6a 00		 push	 0
  00006	68 00 00 00 00	 push	 OFFSET ??_R0?AVGameChatInput@@@8
  0000b	68 00 00 00 00	 push	 OFFSET ??_R0?AVioWnd@@@8
  00010	6a 00		 push	 0
  00012	6a 02		 push	 2
  00014	ff 15 00 00 00
	00		 call	 DWORD PTR __imp_?FindChildWnd@ioWnd@@QAEPAV1@K@Z
  0001a	50		 push	 eax
  0001b	e8 00 00 00 00	 call	 ___RTDynamicCast
  00020	8b f0		 mov	 esi, eax
  00022	83 c4 14	 add	 esp, 20			; 00000014H

; 1276 : 	if( pGameChatInput )

  00025	85 f6		 test	 esi, esi
  00027	74 13		 je	 SHORT $LN1@SetPlaySta

; 1277 : 	{
; 1278 : 		pGameChatInput->SetPlayStage( pPlayStage );

  00029	ff 75 08	 push	 DWORD PTR _pPlayStage$[ebp]
  0002c	8b ce		 mov	 ecx, esi
  0002e	e8 00 00 00 00	 call	 ?SetPlayStage@GameChatInput@@QAEXPAVioPlayStage@@@Z ; GameChatInput::SetPlayStage

; 1279 : 		pGameChatInput->SetChatTypeToBtn( CT_SERVER_LOBBY );

  00033	6a 06		 push	 6
  00035	8b ce		 mov	 ecx, esi
  00037	e8 00 00 00 00	 call	 ?SetChatTypeToBtn@GameChatInput@@QAEXW4ChatType@@@Z ; GameChatInput::SetChatTypeToBtn
$LN1@SetPlaySta:
  0003c	5e		 pop	 esi

; 1280 : 	}
; 1281 : }

  0003d	5d		 pop	 ebp
  0003e	c2 04 00	 ret	 4
?SetPlayStage@LobbyChatWnd@@QAEXPAVioPlayStage@@@Z ENDP	; LobbyChatWnd::SetPlayStage
; Function compile flags: /Ogsp
_TEXT	ENDS
;	COMDAT ?iwm_create@LobbyChatWnd@@UAEXXZ
_TEXT	SEGMENT
?iwm_create@LobbyChatWnd@@UAEXXZ PROC			; LobbyChatWnd::iwm_create, COMDAT
; _this$ = ecx

; 1285 : }

  00000	c3		 ret	 0
?iwm_create@LobbyChatWnd@@UAEXXZ ENDP			; LobbyChatWnd::iwm_create
_TEXT	ENDS
EXTRN	?SetMsgWndFeature@ioSP2ChatManager@@QAEXK@Z:PROC ; ioSP2ChatManager::SetMsgWndFeature
EXTRN	?SetFirstChatTypeToBtn@GameChatInput@@QAEXW4ChatType@@@Z:PROC ; GameChatInput::SetFirstChatTypeToBtn
EXTRN	__imp_?ShowChildWnd@ioWnd@@QAEXK_N@Z:PROC
EXTRN	?LoadChatInfo@ioSP2ChatManager@@QAEXABVioHashString@@@Z:PROC ; ioSP2ChatManager::LoadChatInfo
EXTRN	?GetSingleton@ioSP2ChatManager@@SAAAV1@XZ:PROC	; ioSP2ChatManager::GetSingleton
EXTRN	__imp_?HideWnd@ioGUIManager@@QAEXK_N@Z:PROC
; Function compile flags: /Ogsp
;	COMDAT ?iwm_show@LobbyChatWnd@@UAEXXZ
_TEXT	SEGMENT
?iwm_show@LobbyChatWnd@@UAEXXZ PROC			; LobbyChatWnd::iwm_show, COMDAT
; _this$ = ecx

; 1293 : {

  00000	53		 push	 ebx
  00001	56		 push	 esi
  00002	57		 push	 edi

; 1294 : 	g_GUIMgr.HideWnd( GLOBAL_CHAT_WND );

  00003	33 db		 xor	 ebx, ebx
  00005	53		 push	 ebx
  00006	68 8f 17 00 00	 push	 6031			; 0000178fH
  0000b	8b f9		 mov	 edi, ecx
  0000d	e8 00 00 00 00	 call	 ?GetSingleton@ioSP2GUIManager@@SAAAV1@XZ ; ioSP2GUIManager::GetSingleton
  00012	8b c8		 mov	 ecx, eax
  00014	ff 15 00 00 00
	00		 call	 DWORD PTR __imp_?HideWnd@ioGUIManager@@QAEXK_N@Z

; 1295 : 
; 1296 : 	g_ChatMgr.LoadChatInfo( m_szLoadInfo );

  0001a	8d 87 60 01 00
	00		 lea	 eax, DWORD PTR [edi+352]
  00020	50		 push	 eax
  00021	e8 00 00 00 00	 call	 ?GetSingleton@ioSP2ChatManager@@SAAAV1@XZ ; ioSP2ChatManager::GetSingleton
  00026	8b c8		 mov	 ecx, eax
  00028	e8 00 00 00 00	 call	 ?LoadChatInfo@ioSP2ChatManager@@QAEXABVioHashString@@@Z ; ioSP2ChatManager::LoadChatInfo

; 1297 : 
; 1298 : 	ShowChildWnd( ID_CHAT_MSG_WND );

  0002d	8b 35 00 00 00
	00		 mov	 esi, DWORD PTR __imp_?ShowChildWnd@ioWnd@@QAEXK_N@Z
  00033	53		 push	 ebx
  00034	6a 01		 push	 1
  00036	8b cf		 mov	 ecx, edi
  00038	ff d6		 call	 esi

; 1299 : 	ShowChildWnd( ID_CHAT_INPUT_WND );

  0003a	53		 push	 ebx
  0003b	6a 02		 push	 2
  0003d	8b cf		 mov	 ecx, edi
  0003f	ff d6		 call	 esi

; 1300 : 
; 1301 : 	GameChatInput *pGameChatInput = dynamic_cast<GameChatInput*>(FindChildWnd( ID_CHAT_INPUT_WND ));

  00041	53		 push	 ebx
  00042	68 00 00 00 00	 push	 OFFSET ??_R0?AVGameChatInput@@@8
  00047	68 00 00 00 00	 push	 OFFSET ??_R0?AVioWnd@@@8
  0004c	53		 push	 ebx
  0004d	6a 02		 push	 2
  0004f	8b cf		 mov	 ecx, edi
  00051	ff 15 00 00 00
	00		 call	 DWORD PTR __imp_?FindChildWnd@ioWnd@@QAEPAV1@K@Z
  00057	50		 push	 eax
  00058	e8 00 00 00 00	 call	 ___RTDynamicCast
  0005d	83 c4 14	 add	 esp, 20			; 00000014H

; 1302 : 	if( pGameChatInput )

  00060	3b c3		 cmp	 eax, ebx
  00062	74 09		 je	 SHORT $LN1@iwm_show

; 1303 : 	{
; 1304 : 		pGameChatInput->SetFirstChatTypeToBtn( CT_SERVER_LOBBY );

  00064	6a 06		 push	 6
  00066	8b c8		 mov	 ecx, eax
  00068	e8 00 00 00 00	 call	 ?SetFirstChatTypeToBtn@GameChatInput@@QAEXW4ChatType@@@Z ; GameChatInput::SetFirstChatTypeToBtn
$LN1@iwm_show:

; 1305 : 	}
; 1306 : 
; 1307 : 	g_ChatMgr.SetMsgWndFeature( 0 );

  0006d	53		 push	 ebx
  0006e	e8 00 00 00 00	 call	 ?GetSingleton@ioSP2ChatManager@@SAAAV1@XZ ; ioSP2ChatManager::GetSingleton
  00073	8b c8		 mov	 ecx, eax
  00075	e8 00 00 00 00	 call	 ?SetMsgWndFeature@ioSP2ChatManager@@QAEXK@Z ; ioSP2ChatManager::SetMsgWndFeature
  0007a	5f		 pop	 edi
  0007b	5e		 pop	 esi
  0007c	5b		 pop	 ebx

; 1308 : }

  0007d	c3		 ret	 0
?iwm_show@LobbyChatWnd@@UAEXXZ ENDP			; LobbyChatWnd::iwm_show
_TEXT	ENDS
EXTRN	__imp_?HideChildWnd@ioWnd@@QAEXK_N@Z:PROC
; Function compile flags: /Ogsp
;	COMDAT ?iwm_hide@LobbyChatWnd@@UAEXXZ
_TEXT	SEGMENT
?iwm_hide@LobbyChatWnd@@UAEXXZ PROC			; LobbyChatWnd::iwm_hide, COMDAT
; _this$ = ecx

; 1311 : {

  00000	56		 push	 esi

; 1312 : 	HideChildWnd( ID_CHAT_MSG_WND );

  00001	8b 35 00 00 00
	00		 mov	 esi, DWORD PTR __imp_?HideChildWnd@ioWnd@@QAEXK_N@Z
  00007	57		 push	 edi
  00008	6a 00		 push	 0
  0000a	6a 01		 push	 1
  0000c	8b f9		 mov	 edi, ecx
  0000e	ff d6		 call	 esi

; 1313 : 	HideChildWnd( ID_CHAT_INPUT_WND );

  00010	6a 00		 push	 0
  00012	6a 02		 push	 2
  00014	8b cf		 mov	 ecx, edi
  00016	ff d6		 call	 esi
  00018	5f		 pop	 edi
  00019	5e		 pop	 esi

; 1314 : }

  0001a	c3		 ret	 0
?iwm_hide@LobbyChatWnd@@UAEXXZ ENDP			; LobbyChatWnd::iwm_hide
; Function compile flags: /Ogsp
_TEXT	ENDS
;	COMDAT ?iwm_esc@LobbyChatWnd@@UAE_NXZ
_TEXT	SEGMENT
?iwm_esc@LobbyChatWnd@@UAE_NXZ PROC			; LobbyChatWnd::iwm_esc, COMDAT
; _this$ = ecx

; 1318 : 	GameChatInput *pGameChatInput = dynamic_cast<GameChatInput*>(FindChildWnd( ID_CHAT_INPUT_WND ));

  00000	6a 00		 push	 0
  00002	68 00 00 00 00	 push	 OFFSET ??_R0?AVGameChatInput@@@8
  00007	68 00 00 00 00	 push	 OFFSET ??_R0?AVioWnd@@@8
  0000c	6a 00		 push	 0
  0000e	6a 02		 push	 2
  00010	ff 15 00 00 00
	00		 call	 DWORD PTR __imp_?FindChildWnd@ioWnd@@QAEPAV1@K@Z
  00016	50		 push	 eax
  00017	e8 00 00 00 00	 call	 ___RTDynamicCast
  0001c	83 c4 14	 add	 esp, 20			; 00000014H

; 1319 : 	if( pGameChatInput )

  0001f	85 c0		 test	 eax, eax
  00021	74 0a		 je	 SHORT $LN1@iwm_esc

; 1320 : 		return pGameChatInput->iwm_esc();

  00023	8b 10		 mov	 edx, DWORD PTR [eax]
  00025	8b c8		 mov	 ecx, eax
  00027	ff a2 ac 00 00
	00		 jmp	 DWORD PTR [edx+172]
$LN1@iwm_esc:

; 1321 : 	return false;

  0002d	32 c0		 xor	 al, al

; 1322 : }

  0002f	c3		 ret	 0
?iwm_esc@LobbyChatWnd@@UAE_NXZ ENDP			; LobbyChatWnd::iwm_esc
_TEXT	ENDS
PUBLIC	??_R0?AVChatMsgWnd@@@8				; ChatMsgWnd `RTTI Type Descriptor'
EXTRN	?InitScrollPos@ChatMsgWnd@@QAEXXZ:PROC		; ChatMsgWnd::InitScrollPos
EXTRN	__imp_?GetID@ioWnd@@QBEKXZ:PROC
;	COMDAT ??_R0?AVChatMsgWnd@@@8
_DATA	SEGMENT
??_R0?AVChatMsgWnd@@@8 DD FLAT:??_7type_info@@6B@	; ChatMsgWnd `RTTI Type Descriptor'
	DD	00H
	DB	'.?AVChatMsgWnd@@', 00H
; Function compile flags: /Ogsp
_DATA	ENDS
;	COMDAT ?iwm_command@LobbyChatWnd@@UAEXPAVioWnd@@HK@Z
_TEXT	SEGMENT
_pWnd$ = 8						; size = 4
_cmd$ = 12						; size = 4
_param$ = 16						; size = 4
?iwm_command@LobbyChatWnd@@UAEXPAVioWnd@@HK@Z PROC	; LobbyChatWnd::iwm_command, COMDAT
; _this$ = ecx

; 1325 : {

  00000	55		 push	 ebp
  00001	8b ec		 mov	 ebp, esp
  00003	56		 push	 esi
  00004	8b f1		 mov	 esi, ecx

; 1326 : 	DWORD dwID = pWnd->GetID();

  00006	8b 4d 08	 mov	 ecx, DWORD PTR _pWnd$[ebp]
  00009	ff 15 00 00 00
	00		 call	 DWORD PTR __imp_?GetID@ioWnd@@QBEKXZ

; 1327 : 	switch( dwID )

  0000f	48		 dec	 eax
  00010	48		 dec	 eax
  00011	75 30		 jne	 SHORT $LN1@iwm_comman

; 1328 : 	{
; 1329 : 	case ID_CHAT_INPUT_WND:
; 1330 : 		if( cmd == IOBN_BTNUP )

  00013	83 7d 0c 11	 cmp	 DWORD PTR _cmd$[ebp], 17 ; 00000011H
  00017	75 2a		 jne	 SHORT $LN1@iwm_comman

; 1331 : 		{
; 1332 : 			ChatMsgWnd *pChatWnd = dynamic_cast<ChatMsgWnd*>( FindChildWnd( ID_CHAT_MSG_WND ) );

  00019	50		 push	 eax
  0001a	68 00 00 00 00	 push	 OFFSET ??_R0?AVChatMsgWnd@@@8
  0001f	68 00 00 00 00	 push	 OFFSET ??_R0?AVioWnd@@@8
  00024	50		 push	 eax
  00025	6a 01		 push	 1
  00027	8b ce		 mov	 ecx, esi
  00029	ff 15 00 00 00
	00		 call	 DWORD PTR __imp_?FindChildWnd@ioWnd@@QAEPAV1@K@Z
  0002f	50		 push	 eax
  00030	e8 00 00 00 00	 call	 ___RTDynamicCast
  00035	83 c4 14	 add	 esp, 20			; 00000014H

; 1333 : 			if( pChatWnd )

  00038	85 c0		 test	 eax, eax
  0003a	74 07		 je	 SHORT $LN1@iwm_comman

; 1334 : 			{
; 1335 : 				pChatWnd->InitScrollPos();

  0003c	8b c8		 mov	 ecx, eax
  0003e	e8 00 00 00 00	 call	 ?InitScrollPos@ChatMsgWnd@@QAEXXZ ; ChatMsgWnd::InitScrollPos
$LN1@iwm_comman:
  00043	5e		 pop	 esi

; 1336 : 			}
; 1337 : 		}
; 1338 : 		break;
; 1339 : 	}
; 1340 : }

  00044	5d		 pop	 ebp
  00045	c2 0c 00	 ret	 12			; 0000000cH
?iwm_command@LobbyChatWnd@@UAEXPAVioWnd@@HK@Z ENDP	; LobbyChatWnd::iwm_command
_TEXT	ENDS
PUBLIC	??_7LobbyMainWnd@@6B@				; LobbyMainWnd::`vftable'
PUBLIC	??0LobbyMainWnd@@QAE@XZ				; LobbyMainWnd::LobbyMainWnd
PUBLIC	??_R4LobbyMainWnd@@6B@				; LobbyMainWnd::`RTTI Complete Object Locator'
PUBLIC	??_R0?AVLobbyMainWnd@@@8			; LobbyMainWnd `RTTI Type Descriptor'
PUBLIC	??_R3LobbyMainWnd@@8				; LobbyMainWnd::`RTTI Class Hierarchy Descriptor'
PUBLIC	??_R2LobbyMainWnd@@8				; LobbyMainWnd::`RTTI Base Class Array'
PUBLIC	??_R1A@?0A@EA@LobbyMainWnd@@8			; LobbyMainWnd::`RTTI Base Class Descriptor at (0,-1,0,64)'
PUBLIC	??_R1A@?0A@EA@ioMovingWnd@@8			; ioMovingWnd::`RTTI Base Class Descriptor at (0,-1,0,64)'
PUBLIC	??_R0?AVioMovingWnd@@@8				; ioMovingWnd `RTTI Type Descriptor'
PUBLIC	??_R3ioMovingWnd@@8				; ioMovingWnd::`RTTI Class Hierarchy Descriptor'
PUBLIC	??_R2ioMovingWnd@@8				; ioMovingWnd::`RTTI Base Class Array'
PUBLIC	?ParseExtraInfo@LobbyMainWnd@@UAEXAAVioXMLElement@@@Z ; LobbyMainWnd::ParseExtraInfo
PUBLIC	?SetPositionToDefault@LobbyMainWnd@@UAEXHH_N0@Z	; LobbyMainWnd::SetPositionToDefault
PUBLIC	?OnRender@LobbyMainWnd@@MAEXXZ			; LobbyMainWnd::OnRender
PUBLIC	?OnProcess@LobbyMainWnd@@MAEXM@Z		; LobbyMainWnd::OnProcess
PUBLIC	?iwm_create@LobbyMainWnd@@UAEXXZ		; LobbyMainWnd::iwm_create
PUBLIC	?iwm_command@LobbyMainWnd@@UAEXPAVioWnd@@HK@Z	; LobbyMainWnd::iwm_command
PUBLIC	?iwm_show@LobbyMainWnd@@UAEXXZ			; LobbyMainWnd::iwm_show
PUBLIC	?iwm_hide@LobbyMainWnd@@UAEXXZ			; LobbyMainWnd::iwm_hide
PUBLIC	?iwm_esc@LobbyMainWnd@@UAE_NXZ			; LobbyMainWnd::iwm_esc
EXTRN	??_M@YGXPAXIHP6EX0@Z@Z:PROC			; `eh vector destructor iterator'
EXTRN	__imp_??1ioMovingWnd@@UAE@XZ:PROC
EXTRN	??_L@YGXPAXIHP6EX0@Z1@Z:PROC			; `eh vector constructor iterator'
EXTRN	??0ioComplexStringPrinter@@QAE@XZ:PROC		; ioComplexStringPrinter::ioComplexStringPrinter
EXTRN	??1ioComplexStringPrinter@@QAE@XZ:PROC		; ioComplexStringPrinter::~ioComplexStringPrinter
EXTRN	__imp_??0ioMovingWnd@@QAE@XZ:PROC
EXTRN	?OnMouseProcess@ioMovingWnd@@MAEXABVioMouse@@@Z:PROC ; ioMovingWnd::OnMouseProcess
EXTRN	?iwm_lbuttondown@ioMovingWnd@@UAEXABVioMouse@@@Z:PROC ; ioMovingWnd::iwm_lbuttondown
EXTRN	?iwm_lbuttonup@ioMovingWnd@@UAEXABVioMouse@@@Z:PROC ; ioMovingWnd::iwm_lbuttonup
EXTRN	??_ELobbyMainWnd@@UAEPAXI@Z:PROC		; LobbyMainWnd::`vector deleting destructor'
;	COMDAT ??_R2ioMovingWnd@@8
rdata$r	SEGMENT
??_R2ioMovingWnd@@8 DD FLAT:??_R1A@?0A@EA@ioMovingWnd@@8 ; ioMovingWnd::`RTTI Base Class Array'
	DD	FLAT:??_R1A@?0A@EA@ioWnd@@8
rdata$r	ENDS
;	COMDAT ??_R3ioMovingWnd@@8
rdata$r	SEGMENT
??_R3ioMovingWnd@@8 DD 00H				; ioMovingWnd::`RTTI Class Hierarchy Descriptor'
	DD	00H
	DD	02H
	DD	FLAT:??_R2ioMovingWnd@@8
rdata$r	ENDS
;	COMDAT ??_R0?AVioMovingWnd@@@8
_DATA	SEGMENT
??_R0?AVioMovingWnd@@@8 DD FLAT:??_7type_info@@6B@	; ioMovingWnd `RTTI Type Descriptor'
	DD	00H
	DB	'.?AVioMovingWnd@@', 00H
_DATA	ENDS
;	COMDAT ??_R1A@?0A@EA@ioMovingWnd@@8
rdata$r	SEGMENT
??_R1A@?0A@EA@ioMovingWnd@@8 DD FLAT:??_R0?AVioMovingWnd@@@8 ; ioMovingWnd::`RTTI Base Class Descriptor at (0,-1,0,64)'
	DD	01H
	DD	00H
	DD	0ffffffffH
	DD	00H
	DD	040H
	DD	FLAT:??_R3ioMovingWnd@@8
rdata$r	ENDS
;	COMDAT ??_R1A@?0A@EA@LobbyMainWnd@@8
rdata$r	SEGMENT
??_R1A@?0A@EA@LobbyMainWnd@@8 DD FLAT:??_R0?AVLobbyMainWnd@@@8 ; LobbyMainWnd::`RTTI Base Class Descriptor at (0,-1,0,64)'
	DD	02H
	DD	00H
	DD	0ffffffffH
	DD	00H
	DD	040H
	DD	FLAT:??_R3LobbyMainWnd@@8
rdata$r	ENDS
;	COMDAT ??_R2LobbyMainWnd@@8
rdata$r	SEGMENT
??_R2LobbyMainWnd@@8 DD FLAT:??_R1A@?0A@EA@LobbyMainWnd@@8 ; LobbyMainWnd::`RTTI Base Class Array'
	DD	FLAT:??_R1A@?0A@EA@ioMovingWnd@@8
	DD	FLAT:??_R1A@?0A@EA@ioWnd@@8
rdata$r	ENDS
;	COMDAT ??_R3LobbyMainWnd@@8
rdata$r	SEGMENT
??_R3LobbyMainWnd@@8 DD 00H				; LobbyMainWnd::`RTTI Class Hierarchy Descriptor'
	DD	00H
	DD	03H
	DD	FLAT:??_R2LobbyMainWnd@@8
rdata$r	ENDS
;	COMDAT ??_R0?AVLobbyMainWnd@@@8
_DATA	SEGMENT
??_R0?AVLobbyMainWnd@@@8 DD FLAT:??_7type_info@@6B@	; LobbyMainWnd `RTTI Type Descriptor'
	DD	00H
	DB	'.?AVLobbyMainWnd@@', 00H
_DATA	ENDS
;	COMDAT ??_R4LobbyMainWnd@@6B@
rdata$r	SEGMENT
??_R4LobbyMainWnd@@6B@ DD 00H				; LobbyMainWnd::`RTTI Complete Object Locator'
	DD	00H
	DD	00H
	DD	FLAT:??_R0?AVLobbyMainWnd@@@8
	DD	FLAT:??_R3LobbyMainWnd@@8
rdata$r	ENDS
;	COMDAT ??_7LobbyMainWnd@@6B@
CONST	SEGMENT
??_7LobbyMainWnd@@6B@ DD FLAT:??_R4LobbyMainWnd@@6B@	; LobbyMainWnd::`vftable'
	DD	FLAT:?AddRenderFrame@ioWnd@@UAEXABVioHashString@@PAVioUIRenderFrame@@@Z
	DD	FLAT:?AddRenderImage@ioWnd@@UAEXABVioHashString@@PAVioUIRenderImage@@@Z
	DD	FLAT:?AddTooltipHelp@ioWnd@@UAEXABVioHashString@@00@Z
	DD	FLAT:?ParseExtraInfo@LobbyMainWnd@@UAEXAAVioXMLElement@@@Z
	DD	FLAT:?AddNamedRenderImage@ioWnd@@UAEXABVioHashString@@PAVioUIRenderImage@@@Z
	DD	FLAT:?RemoveNamedRenderImage@ioWnd@@UAEXABVioHashString@@@Z
	DD	FLAT:?GetNamedRenderImage@ioWnd@@UBEPAVioUIRenderImage@@ABVioHashString@@@Z
	DD	FLAT:?SetWindowAlpha@ioWnd@@UAEXH@Z
	DD	FLAT:?SetActive@ioWnd@@UAEXXZ
	DD	FLAT:?SetInActive@ioWnd@@UAEXXZ
	DD	FLAT:?ClearElementImageList@ioWnd@@UAEXXZ
	DD	FLAT:?SetSize@ioWnd@@UAEXHH@Z
	DD	FLAT:?SetPositionToDefault@LobbyMainWnd@@UAEXHH_N0@Z
	DD	FLAT:?IsNeedProcess@ioWnd@@UBE_NXZ
	DD	FLAT:?IsCanMouseReaction@ioWnd@@UBE_NXZ
	DD	FLAT:?AddChild@ioWnd@@UAEXPAV1@@Z
	DD	FLAT:?DeleteChild@ioWnd@@UAEXK@Z
	DD	FLAT:?DeleteAllChild@ioWnd@@UAEXXZ
	DD	FLAT:?OnRenderShowAndHide@ioWnd@@MAE_NXZ
	DD	FLAT:?OnRenderShowAndHideByDefault@ioWnd@@MAE_NK@Z
	DD	FLAT:?OnRenderShowAndHideByTop@ioWnd@@MAE_NK@Z
	DD	FLAT:?OnRenderShowAndHideByDown@ioWnd@@MAE_NK@Z
	DD	FLAT:?OnRender@LobbyMainWnd@@MAEXXZ
	DD	FLAT:?OnRenderAfterChild@ioWnd@@MAEXXZ
	DD	FLAT:?OnProcess@LobbyMainWnd@@MAEXM@Z
	DD	FLAT:?OnMouseProcess@ioMovingWnd@@MAEXABVioMouse@@@Z
	DD	FLAT:?CheckFrameReSize@ioWnd@@MAEXHHHH@Z
	DD	FLAT:?RenderImageList@ioWnd@@MAEXHHW4UIRenderType@@@Z
	DD	FLAT:?iwm_create@LobbyMainWnd@@UAEXXZ
	DD	FLAT:?iwm_destroy@ioWnd@@UAEXXZ
	DD	FLAT:?iwm_lbuttondown@ioMovingWnd@@UAEXABVioMouse@@@Z
	DD	FLAT:?iwm_lbuttonup@ioMovingWnd@@UAEXABVioMouse@@@Z
	DD	FLAT:?iwm_lbuttonDBLCLK@ioWnd@@UAEXABVioMouse@@@Z
	DD	FLAT:?iwm_rbuttondown@ioWnd@@UAEXABVioMouse@@@Z
	DD	FLAT:?iwm_rbuttonup@ioWnd@@UAEXABVioMouse@@@Z
	DD	FLAT:?iwm_command@LobbyMainWnd@@UAEXPAVioWnd@@HK@Z
	DD	FLAT:?iwm_mouseover@ioWnd@@UAEXABVioMouse@@@Z
	DD	FLAT:?iwm_mousemove@ioWnd@@UAEXABVioMouse@@@Z
	DD	FLAT:?iwm_mouseleave@ioWnd@@UAEXABVioMouse@@@Z
	DD	FLAT:?iwm_vscroll@ioWnd@@UAEXKH@Z
	DD	FLAT:?iwm_wheel@ioWnd@@UAEXH@Z
	DD	FLAT:?iwm_show@LobbyMainWnd@@UAEXXZ
	DD	FLAT:?iwm_hide@LobbyMainWnd@@UAEXXZ
	DD	FLAT:?iwm_esc@LobbyMainWnd@@UAE_NXZ
	DD	FLAT:?iwm_spacebar@ioWnd@@UAE_NXZ
	DD	FLAT:?iwm_gototop@ioWnd@@UAEXXZ
	DD	FLAT:?iwm_dragenter@ioWnd@@UAE?AW4IWDropEffect@@PAVioDragItem@@ABVioMouse@@@Z
	DD	FLAT:?iwm_dragover@ioWnd@@UAE?AW4IWDropEffect@@PAVioDragItem@@ABVioMouse@@@Z
	DD	FLAT:?iwm_dragleave@ioWnd@@UAEXXZ
	DD	FLAT:?iwm_dropitem@ioWnd@@UAE_NPAVioDragItem@@ABVioMouse@@PAV1@@Z
	DD	FLAT:?iwm_dropdone@ioWnd@@UAEXPAVioDragItem@@PAV1@_N@Z
	DD	FLAT:?IsEXType@ioWnd@@UBE_NXZ
	DD	FLAT:?GetWndType@ioWnd@@UBEKXZ
	DD	FLAT:?RenderWnd@ioWnd@@UAEXXZ
	DD	FLAT:?SetIDEX@ioWnd@@UAEXAAK_N@Z
	DD	FLAT:?ParseXML@ioWnd@@UAEXAAVioXMLElement@@@Z
	DD	FLAT:?GetHeaderFileName@ioWnd@@UAEPBDXZ
	DD	FLAT:?GetTemplateName@ioWnd@@UAEPBDXZ
	DD	FLAT:?GetDefClassName@ioWnd@@UBEPBDXZ
	DD	FLAT:?_Clone@ioWnd@@UAEPAV1@XZ
	DD	FLAT:?Copy@ioWnd@@UAEXPAV1@@Z
	DD	FLAT:?Save@ioWnd@@UAE_NAAVioXMLElement@@@Z
	DD	FLAT:?SetSaveData@ioWnd@@UAEXAAVioXMLElement@@@Z
	DD	FLAT:?SetPosX@ioWnd@@UAEXH@Z
	DD	FLAT:?SetPosY@ioWnd@@UAEXH@Z
	DD	FLAT:?SetWidth@ioWnd@@UAEXH@Z
	DD	FLAT:?SetHeight@ioWnd@@UAEXH@Z
	DD	FLAT:?GetNumFixedRenderFrame@ioWnd@@UBEHXZ
	DD	FLAT:?GetFixedRenderFrameType@ioWnd@@UAEPBDH@Z
	DD	FLAT:?GetRenderFrame@ioWnd@@UAEPAPAVioUIRenderElement@@PBD@Z
	DD	FLAT:?GetNumFixedRenderImage@ioWnd@@UBEHXZ
	DD	FLAT:?GetFixedRenderImageType@ioWnd@@UAEPBDH@Z
	DD	FLAT:?GetRenderImage@ioWnd@@UAEPAPAVioUIRenderElement@@PBD@Z
	DD	FLAT:?AddEffect@ioWnd@@UAEXABVioHashString@@PAVioUI3DEffectRender@@@Z
	DD	FLAT:?GetEffect@ioWnd@@UAEPAVioUI3DEffectRender@@VioHashString@@@Z
	DD	FLAT:??_ELobbyMainWnd@@UAEPAXI@Z
CONST	ENDS
;	COMDAT xdata$x
xdata$x	SEGMENT
__unwindtable$??0LobbyMainWnd@@QAE@XZ DD 0ffffffffH
	DD	FLAT:__unwindfunclet$??0LobbyMainWnd@@QAE@XZ$0
	DD	00H
	DD	FLAT:__unwindfunclet$??0LobbyMainWnd@@QAE@XZ$1
__ehfuncinfo$??0LobbyMainWnd@@QAE@XZ DD 019930522H
	DD	02H
	DD	FLAT:__unwindtable$??0LobbyMainWnd@@QAE@XZ
	DD	2 DUP(00H)
	DD	2 DUP(00H)
	DD	00H
	DD	01H
; Function compile flags: /Ogsp
xdata$x	ENDS
;	COMDAT ??0LobbyMainWnd@@QAE@XZ
_TEXT	SEGMENT
_this$ = -16						; size = 4
__$EHRec$ = -12						; size = 12
??0LobbyMainWnd@@QAE@XZ PROC				; LobbyMainWnd::LobbyMainWnd, COMDAT
; _this$ = ecx

; 1343 : {

  00000	6a 04		 push	 4
  00002	b8 00 00 00 00	 mov	 eax, __ehhandler$??0LobbyMainWnd@@QAE@XZ
  00007	e8 00 00 00 00	 call	 __EH_prolog3
  0000c	8b f1		 mov	 esi, ecx
  0000e	89 75 f0	 mov	 DWORD PTR _this$[ebp], esi
  00011	ff 15 00 00 00
	00		 call	 DWORD PTR __imp_??0ioMovingWnd@@QAE@XZ
  00017	68 00 00 00 00	 push	 OFFSET ??1ioComplexStringPrinter@@QAE@XZ ; ioComplexStringPrinter::~ioComplexStringPrinter
  0001c	68 00 00 00 00	 push	 OFFSET ??0ioComplexStringPrinter@@QAE@XZ ; ioComplexStringPrinter::ioComplexStringPrinter
  00021	6a 05		 push	 5
  00023	6a 20		 push	 32			; 00000020H
  00025	8d 86 ac 01 00
	00		 lea	 eax, DWORD PTR [esi+428]
  0002b	33 ff		 xor	 edi, edi
  0002d	50		 push	 eax
  0002e	89 7d fc	 mov	 DWORD PTR __$EHRec$[ebp+8], edi
  00031	c7 06 00 00 00
	00		 mov	 DWORD PTR [esi], OFFSET ??_7LobbyMainWnd@@6B@
  00037	e8 00 00 00 00	 call	 ??_L@YGXPAXIHP6EX0@Z1@Z
  0003c	8d 8e 4c 02 00
	00		 lea	 ecx, DWORD PTR [esi+588]
  00042	c6 45 fc 01	 mov	 BYTE PTR __$EHRec$[ebp+8], 1
  00046	ff 15 00 00 00
	00		 call	 DWORD PTR __imp_??0ioHashString@@QAE@XZ

; 1344 : 	m_pPlayStage  = NULL;

  0004c	89 be 98 01 00
	00		 mov	 DWORD PTR [esi+408], edi

; 1345 : 	m_iDefaultX   = 0;

  00052	89 be 90 01 00
	00		 mov	 DWORD PTR [esi+400], edi

; 1346 : 	m_iDefaultY   = 0;

  00058	89 be 94 01 00
	00		 mov	 DWORD PTR [esi+404], edi

; 1347 : 	m_pModeHelpTooltip  = NULL;

  0005e	89 be 9c 01 00
	00		 mov	 DWORD PTR [esi+412], edi

; 1348 : 	m_pQuickJoinTooltip = NULL;

  00064	89 be a0 01 00
	00		 mov	 DWORD PTR [esi+416], edi

; 1349 : 	m_pNoviceBtn = NULL;

  0006a	89 be a4 01 00
	00		 mov	 DWORD PTR [esi+420], edi

; 1350 : 	m_pEventEff = NULL;

  00070	89 be 5c 02 00
	00		 mov	 DWORD PTR [esi+604], edi

; 1351 : 
; 1352 : 	m_dwBonusCashTooltipCheckStartTime = 0;

  00076	89 be 64 02 00
	00		 mov	 DWORD PTR [esi+612], edi

; 1353 : }

  0007c	8b c6		 mov	 eax, esi
  0007e	e8 00 00 00 00	 call	 __EH_epilog3
  00083	c3		 ret	 0
_TEXT	ENDS
;	COMDAT text$x
text$x	SEGMENT
__unwindfunclet$??0LobbyMainWnd@@QAE@XZ$0:
  00000	8b 4d f0	 mov	 ecx, DWORD PTR _this$[ebp]
  00003	ff 25 00 00 00
	00		 jmp	 DWORD PTR __imp_??1ioMovingWnd@@UAE@XZ
__unwindfunclet$??0LobbyMainWnd@@QAE@XZ$1:
  00009	68 00 00 00 00	 push	 OFFSET ??1ioComplexStringPrinter@@QAE@XZ ; ioComplexStringPrinter::~ioComplexStringPrinter
  0000e	6a 05		 push	 5
  00010	6a 20		 push	 32			; 00000020H
  00012	8b 45 f0	 mov	 eax, DWORD PTR _this$[ebp]
  00015	05 ac 01 00 00	 add	 eax, 428		; 000001acH
  0001a	50		 push	 eax
  0001b	e8 00 00 00 00	 call	 ??_M@YGXPAXIHP6EX0@Z@Z
  00020	c3		 ret	 0
__ehhandler$??0LobbyMainWnd@@QAE@XZ:
  00021	8b 54 24 08	 mov	 edx, DWORD PTR [esp+8]
  00025	8d 42 0c	 lea	 eax, DWORD PTR [edx+12]
  00028	8b 4a ec	 mov	 ecx, DWORD PTR [edx-20]
  0002b	33 c8		 xor	 ecx, eax
  0002d	e8 00 00 00 00	 call	 @__security_check_cookie@4
  00032	b8 00 00 00 00	 mov	 eax, OFFSET __ehfuncinfo$??0LobbyMainWnd@@QAE@XZ
  00037	e9 00 00 00 00	 jmp	 ___CxxFrameHandler3
text$x	ENDS
??0LobbyMainWnd@@QAE@XZ ENDP				; LobbyMainWnd::LobbyMainWnd
PUBLIC	??_C@_04IAEKAMNC@YPos?$AA@			; `string'
PUBLIC	??_C@_04LNCKCFGC@XPos?$AA@			; `string'
PUBLIC	??_C@_0N@IPHCJECP@LobbyMainWnd?$AA@		; `string'
PUBLIC	??1LobbyMainWnd@@UAE@XZ				; LobbyMainWnd::~LobbyMainWnd
EXTRN	?GUIPosSaveInt@ioSP2GUIManager@@QAEHPBD0HH@Z:PROC ; ioSP2GUIManager::GUIPosSaveInt
EXTRN	?Height@Setting@@SAHXZ:PROC			; Setting::Height
EXTRN	?Width@Setting@@SAHXZ:PROC			; Setting::Width
EXTRN	__imp_?StopStream@ioSoundManager@@QAEXXZ:PROC
EXTRN	__imp_?GetSingleton@ioSoundManager@@SAAAV1@XZ:PROC
;	COMDAT ??_C@_04IAEKAMNC@YPos?$AA@
CONST	SEGMENT
??_C@_04IAEKAMNC@YPos?$AA@ DB 'YPos', 00H		; `string'
CONST	ENDS
;	COMDAT ??_C@_04LNCKCFGC@XPos?$AA@
CONST	SEGMENT
??_C@_04LNCKCFGC@XPos?$AA@ DB 'XPos', 00H		; `string'
CONST	ENDS
;	COMDAT ??_C@_0N@IPHCJECP@LobbyMainWnd?$AA@
CONST	SEGMENT
??_C@_0N@IPHCJECP@LobbyMainWnd?$AA@ DB 'LobbyMainWnd', 00H ; `string'
CONST	ENDS
;	COMDAT xdata$x
xdata$x	SEGMENT
__unwindtable$??1LobbyMainWnd@@UAE@XZ DD 0ffffffffH
	DD	FLAT:__unwindfunclet$??1LobbyMainWnd@@UAE@XZ$0
	DD	00H
	DD	FLAT:__unwindfunclet$??1LobbyMainWnd@@UAE@XZ$1
	DD	01H
	DD	FLAT:__unwindfunclet$??1LobbyMainWnd@@UAE@XZ$2
__ehfuncinfo$??1LobbyMainWnd@@UAE@XZ DD 019930522H
	DD	03H
	DD	FLAT:__unwindtable$??1LobbyMainWnd@@UAE@XZ
	DD	2 DUP(00H)
	DD	2 DUP(00H)
	DD	00H
	DD	01H
; Function compile flags: /Ogsp
xdata$x	ENDS
;	COMDAT ??1LobbyMainWnd@@UAE@XZ
_TEXT	SEGMENT
_this$ = -16						; size = 4
__$EHRec$ = -12						; size = 12
??1LobbyMainWnd@@UAE@XZ PROC				; LobbyMainWnd::~LobbyMainWnd, COMDAT
; _this$ = ecx

; 1356 : {

  00000	6a 04		 push	 4
  00002	b8 00 00 00 00	 mov	 eax, __ehhandler$??1LobbyMainWnd@@UAE@XZ
  00007	e8 00 00 00 00	 call	 __EH_prolog3
  0000c	8b f1		 mov	 esi, ecx
  0000e	89 75 f0	 mov	 DWORD PTR _this$[ebp], esi
  00011	c7 06 00 00 00
	00		 mov	 DWORD PTR [esi], OFFSET ??_7LobbyMainWnd@@6B@
  00017	c7 45 fc 02 00
	00 00		 mov	 DWORD PTR __$EHRec$[ebp+8], 2

; 1357 : 	g_SoundMgr.StopStream();

  0001e	ff 15 00 00 00
	00		 call	 DWORD PTR __imp_?GetSingleton@ioSoundManager@@SAAAV1@XZ
  00024	8b c8		 mov	 ecx, eax
  00026	ff 15 00 00 00
	00		 call	 DWORD PTR __imp_?StopStream@ioSoundManager@@QAEXXZ

; 1358 : 
; 1359 : 	if( !COMPARE( m_iDefaultX, 0, Setting::Width() ) || 
; 1360 : 		!COMPARE( m_iDefaultY, 0, Setting::Height() ) )

  0002c	83 be 90 01 00
	00 00		 cmp	 DWORD PTR [esi+400], 0
  00033	7c 5c		 jl	 SHORT $LN1@LobbyMainW
  00035	e8 00 00 00 00	 call	 ?Width@Setting@@SAHXZ	; Setting::Width
  0003a	39 86 90 01 00
	00		 cmp	 DWORD PTR [esi+400], eax
  00040	7d 4f		 jge	 SHORT $LN1@LobbyMainW
  00042	83 be 94 01 00
	00 00		 cmp	 DWORD PTR [esi+404], 0
  00049	7c 46		 jl	 SHORT $LN1@LobbyMainW
  0004b	e8 00 00 00 00	 call	 ?Height@Setting@@SAHXZ	; Setting::Height
  00050	39 86 94 01 00
	00		 cmp	 DWORD PTR [esi+404], eax
  00056	7d 39		 jge	 SHORT $LN1@LobbyMainW

; 1361 : 		return;
; 1362 : 
; 1363 : 	g_GUIMgr.GUIPosSaveInt( "LobbyMainWnd", "XPos", m_iDefaultX ,POS_SAVE_VERSION );

  00058	6a 04		 push	 4
  0005a	ff b6 90 01 00
	00		 push	 DWORD PTR [esi+400]
  00060	bf 00 00 00 00	 mov	 edi, OFFSET ??_C@_0N@IPHCJECP@LobbyMainWnd?$AA@
  00065	68 00 00 00 00	 push	 OFFSET ??_C@_04LNCKCFGC@XPos?$AA@
  0006a	57		 push	 edi
  0006b	e8 00 00 00 00	 call	 ?GetSingleton@ioSP2GUIManager@@SAAAV1@XZ ; ioSP2GUIManager::GetSingleton
  00070	8b c8		 mov	 ecx, eax
  00072	e8 00 00 00 00	 call	 ?GUIPosSaveInt@ioSP2GUIManager@@QAEHPBD0HH@Z ; ioSP2GUIManager::GUIPosSaveInt

; 1364 : 	g_GUIMgr.GUIPosSaveInt( "LobbyMainWnd", "YPos", m_iDefaultY ,POS_SAVE_VERSION );

  00077	6a 04		 push	 4
  00079	ff b6 94 01 00
	00		 push	 DWORD PTR [esi+404]
  0007f	68 00 00 00 00	 push	 OFFSET ??_C@_04IAEKAMNC@YPos?$AA@
  00084	57		 push	 edi
  00085	e8 00 00 00 00	 call	 ?GetSingleton@ioSP2GUIManager@@SAAAV1@XZ ; ioSP2GUIManager::GetSingleton
  0008a	8b c8		 mov	 ecx, eax
  0008c	e8 00 00 00 00	 call	 ?GUIPosSaveInt@ioSP2GUIManager@@QAEHPBD0HH@Z ; ioSP2GUIManager::GUIPosSaveInt
$LN1@LobbyMainW:

; 1365 : }

  00091	8d 8e 4c 02 00
	00		 lea	 ecx, DWORD PTR [esi+588]
  00097	c6 45 fc 01	 mov	 BYTE PTR __$EHRec$[ebp+8], 1
  0009b	ff 15 00 00 00
	00		 call	 DWORD PTR __imp_??1ioHashString@@QAE@XZ
  000a1	68 00 00 00 00	 push	 OFFSET ??1ioComplexStringPrinter@@QAE@XZ ; ioComplexStringPrinter::~ioComplexStringPrinter
  000a6	6a 05		 push	 5
  000a8	6a 20		 push	 32			; 00000020H
  000aa	8d 86 ac 01 00
	00		 lea	 eax, DWORD PTR [esi+428]
  000b0	50		 push	 eax
  000b1	c6 45 fc 00	 mov	 BYTE PTR __$EHRec$[ebp+8], 0
  000b5	e8 00 00 00 00	 call	 ??_M@YGXPAXIHP6EX0@Z@Z
  000ba	83 4d fc ff	 or	 DWORD PTR __$EHRec$[ebp+8], -1
  000be	8b ce		 mov	 ecx, esi
  000c0	ff 15 00 00 00
	00		 call	 DWORD PTR __imp_??1ioMovingWnd@@UAE@XZ
  000c6	e8 00 00 00 00	 call	 __EH_epilog3
  000cb	c3		 ret	 0
_TEXT	ENDS
;	COMDAT text$x
text$x	SEGMENT
__unwindfunclet$??1LobbyMainWnd@@UAE@XZ$0:
  00000	8b 4d f0	 mov	 ecx, DWORD PTR _this$[ebp]
  00003	ff 25 00 00 00
	00		 jmp	 DWORD PTR __imp_??1ioMovingWnd@@UAE@XZ
__unwindfunclet$??1LobbyMainWnd@@UAE@XZ$1:
  00009	68 00 00 00 00	 push	 OFFSET ??1ioComplexStringPrinter@@QAE@XZ ; ioComplexStringPrinter::~ioComplexStringPrinter
  0000e	6a 05		 push	 5
  00010	6a 20		 push	 32			; 00000020H
  00012	8b 45 f0	 mov	 eax, DWORD PTR _this$[ebp]
  00015	05 ac 01 00 00	 add	 eax, 428		; 000001acH
  0001a	50		 push	 eax
  0001b	e8 00 00 00 00	 call	 ??_M@YGXPAXIHP6EX0@Z@Z
  00020	c3		 ret	 0
__unwindfunclet$??1LobbyMainWnd@@UAE@XZ$2:
  00021	8b 4d f0	 mov	 ecx, DWORD PTR _this$[ebp]
  00024	81 c1 4c 02 00
	00		 add	 ecx, 588		; 0000024cH
  0002a	ff 25 00 00 00
	00		 jmp	 DWORD PTR __imp_??1ioHashString@@QAE@XZ
__ehhandler$??1LobbyMainWnd@@UAE@XZ:
  00030	8b 54 24 08	 mov	 edx, DWORD PTR [esp+8]
  00034	8d 42 0c	 lea	 eax, DWORD PTR [edx+12]
  00037	8b 4a ec	 mov	 ecx, DWORD PTR [edx-20]
  0003a	33 c8		 xor	 ecx, eax
  0003c	e8 00 00 00 00	 call	 @__security_check_cookie@4
  00041	b8 00 00 00 00	 mov	 eax, OFFSET __ehfuncinfo$??1LobbyMainWnd@@UAE@XZ
  00046	e9 00 00 00 00	 jmp	 ___CxxFrameHandler3
text$x	ENDS
??1LobbyMainWnd@@UAE@XZ ENDP				; LobbyMainWnd::~LobbyMainWnd
PUBLIC	?SetPlayStage@LobbyMainWnd@@QAEXPAVioPlayStage@@@Z ; LobbyMainWnd::SetPlayStage
EXTRN	__imp_?ShowWnd@ioWnd@@QAEXXZ:PROC
; Function compile flags: /Ogsp
;	COMDAT ?SetPlayStage@LobbyMainWnd@@QAEXPAVioPlayStage@@@Z
_TEXT	SEGMENT
_pPlayStage$ = 8					; size = 4
?SetPlayStage@LobbyMainWnd@@QAEXPAVioPlayStage@@@Z PROC	; LobbyMainWnd::SetPlayStage, COMDAT
; _this$ = ecx

; 1368 : {

  00000	55		 push	 ebp
  00001	8b ec		 mov	 ebp, esp
  00003	56		 push	 esi
  00004	57		 push	 edi

; 1369 : 	m_pPlayStage = pPlayStage;

  00005	8b 7d 08	 mov	 edi, DWORD PTR _pPlayStage$[ebp]

; 1370 : 
; 1371 : 	LobbyChatWnd *pChatWnd = dynamic_cast<LobbyChatWnd*>(FindChildWnd(ID_CHAT_WND));

  00008	6a 00		 push	 0
  0000a	68 00 00 00 00	 push	 OFFSET ??_R0?AVLobbyChatWnd@@@8
  0000f	68 00 00 00 00	 push	 OFFSET ??_R0?AVioWnd@@@8
  00014	6a 00		 push	 0
  00016	8b f1		 mov	 esi, ecx
  00018	6a 02		 push	 2
  0001a	89 be 98 01 00
	00		 mov	 DWORD PTR [esi+408], edi
  00020	ff 15 00 00 00
	00		 call	 DWORD PTR __imp_?FindChildWnd@ioWnd@@QAEPAV1@K@Z
  00026	50		 push	 eax
  00027	e8 00 00 00 00	 call	 ___RTDynamicCast
  0002c	83 c4 14	 add	 esp, 20			; 00000014H

; 1372 : 	if( pChatWnd )

  0002f	85 c0		 test	 eax, eax
  00031	74 08		 je	 SHORT $LN1@SetPlaySta@2

; 1373 : 	{
; 1374 : 		pChatWnd->SetPlayStage( pPlayStage );

  00033	57		 push	 edi
  00034	8b c8		 mov	 ecx, eax
  00036	e8 00 00 00 00	 call	 ?SetPlayStage@LobbyChatWnd@@QAEXPAVioPlayStage@@@Z ; LobbyChatWnd::SetPlayStage
$LN1@SetPlaySta@2:

; 1375 : 	}
; 1376 : 	ShowWnd();

  0003b	8b ce		 mov	 ecx, esi
  0003d	ff 15 00 00 00
	00		 call	 DWORD PTR __imp_?ShowWnd@ioWnd@@QAEXXZ
  00043	5f		 pop	 edi
  00044	5e		 pop	 esi

; 1377 : }

  00045	5d		 pop	 ebp
  00046	c2 04 00	 ret	 4
?SetPlayStage@LobbyMainWnd@@QAEXPAVioPlayStage@@@Z ENDP	; LobbyMainWnd::SetPlayStage
_TEXT	ENDS
PUBLIC	??_C@_0BD@GFCAHKPI@lobby?5event?5effect?$AA@	; `string'
PUBLIC	??_C@_0BH@EAKPEOPJ@XML?1shuffletooptip?4xml?$AA@ ; `string'
PUBLIC	??_C@_0BK@KNGMOODP@XML?1campentermodalwnd?4xml?$AA@ ; `string'
PUBLIC	??_C@_0BK@BCDLEGLI@XML?1tournamentinfownd?4xml?$AA@ ; `string'
PUBLIC	??_C@_0BK@GFCKKGML@XML?1lobbytradeinfownd?4xml?$AA@ ; `string'
PUBLIC	??_C@_0BK@LNBHEKEL@XML?1lobbyplazainfownd?4xml?$AA@ ; `string'
PUBLIC	??_C@_0BL@NADIGFPB@XML?1lobbybattleinfownd?4xml?$AA@ ; `string'
PUBLIC	??_C@_0BJ@FOOEHAJD@XML?1lobbycampinfownd?4xml?$AA@ ; `string'
PUBLIC	??_C@_0BF@NLJEIFGK@XML?1lobbychatwnd?4xml?$AA@	; `string'
PUBLIC	??_C@_0BB@FBLMIOBE@XML?1lobbywnd?4xml?$AA@	; `string'
EXTRN	__imp_??0ioHashString@@QAE@PBD@Z:PROC
EXTRN	__imp_?SetWndPos@ioWnd@@QAEXHH@Z:PROC
EXTRN	__imp_?GetYPos@ioWnd@@QBEHXZ:PROC
EXTRN	?GUIPosLoadInt@ioSP2GUIManager@@QAEHPBD0HH@Z:PROC ; ioSP2GUIManager::GUIPosLoadInt
EXTRN	__imp_?GetXPos@ioWnd@@QBEHXZ:PROC
EXTRN	__imp_?AddWnd@ioGUIManager@@QAEPAVioWnd@@PBD@Z:PROC
;	COMDAT ??_C@_0BD@GFCAHKPI@lobby?5event?5effect?$AA@
CONST	SEGMENT
??_C@_0BD@GFCAHKPI@lobby?5event?5effect?$AA@ DB 'lobby event effect', 00H ; `string'
CONST	ENDS
;	COMDAT ??_C@_0BH@EAKPEOPJ@XML?1shuffletooptip?4xml?$AA@
CONST	SEGMENT
??_C@_0BH@EAKPEOPJ@XML?1shuffletooptip?4xml?$AA@ DB 'XML/shuffletooptip.x'
	DB	'ml', 00H					; `string'
CONST	ENDS
;	COMDAT ??_C@_0BK@KNGMOODP@XML?1campentermodalwnd?4xml?$AA@
CONST	SEGMENT
??_C@_0BK@KNGMOODP@XML?1campentermodalwnd?4xml?$AA@ DB 'XML/campentermoda'
	DB	'lwnd.xml', 00H				; `string'
CONST	ENDS
;	COMDAT ??_C@_0BK@BCDLEGLI@XML?1tournamentinfownd?4xml?$AA@
CONST	SEGMENT
??_C@_0BK@BCDLEGLI@XML?1tournamentinfownd?4xml?$AA@ DB 'XML/tournamentinf'
	DB	'ownd.xml', 00H				; `string'
CONST	ENDS
;	COMDAT ??_C@_0BK@GFCKKGML@XML?1lobbytradeinfownd?4xml?$AA@
CONST	SEGMENT
??_C@_0BK@GFCKKGML@XML?1lobbytradeinfownd?4xml?$AA@ DB 'XML/lobbytradeinf'
	DB	'ownd.xml', 00H				; `string'
CONST	ENDS
;	COMDAT ??_C@_0BK@LNBHEKEL@XML?1lobbyplazainfownd?4xml?$AA@
CONST	SEGMENT
??_C@_0BK@LNBHEKEL@XML?1lobbyplazainfownd?4xml?$AA@ DB 'XML/lobbyplazainf'
	DB	'ownd.xml', 00H				; `string'
CONST	ENDS
;	COMDAT ??_C@_0BL@NADIGFPB@XML?1lobbybattleinfownd?4xml?$AA@
CONST	SEGMENT
??_C@_0BL@NADIGFPB@XML?1lobbybattleinfownd?4xml?$AA@ DB 'XML/lobbybattlei'
	DB	'nfownd.xml', 00H				; `string'
CONST	ENDS
;	COMDAT ??_C@_0BJ@FOOEHAJD@XML?1lobbycampinfownd?4xml?$AA@
CONST	SEGMENT
??_C@_0BJ@FOOEHAJD@XML?1lobbycampinfownd?4xml?$AA@ DB 'XML/lobbycampinfow'
	DB	'nd.xml', 00H				; `string'
CONST	ENDS
;	COMDAT ??_C@_0BF@NLJEIFGK@XML?1lobbychatwnd?4xml?$AA@
CONST	SEGMENT
??_C@_0BF@NLJEIFGK@XML?1lobbychatwnd?4xml?$AA@ DB 'XML/lobbychatwnd.xml', 00H ; `string'
CONST	ENDS
;	COMDAT ??_C@_0BB@FBLMIOBE@XML?1lobbywnd?4xml?$AA@
CONST	SEGMENT
??_C@_0BB@FBLMIOBE@XML?1lobbywnd?4xml?$AA@ DB 'XML/lobbywnd.xml', 00H ; `string'
; Function compile flags: /Ogsp
CONST	ENDS
;	COMDAT ?iwm_create@LobbyMainWnd@@UAEXXZ
_TEXT	SEGMENT
$T537919 = -4						; size = 4
?iwm_create@LobbyMainWnd@@UAEXXZ PROC			; LobbyMainWnd::iwm_create, COMDAT
; _this$ = ecx

; 1386 : {

  00000	55		 push	 ebp
  00001	8b ec		 mov	 ebp, esp
  00003	51		 push	 ecx
  00004	53		 push	 ebx
  00005	56		 push	 esi
  00006	57		 push	 edi
  00007	8b f9		 mov	 edi, ecx

; 1387 : 	g_GUIMgr.AddWnd( "XML/lobbywnd.xml", this );

  00009	57		 push	 edi
  0000a	68 00 00 00 00	 push	 OFFSET ??_C@_0BB@FBLMIOBE@XML?1lobbywnd?4xml?$AA@
  0000f	e8 00 00 00 00	 call	 ?GetSingleton@ioSP2GUIManager@@SAAAV1@XZ ; ioSP2GUIManager::GetSingleton
  00014	8b 35 00 00 00
	00		 mov	 esi, DWORD PTR __imp_?AddWnd@ioGUIManager@@QAEPAVioWnd@@PBDPAV2@@Z
  0001a	8b c8		 mov	 ecx, eax
  0001c	ff d6		 call	 esi

; 1388 : 	g_GUIMgr.AddWnd( "XML/lobbychatwnd.xml", this );

  0001e	57		 push	 edi
  0001f	68 00 00 00 00	 push	 OFFSET ??_C@_0BF@NLJEIFGK@XML?1lobbychatwnd?4xml?$AA@
  00024	e8 00 00 00 00	 call	 ?GetSingleton@ioSP2GUIManager@@SAAAV1@XZ ; ioSP2GUIManager::GetSingleton
  00029	8b c8		 mov	 ecx, eax
  0002b	ff d6		 call	 esi

; 1389 : 	g_GUIMgr.AddWnd( "XML/lobbycampinfownd.xml", this );

  0002d	57		 push	 edi
  0002e	68 00 00 00 00	 push	 OFFSET ??_C@_0BJ@FOOEHAJD@XML?1lobbycampinfownd?4xml?$AA@
  00033	e8 00 00 00 00	 call	 ?GetSingleton@ioSP2GUIManager@@SAAAV1@XZ ; ioSP2GUIManager::GetSingleton
  00038	8b c8		 mov	 ecx, eax
  0003a	ff d6		 call	 esi

; 1390 : 	g_GUIMgr.AddWnd( "XML/lobbybattleinfownd.xml", this );

  0003c	57		 push	 edi
  0003d	68 00 00 00 00	 push	 OFFSET ??_C@_0BL@NADIGFPB@XML?1lobbybattleinfownd?4xml?$AA@
  00042	e8 00 00 00 00	 call	 ?GetSingleton@ioSP2GUIManager@@SAAAV1@XZ ; ioSP2GUIManager::GetSingleton
  00047	8b c8		 mov	 ecx, eax
  00049	ff d6		 call	 esi

; 1391 : 	g_GUIMgr.AddWnd( "XML/lobbyplazainfownd.xml", this );

  0004b	57		 push	 edi
  0004c	bb 00 00 00 00	 mov	 ebx, OFFSET ??_C@_0BK@LNBHEKEL@XML?1lobbyplazainfownd?4xml?$AA@
  00051	53		 push	 ebx
  00052	e8 00 00 00 00	 call	 ?GetSingleton@ioSP2GUIManager@@SAAAV1@XZ ; ioSP2GUIManager::GetSingleton
  00057	8b c8		 mov	 ecx, eax
  00059	ff d6		 call	 esi

; 1392 : 	g_GUIMgr.AddWnd( "XML/lobbytradeinfownd.xml", this );

  0005b	57		 push	 edi
  0005c	68 00 00 00 00	 push	 OFFSET ??_C@_0BK@GFCKKGML@XML?1lobbytradeinfownd?4xml?$AA@
  00061	e8 00 00 00 00	 call	 ?GetSingleton@ioSP2GUIManager@@SAAAV1@XZ ; ioSP2GUIManager::GetSingleton
  00066	8b c8		 mov	 ecx, eax
  00068	ff d6		 call	 esi

; 1393 : 	g_GUIMgr.AddWnd( "XML/tournamentinfownd.xml", this );

  0006a	57		 push	 edi
  0006b	68 00 00 00 00	 push	 OFFSET ??_C@_0BK@BCDLEGLI@XML?1tournamentinfownd?4xml?$AA@
  00070	e8 00 00 00 00	 call	 ?GetSingleton@ioSP2GUIManager@@SAAAV1@XZ ; ioSP2GUIManager::GetSingleton
  00075	8b c8		 mov	 ecx, eax
  00077	ff d6		 call	 esi

; 1394 : 	g_GUIMgr.AddWnd( "XML/campentermodalwnd.xml" );

  00079	68 00 00 00 00	 push	 OFFSET ??_C@_0BK@KNGMOODP@XML?1campentermodalwnd?4xml?$AA@
  0007e	e8 00 00 00 00	 call	 ?GetSingleton@ioSP2GUIManager@@SAAAV1@XZ ; ioSP2GUIManager::GetSingleton
  00083	8b c8		 mov	 ecx, eax
  00085	ff 15 00 00 00
	00		 call	 DWORD PTR __imp_?AddWnd@ioGUIManager@@QAEPAVioWnd@@PBD@Z

; 1395 : 	g_GUIMgr.AddWnd( "XML/lobbyplazainfownd.xml", this );

  0008b	57		 push	 edi
  0008c	53		 push	 ebx
  0008d	e8 00 00 00 00	 call	 ?GetSingleton@ioSP2GUIManager@@SAAAV1@XZ ; ioSP2GUIManager::GetSingleton
  00092	8b c8		 mov	 ecx, eax
  00094	ff d6		 call	 esi

; 1396 : 	g_GUIMgr.AddWnd( "XML/shuffletooptip.xml", this );

  00096	57		 push	 edi
  00097	68 00 00 00 00	 push	 OFFSET ??_C@_0BH@EAKPEOPJ@XML?1shuffletooptip?4xml?$AA@
  0009c	e8 00 00 00 00	 call	 ?GetSingleton@ioSP2GUIManager@@SAAAV1@XZ ; ioSP2GUIManager::GetSingleton
  000a1	8b c8		 mov	 ecx, eax
  000a3	ff d6		 call	 esi

; 1397 : 	
; 1398 : 	int iXPos = g_GUIMgr.GUIPosLoadInt( "LobbyMainWnd", "XPos", GetXPos() ,POS_SAVE_VERSION );

  000a5	6a 04		 push	 4
  000a7	8b cf		 mov	 ecx, edi
  000a9	ff 15 00 00 00
	00		 call	 DWORD PTR __imp_?GetXPos@ioWnd@@QBEHXZ
  000af	50		 push	 eax
  000b0	68 00 00 00 00	 push	 OFFSET ??_C@_04LNCKCFGC@XPos?$AA@
  000b5	be 00 00 00 00	 mov	 esi, OFFSET ??_C@_0N@IPHCJECP@LobbyMainWnd?$AA@
  000ba	56		 push	 esi
  000bb	e8 00 00 00 00	 call	 ?GetSingleton@ioSP2GUIManager@@SAAAV1@XZ ; ioSP2GUIManager::GetSingleton
  000c0	8b c8		 mov	 ecx, eax
  000c2	e8 00 00 00 00	 call	 ?GUIPosLoadInt@ioSP2GUIManager@@QAEHPBD0HH@Z ; ioSP2GUIManager::GUIPosLoadInt

; 1399 : 	int iYPos = g_GUIMgr.GUIPosLoadInt( "LobbyMainWnd", "YPos", GetYPos() ,POS_SAVE_VERSION );

  000c7	6a 04		 push	 4
  000c9	8b cf		 mov	 ecx, edi
  000cb	8b d8		 mov	 ebx, eax
  000cd	ff 15 00 00 00
	00		 call	 DWORD PTR __imp_?GetYPos@ioWnd@@QBEHXZ
  000d3	50		 push	 eax
  000d4	68 00 00 00 00	 push	 OFFSET ??_C@_04IAEKAMNC@YPos?$AA@
  000d9	56		 push	 esi
  000da	e8 00 00 00 00	 call	 ?GetSingleton@ioSP2GUIManager@@SAAAV1@XZ ; ioSP2GUIManager::GetSingleton
  000df	8b c8		 mov	 ecx, eax
  000e1	e8 00 00 00 00	 call	 ?GUIPosLoadInt@ioSP2GUIManager@@QAEHPBD0HH@Z ; ioSP2GUIManager::GUIPosLoadInt
  000e6	8b f0		 mov	 esi, eax

; 1400 : 
; 1401 : 	if( COMPARE( iXPos, 0, Setting::Width() ) && COMPARE( iYPos, 0, Setting::Height() ) )

  000e8	85 db		 test	 ebx, ebx
  000ea	78 20		 js	 SHORT $LN2@iwm_create@2
  000ec	e8 00 00 00 00	 call	 ?Width@Setting@@SAHXZ	; Setting::Width
  000f1	3b d8		 cmp	 ebx, eax
  000f3	7d 17		 jge	 SHORT $LN2@iwm_create@2
  000f5	85 f6		 test	 esi, esi
  000f7	78 13		 js	 SHORT $LN2@iwm_create@2
  000f9	e8 00 00 00 00	 call	 ?Height@Setting@@SAHXZ	; Setting::Height
  000fe	3b f0		 cmp	 esi, eax
  00100	7d 0a		 jge	 SHORT $LN2@iwm_create@2

; 1402 : 	{
; 1403 : 		SetWndPos( iXPos, iYPos );

  00102	56		 push	 esi
  00103	53		 push	 ebx
  00104	8b cf		 mov	 ecx, edi
  00106	ff 15 00 00 00
	00		 call	 DWORD PTR __imp_?SetWndPos@ioWnd@@QAEXHH@Z
$LN2@iwm_create@2:

; 1404 : 	}
; 1405 : 	m_iDefaultX = GetXPos();

  0010c	8b cf		 mov	 ecx, edi
  0010e	ff 15 00 00 00
	00		 call	 DWORD PTR __imp_?GetXPos@ioWnd@@QBEHXZ

; 1406 : 	m_iDefaultY = GetYPos();

  00114	8b cf		 mov	 ecx, edi
  00116	89 87 90 01 00
	00		 mov	 DWORD PTR [edi+400], eax
  0011c	ff 15 00 00 00
	00		 call	 DWORD PTR __imp_?GetYPos@ioWnd@@QBEHXZ

; 1407 : 
; 1408 : 	ioWnd * pEffWnd = FindChildWnd(ID_EFFECT_WND);

  00122	68 f8 01 00 00	 push	 504			; 000001f8H
  00127	8b cf		 mov	 ecx, edi
  00129	89 87 94 01 00
	00		 mov	 DWORD PTR [edi+404], eax
  0012f	ff 15 00 00 00
	00		 call	 DWORD PTR __imp_?FindChildWnd@ioWnd@@QAEPAV1@K@Z
  00135	8b f0		 mov	 esi, eax

; 1409 : 	if(pEffWnd)

  00137	85 f6		 test	 esi, esi
  00139	74 23		 je	 SHORT $LN1@iwm_create@2

; 1410 : 	{
; 1411 : 		m_pEventEff = pEffWnd->GetEffect("lobby event effect");

  0013b	83 ec 10	 sub	 esp, 16			; 00000010H
  0013e	8b cc		 mov	 ecx, esp
  00140	89 65 fc	 mov	 DWORD PTR $T537919[ebp], esp
  00143	68 00 00 00 00	 push	 OFFSET ??_C@_0BD@GFCAHKPI@lobby?5event?5effect?$AA@
  00148	ff 15 00 00 00
	00		 call	 DWORD PTR __imp_??0ioHashString@@QAE@PBD@Z
  0014e	8b 06		 mov	 eax, DWORD PTR [esi]
  00150	8b ce		 mov	 ecx, esi
  00152	ff 90 28 01 00
	00		 call	 DWORD PTR [eax+296]
  00158	89 87 5c 02 00
	00		 mov	 DWORD PTR [edi+604], eax
$LN1@iwm_create@2:

; 1412 : 	}
; 1413 : }

  0015e	5f		 pop	 edi
  0015f	5e		 pop	 esi
  00160	5b		 pop	 ebx
  00161	c9		 leave
  00162	c3		 ret	 0
?iwm_create@LobbyMainWnd@@UAEXXZ ENDP			; LobbyMainWnd::iwm_create
_TEXT	ENDS
PUBLIC	??_C@_0BH@COOJFIFO@LobbyMainWnd?3?3iwm_show?$AA@ ; `string'
PUBLIC	__$ArrayPad$
EXTRN	__imp_?Start@ioUI3DEffectRender@@QAEXXZ:PROC
EXTRN	?IsAutoFix@ioKeyManager@@QAE_NXZ:PROC		; ioKeyManager::IsAutoFix
EXTRN	?GetSingleton@ioKeyManager@@SAAAV1@XZ:PROC	; ioKeyManager::GetSingleton
EXTRN	??6SP2Packet@@QAEAAV0@_N@Z:PROC			; SP2Packet::operator<<
EXTRN	?SetBackground@ioInterfaceBackground@@QAEXW4BackGroundType@@@Z:PROC ; ioInterfaceBackground::SetBackground
EXTRN	?GetSingleton@ioInterfaceBackground@@SAAAV1@XZ:PROC ; ioInterfaceBackground::GetSingleton
;	COMDAT ?bShow@?1??iwm_show@LobbyMainWnd@@UAEXXZ@4_NA
_BSS	SEGMENT
?bShow@?1??iwm_show@LobbyMainWnd@@UAEXXZ@4_NA DB 01H DUP (?) ; `LobbyMainWnd::iwm_show'::`2'::bShow
_BSS	ENDS
;	COMDAT ??_C@_0BH@COOJFIFO@LobbyMainWnd?3?3iwm_show?$AA@
CONST	SEGMENT
??_C@_0BH@COOJFIFO@LobbyMainWnd?3?3iwm_show?$AA@ DB 'LobbyMainWnd::iwm_sh'
	DB	'ow', 00H					; `string'
CONST	ENDS
;	COMDAT xdata$x
xdata$x	SEGMENT
__unwindtable$?iwm_show@LobbyMainWnd@@UAEXXZ DD 0ffffffffH
	DD	FLAT:__unwindfunclet$?iwm_show@LobbyMainWnd@@UAEXXZ$0
__ehfuncinfo$?iwm_show@LobbyMainWnd@@UAEXXZ DD 019930522H
	DD	01H
	DD	FLAT:__unwindtable$?iwm_show@LobbyMainWnd@@UAEXXZ
	DD	2 DUP(00H)
	DD	2 DUP(00H)
	DD	00H
	DD	01H
; Function compile flags: /Ogsp
xdata$x	ENDS
;	COMDAT ?iwm_show@LobbyMainWnd@@UAEXXZ
_TEXT	SEGMENT
_kPacket$ = -32808					; size = 32792
__$ArrayPad$ = -16					; size = 4
__$EHRec$ = -12						; size = 12
?iwm_show@LobbyMainWnd@@UAEXXZ PROC			; LobbyMainWnd::iwm_show, COMDAT
; _this$ = ecx

; 1416 : {

  00000	55		 push	 ebp
  00001	8b ec		 mov	 ebp, esp
  00003	6a ff		 push	 -1
  00005	68 00 00 00 00	 push	 __ehhandler$?iwm_show@LobbyMainWnd@@UAEXXZ
  0000a	64 a1 00 00 00
	00		 mov	 eax, DWORD PTR fs:0
  00010	50		 push	 eax
  00011	b8 1c 80 00 00	 mov	 eax, 32796		; 0000801cH
  00016	e8 00 00 00 00	 call	 __chkstk
  0001b	a1 00 00 00 00	 mov	 eax, DWORD PTR ___security_cookie
  00020	33 c5		 xor	 eax, ebp
  00022	89 45 f0	 mov	 DWORD PTR __$ArrayPad$[ebp], eax
  00025	53		 push	 ebx
  00026	56		 push	 esi
  00027	50		 push	 eax
  00028	8d 45 f4	 lea	 eax, DWORD PTR __$EHRec$[ebp]
  0002b	64 a3 00 00 00
	00		 mov	 DWORD PTR fs:0, eax

; 1417 : 	ShowChildWnd( ID_LOBBY_WND );	

  00031	33 db		 xor	 ebx, ebx
  00033	53		 push	 ebx
  00034	6a 01		 push	 1
  00036	8b f1		 mov	 esi, ecx
  00038	ff 15 00 00 00
	00		 call	 DWORD PTR __imp_?ShowChildWnd@ioWnd@@QAEXK_N@Z

; 1418 : 
; 1419 : 	g_BackgroundMgr.SetBackground( BGT_LOBBY );

  0003e	6a 01		 push	 1
  00040	e8 00 00 00 00	 call	 ?GetSingleton@ioInterfaceBackground@@SAAAV1@XZ ; ioInterfaceBackground::GetSingleton
  00045	8b c8		 mov	 ecx, eax
  00047	e8 00 00 00 00	 call	 ?SetBackground@ioInterfaceBackground@@QAEXW4BackGroundType@@@Z ; ioInterfaceBackground::SetBackground

; 1420 : 
; 1421 : 	// 로비 입장
; 1422 : 
; 1423 : 	SP2Packet kPacket( CTPK_JOIN_SERVER_LOBBY_INFO );

  0004c	68 67 01 00 00	 push	 359			; 00000167H
  00051	8d 8d d8 7f ff
	ff		 lea	 ecx, DWORD PTR _kPacket$[ebp]
  00057	e8 00 00 00 00	 call	 ??0SP2Packet@@QAE@K@Z	; SP2Packet::SP2Packet

; 1424 : 	kPacket << true;

  0005c	6a 01		 push	 1
  0005e	8d 8d d8 7f ff
	ff		 lea	 ecx, DWORD PTR _kPacket$[ebp]
  00064	89 5d fc	 mov	 DWORD PTR __$EHRec$[ebp+8], ebx
  00067	e8 00 00 00 00	 call	 ??6SP2Packet@@QAEAAV0@_N@Z ; SP2Packet::operator<<

; 1425 : 	TCPNetwork::SendToServer( kPacket );

  0006c	8d 85 d8 7f ff
	ff		 lea	 eax, DWORD PTR _kPacket$[ebp]
  00072	50		 push	 eax
  00073	e8 00 00 00 00	 call	 ?SendToServer@TCPNetwork@@YAXAAVSP2Packet@@@Z ; TCPNetwork::SendToServer
  00078	59		 pop	 ecx

; 1426 : 
; 1427 : 
; 1428 : 	// special notice
; 1429 : 	static bool bShow = false;
; 1430 : 	if( !bShow )

  00079	38 1d 00 00 00
	00		 cmp	 BYTE PTR ?bShow@?1??iwm_show@LobbyMainWnd@@UAEXXZ@4_NA, bl
  0007f	75 43		 jne	 SHORT $LN2@iwm_show@2

; 1431 : 	{
; 1432 : 		bShow = true;

  00081	c6 05 00 00 00
	00 01		 mov	 BYTE PTR ?bShow@?1??iwm_show@LobbyMainWnd@@UAEXXZ@4_NA, 1

; 1433 : 		if( g_KeyManager.IsAutoFix() )

  00088	e8 00 00 00 00	 call	 ?GetSingleton@ioKeyManager@@SAAAV1@XZ ; ioKeyManager::GetSingleton
  0008d	8b c8		 mov	 ecx, eax
  0008f	e8 00 00 00 00	 call	 ?IsAutoFix@ioKeyManager@@QAE_NXZ ; ioKeyManager::IsAutoFix
  00094	84 c0		 test	 al, al
  00096	74 2c		 je	 SHORT $LN2@iwm_show@2

; 1434 : 			g_GUIMgr.SetMsgBox( MB_OK, NULL, STR(1) );

  00098	53		 push	 ebx
  00099	6a 01		 push	 1
  0009b	68 00 00 00 00	 push	 OFFSET ??_C@_00CNPNBAHC@?$AA@
  000a0	68 00 00 00 00	 push	 OFFSET ??_C@_0BH@COOJFIFO@LobbyMainWnd?3?3iwm_show?$AA@
  000a5	ff 15 00 00 00
	00		 call	 DWORD PTR __imp_?GetSingleton@ioStringManager@@SAAAV1@XZ
  000ab	8b c8		 mov	 ecx, eax
  000ad	ff 15 00 00 00
	00		 call	 DWORD PTR __imp_?GetString@ioStringManager@@QAEPADPBD0HW4FileNamePrefix@1@@Z
  000b3	50		 push	 eax
  000b4	53		 push	 ebx
  000b5	53		 push	 ebx
  000b6	e8 00 00 00 00	 call	 ?GetSingleton@ioSP2GUIManager@@SAAAV1@XZ ; ioSP2GUIManager::GetSingleton
  000bb	50		 push	 eax
  000bc	e8 00 00 00 00	 call	 ?SetMsgBox@ioSP2GUIManager@@QAAXHPAVioWnd@@PBDZZ ; ioSP2GUIManager::SetMsgBox
  000c1	83 c4 10	 add	 esp, 16			; 00000010H
$LN2@iwm_show@2:

; 1435 : 	}
; 1436 : 
; 1437 : 	if(m_pEventEff)

  000c4	8b 8e 5c 02 00
	00		 mov	 ecx, DWORD PTR [esi+604]
  000ca	3b cb		 cmp	 ecx, ebx
  000cc	74 06		 je	 SHORT $LN1@iwm_show@2

; 1438 : 		m_pEventEff->Start();

  000ce	ff 15 00 00 00
	00		 call	 DWORD PTR __imp_?Start@ioUI3DEffectRender@@QAEXXZ
$LN1@iwm_show@2:

; 1439 : }

  000d4	83 4d fc ff	 or	 DWORD PTR __$EHRec$[ebp+8], -1
  000d8	8d 8d d8 7f ff
	ff		 lea	 ecx, DWORD PTR _kPacket$[ebp]
  000de	e8 00 00 00 00	 call	 ??1SP2Packet@@UAE@XZ	; SP2Packet::~SP2Packet
  000e3	8b 4d f4	 mov	 ecx, DWORD PTR __$EHRec$[ebp]
  000e6	64 89 0d 00 00
	00 00		 mov	 DWORD PTR fs:0, ecx
  000ed	59		 pop	 ecx
  000ee	5e		 pop	 esi
  000ef	5b		 pop	 ebx
  000f0	8b 4d f0	 mov	 ecx, DWORD PTR __$ArrayPad$[ebp]
  000f3	33 cd		 xor	 ecx, ebp
  000f5	e8 00 00 00 00	 call	 @__security_check_cookie@4
  000fa	c9		 leave
  000fb	c3		 ret	 0
_TEXT	ENDS
;	COMDAT text$x
text$x	SEGMENT
__unwindfunclet$?iwm_show@LobbyMainWnd@@UAEXXZ$0:
  00000	8d 8d d8 7f ff
	ff		 lea	 ecx, DWORD PTR _kPacket$[ebp]
  00006	e9 00 00 00 00	 jmp	 ??1SP2Packet@@UAE@XZ	; SP2Packet::~SP2Packet
__ehhandler$?iwm_show@LobbyMainWnd@@UAEXXZ:
  0000b	8b 54 24 08	 mov	 edx, DWORD PTR [esp+8]
  0000f	8d 42 0c	 lea	 eax, DWORD PTR [edx+12]
  00012	8b 8a d8 7f ff
	ff		 mov	 ecx, DWORD PTR [edx-32808]
  00018	33 c8		 xor	 ecx, eax
  0001a	e8 00 00 00 00	 call	 @__security_check_cookie@4
  0001f	8b 4a fc	 mov	 ecx, DWORD PTR [edx-4]
  00022	33 c8		 xor	 ecx, eax
  00024	e8 00 00 00 00	 call	 @__security_check_cookie@4
  00029	b8 00 00 00 00	 mov	 eax, OFFSET __ehfuncinfo$?iwm_show@LobbyMainWnd@@UAEXXZ
  0002e	e9 00 00 00 00	 jmp	 ___CxxFrameHandler3
text$x	ENDS
?iwm_show@LobbyMainWnd@@UAEXXZ ENDP			; LobbyMainWnd::iwm_show
PUBLIC	__$ArrayPad$
EXTRN	__imp_?Stop@ioUI3DEffectRender@@QAEXXZ:PROC
EXTRN	?SetModeHelpTooltip@CQuickModeToolTip@@QAEXPAVioWnd@@H@Z:PROC ; CQuickModeToolTip::SetModeHelpTooltip
EXTRN	?SetModeHelpTooltip@ModeHelpTooltip@@QAEXPAVioWnd@@ABVioHashString@@H@Z:PROC ; ModeHelpTooltip::SetModeHelpTooltip
;	COMDAT xdata$x
xdata$x	SEGMENT
__unwindtable$?iwm_hide@LobbyMainWnd@@UAEXXZ DD 0ffffffffH
	DD	FLAT:__unwindfunclet$?iwm_hide@LobbyMainWnd@@UAEXXZ$0
	DD	0ffffffffH
	DD	FLAT:__unwindfunclet$?iwm_hide@LobbyMainWnd@@UAEXXZ$1
__ehfuncinfo$?iwm_hide@LobbyMainWnd@@UAEXXZ DD 019930522H
	DD	02H
	DD	FLAT:__unwindtable$?iwm_hide@LobbyMainWnd@@UAEXXZ
	DD	2 DUP(00H)
	DD	2 DUP(00H)
	DD	00H
	DD	01H
; Function compile flags: /Ogsp
xdata$x	ENDS
;	COMDAT ?iwm_hide@LobbyMainWnd@@UAEXXZ
_TEXT	SEGMENT
$T537936 = -32824					; size = 16
_kPacket$ = -32808					; size = 32792
__$ArrayPad$ = -16					; size = 4
__$EHRec$ = -12						; size = 12
?iwm_hide@LobbyMainWnd@@UAEXXZ PROC			; LobbyMainWnd::iwm_hide, COMDAT
; _this$ = ecx

; 1442 : {

  00000	55		 push	 ebp
  00001	8b ec		 mov	 ebp, esp
  00003	6a ff		 push	 -1
  00005	68 00 00 00 00	 push	 __ehhandler$?iwm_hide@LobbyMainWnd@@UAEXXZ
  0000a	64 a1 00 00 00
	00		 mov	 eax, DWORD PTR fs:0
  00010	50		 push	 eax
  00011	b8 2c 80 00 00	 mov	 eax, 32812		; 0000802cH
  00016	e8 00 00 00 00	 call	 __chkstk
  0001b	a1 00 00 00 00	 mov	 eax, DWORD PTR ___security_cookie
  00020	33 c5		 xor	 eax, ebp
  00022	89 45 f0	 mov	 DWORD PTR __$ArrayPad$[ebp], eax
  00025	53		 push	 ebx
  00026	56		 push	 esi
  00027	57		 push	 edi
  00028	50		 push	 eax
  00029	8d 45 f4	 lea	 eax, DWORD PTR __$EHRec$[ebp]
  0002c	64 a3 00 00 00
	00		 mov	 DWORD PTR fs:0, eax

; 1443 : 	HideChildWnd( ID_LOBBY_WND );

  00032	8b 35 00 00 00
	00		 mov	 esi, DWORD PTR __imp_?HideChildWnd@ioWnd@@QAEXK_N@Z
  00038	33 db		 xor	 ebx, ebx
  0003a	53		 push	 ebx
  0003b	6a 01		 push	 1
  0003d	8b f9		 mov	 edi, ecx
  0003f	ff d6		 call	 esi

; 1444 : 	HideChildWnd( ID_CHAT_WND );

  00041	53		 push	 ebx
  00042	6a 02		 push	 2
  00044	8b cf		 mov	 ecx, edi
  00046	ff d6		 call	 esi

; 1445 : 	HideChildWnd( ID_CAMP_INFO_WND );

  00048	53		 push	 ebx
  00049	6a 03		 push	 3
  0004b	8b cf		 mov	 ecx, edi
  0004d	ff d6		 call	 esi

; 1446 : 	HideChildWnd( ID_BATTLE_INFO_WND );

  0004f	53		 push	 ebx
  00050	6a 04		 push	 4
  00052	8b cf		 mov	 ecx, edi
  00054	ff d6		 call	 esi

; 1447 : 	HideChildWnd( ID_PLAZA_INFO_WND );

  00056	53		 push	 ebx
  00057	6a 05		 push	 5
  00059	8b cf		 mov	 ecx, edi
  0005b	ff d6		 call	 esi

; 1448 : 	HideChildWnd( ID_TRADE_INFO_WND );

  0005d	53		 push	 ebx
  0005e	6a 06		 push	 6
  00060	8b cf		 mov	 ecx, edi
  00062	ff d6		 call	 esi

; 1449 : 	HideChildWnd( ID_TOURNAMENT_INFO_WND );

  00064	53		 push	 ebx
  00065	6a 07		 push	 7
  00067	8b cf		 mov	 ecx, edi
  00069	ff d6		 call	 esi

; 1450 : 
; 1451 : 	ModeHelpTooltip *pModeHelpTooltip = (ModeHelpTooltip*)( m_pModeHelpTooltip );	

  0006b	8b b7 9c 01 00
	00		 mov	 esi, DWORD PTR [edi+412]

; 1452 : 	if( pModeHelpTooltip )

  00071	3b f3		 cmp	 esi, ebx
  00073	74 35		 je	 SHORT $LN3@iwm_hide

; 1453 : 	{
; 1454 : 		pModeHelpTooltip->SetModeHelpTooltip( NULL, "", -1 );

  00075	68 00 00 00 00	 push	 OFFSET ??_C@_00CNPNBAHC@?$AA@
  0007a	8d 8d c8 7f ff
	ff		 lea	 ecx, DWORD PTR $T537936[ebp]
  00080	ff 15 00 00 00
	00		 call	 DWORD PTR __imp_??0ioHashString@@QAE@PBD@Z
  00086	6a ff		 push	 -1
  00088	8d 85 c8 7f ff
	ff		 lea	 eax, DWORD PTR $T537936[ebp]
  0008e	50		 push	 eax
  0008f	53		 push	 ebx
  00090	8b ce		 mov	 ecx, esi
  00092	89 5d fc	 mov	 DWORD PTR __$EHRec$[ebp+8], ebx
  00095	e8 00 00 00 00	 call	 ?SetModeHelpTooltip@ModeHelpTooltip@@QAEXPAVioWnd@@ABVioHashString@@H@Z ; ModeHelpTooltip::SetModeHelpTooltip
  0009a	83 4d fc ff	 or	 DWORD PTR __$EHRec$[ebp+8], -1
  0009e	8d 8d c8 7f ff
	ff		 lea	 ecx, DWORD PTR $T537936[ebp]
  000a4	ff 15 00 00 00
	00		 call	 DWORD PTR __imp_??1ioHashString@@QAE@XZ
$LN3@iwm_hide:

; 1455 : 	}	
; 1456 : 
; 1457 : 	CQuickModeToolTip *pQuickTooltip = (CQuickModeToolTip*)( m_pQuickJoinTooltip );

  000aa	8b 8f a0 01 00
	00		 mov	 ecx, DWORD PTR [edi+416]

; 1458 : 	if(pQuickTooltip)

  000b0	3b cb		 cmp	 ecx, ebx
  000b2	74 08		 je	 SHORT $LN2@iwm_hide

; 1459 : 		pQuickTooltip->SetModeHelpTooltip(NULL, -1);

  000b4	6a ff		 push	 -1
  000b6	53		 push	 ebx
  000b7	e8 00 00 00 00	 call	 ?SetModeHelpTooltip@CQuickModeToolTip@@QAEXPAVioWnd@@H@Z ; CQuickModeToolTip::SetModeHelpTooltip
$LN2@iwm_hide:

; 1460 : 
; 1461 : 
; 1462 : 	// 로비 퇴장
; 1463 : 	SP2Packet kPacket( CTPK_JOIN_SERVER_LOBBY_INFO );

  000bc	68 67 01 00 00	 push	 359			; 00000167H
  000c1	8d 8d d8 7f ff
	ff		 lea	 ecx, DWORD PTR _kPacket$[ebp]
  000c7	e8 00 00 00 00	 call	 ??0SP2Packet@@QAE@K@Z	; SP2Packet::SP2Packet

; 1464 : 	kPacket << false;

  000cc	53		 push	 ebx
  000cd	8d 8d d8 7f ff
	ff		 lea	 ecx, DWORD PTR _kPacket$[ebp]
  000d3	c7 45 fc 01 00
	00 00		 mov	 DWORD PTR __$EHRec$[ebp+8], 1
  000da	e8 00 00 00 00	 call	 ??6SP2Packet@@QAEAAV0@_N@Z ; SP2Packet::operator<<

; 1465 : 	TCPNetwork::SendToServer( kPacket );

  000df	8d 85 d8 7f ff
	ff		 lea	 eax, DWORD PTR _kPacket$[ebp]
  000e5	50		 push	 eax
  000e6	e8 00 00 00 00	 call	 ?SendToServer@TCPNetwork@@YAXAAVSP2Packet@@@Z ; TCPNetwork::SendToServer

; 1466 : 	if(m_pEventEff)

  000eb	8b bf 5c 02 00
	00		 mov	 edi, DWORD PTR [edi+604]
  000f1	59		 pop	 ecx
  000f2	3b fb		 cmp	 edi, ebx
  000f4	74 08		 je	 SHORT $LN1@iwm_hide

; 1467 : 		m_pEventEff->Stop();

  000f6	8b cf		 mov	 ecx, edi
  000f8	ff 15 00 00 00
	00		 call	 DWORD PTR __imp_?Stop@ioUI3DEffectRender@@QAEXXZ
$LN1@iwm_hide:

; 1468 : }

  000fe	83 4d fc ff	 or	 DWORD PTR __$EHRec$[ebp+8], -1
  00102	8d 8d d8 7f ff
	ff		 lea	 ecx, DWORD PTR _kPacket$[ebp]
  00108	e8 00 00 00 00	 call	 ??1SP2Packet@@UAE@XZ	; SP2Packet::~SP2Packet
  0010d	8b 4d f4	 mov	 ecx, DWORD PTR __$EHRec$[ebp]
  00110	64 89 0d 00 00
	00 00		 mov	 DWORD PTR fs:0, ecx
  00117	59		 pop	 ecx
  00118	5f		 pop	 edi
  00119	5e		 pop	 esi
  0011a	5b		 pop	 ebx
  0011b	8b 4d f0	 mov	 ecx, DWORD PTR __$ArrayPad$[ebp]
  0011e	33 cd		 xor	 ecx, ebp
  00120	e8 00 00 00 00	 call	 @__security_check_cookie@4
  00125	c9		 leave
  00126	c3		 ret	 0
_TEXT	ENDS
;	COMDAT text$x
text$x	SEGMENT
__unwindfunclet$?iwm_hide@LobbyMainWnd@@UAEXXZ$0:
  00000	8d 8d c8 7f ff
	ff		 lea	 ecx, DWORD PTR $T537936[ebp]
  00006	ff 25 00 00 00
	00		 jmp	 DWORD PTR __imp_??1ioHashString@@QAE@XZ
__unwindfunclet$?iwm_hide@LobbyMainWnd@@UAEXXZ$1:
  0000c	8d 8d d8 7f ff
	ff		 lea	 ecx, DWORD PTR _kPacket$[ebp]
  00012	e9 00 00 00 00	 jmp	 ??1SP2Packet@@UAE@XZ	; SP2Packet::~SP2Packet
__ehhandler$?iwm_hide@LobbyMainWnd@@UAEXXZ:
  00017	8b 54 24 08	 mov	 edx, DWORD PTR [esp+8]
  0001b	8d 42 0c	 lea	 eax, DWORD PTR [edx+12]
  0001e	8b 8a c4 7f ff
	ff		 mov	 ecx, DWORD PTR [edx-32828]
  00024	33 c8		 xor	 ecx, eax
  00026	e8 00 00 00 00	 call	 @__security_check_cookie@4
  0002b	8b 4a fc	 mov	 ecx, DWORD PTR [edx-4]
  0002e	33 c8		 xor	 ecx, eax
  00030	e8 00 00 00 00	 call	 @__security_check_cookie@4
  00035	b8 00 00 00 00	 mov	 eax, OFFSET __ehfuncinfo$?iwm_hide@LobbyMainWnd@@UAEXXZ
  0003a	e9 00 00 00 00	 jmp	 ___CxxFrameHandler3
text$x	ENDS
?iwm_hide@LobbyMainWnd@@UAEXXZ ENDP			; LobbyMainWnd::iwm_hide
PUBLIC	??_R0?AVModeHelpTooltip@@@8			; ModeHelpTooltip `RTTI Type Descriptor'
PUBLIC	?SetModeHelpTooltip@LobbyMainWnd@@QAEXPAVioWnd@@ABVioHashString@@H@Z ; LobbyMainWnd::SetModeHelpTooltip
;	COMDAT ??_R0?AVModeHelpTooltip@@@8
_DATA	SEGMENT
??_R0?AVModeHelpTooltip@@@8 DD FLAT:??_7type_info@@6B@	; ModeHelpTooltip `RTTI Type Descriptor'
	DD	00H
	DB	'.?AVModeHelpTooltip@@', 00H
; Function compile flags: /Ogsp
_DATA	ENDS
;	COMDAT ?SetModeHelpTooltip@LobbyMainWnd@@QAEXPAVioWnd@@ABVioHashString@@H@Z
_TEXT	SEGMENT
_pCallWnd$ = 8						; size = 4
_szTitle$ = 12						; size = 4
_iQuickstartModeHelpIndex$ = 16				; size = 4
?SetModeHelpTooltip@LobbyMainWnd@@QAEXPAVioWnd@@ABVioHashString@@H@Z PROC ; LobbyMainWnd::SetModeHelpTooltip, COMDAT
; _this$ = ecx

; 1471 : {

  00000	55		 push	 ebp
  00001	8b ec		 mov	 ebp, esp
  00003	53		 push	 ebx
  00004	56		 push	 esi
  00005	8b f1		 mov	 esi, ecx

; 1472 : 	if( m_pModeHelpTooltip == NULL )

  00007	33 c0		 xor	 eax, eax
  00009	57		 push	 edi
  0000a	bb 00 00 00 00	 mov	 ebx, OFFSET ??_R0?AVModeHelpTooltip@@@8
  0000f	bf 00 00 00 00	 mov	 edi, OFFSET ??_R0?AVioWnd@@@8
  00014	39 86 9c 01 00
	00		 cmp	 DWORD PTR [esi+412], eax
  0001a	75 20		 jne	 SHORT $LN2@SetModeHel

; 1473 : 		m_pModeHelpTooltip = dynamic_cast< ModeHelpTooltip * >( FindChildWnd( ID_MODE_HELP_TOOLTIP ) );

  0001c	50		 push	 eax
  0001d	53		 push	 ebx
  0001e	57		 push	 edi
  0001f	50		 push	 eax
  00020	68 f4 01 00 00	 push	 500			; 000001f4H
  00025	ff 15 00 00 00
	00		 call	 DWORD PTR __imp_?FindChildWnd@ioWnd@@QAEPAV1@K@Z
  0002b	50		 push	 eax
  0002c	e8 00 00 00 00	 call	 ___RTDynamicCast
  00031	83 c4 14	 add	 esp, 20			; 00000014H
  00034	89 86 9c 01 00
	00		 mov	 DWORD PTR [esi+412], eax
  0003a	33 c0		 xor	 eax, eax
$LN2@SetModeHel:

; 1474 : 
; 1475 : 	ModeHelpTooltip *pModeHelpTooltip = dynamic_cast< ModeHelpTooltip * >( m_pModeHelpTooltip );	

  0003c	50		 push	 eax
  0003d	53		 push	 ebx
  0003e	57		 push	 edi
  0003f	50		 push	 eax
  00040	ff b6 9c 01 00
	00		 push	 DWORD PTR [esi+412]
  00046	e8 00 00 00 00	 call	 ___RTDynamicCast
  0004b	83 c4 14	 add	 esp, 20			; 00000014H
  0004e	5f		 pop	 edi
  0004f	5e		 pop	 esi
  00050	5b		 pop	 ebx

; 1476 : 	if( pModeHelpTooltip )

  00051	85 c0		 test	 eax, eax
  00053	74 08		 je	 SHORT $LN1@SetModeHel

; 1477 : 	{
; 1478 : 		pModeHelpTooltip->SetModeHelpTooltip(  pCallWnd, szTitle, iQuickstartModeHelpIndex );

  00055	8b c8		 mov	 ecx, eax

; 1479 : 	}	
; 1480 : }

  00057	5d		 pop	 ebp

; 1477 : 	{
; 1478 : 		pModeHelpTooltip->SetModeHelpTooltip(  pCallWnd, szTitle, iQuickstartModeHelpIndex );

  00058	e9 00 00 00 00	 jmp	 ?SetModeHelpTooltip@ModeHelpTooltip@@QAEXPAVioWnd@@ABVioHashString@@H@Z ; ModeHelpTooltip::SetModeHelpTooltip
$LN1@SetModeHel:

; 1479 : 	}	
; 1480 : }

  0005d	5d		 pop	 ebp
  0005e	c2 0c 00	 ret	 12			; 0000000cH
?SetModeHelpTooltip@LobbyMainWnd@@QAEXPAVioWnd@@ABVioHashString@@H@Z ENDP ; LobbyMainWnd::SetModeHelpTooltip
_TEXT	ENDS
PUBLIC	?SetQuickJoinTooltip@LobbyMainWnd@@QAEXPAVioWnd@@H@Z ; LobbyMainWnd::SetQuickJoinTooltip
; Function compile flags: /Ogsp
;	COMDAT ?SetQuickJoinTooltip@LobbyMainWnd@@QAEXPAVioWnd@@H@Z
_TEXT	SEGMENT
_pCallWnd$ = 8						; size = 4
_nMode$ = 12						; size = 4
?SetQuickJoinTooltip@LobbyMainWnd@@QAEXPAVioWnd@@H@Z PROC ; LobbyMainWnd::SetQuickJoinTooltip, COMDAT
; _this$ = ecx

; 1483 : {

  00000	55		 push	 ebp
  00001	8b ec		 mov	 ebp, esp
  00003	56		 push	 esi

; 1484 : 	if( m_pQuickJoinTooltip == NULL )

  00004	8d b1 a0 01 00
	00		 lea	 esi, DWORD PTR [ecx+416]
  0000a	83 3e 00	 cmp	 DWORD PTR [esi], 0
  0000d	75 0d		 jne	 SHORT $LN2@SetQuickJo

; 1485 : 		m_pQuickJoinTooltip = (CQuickModeToolTip*)( FindChildWnd( ID_QUICKJOIN_TOOLTIP ) );

  0000f	68 f5 01 00 00	 push	 501			; 000001f5H
  00014	ff 15 00 00 00
	00		 call	 DWORD PTR __imp_?FindChildWnd@ioWnd@@QAEPAV1@K@Z
  0001a	89 06		 mov	 DWORD PTR [esi], eax
$LN2@SetQuickJo:

; 1486 : 
; 1487 : 	CQuickModeToolTip *pQuickTooltip = (CQuickModeToolTip*)( m_pQuickJoinTooltip );

  0001c	8b 0e		 mov	 ecx, DWORD PTR [esi]
  0001e	5e		 pop	 esi

; 1488 : 	if( pQuickTooltip )

  0001f	85 c9		 test	 ecx, ecx
  00021	74 06		 je	 SHORT $LN1@SetQuickJo

; 1490 : }

  00023	5d		 pop	 ebp

; 1489 : 		pQuickTooltip->SetModeHelpTooltip(pCallWnd, nMode);

  00024	e9 00 00 00 00	 jmp	 ?SetModeHelpTooltip@CQuickModeToolTip@@QAEXPAVioWnd@@H@Z ; CQuickModeToolTip::SetModeHelpTooltip
$LN1@SetQuickJo:

; 1490 : }

  00029	5d		 pop	 ebp
  0002a	c2 08 00	 ret	 8
?SetQuickJoinTooltip@LobbyMainWnd@@QAEXPAVioWnd@@H@Z ENDP ; LobbyMainWnd::SetQuickJoinTooltip
_TEXT	ENDS
PUBLIC	?SetShuffleToolTip@LobbyMainWnd@@QAEX_N@Z	; LobbyMainWnd::SetShuffleToolTip
; Function compile flags: /Ogsp
;	COMDAT ?SetShuffleToolTip@LobbyMainWnd@@QAEX_N@Z
_TEXT	SEGMENT
_bShow$ = 8						; size = 1
?SetShuffleToolTip@LobbyMainWnd@@QAEX_N@Z PROC		; LobbyMainWnd::SetShuffleToolTip, COMDAT
; _this$ = ecx

; 1493 : {

  00000	55		 push	 ebp
  00001	8b ec		 mov	 ebp, esp

; 1494 : 	if( bShow )

  00003	80 7d 08 00	 cmp	 BYTE PTR _bShow$[ebp], 0
  00007	56		 push	 esi
  00008	74 27		 je	 SHORT $LN3@SetShuffle

; 1495 : 	{
; 1496 : 		ioWnd *pWnd = FindChildWnd( ID_SHUFFLE_TOOLTIP );

  0000a	68 f6 01 00 00	 push	 502			; 000001f6H
  0000f	ff 15 00 00 00
	00		 call	 DWORD PTR __imp_?FindChildWnd@ioWnd@@QAEPAV1@K@Z
  00015	8b f0		 mov	 esi, eax

; 1497 : 		if( pWnd && !pWnd->IsShow() )

  00017	85 f6		 test	 esi, esi
  00019	74 23		 je	 SHORT $LN1@SetShuffle
  0001b	8b ce		 mov	 ecx, esi
  0001d	ff 15 00 00 00
	00		 call	 DWORD PTR __imp_?IsShow@ioWnd@@QBE_NXZ
  00023	84 c0		 test	 al, al
  00025	75 17		 jne	 SHORT $LN1@SetShuffle

; 1498 : 			pWnd->ShowWnd();

  00027	8b ce		 mov	 ecx, esi
  00029	ff 15 00 00 00
	00		 call	 DWORD PTR __imp_?ShowWnd@ioWnd@@QAEXXZ

; 1499 : 	}
; 1500 : 	else

  0002f	eb 0d		 jmp	 SHORT $LN1@SetShuffle
$LN3@SetShuffle:

; 1501 : 	{
; 1502 : 		HideChildWnd( ID_SHUFFLE_TOOLTIP );

  00031	6a 00		 push	 0
  00033	68 f6 01 00 00	 push	 502			; 000001f6H
  00038	ff 15 00 00 00
	00		 call	 DWORD PTR __imp_?HideChildWnd@ioWnd@@QAEXK_N@Z
$LN1@SetShuffle:
  0003e	5e		 pop	 esi

; 1503 : 	}
; 1504 : }

  0003f	5d		 pop	 ebp
  00040	c2 04 00	 ret	 4
?SetShuffleToolTip@LobbyMainWnd@@QAEX_N@Z ENDP		; LobbyMainWnd::SetShuffleToolTip
; Function compile flags: /Ogsp
_TEXT	ENDS
;	COMDAT ?iwm_esc@LobbyMainWnd@@UAE_NXZ
_TEXT	SEGMENT
?iwm_esc@LobbyMainWnd@@UAE_NXZ PROC			; LobbyMainWnd::iwm_esc, COMDAT
; _this$ = ecx

; 1507 : {

  00000	56		 push	 esi

; 1508 : 	LobbyChatWnd *pChatWnd = dynamic_cast<LobbyChatWnd*>( FindChildWnd(ID_CHAT_WND) );

  00001	6a 00		 push	 0
  00003	68 00 00 00 00	 push	 OFFSET ??_R0?AVLobbyChatWnd@@@8
  00008	68 00 00 00 00	 push	 OFFSET ??_R0?AVioWnd@@@8
  0000d	6a 00		 push	 0
  0000f	6a 02		 push	 2
  00011	ff 15 00 00 00
	00		 call	 DWORD PTR __imp_?FindChildWnd@ioWnd@@QAEPAV1@K@Z
  00017	50		 push	 eax
  00018	e8 00 00 00 00	 call	 ___RTDynamicCast
  0001d	8b f0		 mov	 esi, eax
  0001f	83 c4 14	 add	 esp, 20			; 00000014H

; 1509 : 	if( pChatWnd && pChatWnd->IsShow() )

  00022	85 f6		 test	 esi, esi
  00024	74 17		 je	 SHORT $LN1@iwm_esc@2
  00026	8b ce		 mov	 ecx, esi
  00028	ff 15 00 00 00
	00		 call	 DWORD PTR __imp_?IsShow@ioWnd@@QBE_NXZ
  0002e	84 c0		 test	 al, al
  00030	74 0b		 je	 SHORT $LN1@iwm_esc@2

; 1510 : 		return pChatWnd->iwm_esc();

  00032	8b 06		 mov	 eax, DWORD PTR [esi]
  00034	8b ce		 mov	 ecx, esi
  00036	5e		 pop	 esi
  00037	ff a0 ac 00 00
	00		 jmp	 DWORD PTR [eax+172]
$LN1@iwm_esc@2:

; 1511 : 	return false;

  0003d	32 c0		 xor	 al, al
  0003f	5e		 pop	 esi

; 1512 : }

  00040	c3		 ret	 0
?iwm_esc@LobbyMainWnd@@UAE_NXZ ENDP			; LobbyMainWnd::iwm_esc
_TEXT	ENDS
EXTRN	__imp_?SetPositionToDefault@ioMovingWnd@@UAEXHH_N0@Z:PROC
; Function compile flags: /Ogsp
;	COMDAT ?SetPositionToDefault@LobbyMainWnd@@UAEXHH_N0@Z
_TEXT	SEGMENT
_iParentWidth$ = 8					; size = 4
_iParentHeight$ = 12					; size = 4
_bChildMove$ = 16					; size = 1
_bCreate$ = 20						; size = 1
?SetPositionToDefault@LobbyMainWnd@@UAEXHH_N0@Z PROC	; LobbyMainWnd::SetPositionToDefault, COMDAT
; _this$ = ecx

; 1556 : {

  00000	55		 push	 ebp
  00001	8b ec		 mov	 ebp, esp
  00003	56		 push	 esi

; 1557 : 	ioMovingWnd::SetPositionToDefault( iParentWidth, iParentHeight, bChildMove, bCreate );

  00004	ff 75 14	 push	 DWORD PTR _bCreate$[ebp]
  00007	8b f1		 mov	 esi, ecx
  00009	ff 75 10	 push	 DWORD PTR _bChildMove$[ebp]
  0000c	ff 75 0c	 push	 DWORD PTR _iParentHeight$[ebp]
  0000f	ff 75 08	 push	 DWORD PTR _iParentWidth$[ebp]
  00012	ff 15 00 00 00
	00		 call	 DWORD PTR __imp_?SetPositionToDefault@ioMovingWnd@@UAEXHH_N0@Z

; 1558 : 
; 1559 : 	if( !bCreate )

  00018	80 7d 14 00	 cmp	 BYTE PTR _bCreate$[ebp], 0
  0001c	75 1c		 jne	 SHORT $LN1@SetPositio

; 1560 : 	{
; 1561 : 		m_iDefaultX = GetXPos();

  0001e	8b ce		 mov	 ecx, esi
  00020	ff 15 00 00 00
	00		 call	 DWORD PTR __imp_?GetXPos@ioWnd@@QBEHXZ

; 1562 : 		m_iDefaultY = GetYPos();

  00026	8b ce		 mov	 ecx, esi
  00028	89 86 90 01 00
	00		 mov	 DWORD PTR [esi+400], eax
  0002e	ff 15 00 00 00
	00		 call	 DWORD PTR __imp_?GetYPos@ioWnd@@QBEHXZ
  00034	89 86 94 01 00
	00		 mov	 DWORD PTR [esi+404], eax
$LN1@SetPositio:
  0003a	5e		 pop	 esi

; 1563 : 	}
; 1564 : }

  0003b	5d		 pop	 ebp
  0003c	c2 10 00	 ret	 16			; 00000010H
?SetPositionToDefault@LobbyMainWnd@@UAEXHH_N0@Z ENDP	; LobbyMainWnd::SetPositionToDefault
_TEXT	ENDS
PUBLIC	??_C@_05DNIIFBMG@?$CFs?5?$CFs?$AA@		; `string'
PUBLIC	??_C@_0CA@KOGEAFDO@LobbyMainWnd?3?3PlayBackgroundOGG?$AA@ ; `string'
PUBLIC	??_C@_0CN@GMNFKGGD@There?5are?5?$CFd?5free?5Mbytes?5of?5exte@ ; `string'
PUBLIC	??_C@_0CM@JDEOAGKO@There?5are?5?$CFd?5free?5Mbytes?5of?5virt@ ; `string'
PUBLIC	??_C@_0CN@BMCLKNEO@There?5are?5?$CFd?5total?5Mbytes?5of?5vir@ ; `string'
PUBLIC	??_C@_0CJ@DAJMLJFP@There?5are?5?$CFd?5free?5Mbytes?5of?5pagi@ ; `string'
PUBLIC	??_C@_0CK@JKOIEDHH@There?5are?5?$CFd?5total?5Mbytes?5of?5pag@ ; `string'
PUBLIC	??_C@_0CN@KBJGDEHL@There?5are?5?$CFd?5free?5Mbytes?5of?5phys@ ; `string'
PUBLIC	??_C@_0CO@BBDLDKI@There?5are?5?$CFd?5total?5Mbytes?5of?5phy@ ; `string'
PUBLIC	??_C@_0CH@JECOCODG@There?5is?5?5?$CFd?5percent?5of?5memory?5i@ ; `string'
PUBLIC	??_C@_0BB@CPGJMDHL@Resource?1wave?1?$CFs?$AA@	; `string'
PUBLIC	_this$GSCopy$
PUBLIC	?PlayBackgroundOGG@LobbyMainWnd@@QAEXXZ		; LobbyMainWnd::PlayBackgroundOGG
EXTRN	__imp_?PrintTimeAndLog@CLog@@QAAXHPADZZ:PROC
EXTRN	__imp_?LOG@@3VCLog@@A:BYTE
EXTRN	__imp__GlobalMemoryStatusEx@4:PROC
EXTRN	__imp_?PlayStream@ioSoundManager@@QAEX_N@Z:PROC
EXTRN	__imp_?OpenOggStream@ioSoundManager@@QAEXPBD@Z:PROC
EXTRN	__imp__sprintf:PROC
EXTRN	__imp_?c_str@ioHashString@@QBEPBDXZ:PROC
EXTRN	__imp_?IsEmpty@ioHashString@@QBE_NXZ:PROC
EXTRN	__SEH_epilog4_GS:PROC
EXTRN	__except_handler4:PROC
EXTRN	__SEH_prolog4_GS:PROC
;	COMDAT ??_C@_05DNIIFBMG@?$CFs?5?$CFs?$AA@
CONST	SEGMENT
??_C@_05DNIIFBMG@?$CFs?5?$CFs?$AA@ DB '%s %s', 00H	; `string'
CONST	ENDS
;	COMDAT ??_C@_0CA@KOGEAFDO@LobbyMainWnd?3?3PlayBackgroundOGG?$AA@
CONST	SEGMENT
??_C@_0CA@KOGEAFDO@LobbyMainWnd?3?3PlayBackgroundOGG?$AA@ DB 'LobbyMainWn'
	DB	'd::PlayBackgroundOGG', 00H			; `string'
CONST	ENDS
;	COMDAT ??_C@_0CN@GMNFKGGD@There?5are?5?$CFd?5free?5Mbytes?5of?5exte@
CONST	SEGMENT
??_C@_0CN@GMNFKGGD@There?5are?5?$CFd?5free?5Mbytes?5of?5exte@ DB 'There a'
	DB	're %d free Mbytes of extended memory.', 00H	; `string'
CONST	ENDS
;	COMDAT ??_C@_0CM@JDEOAGKO@There?5are?5?$CFd?5free?5Mbytes?5of?5virt@
CONST	SEGMENT
??_C@_0CM@JDEOAGKO@There?5are?5?$CFd?5free?5Mbytes?5of?5virt@ DB 'There a'
	DB	're %d free Mbytes of virtual memory.', 00H	; `string'
CONST	ENDS
;	COMDAT ??_C@_0CN@BMCLKNEO@There?5are?5?$CFd?5total?5Mbytes?5of?5vir@
CONST	SEGMENT
??_C@_0CN@BMCLKNEO@There?5are?5?$CFd?5total?5Mbytes?5of?5vir@ DB 'There a'
	DB	're %d total Mbytes of virtual memory.', 00H	; `string'
CONST	ENDS
;	COMDAT ??_C@_0CJ@DAJMLJFP@There?5are?5?$CFd?5free?5Mbytes?5of?5pagi@
CONST	SEGMENT
??_C@_0CJ@DAJMLJFP@There?5are?5?$CFd?5free?5Mbytes?5of?5pagi@ DB 'There a'
	DB	're %d free Mbytes of paging file.', 00H	; `string'
CONST	ENDS
;	COMDAT ??_C@_0CK@JKOIEDHH@There?5are?5?$CFd?5total?5Mbytes?5of?5pag@
CONST	SEGMENT
??_C@_0CK@JKOIEDHH@There?5are?5?$CFd?5total?5Mbytes?5of?5pag@ DB 'There a'
	DB	're %d total Mbytes of paging file.', 00H	; `string'
CONST	ENDS
;	COMDAT ??_C@_0CN@KBJGDEHL@There?5are?5?$CFd?5free?5Mbytes?5of?5phys@
CONST	SEGMENT
??_C@_0CN@KBJGDEHL@There?5are?5?$CFd?5free?5Mbytes?5of?5phys@ DB 'There a'
	DB	're %d free Mbytes of physical memory.', 00H	; `string'
CONST	ENDS
;	COMDAT ??_C@_0CO@BBDLDKI@There?5are?5?$CFd?5total?5Mbytes?5of?5phy@
CONST	SEGMENT
??_C@_0CO@BBDLDKI@There?5are?5?$CFd?5total?5Mbytes?5of?5phy@ DB 'There ar'
	DB	'e %d total Mbytes of physical memory.', 00H	; `string'
CONST	ENDS
;	COMDAT ??_C@_0CH@JECOCODG@There?5is?5?5?$CFd?5percent?5of?5memory?5i@
CONST	SEGMENT
??_C@_0CH@JECOCODG@There?5is?5?5?$CFd?5percent?5of?5memory?5i@ DB 'There '
	DB	'is  %d percent of memory in use.', 00H	; `string'
CONST	ENDS
;	COMDAT ??_C@_0BB@CPGJMDHL@Resource?1wave?1?$CFs?$AA@
CONST	SEGMENT
??_C@_0BB@CPGJMDHL@Resource?1wave?1?$CFs?$AA@ DB 'Resource/wave/%s', 00H ; `string'
CONST	ENDS
;	COMDAT xdata$x
xdata$x	SEGMENT
__sehtable$?PlayBackgroundOGG@LobbyMainWnd@@QAEXXZ DD 0ffffffe4H
	DD	00H
	DD	0fffffe8cH
	DD	00H
	DD	0fffffffeH
	DD	FLAT:$LN7@PlayBackgr
	DD	FLAT:$LN8@PlayBackgr
; Function compile flags: /Ogsp
xdata$x	ENDS
;	COMDAT ?PlayBackgroundOGG@LobbyMainWnd@@QAEXXZ
_TEXT	SEGMENT
_this$GSCopy$ = -356					; size = 4
_statex$534395 = -352					; size = 64
_szName$534392 = -288					; size = 260
__$ArrayPad$ = -28					; size = 4
__$SEHRec$ = -24					; size = 24
?PlayBackgroundOGG@LobbyMainWnd@@QAEXXZ PROC		; LobbyMainWnd::PlayBackgroundOGG, COMDAT
; _this$ = ecx

; 1567 : {

  00000	68 54 01 00 00	 push	 340			; 00000154H
  00005	68 00 00 00 00	 push	 OFFSET __sehtable$?PlayBackgroundOGG@LobbyMainWnd@@QAEXXZ
  0000a	e8 00 00 00 00	 call	 __SEH_prolog4_GS
  0000f	8b f1		 mov	 esi, ecx

; 1568 : 	if( !IsShow() )

  00011	89 b5 9c fe ff
	ff		 mov	 DWORD PTR _this$GSCopy$[ebp], esi
  00017	ff 15 00 00 00
	00		 call	 DWORD PTR __imp_?IsShow@ioWnd@@QBE_NXZ
  0001d	84 c0		 test	 al, al
  0001f	0f 84 cf 01 00
	00		 je	 $LN10@PlayBackgr

; 1569 : 		return;
; 1570 : 
; 1571 : 	if( !m_szBackOgg.IsEmpty() )

  00025	8d be 4c 02 00
	00		 lea	 edi, DWORD PTR [esi+588]
  0002b	8b cf		 mov	 ecx, edi
  0002d	ff 15 00 00 00
	00		 call	 DWORD PTR __imp_?IsEmpty@ioHashString@@QBE_NXZ
  00033	84 c0		 test	 al, al
  00035	0f 85 b9 01 00
	00		 jne	 $LN10@PlayBackgr

; 1572 : 	{
; 1573 : 		g_SoundMgr.StopStream();

  0003b	8b 35 00 00 00
	00		 mov	 esi, DWORD PTR __imp_?GetSingleton@ioSoundManager@@SAAAV1@XZ
  00041	ff d6		 call	 esi
  00043	8b c8		 mov	 ecx, eax
  00045	ff 15 00 00 00
	00		 call	 DWORD PTR __imp_?StopStream@ioSoundManager@@QAEXXZ

; 1574 : 
; 1575 : 		char szName[MAX_PATH];
; 1576 : 		sprintf( szName, "Resource/wave/%s", m_szBackOgg.c_str() );

  0004b	8b cf		 mov	 ecx, edi
  0004d	ff 15 00 00 00
	00		 call	 DWORD PTR __imp_?c_str@ioHashString@@QBEPBDXZ
  00053	50		 push	 eax
  00054	68 00 00 00 00	 push	 OFFSET ??_C@_0BB@CPGJMDHL@Resource?1wave?1?$CFs?$AA@
  00059	8d 85 e0 fe ff
	ff		 lea	 eax, DWORD PTR _szName$534392[ebp]
  0005f	50		 push	 eax
  00060	ff 15 00 00 00
	00		 call	 DWORD PTR __imp__sprintf
  00066	83 c4 0c	 add	 esp, 12			; 0000000cH

; 1577 : 
; 1578 : 		__try

  00069	83 65 fc 00	 and	 DWORD PTR __$SEHRec$[ebp+20], 0

; 1579 : 		{
; 1580 : 			g_SoundMgr.OpenOggStream( szName );

  0006d	8d 85 e0 fe ff
	ff		 lea	 eax, DWORD PTR _szName$534392[ebp]
  00073	50		 push	 eax
  00074	ff d6		 call	 esi
  00076	8b c8		 mov	 ecx, eax
  00078	ff 15 00 00 00
	00		 call	 DWORD PTR __imp_?OpenOggStream@ioSoundManager@@QAEXPBD@Z

; 1581 : 			g_SoundMgr.PlayStream( true );

  0007e	6a 01		 push	 1
  00080	ff d6		 call	 esi
  00082	8b c8		 mov	 ecx, eax
  00084	ff 15 00 00 00
	00		 call	 DWORD PTR __imp_?PlayStream@ioSoundManager@@QAEX_N@Z

; 1582 : 		}

  0008a	e9 5e 01 00 00	 jmp	 $LN12@PlayBackgr
$LN7@PlayBackgr:
$LN13@PlayBackgr:

; 1583 : 		__except( EXCEPTION_EXECUTE_HANDLER )

  0008f	33 c0		 xor	 eax, eax
  00091	40		 inc	 eax
$LN11@PlayBackgr:
$LN9@PlayBackgr:
  00092	c3		 ret	 0
$LN8@PlayBackgr:
  00093	8b 65 e8	 mov	 esp, DWORD PTR __$SEHRec$[ebp]

; 1584 : 		{
; 1585 : 			MEMORYSTATUSEX statex;
; 1586 : 			statex.dwLength = sizeof (statex);

  00096	c7 85 a0 fe ff
	ff 40 00 00 00	 mov	 DWORD PTR _statex$534395[ebp], 64 ; 00000040H

; 1587 : 			GlobalMemoryStatusEx (&statex);

  000a0	8d 85 a0 fe ff
	ff		 lea	 eax, DWORD PTR _statex$534395[ebp]
  000a6	50		 push	 eax
  000a7	ff 15 00 00 00
	00		 call	 DWORD PTR __imp__GlobalMemoryStatusEx@4

; 1588 : 
; 1589 : 			LOG.PrintTimeAndLog(0, ("There is  %d percent of memory in use."),statex.dwMemoryLoad);

  000ad	ff b5 a4 fe ff
	ff		 push	 DWORD PTR _statex$534395[ebp+4]
  000b3	68 00 00 00 00	 push	 OFFSET ??_C@_0CH@JECOCODG@There?5is?5?5?$CFd?5percent?5of?5memory?5i@
  000b8	33 ff		 xor	 edi, edi
  000ba	57		 push	 edi
  000bb	ff 35 00 00 00
	00		 push	 DWORD PTR __imp_?LOG@@3VCLog@@A
  000c1	8b 35 00 00 00
	00		 mov	 esi, DWORD PTR __imp_?PrintTimeAndLog@CLog@@QAAXHPADZZ
  000c7	ff d6		 call	 esi

; 1590 : 			LOG.PrintTimeAndLog(0, ("There are %d total Mbytes of physical memory."),statex.ullTotalPhys/1048576);

  000c9	8b 85 a8 fe ff
	ff		 mov	 eax, DWORD PTR _statex$534395[ebp+8]
  000cf	8b 8d ac fe ff
	ff		 mov	 ecx, DWORD PTR _statex$534395[ebp+12]
  000d5	0f ac c8 14	 shrd	 eax, ecx, 20
  000d9	c1 e9 14	 shr	 ecx, 20			; 00000014H
  000dc	51		 push	 ecx
  000dd	50		 push	 eax
  000de	68 00 00 00 00	 push	 OFFSET ??_C@_0CO@BBDLDKI@There?5are?5?$CFd?5total?5Mbytes?5of?5phy@
  000e3	57		 push	 edi
  000e4	ff 35 00 00 00
	00		 push	 DWORD PTR __imp_?LOG@@3VCLog@@A
  000ea	ff d6		 call	 esi

; 1591 : 			LOG.PrintTimeAndLog(0, ("There are %d free Mbytes of physical memory."), statex.ullAvailPhys/1048576);

  000ec	8b 85 b0 fe ff
	ff		 mov	 eax, DWORD PTR _statex$534395[ebp+16]
  000f2	8b 8d b4 fe ff
	ff		 mov	 ecx, DWORD PTR _statex$534395[ebp+20]
  000f8	0f ac c8 14	 shrd	 eax, ecx, 20
  000fc	c1 e9 14	 shr	 ecx, 20			; 00000014H
  000ff	51		 push	 ecx
  00100	50		 push	 eax
  00101	68 00 00 00 00	 push	 OFFSET ??_C@_0CN@KBJGDEHL@There?5are?5?$CFd?5free?5Mbytes?5of?5phys@
  00106	57		 push	 edi
  00107	ff 35 00 00 00
	00		 push	 DWORD PTR __imp_?LOG@@3VCLog@@A
  0010d	ff d6		 call	 esi

; 1592 : 			LOG.PrintTimeAndLog(0, ("There are %d total Mbytes of paging file."), statex.ullTotalPageFile/1048576);

  0010f	8b 85 b8 fe ff
	ff		 mov	 eax, DWORD PTR _statex$534395[ebp+24]
  00115	8b 8d bc fe ff
	ff		 mov	 ecx, DWORD PTR _statex$534395[ebp+28]
  0011b	0f ac c8 14	 shrd	 eax, ecx, 20
  0011f	c1 e9 14	 shr	 ecx, 20			; 00000014H
  00122	51		 push	 ecx
  00123	50		 push	 eax
  00124	68 00 00 00 00	 push	 OFFSET ??_C@_0CK@JKOIEDHH@There?5are?5?$CFd?5total?5Mbytes?5of?5pag@
  00129	57		 push	 edi
  0012a	ff 35 00 00 00
	00		 push	 DWORD PTR __imp_?LOG@@3VCLog@@A
  00130	ff d6		 call	 esi
  00132	83 c4 4c	 add	 esp, 76			; 0000004cH

; 1593 : 			LOG.PrintTimeAndLog(0, ("There are %d free Mbytes of paging file."), statex.ullAvailPageFile/1048576);

  00135	8b 85 c0 fe ff
	ff		 mov	 eax, DWORD PTR _statex$534395[ebp+32]
  0013b	8b 8d c4 fe ff
	ff		 mov	 ecx, DWORD PTR _statex$534395[ebp+36]
  00141	0f ac c8 14	 shrd	 eax, ecx, 20
  00145	c1 e9 14	 shr	 ecx, 20			; 00000014H
  00148	51		 push	 ecx
  00149	50		 push	 eax
  0014a	68 00 00 00 00	 push	 OFFSET ??_C@_0CJ@DAJMLJFP@There?5are?5?$CFd?5free?5Mbytes?5of?5pagi@
  0014f	57		 push	 edi
  00150	ff 35 00 00 00
	00		 push	 DWORD PTR __imp_?LOG@@3VCLog@@A
  00156	ff d6		 call	 esi

; 1594 : 			LOG.PrintTimeAndLog(0, ("There are %d total Mbytes of virtual memory."), statex.ullTotalVirtual/1048576);

  00158	8b 85 c8 fe ff
	ff		 mov	 eax, DWORD PTR _statex$534395[ebp+40]
  0015e	8b 8d cc fe ff
	ff		 mov	 ecx, DWORD PTR _statex$534395[ebp+44]
  00164	0f ac c8 14	 shrd	 eax, ecx, 20
  00168	c1 e9 14	 shr	 ecx, 20			; 00000014H
  0016b	51		 push	 ecx
  0016c	50		 push	 eax
  0016d	68 00 00 00 00	 push	 OFFSET ??_C@_0CN@BMCLKNEO@There?5are?5?$CFd?5total?5Mbytes?5of?5vir@
  00172	57		 push	 edi
  00173	ff 35 00 00 00
	00		 push	 DWORD PTR __imp_?LOG@@3VCLog@@A
  00179	ff d6		 call	 esi

; 1595 : 			LOG.PrintTimeAndLog(0, ("There are %d free Mbytes of virtual memory."), statex.ullAvailVirtual/1048576);

  0017b	8b 85 d0 fe ff
	ff		 mov	 eax, DWORD PTR _statex$534395[ebp+48]
  00181	8b 8d d4 fe ff
	ff		 mov	 ecx, DWORD PTR _statex$534395[ebp+52]
  00187	0f ac c8 14	 shrd	 eax, ecx, 20
  0018b	c1 e9 14	 shr	 ecx, 20			; 00000014H
  0018e	51		 push	 ecx
  0018f	50		 push	 eax
  00190	68 00 00 00 00	 push	 OFFSET ??_C@_0CM@JDEOAGKO@There?5are?5?$CFd?5free?5Mbytes?5of?5virt@
  00195	57		 push	 edi
  00196	ff 35 00 00 00
	00		 push	 DWORD PTR __imp_?LOG@@3VCLog@@A
  0019c	ff d6		 call	 esi

; 1596 : 			LOG.PrintTimeAndLog(0, ("There are %d free Mbytes of extended memory."), statex.ullAvailExtendedVirtual/1048576);

  0019e	8b 85 d8 fe ff
	ff		 mov	 eax, DWORD PTR _statex$534395[ebp+56]
  001a4	8b 8d dc fe ff
	ff		 mov	 ecx, DWORD PTR _statex$534395[ebp+60]
  001aa	0f ac c8 14	 shrd	 eax, ecx, 20
  001ae	c1 e9 14	 shr	 ecx, 20			; 00000014H
  001b1	51		 push	 ecx
  001b2	50		 push	 eax
  001b3	68 00 00 00 00	 push	 OFFSET ??_C@_0CN@GMNFKGGD@There?5are?5?$CFd?5free?5Mbytes?5of?5exte@
  001b8	57		 push	 edi
  001b9	ff 35 00 00 00
	00		 push	 DWORD PTR __imp_?LOG@@3VCLog@@A
  001bf	ff d6		 call	 esi
  001c1	83 c4 50	 add	 esp, 80			; 00000050H

; 1597 : 
; 1598 : 			LOG.PrintTimeAndLog( 0, "%s %s", __FUNCTION__, m_szBackOgg.c_str() );

  001c4	8b 8d 9c fe ff
	ff		 mov	 ecx, DWORD PTR _this$GSCopy$[ebp]
  001ca	81 c1 4c 02 00
	00		 add	 ecx, 588		; 0000024cH
  001d0	ff 15 00 00 00
	00		 call	 DWORD PTR __imp_?c_str@ioHashString@@QBEPBDXZ
  001d6	50		 push	 eax
  001d7	68 00 00 00 00	 push	 OFFSET ??_C@_0CA@KOGEAFDO@LobbyMainWnd?3?3PlayBackgroundOGG?$AA@
  001dc	68 00 00 00 00	 push	 OFFSET ??_C@_05DNIIFBMG@?$CFs?5?$CFs?$AA@
  001e1	57		 push	 edi
  001e2	ff 35 00 00 00
	00		 push	 DWORD PTR __imp_?LOG@@3VCLog@@A
  001e8	ff d6		 call	 esi
  001ea	83 c4 14	 add	 esp, 20			; 00000014H
$LN12@PlayBackgr:

; 1599 : 		}

  001ed	c7 45 fc fe ff
	ff ff		 mov	 DWORD PTR __$SEHRec$[ebp+20], -2 ; fffffffeH
$LN10@PlayBackgr:

; 1600 : 	}
; 1601 : }

  001f4	e8 00 00 00 00	 call	 __SEH_epilog4_GS
  001f9	c3		 ret	 0
?PlayBackgroundOGG@LobbyMainWnd@@QAEXXZ ENDP		; LobbyMainWnd::PlayBackgroundOGG
_TEXT	ENDS
EXTRN	?RenderBackground@ioInterfaceBackground@@QAEXXZ:PROC ; ioInterfaceBackground::RenderBackground
; Function compile flags: /Ogsp
;	COMDAT ?OnRender@LobbyMainWnd@@MAEXXZ
_TEXT	SEGMENT
?OnRender@LobbyMainWnd@@MAEXXZ PROC			; LobbyMainWnd::OnRender, COMDAT
; _this$ = ecx

; 1747 : 	g_BackgroundMgr.RenderBackground();

  00000	e8 00 00 00 00	 call	 ?GetSingleton@ioInterfaceBackground@@SAAAV1@XZ ; ioInterfaceBackground::GetSingleton
  00005	8b c8		 mov	 ecx, eax
  00007	e9 00 00 00 00	 jmp	 ?RenderBackground@ioInterfaceBackground@@QAEXXZ ; ioInterfaceBackground::RenderBackground
?OnRender@LobbyMainWnd@@MAEXXZ ENDP			; LobbyMainWnd::OnRender
_TEXT	ENDS
PUBLIC	?ApplyNormalTeamList@LobbyMainWnd@@QAEXAAVSP2Packet@@@Z ; LobbyMainWnd::ApplyNormalTeamList
; Function compile flags: /Ogsp
;	COMDAT ?ApplyNormalTeamList@LobbyMainWnd@@QAEXAAVSP2Packet@@@Z
_TEXT	SEGMENT
_rkPacket$ = 8						; size = 4
?ApplyNormalTeamList@LobbyMainWnd@@QAEXAAVSP2Packet@@@Z PROC ; LobbyMainWnd::ApplyNormalTeamList, COMDAT
; _this$ = ecx

; 1751 : {

  00000	55		 push	 ebp
  00001	8b ec		 mov	 ebp, esp

; 1752 : 	LobbyWnd *pLobbyWnd = dynamic_cast<LobbyWnd*>(FindChildWnd(ID_LOBBY_WND));

  00003	6a 00		 push	 0
  00005	68 00 00 00 00	 push	 OFFSET ??_R0?AVLobbyWnd@@@8
  0000a	68 00 00 00 00	 push	 OFFSET ??_R0?AVioWnd@@@8
  0000f	6a 00		 push	 0
  00011	6a 01		 push	 1
  00013	ff 15 00 00 00
	00		 call	 DWORD PTR __imp_?FindChildWnd@ioWnd@@QAEPAV1@K@Z
  00019	50		 push	 eax
  0001a	e8 00 00 00 00	 call	 ___RTDynamicCast
  0001f	83 c4 14	 add	 esp, 20			; 00000014H

; 1753 : 	if( pLobbyWnd )

  00022	85 c0		 test	 eax, eax
  00024	74 08		 je	 SHORT $LN1@ApplyNorma@2

; 1754 : 	{
; 1755 : 		pLobbyWnd->ApplyNormalTeamList( rkPacket );

  00026	8b c8		 mov	 ecx, eax

; 1756 : 	}
; 1757 : }

  00028	5d		 pop	 ebp

; 1754 : 	{
; 1755 : 		pLobbyWnd->ApplyNormalTeamList( rkPacket );

  00029	e9 00 00 00 00	 jmp	 ?ApplyNormalTeamList@LobbyWnd@@QAEXAAVSP2Packet@@@Z ; LobbyWnd::ApplyNormalTeamList
$LN1@ApplyNorma@2:

; 1756 : 	}
; 1757 : }

  0002e	5d		 pop	 ebp
  0002f	c2 04 00	 ret	 4
?ApplyNormalTeamList@LobbyMainWnd@@QAEXAAVSP2Packet@@@Z ENDP ; LobbyMainWnd::ApplyNormalTeamList
_TEXT	ENDS
PUBLIC	?ApplyPlazaList@LobbyMainWnd@@QAEXAAVSP2Packet@@@Z ; LobbyMainWnd::ApplyPlazaList
; Function compile flags: /Ogsp
;	COMDAT ?ApplyPlazaList@LobbyMainWnd@@QAEXAAVSP2Packet@@@Z
_TEXT	SEGMENT
_rkPacket$ = 8						; size = 4
?ApplyPlazaList@LobbyMainWnd@@QAEXAAVSP2Packet@@@Z PROC	; LobbyMainWnd::ApplyPlazaList, COMDAT
; _this$ = ecx

; 1760 : {

  00000	55		 push	 ebp
  00001	8b ec		 mov	 ebp, esp

; 1761 : 	LobbyWnd *pLobbyWnd = dynamic_cast<LobbyWnd*>(FindChildWnd(ID_LOBBY_WND));

  00003	6a 00		 push	 0
  00005	68 00 00 00 00	 push	 OFFSET ??_R0?AVLobbyWnd@@@8
  0000a	68 00 00 00 00	 push	 OFFSET ??_R0?AVioWnd@@@8
  0000f	6a 00		 push	 0
  00011	6a 01		 push	 1
  00013	ff 15 00 00 00
	00		 call	 DWORD PTR __imp_?FindChildWnd@ioWnd@@QAEPAV1@K@Z
  00019	50		 push	 eax
  0001a	e8 00 00 00 00	 call	 ___RTDynamicCast
  0001f	83 c4 14	 add	 esp, 20			; 00000014H

; 1762 : 	if( pLobbyWnd )

  00022	85 c0		 test	 eax, eax
  00024	74 08		 je	 SHORT $LN1@ApplyPlaza@2

; 1763 : 	{
; 1764 : 		pLobbyWnd->ApplyPlazaList( rkPacket );

  00026	8b c8		 mov	 ecx, eax

; 1765 : 	}
; 1766 : }

  00028	5d		 pop	 ebp

; 1763 : 	{
; 1764 : 		pLobbyWnd->ApplyPlazaList( rkPacket );

  00029	e9 00 00 00 00	 jmp	 ?ApplyPlazaList@LobbyWnd@@QAEXAAVSP2Packet@@@Z ; LobbyWnd::ApplyPlazaList
$LN1@ApplyPlaza@2:

; 1765 : 	}
; 1766 : }

  0002e	5d		 pop	 ebp
  0002f	c2 04 00	 ret	 4
?ApplyPlazaList@LobbyMainWnd@@QAEXAAVSP2Packet@@@Z ENDP	; LobbyMainWnd::ApplyPlazaList
_TEXT	ENDS
PUBLIC	?ApplyLadderTeamList@LobbyMainWnd@@QAEXAAVSP2Packet@@@Z ; LobbyMainWnd::ApplyLadderTeamList
; Function compile flags: /Ogsp
;	COMDAT ?ApplyLadderTeamList@LobbyMainWnd@@QAEXAAVSP2Packet@@@Z
_TEXT	SEGMENT
_rkPacket$ = 8						; size = 4
?ApplyLadderTeamList@LobbyMainWnd@@QAEXAAVSP2Packet@@@Z PROC ; LobbyMainWnd::ApplyLadderTeamList, COMDAT
; _this$ = ecx

; 1769 : {

  00000	55		 push	 ebp
  00001	8b ec		 mov	 ebp, esp

; 1770 : 	LobbyWnd *pLobbyWnd = dynamic_cast<LobbyWnd*>(FindChildWnd(ID_LOBBY_WND));

  00003	6a 00		 push	 0
  00005	68 00 00 00 00	 push	 OFFSET ??_R0?AVLobbyWnd@@@8
  0000a	68 00 00 00 00	 push	 OFFSET ??_R0?AVioWnd@@@8
  0000f	6a 00		 push	 0
  00011	6a 01		 push	 1
  00013	ff 15 00 00 00
	00		 call	 DWORD PTR __imp_?FindChildWnd@ioWnd@@QAEPAV1@K@Z
  00019	50		 push	 eax
  0001a	e8 00 00 00 00	 call	 ___RTDynamicCast
  0001f	83 c4 14	 add	 esp, 20			; 00000014H

; 1771 : 	if( pLobbyWnd )

  00022	85 c0		 test	 eax, eax
  00024	74 08		 je	 SHORT $LN1@ApplyLadde@3

; 1772 : 	{
; 1773 : 		pLobbyWnd->ApplyLadderTeamList( rkPacket );

  00026	8b c8		 mov	 ecx, eax

; 1774 : 	}	
; 1775 : }

  00028	5d		 pop	 ebp

; 1772 : 	{
; 1773 : 		pLobbyWnd->ApplyLadderTeamList( rkPacket );

  00029	e9 00 00 00 00	 jmp	 ?ApplyLadderTeamList@LobbyWnd@@QAEXAAVSP2Packet@@@Z ; LobbyWnd::ApplyLadderTeamList
$LN1@ApplyLadde@3:

; 1774 : 	}	
; 1775 : }

  0002e	5d		 pop	 ebp
  0002f	c2 04 00	 ret	 4
?ApplyLadderTeamList@LobbyMainWnd@@QAEXAAVSP2Packet@@@Z ENDP ; LobbyMainWnd::ApplyLadderTeamList
_TEXT	ENDS
PUBLIC	??_R0?AVLobbyTradeInfoWnd@@@8			; LobbyTradeInfoWnd `RTTI Type Descriptor'
PUBLIC	??_R0?AVLobbyPlazaInfoWnd@@@8			; LobbyPlazaInfoWnd `RTTI Type Descriptor'
PUBLIC	??_R0?AVLobbyBattleInfoWnd@@@8			; LobbyBattleInfoWnd `RTTI Type Descriptor'
PUBLIC	?ApplyLobbyUserList@LobbyMainWnd@@QAEXAAVSP2Packet@@@Z ; LobbyMainWnd::ApplyLobbyUserList
EXTRN	?ApplyLobbyUserList@LobbyTradeInfoWnd@@QAEXAAVSP2Packet@@@Z:PROC ; LobbyTradeInfoWnd::ApplyLobbyUserList
EXTRN	?ApplyLobbyUserList@LobbyPlazaInfoWnd@@QAEXAAVSP2Packet@@@Z:PROC ; LobbyPlazaInfoWnd::ApplyLobbyUserList
EXTRN	?ApplyLobbyUserList@LobbyBattleInfoWnd@@QAEXAAVSP2Packet@@@Z:PROC ; LobbyBattleInfoWnd::ApplyLobbyUserList
;	COMDAT ??_R0?AVLobbyTradeInfoWnd@@@8
_DATA	SEGMENT
??_R0?AVLobbyTradeInfoWnd@@@8 DD FLAT:??_7type_info@@6B@ ; LobbyTradeInfoWnd `RTTI Type Descriptor'
	DD	00H
	DB	'.?AVLobbyTradeInfoWnd@@', 00H
_DATA	ENDS
;	COMDAT ??_R0?AVLobbyPlazaInfoWnd@@@8
_DATA	SEGMENT
??_R0?AVLobbyPlazaInfoWnd@@@8 DD FLAT:??_7type_info@@6B@ ; LobbyPlazaInfoWnd `RTTI Type Descriptor'
	DD	00H
	DB	'.?AVLobbyPlazaInfoWnd@@', 00H
_DATA	ENDS
;	COMDAT ??_R0?AVLobbyBattleInfoWnd@@@8
_DATA	SEGMENT
??_R0?AVLobbyBattleInfoWnd@@@8 DD FLAT:??_7type_info@@6B@ ; LobbyBattleInfoWnd `RTTI Type Descriptor'
	DD	00H
	DB	'.?AVLobbyBattleInfoWnd@@', 00H
; Function compile flags: /Ogsp
_DATA	ENDS
;	COMDAT ?ApplyLobbyUserList@LobbyMainWnd@@QAEXAAVSP2Packet@@@Z
_TEXT	SEGMENT
_this$ = -12						; size = 4
_pPlazaInfoWnd$ = -8					; size = 4
_pBattleInfoWnd$ = -4					; size = 4
_rkPacket$ = 8						; size = 4
?ApplyLobbyUserList@LobbyMainWnd@@QAEXAAVSP2Packet@@@Z PROC ; LobbyMainWnd::ApplyLobbyUserList, COMDAT
; _this$ = ecx

; 1778 : {

  00000	55		 push	 ebp
  00001	8b ec		 mov	 ebp, esp
  00003	83 ec 0c	 sub	 esp, 12			; 0000000cH
  00006	53		 push	 ebx
  00007	56		 push	 esi

; 1779 : 	LobbyBattleInfoWnd *pBattleInfoWnd = dynamic_cast<LobbyBattleInfoWnd *>(FindChildWnd(ID_BATTLE_INFO_WND));

  00008	8b 35 00 00 00
	00		 mov	 esi, DWORD PTR __imp_?FindChildWnd@ioWnd@@QAEPAV1@K@Z
  0000e	57		 push	 edi
  0000f	33 db		 xor	 ebx, ebx
  00011	53		 push	 ebx
  00012	68 00 00 00 00	 push	 OFFSET ??_R0?AVLobbyBattleInfoWnd@@@8
  00017	bf 00 00 00 00	 mov	 edi, OFFSET ??_R0?AVioWnd@@@8
  0001c	57		 push	 edi
  0001d	53		 push	 ebx
  0001e	6a 04		 push	 4
  00020	89 4d f4	 mov	 DWORD PTR _this$[ebp], ecx
  00023	ff d6		 call	 esi
  00025	50		 push	 eax
  00026	e8 00 00 00 00	 call	 ___RTDynamicCast

; 1780 : 	LobbyPlazaInfoWnd *pPlazaInfoWnd = dynamic_cast<LobbyPlazaInfoWnd*>(FindChildWnd(ID_PLAZA_INFO_WND));

  0002b	8b 4d f4	 mov	 ecx, DWORD PTR _this$[ebp]
  0002e	83 c4 14	 add	 esp, 20			; 00000014H
  00031	53		 push	 ebx
  00032	68 00 00 00 00	 push	 OFFSET ??_R0?AVLobbyPlazaInfoWnd@@@8
  00037	57		 push	 edi
  00038	53		 push	 ebx
  00039	6a 05		 push	 5
  0003b	89 45 fc	 mov	 DWORD PTR _pBattleInfoWnd$[ebp], eax
  0003e	ff d6		 call	 esi
  00040	50		 push	 eax
  00041	e8 00 00 00 00	 call	 ___RTDynamicCast

; 1781 : 	LobbyTradeInfoWnd *pTradeInfoWnd = dynamic_cast<LobbyTradeInfoWnd*>(FindChildWnd(ID_TRADE_INFO_WND));

  00046	8b 4d f4	 mov	 ecx, DWORD PTR _this$[ebp]
  00049	83 c4 14	 add	 esp, 20			; 00000014H
  0004c	53		 push	 ebx
  0004d	68 00 00 00 00	 push	 OFFSET ??_R0?AVLobbyTradeInfoWnd@@@8
  00052	57		 push	 edi
  00053	53		 push	 ebx
  00054	6a 06		 push	 6
  00056	89 45 f8	 mov	 DWORD PTR _pPlazaInfoWnd$[ebp], eax
  00059	ff d6		 call	 esi
  0005b	50		 push	 eax
  0005c	e8 00 00 00 00	 call	 ___RTDynamicCast
  00061	83 c4 14	 add	 esp, 20			; 00000014H
  00064	8b f0		 mov	 esi, eax

; 1782 : 
; 1783 : 	if( pBattleInfoWnd && pBattleInfoWnd->IsShow() )

  00066	39 5d fc	 cmp	 DWORD PTR _pBattleInfoWnd$[ebp], ebx
  00069	74 1a		 je	 SHORT $LN5@ApplyLobby
  0006b	8b 4d fc	 mov	 ecx, DWORD PTR _pBattleInfoWnd$[ebp]
  0006e	ff 15 00 00 00
	00		 call	 DWORD PTR __imp_?IsShow@ioWnd@@QBE_NXZ
  00074	84 c0		 test	 al, al
  00076	74 0d		 je	 SHORT $LN5@ApplyLobby

; 1784 : 		pBattleInfoWnd->ApplyLobbyUserList( rkPacket );

  00078	ff 75 08	 push	 DWORD PTR _rkPacket$[ebp]
  0007b	8b 4d fc	 mov	 ecx, DWORD PTR _pBattleInfoWnd$[ebp]
  0007e	e8 00 00 00 00	 call	 ?ApplyLobbyUserList@LobbyBattleInfoWnd@@QAEXAAVSP2Packet@@@Z ; LobbyBattleInfoWnd::ApplyLobbyUserList
  00083	eb 39		 jmp	 SHORT $LN1@ApplyLobby
$LN5@ApplyLobby:

; 1785 : 	else if( pPlazaInfoWnd && pPlazaInfoWnd->IsShow() )

  00085	39 5d f8	 cmp	 DWORD PTR _pPlazaInfoWnd$[ebp], ebx
  00088	74 1a		 je	 SHORT $LN3@ApplyLobby
  0008a	8b 4d f8	 mov	 ecx, DWORD PTR _pPlazaInfoWnd$[ebp]
  0008d	ff 15 00 00 00
	00		 call	 DWORD PTR __imp_?IsShow@ioWnd@@QBE_NXZ
  00093	84 c0		 test	 al, al
  00095	74 0d		 je	 SHORT $LN3@ApplyLobby

; 1786 : 		pPlazaInfoWnd->ApplyLobbyUserList( rkPacket );

  00097	ff 75 08	 push	 DWORD PTR _rkPacket$[ebp]
  0009a	8b 4d f8	 mov	 ecx, DWORD PTR _pPlazaInfoWnd$[ebp]
  0009d	e8 00 00 00 00	 call	 ?ApplyLobbyUserList@LobbyPlazaInfoWnd@@QAEXAAVSP2Packet@@@Z ; LobbyPlazaInfoWnd::ApplyLobbyUserList
  000a2	eb 1a		 jmp	 SHORT $LN1@ApplyLobby
$LN3@ApplyLobby:

; 1787 : 	else if( pTradeInfoWnd && pTradeInfoWnd->IsShow() )

  000a4	3b f3		 cmp	 esi, ebx
  000a6	74 16		 je	 SHORT $LN1@ApplyLobby
  000a8	8b ce		 mov	 ecx, esi
  000aa	ff 15 00 00 00
	00		 call	 DWORD PTR __imp_?IsShow@ioWnd@@QBE_NXZ
  000b0	84 c0		 test	 al, al
  000b2	74 0a		 je	 SHORT $LN1@ApplyLobby

; 1788 : 		pTradeInfoWnd->ApplyLobbyUserList( rkPacket );

  000b4	ff 75 08	 push	 DWORD PTR _rkPacket$[ebp]
  000b7	8b ce		 mov	 ecx, esi
  000b9	e8 00 00 00 00	 call	 ?ApplyLobbyUserList@LobbyTradeInfoWnd@@QAEXAAVSP2Packet@@@Z ; LobbyTradeInfoWnd::ApplyLobbyUserList
$LN1@ApplyLobby:
  000be	5f		 pop	 edi
  000bf	5e		 pop	 esi
  000c0	5b		 pop	 ebx

; 1789 : }

  000c1	c9		 leave
  000c2	c2 04 00	 ret	 4
?ApplyLobbyUserList@LobbyMainWnd@@QAEXAAVSP2Packet@@@Z ENDP ; LobbyMainWnd::ApplyLobbyUserList
_TEXT	ENDS
PUBLIC	?RefreshBattleList@LobbyMainWnd@@QAEXK@Z	; LobbyMainWnd::RefreshBattleList
; Function compile flags: /Ogsp
;	COMDAT ?RefreshBattleList@LobbyMainWnd@@QAEXK@Z
_TEXT	SEGMENT
_dwIndex$ = 8						; size = 4
?RefreshBattleList@LobbyMainWnd@@QAEXK@Z PROC		; LobbyMainWnd::RefreshBattleList, COMDAT
; _this$ = ecx

; 1792 : {

  00000	55		 push	 ebp
  00001	8b ec		 mov	 ebp, esp
  00003	56		 push	 esi

; 1793 : 	LobbyWnd *pLobbyWnd = dynamic_cast<LobbyWnd*>(FindChildWnd( ID_LOBBY_WND ));

  00004	6a 00		 push	 0
  00006	68 00 00 00 00	 push	 OFFSET ??_R0?AVLobbyWnd@@@8
  0000b	68 00 00 00 00	 push	 OFFSET ??_R0?AVioWnd@@@8
  00010	6a 00		 push	 0
  00012	6a 01		 push	 1
  00014	ff 15 00 00 00
	00		 call	 DWORD PTR __imp_?FindChildWnd@ioWnd@@QAEPAV1@K@Z
  0001a	50		 push	 eax
  0001b	e8 00 00 00 00	 call	 ___RTDynamicCast
  00020	8b f0		 mov	 esi, eax
  00022	83 c4 14	 add	 esp, 20			; 00000014H

; 1794 : 	if( pLobbyWnd && pLobbyWnd->IsShow() )

  00025	85 f6		 test	 esi, esi
  00027	74 16		 je	 SHORT $LN1@RefreshBat@2
  00029	8b ce		 mov	 ecx, esi
  0002b	ff 15 00 00 00
	00		 call	 DWORD PTR __imp_?IsShow@ioWnd@@QBE_NXZ
  00031	84 c0		 test	 al, al
  00033	74 0a		 je	 SHORT $LN1@RefreshBat@2

; 1795 : 		pLobbyWnd->RefreshBattleList( dwIndex );

  00035	ff 75 08	 push	 DWORD PTR _dwIndex$[ebp]
  00038	8b ce		 mov	 ecx, esi
  0003a	e8 00 00 00 00	 call	 ?RefreshBattleList@LobbyWnd@@QAEXK@Z ; LobbyWnd::RefreshBattleList
$LN1@RefreshBat@2:
  0003f	5e		 pop	 esi

; 1796 : }

  00040	5d		 pop	 ebp
  00041	c2 04 00	 ret	 4
?RefreshBattleList@LobbyMainWnd@@QAEXK@Z ENDP		; LobbyMainWnd::RefreshBattleList
_TEXT	ENDS
PUBLIC	?ShowChatWnd@LobbyMainWnd@@QAEX_N@Z		; LobbyMainWnd::ShowChatWnd
; Function compile flags: /Ogsp
;	COMDAT ?ShowChatWnd@LobbyMainWnd@@QAEX_N@Z
_TEXT	SEGMENT
_bShow$ = 8						; size = 1
?ShowChatWnd@LobbyMainWnd@@QAEX_N@Z PROC		; LobbyMainWnd::ShowChatWnd, COMDAT
; _this$ = ecx

; 1799 : {

  00000	55		 push	 ebp
  00001	8b ec		 mov	 ebp, esp

; 1800 : 	if( bShow )

  00003	33 c0		 xor	 eax, eax

; 1801 : 		ShowChildWnd( ID_CHAT_WND );

  00005	50		 push	 eax
  00006	6a 02		 push	 2
  00008	38 45 08	 cmp	 BYTE PTR _bShow$[ebp], al
  0000b	74 08		 je	 SHORT $LN2@ShowChatWn
  0000d	ff 15 00 00 00
	00		 call	 DWORD PTR __imp_?ShowChildWnd@ioWnd@@QAEXK_N@Z

; 1802 : 	else

  00013	eb 06		 jmp	 SHORT $LN1@ShowChatWn
$LN2@ShowChatWn:

; 1803 : 		HideChildWnd( ID_CHAT_WND );

  00015	ff 15 00 00 00
	00		 call	 DWORD PTR __imp_?HideChildWnd@ioWnd@@QAEXK_N@Z
$LN1@ShowChatWn:

; 1804 : }

  0001b	5d		 pop	 ebp
  0001c	c2 04 00	 ret	 4
?ShowChatWnd@LobbyMainWnd@@QAEX_N@Z ENDP		; LobbyMainWnd::ShowChatWnd
_TEXT	ENDS
PUBLIC	?QuestGuide@LobbyMainWnd@@QAE_NHAAM0@Z		; LobbyMainWnd::QuestGuide
; Function compile flags: /Ogsp
;	COMDAT ?QuestGuide@LobbyMainWnd@@QAE_NHAAM0@Z
_TEXT	SEGMENT
_iModeSelectIndex$ = 8					; size = 4
_rfXPos$ = 12						; size = 4
_rfYPos$ = 16						; size = 4
?QuestGuide@LobbyMainWnd@@QAE_NHAAM0@Z PROC		; LobbyMainWnd::QuestGuide, COMDAT
; _this$ = ecx

; 1807 : {

  00000	55		 push	 ebp
  00001	8b ec		 mov	 ebp, esp

; 1808 : 	LobbyWnd *pLobbyWnd = dynamic_cast<LobbyWnd*>(FindChildWnd( ID_LOBBY_WND ) );

  00003	6a 00		 push	 0
  00005	68 00 00 00 00	 push	 OFFSET ??_R0?AVLobbyWnd@@@8
  0000a	68 00 00 00 00	 push	 OFFSET ??_R0?AVioWnd@@@8
  0000f	6a 00		 push	 0
  00011	6a 01		 push	 1
  00013	ff 15 00 00 00
	00		 call	 DWORD PTR __imp_?FindChildWnd@ioWnd@@QAEPAV1@K@Z
  00019	50		 push	 eax
  0001a	e8 00 00 00 00	 call	 ___RTDynamicCast
  0001f	83 c4 14	 add	 esp, 20			; 00000014H

; 1809 : 	if( pLobbyWnd )

  00022	85 c0		 test	 eax, eax
  00024	74 08		 je	 SHORT $LN1@QuestGuide@2

; 1810 : 	{
; 1811 : 		return pLobbyWnd->QuestGuide( iModeSelectIndex, rfXPos, rfYPos );

  00026	8b c8		 mov	 ecx, eax

; 1814 : }

  00028	5d		 pop	 ebp

; 1810 : 	{
; 1811 : 		return pLobbyWnd->QuestGuide( iModeSelectIndex, rfXPos, rfYPos );

  00029	e9 00 00 00 00	 jmp	 ?QuestGuide@LobbyWnd@@QAE_NHAAM0@Z ; LobbyWnd::QuestGuide
$LN1@QuestGuide@2:

; 1812 : 	}
; 1813 : 	return false;

  0002e	32 c0		 xor	 al, al

; 1814 : }

  00030	5d		 pop	 ebp
  00031	c2 0c 00	 ret	 12			; 0000000cH
?QuestGuide@LobbyMainWnd@@QAE_NHAAM0@Z ENDP		; LobbyMainWnd::QuestGuide
_TEXT	ENDS
PUBLIC	?ApplyTournamentList@LobbyMainWnd@@QAEXAAVSP2Packet@@@Z ; LobbyMainWnd::ApplyTournamentList
; Function compile flags: /Ogsp
;	COMDAT ?ApplyTournamentList@LobbyMainWnd@@QAEXAAVSP2Packet@@@Z
_TEXT	SEGMENT
_rkPacket$ = 8						; size = 4
?ApplyTournamentList@LobbyMainWnd@@QAEXAAVSP2Packet@@@Z PROC ; LobbyMainWnd::ApplyTournamentList, COMDAT
; _this$ = ecx

; 1817 : {

  00000	55		 push	 ebp
  00001	8b ec		 mov	 ebp, esp

; 1818 : 	LobbyWnd *pLobbyWnd = dynamic_cast<LobbyWnd*>(FindChildWnd(ID_LOBBY_WND));

  00003	6a 00		 push	 0
  00005	68 00 00 00 00	 push	 OFFSET ??_R0?AVLobbyWnd@@@8
  0000a	68 00 00 00 00	 push	 OFFSET ??_R0?AVioWnd@@@8
  0000f	6a 00		 push	 0
  00011	6a 01		 push	 1
  00013	ff 15 00 00 00
	00		 call	 DWORD PTR __imp_?FindChildWnd@ioWnd@@QAEPAV1@K@Z
  00019	50		 push	 eax
  0001a	e8 00 00 00 00	 call	 ___RTDynamicCast
  0001f	83 c4 14	 add	 esp, 20			; 00000014H

; 1819 : 	if( pLobbyWnd )

  00022	85 c0		 test	 eax, eax
  00024	74 08		 je	 SHORT $LN1@ApplyTourn@4

; 1820 : 	{
; 1821 : 		pLobbyWnd->ApplyTournamentList( rkPacket );

  00026	8b c8		 mov	 ecx, eax

; 1822 : 	}	
; 1823 : }

  00028	5d		 pop	 ebp

; 1820 : 	{
; 1821 : 		pLobbyWnd->ApplyTournamentList( rkPacket );

  00029	e9 00 00 00 00	 jmp	 ?ApplyTournamentList@LobbyWnd@@QAEXAAVSP2Packet@@@Z ; LobbyWnd::ApplyTournamentList
$LN1@ApplyTourn@4:

; 1822 : 	}	
; 1823 : }

  0002e	5d		 pop	 ebp
  0002f	c2 04 00	 ret	 4
?ApplyTournamentList@LobbyMainWnd@@QAEXAAVSP2Packet@@@Z ENDP ; LobbyMainWnd::ApplyTournamentList
_TEXT	ENDS
PUBLIC	?ApplyTournamentConfirmCheck@LobbyMainWnd@@QAEXAAVSP2Packet@@@Z ; LobbyMainWnd::ApplyTournamentConfirmCheck
; Function compile flags: /Ogsp
;	COMDAT ?ApplyTournamentConfirmCheck@LobbyMainWnd@@QAEXAAVSP2Packet@@@Z
_TEXT	SEGMENT
_rkPacket$ = 8						; size = 4
?ApplyTournamentConfirmCheck@LobbyMainWnd@@QAEXAAVSP2Packet@@@Z PROC ; LobbyMainWnd::ApplyTournamentConfirmCheck, COMDAT
; _this$ = ecx

; 1826 : {

  00000	55		 push	 ebp
  00001	8b ec		 mov	 ebp, esp

; 1827 : 	LobbyWnd *pLobbyWnd = dynamic_cast<LobbyWnd*>(FindChildWnd(ID_LOBBY_WND));

  00003	6a 00		 push	 0
  00005	68 00 00 00 00	 push	 OFFSET ??_R0?AVLobbyWnd@@@8
  0000a	68 00 00 00 00	 push	 OFFSET ??_R0?AVioWnd@@@8
  0000f	6a 00		 push	 0
  00011	6a 01		 push	 1
  00013	ff 15 00 00 00
	00		 call	 DWORD PTR __imp_?FindChildWnd@ioWnd@@QAEPAV1@K@Z
  00019	50		 push	 eax
  0001a	e8 00 00 00 00	 call	 ___RTDynamicCast
  0001f	83 c4 14	 add	 esp, 20			; 00000014H

; 1828 : 	if( pLobbyWnd )

  00022	85 c0		 test	 eax, eax
  00024	74 08		 je	 SHORT $LN1@ApplyTourn@5

; 1829 : 	{
; 1830 : 		pLobbyWnd->ApplyTournamentConfirmCheck( rkPacket );

  00026	8b c8		 mov	 ecx, eax

; 1831 : 	}	
; 1832 : }

  00028	5d		 pop	 ebp

; 1829 : 	{
; 1830 : 		pLobbyWnd->ApplyTournamentConfirmCheck( rkPacket );

  00029	e9 00 00 00 00	 jmp	 ?ApplyTournamentConfirmCheck@LobbyWnd@@QAEXAAVSP2Packet@@@Z ; LobbyWnd::ApplyTournamentConfirmCheck
$LN1@ApplyTourn@5:

; 1831 : 	}	
; 1832 : }

  0002e	5d		 pop	 ebp
  0002f	c2 04 00	 ret	 4
?ApplyTournamentConfirmCheck@LobbyMainWnd@@QAEXAAVSP2Packet@@@Z ENDP ; LobbyMainWnd::ApplyTournamentConfirmCheck
_TEXT	ENDS
PUBLIC	?ApplyTournamentConfirmRequest@LobbyMainWnd@@QAEXAAVSP2Packet@@@Z ; LobbyMainWnd::ApplyTournamentConfirmRequest
; Function compile flags: /Ogsp
;	COMDAT ?ApplyTournamentConfirmRequest@LobbyMainWnd@@QAEXAAVSP2Packet@@@Z
_TEXT	SEGMENT
_rkPacket$ = 8						; size = 4
?ApplyTournamentConfirmRequest@LobbyMainWnd@@QAEXAAVSP2Packet@@@Z PROC ; LobbyMainWnd::ApplyTournamentConfirmRequest, COMDAT
; _this$ = ecx

; 1835 : {

  00000	55		 push	 ebp
  00001	8b ec		 mov	 ebp, esp

; 1836 : 	LobbyWnd *pLobbyWnd = dynamic_cast<LobbyWnd*>(FindChildWnd(ID_LOBBY_WND));

  00003	6a 00		 push	 0
  00005	68 00 00 00 00	 push	 OFFSET ??_R0?AVLobbyWnd@@@8
  0000a	68 00 00 00 00	 push	 OFFSET ??_R0?AVioWnd@@@8
  0000f	6a 00		 push	 0
  00011	6a 01		 push	 1
  00013	ff 15 00 00 00
	00		 call	 DWORD PTR __imp_?FindChildWnd@ioWnd@@QAEPAV1@K@Z
  00019	50		 push	 eax
  0001a	e8 00 00 00 00	 call	 ___RTDynamicCast
  0001f	83 c4 14	 add	 esp, 20			; 00000014H

; 1837 : 	if( pLobbyWnd )

  00022	85 c0		 test	 eax, eax
  00024	74 08		 je	 SHORT $LN1@ApplyTourn@6

; 1838 : 	{
; 1839 : 		pLobbyWnd->ApplyTournamentConfirmRequest( rkPacket );

  00026	8b c8		 mov	 ecx, eax

; 1840 : 	}	
; 1841 : }

  00028	5d		 pop	 ebp

; 1838 : 	{
; 1839 : 		pLobbyWnd->ApplyTournamentConfirmRequest( rkPacket );

  00029	e9 00 00 00 00	 jmp	 ?ApplyTournamentConfirmRequest@LobbyWnd@@QAEXAAVSP2Packet@@@Z ; LobbyWnd::ApplyTournamentConfirmRequest
$LN1@ApplyTourn@6:

; 1840 : 	}	
; 1841 : }

  0002e	5d		 pop	 ebp
  0002f	c2 04 00	 ret	 4
?ApplyTournamentConfirmRequest@LobbyMainWnd@@QAEXAAVSP2Packet@@@Z ENDP ; LobbyMainWnd::ApplyTournamentConfirmRequest
_TEXT	ENDS
PUBLIC	?OnRefreshTradeItemList@LobbyMainWnd@@QAEXXZ	; LobbyMainWnd::OnRefreshTradeItemList
EXTRN	?OnRefreshTradeItemList@LobbyTradeInfoWnd@@QAEXXZ:PROC ; LobbyTradeInfoWnd::OnRefreshTradeItemList
; Function compile flags: /Ogsp
;	COMDAT ?OnRefreshTradeItemList@LobbyMainWnd@@QAEXXZ
_TEXT	SEGMENT
_this$ = -4						; size = 4
?OnRefreshTradeItemList@LobbyMainWnd@@QAEXXZ PROC	; LobbyMainWnd::OnRefreshTradeItemList, COMDAT
; _this$ = ecx

; 1844 : {

  00000	55		 push	 ebp
  00001	8b ec		 mov	 ebp, esp
  00003	51		 push	 ecx
  00004	56		 push	 esi

; 1845 : 	// Trade info wnd
; 1846 : 	LobbyTradeInfoWnd *pTradeInfoWnd = dynamic_cast<LobbyTradeInfoWnd*>( FindChildWnd( ID_TRADE_INFO_WND ) );

  00005	8b 35 00 00 00
	00		 mov	 esi, DWORD PTR __imp_?FindChildWnd@ioWnd@@QAEPAV1@K@Z
  0000b	57		 push	 edi
  0000c	6a 00		 push	 0
  0000e	68 00 00 00 00	 push	 OFFSET ??_R0?AVLobbyTradeInfoWnd@@@8
  00013	bf 00 00 00 00	 mov	 edi, OFFSET ??_R0?AVioWnd@@@8
  00018	57		 push	 edi
  00019	6a 00		 push	 0
  0001b	6a 06		 push	 6
  0001d	89 4d fc	 mov	 DWORD PTR _this$[ebp], ecx
  00020	ff d6		 call	 esi
  00022	50		 push	 eax
  00023	e8 00 00 00 00	 call	 ___RTDynamicCast
  00028	83 c4 14	 add	 esp, 20			; 00000014H

; 1847 : 	if( pTradeInfoWnd )

  0002b	85 c0		 test	 eax, eax
  0002d	74 07		 je	 SHORT $LN2@OnRefreshT@2

; 1848 : 	{
; 1849 : 		pTradeInfoWnd->OnRefreshTradeItemList();

  0002f	8b c8		 mov	 ecx, eax
  00031	e8 00 00 00 00	 call	 ?OnRefreshTradeItemList@LobbyTradeInfoWnd@@QAEXXZ ; LobbyTradeInfoWnd::OnRefreshTradeItemList
$LN2@OnRefreshT@2:

; 1850 : 	}
; 1851 : 
; 1852 : 	// lobby wnd
; 1853 : 	LobbyWnd *pLobbyWnd = dynamic_cast<LobbyWnd*>( FindChildWnd( ID_LOBBY_WND ) );

  00036	8b 4d fc	 mov	 ecx, DWORD PTR _this$[ebp]
  00039	6a 00		 push	 0
  0003b	68 00 00 00 00	 push	 OFFSET ??_R0?AVLobbyWnd@@@8
  00040	57		 push	 edi
  00041	6a 00		 push	 0
  00043	6a 01		 push	 1
  00045	ff d6		 call	 esi
  00047	50		 push	 eax
  00048	e8 00 00 00 00	 call	 ___RTDynamicCast
  0004d	83 c4 14	 add	 esp, 20			; 00000014H
  00050	5f		 pop	 edi
  00051	5e		 pop	 esi

; 1854 : 	if( pLobbyWnd )

  00052	85 c0		 test	 eax, eax
  00054	74 07		 je	 SHORT $LN1@OnRefreshT@2

; 1855 : 	{
; 1856 : 		pLobbyWnd->OnRefreshTradeItemList();

  00056	8b c8		 mov	 ecx, eax
  00058	e8 00 00 00 00	 call	 ?OnRefreshTradeItemList@LobbyWnd@@QAEXXZ ; LobbyWnd::OnRefreshTradeItemList
$LN1@OnRefreshT@2:

; 1857 : 	}
; 1858 : 
; 1859 : }

  0005d	c9		 leave
  0005e	c3		 ret	 0
?OnRefreshTradeItemList@LobbyMainWnd@@QAEXXZ ENDP	; LobbyMainWnd::OnRefreshTradeItemList
_TEXT	ENDS
PUBLIC	?ApplyLadderList@LobbyMainWnd@@QAEXAAVSP2Packet@@@Z ; LobbyMainWnd::ApplyLadderList
; Function compile flags: /Ogsp
;	COMDAT ?ApplyLadderList@LobbyMainWnd@@QAEXAAVSP2Packet@@@Z
_TEXT	SEGMENT
_rkPacket$ = 8						; size = 4
?ApplyLadderList@LobbyMainWnd@@QAEXAAVSP2Packet@@@Z PROC ; LobbyMainWnd::ApplyLadderList, COMDAT
; _this$ = ecx

; 1887 : {

  00000	55		 push	 ebp
  00001	8b ec		 mov	 ebp, esp

; 1888 : 	LobbyWnd *pLobbyWnd = dynamic_cast<LobbyWnd*>(FindChildWnd(ID_LOBBY_WND));

  00003	6a 00		 push	 0
  00005	68 00 00 00 00	 push	 OFFSET ??_R0?AVLobbyWnd@@@8
  0000a	68 00 00 00 00	 push	 OFFSET ??_R0?AVioWnd@@@8
  0000f	6a 00		 push	 0
  00011	6a 01		 push	 1
  00013	ff 15 00 00 00
	00		 call	 DWORD PTR __imp_?FindChildWnd@ioWnd@@QAEPAV1@K@Z
  00019	50		 push	 eax
  0001a	e8 00 00 00 00	 call	 ___RTDynamicCast
  0001f	83 c4 14	 add	 esp, 20			; 00000014H

; 1889 : 	if( pLobbyWnd )

  00022	85 c0		 test	 eax, eax
  00024	74 08		 je	 SHORT $LN1@ApplyLadde@4

; 1890 : 	{
; 1891 : 		pLobbyWnd->ApplyLadderList( rkPacket );

  00026	8b c8		 mov	 ecx, eax

; 1892 : 		//pLobbyWnd->ApplyNormalTeamList( rkPacket );
; 1893 : 	}
; 1894 : }

  00028	5d		 pop	 ebp

; 1890 : 	{
; 1891 : 		pLobbyWnd->ApplyLadderList( rkPacket );

  00029	e9 00 00 00 00	 jmp	 ?ApplyLadderList@LobbyWnd@@QAEXAAVSP2Packet@@@Z ; LobbyWnd::ApplyLadderList
$LN1@ApplyLadde@4:

; 1892 : 		//pLobbyWnd->ApplyNormalTeamList( rkPacket );
; 1893 : 	}
; 1894 : }

  0002e	5d		 pop	 ebp
  0002f	c2 04 00	 ret	 4
?ApplyLadderList@LobbyMainWnd@@QAEXAAVSP2Packet@@@Z ENDP ; LobbyMainWnd::ApplyLadderList
_TEXT	ENDS
PUBLIC	?GetSingleton@?$Singleton@VioEtcItemManager@@@@SAAAVioEtcItemManager@@XZ ; Singleton<ioEtcItemManager>::GetSingleton
EXTRN	?ms_Singleton@?$Singleton@VioEtcItemManager@@@@1PAVioEtcItemManager@@A:DWORD ; Singleton<ioEtcItemManager>::ms_Singleton
; Function compile flags: /Ogsp
; File d:\lost saga for developer\youtube\tutorial\source\src\io3dengine\iosingleton.h
;	COMDAT ?GetSingleton@?$Singleton@VioEtcItemManager@@@@SAAAVioEtcItemManager@@XZ
_TEXT	SEGMENT
?GetSingleton@?$Singleton@VioEtcItemManager@@@@SAAAVioEtcItemManager@@XZ PROC ; Singleton<ioEtcItemManager>::GetSingleton, COMDAT

; 42   : 		assert( ms_Singleton );
; 43   : 		return (*ms_Singleton);

  00000	a1 00 00 00 00	 mov	 eax, DWORD PTR ?ms_Singleton@?$Singleton@VioEtcItemManager@@@@1PAVioEtcItemManager@@A ; Singleton<ioEtcItemManager>::ms_Singleton

; 44   : 	}

  00005	c3		 ret	 0
?GetSingleton@?$Singleton@VioEtcItemManager@@@@SAAAVioEtcItemManager@@XZ ENDP ; Singleton<ioEtcItemManager>::GetSingleton
_TEXT	ENDS
PUBLIC	?GetSingleton@?$Singleton@VioBonusCashManager@@@@SAAAVioBonusCashManager@@XZ ; Singleton<ioBonusCashManager>::GetSingleton
EXTRN	?ms_Singleton@?$Singleton@VioBonusCashManager@@@@1PAVioBonusCashManager@@A:DWORD ; Singleton<ioBonusCashManager>::ms_Singleton
; Function compile flags: /Ogsp
;	COMDAT ?GetSingleton@?$Singleton@VioBonusCashManager@@@@SAAAVioBonusCashManager@@XZ
_TEXT	SEGMENT
?GetSingleton@?$Singleton@VioBonusCashManager@@@@SAAAVioBonusCashManager@@XZ PROC ; Singleton<ioBonusCashManager>::GetSingleton, COMDAT

; 42   : 		assert( ms_Singleton );
; 43   : 		return (*ms_Singleton);

  00000	a1 00 00 00 00	 mov	 eax, DWORD PTR ?ms_Singleton@?$Singleton@VioBonusCashManager@@@@1PAVioBonusCashManager@@A ; Singleton<ioBonusCashManager>::ms_Singleton

; 44   : 	}

  00005	c3		 ret	 0
?GetSingleton@?$Singleton@VioBonusCashManager@@@@SAAAVioBonusCashManager@@XZ ENDP ; Singleton<ioBonusCashManager>::GetSingleton
; Function compile flags: /Ogsp
; File c:\program files (x86)\microsoft sdks\windows\v7.0a\include\strsafe.h
_TEXT	ENDS
;	COMDAT ?StringValidateDestA@@YGJPBDII@Z
_TEXT	SEGMENT
_cchMax$ = 8						; size = 4
?StringValidateDestA@@YGJPBDII@Z PROC			; StringValidateDestA, COMDAT
; _cchDest$ = ecx

; 8721 : {

  00000	55		 push	 ebp
  00001	8b ec		 mov	 ebp, esp

; 8722 :     HRESULT hr = S_OK;

  00003	33 c0		 xor	 eax, eax

; 8723 : 
; 8724 :     if ((cchDest == 0) || (cchDest > cchMax))

  00005	85 c9		 test	 ecx, ecx
  00007	74 05		 je	 SHORT $LN1@StringVali
  00009	3b 4d 08	 cmp	 ecx, DWORD PTR _cchMax$[ebp]
  0000c	76 05		 jbe	 SHORT $LN2@StringVali
$LN1@StringVali:

; 8725 :     {
; 8726 :         hr = STRSAFE_E_INVALID_PARAMETER;

  0000e	b8 57 00 07 80	 mov	 eax, -2147024809	; 80070057H
$LN2@StringVali:

; 8727 :     }
; 8728 : 
; 8729 :     return hr;
; 8730 : }

  00013	5d		 pop	 ebp
  00014	c2 04 00	 ret	 4
?StringValidateDestA@@YGJPBDII@Z ENDP			; StringValidateDestA
_TEXT	ENDS
EXTRN	__imp___vsnprintf:PROC
; Function compile flags: /Ogsp
;	COMDAT ?StringVPrintfWorkerA@@YGJPADIPAIPBD0@Z
_TEXT	SEGMENT
_pcchNewDestLength$ = 8					; size = 4
_pszFormat$ = 12					; size = 4
_argList$ = 16						; size = 4
?StringVPrintfWorkerA@@YGJPADIPAIPBD0@Z PROC		; StringVPrintfWorkerA, COMDAT
; _pszDest$ = edi
; _cchDest$ = eax

; 9029 : {

  00000	55		 push	 ebp
  00001	8b ec		 mov	 ebp, esp
  00003	53		 push	 ebx
  00004	56		 push	 esi

; 9030 :     HRESULT hr = S_OK;
; 9031 :     int iRet;
; 9032 :     size_t cchMax;
; 9033 :     size_t cchNewDestLength = 0;
; 9034 : 
; 9035 :     // leave the last space for the null terminator
; 9036 :     cchMax = cchDest - 1;
; 9037 : 
; 9038 : #if (STRSAFE_USE_SECURE_CRT == 1) && !defined(STRSAFE_LIB_IMPL)
; 9039 :     iRet = _vsnprintf_s(pszDest, cchDest, cchMax, pszFormat, argList);
; 9040 : #else
; 9041 :     #pragma warning(push)
; 9042 :     #pragma warning(disable: __WARNING_BANNED_API_USAGE)// "STRSAFE not included"
; 9043 :     iRet = _vsnprintf(pszDest, cchMax, pszFormat, argList);

  00005	ff 75 10	 push	 DWORD PTR _argList$[ebp]
  00008	8d 70 ff	 lea	 esi, DWORD PTR [eax-1]
  0000b	ff 75 0c	 push	 DWORD PTR _pszFormat$[ebp]
  0000e	33 db		 xor	 ebx, ebx
  00010	56		 push	 esi
  00011	57		 push	 edi
  00012	ff 15 00 00 00
	00		 call	 DWORD PTR __imp___vsnprintf
  00018	83 c4 10	 add	 esp, 16			; 00000010H

; 9044 :     #pragma warning(pop)
; 9045 : #endif
; 9046 :     // ASSERT((iRet < 0) || (((size_t)iRet) <= cchMax));
; 9047 : 
; 9048 :     if ((iRet < 0) || (((size_t)iRet) > cchMax))

  0001b	85 c0		 test	 eax, eax
  0001d	78 0b		 js	 SHORT $LN5@StringVPri
  0001f	3b c6		 cmp	 eax, esi
  00021	77 07		 ja	 SHORT $LN5@StringVPri

; 9058 :     }
; 9059 :     else if (((size_t)iRet) == cchMax)

  00023	75 0f		 jne	 SHORT $LN2@StringVPri

; 9060 :     {
; 9061 :         // need to null terminate the string
; 9062 :         pszDest += cchMax;
; 9063 :         *pszDest = '\0';

  00025	88 1c 3e	 mov	 BYTE PTR [esi+edi], bl

; 9064 : 
; 9065 :         cchNewDestLength = cchMax;
; 9066 :     }
; 9067 :     else

  00028	eb 08		 jmp	 SHORT $LN9@StringVPri
$LN5@StringVPri:

; 9049 :     {
; 9050 :         // need to null terminate the string
; 9051 :         pszDest += cchMax;
; 9052 :         *pszDest = '\0';

  0002a	88 1c 3e	 mov	 BYTE PTR [esi+edi], bl

; 9055 : 
; 9056 :         // we have truncated pszDest
; 9057 :         hr = STRSAFE_E_INSUFFICIENT_BUFFER;

  0002d	bb 7a 00 07 80	 mov	 ebx, -2147024774	; 8007007aH
$LN9@StringVPri:

; 9053 : 
; 9054 :         cchNewDestLength = cchMax;

  00032	8b c6		 mov	 eax, esi
$LN2@StringVPri:

; 9068 :     {
; 9069 :         cchNewDestLength = (size_t)iRet;
; 9070 :     }
; 9071 : 
; 9072 :     if (pcchNewDestLength)

  00034	8b 4d 08	 mov	 ecx, DWORD PTR _pcchNewDestLength$[ebp]
  00037	85 c9		 test	 ecx, ecx
  00039	74 02		 je	 SHORT $LN1@StringVPri

; 9073 :     {
; 9074 :         *pcchNewDestLength = cchNewDestLength;

  0003b	89 01		 mov	 DWORD PTR [ecx], eax
$LN1@StringVPri:
  0003d	5e		 pop	 esi

; 9075 :     }
; 9076 : 
; 9077 :     return hr;

  0003e	8b c3		 mov	 eax, ebx
  00040	5b		 pop	 ebx

; 9078 : }

  00041	5d		 pop	 ebp
  00042	c2 0c 00	 ret	 12			; 0000000cH
?StringVPrintfWorkerA@@YGJPADIPAIPBD0@Z ENDP		; StringVPrintfWorkerA
_TEXT	ENDS
PUBLIC	??_H@YGXPAXIHP6EPAX0@Z@Z			; `vector constructor iterator'
; Function compile flags: /Ogsp
;	COMDAT ??_H@YGXPAXIHP6EPAX0@Z@Z
_TEXT	SEGMENT
___t$ = 8						; size = 4
___s$ = 12						; size = 4
___n$ = 16						; size = 4
___f$ = 20						; size = 4
??_H@YGXPAXIHP6EPAX0@Z@Z PROC				; `vector constructor iterator', COMDAT
  00000	55		 push	 ebp
  00001	8b ec		 mov	 ebp, esp
  00003	ff 4d 10	 dec	 DWORD PTR ___n$[ebp]
  00006	78 12		 js	 SHORT $LN1@vector
  00008	56		 push	 esi
  00009	8b 75 08	 mov	 esi, DWORD PTR ___t$[ebp]
$LL2@vector:
  0000c	8b ce		 mov	 ecx, esi
  0000e	ff 55 14	 call	 DWORD PTR ___f$[ebp]
  00011	03 75 0c	 add	 esi, DWORD PTR ___s$[ebp]
  00014	ff 4d 10	 dec	 DWORD PTR ___n$[ebp]
  00017	79 f3		 jns	 SHORT $LL2@vector
  00019	5e		 pop	 esi
$LN1@vector:
  0001a	5d		 pop	 ebp
  0001b	c2 10 00	 ret	 16			; 00000010H
??_H@YGXPAXIHP6EPAX0@Z@Z ENDP				; `vector constructor iterator'
_TEXT	ENDS
PUBLIC	?_DECSTR@@YAXPADH@Z				; _DECSTR
; Function compile flags: /Ogsp
; File d:\lost saga for developer\youtube\tutorial\source\src\lsclient\stringprotect.h
;	COMDAT ?_DECSTR@@YAXPADH@Z
_TEXT	SEGMENT
_s$ = 8							; size = 4
_l$ = 12						; size = 4
?_DECSTR@@YAXPADH@Z PROC				; _DECSTR, COMDAT

; 40   : __forceinline void _DECSTR(char* s, int l){int i=0,l4=(l-1)/4,*p=(int*)s;s[l-1]=0;for(;i<l4;++i)*(p++)^=0xEAEBECED;for(i=l4*4;i<l-1;++i)s[i]^=0xED-i%4;}

  00000	55		 push	 ebp
  00001	8b ec		 mov	 ebp, esp
  00003	8b 4d 0c	 mov	 ecx, DWORD PTR _l$[ebp]
  00006	56		 push	 esi
  00007	8b 75 08	 mov	 esi, DWORD PTR _s$[ebp]
  0000a	57		 push	 edi
  0000b	8d 79 ff	 lea	 edi, DWORD PTR [ecx-1]
  0000e	8b c7		 mov	 eax, edi
  00010	99		 cdq
  00011	83 e2 03	 and	 edx, 3
  00014	03 c2		 add	 eax, edx
  00016	c1 f8 02	 sar	 eax, 2
  00019	8b d6		 mov	 edx, esi
  0001b	c6 44 0e ff 00	 mov	 BYTE PTR [esi+ecx-1], 0
  00020	85 c0		 test	 eax, eax
  00022	7e 0e		 jle	 SHORT $LN4@DECSTR
  00024	8b c8		 mov	 ecx, eax
$LL6@DECSTR:
  00026	81 32 ed ec eb
	ea		 xor	 DWORD PTR [edx], -353637139 ; eaebecedH
  0002c	83 c2 04	 add	 edx, 4
  0002f	49		 dec	 ecx
  00030	75 f4		 jne	 SHORT $LL6@DECSTR
$LN4@DECSTR:
  00032	c1 e0 02	 shl	 eax, 2
  00035	eb 17		 jmp	 SHORT $LN14@DECSTR
$LL3@DECSTR:
  00037	8b c8		 mov	 ecx, eax
  00039	81 e1 03 00 00
	80		 and	 ecx, -2147483645	; 80000003H
  0003f	79 05		 jns	 SHORT $LN13@DECSTR
  00041	49		 dec	 ecx
  00042	83 c9 fc	 or	 ecx, -4			; fffffffcH
  00045	41		 inc	 ecx
$LN13@DECSTR:
  00046	b2 ed		 mov	 dl, -19			; ffffffedH
  00048	2a d1		 sub	 dl, cl
  0004a	30 14 30	 xor	 BYTE PTR [eax+esi], dl
  0004d	40		 inc	 eax
$LN14@DECSTR:
  0004e	3b c7		 cmp	 eax, edi
  00050	7c e5		 jl	 SHORT $LL3@DECSTR
  00052	5f		 pop	 edi
  00053	5e		 pop	 esi
  00054	5d		 pop	 ebp
  00055	c3		 ret	 0
?_DECSTR@@YAXPADH@Z ENDP				; _DECSTR
_TEXT	ENDS
PUBLIC	?GetMouse@ioApplication@@QAEPAVioLSMouse@@XZ	; ioApplication::GetMouse
; Function compile flags: /Ogsp
; File d:\lost saga for developer\youtube\tutorial\source\src\lsclient\ioapplication.h
;	COMDAT ?GetMouse@ioApplication@@QAEPAVioLSMouse@@XZ
_TEXT	SEGMENT
?GetMouse@ioApplication@@QAEPAVioLSMouse@@XZ PROC	; ioApplication::GetMouse, COMDAT
; _this$ = ecx

; 796  : 	inline ioLSMouse* GetMouse(){ return &m_Mouse;	}

  00000	8d 81 90 00 00
	00		 lea	 eax, DWORD PTR [ecx+144]
  00006	c3		 ret	 0
?GetMouse@ioApplication@@QAEPAVioLSMouse@@XZ ENDP	; ioApplication::GetMouse
_TEXT	ENDS
PUBLIC	??0ETCITEMSLOT@ioUserEtcItem@@QAE@XZ		; ioUserEtcItem::ETCITEMSLOT::ETCITEMSLOT
; Function compile flags: /Ogsp
; File d:\lost saga for developer\youtube\tutorial\source\src\lsclient\iouseretcitem.h
;	COMDAT ??0ETCITEMSLOT@ioUserEtcItem@@QAE@XZ
_TEXT	SEGMENT
??0ETCITEMSLOT@ioUserEtcItem@@QAE@XZ PROC		; ioUserEtcItem::ETCITEMSLOT::ETCITEMSLOT, COMDAT
; _this$ = ecx

; 22   : 		ETCITEMSLOT()

  00000	8b c1		 mov	 eax, ecx

; 23   : 		{
; 24   : 			m_iType   = 0;

  00002	33 c9		 xor	 ecx, ecx
  00004	89 08		 mov	 DWORD PTR [eax], ecx

; 25   : 			m_iValue1 = 0;

  00006	89 48 04	 mov	 DWORD PTR [eax+4], ecx

; 26   : 			m_iValue2 = 0;

  00009	89 48 08	 mov	 DWORD PTR [eax+8], ecx

; 27   : 		}

  0000c	c3		 ret	 0
??0ETCITEMSLOT@ioUserEtcItem@@QAE@XZ ENDP		; ioUserEtcItem::ETCITEMSLOT::ETCITEMSLOT
_TEXT	ENDS
PUBLIC	?GetName@ioEtcItem@@QBEABVioHashString@@XZ	; ioEtcItem::GetName
; Function compile flags: /Ogsp
; File d:\lost saga for developer\youtube\tutorial\source\src\lsclient\ioetcitem.h
;	COMDAT ?GetName@ioEtcItem@@QBEABVioHashString@@XZ
_TEXT	SEGMENT
?GetName@ioEtcItem@@QBEABVioHashString@@XZ PROC		; ioEtcItem::GetName, COMDAT
; _this$ = ecx

; 465  : 	inline const ioHashString& GetName() const { return m_Name; }

  00000	8d 41 04	 lea	 eax, DWORD PTR [ecx+4]
  00003	c3		 ret	 0
?GetName@ioEtcItem@@QBEABVioHashString@@XZ ENDP		; ioEtcItem::GetName
_TEXT	ENDS
PUBLIC	?SetJoinHeadquartersRequestName@ioMyInfo@@QAEXABVioHashString@@@Z ; ioMyInfo::SetJoinHeadquartersRequestName
EXTRN	__imp_??4ioHashString@@QAEAAV0@ABV0@@Z:PROC
; Function compile flags: /Ogsp
; File d:\lost saga for developer\youtube\tutorial\source\src\lsclient\iomyinfo.h
;	COMDAT ?SetJoinHeadquartersRequestName@ioMyInfo@@QAEXABVioHashString@@@Z
_TEXT	SEGMENT
_rkName$ = 8						; size = 4
?SetJoinHeadquartersRequestName@ioMyInfo@@QAEXABVioHashString@@@Z PROC ; ioMyInfo::SetJoinHeadquartersRequestName, COMDAT
; _this$ = ecx

; 495  : 	void SetJoinHeadquartersRequestName( const ioHashString &rkName ){ m_szJoinHeadquartersRequestName = rkName; };

  00000	55		 push	 ebp
  00001	8b ec		 mov	 ebp, esp
  00003	81 c1 6c 09 00
	00		 add	 ecx, 2412		; 0000096cH
  00009	5d		 pop	 ebp
  0000a	ff 25 00 00 00
	00		 jmp	 DWORD PTR __imp_??4ioHashString@@QAEAAV0@ABV0@@Z
?SetJoinHeadquartersRequestName@ioMyInfo@@QAEXABVioHashString@@@Z ENDP ; ioMyInfo::SetJoinHeadquartersRequestName
_TEXT	ENDS
PUBLIC	?SetJoinHouseRequestName@ioMyInfo@@QAEXABVioHashString@@@Z ; ioMyInfo::SetJoinHouseRequestName
; Function compile flags: /Ogsp
;	COMDAT ?SetJoinHouseRequestName@ioMyInfo@@QAEXABVioHashString@@@Z
_TEXT	SEGMENT
_rkName$ = 8						; size = 4
?SetJoinHouseRequestName@ioMyInfo@@QAEXABVioHashString@@@Z PROC ; ioMyInfo::SetJoinHouseRequestName, COMDAT
; _this$ = ecx

; 496  : 	void SetJoinHouseRequestName( const ioHashString &rkName ){ m_szJoinHouseRequestName = rkName; };

  00000	55		 push	 ebp
  00001	8b ec		 mov	 ebp, esp
  00003	81 c1 7c 09 00
	00		 add	 ecx, 2428		; 0000097cH
  00009	5d		 pop	 ebp
  0000a	ff 25 00 00 00
	00		 jmp	 DWORD PTR __imp_??4ioHashString@@QAEAAV0@ABV0@@Z
?SetJoinHouseRequestName@ioMyInfo@@QAEXABVioHashString@@@Z ENDP ; ioMyInfo::SetJoinHouseRequestName
_TEXT	ENDS
PUBLIC	?GetPublicID@ioMyInfo@@QBEABVioHashString@@XZ	; ioMyInfo::GetPublicID
; Function compile flags: /Ogsp
;	COMDAT ?GetPublicID@ioMyInfo@@QBEABVioHashString@@XZ
_TEXT	SEGMENT
?GetPublicID@ioMyInfo@@QBEABVioHashString@@XZ PROC	; ioMyInfo::GetPublicID, COMDAT
; _this$ = ecx

; 517  : 	const ioHashString& GetPublicID() const { return m_user_data.m_public_id; }    

  00000	8d 41 1c	 lea	 eax, DWORD PTR [ecx+28]
  00003	c3		 ret	 0
?GetPublicID@ioMyInfo@@QBEABVioHashString@@XZ ENDP	; ioMyInfo::GetPublicID
_TEXT	ENDS
PUBLIC	?GetUserCampPos@ioMyInfo@@QBE?BHXZ		; ioMyInfo::GetUserCampPos
; Function compile flags: /Ogsp
;	COMDAT ?GetUserCampPos@ioMyInfo@@QBE?BHXZ
_TEXT	SEGMENT
?GetUserCampPos@ioMyInfo@@QBE?BHXZ PROC			; ioMyInfo::GetUserCampPos, COMDAT
; _this$ = ecx

; 519  : 	const int GetUserCampPos() const { return m_user_data.m_camp_position; }

  00000	8b 41 60	 mov	 eax, DWORD PTR [ecx+96]
  00003	c3		 ret	 0
?GetUserCampPos@ioMyInfo@@QBE?BHXZ ENDP			; ioMyInfo::GetUserCampPos
_TEXT	ENDS
PUBLIC	?GetUserRanking@ioMyInfo@@QBE?BHXZ		; ioMyInfo::GetUserRanking
; Function compile flags: /Ogsp
;	COMDAT ?GetUserRanking@ioMyInfo@@QBE?BHXZ
_TEXT	SEGMENT
?GetUserRanking@ioMyInfo@@QBE?BHXZ PROC			; ioMyInfo::GetUserRanking, COMDAT
; _this$ = ecx

; 520  : 	const int GetUserRanking() const { return m_user_data.m_user_rank; }

  00000	8b 41 58	 mov	 eax, DWORD PTR [ecx+88]
  00003	c3		 ret	 0
?GetUserRanking@ioMyInfo@@QBE?BHXZ ENDP			; ioMyInfo::GetUserRanking
_TEXT	ENDS
PUBLIC	?GetMoney@ioMyInfo@@QBE_JXZ			; ioMyInfo::GetMoney
; Function compile flags: /Ogsp
;	COMDAT ?GetMoney@ioMyInfo@@QBE_JXZ
_TEXT	SEGMENT
?GetMoney@ioMyInfo@@QBE_JXZ PROC			; ioMyInfo::GetMoney, COMDAT
; _this$ = ecx

; 545  : 	__int64 GetMoney() const { return m_user_data.m_money; }

  00000	8b 41 30	 mov	 eax, DWORD PTR [ecx+48]
  00003	8b 51 34	 mov	 edx, DWORD PTR [ecx+52]
  00006	c3		 ret	 0
?GetMoney@ioMyInfo@@QBE_JXZ ENDP			; ioMyInfo::GetMoney
_TEXT	ENDS
PUBLIC	?GetUserEtcItem@ioMyInfo@@QAEPAVioUserEtcItem@@XZ ; ioMyInfo::GetUserEtcItem
; Function compile flags: /Ogsp
;	COMDAT ?GetUserEtcItem@ioMyInfo@@QAEPAVioUserEtcItem@@XZ
_TEXT	SEGMENT
?GetUserEtcItem@ioMyInfo@@QAEPAVioUserEtcItem@@XZ PROC	; ioMyInfo::GetUserEtcItem, COMDAT
; _this$ = ecx

; 635  : 	ioUserEtcItem* GetUserEtcItem() { return &m_UserEtcItem; }

  00000	8d 81 44 01 00
	00		 lea	 eax, DWORD PTR [ecx+324]
  00006	c3		 ret	 0
?GetUserEtcItem@ioMyInfo@@QAEPAVioUserEtcItem@@XZ ENDP	; ioMyInfo::GetUserEtcItem
_TEXT	ENDS
PUBLIC	?GetGuildRoomOpen@ioGuildData@@QAEHXZ		; ioGuildData::GetGuildRoomOpen
; Function compile flags: /Ogsp
; File d:\lost saga for developer\youtube\tutorial\source\src\lsclient\ioguildinfo.h
;	COMDAT ?GetGuildRoomOpen@ioGuildData@@QAEHXZ
_TEXT	SEGMENT
?GetGuildRoomOpen@ioGuildData@@QAEHXZ PROC		; ioGuildData::GetGuildRoomOpen, COMDAT
; _this$ = ecx

; 106  : 	inline BOOL GetGuildRoomOpen(){ return m_bGuildRoomOpen; }

  00000	8b 41 54	 mov	 eax, DWORD PTR [ecx+84]
  00003	c3		 ret	 0
?GetGuildRoomOpen@ioGuildData@@QAEHXZ ENDP		; ioGuildData::GetGuildRoomOpen
_TEXT	ENDS
PUBLIC	?GetGuildIndex@ioGuildInfo@@QAEKXZ		; ioGuildInfo::GetGuildIndex
; Function compile flags: /Ogsp
;	COMDAT ?GetGuildIndex@ioGuildInfo@@QAEKXZ
_TEXT	SEGMENT
?GetGuildIndex@ioGuildInfo@@QAEKXZ PROC			; ioGuildInfo::GetGuildIndex, COMDAT
; _this$ = ecx

; 302  : 	inline DWORD GetGuildIndex(){ return m_dwGuildIndex; }

  00000	8b 81 90 00 00
	00		 mov	 eax, DWORD PTR [ecx+144]
  00006	c3		 ret	 0
?GetGuildIndex@ioGuildInfo@@QAEKXZ ENDP			; ioGuildInfo::GetGuildIndex
_TEXT	ENDS
PUBLIC	?GetNextTodayBattleSec@ioCampManager@@QAEHXZ	; ioCampManager::GetNextTodayBattleSec
; Function compile flags: /Ogsp
; File d:\lost saga for developer\youtube\tutorial\source\src\lsclient\iocampmanager.h
;	COMDAT ?GetNextTodayBattleSec@ioCampManager@@QAEHXZ
_TEXT	SEGMENT
?GetNextTodayBattleSec@ioCampManager@@QAEHXZ PROC	; ioCampManager::GetNextTodayBattleSec, COMDAT
; _this$ = ecx

; 201  : 	int GetNextTodayBattleSec(){ return m_iNextTodayBattleSec; }

  00000	8b 81 c8 00 00
	00		 mov	 eax, DWORD PTR [ecx+200]
  00006	c3		 ret	 0
?GetNextTodayBattleSec@ioCampManager@@QAEHXZ ENDP	; ioCampManager::GetNextTodayBattleSec
_TEXT	ENDS
EXTRN	??3@YAXPAX@Z:PROC				; operator delete
; Function compile flags: /Ogsp
;	COMDAT ??_GLobbyBtn@@UAEPAXI@Z
_TEXT	SEGMENT
___flags$ = 8						; size = 4
??_GLobbyBtn@@UAEPAXI@Z PROC				; LobbyBtn::`scalar deleting destructor', COMDAT
; _this$ = ecx
  00000	55		 push	 ebp
  00001	8b ec		 mov	 ebp, esp
  00003	56		 push	 esi
  00004	8b f1		 mov	 esi, ecx
  00006	e8 00 00 00 00	 call	 ??1LobbyBtn@@UAE@XZ	; LobbyBtn::~LobbyBtn
  0000b	f6 45 08 01	 test	 BYTE PTR ___flags$[ebp], 1
  0000f	74 07		 je	 SHORT $LN1@scalar
  00011	56		 push	 esi
  00012	e8 00 00 00 00	 call	 ??3@YAXPAX@Z		; operator delete
  00017	59		 pop	 ecx
$LN1@scalar:
  00018	8b c6		 mov	 eax, esi
  0001a	5e		 pop	 esi
  0001b	5d		 pop	 ebp
  0001c	c2 04 00	 ret	 4
??_GLobbyBtn@@UAEPAXI@Z ENDP				; LobbyBtn::`scalar deleting destructor'
_TEXT	ENDS
PUBLIC	__real@3f59999a
PUBLIC	??_C@_0BD@LHBDDMNH@LobbyBtn?3?3OnRender?$AA@	; `string'
PUBLIC	__real@4f800000
PUBLIC	__real@3f0ccccd
EXTRN	?GetSingleton@ioCampManager@@SAAAV1@XZ:PROC	; ioCampManager::GetSingleton
EXTRN	__imp_?SetBkColor@ioFontManager@@QAEXK@Z:PROC
EXTRN	__imp_?PrintText@ioFontManager@@QAAXMMMPBDZZ:PROC
EXTRN	__imp_?SetTextColor@ioFontManager@@QAEXK@Z:PROC
EXTRN	__imp_?SetTextColor@ioFontManager@@QAEXHHH@Z:PROC
EXTRN	__imp_?SetBkColor@ioFontManager@@QAEXHHH@Z:PROC
EXTRN	__imp_?SetAlignType@ioFontManager@@QAEXW4TextAlignType@@@Z:PROC
EXTRN	__imp_?SetTextStyle@ioFontManager@@QAEXW4TextStyle@@@Z:PROC
EXTRN	__imp_?GetSingleton@ioFontManager@@SAAAV1@XZ:PROC
EXTRN	?GetRegularState@ioTournamentManager@@QAEHXZ:PROC ; ioTournamentManager::GetRegularState
EXTRN	?IsRegularDisableTournament@ioTournamentManager@@QAE_NXZ:PROC ; ioTournamentManager::IsRegularDisableTournament
EXTRN	?GetSingleton@ioTournamentManager@@SAAAV1@XZ:PROC ; ioTournamentManager::GetSingleton
;	COMDAT __real@3f59999a
CONST	SEGMENT
__real@3f59999a DD 03f59999ar			; 0.85
CONST	ENDS
;	COMDAT ??_C@_0BD@LHBDDMNH@LobbyBtn?3?3OnRender?$AA@
CONST	SEGMENT
??_C@_0BD@LHBDDMNH@LobbyBtn?3?3OnRender?$AA@ DB 'LobbyBtn::OnRender', 00H ; `string'
CONST	ENDS
;	COMDAT __real@4f800000
CONST	SEGMENT
__real@4f800000 DD 04f800000r			; 4.29497e+009
CONST	ENDS
;	COMDAT __real@3f0ccccd
CONST	SEGMENT
__real@3f0ccccd DD 03f0ccccdr			; 0.55
; Function compile flags: /Ogsp
; File d:\lost saga for developer\youtube\tutorial\source\src\lsclient\gui\lobbymainwnd.cpp
CONST	ENDS
;	COMDAT ?OnRender@LobbyBtn@@MAEXXZ
_TEXT	SEGMENT
tv1314 = -28						; size = 4
tv1310 = -28						; size = 4
tv1304 = -28						; size = 4
tv1299 = -28						; size = 4
tv1280 = -28						; size = 4
tv1275 = -28						; size = 4
tv1268 = -28						; size = 4
tv1264 = -28						; size = 4
tv1294 = -24						; size = 4
tv1271 = -24						; size = 4
tv1259 = -24						; size = 4
$T538116 = -24						; size = 4
$T538108 = -24						; size = 4
$T538120 = -20						; size = 4
$T538104 = -20						; size = 4
tv1306 = -16						; size = 4
$T538124 = -16						; size = 4
$T538100 = -16						; size = 4
_this$ = -12						; size = 4
_iState$533616 = -8					; size = 4
_iYPos$ = -8						; size = 4
tv1346 = -4						; size = 4
_iXPos$ = -4						; size = 4
?OnRender@LobbyBtn@@MAEXXZ PROC				; LobbyBtn::OnRender, COMDAT
; _this$ = ecx

; 114  : {

  00000	55		 push	 ebp
  00001	8b ec		 mov	 ebp, esp
  00003	83 ec 1c	 sub	 esp, 28			; 0000001cH
  00006	53		 push	 ebx
  00007	56		 push	 esi
  00008	8b f1		 mov	 esi, ecx
  0000a	57		 push	 edi
  0000b	89 75 f4	 mov	 DWORD PTR _this$[ebp], esi

; 115  : 	ioRadioButton::OnRender();

  0000e	ff 15 00 00 00
	00		 call	 DWORD PTR __imp_?OnRender@ioButton@@MAEXXZ

; 116  : 
; 117  : 	int iXPos = GetDerivedPosX();

  00014	8b ce		 mov	 ecx, esi
  00016	ff 15 00 00 00
	00		 call	 DWORD PTR __imp_?GetDerivedPosX@ioWnd@@QBEHXZ
  0001c	8b d8		 mov	 ebx, eax

; 118  : 	int iYPos = GetDerivedPosY();

  0001e	8b ce		 mov	 ecx, esi
  00020	89 5d fc	 mov	 DWORD PTR _iXPos$[ebp], ebx
  00023	ff 15 00 00 00
	00		 call	 DWORD PTR __imp_?GetDerivedPosY@ioWnd@@QBEHXZ

; 119  : 
; 120  : 	if( m_bClicked )

  00029	80 be a6 00 00
	00 00		 cmp	 BYTE PTR [esi+166], 0
  00030	f3 0f 10 05 00
	00 00 00	 movss	 xmm0, DWORD PTR __real@3f0ccccd
  00038	8b f8		 mov	 edi, eax
  0003a	89 7d f8	 mov	 DWORD PTR _iYPos$[ebp], edi
  0003d	0f 84 8c 01 00
	00		 je	 $LN39@OnRender@2

; 121  : 	{
; 122  : 		if( m_pIconBack )

  00043	33 db		 xor	 ebx, ebx
  00045	39 9e fc 01 00
	00		 cmp	 DWORD PTR [esi+508], ebx
  0004b	0f 84 b7 00 00
	00		 je	 $LN62@OnRender@2

; 123  : 		{
; 124  : 			m_pIconBack->SetScale( FLOAT05, FLOAT05 );

  00051	b8 05 00 00 00	 mov	 eax, 5
  00056	8b d0		 mov	 edx, eax
  00058	b8 0a 00 00 00	 mov	 eax, 10			; 0000000aH
  0005d	89 45 f0	 mov	 DWORD PTR $T538100[ebp], eax
  00060	b8 05 00 00 00	 mov	 eax, 5
  00065	89 45 ec	 mov	 DWORD PTR $T538104[ebp], eax
  00068	b8 0a 00 00 00	 mov	 eax, 10			; 0000000aH
  0006d	8b 8e fc 01 00
	00		 mov	 ecx, DWORD PTR [esi+508]
  00073	89 55 e4	 mov	 DWORD PTR tv1314[ebp], edx
  00076	db 45 e4	 fild	 DWORD PTR tv1314[ebp]
  00079	89 45 e8	 mov	 DWORD PTR $T538108[ebp], eax
  0007c	8b 01		 mov	 eax, DWORD PTR [ecx]
  0007e	85 d2		 test	 edx, edx
  00080	79 06		 jns	 SHORT $LN70@OnRender@2
  00082	d8 05 00 00 00
	00		 fadd	 DWORD PTR __real@4f800000
$LN70@OnRender@2:
  00088	8b 55 f0	 mov	 edx, DWORD PTR $T538100[ebp]
  0008b	db 45 f0	 fild	 DWORD PTR $T538100[ebp]
  0008e	85 d2		 test	 edx, edx
  00090	79 06		 jns	 SHORT $LN71@OnRender@2
  00092	d8 05 00 00 00
	00		 fadd	 DWORD PTR __real@4f800000
$LN71@OnRender@2:
  00098	de f9		 fdivp	 ST(1), ST(0)
  0009a	8b 55 ec	 mov	 edx, DWORD PTR $T538104[ebp]
  0009d	51		 push	 ecx
  0009e	51		 push	 ecx
  0009f	d9 5d f0	 fstp	 DWORD PTR tv1306[ebp]
  000a2	d9 45 f0	 fld	 DWORD PTR tv1306[ebp]
  000a5	d9 5c 24 04	 fstp	 DWORD PTR [esp+4]
  000a9	db 45 ec	 fild	 DWORD PTR $T538104[ebp]
  000ac	85 d2		 test	 edx, edx
  000ae	79 06		 jns	 SHORT $LN72@OnRender@2
  000b0	d8 05 00 00 00
	00		 fadd	 DWORD PTR __real@4f800000
$LN72@OnRender@2:
  000b6	8b 55 e8	 mov	 edx, DWORD PTR $T538108[ebp]
  000b9	db 45 e8	 fild	 DWORD PTR $T538108[ebp]
  000bc	85 d2		 test	 edx, edx
  000be	79 06		 jns	 SHORT $LN73@OnRender@2
  000c0	d8 05 00 00 00
	00		 fadd	 DWORD PTR __real@4f800000
$LN73@OnRender@2:
  000c6	de f9		 fdivp	 ST(1), ST(0)
  000c8	d9 5d e8	 fstp	 DWORD PTR tv1294[ebp]
  000cb	d9 45 e8	 fld	 DWORD PTR tv1294[ebp]
  000ce	d9 1c 24	 fstp	 DWORD PTR [esp]
  000d1	ff 50 18	 call	 DWORD PTR [eax+24]

; 125  : 			m_pIconBack->Render( iXPos + 35, iYPos + 35, UI_RENDER_MULTIPLY, TFO_BILINEAR );

  000d4	8b 8e fc 01 00
	00		 mov	 ecx, DWORD PTR [esi+508]
  000da	8b 01		 mov	 eax, DWORD PTR [ecx]
  000dc	53		 push	 ebx
  000dd	53		 push	 ebx
  000de	6a 01		 push	 1
  000e0	6a 08		 push	 8
  000e2	0f 57 c0	 xorps	 xmm0, xmm0
  000e5	8d 57 23	 lea	 edx, DWORD PTR [edi+35]
  000e8	f3 0f 2a c2	 cvtsi2ss xmm0, edx
  000ec	8b 55 fc	 mov	 edx, DWORD PTR _iXPos$[ebp]
  000ef	51		 push	 ecx
  000f0	51		 push	 ecx
  000f1	f3 0f 11 44 24
	04		 movss	 DWORD PTR [esp+4], xmm0
  000f7	83 c2 23	 add	 edx, 35			; 00000023H
  000fa	0f 57 c0	 xorps	 xmm0, xmm0
  000fd	f3 0f 2a c2	 cvtsi2ss xmm0, edx
  00101	f3 0f 11 04 24	 movss	 DWORD PTR [esp], xmm0
  00106	ff 10		 call	 DWORD PTR [eax]
$LN62@OnRender@2:

; 126  : 		}
; 127  : 
; 128  : 		if( m_pIcon )

  00108	39 9e 00 02 00
	00		 cmp	 DWORD PTR [esi+512], ebx
  0010e	0f 84 c2 01 00
	00		 je	 $LN64@OnRender@2

; 129  : 		{
; 130  : 			m_pIcon->SetScale( FLOAT05, FLOAT05 );

  00114	b8 05 00 00 00	 mov	 eax, 5
  00119	8b d0		 mov	 edx, eax
  0011b	b8 0a 00 00 00	 mov	 eax, 10			; 0000000aH
  00120	89 45 e8	 mov	 DWORD PTR $T538116[ebp], eax
  00123	b8 05 00 00 00	 mov	 eax, 5
  00128	89 45 ec	 mov	 DWORD PTR $T538120[ebp], eax
  0012b	b8 0a 00 00 00	 mov	 eax, 10			; 0000000aH
  00130	8b 8e 00 02 00
	00		 mov	 ecx, DWORD PTR [esi+512]
  00136	89 55 e4	 mov	 DWORD PTR tv1280[ebp], edx
  00139	db 45 e4	 fild	 DWORD PTR tv1280[ebp]
  0013c	89 45 f0	 mov	 DWORD PTR $T538124[ebp], eax
  0013f	8b 01		 mov	 eax, DWORD PTR [ecx]
  00141	85 d2		 test	 edx, edx
  00143	79 06		 jns	 SHORT $LN74@OnRender@2
  00145	d8 05 00 00 00
	00		 fadd	 DWORD PTR __real@4f800000
$LN74@OnRender@2:
  0014b	8b 55 e8	 mov	 edx, DWORD PTR $T538116[ebp]
  0014e	db 45 e8	 fild	 DWORD PTR $T538116[ebp]
  00151	85 d2		 test	 edx, edx
  00153	79 06		 jns	 SHORT $LN75@OnRender@2
  00155	d8 05 00 00 00
	00		 fadd	 DWORD PTR __real@4f800000
$LN75@OnRender@2:
  0015b	de f9		 fdivp	 ST(1), ST(0)
  0015d	8b 55 ec	 mov	 edx, DWORD PTR $T538120[ebp]
  00160	51		 push	 ecx
  00161	51		 push	 ecx
  00162	d9 5d e8	 fstp	 DWORD PTR tv1271[ebp]
  00165	d9 45 e8	 fld	 DWORD PTR tv1271[ebp]
  00168	d9 5c 24 04	 fstp	 DWORD PTR [esp+4]
  0016c	db 45 ec	 fild	 DWORD PTR $T538120[ebp]
  0016f	85 d2		 test	 edx, edx
  00171	79 06		 jns	 SHORT $LN76@OnRender@2
  00173	d8 05 00 00 00
	00		 fadd	 DWORD PTR __real@4f800000
$LN76@OnRender@2:
  00179	8b 55 f0	 mov	 edx, DWORD PTR $T538124[ebp]
  0017c	db 45 f0	 fild	 DWORD PTR $T538124[ebp]
  0017f	85 d2		 test	 edx, edx
  00181	79 06		 jns	 SHORT $LN77@OnRender@2
  00183	d8 05 00 00 00
	00		 fadd	 DWORD PTR __real@4f800000
$LN77@OnRender@2:
  00189	de f9		 fdivp	 ST(1), ST(0)
  0018b	d9 5d e8	 fstp	 DWORD PTR tv1259[ebp]
  0018e	d9 45 e8	 fld	 DWORD PTR tv1259[ebp]
  00191	d9 1c 24	 fstp	 DWORD PTR [esp]
  00194	ff 50 18	 call	 DWORD PTR [eax+24]

; 131  : 			m_pIcon->Render( iXPos + 35, iYPos + 35, UI_RENDER_NORMAL, TFO_BILINEAR );

  00197	8b 8e 00 02 00
	00		 mov	 ecx, DWORD PTR [esi+512]
  0019d	8b 01		 mov	 eax, DWORD PTR [ecx]
  0019f	53		 push	 ebx
  001a0	53		 push	 ebx
  001a1	6a 01		 push	 1
  001a3	53		 push	 ebx
  001a4	0f 57 c0	 xorps	 xmm0, xmm0
  001a7	8d 57 23	 lea	 edx, DWORD PTR [edi+35]
  001aa	f3 0f 2a c2	 cvtsi2ss xmm0, edx
  001ae	8b 55 fc	 mov	 edx, DWORD PTR _iXPos$[ebp]
  001b1	51		 push	 ecx
  001b2	51		 push	 ecx
  001b3	f3 0f 11 44 24
	04		 movss	 DWORD PTR [esp+4], xmm0
  001b9	83 c2 23	 add	 edx, 35			; 00000023H
  001bc	0f 57 c0	 xorps	 xmm0, xmm0
  001bf	f3 0f 2a c2	 cvtsi2ss xmm0, edx
  001c3	f3 0f 11 04 24	 movss	 DWORD PTR [esp], xmm0
  001c8	ff 10		 call	 DWORD PTR [eax]

; 132  : 		}
; 133  : 	}
; 134  : 	else

  001ca	e9 07 01 00 00	 jmp	 $LN64@OnRender@2
$LN39@OnRender@2:

; 135  : 	{
; 136  : 		if( m_pIconBack )

  001cf	83 be fc 01 00
	00 00		 cmp	 DWORD PTR [esi+508], 0
  001d6	74 53		 je	 SHORT $LN35@OnRender@2

; 137  : 		{
; 138  : 			m_pIconBack->SetScale( 0.55f, 0.55f );

  001d8	8b 8e fc 01 00
	00		 mov	 ecx, DWORD PTR [esi+508]
  001de	8b 01		 mov	 eax, DWORD PTR [ecx]
  001e0	51		 push	 ecx
  001e1	51		 push	 ecx
  001e2	f3 0f 11 44 24
	04		 movss	 DWORD PTR [esp+4], xmm0
  001e8	f3 0f 11 04 24	 movss	 DWORD PTR [esp], xmm0
  001ed	ff 50 18	 call	 DWORD PTR [eax+24]

; 139  : 			m_pIconBack->Render( iXPos + 35, iYPos + 35, UI_RENDER_MULTIPLY, TFO_BILINEAR );

  001f0	8b 8e fc 01 00
	00		 mov	 ecx, DWORD PTR [esi+508]
  001f6	8b 01		 mov	 eax, DWORD PTR [ecx]
  001f8	6a 00		 push	 0
  001fa	6a 00		 push	 0
  001fc	6a 01		 push	 1
  001fe	6a 08		 push	 8
  00200	0f 57 c0	 xorps	 xmm0, xmm0
  00203	51		 push	 ecx
  00204	8d 57 23	 lea	 edx, DWORD PTR [edi+35]
  00207	f3 0f 2a c2	 cvtsi2ss xmm0, edx
  0020b	51		 push	 ecx
  0020c	f3 0f 11 44 24
	04		 movss	 DWORD PTR [esp+4], xmm0
  00212	8d 53 23	 lea	 edx, DWORD PTR [ebx+35]
  00215	0f 57 c0	 xorps	 xmm0, xmm0
  00218	f3 0f 2a c2	 cvtsi2ss xmm0, edx
  0021c	f3 0f 11 04 24	 movss	 DWORD PTR [esp], xmm0
  00221	ff 10		 call	 DWORD PTR [eax]
  00223	f3 0f 10 05 00
	00 00 00	 movss	 xmm0, DWORD PTR __real@3f0ccccd
$LN35@OnRender@2:

; 140  : 		}
; 141  : 
; 142  : 		if( m_pIcon )

  0022b	83 be 00 02 00
	00 00		 cmp	 DWORD PTR [esi+512], 0
  00232	0f 84 9c 00 00
	00		 je	 $LN63@OnRender@2

; 143  : 		{
; 144  : 			m_pIcon->SetScale( 0.55f, 0.55f );

  00238	8b 8e 00 02 00
	00		 mov	 ecx, DWORD PTR [esi+512]
  0023e	8b 01		 mov	 eax, DWORD PTR [ecx]
  00240	51		 push	 ecx
  00241	51		 push	 ecx
  00242	f3 0f 11 44 24
	04		 movss	 DWORD PTR [esp+4], xmm0
  00248	f3 0f 11 04 24	 movss	 DWORD PTR [esp], xmm0
  0024d	ff 50 18	 call	 DWORD PTR [eax+24]

; 145  : 			if( g_TournamentMgr.IsRegularDisableTournament() && GetID() == LobbyWnd::ID_TOURNAMENT_BTN )

  00250	e8 00 00 00 00	 call	 ?GetSingleton@ioTournamentManager@@SAAAV1@XZ ; ioTournamentManager::GetSingleton
  00255	8b c8		 mov	 ecx, eax
  00257	e8 00 00 00 00	 call	 ?IsRegularDisableTournament@ioTournamentManager@@QAE_NXZ ; ioTournamentManager::IsRegularDisableTournament
  0025c	84 c0		 test	 al, al
  0025e	74 42		 je	 SHORT $LN33@OnRender@2
  00260	8b ce		 mov	 ecx, esi
  00262	ff 15 00 00 00
	00		 call	 DWORD PTR __imp_?GetID@ioWnd@@QBEKXZ
  00268	83 f8 07	 cmp	 eax, 7
  0026b	75 35		 jne	 SHORT $LN33@OnRender@2

; 146  : 				m_pIcon->Render( iXPos + 35, iYPos + 35, UI_RENDER_GRAY_LIGHT, TFO_BILINEAR );

  0026d	8b 8e 00 02 00
	00		 mov	 ecx, DWORD PTR [esi+512]
  00273	8b 01		 mov	 eax, DWORD PTR [ecx]
  00275	6a 00		 push	 0
  00277	6a 00		 push	 0
  00279	6a 01		 push	 1
  0027b	6a 09		 push	 9
  0027d	0f 57 c0	 xorps	 xmm0, xmm0
  00280	51		 push	 ecx
  00281	8d 57 23	 lea	 edx, DWORD PTR [edi+35]
  00284	f3 0f 2a c2	 cvtsi2ss xmm0, edx
  00288	51		 push	 ecx
  00289	f3 0f 11 44 24
	04		 movss	 DWORD PTR [esp+4], xmm0
  0028f	83 c3 23	 add	 ebx, 35			; 00000023H
  00292	0f 57 c0	 xorps	 xmm0, xmm0
  00295	f3 0f 2a c3	 cvtsi2ss xmm0, ebx
  00299	f3 0f 11 04 24	 movss	 DWORD PTR [esp], xmm0
  0029e	ff 10		 call	 DWORD PTR [eax]

; 147  : 			else

  002a0	eb 32		 jmp	 SHORT $LN63@OnRender@2
$LN33@OnRender@2:

; 148  : 				m_pIcon->Render( iXPos + 35, iYPos + 35, UI_RENDER_NORMAL, TFO_BILINEAR );

  002a2	8b 8e 00 02 00
	00		 mov	 ecx, DWORD PTR [esi+512]
  002a8	8b 11		 mov	 edx, DWORD PTR [ecx]
  002aa	33 c0		 xor	 eax, eax
  002ac	50		 push	 eax
  002ad	50		 push	 eax
  002ae	6a 01		 push	 1
  002b0	50		 push	 eax
  002b1	0f 57 c0	 xorps	 xmm0, xmm0
  002b4	51		 push	 ecx
  002b5	8d 47 23	 lea	 eax, DWORD PTR [edi+35]
  002b8	f3 0f 2a c0	 cvtsi2ss xmm0, eax
  002bc	51		 push	 ecx
  002bd	f3 0f 11 44 24
	04		 movss	 DWORD PTR [esp+4], xmm0
  002c3	83 c3 23	 add	 ebx, 35			; 00000023H
  002c6	0f 57 c0	 xorps	 xmm0, xmm0
  002c9	f3 0f 2a c3	 cvtsi2ss xmm0, ebx
  002cd	f3 0f 11 04 24	 movss	 DWORD PTR [esp], xmm0
  002d2	ff 12		 call	 DWORD PTR [edx]
$LN63@OnRender@2:

; 147  : 			else

  002d4	33 db		 xor	 ebx, ebx
$LN64@OnRender@2:

; 149  : 		}
; 150  : 	}
; 151  : 
; 152  : 	switch( GetID() )

  002d6	8b ce		 mov	 ecx, esi
  002d8	ff 15 00 00 00
	00		 call	 DWORD PTR __imp_?GetID@ioWnd@@QBEKXZ
  002de	48		 dec	 eax
  002df	0f 84 31 09 00
	00		 je	 $LN29@OnRender@2
  002e5	48		 dec	 eax
  002e6	0f 84 1e 07 00
	00		 je	 $LN28@OnRender@2
  002ec	48		 dec	 eax
  002ed	0f 84 c6 04 00
	00		 je	 $LN23@OnRender@2
  002f3	48		 dec	 eax
  002f4	0f 84 e8 03 00
	00		 je	 $LN18@OnRender@2
  002fa	48		 dec	 eax
  002fb	0f 84 0a 03 00
	00		 je	 $LN17@OnRender@2
  00301	48		 dec	 eax
  00302	48		 dec	 eax
  00303	0f 85 2b 0a 00
	00		 jne	 $LN30@OnRender@2

; 265  : 	case LobbyWnd::ID_TOURNAMENT_BTN:
; 266  : 		{
; 267  : 			int iState = g_TournamentMgr.GetRegularState();

  00309	e8 00 00 00 00	 call	 ?GetSingleton@ioTournamentManager@@SAAAV1@XZ ; ioTournamentManager::GetSingleton
  0030e	8b c8		 mov	 ecx, eax
  00310	e8 00 00 00 00	 call	 ?GetRegularState@ioTournamentManager@@QAEHXZ ; ioTournamentManager::GetRegularState

; 268  : 			if( iState != -1 )       // 아직 정보가 도착하지 않았음.
; 269  : 			{
; 270  : 				g_FontMgr.SetTextStyle( TS_NORMAL );

  00315	8b 35 00 00 00
	00		 mov	 esi, DWORD PTR __imp_?GetSingleton@ioFontManager@@SAAAV1@XZ
  0031b	89 45 f8	 mov	 DWORD PTR _iState$533616[ebp], eax
  0031e	bb 00 00 00 00	 mov	 ebx, OFFSET ??_C@_0BD@LHBDDMNH@LobbyBtn?3?3OnRender?$AA@
  00323	83 f8 ff	 cmp	 eax, -1
  00326	0f 84 aa 01 00
	00		 je	 $LN6@OnRender@2
  0032c	6a 00		 push	 0
  0032e	ff d6		 call	 esi
  00330	8b c8		 mov	 ecx, eax
  00332	ff 15 00 00 00
	00		 call	 DWORD PTR __imp_?SetTextStyle@ioFontManager@@QAEXW4TextStyle@@@Z

; 271  : 				g_FontMgr.SetAlignType( TAT_CENTER );

  00338	6a 01		 push	 1
  0033a	ff d6		 call	 esi
  0033c	8b c8		 mov	 ecx, eax
  0033e	ff 15 00 00 00
	00		 call	 DWORD PTR __imp_?SetAlignType@ioFontManager@@QAEXW4TextAlignType@@@Z

; 272  : 				g_FontMgr.SetBkColor( 255, 255, 255 );

  00344	be ff 00 00 00	 mov	 esi, 255		; 000000ffH
  00349	56		 push	 esi
  0034a	56		 push	 esi
  0034b	56		 push	 esi
  0034c	ff 15 00 00 00
	00		 call	 DWORD PTR __imp_?GetSingleton@ioFontManager@@SAAAV1@XZ
  00352	8b c8		 mov	 ecx, eax
  00354	ff 15 00 00 00
	00		 call	 DWORD PTR __imp_?SetBkColor@ioFontManager@@QAEXHHH@Z

; 273  : 				g_FontMgr.SetTextColor( 255, 255, 255 );

  0035a	56		 push	 esi
  0035b	56		 push	 esi
  0035c	56		 push	 esi
  0035d	8b 35 00 00 00
	00		 mov	 esi, DWORD PTR __imp_?GetSingleton@ioFontManager@@SAAAV1@XZ
  00363	ff d6		 call	 esi
  00365	8b c8		 mov	 ecx, eax
  00367	ff 15 00 00 00
	00		 call	 DWORD PTR __imp_?SetTextColor@ioFontManager@@QAEXHHH@Z

; 274  : 
; 275  : 				if( g_TournamentMgr.IsRegularDisableTournament() )

  0036d	e8 00 00 00 00	 call	 ?GetSingleton@ioTournamentManager@@SAAAV1@XZ ; ioTournamentManager::GetSingleton
  00372	8b c8		 mov	 ecx, eax
  00374	e8 00 00 00 00	 call	 ?IsRegularDisableTournament@ioTournamentManager@@QAE_NXZ ; ioTournamentManager::IsRegularDisableTournament

; 276  : 				{
; 277  : 					if( m_pStateGreenFrm )

  00379	33 d2		 xor	 edx, edx
  0037b	84 c0		 test	 al, al
  0037d	8b 45 f4	 mov	 eax, DWORD PTR _this$[ebp]
  00380	74 4b		 je	 SHORT $LN14@OnRender@2
  00382	39 90 04 02 00
	00		 cmp	 DWORD PTR [eax+516], edx
  00388	74 2b		 je	 SHORT $LN66@OnRender@2

; 278  : 						m_pStateGreenFrm->Render( iXPos, iYPos, UI_RENDER_GRAY_LIGHT );

  0038a	8b 88 04 02 00
	00		 mov	 ecx, DWORD PTR [eax+516]
  00390	8b 01		 mov	 eax, DWORD PTR [ecx]
  00392	52		 push	 edx
  00393	52		 push	 edx
  00394	52		 push	 edx
  00395	6a 09		 push	 9
  00397	0f 57 c0	 xorps	 xmm0, xmm0
  0039a	51		 push	 ecx
  0039b	f3 0f 2a c7	 cvtsi2ss xmm0, edi
  0039f	51		 push	 ecx
  003a0	f3 0f 11 44 24
	04		 movss	 DWORD PTR [esp+4], xmm0
  003a6	66 0f 6e 45 fc	 movd	 xmm0, DWORD PTR _iXPos$[ebp]
  003ab	0f 5b c0	 cvtdq2ps xmm0, xmm0
  003ae	f3 0f 11 04 24	 movss	 DWORD PTR [esp], xmm0
  003b3	ff 10		 call	 DWORD PTR [eax]
$LN66@OnRender@2:

; 279  : 
; 280  : 					g_FontMgr.SetTextColor( TCT_DEFAULT_LIGHTGRAY );

  003b5	68 a7 a7 a7 ff	 push	 -5789785		; ffa7a7a7H
  003ba	ff d6		 call	 esi
  003bc	8b c8		 mov	 ecx, eax
  003be	ff 15 00 00 00
	00		 call	 DWORD PTR __imp_?SetTextColor@ioFontManager@@QAEXK@Z

; 281  : 					g_FontMgr.PrintText( iXPos + 27, iYPos + 9, FONT_SIZE_11, STR(20) );

  003c4	6a 00		 push	 0
  003c6	6a 14		 push	 20			; 00000014H

; 282  : 				}
; 283  : 				else

  003c8	e9 b5 00 00 00	 jmp	 $LN78@OnRender@2
$LN14@OnRender@2:

; 284  : 				{
; 285  : 					if( iState == TournamentNode::STATE_TEAM_APP )

  003cd	83 7d f8 01	 cmp	 DWORD PTR _iState$533616[ebp], 1
  003d1	75 39		 jne	 SHORT $LN11@OnRender@2

; 286  : 					{
; 287  : 						if( m_pStateOrangeFrm )

  003d3	39 90 0c 02 00
	00		 cmp	 DWORD PTR [eax+524], edx
  003d9	74 2c		 je	 SHORT $LN67@OnRender@2

; 288  : 							m_pStateOrangeFrm->Render( iXPos, iYPos );

  003db	8b 88 0c 02 00
	00		 mov	 ecx, DWORD PTR [eax+524]
  003e1	8b 01		 mov	 eax, DWORD PTR [ecx]
  003e3	52		 push	 edx
  003e4	52		 push	 edx
  003e5	52		 push	 edx
  003e6	52		 push	 edx
  003e7	0f 57 c0	 xorps	 xmm0, xmm0
  003ea	51		 push	 ecx
  003eb	f3 0f 2a c7	 cvtsi2ss xmm0, edi
  003ef	51		 push	 ecx
  003f0	f3 0f 11 44 24
	04		 movss	 DWORD PTR [esp+4], xmm0
  003f6	66 0f 6e 45 fc	 movd	 xmm0, DWORD PTR _iXPos$[ebp]
  003fb	0f 5b c0	 cvtdq2ps xmm0, xmm0
  003fe	f3 0f 11 04 24	 movss	 DWORD PTR [esp], xmm0
  00403	ff 10		 call	 DWORD PTR [eax]
  00405	33 d2		 xor	 edx, edx
$LN67@OnRender@2:

; 289  : 
; 290  : 						g_FontMgr.PrintText( iXPos + 27, iYPos + 9, FONT_SIZE_11, STR(21) );

  00407	52		 push	 edx
  00408	6a 15		 push	 21			; 00000015H
  0040a	eb 76		 jmp	 SHORT $LN78@OnRender@2
$LN11@OnRender@2:

; 291  : 					}
; 292  : 					else if( iState == TournamentNode::STATE_TEAM_DELAY )

  0040c	83 7d f8 02	 cmp	 DWORD PTR _iState$533616[ebp], 2
  00410	75 39		 jne	 SHORT $LN8@OnRender@2

; 293  : 					{
; 294  : 						if( m_pStatePinkFrm )

  00412	39 90 10 02 00
	00		 cmp	 DWORD PTR [eax+528], edx
  00418	74 2c		 je	 SHORT $LN68@OnRender@2

; 295  : 							m_pStatePinkFrm->Render( iXPos, iYPos );

  0041a	8b 88 10 02 00
	00		 mov	 ecx, DWORD PTR [eax+528]
  00420	8b 01		 mov	 eax, DWORD PTR [ecx]
  00422	52		 push	 edx
  00423	52		 push	 edx
  00424	52		 push	 edx
  00425	52		 push	 edx
  00426	0f 57 c0	 xorps	 xmm0, xmm0
  00429	51		 push	 ecx
  0042a	f3 0f 2a c7	 cvtsi2ss xmm0, edi
  0042e	51		 push	 ecx
  0042f	f3 0f 11 44 24
	04		 movss	 DWORD PTR [esp+4], xmm0
  00435	66 0f 6e 45 fc	 movd	 xmm0, DWORD PTR _iXPos$[ebp]
  0043a	0f 5b c0	 cvtdq2ps xmm0, xmm0
  0043d	f3 0f 11 04 24	 movss	 DWORD PTR [esp], xmm0
  00442	ff 10		 call	 DWORD PTR [eax]
  00444	33 d2		 xor	 edx, edx
$LN68@OnRender@2:

; 296  : 
; 297  : 						g_FontMgr.PrintText( iXPos + 27, iYPos + 9, FONT_SIZE_11, STR(22) );

  00446	52		 push	 edx
  00447	6a 16		 push	 22			; 00000016H

; 298  : 
; 299  : 					}
; 300  : 					else

  00449	eb 37		 jmp	 SHORT $LN78@OnRender@2
$LN8@OnRender@2:

; 301  : 					{
; 302  : 						if( m_pStateGreenFrm )

  0044b	39 90 04 02 00
	00		 cmp	 DWORD PTR [eax+516], edx
  00451	74 2c		 je	 SHORT $LN69@OnRender@2

; 303  : 							m_pStateGreenFrm->Render( iXPos, iYPos );

  00453	8b 88 04 02 00
	00		 mov	 ecx, DWORD PTR [eax+516]
  00459	8b 01		 mov	 eax, DWORD PTR [ecx]
  0045b	52		 push	 edx
  0045c	52		 push	 edx
  0045d	52		 push	 edx
  0045e	52		 push	 edx
  0045f	0f 57 c0	 xorps	 xmm0, xmm0
  00462	51		 push	 ecx
  00463	f3 0f 2a c7	 cvtsi2ss xmm0, edi
  00467	51		 push	 ecx
  00468	f3 0f 11 44 24
	04		 movss	 DWORD PTR [esp+4], xmm0
  0046e	66 0f 6e 45 fc	 movd	 xmm0, DWORD PTR _iXPos$[ebp]
  00473	0f 5b c0	 cvtdq2ps xmm0, xmm0
  00476	f3 0f 11 04 24	 movss	 DWORD PTR [esp], xmm0
  0047b	ff 10		 call	 DWORD PTR [eax]
  0047d	33 d2		 xor	 edx, edx
$LN69@OnRender@2:

; 304  : 
; 305  : 						g_FontMgr.PrintText( iXPos + 27, iYPos + 9, FONT_SIZE_11, STR(23) );

  0047f	52		 push	 edx
  00480	6a 17		 push	 23			; 00000017H
$LN78@OnRender@2:
  00482	68 00 00 00 00	 push	 OFFSET ??_C@_00CNPNBAHC@?$AA@
  00487	53		 push	 ebx
  00488	ff 15 00 00 00
	00		 call	 DWORD PTR __imp_?GetSingleton@ioStringManager@@SAAAV1@XZ
  0048e	8b c8		 mov	 ecx, eax
  00490	ff 15 00 00 00
	00		 call	 DWORD PTR __imp_?GetString@ioStringManager@@QAEPADPBD0HW4FileNamePrefix@1@@Z
  00496	f3 0f 10 05 00
	00 00 00	 movss	 xmm0, DWORD PTR __real@3f0ccccd
  0049e	50		 push	 eax
  0049f	83 ec 0c	 sub	 esp, 12			; 0000000cH
  004a2	f3 0f 11 44 24
	08		 movss	 DWORD PTR [esp+8], xmm0
  004a8	0f 57 c0	 xorps	 xmm0, xmm0
  004ab	8d 47 09	 lea	 eax, DWORD PTR [edi+9]
  004ae	f3 0f 2a c0	 cvtsi2ss xmm0, eax
  004b2	8b 45 fc	 mov	 eax, DWORD PTR _iXPos$[ebp]
  004b5	f3 0f 11 44 24
	04		 movss	 DWORD PTR [esp+4], xmm0
  004bb	83 c0 1b	 add	 eax, 27			; 0000001bH
  004be	0f 57 c0	 xorps	 xmm0, xmm0
  004c1	f3 0f 2a c0	 cvtsi2ss xmm0, eax
  004c5	f3 0f 11 04 24	 movss	 DWORD PTR [esp], xmm0
  004ca	ff d6		 call	 esi
  004cc	50		 push	 eax
  004cd	ff 15 00 00 00
	00		 call	 DWORD PTR __imp_?PrintText@ioFontManager@@QAAXMMMPBDZZ
  004d3	83 c4 14	 add	 esp, 20			; 00000014H
$LN6@OnRender@2:

; 306  : 					}
; 307  : 				}
; 308  : 			}
; 309  : 
; 310  : 			g_FontMgr.SetTextStyle( TS_NORMAL );

  004d6	6a 00		 push	 0
  004d8	ff d6		 call	 esi
  004da	8b c8		 mov	 ecx, eax
  004dc	ff 15 00 00 00
	00		 call	 DWORD PTR __imp_?SetTextStyle@ioFontManager@@QAEXW4TextStyle@@@Z

; 311  : 			g_FontMgr.SetAlignType( TAT_LEFT );

  004e2	6a 00		 push	 0
  004e4	ff d6		 call	 esi
  004e6	8b c8		 mov	 ecx, eax
  004e8	ff 15 00 00 00
	00		 call	 DWORD PTR __imp_?SetAlignType@ioFontManager@@QAEXW4TextAlignType@@@Z

; 312  : 
; 313  : 			if( g_TournamentMgr.IsRegularDisableTournament() )

  004ee	e8 00 00 00 00	 call	 ?GetSingleton@ioTournamentManager@@SAAAV1@XZ ; ioTournamentManager::GetSingleton
  004f3	8b c8		 mov	 ecx, eax
  004f5	e8 00 00 00 00	 call	 ?IsRegularDisableTournament@ioTournamentManager@@QAE_NXZ ; ioTournamentManager::IsRegularDisableTournament
  004fa	84 c0		 test	 al, al
  004fc	74 20		 je	 SHORT $LN4@OnRender@2

; 314  : 			{
; 315  : 				g_FontMgr.SetBkColor( TCT_DEFAULT_LIGHTGRAY );

  004fe	68 a7 a7 a7 ff	 push	 -5789785		; ffa7a7a7H
  00503	ff d6		 call	 esi
  00505	8b c8		 mov	 ecx, eax
  00507	ff 15 00 00 00
	00		 call	 DWORD PTR __imp_?SetBkColor@ioFontManager@@QAEXK@Z

; 316  : 				g_FontMgr.SetTextColor( TCT_DEFAULT_LIGHTGRAY );

  0050d	68 a7 a7 a7 ff	 push	 -5789785		; ffa7a7a7H
  00512	ff d6		 call	 esi
  00514	8b c8		 mov	 ecx, eax
  00516	ff 15 00 00 00
	00		 call	 DWORD PTR __imp_?SetTextColor@ioFontManager@@QAEXK@Z

; 317  : 			}
; 318  : 			else

  0051c	eb 29		 jmp	 SHORT $LN3@OnRender@2
$LN4@OnRender@2:

; 319  : 			{
; 320  : 				g_FontMgr.SetBkColor( TCT_DEFAULT_DARKGRAY );

  0051e	be 3a 3a 3a ff	 mov	 esi, -12961222		; ff3a3a3aH
  00523	56		 push	 esi
  00524	ff 15 00 00 00
	00		 call	 DWORD PTR __imp_?GetSingleton@ioFontManager@@SAAAV1@XZ
  0052a	8b c8		 mov	 ecx, eax
  0052c	ff 15 00 00 00
	00		 call	 DWORD PTR __imp_?SetBkColor@ioFontManager@@QAEXK@Z

; 321  : 				g_FontMgr.SetTextColor( TCT_DEFAULT_DARKGRAY );

  00532	56		 push	 esi
  00533	ff 15 00 00 00
	00		 call	 DWORD PTR __imp_?GetSingleton@ioFontManager@@SAAAV1@XZ
  00539	8b c8		 mov	 ecx, eax
  0053b	ff 15 00 00 00
	00		 call	 DWORD PTR __imp_?SetTextColor@ioFontManager@@QAEXK@Z
  00541	8b 35 00 00 00
	00		 mov	 esi, DWORD PTR __imp_?GetSingleton@ioFontManager@@SAAAV1@XZ
$LN3@OnRender@2:

; 322  : 			}
; 323  : 
; 324  : 			g_FontMgr.PrintText( iXPos + 59, iYPos + 18, FONT_SIZE_17, STR(24) );

  00547	8b 45 fc	 mov	 eax, DWORD PTR _iXPos$[ebp]
  0054a	6a 00		 push	 0
  0054c	6a 18		 push	 24			; 00000018H
  0054e	83 c0 3b	 add	 eax, 59			; 0000003bH
  00551	0f 57 c0	 xorps	 xmm0, xmm0
  00554	68 00 00 00 00	 push	 OFFSET ??_C@_00CNPNBAHC@?$AA@
  00559	f3 0f 2a c0	 cvtsi2ss xmm0, eax
  0055d	53		 push	 ebx
  0055e	f3 0f 11 45 fc	 movss	 DWORD PTR tv1346[ebp], xmm0
  00563	ff 15 00 00 00
	00		 call	 DWORD PTR __imp_?GetSingleton@ioStringManager@@SAAAV1@XZ
  00569	8b c8		 mov	 ecx, eax
  0056b	ff 15 00 00 00
	00		 call	 DWORD PTR __imp_?GetString@ioStringManager@@QAEPADPBD0HW4FileNamePrefix@1@@Z
  00571	f3 0f 10 05 00
	00 00 00	 movss	 xmm0, DWORD PTR __real@3f59999a
  00579	50		 push	 eax
  0057a	83 ec 0c	 sub	 esp, 12			; 0000000cH
  0057d	f3 0f 11 44 24
	08		 movss	 DWORD PTR [esp+8], xmm0
  00583	8d 47 12	 lea	 eax, DWORD PTR [edi+18]
  00586	0f 57 c0	 xorps	 xmm0, xmm0
  00589	f3 0f 2a c0	 cvtsi2ss xmm0, eax
  0058d	f3 0f 11 44 24
	04		 movss	 DWORD PTR [esp+4], xmm0
  00593	f3 0f 10 45 fc	 movss	 xmm0, DWORD PTR tv1346[ebp]
  00598	f3 0f 11 04 24	 movss	 DWORD PTR [esp], xmm0
  0059d	ff d6		 call	 esi
  0059f	50		 push	 eax
  005a0	ff 15 00 00 00
	00		 call	 DWORD PTR __imp_?PrintText@ioFontManager@@QAAXMMMPBDZZ
  005a6	83 c4 14	 add	 esp, 20			; 00000014H

; 325  : 
; 326  : 			if( g_TournamentMgr.IsRegularDisableTournament() )

  005a9	e8 00 00 00 00	 call	 ?GetSingleton@ioTournamentManager@@SAAAV1@XZ ; ioTournamentManager::GetSingleton
  005ae	8b c8		 mov	 ecx, eax
  005b0	e8 00 00 00 00	 call	 ?IsRegularDisableTournament@ioTournamentManager@@QAE_NXZ ; ioTournamentManager::IsRegularDisableTournament
  005b5	84 c0		 test	 al, al
  005b7	74 20		 je	 SHORT $LN2@OnRender@2

; 327  : 			{
; 328  : 				g_FontMgr.SetBkColor( TCT_DEFAULT_LIGHTGRAY );

  005b9	68 a7 a7 a7 ff	 push	 -5789785		; ffa7a7a7H
  005be	ff d6		 call	 esi
  005c0	8b c8		 mov	 ecx, eax
  005c2	ff 15 00 00 00
	00		 call	 DWORD PTR __imp_?SetBkColor@ioFontManager@@QAEXK@Z

; 329  : 				g_FontMgr.SetTextColor( TCT_DEFAULT_LIGHTGRAY );

  005c8	68 a7 a7 a7 ff	 push	 -5789785		; ffa7a7a7H
  005cd	ff d6		 call	 esi
  005cf	8b c8		 mov	 ecx, eax
  005d1	ff 15 00 00 00
	00		 call	 DWORD PTR __imp_?SetTextColor@ioFontManager@@QAEXK@Z

; 330  : 			}
; 331  : 			else

  005d7	eb 29		 jmp	 SHORT $LN1@OnRender@2
$LN2@OnRender@2:

; 332  : 			{
; 333  : 				g_FontMgr.SetBkColor( TCT_DEFAULT_GRAY );

  005d9	be 6e 6e 6e ff	 mov	 esi, -9539986		; ff6e6e6eH
  005de	56		 push	 esi
  005df	ff 15 00 00 00
	00		 call	 DWORD PTR __imp_?GetSingleton@ioFontManager@@SAAAV1@XZ
  005e5	8b c8		 mov	 ecx, eax
  005e7	ff 15 00 00 00
	00		 call	 DWORD PTR __imp_?SetBkColor@ioFontManager@@QAEXK@Z

; 334  : 				g_FontMgr.SetTextColor( TCT_DEFAULT_GRAY );

  005ed	56		 push	 esi
  005ee	ff 15 00 00 00
	00		 call	 DWORD PTR __imp_?GetSingleton@ioFontManager@@SAAAV1@XZ
  005f4	8b c8		 mov	 ecx, eax
  005f6	ff 15 00 00 00
	00		 call	 DWORD PTR __imp_?SetTextColor@ioFontManager@@QAEXK@Z
  005fc	8b 35 00 00 00
	00		 mov	 esi, DWORD PTR __imp_?GetSingleton@ioFontManager@@SAAAV1@XZ
$LN1@OnRender@2:

; 335  : 			}
; 336  : 			g_FontMgr.PrintText( iXPos + 59, iYPos + 39, FONT_SIZE_11, STR(25) );

  00602	6a 00		 push	 0
  00604	6a 19		 push	 25			; 00000019H

; 337  : 		}
; 338  : 		break;

  00606	e9 dd 06 00 00	 jmp	 $LN79@OnRender@2
$LN17@OnRender@2:

; 252  : 	case LobbyWnd::ID_TRADE_BTN:
; 253  : 		{
; 254  : 			g_FontMgr.SetTextStyle( TS_NORMAL );

  0060b	8b 35 00 00 00
	00		 mov	 esi, DWORD PTR __imp_?GetSingleton@ioFontManager@@SAAAV1@XZ
  00611	53		 push	 ebx
  00612	ff d6		 call	 esi
  00614	8b c8		 mov	 ecx, eax
  00616	ff 15 00 00 00
	00		 call	 DWORD PTR __imp_?SetTextStyle@ioFontManager@@QAEXW4TextStyle@@@Z

; 255  : 			g_FontMgr.SetAlignType( TAT_LEFT );

  0061c	53		 push	 ebx
  0061d	ff d6		 call	 esi
  0061f	8b c8		 mov	 ecx, eax
  00621	ff 15 00 00 00
	00		 call	 DWORD PTR __imp_?SetAlignType@ioFontManager@@QAEXW4TextAlignType@@@Z

; 256  : 			g_FontMgr.SetBkColor( TCT_DEFAULT_DARKGRAY );

  00627	be 3a 3a 3a ff	 mov	 esi, -12961222		; ff3a3a3aH
  0062c	56		 push	 esi
  0062d	ff 15 00 00 00
	00		 call	 DWORD PTR __imp_?GetSingleton@ioFontManager@@SAAAV1@XZ
  00633	8b c8		 mov	 ecx, eax
  00635	ff 15 00 00 00
	00		 call	 DWORD PTR __imp_?SetBkColor@ioFontManager@@QAEXK@Z

; 257  : 			g_FontMgr.SetTextColor( TCT_DEFAULT_DARKGRAY );

  0063b	56		 push	 esi
  0063c	ff 15 00 00 00
	00		 call	 DWORD PTR __imp_?GetSingleton@ioFontManager@@SAAAV1@XZ
  00642	8b c8		 mov	 ecx, eax
  00644	ff 15 00 00 00
	00		 call	 DWORD PTR __imp_?SetTextColor@ioFontManager@@QAEXK@Z

; 258  : 			g_FontMgr.PrintText( iXPos + 59, iYPos + 18, FONT_SIZE_17, STR(13) );

  0064a	8b 45 fc	 mov	 eax, DWORD PTR _iXPos$[ebp]
  0064d	53		 push	 ebx
  0064e	6a 0d		 push	 13			; 0000000dH
  00650	83 c0 3b	 add	 eax, 59			; 0000003bH
  00653	0f 57 c0	 xorps	 xmm0, xmm0
  00656	68 00 00 00 00	 push	 OFFSET ??_C@_00CNPNBAHC@?$AA@
  0065b	bb 00 00 00 00	 mov	 ebx, OFFSET ??_C@_0BD@LHBDDMNH@LobbyBtn?3?3OnRender?$AA@
  00660	f3 0f 2a c0	 cvtsi2ss xmm0, eax
  00664	53		 push	 ebx
  00665	f3 0f 11 45 fc	 movss	 DWORD PTR tv1346[ebp], xmm0
  0066a	ff 15 00 00 00
	00		 call	 DWORD PTR __imp_?GetSingleton@ioStringManager@@SAAAV1@XZ
  00670	8b c8		 mov	 ecx, eax
  00672	ff 15 00 00 00
	00		 call	 DWORD PTR __imp_?GetString@ioStringManager@@QAEPADPBD0HW4FileNamePrefix@1@@Z
  00678	f3 0f 10 05 00
	00 00 00	 movss	 xmm0, DWORD PTR __real@3f59999a
  00680	50		 push	 eax
  00681	83 ec 0c	 sub	 esp, 12			; 0000000cH
  00684	f3 0f 11 44 24
	08		 movss	 DWORD PTR [esp+8], xmm0
  0068a	8d 47 12	 lea	 eax, DWORD PTR [edi+18]
  0068d	0f 57 c0	 xorps	 xmm0, xmm0
  00690	f3 0f 2a c0	 cvtsi2ss xmm0, eax
  00694	f3 0f 11 44 24
	04		 movss	 DWORD PTR [esp+4], xmm0
  0069a	f3 0f 10 45 fc	 movss	 xmm0, DWORD PTR tv1346[ebp]
  0069f	f3 0f 11 04 24	 movss	 DWORD PTR [esp], xmm0
  006a4	ff 15 00 00 00
	00		 call	 DWORD PTR __imp_?GetSingleton@ioFontManager@@SAAAV1@XZ
  006aa	50		 push	 eax
  006ab	ff 15 00 00 00
	00		 call	 DWORD PTR __imp_?PrintText@ioFontManager@@QAAXMMMPBDZZ
  006b1	83 c4 14	 add	 esp, 20			; 00000014H

; 259  : 
; 260  : 			g_FontMgr.SetBkColor( TCT_DEFAULT_GRAY );

  006b4	be 6e 6e 6e ff	 mov	 esi, -9539986		; ff6e6e6eH
  006b9	56		 push	 esi
  006ba	ff 15 00 00 00
	00		 call	 DWORD PTR __imp_?GetSingleton@ioFontManager@@SAAAV1@XZ
  006c0	8b c8		 mov	 ecx, eax
  006c2	ff 15 00 00 00
	00		 call	 DWORD PTR __imp_?SetBkColor@ioFontManager@@QAEXK@Z

; 261  : 			g_FontMgr.SetTextColor( TCT_DEFAULT_GRAY );

  006c8	56		 push	 esi
  006c9	8b 35 00 00 00
	00		 mov	 esi, DWORD PTR __imp_?GetSingleton@ioFontManager@@SAAAV1@XZ
  006cf	ff d6		 call	 esi
  006d1	8b c8		 mov	 ecx, eax
  006d3	ff 15 00 00 00
	00		 call	 DWORD PTR __imp_?SetTextColor@ioFontManager@@QAEXK@Z

; 262  : 			g_FontMgr.PrintText( iXPos + 59, iYPos + 39, FONT_SIZE_11, STR(14) );

  006d9	6a 00		 push	 0
  006db	6a 0e		 push	 14			; 0000000eH

; 263  : 		}
; 264  : 		break;

  006dd	e9 06 06 00 00	 jmp	 $LN79@OnRender@2
$LN18@OnRender@2:

; 239  : 	case LobbyWnd::ID_PLAZA_BTN:
; 240  : 		{
; 241  : 			g_FontMgr.SetTextStyle( TS_NORMAL );

  006e2	8b 35 00 00 00
	00		 mov	 esi, DWORD PTR __imp_?GetSingleton@ioFontManager@@SAAAV1@XZ
  006e8	53		 push	 ebx
  006e9	ff d6		 call	 esi
  006eb	8b c8		 mov	 ecx, eax
  006ed	ff 15 00 00 00
	00		 call	 DWORD PTR __imp_?SetTextStyle@ioFontManager@@QAEXW4TextStyle@@@Z

; 242  : 			g_FontMgr.SetAlignType( TAT_LEFT );

  006f3	53		 push	 ebx
  006f4	ff d6		 call	 esi
  006f6	8b c8		 mov	 ecx, eax
  006f8	ff 15 00 00 00
	00		 call	 DWORD PTR __imp_?SetAlignType@ioFontManager@@QAEXW4TextAlignType@@@Z

; 243  : 			g_FontMgr.SetBkColor( TCT_DEFAULT_DARKGRAY );

  006fe	be 3a 3a 3a ff	 mov	 esi, -12961222		; ff3a3a3aH
  00703	56		 push	 esi
  00704	ff 15 00 00 00
	00		 call	 DWORD PTR __imp_?GetSingleton@ioFontManager@@SAAAV1@XZ
  0070a	8b c8		 mov	 ecx, eax
  0070c	ff 15 00 00 00
	00		 call	 DWORD PTR __imp_?SetBkColor@ioFontManager@@QAEXK@Z

; 244  : 			g_FontMgr.SetTextColor( TCT_DEFAULT_DARKGRAY );

  00712	56		 push	 esi
  00713	ff 15 00 00 00
	00		 call	 DWORD PTR __imp_?GetSingleton@ioFontManager@@SAAAV1@XZ
  00719	8b c8		 mov	 ecx, eax
  0071b	ff 15 00 00 00
	00		 call	 DWORD PTR __imp_?SetTextColor@ioFontManager@@QAEXK@Z

; 245  : 			g_FontMgr.PrintText( iXPos + 59, iYPos + 18, FONT_SIZE_17, STR(11) );

  00721	8b 45 fc	 mov	 eax, DWORD PTR _iXPos$[ebp]
  00724	53		 push	 ebx
  00725	6a 0b		 push	 11			; 0000000bH
  00727	83 c0 3b	 add	 eax, 59			; 0000003bH
  0072a	0f 57 c0	 xorps	 xmm0, xmm0
  0072d	68 00 00 00 00	 push	 OFFSET ??_C@_00CNPNBAHC@?$AA@
  00732	bb 00 00 00 00	 mov	 ebx, OFFSET ??_C@_0BD@LHBDDMNH@LobbyBtn?3?3OnRender?$AA@
  00737	f3 0f 2a c0	 cvtsi2ss xmm0, eax
  0073b	53		 push	 ebx
  0073c	f3 0f 11 45 fc	 movss	 DWORD PTR tv1346[ebp], xmm0
  00741	ff 15 00 00 00
	00		 call	 DWORD PTR __imp_?GetSingleton@ioStringManager@@SAAAV1@XZ
  00747	8b c8		 mov	 ecx, eax
  00749	ff 15 00 00 00
	00		 call	 DWORD PTR __imp_?GetString@ioStringManager@@QAEPADPBD0HW4FileNamePrefix@1@@Z
  0074f	f3 0f 10 05 00
	00 00 00	 movss	 xmm0, DWORD PTR __real@3f59999a
  00757	50		 push	 eax
  00758	83 ec 0c	 sub	 esp, 12			; 0000000cH
  0075b	f3 0f 11 44 24
	08		 movss	 DWORD PTR [esp+8], xmm0
  00761	8d 47 12	 lea	 eax, DWORD PTR [edi+18]
  00764	0f 57 c0	 xorps	 xmm0, xmm0
  00767	f3 0f 2a c0	 cvtsi2ss xmm0, eax
  0076b	f3 0f 11 44 24
	04		 movss	 DWORD PTR [esp+4], xmm0
  00771	f3 0f 10 45 fc	 movss	 xmm0, DWORD PTR tv1346[ebp]
  00776	f3 0f 11 04 24	 movss	 DWORD PTR [esp], xmm0
  0077b	ff 15 00 00 00
	00		 call	 DWORD PTR __imp_?GetSingleton@ioFontManager@@SAAAV1@XZ
  00781	50		 push	 eax
  00782	ff 15 00 00 00
	00		 call	 DWORD PTR __imp_?PrintText@ioFontManager@@QAAXMMMPBDZZ
  00788	83 c4 14	 add	 esp, 20			; 00000014H

; 246  : 
; 247  : 			g_FontMgr.SetBkColor( TCT_DEFAULT_GRAY );

  0078b	be 6e 6e 6e ff	 mov	 esi, -9539986		; ff6e6e6eH
  00790	56		 push	 esi
  00791	ff 15 00 00 00
	00		 call	 DWORD PTR __imp_?GetSingleton@ioFontManager@@SAAAV1@XZ
  00797	8b c8		 mov	 ecx, eax
  00799	ff 15 00 00 00
	00		 call	 DWORD PTR __imp_?SetBkColor@ioFontManager@@QAEXK@Z

; 248  : 			g_FontMgr.SetTextColor( TCT_DEFAULT_GRAY );

  0079f	56		 push	 esi
  007a0	8b 35 00 00 00
	00		 mov	 esi, DWORD PTR __imp_?GetSingleton@ioFontManager@@SAAAV1@XZ
  007a6	ff d6		 call	 esi
  007a8	8b c8		 mov	 ecx, eax
  007aa	ff 15 00 00 00
	00		 call	 DWORD PTR __imp_?SetTextColor@ioFontManager@@QAEXK@Z

; 249  : 			g_FontMgr.PrintText( iXPos + 59, iYPos + 39, FONT_SIZE_11, STR(12) );

  007b0	6a 00		 push	 0
  007b2	6a 0c		 push	 12			; 0000000cH

; 250  : 		}
; 251  : 		break;

  007b4	e9 2f 05 00 00	 jmp	 $LN79@OnRender@2
$LN23@OnRender@2:

; 203  : 	case LobbyWnd::ID_HERO_MAIN_BTN:
; 204  : 		{
; 205  : 			if( g_CampMgr.GetNextTodayBattleSec() == -1 )

  007b9	e8 00 00 00 00	 call	 ?GetSingleton@ioCampManager@@SAAAV1@XZ ; ioCampManager::GetSingleton
  007be	83 b8 c8 00 00
	00 ff		 cmp	 DWORD PTR [eax+200], -1
  007c5	75 74		 jne	 SHORT $LN22@OnRender@2

; 206  : 			{
; 207  : 				// 휴식중
; 208  : 				if( m_pStateRedFrm )

  007c7	39 9e 08 02 00
	00		 cmp	 DWORD PTR [esi+520], ebx
  007cd	74 2a		 je	 SHORT $LN21@OnRender@2

; 209  : 					m_pStateRedFrm->Render( iXPos, iYPos );

  007cf	8b 8e 08 02 00
	00		 mov	 ecx, DWORD PTR [esi+520]
  007d5	8b 01		 mov	 eax, DWORD PTR [ecx]
  007d7	53		 push	 ebx
  007d8	53		 push	 ebx
  007d9	53		 push	 ebx
  007da	53		 push	 ebx
  007db	0f 57 c0	 xorps	 xmm0, xmm0
  007de	51		 push	 ecx
  007df	f3 0f 2a c7	 cvtsi2ss xmm0, edi
  007e3	51		 push	 ecx
  007e4	f3 0f 11 44 24
	04		 movss	 DWORD PTR [esp+4], xmm0
  007ea	66 0f 6e 45 fc	 movd	 xmm0, DWORD PTR _iXPos$[ebp]
  007ef	0f 5b c0	 cvtdq2ps xmm0, xmm0
  007f2	f3 0f 11 04 24	 movss	 DWORD PTR [esp], xmm0
  007f7	ff 10		 call	 DWORD PTR [eax]
$LN21@OnRender@2:

; 210  : 				g_FontMgr.SetTextStyle( TS_NORMAL );

  007f9	8b 3d 00 00 00
	00		 mov	 edi, DWORD PTR __imp_?GetSingleton@ioFontManager@@SAAAV1@XZ
  007ff	53		 push	 ebx
  00800	ff d7		 call	 edi
  00802	8b c8		 mov	 ecx, eax
  00804	ff 15 00 00 00
	00		 call	 DWORD PTR __imp_?SetTextStyle@ioFontManager@@QAEXW4TextStyle@@@Z

; 211  : 				g_FontMgr.SetAlignType( TAT_CENTER );

  0080a	6a 01		 push	 1
  0080c	ff d7		 call	 edi
  0080e	8b c8		 mov	 ecx, eax
  00810	ff 15 00 00 00
	00		 call	 DWORD PTR __imp_?SetAlignType@ioFontManager@@QAEXW4TextAlignType@@@Z

; 212  : 				g_FontMgr.SetBkColor( 255, 255, 255 );

  00816	be ff 00 00 00	 mov	 esi, 255		; 000000ffH
  0081b	56		 push	 esi
  0081c	56		 push	 esi
  0081d	56		 push	 esi
  0081e	ff d7		 call	 edi
  00820	8b c8		 mov	 ecx, eax
  00822	ff 15 00 00 00
	00		 call	 DWORD PTR __imp_?SetBkColor@ioFontManager@@QAEXHHH@Z

; 213  : 				g_FontMgr.SetTextColor( 255, 255, 255 );

  00828	56		 push	 esi
  00829	56		 push	 esi
  0082a	56		 push	 esi
  0082b	ff d7		 call	 edi
  0082d	8b c8		 mov	 ecx, eax
  0082f	ff 15 00 00 00
	00		 call	 DWORD PTR __imp_?SetTextColor@ioFontManager@@QAEXHHH@Z

; 214  : 				g_FontMgr.PrintText( iXPos + 27, iYPos + 9, FONT_SIZE_11, STR(7) );

  00835	6a 00		 push	 0
  00837	6a 07		 push	 7

; 215  : 			}
; 216  : 			else

  00839	eb 72		 jmp	 SHORT $LN80@OnRender@2
$LN22@OnRender@2:

; 217  : 			{
; 218  : 				// 진행중
; 219  : 				if( m_pStateGreenFrm )

  0083b	39 9e 04 02 00
	00		 cmp	 DWORD PTR [esi+516], ebx
  00841	74 2a		 je	 SHORT $LN19@OnRender@2

; 220  : 					m_pStateGreenFrm->Render( iXPos, iYPos );

  00843	8b 8e 04 02 00
	00		 mov	 ecx, DWORD PTR [esi+516]
  00849	8b 01		 mov	 eax, DWORD PTR [ecx]
  0084b	53		 push	 ebx
  0084c	53		 push	 ebx
  0084d	53		 push	 ebx
  0084e	53		 push	 ebx
  0084f	0f 57 c0	 xorps	 xmm0, xmm0
  00852	51		 push	 ecx
  00853	f3 0f 2a c7	 cvtsi2ss xmm0, edi
  00857	51		 push	 ecx
  00858	f3 0f 11 44 24
	04		 movss	 DWORD PTR [esp+4], xmm0
  0085e	66 0f 6e 45 fc	 movd	 xmm0, DWORD PTR _iXPos$[ebp]
  00863	0f 5b c0	 cvtdq2ps xmm0, xmm0
  00866	f3 0f 11 04 24	 movss	 DWORD PTR [esp], xmm0
  0086b	ff 10		 call	 DWORD PTR [eax]
$LN19@OnRender@2:

; 221  : 				g_FontMgr.SetTextStyle( TS_NORMAL );

  0086d	8b 3d 00 00 00
	00		 mov	 edi, DWORD PTR __imp_?GetSingleton@ioFontManager@@SAAAV1@XZ
  00873	53		 push	 ebx
  00874	ff d7		 call	 edi
  00876	8b c8		 mov	 ecx, eax
  00878	ff 15 00 00 00
	00		 call	 DWORD PTR __imp_?SetTextStyle@ioFontManager@@QAEXW4TextStyle@@@Z

; 222  : 				g_FontMgr.SetAlignType( TAT_CENTER );

  0087e	6a 01		 push	 1
  00880	ff d7		 call	 edi
  00882	8b c8		 mov	 ecx, eax
  00884	ff 15 00 00 00
	00		 call	 DWORD PTR __imp_?SetAlignType@ioFontManager@@QAEXW4TextAlignType@@@Z

; 223  : 				g_FontMgr.SetBkColor( 255, 255, 255 );

  0088a	be ff 00 00 00	 mov	 esi, 255		; 000000ffH
  0088f	56		 push	 esi
  00890	56		 push	 esi
  00891	56		 push	 esi
  00892	ff d7		 call	 edi
  00894	8b c8		 mov	 ecx, eax
  00896	ff 15 00 00 00
	00		 call	 DWORD PTR __imp_?SetBkColor@ioFontManager@@QAEXHHH@Z

; 224  : 				g_FontMgr.SetTextColor( 255, 255, 255 );

  0089c	56		 push	 esi
  0089d	56		 push	 esi
  0089e	56		 push	 esi
  0089f	ff d7		 call	 edi
  008a1	8b c8		 mov	 ecx, eax
  008a3	ff 15 00 00 00
	00		 call	 DWORD PTR __imp_?SetTextColor@ioFontManager@@QAEXHHH@Z

; 225  : 				g_FontMgr.PrintText( iXPos + 27, iYPos + 9, FONT_SIZE_11, STR(8) );

  008a9	6a 00		 push	 0
  008ab	6a 08		 push	 8
$LN80@OnRender@2:
  008ad	68 00 00 00 00	 push	 OFFSET ??_C@_00CNPNBAHC@?$AA@
  008b2	bb 00 00 00 00	 mov	 ebx, OFFSET ??_C@_0BD@LHBDDMNH@LobbyBtn?3?3OnRender?$AA@
  008b7	53		 push	 ebx
  008b8	ff 15 00 00 00
	00		 call	 DWORD PTR __imp_?GetSingleton@ioStringManager@@SAAAV1@XZ
  008be	8b c8		 mov	 ecx, eax
  008c0	ff 15 00 00 00
	00		 call	 DWORD PTR __imp_?GetString@ioStringManager@@QAEPADPBD0HW4FileNamePrefix@1@@Z
  008c6	f3 0f 10 05 00
	00 00 00	 movss	 xmm0, DWORD PTR __real@3f0ccccd
  008ce	50		 push	 eax
  008cf	8b 45 f8	 mov	 eax, DWORD PTR _iYPos$[ebp]
  008d2	83 ec 0c	 sub	 esp, 12			; 0000000cH
  008d5	f3 0f 11 44 24
	08		 movss	 DWORD PTR [esp+8], xmm0
  008db	83 c0 09	 add	 eax, 9
  008de	0f 57 c0	 xorps	 xmm0, xmm0
  008e1	f3 0f 2a c0	 cvtsi2ss xmm0, eax
  008e5	8b 45 fc	 mov	 eax, DWORD PTR _iXPos$[ebp]
  008e8	f3 0f 11 44 24
	04		 movss	 DWORD PTR [esp+4], xmm0
  008ee	83 c0 1b	 add	 eax, 27			; 0000001bH
  008f1	0f 57 c0	 xorps	 xmm0, xmm0
  008f4	f3 0f 2a c0	 cvtsi2ss xmm0, eax
  008f8	f3 0f 11 04 24	 movss	 DWORD PTR [esp], xmm0
  008fd	ff d7		 call	 edi
  008ff	50		 push	 eax
  00900	ff 15 00 00 00
	00		 call	 DWORD PTR __imp_?PrintText@ioFontManager@@QAAXMMMPBDZZ
  00906	83 c4 14	 add	 esp, 20			; 00000014H

; 226  : 			}
; 227  : 
; 228  : 			g_FontMgr.SetTextStyle( TS_NORMAL );

  00909	6a 00		 push	 0
  0090b	ff d7		 call	 edi
  0090d	8b c8		 mov	 ecx, eax
  0090f	ff 15 00 00 00
	00		 call	 DWORD PTR __imp_?SetTextStyle@ioFontManager@@QAEXW4TextStyle@@@Z

; 229  : 			g_FontMgr.SetAlignType( TAT_LEFT );

  00915	6a 00		 push	 0
  00917	ff d7		 call	 edi
  00919	8b c8		 mov	 ecx, eax
  0091b	ff 15 00 00 00
	00		 call	 DWORD PTR __imp_?SetAlignType@ioFontManager@@QAEXW4TextAlignType@@@Z

; 230  : 			g_FontMgr.SetBkColor( TCT_DEFAULT_DARKGRAY );

  00921	be 3a 3a 3a ff	 mov	 esi, -12961222		; ff3a3a3aH
  00926	56		 push	 esi
  00927	ff d7		 call	 edi
  00929	8b c8		 mov	 ecx, eax
  0092b	ff 15 00 00 00
	00		 call	 DWORD PTR __imp_?SetBkColor@ioFontManager@@QAEXK@Z

; 231  : 			g_FontMgr.SetTextColor( TCT_DEFAULT_DARKGRAY );

  00931	56		 push	 esi
  00932	ff d7		 call	 edi
  00934	8b c8		 mov	 ecx, eax
  00936	ff 15 00 00 00
	00		 call	 DWORD PTR __imp_?SetTextColor@ioFontManager@@QAEXK@Z

; 232  : 			g_FontMgr.PrintText( iXPos + 59, iYPos + 18, FONT_SIZE_17, STR(9) );

  0093c	8b 45 fc	 mov	 eax, DWORD PTR _iXPos$[ebp]
  0093f	6a 00		 push	 0
  00941	6a 09		 push	 9
  00943	83 c0 3b	 add	 eax, 59			; 0000003bH
  00946	0f 57 c0	 xorps	 xmm0, xmm0
  00949	68 00 00 00 00	 push	 OFFSET ??_C@_00CNPNBAHC@?$AA@
  0094e	f3 0f 2a c0	 cvtsi2ss xmm0, eax
  00952	53		 push	 ebx
  00953	f3 0f 11 45 fc	 movss	 DWORD PTR tv1346[ebp], xmm0
  00958	ff 15 00 00 00
	00		 call	 DWORD PTR __imp_?GetSingleton@ioStringManager@@SAAAV1@XZ
  0095e	8b c8		 mov	 ecx, eax
  00960	ff 15 00 00 00
	00		 call	 DWORD PTR __imp_?GetString@ioStringManager@@QAEPADPBD0HW4FileNamePrefix@1@@Z
  00966	f3 0f 10 05 00
	00 00 00	 movss	 xmm0, DWORD PTR __real@3f59999a
  0096e	50		 push	 eax
  0096f	8b 45 f8	 mov	 eax, DWORD PTR _iYPos$[ebp]
  00972	83 ec 0c	 sub	 esp, 12			; 0000000cH
  00975	f3 0f 11 44 24
	08		 movss	 DWORD PTR [esp+8], xmm0
  0097b	83 c0 12	 add	 eax, 18			; 00000012H
  0097e	0f 57 c0	 xorps	 xmm0, xmm0
  00981	f3 0f 2a c0	 cvtsi2ss xmm0, eax
  00985	f3 0f 11 44 24
	04		 movss	 DWORD PTR [esp+4], xmm0
  0098b	f3 0f 10 45 fc	 movss	 xmm0, DWORD PTR tv1346[ebp]
  00990	f3 0f 11 04 24	 movss	 DWORD PTR [esp], xmm0
  00995	ff d7		 call	 edi
  00997	50		 push	 eax
  00998	ff 15 00 00 00
	00		 call	 DWORD PTR __imp_?PrintText@ioFontManager@@QAAXMMMPBDZZ
  0099e	83 c4 14	 add	 esp, 20			; 00000014H

; 233  : 
; 234  : 			g_FontMgr.SetBkColor( TCT_DEFAULT_GRAY );

  009a1	be 6e 6e 6e ff	 mov	 esi, -9539986		; ff6e6e6eH
  009a6	56		 push	 esi
  009a7	ff d7		 call	 edi
  009a9	8b c8		 mov	 ecx, eax
  009ab	ff 15 00 00 00
	00		 call	 DWORD PTR __imp_?SetBkColor@ioFontManager@@QAEXK@Z

; 235  : 			g_FontMgr.SetTextColor( TCT_DEFAULT_GRAY );

  009b1	56		 push	 esi
  009b2	ff d7		 call	 edi
  009b4	8b c8		 mov	 ecx, eax
  009b6	ff 15 00 00 00
	00		 call	 DWORD PTR __imp_?SetTextColor@ioFontManager@@QAEXK@Z

; 236  : 			g_FontMgr.PrintText( iXPos + 59, iYPos + 39, FONT_SIZE_11, STR(10) );

  009bc	6a 00		 push	 0
  009be	6a 0a		 push	 10			; 0000000aH
$LN83@OnRender@2:
  009c0	68 00 00 00 00	 push	 OFFSET ??_C@_00CNPNBAHC@?$AA@
  009c5	53		 push	 ebx
  009c6	ff 15 00 00 00
	00		 call	 DWORD PTR __imp_?GetSingleton@ioStringManager@@SAAAV1@XZ
  009cc	8b c8		 mov	 ecx, eax
  009ce	ff 15 00 00 00
	00		 call	 DWORD PTR __imp_?GetString@ioStringManager@@QAEPADPBD0HW4FileNamePrefix@1@@Z
  009d4	f3 0f 10 05 00
	00 00 00	 movss	 xmm0, DWORD PTR __real@3f0ccccd
  009dc	50		 push	 eax
  009dd	8b 45 f8	 mov	 eax, DWORD PTR _iYPos$[ebp]
  009e0	83 ec 0c	 sub	 esp, 12			; 0000000cH
  009e3	f3 0f 11 44 24
	08		 movss	 DWORD PTR [esp+8], xmm0
  009e9	83 c0 27	 add	 eax, 39			; 00000027H
  009ec	0f 57 c0	 xorps	 xmm0, xmm0
  009ef	f3 0f 2a c0	 cvtsi2ss xmm0, eax
  009f3	f3 0f 11 44 24
	04		 movss	 DWORD PTR [esp+4], xmm0
  009f9	f3 0f 10 45 fc	 movss	 xmm0, DWORD PTR tv1346[ebp]
  009fe	f3 0f 11 04 24	 movss	 DWORD PTR [esp], xmm0
  00a03	ff d7		 call	 edi

; 237  : 		}
; 238  : 		break;

  00a05	e9 20 03 00 00	 jmp	 $LN81@OnRender@2
$LN28@OnRender@2:

; 165  : 		}
; 166  : 		break;
; 167  : 	case LobbyWnd::ID_CAMP_BTN:
; 168  : 		{
; 169  : 			if( g_CampMgr.GetNextTodayBattleSec() == -1 )

  00a0a	e8 00 00 00 00	 call	 ?GetSingleton@ioCampManager@@SAAAV1@XZ ; ioCampManager::GetSingleton
  00a0f	83 b8 c8 00 00
	00 ff		 cmp	 DWORD PTR [eax+200], -1
  00a16	75 74		 jne	 SHORT $LN27@OnRender@2

; 170  : 			{
; 171  : 				// 휴식중
; 172  : 				if( m_pStateRedFrm )

  00a18	39 9e 08 02 00
	00		 cmp	 DWORD PTR [esi+520], ebx
  00a1e	74 2a		 je	 SHORT $LN26@OnRender@2

; 173  : 					m_pStateRedFrm->Render( iXPos, iYPos );

  00a20	8b 8e 08 02 00
	00		 mov	 ecx, DWORD PTR [esi+520]
  00a26	8b 01		 mov	 eax, DWORD PTR [ecx]
  00a28	53		 push	 ebx
  00a29	53		 push	 ebx
  00a2a	53		 push	 ebx
  00a2b	53		 push	 ebx
  00a2c	0f 57 c0	 xorps	 xmm0, xmm0
  00a2f	51		 push	 ecx
  00a30	f3 0f 2a c7	 cvtsi2ss xmm0, edi
  00a34	51		 push	 ecx
  00a35	f3 0f 11 44 24
	04		 movss	 DWORD PTR [esp+4], xmm0
  00a3b	66 0f 6e 45 fc	 movd	 xmm0, DWORD PTR _iXPos$[ebp]
  00a40	0f 5b c0	 cvtdq2ps xmm0, xmm0
  00a43	f3 0f 11 04 24	 movss	 DWORD PTR [esp], xmm0
  00a48	ff 10		 call	 DWORD PTR [eax]
$LN26@OnRender@2:

; 174  : 				g_FontMgr.SetTextStyle( TS_NORMAL );

  00a4a	8b 3d 00 00 00
	00		 mov	 edi, DWORD PTR __imp_?GetSingleton@ioFontManager@@SAAAV1@XZ
  00a50	53		 push	 ebx
  00a51	ff d7		 call	 edi
  00a53	8b c8		 mov	 ecx, eax
  00a55	ff 15 00 00 00
	00		 call	 DWORD PTR __imp_?SetTextStyle@ioFontManager@@QAEXW4TextStyle@@@Z

; 175  : 				g_FontMgr.SetAlignType( TAT_CENTER );

  00a5b	6a 01		 push	 1
  00a5d	ff d7		 call	 edi
  00a5f	8b c8		 mov	 ecx, eax
  00a61	ff 15 00 00 00
	00		 call	 DWORD PTR __imp_?SetAlignType@ioFontManager@@QAEXW4TextAlignType@@@Z

; 176  : 				g_FontMgr.SetBkColor( 255, 255, 255 );

  00a67	be ff 00 00 00	 mov	 esi, 255		; 000000ffH
  00a6c	56		 push	 esi
  00a6d	56		 push	 esi
  00a6e	56		 push	 esi
  00a6f	ff d7		 call	 edi
  00a71	8b c8		 mov	 ecx, eax
  00a73	ff 15 00 00 00
	00		 call	 DWORD PTR __imp_?SetBkColor@ioFontManager@@QAEXHHH@Z

; 177  : 				g_FontMgr.SetTextColor( 255, 255, 255 );

  00a79	56		 push	 esi
  00a7a	56		 push	 esi
  00a7b	56		 push	 esi
  00a7c	ff d7		 call	 edi
  00a7e	8b c8		 mov	 ecx, eax
  00a80	ff 15 00 00 00
	00		 call	 DWORD PTR __imp_?SetTextColor@ioFontManager@@QAEXHHH@Z

; 178  : 				g_FontMgr.PrintText( iXPos + 27, iYPos + 9, FONT_SIZE_11, STR(3) );

  00a86	6a 00		 push	 0
  00a88	6a 03		 push	 3

; 179  : 			}
; 180  : 			else

  00a8a	eb 72		 jmp	 SHORT $LN82@OnRender@2
$LN27@OnRender@2:

; 181  : 			{
; 182  : 				// 진행중
; 183  : 				if( m_pStateGreenFrm )

  00a8c	39 9e 04 02 00
	00		 cmp	 DWORD PTR [esi+516], ebx
  00a92	74 2a		 je	 SHORT $LN24@OnRender@2

; 184  : 					m_pStateGreenFrm->Render( iXPos, iYPos );

  00a94	8b 8e 04 02 00
	00		 mov	 ecx, DWORD PTR [esi+516]
  00a9a	8b 01		 mov	 eax, DWORD PTR [ecx]
  00a9c	53		 push	 ebx
  00a9d	53		 push	 ebx
  00a9e	53		 push	 ebx
  00a9f	53		 push	 ebx
  00aa0	0f 57 c0	 xorps	 xmm0, xmm0
  00aa3	51		 push	 ecx
  00aa4	f3 0f 2a c7	 cvtsi2ss xmm0, edi
  00aa8	51		 push	 ecx
  00aa9	f3 0f 11 44 24
	04		 movss	 DWORD PTR [esp+4], xmm0
  00aaf	66 0f 6e 45 fc	 movd	 xmm0, DWORD PTR _iXPos$[ebp]
  00ab4	0f 5b c0	 cvtdq2ps xmm0, xmm0
  00ab7	f3 0f 11 04 24	 movss	 DWORD PTR [esp], xmm0
  00abc	ff 10		 call	 DWORD PTR [eax]
$LN24@OnRender@2:

; 185  : 				g_FontMgr.SetTextStyle( TS_NORMAL );

  00abe	8b 3d 00 00 00
	00		 mov	 edi, DWORD PTR __imp_?GetSingleton@ioFontManager@@SAAAV1@XZ
  00ac4	53		 push	 ebx
  00ac5	ff d7		 call	 edi
  00ac7	8b c8		 mov	 ecx, eax
  00ac9	ff 15 00 00 00
	00		 call	 DWORD PTR __imp_?SetTextStyle@ioFontManager@@QAEXW4TextStyle@@@Z

; 186  : 				g_FontMgr.SetAlignType( TAT_CENTER );

  00acf	6a 01		 push	 1
  00ad1	ff d7		 call	 edi
  00ad3	8b c8		 mov	 ecx, eax
  00ad5	ff 15 00 00 00
	00		 call	 DWORD PTR __imp_?SetAlignType@ioFontManager@@QAEXW4TextAlignType@@@Z

; 187  : 				g_FontMgr.SetBkColor( 255, 255, 255 );

  00adb	be ff 00 00 00	 mov	 esi, 255		; 000000ffH
  00ae0	56		 push	 esi
  00ae1	56		 push	 esi
  00ae2	56		 push	 esi
  00ae3	ff d7		 call	 edi
  00ae5	8b c8		 mov	 ecx, eax
  00ae7	ff 15 00 00 00
	00		 call	 DWORD PTR __imp_?SetBkColor@ioFontManager@@QAEXHHH@Z

; 188  : 				g_FontMgr.SetTextColor( 255, 255, 255 );

  00aed	56		 push	 esi
  00aee	56		 push	 esi
  00aef	56		 push	 esi
  00af0	ff d7		 call	 edi
  00af2	8b c8		 mov	 ecx, eax
  00af4	ff 15 00 00 00
	00		 call	 DWORD PTR __imp_?SetTextColor@ioFontManager@@QAEXHHH@Z

; 189  : 				g_FontMgr.PrintText( iXPos + 27, iYPos + 9, FONT_SIZE_11, STR(4) );

  00afa	6a 00		 push	 0
  00afc	6a 04		 push	 4
$LN82@OnRender@2:
  00afe	68 00 00 00 00	 push	 OFFSET ??_C@_00CNPNBAHC@?$AA@
  00b03	bb 00 00 00 00	 mov	 ebx, OFFSET ??_C@_0BD@LHBDDMNH@LobbyBtn?3?3OnRender?$AA@
  00b08	53		 push	 ebx
  00b09	ff 15 00 00 00
	00		 call	 DWORD PTR __imp_?GetSingleton@ioStringManager@@SAAAV1@XZ
  00b0f	8b c8		 mov	 ecx, eax
  00b11	ff 15 00 00 00
	00		 call	 DWORD PTR __imp_?GetString@ioStringManager@@QAEPADPBD0HW4FileNamePrefix@1@@Z
  00b17	f3 0f 10 05 00
	00 00 00	 movss	 xmm0, DWORD PTR __real@3f0ccccd
  00b1f	50		 push	 eax
  00b20	8b 45 f8	 mov	 eax, DWORD PTR _iYPos$[ebp]
  00b23	83 ec 0c	 sub	 esp, 12			; 0000000cH
  00b26	f3 0f 11 44 24
	08		 movss	 DWORD PTR [esp+8], xmm0
  00b2c	83 c0 09	 add	 eax, 9
  00b2f	0f 57 c0	 xorps	 xmm0, xmm0
  00b32	f3 0f 2a c0	 cvtsi2ss xmm0, eax
  00b36	8b 45 fc	 mov	 eax, DWORD PTR _iXPos$[ebp]
  00b39	f3 0f 11 44 24
	04		 movss	 DWORD PTR [esp+4], xmm0
  00b3f	83 c0 1b	 add	 eax, 27			; 0000001bH
  00b42	0f 57 c0	 xorps	 xmm0, xmm0
  00b45	f3 0f 2a c0	 cvtsi2ss xmm0, eax
  00b49	f3 0f 11 04 24	 movss	 DWORD PTR [esp], xmm0
  00b4e	ff d7		 call	 edi
  00b50	50		 push	 eax
  00b51	ff 15 00 00 00
	00		 call	 DWORD PTR __imp_?PrintText@ioFontManager@@QAAXMMMPBDZZ
  00b57	83 c4 14	 add	 esp, 20			; 00000014H

; 190  : 			}
; 191  : 
; 192  : 			g_FontMgr.SetTextStyle( TS_NORMAL );

  00b5a	6a 00		 push	 0
  00b5c	ff d7		 call	 edi
  00b5e	8b c8		 mov	 ecx, eax
  00b60	ff 15 00 00 00
	00		 call	 DWORD PTR __imp_?SetTextStyle@ioFontManager@@QAEXW4TextStyle@@@Z

; 193  : 			g_FontMgr.SetAlignType( TAT_LEFT );

  00b66	6a 00		 push	 0
  00b68	ff d7		 call	 edi
  00b6a	8b c8		 mov	 ecx, eax
  00b6c	ff 15 00 00 00
	00		 call	 DWORD PTR __imp_?SetAlignType@ioFontManager@@QAEXW4TextAlignType@@@Z

; 194  : 			g_FontMgr.SetBkColor( TCT_DEFAULT_DARKGRAY );

  00b72	be 3a 3a 3a ff	 mov	 esi, -12961222		; ff3a3a3aH
  00b77	56		 push	 esi
  00b78	ff d7		 call	 edi
  00b7a	8b c8		 mov	 ecx, eax
  00b7c	ff 15 00 00 00
	00		 call	 DWORD PTR __imp_?SetBkColor@ioFontManager@@QAEXK@Z

; 195  : 			g_FontMgr.SetTextColor( TCT_DEFAULT_DARKGRAY );

  00b82	56		 push	 esi
  00b83	ff d7		 call	 edi
  00b85	8b c8		 mov	 ecx, eax
  00b87	ff 15 00 00 00
	00		 call	 DWORD PTR __imp_?SetTextColor@ioFontManager@@QAEXK@Z

; 196  : 			g_FontMgr.PrintText( iXPos + 59, iYPos + 18, FONT_SIZE_17, STR(5) );

  00b8d	8b 45 fc	 mov	 eax, DWORD PTR _iXPos$[ebp]
  00b90	6a 00		 push	 0
  00b92	6a 05		 push	 5
  00b94	83 c0 3b	 add	 eax, 59			; 0000003bH
  00b97	0f 57 c0	 xorps	 xmm0, xmm0
  00b9a	68 00 00 00 00	 push	 OFFSET ??_C@_00CNPNBAHC@?$AA@
  00b9f	f3 0f 2a c0	 cvtsi2ss xmm0, eax
  00ba3	53		 push	 ebx
  00ba4	f3 0f 11 45 fc	 movss	 DWORD PTR tv1346[ebp], xmm0
  00ba9	ff 15 00 00 00
	00		 call	 DWORD PTR __imp_?GetSingleton@ioStringManager@@SAAAV1@XZ
  00baf	8b c8		 mov	 ecx, eax
  00bb1	ff 15 00 00 00
	00		 call	 DWORD PTR __imp_?GetString@ioStringManager@@QAEPADPBD0HW4FileNamePrefix@1@@Z
  00bb7	f3 0f 10 05 00
	00 00 00	 movss	 xmm0, DWORD PTR __real@3f59999a
  00bbf	50		 push	 eax
  00bc0	8b 45 f8	 mov	 eax, DWORD PTR _iYPos$[ebp]
  00bc3	83 ec 0c	 sub	 esp, 12			; 0000000cH
  00bc6	f3 0f 11 44 24
	08		 movss	 DWORD PTR [esp+8], xmm0
  00bcc	83 c0 12	 add	 eax, 18			; 00000012H
  00bcf	0f 57 c0	 xorps	 xmm0, xmm0
  00bd2	f3 0f 2a c0	 cvtsi2ss xmm0, eax
  00bd6	f3 0f 11 44 24
	04		 movss	 DWORD PTR [esp+4], xmm0
  00bdc	f3 0f 10 45 fc	 movss	 xmm0, DWORD PTR tv1346[ebp]
  00be1	f3 0f 11 04 24	 movss	 DWORD PTR [esp], xmm0
  00be6	ff d7		 call	 edi
  00be8	50		 push	 eax
  00be9	ff 15 00 00 00
	00		 call	 DWORD PTR __imp_?PrintText@ioFontManager@@QAAXMMMPBDZZ
  00bef	83 c4 14	 add	 esp, 20			; 00000014H

; 197  : 
; 198  : 			g_FontMgr.SetBkColor( TCT_DEFAULT_GRAY );

  00bf2	be 6e 6e 6e ff	 mov	 esi, -9539986		; ff6e6e6eH
  00bf7	56		 push	 esi
  00bf8	ff d7		 call	 edi
  00bfa	8b c8		 mov	 ecx, eax
  00bfc	ff 15 00 00 00
	00		 call	 DWORD PTR __imp_?SetBkColor@ioFontManager@@QAEXK@Z

; 199  : 			g_FontMgr.SetTextColor( TCT_DEFAULT_GRAY );

  00c02	56		 push	 esi
  00c03	ff d7		 call	 edi
  00c05	8b c8		 mov	 ecx, eax
  00c07	ff 15 00 00 00
	00		 call	 DWORD PTR __imp_?SetTextColor@ioFontManager@@QAEXK@Z

; 200  : 			g_FontMgr.PrintText( iXPos + 59, iYPos + 39, FONT_SIZE_11, STR(6) );

  00c0d	6a 00		 push	 0
  00c0f	6a 06		 push	 6

; 201  : 		}
; 202  : 		break;

  00c11	e9 aa fd ff ff	 jmp	 $LN83@OnRender@2
$LN29@OnRender@2:

; 153  : 	{
; 154  : 	case LobbyWnd::ID_BATTLE_BTN:
; 155  : 		{
; 156  : 			g_FontMgr.SetTextStyle( TS_NORMAL );

  00c16	8b 35 00 00 00
	00		 mov	 esi, DWORD PTR __imp_?GetSingleton@ioFontManager@@SAAAV1@XZ
  00c1c	53		 push	 ebx
  00c1d	ff d6		 call	 esi
  00c1f	8b c8		 mov	 ecx, eax
  00c21	ff 15 00 00 00
	00		 call	 DWORD PTR __imp_?SetTextStyle@ioFontManager@@QAEXW4TextStyle@@@Z

; 157  : 			g_FontMgr.SetAlignType( TAT_LEFT );

  00c27	53		 push	 ebx
  00c28	ff d6		 call	 esi
  00c2a	8b c8		 mov	 ecx, eax
  00c2c	ff 15 00 00 00
	00		 call	 DWORD PTR __imp_?SetAlignType@ioFontManager@@QAEXW4TextAlignType@@@Z

; 158  : 			g_FontMgr.SetBkColor( TCT_DEFAULT_DARKGRAY );

  00c32	be 3a 3a 3a ff	 mov	 esi, -12961222		; ff3a3a3aH
  00c37	56		 push	 esi
  00c38	ff 15 00 00 00
	00		 call	 DWORD PTR __imp_?GetSingleton@ioFontManager@@SAAAV1@XZ
  00c3e	8b c8		 mov	 ecx, eax
  00c40	ff 15 00 00 00
	00		 call	 DWORD PTR __imp_?SetBkColor@ioFontManager@@QAEXK@Z

; 159  : 			g_FontMgr.SetTextColor( TCT_DEFAULT_DARKGRAY );

  00c46	56		 push	 esi
  00c47	ff 15 00 00 00
	00		 call	 DWORD PTR __imp_?GetSingleton@ioFontManager@@SAAAV1@XZ
  00c4d	8b c8		 mov	 ecx, eax
  00c4f	ff 15 00 00 00
	00		 call	 DWORD PTR __imp_?SetTextColor@ioFontManager@@QAEXK@Z

; 160  : 			g_FontMgr.PrintText( iXPos + 59, iYPos + 18, FONT_SIZE_17, STR(1) );

  00c55	8b 45 fc	 mov	 eax, DWORD PTR _iXPos$[ebp]
  00c58	53		 push	 ebx
  00c59	6a 01		 push	 1
  00c5b	83 c0 3b	 add	 eax, 59			; 0000003bH
  00c5e	0f 57 c0	 xorps	 xmm0, xmm0
  00c61	68 00 00 00 00	 push	 OFFSET ??_C@_00CNPNBAHC@?$AA@
  00c66	bb 00 00 00 00	 mov	 ebx, OFFSET ??_C@_0BD@LHBDDMNH@LobbyBtn?3?3OnRender?$AA@
  00c6b	f3 0f 2a c0	 cvtsi2ss xmm0, eax
  00c6f	53		 push	 ebx
  00c70	f3 0f 11 45 fc	 movss	 DWORD PTR tv1346[ebp], xmm0
  00c75	ff 15 00 00 00
	00		 call	 DWORD PTR __imp_?GetSingleton@ioStringManager@@SAAAV1@XZ
  00c7b	8b c8		 mov	 ecx, eax
  00c7d	ff 15 00 00 00
	00		 call	 DWORD PTR __imp_?GetString@ioStringManager@@QAEPADPBD0HW4FileNamePrefix@1@@Z
  00c83	f3 0f 10 05 00
	00 00 00	 movss	 xmm0, DWORD PTR __real@3f59999a
  00c8b	50		 push	 eax
  00c8c	83 ec 0c	 sub	 esp, 12			; 0000000cH
  00c8f	f3 0f 11 44 24
	08		 movss	 DWORD PTR [esp+8], xmm0
  00c95	8d 47 12	 lea	 eax, DWORD PTR [edi+18]
  00c98	0f 57 c0	 xorps	 xmm0, xmm0
  00c9b	f3 0f 2a c0	 cvtsi2ss xmm0, eax
  00c9f	f3 0f 11 44 24
	04		 movss	 DWORD PTR [esp+4], xmm0
  00ca5	f3 0f 10 45 fc	 movss	 xmm0, DWORD PTR tv1346[ebp]
  00caa	f3 0f 11 04 24	 movss	 DWORD PTR [esp], xmm0
  00caf	ff 15 00 00 00
	00		 call	 DWORD PTR __imp_?GetSingleton@ioFontManager@@SAAAV1@XZ
  00cb5	50		 push	 eax
  00cb6	ff 15 00 00 00
	00		 call	 DWORD PTR __imp_?PrintText@ioFontManager@@QAAXMMMPBDZZ
  00cbc	83 c4 14	 add	 esp, 20			; 00000014H

; 161  : 
; 162  : 			g_FontMgr.SetBkColor( TCT_DEFAULT_GRAY );

  00cbf	be 6e 6e 6e ff	 mov	 esi, -9539986		; ff6e6e6eH
  00cc4	56		 push	 esi
  00cc5	ff 15 00 00 00
	00		 call	 DWORD PTR __imp_?GetSingleton@ioFontManager@@SAAAV1@XZ
  00ccb	8b c8		 mov	 ecx, eax
  00ccd	ff 15 00 00 00
	00		 call	 DWORD PTR __imp_?SetBkColor@ioFontManager@@QAEXK@Z

; 163  : 			g_FontMgr.SetTextColor( TCT_DEFAULT_GRAY );

  00cd3	56		 push	 esi
  00cd4	8b 35 00 00 00
	00		 mov	 esi, DWORD PTR __imp_?GetSingleton@ioFontManager@@SAAAV1@XZ
  00cda	ff d6		 call	 esi
  00cdc	8b c8		 mov	 ecx, eax
  00cde	ff 15 00 00 00
	00		 call	 DWORD PTR __imp_?SetTextColor@ioFontManager@@QAEXK@Z

; 164  : 			g_FontMgr.PrintText( iXPos + 59, iYPos + 39, FONT_SIZE_11, STR(2) );

  00ce4	6a 00		 push	 0
  00ce6	6a 02		 push	 2
$LN79@OnRender@2:
  00ce8	68 00 00 00 00	 push	 OFFSET ??_C@_00CNPNBAHC@?$AA@
  00ced	53		 push	 ebx
  00cee	ff 15 00 00 00
	00		 call	 DWORD PTR __imp_?GetSingleton@ioStringManager@@SAAAV1@XZ
  00cf4	8b c8		 mov	 ecx, eax
  00cf6	ff 15 00 00 00
	00		 call	 DWORD PTR __imp_?GetString@ioStringManager@@QAEPADPBD0HW4FileNamePrefix@1@@Z
  00cfc	f3 0f 10 05 00
	00 00 00	 movss	 xmm0, DWORD PTR __real@3f0ccccd
  00d04	50		 push	 eax
  00d05	83 ec 0c	 sub	 esp, 12			; 0000000cH
  00d08	f3 0f 11 44 24
	08		 movss	 DWORD PTR [esp+8], xmm0
  00d0e	0f 57 c0	 xorps	 xmm0, xmm0
  00d11	83 c7 27	 add	 edi, 39			; 00000027H
  00d14	f3 0f 2a c7	 cvtsi2ss xmm0, edi
  00d18	f3 0f 11 44 24
	04		 movss	 DWORD PTR [esp+4], xmm0
  00d1e	f3 0f 10 45 fc	 movss	 xmm0, DWORD PTR tv1346[ebp]
  00d23	f3 0f 11 04 24	 movss	 DWORD PTR [esp], xmm0
  00d28	ff d6		 call	 esi
$LN81@OnRender@2:
  00d2a	50		 push	 eax
  00d2b	ff 15 00 00 00
	00		 call	 DWORD PTR __imp_?PrintText@ioFontManager@@QAAXMMMPBDZZ
  00d31	83 c4 14	 add	 esp, 20			; 00000014H
$LN30@OnRender@2:
  00d34	5f		 pop	 edi
  00d35	5e		 pop	 esi
  00d36	5b		 pop	 ebx

; 339  : 	}
; 340  : 
; 341  : }

  00d37	c9		 leave
  00d38	c3		 ret	 0
?OnRender@LobbyBtn@@MAEXXZ ENDP				; LobbyBtn::OnRender
; Function compile flags: /Ogsp
_TEXT	ENDS
;	COMDAT ??_GIconBtn@@UAEPAXI@Z
_TEXT	SEGMENT
___flags$ = 8						; size = 4
??_GIconBtn@@UAEPAXI@Z PROC				; IconBtn::`scalar deleting destructor', COMDAT
; _this$ = ecx
  00000	55		 push	 ebp
  00001	8b ec		 mov	 ebp, esp
  00003	56		 push	 esi
  00004	8b f1		 mov	 esi, ecx
  00006	e8 00 00 00 00	 call	 ??1IconBtn@@UAE@XZ	; IconBtn::~IconBtn
  0000b	f6 45 08 01	 test	 BYTE PTR ___flags$[ebp], 1
  0000f	74 07		 je	 SHORT $LN1@scalar@2
  00011	56		 push	 esi
  00012	e8 00 00 00 00	 call	 ??3@YAXPAX@Z		; operator delete
  00017	59		 pop	 ecx
$LN1@scalar@2:
  00018	8b c6		 mov	 eax, esi
  0001a	5e		 pop	 esi
  0001b	5d		 pop	 ebp
  0001c	c2 04 00	 ret	 4
??_GIconBtn@@UAEPAXI@Z ENDP				; IconBtn::`scalar deleting destructor'
; Function compile flags: /Ogsp
_TEXT	ENDS
;	COMDAT ??_GLobbyWnd@@UAEPAXI@Z
_TEXT	SEGMENT
___flags$ = 8						; size = 4
??_GLobbyWnd@@UAEPAXI@Z PROC				; LobbyWnd::`scalar deleting destructor', COMDAT
; _this$ = ecx
  00000	55		 push	 ebp
  00001	8b ec		 mov	 ebp, esp
  00003	56		 push	 esi
  00004	8b f1		 mov	 esi, ecx
  00006	e8 00 00 00 00	 call	 ??1LobbyWnd@@UAE@XZ	; LobbyWnd::~LobbyWnd
  0000b	f6 45 08 01	 test	 BYTE PTR ___flags$[ebp], 1
  0000f	74 07		 je	 SHORT $LN1@scalar@3
  00011	56		 push	 esi
  00012	e8 00 00 00 00	 call	 ??3@YAXPAX@Z		; operator delete
  00017	59		 pop	 ecx
$LN1@scalar@3:
  00018	8b c6		 mov	 eax, esi
  0001a	5e		 pop	 esi
  0001b	5d		 pop	 ebp
  0001c	c2 04 00	 ret	 4
??_GLobbyWnd@@UAEPAXI@Z ENDP				; LobbyWnd::`scalar deleting destructor'
_TEXT	ENDS
PUBLIC	?UpdateGuildHQButton@LobbyWnd@@IAEXXZ		; LobbyWnd::UpdateGuildHQButton
EXTRN	?GetGuildData@ioGuildInfo@@QAEPAVioGuildData@@K_N@Z:PROC ; ioGuildInfo::GetGuildData
EXTRN	?GetSingleton@ioGuildInfo@@SAAAV1@XZ:PROC	; ioGuildInfo::GetSingleton
; Function compile flags: /Ogsp
;	COMDAT ?UpdateGuildHQButton@LobbyWnd@@IAEXXZ
_TEXT	SEGMENT
?UpdateGuildHQButton@LobbyWnd@@IAEXXZ PROC		; LobbyWnd::UpdateGuildHQButton, COMDAT
; _this$ = ecx

; 528  : {

  00000	56		 push	 esi
  00001	57		 push	 edi

; 529  : 	SetChildWndStyleAdd( ID_GUILD_HEADQUATER_BTN, IWS_EXACTIVE );

  00002	be 00 10 00 00	 mov	 esi, 4096		; 00001000H
  00007	56		 push	 esi
  00008	6a 08		 push	 8
  0000a	8b f9		 mov	 edi, ecx
  0000c	ff 15 00 00 00
	00		 call	 DWORD PTR __imp_?SetChildWndStyleAdd@ioWnd@@QAEXKK@Z

; 530  : 
; 531  : 	ioGuildData *pGuildData = g_GuildInfo.GetGuildData( g_GuildInfo.GetGuildIndex() );

  00012	e8 00 00 00 00	 call	 ?GetSingleton@ioGuildInfo@@SAAAV1@XZ ; ioGuildInfo::GetSingleton
  00017	8b 80 90 00 00
	00		 mov	 eax, DWORD PTR [eax+144]
  0001d	6a 00		 push	 0
  0001f	50		 push	 eax
  00020	e8 00 00 00 00	 call	 ?GetSingleton@ioGuildInfo@@SAAAV1@XZ ; ioGuildInfo::GetSingleton
  00025	8b c8		 mov	 ecx, eax
  00027	e8 00 00 00 00	 call	 ?GetGuildData@ioGuildInfo@@QAEPAVioGuildData@@K_N@Z ; ioGuildInfo::GetGuildData

; 532  : 	if( pGuildData && pGuildData->GetGuildRoomOpen() )

  0002c	85 c0		 test	 eax, eax
  0002e	74 11		 je	 SHORT $LN1@UpdateGuil
  00030	83 78 54 00	 cmp	 DWORD PTR [eax+84], 0
  00034	74 0b		 je	 SHORT $LN1@UpdateGuil

; 533  : 	{
; 534  : 		SetChildWndStyleRemove( ID_GUILD_HEADQUATER_BTN, IWS_EXACTIVE );

  00036	56		 push	 esi
  00037	6a 08		 push	 8
  00039	8b cf		 mov	 ecx, edi
  0003b	ff 15 00 00 00
	00		 call	 DWORD PTR __imp_?SetChildWndStyleRemove@ioWnd@@QAEXKK@Z
$LN1@UpdateGuil:

; 535  : 	}
; 536  : }

  00041	5f		 pop	 edi
  00042	5e		 pop	 esi
  00043	c3		 ret	 0
?UpdateGuildHQButton@LobbyWnd@@IAEXXZ ENDP		; LobbyWnd::UpdateGuildHQButton
_TEXT	ENDS
PUBLIC	?ChangeRadioWnd@LobbyWnd@@IAEXK@Z		; LobbyWnd::ChangeRadioWnd
EXTRN	__imp_?GetParent@ioWnd@@QAEPAV1@XZ:PROC
EXTRN	?CheckCampButton@CampMainWnd@@QAEXK@Z:PROC	; CampMainWnd::CheckCampButton
EXTRN	__imp_?CheckRadioButton@ioWnd@@QAEXKKK@Z:PROC
; Function compile flags: /Ogsp
;	COMDAT ?ChangeRadioWnd@LobbyWnd@@IAEXK@Z
_TEXT	SEGMENT
_iPrevMyCampPos$ = 8					; size = 4
_dwID$ = 8						; size = 4
?ChangeRadioWnd@LobbyWnd@@IAEXK@Z PROC			; LobbyWnd::ChangeRadioWnd, COMDAT
; _this$ = ecx

; 547  : {

  00000	55		 push	 ebp
  00001	8b ec		 mov	 ebp, esp

; 548  : 	m_dwTabID = dwID;

  00003	8b 45 08	 mov	 eax, DWORD PTR _dwID$[ebp]
  00006	53		 push	 ebx
  00007	56		 push	 esi
  00008	57		 push	 edi

; 549  : 	CheckRadioButton( ID_BATTLE_BTN, ID_TOURNAMENT_WND, dwID );

  00009	50		 push	 eax
  0000a	6a 10		 push	 16			; 00000010H
  0000c	8b f9		 mov	 edi, ecx
  0000e	6a 01		 push	 1
  00010	89 87 88 01 00
	00		 mov	 DWORD PTR [edi+392], eax
  00016	ff 15 00 00 00
	00		 call	 DWORD PTR __imp_?CheckRadioButton@ioWnd@@QAEXKKK@Z

; 550  : 
; 551  : 	HideChildWnd( ID_BATTLE_WND );

  0001c	8b 35 00 00 00
	00		 mov	 esi, DWORD PTR __imp_?HideChildWnd@ioWnd@@QAEXK_N@Z
  00022	33 db		 xor	 ebx, ebx
  00024	53		 push	 ebx
  00025	6a 0a		 push	 10			; 0000000aH
  00027	8b cf		 mov	 ecx, edi
  00029	ff d6		 call	 esi

; 552  : 	HideChildWnd( ID_CAMP_MAIN_WND );

  0002b	53		 push	 ebx
  0002c	6a 0b		 push	 11			; 0000000bH
  0002e	8b cf		 mov	 ecx, edi
  00030	ff d6		 call	 esi

; 553  : 	HideChildWnd( ID_PLAZA_WND );

  00032	53		 push	 ebx
  00033	6a 0c		 push	 12			; 0000000cH
  00035	8b cf		 mov	 ecx, edi
  00037	ff d6		 call	 esi

; 554  : 	HideChildWnd( ID_HERO_MAIN_WND );

  00039	53		 push	 ebx
  0003a	6a 0e		 push	 14			; 0000000eH
  0003c	8b cf		 mov	 ecx, edi
  0003e	ff d6		 call	 esi

; 555  : 	HideChildWnd( ID_TRADE_MAIN_WND );

  00040	53		 push	 ebx
  00041	6a 0f		 push	 15			; 0000000fH
  00043	8b cf		 mov	 ecx, edi
  00045	ff d6		 call	 esi

; 556  : 	HideChildWnd( ID_TOURNAMENT_WND );

  00047	53		 push	 ebx
  00048	6a 10		 push	 16			; 00000010H
  0004a	8b cf		 mov	 ecx, edi
  0004c	ff d6		 call	 esi

; 557  : 	
; 558  : 	int iPrevMyCampPos = m_iMyCampPos;

  0004e	8b 87 8c 01 00
	00		 mov	 eax, DWORD PTR [edi+396]
  00054	89 45 08	 mov	 DWORD PTR _iPrevMyCampPos$[ebp], eax

; 559  : 	m_iMyCampPos = g_MyInfo.GetUserCampPos();

  00057	e8 00 00 00 00	 call	 ?GetSingleton@ioMyInfo@@SAAAV1@XZ ; ioMyInfo::GetSingleton

; 560  : 	switch( m_dwTabID )

  0005c	8b 8f 88 01 00
	00		 mov	 ecx, DWORD PTR [edi+392]
  00062	49		 dec	 ecx
  00063	8b 40 60	 mov	 eax, DWORD PTR [eax+96]
  00066	89 87 8c 01 00
	00		 mov	 DWORD PTR [edi+396], eax
  0006c	0f 84 9f 00 00
	00		 je	 $LN14@ChangeRadi
  00072	49		 dec	 ecx
  00073	74 57		 je	 SHORT $LN13@ChangeRadi
  00075	49		 dec	 ecx
  00076	74 4f		 je	 SHORT $LN6@ChangeRadi
  00078	49		 dec	 ecx
  00079	74 47		 je	 SHORT $LN5@ChangeRadi
  0007b	49		 dec	 ecx
  0007c	74 10		 je	 SHORT $LN4@ChangeRadi
  0007e	49		 dec	 ecx
  0007f	49		 dec	 ecx
  00080	0f 85 96 00 00
	00		 jne	 $LN21@ChangeRadi

; 600  : 	case ID_TOURNAMENT_BTN:
; 601  : 		ShowChildWnd( ID_TOURNAMENT_WND );

  00086	53		 push	 ebx
  00087	6a 10		 push	 16			; 00000010H

; 602  : 		break;

  00089	e9 86 00 00 00	 jmp	 $LN22@ChangeRadi
$LN4@ChangeRadi:

; 593  : 	case ID_TRADE_BTN:
; 594  : 		{
; 595  : 			TradeMainWnd *pTradeWnd = dynamic_cast<TradeMainWnd*>(FindChildWnd( ID_TRADE_MAIN_WND ));

  0008e	53		 push	 ebx
  0008f	68 00 00 00 00	 push	 OFFSET ??_R0?AVTradeMainWnd@@@8
  00094	68 00 00 00 00	 push	 OFFSET ??_R0?AVioWnd@@@8
  00099	53		 push	 ebx
  0009a	6a 0f		 push	 15			; 0000000fH
  0009c	8b cf		 mov	 ecx, edi
  0009e	ff 15 00 00 00
	00		 call	 DWORD PTR __imp_?FindChildWnd@ioWnd@@QAEPAV1@K@Z
  000a4	50		 push	 eax
  000a5	e8 00 00 00 00	 call	 ___RTDynamicCast
  000aa	83 c4 14	 add	 esp, 20			; 00000014H

; 596  : 			if( pTradeWnd && !pTradeWnd->IsShow() )

  000ad	3b c3		 cmp	 eax, ebx
  000af	74 6b		 je	 SHORT $LN21@ChangeRadi
  000b1	8b c8		 mov	 ecx, eax
  000b3	ff 15 00 00 00
	00		 call	 DWORD PTR __imp_?IsShow@ioWnd@@QBE_NXZ
  000b9	84 c0		 test	 al, al
  000bb	75 5f		 jne	 SHORT $LN21@ChangeRadi

; 597  : 				ShowChildWnd( ID_TRADE_MAIN_WND );

  000bd	53		 push	 ebx
  000be	6a 0f		 push	 15			; 0000000fH

; 598  : 		}
; 599  : 		break;

  000c0	eb 52		 jmp	 SHORT $LN22@ChangeRadi
$LN5@ChangeRadi:

; 590  : 	case ID_PLAZA_BTN:
; 591  : 		ShowChildWnd( ID_PLAZA_WND );

  000c2	53		 push	 ebx
  000c3	6a 0c		 push	 12			; 0000000cH

; 592  : 		break;

  000c5	eb 4d		 jmp	 SHORT $LN22@ChangeRadi
$LN6@ChangeRadi:

; 587  : 	case ID_HERO_MAIN_BTN:
; 588  : 		ShowChildWnd( ID_HERO_MAIN_WND );

  000c7	53		 push	 ebx
  000c8	6a 0e		 push	 14			; 0000000eH

; 589  : 		break;

  000ca	eb 48		 jmp	 SHORT $LN22@ChangeRadi
$LN13@ChangeRadi:

; 571  : 				break;
; 572  : 			default:
; 573  : 				{
; 574  : 					CampMainWnd *pCampMainWnd = dynamic_cast<CampMainWnd*>(FindChildWnd( ID_CAMP_MAIN_WND ));

  000cc	53		 push	 ebx
  000cd	8b cf		 mov	 ecx, edi
  000cf	3b c3		 cmp	 eax, ebx
  000d1	74 3a		 je	 SHORT $LN10@ChangeRadi
  000d3	68 00 00 00 00	 push	 OFFSET ??_R0?AVCampMainWnd@@@8
  000d8	68 00 00 00 00	 push	 OFFSET ??_R0?AVioWnd@@@8
  000dd	53		 push	 ebx
  000de	6a 0b		 push	 11			; 0000000bH
  000e0	ff 15 00 00 00
	00		 call	 DWORD PTR __imp_?FindChildWnd@ioWnd@@QAEPAV1@K@Z
  000e6	50		 push	 eax
  000e7	e8 00 00 00 00	 call	 ___RTDynamicCast
  000ec	8b f0		 mov	 esi, eax
  000ee	83 c4 14	 add	 esp, 20			; 00000014H

; 575  : 					if( pCampMainWnd )

  000f1	3b f3		 cmp	 esi, ebx
  000f3	74 27		 je	 SHORT $LN21@ChangeRadi

; 576  : 					{
; 577  : 						pCampMainWnd->ShowWnd();

  000f5	8b ce		 mov	 ecx, esi
  000f7	ff 15 00 00 00
	00		 call	 DWORD PTR __imp_?ShowWnd@ioWnd@@QAEXXZ

; 578  : 						// 가입했을 때는 진영 정보를 보여준다.
; 579  : 						if( iPrevMyCampPos == CAMP_NONE )     

  000fd	39 5d 08	 cmp	 DWORD PTR _iPrevMyCampPos$[ebp], ebx
  00100	75 1a		 jne	 SHORT $LN21@ChangeRadi

; 580  : 							pCampMainWnd->CheckCampButton( CampMainWnd::ID_CAMP_INFO_BTN );

  00102	6a 01		 push	 1
  00104	8b ce		 mov	 ecx, esi
  00106	e8 00 00 00 00	 call	 ?CheckCampButton@CampMainWnd@@QAEXK@Z ; CampMainWnd::CheckCampButton

; 581  : 					}
; 582  : 				}
; 583  : 				break;

  0010b	eb 0f		 jmp	 SHORT $LN21@ChangeRadi
$LN10@ChangeRadi:

; 564  : 		break;
; 565  : 	case ID_CAMP_BTN:
; 566  : 		{
; 567  : 			switch( m_iMyCampPos )
; 568  : 			{
; 569  : 			case CAMP_NONE:
; 570  : 				ShowChildWnd( ID_CAMP_MAIN_WND );

  0010d	6a 0b		 push	 11			; 0000000bH

; 584  : 			}
; 585  : 		}
; 586  : 		break;

  0010f	eb 05		 jmp	 SHORT $LN23@ChangeRadi
$LN14@ChangeRadi:

; 561  : 	{
; 562  : 	case ID_BATTLE_BTN:
; 563  : 		ShowChildWnd( ID_BATTLE_WND );

  00111	53		 push	 ebx
  00112	6a 0a		 push	 10			; 0000000aH
$LN22@ChangeRadi:
  00114	8b cf		 mov	 ecx, edi
$LN23@ChangeRadi:
  00116	ff 15 00 00 00
	00		 call	 DWORD PTR __imp_?ShowChildWnd@ioWnd@@QAEXK_N@Z
$LN21@ChangeRadi:

; 603  : 	}
; 604  : 
; 605  : 	if( GetParent() )

  0011c	8b cf		 mov	 ecx, edi
  0011e	ff 15 00 00 00
	00		 call	 DWORD PTR __imp_?GetParent@ioWnd@@QAEPAV1@XZ
  00124	85 c0		 test	 eax, eax
  00126	74 1b		 je	 SHORT $LN1@ChangeRadi

; 606  : 		GetParent()->iwm_command( this, IOBN_BTNDOWN, m_dwTabID );

  00128	8b cf		 mov	 ecx, edi
  0012a	ff 15 00 00 00
	00		 call	 DWORD PTR __imp_?GetParent@ioWnd@@QAEPAV1@XZ
  00130	ff b7 88 01 00
	00		 push	 DWORD PTR [edi+392]
  00136	8b 10		 mov	 edx, DWORD PTR [eax]
  00138	6a 10		 push	 16			; 00000010H
  0013a	57		 push	 edi
  0013b	8b c8		 mov	 ecx, eax
  0013d	ff 92 8c 00 00
	00		 call	 DWORD PTR [edx+140]
$LN1@ChangeRadi:
  00143	5f		 pop	 edi
  00144	5e		 pop	 esi
  00145	5b		 pop	 ebx

; 607  : }

  00146	5d		 pop	 ebp
  00147	c2 04 00	 ret	 4
?ChangeRadioWnd@LobbyWnd@@IAEXK@Z ENDP			; LobbyWnd::ChangeRadioWnd
_TEXT	ENDS
PUBLIC	?RefreshTab@LobbyWnd@@QAEXXZ			; LobbyWnd::RefreshTab
; Function compile flags: /Ogsp
;	COMDAT ?RefreshTab@LobbyWnd@@QAEXXZ
_TEXT	SEGMENT
?RefreshTab@LobbyWnd@@QAEXXZ PROC			; LobbyWnd::RefreshTab, COMDAT
; _this$ = ecx

; 611  : 	ChangeRadioWnd( m_dwTabID ); 

  00000	ff b1 88 01 00
	00		 push	 DWORD PTR [ecx+392]
  00006	e8 00 00 00 00	 call	 ?ChangeRadioWnd@LobbyWnd@@IAEXK@Z ; LobbyWnd::ChangeRadioWnd

; 612  : }

  0000b	c3		 ret	 0
?RefreshTab@LobbyWnd@@QAEXXZ ENDP			; LobbyWnd::RefreshTab
_TEXT	ENDS
PUBLIC	??_C@_0BP@HNOAKNMK@LobbyWnd?3?3OnCreateHeadquarters?$AA@ ; `string'
PUBLIC	__$ArrayPad$
PUBLIC	?OnCreateHeadquarters@LobbyWnd@@IAEXXZ		; LobbyWnd::OnCreateHeadquarters
EXTRN	??6SP2Packet@@QAEAAV0@ABVioHashString@@@Z:PROC	; SP2Packet::operator<<
EXTRN	?CheckHeadquartersMapIndex@ioModeSelectInfo@@QAEHHH@Z:PROC ; ioModeSelectInfo::CheckHeadquartersMapIndex
EXTRN	?GetHeadquartersModeIndex@ioModeSelectInfo@@QAEHXZ:PROC ; ioModeSelectInfo::GetHeadquartersModeIndex
EXTRN	?GetSingleton@ioModeSelectInfo@@SAAAV1@XZ:PROC	; ioModeSelectInfo::GetSingleton
;	COMDAT ??_C@_0BP@HNOAKNMK@LobbyWnd?3?3OnCreateHeadquarters?$AA@
; File d:\lost saga for developer\youtube\tutorial\source\src\lsclient\iomyinfo.h
CONST	SEGMENT
??_C@_0BP@HNOAKNMK@LobbyWnd?3?3OnCreateHeadquarters?$AA@ DB 'LobbyWnd::On'
	DB	'CreateHeadquarters', 00H			; `string'
CONST	ENDS
;	COMDAT xdata$x
xdata$x	SEGMENT
__unwindtable$?OnCreateHeadquarters@LobbyWnd@@IAEXXZ DD 0ffffffffH
	DD	FLAT:__unwindfunclet$?OnCreateHeadquarters@LobbyWnd@@IAEXXZ$0
	DD	0ffffffffH
	DD	FLAT:__unwindfunclet$?OnCreateHeadquarters@LobbyWnd@@IAEXXZ$1
__ehfuncinfo$?OnCreateHeadquarters@LobbyWnd@@IAEXXZ DD 019930522H
	DD	02H
	DD	FLAT:__unwindtable$?OnCreateHeadquarters@LobbyWnd@@IAEXXZ
	DD	2 DUP(00H)
	DD	2 DUP(00H)
	DD	00H
	DD	01H
; Function compile flags: /Ogsp
; File d:\lost saga for developer\youtube\tutorial\source\src\lsclient\gui\lobbymainwnd.cpp
xdata$x	ENDS
;	COMDAT ?OnCreateHeadquarters@LobbyWnd@@IAEXXZ
_TEXT	SEGMENT
$T538195 = -32824					; size = 16
_kPacket$ = -32808					; size = 32792
__$ArrayPad$ = -16					; size = 4
__$EHRec$ = -12						; size = 12
?OnCreateHeadquarters@LobbyWnd@@IAEXXZ PROC		; LobbyWnd::OnCreateHeadquarters, COMDAT
; _this$ = ecx

; 615  : {

  00000	55		 push	 ebp
  00001	8b ec		 mov	 ebp, esp
  00003	6a ff		 push	 -1
  00005	68 00 00 00 00	 push	 __ehhandler$?OnCreateHeadquarters@LobbyWnd@@IAEXXZ
  0000a	64 a1 00 00 00
	00		 mov	 eax, DWORD PTR fs:0
  00010	50		 push	 eax
  00011	b8 2c 80 00 00	 mov	 eax, 32812		; 0000802cH
  00016	e8 00 00 00 00	 call	 __chkstk
  0001b	a1 00 00 00 00	 mov	 eax, DWORD PTR ___security_cookie
  00020	33 c5		 xor	 eax, ebp
  00022	89 45 f0	 mov	 DWORD PTR __$ArrayPad$[ebp], eax
  00025	53		 push	 ebx
  00026	57		 push	 edi
  00027	50		 push	 eax
  00028	8d 45 f4	 lea	 eax, DWORD PTR __$EHRec$[ebp]
  0002b	64 a3 00 00 00
	00		 mov	 DWORD PTR fs:0, eax

; 616  : 	if( g_App.IsMouseBusy() )

  00031	e8 00 00 00 00	 call	 ?GetSingleton@ioApplication@@SAAAV1@XZ ; ioApplication::GetSingleton
  00036	8b c8		 mov	 ecx, eax
  00038	e8 00 00 00 00	 call	 ?IsMouseBusy@ioApplication@@QAE_NXZ ; ioApplication::IsMouseBusy
  0003d	84 c0		 test	 al, al
  0003f	0f 85 24 01 00
	00		 jne	 $LN5@OnCreateHe

; 617  : 		return;
; 618  : 
; 619  : 	if( g_BattleRoomMgr.IsBattleRoom() )

  00045	e8 00 00 00 00	 call	 ?GetSingleton@ioBattleRoomMgr@@SAAAV1@XZ ; ioBattleRoomMgr::GetSingleton
  0004a	8b c8		 mov	 ecx, eax
  0004c	e8 00 00 00 00	 call	 ?IsBattleRoom@ioBattleRoomMgr@@QAE_NXZ ; ioBattleRoomMgr::IsBattleRoom
  00051	84 c0		 test	 al, al
  00053	74 33		 je	 SHORT $LN3@OnCreateHe
$LN15@OnCreateHe:

; 620  : 	{
; 621  : 		g_GUIMgr.SetMsgBox( MB_OK, NULL, STR(1) );

  00055	33 db		 xor	 ebx, ebx
  00057	53		 push	 ebx
  00058	6a 01		 push	 1
$LN14@OnCreateHe:
  0005a	68 00 00 00 00	 push	 OFFSET ??_C@_00CNPNBAHC@?$AA@
  0005f	68 00 00 00 00	 push	 OFFSET ??_C@_0BP@HNOAKNMK@LobbyWnd?3?3OnCreateHeadquarters?$AA@
  00064	ff 15 00 00 00
	00		 call	 DWORD PTR __imp_?GetSingleton@ioStringManager@@SAAAV1@XZ
  0006a	8b c8		 mov	 ecx, eax
  0006c	ff 15 00 00 00
	00		 call	 DWORD PTR __imp_?GetString@ioStringManager@@QAEPADPBD0HW4FileNamePrefix@1@@Z
  00072	50		 push	 eax
  00073	53		 push	 ebx
  00074	53		 push	 ebx
  00075	e8 00 00 00 00	 call	 ?GetSingleton@ioSP2GUIManager@@SAAAV1@XZ ; ioSP2GUIManager::GetSingleton
  0007a	50		 push	 eax
  0007b	e8 00 00 00 00	 call	 ?SetMsgBox@ioSP2GUIManager@@QAAXHPAVioWnd@@PBDZZ ; ioSP2GUIManager::SetMsgBox
  00080	83 c4 10	 add	 esp, 16			; 00000010H

; 622  : 		return;

  00083	e9 e1 00 00 00	 jmp	 $LN5@OnCreateHe
$LN3@OnCreateHe:

; 623  : 	}
; 624  : 
; 625  : 	if( g_LadderTeamMgr.IsLadderTeam() )

  00088	e8 00 00 00 00	 call	 ?GetSingleton@ioLadderTeamMgr@@SAAAV1@XZ ; ioLadderTeamMgr::GetSingleton
  0008d	8b c8		 mov	 ecx, eax
  0008f	e8 00 00 00 00	 call	 ?IsLadderTeam@ioLadderTeamMgr@@QAE_NXZ ; ioLadderTeamMgr::IsLadderTeam
  00094	84 c0		 test	 al, al
  00096	74 07		 je	 SHORT $LN2@OnCreateHe

; 626  : 	{
; 627  : 		g_GUIMgr.SetMsgBox( MB_OK, NULL, STR(2) );

  00098	33 db		 xor	 ebx, ebx
  0009a	53		 push	 ebx
  0009b	6a 02		 push	 2

; 628  : 		return;

  0009d	eb bb		 jmp	 SHORT $LN14@OnCreateHe
$LN2@OnCreateHe:

; 629  : 	}
; 630  : 
; 631  : 	if( g_ShuffleRoomMgr.IsShuffleRoom() )

  0009f	e8 00 00 00 00	 call	 ?GetSingleton@ioShuffleRoomMgr@@SAAAV1@XZ ; ioShuffleRoomMgr::GetSingleton
  000a4	8b c8		 mov	 ecx, eax
  000a6	e8 00 00 00 00	 call	 ?IsShuffleRoom@ioShuffleRoomMgr@@QAE_NXZ ; ioShuffleRoomMgr::IsShuffleRoom
  000ab	84 c0		 test	 al, al

; 632  : 	{
; 633  : 		g_GUIMgr.SetMsgBox( MB_OK, NULL, STR(1) );
; 634  : 		return;

  000ad	75 a6		 jne	 SHORT $LN15@OnCreateHe

; 635  : 	}
; 636  : 
; 637  : 	g_MyInfo.SetJoinHeadquartersRequestName( "" );

  000af	68 00 00 00 00	 push	 OFFSET ??_C@_00CNPNBAHC@?$AA@
  000b4	8d 8d c8 7f ff
	ff		 lea	 ecx, DWORD PTR $T538195[ebp]
  000ba	ff 15 00 00 00
	00		 call	 DWORD PTR __imp_??0ioHashString@@QAE@PBD@Z
  000c0	33 db		 xor	 ebx, ebx
  000c2	89 5d fc	 mov	 DWORD PTR __$EHRec$[ebp+8], ebx
  000c5	e8 00 00 00 00	 call	 ?GetSingleton@ioMyInfo@@SAAAV1@XZ ; ioMyInfo::GetSingleton
  000ca	8d 8d c8 7f ff
	ff		 lea	 ecx, DWORD PTR $T538195[ebp]
  000d0	51		 push	 ecx
  000d1	8d 88 6c 09 00
	00		 lea	 ecx, DWORD PTR [eax+2412]
  000d7	ff 15 00 00 00
	00		 call	 DWORD PTR __imp_??4ioHashString@@QAEAAV0@ABV0@@Z
  000dd	83 4d fc ff	 or	 DWORD PTR __$EHRec$[ebp+8], -1
  000e1	8d 8d c8 7f ff
	ff		 lea	 ecx, DWORD PTR $T538195[ebp]
  000e7	ff 15 00 00 00
	00		 call	 DWORD PTR __imp_??1ioHashString@@QAE@XZ

; 638  : 	SP2Packet kPacket( CTPK_JOIN_HEADQUARTERS );

  000ed	68 20 01 00 00	 push	 288			; 00000120H
  000f2	8d 8d d8 7f ff
	ff		 lea	 ecx, DWORD PTR _kPacket$[ebp]
  000f8	e8 00 00 00 00	 call	 ??0SP2Packet@@QAE@K@Z	; SP2Packet::SP2Packet
  000fd	c7 45 fc 01 00
	00 00		 mov	 DWORD PTR __$EHRec$[ebp+8], 1

; 639  : 	kPacket << g_MyInfo.GetPublicID() << g_ModeSelectInfo.CheckHeadquartersMapIndex( g_ModeSelectInfo.GetHeadquartersModeIndex(), 1 ) << false;

  00104	e8 00 00 00 00	 call	 ?GetSingleton@ioMyInfo@@SAAAV1@XZ ; ioMyInfo::GetSingleton
  00109	53		 push	 ebx
  0010a	6a 01		 push	 1
  0010c	8b f8		 mov	 edi, eax
  0010e	e8 00 00 00 00	 call	 ?GetSingleton@ioModeSelectInfo@@SAAAV1@XZ ; ioModeSelectInfo::GetSingleton
  00113	8b c8		 mov	 ecx, eax
  00115	e8 00 00 00 00	 call	 ?GetHeadquartersModeIndex@ioModeSelectInfo@@QAEHXZ ; ioModeSelectInfo::GetHeadquartersModeIndex
  0011a	50		 push	 eax
  0011b	e8 00 00 00 00	 call	 ?GetSingleton@ioModeSelectInfo@@SAAAV1@XZ ; ioModeSelectInfo::GetSingleton
  00120	8b c8		 mov	 ecx, eax
  00122	e8 00 00 00 00	 call	 ?CheckHeadquartersMapIndex@ioModeSelectInfo@@QAEHHH@Z ; ioModeSelectInfo::CheckHeadquartersMapIndex
  00127	50		 push	 eax
  00128	83 c7 1c	 add	 edi, 28			; 0000001cH
  0012b	57		 push	 edi
  0012c	8d 8d d8 7f ff
	ff		 lea	 ecx, DWORD PTR _kPacket$[ebp]
  00132	e8 00 00 00 00	 call	 ??6SP2Packet@@QAEAAV0@ABVioHashString@@@Z ; SP2Packet::operator<<
  00137	8b c8		 mov	 ecx, eax
  00139	e8 00 00 00 00	 call	 ??6SP2Packet@@QAEAAV0@H@Z ; SP2Packet::operator<<
  0013e	8b c8		 mov	 ecx, eax
  00140	e8 00 00 00 00	 call	 ??6SP2Packet@@QAEAAV0@_N@Z ; SP2Packet::operator<<

; 640  : 	TCPNetwork::SendToServer( kPacket );

  00145	8d 85 d8 7f ff
	ff		 lea	 eax, DWORD PTR _kPacket$[ebp]
  0014b	50		 push	 eax
  0014c	e8 00 00 00 00	 call	 ?SendToServer@TCPNetwork@@YAXAAVSP2Packet@@@Z ; TCPNetwork::SendToServer

; 641  : 	TCPNetwork::MouseBusy( true );

  00151	6a 01		 push	 1
  00153	e8 00 00 00 00	 call	 ?MouseBusy@TCPNetwork@@YAX_N@Z ; TCPNetwork::MouseBusy

; 642  : }

  00158	83 4d fc ff	 or	 DWORD PTR __$EHRec$[ebp+8], -1
  0015c	59		 pop	 ecx
  0015d	59		 pop	 ecx
  0015e	8d 8d d8 7f ff
	ff		 lea	 ecx, DWORD PTR _kPacket$[ebp]
  00164	e8 00 00 00 00	 call	 ??1SP2Packet@@UAE@XZ	; SP2Packet::~SP2Packet
$LN5@OnCreateHe:
  00169	8b 4d f4	 mov	 ecx, DWORD PTR __$EHRec$[ebp]
  0016c	64 89 0d 00 00
	00 00		 mov	 DWORD PTR fs:0, ecx
  00173	59		 pop	 ecx
  00174	5f		 pop	 edi
  00175	5b		 pop	 ebx
  00176	8b 4d f0	 mov	 ecx, DWORD PTR __$ArrayPad$[ebp]
  00179	33 cd		 xor	 ecx, ebp
  0017b	e8 00 00 00 00	 call	 @__security_check_cookie@4
  00180	c9		 leave
  00181	c3		 ret	 0
_TEXT	ENDS
;	COMDAT text$x
text$x	SEGMENT
__unwindfunclet$?OnCreateHeadquarters@LobbyWnd@@IAEXXZ$0:
  00000	8d 8d c8 7f ff
	ff		 lea	 ecx, DWORD PTR $T538195[ebp]
  00006	ff 25 00 00 00
	00		 jmp	 DWORD PTR __imp_??1ioHashString@@QAE@XZ
__unwindfunclet$?OnCreateHeadquarters@LobbyWnd@@IAEXXZ$1:
  0000c	8d 8d d8 7f ff
	ff		 lea	 ecx, DWORD PTR _kPacket$[ebp]
  00012	e9 00 00 00 00	 jmp	 ??1SP2Packet@@UAE@XZ	; SP2Packet::~SP2Packet
__ehhandler$?OnCreateHeadquarters@LobbyWnd@@IAEXXZ:
  00017	8b 54 24 08	 mov	 edx, DWORD PTR [esp+8]
  0001b	8d 42 0c	 lea	 eax, DWORD PTR [edx+12]
  0001e	8b 8a c8 7f ff
	ff		 mov	 ecx, DWORD PTR [edx-32824]
  00024	33 c8		 xor	 ecx, eax
  00026	e8 00 00 00 00	 call	 @__security_check_cookie@4
  0002b	8b 4a fc	 mov	 ecx, DWORD PTR [edx-4]
  0002e	33 c8		 xor	 ecx, eax
  00030	e8 00 00 00 00	 call	 @__security_check_cookie@4
  00035	b8 00 00 00 00	 mov	 eax, OFFSET __ehfuncinfo$?OnCreateHeadquarters@LobbyWnd@@IAEXXZ
  0003a	e9 00 00 00 00	 jmp	 ___CxxFrameHandler3
text$x	ENDS
?OnCreateHeadquarters@LobbyWnd@@IAEXXZ ENDP		; LobbyWnd::OnCreateHeadquarters
PUBLIC	??_C@_0BI@ENNEBNDG@LobbyWnd?3?3OnCreateHouse?$AA@ ; `string'
PUBLIC	__$ArrayPad$
PUBLIC	?OnCreateHouse@LobbyWnd@@IAEXXZ			; LobbyWnd::OnCreateHouse
EXTRN	?CheckHouseMapIndex@ioModeSelectInfo@@QAEHHH@Z:PROC ; ioModeSelectInfo::CheckHouseMapIndex
EXTRN	?GetHouseModeIndex@ioModeSelectInfo@@QAEHXZ:PROC ; ioModeSelectInfo::GetHouseModeIndex
;	COMDAT ??_C@_0BI@ENNEBNDG@LobbyWnd?3?3OnCreateHouse?$AA@
; File d:\lost saga for developer\youtube\tutorial\source\src\lsclient\iomyinfo.h
CONST	SEGMENT
??_C@_0BI@ENNEBNDG@LobbyWnd?3?3OnCreateHouse?$AA@ DB 'LobbyWnd::OnCreateH'
	DB	'ouse', 00H					; `string'
CONST	ENDS
;	COMDAT xdata$x
xdata$x	SEGMENT
__unwindtable$?OnCreateHouse@LobbyWnd@@IAEXXZ DD 0ffffffffH
	DD	FLAT:__unwindfunclet$?OnCreateHouse@LobbyWnd@@IAEXXZ$0
	DD	0ffffffffH
	DD	FLAT:__unwindfunclet$?OnCreateHouse@LobbyWnd@@IAEXXZ$1
__ehfuncinfo$?OnCreateHouse@LobbyWnd@@IAEXXZ DD 019930522H
	DD	02H
	DD	FLAT:__unwindtable$?OnCreateHouse@LobbyWnd@@IAEXXZ
	DD	2 DUP(00H)
	DD	2 DUP(00H)
	DD	00H
	DD	01H
; Function compile flags: /Ogsp
; File d:\lost saga for developer\youtube\tutorial\source\src\lsclient\gui\lobbymainwnd.cpp
xdata$x	ENDS
;	COMDAT ?OnCreateHouse@LobbyWnd@@IAEXXZ
_TEXT	SEGMENT
$T538217 = -32824					; size = 16
_kPacket$ = -32808					; size = 32792
__$ArrayPad$ = -16					; size = 4
__$EHRec$ = -12						; size = 12
?OnCreateHouse@LobbyWnd@@IAEXXZ PROC			; LobbyWnd::OnCreateHouse, COMDAT
; _this$ = ecx

; 678  : {

  00000	55		 push	 ebp
  00001	8b ec		 mov	 ebp, esp
  00003	6a ff		 push	 -1
  00005	68 00 00 00 00	 push	 __ehhandler$?OnCreateHouse@LobbyWnd@@IAEXXZ
  0000a	64 a1 00 00 00
	00		 mov	 eax, DWORD PTR fs:0
  00010	50		 push	 eax
  00011	b8 2c 80 00 00	 mov	 eax, 32812		; 0000802cH
  00016	e8 00 00 00 00	 call	 __chkstk
  0001b	a1 00 00 00 00	 mov	 eax, DWORD PTR ___security_cookie
  00020	33 c5		 xor	 eax, ebp
  00022	89 45 f0	 mov	 DWORD PTR __$ArrayPad$[ebp], eax
  00025	53		 push	 ebx
  00026	57		 push	 edi
  00027	50		 push	 eax
  00028	8d 45 f4	 lea	 eax, DWORD PTR __$EHRec$[ebp]
  0002b	64 a3 00 00 00
	00		 mov	 DWORD PTR fs:0, eax

; 679  : 	if( g_App.IsMouseBusy() )

  00031	e8 00 00 00 00	 call	 ?GetSingleton@ioApplication@@SAAAV1@XZ ; ioApplication::GetSingleton
  00036	8b c8		 mov	 ecx, eax
  00038	e8 00 00 00 00	 call	 ?IsMouseBusy@ioApplication@@QAE_NXZ ; ioApplication::IsMouseBusy
  0003d	84 c0		 test	 al, al
  0003f	0f 85 2b 01 00
	00		 jne	 $LN5@OnCreateHo

; 680  : 		return;
; 681  : 
; 682  : 	if( g_BattleRoomMgr.IsBattleRoom() )

  00045	e8 00 00 00 00	 call	 ?GetSingleton@ioBattleRoomMgr@@SAAAV1@XZ ; ioBattleRoomMgr::GetSingleton
  0004a	8b c8		 mov	 ecx, eax
  0004c	e8 00 00 00 00	 call	 ?IsBattleRoom@ioBattleRoomMgr@@QAE_NXZ ; ioBattleRoomMgr::IsBattleRoom
  00051	84 c0		 test	 al, al
  00053	74 33		 je	 SHORT $LN3@OnCreateHo

; 683  : 	{
; 684  : 		g_GUIMgr.SetMsgBox( MB_OK, NULL, STR(1) );

  00055	33 db		 xor	 ebx, ebx
  00057	53		 push	 ebx
  00058	6a 01		 push	 1
$LN14@OnCreateHo:
  0005a	68 00 00 00 00	 push	 OFFSET ??_C@_00CNPNBAHC@?$AA@
  0005f	68 00 00 00 00	 push	 OFFSET ??_C@_0BI@ENNEBNDG@LobbyWnd?3?3OnCreateHouse?$AA@
  00064	ff 15 00 00 00
	00		 call	 DWORD PTR __imp_?GetSingleton@ioStringManager@@SAAAV1@XZ
  0006a	8b c8		 mov	 ecx, eax
  0006c	ff 15 00 00 00
	00		 call	 DWORD PTR __imp_?GetString@ioStringManager@@QAEPADPBD0HW4FileNamePrefix@1@@Z
  00072	50		 push	 eax
  00073	53		 push	 ebx
  00074	53		 push	 ebx
  00075	e8 00 00 00 00	 call	 ?GetSingleton@ioSP2GUIManager@@SAAAV1@XZ ; ioSP2GUIManager::GetSingleton
  0007a	50		 push	 eax
  0007b	e8 00 00 00 00	 call	 ?SetMsgBox@ioSP2GUIManager@@QAAXHPAVioWnd@@PBDZZ ; ioSP2GUIManager::SetMsgBox
  00080	83 c4 10	 add	 esp, 16			; 00000010H

; 685  : 		return;

  00083	e9 e8 00 00 00	 jmp	 $LN5@OnCreateHo
$LN3@OnCreateHo:

; 686  : 	}
; 687  : 
; 688  : 	if( g_LadderTeamMgr.IsLadderTeam() )

  00088	e8 00 00 00 00	 call	 ?GetSingleton@ioLadderTeamMgr@@SAAAV1@XZ ; ioLadderTeamMgr::GetSingleton
  0008d	8b c8		 mov	 ecx, eax
  0008f	e8 00 00 00 00	 call	 ?IsLadderTeam@ioLadderTeamMgr@@QAE_NXZ ; ioLadderTeamMgr::IsLadderTeam
  00094	84 c0		 test	 al, al
  00096	74 07		 je	 SHORT $LN2@OnCreateHo

; 689  : 	{
; 690  : 		g_GUIMgr.SetMsgBox( MB_OK, NULL, STR(2) );

  00098	33 db		 xor	 ebx, ebx
  0009a	53		 push	 ebx
  0009b	6a 02		 push	 2

; 691  : 		return;

  0009d	eb bb		 jmp	 SHORT $LN14@OnCreateHo
$LN2@OnCreateHo:

; 692  : 	}
; 693  : 
; 694  : 	if( g_ShuffleRoomMgr.IsShuffleRoom() )

  0009f	e8 00 00 00 00	 call	 ?GetSingleton@ioShuffleRoomMgr@@SAAAV1@XZ ; ioShuffleRoomMgr::GetSingleton
  000a4	8b c8		 mov	 ecx, eax
  000a6	e8 00 00 00 00	 call	 ?IsShuffleRoom@ioShuffleRoomMgr@@QAE_NXZ ; ioShuffleRoomMgr::IsShuffleRoom
  000ab	84 c0		 test	 al, al
  000ad	74 07		 je	 SHORT $LN1@OnCreateHo

; 695  : 	{
; 696  : 		g_GUIMgr.SetMsgBox( MB_OK, NULL, STR(3) );

  000af	33 db		 xor	 ebx, ebx
  000b1	53		 push	 ebx
  000b2	6a 03		 push	 3

; 697  : 		return;

  000b4	eb a4		 jmp	 SHORT $LN14@OnCreateHo
$LN1@OnCreateHo:

; 698  : 	}
; 699  : 
; 700  : 	g_MyInfo.SetJoinHouseRequestName( "" );

  000b6	68 00 00 00 00	 push	 OFFSET ??_C@_00CNPNBAHC@?$AA@
  000bb	8d 8d c8 7f ff
	ff		 lea	 ecx, DWORD PTR $T538217[ebp]
  000c1	ff 15 00 00 00
	00		 call	 DWORD PTR __imp_??0ioHashString@@QAE@PBD@Z
  000c7	33 db		 xor	 ebx, ebx
  000c9	89 5d fc	 mov	 DWORD PTR __$EHRec$[ebp+8], ebx
  000cc	e8 00 00 00 00	 call	 ?GetSingleton@ioMyInfo@@SAAAV1@XZ ; ioMyInfo::GetSingleton
  000d1	8d 8d c8 7f ff
	ff		 lea	 ecx, DWORD PTR $T538217[ebp]
  000d7	51		 push	 ecx
  000d8	8d 88 7c 09 00
	00		 lea	 ecx, DWORD PTR [eax+2428]
  000de	ff 15 00 00 00
	00		 call	 DWORD PTR __imp_??4ioHashString@@QAEAAV0@ABV0@@Z
  000e4	83 4d fc ff	 or	 DWORD PTR __$EHRec$[ebp+8], -1
  000e8	8d 8d c8 7f ff
	ff		 lea	 ecx, DWORD PTR $T538217[ebp]
  000ee	ff 15 00 00 00
	00		 call	 DWORD PTR __imp_??1ioHashString@@QAE@XZ

; 701  : 	SP2Packet kPacket( CTPK_JOIN_PERSONAL_HQ );

  000f4	68 56 03 00 00	 push	 854			; 00000356H
  000f9	8d 8d d8 7f ff
	ff		 lea	 ecx, DWORD PTR _kPacket$[ebp]
  000ff	e8 00 00 00 00	 call	 ??0SP2Packet@@QAE@K@Z	; SP2Packet::SP2Packet
  00104	c7 45 fc 01 00
	00 00		 mov	 DWORD PTR __$EHRec$[ebp+8], 1

; 702  : 	kPacket << g_MyInfo.GetPublicID() << g_ModeSelectInfo.CheckHouseMapIndex( g_ModeSelectInfo.GetHouseModeIndex(), 1 ) << false;

  0010b	e8 00 00 00 00	 call	 ?GetSingleton@ioMyInfo@@SAAAV1@XZ ; ioMyInfo::GetSingleton
  00110	53		 push	 ebx
  00111	6a 01		 push	 1
  00113	8b f8		 mov	 edi, eax
  00115	e8 00 00 00 00	 call	 ?GetSingleton@ioModeSelectInfo@@SAAAV1@XZ ; ioModeSelectInfo::GetSingleton
  0011a	8b c8		 mov	 ecx, eax
  0011c	e8 00 00 00 00	 call	 ?GetHouseModeIndex@ioModeSelectInfo@@QAEHXZ ; ioModeSelectInfo::GetHouseModeIndex
  00121	50		 push	 eax
  00122	e8 00 00 00 00	 call	 ?GetSingleton@ioModeSelectInfo@@SAAAV1@XZ ; ioModeSelectInfo::GetSingleton
  00127	8b c8		 mov	 ecx, eax
  00129	e8 00 00 00 00	 call	 ?CheckHouseMapIndex@ioModeSelectInfo@@QAEHHH@Z ; ioModeSelectInfo::CheckHouseMapIndex
  0012e	50		 push	 eax
  0012f	83 c7 1c	 add	 edi, 28			; 0000001cH
  00132	57		 push	 edi
  00133	8d 8d d8 7f ff
	ff		 lea	 ecx, DWORD PTR _kPacket$[ebp]
  00139	e8 00 00 00 00	 call	 ??6SP2Packet@@QAEAAV0@ABVioHashString@@@Z ; SP2Packet::operator<<
  0013e	8b c8		 mov	 ecx, eax
  00140	e8 00 00 00 00	 call	 ??6SP2Packet@@QAEAAV0@H@Z ; SP2Packet::operator<<
  00145	8b c8		 mov	 ecx, eax
  00147	e8 00 00 00 00	 call	 ??6SP2Packet@@QAEAAV0@_N@Z ; SP2Packet::operator<<

; 703  : 	TCPNetwork::SendToServer( kPacket );

  0014c	8d 85 d8 7f ff
	ff		 lea	 eax, DWORD PTR _kPacket$[ebp]
  00152	50		 push	 eax
  00153	e8 00 00 00 00	 call	 ?SendToServer@TCPNetwork@@YAXAAVSP2Packet@@@Z ; TCPNetwork::SendToServer

; 704  : 	TCPNetwork::MouseBusy( true );

  00158	6a 01		 push	 1
  0015a	e8 00 00 00 00	 call	 ?MouseBusy@TCPNetwork@@YAX_N@Z ; TCPNetwork::MouseBusy

; 705  : }

  0015f	83 4d fc ff	 or	 DWORD PTR __$EHRec$[ebp+8], -1
  00163	59		 pop	 ecx
  00164	59		 pop	 ecx
  00165	8d 8d d8 7f ff
	ff		 lea	 ecx, DWORD PTR _kPacket$[ebp]
  0016b	e8 00 00 00 00	 call	 ??1SP2Packet@@UAE@XZ	; SP2Packet::~SP2Packet
$LN5@OnCreateHo:
  00170	8b 4d f4	 mov	 ecx, DWORD PTR __$EHRec$[ebp]
  00173	64 89 0d 00 00
	00 00		 mov	 DWORD PTR fs:0, ecx
  0017a	59		 pop	 ecx
  0017b	5f		 pop	 edi
  0017c	5b		 pop	 ebx
  0017d	8b 4d f0	 mov	 ecx, DWORD PTR __$ArrayPad$[ebp]
  00180	33 cd		 xor	 ecx, ebp
  00182	e8 00 00 00 00	 call	 @__security_check_cookie@4
  00187	c9		 leave
  00188	c3		 ret	 0
_TEXT	ENDS
;	COMDAT text$x
text$x	SEGMENT
__unwindfunclet$?OnCreateHouse@LobbyWnd@@IAEXXZ$0:
  00000	8d 8d c8 7f ff
	ff		 lea	 ecx, DWORD PTR $T538217[ebp]
  00006	ff 25 00 00 00
	00		 jmp	 DWORD PTR __imp_??1ioHashString@@QAE@XZ
__unwindfunclet$?OnCreateHouse@LobbyWnd@@IAEXXZ$1:
  0000c	8d 8d d8 7f ff
	ff		 lea	 ecx, DWORD PTR _kPacket$[ebp]
  00012	e9 00 00 00 00	 jmp	 ??1SP2Packet@@UAE@XZ	; SP2Packet::~SP2Packet
__ehhandler$?OnCreateHouse@LobbyWnd@@IAEXXZ:
  00017	8b 54 24 08	 mov	 edx, DWORD PTR [esp+8]
  0001b	8d 42 0c	 lea	 eax, DWORD PTR [edx+12]
  0001e	8b 8a c8 7f ff
	ff		 mov	 ecx, DWORD PTR [edx-32824]
  00024	33 c8		 xor	 ecx, eax
  00026	e8 00 00 00 00	 call	 @__security_check_cookie@4
  0002b	8b 4a fc	 mov	 ecx, DWORD PTR [edx-4]
  0002e	33 c8		 xor	 ecx, eax
  00030	e8 00 00 00 00	 call	 @__security_check_cookie@4
  00035	b8 00 00 00 00	 mov	 eax, OFFSET __ehfuncinfo$?OnCreateHouse@LobbyWnd@@IAEXXZ
  0003a	e9 00 00 00 00	 jmp	 ___CxxFrameHandler3
text$x	ENDS
?OnCreateHouse@LobbyWnd@@IAEXXZ ENDP			; LobbyWnd::OnCreateHouse
PUBLIC	??_C@_0BG@LOBMJLCD@LobbyWnd?3?3iwm_command?$AA@	; `string'
PUBLIC	??_R0?AVGuildHQEtcItemNeedPopup@@@8		; GuildHQEtcItemNeedPopup `RTTI Type Descriptor'
PUBLIC	??_R0?AVHomeEtcItemNeedPopup@@@8		; HomeEtcItemNeedPopup `RTTI Type Descriptor'
EXTRN	?GetRegularDisableTournamentMent@ioTournamentManager@@QAEABVioHashString@@XZ:PROC ; ioTournamentManager::GetRegularDisableTournamentMent
EXTRN	?GetEtcItem@ioUserEtcItem@@QAE_NHAAUETCITEMSLOT@1@@Z:PROC ; ioUserEtcItem::GetEtcItem
EXTRN	?SetType@GuildHQEtcItemNeedPopup@@QAEXW4PopUpType@1@@Z:PROC ; GuildHQEtcItemNeedPopup::SetType
EXTRN	__imp_??8ioHashString@@QBE_NABV0@@Z:PROC
EXTRN	?GetGuildMasterName@ioGuildData@@QAEABVioHashString@@XZ:PROC ; ioGuildData::GetGuildMasterName
EXTRN	__imp_?FindWnd@ioGUIManager@@QAEPAVioWnd@@K@Z:PROC
EXTRN	__imp_?ShowWnd@ioGUIManager@@QAEXK_N@Z:PROC
EXTRN	__imp_?IsShow@ioGUIManager@@QAE_NK@Z:PROC
;	COMDAT ??_C@_0BG@LOBMJLCD@LobbyWnd?3?3iwm_command?$AA@
; File d:\lost saga for developer\youtube\tutorial\source\src\lsclient\iouseretcitem.h
CONST	SEGMENT
??_C@_0BG@LOBMJLCD@LobbyWnd?3?3iwm_command?$AA@ DB 'LobbyWnd::iwm_command'
	DB	00H						; `string'
CONST	ENDS
;	COMDAT ??_R0?AVGuildHQEtcItemNeedPopup@@@8
_DATA	SEGMENT
??_R0?AVGuildHQEtcItemNeedPopup@@@8 DD FLAT:??_7type_info@@6B@ ; GuildHQEtcItemNeedPopup `RTTI Type Descriptor'
	DD	00H
	DB	'.?AVGuildHQEtcItemNeedPopup@@', 00H
_DATA	ENDS
;	COMDAT ??_R0?AVHomeEtcItemNeedPopup@@@8
_DATA	SEGMENT
??_R0?AVHomeEtcItemNeedPopup@@@8 DD FLAT:??_7type_info@@6B@ ; HomeEtcItemNeedPopup `RTTI Type Descriptor'
	DD	00H
	DB	'.?AVHomeEtcItemNeedPopup@@', 00H
; Function compile flags: /Ogsp
; File d:\lost saga for developer\youtube\tutorial\source\src\lsclient\gui\lobbymainwnd.cpp
_DATA	ENDS
;	COMDAT ?iwm_command@LobbyWnd@@UAEXPAVioWnd@@HK@Z
_TEXT	SEGMENT
_Slot$533931 = -12					; size = 12
_pWnd$ = 8						; size = 4
_cmd$ = 12						; size = 4
_param$ = 16						; size = 4
?iwm_command@LobbyWnd@@UAEXPAVioWnd@@HK@Z PROC		; LobbyWnd::iwm_command, COMDAT
; _this$ = ecx

; 708  : {

  00000	55		 push	 ebp
  00001	8b ec		 mov	 ebp, esp
  00003	83 ec 0c	 sub	 esp, 12			; 0000000cH
  00006	56		 push	 esi
  00007	8b f1		 mov	 esi, ecx

; 709  : 	DWORD dwID = pWnd->GetID();

  00009	8b 4d 08	 mov	 ecx, DWORD PTR _pWnd$[ebp]
  0000c	57		 push	 edi
  0000d	ff 15 00 00 00
	00		 call	 DWORD PTR __imp_?GetID@ioWnd@@QBEKXZ

; 710  : 	switch( dwID )

  00013	33 ff		 xor	 edi, edi
  00015	3b c7		 cmp	 eax, edi
  00017	0f 86 24 02 00
	00		 jbe	 $LN23@iwm_comman@2
  0001d	83 f8 05	 cmp	 eax, 5
  00020	0f 86 da 01 00
	00		 jbe	 $LN26@iwm_comman@2
  00026	83 f8 06	 cmp	 eax, 6
  00029	0f 84 c2 01 00
	00		 je	 $LN22@iwm_comman@2
  0002f	83 f8 07	 cmp	 eax, 7
  00032	0f 84 c8 01 00
	00		 je	 $LN26@iwm_comman@2
  00038	83 f8 08	 cmp	 eax, 8
  0003b	0f 84 ac 00 00
	00		 je	 $LN20@iwm_comman@2
  00041	83 f8 09	 cmp	 eax, 9
  00044	74 4f		 je	 SHORT $LN9@iwm_comman@2
  00046	83 f8 11	 cmp	 eax, 17			; 00000011H
  00049	0f 85 f2 01 00
	00		 jne	 $LN23@iwm_comman@2

; 783  : 	case ID_BONUS_CASH_BTN:
; 784  : 		if( cmd == IOBN_BTNUP )

  0004f	39 45 0c	 cmp	 DWORD PTR _cmd$[ebp], eax
  00052	0f 85 e9 01 00
	00		 jne	 $LN23@iwm_comman@2

; 785  : 		{
; 786  : 			if ( !g_GUIMgr.IsShow( BONUS_CASH_WND ))

  00058	be 9a 18 00 00	 mov	 esi, 6298		; 0000189aH
  0005d	56		 push	 esi
  0005e	e8 00 00 00 00	 call	 ?GetSingleton@ioSP2GUIManager@@SAAAV1@XZ ; ioSP2GUIManager::GetSingleton
  00063	8b c8		 mov	 ecx, eax
  00065	ff 15 00 00 00
	00		 call	 DWORD PTR __imp_?IsShow@ioGUIManager@@QAE_NK@Z

; 787  : 				g_GUIMgr.ShowWnd( BONUS_CASH_WND );

  0006b	57		 push	 edi
  0006c	56		 push	 esi
  0006d	84 c0		 test	 al, al
  0006f	75 12		 jne	 SHORT $LN2@iwm_comman@2
  00071	e8 00 00 00 00	 call	 ?GetSingleton@ioSP2GUIManager@@SAAAV1@XZ ; ioSP2GUIManager::GetSingleton
  00076	8b c8		 mov	 ecx, eax
  00078	ff 15 00 00 00
	00		 call	 DWORD PTR __imp_?ShowWnd@ioGUIManager@@QAEXK_N@Z

; 788  : 			else

  0007e	e9 be 01 00 00	 jmp	 $LN23@iwm_comman@2
$LN2@iwm_comman@2:

; 789  : 				g_GUIMgr.HideWnd( BONUS_CASH_WND );

  00083	e8 00 00 00 00	 call	 ?GetSingleton@ioSP2GUIManager@@SAAAV1@XZ ; ioSP2GUIManager::GetSingleton
  00088	8b c8		 mov	 ecx, eax
  0008a	ff 15 00 00 00
	00		 call	 DWORD PTR __imp_?HideWnd@ioGUIManager@@QAEXK_N@Z

; 790  : 		}
; 791  : 		break;

  00090	e9 ac 01 00 00	 jmp	 $LN23@iwm_comman@2
$LN9@iwm_comman@2:

; 771  : 	case ID_MY_HOME_BTN:
; 772  : 		if( cmd == IOBN_BTNUP )

  00095	83 7d 0c 11	 cmp	 DWORD PTR _cmd$[ebp], 17 ; 00000011H
  00099	75 0c		 jne	 SHORT $LN8@iwm_comman@2

; 773  : 		{
; 774  : 			OnCreateHouse();

  0009b	8b ce		 mov	 ecx, esi
  0009d	e8 00 00 00 00	 call	 ?OnCreateHouse@LobbyWnd@@IAEXXZ ; LobbyWnd::OnCreateHouse
  000a2	e9 9a 01 00 00	 jmp	 $LN23@iwm_comman@2
$LN8@iwm_comman@2:

; 775  : 		}
; 776  : 		else if( cmd == IOEX_BTNUP )

  000a7	83 7d 0c 16	 cmp	 DWORD PTR _cmd$[ebp], 22 ; 00000016H
  000ab	0f 85 90 01 00
	00		 jne	 $LN23@iwm_comman@2

; 777  : 		{
; 778  : 			HomeEtcItemNeedPopup* pWnd = dynamic_cast<HomeEtcItemNeedPopup*>( g_GUIMgr.FindWnd( HOUSE_NEED_POPUP ) );

  000b1	57		 push	 edi
  000b2	68 00 00 00 00	 push	 OFFSET ??_R0?AVHomeEtcItemNeedPopup@@@8
  000b7	68 00 00 00 00	 push	 OFFSET ??_R0?AVioWnd@@@8
  000bc	57		 push	 edi
  000bd	68 92 18 00 00	 push	 6290			; 00001892H
  000c2	e8 00 00 00 00	 call	 ?GetSingleton@ioSP2GUIManager@@SAAAV1@XZ ; ioSP2GUIManager::GetSingleton
  000c7	8b c8		 mov	 ecx, eax
  000c9	ff 15 00 00 00
	00		 call	 DWORD PTR __imp_?FindWnd@ioGUIManager@@QAEPAVioWnd@@K@Z
  000cf	50		 push	 eax
  000d0	e8 00 00 00 00	 call	 ___RTDynamicCast
  000d5	83 c4 14	 add	 esp, 20			; 00000014H

; 779  : 			if( pWnd )

  000d8	3b c7		 cmp	 eax, edi
  000da	0f 84 61 01 00
	00		 je	 $LN23@iwm_comman@2

; 780  : 				pWnd->ShowWnd();

  000e0	8b c8		 mov	 ecx, eax
$LN41@iwm_comman@2:
  000e2	ff 15 00 00 00
	00		 call	 DWORD PTR __imp_?ShowWnd@ioWnd@@QAEXXZ

; 781  : 		}
; 782  : 		break;

  000e8	e9 54 01 00 00	 jmp	 $LN23@iwm_comman@2
$LN20@iwm_comman@2:

; 734  : 	case ID_GUILD_HEADQUATER_BTN:
; 735  : 		if( cmd == IOBN_BTNUP )

  000ed	83 7d 0c 11	 cmp	 DWORD PTR _cmd$[ebp], 17 ; 00000011H
  000f1	75 0c		 jne	 SHORT $LN19@iwm_comman@2

; 736  : 		{
; 737  : 			OnCreateGuildHeadquarters();

  000f3	8b ce		 mov	 ecx, esi
  000f5	e8 00 00 00 00	 call	 ?OnCreateGuildHeadquarters@LobbyWnd@@IAEXXZ ; LobbyWnd::OnCreateGuildHeadquarters
  000fa	e9 42 01 00 00	 jmp	 $LN23@iwm_comman@2
$LN19@iwm_comman@2:

; 738  : 		}
; 739  : 		else if( cmd == IOEX_BTNUP )

  000ff	83 7d 0c 16	 cmp	 DWORD PTR _cmd$[ebp], 22 ; 00000016H
  00103	0f 85 38 01 00
	00		 jne	 $LN23@iwm_comman@2

; 740  : 		{
; 741  : 			ioGuildData *pGuildData = g_GuildInfo.GetGuildData( g_GuildInfo.GetGuildIndex() );

  00109	e8 00 00 00 00	 call	 ?GetSingleton@ioGuildInfo@@SAAAV1@XZ ; ioGuildInfo::GetSingleton
  0010e	8b 80 90 00 00
	00		 mov	 eax, DWORD PTR [eax+144]
  00114	57		 push	 edi
  00115	50		 push	 eax
  00116	e8 00 00 00 00	 call	 ?GetSingleton@ioGuildInfo@@SAAAV1@XZ ; ioGuildInfo::GetSingleton
  0011b	8b c8		 mov	 ecx, eax
  0011d	e8 00 00 00 00	 call	 ?GetGuildData@ioGuildInfo@@QAEPAVioGuildData@@K_N@Z ; ioGuildInfo::GetGuildData
  00122	8b f0		 mov	 esi, eax

; 742  : 			if( pGuildData )

  00124	3b f7		 cmp	 esi, edi
  00126	0f 84 97 00 00
	00		 je	 $LN16@iwm_comman@2

; 743  : 			{
; 744  : 				if( pGuildData->GetGuildMasterName() == g_MyInfo.GetPublicID() )

  0012c	e8 00 00 00 00	 call	 ?GetSingleton@ioMyInfo@@SAAAV1@XZ ; ioMyInfo::GetSingleton
  00131	83 c0 1c	 add	 eax, 28			; 0000001cH
  00134	50		 push	 eax
  00135	8b ce		 mov	 ecx, esi
  00137	e8 00 00 00 00	 call	 ?GetGuildMasterName@ioGuildData@@QAEABVioHashString@@XZ ; ioGuildData::GetGuildMasterName
  0013c	8b c8		 mov	 ecx, eax
  0013e	ff 15 00 00 00
	00		 call	 DWORD PTR __imp_??8ioHashString@@QBE_NABV0@@Z

; 745  : 				{
; 746  : 					GuildHQEtcItemNeedPopup* pWnd = dynamic_cast<GuildHQEtcItemNeedPopup*>( g_GUIMgr.FindWnd( GUILD_HQ_NEED_POPUP ) );

  00144	57		 push	 edi
  00145	84 c0		 test	 al, al
  00147	74 76		 je	 SHORT $LN15@iwm_comman@2
  00149	68 00 00 00 00	 push	 OFFSET ??_R0?AVGuildHQEtcItemNeedPopup@@@8
  0014e	68 00 00 00 00	 push	 OFFSET ??_R0?AVioWnd@@@8
  00153	57		 push	 edi
  00154	68 8c 18 00 00	 push	 6284			; 0000188cH
  00159	e8 00 00 00 00	 call	 ?GetSingleton@ioSP2GUIManager@@SAAAV1@XZ ; ioSP2GUIManager::GetSingleton
  0015e	8b c8		 mov	 ecx, eax
  00160	ff 15 00 00 00
	00		 call	 DWORD PTR __imp_?FindWnd@ioGUIManager@@QAEPAVioWnd@@K@Z
  00166	50		 push	 eax
  00167	e8 00 00 00 00	 call	 ___RTDynamicCast
  0016c	8b f0		 mov	 esi, eax
  0016e	83 c4 14	 add	 esp, 20			; 00000014H

; 747  : 					if( pWnd )

  00171	3b f7		 cmp	 esi, edi
  00173	0f 84 c8 00 00
	00		 je	 $LN23@iwm_comman@2

; 748  : 					{
; 749  : 						pWnd->SetType( GuildHQEtcItemNeedPopup::PUT_NEED_HQ );

  00179	57		 push	 edi
  0017a	8b ce		 mov	 ecx, esi
  0017c	e8 00 00 00 00	 call	 ?SetType@GuildHQEtcItemNeedPopup@@QAEXW4PopUpType@1@@Z ; GuildHQEtcItemNeedPopup::SetType

; 750  : 						ioUserEtcItem* pInven = g_MyInfo.GetUserEtcItem();

  00181	e8 00 00 00 00	 call	 ?GetSingleton@ioMyInfo@@SAAAV1@XZ ; ioMyInfo::GetSingleton
  00186	05 44 01 00 00	 add	 eax, 324		; 00000144H

; 751  : 						if( pInven )

  0018b	74 2b		 je	 SHORT $LN12@iwm_comman@2

; 752  : 						{
; 753  : 							ioUserEtcItem::ETCITEMSLOT Slot;
; 754  : 							if( pInven->GetEtcItem( ioEtcItem::EIT_ETC_CREATE_GUILD_HQ, Slot ) && Slot.m_iValue1 > 0 )

  0018d	8d 4d f4	 lea	 ecx, DWORD PTR _Slot$533931[ebp]
  00190	51		 push	 ecx
  00191	68 39 e4 2d 00	 push	 3007545			; 002de439H
  00196	8b c8		 mov	 ecx, eax
  00198	89 7d f4	 mov	 DWORD PTR _Slot$533931[ebp], edi
  0019b	89 7d f8	 mov	 DWORD PTR _Slot$533931[ebp+4], edi
  0019e	89 7d fc	 mov	 DWORD PTR _Slot$533931[ebp+8], edi
  001a1	e8 00 00 00 00	 call	 ?GetEtcItem@ioUserEtcItem@@QAE_NHAAUETCITEMSLOT@1@@Z ; ioUserEtcItem::GetEtcItem
  001a6	84 c0		 test	 al, al
  001a8	74 0e		 je	 SHORT $LN12@iwm_comman@2
  001aa	39 7d f8	 cmp	 DWORD PTR _Slot$533931[ebp+4], edi
  001ad	7e 09		 jle	 SHORT $LN12@iwm_comman@2

; 755  : 							{
; 756  : 								pWnd->SetType( GuildHQEtcItemNeedPopup::PUT_USE_HQ );

  001af	6a 01		 push	 1
  001b1	8b ce		 mov	 ecx, esi
  001b3	e8 00 00 00 00	 call	 ?SetType@GuildHQEtcItemNeedPopup@@QAEXW4PopUpType@1@@Z ; GuildHQEtcItemNeedPopup::SetType
$LN12@iwm_comman@2:

; 757  : 							}
; 758  : 						}
; 759  : 						pWnd->ShowWnd();

  001b8	8b ce		 mov	 ecx, esi

; 760  : 					}
; 761  : 				}
; 762  : 				else

  001ba	e9 23 ff ff ff	 jmp	 $LN41@iwm_comman@2
$LN15@iwm_comman@2:

; 763  : 					g_GUIMgr.SetMsgBox( MB_OK, NULL, STR(1) );

  001bf	6a 01		 push	 1

; 764  : 			}
; 765  : 			else

  001c1	eb 03		 jmp	 SHORT $LN40@iwm_comman@2
$LN16@iwm_comman@2:

; 766  : 			{
; 767  : 				g_GUIMgr.SetMsgBox( MB_OK, NULL, STR(2) );

  001c3	57		 push	 edi
  001c4	6a 02		 push	 2
$LN40@iwm_comman@2:
  001c6	68 00 00 00 00	 push	 OFFSET ??_C@_00CNPNBAHC@?$AA@
  001cb	68 00 00 00 00	 push	 OFFSET ??_C@_0BG@LOBMJLCD@LobbyWnd?3?3iwm_command?$AA@
  001d0	ff 15 00 00 00
	00		 call	 DWORD PTR __imp_?GetSingleton@ioStringManager@@SAAAV1@XZ
  001d6	8b c8		 mov	 ecx, eax
  001d8	ff 15 00 00 00
	00		 call	 DWORD PTR __imp_?GetString@ioStringManager@@QAEPADPBD0HW4FileNamePrefix@1@@Z
  001de	50		 push	 eax
  001df	57		 push	 edi
  001e0	57		 push	 edi
  001e1	e8 00 00 00 00	 call	 ?GetSingleton@ioSP2GUIManager@@SAAAV1@XZ ; ioSP2GUIManager::GetSingleton
  001e6	50		 push	 eax
  001e7	e8 00 00 00 00	 call	 ?SetMsgBox@ioSP2GUIManager@@QAAXHPAVioWnd@@PBDZZ ; ioSP2GUIManager::SetMsgBox
  001ec	83 c4 10	 add	 esp, 16			; 00000010H

; 768  : 			}
; 769  : 		}
; 770  : 		break;

  001ef	eb 50		 jmp	 SHORT $LN23@iwm_comman@2
$LN22@iwm_comman@2:

; 726  : 		}
; 727  : 		break;
; 728  : 	case ID_HEADQUARTER_BTN:
; 729  : 		if( cmd == IOBN_BTNUP )

  001f1	83 7d 0c 11	 cmp	 DWORD PTR _cmd$[ebp], 17 ; 00000011H
  001f5	75 4a		 jne	 SHORT $LN23@iwm_comman@2

; 730  : 		{
; 731  : 			OnCreateHeadquarters();

  001f7	8b ce		 mov	 ecx, esi
  001f9	e8 00 00 00 00	 call	 ?OnCreateHeadquarters@LobbyWnd@@IAEXXZ ; LobbyWnd::OnCreateHeadquarters

; 732  : 		}
; 733  : 		break;

  001fe	eb 41		 jmp	 SHORT $LN23@iwm_comman@2
$LN26@iwm_comman@2:

; 711  : 	{
; 712  : 	case ID_BATTLE_BTN:
; 713  : 	case ID_CAMP_BTN:
; 714  : 	case ID_PLAZA_BTN:
; 715  : 	case ID_HERO_MAIN_BTN:
; 716  : 	case ID_TRADE_BTN:
; 717  : 	case ID_TOURNAMENT_BTN:
; 718  : 		if( cmd == IOBN_BTNDOWN )

  00200	83 7d 0c 10	 cmp	 DWORD PTR _cmd$[ebp], 16 ; 00000010H
  00204	75 03		 jne	 SHORT $LN25@iwm_comman@2

; 719  : 		{
; 720  : 			ChangeRadioWnd( dwID );

  00206	50		 push	 eax
  00207	eb 31		 jmp	 SHORT $LN39@iwm_comman@2
$LN25@iwm_comman@2:

; 721  : 		}
; 722  : 		else if( cmd == IOEX_BTNDOWN )

  00209	83 7d 0c 15	 cmp	 DWORD PTR _cmd$[ebp], 21 ; 00000015H
  0020d	75 32		 jne	 SHORT $LN23@iwm_comman@2

; 723  : 		{
; 724  : 			g_GUIMgr.SetMsgBox( MB_OK, NULL, g_TournamentMgr.GetRegularDisableTournamentMent().c_str() );

  0020f	e8 00 00 00 00	 call	 ?GetSingleton@ioTournamentManager@@SAAAV1@XZ ; ioTournamentManager::GetSingleton
  00214	8b c8		 mov	 ecx, eax
  00216	e8 00 00 00 00	 call	 ?GetRegularDisableTournamentMent@ioTournamentManager@@QAEABVioHashString@@XZ ; ioTournamentManager::GetRegularDisableTournamentMent
  0021b	8b c8		 mov	 ecx, eax
  0021d	ff 15 00 00 00
	00		 call	 DWORD PTR __imp_?c_str@ioHashString@@QBEPBDXZ
  00223	50		 push	 eax
  00224	57		 push	 edi
  00225	57		 push	 edi
  00226	e8 00 00 00 00	 call	 ?GetSingleton@ioSP2GUIManager@@SAAAV1@XZ ; ioSP2GUIManager::GetSingleton
  0022b	50		 push	 eax
  0022c	e8 00 00 00 00	 call	 ?SetMsgBox@ioSP2GUIManager@@QAAXHPAVioWnd@@PBDZZ ; ioSP2GUIManager::SetMsgBox
  00231	83 c4 10	 add	 esp, 16			; 00000010H

; 725  : 			ChangeRadioWnd( m_dwTabID );

  00234	ff b6 88 01 00
	00		 push	 DWORD PTR [esi+392]
$LN39@iwm_comman@2:
  0023a	8b ce		 mov	 ecx, esi
  0023c	e8 00 00 00 00	 call	 ?ChangeRadioWnd@LobbyWnd@@IAEXK@Z ; LobbyWnd::ChangeRadioWnd
$LN23@iwm_comman@2:
  00241	5f		 pop	 edi
  00242	5e		 pop	 esi

; 792  : 	}
; 793  : }

  00243	c9		 leave
  00244	c2 0c 00	 ret	 12			; 0000000cH
?iwm_command@LobbyWnd@@UAEXPAVioWnd@@HK@Z ENDP		; LobbyWnd::iwm_command
_TEXT	ENDS
PUBLIC	?SetCampLink@LobbyWnd@@QAEXXZ			; LobbyWnd::SetCampLink
; Function compile flags: /Ogsp
;	COMDAT ?SetCampLink@LobbyWnd@@QAEXXZ
_TEXT	SEGMENT
?SetCampLink@LobbyWnd@@QAEXXZ PROC			; LobbyWnd::SetCampLink, COMDAT
; _this$ = ecx

; 1056 : 	ChangeRadioWnd( ID_CAMP_BTN );

  00000	6a 02		 push	 2
  00002	e8 00 00 00 00	 call	 ?ChangeRadioWnd@LobbyWnd@@IAEXK@Z ; LobbyWnd::ChangeRadioWnd

; 1057 : }

  00007	c3		 ret	 0
?SetCampLink@LobbyWnd@@QAEXXZ ENDP			; LobbyWnd::SetCampLink
_TEXT	ENDS
PUBLIC	?SetTournamentLink@LobbyWnd@@QAEXK@Z		; LobbyWnd::SetTournamentLink
EXTRN	?SetTournamentLink@TournamentMainWnd@@QAEXK@Z:PROC ; TournamentMainWnd::SetTournamentLink
; Function compile flags: /Ogsp
;	COMDAT ?SetTournamentLink@LobbyWnd@@QAEXK@Z
_TEXT	SEGMENT
_dwTourIndex$ = 8					; size = 4
?SetTournamentLink@LobbyWnd@@QAEXK@Z PROC		; LobbyWnd::SetTournamentLink, COMDAT
; _this$ = ecx

; 1060 : {

  00000	55		 push	 ebp
  00001	8b ec		 mov	 ebp, esp
  00003	56		 push	 esi

; 1061 : 	TournamentMainWnd *pTournamentWnd = dynamic_cast< TournamentMainWnd * >( FindChildWnd( ID_TOURNAMENT_WND ) );

  00004	6a 00		 push	 0
  00006	68 00 00 00 00	 push	 OFFSET ??_R0?AVTournamentMainWnd@@@8
  0000b	68 00 00 00 00	 push	 OFFSET ??_R0?AVioWnd@@@8
  00010	6a 00		 push	 0
  00012	6a 10		 push	 16			; 00000010H
  00014	8b f1		 mov	 esi, ecx
  00016	ff 15 00 00 00
	00		 call	 DWORD PTR __imp_?FindChildWnd@ioWnd@@QAEPAV1@K@Z
  0001c	50		 push	 eax
  0001d	e8 00 00 00 00	 call	 ___RTDynamicCast
  00022	83 c4 14	 add	 esp, 20			; 00000014H

; 1062 : 	if( pTournamentWnd )

  00025	85 c0		 test	 eax, eax
  00027	74 0a		 je	 SHORT $LN1@SetTournam

; 1063 : 	{
; 1064 : 		pTournamentWnd->SetTournamentLink( dwTourIndex );

  00029	ff 75 08	 push	 DWORD PTR _dwTourIndex$[ebp]
  0002c	8b c8		 mov	 ecx, eax
  0002e	e8 00 00 00 00	 call	 ?SetTournamentLink@TournamentMainWnd@@QAEXK@Z ; TournamentMainWnd::SetTournamentLink
$LN1@SetTournam:

; 1065 : 	}
; 1066 : 
; 1067 : 	ChangeRadioWnd( ID_TOURNAMENT_BTN );

  00033	6a 07		 push	 7
  00035	8b ce		 mov	 ecx, esi
  00037	e8 00 00 00 00	 call	 ?ChangeRadioWnd@LobbyWnd@@IAEXK@Z ; LobbyWnd::ChangeRadioWnd
  0003c	5e		 pop	 esi

; 1068 : }

  0003d	5d		 pop	 ebp
  0003e	c2 04 00	 ret	 4
?SetTournamentLink@LobbyWnd@@QAEXK@Z ENDP		; LobbyWnd::SetTournamentLink
_TEXT	ENDS
PUBLIC	??_C@_0BJ@DMAMPPNF@LobbyWnd?3?3RenderGradeExp?$AA@ ; `string'
PUBLIC	__real@3f19999a
PUBLIC	?RenderGradeExp@LobbyWnd@@IAEXHH@Z		; LobbyWnd::RenderGradeExp
EXTRN	__imp_?RenderWidthCut@ioUIRenderImage@@QAEXMMHHW4UIRenderType@@W4TextureFilterOption@@0@Z:PROC
EXTRN	?ClearList@ioComplexStringPrinter@@QAEXXZ:PROC	; ioComplexStringPrinter::ClearList
EXTRN	?PrintFullText@ioComplexStringPrinter@@QAEXMMW4TextAlignType@@E@Z:PROC ; ioComplexStringPrinter::PrintFullText
EXTRN	__imp_?GetWidth@ioUIRenderElement@@QBEHXZ:PROC
EXTRN	?AddTextPiece@ioComplexStringPrinter@@QAEXMPBDH@Z:PROC ; ioComplexStringPrinter::AddTextPiece
EXTRN	?IsGeneralGrade@ioMyInfo@@QAE_NXZ:PROC		; ioMyInfo::IsGeneralGrade
EXTRN	?AddTextPiece@ioComplexStringPrinter@@QAAXMPBDZZ:PROC ; ioComplexStringPrinter::AddTextPiece
EXTRN	?SetTextColor@ioComplexStringPrinter@@QAEXK@Z:PROC ; ioComplexStringPrinter::SetTextColor
EXTRN	?SetBkColor@ioComplexStringPrinter@@QAEXHHH@Z:PROC ; ioComplexStringPrinter::SetBkColor
EXTRN	?SetTextStyle@ioComplexStringPrinter@@QAEXW4TextStyle@@@Z:PROC ; ioComplexStringPrinter::SetTextStyle
EXTRN	?GetGradeExpRate@ioMyInfo@@QAEHXZ:PROC		; ioMyInfo::GetGradeExpRate
EXTRN	?GetGradeName@ioMyLevelMgr@@QBEXHPADH_N1@Z:PROC	; ioMyLevelMgr::GetGradeName
EXTRN	?GetSingleton@ioMyLevelMgr@@SAAAV1@XZ:PROC	; ioMyLevelMgr::GetSingleton
EXTRN	?GetGradeLevel@ioMyInfo@@QAEHXZ:PROC		; ioMyInfo::GetGradeLevel
EXTRN	__EH_epilog3_GS:PROC
EXTRN	__EH_prolog3_GS:PROC
EXTRN	_memset:PROC
;	COMDAT ??_C@_0BJ@DMAMPPNF@LobbyWnd?3?3RenderGradeExp?$AA@
; File d:\lost saga for developer\youtube\tutorial\source\src\lsclient\stdafx.h
CONST	SEGMENT
??_C@_0BJ@DMAMPPNF@LobbyWnd?3?3RenderGradeExp?$AA@ DB 'LobbyWnd::RenderGr'
	DB	'adeExp', 00H				; `string'
CONST	ENDS
;	COMDAT __real@3f19999a
CONST	SEGMENT
__real@3f19999a DD 03f19999ar			; 0.6
CONST	ENDS
;	COMDAT xdata$x
xdata$x	SEGMENT
__unwindtable$?RenderGradeExp@LobbyWnd@@IAEXHH@Z DD 0ffffffffH
	DD	FLAT:__unwindfunclet$?RenderGradeExp@LobbyWnd@@IAEXHH@Z$0
__ehfuncinfo$?RenderGradeExp@LobbyWnd@@IAEXHH@Z DD 019930522H
	DD	01H
	DD	FLAT:__unwindtable$?RenderGradeExp@LobbyWnd@@IAEXHH@Z
	DD	2 DUP(00H)
	DD	2 DUP(00H)
	DD	00H
	DD	01H
; Function compile flags: /Ogsp
; File d:\lost saga for developer\youtube\tutorial\source\src\lsclient\gui\lobbymainwnd.cpp
xdata$x	ENDS
;	COMDAT ?RenderGradeExp@LobbyWnd@@IAEXHH@Z
_TEXT	SEGMENT
_kPrinter$ = -320					; size = 32
tv213 = -288						; size = 8
tv347 = -284						; size = 4
tv342 = -284						; size = 4
tv331 = -284						; size = 4
tv323 = -284						; size = 4
tv340 = -280						; size = 4
_iGaugeWidth$ = -280					; size = 4
_iGradeExpRate$ = -280					; size = 4
_szGradeName$ = -276					; size = 260
__$EHRec$ = -12						; size = 12
_iXPos$ = 8						; size = 4
_iYPos$ = 12						; size = 4
?RenderGradeExp@LobbyWnd@@IAEXHH@Z PROC			; LobbyWnd::RenderGradeExp, COMDAT
; _this$ = ecx

; 1081 : {

  00000	68 34 01 00 00	 push	 308			; 00000134H
  00005	b8 00 00 00 00	 mov	 eax, __ehhandler$?RenderGradeExp@LobbyWnd@@IAEXHH@Z
  0000a	e8 00 00 00 00	 call	 __EH_prolog3_GS
  0000f	8b f1		 mov	 esi, ecx

; 1082 : 	if( !m_pMinorGrade )

  00011	33 db		 xor	 ebx, ebx
  00013	39 9e 78 01 00
	00		 cmp	 DWORD PTR [esi+376], ebx
  00019	0f 84 08 03 00
	00		 je	 $LN6@RenderGrad

; 1083 : 		return;
; 1084 : 	if( !m_pGaugeBack )

  0001f	39 9e 7c 01 00
	00		 cmp	 DWORD PTR [esi+380], ebx
  00025	0f 84 fc 02 00
	00		 je	 $LN6@RenderGrad

; 1085 : 		return;
; 1086 : 	if( !m_pGauge )

  0002b	39 9e 80 01 00
	00		 cmp	 DWORD PTR [esi+384], ebx
  00031	0f 84 f0 02 00
	00		 je	 $LN6@RenderGrad

; 1087 : 		return;
; 1088 : 
; 1089 : 	enum 
; 1090 : 	{
; 1091 : 		MAJOR_X_OFFSET = 66,
; 1092 : 		MAJOR_Y_OFFSET = 365,
; 1093 : 		MINOR_Y_OFFSET = 394,
; 1094 : 
; 1095 : 		TEXT_X_OFFSET  = 65,
; 1096 : 		TEXT_Y_OFFSET  = 410,
; 1097 : 
; 1098 : 		GAUGE_X_OFFSET = 17,
; 1099 : 		GAUGE_Y_OFFSET = 427,
; 1100 : 		GAUGE_BAR_OFFSET = 2,
; 1101 : 	};
; 1102 : 
; 1103 : 
; 1104 : 	// mark
; 1105 : 	int iGradeLevel = g_MyInfo.GetGradeLevel();

  00037	e8 00 00 00 00	 call	 ?GetSingleton@ioMyInfo@@SAAAV1@XZ ; ioMyInfo::GetSingleton
  0003c	8b c8		 mov	 ecx, eax
  0003e	e8 00 00 00 00	 call	 ?GetGradeLevel@ioMyInfo@@QAEHXZ ; ioMyInfo::GetGradeLevel

; 1106 : 	/*
; 1107 : 	if( iGradeLevel != m_iPrevGradeLevel )
; 1108 : 	{
; 1109 : 		m_iPrevGradeLevel = iGradeLevel;
; 1110 : 		SAFEDELETE( m_pMajorMark );
; 1111 : 		m_pMajorMark = g_LevelMgr.GetGradeBigIcon( iGradeLevel);
; 1112 : 	}
; 1113 : 	if( m_pMajorMark )
; 1114 : 	{
; 1115 : 		m_pMajorMark->SetScale( FLOAT08 );
; 1116 : 		m_pMajorMark->Render( iXPos + MAJOR_X_OFFSET, iYPos + MAJOR_Y_OFFSET, UI_RENDER_NORMAL, TFO_BILINEAR );
; 1117 : 	}
; 1118 : 
; 1119 : 	m_pMinorGrade->SetScale( FLOAT08 );
; 1120 : 	// 하사 ~ 대령
; 1121 : 	if( COMPARE( iGradeLevel, 5, 49 ) )
; 1122 : 	{
; 1123 : 		int iMinorGrade = iGradeLevel % 5;
; 1124 : 		if( iMinorGrade == 0 )
; 1125 : 			m_pMinorGrade->Render( iXPos + 63, iYPos + MINOR_Y_OFFSET, UI_RENDER_NORMAL, TFO_BILINEAR );
; 1126 : 		else if( iMinorGrade == 1 )
; 1127 : 		{
; 1128 : 			m_pMinorGrade->Render( iXPos + 59, iYPos + MINOR_Y_OFFSET, UI_RENDER_NORMAL, TFO_BILINEAR );
; 1129 : 			m_pMinorGrade->Render( iXPos + 67, iYPos + MINOR_Y_OFFSET, UI_RENDER_NORMAL, TFO_BILINEAR );
; 1130 : 		}
; 1131 : 		else if( iMinorGrade == 2 )
; 1132 : 		{	
; 1133 : 			m_pMinorGrade->Render( iXPos + 55, iYPos + MINOR_Y_OFFSET, UI_RENDER_NORMAL, TFO_BILINEAR );
; 1134 : 			m_pMinorGrade->Render( iXPos + 63, iYPos + MINOR_Y_OFFSET, UI_RENDER_NORMAL, TFO_BILINEAR );
; 1135 : 			m_pMinorGrade->Render( iXPos + 71, iYPos + MINOR_Y_OFFSET, UI_RENDER_NORMAL, TFO_BILINEAR );
; 1136 : 		}
; 1137 : 		else if( iMinorGrade == 3 )
; 1138 : 		{
; 1139 : 			m_pMinorGrade->Render( iXPos + 51, iYPos + MINOR_Y_OFFSET, UI_RENDER_NORMAL, TFO_BILINEAR );
; 1140 : 			m_pMinorGrade->Render( iXPos + 59, iYPos + MINOR_Y_OFFSET, UI_RENDER_NORMAL, TFO_BILINEAR );
; 1141 : 			m_pMinorGrade->Render( iXPos + 67, iYPos + MINOR_Y_OFFSET, UI_RENDER_NORMAL, TFO_BILINEAR );
; 1142 : 			m_pMinorGrade->Render( iXPos + 75, iYPos + MINOR_Y_OFFSET, UI_RENDER_NORMAL, TFO_BILINEAR );
; 1143 : 		}
; 1144 : 		else if( iMinorGrade == 4 )
; 1145 : 		{
; 1146 : 			m_pMinorGrade->Render( iXPos + 47, iYPos + MINOR_Y_OFFSET, UI_RENDER_NORMAL, TFO_BILINEAR );
; 1147 : 			m_pMinorGrade->Render( iXPos + 55, iYPos + MINOR_Y_OFFSET, UI_RENDER_NORMAL, TFO_BILINEAR );
; 1148 : 			m_pMinorGrade->Render( iXPos + 63, iYPos + MINOR_Y_OFFSET, UI_RENDER_NORMAL, TFO_BILINEAR );
; 1149 : 			m_pMinorGrade->Render( iXPos + 71, iYPos + MINOR_Y_OFFSET, UI_RENDER_NORMAL, TFO_BILINEAR );
; 1150 : 			m_pMinorGrade->Render( iXPos + 79, iYPos + MINOR_Y_OFFSET, UI_RENDER_NORMAL, TFO_BILINEAR );
; 1151 : 		}
; 1152 : 	}
; 1153 : 	*/
; 1154 : 
; 1155 : 	// text
; 1156 : 	char szGradeName[MAX_PATH] = "";

  00043	68 03 01 00 00	 push	 259			; 00000103H
  00048	8b f8		 mov	 edi, eax
  0004a	8d 85 ed fe ff
	ff		 lea	 eax, DWORD PTR _szGradeName$[ebp+1]
  00050	53		 push	 ebx
  00051	50		 push	 eax
  00052	88 9d ec fe ff
	ff		 mov	 BYTE PTR _szGradeName$[ebp], bl
  00058	e8 00 00 00 00	 call	 _memset
  0005d	83 c4 0c	 add	 esp, 12			; 0000000cH

; 1157 : 	g_LevelMgr.GetGradeName( iGradeLevel, szGradeName, sizeof( szGradeName ), false, true );

  00060	6a 01		 push	 1
  00062	53		 push	 ebx
  00063	68 04 01 00 00	 push	 260			; 00000104H
  00068	8d 85 ec fe ff
	ff		 lea	 eax, DWORD PTR _szGradeName$[ebp]
  0006e	50		 push	 eax
  0006f	57		 push	 edi
  00070	e8 00 00 00 00	 call	 ?GetSingleton@ioMyLevelMgr@@SAAAV1@XZ ; ioMyLevelMgr::GetSingleton
  00075	8b c8		 mov	 ecx, eax
  00077	e8 00 00 00 00	 call	 ?GetGradeName@ioMyLevelMgr@@QBEXHPADH_N1@Z ; ioMyLevelMgr::GetGradeName

; 1158 : 	int iGradeExpRate = g_MyInfo.GetGradeExpRate();

  0007c	e8 00 00 00 00	 call	 ?GetSingleton@ioMyInfo@@SAAAV1@XZ ; ioMyInfo::GetSingleton
  00081	8b c8		 mov	 ecx, eax
  00083	e8 00 00 00 00	 call	 ?GetGradeExpRate@ioMyInfo@@QAEHXZ ; ioMyInfo::GetGradeExpRate

; 1159 : 
; 1160 : 	ioComplexStringPrinter kPrinter;

  00088	8d 8d c0 fe ff
	ff		 lea	 ecx, DWORD PTR _kPrinter$[ebp]
  0008e	89 85 e8 fe ff
	ff		 mov	 DWORD PTR _iGradeExpRate$[ebp], eax
  00094	e8 00 00 00 00	 call	 ??0ioComplexStringPrinter@@QAE@XZ ; ioComplexStringPrinter::ioComplexStringPrinter

; 1161 : 	kPrinter.SetTextStyle( TS_NORMAL );

  00099	53		 push	 ebx
  0009a	8d 8d c0 fe ff
	ff		 lea	 ecx, DWORD PTR _kPrinter$[ebp]
  000a0	89 5d fc	 mov	 DWORD PTR __$EHRec$[ebp+8], ebx
  000a3	e8 00 00 00 00	 call	 ?SetTextStyle@ioComplexStringPrinter@@QAEXW4TextStyle@@@Z ; ioComplexStringPrinter::SetTextStyle

; 1162 : 	kPrinter.SetBkColor( 0, 0, 0 );

  000a8	53		 push	 ebx
  000a9	53		 push	 ebx
  000aa	53		 push	 ebx
  000ab	8d 8d c0 fe ff
	ff		 lea	 ecx, DWORD PTR _kPrinter$[ebp]
  000b1	e8 00 00 00 00	 call	 ?SetBkColor@ioComplexStringPrinter@@QAEXHHH@Z ; ioComplexStringPrinter::SetBkColor

; 1163 : 	kPrinter.SetTextColor( TCT_DEFAULT_DARKGRAY );		

  000b6	68 3a 3a 3a ff	 push	 -12961222		; ff3a3a3aH
  000bb	8d 8d c0 fe ff
	ff		 lea	 ecx, DWORD PTR _kPrinter$[ebp]
  000c1	e8 00 00 00 00	 call	 ?SetTextColor@ioComplexStringPrinter@@QAEXK@Z ; ioComplexStringPrinter::SetTextColor

; 1164 : 	kPrinter.AddTextPiece( FONT_SIZE_12, szGradeName );

  000c6	f3 0f 10 05 00
	00 00 00	 movss	 xmm0, DWORD PTR __real@3f19999a
  000ce	8d 85 ec fe ff
	ff		 lea	 eax, DWORD PTR _szGradeName$[ebp]
  000d4	50		 push	 eax
  000d5	51		 push	 ecx
  000d6	8d 85 c0 fe ff
	ff		 lea	 eax, DWORD PTR _kPrinter$[ebp]
  000dc	f3 0f 11 04 24	 movss	 DWORD PTR [esp], xmm0
  000e1	50		 push	 eax
  000e2	e8 00 00 00 00	 call	 ?AddTextPiece@ioComplexStringPrinter@@QAAXMPBDZZ ; ioComplexStringPrinter::AddTextPiece
  000e7	83 c4 0c	 add	 esp, 12			; 0000000cH

; 1165 : 	kPrinter.SetTextColor( TCT_DEFAULT_GRAY );		

  000ea	68 6e 6e 6e ff	 push	 -9539986		; ff6e6e6eH
  000ef	8d 8d c0 fe ff
	ff		 lea	 ecx, DWORD PTR _kPrinter$[ebp]
  000f5	e8 00 00 00 00	 call	 ?SetTextColor@ioComplexStringPrinter@@QAEXK@Z ; ioComplexStringPrinter::SetTextColor

; 1166 : 
; 1167 : 	int iGaugeWidth = 0;
; 1168 : 	if( g_MyInfo.IsGeneralGrade() )

  000fa	e8 00 00 00 00	 call	 ?GetSingleton@ioMyInfo@@SAAAV1@XZ ; ioMyInfo::GetSingleton
  000ff	8b c8		 mov	 ecx, eax
  00101	e8 00 00 00 00	 call	 ?IsGeneralGrade@ioMyInfo@@QAE_NXZ ; ioMyInfo::IsGeneralGrade
  00106	84 c0		 test	 al, al
  00108	74 4e		 je	 SHORT $LN2@RenderGrad

; 1169 : 	{
; 1170 : 		kPrinter.AddTextPiece( FONT_SIZE_12, STR(2), g_MyInfo.GetUserRanking() );

  0010a	e8 00 00 00 00	 call	 ?GetSingleton@ioMyInfo@@SAAAV1@XZ ; ioMyInfo::GetSingleton
  0010f	ff 70 58	 push	 DWORD PTR [eax+88]
  00112	53		 push	 ebx
  00113	6a 02		 push	 2
  00115	68 00 00 00 00	 push	 OFFSET ??_C@_00CNPNBAHC@?$AA@
  0011a	68 00 00 00 00	 push	 OFFSET ??_C@_0BJ@DMAMPPNF@LobbyWnd?3?3RenderGradeExp?$AA@
  0011f	ff 15 00 00 00
	00		 call	 DWORD PTR __imp_?GetSingleton@ioStringManager@@SAAAV1@XZ
  00125	8b c8		 mov	 ecx, eax
  00127	ff 15 00 00 00
	00		 call	 DWORD PTR __imp_?GetString@ioStringManager@@QAEPADPBD0HW4FileNamePrefix@1@@Z
  0012d	f3 0f 10 05 00
	00 00 00	 movss	 xmm0, DWORD PTR __real@3f19999a
  00135	50		 push	 eax
  00136	51		 push	 ecx
  00137	8d 8d c0 fe ff
	ff		 lea	 ecx, DWORD PTR _kPrinter$[ebp]
  0013d	f3 0f 11 04 24	 movss	 DWORD PTR [esp], xmm0
  00142	e8 00 00 00 00	 call	 ?AddTextPiece@ioComplexStringPrinter@@QAEXMPBDH@Z ; ioComplexStringPrinter::AddTextPiece

; 1171 : 		iGaugeWidth = m_pGauge->GetWidth();

  00147	8b 8e 80 01 00
	00		 mov	 ecx, DWORD PTR [esi+384]
  0014d	ff 15 00 00 00
	00		 call	 DWORD PTR __imp_?GetWidth@ioUIRenderElement@@QBEHXZ

; 1172 : 	}
; 1173 : 	else

  00153	e9 01 01 00 00	 jmp	 $LN26@RenderGrad
$LN2@RenderGrad:

; 1174 : 	{
; 1175 : 		kPrinter.AddTextPiece( FONT_SIZE_12, STR(1), iGradeExpRate );

  00158	ff b5 e8 fe ff
	ff		 push	 DWORD PTR _iGradeExpRate$[ebp]
  0015e	53		 push	 ebx
  0015f	6a 01		 push	 1
  00161	68 00 00 00 00	 push	 OFFSET ??_C@_00CNPNBAHC@?$AA@
  00166	68 00 00 00 00	 push	 OFFSET ??_C@_0BJ@DMAMPPNF@LobbyWnd?3?3RenderGradeExp?$AA@
  0016b	ff 15 00 00 00
	00		 call	 DWORD PTR __imp_?GetSingleton@ioStringManager@@SAAAV1@XZ
  00171	8b c8		 mov	 ecx, eax
  00173	ff 15 00 00 00
	00		 call	 DWORD PTR __imp_?GetString@ioStringManager@@QAEPADPBD0HW4FileNamePrefix@1@@Z
  00179	f3 0f 10 05 00
	00 00 00	 movss	 xmm0, DWORD PTR __real@3f19999a
  00181	50		 push	 eax
  00182	51		 push	 ecx
  00183	8d 8d c0 fe ff
	ff		 lea	 ecx, DWORD PTR _kPrinter$[ebp]
  00189	f3 0f 11 04 24	 movss	 DWORD PTR [esp], xmm0
  0018e	e8 00 00 00 00	 call	 ?AddTextPiece@ioComplexStringPrinter@@QAEXMPBDH@Z ; ioComplexStringPrinter::AddTextPiece

; 1176 : 		iGaugeWidth = m_pGauge->GetWidth() * (float)min( FLOAT1, ( (float)iGradeExpRate / FLOAT100 ) );

  00193	b8 01 00 00 00	 mov	 eax, 1
  00198	8b c8		 mov	 ecx, eax
  0019a	b8 64 00 00 00	 mov	 eax, 100		; 00000064H
  0019f	db 85 e8 fe ff
	ff		 fild	 DWORD PTR _iGradeExpRate$[ebp]
  001a5	89 8d e4 fe ff
	ff		 mov	 DWORD PTR tv347[ebp], ecx
  001ab	d9 9d e8 fe ff
	ff		 fstp	 DWORD PTR tv340[ebp]
  001b1	db 85 e4 fe ff
	ff		 fild	 DWORD PTR tv347[ebp]
  001b7	85 c9		 test	 ecx, ecx
  001b9	79 06		 jns	 SHORT $LN22@RenderGrad
  001bb	d8 05 00 00 00
	00		 fadd	 DWORD PTR __real@4f800000
$LN22@RenderGrad:
  001c1	d9 85 e8 fe ff
	ff		 fld	 DWORD PTR tv340[ebp]
  001c7	89 85 e4 fe ff
	ff		 mov	 DWORD PTR tv342[ebp], eax
  001cd	db 85 e4 fe ff
	ff		 fild	 DWORD PTR tv342[ebp]
  001d3	85 c0		 test	 eax, eax
  001d5	79 06		 jns	 SHORT $LN23@RenderGrad
  001d7	d8 05 00 00 00
	00		 fadd	 DWORD PTR __real@4f800000
$LN23@RenderGrad:
  001dd	de f9		 fdivp	 ST(1), ST(0)
  001df	df f1		 fcomip	 ST(1)
  001e1	dd d8		 fstp	 ST(0)
  001e3	76 1d		 jbe	 SHORT $LN8@RenderGrad
  001e5	b8 01 00 00 00	 mov	 eax, 1
  001ea	89 85 e4 fe ff
	ff		 mov	 DWORD PTR tv331[ebp], eax
  001f0	db 85 e4 fe ff
	ff		 fild	 DWORD PTR tv331[ebp]
  001f6	85 c0		 test	 eax, eax
  001f8	79 2b		 jns	 SHORT $LN24@RenderGrad
  001fa	d8 05 00 00 00
	00		 fadd	 DWORD PTR __real@4f800000
  00200	eb 23		 jmp	 SHORT $LN24@RenderGrad
$LN8@RenderGrad:
  00202	b8 64 00 00 00	 mov	 eax, 100		; 00000064H
  00207	d9 85 e8 fe ff
	ff		 fld	 DWORD PTR tv340[ebp]
  0020d	89 85 e4 fe ff
	ff		 mov	 DWORD PTR tv323[ebp], eax
  00213	db 85 e4 fe ff
	ff		 fild	 DWORD PTR tv323[ebp]
  00219	85 c0		 test	 eax, eax
  0021b	79 06		 jns	 SHORT $LN25@RenderGrad
  0021d	d8 05 00 00 00
	00		 fadd	 DWORD PTR __real@4f800000
$LN25@RenderGrad:
  00223	de f9		 fdivp	 ST(1), ST(0)
$LN24@RenderGrad:
  00225	8b 8e 80 01 00
	00		 mov	 ecx, DWORD PTR [esi+384]
  0022b	dd 9d e0 fe ff
	ff		 fstp	 QWORD PTR tv213[ebp]
  00231	ff 15 00 00 00
	00		 call	 DWORD PTR __imp_?GetWidth@ioUIRenderElement@@QBEHXZ
  00237	f2 0f 10 8d e0
	fe ff ff	 movsd	 xmm1, QWORD PTR tv213[ebp]
  0023f	0f 57 c0	 xorps	 xmm0, xmm0
  00242	f3 0f 2a c0	 cvtsi2ss xmm0, eax
  00246	66 0f 5a c9	 cvtpd2ps xmm1, xmm1
  0024a	0f 5a c0	 cvtps2pd xmm0, xmm0
  0024d	f3 0f 5a c9	 cvtss2sd xmm1, xmm1
  00251	f2 0f 59 c1	 mulsd	 xmm0, xmm1
  00255	f2 0f 2c c0	 cvttsd2si eax, xmm0
$LN26@RenderGrad:

; 1177 : 	}
; 1178 : 	kPrinter.PrintFullText( iXPos + TEXT_X_OFFSET, iYPos + TEXT_Y_OFFSET, TAT_CENTER );

  00259	8b 7d 0c	 mov	 edi, DWORD PTR _iYPos$[ebp]
  0025c	68 ff 00 00 00	 push	 255			; 000000ffH
  00261	89 85 e8 fe ff
	ff		 mov	 DWORD PTR _iGaugeWidth$[ebp], eax
  00267	6a 01		 push	 1
  00269	0f 57 c0	 xorps	 xmm0, xmm0
  0026c	8d 87 9a 01 00
	00		 lea	 eax, DWORD PTR [edi+410]
  00272	f3 0f 2a c0	 cvtsi2ss xmm0, eax
  00276	8b 45 08	 mov	 eax, DWORD PTR _iXPos$[ebp]
  00279	51		 push	 ecx
  0027a	51		 push	 ecx
  0027b	f3 0f 11 44 24
	04		 movss	 DWORD PTR [esp+4], xmm0
  00281	83 c0 41	 add	 eax, 65			; 00000041H
  00284	0f 57 c0	 xorps	 xmm0, xmm0
  00287	f3 0f 2a c0	 cvtsi2ss xmm0, eax
  0028b	8d 8d c0 fe ff
	ff		 lea	 ecx, DWORD PTR _kPrinter$[ebp]
  00291	f3 0f 11 04 24	 movss	 DWORD PTR [esp], xmm0
  00296	e8 00 00 00 00	 call	 ?PrintFullText@ioComplexStringPrinter@@QAEXMMW4TextAlignType@@E@Z ; ioComplexStringPrinter::PrintFullText

; 1179 : 	kPrinter.ClearList();

  0029b	8d 8d c0 fe ff
	ff		 lea	 ecx, DWORD PTR _kPrinter$[ebp]
  002a1	e8 00 00 00 00	 call	 ?ClearList@ioComplexStringPrinter@@QAEXXZ ; ioComplexStringPrinter::ClearList

; 1180 : 
; 1181 : 	// gauge
; 1182 : 	m_pGaugeBack->Render( iXPos + GAUGE_X_OFFSET, iYPos + GAUGE_Y_OFFSET );

  002a6	8b 8e 7c 01 00
	00		 mov	 ecx, DWORD PTR [esi+380]
  002ac	8b 01		 mov	 eax, DWORD PTR [ecx]
  002ae	53		 push	 ebx
  002af	53		 push	 ebx
  002b0	53		 push	 ebx
  002b1	53		 push	 ebx
  002b2	0f 57 c0	 xorps	 xmm0, xmm0
  002b5	8d 97 ab 01 00
	00		 lea	 edx, DWORD PTR [edi+427]
  002bb	f3 0f 2a c2	 cvtsi2ss xmm0, edx
  002bf	8b 55 08	 mov	 edx, DWORD PTR _iXPos$[ebp]
  002c2	51		 push	 ecx
  002c3	51		 push	 ecx
  002c4	f3 0f 11 44 24
	04		 movss	 DWORD PTR [esp+4], xmm0
  002ca	83 c2 11	 add	 edx, 17			; 00000011H
  002cd	0f 57 c0	 xorps	 xmm0, xmm0
  002d0	f3 0f 2a c2	 cvtsi2ss xmm0, edx
  002d4	f3 0f 11 04 24	 movss	 DWORD PTR [esp], xmm0
  002d9	ff 10		 call	 DWORD PTR [eax]

; 1183 : 	m_pGauge->RenderWidthCut( iXPos + GAUGE_X_OFFSET + GAUGE_BAR_OFFSET, iYPos + GAUGE_Y_OFFSET + GAUGE_BAR_OFFSET, 0, iGaugeWidth );

  002db	8b 45 08	 mov	 eax, DWORD PTR _iXPos$[ebp]
  002de	53		 push	 ebx
  002df	53		 push	 ebx
  002e0	53		 push	 ebx
  002e1	ff b5 e8 fe ff
	ff		 push	 DWORD PTR _iGaugeWidth$[ebp]
  002e7	0f 57 c0	 xorps	 xmm0, xmm0
  002ea	53		 push	 ebx
  002eb	51		 push	 ecx
  002ec	51		 push	 ecx
  002ed	8b 8e 80 01 00
	00		 mov	 ecx, DWORD PTR [esi+384]
  002f3	81 c7 ad 01 00
	00		 add	 edi, 429		; 000001adH
  002f9	f3 0f 2a c7	 cvtsi2ss xmm0, edi
  002fd	f3 0f 11 44 24
	04		 movss	 DWORD PTR [esp+4], xmm0
  00303	83 c0 13	 add	 eax, 19			; 00000013H
  00306	0f 57 c0	 xorps	 xmm0, xmm0
  00309	f3 0f 2a c0	 cvtsi2ss xmm0, eax
  0030d	f3 0f 11 04 24	 movss	 DWORD PTR [esp], xmm0
  00312	ff 15 00 00 00
	00		 call	 DWORD PTR __imp_?RenderWidthCut@ioUIRenderImage@@QAEXMMHHW4UIRenderType@@W4TextureFilterOption@@0@Z

; 1184 : }

  00318	83 4d fc ff	 or	 DWORD PTR __$EHRec$[ebp+8], -1
  0031c	8d 8d c0 fe ff
	ff		 lea	 ecx, DWORD PTR _kPrinter$[ebp]
  00322	e8 00 00 00 00	 call	 ??1ioComplexStringPrinter@@QAE@XZ ; ioComplexStringPrinter::~ioComplexStringPrinter
$LN6@RenderGrad:
  00327	e8 00 00 00 00	 call	 __EH_epilog3_GS
  0032c	c2 08 00	 ret	 8
_TEXT	ENDS
;	COMDAT text$x
text$x	SEGMENT
__unwindfunclet$?RenderGradeExp@LobbyWnd@@IAEXHH@Z$0:
  00000	8d 8d c0 fe ff
	ff		 lea	 ecx, DWORD PTR _kPrinter$[ebp]
  00006	e9 00 00 00 00	 jmp	 ??1ioComplexStringPrinter@@QAE@XZ ; ioComplexStringPrinter::~ioComplexStringPrinter
__ehhandler$?RenderGradeExp@LobbyWnd@@IAEXHH@Z:
  0000b	8b 54 24 08	 mov	 edx, DWORD PTR [esp+8]
  0000f	8d 42 0c	 lea	 eax, DWORD PTR [edx+12]
  00012	8b 8a bc fe ff
	ff		 mov	 ecx, DWORD PTR [edx-324]
  00018	33 c8		 xor	 ecx, eax
  0001a	e8 00 00 00 00	 call	 @__security_check_cookie@4
  0001f	8b 4a fc	 mov	 ecx, DWORD PTR [edx-4]
  00022	33 c8		 xor	 ecx, eax
  00024	e8 00 00 00 00	 call	 @__security_check_cookie@4
  00029	b8 00 00 00 00	 mov	 eax, OFFSET __ehfuncinfo$?RenderGradeExp@LobbyWnd@@IAEXHH@Z
  0002e	e9 00 00 00 00	 jmp	 ___CxxFrameHandler3
text$x	ENDS
?RenderGradeExp@LobbyWnd@@IAEXHH@Z ENDP			; LobbyWnd::RenderGradeExp
PUBLIC	?CheckBonusCash@LobbyWnd@@IAEXXZ		; LobbyWnd::CheckBonusCash
EXTRN	?SetToolTipCursor@ioLSMouse@@QAEXXZ:PROC	; ioLSMouse::SetToolTipCursor
EXTRN	__imp_?IsOver@ioWnd@@QBE_NXZ:PROC
EXTRN	__imp_?HideWnd@ioWnd@@QAEXXZ:PROC
EXTRN	?GetBonusCash@ioMyInfo@@QBEHXZ:PROC		; ioMyInfo::GetBonusCash
; Function compile flags: /Ogsp
;	COMDAT ?CheckBonusCash@LobbyWnd@@IAEXXZ
_TEXT	SEGMENT
?CheckBonusCash@LobbyWnd@@IAEXXZ PROC			; LobbyWnd::CheckBonusCash, COMDAT
; _this$ = ecx

; 1229 : {

  00000	56		 push	 esi

; 1230 : 	ioButton* pBonusCashBtn = dynamic_cast<ioButton*>(FindChildWnd( ID_BONUS_CASH_BTN ));

  00001	6a 00		 push	 0
  00003	68 00 00 00 00	 push	 OFFSET ??_R0?AVioButton@@@8
  00008	68 00 00 00 00	 push	 OFFSET ??_R0?AVioWnd@@@8
  0000d	6a 00		 push	 0
  0000f	6a 11		 push	 17			; 00000011H
  00011	ff 15 00 00 00
	00		 call	 DWORD PTR __imp_?FindChildWnd@ioWnd@@QAEPAV1@K@Z
  00017	50		 push	 eax
  00018	e8 00 00 00 00	 call	 ___RTDynamicCast
  0001d	8b f0		 mov	 esi, eax
  0001f	83 c4 14	 add	 esp, 20			; 00000014H

; 1231 : 	if ( !pBonusCashBtn )

  00022	85 f6		 test	 esi, esi
  00024	74 4b		 je	 SHORT $LN1@CheckBonus

; 1232 : 		return;
; 1233 : 
; 1234 : 	int iBonusCash = g_MyInfo.GetBonusCash();

  00026	e8 00 00 00 00	 call	 ?GetSingleton@ioMyInfo@@SAAAV1@XZ ; ioMyInfo::GetSingleton
  0002b	8b c8		 mov	 ecx, eax
  0002d	e8 00 00 00 00	 call	 ?GetBonusCash@ioMyInfo@@QBEHXZ ; ioMyInfo::GetBonusCash

; 1235 : 	if ( iBonusCash <=0 )
; 1236 : 	{
; 1237 : 		pBonusCashBtn->HideWnd();

  00032	8b ce		 mov	 ecx, esi
  00034	85 c0		 test	 eax, eax
  00036	7f 07		 jg	 SHORT $LN4@CheckBonus
  00038	5e		 pop	 esi
  00039	ff 25 00 00 00
	00		 jmp	 DWORD PTR __imp_?HideWnd@ioWnd@@QAEXXZ
$LN4@CheckBonus:

; 1238 : 		return;
; 1239 : 	}
; 1240 : 	else
; 1241 : 	{
; 1242 : 		pBonusCashBtn->ShowWnd();

  0003f	ff 15 00 00 00
	00		 call	 DWORD PTR __imp_?ShowWnd@ioWnd@@QAEXXZ

; 1243 : 	}
; 1244 : 
; 1245 : 	if ( pBonusCashBtn->IsShow() && pBonusCashBtn->IsOver() )

  00045	8b ce		 mov	 ecx, esi
  00047	ff 15 00 00 00
	00		 call	 DWORD PTR __imp_?IsShow@ioWnd@@QBE_NXZ
  0004d	84 c0		 test	 al, al
  0004f	74 20		 je	 SHORT $LN1@CheckBonus
  00051	8b ce		 mov	 ecx, esi
  00053	ff 15 00 00 00
	00		 call	 DWORD PTR __imp_?IsOver@ioWnd@@QBE_NXZ
  00059	84 c0		 test	 al, al
  0005b	74 14		 je	 SHORT $LN1@CheckBonus

; 1246 : 	{
; 1247 : 		ioLSMouse *pMouse = g_App.GetMouse();

  0005d	e8 00 00 00 00	 call	 ?GetSingleton@ioApplication@@SAAAV1@XZ ; ioApplication::GetSingleton
  00062	05 90 00 00 00	 add	 eax, 144		; 00000090H

; 1248 : 		if ( pMouse )

  00067	74 08		 je	 SHORT $LN1@CheckBonus

; 1249 : 			pMouse->SetToolTipCursor();

  00069	8b c8		 mov	 ecx, eax
  0006b	5e		 pop	 esi
  0006c	e9 00 00 00 00	 jmp	 ?SetToolTipCursor@ioLSMouse@@QAEXXZ ; ioLSMouse::SetToolTipCursor
$LN1@CheckBonus:
  00071	5e		 pop	 esi

; 1250 : 	}
; 1251 : }

  00072	c3		 ret	 0
?CheckBonusCash@LobbyWnd@@IAEXXZ ENDP			; LobbyWnd::CheckBonusCash
; Function compile flags: /Ogsp
_TEXT	ENDS
;	COMDAT ??_GLobbyChatWnd@@UAEPAXI@Z
_TEXT	SEGMENT
___flags$ = 8						; size = 4
??_GLobbyChatWnd@@UAEPAXI@Z PROC			; LobbyChatWnd::`scalar deleting destructor', COMDAT
; _this$ = ecx
  00000	55		 push	 ebp
  00001	8b ec		 mov	 ebp, esp
  00003	56		 push	 esi
  00004	8b f1		 mov	 esi, ecx
  00006	e8 00 00 00 00	 call	 ??1LobbyChatWnd@@UAE@XZ	; LobbyChatWnd::~LobbyChatWnd
  0000b	f6 45 08 01	 test	 BYTE PTR ___flags$[ebp], 1
  0000f	74 07		 je	 SHORT $LN1@scalar@4
  00011	56		 push	 esi
  00012	e8 00 00 00 00	 call	 ??3@YAXPAX@Z		; operator delete
  00017	59		 pop	 ecx
$LN1@scalar@4:
  00018	8b c6		 mov	 eax, esi
  0001a	5e		 pop	 esi
  0001b	5d		 pop	 ebp
  0001c	c2 04 00	 ret	 4
??_GLobbyChatWnd@@UAEPAXI@Z ENDP			; LobbyChatWnd::`scalar deleting destructor'
; Function compile flags: /Ogsp
_TEXT	ENDS
;	COMDAT ??_GLobbyMainWnd@@UAEPAXI@Z
_TEXT	SEGMENT
___flags$ = 8						; size = 4
??_GLobbyMainWnd@@UAEPAXI@Z PROC			; LobbyMainWnd::`scalar deleting destructor', COMDAT
; _this$ = ecx
  00000	55		 push	 ebp
  00001	8b ec		 mov	 ebp, esp
  00003	56		 push	 esi
  00004	8b f1		 mov	 esi, ecx
  00006	e8 00 00 00 00	 call	 ??1LobbyMainWnd@@UAE@XZ	; LobbyMainWnd::~LobbyMainWnd
  0000b	f6 45 08 01	 test	 BYTE PTR ___flags$[ebp], 1
  0000f	74 07		 je	 SHORT $LN1@scalar@5
  00011	56		 push	 esi
  00012	e8 00 00 00 00	 call	 ??3@YAXPAX@Z		; operator delete
  00017	59		 pop	 ecx
$LN1@scalar@5:
  00018	8b c6		 mov	 eax, esi
  0001a	5e		 pop	 esi
  0001b	5d		 pop	 ebp
  0001c	c2 04 00	 ret	 4
??_GLobbyMainWnd@@UAEPAXI@Z ENDP			; LobbyMainWnd::`scalar deleting destructor'
_TEXT	ENDS
PUBLIC	?RefreshTab@LobbyMainWnd@@QAEXXZ		; LobbyMainWnd::RefreshTab
; Function compile flags: /Ogsp
;	COMDAT ?RefreshTab@LobbyMainWnd@@QAEXXZ
_TEXT	SEGMENT
?RefreshTab@LobbyMainWnd@@QAEXXZ PROC			; LobbyMainWnd::RefreshTab, COMDAT
; _this$ = ecx

; 1605 : 	LobbyWnd *pLobbyWnd = dynamic_cast<LobbyWnd*>( FindChildWnd(ID_LOBBY_WND) );

  00000	6a 00		 push	 0
  00002	68 00 00 00 00	 push	 OFFSET ??_R0?AVLobbyWnd@@@8
  00007	68 00 00 00 00	 push	 OFFSET ??_R0?AVioWnd@@@8
  0000c	6a 00		 push	 0
  0000e	6a 01		 push	 1
  00010	ff 15 00 00 00
	00		 call	 DWORD PTR __imp_?FindChildWnd@ioWnd@@QAEPAV1@K@Z
  00016	50		 push	 eax
  00017	e8 00 00 00 00	 call	 ___RTDynamicCast
  0001c	83 c4 14	 add	 esp, 20			; 00000014H

; 1606 : 	if( pLobbyWnd )

  0001f	85 c0		 test	 eax, eax
  00021	74 0d		 je	 SHORT $LN4@RefreshTab

; 1607 : 	{
; 1608 : 		pLobbyWnd->RefreshTab();

  00023	ff b0 88 01 00
	00		 push	 DWORD PTR [eax+392]
  00029	8b c8		 mov	 ecx, eax
  0002b	e8 00 00 00 00	 call	 ?ChangeRadioWnd@LobbyWnd@@IAEXK@Z ; LobbyWnd::ChangeRadioWnd
$LN4@RefreshTab:

; 1609 : 	}
; 1610 : }

  00030	c3		 ret	 0
?RefreshTab@LobbyMainWnd@@QAEXXZ ENDP			; LobbyMainWnd::RefreshTab
_TEXT	ENDS
PUBLIC	?SetCampLink@LobbyMainWnd@@QAEXXZ		; LobbyMainWnd::SetCampLink
; Function compile flags: /Ogsp
;	COMDAT ?SetCampLink@LobbyMainWnd@@QAEXXZ
_TEXT	SEGMENT
?SetCampLink@LobbyMainWnd@@QAEXXZ PROC			; LobbyMainWnd::SetCampLink, COMDAT
; _this$ = ecx

; 1614 : 	LobbyWnd *pLobbyWnd = dynamic_cast<LobbyWnd*>( FindChildWnd(ID_LOBBY_WND) );

  00000	6a 00		 push	 0
  00002	68 00 00 00 00	 push	 OFFSET ??_R0?AVLobbyWnd@@@8
  00007	68 00 00 00 00	 push	 OFFSET ??_R0?AVioWnd@@@8
  0000c	6a 00		 push	 0
  0000e	6a 01		 push	 1
  00010	ff 15 00 00 00
	00		 call	 DWORD PTR __imp_?FindChildWnd@ioWnd@@QAEPAV1@K@Z
  00016	50		 push	 eax
  00017	e8 00 00 00 00	 call	 ___RTDynamicCast
  0001c	83 c4 14	 add	 esp, 20			; 00000014H

; 1615 : 	if( pLobbyWnd )

  0001f	85 c0		 test	 eax, eax
  00021	74 09		 je	 SHORT $LN4@SetCampLin

; 1616 : 	{
; 1617 : 		pLobbyWnd->SetCampLink();

  00023	6a 02		 push	 2
  00025	8b c8		 mov	 ecx, eax
  00027	e8 00 00 00 00	 call	 ?ChangeRadioWnd@LobbyWnd@@IAEXK@Z ; LobbyWnd::ChangeRadioWnd
$LN4@SetCampLin:

; 1618 : 	}
; 1619 : }

  0002c	c3		 ret	 0
?SetCampLink@LobbyMainWnd@@QAEXXZ ENDP			; LobbyMainWnd::SetCampLink
_TEXT	ENDS
PUBLIC	?SetTournamentLink@LobbyMainWnd@@QAEXK@Z	; LobbyMainWnd::SetTournamentLink
; Function compile flags: /Ogsp
;	COMDAT ?SetTournamentLink@LobbyMainWnd@@QAEXK@Z
_TEXT	SEGMENT
_dwTourIndex$ = 8					; size = 4
?SetTournamentLink@LobbyMainWnd@@QAEXK@Z PROC		; LobbyMainWnd::SetTournamentLink, COMDAT
; _this$ = ecx

; 1622 : {

  00000	55		 push	 ebp
  00001	8b ec		 mov	 ebp, esp

; 1623 : 	LobbyWnd *pLobbyWnd = dynamic_cast<LobbyWnd*>( FindChildWnd(ID_LOBBY_WND) );

  00003	6a 00		 push	 0
  00005	68 00 00 00 00	 push	 OFFSET ??_R0?AVLobbyWnd@@@8
  0000a	68 00 00 00 00	 push	 OFFSET ??_R0?AVioWnd@@@8
  0000f	6a 00		 push	 0
  00011	6a 01		 push	 1
  00013	ff 15 00 00 00
	00		 call	 DWORD PTR __imp_?FindChildWnd@ioWnd@@QAEPAV1@K@Z
  00019	50		 push	 eax
  0001a	e8 00 00 00 00	 call	 ___RTDynamicCast
  0001f	83 c4 14	 add	 esp, 20			; 00000014H

; 1624 : 	if( pLobbyWnd )

  00022	85 c0		 test	 eax, eax
  00024	74 08		 je	 SHORT $LN1@SetTournam@2

; 1625 : 	{
; 1626 : 		pLobbyWnd->SetTournamentLink( dwTourIndex );

  00026	8b c8		 mov	 ecx, eax

; 1627 : 	}
; 1628 : }

  00028	5d		 pop	 ebp

; 1625 : 	{
; 1626 : 		pLobbyWnd->SetTournamentLink( dwTourIndex );

  00029	e9 00 00 00 00	 jmp	 ?SetTournamentLink@LobbyWnd@@QAEXK@Z ; LobbyWnd::SetTournamentLink
$LN1@SetTournam@2:

; 1627 : 	}
; 1628 : }

  0002e	5d		 pop	 ebp
  0002f	c2 04 00	 ret	 4
?SetTournamentLink@LobbyMainWnd@@QAEXK@Z ENDP		; LobbyMainWnd::SetTournamentLink
_TEXT	ENDS
PUBLIC	?CmdMainTab@LobbyMainWnd@@IAEXK@Z		; LobbyMainWnd::CmdMainTab
; Function compile flags: /Ogsp
;	COMDAT ?CmdMainTab@LobbyMainWnd@@IAEXK@Z
_TEXT	SEGMENT
_dwTabID$ = 8						; size = 4
?CmdMainTab@LobbyMainWnd@@IAEXK@Z PROC			; LobbyMainWnd::CmdMainTab, COMDAT
; _this$ = ecx

; 1631 : {

  00000	55		 push	 ebp
  00001	8b ec		 mov	 ebp, esp

; 1632 : 	switch( dwTabID )

  00003	8b 45 08	 mov	 eax, DWORD PTR _dwTabID$[ebp]
  00006	48		 dec	 eax
  00007	53		 push	 ebx
  00008	56		 push	 esi
  00009	57		 push	 edi
  0000a	8b f1		 mov	 esi, ecx
  0000c	0f 84 f5 00 00
	00		 je	 $LN7@CmdMainTab
  00012	48		 dec	 eax
  00013	0f 84 c7 00 00
	00		 je	 $LN6@CmdMainTab
  00019	48		 dec	 eax
  0001a	0f 84 a5 00 00
	00		 je	 $LN4@CmdMainTab
  00020	48		 dec	 eax
  00021	74 76		 je	 SHORT $LN3@CmdMainTab
  00023	48		 dec	 eax
  00024	74 41		 je	 SHORT $LN2@CmdMainTab
  00026	48		 dec	 eax
  00027	48		 dec	 eax
  00028	0f 85 12 01 00
	00		 jne	 $LN8@CmdMainTab

; 1704 : 	case LobbyWnd::ID_TOURNAMENT_BTN:
; 1705 : 		{
; 1706 : 			ShowChatWnd( false );

  0002e	8b 1d 00 00 00
	00		 mov	 ebx, DWORD PTR __imp_?HideChildWnd@ioWnd@@QAEXK_N@Z
  00034	33 ff		 xor	 edi, edi
  00036	57		 push	 edi
  00037	6a 02		 push	 2
  00039	ff d3		 call	 ebx

; 1707 : 			HideChildWnd( ID_CAMP_INFO_WND );

  0003b	57		 push	 edi
  0003c	6a 03		 push	 3
  0003e	8b ce		 mov	 ecx, esi
  00040	ff d3		 call	 ebx

; 1708 : 			HideChildWnd( ID_BATTLE_INFO_WND );

  00042	57		 push	 edi
  00043	6a 04		 push	 4
  00045	8b ce		 mov	 ecx, esi
  00047	ff d3		 call	 ebx

; 1709 : 			HideChildWnd( ID_PLAZA_INFO_WND );

  00049	57		 push	 edi
  0004a	6a 05		 push	 5
  0004c	8b ce		 mov	 ecx, esi
  0004e	ff d3		 call	 ebx

; 1710 : 			HideChildWnd( ID_TRADE_INFO_WND );

  00050	57		 push	 edi
  00051	6a 06		 push	 6
  00053	8b ce		 mov	 ecx, esi
  00055	ff d3		 call	 ebx

; 1711 : 			ShowChildWnd( ID_TOURNAMENT_INFO_WND );

  00057	57		 push	 edi
  00058	6a 07		 push	 7
  0005a	8b ce		 mov	 ecx, esi
  0005c	ff 15 00 00 00
	00		 call	 DWORD PTR __imp_?ShowChildWnd@ioWnd@@QAEXK_N@Z

; 1712 : 
; 1713 : #if defined( USE_GA )
; 1714 : 			// WND_LOBBY_TOURNAMENT
; 1715 : 			g_HttpMng.GA_PageVIewTracking( g_MyInfo.GetUserIndex(), "%2FWND%2FLOBBY%2FTOURNAMENT" );
; 1716 : #endif
; 1717 : 		}
; 1718 : 		break;

  00062	e9 d9 00 00 00	 jmp	 $LN8@CmdMainTab
$LN2@CmdMainTab:

; 1689 : 	case LobbyWnd::ID_TRADE_BTN:
; 1690 : 		{
; 1691 : 			ShowChatWnd( false );

  00067	8b 1d 00 00 00
	00		 mov	 ebx, DWORD PTR __imp_?HideChildWnd@ioWnd@@QAEXK_N@Z
  0006d	33 ff		 xor	 edi, edi
  0006f	57		 push	 edi
  00070	6a 02		 push	 2
  00072	ff d3		 call	 ebx

; 1692 : 			HideChildWnd( ID_CAMP_INFO_WND );

  00074	57		 push	 edi
  00075	6a 03		 push	 3
  00077	8b ce		 mov	 ecx, esi
  00079	ff d3		 call	 ebx

; 1693 : 			HideChildWnd( ID_BATTLE_INFO_WND );

  0007b	57		 push	 edi
  0007c	6a 04		 push	 4
  0007e	8b ce		 mov	 ecx, esi
  00080	ff d3		 call	 ebx

; 1694 : 			HideChildWnd( ID_PLAZA_INFO_WND );

  00082	57		 push	 edi
  00083	6a 05		 push	 5
  00085	8b ce		 mov	 ecx, esi
  00087	ff d3		 call	 ebx

; 1695 : 			ShowChildWnd( ID_TRADE_INFO_WND );

  00089	57		 push	 edi
  0008a	6a 06		 push	 6
  0008c	8b ce		 mov	 ecx, esi
  0008e	ff 15 00 00 00
	00		 call	 DWORD PTR __imp_?ShowChildWnd@ioWnd@@QAEXK_N@Z

; 1696 : 			HideChildWnd( ID_TOURNAMENT_INFO_WND );
; 1697 : 
; 1698 : #if defined( USE_GA )
; 1699 : 			// WND_LOBBY_MARKET
; 1700 : 			g_HttpMng.GA_PageVIewTracking( g_MyInfo.GetUserIndex(), "%2FWND%2FLOBBY%2FMARKET" );
; 1701 : #endif
; 1702 : 		}
; 1703 : 		break;

  00094	e9 a0 00 00 00	 jmp	 $LN34@CmdMainTab
$LN3@CmdMainTab:

; 1674 : 	case LobbyWnd::ID_PLAZA_BTN:
; 1675 : 		{
; 1676 : 			ShowChatWnd( true );

  00099	33 ff		 xor	 edi, edi
  0009b	57		 push	 edi
  0009c	6a 02		 push	 2
  0009e	ff 15 00 00 00
	00		 call	 DWORD PTR __imp_?ShowChildWnd@ioWnd@@QAEXK_N@Z

; 1677 : 			HideChildWnd( ID_CAMP_INFO_WND );

  000a4	8b 1d 00 00 00
	00		 mov	 ebx, DWORD PTR __imp_?HideChildWnd@ioWnd@@QAEXK_N@Z
  000aa	57		 push	 edi
  000ab	6a 03		 push	 3
  000ad	8b ce		 mov	 ecx, esi
  000af	ff d3		 call	 ebx

; 1678 : 			HideChildWnd( ID_BATTLE_INFO_WND );

  000b1	57		 push	 edi
  000b2	6a 04		 push	 4
  000b4	8b ce		 mov	 ecx, esi
  000b6	ff d3		 call	 ebx

; 1679 : 			ShowChildWnd( ID_PLAZA_INFO_WND );

  000b8	57		 push	 edi
  000b9	6a 05		 push	 5
  000bb	8b ce		 mov	 ecx, esi
  000bd	ff 15 00 00 00
	00		 call	 DWORD PTR __imp_?ShowChildWnd@ioWnd@@QAEXK_N@Z

; 1680 : 			HideChildWnd( ID_TRADE_INFO_WND );
; 1681 : 			HideChildWnd( ID_TOURNAMENT_INFO_WND );
; 1682 : 
; 1683 : #if defined( USE_GA )
; 1684 : 			// WND_LOBBY_PLAZA
; 1685 : 			g_HttpMng.GA_PageVIewTracking( g_MyInfo.GetUserIndex(), "%2FWND%2FLOBBY%2FPLAZA" );
; 1686 : #endif
; 1687 : 		}
; 1688 : 		break;

  000c3	eb 6d		 jmp	 SHORT $LN35@CmdMainTab
$LN4@CmdMainTab:

; 1665 : 	case LobbyWnd::ID_HERO_MAIN_BTN:
; 1666 : 		{
; 1667 : 			ShowChildWnd( ID_CAMP_INFO_WND, true );

  000c5	6a 01		 push	 1
  000c7	6a 03		 push	 3
  000c9	ff 15 00 00 00
	00		 call	 DWORD PTR __imp_?ShowChildWnd@ioWnd@@QAEXK_N@Z

; 1668 : 			HideChildWnd( ID_BATTLE_INFO_WND );

  000cf	8b 1d 00 00 00
	00		 mov	 ebx, DWORD PTR __imp_?HideChildWnd@ioWnd@@QAEXK_N@Z
  000d5	33 ff		 xor	 edi, edi
$LN38@CmdMainTab:
  000d7	57		 push	 edi
  000d8	8b ce		 mov	 ecx, esi
  000da	6a 04		 push	 4
  000dc	ff d3		 call	 ebx

; 1669 : 			HideChildWnd( ID_PLAZA_INFO_WND );
; 1670 : 			HideChildWnd( ID_TRADE_INFO_WND );
; 1671 : 			HideChildWnd( ID_TOURNAMENT_INFO_WND );
; 1672 : 		}
; 1673 : 		break;

  000de	eb 4b		 jmp	 SHORT $LN36@CmdMainTab
$LN6@CmdMainTab:

; 1642 : 
; 1643 : #if defined( USE_GA )
; 1644 : 			// WND_LOBBY_BATTLE
; 1645 : 			g_HttpMng.GA_PageVIewTracking( g_MyInfo.GetUserIndex(), "%2FWND%2FLOBBY%2FBATTLE" );
; 1646 : #endif
; 1647 : 		}
; 1648 : 		break;
; 1649 : 	case LobbyWnd::ID_CAMP_BTN:
; 1650 : 		{
; 1651 : 			if( g_MyInfo.GetUserCampPos() == CAMP_NONE )

  000e0	e8 00 00 00 00	 call	 ?GetSingleton@ioMyInfo@@SAAAV1@XZ ; ioMyInfo::GetSingleton
  000e5	8b 1d 00 00 00
	00		 mov	 ebx, DWORD PTR __imp_?HideChildWnd@ioWnd@@QAEXK_N@Z
  000eb	33 ff		 xor	 edi, edi
  000ed	39 78 60	 cmp	 DWORD PTR [eax+96], edi
  000f0	75 07		 jne	 SHORT $LN18@CmdMainTab

; 1652 : 				ShowChatWnd( false );

  000f2	57		 push	 edi
  000f3	6a 02		 push	 2
  000f5	8b ce		 mov	 ecx, esi
  000f7	ff d3		 call	 ebx
$LN18@CmdMainTab:

; 1653 : 			ShowChildWnd( ID_CAMP_INFO_WND, true );

  000f9	6a 01		 push	 1
  000fb	6a 03		 push	 3
  000fd	8b ce		 mov	 ecx, esi
  000ff	ff 15 00 00 00
	00		 call	 DWORD PTR __imp_?ShowChildWnd@ioWnd@@QAEXK_N@Z

; 1654 : 			HideChildWnd( ID_BATTLE_INFO_WND );
; 1655 : 			HideChildWnd( ID_PLAZA_INFO_WND );
; 1656 : 			HideChildWnd( ID_TRADE_INFO_WND );
; 1657 : 			HideChildWnd( ID_TOURNAMENT_INFO_WND );
; 1658 : 
; 1659 : #if defined( USE_GA )
; 1660 : 			// WND_LOBBY_FACTION
; 1661 : 			g_HttpMng.GA_PageVIewTracking( g_MyInfo.GetUserIndex(), "%2FWND%2FLOBBY%2FFACTION" );
; 1662 : #endif
; 1663 : 		}
; 1664 : 		break;

  00105	eb d0		 jmp	 SHORT $LN38@CmdMainTab
$LN7@CmdMainTab:

; 1633 : 	{
; 1634 : 	case LobbyWnd::ID_BATTLE_BTN:
; 1635 : 		{
; 1636 : 			ShowChatWnd( true );

  00107	33 ff		 xor	 edi, edi
  00109	57		 push	 edi
  0010a	6a 02		 push	 2
  0010c	ff 15 00 00 00
	00		 call	 DWORD PTR __imp_?ShowChildWnd@ioWnd@@QAEXK_N@Z

; 1637 : 			HideChildWnd( ID_CAMP_INFO_WND );

  00112	8b 1d 00 00 00
	00		 mov	 ebx, DWORD PTR __imp_?HideChildWnd@ioWnd@@QAEXK_N@Z
  00118	57		 push	 edi
  00119	6a 03		 push	 3
  0011b	8b ce		 mov	 ecx, esi
  0011d	ff d3		 call	 ebx

; 1638 : 			ShowChildWnd( ID_BATTLE_INFO_WND, true );

  0011f	6a 01		 push	 1
  00121	6a 04		 push	 4
  00123	8b ce		 mov	 ecx, esi
  00125	ff 15 00 00 00
	00		 call	 DWORD PTR __imp_?ShowChildWnd@ioWnd@@QAEXK_N@Z
$LN36@CmdMainTab:

; 1639 : 			HideChildWnd( ID_PLAZA_INFO_WND );

  0012b	57		 push	 edi
  0012c	6a 05		 push	 5
  0012e	8b ce		 mov	 ecx, esi
  00130	ff d3		 call	 ebx
$LN35@CmdMainTab:

; 1640 : 			HideChildWnd( ID_TRADE_INFO_WND );

  00132	57		 push	 edi
  00133	6a 06		 push	 6
  00135	8b ce		 mov	 ecx, esi
  00137	ff d3		 call	 ebx
$LN34@CmdMainTab:

; 1641 : 			HideChildWnd( ID_TOURNAMENT_INFO_WND );

  00139	57		 push	 edi
  0013a	6a 07		 push	 7
  0013c	8b ce		 mov	 ecx, esi
  0013e	ff d3		 call	 ebx
$LN8@CmdMainTab:
  00140	5f		 pop	 edi
  00141	5e		 pop	 esi
  00142	5b		 pop	 ebx

; 1719 : 	}
; 1720 : }

  00143	5d		 pop	 ebp
  00144	c2 04 00	 ret	 4
?CmdMainTab@LobbyMainWnd@@IAEXK@Z ENDP			; LobbyMainWnd::CmdMainTab
_TEXT	ENDS
PUBLIC	?CheckBonusCashTooltip@LobbyMainWnd@@IAEXXZ	; LobbyMainWnd::CheckBonusCashTooltip
EXTRN	?CheckAlarmExpireBonusCash@ioBonusCashManager@@QAE_NXZ:PROC ; ioBonusCashManager::CheckAlarmExpireBonusCash
EXTRN	__imp_?GetLoopSec@ioFrameTimer@@QBEKXZ:PROC
EXTRN	__imp_?GetSingleton@ioFrameTimer@@SAAAV1@XZ:PROC
EXTRN	?ProcessBackground@ioInterfaceBackground@@QAEXXZ:PROC ; ioInterfaceBackground::ProcessBackground
; Function compile flags: /Ogsp
;	COMDAT ?CheckBonusCashTooltip@LobbyMainWnd@@IAEXXZ
_TEXT	SEGMENT
?CheckBonusCashTooltip@LobbyMainWnd@@IAEXXZ PROC	; LobbyMainWnd::CheckBonusCashTooltip, COMDAT
; _this$ = ecx

; 1862 : {

  00000	56		 push	 esi
  00001	57		 push	 edi
  00002	8b f1		 mov	 esi, ecx

; 1863 : 	g_BackgroundMgr.ProcessBackground();

  00004	e8 00 00 00 00	 call	 ?GetSingleton@ioInterfaceBackground@@SAAAV1@XZ ; ioInterfaceBackground::GetSingleton
  00009	8b c8		 mov	 ecx, eax
  0000b	e8 00 00 00 00	 call	 ?ProcessBackground@ioInterfaceBackground@@QAEXXZ ; ioInterfaceBackground::ProcessBackground

; 1864 : 
; 1865 : 	if ( m_dwBonusCashTooltipCheckDuration == 0 )

  00010	83 be 60 02 00
	00 00		 cmp	 DWORD PTR [esi+608], 0
  00017	0f 84 8e 00 00
	00		 je	 $LN1@CheckBonus@2

; 1866 : 		return;
; 1867 : 	if ( m_dwBonusCashTooltipCheckStartTime + m_dwBonusCashTooltipCheckDuration > FRAMEGETTIME() )

  0001d	53		 push	 ebx
  0001e	8b 1d 00 00 00
	00		 mov	 ebx, DWORD PTR __imp_?GetSingleton@ioFrameTimer@@SAAAV1@XZ
  00024	ff d3		 call	 ebx
  00026	8b c8		 mov	 ecx, eax
  00028	ff 15 00 00 00
	00		 call	 DWORD PTR __imp_?GetLoopSec@ioFrameTimer@@QBEKXZ
  0002e	8b 8e 64 02 00
	00		 mov	 ecx, DWORD PTR [esi+612]
  00034	03 8e 60 02 00
	00		 add	 ecx, DWORD PTR [esi+608]
  0003a	3b c8		 cmp	 ecx, eax
  0003c	77 6c		 ja	 SHORT $LN11@CheckBonus@2

; 1868 : 		return;
; 1869 : 
; 1870 : 	m_dwBonusCashTooltipCheckStartTime = FRAMEGETTIME();

  0003e	ff d3		 call	 ebx
  00040	8b c8		 mov	 ecx, eax
  00042	ff 15 00 00 00
	00		 call	 DWORD PTR __imp_?GetLoopSec@ioFrameTimer@@QBEKXZ
  00048	89 86 64 02 00
	00		 mov	 DWORD PTR [esi+612], eax

; 1871 : 
; 1872 : 	if ( g_BonusCashMgr.CheckAlarmExpireBonusCash() )

  0004e	8b 0d 00 00 00
	00		 mov	 ecx, DWORD PTR ?ms_Singleton@?$Singleton@VioBonusCashManager@@@@1PAVioBonusCashManager@@A ; Singleton<ioBonusCashManager>::ms_Singleton
  00054	e8 00 00 00 00	 call	 ?CheckAlarmExpireBonusCash@ioBonusCashManager@@QAE_NXZ ; ioBonusCashManager::CheckAlarmExpireBonusCash

; 1873 : 	{
; 1874 : 		ioWnd* pBonusTooltip = FindChildWnd( ID_BONUS_CASH_TOOLTIP );

  00059	68 f9 01 00 00	 push	 505			; 000001f9H
  0005e	8b ce		 mov	 ecx, esi
  00060	84 c0		 test	 al, al
  00062	74 23		 je	 SHORT $LN4@CheckBonus@2
  00064	ff 15 00 00 00
	00		 call	 DWORD PTR __imp_?FindChildWnd@ioWnd@@QAEPAV1@K@Z
  0006a	8b f0		 mov	 esi, eax

; 1875 : 		if ( pBonusTooltip && !pBonusTooltip->IsShow() )

  0006c	85 f6		 test	 esi, esi
  0006e	74 3a		 je	 SHORT $LN11@CheckBonus@2
  00070	8b ce		 mov	 ecx, esi
  00072	ff 15 00 00 00
	00		 call	 DWORD PTR __imp_?IsShow@ioWnd@@QBE_NXZ
  00078	84 c0		 test	 al, al
  0007a	75 2e		 jne	 SHORT $LN11@CheckBonus@2

; 1876 : 			pBonusTooltip->ShowWnd();

  0007c	5b		 pop	 ebx
  0007d	5f		 pop	 edi
  0007e	8b ce		 mov	 ecx, esi
  00080	5e		 pop	 esi
  00081	ff 25 00 00 00
	00		 jmp	 DWORD PTR __imp_?ShowWnd@ioWnd@@QAEXXZ
$LN4@CheckBonus@2:

; 1877 : 	}
; 1878 : 	else
; 1879 : 	{
; 1880 : 		ioWnd* pBonusTooltip = FindChildWnd( ID_BONUS_CASH_TOOLTIP );

  00087	ff 15 00 00 00
	00		 call	 DWORD PTR __imp_?FindChildWnd@ioWnd@@QAEPAV1@K@Z
  0008d	8b f0		 mov	 esi, eax

; 1881 : 		if ( pBonusTooltip && pBonusTooltip->IsShow() )

  0008f	85 f6		 test	 esi, esi
  00091	74 17		 je	 SHORT $LN11@CheckBonus@2
  00093	8b ce		 mov	 ecx, esi
  00095	ff 15 00 00 00
	00		 call	 DWORD PTR __imp_?IsShow@ioWnd@@QBE_NXZ
  0009b	84 c0		 test	 al, al
  0009d	74 0b		 je	 SHORT $LN11@CheckBonus@2

; 1882 : 			pBonusTooltip->HideWnd();

  0009f	5b		 pop	 ebx
  000a0	5f		 pop	 edi
  000a1	8b ce		 mov	 ecx, esi
  000a3	5e		 pop	 esi
  000a4	ff 25 00 00 00
	00		 jmp	 DWORD PTR __imp_?HideWnd@ioWnd@@QAEXXZ
$LN11@CheckBonus@2:
  000aa	5b		 pop	 ebx
$LN1@CheckBonus@2:
  000ab	5f		 pop	 edi
  000ac	5e		 pop	 esi

; 1883 : 	}
; 1884 : }

  000ad	c3		 ret	 0
?CheckBonusCashTooltip@LobbyMainWnd@@IAEXXZ ENDP	; LobbyMainWnd::CheckBonusCashTooltip
_TEXT	ENDS
PUBLIC	__$ArrayPad$
PUBLIC	??$?8$08@@YA_NABVioHashString@@AAY08$$CBD@Z	; operator==<9>
; Function compile flags: /Ogsp
; File d:\lost saga for developer\youtube\tutorial\source\src\io3dengine\iohashstring.h
;	COMDAT ??$?8$08@@YA_NABVioHashString@@AAY08$$CBD@Z
_TEXT	SEGMENT
__t$ = -20						; size = 9
__$ArrayPad$ = -4					; size = 4
_lhs$ = 8						; size = 4
_t$ = 12						; size = 4
??$?8$08@@YA_NABVioHashString@@AAY08$$CBD@Z PROC	; operator==<9>, COMDAT

; 146  : {

  00000	55		 push	 ebp
  00001	8b ec		 mov	 ebp, esp
  00003	83 ec 14	 sub	 esp, 20			; 00000014H
  00006	a1 00 00 00 00	 mov	 eax, DWORD PTR ___security_cookie
  0000b	33 c5		 xor	 eax, ebp
  0000d	89 45 fc	 mov	 DWORD PTR __$ArrayPad$[ebp], eax
  00010	8b 45 0c	 mov	 eax, DWORD PTR _t$[ebp]

; 147  : 	_ENCSTR(t, _t); return ( strcmp( lhs.c_str(), _t ) == 0 );

  00013	8a 10		 mov	 dl, BYTE PTR [eax]
  00015	8b 4d 08	 mov	 ecx, DWORD PTR _lhs$[ebp]
  00018	84 d2		 test	 dl, dl
  0001a	0f 84 ee 00 00
	00		 je	 $LN96@operator
  00020	80 f2 ed	 xor	 dl, -19			; ffffffedH
  00023	88 55 ec	 mov	 BYTE PTR __t$[ebp], dl
  00026	8a 50 01	 mov	 dl, BYTE PTR [eax+1]
  00029	84 d2		 test	 dl, dl
  0002b	0f 84 d7 00 00
	00		 je	 $LN95@operator
  00031	80 f2 ec	 xor	 dl, -20			; ffffffecH
  00034	88 55 ed	 mov	 BYTE PTR __t$[ebp+1], dl
  00037	8a 50 02	 mov	 dl, BYTE PTR [eax+2]
  0003a	84 d2		 test	 dl, dl
  0003c	0f 84 c0 00 00
	00		 je	 $LN94@operator
  00042	80 f2 eb	 xor	 dl, -21			; ffffffebH
  00045	88 55 ee	 mov	 BYTE PTR __t$[ebp+2], dl
  00048	8a 50 03	 mov	 dl, BYTE PTR [eax+3]
  0004b	84 d2		 test	 dl, dl
  0004d	0f 84 a9 00 00
	00		 je	 $LN93@operator
  00053	80 f2 ea	 xor	 dl, -22			; ffffffeaH
  00056	88 55 ef	 mov	 BYTE PTR __t$[ebp+3], dl
  00059	8a 50 04	 mov	 dl, BYTE PTR [eax+4]
  0005c	84 d2		 test	 dl, dl
  0005e	0f 84 92 00 00
	00		 je	 $LN92@operator
  00064	80 f2 ed	 xor	 dl, -19			; ffffffedH
  00067	88 55 f0	 mov	 BYTE PTR __t$[ebp+4], dl
  0006a	8a 50 05	 mov	 dl, BYTE PTR [eax+5]
  0006d	84 d2		 test	 dl, dl
  0006f	74 7f		 je	 SHORT $LN91@operator
  00071	80 f2 ec	 xor	 dl, -20			; ffffffecH
  00074	88 55 f1	 mov	 BYTE PTR __t$[ebp+5], dl
  00077	8a 50 06	 mov	 dl, BYTE PTR [eax+6]
  0007a	84 d2		 test	 dl, dl
  0007c	74 6c		 je	 SHORT $LN90@operator
  0007e	80 f2 eb	 xor	 dl, -21			; ffffffebH
  00081	88 55 f2	 mov	 BYTE PTR __t$[ebp+6], dl
  00084	8a 50 07	 mov	 dl, BYTE PTR [eax+7]
  00087	84 d2		 test	 dl, dl
  00089	74 59		 je	 SHORT $LN89@operator
  0008b	80 f2 ea	 xor	 dl, -22			; ffffffeaH
  0008e	80 78 08 00	 cmp	 BYTE PTR [eax+8], 0
  00092	88 55 f3	 mov	 BYTE PTR __t$[ebp+7], dl
  00095	74 7b		 je	 SHORT $LN1@operator
  00097	8a 50 09	 mov	 dl, BYTE PTR [eax+9]
  0009a	84 d2		 test	 dl, dl
  0009c	74 40		 je	 SHORT $LN87@operator
  0009e	80 f2 ec	 xor	 dl, -20			; ffffffecH
  000a1	88 55 f5	 mov	 BYTE PTR __t$[ebp+9], dl
  000a4	8a 50 0a	 mov	 dl, BYTE PTR [eax+10]
  000a7	84 d2		 test	 dl, dl
  000a9	74 2d		 je	 SHORT $LN86@operator
  000ab	80 f2 eb	 xor	 dl, -21			; ffffffebH
  000ae	88 55 f6	 mov	 BYTE PTR __t$[ebp+10], dl
  000b1	8a 50 0b	 mov	 dl, BYTE PTR [eax+11]
  000b4	84 d2		 test	 dl, dl
  000b6	74 1a		 je	 SHORT $LN85@operator
  000b8	8a 40 0c	 mov	 al, BYTE PTR [eax+12]
  000bb	80 f2 ea	 xor	 dl, -22			; ffffffeaH
  000be	88 55 f7	 mov	 BYTE PTR __t$[ebp+11], dl
  000c1	84 c0		 test	 al, al
  000c3	74 07		 je	 SHORT $LN84@operator
  000c5	34 ed		 xor	 al, -19			; ffffffedH
  000c7	88 45 f8	 mov	 BYTE PTR __t$[ebp+12], al
  000ca	eb 46		 jmp	 SHORT $LN1@operator
$LN84@operator:
  000cc	c6 45 f8 ed	 mov	 BYTE PTR __t$[ebp+12], -19 ; ffffffedH
  000d0	eb 40		 jmp	 SHORT $LN1@operator
$LN85@operator:
  000d2	c6 45 f7 ea	 mov	 BYTE PTR __t$[ebp+11], -22 ; ffffffeaH
  000d6	eb 3a		 jmp	 SHORT $LN1@operator
$LN86@operator:
  000d8	c6 45 f6 eb	 mov	 BYTE PTR __t$[ebp+10], -21 ; ffffffebH
  000dc	eb 34		 jmp	 SHORT $LN1@operator
$LN87@operator:
  000de	c6 45 f5 ec	 mov	 BYTE PTR __t$[ebp+9], -20 ; ffffffecH
  000e2	eb 2e		 jmp	 SHORT $LN1@operator
$LN89@operator:
  000e4	c6 45 f3 ea	 mov	 BYTE PTR __t$[ebp+7], -22 ; ffffffeaH
  000e8	eb 28		 jmp	 SHORT $LN1@operator
$LN90@operator:
  000ea	c6 45 f2 eb	 mov	 BYTE PTR __t$[ebp+6], -21 ; ffffffebH
  000ee	eb 22		 jmp	 SHORT $LN1@operator
$LN91@operator:
  000f0	c6 45 f1 ec	 mov	 BYTE PTR __t$[ebp+5], -20 ; ffffffecH
  000f4	eb 1c		 jmp	 SHORT $LN1@operator
$LN92@operator:
  000f6	c6 45 f0 ed	 mov	 BYTE PTR __t$[ebp+4], -19 ; ffffffedH
  000fa	eb 16		 jmp	 SHORT $LN1@operator
$LN93@operator:
  000fc	c6 45 ef ea	 mov	 BYTE PTR __t$[ebp+3], -22 ; ffffffeaH
  00100	eb 10		 jmp	 SHORT $LN1@operator
$LN94@operator:
  00102	c6 45 ee eb	 mov	 BYTE PTR __t$[ebp+2], -21 ; ffffffebH
  00106	eb 0a		 jmp	 SHORT $LN1@operator
$LN95@operator:
  00108	c6 45 ed ec	 mov	 BYTE PTR __t$[ebp+1], -20 ; ffffffecH
  0010c	eb 04		 jmp	 SHORT $LN1@operator
$LN96@operator:
  0010e	c6 45 ec ed	 mov	 BYTE PTR __t$[ebp], -19	; ffffffedH
$LN1@operator:
  00112	6a 02		 push	 2
  00114	8d 45 ec	 lea	 eax, DWORD PTR __t$[ebp]
  00117	c6 45 f4 00	 mov	 BYTE PTR __t$[ebp+8], 0
  0011b	5a		 pop	 edx
$LL104@operator:
  0011c	81 30 ed ec eb
	ea		 xor	 DWORD PTR [eax], -353637139 ; eaebecedH
  00122	83 c0 04	 add	 eax, 4
  00125	4a		 dec	 edx
  00126	75 f4		 jne	 SHORT $LL104@operator
  00128	56		 push	 esi
  00129	8d 75 ec	 lea	 esi, DWORD PTR __t$[ebp]
  0012c	ff 15 00 00 00
	00		 call	 DWORD PTR __imp_?c_str@ioHashString@@QBEPBDXZ
$LL111@operator:
  00132	8a 08		 mov	 cl, BYTE PTR [eax]
  00134	3a 0e		 cmp	 cl, BYTE PTR [esi]
  00136	75 1a		 jne	 SHORT $LN112@operator
  00138	84 c9		 test	 cl, cl
  0013a	74 12		 je	 SHORT $LN113@operator
  0013c	8a 48 01	 mov	 cl, BYTE PTR [eax+1]
  0013f	3a 4e 01	 cmp	 cl, BYTE PTR [esi+1]
  00142	75 0e		 jne	 SHORT $LN112@operator
  00144	83 c0 02	 add	 eax, 2
  00147	83 c6 02	 add	 esi, 2
  0014a	84 c9		 test	 cl, cl
  0014c	75 e4		 jne	 SHORT $LL111@operator
$LN113@operator:
  0014e	33 c0		 xor	 eax, eax
  00150	eb 05		 jmp	 SHORT $LN114@operator
$LN112@operator:
  00152	1b c0		 sbb	 eax, eax
  00154	83 d8 ff	 sbb	 eax, -1
$LN114@operator:
  00157	33 c9		 xor	 ecx, ecx
  00159	85 c0		 test	 eax, eax
  0015b	0f 94 c0	 sete	 al

; 148  : }

  0015e	8b 4d fc	 mov	 ecx, DWORD PTR __$ArrayPad$[ebp]
  00161	33 cd		 xor	 ecx, ebp
  00163	5e		 pop	 esi
  00164	e8 00 00 00 00	 call	 @__security_check_cookie@4
  00169	c9		 leave
  0016a	c3		 ret	 0
??$?8$08@@YA_NABVioHashString@@AAY08$$CBD@Z ENDP	; operator==<9>
_TEXT	ENDS
PUBLIC	__$ArrayPad$
PUBLIC	??$?8$04@@YA_NABVioHashString@@AAY04$$CBD@Z	; operator==<5>
; Function compile flags: /Ogsp
;	COMDAT ??$?8$04@@YA_NABVioHashString@@AAY04$$CBD@Z
_TEXT	SEGMENT
__t$ = -16						; size = 5
__$ArrayPad$ = -4					; size = 4
_lhs$ = 8						; size = 4
_t$ = 12						; size = 4
??$?8$04@@YA_NABVioHashString@@AAY04$$CBD@Z PROC	; operator==<5>, COMDAT

; 146  : {

  00000	55		 push	 ebp
  00001	8b ec		 mov	 ebp, esp
  00003	83 ec 10	 sub	 esp, 16			; 00000010H
  00006	a1 00 00 00 00	 mov	 eax, DWORD PTR ___security_cookie
  0000b	33 c5		 xor	 eax, ebp
  0000d	89 45 fc	 mov	 DWORD PTR __$ArrayPad$[ebp], eax
  00010	8b 45 0c	 mov	 eax, DWORD PTR _t$[ebp]

; 147  : 	_ENCSTR(t, _t); return ( strcmp( lhs.c_str(), _t ) == 0 );

  00013	8a 10		 mov	 dl, BYTE PTR [eax]
  00015	8b 4d 08	 mov	 ecx, DWORD PTR _lhs$[ebp]
  00018	84 d2		 test	 dl, dl
  0001a	0f 84 92 00 00
	00		 je	 $LN96@operator@2
  00020	80 f2 ed	 xor	 dl, -19			; ffffffedH
  00023	88 55 f0	 mov	 BYTE PTR __t$[ebp], dl
  00026	8a 50 01	 mov	 dl, BYTE PTR [eax+1]
  00029	84 d2		 test	 dl, dl
  0002b	74 7f		 je	 SHORT $LN95@operator@2
  0002d	80 f2 ec	 xor	 dl, -20			; ffffffecH
  00030	88 55 f1	 mov	 BYTE PTR __t$[ebp+1], dl
  00033	8a 50 02	 mov	 dl, BYTE PTR [eax+2]
  00036	84 d2		 test	 dl, dl
  00038	74 6c		 je	 SHORT $LN94@operator@2
  0003a	80 f2 eb	 xor	 dl, -21			; ffffffebH
  0003d	88 55 f2	 mov	 BYTE PTR __t$[ebp+2], dl
  00040	8a 50 03	 mov	 dl, BYTE PTR [eax+3]
  00043	84 d2		 test	 dl, dl
  00045	74 59		 je	 SHORT $LN93@operator@2
  00047	80 f2 ea	 xor	 dl, -22			; ffffffeaH
  0004a	80 78 04 00	 cmp	 BYTE PTR [eax+4], 0
  0004e	88 55 f3	 mov	 BYTE PTR __t$[ebp+3], dl
  00051	74 63		 je	 SHORT $LN1@operator@2
  00053	8a 50 05	 mov	 dl, BYTE PTR [eax+5]
  00056	84 d2		 test	 dl, dl
  00058	74 40		 je	 SHORT $LN91@operator@2
  0005a	80 f2 ec	 xor	 dl, -20			; ffffffecH
  0005d	88 55 f5	 mov	 BYTE PTR __t$[ebp+5], dl
  00060	8a 50 06	 mov	 dl, BYTE PTR [eax+6]
  00063	84 d2		 test	 dl, dl
  00065	74 2d		 je	 SHORT $LN90@operator@2
  00067	80 f2 eb	 xor	 dl, -21			; ffffffebH
  0006a	88 55 f6	 mov	 BYTE PTR __t$[ebp+6], dl
  0006d	8a 50 07	 mov	 dl, BYTE PTR [eax+7]
  00070	84 d2		 test	 dl, dl
  00072	74 1a		 je	 SHORT $LN89@operator@2
  00074	8a 40 08	 mov	 al, BYTE PTR [eax+8]
  00077	80 f2 ea	 xor	 dl, -22			; ffffffeaH
  0007a	88 55 f7	 mov	 BYTE PTR __t$[ebp+7], dl
  0007d	84 c0		 test	 al, al
  0007f	74 07		 je	 SHORT $LN88@operator@2
  00081	34 ed		 xor	 al, -19			; ffffffedH
  00083	88 45 f8	 mov	 BYTE PTR __t$[ebp+8], al
  00086	eb 2e		 jmp	 SHORT $LN1@operator@2
$LN88@operator@2:
  00088	c6 45 f8 ed	 mov	 BYTE PTR __t$[ebp+8], -19 ; ffffffedH
  0008c	eb 28		 jmp	 SHORT $LN1@operator@2
$LN89@operator@2:
  0008e	c6 45 f7 ea	 mov	 BYTE PTR __t$[ebp+7], -22 ; ffffffeaH
  00092	eb 22		 jmp	 SHORT $LN1@operator@2
$LN90@operator@2:
  00094	c6 45 f6 eb	 mov	 BYTE PTR __t$[ebp+6], -21 ; ffffffebH
  00098	eb 1c		 jmp	 SHORT $LN1@operator@2
$LN91@operator@2:
  0009a	c6 45 f5 ec	 mov	 BYTE PTR __t$[ebp+5], -20 ; ffffffecH
  0009e	eb 16		 jmp	 SHORT $LN1@operator@2
$LN93@operator@2:
  000a0	c6 45 f3 ea	 mov	 BYTE PTR __t$[ebp+3], -22 ; ffffffeaH
  000a4	eb 10		 jmp	 SHORT $LN1@operator@2
$LN94@operator@2:
  000a6	c6 45 f2 eb	 mov	 BYTE PTR __t$[ebp+2], -21 ; ffffffebH
  000aa	eb 0a		 jmp	 SHORT $LN1@operator@2
$LN95@operator@2:
  000ac	c6 45 f1 ec	 mov	 BYTE PTR __t$[ebp+1], -20 ; ffffffecH
  000b0	eb 04		 jmp	 SHORT $LN1@operator@2
$LN96@operator@2:
  000b2	c6 45 f0 ed	 mov	 BYTE PTR __t$[ebp], -19	; ffffffedH
$LN1@operator@2:
  000b6	81 75 f0 ed ec
	eb ea		 xor	 DWORD PTR __t$[ebp], -353637139 ; eaebecedH
  000bd	56		 push	 esi
  000be	c6 45 f4 00	 mov	 BYTE PTR __t$[ebp+4], 0
  000c2	8d 75 f0	 lea	 esi, DWORD PTR __t$[ebp]
  000c5	ff 15 00 00 00
	00		 call	 DWORD PTR __imp_?c_str@ioHashString@@QBEPBDXZ
$LL111@operator@2:
  000cb	8a 08		 mov	 cl, BYTE PTR [eax]
  000cd	3a 0e		 cmp	 cl, BYTE PTR [esi]
  000cf	75 1a		 jne	 SHORT $LN112@operator@2
  000d1	84 c9		 test	 cl, cl
  000d3	74 12		 je	 SHORT $LN113@operator@2
  000d5	8a 48 01	 mov	 cl, BYTE PTR [eax+1]
  000d8	3a 4e 01	 cmp	 cl, BYTE PTR [esi+1]
  000db	75 0e		 jne	 SHORT $LN112@operator@2
  000dd	83 c0 02	 add	 eax, 2
  000e0	83 c6 02	 add	 esi, 2
  000e3	84 c9		 test	 cl, cl
  000e5	75 e4		 jne	 SHORT $LL111@operator@2
$LN113@operator@2:
  000e7	33 c0		 xor	 eax, eax
  000e9	eb 05		 jmp	 SHORT $LN114@operator@2
$LN112@operator@2:
  000eb	1b c0		 sbb	 eax, eax
  000ed	83 d8 ff	 sbb	 eax, -1
$LN114@operator@2:
  000f0	33 c9		 xor	 ecx, ecx
  000f2	85 c0		 test	 eax, eax
  000f4	0f 94 c0	 sete	 al

; 148  : }

  000f7	8b 4d fc	 mov	 ecx, DWORD PTR __$ArrayPad$[ebp]
  000fa	33 cd		 xor	 ecx, ebp
  000fc	5e		 pop	 esi
  000fd	e8 00 00 00 00	 call	 @__security_check_cookie@4
  00102	c9		 leave
  00103	c3		 ret	 0
??$?8$04@@YA_NABVioHashString@@AAY04$$CBD@Z ENDP	; operator==<5>
_TEXT	ENDS
PUBLIC	__$ArrayPad$
PUBLIC	??$?8$06@@YA_NABVioHashString@@AAY06$$CBD@Z	; operator==<7>
; Function compile flags: /Ogsp
;	COMDAT ??$?8$06@@YA_NABVioHashString@@AAY06$$CBD@Z
_TEXT	SEGMENT
__t$ = -16						; size = 7
__$ArrayPad$ = -4					; size = 4
_lhs$ = 8						; size = 4
_t$ = 12						; size = 4
??$?8$06@@YA_NABVioHashString@@AAY06$$CBD@Z PROC	; operator==<7>, COMDAT

; 146  : {

  00000	55		 push	 ebp
  00001	8b ec		 mov	 ebp, esp
  00003	83 ec 10	 sub	 esp, 16			; 00000010H
  00006	a1 00 00 00 00	 mov	 eax, DWORD PTR ___security_cookie
  0000b	33 c5		 xor	 eax, ebp
  0000d	89 45 fc	 mov	 DWORD PTR __$ArrayPad$[ebp], eax
  00010	8b 45 0c	 mov	 eax, DWORD PTR _t$[ebp]

; 147  : 	_ENCSTR(t, _t); return ( strcmp( lhs.c_str(), _t ) == 0 );

  00013	8a 10		 mov	 dl, BYTE PTR [eax]
  00015	56		 push	 esi
  00016	57		 push	 edi
  00017	8b 7d 08	 mov	 edi, DWORD PTR _lhs$[ebp]
  0001a	84 d2		 test	 dl, dl
  0001c	0f 84 c0 00 00
	00		 je	 $LN96@operator@3
  00022	80 f2 ed	 xor	 dl, -19			; ffffffedH
  00025	88 55 f0	 mov	 BYTE PTR __t$[ebp], dl
  00028	8a 50 01	 mov	 dl, BYTE PTR [eax+1]
  0002b	84 d2		 test	 dl, dl
  0002d	0f 84 a9 00 00
	00		 je	 $LN95@operator@3
  00033	80 f2 ec	 xor	 dl, -20			; ffffffecH
  00036	88 55 f1	 mov	 BYTE PTR __t$[ebp+1], dl
  00039	8a 50 02	 mov	 dl, BYTE PTR [eax+2]
  0003c	84 d2		 test	 dl, dl
  0003e	0f 84 92 00 00
	00		 je	 $LN94@operator@3
  00044	80 f2 eb	 xor	 dl, -21			; ffffffebH
  00047	88 55 f2	 mov	 BYTE PTR __t$[ebp+2], dl
  0004a	8a 50 03	 mov	 dl, BYTE PTR [eax+3]
  0004d	84 d2		 test	 dl, dl
  0004f	74 7f		 je	 SHORT $LN93@operator@3
  00051	80 f2 ea	 xor	 dl, -22			; ffffffeaH
  00054	88 55 f3	 mov	 BYTE PTR __t$[ebp+3], dl
  00057	8a 50 04	 mov	 dl, BYTE PTR [eax+4]
  0005a	84 d2		 test	 dl, dl
  0005c	74 6c		 je	 SHORT $LN92@operator@3
  0005e	80 f2 ed	 xor	 dl, -19			; ffffffedH
  00061	88 55 f4	 mov	 BYTE PTR __t$[ebp+4], dl
  00064	8a 50 05	 mov	 dl, BYTE PTR [eax+5]
  00067	84 d2		 test	 dl, dl
  00069	74 59		 je	 SHORT $LN91@operator@3
  0006b	80 f2 ec	 xor	 dl, -20			; ffffffecH
  0006e	80 78 06 00	 cmp	 BYTE PTR [eax+6], 0
  00072	88 55 f5	 mov	 BYTE PTR __t$[ebp+5], dl
  00075	74 6f		 je	 SHORT $LN1@operator@3
  00077	8a 50 07	 mov	 dl, BYTE PTR [eax+7]
  0007a	84 d2		 test	 dl, dl
  0007c	74 40		 je	 SHORT $LN89@operator@3
  0007e	80 f2 ea	 xor	 dl, -22			; ffffffeaH
  00081	88 55 f7	 mov	 BYTE PTR __t$[ebp+7], dl
  00084	8a 50 08	 mov	 dl, BYTE PTR [eax+8]
  00087	84 d2		 test	 dl, dl
  00089	74 2d		 je	 SHORT $LN88@operator@3
  0008b	80 f2 ed	 xor	 dl, -19			; ffffffedH
  0008e	88 55 f8	 mov	 BYTE PTR __t$[ebp+8], dl
  00091	8a 50 09	 mov	 dl, BYTE PTR [eax+9]
  00094	84 d2		 test	 dl, dl
  00096	74 1a		 je	 SHORT $LN87@operator@3
  00098	8a 40 0a	 mov	 al, BYTE PTR [eax+10]
  0009b	80 f2 ec	 xor	 dl, -20			; ffffffecH
  0009e	88 55 f9	 mov	 BYTE PTR __t$[ebp+9], dl
  000a1	84 c0		 test	 al, al
  000a3	74 07		 je	 SHORT $LN86@operator@3
  000a5	34 eb		 xor	 al, -21			; ffffffebH
  000a7	88 45 fa	 mov	 BYTE PTR __t$[ebp+10], al
  000aa	eb 3a		 jmp	 SHORT $LN1@operator@3
$LN86@operator@3:
  000ac	c6 45 fa eb	 mov	 BYTE PTR __t$[ebp+10], -21 ; ffffffebH
  000b0	eb 34		 jmp	 SHORT $LN1@operator@3
$LN87@operator@3:
  000b2	c6 45 f9 ec	 mov	 BYTE PTR __t$[ebp+9], -20 ; ffffffecH
  000b6	eb 2e		 jmp	 SHORT $LN1@operator@3
$LN88@operator@3:
  000b8	c6 45 f8 ed	 mov	 BYTE PTR __t$[ebp+8], -19 ; ffffffedH
  000bc	eb 28		 jmp	 SHORT $LN1@operator@3
$LN89@operator@3:
  000be	c6 45 f7 ea	 mov	 BYTE PTR __t$[ebp+7], -22 ; ffffffeaH
  000c2	eb 22		 jmp	 SHORT $LN1@operator@3
$LN91@operator@3:
  000c4	c6 45 f5 ec	 mov	 BYTE PTR __t$[ebp+5], -20 ; ffffffecH
  000c8	eb 1c		 jmp	 SHORT $LN1@operator@3
$LN92@operator@3:
  000ca	c6 45 f4 ed	 mov	 BYTE PTR __t$[ebp+4], -19 ; ffffffedH
  000ce	eb 16		 jmp	 SHORT $LN1@operator@3
$LN93@operator@3:
  000d0	c6 45 f3 ea	 mov	 BYTE PTR __t$[ebp+3], -22 ; ffffffeaH
  000d4	eb 10		 jmp	 SHORT $LN1@operator@3
$LN94@operator@3:
  000d6	c6 45 f2 eb	 mov	 BYTE PTR __t$[ebp+2], -21 ; ffffffebH
  000da	eb 0a		 jmp	 SHORT $LN1@operator@3
$LN95@operator@3:
  000dc	c6 45 f1 ec	 mov	 BYTE PTR __t$[ebp+1], -20 ; ffffffecH
  000e0	eb 04		 jmp	 SHORT $LN1@operator@3
$LN96@operator@3:
  000e2	c6 45 f0 ed	 mov	 BYTE PTR __t$[ebp], -19	; ffffffedH
$LN1@operator@3:
  000e6	81 75 f0 ed ec
	eb ea		 xor	 DWORD PTR __t$[ebp], -353637139 ; eaebecedH
  000ed	6a 04		 push	 4
  000ef	c6 45 f6 00	 mov	 BYTE PTR __t$[ebp+6], 0
  000f3	58		 pop	 eax
$LL101@operator@3:
  000f4	8b c8		 mov	 ecx, eax
  000f6	81 e1 03 00 00
	80		 and	 ecx, -2147483645	; 80000003H
  000fc	79 05		 jns	 SHORT $LN115@operator@3
  000fe	49		 dec	 ecx
  000ff	83 c9 fc	 or	 ecx, -4			; fffffffcH
  00102	41		 inc	 ecx
$LN115@operator@3:
  00103	b2 ed		 mov	 dl, -19			; ffffffedH
  00105	2a d1		 sub	 dl, cl
  00107	30 54 05 f0	 xor	 BYTE PTR __t$[ebp+eax], dl
  0010b	40		 inc	 eax
  0010c	83 f8 06	 cmp	 eax, 6
  0010f	7c e3		 jl	 SHORT $LL101@operator@3
  00111	8b cf		 mov	 ecx, edi
  00113	8d 75 f0	 lea	 esi, DWORD PTR __t$[ebp]
  00116	ff 15 00 00 00
	00		 call	 DWORD PTR __imp_?c_str@ioHashString@@QBEPBDXZ
$LL111@operator@3:
  0011c	8a 08		 mov	 cl, BYTE PTR [eax]
  0011e	3a 0e		 cmp	 cl, BYTE PTR [esi]
  00120	75 1a		 jne	 SHORT $LN112@operator@3
  00122	84 c9		 test	 cl, cl
  00124	74 12		 je	 SHORT $LN113@operator@3
  00126	8a 48 01	 mov	 cl, BYTE PTR [eax+1]
  00129	3a 4e 01	 cmp	 cl, BYTE PTR [esi+1]
  0012c	75 0e		 jne	 SHORT $LN112@operator@3
  0012e	83 c0 02	 add	 eax, 2
  00131	83 c6 02	 add	 esi, 2
  00134	84 c9		 test	 cl, cl
  00136	75 e4		 jne	 SHORT $LL111@operator@3
$LN113@operator@3:
  00138	33 c0		 xor	 eax, eax
  0013a	eb 05		 jmp	 SHORT $LN114@operator@3
$LN112@operator@3:
  0013c	1b c0		 sbb	 eax, eax
  0013e	83 d8 ff	 sbb	 eax, -1
$LN114@operator@3:
  00141	33 c9		 xor	 ecx, ecx
  00143	85 c0		 test	 eax, eax
  00145	0f 94 c0	 sete	 al

; 148  : }

  00148	8b 4d fc	 mov	 ecx, DWORD PTR __$ArrayPad$[ebp]
  0014b	5f		 pop	 edi
  0014c	33 cd		 xor	 ecx, ebp
  0014e	5e		 pop	 esi
  0014f	e8 00 00 00 00	 call	 @__security_check_cookie@4
  00154	c9		 leave
  00155	c3		 ret	 0
??$?8$06@@YA_NABVioHashString@@AAY06$$CBD@Z ENDP	; operator==<7>
_TEXT	ENDS
PUBLIC	__$ArrayPad$
PUBLIC	??$?8$09@@YA_NABVioHashString@@AAY09$$CBD@Z	; operator==<10>
; Function compile flags: /Ogsp
;	COMDAT ??$?8$09@@YA_NABVioHashString@@AAY09$$CBD@Z
_TEXT	SEGMENT
__t$ = -20						; size = 10
__$ArrayPad$ = -4					; size = 4
_lhs$ = 8						; size = 4
_t$ = 12						; size = 4
??$?8$09@@YA_NABVioHashString@@AAY09$$CBD@Z PROC	; operator==<10>, COMDAT

; 146  : {

  00000	55		 push	 ebp
  00001	8b ec		 mov	 ebp, esp
  00003	83 ec 14	 sub	 esp, 20			; 00000014H
  00006	a1 00 00 00 00	 mov	 eax, DWORD PTR ___security_cookie
  0000b	33 c5		 xor	 eax, ebp
  0000d	89 45 fc	 mov	 DWORD PTR __$ArrayPad$[ebp], eax
  00010	8b 45 0c	 mov	 eax, DWORD PTR _t$[ebp]

; 147  : 	_ENCSTR(t, _t); return ( strcmp( lhs.c_str(), _t ) == 0 );

  00013	8a 10		 mov	 dl, BYTE PTR [eax]
  00015	8b 4d 08	 mov	 ecx, DWORD PTR _lhs$[ebp]
  00018	84 d2		 test	 dl, dl
  0001a	0f 84 0d 01 00
	00		 je	 $LN96@operator@4
  00020	80 f2 ed	 xor	 dl, -19			; ffffffedH
  00023	88 55 ec	 mov	 BYTE PTR __t$[ebp], dl
  00026	8a 50 01	 mov	 dl, BYTE PTR [eax+1]
  00029	84 d2		 test	 dl, dl
  0002b	0f 84 f6 00 00
	00		 je	 $LN95@operator@4
  00031	80 f2 ec	 xor	 dl, -20			; ffffffecH
  00034	88 55 ed	 mov	 BYTE PTR __t$[ebp+1], dl
  00037	8a 50 02	 mov	 dl, BYTE PTR [eax+2]
  0003a	84 d2		 test	 dl, dl
  0003c	0f 84 df 00 00
	00		 je	 $LN94@operator@4
  00042	80 f2 eb	 xor	 dl, -21			; ffffffebH
  00045	88 55 ee	 mov	 BYTE PTR __t$[ebp+2], dl
  00048	8a 50 03	 mov	 dl, BYTE PTR [eax+3]
  0004b	84 d2		 test	 dl, dl
  0004d	0f 84 c8 00 00
	00		 je	 $LN93@operator@4
  00053	80 f2 ea	 xor	 dl, -22			; ffffffeaH
  00056	88 55 ef	 mov	 BYTE PTR __t$[ebp+3], dl
  00059	8a 50 04	 mov	 dl, BYTE PTR [eax+4]
  0005c	84 d2		 test	 dl, dl
  0005e	0f 84 b1 00 00
	00		 je	 $LN92@operator@4
  00064	80 f2 ed	 xor	 dl, -19			; ffffffedH
  00067	88 55 f0	 mov	 BYTE PTR __t$[ebp+4], dl
  0006a	8a 50 05	 mov	 dl, BYTE PTR [eax+5]
  0006d	84 d2		 test	 dl, dl
  0006f	0f 84 9a 00 00
	00		 je	 $LN91@operator@4
  00075	80 f2 ec	 xor	 dl, -20			; ffffffecH
  00078	88 55 f1	 mov	 BYTE PTR __t$[ebp+5], dl
  0007b	8a 50 06	 mov	 dl, BYTE PTR [eax+6]
  0007e	84 d2		 test	 dl, dl
  00080	0f 84 83 00 00
	00		 je	 $LN90@operator@4
  00086	80 f2 eb	 xor	 dl, -21			; ffffffebH
  00089	88 55 f2	 mov	 BYTE PTR __t$[ebp+6], dl
  0008c	8a 50 07	 mov	 dl, BYTE PTR [eax+7]
  0008f	84 d2		 test	 dl, dl
  00091	74 70		 je	 SHORT $LN89@operator@4
  00093	80 f2 ea	 xor	 dl, -22			; ffffffeaH
  00096	88 55 f3	 mov	 BYTE PTR __t$[ebp+7], dl
  00099	8a 50 08	 mov	 dl, BYTE PTR [eax+8]
  0009c	84 d2		 test	 dl, dl
  0009e	74 5d		 je	 SHORT $LN88@operator@4
  000a0	80 f2 ed	 xor	 dl, -19			; ffffffedH
  000a3	80 78 09 00	 cmp	 BYTE PTR [eax+9], 0
  000a7	88 55 f4	 mov	 BYTE PTR __t$[ebp+8], dl
  000aa	0f 84 81 00 00
	00		 je	 $LN1@operator@4
  000b0	8a 50 0a	 mov	 dl, BYTE PTR [eax+10]
  000b3	84 d2		 test	 dl, dl
  000b5	74 40		 je	 SHORT $LN86@operator@4
  000b7	80 f2 eb	 xor	 dl, -21			; ffffffebH
  000ba	88 55 f6	 mov	 BYTE PTR __t$[ebp+10], dl
  000bd	8a 50 0b	 mov	 dl, BYTE PTR [eax+11]
  000c0	84 d2		 test	 dl, dl
  000c2	74 2d		 je	 SHORT $LN85@operator@4
  000c4	80 f2 ea	 xor	 dl, -22			; ffffffeaH
  000c7	88 55 f7	 mov	 BYTE PTR __t$[ebp+11], dl
  000ca	8a 50 0c	 mov	 dl, BYTE PTR [eax+12]
  000cd	84 d2		 test	 dl, dl
  000cf	74 1a		 je	 SHORT $LN84@operator@4
  000d1	8a 40 0d	 mov	 al, BYTE PTR [eax+13]
  000d4	80 f2 ed	 xor	 dl, -19			; ffffffedH
  000d7	88 55 f8	 mov	 BYTE PTR __t$[ebp+12], dl
  000da	84 c0		 test	 al, al
  000dc	74 07		 je	 SHORT $LN83@operator@4
  000de	34 ec		 xor	 al, -20			; ffffffecH
  000e0	88 45 f9	 mov	 BYTE PTR __t$[ebp+13], al
  000e3	eb 4c		 jmp	 SHORT $LN1@operator@4
$LN83@operator@4:
  000e5	c6 45 f9 ec	 mov	 BYTE PTR __t$[ebp+13], -20 ; ffffffecH
  000e9	eb 46		 jmp	 SHORT $LN1@operator@4
$LN84@operator@4:
  000eb	c6 45 f8 ed	 mov	 BYTE PTR __t$[ebp+12], -19 ; ffffffedH
  000ef	eb 40		 jmp	 SHORT $LN1@operator@4
$LN85@operator@4:
  000f1	c6 45 f7 ea	 mov	 BYTE PTR __t$[ebp+11], -22 ; ffffffeaH
  000f5	eb 3a		 jmp	 SHORT $LN1@operator@4
$LN86@operator@4:
  000f7	c6 45 f6 eb	 mov	 BYTE PTR __t$[ebp+10], -21 ; ffffffebH
  000fb	eb 34		 jmp	 SHORT $LN1@operator@4
$LN88@operator@4:
  000fd	c6 45 f4 ed	 mov	 BYTE PTR __t$[ebp+8], -19 ; ffffffedH
  00101	eb 2e		 jmp	 SHORT $LN1@operator@4
$LN89@operator@4:
  00103	c6 45 f3 ea	 mov	 BYTE PTR __t$[ebp+7], -22 ; ffffffeaH
  00107	eb 28		 jmp	 SHORT $LN1@operator@4
$LN90@operator@4:
  00109	c6 45 f2 eb	 mov	 BYTE PTR __t$[ebp+6], -21 ; ffffffebH
  0010d	eb 22		 jmp	 SHORT $LN1@operator@4
$LN91@operator@4:
  0010f	c6 45 f1 ec	 mov	 BYTE PTR __t$[ebp+5], -20 ; ffffffecH
  00113	eb 1c		 jmp	 SHORT $LN1@operator@4
$LN92@operator@4:
  00115	c6 45 f0 ed	 mov	 BYTE PTR __t$[ebp+4], -19 ; ffffffedH
  00119	eb 16		 jmp	 SHORT $LN1@operator@4
$LN93@operator@4:
  0011b	c6 45 ef ea	 mov	 BYTE PTR __t$[ebp+3], -22 ; ffffffeaH
  0011f	eb 10		 jmp	 SHORT $LN1@operator@4
$LN94@operator@4:
  00121	c6 45 ee eb	 mov	 BYTE PTR __t$[ebp+2], -21 ; ffffffebH
  00125	eb 0a		 jmp	 SHORT $LN1@operator@4
$LN95@operator@4:
  00127	c6 45 ed ec	 mov	 BYTE PTR __t$[ebp+1], -20 ; ffffffecH
  0012b	eb 04		 jmp	 SHORT $LN1@operator@4
$LN96@operator@4:
  0012d	c6 45 ec ed	 mov	 BYTE PTR __t$[ebp], -19	; ffffffedH
$LN1@operator@4:
  00131	6a 02		 push	 2
  00133	8d 45 ec	 lea	 eax, DWORD PTR __t$[ebp]
  00136	c6 45 f5 00	 mov	 BYTE PTR __t$[ebp+9], 0
  0013a	5a		 pop	 edx
$LL104@operator@4:
  0013b	81 30 ed ec eb
	ea		 xor	 DWORD PTR [eax], -353637139 ; eaebecedH
  00141	83 c0 04	 add	 eax, 4
  00144	4a		 dec	 edx
  00145	75 f4		 jne	 SHORT $LL104@operator@4
  00147	80 75 f4 ed	 xor	 BYTE PTR __t$[ebp+8], -19 ; ffffffedH
  0014b	56		 push	 esi
  0014c	8d 75 ec	 lea	 esi, DWORD PTR __t$[ebp]
  0014f	ff 15 00 00 00
	00		 call	 DWORD PTR __imp_?c_str@ioHashString@@QBEPBDXZ
$LL111@operator@4:
  00155	8a 08		 mov	 cl, BYTE PTR [eax]
  00157	3a 0e		 cmp	 cl, BYTE PTR [esi]
  00159	75 1a		 jne	 SHORT $LN112@operator@4
  0015b	84 c9		 test	 cl, cl
  0015d	74 12		 je	 SHORT $LN113@operator@4
  0015f	8a 48 01	 mov	 cl, BYTE PTR [eax+1]
  00162	3a 4e 01	 cmp	 cl, BYTE PTR [esi+1]
  00165	75 0e		 jne	 SHORT $LN112@operator@4
  00167	83 c0 02	 add	 eax, 2
  0016a	83 c6 02	 add	 esi, 2
  0016d	84 c9		 test	 cl, cl
  0016f	75 e4		 jne	 SHORT $LL111@operator@4
$LN113@operator@4:
  00171	33 c0		 xor	 eax, eax
  00173	eb 05		 jmp	 SHORT $LN114@operator@4
$LN112@operator@4:
  00175	1b c0		 sbb	 eax, eax
  00177	83 d8 ff	 sbb	 eax, -1
$LN114@operator@4:
  0017a	33 c9		 xor	 ecx, ecx
  0017c	85 c0		 test	 eax, eax
  0017e	0f 94 c0	 sete	 al

; 148  : }

  00181	8b 4d fc	 mov	 ecx, DWORD PTR __$ArrayPad$[ebp]
  00184	33 cd		 xor	 ecx, ebp
  00186	5e		 pop	 esi
  00187	e8 00 00 00 00	 call	 @__security_check_cookie@4
  0018c	c9		 leave
  0018d	c3		 ret	 0
??$?8$09@@YA_NABVioHashString@@AAY09$$CBD@Z ENDP	; operator==<10>
_TEXT	ENDS
PUBLIC	__$ArrayPad$
PUBLIC	??$?8$07@@YA_NABVioHashString@@AAY07$$CBD@Z	; operator==<8>
; Function compile flags: /Ogsp
;	COMDAT ??$?8$07@@YA_NABVioHashString@@AAY07$$CBD@Z
_TEXT	SEGMENT
__t$ = -16						; size = 8
__$ArrayPad$ = -4					; size = 4
_lhs$ = 8						; size = 4
_t$ = 12						; size = 4
??$?8$07@@YA_NABVioHashString@@AAY07$$CBD@Z PROC	; operator==<8>, COMDAT

; 146  : {

  00000	55		 push	 ebp
  00001	8b ec		 mov	 ebp, esp
  00003	83 ec 10	 sub	 esp, 16			; 00000010H
  00006	a1 00 00 00 00	 mov	 eax, DWORD PTR ___security_cookie
  0000b	33 c5		 xor	 eax, ebp
  0000d	89 45 fc	 mov	 DWORD PTR __$ArrayPad$[ebp], eax
  00010	8b 45 0c	 mov	 eax, DWORD PTR _t$[ebp]

; 147  : 	_ENCSTR(t, _t); return ( strcmp( lhs.c_str(), _t ) == 0 );

  00013	8a 10		 mov	 dl, BYTE PTR [eax]
  00015	56		 push	 esi
  00016	57		 push	 edi
  00017	8b 7d 08	 mov	 edi, DWORD PTR _lhs$[ebp]
  0001a	84 d2		 test	 dl, dl
  0001c	0f 84 d7 00 00
	00		 je	 $LN96@operator@5
  00022	80 f2 ed	 xor	 dl, -19			; ffffffedH
  00025	88 55 f0	 mov	 BYTE PTR __t$[ebp], dl
  00028	8a 50 01	 mov	 dl, BYTE PTR [eax+1]
  0002b	84 d2		 test	 dl, dl
  0002d	0f 84 c0 00 00
	00		 je	 $LN95@operator@5
  00033	80 f2 ec	 xor	 dl, -20			; ffffffecH
  00036	88 55 f1	 mov	 BYTE PTR __t$[ebp+1], dl
  00039	8a 50 02	 mov	 dl, BYTE PTR [eax+2]
  0003c	84 d2		 test	 dl, dl
  0003e	0f 84 a9 00 00
	00		 je	 $LN94@operator@5
  00044	80 f2 eb	 xor	 dl, -21			; ffffffebH
  00047	88 55 f2	 mov	 BYTE PTR __t$[ebp+2], dl
  0004a	8a 50 03	 mov	 dl, BYTE PTR [eax+3]
  0004d	84 d2		 test	 dl, dl
  0004f	0f 84 92 00 00
	00		 je	 $LN93@operator@5
  00055	80 f2 ea	 xor	 dl, -22			; ffffffeaH
  00058	88 55 f3	 mov	 BYTE PTR __t$[ebp+3], dl
  0005b	8a 50 04	 mov	 dl, BYTE PTR [eax+4]
  0005e	84 d2		 test	 dl, dl
  00060	74 7f		 je	 SHORT $LN92@operator@5
  00062	80 f2 ed	 xor	 dl, -19			; ffffffedH
  00065	88 55 f4	 mov	 BYTE PTR __t$[ebp+4], dl
  00068	8a 50 05	 mov	 dl, BYTE PTR [eax+5]
  0006b	84 d2		 test	 dl, dl
  0006d	74 6c		 je	 SHORT $LN91@operator@5
  0006f	80 f2 ec	 xor	 dl, -20			; ffffffecH
  00072	88 55 f5	 mov	 BYTE PTR __t$[ebp+5], dl
  00075	8a 50 06	 mov	 dl, BYTE PTR [eax+6]
  00078	84 d2		 test	 dl, dl
  0007a	74 59		 je	 SHORT $LN90@operator@5
  0007c	80 f2 eb	 xor	 dl, -21			; ffffffebH
  0007f	80 78 07 00	 cmp	 BYTE PTR [eax+7], 0
  00083	88 55 f6	 mov	 BYTE PTR __t$[ebp+6], dl
  00086	74 75		 je	 SHORT $LN1@operator@5
  00088	8a 50 08	 mov	 dl, BYTE PTR [eax+8]
  0008b	84 d2		 test	 dl, dl
  0008d	74 40		 je	 SHORT $LN88@operator@5
  0008f	80 f2 ed	 xor	 dl, -19			; ffffffedH
  00092	88 55 f8	 mov	 BYTE PTR __t$[ebp+8], dl
  00095	8a 50 09	 mov	 dl, BYTE PTR [eax+9]
  00098	84 d2		 test	 dl, dl
  0009a	74 2d		 je	 SHORT $LN87@operator@5
  0009c	80 f2 ec	 xor	 dl, -20			; ffffffecH
  0009f	88 55 f9	 mov	 BYTE PTR __t$[ebp+9], dl
  000a2	8a 50 0a	 mov	 dl, BYTE PTR [eax+10]
  000a5	84 d2		 test	 dl, dl
  000a7	74 1a		 je	 SHORT $LN86@operator@5
  000a9	8a 40 0b	 mov	 al, BYTE PTR [eax+11]
  000ac	80 f2 eb	 xor	 dl, -21			; ffffffebH
  000af	88 55 fa	 mov	 BYTE PTR __t$[ebp+10], dl
  000b2	84 c0		 test	 al, al
  000b4	74 07		 je	 SHORT $LN85@operator@5
  000b6	34 ea		 xor	 al, -22			; ffffffeaH
  000b8	88 45 fb	 mov	 BYTE PTR __t$[ebp+11], al
  000bb	eb 40		 jmp	 SHORT $LN1@operator@5
$LN85@operator@5:
  000bd	c6 45 fb ea	 mov	 BYTE PTR __t$[ebp+11], -22 ; ffffffeaH
  000c1	eb 3a		 jmp	 SHORT $LN1@operator@5
$LN86@operator@5:
  000c3	c6 45 fa eb	 mov	 BYTE PTR __t$[ebp+10], -21 ; ffffffebH
  000c7	eb 34		 jmp	 SHORT $LN1@operator@5
$LN87@operator@5:
  000c9	c6 45 f9 ec	 mov	 BYTE PTR __t$[ebp+9], -20 ; ffffffecH
  000cd	eb 2e		 jmp	 SHORT $LN1@operator@5
$LN88@operator@5:
  000cf	c6 45 f8 ed	 mov	 BYTE PTR __t$[ebp+8], -19 ; ffffffedH
  000d3	eb 28		 jmp	 SHORT $LN1@operator@5
$LN90@operator@5:
  000d5	c6 45 f6 eb	 mov	 BYTE PTR __t$[ebp+6], -21 ; ffffffebH
  000d9	eb 22		 jmp	 SHORT $LN1@operator@5
$LN91@operator@5:
  000db	c6 45 f5 ec	 mov	 BYTE PTR __t$[ebp+5], -20 ; ffffffecH
  000df	eb 1c		 jmp	 SHORT $LN1@operator@5
$LN92@operator@5:
  000e1	c6 45 f4 ed	 mov	 BYTE PTR __t$[ebp+4], -19 ; ffffffedH
  000e5	eb 16		 jmp	 SHORT $LN1@operator@5
$LN93@operator@5:
  000e7	c6 45 f3 ea	 mov	 BYTE PTR __t$[ebp+3], -22 ; ffffffeaH
  000eb	eb 10		 jmp	 SHORT $LN1@operator@5
$LN94@operator@5:
  000ed	c6 45 f2 eb	 mov	 BYTE PTR __t$[ebp+2], -21 ; ffffffebH
  000f1	eb 0a		 jmp	 SHORT $LN1@operator@5
$LN95@operator@5:
  000f3	c6 45 f1 ec	 mov	 BYTE PTR __t$[ebp+1], -20 ; ffffffecH
  000f7	eb 04		 jmp	 SHORT $LN1@operator@5
$LN96@operator@5:
  000f9	c6 45 f0 ed	 mov	 BYTE PTR __t$[ebp], -19	; ffffffedH
$LN1@operator@5:
  000fd	81 75 f0 ed ec
	eb ea		 xor	 DWORD PTR __t$[ebp], -353637139 ; eaebecedH
  00104	6a 04		 push	 4
  00106	c6 45 f7 00	 mov	 BYTE PTR __t$[ebp+7], 0
  0010a	58		 pop	 eax
$LL101@operator@5:
  0010b	8b c8		 mov	 ecx, eax
  0010d	81 e1 03 00 00
	80		 and	 ecx, -2147483645	; 80000003H
  00113	79 05		 jns	 SHORT $LN115@operator@5
  00115	49		 dec	 ecx
  00116	83 c9 fc	 or	 ecx, -4			; fffffffcH
  00119	41		 inc	 ecx
$LN115@operator@5:
  0011a	b2 ed		 mov	 dl, -19			; ffffffedH
  0011c	2a d1		 sub	 dl, cl
  0011e	30 54 05 f0	 xor	 BYTE PTR __t$[ebp+eax], dl
  00122	40		 inc	 eax
  00123	83 f8 07	 cmp	 eax, 7
  00126	7c e3		 jl	 SHORT $LL101@operator@5
  00128	8b cf		 mov	 ecx, edi
  0012a	8d 75 f0	 lea	 esi, DWORD PTR __t$[ebp]
  0012d	ff 15 00 00 00
	00		 call	 DWORD PTR __imp_?c_str@ioHashString@@QBEPBDXZ
$LL111@operator@5:
  00133	8a 08		 mov	 cl, BYTE PTR [eax]
  00135	3a 0e		 cmp	 cl, BYTE PTR [esi]
  00137	75 1a		 jne	 SHORT $LN112@operator@5
  00139	84 c9		 test	 cl, cl
  0013b	74 12		 je	 SHORT $LN113@operator@5
  0013d	8a 48 01	 mov	 cl, BYTE PTR [eax+1]
  00140	3a 4e 01	 cmp	 cl, BYTE PTR [esi+1]
  00143	75 0e		 jne	 SHORT $LN112@operator@5
  00145	83 c0 02	 add	 eax, 2
  00148	83 c6 02	 add	 esi, 2
  0014b	84 c9		 test	 cl, cl
  0014d	75 e4		 jne	 SHORT $LL111@operator@5
$LN113@operator@5:
  0014f	33 c0		 xor	 eax, eax
  00151	eb 05		 jmp	 SHORT $LN114@operator@5
$LN112@operator@5:
  00153	1b c0		 sbb	 eax, eax
  00155	83 d8 ff	 sbb	 eax, -1
$LN114@operator@5:
  00158	33 c9		 xor	 ecx, ecx
  0015a	85 c0		 test	 eax, eax
  0015c	0f 94 c0	 sete	 al

; 148  : }

  0015f	8b 4d fc	 mov	 ecx, DWORD PTR __$ArrayPad$[ebp]
  00162	5f		 pop	 edi
  00163	33 cd		 xor	 ecx, ebp
  00165	5e		 pop	 esi
  00166	e8 00 00 00 00	 call	 @__security_check_cookie@4
  0016b	c9		 leave
  0016c	c3		 ret	 0
??$?8$07@@YA_NABVioHashString@@AAY07$$CBD@Z ENDP	; operator==<8>
_TEXT	ENDS
PUBLIC	__$ArrayPad$
PUBLIC	??$GetFloatAttribute_e@$09@ioXMLElement@@QBEMAAY09$$CBD@Z ; ioXMLElement::GetFloatAttribute_e<10>
EXTRN	__imp_?GetFloatAttribute@ioXMLElement@@QBEMPBD@Z:PROC
; Function compile flags: /Ogsp
; File d:\lost saga for developer\youtube\tutorial\source\src\io3dengine\ioxmlelement.h
;	COMDAT ??$GetFloatAttribute_e@$09@ioXMLElement@@QBEMAAY09$$CBD@Z
_TEXT	SEGMENT
__k$ = -20						; size = 10
__$ArrayPad$ = -4					; size = 4
_k$ = 8							; size = 4
??$GetFloatAttribute_e@$09@ioXMLElement@@QBEMAAY09$$CBD@Z PROC ; ioXMLElement::GetFloatAttribute_e<10>, COMDAT
; _this$ = ecx

; 100  : 	{

  00000	55		 push	 ebp
  00001	8b ec		 mov	 ebp, esp
  00003	83 ec 14	 sub	 esp, 20			; 00000014H
  00006	a1 00 00 00 00	 mov	 eax, DWORD PTR ___security_cookie
  0000b	33 c5		 xor	 eax, ebp
  0000d	89 45 fc	 mov	 DWORD PTR __$ArrayPad$[ebp], eax
  00010	8b 45 08	 mov	 eax, DWORD PTR _k$[ebp]

; 101  : 		_ENCSTR(k, _k);

  00013	8a 10		 mov	 dl, BYTE PTR [eax]
  00015	84 d2		 test	 dl, dl
  00017	0f 84 0d 01 00
	00		 je	 $LN96@GetFloatAt
  0001d	80 f2 ed	 xor	 dl, -19			; ffffffedH
  00020	88 55 ec	 mov	 BYTE PTR __k$[ebp], dl
  00023	8a 50 01	 mov	 dl, BYTE PTR [eax+1]
  00026	84 d2		 test	 dl, dl
  00028	0f 84 f6 00 00
	00		 je	 $LN95@GetFloatAt
  0002e	80 f2 ec	 xor	 dl, -20			; ffffffecH
  00031	88 55 ed	 mov	 BYTE PTR __k$[ebp+1], dl
  00034	8a 50 02	 mov	 dl, BYTE PTR [eax+2]
  00037	84 d2		 test	 dl, dl
  00039	0f 84 df 00 00
	00		 je	 $LN94@GetFloatAt
  0003f	80 f2 eb	 xor	 dl, -21			; ffffffebH
  00042	88 55 ee	 mov	 BYTE PTR __k$[ebp+2], dl
  00045	8a 50 03	 mov	 dl, BYTE PTR [eax+3]
  00048	84 d2		 test	 dl, dl
  0004a	0f 84 c8 00 00
	00		 je	 $LN93@GetFloatAt
  00050	80 f2 ea	 xor	 dl, -22			; ffffffeaH
  00053	88 55 ef	 mov	 BYTE PTR __k$[ebp+3], dl
  00056	8a 50 04	 mov	 dl, BYTE PTR [eax+4]
  00059	84 d2		 test	 dl, dl
  0005b	0f 84 b1 00 00
	00		 je	 $LN92@GetFloatAt
  00061	80 f2 ed	 xor	 dl, -19			; ffffffedH
  00064	88 55 f0	 mov	 BYTE PTR __k$[ebp+4], dl
  00067	8a 50 05	 mov	 dl, BYTE PTR [eax+5]
  0006a	84 d2		 test	 dl, dl
  0006c	0f 84 9a 00 00
	00		 je	 $LN91@GetFloatAt
  00072	80 f2 ec	 xor	 dl, -20			; ffffffecH
  00075	88 55 f1	 mov	 BYTE PTR __k$[ebp+5], dl
  00078	8a 50 06	 mov	 dl, BYTE PTR [eax+6]
  0007b	84 d2		 test	 dl, dl
  0007d	0f 84 83 00 00
	00		 je	 $LN90@GetFloatAt
  00083	80 f2 eb	 xor	 dl, -21			; ffffffebH
  00086	88 55 f2	 mov	 BYTE PTR __k$[ebp+6], dl
  00089	8a 50 07	 mov	 dl, BYTE PTR [eax+7]
  0008c	84 d2		 test	 dl, dl
  0008e	74 70		 je	 SHORT $LN89@GetFloatAt
  00090	80 f2 ea	 xor	 dl, -22			; ffffffeaH
  00093	88 55 f3	 mov	 BYTE PTR __k$[ebp+7], dl
  00096	8a 50 08	 mov	 dl, BYTE PTR [eax+8]
  00099	84 d2		 test	 dl, dl
  0009b	74 5d		 je	 SHORT $LN88@GetFloatAt
  0009d	80 f2 ed	 xor	 dl, -19			; ffffffedH
  000a0	80 78 09 00	 cmp	 BYTE PTR [eax+9], 0
  000a4	88 55 f4	 mov	 BYTE PTR __k$[ebp+8], dl
  000a7	0f 84 81 00 00
	00		 je	 $LN1@GetFloatAt
  000ad	8a 50 0a	 mov	 dl, BYTE PTR [eax+10]
  000b0	84 d2		 test	 dl, dl
  000b2	74 40		 je	 SHORT $LN86@GetFloatAt
  000b4	80 f2 eb	 xor	 dl, -21			; ffffffebH
  000b7	88 55 f6	 mov	 BYTE PTR __k$[ebp+10], dl
  000ba	8a 50 0b	 mov	 dl, BYTE PTR [eax+11]
  000bd	84 d2		 test	 dl, dl
  000bf	74 2d		 je	 SHORT $LN85@GetFloatAt
  000c1	80 f2 ea	 xor	 dl, -22			; ffffffeaH
  000c4	88 55 f7	 mov	 BYTE PTR __k$[ebp+11], dl
  000c7	8a 50 0c	 mov	 dl, BYTE PTR [eax+12]
  000ca	84 d2		 test	 dl, dl
  000cc	74 1a		 je	 SHORT $LN84@GetFloatAt
  000ce	8a 40 0d	 mov	 al, BYTE PTR [eax+13]
  000d1	80 f2 ed	 xor	 dl, -19			; ffffffedH
  000d4	88 55 f8	 mov	 BYTE PTR __k$[ebp+12], dl
  000d7	84 c0		 test	 al, al
  000d9	74 07		 je	 SHORT $LN83@GetFloatAt
  000db	34 ec		 xor	 al, -20			; ffffffecH
  000dd	88 45 f9	 mov	 BYTE PTR __k$[ebp+13], al
  000e0	eb 4c		 jmp	 SHORT $LN1@GetFloatAt
$LN83@GetFloatAt:
  000e2	c6 45 f9 ec	 mov	 BYTE PTR __k$[ebp+13], -20 ; ffffffecH
  000e6	eb 46		 jmp	 SHORT $LN1@GetFloatAt
$LN84@GetFloatAt:
  000e8	c6 45 f8 ed	 mov	 BYTE PTR __k$[ebp+12], -19 ; ffffffedH
  000ec	eb 40		 jmp	 SHORT $LN1@GetFloatAt
$LN85@GetFloatAt:
  000ee	c6 45 f7 ea	 mov	 BYTE PTR __k$[ebp+11], -22 ; ffffffeaH
  000f2	eb 3a		 jmp	 SHORT $LN1@GetFloatAt
$LN86@GetFloatAt:
  000f4	c6 45 f6 eb	 mov	 BYTE PTR __k$[ebp+10], -21 ; ffffffebH
  000f8	eb 34		 jmp	 SHORT $LN1@GetFloatAt
$LN88@GetFloatAt:
  000fa	c6 45 f4 ed	 mov	 BYTE PTR __k$[ebp+8], -19 ; ffffffedH
  000fe	eb 2e		 jmp	 SHORT $LN1@GetFloatAt
$LN89@GetFloatAt:
  00100	c6 45 f3 ea	 mov	 BYTE PTR __k$[ebp+7], -22 ; ffffffeaH
  00104	eb 28		 jmp	 SHORT $LN1@GetFloatAt
$LN90@GetFloatAt:
  00106	c6 45 f2 eb	 mov	 BYTE PTR __k$[ebp+6], -21 ; ffffffebH
  0010a	eb 22		 jmp	 SHORT $LN1@GetFloatAt
$LN91@GetFloatAt:
  0010c	c6 45 f1 ec	 mov	 BYTE PTR __k$[ebp+5], -20 ; ffffffecH
  00110	eb 1c		 jmp	 SHORT $LN1@GetFloatAt
$LN92@GetFloatAt:
  00112	c6 45 f0 ed	 mov	 BYTE PTR __k$[ebp+4], -19 ; ffffffedH
  00116	eb 16		 jmp	 SHORT $LN1@GetFloatAt
$LN93@GetFloatAt:
  00118	c6 45 ef ea	 mov	 BYTE PTR __k$[ebp+3], -22 ; ffffffeaH
  0011c	eb 10		 jmp	 SHORT $LN1@GetFloatAt
$LN94@GetFloatAt:
  0011e	c6 45 ee eb	 mov	 BYTE PTR __k$[ebp+2], -21 ; ffffffebH
  00122	eb 0a		 jmp	 SHORT $LN1@GetFloatAt
$LN95@GetFloatAt:
  00124	c6 45 ed ec	 mov	 BYTE PTR __k$[ebp+1], -20 ; ffffffecH
  00128	eb 04		 jmp	 SHORT $LN1@GetFloatAt
$LN96@GetFloatAt:
  0012a	c6 45 ec ed	 mov	 BYTE PTR __k$[ebp], -19	; ffffffedH
$LN1@GetFloatAt:
  0012e	6a 02		 push	 2
  00130	8d 45 ec	 lea	 eax, DWORD PTR __k$[ebp]
  00133	c6 45 f5 00	 mov	 BYTE PTR __k$[ebp+9], 0
  00137	5a		 pop	 edx
$LL104@GetFloatAt:
  00138	81 30 ed ec eb
	ea		 xor	 DWORD PTR [eax], -353637139 ; eaebecedH
  0013e	83 c0 04	 add	 eax, 4
  00141	4a		 dec	 edx
  00142	75 f4		 jne	 SHORT $LL104@GetFloatAt
  00144	80 75 f4 ed	 xor	 BYTE PTR __k$[ebp+8], -19 ; ffffffedH

; 102  : 		return GetFloatAttribute(_k);

  00148	8d 45 ec	 lea	 eax, DWORD PTR __k$[ebp]
  0014b	50		 push	 eax
  0014c	ff 15 00 00 00
	00		 call	 DWORD PTR __imp_?GetFloatAttribute@ioXMLElement@@QBEMPBD@Z

; 103  : 	}

  00152	8b 4d fc	 mov	 ecx, DWORD PTR __$ArrayPad$[ebp]
  00155	33 cd		 xor	 ecx, ebp
  00157	e8 00 00 00 00	 call	 @__security_check_cookie@4
  0015c	c9		 leave
  0015d	c2 04 00	 ret	 4
??$GetFloatAttribute_e@$09@ioXMLElement@@QBEMAAY09$$CBD@Z ENDP ; ioXMLElement::GetFloatAttribute_e<10>
_TEXT	ENDS
PUBLIC	__$ArrayPad$
PUBLIC	??$GetFloatAttribute_e@$0O@@ioXMLElement@@QBEMAAY0O@$$CBD@Z ; ioXMLElement::GetFloatAttribute_e<14>
; Function compile flags: /Ogsp
;	COMDAT ??$GetFloatAttribute_e@$0O@@ioXMLElement@@QBEMAAY0O@$$CBD@Z
_TEXT	SEGMENT
__k$ = -24						; size = 14
__$ArrayPad$ = -4					; size = 4
_k$ = 8							; size = 4
??$GetFloatAttribute_e@$0O@@ioXMLElement@@QBEMAAY0O@$$CBD@Z PROC ; ioXMLElement::GetFloatAttribute_e<14>, COMDAT
; _this$ = ecx

; 100  : 	{

  00000	55		 push	 ebp
  00001	8b ec		 mov	 ebp, esp
  00003	83 ec 18	 sub	 esp, 24			; 00000018H
  00006	a1 00 00 00 00	 mov	 eax, DWORD PTR ___security_cookie
  0000b	33 c5		 xor	 eax, ebp
  0000d	89 45 fc	 mov	 DWORD PTR __$ArrayPad$[ebp], eax
  00010	8b 45 08	 mov	 eax, DWORD PTR _k$[ebp]

; 101  : 		_ENCSTR(k, _k);

  00013	8a 10		 mov	 dl, BYTE PTR [eax]
  00015	56		 push	 esi
  00016	8b f1		 mov	 esi, ecx
  00018	84 d2		 test	 dl, dl
  0001a	0f 84 64 01 00
	00		 je	 $LN96@GetFloatAt@2
  00020	80 f2 ed	 xor	 dl, -19			; ffffffedH
  00023	88 55 e8	 mov	 BYTE PTR __k$[ebp], dl
  00026	8a 50 01	 mov	 dl, BYTE PTR [eax+1]
  00029	84 d2		 test	 dl, dl
  0002b	0f 84 4d 01 00
	00		 je	 $LN95@GetFloatAt@2
  00031	80 f2 ec	 xor	 dl, -20			; ffffffecH
  00034	88 55 e9	 mov	 BYTE PTR __k$[ebp+1], dl
  00037	8a 50 02	 mov	 dl, BYTE PTR [eax+2]
  0003a	84 d2		 test	 dl, dl
  0003c	0f 84 36 01 00
	00		 je	 $LN94@GetFloatAt@2
  00042	b1 eb		 mov	 cl, -21			; ffffffebH
  00044	32 d1		 xor	 dl, cl
  00046	88 55 ea	 mov	 BYTE PTR __k$[ebp+2], dl
  00049	8a 50 03	 mov	 dl, BYTE PTR [eax+3]
  0004c	84 d2		 test	 dl, dl
  0004e	0f 84 1e 01 00
	00		 je	 $LN93@GetFloatAt@2
  00054	80 f2 ea	 xor	 dl, -22			; ffffffeaH
  00057	88 55 eb	 mov	 BYTE PTR __k$[ebp+3], dl
  0005a	8a 50 04	 mov	 dl, BYTE PTR [eax+4]
  0005d	84 d2		 test	 dl, dl
  0005f	0f 84 07 01 00
	00		 je	 $LN92@GetFloatAt@2
  00065	80 f2 ed	 xor	 dl, -19			; ffffffedH
  00068	88 55 ec	 mov	 BYTE PTR __k$[ebp+4], dl
  0006b	8a 50 05	 mov	 dl, BYTE PTR [eax+5]
  0006e	84 d2		 test	 dl, dl
  00070	0f 84 f0 00 00
	00		 je	 $LN91@GetFloatAt@2
  00076	80 f2 ec	 xor	 dl, -20			; ffffffecH
  00079	88 55 ed	 mov	 BYTE PTR __k$[ebp+5], dl
  0007c	8a 50 06	 mov	 dl, BYTE PTR [eax+6]
  0007f	84 d2		 test	 dl, dl
  00081	0f 84 da 00 00
	00		 je	 $LN90@GetFloatAt@2
  00087	32 d1		 xor	 dl, cl
  00089	88 55 ee	 mov	 BYTE PTR __k$[ebp+6], dl
  0008c	8a 50 07	 mov	 dl, BYTE PTR [eax+7]
  0008f	84 d2		 test	 dl, dl
  00091	0f 84 c4 00 00
	00		 je	 $LN89@GetFloatAt@2
  00097	80 f2 ea	 xor	 dl, -22			; ffffffeaH
  0009a	88 55 ef	 mov	 BYTE PTR __k$[ebp+7], dl
  0009d	8a 50 08	 mov	 dl, BYTE PTR [eax+8]
  000a0	84 d2		 test	 dl, dl
  000a2	0f 84 ad 00 00
	00		 je	 $LN88@GetFloatAt@2
  000a8	80 f2 ed	 xor	 dl, -19			; ffffffedH
  000ab	88 55 f0	 mov	 BYTE PTR __k$[ebp+8], dl
  000ae	8a 50 09	 mov	 dl, BYTE PTR [eax+9]
  000b1	84 d2		 test	 dl, dl
  000b3	0f 84 96 00 00
	00		 je	 $LN87@GetFloatAt@2
  000b9	80 f2 ec	 xor	 dl, -20			; ffffffecH
  000bc	88 55 f1	 mov	 BYTE PTR __k$[ebp+9], dl
  000bf	8a 50 0a	 mov	 dl, BYTE PTR [eax+10]
  000c2	84 d2		 test	 dl, dl
  000c4	0f 84 80 00 00
	00		 je	 $LN86@GetFloatAt@2
  000ca	32 d1		 xor	 dl, cl
  000cc	88 55 f2	 mov	 BYTE PTR __k$[ebp+10], dl
  000cf	8a 50 0b	 mov	 dl, BYTE PTR [eax+11]
  000d2	84 d2		 test	 dl, dl
  000d4	74 6e		 je	 SHORT $LN85@GetFloatAt@2
  000d6	80 f2 ea	 xor	 dl, -22			; ffffffeaH
  000d9	88 55 f3	 mov	 BYTE PTR __k$[ebp+11], dl
  000dc	8a 50 0c	 mov	 dl, BYTE PTR [eax+12]
  000df	84 d2		 test	 dl, dl
  000e1	74 5b		 je	 SHORT $LN84@GetFloatAt@2
  000e3	80 f2 ed	 xor	 dl, -19			; ffffffedH
  000e6	80 78 0d 00	 cmp	 BYTE PTR [eax+13], 0
  000ea	88 55 f4	 mov	 BYTE PTR __k$[ebp+12], dl
  000ed	0f 84 95 00 00
	00		 je	 $LN1@GetFloatAt@2
  000f3	8a 50 0e	 mov	 dl, BYTE PTR [eax+14]
  000f6	84 d2		 test	 dl, dl
  000f8	74 3f		 je	 SHORT $LN82@GetFloatAt@2
  000fa	32 d1		 xor	 dl, cl
  000fc	88 55 f6	 mov	 BYTE PTR __k$[ebp+14], dl
  000ff	8a 50 0f	 mov	 dl, BYTE PTR [eax+15]
  00102	84 d2		 test	 dl, dl
  00104	74 2d		 je	 SHORT $LN81@GetFloatAt@2
  00106	80 f2 ea	 xor	 dl, -22			; ffffffeaH
  00109	88 55 f7	 mov	 BYTE PTR __k$[ebp+15], dl
  0010c	8a 50 10	 mov	 dl, BYTE PTR [eax+16]
  0010f	84 d2		 test	 dl, dl
  00111	74 1a		 je	 SHORT $LN80@GetFloatAt@2
  00113	8a 40 11	 mov	 al, BYTE PTR [eax+17]
  00116	80 f2 ed	 xor	 dl, -19			; ffffffedH
  00119	88 55 f8	 mov	 BYTE PTR __k$[ebp+16], dl
  0011c	84 c0		 test	 al, al
  0011e	74 07		 je	 SHORT $LN79@GetFloatAt@2
  00120	34 ec		 xor	 al, -20			; ffffffecH
  00122	88 45 f9	 mov	 BYTE PTR __k$[ebp+17], al
  00125	eb 61		 jmp	 SHORT $LN1@GetFloatAt@2
$LN79@GetFloatAt@2:
  00127	c6 45 f9 ec	 mov	 BYTE PTR __k$[ebp+17], -20 ; ffffffecH
  0012b	eb 5b		 jmp	 SHORT $LN1@GetFloatAt@2
$LN80@GetFloatAt@2:
  0012d	c6 45 f8 ed	 mov	 BYTE PTR __k$[ebp+16], -19 ; ffffffedH
  00131	eb 55		 jmp	 SHORT $LN1@GetFloatAt@2
$LN81@GetFloatAt@2:
  00133	c6 45 f7 ea	 mov	 BYTE PTR __k$[ebp+15], -22 ; ffffffeaH
  00137	eb 4f		 jmp	 SHORT $LN1@GetFloatAt@2
$LN82@GetFloatAt@2:
  00139	88 4d f6	 mov	 BYTE PTR __k$[ebp+14], cl
  0013c	eb 4a		 jmp	 SHORT $LN1@GetFloatAt@2
$LN84@GetFloatAt@2:
  0013e	c6 45 f4 ed	 mov	 BYTE PTR __k$[ebp+12], -19 ; ffffffedH
  00142	eb 44		 jmp	 SHORT $LN1@GetFloatAt@2
$LN85@GetFloatAt@2:
  00144	c6 45 f3 ea	 mov	 BYTE PTR __k$[ebp+11], -22 ; ffffffeaH
  00148	eb 3e		 jmp	 SHORT $LN1@GetFloatAt@2
$LN86@GetFloatAt@2:
  0014a	88 4d f2	 mov	 BYTE PTR __k$[ebp+10], cl
  0014d	eb 39		 jmp	 SHORT $LN1@GetFloatAt@2
$LN87@GetFloatAt@2:
  0014f	c6 45 f1 ec	 mov	 BYTE PTR __k$[ebp+9], -20 ; ffffffecH
  00153	eb 33		 jmp	 SHORT $LN1@GetFloatAt@2
$LN88@GetFloatAt@2:
  00155	c6 45 f0 ed	 mov	 BYTE PTR __k$[ebp+8], -19 ; ffffffedH
  00159	eb 2d		 jmp	 SHORT $LN1@GetFloatAt@2
$LN89@GetFloatAt@2:
  0015b	c6 45 ef ea	 mov	 BYTE PTR __k$[ebp+7], -22 ; ffffffeaH
  0015f	eb 27		 jmp	 SHORT $LN1@GetFloatAt@2
$LN90@GetFloatAt@2:
  00161	88 4d ee	 mov	 BYTE PTR __k$[ebp+6], cl
  00164	eb 22		 jmp	 SHORT $LN1@GetFloatAt@2
$LN91@GetFloatAt@2:
  00166	c6 45 ed ec	 mov	 BYTE PTR __k$[ebp+5], -20 ; ffffffecH
  0016a	eb 1c		 jmp	 SHORT $LN1@GetFloatAt@2
$LN92@GetFloatAt@2:
  0016c	c6 45 ec ed	 mov	 BYTE PTR __k$[ebp+4], -19 ; ffffffedH
  00170	eb 16		 jmp	 SHORT $LN1@GetFloatAt@2
$LN93@GetFloatAt@2:
  00172	c6 45 eb ea	 mov	 BYTE PTR __k$[ebp+3], -22 ; ffffffeaH
  00176	eb 10		 jmp	 SHORT $LN1@GetFloatAt@2
$LN94@GetFloatAt@2:
  00178	c6 45 ea eb	 mov	 BYTE PTR __k$[ebp+2], -21 ; ffffffebH
  0017c	eb 0a		 jmp	 SHORT $LN1@GetFloatAt@2
$LN95@GetFloatAt@2:
  0017e	c6 45 e9 ec	 mov	 BYTE PTR __k$[ebp+1], -20 ; ffffffecH
  00182	eb 04		 jmp	 SHORT $LN1@GetFloatAt@2
$LN96@GetFloatAt@2:
  00184	c6 45 e8 ed	 mov	 BYTE PTR __k$[ebp], -19	; ffffffedH
$LN1@GetFloatAt@2:
  00188	6a 03		 push	 3
  0018a	8d 45 e8	 lea	 eax, DWORD PTR __k$[ebp]
  0018d	c6 45 f5 00	 mov	 BYTE PTR __k$[ebp+13], 0
  00191	5a		 pop	 edx
$LL104@GetFloatAt@2:
  00192	81 30 ed ec eb
	ea		 xor	 DWORD PTR [eax], -353637139 ; eaebecedH
  00198	83 c0 04	 add	 eax, 4
  0019b	4a		 dec	 edx
  0019c	75 f4		 jne	 SHORT $LL104@GetFloatAt@2
  0019e	80 75 f4 ed	 xor	 BYTE PTR __k$[ebp+12], -19 ; ffffffedH

; 102  : 		return GetFloatAttribute(_k);

  001a2	8d 45 e8	 lea	 eax, DWORD PTR __k$[ebp]
  001a5	50		 push	 eax
  001a6	8b ce		 mov	 ecx, esi
  001a8	ff 15 00 00 00
	00		 call	 DWORD PTR __imp_?GetFloatAttribute@ioXMLElement@@QBEMPBD@Z

; 103  : 	}

  001ae	8b 4d fc	 mov	 ecx, DWORD PTR __$ArrayPad$[ebp]
  001b1	33 cd		 xor	 ecx, ebp
  001b3	5e		 pop	 esi
  001b4	e8 00 00 00 00	 call	 @__security_check_cookie@4
  001b9	c9		 leave
  001ba	c2 04 00	 ret	 4
??$GetFloatAttribute_e@$0O@@ioXMLElement@@QBEMAAY0O@$$CBD@Z ENDP ; ioXMLElement::GetFloatAttribute_e<14>
_TEXT	ENDS
PUBLIC	__$ArrayPad$
PUBLIC	??$?8$0M@@@YA_NABVioHashString@@AAY0M@$$CBD@Z	; operator==<12>
; Function compile flags: /Ogsp
; File d:\lost saga for developer\youtube\tutorial\source\src\io3dengine\iohashstring.h
;	COMDAT ??$?8$0M@@@YA_NABVioHashString@@AAY0M@$$CBD@Z
_TEXT	SEGMENT
__t$ = -20						; size = 12
__$ArrayPad$ = -4					; size = 4
_lhs$ = 8						; size = 4
_t$ = 12						; size = 4
??$?8$0M@@@YA_NABVioHashString@@AAY0M@$$CBD@Z PROC	; operator==<12>, COMDAT

; 146  : {

  00000	55		 push	 ebp
  00001	8b ec		 mov	 ebp, esp
  00003	83 ec 14	 sub	 esp, 20			; 00000014H
  00006	a1 00 00 00 00	 mov	 eax, DWORD PTR ___security_cookie
  0000b	33 c5		 xor	 eax, ebp
  0000d	89 45 fc	 mov	 DWORD PTR __$ArrayPad$[ebp], eax
  00010	8b 45 0c	 mov	 eax, DWORD PTR _t$[ebp]

; 147  : 	_ENCSTR(t, _t); return ( strcmp( lhs.c_str(), _t ) == 0 );

  00013	8a 10		 mov	 dl, BYTE PTR [eax]
  00015	56		 push	 esi
  00016	57		 push	 edi
  00017	8b 7d 08	 mov	 edi, DWORD PTR _lhs$[ebp]
  0001a	84 d2		 test	 dl, dl
  0001c	0f 84 32 01 00
	00		 je	 $LN96@operator@6
  00022	80 f2 ed	 xor	 dl, -19			; ffffffedH
  00025	88 55 ec	 mov	 BYTE PTR __t$[ebp], dl
  00028	8a 50 01	 mov	 dl, BYTE PTR [eax+1]
  0002b	84 d2		 test	 dl, dl
  0002d	0f 84 1b 01 00
	00		 je	 $LN95@operator@6
  00033	80 f2 ec	 xor	 dl, -20			; ffffffecH
  00036	88 55 ed	 mov	 BYTE PTR __t$[ebp+1], dl
  00039	8a 50 02	 mov	 dl, BYTE PTR [eax+2]
  0003c	84 d2		 test	 dl, dl
  0003e	0f 84 04 01 00
	00		 je	 $LN94@operator@6
  00044	b1 eb		 mov	 cl, -21			; ffffffebH
  00046	32 d1		 xor	 dl, cl
  00048	88 55 ee	 mov	 BYTE PTR __t$[ebp+2], dl
  0004b	8a 50 03	 mov	 dl, BYTE PTR [eax+3]
  0004e	84 d2		 test	 dl, dl
  00050	0f 84 ec 00 00
	00		 je	 $LN93@operator@6
  00056	80 f2 ea	 xor	 dl, -22			; ffffffeaH
  00059	88 55 ef	 mov	 BYTE PTR __t$[ebp+3], dl
  0005c	8a 50 04	 mov	 dl, BYTE PTR [eax+4]
  0005f	84 d2		 test	 dl, dl
  00061	0f 84 d5 00 00
	00		 je	 $LN92@operator@6
  00067	80 f2 ed	 xor	 dl, -19			; ffffffedH
  0006a	88 55 f0	 mov	 BYTE PTR __t$[ebp+4], dl
  0006d	8a 50 05	 mov	 dl, BYTE PTR [eax+5]
  00070	84 d2		 test	 dl, dl
  00072	0f 84 be 00 00
	00		 je	 $LN91@operator@6
  00078	80 f2 ec	 xor	 dl, -20			; ffffffecH
  0007b	88 55 f1	 mov	 BYTE PTR __t$[ebp+5], dl
  0007e	8a 50 06	 mov	 dl, BYTE PTR [eax+6]
  00081	84 d2		 test	 dl, dl
  00083	0f 84 a8 00 00
	00		 je	 $LN90@operator@6
  00089	32 d1		 xor	 dl, cl
  0008b	88 55 f2	 mov	 BYTE PTR __t$[ebp+6], dl
  0008e	8a 50 07	 mov	 dl, BYTE PTR [eax+7]
  00091	84 d2		 test	 dl, dl
  00093	0f 84 92 00 00
	00		 je	 $LN89@operator@6
  00099	80 f2 ea	 xor	 dl, -22			; ffffffeaH
  0009c	88 55 f3	 mov	 BYTE PTR __t$[ebp+7], dl
  0009f	8a 50 08	 mov	 dl, BYTE PTR [eax+8]
  000a2	84 d2		 test	 dl, dl
  000a4	74 7f		 je	 SHORT $LN88@operator@6
  000a6	80 f2 ed	 xor	 dl, -19			; ffffffedH
  000a9	88 55 f4	 mov	 BYTE PTR __t$[ebp+8], dl
  000ac	8a 50 09	 mov	 dl, BYTE PTR [eax+9]
  000af	84 d2		 test	 dl, dl
  000b1	74 6c		 je	 SHORT $LN87@operator@6
  000b3	80 f2 ec	 xor	 dl, -20			; ffffffecH
  000b6	88 55 f5	 mov	 BYTE PTR __t$[ebp+9], dl
  000b9	8a 50 0a	 mov	 dl, BYTE PTR [eax+10]
  000bc	84 d2		 test	 dl, dl
  000be	74 5a		 je	 SHORT $LN86@operator@6
  000c0	32 d1		 xor	 dl, cl
  000c2	80 78 0b 00	 cmp	 BYTE PTR [eax+11], 0
  000c6	88 55 f6	 mov	 BYTE PTR __t$[ebp+10], dl
  000c9	0f 84 89 00 00
	00		 je	 $LN1@operator@6
  000cf	8a 50 0c	 mov	 dl, BYTE PTR [eax+12]
  000d2	84 d2		 test	 dl, dl
  000d4	74 3e		 je	 SHORT $LN84@operator@6
  000d6	80 f2 ed	 xor	 dl, -19			; ffffffedH
  000d9	88 55 f8	 mov	 BYTE PTR __t$[ebp+12], dl
  000dc	8a 50 0d	 mov	 dl, BYTE PTR [eax+13]
  000df	84 d2		 test	 dl, dl
  000e1	74 2b		 je	 SHORT $LN83@operator@6
  000e3	80 f2 ec	 xor	 dl, -20			; ffffffecH
  000e6	88 55 f9	 mov	 BYTE PTR __t$[ebp+13], dl
  000e9	8a 50 0e	 mov	 dl, BYTE PTR [eax+14]
  000ec	84 d2		 test	 dl, dl
  000ee	74 19		 je	 SHORT $LN82@operator@6
  000f0	8a 40 0f	 mov	 al, BYTE PTR [eax+15]
  000f3	32 d1		 xor	 dl, cl
  000f5	88 55 fa	 mov	 BYTE PTR __t$[ebp+14], dl
  000f8	84 c0		 test	 al, al
  000fa	74 07		 je	 SHORT $LN81@operator@6
  000fc	34 ea		 xor	 al, -22			; ffffffeaH
  000fe	88 45 fb	 mov	 BYTE PTR __t$[ebp+15], al
  00101	eb 55		 jmp	 SHORT $LN1@operator@6
$LN81@operator@6:
  00103	c6 45 fb ea	 mov	 BYTE PTR __t$[ebp+15], -22 ; ffffffeaH
  00107	eb 4f		 jmp	 SHORT $LN1@operator@6
$LN82@operator@6:
  00109	88 4d fa	 mov	 BYTE PTR __t$[ebp+14], cl
  0010c	eb 4a		 jmp	 SHORT $LN1@operator@6
$LN83@operator@6:
  0010e	c6 45 f9 ec	 mov	 BYTE PTR __t$[ebp+13], -20 ; ffffffecH
  00112	eb 44		 jmp	 SHORT $LN1@operator@6
$LN84@operator@6:
  00114	c6 45 f8 ed	 mov	 BYTE PTR __t$[ebp+12], -19 ; ffffffedH
  00118	eb 3e		 jmp	 SHORT $LN1@operator@6
$LN86@operator@6:
  0011a	88 4d f6	 mov	 BYTE PTR __t$[ebp+10], cl
  0011d	eb 39		 jmp	 SHORT $LN1@operator@6
$LN87@operator@6:
  0011f	c6 45 f5 ec	 mov	 BYTE PTR __t$[ebp+9], -20 ; ffffffecH
  00123	eb 33		 jmp	 SHORT $LN1@operator@6
$LN88@operator@6:
  00125	c6 45 f4 ed	 mov	 BYTE PTR __t$[ebp+8], -19 ; ffffffedH
  00129	eb 2d		 jmp	 SHORT $LN1@operator@6
$LN89@operator@6:
  0012b	c6 45 f3 ea	 mov	 BYTE PTR __t$[ebp+7], -22 ; ffffffeaH
  0012f	eb 27		 jmp	 SHORT $LN1@operator@6
$LN90@operator@6:
  00131	88 4d f2	 mov	 BYTE PTR __t$[ebp+6], cl
  00134	eb 22		 jmp	 SHORT $LN1@operator@6
$LN91@operator@6:
  00136	c6 45 f1 ec	 mov	 BYTE PTR __t$[ebp+5], -20 ; ffffffecH
  0013a	eb 1c		 jmp	 SHORT $LN1@operator@6
$LN92@operator@6:
  0013c	c6 45 f0 ed	 mov	 BYTE PTR __t$[ebp+4], -19 ; ffffffedH
  00140	eb 16		 jmp	 SHORT $LN1@operator@6
$LN93@operator@6:
  00142	c6 45 ef ea	 mov	 BYTE PTR __t$[ebp+3], -22 ; ffffffeaH
  00146	eb 10		 jmp	 SHORT $LN1@operator@6
$LN94@operator@6:
  00148	c6 45 ee eb	 mov	 BYTE PTR __t$[ebp+2], -21 ; ffffffebH
  0014c	eb 0a		 jmp	 SHORT $LN1@operator@6
$LN95@operator@6:
  0014e	c6 45 ed ec	 mov	 BYTE PTR __t$[ebp+1], -20 ; ffffffecH
  00152	eb 04		 jmp	 SHORT $LN1@operator@6
$LN96@operator@6:
  00154	c6 45 ec ed	 mov	 BYTE PTR __t$[ebp], -19	; ffffffedH
$LN1@operator@6:
  00158	6a 02		 push	 2
  0015a	8d 45 ec	 lea	 eax, DWORD PTR __t$[ebp]
  0015d	c6 45 f7 00	 mov	 BYTE PTR __t$[ebp+11], 0
  00161	5a		 pop	 edx
$LL104@operator@6:
  00162	81 30 ed ec eb
	ea		 xor	 DWORD PTR [eax], -353637139 ; eaebecedH
  00168	83 c0 04	 add	 eax, 4
  0016b	4a		 dec	 edx
  0016c	75 f4		 jne	 SHORT $LL104@operator@6
  0016e	6a 08		 push	 8
  00170	58		 pop	 eax
$LL101@operator@6:
  00171	8b c8		 mov	 ecx, eax
  00173	81 e1 03 00 00
	80		 and	 ecx, -2147483645	; 80000003H
  00179	79 05		 jns	 SHORT $LN115@operator@6
  0017b	49		 dec	 ecx
  0017c	83 c9 fc	 or	 ecx, -4			; fffffffcH
  0017f	41		 inc	 ecx
$LN115@operator@6:
  00180	b2 ed		 mov	 dl, -19			; ffffffedH
  00182	2a d1		 sub	 dl, cl
  00184	30 54 05 ec	 xor	 BYTE PTR __t$[ebp+eax], dl
  00188	40		 inc	 eax
  00189	83 f8 0b	 cmp	 eax, 11			; 0000000bH
  0018c	7c e3		 jl	 SHORT $LL101@operator@6
  0018e	8b cf		 mov	 ecx, edi
  00190	8d 75 ec	 lea	 esi, DWORD PTR __t$[ebp]
  00193	ff 15 00 00 00
	00		 call	 DWORD PTR __imp_?c_str@ioHashString@@QBEPBDXZ
$LL111@operator@6:
  00199	8a 08		 mov	 cl, BYTE PTR [eax]
  0019b	3a 0e		 cmp	 cl, BYTE PTR [esi]
  0019d	75 1a		 jne	 SHORT $LN112@operator@6
  0019f	84 c9		 test	 cl, cl
  001a1	74 12		 je	 SHORT $LN113@operator@6
  001a3	8a 48 01	 mov	 cl, BYTE PTR [eax+1]
  001a6	3a 4e 01	 cmp	 cl, BYTE PTR [esi+1]
  001a9	75 0e		 jne	 SHORT $LN112@operator@6
  001ab	83 c0 02	 add	 eax, 2
  001ae	83 c6 02	 add	 esi, 2
  001b1	84 c9		 test	 cl, cl
  001b3	75 e4		 jne	 SHORT $LL111@operator@6
$LN113@operator@6:
  001b5	33 c0		 xor	 eax, eax
  001b7	eb 05		 jmp	 SHORT $LN114@operator@6
$LN112@operator@6:
  001b9	1b c0		 sbb	 eax, eax
  001bb	83 d8 ff	 sbb	 eax, -1
$LN114@operator@6:
  001be	33 c9		 xor	 ecx, ecx
  001c0	85 c0		 test	 eax, eax
  001c2	0f 94 c0	 sete	 al

; 148  : }

  001c5	8b 4d fc	 mov	 ecx, DWORD PTR __$ArrayPad$[ebp]
  001c8	5f		 pop	 edi
  001c9	33 cd		 xor	 ecx, ebp
  001cb	5e		 pop	 esi
  001cc	e8 00 00 00 00	 call	 @__security_check_cookie@4
  001d1	c9		 leave
  001d2	c3		 ret	 0
??$?8$0M@@@YA_NABVioHashString@@AAY0M@$$CBD@Z ENDP	; operator==<12>
_TEXT	ENDS
PUBLIC	__$ArrayPad$
PUBLIC	??$?8$0L@@@YA_NABVioHashString@@AAY0L@$$CBD@Z	; operator==<11>
; Function compile flags: /Ogsp
;	COMDAT ??$?8$0L@@@YA_NABVioHashString@@AAY0L@$$CBD@Z
_TEXT	SEGMENT
__t$ = -20						; size = 11
__$ArrayPad$ = -4					; size = 4
_lhs$ = 8						; size = 4
_t$ = 12						; size = 4
??$?8$0L@@@YA_NABVioHashString@@AAY0L@$$CBD@Z PROC	; operator==<11>, COMDAT

; 146  : {

  00000	55		 push	 ebp
  00001	8b ec		 mov	 ebp, esp
  00003	83 ec 14	 sub	 esp, 20			; 00000014H
  00006	a1 00 00 00 00	 mov	 eax, DWORD PTR ___security_cookie
  0000b	33 c5		 xor	 eax, ebp
  0000d	89 45 fc	 mov	 DWORD PTR __$ArrayPad$[ebp], eax
  00010	8b 45 0c	 mov	 eax, DWORD PTR _t$[ebp]

; 147  : 	_ENCSTR(t, _t); return ( strcmp( lhs.c_str(), _t ) == 0 );

  00013	8a 10		 mov	 dl, BYTE PTR [eax]
  00015	56		 push	 esi
  00016	57		 push	 edi
  00017	8b 7d 08	 mov	 edi, DWORD PTR _lhs$[ebp]
  0001a	84 d2		 test	 dl, dl
  0001c	0f 84 24 01 00
	00		 je	 $LN96@operator@7
  00022	80 f2 ed	 xor	 dl, -19			; ffffffedH
  00025	88 55 ec	 mov	 BYTE PTR __t$[ebp], dl
  00028	8a 50 01	 mov	 dl, BYTE PTR [eax+1]
  0002b	84 d2		 test	 dl, dl
  0002d	0f 84 0d 01 00
	00		 je	 $LN95@operator@7
  00033	80 f2 ec	 xor	 dl, -20			; ffffffecH
  00036	88 55 ed	 mov	 BYTE PTR __t$[ebp+1], dl
  00039	8a 50 02	 mov	 dl, BYTE PTR [eax+2]
  0003c	84 d2		 test	 dl, dl
  0003e	0f 84 f6 00 00
	00		 je	 $LN94@operator@7
  00044	80 f2 eb	 xor	 dl, -21			; ffffffebH
  00047	88 55 ee	 mov	 BYTE PTR __t$[ebp+2], dl
  0004a	8a 50 03	 mov	 dl, BYTE PTR [eax+3]
  0004d	84 d2		 test	 dl, dl
  0004f	0f 84 df 00 00
	00		 je	 $LN93@operator@7
  00055	80 f2 ea	 xor	 dl, -22			; ffffffeaH
  00058	88 55 ef	 mov	 BYTE PTR __t$[ebp+3], dl
  0005b	8a 50 04	 mov	 dl, BYTE PTR [eax+4]
  0005e	84 d2		 test	 dl, dl
  00060	0f 84 c8 00 00
	00		 je	 $LN92@operator@7
  00066	80 f2 ed	 xor	 dl, -19			; ffffffedH
  00069	88 55 f0	 mov	 BYTE PTR __t$[ebp+4], dl
  0006c	8a 50 05	 mov	 dl, BYTE PTR [eax+5]
  0006f	84 d2		 test	 dl, dl
  00071	0f 84 b1 00 00
	00		 je	 $LN91@operator@7
  00077	80 f2 ec	 xor	 dl, -20			; ffffffecH
  0007a	88 55 f1	 mov	 BYTE PTR __t$[ebp+5], dl
  0007d	8a 50 06	 mov	 dl, BYTE PTR [eax+6]
  00080	84 d2		 test	 dl, dl
  00082	0f 84 9a 00 00
	00		 je	 $LN90@operator@7
  00088	80 f2 eb	 xor	 dl, -21			; ffffffebH
  0008b	88 55 f2	 mov	 BYTE PTR __t$[ebp+6], dl
  0008e	8a 50 07	 mov	 dl, BYTE PTR [eax+7]
  00091	84 d2		 test	 dl, dl
  00093	0f 84 83 00 00
	00		 je	 $LN89@operator@7
  00099	80 f2 ea	 xor	 dl, -22			; ffffffeaH
  0009c	88 55 f3	 mov	 BYTE PTR __t$[ebp+7], dl
  0009f	8a 50 08	 mov	 dl, BYTE PTR [eax+8]
  000a2	84 d2		 test	 dl, dl
  000a4	74 70		 je	 SHORT $LN88@operator@7
  000a6	80 f2 ed	 xor	 dl, -19			; ffffffedH
  000a9	88 55 f4	 mov	 BYTE PTR __t$[ebp+8], dl
  000ac	8a 50 09	 mov	 dl, BYTE PTR [eax+9]
  000af	84 d2		 test	 dl, dl
  000b1	74 5d		 je	 SHORT $LN87@operator@7
  000b3	80 f2 ec	 xor	 dl, -20			; ffffffecH
  000b6	80 78 0a 00	 cmp	 BYTE PTR [eax+10], 0
  000ba	88 55 f5	 mov	 BYTE PTR __t$[ebp+9], dl
  000bd	0f 84 87 00 00
	00		 je	 $LN1@operator@7
  000c3	8a 50 0b	 mov	 dl, BYTE PTR [eax+11]
  000c6	84 d2		 test	 dl, dl
  000c8	74 40		 je	 SHORT $LN85@operator@7
  000ca	80 f2 ea	 xor	 dl, -22			; ffffffeaH
  000cd	88 55 f7	 mov	 BYTE PTR __t$[ebp+11], dl
  000d0	8a 50 0c	 mov	 dl, BYTE PTR [eax+12]
  000d3	84 d2		 test	 dl, dl
  000d5	74 2d		 je	 SHORT $LN84@operator@7
  000d7	80 f2 ed	 xor	 dl, -19			; ffffffedH
  000da	88 55 f8	 mov	 BYTE PTR __t$[ebp+12], dl
  000dd	8a 50 0d	 mov	 dl, BYTE PTR [eax+13]
  000e0	84 d2		 test	 dl, dl
  000e2	74 1a		 je	 SHORT $LN83@operator@7
  000e4	8a 40 0e	 mov	 al, BYTE PTR [eax+14]
  000e7	80 f2 ec	 xor	 dl, -20			; ffffffecH
  000ea	88 55 f9	 mov	 BYTE PTR __t$[ebp+13], dl
  000ed	84 c0		 test	 al, al
  000ef	74 07		 je	 SHORT $LN82@operator@7
  000f1	34 eb		 xor	 al, -21			; ffffffebH
  000f3	88 45 fa	 mov	 BYTE PTR __t$[ebp+14], al
  000f6	eb 52		 jmp	 SHORT $LN1@operator@7
$LN82@operator@7:
  000f8	c6 45 fa eb	 mov	 BYTE PTR __t$[ebp+14], -21 ; ffffffebH
  000fc	eb 4c		 jmp	 SHORT $LN1@operator@7
$LN83@operator@7:
  000fe	c6 45 f9 ec	 mov	 BYTE PTR __t$[ebp+13], -20 ; ffffffecH
  00102	eb 46		 jmp	 SHORT $LN1@operator@7
$LN84@operator@7:
  00104	c6 45 f8 ed	 mov	 BYTE PTR __t$[ebp+12], -19 ; ffffffedH
  00108	eb 40		 jmp	 SHORT $LN1@operator@7
$LN85@operator@7:
  0010a	c6 45 f7 ea	 mov	 BYTE PTR __t$[ebp+11], -22 ; ffffffeaH
  0010e	eb 3a		 jmp	 SHORT $LN1@operator@7
$LN87@operator@7:
  00110	c6 45 f5 ec	 mov	 BYTE PTR __t$[ebp+9], -20 ; ffffffecH
  00114	eb 34		 jmp	 SHORT $LN1@operator@7
$LN88@operator@7:
  00116	c6 45 f4 ed	 mov	 BYTE PTR __t$[ebp+8], -19 ; ffffffedH
  0011a	eb 2e		 jmp	 SHORT $LN1@operator@7
$LN89@operator@7:
  0011c	c6 45 f3 ea	 mov	 BYTE PTR __t$[ebp+7], -22 ; ffffffeaH
  00120	eb 28		 jmp	 SHORT $LN1@operator@7
$LN90@operator@7:
  00122	c6 45 f2 eb	 mov	 BYTE PTR __t$[ebp+6], -21 ; ffffffebH
  00126	eb 22		 jmp	 SHORT $LN1@operator@7
$LN91@operator@7:
  00128	c6 45 f1 ec	 mov	 BYTE PTR __t$[ebp+5], -20 ; ffffffecH
  0012c	eb 1c		 jmp	 SHORT $LN1@operator@7
$LN92@operator@7:
  0012e	c6 45 f0 ed	 mov	 BYTE PTR __t$[ebp+4], -19 ; ffffffedH
  00132	eb 16		 jmp	 SHORT $LN1@operator@7
$LN93@operator@7:
  00134	c6 45 ef ea	 mov	 BYTE PTR __t$[ebp+3], -22 ; ffffffeaH
  00138	eb 10		 jmp	 SHORT $LN1@operator@7
$LN94@operator@7:
  0013a	c6 45 ee eb	 mov	 BYTE PTR __t$[ebp+2], -21 ; ffffffebH
  0013e	eb 0a		 jmp	 SHORT $LN1@operator@7
$LN95@operator@7:
  00140	c6 45 ed ec	 mov	 BYTE PTR __t$[ebp+1], -20 ; ffffffecH
  00144	eb 04		 jmp	 SHORT $LN1@operator@7
$LN96@operator@7:
  00146	c6 45 ec ed	 mov	 BYTE PTR __t$[ebp], -19	; ffffffedH
$LN1@operator@7:
  0014a	6a 02		 push	 2
  0014c	8d 45 ec	 lea	 eax, DWORD PTR __t$[ebp]
  0014f	c6 45 f6 00	 mov	 BYTE PTR __t$[ebp+10], 0
  00153	5a		 pop	 edx
$LL104@operator@7:
  00154	81 30 ed ec eb
	ea		 xor	 DWORD PTR [eax], -353637139 ; eaebecedH
  0015a	83 c0 04	 add	 eax, 4
  0015d	4a		 dec	 edx
  0015e	75 f4		 jne	 SHORT $LL104@operator@7
  00160	6a 08		 push	 8
  00162	58		 pop	 eax
$LL101@operator@7:
  00163	8b c8		 mov	 ecx, eax
  00165	81 e1 03 00 00
	80		 and	 ecx, -2147483645	; 80000003H
  0016b	79 05		 jns	 SHORT $LN115@operator@7
  0016d	49		 dec	 ecx
  0016e	83 c9 fc	 or	 ecx, -4			; fffffffcH
  00171	41		 inc	 ecx
$LN115@operator@7:
  00172	b2 ed		 mov	 dl, -19			; ffffffedH
  00174	2a d1		 sub	 dl, cl
  00176	30 54 05 ec	 xor	 BYTE PTR __t$[ebp+eax], dl
  0017a	40		 inc	 eax
  0017b	83 f8 0a	 cmp	 eax, 10			; 0000000aH
  0017e	7c e3		 jl	 SHORT $LL101@operator@7
  00180	8b cf		 mov	 ecx, edi
  00182	8d 75 ec	 lea	 esi, DWORD PTR __t$[ebp]
  00185	ff 15 00 00 00
	00		 call	 DWORD PTR __imp_?c_str@ioHashString@@QBEPBDXZ
$LL111@operator@7:
  0018b	8a 08		 mov	 cl, BYTE PTR [eax]
  0018d	3a 0e		 cmp	 cl, BYTE PTR [esi]
  0018f	75 1a		 jne	 SHORT $LN112@operator@7
  00191	84 c9		 test	 cl, cl
  00193	74 12		 je	 SHORT $LN113@operator@7
  00195	8a 48 01	 mov	 cl, BYTE PTR [eax+1]
  00198	3a 4e 01	 cmp	 cl, BYTE PTR [esi+1]
  0019b	75 0e		 jne	 SHORT $LN112@operator@7
  0019d	83 c0 02	 add	 eax, 2
  001a0	83 c6 02	 add	 esi, 2
  001a3	84 c9		 test	 cl, cl
  001a5	75 e4		 jne	 SHORT $LL111@operator@7
$LN113@operator@7:
  001a7	33 c0		 xor	 eax, eax
  001a9	eb 05		 jmp	 SHORT $LN114@operator@7
$LN112@operator@7:
  001ab	1b c0		 sbb	 eax, eax
  001ad	83 d8 ff	 sbb	 eax, -1
$LN114@operator@7:
  001b0	33 c9		 xor	 ecx, ecx
  001b2	85 c0		 test	 eax, eax
  001b4	0f 94 c0	 sete	 al

; 148  : }

  001b7	8b 4d fc	 mov	 ecx, DWORD PTR __$ArrayPad$[ebp]
  001ba	5f		 pop	 edi
  001bb	33 cd		 xor	 ecx, ebp
  001bd	5e		 pop	 esi
  001be	e8 00 00 00 00	 call	 @__security_check_cookie@4
  001c3	c9		 leave
  001c4	c3		 ret	 0
??$?8$0L@@@YA_NABVioHashString@@AAY0L@$$CBD@Z ENDP	; operator==<11>
_TEXT	ENDS
PUBLIC	__$ArrayPad$
PUBLIC	??$?8$05@@YA_NABVioHashString@@AAY05$$CBD@Z	; operator==<6>
; Function compile flags: /Ogsp
;	COMDAT ??$?8$05@@YA_NABVioHashString@@AAY05$$CBD@Z
_TEXT	SEGMENT
__t$ = -16						; size = 6
__$ArrayPad$ = -4					; size = 4
_lhs$ = 8						; size = 4
_t$ = 12						; size = 4
??$?8$05@@YA_NABVioHashString@@AAY05$$CBD@Z PROC	; operator==<6>, COMDAT

; 146  : {

  00000	55		 push	 ebp
  00001	8b ec		 mov	 ebp, esp
  00003	83 ec 10	 sub	 esp, 16			; 00000010H
  00006	a1 00 00 00 00	 mov	 eax, DWORD PTR ___security_cookie
  0000b	33 c5		 xor	 eax, ebp
  0000d	89 45 fc	 mov	 DWORD PTR __$ArrayPad$[ebp], eax
  00010	8b 45 0c	 mov	 eax, DWORD PTR _t$[ebp]

; 147  : 	_ENCSTR(t, _t); return ( strcmp( lhs.c_str(), _t ) == 0 );

  00013	8a 10		 mov	 dl, BYTE PTR [eax]
  00015	8b 4d 08	 mov	 ecx, DWORD PTR _lhs$[ebp]
  00018	84 d2		 test	 dl, dl
  0001a	0f 84 a9 00 00
	00		 je	 $LN96@operator@8
  00020	80 f2 ed	 xor	 dl, -19			; ffffffedH
  00023	88 55 f0	 mov	 BYTE PTR __t$[ebp], dl
  00026	8a 50 01	 mov	 dl, BYTE PTR [eax+1]
  00029	84 d2		 test	 dl, dl
  0002b	0f 84 92 00 00
	00		 je	 $LN95@operator@8
  00031	80 f2 ec	 xor	 dl, -20			; ffffffecH
  00034	88 55 f1	 mov	 BYTE PTR __t$[ebp+1], dl
  00037	8a 50 02	 mov	 dl, BYTE PTR [eax+2]
  0003a	84 d2		 test	 dl, dl
  0003c	74 7f		 je	 SHORT $LN94@operator@8
  0003e	80 f2 eb	 xor	 dl, -21			; ffffffebH
  00041	88 55 f2	 mov	 BYTE PTR __t$[ebp+2], dl
  00044	8a 50 03	 mov	 dl, BYTE PTR [eax+3]
  00047	84 d2		 test	 dl, dl
  00049	74 6c		 je	 SHORT $LN93@operator@8
  0004b	80 f2 ea	 xor	 dl, -22			; ffffffeaH
  0004e	88 55 f3	 mov	 BYTE PTR __t$[ebp+3], dl
  00051	8a 50 04	 mov	 dl, BYTE PTR [eax+4]
  00054	84 d2		 test	 dl, dl
  00056	74 59		 je	 SHORT $LN92@operator@8
  00058	80 f2 ed	 xor	 dl, -19			; ffffffedH
  0005b	80 78 05 00	 cmp	 BYTE PTR [eax+5], 0
  0005f	88 55 f4	 mov	 BYTE PTR __t$[ebp+4], dl
  00062	74 69		 je	 SHORT $LN1@operator@8
  00064	8a 50 06	 mov	 dl, BYTE PTR [eax+6]
  00067	84 d2		 test	 dl, dl
  00069	74 40		 je	 SHORT $LN90@operator@8
  0006b	80 f2 eb	 xor	 dl, -21			; ffffffebH
  0006e	88 55 f6	 mov	 BYTE PTR __t$[ebp+6], dl
  00071	8a 50 07	 mov	 dl, BYTE PTR [eax+7]
  00074	84 d2		 test	 dl, dl
  00076	74 2d		 je	 SHORT $LN89@operator@8
  00078	80 f2 ea	 xor	 dl, -22			; ffffffeaH
  0007b	88 55 f7	 mov	 BYTE PTR __t$[ebp+7], dl
  0007e	8a 50 08	 mov	 dl, BYTE PTR [eax+8]
  00081	84 d2		 test	 dl, dl
  00083	74 1a		 je	 SHORT $LN88@operator@8
  00085	8a 40 09	 mov	 al, BYTE PTR [eax+9]
  00088	80 f2 ed	 xor	 dl, -19			; ffffffedH
  0008b	88 55 f8	 mov	 BYTE PTR __t$[ebp+8], dl
  0008e	84 c0		 test	 al, al
  00090	74 07		 je	 SHORT $LN87@operator@8
  00092	34 ec		 xor	 al, -20			; ffffffecH
  00094	88 45 f9	 mov	 BYTE PTR __t$[ebp+9], al
  00097	eb 34		 jmp	 SHORT $LN1@operator@8
$LN87@operator@8:
  00099	c6 45 f9 ec	 mov	 BYTE PTR __t$[ebp+9], -20 ; ffffffecH
  0009d	eb 2e		 jmp	 SHORT $LN1@operator@8
$LN88@operator@8:
  0009f	c6 45 f8 ed	 mov	 BYTE PTR __t$[ebp+8], -19 ; ffffffedH
  000a3	eb 28		 jmp	 SHORT $LN1@operator@8
$LN89@operator@8:
  000a5	c6 45 f7 ea	 mov	 BYTE PTR __t$[ebp+7], -22 ; ffffffeaH
  000a9	eb 22		 jmp	 SHORT $LN1@operator@8
$LN90@operator@8:
  000ab	c6 45 f6 eb	 mov	 BYTE PTR __t$[ebp+6], -21 ; ffffffebH
  000af	eb 1c		 jmp	 SHORT $LN1@operator@8
$LN92@operator@8:
  000b1	c6 45 f4 ed	 mov	 BYTE PTR __t$[ebp+4], -19 ; ffffffedH
  000b5	eb 16		 jmp	 SHORT $LN1@operator@8
$LN93@operator@8:
  000b7	c6 45 f3 ea	 mov	 BYTE PTR __t$[ebp+3], -22 ; ffffffeaH
  000bb	eb 10		 jmp	 SHORT $LN1@operator@8
$LN94@operator@8:
  000bd	c6 45 f2 eb	 mov	 BYTE PTR __t$[ebp+2], -21 ; ffffffebH
  000c1	eb 0a		 jmp	 SHORT $LN1@operator@8
$LN95@operator@8:
  000c3	c6 45 f1 ec	 mov	 BYTE PTR __t$[ebp+1], -20 ; ffffffecH
  000c7	eb 04		 jmp	 SHORT $LN1@operator@8
$LN96@operator@8:
  000c9	c6 45 f0 ed	 mov	 BYTE PTR __t$[ebp], -19	; ffffffedH
$LN1@operator@8:
  000cd	81 75 f0 ed ec
	eb ea		 xor	 DWORD PTR __t$[ebp], -353637139 ; eaebecedH
  000d4	80 75 f4 ed	 xor	 BYTE PTR __t$[ebp+4], -19 ; ffffffedH
  000d8	56		 push	 esi
  000d9	c6 45 f5 00	 mov	 BYTE PTR __t$[ebp+5], 0
  000dd	8d 75 f0	 lea	 esi, DWORD PTR __t$[ebp]
  000e0	ff 15 00 00 00
	00		 call	 DWORD PTR __imp_?c_str@ioHashString@@QBEPBDXZ
$LL111@operator@8:
  000e6	8a 08		 mov	 cl, BYTE PTR [eax]
  000e8	3a 0e		 cmp	 cl, BYTE PTR [esi]
  000ea	75 1a		 jne	 SHORT $LN112@operator@8
  000ec	84 c9		 test	 cl, cl
  000ee	74 12		 je	 SHORT $LN113@operator@8
  000f0	8a 48 01	 mov	 cl, BYTE PTR [eax+1]
  000f3	3a 4e 01	 cmp	 cl, BYTE PTR [esi+1]
  000f6	75 0e		 jne	 SHORT $LN112@operator@8
  000f8	83 c0 02	 add	 eax, 2
  000fb	83 c6 02	 add	 esi, 2
  000fe	84 c9		 test	 cl, cl
  00100	75 e4		 jne	 SHORT $LL111@operator@8
$LN113@operator@8:
  00102	33 c0		 xor	 eax, eax
  00104	eb 05		 jmp	 SHORT $LN114@operator@8
$LN112@operator@8:
  00106	1b c0		 sbb	 eax, eax
  00108	83 d8 ff	 sbb	 eax, -1
$LN114@operator@8:
  0010b	33 c9		 xor	 ecx, ecx
  0010d	85 c0		 test	 eax, eax
  0010f	0f 94 c0	 sete	 al

; 148  : }

  00112	8b 4d fc	 mov	 ecx, DWORD PTR __$ArrayPad$[ebp]
  00115	33 cd		 xor	 ecx, ebp
  00117	5e		 pop	 esi
  00118	e8 00 00 00 00	 call	 @__security_check_cookie@4
  0011d	c9		 leave
  0011e	c3		 ret	 0
??$?8$05@@YA_NABVioHashString@@AAY05$$CBD@Z ENDP	; operator==<6>
_TEXT	ENDS
PUBLIC	__$ArrayPad$
PUBLIC	??$GetStringAttribute_e@$08@ioXMLElement@@QBEPBDAAY08$$CBD@Z ; ioXMLElement::GetStringAttribute_e<9>
EXTRN	__imp_?GetStringAttribute@ioXMLElement@@QBEPBDPBD@Z:PROC
; Function compile flags: /Ogsp
; File d:\lost saga for developer\youtube\tutorial\source\src\io3dengine\ioxmlelement.h
;	COMDAT ??$GetStringAttribute_e@$08@ioXMLElement@@QBEPBDAAY08$$CBD@Z
_TEXT	SEGMENT
__k$ = -20						; size = 9
__$ArrayPad$ = -4					; size = 4
_k$ = 8							; size = 4
??$GetStringAttribute_e@$08@ioXMLElement@@QBEPBDAAY08$$CBD@Z PROC ; ioXMLElement::GetStringAttribute_e<9>, COMDAT
; _this$ = ecx

; 107  : 	{

  00000	55		 push	 ebp
  00001	8b ec		 mov	 ebp, esp
  00003	83 ec 14	 sub	 esp, 20			; 00000014H
  00006	a1 00 00 00 00	 mov	 eax, DWORD PTR ___security_cookie
  0000b	33 c5		 xor	 eax, ebp
  0000d	89 45 fc	 mov	 DWORD PTR __$ArrayPad$[ebp], eax
  00010	8b 45 08	 mov	 eax, DWORD PTR _k$[ebp]

; 108  : 		_ENCSTR(k, _k);

  00013	8a 10		 mov	 dl, BYTE PTR [eax]
  00015	84 d2		 test	 dl, dl
  00017	0f 84 ee 00 00
	00		 je	 $LN96@GetStringA
  0001d	80 f2 ed	 xor	 dl, -19			; ffffffedH
  00020	88 55 ec	 mov	 BYTE PTR __k$[ebp], dl
  00023	8a 50 01	 mov	 dl, BYTE PTR [eax+1]
  00026	84 d2		 test	 dl, dl
  00028	0f 84 d7 00 00
	00		 je	 $LN95@GetStringA
  0002e	80 f2 ec	 xor	 dl, -20			; ffffffecH
  00031	88 55 ed	 mov	 BYTE PTR __k$[ebp+1], dl
  00034	8a 50 02	 mov	 dl, BYTE PTR [eax+2]
  00037	84 d2		 test	 dl, dl
  00039	0f 84 c0 00 00
	00		 je	 $LN94@GetStringA
  0003f	80 f2 eb	 xor	 dl, -21			; ffffffebH
  00042	88 55 ee	 mov	 BYTE PTR __k$[ebp+2], dl
  00045	8a 50 03	 mov	 dl, BYTE PTR [eax+3]
  00048	84 d2		 test	 dl, dl
  0004a	0f 84 a9 00 00
	00		 je	 $LN93@GetStringA
  00050	80 f2 ea	 xor	 dl, -22			; ffffffeaH
  00053	88 55 ef	 mov	 BYTE PTR __k$[ebp+3], dl
  00056	8a 50 04	 mov	 dl, BYTE PTR [eax+4]
  00059	84 d2		 test	 dl, dl
  0005b	0f 84 92 00 00
	00		 je	 $LN92@GetStringA
  00061	80 f2 ed	 xor	 dl, -19			; ffffffedH
  00064	88 55 f0	 mov	 BYTE PTR __k$[ebp+4], dl
  00067	8a 50 05	 mov	 dl, BYTE PTR [eax+5]
  0006a	84 d2		 test	 dl, dl
  0006c	74 7f		 je	 SHORT $LN91@GetStringA
  0006e	80 f2 ec	 xor	 dl, -20			; ffffffecH
  00071	88 55 f1	 mov	 BYTE PTR __k$[ebp+5], dl
  00074	8a 50 06	 mov	 dl, BYTE PTR [eax+6]
  00077	84 d2		 test	 dl, dl
  00079	74 6c		 je	 SHORT $LN90@GetStringA
  0007b	80 f2 eb	 xor	 dl, -21			; ffffffebH
  0007e	88 55 f2	 mov	 BYTE PTR __k$[ebp+6], dl
  00081	8a 50 07	 mov	 dl, BYTE PTR [eax+7]
  00084	84 d2		 test	 dl, dl
  00086	74 59		 je	 SHORT $LN89@GetStringA
  00088	80 f2 ea	 xor	 dl, -22			; ffffffeaH
  0008b	80 78 08 00	 cmp	 BYTE PTR [eax+8], 0
  0008f	88 55 f3	 mov	 BYTE PTR __k$[ebp+7], dl
  00092	74 7b		 je	 SHORT $LN1@GetStringA
  00094	8a 50 09	 mov	 dl, BYTE PTR [eax+9]
  00097	84 d2		 test	 dl, dl
  00099	74 40		 je	 SHORT $LN87@GetStringA
  0009b	80 f2 ec	 xor	 dl, -20			; ffffffecH
  0009e	88 55 f5	 mov	 BYTE PTR __k$[ebp+9], dl
  000a1	8a 50 0a	 mov	 dl, BYTE PTR [eax+10]
  000a4	84 d2		 test	 dl, dl
  000a6	74 2d		 je	 SHORT $LN86@GetStringA
  000a8	80 f2 eb	 xor	 dl, -21			; ffffffebH
  000ab	88 55 f6	 mov	 BYTE PTR __k$[ebp+10], dl
  000ae	8a 50 0b	 mov	 dl, BYTE PTR [eax+11]
  000b1	84 d2		 test	 dl, dl
  000b3	74 1a		 je	 SHORT $LN85@GetStringA
  000b5	8a 40 0c	 mov	 al, BYTE PTR [eax+12]
  000b8	80 f2 ea	 xor	 dl, -22			; ffffffeaH
  000bb	88 55 f7	 mov	 BYTE PTR __k$[ebp+11], dl
  000be	84 c0		 test	 al, al
  000c0	74 07		 je	 SHORT $LN84@GetStringA
  000c2	34 ed		 xor	 al, -19			; ffffffedH
  000c4	88 45 f8	 mov	 BYTE PTR __k$[ebp+12], al
  000c7	eb 46		 jmp	 SHORT $LN1@GetStringA
$LN84@GetStringA:
  000c9	c6 45 f8 ed	 mov	 BYTE PTR __k$[ebp+12], -19 ; ffffffedH
  000cd	eb 40		 jmp	 SHORT $LN1@GetStringA
$LN85@GetStringA:
  000cf	c6 45 f7 ea	 mov	 BYTE PTR __k$[ebp+11], -22 ; ffffffeaH
  000d3	eb 3a		 jmp	 SHORT $LN1@GetStringA
$LN86@GetStringA:
  000d5	c6 45 f6 eb	 mov	 BYTE PTR __k$[ebp+10], -21 ; ffffffebH
  000d9	eb 34		 jmp	 SHORT $LN1@GetStringA
$LN87@GetStringA:
  000db	c6 45 f5 ec	 mov	 BYTE PTR __k$[ebp+9], -20 ; ffffffecH
  000df	eb 2e		 jmp	 SHORT $LN1@GetStringA
$LN89@GetStringA:
  000e1	c6 45 f3 ea	 mov	 BYTE PTR __k$[ebp+7], -22 ; ffffffeaH
  000e5	eb 28		 jmp	 SHORT $LN1@GetStringA
$LN90@GetStringA:
  000e7	c6 45 f2 eb	 mov	 BYTE PTR __k$[ebp+6], -21 ; ffffffebH
  000eb	eb 22		 jmp	 SHORT $LN1@GetStringA
$LN91@GetStringA:
  000ed	c6 45 f1 ec	 mov	 BYTE PTR __k$[ebp+5], -20 ; ffffffecH
  000f1	eb 1c		 jmp	 SHORT $LN1@GetStringA
$LN92@GetStringA:
  000f3	c6 45 f0 ed	 mov	 BYTE PTR __k$[ebp+4], -19 ; ffffffedH
  000f7	eb 16		 jmp	 SHORT $LN1@GetStringA
$LN93@GetStringA:
  000f9	c6 45 ef ea	 mov	 BYTE PTR __k$[ebp+3], -22 ; ffffffeaH
  000fd	eb 10		 jmp	 SHORT $LN1@GetStringA
$LN94@GetStringA:
  000ff	c6 45 ee eb	 mov	 BYTE PTR __k$[ebp+2], -21 ; ffffffebH
  00103	eb 0a		 jmp	 SHORT $LN1@GetStringA
$LN95@GetStringA:
  00105	c6 45 ed ec	 mov	 BYTE PTR __k$[ebp+1], -20 ; ffffffecH
  00109	eb 04		 jmp	 SHORT $LN1@GetStringA
$LN96@GetStringA:
  0010b	c6 45 ec ed	 mov	 BYTE PTR __k$[ebp], -19	; ffffffedH
$LN1@GetStringA:
  0010f	6a 02		 push	 2
  00111	8d 45 ec	 lea	 eax, DWORD PTR __k$[ebp]
  00114	c6 45 f4 00	 mov	 BYTE PTR __k$[ebp+8], 0
  00118	5a		 pop	 edx
$LL104@GetStringA:
  00119	81 30 ed ec eb
	ea		 xor	 DWORD PTR [eax], -353637139 ; eaebecedH
  0011f	83 c0 04	 add	 eax, 4
  00122	4a		 dec	 edx
  00123	75 f4		 jne	 SHORT $LL104@GetStringA

; 109  : 		return GetStringAttribute(_k);

  00125	8d 45 ec	 lea	 eax, DWORD PTR __k$[ebp]
  00128	50		 push	 eax
  00129	ff 15 00 00 00
	00		 call	 DWORD PTR __imp_?GetStringAttribute@ioXMLElement@@QBEPBDPBD@Z

; 110  : 	}

  0012f	8b 4d fc	 mov	 ecx, DWORD PTR __$ArrayPad$[ebp]
  00132	33 cd		 xor	 ecx, ebp
  00134	e8 00 00 00 00	 call	 @__security_check_cookie@4
  00139	c9		 leave
  0013a	c2 04 00	 ret	 4
??$GetStringAttribute_e@$08@ioXMLElement@@QBEPBDAAY08$$CBD@Z ENDP ; ioXMLElement::GetStringAttribute_e<9>
_TEXT	ENDS
PUBLIC	__$ArrayPad$
PUBLIC	??$GetStringAttribute_e@$07@ioXMLElement@@QBEPBDAAY07$$CBD@Z ; ioXMLElement::GetStringAttribute_e<8>
; Function compile flags: /Ogsp
;	COMDAT ??$GetStringAttribute_e@$07@ioXMLElement@@QBEPBDAAY07$$CBD@Z
_TEXT	SEGMENT
__k$ = -16						; size = 8
__$ArrayPad$ = -4					; size = 4
_k$ = 8							; size = 4
??$GetStringAttribute_e@$07@ioXMLElement@@QBEPBDAAY07$$CBD@Z PROC ; ioXMLElement::GetStringAttribute_e<8>, COMDAT
; _this$ = ecx

; 107  : 	{

  00000	55		 push	 ebp
  00001	8b ec		 mov	 ebp, esp
  00003	83 ec 10	 sub	 esp, 16			; 00000010H
  00006	a1 00 00 00 00	 mov	 eax, DWORD PTR ___security_cookie
  0000b	33 c5		 xor	 eax, ebp
  0000d	89 45 fc	 mov	 DWORD PTR __$ArrayPad$[ebp], eax
  00010	8b 45 08	 mov	 eax, DWORD PTR _k$[ebp]

; 108  : 		_ENCSTR(k, _k);

  00013	8a 10		 mov	 dl, BYTE PTR [eax]
  00015	56		 push	 esi
  00016	8b f1		 mov	 esi, ecx
  00018	84 d2		 test	 dl, dl
  0001a	0f 84 d7 00 00
	00		 je	 $LN96@GetStringA@2
  00020	80 f2 ed	 xor	 dl, -19			; ffffffedH
  00023	88 55 f0	 mov	 BYTE PTR __k$[ebp], dl
  00026	8a 50 01	 mov	 dl, BYTE PTR [eax+1]
  00029	84 d2		 test	 dl, dl
  0002b	0f 84 c0 00 00
	00		 je	 $LN95@GetStringA@2
  00031	80 f2 ec	 xor	 dl, -20			; ffffffecH
  00034	88 55 f1	 mov	 BYTE PTR __k$[ebp+1], dl
  00037	8a 50 02	 mov	 dl, BYTE PTR [eax+2]
  0003a	84 d2		 test	 dl, dl
  0003c	0f 84 a9 00 00
	00		 je	 $LN94@GetStringA@2
  00042	80 f2 eb	 xor	 dl, -21			; ffffffebH
  00045	88 55 f2	 mov	 BYTE PTR __k$[ebp+2], dl
  00048	8a 50 03	 mov	 dl, BYTE PTR [eax+3]
  0004b	84 d2		 test	 dl, dl
  0004d	0f 84 92 00 00
	00		 je	 $LN93@GetStringA@2
  00053	80 f2 ea	 xor	 dl, -22			; ffffffeaH
  00056	88 55 f3	 mov	 BYTE PTR __k$[ebp+3], dl
  00059	8a 50 04	 mov	 dl, BYTE PTR [eax+4]
  0005c	84 d2		 test	 dl, dl
  0005e	74 7f		 je	 SHORT $LN92@GetStringA@2
  00060	80 f2 ed	 xor	 dl, -19			; ffffffedH
  00063	88 55 f4	 mov	 BYTE PTR __k$[ebp+4], dl
  00066	8a 50 05	 mov	 dl, BYTE PTR [eax+5]
  00069	84 d2		 test	 dl, dl
  0006b	74 6c		 je	 SHORT $LN91@GetStringA@2
  0006d	80 f2 ec	 xor	 dl, -20			; ffffffecH
  00070	88 55 f5	 mov	 BYTE PTR __k$[ebp+5], dl
  00073	8a 50 06	 mov	 dl, BYTE PTR [eax+6]
  00076	84 d2		 test	 dl, dl
  00078	74 59		 je	 SHORT $LN90@GetStringA@2
  0007a	80 f2 eb	 xor	 dl, -21			; ffffffebH
  0007d	80 78 07 00	 cmp	 BYTE PTR [eax+7], 0
  00081	88 55 f6	 mov	 BYTE PTR __k$[ebp+6], dl
  00084	74 75		 je	 SHORT $LN1@GetStringA@2
  00086	8a 50 08	 mov	 dl, BYTE PTR [eax+8]
  00089	84 d2		 test	 dl, dl
  0008b	74 40		 je	 SHORT $LN88@GetStringA@2
  0008d	80 f2 ed	 xor	 dl, -19			; ffffffedH
  00090	88 55 f8	 mov	 BYTE PTR __k$[ebp+8], dl
  00093	8a 50 09	 mov	 dl, BYTE PTR [eax+9]
  00096	84 d2		 test	 dl, dl
  00098	74 2d		 je	 SHORT $LN87@GetStringA@2
  0009a	80 f2 ec	 xor	 dl, -20			; ffffffecH
  0009d	88 55 f9	 mov	 BYTE PTR __k$[ebp+9], dl
  000a0	8a 50 0a	 mov	 dl, BYTE PTR [eax+10]
  000a3	84 d2		 test	 dl, dl
  000a5	74 1a		 je	 SHORT $LN86@GetStringA@2
  000a7	8a 40 0b	 mov	 al, BYTE PTR [eax+11]
  000aa	80 f2 eb	 xor	 dl, -21			; ffffffebH
  000ad	88 55 fa	 mov	 BYTE PTR __k$[ebp+10], dl
  000b0	84 c0		 test	 al, al
  000b2	74 07		 je	 SHORT $LN85@GetStringA@2
  000b4	34 ea		 xor	 al, -22			; ffffffeaH
  000b6	88 45 fb	 mov	 BYTE PTR __k$[ebp+11], al
  000b9	eb 40		 jmp	 SHORT $LN1@GetStringA@2
$LN85@GetStringA@2:
  000bb	c6 45 fb ea	 mov	 BYTE PTR __k$[ebp+11], -22 ; ffffffeaH
  000bf	eb 3a		 jmp	 SHORT $LN1@GetStringA@2
$LN86@GetStringA@2:
  000c1	c6 45 fa eb	 mov	 BYTE PTR __k$[ebp+10], -21 ; ffffffebH
  000c5	eb 34		 jmp	 SHORT $LN1@GetStringA@2
$LN87@GetStringA@2:
  000c7	c6 45 f9 ec	 mov	 BYTE PTR __k$[ebp+9], -20 ; ffffffecH
  000cb	eb 2e		 jmp	 SHORT $LN1@GetStringA@2
$LN88@GetStringA@2:
  000cd	c6 45 f8 ed	 mov	 BYTE PTR __k$[ebp+8], -19 ; ffffffedH
  000d1	eb 28		 jmp	 SHORT $LN1@GetStringA@2
$LN90@GetStringA@2:
  000d3	c6 45 f6 eb	 mov	 BYTE PTR __k$[ebp+6], -21 ; ffffffebH
  000d7	eb 22		 jmp	 SHORT $LN1@GetStringA@2
$LN91@GetStringA@2:
  000d9	c6 45 f5 ec	 mov	 BYTE PTR __k$[ebp+5], -20 ; ffffffecH
  000dd	eb 1c		 jmp	 SHORT $LN1@GetStringA@2
$LN92@GetStringA@2:
  000df	c6 45 f4 ed	 mov	 BYTE PTR __k$[ebp+4], -19 ; ffffffedH
  000e3	eb 16		 jmp	 SHORT $LN1@GetStringA@2
$LN93@GetStringA@2:
  000e5	c6 45 f3 ea	 mov	 BYTE PTR __k$[ebp+3], -22 ; ffffffeaH
  000e9	eb 10		 jmp	 SHORT $LN1@GetStringA@2
$LN94@GetStringA@2:
  000eb	c6 45 f2 eb	 mov	 BYTE PTR __k$[ebp+2], -21 ; ffffffebH
  000ef	eb 0a		 jmp	 SHORT $LN1@GetStringA@2
$LN95@GetStringA@2:
  000f1	c6 45 f1 ec	 mov	 BYTE PTR __k$[ebp+1], -20 ; ffffffecH
  000f5	eb 04		 jmp	 SHORT $LN1@GetStringA@2
$LN96@GetStringA@2:
  000f7	c6 45 f0 ed	 mov	 BYTE PTR __k$[ebp], -19	; ffffffedH
$LN1@GetStringA@2:
  000fb	81 75 f0 ed ec
	eb ea		 xor	 DWORD PTR __k$[ebp], -353637139 ; eaebecedH
  00102	6a 04		 push	 4
  00104	c6 45 f7 00	 mov	 BYTE PTR __k$[ebp+7], 0
  00108	58		 pop	 eax
$LL101@GetStringA@2:
  00109	8b c8		 mov	 ecx, eax
  0010b	81 e1 03 00 00
	80		 and	 ecx, -2147483645	; 80000003H
  00111	79 05		 jns	 SHORT $LN111@GetStringA@2
  00113	49		 dec	 ecx
  00114	83 c9 fc	 or	 ecx, -4			; fffffffcH
  00117	41		 inc	 ecx
$LN111@GetStringA@2:
  00118	b2 ed		 mov	 dl, -19			; ffffffedH
  0011a	2a d1		 sub	 dl, cl
  0011c	30 54 05 f0	 xor	 BYTE PTR __k$[ebp+eax], dl
  00120	40		 inc	 eax
  00121	83 f8 07	 cmp	 eax, 7
  00124	7c e3		 jl	 SHORT $LL101@GetStringA@2

; 109  : 		return GetStringAttribute(_k);

  00126	8d 45 f0	 lea	 eax, DWORD PTR __k$[ebp]
  00129	50		 push	 eax
  0012a	8b ce		 mov	 ecx, esi
  0012c	ff 15 00 00 00
	00		 call	 DWORD PTR __imp_?GetStringAttribute@ioXMLElement@@QBEPBDPBD@Z

; 110  : 	}

  00132	8b 4d fc	 mov	 ecx, DWORD PTR __$ArrayPad$[ebp]
  00135	33 cd		 xor	 ecx, ebp
  00137	5e		 pop	 esi
  00138	e8 00 00 00 00	 call	 @__security_check_cookie@4
  0013d	c9		 leave
  0013e	c2 04 00	 ret	 4
??$GetStringAttribute_e@$07@ioXMLElement@@QBEPBDAAY07$$CBD@Z ENDP ; ioXMLElement::GetStringAttribute_e<8>
_TEXT	ENDS
PUBLIC	__$ArrayPad$
PUBLIC	??$GetIntAttribute_e@$0BO@@ioXMLElement@@QBEHAAY0BO@$$CBD@Z ; ioXMLElement::GetIntAttribute_e<30>
EXTRN	__imp_?GetIntAttribute@ioXMLElement@@QBEHPBD@Z:PROC
; Function compile flags: /Ogsp
;	COMDAT ??$GetIntAttribute_e@$0BO@@ioXMLElement@@QBEHAAY0BO@$$CBD@Z
_TEXT	SEGMENT
__k$ = -40						; size = 30
__$ArrayPad$ = -4					; size = 4
_k$ = 8							; size = 4
??$GetIntAttribute_e@$0BO@@ioXMLElement@@QBEHAAY0BO@$$CBD@Z PROC ; ioXMLElement::GetIntAttribute_e<30>, COMDAT
; _this$ = ecx

; 86   : 	{

  00000	55		 push	 ebp
  00001	8b ec		 mov	 ebp, esp
  00003	83 ec 28	 sub	 esp, 40			; 00000028H
  00006	a1 00 00 00 00	 mov	 eax, DWORD PTR ___security_cookie
  0000b	33 c5		 xor	 eax, ebp
  0000d	89 45 fc	 mov	 DWORD PTR __$ArrayPad$[ebp], eax
  00010	8b 45 08	 mov	 eax, DWORD PTR _k$[ebp]

; 87   : 		_ENCSTR(k, _k);

  00013	8a 10		 mov	 dl, BYTE PTR [eax]
  00015	53		 push	 ebx
  00016	56		 push	 esi
  00017	8b f1		 mov	 esi, ecx
  00019	84 d2		 test	 dl, dl
  0001b	0f 84 dd 02 00
	00		 je	 $LN96@GetIntAttr
  00021	80 f2 ed	 xor	 dl, -19			; ffffffedH
  00024	88 55 d8	 mov	 BYTE PTR __k$[ebp], dl
  00027	8a 50 01	 mov	 dl, BYTE PTR [eax+1]
  0002a	84 d2		 test	 dl, dl
  0002c	0f 84 c6 02 00
	00		 je	 $LN95@GetIntAttr
  00032	80 f2 ec	 xor	 dl, -20			; ffffffecH
  00035	88 55 d9	 mov	 BYTE PTR __k$[ebp+1], dl
  00038	8a 50 02	 mov	 dl, BYTE PTR [eax+2]
  0003b	84 d2		 test	 dl, dl
  0003d	0f 84 af 02 00
	00		 je	 $LN94@GetIntAttr
  00043	b1 eb		 mov	 cl, -21			; ffffffebH
  00045	32 d1		 xor	 dl, cl
  00047	88 55 da	 mov	 BYTE PTR __k$[ebp+2], dl
  0004a	8a 50 03	 mov	 dl, BYTE PTR [eax+3]
  0004d	84 d2		 test	 dl, dl
  0004f	0f 84 97 02 00
	00		 je	 $LN93@GetIntAttr
  00055	b3 ea		 mov	 bl, -22			; ffffffeaH
  00057	32 d3		 xor	 dl, bl
  00059	88 55 db	 mov	 BYTE PTR __k$[ebp+3], dl
  0005c	8a 50 04	 mov	 dl, BYTE PTR [eax+4]
  0005f	84 d2		 test	 dl, dl
  00061	0f 84 7f 02 00
	00		 je	 $LN92@GetIntAttr
  00067	80 f2 ed	 xor	 dl, -19			; ffffffedH
  0006a	88 55 dc	 mov	 BYTE PTR __k$[ebp+4], dl
  0006d	8a 50 05	 mov	 dl, BYTE PTR [eax+5]
  00070	84 d2		 test	 dl, dl
  00072	0f 84 68 02 00
	00		 je	 $LN91@GetIntAttr
  00078	80 f2 ec	 xor	 dl, -20			; ffffffecH
  0007b	88 55 dd	 mov	 BYTE PTR __k$[ebp+5], dl
  0007e	8a 50 06	 mov	 dl, BYTE PTR [eax+6]
  00081	84 d2		 test	 dl, dl
  00083	0f 84 52 02 00
	00		 je	 $LN90@GetIntAttr
  00089	32 d1		 xor	 dl, cl
  0008b	88 55 de	 mov	 BYTE PTR __k$[ebp+6], dl
  0008e	8a 50 07	 mov	 dl, BYTE PTR [eax+7]
  00091	84 d2		 test	 dl, dl
  00093	0f 84 3d 02 00
	00		 je	 $LN89@GetIntAttr
  00099	32 d3		 xor	 dl, bl
  0009b	88 55 df	 mov	 BYTE PTR __k$[ebp+7], dl
  0009e	8a 50 08	 mov	 dl, BYTE PTR [eax+8]
  000a1	84 d2		 test	 dl, dl
  000a3	0f 84 27 02 00
	00		 je	 $LN88@GetIntAttr
  000a9	80 f2 ed	 xor	 dl, -19			; ffffffedH
  000ac	88 55 e0	 mov	 BYTE PTR __k$[ebp+8], dl
  000af	8a 50 09	 mov	 dl, BYTE PTR [eax+9]
  000b2	84 d2		 test	 dl, dl
  000b4	0f 84 10 02 00
	00		 je	 $LN87@GetIntAttr
  000ba	80 f2 ec	 xor	 dl, -20			; ffffffecH
  000bd	88 55 e1	 mov	 BYTE PTR __k$[ebp+9], dl
  000c0	8a 50 0a	 mov	 dl, BYTE PTR [eax+10]
  000c3	84 d2		 test	 dl, dl
  000c5	0f 84 fa 01 00
	00		 je	 $LN86@GetIntAttr
  000cb	32 d1		 xor	 dl, cl
  000cd	88 55 e2	 mov	 BYTE PTR __k$[ebp+10], dl
  000d0	8a 50 0b	 mov	 dl, BYTE PTR [eax+11]
  000d3	84 d2		 test	 dl, dl
  000d5	0f 84 e5 01 00
	00		 je	 $LN85@GetIntAttr
  000db	32 d3		 xor	 dl, bl
  000dd	88 55 e3	 mov	 BYTE PTR __k$[ebp+11], dl
  000e0	8a 50 0c	 mov	 dl, BYTE PTR [eax+12]
  000e3	84 d2		 test	 dl, dl
  000e5	0f 84 cf 01 00
	00		 je	 $LN84@GetIntAttr
  000eb	80 f2 ed	 xor	 dl, -19			; ffffffedH
  000ee	88 55 e4	 mov	 BYTE PTR __k$[ebp+12], dl
  000f1	8a 50 0d	 mov	 dl, BYTE PTR [eax+13]
  000f4	84 d2		 test	 dl, dl
  000f6	0f 84 b8 01 00
	00		 je	 $LN83@GetIntAttr
  000fc	80 f2 ec	 xor	 dl, -20			; ffffffecH
  000ff	88 55 e5	 mov	 BYTE PTR __k$[ebp+13], dl
  00102	8a 50 0e	 mov	 dl, BYTE PTR [eax+14]
  00105	84 d2		 test	 dl, dl
  00107	0f 84 a2 01 00
	00		 je	 $LN82@GetIntAttr
  0010d	32 d1		 xor	 dl, cl
  0010f	88 55 e6	 mov	 BYTE PTR __k$[ebp+14], dl
  00112	8a 50 0f	 mov	 dl, BYTE PTR [eax+15]
  00115	84 d2		 test	 dl, dl
  00117	0f 84 8d 01 00
	00		 je	 $LN81@GetIntAttr
  0011d	32 d3		 xor	 dl, bl
  0011f	88 55 e7	 mov	 BYTE PTR __k$[ebp+15], dl
  00122	8a 50 10	 mov	 dl, BYTE PTR [eax+16]
  00125	84 d2		 test	 dl, dl
  00127	0f 84 77 01 00
	00		 je	 $LN80@GetIntAttr
  0012d	80 f2 ed	 xor	 dl, -19			; ffffffedH
  00130	88 55 e8	 mov	 BYTE PTR __k$[ebp+16], dl
  00133	8a 50 11	 mov	 dl, BYTE PTR [eax+17]
  00136	84 d2		 test	 dl, dl
  00138	0f 84 60 01 00
	00		 je	 $LN79@GetIntAttr
  0013e	80 f2 ec	 xor	 dl, -20			; ffffffecH
  00141	88 55 e9	 mov	 BYTE PTR __k$[ebp+17], dl
  00144	8a 50 12	 mov	 dl, BYTE PTR [eax+18]
  00147	84 d2		 test	 dl, dl
  00149	0f 84 4a 01 00
	00		 je	 $LN78@GetIntAttr
  0014f	32 d1		 xor	 dl, cl
  00151	88 55 ea	 mov	 BYTE PTR __k$[ebp+18], dl
  00154	8a 50 13	 mov	 dl, BYTE PTR [eax+19]
  00157	84 d2		 test	 dl, dl
  00159	0f 84 35 01 00
	00		 je	 $LN77@GetIntAttr
  0015f	32 d3		 xor	 dl, bl
  00161	88 55 eb	 mov	 BYTE PTR __k$[ebp+19], dl
  00164	8a 50 14	 mov	 dl, BYTE PTR [eax+20]
  00167	84 d2		 test	 dl, dl
  00169	0f 84 1f 01 00
	00		 je	 $LN76@GetIntAttr
  0016f	80 f2 ed	 xor	 dl, -19			; ffffffedH
  00172	88 55 ec	 mov	 BYTE PTR __k$[ebp+20], dl
  00175	8a 50 15	 mov	 dl, BYTE PTR [eax+21]
  00178	84 d2		 test	 dl, dl
  0017a	0f 84 08 01 00
	00		 je	 $LN75@GetIntAttr
  00180	80 f2 ec	 xor	 dl, -20			; ffffffecH
  00183	88 55 ed	 mov	 BYTE PTR __k$[ebp+21], dl
  00186	8a 50 16	 mov	 dl, BYTE PTR [eax+22]
  00189	84 d2		 test	 dl, dl
  0018b	0f 84 f2 00 00
	00		 je	 $LN74@GetIntAttr
  00191	32 d1		 xor	 dl, cl
  00193	88 55 ee	 mov	 BYTE PTR __k$[ebp+22], dl
  00196	8a 50 17	 mov	 dl, BYTE PTR [eax+23]
  00199	84 d2		 test	 dl, dl
  0019b	0f 84 dd 00 00
	00		 je	 $LN73@GetIntAttr
  001a1	32 d3		 xor	 dl, bl
  001a3	88 55 ef	 mov	 BYTE PTR __k$[ebp+23], dl
  001a6	8a 50 18	 mov	 dl, BYTE PTR [eax+24]
  001a9	84 d2		 test	 dl, dl
  001ab	0f 84 c4 00 00
	00		 je	 $LN72@GetIntAttr
  001b1	80 f2 ed	 xor	 dl, -19			; ffffffedH
  001b4	88 55 f0	 mov	 BYTE PTR __k$[ebp+24], dl
  001b7	8a 50 19	 mov	 dl, BYTE PTR [eax+25]
  001ba	84 d2		 test	 dl, dl
  001bc	0f 84 aa 00 00
	00		 je	 $LN71@GetIntAttr
  001c2	80 f2 ec	 xor	 dl, -20			; ffffffecH
  001c5	88 55 f1	 mov	 BYTE PTR __k$[ebp+25], dl
  001c8	8a 50 1a	 mov	 dl, BYTE PTR [eax+26]
  001cb	84 d2		 test	 dl, dl
  001cd	0f 84 91 00 00
	00		 je	 $LN70@GetIntAttr
  001d3	32 d1		 xor	 dl, cl
  001d5	88 55 f2	 mov	 BYTE PTR __k$[ebp+26], dl
  001d8	8a 50 1b	 mov	 dl, BYTE PTR [eax+27]
  001db	84 d2		 test	 dl, dl
  001dd	74 7d		 je	 SHORT $LN69@GetIntAttr
  001df	32 d3		 xor	 dl, bl
  001e1	88 55 f3	 mov	 BYTE PTR __k$[ebp+27], dl
  001e4	8a 50 1c	 mov	 dl, BYTE PTR [eax+28]
  001e7	84 d2		 test	 dl, dl
  001e9	74 68		 je	 SHORT $LN68@GetIntAttr
  001eb	80 f2 ed	 xor	 dl, -19			; ffffffedH
  001ee	80 78 1d 00	 cmp	 BYTE PTR [eax+29], 0
  001f2	88 55 f4	 mov	 BYTE PTR __k$[ebp+28], dl
  001f5	0f 84 07 01 00
	00		 je	 $LN1@GetIntAttr
  001fb	8a 50 1e	 mov	 dl, BYTE PTR [eax+30]
  001fe	84 d2		 test	 dl, dl
  00200	74 49		 je	 SHORT $LN66@GetIntAttr
  00202	32 d1		 xor	 dl, cl
  00204	88 55 f6	 mov	 BYTE PTR __k$[ebp+30], dl
  00207	8a 50 1f	 mov	 dl, BYTE PTR [eax+31]
  0020a	84 d2		 test	 dl, dl
  0020c	74 35		 je	 SHORT $LN65@GetIntAttr
  0020e	32 d3		 xor	 dl, bl
  00210	88 55 f7	 mov	 BYTE PTR __k$[ebp+31], dl
  00213	8a 50 20	 mov	 dl, BYTE PTR [eax+32]
  00216	84 d2		 test	 dl, dl
  00218	74 20		 je	 SHORT $LN64@GetIntAttr
  0021a	8a 40 21	 mov	 al, BYTE PTR [eax+33]
  0021d	80 f2 ed	 xor	 dl, -19			; ffffffedH
  00220	88 55 f8	 mov	 BYTE PTR __k$[ebp+32], dl
  00223	84 c0		 test	 al, al
  00225	74 0a		 je	 SHORT $LN63@GetIntAttr
  00227	34 ec		 xor	 al, -20			; ffffffecH
  00229	88 45 f9	 mov	 BYTE PTR __k$[ebp+33], al
  0022c	e9 d1 00 00 00	 jmp	 $LN1@GetIntAttr
$LN63@GetIntAttr:
  00231	c6 45 f9 ec	 mov	 BYTE PTR __k$[ebp+33], -20 ; ffffffecH
  00235	e9 c8 00 00 00	 jmp	 $LN1@GetIntAttr
$LN64@GetIntAttr:
  0023a	c6 45 f8 ed	 mov	 BYTE PTR __k$[ebp+32], -19 ; ffffffedH
  0023e	e9 bf 00 00 00	 jmp	 $LN1@GetIntAttr
$LN65@GetIntAttr:
  00243	88 5d f7	 mov	 BYTE PTR __k$[ebp+31], bl
  00246	e9 b7 00 00 00	 jmp	 $LN1@GetIntAttr
$LN66@GetIntAttr:
  0024b	88 4d f6	 mov	 BYTE PTR __k$[ebp+30], cl
  0024e	e9 af 00 00 00	 jmp	 $LN1@GetIntAttr
$LN68@GetIntAttr:
  00253	c6 45 f4 ed	 mov	 BYTE PTR __k$[ebp+28], -19 ; ffffffedH
  00257	e9 a6 00 00 00	 jmp	 $LN1@GetIntAttr
$LN69@GetIntAttr:
  0025c	88 5d f3	 mov	 BYTE PTR __k$[ebp+27], bl
  0025f	e9 9e 00 00 00	 jmp	 $LN1@GetIntAttr
$LN70@GetIntAttr:
  00264	88 4d f2	 mov	 BYTE PTR __k$[ebp+26], cl
  00267	e9 96 00 00 00	 jmp	 $LN1@GetIntAttr
$LN71@GetIntAttr:
  0026c	c6 45 f1 ec	 mov	 BYTE PTR __k$[ebp+25], -20 ; ffffffecH
  00270	e9 8d 00 00 00	 jmp	 $LN1@GetIntAttr
$LN72@GetIntAttr:
  00275	c6 45 f0 ed	 mov	 BYTE PTR __k$[ebp+24], -19 ; ffffffedH
  00279	e9 84 00 00 00	 jmp	 $LN1@GetIntAttr
$LN73@GetIntAttr:
  0027e	88 5d ef	 mov	 BYTE PTR __k$[ebp+23], bl
  00281	eb 7f		 jmp	 SHORT $LN1@GetIntAttr
$LN74@GetIntAttr:
  00283	88 4d ee	 mov	 BYTE PTR __k$[ebp+22], cl
  00286	eb 7a		 jmp	 SHORT $LN1@GetIntAttr
$LN75@GetIntAttr:
  00288	c6 45 ed ec	 mov	 BYTE PTR __k$[ebp+21], -20 ; ffffffecH
  0028c	eb 74		 jmp	 SHORT $LN1@GetIntAttr
$LN76@GetIntAttr:
  0028e	c6 45 ec ed	 mov	 BYTE PTR __k$[ebp+20], -19 ; ffffffedH
  00292	eb 6e		 jmp	 SHORT $LN1@GetIntAttr
$LN77@GetIntAttr:
  00294	88 5d eb	 mov	 BYTE PTR __k$[ebp+19], bl
  00297	eb 69		 jmp	 SHORT $LN1@GetIntAttr
$LN78@GetIntAttr:
  00299	88 4d ea	 mov	 BYTE PTR __k$[ebp+18], cl
  0029c	eb 64		 jmp	 SHORT $LN1@GetIntAttr
$LN79@GetIntAttr:
  0029e	c6 45 e9 ec	 mov	 BYTE PTR __k$[ebp+17], -20 ; ffffffecH
  002a2	eb 5e		 jmp	 SHORT $LN1@GetIntAttr
$LN80@GetIntAttr:
  002a4	c6 45 e8 ed	 mov	 BYTE PTR __k$[ebp+16], -19 ; ffffffedH
  002a8	eb 58		 jmp	 SHORT $LN1@GetIntAttr
$LN81@GetIntAttr:
  002aa	88 5d e7	 mov	 BYTE PTR __k$[ebp+15], bl
  002ad	eb 53		 jmp	 SHORT $LN1@GetIntAttr
$LN82@GetIntAttr:
  002af	88 4d e6	 mov	 BYTE PTR __k$[ebp+14], cl
  002b2	eb 4e		 jmp	 SHORT $LN1@GetIntAttr
$LN83@GetIntAttr:
  002b4	c6 45 e5 ec	 mov	 BYTE PTR __k$[ebp+13], -20 ; ffffffecH
  002b8	eb 48		 jmp	 SHORT $LN1@GetIntAttr
$LN84@GetIntAttr:
  002ba	c6 45 e4 ed	 mov	 BYTE PTR __k$[ebp+12], -19 ; ffffffedH
  002be	eb 42		 jmp	 SHORT $LN1@GetIntAttr
$LN85@GetIntAttr:
  002c0	88 5d e3	 mov	 BYTE PTR __k$[ebp+11], bl
  002c3	eb 3d		 jmp	 SHORT $LN1@GetIntAttr
$LN86@GetIntAttr:
  002c5	88 4d e2	 mov	 BYTE PTR __k$[ebp+10], cl
  002c8	eb 38		 jmp	 SHORT $LN1@GetIntAttr
$LN87@GetIntAttr:
  002ca	c6 45 e1 ec	 mov	 BYTE PTR __k$[ebp+9], -20 ; ffffffecH
  002ce	eb 32		 jmp	 SHORT $LN1@GetIntAttr
$LN88@GetIntAttr:
  002d0	c6 45 e0 ed	 mov	 BYTE PTR __k$[ebp+8], -19 ; ffffffedH
  002d4	eb 2c		 jmp	 SHORT $LN1@GetIntAttr
$LN89@GetIntAttr:
  002d6	88 5d df	 mov	 BYTE PTR __k$[ebp+7], bl
  002d9	eb 27		 jmp	 SHORT $LN1@GetIntAttr
$LN90@GetIntAttr:
  002db	88 4d de	 mov	 BYTE PTR __k$[ebp+6], cl
  002de	eb 22		 jmp	 SHORT $LN1@GetIntAttr
$LN91@GetIntAttr:
  002e0	c6 45 dd ec	 mov	 BYTE PTR __k$[ebp+5], -20 ; ffffffecH
  002e4	eb 1c		 jmp	 SHORT $LN1@GetIntAttr
$LN92@GetIntAttr:
  002e6	c6 45 dc ed	 mov	 BYTE PTR __k$[ebp+4], -19 ; ffffffedH
  002ea	eb 16		 jmp	 SHORT $LN1@GetIntAttr
$LN93@GetIntAttr:
  002ec	c6 45 db ea	 mov	 BYTE PTR __k$[ebp+3], -22 ; ffffffeaH
  002f0	eb 10		 jmp	 SHORT $LN1@GetIntAttr
$LN94@GetIntAttr:
  002f2	c6 45 da eb	 mov	 BYTE PTR __k$[ebp+2], -21 ; ffffffebH
  002f6	eb 0a		 jmp	 SHORT $LN1@GetIntAttr
$LN95@GetIntAttr:
  002f8	c6 45 d9 ec	 mov	 BYTE PTR __k$[ebp+1], -20 ; ffffffecH
  002fc	eb 04		 jmp	 SHORT $LN1@GetIntAttr
$LN96@GetIntAttr:
  002fe	c6 45 d8 ed	 mov	 BYTE PTR __k$[ebp], -19	; ffffffedH
$LN1@GetIntAttr:
  00302	6a 07		 push	 7
  00304	8d 45 d8	 lea	 eax, DWORD PTR __k$[ebp]
  00307	c6 45 f5 00	 mov	 BYTE PTR __k$[ebp+29], 0
  0030b	5a		 pop	 edx
$LL104@GetIntAttr:
  0030c	81 30 ed ec eb
	ea		 xor	 DWORD PTR [eax], -353637139 ; eaebecedH
  00312	83 c0 04	 add	 eax, 4
  00315	4a		 dec	 edx
  00316	75 f4		 jne	 SHORT $LL104@GetIntAttr
  00318	80 75 f4 ed	 xor	 BYTE PTR __k$[ebp+28], -19 ; ffffffedH

; 88   : 		return GetIntAttribute(_k);

  0031c	8d 45 d8	 lea	 eax, DWORD PTR __k$[ebp]
  0031f	50		 push	 eax
  00320	8b ce		 mov	 ecx, esi
  00322	ff 15 00 00 00
	00		 call	 DWORD PTR __imp_?GetIntAttribute@ioXMLElement@@QBEHPBD@Z

; 89   : 	}

  00328	8b 4d fc	 mov	 ecx, DWORD PTR __$ArrayPad$[ebp]
  0032b	5e		 pop	 esi
  0032c	33 cd		 xor	 ecx, ebp
  0032e	5b		 pop	 ebx
  0032f	e8 00 00 00 00	 call	 @__security_check_cookie@4
  00334	c9		 leave
  00335	c2 04 00	 ret	 4
??$GetIntAttribute_e@$0BO@@ioXMLElement@@QBEHAAY0BO@$$CBD@Z ENDP ; ioXMLElement::GetIntAttribute_e<30>
_TEXT	ENDS
PUBLIC	?StringCbPrintfA@@YAJPADIPBDZZ			; StringCbPrintfA
; Function compile flags: /Ogsp
; File c:\program files (x86)\microsoft sdks\windows\v7.0a\include\strsafe.h
;	COMDAT ?StringCbPrintfA@@YAJPADIPBDZZ
_TEXT	SEGMENT
_pszDest$ = 8						; size = 4
_cbDest$ = 12						; size = 4
_pszFormat$ = 16					; size = 4
?StringCbPrintfA@@YAJPADIPBDZZ PROC			; StringCbPrintfA, COMDAT

; 4767 : {

  00000	55		 push	 ebp
  00001	8b ec		 mov	 ebp, esp

; 4768 :     HRESULT hr;
; 4769 :     size_t cchDest = cbDest / sizeof(char);
; 4770 : 
; 4771 :     hr = StringValidateDestA(pszDest, cchDest, STRSAFE_MAX_CCH);

  00003	8b 4d 0c	 mov	 ecx, DWORD PTR _cbDest$[ebp]
  00006	33 c0		 xor	 eax, eax
  00008	85 c9		 test	 ecx, ecx
  0000a	74 08		 je	 SHORT $LN4@StringCbPr
  0000c	81 f9 ff ff ff
	7f		 cmp	 ecx, 2147483647		; 7fffffffH
  00012	76 05		 jbe	 SHORT $LN5@StringCbPr
$LN4@StringCbPr:
  00014	b8 57 00 07 80	 mov	 eax, -2147024809	; 80070057H
$LN5@StringCbPr:

; 4772 :     
; 4773 :     if (SUCCEEDED(hr))

  00019	85 c0		 test	 eax, eax
  0001b	78 39		 js	 SHORT $LN1@StringCbPr

; 4774 :     {
; 4775 :         va_list argList;
; 4776 : 
; 4777 :         va_start(argList, pszFormat);
; 4778 : 
; 4779 :         hr = StringVPrintfWorkerA(pszDest,
; 4780 :                                   cchDest,
; 4781 :                                   NULL,
; 4782 :                                   pszFormat,
; 4783 :                                   argList);

  0001d	53		 push	 ebx
  0001e	56		 push	 esi
  0001f	57		 push	 edi
  00020	8b 7d 08	 mov	 edi, DWORD PTR _pszDest$[ebp]
  00023	8d 45 14	 lea	 eax, DWORD PTR _pszFormat$[ebp+4]
  00026	50		 push	 eax
  00027	ff 75 10	 push	 DWORD PTR _pszFormat$[ebp]
  0002a	8d 71 ff	 lea	 esi, DWORD PTR [ecx-1]
  0002d	56		 push	 esi
  0002e	57		 push	 edi
  0002f	33 db		 xor	 ebx, ebx
  00031	ff 15 00 00 00
	00		 call	 DWORD PTR __imp___vsnprintf
  00037	83 c4 10	 add	 esp, 16			; 00000010H
  0003a	85 c0		 test	 eax, eax
  0003c	78 0b		 js	 SHORT $LN12@StringCbPr
  0003e	3b c6		 cmp	 eax, esi
  00040	77 07		 ja	 SHORT $LN12@StringCbPr
  00042	75 0d		 jne	 SHORT $LN9@StringCbPr
  00044	88 1c 3e	 mov	 BYTE PTR [esi+edi], bl
  00047	eb 08		 jmp	 SHORT $LN9@StringCbPr
$LN12@StringCbPr:
  00049	88 1c 3e	 mov	 BYTE PTR [esi+edi], bl
  0004c	bb 7a 00 07 80	 mov	 ebx, -2147024774	; 8007007aH
$LN9@StringCbPr:
  00051	5f		 pop	 edi
  00052	5e		 pop	 esi
  00053	8b c3		 mov	 eax, ebx
  00055	5b		 pop	 ebx
$LN1@StringCbPr:

; 4784 : 
; 4785 :         va_end(argList);
; 4786 :     }
; 4787 : 
; 4788 :     return hr;
; 4789 : }

  00056	5d		 pop	 ebp
  00057	c3		 ret	 0
?StringCbPrintfA@@YAJPADIPBDZZ ENDP			; StringCbPrintfA
_TEXT	ENDS
PUBLIC	_pImage$GSCopy$
PUBLIC	_this$GSCopy$
PUBLIC	__$ArrayPad$
EXTRN	__imp_?AddRenderImage@ioButton@@UAEXABVioHashString@@PAVioUIRenderImage@@@Z:PROC
; Function compile flags: /Ogsp
; File d:\lost saga for developer\youtube\tutorial\source\src\lsclient\gui\lobbymainwnd.cpp
;	COMDAT ?AddRenderImage@LobbyBtn@@MAEXABVioHashString@@PAVioUIRenderImage@@@Z
_TEXT	SEGMENT
_pImage$GSCopy$ = -28					; size = 4
_this$GSCopy$ = -24					; size = 4
__t$538751 = -20					; size = 9
__t$538876 = -16					; size = 5
__$ArrayPad$ = -4					; size = 4
_szType$ = 8						; size = 4
_pImage$ = 12						; size = 4
?AddRenderImage@LobbyBtn@@MAEXABVioHashString@@PAVioUIRenderImage@@@Z PROC ; LobbyBtn::AddRenderImage, COMDAT
; _this$ = ecx

; 52   : {

  00000	55		 push	 ebp
  00001	8b ec		 mov	 ebp, esp
  00003	83 ec 1c	 sub	 esp, 28			; 0000001cH
  00006	a1 00 00 00 00	 mov	 eax, DWORD PTR ___security_cookie
  0000b	33 c5		 xor	 eax, ebp
  0000d	89 45 fc	 mov	 DWORD PTR __$ArrayPad$[ebp], eax
  00010	8b 45 0c	 mov	 eax, DWORD PTR _pImage$[ebp]
  00013	53		 push	 ebx
  00014	8b 5d 08	 mov	 ebx, DWORD PTR _szType$[ebp]
  00017	56		 push	 esi
  00018	57		 push	 edi

; 53   : 	if( szType == "IconBack" )

  00019	6a 02		 push	 2
  0001b	89 4d e8	 mov	 DWORD PTR _this$GSCopy$[ebp], ecx

; 64   : 	{
; 65   : 		ioRadioButton::AddRenderImage( szType, pImage );

  0001e	89 45 e4	 mov	 DWORD PTR _pImage$GSCopy$[ebp], eax
  00021	c7 45 ec a4 8f
	84 84		 mov	 DWORD PTR __t$538751[ebp], -2071687260 ; 84848fa4H
  00028	c7 45 f0 af 8d
	88 81		 mov	 DWORD PTR __t$538751[ebp+4], -2121757265 ; 81888dafH
  0002f	8d 45 ec	 lea	 eax, DWORD PTR __t$538751[ebp]
  00032	c6 45 f4 00	 mov	 BYTE PTR __t$538751[ebp+8], 0
  00036	59		 pop	 ecx
  00037	bf ed ec eb ea	 mov	 edi, -353637139		; eaebecedH
$LL116@AddRenderI:

; 53   : 	if( szType == "IconBack" )

  0003c	31 38		 xor	 DWORD PTR [eax], edi
  0003e	83 c0 04	 add	 eax, 4
  00041	49		 dec	 ecx
  00042	75 f8		 jne	 SHORT $LL116@AddRenderI
  00044	8b cb		 mov	 ecx, ebx
  00046	8d 75 ec	 lea	 esi, DWORD PTR __t$538751[ebp]
  00049	ff 15 00 00 00
	00		 call	 DWORD PTR __imp_?c_str@ioHashString@@QBEPBDXZ
$LL234@AddRenderI:
  0004f	8a 08		 mov	 cl, BYTE PTR [eax]
  00051	3a 0e		 cmp	 cl, BYTE PTR [esi]
  00053	75 1a		 jne	 SHORT $LN235@AddRenderI
  00055	84 c9		 test	 cl, cl
  00057	74 12		 je	 SHORT $LN236@AddRenderI
  00059	8a 48 01	 mov	 cl, BYTE PTR [eax+1]
  0005c	3a 4e 01	 cmp	 cl, BYTE PTR [esi+1]
  0005f	75 0e		 jne	 SHORT $LN235@AddRenderI
  00061	83 c0 02	 add	 eax, 2
  00064	83 c6 02	 add	 esi, 2
  00067	84 c9		 test	 cl, cl
  00069	75 e4		 jne	 SHORT $LL234@AddRenderI
$LN236@AddRenderI:
  0006b	33 c0		 xor	 eax, eax
  0006d	eb 05		 jmp	 SHORT $LN237@AddRenderI
$LN235@AddRenderI:
  0006f	1b c0		 sbb	 eax, eax
  00071	83 d8 ff	 sbb	 eax, -1
$LN237@AddRenderI:
  00074	85 c0		 test	 eax, eax
  00076	75 26		 jne	 SHORT $LN233@AddRenderI

; 54   : 	{
; 55   : 		SAFEDELETE( m_pIconBack );		

  00078	8b 75 e8	 mov	 esi, DWORD PTR _this$GSCopy$[ebp]
  0007b	8b 8e fc 01 00
	00		 mov	 ecx, DWORD PTR [esi+508]
  00081	85 c9		 test	 ecx, ecx
  00083	74 0e		 je	 SHORT $LN5@AddRenderI
  00085	8b 01		 mov	 eax, DWORD PTR [ecx]
  00087	6a 01		 push	 1
  00089	ff 50 40	 call	 DWORD PTR [eax+64]
  0008c	83 a6 fc 01 00
	00 00		 and	 DWORD PTR [esi+508], 0
$LN5@AddRenderI:

; 56   : 		m_pIconBack = pImage;

  00093	8b 45 e4	 mov	 eax, DWORD PTR _pImage$GSCopy$[ebp]
  00096	89 86 fc 01 00
	00		 mov	 DWORD PTR [esi+508], eax
  0009c	eb 75		 jmp	 SHORT $LN1@AddRenderI
$LN233@AddRenderI:

; 57   : 	}
; 58   : 	else if( szType == "Icon" )

  0009e	c7 45 f0 a4 8f
	84 84		 mov	 DWORD PTR __t$538876[ebp], -2071687260 ; 84848fa4H
  000a5	31 7d f0	 xor	 DWORD PTR __t$538876[ebp], edi
  000a8	8b cb		 mov	 ecx, ebx
  000aa	c6 45 f4 00	 mov	 BYTE PTR __t$538876[ebp+4], 0
  000ae	8d 75 f0	 lea	 esi, DWORD PTR __t$538876[ebp]
  000b1	ff 15 00 00 00
	00		 call	 DWORD PTR __imp_?c_str@ioHashString@@QBEPBDXZ
$LL238@AddRenderI:
  000b7	8a 08		 mov	 cl, BYTE PTR [eax]
  000b9	3a 0e		 cmp	 cl, BYTE PTR [esi]
  000bb	75 1a		 jne	 SHORT $LN239@AddRenderI
  000bd	84 c9		 test	 cl, cl
  000bf	74 12		 je	 SHORT $LN240@AddRenderI
  000c1	8a 48 01	 mov	 cl, BYTE PTR [eax+1]
  000c4	3a 4e 01	 cmp	 cl, BYTE PTR [esi+1]
  000c7	75 0e		 jne	 SHORT $LN239@AddRenderI
  000c9	83 c0 02	 add	 eax, 2
  000cc	83 c6 02	 add	 esi, 2
  000cf	84 c9		 test	 cl, cl
  000d1	75 e4		 jne	 SHORT $LL238@AddRenderI
$LN240@AddRenderI:
  000d3	33 c0		 xor	 eax, eax
  000d5	eb 05		 jmp	 SHORT $LN241@AddRenderI
$LN239@AddRenderI:
  000d7	1b c0		 sbb	 eax, eax
  000d9	83 d8 ff	 sbb	 eax, -1
$LN241@AddRenderI:
  000dc	85 c0		 test	 eax, eax
  000de	75 26		 jne	 SHORT $LN3@AddRenderI

; 59   : 	{
; 60   : 		SAFEDELETE( m_pIcon );

  000e0	8b 75 e8	 mov	 esi, DWORD PTR _this$GSCopy$[ebp]
  000e3	8b 8e 00 02 00
	00		 mov	 ecx, DWORD PTR [esi+512]
  000e9	85 c9		 test	 ecx, ecx
  000eb	74 0e		 je	 SHORT $LN2@AddRenderI
  000ed	8b 01		 mov	 eax, DWORD PTR [ecx]
  000ef	6a 01		 push	 1
  000f1	ff 50 40	 call	 DWORD PTR [eax+64]
  000f4	83 a6 00 02 00
	00 00		 and	 DWORD PTR [esi+512], 0
$LN2@AddRenderI:

; 61   : 		m_pIcon = pImage;

  000fb	8b 45 e4	 mov	 eax, DWORD PTR _pImage$GSCopy$[ebp]
  000fe	89 86 00 02 00
	00		 mov	 DWORD PTR [esi+512], eax

; 62   : 	}
; 63   : 	else 

  00104	eb 0d		 jmp	 SHORT $LN1@AddRenderI
$LN3@AddRenderI:

; 64   : 	{
; 65   : 		ioRadioButton::AddRenderImage( szType, pImage );

  00106	ff 75 e4	 push	 DWORD PTR _pImage$GSCopy$[ebp]
  00109	8b 4d e8	 mov	 ecx, DWORD PTR _this$GSCopy$[ebp]
  0010c	53		 push	 ebx
  0010d	ff 15 00 00 00
	00		 call	 DWORD PTR __imp_?AddRenderImage@ioButton@@UAEXABVioHashString@@PAVioUIRenderImage@@@Z
$LN1@AddRenderI:

; 66   : 	}
; 67   : }

  00113	8b 4d fc	 mov	 ecx, DWORD PTR __$ArrayPad$[ebp]
  00116	5f		 pop	 edi
  00117	5e		 pop	 esi
  00118	33 cd		 xor	 ecx, ebp
  0011a	5b		 pop	 ebx
  0011b	e8 00 00 00 00	 call	 @__security_check_cookie@4
  00120	c9		 leave
  00121	c2 08 00	 ret	 8
?AddRenderImage@LobbyBtn@@MAEXABVioHashString@@PAVioUIRenderImage@@@Z ENDP ; LobbyBtn::AddRenderImage
_TEXT	ENDS
PUBLIC	_pFrame$GSCopy$
PUBLIC	_szType$GSCopy$
PUBLIC	_this$GSCopy$
PUBLIC	__$ArrayPad$
EXTRN	__imp_?AddRenderFrame@ioButton@@UAEXABVioHashString@@PAVioUIRenderFrame@@@Z:PROC
; Function compile flags: /Ogsp
;	COMDAT ?AddRenderFrame@LobbyBtn@@MAEXABVioHashString@@PAVioUIRenderFrame@@@Z
_TEXT	SEGMENT
_szType$GSCopy$ = -32					; size = 4
_pFrame$GSCopy$ = -28					; size = 4
_this$GSCopy$ = -24					; size = 4
__t$539401 = -20					; size = 8
__t$539276 = -20					; size = 10
__t$539151 = -20					; size = 7
__t$539026 = -20					; size = 9
__$ArrayPad$ = -4					; size = 4
_szType$ = 8						; size = 4
_pFrame$ = 12						; size = 4
?AddRenderFrame@LobbyBtn@@MAEXABVioHashString@@PAVioUIRenderFrame@@@Z PROC ; LobbyBtn::AddRenderFrame, COMDAT
; _this$ = ecx

; 70   : {

  00000	55		 push	 ebp
  00001	8b ec		 mov	 ebp, esp
  00003	83 ec 20	 sub	 esp, 32			; 00000020H
  00006	a1 00 00 00 00	 mov	 eax, DWORD PTR ___security_cookie
  0000b	33 c5		 xor	 eax, ebp
  0000d	89 45 fc	 mov	 DWORD PTR __$ArrayPad$[ebp], eax
  00010	8b 45 0c	 mov	 eax, DWORD PTR _pFrame$[ebp]
  00013	8b 55 08	 mov	 edx, DWORD PTR _szType$[ebp]
  00016	53		 push	 ebx

; 71   : 	if( pFrame )

  00017	33 db		 xor	 ebx, ebx
  00019	89 4d e8	 mov	 DWORD PTR _this$GSCopy$[ebp], ecx

; 89   : 		{
; 90   : 			SAFEDELETE( m_pStatePinkFrm );

  0001c	89 55 e0	 mov	 DWORD PTR _szType$GSCopy$[ebp], edx
  0001f	89 45 e4	 mov	 DWORD PTR _pFrame$GSCopy$[ebp], eax
  00022	3b c3		 cmp	 eax, ebx
  00024	0f 84 31 02 00
	00		 je	 $LN1@AddRenderF

; 72   : 	{
; 73   : 		if( szType == "GreenFrm" )

  0002a	57		 push	 edi
  0002b	6a 02		 push	 2
  0002d	c7 45 ec aa 9e
	8e 8f		 mov	 DWORD PTR __t$539026[ebp], -1886478678 ; 8f8e9eaaH
  00034	c7 45 f0 83 aa
	99 87		 mov	 DWORD PTR __t$539026[ebp+4], -2019972477 ; 8799aa83H
  0003b	8d 45 ec	 lea	 eax, DWORD PTR __t$539026[ebp]
  0003e	88 5d f4	 mov	 BYTE PTR __t$539026[ebp+8], bl
  00041	59		 pop	 ecx
  00042	bf ed ec eb ea	 mov	 edi, -353637139		; eaebecedH
$LL127@AddRenderF:
  00047	31 38		 xor	 DWORD PTR [eax], edi
  00049	83 c0 04	 add	 eax, 4
  0004c	49		 dec	 ecx
  0004d	75 f8		 jne	 SHORT $LL127@AddRenderF
  0004f	56		 push	 esi
  00050	8b ca		 mov	 ecx, edx
  00052	8d 75 ec	 lea	 esi, DWORD PTR __t$539026[ebp]
  00055	ff 15 00 00 00
	00		 call	 DWORD PTR __imp_?c_str@ioHashString@@QBEPBDXZ
$LL467@AddRenderF:
  0005b	8a 08		 mov	 cl, BYTE PTR [eax]
  0005d	3a 0e		 cmp	 cl, BYTE PTR [esi]
  0005f	75 1a		 jne	 SHORT $LN468@AddRenderF
  00061	3a cb		 cmp	 cl, bl
  00063	74 12		 je	 SHORT $LN469@AddRenderF
  00065	8a 48 01	 mov	 cl, BYTE PTR [eax+1]
  00068	3a 4e 01	 cmp	 cl, BYTE PTR [esi+1]
  0006b	75 0e		 jne	 SHORT $LN468@AddRenderF
  0006d	83 c0 02	 add	 eax, 2
  00070	83 c6 02	 add	 esi, 2
  00073	3a cb		 cmp	 cl, bl
  00075	75 e4		 jne	 SHORT $LL467@AddRenderF
$LN469@AddRenderF:
  00077	33 c0		 xor	 eax, eax
  00079	eb 05		 jmp	 SHORT $LN470@AddRenderF
$LN468@AddRenderF:
  0007b	1b c0		 sbb	 eax, eax
  0007d	83 d8 ff	 sbb	 eax, -1
$LN470@AddRenderF:
  00080	3b c3		 cmp	 eax, ebx
  00082	75 28		 jne	 SHORT $LN464@AddRenderF

; 74   : 		{
; 75   : 			SAFEDELETE( m_pStateGreenFrm );

  00084	8b 75 e8	 mov	 esi, DWORD PTR _this$GSCopy$[ebp]
  00087	8b 8e 04 02 00
	00		 mov	 ecx, DWORD PTR [esi+516]
  0008d	3b cb		 cmp	 ecx, ebx
  0008f	74 0d		 je	 SHORT $LN11@AddRenderF
  00091	8b 01		 mov	 eax, DWORD PTR [ecx]
  00093	6a 01		 push	 1
  00095	ff 50 40	 call	 DWORD PTR [eax+64]
  00098	89 9e 04 02 00
	00		 mov	 DWORD PTR [esi+516], ebx
$LN11@AddRenderF:

; 76   : 			m_pStateGreenFrm = pFrame;

  0009e	8b 45 e4	 mov	 eax, DWORD PTR _pFrame$GSCopy$[ebp]
  000a1	89 86 04 02 00
	00		 mov	 DWORD PTR [esi+516], eax
  000a7	e9 ad 01 00 00	 jmp	 $LN484@AddRenderF
$LN464@AddRenderF:

; 77   : 		}
; 78   : 		else if( szType == "RedFrm" )

  000ac	6a 04		 push	 4
  000ae	c7 45 ec bf 89
	8f ac		 mov	 DWORD PTR __t$539151[ebp], -1399879233 ; ac8f89bfH
  000b5	31 7d ec	 xor	 DWORD PTR __t$539151[ebp], edi
  000b8	66 c7 45 f0 9f
	81		 mov	 WORD PTR __t$539151[ebp+4], 33183 ; 0000819fH
  000be	88 5d f2	 mov	 BYTE PTR __t$539151[ebp+6], bl
  000c1	58		 pop	 eax
$LL230@AddRenderF:
  000c2	8b c8		 mov	 ecx, eax
  000c4	81 e1 03 00 00
	80		 and	 ecx, -2147483645	; 80000003H
  000ca	79 05		 jns	 SHORT $LN485@AddRenderF
  000cc	49		 dec	 ecx
  000cd	83 c9 fc	 or	 ecx, -4			; fffffffcH
  000d0	41		 inc	 ecx
$LN485@AddRenderF:
  000d1	b2 ed		 mov	 dl, -19			; ffffffedH
  000d3	2a d1		 sub	 dl, cl
  000d5	30 54 05 ec	 xor	 BYTE PTR __t$539151[ebp+eax], dl
  000d9	40		 inc	 eax
  000da	83 f8 06	 cmp	 eax, 6
  000dd	7c e3		 jl	 SHORT $LL230@AddRenderF
  000df	8b 4d e0	 mov	 ecx, DWORD PTR _szType$GSCopy$[ebp]
  000e2	8d 75 ec	 lea	 esi, DWORD PTR __t$539151[ebp]
  000e5	ff 15 00 00 00
	00		 call	 DWORD PTR __imp_?c_str@ioHashString@@QBEPBDXZ
$LL471@AddRenderF:
  000eb	8a 08		 mov	 cl, BYTE PTR [eax]
  000ed	3a 0e		 cmp	 cl, BYTE PTR [esi]
  000ef	75 1a		 jne	 SHORT $LN472@AddRenderF
  000f1	3a cb		 cmp	 cl, bl
  000f3	74 12		 je	 SHORT $LN473@AddRenderF
  000f5	8a 48 01	 mov	 cl, BYTE PTR [eax+1]
  000f8	3a 4e 01	 cmp	 cl, BYTE PTR [esi+1]
  000fb	75 0e		 jne	 SHORT $LN472@AddRenderF
  000fd	83 c0 02	 add	 eax, 2
  00100	83 c6 02	 add	 esi, 2
  00103	3a cb		 cmp	 cl, bl
  00105	75 e4		 jne	 SHORT $LL471@AddRenderF
$LN473@AddRenderF:
  00107	33 c0		 xor	 eax, eax
  00109	eb 05		 jmp	 SHORT $LN474@AddRenderF
$LN472@AddRenderF:
  0010b	1b c0		 sbb	 eax, eax
  0010d	83 d8 ff	 sbb	 eax, -1
$LN474@AddRenderF:
  00110	3b c3		 cmp	 eax, ebx
  00112	75 28		 jne	 SHORT $LN465@AddRenderF

; 79   : 		{
; 80   : 			SAFEDELETE( m_pStateRedFrm );

  00114	8b 75 e8	 mov	 esi, DWORD PTR _this$GSCopy$[ebp]
  00117	8b 8e 08 02 00
	00		 mov	 ecx, DWORD PTR [esi+520]
  0011d	3b cb		 cmp	 ecx, ebx
  0011f	74 0d		 je	 SHORT $LN8@AddRenderF
  00121	8b 01		 mov	 eax, DWORD PTR [ecx]
  00123	6a 01		 push	 1
  00125	ff 50 40	 call	 DWORD PTR [eax+64]
  00128	89 9e 08 02 00
	00		 mov	 DWORD PTR [esi+520], ebx
$LN8@AddRenderF:

; 81   : 			m_pStateRedFrm = pFrame;

  0012e	8b 45 e4	 mov	 eax, DWORD PTR _pFrame$GSCopy$[ebp]
  00131	89 86 08 02 00
	00		 mov	 DWORD PTR [esi+520], eax
  00137	e9 1d 01 00 00	 jmp	 $LN484@AddRenderF
$LN465@AddRenderF:

; 82   : 		}
; 83   : 		else if( szType == "OrangeFrm" )

  0013c	6a 02		 push	 2
  0013e	c7 45 ec a2 9e
	8a 84		 mov	 DWORD PTR __t$539276[ebp], -2071290206 ; 848a9ea2H
  00145	c7 45 f0 8a 89
	ad 98		 mov	 DWORD PTR __t$539276[ebp+4], -1733457526 ; 98ad898aH
  0014c	8d 45 ec	 lea	 eax, DWORD PTR __t$539276[ebp]
  0014f	66 c7 45 f4 80
	00		 mov	 WORD PTR __t$539276[ebp+8], 128 ; 00000080H
  00155	59		 pop	 ecx
$LL339@AddRenderF:
  00156	31 38		 xor	 DWORD PTR [eax], edi
  00158	83 c0 04	 add	 eax, 4
  0015b	49		 dec	 ecx
  0015c	75 f8		 jne	 SHORT $LL339@AddRenderF
  0015e	8b 4d e0	 mov	 ecx, DWORD PTR _szType$GSCopy$[ebp]
  00161	80 75 f4 ed	 xor	 BYTE PTR __t$539276[ebp+8], -19 ; ffffffedH
  00165	8d 75 ec	 lea	 esi, DWORD PTR __t$539276[ebp]
  00168	ff 15 00 00 00
	00		 call	 DWORD PTR __imp_?c_str@ioHashString@@QBEPBDXZ
$LL475@AddRenderF:
  0016e	8a 08		 mov	 cl, BYTE PTR [eax]
  00170	3a 0e		 cmp	 cl, BYTE PTR [esi]
  00172	75 1a		 jne	 SHORT $LN476@AddRenderF
  00174	3a cb		 cmp	 cl, bl
  00176	74 12		 je	 SHORT $LN477@AddRenderF
  00178	8a 48 01	 mov	 cl, BYTE PTR [eax+1]
  0017b	3a 4e 01	 cmp	 cl, BYTE PTR [esi+1]
  0017e	75 0e		 jne	 SHORT $LN476@AddRenderF
  00180	83 c0 02	 add	 eax, 2
  00183	83 c6 02	 add	 esi, 2
  00186	3a cb		 cmp	 cl, bl
  00188	75 e4		 jne	 SHORT $LL475@AddRenderF
$LN477@AddRenderF:
  0018a	33 c0		 xor	 eax, eax
  0018c	eb 05		 jmp	 SHORT $LN478@AddRenderF
$LN476@AddRenderF:
  0018e	1b c0		 sbb	 eax, eax
  00190	83 d8 ff	 sbb	 eax, -1
$LN478@AddRenderF:
  00193	3b c3		 cmp	 eax, ebx
  00195	75 28		 jne	 SHORT $LN466@AddRenderF

; 84   : 		{
; 85   : 			SAFEDELETE( m_pStateOrangeFrm );

  00197	8b 75 e8	 mov	 esi, DWORD PTR _this$GSCopy$[ebp]
  0019a	8b 8e 0c 02 00
	00		 mov	 ecx, DWORD PTR [esi+524]
  001a0	3b cb		 cmp	 ecx, ebx
  001a2	74 0d		 je	 SHORT $LN5@AddRenderF
  001a4	8b 01		 mov	 eax, DWORD PTR [ecx]
  001a6	6a 01		 push	 1
  001a8	ff 50 40	 call	 DWORD PTR [eax+64]
  001ab	89 9e 0c 02 00
	00		 mov	 DWORD PTR [esi+524], ebx
$LN5@AddRenderF:

; 86   : 			m_pStateOrangeFrm = pFrame;

  001b1	8b 45 e4	 mov	 eax, DWORD PTR _pFrame$GSCopy$[ebp]
  001b4	89 86 0c 02 00
	00		 mov	 DWORD PTR [esi+524], eax
  001ba	e9 9a 00 00 00	 jmp	 $LN484@AddRenderF
$LN466@AddRenderF:

; 87   : 		}
; 88   : 		else if( szType == "PinkFrm" )

  001bf	6a 04		 push	 4
  001c1	c7 45 ec bd 85
	85 81		 mov	 DWORD PTR __t$539401[ebp], -2121955907 ; 818585bdH
  001c8	31 7d ec	 xor	 DWORD PTR __t$539401[ebp], edi
  001cb	c7 45 f0 ab 9e
	86 00		 mov	 DWORD PTR __t$539401[ebp+4], 8822443 ; 00869eabH
  001d2	58		 pop	 eax
$LL442@AddRenderF:
  001d3	8b c8		 mov	 ecx, eax
  001d5	81 e1 03 00 00
	80		 and	 ecx, -2147483645	; 80000003H
  001db	79 05		 jns	 SHORT $LN486@AddRenderF
  001dd	49		 dec	 ecx
  001de	83 c9 fc	 or	 ecx, -4			; fffffffcH
  001e1	41		 inc	 ecx
$LN486@AddRenderF:
  001e2	b2 ed		 mov	 dl, -19			; ffffffedH
  001e4	2a d1		 sub	 dl, cl
  001e6	30 54 05 ec	 xor	 BYTE PTR __t$539401[ebp+eax], dl
  001ea	40		 inc	 eax
  001eb	83 f8 07	 cmp	 eax, 7
  001ee	7c e3		 jl	 SHORT $LL442@AddRenderF
  001f0	8b 4d e0	 mov	 ecx, DWORD PTR _szType$GSCopy$[ebp]
  001f3	8d 75 ec	 lea	 esi, DWORD PTR __t$539401[ebp]
  001f6	ff 15 00 00 00
	00		 call	 DWORD PTR __imp_?c_str@ioHashString@@QBEPBDXZ
$LL479@AddRenderF:
  001fc	8a 08		 mov	 cl, BYTE PTR [eax]
  001fe	3a 0e		 cmp	 cl, BYTE PTR [esi]
  00200	75 1a		 jne	 SHORT $LN480@AddRenderF
  00202	3a cb		 cmp	 cl, bl
  00204	74 12		 je	 SHORT $LN481@AddRenderF
  00206	8a 48 01	 mov	 cl, BYTE PTR [eax+1]
  00209	3a 4e 01	 cmp	 cl, BYTE PTR [esi+1]
  0020c	75 0e		 jne	 SHORT $LN480@AddRenderF
  0020e	83 c0 02	 add	 eax, 2
  00211	83 c6 02	 add	 esi, 2
  00214	3a cb		 cmp	 cl, bl
  00216	75 e4		 jne	 SHORT $LL479@AddRenderF
$LN481@AddRenderF:
  00218	33 c0		 xor	 eax, eax
  0021a	eb 05		 jmp	 SHORT $LN482@AddRenderF
$LN480@AddRenderF:
  0021c	1b c0		 sbb	 eax, eax
  0021e	83 d8 ff	 sbb	 eax, -1
$LN482@AddRenderF:
  00221	3b c3		 cmp	 eax, ebx
  00223	75 25		 jne	 SHORT $LN3@AddRenderF

; 89   : 		{
; 90   : 			SAFEDELETE( m_pStatePinkFrm );

  00225	8b 75 e8	 mov	 esi, DWORD PTR _this$GSCopy$[ebp]
  00228	8b 8e 10 02 00
	00		 mov	 ecx, DWORD PTR [esi+528]
  0022e	3b cb		 cmp	 ecx, ebx
  00230	74 0d		 je	 SHORT $LN2@AddRenderF
  00232	8b 01		 mov	 eax, DWORD PTR [ecx]
  00234	6a 01		 push	 1
  00236	ff 50 40	 call	 DWORD PTR [eax+64]
  00239	89 9e 10 02 00
	00		 mov	 DWORD PTR [esi+528], ebx
$LN2@AddRenderF:

; 91   : 			m_pStatePinkFrm = pFrame;

  0023f	8b 45 e4	 mov	 eax, DWORD PTR _pFrame$GSCopy$[ebp]
  00242	89 86 10 02 00
	00		 mov	 DWORD PTR [esi+528], eax

; 92   : 		}
; 93   : 		else

  00248	eb 0f		 jmp	 SHORT $LN484@AddRenderF
$LN3@AddRenderF:

; 94   : 		{	
; 95   : 			ioRadioButton::AddRenderFrame( szType, pFrame );

  0024a	ff 75 e4	 push	 DWORD PTR _pFrame$GSCopy$[ebp]
  0024d	8b 4d e8	 mov	 ecx, DWORD PTR _this$GSCopy$[ebp]
  00250	ff 75 e0	 push	 DWORD PTR _szType$GSCopy$[ebp]
  00253	ff 15 00 00 00
	00		 call	 DWORD PTR __imp_?AddRenderFrame@ioButton@@UAEXABVioHashString@@PAVioUIRenderFrame@@@Z
$LN484@AddRenderF:
  00259	5e		 pop	 esi
  0025a	5f		 pop	 edi
$LN1@AddRenderF:

; 96   : 		}
; 97   : 	}
; 98   : }

  0025b	8b 4d fc	 mov	 ecx, DWORD PTR __$ArrayPad$[ebp]
  0025e	33 cd		 xor	 ecx, ebp
  00260	5b		 pop	 ebx
  00261	e8 00 00 00 00	 call	 @__security_check_cookie@4
  00266	c9		 leave
  00267	c2 08 00	 ret	 8
?AddRenderFrame@LobbyBtn@@MAEXABVioHashString@@PAVioUIRenderFrame@@@Z ENDP ; LobbyBtn::AddRenderFrame
_TEXT	ENDS
PUBLIC	_pImage$GSCopy$
PUBLIC	_this$GSCopy$
PUBLIC	__$ArrayPad$
; Function compile flags: /Ogsp
;	COMDAT ?AddRenderImage@IconBtn@@UAEXABVioHashString@@PAVioUIRenderImage@@@Z
_TEXT	SEGMENT
_pImage$GSCopy$ = -28					; size = 4
_this$GSCopy$ = -24					; size = 4
__t$539578 = -20					; size = 9
__t$539716 = -16					; size = 5
__$ArrayPad$ = -4					; size = 4
_szType$ = 8						; size = 4
_pImage$ = 12						; size = 4
?AddRenderImage@IconBtn@@UAEXABVioHashString@@PAVioUIRenderImage@@@Z PROC ; IconBtn::AddRenderImage, COMDAT
; _this$ = ecx

; 385  : {

  00000	55		 push	 ebp
  00001	8b ec		 mov	 ebp, esp
  00003	83 ec 1c	 sub	 esp, 28			; 0000001cH
  00006	a1 00 00 00 00	 mov	 eax, DWORD PTR ___security_cookie
  0000b	33 c5		 xor	 eax, ebp
  0000d	89 45 fc	 mov	 DWORD PTR __$ArrayPad$[ebp], eax
  00010	8b 45 0c	 mov	 eax, DWORD PTR _pImage$[ebp]
  00013	53		 push	 ebx
  00014	8b 5d 08	 mov	 ebx, DWORD PTR _szType$[ebp]
  00017	56		 push	 esi
  00018	57		 push	 edi

; 386  : 	if( szType == "IconBack" )

  00019	6a 02		 push	 2
  0001b	89 4d e8	 mov	 DWORD PTR _this$GSCopy$[ebp], ecx

; 397  : 	{
; 398  : 		ioButton::AddRenderImage( szType, pImage );

  0001e	89 45 e4	 mov	 DWORD PTR _pImage$GSCopy$[ebp], eax
  00021	c7 45 ec a4 8f
	84 84		 mov	 DWORD PTR __t$539578[ebp], -2071687260 ; 84848fa4H
  00028	c7 45 f0 af 8d
	88 81		 mov	 DWORD PTR __t$539578[ebp+4], -2121757265 ; 81888dafH
  0002f	8d 45 ec	 lea	 eax, DWORD PTR __t$539578[ebp]
  00032	c6 45 f4 00	 mov	 BYTE PTR __t$539578[ebp+8], 0
  00036	59		 pop	 ecx
  00037	bf ed ec eb ea	 mov	 edi, -353637139		; eaebecedH
$LL116@AddRenderI@2:

; 386  : 	if( szType == "IconBack" )

  0003c	31 38		 xor	 DWORD PTR [eax], edi
  0003e	83 c0 04	 add	 eax, 4
  00041	49		 dec	 ecx
  00042	75 f8		 jne	 SHORT $LL116@AddRenderI@2
  00044	8b cb		 mov	 ecx, ebx
  00046	8d 75 ec	 lea	 esi, DWORD PTR __t$539578[ebp]
  00049	ff 15 00 00 00
	00		 call	 DWORD PTR __imp_?c_str@ioHashString@@QBEPBDXZ
$LL234@AddRenderI@2:
  0004f	8a 08		 mov	 cl, BYTE PTR [eax]
  00051	3a 0e		 cmp	 cl, BYTE PTR [esi]
  00053	75 1a		 jne	 SHORT $LN235@AddRenderI@2
  00055	84 c9		 test	 cl, cl
  00057	74 12		 je	 SHORT $LN236@AddRenderI@2
  00059	8a 48 01	 mov	 cl, BYTE PTR [eax+1]
  0005c	3a 4e 01	 cmp	 cl, BYTE PTR [esi+1]
  0005f	75 0e		 jne	 SHORT $LN235@AddRenderI@2
  00061	83 c0 02	 add	 eax, 2
  00064	83 c6 02	 add	 esi, 2
  00067	84 c9		 test	 cl, cl
  00069	75 e4		 jne	 SHORT $LL234@AddRenderI@2
$LN236@AddRenderI@2:
  0006b	33 c0		 xor	 eax, eax
  0006d	eb 05		 jmp	 SHORT $LN237@AddRenderI@2
$LN235@AddRenderI@2:
  0006f	1b c0		 sbb	 eax, eax
  00071	83 d8 ff	 sbb	 eax, -1
$LN237@AddRenderI@2:
  00074	85 c0		 test	 eax, eax
  00076	75 26		 jne	 SHORT $LN233@AddRenderI@2

; 387  : 	{
; 388  : 		SAFEDELETE( m_pIconBack );

  00078	8b 75 e8	 mov	 esi, DWORD PTR _this$GSCopy$[ebp]
  0007b	8b 8e fc 01 00
	00		 mov	 ecx, DWORD PTR [esi+508]
  00081	85 c9		 test	 ecx, ecx
  00083	74 0e		 je	 SHORT $LN5@AddRenderI@2
  00085	8b 01		 mov	 eax, DWORD PTR [ecx]
  00087	6a 01		 push	 1
  00089	ff 50 40	 call	 DWORD PTR [eax+64]
  0008c	83 a6 fc 01 00
	00 00		 and	 DWORD PTR [esi+508], 0
$LN5@AddRenderI@2:

; 389  : 		m_pIconBack = pImage;

  00093	8b 45 e4	 mov	 eax, DWORD PTR _pImage$GSCopy$[ebp]
  00096	89 86 fc 01 00
	00		 mov	 DWORD PTR [esi+508], eax
  0009c	eb 75		 jmp	 SHORT $LN1@AddRenderI@2
$LN233@AddRenderI@2:

; 390  : 	}
; 391  : 	else if( szType == "Icon" )

  0009e	c7 45 f0 a4 8f
	84 84		 mov	 DWORD PTR __t$539716[ebp], -2071687260 ; 84848fa4H
  000a5	31 7d f0	 xor	 DWORD PTR __t$539716[ebp], edi
  000a8	8b cb		 mov	 ecx, ebx
  000aa	c6 45 f4 00	 mov	 BYTE PTR __t$539716[ebp+4], 0
  000ae	8d 75 f0	 lea	 esi, DWORD PTR __t$539716[ebp]
  000b1	ff 15 00 00 00
	00		 call	 DWORD PTR __imp_?c_str@ioHashString@@QBEPBDXZ
$LL238@AddRenderI@2:
  000b7	8a 08		 mov	 cl, BYTE PTR [eax]
  000b9	3a 0e		 cmp	 cl, BYTE PTR [esi]
  000bb	75 1a		 jne	 SHORT $LN239@AddRenderI@2
  000bd	84 c9		 test	 cl, cl
  000bf	74 12		 je	 SHORT $LN240@AddRenderI@2
  000c1	8a 48 01	 mov	 cl, BYTE PTR [eax+1]
  000c4	3a 4e 01	 cmp	 cl, BYTE PTR [esi+1]
  000c7	75 0e		 jne	 SHORT $LN239@AddRenderI@2
  000c9	83 c0 02	 add	 eax, 2
  000cc	83 c6 02	 add	 esi, 2
  000cf	84 c9		 test	 cl, cl
  000d1	75 e4		 jne	 SHORT $LL238@AddRenderI@2
$LN240@AddRenderI@2:
  000d3	33 c0		 xor	 eax, eax
  000d5	eb 05		 jmp	 SHORT $LN241@AddRenderI@2
$LN239@AddRenderI@2:
  000d7	1b c0		 sbb	 eax, eax
  000d9	83 d8 ff	 sbb	 eax, -1
$LN241@AddRenderI@2:
  000dc	85 c0		 test	 eax, eax
  000de	75 26		 jne	 SHORT $LN3@AddRenderI@2

; 392  : 	{
; 393  : 		SAFEDELETE( m_pIcon );

  000e0	8b 75 e8	 mov	 esi, DWORD PTR _this$GSCopy$[ebp]
  000e3	8b 8e 00 02 00
	00		 mov	 ecx, DWORD PTR [esi+512]
  000e9	85 c9		 test	 ecx, ecx
  000eb	74 0e		 je	 SHORT $LN2@AddRenderI@2
  000ed	8b 01		 mov	 eax, DWORD PTR [ecx]
  000ef	6a 01		 push	 1
  000f1	ff 50 40	 call	 DWORD PTR [eax+64]
  000f4	83 a6 00 02 00
	00 00		 and	 DWORD PTR [esi+512], 0
$LN2@AddRenderI@2:

; 394  : 		m_pIcon = pImage;

  000fb	8b 45 e4	 mov	 eax, DWORD PTR _pImage$GSCopy$[ebp]
  000fe	89 86 00 02 00
	00		 mov	 DWORD PTR [esi+512], eax

; 395  : 	}
; 396  : 	else

  00104	eb 0d		 jmp	 SHORT $LN1@AddRenderI@2
$LN3@AddRenderI@2:

; 397  : 	{
; 398  : 		ioButton::AddRenderImage( szType, pImage );

  00106	ff 75 e4	 push	 DWORD PTR _pImage$GSCopy$[ebp]
  00109	8b 4d e8	 mov	 ecx, DWORD PTR _this$GSCopy$[ebp]
  0010c	53		 push	 ebx
  0010d	ff 15 00 00 00
	00		 call	 DWORD PTR __imp_?AddRenderImage@ioButton@@UAEXABVioHashString@@PAVioUIRenderImage@@@Z
$LN1@AddRenderI@2:

; 399  : 	}
; 400  : }

  00113	8b 4d fc	 mov	 ecx, DWORD PTR __$ArrayPad$[ebp]
  00116	5f		 pop	 edi
  00117	5e		 pop	 esi
  00118	33 cd		 xor	 ecx, ebp
  0011a	5b		 pop	 ebx
  0011b	e8 00 00 00 00	 call	 @__security_check_cookie@4
  00120	c9		 leave
  00121	c2 08 00	 ret	 8
?AddRenderImage@IconBtn@@UAEXABVioHashString@@PAVioUIRenderImage@@@Z ENDP ; IconBtn::AddRenderImage
_TEXT	ENDS
PUBLIC	__$ArrayPad$
; Function compile flags: /Ogsp
;	COMDAT ?ParseExtraInfo@IconBtn@@UAEXAAVioXMLElement@@@Z
_TEXT	SEGMENT
__k$540073 = -24					; size = 14
__k$539863 = -20					; size = 10
__$ArrayPad$ = -4					; size = 4
_xElement$ = 8						; size = 4
?ParseExtraInfo@IconBtn@@UAEXAAVioXMLElement@@@Z PROC	; IconBtn::ParseExtraInfo, COMDAT
; _this$ = ecx

; 403  : {

  00000	55		 push	 ebp
  00001	8b ec		 mov	 ebp, esp
  00003	83 ec 18	 sub	 esp, 24			; 00000018H
  00006	a1 00 00 00 00	 mov	 eax, DWORD PTR ___security_cookie
  0000b	33 c5		 xor	 eax, ebp
  0000d	89 45 fc	 mov	 DWORD PTR __$ArrayPad$[ebp], eax
  00010	53		 push	 ebx
  00011	56		 push	 esi
  00012	57		 push	 edi
  00013	8b 7d 08	 mov	 edi, DWORD PTR _xElement$[ebp]

; 404  : 	m_fIconScale     = xElement.GetFloatAttribute_e( "IconScale" );

  00016	6a 02		 push	 2
  00018	8b f1		 mov	 esi, ecx
  0001a	c7 45 ec a4 8f
	84 84		 mov	 DWORD PTR __k$539863[ebp], -2071687260 ; 84848fa4H
  00021	c7 45 f0 be 8f
	8a 86		 mov	 DWORD PTR __k$539863[ebp+4], -2037739586 ; 868a8fbeH
  00028	8d 45 ec	 lea	 eax, DWORD PTR __k$539863[ebp]
  0002b	66 c7 45 f4 88
	00		 mov	 WORD PTR __k$539863[ebp+8], 136 ; 00000088H
  00031	59		 pop	 ecx
  00032	bb ed ec eb ea	 mov	 ebx, -353637139		; eaebecedH
$LL106@ParseExtra:
  00037	31 18		 xor	 DWORD PTR [eax], ebx
  00039	83 c0 04	 add	 eax, 4
  0003c	49		 dec	 ecx
  0003d	75 f8		 jne	 SHORT $LL106@ParseExtra
  0003f	80 75 f4 ed	 xor	 BYTE PTR __k$539863[ebp+8], -19 ; ffffffedH
  00043	8d 45 ec	 lea	 eax, DWORD PTR __k$539863[ebp]
  00046	50		 push	 eax
  00047	8b cf		 mov	 ecx, edi
  00049	ff 15 00 00 00
	00		 call	 DWORD PTR __imp_?GetFloatAttribute@ioXMLElement@@QBEMPBD@Z
  0004f	d9 9e 04 02 00
	00		 fstp	 DWORD PTR [esi+516]
  00055	6a 03		 push	 3

; 405  : 	m_fIconBackScale = xElement.GetFloatAttribute_e( "IconBackScale" );

  00057	c7 45 e8 a4 8f
	84 84		 mov	 DWORD PTR __k$540073[ebp], -2071687260 ; 84848fa4H
  0005e	c7 45 ec af 8d
	88 81		 mov	 DWORD PTR __k$540073[ebp+4], -2121757265 ; 81888dafH
  00065	c7 45 f0 be 8f
	8a 86		 mov	 DWORD PTR __k$540073[ebp+8], -2037739586 ; 868a8fbeH
  0006c	8d 45 e8	 lea	 eax, DWORD PTR __k$540073[ebp]
  0006f	66 c7 45 f4 88
	00		 mov	 WORD PTR __k$540073[ebp+12], 136 ; 00000088H
  00075	59		 pop	 ecx
$LL212@ParseExtra:
  00076	31 18		 xor	 DWORD PTR [eax], ebx
  00078	83 c0 04	 add	 eax, 4
  0007b	49		 dec	 ecx
  0007c	75 f8		 jne	 SHORT $LL212@ParseExtra
  0007e	80 75 f4 ed	 xor	 BYTE PTR __k$540073[ebp+12], -19 ; ffffffedH
  00082	8d 45 e8	 lea	 eax, DWORD PTR __k$540073[ebp]
  00085	50		 push	 eax
  00086	8b cf		 mov	 ecx, edi
  00088	ff 15 00 00 00
	00		 call	 DWORD PTR __imp_?GetFloatAttribute@ioXMLElement@@QBEMPBD@Z
  0008e	d9 9e 08 02 00
	00		 fstp	 DWORD PTR [esi+520]

; 406  : }

  00094	8b 4d fc	 mov	 ecx, DWORD PTR __$ArrayPad$[ebp]
  00097	5f		 pop	 edi
  00098	5e		 pop	 esi
  00099	33 cd		 xor	 ecx, ebp
  0009b	5b		 pop	 ebx
  0009c	e8 00 00 00 00	 call	 @__security_check_cookie@4
  000a1	c9		 leave
  000a2	c2 04 00	 ret	 4
?ParseExtraInfo@IconBtn@@UAEXAAVioXMLElement@@@Z ENDP	; IconBtn::ParseExtraInfo
_TEXT	ENDS
PUBLIC	_this$GSCopy$
PUBLIC	__$ArrayPad$
EXTRN	__imp_?AddRenderFrame@ioWnd@@UAEXABVioHashString@@PAVioUIRenderFrame@@@Z:PROC
; Function compile flags: /Ogsp
;	COMDAT ?AddRenderFrame@LobbyWnd@@MAEXABVioHashString@@PAVioUIRenderFrame@@@Z
_TEXT	SEGMENT
_this$GSCopy$ = -24					; size = 4
__t$540116 = -20					; size = 12
__$ArrayPad$ = -4					; size = 4
_szType$ = 8						; size = 4
_pFrame$ = 12						; size = 4
?AddRenderFrame@LobbyWnd@@MAEXABVioHashString@@PAVioUIRenderFrame@@@Z PROC ; LobbyWnd::AddRenderFrame, COMDAT
; _this$ = ecx

; 442  : {

  00000	55		 push	 ebp
  00001	8b ec		 mov	 ebp, esp
  00003	83 ec 18	 sub	 esp, 24			; 00000018H
  00006	a1 00 00 00 00	 mov	 eax, DWORD PTR ___security_cookie
  0000b	33 c5		 xor	 eax, ebp
  0000d	89 45 fc	 mov	 DWORD PTR __$ArrayPad$[ebp], eax
  00010	53		 push	 ebx
  00011	8b 5d 0c	 mov	 ebx, DWORD PTR _pFrame$[ebp]
  00014	56		 push	 esi
  00015	57		 push	 edi
  00016	8b 7d 08	 mov	 edi, DWORD PTR _szType$[ebp]

; 443  : 	if( szType == "CustomTitle" )

  00019	6a 02		 push	 2
  0001b	89 4d e8	 mov	 DWORD PTR _this$GSCopy$[ebp], ecx
  0001e	c7 45 ec ae 99
	98 9e		 mov	 DWORD PTR __t$540116[ebp], -1634166354 ; 9e9899aeH
  00025	c7 45 f0 82 81
	bf 83		 mov	 DWORD PTR __t$540116[ebp+4], -2084601470 ; 83bf8182H
  0002c	8d 45 ec	 lea	 eax, DWORD PTR __t$540116[ebp]
  0002f	c7 45 f4 99 80
	8e 00		 mov	 DWORD PTR __t$540116[ebp+8], 9339033 ; 008e8099H
  00036	59		 pop	 ecx
$LL111@AddRenderF@2:
  00037	81 30 ed ec eb
	ea		 xor	 DWORD PTR [eax], -353637139 ; eaebecedH
  0003d	83 c0 04	 add	 eax, 4
  00040	49		 dec	 ecx
  00041	75 f4		 jne	 SHORT $LL111@AddRenderF@2
  00043	6a 08		 push	 8
  00045	58		 pop	 eax
$LL108@AddRenderF@2:
  00046	8b c8		 mov	 ecx, eax
  00048	81 e1 03 00 00
	80		 and	 ecx, -2147483645	; 80000003H
  0004e	79 05		 jns	 SHORT $LN122@AddRenderF@2
  00050	49		 dec	 ecx
  00051	83 c9 fc	 or	 ecx, -4			; fffffffcH
  00054	41		 inc	 ecx
$LN122@AddRenderF@2:
  00055	b2 ed		 mov	 dl, -19			; ffffffedH
  00057	2a d1		 sub	 dl, cl
  00059	30 54 05 ec	 xor	 BYTE PTR __t$540116[ebp+eax], dl
  0005d	40		 inc	 eax
  0005e	83 f8 0b	 cmp	 eax, 11			; 0000000bH
  00061	7c e3		 jl	 SHORT $LL108@AddRenderF@2
  00063	8b cf		 mov	 ecx, edi
  00065	8d 75 ec	 lea	 esi, DWORD PTR __t$540116[ebp]
  00068	ff 15 00 00 00
	00		 call	 DWORD PTR __imp_?c_str@ioHashString@@QBEPBDXZ
$LL118@AddRenderF@2:
  0006e	8a 08		 mov	 cl, BYTE PTR [eax]
  00070	3a 0e		 cmp	 cl, BYTE PTR [esi]
  00072	75 1a		 jne	 SHORT $LN119@AddRenderF@2
  00074	84 c9		 test	 cl, cl
  00076	74 12		 je	 SHORT $LN120@AddRenderF@2
  00078	8a 48 01	 mov	 cl, BYTE PTR [eax+1]
  0007b	3a 4e 01	 cmp	 cl, BYTE PTR [esi+1]
  0007e	75 0e		 jne	 SHORT $LN119@AddRenderF@2
  00080	83 c0 02	 add	 eax, 2
  00083	83 c6 02	 add	 esi, 2
  00086	84 c9		 test	 cl, cl
  00088	75 e4		 jne	 SHORT $LL118@AddRenderF@2
$LN120@AddRenderF@2:
  0008a	33 c0		 xor	 eax, eax
  0008c	eb 05		 jmp	 SHORT $LN121@AddRenderF@2
$LN119@AddRenderF@2:
  0008e	1b c0		 sbb	 eax, eax
  00090	83 d8 ff	 sbb	 eax, -1
$LN121@AddRenderF@2:
  00093	85 c0		 test	 eax, eax
  00095	75 23		 jne	 SHORT $LN3@AddRenderF@2

; 444  : 	{
; 445  : 		SAFEDELETE( m_pCustomTitle );

  00097	8b 75 e8	 mov	 esi, DWORD PTR _this$GSCopy$[ebp]
  0009a	8b 8e 60 01 00
	00		 mov	 ecx, DWORD PTR [esi+352]
  000a0	85 c9		 test	 ecx, ecx
  000a2	74 0e		 je	 SHORT $LN2@AddRenderF@2
  000a4	8b 01		 mov	 eax, DWORD PTR [ecx]
  000a6	6a 01		 push	 1
  000a8	ff 50 40	 call	 DWORD PTR [eax+64]
  000ab	83 a6 60 01 00
	00 00		 and	 DWORD PTR [esi+352], 0
$LN2@AddRenderF@2:

; 446  : 		m_pCustomTitle = pFrame;

  000b2	89 9e 60 01 00
	00		 mov	 DWORD PTR [esi+352], ebx

; 447  : 	}
; 448  : 	else

  000b8	eb 0b		 jmp	 SHORT $LN1@AddRenderF@2
$LN3@AddRenderF@2:

; 449  : 	{
; 450  : 		ioWnd::AddRenderFrame( szType, pFrame );

  000ba	8b 4d e8	 mov	 ecx, DWORD PTR _this$GSCopy$[ebp]
  000bd	53		 push	 ebx
  000be	57		 push	 edi
  000bf	ff 15 00 00 00
	00		 call	 DWORD PTR __imp_?AddRenderFrame@ioWnd@@UAEXABVioHashString@@PAVioUIRenderFrame@@@Z
$LN1@AddRenderF@2:

; 451  : 	}
; 452  : }

  000c5	8b 4d fc	 mov	 ecx, DWORD PTR __$ArrayPad$[ebp]
  000c8	5f		 pop	 edi
  000c9	5e		 pop	 esi
  000ca	33 cd		 xor	 ecx, ebp
  000cc	5b		 pop	 ebx
  000cd	e8 00 00 00 00	 call	 @__security_check_cookie@4
  000d2	c9		 leave
  000d3	c2 08 00	 ret	 8
?AddRenderFrame@LobbyWnd@@MAEXABVioHashString@@PAVioUIRenderFrame@@@Z ENDP ; LobbyWnd::AddRenderFrame
_TEXT	ENDS
PUBLIC	_pImage$GSCopy$
PUBLIC	_this$GSCopy$
PUBLIC	_szType$GSCopy$
PUBLIC	__$ArrayPad$
EXTRN	__imp_?AddRenderImage@ioWnd@@UAEXABVioHashString@@PAVioUIRenderImage@@@Z:PROC
; Function compile flags: /Ogsp
;	COMDAT ?AddRenderImage@LobbyWnd@@MAEXABVioHashString@@PAVioUIRenderImage@@@Z
_TEXT	SEGMENT
_pImage$GSCopy$ = -32					; size = 4
_this$GSCopy$ = -28					; size = 4
_szType$GSCopy$ = -24					; size = 4
__t$540921 = -20					; size = 10
__t$540796 = -20					; size = 11
__t$540658 = -20					; size = 9
__t$540533 = -20					; size = 9
__t$540408 = -20					; size = 9
__t$540283 = -20					; size = 9
__t$541046 = -16					; size = 6
__$ArrayPad$ = -4					; size = 4
_szType$ = 8						; size = 4
_pImage$ = 12						; size = 4
?AddRenderImage@LobbyWnd@@MAEXABVioHashString@@PAVioUIRenderImage@@@Z PROC ; LobbyWnd::AddRenderImage, COMDAT
; _this$ = ecx

; 455  : {

  00000	55		 push	 ebp
  00001	8b ec		 mov	 ebp, esp
  00003	83 ec 20	 sub	 esp, 32			; 00000020H
  00006	a1 00 00 00 00	 mov	 eax, DWORD PTR ___security_cookie
  0000b	33 c5		 xor	 eax, ebp
  0000d	89 45 fc	 mov	 DWORD PTR __$ArrayPad$[ebp], eax
  00010	8b 45 08	 mov	 eax, DWORD PTR _szType$[ebp]
  00013	53		 push	 ebx
  00014	56		 push	 esi
  00015	57		 push	 edi

; 485  : 	}
; 486  : 	else if( szType == "Gauge" )

  00016	89 45 e8	 mov	 DWORD PTR _szType$GSCopy$[ebp], eax
  00019	8b 45 0c	 mov	 eax, DWORD PTR _pImage$[ebp]
  0001c	6a 02		 push	 2
  0001e	33 db		 xor	 ebx, ebx
  00020	5f		 pop	 edi
  00021	89 4d e4	 mov	 DWORD PTR _this$GSCopy$[ebp], ecx
  00024	89 45 e0	 mov	 DWORD PTR _pImage$GSCopy$[ebp], eax
  00027	c7 45 ec b9 8d
	89 a8		 mov	 DWORD PTR __t$540283[ebp], -1467380295 ; a8898db9H
  0002e	c7 45 f0 8c 8f
	80 db		 mov	 DWORD PTR __t$540283[ebp+4], -612331636 ; db808f8cH
  00035	8d 45 ec	 lea	 eax, DWORD PTR __t$540283[ebp]
  00038	88 5d f4	 mov	 BYTE PTR __t$540283[ebp+8], bl
  0003b	8b cf		 mov	 ecx, edi
$LL141@AddRenderI@3:

; 456  : 	if( szType == "TabBack1" )

  0003d	81 30 ed ec eb
	ea		 xor	 DWORD PTR [eax], -353637139 ; eaebecedH
  00043	83 c0 04	 add	 eax, 4
  00046	49		 dec	 ecx
  00047	75 f4		 jne	 SHORT $LL141@AddRenderI@3
  00049	8b 4d e8	 mov	 ecx, DWORD PTR _szType$GSCopy$[ebp]
  0004c	8d 75 ec	 lea	 esi, DWORD PTR __t$540283[ebp]
  0004f	ff 15 00 00 00
	00		 call	 DWORD PTR __imp_?c_str@ioHashString@@QBEPBDXZ
$LL814@AddRenderI@3:
  00055	8a 08		 mov	 cl, BYTE PTR [eax]
  00057	3a 0e		 cmp	 cl, BYTE PTR [esi]
  00059	75 18		 jne	 SHORT $LN815@AddRenderI@3
  0005b	3a cb		 cmp	 cl, bl
  0005d	74 10		 je	 SHORT $LN816@AddRenderI@3
  0005f	8a 48 01	 mov	 cl, BYTE PTR [eax+1]
  00062	3a 4e 01	 cmp	 cl, BYTE PTR [esi+1]
  00065	75 0c		 jne	 SHORT $LN815@AddRenderI@3
  00067	03 c7		 add	 eax, edi
  00069	03 f7		 add	 esi, edi
  0006b	3a cb		 cmp	 cl, bl
  0006d	75 e6		 jne	 SHORT $LL814@AddRenderI@3
$LN816@AddRenderI@3:
  0006f	33 c0		 xor	 eax, eax
  00071	eb 05		 jmp	 SHORT $LN817@AddRenderI@3
$LN815@AddRenderI@3:
  00073	1b c0		 sbb	 eax, eax
  00075	83 d8 ff	 sbb	 eax, -1
$LN817@AddRenderI@3:
  00078	3b c3		 cmp	 eax, ebx
  0007a	75 28		 jne	 SHORT $LN808@AddRenderI@3

; 457  : 	{
; 458  : 		SAFEDELETE( m_pTabBack1 );

  0007c	8b 75 e4	 mov	 esi, DWORD PTR _this$GSCopy$[ebp]
  0007f	8b 8e 64 01 00
	00		 mov	 ecx, DWORD PTR [esi+356]
  00085	3b cb		 cmp	 ecx, ebx
  00087	74 0d		 je	 SHORT $LN20@AddRenderI@3
  00089	8b 01		 mov	 eax, DWORD PTR [ecx]
  0008b	6a 01		 push	 1
  0008d	ff 50 40	 call	 DWORD PTR [eax+64]
  00090	89 9e 64 01 00
	00		 mov	 DWORD PTR [esi+356], ebx
$LN20@AddRenderI@3:

; 459  : 		m_pTabBack1 = pImage;

  00096	8b 45 e0	 mov	 eax, DWORD PTR _pImage$GSCopy$[ebp]
  00099	89 86 64 01 00
	00		 mov	 DWORD PTR [esi+356], eax
  0009f	e9 16 03 00 00	 jmp	 $LN1@AddRenderI@3
$LN808@AddRenderI@3:

; 460  : 	}
; 461  : 	else if( szType == "TabBack2" )

  000a4	c7 45 ec b9 8d
	89 a8		 mov	 DWORD PTR __t$540408[ebp], -1467380295 ; a8898db9H
  000ab	c7 45 f0 8c 8f
	80 d8		 mov	 DWORD PTR __t$540408[ebp+4], -662663284 ; d8808f8cH
  000b2	8d 45 ec	 lea	 eax, DWORD PTR __t$540408[ebp]
  000b5	88 5d f4	 mov	 BYTE PTR __t$540408[ebp+8], bl
  000b8	8b cf		 mov	 ecx, edi
$LL247@AddRenderI@3:
  000ba	81 30 ed ec eb
	ea		 xor	 DWORD PTR [eax], -353637139 ; eaebecedH
  000c0	83 c0 04	 add	 eax, 4
  000c3	49		 dec	 ecx
  000c4	75 f4		 jne	 SHORT $LL247@AddRenderI@3
  000c6	8b 4d e8	 mov	 ecx, DWORD PTR _szType$GSCopy$[ebp]
  000c9	8d 75 ec	 lea	 esi, DWORD PTR __t$540408[ebp]
  000cc	ff 15 00 00 00
	00		 call	 DWORD PTR __imp_?c_str@ioHashString@@QBEPBDXZ
$LL818@AddRenderI@3:
  000d2	8a 08		 mov	 cl, BYTE PTR [eax]
  000d4	3a 0e		 cmp	 cl, BYTE PTR [esi]
  000d6	75 18		 jne	 SHORT $LN819@AddRenderI@3
  000d8	3a cb		 cmp	 cl, bl
  000da	74 10		 je	 SHORT $LN820@AddRenderI@3
  000dc	8a 48 01	 mov	 cl, BYTE PTR [eax+1]
  000df	3a 4e 01	 cmp	 cl, BYTE PTR [esi+1]
  000e2	75 0c		 jne	 SHORT $LN819@AddRenderI@3
  000e4	03 c7		 add	 eax, edi
  000e6	03 f7		 add	 esi, edi
  000e8	3a cb		 cmp	 cl, bl
  000ea	75 e6		 jne	 SHORT $LL818@AddRenderI@3
$LN820@AddRenderI@3:
  000ec	33 c0		 xor	 eax, eax
  000ee	eb 05		 jmp	 SHORT $LN821@AddRenderI@3
$LN819@AddRenderI@3:
  000f0	1b c0		 sbb	 eax, eax
  000f2	83 d8 ff	 sbb	 eax, -1
$LN821@AddRenderI@3:
  000f5	3b c3		 cmp	 eax, ebx
  000f7	75 28		 jne	 SHORT $LN809@AddRenderI@3

; 462  : 	{
; 463  : 		SAFEDELETE( m_pTabBack2 );

  000f9	8b 75 e4	 mov	 esi, DWORD PTR _this$GSCopy$[ebp]
  000fc	8b 8e 68 01 00
	00		 mov	 ecx, DWORD PTR [esi+360]
  00102	3b cb		 cmp	 ecx, ebx
  00104	74 0d		 je	 SHORT $LN17@AddRenderI@3
  00106	8b 01		 mov	 eax, DWORD PTR [ecx]
  00108	6a 01		 push	 1
  0010a	ff 50 40	 call	 DWORD PTR [eax+64]
  0010d	89 9e 68 01 00
	00		 mov	 DWORD PTR [esi+360], ebx
$LN17@AddRenderI@3:

; 464  : 		m_pTabBack2 = pImage;

  00113	8b 45 e0	 mov	 eax, DWORD PTR _pImage$GSCopy$[ebp]
  00116	89 86 68 01 00
	00		 mov	 DWORD PTR [esi+360], eax
  0011c	e9 99 02 00 00	 jmp	 $LN1@AddRenderI@3
$LN809@AddRenderI@3:

; 465  : 	}
; 466  : 	else if( szType == "TabBack3" )

  00121	c7 45 ec b9 8d
	89 a8		 mov	 DWORD PTR __t$540533[ebp], -1467380295 ; a8898db9H
  00128	c7 45 f0 8c 8f
	80 d9		 mov	 DWORD PTR __t$540533[ebp+4], -645886068 ; d9808f8cH
  0012f	8d 45 ec	 lea	 eax, DWORD PTR __t$540533[ebp]
  00132	88 5d f4	 mov	 BYTE PTR __t$540533[ebp+8], bl
  00135	8b cf		 mov	 ecx, edi
$LL353@AddRenderI@3:
  00137	81 30 ed ec eb
	ea		 xor	 DWORD PTR [eax], -353637139 ; eaebecedH
  0013d	83 c0 04	 add	 eax, 4
  00140	49		 dec	 ecx
  00141	75 f4		 jne	 SHORT $LL353@AddRenderI@3
  00143	8b 4d e8	 mov	 ecx, DWORD PTR _szType$GSCopy$[ebp]
  00146	8d 75 ec	 lea	 esi, DWORD PTR __t$540533[ebp]
  00149	ff 15 00 00 00
	00		 call	 DWORD PTR __imp_?c_str@ioHashString@@QBEPBDXZ
$LL822@AddRenderI@3:
  0014f	8a 08		 mov	 cl, BYTE PTR [eax]
  00151	3a 0e		 cmp	 cl, BYTE PTR [esi]
  00153	75 18		 jne	 SHORT $LN823@AddRenderI@3
  00155	3a cb		 cmp	 cl, bl
  00157	74 10		 je	 SHORT $LN824@AddRenderI@3
  00159	8a 48 01	 mov	 cl, BYTE PTR [eax+1]
  0015c	3a 4e 01	 cmp	 cl, BYTE PTR [esi+1]
  0015f	75 0c		 jne	 SHORT $LN823@AddRenderI@3
  00161	03 c7		 add	 eax, edi
  00163	03 f7		 add	 esi, edi
  00165	3a cb		 cmp	 cl, bl
  00167	75 e6		 jne	 SHORT $LL822@AddRenderI@3
$LN824@AddRenderI@3:
  00169	33 c0		 xor	 eax, eax
  0016b	eb 05		 jmp	 SHORT $LN825@AddRenderI@3
$LN823@AddRenderI@3:
  0016d	1b c0		 sbb	 eax, eax
  0016f	83 d8 ff	 sbb	 eax, -1
$LN825@AddRenderI@3:
  00172	3b c3		 cmp	 eax, ebx
  00174	75 28		 jne	 SHORT $LN810@AddRenderI@3

; 467  : 	{
; 468  : 		SAFEDELETE( m_pTabBack3 );

  00176	8b 75 e4	 mov	 esi, DWORD PTR _this$GSCopy$[ebp]
  00179	8b 8e 6c 01 00
	00		 mov	 ecx, DWORD PTR [esi+364]
  0017f	3b cb		 cmp	 ecx, ebx
  00181	74 0d		 je	 SHORT $LN14@AddRenderI@3
  00183	8b 01		 mov	 eax, DWORD PTR [ecx]
  00185	6a 01		 push	 1
  00187	ff 50 40	 call	 DWORD PTR [eax+64]
  0018a	89 9e 6c 01 00
	00		 mov	 DWORD PTR [esi+364], ebx
$LN14@AddRenderI@3:

; 469  : 		m_pTabBack3 = pImage;

  00190	8b 45 e0	 mov	 eax, DWORD PTR _pImage$GSCopy$[ebp]
  00193	89 86 6c 01 00
	00		 mov	 DWORD PTR [esi+364], eax
  00199	e9 1c 02 00 00	 jmp	 $LN1@AddRenderI@3
$LN810@AddRenderI@3:

; 470  : 	}
; 471  : 	else if( szType == "TabBack4" )

  0019e	c7 45 ec b9 8d
	89 a8		 mov	 DWORD PTR __t$540658[ebp], -1467380295 ; a8898db9H
  001a5	c7 45 f0 8c 8f
	80 de		 mov	 DWORD PTR __t$540658[ebp+4], -561999988 ; de808f8cH
  001ac	8d 45 ec	 lea	 eax, DWORD PTR __t$540658[ebp]
  001af	88 5d f4	 mov	 BYTE PTR __t$540658[ebp+8], bl
  001b2	8b cf		 mov	 ecx, edi
$LL459@AddRenderI@3:
  001b4	81 30 ed ec eb
	ea		 xor	 DWORD PTR [eax], -353637139 ; eaebecedH
  001ba	83 c0 04	 add	 eax, 4
  001bd	49		 dec	 ecx
  001be	75 f4		 jne	 SHORT $LL459@AddRenderI@3
  001c0	8b 4d e8	 mov	 ecx, DWORD PTR _szType$GSCopy$[ebp]
  001c3	8d 75 ec	 lea	 esi, DWORD PTR __t$540658[ebp]
  001c6	ff 15 00 00 00
	00		 call	 DWORD PTR __imp_?c_str@ioHashString@@QBEPBDXZ
$LL826@AddRenderI@3:
  001cc	8a 08		 mov	 cl, BYTE PTR [eax]
  001ce	3a 0e		 cmp	 cl, BYTE PTR [esi]
  001d0	75 18		 jne	 SHORT $LN827@AddRenderI@3
  001d2	3a cb		 cmp	 cl, bl
  001d4	74 10		 je	 SHORT $LN828@AddRenderI@3
  001d6	8a 48 01	 mov	 cl, BYTE PTR [eax+1]
  001d9	3a 4e 01	 cmp	 cl, BYTE PTR [esi+1]
  001dc	75 0c		 jne	 SHORT $LN827@AddRenderI@3
  001de	03 c7		 add	 eax, edi
  001e0	03 f7		 add	 esi, edi
  001e2	3a cb		 cmp	 cl, bl
  001e4	75 e6		 jne	 SHORT $LL826@AddRenderI@3
$LN828@AddRenderI@3:
  001e6	33 c0		 xor	 eax, eax
  001e8	eb 05		 jmp	 SHORT $LN829@AddRenderI@3
$LN827@AddRenderI@3:
  001ea	1b c0		 sbb	 eax, eax
  001ec	83 d8 ff	 sbb	 eax, -1
$LN829@AddRenderI@3:
  001ef	3b c3		 cmp	 eax, ebx
  001f1	75 28		 jne	 SHORT $LN811@AddRenderI@3

; 472  : 	{
; 473  : 		SAFEDELETE( m_pTabBack4 );

  001f3	8b 75 e4	 mov	 esi, DWORD PTR _this$GSCopy$[ebp]
  001f6	8b 8e 70 01 00
	00		 mov	 ecx, DWORD PTR [esi+368]
  001fc	3b cb		 cmp	 ecx, ebx
  001fe	74 0d		 je	 SHORT $LN11@AddRenderI@3
  00200	8b 01		 mov	 eax, DWORD PTR [ecx]
  00202	6a 01		 push	 1
  00204	ff 50 40	 call	 DWORD PTR [eax+64]
  00207	89 9e 70 01 00
	00		 mov	 DWORD PTR [esi+368], ebx
$LN11@AddRenderI@3:

; 474  : 		m_pTabBack4 = pImage;

  0020d	8b 45 e0	 mov	 eax, DWORD PTR _pImage$GSCopy$[ebp]
  00210	89 86 70 01 00
	00		 mov	 DWORD PTR [esi+368], eax
  00216	e9 9f 01 00 00	 jmp	 $LN1@AddRenderI@3
$LN811@AddRenderI@3:

; 475  : 	}
; 476  : 	else if( szType == "MinorGrade" )

  0021b	c7 45 ec a0 85
	85 85		 mov	 DWORD PTR __t$540796[ebp], -2054847072 ; 858585a0H
  00222	c7 45 f0 9f ab
	99 8b		 mov	 DWORD PTR __t$540796[ebp+4], -1952863329 ; 8b99ab9fH
  00229	66 c7 45 f4 89
	89		 mov	 WORD PTR __t$540796[ebp+8], 35209 ; 00008989H
  0022f	8d 45 ec	 lea	 eax, DWORD PTR __t$540796[ebp]
  00232	88 5d f6	 mov	 BYTE PTR __t$540796[ebp+10], bl
  00235	8b cf		 mov	 ecx, edi
$LL565@AddRenderI@3:
  00237	81 30 ed ec eb
	ea		 xor	 DWORD PTR [eax], -353637139 ; eaebecedH
  0023d	83 c0 04	 add	 eax, 4
  00240	49		 dec	 ecx
  00241	75 f4		 jne	 SHORT $LL565@AddRenderI@3
  00243	6a 08		 push	 8
  00245	58		 pop	 eax
$LL562@AddRenderI@3:
  00246	8b c8		 mov	 ecx, eax
  00248	81 e1 03 00 00
	80		 and	 ecx, -2147483645	; 80000003H
  0024e	79 05		 jns	 SHORT $LN842@AddRenderI@3
  00250	49		 dec	 ecx
  00251	83 c9 fc	 or	 ecx, -4			; fffffffcH
  00254	41		 inc	 ecx
$LN842@AddRenderI@3:
  00255	b2 ed		 mov	 dl, -19			; ffffffedH
  00257	2a d1		 sub	 dl, cl
  00259	30 54 05 ec	 xor	 BYTE PTR __t$540796[ebp+eax], dl
  0025d	40		 inc	 eax
  0025e	83 f8 0a	 cmp	 eax, 10			; 0000000aH
  00261	7c e3		 jl	 SHORT $LL562@AddRenderI@3
  00263	8b 4d e8	 mov	 ecx, DWORD PTR _szType$GSCopy$[ebp]
  00266	8d 75 ec	 lea	 esi, DWORD PTR __t$540796[ebp]
  00269	ff 15 00 00 00
	00		 call	 DWORD PTR __imp_?c_str@ioHashString@@QBEPBDXZ
$LL830@AddRenderI@3:
  0026f	8a 08		 mov	 cl, BYTE PTR [eax]
  00271	3a 0e		 cmp	 cl, BYTE PTR [esi]
  00273	75 18		 jne	 SHORT $LN831@AddRenderI@3
  00275	3a cb		 cmp	 cl, bl
  00277	74 10		 je	 SHORT $LN832@AddRenderI@3
  00279	8a 48 01	 mov	 cl, BYTE PTR [eax+1]
  0027c	3a 4e 01	 cmp	 cl, BYTE PTR [esi+1]
  0027f	75 0c		 jne	 SHORT $LN831@AddRenderI@3
  00281	03 c7		 add	 eax, edi
  00283	03 f7		 add	 esi, edi
  00285	3a cb		 cmp	 cl, bl
  00287	75 e6		 jne	 SHORT $LL830@AddRenderI@3
$LN832@AddRenderI@3:
  00289	33 c0		 xor	 eax, eax
  0028b	eb 05		 jmp	 SHORT $LN833@AddRenderI@3
$LN831@AddRenderI@3:
  0028d	1b c0		 sbb	 eax, eax
  0028f	83 d8 ff	 sbb	 eax, -1
$LN833@AddRenderI@3:
  00292	3b c3		 cmp	 eax, ebx
  00294	75 28		 jne	 SHORT $LN812@AddRenderI@3

; 477  : 	{
; 478  : 		SAFEDELETE( m_pMinorGrade );

  00296	8b 75 e4	 mov	 esi, DWORD PTR _this$GSCopy$[ebp]
  00299	8b 8e 78 01 00
	00		 mov	 ecx, DWORD PTR [esi+376]
  0029f	3b cb		 cmp	 ecx, ebx
  002a1	74 0d		 je	 SHORT $LN8@AddRenderI@3
  002a3	8b 01		 mov	 eax, DWORD PTR [ecx]
  002a5	6a 01		 push	 1
  002a7	ff 50 40	 call	 DWORD PTR [eax+64]
  002aa	89 9e 78 01 00
	00		 mov	 DWORD PTR [esi+376], ebx
$LN8@AddRenderI@3:

; 479  : 		m_pMinorGrade = pImage;

  002b0	8b 45 e0	 mov	 eax, DWORD PTR _pImage$GSCopy$[ebp]
  002b3	89 86 78 01 00
	00		 mov	 DWORD PTR [esi+376], eax
  002b9	e9 fc 00 00 00	 jmp	 $LN1@AddRenderI@3
$LN812@AddRenderI@3:

; 480  : 	}
; 481  : 	else if( szType == "GaugeBack" )

  002be	c7 45 ec aa 8d
	9e 8d		 mov	 DWORD PTR __t$540921[ebp], -1918988886 ; 8d9e8daaH
  002c5	c7 45 f0 88 ae
	8a 89		 mov	 DWORD PTR __t$540921[ebp+4], -1987400056 ; 898aae88H
  002cc	8d 45 ec	 lea	 eax, DWORD PTR __t$540921[ebp]
  002cf	66 c7 45 f4 86
	00		 mov	 WORD PTR __t$540921[ebp+8], 134 ; 00000086H
  002d5	8b cf		 mov	 ecx, edi
$LL671@AddRenderI@3:
  002d7	81 30 ed ec eb
	ea		 xor	 DWORD PTR [eax], -353637139 ; eaebecedH
  002dd	83 c0 04	 add	 eax, 4
  002e0	49		 dec	 ecx
  002e1	75 f4		 jne	 SHORT $LL671@AddRenderI@3
  002e3	8b 4d e8	 mov	 ecx, DWORD PTR _szType$GSCopy$[ebp]
  002e6	80 75 f4 ed	 xor	 BYTE PTR __t$540921[ebp+8], -19 ; ffffffedH
  002ea	8d 75 ec	 lea	 esi, DWORD PTR __t$540921[ebp]
  002ed	ff 15 00 00 00
	00		 call	 DWORD PTR __imp_?c_str@ioHashString@@QBEPBDXZ
$LL834@AddRenderI@3:
  002f3	8a 08		 mov	 cl, BYTE PTR [eax]
  002f5	3a 0e		 cmp	 cl, BYTE PTR [esi]
  002f7	75 18		 jne	 SHORT $LN835@AddRenderI@3
  002f9	3a cb		 cmp	 cl, bl
  002fb	74 10		 je	 SHORT $LN836@AddRenderI@3
  002fd	8a 48 01	 mov	 cl, BYTE PTR [eax+1]
  00300	3a 4e 01	 cmp	 cl, BYTE PTR [esi+1]
  00303	75 0c		 jne	 SHORT $LN835@AddRenderI@3
  00305	03 c7		 add	 eax, edi
  00307	03 f7		 add	 esi, edi
  00309	3a cb		 cmp	 cl, bl
  0030b	75 e6		 jne	 SHORT $LL834@AddRenderI@3
$LN836@AddRenderI@3:
  0030d	33 c0		 xor	 eax, eax
  0030f	eb 05		 jmp	 SHORT $LN837@AddRenderI@3
$LN835@AddRenderI@3:
  00311	1b c0		 sbb	 eax, eax
  00313	83 d8 ff	 sbb	 eax, -1
$LN837@AddRenderI@3:
  00316	3b c3		 cmp	 eax, ebx
  00318	75 25		 jne	 SHORT $LN813@AddRenderI@3

; 482  : 	{
; 483  : 		SAFEDELETE( m_pGaugeBack );

  0031a	8b 75 e4	 mov	 esi, DWORD PTR _this$GSCopy$[ebp]
  0031d	8b 8e 7c 01 00
	00		 mov	 ecx, DWORD PTR [esi+380]
  00323	3b cb		 cmp	 ecx, ebx
  00325	74 0d		 je	 SHORT $LN5@AddRenderI@3
  00327	8b 01		 mov	 eax, DWORD PTR [ecx]
  00329	6a 01		 push	 1
  0032b	ff 50 40	 call	 DWORD PTR [eax+64]
  0032e	89 9e 7c 01 00
	00		 mov	 DWORD PTR [esi+380], ebx
$LN5@AddRenderI@3:

; 484  : 		m_pGaugeBack = pImage;

  00334	8b 45 e0	 mov	 eax, DWORD PTR _pImage$GSCopy$[ebp]
  00337	89 86 7c 01 00
	00		 mov	 DWORD PTR [esi+380], eax
  0033d	eb 7b		 jmp	 SHORT $LN1@AddRenderI@3
$LN813@AddRenderI@3:

; 485  : 	}
; 486  : 	else if( szType == "Gauge" )

  0033f	8b 4d e8	 mov	 ecx, DWORD PTR _szType$GSCopy$[ebp]
  00342	c7 45 f0 aa 8d
	9e 8d		 mov	 DWORD PTR __t$541046[ebp], -1918988886 ; 8d9e8daaH
  00349	81 75 f0 ed ec
	eb ea		 xor	 DWORD PTR __t$541046[ebp], -353637139 ; eaebecedH
  00350	66 c7 45 f4 65
	00		 mov	 WORD PTR __t$541046[ebp+4], 101 ; 00000065H
  00356	8d 75 f0	 lea	 esi, DWORD PTR __t$541046[ebp]
  00359	ff 15 00 00 00
	00		 call	 DWORD PTR __imp_?c_str@ioHashString@@QBEPBDXZ
$LL838@AddRenderI@3:
  0035f	8a 08		 mov	 cl, BYTE PTR [eax]
  00361	3a 0e		 cmp	 cl, BYTE PTR [esi]
  00363	75 18		 jne	 SHORT $LN839@AddRenderI@3
  00365	3a cb		 cmp	 cl, bl
  00367	74 10		 je	 SHORT $LN840@AddRenderI@3
  00369	8a 48 01	 mov	 cl, BYTE PTR [eax+1]
  0036c	3a 4e 01	 cmp	 cl, BYTE PTR [esi+1]
  0036f	75 0c		 jne	 SHORT $LN839@AddRenderI@3
  00371	03 c7		 add	 eax, edi
  00373	03 f7		 add	 esi, edi
  00375	3a cb		 cmp	 cl, bl
  00377	75 e6		 jne	 SHORT $LL838@AddRenderI@3
$LN840@AddRenderI@3:
  00379	33 c0		 xor	 eax, eax
  0037b	eb 05		 jmp	 SHORT $LN841@AddRenderI@3
$LN839@AddRenderI@3:
  0037d	1b c0		 sbb	 eax, eax
  0037f	83 d8 ff	 sbb	 eax, -1
$LN841@AddRenderI@3:
  00382	3b c3		 cmp	 eax, ebx
  00384	75 25		 jne	 SHORT $LN3@AddRenderI@3

; 487  : 	{
; 488  : 		SAFEDELETE( m_pGauge );

  00386	8b 75 e4	 mov	 esi, DWORD PTR _this$GSCopy$[ebp]
  00389	8b 8e 80 01 00
	00		 mov	 ecx, DWORD PTR [esi+384]
  0038f	3b cb		 cmp	 ecx, ebx
  00391	74 0d		 je	 SHORT $LN2@AddRenderI@3
  00393	8b 01		 mov	 eax, DWORD PTR [ecx]
  00395	6a 01		 push	 1
  00397	ff 50 40	 call	 DWORD PTR [eax+64]
  0039a	89 9e 80 01 00
	00		 mov	 DWORD PTR [esi+384], ebx
$LN2@AddRenderI@3:

; 489  : 		m_pGauge = pImage;

  003a0	8b 45 e0	 mov	 eax, DWORD PTR _pImage$GSCopy$[ebp]
  003a3	89 86 80 01 00
	00		 mov	 DWORD PTR [esi+384], eax

; 490  : 	}
; 491  : 	else

  003a9	eb 0f		 jmp	 SHORT $LN1@AddRenderI@3
$LN3@AddRenderI@3:

; 492  : 	{
; 493  : 		ioWnd::AddRenderImage( szType, pImage );

  003ab	ff 75 e0	 push	 DWORD PTR _pImage$GSCopy$[ebp]
  003ae	8b 4d e4	 mov	 ecx, DWORD PTR _this$GSCopy$[ebp]
  003b1	ff 75 e8	 push	 DWORD PTR _szType$GSCopy$[ebp]
  003b4	ff 15 00 00 00
	00		 call	 DWORD PTR __imp_?AddRenderImage@ioWnd@@UAEXABVioHashString@@PAVioUIRenderImage@@@Z
$LN1@AddRenderI@3:

; 494  : 	}
; 495  : }

  003ba	8b 4d fc	 mov	 ecx, DWORD PTR __$ArrayPad$[ebp]
  003bd	5f		 pop	 edi
  003be	5e		 pop	 esi
  003bf	33 cd		 xor	 ecx, ebp
  003c1	5b		 pop	 ebx
  003c2	e8 00 00 00 00	 call	 @__security_check_cookie@4
  003c7	c9		 leave
  003c8	c2 08 00	 ret	 8
?AddRenderImage@LobbyWnd@@MAEXABVioHashString@@PAVioUIRenderImage@@@Z ENDP ; LobbyWnd::AddRenderImage
; Function compile flags: /Ogsp
_TEXT	ENDS
;	COMDAT ?iwm_show@LobbyWnd@@UAEXXZ
_TEXT	SEGMENT
?iwm_show@LobbyWnd@@UAEXXZ PROC				; LobbyWnd::iwm_show, COMDAT
; _this$ = ecx

; 514  : {

  00000	56		 push	 esi
  00001	8b f1		 mov	 esi, ecx

; 515  : 	m_iMyCampPos = g_MyInfo.GetUserCampPos();

  00003	e8 00 00 00 00	 call	 ?GetSingleton@ioMyInfo@@SAAAV1@XZ ; ioMyInfo::GetSingleton
  00008	8b 40 60	 mov	 eax, DWORD PTR [eax+96]

; 516  : 	ChangeRadioWnd( ID_BATTLE_BTN );

  0000b	6a 01		 push	 1
  0000d	8b ce		 mov	 ecx, esi
  0000f	89 86 8c 01 00
	00		 mov	 DWORD PTR [esi+396], eax
  00015	e8 00 00 00 00	 call	 ?ChangeRadioWnd@LobbyWnd@@IAEXK@Z ; LobbyWnd::ChangeRadioWnd

; 517  : 
; 518  : 	UpdateGuildHQButton();

  0001a	8b ce		 mov	 ecx, esi
  0001c	e8 00 00 00 00	 call	 ?UpdateGuildHQButton@LobbyWnd@@IAEXXZ ; LobbyWnd::UpdateGuildHQButton

; 519  : 	UpdateHomeButton();

  00021	8b ce		 mov	 ecx, esi
  00023	5e		 pop	 esi
  00024	e9 00 00 00 00	 jmp	 ?UpdateHomeButton@LobbyWnd@@IAEXXZ ; LobbyWnd::UpdateHomeButton
?iwm_show@LobbyWnd@@UAEXXZ ENDP				; LobbyWnd::iwm_show
; Function compile flags: /Ogsp
_TEXT	ENDS
;	COMDAT ?OnProcess@LobbyWnd@@MAEXM@Z
_TEXT	SEGMENT
_fTimePerSec$ = 8					; size = 4
?OnProcess@LobbyWnd@@MAEXM@Z PROC			; LobbyWnd::OnProcess, COMDAT
; _this$ = ecx

; 796  : {

  00000	56		 push	 esi
  00001	8b f1		 mov	 esi, ecx

; 797  : 	if( !IsShow() )	return;	

  00003	ff 15 00 00 00
	00		 call	 DWORD PTR __imp_?IsShow@ioWnd@@QBE_NXZ
  00009	84 c0		 test	 al, al
  0000b	0f 84 c0 00 00
	00		 je	 $LN1@OnProcess

; 798  : 
; 799  : 	switch( m_dwTabID )

  00011	8b 86 88 01 00
	00		 mov	 eax, DWORD PTR [esi+392]
  00017	48		 dec	 eax
  00018	48		 dec	 eax
  00019	74 17		 je	 SHORT $LN7@OnProcess
  0001b	48		 dec	 eax
  0001c	75 2d		 jne	 SHORT $LN6@OnProcess

; 806  : 			}
; 807  : 		}
; 808  : 		break;
; 809  : 	case ID_HERO_MAIN_BTN:
; 810  : 		{
; 811  : 			if( m_iMyCampPos != g_MyInfo.GetUserCampPos() )

  0001e	e8 00 00 00 00	 call	 ?GetSingleton@ioMyInfo@@SAAAV1@XZ ; ioMyInfo::GetSingleton
  00023	8b 8e 8c 01 00
	00		 mov	 ecx, DWORD PTR [esi+396]
  00029	3b 48 60	 cmp	 ecx, DWORD PTR [eax+96]
  0002c	74 1d		 je	 SHORT $LN6@OnProcess

; 812  : 			{
; 813  : 				ChangeRadioWnd( ID_HERO_MAIN_BTN );

  0002e	6a 03		 push	 3

; 814  : 			}
; 815  : 		}
; 816  : 		break;

  00030	eb 12		 jmp	 SHORT $LN17@OnProcess
$LN7@OnProcess:

; 800  : 	{
; 801  : 	case ID_CAMP_BTN:
; 802  : 		{
; 803  : 			if( m_iMyCampPos != g_MyInfo.GetUserCampPos() )

  00032	e8 00 00 00 00	 call	 ?GetSingleton@ioMyInfo@@SAAAV1@XZ ; ioMyInfo::GetSingleton
  00037	8b 8e 8c 01 00
	00		 mov	 ecx, DWORD PTR [esi+396]
  0003d	3b 48 60	 cmp	 ecx, DWORD PTR [eax+96]
  00040	74 09		 je	 SHORT $LN6@OnProcess

; 804  : 			{
; 805  : 				ChangeRadioWnd( ID_CAMP_BTN );

  00042	6a 02		 push	 2
$LN17@OnProcess:
  00044	8b ce		 mov	 ecx, esi
  00046	e8 00 00 00 00	 call	 ?ChangeRadioWnd@LobbyWnd@@IAEXK@Z ; LobbyWnd::ChangeRadioWnd
$LN6@OnProcess:

; 817  : 	}
; 818  : 
; 819  : 	SetChildWndStyleRemove( ID_TOURNAMENT_BTN, IWS_EXACTIVE );	

  0004b	57		 push	 edi
  0004c	bf 00 10 00 00	 mov	 edi, 4096		; 00001000H
  00051	57		 push	 edi
  00052	6a 07		 push	 7
  00054	8b ce		 mov	 ecx, esi
  00056	ff 15 00 00 00
	00		 call	 DWORD PTR __imp_?SetChildWndStyleRemove@ioWnd@@QAEXKK@Z

; 820  : 	if( g_TournamentMgr.IsRegularDisableTournament() )

  0005c	e8 00 00 00 00	 call	 ?GetSingleton@ioTournamentManager@@SAAAV1@XZ ; ioTournamentManager::GetSingleton
  00061	8b c8		 mov	 ecx, eax
  00063	e8 00 00 00 00	 call	 ?IsRegularDisableTournament@ioTournamentManager@@QAE_NXZ ; ioTournamentManager::IsRegularDisableTournament
  00068	84 c0		 test	 al, al
  0006a	74 2e		 je	 SHORT $LN2@OnProcess

; 821  : 	{
; 822  : 		SetChildWndStyleAdd( ID_TOURNAMENT_BTN, IWS_EXACTIVE );

  0006c	57		 push	 edi
  0006d	6a 07		 push	 7
  0006f	8b ce		 mov	 ecx, esi
  00071	ff 15 00 00 00
	00		 call	 DWORD PTR __imp_?SetChildWndStyleAdd@ioWnd@@QAEXKK@Z

; 823  : 		ioWnd* pTournamentWnd = FindChildWnd( ID_TOURNAMENT_WND );

  00077	6a 10		 push	 16			; 00000010H
  00079	8b ce		 mov	 ecx, esi
  0007b	ff 15 00 00 00
	00		 call	 DWORD PTR __imp_?FindChildWnd@ioWnd@@QAEPAV1@K@Z

; 824  : 		if( pTournamentWnd && pTournamentWnd->IsShow() )

  00081	85 c0		 test	 eax, eax
  00083	74 15		 je	 SHORT $LN2@OnProcess
  00085	8b c8		 mov	 ecx, eax
  00087	ff 15 00 00 00
	00		 call	 DWORD PTR __imp_?IsShow@ioWnd@@QBE_NXZ
  0008d	84 c0		 test	 al, al
  0008f	74 09		 je	 SHORT $LN2@OnProcess

; 825  : 			ChangeRadioWnd( ID_BATTLE_BTN );

  00091	6a 01		 push	 1
  00093	8b ce		 mov	 ecx, esi
  00095	e8 00 00 00 00	 call	 ?ChangeRadioWnd@LobbyWnd@@IAEXK@Z ; LobbyWnd::ChangeRadioWnd
$LN2@OnProcess:

; 826  : 	}
; 827  : 
; 828  : 	UpdateGuildHQButton();

  0009a	8b ce		 mov	 ecx, esi
  0009c	e8 00 00 00 00	 call	 ?UpdateGuildHQButton@LobbyWnd@@IAEXXZ ; LobbyWnd::UpdateGuildHQButton

; 829  : 	UpdateHomeButton();

  000a1	8b ce		 mov	 ecx, esi
  000a3	e8 00 00 00 00	 call	 ?UpdateHomeButton@LobbyWnd@@IAEXXZ ; LobbyWnd::UpdateHomeButton

; 830  : 	CheckBonusCash();

  000a8	8b ce		 mov	 ecx, esi
  000aa	e8 00 00 00 00	 call	 ?CheckBonusCash@LobbyWnd@@IAEXXZ ; LobbyWnd::CheckBonusCash

; 831  : 
; 832  : 	// 케쉬 요청 패킷에 대한 틱
; 833  : 	ioLocalParent *pLocal = g_LocalMgr.GetLocal( ioLocalManager::GetLocalType() );

  000af	ff 15 00 00 00
	00		 call	 DWORD PTR __imp_?GetLocalType@ioLocalManagerParent@@SA?AW4LocalType@1@XZ
  000b5	50		 push	 eax
  000b6	e8 00 00 00 00	 call	 ?GetSingleton@ioLocalManager@@SAAAV1@XZ ; ioLocalManager::GetSingleton
  000bb	8b c8		 mov	 ecx, eax
  000bd	e8 00 00 00 00	 call	 ?GetLocal@ioLocalManager@@QAEPAVioLocalParent@@W4LocalType@ioLocalManagerParent@@@Z ; ioLocalManager::GetLocal
  000c2	5f		 pop	 edi

; 834  : 	if( pLocal )

  000c3	85 c0		 test	 eax, eax
  000c5	74 0a		 je	 SHORT $LN1@OnProcess

; 835  : 		pLocal->ProcessGetCash();

  000c7	8b 10		 mov	 edx, DWORD PTR [eax]
  000c9	8b c8		 mov	 ecx, eax
  000cb	ff 92 50 01 00
	00		 call	 DWORD PTR [edx+336]
$LN1@OnProcess:
  000d1	5e		 pop	 esi

; 836  : }

  000d2	c2 04 00	 ret	 4
?OnProcess@LobbyWnd@@MAEXM@Z ENDP			; LobbyWnd::OnProcess
_TEXT	ENDS
PUBLIC	??_C@_0BH@IDPOOKAJ@Version?5?3?5?$CFd?5?$HM?5?$CFs?5?$HM?5?$CFd?$AA@ ; `string'
PUBLIC	??_C@_0BE@ICLMMBDD@2014?101?110?516?323?320?$AA@ ; `string'
PUBLIC	??_C@_03NIBMKKKC@?5?1?5?$AA@			; `string'
PUBLIC	??_C@_0BD@DBGNEGEL@LobbyWnd?3?3OnRender?$AA@	; `string'
PUBLIC	_this$GSCopy$
EXTRN	__imp_?GetWidth@ioWnd@@QBEHXZ:PROC
EXTRN	__imp_?GetHeight@ioWnd@@QBEHXZ:PROC
EXTRN	?IsMeGameMaster@ioApplication@@QAE_NXZ:PROC	; ioApplication::IsMeGameMaster
EXTRN	?IsMeDeveloper@ioApplication@@QAE_NXZ:PROC	; ioApplication::IsMeDeveloper
EXTRN	?AddTextPiece@ioComplexStringPrinter@@QAEXMPBD0@Z:PROC ; ioComplexStringPrinter::AddTextPiece
EXTRN	?AddTextPiece@ioComplexStringPrinter@@QAEXMPBD00@Z:PROC ; ioComplexStringPrinter::AddTextPiece
EXTRN	?FindEtcItem@ioEtcItemManager@@QAEPAVioEtcItem@@K@Z:PROC ; ioEtcItemManager::FindEtcItem
EXTRN	?SetTextColor@ioComplexStringPrinter@@QAEXHHH@Z:PROC ; ioComplexStringPrinter::SetTextColor
EXTRN	?GetTotalCash@ioMyInfo@@QAEHXZ:PROC		; ioMyInfo::GetTotalCash
EXTRN	?ConvertNumToStrComma@Help@@YAXHPADH@Z:PROC	; Help::ConvertNumToStrComma
EXTRN	?GetEtcCoinMoney@ioMyInfo@@QAEHK@Z:PROC		; ioMyInfo::GetEtcCoinMoney
EXTRN	__imp_?SetVertFormatting@ioUIRenderImage@@QAEXW4VertFormatting@1@@Z:PROC
EXTRN	__imp_?SetHorzFormatting@ioUIRenderImage@@QAEXW4HorzFormatting@1@@Z:PROC
EXTRN	__imp_?OnRender@ioWnd@@MAEXXZ:PROC
;	COMDAT ??_C@_0BH@IDPOOKAJ@Version?5?3?5?$CFd?5?$HM?5?$CFs?5?$HM?5?$CFd?$AA@
; File d:\lost saga for developer\youtube\tutorial\source\src\lsclient\ioetcitem.h
CONST	SEGMENT
??_C@_0BH@IDPOOKAJ@Version?5?3?5?$CFd?5?$HM?5?$CFs?5?$HM?5?$CFd?$AA@ DB 'V'
	DB	'ersion : %d | %s | %d', 00H			; `string'
CONST	ENDS
;	COMDAT ??_C@_0BE@ICLMMBDD@2014?101?110?516?323?320?$AA@
CONST	SEGMENT
??_C@_0BE@ICLMMBDD@2014?101?110?516?323?320?$AA@ DB '2014/01/10 16:23:20', 00H ; `string'
CONST	ENDS
;	COMDAT ??_C@_03NIBMKKKC@?5?1?5?$AA@
CONST	SEGMENT
??_C@_03NIBMKKKC@?5?1?5?$AA@ DB ' / ', 00H		; `string'
CONST	ENDS
;	COMDAT ??_C@_0BD@DBGNEGEL@LobbyWnd?3?3OnRender?$AA@
CONST	SEGMENT
??_C@_0BD@DBGNEGEL@LobbyWnd?3?3OnRender?$AA@ DB 'LobbyWnd::OnRender', 00H ; `string'
CONST	ENDS
;	COMDAT xdata$x
xdata$x	SEGMENT
__unwindtable$?OnRender@LobbyWnd@@MAEXXZ DD 0ffffffffH
	DD	FLAT:__unwindfunclet$?OnRender@LobbyWnd@@MAEXXZ$0
__ehfuncinfo$?OnRender@LobbyWnd@@MAEXXZ DD 019930522H
	DD	01H
	DD	FLAT:__unwindtable$?OnRender@LobbyWnd@@MAEXXZ
	DD	2 DUP(00H)
	DD	2 DUP(00H)
	DD	00H
	DD	01H
; Function compile flags: /Ogsp
; File d:\lost saga for developer\youtube\tutorial\source\src\lsclient\gui\lobbymainwnd.cpp
xdata$x	ENDS
;	COMDAT ?OnRender@LobbyWnd@@MAEXXZ
_TEXT	SEGMENT
_kPrinter$ = -1640					; size = 32
_this$GSCopy$ = -1608					; size = 4
$T541241 = -1604					; size = 8
tv567 = -1600						; size = 4
_iAdd_OffsetY$ = -1600					; size = 4
_iXPos$ = -1596						; size = 4
tv875 = -1592						; size = 4
_iLicentDate$534024 = -1592				; size = 4
_iMaxClover$ = -1592					; size = 4
tv1067 = -1588						; size = 4
_iMaxMileage$ = -1588					; size = 4
_iYPos$ = -1584						; size = 4
_pBonusCashBtn$ = -1580					; size = 4
_iMaxStamp$ = -1580					; size = 4
_szCash$ = -1576					; size = 260
_szPeso$ = -1316					; size = 260
_szText$534027 = -1056					; size = 260
_szClover$ = -796					; size = 260
_szMileage$ = -536					; size = 260
_szStamp$ = -276					; size = 260
__$EHRec$ = -12						; size = 12
?OnRender@LobbyWnd@@MAEXXZ PROC				; LobbyWnd::OnRender, COMDAT
; _this$ = ecx

; 839  : {

  00000	68 5c 06 00 00	 push	 1628			; 0000065cH
  00005	b8 00 00 00 00	 mov	 eax, __ehhandler$?OnRender@LobbyWnd@@MAEXXZ
  0000a	e8 00 00 00 00	 call	 __EH_prolog3_GS
  0000f	8b f9		 mov	 edi, ecx

; 990  : 		{
; 991  : 			iLicentDate = pLocal->GetLicenseDate();

  00011	89 bd b8 f9 ff
	ff		 mov	 DWORD PTR _this$GSCopy$[ebp], edi
  00017	ff 15 00 00 00
	00		 call	 DWORD PTR __imp_?OnRender@ioWnd@@MAEXXZ
  0001d	8b cf		 mov	 ecx, edi
  0001f	ff 15 00 00 00
	00		 call	 DWORD PTR __imp_?GetDerivedPosX@ioWnd@@QBEHXZ
  00025	8b f0		 mov	 esi, eax
  00027	8b cf		 mov	 ecx, edi
  00029	89 b5 c4 f9 ff
	ff		 mov	 DWORD PTR _iXPos$[ebp], esi
  0002f	ff 15 00 00 00
	00		 call	 DWORD PTR __imp_?GetDerivedPosY@ioWnd@@QBEHXZ
  00035	33 db		 xor	 ebx, ebx
  00037	8b c8		 mov	 ecx, eax
  00039	89 8d d0 f9 ff
	ff		 mov	 DWORD PTR _iYPos$[ebp], ecx
  0003f	39 9f 64 01 00
	00		 cmp	 DWORD PTR [edi+356], ebx
  00045	74 32		 je	 SHORT $LN27@OnRender@3

; 840  : 	ioWnd::OnRender();
; 841  : 
; 842  : 	int iXPos = GetDerivedPosX();
; 843  : 	int iYPos = GetDerivedPosY();
; 844  : 
; 845  : 	if( m_pTabBack1 )
; 846  : 		m_pTabBack1->Render( iXPos + 2, iYPos + 2, UI_RENDER_MULTIPLY );

  00047	8b 87 64 01 00
	00		 mov	 eax, DWORD PTR [edi+356]
  0004d	8b 10		 mov	 edx, DWORD PTR [eax]
  0004f	53		 push	 ebx
  00050	53		 push	 ebx
  00051	53		 push	 ebx
  00052	83 c1 02	 add	 ecx, 2
  00055	6a 08		 push	 8
  00057	51		 push	 ecx
  00058	51		 push	 ecx
  00059	0f 57 c0	 xorps	 xmm0, xmm0
  0005c	f3 0f 2a c1	 cvtsi2ss xmm0, ecx
  00060	f3 0f 11 44 24
	04		 movss	 DWORD PTR [esp+4], xmm0
  00066	8d 4e 02	 lea	 ecx, DWORD PTR [esi+2]
  00069	0f 57 c0	 xorps	 xmm0, xmm0
  0006c	f3 0f 2a c1	 cvtsi2ss xmm0, ecx
  00070	8b c8		 mov	 ecx, eax
  00072	f3 0f 11 04 24	 movss	 DWORD PTR [esp], xmm0
  00077	ff 12		 call	 DWORD PTR [edx]
$LN27@OnRender@3:

; 847  : 	if( m_pTabBack2 )

  00079	39 9f 68 01 00
	00		 cmp	 DWORD PTR [edi+360], ebx
  0007f	74 69		 je	 SHORT $LN23@OnRender@3

; 848  : 	{
; 849  : 		for(int i = 0;i < 5;i++)

  00081	8d 46 02	 lea	 eax, DWORD PTR [esi+2]
  00084	0f 57 c0	 xorps	 xmm0, xmm0
  00087	f3 0f 2a c0	 cvtsi2ss xmm0, eax
  0008b	8b 85 d0 f9 ff
	ff		 mov	 eax, DWORD PTR _iYPos$[ebp]
  00091	83 c0 31	 add	 eax, 49			; 00000031H
  00094	f3 0f 11 85 c8
	f9 ff ff	 movss	 DWORD PTR tv875[ebp], xmm0
  0009c	89 85 cc f9 ff
	ff		 mov	 DWORD PTR tv1067[ebp], eax
  000a2	c7 85 c0 f9 ff
	ff 05 00 00 00	 mov	 DWORD PTR tv567[ebp], 5
$LN25@OnRender@3:

; 850  : 			m_pTabBack2->Render( iXPos + 2, iYPos + 49 + i * 71, UI_RENDER_MULTIPLY );

  000ac	8b 8f 68 01 00
	00		 mov	 ecx, DWORD PTR [edi+360]
  000b2	66 0f 6e 85 cc
	f9 ff ff	 movd	 xmm0, DWORD PTR tv1067[ebp]
  000ba	8b 01		 mov	 eax, DWORD PTR [ecx]
  000bc	53		 push	 ebx
  000bd	53		 push	 ebx
  000be	53		 push	 ebx
  000bf	6a 08		 push	 8
  000c1	51		 push	 ecx
  000c2	51		 push	 ecx
  000c3	0f 5b c0	 cvtdq2ps xmm0, xmm0
  000c6	f3 0f 11 44 24
	04		 movss	 DWORD PTR [esp+4], xmm0
  000cc	f3 0f 10 85 c8
	f9 ff ff	 movss	 xmm0, DWORD PTR tv875[ebp]
  000d4	f3 0f 11 04 24	 movss	 DWORD PTR [esp], xmm0
  000d9	ff 10		 call	 DWORD PTR [eax]
  000db	83 85 cc f9 ff
	ff 47		 add	 DWORD PTR tv1067[ebp], 71 ; 00000047H
  000e2	ff 8d c0 f9 ff
	ff		 dec	 DWORD PTR tv567[ebp]
  000e8	75 c2		 jne	 SHORT $LN25@OnRender@3
$LN23@OnRender@3:

; 851  : 	}
; 852  : 	if( m_pTabBack3 )

  000ea	8b 8f 6c 01 00
	00		 mov	 ecx, DWORD PTR [edi+364]
  000f0	3b cb		 cmp	 ecx, ebx
  000f2	74 5e		 je	 SHORT $LN22@OnRender@3

; 853  : 	{
; 854  : 		m_pTabBack3->SetHorzFormatting( ioUIRenderImage::HF_STRETCH );

  000f4	6a 03		 push	 3
  000f6	ff 15 00 00 00
	00		 call	 DWORD PTR __imp_?SetHorzFormatting@ioUIRenderImage@@QAEXW4HorzFormatting@1@@Z

; 855  : 		m_pTabBack3->SetVertFormatting( ioUIRenderImage::VF_STRETCH );

  000fc	8b 8f 6c 01 00
	00		 mov	 ecx, DWORD PTR [edi+364]
  00102	6a 03		 push	 3
  00104	ff 15 00 00 00
	00		 call	 DWORD PTR __imp_?SetVertFormatting@ioUIRenderImage@@QAEXW4VertFormatting@1@@Z

; 856  : 		m_pTabBack3->SetSize( 127, 113 );

  0010a	8b 8f 6c 01 00
	00		 mov	 ecx, DWORD PTR [edi+364]
  00110	8b 01		 mov	 eax, DWORD PTR [ecx]
  00112	6a 71		 push	 113			; 00000071H
  00114	6a 7f		 push	 127			; 0000007fH
  00116	ff 50 10	 call	 DWORD PTR [eax+16]

; 857  : 		m_pTabBack3->Render( iXPos + 2, iYPos + 404, UI_RENDER_MULTIPLY );

  00119	8b 8f 6c 01 00
	00		 mov	 ecx, DWORD PTR [edi+364]
  0011f	8b 95 d0 f9 ff
	ff		 mov	 edx, DWORD PTR _iYPos$[ebp]
  00125	8b 01		 mov	 eax, DWORD PTR [ecx]
  00127	53		 push	 ebx
  00128	53		 push	 ebx
  00129	53		 push	 ebx
  0012a	6a 08		 push	 8
  0012c	81 c2 94 01 00
	00		 add	 edx, 404		; 00000194H
  00132	0f 57 c0	 xorps	 xmm0, xmm0
  00135	f3 0f 2a c2	 cvtsi2ss xmm0, edx
  00139	51		 push	 ecx
  0013a	51		 push	 ecx
  0013b	f3 0f 11 44 24
	04		 movss	 DWORD PTR [esp+4], xmm0
  00141	8d 56 02	 lea	 edx, DWORD PTR [esi+2]
  00144	0f 57 c0	 xorps	 xmm0, xmm0
  00147	f3 0f 2a c2	 cvtsi2ss xmm0, edx
  0014b	f3 0f 11 04 24	 movss	 DWORD PTR [esp], xmm0
  00150	ff 10		 call	 DWORD PTR [eax]
$LN22@OnRender@3:

; 858  : 	}
; 859  : 	if( m_pTabBack4 )

  00152	39 9f 70 01 00
	00		 cmp	 DWORD PTR [edi+368], ebx
  00158	74 39		 je	 SHORT $LN21@OnRender@3

; 860  : 		m_pTabBack4->Render( iXPos + 2, iYPos + 517, UI_RENDER_MULTIPLY );

  0015a	8b 8f 70 01 00
	00		 mov	 ecx, DWORD PTR [edi+368]
  00160	8b 95 d0 f9 ff
	ff		 mov	 edx, DWORD PTR _iYPos$[ebp]
  00166	8b 01		 mov	 eax, DWORD PTR [ecx]
  00168	53		 push	 ebx
  00169	53		 push	 ebx
  0016a	53		 push	 ebx
  0016b	6a 08		 push	 8
  0016d	81 c2 05 02 00
	00		 add	 edx, 517		; 00000205H
  00173	0f 57 c0	 xorps	 xmm0, xmm0
  00176	f3 0f 2a c2	 cvtsi2ss xmm0, edx
  0017a	51		 push	 ecx
  0017b	51		 push	 ecx
  0017c	f3 0f 11 44 24
	04		 movss	 DWORD PTR [esp+4], xmm0
  00182	8d 56 02	 lea	 edx, DWORD PTR [esi+2]
  00185	0f 57 c0	 xorps	 xmm0, xmm0
  00188	f3 0f 2a c2	 cvtsi2ss xmm0, edx
  0018c	f3 0f 11 04 24	 movss	 DWORD PTR [esp], xmm0
  00191	ff 10		 call	 DWORD PTR [eax]
$LN21@OnRender@3:

; 861  : 
; 862  : 	if( m_pCustomTitle )

  00193	39 9f 60 01 00
	00		 cmp	 DWORD PTR [edi+352], ebx
  00199	74 2d		 je	 SHORT $LN20@OnRender@3

; 863  : 		m_pCustomTitle->Render( iXPos, iYPos );

  0019b	8b 8f 60 01 00
	00		 mov	 ecx, DWORD PTR [edi+352]
  001a1	66 0f 6e 85 d0
	f9 ff ff	 movd	 xmm0, DWORD PTR _iYPos$[ebp]
  001a9	8b 01		 mov	 eax, DWORD PTR [ecx]
  001ab	53		 push	 ebx
  001ac	53		 push	 ebx
  001ad	53		 push	 ebx
  001ae	53		 push	 ebx
  001af	51		 push	 ecx
  001b0	0f 5b c0	 cvtdq2ps xmm0, xmm0
  001b3	51		 push	 ecx
  001b4	f3 0f 11 44 24
	04		 movss	 DWORD PTR [esp+4], xmm0
  001ba	0f 57 c0	 xorps	 xmm0, xmm0
  001bd	f3 0f 2a c6	 cvtsi2ss xmm0, esi
  001c1	f3 0f 11 04 24	 movss	 DWORD PTR [esp], xmm0
  001c6	ff 10		 call	 DWORD PTR [eax]
$LN20@OnRender@3:

; 864  : 
; 865  : 	g_FontMgr.SetAlignType( TAT_LEFT );

  001c8	8b 35 00 00 00
	00		 mov	 esi, DWORD PTR __imp_?GetSingleton@ioFontManager@@SAAAV1@XZ
  001ce	53		 push	 ebx
  001cf	ff d6		 call	 esi
  001d1	8b c8		 mov	 ecx, eax
  001d3	ff 15 00 00 00
	00		 call	 DWORD PTR __imp_?SetAlignType@ioFontManager@@QAEXW4TextAlignType@@@Z

; 866  : 	g_FontMgr.SetTextStyle( TS_OUTLINE_FULL_2X );

  001d9	6a 05		 push	 5
  001db	ff d6		 call	 esi
  001dd	8b c8		 mov	 ecx, eax
  001df	ff 15 00 00 00
	00		 call	 DWORD PTR __imp_?SetTextStyle@ioFontManager@@QAEXW4TextStyle@@@Z

; 867  : 	g_FontMgr.SetBkColor( 12, 66, 111 );

  001e5	6a 6f		 push	 111			; 0000006fH
  001e7	6a 42		 push	 66			; 00000042H
  001e9	6a 0c		 push	 12			; 0000000cH
  001eb	ff d6		 call	 esi
  001ed	8b c8		 mov	 ecx, eax
  001ef	ff 15 00 00 00
	00		 call	 DWORD PTR __imp_?SetBkColor@ioFontManager@@QAEXHHH@Z

; 868  : 	g_FontMgr.SetTextColor( TCT_DEFAULT_WHITE );

  001f5	6a ff		 push	 -1
  001f7	ff d6		 call	 esi
  001f9	8b c8		 mov	 ecx, eax
  001fb	ff 15 00 00 00
	00		 call	 DWORD PTR __imp_?SetTextColor@ioFontManager@@QAEXK@Z

; 869  : 	g_FontMgr.PrintText( iXPos + 13, iYPos + 11, FONT_SIZE_17, STR(1) );

  00201	53		 push	 ebx
  00202	6a 01		 push	 1
  00204	68 00 00 00 00	 push	 OFFSET ??_C@_00CNPNBAHC@?$AA@
  00209	68 00 00 00 00	 push	 OFFSET ??_C@_0BD@DBGNEGEL@LobbyWnd?3?3OnRender?$AA@
  0020e	ff 15 00 00 00
	00		 call	 DWORD PTR __imp_?GetSingleton@ioStringManager@@SAAAV1@XZ
  00214	8b c8		 mov	 ecx, eax
  00216	ff 15 00 00 00
	00		 call	 DWORD PTR __imp_?GetString@ioStringManager@@QAEPADPBD0HW4FileNamePrefix@1@@Z
  0021c	f3 0f 10 05 00
	00 00 00	 movss	 xmm0, DWORD PTR __real@3f59999a
  00224	50		 push	 eax
  00225	8b 85 d0 f9 ff
	ff		 mov	 eax, DWORD PTR _iYPos$[ebp]
  0022b	83 ec 0c	 sub	 esp, 12			; 0000000cH
  0022e	f3 0f 11 44 24
	08		 movss	 DWORD PTR [esp+8], xmm0
  00234	83 c0 0b	 add	 eax, 11			; 0000000bH
  00237	0f 57 c0	 xorps	 xmm0, xmm0
  0023a	f3 0f 2a c0	 cvtsi2ss xmm0, eax
  0023e	8b 85 c4 f9 ff
	ff		 mov	 eax, DWORD PTR _iXPos$[ebp]
  00244	f3 0f 11 44 24
	04		 movss	 DWORD PTR [esp+4], xmm0
  0024a	83 c0 0d	 add	 eax, 13			; 0000000dH
  0024d	0f 57 c0	 xorps	 xmm0, xmm0
  00250	f3 0f 2a c0	 cvtsi2ss xmm0, eax
  00254	f3 0f 11 04 24	 movss	 DWORD PTR [esp], xmm0
  00259	ff d6		 call	 esi
  0025b	50		 push	 eax
  0025c	ff 15 00 00 00
	00		 call	 DWORD PTR __imp_?PrintText@ioFontManager@@QAAXMMMPBDZZ
  00262	83 c4 14	 add	 esp, 20			; 00000014H

; 870  : 
; 871  : 	RenderGradeExp( iXPos, iYPos );

  00265	ff b5 d0 f9 ff
	ff		 push	 DWORD PTR _iYPos$[ebp]
  0026b	8b cf		 mov	 ecx, edi
  0026d	ff b5 c4 f9 ff
	ff		 push	 DWORD PTR _iXPos$[ebp]
  00273	e8 00 00 00 00	 call	 ?RenderGradeExp@LobbyWnd@@IAEXHH@Z ; LobbyWnd::RenderGradeExp

; 872  : 
; 873  : 	// peso and gold
; 874  : 	enum 
; 875  : 	{
; 876  : 		X_OFFSET					= 548,
; 877  : 		X_OFFSET2					= 532,
; 878  : 		Y_OFFSET					= 15,
; 879  : 		X_BONUS_CASH_TOOLTIP_OFFSET	= 63,
; 880  : 		Y_BONUS_CASH_TOOLTIP_OFFSET	= 22,
; 881  : 	};
; 882  : 
; 883  : 	char szPeso[MAX_PATH]="";

  00278	bf 03 01 00 00	 mov	 edi, 259		; 00000103H
  0027d	57		 push	 edi
  0027e	8d 85 dd fa ff
	ff		 lea	 eax, DWORD PTR _szPeso$[ebp+1]
  00284	53		 push	 ebx
  00285	50		 push	 eax
  00286	88 9d dc fa ff
	ff		 mov	 BYTE PTR _szPeso$[ebp], bl
  0028c	e8 00 00 00 00	 call	 _memset

; 884  : 	char szCash[MAX_PATH]="";

  00291	57		 push	 edi
  00292	8d 85 d9 f9 ff
	ff		 lea	 eax, DWORD PTR _szCash$[ebp+1]
  00298	53		 push	 ebx
  00299	50		 push	 eax
  0029a	88 9d d8 f9 ff
	ff		 mov	 BYTE PTR _szCash$[ebp], bl
  002a0	e8 00 00 00 00	 call	 _memset

; 885  : 	char szStamp[MAX_PATH]="";

  002a5	57		 push	 edi
  002a6	8d 85 ed fe ff
	ff		 lea	 eax, DWORD PTR _szStamp$[ebp+1]
  002ac	53		 push	 ebx
  002ad	50		 push	 eax
  002ae	88 9d ec fe ff
	ff		 mov	 BYTE PTR _szStamp$[ebp], bl
  002b4	e8 00 00 00 00	 call	 _memset

; 886  : 	char szClover[MAX_PATH]="";

  002b9	57		 push	 edi
  002ba	8d 85 e5 fc ff
	ff		 lea	 eax, DWORD PTR _szClover$[ebp+1]
  002c0	53		 push	 ebx
  002c1	50		 push	 eax
  002c2	88 9d e4 fc ff
	ff		 mov	 BYTE PTR _szClover$[ebp], bl
  002c8	e8 00 00 00 00	 call	 _memset

; 887  : 	char szMileage[MAX_PATH]="";

  002cd	57		 push	 edi
  002ce	8d 85 e9 fd ff
	ff		 lea	 eax, DWORD PTR _szMileage$[ebp+1]
  002d4	53		 push	 ebx
  002d5	50		 push	 eax
  002d6	88 9d e8 fd ff
	ff		 mov	 BYTE PTR _szMileage$[ebp], bl
  002dc	e8 00 00 00 00	 call	 _memset
  002e1	83 c4 3c	 add	 esp, 60			; 0000003cH

; 888  : 	int  iMaxStamp = g_MyInfo.GetEtcCoinMoney( ioEtcItem::EIT_ETC_SILVER_COIN );

  002e4	68 71 42 0f 00	 push	 1000049			; 000f4271H
  002e9	e8 00 00 00 00	 call	 ?GetSingleton@ioMyInfo@@SAAAV1@XZ ; ioMyInfo::GetSingleton
  002ee	8b c8		 mov	 ecx, eax
  002f0	e8 00 00 00 00	 call	 ?GetEtcCoinMoney@ioMyInfo@@QAEHK@Z ; ioMyInfo::GetEtcCoinMoney

; 889  : 	int  iMaxClover = g_MyInfo.GetEtcCoinMoney( ioEtcItem::EIT_ETC_CLOVER );

  002f5	68 b9 49 0f 00	 push	 1001913			; 000f49b9H
  002fa	89 85 d4 f9 ff
	ff		 mov	 DWORD PTR _iMaxStamp$[ebp], eax
  00300	e8 00 00 00 00	 call	 ?GetSingleton@ioMyInfo@@SAAAV1@XZ ; ioMyInfo::GetSingleton
  00305	8b c8		 mov	 ecx, eax
  00307	e8 00 00 00 00	 call	 ?GetEtcCoinMoney@ioMyInfo@@QAEHK@Z ; ioMyInfo::GetEtcCoinMoney

; 890  : 	int  iMaxMileage = g_MyInfo.GetEtcCoinMoney( ioEtcItem::EIT_ETC_MILEAGE_COIN );

  0030c	68 41 58 0f 00	 push	 1005633			; 000f5841H
  00311	89 85 c8 f9 ff
	ff		 mov	 DWORD PTR _iMaxClover$[ebp], eax
  00317	e8 00 00 00 00	 call	 ?GetSingleton@ioMyInfo@@SAAAV1@XZ ; ioMyInfo::GetSingleton
  0031c	8b c8		 mov	 ecx, eax
  0031e	e8 00 00 00 00	 call	 ?GetEtcCoinMoney@ioMyInfo@@QAEHK@Z ; ioMyInfo::GetEtcCoinMoney
  00323	89 85 cc f9 ff
	ff		 mov	 DWORD PTR _iMaxMileage$[ebp], eax

; 891  : 
; 892  : 	Help::ConvertNumToStrComma( g_MyInfo.GetMoney(), szPeso, sizeof( szPeso ) );

  00329	e8 00 00 00 00	 call	 ?GetSingleton@ioMyInfo@@SAAAV1@XZ ; ioMyInfo::GetSingleton
  0032e	8b 48 30	 mov	 ecx, DWORD PTR [eax+48]
  00331	8b 40 34	 mov	 eax, DWORD PTR [eax+52]
  00334	89 85 c0 f9 ff
	ff		 mov	 DWORD PTR $T541241[ebp+4], eax
  0033a	68 04 01 00 00	 push	 260			; 00000104H
  0033f	8d 85 dc fa ff
	ff		 lea	 eax, DWORD PTR _szPeso$[ebp]
  00345	50		 push	 eax
  00346	51		 push	 ecx
  00347	e8 00 00 00 00	 call	 ?ConvertNumToStrComma@Help@@YAXHPADH@Z ; Help::ConvertNumToStrComma
  0034c	83 c4 0c	 add	 esp, 12			; 0000000cH

; 893  : 	Help::ConvertNumToStrComma( g_MyInfo.GetTotalCash(), szCash, sizeof( szCash ) );

  0034f	8d 85 d8 f9 ff
	ff		 lea	 eax, DWORD PTR _szCash$[ebp]
  00355	68 04 01 00 00	 push	 260			; 00000104H
  0035a	50		 push	 eax
  0035b	e8 00 00 00 00	 call	 ?GetSingleton@ioMyInfo@@SAAAV1@XZ ; ioMyInfo::GetSingleton
  00360	8b c8		 mov	 ecx, eax
  00362	e8 00 00 00 00	 call	 ?GetTotalCash@ioMyInfo@@QAEHXZ ; ioMyInfo::GetTotalCash
  00367	50		 push	 eax
  00368	e8 00 00 00 00	 call	 ?ConvertNumToStrComma@Help@@YAXHPADH@Z ; Help::ConvertNumToStrComma

; 894  : 	Help::ConvertNumToStrComma( iMaxStamp, szStamp, sizeof( szStamp ) );

  0036d	68 04 01 00 00	 push	 260			; 00000104H
  00372	8d 85 ec fe ff
	ff		 lea	 eax, DWORD PTR _szStamp$[ebp]
  00378	50		 push	 eax
  00379	ff b5 d4 f9 ff
	ff		 push	 DWORD PTR _iMaxStamp$[ebp]
  0037f	e8 00 00 00 00	 call	 ?ConvertNumToStrComma@Help@@YAXHPADH@Z ; Help::ConvertNumToStrComma

; 895  : 	Help::ConvertNumToStrComma( iMaxClover, szClover, sizeof( szClover ) );

  00384	68 04 01 00 00	 push	 260			; 00000104H
  00389	8d 85 e4 fc ff
	ff		 lea	 eax, DWORD PTR _szClover$[ebp]
  0038f	50		 push	 eax
  00390	ff b5 c8 f9 ff
	ff		 push	 DWORD PTR _iMaxClover$[ebp]
  00396	e8 00 00 00 00	 call	 ?ConvertNumToStrComma@Help@@YAXHPADH@Z ; Help::ConvertNumToStrComma
  0039b	83 c4 24	 add	 esp, 36			; 00000024H

; 896  : 
; 897  : 	int iAdd_OffsetY = 0;

  0039e	89 9d c0 f9 ff
	ff		 mov	 DWORD PTR _iAdd_OffsetY$[ebp], ebx

; 898  : 	if( iMaxMileage > 0 )

  003a4	39 9d cc f9 ff
	ff		 cmp	 DWORD PTR _iMaxMileage$[ebp], ebx
  003aa	7e 24		 jle	 SHORT $LN19@OnRender@3

; 899  : 	{
; 900  : 		Help::ConvertNumToStrComma( iMaxMileage, szMileage, sizeof( szMileage ) );

  003ac	68 04 01 00 00	 push	 260			; 00000104H
  003b1	8d 85 e8 fd ff
	ff		 lea	 eax, DWORD PTR _szMileage$[ebp]
  003b7	50		 push	 eax
  003b8	ff b5 cc f9 ff
	ff		 push	 DWORD PTR _iMaxMileage$[ebp]
  003be	e8 00 00 00 00	 call	 ?ConvertNumToStrComma@Help@@YAXHPADH@Z ; Help::ConvertNumToStrComma
  003c3	83 c4 0c	 add	 esp, 12			; 0000000cH

; 901  : 		iAdd_OffsetY = 7;

  003c6	c7 85 c0 f9 ff
	ff 07 00 00 00	 mov	 DWORD PTR _iAdd_OffsetY$[ebp], 7
$LN19@OnRender@3:

; 902  : 	}
; 903  : 
; 904  : 	ioComplexStringPrinter kPrinter;

  003d0	8d 8d 98 f9 ff
	ff		 lea	 ecx, DWORD PTR _kPrinter$[ebp]
  003d6	e8 00 00 00 00	 call	 ??0ioComplexStringPrinter@@QAE@XZ ; ioComplexStringPrinter::ioComplexStringPrinter

; 905  : 	kPrinter.SetTextStyle( TS_OUTLINE_FULL_2X );

  003db	6a 05		 push	 5
  003dd	8d 8d 98 f9 ff
	ff		 lea	 ecx, DWORD PTR _kPrinter$[ebp]
  003e3	89 5d fc	 mov	 DWORD PTR __$EHRec$[ebp+8], ebx
  003e6	e8 00 00 00 00	 call	 ?SetTextStyle@ioComplexStringPrinter@@QAEXW4TextStyle@@@Z ; ioComplexStringPrinter::SetTextStyle

; 906  : 	kPrinter.SetBkColor( 12, 66, 111 );

  003eb	6a 6f		 push	 111			; 0000006fH
  003ed	6a 42		 push	 66			; 00000042H
  003ef	6a 0c		 push	 12			; 0000000cH
  003f1	8d 8d 98 f9 ff
	ff		 lea	 ecx, DWORD PTR _kPrinter$[ebp]
  003f7	e8 00 00 00 00	 call	 ?SetBkColor@ioComplexStringPrinter@@QAEXHHH@Z ; ioComplexStringPrinter::SetBkColor

; 907  : 	if( iMaxStamp > 0 )

  003fc	39 9d d4 f9 ff
	ff		 cmp	 DWORD PTR _iMaxStamp$[ebp], ebx
  00402	0f 8e e4 00 00
	00		 jle	 $LN18@OnRender@3

; 908  : 	{
; 909  : 		kPrinter.SetTextColor( 130, 198, 255 );	

  00408	68 ff 00 00 00	 push	 255			; 000000ffH
  0040d	68 c6 00 00 00	 push	 198			; 000000c6H
  00412	68 82 00 00 00	 push	 130			; 00000082H
  00417	8d 8d 98 f9 ff
	ff		 lea	 ecx, DWORD PTR _kPrinter$[ebp]
  0041d	e8 00 00 00 00	 call	 ?SetTextColor@ioComplexStringPrinter@@QAEXHHH@Z ; ioComplexStringPrinter::SetTextColor

; 910  : 		ioEtcItem *pEtcItem = g_EtcItemMgr.FindEtcItem( ioEtcItem::EIT_ETC_SILVER_COIN );

  00422	8b 0d 00 00 00
	00		 mov	 ecx, DWORD PTR ?ms_Singleton@?$Singleton@VioEtcItemManager@@@@1PAVioEtcItemManager@@A ; Singleton<ioEtcItemManager>::ms_Singleton
  00428	68 71 42 0f 00	 push	 1000049			; 000f4271H
  0042d	e8 00 00 00 00	 call	 ?FindEtcItem@ioEtcItemManager@@QAEPAVioEtcItem@@K@Z ; ioEtcItemManager::FindEtcItem

; 911  : 		if( pEtcItem )

  00432	3b c3		 cmp	 eax, ebx
  00434	74 48		 je	 SHORT $LN17@OnRender@3

; 912  : 		{
; 913  : 			kPrinter.AddTextPiece( FONT_SIZE_11, STR(5), pEtcItem->GetName().c_str(), szStamp );

  00436	8d 8d ec fe ff
	ff		 lea	 ecx, DWORD PTR _szStamp$[ebp]
  0043c	51		 push	 ecx
  0043d	8d 48 04	 lea	 ecx, DWORD PTR [eax+4]
  00440	ff 15 00 00 00
	00		 call	 DWORD PTR __imp_?c_str@ioHashString@@QBEPBDXZ
  00446	50		 push	 eax
  00447	53		 push	 ebx
  00448	6a 05		 push	 5
  0044a	68 00 00 00 00	 push	 OFFSET ??_C@_00CNPNBAHC@?$AA@
  0044f	68 00 00 00 00	 push	 OFFSET ??_C@_0BD@DBGNEGEL@LobbyWnd?3?3OnRender?$AA@
  00454	ff 15 00 00 00
	00		 call	 DWORD PTR __imp_?GetSingleton@ioStringManager@@SAAAV1@XZ
  0045a	8b c8		 mov	 ecx, eax
  0045c	ff 15 00 00 00
	00		 call	 DWORD PTR __imp_?GetString@ioStringManager@@QAEPADPBD0HW4FileNamePrefix@1@@Z
  00462	f3 0f 10 05 00
	00 00 00	 movss	 xmm0, DWORD PTR __real@3f0ccccd
  0046a	50		 push	 eax
  0046b	51		 push	 ecx
  0046c	8d 8d 98 f9 ff
	ff		 lea	 ecx, DWORD PTR _kPrinter$[ebp]
  00472	f3 0f 11 04 24	 movss	 DWORD PTR [esp], xmm0
  00477	e8 00 00 00 00	 call	 ?AddTextPiece@ioComplexStringPrinter@@QAEXMPBD00@Z ; ioComplexStringPrinter::AddTextPiece

; 914  : 		}
; 915  : 		else

  0047c	eb 3c		 jmp	 SHORT $LN16@OnRender@3
$LN17@OnRender@3:

; 916  : 		{
; 917  : 			kPrinter.AddTextPiece( FONT_SIZE_11, STR(4), szStamp );

  0047e	8d 85 ec fe ff
	ff		 lea	 eax, DWORD PTR _szStamp$[ebp]
  00484	50		 push	 eax
  00485	53		 push	 ebx
  00486	6a 04		 push	 4
  00488	68 00 00 00 00	 push	 OFFSET ??_C@_00CNPNBAHC@?$AA@
  0048d	68 00 00 00 00	 push	 OFFSET ??_C@_0BD@DBGNEGEL@LobbyWnd?3?3OnRender?$AA@
  00492	ff 15 00 00 00
	00		 call	 DWORD PTR __imp_?GetSingleton@ioStringManager@@SAAAV1@XZ
  00498	8b c8		 mov	 ecx, eax
  0049a	ff 15 00 00 00
	00		 call	 DWORD PTR __imp_?GetString@ioStringManager@@QAEPADPBD0HW4FileNamePrefix@1@@Z
  004a0	f3 0f 10 05 00
	00 00 00	 movss	 xmm0, DWORD PTR __real@3f0ccccd
  004a8	50		 push	 eax
  004a9	51		 push	 ecx
  004aa	8d 8d 98 f9 ff
	ff		 lea	 ecx, DWORD PTR _kPrinter$[ebp]
  004b0	f3 0f 11 04 24	 movss	 DWORD PTR [esp], xmm0
  004b5	e8 00 00 00 00	 call	 ?AddTextPiece@ioComplexStringPrinter@@QAEXMPBD0@Z ; ioComplexStringPrinter::AddTextPiece
$LN16@OnRender@3:

; 918  : 		}
; 919  : 		kPrinter.SetTextColor( TCT_DEFAULT_LIGHTGRAY );		

  004ba	68 a7 a7 a7 ff	 push	 -5789785		; ffa7a7a7H
  004bf	8d 8d 98 f9 ff
	ff		 lea	 ecx, DWORD PTR _kPrinter$[ebp]
  004c5	e8 00 00 00 00	 call	 ?SetTextColor@ioComplexStringPrinter@@QAEXK@Z ; ioComplexStringPrinter::SetTextColor

; 920  : 		kPrinter.AddTextPiece( FONT_SIZE_11, " / " );

  004ca	f3 0f 10 05 00
	00 00 00	 movss	 xmm0, DWORD PTR __real@3f0ccccd
  004d2	68 00 00 00 00	 push	 OFFSET ??_C@_03NIBMKKKC@?5?1?5?$AA@
  004d7	51		 push	 ecx
  004d8	8d 85 98 f9 ff
	ff		 lea	 eax, DWORD PTR _kPrinter$[ebp]
  004de	f3 0f 11 04 24	 movss	 DWORD PTR [esp], xmm0
  004e3	50		 push	 eax
  004e4	e8 00 00 00 00	 call	 ?AddTextPiece@ioComplexStringPrinter@@QAAXMPBDZZ ; ioComplexStringPrinter::AddTextPiece
  004e9	83 c4 0c	 add	 esp, 12			; 0000000cH
$LN18@OnRender@3:

; 921  : 	}
; 922  : 	
; 923  : 	if( iMaxClover > 0 )

  004ec	39 9d c8 f9 ff
	ff		 cmp	 DWORD PTR _iMaxClover$[ebp], ebx
  004f2	0f 8e e4 00 00
	00		 jle	 $LN15@OnRender@3

; 924  : 	{
; 925  : 		kPrinter.SetTextColor( 130, 198, 255 );	

  004f8	68 ff 00 00 00	 push	 255			; 000000ffH
  004fd	68 c6 00 00 00	 push	 198			; 000000c6H
  00502	68 82 00 00 00	 push	 130			; 00000082H
  00507	8d 8d 98 f9 ff
	ff		 lea	 ecx, DWORD PTR _kPrinter$[ebp]
  0050d	e8 00 00 00 00	 call	 ?SetTextColor@ioComplexStringPrinter@@QAEXHHH@Z ; ioComplexStringPrinter::SetTextColor

; 926  : 		ioEtcItem *pEtcItem = g_EtcItemMgr.FindEtcItem( ioEtcItem::EIT_ETC_CLOVER );

  00512	8b 0d 00 00 00
	00		 mov	 ecx, DWORD PTR ?ms_Singleton@?$Singleton@VioEtcItemManager@@@@1PAVioEtcItemManager@@A ; Singleton<ioEtcItemManager>::ms_Singleton
  00518	68 b9 49 0f 00	 push	 1001913			; 000f49b9H
  0051d	e8 00 00 00 00	 call	 ?FindEtcItem@ioEtcItemManager@@QAEPAVioEtcItem@@K@Z ; ioEtcItemManager::FindEtcItem

; 927  : 		if( pEtcItem )

  00522	3b c3		 cmp	 eax, ebx
  00524	74 48		 je	 SHORT $LN14@OnRender@3

; 928  : 			kPrinter.AddTextPiece( FONT_SIZE_12, STR(6), pEtcItem->GetName().c_str(), szClover );

  00526	8d 8d e4 fc ff
	ff		 lea	 ecx, DWORD PTR _szClover$[ebp]
  0052c	51		 push	 ecx
  0052d	8d 48 04	 lea	 ecx, DWORD PTR [eax+4]
  00530	ff 15 00 00 00
	00		 call	 DWORD PTR __imp_?c_str@ioHashString@@QBEPBDXZ
  00536	50		 push	 eax
  00537	53		 push	 ebx
  00538	6a 06		 push	 6
  0053a	68 00 00 00 00	 push	 OFFSET ??_C@_00CNPNBAHC@?$AA@
  0053f	68 00 00 00 00	 push	 OFFSET ??_C@_0BD@DBGNEGEL@LobbyWnd?3?3OnRender?$AA@
  00544	ff 15 00 00 00
	00		 call	 DWORD PTR __imp_?GetSingleton@ioStringManager@@SAAAV1@XZ
  0054a	8b c8		 mov	 ecx, eax
  0054c	ff 15 00 00 00
	00		 call	 DWORD PTR __imp_?GetString@ioStringManager@@QAEPADPBD0HW4FileNamePrefix@1@@Z
  00552	f3 0f 10 05 00
	00 00 00	 movss	 xmm0, DWORD PTR __real@3f19999a
  0055a	50		 push	 eax
  0055b	51		 push	 ecx
  0055c	8d 8d 98 f9 ff
	ff		 lea	 ecx, DWORD PTR _kPrinter$[ebp]
  00562	f3 0f 11 04 24	 movss	 DWORD PTR [esp], xmm0
  00567	e8 00 00 00 00	 call	 ?AddTextPiece@ioComplexStringPrinter@@QAEXMPBD00@Z ; ioComplexStringPrinter::AddTextPiece

; 929  : 		else

  0056c	eb 3c		 jmp	 SHORT $LN13@OnRender@3
$LN14@OnRender@3:

; 930  : 			kPrinter.AddTextPiece( FONT_SIZE_12, STR(7), szClover );

  0056e	8d 85 e4 fc ff
	ff		 lea	 eax, DWORD PTR _szClover$[ebp]
  00574	50		 push	 eax
  00575	53		 push	 ebx
  00576	6a 07		 push	 7
  00578	68 00 00 00 00	 push	 OFFSET ??_C@_00CNPNBAHC@?$AA@
  0057d	68 00 00 00 00	 push	 OFFSET ??_C@_0BD@DBGNEGEL@LobbyWnd?3?3OnRender?$AA@
  00582	ff 15 00 00 00
	00		 call	 DWORD PTR __imp_?GetSingleton@ioStringManager@@SAAAV1@XZ
  00588	8b c8		 mov	 ecx, eax
  0058a	ff 15 00 00 00
	00		 call	 DWORD PTR __imp_?GetString@ioStringManager@@QAEPADPBD0HW4FileNamePrefix@1@@Z
  00590	f3 0f 10 05 00
	00 00 00	 movss	 xmm0, DWORD PTR __real@3f19999a
  00598	50		 push	 eax
  00599	51		 push	 ecx
  0059a	8d 8d 98 f9 ff
	ff		 lea	 ecx, DWORD PTR _kPrinter$[ebp]
  005a0	f3 0f 11 04 24	 movss	 DWORD PTR [esp], xmm0
  005a5	e8 00 00 00 00	 call	 ?AddTextPiece@ioComplexStringPrinter@@QAEXMPBD0@Z ; ioComplexStringPrinter::AddTextPiece
$LN13@OnRender@3:

; 931  : 		kPrinter.SetTextColor( TCT_DEFAULT_LIGHTGRAY );		

  005aa	68 a7 a7 a7 ff	 push	 -5789785		; ffa7a7a7H
  005af	8d 8d 98 f9 ff
	ff		 lea	 ecx, DWORD PTR _kPrinter$[ebp]
  005b5	e8 00 00 00 00	 call	 ?SetTextColor@ioComplexStringPrinter@@QAEXK@Z ; ioComplexStringPrinter::SetTextColor

; 932  : 		kPrinter.AddTextPiece( FONT_SIZE_11, " / " );

  005ba	f3 0f 10 05 00
	00 00 00	 movss	 xmm0, DWORD PTR __real@3f0ccccd
  005c2	68 00 00 00 00	 push	 OFFSET ??_C@_03NIBMKKKC@?5?1?5?$AA@
  005c7	51		 push	 ecx
  005c8	8d 85 98 f9 ff
	ff		 lea	 eax, DWORD PTR _kPrinter$[ebp]
  005ce	f3 0f 11 04 24	 movss	 DWORD PTR [esp], xmm0
  005d3	50		 push	 eax
  005d4	e8 00 00 00 00	 call	 ?AddTextPiece@ioComplexStringPrinter@@QAAXMPBDZZ ; ioComplexStringPrinter::AddTextPiece
  005d9	83 c4 0c	 add	 esp, 12			; 0000000cH
$LN15@OnRender@3:

; 933  : 	}
; 934  : 	kPrinter.SetTextColor( 130, 198, 255 );		

  005dc	68 ff 00 00 00	 push	 255			; 000000ffH
  005e1	68 c6 00 00 00	 push	 198			; 000000c6H
  005e6	68 82 00 00 00	 push	 130			; 00000082H
  005eb	8d 8d 98 f9 ff
	ff		 lea	 ecx, DWORD PTR _kPrinter$[ebp]
  005f1	e8 00 00 00 00	 call	 ?SetTextColor@ioComplexStringPrinter@@QAEXHHH@Z ; ioComplexStringPrinter::SetTextColor

; 935  : 	kPrinter.AddTextPiece( FONT_SIZE_11, STR(2) );

  005f6	53		 push	 ebx
  005f7	6a 02		 push	 2
  005f9	68 00 00 00 00	 push	 OFFSET ??_C@_00CNPNBAHC@?$AA@
  005fe	68 00 00 00 00	 push	 OFFSET ??_C@_0BD@DBGNEGEL@LobbyWnd?3?3OnRender?$AA@
  00603	ff 15 00 00 00
	00		 call	 DWORD PTR __imp_?GetSingleton@ioStringManager@@SAAAV1@XZ
  00609	8b c8		 mov	 ecx, eax
  0060b	ff 15 00 00 00
	00		 call	 DWORD PTR __imp_?GetString@ioStringManager@@QAEPADPBD0HW4FileNamePrefix@1@@Z
  00611	f3 0f 10 05 00
	00 00 00	 movss	 xmm0, DWORD PTR __real@3f0ccccd
  00619	50		 push	 eax
  0061a	51		 push	 ecx
  0061b	8d 85 98 f9 ff
	ff		 lea	 eax, DWORD PTR _kPrinter$[ebp]
  00621	f3 0f 11 04 24	 movss	 DWORD PTR [esp], xmm0
  00626	50		 push	 eax
  00627	e8 00 00 00 00	 call	 ?AddTextPiece@ioComplexStringPrinter@@QAAXMPBDZZ ; ioComplexStringPrinter::AddTextPiece

; 936  : 	kPrinter.AddTextPiece( FONT_SIZE_11, szPeso );

  0062c	f3 0f 10 05 00
	00 00 00	 movss	 xmm0, DWORD PTR __real@3f0ccccd
  00634	83 c4 0c	 add	 esp, 12			; 0000000cH
  00637	8d 85 dc fa ff
	ff		 lea	 eax, DWORD PTR _szPeso$[ebp]
  0063d	50		 push	 eax
  0063e	51		 push	 ecx
  0063f	8d 85 98 f9 ff
	ff		 lea	 eax, DWORD PTR _kPrinter$[ebp]
  00645	f3 0f 11 04 24	 movss	 DWORD PTR [esp], xmm0
  0064a	50		 push	 eax
  0064b	e8 00 00 00 00	 call	 ?AddTextPiece@ioComplexStringPrinter@@QAAXMPBDZZ ; ioComplexStringPrinter::AddTextPiece
  00650	83 c4 0c	 add	 esp, 12			; 0000000cH

; 937  : 	kPrinter.SetTextColor( TCT_DEFAULT_LIGHTGRAY );		

  00653	68 a7 a7 a7 ff	 push	 -5789785		; ffa7a7a7H
  00658	8d 8d 98 f9 ff
	ff		 lea	 ecx, DWORD PTR _kPrinter$[ebp]
  0065e	e8 00 00 00 00	 call	 ?SetTextColor@ioComplexStringPrinter@@QAEXK@Z ; ioComplexStringPrinter::SetTextColor

; 938  : 	kPrinter.AddTextPiece( FONT_SIZE_11, " / " );

  00663	f3 0f 10 05 00
	00 00 00	 movss	 xmm0, DWORD PTR __real@3f0ccccd
  0066b	68 00 00 00 00	 push	 OFFSET ??_C@_03NIBMKKKC@?5?1?5?$AA@
  00670	51		 push	 ecx
  00671	8d 85 98 f9 ff
	ff		 lea	 eax, DWORD PTR _kPrinter$[ebp]
  00677	f3 0f 11 04 24	 movss	 DWORD PTR [esp], xmm0
  0067c	50		 push	 eax
  0067d	e8 00 00 00 00	 call	 ?AddTextPiece@ioComplexStringPrinter@@QAAXMPBDZZ ; ioComplexStringPrinter::AddTextPiece
  00682	83 c4 0c	 add	 esp, 12			; 0000000cH

; 939  : 	kPrinter.SetTextColor( 255, 188, 26 );		

  00685	6a 1a		 push	 26			; 0000001aH
  00687	68 bc 00 00 00	 push	 188			; 000000bcH
  0068c	68 ff 00 00 00	 push	 255			; 000000ffH
  00691	8d 8d 98 f9 ff
	ff		 lea	 ecx, DWORD PTR _kPrinter$[ebp]
  00697	e8 00 00 00 00	 call	 ?SetTextColor@ioComplexStringPrinter@@QAEXHHH@Z ; ioComplexStringPrinter::SetTextColor

; 940  : 	kPrinter.AddTextPiece( FONT_SIZE_12, STR(3) );

  0069c	53		 push	 ebx
  0069d	6a 03		 push	 3
  0069f	68 00 00 00 00	 push	 OFFSET ??_C@_00CNPNBAHC@?$AA@
  006a4	68 00 00 00 00	 push	 OFFSET ??_C@_0BD@DBGNEGEL@LobbyWnd?3?3OnRender?$AA@
  006a9	ff 15 00 00 00
	00		 call	 DWORD PTR __imp_?GetSingleton@ioStringManager@@SAAAV1@XZ
  006af	8b c8		 mov	 ecx, eax
  006b1	ff 15 00 00 00
	00		 call	 DWORD PTR __imp_?GetString@ioStringManager@@QAEPADPBD0HW4FileNamePrefix@1@@Z
  006b7	f3 0f 10 05 00
	00 00 00	 movss	 xmm0, DWORD PTR __real@3f19999a
  006bf	50		 push	 eax
  006c0	51		 push	 ecx
  006c1	8d 85 98 f9 ff
	ff		 lea	 eax, DWORD PTR _kPrinter$[ebp]
  006c7	f3 0f 11 04 24	 movss	 DWORD PTR [esp], xmm0
  006cc	50		 push	 eax
  006cd	e8 00 00 00 00	 call	 ?AddTextPiece@ioComplexStringPrinter@@QAAXMPBDZZ ; ioComplexStringPrinter::AddTextPiece

; 941  : 	kPrinter.AddTextPiece( FONT_SIZE_12, szCash );

  006d2	f3 0f 10 05 00
	00 00 00	 movss	 xmm0, DWORD PTR __real@3f19999a
  006da	83 c4 0c	 add	 esp, 12			; 0000000cH
  006dd	8d 85 d8 f9 ff
	ff		 lea	 eax, DWORD PTR _szCash$[ebp]
  006e3	50		 push	 eax
  006e4	51		 push	 ecx
  006e5	8d 85 98 f9 ff
	ff		 lea	 eax, DWORD PTR _kPrinter$[ebp]
  006eb	f3 0f 11 04 24	 movss	 DWORD PTR [esp], xmm0
  006f0	50		 push	 eax
  006f1	e8 00 00 00 00	 call	 ?AddTextPiece@ioComplexStringPrinter@@QAAXMPBDZZ ; ioComplexStringPrinter::AddTextPiece

; 942  : 	
; 943  : 	ioButton* pBonusCashBtn = dynamic_cast<ioButton*>(FindChildWnd( ID_BONUS_CASH_BTN ));

  006f6	8b 8d b8 f9 ff
	ff		 mov	 ecx, DWORD PTR _this$GSCopy$[ebp]
  006fc	83 c4 0c	 add	 esp, 12			; 0000000cH
  006ff	53		 push	 ebx
  00700	68 00 00 00 00	 push	 OFFSET ??_R0?AVioButton@@@8
  00705	68 00 00 00 00	 push	 OFFSET ??_R0?AVioWnd@@@8
  0070a	53		 push	 ebx
  0070b	6a 11		 push	 17			; 00000011H
  0070d	ff 15 00 00 00
	00		 call	 DWORD PTR __imp_?FindChildWnd@ioWnd@@QAEPAV1@K@Z
  00713	50		 push	 eax
  00714	e8 00 00 00 00	 call	 ___RTDynamicCast
  00719	8b c8		 mov	 ecx, eax
  0071b	83 c4 14	 add	 esp, 20			; 00000014H
  0071e	89 8d d4 f9 ff
	ff		 mov	 DWORD PTR _pBonusCashBtn$[ebp], ecx

; 944  : 	if ( pBonusCashBtn && pBonusCashBtn->IsShow() )

  00724	3b cb		 cmp	 ecx, ebx
  00726	0f 84 a9 00 00
	00		 je	 $LN12@OnRender@3
  0072c	ff 15 00 00 00
	00		 call	 DWORD PTR __imp_?IsShow@ioWnd@@QBE_NXZ
  00732	84 c0		 test	 al, al
  00734	0f 84 9b 00 00
	00		 je	 $LN12@OnRender@3

; 945  : 	{
; 946  : 		//마일리지가 존재한다면
; 947  : 		if ( iMaxMileage <= 0 )
; 948  : 		{
; 949  : 			pBonusCashBtn->SetWndPos( pBonusCashBtn->GetXPos() - 2 , pBonusCashBtn->GetYPos() + 6 );

  0073a	8b 8d d4 f9 ff
	ff		 mov	 ecx, DWORD PTR _pBonusCashBtn$[ebp]
  00740	39 9d cc f9 ff
	ff		 cmp	 DWORD PTR _iMaxMileage$[ebp], ebx
  00746	7f 62		 jg	 SHORT $LN11@OnRender@3
  00748	ff 15 00 00 00
	00		 call	 DWORD PTR __imp_?GetYPos@ioWnd@@QBEHXZ
  0074e	8b 8d d4 f9 ff
	ff		 mov	 ecx, DWORD PTR _pBonusCashBtn$[ebp]
  00754	83 c0 06	 add	 eax, 6
  00757	50		 push	 eax
  00758	ff 15 00 00 00
	00		 call	 DWORD PTR __imp_?GetXPos@ioWnd@@QBEHXZ
  0075e	8b 8d d4 f9 ff
	ff		 mov	 ecx, DWORD PTR _pBonusCashBtn$[ebp]
  00764	83 e8 02	 sub	 eax, 2
  00767	50		 push	 eax
  00768	ff 15 00 00 00
	00		 call	 DWORD PTR __imp_?SetWndPos@ioWnd@@QAEXHH@Z

; 950  : 			pBonusCashBtn->RenderWnd();

  0076e	8b 8d d4 f9 ff
	ff		 mov	 ecx, DWORD PTR _pBonusCashBtn$[ebp]
  00774	8b 01		 mov	 eax, DWORD PTR [ecx]
  00776	ff 90 d4 00 00
	00		 call	 DWORD PTR [eax+212]

; 951  : 			pBonusCashBtn->SetWndPos( pBonusCashBtn->GetXPos() + 2 , pBonusCashBtn->GetYPos() - 6 );

  0077c	8b 8d d4 f9 ff
	ff		 mov	 ecx, DWORD PTR _pBonusCashBtn$[ebp]
  00782	ff 15 00 00 00
	00		 call	 DWORD PTR __imp_?GetYPos@ioWnd@@QBEHXZ
  00788	8b 8d d4 f9 ff
	ff		 mov	 ecx, DWORD PTR _pBonusCashBtn$[ebp]
  0078e	83 e8 06	 sub	 eax, 6
  00791	50		 push	 eax
  00792	ff 15 00 00 00
	00		 call	 DWORD PTR __imp_?GetXPos@ioWnd@@QBEHXZ
  00798	8b 8d d4 f9 ff
	ff		 mov	 ecx, DWORD PTR _pBonusCashBtn$[ebp]
  0079e	83 c0 02	 add	 eax, 2
  007a1	50		 push	 eax
  007a2	ff 15 00 00 00
	00		 call	 DWORD PTR __imp_?SetWndPos@ioWnd@@QAEXHH@Z

; 952  : 		}
; 953  : 		else

  007a8	eb 08		 jmp	 SHORT $LN10@OnRender@3
$LN11@OnRender@3:

; 954  : 			pBonusCashBtn->RenderWnd();

  007aa	8b 01		 mov	 eax, DWORD PTR [ecx]
  007ac	ff 90 d4 00 00
	00		 call	 DWORD PTR [eax+212]
$LN10@OnRender@3:

; 955  : 		kPrinter.PrintFullText( iXPos + X_OFFSET2, iYPos + Y_OFFSET-iAdd_OffsetY, TAT_RIGHT );

  007b2	8b 85 d0 f9 ff
	ff		 mov	 eax, DWORD PTR _iYPos$[ebp]
  007b8	2b 85 c0 f9 ff
	ff		 sub	 eax, DWORD PTR _iAdd_OffsetY$[ebp]
  007be	0f 57 c0	 xorps	 xmm0, xmm0
  007c1	83 c0 0f	 add	 eax, 15			; 0000000fH
  007c4	f3 0f 2a c0	 cvtsi2ss xmm0, eax
  007c8	8b 85 c4 f9 ff
	ff		 mov	 eax, DWORD PTR _iXPos$[ebp]
  007ce	05 14 02 00 00	 add	 eax, 532		; 00000214H

; 956  : 	}
; 957  : 	else

  007d3	eb 21		 jmp	 SHORT $LN51@OnRender@3
$LN12@OnRender@3:

; 958  : 		kPrinter.PrintFullText( iXPos + X_OFFSET, iYPos + Y_OFFSET-iAdd_OffsetY, TAT_RIGHT );

  007d5	8b 85 d0 f9 ff
	ff		 mov	 eax, DWORD PTR _iYPos$[ebp]
  007db	2b 85 c0 f9 ff
	ff		 sub	 eax, DWORD PTR _iAdd_OffsetY$[ebp]
  007e1	0f 57 c0	 xorps	 xmm0, xmm0
  007e4	83 c0 0f	 add	 eax, 15			; 0000000fH
  007e7	f3 0f 2a c0	 cvtsi2ss xmm0, eax
  007eb	8b 85 c4 f9 ff
	ff		 mov	 eax, DWORD PTR _iXPos$[ebp]
  007f1	05 24 02 00 00	 add	 eax, 548		; 00000224H
$LN51@OnRender@3:
  007f6	68 ff 00 00 00	 push	 255			; 000000ffH
  007fb	6a 02		 push	 2
  007fd	51		 push	 ecx
  007fe	51		 push	 ecx
  007ff	f3 0f 11 44 24
	04		 movss	 DWORD PTR [esp+4], xmm0
  00805	0f 57 c0	 xorps	 xmm0, xmm0
  00808	f3 0f 2a c0	 cvtsi2ss xmm0, eax
  0080c	8d 8d 98 f9 ff
	ff		 lea	 ecx, DWORD PTR _kPrinter$[ebp]
  00812	f3 0f 11 04 24	 movss	 DWORD PTR [esp], xmm0
  00817	e8 00 00 00 00	 call	 ?PrintFullText@ioComplexStringPrinter@@QAEXMMW4TextAlignType@@E@Z ; ioComplexStringPrinter::PrintFullText

; 959  : 	
; 960  : 	kPrinter.ClearList();

  0081c	8d 8d 98 f9 ff
	ff		 lea	 ecx, DWORD PTR _kPrinter$[ebp]
  00822	e8 00 00 00 00	 call	 ?ClearList@ioComplexStringPrinter@@QAEXXZ ; ioComplexStringPrinter::ClearList

; 961  : 
; 962  : 	if( iMaxMileage > 0 )

  00827	39 9d cc f9 ff
	ff		 cmp	 DWORD PTR _iMaxMileage$[ebp], ebx
  0082d	0f 8e c5 00 00
	00		 jle	 $LN8@OnRender@3

; 963  : 	{
; 964  : 		iAdd_OffsetY = 6;
; 965  : 		kPrinter.SetTextColor( 115, 204, 0 );

  00833	53		 push	 ebx
  00834	68 cc 00 00 00	 push	 204			; 000000ccH
  00839	6a 73		 push	 115			; 00000073H
  0083b	8d 8d 98 f9 ff
	ff		 lea	 ecx, DWORD PTR _kPrinter$[ebp]
  00841	c7 85 c0 f9 ff
	ff 06 00 00 00	 mov	 DWORD PTR _iAdd_OffsetY$[ebp], 6
  0084b	e8 00 00 00 00	 call	 ?SetTextColor@ioComplexStringPrinter@@QAEXHHH@Z ; ioComplexStringPrinter::SetTextColor

; 966  : 		ioEtcItem *pEtcItem = g_EtcItemMgr.FindEtcItem( ioEtcItem::EIT_ETC_MILEAGE_COIN );

  00850	8b 0d 00 00 00
	00		 mov	 ecx, DWORD PTR ?ms_Singleton@?$Singleton@VioEtcItemManager@@@@1PAVioEtcItemManager@@A ; Singleton<ioEtcItemManager>::ms_Singleton
  00856	68 41 58 0f 00	 push	 1005633			; 000f5841H
  0085b	e8 00 00 00 00	 call	 ?FindEtcItem@ioEtcItemManager@@QAEPAVioEtcItem@@K@Z ; ioEtcItemManager::FindEtcItem

; 967  : 		if( pEtcItem )

  00860	3b c3		 cmp	 eax, ebx
  00862	74 48		 je	 SHORT $LN7@OnRender@3

; 968  : 		{
; 969  : 			kPrinter.AddTextPiece( FONT_SIZE_12, STR(5), pEtcItem->GetName().c_str(), szMileage );

  00864	8d 8d e8 fd ff
	ff		 lea	 ecx, DWORD PTR _szMileage$[ebp]
  0086a	51		 push	 ecx
  0086b	8d 48 04	 lea	 ecx, DWORD PTR [eax+4]
  0086e	ff 15 00 00 00
	00		 call	 DWORD PTR __imp_?c_str@ioHashString@@QBEPBDXZ
  00874	50		 push	 eax
  00875	53		 push	 ebx
  00876	6a 05		 push	 5
  00878	68 00 00 00 00	 push	 OFFSET ??_C@_00CNPNBAHC@?$AA@
  0087d	68 00 00 00 00	 push	 OFFSET ??_C@_0BD@DBGNEGEL@LobbyWnd?3?3OnRender?$AA@
  00882	ff 15 00 00 00
	00		 call	 DWORD PTR __imp_?GetSingleton@ioStringManager@@SAAAV1@XZ
  00888	8b c8		 mov	 ecx, eax
  0088a	ff 15 00 00 00
	00		 call	 DWORD PTR __imp_?GetString@ioStringManager@@QAEPADPBD0HW4FileNamePrefix@1@@Z
  00890	f3 0f 10 05 00
	00 00 00	 movss	 xmm0, DWORD PTR __real@3f19999a
  00898	50		 push	 eax
  00899	51		 push	 ecx
  0089a	8d 8d 98 f9 ff
	ff		 lea	 ecx, DWORD PTR _kPrinter$[ebp]
  008a0	f3 0f 11 04 24	 movss	 DWORD PTR [esp], xmm0
  008a5	e8 00 00 00 00	 call	 ?AddTextPiece@ioComplexStringPrinter@@QAEXMPBD00@Z ; ioComplexStringPrinter::AddTextPiece

; 970  : 		}
; 971  : 		else

  008aa	eb 3c		 jmp	 SHORT $LN6@OnRender@3
$LN7@OnRender@3:

; 972  : 		{
; 973  : 			kPrinter.AddTextPiece( FONT_SIZE_12, STR(4), szMileage );

  008ac	8d 85 e8 fd ff
	ff		 lea	 eax, DWORD PTR _szMileage$[ebp]
  008b2	50		 push	 eax
  008b3	53		 push	 ebx
  008b4	6a 04		 push	 4
  008b6	68 00 00 00 00	 push	 OFFSET ??_C@_00CNPNBAHC@?$AA@
  008bb	68 00 00 00 00	 push	 OFFSET ??_C@_0BD@DBGNEGEL@LobbyWnd?3?3OnRender?$AA@
  008c0	ff 15 00 00 00
	00		 call	 DWORD PTR __imp_?GetSingleton@ioStringManager@@SAAAV1@XZ
  008c6	8b c8		 mov	 ecx, eax
  008c8	ff 15 00 00 00
	00		 call	 DWORD PTR __imp_?GetString@ioStringManager@@QAEPADPBD0HW4FileNamePrefix@1@@Z
  008ce	f3 0f 10 05 00
	00 00 00	 movss	 xmm0, DWORD PTR __real@3f19999a
  008d6	50		 push	 eax
  008d7	51		 push	 ecx
  008d8	8d 8d 98 f9 ff
	ff		 lea	 ecx, DWORD PTR _kPrinter$[ebp]
  008de	f3 0f 11 04 24	 movss	 DWORD PTR [esp], xmm0
  008e3	e8 00 00 00 00	 call	 ?AddTextPiece@ioComplexStringPrinter@@QAEXMPBD0@Z ; ioComplexStringPrinter::AddTextPiece
$LN6@OnRender@3:

; 974  : 		}
; 975  : 		kPrinter.SetTextColor( TCT_DEFAULT_LIGHTGRAY );		

  008e8	68 a7 a7 a7 ff	 push	 -5789785		; ffa7a7a7H
  008ed	8d 8d 98 f9 ff
	ff		 lea	 ecx, DWORD PTR _kPrinter$[ebp]
  008f3	e8 00 00 00 00	 call	 ?SetTextColor@ioComplexStringPrinter@@QAEXK@Z ; ioComplexStringPrinter::SetTextColor
$LN8@OnRender@3:

; 976  : 	}
; 977  : 
; 978  : 	kPrinter.PrintFullText( iXPos + X_OFFSET, iYPos + Y_OFFSET+iAdd_OffsetY, TAT_RIGHT );

  008f8	8b 8d d0 f9 ff
	ff		 mov	 ecx, DWORD PTR _iYPos$[ebp]
  008fe	8b 85 c0 f9 ff
	ff		 mov	 eax, DWORD PTR _iAdd_OffsetY$[ebp]
  00904	68 ff 00 00 00	 push	 255			; 000000ffH
  00909	8d 44 08 0f	 lea	 eax, DWORD PTR [eax+ecx+15]
  0090d	6a 02		 push	 2
  0090f	0f 57 c0	 xorps	 xmm0, xmm0
  00912	f3 0f 2a c0	 cvtsi2ss xmm0, eax
  00916	8b 85 c4 f9 ff
	ff		 mov	 eax, DWORD PTR _iXPos$[ebp]
  0091c	51		 push	 ecx
  0091d	51		 push	 ecx
  0091e	f3 0f 11 44 24
	04		 movss	 DWORD PTR [esp+4], xmm0
  00924	05 24 02 00 00	 add	 eax, 548		; 00000224H
  00929	0f 57 c0	 xorps	 xmm0, xmm0
  0092c	f3 0f 2a c0	 cvtsi2ss xmm0, eax
  00930	8d 8d 98 f9 ff
	ff		 lea	 ecx, DWORD PTR _kPrinter$[ebp]
  00936	f3 0f 11 04 24	 movss	 DWORD PTR [esp], xmm0
  0093b	e8 00 00 00 00	 call	 ?PrintFullText@ioComplexStringPrinter@@QAEXMMW4TextAlignType@@E@Z ; ioComplexStringPrinter::PrintFullText

; 979  : 	kPrinter.ClearList();

  00940	8d 8d 98 f9 ff
	ff		 lea	 ecx, DWORD PTR _kPrinter$[ebp]
  00946	e8 00 00 00 00	 call	 ?ClearList@ioComplexStringPrinter@@QAEXXZ ; ioComplexStringPrinter::ClearList

; 980  : 
; 981  : 
; 982  : #ifdef SHIPPING
; 983  : 	if( g_App.IsMeDeveloper() || g_App.IsMeGameMaster() )

  0094b	e8 00 00 00 00	 call	 ?GetSingleton@ioApplication@@SAAAV1@XZ ; ioApplication::GetSingleton
  00950	8b c8		 mov	 ecx, eax
  00952	e8 00 00 00 00	 call	 ?IsMeDeveloper@ioApplication@@QAE_NXZ ; ioApplication::IsMeDeveloper
  00957	84 c0		 test	 al, al
  00959	75 14		 jne	 SHORT $LN4@OnRender@3
  0095b	e8 00 00 00 00	 call	 ?GetSingleton@ioApplication@@SAAAV1@XZ ; ioApplication::GetSingleton
  00960	8b c8		 mov	 ecx, eax
  00962	e8 00 00 00 00	 call	 ?IsMeGameMaster@ioApplication@@QAE_NXZ ; ioApplication::IsMeGameMaster
  00967	84 c0		 test	 al, al
  00969	0f 84 02 01 00
	00		 je	 $LN5@OnRender@3
$LN4@OnRender@3:

; 984  : #endif 
; 985  : 	{
; 986  : 
; 987  : 		int iLicentDate = 0;

  0096f	89 9d c8 f9 ff
	ff		 mov	 DWORD PTR _iLicentDate$534024[ebp], ebx

; 988  : 		ioLocalParent *pLocal = g_LocalMgr.GetLocal( ioLocalManager::GetLocalType() );

  00975	ff 15 00 00 00
	00		 call	 DWORD PTR __imp_?GetLocalType@ioLocalManagerParent@@SA?AW4LocalType@1@XZ
  0097b	50		 push	 eax
  0097c	e8 00 00 00 00	 call	 ?GetSingleton@ioLocalManager@@SAAAV1@XZ ; ioLocalManager::GetSingleton
  00981	8b c8		 mov	 ecx, eax
  00983	e8 00 00 00 00	 call	 ?GetLocal@ioLocalManager@@QAEPAVioLocalParent@@W4LocalType@ioLocalManagerParent@@@Z ; ioLocalManager::GetLocal

; 989  : 		if( pLocal )

  00988	3b c3		 cmp	 eax, ebx
  0098a	74 10		 je	 SHORT $LN3@OnRender@3

; 990  : 		{
; 991  : 			iLicentDate = pLocal->GetLicenseDate();

  0098c	8b 10		 mov	 edx, DWORD PTR [eax]
  0098e	8b c8		 mov	 ecx, eax
  00990	ff 92 d0 00 00
	00		 call	 DWORD PTR [edx+208]
  00996	89 85 c8 f9 ff
	ff		 mov	 DWORD PTR _iLicentDate$534024[ebp], eax
$LN3@OnRender@3:

; 992  : 		}
; 993  : 
; 994  : 		g_FontMgr.SetAlignType( TAT_RIGHT );

  0099c	6a 02		 push	 2
  0099e	ff d6		 call	 esi
  009a0	8b c8		 mov	 ecx, eax
  009a2	ff 15 00 00 00
	00		 call	 DWORD PTR __imp_?SetAlignType@ioFontManager@@QAEXW4TextAlignType@@@Z

; 995  : 		g_FontMgr.SetTextStyle( TS_NORMAL );

  009a8	53		 push	 ebx
  009a9	ff d6		 call	 esi
  009ab	8b c8		 mov	 ecx, eax
  009ad	ff 15 00 00 00
	00		 call	 DWORD PTR __imp_?SetTextStyle@ioFontManager@@QAEXW4TextStyle@@@Z

; 996  : 		g_FontMgr.SetBkColor( 0, 0, 0 );

  009b3	53		 push	 ebx
  009b4	53		 push	 ebx
  009b5	53		 push	 ebx
  009b6	ff d6		 call	 esi
  009b8	8b c8		 mov	 ecx, eax
  009ba	ff 15 00 00 00
	00		 call	 DWORD PTR __imp_?SetBkColor@ioFontManager@@QAEXHHH@Z

; 997  : 		g_FontMgr.SetTextColor( 0, 0, 0 );

  009c0	53		 push	 ebx
  009c1	53		 push	 ebx
  009c2	53		 push	 ebx
  009c3	ff d6		 call	 esi
  009c5	8b c8		 mov	 ecx, eax
  009c7	ff 15 00 00 00
	00		 call	 DWORD PTR __imp_?SetTextColor@ioFontManager@@QAEXHHH@Z

; 998  : 		char szText[MAX_PATH]="";

  009cd	57		 push	 edi
  009ce	8d 85 e1 fb ff
	ff		 lea	 eax, DWORD PTR _szText$534027[ebp+1]
  009d4	53		 push	 ebx
  009d5	50		 push	 eax
  009d6	88 9d e0 fb ff
	ff		 mov	 BYTE PTR _szText$534027[ebp], bl
  009dc	e8 00 00 00 00	 call	 _memset

; 999  : 		StringCbPrintf( szText, sizeof( szText ), "Version : %d | %s | %d", FILEVER, STRINTERNALNAME, iLicentDate); //Except Extracting Hangeul

  009e1	ff b5 c8 f9 ff
	ff		 push	 DWORD PTR _iLicentDate$534024[ebp]
  009e7	8d 85 e0 fb ff
	ff		 lea	 eax, DWORD PTR _szText$534027[ebp]
  009ed	68 00 00 00 00	 push	 OFFSET ??_C@_0BE@ICLMMBDD@2014?101?110?516?323?320?$AA@
  009f2	68 3d 32 00 00	 push	 12861			; 0000323dH
  009f7	68 00 00 00 00	 push	 OFFSET ??_C@_0BH@IDPOOKAJ@Version?5?3?5?$CFd?5?$HM?5?$CFs?5?$HM?5?$CFd?$AA@
  009fc	68 04 01 00 00	 push	 260			; 00000104H
  00a01	50		 push	 eax
  00a02	e8 00 00 00 00	 call	 ?StringCbPrintfA@@YAJPADIPBDZZ ; StringCbPrintfA

; 1000 : 		g_FontMgr.PrintText( iXPos + GetWidth()-5, iYPos + GetHeight()-18, FONT_SIZE_12, szText  ); 

  00a07	f3 0f 10 05 00
	00 00 00	 movss	 xmm0, DWORD PTR __real@3f19999a
  00a0f	83 c4 24	 add	 esp, 36			; 00000024H
  00a12	8d 85 e0 fb ff
	ff		 lea	 eax, DWORD PTR _szText$534027[ebp]
  00a18	50		 push	 eax
  00a19	51		 push	 ecx
  00a1a	8b 8d b8 f9 ff
	ff		 mov	 ecx, DWORD PTR _this$GSCopy$[ebp]
  00a20	f3 0f 11 04 24	 movss	 DWORD PTR [esp], xmm0
  00a25	ff 15 00 00 00
	00		 call	 DWORD PTR __imp_?GetHeight@ioWnd@@QBEHXZ
  00a2b	8b 8d d0 f9 ff
	ff		 mov	 ecx, DWORD PTR _iYPos$[ebp]
  00a31	8d 44 08 ee	 lea	 eax, DWORD PTR [eax+ecx-18]
  00a35	51		 push	 ecx
  00a36	8b 8d b8 f9 ff
	ff		 mov	 ecx, DWORD PTR _this$GSCopy$[ebp]
  00a3c	0f 57 c0	 xorps	 xmm0, xmm0
  00a3f	f3 0f 2a c0	 cvtsi2ss xmm0, eax
  00a43	f3 0f 11 04 24	 movss	 DWORD PTR [esp], xmm0
  00a48	ff 15 00 00 00
	00		 call	 DWORD PTR __imp_?GetWidth@ioWnd@@QBEHXZ
  00a4e	8b 8d c4 f9 ff
	ff		 mov	 ecx, DWORD PTR _iXPos$[ebp]
  00a54	8d 44 08 fb	 lea	 eax, DWORD PTR [eax+ecx-5]
  00a58	0f 57 c0	 xorps	 xmm0, xmm0
  00a5b	51		 push	 ecx
  00a5c	f3 0f 2a c0	 cvtsi2ss xmm0, eax
  00a60	f3 0f 11 04 24	 movss	 DWORD PTR [esp], xmm0
  00a65	ff d6		 call	 esi
  00a67	50		 push	 eax
  00a68	ff 15 00 00 00
	00		 call	 DWORD PTR __imp_?PrintText@ioFontManager@@QAAXMMMPBDZZ
  00a6e	83 c4 14	 add	 esp, 20			; 00000014H
$LN5@OnRender@3:

; 1001 : 	}
; 1002 : 
; 1003 : 	if ( m_pParent )

  00a71	8b 85 b8 f9 ff
	ff		 mov	 eax, DWORD PTR _this$GSCopy$[ebp]
  00a77	8b 48 40	 mov	 ecx, DWORD PTR [eax+64]
  00a7a	3b cb		 cmp	 ecx, ebx
  00a7c	74 34		 je	 SHORT $LN1@OnRender@3

; 1004 : 	{
; 1005 : 		ioWnd* pBonusCashToolTip = m_pParent->FindChildWnd( LobbyMainWnd::ID_BONUS_CASH_TOOLTIP );

  00a7e	68 f9 01 00 00	 push	 505			; 000001f9H
  00a83	ff 15 00 00 00
	00		 call	 DWORD PTR __imp_?FindChildWnd@ioWnd@@QAEPAV1@K@Z
  00a89	8b f0		 mov	 esi, eax

; 1006 : 		if ( pBonusCashToolTip && pBonusCashToolTip->IsShow() )

  00a8b	3b f3		 cmp	 esi, ebx
  00a8d	74 23		 je	 SHORT $LN1@OnRender@3
  00a8f	8b ce		 mov	 ecx, esi
  00a91	ff 15 00 00 00
	00		 call	 DWORD PTR __imp_?IsShow@ioWnd@@QBE_NXZ
  00a97	84 c0		 test	 al, al
  00a99	74 17		 je	 SHORT $LN1@OnRender@3

; 1007 : 			pBonusCashToolTip->SetWndPos( X_OFFSET2 - X_BONUS_CASH_TOOLTIP_OFFSET, Y_OFFSET-iAdd_OffsetY - Y_BONUS_CASH_TOOLTIP_OFFSET );

  00a9b	6a f9		 push	 -7			; fffffff9H
  00a9d	58		 pop	 eax
  00a9e	2b 85 c0 f9 ff
	ff		 sub	 eax, DWORD PTR _iAdd_OffsetY$[ebp]
  00aa4	8b ce		 mov	 ecx, esi
  00aa6	50		 push	 eax
  00aa7	68 d5 01 00 00	 push	 469			; 000001d5H
  00aac	ff 15 00 00 00
	00		 call	 DWORD PTR __imp_?SetWndPos@ioWnd@@QAEXHH@Z
$LN1@OnRender@3:

; 1008 : 	}
; 1009 : }

  00ab2	83 4d fc ff	 or	 DWORD PTR __$EHRec$[ebp+8], -1
  00ab6	8d 8d 98 f9 ff
	ff		 lea	 ecx, DWORD PTR _kPrinter$[ebp]
  00abc	e8 00 00 00 00	 call	 ??1ioComplexStringPrinter@@QAE@XZ ; ioComplexStringPrinter::~ioComplexStringPrinter
  00ac1	e8 00 00 00 00	 call	 __EH_epilog3_GS
  00ac6	c3		 ret	 0
_TEXT	ENDS
;	COMDAT text$x
text$x	SEGMENT
__unwindfunclet$?OnRender@LobbyWnd@@MAEXXZ$0:
  00000	8d 8d 98 f9 ff
	ff		 lea	 ecx, DWORD PTR _kPrinter$[ebp]
  00006	e9 00 00 00 00	 jmp	 ??1ioComplexStringPrinter@@QAE@XZ ; ioComplexStringPrinter::~ioComplexStringPrinter
__ehhandler$?OnRender@LobbyWnd@@MAEXXZ:
  0000b	8b 54 24 08	 mov	 edx, DWORD PTR [esp+8]
  0000f	8d 42 0c	 lea	 eax, DWORD PTR [edx+12]
  00012	8b 8a 94 f9 ff
	ff		 mov	 ecx, DWORD PTR [edx-1644]
  00018	33 c8		 xor	 ecx, eax
  0001a	e8 00 00 00 00	 call	 @__security_check_cookie@4
  0001f	8b 4a fc	 mov	 ecx, DWORD PTR [edx-4]
  00022	33 c8		 xor	 ecx, eax
  00024	e8 00 00 00 00	 call	 @__security_check_cookie@4
  00029	b8 00 00 00 00	 mov	 eax, OFFSET __ehfuncinfo$?OnRender@LobbyWnd@@MAEXXZ
  0002e	e9 00 00 00 00	 jmp	 ___CxxFrameHandler3
text$x	ENDS
?OnRender@LobbyWnd@@MAEXXZ ENDP				; LobbyWnd::OnRender
PUBLIC	__$ArrayPad$
EXTRN	__imp_??4ioHashString@@QAEAAV0@PBD@Z:PROC
; Function compile flags: /Ogsp
;	COMDAT ?ParseExtraInfo@LobbyChatWnd@@UAEXAAVioXMLElement@@@Z
_TEXT	SEGMENT
__k$541293 = -20					; size = 9
__$ArrayPad$ = -4					; size = 4
_xElement$ = 8						; size = 4
?ParseExtraInfo@LobbyChatWnd@@UAEXAAVioXMLElement@@@Z PROC ; LobbyChatWnd::ParseExtraInfo, COMDAT
; _this$ = ecx

; 1288 : {

  00000	55		 push	 ebp
  00001	8b ec		 mov	 ebp, esp
  00003	83 ec 14	 sub	 esp, 20			; 00000014H
  00006	a1 00 00 00 00	 mov	 eax, DWORD PTR ___security_cookie
  0000b	33 c5		 xor	 eax, ebp
  0000d	89 45 fc	 mov	 DWORD PTR __$ArrayPad$[ebp], eax
  00010	56		 push	 esi

; 1289 : 	m_szLoadInfo = xElement.GetStringAttribute_e( "LoadInfo" );		

  00011	6a 02		 push	 2
  00013	8b f1		 mov	 esi, ecx
  00015	8b 4d 08	 mov	 ecx, DWORD PTR _xElement$[ebp]
  00018	c7 45 ec a1 83
	8a 8e		 mov	 DWORD PTR __k$541293[ebp], -1903524959 ; 8e8a83a1H
  0001f	c7 45 f0 a4 82
	8d 85		 mov	 DWORD PTR __k$541293[ebp+4], -2054323548 ; 858d82a4H
  00026	8d 45 ec	 lea	 eax, DWORD PTR __k$541293[ebp]
  00029	c6 45 f4 00	 mov	 BYTE PTR __k$541293[ebp+8], 0
  0002d	5a		 pop	 edx
$LL106@ParseExtra@2:
  0002e	81 30 ed ec eb
	ea		 xor	 DWORD PTR [eax], -353637139 ; eaebecedH
  00034	83 c0 04	 add	 eax, 4
  00037	4a		 dec	 edx
  00038	75 f4		 jne	 SHORT $LL106@ParseExtra@2
  0003a	8d 45 ec	 lea	 eax, DWORD PTR __k$541293[ebp]
  0003d	50		 push	 eax
  0003e	ff 15 00 00 00
	00		 call	 DWORD PTR __imp_?GetStringAttribute@ioXMLElement@@QBEPBDPBD@Z
  00044	50		 push	 eax
  00045	8d 8e 60 01 00
	00		 lea	 ecx, DWORD PTR [esi+352]
  0004b	ff 15 00 00 00
	00		 call	 DWORD PTR __imp_??4ioHashString@@QAEAAV0@PBD@Z

; 1290 : }

  00051	8b 4d fc	 mov	 ecx, DWORD PTR __$ArrayPad$[ebp]
  00054	33 cd		 xor	 ecx, ebp
  00056	5e		 pop	 esi
  00057	e8 00 00 00 00	 call	 @__security_check_cookie@4
  0005c	c9		 leave
  0005d	c2 04 00	 ret	 4
?ParseExtraInfo@LobbyChatWnd@@UAEXAAVioXMLElement@@@Z ENDP ; LobbyChatWnd::ParseExtraInfo
_TEXT	ENDS
PUBLIC	__$ArrayPad$
; Function compile flags: /Ogsp
;	COMDAT ?ParseExtraInfo@LobbyMainWnd@@UAEXAAVioXMLElement@@@Z
_TEXT	SEGMENT
__k$541567 = -52					; size = 30
__k$541426 = -16					; size = 8
__$ArrayPad$ = -4					; size = 4
_xElement$ = 8						; size = 4
?ParseExtraInfo@LobbyMainWnd@@UAEXAAVioXMLElement@@@Z PROC ; LobbyMainWnd::ParseExtraInfo, COMDAT
; _this$ = ecx

; 1380 : {

  00000	55		 push	 ebp
  00001	8b ec		 mov	 ebp, esp
  00003	83 ec 34	 sub	 esp, 52			; 00000034H
  00006	a1 00 00 00 00	 mov	 eax, DWORD PTR ___security_cookie
  0000b	33 c5		 xor	 eax, ebp
  0000d	89 45 fc	 mov	 DWORD PTR __$ArrayPad$[ebp], eax
  00010	53		 push	 ebx
  00011	56		 push	 esi
  00012	57		 push	 edi
  00013	8b 7d 08	 mov	 edi, DWORD PTR _xElement$[ebp]

; 1381 : 	m_szBackOgg = xElement.GetStringAttribute_e( "BackOGG" );

  00016	bb ed ec eb ea	 mov	 ebx, -353637139		; eaebecedH
  0001b	6a 04		 push	 4
  0001d	c7 45 f0 af 8d
	88 81		 mov	 DWORD PTR __k$541426[ebp], -2121757265 ; 81888dafH
  00024	31 5d f0	 xor	 DWORD PTR __k$541426[ebp], ebx
  00027	8b f1		 mov	 esi, ecx
  00029	c7 45 f4 a2 ab
	ac 00		 mov	 DWORD PTR __k$541426[ebp+4], 11316130 ; 00acaba2H
  00030	58		 pop	 eax
$LL103@ParseExtra@3:
  00031	8b c8		 mov	 ecx, eax
  00033	81 e1 03 00 00
	80		 and	 ecx, -2147483645	; 80000003H
  00039	79 05		 jns	 SHORT $LN223@ParseExtra@3
  0003b	49		 dec	 ecx
  0003c	83 c9 fc	 or	 ecx, -4			; fffffffcH
  0003f	41		 inc	 ecx
$LN223@ParseExtra@3:
  00040	b2 ed		 mov	 dl, -19			; ffffffedH
  00042	2a d1		 sub	 dl, cl
  00044	30 54 05 f0	 xor	 BYTE PTR __k$541426[ebp+eax], dl
  00048	40		 inc	 eax
  00049	83 f8 07	 cmp	 eax, 7
  0004c	7c e3		 jl	 SHORT $LL103@ParseExtra@3
  0004e	8d 45 f0	 lea	 eax, DWORD PTR __k$541426[ebp]
  00051	50		 push	 eax
  00052	8b cf		 mov	 ecx, edi
  00054	ff 15 00 00 00
	00		 call	 DWORD PTR __imp_?GetStringAttribute@ioXMLElement@@QBEPBDPBD@Z
  0005a	50		 push	 eax
  0005b	8d 8e 4c 02 00
	00		 lea	 ecx, DWORD PTR [esi+588]
  00061	ff 15 00 00 00
	00		 call	 DWORD PTR __imp_??4ioHashString@@QAEAAV0@PBD@Z
  00067	6a 07		 push	 7

; 1382 : 	m_dwBonusCashTooltipCheckDuration = (DWORD)xElement.GetIntAttribute_e( "BonusCashTooltipCheckDuration" );

  00069	c7 45 cc af 83
	85 9f		 mov	 DWORD PTR __k$541567[ebp], -1618639953 ; 9f8583afH
  00070	c7 45 d0 9e af
	8a 99		 mov	 DWORD PTR __k$541567[ebp+4], -1718964322 ; 998aaf9eH
  00077	c7 45 d4 85 b8
	84 85		 mov	 DWORD PTR __k$541567[ebp+8], -2054899579 ; 8584b885H
  0007e	c7 45 d8 81 98
	82 9a		 mov	 DWORD PTR __k$541567[ebp+12], -1702717311 ; 9a829881H
  00085	c7 45 dc ae 84
	8e 89		 mov	 DWORD PTR __k$541567[ebp+16], -1987148626 ; 898e84aeH
  0008c	c7 45 e0 86 a8
	9e 98		 mov	 DWORD PTR __k$541567[ebp+20], -1734432634 ; 989ea886H
  00093	c7 45 e4 8c 98
	82 85		 mov	 DWORD PTR __k$541567[ebp+24], -2055038836 ; 8582988cH
  0009a	8d 45 cc	 lea	 eax, DWORD PTR __k$541567[ebp]
  0009d	66 c7 45 e8 83
	00		 mov	 WORD PTR __k$541567[ebp+28], 131 ; 00000083H
  000a3	59		 pop	 ecx
$LL212@ParseExtra@3:
  000a4	31 18		 xor	 DWORD PTR [eax], ebx
  000a6	83 c0 04	 add	 eax, 4
  000a9	49		 dec	 ecx
  000aa	75 f8		 jne	 SHORT $LL212@ParseExtra@3
  000ac	80 75 e8 ed	 xor	 BYTE PTR __k$541567[ebp+28], -19 ; ffffffedH
  000b0	8d 45 cc	 lea	 eax, DWORD PTR __k$541567[ebp]
  000b3	50		 push	 eax
  000b4	8b cf		 mov	 ecx, edi
  000b6	ff 15 00 00 00
	00		 call	 DWORD PTR __imp_?GetIntAttribute@ioXMLElement@@QBEHPBD@Z

; 1383 : }

  000bc	8b 4d fc	 mov	 ecx, DWORD PTR __$ArrayPad$[ebp]
  000bf	5f		 pop	 edi
  000c0	89 86 60 02 00
	00		 mov	 DWORD PTR [esi+608], eax
  000c6	5e		 pop	 esi
  000c7	33 cd		 xor	 ecx, ebp
  000c9	5b		 pop	 ebx
  000ca	e8 00 00 00 00	 call	 @__security_check_cookie@4
  000cf	c9		 leave
  000d0	c2 04 00	 ret	 4
?ParseExtraInfo@LobbyMainWnd@@UAEXAAVioXMLElement@@@Z ENDP ; LobbyMainWnd::ParseExtraInfo
_TEXT	ENDS
EXTRN	?SetTooltipText@GlobalTextTooltip@@QAEXPAVioComplexStringPrinter@@@Z:PROC ; GlobalTextTooltip::SetTooltipText
; Function compile flags: /Ogsp
;	COMDAT ?iwm_command@LobbyMainWnd@@UAEXPAVioWnd@@HK@Z
_TEXT	SEGMENT
_pWnd$ = 8						; size = 4
_cmd$ = 12						; size = 4
_param$ = 16						; size = 4
?iwm_command@LobbyMainWnd@@UAEXPAVioWnd@@HK@Z PROC	; LobbyMainWnd::iwm_command, COMDAT
; _this$ = ecx

; 1515 : {

  00000	55		 push	 ebp
  00001	8b ec		 mov	 ebp, esp
  00003	56		 push	 esi
  00004	8b f1		 mov	 esi, ecx

; 1516 : 	DWORD dwID = pWnd->GetID();

  00006	8b 4d 08	 mov	 ecx, DWORD PTR _pWnd$[ebp]
  00009	ff 15 00 00 00
	00		 call	 DWORD PTR __imp_?GetID@ioWnd@@QBEKXZ

; 1517 : 
; 1518 : 	switch( dwID )

  0000f	48		 dec	 eax
  00010	74 59		 je	 SHORT $LN8@iwm_comman@3
  00012	2d f6 01 00 00	 sub	 eax, 502		; 000001f6H
  00017	75 62		 jne	 SHORT $LN7@iwm_comman@3

; 1524 : 		}
; 1525 : 		break;	
; 1526 : 
; 1527 : 	case ID_NOVICE_BUTTON:
; 1528 : 		if(cmd == IOWN_OVERED)

  00019	83 7d 0c 04	 cmp	 DWORD PTR _cmd$[ebp], 4
  0001d	75 26		 jne	 SHORT $LN5@iwm_comman@3

; 1529 : 		{
; 1530 : 			/// 툴팁 추가하기.
; 1531 : 			GlobalTextTooltip *pTooltip = static_cast<GlobalTextTooltip*>(g_GUIMgr.FindWnd( ITEM_CUSTOM_INFO_TOOLTIP_WND ));

  0001f	68 1d 18 00 00	 push	 6173			; 0000181dH
  00024	e8 00 00 00 00	 call	 ?GetSingleton@ioSP2GUIManager@@SAAAV1@XZ ; ioSP2GUIManager::GetSingleton
  00029	8b c8		 mov	 ecx, eax
  0002b	ff 15 00 00 00
	00		 call	 DWORD PTR __imp_?FindWnd@ioGUIManager@@QAEPAVioWnd@@K@Z

; 1532 : 			if( pTooltip )

  00031	85 c0		 test	 eax, eax
  00033	74 46		 je	 SHORT $LN7@iwm_comman@3

; 1533 : 			{
; 1534 : 				pTooltip->SetTooltipText( m_spNovicePrinter );

  00035	81 c6 ac 01 00
	00		 add	 esi, 428		; 000001acH
  0003b	56		 push	 esi
  0003c	8b c8		 mov	 ecx, eax
  0003e	e8 00 00 00 00	 call	 ?SetTooltipText@GlobalTextTooltip@@QAEXPAVioComplexStringPrinter@@@Z ; GlobalTextTooltip::SetTooltipText

; 1535 : 			}
; 1536 : 		}

  00043	eb 36		 jmp	 SHORT $LN7@iwm_comman@3
$LN5@iwm_comman@3:

; 1537 : 		else if(cmd == IOWN_LEAVED)

  00045	83 7d 0c 03	 cmp	 DWORD PTR _cmd$[ebp], 3
  00049	75 30		 jne	 SHORT $LN7@iwm_comman@3

; 1538 : 		{
; 1539 : 			//ioLSMouse *pMouse = g_App.GetMouse();
; 1540 : 			//if( !pMouse )
; 1541 : 			//	return;
; 1542 : 			//// 툴팁제거
; 1543 : 			//pMouse->SetToolTipWndID(0);
; 1544 : 			//pMouse->SetToolTipCursor();
; 1545 : 			GlobalTextTooltip *pTooltip = static_cast<GlobalTextTooltip*>(g_GUIMgr.FindWnd( ITEM_CUSTOM_INFO_TOOLTIP_WND ));

  0004b	68 1d 18 00 00	 push	 6173			; 0000181dH
  00050	e8 00 00 00 00	 call	 ?GetSingleton@ioSP2GUIManager@@SAAAV1@XZ ; ioSP2GUIManager::GetSingleton
  00055	8b c8		 mov	 ecx, eax
  00057	ff 15 00 00 00
	00		 call	 DWORD PTR __imp_?FindWnd@ioGUIManager@@QAEPAVioWnd@@K@Z

; 1546 : 			if( pTooltip )

  0005d	85 c0		 test	 eax, eax
  0005f	74 1a		 je	 SHORT $LN7@iwm_comman@3

; 1547 : 			{
; 1548 : 				pTooltip->HideWnd();

  00061	8b c8		 mov	 ecx, eax
  00063	ff 15 00 00 00
	00		 call	 DWORD PTR __imp_?HideWnd@ioWnd@@QAEXXZ

; 1549 : 			}
; 1550 : 		}
; 1551 : 		break;

  00069	eb 10		 jmp	 SHORT $LN7@iwm_comman@3
$LN8@iwm_comman@3:

; 1519 : 	{
; 1520 : 	case ID_LOBBY_WND:
; 1521 : 		if( cmd == IOBN_BTNDOWN )

  0006b	83 7d 0c 10	 cmp	 DWORD PTR _cmd$[ebp], 16 ; 00000010H
  0006f	75 0a		 jne	 SHORT $LN7@iwm_comman@3

; 1522 : 		{
; 1523 : 			CmdMainTab( param );

  00071	ff 75 10	 push	 DWORD PTR _param$[ebp]
  00074	8b ce		 mov	 ecx, esi
  00076	e8 00 00 00 00	 call	 ?CmdMainTab@LobbyMainWnd@@IAEXK@Z ; LobbyMainWnd::CmdMainTab
$LN7@iwm_comman@3:
  0007b	5e		 pop	 esi

; 1552 : 	}
; 1553 : }

  0007c	5d		 pop	 ebp
  0007d	c2 0c 00	 ret	 12			; 0000000cH
?iwm_command@LobbyMainWnd@@UAEXPAVioWnd@@HK@Z ENDP	; LobbyMainWnd::iwm_command
_TEXT	ENDS
EXTRN	__imp_?IsMoving@ioMovingWnd@@QAE_NXZ:PROC
EXTRN	?IsDragMove@ioSP2GUIManager@@QBE_NK@Z:PROC	; ioSP2GUIManager::IsDragMove
EXTRN	__imp_?OnProcess@ioWnd@@MAEXM@Z:PROC
; Function compile flags: /Ogsp
;	COMDAT ?OnProcess@LobbyMainWnd@@MAEXM@Z
_TEXT	SEGMENT
_fTimePerSec$ = 8					; size = 4
?OnProcess@LobbyMainWnd@@MAEXM@Z PROC			; LobbyMainWnd::OnProcess, COMDAT
; _this$ = ecx

; 1723 : {

  00000	55		 push	 ebp
  00001	8b ec		 mov	 ebp, esp
  00003	56		 push	 esi
  00004	8b f1		 mov	 esi, ecx

; 1724 : 	if( !IsShow() ) return;

  00006	ff 15 00 00 00
	00		 call	 DWORD PTR __imp_?IsShow@ioWnd@@QBE_NXZ
  0000c	84 c0		 test	 al, al
  0000e	0f 84 c6 00 00
	00		 je	 $LN8@OnProcess@2

; 1725 : 
; 1726 : 	ioMovingWnd::OnProcess( fTimePerSec );

  00014	f3 0f 10 45 08	 movss	 xmm0, DWORD PTR _fTimePerSec$[ebp]
  00019	51		 push	 ecx
  0001a	8b ce		 mov	 ecx, esi
  0001c	f3 0f 11 04 24	 movss	 DWORD PTR [esp], xmm0
  00021	ff 15 00 00 00
	00		 call	 DWORD PTR __imp_?OnProcess@ioWnd@@MAEXM@Z

; 1727 : 	if( g_GUIMgr.IsDragMove( m_dwID ) || IsMoving() )

  00027	ff 76 14	 push	 DWORD PTR [esi+20]
  0002a	e8 00 00 00 00	 call	 ?GetSingleton@ioSP2GUIManager@@SAAAV1@XZ ; ioSP2GUIManager::GetSingleton
  0002f	8b c8		 mov	 ecx, eax
  00031	e8 00 00 00 00	 call	 ?IsDragMove@ioSP2GUIManager@@QBE_NK@Z ; ioSP2GUIManager::IsDragMove
  00036	84 c0		 test	 al, al
  00038	75 10		 jne	 SHORT $LN5@OnProcess@2
  0003a	8b ce		 mov	 ecx, esi
  0003c	ff 15 00 00 00
	00		 call	 DWORD PTR __imp_?IsMoving@ioMovingWnd@@QAE_NXZ
  00042	84 c0		 test	 al, al
  00044	0f 84 89 00 00
	00		 je	 $LN1@OnProcess@2
$LN5@OnProcess@2:
  0004a	53		 push	 ebx
  0004b	57		 push	 edi

; 1728 : 	{
; 1729 : 		if( m_iDefaultX != GetXPos() )

  0004c	8b ce		 mov	 ecx, esi
  0004e	ff 15 00 00 00
	00		 call	 DWORD PTR __imp_?GetXPos@ioWnd@@QBEHXZ
  00054	33 db		 xor	 ebx, ebx
  00056	43		 inc	 ebx
  00057	39 86 90 01 00
	00		 cmp	 DWORD PTR [esi+400], eax
  0005d	74 39		 je	 SHORT $LN3@OnProcess@2

; 1730 : 		{
; 1731 : 			if( COMPARE( GetXPos(), 0, (Setting::Width() - GetWidth() ) + 1 ) )

  0005f	8b ce		 mov	 ecx, esi
  00061	ff 15 00 00 00
	00		 call	 DWORD PTR __imp_?GetXPos@ioWnd@@QBEHXZ
  00067	85 c0		 test	 eax, eax
  00069	78 2d		 js	 SHORT $LN3@OnProcess@2
  0006b	8b ce		 mov	 ecx, esi
  0006d	ff 15 00 00 00
	00		 call	 DWORD PTR __imp_?GetWidth@ioWnd@@QBEHXZ
  00073	8b fb		 mov	 edi, ebx
  00075	2b f8		 sub	 edi, eax
  00077	e8 00 00 00 00	 call	 ?Width@Setting@@SAHXZ	; Setting::Width
  0007c	8b ce		 mov	 ecx, esi
  0007e	03 f8		 add	 edi, eax
  00080	ff 15 00 00 00
	00		 call	 DWORD PTR __imp_?GetXPos@ioWnd@@QBEHXZ
  00086	3b c7		 cmp	 eax, edi
  00088	7d 0e		 jge	 SHORT $LN3@OnProcess@2

; 1732 : 				m_iDefaultX = GetXPos();

  0008a	8b ce		 mov	 ecx, esi
  0008c	ff 15 00 00 00
	00		 call	 DWORD PTR __imp_?GetXPos@ioWnd@@QBEHXZ
  00092	89 86 90 01 00
	00		 mov	 DWORD PTR [esi+400], eax
$LN3@OnProcess@2:

; 1733 : 		}
; 1734 : 
; 1735 : 		if( m_iDefaultY != GetYPos() )

  00098	8b ce		 mov	 ecx, esi
  0009a	ff 15 00 00 00
	00		 call	 DWORD PTR __imp_?GetYPos@ioWnd@@QBEHXZ
  000a0	39 86 94 01 00
	00		 cmp	 DWORD PTR [esi+404], eax
  000a6	74 29		 je	 SHORT $LN10@OnProcess@2

; 1736 : 		{
; 1737 : 			int iYPos = GetYPos();

  000a8	8b ce		 mov	 ecx, esi
  000aa	ff 15 00 00 00
	00		 call	 DWORD PTR __imp_?GetYPos@ioWnd@@QBEHXZ
  000b0	8b f8		 mov	 edi, eax

; 1738 : 			if( COMPARE( iYPos, 0, (Setting::Height() - GetHeight() ) + 1 ) )

  000b2	85 ff		 test	 edi, edi
  000b4	78 1b		 js	 SHORT $LN10@OnProcess@2
  000b6	8b ce		 mov	 ecx, esi
  000b8	ff 15 00 00 00
	00		 call	 DWORD PTR __imp_?GetHeight@ioWnd@@QBEHXZ
  000be	2b d8		 sub	 ebx, eax
  000c0	e8 00 00 00 00	 call	 ?Height@Setting@@SAHXZ	; Setting::Height
  000c5	03 c3		 add	 eax, ebx
  000c7	3b f8		 cmp	 edi, eax
  000c9	7d 06		 jge	 SHORT $LN10@OnProcess@2

; 1739 : 				m_iDefaultY = iYPos;

  000cb	89 be 94 01 00
	00		 mov	 DWORD PTR [esi+404], edi
$LN10@OnProcess@2:
  000d1	5f		 pop	 edi
  000d2	5b		 pop	 ebx
$LN1@OnProcess@2:

; 1740 : 		}
; 1741 : 	}
; 1742 : 
; 1743 : 	CheckBonusCashTooltip();

  000d3	8b ce		 mov	 ecx, esi
  000d5	e8 00 00 00 00	 call	 ?CheckBonusCashTooltip@LobbyMainWnd@@IAEXXZ ; LobbyMainWnd::CheckBonusCashTooltip
$LN8@OnProcess@2:
  000da	5e		 pop	 esi

; 1744 : }

  000db	5d		 pop	 ebp
  000dc	c2 04 00	 ret	 4
?OnProcess@LobbyMainWnd@@MAEXM@Z ENDP			; LobbyMainWnd::OnProcess
_TEXT	ENDS
END
