; Listing generated by Microsoft (R) Optimizing Compiler Version 16.00.30319.01 

	TITLE	D:\Lost Saga For Developer\Youtube\Tutorial\Source\src\LSClient\GUI\MercenaryInfoWnd.cpp
	.686P
	.XMM
	include listing.inc
	.model	flat

INCLUDELIB MSVCRT
INCLUDELIB OLDNAMES

PUBLIC	??_7MercenaryInfoWndBase@@6B@			; MercenaryInfoWndBase::`vftable'
PUBLIC	??0MercenaryInfoWndBase@@QAE@XZ			; MercenaryInfoWndBase::MercenaryInfoWndBase
PUBLIC	??_R4MercenaryInfoWndBase@@6B@			; MercenaryInfoWndBase::`RTTI Complete Object Locator'
PUBLIC	??_R0?AVMercenaryInfoWndBase@@@8		; MercenaryInfoWndBase `RTTI Type Descriptor'
PUBLIC	??_R3MercenaryInfoWndBase@@8			; MercenaryInfoWndBase::`RTTI Class Hierarchy Descriptor'
PUBLIC	??_R2MercenaryInfoWndBase@@8			; MercenaryInfoWndBase::`RTTI Base Class Array'
PUBLIC	??_R1A@?0A@EA@MercenaryInfoWndBase@@8		; MercenaryInfoWndBase::`RTTI Base Class Descriptor at (0,-1,0,64)'
PUBLIC	??_R1A@?0A@EA@ioWndEX@@8			; ioWndEX::`RTTI Base Class Descriptor at (0,-1,0,64)'
PUBLIC	??_R0?AVioWndEX@@@8				; ioWndEX `RTTI Type Descriptor'
PUBLIC	??_R3ioWndEX@@8					; ioWndEX::`RTTI Class Hierarchy Descriptor'
PUBLIC	??_R2ioWndEX@@8					; ioWndEX::`RTTI Base Class Array'
PUBLIC	??_R1A@?0A@EA@ioWnd@@8				; ioWnd::`RTTI Base Class Descriptor at (0,-1,0,64)'
PUBLIC	??_R0?AVioWnd@@@8				; ioWnd `RTTI Type Descriptor'
PUBLIC	??_R3ioWnd@@8					; ioWnd::`RTTI Class Hierarchy Descriptor'
PUBLIC	??_R2ioWnd@@8					; ioWnd::`RTTI Base Class Array'
PUBLIC	?iwm_create@MercenaryInfoWndBase@@UAEXXZ	; MercenaryInfoWndBase::iwm_create
PUBLIC	?iwm_destroy@MercenaryInfoWndBase@@UAEXXZ	; MercenaryInfoWndBase::iwm_destroy
PUBLIC	?OnClickBuy@MercenaryInfoWndBase@@UAEXPAVioWndEX@@AAVioWndEXMouseEvent@@@Z ; MercenaryInfoWndBase::OnClickBuy
PUBLIC	?OnClickClose@MercenaryInfoWndBase@@UAEXPAVioWndEX@@AAVioWndEXMouseEvent@@@Z ; MercenaryInfoWndBase::OnClickClose
EXTRN	__imp_??0ioWndEX@@QAE@XZ:PROC
EXTRN	??_7type_info@@6B@:QWORD			; type_info::`vftable'
EXTRN	?AddRenderFrame@ioWnd@@UAEXABVioHashString@@PAVioUIRenderFrame@@@Z:PROC ; ioWnd::AddRenderFrame
EXTRN	?AddRenderImage@ioWnd@@UAEXABVioHashString@@PAVioUIRenderImage@@@Z:PROC ; ioWnd::AddRenderImage
EXTRN	?AddTooltipHelp@ioWnd@@UAEXABVioHashString@@00@Z:PROC ; ioWnd::AddTooltipHelp
EXTRN	?ParseExtraInfo@ioWndEX@@UAEXAAVioXMLElement@@@Z:PROC ; ioWndEX::ParseExtraInfo
EXTRN	?AddNamedRenderImage@ioWnd@@UAEXABVioHashString@@PAVioUIRenderImage@@@Z:PROC ; ioWnd::AddNamedRenderImage
EXTRN	?RemoveNamedRenderImage@ioWnd@@UAEXABVioHashString@@@Z:PROC ; ioWnd::RemoveNamedRenderImage
EXTRN	?GetNamedRenderImage@ioWnd@@UBEPAVioUIRenderImage@@ABVioHashString@@@Z:PROC ; ioWnd::GetNamedRenderImage
EXTRN	?SetWindowAlpha@ioWnd@@UAEXH@Z:PROC		; ioWnd::SetWindowAlpha
EXTRN	?SetActive@ioWnd@@UAEXXZ:PROC			; ioWnd::SetActive
EXTRN	?SetInActive@ioWnd@@UAEXXZ:PROC			; ioWnd::SetInActive
EXTRN	?ClearElementImageList@ioWnd@@UAEXXZ:PROC	; ioWnd::ClearElementImageList
EXTRN	?SetSize@ioWnd@@UAEXHH@Z:PROC			; ioWnd::SetSize
EXTRN	?SetPositionToDefault@ioWnd@@UAEXHH_N0@Z:PROC	; ioWnd::SetPositionToDefault
EXTRN	?IsNeedProcess@ioWnd@@UBE_NXZ:PROC		; ioWnd::IsNeedProcess
EXTRN	?IsCanMouseReaction@ioWnd@@UBE_NXZ:PROC		; ioWnd::IsCanMouseReaction
EXTRN	?AddChild@ioWnd@@UAEXPAV1@@Z:PROC		; ioWnd::AddChild
EXTRN	?DeleteChild@ioWnd@@UAEXK@Z:PROC		; ioWnd::DeleteChild
EXTRN	?DeleteAllChild@ioWnd@@UAEXXZ:PROC		; ioWnd::DeleteAllChild
EXTRN	?OnRenderShowAndHide@ioWnd@@MAE_NXZ:PROC	; ioWnd::OnRenderShowAndHide
EXTRN	?OnRenderShowAndHideByDefault@ioWnd@@MAE_NK@Z:PROC ; ioWnd::OnRenderShowAndHideByDefault
EXTRN	?OnRenderShowAndHideByTop@ioWnd@@MAE_NK@Z:PROC	; ioWnd::OnRenderShowAndHideByTop
EXTRN	?OnRenderShowAndHideByDown@ioWnd@@MAE_NK@Z:PROC	; ioWnd::OnRenderShowAndHideByDown
EXTRN	?OnRender@ioWnd@@MAEXXZ:PROC			; ioWnd::OnRender
EXTRN	?OnRenderAfterChild@ioWnd@@MAEXXZ:PROC		; ioWnd::OnRenderAfterChild
EXTRN	?OnProcess@ioWnd@@MAEXM@Z:PROC			; ioWnd::OnProcess
EXTRN	?OnMouseProcess@ioWnd@@MAEXABVioMouse@@@Z:PROC	; ioWnd::OnMouseProcess
EXTRN	?CheckFrameReSize@ioWnd@@MAEXHHHH@Z:PROC	; ioWnd::CheckFrameReSize
EXTRN	?RenderImageList@ioWnd@@MAEXHHW4UIRenderType@@@Z:PROC ; ioWnd::RenderImageList
EXTRN	?iwm_lbuttondown@ioWndEX@@UAEXABVioMouse@@@Z:PROC ; ioWndEX::iwm_lbuttondown
EXTRN	?iwm_lbuttonup@ioWndEX@@UAEXABVioMouse@@@Z:PROC	; ioWndEX::iwm_lbuttonup
EXTRN	?iwm_lbuttonDBLCLK@ioWndEX@@UAEXABVioMouse@@@Z:PROC ; ioWndEX::iwm_lbuttonDBLCLK
EXTRN	?iwm_rbuttondown@ioWndEX@@UAEXABVioMouse@@@Z:PROC ; ioWndEX::iwm_rbuttondown
EXTRN	?iwm_rbuttonup@ioWndEX@@UAEXABVioMouse@@@Z:PROC	; ioWndEX::iwm_rbuttonup
EXTRN	?iwm_command@ioWnd@@UAEXPAV1@HK@Z:PROC		; ioWnd::iwm_command
EXTRN	?iwm_mouseover@ioWndEX@@UAEXABVioMouse@@@Z:PROC	; ioWndEX::iwm_mouseover
EXTRN	?iwm_mousemove@ioWndEX@@UAEXABVioMouse@@@Z:PROC	; ioWndEX::iwm_mousemove
EXTRN	?iwm_mouseleave@ioWndEX@@UAEXABVioMouse@@@Z:PROC ; ioWndEX::iwm_mouseleave
EXTRN	?iwm_vscroll@ioWnd@@UAEXKH@Z:PROC		; ioWnd::iwm_vscroll
EXTRN	?iwm_wheel@ioWndEX@@UAEXH@Z:PROC		; ioWndEX::iwm_wheel
EXTRN	?iwm_show@ioWndEX@@UAEXXZ:PROC			; ioWndEX::iwm_show
EXTRN	?iwm_hide@ioWndEX@@UAEXXZ:PROC			; ioWndEX::iwm_hide
EXTRN	?iwm_esc@ioWndEX@@UAE_NXZ:PROC			; ioWndEX::iwm_esc
EXTRN	?iwm_spacebar@ioWndEX@@UAE_NXZ:PROC		; ioWndEX::iwm_spacebar
EXTRN	?iwm_gototop@ioWnd@@UAEXXZ:PROC			; ioWnd::iwm_gototop
EXTRN	?iwm_dragenter@ioWnd@@UAE?AW4IWDropEffect@@PAVioDragItem@@ABVioMouse@@@Z:PROC ; ioWnd::iwm_dragenter
EXTRN	?iwm_dragover@ioWnd@@UAE?AW4IWDropEffect@@PAVioDragItem@@ABVioMouse@@@Z:PROC ; ioWnd::iwm_dragover
EXTRN	?iwm_dragleave@ioWnd@@UAEXXZ:PROC		; ioWnd::iwm_dragleave
EXTRN	?iwm_dropitem@ioWnd@@UAE_NPAVioDragItem@@ABVioMouse@@PAV1@@Z:PROC ; ioWnd::iwm_dropitem
EXTRN	?iwm_dropdone@ioWnd@@UAEXPAVioDragItem@@PAV1@_N@Z:PROC ; ioWnd::iwm_dropdone
EXTRN	?IsEXType@ioWndEX@@UBE_NXZ:PROC			; ioWndEX::IsEXType
EXTRN	?GetWndType@ioWnd@@UBEKXZ:PROC			; ioWnd::GetWndType
EXTRN	?RenderWnd@ioWnd@@UAEXXZ:PROC			; ioWnd::RenderWnd
EXTRN	?SetIDEX@ioWnd@@UAEXAAK_N@Z:PROC		; ioWnd::SetIDEX
EXTRN	?ParseXML@ioWnd@@UAEXAAVioXMLElement@@@Z:PROC	; ioWnd::ParseXML
EXTRN	?GetHeaderFileName@ioWndEX@@UAEPBDXZ:PROC	; ioWndEX::GetHeaderFileName
EXTRN	?GetTemplateName@ioWndEX@@UAEPBDXZ:PROC		; ioWndEX::GetTemplateName
EXTRN	?GetDefClassName@ioWndEX@@UBEPBDXZ:PROC		; ioWndEX::GetDefClassName
EXTRN	?_Clone@ioWndEX@@UAEPAVioWnd@@XZ:PROC		; ioWndEX::_Clone
EXTRN	?Copy@ioWnd@@UAEXPAV1@@Z:PROC			; ioWnd::Copy
EXTRN	?Save@ioWnd@@UAE_NAAVioXMLElement@@@Z:PROC	; ioWnd::Save
EXTRN	?SetSaveData@ioWndEX@@UAEXAAVioXMLElement@@@Z:PROC ; ioWndEX::SetSaveData
EXTRN	?SetPosX@ioWnd@@UAEXH@Z:PROC			; ioWnd::SetPosX
EXTRN	?SetPosY@ioWnd@@UAEXH@Z:PROC			; ioWnd::SetPosY
EXTRN	?SetWidth@ioWnd@@UAEXH@Z:PROC			; ioWnd::SetWidth
EXTRN	?SetHeight@ioWnd@@UAEXH@Z:PROC			; ioWnd::SetHeight
EXTRN	?GetNumFixedRenderFrame@ioWnd@@UBEHXZ:PROC	; ioWnd::GetNumFixedRenderFrame
EXTRN	?GetFixedRenderFrameType@ioWnd@@UAEPBDH@Z:PROC	; ioWnd::GetFixedRenderFrameType
EXTRN	?GetRenderFrame@ioWnd@@UAEPAPAVioUIRenderElement@@PBD@Z:PROC ; ioWnd::GetRenderFrame
EXTRN	?GetNumFixedRenderImage@ioWnd@@UBEHXZ:PROC	; ioWnd::GetNumFixedRenderImage
EXTRN	?GetFixedRenderImageType@ioWnd@@UAEPBDH@Z:PROC	; ioWnd::GetFixedRenderImageType
EXTRN	?GetRenderImage@ioWnd@@UAEPAPAVioUIRenderElement@@PBD@Z:PROC ; ioWnd::GetRenderImage
EXTRN	?AddEffect@ioWnd@@UAEXABVioHashString@@PAVioUI3DEffectRender@@@Z:PROC ; ioWnd::AddEffect
EXTRN	?GetEffect@ioWnd@@UAEPAVioUI3DEffectRender@@VioHashString@@@Z:PROC ; ioWnd::GetEffect
EXTRN	??_EMercenaryInfoWndBase@@UAEPAXI@Z:PROC	; MercenaryInfoWndBase::`vector deleting destructor'
EXTRN	?_ParseExtraInfo@ioWndEX@@UAEXAAVioXMLElement@@@Z:PROC ; ioWndEX::_ParseExtraInfo
EXTRN	?_SetSaveData@ioWndEX@@UAEXAAVioXMLElement@@@Z:PROC ; ioWndEX::_SetSaveData
;	COMDAT ??_R2ioWnd@@8
; File d:\lost saga for developer\youtube\tutorial\source\src\lsclient\gui\mercenaryinfowndbase.h
rdata$r	SEGMENT
??_R2ioWnd@@8 DD FLAT:??_R1A@?0A@EA@ioWnd@@8		; ioWnd::`RTTI Base Class Array'
rdata$r	ENDS
;	COMDAT ??_R3ioWnd@@8
rdata$r	SEGMENT
??_R3ioWnd@@8 DD 00H					; ioWnd::`RTTI Class Hierarchy Descriptor'
	DD	00H
	DD	01H
	DD	FLAT:??_R2ioWnd@@8
rdata$r	ENDS
;	COMDAT ??_R0?AVioWnd@@@8
_DATA	SEGMENT
??_R0?AVioWnd@@@8 DD FLAT:??_7type_info@@6B@		; ioWnd `RTTI Type Descriptor'
	DD	00H
	DB	'.?AVioWnd@@', 00H
_DATA	ENDS
;	COMDAT ??_R1A@?0A@EA@ioWnd@@8
rdata$r	SEGMENT
??_R1A@?0A@EA@ioWnd@@8 DD FLAT:??_R0?AVioWnd@@@8	; ioWnd::`RTTI Base Class Descriptor at (0,-1,0,64)'
	DD	00H
	DD	00H
	DD	0ffffffffH
	DD	00H
	DD	040H
	DD	FLAT:??_R3ioWnd@@8
rdata$r	ENDS
;	COMDAT ??_R2ioWndEX@@8
rdata$r	SEGMENT
??_R2ioWndEX@@8 DD FLAT:??_R1A@?0A@EA@ioWndEX@@8	; ioWndEX::`RTTI Base Class Array'
	DD	FLAT:??_R1A@?0A@EA@ioWnd@@8
rdata$r	ENDS
;	COMDAT ??_R3ioWndEX@@8
rdata$r	SEGMENT
??_R3ioWndEX@@8 DD 00H					; ioWndEX::`RTTI Class Hierarchy Descriptor'
	DD	00H
	DD	02H
	DD	FLAT:??_R2ioWndEX@@8
rdata$r	ENDS
;	COMDAT ??_R0?AVioWndEX@@@8
_DATA	SEGMENT
??_R0?AVioWndEX@@@8 DD FLAT:??_7type_info@@6B@		; ioWndEX `RTTI Type Descriptor'
	DD	00H
	DB	'.?AVioWndEX@@', 00H
_DATA	ENDS
;	COMDAT ??_R1A@?0A@EA@ioWndEX@@8
rdata$r	SEGMENT
??_R1A@?0A@EA@ioWndEX@@8 DD FLAT:??_R0?AVioWndEX@@@8	; ioWndEX::`RTTI Base Class Descriptor at (0,-1,0,64)'
	DD	01H
	DD	00H
	DD	0ffffffffH
	DD	00H
	DD	040H
	DD	FLAT:??_R3ioWndEX@@8
rdata$r	ENDS
;	COMDAT ??_R1A@?0A@EA@MercenaryInfoWndBase@@8
rdata$r	SEGMENT
??_R1A@?0A@EA@MercenaryInfoWndBase@@8 DD FLAT:??_R0?AVMercenaryInfoWndBase@@@8 ; MercenaryInfoWndBase::`RTTI Base Class Descriptor at (0,-1,0,64)'
	DD	02H
	DD	00H
	DD	0ffffffffH
	DD	00H
	DD	040H
	DD	FLAT:??_R3MercenaryInfoWndBase@@8
rdata$r	ENDS
;	COMDAT ??_R2MercenaryInfoWndBase@@8
rdata$r	SEGMENT
??_R2MercenaryInfoWndBase@@8 DD FLAT:??_R1A@?0A@EA@MercenaryInfoWndBase@@8 ; MercenaryInfoWndBase::`RTTI Base Class Array'
	DD	FLAT:??_R1A@?0A@EA@ioWndEX@@8
	DD	FLAT:??_R1A@?0A@EA@ioWnd@@8
rdata$r	ENDS
;	COMDAT ??_R3MercenaryInfoWndBase@@8
rdata$r	SEGMENT
??_R3MercenaryInfoWndBase@@8 DD 00H			; MercenaryInfoWndBase::`RTTI Class Hierarchy Descriptor'
	DD	00H
	DD	03H
	DD	FLAT:??_R2MercenaryInfoWndBase@@8
rdata$r	ENDS
;	COMDAT ??_R0?AVMercenaryInfoWndBase@@@8
_DATA	SEGMENT
??_R0?AVMercenaryInfoWndBase@@@8 DD FLAT:??_7type_info@@6B@ ; MercenaryInfoWndBase `RTTI Type Descriptor'
	DD	00H
	DB	'.?AVMercenaryInfoWndBase@@', 00H
_DATA	ENDS
;	COMDAT ??_R4MercenaryInfoWndBase@@6B@
rdata$r	SEGMENT
??_R4MercenaryInfoWndBase@@6B@ DD 00H			; MercenaryInfoWndBase::`RTTI Complete Object Locator'
	DD	00H
	DD	00H
	DD	FLAT:??_R0?AVMercenaryInfoWndBase@@@8
	DD	FLAT:??_R3MercenaryInfoWndBase@@8
rdata$r	ENDS
;	COMDAT ??_7MercenaryInfoWndBase@@6B@
CONST	SEGMENT
??_7MercenaryInfoWndBase@@6B@ DD FLAT:??_R4MercenaryInfoWndBase@@6B@ ; MercenaryInfoWndBase::`vftable'
	DD	FLAT:?AddRenderFrame@ioWnd@@UAEXABVioHashString@@PAVioUIRenderFrame@@@Z
	DD	FLAT:?AddRenderImage@ioWnd@@UAEXABVioHashString@@PAVioUIRenderImage@@@Z
	DD	FLAT:?AddTooltipHelp@ioWnd@@UAEXABVioHashString@@00@Z
	DD	FLAT:?ParseExtraInfo@ioWndEX@@UAEXAAVioXMLElement@@@Z
	DD	FLAT:?AddNamedRenderImage@ioWnd@@UAEXABVioHashString@@PAVioUIRenderImage@@@Z
	DD	FLAT:?RemoveNamedRenderImage@ioWnd@@UAEXABVioHashString@@@Z
	DD	FLAT:?GetNamedRenderImage@ioWnd@@UBEPAVioUIRenderImage@@ABVioHashString@@@Z
	DD	FLAT:?SetWindowAlpha@ioWnd@@UAEXH@Z
	DD	FLAT:?SetActive@ioWnd@@UAEXXZ
	DD	FLAT:?SetInActive@ioWnd@@UAEXXZ
	DD	FLAT:?ClearElementImageList@ioWnd@@UAEXXZ
	DD	FLAT:?SetSize@ioWnd@@UAEXHH@Z
	DD	FLAT:?SetPositionToDefault@ioWnd@@UAEXHH_N0@Z
	DD	FLAT:?IsNeedProcess@ioWnd@@UBE_NXZ
	DD	FLAT:?IsCanMouseReaction@ioWnd@@UBE_NXZ
	DD	FLAT:?AddChild@ioWnd@@UAEXPAV1@@Z
	DD	FLAT:?DeleteChild@ioWnd@@UAEXK@Z
	DD	FLAT:?DeleteAllChild@ioWnd@@UAEXXZ
	DD	FLAT:?OnRenderShowAndHide@ioWnd@@MAE_NXZ
	DD	FLAT:?OnRenderShowAndHideByDefault@ioWnd@@MAE_NK@Z
	DD	FLAT:?OnRenderShowAndHideByTop@ioWnd@@MAE_NK@Z
	DD	FLAT:?OnRenderShowAndHideByDown@ioWnd@@MAE_NK@Z
	DD	FLAT:?OnRender@ioWnd@@MAEXXZ
	DD	FLAT:?OnRenderAfterChild@ioWnd@@MAEXXZ
	DD	FLAT:?OnProcess@ioWnd@@MAEXM@Z
	DD	FLAT:?OnMouseProcess@ioWnd@@MAEXABVioMouse@@@Z
	DD	FLAT:?CheckFrameReSize@ioWnd@@MAEXHHHH@Z
	DD	FLAT:?RenderImageList@ioWnd@@MAEXHHW4UIRenderType@@@Z
	DD	FLAT:?iwm_create@MercenaryInfoWndBase@@UAEXXZ
	DD	FLAT:?iwm_destroy@MercenaryInfoWndBase@@UAEXXZ
	DD	FLAT:?iwm_lbuttondown@ioWndEX@@UAEXABVioMouse@@@Z
	DD	FLAT:?iwm_lbuttonup@ioWndEX@@UAEXABVioMouse@@@Z
	DD	FLAT:?iwm_lbuttonDBLCLK@ioWndEX@@UAEXABVioMouse@@@Z
	DD	FLAT:?iwm_rbuttondown@ioWndEX@@UAEXABVioMouse@@@Z
	DD	FLAT:?iwm_rbuttonup@ioWndEX@@UAEXABVioMouse@@@Z
	DD	FLAT:?iwm_command@ioWnd@@UAEXPAV1@HK@Z
	DD	FLAT:?iwm_mouseover@ioWndEX@@UAEXABVioMouse@@@Z
	DD	FLAT:?iwm_mousemove@ioWndEX@@UAEXABVioMouse@@@Z
	DD	FLAT:?iwm_mouseleave@ioWndEX@@UAEXABVioMouse@@@Z
	DD	FLAT:?iwm_vscroll@ioWnd@@UAEXKH@Z
	DD	FLAT:?iwm_wheel@ioWndEX@@UAEXH@Z
	DD	FLAT:?iwm_show@ioWndEX@@UAEXXZ
	DD	FLAT:?iwm_hide@ioWndEX@@UAEXXZ
	DD	FLAT:?iwm_esc@ioWndEX@@UAE_NXZ
	DD	FLAT:?iwm_spacebar@ioWndEX@@UAE_NXZ
	DD	FLAT:?iwm_gototop@ioWnd@@UAEXXZ
	DD	FLAT:?iwm_dragenter@ioWnd@@UAE?AW4IWDropEffect@@PAVioDragItem@@ABVioMouse@@@Z
	DD	FLAT:?iwm_dragover@ioWnd@@UAE?AW4IWDropEffect@@PAVioDragItem@@ABVioMouse@@@Z
	DD	FLAT:?iwm_dragleave@ioWnd@@UAEXXZ
	DD	FLAT:?iwm_dropitem@ioWnd@@UAE_NPAVioDragItem@@ABVioMouse@@PAV1@@Z
	DD	FLAT:?iwm_dropdone@ioWnd@@UAEXPAVioDragItem@@PAV1@_N@Z
	DD	FLAT:?IsEXType@ioWndEX@@UBE_NXZ
	DD	FLAT:?GetWndType@ioWnd@@UBEKXZ
	DD	FLAT:?RenderWnd@ioWnd@@UAEXXZ
	DD	FLAT:?SetIDEX@ioWnd@@UAEXAAK_N@Z
	DD	FLAT:?ParseXML@ioWnd@@UAEXAAVioXMLElement@@@Z
	DD	FLAT:?GetHeaderFileName@ioWndEX@@UAEPBDXZ
	DD	FLAT:?GetTemplateName@ioWndEX@@UAEPBDXZ
	DD	FLAT:?GetDefClassName@ioWndEX@@UBEPBDXZ
	DD	FLAT:?_Clone@ioWndEX@@UAEPAVioWnd@@XZ
	DD	FLAT:?Copy@ioWnd@@UAEXPAV1@@Z
	DD	FLAT:?Save@ioWnd@@UAE_NAAVioXMLElement@@@Z
	DD	FLAT:?SetSaveData@ioWndEX@@UAEXAAVioXMLElement@@@Z
	DD	FLAT:?SetPosX@ioWnd@@UAEXH@Z
	DD	FLAT:?SetPosY@ioWnd@@UAEXH@Z
	DD	FLAT:?SetWidth@ioWnd@@UAEXH@Z
	DD	FLAT:?SetHeight@ioWnd@@UAEXH@Z
	DD	FLAT:?GetNumFixedRenderFrame@ioWnd@@UBEHXZ
	DD	FLAT:?GetFixedRenderFrameType@ioWnd@@UAEPBDH@Z
	DD	FLAT:?GetRenderFrame@ioWnd@@UAEPAPAVioUIRenderElement@@PBD@Z
	DD	FLAT:?GetNumFixedRenderImage@ioWnd@@UBEHXZ
	DD	FLAT:?GetFixedRenderImageType@ioWnd@@UAEPBDH@Z
	DD	FLAT:?GetRenderImage@ioWnd@@UAEPAPAVioUIRenderElement@@PBD@Z
	DD	FLAT:?AddEffect@ioWnd@@UAEXABVioHashString@@PAVioUI3DEffectRender@@@Z
	DD	FLAT:?GetEffect@ioWnd@@UAEPAVioUI3DEffectRender@@VioHashString@@@Z
	DD	FLAT:??_EMercenaryInfoWndBase@@UAEPAXI@Z
	DD	FLAT:?_ParseExtraInfo@ioWndEX@@UAEXAAVioXMLElement@@@Z
	DD	FLAT:?_SetSaveData@ioWndEX@@UAEXAAVioXMLElement@@@Z
	DD	FLAT:?OnClickBuy@MercenaryInfoWndBase@@UAEXPAVioWndEX@@AAVioWndEXMouseEvent@@@Z
	DD	FLAT:?OnClickClose@MercenaryInfoWndBase@@UAEXPAVioWndEX@@AAVioWndEXMouseEvent@@@Z
; Function compile flags: /Ogsp
CONST	ENDS
;	COMDAT ??0MercenaryInfoWndBase@@QAE@XZ
_TEXT	SEGMENT
??0MercenaryInfoWndBase@@QAE@XZ PROC			; MercenaryInfoWndBase::MercenaryInfoWndBase, COMDAT
; _this$ = ecx

; 42   : 	{

  00000	56		 push	 esi
  00001	8b f1		 mov	 esi, ecx
  00003	ff 15 00 00 00
	00		 call	 DWORD PTR __imp_??0ioWndEX@@QAE@XZ
  00009	c7 06 00 00 00
	00		 mov	 DWORD PTR [esi], OFFSET ??_7MercenaryInfoWndBase@@6B@

; 43   : 
; 44   : 	}

  0000f	8b c6		 mov	 eax, esi
  00011	5e		 pop	 esi
  00012	c3		 ret	 0
??0MercenaryInfoWndBase@@QAE@XZ ENDP			; MercenaryInfoWndBase::MercenaryInfoWndBase
_TEXT	ENDS
PUBLIC	??1MercenaryInfoWndBase@@UAE@XZ			; MercenaryInfoWndBase::~MercenaryInfoWndBase
EXTRN	__imp_??1ioWndEX@@UAE@XZ:PROC
; Function compile flags: /Ogsp
;	COMDAT ??1MercenaryInfoWndBase@@UAE@XZ
_TEXT	SEGMENT
??1MercenaryInfoWndBase@@UAE@XZ PROC			; MercenaryInfoWndBase::~MercenaryInfoWndBase, COMDAT
; _this$ = ecx

; 47   : 	{

  00000	c7 01 00 00 00
	00		 mov	 DWORD PTR [ecx], OFFSET ??_7MercenaryInfoWndBase@@6B@

; 48   : 	}

  00006	ff 25 00 00 00
	00		 jmp	 DWORD PTR __imp_??1ioWndEX@@UAE@XZ
??1MercenaryInfoWndBase@@UAE@XZ ENDP			; MercenaryInfoWndBase::~MercenaryInfoWndBase
_TEXT	ENDS
EXTRN	__imp_?iwm_destroy@ioWndEX@@UAEXXZ:PROC
EXTRN	__imp_?Disconnect@ioWndEX@@QAEXW4WNDEX_EVENT_TYPE@@PAV1@@Z:PROC
EXTRN	__imp_?FindChildWndEX@ioWnd@@QAEPAV1@K_N@Z:PROC
; Function compile flags: /Ogsp
;	COMDAT ?iwm_destroy@MercenaryInfoWndBase@@UAEXXZ
_TEXT	SEGMENT
?iwm_destroy@MercenaryInfoWndBase@@UAEXXZ PROC		; MercenaryInfoWndBase::iwm_destroy, COMDAT
; _this$ = ecx

; 82   : 	{

  00000	53		 push	 ebx
  00001	56		 push	 esi

; 83   : 		{
; 84   : 				ioWndEX* child = (ioWndEX*)( FindChildWndEX(6) );

  00002	8b 35 00 00 00
	00		 mov	 esi, DWORD PTR __imp_?FindChildWndEX@ioWnd@@QAEPAV1@K_N@Z
  00008	57		 push	 edi
  00009	6a 00		 push	 0
  0000b	6a 06		 push	 6
  0000d	8b d9		 mov	 ebx, ecx
  0000f	ff d6		 call	 esi

; 85   : 				if ( child ) {

  00011	8b 3d 00 00 00
	00		 mov	 edi, DWORD PTR __imp_?Disconnect@ioWndEX@@QAEXW4WNDEX_EVENT_TYPE@@PAV1@@Z
  00017	85 c0		 test	 eax, eax
  00019	74 07		 je	 SHORT $LN3@iwm_destro

; 86   : 					child->Disconnect( static_cast<WNDEX_EVENT_TYPE>(7), this );

  0001b	53		 push	 ebx
  0001c	6a 07		 push	 7
  0001e	8b c8		 mov	 ecx, eax
  00020	ff d7		 call	 edi
$LN3@iwm_destro:

; 87   : 				}
; 88   : 		}
; 89   : 		{
; 90   : 				ioWndEX* child = (ioWndEX*)( FindChildWndEX(8) );

  00022	6a 00		 push	 0
  00024	6a 08		 push	 8
  00026	8b cb		 mov	 ecx, ebx
  00028	ff d6		 call	 esi

; 91   : 				if ( child ) {

  0002a	85 c0		 test	 eax, eax
  0002c	74 07		 je	 SHORT $LN2@iwm_destro

; 92   : 					child->Disconnect( static_cast<WNDEX_EVENT_TYPE>(7), this );

  0002e	53		 push	 ebx
  0002f	6a 07		 push	 7
  00031	8b c8		 mov	 ecx, eax
  00033	ff d7		 call	 edi
$LN2@iwm_destro:

; 93   : 				}
; 94   : 		}
; 95   : 		{
; 96   : 				ioWndEX* child = (ioWndEX*)( FindChildWndEX(9) );

  00035	6a 00		 push	 0
  00037	6a 09		 push	 9
  00039	8b cb		 mov	 ecx, ebx
  0003b	ff d6		 call	 esi

; 97   : 				if ( child ) {

  0003d	85 c0		 test	 eax, eax
  0003f	74 07		 je	 SHORT $LN1@iwm_destro

; 98   : 					child->Disconnect( static_cast<WNDEX_EVENT_TYPE>(7), this );

  00041	53		 push	 ebx
  00042	6a 07		 push	 7
  00044	8b c8		 mov	 ecx, eax
  00046	ff d7		 call	 edi
$LN1@iwm_destro:

; 99   : 				}
; 100  : 		}
; 101  : 
; 102  : 
; 103  : 		ioWndEX::iwm_destroy();

  00048	5f		 pop	 edi
  00049	5e		 pop	 esi
  0004a	8b cb		 mov	 ecx, ebx
  0004c	5b		 pop	 ebx
  0004d	ff 25 00 00 00
	00		 jmp	 DWORD PTR __imp_?iwm_destroy@ioWndEX@@UAEXXZ
?iwm_destroy@MercenaryInfoWndBase@@UAEXXZ ENDP		; MercenaryInfoWndBase::iwm_destroy
; Function compile flags: /Ogsp
_TEXT	ENDS
;	COMDAT ?OnClickBuy@MercenaryInfoWndBase@@UAEXPAVioWndEX@@AAVioWndEXMouseEvent@@@Z
_TEXT	SEGMENT
_wnd$ = 8						; size = 4
_event$ = 12						; size = 4
?OnClickBuy@MercenaryInfoWndBase@@UAEXPAVioWndEX@@AAVioWndEXMouseEvent@@@Z PROC ; MercenaryInfoWndBase::OnClickBuy, COMDAT
; _this$ = ecx

; 110  : 	virtual void OnClickBuy( ioWndEX* wnd, ioWndEXMouseEvent& event ) {}

  00000	c2 08 00	 ret	 8
?OnClickBuy@MercenaryInfoWndBase@@UAEXPAVioWndEX@@AAVioWndEXMouseEvent@@@Z ENDP ; MercenaryInfoWndBase::OnClickBuy
; Function compile flags: /Ogsp
_TEXT	ENDS
;	COMDAT ?OnClickClose@MercenaryInfoWndBase@@UAEXPAVioWndEX@@AAVioWndEXMouseEvent@@@Z
_TEXT	SEGMENT
_wnd$ = 8						; size = 4
_event$ = 12						; size = 4
?OnClickClose@MercenaryInfoWndBase@@UAEXPAVioWndEX@@AAVioWndEXMouseEvent@@@Z PROC ; MercenaryInfoWndBase::OnClickClose, COMDAT
; _this$ = ecx

; 111  : 	virtual void OnClickClose( ioWndEX* wnd, ioWndEXMouseEvent& event ) {}

  00000	c2 08 00	 ret	 8
?OnClickClose@MercenaryInfoWndBase@@UAEXPAVioWndEX@@AAVioWndEXMouseEvent@@@Z ENDP ; MercenaryInfoWndBase::OnClickClose
_TEXT	ENDS
EXTRN	??3@YAXPAX@Z:PROC				; operator delete
; Function compile flags: /Ogsp
;	COMDAT ??_GMercenaryInfoWndBase@@UAEPAXI@Z
_TEXT	SEGMENT
___flags$ = 8						; size = 4
??_GMercenaryInfoWndBase@@UAEPAXI@Z PROC		; MercenaryInfoWndBase::`scalar deleting destructor', COMDAT
; _this$ = ecx
  00000	55		 push	 ebp
  00001	8b ec		 mov	 ebp, esp
  00003	56		 push	 esi
  00004	8b f1		 mov	 esi, ecx
  00006	c7 06 00 00 00
	00		 mov	 DWORD PTR [esi], OFFSET ??_7MercenaryInfoWndBase@@6B@
  0000c	ff 15 00 00 00
	00		 call	 DWORD PTR __imp_??1ioWndEX@@UAE@XZ
  00012	f6 45 08 01	 test	 BYTE PTR ___flags$[ebp], 1
  00016	74 07		 je	 SHORT $LN1@scalar
  00018	56		 push	 esi
  00019	e8 00 00 00 00	 call	 ??3@YAXPAX@Z		; operator delete
  0001e	59		 pop	 ecx
$LN1@scalar:
  0001f	8b c6		 mov	 eax, esi
  00021	5e		 pop	 esi
  00022	5d		 pop	 ebp
  00023	c2 04 00	 ret	 4
??_GMercenaryInfoWndBase@@UAEPAXI@Z ENDP		; MercenaryInfoWndBase::`scalar deleting destructor'
_TEXT	ENDS
PUBLIC	??_7MercenaryInfoWnd@@6B@			; MercenaryInfoWnd::`vftable'
PUBLIC	??0MercenaryInfoWnd@@QAE@XZ			; MercenaryInfoWnd::MercenaryInfoWnd
PUBLIC	??_R4MercenaryInfoWnd@@6B@			; MercenaryInfoWnd::`RTTI Complete Object Locator'
PUBLIC	??_R0?AVMercenaryInfoWnd@@@8			; MercenaryInfoWnd `RTTI Type Descriptor'
PUBLIC	??_R3MercenaryInfoWnd@@8			; MercenaryInfoWnd::`RTTI Class Hierarchy Descriptor'
PUBLIC	??_R2MercenaryInfoWnd@@8			; MercenaryInfoWnd::`RTTI Base Class Array'
PUBLIC	??_R1A@?0A@EA@MercenaryInfoWnd@@8		; MercenaryInfoWnd::`RTTI Base Class Descriptor at (0,-1,0,64)'
PUBLIC	?iwm_show@MercenaryInfoWnd@@UAEXXZ		; MercenaryInfoWnd::iwm_show
PUBLIC	?OnClickBuy@MercenaryInfoWnd@@UAEXPAVioWndEX@@AAVioWndEXMouseEvent@@@Z ; MercenaryInfoWnd::OnClickBuy
PUBLIC	?OnClickClose@MercenaryInfoWnd@@UAEXPAVioWndEX@@AAVioWndEXMouseEvent@@@Z ; MercenaryInfoWnd::OnClickClose
EXTRN	??_EMercenaryInfoWnd@@UAEPAXI@Z:PROC		; MercenaryInfoWnd::`vector deleting destructor'
;	COMDAT ??_R1A@?0A@EA@MercenaryInfoWnd@@8
rdata$r	SEGMENT
??_R1A@?0A@EA@MercenaryInfoWnd@@8 DD FLAT:??_R0?AVMercenaryInfoWnd@@@8 ; MercenaryInfoWnd::`RTTI Base Class Descriptor at (0,-1,0,64)'
	DD	03H
	DD	00H
	DD	0ffffffffH
	DD	00H
	DD	040H
	DD	FLAT:??_R3MercenaryInfoWnd@@8
rdata$r	ENDS
;	COMDAT ??_R2MercenaryInfoWnd@@8
rdata$r	SEGMENT
??_R2MercenaryInfoWnd@@8 DD FLAT:??_R1A@?0A@EA@MercenaryInfoWnd@@8 ; MercenaryInfoWnd::`RTTI Base Class Array'
	DD	FLAT:??_R1A@?0A@EA@MercenaryInfoWndBase@@8
	DD	FLAT:??_R1A@?0A@EA@ioWndEX@@8
	DD	FLAT:??_R1A@?0A@EA@ioWnd@@8
rdata$r	ENDS
;	COMDAT ??_R3MercenaryInfoWnd@@8
rdata$r	SEGMENT
??_R3MercenaryInfoWnd@@8 DD 00H				; MercenaryInfoWnd::`RTTI Class Hierarchy Descriptor'
	DD	00H
	DD	04H
	DD	FLAT:??_R2MercenaryInfoWnd@@8
rdata$r	ENDS
;	COMDAT ??_R0?AVMercenaryInfoWnd@@@8
_DATA	SEGMENT
??_R0?AVMercenaryInfoWnd@@@8 DD FLAT:??_7type_info@@6B@	; MercenaryInfoWnd `RTTI Type Descriptor'
	DD	00H
	DB	'.?AVMercenaryInfoWnd@@', 00H
_DATA	ENDS
;	COMDAT ??_R4MercenaryInfoWnd@@6B@
rdata$r	SEGMENT
??_R4MercenaryInfoWnd@@6B@ DD 00H			; MercenaryInfoWnd::`RTTI Complete Object Locator'
	DD	00H
	DD	00H
	DD	FLAT:??_R0?AVMercenaryInfoWnd@@@8
	DD	FLAT:??_R3MercenaryInfoWnd@@8
rdata$r	ENDS
;	COMDAT ??_7MercenaryInfoWnd@@6B@
CONST	SEGMENT
??_7MercenaryInfoWnd@@6B@ DD FLAT:??_R4MercenaryInfoWnd@@6B@ ; MercenaryInfoWnd::`vftable'
	DD	FLAT:?AddRenderFrame@ioWnd@@UAEXABVioHashString@@PAVioUIRenderFrame@@@Z
	DD	FLAT:?AddRenderImage@ioWnd@@UAEXABVioHashString@@PAVioUIRenderImage@@@Z
	DD	FLAT:?AddTooltipHelp@ioWnd@@UAEXABVioHashString@@00@Z
	DD	FLAT:?ParseExtraInfo@ioWndEX@@UAEXAAVioXMLElement@@@Z
	DD	FLAT:?AddNamedRenderImage@ioWnd@@UAEXABVioHashString@@PAVioUIRenderImage@@@Z
	DD	FLAT:?RemoveNamedRenderImage@ioWnd@@UAEXABVioHashString@@@Z
	DD	FLAT:?GetNamedRenderImage@ioWnd@@UBEPAVioUIRenderImage@@ABVioHashString@@@Z
	DD	FLAT:?SetWindowAlpha@ioWnd@@UAEXH@Z
	DD	FLAT:?SetActive@ioWnd@@UAEXXZ
	DD	FLAT:?SetInActive@ioWnd@@UAEXXZ
	DD	FLAT:?ClearElementImageList@ioWnd@@UAEXXZ
	DD	FLAT:?SetSize@ioWnd@@UAEXHH@Z
	DD	FLAT:?SetPositionToDefault@ioWnd@@UAEXHH_N0@Z
	DD	FLAT:?IsNeedProcess@ioWnd@@UBE_NXZ
	DD	FLAT:?IsCanMouseReaction@ioWnd@@UBE_NXZ
	DD	FLAT:?AddChild@ioWnd@@UAEXPAV1@@Z
	DD	FLAT:?DeleteChild@ioWnd@@UAEXK@Z
	DD	FLAT:?DeleteAllChild@ioWnd@@UAEXXZ
	DD	FLAT:?OnRenderShowAndHide@ioWnd@@MAE_NXZ
	DD	FLAT:?OnRenderShowAndHideByDefault@ioWnd@@MAE_NK@Z
	DD	FLAT:?OnRenderShowAndHideByTop@ioWnd@@MAE_NK@Z
	DD	FLAT:?OnRenderShowAndHideByDown@ioWnd@@MAE_NK@Z
	DD	FLAT:?OnRender@ioWnd@@MAEXXZ
	DD	FLAT:?OnRenderAfterChild@ioWnd@@MAEXXZ
	DD	FLAT:?OnProcess@ioWnd@@MAEXM@Z
	DD	FLAT:?OnMouseProcess@ioWnd@@MAEXABVioMouse@@@Z
	DD	FLAT:?CheckFrameReSize@ioWnd@@MAEXHHHH@Z
	DD	FLAT:?RenderImageList@ioWnd@@MAEXHHW4UIRenderType@@@Z
	DD	FLAT:?iwm_create@MercenaryInfoWndBase@@UAEXXZ
	DD	FLAT:?iwm_destroy@MercenaryInfoWndBase@@UAEXXZ
	DD	FLAT:?iwm_lbuttondown@ioWndEX@@UAEXABVioMouse@@@Z
	DD	FLAT:?iwm_lbuttonup@ioWndEX@@UAEXABVioMouse@@@Z
	DD	FLAT:?iwm_lbuttonDBLCLK@ioWndEX@@UAEXABVioMouse@@@Z
	DD	FLAT:?iwm_rbuttondown@ioWndEX@@UAEXABVioMouse@@@Z
	DD	FLAT:?iwm_rbuttonup@ioWndEX@@UAEXABVioMouse@@@Z
	DD	FLAT:?iwm_command@ioWnd@@UAEXPAV1@HK@Z
	DD	FLAT:?iwm_mouseover@ioWndEX@@UAEXABVioMouse@@@Z
	DD	FLAT:?iwm_mousemove@ioWndEX@@UAEXABVioMouse@@@Z
	DD	FLAT:?iwm_mouseleave@ioWndEX@@UAEXABVioMouse@@@Z
	DD	FLAT:?iwm_vscroll@ioWnd@@UAEXKH@Z
	DD	FLAT:?iwm_wheel@ioWndEX@@UAEXH@Z
	DD	FLAT:?iwm_show@MercenaryInfoWnd@@UAEXXZ
	DD	FLAT:?iwm_hide@ioWndEX@@UAEXXZ
	DD	FLAT:?iwm_esc@ioWndEX@@UAE_NXZ
	DD	FLAT:?iwm_spacebar@ioWndEX@@UAE_NXZ
	DD	FLAT:?iwm_gototop@ioWnd@@UAEXXZ
	DD	FLAT:?iwm_dragenter@ioWnd@@UAE?AW4IWDropEffect@@PAVioDragItem@@ABVioMouse@@@Z
	DD	FLAT:?iwm_dragover@ioWnd@@UAE?AW4IWDropEffect@@PAVioDragItem@@ABVioMouse@@@Z
	DD	FLAT:?iwm_dragleave@ioWnd@@UAEXXZ
	DD	FLAT:?iwm_dropitem@ioWnd@@UAE_NPAVioDragItem@@ABVioMouse@@PAV1@@Z
	DD	FLAT:?iwm_dropdone@ioWnd@@UAEXPAVioDragItem@@PAV1@_N@Z
	DD	FLAT:?IsEXType@ioWndEX@@UBE_NXZ
	DD	FLAT:?GetWndType@ioWnd@@UBEKXZ
	DD	FLAT:?RenderWnd@ioWnd@@UAEXXZ
	DD	FLAT:?SetIDEX@ioWnd@@UAEXAAK_N@Z
	DD	FLAT:?ParseXML@ioWnd@@UAEXAAVioXMLElement@@@Z
	DD	FLAT:?GetHeaderFileName@ioWndEX@@UAEPBDXZ
	DD	FLAT:?GetTemplateName@ioWndEX@@UAEPBDXZ
	DD	FLAT:?GetDefClassName@ioWndEX@@UBEPBDXZ
	DD	FLAT:?_Clone@ioWndEX@@UAEPAVioWnd@@XZ
	DD	FLAT:?Copy@ioWnd@@UAEXPAV1@@Z
	DD	FLAT:?Save@ioWnd@@UAE_NAAVioXMLElement@@@Z
	DD	FLAT:?SetSaveData@ioWndEX@@UAEXAAVioXMLElement@@@Z
	DD	FLAT:?SetPosX@ioWnd@@UAEXH@Z
	DD	FLAT:?SetPosY@ioWnd@@UAEXH@Z
	DD	FLAT:?SetWidth@ioWnd@@UAEXH@Z
	DD	FLAT:?SetHeight@ioWnd@@UAEXH@Z
	DD	FLAT:?GetNumFixedRenderFrame@ioWnd@@UBEHXZ
	DD	FLAT:?GetFixedRenderFrameType@ioWnd@@UAEPBDH@Z
	DD	FLAT:?GetRenderFrame@ioWnd@@UAEPAPAVioUIRenderElement@@PBD@Z
	DD	FLAT:?GetNumFixedRenderImage@ioWnd@@UBEHXZ
	DD	FLAT:?GetFixedRenderImageType@ioWnd@@UAEPBDH@Z
	DD	FLAT:?GetRenderImage@ioWnd@@UAEPAPAVioUIRenderElement@@PBD@Z
	DD	FLAT:?AddEffect@ioWnd@@UAEXABVioHashString@@PAVioUI3DEffectRender@@@Z
	DD	FLAT:?GetEffect@ioWnd@@UAEPAVioUI3DEffectRender@@VioHashString@@@Z
	DD	FLAT:??_EMercenaryInfoWnd@@UAEPAXI@Z
	DD	FLAT:?_ParseExtraInfo@ioWndEX@@UAEXAAVioXMLElement@@@Z
	DD	FLAT:?_SetSaveData@ioWndEX@@UAEXAAVioXMLElement@@@Z
	DD	FLAT:?OnClickBuy@MercenaryInfoWnd@@UAEXPAVioWndEX@@AAVioWndEXMouseEvent@@@Z
	DD	FLAT:?OnClickClose@MercenaryInfoWnd@@UAEXPAVioWndEX@@AAVioWndEXMouseEvent@@@Z
; Function compile flags: /Ogsp
; File d:\lost saga for developer\youtube\tutorial\source\src\lsclient\gui\mercenaryinfownd.cpp
CONST	ENDS
;	COMDAT ??0MercenaryInfoWnd@@QAE@XZ
_TEXT	SEGMENT
??0MercenaryInfoWnd@@QAE@XZ PROC			; MercenaryInfoWnd::MercenaryInfoWnd, COMDAT
; _this$ = ecx

; 20   : {

  00000	56		 push	 esi
  00001	8b f1		 mov	 esi, ecx
  00003	ff 15 00 00 00
	00		 call	 DWORD PTR __imp_??0ioWndEX@@QAE@XZ
  00009	c7 06 00 00 00
	00		 mov	 DWORD PTR [esi], OFFSET ??_7MercenaryInfoWnd@@6B@

; 21   : }

  0000f	8b c6		 mov	 eax, esi
  00011	5e		 pop	 esi
  00012	c3		 ret	 0
??0MercenaryInfoWnd@@QAE@XZ ENDP			; MercenaryInfoWnd::MercenaryInfoWnd
_TEXT	ENDS
PUBLIC	??1MercenaryInfoWnd@@UAE@XZ			; MercenaryInfoWnd::~MercenaryInfoWnd
; Function compile flags: /Ogsp
;	COMDAT ??1MercenaryInfoWnd@@UAE@XZ
_TEXT	SEGMENT
??1MercenaryInfoWnd@@UAE@XZ PROC			; MercenaryInfoWnd::~MercenaryInfoWnd, COMDAT
; _this$ = ecx

; 25   : }

  00000	c7 01 00 00 00
	00		 mov	 DWORD PTR [ecx], OFFSET ??_7MercenaryInfoWndBase@@6B@
  00006	ff 25 00 00 00
	00		 jmp	 DWORD PTR __imp_??1ioWndEX@@UAE@XZ
??1MercenaryInfoWnd@@UAE@XZ ENDP			; MercenaryInfoWnd::~MercenaryInfoWnd
_TEXT	ENDS
EXTRN	__imp_?iwm_show@ioWndEX@@UAEXXZ:PROC
EXTRN	__imp_?AddWndStyle@ioWnd@@QAEXK@Z:PROC
; Function compile flags: /Ogsp
;	COMDAT ?iwm_show@MercenaryInfoWnd@@UAEXXZ
_TEXT	SEGMENT
?iwm_show@MercenaryInfoWnd@@UAEXXZ PROC			; MercenaryInfoWnd::iwm_show, COMDAT
; _this$ = ecx

; 32   : {

  00000	56		 push	 esi

; 33   : 	AddWndStyle( IWS_MODAL );

  00001	6a 10		 push	 16			; 00000010H
  00003	8b f1		 mov	 esi, ecx
  00005	ff 15 00 00 00
	00		 call	 DWORD PTR __imp_?AddWndStyle@ioWnd@@QAEXK@Z

; 34   : 
; 35   : 	MercenaryInfoWndBase::iwm_show();

  0000b	8b ce		 mov	 ecx, esi
  0000d	5e		 pop	 esi
  0000e	ff 25 00 00 00
	00		 jmp	 DWORD PTR __imp_?iwm_show@ioWndEX@@UAEXXZ
?iwm_show@MercenaryInfoWnd@@UAEXXZ ENDP			; MercenaryInfoWnd::iwm_show
; Function compile flags: /Ogsp
_TEXT	ENDS
;	COMDAT ?OnClickBuy@MercenaryInfoWnd@@UAEXPAVioWndEX@@AAVioWndEXMouseEvent@@@Z
_TEXT	SEGMENT
_wnd$ = 8						; size = 4
_event$ = 12						; size = 4
?OnClickBuy@MercenaryInfoWnd@@UAEXPAVioWndEX@@AAVioWndEXMouseEvent@@@Z PROC ; MercenaryInfoWnd::OnClickBuy, COMDAT
; _this$ = ecx

; 46   : }

  00000	c2 08 00	 ret	 8
?OnClickBuy@MercenaryInfoWnd@@UAEXPAVioWndEX@@AAVioWndEXMouseEvent@@@Z ENDP ; MercenaryInfoWnd::OnClickBuy
; Function compile flags: /Ogsp
_TEXT	ENDS
;	COMDAT ?OnClickClose@MercenaryInfoWnd@@UAEXPAVioWndEX@@AAVioWndEXMouseEvent@@@Z
_TEXT	SEGMENT
_wnd$ = 8						; size = 4
_event$ = 12						; size = 4
?OnClickClose@MercenaryInfoWnd@@UAEXPAVioWndEX@@AAVioWndEXMouseEvent@@@Z PROC ; MercenaryInfoWnd::OnClickClose, COMDAT
; _this$ = ecx

; 50   : 	//g_GUIMgr.
; 51   : }

  00000	c2 08 00	 ret	 8
?OnClickClose@MercenaryInfoWnd@@UAEXPAVioWndEX@@AAVioWndEXMouseEvent@@@Z ENDP ; MercenaryInfoWnd::OnClickClose
_TEXT	ENDS
PUBLIC	??_7?$ioWndEXEventHandlerEX@VMercenaryInfoWndBase@@VioWndEXMouseEvent@@@@6B@ ; ioWndEXEventHandlerEX<MercenaryInfoWndBase,ioWndEXMouseEvent>::`vftable'
PUBLIC	??1?$ioWndEXEventHandlerEX@VMercenaryInfoWndBase@@VioWndEXMouseEvent@@@@UAE@XZ ; ioWndEXEventHandlerEX<MercenaryInfoWndBase,ioWndEXMouseEvent>::~ioWndEXEventHandlerEX<MercenaryInfoWndBase,ioWndEXMouseEvent>
PUBLIC	??_R4?$ioWndEXEventHandlerEX@VMercenaryInfoWndBase@@VioWndEXMouseEvent@@@@6B@ ; ioWndEXEventHandlerEX<MercenaryInfoWndBase,ioWndEXMouseEvent>::`RTTI Complete Object Locator'
PUBLIC	??_R0?AV?$ioWndEXEventHandlerEX@VMercenaryInfoWndBase@@VioWndEXMouseEvent@@@@@8 ; ioWndEXEventHandlerEX<MercenaryInfoWndBase,ioWndEXMouseEvent> `RTTI Type Descriptor'
PUBLIC	??_R3?$ioWndEXEventHandlerEX@VMercenaryInfoWndBase@@VioWndEXMouseEvent@@@@8 ; ioWndEXEventHandlerEX<MercenaryInfoWndBase,ioWndEXMouseEvent>::`RTTI Class Hierarchy Descriptor'
PUBLIC	??_R2?$ioWndEXEventHandlerEX@VMercenaryInfoWndBase@@VioWndEXMouseEvent@@@@8 ; ioWndEXEventHandlerEX<MercenaryInfoWndBase,ioWndEXMouseEvent>::`RTTI Base Class Array'
PUBLIC	??_R1A@?0A@EA@?$ioWndEXEventHandlerEX@VMercenaryInfoWndBase@@VioWndEXMouseEvent@@@@8 ; ioWndEXEventHandlerEX<MercenaryInfoWndBase,ioWndEXMouseEvent>::`RTTI Base Class Descriptor at (0,-1,0,64)'
PUBLIC	??_R1A@?0A@EA@ioWndEXEventHandlerBase@@8	; ioWndEXEventHandlerBase::`RTTI Base Class Descriptor at (0,-1,0,64)'
PUBLIC	??_R0?AVioWndEXEventHandlerBase@@@8		; ioWndEXEventHandlerBase `RTTI Type Descriptor'
PUBLIC	??_R3ioWndEXEventHandlerBase@@8			; ioWndEXEventHandlerBase::`RTTI Class Hierarchy Descriptor'
PUBLIC	??_R2ioWndEXEventHandlerBase@@8			; ioWndEXEventHandlerBase::`RTTI Base Class Array'
PUBLIC	?Call@?$ioWndEXEventHandlerEX@VMercenaryInfoWndBase@@VioWndEXMouseEvent@@@@UAEXPAVioWndEX@@AAVioWndEXEvent@@@Z ; ioWndEXEventHandlerEX<MercenaryInfoWndBase,ioWndEXMouseEvent>::Call
EXTRN	__imp_??1ioWndEXEventHandlerBase@@UAE@XZ:PROC
EXTRN	??_E?$ioWndEXEventHandlerEX@VMercenaryInfoWndBase@@VioWndEXMouseEvent@@@@UAEPAXI@Z:PROC ; ioWndEXEventHandlerEX<MercenaryInfoWndBase,ioWndEXMouseEvent>::`vector deleting destructor'
;	COMDAT ??_R2ioWndEXEventHandlerBase@@8
; File d:\lost saga for developer\youtube\tutorial\source\src\lsclient\gui\iowndexeventhandlerex.h
rdata$r	SEGMENT
??_R2ioWndEXEventHandlerBase@@8 DD FLAT:??_R1A@?0A@EA@ioWndEXEventHandlerBase@@8 ; ioWndEXEventHandlerBase::`RTTI Base Class Array'
rdata$r	ENDS
;	COMDAT ??_R3ioWndEXEventHandlerBase@@8
rdata$r	SEGMENT
??_R3ioWndEXEventHandlerBase@@8 DD 00H			; ioWndEXEventHandlerBase::`RTTI Class Hierarchy Descriptor'
	DD	00H
	DD	01H
	DD	FLAT:??_R2ioWndEXEventHandlerBase@@8
rdata$r	ENDS
;	COMDAT ??_R0?AVioWndEXEventHandlerBase@@@8
_DATA	SEGMENT
??_R0?AVioWndEXEventHandlerBase@@@8 DD FLAT:??_7type_info@@6B@ ; ioWndEXEventHandlerBase `RTTI Type Descriptor'
	DD	00H
	DB	'.?AVioWndEXEventHandlerBase@@', 00H
_DATA	ENDS
;	COMDAT ??_R1A@?0A@EA@ioWndEXEventHandlerBase@@8
rdata$r	SEGMENT
??_R1A@?0A@EA@ioWndEXEventHandlerBase@@8 DD FLAT:??_R0?AVioWndEXEventHandlerBase@@@8 ; ioWndEXEventHandlerBase::`RTTI Base Class Descriptor at (0,-1,0,64)'
	DD	00H
	DD	00H
	DD	0ffffffffH
	DD	00H
	DD	040H
	DD	FLAT:??_R3ioWndEXEventHandlerBase@@8
rdata$r	ENDS
;	COMDAT ??_R1A@?0A@EA@?$ioWndEXEventHandlerEX@VMercenaryInfoWndBase@@VioWndEXMouseEvent@@@@8
rdata$r	SEGMENT
??_R1A@?0A@EA@?$ioWndEXEventHandlerEX@VMercenaryInfoWndBase@@VioWndEXMouseEvent@@@@8 DD FLAT:??_R0?AV?$ioWndEXEventHandlerEX@VMercenaryInfoWndBase@@VioWndEXMouseEvent@@@@@8 ; ioWndEXEventHandlerEX<MercenaryInfoWndBase,ioWndEXMouseEvent>::`RTTI Base Class Descriptor at (0,-1,0,64)'
	DD	01H
	DD	00H
	DD	0ffffffffH
	DD	00H
	DD	040H
	DD	FLAT:??_R3?$ioWndEXEventHandlerEX@VMercenaryInfoWndBase@@VioWndEXMouseEvent@@@@8
rdata$r	ENDS
;	COMDAT ??_R2?$ioWndEXEventHandlerEX@VMercenaryInfoWndBase@@VioWndEXMouseEvent@@@@8
rdata$r	SEGMENT
??_R2?$ioWndEXEventHandlerEX@VMercenaryInfoWndBase@@VioWndEXMouseEvent@@@@8 DD FLAT:??_R1A@?0A@EA@?$ioWndEXEventHandlerEX@VMercenaryInfoWndBase@@VioWndEXMouseEvent@@@@8 ; ioWndEXEventHandlerEX<MercenaryInfoWndBase,ioWndEXMouseEvent>::`RTTI Base Class Array'
	DD	FLAT:??_R1A@?0A@EA@ioWndEXEventHandlerBase@@8
rdata$r	ENDS
;	COMDAT ??_R3?$ioWndEXEventHandlerEX@VMercenaryInfoWndBase@@VioWndEXMouseEvent@@@@8
rdata$r	SEGMENT
??_R3?$ioWndEXEventHandlerEX@VMercenaryInfoWndBase@@VioWndEXMouseEvent@@@@8 DD 00H ; ioWndEXEventHandlerEX<MercenaryInfoWndBase,ioWndEXMouseEvent>::`RTTI Class Hierarchy Descriptor'
	DD	00H
	DD	02H
	DD	FLAT:??_R2?$ioWndEXEventHandlerEX@VMercenaryInfoWndBase@@VioWndEXMouseEvent@@@@8
rdata$r	ENDS
;	COMDAT ??_R0?AV?$ioWndEXEventHandlerEX@VMercenaryInfoWndBase@@VioWndEXMouseEvent@@@@@8
_DATA	SEGMENT
??_R0?AV?$ioWndEXEventHandlerEX@VMercenaryInfoWndBase@@VioWndEXMouseEvent@@@@@8 DD FLAT:??_7type_info@@6B@ ; ioWndEXEventHandlerEX<MercenaryInfoWndBase,ioWndEXMouseEvent> `RTTI Type Descriptor'
	DD	00H
	DB	'.?AV?$ioWndEXEventHandlerEX@VMercenaryInfoWndBase@@VioWn'
	DB	'dEXMouseEvent@@@@', 00H
_DATA	ENDS
;	COMDAT ??_R4?$ioWndEXEventHandlerEX@VMercenaryInfoWndBase@@VioWndEXMouseEvent@@@@6B@
rdata$r	SEGMENT
??_R4?$ioWndEXEventHandlerEX@VMercenaryInfoWndBase@@VioWndEXMouseEvent@@@@6B@ DD 00H ; ioWndEXEventHandlerEX<MercenaryInfoWndBase,ioWndEXMouseEvent>::`RTTI Complete Object Locator'
	DD	00H
	DD	00H
	DD	FLAT:??_R0?AV?$ioWndEXEventHandlerEX@VMercenaryInfoWndBase@@VioWndEXMouseEvent@@@@@8
	DD	FLAT:??_R3?$ioWndEXEventHandlerEX@VMercenaryInfoWndBase@@VioWndEXMouseEvent@@@@8
rdata$r	ENDS
;	COMDAT ??_7?$ioWndEXEventHandlerEX@VMercenaryInfoWndBase@@VioWndEXMouseEvent@@@@6B@
CONST	SEGMENT
??_7?$ioWndEXEventHandlerEX@VMercenaryInfoWndBase@@VioWndEXMouseEvent@@@@6B@ DD FLAT:??_R4?$ioWndEXEventHandlerEX@VMercenaryInfoWndBase@@VioWndEXMouseEvent@@@@6B@ ; ioWndEXEventHandlerEX<MercenaryInfoWndBase,ioWndEXMouseEvent>::`vftable'
	DD	FLAT:??_E?$ioWndEXEventHandlerEX@VMercenaryInfoWndBase@@VioWndEXMouseEvent@@@@UAEPAXI@Z
	DD	FLAT:?Call@?$ioWndEXEventHandlerEX@VMercenaryInfoWndBase@@VioWndEXMouseEvent@@@@UAEXPAVioWndEX@@AAVioWndEXEvent@@@Z
; Function compile flags: /Ogsp
CONST	ENDS
;	COMDAT ??1?$ioWndEXEventHandlerEX@VMercenaryInfoWndBase@@VioWndEXMouseEvent@@@@UAE@XZ
_TEXT	SEGMENT
??1?$ioWndEXEventHandlerEX@VMercenaryInfoWndBase@@VioWndEXMouseEvent@@@@UAE@XZ PROC ; ioWndEXEventHandlerEX<MercenaryInfoWndBase,ioWndEXMouseEvent>::~ioWndEXEventHandlerEX<MercenaryInfoWndBase,ioWndEXMouseEvent>, COMDAT
; _this$ = ecx

; 34   : 	{}

  00000	c7 01 00 00 00
	00		 mov	 DWORD PTR [ecx], OFFSET ??_7?$ioWndEXEventHandlerEX@VMercenaryInfoWndBase@@VioWndEXMouseEvent@@@@6B@
  00006	ff 25 00 00 00
	00		 jmp	 DWORD PTR __imp_??1ioWndEXEventHandlerBase@@UAE@XZ
??1?$ioWndEXEventHandlerEX@VMercenaryInfoWndBase@@VioWndEXMouseEvent@@@@UAE@XZ ENDP ; ioWndEXEventHandlerEX<MercenaryInfoWndBase,ioWndEXMouseEvent>::~ioWndEXEventHandlerEX<MercenaryInfoWndBase,ioWndEXMouseEvent>
; Function compile flags: /Ogsp
_TEXT	ENDS
;	COMDAT ?Call@?$ioWndEXEventHandlerEX@VMercenaryInfoWndBase@@VioWndEXMouseEvent@@@@UAEXPAVioWndEX@@AAVioWndEXEvent@@@Z
_TEXT	SEGMENT
_wnd$ = 8						; size = 4
_event$ = 12						; size = 4
?Call@?$ioWndEXEventHandlerEX@VMercenaryInfoWndBase@@VioWndEXMouseEvent@@@@UAEXPAVioWndEX@@AAVioWndEXEvent@@@Z PROC ; ioWndEXEventHandlerEX<MercenaryInfoWndBase,ioWndEXMouseEvent>::Call, COMDAT
; _this$ = ecx

; 37   : 	{

  00000	55		 push	 ebp
  00001	8b ec		 mov	 ebp, esp
  00003	8b c1		 mov	 eax, ecx

; 38   : 		if ( m_owner && m_callback ) {

  00005	8b 48 08	 mov	 ecx, DWORD PTR [eax+8]
  00008	85 c9		 test	 ecx, ecx
  0000a	74 0a		 je	 SHORT $LN1@Call
  0000c	8b 40 0c	 mov	 eax, DWORD PTR [eax+12]
  0000f	85 c0		 test	 eax, eax
  00011	74 03		 je	 SHORT $LN1@Call

; 40   : 		}
; 41   : 	}

  00013	5d		 pop	 ebp

; 39   : 			(m_owner->*m_callback)( wnd, ((EOT&)( event )) );

  00014	ff e0		 jmp	 eax
$LN1@Call:

; 40   : 		}
; 41   : 	}

  00016	5d		 pop	 ebp
  00017	c2 08 00	 ret	 8
?Call@?$ioWndEXEventHandlerEX@VMercenaryInfoWndBase@@VioWndEXMouseEvent@@@@UAEXPAVioWndEX@@AAVioWndEXEvent@@@Z ENDP ; ioWndEXEventHandlerEX<MercenaryInfoWndBase,ioWndEXMouseEvent>::Call
; Function compile flags: /Ogsp
_TEXT	ENDS
;	COMDAT ??_G?$ioWndEXEventHandlerEX@VMercenaryInfoWndBase@@VioWndEXMouseEvent@@@@UAEPAXI@Z
_TEXT	SEGMENT
___flags$ = 8						; size = 4
??_G?$ioWndEXEventHandlerEX@VMercenaryInfoWndBase@@VioWndEXMouseEvent@@@@UAEPAXI@Z PROC ; ioWndEXEventHandlerEX<MercenaryInfoWndBase,ioWndEXMouseEvent>::`scalar deleting destructor', COMDAT
; _this$ = ecx
  00000	55		 push	 ebp
  00001	8b ec		 mov	 ebp, esp
  00003	56		 push	 esi
  00004	8b f1		 mov	 esi, ecx
  00006	c7 06 00 00 00
	00		 mov	 DWORD PTR [esi], OFFSET ??_7?$ioWndEXEventHandlerEX@VMercenaryInfoWndBase@@VioWndEXMouseEvent@@@@6B@
  0000c	ff 15 00 00 00
	00		 call	 DWORD PTR __imp_??1ioWndEXEventHandlerBase@@UAE@XZ
  00012	f6 45 08 01	 test	 BYTE PTR ___flags$[ebp], 1
  00016	74 07		 je	 SHORT $LN1@scalar@2
  00018	56		 push	 esi
  00019	e8 00 00 00 00	 call	 ??3@YAXPAX@Z		; operator delete
  0001e	59		 pop	 ecx
$LN1@scalar@2:
  0001f	8b c6		 mov	 eax, esi
  00021	5e		 pop	 esi
  00022	5d		 pop	 ebp
  00023	c2 04 00	 ret	 4
??_G?$ioWndEXEventHandlerEX@VMercenaryInfoWndBase@@VioWndEXMouseEvent@@@@UAEPAXI@Z ENDP ; ioWndEXEventHandlerEX<MercenaryInfoWndBase,ioWndEXMouseEvent>::`scalar deleting destructor'
_TEXT	ENDS
PUBLIC	??0?$ioWndEXEventHandlerEX@VMercenaryInfoWndBase@@VioWndEXMouseEvent@@@@QAE@PAVMercenaryInfoWndBase@@P81@AEXPAVioWndEX@@AAVioWndEXMouseEvent@@@Z@Z ; ioWndEXEventHandlerEX<MercenaryInfoWndBase,ioWndEXMouseEvent>::ioWndEXEventHandlerEX<MercenaryInfoWndBase,ioWndEXMouseEvent>
EXTRN	__imp_??0ioWndEXEventHandlerBase@@QAE@PAVioWndEX@@@Z:PROC
; Function compile flags: /Ogsp
;	COMDAT ??0?$ioWndEXEventHandlerEX@VMercenaryInfoWndBase@@VioWndEXMouseEvent@@@@QAE@PAVMercenaryInfoWndBase@@P81@AEXPAVioWndEX@@AAVioWndEXMouseEvent@@@Z@Z
_TEXT	SEGMENT
_owner$ = 8						; size = 4
_cb$ = 12						; size = 4
??0?$ioWndEXEventHandlerEX@VMercenaryInfoWndBase@@VioWndEXMouseEvent@@@@QAE@PAVMercenaryInfoWndBase@@P81@AEXPAVioWndEX@@AAVioWndEXMouseEvent@@@Z@Z PROC ; ioWndEXEventHandlerEX<MercenaryInfoWndBase,ioWndEXMouseEvent>::ioWndEXEventHandlerEX<MercenaryInfoWndBase,ioWndEXMouseEvent>, COMDAT
; _this$ = ecx

; 31   : 	{}

  00000	55		 push	 ebp
  00001	8b ec		 mov	 ebp, esp
  00003	56		 push	 esi
  00004	57		 push	 edi
  00005	8b 7d 08	 mov	 edi, DWORD PTR _owner$[ebp]
  00008	57		 push	 edi
  00009	8b f1		 mov	 esi, ecx
  0000b	ff 15 00 00 00
	00		 call	 DWORD PTR __imp_??0ioWndEXEventHandlerBase@@QAE@PAVioWndEX@@@Z
  00011	8b 45 0c	 mov	 eax, DWORD PTR _cb$[ebp]
  00014	89 7e 08	 mov	 DWORD PTR [esi+8], edi
  00017	89 46 0c	 mov	 DWORD PTR [esi+12], eax
  0001a	5f		 pop	 edi
  0001b	c7 06 00 00 00
	00		 mov	 DWORD PTR [esi], OFFSET ??_7?$ioWndEXEventHandlerEX@VMercenaryInfoWndBase@@VioWndEXMouseEvent@@@@6B@
  00021	8b c6		 mov	 eax, esi
  00023	5e		 pop	 esi
  00024	5d		 pop	 ebp
  00025	c2 08 00	 ret	 8
??0?$ioWndEXEventHandlerEX@VMercenaryInfoWndBase@@VioWndEXMouseEvent@@@@QAE@PAVMercenaryInfoWndBase@@P81@AEXPAVioWndEX@@AAVioWndEXMouseEvent@@@Z@Z ENDP ; ioWndEXEventHandlerEX<MercenaryInfoWndBase,ioWndEXMouseEvent>::ioWndEXEventHandlerEX<MercenaryInfoWndBase,ioWndEXMouseEvent>
_TEXT	ENDS
PUBLIC	??_9MercenaryInfoWndBase@@$BBDI@AE		; MercenaryInfoWndBase::`vcall'{312}'
; Function compile flags: /Odsp
;	COMDAT ??_9MercenaryInfoWndBase@@$BBDI@AE
_TEXT	SEGMENT
??_9MercenaryInfoWndBase@@$BBDI@AE PROC			; MercenaryInfoWndBase::`vcall'{312}', COMDAT
  00000	8b 01		 mov	 eax, DWORD PTR [ecx]
  00002	ff a0 38 01 00
	00		 jmp	 DWORD PTR [eax+312]
??_9MercenaryInfoWndBase@@$BBDI@AE ENDP			; MercenaryInfoWndBase::`vcall'{312}'
_TEXT	ENDS
PUBLIC	??_9MercenaryInfoWndBase@@$BBDM@AE		; MercenaryInfoWndBase::`vcall'{316}'
; Function compile flags: /Odsp
;	COMDAT ??_9MercenaryInfoWndBase@@$BBDM@AE
_TEXT	SEGMENT
??_9MercenaryInfoWndBase@@$BBDM@AE PROC			; MercenaryInfoWndBase::`vcall'{316}', COMDAT
  00000	8b 01		 mov	 eax, DWORD PTR [ecx]
  00002	ff a0 3c 01 00
	00		 jmp	 DWORD PTR [eax+316]
??_9MercenaryInfoWndBase@@$BBDM@AE ENDP			; MercenaryInfoWndBase::`vcall'{316}'
; Function compile flags: /Ogsp
_TEXT	ENDS
;	COMDAT ??_GMercenaryInfoWnd@@UAEPAXI@Z
_TEXT	SEGMENT
___flags$ = 8						; size = 4
??_GMercenaryInfoWnd@@UAEPAXI@Z PROC			; MercenaryInfoWnd::`scalar deleting destructor', COMDAT
; _this$ = ecx
  00000	55		 push	 ebp
  00001	8b ec		 mov	 ebp, esp
  00003	56		 push	 esi
  00004	8b f1		 mov	 esi, ecx
  00006	e8 00 00 00 00	 call	 ??1MercenaryInfoWnd@@UAE@XZ ; MercenaryInfoWnd::~MercenaryInfoWnd
  0000b	f6 45 08 01	 test	 BYTE PTR ___flags$[ebp], 1
  0000f	74 07		 je	 SHORT $LN1@scalar@3
  00011	56		 push	 esi
  00012	e8 00 00 00 00	 call	 ??3@YAXPAX@Z		; operator delete
  00017	59		 pop	 ecx
$LN1@scalar@3:
  00018	8b c6		 mov	 eax, esi
  0001a	5e		 pop	 esi
  0001b	5d		 pop	 ebp
  0001c	c2 04 00	 ret	 4
??_GMercenaryInfoWnd@@UAEPAXI@Z ENDP			; MercenaryInfoWnd::`scalar deleting destructor'
_TEXT	ENDS
PUBLIC	??_7?$ioWndEXMouseEventHandlerEX@VMercenaryInfoWndBase@@@@6B@ ; ioWndEXMouseEventHandlerEX<MercenaryInfoWndBase>::`vftable'
PUBLIC	??0?$ioWndEXMouseEventHandlerEX@VMercenaryInfoWndBase@@@@QAE@PAVMercenaryInfoWndBase@@P81@AEXPAVioWndEX@@AAVioWndEXMouseEvent@@@Z@Z ; ioWndEXMouseEventHandlerEX<MercenaryInfoWndBase>::ioWndEXMouseEventHandlerEX<MercenaryInfoWndBase>
PUBLIC	??_R4?$ioWndEXMouseEventHandlerEX@VMercenaryInfoWndBase@@@@6B@ ; ioWndEXMouseEventHandlerEX<MercenaryInfoWndBase>::`RTTI Complete Object Locator'
PUBLIC	??_R0?AV?$ioWndEXMouseEventHandlerEX@VMercenaryInfoWndBase@@@@@8 ; ioWndEXMouseEventHandlerEX<MercenaryInfoWndBase> `RTTI Type Descriptor'
PUBLIC	??_R3?$ioWndEXMouseEventHandlerEX@VMercenaryInfoWndBase@@@@8 ; ioWndEXMouseEventHandlerEX<MercenaryInfoWndBase>::`RTTI Class Hierarchy Descriptor'
PUBLIC	??_R2?$ioWndEXMouseEventHandlerEX@VMercenaryInfoWndBase@@@@8 ; ioWndEXMouseEventHandlerEX<MercenaryInfoWndBase>::`RTTI Base Class Array'
PUBLIC	??_R1A@?0A@EA@?$ioWndEXMouseEventHandlerEX@VMercenaryInfoWndBase@@@@8 ; ioWndEXMouseEventHandlerEX<MercenaryInfoWndBase>::`RTTI Base Class Descriptor at (0,-1,0,64)'
EXTRN	??_E?$ioWndEXMouseEventHandlerEX@VMercenaryInfoWndBase@@@@UAEPAXI@Z:PROC ; ioWndEXMouseEventHandlerEX<MercenaryInfoWndBase>::`vector deleting destructor'
;	COMDAT ??_R1A@?0A@EA@?$ioWndEXMouseEventHandlerEX@VMercenaryInfoWndBase@@@@8
rdata$r	SEGMENT
??_R1A@?0A@EA@?$ioWndEXMouseEventHandlerEX@VMercenaryInfoWndBase@@@@8 DD FLAT:??_R0?AV?$ioWndEXMouseEventHandlerEX@VMercenaryInfoWndBase@@@@@8 ; ioWndEXMouseEventHandlerEX<MercenaryInfoWndBase>::`RTTI Base Class Descriptor at (0,-1,0,64)'
	DD	02H
	DD	00H
	DD	0ffffffffH
	DD	00H
	DD	040H
	DD	FLAT:??_R3?$ioWndEXMouseEventHandlerEX@VMercenaryInfoWndBase@@@@8
rdata$r	ENDS
;	COMDAT ??_R2?$ioWndEXMouseEventHandlerEX@VMercenaryInfoWndBase@@@@8
rdata$r	SEGMENT
??_R2?$ioWndEXMouseEventHandlerEX@VMercenaryInfoWndBase@@@@8 DD FLAT:??_R1A@?0A@EA@?$ioWndEXMouseEventHandlerEX@VMercenaryInfoWndBase@@@@8 ; ioWndEXMouseEventHandlerEX<MercenaryInfoWndBase>::`RTTI Base Class Array'
	DD	FLAT:??_R1A@?0A@EA@?$ioWndEXEventHandlerEX@VMercenaryInfoWndBase@@VioWndEXMouseEvent@@@@8
	DD	FLAT:??_R1A@?0A@EA@ioWndEXEventHandlerBase@@8
rdata$r	ENDS
;	COMDAT ??_R3?$ioWndEXMouseEventHandlerEX@VMercenaryInfoWndBase@@@@8
rdata$r	SEGMENT
??_R3?$ioWndEXMouseEventHandlerEX@VMercenaryInfoWndBase@@@@8 DD 00H ; ioWndEXMouseEventHandlerEX<MercenaryInfoWndBase>::`RTTI Class Hierarchy Descriptor'
	DD	00H
	DD	03H
	DD	FLAT:??_R2?$ioWndEXMouseEventHandlerEX@VMercenaryInfoWndBase@@@@8
rdata$r	ENDS
;	COMDAT ??_R0?AV?$ioWndEXMouseEventHandlerEX@VMercenaryInfoWndBase@@@@@8
_DATA	SEGMENT
??_R0?AV?$ioWndEXMouseEventHandlerEX@VMercenaryInfoWndBase@@@@@8 DD FLAT:??_7type_info@@6B@ ; ioWndEXMouseEventHandlerEX<MercenaryInfoWndBase> `RTTI Type Descriptor'
	DD	00H
	DB	'.?AV?$ioWndEXMouseEventHandlerEX@VMercenaryInfoWndBase@@'
	DB	'@@', 00H
_DATA	ENDS
;	COMDAT ??_R4?$ioWndEXMouseEventHandlerEX@VMercenaryInfoWndBase@@@@6B@
rdata$r	SEGMENT
??_R4?$ioWndEXMouseEventHandlerEX@VMercenaryInfoWndBase@@@@6B@ DD 00H ; ioWndEXMouseEventHandlerEX<MercenaryInfoWndBase>::`RTTI Complete Object Locator'
	DD	00H
	DD	00H
	DD	FLAT:??_R0?AV?$ioWndEXMouseEventHandlerEX@VMercenaryInfoWndBase@@@@@8
	DD	FLAT:??_R3?$ioWndEXMouseEventHandlerEX@VMercenaryInfoWndBase@@@@8
rdata$r	ENDS
;	COMDAT ??_7?$ioWndEXMouseEventHandlerEX@VMercenaryInfoWndBase@@@@6B@
CONST	SEGMENT
??_7?$ioWndEXMouseEventHandlerEX@VMercenaryInfoWndBase@@@@6B@ DD FLAT:??_R4?$ioWndEXMouseEventHandlerEX@VMercenaryInfoWndBase@@@@6B@ ; ioWndEXMouseEventHandlerEX<MercenaryInfoWndBase>::`vftable'
	DD	FLAT:??_E?$ioWndEXMouseEventHandlerEX@VMercenaryInfoWndBase@@@@UAEPAXI@Z
	DD	FLAT:?Call@?$ioWndEXEventHandlerEX@VMercenaryInfoWndBase@@VioWndEXMouseEvent@@@@UAEXPAVioWndEX@@AAVioWndEXEvent@@@Z
; Function compile flags: /Ogsp
CONST	ENDS
;	COMDAT ??0?$ioWndEXMouseEventHandlerEX@VMercenaryInfoWndBase@@@@QAE@PAVMercenaryInfoWndBase@@P81@AEXPAVioWndEX@@AAVioWndEXMouseEvent@@@Z@Z
_TEXT	SEGMENT
_owner$ = 8						; size = 4
_cb$ = 12						; size = 4
??0?$ioWndEXMouseEventHandlerEX@VMercenaryInfoWndBase@@@@QAE@PAVMercenaryInfoWndBase@@P81@AEXPAVioWndEX@@AAVioWndEXMouseEvent@@@Z@Z PROC ; ioWndEXMouseEventHandlerEX<MercenaryInfoWndBase>::ioWndEXMouseEventHandlerEX<MercenaryInfoWndBase>, COMDAT
; _this$ = ecx

; 60   : 	{}

  00000	55		 push	 ebp
  00001	8b ec		 mov	 ebp, esp
  00003	56		 push	 esi
  00004	ff 75 0c	 push	 DWORD PTR _cb$[ebp]
  00007	8b f1		 mov	 esi, ecx
  00009	ff 75 08	 push	 DWORD PTR _owner$[ebp]
  0000c	e8 00 00 00 00	 call	 ??0?$ioWndEXEventHandlerEX@VMercenaryInfoWndBase@@VioWndEXMouseEvent@@@@QAE@PAVMercenaryInfoWndBase@@P81@AEXPAVioWndEX@@AAVioWndEXMouseEvent@@@Z@Z ; ioWndEXEventHandlerEX<MercenaryInfoWndBase,ioWndEXMouseEvent>::ioWndEXEventHandlerEX<MercenaryInfoWndBase,ioWndEXMouseEvent>
  00011	c7 06 00 00 00
	00		 mov	 DWORD PTR [esi], OFFSET ??_7?$ioWndEXMouseEventHandlerEX@VMercenaryInfoWndBase@@@@6B@
  00017	8b c6		 mov	 eax, esi
  00019	5e		 pop	 esi
  0001a	5d		 pop	 ebp
  0001b	c2 08 00	 ret	 8
??0?$ioWndEXMouseEventHandlerEX@VMercenaryInfoWndBase@@@@QAE@PAVMercenaryInfoWndBase@@P81@AEXPAVioWndEX@@AAVioWndEXMouseEvent@@@Z@Z ENDP ; ioWndEXMouseEventHandlerEX<MercenaryInfoWndBase>::ioWndEXMouseEventHandlerEX<MercenaryInfoWndBase>
_TEXT	ENDS
PUBLIC	??1?$ioWndEXMouseEventHandlerEX@VMercenaryInfoWndBase@@@@UAE@XZ ; ioWndEXMouseEventHandlerEX<MercenaryInfoWndBase>::~ioWndEXMouseEventHandlerEX<MercenaryInfoWndBase>
; Function compile flags: /Ogsp
;	COMDAT ??1?$ioWndEXMouseEventHandlerEX@VMercenaryInfoWndBase@@@@UAE@XZ
_TEXT	SEGMENT
??1?$ioWndEXMouseEventHandlerEX@VMercenaryInfoWndBase@@@@UAE@XZ PROC ; ioWndEXMouseEventHandlerEX<MercenaryInfoWndBase>::~ioWndEXMouseEventHandlerEX<MercenaryInfoWndBase>, COMDAT
; _this$ = ecx

; 62   : 	virtual ~ioWndEXMouseEventHandlerEX() {}

  00000	c7 01 00 00 00
	00		 mov	 DWORD PTR [ecx], OFFSET ??_7?$ioWndEXEventHandlerEX@VMercenaryInfoWndBase@@VioWndEXMouseEvent@@@@6B@
  00006	ff 25 00 00 00
	00		 jmp	 DWORD PTR __imp_??1ioWndEXEventHandlerBase@@UAE@XZ
??1?$ioWndEXMouseEventHandlerEX@VMercenaryInfoWndBase@@@@UAE@XZ ENDP ; ioWndEXMouseEventHandlerEX<MercenaryInfoWndBase>::~ioWndEXMouseEventHandlerEX<MercenaryInfoWndBase>
; Function compile flags: /Ogsp
_TEXT	ENDS
;	COMDAT ??_G?$ioWndEXMouseEventHandlerEX@VMercenaryInfoWndBase@@@@UAEPAXI@Z
_TEXT	SEGMENT
___flags$ = 8						; size = 4
??_G?$ioWndEXMouseEventHandlerEX@VMercenaryInfoWndBase@@@@UAEPAXI@Z PROC ; ioWndEXMouseEventHandlerEX<MercenaryInfoWndBase>::`scalar deleting destructor', COMDAT
; _this$ = ecx
  00000	55		 push	 ebp
  00001	8b ec		 mov	 ebp, esp
  00003	56		 push	 esi
  00004	8b f1		 mov	 esi, ecx
  00006	c7 06 00 00 00
	00		 mov	 DWORD PTR [esi], OFFSET ??_7?$ioWndEXEventHandlerEX@VMercenaryInfoWndBase@@VioWndEXMouseEvent@@@@6B@
  0000c	ff 15 00 00 00
	00		 call	 DWORD PTR __imp_??1ioWndEXEventHandlerBase@@UAE@XZ
  00012	f6 45 08 01	 test	 BYTE PTR ___flags$[ebp], 1
  00016	74 07		 je	 SHORT $LN1@scalar@4
  00018	56		 push	 esi
  00019	e8 00 00 00 00	 call	 ??3@YAXPAX@Z		; operator delete
  0001e	59		 pop	 ecx
$LN1@scalar@4:
  0001f	8b c6		 mov	 eax, esi
  00021	5e		 pop	 esi
  00022	5d		 pop	 ebp
  00023	c2 04 00	 ret	 4
??_G?$ioWndEXMouseEventHandlerEX@VMercenaryInfoWndBase@@@@UAEPAXI@Z ENDP ; ioWndEXMouseEventHandlerEX<MercenaryInfoWndBase>::`scalar deleting destructor'
_TEXT	ENDS
EXTRN	__imp_?Connect@ioWndEX@@QAEXW4WNDEX_EVENT_TYPE@@PAVioWndEXEventHandlerBase@@@Z:PROC
EXTRN	??2@YAPAXI@Z:PROC				; operator new
EXTRN	__imp_?iwm_create@ioWndEX@@UAEXXZ:PROC
EXTRN	___CxxFrameHandler3:PROC
EXTRN	@__security_check_cookie@4:PROC
EXTRN	__EH_epilog3:PROC
EXTRN	__EH_prolog3:PROC
;	COMDAT xdata$x
xdata$x	SEGMENT
__unwindtable$?iwm_create@MercenaryInfoWndBase@@UAEXXZ DD 0ffffffffH
	DD	FLAT:__unwindfunclet$?iwm_create@MercenaryInfoWndBase@@UAEXXZ$0
	DD	0ffffffffH
	DD	FLAT:__unwindfunclet$?iwm_create@MercenaryInfoWndBase@@UAEXXZ$1
	DD	0ffffffffH
	DD	FLAT:__unwindfunclet$?iwm_create@MercenaryInfoWndBase@@UAEXXZ$2
__ehfuncinfo$?iwm_create@MercenaryInfoWndBase@@UAEXXZ DD 019930522H
	DD	03H
	DD	FLAT:__unwindtable$?iwm_create@MercenaryInfoWndBase@@UAEXXZ
	DD	2 DUP(00H)
	DD	2 DUP(00H)
	DD	00H
	DD	01H
; Function compile flags: /Ogsp
; File d:\lost saga for developer\youtube\tutorial\source\src\lsclient\gui\mercenaryinfowndbase.h
xdata$x	ENDS
;	COMDAT ?iwm_create@MercenaryInfoWndBase@@UAEXXZ
_TEXT	SEGMENT
$T505573 = -20						; size = 4
$T505569 = -20						; size = 4
$T505565 = -20						; size = 4
_child$505153 = -16					; size = 4
_child$505100 = -16					; size = 4
__$EHRec$ = -12						; size = 12
?iwm_create@MercenaryInfoWndBase@@UAEXXZ PROC		; MercenaryInfoWndBase::iwm_create, COMDAT
; _this$ = ecx

; 55   : 	{

  00000	6a 08		 push	 8
  00002	b8 00 00 00 00	 mov	 eax, __ehhandler$?iwm_create@MercenaryInfoWndBase@@UAEXXZ
  00007	e8 00 00 00 00	 call	 __EH_prolog3
  0000c	8b f1		 mov	 esi, ecx

; 56   : 		ioWndEX::iwm_create();

  0000e	ff 15 00 00 00
	00		 call	 DWORD PTR __imp_?iwm_create@ioWndEX@@UAEXXZ

; 57   : 
; 58   : 
; 59   : 
; 60   : 		{
; 61   : 				ioWndEX* child = (ioWndEX*)( FindChildWndEX(6) );

  00014	8b 1d 00 00 00
	00		 mov	 ebx, DWORD PTR __imp_?FindChildWndEX@ioWnd@@QAEPAV1@K_N@Z
  0001a	6a 00		 push	 0
  0001c	6a 06		 push	 6
  0001e	8b ce		 mov	 ecx, esi
  00020	ff d3		 call	 ebx
  00022	89 45 f0	 mov	 DWORD PTR _child$505100[ebp], eax

; 62   : 				if ( child ) {

  00025	85 c0		 test	 eax, eax
  00027	74 42		 je	 SHORT $LN3@iwm_create

; 63   : 					child->Connect( static_cast<WNDEX_EVENT_TYPE>(7), new ioWndEXMouseEventHandlerEX< MercenaryInfoWndBase >( this, &MercenaryInfoWndBase::OnClickBuy ) );

  00029	6a 10		 push	 16			; 00000010H
  0002b	e8 00 00 00 00	 call	 ??2@YAPAXI@Z		; operator new
  00030	8b f8		 mov	 edi, eax
  00032	59		 pop	 ecx
  00033	89 7d ec	 mov	 DWORD PTR $T505565[ebp], edi
  00036	83 65 fc 00	 and	 DWORD PTR __$EHRec$[ebp+8], 0
  0003a	85 ff		 test	 edi, edi
  0003c	74 1b		 je	 SHORT $LN6@iwm_create
  0003e	56		 push	 esi
  0003f	8b cf		 mov	 ecx, edi
  00041	ff 15 00 00 00
	00		 call	 DWORD PTR __imp_??0ioWndEXEventHandlerBase@@QAE@PAVioWndEX@@@Z
  00047	89 77 08	 mov	 DWORD PTR [edi+8], esi
  0004a	c7 47 0c 00 00
	00 00		 mov	 DWORD PTR [edi+12], OFFSET ??_9MercenaryInfoWndBase@@$BBDI@AE ; MercenaryInfoWndBase::`vcall'{312}'
  00051	c7 07 00 00 00
	00		 mov	 DWORD PTR [edi], OFFSET ??_7?$ioWndEXMouseEventHandlerEX@VMercenaryInfoWndBase@@@@6B@
  00057	eb 02		 jmp	 SHORT $LN7@iwm_create
$LN6@iwm_create:
  00059	33 ff		 xor	 edi, edi
$LN7@iwm_create:
  0005b	8b 4d f0	 mov	 ecx, DWORD PTR _child$505100[ebp]
  0005e	83 4d fc ff	 or	 DWORD PTR __$EHRec$[ebp+8], -1
  00062	57		 push	 edi
  00063	6a 07		 push	 7
  00065	ff 15 00 00 00
	00		 call	 DWORD PTR __imp_?Connect@ioWndEX@@QAEXW4WNDEX_EVENT_TYPE@@PAVioWndEXEventHandlerBase@@@Z
$LN3@iwm_create:

; 64   : 				}
; 65   : 		}
; 66   : 		{
; 67   : 				ioWndEX* child = (ioWndEX*)( FindChildWndEX(8) );

  0006b	6a 00		 push	 0
  0006d	6a 08		 push	 8
  0006f	8b ce		 mov	 ecx, esi
  00071	ff d3		 call	 ebx
  00073	89 45 f0	 mov	 DWORD PTR _child$505153[ebp], eax

; 68   : 				if ( child ) {

  00076	85 c0		 test	 eax, eax
  00078	74 45		 je	 SHORT $LN2@iwm_create

; 69   : 					child->Connect( static_cast<WNDEX_EVENT_TYPE>(7), new ioWndEXMouseEventHandlerEX< MercenaryInfoWndBase >( this, &MercenaryInfoWndBase::OnClickClose ) );

  0007a	6a 10		 push	 16			; 00000010H
  0007c	e8 00 00 00 00	 call	 ??2@YAPAXI@Z		; operator new
  00081	8b f8		 mov	 edi, eax
  00083	59		 pop	 ecx
  00084	89 7d ec	 mov	 DWORD PTR $T505569[ebp], edi
  00087	c7 45 fc 01 00
	00 00		 mov	 DWORD PTR __$EHRec$[ebp+8], 1
  0008e	85 ff		 test	 edi, edi
  00090	74 1b		 je	 SHORT $LN8@iwm_create
  00092	56		 push	 esi
  00093	8b cf		 mov	 ecx, edi
  00095	ff 15 00 00 00
	00		 call	 DWORD PTR __imp_??0ioWndEXEventHandlerBase@@QAE@PAVioWndEX@@@Z
  0009b	89 77 08	 mov	 DWORD PTR [edi+8], esi
  0009e	c7 47 0c 00 00
	00 00		 mov	 DWORD PTR [edi+12], OFFSET ??_9MercenaryInfoWndBase@@$BBDM@AE ; MercenaryInfoWndBase::`vcall'{316}'
  000a5	c7 07 00 00 00
	00		 mov	 DWORD PTR [edi], OFFSET ??_7?$ioWndEXMouseEventHandlerEX@VMercenaryInfoWndBase@@@@6B@
  000ab	eb 02		 jmp	 SHORT $LN9@iwm_create
$LN8@iwm_create:
  000ad	33 ff		 xor	 edi, edi
$LN9@iwm_create:
  000af	8b 4d f0	 mov	 ecx, DWORD PTR _child$505153[ebp]
  000b2	83 4d fc ff	 or	 DWORD PTR __$EHRec$[ebp+8], -1
  000b6	57		 push	 edi
  000b7	6a 07		 push	 7
  000b9	ff 15 00 00 00
	00		 call	 DWORD PTR __imp_?Connect@ioWndEX@@QAEXW4WNDEX_EVENT_TYPE@@PAVioWndEXEventHandlerBase@@@Z
$LN2@iwm_create:

; 70   : 				}
; 71   : 		}
; 72   : 		{
; 73   : 				ioWndEX* child = (ioWndEX*)( FindChildWndEX(9) );

  000bf	6a 00		 push	 0
  000c1	6a 09		 push	 9
  000c3	8b ce		 mov	 ecx, esi
  000c5	ff d3		 call	 ebx
  000c7	8b d8		 mov	 ebx, eax

; 74   : 				if ( child ) {

  000c9	85 db		 test	 ebx, ebx
  000cb	74 44		 je	 SHORT $LN1@iwm_create

; 75   : 					child->Connect( static_cast<WNDEX_EVENT_TYPE>(7), new ioWndEXMouseEventHandlerEX< MercenaryInfoWndBase >( this, &MercenaryInfoWndBase::OnClickClose ) );

  000cd	6a 10		 push	 16			; 00000010H
  000cf	e8 00 00 00 00	 call	 ??2@YAPAXI@Z		; operator new
  000d4	8b f8		 mov	 edi, eax
  000d6	59		 pop	 ecx
  000d7	89 7d ec	 mov	 DWORD PTR $T505573[ebp], edi
  000da	c7 45 fc 02 00
	00 00		 mov	 DWORD PTR __$EHRec$[ebp+8], 2
  000e1	85 ff		 test	 edi, edi
  000e3	74 1b		 je	 SHORT $LN10@iwm_create
  000e5	56		 push	 esi
  000e6	8b cf		 mov	 ecx, edi
  000e8	ff 15 00 00 00
	00		 call	 DWORD PTR __imp_??0ioWndEXEventHandlerBase@@QAE@PAVioWndEX@@@Z
  000ee	89 77 08	 mov	 DWORD PTR [edi+8], esi
  000f1	c7 47 0c 00 00
	00 00		 mov	 DWORD PTR [edi+12], OFFSET ??_9MercenaryInfoWndBase@@$BBDM@AE ; MercenaryInfoWndBase::`vcall'{316}'
  000f8	c7 07 00 00 00
	00		 mov	 DWORD PTR [edi], OFFSET ??_7?$ioWndEXMouseEventHandlerEX@VMercenaryInfoWndBase@@@@6B@
  000fe	eb 02		 jmp	 SHORT $LN11@iwm_create
$LN10@iwm_create:
  00100	33 ff		 xor	 edi, edi
$LN11@iwm_create:
  00102	83 4d fc ff	 or	 DWORD PTR __$EHRec$[ebp+8], -1
  00106	57		 push	 edi
  00107	6a 07		 push	 7
  00109	8b cb		 mov	 ecx, ebx
  0010b	ff 15 00 00 00
	00		 call	 DWORD PTR __imp_?Connect@ioWndEX@@QAEXW4WNDEX_EVENT_TYPE@@PAVioWndEXEventHandlerBase@@@Z
$LN1@iwm_create:

; 76   : 				}
; 77   : 		}
; 78   : 
; 79   : 	}

  00111	e8 00 00 00 00	 call	 __EH_epilog3
  00116	c3		 ret	 0
_TEXT	ENDS
;	COMDAT text$x
text$x	SEGMENT
__unwindfunclet$?iwm_create@MercenaryInfoWndBase@@UAEXXZ$0:
  00000	ff 75 ec	 push	 DWORD PTR $T505565[ebp]
  00003	e8 00 00 00 00	 call	 ??3@YAXPAX@Z		; operator delete
  00008	59		 pop	 ecx
  00009	c3		 ret	 0
__unwindfunclet$?iwm_create@MercenaryInfoWndBase@@UAEXXZ$1:
  0000a	ff 75 ec	 push	 DWORD PTR $T505569[ebp]
  0000d	e8 00 00 00 00	 call	 ??3@YAXPAX@Z		; operator delete
  00012	59		 pop	 ecx
  00013	c3		 ret	 0
__unwindfunclet$?iwm_create@MercenaryInfoWndBase@@UAEXXZ$2:
  00014	ff 75 ec	 push	 DWORD PTR $T505573[ebp]
  00017	e8 00 00 00 00	 call	 ??3@YAXPAX@Z		; operator delete
  0001c	59		 pop	 ecx
  0001d	c3		 ret	 0
__ehhandler$?iwm_create@MercenaryInfoWndBase@@UAEXXZ:
  0001e	8b 54 24 08	 mov	 edx, DWORD PTR [esp+8]
  00022	8d 42 0c	 lea	 eax, DWORD PTR [edx+12]
  00025	8b 4a e8	 mov	 ecx, DWORD PTR [edx-24]
  00028	33 c8		 xor	 ecx, eax
  0002a	e8 00 00 00 00	 call	 @__security_check_cookie@4
  0002f	b8 00 00 00 00	 mov	 eax, OFFSET __ehfuncinfo$?iwm_create@MercenaryInfoWndBase@@UAEXXZ
  00034	e9 00 00 00 00	 jmp	 ___CxxFrameHandler3
text$x	ENDS
?iwm_create@MercenaryInfoWndBase@@UAEXXZ ENDP		; MercenaryInfoWndBase::iwm_create
END
