; Listing generated by Microsoft (R) Optimizing Compiler Version 16.00.30319.01 

	TITLE	D:\Lost Saga For Developer\Youtube\Tutorial\Source\src\LSClient\GUI\MiniMap.cpp
	.686P
	.XMM
	include listing.inc
	.model	flat

INCLUDELIB MSVCRT
INCLUDELIB OLDNAMES

PUBLIC	?return5@@YAIXZ					; return5
; Function compile flags: /Ogsp
; File d:\lost saga for developer\youtube\tutorial\source\src\lsclient\stdafx.h
;	COMDAT ?return5@@YAIXZ
_TEXT	SEGMENT
?return5@@YAIXZ PROC					; return5, COMDAT

; 18   : 	__forceinline unsigned int return5() { __asm mov eax, 5 };

  00000	b8 05 00 00 00	 mov	 eax, 5
  00005	c3		 ret	 0
?return5@@YAIXZ ENDP					; return5
_TEXT	ENDS
PUBLIC	?return10@@YAIXZ				; return10
; Function compile flags: /Ogsp
;	COMDAT ?return10@@YAIXZ
_TEXT	SEGMENT
?return10@@YAIXZ PROC					; return10, COMDAT

; 21   : 	__forceinline unsigned int return10() { __asm mov eax, 10 };

  00000	b8 0a 00 00 00	 mov	 eax, 10			; 0000000aH
  00005	c3		 ret	 0
?return10@@YAIXZ ENDP					; return10
_TEXT	ENDS
PUBLIC	?return100@@YAIXZ				; return100
; Function compile flags: /Ogsp
;	COMDAT ?return100@@YAIXZ
_TEXT	SEGMENT
?return100@@YAIXZ PROC					; return100, COMDAT

; 25   : 	__forceinline unsigned int return100() { __asm mov eax, 100 };

  00000	b8 64 00 00 00	 mov	 eax, 100		; 00000064H
  00005	c3		 ret	 0
?return100@@YAIXZ ENDP					; return100
_TEXT	ENDS
PUBLIC	?return1000@@YAIXZ				; return1000
; Function compile flags: /Ogsp
;	COMDAT ?return1000@@YAIXZ
_TEXT	SEGMENT
?return1000@@YAIXZ PROC					; return1000, COMDAT

; 29   : 	__forceinline unsigned int return1000() { __asm mov eax, 1000 };

  00000	b8 e8 03 00 00	 mov	 eax, 1000		; 000003e8H
  00005	c3		 ret	 0
?return1000@@YAIXZ ENDP					; return1000
_TEXT	ENDS
PUBLIC	?return1000000000@@YAIXZ			; return1000000000
; Function compile flags: /Ogsp
;	COMDAT ?return1000000000@@YAIXZ
_TEXT	SEGMENT
?return1000000000@@YAIXZ PROC				; return1000000000, COMDAT

; 30   : 	__forceinline unsigned int return1000000000() { __asm mov eax, 1000000000 };

  00000	b8 00 ca 9a 3b	 mov	 eax, 1000000000		; 3b9aca00H
  00005	c3		 ret	 0
?return1000000000@@YAIXZ ENDP				; return1000000000
_TEXT	ENDS
PUBLIC	?return_PI@@YAIXZ				; return_PI
; Function compile flags: /Ogsp
;	COMDAT ?return_PI@@YAIXZ
_TEXT	SEGMENT
?return_PI@@YAIXZ PROC					; return_PI, COMDAT

; 31   : 	__forceinline unsigned int return_PI() { __asm mov eax,   3141592654 };

  00000	b8 4e e6 40 bb	 mov	 eax, -1153374642	; bb40e64eH
  00005	c3		 ret	 0
?return_PI@@YAIXZ ENDP					; return_PI
_TEXT	ENDS
PUBLIC	_cosf
EXTRN	__fltused:DWORD
EXTRN	__CIcos:PROC
; Function compile flags: /Ogsp
; File c:\program files (x86)\microsoft visual studio 10.0\vc\include\math.h
;	COMDAT _cosf
_TEXT	SEGMENT
tv69 = 8						; size = 4
__X$ = 8						; size = 4
_cosf	PROC						; COMDAT

; 410  :         {return ((float)cos((double)_X)); }

  00000	55		 push	 ebp
  00001	8b ec		 mov	 ebp, esp
  00003	d9 45 08	 fld	 DWORD PTR __X$[ebp]
  00006	e8 00 00 00 00	 call	 __CIcos
  0000b	d9 5d 08	 fstp	 DWORD PTR tv69[ebp]
  0000e	d9 45 08	 fld	 DWORD PTR tv69[ebp]
  00011	5d		 pop	 ebp
  00012	c3		 ret	 0
_cosf	ENDP
_TEXT	ENDS
PUBLIC	_sinf
EXTRN	__CIsin:PROC
; Function compile flags: /Ogsp
;	COMDAT _sinf
_TEXT	SEGMENT
tv69 = 8						; size = 4
__X$ = 8						; size = 4
_sinf	PROC						; COMDAT

; 430  :         {return ((float)sin((double)_X)); }

  00000	55		 push	 ebp
  00001	8b ec		 mov	 ebp, esp
  00003	d9 45 08	 fld	 DWORD PTR __X$[ebp]
  00006	e8 00 00 00 00	 call	 __CIsin
  0000b	d9 5d 08	 fstp	 DWORD PTR tv69[ebp]
  0000e	d9 45 08	 fld	 DWORD PTR tv69[ebp]
  00011	5d		 pop	 ebp
  00012	c3		 ret	 0
_sinf	ENDP
_TEXT	ENDS
PUBLIC	?cos@@YAMM@Z					; cos
; Function compile flags: /Ogsp
;	COMDAT ?cos@@YAMM@Z
_TEXT	SEGMENT
tv73 = 8						; size = 4
__X$ = 8						; size = 4
?cos@@YAMM@Z PROC					; cos, COMDAT

; 512  :         {return (cosf(_X)); }

  00000	55		 push	 ebp
  00001	8b ec		 mov	 ebp, esp
  00003	d9 45 08	 fld	 DWORD PTR __X$[ebp]
  00006	e8 00 00 00 00	 call	 __CIcos
  0000b	d9 5d 08	 fstp	 DWORD PTR tv73[ebp]
  0000e	d9 45 08	 fld	 DWORD PTR tv73[ebp]
  00011	5d		 pop	 ebp
  00012	c3		 ret	 0
?cos@@YAMM@Z ENDP					; cos
_TEXT	ENDS
PUBLIC	?sin@@YAMM@Z					; sin
; Function compile flags: /Ogsp
;	COMDAT ?sin@@YAMM@Z
_TEXT	SEGMENT
tv73 = 8						; size = 4
__X$ = 8						; size = 4
?sin@@YAMM@Z PROC					; sin, COMDAT

; 538  :         {return (sinf(_X)); }

  00000	55		 push	 ebp
  00001	8b ec		 mov	 ebp, esp
  00003	d9 45 08	 fld	 DWORD PTR __X$[ebp]
  00006	e8 00 00 00 00	 call	 __CIsin
  0000b	d9 5d 08	 fstp	 DWORD PTR tv73[ebp]
  0000e	d9 45 08	 fld	 DWORD PTR tv73[ebp]
  00011	5d		 pop	 ebp
  00012	c3		 ret	 0
?sin@@YAMM@Z ENDP					; sin
_TEXT	ENDS
PUBLIC	??_7bad_alloc@std@@6B@				; std::bad_alloc::`vftable'
PUBLIC	??0bad_alloc@std@@QAE@PBD@Z			; std::bad_alloc::bad_alloc
PUBLIC	??_R4bad_alloc@std@@6B@				; std::bad_alloc::`RTTI Complete Object Locator'
PUBLIC	??_R0?AVbad_alloc@std@@@8			; std::bad_alloc `RTTI Type Descriptor'
PUBLIC	??_R3bad_alloc@std@@8				; std::bad_alloc::`RTTI Class Hierarchy Descriptor'
PUBLIC	??_R2bad_alloc@std@@8				; std::bad_alloc::`RTTI Base Class Array'
PUBLIC	??_R1A@?0A@EA@bad_alloc@std@@8			; std::bad_alloc::`RTTI Base Class Descriptor at (0,-1,0,64)'
PUBLIC	??_R1A@?0A@EA@exception@std@@8			; std::exception::`RTTI Base Class Descriptor at (0,-1,0,64)'
PUBLIC	??_R0?AVexception@std@@@8			; std::exception `RTTI Type Descriptor'
PUBLIC	??_R3exception@std@@8				; std::exception::`RTTI Class Hierarchy Descriptor'
PUBLIC	??_R2exception@std@@8				; std::exception::`RTTI Base Class Array'
EXTRN	__imp_??0exception@std@@QAE@ABQBD@Z:PROC
EXTRN	??_7type_info@@6B@:QWORD			; type_info::`vftable'
EXTRN	??_Ebad_alloc@std@@UAEPAXI@Z:PROC		; std::bad_alloc::`vector deleting destructor'
EXTRN	?what@exception@std@@UBEPBDXZ:PROC		; std::exception::what
;	COMDAT ??_R2exception@std@@8
; File c:\program files (x86)\microsoft visual studio 10.0\vc\include\exception
rdata$r	SEGMENT
??_R2exception@std@@8 DD FLAT:??_R1A@?0A@EA@exception@std@@8 ; std::exception::`RTTI Base Class Array'
rdata$r	ENDS
;	COMDAT ??_R3exception@std@@8
rdata$r	SEGMENT
??_R3exception@std@@8 DD 00H				; std::exception::`RTTI Class Hierarchy Descriptor'
	DD	00H
	DD	01H
	DD	FLAT:??_R2exception@std@@8
rdata$r	ENDS
;	COMDAT ??_R0?AVexception@std@@@8
_DATA	SEGMENT
??_R0?AVexception@std@@@8 DD FLAT:??_7type_info@@6B@	; std::exception `RTTI Type Descriptor'
	DD	00H
	DB	'.?AVexception@std@@', 00H
_DATA	ENDS
;	COMDAT ??_R1A@?0A@EA@exception@std@@8
rdata$r	SEGMENT
??_R1A@?0A@EA@exception@std@@8 DD FLAT:??_R0?AVexception@std@@@8 ; std::exception::`RTTI Base Class Descriptor at (0,-1,0,64)'
	DD	00H
	DD	00H
	DD	0ffffffffH
	DD	00H
	DD	040H
	DD	FLAT:??_R3exception@std@@8
rdata$r	ENDS
;	COMDAT ??_R1A@?0A@EA@bad_alloc@std@@8
rdata$r	SEGMENT
??_R1A@?0A@EA@bad_alloc@std@@8 DD FLAT:??_R0?AVbad_alloc@std@@@8 ; std::bad_alloc::`RTTI Base Class Descriptor at (0,-1,0,64)'
	DD	01H
	DD	00H
	DD	0ffffffffH
	DD	00H
	DD	040H
	DD	FLAT:??_R3bad_alloc@std@@8
rdata$r	ENDS
;	COMDAT ??_R2bad_alloc@std@@8
rdata$r	SEGMENT
??_R2bad_alloc@std@@8 DD FLAT:??_R1A@?0A@EA@bad_alloc@std@@8 ; std::bad_alloc::`RTTI Base Class Array'
	DD	FLAT:??_R1A@?0A@EA@exception@std@@8
rdata$r	ENDS
;	COMDAT ??_R3bad_alloc@std@@8
rdata$r	SEGMENT
??_R3bad_alloc@std@@8 DD 00H				; std::bad_alloc::`RTTI Class Hierarchy Descriptor'
	DD	00H
	DD	02H
	DD	FLAT:??_R2bad_alloc@std@@8
rdata$r	ENDS
;	COMDAT ??_R0?AVbad_alloc@std@@@8
_DATA	SEGMENT
??_R0?AVbad_alloc@std@@@8 DD FLAT:??_7type_info@@6B@	; std::bad_alloc `RTTI Type Descriptor'
	DD	00H
	DB	'.?AVbad_alloc@std@@', 00H
_DATA	ENDS
;	COMDAT ??_R4bad_alloc@std@@6B@
rdata$r	SEGMENT
??_R4bad_alloc@std@@6B@ DD 00H				; std::bad_alloc::`RTTI Complete Object Locator'
	DD	00H
	DD	00H
	DD	FLAT:??_R0?AVbad_alloc@std@@@8
	DD	FLAT:??_R3bad_alloc@std@@8
rdata$r	ENDS
;	COMDAT ??_7bad_alloc@std@@6B@
CONST	SEGMENT
??_7bad_alloc@std@@6B@ DD FLAT:??_R4bad_alloc@std@@6B@	; std::bad_alloc::`vftable'
	DD	FLAT:??_Ebad_alloc@std@@UAEPAXI@Z
	DD	FLAT:?what@exception@std@@UBEPBDXZ
; Function compile flags: /Ogsp
CONST	ENDS
;	COMDAT ??0bad_alloc@std@@QAE@PBD@Z
_TEXT	SEGMENT
__Message$ = 8						; size = 4
??0bad_alloc@std@@QAE@PBD@Z PROC			; std::bad_alloc::bad_alloc, COMDAT
; _this$ = ecx

; 345  : 		{	// construct from message string

  00000	55		 push	 ebp
  00001	8b ec		 mov	 ebp, esp
  00003	56		 push	 esi
  00004	8d 45 08	 lea	 eax, DWORD PTR __Message$[ebp]
  00007	50		 push	 eax
  00008	8b f1		 mov	 esi, ecx
  0000a	ff 15 00 00 00
	00		 call	 DWORD PTR __imp_??0exception@std@@QAE@ABQBD@Z
  00010	c7 06 00 00 00
	00		 mov	 DWORD PTR [esi], OFFSET ??_7bad_alloc@std@@6B@

; 346  : 		}

  00016	8b c6		 mov	 eax, esi
  00018	5e		 pop	 esi
  00019	5d		 pop	 ebp
  0001a	c2 04 00	 ret	 4
??0bad_alloc@std@@QAE@PBD@Z ENDP			; std::bad_alloc::bad_alloc
_TEXT	ENDS
PUBLIC	??1bad_alloc@std@@UAE@XZ			; std::bad_alloc::~bad_alloc
EXTRN	__imp_??1exception@std@@UAE@XZ:PROC
; Function compile flags: /Ogsp
;	COMDAT ??1bad_alloc@std@@UAE@XZ
_TEXT	SEGMENT
??1bad_alloc@std@@UAE@XZ PROC				; std::bad_alloc::~bad_alloc, COMDAT
; _this$ = ecx

; 354  : 		{	// destroy the object

  00000	c7 01 00 00 00
	00		 mov	 DWORD PTR [ecx], OFFSET ??_7bad_alloc@std@@6B@

; 355  : 		}

  00006	ff 25 00 00 00
	00		 jmp	 DWORD PTR __imp_??1exception@std@@UAE@XZ
??1bad_alloc@std@@UAE@XZ ENDP				; std::bad_alloc::~bad_alloc
_TEXT	ENDS
EXTRN	??3@YAXPAX@Z:PROC				; operator delete
; Function compile flags: /Ogsp
;	COMDAT ??_Gbad_alloc@std@@UAEPAXI@Z
_TEXT	SEGMENT
___flags$ = 8						; size = 4
??_Gbad_alloc@std@@UAEPAXI@Z PROC			; std::bad_alloc::`scalar deleting destructor', COMDAT
; _this$ = ecx
  00000	55		 push	 ebp
  00001	8b ec		 mov	 ebp, esp
  00003	56		 push	 esi
  00004	8b f1		 mov	 esi, ecx
  00006	c7 06 00 00 00
	00		 mov	 DWORD PTR [esi], OFFSET ??_7bad_alloc@std@@6B@
  0000c	ff 15 00 00 00
	00		 call	 DWORD PTR __imp_??1exception@std@@UAE@XZ
  00012	f6 45 08 01	 test	 BYTE PTR ___flags$[ebp], 1
  00016	74 07		 je	 SHORT $LN1@scalar
  00018	56		 push	 esi
  00019	e8 00 00 00 00	 call	 ??3@YAXPAX@Z		; operator delete
  0001e	59		 pop	 ecx
$LN1@scalar:
  0001f	8b c6		 mov	 eax, esi
  00021	5e		 pop	 esi
  00022	5d		 pop	 ebp
  00023	c2 04 00	 ret	 4
??_Gbad_alloc@std@@UAEPAXI@Z ENDP			; std::bad_alloc::`scalar deleting destructor'
_TEXT	ENDS
PUBLIC	??2@YAPAXIPAX@Z					; operator new
; Function compile flags: /Ogsp
; File c:\program files (x86)\microsoft visual studio 10.0\vc\include\new
;	COMDAT ??2@YAPAXIPAX@Z
_TEXT	SEGMENT
___formal$ = 8						; size = 4
__Where$ = 12						; size = 4
??2@YAPAXIPAX@Z PROC					; operator new, COMDAT

; 56   : 	{	// construct array with placement at _Where

  00000	55		 push	 ebp
  00001	8b ec		 mov	 ebp, esp

; 57   : 	return (_Where);

  00003	8b 45 0c	 mov	 eax, DWORD PTR __Where$[ebp]

; 58   : 	}

  00006	5d		 pop	 ebp
  00007	c3		 ret	 0
??2@YAPAXIPAX@Z ENDP					; operator new
_TEXT	ENDS
PUBLIC	??3@YAXPAX0@Z					; operator delete
; Function compile flags: /Ogsp
;	COMDAT ??3@YAXPAX0@Z
_TEXT	SEGMENT
___formal$ = 8						; size = 4
___formal$ = 12						; size = 4
??3@YAXPAX0@Z PROC					; operator delete, COMDAT

; 62   : 	}

  00000	c3		 ret	 0
??3@YAXPAX0@Z ENDP					; operator delete
_TEXT	ENDS
PUBLIC	?GetOwnerTeam@MiniMap@@IAE?AW4TeamType@@XZ	; MiniMap::GetOwnerTeam
EXTRN	?GetOwnerTeam@ioPlayMode@@QAE?AW4TeamType@@XZ:PROC ; ioPlayMode::GetOwnerTeam
; Function compile flags: /Ogsp
; File d:\lost saga for developer\youtube\tutorial\source\src\lsclient\gui\minimap.cpp
;	COMDAT ?GetOwnerTeam@MiniMap@@IAE?AW4TeamType@@XZ
_TEXT	SEGMENT
?GetOwnerTeam@MiniMap@@IAE?AW4TeamType@@XZ PROC		; MiniMap::GetOwnerTeam, COMDAT
; _this$ = ecx

; 159  : 	if( m_pModeParent )

  00000	8b 89 a0 01 00
	00		 mov	 ecx, DWORD PTR [ecx+416]
  00006	85 c9		 test	 ecx, ecx
  00008	74 05		 je	 SHORT $LN1@GetOwnerTe

; 160  : 		return m_pModeParent->GetOwnerTeam();

  0000a	e9 00 00 00 00	 jmp	 ?GetOwnerTeam@ioPlayMode@@QAE?AW4TeamType@@XZ ; ioPlayMode::GetOwnerTeam
$LN1@GetOwnerTe:

; 161  : 
; 162  : 	return TEAM_NONE;

  0000f	33 c0		 xor	 eax, eax

; 163  : }

  00011	c3		 ret	 0
?GetOwnerTeam@MiniMap@@IAE?AW4TeamType@@XZ ENDP		; MiniMap::GetOwnerTeam
_TEXT	ENDS
PUBLIC	?GetPointOffsetX@MiniMap@@IAEHM@Z		; MiniMap::GetPointOffsetX
EXTRN	__imp_?GetWidth@ioUIRenderElement@@QBEHXZ:PROC
; Function compile flags: /Ogsp
;	COMDAT ?GetPointOffsetX@MiniMap@@IAEHM@Z
_TEXT	SEGMENT
_fXPos$ = 8						; size = 4
?GetPointOffsetX@MiniMap@@IAEHM@Z PROC			; MiniMap::GetPointOffsetX, COMDAT
; _this$ = ecx

; 166  : {

  00000	55		 push	 ebp
  00001	8b ec		 mov	 ebp, esp
  00003	56		 push	 esi
  00004	8b f1		 mov	 esi, ecx

; 167  : 	if( !m_pMiniMap )

  00006	8b 8e cc 01 00
	00		 mov	 ecx, DWORD PTR [esi+460]
  0000c	85 c9		 test	 ecx, ecx
  0000e	75 04		 jne	 SHORT $LN1@GetPointOf

; 168  : 		return 0;

  00010	33 c0		 xor	 eax, eax
  00012	eb 6c		 jmp	 SHORT $LN2@GetPointOf
$LN1@GetPointOf:

; 169  : 
; 170  : 	fXPos -= m_fMapStartX;

  00014	f3 0f 10 45 08	 movss	 xmm0, DWORD PTR _fXPos$[ebp]
  00019	f3 0f 10 8e a4
	01 00 00	 movss	 xmm1, DWORD PTR [esi+420]
  00021	0f 5a c0	 cvtps2pd xmm0, xmm0
  00024	0f 5a c9	 cvtps2pd xmm1, xmm1
  00027	f2 0f 5c c1	 subsd	 xmm0, xmm1
  0002b	66 0f 5a c0	 cvtpd2ps xmm0, xmm0
  0002f	f3 0f 11 45 08	 movss	 DWORD PTR _fXPos$[ebp], xmm0

; 171  : 
; 172  : 	int iMiniWidth =m_pMiniMap->GetWidth();

  00034	ff 15 00 00 00
	00		 call	 DWORD PTR __imp_?GetWidth@ioUIRenderElement@@QBEHXZ

; 173  : 	int iOffsetX = (int)( fXPos * ( (float)iMiniWidth / m_fMapRealWidth ) );

  0003a	f3 0f 10 8e ac
	01 00 00	 movss	 xmm1, DWORD PTR [esi+428]
  00042	0f 57 c0	 xorps	 xmm0, xmm0
  00045	f3 0f 2a c0	 cvtsi2ss xmm0, eax
  00049	0f 5a c9	 cvtps2pd xmm1, xmm1
  0004c	0f 5a c0	 cvtps2pd xmm0, xmm0
  0004f	f2 0f 5e c1	 divsd	 xmm0, xmm1
  00053	f3 0f 10 4d 08	 movss	 xmm1, DWORD PTR _fXPos$[ebp]
  00058	0f 5a c9	 cvtps2pd xmm1, xmm1
  0005b	f2 0f 59 c1	 mulsd	 xmm0, xmm1
  0005f	f2 0f 2c c8	 cvttsd2si ecx, xmm0

; 174  : 	iOffsetX = max( 0, min( iOffsetX, iMiniWidth ) ) + m_iPointOffX;

  00063	3b c8		 cmp	 ecx, eax
  00065	8b d1		 mov	 edx, ecx
  00067	0f 4d d0	 cmovge	 edx, eax
  0006a	85 d2		 test	 edx, edx
  0006c	79 04		 jns	 SHORT $LN8@GetPointOf
  0006e	33 c9		 xor	 ecx, ecx
  00070	eb 06		 jmp	 SHORT $LN7@GetPointOf
$LN8@GetPointOf:
  00072	3b c8		 cmp	 ecx, eax
  00074	7c 02		 jl	 SHORT $LN7@GetPointOf
  00076	8b c8		 mov	 ecx, eax
$LN7@GetPointOf:
  00078	8b 86 bc 01 00
	00		 mov	 eax, DWORD PTR [esi+444]
  0007e	03 c1		 add	 eax, ecx
$LN2@GetPointOf:
  00080	5e		 pop	 esi

; 175  : 
; 176  : 	return iOffsetX;
; 177  : }

  00081	5d		 pop	 ebp
  00082	c2 04 00	 ret	 4
?GetPointOffsetX@MiniMap@@IAEHM@Z ENDP			; MiniMap::GetPointOffsetX
_TEXT	ENDS
PUBLIC	?GetPointOffsetY@MiniMap@@IAEHM@Z		; MiniMap::GetPointOffsetY
EXTRN	__imp_?GetHeight@ioUIRenderElement@@QBEHXZ:PROC
; Function compile flags: /Ogsp
;	COMDAT ?GetPointOffsetY@MiniMap@@IAEHM@Z
_TEXT	SEGMENT
_fZPos$ = 8						; size = 4
?GetPointOffsetY@MiniMap@@IAEHM@Z PROC			; MiniMap::GetPointOffsetY, COMDAT
; _this$ = ecx

; 180  : {

  00000	55		 push	 ebp
  00001	8b ec		 mov	 ebp, esp
  00003	56		 push	 esi
  00004	8b f1		 mov	 esi, ecx

; 181  : 	if( !m_pMiniMap )

  00006	8b 8e cc 01 00
	00		 mov	 ecx, DWORD PTR [esi+460]
  0000c	85 c9		 test	 ecx, ecx
  0000e	75 04		 jne	 SHORT $LN1@GetPointOf@2

; 182  : 		return 0;

  00010	33 c0		 xor	 eax, eax
  00012	eb 70		 jmp	 SHORT $LN2@GetPointOf@2
$LN1@GetPointOf@2:

; 183  : 
; 184  : 	fZPos -= m_fMapStartZ;

  00014	f3 0f 10 45 08	 movss	 xmm0, DWORD PTR _fZPos$[ebp]
  00019	f3 0f 10 8e a8
	01 00 00	 movss	 xmm1, DWORD PTR [esi+424]
  00021	0f 5a c0	 cvtps2pd xmm0, xmm0
  00024	0f 5a c9	 cvtps2pd xmm1, xmm1
  00027	f2 0f 5c c1	 subsd	 xmm0, xmm1
  0002b	66 0f 5a c0	 cvtpd2ps xmm0, xmm0
  0002f	f3 0f 11 45 08	 movss	 DWORD PTR _fZPos$[ebp], xmm0

; 185  : 
; 186  : 	int iMiniHeight =m_pMiniMap->GetHeight();

  00034	ff 15 00 00 00
	00		 call	 DWORD PTR __imp_?GetHeight@ioUIRenderElement@@QBEHXZ

; 187  : 	int iOffsetY = iMiniHeight - (int)( fZPos * ( (float)iMiniHeight / m_fMapRealHeight ) );

  0003a	f3 0f 10 8e b0
	01 00 00	 movss	 xmm1, DWORD PTR [esi+432]
  00042	0f 57 c0	 xorps	 xmm0, xmm0
  00045	f3 0f 2a c0	 cvtsi2ss xmm0, eax
  00049	0f 5a c9	 cvtps2pd xmm1, xmm1
  0004c	0f 5a c0	 cvtps2pd xmm0, xmm0
  0004f	f2 0f 5e c1	 divsd	 xmm0, xmm1
  00053	f3 0f 10 4d 08	 movss	 xmm1, DWORD PTR _fZPos$[ebp]
  00058	0f 5a c9	 cvtps2pd xmm1, xmm1
  0005b	f2 0f 59 c1	 mulsd	 xmm0, xmm1
  0005f	f2 0f 2c d0	 cvttsd2si edx, xmm0
  00063	8b c8		 mov	 ecx, eax
  00065	2b ca		 sub	 ecx, edx

; 188  : 	iOffsetY = max( 0, min( iOffsetY, iMiniHeight ) ) + m_iPointOffY;

  00067	3b c8		 cmp	 ecx, eax
  00069	8b d1		 mov	 edx, ecx
  0006b	0f 4d d0	 cmovge	 edx, eax
  0006e	85 d2		 test	 edx, edx
  00070	79 04		 jns	 SHORT $LN8@GetPointOf@2
  00072	33 c9		 xor	 ecx, ecx
  00074	eb 06		 jmp	 SHORT $LN7@GetPointOf@2
$LN8@GetPointOf@2:
  00076	3b c8		 cmp	 ecx, eax
  00078	7c 02		 jl	 SHORT $LN7@GetPointOf@2
  0007a	8b c8		 mov	 ecx, eax
$LN7@GetPointOf@2:
  0007c	8b 86 c0 01 00
	00		 mov	 eax, DWORD PTR [esi+448]
  00082	03 c1		 add	 eax, ecx
$LN2@GetPointOf@2:
  00084	5e		 pop	 esi

; 189  : 
; 190  : 	return iOffsetY;
; 191  : }

  00085	5d		 pop	 ebp
  00086	c2 04 00	 ret	 4
?GetPointOffsetY@MiniMap@@IAEHM@Z ENDP			; MiniMap::GetPointOffsetY
_TEXT	ENDS
PUBLIC	?CheckEnableRenderPoint@MiniMap@@IAE_NK@Z	; MiniMap::CheckEnableRenderPoint
; Function compile flags: /Ogsp
;	COMDAT ?CheckEnableRenderPoint@MiniMap@@IAE_NK@Z
_TEXT	SEGMENT
_dwGapTime$ = 8						; size = 4
?CheckEnableRenderPoint@MiniMap@@IAE_NK@Z PROC		; MiniMap::CheckEnableRenderPoint, COMDAT
; _this$ = ecx

; 194  : {

  00000	55		 push	 ebp
  00001	8b ec		 mov	 ebp, esp

; 195  : 	if( dwGapTime == 0 ) return true;

  00003	8b 55 08	 mov	 edx, DWORD PTR _dwGapTime$[ebp]
  00006	85 d2		 test	 edx, edx
  00008	75 04		 jne	 SHORT $LN13@CheckEnabl
  0000a	b0 01		 mov	 al, 1
  0000c	eb 4c		 jmp	 SHORT $LN14@CheckEnabl
$LN13@CheckEnabl:
  0000e	56		 push	 esi

; 196  : 
; 197  : 	if( m_dwSpotHideGap == 0 ) return true;

  0000f	8b b1 b0 02 00
	00		 mov	 esi, DWORD PTR [ecx+688]
  00015	85 f6		 test	 esi, esi
  00017	74 0a		 je	 SHORT $LN19@CheckEnabl

; 198  : 	if( m_dwSpotDuration == 0 ) return true;

  00019	8b 81 a8 02 00
	00		 mov	 eax, DWORD PTR [ecx+680]
  0001f	85 c0		 test	 eax, eax
  00021	75 04		 jne	 SHORT $LN11@CheckEnabl
$LN19@CheckEnabl:
  00023	b0 01		 mov	 al, 1
  00025	eb 32		 jmp	 SHORT $LN17@CheckEnabl
$LN11@CheckEnabl:

; 199  : 
; 200  : 	if( m_dwSpotVisibleGap == 0 ) return false;

  00027	8b 89 ac 02 00
	00		 mov	 ecx, DWORD PTR [ecx+684]
  0002d	85 c9		 test	 ecx, ecx
  0002f	75 04		 jne	 SHORT $LN10@CheckEnabl
  00031	32 c0		 xor	 al, al
  00033	eb 24		 jmp	 SHORT $LN17@CheckEnabl
$LN10@CheckEnabl:

; 201  : 	if( dwGapTime >= m_dwSpotDuration ) return true;

  00035	3b d0		 cmp	 edx, eax
  00037	b0 01		 mov	 al, 1
  00039	73 1e		 jae	 SHORT $LN17@CheckEnabl
$LL8@CheckEnabl:

; 207  : 	{
; 208  : 		if( bVisible )

  0003b	84 c0		 test	 al, al
  0003d	74 0a		 je	 SHORT $LN6@CheckEnabl

; 209  : 		{
; 210  : 			if( dwGapTime >= m_dwSpotVisibleGap )

  0003f	3b d1		 cmp	 edx, ecx
  00041	72 10		 jb	 SHORT $LN2@CheckEnabl

; 211  : 			{
; 212  : 				dwGapTime -= m_dwSpotVisibleGap;

  00043	2b d1		 sub	 edx, ecx

; 213  : 				bVisible = false;

  00045	32 c0		 xor	 al, al

; 214  : 			}
; 215  : 			else
; 216  : 			{
; 217  : 				dwGapTime = 0;
; 218  : 			}
; 219  : 		}
; 220  : 		else

  00047	eb 0c		 jmp	 SHORT $LN1@CheckEnabl
$LN6@CheckEnabl:

; 221  : 		{
; 222  : 			if( dwGapTime >= m_dwSpotHideGap )

  00049	3b d6		 cmp	 edx, esi
  0004b	72 06		 jb	 SHORT $LN2@CheckEnabl

; 223  : 			{
; 224  : 				dwGapTime -= m_dwSpotHideGap;

  0004d	2b d6		 sub	 edx, esi

; 225  : 				bVisible = true;

  0004f	b0 01		 mov	 al, 1

; 226  : 			}
; 227  : 			else

  00051	eb 02		 jmp	 SHORT $LN1@CheckEnabl
$LN2@CheckEnabl:

; 228  : 			{
; 229  : 				dwGapTime = 0;

  00053	33 d2		 xor	 edx, edx
$LN1@CheckEnabl:

; 202  : 
; 203  : 	DWORD dwCurGap = dwGapTime;
; 204  : 
; 205  : 	bool bVisible = true;
; 206  : 	while( dwGapTime != 0 )

  00055	85 d2		 test	 edx, edx
  00057	75 e2		 jne	 SHORT $LL8@CheckEnabl
$LN17@CheckEnabl:
  00059	5e		 pop	 esi
$LN14@CheckEnabl:

; 230  : 			}
; 231  : 		}
; 232  : 	}
; 233  : 
; 234  : 	return bVisible;
; 235  : }

  0005a	5d		 pop	 ebp
  0005b	c2 04 00	 ret	 4
?CheckEnableRenderPoint@MiniMap@@IAE_NK@Z ENDP		; MiniMap::CheckEnableRenderPoint
_TEXT	ENDS
PUBLIC	?AddEvent@MiniMap@@QAEXMMW4EventType@1@W4TeamType@@@Z ; MiniMap::AddEvent
; Function compile flags: /Ogsp
;	COMDAT ?AddEvent@MiniMap@@QAEXMMW4EventType@1@W4TeamType@@@Z
_TEXT	SEGMENT
_fXPos$ = 8						; size = 4
_fZPos$ = 12						; size = 4
_eEvent$ = 16						; size = 4
_eTeam$ = 20						; size = 4
?AddEvent@MiniMap@@QAEXMMW4EventType@1@W4TeamType@@@Z PROC ; MiniMap::AddEvent, COMDAT
; _this$ = ecx

; 253  : 	// 사용하지 않음
; 254  : }

  00000	c2 10 00	 ret	 16			; 00000010H
?AddEvent@MiniMap@@QAEXMMW4EventType@1@W4TeamType@@@Z ENDP ; MiniMap::AddEvent
_TEXT	ENDS
PUBLIC	?AddNextSymbolEvent@MiniMap@@QAEXABUD3DXVECTOR3@@0W4TeamType@@@Z ; MiniMap::AddNextSymbolEvent
; Function compile flags: /Ogsp
;	COMDAT ?AddNextSymbolEvent@MiniMap@@QAEXABUD3DXVECTOR3@@0W4TeamType@@@Z
_TEXT	SEGMENT
_vPos$ = 8						; size = 4
_vDir$ = 12						; size = 4
_eTeam$ = 16						; size = 4
?AddNextSymbolEvent@MiniMap@@QAEXABUD3DXVECTOR3@@0W4TeamType@@@Z PROC ; MiniMap::AddNextSymbolEvent, COMDAT
; _this$ = ecx

; 260  : 	// 사용하지 않음
; 261  : }

  00000	c2 0c 00	 ret	 12			; 0000000cH
?AddNextSymbolEvent@MiniMap@@QAEXABUD3DXVECTOR3@@0W4TeamType@@@Z ENDP ; MiniMap::AddNextSymbolEvent
_TEXT	ENDS
PUBLIC	?_Adopt@_Iterator_base0@std@@QAEXPBX@Z		; std::_Iterator_base0::_Adopt
; Function compile flags: /Ogsp
; File c:\program files (x86)\microsoft visual studio 10.0\vc\include\xutility
;	COMDAT ?_Adopt@_Iterator_base0@std@@QAEXPBX@Z
_TEXT	SEGMENT
___formal$ = 8						; size = 4
?_Adopt@_Iterator_base0@std@@QAEXPBX@Z PROC		; std::_Iterator_base0::_Adopt, COMDAT
; _this$ = ecx

; 49   : 		}

  00000	c2 04 00	 ret	 4
?_Adopt@_Iterator_base0@std@@QAEXPBX@Z ENDP		; std::_Iterator_base0::_Adopt
_TEXT	ENDS
PUBLIC	??_C@_04IAEKAMNC@YPos?$AA@			; `string'
PUBLIC	??_C@_07JPODNNIL@MiniMap?$AA@			; `string'
PUBLIC	??_C@_04LNCKCFGC@XPos?$AA@			; `string'
PUBLIC	?iwm_create@MiniMap@@UAEXXZ			; MiniMap::iwm_create
EXTRN	__imp_?GetDerivedPosY@ioWnd@@QBEHXZ:PROC
EXTRN	__imp_?GetDerivedPosX@ioWnd@@QBEHXZ:PROC
EXTRN	__imp_?SetWndPos@ioWnd@@QAEXHH@Z:PROC
EXTRN	?Height@Setting@@SAHXZ:PROC			; Setting::Height
EXTRN	?Width@Setting@@SAHXZ:PROC			; Setting::Width
EXTRN	__imp_?GetYPos@ioWnd@@QBEHXZ:PROC
EXTRN	?GUIPosLoadInt@ioSP2GUIManager@@QAEHPBD0HH@Z:PROC ; ioSP2GUIManager::GUIPosLoadInt
EXTRN	?GetSingleton@ioSP2GUIManager@@SAAAV1@XZ:PROC	; ioSP2GUIManager::GetSingleton
EXTRN	__imp_?GetXPos@ioWnd@@QBEHXZ:PROC
;	COMDAT ??_C@_04IAEKAMNC@YPos?$AA@
; File d:\lost saga for developer\youtube\tutorial\source\src\lsclient\gui\minimap.cpp
CONST	SEGMENT
??_C@_04IAEKAMNC@YPos?$AA@ DB 'YPos', 00H		; `string'
CONST	ENDS
;	COMDAT ??_C@_07JPODNNIL@MiniMap?$AA@
CONST	SEGMENT
??_C@_07JPODNNIL@MiniMap?$AA@ DB 'MiniMap', 00H		; `string'
CONST	ENDS
;	COMDAT ??_C@_04LNCKCFGC@XPos?$AA@
CONST	SEGMENT
??_C@_04LNCKCFGC@XPos?$AA@ DB 'XPos', 00H		; `string'
; Function compile flags: /Ogsp
CONST	ENDS
;	COMDAT ?iwm_create@MiniMap@@UAEXXZ
_TEXT	SEGMENT
?iwm_create@MiniMap@@UAEXXZ PROC			; MiniMap::iwm_create, COMDAT
; _this$ = ecx

; 465  : {

  00000	53		 push	 ebx
  00001	56		 push	 esi
  00002	57		 push	 edi

; 466  : 	int iXPos = g_GUIMgr.GUIPosLoadInt( "MiniMap", "XPos", GetXPos() ,POS_SAVE_VERSION );

  00003	6a 04		 push	 4
  00005	8b f9		 mov	 edi, ecx
  00007	ff 15 00 00 00
	00		 call	 DWORD PTR __imp_?GetXPos@ioWnd@@QBEHXZ
  0000d	50		 push	 eax
  0000e	68 00 00 00 00	 push	 OFFSET ??_C@_04LNCKCFGC@XPos?$AA@
  00013	be 00 00 00 00	 mov	 esi, OFFSET ??_C@_07JPODNNIL@MiniMap?$AA@
  00018	56		 push	 esi
  00019	e8 00 00 00 00	 call	 ?GetSingleton@ioSP2GUIManager@@SAAAV1@XZ ; ioSP2GUIManager::GetSingleton
  0001e	8b c8		 mov	 ecx, eax
  00020	e8 00 00 00 00	 call	 ?GUIPosLoadInt@ioSP2GUIManager@@QAEHPBD0HH@Z ; ioSP2GUIManager::GUIPosLoadInt

; 467  : 	int iYPos = g_GUIMgr.GUIPosLoadInt( "MiniMap", "YPos", GetYPos() ,POS_SAVE_VERSION );

  00025	6a 04		 push	 4
  00027	8b cf		 mov	 ecx, edi
  00029	8b d8		 mov	 ebx, eax
  0002b	ff 15 00 00 00
	00		 call	 DWORD PTR __imp_?GetYPos@ioWnd@@QBEHXZ
  00031	50		 push	 eax
  00032	68 00 00 00 00	 push	 OFFSET ??_C@_04IAEKAMNC@YPos?$AA@
  00037	56		 push	 esi
  00038	e8 00 00 00 00	 call	 ?GetSingleton@ioSP2GUIManager@@SAAAV1@XZ ; ioSP2GUIManager::GetSingleton
  0003d	8b c8		 mov	 ecx, eax
  0003f	e8 00 00 00 00	 call	 ?GUIPosLoadInt@ioSP2GUIManager@@QAEHPBD0HH@Z ; ioSP2GUIManager::GUIPosLoadInt
  00044	8b f0		 mov	 esi, eax

; 468  : 
; 469  : 	if( COMPARE( iXPos, 0, Setting::Width() ) && 
; 470  : 		COMPARE( iYPos, 0, Setting::Height() ) )

  00046	85 db		 test	 ebx, ebx
  00048	78 20		 js	 SHORT $LN1@iwm_create
  0004a	e8 00 00 00 00	 call	 ?Width@Setting@@SAHXZ	; Setting::Width
  0004f	3b d8		 cmp	 ebx, eax
  00051	7d 17		 jge	 SHORT $LN1@iwm_create
  00053	85 f6		 test	 esi, esi
  00055	78 13		 js	 SHORT $LN1@iwm_create
  00057	e8 00 00 00 00	 call	 ?Height@Setting@@SAHXZ	; Setting::Height
  0005c	3b f0		 cmp	 esi, eax
  0005e	7d 0a		 jge	 SHORT $LN1@iwm_create

; 471  : 	{
; 472  : 		SetWndPos( iXPos, iYPos );

  00060	56		 push	 esi
  00061	53		 push	 ebx
  00062	8b cf		 mov	 ecx, edi
  00064	ff 15 00 00 00
	00		 call	 DWORD PTR __imp_?SetWndPos@ioWnd@@QAEXHH@Z
$LN1@iwm_create:

; 473  : 	}
; 474  : 
; 475  : 	m_iDefaultX = GetDerivedPosX();

  0006a	8b cf		 mov	 ecx, edi
  0006c	ff 15 00 00 00
	00		 call	 DWORD PTR __imp_?GetDerivedPosX@ioWnd@@QBEHXZ

; 476  : 	m_iDefaultY = GetDerivedPosY();

  00072	8b cf		 mov	 ecx, edi
  00074	89 87 a0 02 00
	00		 mov	 DWORD PTR [edi+672], eax
  0007a	ff 15 00 00 00
	00		 call	 DWORD PTR __imp_?GetDerivedPosY@ioWnd@@QBEHXZ
  00080	89 87 a4 02 00
	00		 mov	 DWORD PTR [edi+676], eax
  00086	5f		 pop	 edi
  00087	5e		 pop	 esi
  00088	5b		 pop	 ebx

; 477  : }

  00089	c3		 ret	 0
?iwm_create@MiniMap@@UAEXXZ ENDP			; MiniMap::iwm_create
_TEXT	ENDS
PUBLIC	__real@c0c00000
PUBLIC	__real@3f800000
PUBLIC	__real@4f800000
PUBLIC	__$ArrayPad$
PUBLIC	?RenderDigitTime@MiniMap@@IAEXHH@Z		; MiniMap::RenderDigitTime
EXTRN	__imp_?RenderNum@ioUIRenderImage@@QAEXMMHMMW4UIRenderType@@W4TextureFilterOption@@0W4RenerNumerFormatting@1@@Z:PROC
EXTRN	___security_cookie:DWORD
EXTRN	@__security_check_cookie@4:PROC
EXTRN	__ftol2_sse:PROC
;	COMDAT __real@c0c00000
; File d:\lost saga for developer\youtube\tutorial\source\src\lsclient\stdafx.h
CONST	SEGMENT
__real@c0c00000 DD 0c0c00000r			; -6
CONST	ENDS
;	COMDAT __real@3f800000
CONST	SEGMENT
__real@3f800000 DD 03f800000r			; 1
CONST	ENDS
;	COMDAT __real@4f800000
CONST	SEGMENT
__real@4f800000 DD 04f800000r			; 4.29497e+009
; Function compile flags: /Ogsp
; File d:\lost saga for developer\youtube\tutorial\source\src\lsclient\gui\minimap.cpp
CONST	ENDS
;	COMDAT ?RenderDigitTime@MiniMap@@IAEXHH@Z
_TEXT	SEGMENT
_msec$ = -52						; size = 4
tv724 = -48						; size = 4
_sec$ = -48						; size = 4
_i$525039 = -44						; size = 4
_nExtraGap$525031 = -44					; size = 4
_min$ = -44						; size = 4
tv723 = -40						; size = 4
tv720 = -40						; size = 4
tv193 = -40						; size = 4
_nExtraGap$525038 = -40					; size = 4
_i$525032 = -40						; size = 4
_nShowNum$ = -36					; size = 32
__$ArrayPad$ = -4					; size = 4
_nPosX$ = 8						; size = 4
_nPosY$ = 12						; size = 4
?RenderDigitTime@MiniMap@@IAEXHH@Z PROC			; MiniMap::RenderDigitTime, COMDAT
; _this$ = ecx

; 536  : {

  00000	55		 push	 ebp
  00001	8b ec		 mov	 ebp, esp
  00003	83 ec 34	 sub	 esp, 52			; 00000034H
  00006	a1 00 00 00 00	 mov	 eax, DWORD PTR ___security_cookie
  0000b	33 c5		 xor	 eax, ebp
  0000d	89 45 fc	 mov	 DWORD PTR __$ArrayPad$[ebp], eax
  00010	56		 push	 esi
  00011	57		 push	 edi
  00012	8b f1		 mov	 esi, ecx

; 537  : 	if( !m_pExtraImg[TIME_NUMBER] || !m_pExtraImg[TIME_DOT])

  00014	33 ff		 xor	 edi, edi
  00016	39 be 6c 02 00
	00		 cmp	 DWORD PTR [esi+620], edi
  0001c	0f 84 cc 03 00
	00		 je	 $LN14@RenderDigi
  00022	39 be 74 02 00
	00		 cmp	 DWORD PTR [esi+628], edi
  00028	0f 84 c0 03 00
	00		 je	 $LN14@RenderDigi

; 538  : 		return;
; 539  : 
; 540  : 	if (m_pExtraImg[TIME_ICON])

  0002e	39 be 60 02 00
	00		 cmp	 DWORD PTR [esi+608], edi
  00034	74 3d		 je	 SHORT $LN13@RenderDigi

; 541  : 		m_pExtraImg[TIME_ICON]->Render(nPosX + m_ptOffSet[TIME_ICON].x, nPosY + m_ptOffSet[TIME_ICON].y);

  00036	8b 8e c4 02 00
	00		 mov	 ecx, DWORD PTR [esi+708]
  0003c	03 4d 0c	 add	 ecx, DWORD PTR _nPosY$[ebp]
  0003f	8b 86 60 02 00
	00		 mov	 eax, DWORD PTR [esi+608]
  00045	8b 10		 mov	 edx, DWORD PTR [eax]
  00047	57		 push	 edi
  00048	57		 push	 edi
  00049	57		 push	 edi
  0004a	57		 push	 edi
  0004b	51		 push	 ecx
  0004c	51		 push	 ecx
  0004d	0f 57 c0	 xorps	 xmm0, xmm0
  00050	f3 0f 2a c1	 cvtsi2ss xmm0, ecx
  00054	8b 8e c0 02 00
	00		 mov	 ecx, DWORD PTR [esi+704]
  0005a	03 4d 08	 add	 ecx, DWORD PTR _nPosX$[ebp]
  0005d	f3 0f 11 44 24
	04		 movss	 DWORD PTR [esp+4], xmm0
  00063	0f 57 c0	 xorps	 xmm0, xmm0
  00066	f3 0f 2a c1	 cvtsi2ss xmm0, ecx
  0006a	8b c8		 mov	 ecx, eax
  0006c	f3 0f 11 04 24	 movss	 DWORD PTR [esp], xmm0
  00071	ff 12		 call	 DWORD PTR [edx]
$LN13@RenderDigi:

; 542  : 
; 543  : 	if (m_pExtraImg[MAP_TITLE])

  00073	39 be 64 02 00
	00		 cmp	 DWORD PTR [esi+612], edi
  00079	74 3b		 je	 SHORT $LN12@RenderDigi

; 544  : 		m_pExtraImg[MAP_TITLE]->Render(nPosX + m_ptOffSet[MAP_TITLE].x, nPosY + m_ptOffSet[MAP_TITLE].y);

  0007b	8b 96 cc 02 00
	00		 mov	 edx, DWORD PTR [esi+716]
  00081	03 55 0c	 add	 edx, DWORD PTR _nPosY$[ebp]
  00084	8b 8e 64 02 00
	00		 mov	 ecx, DWORD PTR [esi+612]
  0008a	8b 01		 mov	 eax, DWORD PTR [ecx]
  0008c	57		 push	 edi
  0008d	57		 push	 edi
  0008e	57		 push	 edi
  0008f	57		 push	 edi
  00090	0f 57 c0	 xorps	 xmm0, xmm0
  00093	f3 0f 2a c2	 cvtsi2ss xmm0, edx
  00097	8b 96 c8 02 00
	00		 mov	 edx, DWORD PTR [esi+712]
  0009d	03 55 08	 add	 edx, DWORD PTR _nPosX$[ebp]
  000a0	51		 push	 ecx
  000a1	51		 push	 ecx
  000a2	f3 0f 11 44 24
	04		 movss	 DWORD PTR [esp+4], xmm0
  000a8	0f 57 c0	 xorps	 xmm0, xmm0
  000ab	f3 0f 2a c2	 cvtsi2ss xmm0, edx
  000af	f3 0f 11 04 24	 movss	 DWORD PTR [esp], xmm0
  000b4	ff 10		 call	 DWORD PTR [eax]
$LN12@RenderDigi:

; 545  : 
; 546  : 	if (m_pExtraImg[MAP_DIFFICULTY])

  000b6	39 be 68 02 00
	00		 cmp	 DWORD PTR [esi+616], edi
  000bc	74 3b		 je	 SHORT $LN11@RenderDigi

; 547  : 		m_pExtraImg[MAP_DIFFICULTY]->Render(nPosX + m_ptOffSet[MAP_DIFFICULTY].x, nPosY + m_ptOffSet[MAP_DIFFICULTY].y);

  000be	8b 96 d4 02 00
	00		 mov	 edx, DWORD PTR [esi+724]
  000c4	03 55 0c	 add	 edx, DWORD PTR _nPosY$[ebp]
  000c7	8b 8e 68 02 00
	00		 mov	 ecx, DWORD PTR [esi+616]
  000cd	8b 01		 mov	 eax, DWORD PTR [ecx]
  000cf	57		 push	 edi
  000d0	57		 push	 edi
  000d1	57		 push	 edi
  000d2	57		 push	 edi
  000d3	0f 57 c0	 xorps	 xmm0, xmm0
  000d6	f3 0f 2a c2	 cvtsi2ss xmm0, edx
  000da	8b 96 d0 02 00
	00		 mov	 edx, DWORD PTR [esi+720]
  000e0	03 55 08	 add	 edx, DWORD PTR _nPosX$[ebp]
  000e3	51		 push	 ecx
  000e4	51		 push	 ecx
  000e5	f3 0f 11 44 24
	04		 movss	 DWORD PTR [esp+4], xmm0
  000eb	0f 57 c0	 xorps	 xmm0, xmm0
  000ee	f3 0f 2a c2	 cvtsi2ss xmm0, edx
  000f2	f3 0f 11 04 24	 movss	 DWORD PTR [esp], xmm0
  000f7	ff 10		 call	 DWORD PTR [eax]
$LN11@RenderDigi:

; 548  : 
; 549  : 	int msec= (m_dwTime%1000) / 10;

  000f9	8b 86 b4 02 00
	00		 mov	 eax, DWORD PTR [esi+692]
  000ff	53		 push	 ebx
  00100	33 d2		 xor	 edx, edx
  00102	bb e8 03 00 00	 mov	 ebx, 1000		; 000003e8H
  00107	f7 f3		 div	 ebx
  00109	6a 0a		 push	 10			; 0000000aH
  0010b	5b		 pop	 ebx
  0010c	8b c2		 mov	 eax, edx
  0010e	33 d2		 xor	 edx, edx
  00110	f7 f3		 div	 ebx
  00112	89 45 cc	 mov	 DWORD PTR _msec$[ebp], eax

; 550  : 	int sec = m_dwTime/FLOAT1000;

  00115	b8 e8 03 00 00	 mov	 eax, 1000		; 000003e8H
  0011a	8b 8e b4 02 00
	00		 mov	 ecx, DWORD PTR [esi+692]
  00120	89 4d d8	 mov	 DWORD PTR tv723[ebp], ecx
  00123	db 45 d8	 fild	 DWORD PTR tv723[ebp]
  00126	85 c9		 test	 ecx, ecx
  00128	79 06		 jns	 SHORT $LN29@RenderDigi
  0012a	d8 05 00 00 00
	00		 fadd	 DWORD PTR __real@4f800000
$LN29@RenderDigi:
  00130	89 45 d8	 mov	 DWORD PTR tv720[ebp], eax
  00133	db 45 d8	 fild	 DWORD PTR tv720[ebp]
  00136	85 c0		 test	 eax, eax
  00138	79 06		 jns	 SHORT $LN30@RenderDigi
  0013a	d8 05 00 00 00
	00		 fadd	 DWORD PTR __real@4f800000
$LN30@RenderDigi:
  00140	de f9		 fdivp	 ST(1), ST(0)
  00142	e8 00 00 00 00	 call	 __ftol2_sse
  00147	8b c8		 mov	 ecx, eax

; 551  : 	int hour= sec/3600;

  00149	99		 cdq
  0014a	bb 10 0e 00 00	 mov	 ebx, 3600		; 00000e10H
  0014f	f7 fb		 idiv	 ebx

; 552  : 	int min = (sec%3600)/60;

  00151	6a 3c		 push	 60			; 0000003cH
  00153	5b		 pop	 ebx

; 553  : 	sec = sec%60;

  00154	53		 push	 ebx
  00155	89 45 d8	 mov	 DWORD PTR tv193[ebp], eax
  00158	8b c2		 mov	 eax, edx
  0015a	99		 cdq
  0015b	f7 fb		 idiv	 ebx
  0015d	89 45 d4	 mov	 DWORD PTR _min$[ebp], eax
  00160	8b c1		 mov	 eax, ecx
  00162	99		 cdq
  00163	59		 pop	 ecx
  00164	f7 f9		 idiv	 ecx

; 554  : 
; 555  : 	int nGap = 18;
; 556  : 
; 557  : 	const int nShowNum[8] = {hour/10, hour%10, min/10, min%10, sec/10, sec%10, msec/10, msec%10 };

  00166	8b 45 d8	 mov	 eax, DWORD PTR tv193[ebp]
  00169	6a 0a		 push	 10			; 0000000aH
  0016b	59		 pop	 ecx
  0016c	8b d9		 mov	 ebx, ecx
  0016e	89 55 d0	 mov	 DWORD PTR _sec$[ebp], edx
  00171	99		 cdq
  00172	f7 fb		 idiv	 ebx
  00174	89 45 dc	 mov	 DWORD PTR _nShowNum$[ebp], eax
  00177	8b 45 d4	 mov	 eax, DWORD PTR _min$[ebp]
  0017a	89 55 e0	 mov	 DWORD PTR _nShowNum$[ebp+4], edx
  0017d	99		 cdq
  0017e	f7 fb		 idiv	 ebx

; 558  : 
; 559  : 	if( hour > 0)
; 560  : 	{
; 561  : 		int nExtraGap = 0;

  00180	89 7d d4	 mov	 DWORD PTR _nExtraGap$525031[ebp], edi
  00183	89 45 e4	 mov	 DWORD PTR _nShowNum$[ebp+8], eax
  00186	8b 45 d0	 mov	 eax, DWORD PTR _sec$[ebp]
  00189	89 55 e8	 mov	 DWORD PTR _nShowNum$[ebp+12], edx
  0018c	99		 cdq
  0018d	f7 fb		 idiv	 ebx
  0018f	89 45 ec	 mov	 DWORD PTR _nShowNum$[ebp+16], eax
  00192	8b 45 cc	 mov	 eax, DWORD PTR _msec$[ebp]
  00195	89 55 f0	 mov	 DWORD PTR _nShowNum$[ebp+20], edx
  00198	99		 cdq
  00199	f7 f9		 idiv	 ecx
  0019b	39 7d d8	 cmp	 DWORD PTR tv193[ebp], edi

; 562  : 
; 563  : 		for(int i = 0; i < 8; i++)

  0019e	89 7d d8	 mov	 DWORD PTR _i$525032[ebp], edi
  001a1	89 45 f4	 mov	 DWORD PTR _nShowNum$[ebp+24], eax
  001a4	89 55 f8	 mov	 DWORD PTR _nShowNum$[ebp+28], edx
  001a7	0f 8e 3a 01 00
	00		 jle	 $LN10@RenderDigi

; 558  : 
; 559  : 	if( hour > 0)
; 560  : 	{
; 561  : 		int nExtraGap = 0;

  001ad	8b 5d 08	 mov	 ebx, DWORD PTR _nPosX$[ebp]
  001b0	89 7d d0	 mov	 DWORD PTR tv724[ebp], edi
$LL24@RenderDigi:

; 564  : 		{
; 565  : 			if( (i != 0) && (i % 2 == 0))

  001b3	8b 45 d8	 mov	 eax, DWORD PTR _i$525032[ebp]
  001b6	3b c7		 cmp	 eax, edi
  001b8	74 15		 je	 SHORT $LN26@RenderDigi
  001ba	8b c8		 mov	 ecx, eax
  001bc	81 e1 01 00 00
	80		 and	 ecx, -2147483647	; 80000001H
  001c2	79 05		 jns	 SHORT $LN31@RenderDigi
  001c4	49		 dec	 ecx
  001c5	83 c9 fe	 or	 ecx, -2			; fffffffeH
  001c8	41		 inc	 ecx
$LN31@RenderDigi:
  001c9	75 04		 jne	 SHORT $LN26@RenderDigi

; 566  : 				nExtraGap += 6;

  001cb	83 45 d4 06	 add	 DWORD PTR _nExtraGap$525031[ebp], 6
$LN26@RenderDigi:

; 567  : 
; 568  : 			m_pExtraImg[TIME_NUMBER]->RenderNum(nPosX + m_ptOffSet[TIME_NUMBER].x + nExtraGap + (nGap * i), 
; 569  : 				nPosY + m_ptOffSet[TIME_NUMBER].y, nShowNum[i], -6.f );

  001cf	f3 0f 10 05 00
	00 00 00	 movss	 xmm0, DWORD PTR __real@3f800000
  001d7	57		 push	 edi
  001d8	57		 push	 edi
  001d9	57		 push	 edi
  001da	57		 push	 edi
  001db	51		 push	 ecx
  001dc	51		 push	 ecx
  001dd	f3 0f 11 44 24
	04		 movss	 DWORD PTR [esp+4], xmm0
  001e3	f3 0f 10 05 00
	00 00 00	 movss	 xmm0, DWORD PTR __real@c0c00000
  001eb	f3 0f 11 04 24	 movss	 DWORD PTR [esp], xmm0
  001f0	ff 74 85 dc	 push	 DWORD PTR _nShowNum$[ebp+eax*4]
  001f4	8b 86 dc 02 00
	00		 mov	 eax, DWORD PTR [esi+732]
  001fa	03 45 0c	 add	 eax, DWORD PTR _nPosY$[ebp]
  001fd	0f 57 c0	 xorps	 xmm0, xmm0
  00200	f3 0f 2a c0	 cvtsi2ss xmm0, eax
  00204	8b 45 d0	 mov	 eax, DWORD PTR tv724[ebp]
  00207	03 45 d4	 add	 eax, DWORD PTR _nExtraGap$525031[ebp]
  0020a	51		 push	 ecx
  0020b	51		 push	 ecx
  0020c	8b 8e 6c 02 00
	00		 mov	 ecx, DWORD PTR [esi+620]
  00212	03 c3		 add	 eax, ebx
  00214	03 86 d8 02 00
	00		 add	 eax, DWORD PTR [esi+728]
  0021a	f3 0f 11 44 24
	04		 movss	 DWORD PTR [esp+4], xmm0
  00220	0f 57 c0	 xorps	 xmm0, xmm0
  00223	f3 0f 2a c0	 cvtsi2ss xmm0, eax
  00227	f3 0f 11 04 24	 movss	 DWORD PTR [esp], xmm0
  0022c	ff 15 00 00 00
	00		 call	 DWORD PTR __imp_?RenderNum@ioUIRenderImage@@QAEXMMHMMW4UIRenderType@@W4TextureFilterOption@@0W4RenerNumerFormatting@1@@Z
  00232	83 45 d0 12	 add	 DWORD PTR tv724[ebp], 18 ; 00000012H
  00236	ff 45 d8	 inc	 DWORD PTR _i$525032[ebp]
  00239	81 7d d0 90 00
	00 00		 cmp	 DWORD PTR tv724[ebp], 144 ; 00000090H
  00240	0f 8c 6d ff ff
	ff		 jl	 $LL24@RenderDigi

; 570  : 		}
; 571  : 
; 572  : 		m_pExtraImg[TIME_COLON]->Render(nPosX + m_ptOffSet[TIME_COLON].x, nPosY + m_ptOffSet[TIME_COLON].y);

  00246	8b 8e e4 02 00
	00		 mov	 ecx, DWORD PTR [esi+740]
  0024c	03 4d 0c	 add	 ecx, DWORD PTR _nPosY$[ebp]
  0024f	8b 86 70 02 00
	00		 mov	 eax, DWORD PTR [esi+624]
  00255	8b 00		 mov	 eax, DWORD PTR [eax]
  00257	57		 push	 edi
  00258	57		 push	 edi
  00259	57		 push	 edi
  0025a	57		 push	 edi
  0025b	51		 push	 ecx
  0025c	51		 push	 ecx
  0025d	0f 57 c0	 xorps	 xmm0, xmm0
  00260	f3 0f 2a c1	 cvtsi2ss xmm0, ecx
  00264	8b 8e e0 02 00
	00		 mov	 ecx, DWORD PTR [esi+736]
  0026a	f3 0f 11 44 24
	04		 movss	 DWORD PTR [esp+4], xmm0
  00270	03 cb		 add	 ecx, ebx
  00272	0f 57 c0	 xorps	 xmm0, xmm0
  00275	f3 0f 2a c1	 cvtsi2ss xmm0, ecx
  00279	8b 8e 70 02 00
	00		 mov	 ecx, DWORD PTR [esi+624]
  0027f	f3 0f 11 04 24	 movss	 DWORD PTR [esp], xmm0
  00284	ff 10		 call	 DWORD PTR [eax]

; 573  : 		m_pExtraImg[TIME_COLON]->Render(nPosX + m_ptOffSet[TIME_COLON].x + 41, nPosY + m_ptOffSet[TIME_COLON].y);

  00286	8b 8e e4 02 00
	00		 mov	 ecx, DWORD PTR [esi+740]
  0028c	03 4d 0c	 add	 ecx, DWORD PTR _nPosY$[ebp]
  0028f	8b 86 70 02 00
	00		 mov	 eax, DWORD PTR [esi+624]
  00295	8b 00		 mov	 eax, DWORD PTR [eax]
  00297	57		 push	 edi
  00298	57		 push	 edi
  00299	57		 push	 edi
  0029a	57		 push	 edi
  0029b	51		 push	 ecx
  0029c	51		 push	 ecx
  0029d	0f 57 c0	 xorps	 xmm0, xmm0
  002a0	f3 0f 2a c1	 cvtsi2ss xmm0, ecx
  002a4	8b 8e e0 02 00
	00		 mov	 ecx, DWORD PTR [esi+736]
  002aa	f3 0f 11 44 24
	04		 movss	 DWORD PTR [esp+4], xmm0
  002b0	8d 4c 19 29	 lea	 ecx, DWORD PTR [ecx+ebx+41]
  002b4	0f 57 c0	 xorps	 xmm0, xmm0
  002b7	f3 0f 2a c1	 cvtsi2ss xmm0, ecx
  002bb	8b 8e 70 02 00
	00		 mov	 ecx, DWORD PTR [esi+624]
  002c1	f3 0f 11 04 24	 movss	 DWORD PTR [esp], xmm0
  002c6	ff 10		 call	 DWORD PTR [eax]

; 574  : 		m_pExtraImg[TIME_DOT]->Render(nPosX + m_ptOffSet[TIME_DOT].x + 41, nPosY + m_ptOffSet[TIME_DOT].y);

  002c8	8b 96 ec 02 00
	00		 mov	 edx, DWORD PTR [esi+748]
  002ce	03 55 0c	 add	 edx, DWORD PTR _nPosY$[ebp]
  002d1	0f 57 c0	 xorps	 xmm0, xmm0
  002d4	f3 0f 2a c2	 cvtsi2ss xmm0, edx
  002d8	8b 96 e8 02 00
	00		 mov	 edx, DWORD PTR [esi+744]
  002de	8d 54 1a 29	 lea	 edx, DWORD PTR [edx+ebx+41]

; 575  : 	}
; 576  : 	else

  002e2	e9 e4 00 00 00	 jmp	 $LN33@RenderDigi
$LN10@RenderDigi:

; 577  : 	{
; 578  : 		int nExtraGap = 0;

  002e7	33 db		 xor	 ebx, ebx
$LL25@RenderDigi:

; 579  : 
; 580  : 		for(int i = 0; i < 6; i++)
; 581  : 		{
; 582  : 			if( (i != 0) && (i % 2 == 0))

  002e9	8b 45 d4	 mov	 eax, DWORD PTR _i$525039[ebp]
  002ec	3b c7		 cmp	 eax, edi
  002ee	74 15		 je	 SHORT $LN27@RenderDigi
  002f0	8b c8		 mov	 ecx, eax
  002f2	81 e1 01 00 00
	80		 and	 ecx, -2147483647	; 80000001H
  002f8	79 05		 jns	 SHORT $LN32@RenderDigi
  002fa	49		 dec	 ecx
  002fb	83 c9 fe	 or	 ecx, -2			; fffffffeH
  002fe	41		 inc	 ecx
$LN32@RenderDigi:
  002ff	75 04		 jne	 SHORT $LN27@RenderDigi

; 583  : 				nExtraGap += 6;

  00301	83 45 d8 06	 add	 DWORD PTR _nExtraGap$525038[ebp], 6
$LN27@RenderDigi:

; 584  : 
; 585  : 			m_pExtraImg[TIME_NUMBER]->RenderNum(nPosX + m_ptOffSet[TIME_NUMBER].x + nExtraGap + (nGap * i), 
; 586  : 				nPosY + m_ptOffSet[TIME_NUMBER].y, nShowNum[i+2], -6.f );

  00305	f3 0f 10 05 00
	00 00 00	 movss	 xmm0, DWORD PTR __real@3f800000
  0030d	57		 push	 edi
  0030e	57		 push	 edi
  0030f	57		 push	 edi
  00310	57		 push	 edi
  00311	51		 push	 ecx
  00312	51		 push	 ecx
  00313	f3 0f 11 44 24
	04		 movss	 DWORD PTR [esp+4], xmm0
  00319	f3 0f 10 05 00
	00 00 00	 movss	 xmm0, DWORD PTR __real@c0c00000
  00321	f3 0f 11 04 24	 movss	 DWORD PTR [esp], xmm0
  00326	ff 74 85 e4	 push	 DWORD PTR _nShowNum$[ebp+eax*4+8]
  0032a	8b 86 dc 02 00
	00		 mov	 eax, DWORD PTR [esi+732]
  00330	03 45 0c	 add	 eax, DWORD PTR _nPosY$[ebp]
  00333	0f 57 c0	 xorps	 xmm0, xmm0
  00336	f3 0f 2a c0	 cvtsi2ss xmm0, eax
  0033a	8b 45 d8	 mov	 eax, DWORD PTR _nExtraGap$525038[ebp]
  0033d	03 c3		 add	 eax, ebx
  0033f	03 45 08	 add	 eax, DWORD PTR _nPosX$[ebp]
  00342	51		 push	 ecx
  00343	03 86 d8 02 00
	00		 add	 eax, DWORD PTR [esi+728]
  00349	51		 push	 ecx
  0034a	8b 8e 6c 02 00
	00		 mov	 ecx, DWORD PTR [esi+620]
  00350	f3 0f 11 44 24
	04		 movss	 DWORD PTR [esp+4], xmm0
  00356	0f 57 c0	 xorps	 xmm0, xmm0
  00359	f3 0f 2a c0	 cvtsi2ss xmm0, eax
  0035d	f3 0f 11 04 24	 movss	 DWORD PTR [esp], xmm0
  00362	ff 15 00 00 00
	00		 call	 DWORD PTR __imp_?RenderNum@ioUIRenderImage@@QAEXMMHMMW4UIRenderType@@W4TextureFilterOption@@0W4RenerNumerFormatting@1@@Z
  00368	ff 45 d4	 inc	 DWORD PTR _i$525039[ebp]
  0036b	83 c3 12	 add	 ebx, 18			; 00000012H
  0036e	83 fb 6c	 cmp	 ebx, 108		; 0000006cH
  00371	0f 8c 72 ff ff
	ff		 jl	 $LL25@RenderDigi

; 587  : 		}
; 588  : 
; 589  : 		m_pExtraImg[TIME_COLON]->Render(nPosX + m_ptOffSet[TIME_COLON].x, nPosY + m_ptOffSet[TIME_COLON].y);

  00377	8b 96 e4 02 00
	00		 mov	 edx, DWORD PTR [esi+740]
  0037d	03 55 0c	 add	 edx, DWORD PTR _nPosY$[ebp]
  00380	8b 8e 70 02 00
	00		 mov	 ecx, DWORD PTR [esi+624]
  00386	8b 01		 mov	 eax, DWORD PTR [ecx]
  00388	57		 push	 edi
  00389	57		 push	 edi
  0038a	57		 push	 edi
  0038b	57		 push	 edi
  0038c	0f 57 c0	 xorps	 xmm0, xmm0
  0038f	f3 0f 2a c2	 cvtsi2ss xmm0, edx
  00393	8b 96 e0 02 00
	00		 mov	 edx, DWORD PTR [esi+736]
  00399	03 55 08	 add	 edx, DWORD PTR _nPosX$[ebp]
  0039c	51		 push	 ecx
  0039d	51		 push	 ecx
  0039e	f3 0f 11 44 24
	04		 movss	 DWORD PTR [esp+4], xmm0
  003a4	0f 57 c0	 xorps	 xmm0, xmm0
  003a7	f3 0f 2a c2	 cvtsi2ss xmm0, edx
  003ab	f3 0f 11 04 24	 movss	 DWORD PTR [esp], xmm0
  003b0	ff 10		 call	 DWORD PTR [eax]

; 590  : 		m_pExtraImg[TIME_DOT]->Render(nPosX + m_ptOffSet[TIME_DOT].x, nPosY + m_ptOffSet[TIME_DOT].y);

  003b2	8b 96 ec 02 00
	00		 mov	 edx, DWORD PTR [esi+748]
  003b8	03 55 0c	 add	 edx, DWORD PTR _nPosY$[ebp]
  003bb	0f 57 c0	 xorps	 xmm0, xmm0
  003be	f3 0f 2a c2	 cvtsi2ss xmm0, edx
  003c2	8b 96 e8 02 00
	00		 mov	 edx, DWORD PTR [esi+744]
  003c8	03 55 08	 add	 edx, DWORD PTR _nPosX$[ebp]
$LN33@RenderDigi:
  003cb	8b 8e 74 02 00
	00		 mov	 ecx, DWORD PTR [esi+628]
  003d1	8b 01		 mov	 eax, DWORD PTR [ecx]
  003d3	57		 push	 edi
  003d4	57		 push	 edi
  003d5	57		 push	 edi
  003d6	57		 push	 edi
  003d7	51		 push	 ecx
  003d8	51		 push	 ecx
  003d9	f3 0f 11 44 24
	04		 movss	 DWORD PTR [esp+4], xmm0
  003df	0f 57 c0	 xorps	 xmm0, xmm0
  003e2	f3 0f 2a c2	 cvtsi2ss xmm0, edx
  003e6	f3 0f 11 04 24	 movss	 DWORD PTR [esp], xmm0
  003eb	ff 10		 call	 DWORD PTR [eax]
  003ed	5b		 pop	 ebx
$LN14@RenderDigi:

; 591  : 	}
; 592  : }

  003ee	8b 4d fc	 mov	 ecx, DWORD PTR __$ArrayPad$[ebp]
  003f1	5f		 pop	 edi
  003f2	33 cd		 xor	 ecx, ebp
  003f4	5e		 pop	 esi
  003f5	e8 00 00 00 00	 call	 @__security_check_cookie@4
  003fa	c9		 leave
  003fb	c2 08 00	 ret	 8
?RenderDigitTime@MiniMap@@IAEXHH@Z ENDP			; MiniMap::RenderDigitTime
_TEXT	ENDS
PUBLIC	?RenderSpotPoint@MiniMap@@IAEXHHABUSpotPoint@1@@Z ; MiniMap::RenderSpotPoint
; Function compile flags: /Ogsp
;	COMDAT ?RenderSpotPoint@MiniMap@@IAEXHHABUSpotPoint@1@@Z
_TEXT	SEGMENT
_iXPos$ = 8						; size = 4
_iYPos$ = 12						; size = 4
_rkPoint$ = 16						; size = 4
?RenderSpotPoint@MiniMap@@IAEXHHABUSpotPoint@1@@Z PROC	; MiniMap::RenderSpotPoint, COMDAT
; _this$ = ecx

; 595  : {

  00000	55		 push	 ebp
  00001	8b ec		 mov	 ebp, esp
  00003	53		 push	 ebx
  00004	56		 push	 esi

; 596  : 	if( !rkPoint.m_bRender ) return;

  00005	8b 75 10	 mov	 esi, DWORD PTR _rkPoint$[ebp]
  00008	33 db		 xor	 ebx, ebx
  0000a	57		 push	 edi
  0000b	8b f9		 mov	 edi, ecx
  0000d	38 5e 10	 cmp	 BYTE PTR [esi+16], bl
  00010	0f 84 32 03 00
	00		 je	 $LN1@RenderSpot

; 597  : 
; 598  : 	switch( rkPoint.m_Type )

  00016	8b 06		 mov	 eax, DWORD PTR [esi]
  00018	83 f8 22	 cmp	 eax, 34			; 00000022H
  0001b	0f 87 27 03 00
	00		 ja	 $LN1@RenderSpot
  00021	0f b6 88 00 00
	00 00		 movzx	 ecx, BYTE PTR $LN58@RenderSpot[eax]
  00028	ff 24 8d 00 00
	00 00		 jmp	 DWORD PTR $LN66@RenderSpot[ecx*4]
$LN52@RenderSpot:

; 599  : 	{
; 600  : 	case SPOT_USER:
; 601  : 	case SPOT_DROP_USER:
; 602  : 	case SPOT_PRISON_USER:
; 603  : 	case SPOT_NPC:
; 604  : 	case SPOT_NEXUS:
; 605  : 	case SPOT_LAIR:
; 606  : 	case SPOT_TOWER:
; 607  : 		if( rkPoint.m_eTeamType == TEAM_BLUE )

  0002f	83 7e 0c 02	 cmp	 DWORD PTR [esi+12], 2

; 608  : 		{
; 609  : 			if(	rkPoint.m_Type < MAX_SPOT && m_pSpot[rkPoint.m_Type] )
; 610  : 				m_pSpot[rkPoint.m_Type]->Render( iXPos + rkPoint.m_iXOffset, iYPos + rkPoint.m_iYOffset );
; 611  : 		}
; 612  : 		else

  00033	0f 84 cc 02 00
	00		 je	 $LN2@RenderSpot

; 613  : 		{
; 614  : 			if( (rkPoint.m_Type+1) < MAX_SPOT && m_pSpot[rkPoint.m_Type+1] )

  00039	8d 48 01	 lea	 ecx, DWORD PTR [eax+1]
  0003c	83 f9 23	 cmp	 ecx, 35			; 00000023H
  0003f	0f 8d 03 03 00
	00		 jge	 $LN1@RenderSpot
  00045	8d 84 87 d8 01
	00 00		 lea	 eax, DWORD PTR [edi+eax*4+472]

; 615  : 				m_pSpot[rkPoint.m_Type+1]->Render( iXPos + rkPoint.m_iXOffset, iYPos + rkPoint.m_iYOffset );
; 616  : 		}
; 617  : 		break;

  0004c	e9 c0 02 00 00	 jmp	 $LN59@RenderSpot
$LN47@RenderSpot:

; 618  : 
; 619  : 	case SPOT_ME:
; 620  : 		if( rkPoint.m_eTeamType == TEAM_BLUE )

  00051	83 7e 0c 02	 cmp	 DWORD PTR [esi+12], 2
  00055	75 10		 jne	 SHORT $LN46@RenderSpot

; 621  : 		{
; 622  : 			if( m_pSpot[SPOT_USER] )

  00057	39 9f d4 01 00
	00		 cmp	 DWORD PTR [edi+468], ebx
  0005d	74 47		 je	 SHORT $LN43@RenderSpot

; 623  : 				m_pSpot[SPOT_USER]->Render( iXPos + rkPoint.m_iXOffset, iYPos + rkPoint.m_iYOffset );

  0005f	8b 87 d4 01 00
	00		 mov	 eax, DWORD PTR [edi+468]

; 624  : 		}
; 625  : 		else

  00065	eb 0e		 jmp	 SHORT $LN60@RenderSpot
$LN46@RenderSpot:

; 626  : 		{
; 627  : 			if( m_pSpot[SPOT_USER_RED] )

  00067	39 9f d8 01 00
	00		 cmp	 DWORD PTR [edi+472], ebx
  0006d	74 37		 je	 SHORT $LN43@RenderSpot

; 628  : 				m_pSpot[SPOT_USER_RED]->Render( iXPos + rkPoint.m_iXOffset, iYPos + rkPoint.m_iYOffset );

  0006f	8b 87 d8 01 00
	00		 mov	 eax, DWORD PTR [edi+472]
$LN60@RenderSpot:
  00075	8b 4e 08	 mov	 ecx, DWORD PTR [esi+8]
  00078	03 4d 0c	 add	 ecx, DWORD PTR _iYPos$[ebp]
  0007b	8b 10		 mov	 edx, DWORD PTR [eax]
  0007d	53		 push	 ebx
  0007e	53		 push	 ebx
  0007f	53		 push	 ebx
  00080	53		 push	 ebx
  00081	51		 push	 ecx
  00082	51		 push	 ecx
  00083	0f 57 c0	 xorps	 xmm0, xmm0
  00086	f3 0f 2a c1	 cvtsi2ss xmm0, ecx
  0008a	8b 4e 04	 mov	 ecx, DWORD PTR [esi+4]
  0008d	03 4d 08	 add	 ecx, DWORD PTR _iXPos$[ebp]
  00090	f3 0f 11 44 24
	04		 movss	 DWORD PTR [esp+4], xmm0
  00096	0f 57 c0	 xorps	 xmm0, xmm0
  00099	f3 0f 2a c1	 cvtsi2ss xmm0, ecx
  0009d	8b c8		 mov	 ecx, eax
  0009f	f3 0f 11 04 24	 movss	 DWORD PTR [esp], xmm0
  000a4	ff 12		 call	 DWORD PTR [edx]
$LN43@RenderSpot:

; 629  : 		}
; 630  : 		if( m_pSpot[SPOT_ME] )

  000a6	39 9f e4 01 00
	00		 cmp	 DWORD PTR [edi+484], ebx
  000ac	0f 84 96 02 00
	00		 je	 $LN1@RenderSpot

; 631  : 			m_pSpot[SPOT_ME]->Render( iXPos + rkPoint.m_iXOffset, iYPos + rkPoint.m_iYOffset );

  000b2	8b 8f e4 01 00
	00		 mov	 ecx, DWORD PTR [edi+484]
$LN65@RenderSpot:
  000b8	8b 56 08	 mov	 edx, DWORD PTR [esi+8]
  000bb	03 55 0c	 add	 edx, DWORD PTR _iYPos$[ebp]
  000be	8b 01		 mov	 eax, DWORD PTR [ecx]
  000c0	53		 push	 ebx
  000c1	53		 push	 ebx
  000c2	53		 push	 ebx
  000c3	53		 push	 ebx
  000c4	0f 57 c0	 xorps	 xmm0, xmm0
  000c7	f3 0f 2a c2	 cvtsi2ss xmm0, edx
  000cb	8b 56 04	 mov	 edx, DWORD PTR [esi+4]
  000ce	03 55 08	 add	 edx, DWORD PTR _iXPos$[ebp]
  000d1	51		 push	 ecx
  000d2	51		 push	 ecx
  000d3	f3 0f 11 44 24
	04		 movss	 DWORD PTR [esp+4], xmm0
  000d9	0f 57 c0	 xorps	 xmm0, xmm0
  000dc	f3 0f 2a c2	 cvtsi2ss xmm0, edx
  000e0	f3 0f 11 04 24	 movss	 DWORD PTR [esp], xmm0
  000e5	ff 10		 call	 DWORD PTR [eax]

; 632  : 		break;

  000e7	e9 5c 02 00 00	 jmp	 $LN1@RenderSpot
$LN41@RenderSpot:

; 633  : 	case SPOT_DROP_ME:
; 634  : 		if( rkPoint.m_eTeamType == TEAM_BLUE )

  000ec	83 7e 0c 02	 cmp	 DWORD PTR [esi+12], 2
  000f0	75 10		 jne	 SHORT $LN40@RenderSpot

; 635  : 		{
; 636  : 			if( m_pSpot[SPOT_DROP_USER] )

  000f2	39 9f dc 01 00
	00		 cmp	 DWORD PTR [edi+476], ebx
  000f8	74 47		 je	 SHORT $LN37@RenderSpot

; 637  : 				m_pSpot[SPOT_DROP_USER]->Render( iXPos + rkPoint.m_iXOffset, iYPos + rkPoint.m_iYOffset );

  000fa	8b 87 dc 01 00
	00		 mov	 eax, DWORD PTR [edi+476]

; 638  : 		}
; 639  : 		else

  00100	eb 0e		 jmp	 SHORT $LN61@RenderSpot
$LN40@RenderSpot:

; 640  : 		{
; 641  : 			if( m_pSpot[SPOT_DROP_USER_RED] )

  00102	39 9f e0 01 00
	00		 cmp	 DWORD PTR [edi+480], ebx
  00108	74 37		 je	 SHORT $LN37@RenderSpot

; 642  : 				m_pSpot[SPOT_DROP_USER_RED]->Render( iXPos + rkPoint.m_iXOffset, iYPos + rkPoint.m_iYOffset );

  0010a	8b 87 e0 01 00
	00		 mov	 eax, DWORD PTR [edi+480]
$LN61@RenderSpot:
  00110	8b 4e 08	 mov	 ecx, DWORD PTR [esi+8]
  00113	03 4d 0c	 add	 ecx, DWORD PTR _iYPos$[ebp]
  00116	8b 10		 mov	 edx, DWORD PTR [eax]
  00118	53		 push	 ebx
  00119	53		 push	 ebx
  0011a	53		 push	 ebx
  0011b	53		 push	 ebx
  0011c	51		 push	 ecx
  0011d	51		 push	 ecx
  0011e	0f 57 c0	 xorps	 xmm0, xmm0
  00121	f3 0f 2a c1	 cvtsi2ss xmm0, ecx
  00125	8b 4e 04	 mov	 ecx, DWORD PTR [esi+4]
  00128	03 4d 08	 add	 ecx, DWORD PTR _iXPos$[ebp]
  0012b	f3 0f 11 44 24
	04		 movss	 DWORD PTR [esp+4], xmm0
  00131	0f 57 c0	 xorps	 xmm0, xmm0
  00134	f3 0f 2a c1	 cvtsi2ss xmm0, ecx
  00138	8b c8		 mov	 ecx, eax
  0013a	f3 0f 11 04 24	 movss	 DWORD PTR [esp], xmm0
  0013f	ff 12		 call	 DWORD PTR [edx]
$LN37@RenderSpot:

; 643  : 		}
; 644  : 		if( m_pSpot[SPOT_DROP_ME] )

  00141	39 9f 10 02 00
	00		 cmp	 DWORD PTR [edi+528], ebx
  00147	0f 84 fb 01 00
	00		 je	 $LN1@RenderSpot

; 645  : 			m_pSpot[SPOT_DROP_ME]->Render( iXPos + rkPoint.m_iXOffset, iYPos + rkPoint.m_iYOffset );

  0014d	8b 8f 10 02 00
	00		 mov	 ecx, DWORD PTR [edi+528]

; 646  : 		break;

  00153	e9 60 ff ff ff	 jmp	 $LN65@RenderSpot
$LN35@RenderSpot:

; 647  : 
; 648  : 	case SPOT_SYMBOL:
; 649  : 		if( rkPoint.m_eTeamType == TEAM_BLUE )

  00158	8b 46 0c	 mov	 eax, DWORD PTR [esi+12]
  0015b	83 f8 02	 cmp	 eax, 2
  0015e	75 17		 jne	 SHORT $LN34@RenderSpot

; 650  : 		{
; 651  : 			if( m_pSpot[SPOT_SYMBOL] )

  00160	39 9f e8 01 00
	00		 cmp	 DWORD PTR [edi+488], ebx
  00166	0f 84 dc 01 00
	00		 je	 $LN1@RenderSpot

; 652  : 				m_pSpot[SPOT_SYMBOL]->Render( iXPos + rkPoint.m_iXOffset, iYPos + rkPoint.m_iYOffset );

  0016c	8b 87 e8 01 00
	00		 mov	 eax, DWORD PTR [edi+488]

; 653  : 		}

  00172	e9 a0 01 00 00	 jmp	 $LN62@RenderSpot
$LN34@RenderSpot:

; 654  : 		else if( rkPoint.m_eTeamType == TEAM_RED )

  00177	83 f8 01	 cmp	 eax, 1
  0017a	75 17		 jne	 SHORT $LN31@RenderSpot

; 655  : 		{
; 656  : 			if( m_pSpot[SPOT_SYMBOL_RED] )

  0017c	39 9f ec 01 00
	00		 cmp	 DWORD PTR [edi+492], ebx
  00182	0f 84 c0 01 00
	00		 je	 $LN1@RenderSpot

; 657  : 				m_pSpot[SPOT_SYMBOL_RED]->Render( iXPos + rkPoint.m_iXOffset, iYPos + rkPoint.m_iYOffset );

  00188	8b 87 ec 01 00
	00		 mov	 eax, DWORD PTR [edi+492]

; 658  : 		}
; 659  : 		else

  0018e	e9 84 01 00 00	 jmp	 $LN62@RenderSpot
$LN31@RenderSpot:

; 660  : 		{
; 661  : 			if( m_pSpot[SPOT_SYMBOL_NEUTRAL] )

  00193	39 9f f0 01 00
	00		 cmp	 DWORD PTR [edi+496], ebx
  00199	0f 84 a9 01 00
	00		 je	 $LN1@RenderSpot

; 662  : 				m_pSpot[SPOT_SYMBOL_NEUTRAL]->Render( iXPos + rkPoint.m_iXOffset, iYPos + rkPoint.m_iYOffset );

  0019f	8b 87 f0 01 00
	00		 mov	 eax, DWORD PTR [edi+496]

; 663  : 		}
; 664  : 		break;

  001a5	e9 6d 01 00 00	 jmp	 $LN62@RenderSpot
$LN27@RenderSpot:

; 665  : 	case SPOT_KING_USER:
; 666  : 	case SPOT_CROWN:
; 667  : 		if( rkPoint.m_eTeamType == TEAM_BLUE )

  001aa	8b 46 0c	 mov	 eax, DWORD PTR [esi+12]
  001ad	83 f8 02	 cmp	 eax, 2
  001b0	75 17		 jne	 SHORT $LN26@RenderSpot

; 668  : 		{
; 669  : 			if( m_pSpot[SPOT_KING_USER] )

  001b2	39 9f 00 02 00
	00		 cmp	 DWORD PTR [edi+512], ebx
  001b8	0f 84 8a 01 00
	00		 je	 $LN1@RenderSpot

; 670  : 				m_pSpot[SPOT_KING_USER]->Render( iXPos + rkPoint.m_iXOffset, iYPos + rkPoint.m_iYOffset );

  001be	8b 87 00 02 00
	00		 mov	 eax, DWORD PTR [edi+512]

; 671  : 		}

  001c4	e9 4e 01 00 00	 jmp	 $LN62@RenderSpot
$LN26@RenderSpot:

; 672  : 		else if( rkPoint.m_eTeamType == TEAM_RED )

  001c9	83 f8 01	 cmp	 eax, 1
  001cc	75 17		 jne	 SHORT $LN23@RenderSpot

; 673  : 		{
; 674  : 			if( m_pSpot[SPOT_KING_USER_RED] )

  001ce	39 9f 04 02 00
	00		 cmp	 DWORD PTR [edi+516], ebx
  001d4	0f 84 6e 01 00
	00		 je	 $LN1@RenderSpot

; 675  : 				m_pSpot[SPOT_KING_USER_RED]->Render( iXPos + rkPoint.m_iXOffset, iYPos + rkPoint.m_iYOffset );

  001da	8b 87 04 02 00
	00		 mov	 eax, DWORD PTR [edi+516]

; 676  : 		}
; 677  : 		else

  001e0	e9 32 01 00 00	 jmp	 $LN62@RenderSpot
$LN23@RenderSpot:

; 678  : 		{
; 679  : 			if( m_pSpot[SPOT_CROWN] )

  001e5	39 9f 08 02 00
	00		 cmp	 DWORD PTR [edi+520], ebx
  001eb	0f 84 57 01 00
	00		 je	 $LN1@RenderSpot

; 680  : 				m_pSpot[SPOT_CROWN]->Render( iXPos + rkPoint.m_iXOffset, iYPos + rkPoint.m_iYOffset );

  001f1	8b 87 08 02 00
	00		 mov	 eax, DWORD PTR [edi+520]

; 681  : 		}
; 682  : 		break;

  001f7	e9 1b 01 00 00	 jmp	 $LN62@RenderSpot
$LN19@RenderSpot:

; 683  : 	case SPOT_DOUBLECROWN_DROP_RED:
; 684  : 		{
; 685  : 			if( m_pSpot[SPOT_DOUBLECROWN_DROP_RED] )

  001fc	39 9f 48 02 00
	00		 cmp	 DWORD PTR [edi+584], ebx
  00202	0f 84 40 01 00
	00		 je	 $LN1@RenderSpot

; 686  : 				m_pSpot[SPOT_DOUBLECROWN_DROP_RED]->Render( iXPos + rkPoint.m_iXOffset, iYPos + rkPoint.m_iYOffset );

  00208	8b 87 48 02 00
	00		 mov	 eax, DWORD PTR [edi+584]

; 687  : 		}
; 688  : 		break;

  0020e	e9 04 01 00 00	 jmp	 $LN62@RenderSpot
$LN17@RenderSpot:

; 689  : 	case SPOT_DOUBLECROWN_DROP_BLUE:
; 690  : 		{
; 691  : 			if( m_pSpot[SPOT_DOUBLECROWN_DROP_BLUE] )

  00213	39 9f 4c 02 00
	00		 cmp	 DWORD PTR [edi+588], ebx
  00219	0f 84 29 01 00
	00		 je	 $LN1@RenderSpot

; 692  : 				m_pSpot[SPOT_DOUBLECROWN_DROP_BLUE]->Render( iXPos + rkPoint.m_iXOffset, iYPos + rkPoint.m_iYOffset );

  0021f	8b 87 4c 02 00
	00		 mov	 eax, DWORD PTR [edi+588]

; 693  : 		}
; 694  : 		break;

  00225	e9 ed 00 00 00	 jmp	 $LN62@RenderSpot
$LN15@RenderSpot:

; 695  : 	case SPOT_PRISON_ME:
; 696  : 		if( rkPoint.m_eTeamType == TEAM_BLUE )

  0022a	83 7e 0c 02	 cmp	 DWORD PTR [esi+12], 2
  0022e	75 10		 jne	 SHORT $LN14@RenderSpot

; 697  : 		{
; 698  : 			if( m_pSpot[SPOT_PRISON_USER] )

  00230	39 9f f4 01 00
	00		 cmp	 DWORD PTR [edi+500], ebx
  00236	74 47		 je	 SHORT $LN11@RenderSpot

; 699  : 				m_pSpot[SPOT_PRISON_USER]->Render( iXPos + rkPoint.m_iXOffset, iYPos + rkPoint.m_iYOffset );

  00238	8b 87 f4 01 00
	00		 mov	 eax, DWORD PTR [edi+500]

; 700  : 		}
; 701  : 		else

  0023e	eb 0e		 jmp	 SHORT $LN63@RenderSpot
$LN14@RenderSpot:

; 702  : 		{
; 703  : 			if( m_pSpot[SPOT_PRISON_USER_RED] )

  00240	39 9f f8 01 00
	00		 cmp	 DWORD PTR [edi+504], ebx
  00246	74 37		 je	 SHORT $LN11@RenderSpot

; 704  : 				m_pSpot[SPOT_PRISON_USER_RED]->Render( iXPos + rkPoint.m_iXOffset, iYPos + rkPoint.m_iYOffset );

  00248	8b 87 f8 01 00
	00		 mov	 eax, DWORD PTR [edi+504]
$LN63@RenderSpot:
  0024e	8b 4e 08	 mov	 ecx, DWORD PTR [esi+8]
  00251	03 4d 0c	 add	 ecx, DWORD PTR _iYPos$[ebp]
  00254	8b 10		 mov	 edx, DWORD PTR [eax]
  00256	53		 push	 ebx
  00257	53		 push	 ebx
  00258	53		 push	 ebx
  00259	53		 push	 ebx
  0025a	51		 push	 ecx
  0025b	51		 push	 ecx
  0025c	0f 57 c0	 xorps	 xmm0, xmm0
  0025f	f3 0f 2a c1	 cvtsi2ss xmm0, ecx
  00263	8b 4e 04	 mov	 ecx, DWORD PTR [esi+4]
  00266	03 4d 08	 add	 ecx, DWORD PTR _iXPos$[ebp]
  00269	f3 0f 11 44 24
	04		 movss	 DWORD PTR [esp+4], xmm0
  0026f	0f 57 c0	 xorps	 xmm0, xmm0
  00272	f3 0f 2a c1	 cvtsi2ss xmm0, ecx
  00276	8b c8		 mov	 ecx, eax
  00278	f3 0f 11 04 24	 movss	 DWORD PTR [esp], xmm0
  0027d	ff 12		 call	 DWORD PTR [edx]
$LN11@RenderSpot:

; 705  : 		}
; 706  : 		if( m_pSpot[SPOT_PRISON_ME] )

  0027f	39 9f fc 01 00
	00		 cmp	 DWORD PTR [edi+508], ebx
  00285	0f 84 bd 00 00
	00		 je	 $LN1@RenderSpot

; 707  : 			m_pSpot[SPOT_PRISON_ME]->Render( iXPos + rkPoint.m_iXOffset, iYPos + rkPoint.m_iYOffset );

  0028b	8b 8f fc 01 00
	00		 mov	 ecx, DWORD PTR [edi+508]

; 708  : 		break;

  00291	e9 22 fe ff ff	 jmp	 $LN65@RenderSpot
$LN9@RenderSpot:

; 709  : 
; 710  : 	case SPOT_KING_ME:
; 711  : 		if( rkPoint.m_eTeamType == TEAM_BLUE )

  00296	8b 46 0c	 mov	 eax, DWORD PTR [esi+12]
  00299	83 f8 02	 cmp	 eax, 2
  0029c	75 10		 jne	 SHORT $LN8@RenderSpot

; 712  : 		{
; 713  : 			if( m_pSpot[SPOT_KING_USER] )

  0029e	39 9f 00 02 00
	00		 cmp	 DWORD PTR [edi+512], ebx
  002a4	74 4c		 je	 SHORT $LN4@RenderSpot

; 714  : 				m_pSpot[SPOT_KING_USER]->Render( iXPos + rkPoint.m_iXOffset, iYPos + rkPoint.m_iYOffset );

  002a6	8b 87 00 02 00
	00		 mov	 eax, DWORD PTR [edi+512]

; 715  : 		}

  002ac	eb 13		 jmp	 SHORT $LN64@RenderSpot
$LN8@RenderSpot:

; 716  : 		else if( rkPoint.m_eTeamType == TEAM_RED )

  002ae	83 f8 01	 cmp	 eax, 1
  002b1	75 3f		 jne	 SHORT $LN4@RenderSpot

; 717  : 		{
; 718  : 			if( m_pSpot[SPOT_KING_USER_RED] )

  002b3	39 9f 04 02 00
	00		 cmp	 DWORD PTR [edi+516], ebx
  002b9	74 37		 je	 SHORT $LN4@RenderSpot

; 719  : 				m_pSpot[SPOT_KING_USER_RED]->Render( iXPos + rkPoint.m_iXOffset, iYPos + rkPoint.m_iYOffset );

  002bb	8b 87 04 02 00
	00		 mov	 eax, DWORD PTR [edi+516]
$LN64@RenderSpot:
  002c1	8b 4e 08	 mov	 ecx, DWORD PTR [esi+8]
  002c4	03 4d 0c	 add	 ecx, DWORD PTR _iYPos$[ebp]
  002c7	8b 10		 mov	 edx, DWORD PTR [eax]
  002c9	53		 push	 ebx
  002ca	53		 push	 ebx
  002cb	53		 push	 ebx
  002cc	53		 push	 ebx
  002cd	51		 push	 ecx
  002ce	51		 push	 ecx
  002cf	0f 57 c0	 xorps	 xmm0, xmm0
  002d2	f3 0f 2a c1	 cvtsi2ss xmm0, ecx
  002d6	8b 4e 04	 mov	 ecx, DWORD PTR [esi+4]
  002d9	03 4d 08	 add	 ecx, DWORD PTR _iXPos$[ebp]
  002dc	f3 0f 11 44 24
	04		 movss	 DWORD PTR [esp+4], xmm0
  002e2	0f 57 c0	 xorps	 xmm0, xmm0
  002e5	f3 0f 2a c1	 cvtsi2ss xmm0, ecx
  002e9	8b c8		 mov	 ecx, eax
  002eb	f3 0f 11 04 24	 movss	 DWORD PTR [esp], xmm0
  002f0	ff 12		 call	 DWORD PTR [edx]
$LN4@RenderSpot:

; 720  : 		}
; 721  : 		if( m_pSpot[SPOT_KING_ME] )

  002f2	39 9f 0c 02 00
	00		 cmp	 DWORD PTR [edi+524], ebx
  002f8	74 4e		 je	 SHORT $LN1@RenderSpot

; 722  : 			m_pSpot[SPOT_KING_ME]->Render( iXPos + rkPoint.m_iXOffset, iYPos + rkPoint.m_iYOffset );

  002fa	8b 8f 0c 02 00
	00		 mov	 ecx, DWORD PTR [edi+524]

; 723  : 		break;

  00300	e9 b3 fd ff ff	 jmp	 $LN65@RenderSpot
$LN2@RenderSpot:

; 724  : 
; 725  : 	case SPOT_DEATH_MON:
; 726  : 	case SPOT_BOSS_MON:
; 727  : 	case SPOT_DROP_BOSS_MON:
; 728  : 	case SPOT_BALL:
; 729  : 	case SPOT_ROULETTE:
; 730  : 	case SPOT_STAR:
; 731  : 	case SPOT_STAR_ON:
; 732  : 	case SPOT_SHUFFFLE_MONSTER:
; 733  : 	case SPOT_SHUFFLE_BUFFBOX:
; 734  : 		if(	rkPoint.m_Type < MAX_SPOT && m_pSpot[rkPoint.m_Type] )

  00305	83 f8 23	 cmp	 eax, 35			; 00000023H
  00308	7d 3e		 jge	 SHORT $LN1@RenderSpot
  0030a	8d 84 87 d4 01
	00 00		 lea	 eax, DWORD PTR [edi+eax*4+468]
$LN59@RenderSpot:
  00311	39 18		 cmp	 DWORD PTR [eax], ebx
  00313	74 33		 je	 SHORT $LN1@RenderSpot

; 735  : 			m_pSpot[rkPoint.m_Type]->Render( iXPos + rkPoint.m_iXOffset, iYPos + rkPoint.m_iYOffset );

  00315	8b 00		 mov	 eax, DWORD PTR [eax]
$LN62@RenderSpot:
  00317	8b 4e 08	 mov	 ecx, DWORD PTR [esi+8]
  0031a	03 4d 0c	 add	 ecx, DWORD PTR _iYPos$[ebp]
  0031d	8b 10		 mov	 edx, DWORD PTR [eax]
  0031f	53		 push	 ebx
  00320	53		 push	 ebx
  00321	53		 push	 ebx
  00322	53		 push	 ebx
  00323	51		 push	 ecx
  00324	51		 push	 ecx
  00325	0f 57 c0	 xorps	 xmm0, xmm0
  00328	f3 0f 2a c1	 cvtsi2ss xmm0, ecx
  0032c	8b 4e 04	 mov	 ecx, DWORD PTR [esi+4]
  0032f	03 4d 08	 add	 ecx, DWORD PTR _iXPos$[ebp]
  00332	f3 0f 11 44 24
	04		 movss	 DWORD PTR [esp+4], xmm0
  00338	0f 57 c0	 xorps	 xmm0, xmm0
  0033b	f3 0f 2a c1	 cvtsi2ss xmm0, ecx
  0033f	8b c8		 mov	 ecx, eax
  00341	f3 0f 11 04 24	 movss	 DWORD PTR [esp], xmm0
  00346	ff 12		 call	 DWORD PTR [edx]
$LN1@RenderSpot:
  00348	5f		 pop	 edi
  00349	5e		 pop	 esi
  0034a	5b		 pop	 ebx

; 736  : 		break;
; 737  : 	}
; 738  : }

  0034b	5d		 pop	 ebp
  0034c	c2 0c 00	 ret	 12			; 0000000cH
  0034f	90		 npad	 1
$LN66@RenderSpot:
  00350	00 00 00 00	 DD	 $LN52@RenderSpot
  00354	00 00 00 00	 DD	 $LN47@RenderSpot
  00358	00 00 00 00	 DD	 $LN35@RenderSpot
  0035c	00 00 00 00	 DD	 $LN15@RenderSpot
  00360	00 00 00 00	 DD	 $LN27@RenderSpot
  00364	00 00 00 00	 DD	 $LN9@RenderSpot
  00368	00 00 00 00	 DD	 $LN41@RenderSpot
  0036c	00 00 00 00	 DD	 $LN2@RenderSpot
  00370	00 00 00 00	 DD	 $LN19@RenderSpot
  00374	00 00 00 00	 DD	 $LN17@RenderSpot
  00378	00 00 00 00	 DD	 $LN1@RenderSpot
$LN58@RenderSpot:
  0037c	00		 DB	 0
  0037d	0a		 DB	 10			; 0000000aH
  0037e	00		 DB	 0
  0037f	0a		 DB	 10			; 0000000aH
  00380	01		 DB	 1
  00381	02		 DB	 2
  00382	0a		 DB	 10			; 0000000aH
  00383	0a		 DB	 10			; 0000000aH
  00384	00		 DB	 0
  00385	0a		 DB	 10			; 0000000aH
  00386	03		 DB	 3
  00387	04		 DB	 4
  00388	0a		 DB	 10			; 0000000aH
  00389	04		 DB	 4
  0038a	05		 DB	 5
  0038b	06		 DB	 6
  0038c	07		 DB	 7
  0038d	07		 DB	 7
  0038e	07		 DB	 7
  0038f	07		 DB	 7
  00390	00		 DB	 0
  00391	0a		 DB	 10			; 0000000aH
  00392	00		 DB	 0
  00393	0a		 DB	 10			; 0000000aH
  00394	00		 DB	 0
  00395	0a		 DB	 10			; 0000000aH
  00396	00		 DB	 0
  00397	0a		 DB	 10			; 0000000aH
  00398	07		 DB	 7
  00399	08		 DB	 8
  0039a	09		 DB	 9
  0039b	07		 DB	 7
  0039c	07		 DB	 7
  0039d	07		 DB	 7
  0039e	07		 DB	 7
?RenderSpotPoint@MiniMap@@IAEXHHABUSpotPoint@1@@Z ENDP	; MiniMap::RenderSpotPoint
_TEXT	ENDS
PUBLIC	?InitShowAniState@MiniMap@@IAEXXZ		; MiniMap::InitShowAniState
EXTRN	?Add@FSMStateMgr@@QAEXPAVFSMState@@@Z:PROC	; FSMStateMgr::Add
EXTRN	?Add@FSMState@@QAEXHHH@Z:PROC			; FSMState::Add
EXTRN	??0FSMState@@QAE@H@Z:PROC			; FSMState::FSMState
EXTRN	??2@YAPAXI@Z:PROC				; operator new
EXTRN	?SetCurState@FSMStateMgr@@QAEXH@Z:PROC		; FSMStateMgr::SetCurState
EXTRN	___CxxFrameHandler3:PROC
EXTRN	__EH_epilog3:PROC
EXTRN	__EH_prolog3:PROC
;	COMDAT xdata$x
xdata$x	SEGMENT
__ehfuncinfo$?InitShowAniState@MiniMap@@IAEXXZ DD 019930522H
	DD	08H
	DD	FLAT:__unwindtable$?InitShowAniState@MiniMap@@IAEXXZ
	DD	2 DUP(00H)
	DD	2 DUP(00H)
	DD	00H
	DD	01H
__unwindtable$?InitShowAniState@MiniMap@@IAEXXZ DD 0ffffffffH
	DD	FLAT:__unwindfunclet$?InitShowAniState@MiniMap@@IAEXXZ$0
	DD	0ffffffffH
	DD	FLAT:__unwindfunclet$?InitShowAniState@MiniMap@@IAEXXZ$1
	DD	0ffffffffH
	DD	FLAT:__unwindfunclet$?InitShowAniState@MiniMap@@IAEXXZ$2
	DD	0ffffffffH
	DD	FLAT:__unwindfunclet$?InitShowAniState@MiniMap@@IAEXXZ$3
	DD	0ffffffffH
	DD	FLAT:__unwindfunclet$?InitShowAniState@MiniMap@@IAEXXZ$4
	DD	0ffffffffH
	DD	FLAT:__unwindfunclet$?InitShowAniState@MiniMap@@IAEXXZ$5
	DD	0ffffffffH
	DD	FLAT:__unwindfunclet$?InitShowAniState@MiniMap@@IAEXXZ$6
	DD	0ffffffffH
	DD	FLAT:__unwindfunclet$?InitShowAniState@MiniMap@@IAEXXZ$7
; Function compile flags: /Ogsp
xdata$x	ENDS
;	COMDAT ?InitShowAniState@MiniMap@@IAEXXZ
_TEXT	SEGMENT
$T531177 = -20						; size = 4
$T531173 = -20						; size = 4
$T531169 = -20						; size = 4
$T531165 = -20						; size = 4
$T531161 = -20						; size = 4
$T531157 = -20						; size = 4
$T531153 = -20						; size = 4
$T531149 = -20						; size = 4
tv256 = -16						; size = 4
__$EHRec$ = -12						; size = 12
?InitShowAniState@MiniMap@@IAEXXZ PROC			; MiniMap::InitShowAniState, COMDAT
; _this$ = ecx

; 741  : {

  00000	6a 08		 push	 8
  00002	b8 00 00 00 00	 mov	 eax, __ehhandler$?InitShowAniState@MiniMap@@IAEXXZ
  00007	e8 00 00 00 00	 call	 __EH_prolog3

; 742  : 	enum { DELAY_DELAY = 165, DELAY_UP = 198, DELAY_DOWN = 66, DELAY_UP_STOP = 66, };
; 743  : 
; 744  : 	m_ShowAniState.SetCurState( SAT_NONE );

  0000c	81 c1 78 02 00
	00		 add	 ecx, 632		; 00000278H
  00012	33 db		 xor	 ebx, ebx
  00014	53		 push	 ebx
  00015	89 4d f0	 mov	 DWORD PTR tv256[ebp], ecx
  00018	e8 00 00 00 00	 call	 ?SetCurState@FSMStateMgr@@QAEXH@Z ; FSMStateMgr::SetCurState

; 745  : 
; 746  : 	FSMState *pState = new FSMState(SAT_NONE);

  0001d	6a 38		 push	 56			; 00000038H
  0001f	e8 00 00 00 00	 call	 ??2@YAPAXI@Z		; operator new
  00024	59		 pop	 ecx
  00025	89 45 ec	 mov	 DWORD PTR $T531149[ebp], eax
  00028	89 5d fc	 mov	 DWORD PTR __$EHRec$[ebp+8], ebx
  0002b	3b c3		 cmp	 eax, ebx
  0002d	74 0c		 je	 SHORT $LN11@InitShowAn
  0002f	53		 push	 ebx
  00030	8b c8		 mov	 ecx, eax
  00032	e8 00 00 00 00	 call	 ??0FSMState@@QAE@H@Z	; FSMState::FSMState
  00037	8b f0		 mov	 esi, eax
  00039	eb 02		 jmp	 SHORT $LN12@InitShowAn
$LN11@InitShowAn:
  0003b	33 f6		 xor	 esi, esi
$LN12@InitShowAn:
  0003d	83 4d fc ff	 or	 DWORD PTR __$EHRec$[ebp+8], -1

; 747  : 	if( pState )

  00041	6a 02		 push	 2
  00043	5f		 pop	 edi
  00044	3b f3		 cmp	 esi, ebx
  00046	74 25		 je	 SHORT $LN8@InitShowAn

; 748  : 	{
; 749  : 		pState->Add( SAT_DELAY,  SAT_DELAY );

  00048	6a ff		 push	 -1
  0004a	57		 push	 edi
  0004b	57		 push	 edi
  0004c	8b ce		 mov	 ecx, esi
  0004e	e8 00 00 00 00	 call	 ?Add@FSMState@@QAEXHHH@Z ; FSMState::Add

; 750  : 		pState->Add( SAT_START_ROUND, SAT_START_ROUND );

  00053	6a ff		 push	 -1
  00055	6a 01		 push	 1
  00057	6a 01		 push	 1
  00059	8b ce		 mov	 ecx, esi
  0005b	e8 00 00 00 00	 call	 ?Add@FSMState@@QAEXHHH@Z ; FSMState::Add

; 751  : 		pState->Add( SAT_END,  SAT_END );

  00060	6a ff		 push	 -1
  00062	6a 07		 push	 7
  00064	6a 07		 push	 7
  00066	8b ce		 mov	 ecx, esi
  00068	e8 00 00 00 00	 call	 ?Add@FSMState@@QAEXHHH@Z ; FSMState::Add
$LN8@InitShowAn:

; 752  : 	}
; 753  : 	m_ShowAniState.Add( pState );

  0006d	8b 4d f0	 mov	 ecx, DWORD PTR tv256[ebp]
  00070	56		 push	 esi
  00071	e8 00 00 00 00	 call	 ?Add@FSMStateMgr@@QAEXPAVFSMState@@@Z ; FSMStateMgr::Add

; 754  : 
; 755  : 	pState = new FSMState(SAT_START_ROUND);

  00076	6a 38		 push	 56			; 00000038H
  00078	e8 00 00 00 00	 call	 ??2@YAPAXI@Z		; operator new
  0007d	59		 pop	 ecx
  0007e	89 45 ec	 mov	 DWORD PTR $T531153[ebp], eax
  00081	33 c9		 xor	 ecx, ecx
  00083	41		 inc	 ecx
  00084	89 4d fc	 mov	 DWORD PTR __$EHRec$[ebp+8], ecx
  00087	3b c3		 cmp	 eax, ebx
  00089	74 0c		 je	 SHORT $LN13@InitShowAn
  0008b	51		 push	 ecx
  0008c	8b c8		 mov	 ecx, eax
  0008e	e8 00 00 00 00	 call	 ??0FSMState@@QAE@H@Z	; FSMState::FSMState
  00093	8b f0		 mov	 esi, eax
  00095	eb 02		 jmp	 SHORT $LN14@InitShowAn
$LN13@InitShowAn:
  00097	33 f6		 xor	 esi, esi
$LN14@InitShowAn:
  00099	83 4d fc ff	 or	 DWORD PTR __$EHRec$[ebp+8], -1

; 756  : 	if( pState )

  0009d	3b f3		 cmp	 esi, ebx
  0009f	74 16		 je	 SHORT $LN7@InitShowAn

; 757  : 	{
; 758  : 		pState->Add( SAT_DELAY,  SAT_DELAY);

  000a1	6a ff		 push	 -1
  000a3	57		 push	 edi
  000a4	57		 push	 edi
  000a5	8b ce		 mov	 ecx, esi
  000a7	e8 00 00 00 00	 call	 ?Add@FSMState@@QAEXHHH@Z ; FSMState::Add

; 759  : 		pState->Add( SAT_NONE,  SAT_NONE);

  000ac	6a ff		 push	 -1
  000ae	53		 push	 ebx
  000af	53		 push	 ebx
  000b0	8b ce		 mov	 ecx, esi
  000b2	e8 00 00 00 00	 call	 ?Add@FSMState@@QAEXHHH@Z ; FSMState::Add
$LN7@InitShowAn:

; 760  : 	}
; 761  : 	m_ShowAniState.Add( pState );

  000b7	8b 4d f0	 mov	 ecx, DWORD PTR tv256[ebp]
  000ba	56		 push	 esi
  000bb	e8 00 00 00 00	 call	 ?Add@FSMStateMgr@@QAEXPAVFSMState@@@Z ; FSMStateMgr::Add

; 762  : 
; 763  : 	pState = new FSMState(SAT_DELAY);

  000c0	6a 38		 push	 56			; 00000038H
  000c2	e8 00 00 00 00	 call	 ??2@YAPAXI@Z		; operator new
  000c7	59		 pop	 ecx
  000c8	89 45 ec	 mov	 DWORD PTR $T531157[ebp], eax
  000cb	89 7d fc	 mov	 DWORD PTR __$EHRec$[ebp+8], edi
  000ce	3b c3		 cmp	 eax, ebx
  000d0	74 0c		 je	 SHORT $LN15@InitShowAn
  000d2	57		 push	 edi
  000d3	8b c8		 mov	 ecx, eax
  000d5	e8 00 00 00 00	 call	 ??0FSMState@@QAE@H@Z	; FSMState::FSMState
  000da	8b f0		 mov	 esi, eax
  000dc	eb 02		 jmp	 SHORT $LN16@InitShowAn
$LN15@InitShowAn:
  000de	33 f6		 xor	 esi, esi
$LN16@InitShowAn:
  000e0	83 4d fc ff	 or	 DWORD PTR __$EHRec$[ebp+8], -1

; 764  : 	if( pState )

  000e4	6a 03		 push	 3
  000e6	5b		 pop	 ebx
  000e7	85 f6		 test	 esi, esi
  000e9	74 0e		 je	 SHORT $LN6@InitShowAn

; 765  : 		pState->Add( SAT_DELAY,  SAT_UP , DELAY_DELAY);

  000eb	68 a5 00 00 00	 push	 165			; 000000a5H
  000f0	53		 push	 ebx
  000f1	57		 push	 edi
  000f2	8b ce		 mov	 ecx, esi
  000f4	e8 00 00 00 00	 call	 ?Add@FSMState@@QAEXHHH@Z ; FSMState::Add
$LN6@InitShowAn:

; 766  : 	m_ShowAniState.Add( pState );	

  000f9	8b 4d f0	 mov	 ecx, DWORD PTR tv256[ebp]
  000fc	56		 push	 esi
  000fd	e8 00 00 00 00	 call	 ?Add@FSMStateMgr@@QAEXPAVFSMState@@@Z ; FSMStateMgr::Add

; 767  : 
; 768  : 	pState = new FSMState(SAT_UP);

  00102	6a 38		 push	 56			; 00000038H
  00104	e8 00 00 00 00	 call	 ??2@YAPAXI@Z		; operator new
  00109	59		 pop	 ecx
  0010a	89 45 ec	 mov	 DWORD PTR $T531161[ebp], eax
  0010d	89 5d fc	 mov	 DWORD PTR __$EHRec$[ebp+8], ebx
  00110	85 c0		 test	 eax, eax
  00112	74 0c		 je	 SHORT $LN17@InitShowAn
  00114	53		 push	 ebx
  00115	8b c8		 mov	 ecx, eax
  00117	e8 00 00 00 00	 call	 ??0FSMState@@QAE@H@Z	; FSMState::FSMState
  0011c	8b f8		 mov	 edi, eax
  0011e	eb 02		 jmp	 SHORT $LN18@InitShowAn
$LN17@InitShowAn:
  00120	33 ff		 xor	 edi, edi
$LN18@InitShowAn:
  00122	83 4d fc ff	 or	 DWORD PTR __$EHRec$[ebp+8], -1

; 769  : 	if( pState )

  00126	6a 04		 push	 4
  00128	5e		 pop	 esi
  00129	85 ff		 test	 edi, edi
  0012b	74 0e		 je	 SHORT $LN5@InitShowAn

; 770  : 		pState->Add( SAT_UP,  SAT_DOWN , DELAY_UP);

  0012d	68 c6 00 00 00	 push	 198			; 000000c6H
  00132	56		 push	 esi
  00133	53		 push	 ebx
  00134	8b cf		 mov	 ecx, edi
  00136	e8 00 00 00 00	 call	 ?Add@FSMState@@QAEXHHH@Z ; FSMState::Add
$LN5@InitShowAn:

; 771  : 	m_ShowAniState.Add( pState );

  0013b	8b 4d f0	 mov	 ecx, DWORD PTR tv256[ebp]
  0013e	57		 push	 edi
  0013f	e8 00 00 00 00	 call	 ?Add@FSMStateMgr@@QAEXPAVFSMState@@@Z ; FSMStateMgr::Add

; 772  : 
; 773  : 	pState = new FSMState(SAT_DOWN);

  00144	6a 38		 push	 56			; 00000038H
  00146	e8 00 00 00 00	 call	 ??2@YAPAXI@Z		; operator new
  0014b	59		 pop	 ecx
  0014c	89 45 ec	 mov	 DWORD PTR $T531165[ebp], eax
  0014f	89 75 fc	 mov	 DWORD PTR __$EHRec$[ebp+8], esi
  00152	85 c0		 test	 eax, eax
  00154	74 0c		 je	 SHORT $LN19@InitShowAn
  00156	56		 push	 esi
  00157	8b c8		 mov	 ecx, eax
  00159	e8 00 00 00 00	 call	 ??0FSMState@@QAE@H@Z	; FSMState::FSMState
  0015e	8b d8		 mov	 ebx, eax
  00160	eb 02		 jmp	 SHORT $LN20@InitShowAn
$LN19@InitShowAn:
  00162	33 db		 xor	 ebx, ebx
$LN20@InitShowAn:
  00164	83 4d fc ff	 or	 DWORD PTR __$EHRec$[ebp+8], -1

; 774  : 	if( pState )

  00168	6a 05		 push	 5
  0016a	5f		 pop	 edi
  0016b	85 db		 test	 ebx, ebx
  0016d	74 0b		 je	 SHORT $LN4@InitShowAn

; 775  : 		pState->Add( SAT_DOWN,  SAT_UP_STOP , DELAY_DOWN );

  0016f	6a 42		 push	 66			; 00000042H
  00171	57		 push	 edi
  00172	56		 push	 esi
  00173	8b cb		 mov	 ecx, ebx
  00175	e8 00 00 00 00	 call	 ?Add@FSMState@@QAEXHHH@Z ; FSMState::Add
$LN4@InitShowAn:

; 776  : 	m_ShowAniState.Add( pState );

  0017a	8b 4d f0	 mov	 ecx, DWORD PTR tv256[ebp]
  0017d	53		 push	 ebx
  0017e	e8 00 00 00 00	 call	 ?Add@FSMStateMgr@@QAEXPAVFSMState@@@Z ; FSMStateMgr::Add

; 777  : 
; 778  : 	pState = new FSMState(SAT_UP_STOP);

  00183	6a 38		 push	 56			; 00000038H
  00185	e8 00 00 00 00	 call	 ??2@YAPAXI@Z		; operator new
  0018a	59		 pop	 ecx
  0018b	89 45 ec	 mov	 DWORD PTR $T531169[ebp], eax
  0018e	89 7d fc	 mov	 DWORD PTR __$EHRec$[ebp+8], edi
  00191	85 c0		 test	 eax, eax
  00193	74 0c		 je	 SHORT $LN21@InitShowAn
  00195	57		 push	 edi
  00196	8b c8		 mov	 ecx, eax
  00198	e8 00 00 00 00	 call	 ??0FSMState@@QAE@H@Z	; FSMState::FSMState
  0019d	8b d8		 mov	 ebx, eax
  0019f	eb 02		 jmp	 SHORT $LN22@InitShowAn
$LN21@InitShowAn:
  001a1	33 db		 xor	 ebx, ebx
$LN22@InitShowAn:
  001a3	83 4d fc ff	 or	 DWORD PTR __$EHRec$[ebp+8], -1

; 779  : 	if( pState )

  001a7	6a 06		 push	 6
  001a9	5e		 pop	 esi
  001aa	85 db		 test	 ebx, ebx
  001ac	74 0b		 je	 SHORT $LN3@InitShowAn

; 780  : 		pState->Add( SAT_UP_STOP,  SAT_STOP , DELAY_UP_STOP );

  001ae	6a 42		 push	 66			; 00000042H
  001b0	56		 push	 esi
  001b1	57		 push	 edi
  001b2	8b cb		 mov	 ecx, ebx
  001b4	e8 00 00 00 00	 call	 ?Add@FSMState@@QAEXHHH@Z ; FSMState::Add
$LN3@InitShowAn:

; 781  : 	m_ShowAniState.Add( pState );

  001b9	8b 4d f0	 mov	 ecx, DWORD PTR tv256[ebp]
  001bc	53		 push	 ebx
  001bd	e8 00 00 00 00	 call	 ?Add@FSMStateMgr@@QAEXPAVFSMState@@@Z ; FSMStateMgr::Add

; 782  : 
; 783  : 	pState = new FSMState(SAT_STOP);

  001c2	6a 38		 push	 56			; 00000038H
  001c4	e8 00 00 00 00	 call	 ??2@YAPAXI@Z		; operator new
  001c9	59		 pop	 ecx
  001ca	89 45 ec	 mov	 DWORD PTR $T531173[ebp], eax
  001cd	89 75 fc	 mov	 DWORD PTR __$EHRec$[ebp+8], esi
  001d0	85 c0		 test	 eax, eax
  001d2	74 0c		 je	 SHORT $LN23@InitShowAn
  001d4	56		 push	 esi
  001d5	8b c8		 mov	 ecx, eax
  001d7	e8 00 00 00 00	 call	 ??0FSMState@@QAE@H@Z	; FSMState::FSMState
  001dc	8b f0		 mov	 esi, eax
  001de	eb 02		 jmp	 SHORT $LN24@InitShowAn
$LN23@InitShowAn:
  001e0	33 f6		 xor	 esi, esi
$LN24@InitShowAn:
  001e2	83 cf ff	 or	 edi, -1
  001e5	89 7d fc	 mov	 DWORD PTR __$EHRec$[ebp+8], edi

; 784  : 	if( pState )

  001e8	85 f6		 test	 esi, esi
  001ea	74 0c		 je	 SHORT $LN2@InitShowAn

; 785  : 		pState->Add( SAT_END,  SAT_END );

  001ec	57		 push	 edi
  001ed	6a 07		 push	 7
  001ef	6a 07		 push	 7
  001f1	8b ce		 mov	 ecx, esi
  001f3	e8 00 00 00 00	 call	 ?Add@FSMState@@QAEXHHH@Z ; FSMState::Add
$LN2@InitShowAn:

; 786  : 	m_ShowAniState.Add( pState );

  001f8	8b 4d f0	 mov	 ecx, DWORD PTR tv256[ebp]
  001fb	56		 push	 esi
  001fc	e8 00 00 00 00	 call	 ?Add@FSMStateMgr@@QAEXPAVFSMState@@@Z ; FSMStateMgr::Add

; 787  : 
; 788  : 	pState = new FSMState(SAT_END);

  00201	6a 38		 push	 56			; 00000038H
  00203	e8 00 00 00 00	 call	 ??2@YAPAXI@Z		; operator new
  00208	59		 pop	 ecx
  00209	89 45 ec	 mov	 DWORD PTR $T531177[ebp], eax
  0020c	6a 07		 push	 7
  0020e	59		 pop	 ecx
  0020f	89 4d fc	 mov	 DWORD PTR __$EHRec$[ebp+8], ecx
  00212	85 c0		 test	 eax, eax
  00214	74 0c		 je	 SHORT $LN25@InitShowAn
  00216	51		 push	 ecx
  00217	8b c8		 mov	 ecx, eax
  00219	e8 00 00 00 00	 call	 ??0FSMState@@QAE@H@Z	; FSMState::FSMState
  0021e	8b f0		 mov	 esi, eax
  00220	eb 02		 jmp	 SHORT $LN26@InitShowAn
$LN25@InitShowAn:
  00222	33 f6		 xor	 esi, esi
$LN26@InitShowAn:
  00224	89 7d fc	 mov	 DWORD PTR __$EHRec$[ebp+8], edi

; 789  : 	if( pState )

  00227	85 f6		 test	 esi, esi
  00229	74 18		 je	 SHORT $LN1@InitShowAn

; 790  : 	{
; 791  : 		pState->Add( SAT_NONE,  SAT_NONE );

  0022b	57		 push	 edi
  0022c	6a 00		 push	 0
  0022e	6a 00		 push	 0
  00230	8b ce		 mov	 ecx, esi
  00232	e8 00 00 00 00	 call	 ?Add@FSMState@@QAEXHHH@Z ; FSMState::Add

; 792  : 		pState->Add( SAT_START_ROUND, SAT_START_ROUND );

  00237	57		 push	 edi
  00238	6a 01		 push	 1
  0023a	6a 01		 push	 1
  0023c	8b ce		 mov	 ecx, esi
  0023e	e8 00 00 00 00	 call	 ?Add@FSMState@@QAEXHHH@Z ; FSMState::Add
$LN1@InitShowAn:

; 793  : 	}
; 794  : 	m_ShowAniState.Add( pState );

  00243	8b 4d f0	 mov	 ecx, DWORD PTR tv256[ebp]
  00246	56		 push	 esi
  00247	e8 00 00 00 00	 call	 ?Add@FSMStateMgr@@QAEXPAVFSMState@@@Z ; FSMStateMgr::Add

; 795  : }

  0024c	e8 00 00 00 00	 call	 __EH_epilog3
  00251	c3		 ret	 0
_TEXT	ENDS
;	COMDAT text$x
text$x	SEGMENT
__unwindfunclet$?InitShowAniState@MiniMap@@IAEXXZ$0:
  00000	ff 75 ec	 push	 DWORD PTR $T531149[ebp]
  00003	e8 00 00 00 00	 call	 ??3@YAXPAX@Z		; operator delete
  00008	59		 pop	 ecx
  00009	c3		 ret	 0
__unwindfunclet$?InitShowAniState@MiniMap@@IAEXXZ$1:
  0000a	ff 75 ec	 push	 DWORD PTR $T531153[ebp]
  0000d	e8 00 00 00 00	 call	 ??3@YAXPAX@Z		; operator delete
  00012	59		 pop	 ecx
  00013	c3		 ret	 0
__unwindfunclet$?InitShowAniState@MiniMap@@IAEXXZ$2:
  00014	ff 75 ec	 push	 DWORD PTR $T531157[ebp]
  00017	e8 00 00 00 00	 call	 ??3@YAXPAX@Z		; operator delete
  0001c	59		 pop	 ecx
  0001d	c3		 ret	 0
__unwindfunclet$?InitShowAniState@MiniMap@@IAEXXZ$3:
  0001e	ff 75 ec	 push	 DWORD PTR $T531161[ebp]
  00021	e8 00 00 00 00	 call	 ??3@YAXPAX@Z		; operator delete
  00026	59		 pop	 ecx
  00027	c3		 ret	 0
__unwindfunclet$?InitShowAniState@MiniMap@@IAEXXZ$4:
  00028	ff 75 ec	 push	 DWORD PTR $T531165[ebp]
  0002b	e8 00 00 00 00	 call	 ??3@YAXPAX@Z		; operator delete
  00030	59		 pop	 ecx
  00031	c3		 ret	 0
__unwindfunclet$?InitShowAniState@MiniMap@@IAEXXZ$5:
  00032	ff 75 ec	 push	 DWORD PTR $T531169[ebp]
  00035	e8 00 00 00 00	 call	 ??3@YAXPAX@Z		; operator delete
  0003a	59		 pop	 ecx
  0003b	c3		 ret	 0
__unwindfunclet$?InitShowAniState@MiniMap@@IAEXXZ$6:
  0003c	ff 75 ec	 push	 DWORD PTR $T531173[ebp]
  0003f	e8 00 00 00 00	 call	 ??3@YAXPAX@Z		; operator delete
  00044	59		 pop	 ecx
  00045	c3		 ret	 0
__unwindfunclet$?InitShowAniState@MiniMap@@IAEXXZ$7:
  00046	ff 75 ec	 push	 DWORD PTR $T531177[ebp]
  00049	e8 00 00 00 00	 call	 ??3@YAXPAX@Z		; operator delete
  0004e	59		 pop	 ecx
  0004f	c3		 ret	 0
__ehhandler$?InitShowAniState@MiniMap@@IAEXXZ:
  00050	8b 54 24 08	 mov	 edx, DWORD PTR [esp+8]
  00054	8d 42 0c	 lea	 eax, DWORD PTR [edx+12]
  00057	8b 4a e8	 mov	 ecx, DWORD PTR [edx-24]
  0005a	33 c8		 xor	 ecx, eax
  0005c	e8 00 00 00 00	 call	 @__security_check_cookie@4
  00061	b8 00 00 00 00	 mov	 eax, OFFSET __ehfuncinfo$?InitShowAniState@MiniMap@@IAEXXZ
  00066	e9 00 00 00 00	 jmp	 ___CxxFrameHandler3
text$x	ENDS
?InitShowAniState@MiniMap@@IAEXXZ ENDP			; MiniMap::InitShowAniState
PUBLIC	?ChangeShowAniState@MiniMap@@QAEXW4ShowAniType@1@@Z ; MiniMap::ChangeShowAniState
EXTRN	?ChangeState@FSMStateMgr@@QAEHH@Z:PROC		; FSMStateMgr::ChangeState
; Function compile flags: /Ogsp
;	COMDAT ?ChangeShowAniState@MiniMap@@QAEXW4ShowAniType@1@@Z
_TEXT	SEGMENT
_eShowAniType$ = 8					; size = 4
?ChangeShowAniState@MiniMap@@QAEXW4ShowAniType@1@@Z PROC ; MiniMap::ChangeShowAniState, COMDAT
; _this$ = ecx

; 817  : {

  00000	55		 push	 ebp
  00001	8b ec		 mov	 ebp, esp

; 818  : 	m_ShowAniState.ChangeState( (int) eShowAniType );

  00003	81 c1 78 02 00
	00		 add	 ecx, 632		; 00000278H

; 819  : }

  00009	5d		 pop	 ebp

; 818  : 	m_ShowAniState.ChangeState( (int) eShowAniType );

  0000a	e9 00 00 00 00	 jmp	 ?ChangeState@FSMStateMgr@@QAEHH@Z ; FSMStateMgr::ChangeState
?ChangeShowAniState@MiniMap@@QAEXW4ShowAniType@1@@Z ENDP ; MiniMap::ChangeShowAniState
_TEXT	ENDS
PUBLIC	?UpdateDefaultPos@MiniMap@@IAEXXZ		; MiniMap::UpdateDefaultPos
EXTRN	__imp_?GetHeight@ioWnd@@QBEHXZ:PROC
EXTRN	__imp_?GetWidth@ioWnd@@QBEHXZ:PROC
EXTRN	__imp_?IsMoving@ioMovingWnd@@QAE_NXZ:PROC
EXTRN	?IsDragMove@ioSP2GUIManager@@QBE_NK@Z:PROC	; ioSP2GUIManager::IsDragMove
; Function compile flags: /Ogsp
;	COMDAT ?UpdateDefaultPos@MiniMap@@IAEXXZ
_TEXT	SEGMENT
?UpdateDefaultPos@MiniMap@@IAEXXZ PROC			; MiniMap::UpdateDefaultPos, COMDAT
; _this$ = ecx

; 872  : {

  00000	56		 push	 esi
  00001	8b f1		 mov	 esi, ecx

; 873  : 	if( g_GUIMgr.IsDragMove( m_dwID ) || IsMoving() )

  00003	ff 76 14	 push	 DWORD PTR [esi+20]
  00006	e8 00 00 00 00	 call	 ?GetSingleton@ioSP2GUIManager@@SAAAV1@XZ ; ioSP2GUIManager::GetSingleton
  0000b	8b c8		 mov	 ecx, eax
  0000d	e8 00 00 00 00	 call	 ?IsDragMove@ioSP2GUIManager@@QBE_NK@Z ; ioSP2GUIManager::IsDragMove
  00012	84 c0		 test	 al, al
  00014	75 10		 jne	 SHORT $LN5@UpdateDefa
  00016	8b ce		 mov	 ecx, esi
  00018	ff 15 00 00 00
	00		 call	 DWORD PTR __imp_?IsMoving@ioMovingWnd@@QAE_NXZ
  0001e	84 c0		 test	 al, al
  00020	0f 84 8d 00 00
	00		 je	 $LN1@UpdateDefa
$LN5@UpdateDefa:
  00026	53		 push	 ebx
  00027	57		 push	 edi

; 874  : 	{
; 875  : 		if( m_iDefaultX != GetXPos() )

  00028	8b ce		 mov	 ecx, esi
  0002a	ff 15 00 00 00
	00		 call	 DWORD PTR __imp_?GetXPos@ioWnd@@QBEHXZ
  00030	33 db		 xor	 ebx, ebx
  00032	43		 inc	 ebx
  00033	39 86 a0 02 00
	00		 cmp	 DWORD PTR [esi+672], eax
  00039	74 39		 je	 SHORT $LN3@UpdateDefa

; 876  : 		{
; 877  : 			if( COMPARE( GetXPos(), 0, (Setting::Width() - GetWidth() ) + 1 ))

  0003b	8b ce		 mov	 ecx, esi
  0003d	ff 15 00 00 00
	00		 call	 DWORD PTR __imp_?GetXPos@ioWnd@@QBEHXZ
  00043	85 c0		 test	 eax, eax
  00045	78 2d		 js	 SHORT $LN3@UpdateDefa
  00047	8b ce		 mov	 ecx, esi
  00049	ff 15 00 00 00
	00		 call	 DWORD PTR __imp_?GetWidth@ioWnd@@QBEHXZ
  0004f	8b fb		 mov	 edi, ebx
  00051	2b f8		 sub	 edi, eax
  00053	e8 00 00 00 00	 call	 ?Width@Setting@@SAHXZ	; Setting::Width
  00058	8b ce		 mov	 ecx, esi
  0005a	03 f8		 add	 edi, eax
  0005c	ff 15 00 00 00
	00		 call	 DWORD PTR __imp_?GetXPos@ioWnd@@QBEHXZ
  00062	3b c7		 cmp	 eax, edi
  00064	7d 0e		 jge	 SHORT $LN3@UpdateDefa

; 878  : 				m_iDefaultX = GetXPos();

  00066	8b ce		 mov	 ecx, esi
  00068	ff 15 00 00 00
	00		 call	 DWORD PTR __imp_?GetXPos@ioWnd@@QBEHXZ
  0006e	89 86 a0 02 00
	00		 mov	 DWORD PTR [esi+672], eax
$LN3@UpdateDefa:

; 879  : 		}
; 880  : 
; 881  : 		if( m_iDefaultY != GetYPos() )

  00074	8b ce		 mov	 ecx, esi
  00076	ff 15 00 00 00
	00		 call	 DWORD PTR __imp_?GetYPos@ioWnd@@QBEHXZ
  0007c	39 86 a4 02 00
	00		 cmp	 DWORD PTR [esi+676], eax
  00082	74 2d		 je	 SHORT $LN9@UpdateDefa

; 882  : 		{
; 883  : 			int iYPos = GetYPos() - m_iBlindOffSetY;

  00084	8b ce		 mov	 ecx, esi
  00086	ff 15 00 00 00
	00		 call	 DWORD PTR __imp_?GetYPos@ioWnd@@QBEHXZ
  0008c	8b f8		 mov	 edi, eax
  0008e	2b be c4 01 00
	00		 sub	 edi, DWORD PTR [esi+452]

; 884  : 			if( COMPARE( iYPos, 0, (Setting::Height() - GetHeight() ) + 1 ))

  00094	78 1b		 js	 SHORT $LN9@UpdateDefa
  00096	8b ce		 mov	 ecx, esi
  00098	ff 15 00 00 00
	00		 call	 DWORD PTR __imp_?GetHeight@ioWnd@@QBEHXZ
  0009e	2b d8		 sub	 ebx, eax
  000a0	e8 00 00 00 00	 call	 ?Height@Setting@@SAHXZ	; Setting::Height
  000a5	03 c3		 add	 eax, ebx
  000a7	3b f8		 cmp	 edi, eax
  000a9	7d 06		 jge	 SHORT $LN9@UpdateDefa

; 885  : 				m_iDefaultY = iYPos;

  000ab	89 be a4 02 00
	00		 mov	 DWORD PTR [esi+676], edi
$LN9@UpdateDefa:
  000b1	5f		 pop	 edi
  000b2	5b		 pop	 ebx
$LN1@UpdateDefa:
  000b3	5e		 pop	 esi

; 886  : 		}
; 887  : 	}
; 888  : }

  000b4	c3		 ret	 0
?UpdateDefaultPos@MiniMap@@IAEXXZ ENDP			; MiniMap::UpdateDefaultPos
_TEXT	ENDS
PUBLIC	__real@4082c00000000000
PUBLIC	?SetPositionToDefault@MiniMap@@UAEXHH_N0@Z	; MiniMap::SetPositionToDefault
EXTRN	__imp_?SetPositionToDefault@ioMovingWnd@@UAEXHH_N0@Z:PROC
;	COMDAT __real@4082c00000000000
; File d:\lost saga for developer\youtube\tutorial\source\src\lsclient\stdafx.h
CONST	SEGMENT
__real@4082c00000000000 DQ 04082c00000000000r	; 600
; Function compile flags: /Ogsp
; File d:\lost saga for developer\youtube\tutorial\source\src\lsclient\gui\minimap.cpp
CONST	ENDS
;	COMDAT ?SetPositionToDefault@MiniMap@@UAEXHH_N0@Z
_TEXT	SEGMENT
tv259 = -4						; size = 4
tv255 = -4						; size = 4
_fPosGap$ = -4						; size = 4
_iParentWidth$ = 8					; size = 4
_iParentHeight$ = 12					; size = 4
_bChildMove$ = 16					; size = 1
_bCreate$ = 20						; size = 1
?SetPositionToDefault@MiniMap@@UAEXHH_N0@Z PROC		; MiniMap::SetPositionToDefault, COMDAT
; _this$ = ecx

; 891  : {

  00000	55		 push	 ebp
  00001	8b ec		 mov	 ebp, esp
  00003	51		 push	 ecx
  00004	53		 push	 ebx
  00005	56		 push	 esi
  00006	57		 push	 edi
  00007	8b f1		 mov	 esi, ecx

; 892  : 	float fPosGap = ( Setting::Height() - 600.0f ) / FLOAT10;

  00009	b8 0a 00 00 00	 mov	 eax, 10			; 0000000aH
  0000e	8b f8		 mov	 edi, eax
  00010	e8 00 00 00 00	 call	 ?Height@Setting@@SAHXZ	; Setting::Height
  00015	89 45 fc	 mov	 DWORD PTR tv259[ebp], eax
  00018	db 45 fc	 fild	 DWORD PTR tv259[ebp]
  0001b	89 7d fc	 mov	 DWORD PTR tv255[ebp], edi
  0001e	dc 25 00 00 00
	00		 fsub	 QWORD PTR __real@4082c00000000000
  00024	db 45 fc	 fild	 DWORD PTR tv255[ebp]
  00027	85 ff		 test	 edi, edi
  00029	79 06		 jns	 SHORT $LN6@SetPositio
  0002b	d8 05 00 00 00
	00		 fadd	 DWORD PTR __real@4f800000
$LN6@SetPositio:
  00031	de f9		 fdivp	 ST(1), ST(0)

; 893  : 
; 894  : 	int iTempDefXPos = m_iDefXPos;
; 895  : 	int iTempDefYPos = m_iDefYPos;
; 896  : 
; 897  : 	m_iDefXPos = iTempDefXPos - fPosGap;
; 898  : 	m_iDefYPos = iTempDefYPos + fPosGap;
; 899  : 
; 900  : 	ioMovingWnd::SetPositionToDefault( iParentWidth, iParentHeight, bChildMove, bCreate );

  00033	ff 75 14	 push	 DWORD PTR _bCreate$[ebp]
  00036	8b be c0 00 00
	00		 mov	 edi, DWORD PTR [esi+192]
  0003c	ff 75 10	 push	 DWORD PTR _bChildMove$[ebp]
  0003f	8b 9e c4 00 00
	00		 mov	 ebx, DWORD PTR [esi+196]
  00045	ff 75 0c	 push	 DWORD PTR _iParentHeight$[ebp]
  00048	0f 57 c0	 xorps	 xmm0, xmm0
  0004b	ff 75 08	 push	 DWORD PTR _iParentWidth$[ebp]
  0004e	f3 0f 2a c7	 cvtsi2ss xmm0, edi
  00052	0f 5a c0	 cvtps2pd xmm0, xmm0
  00055	8b ce		 mov	 ecx, esi
  00057	d9 5d fc	 fstp	 DWORD PTR _fPosGap$[ebp]
  0005a	f3 0f 10 4d fc	 movss	 xmm1, DWORD PTR _fPosGap$[ebp]
  0005f	0f 5a c9	 cvtps2pd xmm1, xmm1
  00062	f2 0f 5c c1	 subsd	 xmm0, xmm1
  00066	f3 0f 10 4d fc	 movss	 xmm1, DWORD PTR _fPosGap$[ebp]
  0006b	f2 0f 2c c0	 cvttsd2si eax, xmm0
  0006f	0f 57 c0	 xorps	 xmm0, xmm0
  00072	f3 0f 2a c3	 cvtsi2ss xmm0, ebx
  00076	0f 5a c0	 cvtps2pd xmm0, xmm0
  00079	0f 5a c9	 cvtps2pd xmm1, xmm1
  0007c	89 86 c0 00 00
	00		 mov	 DWORD PTR [esi+192], eax
  00082	f2 0f 58 c1	 addsd	 xmm0, xmm1
  00086	f2 0f 2c c0	 cvttsd2si eax, xmm0
  0008a	89 86 c4 00 00
	00		 mov	 DWORD PTR [esi+196], eax
  00090	ff 15 00 00 00
	00		 call	 DWORD PTR __imp_?SetPositionToDefault@ioMovingWnd@@UAEXHH_N0@Z

; 901  : 
; 902  : 	m_iDefXPos = iTempDefXPos;
; 903  : 	m_iDefYPos = iTempDefYPos;
; 904  : 
; 905  : 	if( !bCreate )

  00096	80 7d 14 00	 cmp	 BYTE PTR _bCreate$[ebp], 0
  0009a	89 be c0 00 00
	00		 mov	 DWORD PTR [esi+192], edi
  000a0	89 9e c4 00 00
	00		 mov	 DWORD PTR [esi+196], ebx
  000a6	75 33		 jne	 SHORT $LN1@SetPositio

; 906  : 	{
; 907  : 		m_iDefaultX = GetXPos();

  000a8	8b ce		 mov	 ecx, esi
  000aa	ff 15 00 00 00
	00		 call	 DWORD PTR __imp_?GetXPos@ioWnd@@QBEHXZ

; 908  : 		m_iDefaultY = GetYPos();

  000b0	8b ce		 mov	 ecx, esi
  000b2	89 86 a0 02 00
	00		 mov	 DWORD PTR [esi+672], eax
  000b8	ff 15 00 00 00
	00		 call	 DWORD PTR __imp_?GetYPos@ioWnd@@QBEHXZ

; 909  : 
; 910  : 		SetWndPos( m_iDefaultX, m_iDefaultY + m_iBlindOffSetY );

  000be	8b 8e c4 01 00
	00		 mov	 ecx, DWORD PTR [esi+452]
  000c4	03 c8		 add	 ecx, eax
  000c6	51		 push	 ecx
  000c7	ff b6 a0 02 00
	00		 push	 DWORD PTR [esi+672]
  000cd	8b ce		 mov	 ecx, esi
  000cf	89 86 a4 02 00
	00		 mov	 DWORD PTR [esi+676], eax
  000d5	ff 15 00 00 00
	00		 call	 DWORD PTR __imp_?SetWndPos@ioWnd@@QAEXHH@Z
$LN1@SetPositio:
  000db	5f		 pop	 edi
  000dc	5e		 pop	 esi
  000dd	5b		 pop	 ebx

; 911  : 	}
; 912  : }

  000de	c9		 leave
  000df	c2 10 00	 ret	 16			; 00000010H
?SetPositionToDefault@MiniMap@@UAEXHH_N0@Z ENDP		; MiniMap::SetPositionToDefault
_TEXT	ENDS
PUBLIC	?size@?$vector@USpotPoint@MiniMap@@V?$allocator@USpotPoint@MiniMap@@@std@@@std@@QBEIXZ ; std::vector<MiniMap::SpotPoint,std::allocator<MiniMap::SpotPoint> >::size
; Function compile flags: /Ogsp
; File c:\program files (x86)\microsoft visual studio 10.0\vc\include\vector
;	COMDAT ?size@?$vector@USpotPoint@MiniMap@@V?$allocator@USpotPoint@MiniMap@@@std@@@std@@QBEIXZ
_TEXT	SEGMENT
?size@?$vector@USpotPoint@MiniMap@@V?$allocator@USpotPoint@MiniMap@@@std@@@std@@QBEIXZ PROC ; std::vector<MiniMap::SpotPoint,std::allocator<MiniMap::SpotPoint> >::size, COMDAT
; _this$ = ecx

; 879  : 		return (this->_Mylast - this->_Myfirst);

  00000	8b 41 04	 mov	 eax, DWORD PTR [ecx+4]
  00003	2b 01		 sub	 eax, DWORD PTR [ecx]
  00005	6a 14		 push	 20			; 00000014H
  00007	99		 cdq
  00008	59		 pop	 ecx
  00009	f7 f9		 idiv	 ecx

; 880  : 		}

  0000b	c3		 ret	 0
?size@?$vector@USpotPoint@MiniMap@@V?$allocator@USpotPoint@MiniMap@@@std@@@std@@QBEIXZ ENDP ; std::vector<MiniMap::SpotPoint,std::allocator<MiniMap::SpotPoint> >::size
_TEXT	ENDS
PUBLIC	??A?$vector@USpotPoint@MiniMap@@V?$allocator@USpotPoint@MiniMap@@@std@@@std@@QAEAAUSpotPoint@MiniMap@@I@Z ; std::vector<MiniMap::SpotPoint,std::allocator<MiniMap::SpotPoint> >::operator[]
; Function compile flags: /Ogsp
;	COMDAT ??A?$vector@USpotPoint@MiniMap@@V?$allocator@USpotPoint@MiniMap@@@std@@@std@@QAEAAUSpotPoint@MiniMap@@I@Z
_TEXT	SEGMENT
__Pos$ = 8						; size = 4
??A?$vector@USpotPoint@MiniMap@@V?$allocator@USpotPoint@MiniMap@@@std@@@std@@QAEAAUSpotPoint@MiniMap@@I@Z PROC ; std::vector<MiniMap::SpotPoint,std::allocator<MiniMap::SpotPoint> >::operator[], COMDAT
; _this$ = ecx

; 928  : 		{	// subscript mutable sequence

  00000	55		 push	 ebp
  00001	8b ec		 mov	 ebp, esp

; 929  :  #if _ITERATOR_DEBUG_LEVEL == 2
; 930  : 		if (size() <= _Pos)
; 931  : 			{	// report error
; 932  : 			_DEBUG_ERROR("vector subscript out of range");
; 933  : 			_SCL_SECURE_OUT_OF_RANGE;
; 934  : 			}
; 935  : 
; 936  :  #elif _ITERATOR_DEBUG_LEVEL == 1
; 937  : 		_SCL_SECURE_VALIDATE_RANGE(_Pos < size());
; 938  :  #endif /* _ITERATOR_DEBUG_LEVEL */
; 939  : 
; 940  : 		return (*(this->_Myfirst + _Pos));

  00003	8b 45 08	 mov	 eax, DWORD PTR __Pos$[ebp]
  00006	6b c0 14	 imul	 eax, 20			; 00000014H
  00009	03 01		 add	 eax, DWORD PTR [ecx]

; 941  : 		}

  0000b	5d		 pop	 ebp
  0000c	c2 04 00	 ret	 4
??A?$vector@USpotPoint@MiniMap@@V?$allocator@USpotPoint@MiniMap@@@std@@@std@@QAEAAUSpotPoint@MiniMap@@I@Z ENDP ; std::vector<MiniMap::SpotPoint,std::allocator<MiniMap::SpotPoint> >::operator[]
_TEXT	ENDS
PUBLIC	?_Inside@?$vector@USpotPoint@MiniMap@@V?$allocator@USpotPoint@MiniMap@@@std@@@std@@IBE_NPBUSpotPoint@MiniMap@@@Z ; std::vector<MiniMap::SpotPoint,std::allocator<MiniMap::SpotPoint> >::_Inside
; Function compile flags: /Ogsp
;	COMDAT ?_Inside@?$vector@USpotPoint@MiniMap@@V?$allocator@USpotPoint@MiniMap@@@std@@@std@@IBE_NPBUSpotPoint@MiniMap@@@Z
_TEXT	SEGMENT
__Ptr$ = 8						; size = 4
?_Inside@?$vector@USpotPoint@MiniMap@@V?$allocator@USpotPoint@MiniMap@@@std@@@std@@IBE_NPBUSpotPoint@MiniMap@@@Z PROC ; std::vector<MiniMap::SpotPoint,std::allocator<MiniMap::SpotPoint> >::_Inside, COMDAT
; _this$ = ecx

; 1285 : 		{	// test if _Ptr points inside vector

  00000	55		 push	 ebp
  00001	8b ec		 mov	 ebp, esp

; 1286 : 		return (_Ptr < this->_Mylast && this->_Myfirst <= _Ptr);

  00003	8b 45 08	 mov	 eax, DWORD PTR __Ptr$[ebp]
  00006	3b 41 04	 cmp	 eax, DWORD PTR [ecx+4]
  00009	73 09		 jae	 SHORT $LN3@Inside
  0000b	39 01		 cmp	 DWORD PTR [ecx], eax
  0000d	77 05		 ja	 SHORT $LN3@Inside
  0000f	33 c0		 xor	 eax, eax
  00011	40		 inc	 eax
  00012	eb 02		 jmp	 SHORT $LN4@Inside
$LN3@Inside:
  00014	33 c0		 xor	 eax, eax
$LN4@Inside:

; 1287 : 		}

  00016	5d		 pop	 ebp
  00017	c2 04 00	 ret	 4
?_Inside@?$vector@USpotPoint@MiniMap@@V?$allocator@USpotPoint@MiniMap@@@std@@@std@@IBE_NPBUSpotPoint@MiniMap@@@Z ENDP ; std::vector<MiniMap::SpotPoint,std::allocator<MiniMap::SpotPoint> >::_Inside
_TEXT	ENDS
PUBLIC	?_Orphan_range@?$vector@USpotPoint@MiniMap@@V?$allocator@USpotPoint@MiniMap@@@std@@@std@@IBEXPAUSpotPoint@MiniMap@@0@Z ; std::vector<MiniMap::SpotPoint,std::allocator<MiniMap::SpotPoint> >::_Orphan_range
; Function compile flags: /Ogsp
;	COMDAT ?_Orphan_range@?$vector@USpotPoint@MiniMap@@V?$allocator@USpotPoint@MiniMap@@@std@@@std@@IBEXPAUSpotPoint@MiniMap@@0@Z
_TEXT	SEGMENT
___formal$ = 8						; size = 4
___formal$ = 12						; size = 4
?_Orphan_range@?$vector@USpotPoint@MiniMap@@V?$allocator@USpotPoint@MiniMap@@@std@@@std@@IBEXPAUSpotPoint@MiniMap@@0@Z PROC ; std::vector<MiniMap::SpotPoint,std::allocator<MiniMap::SpotPoint> >::_Orphan_range, COMDAT
; _this$ = ecx

; 1454 : 		}

  00000	c2 08 00	 ret	 8
?_Orphan_range@?$vector@USpotPoint@MiniMap@@V?$allocator@USpotPoint@MiniMap@@@std@@@std@@IBEXPAUSpotPoint@MiniMap@@0@Z ENDP ; std::vector<MiniMap::SpotPoint,std::allocator<MiniMap::SpotPoint> >::_Orphan_range
_TEXT	ENDS
PUBLIC	??1?$_Vector_val@USpotPoint@MiniMap@@V?$allocator@USpotPoint@MiniMap@@@std@@@std@@QAE@XZ ; std::_Vector_val<MiniMap::SpotPoint,std::allocator<MiniMap::SpotPoint> >::~_Vector_val<MiniMap::SpotPoint,std::allocator<MiniMap::SpotPoint> >
; Function compile flags: /Ogsp
;	COMDAT ??1?$_Vector_val@USpotPoint@MiniMap@@V?$allocator@USpotPoint@MiniMap@@@std@@@std@@QAE@XZ
_TEXT	SEGMENT
??1?$_Vector_val@USpotPoint@MiniMap@@V?$allocator@USpotPoint@MiniMap@@@std@@@std@@QAE@XZ PROC ; std::_Vector_val<MiniMap::SpotPoint,std::allocator<MiniMap::SpotPoint> >::~_Vector_val<MiniMap::SpotPoint,std::allocator<MiniMap::SpotPoint> >, COMDAT
; _this$ = ecx

; 434  : 		}

  00000	c3		 ret	 0
??1?$_Vector_val@USpotPoint@MiniMap@@V?$allocator@USpotPoint@MiniMap@@@std@@@std@@QAE@XZ ENDP ; std::_Vector_val<MiniMap::SpotPoint,std::allocator<MiniMap::SpotPoint> >::~_Vector_val<MiniMap::SpotPoint,std::allocator<MiniMap::SpotPoint> >
_TEXT	ENDS
PUBLIC	??0?$allocator@USpotPoint@MiniMap@@@std@@QAE@XZ	; std::allocator<MiniMap::SpotPoint>::allocator<MiniMap::SpotPoint>
; Function compile flags: /Ogsp
; File c:\program files (x86)\microsoft visual studio 10.0\vc\include\xmemory
;	COMDAT ??0?$allocator@USpotPoint@MiniMap@@@std@@QAE@XZ
_TEXT	SEGMENT
??0?$allocator@USpotPoint@MiniMap@@@std@@QAE@XZ PROC	; std::allocator<MiniMap::SpotPoint>::allocator<MiniMap::SpotPoint>, COMDAT
; _this$ = ecx

; 161  : 	_ALLOCATOR() _THROW0()

  00000	8b c1		 mov	 eax, ecx

; 162  : 		{	// construct default allocator (do nothing)
; 163  : 		}

  00002	c3		 ret	 0
??0?$allocator@USpotPoint@MiniMap@@@std@@QAE@XZ ENDP	; std::allocator<MiniMap::SpotPoint>::allocator<MiniMap::SpotPoint>
_TEXT	ENDS
PUBLIC	??D?$_Vector_const_iterator@V?$_Vector_val@USpotPoint@MiniMap@@V?$allocator@USpotPoint@MiniMap@@@std@@@std@@@std@@QBEABUSpotPoint@MiniMap@@XZ ; std::_Vector_const_iterator<std::_Vector_val<MiniMap::SpotPoint,std::allocator<MiniMap::SpotPoint> > >::operator*
; Function compile flags: /Ogsp
; File c:\program files (x86)\microsoft visual studio 10.0\vc\include\vector
;	COMDAT ??D?$_Vector_const_iterator@V?$_Vector_val@USpotPoint@MiniMap@@V?$allocator@USpotPoint@MiniMap@@@std@@@std@@@std@@QBEABUSpotPoint@MiniMap@@XZ
_TEXT	SEGMENT
??D?$_Vector_const_iterator@V?$_Vector_val@USpotPoint@MiniMap@@V?$allocator@USpotPoint@MiniMap@@@std@@@std@@@std@@QBEABUSpotPoint@MiniMap@@XZ PROC ; std::_Vector_const_iterator<std::_Vector_val<MiniMap::SpotPoint,std::allocator<MiniMap::SpotPoint> > >::operator*, COMDAT
; _this$ = ecx

; 64   :  #if _ITERATOR_DEBUG_LEVEL == 2
; 65   : 		if (this->_Getcont() == 0
; 66   : 			|| this->_Ptr == 0
; 67   : 			|| this->_Ptr < ((_Myvec *)this->_Getcont())->_Myfirst
; 68   : 			|| ((_Myvec *)this->_Getcont())->_Mylast <= this->_Ptr)
; 69   : 			{	// report error
; 70   : 			_DEBUG_ERROR("vector iterator not dereferencable");
; 71   : 			_SCL_SECURE_OUT_OF_RANGE;
; 72   : 			}
; 73   : 
; 74   :  #elif _ITERATOR_DEBUG_LEVEL == 1
; 75   : 		_SCL_SECURE_VALIDATE(this->_Getcont() != 0);
; 76   : 		_SCL_SECURE_VALIDATE_RANGE(
; 77   : 			this->_Ptr != 0
; 78   : 			&& ((_Myvec *)this->_Getcont())->_Myfirst <= this->_Ptr
; 79   : 			&& this->_Ptr < ((_Myvec *)this->_Getcont())->_Mylast);
; 80   :  #endif /* _ITERATOR_DEBUG_LEVEL */
; 81   : 
; 82   : 		__analysis_assume(this->_Ptr != 0);
; 83   : 
; 84   : 		return (*this->_Ptr);

  00000	8b 01		 mov	 eax, DWORD PTR [ecx]

; 85   : 		}

  00002	c3		 ret	 0
??D?$_Vector_const_iterator@V?$_Vector_val@USpotPoint@MiniMap@@V?$allocator@USpotPoint@MiniMap@@@std@@@std@@@std@@QBEABUSpotPoint@MiniMap@@XZ ENDP ; std::_Vector_const_iterator<std::_Vector_val<MiniMap::SpotPoint,std::allocator<MiniMap::SpotPoint> > >::operator*
_TEXT	ENDS
PUBLIC	??E?$_Vector_const_iterator@V?$_Vector_val@USpotPoint@MiniMap@@V?$allocator@USpotPoint@MiniMap@@@std@@@std@@@std@@QAEAAV01@XZ ; std::_Vector_const_iterator<std::_Vector_val<MiniMap::SpotPoint,std::allocator<MiniMap::SpotPoint> > >::operator++
; Function compile flags: /Ogsp
;	COMDAT ??E?$_Vector_const_iterator@V?$_Vector_val@USpotPoint@MiniMap@@V?$allocator@USpotPoint@MiniMap@@@std@@@std@@@std@@QAEAAV01@XZ
_TEXT	SEGMENT
??E?$_Vector_const_iterator@V?$_Vector_val@USpotPoint@MiniMap@@V?$allocator@USpotPoint@MiniMap@@@std@@@std@@@std@@QAEAAV01@XZ PROC ; std::_Vector_const_iterator<std::_Vector_val<MiniMap::SpotPoint,std::allocator<MiniMap::SpotPoint> > >::operator++, COMDAT
; _this$ = ecx

; 93   : 		{	// preincrement

  00000	8b c1		 mov	 eax, ecx

; 94   :  #if _ITERATOR_DEBUG_LEVEL == 2
; 95   : 		if (this->_Getcont() == 0
; 96   : 			|| this->_Ptr == 0
; 97   : 			|| ((_Myvec *)this->_Getcont())->_Mylast <= this->_Ptr)
; 98   : 			{	// report error
; 99   : 			_DEBUG_ERROR("vector iterator not incrementable");
; 100  : 			_SCL_SECURE_OUT_OF_RANGE;
; 101  : 			}
; 102  : 
; 103  :  #elif _ITERATOR_DEBUG_LEVEL == 1
; 104  : 		_SCL_SECURE_VALIDATE(this->_Getcont() != 0);
; 105  : 		_SCL_SECURE_VALIDATE_RANGE(
; 106  : 			this->_Ptr != 0
; 107  : 			&& this->_Ptr < ((_Myvec *)this->_Getcont())->_Mylast);
; 108  :  #endif /* _ITERATOR_DEBUG_LEVEL */
; 109  : 
; 110  : 		++this->_Ptr;

  00002	83 00 14	 add	 DWORD PTR [eax], 20	; 00000014H

; 111  : 		return (*this);
; 112  : 		}

  00005	c3		 ret	 0
??E?$_Vector_const_iterator@V?$_Vector_val@USpotPoint@MiniMap@@V?$allocator@USpotPoint@MiniMap@@@std@@@std@@@std@@QAEAAV01@XZ ENDP ; std::_Vector_const_iterator<std::_Vector_val<MiniMap::SpotPoint,std::allocator<MiniMap::SpotPoint> > >::operator++
_TEXT	ENDS
PUBLIC	?capacity@?$vector@USpotPoint@MiniMap@@V?$allocator@USpotPoint@MiniMap@@@std@@@std@@QBEIXZ ; std::vector<MiniMap::SpotPoint,std::allocator<MiniMap::SpotPoint> >::capacity
; Function compile flags: /Ogsp
;	COMDAT ?capacity@?$vector@USpotPoint@MiniMap@@V?$allocator@USpotPoint@MiniMap@@@std@@@std@@QBEIXZ
_TEXT	SEGMENT
?capacity@?$vector@USpotPoint@MiniMap@@V?$allocator@USpotPoint@MiniMap@@@std@@@std@@QBEIXZ PROC ; std::vector<MiniMap::SpotPoint,std::allocator<MiniMap::SpotPoint> >::capacity, COMDAT
; _this$ = ecx

; 777  : 		return (this->_Myend - this->_Myfirst);

  00000	8b 41 08	 mov	 eax, DWORD PTR [ecx+8]
  00003	2b 01		 sub	 eax, DWORD PTR [ecx]
  00005	6a 14		 push	 20			; 00000014H
  00007	99		 cdq
  00008	59		 pop	 ecx
  00009	f7 f9		 idiv	 ecx

; 778  : 		}

  0000b	c3		 ret	 0
?capacity@?$vector@USpotPoint@MiniMap@@V?$allocator@USpotPoint@MiniMap@@@std@@@std@@QBEIXZ ENDP ; std::vector<MiniMap::SpotPoint,std::allocator<MiniMap::SpotPoint> >::capacity
_TEXT	ENDS
PUBLIC	??_C@_0BD@OLBABOEK@vector?$DMT?$DO?5too?5long?$AA@ ; `string'
PUBLIC	?_Xlen@?$vector@USpotPoint@MiniMap@@V?$allocator@USpotPoint@MiniMap@@@std@@@std@@IBEXXZ ; std::vector<MiniMap::SpotPoint,std::allocator<MiniMap::SpotPoint> >::_Xlen
EXTRN	__imp_?_Xlength_error@std@@YAXPBD@Z:PROC
;	COMDAT ??_C@_0BD@OLBABOEK@vector?$DMT?$DO?5too?5long?$AA@
CONST	SEGMENT
??_C@_0BD@OLBABOEK@vector?$DMT?$DO?5too?5long?$AA@ DB 'vector<T> too long'
	DB	00H						; `string'
; Function compile flags: /Ogsp
CONST	ENDS
;	COMDAT ?_Xlen@?$vector@USpotPoint@MiniMap@@V?$allocator@USpotPoint@MiniMap@@@std@@@std@@IBEXXZ
_TEXT	SEGMENT
?_Xlen@?$vector@USpotPoint@MiniMap@@V?$allocator@USpotPoint@MiniMap@@@std@@@std@@IBEXXZ PROC ; std::vector<MiniMap::SpotPoint,std::allocator<MiniMap::SpotPoint> >::_Xlen, COMDAT
; _this$ = ecx

; 1427 : 		_Xlength_error("vector<T> too long");

  00000	68 00 00 00 00	 push	 OFFSET ??_C@_0BD@OLBABOEK@vector?$DMT?$DO?5too?5long?$AA@
  00005	ff 15 00 00 00
	00		 call	 DWORD PTR __imp_?_Xlength_error@std@@YAXPBD@Z
$LN4@Xlen:
$LN3@Xlen:
  0000b	cc		 int	 3
?_Xlen@?$vector@USpotPoint@MiniMap@@V?$allocator@USpotPoint@MiniMap@@@std@@@std@@IBEXXZ ENDP ; std::vector<MiniMap::SpotPoint,std::allocator<MiniMap::SpotPoint> >::_Xlen
_TEXT	ENDS
PUBLIC	??0?$allocator@USpotPoint@MiniMap@@@std@@QAE@ABV01@@Z ; std::allocator<MiniMap::SpotPoint>::allocator<MiniMap::SpotPoint>
; Function compile flags: /Ogsp
; File c:\program files (x86)\microsoft visual studio 10.0\vc\include\xmemory
;	COMDAT ??0?$allocator@USpotPoint@MiniMap@@@std@@QAE@ABV01@@Z
_TEXT	SEGMENT
___formal$ = 8						; size = 4
??0?$allocator@USpotPoint@MiniMap@@@std@@QAE@ABV01@@Z PROC ; std::allocator<MiniMap::SpotPoint>::allocator<MiniMap::SpotPoint>, COMDAT
; _this$ = ecx

; 165  : 	_ALLOCATOR(const _ALLOCATOR<_Ty>&) _THROW0()

  00000	8b c1		 mov	 eax, ecx

; 166  : 		{	// construct by copying (do nothing)
; 167  : 		}

  00002	c2 04 00	 ret	 4
??0?$allocator@USpotPoint@MiniMap@@@std@@QAE@ABV01@@Z ENDP ; std::allocator<MiniMap::SpotPoint>::allocator<MiniMap::SpotPoint>
_TEXT	ENDS
PUBLIC	?deallocate@?$allocator@USpotPoint@MiniMap@@@std@@QAEXPAUSpotPoint@MiniMap@@I@Z ; std::allocator<MiniMap::SpotPoint>::deallocate
; Function compile flags: /Ogsp
;	COMDAT ?deallocate@?$allocator@USpotPoint@MiniMap@@@std@@QAEXPAUSpotPoint@MiniMap@@I@Z
_TEXT	SEGMENT
__Ptr$ = 8						; size = 4
___formal$ = 12						; size = 4
?deallocate@?$allocator@USpotPoint@MiniMap@@@std@@QAEXPAUSpotPoint@MiniMap@@I@Z PROC ; std::allocator<MiniMap::SpotPoint>::deallocate, COMDAT
; _this$ = ecx

; 181  : 		{	// deallocate object at _Ptr, ignore size

  00000	55		 push	 ebp
  00001	8b ec		 mov	 ebp, esp

; 182  : 		::operator delete(_Ptr);

  00003	ff 75 08	 push	 DWORD PTR __Ptr$[ebp]
  00006	e8 00 00 00 00	 call	 ??3@YAXPAX@Z		; operator delete
  0000b	59		 pop	 ecx

; 183  : 		}

  0000c	5d		 pop	 ebp
  0000d	c2 08 00	 ret	 8
?deallocate@?$allocator@USpotPoint@MiniMap@@@std@@QAEXPAUSpotPoint@MiniMap@@I@Z ENDP ; std::allocator<MiniMap::SpotPoint>::deallocate
_TEXT	ENDS
PUBLIC	??0?$_Vector_const_iterator@V?$_Vector_val@USpotPoint@MiniMap@@V?$allocator@USpotPoint@MiniMap@@@std@@@std@@@std@@QAE@PAUSpotPoint@MiniMap@@PBU_Container_base0@1@@Z ; std::_Vector_const_iterator<std::_Vector_val<MiniMap::SpotPoint,std::allocator<MiniMap::SpotPoint> > >::_Vector_const_iterator<std::_Vector_val<MiniMap::SpotPoint,std::allocator<MiniMap::SpotPoint> > >
; Function compile flags: /Ogsp
; File c:\program files (x86)\microsoft visual studio 10.0\vc\include\vector
;	COMDAT ??0?$_Vector_const_iterator@V?$_Vector_val@USpotPoint@MiniMap@@V?$allocator@USpotPoint@MiniMap@@@std@@@std@@@std@@QAE@PAUSpotPoint@MiniMap@@PBU_Container_base0@1@@Z
_TEXT	SEGMENT
__Parg$ = 8						; size = 4
__Pvector$ = 12						; size = 4
??0?$_Vector_const_iterator@V?$_Vector_val@USpotPoint@MiniMap@@V?$allocator@USpotPoint@MiniMap@@@std@@@std@@@std@@QAE@PAUSpotPoint@MiniMap@@PBU_Container_base0@1@@Z PROC ; std::_Vector_const_iterator<std::_Vector_val<MiniMap::SpotPoint,std::allocator<MiniMap::SpotPoint> > >::_Vector_const_iterator<std::_Vector_val<MiniMap::SpotPoint,std::allocator<MiniMap::SpotPoint> > >, COMDAT
; _this$ = ecx

; 45   : 		{	// construct with pointer _Parg

  00000	55		 push	 ebp
  00001	8b ec		 mov	 ebp, esp
  00003	8b c1		 mov	 eax, ecx
  00005	8b 4d 08	 mov	 ecx, DWORD PTR __Parg$[ebp]
  00008	89 08		 mov	 DWORD PTR [eax], ecx

; 46   : 		this->_Adopt(_Pvector);
; 47   : 		}

  0000a	5d		 pop	 ebp
  0000b	c2 08 00	 ret	 8
??0?$_Vector_const_iterator@V?$_Vector_val@USpotPoint@MiniMap@@V?$allocator@USpotPoint@MiniMap@@@std@@@std@@@std@@QAE@PAUSpotPoint@MiniMap@@PBU_Container_base0@1@@Z ENDP ; std::_Vector_const_iterator<std::_Vector_val<MiniMap::SpotPoint,std::allocator<MiniMap::SpotPoint> > >::_Vector_const_iterator<std::_Vector_val<MiniMap::SpotPoint,std::allocator<MiniMap::SpotPoint> > >
_TEXT	ENDS
PUBLIC	?_Compat@?$_Vector_const_iterator@V?$_Vector_val@USpotPoint@MiniMap@@V?$allocator@USpotPoint@MiniMap@@@std@@@std@@@std@@QBEXABV12@@Z ; std::_Vector_const_iterator<std::_Vector_val<MiniMap::SpotPoint,std::allocator<MiniMap::SpotPoint> > >::_Compat
; Function compile flags: /Ogsp
;	COMDAT ?_Compat@?$_Vector_const_iterator@V?$_Vector_val@USpotPoint@MiniMap@@V?$allocator@USpotPoint@MiniMap@@@std@@@std@@@std@@QBEXABV12@@Z
_TEXT	SEGMENT
___formal$ = 8						; size = 4
?_Compat@?$_Vector_const_iterator@V?$_Vector_val@USpotPoint@MiniMap@@V?$allocator@USpotPoint@MiniMap@@@std@@@std@@@std@@QBEXABV12@@Z PROC ; std::_Vector_const_iterator<std::_Vector_val<MiniMap::SpotPoint,std::allocator<MiniMap::SpotPoint> > >::_Compat, COMDAT
; _this$ = ecx

; 253  : 		}

  00000	c2 04 00	 ret	 4
?_Compat@?$_Vector_const_iterator@V?$_Vector_val@USpotPoint@MiniMap@@V?$allocator@USpotPoint@MiniMap@@@std@@@std@@@std@@QBEXABV12@@Z ENDP ; std::_Vector_const_iterator<std::_Vector_val<MiniMap::SpotPoint,std::allocator<MiniMap::SpotPoint> > >::_Compat
_TEXT	ENDS
PUBLIC	?max_size@?$allocator@USpotPoint@MiniMap@@@std@@QBEIXZ ; std::allocator<MiniMap::SpotPoint>::max_size
; Function compile flags: /Ogsp
; File c:\program files (x86)\microsoft visual studio 10.0\vc\include\xmemory
;	COMDAT ?max_size@?$allocator@USpotPoint@MiniMap@@@std@@QBEIXZ
_TEXT	SEGMENT
?max_size@?$allocator@USpotPoint@MiniMap@@@std@@QBEIXZ PROC ; std::allocator<MiniMap::SpotPoint>::max_size, COMDAT
; _this$ = ecx

; 218  : 		_SIZT _Count = (_SIZT)(-1) / sizeof (_Ty);
; 219  : 		return (0 < _Count ? _Count : 1);

  00000	b8 cc cc cc 0c	 mov	 eax, 214748364		; 0cccccccH

; 220  : 		}

  00005	c3		 ret	 0
?max_size@?$allocator@USpotPoint@MiniMap@@@std@@QBEIXZ ENDP ; std::allocator<MiniMap::SpotPoint>::max_size
_TEXT	ENDS
PUBLIC	??0D3DXVECTOR3@@QAE@XZ				; D3DXVECTOR3::D3DXVECTOR3
; Function compile flags: /Ogsp
; File c:\program files (x86)\microsoft directx sdk (june 2010)\include\d3dx9math.h
;	COMDAT ??0D3DXVECTOR3@@QAE@XZ
_TEXT	SEGMENT
??0D3DXVECTOR3@@QAE@XZ PROC				; D3DXVECTOR3::D3DXVECTOR3, COMDAT
; _this$ = ecx

; 165  :     D3DXVECTOR3() {};

  00000	8b c1		 mov	 eax, ecx
  00002	c3		 ret	 0
??0D3DXVECTOR3@@QAE@XZ ENDP				; D3DXVECTOR3::D3DXVECTOR3
_TEXT	ENDS
PUBLIC	??$addressof@$$CBUSpotPoint@MiniMap@@@std@@YAPBUSpotPoint@MiniMap@@ABU12@@Z ; std::addressof<MiniMap::SpotPoint const >
; Function compile flags: /Ogsp
; File c:\program files (x86)\microsoft visual studio 10.0\vc\include\xmemory
;	COMDAT ??$addressof@$$CBUSpotPoint@MiniMap@@@std@@YAPBUSpotPoint@MiniMap@@ABU12@@Z
_TEXT	SEGMENT
__Val$ = 8						; size = 4
??$addressof@$$CBUSpotPoint@MiniMap@@@std@@YAPBUSpotPoint@MiniMap@@ABU12@@Z PROC ; std::addressof<MiniMap::SpotPoint const >, COMDAT

; 110  : 	{	// return address of _Val

  00000	55		 push	 ebp
  00001	8b ec		 mov	 ebp, esp

; 111  : 	return ((_Ty *) &(char&)_Val);

  00003	8b 45 08	 mov	 eax, DWORD PTR __Val$[ebp]

; 112  : 	}

  00006	5d		 pop	 ebp
  00007	c3		 ret	 0
??$addressof@$$CBUSpotPoint@MiniMap@@@std@@YAPBUSpotPoint@MiniMap@@ABU12@@Z ENDP ; std::addressof<MiniMap::SpotPoint const >
_TEXT	ENDS
PUBLIC	__TI2?AVbad_alloc@std@@
PUBLIC	??$_Allocate@USpotPoint@MiniMap@@@std@@YAPAUSpotPoint@MiniMap@@IPAU12@@Z ; std::_Allocate<MiniMap::SpotPoint>
PUBLIC	__CTA2?AVbad_alloc@std@@
PUBLIC	__CT??_R0?AVbad_alloc@std@@@8??0bad_alloc@std@@QAE@ABV01@@Z12
PUBLIC	??0bad_alloc@std@@QAE@ABV01@@Z			; std::bad_alloc::bad_alloc
PUBLIC	__CT??_R0?AVexception@std@@@8??0exception@std@@QAE@ABV01@@Z12
EXTRN	__CxxThrowException@8:PROC
EXTRN	??0exception@std@@QAE@ABV01@@Z:PROC		; std::exception::exception
;	COMDAT __CT??_R0?AVexception@std@@@8??0exception@std@@QAE@ABV01@@Z12
; File c:\program files (x86)\microsoft visual studio 10.0\vc\include\exception
xdata$x	SEGMENT
__CT??_R0?AVexception@std@@@8??0exception@std@@QAE@ABV01@@Z12 DD 00H
	DD	FLAT:??_R0?AVexception@std@@@8
	DD	00H
	DD	0ffffffffH
	ORG $+4
	DD	0cH
	DD	FLAT:??0exception@std@@QAE@ABV01@@Z
xdata$x	ENDS
;	COMDAT __CT??_R0?AVbad_alloc@std@@@8??0bad_alloc@std@@QAE@ABV01@@Z12
xdata$x	SEGMENT
__CT??_R0?AVbad_alloc@std@@@8??0bad_alloc@std@@QAE@ABV01@@Z12 DD 00H
	DD	FLAT:??_R0?AVbad_alloc@std@@@8
	DD	00H
	DD	0ffffffffH
	ORG $+4
	DD	0cH
	DD	FLAT:??0bad_alloc@std@@QAE@ABV01@@Z
xdata$x	ENDS
;	COMDAT __CTA2?AVbad_alloc@std@@
xdata$x	SEGMENT
__CTA2?AVbad_alloc@std@@ DD 02H
	DD	FLAT:__CT??_R0?AVbad_alloc@std@@@8??0bad_alloc@std@@QAE@ABV01@@Z12
	DD	FLAT:__CT??_R0?AVexception@std@@@8??0exception@std@@QAE@ABV01@@Z12
xdata$x	ENDS
;	COMDAT __TI2?AVbad_alloc@std@@
xdata$x	SEGMENT
__TI2?AVbad_alloc@std@@ DD 00H
	DD	FLAT:??1bad_alloc@std@@UAE@XZ
	DD	00H
	DD	FLAT:__CTA2?AVbad_alloc@std@@
; Function compile flags: /Ogsp
; File c:\program files (x86)\microsoft visual studio 10.0\vc\include\xmemory
xdata$x	ENDS
;	COMDAT ??$_Allocate@USpotPoint@MiniMap@@@std@@YAPAUSpotPoint@MiniMap@@IPAU12@@Z
_TEXT	SEGMENT
$T531276 = -12						; size = 12
$T531281 = 8						; size = 4
__Count$ = 8						; size = 4
___formal$ = 12						; size = 4
??$_Allocate@USpotPoint@MiniMap@@@std@@YAPAUSpotPoint@MiniMap@@IPAU12@@Z PROC ; std::_Allocate<MiniMap::SpotPoint>, COMDAT

; 30   : 	{	// allocate storage for _Count elements of type _Ty

  00000	55		 push	 ebp
  00001	8b ec		 mov	 ebp, esp

; 31   : 	void *_Ptr = 0;
; 32   : 
; 33   : 	if (_Count <= 0)

  00003	8b 4d 08	 mov	 ecx, DWORD PTR __Count$[ebp]
  00006	83 ec 0c	 sub	 esp, 12			; 0000000cH
  00009	33 c0		 xor	 eax, eax
  0000b	85 c9		 test	 ecx, ecx

; 34   : 		_Count = 0;
; 35   : 	else if (((_SIZT)(-1) / sizeof (_Ty) < _Count)

  0000d	74 3c		 je	 SHORT $LN5@Allocate

; 36   : 		|| (_Ptr = ::operator new(_Count * sizeof (_Ty))) == 0)

  0000f	81 f9 cc cc cc
	0c		 cmp	 ecx, 214748364		; 0cccccccH
  00015	77 0e		 ja	 SHORT $LN1@Allocate
  00017	6b c9 14	 imul	 ecx, 20			; 00000014H
  0001a	51		 push	 ecx
  0001b	e8 00 00 00 00	 call	 ??2@YAPAXI@Z		; operator new
  00020	59		 pop	 ecx
  00021	85 c0		 test	 eax, eax

; 38   : 
; 39   : 	return ((_Ty _FARQ *)_Ptr);

  00023	75 26		 jne	 SHORT $LN5@Allocate
$LN1@Allocate:

; 37   : 		_THROW_NCEE(bad_alloc, 0);

  00025	83 65 08 00	 and	 DWORD PTR $T531281[ebp], 0
  00029	8d 45 08	 lea	 eax, DWORD PTR $T531281[ebp]
  0002c	50		 push	 eax
  0002d	8d 4d f4	 lea	 ecx, DWORD PTR $T531276[ebp]
  00030	ff 15 00 00 00
	00		 call	 DWORD PTR __imp_??0exception@std@@QAE@ABQBD@Z
  00036	68 00 00 00 00	 push	 OFFSET __TI2?AVbad_alloc@std@@
  0003b	8d 45 f4	 lea	 eax, DWORD PTR $T531276[ebp]
  0003e	50		 push	 eax
  0003f	c7 45 f4 00 00
	00 00		 mov	 DWORD PTR $T531276[ebp], OFFSET ??_7bad_alloc@std@@6B@
  00046	e8 00 00 00 00	 call	 __CxxThrowException@8
$LN10@Allocate:
$LN5@Allocate:

; 40   : 	}

  0004b	c9		 leave
  0004c	c3		 ret	 0
$LN9@Allocate:
??$_Allocate@USpotPoint@MiniMap@@@std@@YAPAUSpotPoint@MiniMap@@IPAU12@@Z ENDP ; std::_Allocate<MiniMap::SpotPoint>
_TEXT	ENDS
PUBLIC	??$forward@AAUSpotPoint@MiniMap@@@std@@YAAAUSpotPoint@MiniMap@@AAU12@@Z ; std::forward<MiniMap::SpotPoint &>
; Function compile flags: /Ogsp
; File c:\program files (x86)\microsoft visual studio 10.0\vc\include\utility
;	COMDAT ??$forward@AAUSpotPoint@MiniMap@@@std@@YAAAUSpotPoint@MiniMap@@AAU12@@Z
_TEXT	SEGMENT
__Arg$ = 8						; size = 4
??$forward@AAUSpotPoint@MiniMap@@@std@@YAAAUSpotPoint@MiniMap@@AAU12@@Z PROC ; std::forward<MiniMap::SpotPoint &>, COMDAT

; 78   : 	{	// forward _Arg, given explicitly specified type parameter

  00000	55		 push	 ebp
  00001	8b ec		 mov	 ebp, esp

; 79   : 	return ((_Ty&&)_Arg);

  00003	8b 45 08	 mov	 eax, DWORD PTR __Arg$[ebp]

; 80   : 	}

  00006	5d		 pop	 ebp
  00007	c3		 ret	 0
??$forward@AAUSpotPoint@MiniMap@@@std@@YAAAUSpotPoint@MiniMap@@AAU12@@Z ENDP ; std::forward<MiniMap::SpotPoint &>
_TEXT	ENDS
PUBLIC	??$construct@AAUSpotPoint@MiniMap@@@?$allocator@USpotPoint@MiniMap@@@std@@QAEXPAUSpotPoint@MiniMap@@AAU23@@Z ; std::allocator<MiniMap::SpotPoint>::construct<MiniMap::SpotPoint &>
; Function compile flags: /Ogsp
; File c:\program files (x86)\microsoft visual studio 10.0\vc\include\xmemory
;	COMDAT ??$construct@AAUSpotPoint@MiniMap@@@?$allocator@USpotPoint@MiniMap@@@std@@QAEXPAUSpotPoint@MiniMap@@AAU23@@Z
_TEXT	SEGMENT
__Ptr$ = 8						; size = 4
__Val$ = 12						; size = 4
??$construct@AAUSpotPoint@MiniMap@@@?$allocator@USpotPoint@MiniMap@@@std@@QAEXPAUSpotPoint@MiniMap@@AAU23@@Z PROC ; std::allocator<MiniMap::SpotPoint>::construct<MiniMap::SpotPoint &>, COMDAT
; _this$ = ecx

; 206  : 		void construct(pointer _Ptr, _Other&& _Val)

  00000	55		 push	 ebp
  00001	8b ec		 mov	 ebp, esp
  00003	57		 push	 edi

; 207  : 		{	// construct object at _Ptr with value _Val
; 208  : 		::new ((void _FARQ *)_Ptr) _Ty(_STD forward<_Other>(_Val));

  00004	8b 7d 08	 mov	 edi, DWORD PTR __Ptr$[ebp]
  00007	85 ff		 test	 edi, edi
  00009	74 0a		 je	 SHORT $LN3@construct
  0000b	56		 push	 esi
  0000c	8b 75 0c	 mov	 esi, DWORD PTR __Val$[ebp]
  0000f	6a 05		 push	 5
  00011	59		 pop	 ecx
  00012	f3 a5		 rep movsd
  00014	5e		 pop	 esi
$LN3@construct:
  00015	5f		 pop	 edi

; 209  : 		}

  00016	5d		 pop	 ebp
  00017	c2 08 00	 ret	 8
??$construct@AAUSpotPoint@MiniMap@@@?$allocator@USpotPoint@MiniMap@@@std@@QAEXPAUSpotPoint@MiniMap@@AAU23@@Z ENDP ; std::allocator<MiniMap::SpotPoint>::construct<MiniMap::SpotPoint &>
_TEXT	ENDS
PUBLIC	??$forward@ABUSpotPoint@MiniMap@@@std@@YAABUSpotPoint@MiniMap@@ABU12@@Z ; std::forward<MiniMap::SpotPoint const &>
; Function compile flags: /Ogsp
; File c:\program files (x86)\microsoft visual studio 10.0\vc\include\utility
;	COMDAT ??$forward@ABUSpotPoint@MiniMap@@@std@@YAABUSpotPoint@MiniMap@@ABU12@@Z
_TEXT	SEGMENT
__Arg$ = 8						; size = 4
??$forward@ABUSpotPoint@MiniMap@@@std@@YAABUSpotPoint@MiniMap@@ABU12@@Z PROC ; std::forward<MiniMap::SpotPoint const &>, COMDAT

; 78   : 	{	// forward _Arg, given explicitly specified type parameter

  00000	55		 push	 ebp
  00001	8b ec		 mov	 ebp, esp

; 79   : 	return ((_Ty&&)_Arg);

  00003	8b 45 08	 mov	 eax, DWORD PTR __Arg$[ebp]

; 80   : 	}

  00006	5d		 pop	 ebp
  00007	c3		 ret	 0
??$forward@ABUSpotPoint@MiniMap@@@std@@YAABUSpotPoint@MiniMap@@ABU12@@Z ENDP ; std::forward<MiniMap::SpotPoint const &>
_TEXT	ENDS
PUBLIC	??$_Ptr_cat@USpotPoint@MiniMap@@U12@@std@@YA?AU_Nonscalar_ptr_iterator_tag@0@PAUSpotPoint@MiniMap@@0@Z ; std::_Ptr_cat<MiniMap::SpotPoint,MiniMap::SpotPoint>
; Function compile flags: /Ogsp
; File c:\program files (x86)\microsoft visual studio 10.0\vc\include\xutility
;	COMDAT ??$_Ptr_cat@USpotPoint@MiniMap@@U12@@std@@YA?AU_Nonscalar_ptr_iterator_tag@0@PAUSpotPoint@MiniMap@@0@Z
_TEXT	SEGMENT
__Cat$ = -1						; size = 1
___formal$ = 8						; size = 4
___formal$ = 12						; size = 4
??$_Ptr_cat@USpotPoint@MiniMap@@U12@@std@@YA?AU_Nonscalar_ptr_iterator_tag@0@PAUSpotPoint@MiniMap@@0@Z PROC ; std::_Ptr_cat<MiniMap::SpotPoint,MiniMap::SpotPoint>, COMDAT

; 516  : 	{	// return pointer category from pointers

  00000	55		 push	 ebp
  00001	8b ec		 mov	 ebp, esp
  00003	51		 push	 ecx

; 517  : 	typename _Ptr_cat_helper<_Elem1, _Elem2>::_Type _Cat;
; 518  : 	return (_Cat);

  00004	8a 45 ff	 mov	 al, BYTE PTR __Cat$[ebp]

; 519  : 	}

  00007	c9		 leave
  00008	c3		 ret	 0
??$_Ptr_cat@USpotPoint@MiniMap@@U12@@std@@YA?AU_Nonscalar_ptr_iterator_tag@0@PAUSpotPoint@MiniMap@@0@Z ENDP ; std::_Ptr_cat<MiniMap::SpotPoint,MiniMap::SpotPoint>
_TEXT	ENDS
PUBLIC	??$_Construct@USpotPoint@MiniMap@@ABU12@@std@@YAXPAUSpotPoint@MiniMap@@ABU12@@Z ; std::_Construct<MiniMap::SpotPoint,MiniMap::SpotPoint const &>
; Function compile flags: /Ogsp
; File c:\program files (x86)\microsoft visual studio 10.0\vc\include\xmemory
;	COMDAT ??$_Construct@USpotPoint@MiniMap@@ABU12@@std@@YAXPAUSpotPoint@MiniMap@@ABU12@@Z
_TEXT	SEGMENT
__Ptr$ = 8						; size = 4
__Val$ = 12						; size = 4
??$_Construct@USpotPoint@MiniMap@@ABU12@@std@@YAXPAUSpotPoint@MiniMap@@ABU12@@Z PROC ; std::_Construct<MiniMap::SpotPoint,MiniMap::SpotPoint const &>, COMDAT

; 46   : 	{	// construct object at _Ptr with value _Val

  00000	55		 push	 ebp
  00001	8b ec		 mov	 ebp, esp
  00003	57		 push	 edi

; 47   : 	void _FARQ *_Vptr = _Ptr;
; 48   : 	::new (_Vptr) _Ty1(_STD forward<_Ty2>(_Val));

  00004	8b 7d 08	 mov	 edi, DWORD PTR __Ptr$[ebp]
  00007	85 ff		 test	 edi, edi
  00009	74 0a		 je	 SHORT $LN3@Construct
  0000b	56		 push	 esi
  0000c	8b 75 0c	 mov	 esi, DWORD PTR __Val$[ebp]
  0000f	6a 05		 push	 5
  00011	59		 pop	 ecx
  00012	f3 a5		 rep movsd
  00014	5e		 pop	 esi
$LN3@Construct:
  00015	5f		 pop	 edi

; 49   : 	}

  00016	5d		 pop	 ebp
  00017	c3		 ret	 0
??$_Construct@USpotPoint@MiniMap@@ABU12@@std@@YAXPAUSpotPoint@MiniMap@@ABU12@@Z ENDP ; std::_Construct<MiniMap::SpotPoint,MiniMap::SpotPoint const &>
_TEXT	ENDS
PUBLIC	??$move@AAUSpotPoint@MiniMap@@@std@@YA$$QAUSpotPoint@MiniMap@@AAU12@@Z ; std::move<MiniMap::SpotPoint &>
; Function compile flags: /Ogsp
; File c:\program files (x86)\microsoft visual studio 10.0\vc\include\utility
;	COMDAT ??$move@AAUSpotPoint@MiniMap@@@std@@YA$$QAUSpotPoint@MiniMap@@AAU12@@Z
_TEXT	SEGMENT
__Arg$ = 8						; size = 4
??$move@AAUSpotPoint@MiniMap@@@std@@YA$$QAUSpotPoint@MiniMap@@AAU12@@Z PROC ; std::move<MiniMap::SpotPoint &>, COMDAT

; 86   : 	{	// forward _Arg as movable

  00000	55		 push	 ebp
  00001	8b ec		 mov	 ebp, esp

; 87   : 	return ((typename tr1::_Remove_reference<_Ty>::_Type&&)_Arg);

  00003	8b 45 08	 mov	 eax, DWORD PTR __Arg$[ebp]

; 88   : 	}

  00006	5d		 pop	 ebp
  00007	c3		 ret	 0
??$move@AAUSpotPoint@MiniMap@@@std@@YA$$QAUSpotPoint@MiniMap@@AAU12@@Z ENDP ; std::move<MiniMap::SpotPoint &>
_TEXT	ENDS
PUBLIC	??$_Val_type@PAUSpotPoint@MiniMap@@@std@@YAPAUSpotPoint@MiniMap@@PAU12@@Z ; std::_Val_type<MiniMap::SpotPoint *>
; Function compile flags: /Ogsp
; File c:\program files (x86)\microsoft visual studio 10.0\vc\include\xutility
;	COMDAT ??$_Val_type@PAUSpotPoint@MiniMap@@@std@@YAPAUSpotPoint@MiniMap@@PAU12@@Z
_TEXT	SEGMENT
___formal$ = 8						; size = 4
??$_Val_type@PAUSpotPoint@MiniMap@@@std@@YAPAUSpotPoint@MiniMap@@PAU12@@Z PROC ; std::_Val_type<MiniMap::SpotPoint *>, COMDAT

; 790  : 	return (0);

  00000	33 c0		 xor	 eax, eax

; 791  : 	}

  00002	c3		 ret	 0
??$_Val_type@PAUSpotPoint@MiniMap@@@std@@YAPAUSpotPoint@MiniMap@@PAU12@@Z ENDP ; std::_Val_type<MiniMap::SpotPoint *>
_TEXT	ENDS
PUBLIC	??$_Destroy@USpotPoint@MiniMap@@@std@@YAXPAUSpotPoint@MiniMap@@@Z ; std::_Destroy<MiniMap::SpotPoint>
; Function compile flags: /Ogsp
; File c:\program files (x86)\microsoft visual studio 10.0\vc\include\xmemory
;	COMDAT ??$_Destroy@USpotPoint@MiniMap@@@std@@YAXPAUSpotPoint@MiniMap@@@Z
_TEXT	SEGMENT
__Ptr$ = 8						; size = 4
??$_Destroy@USpotPoint@MiniMap@@@std@@YAXPAUSpotPoint@MiniMap@@@Z PROC ; std::_Destroy<MiniMap::SpotPoint>, COMDAT

; 63   : 	_Ptr->~_Ty();
; 64   : 	}

  00000	c3		 ret	 0
??$_Destroy@USpotPoint@MiniMap@@@std@@YAXPAUSpotPoint@MiniMap@@@Z ENDP ; std::_Destroy<MiniMap::SpotPoint>
_TEXT	ENDS
PUBLIC	??$forward@USpotPoint@MiniMap@@@std@@YA$$QAUSpotPoint@MiniMap@@AAU12@@Z ; std::forward<MiniMap::SpotPoint>
; Function compile flags: /Ogsp
; File c:\program files (x86)\microsoft visual studio 10.0\vc\include\utility
;	COMDAT ??$forward@USpotPoint@MiniMap@@@std@@YA$$QAUSpotPoint@MiniMap@@AAU12@@Z
_TEXT	SEGMENT
__Arg$ = 8						; size = 4
??$forward@USpotPoint@MiniMap@@@std@@YA$$QAUSpotPoint@MiniMap@@AAU12@@Z PROC ; std::forward<MiniMap::SpotPoint>, COMDAT

; 78   : 	{	// forward _Arg, given explicitly specified type parameter

  00000	55		 push	 ebp
  00001	8b ec		 mov	 ebp, esp

; 79   : 	return ((_Ty&&)_Arg);

  00003	8b 45 08	 mov	 eax, DWORD PTR __Arg$[ebp]

; 80   : 	}

  00006	5d		 pop	 ebp
  00007	c3		 ret	 0
??$forward@USpotPoint@MiniMap@@@std@@YA$$QAUSpotPoint@MiniMap@@AAU12@@Z ENDP ; std::forward<MiniMap::SpotPoint>
_TEXT	ENDS
PUBLIC	?_DECSTR@@YAXPADH@Z				; _DECSTR
; Function compile flags: /Ogsp
; File d:\lost saga for developer\youtube\tutorial\source\src\lsclient\stringprotect.h
;	COMDAT ?_DECSTR@@YAXPADH@Z
_TEXT	SEGMENT
_s$ = 8							; size = 4
_l$ = 12						; size = 4
?_DECSTR@@YAXPADH@Z PROC				; _DECSTR, COMDAT

; 40   : __forceinline void _DECSTR(char* s, int l){int i=0,l4=(l-1)/4,*p=(int*)s;s[l-1]=0;for(;i<l4;++i)*(p++)^=0xEAEBECED;for(i=l4*4;i<l-1;++i)s[i]^=0xED-i%4;}

  00000	55		 push	 ebp
  00001	8b ec		 mov	 ebp, esp
  00003	8b 4d 0c	 mov	 ecx, DWORD PTR _l$[ebp]
  00006	56		 push	 esi
  00007	8b 75 08	 mov	 esi, DWORD PTR _s$[ebp]
  0000a	57		 push	 edi
  0000b	8d 79 ff	 lea	 edi, DWORD PTR [ecx-1]
  0000e	8b c7		 mov	 eax, edi
  00010	99		 cdq
  00011	83 e2 03	 and	 edx, 3
  00014	03 c2		 add	 eax, edx
  00016	c1 f8 02	 sar	 eax, 2
  00019	8b d6		 mov	 edx, esi
  0001b	c6 44 0e ff 00	 mov	 BYTE PTR [esi+ecx-1], 0
  00020	85 c0		 test	 eax, eax
  00022	7e 0e		 jle	 SHORT $LN4@DECSTR
  00024	8b c8		 mov	 ecx, eax
$LL6@DECSTR:
  00026	81 32 ed ec eb
	ea		 xor	 DWORD PTR [edx], -353637139 ; eaebecedH
  0002c	83 c2 04	 add	 edx, 4
  0002f	49		 dec	 ecx
  00030	75 f4		 jne	 SHORT $LL6@DECSTR
$LN4@DECSTR:
  00032	c1 e0 02	 shl	 eax, 2
  00035	eb 17		 jmp	 SHORT $LN14@DECSTR
$LL3@DECSTR:
  00037	8b c8		 mov	 ecx, eax
  00039	81 e1 03 00 00
	80		 and	 ecx, -2147483645	; 80000003H
  0003f	79 05		 jns	 SHORT $LN13@DECSTR
  00041	49		 dec	 ecx
  00042	83 c9 fc	 or	 ecx, -4			; fffffffcH
  00045	41		 inc	 ecx
$LN13@DECSTR:
  00046	b2 ed		 mov	 dl, -19			; ffffffedH
  00048	2a d1		 sub	 dl, cl
  0004a	30 14 30	 xor	 BYTE PTR [eax+esi], dl
  0004d	40		 inc	 eax
$LN14@DECSTR:
  0004e	3b c7		 cmp	 eax, edi
  00050	7c e5		 jl	 SHORT $LL3@DECSTR
  00052	5f		 pop	 edi
  00053	5e		 pop	 esi
  00054	5d		 pop	 ebp
  00055	c3		 ret	 0
?_DECSTR@@YAXPADH@Z ENDP				; _DECSTR
_TEXT	ENDS
PUBLIC	?GetCurState@FSMStateMgr@@QBEHXZ		; FSMStateMgr::GetCurState
; Function compile flags: /Ogsp
; File d:\lost saga for developer\youtube\tutorial\source\src\lsclient\gui\fsmstatemgr.h
;	COMDAT ?GetCurState@FSMStateMgr@@QBEHXZ
_TEXT	SEGMENT
?GetCurState@FSMStateMgr@@QBEHXZ PROC			; FSMStateMgr::GetCurState, COMDAT
; _this$ = ecx

; 52   : 	inline int GetCurState() const { return m_iCurState; }

  00000	8b 41 04	 mov	 eax, DWORD PTR [ecx+4]
  00003	c3		 ret	 0
?GetCurState@FSMStateMgr@@QBEHXZ ENDP			; FSMStateMgr::GetCurState
_TEXT	ENDS
PUBLIC	?GetCurTime@FSMStateMgr@@QBEKXZ			; FSMStateMgr::GetCurTime
; Function compile flags: /Ogsp
;	COMDAT ?GetCurTime@FSMStateMgr@@QBEKXZ
_TEXT	SEGMENT
?GetCurTime@FSMStateMgr@@QBEKXZ PROC			; FSMStateMgr::GetCurTime, COMDAT
; _this$ = ecx

; 55   : 	inline DWORD GetCurTime() const { return m_dwCurTime; }

  00000	8b 41 0c	 mov	 eax, DWORD PTR [ecx+12]
  00003	c3		 ret	 0
?GetCurTime@FSMStateMgr@@QBEKXZ ENDP			; FSMStateMgr::GetCurTime
_TEXT	ENDS
PUBLIC	?GetDelay@FSMStateMgr@@QBEHXZ			; FSMStateMgr::GetDelay
; Function compile flags: /Ogsp
;	COMDAT ?GetDelay@FSMStateMgr@@QBEHXZ
_TEXT	SEGMENT
?GetDelay@FSMStateMgr@@QBEHXZ PROC			; FSMStateMgr::GetDelay, COMDAT
; _this$ = ecx

; 61   : 	inline int GetDelay() const { return m_iCurDelay; }

  00000	8b 41 10	 mov	 eax, DWORD PTR [ecx+16]
  00003	c3		 ret	 0
?GetDelay@FSMStateMgr@@QBEHXZ ENDP			; FSMStateMgr::GetDelay
_TEXT	ENDS
PUBLIC	?IsSkipUIByBlind@ioSP2GUIManager@@QBE_NXZ	; ioSP2GUIManager::IsSkipUIByBlind
; Function compile flags: /Ogsp
; File d:\lost saga for developer\youtube\tutorial\source\src\lsclient\gui\iosp2guimanager.h
;	COMDAT ?IsSkipUIByBlind@ioSP2GUIManager@@QBE_NXZ
_TEXT	SEGMENT
?IsSkipUIByBlind@ioSP2GUIManager@@QBE_NXZ PROC		; ioSP2GUIManager::IsSkipUIByBlind, COMDAT
; _this$ = ecx

; 236  : 	inline bool IsSkipUIByBlind() const { return m_bSkipUIByBlind; }	

  00000	8a 81 e0 04 00
	00		 mov	 al, BYTE PTR [ecx+1248]
  00006	c3		 ret	 0
?IsSkipUIByBlind@ioSP2GUIManager@@QBE_NXZ ENDP		; ioSP2GUIManager::IsSkipUIByBlind
_TEXT	ENDS
EXTRN	__imp_??0exception@std@@QAE@ABV01@@Z:PROC
; Function compile flags: /Ogsp
;	COMDAT ??0bad_alloc@std@@QAE@ABV01@@Z
_TEXT	SEGMENT
___that$ = 8						; size = 4
??0bad_alloc@std@@QAE@ABV01@@Z PROC			; std::bad_alloc::bad_alloc, COMDAT
; _this$ = ecx
  00000	55		 push	 ebp
  00001	8b ec		 mov	 ebp, esp
  00003	56		 push	 esi
  00004	ff 75 08	 push	 DWORD PTR ___that$[ebp]
  00007	8b f1		 mov	 esi, ecx
  00009	ff 15 00 00 00
	00		 call	 DWORD PTR __imp_??0exception@std@@QAE@ABV01@@Z
  0000f	c7 06 00 00 00
	00		 mov	 DWORD PTR [esi], OFFSET ??_7bad_alloc@std@@6B@
  00015	8b c6		 mov	 eax, esi
  00017	5e		 pop	 esi
  00018	5d		 pop	 ebp
  00019	c2 04 00	 ret	 4
??0bad_alloc@std@@QAE@ABV01@@Z ENDP			; std::bad_alloc::bad_alloc
_TEXT	ENDS
PUBLIC	__real@4026000000000000
PUBLIC	?UpdateShowAni@MiniMap@@IAE_NXZ			; MiniMap::UpdateShowAni
EXTRN	?UpdateTime@FSMStateMgr@@QAEXXZ:PROC		; FSMStateMgr::UpdateTime
;	COMDAT __real@4026000000000000
; File d:\lost saga for developer\youtube\tutorial\source\src\lsclient\gui\fsmstatemgr.h
CONST	SEGMENT
__real@4026000000000000 DQ 04026000000000000r	; 11
; Function compile flags: /Ogsp
; File d:\lost saga for developer\youtube\tutorial\source\src\lsclient\gui\minimap.cpp
CONST	ENDS
;	COMDAT ?UpdateShowAni@MiniMap@@IAE_NXZ
_TEXT	SEGMENT
tv304 = -16						; size = 8
tv302 = -16						; size = 8
tv295 = -16						; size = 8
tv529 = -8						; size = 4
tv525 = -8						; size = 4
tv521 = -8						; size = 4
tv517 = -8						; size = 4
tv514 = -8						; size = 4
tv510 = -8						; size = 4
tv506 = -8						; size = 4
tv502 = -8						; size = 4
tv495 = -8						; size = 4
tv430 = -8						; size = 4
tv426 = -8						; size = 4
tv421 = -8						; size = 4
tv417 = -8						; size = 4
tv382 = -8						; size = 4
tv378 = -8						; size = 4
tv373 = -8						; size = 4
tv368 = -8						; size = 4
tv362 = -8						; size = 4
_iStartYPos$525177 = -8					; size = 4
tv580 = -4						; size = 4
tv575 = -4						; size = 4
tv571 = -4						; size = 4
tv567 = -4						; size = 4
tv564 = -4						; size = 4
tv560 = -4						; size = 4
tv556 = -4						; size = 4
tv552 = -4						; size = 4
tv546 = -4						; size = 4
?UpdateShowAni@MiniMap@@IAE_NXZ PROC			; MiniMap::UpdateShowAni, COMDAT
; _this$ = ecx

; 822  : {

  00000	55		 push	 ebp
  00001	8b ec		 mov	 ebp, esp
  00003	83 ec 10	 sub	 esp, 16			; 00000010H
  00006	53		 push	 ebx
  00007	56		 push	 esi
  00008	57		 push	 edi
  00009	8b f1		 mov	 esi, ecx

; 823  : 	if( !g_GUIMgr.IsSkipUIByBlind() && m_ShowAniState.GetCurState() == SAT_NONE )

  0000b	e8 00 00 00 00	 call	 ?GetSingleton@ioSP2GUIManager@@SAAAV1@XZ ; ioSP2GUIManager::GetSingleton
  00010	33 db		 xor	 ebx, ebx
  00012	38 98 e0 04 00
	00		 cmp	 BYTE PTR [eax+1248], bl
  00018	75 15		 jne	 SHORT $LN81@UpdateShow
  0001a	39 9e 7c 02 00
	00		 cmp	 DWORD PTR [esi+636], ebx
  00020	75 0d		 jne	 SHORT $LN81@UpdateShow

; 824  : 		m_ShowAniState.ChangeState( SAT_END );

  00022	6a 07		 push	 7
  00024	8d 8e 78 02 00
	00		 lea	 ecx, DWORD PTR [esi+632]
  0002a	e8 00 00 00 00	 call	 ?ChangeState@FSMStateMgr@@QAEHH@Z ; FSMStateMgr::ChangeState
$LN81@UpdateShow:

; 825  : 
; 826  : 	if( !g_GUIMgr.IsSkipUIByBlind() && m_ShowAniState.GetCurState() == SAT_START_ROUND )

  0002f	e8 00 00 00 00	 call	 ?GetSingleton@ioSP2GUIManager@@SAAAV1@XZ ; ioSP2GUIManager::GetSingleton
  00034	38 98 e0 04 00
	00		 cmp	 BYTE PTR [eax+1248], bl
  0003a	75 16		 jne	 SHORT $LN9@UpdateShow
  0003c	83 be 7c 02 00
	00 01		 cmp	 DWORD PTR [esi+636], 1
  00043	75 0d		 jne	 SHORT $LN9@UpdateShow

; 827  : 		m_ShowAniState.ChangeState( SAT_DELAY );

  00045	6a 02		 push	 2
  00047	8d 8e 78 02 00
	00		 lea	 ecx, DWORD PTR [esi+632]
  0004d	e8 00 00 00 00	 call	 ?ChangeState@FSMStateMgr@@QAEHH@Z ; FSMStateMgr::ChangeState
$LN9@UpdateShow:

; 828  : 
; 829  : 	if( g_GUIMgr.IsSkipUIByBlind() && m_ShowAniState.GetCurState() == SAT_END )

  00052	e8 00 00 00 00	 call	 ?GetSingleton@ioSP2GUIManager@@SAAAV1@XZ ; ioSP2GUIManager::GetSingleton
  00057	38 98 e0 04 00
	00		 cmp	 BYTE PTR [eax+1248], bl
  0005d	74 15		 je	 SHORT $LN8@UpdateShow
  0005f	83 be 7c 02 00
	00 07		 cmp	 DWORD PTR [esi+636], 7
  00066	75 0c		 jne	 SHORT $LN8@UpdateShow

; 830  : 		m_ShowAniState.ChangeState( SAT_NONE );

  00068	53		 push	 ebx
  00069	8d 8e 78 02 00
	00		 lea	 ecx, DWORD PTR [esi+632]
  0006f	e8 00 00 00 00	 call	 ?ChangeState@FSMStateMgr@@QAEHH@Z ; FSMStateMgr::ChangeState
$LN8@UpdateShow:

; 831  : 
; 832  : 	m_ShowAniState.UpdateTime();

  00074	8d 8e 78 02 00
	00		 lea	 ecx, DWORD PTR [esi+632]
  0007a	e8 00 00 00 00	 call	 ?UpdateTime@FSMStateMgr@@QAEXXZ ; FSMStateMgr::UpdateTime

; 833  : 
; 834  : 	if( m_ShowAniState.GetCurState() == SAT_UP )

  0007f	8b 86 7c 02 00
	00		 mov	 eax, DWORD PTR [esi+636]
  00085	83 f8 03	 cmp	 eax, 3
  00088	0f 85 d3 00 00
	00		 jne	 $LN7@UpdateShow

; 835  : 	{
; 836  : 		enum { MINUS_Y_POS = 140 };
; 837  : 		int iStartYPos = MINUS_Y_POS + m_iDefaultY;

  0008e	8b 86 a4 02 00
	00		 mov	 eax, DWORD PTR [esi+676]
  00094	05 8c 00 00 00	 add	 eax, 140		; 0000008cH
  00099	89 45 f8	 mov	 DWORD PTR _iStartYPos$525177[ebp], eax

; 838  : 		int iCurYpos = m_iDefaultY - ( cos( (FLOAT_PI * FLOAT05 * m_ShowAniState.GetCurTime()  ) / m_ShowAniState.GetDelay() ) * iStartYPos );	

  0009c	b8 4e e6 40 bb	 mov	 eax, -1153374642	; bb40e64eH
  000a1	8b d0		 mov	 edx, eax
  000a3	b8 00 ca 9a 3b	 mov	 eax, 1000000000		; 3b9aca00H
  000a8	8b f8		 mov	 edi, eax
  000aa	b8 05 00 00 00	 mov	 eax, 5
  000af	8b d8		 mov	 ebx, eax
  000b1	b8 0a 00 00 00	 mov	 eax, 10			; 0000000aH

; 839  : 		SetWndPos( m_iDefaultX, iCurYpos );

  000b6	db 86 a4 02 00
	00		 fild	 DWORD PTR [esi+676]
  000bc	89 5d fc	 mov	 DWORD PTR tv580[ebp], ebx
  000bf	db 45 fc	 fild	 DWORD PTR tv580[ebp]
  000c2	85 db		 test	 ebx, ebx
  000c4	79 06		 jns	 SHORT $LN82@UpdateShow
  000c6	d8 05 00 00 00
	00		 fadd	 DWORD PTR __real@4f800000
$LN82@UpdateShow:
  000cc	89 45 fc	 mov	 DWORD PTR tv575[ebp], eax
  000cf	db 45 fc	 fild	 DWORD PTR tv575[ebp]
  000d2	85 c0		 test	 eax, eax
  000d4	79 06		 jns	 SHORT $LN83@UpdateShow
  000d6	d8 05 00 00 00
	00		 fadd	 DWORD PTR __real@4f800000
$LN83@UpdateShow:

; 838  : 		int iCurYpos = m_iDefaultY - ( cos( (FLOAT_PI * FLOAT05 * m_ShowAniState.GetCurTime()  ) / m_ShowAniState.GetDelay() ) * iStartYPos );	

  000dc	de f9		 fdivp	 ST(1), ST(0)

; 839  : 		SetWndPos( m_iDefaultX, iCurYpos );

  000de	d9 5d fc	 fstp	 DWORD PTR tv571[ebp]
  000e1	d9 45 fc	 fld	 DWORD PTR tv571[ebp]
  000e4	89 55 fc	 mov	 DWORD PTR tv567[ebp], edx
  000e7	db 45 fc	 fild	 DWORD PTR tv567[ebp]
  000ea	85 d2		 test	 edx, edx
  000ec	79 06		 jns	 SHORT $LN84@UpdateShow
  000ee	d8 05 00 00 00
	00		 fadd	 DWORD PTR __real@4f800000
$LN84@UpdateShow:
  000f4	89 7d fc	 mov	 DWORD PTR tv564[ebp], edi
  000f7	db 45 fc	 fild	 DWORD PTR tv564[ebp]
  000fa	85 ff		 test	 edi, edi
  000fc	79 06		 jns	 SHORT $LN85@UpdateShow
  000fe	d8 05 00 00 00
	00		 fadd	 DWORD PTR __real@4f800000
$LN85@UpdateShow:

; 838  : 		int iCurYpos = m_iDefaultY - ( cos( (FLOAT_PI * FLOAT05 * m_ShowAniState.GetCurTime()  ) / m_ShowAniState.GetDelay() ) * iStartYPos );	

  00104	de f9		 fdivp	 ST(1), ST(0)

; 839  : 		SetWndPos( m_iDefaultX, iCurYpos );

  00106	8b 86 84 02 00
	00		 mov	 eax, DWORD PTR [esi+644]
  0010c	d9 5d fc	 fstp	 DWORD PTR tv560[ebp]
  0010f	d8 4d fc	 fmul	 DWORD PTR tv560[ebp]
  00112	db 86 84 02 00
	00		 fild	 DWORD PTR [esi+644]
  00118	85 c0		 test	 eax, eax
  0011a	79 06		 jns	 SHORT $LN86@UpdateShow
  0011c	d8 05 00 00 00
	00		 fadd	 DWORD PTR __real@4f800000
$LN86@UpdateShow:

; 838  : 		int iCurYpos = m_iDefaultY - ( cos( (FLOAT_PI * FLOAT05 * m_ShowAniState.GetCurTime()  ) / m_ShowAniState.GetDelay() ) * iStartYPos );	

  00122	de c9		 fmulp	 ST(1), ST(0)

; 839  : 		SetWndPos( m_iDefaultX, iCurYpos );

  00124	da b6 88 02 00
	00		 fidiv	 DWORD PTR [esi+648]
  0012a	d9 5d fc	 fstp	 DWORD PTR tv552[ebp]
  0012d	d9 45 fc	 fld	 DWORD PTR tv552[ebp]
  00130	d9 c9		 fxch	 ST(1)
  00132	dd 5d f0	 fstp	 QWORD PTR tv304[ebp]
  00135	e8 00 00 00 00	 call	 __CIcos
  0013a	d9 5d fc	 fstp	 DWORD PTR tv546[ebp]
  0013d	d9 45 fc	 fld	 DWORD PTR tv546[ebp]
  00140	da 4d f8	 fimul	 DWORD PTR _iStartYPos$525177[ebp]
  00143	dc 6d f0	 fsubr	 QWORD PTR tv304[ebp]
$LN97@UpdateShow:
  00146	e8 00 00 00 00	 call	 __ftol2_sse
  0014b	50		 push	 eax
  0014c	ff b6 a0 02 00
	00		 push	 DWORD PTR [esi+672]
  00152	8b ce		 mov	 ecx, esi
  00154	ff 15 00 00 00
	00		 call	 DWORD PTR __imp_?SetWndPos@ioWnd@@QAEXHH@Z
$LN98@UpdateShow:

; 840  : 		return true;

  0015a	b0 01		 mov	 al, 1
  0015c	e9 a3 01 00 00	 jmp	 $LN11@UpdateShow
$LN7@UpdateShow:

; 841  : 	}
; 842  : 	else if( m_ShowAniState.GetCurState() == SAT_DOWN )

  00161	83 f8 04	 cmp	 eax, 4
  00164	0f 85 b2 00 00
	00		 jne	 $LN5@UpdateShow

; 843  : 	{
; 844  : 		enum { MAX_OFFSET_YPOS = 11 };
; 845  : 		int iCurYpos = m_iDefaultY - ( sin( (FLOAT_PI * FLOAT05 * m_ShowAniState.GetCurTime()  ) / m_ShowAniState.GetDelay() ) * MAX_OFFSET_YPOS );	

  0016a	b8 4e e6 40 bb	 mov	 eax, -1153374642	; bb40e64eH
  0016f	8b c8		 mov	 ecx, eax
  00171	b8 00 ca 9a 3b	 mov	 eax, 1000000000		; 3b9aca00H
  00176	8b d0		 mov	 edx, eax
  00178	b8 05 00 00 00	 mov	 eax, 5
  0017d	8b f8		 mov	 edi, eax
  0017f	b8 0a 00 00 00	 mov	 eax, 10			; 0000000aH

; 846  : 		SetWndPos( m_iDefaultX, iCurYpos );

  00184	db 86 a4 02 00
	00		 fild	 DWORD PTR [esi+676]
  0018a	89 7d f8	 mov	 DWORD PTR tv529[ebp], edi
  0018d	db 45 f8	 fild	 DWORD PTR tv529[ebp]
  00190	85 ff		 test	 edi, edi
  00192	79 06		 jns	 SHORT $LN87@UpdateShow
  00194	d8 05 00 00 00
	00		 fadd	 DWORD PTR __real@4f800000
$LN87@UpdateShow:
  0019a	89 45 f8	 mov	 DWORD PTR tv525[ebp], eax
  0019d	db 45 f8	 fild	 DWORD PTR tv525[ebp]
  001a0	85 c0		 test	 eax, eax
  001a2	79 06		 jns	 SHORT $LN88@UpdateShow
  001a4	d8 05 00 00 00
	00		 fadd	 DWORD PTR __real@4f800000
$LN88@UpdateShow:

; 843  : 	{
; 844  : 		enum { MAX_OFFSET_YPOS = 11 };
; 845  : 		int iCurYpos = m_iDefaultY - ( sin( (FLOAT_PI * FLOAT05 * m_ShowAniState.GetCurTime()  ) / m_ShowAniState.GetDelay() ) * MAX_OFFSET_YPOS );	

  001aa	de f9		 fdivp	 ST(1), ST(0)

; 846  : 		SetWndPos( m_iDefaultX, iCurYpos );

  001ac	d9 5d f8	 fstp	 DWORD PTR tv521[ebp]
  001af	d9 45 f8	 fld	 DWORD PTR tv521[ebp]
  001b2	89 4d f8	 mov	 DWORD PTR tv517[ebp], ecx
  001b5	db 45 f8	 fild	 DWORD PTR tv517[ebp]
  001b8	85 c9		 test	 ecx, ecx
  001ba	79 06		 jns	 SHORT $LN89@UpdateShow
  001bc	d8 05 00 00 00
	00		 fadd	 DWORD PTR __real@4f800000
$LN89@UpdateShow:
  001c2	89 55 f8	 mov	 DWORD PTR tv514[ebp], edx
  001c5	db 45 f8	 fild	 DWORD PTR tv514[ebp]
  001c8	85 d2		 test	 edx, edx
  001ca	79 06		 jns	 SHORT $LN90@UpdateShow
  001cc	d8 05 00 00 00
	00		 fadd	 DWORD PTR __real@4f800000
$LN90@UpdateShow:

; 843  : 	{
; 844  : 		enum { MAX_OFFSET_YPOS = 11 };
; 845  : 		int iCurYpos = m_iDefaultY - ( sin( (FLOAT_PI * FLOAT05 * m_ShowAniState.GetCurTime()  ) / m_ShowAniState.GetDelay() ) * MAX_OFFSET_YPOS );	

  001d2	de f9		 fdivp	 ST(1), ST(0)

; 846  : 		SetWndPos( m_iDefaultX, iCurYpos );

  001d4	8b 86 84 02 00
	00		 mov	 eax, DWORD PTR [esi+644]
  001da	d9 5d f8	 fstp	 DWORD PTR tv510[ebp]
  001dd	d8 4d f8	 fmul	 DWORD PTR tv510[ebp]
  001e0	db 86 84 02 00
	00		 fild	 DWORD PTR [esi+644]
  001e6	85 c0		 test	 eax, eax
  001e8	79 06		 jns	 SHORT $LN91@UpdateShow
  001ea	d8 05 00 00 00
	00		 fadd	 DWORD PTR __real@4f800000
$LN91@UpdateShow:

; 843  : 	{
; 844  : 		enum { MAX_OFFSET_YPOS = 11 };
; 845  : 		int iCurYpos = m_iDefaultY - ( sin( (FLOAT_PI * FLOAT05 * m_ShowAniState.GetCurTime()  ) / m_ShowAniState.GetDelay() ) * MAX_OFFSET_YPOS );	

  001f0	de c9		 fmulp	 ST(1), ST(0)

; 846  : 		SetWndPos( m_iDefaultX, iCurYpos );

  001f2	da b6 88 02 00
	00		 fidiv	 DWORD PTR [esi+648]
  001f8	d9 5d f8	 fstp	 DWORD PTR tv502[ebp]
  001fb	d9 45 f8	 fld	 DWORD PTR tv502[ebp]
  001fe	d9 c9		 fxch	 ST(1)
  00200	dd 5d f0	 fstp	 QWORD PTR tv302[ebp]
  00203	e8 00 00 00 00	 call	 __CIsin
  00208	d9 5d f8	 fstp	 DWORD PTR tv495[ebp]
  0020b	d9 45 f8	 fld	 DWORD PTR tv495[ebp]
  0020e	dc 0d 00 00 00
	00		 fmul	 QWORD PTR __real@4026000000000000
  00214	dc 6d f0	 fsubr	 QWORD PTR tv302[ebp]

; 847  : 		return true;

  00217	e9 2a ff ff ff	 jmp	 $LN97@UpdateShow
$LN5@UpdateShow:

; 848  : 	}
; 849  : 	else if( m_ShowAniState.GetCurState() == SAT_UP_STOP )

  0021c	83 f8 05	 cmp	 eax, 5
  0021f	0f 85 b2 00 00
	00		 jne	 $LN3@UpdateShow

; 850  : 	{
; 851  : 		enum { MAX_OFFSET_YPOS = 11 };
; 852  : 		int iCurYpos = m_iDefaultY - ( cos( (FLOAT_PI * FLOAT05 * m_ShowAniState.GetCurTime()  ) / m_ShowAniState.GetDelay() ) * MAX_OFFSET_YPOS );	

  00225	b8 4e e6 40 bb	 mov	 eax, -1153374642	; bb40e64eH
  0022a	8b c8		 mov	 ecx, eax
  0022c	b8 00 ca 9a 3b	 mov	 eax, 1000000000		; 3b9aca00H
  00231	8b d0		 mov	 edx, eax
  00233	b8 05 00 00 00	 mov	 eax, 5
  00238	8b f8		 mov	 edi, eax
  0023a	b8 0a 00 00 00	 mov	 eax, 10			; 0000000aH

; 853  : 		SetWndPos( m_iDefaultX, iCurYpos );

  0023f	db 86 a4 02 00
	00		 fild	 DWORD PTR [esi+676]
  00245	89 7d f8	 mov	 DWORD PTR tv430[ebp], edi
  00248	db 45 f8	 fild	 DWORD PTR tv430[ebp]
  0024b	85 ff		 test	 edi, edi
  0024d	79 06		 jns	 SHORT $LN92@UpdateShow
  0024f	d8 05 00 00 00
	00		 fadd	 DWORD PTR __real@4f800000
$LN92@UpdateShow:
  00255	89 45 f8	 mov	 DWORD PTR tv426[ebp], eax
  00258	db 45 f8	 fild	 DWORD PTR tv426[ebp]
  0025b	85 c0		 test	 eax, eax
  0025d	79 06		 jns	 SHORT $LN93@UpdateShow
  0025f	d8 05 00 00 00
	00		 fadd	 DWORD PTR __real@4f800000
$LN93@UpdateShow:

; 850  : 	{
; 851  : 		enum { MAX_OFFSET_YPOS = 11 };
; 852  : 		int iCurYpos = m_iDefaultY - ( cos( (FLOAT_PI * FLOAT05 * m_ShowAniState.GetCurTime()  ) / m_ShowAniState.GetDelay() ) * MAX_OFFSET_YPOS );	

  00265	de f9		 fdivp	 ST(1), ST(0)

; 853  : 		SetWndPos( m_iDefaultX, iCurYpos );

  00267	d9 5d f8	 fstp	 DWORD PTR tv421[ebp]
  0026a	d9 45 f8	 fld	 DWORD PTR tv421[ebp]
  0026d	89 4d f8	 mov	 DWORD PTR tv417[ebp], ecx
  00270	db 45 f8	 fild	 DWORD PTR tv417[ebp]
  00273	85 c9		 test	 ecx, ecx
  00275	79 06		 jns	 SHORT $LN94@UpdateShow
  00277	d8 05 00 00 00
	00		 fadd	 DWORD PTR __real@4f800000
$LN94@UpdateShow:
  0027d	89 55 f8	 mov	 DWORD PTR tv382[ebp], edx
  00280	db 45 f8	 fild	 DWORD PTR tv382[ebp]
  00283	85 d2		 test	 edx, edx
  00285	79 06		 jns	 SHORT $LN95@UpdateShow
  00287	d8 05 00 00 00
	00		 fadd	 DWORD PTR __real@4f800000
$LN95@UpdateShow:

; 850  : 	{
; 851  : 		enum { MAX_OFFSET_YPOS = 11 };
; 852  : 		int iCurYpos = m_iDefaultY - ( cos( (FLOAT_PI * FLOAT05 * m_ShowAniState.GetCurTime()  ) / m_ShowAniState.GetDelay() ) * MAX_OFFSET_YPOS );	

  0028d	de f9		 fdivp	 ST(1), ST(0)

; 853  : 		SetWndPos( m_iDefaultX, iCurYpos );

  0028f	8b 86 84 02 00
	00		 mov	 eax, DWORD PTR [esi+644]
  00295	d9 5d f8	 fstp	 DWORD PTR tv378[ebp]
  00298	d8 4d f8	 fmul	 DWORD PTR tv378[ebp]
  0029b	db 86 84 02 00
	00		 fild	 DWORD PTR [esi+644]
  002a1	85 c0		 test	 eax, eax
  002a3	79 06		 jns	 SHORT $LN96@UpdateShow
  002a5	d8 05 00 00 00
	00		 fadd	 DWORD PTR __real@4f800000
$LN96@UpdateShow:

; 850  : 	{
; 851  : 		enum { MAX_OFFSET_YPOS = 11 };
; 852  : 		int iCurYpos = m_iDefaultY - ( cos( (FLOAT_PI * FLOAT05 * m_ShowAniState.GetCurTime()  ) / m_ShowAniState.GetDelay() ) * MAX_OFFSET_YPOS );	

  002ab	de c9		 fmulp	 ST(1), ST(0)

; 853  : 		SetWndPos( m_iDefaultX, iCurYpos );

  002ad	da b6 88 02 00
	00		 fidiv	 DWORD PTR [esi+648]
  002b3	d9 5d f8	 fstp	 DWORD PTR tv368[ebp]
  002b6	d9 45 f8	 fld	 DWORD PTR tv368[ebp]
  002b9	d9 c9		 fxch	 ST(1)
  002bb	dd 5d f0	 fstp	 QWORD PTR tv295[ebp]
  002be	e8 00 00 00 00	 call	 __CIcos
  002c3	d9 5d f8	 fstp	 DWORD PTR tv362[ebp]
  002c6	d9 45 f8	 fld	 DWORD PTR tv362[ebp]
  002c9	dc 0d 00 00 00
	00		 fmul	 QWORD PTR __real@4026000000000000
  002cf	dc 6d f0	 fsubr	 QWORD PTR tv295[ebp]

; 854  : 		return true;

  002d2	e9 6f fe ff ff	 jmp	 $LN97@UpdateShow
$LN3@UpdateShow:

; 855  : 	}
; 856  : 	else if( m_ShowAniState.GetCurState() == SAT_STOP )

  002d7	83 f8 06	 cmp	 eax, 6
  002da	75 26		 jne	 SHORT $LN1@UpdateShow

; 857  : 	{
; 858  : 		SetWndPos( m_iDefaultX, m_iDefaultY );

  002dc	ff b6 a4 02 00
	00		 push	 DWORD PTR [esi+676]
  002e2	8b ce		 mov	 ecx, esi
  002e4	ff b6 a0 02 00
	00		 push	 DWORD PTR [esi+672]
  002ea	ff 15 00 00 00
	00		 call	 DWORD PTR __imp_?SetWndPos@ioWnd@@QAEXHH@Z

; 859  : 		m_ShowAniState.ChangeState( SAT_END );

  002f0	6a 07		 push	 7
  002f2	8d 8e 78 02 00
	00		 lea	 ecx, DWORD PTR [esi+632]
  002f8	e8 00 00 00 00	 call	 ?ChangeState@FSMStateMgr@@QAEHH@Z ; FSMStateMgr::ChangeState

; 860  : 		return true;

  002fd	e9 58 fe ff ff	 jmp	 $LN98@UpdateShow
$LN1@UpdateShow:

; 861  : 	}
; 862  : 
; 863  : 	return false;

  00302	32 c0		 xor	 al, al
$LN11@UpdateShow:
  00304	5f		 pop	 edi
  00305	5e		 pop	 esi
  00306	5b		 pop	 ebx

; 864  : }

  00307	c9		 leave
  00308	c3		 ret	 0
?UpdateShowAni@MiniMap@@IAE_NXZ ENDP			; MiniMap::UpdateShowAni
_TEXT	ENDS
PUBLIC	?GetCurShowAniState@MiniMap@@QAEHXZ		; MiniMap::GetCurShowAniState
; Function compile flags: /Ogsp
;	COMDAT ?GetCurShowAniState@MiniMap@@QAEHXZ
_TEXT	SEGMENT
?GetCurShowAniState@MiniMap@@QAEHXZ PROC		; MiniMap::GetCurShowAniState, COMDAT
; _this$ = ecx

; 868  : 	return m_ShowAniState.GetCurState();

  00000	8b 81 7c 02 00
	00		 mov	 eax, DWORD PTR [ecx+636]

; 869  : }

  00006	c3		 ret	 0
?GetCurShowAniState@MiniMap@@QAEHXZ ENDP		; MiniMap::GetCurShowAniState
_TEXT	ENDS
PUBLIC	??D?$_Vector_iterator@V?$_Vector_val@USpotPoint@MiniMap@@V?$allocator@USpotPoint@MiniMap@@@std@@@std@@@std@@QBEAAUSpotPoint@MiniMap@@XZ ; std::_Vector_iterator<std::_Vector_val<MiniMap::SpotPoint,std::allocator<MiniMap::SpotPoint> > >::operator*
; Function compile flags: /Ogsp
; File c:\program files (x86)\microsoft visual studio 10.0\vc\include\vector
;	COMDAT ??D?$_Vector_iterator@V?$_Vector_val@USpotPoint@MiniMap@@V?$allocator@USpotPoint@MiniMap@@@std@@@std@@@std@@QBEAAUSpotPoint@MiniMap@@XZ
_TEXT	SEGMENT
??D?$_Vector_iterator@V?$_Vector_val@USpotPoint@MiniMap@@V?$allocator@USpotPoint@MiniMap@@@std@@@std@@@std@@QBEAAUSpotPoint@MiniMap@@XZ PROC ; std::_Vector_iterator<std::_Vector_val<MiniMap::SpotPoint,std::allocator<MiniMap::SpotPoint> > >::operator*, COMDAT
; _this$ = ecx

; 322  : 		return ((reference)**(_Mybase *)this);

  00000	8b 01		 mov	 eax, DWORD PTR [ecx]

; 323  : 		}

  00002	c3		 ret	 0
??D?$_Vector_iterator@V?$_Vector_val@USpotPoint@MiniMap@@V?$allocator@USpotPoint@MiniMap@@@std@@@std@@@std@@QBEAAUSpotPoint@MiniMap@@XZ ENDP ; std::_Vector_iterator<std::_Vector_val<MiniMap::SpotPoint,std::allocator<MiniMap::SpotPoint> > >::operator*
_TEXT	ENDS
PUBLIC	??E?$_Vector_iterator@V?$_Vector_val@USpotPoint@MiniMap@@V?$allocator@USpotPoint@MiniMap@@@std@@@std@@@std@@QAEAAV01@XZ ; std::_Vector_iterator<std::_Vector_val<MiniMap::SpotPoint,std::allocator<MiniMap::SpotPoint> > >::operator++
; Function compile flags: /Ogsp
;	COMDAT ??E?$_Vector_iterator@V?$_Vector_val@USpotPoint@MiniMap@@V?$allocator@USpotPoint@MiniMap@@@std@@@std@@@std@@QAEAAV01@XZ
_TEXT	SEGMENT
??E?$_Vector_iterator@V?$_Vector_val@USpotPoint@MiniMap@@V?$allocator@USpotPoint@MiniMap@@@std@@@std@@@std@@QAEAAV01@XZ PROC ; std::_Vector_iterator<std::_Vector_val<MiniMap::SpotPoint,std::allocator<MiniMap::SpotPoint> > >::operator++, COMDAT
; _this$ = ecx

; 331  : 		{	// preincrement

  00000	8b c1		 mov	 eax, ecx

; 332  : 		++*(_Mybase *)this;

  00002	83 00 14	 add	 DWORD PTR [eax], 20	; 00000014H

; 333  : 		return (*this);
; 334  : 		}

  00005	c3		 ret	 0
??E?$_Vector_iterator@V?$_Vector_val@USpotPoint@MiniMap@@V?$allocator@USpotPoint@MiniMap@@@std@@@std@@@std@@QAEAAV01@XZ ENDP ; std::_Vector_iterator<std::_Vector_val<MiniMap::SpotPoint,std::allocator<MiniMap::SpotPoint> > >::operator++
_TEXT	ENDS
PUBLIC	??0?$_Vector_val@USpotPoint@MiniMap@@V?$allocator@USpotPoint@MiniMap@@@std@@@std@@QAE@V?$allocator@USpotPoint@MiniMap@@@1@@Z ; std::_Vector_val<MiniMap::SpotPoint,std::allocator<MiniMap::SpotPoint> >::_Vector_val<MiniMap::SpotPoint,std::allocator<MiniMap::SpotPoint> >
; Function compile flags: /Ogsp
;	COMDAT ??0?$_Vector_val@USpotPoint@MiniMap@@V?$allocator@USpotPoint@MiniMap@@@std@@@std@@QAE@V?$allocator@USpotPoint@MiniMap@@@1@@Z
_TEXT	SEGMENT
__Al$ = 8						; size = 1
??0?$_Vector_val@USpotPoint@MiniMap@@V?$allocator@USpotPoint@MiniMap@@@std@@@std@@QAE@V?$allocator@USpotPoint@MiniMap@@@1@@Z PROC ; std::_Vector_val<MiniMap::SpotPoint,std::allocator<MiniMap::SpotPoint> >::_Vector_val<MiniMap::SpotPoint,std::allocator<MiniMap::SpotPoint> >, COMDAT
; _this$ = ecx

; 426  : 		{	// construct allocator from _Al

  00000	8b c1		 mov	 eax, ecx

; 427  : 		_Myfirst = 0;

  00002	33 c9		 xor	 ecx, ecx
  00004	89 08		 mov	 DWORD PTR [eax], ecx

; 428  : 		_Mylast = 0;

  00006	89 48 04	 mov	 DWORD PTR [eax+4], ecx

; 429  : 		_Myend = 0;

  00009	89 48 08	 mov	 DWORD PTR [eax+8], ecx

; 430  : 		}

  0000c	c2 04 00	 ret	 4
??0?$_Vector_val@USpotPoint@MiniMap@@V?$allocator@USpotPoint@MiniMap@@@std@@@std@@QAE@V?$allocator@USpotPoint@MiniMap@@@1@@Z ENDP ; std::_Vector_val<MiniMap::SpotPoint,std::allocator<MiniMap::SpotPoint> >::_Vector_val<MiniMap::SpotPoint,std::allocator<MiniMap::SpotPoint> >
_TEXT	ENDS
PUBLIC	??0?$_Vector_iterator@V?$_Vector_val@USpotPoint@MiniMap@@V?$allocator@USpotPoint@MiniMap@@@std@@@std@@@std@@QAE@PAUSpotPoint@MiniMap@@PBU_Container_base0@1@@Z ; std::_Vector_iterator<std::_Vector_val<MiniMap::SpotPoint,std::allocator<MiniMap::SpotPoint> > >::_Vector_iterator<std::_Vector_val<MiniMap::SpotPoint,std::allocator<MiniMap::SpotPoint> > >
; Function compile flags: /Ogsp
;	COMDAT ??0?$_Vector_iterator@V?$_Vector_val@USpotPoint@MiniMap@@V?$allocator@USpotPoint@MiniMap@@@std@@@std@@@std@@QAE@PAUSpotPoint@MiniMap@@PBU_Container_base0@1@@Z
_TEXT	SEGMENT
__Parg$ = 8						; size = 4
__Pvector$ = 12						; size = 4
??0?$_Vector_iterator@V?$_Vector_val@USpotPoint@MiniMap@@V?$allocator@USpotPoint@MiniMap@@@std@@@std@@@std@@QAE@PAUSpotPoint@MiniMap@@PBU_Container_base0@1@@Z PROC ; std::_Vector_iterator<std::_Vector_val<MiniMap::SpotPoint,std::allocator<MiniMap::SpotPoint> > >::_Vector_iterator<std::_Vector_val<MiniMap::SpotPoint,std::allocator<MiniMap::SpotPoint> > >, COMDAT
; _this$ = ecx

; 304  : 		{	// construct with pointer _Parg

  00000	55		 push	 ebp
  00001	8b ec		 mov	 ebp, esp
  00003	8b c1		 mov	 eax, ecx
  00005	8b 4d 08	 mov	 ecx, DWORD PTR __Parg$[ebp]
  00008	89 08		 mov	 DWORD PTR [eax], ecx

; 305  : 		}

  0000a	5d		 pop	 ebp
  0000b	c2 08 00	 ret	 8
??0?$_Vector_iterator@V?$_Vector_val@USpotPoint@MiniMap@@V?$allocator@USpotPoint@MiniMap@@@std@@@std@@@std@@QAE@PAUSpotPoint@MiniMap@@PBU_Container_base0@1@@Z ENDP ; std::_Vector_iterator<std::_Vector_val<MiniMap::SpotPoint,std::allocator<MiniMap::SpotPoint> > >::_Vector_iterator<std::_Vector_val<MiniMap::SpotPoint,std::allocator<MiniMap::SpotPoint> > >
_TEXT	ENDS
PUBLIC	??8?$_Vector_const_iterator@V?$_Vector_val@USpotPoint@MiniMap@@V?$allocator@USpotPoint@MiniMap@@@std@@@std@@@std@@QBE_NABV01@@Z ; std::_Vector_const_iterator<std::_Vector_val<MiniMap::SpotPoint,std::allocator<MiniMap::SpotPoint> > >::operator==
; Function compile flags: /Ogsp
;	COMDAT ??8?$_Vector_const_iterator@V?$_Vector_val@USpotPoint@MiniMap@@V?$allocator@USpotPoint@MiniMap@@@std@@@std@@@std@@QBE_NABV01@@Z
_TEXT	SEGMENT
__Right$ = 8						; size = 4
??8?$_Vector_const_iterator@V?$_Vector_val@USpotPoint@MiniMap@@V?$allocator@USpotPoint@MiniMap@@@std@@@std@@@std@@QBE_NABV01@@Z PROC ; std::_Vector_const_iterator<std::_Vector_val<MiniMap::SpotPoint,std::allocator<MiniMap::SpotPoint> > >::operator==, COMDAT
; _this$ = ecx

; 201  : 		{	// test for iterator equality

  00000	55		 push	 ebp
  00001	8b ec		 mov	 ebp, esp

; 202  : 		_Compat(_Right);
; 203  : 		return (this->_Ptr == _Right._Ptr);

  00003	8b 01		 mov	 eax, DWORD PTR [ecx]
  00005	8b 4d 08	 mov	 ecx, DWORD PTR __Right$[ebp]
  00008	2b 01		 sub	 eax, DWORD PTR [ecx]
  0000a	f7 d8		 neg	 eax
  0000c	1b c0		 sbb	 eax, eax
  0000e	40		 inc	 eax

; 204  : 		}

  0000f	5d		 pop	 ebp
  00010	c2 04 00	 ret	 4
??8?$_Vector_const_iterator@V?$_Vector_val@USpotPoint@MiniMap@@V?$allocator@USpotPoint@MiniMap@@@std@@@std@@@std@@QBE_NABV01@@Z ENDP ; std::_Vector_const_iterator<std::_Vector_val<MiniMap::SpotPoint,std::allocator<MiniMap::SpotPoint> > >::operator==
_TEXT	ENDS
PUBLIC	?max_size@?$vector@USpotPoint@MiniMap@@V?$allocator@USpotPoint@MiniMap@@@std@@@std@@QBEIXZ ; std::vector<MiniMap::SpotPoint,std::allocator<MiniMap::SpotPoint> >::max_size
; Function compile flags: /Ogsp
;	COMDAT ?max_size@?$vector@USpotPoint@MiniMap@@V?$allocator@USpotPoint@MiniMap@@@std@@@std@@QBEIXZ
_TEXT	SEGMENT
?max_size@?$vector@USpotPoint@MiniMap@@V?$allocator@USpotPoint@MiniMap@@@std@@@std@@QBEIXZ PROC ; std::vector<MiniMap::SpotPoint,std::allocator<MiniMap::SpotPoint> >::max_size, COMDAT
; _this$ = ecx

; 884  : 		return (this->_Alval.max_size());

  00000	b8 cc cc cc 0c	 mov	 eax, 214748364		; 0cccccccH

; 885  : 		}

  00005	c3		 ret	 0
?max_size@?$vector@USpotPoint@MiniMap@@V?$allocator@USpotPoint@MiniMap@@@std@@@std@@QBEIXZ ENDP ; std::vector<MiniMap::SpotPoint,std::allocator<MiniMap::SpotPoint> >::max_size
_TEXT	ENDS
PUBLIC	?_Grow_to@?$vector@USpotPoint@MiniMap@@V?$allocator@USpotPoint@MiniMap@@@std@@@std@@IBEII@Z ; std::vector<MiniMap::SpotPoint,std::allocator<MiniMap::SpotPoint> >::_Grow_to
; Function compile flags: /Ogsp
;	COMDAT ?_Grow_to@?$vector@USpotPoint@MiniMap@@V?$allocator@USpotPoint@MiniMap@@@std@@@std@@IBEII@Z
_TEXT	SEGMENT
__Count$ = 8						; size = 4
?_Grow_to@?$vector@USpotPoint@MiniMap@@V?$allocator@USpotPoint@MiniMap@@@std@@@std@@IBEII@Z PROC ; std::vector<MiniMap::SpotPoint,std::allocator<MiniMap::SpotPoint> >::_Grow_to, COMDAT
; _this$ = ecx

; 1274 : 		{	// grow by 50% or at least to _Count

  00000	55		 push	 ebp
  00001	8b ec		 mov	 ebp, esp

; 1275 : 		size_type _Capacity = capacity();

  00003	8b 41 08	 mov	 eax, DWORD PTR [ecx+8]
  00006	2b 01		 sub	 eax, DWORD PTR [ecx]
  00008	6a 14		 push	 20			; 00000014H
  0000a	99		 cdq
  0000b	59		 pop	 ecx
  0000c	f7 f9		 idiv	 ecx

; 1276 : 
; 1277 : 		_Capacity = max_size() - _Capacity / 2 < _Capacity
; 1278 : 			? 0 : _Capacity + _Capacity / 2;	// try to grow by 50%

  0000e	ba cc cc cc 0c	 mov	 edx, 214748364		; 0cccccccH
  00013	8b c8		 mov	 ecx, eax
  00015	d1 e9		 shr	 ecx, 1
  00017	2b d1		 sub	 edx, ecx
  00019	3b d0		 cmp	 edx, eax
  0001b	73 04		 jae	 SHORT $LN4@Grow_to
  0001d	33 c0		 xor	 eax, eax
  0001f	eb 02		 jmp	 SHORT $LN5@Grow_to
$LN4@Grow_to:
  00021	03 c1		 add	 eax, ecx
$LN5@Grow_to:

; 1279 : 		if (_Capacity < _Count)

  00023	3b 45 08	 cmp	 eax, DWORD PTR __Count$[ebp]

; 1280 : 			_Capacity = _Count;

  00026	0f 42 45 08	 cmovb	 eax, DWORD PTR __Count$[ebp]

; 1281 : 		return (_Capacity);
; 1282 : 		}

  0002a	5d		 pop	 ebp
  0002b	c2 04 00	 ret	 4
?_Grow_to@?$vector@USpotPoint@MiniMap@@V?$allocator@USpotPoint@MiniMap@@@std@@@std@@IBEII@Z ENDP ; std::vector<MiniMap::SpotPoint,std::allocator<MiniMap::SpotPoint> >::_Grow_to
_TEXT	ENDS
PUBLIC	?allocate@?$allocator@USpotPoint@MiniMap@@@std@@QAEPAUSpotPoint@MiniMap@@I@Z ; std::allocator<MiniMap::SpotPoint>::allocate
; Function compile flags: /Ogsp
; File c:\program files (x86)\microsoft visual studio 10.0\vc\include\xmemory
;	COMDAT ?allocate@?$allocator@USpotPoint@MiniMap@@@std@@QAEPAUSpotPoint@MiniMap@@I@Z
_TEXT	SEGMENT
__Count$ = 8						; size = 4
?allocate@?$allocator@USpotPoint@MiniMap@@@std@@QAEPAUSpotPoint@MiniMap@@I@Z PROC ; std::allocator<MiniMap::SpotPoint>::allocate, COMDAT
; _this$ = ecx

; 186  : 		{	// allocate array of _Count elements

  00000	55		 push	 ebp
  00001	8b ec		 mov	 ebp, esp

; 187  : 		return (_Allocate(_Count, (pointer)0));

  00003	6a 00		 push	 0
  00005	ff 75 08	 push	 DWORD PTR __Count$[ebp]
  00008	e8 00 00 00 00	 call	 ??$_Allocate@USpotPoint@MiniMap@@@std@@YAPAUSpotPoint@MiniMap@@IPAU12@@Z ; std::_Allocate<MiniMap::SpotPoint>
  0000d	59		 pop	 ecx
  0000e	59		 pop	 ecx

; 188  : 		}

  0000f	5d		 pop	 ebp
  00010	c2 04 00	 ret	 4
?allocate@?$allocator@USpotPoint@MiniMap@@@std@@QAEPAUSpotPoint@MiniMap@@I@Z ENDP ; std::allocator<MiniMap::SpotPoint>::allocate
_TEXT	ENDS
PUBLIC	__$ArrayPad$
PUBLIC	??$LoadInt_e@$0N@@ioINILoader@@QAEHAAY0N@$$CBDH@Z ; ioINILoader::LoadInt_e<13>
EXTRN	__imp_?LoadInt@ioINILoader@@QAEHPBDH@Z:PROC
; Function compile flags: /Ogsp
; File d:\lost saga for developer\youtube\tutorial\source\src\io3dengine\ioiniloader.h
;	COMDAT ??$LoadInt_e@$0N@@ioINILoader@@QAEHAAY0N@$$CBDH@Z
_TEXT	SEGMENT
__k$ = -24						; size = 13
__$ArrayPad$ = -4					; size = 4
_k$ = 8							; size = 4
_i$ = 12						; size = 4
??$LoadInt_e@$0N@@ioINILoader@@QAEHAAY0N@$$CBDH@Z PROC	; ioINILoader::LoadInt_e<13>, COMDAT
; _this$ = ecx

; 118  : 	{

  00000	55		 push	 ebp
  00001	8b ec		 mov	 ebp, esp
  00003	83 ec 18	 sub	 esp, 24			; 00000018H
  00006	a1 00 00 00 00	 mov	 eax, DWORD PTR ___security_cookie
  0000b	33 c5		 xor	 eax, ebp
  0000d	89 45 fc	 mov	 DWORD PTR __$ArrayPad$[ebp], eax
  00010	8b 45 08	 mov	 eax, DWORD PTR _k$[ebp]

; 119  : 		_ENCSTR(k, _k);

  00013	8a 10		 mov	 dl, BYTE PTR [eax]
  00015	56		 push	 esi
  00016	8b f1		 mov	 esi, ecx
  00018	84 d2		 test	 dl, dl
  0001a	0f 84 4d 01 00
	00		 je	 $LN96@LoadInt_e
  00020	80 f2 ed	 xor	 dl, -19			; ffffffedH
  00023	88 55 e8	 mov	 BYTE PTR __k$[ebp], dl
  00026	8a 50 01	 mov	 dl, BYTE PTR [eax+1]
  00029	84 d2		 test	 dl, dl
  0002b	0f 84 36 01 00
	00		 je	 $LN95@LoadInt_e
  00031	b1 ec		 mov	 cl, -20			; ffffffecH
  00033	32 d1		 xor	 dl, cl
  00035	88 55 e9	 mov	 BYTE PTR __k$[ebp+1], dl
  00038	8a 50 02	 mov	 dl, BYTE PTR [eax+2]
  0003b	84 d2		 test	 dl, dl
  0003d	0f 84 1e 01 00
	00		 je	 $LN94@LoadInt_e
  00043	80 f2 eb	 xor	 dl, -21			; ffffffebH
  00046	88 55 ea	 mov	 BYTE PTR __k$[ebp+2], dl
  00049	8a 50 03	 mov	 dl, BYTE PTR [eax+3]
  0004c	84 d2		 test	 dl, dl
  0004e	0f 84 07 01 00
	00		 je	 $LN93@LoadInt_e
  00054	80 f2 ea	 xor	 dl, -22			; ffffffeaH
  00057	88 55 eb	 mov	 BYTE PTR __k$[ebp+3], dl
  0005a	8a 50 04	 mov	 dl, BYTE PTR [eax+4]
  0005d	84 d2		 test	 dl, dl
  0005f	0f 84 f0 00 00
	00		 je	 $LN92@LoadInt_e
  00065	80 f2 ed	 xor	 dl, -19			; ffffffedH
  00068	88 55 ec	 mov	 BYTE PTR __k$[ebp+4], dl
  0006b	8a 50 05	 mov	 dl, BYTE PTR [eax+5]
  0006e	84 d2		 test	 dl, dl
  00070	0f 84 da 00 00
	00		 je	 $LN91@LoadInt_e
  00076	32 d1		 xor	 dl, cl
  00078	88 55 ed	 mov	 BYTE PTR __k$[ebp+5], dl
  0007b	8a 50 06	 mov	 dl, BYTE PTR [eax+6]
  0007e	84 d2		 test	 dl, dl
  00080	0f 84 c4 00 00
	00		 je	 $LN90@LoadInt_e
  00086	80 f2 eb	 xor	 dl, -21			; ffffffebH
  00089	88 55 ee	 mov	 BYTE PTR __k$[ebp+6], dl
  0008c	8a 50 07	 mov	 dl, BYTE PTR [eax+7]
  0008f	84 d2		 test	 dl, dl
  00091	0f 84 ad 00 00
	00		 je	 $LN89@LoadInt_e
  00097	80 f2 ea	 xor	 dl, -22			; ffffffeaH
  0009a	88 55 ef	 mov	 BYTE PTR __k$[ebp+7], dl
  0009d	8a 50 08	 mov	 dl, BYTE PTR [eax+8]
  000a0	84 d2		 test	 dl, dl
  000a2	0f 84 96 00 00
	00		 je	 $LN88@LoadInt_e
  000a8	80 f2 ed	 xor	 dl, -19			; ffffffedH
  000ab	88 55 f0	 mov	 BYTE PTR __k$[ebp+8], dl
  000ae	8a 50 09	 mov	 dl, BYTE PTR [eax+9]
  000b1	84 d2		 test	 dl, dl
  000b3	0f 84 80 00 00
	00		 je	 $LN87@LoadInt_e
  000b9	32 d1		 xor	 dl, cl
  000bb	88 55 f1	 mov	 BYTE PTR __k$[ebp+9], dl
  000be	8a 50 0a	 mov	 dl, BYTE PTR [eax+10]
  000c1	84 d2		 test	 dl, dl
  000c3	74 6e		 je	 SHORT $LN86@LoadInt_e
  000c5	80 f2 eb	 xor	 dl, -21			; ffffffebH
  000c8	88 55 f2	 mov	 BYTE PTR __k$[ebp+10], dl
  000cb	8a 50 0b	 mov	 dl, BYTE PTR [eax+11]
  000ce	84 d2		 test	 dl, dl
  000d0	74 5b		 je	 SHORT $LN85@LoadInt_e
  000d2	80 f2 ea	 xor	 dl, -22			; ffffffeaH
  000d5	80 78 0c 00	 cmp	 BYTE PTR [eax+12], 0
  000d9	88 55 f3	 mov	 BYTE PTR __k$[ebp+11], dl
  000dc	0f 84 8f 00 00
	00		 je	 $LN1@LoadInt_e
  000e2	8a 50 0d	 mov	 dl, BYTE PTR [eax+13]
  000e5	84 d2		 test	 dl, dl
  000e7	74 3f		 je	 SHORT $LN83@LoadInt_e
  000e9	32 d1		 xor	 dl, cl
  000eb	88 55 f5	 mov	 BYTE PTR __k$[ebp+13], dl
  000ee	8a 50 0e	 mov	 dl, BYTE PTR [eax+14]
  000f1	84 d2		 test	 dl, dl
  000f3	74 2d		 je	 SHORT $LN82@LoadInt_e
  000f5	80 f2 eb	 xor	 dl, -21			; ffffffebH
  000f8	88 55 f6	 mov	 BYTE PTR __k$[ebp+14], dl
  000fb	8a 50 0f	 mov	 dl, BYTE PTR [eax+15]
  000fe	84 d2		 test	 dl, dl
  00100	74 1a		 je	 SHORT $LN81@LoadInt_e
  00102	8a 40 10	 mov	 al, BYTE PTR [eax+16]
  00105	80 f2 ea	 xor	 dl, -22			; ffffffeaH
  00108	88 55 f7	 mov	 BYTE PTR __k$[ebp+15], dl
  0010b	84 c0		 test	 al, al
  0010d	74 07		 je	 SHORT $LN80@LoadInt_e
  0010f	34 ed		 xor	 al, -19			; ffffffedH
  00111	88 45 f8	 mov	 BYTE PTR __k$[ebp+16], al
  00114	eb 5b		 jmp	 SHORT $LN1@LoadInt_e
$LN80@LoadInt_e:
  00116	c6 45 f8 ed	 mov	 BYTE PTR __k$[ebp+16], -19 ; ffffffedH
  0011a	eb 55		 jmp	 SHORT $LN1@LoadInt_e
$LN81@LoadInt_e:
  0011c	c6 45 f7 ea	 mov	 BYTE PTR __k$[ebp+15], -22 ; ffffffeaH
  00120	eb 4f		 jmp	 SHORT $LN1@LoadInt_e
$LN82@LoadInt_e:
  00122	c6 45 f6 eb	 mov	 BYTE PTR __k$[ebp+14], -21 ; ffffffebH
  00126	eb 49		 jmp	 SHORT $LN1@LoadInt_e
$LN83@LoadInt_e:
  00128	88 4d f5	 mov	 BYTE PTR __k$[ebp+13], cl
  0012b	eb 44		 jmp	 SHORT $LN1@LoadInt_e
$LN85@LoadInt_e:
  0012d	c6 45 f3 ea	 mov	 BYTE PTR __k$[ebp+11], -22 ; ffffffeaH
  00131	eb 3e		 jmp	 SHORT $LN1@LoadInt_e
$LN86@LoadInt_e:
  00133	c6 45 f2 eb	 mov	 BYTE PTR __k$[ebp+10], -21 ; ffffffebH
  00137	eb 38		 jmp	 SHORT $LN1@LoadInt_e
$LN87@LoadInt_e:
  00139	88 4d f1	 mov	 BYTE PTR __k$[ebp+9], cl
  0013c	eb 33		 jmp	 SHORT $LN1@LoadInt_e
$LN88@LoadInt_e:
  0013e	c6 45 f0 ed	 mov	 BYTE PTR __k$[ebp+8], -19 ; ffffffedH
  00142	eb 2d		 jmp	 SHORT $LN1@LoadInt_e
$LN89@LoadInt_e:
  00144	c6 45 ef ea	 mov	 BYTE PTR __k$[ebp+7], -22 ; ffffffeaH
  00148	eb 27		 jmp	 SHORT $LN1@LoadInt_e
$LN90@LoadInt_e:
  0014a	c6 45 ee eb	 mov	 BYTE PTR __k$[ebp+6], -21 ; ffffffebH
  0014e	eb 21		 jmp	 SHORT $LN1@LoadInt_e
$LN91@LoadInt_e:
  00150	88 4d ed	 mov	 BYTE PTR __k$[ebp+5], cl
  00153	eb 1c		 jmp	 SHORT $LN1@LoadInt_e
$LN92@LoadInt_e:
  00155	c6 45 ec ed	 mov	 BYTE PTR __k$[ebp+4], -19 ; ffffffedH
  00159	eb 16		 jmp	 SHORT $LN1@LoadInt_e
$LN93@LoadInt_e:
  0015b	c6 45 eb ea	 mov	 BYTE PTR __k$[ebp+3], -22 ; ffffffeaH
  0015f	eb 10		 jmp	 SHORT $LN1@LoadInt_e
$LN94@LoadInt_e:
  00161	c6 45 ea eb	 mov	 BYTE PTR __k$[ebp+2], -21 ; ffffffebH
  00165	eb 0a		 jmp	 SHORT $LN1@LoadInt_e
$LN95@LoadInt_e:
  00167	c6 45 e9 ec	 mov	 BYTE PTR __k$[ebp+1], -20 ; ffffffecH
  0016b	eb 04		 jmp	 SHORT $LN1@LoadInt_e
$LN96@LoadInt_e:
  0016d	c6 45 e8 ed	 mov	 BYTE PTR __k$[ebp], -19	; ffffffedH
$LN1@LoadInt_e:
  00171	6a 03		 push	 3
  00173	8d 45 e8	 lea	 eax, DWORD PTR __k$[ebp]
  00176	c6 45 f4 00	 mov	 BYTE PTR __k$[ebp+12], 0
  0017a	5a		 pop	 edx
$LL104@LoadInt_e:
  0017b	81 30 ed ec eb
	ea		 xor	 DWORD PTR [eax], -353637139 ; eaebecedH
  00181	83 c0 04	 add	 eax, 4
  00184	4a		 dec	 edx
  00185	75 f4		 jne	 SHORT $LL104@LoadInt_e

; 120  : 		return LoadInt(_k, i);

  00187	ff 75 0c	 push	 DWORD PTR _i$[ebp]
  0018a	8d 45 e8	 lea	 eax, DWORD PTR __k$[ebp]
  0018d	50		 push	 eax
  0018e	8b ce		 mov	 ecx, esi
  00190	ff 15 00 00 00
	00		 call	 DWORD PTR __imp_?LoadInt@ioINILoader@@QAEHPBDH@Z

; 121  : 	}

  00196	8b 4d fc	 mov	 ecx, DWORD PTR __$ArrayPad$[ebp]
  00199	33 cd		 xor	 ecx, ebp
  0019b	5e		 pop	 esi
  0019c	e8 00 00 00 00	 call	 @__security_check_cookie@4
  001a1	c9		 leave
  001a2	c2 08 00	 ret	 8
??$LoadInt_e@$0N@@ioINILoader@@QAEHAAY0N@$$CBDH@Z ENDP	; ioINILoader::LoadInt_e<13>
_TEXT	ENDS
PUBLIC	__$ArrayPad$
PUBLIC	??$LoadInt_e@$0P@@ioINILoader@@QAEHAAY0P@$$CBDH@Z ; ioINILoader::LoadInt_e<15>
; Function compile flags: /Ogsp
;	COMDAT ??$LoadInt_e@$0P@@ioINILoader@@QAEHAAY0P@$$CBDH@Z
_TEXT	SEGMENT
__k$ = -24						; size = 15
__$ArrayPad$ = -4					; size = 4
_k$ = 8							; size = 4
_i$ = 12						; size = 4
??$LoadInt_e@$0P@@ioINILoader@@QAEHAAY0P@$$CBDH@Z PROC	; ioINILoader::LoadInt_e<15>, COMDAT
; _this$ = ecx

; 118  : 	{

  00000	55		 push	 ebp
  00001	8b ec		 mov	 ebp, esp
  00003	83 ec 18	 sub	 esp, 24			; 00000018H
  00006	a1 00 00 00 00	 mov	 eax, DWORD PTR ___security_cookie
  0000b	33 c5		 xor	 eax, ebp
  0000d	89 45 fc	 mov	 DWORD PTR __$ArrayPad$[ebp], eax
  00010	8b 45 08	 mov	 eax, DWORD PTR _k$[ebp]

; 119  : 		_ENCSTR(k, _k);

  00013	8a 10		 mov	 dl, BYTE PTR [eax]
  00015	56		 push	 esi
  00016	8b f1		 mov	 esi, ecx
  00018	84 d2		 test	 dl, dl
  0001a	0f 84 75 01 00
	00		 je	 $LN96@LoadInt_e@2
  00020	80 f2 ed	 xor	 dl, -19			; ffffffedH
  00023	88 55 e8	 mov	 BYTE PTR __k$[ebp], dl
  00026	8a 50 01	 mov	 dl, BYTE PTR [eax+1]
  00029	84 d2		 test	 dl, dl
  0002b	0f 84 5e 01 00
	00		 je	 $LN95@LoadInt_e@2
  00031	b1 ec		 mov	 cl, -20			; ffffffecH
  00033	32 d1		 xor	 dl, cl
  00035	88 55 e9	 mov	 BYTE PTR __k$[ebp+1], dl
  00038	8a 50 02	 mov	 dl, BYTE PTR [eax+2]
  0003b	84 d2		 test	 dl, dl
  0003d	0f 84 46 01 00
	00		 je	 $LN94@LoadInt_e@2
  00043	80 f2 eb	 xor	 dl, -21			; ffffffebH
  00046	88 55 ea	 mov	 BYTE PTR __k$[ebp+2], dl
  00049	8a 50 03	 mov	 dl, BYTE PTR [eax+3]
  0004c	84 d2		 test	 dl, dl
  0004e	0f 84 2f 01 00
	00		 je	 $LN93@LoadInt_e@2
  00054	80 f2 ea	 xor	 dl, -22			; ffffffeaH
  00057	88 55 eb	 mov	 BYTE PTR __k$[ebp+3], dl
  0005a	8a 50 04	 mov	 dl, BYTE PTR [eax+4]
  0005d	84 d2		 test	 dl, dl
  0005f	0f 84 18 01 00
	00		 je	 $LN92@LoadInt_e@2
  00065	80 f2 ed	 xor	 dl, -19			; ffffffedH
  00068	88 55 ec	 mov	 BYTE PTR __k$[ebp+4], dl
  0006b	8a 50 05	 mov	 dl, BYTE PTR [eax+5]
  0006e	84 d2		 test	 dl, dl
  00070	0f 84 02 01 00
	00		 je	 $LN91@LoadInt_e@2
  00076	32 d1		 xor	 dl, cl
  00078	88 55 ed	 mov	 BYTE PTR __k$[ebp+5], dl
  0007b	8a 50 06	 mov	 dl, BYTE PTR [eax+6]
  0007e	84 d2		 test	 dl, dl
  00080	0f 84 ec 00 00
	00		 je	 $LN90@LoadInt_e@2
  00086	80 f2 eb	 xor	 dl, -21			; ffffffebH
  00089	88 55 ee	 mov	 BYTE PTR __k$[ebp+6], dl
  0008c	8a 50 07	 mov	 dl, BYTE PTR [eax+7]
  0008f	84 d2		 test	 dl, dl
  00091	0f 84 d5 00 00
	00		 je	 $LN89@LoadInt_e@2
  00097	80 f2 ea	 xor	 dl, -22			; ffffffeaH
  0009a	88 55 ef	 mov	 BYTE PTR __k$[ebp+7], dl
  0009d	8a 50 08	 mov	 dl, BYTE PTR [eax+8]
  000a0	84 d2		 test	 dl, dl
  000a2	0f 84 be 00 00
	00		 je	 $LN88@LoadInt_e@2
  000a8	80 f2 ed	 xor	 dl, -19			; ffffffedH
  000ab	88 55 f0	 mov	 BYTE PTR __k$[ebp+8], dl
  000ae	8a 50 09	 mov	 dl, BYTE PTR [eax+9]
  000b1	84 d2		 test	 dl, dl
  000b3	0f 84 a8 00 00
	00		 je	 $LN87@LoadInt_e@2
  000b9	32 d1		 xor	 dl, cl
  000bb	88 55 f1	 mov	 BYTE PTR __k$[ebp+9], dl
  000be	8a 50 0a	 mov	 dl, BYTE PTR [eax+10]
  000c1	84 d2		 test	 dl, dl
  000c3	0f 84 92 00 00
	00		 je	 $LN86@LoadInt_e@2
  000c9	80 f2 eb	 xor	 dl, -21			; ffffffebH
  000cc	88 55 f2	 mov	 BYTE PTR __k$[ebp+10], dl
  000cf	8a 50 0b	 mov	 dl, BYTE PTR [eax+11]
  000d2	84 d2		 test	 dl, dl
  000d4	74 7f		 je	 SHORT $LN85@LoadInt_e@2
  000d6	80 f2 ea	 xor	 dl, -22			; ffffffeaH
  000d9	88 55 f3	 mov	 BYTE PTR __k$[ebp+11], dl
  000dc	8a 50 0c	 mov	 dl, BYTE PTR [eax+12]
  000df	84 d2		 test	 dl, dl
  000e1	74 6c		 je	 SHORT $LN84@LoadInt_e@2
  000e3	80 f2 ed	 xor	 dl, -19			; ffffffedH
  000e6	88 55 f4	 mov	 BYTE PTR __k$[ebp+12], dl
  000e9	8a 50 0d	 mov	 dl, BYTE PTR [eax+13]
  000ec	84 d2		 test	 dl, dl
  000ee	74 5a		 je	 SHORT $LN83@LoadInt_e@2
  000f0	32 d1		 xor	 dl, cl
  000f2	80 78 0e 00	 cmp	 BYTE PTR [eax+14], 0
  000f6	88 55 f5	 mov	 BYTE PTR __k$[ebp+13], dl
  000f9	0f 84 9a 00 00
	00		 je	 $LN1@LoadInt_e@2
  000ff	8a 50 0f	 mov	 dl, BYTE PTR [eax+15]
  00102	84 d2		 test	 dl, dl
  00104	74 3e		 je	 SHORT $LN81@LoadInt_e@2
  00106	80 f2 ea	 xor	 dl, -22			; ffffffeaH
  00109	88 55 f7	 mov	 BYTE PTR __k$[ebp+15], dl
  0010c	8a 50 10	 mov	 dl, BYTE PTR [eax+16]
  0010f	84 d2		 test	 dl, dl
  00111	74 2b		 je	 SHORT $LN80@LoadInt_e@2
  00113	80 f2 ed	 xor	 dl, -19			; ffffffedH
  00116	88 55 f8	 mov	 BYTE PTR __k$[ebp+16], dl
  00119	8a 50 11	 mov	 dl, BYTE PTR [eax+17]
  0011c	84 d2		 test	 dl, dl
  0011e	74 19		 je	 SHORT $LN79@LoadInt_e@2
  00120	8a 40 12	 mov	 al, BYTE PTR [eax+18]
  00123	32 d1		 xor	 dl, cl
  00125	88 55 f9	 mov	 BYTE PTR __k$[ebp+17], dl
  00128	84 c0		 test	 al, al
  0012a	74 07		 je	 SHORT $LN78@LoadInt_e@2
  0012c	34 eb		 xor	 al, -21			; ffffffebH
  0012e	88 45 fa	 mov	 BYTE PTR __k$[ebp+18], al
  00131	eb 66		 jmp	 SHORT $LN1@LoadInt_e@2
$LN78@LoadInt_e@2:
  00133	c6 45 fa eb	 mov	 BYTE PTR __k$[ebp+18], -21 ; ffffffebH
  00137	eb 60		 jmp	 SHORT $LN1@LoadInt_e@2
$LN79@LoadInt_e@2:
  00139	88 4d f9	 mov	 BYTE PTR __k$[ebp+17], cl
  0013c	eb 5b		 jmp	 SHORT $LN1@LoadInt_e@2
$LN80@LoadInt_e@2:
  0013e	c6 45 f8 ed	 mov	 BYTE PTR __k$[ebp+16], -19 ; ffffffedH
  00142	eb 55		 jmp	 SHORT $LN1@LoadInt_e@2
$LN81@LoadInt_e@2:
  00144	c6 45 f7 ea	 mov	 BYTE PTR __k$[ebp+15], -22 ; ffffffeaH
  00148	eb 4f		 jmp	 SHORT $LN1@LoadInt_e@2
$LN83@LoadInt_e@2:
  0014a	88 4d f5	 mov	 BYTE PTR __k$[ebp+13], cl
  0014d	eb 4a		 jmp	 SHORT $LN1@LoadInt_e@2
$LN84@LoadInt_e@2:
  0014f	c6 45 f4 ed	 mov	 BYTE PTR __k$[ebp+12], -19 ; ffffffedH
  00153	eb 44		 jmp	 SHORT $LN1@LoadInt_e@2
$LN85@LoadInt_e@2:
  00155	c6 45 f3 ea	 mov	 BYTE PTR __k$[ebp+11], -22 ; ffffffeaH
  00159	eb 3e		 jmp	 SHORT $LN1@LoadInt_e@2
$LN86@LoadInt_e@2:
  0015b	c6 45 f2 eb	 mov	 BYTE PTR __k$[ebp+10], -21 ; ffffffebH
  0015f	eb 38		 jmp	 SHORT $LN1@LoadInt_e@2
$LN87@LoadInt_e@2:
  00161	88 4d f1	 mov	 BYTE PTR __k$[ebp+9], cl
  00164	eb 33		 jmp	 SHORT $LN1@LoadInt_e@2
$LN88@LoadInt_e@2:
  00166	c6 45 f0 ed	 mov	 BYTE PTR __k$[ebp+8], -19 ; ffffffedH
  0016a	eb 2d		 jmp	 SHORT $LN1@LoadInt_e@2
$LN89@LoadInt_e@2:
  0016c	c6 45 ef ea	 mov	 BYTE PTR __k$[ebp+7], -22 ; ffffffeaH
  00170	eb 27		 jmp	 SHORT $LN1@LoadInt_e@2
$LN90@LoadInt_e@2:
  00172	c6 45 ee eb	 mov	 BYTE PTR __k$[ebp+6], -21 ; ffffffebH
  00176	eb 21		 jmp	 SHORT $LN1@LoadInt_e@2
$LN91@LoadInt_e@2:
  00178	88 4d ed	 mov	 BYTE PTR __k$[ebp+5], cl
  0017b	eb 1c		 jmp	 SHORT $LN1@LoadInt_e@2
$LN92@LoadInt_e@2:
  0017d	c6 45 ec ed	 mov	 BYTE PTR __k$[ebp+4], -19 ; ffffffedH
  00181	eb 16		 jmp	 SHORT $LN1@LoadInt_e@2
$LN93@LoadInt_e@2:
  00183	c6 45 eb ea	 mov	 BYTE PTR __k$[ebp+3], -22 ; ffffffeaH
  00187	eb 10		 jmp	 SHORT $LN1@LoadInt_e@2
$LN94@LoadInt_e@2:
  00189	c6 45 ea eb	 mov	 BYTE PTR __k$[ebp+2], -21 ; ffffffebH
  0018d	eb 0a		 jmp	 SHORT $LN1@LoadInt_e@2
$LN95@LoadInt_e@2:
  0018f	c6 45 e9 ec	 mov	 BYTE PTR __k$[ebp+1], -20 ; ffffffecH
  00193	eb 04		 jmp	 SHORT $LN1@LoadInt_e@2
$LN96@LoadInt_e@2:
  00195	c6 45 e8 ed	 mov	 BYTE PTR __k$[ebp], -19	; ffffffedH
$LN1@LoadInt_e@2:
  00199	6a 03		 push	 3
  0019b	8d 45 e8	 lea	 eax, DWORD PTR __k$[ebp]
  0019e	c6 45 f6 00	 mov	 BYTE PTR __k$[ebp+14], 0
  001a2	5a		 pop	 edx
$LL104@LoadInt_e@2:
  001a3	81 30 ed ec eb
	ea		 xor	 DWORD PTR [eax], -353637139 ; eaebecedH
  001a9	83 c0 04	 add	 eax, 4
  001ac	4a		 dec	 edx
  001ad	75 f4		 jne	 SHORT $LL104@LoadInt_e@2
  001af	6a 0c		 push	 12			; 0000000cH
  001b1	58		 pop	 eax
$LL101@LoadInt_e@2:
  001b2	8b c8		 mov	 ecx, eax
  001b4	81 e1 03 00 00
	80		 and	 ecx, -2147483645	; 80000003H
  001ba	79 05		 jns	 SHORT $LN111@LoadInt_e@2
  001bc	49		 dec	 ecx
  001bd	83 c9 fc	 or	 ecx, -4			; fffffffcH
  001c0	41		 inc	 ecx
$LN111@LoadInt_e@2:
  001c1	b2 ed		 mov	 dl, -19			; ffffffedH
  001c3	2a d1		 sub	 dl, cl
  001c5	30 54 05 e8	 xor	 BYTE PTR __k$[ebp+eax], dl
  001c9	40		 inc	 eax
  001ca	83 f8 0e	 cmp	 eax, 14			; 0000000eH
  001cd	7c e3		 jl	 SHORT $LL101@LoadInt_e@2

; 120  : 		return LoadInt(_k, i);

  001cf	ff 75 0c	 push	 DWORD PTR _i$[ebp]
  001d2	8d 45 e8	 lea	 eax, DWORD PTR __k$[ebp]
  001d5	50		 push	 eax
  001d6	8b ce		 mov	 ecx, esi
  001d8	ff 15 00 00 00
	00		 call	 DWORD PTR __imp_?LoadInt@ioINILoader@@QAEHPBDH@Z

; 121  : 	}

  001de	8b 4d fc	 mov	 ecx, DWORD PTR __$ArrayPad$[ebp]
  001e1	33 cd		 xor	 ecx, ebp
  001e3	5e		 pop	 esi
  001e4	e8 00 00 00 00	 call	 @__security_check_cookie@4
  001e9	c9		 leave
  001ea	c2 08 00	 ret	 8
??$LoadInt_e@$0P@@ioINILoader@@QAEHAAY0P@$$CBDH@Z ENDP	; ioINILoader::LoadInt_e<15>
_TEXT	ENDS
PUBLIC	__$ArrayPad$
PUBLIC	??$LoadString_e@$05@ioINILoader@@QAEXAAY05$$CBDAAY00$$CBDPADH@Z ; ioINILoader::LoadString_e<6>
EXTRN	__imp_?LoadStringA@ioINILoader@@QAEXPBD0PADH@Z:PROC
; Function compile flags: /Ogsp
;	COMDAT ??$LoadString_e@$05@ioINILoader@@QAEXAAY05$$CBDAAY00$$CBDPADH@Z
_TEXT	SEGMENT
__k$ = -16						; size = 6
__$ArrayPad$ = -4					; size = 4
_k$ = 8							; size = 4
_d$ = 12						; size = 4
_b$ = 16						; size = 4
_i$ = 20						; size = 4
??$LoadString_e@$05@ioINILoader@@QAEXAAY05$$CBDAAY00$$CBDPADH@Z PROC ; ioINILoader::LoadString_e<6>, COMDAT
; _this$ = ecx

; 161  : 	{

  00000	55		 push	 ebp
  00001	8b ec		 mov	 ebp, esp
  00003	83 ec 10	 sub	 esp, 16			; 00000010H
  00006	a1 00 00 00 00	 mov	 eax, DWORD PTR ___security_cookie
  0000b	33 c5		 xor	 eax, ebp
  0000d	89 45 fc	 mov	 DWORD PTR __$ArrayPad$[ebp], eax
  00010	8b 45 08	 mov	 eax, DWORD PTR _k$[ebp]

; 162  : 		_ENCSTR(k, _k);

  00013	8a 10		 mov	 dl, BYTE PTR [eax]
  00015	56		 push	 esi
  00016	8b 75 0c	 mov	 esi, DWORD PTR _d$[ebp]
  00019	57		 push	 edi
  0001a	8b 7d 10	 mov	 edi, DWORD PTR _b$[ebp]
  0001d	84 d2		 test	 dl, dl
  0001f	0f 84 a9 00 00
	00		 je	 $LN96@LoadString
  00025	80 f2 ed	 xor	 dl, -19			; ffffffedH
  00028	88 55 f0	 mov	 BYTE PTR __k$[ebp], dl
  0002b	8a 50 01	 mov	 dl, BYTE PTR [eax+1]
  0002e	84 d2		 test	 dl, dl
  00030	0f 84 92 00 00
	00		 je	 $LN95@LoadString
  00036	80 f2 ec	 xor	 dl, -20			; ffffffecH
  00039	88 55 f1	 mov	 BYTE PTR __k$[ebp+1], dl
  0003c	8a 50 02	 mov	 dl, BYTE PTR [eax+2]
  0003f	84 d2		 test	 dl, dl
  00041	74 7f		 je	 SHORT $LN94@LoadString
  00043	80 f2 eb	 xor	 dl, -21			; ffffffebH
  00046	88 55 f2	 mov	 BYTE PTR __k$[ebp+2], dl
  00049	8a 50 03	 mov	 dl, BYTE PTR [eax+3]
  0004c	84 d2		 test	 dl, dl
  0004e	74 6c		 je	 SHORT $LN93@LoadString
  00050	80 f2 ea	 xor	 dl, -22			; ffffffeaH
  00053	88 55 f3	 mov	 BYTE PTR __k$[ebp+3], dl
  00056	8a 50 04	 mov	 dl, BYTE PTR [eax+4]
  00059	84 d2		 test	 dl, dl
  0005b	74 59		 je	 SHORT $LN92@LoadString
  0005d	80 f2 ed	 xor	 dl, -19			; ffffffedH
  00060	80 78 05 00	 cmp	 BYTE PTR [eax+5], 0
  00064	88 55 f4	 mov	 BYTE PTR __k$[ebp+4], dl
  00067	74 69		 je	 SHORT $LN1@LoadString
  00069	8a 50 06	 mov	 dl, BYTE PTR [eax+6]
  0006c	84 d2		 test	 dl, dl
  0006e	74 40		 je	 SHORT $LN90@LoadString
  00070	80 f2 eb	 xor	 dl, -21			; ffffffebH
  00073	88 55 f6	 mov	 BYTE PTR __k$[ebp+6], dl
  00076	8a 50 07	 mov	 dl, BYTE PTR [eax+7]
  00079	84 d2		 test	 dl, dl
  0007b	74 2d		 je	 SHORT $LN89@LoadString
  0007d	80 f2 ea	 xor	 dl, -22			; ffffffeaH
  00080	88 55 f7	 mov	 BYTE PTR __k$[ebp+7], dl
  00083	8a 50 08	 mov	 dl, BYTE PTR [eax+8]
  00086	84 d2		 test	 dl, dl
  00088	74 1a		 je	 SHORT $LN88@LoadString
  0008a	8a 40 09	 mov	 al, BYTE PTR [eax+9]
  0008d	80 f2 ed	 xor	 dl, -19			; ffffffedH
  00090	88 55 f8	 mov	 BYTE PTR __k$[ebp+8], dl
  00093	84 c0		 test	 al, al
  00095	74 07		 je	 SHORT $LN87@LoadString
  00097	34 ec		 xor	 al, -20			; ffffffecH
  00099	88 45 f9	 mov	 BYTE PTR __k$[ebp+9], al
  0009c	eb 34		 jmp	 SHORT $LN1@LoadString
$LN87@LoadString:
  0009e	c6 45 f9 ec	 mov	 BYTE PTR __k$[ebp+9], -20 ; ffffffecH
  000a2	eb 2e		 jmp	 SHORT $LN1@LoadString
$LN88@LoadString:
  000a4	c6 45 f8 ed	 mov	 BYTE PTR __k$[ebp+8], -19 ; ffffffedH
  000a8	eb 28		 jmp	 SHORT $LN1@LoadString
$LN89@LoadString:
  000aa	c6 45 f7 ea	 mov	 BYTE PTR __k$[ebp+7], -22 ; ffffffeaH
  000ae	eb 22		 jmp	 SHORT $LN1@LoadString
$LN90@LoadString:
  000b0	c6 45 f6 eb	 mov	 BYTE PTR __k$[ebp+6], -21 ; ffffffebH
  000b4	eb 1c		 jmp	 SHORT $LN1@LoadString
$LN92@LoadString:
  000b6	c6 45 f4 ed	 mov	 BYTE PTR __k$[ebp+4], -19 ; ffffffedH
  000ba	eb 16		 jmp	 SHORT $LN1@LoadString
$LN93@LoadString:
  000bc	c6 45 f3 ea	 mov	 BYTE PTR __k$[ebp+3], -22 ; ffffffeaH
  000c0	eb 10		 jmp	 SHORT $LN1@LoadString
$LN94@LoadString:
  000c2	c6 45 f2 eb	 mov	 BYTE PTR __k$[ebp+2], -21 ; ffffffebH
  000c6	eb 0a		 jmp	 SHORT $LN1@LoadString
$LN95@LoadString:
  000c8	c6 45 f1 ec	 mov	 BYTE PTR __k$[ebp+1], -20 ; ffffffecH
  000cc	eb 04		 jmp	 SHORT $LN1@LoadString
$LN96@LoadString:
  000ce	c6 45 f0 ed	 mov	 BYTE PTR __k$[ebp], -19	; ffffffedH
$LN1@LoadString:

; 163  : 		LoadString(_k, d, b, i);

  000d2	ff 75 14	 push	 DWORD PTR _i$[ebp]
  000d5	81 75 f0 ed ec
	eb ea		 xor	 DWORD PTR __k$[ebp], -353637139 ; eaebecedH
  000dc	80 75 f4 ed	 xor	 BYTE PTR __k$[ebp+4], -19 ; ffffffedH
  000e0	57		 push	 edi
  000e1	56		 push	 esi
  000e2	8d 45 f0	 lea	 eax, DWORD PTR __k$[ebp]
  000e5	50		 push	 eax
  000e6	c6 45 f5 00	 mov	 BYTE PTR __k$[ebp+5], 0
  000ea	ff 15 00 00 00
	00		 call	 DWORD PTR __imp_?LoadStringA@ioINILoader@@QAEXPBD0PADH@Z

; 164  : 	}

  000f0	8b 4d fc	 mov	 ecx, DWORD PTR __$ArrayPad$[ebp]
  000f3	5f		 pop	 edi
  000f4	33 cd		 xor	 ecx, ebp
  000f6	5e		 pop	 esi
  000f7	e8 00 00 00 00	 call	 @__security_check_cookie@4
  000fc	c9		 leave
  000fd	c2 10 00	 ret	 16			; 00000010H
??$LoadString_e@$05@ioINILoader@@QAEXAAY05$$CBDAAY00$$CBDPADH@Z ENDP ; ioINILoader::LoadString_e<6>
_TEXT	ENDS
PUBLIC	__$ArrayPad$
PUBLIC	??$SetTitle_e@$0N@@ioINILoader@@QAEXAAY0N@$$CBD@Z ; ioINILoader::SetTitle_e<13>
EXTRN	__imp_?SetTitle@ioINILoader@@QAEXPBD@Z:PROC
; Function compile flags: /Ogsp
;	COMDAT ??$SetTitle_e@$0N@@ioINILoader@@QAEXAAY0N@$$CBD@Z
_TEXT	SEGMENT
__t$ = -24						; size = 13
__$ArrayPad$ = -4					; size = 4
_t$ = 8							; size = 4
??$SetTitle_e@$0N@@ioINILoader@@QAEXAAY0N@$$CBD@Z PROC	; ioINILoader::SetTitle_e<13>, COMDAT
; _this$ = ecx

; 188  : 	{

  00000	55		 push	 ebp
  00001	8b ec		 mov	 ebp, esp
  00003	83 ec 18	 sub	 esp, 24			; 00000018H
  00006	a1 00 00 00 00	 mov	 eax, DWORD PTR ___security_cookie
  0000b	33 c5		 xor	 eax, ebp
  0000d	89 45 fc	 mov	 DWORD PTR __$ArrayPad$[ebp], eax
  00010	8b 45 08	 mov	 eax, DWORD PTR _t$[ebp]

; 189  : 		_ENCSTR(t, _t);

  00013	8a 10		 mov	 dl, BYTE PTR [eax]
  00015	56		 push	 esi
  00016	8b f1		 mov	 esi, ecx
  00018	84 d2		 test	 dl, dl
  0001a	0f 84 4d 01 00
	00		 je	 $LN96@SetTitle_e
  00020	80 f2 ed	 xor	 dl, -19			; ffffffedH
  00023	88 55 e8	 mov	 BYTE PTR __t$[ebp], dl
  00026	8a 50 01	 mov	 dl, BYTE PTR [eax+1]
  00029	84 d2		 test	 dl, dl
  0002b	0f 84 36 01 00
	00		 je	 $LN95@SetTitle_e
  00031	b1 ec		 mov	 cl, -20			; ffffffecH
  00033	32 d1		 xor	 dl, cl
  00035	88 55 e9	 mov	 BYTE PTR __t$[ebp+1], dl
  00038	8a 50 02	 mov	 dl, BYTE PTR [eax+2]
  0003b	84 d2		 test	 dl, dl
  0003d	0f 84 1e 01 00
	00		 je	 $LN94@SetTitle_e
  00043	80 f2 eb	 xor	 dl, -21			; ffffffebH
  00046	88 55 ea	 mov	 BYTE PTR __t$[ebp+2], dl
  00049	8a 50 03	 mov	 dl, BYTE PTR [eax+3]
  0004c	84 d2		 test	 dl, dl
  0004e	0f 84 07 01 00
	00		 je	 $LN93@SetTitle_e
  00054	80 f2 ea	 xor	 dl, -22			; ffffffeaH
  00057	88 55 eb	 mov	 BYTE PTR __t$[ebp+3], dl
  0005a	8a 50 04	 mov	 dl, BYTE PTR [eax+4]
  0005d	84 d2		 test	 dl, dl
  0005f	0f 84 f0 00 00
	00		 je	 $LN92@SetTitle_e
  00065	80 f2 ed	 xor	 dl, -19			; ffffffedH
  00068	88 55 ec	 mov	 BYTE PTR __t$[ebp+4], dl
  0006b	8a 50 05	 mov	 dl, BYTE PTR [eax+5]
  0006e	84 d2		 test	 dl, dl
  00070	0f 84 da 00 00
	00		 je	 $LN91@SetTitle_e
  00076	32 d1		 xor	 dl, cl
  00078	88 55 ed	 mov	 BYTE PTR __t$[ebp+5], dl
  0007b	8a 50 06	 mov	 dl, BYTE PTR [eax+6]
  0007e	84 d2		 test	 dl, dl
  00080	0f 84 c4 00 00
	00		 je	 $LN90@SetTitle_e
  00086	80 f2 eb	 xor	 dl, -21			; ffffffebH
  00089	88 55 ee	 mov	 BYTE PTR __t$[ebp+6], dl
  0008c	8a 50 07	 mov	 dl, BYTE PTR [eax+7]
  0008f	84 d2		 test	 dl, dl
  00091	0f 84 ad 00 00
	00		 je	 $LN89@SetTitle_e
  00097	80 f2 ea	 xor	 dl, -22			; ffffffeaH
  0009a	88 55 ef	 mov	 BYTE PTR __t$[ebp+7], dl
  0009d	8a 50 08	 mov	 dl, BYTE PTR [eax+8]
  000a0	84 d2		 test	 dl, dl
  000a2	0f 84 96 00 00
	00		 je	 $LN88@SetTitle_e
  000a8	80 f2 ed	 xor	 dl, -19			; ffffffedH
  000ab	88 55 f0	 mov	 BYTE PTR __t$[ebp+8], dl
  000ae	8a 50 09	 mov	 dl, BYTE PTR [eax+9]
  000b1	84 d2		 test	 dl, dl
  000b3	0f 84 80 00 00
	00		 je	 $LN87@SetTitle_e
  000b9	32 d1		 xor	 dl, cl
  000bb	88 55 f1	 mov	 BYTE PTR __t$[ebp+9], dl
  000be	8a 50 0a	 mov	 dl, BYTE PTR [eax+10]
  000c1	84 d2		 test	 dl, dl
  000c3	74 6e		 je	 SHORT $LN86@SetTitle_e
  000c5	80 f2 eb	 xor	 dl, -21			; ffffffebH
  000c8	88 55 f2	 mov	 BYTE PTR __t$[ebp+10], dl
  000cb	8a 50 0b	 mov	 dl, BYTE PTR [eax+11]
  000ce	84 d2		 test	 dl, dl
  000d0	74 5b		 je	 SHORT $LN85@SetTitle_e
  000d2	80 f2 ea	 xor	 dl, -22			; ffffffeaH
  000d5	80 78 0c 00	 cmp	 BYTE PTR [eax+12], 0
  000d9	88 55 f3	 mov	 BYTE PTR __t$[ebp+11], dl
  000dc	0f 84 8f 00 00
	00		 je	 $LN1@SetTitle_e
  000e2	8a 50 0d	 mov	 dl, BYTE PTR [eax+13]
  000e5	84 d2		 test	 dl, dl
  000e7	74 3f		 je	 SHORT $LN83@SetTitle_e
  000e9	32 d1		 xor	 dl, cl
  000eb	88 55 f5	 mov	 BYTE PTR __t$[ebp+13], dl
  000ee	8a 50 0e	 mov	 dl, BYTE PTR [eax+14]
  000f1	84 d2		 test	 dl, dl
  000f3	74 2d		 je	 SHORT $LN82@SetTitle_e
  000f5	80 f2 eb	 xor	 dl, -21			; ffffffebH
  000f8	88 55 f6	 mov	 BYTE PTR __t$[ebp+14], dl
  000fb	8a 50 0f	 mov	 dl, BYTE PTR [eax+15]
  000fe	84 d2		 test	 dl, dl
  00100	74 1a		 je	 SHORT $LN81@SetTitle_e
  00102	8a 40 10	 mov	 al, BYTE PTR [eax+16]
  00105	80 f2 ea	 xor	 dl, -22			; ffffffeaH
  00108	88 55 f7	 mov	 BYTE PTR __t$[ebp+15], dl
  0010b	84 c0		 test	 al, al
  0010d	74 07		 je	 SHORT $LN80@SetTitle_e
  0010f	34 ed		 xor	 al, -19			; ffffffedH
  00111	88 45 f8	 mov	 BYTE PTR __t$[ebp+16], al
  00114	eb 5b		 jmp	 SHORT $LN1@SetTitle_e
$LN80@SetTitle_e:
  00116	c6 45 f8 ed	 mov	 BYTE PTR __t$[ebp+16], -19 ; ffffffedH
  0011a	eb 55		 jmp	 SHORT $LN1@SetTitle_e
$LN81@SetTitle_e:
  0011c	c6 45 f7 ea	 mov	 BYTE PTR __t$[ebp+15], -22 ; ffffffeaH
  00120	eb 4f		 jmp	 SHORT $LN1@SetTitle_e
$LN82@SetTitle_e:
  00122	c6 45 f6 eb	 mov	 BYTE PTR __t$[ebp+14], -21 ; ffffffebH
  00126	eb 49		 jmp	 SHORT $LN1@SetTitle_e
$LN83@SetTitle_e:
  00128	88 4d f5	 mov	 BYTE PTR __t$[ebp+13], cl
  0012b	eb 44		 jmp	 SHORT $LN1@SetTitle_e
$LN85@SetTitle_e:
  0012d	c6 45 f3 ea	 mov	 BYTE PTR __t$[ebp+11], -22 ; ffffffeaH
  00131	eb 3e		 jmp	 SHORT $LN1@SetTitle_e
$LN86@SetTitle_e:
  00133	c6 45 f2 eb	 mov	 BYTE PTR __t$[ebp+10], -21 ; ffffffebH
  00137	eb 38		 jmp	 SHORT $LN1@SetTitle_e
$LN87@SetTitle_e:
  00139	88 4d f1	 mov	 BYTE PTR __t$[ebp+9], cl
  0013c	eb 33		 jmp	 SHORT $LN1@SetTitle_e
$LN88@SetTitle_e:
  0013e	c6 45 f0 ed	 mov	 BYTE PTR __t$[ebp+8], -19 ; ffffffedH
  00142	eb 2d		 jmp	 SHORT $LN1@SetTitle_e
$LN89@SetTitle_e:
  00144	c6 45 ef ea	 mov	 BYTE PTR __t$[ebp+7], -22 ; ffffffeaH
  00148	eb 27		 jmp	 SHORT $LN1@SetTitle_e
$LN90@SetTitle_e:
  0014a	c6 45 ee eb	 mov	 BYTE PTR __t$[ebp+6], -21 ; ffffffebH
  0014e	eb 21		 jmp	 SHORT $LN1@SetTitle_e
$LN91@SetTitle_e:
  00150	88 4d ed	 mov	 BYTE PTR __t$[ebp+5], cl
  00153	eb 1c		 jmp	 SHORT $LN1@SetTitle_e
$LN92@SetTitle_e:
  00155	c6 45 ec ed	 mov	 BYTE PTR __t$[ebp+4], -19 ; ffffffedH
  00159	eb 16		 jmp	 SHORT $LN1@SetTitle_e
$LN93@SetTitle_e:
  0015b	c6 45 eb ea	 mov	 BYTE PTR __t$[ebp+3], -22 ; ffffffeaH
  0015f	eb 10		 jmp	 SHORT $LN1@SetTitle_e
$LN94@SetTitle_e:
  00161	c6 45 ea eb	 mov	 BYTE PTR __t$[ebp+2], -21 ; ffffffebH
  00165	eb 0a		 jmp	 SHORT $LN1@SetTitle_e
$LN95@SetTitle_e:
  00167	c6 45 e9 ec	 mov	 BYTE PTR __t$[ebp+1], -20 ; ffffffecH
  0016b	eb 04		 jmp	 SHORT $LN1@SetTitle_e
$LN96@SetTitle_e:
  0016d	c6 45 e8 ed	 mov	 BYTE PTR __t$[ebp], -19	; ffffffedH
$LN1@SetTitle_e:
  00171	6a 03		 push	 3
  00173	8d 45 e8	 lea	 eax, DWORD PTR __t$[ebp]
  00176	c6 45 f4 00	 mov	 BYTE PTR __t$[ebp+12], 0
  0017a	5a		 pop	 edx
$LL104@SetTitle_e:
  0017b	81 30 ed ec eb
	ea		 xor	 DWORD PTR [eax], -353637139 ; eaebecedH
  00181	83 c0 04	 add	 eax, 4
  00184	4a		 dec	 edx
  00185	75 f4		 jne	 SHORT $LL104@SetTitle_e

; 190  : 		SetTitle(_t);

  00187	8d 45 e8	 lea	 eax, DWORD PTR __t$[ebp]
  0018a	50		 push	 eax
  0018b	8b ce		 mov	 ecx, esi
  0018d	ff 15 00 00 00
	00		 call	 DWORD PTR __imp_?SetTitle@ioINILoader@@QAEXPBD@Z

; 191  : 	}

  00193	8b 4d fc	 mov	 ecx, DWORD PTR __$ArrayPad$[ebp]
  00196	33 cd		 xor	 ecx, ebp
  00198	5e		 pop	 esi
  00199	e8 00 00 00 00	 call	 @__security_check_cookie@4
  0019e	c9		 leave
  0019f	c2 04 00	 ret	 4
??$SetTitle_e@$0N@@ioINILoader@@QAEXAAY0N@$$CBD@Z ENDP	; ioINILoader::SetTitle_e<13>
_TEXT	ENDS
PUBLIC	__$ArrayPad$
PUBLIC	??$LoadInt_e@$0L@@ioINILoader@@QAEHAAY0L@$$CBDH@Z ; ioINILoader::LoadInt_e<11>
; Function compile flags: /Ogsp
;	COMDAT ??$LoadInt_e@$0L@@ioINILoader@@QAEHAAY0L@$$CBDH@Z
_TEXT	SEGMENT
__k$ = -20						; size = 11
__$ArrayPad$ = -4					; size = 4
_k$ = 8							; size = 4
_i$ = 12						; size = 4
??$LoadInt_e@$0L@@ioINILoader@@QAEHAAY0L@$$CBDH@Z PROC	; ioINILoader::LoadInt_e<11>, COMDAT
; _this$ = ecx

; 118  : 	{

  00000	55		 push	 ebp
  00001	8b ec		 mov	 ebp, esp
  00003	83 ec 14	 sub	 esp, 20			; 00000014H
  00006	a1 00 00 00 00	 mov	 eax, DWORD PTR ___security_cookie
  0000b	33 c5		 xor	 eax, ebp
  0000d	89 45 fc	 mov	 DWORD PTR __$ArrayPad$[ebp], eax
  00010	8b 45 08	 mov	 eax, DWORD PTR _k$[ebp]

; 119  : 		_ENCSTR(k, _k);

  00013	8a 10		 mov	 dl, BYTE PTR [eax]
  00015	56		 push	 esi
  00016	8b f1		 mov	 esi, ecx
  00018	84 d2		 test	 dl, dl
  0001a	0f 84 24 01 00
	00		 je	 $LN96@LoadInt_e@3
  00020	80 f2 ed	 xor	 dl, -19			; ffffffedH
  00023	88 55 ec	 mov	 BYTE PTR __k$[ebp], dl
  00026	8a 50 01	 mov	 dl, BYTE PTR [eax+1]
  00029	84 d2		 test	 dl, dl
  0002b	0f 84 0d 01 00
	00		 je	 $LN95@LoadInt_e@3
  00031	80 f2 ec	 xor	 dl, -20			; ffffffecH
  00034	88 55 ed	 mov	 BYTE PTR __k$[ebp+1], dl
  00037	8a 50 02	 mov	 dl, BYTE PTR [eax+2]
  0003a	84 d2		 test	 dl, dl
  0003c	0f 84 f6 00 00
	00		 je	 $LN94@LoadInt_e@3
  00042	80 f2 eb	 xor	 dl, -21			; ffffffebH
  00045	88 55 ee	 mov	 BYTE PTR __k$[ebp+2], dl
  00048	8a 50 03	 mov	 dl, BYTE PTR [eax+3]
  0004b	84 d2		 test	 dl, dl
  0004d	0f 84 df 00 00
	00		 je	 $LN93@LoadInt_e@3
  00053	80 f2 ea	 xor	 dl, -22			; ffffffeaH
  00056	88 55 ef	 mov	 BYTE PTR __k$[ebp+3], dl
  00059	8a 50 04	 mov	 dl, BYTE PTR [eax+4]
  0005c	84 d2		 test	 dl, dl
  0005e	0f 84 c8 00 00
	00		 je	 $LN92@LoadInt_e@3
  00064	80 f2 ed	 xor	 dl, -19			; ffffffedH
  00067	88 55 f0	 mov	 BYTE PTR __k$[ebp+4], dl
  0006a	8a 50 05	 mov	 dl, BYTE PTR [eax+5]
  0006d	84 d2		 test	 dl, dl
  0006f	0f 84 b1 00 00
	00		 je	 $LN91@LoadInt_e@3
  00075	80 f2 ec	 xor	 dl, -20			; ffffffecH
  00078	88 55 f1	 mov	 BYTE PTR __k$[ebp+5], dl
  0007b	8a 50 06	 mov	 dl, BYTE PTR [eax+6]
  0007e	84 d2		 test	 dl, dl
  00080	0f 84 9a 00 00
	00		 je	 $LN90@LoadInt_e@3
  00086	80 f2 eb	 xor	 dl, -21			; ffffffebH
  00089	88 55 f2	 mov	 BYTE PTR __k$[ebp+6], dl
  0008c	8a 50 07	 mov	 dl, BYTE PTR [eax+7]
  0008f	84 d2		 test	 dl, dl
  00091	0f 84 83 00 00
	00		 je	 $LN89@LoadInt_e@3
  00097	80 f2 ea	 xor	 dl, -22			; ffffffeaH
  0009a	88 55 f3	 mov	 BYTE PTR __k$[ebp+7], dl
  0009d	8a 50 08	 mov	 dl, BYTE PTR [eax+8]
  000a0	84 d2		 test	 dl, dl
  000a2	74 70		 je	 SHORT $LN88@LoadInt_e@3
  000a4	80 f2 ed	 xor	 dl, -19			; ffffffedH
  000a7	88 55 f4	 mov	 BYTE PTR __k$[ebp+8], dl
  000aa	8a 50 09	 mov	 dl, BYTE PTR [eax+9]
  000ad	84 d2		 test	 dl, dl
  000af	74 5d		 je	 SHORT $LN87@LoadInt_e@3
  000b1	80 f2 ec	 xor	 dl, -20			; ffffffecH
  000b4	80 78 0a 00	 cmp	 BYTE PTR [eax+10], 0
  000b8	88 55 f5	 mov	 BYTE PTR __k$[ebp+9], dl
  000bb	0f 84 87 00 00
	00		 je	 $LN1@LoadInt_e@3
  000c1	8a 50 0b	 mov	 dl, BYTE PTR [eax+11]
  000c4	84 d2		 test	 dl, dl
  000c6	74 40		 je	 SHORT $LN85@LoadInt_e@3
  000c8	80 f2 ea	 xor	 dl, -22			; ffffffeaH
  000cb	88 55 f7	 mov	 BYTE PTR __k$[ebp+11], dl
  000ce	8a 50 0c	 mov	 dl, BYTE PTR [eax+12]
  000d1	84 d2		 test	 dl, dl
  000d3	74 2d		 je	 SHORT $LN84@LoadInt_e@3
  000d5	80 f2 ed	 xor	 dl, -19			; ffffffedH
  000d8	88 55 f8	 mov	 BYTE PTR __k$[ebp+12], dl
  000db	8a 50 0d	 mov	 dl, BYTE PTR [eax+13]
  000de	84 d2		 test	 dl, dl
  000e0	74 1a		 je	 SHORT $LN83@LoadInt_e@3
  000e2	8a 40 0e	 mov	 al, BYTE PTR [eax+14]
  000e5	80 f2 ec	 xor	 dl, -20			; ffffffecH
  000e8	88 55 f9	 mov	 BYTE PTR __k$[ebp+13], dl
  000eb	84 c0		 test	 al, al
  000ed	74 07		 je	 SHORT $LN82@LoadInt_e@3
  000ef	34 eb		 xor	 al, -21			; ffffffebH
  000f1	88 45 fa	 mov	 BYTE PTR __k$[ebp+14], al
  000f4	eb 52		 jmp	 SHORT $LN1@LoadInt_e@3
$LN82@LoadInt_e@3:
  000f6	c6 45 fa eb	 mov	 BYTE PTR __k$[ebp+14], -21 ; ffffffebH
  000fa	eb 4c		 jmp	 SHORT $LN1@LoadInt_e@3
$LN83@LoadInt_e@3:
  000fc	c6 45 f9 ec	 mov	 BYTE PTR __k$[ebp+13], -20 ; ffffffecH
  00100	eb 46		 jmp	 SHORT $LN1@LoadInt_e@3
$LN84@LoadInt_e@3:
  00102	c6 45 f8 ed	 mov	 BYTE PTR __k$[ebp+12], -19 ; ffffffedH
  00106	eb 40		 jmp	 SHORT $LN1@LoadInt_e@3
$LN85@LoadInt_e@3:
  00108	c6 45 f7 ea	 mov	 BYTE PTR __k$[ebp+11], -22 ; ffffffeaH
  0010c	eb 3a		 jmp	 SHORT $LN1@LoadInt_e@3
$LN87@LoadInt_e@3:
  0010e	c6 45 f5 ec	 mov	 BYTE PTR __k$[ebp+9], -20 ; ffffffecH
  00112	eb 34		 jmp	 SHORT $LN1@LoadInt_e@3
$LN88@LoadInt_e@3:
  00114	c6 45 f4 ed	 mov	 BYTE PTR __k$[ebp+8], -19 ; ffffffedH
  00118	eb 2e		 jmp	 SHORT $LN1@LoadInt_e@3
$LN89@LoadInt_e@3:
  0011a	c6 45 f3 ea	 mov	 BYTE PTR __k$[ebp+7], -22 ; ffffffeaH
  0011e	eb 28		 jmp	 SHORT $LN1@LoadInt_e@3
$LN90@LoadInt_e@3:
  00120	c6 45 f2 eb	 mov	 BYTE PTR __k$[ebp+6], -21 ; ffffffebH
  00124	eb 22		 jmp	 SHORT $LN1@LoadInt_e@3
$LN91@LoadInt_e@3:
  00126	c6 45 f1 ec	 mov	 BYTE PTR __k$[ebp+5], -20 ; ffffffecH
  0012a	eb 1c		 jmp	 SHORT $LN1@LoadInt_e@3
$LN92@LoadInt_e@3:
  0012c	c6 45 f0 ed	 mov	 BYTE PTR __k$[ebp+4], -19 ; ffffffedH
  00130	eb 16		 jmp	 SHORT $LN1@LoadInt_e@3
$LN93@LoadInt_e@3:
  00132	c6 45 ef ea	 mov	 BYTE PTR __k$[ebp+3], -22 ; ffffffeaH
  00136	eb 10		 jmp	 SHORT $LN1@LoadInt_e@3
$LN94@LoadInt_e@3:
  00138	c6 45 ee eb	 mov	 BYTE PTR __k$[ebp+2], -21 ; ffffffebH
  0013c	eb 0a		 jmp	 SHORT $LN1@LoadInt_e@3
$LN95@LoadInt_e@3:
  0013e	c6 45 ed ec	 mov	 BYTE PTR __k$[ebp+1], -20 ; ffffffecH
  00142	eb 04		 jmp	 SHORT $LN1@LoadInt_e@3
$LN96@LoadInt_e@3:
  00144	c6 45 ec ed	 mov	 BYTE PTR __k$[ebp], -19	; ffffffedH
$LN1@LoadInt_e@3:
  00148	6a 02		 push	 2
  0014a	8d 45 ec	 lea	 eax, DWORD PTR __k$[ebp]
  0014d	c6 45 f6 00	 mov	 BYTE PTR __k$[ebp+10], 0
  00151	5a		 pop	 edx
$LL104@LoadInt_e@3:
  00152	81 30 ed ec eb
	ea		 xor	 DWORD PTR [eax], -353637139 ; eaebecedH
  00158	83 c0 04	 add	 eax, 4
  0015b	4a		 dec	 edx
  0015c	75 f4		 jne	 SHORT $LL104@LoadInt_e@3
  0015e	6a 08		 push	 8
  00160	58		 pop	 eax
$LL101@LoadInt_e@3:
  00161	8b c8		 mov	 ecx, eax
  00163	81 e1 03 00 00
	80		 and	 ecx, -2147483645	; 80000003H
  00169	79 05		 jns	 SHORT $LN111@LoadInt_e@3
  0016b	49		 dec	 ecx
  0016c	83 c9 fc	 or	 ecx, -4			; fffffffcH
  0016f	41		 inc	 ecx
$LN111@LoadInt_e@3:
  00170	b2 ed		 mov	 dl, -19			; ffffffedH
  00172	2a d1		 sub	 dl, cl
  00174	30 54 05 ec	 xor	 BYTE PTR __k$[ebp+eax], dl
  00178	40		 inc	 eax
  00179	83 f8 0a	 cmp	 eax, 10			; 0000000aH
  0017c	7c e3		 jl	 SHORT $LL101@LoadInt_e@3

; 120  : 		return LoadInt(_k, i);

  0017e	ff 75 0c	 push	 DWORD PTR _i$[ebp]
  00181	8d 45 ec	 lea	 eax, DWORD PTR __k$[ebp]
  00184	50		 push	 eax
  00185	8b ce		 mov	 ecx, esi
  00187	ff 15 00 00 00
	00		 call	 DWORD PTR __imp_?LoadInt@ioINILoader@@QAEHPBDH@Z

; 121  : 	}

  0018d	8b 4d fc	 mov	 ecx, DWORD PTR __$ArrayPad$[ebp]
  00190	33 cd		 xor	 ecx, ebp
  00192	5e		 pop	 esi
  00193	e8 00 00 00 00	 call	 @__security_check_cookie@4
  00198	c9		 leave
  00199	c2 08 00	 ret	 8
??$LoadInt_e@$0L@@ioINILoader@@QAEHAAY0L@$$CBDH@Z ENDP	; ioINILoader::LoadInt_e<11>
_TEXT	ENDS
PUBLIC	__$ArrayPad$
PUBLIC	??$LoadString_e@$08@ioINILoader@@QAEXAAY08$$CBDAAY00$$CBDPADH@Z ; ioINILoader::LoadString_e<9>
; Function compile flags: /Ogsp
;	COMDAT ??$LoadString_e@$08@ioINILoader@@QAEXAAY08$$CBDAAY00$$CBDPADH@Z
_TEXT	SEGMENT
__k$ = -20						; size = 9
__$ArrayPad$ = -4					; size = 4
_k$ = 8							; size = 4
_d$ = 12						; size = 4
_b$ = 16						; size = 4
_i$ = 20						; size = 4
??$LoadString_e@$08@ioINILoader@@QAEXAAY08$$CBDAAY00$$CBDPADH@Z PROC ; ioINILoader::LoadString_e<9>, COMDAT
; _this$ = ecx

; 161  : 	{

  00000	55		 push	 ebp
  00001	8b ec		 mov	 ebp, esp
  00003	83 ec 14	 sub	 esp, 20			; 00000014H
  00006	a1 00 00 00 00	 mov	 eax, DWORD PTR ___security_cookie
  0000b	33 c5		 xor	 eax, ebp
  0000d	89 45 fc	 mov	 DWORD PTR __$ArrayPad$[ebp], eax
  00010	8b 45 08	 mov	 eax, DWORD PTR _k$[ebp]

; 162  : 		_ENCSTR(k, _k);

  00013	8a 10		 mov	 dl, BYTE PTR [eax]
  00015	56		 push	 esi
  00016	8b 75 0c	 mov	 esi, DWORD PTR _d$[ebp]
  00019	57		 push	 edi
  0001a	8b 7d 10	 mov	 edi, DWORD PTR _b$[ebp]
  0001d	84 d2		 test	 dl, dl
  0001f	0f 84 ee 00 00
	00		 je	 $LN96@LoadString@2
  00025	80 f2 ed	 xor	 dl, -19			; ffffffedH
  00028	88 55 ec	 mov	 BYTE PTR __k$[ebp], dl
  0002b	8a 50 01	 mov	 dl, BYTE PTR [eax+1]
  0002e	84 d2		 test	 dl, dl
  00030	0f 84 d7 00 00
	00		 je	 $LN95@LoadString@2
  00036	80 f2 ec	 xor	 dl, -20			; ffffffecH
  00039	88 55 ed	 mov	 BYTE PTR __k$[ebp+1], dl
  0003c	8a 50 02	 mov	 dl, BYTE PTR [eax+2]
  0003f	84 d2		 test	 dl, dl
  00041	0f 84 c0 00 00
	00		 je	 $LN94@LoadString@2
  00047	80 f2 eb	 xor	 dl, -21			; ffffffebH
  0004a	88 55 ee	 mov	 BYTE PTR __k$[ebp+2], dl
  0004d	8a 50 03	 mov	 dl, BYTE PTR [eax+3]
  00050	84 d2		 test	 dl, dl
  00052	0f 84 a9 00 00
	00		 je	 $LN93@LoadString@2
  00058	80 f2 ea	 xor	 dl, -22			; ffffffeaH
  0005b	88 55 ef	 mov	 BYTE PTR __k$[ebp+3], dl
  0005e	8a 50 04	 mov	 dl, BYTE PTR [eax+4]
  00061	84 d2		 test	 dl, dl
  00063	0f 84 92 00 00
	00		 je	 $LN92@LoadString@2
  00069	80 f2 ed	 xor	 dl, -19			; ffffffedH
  0006c	88 55 f0	 mov	 BYTE PTR __k$[ebp+4], dl
  0006f	8a 50 05	 mov	 dl, BYTE PTR [eax+5]
  00072	84 d2		 test	 dl, dl
  00074	74 7f		 je	 SHORT $LN91@LoadString@2
  00076	80 f2 ec	 xor	 dl, -20			; ffffffecH
  00079	88 55 f1	 mov	 BYTE PTR __k$[ebp+5], dl
  0007c	8a 50 06	 mov	 dl, BYTE PTR [eax+6]
  0007f	84 d2		 test	 dl, dl
  00081	74 6c		 je	 SHORT $LN90@LoadString@2
  00083	80 f2 eb	 xor	 dl, -21			; ffffffebH
  00086	88 55 f2	 mov	 BYTE PTR __k$[ebp+6], dl
  00089	8a 50 07	 mov	 dl, BYTE PTR [eax+7]
  0008c	84 d2		 test	 dl, dl
  0008e	74 59		 je	 SHORT $LN89@LoadString@2
  00090	80 f2 ea	 xor	 dl, -22			; ffffffeaH
  00093	80 78 08 00	 cmp	 BYTE PTR [eax+8], 0
  00097	88 55 f3	 mov	 BYTE PTR __k$[ebp+7], dl
  0009a	74 7b		 je	 SHORT $LN1@LoadString@2
  0009c	8a 50 09	 mov	 dl, BYTE PTR [eax+9]
  0009f	84 d2		 test	 dl, dl
  000a1	74 40		 je	 SHORT $LN87@LoadString@2
  000a3	80 f2 ec	 xor	 dl, -20			; ffffffecH
  000a6	88 55 f5	 mov	 BYTE PTR __k$[ebp+9], dl
  000a9	8a 50 0a	 mov	 dl, BYTE PTR [eax+10]
  000ac	84 d2		 test	 dl, dl
  000ae	74 2d		 je	 SHORT $LN86@LoadString@2
  000b0	80 f2 eb	 xor	 dl, -21			; ffffffebH
  000b3	88 55 f6	 mov	 BYTE PTR __k$[ebp+10], dl
  000b6	8a 50 0b	 mov	 dl, BYTE PTR [eax+11]
  000b9	84 d2		 test	 dl, dl
  000bb	74 1a		 je	 SHORT $LN85@LoadString@2
  000bd	8a 40 0c	 mov	 al, BYTE PTR [eax+12]
  000c0	80 f2 ea	 xor	 dl, -22			; ffffffeaH
  000c3	88 55 f7	 mov	 BYTE PTR __k$[ebp+11], dl
  000c6	84 c0		 test	 al, al
  000c8	74 07		 je	 SHORT $LN84@LoadString@2
  000ca	34 ed		 xor	 al, -19			; ffffffedH
  000cc	88 45 f8	 mov	 BYTE PTR __k$[ebp+12], al
  000cf	eb 46		 jmp	 SHORT $LN1@LoadString@2
$LN84@LoadString@2:
  000d1	c6 45 f8 ed	 mov	 BYTE PTR __k$[ebp+12], -19 ; ffffffedH
  000d5	eb 40		 jmp	 SHORT $LN1@LoadString@2
$LN85@LoadString@2:
  000d7	c6 45 f7 ea	 mov	 BYTE PTR __k$[ebp+11], -22 ; ffffffeaH
  000db	eb 3a		 jmp	 SHORT $LN1@LoadString@2
$LN86@LoadString@2:
  000dd	c6 45 f6 eb	 mov	 BYTE PTR __k$[ebp+10], -21 ; ffffffebH
  000e1	eb 34		 jmp	 SHORT $LN1@LoadString@2
$LN87@LoadString@2:
  000e3	c6 45 f5 ec	 mov	 BYTE PTR __k$[ebp+9], -20 ; ffffffecH
  000e7	eb 2e		 jmp	 SHORT $LN1@LoadString@2
$LN89@LoadString@2:
  000e9	c6 45 f3 ea	 mov	 BYTE PTR __k$[ebp+7], -22 ; ffffffeaH
  000ed	eb 28		 jmp	 SHORT $LN1@LoadString@2
$LN90@LoadString@2:
  000ef	c6 45 f2 eb	 mov	 BYTE PTR __k$[ebp+6], -21 ; ffffffebH
  000f3	eb 22		 jmp	 SHORT $LN1@LoadString@2
$LN91@LoadString@2:
  000f5	c6 45 f1 ec	 mov	 BYTE PTR __k$[ebp+5], -20 ; ffffffecH
  000f9	eb 1c		 jmp	 SHORT $LN1@LoadString@2
$LN92@LoadString@2:
  000fb	c6 45 f0 ed	 mov	 BYTE PTR __k$[ebp+4], -19 ; ffffffedH
  000ff	eb 16		 jmp	 SHORT $LN1@LoadString@2
$LN93@LoadString@2:
  00101	c6 45 ef ea	 mov	 BYTE PTR __k$[ebp+3], -22 ; ffffffeaH
  00105	eb 10		 jmp	 SHORT $LN1@LoadString@2
$LN94@LoadString@2:
  00107	c6 45 ee eb	 mov	 BYTE PTR __k$[ebp+2], -21 ; ffffffebH
  0010b	eb 0a		 jmp	 SHORT $LN1@LoadString@2
$LN95@LoadString@2:
  0010d	c6 45 ed ec	 mov	 BYTE PTR __k$[ebp+1], -20 ; ffffffecH
  00111	eb 04		 jmp	 SHORT $LN1@LoadString@2
$LN96@LoadString@2:
  00113	c6 45 ec ed	 mov	 BYTE PTR __k$[ebp], -19	; ffffffedH
$LN1@LoadString@2:
  00117	6a 02		 push	 2
  00119	8d 45 ec	 lea	 eax, DWORD PTR __k$[ebp]
  0011c	c6 45 f4 00	 mov	 BYTE PTR __k$[ebp+8], 0
  00120	5a		 pop	 edx
$LL104@LoadString@2:
  00121	81 30 ed ec eb
	ea		 xor	 DWORD PTR [eax], -353637139 ; eaebecedH
  00127	83 c0 04	 add	 eax, 4
  0012a	4a		 dec	 edx
  0012b	75 f4		 jne	 SHORT $LL104@LoadString@2

; 163  : 		LoadString(_k, d, b, i);

  0012d	ff 75 14	 push	 DWORD PTR _i$[ebp]
  00130	8d 45 ec	 lea	 eax, DWORD PTR __k$[ebp]
  00133	57		 push	 edi
  00134	56		 push	 esi
  00135	50		 push	 eax
  00136	ff 15 00 00 00
	00		 call	 DWORD PTR __imp_?LoadStringA@ioINILoader@@QAEXPBD0PADH@Z

; 164  : 	}

  0013c	8b 4d fc	 mov	 ecx, DWORD PTR __$ArrayPad$[ebp]
  0013f	5f		 pop	 edi
  00140	33 cd		 xor	 ecx, ebp
  00142	5e		 pop	 esi
  00143	e8 00 00 00 00	 call	 @__security_check_cookie@4
  00148	c9		 leave
  00149	c2 10 00	 ret	 16			; 00000010H
??$LoadString_e@$08@ioINILoader@@QAEXAAY08$$CBDAAY00$$CBDPADH@Z ENDP ; ioINILoader::LoadString_e<9>
_TEXT	ENDS
PUBLIC	__$ArrayPad$
PUBLIC	??$LoadInt_e@$0BA@@ioINILoader@@QAEHAAY0BA@$$CBDH@Z ; ioINILoader::LoadInt_e<16>
; Function compile flags: /Ogsp
;	COMDAT ??$LoadInt_e@$0BA@@ioINILoader@@QAEHAAY0BA@$$CBDH@Z
_TEXT	SEGMENT
__k$ = -24						; size = 16
__$ArrayPad$ = -4					; size = 4
_k$ = 8							; size = 4
_i$ = 12						; size = 4
??$LoadInt_e@$0BA@@ioINILoader@@QAEHAAY0BA@$$CBDH@Z PROC ; ioINILoader::LoadInt_e<16>, COMDAT
; _this$ = ecx

; 118  : 	{

  00000	55		 push	 ebp
  00001	8b ec		 mov	 ebp, esp
  00003	83 ec 18	 sub	 esp, 24			; 00000018H
  00006	a1 00 00 00 00	 mov	 eax, DWORD PTR ___security_cookie
  0000b	33 c5		 xor	 eax, ebp
  0000d	89 45 fc	 mov	 DWORD PTR __$ArrayPad$[ebp], eax
  00010	8b 45 08	 mov	 eax, DWORD PTR _k$[ebp]

; 119  : 		_ENCSTR(k, _k);

  00013	8a 10		 mov	 dl, BYTE PTR [eax]
  00015	56		 push	 esi
  00016	8b f1		 mov	 esi, ecx
  00018	84 d2		 test	 dl, dl
  0001a	0f 84 8c 01 00
	00		 je	 $LN96@LoadInt_e@4
  00020	80 f2 ed	 xor	 dl, -19			; ffffffedH
  00023	88 55 e8	 mov	 BYTE PTR __k$[ebp], dl
  00026	8a 50 01	 mov	 dl, BYTE PTR [eax+1]
  00029	84 d2		 test	 dl, dl
  0002b	0f 84 75 01 00
	00		 je	 $LN95@LoadInt_e@4
  00031	80 f2 ec	 xor	 dl, -20			; ffffffecH
  00034	88 55 e9	 mov	 BYTE PTR __k$[ebp+1], dl
  00037	8a 50 02	 mov	 dl, BYTE PTR [eax+2]
  0003a	84 d2		 test	 dl, dl
  0003c	0f 84 5e 01 00
	00		 je	 $LN94@LoadInt_e@4
  00042	b1 eb		 mov	 cl, -21			; ffffffebH
  00044	32 d1		 xor	 dl, cl
  00046	88 55 ea	 mov	 BYTE PTR __k$[ebp+2], dl
  00049	8a 50 03	 mov	 dl, BYTE PTR [eax+3]
  0004c	84 d2		 test	 dl, dl
  0004e	0f 84 46 01 00
	00		 je	 $LN93@LoadInt_e@4
  00054	80 f2 ea	 xor	 dl, -22			; ffffffeaH
  00057	88 55 eb	 mov	 BYTE PTR __k$[ebp+3], dl
  0005a	8a 50 04	 mov	 dl, BYTE PTR [eax+4]
  0005d	84 d2		 test	 dl, dl
  0005f	0f 84 2f 01 00
	00		 je	 $LN92@LoadInt_e@4
  00065	80 f2 ed	 xor	 dl, -19			; ffffffedH
  00068	88 55 ec	 mov	 BYTE PTR __k$[ebp+4], dl
  0006b	8a 50 05	 mov	 dl, BYTE PTR [eax+5]
  0006e	84 d2		 test	 dl, dl
  00070	0f 84 18 01 00
	00		 je	 $LN91@LoadInt_e@4
  00076	80 f2 ec	 xor	 dl, -20			; ffffffecH
  00079	88 55 ed	 mov	 BYTE PTR __k$[ebp+5], dl
  0007c	8a 50 06	 mov	 dl, BYTE PTR [eax+6]
  0007f	84 d2		 test	 dl, dl
  00081	0f 84 02 01 00
	00		 je	 $LN90@LoadInt_e@4
  00087	32 d1		 xor	 dl, cl
  00089	88 55 ee	 mov	 BYTE PTR __k$[ebp+6], dl
  0008c	8a 50 07	 mov	 dl, BYTE PTR [eax+7]
  0008f	84 d2		 test	 dl, dl
  00091	0f 84 ec 00 00
	00		 je	 $LN89@LoadInt_e@4
  00097	80 f2 ea	 xor	 dl, -22			; ffffffeaH
  0009a	88 55 ef	 mov	 BYTE PTR __k$[ebp+7], dl
  0009d	8a 50 08	 mov	 dl, BYTE PTR [eax+8]
  000a0	84 d2		 test	 dl, dl
  000a2	0f 84 d5 00 00
	00		 je	 $LN88@LoadInt_e@4
  000a8	80 f2 ed	 xor	 dl, -19			; ffffffedH
  000ab	88 55 f0	 mov	 BYTE PTR __k$[ebp+8], dl
  000ae	8a 50 09	 mov	 dl, BYTE PTR [eax+9]
  000b1	84 d2		 test	 dl, dl
  000b3	0f 84 be 00 00
	00		 je	 $LN87@LoadInt_e@4
  000b9	80 f2 ec	 xor	 dl, -20			; ffffffecH
  000bc	88 55 f1	 mov	 BYTE PTR __k$[ebp+9], dl
  000bf	8a 50 0a	 mov	 dl, BYTE PTR [eax+10]
  000c2	84 d2		 test	 dl, dl
  000c4	0f 84 a8 00 00
	00		 je	 $LN86@LoadInt_e@4
  000ca	32 d1		 xor	 dl, cl
  000cc	88 55 f2	 mov	 BYTE PTR __k$[ebp+10], dl
  000cf	8a 50 0b	 mov	 dl, BYTE PTR [eax+11]
  000d2	84 d2		 test	 dl, dl
  000d4	0f 84 92 00 00
	00		 je	 $LN85@LoadInt_e@4
  000da	80 f2 ea	 xor	 dl, -22			; ffffffeaH
  000dd	88 55 f3	 mov	 BYTE PTR __k$[ebp+11], dl
  000e0	8a 50 0c	 mov	 dl, BYTE PTR [eax+12]
  000e3	84 d2		 test	 dl, dl
  000e5	74 7f		 je	 SHORT $LN84@LoadInt_e@4
  000e7	80 f2 ed	 xor	 dl, -19			; ffffffedH
  000ea	88 55 f4	 mov	 BYTE PTR __k$[ebp+12], dl
  000ed	8a 50 0d	 mov	 dl, BYTE PTR [eax+13]
  000f0	84 d2		 test	 dl, dl
  000f2	74 6c		 je	 SHORT $LN83@LoadInt_e@4
  000f4	80 f2 ec	 xor	 dl, -20			; ffffffecH
  000f7	88 55 f5	 mov	 BYTE PTR __k$[ebp+13], dl
  000fa	8a 50 0e	 mov	 dl, BYTE PTR [eax+14]
  000fd	84 d2		 test	 dl, dl
  000ff	74 5a		 je	 SHORT $LN82@LoadInt_e@4
  00101	32 d1		 xor	 dl, cl
  00103	80 78 0f 00	 cmp	 BYTE PTR [eax+15], 0
  00107	88 55 f6	 mov	 BYTE PTR __k$[ebp+14], dl
  0010a	0f 84 a0 00 00
	00		 je	 $LN1@LoadInt_e@4
  00110	8a 50 10	 mov	 dl, BYTE PTR [eax+16]
  00113	84 d2		 test	 dl, dl
  00115	74 3e		 je	 SHORT $LN80@LoadInt_e@4
  00117	80 f2 ed	 xor	 dl, -19			; ffffffedH
  0011a	88 55 f8	 mov	 BYTE PTR __k$[ebp+16], dl
  0011d	8a 50 11	 mov	 dl, BYTE PTR [eax+17]
  00120	84 d2		 test	 dl, dl
  00122	74 2b		 je	 SHORT $LN79@LoadInt_e@4
  00124	80 f2 ec	 xor	 dl, -20			; ffffffecH
  00127	88 55 f9	 mov	 BYTE PTR __k$[ebp+17], dl
  0012a	8a 50 12	 mov	 dl, BYTE PTR [eax+18]
  0012d	84 d2		 test	 dl, dl
  0012f	74 19		 je	 SHORT $LN78@LoadInt_e@4
  00131	8a 40 13	 mov	 al, BYTE PTR [eax+19]
  00134	32 d1		 xor	 dl, cl
  00136	88 55 fa	 mov	 BYTE PTR __k$[ebp+18], dl
  00139	84 c0		 test	 al, al
  0013b	74 07		 je	 SHORT $LN77@LoadInt_e@4
  0013d	34 ea		 xor	 al, -22			; ffffffeaH
  0013f	88 45 fb	 mov	 BYTE PTR __k$[ebp+19], al
  00142	eb 6c		 jmp	 SHORT $LN1@LoadInt_e@4
$LN77@LoadInt_e@4:
  00144	c6 45 fb ea	 mov	 BYTE PTR __k$[ebp+19], -22 ; ffffffeaH
  00148	eb 66		 jmp	 SHORT $LN1@LoadInt_e@4
$LN78@LoadInt_e@4:
  0014a	88 4d fa	 mov	 BYTE PTR __k$[ebp+18], cl
  0014d	eb 61		 jmp	 SHORT $LN1@LoadInt_e@4
$LN79@LoadInt_e@4:
  0014f	c6 45 f9 ec	 mov	 BYTE PTR __k$[ebp+17], -20 ; ffffffecH
  00153	eb 5b		 jmp	 SHORT $LN1@LoadInt_e@4
$LN80@LoadInt_e@4:
  00155	c6 45 f8 ed	 mov	 BYTE PTR __k$[ebp+16], -19 ; ffffffedH
  00159	eb 55		 jmp	 SHORT $LN1@LoadInt_e@4
$LN82@LoadInt_e@4:
  0015b	88 4d f6	 mov	 BYTE PTR __k$[ebp+14], cl
  0015e	eb 50		 jmp	 SHORT $LN1@LoadInt_e@4
$LN83@LoadInt_e@4:
  00160	c6 45 f5 ec	 mov	 BYTE PTR __k$[ebp+13], -20 ; ffffffecH
  00164	eb 4a		 jmp	 SHORT $LN1@LoadInt_e@4
$LN84@LoadInt_e@4:
  00166	c6 45 f4 ed	 mov	 BYTE PTR __k$[ebp+12], -19 ; ffffffedH
  0016a	eb 44		 jmp	 SHORT $LN1@LoadInt_e@4
$LN85@LoadInt_e@4:
  0016c	c6 45 f3 ea	 mov	 BYTE PTR __k$[ebp+11], -22 ; ffffffeaH
  00170	eb 3e		 jmp	 SHORT $LN1@LoadInt_e@4
$LN86@LoadInt_e@4:
  00172	88 4d f2	 mov	 BYTE PTR __k$[ebp+10], cl
  00175	eb 39		 jmp	 SHORT $LN1@LoadInt_e@4
$LN87@LoadInt_e@4:
  00177	c6 45 f1 ec	 mov	 BYTE PTR __k$[ebp+9], -20 ; ffffffecH
  0017b	eb 33		 jmp	 SHORT $LN1@LoadInt_e@4
$LN88@LoadInt_e@4:
  0017d	c6 45 f0 ed	 mov	 BYTE PTR __k$[ebp+8], -19 ; ffffffedH
  00181	eb 2d		 jmp	 SHORT $LN1@LoadInt_e@4
$LN89@LoadInt_e@4:
  00183	c6 45 ef ea	 mov	 BYTE PTR __k$[ebp+7], -22 ; ffffffeaH
  00187	eb 27		 jmp	 SHORT $LN1@LoadInt_e@4
$LN90@LoadInt_e@4:
  00189	88 4d ee	 mov	 BYTE PTR __k$[ebp+6], cl
  0018c	eb 22		 jmp	 SHORT $LN1@LoadInt_e@4
$LN91@LoadInt_e@4:
  0018e	c6 45 ed ec	 mov	 BYTE PTR __k$[ebp+5], -20 ; ffffffecH
  00192	eb 1c		 jmp	 SHORT $LN1@LoadInt_e@4
$LN92@LoadInt_e@4:
  00194	c6 45 ec ed	 mov	 BYTE PTR __k$[ebp+4], -19 ; ffffffedH
  00198	eb 16		 jmp	 SHORT $LN1@LoadInt_e@4
$LN93@LoadInt_e@4:
  0019a	c6 45 eb ea	 mov	 BYTE PTR __k$[ebp+3], -22 ; ffffffeaH
  0019e	eb 10		 jmp	 SHORT $LN1@LoadInt_e@4
$LN94@LoadInt_e@4:
  001a0	c6 45 ea eb	 mov	 BYTE PTR __k$[ebp+2], -21 ; ffffffebH
  001a4	eb 0a		 jmp	 SHORT $LN1@LoadInt_e@4
$LN95@LoadInt_e@4:
  001a6	c6 45 e9 ec	 mov	 BYTE PTR __k$[ebp+1], -20 ; ffffffecH
  001aa	eb 04		 jmp	 SHORT $LN1@LoadInt_e@4
$LN96@LoadInt_e@4:
  001ac	c6 45 e8 ed	 mov	 BYTE PTR __k$[ebp], -19	; ffffffedH
$LN1@LoadInt_e@4:
  001b0	6a 03		 push	 3
  001b2	8d 45 e8	 lea	 eax, DWORD PTR __k$[ebp]
  001b5	c6 45 f7 00	 mov	 BYTE PTR __k$[ebp+15], 0
  001b9	5a		 pop	 edx
$LL104@LoadInt_e@4:
  001ba	81 30 ed ec eb
	ea		 xor	 DWORD PTR [eax], -353637139 ; eaebecedH
  001c0	83 c0 04	 add	 eax, 4
  001c3	4a		 dec	 edx
  001c4	75 f4		 jne	 SHORT $LL104@LoadInt_e@4
  001c6	6a 0c		 push	 12			; 0000000cH
  001c8	58		 pop	 eax
$LL101@LoadInt_e@4:
  001c9	8b c8		 mov	 ecx, eax
  001cb	81 e1 03 00 00
	80		 and	 ecx, -2147483645	; 80000003H
  001d1	79 05		 jns	 SHORT $LN111@LoadInt_e@4
  001d3	49		 dec	 ecx
  001d4	83 c9 fc	 or	 ecx, -4			; fffffffcH
  001d7	41		 inc	 ecx
$LN111@LoadInt_e@4:
  001d8	b2 ed		 mov	 dl, -19			; ffffffedH
  001da	2a d1		 sub	 dl, cl
  001dc	30 54 05 e8	 xor	 BYTE PTR __k$[ebp+eax], dl
  001e0	40		 inc	 eax
  001e1	83 f8 0f	 cmp	 eax, 15			; 0000000fH
  001e4	7c e3		 jl	 SHORT $LL101@LoadInt_e@4

; 120  : 		return LoadInt(_k, i);

  001e6	ff 75 0c	 push	 DWORD PTR _i$[ebp]
  001e9	8d 45 e8	 lea	 eax, DWORD PTR __k$[ebp]
  001ec	50		 push	 eax
  001ed	8b ce		 mov	 ecx, esi
  001ef	ff 15 00 00 00
	00		 call	 DWORD PTR __imp_?LoadInt@ioINILoader@@QAEHPBDH@Z

; 121  : 	}

  001f5	8b 4d fc	 mov	 ecx, DWORD PTR __$ArrayPad$[ebp]
  001f8	33 cd		 xor	 ecx, ebp
  001fa	5e		 pop	 esi
  001fb	e8 00 00 00 00	 call	 @__security_check_cookie@4
  00200	c9		 leave
  00201	c2 08 00	 ret	 8
??$LoadInt_e@$0BA@@ioINILoader@@QAEHAAY0BA@$$CBDH@Z ENDP ; ioINILoader::LoadInt_e<16>
_TEXT	ENDS
PUBLIC	_this$GSCopy$
PUBLIC	__$ArrayPad$
PUBLIC	??$LoadString_e@$0O@@ioINILoader@@QAEXAAY0O@$$CBDAAY00$$CBDPADH@Z ; ioINILoader::LoadString_e<14>
; Function compile flags: /Ogsp
;	COMDAT ??$LoadString_e@$0O@@ioINILoader@@QAEXAAY0O@$$CBDAAY00$$CBDPADH@Z
_TEXT	SEGMENT
_this$GSCopy$ = -28					; size = 4
__k$ = -24						; size = 14
__$ArrayPad$ = -4					; size = 4
_k$ = 8							; size = 4
_d$ = 12						; size = 4
_b$ = 16						; size = 4
_i$ = 20						; size = 4
??$LoadString_e@$0O@@ioINILoader@@QAEXAAY0O@$$CBDAAY00$$CBDPADH@Z PROC ; ioINILoader::LoadString_e<14>, COMDAT
; _this$ = ecx

; 161  : 	{

  00000	55		 push	 ebp
  00001	8b ec		 mov	 ebp, esp
  00003	83 ec 1c	 sub	 esp, 28			; 0000001cH
  00006	a1 00 00 00 00	 mov	 eax, DWORD PTR ___security_cookie
  0000b	33 c5		 xor	 eax, ebp
  0000d	89 45 fc	 mov	 DWORD PTR __$ArrayPad$[ebp], eax
  00010	8b 45 08	 mov	 eax, DWORD PTR _k$[ebp]

; 162  : 		_ENCSTR(k, _k);

  00013	8a 10		 mov	 dl, BYTE PTR [eax]
  00015	56		 push	 esi
  00016	8b 75 0c	 mov	 esi, DWORD PTR _d$[ebp]
  00019	57		 push	 edi
  0001a	8b 7d 10	 mov	 edi, DWORD PTR _b$[ebp]
  0001d	89 4d e4	 mov	 DWORD PTR _this$GSCopy$[ebp], ecx
  00020	84 d2		 test	 dl, dl
  00022	0f 84 64 01 00
	00		 je	 $LN96@LoadString@3
  00028	80 f2 ed	 xor	 dl, -19			; ffffffedH
  0002b	88 55 e8	 mov	 BYTE PTR __k$[ebp], dl
  0002e	8a 50 01	 mov	 dl, BYTE PTR [eax+1]
  00031	84 d2		 test	 dl, dl
  00033	0f 84 4d 01 00
	00		 je	 $LN95@LoadString@3
  00039	80 f2 ec	 xor	 dl, -20			; ffffffecH
  0003c	88 55 e9	 mov	 BYTE PTR __k$[ebp+1], dl
  0003f	8a 50 02	 mov	 dl, BYTE PTR [eax+2]
  00042	84 d2		 test	 dl, dl
  00044	0f 84 36 01 00
	00		 je	 $LN94@LoadString@3
  0004a	b1 eb		 mov	 cl, -21			; ffffffebH
  0004c	32 d1		 xor	 dl, cl
  0004e	88 55 ea	 mov	 BYTE PTR __k$[ebp+2], dl
  00051	8a 50 03	 mov	 dl, BYTE PTR [eax+3]
  00054	84 d2		 test	 dl, dl
  00056	0f 84 1e 01 00
	00		 je	 $LN93@LoadString@3
  0005c	80 f2 ea	 xor	 dl, -22			; ffffffeaH
  0005f	88 55 eb	 mov	 BYTE PTR __k$[ebp+3], dl
  00062	8a 50 04	 mov	 dl, BYTE PTR [eax+4]
  00065	84 d2		 test	 dl, dl
  00067	0f 84 07 01 00
	00		 je	 $LN92@LoadString@3
  0006d	80 f2 ed	 xor	 dl, -19			; ffffffedH
  00070	88 55 ec	 mov	 BYTE PTR __k$[ebp+4], dl
  00073	8a 50 05	 mov	 dl, BYTE PTR [eax+5]
  00076	84 d2		 test	 dl, dl
  00078	0f 84 f0 00 00
	00		 je	 $LN91@LoadString@3
  0007e	80 f2 ec	 xor	 dl, -20			; ffffffecH
  00081	88 55 ed	 mov	 BYTE PTR __k$[ebp+5], dl
  00084	8a 50 06	 mov	 dl, BYTE PTR [eax+6]
  00087	84 d2		 test	 dl, dl
  00089	0f 84 da 00 00
	00		 je	 $LN90@LoadString@3
  0008f	32 d1		 xor	 dl, cl
  00091	88 55 ee	 mov	 BYTE PTR __k$[ebp+6], dl
  00094	8a 50 07	 mov	 dl, BYTE PTR [eax+7]
  00097	84 d2		 test	 dl, dl
  00099	0f 84 c4 00 00
	00		 je	 $LN89@LoadString@3
  0009f	80 f2 ea	 xor	 dl, -22			; ffffffeaH
  000a2	88 55 ef	 mov	 BYTE PTR __k$[ebp+7], dl
  000a5	8a 50 08	 mov	 dl, BYTE PTR [eax+8]
  000a8	84 d2		 test	 dl, dl
  000aa	0f 84 ad 00 00
	00		 je	 $LN88@LoadString@3
  000b0	80 f2 ed	 xor	 dl, -19			; ffffffedH
  000b3	88 55 f0	 mov	 BYTE PTR __k$[ebp+8], dl
  000b6	8a 50 09	 mov	 dl, BYTE PTR [eax+9]
  000b9	84 d2		 test	 dl, dl
  000bb	0f 84 96 00 00
	00		 je	 $LN87@LoadString@3
  000c1	80 f2 ec	 xor	 dl, -20			; ffffffecH
  000c4	88 55 f1	 mov	 BYTE PTR __k$[ebp+9], dl
  000c7	8a 50 0a	 mov	 dl, BYTE PTR [eax+10]
  000ca	84 d2		 test	 dl, dl
  000cc	0f 84 80 00 00
	00		 je	 $LN86@LoadString@3
  000d2	32 d1		 xor	 dl, cl
  000d4	88 55 f2	 mov	 BYTE PTR __k$[ebp+10], dl
  000d7	8a 50 0b	 mov	 dl, BYTE PTR [eax+11]
  000da	84 d2		 test	 dl, dl
  000dc	74 6e		 je	 SHORT $LN85@LoadString@3
  000de	80 f2 ea	 xor	 dl, -22			; ffffffeaH
  000e1	88 55 f3	 mov	 BYTE PTR __k$[ebp+11], dl
  000e4	8a 50 0c	 mov	 dl, BYTE PTR [eax+12]
  000e7	84 d2		 test	 dl, dl
  000e9	74 5b		 je	 SHORT $LN84@LoadString@3
  000eb	80 f2 ed	 xor	 dl, -19			; ffffffedH
  000ee	80 78 0d 00	 cmp	 BYTE PTR [eax+13], 0
  000f2	88 55 f4	 mov	 BYTE PTR __k$[ebp+12], dl
  000f5	0f 84 95 00 00
	00		 je	 $LN111@LoadString@3
  000fb	8a 50 0e	 mov	 dl, BYTE PTR [eax+14]
  000fe	84 d2		 test	 dl, dl
  00100	74 3f		 je	 SHORT $LN82@LoadString@3
  00102	32 d1		 xor	 dl, cl
  00104	88 55 f6	 mov	 BYTE PTR __k$[ebp+14], dl
  00107	8a 50 0f	 mov	 dl, BYTE PTR [eax+15]
  0010a	84 d2		 test	 dl, dl
  0010c	74 2d		 je	 SHORT $LN81@LoadString@3
  0010e	80 f2 ea	 xor	 dl, -22			; ffffffeaH
  00111	88 55 f7	 mov	 BYTE PTR __k$[ebp+15], dl
  00114	8a 50 10	 mov	 dl, BYTE PTR [eax+16]
  00117	84 d2		 test	 dl, dl
  00119	74 1a		 je	 SHORT $LN80@LoadString@3
  0011b	8a 40 11	 mov	 al, BYTE PTR [eax+17]
  0011e	80 f2 ed	 xor	 dl, -19			; ffffffedH
  00121	88 55 f8	 mov	 BYTE PTR __k$[ebp+16], dl
  00124	84 c0		 test	 al, al
  00126	74 07		 je	 SHORT $LN79@LoadString@3
  00128	34 ec		 xor	 al, -20			; ffffffecH
  0012a	88 45 f9	 mov	 BYTE PTR __k$[ebp+17], al
  0012d	eb 61		 jmp	 SHORT $LN111@LoadString@3
$LN79@LoadString@3:
  0012f	c6 45 f9 ec	 mov	 BYTE PTR __k$[ebp+17], -20 ; ffffffecH
  00133	eb 5b		 jmp	 SHORT $LN111@LoadString@3
$LN80@LoadString@3:
  00135	c6 45 f8 ed	 mov	 BYTE PTR __k$[ebp+16], -19 ; ffffffedH
  00139	eb 55		 jmp	 SHORT $LN111@LoadString@3
$LN81@LoadString@3:
  0013b	c6 45 f7 ea	 mov	 BYTE PTR __k$[ebp+15], -22 ; ffffffeaH
  0013f	eb 4f		 jmp	 SHORT $LN111@LoadString@3
$LN82@LoadString@3:
  00141	88 4d f6	 mov	 BYTE PTR __k$[ebp+14], cl
  00144	eb 4a		 jmp	 SHORT $LN111@LoadString@3
$LN84@LoadString@3:
  00146	c6 45 f4 ed	 mov	 BYTE PTR __k$[ebp+12], -19 ; ffffffedH
  0014a	eb 44		 jmp	 SHORT $LN111@LoadString@3
$LN85@LoadString@3:
  0014c	c6 45 f3 ea	 mov	 BYTE PTR __k$[ebp+11], -22 ; ffffffeaH
  00150	eb 3e		 jmp	 SHORT $LN111@LoadString@3
$LN86@LoadString@3:
  00152	88 4d f2	 mov	 BYTE PTR __k$[ebp+10], cl
  00155	eb 39		 jmp	 SHORT $LN111@LoadString@3
$LN87@LoadString@3:
  00157	c6 45 f1 ec	 mov	 BYTE PTR __k$[ebp+9], -20 ; ffffffecH
  0015b	eb 33		 jmp	 SHORT $LN111@LoadString@3
$LN88@LoadString@3:
  0015d	c6 45 f0 ed	 mov	 BYTE PTR __k$[ebp+8], -19 ; ffffffedH
  00161	eb 2d		 jmp	 SHORT $LN111@LoadString@3
$LN89@LoadString@3:
  00163	c6 45 ef ea	 mov	 BYTE PTR __k$[ebp+7], -22 ; ffffffeaH
  00167	eb 27		 jmp	 SHORT $LN111@LoadString@3
$LN90@LoadString@3:
  00169	88 4d ee	 mov	 BYTE PTR __k$[ebp+6], cl
  0016c	eb 22		 jmp	 SHORT $LN111@LoadString@3
$LN91@LoadString@3:
  0016e	c6 45 ed ec	 mov	 BYTE PTR __k$[ebp+5], -20 ; ffffffecH
  00172	eb 1c		 jmp	 SHORT $LN111@LoadString@3
$LN92@LoadString@3:
  00174	c6 45 ec ed	 mov	 BYTE PTR __k$[ebp+4], -19 ; ffffffedH
  00178	eb 16		 jmp	 SHORT $LN111@LoadString@3
$LN93@LoadString@3:
  0017a	c6 45 eb ea	 mov	 BYTE PTR __k$[ebp+3], -22 ; ffffffeaH
  0017e	eb 10		 jmp	 SHORT $LN111@LoadString@3
$LN94@LoadString@3:
  00180	c6 45 ea eb	 mov	 BYTE PTR __k$[ebp+2], -21 ; ffffffebH
  00184	eb 0a		 jmp	 SHORT $LN111@LoadString@3
$LN95@LoadString@3:
  00186	c6 45 e9 ec	 mov	 BYTE PTR __k$[ebp+1], -20 ; ffffffecH
  0018a	eb 04		 jmp	 SHORT $LN111@LoadString@3
$LN96@LoadString@3:
  0018c	c6 45 e8 ed	 mov	 BYTE PTR __k$[ebp], -19	; ffffffedH
$LN111@LoadString@3:
  00190	6a 03		 push	 3
  00192	8d 45 e8	 lea	 eax, DWORD PTR __k$[ebp]
  00195	c6 45 f5 00	 mov	 BYTE PTR __k$[ebp+13], 0
  00199	5a		 pop	 edx
$LL104@LoadString@3:
  0019a	81 30 ed ec eb
	ea		 xor	 DWORD PTR [eax], -353637139 ; eaebecedH
  001a0	83 c0 04	 add	 eax, 4
  001a3	4a		 dec	 edx
  001a4	75 f4		 jne	 SHORT $LL104@LoadString@3

; 163  : 		LoadString(_k, d, b, i);

  001a6	ff 75 14	 push	 DWORD PTR _i$[ebp]
  001a9	8b 4d e4	 mov	 ecx, DWORD PTR _this$GSCopy$[ebp]
  001ac	80 75 f4 ed	 xor	 BYTE PTR __k$[ebp+12], -19 ; ffffffedH
  001b0	57		 push	 edi
  001b1	56		 push	 esi
  001b2	8d 45 e8	 lea	 eax, DWORD PTR __k$[ebp]
  001b5	50		 push	 eax
  001b6	ff 15 00 00 00
	00		 call	 DWORD PTR __imp_?LoadStringA@ioINILoader@@QAEXPBD0PADH@Z

; 164  : 	}

  001bc	8b 4d fc	 mov	 ecx, DWORD PTR __$ArrayPad$[ebp]
  001bf	5f		 pop	 edi
  001c0	33 cd		 xor	 ecx, ebp
  001c2	5e		 pop	 esi
  001c3	e8 00 00 00 00	 call	 @__security_check_cookie@4
  001c8	c9		 leave
  001c9	c2 10 00	 ret	 16			; 00000010H
??$LoadString_e@$0O@@ioINILoader@@QAEXAAY0O@$$CBDAAY00$$CBDPADH@Z ENDP ; ioINILoader::LoadString_e<14>
_TEXT	ENDS
PUBLIC	__$ArrayPad$
PUBLIC	??$LoadInt_e@$09@ioINILoader@@QAEHAAY09$$CBDH@Z	; ioINILoader::LoadInt_e<10>
; Function compile flags: /Ogsp
;	COMDAT ??$LoadInt_e@$09@ioINILoader@@QAEHAAY09$$CBDH@Z
_TEXT	SEGMENT
__k$ = -20						; size = 10
__$ArrayPad$ = -4					; size = 4
_k$ = 8							; size = 4
_i$ = 12						; size = 4
??$LoadInt_e@$09@ioINILoader@@QAEHAAY09$$CBDH@Z PROC	; ioINILoader::LoadInt_e<10>, COMDAT
; _this$ = ecx

; 118  : 	{

  00000	55		 push	 ebp
  00001	8b ec		 mov	 ebp, esp
  00003	83 ec 14	 sub	 esp, 20			; 00000014H
  00006	a1 00 00 00 00	 mov	 eax, DWORD PTR ___security_cookie
  0000b	33 c5		 xor	 eax, ebp
  0000d	89 45 fc	 mov	 DWORD PTR __$ArrayPad$[ebp], eax
  00010	8b 45 08	 mov	 eax, DWORD PTR _k$[ebp]

; 119  : 		_ENCSTR(k, _k);

  00013	8a 10		 mov	 dl, BYTE PTR [eax]
  00015	84 d2		 test	 dl, dl
  00017	0f 84 0d 01 00
	00		 je	 $LN96@LoadInt_e@5
  0001d	80 f2 ed	 xor	 dl, -19			; ffffffedH
  00020	88 55 ec	 mov	 BYTE PTR __k$[ebp], dl
  00023	8a 50 01	 mov	 dl, BYTE PTR [eax+1]
  00026	84 d2		 test	 dl, dl
  00028	0f 84 f6 00 00
	00		 je	 $LN95@LoadInt_e@5
  0002e	80 f2 ec	 xor	 dl, -20			; ffffffecH
  00031	88 55 ed	 mov	 BYTE PTR __k$[ebp+1], dl
  00034	8a 50 02	 mov	 dl, BYTE PTR [eax+2]
  00037	84 d2		 test	 dl, dl
  00039	0f 84 df 00 00
	00		 je	 $LN94@LoadInt_e@5
  0003f	80 f2 eb	 xor	 dl, -21			; ffffffebH
  00042	88 55 ee	 mov	 BYTE PTR __k$[ebp+2], dl
  00045	8a 50 03	 mov	 dl, BYTE PTR [eax+3]
  00048	84 d2		 test	 dl, dl
  0004a	0f 84 c8 00 00
	00		 je	 $LN93@LoadInt_e@5
  00050	80 f2 ea	 xor	 dl, -22			; ffffffeaH
  00053	88 55 ef	 mov	 BYTE PTR __k$[ebp+3], dl
  00056	8a 50 04	 mov	 dl, BYTE PTR [eax+4]
  00059	84 d2		 test	 dl, dl
  0005b	0f 84 b1 00 00
	00		 je	 $LN92@LoadInt_e@5
  00061	80 f2 ed	 xor	 dl, -19			; ffffffedH
  00064	88 55 f0	 mov	 BYTE PTR __k$[ebp+4], dl
  00067	8a 50 05	 mov	 dl, BYTE PTR [eax+5]
  0006a	84 d2		 test	 dl, dl
  0006c	0f 84 9a 00 00
	00		 je	 $LN91@LoadInt_e@5
  00072	80 f2 ec	 xor	 dl, -20			; ffffffecH
  00075	88 55 f1	 mov	 BYTE PTR __k$[ebp+5], dl
  00078	8a 50 06	 mov	 dl, BYTE PTR [eax+6]
  0007b	84 d2		 test	 dl, dl
  0007d	0f 84 83 00 00
	00		 je	 $LN90@LoadInt_e@5
  00083	80 f2 eb	 xor	 dl, -21			; ffffffebH
  00086	88 55 f2	 mov	 BYTE PTR __k$[ebp+6], dl
  00089	8a 50 07	 mov	 dl, BYTE PTR [eax+7]
  0008c	84 d2		 test	 dl, dl
  0008e	74 70		 je	 SHORT $LN89@LoadInt_e@5
  00090	80 f2 ea	 xor	 dl, -22			; ffffffeaH
  00093	88 55 f3	 mov	 BYTE PTR __k$[ebp+7], dl
  00096	8a 50 08	 mov	 dl, BYTE PTR [eax+8]
  00099	84 d2		 test	 dl, dl
  0009b	74 5d		 je	 SHORT $LN88@LoadInt_e@5
  0009d	80 f2 ed	 xor	 dl, -19			; ffffffedH
  000a0	80 78 09 00	 cmp	 BYTE PTR [eax+9], 0
  000a4	88 55 f4	 mov	 BYTE PTR __k$[ebp+8], dl
  000a7	0f 84 81 00 00
	00		 je	 $LN1@LoadInt_e@5
  000ad	8a 50 0a	 mov	 dl, BYTE PTR [eax+10]
  000b0	84 d2		 test	 dl, dl
  000b2	74 40		 je	 SHORT $LN86@LoadInt_e@5
  000b4	80 f2 eb	 xor	 dl, -21			; ffffffebH
  000b7	88 55 f6	 mov	 BYTE PTR __k$[ebp+10], dl
  000ba	8a 50 0b	 mov	 dl, BYTE PTR [eax+11]
  000bd	84 d2		 test	 dl, dl
  000bf	74 2d		 je	 SHORT $LN85@LoadInt_e@5
  000c1	80 f2 ea	 xor	 dl, -22			; ffffffeaH
  000c4	88 55 f7	 mov	 BYTE PTR __k$[ebp+11], dl
  000c7	8a 50 0c	 mov	 dl, BYTE PTR [eax+12]
  000ca	84 d2		 test	 dl, dl
  000cc	74 1a		 je	 SHORT $LN84@LoadInt_e@5
  000ce	8a 40 0d	 mov	 al, BYTE PTR [eax+13]
  000d1	80 f2 ed	 xor	 dl, -19			; ffffffedH
  000d4	88 55 f8	 mov	 BYTE PTR __k$[ebp+12], dl
  000d7	84 c0		 test	 al, al
  000d9	74 07		 je	 SHORT $LN83@LoadInt_e@5
  000db	34 ec		 xor	 al, -20			; ffffffecH
  000dd	88 45 f9	 mov	 BYTE PTR __k$[ebp+13], al
  000e0	eb 4c		 jmp	 SHORT $LN1@LoadInt_e@5
$LN83@LoadInt_e@5:
  000e2	c6 45 f9 ec	 mov	 BYTE PTR __k$[ebp+13], -20 ; ffffffecH
  000e6	eb 46		 jmp	 SHORT $LN1@LoadInt_e@5
$LN84@LoadInt_e@5:
  000e8	c6 45 f8 ed	 mov	 BYTE PTR __k$[ebp+12], -19 ; ffffffedH
  000ec	eb 40		 jmp	 SHORT $LN1@LoadInt_e@5
$LN85@LoadInt_e@5:
  000ee	c6 45 f7 ea	 mov	 BYTE PTR __k$[ebp+11], -22 ; ffffffeaH
  000f2	eb 3a		 jmp	 SHORT $LN1@LoadInt_e@5
$LN86@LoadInt_e@5:
  000f4	c6 45 f6 eb	 mov	 BYTE PTR __k$[ebp+10], -21 ; ffffffebH
  000f8	eb 34		 jmp	 SHORT $LN1@LoadInt_e@5
$LN88@LoadInt_e@5:
  000fa	c6 45 f4 ed	 mov	 BYTE PTR __k$[ebp+8], -19 ; ffffffedH
  000fe	eb 2e		 jmp	 SHORT $LN1@LoadInt_e@5
$LN89@LoadInt_e@5:
  00100	c6 45 f3 ea	 mov	 BYTE PTR __k$[ebp+7], -22 ; ffffffeaH
  00104	eb 28		 jmp	 SHORT $LN1@LoadInt_e@5
$LN90@LoadInt_e@5:
  00106	c6 45 f2 eb	 mov	 BYTE PTR __k$[ebp+6], -21 ; ffffffebH
  0010a	eb 22		 jmp	 SHORT $LN1@LoadInt_e@5
$LN91@LoadInt_e@5:
  0010c	c6 45 f1 ec	 mov	 BYTE PTR __k$[ebp+5], -20 ; ffffffecH
  00110	eb 1c		 jmp	 SHORT $LN1@LoadInt_e@5
$LN92@LoadInt_e@5:
  00112	c6 45 f0 ed	 mov	 BYTE PTR __k$[ebp+4], -19 ; ffffffedH
  00116	eb 16		 jmp	 SHORT $LN1@LoadInt_e@5
$LN93@LoadInt_e@5:
  00118	c6 45 ef ea	 mov	 BYTE PTR __k$[ebp+3], -22 ; ffffffeaH
  0011c	eb 10		 jmp	 SHORT $LN1@LoadInt_e@5
$LN94@LoadInt_e@5:
  0011e	c6 45 ee eb	 mov	 BYTE PTR __k$[ebp+2], -21 ; ffffffebH
  00122	eb 0a		 jmp	 SHORT $LN1@LoadInt_e@5
$LN95@LoadInt_e@5:
  00124	c6 45 ed ec	 mov	 BYTE PTR __k$[ebp+1], -20 ; ffffffecH
  00128	eb 04		 jmp	 SHORT $LN1@LoadInt_e@5
$LN96@LoadInt_e@5:
  0012a	c6 45 ec ed	 mov	 BYTE PTR __k$[ebp], -19	; ffffffedH
$LN1@LoadInt_e@5:
  0012e	6a 02		 push	 2
  00130	8d 45 ec	 lea	 eax, DWORD PTR __k$[ebp]
  00133	c6 45 f5 00	 mov	 BYTE PTR __k$[ebp+9], 0
  00137	5a		 pop	 edx
$LL104@LoadInt_e@5:
  00138	81 30 ed ec eb
	ea		 xor	 DWORD PTR [eax], -353637139 ; eaebecedH
  0013e	83 c0 04	 add	 eax, 4
  00141	4a		 dec	 edx
  00142	75 f4		 jne	 SHORT $LL104@LoadInt_e@5

; 120  : 		return LoadInt(_k, i);

  00144	ff 75 0c	 push	 DWORD PTR _i$[ebp]
  00147	80 75 f4 ed	 xor	 BYTE PTR __k$[ebp+8], -19 ; ffffffedH
  0014b	8d 45 ec	 lea	 eax, DWORD PTR __k$[ebp]
  0014e	50		 push	 eax
  0014f	ff 15 00 00 00
	00		 call	 DWORD PTR __imp_?LoadInt@ioINILoader@@QAEHPBDH@Z

; 121  : 	}

  00155	8b 4d fc	 mov	 ecx, DWORD PTR __$ArrayPad$[ebp]
  00158	33 cd		 xor	 ecx, ebp
  0015a	e8 00 00 00 00	 call	 @__security_check_cookie@4
  0015f	c9		 leave
  00160	c2 08 00	 ret	 8
??$LoadInt_e@$09@ioINILoader@@QAEHAAY09$$CBDH@Z ENDP	; ioINILoader::LoadInt_e<10>
_TEXT	ENDS
PUBLIC	_b$GSCopy$
PUBLIC	_this$GSCopy$
PUBLIC	__$ArrayPad$
PUBLIC	??$LoadString_e@$07$0CF@@ioINILoader@@QAEXAAY07$$CBDAAY0CF@$$CBDPADH@Z ; ioINILoader::LoadString_e<8,37>
; Function compile flags: /Ogsp
;	COMDAT ??$LoadString_e@$07$0CF@@ioINILoader@@QAEXAAY07$$CBDAAY0CF@$$CBDPADH@Z
_TEXT	SEGMENT
_b$GSCopy$ = -68					; size = 4
_this$GSCopy$ = -64					; size = 4
__d$ = -60						; size = 37
__k$ = -16						; size = 8
__$ArrayPad$ = -4					; size = 4
_k$ = 8							; size = 4
_d$ = 12						; size = 4
_b$ = 16						; size = 4
_i$ = 20						; size = 4
??$LoadString_e@$07$0CF@@ioINILoader@@QAEXAAY07$$CBDAAY0CF@$$CBDPADH@Z PROC ; ioINILoader::LoadString_e<8,37>, COMDAT
; _this$ = ecx

; 152  : 	{

  00000	55		 push	 ebp
  00001	8b ec		 mov	 ebp, esp
  00003	83 ec 44	 sub	 esp, 68			; 00000044H
  00006	a1 00 00 00 00	 mov	 eax, DWORD PTR ___security_cookie
  0000b	33 c5		 xor	 eax, ebp
  0000d	89 45 fc	 mov	 DWORD PTR __$ArrayPad$[ebp], eax
  00010	8b 55 08	 mov	 edx, DWORD PTR _k$[ebp]
  00013	8b 45 0c	 mov	 eax, DWORD PTR _d$[ebp]
  00016	89 4d c0	 mov	 DWORD PTR _this$GSCopy$[ebp], ecx
  00019	8b 4d 10	 mov	 ecx, DWORD PTR _b$[ebp]
  0001c	53		 push	 ebx

; 153  : 		_ENCSTR(k, _k);

  0001d	8a 1a		 mov	 bl, BYTE PTR [edx]

; 154  : 		_ENCSTR(d, _d);

  0001f	89 4d bc	 mov	 DWORD PTR _b$GSCopy$[ebp], ecx
  00022	32 c9		 xor	 cl, cl
  00024	56		 push	 esi
  00025	57		 push	 edi
  00026	3a d9		 cmp	 bl, cl
  00028	0f 84 d7 00 00
	00		 je	 $LN192@LoadString@4

; 153  : 		_ENCSTR(k, _k);

  0002e	80 f3 ed	 xor	 bl, -19			; ffffffedH
  00031	88 5d f0	 mov	 BYTE PTR __k$[ebp], bl
  00034	8a 5a 01	 mov	 bl, BYTE PTR [edx+1]
  00037	3a d9		 cmp	 bl, cl
  00039	0f 84 c0 00 00
	00		 je	 $LN191@LoadString@4
  0003f	80 f3 ec	 xor	 bl, -20			; ffffffecH
  00042	88 5d f1	 mov	 BYTE PTR __k$[ebp+1], bl
  00045	8a 5a 02	 mov	 bl, BYTE PTR [edx+2]
  00048	3a d9		 cmp	 bl, cl
  0004a	0f 84 a9 00 00
	00		 je	 $LN190@LoadString@4
  00050	80 f3 eb	 xor	 bl, -21			; ffffffebH
  00053	88 5d f2	 mov	 BYTE PTR __k$[ebp+2], bl
  00056	8a 5a 03	 mov	 bl, BYTE PTR [edx+3]
  00059	3a d9		 cmp	 bl, cl
  0005b	0f 84 92 00 00
	00		 je	 $LN189@LoadString@4
  00061	80 f3 ea	 xor	 bl, -22			; ffffffeaH
  00064	88 5d f3	 mov	 BYTE PTR __k$[ebp+3], bl
  00067	8a 5a 04	 mov	 bl, BYTE PTR [edx+4]
  0006a	3a d9		 cmp	 bl, cl
  0006c	74 7f		 je	 SHORT $LN188@LoadString@4
  0006e	80 f3 ed	 xor	 bl, -19			; ffffffedH
  00071	88 5d f4	 mov	 BYTE PTR __k$[ebp+4], bl
  00074	8a 5a 05	 mov	 bl, BYTE PTR [edx+5]
  00077	3a d9		 cmp	 bl, cl
  00079	74 6c		 je	 SHORT $LN187@LoadString@4
  0007b	80 f3 ec	 xor	 bl, -20			; ffffffecH
  0007e	88 5d f5	 mov	 BYTE PTR __k$[ebp+5], bl
  00081	8a 5a 06	 mov	 bl, BYTE PTR [edx+6]
  00084	3a d9		 cmp	 bl, cl
  00086	74 59		 je	 SHORT $LN186@LoadString@4
  00088	80 f3 eb	 xor	 bl, -21			; ffffffebH
  0008b	88 5d f6	 mov	 BYTE PTR __k$[ebp+6], bl
  0008e	38 4a 07	 cmp	 BYTE PTR [edx+7], cl
  00091	74 76		 je	 SHORT $LN97@LoadString@4
  00093	8a 5a 08	 mov	 bl, BYTE PTR [edx+8]
  00096	3a d9		 cmp	 bl, cl
  00098	74 41		 je	 SHORT $LN184@LoadString@4
  0009a	80 f3 ed	 xor	 bl, -19			; ffffffedH
  0009d	88 5d f8	 mov	 BYTE PTR __k$[ebp+8], bl
  000a0	8a 5a 09	 mov	 bl, BYTE PTR [edx+9]
  000a3	3a d9		 cmp	 bl, cl
  000a5	74 2e		 je	 SHORT $LN183@LoadString@4
  000a7	80 f3 ec	 xor	 bl, -20			; ffffffecH
  000aa	88 5d f9	 mov	 BYTE PTR __k$[ebp+9], bl
  000ad	8a 5a 0a	 mov	 bl, BYTE PTR [edx+10]
  000b0	3a d9		 cmp	 bl, cl
  000b2	74 1b		 je	 SHORT $LN182@LoadString@4
  000b4	8a 52 0b	 mov	 dl, BYTE PTR [edx+11]
  000b7	80 f3 eb	 xor	 bl, -21			; ffffffebH
  000ba	88 5d fa	 mov	 BYTE PTR __k$[ebp+10], bl
  000bd	3a d1		 cmp	 dl, cl
  000bf	74 08		 je	 SHORT $LN181@LoadString@4
  000c1	80 f2 ea	 xor	 dl, -22			; ffffffeaH
  000c4	88 55 fb	 mov	 BYTE PTR __k$[ebp+11], dl
  000c7	eb 40		 jmp	 SHORT $LN97@LoadString@4
$LN181@LoadString@4:
  000c9	c6 45 fb ea	 mov	 BYTE PTR __k$[ebp+11], -22 ; ffffffeaH
  000cd	eb 3a		 jmp	 SHORT $LN97@LoadString@4
$LN182@LoadString@4:
  000cf	c6 45 fa eb	 mov	 BYTE PTR __k$[ebp+10], -21 ; ffffffebH
  000d3	eb 34		 jmp	 SHORT $LN97@LoadString@4
$LN183@LoadString@4:
  000d5	c6 45 f9 ec	 mov	 BYTE PTR __k$[ebp+9], -20 ; ffffffecH
  000d9	eb 2e		 jmp	 SHORT $LN97@LoadString@4
$LN184@LoadString@4:
  000db	c6 45 f8 ed	 mov	 BYTE PTR __k$[ebp+8], -19 ; ffffffedH
  000df	eb 28		 jmp	 SHORT $LN97@LoadString@4
$LN186@LoadString@4:
  000e1	c6 45 f6 eb	 mov	 BYTE PTR __k$[ebp+6], -21 ; ffffffebH
  000e5	eb 22		 jmp	 SHORT $LN97@LoadString@4
$LN187@LoadString@4:
  000e7	c6 45 f5 ec	 mov	 BYTE PTR __k$[ebp+5], -20 ; ffffffecH
  000eb	eb 1c		 jmp	 SHORT $LN97@LoadString@4
$LN188@LoadString@4:
  000ed	c6 45 f4 ed	 mov	 BYTE PTR __k$[ebp+4], -19 ; ffffffedH
  000f1	eb 16		 jmp	 SHORT $LN97@LoadString@4
$LN189@LoadString@4:
  000f3	c6 45 f3 ea	 mov	 BYTE PTR __k$[ebp+3], -22 ; ffffffeaH
  000f7	eb 10		 jmp	 SHORT $LN97@LoadString@4
$LN190@LoadString@4:
  000f9	c6 45 f2 eb	 mov	 BYTE PTR __k$[ebp+2], -21 ; ffffffebH
  000fd	eb 0a		 jmp	 SHORT $LN97@LoadString@4
$LN191@LoadString@4:
  000ff	c6 45 f1 ec	 mov	 BYTE PTR __k$[ebp+1], -20 ; ffffffecH
  00103	eb 04		 jmp	 SHORT $LN97@LoadString@4
$LN192@LoadString@4:
  00105	c6 45 f0 ed	 mov	 BYTE PTR __k$[ebp], -19	; ffffffedH
$LN97@LoadString@4:
  00109	bf ed ec eb ea	 mov	 edi, -353637139		; eaebecedH
  0010e	31 7d f0	 xor	 DWORD PTR __k$[ebp], edi
  00111	6a 04		 push	 4
  00113	88 4d f7	 mov	 BYTE PTR __k$[ebp+7], cl
  00116	5e		 pop	 esi
$LL197@LoadString@4:
  00117	8b d6		 mov	 edx, esi
  00119	81 e2 03 00 00
	80		 and	 edx, -2147483645	; 80000003H
  0011f	79 05		 jns	 SHORT $LN219@LoadString@4
  00121	4a		 dec	 edx
  00122	83 ca fc	 or	 edx, -4			; fffffffcH
  00125	42		 inc	 edx
$LN219@LoadString@4:
  00126	b3 ed		 mov	 bl, -19			; ffffffedH
  00128	2a da		 sub	 bl, dl
  0012a	30 5c 35 f0	 xor	 BYTE PTR __k$[ebp+esi], bl
  0012e	46		 inc	 esi
  0012f	83 fe 07	 cmp	 esi, 7
  00132	7c e3		 jl	 SHORT $LL197@LoadString@4

; 154  : 		_ENCSTR(d, _d);

  00134	8a 10		 mov	 dl, BYTE PTR [eax]
  00136	3a d1		 cmp	 dl, cl
  00138	0f 84 b6 03 00
	00		 je	 $LN96@LoadString@4
  0013e	80 f2 ed	 xor	 dl, -19			; ffffffedH
  00141	88 55 c4	 mov	 BYTE PTR __d$[ebp], dl
  00144	8a 50 01	 mov	 dl, BYTE PTR [eax+1]
  00147	3a d1		 cmp	 dl, cl
  00149	0f 84 9f 03 00
	00		 je	 $LN95@LoadString@4
  0014f	80 f2 ec	 xor	 dl, -20			; ffffffecH
  00152	88 55 c5	 mov	 BYTE PTR __d$[ebp+1], dl
  00155	8a 50 02	 mov	 dl, BYTE PTR [eax+2]
  00158	3a d1		 cmp	 dl, cl
  0015a	0f 84 88 03 00
	00		 je	 $LN94@LoadString@4
  00160	80 f2 eb	 xor	 dl, -21			; ffffffebH
  00163	88 55 c6	 mov	 BYTE PTR __d$[ebp+2], dl
  00166	8a 50 03	 mov	 dl, BYTE PTR [eax+3]
  00169	3a d1		 cmp	 dl, cl
  0016b	0f 84 71 03 00
	00		 je	 $LN93@LoadString@4
  00171	80 f2 ea	 xor	 dl, -22			; ffffffeaH
  00174	88 55 c7	 mov	 BYTE PTR __d$[ebp+3], dl
  00177	8a 50 04	 mov	 dl, BYTE PTR [eax+4]
  0017a	3a d1		 cmp	 dl, cl
  0017c	0f 84 5a 03 00
	00		 je	 $LN92@LoadString@4
  00182	80 f2 ed	 xor	 dl, -19			; ffffffedH
  00185	88 55 c8	 mov	 BYTE PTR __d$[ebp+4], dl
  00188	8a 50 05	 mov	 dl, BYTE PTR [eax+5]
  0018b	3a d1		 cmp	 dl, cl
  0018d	0f 84 43 03 00
	00		 je	 $LN91@LoadString@4
  00193	80 f2 ec	 xor	 dl, -20			; ffffffecH
  00196	88 55 c9	 mov	 BYTE PTR __d$[ebp+5], dl
  00199	8a 50 06	 mov	 dl, BYTE PTR [eax+6]
  0019c	3a d1		 cmp	 dl, cl
  0019e	0f 84 2c 03 00
	00		 je	 $LN90@LoadString@4
  001a4	80 f2 eb	 xor	 dl, -21			; ffffffebH
  001a7	88 55 ca	 mov	 BYTE PTR __d$[ebp+6], dl
  001aa	8a 50 07	 mov	 dl, BYTE PTR [eax+7]
  001ad	3a d1		 cmp	 dl, cl
  001af	0f 84 15 03 00
	00		 je	 $LN89@LoadString@4
  001b5	80 f2 ea	 xor	 dl, -22			; ffffffeaH
  001b8	88 55 cb	 mov	 BYTE PTR __d$[ebp+7], dl
  001bb	8a 50 08	 mov	 dl, BYTE PTR [eax+8]
  001be	3a d1		 cmp	 dl, cl
  001c0	0f 84 fe 02 00
	00		 je	 $LN88@LoadString@4
  001c6	80 f2 ed	 xor	 dl, -19			; ffffffedH
  001c9	88 55 cc	 mov	 BYTE PTR __d$[ebp+8], dl
  001cc	8a 50 09	 mov	 dl, BYTE PTR [eax+9]
  001cf	3a d1		 cmp	 dl, cl
  001d1	0f 84 e7 02 00
	00		 je	 $LN87@LoadString@4
  001d7	80 f2 ec	 xor	 dl, -20			; ffffffecH
  001da	88 55 cd	 mov	 BYTE PTR __d$[ebp+9], dl
  001dd	8a 50 0a	 mov	 dl, BYTE PTR [eax+10]
  001e0	3a d1		 cmp	 dl, cl
  001e2	0f 84 d0 02 00
	00		 je	 $LN86@LoadString@4
  001e8	80 f2 eb	 xor	 dl, -21			; ffffffebH
  001eb	88 55 ce	 mov	 BYTE PTR __d$[ebp+10], dl
  001ee	8a 50 0b	 mov	 dl, BYTE PTR [eax+11]
  001f1	3a d1		 cmp	 dl, cl
  001f3	0f 84 b9 02 00
	00		 je	 $LN85@LoadString@4
  001f9	80 f2 ea	 xor	 dl, -22			; ffffffeaH
  001fc	88 55 cf	 mov	 BYTE PTR __d$[ebp+11], dl
  001ff	8a 50 0c	 mov	 dl, BYTE PTR [eax+12]
  00202	3a d1		 cmp	 dl, cl
  00204	0f 84 a2 02 00
	00		 je	 $LN84@LoadString@4
  0020a	80 f2 ed	 xor	 dl, -19			; ffffffedH
  0020d	88 55 d0	 mov	 BYTE PTR __d$[ebp+12], dl
  00210	8a 50 0d	 mov	 dl, BYTE PTR [eax+13]
  00213	3a d1		 cmp	 dl, cl
  00215	0f 84 8b 02 00
	00		 je	 $LN83@LoadString@4
  0021b	80 f2 ec	 xor	 dl, -20			; ffffffecH
  0021e	88 55 d1	 mov	 BYTE PTR __d$[ebp+13], dl
  00221	8a 50 0e	 mov	 dl, BYTE PTR [eax+14]
  00224	3a d1		 cmp	 dl, cl
  00226	0f 84 74 02 00
	00		 je	 $LN82@LoadString@4
  0022c	80 f2 eb	 xor	 dl, -21			; ffffffebH
  0022f	88 55 d2	 mov	 BYTE PTR __d$[ebp+14], dl
  00232	8a 50 0f	 mov	 dl, BYTE PTR [eax+15]
  00235	3a d1		 cmp	 dl, cl
  00237	0f 84 5d 02 00
	00		 je	 $LN81@LoadString@4
  0023d	80 f2 ea	 xor	 dl, -22			; ffffffeaH
  00240	88 55 d3	 mov	 BYTE PTR __d$[ebp+15], dl
  00243	8a 50 10	 mov	 dl, BYTE PTR [eax+16]
  00246	3a d1		 cmp	 dl, cl
  00248	0f 84 46 02 00
	00		 je	 $LN80@LoadString@4
  0024e	80 f2 ed	 xor	 dl, -19			; ffffffedH
  00251	88 55 d4	 mov	 BYTE PTR __d$[ebp+16], dl
  00254	8a 50 11	 mov	 dl, BYTE PTR [eax+17]
  00257	3a d1		 cmp	 dl, cl
  00259	0f 84 2f 02 00
	00		 je	 $LN79@LoadString@4
  0025f	80 f2 ec	 xor	 dl, -20			; ffffffecH
  00262	88 55 d5	 mov	 BYTE PTR __d$[ebp+17], dl
  00265	8a 50 12	 mov	 dl, BYTE PTR [eax+18]
  00268	3a d1		 cmp	 dl, cl
  0026a	0f 84 18 02 00
	00		 je	 $LN78@LoadString@4
  00270	80 f2 eb	 xor	 dl, -21			; ffffffebH
  00273	88 55 d6	 mov	 BYTE PTR __d$[ebp+18], dl
  00276	8a 50 13	 mov	 dl, BYTE PTR [eax+19]
  00279	3a d1		 cmp	 dl, cl
  0027b	0f 84 01 02 00
	00		 je	 $LN77@LoadString@4
  00281	80 f2 ea	 xor	 dl, -22			; ffffffeaH
  00284	88 55 d7	 mov	 BYTE PTR __d$[ebp+19], dl
  00287	8a 50 14	 mov	 dl, BYTE PTR [eax+20]
  0028a	3a d1		 cmp	 dl, cl
  0028c	0f 84 ea 01 00
	00		 je	 $LN76@LoadString@4
  00292	80 f2 ed	 xor	 dl, -19			; ffffffedH
  00295	88 55 d8	 mov	 BYTE PTR __d$[ebp+20], dl
  00298	8a 50 15	 mov	 dl, BYTE PTR [eax+21]
  0029b	3a d1		 cmp	 dl, cl
  0029d	0f 84 d3 01 00
	00		 je	 $LN75@LoadString@4
  002a3	80 f2 ec	 xor	 dl, -20			; ffffffecH
  002a6	88 55 d9	 mov	 BYTE PTR __d$[ebp+21], dl
  002a9	8a 50 16	 mov	 dl, BYTE PTR [eax+22]
  002ac	3a d1		 cmp	 dl, cl
  002ae	0f 84 b9 01 00
	00		 je	 $LN74@LoadString@4
  002b4	80 f2 eb	 xor	 dl, -21			; ffffffebH
  002b7	88 55 da	 mov	 BYTE PTR __d$[ebp+22], dl
  002ba	8a 50 17	 mov	 dl, BYTE PTR [eax+23]
  002bd	3a d1		 cmp	 dl, cl
  002bf	0f 84 9f 01 00
	00		 je	 $LN73@LoadString@4
  002c5	80 f2 ea	 xor	 dl, -22			; ffffffeaH
  002c8	88 55 db	 mov	 BYTE PTR __d$[ebp+23], dl
  002cb	8a 50 18	 mov	 dl, BYTE PTR [eax+24]
  002ce	3a d1		 cmp	 dl, cl
  002d0	0f 84 85 01 00
	00		 je	 $LN72@LoadString@4
  002d6	80 f2 ed	 xor	 dl, -19			; ffffffedH
  002d9	88 55 dc	 mov	 BYTE PTR __d$[ebp+24], dl
  002dc	8a 50 19	 mov	 dl, BYTE PTR [eax+25]
  002df	3a d1		 cmp	 dl, cl
  002e1	0f 84 6b 01 00
	00		 je	 $LN71@LoadString@4
  002e7	80 f2 ec	 xor	 dl, -20			; ffffffecH
  002ea	88 55 dd	 mov	 BYTE PTR __d$[ebp+25], dl
  002ed	8a 50 1a	 mov	 dl, BYTE PTR [eax+26]
  002f0	3a d1		 cmp	 dl, cl
  002f2	0f 84 51 01 00
	00		 je	 $LN70@LoadString@4
  002f8	80 f2 eb	 xor	 dl, -21			; ffffffebH
  002fb	88 55 de	 mov	 BYTE PTR __d$[ebp+26], dl
  002fe	8a 50 1b	 mov	 dl, BYTE PTR [eax+27]
  00301	3a d1		 cmp	 dl, cl
  00303	0f 84 37 01 00
	00		 je	 $LN69@LoadString@4
  00309	80 f2 ea	 xor	 dl, -22			; ffffffeaH
  0030c	88 55 df	 mov	 BYTE PTR __d$[ebp+27], dl
  0030f	8a 50 1c	 mov	 dl, BYTE PTR [eax+28]
  00312	3a d1		 cmp	 dl, cl
  00314	0f 84 1d 01 00
	00		 je	 $LN68@LoadString@4
  0031a	80 f2 ed	 xor	 dl, -19			; ffffffedH
  0031d	88 55 e0	 mov	 BYTE PTR __d$[ebp+28], dl
  00320	8a 50 1d	 mov	 dl, BYTE PTR [eax+29]
  00323	3a d1		 cmp	 dl, cl
  00325	0f 84 03 01 00
	00		 je	 $LN67@LoadString@4
  0032b	80 f2 ec	 xor	 dl, -20			; ffffffecH
  0032e	88 55 e1	 mov	 BYTE PTR __d$[ebp+29], dl
  00331	8a 50 1e	 mov	 dl, BYTE PTR [eax+30]
  00334	3a d1		 cmp	 dl, cl
  00336	0f 84 e9 00 00
	00		 je	 $LN66@LoadString@4
  0033c	80 f2 eb	 xor	 dl, -21			; ffffffebH
  0033f	88 55 e2	 mov	 BYTE PTR __d$[ebp+30], dl
  00342	8a 50 1f	 mov	 dl, BYTE PTR [eax+31]
  00345	3a d1		 cmp	 dl, cl
  00347	0f 84 cf 00 00
	00		 je	 $LN65@LoadString@4
  0034d	80 f2 ea	 xor	 dl, -22			; ffffffeaH
  00350	88 55 e3	 mov	 BYTE PTR __d$[ebp+31], dl
  00353	8a 50 20	 mov	 dl, BYTE PTR [eax+32]
  00356	3a d1		 cmp	 dl, cl
  00358	0f 84 b5 00 00
	00		 je	 $LN64@LoadString@4
  0035e	80 f2 ed	 xor	 dl, -19			; ffffffedH
  00361	88 55 e4	 mov	 BYTE PTR __d$[ebp+32], dl
  00364	8a 50 21	 mov	 dl, BYTE PTR [eax+33]
  00367	3a d1		 cmp	 dl, cl
  00369	0f 84 9b 00 00
	00		 je	 $LN63@LoadString@4
  0036f	80 f2 ec	 xor	 dl, -20			; ffffffecH
  00372	88 55 e5	 mov	 BYTE PTR __d$[ebp+33], dl
  00375	8a 50 22	 mov	 dl, BYTE PTR [eax+34]
  00378	3a d1		 cmp	 dl, cl
  0037a	0f 84 81 00 00
	00		 je	 $LN62@LoadString@4
  00380	80 f2 eb	 xor	 dl, -21			; ffffffebH
  00383	88 55 e6	 mov	 BYTE PTR __d$[ebp+34], dl
  00386	8a 50 23	 mov	 dl, BYTE PTR [eax+35]
  00389	3a d1		 cmp	 dl, cl
  0038b	74 6b		 je	 SHORT $LN61@LoadString@4
  0038d	80 f2 ea	 xor	 dl, -22			; ffffffeaH
  00390	88 55 e7	 mov	 BYTE PTR __d$[ebp+35], dl
  00393	38 48 24	 cmp	 BYTE PTR [eax+36], cl
  00396	0f 84 5c 01 00
	00		 je	 $LN1@LoadString@4
  0039c	8a 50 25	 mov	 dl, BYTE PTR [eax+37]
  0039f	3a d1		 cmp	 dl, cl
  003a1	74 4c		 je	 SHORT $LN59@LoadString@4
  003a3	80 f2 ec	 xor	 dl, -20			; ffffffecH
  003a6	88 55 e9	 mov	 BYTE PTR __d$[ebp+37], dl
  003a9	8a 50 26	 mov	 dl, BYTE PTR [eax+38]
  003ac	3a d1		 cmp	 dl, cl
  003ae	74 36		 je	 SHORT $LN58@LoadString@4
  003b0	80 f2 eb	 xor	 dl, -21			; ffffffebH
  003b3	88 55 ea	 mov	 BYTE PTR __d$[ebp+38], dl
  003b6	8a 50 27	 mov	 dl, BYTE PTR [eax+39]
  003b9	3a d1		 cmp	 dl, cl
  003bb	74 20		 je	 SHORT $LN57@LoadString@4
  003bd	8a 40 28	 mov	 al, BYTE PTR [eax+40]
  003c0	80 f2 ea	 xor	 dl, -22			; ffffffeaH
  003c3	88 55 eb	 mov	 BYTE PTR __d$[ebp+39], dl
  003c6	3a c1		 cmp	 al, cl
  003c8	74 0a		 je	 SHORT $LN56@LoadString@4
  003ca	34 ed		 xor	 al, -19			; ffffffedH
  003cc	88 45 ec	 mov	 BYTE PTR __d$[ebp+40], al
  003cf	e9 24 01 00 00	 jmp	 $LN1@LoadString@4
$LN56@LoadString@4:
  003d4	c6 45 ec ed	 mov	 BYTE PTR __d$[ebp+40], -19 ; ffffffedH
  003d8	e9 1b 01 00 00	 jmp	 $LN1@LoadString@4
$LN57@LoadString@4:
  003dd	c6 45 eb ea	 mov	 BYTE PTR __d$[ebp+39], -22 ; ffffffeaH
  003e1	e9 12 01 00 00	 jmp	 $LN1@LoadString@4
$LN58@LoadString@4:
  003e6	c6 45 ea eb	 mov	 BYTE PTR __d$[ebp+38], -21 ; ffffffebH
  003ea	e9 09 01 00 00	 jmp	 $LN1@LoadString@4
$LN59@LoadString@4:
  003ef	c6 45 e9 ec	 mov	 BYTE PTR __d$[ebp+37], -20 ; ffffffecH
  003f3	e9 00 01 00 00	 jmp	 $LN1@LoadString@4
$LN61@LoadString@4:
  003f8	c6 45 e7 ea	 mov	 BYTE PTR __d$[ebp+35], -22 ; ffffffeaH
  003fc	e9 f7 00 00 00	 jmp	 $LN1@LoadString@4
$LN62@LoadString@4:
  00401	c6 45 e6 eb	 mov	 BYTE PTR __d$[ebp+34], -21 ; ffffffebH
  00405	e9 ee 00 00 00	 jmp	 $LN1@LoadString@4
$LN63@LoadString@4:
  0040a	c6 45 e5 ec	 mov	 BYTE PTR __d$[ebp+33], -20 ; ffffffecH
  0040e	e9 e5 00 00 00	 jmp	 $LN1@LoadString@4
$LN64@LoadString@4:
  00413	c6 45 e4 ed	 mov	 BYTE PTR __d$[ebp+32], -19 ; ffffffedH
  00417	e9 dc 00 00 00	 jmp	 $LN1@LoadString@4
$LN65@LoadString@4:
  0041c	c6 45 e3 ea	 mov	 BYTE PTR __d$[ebp+31], -22 ; ffffffeaH
  00420	e9 d3 00 00 00	 jmp	 $LN1@LoadString@4
$LN66@LoadString@4:
  00425	c6 45 e2 eb	 mov	 BYTE PTR __d$[ebp+30], -21 ; ffffffebH
  00429	e9 ca 00 00 00	 jmp	 $LN1@LoadString@4
$LN67@LoadString@4:
  0042e	c6 45 e1 ec	 mov	 BYTE PTR __d$[ebp+29], -20 ; ffffffecH
  00432	e9 c1 00 00 00	 jmp	 $LN1@LoadString@4
$LN68@LoadString@4:
  00437	c6 45 e0 ed	 mov	 BYTE PTR __d$[ebp+28], -19 ; ffffffedH
  0043b	e9 b8 00 00 00	 jmp	 $LN1@LoadString@4
$LN69@LoadString@4:
  00440	c6 45 df ea	 mov	 BYTE PTR __d$[ebp+27], -22 ; ffffffeaH
  00444	e9 af 00 00 00	 jmp	 $LN1@LoadString@4
$LN70@LoadString@4:
  00449	c6 45 de eb	 mov	 BYTE PTR __d$[ebp+26], -21 ; ffffffebH
  0044d	e9 a6 00 00 00	 jmp	 $LN1@LoadString@4
$LN71@LoadString@4:
  00452	c6 45 dd ec	 mov	 BYTE PTR __d$[ebp+25], -20 ; ffffffecH
  00456	e9 9d 00 00 00	 jmp	 $LN1@LoadString@4
$LN72@LoadString@4:
  0045b	c6 45 dc ed	 mov	 BYTE PTR __d$[ebp+24], -19 ; ffffffedH
  0045f	e9 94 00 00 00	 jmp	 $LN1@LoadString@4
$LN73@LoadString@4:
  00464	c6 45 db ea	 mov	 BYTE PTR __d$[ebp+23], -22 ; ffffffeaH
  00468	e9 8b 00 00 00	 jmp	 $LN1@LoadString@4
$LN74@LoadString@4:
  0046d	c6 45 da eb	 mov	 BYTE PTR __d$[ebp+22], -21 ; ffffffebH
  00471	e9 82 00 00 00	 jmp	 $LN1@LoadString@4
$LN75@LoadString@4:
  00476	c6 45 d9 ec	 mov	 BYTE PTR __d$[ebp+21], -20 ; ffffffecH
  0047a	eb 7c		 jmp	 SHORT $LN1@LoadString@4
$LN76@LoadString@4:
  0047c	c6 45 d8 ed	 mov	 BYTE PTR __d$[ebp+20], -19 ; ffffffedH
  00480	eb 76		 jmp	 SHORT $LN1@LoadString@4
$LN77@LoadString@4:
  00482	c6 45 d7 ea	 mov	 BYTE PTR __d$[ebp+19], -22 ; ffffffeaH
  00486	eb 70		 jmp	 SHORT $LN1@LoadString@4
$LN78@LoadString@4:
  00488	c6 45 d6 eb	 mov	 BYTE PTR __d$[ebp+18], -21 ; ffffffebH
  0048c	eb 6a		 jmp	 SHORT $LN1@LoadString@4
$LN79@LoadString@4:
  0048e	c6 45 d5 ec	 mov	 BYTE PTR __d$[ebp+17], -20 ; ffffffecH
  00492	eb 64		 jmp	 SHORT $LN1@LoadString@4
$LN80@LoadString@4:
  00494	c6 45 d4 ed	 mov	 BYTE PTR __d$[ebp+16], -19 ; ffffffedH
  00498	eb 5e		 jmp	 SHORT $LN1@LoadString@4
$LN81@LoadString@4:
  0049a	c6 45 d3 ea	 mov	 BYTE PTR __d$[ebp+15], -22 ; ffffffeaH
  0049e	eb 58		 jmp	 SHORT $LN1@LoadString@4
$LN82@LoadString@4:
  004a0	c6 45 d2 eb	 mov	 BYTE PTR __d$[ebp+14], -21 ; ffffffebH
  004a4	eb 52		 jmp	 SHORT $LN1@LoadString@4
$LN83@LoadString@4:
  004a6	c6 45 d1 ec	 mov	 BYTE PTR __d$[ebp+13], -20 ; ffffffecH
  004aa	eb 4c		 jmp	 SHORT $LN1@LoadString@4
$LN84@LoadString@4:
  004ac	c6 45 d0 ed	 mov	 BYTE PTR __d$[ebp+12], -19 ; ffffffedH
  004b0	eb 46		 jmp	 SHORT $LN1@LoadString@4
$LN85@LoadString@4:
  004b2	c6 45 cf ea	 mov	 BYTE PTR __d$[ebp+11], -22 ; ffffffeaH
  004b6	eb 40		 jmp	 SHORT $LN1@LoadString@4
$LN86@LoadString@4:
  004b8	c6 45 ce eb	 mov	 BYTE PTR __d$[ebp+10], -21 ; ffffffebH
  004bc	eb 3a		 jmp	 SHORT $LN1@LoadString@4
$LN87@LoadString@4:
  004be	c6 45 cd ec	 mov	 BYTE PTR __d$[ebp+9], -20 ; ffffffecH
  004c2	eb 34		 jmp	 SHORT $LN1@LoadString@4
$LN88@LoadString@4:
  004c4	c6 45 cc ed	 mov	 BYTE PTR __d$[ebp+8], -19 ; ffffffedH
  004c8	eb 2e		 jmp	 SHORT $LN1@LoadString@4
$LN89@LoadString@4:
  004ca	c6 45 cb ea	 mov	 BYTE PTR __d$[ebp+7], -22 ; ffffffeaH
  004ce	eb 28		 jmp	 SHORT $LN1@LoadString@4
$LN90@LoadString@4:
  004d0	c6 45 ca eb	 mov	 BYTE PTR __d$[ebp+6], -21 ; ffffffebH
  004d4	eb 22		 jmp	 SHORT $LN1@LoadString@4
$LN91@LoadString@4:
  004d6	c6 45 c9 ec	 mov	 BYTE PTR __d$[ebp+5], -20 ; ffffffecH
  004da	eb 1c		 jmp	 SHORT $LN1@LoadString@4
$LN92@LoadString@4:
  004dc	c6 45 c8 ed	 mov	 BYTE PTR __d$[ebp+4], -19 ; ffffffedH
  004e0	eb 16		 jmp	 SHORT $LN1@LoadString@4
$LN93@LoadString@4:
  004e2	c6 45 c7 ea	 mov	 BYTE PTR __d$[ebp+3], -22 ; ffffffeaH
  004e6	eb 10		 jmp	 SHORT $LN1@LoadString@4
$LN94@LoadString@4:
  004e8	c6 45 c6 eb	 mov	 BYTE PTR __d$[ebp+2], -21 ; ffffffebH
  004ec	eb 0a		 jmp	 SHORT $LN1@LoadString@4
$LN95@LoadString@4:
  004ee	c6 45 c5 ec	 mov	 BYTE PTR __d$[ebp+1], -20 ; ffffffecH
  004f2	eb 04		 jmp	 SHORT $LN1@LoadString@4
$LN96@LoadString@4:
  004f4	c6 45 c4 ed	 mov	 BYTE PTR __d$[ebp], -19	; ffffffedH
$LN1@LoadString@4:
  004f8	6a 09		 push	 9
  004fa	8d 45 c4	 lea	 eax, DWORD PTR __d$[ebp]
  004fd	88 4d e8	 mov	 BYTE PTR __d$[ebp+36], cl
  00500	5a		 pop	 edx
$LL208@LoadString@4:
  00501	31 38		 xor	 DWORD PTR [eax], edi
  00503	83 c0 04	 add	 eax, 4
  00506	4a		 dec	 edx
  00507	75 f8		 jne	 SHORT $LL208@LoadString@4

; 155  : 		LoadString(_k, _d, b, i);

  00509	ff 75 14	 push	 DWORD PTR _i$[ebp]
  0050c	8b 4d c0	 mov	 ecx, DWORD PTR _this$GSCopy$[ebp]
  0050f	ff 75 bc	 push	 DWORD PTR _b$GSCopy$[ebp]
  00512	8d 45 c4	 lea	 eax, DWORD PTR __d$[ebp]
  00515	50		 push	 eax
  00516	8d 45 f0	 lea	 eax, DWORD PTR __k$[ebp]
  00519	50		 push	 eax
  0051a	ff 15 00 00 00
	00		 call	 DWORD PTR __imp_?LoadStringA@ioINILoader@@QAEXPBD0PADH@Z

; 156  : 	}

  00520	8b 4d fc	 mov	 ecx, DWORD PTR __$ArrayPad$[ebp]
  00523	5f		 pop	 edi
  00524	5e		 pop	 esi
  00525	33 cd		 xor	 ecx, ebp
  00527	5b		 pop	 ebx
  00528	e8 00 00 00 00	 call	 @__security_check_cookie@4
  0052d	c9		 leave
  0052e	c2 10 00	 ret	 16			; 00000010H
??$LoadString_e@$07$0CF@@ioINILoader@@QAEXAAY07$$CBDAAY0CF@$$CBDPADH@Z ENDP ; ioINILoader::LoadString_e<8,37>
_TEXT	ENDS
PUBLIC	__$ArrayPad$
PUBLIC	??$LoadInt_e@$0M@@ioINILoader@@QAEHAAY0M@$$CBDH@Z ; ioINILoader::LoadInt_e<12>
; Function compile flags: /Ogsp
;	COMDAT ??$LoadInt_e@$0M@@ioINILoader@@QAEHAAY0M@$$CBDH@Z
_TEXT	SEGMENT
__k$ = -20						; size = 12
__$ArrayPad$ = -4					; size = 4
_k$ = 8							; size = 4
_i$ = 12						; size = 4
??$LoadInt_e@$0M@@ioINILoader@@QAEHAAY0M@$$CBDH@Z PROC	; ioINILoader::LoadInt_e<12>, COMDAT
; _this$ = ecx

; 118  : 	{

  00000	55		 push	 ebp
  00001	8b ec		 mov	 ebp, esp
  00003	83 ec 14	 sub	 esp, 20			; 00000014H
  00006	a1 00 00 00 00	 mov	 eax, DWORD PTR ___security_cookie
  0000b	33 c5		 xor	 eax, ebp
  0000d	89 45 fc	 mov	 DWORD PTR __$ArrayPad$[ebp], eax
  00010	8b 45 08	 mov	 eax, DWORD PTR _k$[ebp]

; 119  : 		_ENCSTR(k, _k);

  00013	8a 10		 mov	 dl, BYTE PTR [eax]
  00015	56		 push	 esi
  00016	8b f1		 mov	 esi, ecx
  00018	84 d2		 test	 dl, dl
  0001a	0f 84 32 01 00
	00		 je	 $LN96@LoadInt_e@6
  00020	80 f2 ed	 xor	 dl, -19			; ffffffedH
  00023	88 55 ec	 mov	 BYTE PTR __k$[ebp], dl
  00026	8a 50 01	 mov	 dl, BYTE PTR [eax+1]
  00029	84 d2		 test	 dl, dl
  0002b	0f 84 1b 01 00
	00		 je	 $LN95@LoadInt_e@6
  00031	80 f2 ec	 xor	 dl, -20			; ffffffecH
  00034	88 55 ed	 mov	 BYTE PTR __k$[ebp+1], dl
  00037	8a 50 02	 mov	 dl, BYTE PTR [eax+2]
  0003a	84 d2		 test	 dl, dl
  0003c	0f 84 04 01 00
	00		 je	 $LN94@LoadInt_e@6
  00042	b1 eb		 mov	 cl, -21			; ffffffebH
  00044	32 d1		 xor	 dl, cl
  00046	88 55 ee	 mov	 BYTE PTR __k$[ebp+2], dl
  00049	8a 50 03	 mov	 dl, BYTE PTR [eax+3]
  0004c	84 d2		 test	 dl, dl
  0004e	0f 84 ec 00 00
	00		 je	 $LN93@LoadInt_e@6
  00054	80 f2 ea	 xor	 dl, -22			; ffffffeaH
  00057	88 55 ef	 mov	 BYTE PTR __k$[ebp+3], dl
  0005a	8a 50 04	 mov	 dl, BYTE PTR [eax+4]
  0005d	84 d2		 test	 dl, dl
  0005f	0f 84 d5 00 00
	00		 je	 $LN92@LoadInt_e@6
  00065	80 f2 ed	 xor	 dl, -19			; ffffffedH
  00068	88 55 f0	 mov	 BYTE PTR __k$[ebp+4], dl
  0006b	8a 50 05	 mov	 dl, BYTE PTR [eax+5]
  0006e	84 d2		 test	 dl, dl
  00070	0f 84 be 00 00
	00		 je	 $LN91@LoadInt_e@6
  00076	80 f2 ec	 xor	 dl, -20			; ffffffecH
  00079	88 55 f1	 mov	 BYTE PTR __k$[ebp+5], dl
  0007c	8a 50 06	 mov	 dl, BYTE PTR [eax+6]
  0007f	84 d2		 test	 dl, dl
  00081	0f 84 a8 00 00
	00		 je	 $LN90@LoadInt_e@6
  00087	32 d1		 xor	 dl, cl
  00089	88 55 f2	 mov	 BYTE PTR __k$[ebp+6], dl
  0008c	8a 50 07	 mov	 dl, BYTE PTR [eax+7]
  0008f	84 d2		 test	 dl, dl
  00091	0f 84 92 00 00
	00		 je	 $LN89@LoadInt_e@6
  00097	80 f2 ea	 xor	 dl, -22			; ffffffeaH
  0009a	88 55 f3	 mov	 BYTE PTR __k$[ebp+7], dl
  0009d	8a 50 08	 mov	 dl, BYTE PTR [eax+8]
  000a0	84 d2		 test	 dl, dl
  000a2	74 7f		 je	 SHORT $LN88@LoadInt_e@6
  000a4	80 f2 ed	 xor	 dl, -19			; ffffffedH
  000a7	88 55 f4	 mov	 BYTE PTR __k$[ebp+8], dl
  000aa	8a 50 09	 mov	 dl, BYTE PTR [eax+9]
  000ad	84 d2		 test	 dl, dl
  000af	74 6c		 je	 SHORT $LN87@LoadInt_e@6
  000b1	80 f2 ec	 xor	 dl, -20			; ffffffecH
  000b4	88 55 f5	 mov	 BYTE PTR __k$[ebp+9], dl
  000b7	8a 50 0a	 mov	 dl, BYTE PTR [eax+10]
  000ba	84 d2		 test	 dl, dl
  000bc	74 5a		 je	 SHORT $LN86@LoadInt_e@6
  000be	32 d1		 xor	 dl, cl
  000c0	80 78 0b 00	 cmp	 BYTE PTR [eax+11], 0
  000c4	88 55 f6	 mov	 BYTE PTR __k$[ebp+10], dl
  000c7	0f 84 89 00 00
	00		 je	 $LN1@LoadInt_e@6
  000cd	8a 50 0c	 mov	 dl, BYTE PTR [eax+12]
  000d0	84 d2		 test	 dl, dl
  000d2	74 3e		 je	 SHORT $LN84@LoadInt_e@6
  000d4	80 f2 ed	 xor	 dl, -19			; ffffffedH
  000d7	88 55 f8	 mov	 BYTE PTR __k$[ebp+12], dl
  000da	8a 50 0d	 mov	 dl, BYTE PTR [eax+13]
  000dd	84 d2		 test	 dl, dl
  000df	74 2b		 je	 SHORT $LN83@LoadInt_e@6
  000e1	80 f2 ec	 xor	 dl, -20			; ffffffecH
  000e4	88 55 f9	 mov	 BYTE PTR __k$[ebp+13], dl
  000e7	8a 50 0e	 mov	 dl, BYTE PTR [eax+14]
  000ea	84 d2		 test	 dl, dl
  000ec	74 19		 je	 SHORT $LN82@LoadInt_e@6
  000ee	8a 40 0f	 mov	 al, BYTE PTR [eax+15]
  000f1	32 d1		 xor	 dl, cl
  000f3	88 55 fa	 mov	 BYTE PTR __k$[ebp+14], dl
  000f6	84 c0		 test	 al, al
  000f8	74 07		 je	 SHORT $LN81@LoadInt_e@6
  000fa	34 ea		 xor	 al, -22			; ffffffeaH
  000fc	88 45 fb	 mov	 BYTE PTR __k$[ebp+15], al
  000ff	eb 55		 jmp	 SHORT $LN1@LoadInt_e@6
$LN81@LoadInt_e@6:
  00101	c6 45 fb ea	 mov	 BYTE PTR __k$[ebp+15], -22 ; ffffffeaH
  00105	eb 4f		 jmp	 SHORT $LN1@LoadInt_e@6
$LN82@LoadInt_e@6:
  00107	88 4d fa	 mov	 BYTE PTR __k$[ebp+14], cl
  0010a	eb 4a		 jmp	 SHORT $LN1@LoadInt_e@6
$LN83@LoadInt_e@6:
  0010c	c6 45 f9 ec	 mov	 BYTE PTR __k$[ebp+13], -20 ; ffffffecH
  00110	eb 44		 jmp	 SHORT $LN1@LoadInt_e@6
$LN84@LoadInt_e@6:
  00112	c6 45 f8 ed	 mov	 BYTE PTR __k$[ebp+12], -19 ; ffffffedH
  00116	eb 3e		 jmp	 SHORT $LN1@LoadInt_e@6
$LN86@LoadInt_e@6:
  00118	88 4d f6	 mov	 BYTE PTR __k$[ebp+10], cl
  0011b	eb 39		 jmp	 SHORT $LN1@LoadInt_e@6
$LN87@LoadInt_e@6:
  0011d	c6 45 f5 ec	 mov	 BYTE PTR __k$[ebp+9], -20 ; ffffffecH
  00121	eb 33		 jmp	 SHORT $LN1@LoadInt_e@6
$LN88@LoadInt_e@6:
  00123	c6 45 f4 ed	 mov	 BYTE PTR __k$[ebp+8], -19 ; ffffffedH
  00127	eb 2d		 jmp	 SHORT $LN1@LoadInt_e@6
$LN89@LoadInt_e@6:
  00129	c6 45 f3 ea	 mov	 BYTE PTR __k$[ebp+7], -22 ; ffffffeaH
  0012d	eb 27		 jmp	 SHORT $LN1@LoadInt_e@6
$LN90@LoadInt_e@6:
  0012f	88 4d f2	 mov	 BYTE PTR __k$[ebp+6], cl
  00132	eb 22		 jmp	 SHORT $LN1@LoadInt_e@6
$LN91@LoadInt_e@6:
  00134	c6 45 f1 ec	 mov	 BYTE PTR __k$[ebp+5], -20 ; ffffffecH
  00138	eb 1c		 jmp	 SHORT $LN1@LoadInt_e@6
$LN92@LoadInt_e@6:
  0013a	c6 45 f0 ed	 mov	 BYTE PTR __k$[ebp+4], -19 ; ffffffedH
  0013e	eb 16		 jmp	 SHORT $LN1@LoadInt_e@6
$LN93@LoadInt_e@6:
  00140	c6 45 ef ea	 mov	 BYTE PTR __k$[ebp+3], -22 ; ffffffeaH
  00144	eb 10		 jmp	 SHORT $LN1@LoadInt_e@6
$LN94@LoadInt_e@6:
  00146	c6 45 ee eb	 mov	 BYTE PTR __k$[ebp+2], -21 ; ffffffebH
  0014a	eb 0a		 jmp	 SHORT $LN1@LoadInt_e@6
$LN95@LoadInt_e@6:
  0014c	c6 45 ed ec	 mov	 BYTE PTR __k$[ebp+1], -20 ; ffffffecH
  00150	eb 04		 jmp	 SHORT $LN1@LoadInt_e@6
$LN96@LoadInt_e@6:
  00152	c6 45 ec ed	 mov	 BYTE PTR __k$[ebp], -19	; ffffffedH
$LN1@LoadInt_e@6:
  00156	6a 02		 push	 2
  00158	8d 45 ec	 lea	 eax, DWORD PTR __k$[ebp]
  0015b	c6 45 f7 00	 mov	 BYTE PTR __k$[ebp+11], 0
  0015f	5a		 pop	 edx
$LL104@LoadInt_e@6:
  00160	81 30 ed ec eb
	ea		 xor	 DWORD PTR [eax], -353637139 ; eaebecedH
  00166	83 c0 04	 add	 eax, 4
  00169	4a		 dec	 edx
  0016a	75 f4		 jne	 SHORT $LL104@LoadInt_e@6
  0016c	6a 08		 push	 8
  0016e	58		 pop	 eax
$LL101@LoadInt_e@6:
  0016f	8b c8		 mov	 ecx, eax
  00171	81 e1 03 00 00
	80		 and	 ecx, -2147483645	; 80000003H
  00177	79 05		 jns	 SHORT $LN111@LoadInt_e@6
  00179	49		 dec	 ecx
  0017a	83 c9 fc	 or	 ecx, -4			; fffffffcH
  0017d	41		 inc	 ecx
$LN111@LoadInt_e@6:
  0017e	b2 ed		 mov	 dl, -19			; ffffffedH
  00180	2a d1		 sub	 dl, cl
  00182	30 54 05 ec	 xor	 BYTE PTR __k$[ebp+eax], dl
  00186	40		 inc	 eax
  00187	83 f8 0b	 cmp	 eax, 11			; 0000000bH
  0018a	7c e3		 jl	 SHORT $LL101@LoadInt_e@6

; 120  : 		return LoadInt(_k, i);

  0018c	ff 75 0c	 push	 DWORD PTR _i$[ebp]
  0018f	8d 45 ec	 lea	 eax, DWORD PTR __k$[ebp]
  00192	50		 push	 eax
  00193	8b ce		 mov	 ecx, esi
  00195	ff 15 00 00 00
	00		 call	 DWORD PTR __imp_?LoadInt@ioINILoader@@QAEHPBDH@Z

; 121  : 	}

  0019b	8b 4d fc	 mov	 ecx, DWORD PTR __$ArrayPad$[ebp]
  0019e	33 cd		 xor	 ecx, ebp
  001a0	5e		 pop	 esi
  001a1	e8 00 00 00 00	 call	 @__security_check_cookie@4
  001a6	c9		 leave
  001a7	c2 08 00	 ret	 8
??$LoadInt_e@$0M@@ioINILoader@@QAEHAAY0M@$$CBDH@Z ENDP	; ioINILoader::LoadInt_e<12>
_TEXT	ENDS
PUBLIC	__$ArrayPad$
PUBLIC	??$LoadString_e@$09@ioINILoader@@QAEXAAY09$$CBDAAY00$$CBDPADH@Z ; ioINILoader::LoadString_e<10>
; Function compile flags: /Ogsp
;	COMDAT ??$LoadString_e@$09@ioINILoader@@QAEXAAY09$$CBDAAY00$$CBDPADH@Z
_TEXT	SEGMENT
__k$ = -20						; size = 10
__$ArrayPad$ = -4					; size = 4
_k$ = 8							; size = 4
_d$ = 12						; size = 4
_b$ = 16						; size = 4
_i$ = 20						; size = 4
??$LoadString_e@$09@ioINILoader@@QAEXAAY09$$CBDAAY00$$CBDPADH@Z PROC ; ioINILoader::LoadString_e<10>, COMDAT
; _this$ = ecx

; 161  : 	{

  00000	55		 push	 ebp
  00001	8b ec		 mov	 ebp, esp
  00003	83 ec 14	 sub	 esp, 20			; 00000014H
  00006	a1 00 00 00 00	 mov	 eax, DWORD PTR ___security_cookie
  0000b	33 c5		 xor	 eax, ebp
  0000d	89 45 fc	 mov	 DWORD PTR __$ArrayPad$[ebp], eax
  00010	8b 45 08	 mov	 eax, DWORD PTR _k$[ebp]

; 162  : 		_ENCSTR(k, _k);

  00013	8a 10		 mov	 dl, BYTE PTR [eax]
  00015	56		 push	 esi
  00016	8b 75 0c	 mov	 esi, DWORD PTR _d$[ebp]
  00019	57		 push	 edi
  0001a	8b 7d 10	 mov	 edi, DWORD PTR _b$[ebp]
  0001d	84 d2		 test	 dl, dl
  0001f	0f 84 0d 01 00
	00		 je	 $LN96@LoadString@5
  00025	80 f2 ed	 xor	 dl, -19			; ffffffedH
  00028	88 55 ec	 mov	 BYTE PTR __k$[ebp], dl
  0002b	8a 50 01	 mov	 dl, BYTE PTR [eax+1]
  0002e	84 d2		 test	 dl, dl
  00030	0f 84 f6 00 00
	00		 je	 $LN95@LoadString@5
  00036	80 f2 ec	 xor	 dl, -20			; ffffffecH
  00039	88 55 ed	 mov	 BYTE PTR __k$[ebp+1], dl
  0003c	8a 50 02	 mov	 dl, BYTE PTR [eax+2]
  0003f	84 d2		 test	 dl, dl
  00041	0f 84 df 00 00
	00		 je	 $LN94@LoadString@5
  00047	80 f2 eb	 xor	 dl, -21			; ffffffebH
  0004a	88 55 ee	 mov	 BYTE PTR __k$[ebp+2], dl
  0004d	8a 50 03	 mov	 dl, BYTE PTR [eax+3]
  00050	84 d2		 test	 dl, dl
  00052	0f 84 c8 00 00
	00		 je	 $LN93@LoadString@5
  00058	80 f2 ea	 xor	 dl, -22			; ffffffeaH
  0005b	88 55 ef	 mov	 BYTE PTR __k$[ebp+3], dl
  0005e	8a 50 04	 mov	 dl, BYTE PTR [eax+4]
  00061	84 d2		 test	 dl, dl
  00063	0f 84 b1 00 00
	00		 je	 $LN92@LoadString@5
  00069	80 f2 ed	 xor	 dl, -19			; ffffffedH
  0006c	88 55 f0	 mov	 BYTE PTR __k$[ebp+4], dl
  0006f	8a 50 05	 mov	 dl, BYTE PTR [eax+5]
  00072	84 d2		 test	 dl, dl
  00074	0f 84 9a 00 00
	00		 je	 $LN91@LoadString@5
  0007a	80 f2 ec	 xor	 dl, -20			; ffffffecH
  0007d	88 55 f1	 mov	 BYTE PTR __k$[ebp+5], dl
  00080	8a 50 06	 mov	 dl, BYTE PTR [eax+6]
  00083	84 d2		 test	 dl, dl
  00085	0f 84 83 00 00
	00		 je	 $LN90@LoadString@5
  0008b	80 f2 eb	 xor	 dl, -21			; ffffffebH
  0008e	88 55 f2	 mov	 BYTE PTR __k$[ebp+6], dl
  00091	8a 50 07	 mov	 dl, BYTE PTR [eax+7]
  00094	84 d2		 test	 dl, dl
  00096	74 70		 je	 SHORT $LN89@LoadString@5
  00098	80 f2 ea	 xor	 dl, -22			; ffffffeaH
  0009b	88 55 f3	 mov	 BYTE PTR __k$[ebp+7], dl
  0009e	8a 50 08	 mov	 dl, BYTE PTR [eax+8]
  000a1	84 d2		 test	 dl, dl
  000a3	74 5d		 je	 SHORT $LN88@LoadString@5
  000a5	80 f2 ed	 xor	 dl, -19			; ffffffedH
  000a8	80 78 09 00	 cmp	 BYTE PTR [eax+9], 0
  000ac	88 55 f4	 mov	 BYTE PTR __k$[ebp+8], dl
  000af	0f 84 81 00 00
	00		 je	 $LN1@LoadString@5
  000b5	8a 50 0a	 mov	 dl, BYTE PTR [eax+10]
  000b8	84 d2		 test	 dl, dl
  000ba	74 40		 je	 SHORT $LN86@LoadString@5
  000bc	80 f2 eb	 xor	 dl, -21			; ffffffebH
  000bf	88 55 f6	 mov	 BYTE PTR __k$[ebp+10], dl
  000c2	8a 50 0b	 mov	 dl, BYTE PTR [eax+11]
  000c5	84 d2		 test	 dl, dl
  000c7	74 2d		 je	 SHORT $LN85@LoadString@5
  000c9	80 f2 ea	 xor	 dl, -22			; ffffffeaH
  000cc	88 55 f7	 mov	 BYTE PTR __k$[ebp+11], dl
  000cf	8a 50 0c	 mov	 dl, BYTE PTR [eax+12]
  000d2	84 d2		 test	 dl, dl
  000d4	74 1a		 je	 SHORT $LN84@LoadString@5
  000d6	8a 40 0d	 mov	 al, BYTE PTR [eax+13]
  000d9	80 f2 ed	 xor	 dl, -19			; ffffffedH
  000dc	88 55 f8	 mov	 BYTE PTR __k$[ebp+12], dl
  000df	84 c0		 test	 al, al
  000e1	74 07		 je	 SHORT $LN83@LoadString@5
  000e3	34 ec		 xor	 al, -20			; ffffffecH
  000e5	88 45 f9	 mov	 BYTE PTR __k$[ebp+13], al
  000e8	eb 4c		 jmp	 SHORT $LN1@LoadString@5
$LN83@LoadString@5:
  000ea	c6 45 f9 ec	 mov	 BYTE PTR __k$[ebp+13], -20 ; ffffffecH
  000ee	eb 46		 jmp	 SHORT $LN1@LoadString@5
$LN84@LoadString@5:
  000f0	c6 45 f8 ed	 mov	 BYTE PTR __k$[ebp+12], -19 ; ffffffedH
  000f4	eb 40		 jmp	 SHORT $LN1@LoadString@5
$LN85@LoadString@5:
  000f6	c6 45 f7 ea	 mov	 BYTE PTR __k$[ebp+11], -22 ; ffffffeaH
  000fa	eb 3a		 jmp	 SHORT $LN1@LoadString@5
$LN86@LoadString@5:
  000fc	c6 45 f6 eb	 mov	 BYTE PTR __k$[ebp+10], -21 ; ffffffebH
  00100	eb 34		 jmp	 SHORT $LN1@LoadString@5
$LN88@LoadString@5:
  00102	c6 45 f4 ed	 mov	 BYTE PTR __k$[ebp+8], -19 ; ffffffedH
  00106	eb 2e		 jmp	 SHORT $LN1@LoadString@5
$LN89@LoadString@5:
  00108	c6 45 f3 ea	 mov	 BYTE PTR __k$[ebp+7], -22 ; ffffffeaH
  0010c	eb 28		 jmp	 SHORT $LN1@LoadString@5
$LN90@LoadString@5:
  0010e	c6 45 f2 eb	 mov	 BYTE PTR __k$[ebp+6], -21 ; ffffffebH
  00112	eb 22		 jmp	 SHORT $LN1@LoadString@5
$LN91@LoadString@5:
  00114	c6 45 f1 ec	 mov	 BYTE PTR __k$[ebp+5], -20 ; ffffffecH
  00118	eb 1c		 jmp	 SHORT $LN1@LoadString@5
$LN92@LoadString@5:
  0011a	c6 45 f0 ed	 mov	 BYTE PTR __k$[ebp+4], -19 ; ffffffedH
  0011e	eb 16		 jmp	 SHORT $LN1@LoadString@5
$LN93@LoadString@5:
  00120	c6 45 ef ea	 mov	 BYTE PTR __k$[ebp+3], -22 ; ffffffeaH
  00124	eb 10		 jmp	 SHORT $LN1@LoadString@5
$LN94@LoadString@5:
  00126	c6 45 ee eb	 mov	 BYTE PTR __k$[ebp+2], -21 ; ffffffebH
  0012a	eb 0a		 jmp	 SHORT $LN1@LoadString@5
$LN95@LoadString@5:
  0012c	c6 45 ed ec	 mov	 BYTE PTR __k$[ebp+1], -20 ; ffffffecH
  00130	eb 04		 jmp	 SHORT $LN1@LoadString@5
$LN96@LoadString@5:
  00132	c6 45 ec ed	 mov	 BYTE PTR __k$[ebp], -19	; ffffffedH
$LN1@LoadString@5:
  00136	6a 02		 push	 2
  00138	8d 45 ec	 lea	 eax, DWORD PTR __k$[ebp]
  0013b	c6 45 f5 00	 mov	 BYTE PTR __k$[ebp+9], 0
  0013f	5a		 pop	 edx
$LL104@LoadString@5:
  00140	81 30 ed ec eb
	ea		 xor	 DWORD PTR [eax], -353637139 ; eaebecedH
  00146	83 c0 04	 add	 eax, 4
  00149	4a		 dec	 edx
  0014a	75 f4		 jne	 SHORT $LL104@LoadString@5

; 163  : 		LoadString(_k, d, b, i);

  0014c	ff 75 14	 push	 DWORD PTR _i$[ebp]
  0014f	80 75 f4 ed	 xor	 BYTE PTR __k$[ebp+8], -19 ; ffffffedH
  00153	57		 push	 edi
  00154	56		 push	 esi
  00155	8d 45 ec	 lea	 eax, DWORD PTR __k$[ebp]
  00158	50		 push	 eax
  00159	ff 15 00 00 00
	00		 call	 DWORD PTR __imp_?LoadStringA@ioINILoader@@QAEXPBD0PADH@Z

; 164  : 	}

  0015f	8b 4d fc	 mov	 ecx, DWORD PTR __$ArrayPad$[ebp]
  00162	5f		 pop	 edi
  00163	33 cd		 xor	 ecx, ebp
  00165	5e		 pop	 esi
  00166	e8 00 00 00 00	 call	 @__security_check_cookie@4
  0016b	c9		 leave
  0016c	c2 10 00	 ret	 16			; 00000010H
??$LoadString_e@$09@ioINILoader@@QAEXAAY09$$CBDAAY00$$CBDPADH@Z ENDP ; ioINILoader::LoadString_e<10>
_TEXT	ENDS
PUBLIC	__$ArrayPad$
PUBLIC	??$LoadString_e@$07@ioINILoader@@QAEXAAY07$$CBDAAY00$$CBDPADH@Z ; ioINILoader::LoadString_e<8>
; Function compile flags: /Ogsp
;	COMDAT ??$LoadString_e@$07@ioINILoader@@QAEXAAY07$$CBDAAY00$$CBDPADH@Z
_TEXT	SEGMENT
__k$ = -16						; size = 8
__$ArrayPad$ = -4					; size = 4
_k$ = 8							; size = 4
_d$ = 12						; size = 4
_b$ = 16						; size = 4
_i$ = 20						; size = 4
??$LoadString_e@$07@ioINILoader@@QAEXAAY07$$CBDAAY00$$CBDPADH@Z PROC ; ioINILoader::LoadString_e<8>, COMDAT
; _this$ = ecx

; 161  : 	{

  00000	55		 push	 ebp
  00001	8b ec		 mov	 ebp, esp
  00003	83 ec 10	 sub	 esp, 16			; 00000010H
  00006	a1 00 00 00 00	 mov	 eax, DWORD PTR ___security_cookie
  0000b	33 c5		 xor	 eax, ebp
  0000d	89 45 fc	 mov	 DWORD PTR __$ArrayPad$[ebp], eax
  00010	8b 45 08	 mov	 eax, DWORD PTR _k$[ebp]

; 162  : 		_ENCSTR(k, _k);

  00013	8a 10		 mov	 dl, BYTE PTR [eax]
  00015	53		 push	 ebx
  00016	56		 push	 esi
  00017	8b 75 0c	 mov	 esi, DWORD PTR _d$[ebp]
  0001a	57		 push	 edi
  0001b	8b 7d 10	 mov	 edi, DWORD PTR _b$[ebp]
  0001e	84 d2		 test	 dl, dl
  00020	0f 84 d7 00 00
	00		 je	 $LN96@LoadString@6
  00026	80 f2 ed	 xor	 dl, -19			; ffffffedH
  00029	88 55 f0	 mov	 BYTE PTR __k$[ebp], dl
  0002c	8a 50 01	 mov	 dl, BYTE PTR [eax+1]
  0002f	84 d2		 test	 dl, dl
  00031	0f 84 c0 00 00
	00		 je	 $LN95@LoadString@6
  00037	80 f2 ec	 xor	 dl, -20			; ffffffecH
  0003a	88 55 f1	 mov	 BYTE PTR __k$[ebp+1], dl
  0003d	8a 50 02	 mov	 dl, BYTE PTR [eax+2]
  00040	84 d2		 test	 dl, dl
  00042	0f 84 a9 00 00
	00		 je	 $LN94@LoadString@6
  00048	80 f2 eb	 xor	 dl, -21			; ffffffebH
  0004b	88 55 f2	 mov	 BYTE PTR __k$[ebp+2], dl
  0004e	8a 50 03	 mov	 dl, BYTE PTR [eax+3]
  00051	84 d2		 test	 dl, dl
  00053	0f 84 92 00 00
	00		 je	 $LN93@LoadString@6
  00059	80 f2 ea	 xor	 dl, -22			; ffffffeaH
  0005c	88 55 f3	 mov	 BYTE PTR __k$[ebp+3], dl
  0005f	8a 50 04	 mov	 dl, BYTE PTR [eax+4]
  00062	84 d2		 test	 dl, dl
  00064	74 7f		 je	 SHORT $LN92@LoadString@6
  00066	80 f2 ed	 xor	 dl, -19			; ffffffedH
  00069	88 55 f4	 mov	 BYTE PTR __k$[ebp+4], dl
  0006c	8a 50 05	 mov	 dl, BYTE PTR [eax+5]
  0006f	84 d2		 test	 dl, dl
  00071	74 6c		 je	 SHORT $LN91@LoadString@6
  00073	80 f2 ec	 xor	 dl, -20			; ffffffecH
  00076	88 55 f5	 mov	 BYTE PTR __k$[ebp+5], dl
  00079	8a 50 06	 mov	 dl, BYTE PTR [eax+6]
  0007c	84 d2		 test	 dl, dl
  0007e	74 59		 je	 SHORT $LN90@LoadString@6
  00080	80 f2 eb	 xor	 dl, -21			; ffffffebH
  00083	80 78 07 00	 cmp	 BYTE PTR [eax+7], 0
  00087	88 55 f6	 mov	 BYTE PTR __k$[ebp+6], dl
  0008a	74 75		 je	 SHORT $LN1@LoadString@6
  0008c	8a 50 08	 mov	 dl, BYTE PTR [eax+8]
  0008f	84 d2		 test	 dl, dl
  00091	74 40		 je	 SHORT $LN88@LoadString@6
  00093	80 f2 ed	 xor	 dl, -19			; ffffffedH
  00096	88 55 f8	 mov	 BYTE PTR __k$[ebp+8], dl
  00099	8a 50 09	 mov	 dl, BYTE PTR [eax+9]
  0009c	84 d2		 test	 dl, dl
  0009e	74 2d		 je	 SHORT $LN87@LoadString@6
  000a0	80 f2 ec	 xor	 dl, -20			; ffffffecH
  000a3	88 55 f9	 mov	 BYTE PTR __k$[ebp+9], dl
  000a6	8a 50 0a	 mov	 dl, BYTE PTR [eax+10]
  000a9	84 d2		 test	 dl, dl
  000ab	74 1a		 je	 SHORT $LN86@LoadString@6
  000ad	8a 40 0b	 mov	 al, BYTE PTR [eax+11]
  000b0	80 f2 eb	 xor	 dl, -21			; ffffffebH
  000b3	88 55 fa	 mov	 BYTE PTR __k$[ebp+10], dl
  000b6	84 c0		 test	 al, al
  000b8	74 07		 je	 SHORT $LN85@LoadString@6
  000ba	34 ea		 xor	 al, -22			; ffffffeaH
  000bc	88 45 fb	 mov	 BYTE PTR __k$[ebp+11], al
  000bf	eb 40		 jmp	 SHORT $LN1@LoadString@6
$LN85@LoadString@6:
  000c1	c6 45 fb ea	 mov	 BYTE PTR __k$[ebp+11], -22 ; ffffffeaH
  000c5	eb 3a		 jmp	 SHORT $LN1@LoadString@6
$LN86@LoadString@6:
  000c7	c6 45 fa eb	 mov	 BYTE PTR __k$[ebp+10], -21 ; ffffffebH
  000cb	eb 34		 jmp	 SHORT $LN1@LoadString@6
$LN87@LoadString@6:
  000cd	c6 45 f9 ec	 mov	 BYTE PTR __k$[ebp+9], -20 ; ffffffecH
  000d1	eb 2e		 jmp	 SHORT $LN1@LoadString@6
$LN88@LoadString@6:
  000d3	c6 45 f8 ed	 mov	 BYTE PTR __k$[ebp+8], -19 ; ffffffedH
  000d7	eb 28		 jmp	 SHORT $LN1@LoadString@6
$LN90@LoadString@6:
  000d9	c6 45 f6 eb	 mov	 BYTE PTR __k$[ebp+6], -21 ; ffffffebH
  000dd	eb 22		 jmp	 SHORT $LN1@LoadString@6
$LN91@LoadString@6:
  000df	c6 45 f5 ec	 mov	 BYTE PTR __k$[ebp+5], -20 ; ffffffecH
  000e3	eb 1c		 jmp	 SHORT $LN1@LoadString@6
$LN92@LoadString@6:
  000e5	c6 45 f4 ed	 mov	 BYTE PTR __k$[ebp+4], -19 ; ffffffedH
  000e9	eb 16		 jmp	 SHORT $LN1@LoadString@6
$LN93@LoadString@6:
  000eb	c6 45 f3 ea	 mov	 BYTE PTR __k$[ebp+3], -22 ; ffffffeaH
  000ef	eb 10		 jmp	 SHORT $LN1@LoadString@6
$LN94@LoadString@6:
  000f1	c6 45 f2 eb	 mov	 BYTE PTR __k$[ebp+2], -21 ; ffffffebH
  000f5	eb 0a		 jmp	 SHORT $LN1@LoadString@6
$LN95@LoadString@6:
  000f7	c6 45 f1 ec	 mov	 BYTE PTR __k$[ebp+1], -20 ; ffffffecH
  000fb	eb 04		 jmp	 SHORT $LN1@LoadString@6
$LN96@LoadString@6:
  000fd	c6 45 f0 ed	 mov	 BYTE PTR __k$[ebp], -19	; ffffffedH
$LN1@LoadString@6:
  00101	81 75 f0 ed ec
	eb ea		 xor	 DWORD PTR __k$[ebp], -353637139 ; eaebecedH
  00108	6a 04		 push	 4
  0010a	c6 45 f7 00	 mov	 BYTE PTR __k$[ebp+7], 0
  0010e	58		 pop	 eax
$LL101@LoadString@6:
  0010f	8b d0		 mov	 edx, eax
  00111	81 e2 03 00 00
	80		 and	 edx, -2147483645	; 80000003H
  00117	79 05		 jns	 SHORT $LN111@LoadString@6
  00119	4a		 dec	 edx
  0011a	83 ca fc	 or	 edx, -4			; fffffffcH
  0011d	42		 inc	 edx
$LN111@LoadString@6:
  0011e	b3 ed		 mov	 bl, -19			; ffffffedH
  00120	2a da		 sub	 bl, dl
  00122	30 5c 05 f0	 xor	 BYTE PTR __k$[ebp+eax], bl
  00126	40		 inc	 eax
  00127	83 f8 07	 cmp	 eax, 7
  0012a	7c e3		 jl	 SHORT $LL101@LoadString@6

; 163  : 		LoadString(_k, d, b, i);

  0012c	ff 75 14	 push	 DWORD PTR _i$[ebp]
  0012f	8d 45 f0	 lea	 eax, DWORD PTR __k$[ebp]
  00132	57		 push	 edi
  00133	56		 push	 esi
  00134	50		 push	 eax
  00135	ff 15 00 00 00
	00		 call	 DWORD PTR __imp_?LoadStringA@ioINILoader@@QAEXPBD0PADH@Z

; 164  : 	}

  0013b	8b 4d fc	 mov	 ecx, DWORD PTR __$ArrayPad$[ebp]
  0013e	5f		 pop	 edi
  0013f	5e		 pop	 esi
  00140	33 cd		 xor	 ecx, ebp
  00142	5b		 pop	 ebx
  00143	e8 00 00 00 00	 call	 @__security_check_cookie@4
  00148	c9		 leave
  00149	c2 10 00	 ret	 16			; 00000010H
??$LoadString_e@$07@ioINILoader@@QAEXAAY07$$CBDAAY00$$CBDPADH@Z ENDP ; ioINILoader::LoadString_e<8>
_TEXT	ENDS
PUBLIC	__$ArrayPad$
PUBLIC	??$?8$0N@@@YA_NABVioHashString@@AAY0N@$$CBD@Z	; operator==<13>
EXTRN	__imp_?c_str@ioHashString@@QBEPBDXZ:PROC
; Function compile flags: /Ogsp
; File d:\lost saga for developer\youtube\tutorial\source\src\io3dengine\iohashstring.h
;	COMDAT ??$?8$0N@@@YA_NABVioHashString@@AAY0N@$$CBD@Z
_TEXT	SEGMENT
__t$ = -24						; size = 13
__$ArrayPad$ = -4					; size = 4
_lhs$ = 8						; size = 4
_t$ = 12						; size = 4
??$?8$0N@@@YA_NABVioHashString@@AAY0N@$$CBD@Z PROC	; operator==<13>, COMDAT

; 146  : {

  00000	55		 push	 ebp
  00001	8b ec		 mov	 ebp, esp
  00003	83 ec 18	 sub	 esp, 24			; 00000018H
  00006	a1 00 00 00 00	 mov	 eax, DWORD PTR ___security_cookie
  0000b	33 c5		 xor	 eax, ebp
  0000d	89 45 fc	 mov	 DWORD PTR __$ArrayPad$[ebp], eax
  00010	8b 45 0c	 mov	 eax, DWORD PTR _t$[ebp]

; 147  : 	_ENCSTR(t, _t); return ( strcmp( lhs.c_str(), _t ) == 0 );

  00013	8a 10		 mov	 dl, BYTE PTR [eax]
  00015	56		 push	 esi
  00016	57		 push	 edi
  00017	8b 7d 08	 mov	 edi, DWORD PTR _lhs$[ebp]
  0001a	84 d2		 test	 dl, dl
  0001c	0f 84 4d 01 00
	00		 je	 $LN96@operator
  00022	80 f2 ed	 xor	 dl, -19			; ffffffedH
  00025	88 55 e8	 mov	 BYTE PTR __t$[ebp], dl
  00028	8a 50 01	 mov	 dl, BYTE PTR [eax+1]
  0002b	84 d2		 test	 dl, dl
  0002d	0f 84 36 01 00
	00		 je	 $LN95@operator
  00033	b1 ec		 mov	 cl, -20			; ffffffecH
  00035	32 d1		 xor	 dl, cl
  00037	88 55 e9	 mov	 BYTE PTR __t$[ebp+1], dl
  0003a	8a 50 02	 mov	 dl, BYTE PTR [eax+2]
  0003d	84 d2		 test	 dl, dl
  0003f	0f 84 1e 01 00
	00		 je	 $LN94@operator
  00045	80 f2 eb	 xor	 dl, -21			; ffffffebH
  00048	88 55 ea	 mov	 BYTE PTR __t$[ebp+2], dl
  0004b	8a 50 03	 mov	 dl, BYTE PTR [eax+3]
  0004e	84 d2		 test	 dl, dl
  00050	0f 84 07 01 00
	00		 je	 $LN93@operator
  00056	80 f2 ea	 xor	 dl, -22			; ffffffeaH
  00059	88 55 eb	 mov	 BYTE PTR __t$[ebp+3], dl
  0005c	8a 50 04	 mov	 dl, BYTE PTR [eax+4]
  0005f	84 d2		 test	 dl, dl
  00061	0f 84 f0 00 00
	00		 je	 $LN92@operator
  00067	80 f2 ed	 xor	 dl, -19			; ffffffedH
  0006a	88 55 ec	 mov	 BYTE PTR __t$[ebp+4], dl
  0006d	8a 50 05	 mov	 dl, BYTE PTR [eax+5]
  00070	84 d2		 test	 dl, dl
  00072	0f 84 da 00 00
	00		 je	 $LN91@operator
  00078	32 d1		 xor	 dl, cl
  0007a	88 55 ed	 mov	 BYTE PTR __t$[ebp+5], dl
  0007d	8a 50 06	 mov	 dl, BYTE PTR [eax+6]
  00080	84 d2		 test	 dl, dl
  00082	0f 84 c4 00 00
	00		 je	 $LN90@operator
  00088	80 f2 eb	 xor	 dl, -21			; ffffffebH
  0008b	88 55 ee	 mov	 BYTE PTR __t$[ebp+6], dl
  0008e	8a 50 07	 mov	 dl, BYTE PTR [eax+7]
  00091	84 d2		 test	 dl, dl
  00093	0f 84 ad 00 00
	00		 je	 $LN89@operator
  00099	80 f2 ea	 xor	 dl, -22			; ffffffeaH
  0009c	88 55 ef	 mov	 BYTE PTR __t$[ebp+7], dl
  0009f	8a 50 08	 mov	 dl, BYTE PTR [eax+8]
  000a2	84 d2		 test	 dl, dl
  000a4	0f 84 96 00 00
	00		 je	 $LN88@operator
  000aa	80 f2 ed	 xor	 dl, -19			; ffffffedH
  000ad	88 55 f0	 mov	 BYTE PTR __t$[ebp+8], dl
  000b0	8a 50 09	 mov	 dl, BYTE PTR [eax+9]
  000b3	84 d2		 test	 dl, dl
  000b5	0f 84 80 00 00
	00		 je	 $LN87@operator
  000bb	32 d1		 xor	 dl, cl
  000bd	88 55 f1	 mov	 BYTE PTR __t$[ebp+9], dl
  000c0	8a 50 0a	 mov	 dl, BYTE PTR [eax+10]
  000c3	84 d2		 test	 dl, dl
  000c5	74 6e		 je	 SHORT $LN86@operator
  000c7	80 f2 eb	 xor	 dl, -21			; ffffffebH
  000ca	88 55 f2	 mov	 BYTE PTR __t$[ebp+10], dl
  000cd	8a 50 0b	 mov	 dl, BYTE PTR [eax+11]
  000d0	84 d2		 test	 dl, dl
  000d2	74 5b		 je	 SHORT $LN85@operator
  000d4	80 f2 ea	 xor	 dl, -22			; ffffffeaH
  000d7	80 78 0c 00	 cmp	 BYTE PTR [eax+12], 0
  000db	88 55 f3	 mov	 BYTE PTR __t$[ebp+11], dl
  000de	0f 84 8f 00 00
	00		 je	 $LN1@operator
  000e4	8a 50 0d	 mov	 dl, BYTE PTR [eax+13]
  000e7	84 d2		 test	 dl, dl
  000e9	74 3f		 je	 SHORT $LN83@operator
  000eb	32 d1		 xor	 dl, cl
  000ed	88 55 f5	 mov	 BYTE PTR __t$[ebp+13], dl
  000f0	8a 50 0e	 mov	 dl, BYTE PTR [eax+14]
  000f3	84 d2		 test	 dl, dl
  000f5	74 2d		 je	 SHORT $LN82@operator
  000f7	80 f2 eb	 xor	 dl, -21			; ffffffebH
  000fa	88 55 f6	 mov	 BYTE PTR __t$[ebp+14], dl
  000fd	8a 50 0f	 mov	 dl, BYTE PTR [eax+15]
  00100	84 d2		 test	 dl, dl
  00102	74 1a		 je	 SHORT $LN81@operator
  00104	8a 40 10	 mov	 al, BYTE PTR [eax+16]
  00107	80 f2 ea	 xor	 dl, -22			; ffffffeaH
  0010a	88 55 f7	 mov	 BYTE PTR __t$[ebp+15], dl
  0010d	84 c0		 test	 al, al
  0010f	74 07		 je	 SHORT $LN80@operator
  00111	34 ed		 xor	 al, -19			; ffffffedH
  00113	88 45 f8	 mov	 BYTE PTR __t$[ebp+16], al
  00116	eb 5b		 jmp	 SHORT $LN1@operator
$LN80@operator:
  00118	c6 45 f8 ed	 mov	 BYTE PTR __t$[ebp+16], -19 ; ffffffedH
  0011c	eb 55		 jmp	 SHORT $LN1@operator
$LN81@operator:
  0011e	c6 45 f7 ea	 mov	 BYTE PTR __t$[ebp+15], -22 ; ffffffeaH
  00122	eb 4f		 jmp	 SHORT $LN1@operator
$LN82@operator:
  00124	c6 45 f6 eb	 mov	 BYTE PTR __t$[ebp+14], -21 ; ffffffebH
  00128	eb 49		 jmp	 SHORT $LN1@operator
$LN83@operator:
  0012a	88 4d f5	 mov	 BYTE PTR __t$[ebp+13], cl
  0012d	eb 44		 jmp	 SHORT $LN1@operator
$LN85@operator:
  0012f	c6 45 f3 ea	 mov	 BYTE PTR __t$[ebp+11], -22 ; ffffffeaH
  00133	eb 3e		 jmp	 SHORT $LN1@operator
$LN86@operator:
  00135	c6 45 f2 eb	 mov	 BYTE PTR __t$[ebp+10], -21 ; ffffffebH
  00139	eb 38		 jmp	 SHORT $LN1@operator
$LN87@operator:
  0013b	88 4d f1	 mov	 BYTE PTR __t$[ebp+9], cl
  0013e	eb 33		 jmp	 SHORT $LN1@operator
$LN88@operator:
  00140	c6 45 f0 ed	 mov	 BYTE PTR __t$[ebp+8], -19 ; ffffffedH
  00144	eb 2d		 jmp	 SHORT $LN1@operator
$LN89@operator:
  00146	c6 45 ef ea	 mov	 BYTE PTR __t$[ebp+7], -22 ; ffffffeaH
  0014a	eb 27		 jmp	 SHORT $LN1@operator
$LN90@operator:
  0014c	c6 45 ee eb	 mov	 BYTE PTR __t$[ebp+6], -21 ; ffffffebH
  00150	eb 21		 jmp	 SHORT $LN1@operator
$LN91@operator:
  00152	88 4d ed	 mov	 BYTE PTR __t$[ebp+5], cl
  00155	eb 1c		 jmp	 SHORT $LN1@operator
$LN92@operator:
  00157	c6 45 ec ed	 mov	 BYTE PTR __t$[ebp+4], -19 ; ffffffedH
  0015b	eb 16		 jmp	 SHORT $LN1@operator
$LN93@operator:
  0015d	c6 45 eb ea	 mov	 BYTE PTR __t$[ebp+3], -22 ; ffffffeaH
  00161	eb 10		 jmp	 SHORT $LN1@operator
$LN94@operator:
  00163	c6 45 ea eb	 mov	 BYTE PTR __t$[ebp+2], -21 ; ffffffebH
  00167	eb 0a		 jmp	 SHORT $LN1@operator
$LN95@operator:
  00169	c6 45 e9 ec	 mov	 BYTE PTR __t$[ebp+1], -20 ; ffffffecH
  0016d	eb 04		 jmp	 SHORT $LN1@operator
$LN96@operator:
  0016f	c6 45 e8 ed	 mov	 BYTE PTR __t$[ebp], -19	; ffffffedH
$LN1@operator:
  00173	6a 03		 push	 3
  00175	8d 45 e8	 lea	 eax, DWORD PTR __t$[ebp]
  00178	c6 45 f4 00	 mov	 BYTE PTR __t$[ebp+12], 0
  0017c	5a		 pop	 edx
$LL104@operator:
  0017d	81 30 ed ec eb
	ea		 xor	 DWORD PTR [eax], -353637139 ; eaebecedH
  00183	83 c0 04	 add	 eax, 4
  00186	4a		 dec	 edx
  00187	75 f4		 jne	 SHORT $LL104@operator
  00189	8b cf		 mov	 ecx, edi
  0018b	8d 75 e8	 lea	 esi, DWORD PTR __t$[ebp]
  0018e	ff 15 00 00 00
	00		 call	 DWORD PTR __imp_?c_str@ioHashString@@QBEPBDXZ
$LL111@operator:
  00194	8a 08		 mov	 cl, BYTE PTR [eax]
  00196	3a 0e		 cmp	 cl, BYTE PTR [esi]
  00198	75 1a		 jne	 SHORT $LN112@operator
  0019a	84 c9		 test	 cl, cl
  0019c	74 12		 je	 SHORT $LN113@operator
  0019e	8a 48 01	 mov	 cl, BYTE PTR [eax+1]
  001a1	3a 4e 01	 cmp	 cl, BYTE PTR [esi+1]
  001a4	75 0e		 jne	 SHORT $LN112@operator
  001a6	83 c0 02	 add	 eax, 2
  001a9	83 c6 02	 add	 esi, 2
  001ac	84 c9		 test	 cl, cl
  001ae	75 e4		 jne	 SHORT $LL111@operator
$LN113@operator:
  001b0	33 c0		 xor	 eax, eax
  001b2	eb 05		 jmp	 SHORT $LN114@operator
$LN112@operator:
  001b4	1b c0		 sbb	 eax, eax
  001b6	83 d8 ff	 sbb	 eax, -1
$LN114@operator:
  001b9	33 c9		 xor	 ecx, ecx
  001bb	85 c0		 test	 eax, eax
  001bd	0f 94 c0	 sete	 al

; 148  : }

  001c0	8b 4d fc	 mov	 ecx, DWORD PTR __$ArrayPad$[ebp]
  001c3	5f		 pop	 edi
  001c4	33 cd		 xor	 ecx, ebp
  001c6	5e		 pop	 esi
  001c7	e8 00 00 00 00	 call	 @__security_check_cookie@4
  001cc	c9		 leave
  001cd	c3		 ret	 0
??$?8$0N@@@YA_NABVioHashString@@AAY0N@$$CBD@Z ENDP	; operator==<13>
_TEXT	ENDS
PUBLIC	__$ArrayPad$
PUBLIC	??$?8$0BB@@@YA_NABVioHashString@@AAY0BB@$$CBD@Z	; operator==<17>
; Function compile flags: /Ogsp
;	COMDAT ??$?8$0BB@@@YA_NABVioHashString@@AAY0BB@$$CBD@Z
_TEXT	SEGMENT
__t$ = -28						; size = 17
__$ArrayPad$ = -4					; size = 4
_lhs$ = 8						; size = 4
_t$ = 12						; size = 4
??$?8$0BB@@@YA_NABVioHashString@@AAY0BB@$$CBD@Z PROC	; operator==<17>, COMDAT

; 146  : {

  00000	55		 push	 ebp
  00001	8b ec		 mov	 ebp, esp
  00003	83 ec 1c	 sub	 esp, 28			; 0000001cH
  00006	a1 00 00 00 00	 mov	 eax, DWORD PTR ___security_cookie
  0000b	33 c5		 xor	 eax, ebp
  0000d	89 45 fc	 mov	 DWORD PTR __$ArrayPad$[ebp], eax
  00010	8b 45 0c	 mov	 eax, DWORD PTR _t$[ebp]

; 147  : 	_ENCSTR(t, _t); return ( strcmp( lhs.c_str(), _t ) == 0 );

  00013	8a 10		 mov	 dl, BYTE PTR [eax]
  00015	56		 push	 esi
  00016	57		 push	 edi
  00017	8b 7d 08	 mov	 edi, DWORD PTR _lhs$[ebp]
  0001a	84 d2		 test	 dl, dl
  0001c	0f 84 a7 01 00
	00		 je	 $LN96@operator@2
  00022	80 f2 ed	 xor	 dl, -19			; ffffffedH
  00025	88 55 e4	 mov	 BYTE PTR __t$[ebp], dl
  00028	8a 50 01	 mov	 dl, BYTE PTR [eax+1]
  0002b	84 d2		 test	 dl, dl
  0002d	0f 84 90 01 00
	00		 je	 $LN95@operator@2
  00033	b1 ec		 mov	 cl, -20			; ffffffecH
  00035	32 d1		 xor	 dl, cl
  00037	88 55 e5	 mov	 BYTE PTR __t$[ebp+1], dl
  0003a	8a 50 02	 mov	 dl, BYTE PTR [eax+2]
  0003d	84 d2		 test	 dl, dl
  0003f	0f 84 78 01 00
	00		 je	 $LN94@operator@2
  00045	80 f2 eb	 xor	 dl, -21			; ffffffebH
  00048	88 55 e6	 mov	 BYTE PTR __t$[ebp+2], dl
  0004b	8a 50 03	 mov	 dl, BYTE PTR [eax+3]
  0004e	84 d2		 test	 dl, dl
  00050	0f 84 61 01 00
	00		 je	 $LN93@operator@2
  00056	80 f2 ea	 xor	 dl, -22			; ffffffeaH
  00059	88 55 e7	 mov	 BYTE PTR __t$[ebp+3], dl
  0005c	8a 50 04	 mov	 dl, BYTE PTR [eax+4]
  0005f	84 d2		 test	 dl, dl
  00061	0f 84 4a 01 00
	00		 je	 $LN92@operator@2
  00067	80 f2 ed	 xor	 dl, -19			; ffffffedH
  0006a	88 55 e8	 mov	 BYTE PTR __t$[ebp+4], dl
  0006d	8a 50 05	 mov	 dl, BYTE PTR [eax+5]
  00070	84 d2		 test	 dl, dl
  00072	0f 84 34 01 00
	00		 je	 $LN91@operator@2
  00078	32 d1		 xor	 dl, cl
  0007a	88 55 e9	 mov	 BYTE PTR __t$[ebp+5], dl
  0007d	8a 50 06	 mov	 dl, BYTE PTR [eax+6]
  00080	84 d2		 test	 dl, dl
  00082	0f 84 1e 01 00
	00		 je	 $LN90@operator@2
  00088	80 f2 eb	 xor	 dl, -21			; ffffffebH
  0008b	88 55 ea	 mov	 BYTE PTR __t$[ebp+6], dl
  0008e	8a 50 07	 mov	 dl, BYTE PTR [eax+7]
  00091	84 d2		 test	 dl, dl
  00093	0f 84 07 01 00
	00		 je	 $LN89@operator@2
  00099	80 f2 ea	 xor	 dl, -22			; ffffffeaH
  0009c	88 55 eb	 mov	 BYTE PTR __t$[ebp+7], dl
  0009f	8a 50 08	 mov	 dl, BYTE PTR [eax+8]
  000a2	84 d2		 test	 dl, dl
  000a4	0f 84 f0 00 00
	00		 je	 $LN88@operator@2
  000aa	80 f2 ed	 xor	 dl, -19			; ffffffedH
  000ad	88 55 ec	 mov	 BYTE PTR __t$[ebp+8], dl
  000b0	8a 50 09	 mov	 dl, BYTE PTR [eax+9]
  000b3	84 d2		 test	 dl, dl
  000b5	0f 84 da 00 00
	00		 je	 $LN87@operator@2
  000bb	32 d1		 xor	 dl, cl
  000bd	88 55 ed	 mov	 BYTE PTR __t$[ebp+9], dl
  000c0	8a 50 0a	 mov	 dl, BYTE PTR [eax+10]
  000c3	84 d2		 test	 dl, dl
  000c5	0f 84 c4 00 00
	00		 je	 $LN86@operator@2
  000cb	80 f2 eb	 xor	 dl, -21			; ffffffebH
  000ce	88 55 ee	 mov	 BYTE PTR __t$[ebp+10], dl
  000d1	8a 50 0b	 mov	 dl, BYTE PTR [eax+11]
  000d4	84 d2		 test	 dl, dl
  000d6	0f 84 ad 00 00
	00		 je	 $LN85@operator@2
  000dc	80 f2 ea	 xor	 dl, -22			; ffffffeaH
  000df	88 55 ef	 mov	 BYTE PTR __t$[ebp+11], dl
  000e2	8a 50 0c	 mov	 dl, BYTE PTR [eax+12]
  000e5	84 d2		 test	 dl, dl
  000e7	0f 84 96 00 00
	00		 je	 $LN84@operator@2
  000ed	80 f2 ed	 xor	 dl, -19			; ffffffedH
  000f0	88 55 f0	 mov	 BYTE PTR __t$[ebp+12], dl
  000f3	8a 50 0d	 mov	 dl, BYTE PTR [eax+13]
  000f6	84 d2		 test	 dl, dl
  000f8	0f 84 80 00 00
	00		 je	 $LN83@operator@2
  000fe	32 d1		 xor	 dl, cl
  00100	88 55 f1	 mov	 BYTE PTR __t$[ebp+13], dl
  00103	8a 50 0e	 mov	 dl, BYTE PTR [eax+14]
  00106	84 d2		 test	 dl, dl
  00108	74 6e		 je	 SHORT $LN82@operator@2
  0010a	80 f2 eb	 xor	 dl, -21			; ffffffebH
  0010d	88 55 f2	 mov	 BYTE PTR __t$[ebp+14], dl
  00110	8a 50 0f	 mov	 dl, BYTE PTR [eax+15]
  00113	84 d2		 test	 dl, dl
  00115	74 5b		 je	 SHORT $LN81@operator@2
  00117	80 f2 ea	 xor	 dl, -22			; ffffffeaH
  0011a	80 78 10 00	 cmp	 BYTE PTR [eax+16], 0
  0011e	88 55 f3	 mov	 BYTE PTR __t$[ebp+15], dl
  00121	0f 84 a6 00 00
	00		 je	 $LN1@operator@2
  00127	8a 50 11	 mov	 dl, BYTE PTR [eax+17]
  0012a	84 d2		 test	 dl, dl
  0012c	74 3f		 je	 SHORT $LN79@operator@2
  0012e	32 d1		 xor	 dl, cl
  00130	88 55 f5	 mov	 BYTE PTR __t$[ebp+17], dl
  00133	8a 50 12	 mov	 dl, BYTE PTR [eax+18]
  00136	84 d2		 test	 dl, dl
  00138	74 2d		 je	 SHORT $LN78@operator@2
  0013a	80 f2 eb	 xor	 dl, -21			; ffffffebH
  0013d	88 55 f6	 mov	 BYTE PTR __t$[ebp+18], dl
  00140	8a 50 13	 mov	 dl, BYTE PTR [eax+19]
  00143	84 d2		 test	 dl, dl
  00145	74 1a		 je	 SHORT $LN77@operator@2
  00147	8a 40 14	 mov	 al, BYTE PTR [eax+20]
  0014a	80 f2 ea	 xor	 dl, -22			; ffffffeaH
  0014d	88 55 f7	 mov	 BYTE PTR __t$[ebp+19], dl
  00150	84 c0		 test	 al, al
  00152	74 07		 je	 SHORT $LN76@operator@2
  00154	34 ed		 xor	 al, -19			; ffffffedH
  00156	88 45 f8	 mov	 BYTE PTR __t$[ebp+20], al
  00159	eb 72		 jmp	 SHORT $LN1@operator@2
$LN76@operator@2:
  0015b	c6 45 f8 ed	 mov	 BYTE PTR __t$[ebp+20], -19 ; ffffffedH
  0015f	eb 6c		 jmp	 SHORT $LN1@operator@2
$LN77@operator@2:
  00161	c6 45 f7 ea	 mov	 BYTE PTR __t$[ebp+19], -22 ; ffffffeaH
  00165	eb 66		 jmp	 SHORT $LN1@operator@2
$LN78@operator@2:
  00167	c6 45 f6 eb	 mov	 BYTE PTR __t$[ebp+18], -21 ; ffffffebH
  0016b	eb 60		 jmp	 SHORT $LN1@operator@2
$LN79@operator@2:
  0016d	88 4d f5	 mov	 BYTE PTR __t$[ebp+17], cl
  00170	eb 5b		 jmp	 SHORT $LN1@operator@2
$LN81@operator@2:
  00172	c6 45 f3 ea	 mov	 BYTE PTR __t$[ebp+15], -22 ; ffffffeaH
  00176	eb 55		 jmp	 SHORT $LN1@operator@2
$LN82@operator@2:
  00178	c6 45 f2 eb	 mov	 BYTE PTR __t$[ebp+14], -21 ; ffffffebH
  0017c	eb 4f		 jmp	 SHORT $LN1@operator@2
$LN83@operator@2:
  0017e	88 4d f1	 mov	 BYTE PTR __t$[ebp+13], cl
  00181	eb 4a		 jmp	 SHORT $LN1@operator@2
$LN84@operator@2:
  00183	c6 45 f0 ed	 mov	 BYTE PTR __t$[ebp+12], -19 ; ffffffedH
  00187	eb 44		 jmp	 SHORT $LN1@operator@2
$LN85@operator@2:
  00189	c6 45 ef ea	 mov	 BYTE PTR __t$[ebp+11], -22 ; ffffffeaH
  0018d	eb 3e		 jmp	 SHORT $LN1@operator@2
$LN86@operator@2:
  0018f	c6 45 ee eb	 mov	 BYTE PTR __t$[ebp+10], -21 ; ffffffebH
  00193	eb 38		 jmp	 SHORT $LN1@operator@2
$LN87@operator@2:
  00195	88 4d ed	 mov	 BYTE PTR __t$[ebp+9], cl
  00198	eb 33		 jmp	 SHORT $LN1@operator@2
$LN88@operator@2:
  0019a	c6 45 ec ed	 mov	 BYTE PTR __t$[ebp+8], -19 ; ffffffedH
  0019e	eb 2d		 jmp	 SHORT $LN1@operator@2
$LN89@operator@2:
  001a0	c6 45 eb ea	 mov	 BYTE PTR __t$[ebp+7], -22 ; ffffffeaH
  001a4	eb 27		 jmp	 SHORT $LN1@operator@2
$LN90@operator@2:
  001a6	c6 45 ea eb	 mov	 BYTE PTR __t$[ebp+6], -21 ; ffffffebH
  001aa	eb 21		 jmp	 SHORT $LN1@operator@2
$LN91@operator@2:
  001ac	88 4d e9	 mov	 BYTE PTR __t$[ebp+5], cl
  001af	eb 1c		 jmp	 SHORT $LN1@operator@2
$LN92@operator@2:
  001b1	c6 45 e8 ed	 mov	 BYTE PTR __t$[ebp+4], -19 ; ffffffedH
  001b5	eb 16		 jmp	 SHORT $LN1@operator@2
$LN93@operator@2:
  001b7	c6 45 e7 ea	 mov	 BYTE PTR __t$[ebp+3], -22 ; ffffffeaH
  001bb	eb 10		 jmp	 SHORT $LN1@operator@2
$LN94@operator@2:
  001bd	c6 45 e6 eb	 mov	 BYTE PTR __t$[ebp+2], -21 ; ffffffebH
  001c1	eb 0a		 jmp	 SHORT $LN1@operator@2
$LN95@operator@2:
  001c3	c6 45 e5 ec	 mov	 BYTE PTR __t$[ebp+1], -20 ; ffffffecH
  001c7	eb 04		 jmp	 SHORT $LN1@operator@2
$LN96@operator@2:
  001c9	c6 45 e4 ed	 mov	 BYTE PTR __t$[ebp], -19	; ffffffedH
$LN1@operator@2:
  001cd	6a 04		 push	 4
  001cf	8d 45 e4	 lea	 eax, DWORD PTR __t$[ebp]
  001d2	c6 45 f4 00	 mov	 BYTE PTR __t$[ebp+16], 0
  001d6	5a		 pop	 edx
$LL104@operator@2:
  001d7	81 30 ed ec eb
	ea		 xor	 DWORD PTR [eax], -353637139 ; eaebecedH
  001dd	83 c0 04	 add	 eax, 4
  001e0	4a		 dec	 edx
  001e1	75 f4		 jne	 SHORT $LL104@operator@2
  001e3	8b cf		 mov	 ecx, edi
  001e5	8d 75 e4	 lea	 esi, DWORD PTR __t$[ebp]
  001e8	ff 15 00 00 00
	00		 call	 DWORD PTR __imp_?c_str@ioHashString@@QBEPBDXZ
$LL111@operator@2:
  001ee	8a 08		 mov	 cl, BYTE PTR [eax]
  001f0	3a 0e		 cmp	 cl, BYTE PTR [esi]
  001f2	75 1a		 jne	 SHORT $LN112@operator@2
  001f4	84 c9		 test	 cl, cl
  001f6	74 12		 je	 SHORT $LN113@operator@2
  001f8	8a 48 01	 mov	 cl, BYTE PTR [eax+1]
  001fb	3a 4e 01	 cmp	 cl, BYTE PTR [esi+1]
  001fe	75 0e		 jne	 SHORT $LN112@operator@2
  00200	83 c0 02	 add	 eax, 2
  00203	83 c6 02	 add	 esi, 2
  00206	84 c9		 test	 cl, cl
  00208	75 e4		 jne	 SHORT $LL111@operator@2
$LN113@operator@2:
  0020a	33 c0		 xor	 eax, eax
  0020c	eb 05		 jmp	 SHORT $LN114@operator@2
$LN112@operator@2:
  0020e	1b c0		 sbb	 eax, eax
  00210	83 d8 ff	 sbb	 eax, -1
$LN114@operator@2:
  00213	33 c9		 xor	 ecx, ecx
  00215	85 c0		 test	 eax, eax
  00217	0f 94 c0	 sete	 al

; 148  : }

  0021a	8b 4d fc	 mov	 ecx, DWORD PTR __$ArrayPad$[ebp]
  0021d	5f		 pop	 edi
  0021e	33 cd		 xor	 ecx, ebp
  00220	5e		 pop	 esi
  00221	e8 00 00 00 00	 call	 @__security_check_cookie@4
  00226	c9		 leave
  00227	c3		 ret	 0
??$?8$0BB@@@YA_NABVioHashString@@AAY0BB@$$CBD@Z ENDP	; operator==<17>
_TEXT	ENDS
PUBLIC	__$ArrayPad$
PUBLIC	??$?8$0M@@@YA_NABVioHashString@@AAY0M@$$CBD@Z	; operator==<12>
; Function compile flags: /Ogsp
;	COMDAT ??$?8$0M@@@YA_NABVioHashString@@AAY0M@$$CBD@Z
_TEXT	SEGMENT
__t$ = -20						; size = 12
__$ArrayPad$ = -4					; size = 4
_lhs$ = 8						; size = 4
_t$ = 12						; size = 4
??$?8$0M@@@YA_NABVioHashString@@AAY0M@$$CBD@Z PROC	; operator==<12>, COMDAT

; 146  : {

  00000	55		 push	 ebp
  00001	8b ec		 mov	 ebp, esp
  00003	83 ec 14	 sub	 esp, 20			; 00000014H
  00006	a1 00 00 00 00	 mov	 eax, DWORD PTR ___security_cookie
  0000b	33 c5		 xor	 eax, ebp
  0000d	89 45 fc	 mov	 DWORD PTR __$ArrayPad$[ebp], eax
  00010	8b 45 0c	 mov	 eax, DWORD PTR _t$[ebp]

; 147  : 	_ENCSTR(t, _t); return ( strcmp( lhs.c_str(), _t ) == 0 );

  00013	8a 10		 mov	 dl, BYTE PTR [eax]
  00015	56		 push	 esi
  00016	57		 push	 edi
  00017	8b 7d 08	 mov	 edi, DWORD PTR _lhs$[ebp]
  0001a	84 d2		 test	 dl, dl
  0001c	0f 84 32 01 00
	00		 je	 $LN96@operator@3
  00022	80 f2 ed	 xor	 dl, -19			; ffffffedH
  00025	88 55 ec	 mov	 BYTE PTR __t$[ebp], dl
  00028	8a 50 01	 mov	 dl, BYTE PTR [eax+1]
  0002b	84 d2		 test	 dl, dl
  0002d	0f 84 1b 01 00
	00		 je	 $LN95@operator@3
  00033	80 f2 ec	 xor	 dl, -20			; ffffffecH
  00036	88 55 ed	 mov	 BYTE PTR __t$[ebp+1], dl
  00039	8a 50 02	 mov	 dl, BYTE PTR [eax+2]
  0003c	84 d2		 test	 dl, dl
  0003e	0f 84 04 01 00
	00		 je	 $LN94@operator@3
  00044	b1 eb		 mov	 cl, -21			; ffffffebH
  00046	32 d1		 xor	 dl, cl
  00048	88 55 ee	 mov	 BYTE PTR __t$[ebp+2], dl
  0004b	8a 50 03	 mov	 dl, BYTE PTR [eax+3]
  0004e	84 d2		 test	 dl, dl
  00050	0f 84 ec 00 00
	00		 je	 $LN93@operator@3
  00056	80 f2 ea	 xor	 dl, -22			; ffffffeaH
  00059	88 55 ef	 mov	 BYTE PTR __t$[ebp+3], dl
  0005c	8a 50 04	 mov	 dl, BYTE PTR [eax+4]
  0005f	84 d2		 test	 dl, dl
  00061	0f 84 d5 00 00
	00		 je	 $LN92@operator@3
  00067	80 f2 ed	 xor	 dl, -19			; ffffffedH
  0006a	88 55 f0	 mov	 BYTE PTR __t$[ebp+4], dl
  0006d	8a 50 05	 mov	 dl, BYTE PTR [eax+5]
  00070	84 d2		 test	 dl, dl
  00072	0f 84 be 00 00
	00		 je	 $LN91@operator@3
  00078	80 f2 ec	 xor	 dl, -20			; ffffffecH
  0007b	88 55 f1	 mov	 BYTE PTR __t$[ebp+5], dl
  0007e	8a 50 06	 mov	 dl, BYTE PTR [eax+6]
  00081	84 d2		 test	 dl, dl
  00083	0f 84 a8 00 00
	00		 je	 $LN90@operator@3
  00089	32 d1		 xor	 dl, cl
  0008b	88 55 f2	 mov	 BYTE PTR __t$[ebp+6], dl
  0008e	8a 50 07	 mov	 dl, BYTE PTR [eax+7]
  00091	84 d2		 test	 dl, dl
  00093	0f 84 92 00 00
	00		 je	 $LN89@operator@3
  00099	80 f2 ea	 xor	 dl, -22			; ffffffeaH
  0009c	88 55 f3	 mov	 BYTE PTR __t$[ebp+7], dl
  0009f	8a 50 08	 mov	 dl, BYTE PTR [eax+8]
  000a2	84 d2		 test	 dl, dl
  000a4	74 7f		 je	 SHORT $LN88@operator@3
  000a6	80 f2 ed	 xor	 dl, -19			; ffffffedH
  000a9	88 55 f4	 mov	 BYTE PTR __t$[ebp+8], dl
  000ac	8a 50 09	 mov	 dl, BYTE PTR [eax+9]
  000af	84 d2		 test	 dl, dl
  000b1	74 6c		 je	 SHORT $LN87@operator@3
  000b3	80 f2 ec	 xor	 dl, -20			; ffffffecH
  000b6	88 55 f5	 mov	 BYTE PTR __t$[ebp+9], dl
  000b9	8a 50 0a	 mov	 dl, BYTE PTR [eax+10]
  000bc	84 d2		 test	 dl, dl
  000be	74 5a		 je	 SHORT $LN86@operator@3
  000c0	32 d1		 xor	 dl, cl
  000c2	80 78 0b 00	 cmp	 BYTE PTR [eax+11], 0
  000c6	88 55 f6	 mov	 BYTE PTR __t$[ebp+10], dl
  000c9	0f 84 89 00 00
	00		 je	 $LN1@operator@3
  000cf	8a 50 0c	 mov	 dl, BYTE PTR [eax+12]
  000d2	84 d2		 test	 dl, dl
  000d4	74 3e		 je	 SHORT $LN84@operator@3
  000d6	80 f2 ed	 xor	 dl, -19			; ffffffedH
  000d9	88 55 f8	 mov	 BYTE PTR __t$[ebp+12], dl
  000dc	8a 50 0d	 mov	 dl, BYTE PTR [eax+13]
  000df	84 d2		 test	 dl, dl
  000e1	74 2b		 je	 SHORT $LN83@operator@3
  000e3	80 f2 ec	 xor	 dl, -20			; ffffffecH
  000e6	88 55 f9	 mov	 BYTE PTR __t$[ebp+13], dl
  000e9	8a 50 0e	 mov	 dl, BYTE PTR [eax+14]
  000ec	84 d2		 test	 dl, dl
  000ee	74 19		 je	 SHORT $LN82@operator@3
  000f0	8a 40 0f	 mov	 al, BYTE PTR [eax+15]
  000f3	32 d1		 xor	 dl, cl
  000f5	88 55 fa	 mov	 BYTE PTR __t$[ebp+14], dl
  000f8	84 c0		 test	 al, al
  000fa	74 07		 je	 SHORT $LN81@operator@3
  000fc	34 ea		 xor	 al, -22			; ffffffeaH
  000fe	88 45 fb	 mov	 BYTE PTR __t$[ebp+15], al
  00101	eb 55		 jmp	 SHORT $LN1@operator@3
$LN81@operator@3:
  00103	c6 45 fb ea	 mov	 BYTE PTR __t$[ebp+15], -22 ; ffffffeaH
  00107	eb 4f		 jmp	 SHORT $LN1@operator@3
$LN82@operator@3:
  00109	88 4d fa	 mov	 BYTE PTR __t$[ebp+14], cl
  0010c	eb 4a		 jmp	 SHORT $LN1@operator@3
$LN83@operator@3:
  0010e	c6 45 f9 ec	 mov	 BYTE PTR __t$[ebp+13], -20 ; ffffffecH
  00112	eb 44		 jmp	 SHORT $LN1@operator@3
$LN84@operator@3:
  00114	c6 45 f8 ed	 mov	 BYTE PTR __t$[ebp+12], -19 ; ffffffedH
  00118	eb 3e		 jmp	 SHORT $LN1@operator@3
$LN86@operator@3:
  0011a	88 4d f6	 mov	 BYTE PTR __t$[ebp+10], cl
  0011d	eb 39		 jmp	 SHORT $LN1@operator@3
$LN87@operator@3:
  0011f	c6 45 f5 ec	 mov	 BYTE PTR __t$[ebp+9], -20 ; ffffffecH
  00123	eb 33		 jmp	 SHORT $LN1@operator@3
$LN88@operator@3:
  00125	c6 45 f4 ed	 mov	 BYTE PTR __t$[ebp+8], -19 ; ffffffedH
  00129	eb 2d		 jmp	 SHORT $LN1@operator@3
$LN89@operator@3:
  0012b	c6 45 f3 ea	 mov	 BYTE PTR __t$[ebp+7], -22 ; ffffffeaH
  0012f	eb 27		 jmp	 SHORT $LN1@operator@3
$LN90@operator@3:
  00131	88 4d f2	 mov	 BYTE PTR __t$[ebp+6], cl
  00134	eb 22		 jmp	 SHORT $LN1@operator@3
$LN91@operator@3:
  00136	c6 45 f1 ec	 mov	 BYTE PTR __t$[ebp+5], -20 ; ffffffecH
  0013a	eb 1c		 jmp	 SHORT $LN1@operator@3
$LN92@operator@3:
  0013c	c6 45 f0 ed	 mov	 BYTE PTR __t$[ebp+4], -19 ; ffffffedH
  00140	eb 16		 jmp	 SHORT $LN1@operator@3
$LN93@operator@3:
  00142	c6 45 ef ea	 mov	 BYTE PTR __t$[ebp+3], -22 ; ffffffeaH
  00146	eb 10		 jmp	 SHORT $LN1@operator@3
$LN94@operator@3:
  00148	c6 45 ee eb	 mov	 BYTE PTR __t$[ebp+2], -21 ; ffffffebH
  0014c	eb 0a		 jmp	 SHORT $LN1@operator@3
$LN95@operator@3:
  0014e	c6 45 ed ec	 mov	 BYTE PTR __t$[ebp+1], -20 ; ffffffecH
  00152	eb 04		 jmp	 SHORT $LN1@operator@3
$LN96@operator@3:
  00154	c6 45 ec ed	 mov	 BYTE PTR __t$[ebp], -19	; ffffffedH
$LN1@operator@3:
  00158	6a 02		 push	 2
  0015a	8d 45 ec	 lea	 eax, DWORD PTR __t$[ebp]
  0015d	c6 45 f7 00	 mov	 BYTE PTR __t$[ebp+11], 0
  00161	5a		 pop	 edx
$LL104@operator@3:
  00162	81 30 ed ec eb
	ea		 xor	 DWORD PTR [eax], -353637139 ; eaebecedH
  00168	83 c0 04	 add	 eax, 4
  0016b	4a		 dec	 edx
  0016c	75 f4		 jne	 SHORT $LL104@operator@3
  0016e	6a 08		 push	 8
  00170	58		 pop	 eax
$LL101@operator@3:
  00171	8b c8		 mov	 ecx, eax
  00173	81 e1 03 00 00
	80		 and	 ecx, -2147483645	; 80000003H
  00179	79 05		 jns	 SHORT $LN115@operator@3
  0017b	49		 dec	 ecx
  0017c	83 c9 fc	 or	 ecx, -4			; fffffffcH
  0017f	41		 inc	 ecx
$LN115@operator@3:
  00180	b2 ed		 mov	 dl, -19			; ffffffedH
  00182	2a d1		 sub	 dl, cl
  00184	30 54 05 ec	 xor	 BYTE PTR __t$[ebp+eax], dl
  00188	40		 inc	 eax
  00189	83 f8 0b	 cmp	 eax, 11			; 0000000bH
  0018c	7c e3		 jl	 SHORT $LL101@operator@3
  0018e	8b cf		 mov	 ecx, edi
  00190	8d 75 ec	 lea	 esi, DWORD PTR __t$[ebp]
  00193	ff 15 00 00 00
	00		 call	 DWORD PTR __imp_?c_str@ioHashString@@QBEPBDXZ
$LL111@operator@3:
  00199	8a 08		 mov	 cl, BYTE PTR [eax]
  0019b	3a 0e		 cmp	 cl, BYTE PTR [esi]
  0019d	75 1a		 jne	 SHORT $LN112@operator@3
  0019f	84 c9		 test	 cl, cl
  001a1	74 12		 je	 SHORT $LN113@operator@3
  001a3	8a 48 01	 mov	 cl, BYTE PTR [eax+1]
  001a6	3a 4e 01	 cmp	 cl, BYTE PTR [esi+1]
  001a9	75 0e		 jne	 SHORT $LN112@operator@3
  001ab	83 c0 02	 add	 eax, 2
  001ae	83 c6 02	 add	 esi, 2
  001b1	84 c9		 test	 cl, cl
  001b3	75 e4		 jne	 SHORT $LL111@operator@3
$LN113@operator@3:
  001b5	33 c0		 xor	 eax, eax
  001b7	eb 05		 jmp	 SHORT $LN114@operator@3
$LN112@operator@3:
  001b9	1b c0		 sbb	 eax, eax
  001bb	83 d8 ff	 sbb	 eax, -1
$LN114@operator@3:
  001be	33 c9		 xor	 ecx, ecx
  001c0	85 c0		 test	 eax, eax
  001c2	0f 94 c0	 sete	 al

; 148  : }

  001c5	8b 4d fc	 mov	 ecx, DWORD PTR __$ArrayPad$[ebp]
  001c8	5f		 pop	 edi
  001c9	33 cd		 xor	 ecx, ebp
  001cb	5e		 pop	 esi
  001cc	e8 00 00 00 00	 call	 @__security_check_cookie@4
  001d1	c9		 leave
  001d2	c3		 ret	 0
??$?8$0M@@@YA_NABVioHashString@@AAY0M@$$CBD@Z ENDP	; operator==<12>
_TEXT	ENDS
PUBLIC	__$ArrayPad$
PUBLIC	??$?8$0BA@@@YA_NABVioHashString@@AAY0BA@$$CBD@Z	; operator==<16>
; Function compile flags: /Ogsp
;	COMDAT ??$?8$0BA@@@YA_NABVioHashString@@AAY0BA@$$CBD@Z
_TEXT	SEGMENT
__t$ = -24						; size = 16
__$ArrayPad$ = -4					; size = 4
_lhs$ = 8						; size = 4
_t$ = 12						; size = 4
??$?8$0BA@@@YA_NABVioHashString@@AAY0BA@$$CBD@Z PROC	; operator==<16>, COMDAT

; 146  : {

  00000	55		 push	 ebp
  00001	8b ec		 mov	 ebp, esp
  00003	83 ec 18	 sub	 esp, 24			; 00000018H
  00006	a1 00 00 00 00	 mov	 eax, DWORD PTR ___security_cookie
  0000b	33 c5		 xor	 eax, ebp
  0000d	89 45 fc	 mov	 DWORD PTR __$ArrayPad$[ebp], eax
  00010	8b 45 0c	 mov	 eax, DWORD PTR _t$[ebp]

; 147  : 	_ENCSTR(t, _t); return ( strcmp( lhs.c_str(), _t ) == 0 );

  00013	8a 10		 mov	 dl, BYTE PTR [eax]
  00015	56		 push	 esi
  00016	57		 push	 edi
  00017	8b 7d 08	 mov	 edi, DWORD PTR _lhs$[ebp]
  0001a	84 d2		 test	 dl, dl
  0001c	0f 84 8c 01 00
	00		 je	 $LN96@operator@4
  00022	80 f2 ed	 xor	 dl, -19			; ffffffedH
  00025	88 55 e8	 mov	 BYTE PTR __t$[ebp], dl
  00028	8a 50 01	 mov	 dl, BYTE PTR [eax+1]
  0002b	84 d2		 test	 dl, dl
  0002d	0f 84 75 01 00
	00		 je	 $LN95@operator@4
  00033	80 f2 ec	 xor	 dl, -20			; ffffffecH
  00036	88 55 e9	 mov	 BYTE PTR __t$[ebp+1], dl
  00039	8a 50 02	 mov	 dl, BYTE PTR [eax+2]
  0003c	84 d2		 test	 dl, dl
  0003e	0f 84 5e 01 00
	00		 je	 $LN94@operator@4
  00044	b1 eb		 mov	 cl, -21			; ffffffebH
  00046	32 d1		 xor	 dl, cl
  00048	88 55 ea	 mov	 BYTE PTR __t$[ebp+2], dl
  0004b	8a 50 03	 mov	 dl, BYTE PTR [eax+3]
  0004e	84 d2		 test	 dl, dl
  00050	0f 84 46 01 00
	00		 je	 $LN93@operator@4
  00056	80 f2 ea	 xor	 dl, -22			; ffffffeaH
  00059	88 55 eb	 mov	 BYTE PTR __t$[ebp+3], dl
  0005c	8a 50 04	 mov	 dl, BYTE PTR [eax+4]
  0005f	84 d2		 test	 dl, dl
  00061	0f 84 2f 01 00
	00		 je	 $LN92@operator@4
  00067	80 f2 ed	 xor	 dl, -19			; ffffffedH
  0006a	88 55 ec	 mov	 BYTE PTR __t$[ebp+4], dl
  0006d	8a 50 05	 mov	 dl, BYTE PTR [eax+5]
  00070	84 d2		 test	 dl, dl
  00072	0f 84 18 01 00
	00		 je	 $LN91@operator@4
  00078	80 f2 ec	 xor	 dl, -20			; ffffffecH
  0007b	88 55 ed	 mov	 BYTE PTR __t$[ebp+5], dl
  0007e	8a 50 06	 mov	 dl, BYTE PTR [eax+6]
  00081	84 d2		 test	 dl, dl
  00083	0f 84 02 01 00
	00		 je	 $LN90@operator@4
  00089	32 d1		 xor	 dl, cl
  0008b	88 55 ee	 mov	 BYTE PTR __t$[ebp+6], dl
  0008e	8a 50 07	 mov	 dl, BYTE PTR [eax+7]
  00091	84 d2		 test	 dl, dl
  00093	0f 84 ec 00 00
	00		 je	 $LN89@operator@4
  00099	80 f2 ea	 xor	 dl, -22			; ffffffeaH
  0009c	88 55 ef	 mov	 BYTE PTR __t$[ebp+7], dl
  0009f	8a 50 08	 mov	 dl, BYTE PTR [eax+8]
  000a2	84 d2		 test	 dl, dl
  000a4	0f 84 d5 00 00
	00		 je	 $LN88@operator@4
  000aa	80 f2 ed	 xor	 dl, -19			; ffffffedH
  000ad	88 55 f0	 mov	 BYTE PTR __t$[ebp+8], dl
  000b0	8a 50 09	 mov	 dl, BYTE PTR [eax+9]
  000b3	84 d2		 test	 dl, dl
  000b5	0f 84 be 00 00
	00		 je	 $LN87@operator@4
  000bb	80 f2 ec	 xor	 dl, -20			; ffffffecH
  000be	88 55 f1	 mov	 BYTE PTR __t$[ebp+9], dl
  000c1	8a 50 0a	 mov	 dl, BYTE PTR [eax+10]
  000c4	84 d2		 test	 dl, dl
  000c6	0f 84 a8 00 00
	00		 je	 $LN86@operator@4
  000cc	32 d1		 xor	 dl, cl
  000ce	88 55 f2	 mov	 BYTE PTR __t$[ebp+10], dl
  000d1	8a 50 0b	 mov	 dl, BYTE PTR [eax+11]
  000d4	84 d2		 test	 dl, dl
  000d6	0f 84 92 00 00
	00		 je	 $LN85@operator@4
  000dc	80 f2 ea	 xor	 dl, -22			; ffffffeaH
  000df	88 55 f3	 mov	 BYTE PTR __t$[ebp+11], dl
  000e2	8a 50 0c	 mov	 dl, BYTE PTR [eax+12]
  000e5	84 d2		 test	 dl, dl
  000e7	74 7f		 je	 SHORT $LN84@operator@4
  000e9	80 f2 ed	 xor	 dl, -19			; ffffffedH
  000ec	88 55 f4	 mov	 BYTE PTR __t$[ebp+12], dl
  000ef	8a 50 0d	 mov	 dl, BYTE PTR [eax+13]
  000f2	84 d2		 test	 dl, dl
  000f4	74 6c		 je	 SHORT $LN83@operator@4
  000f6	80 f2 ec	 xor	 dl, -20			; ffffffecH
  000f9	88 55 f5	 mov	 BYTE PTR __t$[ebp+13], dl
  000fc	8a 50 0e	 mov	 dl, BYTE PTR [eax+14]
  000ff	84 d2		 test	 dl, dl
  00101	74 5a		 je	 SHORT $LN82@operator@4
  00103	32 d1		 xor	 dl, cl
  00105	80 78 0f 00	 cmp	 BYTE PTR [eax+15], 0
  00109	88 55 f6	 mov	 BYTE PTR __t$[ebp+14], dl
  0010c	0f 84 a0 00 00
	00		 je	 $LN1@operator@4
  00112	8a 50 10	 mov	 dl, BYTE PTR [eax+16]
  00115	84 d2		 test	 dl, dl
  00117	74 3e		 je	 SHORT $LN80@operator@4
  00119	80 f2 ed	 xor	 dl, -19			; ffffffedH
  0011c	88 55 f8	 mov	 BYTE PTR __t$[ebp+16], dl
  0011f	8a 50 11	 mov	 dl, BYTE PTR [eax+17]
  00122	84 d2		 test	 dl, dl
  00124	74 2b		 je	 SHORT $LN79@operator@4
  00126	80 f2 ec	 xor	 dl, -20			; ffffffecH
  00129	88 55 f9	 mov	 BYTE PTR __t$[ebp+17], dl
  0012c	8a 50 12	 mov	 dl, BYTE PTR [eax+18]
  0012f	84 d2		 test	 dl, dl
  00131	74 19		 je	 SHORT $LN78@operator@4
  00133	8a 40 13	 mov	 al, BYTE PTR [eax+19]
  00136	32 d1		 xor	 dl, cl
  00138	88 55 fa	 mov	 BYTE PTR __t$[ebp+18], dl
  0013b	84 c0		 test	 al, al
  0013d	74 07		 je	 SHORT $LN77@operator@4
  0013f	34 ea		 xor	 al, -22			; ffffffeaH
  00141	88 45 fb	 mov	 BYTE PTR __t$[ebp+19], al
  00144	eb 6c		 jmp	 SHORT $LN1@operator@4
$LN77@operator@4:
  00146	c6 45 fb ea	 mov	 BYTE PTR __t$[ebp+19], -22 ; ffffffeaH
  0014a	eb 66		 jmp	 SHORT $LN1@operator@4
$LN78@operator@4:
  0014c	88 4d fa	 mov	 BYTE PTR __t$[ebp+18], cl
  0014f	eb 61		 jmp	 SHORT $LN1@operator@4
$LN79@operator@4:
  00151	c6 45 f9 ec	 mov	 BYTE PTR __t$[ebp+17], -20 ; ffffffecH
  00155	eb 5b		 jmp	 SHORT $LN1@operator@4
$LN80@operator@4:
  00157	c6 45 f8 ed	 mov	 BYTE PTR __t$[ebp+16], -19 ; ffffffedH
  0015b	eb 55		 jmp	 SHORT $LN1@operator@4
$LN82@operator@4:
  0015d	88 4d f6	 mov	 BYTE PTR __t$[ebp+14], cl
  00160	eb 50		 jmp	 SHORT $LN1@operator@4
$LN83@operator@4:
  00162	c6 45 f5 ec	 mov	 BYTE PTR __t$[ebp+13], -20 ; ffffffecH
  00166	eb 4a		 jmp	 SHORT $LN1@operator@4
$LN84@operator@4:
  00168	c6 45 f4 ed	 mov	 BYTE PTR __t$[ebp+12], -19 ; ffffffedH
  0016c	eb 44		 jmp	 SHORT $LN1@operator@4
$LN85@operator@4:
  0016e	c6 45 f3 ea	 mov	 BYTE PTR __t$[ebp+11], -22 ; ffffffeaH
  00172	eb 3e		 jmp	 SHORT $LN1@operator@4
$LN86@operator@4:
  00174	88 4d f2	 mov	 BYTE PTR __t$[ebp+10], cl
  00177	eb 39		 jmp	 SHORT $LN1@operator@4
$LN87@operator@4:
  00179	c6 45 f1 ec	 mov	 BYTE PTR __t$[ebp+9], -20 ; ffffffecH
  0017d	eb 33		 jmp	 SHORT $LN1@operator@4
$LN88@operator@4:
  0017f	c6 45 f0 ed	 mov	 BYTE PTR __t$[ebp+8], -19 ; ffffffedH
  00183	eb 2d		 jmp	 SHORT $LN1@operator@4
$LN89@operator@4:
  00185	c6 45 ef ea	 mov	 BYTE PTR __t$[ebp+7], -22 ; ffffffeaH
  00189	eb 27		 jmp	 SHORT $LN1@operator@4
$LN90@operator@4:
  0018b	88 4d ee	 mov	 BYTE PTR __t$[ebp+6], cl
  0018e	eb 22		 jmp	 SHORT $LN1@operator@4
$LN91@operator@4:
  00190	c6 45 ed ec	 mov	 BYTE PTR __t$[ebp+5], -20 ; ffffffecH
  00194	eb 1c		 jmp	 SHORT $LN1@operator@4
$LN92@operator@4:
  00196	c6 45 ec ed	 mov	 BYTE PTR __t$[ebp+4], -19 ; ffffffedH
  0019a	eb 16		 jmp	 SHORT $LN1@operator@4
$LN93@operator@4:
  0019c	c6 45 eb ea	 mov	 BYTE PTR __t$[ebp+3], -22 ; ffffffeaH
  001a0	eb 10		 jmp	 SHORT $LN1@operator@4
$LN94@operator@4:
  001a2	c6 45 ea eb	 mov	 BYTE PTR __t$[ebp+2], -21 ; ffffffebH
  001a6	eb 0a		 jmp	 SHORT $LN1@operator@4
$LN95@operator@4:
  001a8	c6 45 e9 ec	 mov	 BYTE PTR __t$[ebp+1], -20 ; ffffffecH
  001ac	eb 04		 jmp	 SHORT $LN1@operator@4
$LN96@operator@4:
  001ae	c6 45 e8 ed	 mov	 BYTE PTR __t$[ebp], -19	; ffffffedH
$LN1@operator@4:
  001b2	6a 03		 push	 3
  001b4	8d 45 e8	 lea	 eax, DWORD PTR __t$[ebp]
  001b7	c6 45 f7 00	 mov	 BYTE PTR __t$[ebp+15], 0
  001bb	5a		 pop	 edx
$LL104@operator@4:
  001bc	81 30 ed ec eb
	ea		 xor	 DWORD PTR [eax], -353637139 ; eaebecedH
  001c2	83 c0 04	 add	 eax, 4
  001c5	4a		 dec	 edx
  001c6	75 f4		 jne	 SHORT $LL104@operator@4
  001c8	6a 0c		 push	 12			; 0000000cH
  001ca	58		 pop	 eax
$LL101@operator@4:
  001cb	8b c8		 mov	 ecx, eax
  001cd	81 e1 03 00 00
	80		 and	 ecx, -2147483645	; 80000003H
  001d3	79 05		 jns	 SHORT $LN115@operator@4
  001d5	49		 dec	 ecx
  001d6	83 c9 fc	 or	 ecx, -4			; fffffffcH
  001d9	41		 inc	 ecx
$LN115@operator@4:
  001da	b2 ed		 mov	 dl, -19			; ffffffedH
  001dc	2a d1		 sub	 dl, cl
  001de	30 54 05 e8	 xor	 BYTE PTR __t$[ebp+eax], dl
  001e2	40		 inc	 eax
  001e3	83 f8 0f	 cmp	 eax, 15			; 0000000fH
  001e6	7c e3		 jl	 SHORT $LL101@operator@4
  001e8	8b cf		 mov	 ecx, edi
  001ea	8d 75 e8	 lea	 esi, DWORD PTR __t$[ebp]
  001ed	ff 15 00 00 00
	00		 call	 DWORD PTR __imp_?c_str@ioHashString@@QBEPBDXZ
$LL111@operator@4:
  001f3	8a 08		 mov	 cl, BYTE PTR [eax]
  001f5	3a 0e		 cmp	 cl, BYTE PTR [esi]
  001f7	75 1a		 jne	 SHORT $LN112@operator@4
  001f9	84 c9		 test	 cl, cl
  001fb	74 12		 je	 SHORT $LN113@operator@4
  001fd	8a 48 01	 mov	 cl, BYTE PTR [eax+1]
  00200	3a 4e 01	 cmp	 cl, BYTE PTR [esi+1]
  00203	75 0e		 jne	 SHORT $LN112@operator@4
  00205	83 c0 02	 add	 eax, 2
  00208	83 c6 02	 add	 esi, 2
  0020b	84 c9		 test	 cl, cl
  0020d	75 e4		 jne	 SHORT $LL111@operator@4
$LN113@operator@4:
  0020f	33 c0		 xor	 eax, eax
  00211	eb 05		 jmp	 SHORT $LN114@operator@4
$LN112@operator@4:
  00213	1b c0		 sbb	 eax, eax
  00215	83 d8 ff	 sbb	 eax, -1
$LN114@operator@4:
  00218	33 c9		 xor	 ecx, ecx
  0021a	85 c0		 test	 eax, eax
  0021c	0f 94 c0	 sete	 al

; 148  : }

  0021f	8b 4d fc	 mov	 ecx, DWORD PTR __$ArrayPad$[ebp]
  00222	5f		 pop	 edi
  00223	33 cd		 xor	 ecx, ebp
  00225	5e		 pop	 esi
  00226	e8 00 00 00 00	 call	 @__security_check_cookie@4
  0022b	c9		 leave
  0022c	c3		 ret	 0
??$?8$0BA@@@YA_NABVioHashString@@AAY0BA@$$CBD@Z ENDP	; operator==<16>
_TEXT	ENDS
PUBLIC	__$ArrayPad$
PUBLIC	??$?8$0L@@@YA_NABVioHashString@@AAY0L@$$CBD@Z	; operator==<11>
; Function compile flags: /Ogsp
;	COMDAT ??$?8$0L@@@YA_NABVioHashString@@AAY0L@$$CBD@Z
_TEXT	SEGMENT
__t$ = -20						; size = 11
__$ArrayPad$ = -4					; size = 4
_lhs$ = 8						; size = 4
_t$ = 12						; size = 4
??$?8$0L@@@YA_NABVioHashString@@AAY0L@$$CBD@Z PROC	; operator==<11>, COMDAT

; 146  : {

  00000	55		 push	 ebp
  00001	8b ec		 mov	 ebp, esp
  00003	83 ec 14	 sub	 esp, 20			; 00000014H
  00006	a1 00 00 00 00	 mov	 eax, DWORD PTR ___security_cookie
  0000b	33 c5		 xor	 eax, ebp
  0000d	89 45 fc	 mov	 DWORD PTR __$ArrayPad$[ebp], eax
  00010	8b 45 0c	 mov	 eax, DWORD PTR _t$[ebp]

; 147  : 	_ENCSTR(t, _t); return ( strcmp( lhs.c_str(), _t ) == 0 );

  00013	8a 10		 mov	 dl, BYTE PTR [eax]
  00015	56		 push	 esi
  00016	57		 push	 edi
  00017	8b 7d 08	 mov	 edi, DWORD PTR _lhs$[ebp]
  0001a	84 d2		 test	 dl, dl
  0001c	0f 84 24 01 00
	00		 je	 $LN96@operator@5
  00022	80 f2 ed	 xor	 dl, -19			; ffffffedH
  00025	88 55 ec	 mov	 BYTE PTR __t$[ebp], dl
  00028	8a 50 01	 mov	 dl, BYTE PTR [eax+1]
  0002b	84 d2		 test	 dl, dl
  0002d	0f 84 0d 01 00
	00		 je	 $LN95@operator@5
  00033	80 f2 ec	 xor	 dl, -20			; ffffffecH
  00036	88 55 ed	 mov	 BYTE PTR __t$[ebp+1], dl
  00039	8a 50 02	 mov	 dl, BYTE PTR [eax+2]
  0003c	84 d2		 test	 dl, dl
  0003e	0f 84 f6 00 00
	00		 je	 $LN94@operator@5
  00044	80 f2 eb	 xor	 dl, -21			; ffffffebH
  00047	88 55 ee	 mov	 BYTE PTR __t$[ebp+2], dl
  0004a	8a 50 03	 mov	 dl, BYTE PTR [eax+3]
  0004d	84 d2		 test	 dl, dl
  0004f	0f 84 df 00 00
	00		 je	 $LN93@operator@5
  00055	80 f2 ea	 xor	 dl, -22			; ffffffeaH
  00058	88 55 ef	 mov	 BYTE PTR __t$[ebp+3], dl
  0005b	8a 50 04	 mov	 dl, BYTE PTR [eax+4]
  0005e	84 d2		 test	 dl, dl
  00060	0f 84 c8 00 00
	00		 je	 $LN92@operator@5
  00066	80 f2 ed	 xor	 dl, -19			; ffffffedH
  00069	88 55 f0	 mov	 BYTE PTR __t$[ebp+4], dl
  0006c	8a 50 05	 mov	 dl, BYTE PTR [eax+5]
  0006f	84 d2		 test	 dl, dl
  00071	0f 84 b1 00 00
	00		 je	 $LN91@operator@5
  00077	80 f2 ec	 xor	 dl, -20			; ffffffecH
  0007a	88 55 f1	 mov	 BYTE PTR __t$[ebp+5], dl
  0007d	8a 50 06	 mov	 dl, BYTE PTR [eax+6]
  00080	84 d2		 test	 dl, dl
  00082	0f 84 9a 00 00
	00		 je	 $LN90@operator@5
  00088	80 f2 eb	 xor	 dl, -21			; ffffffebH
  0008b	88 55 f2	 mov	 BYTE PTR __t$[ebp+6], dl
  0008e	8a 50 07	 mov	 dl, BYTE PTR [eax+7]
  00091	84 d2		 test	 dl, dl
  00093	0f 84 83 00 00
	00		 je	 $LN89@operator@5
  00099	80 f2 ea	 xor	 dl, -22			; ffffffeaH
  0009c	88 55 f3	 mov	 BYTE PTR __t$[ebp+7], dl
  0009f	8a 50 08	 mov	 dl, BYTE PTR [eax+8]
  000a2	84 d2		 test	 dl, dl
  000a4	74 70		 je	 SHORT $LN88@operator@5
  000a6	80 f2 ed	 xor	 dl, -19			; ffffffedH
  000a9	88 55 f4	 mov	 BYTE PTR __t$[ebp+8], dl
  000ac	8a 50 09	 mov	 dl, BYTE PTR [eax+9]
  000af	84 d2		 test	 dl, dl
  000b1	74 5d		 je	 SHORT $LN87@operator@5
  000b3	80 f2 ec	 xor	 dl, -20			; ffffffecH
  000b6	80 78 0a 00	 cmp	 BYTE PTR [eax+10], 0
  000ba	88 55 f5	 mov	 BYTE PTR __t$[ebp+9], dl
  000bd	0f 84 87 00 00
	00		 je	 $LN1@operator@5
  000c3	8a 50 0b	 mov	 dl, BYTE PTR [eax+11]
  000c6	84 d2		 test	 dl, dl
  000c8	74 40		 je	 SHORT $LN85@operator@5
  000ca	80 f2 ea	 xor	 dl, -22			; ffffffeaH
  000cd	88 55 f7	 mov	 BYTE PTR __t$[ebp+11], dl
  000d0	8a 50 0c	 mov	 dl, BYTE PTR [eax+12]
  000d3	84 d2		 test	 dl, dl
  000d5	74 2d		 je	 SHORT $LN84@operator@5
  000d7	80 f2 ed	 xor	 dl, -19			; ffffffedH
  000da	88 55 f8	 mov	 BYTE PTR __t$[ebp+12], dl
  000dd	8a 50 0d	 mov	 dl, BYTE PTR [eax+13]
  000e0	84 d2		 test	 dl, dl
  000e2	74 1a		 je	 SHORT $LN83@operator@5
  000e4	8a 40 0e	 mov	 al, BYTE PTR [eax+14]
  000e7	80 f2 ec	 xor	 dl, -20			; ffffffecH
  000ea	88 55 f9	 mov	 BYTE PTR __t$[ebp+13], dl
  000ed	84 c0		 test	 al, al
  000ef	74 07		 je	 SHORT $LN82@operator@5
  000f1	34 eb		 xor	 al, -21			; ffffffebH
  000f3	88 45 fa	 mov	 BYTE PTR __t$[ebp+14], al
  000f6	eb 52		 jmp	 SHORT $LN1@operator@5
$LN82@operator@5:
  000f8	c6 45 fa eb	 mov	 BYTE PTR __t$[ebp+14], -21 ; ffffffebH
  000fc	eb 4c		 jmp	 SHORT $LN1@operator@5
$LN83@operator@5:
  000fe	c6 45 f9 ec	 mov	 BYTE PTR __t$[ebp+13], -20 ; ffffffecH
  00102	eb 46		 jmp	 SHORT $LN1@operator@5
$LN84@operator@5:
  00104	c6 45 f8 ed	 mov	 BYTE PTR __t$[ebp+12], -19 ; ffffffedH
  00108	eb 40		 jmp	 SHORT $LN1@operator@5
$LN85@operator@5:
  0010a	c6 45 f7 ea	 mov	 BYTE PTR __t$[ebp+11], -22 ; ffffffeaH
  0010e	eb 3a		 jmp	 SHORT $LN1@operator@5
$LN87@operator@5:
  00110	c6 45 f5 ec	 mov	 BYTE PTR __t$[ebp+9], -20 ; ffffffecH
  00114	eb 34		 jmp	 SHORT $LN1@operator@5
$LN88@operator@5:
  00116	c6 45 f4 ed	 mov	 BYTE PTR __t$[ebp+8], -19 ; ffffffedH
  0011a	eb 2e		 jmp	 SHORT $LN1@operator@5
$LN89@operator@5:
  0011c	c6 45 f3 ea	 mov	 BYTE PTR __t$[ebp+7], -22 ; ffffffeaH
  00120	eb 28		 jmp	 SHORT $LN1@operator@5
$LN90@operator@5:
  00122	c6 45 f2 eb	 mov	 BYTE PTR __t$[ebp+6], -21 ; ffffffebH
  00126	eb 22		 jmp	 SHORT $LN1@operator@5
$LN91@operator@5:
  00128	c6 45 f1 ec	 mov	 BYTE PTR __t$[ebp+5], -20 ; ffffffecH
  0012c	eb 1c		 jmp	 SHORT $LN1@operator@5
$LN92@operator@5:
  0012e	c6 45 f0 ed	 mov	 BYTE PTR __t$[ebp+4], -19 ; ffffffedH
  00132	eb 16		 jmp	 SHORT $LN1@operator@5
$LN93@operator@5:
  00134	c6 45 ef ea	 mov	 BYTE PTR __t$[ebp+3], -22 ; ffffffeaH
  00138	eb 10		 jmp	 SHORT $LN1@operator@5
$LN94@operator@5:
  0013a	c6 45 ee eb	 mov	 BYTE PTR __t$[ebp+2], -21 ; ffffffebH
  0013e	eb 0a		 jmp	 SHORT $LN1@operator@5
$LN95@operator@5:
  00140	c6 45 ed ec	 mov	 BYTE PTR __t$[ebp+1], -20 ; ffffffecH
  00144	eb 04		 jmp	 SHORT $LN1@operator@5
$LN96@operator@5:
  00146	c6 45 ec ed	 mov	 BYTE PTR __t$[ebp], -19	; ffffffedH
$LN1@operator@5:
  0014a	6a 02		 push	 2
  0014c	8d 45 ec	 lea	 eax, DWORD PTR __t$[ebp]
  0014f	c6 45 f6 00	 mov	 BYTE PTR __t$[ebp+10], 0
  00153	5a		 pop	 edx
$LL104@operator@5:
  00154	81 30 ed ec eb
	ea		 xor	 DWORD PTR [eax], -353637139 ; eaebecedH
  0015a	83 c0 04	 add	 eax, 4
  0015d	4a		 dec	 edx
  0015e	75 f4		 jne	 SHORT $LL104@operator@5
  00160	6a 08		 push	 8
  00162	58		 pop	 eax
$LL101@operator@5:
  00163	8b c8		 mov	 ecx, eax
  00165	81 e1 03 00 00
	80		 and	 ecx, -2147483645	; 80000003H
  0016b	79 05		 jns	 SHORT $LN115@operator@5
  0016d	49		 dec	 ecx
  0016e	83 c9 fc	 or	 ecx, -4			; fffffffcH
  00171	41		 inc	 ecx
$LN115@operator@5:
  00172	b2 ed		 mov	 dl, -19			; ffffffedH
  00174	2a d1		 sub	 dl, cl
  00176	30 54 05 ec	 xor	 BYTE PTR __t$[ebp+eax], dl
  0017a	40		 inc	 eax
  0017b	83 f8 0a	 cmp	 eax, 10			; 0000000aH
  0017e	7c e3		 jl	 SHORT $LL101@operator@5
  00180	8b cf		 mov	 ecx, edi
  00182	8d 75 ec	 lea	 esi, DWORD PTR __t$[ebp]
  00185	ff 15 00 00 00
	00		 call	 DWORD PTR __imp_?c_str@ioHashString@@QBEPBDXZ
$LL111@operator@5:
  0018b	8a 08		 mov	 cl, BYTE PTR [eax]
  0018d	3a 0e		 cmp	 cl, BYTE PTR [esi]
  0018f	75 1a		 jne	 SHORT $LN112@operator@5
  00191	84 c9		 test	 cl, cl
  00193	74 12		 je	 SHORT $LN113@operator@5
  00195	8a 48 01	 mov	 cl, BYTE PTR [eax+1]
  00198	3a 4e 01	 cmp	 cl, BYTE PTR [esi+1]
  0019b	75 0e		 jne	 SHORT $LN112@operator@5
  0019d	83 c0 02	 add	 eax, 2
  001a0	83 c6 02	 add	 esi, 2
  001a3	84 c9		 test	 cl, cl
  001a5	75 e4		 jne	 SHORT $LL111@operator@5
$LN113@operator@5:
  001a7	33 c0		 xor	 eax, eax
  001a9	eb 05		 jmp	 SHORT $LN114@operator@5
$LN112@operator@5:
  001ab	1b c0		 sbb	 eax, eax
  001ad	83 d8 ff	 sbb	 eax, -1
$LN114@operator@5:
  001b0	33 c9		 xor	 ecx, ecx
  001b2	85 c0		 test	 eax, eax
  001b4	0f 94 c0	 sete	 al

; 148  : }

  001b7	8b 4d fc	 mov	 ecx, DWORD PTR __$ArrayPad$[ebp]
  001ba	5f		 pop	 edi
  001bb	33 cd		 xor	 ecx, ebp
  001bd	5e		 pop	 esi
  001be	e8 00 00 00 00	 call	 @__security_check_cookie@4
  001c3	c9		 leave
  001c4	c3		 ret	 0
??$?8$0L@@@YA_NABVioHashString@@AAY0L@$$CBD@Z ENDP	; operator==<11>
_TEXT	ENDS
PUBLIC	__$ArrayPad$
PUBLIC	??$?8$0P@@@YA_NABVioHashString@@AAY0P@$$CBD@Z	; operator==<15>
; Function compile flags: /Ogsp
;	COMDAT ??$?8$0P@@@YA_NABVioHashString@@AAY0P@$$CBD@Z
_TEXT	SEGMENT
__t$ = -24						; size = 15
__$ArrayPad$ = -4					; size = 4
_lhs$ = 8						; size = 4
_t$ = 12						; size = 4
??$?8$0P@@@YA_NABVioHashString@@AAY0P@$$CBD@Z PROC	; operator==<15>, COMDAT

; 146  : {

  00000	55		 push	 ebp
  00001	8b ec		 mov	 ebp, esp
  00003	83 ec 18	 sub	 esp, 24			; 00000018H
  00006	a1 00 00 00 00	 mov	 eax, DWORD PTR ___security_cookie
  0000b	33 c5		 xor	 eax, ebp
  0000d	89 45 fc	 mov	 DWORD PTR __$ArrayPad$[ebp], eax
  00010	8b 45 0c	 mov	 eax, DWORD PTR _t$[ebp]

; 147  : 	_ENCSTR(t, _t); return ( strcmp( lhs.c_str(), _t ) == 0 );

  00013	8a 10		 mov	 dl, BYTE PTR [eax]
  00015	56		 push	 esi
  00016	57		 push	 edi
  00017	8b 7d 08	 mov	 edi, DWORD PTR _lhs$[ebp]
  0001a	84 d2		 test	 dl, dl
  0001c	0f 84 75 01 00
	00		 je	 $LN96@operator@6
  00022	80 f2 ed	 xor	 dl, -19			; ffffffedH
  00025	88 55 e8	 mov	 BYTE PTR __t$[ebp], dl
  00028	8a 50 01	 mov	 dl, BYTE PTR [eax+1]
  0002b	84 d2		 test	 dl, dl
  0002d	0f 84 5e 01 00
	00		 je	 $LN95@operator@6
  00033	b1 ec		 mov	 cl, -20			; ffffffecH
  00035	32 d1		 xor	 dl, cl
  00037	88 55 e9	 mov	 BYTE PTR __t$[ebp+1], dl
  0003a	8a 50 02	 mov	 dl, BYTE PTR [eax+2]
  0003d	84 d2		 test	 dl, dl
  0003f	0f 84 46 01 00
	00		 je	 $LN94@operator@6
  00045	80 f2 eb	 xor	 dl, -21			; ffffffebH
  00048	88 55 ea	 mov	 BYTE PTR __t$[ebp+2], dl
  0004b	8a 50 03	 mov	 dl, BYTE PTR [eax+3]
  0004e	84 d2		 test	 dl, dl
  00050	0f 84 2f 01 00
	00		 je	 $LN93@operator@6
  00056	80 f2 ea	 xor	 dl, -22			; ffffffeaH
  00059	88 55 eb	 mov	 BYTE PTR __t$[ebp+3], dl
  0005c	8a 50 04	 mov	 dl, BYTE PTR [eax+4]
  0005f	84 d2		 test	 dl, dl
  00061	0f 84 18 01 00
	00		 je	 $LN92@operator@6
  00067	80 f2 ed	 xor	 dl, -19			; ffffffedH
  0006a	88 55 ec	 mov	 BYTE PTR __t$[ebp+4], dl
  0006d	8a 50 05	 mov	 dl, BYTE PTR [eax+5]
  00070	84 d2		 test	 dl, dl
  00072	0f 84 02 01 00
	00		 je	 $LN91@operator@6
  00078	32 d1		 xor	 dl, cl
  0007a	88 55 ed	 mov	 BYTE PTR __t$[ebp+5], dl
  0007d	8a 50 06	 mov	 dl, BYTE PTR [eax+6]
  00080	84 d2		 test	 dl, dl
  00082	0f 84 ec 00 00
	00		 je	 $LN90@operator@6
  00088	80 f2 eb	 xor	 dl, -21			; ffffffebH
  0008b	88 55 ee	 mov	 BYTE PTR __t$[ebp+6], dl
  0008e	8a 50 07	 mov	 dl, BYTE PTR [eax+7]
  00091	84 d2		 test	 dl, dl
  00093	0f 84 d5 00 00
	00		 je	 $LN89@operator@6
  00099	80 f2 ea	 xor	 dl, -22			; ffffffeaH
  0009c	88 55 ef	 mov	 BYTE PTR __t$[ebp+7], dl
  0009f	8a 50 08	 mov	 dl, BYTE PTR [eax+8]
  000a2	84 d2		 test	 dl, dl
  000a4	0f 84 be 00 00
	00		 je	 $LN88@operator@6
  000aa	80 f2 ed	 xor	 dl, -19			; ffffffedH
  000ad	88 55 f0	 mov	 BYTE PTR __t$[ebp+8], dl
  000b0	8a 50 09	 mov	 dl, BYTE PTR [eax+9]
  000b3	84 d2		 test	 dl, dl
  000b5	0f 84 a8 00 00
	00		 je	 $LN87@operator@6
  000bb	32 d1		 xor	 dl, cl
  000bd	88 55 f1	 mov	 BYTE PTR __t$[ebp+9], dl
  000c0	8a 50 0a	 mov	 dl, BYTE PTR [eax+10]
  000c3	84 d2		 test	 dl, dl
  000c5	0f 84 92 00 00
	00		 je	 $LN86@operator@6
  000cb	80 f2 eb	 xor	 dl, -21			; ffffffebH
  000ce	88 55 f2	 mov	 BYTE PTR __t$[ebp+10], dl
  000d1	8a 50 0b	 mov	 dl, BYTE PTR [eax+11]
  000d4	84 d2		 test	 dl, dl
  000d6	74 7f		 je	 SHORT $LN85@operator@6
  000d8	80 f2 ea	 xor	 dl, -22			; ffffffeaH
  000db	88 55 f3	 mov	 BYTE PTR __t$[ebp+11], dl
  000de	8a 50 0c	 mov	 dl, BYTE PTR [eax+12]
  000e1	84 d2		 test	 dl, dl
  000e3	74 6c		 je	 SHORT $LN84@operator@6
  000e5	80 f2 ed	 xor	 dl, -19			; ffffffedH
  000e8	88 55 f4	 mov	 BYTE PTR __t$[ebp+12], dl
  000eb	8a 50 0d	 mov	 dl, BYTE PTR [eax+13]
  000ee	84 d2		 test	 dl, dl
  000f0	74 5a		 je	 SHORT $LN83@operator@6
  000f2	32 d1		 xor	 dl, cl
  000f4	80 78 0e 00	 cmp	 BYTE PTR [eax+14], 0
  000f8	88 55 f5	 mov	 BYTE PTR __t$[ebp+13], dl
  000fb	0f 84 9a 00 00
	00		 je	 $LN1@operator@6
  00101	8a 50 0f	 mov	 dl, BYTE PTR [eax+15]
  00104	84 d2		 test	 dl, dl
  00106	74 3e		 je	 SHORT $LN81@operator@6
  00108	80 f2 ea	 xor	 dl, -22			; ffffffeaH
  0010b	88 55 f7	 mov	 BYTE PTR __t$[ebp+15], dl
  0010e	8a 50 10	 mov	 dl, BYTE PTR [eax+16]
  00111	84 d2		 test	 dl, dl
  00113	74 2b		 je	 SHORT $LN80@operator@6
  00115	80 f2 ed	 xor	 dl, -19			; ffffffedH
  00118	88 55 f8	 mov	 BYTE PTR __t$[ebp+16], dl
  0011b	8a 50 11	 mov	 dl, BYTE PTR [eax+17]
  0011e	84 d2		 test	 dl, dl
  00120	74 19		 je	 SHORT $LN79@operator@6
  00122	8a 40 12	 mov	 al, BYTE PTR [eax+18]
  00125	32 d1		 xor	 dl, cl
  00127	88 55 f9	 mov	 BYTE PTR __t$[ebp+17], dl
  0012a	84 c0		 test	 al, al
  0012c	74 07		 je	 SHORT $LN78@operator@6
  0012e	34 eb		 xor	 al, -21			; ffffffebH
  00130	88 45 fa	 mov	 BYTE PTR __t$[ebp+18], al
  00133	eb 66		 jmp	 SHORT $LN1@operator@6
$LN78@operator@6:
  00135	c6 45 fa eb	 mov	 BYTE PTR __t$[ebp+18], -21 ; ffffffebH
  00139	eb 60		 jmp	 SHORT $LN1@operator@6
$LN79@operator@6:
  0013b	88 4d f9	 mov	 BYTE PTR __t$[ebp+17], cl
  0013e	eb 5b		 jmp	 SHORT $LN1@operator@6
$LN80@operator@6:
  00140	c6 45 f8 ed	 mov	 BYTE PTR __t$[ebp+16], -19 ; ffffffedH
  00144	eb 55		 jmp	 SHORT $LN1@operator@6
$LN81@operator@6:
  00146	c6 45 f7 ea	 mov	 BYTE PTR __t$[ebp+15], -22 ; ffffffeaH
  0014a	eb 4f		 jmp	 SHORT $LN1@operator@6
$LN83@operator@6:
  0014c	88 4d f5	 mov	 BYTE PTR __t$[ebp+13], cl
  0014f	eb 4a		 jmp	 SHORT $LN1@operator@6
$LN84@operator@6:
  00151	c6 45 f4 ed	 mov	 BYTE PTR __t$[ebp+12], -19 ; ffffffedH
  00155	eb 44		 jmp	 SHORT $LN1@operator@6
$LN85@operator@6:
  00157	c6 45 f3 ea	 mov	 BYTE PTR __t$[ebp+11], -22 ; ffffffeaH
  0015b	eb 3e		 jmp	 SHORT $LN1@operator@6
$LN86@operator@6:
  0015d	c6 45 f2 eb	 mov	 BYTE PTR __t$[ebp+10], -21 ; ffffffebH
  00161	eb 38		 jmp	 SHORT $LN1@operator@6
$LN87@operator@6:
  00163	88 4d f1	 mov	 BYTE PTR __t$[ebp+9], cl
  00166	eb 33		 jmp	 SHORT $LN1@operator@6
$LN88@operator@6:
  00168	c6 45 f0 ed	 mov	 BYTE PTR __t$[ebp+8], -19 ; ffffffedH
  0016c	eb 2d		 jmp	 SHORT $LN1@operator@6
$LN89@operator@6:
  0016e	c6 45 ef ea	 mov	 BYTE PTR __t$[ebp+7], -22 ; ffffffeaH
  00172	eb 27		 jmp	 SHORT $LN1@operator@6
$LN90@operator@6:
  00174	c6 45 ee eb	 mov	 BYTE PTR __t$[ebp+6], -21 ; ffffffebH
  00178	eb 21		 jmp	 SHORT $LN1@operator@6
$LN91@operator@6:
  0017a	88 4d ed	 mov	 BYTE PTR __t$[ebp+5], cl
  0017d	eb 1c		 jmp	 SHORT $LN1@operator@6
$LN92@operator@6:
  0017f	c6 45 ec ed	 mov	 BYTE PTR __t$[ebp+4], -19 ; ffffffedH
  00183	eb 16		 jmp	 SHORT $LN1@operator@6
$LN93@operator@6:
  00185	c6 45 eb ea	 mov	 BYTE PTR __t$[ebp+3], -22 ; ffffffeaH
  00189	eb 10		 jmp	 SHORT $LN1@operator@6
$LN94@operator@6:
  0018b	c6 45 ea eb	 mov	 BYTE PTR __t$[ebp+2], -21 ; ffffffebH
  0018f	eb 0a		 jmp	 SHORT $LN1@operator@6
$LN95@operator@6:
  00191	c6 45 e9 ec	 mov	 BYTE PTR __t$[ebp+1], -20 ; ffffffecH
  00195	eb 04		 jmp	 SHORT $LN1@operator@6
$LN96@operator@6:
  00197	c6 45 e8 ed	 mov	 BYTE PTR __t$[ebp], -19	; ffffffedH
$LN1@operator@6:
  0019b	6a 03		 push	 3
  0019d	8d 45 e8	 lea	 eax, DWORD PTR __t$[ebp]
  001a0	c6 45 f6 00	 mov	 BYTE PTR __t$[ebp+14], 0
  001a4	5a		 pop	 edx
$LL104@operator@6:
  001a5	81 30 ed ec eb
	ea		 xor	 DWORD PTR [eax], -353637139 ; eaebecedH
  001ab	83 c0 04	 add	 eax, 4
  001ae	4a		 dec	 edx
  001af	75 f4		 jne	 SHORT $LL104@operator@6
  001b1	6a 0c		 push	 12			; 0000000cH
  001b3	58		 pop	 eax
$LL101@operator@6:
  001b4	8b c8		 mov	 ecx, eax
  001b6	81 e1 03 00 00
	80		 and	 ecx, -2147483645	; 80000003H
  001bc	79 05		 jns	 SHORT $LN115@operator@6
  001be	49		 dec	 ecx
  001bf	83 c9 fc	 or	 ecx, -4			; fffffffcH
  001c2	41		 inc	 ecx
$LN115@operator@6:
  001c3	b2 ed		 mov	 dl, -19			; ffffffedH
  001c5	2a d1		 sub	 dl, cl
  001c7	30 54 05 e8	 xor	 BYTE PTR __t$[ebp+eax], dl
  001cb	40		 inc	 eax
  001cc	83 f8 0e	 cmp	 eax, 14			; 0000000eH
  001cf	7c e3		 jl	 SHORT $LL101@operator@6
  001d1	8b cf		 mov	 ecx, edi
  001d3	8d 75 e8	 lea	 esi, DWORD PTR __t$[ebp]
  001d6	ff 15 00 00 00
	00		 call	 DWORD PTR __imp_?c_str@ioHashString@@QBEPBDXZ
$LL111@operator@6:
  001dc	8a 08		 mov	 cl, BYTE PTR [eax]
  001de	3a 0e		 cmp	 cl, BYTE PTR [esi]
  001e0	75 1a		 jne	 SHORT $LN112@operator@6
  001e2	84 c9		 test	 cl, cl
  001e4	74 12		 je	 SHORT $LN113@operator@6
  001e6	8a 48 01	 mov	 cl, BYTE PTR [eax+1]
  001e9	3a 4e 01	 cmp	 cl, BYTE PTR [esi+1]
  001ec	75 0e		 jne	 SHORT $LN112@operator@6
  001ee	83 c0 02	 add	 eax, 2
  001f1	83 c6 02	 add	 esi, 2
  001f4	84 c9		 test	 cl, cl
  001f6	75 e4		 jne	 SHORT $LL111@operator@6
$LN113@operator@6:
  001f8	33 c0		 xor	 eax, eax
  001fa	eb 05		 jmp	 SHORT $LN114@operator@6
$LN112@operator@6:
  001fc	1b c0		 sbb	 eax, eax
  001fe	83 d8 ff	 sbb	 eax, -1
$LN114@operator@6:
  00201	33 c9		 xor	 ecx, ecx
  00203	85 c0		 test	 eax, eax
  00205	0f 94 c0	 sete	 al

; 148  : }

  00208	8b 4d fc	 mov	 ecx, DWORD PTR __$ArrayPad$[ebp]
  0020b	5f		 pop	 edi
  0020c	33 cd		 xor	 ecx, ebp
  0020e	5e		 pop	 esi
  0020f	e8 00 00 00 00	 call	 @__security_check_cookie@4
  00214	c9		 leave
  00215	c3		 ret	 0
??$?8$0P@@@YA_NABVioHashString@@AAY0P@$$CBD@Z ENDP	; operator==<15>
_TEXT	ENDS
PUBLIC	__$ArrayPad$
PUBLIC	??$?8$0O@@@YA_NABVioHashString@@AAY0O@$$CBD@Z	; operator==<14>
; Function compile flags: /Ogsp
;	COMDAT ??$?8$0O@@@YA_NABVioHashString@@AAY0O@$$CBD@Z
_TEXT	SEGMENT
__t$ = -24						; size = 14
__$ArrayPad$ = -4					; size = 4
_lhs$ = 8						; size = 4
_t$ = 12						; size = 4
??$?8$0O@@@YA_NABVioHashString@@AAY0O@$$CBD@Z PROC	; operator==<14>, COMDAT

; 146  : {

  00000	55		 push	 ebp
  00001	8b ec		 mov	 ebp, esp
  00003	83 ec 18	 sub	 esp, 24			; 00000018H
  00006	a1 00 00 00 00	 mov	 eax, DWORD PTR ___security_cookie
  0000b	33 c5		 xor	 eax, ebp
  0000d	89 45 fc	 mov	 DWORD PTR __$ArrayPad$[ebp], eax
  00010	8b 45 0c	 mov	 eax, DWORD PTR _t$[ebp]

; 147  : 	_ENCSTR(t, _t); return ( strcmp( lhs.c_str(), _t ) == 0 );

  00013	8a 10		 mov	 dl, BYTE PTR [eax]
  00015	56		 push	 esi
  00016	57		 push	 edi
  00017	8b 7d 08	 mov	 edi, DWORD PTR _lhs$[ebp]
  0001a	84 d2		 test	 dl, dl
  0001c	0f 84 64 01 00
	00		 je	 $LN96@operator@7
  00022	80 f2 ed	 xor	 dl, -19			; ffffffedH
  00025	88 55 e8	 mov	 BYTE PTR __t$[ebp], dl
  00028	8a 50 01	 mov	 dl, BYTE PTR [eax+1]
  0002b	84 d2		 test	 dl, dl
  0002d	0f 84 4d 01 00
	00		 je	 $LN95@operator@7
  00033	80 f2 ec	 xor	 dl, -20			; ffffffecH
  00036	88 55 e9	 mov	 BYTE PTR __t$[ebp+1], dl
  00039	8a 50 02	 mov	 dl, BYTE PTR [eax+2]
  0003c	84 d2		 test	 dl, dl
  0003e	0f 84 36 01 00
	00		 je	 $LN94@operator@7
  00044	b1 eb		 mov	 cl, -21			; ffffffebH
  00046	32 d1		 xor	 dl, cl
  00048	88 55 ea	 mov	 BYTE PTR __t$[ebp+2], dl
  0004b	8a 50 03	 mov	 dl, BYTE PTR [eax+3]
  0004e	84 d2		 test	 dl, dl
  00050	0f 84 1e 01 00
	00		 je	 $LN93@operator@7
  00056	80 f2 ea	 xor	 dl, -22			; ffffffeaH
  00059	88 55 eb	 mov	 BYTE PTR __t$[ebp+3], dl
  0005c	8a 50 04	 mov	 dl, BYTE PTR [eax+4]
  0005f	84 d2		 test	 dl, dl
  00061	0f 84 07 01 00
	00		 je	 $LN92@operator@7
  00067	80 f2 ed	 xor	 dl, -19			; ffffffedH
  0006a	88 55 ec	 mov	 BYTE PTR __t$[ebp+4], dl
  0006d	8a 50 05	 mov	 dl, BYTE PTR [eax+5]
  00070	84 d2		 test	 dl, dl
  00072	0f 84 f0 00 00
	00		 je	 $LN91@operator@7
  00078	80 f2 ec	 xor	 dl, -20			; ffffffecH
  0007b	88 55 ed	 mov	 BYTE PTR __t$[ebp+5], dl
  0007e	8a 50 06	 mov	 dl, BYTE PTR [eax+6]
  00081	84 d2		 test	 dl, dl
  00083	0f 84 da 00 00
	00		 je	 $LN90@operator@7
  00089	32 d1		 xor	 dl, cl
  0008b	88 55 ee	 mov	 BYTE PTR __t$[ebp+6], dl
  0008e	8a 50 07	 mov	 dl, BYTE PTR [eax+7]
  00091	84 d2		 test	 dl, dl
  00093	0f 84 c4 00 00
	00		 je	 $LN89@operator@7
  00099	80 f2 ea	 xor	 dl, -22			; ffffffeaH
  0009c	88 55 ef	 mov	 BYTE PTR __t$[ebp+7], dl
  0009f	8a 50 08	 mov	 dl, BYTE PTR [eax+8]
  000a2	84 d2		 test	 dl, dl
  000a4	0f 84 ad 00 00
	00		 je	 $LN88@operator@7
  000aa	80 f2 ed	 xor	 dl, -19			; ffffffedH
  000ad	88 55 f0	 mov	 BYTE PTR __t$[ebp+8], dl
  000b0	8a 50 09	 mov	 dl, BYTE PTR [eax+9]
  000b3	84 d2		 test	 dl, dl
  000b5	0f 84 96 00 00
	00		 je	 $LN87@operator@7
  000bb	80 f2 ec	 xor	 dl, -20			; ffffffecH
  000be	88 55 f1	 mov	 BYTE PTR __t$[ebp+9], dl
  000c1	8a 50 0a	 mov	 dl, BYTE PTR [eax+10]
  000c4	84 d2		 test	 dl, dl
  000c6	0f 84 80 00 00
	00		 je	 $LN86@operator@7
  000cc	32 d1		 xor	 dl, cl
  000ce	88 55 f2	 mov	 BYTE PTR __t$[ebp+10], dl
  000d1	8a 50 0b	 mov	 dl, BYTE PTR [eax+11]
  000d4	84 d2		 test	 dl, dl
  000d6	74 6e		 je	 SHORT $LN85@operator@7
  000d8	80 f2 ea	 xor	 dl, -22			; ffffffeaH
  000db	88 55 f3	 mov	 BYTE PTR __t$[ebp+11], dl
  000de	8a 50 0c	 mov	 dl, BYTE PTR [eax+12]
  000e1	84 d2		 test	 dl, dl
  000e3	74 5b		 je	 SHORT $LN84@operator@7
  000e5	80 f2 ed	 xor	 dl, -19			; ffffffedH
  000e8	80 78 0d 00	 cmp	 BYTE PTR [eax+13], 0
  000ec	88 55 f4	 mov	 BYTE PTR __t$[ebp+12], dl
  000ef	0f 84 95 00 00
	00		 je	 $LN1@operator@7
  000f5	8a 50 0e	 mov	 dl, BYTE PTR [eax+14]
  000f8	84 d2		 test	 dl, dl
  000fa	74 3f		 je	 SHORT $LN82@operator@7
  000fc	32 d1		 xor	 dl, cl
  000fe	88 55 f6	 mov	 BYTE PTR __t$[ebp+14], dl
  00101	8a 50 0f	 mov	 dl, BYTE PTR [eax+15]
  00104	84 d2		 test	 dl, dl
  00106	74 2d		 je	 SHORT $LN81@operator@7
  00108	80 f2 ea	 xor	 dl, -22			; ffffffeaH
  0010b	88 55 f7	 mov	 BYTE PTR __t$[ebp+15], dl
  0010e	8a 50 10	 mov	 dl, BYTE PTR [eax+16]
  00111	84 d2		 test	 dl, dl
  00113	74 1a		 je	 SHORT $LN80@operator@7
  00115	8a 40 11	 mov	 al, BYTE PTR [eax+17]
  00118	80 f2 ed	 xor	 dl, -19			; ffffffedH
  0011b	88 55 f8	 mov	 BYTE PTR __t$[ebp+16], dl
  0011e	84 c0		 test	 al, al
  00120	74 07		 je	 SHORT $LN79@operator@7
  00122	34 ec		 xor	 al, -20			; ffffffecH
  00124	88 45 f9	 mov	 BYTE PTR __t$[ebp+17], al
  00127	eb 61		 jmp	 SHORT $LN1@operator@7
$LN79@operator@7:
  00129	c6 45 f9 ec	 mov	 BYTE PTR __t$[ebp+17], -20 ; ffffffecH
  0012d	eb 5b		 jmp	 SHORT $LN1@operator@7
$LN80@operator@7:
  0012f	c6 45 f8 ed	 mov	 BYTE PTR __t$[ebp+16], -19 ; ffffffedH
  00133	eb 55		 jmp	 SHORT $LN1@operator@7
$LN81@operator@7:
  00135	c6 45 f7 ea	 mov	 BYTE PTR __t$[ebp+15], -22 ; ffffffeaH
  00139	eb 4f		 jmp	 SHORT $LN1@operator@7
$LN82@operator@7:
  0013b	88 4d f6	 mov	 BYTE PTR __t$[ebp+14], cl
  0013e	eb 4a		 jmp	 SHORT $LN1@operator@7
$LN84@operator@7:
  00140	c6 45 f4 ed	 mov	 BYTE PTR __t$[ebp+12], -19 ; ffffffedH
  00144	eb 44		 jmp	 SHORT $LN1@operator@7
$LN85@operator@7:
  00146	c6 45 f3 ea	 mov	 BYTE PTR __t$[ebp+11], -22 ; ffffffeaH
  0014a	eb 3e		 jmp	 SHORT $LN1@operator@7
$LN86@operator@7:
  0014c	88 4d f2	 mov	 BYTE PTR __t$[ebp+10], cl
  0014f	eb 39		 jmp	 SHORT $LN1@operator@7
$LN87@operator@7:
  00151	c6 45 f1 ec	 mov	 BYTE PTR __t$[ebp+9], -20 ; ffffffecH
  00155	eb 33		 jmp	 SHORT $LN1@operator@7
$LN88@operator@7:
  00157	c6 45 f0 ed	 mov	 BYTE PTR __t$[ebp+8], -19 ; ffffffedH
  0015b	eb 2d		 jmp	 SHORT $LN1@operator@7
$LN89@operator@7:
  0015d	c6 45 ef ea	 mov	 BYTE PTR __t$[ebp+7], -22 ; ffffffeaH
  00161	eb 27		 jmp	 SHORT $LN1@operator@7
$LN90@operator@7:
  00163	88 4d ee	 mov	 BYTE PTR __t$[ebp+6], cl
  00166	eb 22		 jmp	 SHORT $LN1@operator@7
$LN91@operator@7:
  00168	c6 45 ed ec	 mov	 BYTE PTR __t$[ebp+5], -20 ; ffffffecH
  0016c	eb 1c		 jmp	 SHORT $LN1@operator@7
$LN92@operator@7:
  0016e	c6 45 ec ed	 mov	 BYTE PTR __t$[ebp+4], -19 ; ffffffedH
  00172	eb 16		 jmp	 SHORT $LN1@operator@7
$LN93@operator@7:
  00174	c6 45 eb ea	 mov	 BYTE PTR __t$[ebp+3], -22 ; ffffffeaH
  00178	eb 10		 jmp	 SHORT $LN1@operator@7
$LN94@operator@7:
  0017a	c6 45 ea eb	 mov	 BYTE PTR __t$[ebp+2], -21 ; ffffffebH
  0017e	eb 0a		 jmp	 SHORT $LN1@operator@7
$LN95@operator@7:
  00180	c6 45 e9 ec	 mov	 BYTE PTR __t$[ebp+1], -20 ; ffffffecH
  00184	eb 04		 jmp	 SHORT $LN1@operator@7
$LN96@operator@7:
  00186	c6 45 e8 ed	 mov	 BYTE PTR __t$[ebp], -19	; ffffffedH
$LN1@operator@7:
  0018a	6a 03		 push	 3
  0018c	8d 45 e8	 lea	 eax, DWORD PTR __t$[ebp]
  0018f	c6 45 f5 00	 mov	 BYTE PTR __t$[ebp+13], 0
  00193	5a		 pop	 edx
$LL104@operator@7:
  00194	81 30 ed ec eb
	ea		 xor	 DWORD PTR [eax], -353637139 ; eaebecedH
  0019a	83 c0 04	 add	 eax, 4
  0019d	4a		 dec	 edx
  0019e	75 f4		 jne	 SHORT $LL104@operator@7
  001a0	80 75 f4 ed	 xor	 BYTE PTR __t$[ebp+12], -19 ; ffffffedH
  001a4	8b cf		 mov	 ecx, edi
  001a6	8d 75 e8	 lea	 esi, DWORD PTR __t$[ebp]
  001a9	ff 15 00 00 00
	00		 call	 DWORD PTR __imp_?c_str@ioHashString@@QBEPBDXZ
$LL111@operator@7:
  001af	8a 08		 mov	 cl, BYTE PTR [eax]
  001b1	3a 0e		 cmp	 cl, BYTE PTR [esi]
  001b3	75 1a		 jne	 SHORT $LN112@operator@7
  001b5	84 c9		 test	 cl, cl
  001b7	74 12		 je	 SHORT $LN113@operator@7
  001b9	8a 48 01	 mov	 cl, BYTE PTR [eax+1]
  001bc	3a 4e 01	 cmp	 cl, BYTE PTR [esi+1]
  001bf	75 0e		 jne	 SHORT $LN112@operator@7
  001c1	83 c0 02	 add	 eax, 2
  001c4	83 c6 02	 add	 esi, 2
  001c7	84 c9		 test	 cl, cl
  001c9	75 e4		 jne	 SHORT $LL111@operator@7
$LN113@operator@7:
  001cb	33 c0		 xor	 eax, eax
  001cd	eb 05		 jmp	 SHORT $LN114@operator@7
$LN112@operator@7:
  001cf	1b c0		 sbb	 eax, eax
  001d1	83 d8 ff	 sbb	 eax, -1
$LN114@operator@7:
  001d4	33 c9		 xor	 ecx, ecx
  001d6	85 c0		 test	 eax, eax
  001d8	0f 94 c0	 sete	 al

; 148  : }

  001db	8b 4d fc	 mov	 ecx, DWORD PTR __$ArrayPad$[ebp]
  001de	5f		 pop	 edi
  001df	33 cd		 xor	 ecx, ebp
  001e1	5e		 pop	 esi
  001e2	e8 00 00 00 00	 call	 @__security_check_cookie@4
  001e7	c9		 leave
  001e8	c3		 ret	 0
??$?8$0O@@@YA_NABVioHashString@@AAY0O@$$CBD@Z ENDP	; operator==<14>
_TEXT	ENDS
PUBLIC	__$ArrayPad$
PUBLIC	??$?8$0BC@@@YA_NABVioHashString@@AAY0BC@$$CBD@Z	; operator==<18>
; Function compile flags: /Ogsp
;	COMDAT ??$?8$0BC@@@YA_NABVioHashString@@AAY0BC@$$CBD@Z
_TEXT	SEGMENT
__t$ = -28						; size = 18
__$ArrayPad$ = -4					; size = 4
_lhs$ = 8						; size = 4
_t$ = 12						; size = 4
??$?8$0BC@@@YA_NABVioHashString@@AAY0BC@$$CBD@Z PROC	; operator==<18>, COMDAT

; 146  : {

  00000	55		 push	 ebp
  00001	8b ec		 mov	 ebp, esp
  00003	83 ec 1c	 sub	 esp, 28			; 0000001cH
  00006	a1 00 00 00 00	 mov	 eax, DWORD PTR ___security_cookie
  0000b	33 c5		 xor	 eax, ebp
  0000d	89 45 fc	 mov	 DWORD PTR __$ArrayPad$[ebp], eax
  00010	8b 45 0c	 mov	 eax, DWORD PTR _t$[ebp]

; 147  : 	_ENCSTR(t, _t); return ( strcmp( lhs.c_str(), _t ) == 0 );

  00013	8a 10		 mov	 dl, BYTE PTR [eax]
  00015	56		 push	 esi
  00016	57		 push	 edi
  00017	8b 7d 08	 mov	 edi, DWORD PTR _lhs$[ebp]
  0001a	84 d2		 test	 dl, dl
  0001c	0f 84 be 01 00
	00		 je	 $LN96@operator@8
  00022	80 f2 ed	 xor	 dl, -19			; ffffffedH
  00025	88 55 e4	 mov	 BYTE PTR __t$[ebp], dl
  00028	8a 50 01	 mov	 dl, BYTE PTR [eax+1]
  0002b	84 d2		 test	 dl, dl
  0002d	0f 84 a7 01 00
	00		 je	 $LN95@operator@8
  00033	80 f2 ec	 xor	 dl, -20			; ffffffecH
  00036	88 55 e5	 mov	 BYTE PTR __t$[ebp+1], dl
  00039	8a 50 02	 mov	 dl, BYTE PTR [eax+2]
  0003c	84 d2		 test	 dl, dl
  0003e	0f 84 90 01 00
	00		 je	 $LN94@operator@8
  00044	b1 eb		 mov	 cl, -21			; ffffffebH
  00046	32 d1		 xor	 dl, cl
  00048	88 55 e6	 mov	 BYTE PTR __t$[ebp+2], dl
  0004b	8a 50 03	 mov	 dl, BYTE PTR [eax+3]
  0004e	84 d2		 test	 dl, dl
  00050	0f 84 78 01 00
	00		 je	 $LN93@operator@8
  00056	80 f2 ea	 xor	 dl, -22			; ffffffeaH
  00059	88 55 e7	 mov	 BYTE PTR __t$[ebp+3], dl
  0005c	8a 50 04	 mov	 dl, BYTE PTR [eax+4]
  0005f	84 d2		 test	 dl, dl
  00061	0f 84 61 01 00
	00		 je	 $LN92@operator@8
  00067	80 f2 ed	 xor	 dl, -19			; ffffffedH
  0006a	88 55 e8	 mov	 BYTE PTR __t$[ebp+4], dl
  0006d	8a 50 05	 mov	 dl, BYTE PTR [eax+5]
  00070	84 d2		 test	 dl, dl
  00072	0f 84 4a 01 00
	00		 je	 $LN91@operator@8
  00078	80 f2 ec	 xor	 dl, -20			; ffffffecH
  0007b	88 55 e9	 mov	 BYTE PTR __t$[ebp+5], dl
  0007e	8a 50 06	 mov	 dl, BYTE PTR [eax+6]
  00081	84 d2		 test	 dl, dl
  00083	0f 84 34 01 00
	00		 je	 $LN90@operator@8
  00089	32 d1		 xor	 dl, cl
  0008b	88 55 ea	 mov	 BYTE PTR __t$[ebp+6], dl
  0008e	8a 50 07	 mov	 dl, BYTE PTR [eax+7]
  00091	84 d2		 test	 dl, dl
  00093	0f 84 1e 01 00
	00		 je	 $LN89@operator@8
  00099	80 f2 ea	 xor	 dl, -22			; ffffffeaH
  0009c	88 55 eb	 mov	 BYTE PTR __t$[ebp+7], dl
  0009f	8a 50 08	 mov	 dl, BYTE PTR [eax+8]
  000a2	84 d2		 test	 dl, dl
  000a4	0f 84 07 01 00
	00		 je	 $LN88@operator@8
  000aa	80 f2 ed	 xor	 dl, -19			; ffffffedH
  000ad	88 55 ec	 mov	 BYTE PTR __t$[ebp+8], dl
  000b0	8a 50 09	 mov	 dl, BYTE PTR [eax+9]
  000b3	84 d2		 test	 dl, dl
  000b5	0f 84 f0 00 00
	00		 je	 $LN87@operator@8
  000bb	80 f2 ec	 xor	 dl, -20			; ffffffecH
  000be	88 55 ed	 mov	 BYTE PTR __t$[ebp+9], dl
  000c1	8a 50 0a	 mov	 dl, BYTE PTR [eax+10]
  000c4	84 d2		 test	 dl, dl
  000c6	0f 84 da 00 00
	00		 je	 $LN86@operator@8
  000cc	32 d1		 xor	 dl, cl
  000ce	88 55 ee	 mov	 BYTE PTR __t$[ebp+10], dl
  000d1	8a 50 0b	 mov	 dl, BYTE PTR [eax+11]
  000d4	84 d2		 test	 dl, dl
  000d6	0f 84 c4 00 00
	00		 je	 $LN85@operator@8
  000dc	80 f2 ea	 xor	 dl, -22			; ffffffeaH
  000df	88 55 ef	 mov	 BYTE PTR __t$[ebp+11], dl
  000e2	8a 50 0c	 mov	 dl, BYTE PTR [eax+12]
  000e5	84 d2		 test	 dl, dl
  000e7	0f 84 ad 00 00
	00		 je	 $LN84@operator@8
  000ed	80 f2 ed	 xor	 dl, -19			; ffffffedH
  000f0	88 55 f0	 mov	 BYTE PTR __t$[ebp+12], dl
  000f3	8a 50 0d	 mov	 dl, BYTE PTR [eax+13]
  000f6	84 d2		 test	 dl, dl
  000f8	0f 84 96 00 00
	00		 je	 $LN83@operator@8
  000fe	80 f2 ec	 xor	 dl, -20			; ffffffecH
  00101	88 55 f1	 mov	 BYTE PTR __t$[ebp+13], dl
  00104	8a 50 0e	 mov	 dl, BYTE PTR [eax+14]
  00107	84 d2		 test	 dl, dl
  00109	0f 84 80 00 00
	00		 je	 $LN82@operator@8
  0010f	32 d1		 xor	 dl, cl
  00111	88 55 f2	 mov	 BYTE PTR __t$[ebp+14], dl
  00114	8a 50 0f	 mov	 dl, BYTE PTR [eax+15]
  00117	84 d2		 test	 dl, dl
  00119	74 6e		 je	 SHORT $LN81@operator@8
  0011b	80 f2 ea	 xor	 dl, -22			; ffffffeaH
  0011e	88 55 f3	 mov	 BYTE PTR __t$[ebp+15], dl
  00121	8a 50 10	 mov	 dl, BYTE PTR [eax+16]
  00124	84 d2		 test	 dl, dl
  00126	74 5b		 je	 SHORT $LN80@operator@8
  00128	80 f2 ed	 xor	 dl, -19			; ffffffedH
  0012b	80 78 11 00	 cmp	 BYTE PTR [eax+17], 0
  0012f	88 55 f4	 mov	 BYTE PTR __t$[ebp+16], dl
  00132	0f 84 ac 00 00
	00		 je	 $LN1@operator@8
  00138	8a 50 12	 mov	 dl, BYTE PTR [eax+18]
  0013b	84 d2		 test	 dl, dl
  0013d	74 3f		 je	 SHORT $LN78@operator@8
  0013f	32 d1		 xor	 dl, cl
  00141	88 55 f6	 mov	 BYTE PTR __t$[ebp+18], dl
  00144	8a 50 13	 mov	 dl, BYTE PTR [eax+19]
  00147	84 d2		 test	 dl, dl
  00149	74 2d		 je	 SHORT $LN77@operator@8
  0014b	80 f2 ea	 xor	 dl, -22			; ffffffeaH
  0014e	88 55 f7	 mov	 BYTE PTR __t$[ebp+19], dl
  00151	8a 50 14	 mov	 dl, BYTE PTR [eax+20]
  00154	84 d2		 test	 dl, dl
  00156	74 1a		 je	 SHORT $LN76@operator@8
  00158	8a 40 15	 mov	 al, BYTE PTR [eax+21]
  0015b	80 f2 ed	 xor	 dl, -19			; ffffffedH
  0015e	88 55 f8	 mov	 BYTE PTR __t$[ebp+20], dl
  00161	84 c0		 test	 al, al
  00163	74 07		 je	 SHORT $LN75@operator@8
  00165	34 ec		 xor	 al, -20			; ffffffecH
  00167	88 45 f9	 mov	 BYTE PTR __t$[ebp+21], al
  0016a	eb 78		 jmp	 SHORT $LN1@operator@8
$LN75@operator@8:
  0016c	c6 45 f9 ec	 mov	 BYTE PTR __t$[ebp+21], -20 ; ffffffecH
  00170	eb 72		 jmp	 SHORT $LN1@operator@8
$LN76@operator@8:
  00172	c6 45 f8 ed	 mov	 BYTE PTR __t$[ebp+20], -19 ; ffffffedH
  00176	eb 6c		 jmp	 SHORT $LN1@operator@8
$LN77@operator@8:
  00178	c6 45 f7 ea	 mov	 BYTE PTR __t$[ebp+19], -22 ; ffffffeaH
  0017c	eb 66		 jmp	 SHORT $LN1@operator@8
$LN78@operator@8:
  0017e	88 4d f6	 mov	 BYTE PTR __t$[ebp+18], cl
  00181	eb 61		 jmp	 SHORT $LN1@operator@8
$LN80@operator@8:
  00183	c6 45 f4 ed	 mov	 BYTE PTR __t$[ebp+16], -19 ; ffffffedH
  00187	eb 5b		 jmp	 SHORT $LN1@operator@8
$LN81@operator@8:
  00189	c6 45 f3 ea	 mov	 BYTE PTR __t$[ebp+15], -22 ; ffffffeaH
  0018d	eb 55		 jmp	 SHORT $LN1@operator@8
$LN82@operator@8:
  0018f	88 4d f2	 mov	 BYTE PTR __t$[ebp+14], cl
  00192	eb 50		 jmp	 SHORT $LN1@operator@8
$LN83@operator@8:
  00194	c6 45 f1 ec	 mov	 BYTE PTR __t$[ebp+13], -20 ; ffffffecH
  00198	eb 4a		 jmp	 SHORT $LN1@operator@8
$LN84@operator@8:
  0019a	c6 45 f0 ed	 mov	 BYTE PTR __t$[ebp+12], -19 ; ffffffedH
  0019e	eb 44		 jmp	 SHORT $LN1@operator@8
$LN85@operator@8:
  001a0	c6 45 ef ea	 mov	 BYTE PTR __t$[ebp+11], -22 ; ffffffeaH
  001a4	eb 3e		 jmp	 SHORT $LN1@operator@8
$LN86@operator@8:
  001a6	88 4d ee	 mov	 BYTE PTR __t$[ebp+10], cl
  001a9	eb 39		 jmp	 SHORT $LN1@operator@8
$LN87@operator@8:
  001ab	c6 45 ed ec	 mov	 BYTE PTR __t$[ebp+9], -20 ; ffffffecH
  001af	eb 33		 jmp	 SHORT $LN1@operator@8
$LN88@operator@8:
  001b1	c6 45 ec ed	 mov	 BYTE PTR __t$[ebp+8], -19 ; ffffffedH
  001b5	eb 2d		 jmp	 SHORT $LN1@operator@8
$LN89@operator@8:
  001b7	c6 45 eb ea	 mov	 BYTE PTR __t$[ebp+7], -22 ; ffffffeaH
  001bb	eb 27		 jmp	 SHORT $LN1@operator@8
$LN90@operator@8:
  001bd	88 4d ea	 mov	 BYTE PTR __t$[ebp+6], cl
  001c0	eb 22		 jmp	 SHORT $LN1@operator@8
$LN91@operator@8:
  001c2	c6 45 e9 ec	 mov	 BYTE PTR __t$[ebp+5], -20 ; ffffffecH
  001c6	eb 1c		 jmp	 SHORT $LN1@operator@8
$LN92@operator@8:
  001c8	c6 45 e8 ed	 mov	 BYTE PTR __t$[ebp+4], -19 ; ffffffedH
  001cc	eb 16		 jmp	 SHORT $LN1@operator@8
$LN93@operator@8:
  001ce	c6 45 e7 ea	 mov	 BYTE PTR __t$[ebp+3], -22 ; ffffffeaH
  001d2	eb 10		 jmp	 SHORT $LN1@operator@8
$LN94@operator@8:
  001d4	c6 45 e6 eb	 mov	 BYTE PTR __t$[ebp+2], -21 ; ffffffebH
  001d8	eb 0a		 jmp	 SHORT $LN1@operator@8
$LN95@operator@8:
  001da	c6 45 e5 ec	 mov	 BYTE PTR __t$[ebp+1], -20 ; ffffffecH
  001de	eb 04		 jmp	 SHORT $LN1@operator@8
$LN96@operator@8:
  001e0	c6 45 e4 ed	 mov	 BYTE PTR __t$[ebp], -19	; ffffffedH
$LN1@operator@8:
  001e4	6a 04		 push	 4
  001e6	8d 45 e4	 lea	 eax, DWORD PTR __t$[ebp]
  001e9	c6 45 f5 00	 mov	 BYTE PTR __t$[ebp+17], 0
  001ed	5a		 pop	 edx
$LL104@operator@8:
  001ee	81 30 ed ec eb
	ea		 xor	 DWORD PTR [eax], -353637139 ; eaebecedH
  001f4	83 c0 04	 add	 eax, 4
  001f7	4a		 dec	 edx
  001f8	75 f4		 jne	 SHORT $LL104@operator@8
  001fa	80 75 f4 ed	 xor	 BYTE PTR __t$[ebp+16], -19 ; ffffffedH
  001fe	8b cf		 mov	 ecx, edi
  00200	8d 75 e4	 lea	 esi, DWORD PTR __t$[ebp]
  00203	ff 15 00 00 00
	00		 call	 DWORD PTR __imp_?c_str@ioHashString@@QBEPBDXZ
$LL111@operator@8:
  00209	8a 08		 mov	 cl, BYTE PTR [eax]
  0020b	3a 0e		 cmp	 cl, BYTE PTR [esi]
  0020d	75 1a		 jne	 SHORT $LN112@operator@8
  0020f	84 c9		 test	 cl, cl
  00211	74 12		 je	 SHORT $LN113@operator@8
  00213	8a 48 01	 mov	 cl, BYTE PTR [eax+1]
  00216	3a 4e 01	 cmp	 cl, BYTE PTR [esi+1]
  00219	75 0e		 jne	 SHORT $LN112@operator@8
  0021b	83 c0 02	 add	 eax, 2
  0021e	83 c6 02	 add	 esi, 2
  00221	84 c9		 test	 cl, cl
  00223	75 e4		 jne	 SHORT $LL111@operator@8
$LN113@operator@8:
  00225	33 c0		 xor	 eax, eax
  00227	eb 05		 jmp	 SHORT $LN114@operator@8
$LN112@operator@8:
  00229	1b c0		 sbb	 eax, eax
  0022b	83 d8 ff	 sbb	 eax, -1
$LN114@operator@8:
  0022e	33 c9		 xor	 ecx, ecx
  00230	85 c0		 test	 eax, eax
  00232	0f 94 c0	 sete	 al

; 148  : }

  00235	8b 4d fc	 mov	 ecx, DWORD PTR __$ArrayPad$[ebp]
  00238	5f		 pop	 edi
  00239	33 cd		 xor	 ecx, ebp
  0023b	5e		 pop	 esi
  0023c	e8 00 00 00 00	 call	 @__security_check_cookie@4
  00241	c9		 leave
  00242	c3		 ret	 0
??$?8$0BC@@@YA_NABVioHashString@@AAY0BC@$$CBD@Z ENDP	; operator==<18>
_TEXT	ENDS
PUBLIC	__$ArrayPad$
PUBLIC	??$?8$08@@YA_NABVioHashString@@AAY08$$CBD@Z	; operator==<9>
; Function compile flags: /Ogsp
;	COMDAT ??$?8$08@@YA_NABVioHashString@@AAY08$$CBD@Z
_TEXT	SEGMENT
__t$ = -20						; size = 9
__$ArrayPad$ = -4					; size = 4
_lhs$ = 8						; size = 4
_t$ = 12						; size = 4
??$?8$08@@YA_NABVioHashString@@AAY08$$CBD@Z PROC	; operator==<9>, COMDAT

; 146  : {

  00000	55		 push	 ebp
  00001	8b ec		 mov	 ebp, esp
  00003	83 ec 14	 sub	 esp, 20			; 00000014H
  00006	a1 00 00 00 00	 mov	 eax, DWORD PTR ___security_cookie
  0000b	33 c5		 xor	 eax, ebp
  0000d	89 45 fc	 mov	 DWORD PTR __$ArrayPad$[ebp], eax
  00010	8b 45 0c	 mov	 eax, DWORD PTR _t$[ebp]

; 147  : 	_ENCSTR(t, _t); return ( strcmp( lhs.c_str(), _t ) == 0 );

  00013	8a 10		 mov	 dl, BYTE PTR [eax]
  00015	8b 4d 08	 mov	 ecx, DWORD PTR _lhs$[ebp]
  00018	84 d2		 test	 dl, dl
  0001a	0f 84 ee 00 00
	00		 je	 $LN96@operator@9
  00020	80 f2 ed	 xor	 dl, -19			; ffffffedH
  00023	88 55 ec	 mov	 BYTE PTR __t$[ebp], dl
  00026	8a 50 01	 mov	 dl, BYTE PTR [eax+1]
  00029	84 d2		 test	 dl, dl
  0002b	0f 84 d7 00 00
	00		 je	 $LN95@operator@9
  00031	80 f2 ec	 xor	 dl, -20			; ffffffecH
  00034	88 55 ed	 mov	 BYTE PTR __t$[ebp+1], dl
  00037	8a 50 02	 mov	 dl, BYTE PTR [eax+2]
  0003a	84 d2		 test	 dl, dl
  0003c	0f 84 c0 00 00
	00		 je	 $LN94@operator@9
  00042	80 f2 eb	 xor	 dl, -21			; ffffffebH
  00045	88 55 ee	 mov	 BYTE PTR __t$[ebp+2], dl
  00048	8a 50 03	 mov	 dl, BYTE PTR [eax+3]
  0004b	84 d2		 test	 dl, dl
  0004d	0f 84 a9 00 00
	00		 je	 $LN93@operator@9
  00053	80 f2 ea	 xor	 dl, -22			; ffffffeaH
  00056	88 55 ef	 mov	 BYTE PTR __t$[ebp+3], dl
  00059	8a 50 04	 mov	 dl, BYTE PTR [eax+4]
  0005c	84 d2		 test	 dl, dl
  0005e	0f 84 92 00 00
	00		 je	 $LN92@operator@9
  00064	80 f2 ed	 xor	 dl, -19			; ffffffedH
  00067	88 55 f0	 mov	 BYTE PTR __t$[ebp+4], dl
  0006a	8a 50 05	 mov	 dl, BYTE PTR [eax+5]
  0006d	84 d2		 test	 dl, dl
  0006f	74 7f		 je	 SHORT $LN91@operator@9
  00071	80 f2 ec	 xor	 dl, -20			; ffffffecH
  00074	88 55 f1	 mov	 BYTE PTR __t$[ebp+5], dl
  00077	8a 50 06	 mov	 dl, BYTE PTR [eax+6]
  0007a	84 d2		 test	 dl, dl
  0007c	74 6c		 je	 SHORT $LN90@operator@9
  0007e	80 f2 eb	 xor	 dl, -21			; ffffffebH
  00081	88 55 f2	 mov	 BYTE PTR __t$[ebp+6], dl
  00084	8a 50 07	 mov	 dl, BYTE PTR [eax+7]
  00087	84 d2		 test	 dl, dl
  00089	74 59		 je	 SHORT $LN89@operator@9
  0008b	80 f2 ea	 xor	 dl, -22			; ffffffeaH
  0008e	80 78 08 00	 cmp	 BYTE PTR [eax+8], 0
  00092	88 55 f3	 mov	 BYTE PTR __t$[ebp+7], dl
  00095	74 7b		 je	 SHORT $LN1@operator@9
  00097	8a 50 09	 mov	 dl, BYTE PTR [eax+9]
  0009a	84 d2		 test	 dl, dl
  0009c	74 40		 je	 SHORT $LN87@operator@9
  0009e	80 f2 ec	 xor	 dl, -20			; ffffffecH
  000a1	88 55 f5	 mov	 BYTE PTR __t$[ebp+9], dl
  000a4	8a 50 0a	 mov	 dl, BYTE PTR [eax+10]
  000a7	84 d2		 test	 dl, dl
  000a9	74 2d		 je	 SHORT $LN86@operator@9
  000ab	80 f2 eb	 xor	 dl, -21			; ffffffebH
  000ae	88 55 f6	 mov	 BYTE PTR __t$[ebp+10], dl
  000b1	8a 50 0b	 mov	 dl, BYTE PTR [eax+11]
  000b4	84 d2		 test	 dl, dl
  000b6	74 1a		 je	 SHORT $LN85@operator@9
  000b8	8a 40 0c	 mov	 al, BYTE PTR [eax+12]
  000bb	80 f2 ea	 xor	 dl, -22			; ffffffeaH
  000be	88 55 f7	 mov	 BYTE PTR __t$[ebp+11], dl
  000c1	84 c0		 test	 al, al
  000c3	74 07		 je	 SHORT $LN84@operator@9
  000c5	34 ed		 xor	 al, -19			; ffffffedH
  000c7	88 45 f8	 mov	 BYTE PTR __t$[ebp+12], al
  000ca	eb 46		 jmp	 SHORT $LN1@operator@9
$LN84@operator@9:
  000cc	c6 45 f8 ed	 mov	 BYTE PTR __t$[ebp+12], -19 ; ffffffedH
  000d0	eb 40		 jmp	 SHORT $LN1@operator@9
$LN85@operator@9:
  000d2	c6 45 f7 ea	 mov	 BYTE PTR __t$[ebp+11], -22 ; ffffffeaH
  000d6	eb 3a		 jmp	 SHORT $LN1@operator@9
$LN86@operator@9:
  000d8	c6 45 f6 eb	 mov	 BYTE PTR __t$[ebp+10], -21 ; ffffffebH
  000dc	eb 34		 jmp	 SHORT $LN1@operator@9
$LN87@operator@9:
  000de	c6 45 f5 ec	 mov	 BYTE PTR __t$[ebp+9], -20 ; ffffffecH
  000e2	eb 2e		 jmp	 SHORT $LN1@operator@9
$LN89@operator@9:
  000e4	c6 45 f3 ea	 mov	 BYTE PTR __t$[ebp+7], -22 ; ffffffeaH
  000e8	eb 28		 jmp	 SHORT $LN1@operator@9
$LN90@operator@9:
  000ea	c6 45 f2 eb	 mov	 BYTE PTR __t$[ebp+6], -21 ; ffffffebH
  000ee	eb 22		 jmp	 SHORT $LN1@operator@9
$LN91@operator@9:
  000f0	c6 45 f1 ec	 mov	 BYTE PTR __t$[ebp+5], -20 ; ffffffecH
  000f4	eb 1c		 jmp	 SHORT $LN1@operator@9
$LN92@operator@9:
  000f6	c6 45 f0 ed	 mov	 BYTE PTR __t$[ebp+4], -19 ; ffffffedH
  000fa	eb 16		 jmp	 SHORT $LN1@operator@9
$LN93@operator@9:
  000fc	c6 45 ef ea	 mov	 BYTE PTR __t$[ebp+3], -22 ; ffffffeaH
  00100	eb 10		 jmp	 SHORT $LN1@operator@9
$LN94@operator@9:
  00102	c6 45 ee eb	 mov	 BYTE PTR __t$[ebp+2], -21 ; ffffffebH
  00106	eb 0a		 jmp	 SHORT $LN1@operator@9
$LN95@operator@9:
  00108	c6 45 ed ec	 mov	 BYTE PTR __t$[ebp+1], -20 ; ffffffecH
  0010c	eb 04		 jmp	 SHORT $LN1@operator@9
$LN96@operator@9:
  0010e	c6 45 ec ed	 mov	 BYTE PTR __t$[ebp], -19	; ffffffedH
$LN1@operator@9:
  00112	6a 02		 push	 2
  00114	8d 45 ec	 lea	 eax, DWORD PTR __t$[ebp]
  00117	c6 45 f4 00	 mov	 BYTE PTR __t$[ebp+8], 0
  0011b	5a		 pop	 edx
$LL104@operator@9:
  0011c	81 30 ed ec eb
	ea		 xor	 DWORD PTR [eax], -353637139 ; eaebecedH
  00122	83 c0 04	 add	 eax, 4
  00125	4a		 dec	 edx
  00126	75 f4		 jne	 SHORT $LL104@operator@9
  00128	56		 push	 esi
  00129	8d 75 ec	 lea	 esi, DWORD PTR __t$[ebp]
  0012c	ff 15 00 00 00
	00		 call	 DWORD PTR __imp_?c_str@ioHashString@@QBEPBDXZ
$LL111@operator@9:
  00132	8a 08		 mov	 cl, BYTE PTR [eax]
  00134	3a 0e		 cmp	 cl, BYTE PTR [esi]
  00136	75 1a		 jne	 SHORT $LN112@operator@9
  00138	84 c9		 test	 cl, cl
  0013a	74 12		 je	 SHORT $LN113@operator@9
  0013c	8a 48 01	 mov	 cl, BYTE PTR [eax+1]
  0013f	3a 4e 01	 cmp	 cl, BYTE PTR [esi+1]
  00142	75 0e		 jne	 SHORT $LN112@operator@9
  00144	83 c0 02	 add	 eax, 2
  00147	83 c6 02	 add	 esi, 2
  0014a	84 c9		 test	 cl, cl
  0014c	75 e4		 jne	 SHORT $LL111@operator@9
$LN113@operator@9:
  0014e	33 c0		 xor	 eax, eax
  00150	eb 05		 jmp	 SHORT $LN114@operator@9
$LN112@operator@9:
  00152	1b c0		 sbb	 eax, eax
  00154	83 d8 ff	 sbb	 eax, -1
$LN114@operator@9:
  00157	33 c9		 xor	 ecx, ecx
  00159	85 c0		 test	 eax, eax
  0015b	0f 94 c0	 sete	 al

; 148  : }

  0015e	8b 4d fc	 mov	 ecx, DWORD PTR __$ArrayPad$[ebp]
  00161	33 cd		 xor	 ecx, ebp
  00163	5e		 pop	 esi
  00164	e8 00 00 00 00	 call	 @__security_check_cookie@4
  00169	c9		 leave
  0016a	c3		 ret	 0
??$?8$08@@YA_NABVioHashString@@AAY08$$CBD@Z ENDP	; operator==<9>
_TEXT	ENDS
PUBLIC	__$ArrayPad$
PUBLIC	??$?8$0BD@@@YA_NABVioHashString@@AAY0BD@$$CBD@Z	; operator==<19>
; Function compile flags: /Ogsp
;	COMDAT ??$?8$0BD@@@YA_NABVioHashString@@AAY0BD@$$CBD@Z
_TEXT	SEGMENT
__t$ = -28						; size = 19
__$ArrayPad$ = -4					; size = 4
_lhs$ = 8						; size = 4
_t$ = 12						; size = 4
??$?8$0BD@@@YA_NABVioHashString@@AAY0BD@$$CBD@Z PROC	; operator==<19>, COMDAT

; 146  : {

  00000	55		 push	 ebp
  00001	8b ec		 mov	 ebp, esp
  00003	83 ec 1c	 sub	 esp, 28			; 0000001cH
  00006	a1 00 00 00 00	 mov	 eax, DWORD PTR ___security_cookie
  0000b	33 c5		 xor	 eax, ebp
  0000d	89 45 fc	 mov	 DWORD PTR __$ArrayPad$[ebp], eax
  00010	8b 45 0c	 mov	 eax, DWORD PTR _t$[ebp]

; 147  : 	_ENCSTR(t, _t); return ( strcmp( lhs.c_str(), _t ) == 0 );

  00013	8a 10		 mov	 dl, BYTE PTR [eax]
  00015	56		 push	 esi
  00016	57		 push	 edi
  00017	8b 7d 08	 mov	 edi, DWORD PTR _lhs$[ebp]
  0001a	84 d2		 test	 dl, dl
  0001c	0f 84 cf 01 00
	00		 je	 $LN96@operator@10
  00022	80 f2 ed	 xor	 dl, -19			; ffffffedH
  00025	88 55 e4	 mov	 BYTE PTR __t$[ebp], dl
  00028	8a 50 01	 mov	 dl, BYTE PTR [eax+1]
  0002b	84 d2		 test	 dl, dl
  0002d	0f 84 b8 01 00
	00		 je	 $LN95@operator@10
  00033	b1 ec		 mov	 cl, -20			; ffffffecH
  00035	32 d1		 xor	 dl, cl
  00037	88 55 e5	 mov	 BYTE PTR __t$[ebp+1], dl
  0003a	8a 50 02	 mov	 dl, BYTE PTR [eax+2]
  0003d	84 d2		 test	 dl, dl
  0003f	0f 84 a0 01 00
	00		 je	 $LN94@operator@10
  00045	80 f2 eb	 xor	 dl, -21			; ffffffebH
  00048	88 55 e6	 mov	 BYTE PTR __t$[ebp+2], dl
  0004b	8a 50 03	 mov	 dl, BYTE PTR [eax+3]
  0004e	84 d2		 test	 dl, dl
  00050	0f 84 89 01 00
	00		 je	 $LN93@operator@10
  00056	80 f2 ea	 xor	 dl, -22			; ffffffeaH
  00059	88 55 e7	 mov	 BYTE PTR __t$[ebp+3], dl
  0005c	8a 50 04	 mov	 dl, BYTE PTR [eax+4]
  0005f	84 d2		 test	 dl, dl
  00061	0f 84 72 01 00
	00		 je	 $LN92@operator@10
  00067	80 f2 ed	 xor	 dl, -19			; ffffffedH
  0006a	88 55 e8	 mov	 BYTE PTR __t$[ebp+4], dl
  0006d	8a 50 05	 mov	 dl, BYTE PTR [eax+5]
  00070	84 d2		 test	 dl, dl
  00072	0f 84 5c 01 00
	00		 je	 $LN91@operator@10
  00078	32 d1		 xor	 dl, cl
  0007a	88 55 e9	 mov	 BYTE PTR __t$[ebp+5], dl
  0007d	8a 50 06	 mov	 dl, BYTE PTR [eax+6]
  00080	84 d2		 test	 dl, dl
  00082	0f 84 46 01 00
	00		 je	 $LN90@operator@10
  00088	80 f2 eb	 xor	 dl, -21			; ffffffebH
  0008b	88 55 ea	 mov	 BYTE PTR __t$[ebp+6], dl
  0008e	8a 50 07	 mov	 dl, BYTE PTR [eax+7]
  00091	84 d2		 test	 dl, dl
  00093	0f 84 2f 01 00
	00		 je	 $LN89@operator@10
  00099	80 f2 ea	 xor	 dl, -22			; ffffffeaH
  0009c	88 55 eb	 mov	 BYTE PTR __t$[ebp+7], dl
  0009f	8a 50 08	 mov	 dl, BYTE PTR [eax+8]
  000a2	84 d2		 test	 dl, dl
  000a4	0f 84 18 01 00
	00		 je	 $LN88@operator@10
  000aa	80 f2 ed	 xor	 dl, -19			; ffffffedH
  000ad	88 55 ec	 mov	 BYTE PTR __t$[ebp+8], dl
  000b0	8a 50 09	 mov	 dl, BYTE PTR [eax+9]
  000b3	84 d2		 test	 dl, dl
  000b5	0f 84 02 01 00
	00		 je	 $LN87@operator@10
  000bb	32 d1		 xor	 dl, cl
  000bd	88 55 ed	 mov	 BYTE PTR __t$[ebp+9], dl
  000c0	8a 50 0a	 mov	 dl, BYTE PTR [eax+10]
  000c3	84 d2		 test	 dl, dl
  000c5	0f 84 ec 00 00
	00		 je	 $LN86@operator@10
  000cb	80 f2 eb	 xor	 dl, -21			; ffffffebH
  000ce	88 55 ee	 mov	 BYTE PTR __t$[ebp+10], dl
  000d1	8a 50 0b	 mov	 dl, BYTE PTR [eax+11]
  000d4	84 d2		 test	 dl, dl
  000d6	0f 84 d5 00 00
	00		 je	 $LN85@operator@10
  000dc	80 f2 ea	 xor	 dl, -22			; ffffffeaH
  000df	88 55 ef	 mov	 BYTE PTR __t$[ebp+11], dl
  000e2	8a 50 0c	 mov	 dl, BYTE PTR [eax+12]
  000e5	84 d2		 test	 dl, dl
  000e7	0f 84 be 00 00
	00		 je	 $LN84@operator@10
  000ed	80 f2 ed	 xor	 dl, -19			; ffffffedH
  000f0	88 55 f0	 mov	 BYTE PTR __t$[ebp+12], dl
  000f3	8a 50 0d	 mov	 dl, BYTE PTR [eax+13]
  000f6	84 d2		 test	 dl, dl
  000f8	0f 84 a8 00 00
	00		 je	 $LN83@operator@10
  000fe	32 d1		 xor	 dl, cl
  00100	88 55 f1	 mov	 BYTE PTR __t$[ebp+13], dl
  00103	8a 50 0e	 mov	 dl, BYTE PTR [eax+14]
  00106	84 d2		 test	 dl, dl
  00108	0f 84 92 00 00
	00		 je	 $LN82@operator@10
  0010e	80 f2 eb	 xor	 dl, -21			; ffffffebH
  00111	88 55 f2	 mov	 BYTE PTR __t$[ebp+14], dl
  00114	8a 50 0f	 mov	 dl, BYTE PTR [eax+15]
  00117	84 d2		 test	 dl, dl
  00119	74 7f		 je	 SHORT $LN81@operator@10
  0011b	80 f2 ea	 xor	 dl, -22			; ffffffeaH
  0011e	88 55 f3	 mov	 BYTE PTR __t$[ebp+15], dl
  00121	8a 50 10	 mov	 dl, BYTE PTR [eax+16]
  00124	84 d2		 test	 dl, dl
  00126	74 6c		 je	 SHORT $LN80@operator@10
  00128	80 f2 ed	 xor	 dl, -19			; ffffffedH
  0012b	88 55 f4	 mov	 BYTE PTR __t$[ebp+16], dl
  0012e	8a 50 11	 mov	 dl, BYTE PTR [eax+17]
  00131	84 d2		 test	 dl, dl
  00133	74 5a		 je	 SHORT $LN79@operator@10
  00135	32 d1		 xor	 dl, cl
  00137	80 78 12 00	 cmp	 BYTE PTR [eax+18], 0
  0013b	88 55 f5	 mov	 BYTE PTR __t$[ebp+17], dl
  0013e	0f 84 b1 00 00
	00		 je	 $LN1@operator@10
  00144	8a 50 13	 mov	 dl, BYTE PTR [eax+19]
  00147	84 d2		 test	 dl, dl
  00149	74 3e		 je	 SHORT $LN77@operator@10
  0014b	80 f2 ea	 xor	 dl, -22			; ffffffeaH
  0014e	88 55 f7	 mov	 BYTE PTR __t$[ebp+19], dl
  00151	8a 50 14	 mov	 dl, BYTE PTR [eax+20]
  00154	84 d2		 test	 dl, dl
  00156	74 2b		 je	 SHORT $LN76@operator@10
  00158	80 f2 ed	 xor	 dl, -19			; ffffffedH
  0015b	88 55 f8	 mov	 BYTE PTR __t$[ebp+20], dl
  0015e	8a 50 15	 mov	 dl, BYTE PTR [eax+21]
  00161	84 d2		 test	 dl, dl
  00163	74 19		 je	 SHORT $LN75@operator@10
  00165	8a 40 16	 mov	 al, BYTE PTR [eax+22]
  00168	32 d1		 xor	 dl, cl
  0016a	88 55 f9	 mov	 BYTE PTR __t$[ebp+21], dl
  0016d	84 c0		 test	 al, al
  0016f	74 07		 je	 SHORT $LN74@operator@10
  00171	34 eb		 xor	 al, -21			; ffffffebH
  00173	88 45 fa	 mov	 BYTE PTR __t$[ebp+22], al
  00176	eb 7d		 jmp	 SHORT $LN1@operator@10
$LN74@operator@10:
  00178	c6 45 fa eb	 mov	 BYTE PTR __t$[ebp+22], -21 ; ffffffebH
  0017c	eb 77		 jmp	 SHORT $LN1@operator@10
$LN75@operator@10:
  0017e	88 4d f9	 mov	 BYTE PTR __t$[ebp+21], cl
  00181	eb 72		 jmp	 SHORT $LN1@operator@10
$LN76@operator@10:
  00183	c6 45 f8 ed	 mov	 BYTE PTR __t$[ebp+20], -19 ; ffffffedH
  00187	eb 6c		 jmp	 SHORT $LN1@operator@10
$LN77@operator@10:
  00189	c6 45 f7 ea	 mov	 BYTE PTR __t$[ebp+19], -22 ; ffffffeaH
  0018d	eb 66		 jmp	 SHORT $LN1@operator@10
$LN79@operator@10:
  0018f	88 4d f5	 mov	 BYTE PTR __t$[ebp+17], cl
  00192	eb 61		 jmp	 SHORT $LN1@operator@10
$LN80@operator@10:
  00194	c6 45 f4 ed	 mov	 BYTE PTR __t$[ebp+16], -19 ; ffffffedH
  00198	eb 5b		 jmp	 SHORT $LN1@operator@10
$LN81@operator@10:
  0019a	c6 45 f3 ea	 mov	 BYTE PTR __t$[ebp+15], -22 ; ffffffeaH
  0019e	eb 55		 jmp	 SHORT $LN1@operator@10
$LN82@operator@10:
  001a0	c6 45 f2 eb	 mov	 BYTE PTR __t$[ebp+14], -21 ; ffffffebH
  001a4	eb 4f		 jmp	 SHORT $LN1@operator@10
$LN83@operator@10:
  001a6	88 4d f1	 mov	 BYTE PTR __t$[ebp+13], cl
  001a9	eb 4a		 jmp	 SHORT $LN1@operator@10
$LN84@operator@10:
  001ab	c6 45 f0 ed	 mov	 BYTE PTR __t$[ebp+12], -19 ; ffffffedH
  001af	eb 44		 jmp	 SHORT $LN1@operator@10
$LN85@operator@10:
  001b1	c6 45 ef ea	 mov	 BYTE PTR __t$[ebp+11], -22 ; ffffffeaH
  001b5	eb 3e		 jmp	 SHORT $LN1@operator@10
$LN86@operator@10:
  001b7	c6 45 ee eb	 mov	 BYTE PTR __t$[ebp+10], -21 ; ffffffebH
  001bb	eb 38		 jmp	 SHORT $LN1@operator@10
$LN87@operator@10:
  001bd	88 4d ed	 mov	 BYTE PTR __t$[ebp+9], cl
  001c0	eb 33		 jmp	 SHORT $LN1@operator@10
$LN88@operator@10:
  001c2	c6 45 ec ed	 mov	 BYTE PTR __t$[ebp+8], -19 ; ffffffedH
  001c6	eb 2d		 jmp	 SHORT $LN1@operator@10
$LN89@operator@10:
  001c8	c6 45 eb ea	 mov	 BYTE PTR __t$[ebp+7], -22 ; ffffffeaH
  001cc	eb 27		 jmp	 SHORT $LN1@operator@10
$LN90@operator@10:
  001ce	c6 45 ea eb	 mov	 BYTE PTR __t$[ebp+6], -21 ; ffffffebH
  001d2	eb 21		 jmp	 SHORT $LN1@operator@10
$LN91@operator@10:
  001d4	88 4d e9	 mov	 BYTE PTR __t$[ebp+5], cl
  001d7	eb 1c		 jmp	 SHORT $LN1@operator@10
$LN92@operator@10:
  001d9	c6 45 e8 ed	 mov	 BYTE PTR __t$[ebp+4], -19 ; ffffffedH
  001dd	eb 16		 jmp	 SHORT $LN1@operator@10
$LN93@operator@10:
  001df	c6 45 e7 ea	 mov	 BYTE PTR __t$[ebp+3], -22 ; ffffffeaH
  001e3	eb 10		 jmp	 SHORT $LN1@operator@10
$LN94@operator@10:
  001e5	c6 45 e6 eb	 mov	 BYTE PTR __t$[ebp+2], -21 ; ffffffebH
  001e9	eb 0a		 jmp	 SHORT $LN1@operator@10
$LN95@operator@10:
  001eb	c6 45 e5 ec	 mov	 BYTE PTR __t$[ebp+1], -20 ; ffffffecH
  001ef	eb 04		 jmp	 SHORT $LN1@operator@10
$LN96@operator@10:
  001f1	c6 45 e4 ed	 mov	 BYTE PTR __t$[ebp], -19	; ffffffedH
$LN1@operator@10:
  001f5	6a 04		 push	 4
  001f7	8d 45 e4	 lea	 eax, DWORD PTR __t$[ebp]
  001fa	c6 45 f6 00	 mov	 BYTE PTR __t$[ebp+18], 0
  001fe	5a		 pop	 edx
$LL104@operator@10:
  001ff	81 30 ed ec eb
	ea		 xor	 DWORD PTR [eax], -353637139 ; eaebecedH
  00205	83 c0 04	 add	 eax, 4
  00208	4a		 dec	 edx
  00209	75 f4		 jne	 SHORT $LL104@operator@10
  0020b	6a 10		 push	 16			; 00000010H
  0020d	58		 pop	 eax
$LL101@operator@10:
  0020e	8b c8		 mov	 ecx, eax
  00210	81 e1 03 00 00
	80		 and	 ecx, -2147483645	; 80000003H
  00216	79 05		 jns	 SHORT $LN115@operator@10
  00218	49		 dec	 ecx
  00219	83 c9 fc	 or	 ecx, -4			; fffffffcH
  0021c	41		 inc	 ecx
$LN115@operator@10:
  0021d	b2 ed		 mov	 dl, -19			; ffffffedH
  0021f	2a d1		 sub	 dl, cl
  00221	30 54 05 e4	 xor	 BYTE PTR __t$[ebp+eax], dl
  00225	40		 inc	 eax
  00226	83 f8 12	 cmp	 eax, 18			; 00000012H
  00229	7c e3		 jl	 SHORT $LL101@operator@10
  0022b	8b cf		 mov	 ecx, edi
  0022d	8d 75 e4	 lea	 esi, DWORD PTR __t$[ebp]
  00230	ff 15 00 00 00
	00		 call	 DWORD PTR __imp_?c_str@ioHashString@@QBEPBDXZ
$LL111@operator@10:
  00236	8a 08		 mov	 cl, BYTE PTR [eax]
  00238	3a 0e		 cmp	 cl, BYTE PTR [esi]
  0023a	75 1a		 jne	 SHORT $LN112@operator@10
  0023c	84 c9		 test	 cl, cl
  0023e	74 12		 je	 SHORT $LN113@operator@10
  00240	8a 48 01	 mov	 cl, BYTE PTR [eax+1]
  00243	3a 4e 01	 cmp	 cl, BYTE PTR [esi+1]
  00246	75 0e		 jne	 SHORT $LN112@operator@10
  00248	83 c0 02	 add	 eax, 2
  0024b	83 c6 02	 add	 esi, 2
  0024e	84 c9		 test	 cl, cl
  00250	75 e4		 jne	 SHORT $LL111@operator@10
$LN113@operator@10:
  00252	33 c0		 xor	 eax, eax
  00254	eb 05		 jmp	 SHORT $LN114@operator@10
$LN112@operator@10:
  00256	1b c0		 sbb	 eax, eax
  00258	83 d8 ff	 sbb	 eax, -1
$LN114@operator@10:
  0025b	33 c9		 xor	 ecx, ecx
  0025d	85 c0		 test	 eax, eax
  0025f	0f 94 c0	 sete	 al

; 148  : }

  00262	8b 4d fc	 mov	 ecx, DWORD PTR __$ArrayPad$[ebp]
  00265	5f		 pop	 edi
  00266	33 cd		 xor	 ecx, ebp
  00268	5e		 pop	 esi
  00269	e8 00 00 00 00	 call	 @__security_check_cookie@4
  0026e	c9		 leave
  0026f	c3		 ret	 0
??$?8$0BD@@@YA_NABVioHashString@@AAY0BD@$$CBD@Z ENDP	; operator==<19>
_TEXT	ENDS
PUBLIC	__$ArrayPad$
PUBLIC	??$?8$0BH@@@YA_NABVioHashString@@AAY0BH@$$CBD@Z	; operator==<23>
; Function compile flags: /Ogsp
;	COMDAT ??$?8$0BH@@@YA_NABVioHashString@@AAY0BH@$$CBD@Z
_TEXT	SEGMENT
__t$ = -32						; size = 23
__$ArrayPad$ = -4					; size = 4
_lhs$ = 8						; size = 4
_t$ = 12						; size = 4
??$?8$0BH@@@YA_NABVioHashString@@AAY0BH@$$CBD@Z PROC	; operator==<23>, COMDAT

; 146  : {

  00000	55		 push	 ebp
  00001	8b ec		 mov	 ebp, esp
  00003	83 ec 20	 sub	 esp, 32			; 00000020H
  00006	a1 00 00 00 00	 mov	 eax, DWORD PTR ___security_cookie
  0000b	33 c5		 xor	 eax, ebp
  0000d	89 45 fc	 mov	 DWORD PTR __$ArrayPad$[ebp], eax
  00010	8b 45 0c	 mov	 eax, DWORD PTR _t$[ebp]

; 147  : 	_ENCSTR(t, _t); return ( strcmp( lhs.c_str(), _t ) == 0 );

  00013	8a 10		 mov	 dl, BYTE PTR [eax]
  00015	53		 push	 ebx
  00016	56		 push	 esi
  00017	57		 push	 edi
  00018	8b 7d 08	 mov	 edi, DWORD PTR _lhs$[ebp]
  0001b	84 d2		 test	 dl, dl
  0001d	0f 84 2d 02 00
	00		 je	 $LN96@operator@11
  00023	80 f2 ed	 xor	 dl, -19			; ffffffedH
  00026	88 55 e0	 mov	 BYTE PTR __t$[ebp], dl
  00029	8a 50 01	 mov	 dl, BYTE PTR [eax+1]
  0002c	84 d2		 test	 dl, dl
  0002e	0f 84 16 02 00
	00		 je	 $LN95@operator@11
  00034	b1 ec		 mov	 cl, -20			; ffffffecH
  00036	32 d1		 xor	 dl, cl
  00038	88 55 e1	 mov	 BYTE PTR __t$[ebp+1], dl
  0003b	8a 50 02	 mov	 dl, BYTE PTR [eax+2]
  0003e	84 d2		 test	 dl, dl
  00040	0f 84 fe 01 00
	00		 je	 $LN94@operator@11
  00046	80 f2 eb	 xor	 dl, -21			; ffffffebH
  00049	88 55 e2	 mov	 BYTE PTR __t$[ebp+2], dl
  0004c	8a 50 03	 mov	 dl, BYTE PTR [eax+3]
  0004f	84 d2		 test	 dl, dl
  00051	0f 84 e7 01 00
	00		 je	 $LN93@operator@11
  00057	b3 ea		 mov	 bl, -22			; ffffffeaH
  00059	32 d3		 xor	 dl, bl
  0005b	88 55 e3	 mov	 BYTE PTR __t$[ebp+3], dl
  0005e	8a 50 04	 mov	 dl, BYTE PTR [eax+4]
  00061	84 d2		 test	 dl, dl
  00063	0f 84 cf 01 00
	00		 je	 $LN92@operator@11
  00069	80 f2 ed	 xor	 dl, -19			; ffffffedH
  0006c	88 55 e4	 mov	 BYTE PTR __t$[ebp+4], dl
  0006f	8a 50 05	 mov	 dl, BYTE PTR [eax+5]
  00072	84 d2		 test	 dl, dl
  00074	0f 84 b9 01 00
	00		 je	 $LN91@operator@11
  0007a	32 d1		 xor	 dl, cl
  0007c	88 55 e5	 mov	 BYTE PTR __t$[ebp+5], dl
  0007f	8a 50 06	 mov	 dl, BYTE PTR [eax+6]
  00082	84 d2		 test	 dl, dl
  00084	0f 84 a3 01 00
	00		 je	 $LN90@operator@11
  0008a	80 f2 eb	 xor	 dl, -21			; ffffffebH
  0008d	88 55 e6	 mov	 BYTE PTR __t$[ebp+6], dl
  00090	8a 50 07	 mov	 dl, BYTE PTR [eax+7]
  00093	84 d2		 test	 dl, dl
  00095	0f 84 8d 01 00
	00		 je	 $LN89@operator@11
  0009b	32 d3		 xor	 dl, bl
  0009d	88 55 e7	 mov	 BYTE PTR __t$[ebp+7], dl
  000a0	8a 50 08	 mov	 dl, BYTE PTR [eax+8]
  000a3	84 d2		 test	 dl, dl
  000a5	0f 84 77 01 00
	00		 je	 $LN88@operator@11
  000ab	80 f2 ed	 xor	 dl, -19			; ffffffedH
  000ae	88 55 e8	 mov	 BYTE PTR __t$[ebp+8], dl
  000b1	8a 50 09	 mov	 dl, BYTE PTR [eax+9]
  000b4	84 d2		 test	 dl, dl
  000b6	0f 84 61 01 00
	00		 je	 $LN87@operator@11
  000bc	32 d1		 xor	 dl, cl
  000be	88 55 e9	 mov	 BYTE PTR __t$[ebp+9], dl
  000c1	8a 50 0a	 mov	 dl, BYTE PTR [eax+10]
  000c4	84 d2		 test	 dl, dl
  000c6	0f 84 4b 01 00
	00		 je	 $LN86@operator@11
  000cc	80 f2 eb	 xor	 dl, -21			; ffffffebH
  000cf	88 55 ea	 mov	 BYTE PTR __t$[ebp+10], dl
  000d2	8a 50 0b	 mov	 dl, BYTE PTR [eax+11]
  000d5	84 d2		 test	 dl, dl
  000d7	0f 84 35 01 00
	00		 je	 $LN85@operator@11
  000dd	32 d3		 xor	 dl, bl
  000df	88 55 eb	 mov	 BYTE PTR __t$[ebp+11], dl
  000e2	8a 50 0c	 mov	 dl, BYTE PTR [eax+12]
  000e5	84 d2		 test	 dl, dl
  000e7	0f 84 1f 01 00
	00		 je	 $LN84@operator@11
  000ed	80 f2 ed	 xor	 dl, -19			; ffffffedH
  000f0	88 55 ec	 mov	 BYTE PTR __t$[ebp+12], dl
  000f3	8a 50 0d	 mov	 dl, BYTE PTR [eax+13]
  000f6	84 d2		 test	 dl, dl
  000f8	0f 84 09 01 00
	00		 je	 $LN83@operator@11
  000fe	32 d1		 xor	 dl, cl
  00100	88 55 ed	 mov	 BYTE PTR __t$[ebp+13], dl
  00103	8a 50 0e	 mov	 dl, BYTE PTR [eax+14]
  00106	84 d2		 test	 dl, dl
  00108	0f 84 f3 00 00
	00		 je	 $LN82@operator@11
  0010e	80 f2 eb	 xor	 dl, -21			; ffffffebH
  00111	88 55 ee	 mov	 BYTE PTR __t$[ebp+14], dl
  00114	8a 50 0f	 mov	 dl, BYTE PTR [eax+15]
  00117	84 d2		 test	 dl, dl
  00119	0f 84 dd 00 00
	00		 je	 $LN81@operator@11
  0011f	32 d3		 xor	 dl, bl
  00121	88 55 ef	 mov	 BYTE PTR __t$[ebp+15], dl
  00124	8a 50 10	 mov	 dl, BYTE PTR [eax+16]
  00127	84 d2		 test	 dl, dl
  00129	0f 84 c7 00 00
	00		 je	 $LN80@operator@11
  0012f	80 f2 ed	 xor	 dl, -19			; ffffffedH
  00132	88 55 f0	 mov	 BYTE PTR __t$[ebp+16], dl
  00135	8a 50 11	 mov	 dl, BYTE PTR [eax+17]
  00138	84 d2		 test	 dl, dl
  0013a	0f 84 b1 00 00
	00		 je	 $LN79@operator@11
  00140	32 d1		 xor	 dl, cl
  00142	88 55 f1	 mov	 BYTE PTR __t$[ebp+17], dl
  00145	8a 50 12	 mov	 dl, BYTE PTR [eax+18]
  00148	84 d2		 test	 dl, dl
  0014a	0f 84 9b 00 00
	00		 je	 $LN78@operator@11
  00150	80 f2 eb	 xor	 dl, -21			; ffffffebH
  00153	88 55 f2	 mov	 BYTE PTR __t$[ebp+18], dl
  00156	8a 50 13	 mov	 dl, BYTE PTR [eax+19]
  00159	84 d2		 test	 dl, dl
  0015b	0f 84 85 00 00
	00		 je	 $LN77@operator@11
  00161	32 d3		 xor	 dl, bl
  00163	88 55 f3	 mov	 BYTE PTR __t$[ebp+19], dl
  00166	8a 50 14	 mov	 dl, BYTE PTR [eax+20]
  00169	84 d2		 test	 dl, dl
  0016b	74 73		 je	 SHORT $LN76@operator@11
  0016d	80 f2 ed	 xor	 dl, -19			; ffffffedH
  00170	88 55 f4	 mov	 BYTE PTR __t$[ebp+20], dl
  00173	8a 50 15	 mov	 dl, BYTE PTR [eax+21]
  00176	84 d2		 test	 dl, dl
  00178	74 61		 je	 SHORT $LN75@operator@11
  0017a	32 d1		 xor	 dl, cl
  0017c	80 78 16 00	 cmp	 BYTE PTR [eax+22], 0
  00180	88 55 f5	 mov	 BYTE PTR __t$[ebp+21], dl
  00183	0f 84 cb 00 00
	00		 je	 $LN1@operator@11
  00189	8a 50 17	 mov	 dl, BYTE PTR [eax+23]
  0018c	84 d2		 test	 dl, dl
  0018e	74 46		 je	 SHORT $LN73@operator@11
  00190	32 d3		 xor	 dl, bl
  00192	88 55 f7	 mov	 BYTE PTR __t$[ebp+23], dl
  00195	8a 50 18	 mov	 dl, BYTE PTR [eax+24]
  00198	84 d2		 test	 dl, dl
  0019a	74 34		 je	 SHORT $LN72@operator@11
  0019c	80 f2 ed	 xor	 dl, -19			; ffffffedH
  0019f	88 55 f8	 mov	 BYTE PTR __t$[ebp+24], dl
  001a2	8a 50 19	 mov	 dl, BYTE PTR [eax+25]
  001a5	84 d2		 test	 dl, dl
  001a7	74 1f		 je	 SHORT $LN71@operator@11
  001a9	8a 40 1a	 mov	 al, BYTE PTR [eax+26]
  001ac	32 d1		 xor	 dl, cl
  001ae	88 55 f9	 mov	 BYTE PTR __t$[ebp+25], dl
  001b1	84 c0		 test	 al, al
  001b3	74 0a		 je	 SHORT $LN70@operator@11
  001b5	34 eb		 xor	 al, -21			; ffffffebH
  001b7	88 45 fa	 mov	 BYTE PTR __t$[ebp+26], al
  001ba	e9 95 00 00 00	 jmp	 $LN1@operator@11
$LN70@operator@11:
  001bf	c6 45 fa eb	 mov	 BYTE PTR __t$[ebp+26], -21 ; ffffffebH
  001c3	e9 8c 00 00 00	 jmp	 $LN1@operator@11
$LN71@operator@11:
  001c8	88 4d f9	 mov	 BYTE PTR __t$[ebp+25], cl
  001cb	e9 84 00 00 00	 jmp	 $LN1@operator@11
$LN72@operator@11:
  001d0	c6 45 f8 ed	 mov	 BYTE PTR __t$[ebp+24], -19 ; ffffffedH
  001d4	eb 7e		 jmp	 SHORT $LN1@operator@11
$LN73@operator@11:
  001d6	88 5d f7	 mov	 BYTE PTR __t$[ebp+23], bl
  001d9	eb 79		 jmp	 SHORT $LN1@operator@11
$LN75@operator@11:
  001db	88 4d f5	 mov	 BYTE PTR __t$[ebp+21], cl
  001de	eb 74		 jmp	 SHORT $LN1@operator@11
$LN76@operator@11:
  001e0	c6 45 f4 ed	 mov	 BYTE PTR __t$[ebp+20], -19 ; ffffffedH
  001e4	eb 6e		 jmp	 SHORT $LN1@operator@11
$LN77@operator@11:
  001e6	88 5d f3	 mov	 BYTE PTR __t$[ebp+19], bl
  001e9	eb 69		 jmp	 SHORT $LN1@operator@11
$LN78@operator@11:
  001eb	c6 45 f2 eb	 mov	 BYTE PTR __t$[ebp+18], -21 ; ffffffebH
  001ef	eb 63		 jmp	 SHORT $LN1@operator@11
$LN79@operator@11:
  001f1	88 4d f1	 mov	 BYTE PTR __t$[ebp+17], cl
  001f4	eb 5e		 jmp	 SHORT $LN1@operator@11
$LN80@operator@11:
  001f6	c6 45 f0 ed	 mov	 BYTE PTR __t$[ebp+16], -19 ; ffffffedH
  001fa	eb 58		 jmp	 SHORT $LN1@operator@11
$LN81@operator@11:
  001fc	88 5d ef	 mov	 BYTE PTR __t$[ebp+15], bl
  001ff	eb 53		 jmp	 SHORT $LN1@operator@11
$LN82@operator@11:
  00201	c6 45 ee eb	 mov	 BYTE PTR __t$[ebp+14], -21 ; ffffffebH
  00205	eb 4d		 jmp	 SHORT $LN1@operator@11
$LN83@operator@11:
  00207	88 4d ed	 mov	 BYTE PTR __t$[ebp+13], cl
  0020a	eb 48		 jmp	 SHORT $LN1@operator@11
$LN84@operator@11:
  0020c	c6 45 ec ed	 mov	 BYTE PTR __t$[ebp+12], -19 ; ffffffedH
  00210	eb 42		 jmp	 SHORT $LN1@operator@11
$LN85@operator@11:
  00212	88 5d eb	 mov	 BYTE PTR __t$[ebp+11], bl
  00215	eb 3d		 jmp	 SHORT $LN1@operator@11
$LN86@operator@11:
  00217	c6 45 ea eb	 mov	 BYTE PTR __t$[ebp+10], -21 ; ffffffebH
  0021b	eb 37		 jmp	 SHORT $LN1@operator@11
$LN87@operator@11:
  0021d	88 4d e9	 mov	 BYTE PTR __t$[ebp+9], cl
  00220	eb 32		 jmp	 SHORT $LN1@operator@11
$LN88@operator@11:
  00222	c6 45 e8 ed	 mov	 BYTE PTR __t$[ebp+8], -19 ; ffffffedH
  00226	eb 2c		 jmp	 SHORT $LN1@operator@11
$LN89@operator@11:
  00228	88 5d e7	 mov	 BYTE PTR __t$[ebp+7], bl
  0022b	eb 27		 jmp	 SHORT $LN1@operator@11
$LN90@operator@11:
  0022d	c6 45 e6 eb	 mov	 BYTE PTR __t$[ebp+6], -21 ; ffffffebH
  00231	eb 21		 jmp	 SHORT $LN1@operator@11
$LN91@operator@11:
  00233	88 4d e5	 mov	 BYTE PTR __t$[ebp+5], cl
  00236	eb 1c		 jmp	 SHORT $LN1@operator@11
$LN92@operator@11:
  00238	c6 45 e4 ed	 mov	 BYTE PTR __t$[ebp+4], -19 ; ffffffedH
  0023c	eb 16		 jmp	 SHORT $LN1@operator@11
$LN93@operator@11:
  0023e	c6 45 e3 ea	 mov	 BYTE PTR __t$[ebp+3], -22 ; ffffffeaH
  00242	eb 10		 jmp	 SHORT $LN1@operator@11
$LN94@operator@11:
  00244	c6 45 e2 eb	 mov	 BYTE PTR __t$[ebp+2], -21 ; ffffffebH
  00248	eb 0a		 jmp	 SHORT $LN1@operator@11
$LN95@operator@11:
  0024a	c6 45 e1 ec	 mov	 BYTE PTR __t$[ebp+1], -20 ; ffffffecH
  0024e	eb 04		 jmp	 SHORT $LN1@operator@11
$LN96@operator@11:
  00250	c6 45 e0 ed	 mov	 BYTE PTR __t$[ebp], -19	; ffffffedH
$LN1@operator@11:
  00254	6a 05		 push	 5
  00256	8d 45 e0	 lea	 eax, DWORD PTR __t$[ebp]
  00259	c6 45 f6 00	 mov	 BYTE PTR __t$[ebp+22], 0
  0025d	5a		 pop	 edx
$LL104@operator@11:
  0025e	81 30 ed ec eb
	ea		 xor	 DWORD PTR [eax], -353637139 ; eaebecedH
  00264	83 c0 04	 add	 eax, 4
  00267	4a		 dec	 edx
  00268	75 f4		 jne	 SHORT $LL104@operator@11
  0026a	6a 14		 push	 20			; 00000014H
  0026c	58		 pop	 eax
$LL101@operator@11:
  0026d	8b c8		 mov	 ecx, eax
  0026f	81 e1 03 00 00
	80		 and	 ecx, -2147483645	; 80000003H
  00275	79 05		 jns	 SHORT $LN115@operator@11
  00277	49		 dec	 ecx
  00278	83 c9 fc	 or	 ecx, -4			; fffffffcH
  0027b	41		 inc	 ecx
$LN115@operator@11:
  0027c	b2 ed		 mov	 dl, -19			; ffffffedH
  0027e	2a d1		 sub	 dl, cl
  00280	30 54 05 e0	 xor	 BYTE PTR __t$[ebp+eax], dl
  00284	40		 inc	 eax
  00285	83 f8 16	 cmp	 eax, 22			; 00000016H
  00288	7c e3		 jl	 SHORT $LL101@operator@11
  0028a	8b cf		 mov	 ecx, edi
  0028c	8d 75 e0	 lea	 esi, DWORD PTR __t$[ebp]
  0028f	ff 15 00 00 00
	00		 call	 DWORD PTR __imp_?c_str@ioHashString@@QBEPBDXZ
$LL111@operator@11:
  00295	8a 08		 mov	 cl, BYTE PTR [eax]
  00297	3a 0e		 cmp	 cl, BYTE PTR [esi]
  00299	75 1a		 jne	 SHORT $LN112@operator@11
  0029b	84 c9		 test	 cl, cl
  0029d	74 12		 je	 SHORT $LN113@operator@11
  0029f	8a 48 01	 mov	 cl, BYTE PTR [eax+1]
  002a2	3a 4e 01	 cmp	 cl, BYTE PTR [esi+1]
  002a5	75 0e		 jne	 SHORT $LN112@operator@11
  002a7	83 c0 02	 add	 eax, 2
  002aa	83 c6 02	 add	 esi, 2
  002ad	84 c9		 test	 cl, cl
  002af	75 e4		 jne	 SHORT $LL111@operator@11
$LN113@operator@11:
  002b1	33 c0		 xor	 eax, eax
  002b3	eb 05		 jmp	 SHORT $LN114@operator@11
$LN112@operator@11:
  002b5	1b c0		 sbb	 eax, eax
  002b7	83 d8 ff	 sbb	 eax, -1
$LN114@operator@11:
  002ba	33 c9		 xor	 ecx, ecx
  002bc	85 c0		 test	 eax, eax
  002be	0f 94 c0	 sete	 al

; 148  : }

  002c1	8b 4d fc	 mov	 ecx, DWORD PTR __$ArrayPad$[ebp]
  002c4	5f		 pop	 edi
  002c5	5e		 pop	 esi
  002c6	33 cd		 xor	 ecx, ebp
  002c8	5b		 pop	 ebx
  002c9	e8 00 00 00 00	 call	 @__security_check_cookie@4
  002ce	c9		 leave
  002cf	c3		 ret	 0
??$?8$0BH@@@YA_NABVioHashString@@AAY0BH@$$CBD@Z ENDP	; operator==<23>
_TEXT	ENDS
PUBLIC	__$ArrayPad$
PUBLIC	??$?8$0BI@@@YA_NABVioHashString@@AAY0BI@$$CBD@Z	; operator==<24>
; Function compile flags: /Ogsp
;	COMDAT ??$?8$0BI@@@YA_NABVioHashString@@AAY0BI@$$CBD@Z
_TEXT	SEGMENT
__t$ = -32						; size = 24
__$ArrayPad$ = -4					; size = 4
_lhs$ = 8						; size = 4
_t$ = 12						; size = 4
??$?8$0BI@@@YA_NABVioHashString@@AAY0BI@$$CBD@Z PROC	; operator==<24>, COMDAT

; 146  : {

  00000	55		 push	 ebp
  00001	8b ec		 mov	 ebp, esp
  00003	83 ec 20	 sub	 esp, 32			; 00000020H
  00006	a1 00 00 00 00	 mov	 eax, DWORD PTR ___security_cookie
  0000b	33 c5		 xor	 eax, ebp
  0000d	89 45 fc	 mov	 DWORD PTR __$ArrayPad$[ebp], eax
  00010	8b 45 0c	 mov	 eax, DWORD PTR _t$[ebp]

; 147  : 	_ENCSTR(t, _t); return ( strcmp( lhs.c_str(), _t ) == 0 );

  00013	8a 10		 mov	 dl, BYTE PTR [eax]
  00015	53		 push	 ebx
  00016	56		 push	 esi
  00017	57		 push	 edi
  00018	8b 7d 08	 mov	 edi, DWORD PTR _lhs$[ebp]
  0001b	84 d2		 test	 dl, dl
  0001d	0f 84 45 02 00
	00		 je	 $LN96@operator@12
  00023	80 f2 ed	 xor	 dl, -19			; ffffffedH
  00026	88 55 e0	 mov	 BYTE PTR __t$[ebp], dl
  00029	8a 50 01	 mov	 dl, BYTE PTR [eax+1]
  0002c	84 d2		 test	 dl, dl
  0002e	0f 84 2e 02 00
	00		 je	 $LN95@operator@12
  00034	b3 ec		 mov	 bl, -20			; ffffffecH
  00036	32 d3		 xor	 dl, bl
  00038	88 55 e1	 mov	 BYTE PTR __t$[ebp+1], dl
  0003b	8a 50 02	 mov	 dl, BYTE PTR [eax+2]
  0003e	84 d2		 test	 dl, dl
  00040	0f 84 16 02 00
	00		 je	 $LN94@operator@12
  00046	b1 eb		 mov	 cl, -21			; ffffffebH
  00048	32 d1		 xor	 dl, cl
  0004a	88 55 e2	 mov	 BYTE PTR __t$[ebp+2], dl
  0004d	8a 50 03	 mov	 dl, BYTE PTR [eax+3]
  00050	84 d2		 test	 dl, dl
  00052	0f 84 fe 01 00
	00		 je	 $LN93@operator@12
  00058	80 f2 ea	 xor	 dl, -22			; ffffffeaH
  0005b	88 55 e3	 mov	 BYTE PTR __t$[ebp+3], dl
  0005e	8a 50 04	 mov	 dl, BYTE PTR [eax+4]
  00061	84 d2		 test	 dl, dl
  00063	0f 84 e7 01 00
	00		 je	 $LN92@operator@12
  00069	80 f2 ed	 xor	 dl, -19			; ffffffedH
  0006c	88 55 e4	 mov	 BYTE PTR __t$[ebp+4], dl
  0006f	8a 50 05	 mov	 dl, BYTE PTR [eax+5]
  00072	84 d2		 test	 dl, dl
  00074	0f 84 d1 01 00
	00		 je	 $LN91@operator@12
  0007a	32 d3		 xor	 dl, bl
  0007c	88 55 e5	 mov	 BYTE PTR __t$[ebp+5], dl
  0007f	8a 50 06	 mov	 dl, BYTE PTR [eax+6]
  00082	84 d2		 test	 dl, dl
  00084	0f 84 bc 01 00
	00		 je	 $LN90@operator@12
  0008a	32 d1		 xor	 dl, cl
  0008c	88 55 e6	 mov	 BYTE PTR __t$[ebp+6], dl
  0008f	8a 50 07	 mov	 dl, BYTE PTR [eax+7]
  00092	84 d2		 test	 dl, dl
  00094	0f 84 a6 01 00
	00		 je	 $LN89@operator@12
  0009a	80 f2 ea	 xor	 dl, -22			; ffffffeaH
  0009d	88 55 e7	 mov	 BYTE PTR __t$[ebp+7], dl
  000a0	8a 50 08	 mov	 dl, BYTE PTR [eax+8]
  000a3	84 d2		 test	 dl, dl
  000a5	0f 84 8f 01 00
	00		 je	 $LN88@operator@12
  000ab	80 f2 ed	 xor	 dl, -19			; ffffffedH
  000ae	88 55 e8	 mov	 BYTE PTR __t$[ebp+8], dl
  000b1	8a 50 09	 mov	 dl, BYTE PTR [eax+9]
  000b4	84 d2		 test	 dl, dl
  000b6	0f 84 79 01 00
	00		 je	 $LN87@operator@12
  000bc	32 d3		 xor	 dl, bl
  000be	88 55 e9	 mov	 BYTE PTR __t$[ebp+9], dl
  000c1	8a 50 0a	 mov	 dl, BYTE PTR [eax+10]
  000c4	84 d2		 test	 dl, dl
  000c6	0f 84 64 01 00
	00		 je	 $LN86@operator@12
  000cc	32 d1		 xor	 dl, cl
  000ce	88 55 ea	 mov	 BYTE PTR __t$[ebp+10], dl
  000d1	8a 50 0b	 mov	 dl, BYTE PTR [eax+11]
  000d4	84 d2		 test	 dl, dl
  000d6	0f 84 4e 01 00
	00		 je	 $LN85@operator@12
  000dc	80 f2 ea	 xor	 dl, -22			; ffffffeaH
  000df	88 55 eb	 mov	 BYTE PTR __t$[ebp+11], dl
  000e2	8a 50 0c	 mov	 dl, BYTE PTR [eax+12]
  000e5	84 d2		 test	 dl, dl
  000e7	0f 84 37 01 00
	00		 je	 $LN84@operator@12
  000ed	80 f2 ed	 xor	 dl, -19			; ffffffedH
  000f0	88 55 ec	 mov	 BYTE PTR __t$[ebp+12], dl
  000f3	8a 50 0d	 mov	 dl, BYTE PTR [eax+13]
  000f6	84 d2		 test	 dl, dl
  000f8	0f 84 21 01 00
	00		 je	 $LN83@operator@12
  000fe	32 d3		 xor	 dl, bl
  00100	88 55 ed	 mov	 BYTE PTR __t$[ebp+13], dl
  00103	8a 50 0e	 mov	 dl, BYTE PTR [eax+14]
  00106	84 d2		 test	 dl, dl
  00108	0f 84 0c 01 00
	00		 je	 $LN82@operator@12
  0010e	32 d1		 xor	 dl, cl
  00110	88 55 ee	 mov	 BYTE PTR __t$[ebp+14], dl
  00113	8a 50 0f	 mov	 dl, BYTE PTR [eax+15]
  00116	84 d2		 test	 dl, dl
  00118	0f 84 f6 00 00
	00		 je	 $LN81@operator@12
  0011e	80 f2 ea	 xor	 dl, -22			; ffffffeaH
  00121	88 55 ef	 mov	 BYTE PTR __t$[ebp+15], dl
  00124	8a 50 10	 mov	 dl, BYTE PTR [eax+16]
  00127	84 d2		 test	 dl, dl
  00129	0f 84 df 00 00
	00		 je	 $LN80@operator@12
  0012f	80 f2 ed	 xor	 dl, -19			; ffffffedH
  00132	88 55 f0	 mov	 BYTE PTR __t$[ebp+16], dl
  00135	8a 50 11	 mov	 dl, BYTE PTR [eax+17]
  00138	84 d2		 test	 dl, dl
  0013a	0f 84 c9 00 00
	00		 je	 $LN79@operator@12
  00140	32 d3		 xor	 dl, bl
  00142	88 55 f1	 mov	 BYTE PTR __t$[ebp+17], dl
  00145	8a 50 12	 mov	 dl, BYTE PTR [eax+18]
  00148	84 d2		 test	 dl, dl
  0014a	0f 84 b4 00 00
	00		 je	 $LN78@operator@12
  00150	32 d1		 xor	 dl, cl
  00152	88 55 f2	 mov	 BYTE PTR __t$[ebp+18], dl
  00155	8a 50 13	 mov	 dl, BYTE PTR [eax+19]
  00158	84 d2		 test	 dl, dl
  0015a	0f 84 9e 00 00
	00		 je	 $LN77@operator@12
  00160	80 f2 ea	 xor	 dl, -22			; ffffffeaH
  00163	88 55 f3	 mov	 BYTE PTR __t$[ebp+19], dl
  00166	8a 50 14	 mov	 dl, BYTE PTR [eax+20]
  00169	84 d2		 test	 dl, dl
  0016b	0f 84 87 00 00
	00		 je	 $LN76@operator@12
  00171	80 f2 ed	 xor	 dl, -19			; ffffffedH
  00174	88 55 f4	 mov	 BYTE PTR __t$[ebp+20], dl
  00177	8a 50 15	 mov	 dl, BYTE PTR [eax+21]
  0017a	84 d2		 test	 dl, dl
  0017c	74 75		 je	 SHORT $LN75@operator@12
  0017e	32 d3		 xor	 dl, bl
  00180	88 55 f5	 mov	 BYTE PTR __t$[ebp+21], dl
  00183	8a 50 16	 mov	 dl, BYTE PTR [eax+22]
  00186	84 d2		 test	 dl, dl
  00188	74 64		 je	 SHORT $LN74@operator@12
  0018a	32 d1		 xor	 dl, cl
  0018c	80 78 17 00	 cmp	 BYTE PTR [eax+23], 0
  00190	88 55 f6	 mov	 BYTE PTR __t$[ebp+22], dl
  00193	0f 84 d3 00 00
	00		 je	 $LN1@operator@12
  00199	8a 50 18	 mov	 dl, BYTE PTR [eax+24]
  0019c	84 d2		 test	 dl, dl
  0019e	74 48		 je	 SHORT $LN72@operator@12
  001a0	80 f2 ed	 xor	 dl, -19			; ffffffedH
  001a3	88 55 f8	 mov	 BYTE PTR __t$[ebp+24], dl
  001a6	8a 50 19	 mov	 dl, BYTE PTR [eax+25]
  001a9	84 d2		 test	 dl, dl
  001ab	74 33		 je	 SHORT $LN71@operator@12
  001ad	32 d3		 xor	 dl, bl
  001af	88 55 f9	 mov	 BYTE PTR __t$[ebp+25], dl
  001b2	8a 50 1a	 mov	 dl, BYTE PTR [eax+26]
  001b5	84 d2		 test	 dl, dl
  001b7	74 1f		 je	 SHORT $LN70@operator@12
  001b9	8a 40 1b	 mov	 al, BYTE PTR [eax+27]
  001bc	32 d1		 xor	 dl, cl
  001be	88 55 fa	 mov	 BYTE PTR __t$[ebp+26], dl
  001c1	84 c0		 test	 al, al
  001c3	74 0a		 je	 SHORT $LN69@operator@12
  001c5	34 ea		 xor	 al, -22			; ffffffeaH
  001c7	88 45 fb	 mov	 BYTE PTR __t$[ebp+27], al
  001ca	e9 9d 00 00 00	 jmp	 $LN1@operator@12
$LN69@operator@12:
  001cf	c6 45 fb ea	 mov	 BYTE PTR __t$[ebp+27], -22 ; ffffffeaH
  001d3	e9 94 00 00 00	 jmp	 $LN1@operator@12
$LN70@operator@12:
  001d8	88 4d fa	 mov	 BYTE PTR __t$[ebp+26], cl
  001db	e9 8c 00 00 00	 jmp	 $LN1@operator@12
$LN71@operator@12:
  001e0	88 5d f9	 mov	 BYTE PTR __t$[ebp+25], bl
  001e3	e9 84 00 00 00	 jmp	 $LN1@operator@12
$LN72@operator@12:
  001e8	c6 45 f8 ed	 mov	 BYTE PTR __t$[ebp+24], -19 ; ffffffedH
  001ec	eb 7e		 jmp	 SHORT $LN1@operator@12
$LN74@operator@12:
  001ee	88 4d f6	 mov	 BYTE PTR __t$[ebp+22], cl
  001f1	eb 79		 jmp	 SHORT $LN1@operator@12
$LN75@operator@12:
  001f3	88 5d f5	 mov	 BYTE PTR __t$[ebp+21], bl
  001f6	eb 74		 jmp	 SHORT $LN1@operator@12
$LN76@operator@12:
  001f8	c6 45 f4 ed	 mov	 BYTE PTR __t$[ebp+20], -19 ; ffffffedH
  001fc	eb 6e		 jmp	 SHORT $LN1@operator@12
$LN77@operator@12:
  001fe	c6 45 f3 ea	 mov	 BYTE PTR __t$[ebp+19], -22 ; ffffffeaH
  00202	eb 68		 jmp	 SHORT $LN1@operator@12
$LN78@operator@12:
  00204	88 4d f2	 mov	 BYTE PTR __t$[ebp+18], cl
  00207	eb 63		 jmp	 SHORT $LN1@operator@12
$LN79@operator@12:
  00209	88 5d f1	 mov	 BYTE PTR __t$[ebp+17], bl
  0020c	eb 5e		 jmp	 SHORT $LN1@operator@12
$LN80@operator@12:
  0020e	c6 45 f0 ed	 mov	 BYTE PTR __t$[ebp+16], -19 ; ffffffedH
  00212	eb 58		 jmp	 SHORT $LN1@operator@12
$LN81@operator@12:
  00214	c6 45 ef ea	 mov	 BYTE PTR __t$[ebp+15], -22 ; ffffffeaH
  00218	eb 52		 jmp	 SHORT $LN1@operator@12
$LN82@operator@12:
  0021a	88 4d ee	 mov	 BYTE PTR __t$[ebp+14], cl
  0021d	eb 4d		 jmp	 SHORT $LN1@operator@12
$LN83@operator@12:
  0021f	88 5d ed	 mov	 BYTE PTR __t$[ebp+13], bl
  00222	eb 48		 jmp	 SHORT $LN1@operator@12
$LN84@operator@12:
  00224	c6 45 ec ed	 mov	 BYTE PTR __t$[ebp+12], -19 ; ffffffedH
  00228	eb 42		 jmp	 SHORT $LN1@operator@12
$LN85@operator@12:
  0022a	c6 45 eb ea	 mov	 BYTE PTR __t$[ebp+11], -22 ; ffffffeaH
  0022e	eb 3c		 jmp	 SHORT $LN1@operator@12
$LN86@operator@12:
  00230	88 4d ea	 mov	 BYTE PTR __t$[ebp+10], cl
  00233	eb 37		 jmp	 SHORT $LN1@operator@12
$LN87@operator@12:
  00235	88 5d e9	 mov	 BYTE PTR __t$[ebp+9], bl
  00238	eb 32		 jmp	 SHORT $LN1@operator@12
$LN88@operator@12:
  0023a	c6 45 e8 ed	 mov	 BYTE PTR __t$[ebp+8], -19 ; ffffffedH
  0023e	eb 2c		 jmp	 SHORT $LN1@operator@12
$LN89@operator@12:
  00240	c6 45 e7 ea	 mov	 BYTE PTR __t$[ebp+7], -22 ; ffffffeaH
  00244	eb 26		 jmp	 SHORT $LN1@operator@12
$LN90@operator@12:
  00246	88 4d e6	 mov	 BYTE PTR __t$[ebp+6], cl
  00249	eb 21		 jmp	 SHORT $LN1@operator@12
$LN91@operator@12:
  0024b	88 5d e5	 mov	 BYTE PTR __t$[ebp+5], bl
  0024e	eb 1c		 jmp	 SHORT $LN1@operator@12
$LN92@operator@12:
  00250	c6 45 e4 ed	 mov	 BYTE PTR __t$[ebp+4], -19 ; ffffffedH
  00254	eb 16		 jmp	 SHORT $LN1@operator@12
$LN93@operator@12:
  00256	c6 45 e3 ea	 mov	 BYTE PTR __t$[ebp+3], -22 ; ffffffeaH
  0025a	eb 10		 jmp	 SHORT $LN1@operator@12
$LN94@operator@12:
  0025c	c6 45 e2 eb	 mov	 BYTE PTR __t$[ebp+2], -21 ; ffffffebH
  00260	eb 0a		 jmp	 SHORT $LN1@operator@12
$LN95@operator@12:
  00262	c6 45 e1 ec	 mov	 BYTE PTR __t$[ebp+1], -20 ; ffffffecH
  00266	eb 04		 jmp	 SHORT $LN1@operator@12
$LN96@operator@12:
  00268	c6 45 e0 ed	 mov	 BYTE PTR __t$[ebp], -19	; ffffffedH
$LN1@operator@12:
  0026c	6a 05		 push	 5
  0026e	8d 45 e0	 lea	 eax, DWORD PTR __t$[ebp]
  00271	c6 45 f7 00	 mov	 BYTE PTR __t$[ebp+23], 0
  00275	5a		 pop	 edx
$LL104@operator@12:
  00276	81 30 ed ec eb
	ea		 xor	 DWORD PTR [eax], -353637139 ; eaebecedH
  0027c	83 c0 04	 add	 eax, 4
  0027f	4a		 dec	 edx
  00280	75 f4		 jne	 SHORT $LL104@operator@12
  00282	6a 14		 push	 20			; 00000014H
  00284	58		 pop	 eax
$LL101@operator@12:
  00285	8b c8		 mov	 ecx, eax
  00287	81 e1 03 00 00
	80		 and	 ecx, -2147483645	; 80000003H
  0028d	79 05		 jns	 SHORT $LN115@operator@12
  0028f	49		 dec	 ecx
  00290	83 c9 fc	 or	 ecx, -4			; fffffffcH
  00293	41		 inc	 ecx
$LN115@operator@12:
  00294	b2 ed		 mov	 dl, -19			; ffffffedH
  00296	2a d1		 sub	 dl, cl
  00298	30 54 05 e0	 xor	 BYTE PTR __t$[ebp+eax], dl
  0029c	40		 inc	 eax
  0029d	83 f8 17	 cmp	 eax, 23			; 00000017H
  002a0	7c e3		 jl	 SHORT $LL101@operator@12
  002a2	8b cf		 mov	 ecx, edi
  002a4	8d 75 e0	 lea	 esi, DWORD PTR __t$[ebp]
  002a7	ff 15 00 00 00
	00		 call	 DWORD PTR __imp_?c_str@ioHashString@@QBEPBDXZ
$LL111@operator@12:
  002ad	8a 08		 mov	 cl, BYTE PTR [eax]
  002af	3a 0e		 cmp	 cl, BYTE PTR [esi]
  002b1	75 1a		 jne	 SHORT $LN112@operator@12
  002b3	84 c9		 test	 cl, cl
  002b5	74 12		 je	 SHORT $LN113@operator@12
  002b7	8a 48 01	 mov	 cl, BYTE PTR [eax+1]
  002ba	3a 4e 01	 cmp	 cl, BYTE PTR [esi+1]
  002bd	75 0e		 jne	 SHORT $LN112@operator@12
  002bf	83 c0 02	 add	 eax, 2
  002c2	83 c6 02	 add	 esi, 2
  002c5	84 c9		 test	 cl, cl
  002c7	75 e4		 jne	 SHORT $LL111@operator@12
$LN113@operator@12:
  002c9	33 c0		 xor	 eax, eax
  002cb	eb 05		 jmp	 SHORT $LN114@operator@12
$LN112@operator@12:
  002cd	1b c0		 sbb	 eax, eax
  002cf	83 d8 ff	 sbb	 eax, -1
$LN114@operator@12:
  002d2	33 c9		 xor	 ecx, ecx
  002d4	85 c0		 test	 eax, eax
  002d6	0f 94 c0	 sete	 al

; 148  : }

  002d9	8b 4d fc	 mov	 ecx, DWORD PTR __$ArrayPad$[ebp]
  002dc	5f		 pop	 edi
  002dd	5e		 pop	 esi
  002de	33 cd		 xor	 ecx, ebp
  002e0	5b		 pop	 ebx
  002e1	e8 00 00 00 00	 call	 @__security_check_cookie@4
  002e6	c9		 leave
  002e7	c3		 ret	 0
??$?8$0BI@@@YA_NABVioHashString@@AAY0BI@$$CBD@Z ENDP	; operator==<24>
_TEXT	ENDS
PUBLIC	__$ArrayPad$
PUBLIC	??$GetIntAttribute_e@$0M@@ioXMLElement@@QBEHAAY0M@$$CBD@Z ; ioXMLElement::GetIntAttribute_e<12>
EXTRN	__imp_?GetIntAttribute@ioXMLElement@@QBEHPBD@Z:PROC
; Function compile flags: /Ogsp
; File d:\lost saga for developer\youtube\tutorial\source\src\io3dengine\ioxmlelement.h
;	COMDAT ??$GetIntAttribute_e@$0M@@ioXMLElement@@QBEHAAY0M@$$CBD@Z
_TEXT	SEGMENT
__k$ = -20						; size = 12
__$ArrayPad$ = -4					; size = 4
_k$ = 8							; size = 4
??$GetIntAttribute_e@$0M@@ioXMLElement@@QBEHAAY0M@$$CBD@Z PROC ; ioXMLElement::GetIntAttribute_e<12>, COMDAT
; _this$ = ecx

; 86   : 	{

  00000	55		 push	 ebp
  00001	8b ec		 mov	 ebp, esp
  00003	83 ec 14	 sub	 esp, 20			; 00000014H
  00006	a1 00 00 00 00	 mov	 eax, DWORD PTR ___security_cookie
  0000b	33 c5		 xor	 eax, ebp
  0000d	89 45 fc	 mov	 DWORD PTR __$ArrayPad$[ebp], eax
  00010	8b 45 08	 mov	 eax, DWORD PTR _k$[ebp]

; 87   : 		_ENCSTR(k, _k);

  00013	8a 10		 mov	 dl, BYTE PTR [eax]
  00015	56		 push	 esi
  00016	8b f1		 mov	 esi, ecx
  00018	84 d2		 test	 dl, dl
  0001a	0f 84 32 01 00
	00		 je	 $LN96@GetIntAttr
  00020	80 f2 ed	 xor	 dl, -19			; ffffffedH
  00023	88 55 ec	 mov	 BYTE PTR __k$[ebp], dl
  00026	8a 50 01	 mov	 dl, BYTE PTR [eax+1]
  00029	84 d2		 test	 dl, dl
  0002b	0f 84 1b 01 00
	00		 je	 $LN95@GetIntAttr
  00031	80 f2 ec	 xor	 dl, -20			; ffffffecH
  00034	88 55 ed	 mov	 BYTE PTR __k$[ebp+1], dl
  00037	8a 50 02	 mov	 dl, BYTE PTR [eax+2]
  0003a	84 d2		 test	 dl, dl
  0003c	0f 84 04 01 00
	00		 je	 $LN94@GetIntAttr
  00042	b1 eb		 mov	 cl, -21			; ffffffebH
  00044	32 d1		 xor	 dl, cl
  00046	88 55 ee	 mov	 BYTE PTR __k$[ebp+2], dl
  00049	8a 50 03	 mov	 dl, BYTE PTR [eax+3]
  0004c	84 d2		 test	 dl, dl
  0004e	0f 84 ec 00 00
	00		 je	 $LN93@GetIntAttr
  00054	80 f2 ea	 xor	 dl, -22			; ffffffeaH
  00057	88 55 ef	 mov	 BYTE PTR __k$[ebp+3], dl
  0005a	8a 50 04	 mov	 dl, BYTE PTR [eax+4]
  0005d	84 d2		 test	 dl, dl
  0005f	0f 84 d5 00 00
	00		 je	 $LN92@GetIntAttr
  00065	80 f2 ed	 xor	 dl, -19			; ffffffedH
  00068	88 55 f0	 mov	 BYTE PTR __k$[ebp+4], dl
  0006b	8a 50 05	 mov	 dl, BYTE PTR [eax+5]
  0006e	84 d2		 test	 dl, dl
  00070	0f 84 be 00 00
	00		 je	 $LN91@GetIntAttr
  00076	80 f2 ec	 xor	 dl, -20			; ffffffecH
  00079	88 55 f1	 mov	 BYTE PTR __k$[ebp+5], dl
  0007c	8a 50 06	 mov	 dl, BYTE PTR [eax+6]
  0007f	84 d2		 test	 dl, dl
  00081	0f 84 a8 00 00
	00		 je	 $LN90@GetIntAttr
  00087	32 d1		 xor	 dl, cl
  00089	88 55 f2	 mov	 BYTE PTR __k$[ebp+6], dl
  0008c	8a 50 07	 mov	 dl, BYTE PTR [eax+7]
  0008f	84 d2		 test	 dl, dl
  00091	0f 84 92 00 00
	00		 je	 $LN89@GetIntAttr
  00097	80 f2 ea	 xor	 dl, -22			; ffffffeaH
  0009a	88 55 f3	 mov	 BYTE PTR __k$[ebp+7], dl
  0009d	8a 50 08	 mov	 dl, BYTE PTR [eax+8]
  000a0	84 d2		 test	 dl, dl
  000a2	74 7f		 je	 SHORT $LN88@GetIntAttr
  000a4	80 f2 ed	 xor	 dl, -19			; ffffffedH
  000a7	88 55 f4	 mov	 BYTE PTR __k$[ebp+8], dl
  000aa	8a 50 09	 mov	 dl, BYTE PTR [eax+9]
  000ad	84 d2		 test	 dl, dl
  000af	74 6c		 je	 SHORT $LN87@GetIntAttr
  000b1	80 f2 ec	 xor	 dl, -20			; ffffffecH
  000b4	88 55 f5	 mov	 BYTE PTR __k$[ebp+9], dl
  000b7	8a 50 0a	 mov	 dl, BYTE PTR [eax+10]
  000ba	84 d2		 test	 dl, dl
  000bc	74 5a		 je	 SHORT $LN86@GetIntAttr
  000be	32 d1		 xor	 dl, cl
  000c0	80 78 0b 00	 cmp	 BYTE PTR [eax+11], 0
  000c4	88 55 f6	 mov	 BYTE PTR __k$[ebp+10], dl
  000c7	0f 84 89 00 00
	00		 je	 $LN1@GetIntAttr
  000cd	8a 50 0c	 mov	 dl, BYTE PTR [eax+12]
  000d0	84 d2		 test	 dl, dl
  000d2	74 3e		 je	 SHORT $LN84@GetIntAttr
  000d4	80 f2 ed	 xor	 dl, -19			; ffffffedH
  000d7	88 55 f8	 mov	 BYTE PTR __k$[ebp+12], dl
  000da	8a 50 0d	 mov	 dl, BYTE PTR [eax+13]
  000dd	84 d2		 test	 dl, dl
  000df	74 2b		 je	 SHORT $LN83@GetIntAttr
  000e1	80 f2 ec	 xor	 dl, -20			; ffffffecH
  000e4	88 55 f9	 mov	 BYTE PTR __k$[ebp+13], dl
  000e7	8a 50 0e	 mov	 dl, BYTE PTR [eax+14]
  000ea	84 d2		 test	 dl, dl
  000ec	74 19		 je	 SHORT $LN82@GetIntAttr
  000ee	8a 40 0f	 mov	 al, BYTE PTR [eax+15]
  000f1	32 d1		 xor	 dl, cl
  000f3	88 55 fa	 mov	 BYTE PTR __k$[ebp+14], dl
  000f6	84 c0		 test	 al, al
  000f8	74 07		 je	 SHORT $LN81@GetIntAttr
  000fa	34 ea		 xor	 al, -22			; ffffffeaH
  000fc	88 45 fb	 mov	 BYTE PTR __k$[ebp+15], al
  000ff	eb 55		 jmp	 SHORT $LN1@GetIntAttr
$LN81@GetIntAttr:
  00101	c6 45 fb ea	 mov	 BYTE PTR __k$[ebp+15], -22 ; ffffffeaH
  00105	eb 4f		 jmp	 SHORT $LN1@GetIntAttr
$LN82@GetIntAttr:
  00107	88 4d fa	 mov	 BYTE PTR __k$[ebp+14], cl
  0010a	eb 4a		 jmp	 SHORT $LN1@GetIntAttr
$LN83@GetIntAttr:
  0010c	c6 45 f9 ec	 mov	 BYTE PTR __k$[ebp+13], -20 ; ffffffecH
  00110	eb 44		 jmp	 SHORT $LN1@GetIntAttr
$LN84@GetIntAttr:
  00112	c6 45 f8 ed	 mov	 BYTE PTR __k$[ebp+12], -19 ; ffffffedH
  00116	eb 3e		 jmp	 SHORT $LN1@GetIntAttr
$LN86@GetIntAttr:
  00118	88 4d f6	 mov	 BYTE PTR __k$[ebp+10], cl
  0011b	eb 39		 jmp	 SHORT $LN1@GetIntAttr
$LN87@GetIntAttr:
  0011d	c6 45 f5 ec	 mov	 BYTE PTR __k$[ebp+9], -20 ; ffffffecH
  00121	eb 33		 jmp	 SHORT $LN1@GetIntAttr
$LN88@GetIntAttr:
  00123	c6 45 f4 ed	 mov	 BYTE PTR __k$[ebp+8], -19 ; ffffffedH
  00127	eb 2d		 jmp	 SHORT $LN1@GetIntAttr
$LN89@GetIntAttr:
  00129	c6 45 f3 ea	 mov	 BYTE PTR __k$[ebp+7], -22 ; ffffffeaH
  0012d	eb 27		 jmp	 SHORT $LN1@GetIntAttr
$LN90@GetIntAttr:
  0012f	88 4d f2	 mov	 BYTE PTR __k$[ebp+6], cl
  00132	eb 22		 jmp	 SHORT $LN1@GetIntAttr
$LN91@GetIntAttr:
  00134	c6 45 f1 ec	 mov	 BYTE PTR __k$[ebp+5], -20 ; ffffffecH
  00138	eb 1c		 jmp	 SHORT $LN1@GetIntAttr
$LN92@GetIntAttr:
  0013a	c6 45 f0 ed	 mov	 BYTE PTR __k$[ebp+4], -19 ; ffffffedH
  0013e	eb 16		 jmp	 SHORT $LN1@GetIntAttr
$LN93@GetIntAttr:
  00140	c6 45 ef ea	 mov	 BYTE PTR __k$[ebp+3], -22 ; ffffffeaH
  00144	eb 10		 jmp	 SHORT $LN1@GetIntAttr
$LN94@GetIntAttr:
  00146	c6 45 ee eb	 mov	 BYTE PTR __k$[ebp+2], -21 ; ffffffebH
  0014a	eb 0a		 jmp	 SHORT $LN1@GetIntAttr
$LN95@GetIntAttr:
  0014c	c6 45 ed ec	 mov	 BYTE PTR __k$[ebp+1], -20 ; ffffffecH
  00150	eb 04		 jmp	 SHORT $LN1@GetIntAttr
$LN96@GetIntAttr:
  00152	c6 45 ec ed	 mov	 BYTE PTR __k$[ebp], -19	; ffffffedH
$LN1@GetIntAttr:
  00156	6a 02		 push	 2
  00158	8d 45 ec	 lea	 eax, DWORD PTR __k$[ebp]
  0015b	c6 45 f7 00	 mov	 BYTE PTR __k$[ebp+11], 0
  0015f	5a		 pop	 edx
$LL104@GetIntAttr:
  00160	81 30 ed ec eb
	ea		 xor	 DWORD PTR [eax], -353637139 ; eaebecedH
  00166	83 c0 04	 add	 eax, 4
  00169	4a		 dec	 edx
  0016a	75 f4		 jne	 SHORT $LL104@GetIntAttr
  0016c	6a 08		 push	 8
  0016e	58		 pop	 eax
$LL101@GetIntAttr:
  0016f	8b c8		 mov	 ecx, eax
  00171	81 e1 03 00 00
	80		 and	 ecx, -2147483645	; 80000003H
  00177	79 05		 jns	 SHORT $LN111@GetIntAttr
  00179	49		 dec	 ecx
  0017a	83 c9 fc	 or	 ecx, -4			; fffffffcH
  0017d	41		 inc	 ecx
$LN111@GetIntAttr:
  0017e	b2 ed		 mov	 dl, -19			; ffffffedH
  00180	2a d1		 sub	 dl, cl
  00182	30 54 05 ec	 xor	 BYTE PTR __k$[ebp+eax], dl
  00186	40		 inc	 eax
  00187	83 f8 0b	 cmp	 eax, 11			; 0000000bH
  0018a	7c e3		 jl	 SHORT $LL101@GetIntAttr

; 88   : 		return GetIntAttribute(_k);

  0018c	8d 45 ec	 lea	 eax, DWORD PTR __k$[ebp]
  0018f	50		 push	 eax
  00190	8b ce		 mov	 ecx, esi
  00192	ff 15 00 00 00
	00		 call	 DWORD PTR __imp_?GetIntAttribute@ioXMLElement@@QBEHPBD@Z

; 89   : 	}

  00198	8b 4d fc	 mov	 ecx, DWORD PTR __$ArrayPad$[ebp]
  0019b	33 cd		 xor	 ecx, ebp
  0019d	5e		 pop	 esi
  0019e	e8 00 00 00 00	 call	 @__security_check_cookie@4
  001a3	c9		 leave
  001a4	c2 04 00	 ret	 4
??$GetIntAttribute_e@$0M@@ioXMLElement@@QBEHAAY0M@$$CBD@Z ENDP ; ioXMLElement::GetIntAttribute_e<12>
_TEXT	ENDS
PUBLIC	__$ArrayPad$
PUBLIC	??$GetIntAttribute_e@$0N@@ioXMLElement@@QBEHAAY0N@$$CBD@Z ; ioXMLElement::GetIntAttribute_e<13>
; Function compile flags: /Ogsp
;	COMDAT ??$GetIntAttribute_e@$0N@@ioXMLElement@@QBEHAAY0N@$$CBD@Z
_TEXT	SEGMENT
__k$ = -24						; size = 13
__$ArrayPad$ = -4					; size = 4
_k$ = 8							; size = 4
??$GetIntAttribute_e@$0N@@ioXMLElement@@QBEHAAY0N@$$CBD@Z PROC ; ioXMLElement::GetIntAttribute_e<13>, COMDAT
; _this$ = ecx

; 86   : 	{

  00000	55		 push	 ebp
  00001	8b ec		 mov	 ebp, esp
  00003	83 ec 18	 sub	 esp, 24			; 00000018H
  00006	a1 00 00 00 00	 mov	 eax, DWORD PTR ___security_cookie
  0000b	33 c5		 xor	 eax, ebp
  0000d	89 45 fc	 mov	 DWORD PTR __$ArrayPad$[ebp], eax
  00010	8b 45 08	 mov	 eax, DWORD PTR _k$[ebp]

; 87   : 		_ENCSTR(k, _k);

  00013	8a 10		 mov	 dl, BYTE PTR [eax]
  00015	56		 push	 esi
  00016	8b f1		 mov	 esi, ecx
  00018	84 d2		 test	 dl, dl
  0001a	0f 84 4d 01 00
	00		 je	 $LN96@GetIntAttr@2
  00020	80 f2 ed	 xor	 dl, -19			; ffffffedH
  00023	88 55 e8	 mov	 BYTE PTR __k$[ebp], dl
  00026	8a 50 01	 mov	 dl, BYTE PTR [eax+1]
  00029	84 d2		 test	 dl, dl
  0002b	0f 84 36 01 00
	00		 je	 $LN95@GetIntAttr@2
  00031	b1 ec		 mov	 cl, -20			; ffffffecH
  00033	32 d1		 xor	 dl, cl
  00035	88 55 e9	 mov	 BYTE PTR __k$[ebp+1], dl
  00038	8a 50 02	 mov	 dl, BYTE PTR [eax+2]
  0003b	84 d2		 test	 dl, dl
  0003d	0f 84 1e 01 00
	00		 je	 $LN94@GetIntAttr@2
  00043	80 f2 eb	 xor	 dl, -21			; ffffffebH
  00046	88 55 ea	 mov	 BYTE PTR __k$[ebp+2], dl
  00049	8a 50 03	 mov	 dl, BYTE PTR [eax+3]
  0004c	84 d2		 test	 dl, dl
  0004e	0f 84 07 01 00
	00		 je	 $LN93@GetIntAttr@2
  00054	80 f2 ea	 xor	 dl, -22			; ffffffeaH
  00057	88 55 eb	 mov	 BYTE PTR __k$[ebp+3], dl
  0005a	8a 50 04	 mov	 dl, BYTE PTR [eax+4]
  0005d	84 d2		 test	 dl, dl
  0005f	0f 84 f0 00 00
	00		 je	 $LN92@GetIntAttr@2
  00065	80 f2 ed	 xor	 dl, -19			; ffffffedH
  00068	88 55 ec	 mov	 BYTE PTR __k$[ebp+4], dl
  0006b	8a 50 05	 mov	 dl, BYTE PTR [eax+5]
  0006e	84 d2		 test	 dl, dl
  00070	0f 84 da 00 00
	00		 je	 $LN91@GetIntAttr@2
  00076	32 d1		 xor	 dl, cl
  00078	88 55 ed	 mov	 BYTE PTR __k$[ebp+5], dl
  0007b	8a 50 06	 mov	 dl, BYTE PTR [eax+6]
  0007e	84 d2		 test	 dl, dl
  00080	0f 84 c4 00 00
	00		 je	 $LN90@GetIntAttr@2
  00086	80 f2 eb	 xor	 dl, -21			; ffffffebH
  00089	88 55 ee	 mov	 BYTE PTR __k$[ebp+6], dl
  0008c	8a 50 07	 mov	 dl, BYTE PTR [eax+7]
  0008f	84 d2		 test	 dl, dl
  00091	0f 84 ad 00 00
	00		 je	 $LN89@GetIntAttr@2
  00097	80 f2 ea	 xor	 dl, -22			; ffffffeaH
  0009a	88 55 ef	 mov	 BYTE PTR __k$[ebp+7], dl
  0009d	8a 50 08	 mov	 dl, BYTE PTR [eax+8]
  000a0	84 d2		 test	 dl, dl
  000a2	0f 84 96 00 00
	00		 je	 $LN88@GetIntAttr@2
  000a8	80 f2 ed	 xor	 dl, -19			; ffffffedH
  000ab	88 55 f0	 mov	 BYTE PTR __k$[ebp+8], dl
  000ae	8a 50 09	 mov	 dl, BYTE PTR [eax+9]
  000b1	84 d2		 test	 dl, dl
  000b3	0f 84 80 00 00
	00		 je	 $LN87@GetIntAttr@2
  000b9	32 d1		 xor	 dl, cl
  000bb	88 55 f1	 mov	 BYTE PTR __k$[ebp+9], dl
  000be	8a 50 0a	 mov	 dl, BYTE PTR [eax+10]
  000c1	84 d2		 test	 dl, dl
  000c3	74 6e		 je	 SHORT $LN86@GetIntAttr@2
  000c5	80 f2 eb	 xor	 dl, -21			; ffffffebH
  000c8	88 55 f2	 mov	 BYTE PTR __k$[ebp+10], dl
  000cb	8a 50 0b	 mov	 dl, BYTE PTR [eax+11]
  000ce	84 d2		 test	 dl, dl
  000d0	74 5b		 je	 SHORT $LN85@GetIntAttr@2
  000d2	80 f2 ea	 xor	 dl, -22			; ffffffeaH
  000d5	80 78 0c 00	 cmp	 BYTE PTR [eax+12], 0
  000d9	88 55 f3	 mov	 BYTE PTR __k$[ebp+11], dl
  000dc	0f 84 8f 00 00
	00		 je	 $LN1@GetIntAttr@2
  000e2	8a 50 0d	 mov	 dl, BYTE PTR [eax+13]
  000e5	84 d2		 test	 dl, dl
  000e7	74 3f		 je	 SHORT $LN83@GetIntAttr@2
  000e9	32 d1		 xor	 dl, cl
  000eb	88 55 f5	 mov	 BYTE PTR __k$[ebp+13], dl
  000ee	8a 50 0e	 mov	 dl, BYTE PTR [eax+14]
  000f1	84 d2		 test	 dl, dl
  000f3	74 2d		 je	 SHORT $LN82@GetIntAttr@2
  000f5	80 f2 eb	 xor	 dl, -21			; ffffffebH
  000f8	88 55 f6	 mov	 BYTE PTR __k$[ebp+14], dl
  000fb	8a 50 0f	 mov	 dl, BYTE PTR [eax+15]
  000fe	84 d2		 test	 dl, dl
  00100	74 1a		 je	 SHORT $LN81@GetIntAttr@2
  00102	8a 40 10	 mov	 al, BYTE PTR [eax+16]
  00105	80 f2 ea	 xor	 dl, -22			; ffffffeaH
  00108	88 55 f7	 mov	 BYTE PTR __k$[ebp+15], dl
  0010b	84 c0		 test	 al, al
  0010d	74 07		 je	 SHORT $LN80@GetIntAttr@2
  0010f	34 ed		 xor	 al, -19			; ffffffedH
  00111	88 45 f8	 mov	 BYTE PTR __k$[ebp+16], al
  00114	eb 5b		 jmp	 SHORT $LN1@GetIntAttr@2
$LN80@GetIntAttr@2:
  00116	c6 45 f8 ed	 mov	 BYTE PTR __k$[ebp+16], -19 ; ffffffedH
  0011a	eb 55		 jmp	 SHORT $LN1@GetIntAttr@2
$LN81@GetIntAttr@2:
  0011c	c6 45 f7 ea	 mov	 BYTE PTR __k$[ebp+15], -22 ; ffffffeaH
  00120	eb 4f		 jmp	 SHORT $LN1@GetIntAttr@2
$LN82@GetIntAttr@2:
  00122	c6 45 f6 eb	 mov	 BYTE PTR __k$[ebp+14], -21 ; ffffffebH
  00126	eb 49		 jmp	 SHORT $LN1@GetIntAttr@2
$LN83@GetIntAttr@2:
  00128	88 4d f5	 mov	 BYTE PTR __k$[ebp+13], cl
  0012b	eb 44		 jmp	 SHORT $LN1@GetIntAttr@2
$LN85@GetIntAttr@2:
  0012d	c6 45 f3 ea	 mov	 BYTE PTR __k$[ebp+11], -22 ; ffffffeaH
  00131	eb 3e		 jmp	 SHORT $LN1@GetIntAttr@2
$LN86@GetIntAttr@2:
  00133	c6 45 f2 eb	 mov	 BYTE PTR __k$[ebp+10], -21 ; ffffffebH
  00137	eb 38		 jmp	 SHORT $LN1@GetIntAttr@2
$LN87@GetIntAttr@2:
  00139	88 4d f1	 mov	 BYTE PTR __k$[ebp+9], cl
  0013c	eb 33		 jmp	 SHORT $LN1@GetIntAttr@2
$LN88@GetIntAttr@2:
  0013e	c6 45 f0 ed	 mov	 BYTE PTR __k$[ebp+8], -19 ; ffffffedH
  00142	eb 2d		 jmp	 SHORT $LN1@GetIntAttr@2
$LN89@GetIntAttr@2:
  00144	c6 45 ef ea	 mov	 BYTE PTR __k$[ebp+7], -22 ; ffffffeaH
  00148	eb 27		 jmp	 SHORT $LN1@GetIntAttr@2
$LN90@GetIntAttr@2:
  0014a	c6 45 ee eb	 mov	 BYTE PTR __k$[ebp+6], -21 ; ffffffebH
  0014e	eb 21		 jmp	 SHORT $LN1@GetIntAttr@2
$LN91@GetIntAttr@2:
  00150	88 4d ed	 mov	 BYTE PTR __k$[ebp+5], cl
  00153	eb 1c		 jmp	 SHORT $LN1@GetIntAttr@2
$LN92@GetIntAttr@2:
  00155	c6 45 ec ed	 mov	 BYTE PTR __k$[ebp+4], -19 ; ffffffedH
  00159	eb 16		 jmp	 SHORT $LN1@GetIntAttr@2
$LN93@GetIntAttr@2:
  0015b	c6 45 eb ea	 mov	 BYTE PTR __k$[ebp+3], -22 ; ffffffeaH
  0015f	eb 10		 jmp	 SHORT $LN1@GetIntAttr@2
$LN94@GetIntAttr@2:
  00161	c6 45 ea eb	 mov	 BYTE PTR __k$[ebp+2], -21 ; ffffffebH
  00165	eb 0a		 jmp	 SHORT $LN1@GetIntAttr@2
$LN95@GetIntAttr@2:
  00167	c6 45 e9 ec	 mov	 BYTE PTR __k$[ebp+1], -20 ; ffffffecH
  0016b	eb 04		 jmp	 SHORT $LN1@GetIntAttr@2
$LN96@GetIntAttr@2:
  0016d	c6 45 e8 ed	 mov	 BYTE PTR __k$[ebp], -19	; ffffffedH
$LN1@GetIntAttr@2:
  00171	6a 03		 push	 3
  00173	8d 45 e8	 lea	 eax, DWORD PTR __k$[ebp]
  00176	c6 45 f4 00	 mov	 BYTE PTR __k$[ebp+12], 0
  0017a	5a		 pop	 edx
$LL104@GetIntAttr@2:
  0017b	81 30 ed ec eb
	ea		 xor	 DWORD PTR [eax], -353637139 ; eaebecedH
  00181	83 c0 04	 add	 eax, 4
  00184	4a		 dec	 edx
  00185	75 f4		 jne	 SHORT $LL104@GetIntAttr@2

; 88   : 		return GetIntAttribute(_k);

  00187	8d 45 e8	 lea	 eax, DWORD PTR __k$[ebp]
  0018a	50		 push	 eax
  0018b	8b ce		 mov	 ecx, esi
  0018d	ff 15 00 00 00
	00		 call	 DWORD PTR __imp_?GetIntAttribute@ioXMLElement@@QBEHPBD@Z

; 89   : 	}

  00193	8b 4d fc	 mov	 ecx, DWORD PTR __$ArrayPad$[ebp]
  00196	33 cd		 xor	 ecx, ebp
  00198	5e		 pop	 esi
  00199	e8 00 00 00 00	 call	 @__security_check_cookie@4
  0019e	c9		 leave
  0019f	c2 04 00	 ret	 4
??$GetIntAttribute_e@$0N@@ioXMLElement@@QBEHAAY0N@$$CBD@Z ENDP ; ioXMLElement::GetIntAttribute_e<13>
_TEXT	ENDS
PUBLIC	__$ArrayPad$
PUBLIC	??$GetIntAttribute_e@$0P@@ioXMLElement@@QBEHAAY0P@$$CBD@Z ; ioXMLElement::GetIntAttribute_e<15>
; Function compile flags: /Ogsp
;	COMDAT ??$GetIntAttribute_e@$0P@@ioXMLElement@@QBEHAAY0P@$$CBD@Z
_TEXT	SEGMENT
__k$ = -24						; size = 15
__$ArrayPad$ = -4					; size = 4
_k$ = 8							; size = 4
??$GetIntAttribute_e@$0P@@ioXMLElement@@QBEHAAY0P@$$CBD@Z PROC ; ioXMLElement::GetIntAttribute_e<15>, COMDAT
; _this$ = ecx

; 86   : 	{

  00000	55		 push	 ebp
  00001	8b ec		 mov	 ebp, esp
  00003	83 ec 18	 sub	 esp, 24			; 00000018H
  00006	a1 00 00 00 00	 mov	 eax, DWORD PTR ___security_cookie
  0000b	33 c5		 xor	 eax, ebp
  0000d	89 45 fc	 mov	 DWORD PTR __$ArrayPad$[ebp], eax
  00010	8b 45 08	 mov	 eax, DWORD PTR _k$[ebp]

; 87   : 		_ENCSTR(k, _k);

  00013	8a 10		 mov	 dl, BYTE PTR [eax]
  00015	56		 push	 esi
  00016	8b f1		 mov	 esi, ecx
  00018	84 d2		 test	 dl, dl
  0001a	0f 84 75 01 00
	00		 je	 $LN96@GetIntAttr@3
  00020	80 f2 ed	 xor	 dl, -19			; ffffffedH
  00023	88 55 e8	 mov	 BYTE PTR __k$[ebp], dl
  00026	8a 50 01	 mov	 dl, BYTE PTR [eax+1]
  00029	84 d2		 test	 dl, dl
  0002b	0f 84 5e 01 00
	00		 je	 $LN95@GetIntAttr@3
  00031	b1 ec		 mov	 cl, -20			; ffffffecH
  00033	32 d1		 xor	 dl, cl
  00035	88 55 e9	 mov	 BYTE PTR __k$[ebp+1], dl
  00038	8a 50 02	 mov	 dl, BYTE PTR [eax+2]
  0003b	84 d2		 test	 dl, dl
  0003d	0f 84 46 01 00
	00		 je	 $LN94@GetIntAttr@3
  00043	80 f2 eb	 xor	 dl, -21			; ffffffebH
  00046	88 55 ea	 mov	 BYTE PTR __k$[ebp+2], dl
  00049	8a 50 03	 mov	 dl, BYTE PTR [eax+3]
  0004c	84 d2		 test	 dl, dl
  0004e	0f 84 2f 01 00
	00		 je	 $LN93@GetIntAttr@3
  00054	80 f2 ea	 xor	 dl, -22			; ffffffeaH
  00057	88 55 eb	 mov	 BYTE PTR __k$[ebp+3], dl
  0005a	8a 50 04	 mov	 dl, BYTE PTR [eax+4]
  0005d	84 d2		 test	 dl, dl
  0005f	0f 84 18 01 00
	00		 je	 $LN92@GetIntAttr@3
  00065	80 f2 ed	 xor	 dl, -19			; ffffffedH
  00068	88 55 ec	 mov	 BYTE PTR __k$[ebp+4], dl
  0006b	8a 50 05	 mov	 dl, BYTE PTR [eax+5]
  0006e	84 d2		 test	 dl, dl
  00070	0f 84 02 01 00
	00		 je	 $LN91@GetIntAttr@3
  00076	32 d1		 xor	 dl, cl
  00078	88 55 ed	 mov	 BYTE PTR __k$[ebp+5], dl
  0007b	8a 50 06	 mov	 dl, BYTE PTR [eax+6]
  0007e	84 d2		 test	 dl, dl
  00080	0f 84 ec 00 00
	00		 je	 $LN90@GetIntAttr@3
  00086	80 f2 eb	 xor	 dl, -21			; ffffffebH
  00089	88 55 ee	 mov	 BYTE PTR __k$[ebp+6], dl
  0008c	8a 50 07	 mov	 dl, BYTE PTR [eax+7]
  0008f	84 d2		 test	 dl, dl
  00091	0f 84 d5 00 00
	00		 je	 $LN89@GetIntAttr@3
  00097	80 f2 ea	 xor	 dl, -22			; ffffffeaH
  0009a	88 55 ef	 mov	 BYTE PTR __k$[ebp+7], dl
  0009d	8a 50 08	 mov	 dl, BYTE PTR [eax+8]
  000a0	84 d2		 test	 dl, dl
  000a2	0f 84 be 00 00
	00		 je	 $LN88@GetIntAttr@3
  000a8	80 f2 ed	 xor	 dl, -19			; ffffffedH
  000ab	88 55 f0	 mov	 BYTE PTR __k$[ebp+8], dl
  000ae	8a 50 09	 mov	 dl, BYTE PTR [eax+9]
  000b1	84 d2		 test	 dl, dl
  000b3	0f 84 a8 00 00
	00		 je	 $LN87@GetIntAttr@3
  000b9	32 d1		 xor	 dl, cl
  000bb	88 55 f1	 mov	 BYTE PTR __k$[ebp+9], dl
  000be	8a 50 0a	 mov	 dl, BYTE PTR [eax+10]
  000c1	84 d2		 test	 dl, dl
  000c3	0f 84 92 00 00
	00		 je	 $LN86@GetIntAttr@3
  000c9	80 f2 eb	 xor	 dl, -21			; ffffffebH
  000cc	88 55 f2	 mov	 BYTE PTR __k$[ebp+10], dl
  000cf	8a 50 0b	 mov	 dl, BYTE PTR [eax+11]
  000d2	84 d2		 test	 dl, dl
  000d4	74 7f		 je	 SHORT $LN85@GetIntAttr@3
  000d6	80 f2 ea	 xor	 dl, -22			; ffffffeaH
  000d9	88 55 f3	 mov	 BYTE PTR __k$[ebp+11], dl
  000dc	8a 50 0c	 mov	 dl, BYTE PTR [eax+12]
  000df	84 d2		 test	 dl, dl
  000e1	74 6c		 je	 SHORT $LN84@GetIntAttr@3
  000e3	80 f2 ed	 xor	 dl, -19			; ffffffedH
  000e6	88 55 f4	 mov	 BYTE PTR __k$[ebp+12], dl
  000e9	8a 50 0d	 mov	 dl, BYTE PTR [eax+13]
  000ec	84 d2		 test	 dl, dl
  000ee	74 5a		 je	 SHORT $LN83@GetIntAttr@3
  000f0	32 d1		 xor	 dl, cl
  000f2	80 78 0e 00	 cmp	 BYTE PTR [eax+14], 0
  000f6	88 55 f5	 mov	 BYTE PTR __k$[ebp+13], dl
  000f9	0f 84 9a 00 00
	00		 je	 $LN1@GetIntAttr@3
  000ff	8a 50 0f	 mov	 dl, BYTE PTR [eax+15]
  00102	84 d2		 test	 dl, dl
  00104	74 3e		 je	 SHORT $LN81@GetIntAttr@3
  00106	80 f2 ea	 xor	 dl, -22			; ffffffeaH
  00109	88 55 f7	 mov	 BYTE PTR __k$[ebp+15], dl
  0010c	8a 50 10	 mov	 dl, BYTE PTR [eax+16]
  0010f	84 d2		 test	 dl, dl
  00111	74 2b		 je	 SHORT $LN80@GetIntAttr@3
  00113	80 f2 ed	 xor	 dl, -19			; ffffffedH
  00116	88 55 f8	 mov	 BYTE PTR __k$[ebp+16], dl
  00119	8a 50 11	 mov	 dl, BYTE PTR [eax+17]
  0011c	84 d2		 test	 dl, dl
  0011e	74 19		 je	 SHORT $LN79@GetIntAttr@3
  00120	8a 40 12	 mov	 al, BYTE PTR [eax+18]
  00123	32 d1		 xor	 dl, cl
  00125	88 55 f9	 mov	 BYTE PTR __k$[ebp+17], dl
  00128	84 c0		 test	 al, al
  0012a	74 07		 je	 SHORT $LN78@GetIntAttr@3
  0012c	34 eb		 xor	 al, -21			; ffffffebH
  0012e	88 45 fa	 mov	 BYTE PTR __k$[ebp+18], al
  00131	eb 66		 jmp	 SHORT $LN1@GetIntAttr@3
$LN78@GetIntAttr@3:
  00133	c6 45 fa eb	 mov	 BYTE PTR __k$[ebp+18], -21 ; ffffffebH
  00137	eb 60		 jmp	 SHORT $LN1@GetIntAttr@3
$LN79@GetIntAttr@3:
  00139	88 4d f9	 mov	 BYTE PTR __k$[ebp+17], cl
  0013c	eb 5b		 jmp	 SHORT $LN1@GetIntAttr@3
$LN80@GetIntAttr@3:
  0013e	c6 45 f8 ed	 mov	 BYTE PTR __k$[ebp+16], -19 ; ffffffedH
  00142	eb 55		 jmp	 SHORT $LN1@GetIntAttr@3
$LN81@GetIntAttr@3:
  00144	c6 45 f7 ea	 mov	 BYTE PTR __k$[ebp+15], -22 ; ffffffeaH
  00148	eb 4f		 jmp	 SHORT $LN1@GetIntAttr@3
$LN83@GetIntAttr@3:
  0014a	88 4d f5	 mov	 BYTE PTR __k$[ebp+13], cl
  0014d	eb 4a		 jmp	 SHORT $LN1@GetIntAttr@3
$LN84@GetIntAttr@3:
  0014f	c6 45 f4 ed	 mov	 BYTE PTR __k$[ebp+12], -19 ; ffffffedH
  00153	eb 44		 jmp	 SHORT $LN1@GetIntAttr@3
$LN85@GetIntAttr@3:
  00155	c6 45 f3 ea	 mov	 BYTE PTR __k$[ebp+11], -22 ; ffffffeaH
  00159	eb 3e		 jmp	 SHORT $LN1@GetIntAttr@3
$LN86@GetIntAttr@3:
  0015b	c6 45 f2 eb	 mov	 BYTE PTR __k$[ebp+10], -21 ; ffffffebH
  0015f	eb 38		 jmp	 SHORT $LN1@GetIntAttr@3
$LN87@GetIntAttr@3:
  00161	88 4d f1	 mov	 BYTE PTR __k$[ebp+9], cl
  00164	eb 33		 jmp	 SHORT $LN1@GetIntAttr@3
$LN88@GetIntAttr@3:
  00166	c6 45 f0 ed	 mov	 BYTE PTR __k$[ebp+8], -19 ; ffffffedH
  0016a	eb 2d		 jmp	 SHORT $LN1@GetIntAttr@3
$LN89@GetIntAttr@3:
  0016c	c6 45 ef ea	 mov	 BYTE PTR __k$[ebp+7], -22 ; ffffffeaH
  00170	eb 27		 jmp	 SHORT $LN1@GetIntAttr@3
$LN90@GetIntAttr@3:
  00172	c6 45 ee eb	 mov	 BYTE PTR __k$[ebp+6], -21 ; ffffffebH
  00176	eb 21		 jmp	 SHORT $LN1@GetIntAttr@3
$LN91@GetIntAttr@3:
  00178	88 4d ed	 mov	 BYTE PTR __k$[ebp+5], cl
  0017b	eb 1c		 jmp	 SHORT $LN1@GetIntAttr@3
$LN92@GetIntAttr@3:
  0017d	c6 45 ec ed	 mov	 BYTE PTR __k$[ebp+4], -19 ; ffffffedH
  00181	eb 16		 jmp	 SHORT $LN1@GetIntAttr@3
$LN93@GetIntAttr@3:
  00183	c6 45 eb ea	 mov	 BYTE PTR __k$[ebp+3], -22 ; ffffffeaH
  00187	eb 10		 jmp	 SHORT $LN1@GetIntAttr@3
$LN94@GetIntAttr@3:
  00189	c6 45 ea eb	 mov	 BYTE PTR __k$[ebp+2], -21 ; ffffffebH
  0018d	eb 0a		 jmp	 SHORT $LN1@GetIntAttr@3
$LN95@GetIntAttr@3:
  0018f	c6 45 e9 ec	 mov	 BYTE PTR __k$[ebp+1], -20 ; ffffffecH
  00193	eb 04		 jmp	 SHORT $LN1@GetIntAttr@3
$LN96@GetIntAttr@3:
  00195	c6 45 e8 ed	 mov	 BYTE PTR __k$[ebp], -19	; ffffffedH
$LN1@GetIntAttr@3:
  00199	6a 03		 push	 3
  0019b	8d 45 e8	 lea	 eax, DWORD PTR __k$[ebp]
  0019e	c6 45 f6 00	 mov	 BYTE PTR __k$[ebp+14], 0
  001a2	5a		 pop	 edx
$LL104@GetIntAttr@3:
  001a3	81 30 ed ec eb
	ea		 xor	 DWORD PTR [eax], -353637139 ; eaebecedH
  001a9	83 c0 04	 add	 eax, 4
  001ac	4a		 dec	 edx
  001ad	75 f4		 jne	 SHORT $LL104@GetIntAttr@3
  001af	6a 0c		 push	 12			; 0000000cH
  001b1	58		 pop	 eax
$LL101@GetIntAttr@3:
  001b2	8b c8		 mov	 ecx, eax
  001b4	81 e1 03 00 00
	80		 and	 ecx, -2147483645	; 80000003H
  001ba	79 05		 jns	 SHORT $LN111@GetIntAttr@3
  001bc	49		 dec	 ecx
  001bd	83 c9 fc	 or	 ecx, -4			; fffffffcH
  001c0	41		 inc	 ecx
$LN111@GetIntAttr@3:
  001c1	b2 ed		 mov	 dl, -19			; ffffffedH
  001c3	2a d1		 sub	 dl, cl
  001c5	30 54 05 e8	 xor	 BYTE PTR __k$[ebp+eax], dl
  001c9	40		 inc	 eax
  001ca	83 f8 0e	 cmp	 eax, 14			; 0000000eH
  001cd	7c e3		 jl	 SHORT $LL101@GetIntAttr@3

; 88   : 		return GetIntAttribute(_k);

  001cf	8d 45 e8	 lea	 eax, DWORD PTR __k$[ebp]
  001d2	50		 push	 eax
  001d3	8b ce		 mov	 ecx, esi
  001d5	ff 15 00 00 00
	00		 call	 DWORD PTR __imp_?GetIntAttribute@ioXMLElement@@QBEHPBD@Z

; 89   : 	}

  001db	8b 4d fc	 mov	 ecx, DWORD PTR __$ArrayPad$[ebp]
  001de	33 cd		 xor	 ecx, ebp
  001e0	5e		 pop	 esi
  001e1	e8 00 00 00 00	 call	 @__security_check_cookie@4
  001e6	c9		 leave
  001e7	c2 04 00	 ret	 4
??$GetIntAttribute_e@$0P@@ioXMLElement@@QBEHAAY0P@$$CBD@Z ENDP ; ioXMLElement::GetIntAttribute_e<15>
_TEXT	ENDS
PUBLIC	__$ArrayPad$
PUBLIC	??$GetFloatAttribute_e@$0BB@@ioXMLElement@@QBEMAAY0BB@$$CBD@Z ; ioXMLElement::GetFloatAttribute_e<17>
EXTRN	__imp_?GetFloatAttribute@ioXMLElement@@QBEMPBD@Z:PROC
; Function compile flags: /Ogsp
;	COMDAT ??$GetFloatAttribute_e@$0BB@@ioXMLElement@@QBEMAAY0BB@$$CBD@Z
_TEXT	SEGMENT
__k$ = -28						; size = 17
__$ArrayPad$ = -4					; size = 4
_k$ = 8							; size = 4
??$GetFloatAttribute_e@$0BB@@ioXMLElement@@QBEMAAY0BB@$$CBD@Z PROC ; ioXMLElement::GetFloatAttribute_e<17>, COMDAT
; _this$ = ecx

; 100  : 	{

  00000	55		 push	 ebp
  00001	8b ec		 mov	 ebp, esp
  00003	83 ec 1c	 sub	 esp, 28			; 0000001cH
  00006	a1 00 00 00 00	 mov	 eax, DWORD PTR ___security_cookie
  0000b	33 c5		 xor	 eax, ebp
  0000d	89 45 fc	 mov	 DWORD PTR __$ArrayPad$[ebp], eax
  00010	8b 45 08	 mov	 eax, DWORD PTR _k$[ebp]

; 101  : 		_ENCSTR(k, _k);

  00013	8a 10		 mov	 dl, BYTE PTR [eax]
  00015	56		 push	 esi
  00016	8b f1		 mov	 esi, ecx
  00018	84 d2		 test	 dl, dl
  0001a	0f 84 a7 01 00
	00		 je	 $LN96@GetFloatAt
  00020	80 f2 ed	 xor	 dl, -19			; ffffffedH
  00023	88 55 e4	 mov	 BYTE PTR __k$[ebp], dl
  00026	8a 50 01	 mov	 dl, BYTE PTR [eax+1]
  00029	84 d2		 test	 dl, dl
  0002b	0f 84 90 01 00
	00		 je	 $LN95@GetFloatAt
  00031	b1 ec		 mov	 cl, -20			; ffffffecH
  00033	32 d1		 xor	 dl, cl
  00035	88 55 e5	 mov	 BYTE PTR __k$[ebp+1], dl
  00038	8a 50 02	 mov	 dl, BYTE PTR [eax+2]
  0003b	84 d2		 test	 dl, dl
  0003d	0f 84 78 01 00
	00		 je	 $LN94@GetFloatAt
  00043	80 f2 eb	 xor	 dl, -21			; ffffffebH
  00046	88 55 e6	 mov	 BYTE PTR __k$[ebp+2], dl
  00049	8a 50 03	 mov	 dl, BYTE PTR [eax+3]
  0004c	84 d2		 test	 dl, dl
  0004e	0f 84 61 01 00
	00		 je	 $LN93@GetFloatAt
  00054	80 f2 ea	 xor	 dl, -22			; ffffffeaH
  00057	88 55 e7	 mov	 BYTE PTR __k$[ebp+3], dl
  0005a	8a 50 04	 mov	 dl, BYTE PTR [eax+4]
  0005d	84 d2		 test	 dl, dl
  0005f	0f 84 4a 01 00
	00		 je	 $LN92@GetFloatAt
  00065	80 f2 ed	 xor	 dl, -19			; ffffffedH
  00068	88 55 e8	 mov	 BYTE PTR __k$[ebp+4], dl
  0006b	8a 50 05	 mov	 dl, BYTE PTR [eax+5]
  0006e	84 d2		 test	 dl, dl
  00070	0f 84 34 01 00
	00		 je	 $LN91@GetFloatAt
  00076	32 d1		 xor	 dl, cl
  00078	88 55 e9	 mov	 BYTE PTR __k$[ebp+5], dl
  0007b	8a 50 06	 mov	 dl, BYTE PTR [eax+6]
  0007e	84 d2		 test	 dl, dl
  00080	0f 84 1e 01 00
	00		 je	 $LN90@GetFloatAt
  00086	80 f2 eb	 xor	 dl, -21			; ffffffebH
  00089	88 55 ea	 mov	 BYTE PTR __k$[ebp+6], dl
  0008c	8a 50 07	 mov	 dl, BYTE PTR [eax+7]
  0008f	84 d2		 test	 dl, dl
  00091	0f 84 07 01 00
	00		 je	 $LN89@GetFloatAt
  00097	80 f2 ea	 xor	 dl, -22			; ffffffeaH
  0009a	88 55 eb	 mov	 BYTE PTR __k$[ebp+7], dl
  0009d	8a 50 08	 mov	 dl, BYTE PTR [eax+8]
  000a0	84 d2		 test	 dl, dl
  000a2	0f 84 f0 00 00
	00		 je	 $LN88@GetFloatAt
  000a8	80 f2 ed	 xor	 dl, -19			; ffffffedH
  000ab	88 55 ec	 mov	 BYTE PTR __k$[ebp+8], dl
  000ae	8a 50 09	 mov	 dl, BYTE PTR [eax+9]
  000b1	84 d2		 test	 dl, dl
  000b3	0f 84 da 00 00
	00		 je	 $LN87@GetFloatAt
  000b9	32 d1		 xor	 dl, cl
  000bb	88 55 ed	 mov	 BYTE PTR __k$[ebp+9], dl
  000be	8a 50 0a	 mov	 dl, BYTE PTR [eax+10]
  000c1	84 d2		 test	 dl, dl
  000c3	0f 84 c4 00 00
	00		 je	 $LN86@GetFloatAt
  000c9	80 f2 eb	 xor	 dl, -21			; ffffffebH
  000cc	88 55 ee	 mov	 BYTE PTR __k$[ebp+10], dl
  000cf	8a 50 0b	 mov	 dl, BYTE PTR [eax+11]
  000d2	84 d2		 test	 dl, dl
  000d4	0f 84 ad 00 00
	00		 je	 $LN85@GetFloatAt
  000da	80 f2 ea	 xor	 dl, -22			; ffffffeaH
  000dd	88 55 ef	 mov	 BYTE PTR __k$[ebp+11], dl
  000e0	8a 50 0c	 mov	 dl, BYTE PTR [eax+12]
  000e3	84 d2		 test	 dl, dl
  000e5	0f 84 96 00 00
	00		 je	 $LN84@GetFloatAt
  000eb	80 f2 ed	 xor	 dl, -19			; ffffffedH
  000ee	88 55 f0	 mov	 BYTE PTR __k$[ebp+12], dl
  000f1	8a 50 0d	 mov	 dl, BYTE PTR [eax+13]
  000f4	84 d2		 test	 dl, dl
  000f6	0f 84 80 00 00
	00		 je	 $LN83@GetFloatAt
  000fc	32 d1		 xor	 dl, cl
  000fe	88 55 f1	 mov	 BYTE PTR __k$[ebp+13], dl
  00101	8a 50 0e	 mov	 dl, BYTE PTR [eax+14]
  00104	84 d2		 test	 dl, dl
  00106	74 6e		 je	 SHORT $LN82@GetFloatAt
  00108	80 f2 eb	 xor	 dl, -21			; ffffffebH
  0010b	88 55 f2	 mov	 BYTE PTR __k$[ebp+14], dl
  0010e	8a 50 0f	 mov	 dl, BYTE PTR [eax+15]
  00111	84 d2		 test	 dl, dl
  00113	74 5b		 je	 SHORT $LN81@GetFloatAt
  00115	80 f2 ea	 xor	 dl, -22			; ffffffeaH
  00118	80 78 10 00	 cmp	 BYTE PTR [eax+16], 0
  0011c	88 55 f3	 mov	 BYTE PTR __k$[ebp+15], dl
  0011f	0f 84 a6 00 00
	00		 je	 $LN1@GetFloatAt
  00125	8a 50 11	 mov	 dl, BYTE PTR [eax+17]
  00128	84 d2		 test	 dl, dl
  0012a	74 3f		 je	 SHORT $LN79@GetFloatAt
  0012c	32 d1		 xor	 dl, cl
  0012e	88 55 f5	 mov	 BYTE PTR __k$[ebp+17], dl
  00131	8a 50 12	 mov	 dl, BYTE PTR [eax+18]
  00134	84 d2		 test	 dl, dl
  00136	74 2d		 je	 SHORT $LN78@GetFloatAt
  00138	80 f2 eb	 xor	 dl, -21			; ffffffebH
  0013b	88 55 f6	 mov	 BYTE PTR __k$[ebp+18], dl
  0013e	8a 50 13	 mov	 dl, BYTE PTR [eax+19]
  00141	84 d2		 test	 dl, dl
  00143	74 1a		 je	 SHORT $LN77@GetFloatAt
  00145	8a 40 14	 mov	 al, BYTE PTR [eax+20]
  00148	80 f2 ea	 xor	 dl, -22			; ffffffeaH
  0014b	88 55 f7	 mov	 BYTE PTR __k$[ebp+19], dl
  0014e	84 c0		 test	 al, al
  00150	74 07		 je	 SHORT $LN76@GetFloatAt
  00152	34 ed		 xor	 al, -19			; ffffffedH
  00154	88 45 f8	 mov	 BYTE PTR __k$[ebp+20], al
  00157	eb 72		 jmp	 SHORT $LN1@GetFloatAt
$LN76@GetFloatAt:
  00159	c6 45 f8 ed	 mov	 BYTE PTR __k$[ebp+20], -19 ; ffffffedH
  0015d	eb 6c		 jmp	 SHORT $LN1@GetFloatAt
$LN77@GetFloatAt:
  0015f	c6 45 f7 ea	 mov	 BYTE PTR __k$[ebp+19], -22 ; ffffffeaH
  00163	eb 66		 jmp	 SHORT $LN1@GetFloatAt
$LN78@GetFloatAt:
  00165	c6 45 f6 eb	 mov	 BYTE PTR __k$[ebp+18], -21 ; ffffffebH
  00169	eb 60		 jmp	 SHORT $LN1@GetFloatAt
$LN79@GetFloatAt:
  0016b	88 4d f5	 mov	 BYTE PTR __k$[ebp+17], cl
  0016e	eb 5b		 jmp	 SHORT $LN1@GetFloatAt
$LN81@GetFloatAt:
  00170	c6 45 f3 ea	 mov	 BYTE PTR __k$[ebp+15], -22 ; ffffffeaH
  00174	eb 55		 jmp	 SHORT $LN1@GetFloatAt
$LN82@GetFloatAt:
  00176	c6 45 f2 eb	 mov	 BYTE PTR __k$[ebp+14], -21 ; ffffffebH
  0017a	eb 4f		 jmp	 SHORT $LN1@GetFloatAt
$LN83@GetFloatAt:
  0017c	88 4d f1	 mov	 BYTE PTR __k$[ebp+13], cl
  0017f	eb 4a		 jmp	 SHORT $LN1@GetFloatAt
$LN84@GetFloatAt:
  00181	c6 45 f0 ed	 mov	 BYTE PTR __k$[ebp+12], -19 ; ffffffedH
  00185	eb 44		 jmp	 SHORT $LN1@GetFloatAt
$LN85@GetFloatAt:
  00187	c6 45 ef ea	 mov	 BYTE PTR __k$[ebp+11], -22 ; ffffffeaH
  0018b	eb 3e		 jmp	 SHORT $LN1@GetFloatAt
$LN86@GetFloatAt:
  0018d	c6 45 ee eb	 mov	 BYTE PTR __k$[ebp+10], -21 ; ffffffebH
  00191	eb 38		 jmp	 SHORT $LN1@GetFloatAt
$LN87@GetFloatAt:
  00193	88 4d ed	 mov	 BYTE PTR __k$[ebp+9], cl
  00196	eb 33		 jmp	 SHORT $LN1@GetFloatAt
$LN88@GetFloatAt:
  00198	c6 45 ec ed	 mov	 BYTE PTR __k$[ebp+8], -19 ; ffffffedH
  0019c	eb 2d		 jmp	 SHORT $LN1@GetFloatAt
$LN89@GetFloatAt:
  0019e	c6 45 eb ea	 mov	 BYTE PTR __k$[ebp+7], -22 ; ffffffeaH
  001a2	eb 27		 jmp	 SHORT $LN1@GetFloatAt
$LN90@GetFloatAt:
  001a4	c6 45 ea eb	 mov	 BYTE PTR __k$[ebp+6], -21 ; ffffffebH
  001a8	eb 21		 jmp	 SHORT $LN1@GetFloatAt
$LN91@GetFloatAt:
  001aa	88 4d e9	 mov	 BYTE PTR __k$[ebp+5], cl
  001ad	eb 1c		 jmp	 SHORT $LN1@GetFloatAt
$LN92@GetFloatAt:
  001af	c6 45 e8 ed	 mov	 BYTE PTR __k$[ebp+4], -19 ; ffffffedH
  001b3	eb 16		 jmp	 SHORT $LN1@GetFloatAt
$LN93@GetFloatAt:
  001b5	c6 45 e7 ea	 mov	 BYTE PTR __k$[ebp+3], -22 ; ffffffeaH
  001b9	eb 10		 jmp	 SHORT $LN1@GetFloatAt
$LN94@GetFloatAt:
  001bb	c6 45 e6 eb	 mov	 BYTE PTR __k$[ebp+2], -21 ; ffffffebH
  001bf	eb 0a		 jmp	 SHORT $LN1@GetFloatAt
$LN95@GetFloatAt:
  001c1	c6 45 e5 ec	 mov	 BYTE PTR __k$[ebp+1], -20 ; ffffffecH
  001c5	eb 04		 jmp	 SHORT $LN1@GetFloatAt
$LN96@GetFloatAt:
  001c7	c6 45 e4 ed	 mov	 BYTE PTR __k$[ebp], -19	; ffffffedH
$LN1@GetFloatAt:
  001cb	6a 04		 push	 4
  001cd	8d 45 e4	 lea	 eax, DWORD PTR __k$[ebp]
  001d0	c6 45 f4 00	 mov	 BYTE PTR __k$[ebp+16], 0
  001d4	5a		 pop	 edx
$LL104@GetFloatAt:
  001d5	81 30 ed ec eb
	ea		 xor	 DWORD PTR [eax], -353637139 ; eaebecedH
  001db	83 c0 04	 add	 eax, 4
  001de	4a		 dec	 edx
  001df	75 f4		 jne	 SHORT $LL104@GetFloatAt

; 102  : 		return GetFloatAttribute(_k);

  001e1	8d 45 e4	 lea	 eax, DWORD PTR __k$[ebp]
  001e4	50		 push	 eax
  001e5	8b ce		 mov	 ecx, esi
  001e7	ff 15 00 00 00
	00		 call	 DWORD PTR __imp_?GetFloatAttribute@ioXMLElement@@QBEMPBD@Z

; 103  : 	}

  001ed	8b 4d fc	 mov	 ecx, DWORD PTR __$ArrayPad$[ebp]
  001f0	33 cd		 xor	 ecx, ebp
  001f2	5e		 pop	 esi
  001f3	e8 00 00 00 00	 call	 @__security_check_cookie@4
  001f8	c9		 leave
  001f9	c2 04 00	 ret	 4
??$GetFloatAttribute_e@$0BB@@ioXMLElement@@QBEMAAY0BB@$$CBD@Z ENDP ; ioXMLElement::GetFloatAttribute_e<17>
_TEXT	ENDS
PUBLIC	??$_Cons_val@V?$allocator@USpotPoint@MiniMap@@@std@@USpotPoint@MiniMap@@AAU34@@std@@YAXAAV?$allocator@USpotPoint@MiniMap@@@0@PAUSpotPoint@MiniMap@@AAU23@@Z ; std::_Cons_val<std::allocator<MiniMap::SpotPoint>,MiniMap::SpotPoint,MiniMap::SpotPoint &>
; Function compile flags: /Ogsp
; File c:\program files (x86)\microsoft visual studio 10.0\vc\include\xmemory
;	COMDAT ??$_Cons_val@V?$allocator@USpotPoint@MiniMap@@@std@@USpotPoint@MiniMap@@AAU34@@std@@YAXAAV?$allocator@USpotPoint@MiniMap@@@0@PAUSpotPoint@MiniMap@@AAU23@@Z
_TEXT	SEGMENT
__Alval$ = 8						; size = 4
__Pdest$ = 12						; size = 4
__Src$ = 16						; size = 4
??$_Cons_val@V?$allocator@USpotPoint@MiniMap@@@std@@USpotPoint@MiniMap@@AAU34@@std@@YAXAAV?$allocator@USpotPoint@MiniMap@@@0@PAUSpotPoint@MiniMap@@AAU23@@Z PROC ; std::_Cons_val<std::allocator<MiniMap::SpotPoint>,MiniMap::SpotPoint,MiniMap::SpotPoint &>, COMDAT

; 279  : 	{	// construct using allocator

  00000	55		 push	 ebp
  00001	8b ec		 mov	 ebp, esp
  00003	57		 push	 edi

; 280  : 	_Alval.construct(_Pdest, _STD forward<_Ty2>(_Src));

  00004	8b 7d 0c	 mov	 edi, DWORD PTR __Pdest$[ebp]
  00007	85 ff		 test	 edi, edi
  00009	74 0a		 je	 SHORT $LN7@Cons_val
  0000b	56		 push	 esi
  0000c	8b 75 10	 mov	 esi, DWORD PTR __Src$[ebp]
  0000f	6a 05		 push	 5
  00011	59		 pop	 ecx
  00012	f3 a5		 rep movsd
  00014	5e		 pop	 esi
$LN7@Cons_val:
  00015	5f		 pop	 edi

; 281  : 	}

  00016	5d		 pop	 ebp
  00017	c3		 ret	 0
??$_Cons_val@V?$allocator@USpotPoint@MiniMap@@@std@@USpotPoint@MiniMap@@AAU34@@std@@YAXAAV?$allocator@USpotPoint@MiniMap@@@0@PAUSpotPoint@MiniMap@@AAU23@@Z ENDP ; std::_Cons_val<std::allocator<MiniMap::SpotPoint>,MiniMap::SpotPoint,MiniMap::SpotPoint &>
_TEXT	ENDS
PUBLIC	?construct@?$allocator@USpotPoint@MiniMap@@@std@@QAEXPAUSpotPoint@MiniMap@@ABU34@@Z ; std::allocator<MiniMap::SpotPoint>::construct
; Function compile flags: /Ogsp
;	COMDAT ?construct@?$allocator@USpotPoint@MiniMap@@@std@@QAEXPAUSpotPoint@MiniMap@@ABU34@@Z
_TEXT	SEGMENT
__Ptr$ = 8						; size = 4
__Val$ = 12						; size = 4
?construct@?$allocator@USpotPoint@MiniMap@@@std@@QAEXPAUSpotPoint@MiniMap@@ABU34@@Z PROC ; std::allocator<MiniMap::SpotPoint>::construct, COMDAT
; _this$ = ecx

; 196  : 		{	// construct object at _Ptr with value _Val

  00000	55		 push	 ebp
  00001	8b ec		 mov	 ebp, esp
  00003	57		 push	 edi

; 197  : 		_Construct(_Ptr, _Val);

  00004	8b 7d 08	 mov	 edi, DWORD PTR __Ptr$[ebp]
  00007	85 ff		 test	 edi, edi
  00009	74 0a		 je	 SHORT $LN5@construct@2
  0000b	56		 push	 esi
  0000c	8b 75 0c	 mov	 esi, DWORD PTR __Val$[ebp]
  0000f	6a 05		 push	 5
  00011	59		 pop	 ecx
  00012	f3 a5		 rep movsd
  00014	5e		 pop	 esi
$LN5@construct@2:
  00015	5f		 pop	 edi

; 198  : 		}

  00016	5d		 pop	 ebp
  00017	c2 08 00	 ret	 8
?construct@?$allocator@USpotPoint@MiniMap@@@std@@QAEXPAUSpotPoint@MiniMap@@ABU34@@Z ENDP ; std::allocator<MiniMap::SpotPoint>::construct
_TEXT	ENDS
PUBLIC	??$_Move@PAUSpotPoint@MiniMap@@PAU12@@std@@YAPAUSpotPoint@MiniMap@@PAU12@00U_Nonscalar_ptr_iterator_tag@0@@Z ; std::_Move<MiniMap::SpotPoint *,MiniMap::SpotPoint *>
; Function compile flags: /Ogsp
; File c:\program files (x86)\microsoft visual studio 10.0\vc\include\xutility
;	COMDAT ??$_Move@PAUSpotPoint@MiniMap@@PAU12@@std@@YAPAUSpotPoint@MiniMap@@PAU12@00U_Nonscalar_ptr_iterator_tag@0@@Z
_TEXT	SEGMENT
__First$ = 8						; size = 4
__Last$ = 12						; size = 4
__Dest$ = 16						; size = 4
___formal$ = 20						; size = 1
??$_Move@PAUSpotPoint@MiniMap@@PAU12@@std@@YAPAUSpotPoint@MiniMap@@PAU12@00U_Nonscalar_ptr_iterator_tag@0@@Z PROC ; std::_Move<MiniMap::SpotPoint *,MiniMap::SpotPoint *>, COMDAT

; 2512 : 	{	// move [_First, _Last) to [_Dest, ...), arbitrary iterators

  00000	55		 push	 ebp
  00001	8b ec		 mov	 ebp, esp

; 2513 : 	for (; _First != _Last; ++_Dest, ++_First)

  00003	8b 45 08	 mov	 eax, DWORD PTR __First$[ebp]
  00006	3b 45 0c	 cmp	 eax, DWORD PTR __Last$[ebp]
  00009	74 1a		 je	 SHORT $LN10@Move
  0000b	56		 push	 esi
  0000c	57		 push	 edi
$LL3@Move:

; 2514 : 		*_Dest = _STD move(*_First);

  0000d	8b 7d 10	 mov	 edi, DWORD PTR __Dest$[ebp]
  00010	83 45 10 14	 add	 DWORD PTR __Dest$[ebp], 20 ; 00000014H
  00014	8b f0		 mov	 esi, eax
  00016	6a 05		 push	 5
  00018	83 c0 14	 add	 eax, 20			; 00000014H
  0001b	59		 pop	 ecx
  0001c	f3 a5		 rep movsd
  0001e	3b 45 0c	 cmp	 eax, DWORD PTR __Last$[ebp]
  00021	75 ea		 jne	 SHORT $LL3@Move
  00023	5f		 pop	 edi
  00024	5e		 pop	 esi
$LN10@Move:

; 2515 : 	return (_Dest);

  00025	8b 45 10	 mov	 eax, DWORD PTR __Dest$[ebp]

; 2516 : 	}

  00028	5d		 pop	 ebp
  00029	c3		 ret	 0
??$_Move@PAUSpotPoint@MiniMap@@PAU12@@std@@YAPAUSpotPoint@MiniMap@@PAU12@00U_Nonscalar_ptr_iterator_tag@0@@Z ENDP ; std::_Move<MiniMap::SpotPoint *,MiniMap::SpotPoint *>
_TEXT	ENDS
PUBLIC	?destroy@?$allocator@USpotPoint@MiniMap@@@std@@QAEXPAUSpotPoint@MiniMap@@@Z ; std::allocator<MiniMap::SpotPoint>::destroy
; Function compile flags: /Ogsp
; File c:\program files (x86)\microsoft visual studio 10.0\vc\include\xmemory
;	COMDAT ?destroy@?$allocator@USpotPoint@MiniMap@@@std@@QAEXPAUSpotPoint@MiniMap@@@Z
_TEXT	SEGMENT
__Ptr$ = 8						; size = 4
?destroy@?$allocator@USpotPoint@MiniMap@@@std@@QAEXPAUSpotPoint@MiniMap@@@Z PROC ; std::allocator<MiniMap::SpotPoint>::destroy, COMDAT
; _this$ = ecx

; 213  : 		_Destroy(_Ptr);
; 214  : 		}

  00000	c2 04 00	 ret	 4
?destroy@?$allocator@USpotPoint@MiniMap@@@std@@QAEXPAUSpotPoint@MiniMap@@@Z ENDP ; std::allocator<MiniMap::SpotPoint>::destroy
_TEXT	ENDS
PUBLIC	?construct@?$allocator@USpotPoint@MiniMap@@@std@@QAEXPAUSpotPoint@MiniMap@@$$QAU34@@Z ; std::allocator<MiniMap::SpotPoint>::construct
; Function compile flags: /Ogsp
;	COMDAT ?construct@?$allocator@USpotPoint@MiniMap@@@std@@QAEXPAUSpotPoint@MiniMap@@$$QAU34@@Z
_TEXT	SEGMENT
__Ptr$ = 8						; size = 4
__Val$ = 12						; size = 4
?construct@?$allocator@USpotPoint@MiniMap@@@std@@QAEXPAUSpotPoint@MiniMap@@$$QAU34@@Z PROC ; std::allocator<MiniMap::SpotPoint>::construct, COMDAT
; _this$ = ecx

; 201  : 		{	// construct object at _Ptr with value _Val

  00000	55		 push	 ebp
  00001	8b ec		 mov	 ebp, esp
  00003	57		 push	 edi

; 202  : 		::new ((void _FARQ *)_Ptr) _Ty(_STD forward<_Ty>(_Val));

  00004	8b 7d 08	 mov	 edi, DWORD PTR __Ptr$[ebp]
  00007	85 ff		 test	 edi, edi
  00009	74 0a		 je	 SHORT $LN3@construct@3
  0000b	56		 push	 esi
  0000c	8b 75 0c	 mov	 esi, DWORD PTR __Val$[ebp]
  0000f	6a 05		 push	 5
  00011	59		 pop	 ecx
  00012	f3 a5		 rep movsd
  00014	5e		 pop	 esi
$LN3@construct@3:
  00015	5f		 pop	 edi

; 203  : 		}

  00016	5d		 pop	 ebp
  00017	c2 08 00	 ret	 8
?construct@?$allocator@USpotPoint@MiniMap@@@std@@QAEXPAUSpotPoint@MiniMap@@$$QAU34@@Z ENDP ; std::allocator<MiniMap::SpotPoint>::construct
_TEXT	ENDS
PUBLIC	??_C@_0BL@JPMNBPHF@Not?5MiniMap?5Resource?$CB?$CB?$CI?$CFs?$CJ?$AA@ ; `string'
PUBLIC	??_C@_00CNPNBAHC@?$AA@				; `string'
PUBLIC	_rkLoader$GSCopy$
PUBLIC	_rkWorldBox$GSCopy$
PUBLIC	?InitMapInfo@MiniMap@@QAEXAAVioINILoader@@ABVioAxisAlignBox@@PAVioPlayMode@@@Z ; MiniMap::InitMapInfo
EXTRN	__imp_?PrintTimeAndLog@CLog@@QAAXHPADZZ:PROC
EXTRN	__imp_?LOG@@3VCLog@@A:BYTE
EXTRN	__imp_??1ioHashString@@QAE@XZ:PROC
EXTRN	__imp_?CreateImageByFullName@ioUIImageSetManager@@QAEPAVioUIRenderImage@@ABVioHashString@@_N@Z:PROC
EXTRN	__imp_?GetSingleton@ioUIImageSetManager@@SAAAV1@XZ:PROC
EXTRN	__imp_??0ioHashString@@QAE@PBD@Z:PROC
EXTRN	__imp_?GetMaxPos@ioAxisAlignBox@@QBEABUD3DXVECTOR3@@XZ:PROC
EXTRN	__imp_?GetMinPos@ioAxisAlignBox@@QBEABUD3DXVECTOR3@@XZ:PROC
EXTRN	__EH_epilog3_GS:PROC
EXTRN	__EH_prolog3_GS:PROC
;	COMDAT ??_C@_0BL@JPMNBPHF@Not?5MiniMap?5Resource?$CB?$CB?$CI?$CFs?$CJ?$AA@
; File d:\lost saga for developer\youtube\tutorial\source\src\lsclient\stringprotect.h
CONST	SEGMENT
??_C@_0BL@JPMNBPHF@Not?5MiniMap?5Resource?$CB?$CB?$CI?$CFs?$CJ?$AA@ DB 'N'
	DB	'ot MiniMap Resource!!(%s)', 00H		; `string'
CONST	ENDS
;	COMDAT ??_C@_00CNPNBAHC@?$AA@
CONST	SEGMENT
??_C@_00CNPNBAHC@?$AA@ DB 00H				; `string'
CONST	ENDS
;	COMDAT xdata$x
xdata$x	SEGMENT
__unwindtable$?InitMapInfo@MiniMap@@QAEXAAVioINILoader@@ABVioAxisAlignBox@@PAVioPlayMode@@@Z DD 0ffffffffH
	DD	FLAT:__unwindfunclet$?InitMapInfo@MiniMap@@QAEXAAVioINILoader@@ABVioAxisAlignBox@@PAVioPlayMode@@@Z$0
__ehfuncinfo$?InitMapInfo@MiniMap@@QAEXAAVioINILoader@@ABVioAxisAlignBox@@PAVioPlayMode@@@Z DD 019930522H
	DD	01H
	DD	FLAT:__unwindtable$?InitMapInfo@MiniMap@@QAEXAAVioINILoader@@ABVioAxisAlignBox@@PAVioPlayMode@@@Z
	DD	2 DUP(00H)
	DD	2 DUP(00H)
	DD	00H
	DD	01H
; Function compile flags: /Ogsp
; File d:\lost saga for developer\youtube\tutorial\source\src\lsclient\gui\minimap.cpp
xdata$x	ENDS
;	COMDAT ?InitMapInfo@MiniMap@@QAEXAAVioINILoader@@ABVioAxisAlignBox@@PAVioPlayMode@@@Z
_TEXT	SEGMENT
$T532379 = -332						; size = 16
_rkLoader$GSCopy$ = -316				; size = 4
_rkWorldBox$GSCopy$ = -312				; size = 4
tv763 = -312						; size = 4
_szBuf$ = -308						; size = 260
__k$532915 = -48					; size = 6
_vMin$ = -48						; size = 12
__k$532784 = -36					; size = 15
__k$532659 = -36					; size = 15
__k$532534 = -36					; size = 13
__k$532396 = -36					; size = 13
_vMax$ = -32						; size = 12
__$EHRec$ = -12						; size = 12
_rkLoader$ = 8						; size = 4
_rkWorldBox$ = 12					; size = 4
_pModeParent$ = 16					; size = 4
?InitMapInfo@MiniMap@@QAEXAAVioINILoader@@ABVioAxisAlignBox@@PAVioPlayMode@@@Z PROC ; MiniMap::InitMapInfo, COMDAT
; _this$ = ecx

; 71   : {

  00000	68 40 01 00 00	 push	 320			; 00000140H
  00005	b8 00 00 00 00	 mov	 eax, __ehhandler$?InitMapInfo@MiniMap@@QAEXAAVioINILoader@@ABVioAxisAlignBox@@PAVioPlayMode@@@Z
  0000a	e8 00 00 00 00	 call	 __EH_prolog3_GS

; 93   : 
; 94   : 	SAFEDELETE( m_pMiniMap );

  0000f	8b 45 0c	 mov	 eax, DWORD PTR _rkWorldBox$[ebp]
  00012	89 85 c8 fe ff
	ff		 mov	 DWORD PTR _rkWorldBox$GSCopy$[ebp], eax
  00018	8b 45 10	 mov	 eax, DWORD PTR _pModeParent$[ebp]
  0001b	8b d9		 mov	 ebx, ecx
  0001d	8b 4d 08	 mov	 ecx, DWORD PTR _rkLoader$[ebp]
  00020	6a 03		 push	 3
  00022	5f		 pop	 edi
  00023	89 83 a0 01 00
	00		 mov	 DWORD PTR [ebx+416], eax

; 102  : 	{
; 103  : 		m_pMiniMap = g_UIImageSetMgr.CreateImageByFullName( szBuf );

  00029	89 8d c4 fe ff
	ff		 mov	 DWORD PTR _rkLoader$GSCopy$[ebp], ecx
  0002f	c7 45 dc 80 8d
	9b b5		 mov	 DWORD PTR __k$532396[ebp], -1248096896 ; b59b8d80H
  00036	c7 45 e0 95 b3
	84 8c		 mov	 DWORD PTR __k$532396[ebp+4], -1937460331 ; 8c84b395H
  0003d	c7 45 e4 8b 9f
	8e 9e		 mov	 DWORD PTR __k$532396[ebp+8], -1634820213 ; 9e8e9f8bH
  00044	8d 45 dc	 lea	 eax, DWORD PTR __k$532396[ebp]
  00047	c6 45 e8 00	 mov	 BYTE PTR __k$532396[ebp+12], 0
  0004b	8b d7		 mov	 edx, edi
$LL118@InitMapInf:

; 72   : 	m_pModeParent = pModeParent;
; 73   : 
; 74   : 	m_iMiniMapOffX = rkLoader.LoadInt_e( "map_x_offset", 0 );

  0004d	81 30 ed ec eb
	ea		 xor	 DWORD PTR [eax], -353637139 ; eaebecedH
  00053	83 c0 04	 add	 eax, 4
  00056	4a		 dec	 edx
  00057	75 f4		 jne	 SHORT $LL118@InitMapInf
  00059	8b 35 00 00 00
	00		 mov	 esi, DWORD PTR __imp_?LoadInt@ioINILoader@@QAEHPBDH@Z
  0005f	52		 push	 edx
  00060	8d 45 dc	 lea	 eax, DWORD PTR __k$532396[ebp]
  00063	50		 push	 eax
  00064	ff d6		 call	 esi
  00066	89 83 b4 01 00
	00		 mov	 DWORD PTR [ebx+436], eax

; 75   : 	m_iMiniMapOffY = rkLoader.LoadInt_e( "map_y_offset", 0 );

  0006c	c7 45 dc 80 8d
	9b b5		 mov	 DWORD PTR __k$532534[ebp], -1248096896 ; b59b8d80H
  00073	c7 45 e0 94 b3
	84 8c		 mov	 DWORD PTR __k$532534[ebp+4], -1937460332 ; 8c84b394H
  0007a	c7 45 e4 8b 9f
	8e 9e		 mov	 DWORD PTR __k$532534[ebp+8], -1634820213 ; 9e8e9f8bH
  00081	8d 45 dc	 lea	 eax, DWORD PTR __k$532534[ebp]
  00084	c6 45 e8 00	 mov	 BYTE PTR __k$532534[ebp+12], 0
  00088	8b cf		 mov	 ecx, edi
$LL224@InitMapInf:
  0008a	81 30 ed ec eb
	ea		 xor	 DWORD PTR [eax], -353637139 ; eaebecedH
  00090	83 c0 04	 add	 eax, 4
  00093	49		 dec	 ecx
  00094	75 f4		 jne	 SHORT $LL224@InitMapInf
  00096	51		 push	 ecx
  00097	8b 8d c4 fe ff
	ff		 mov	 ecx, DWORD PTR _rkLoader$GSCopy$[ebp]
  0009d	8d 45 dc	 lea	 eax, DWORD PTR __k$532534[ebp]
  000a0	50		 push	 eax
  000a1	ff d6		 call	 esi
  000a3	89 83 b8 01 00
	00		 mov	 DWORD PTR [ebx+440], eax

; 76   : 
; 77   : 	m_iPointOffX = rkLoader.LoadInt_e( "point_x_offset", 0 );

  000a9	c7 45 dc 9d 83
	82 84		 mov	 DWORD PTR __k$532659[ebp], -2071821411 ; 8482839dH
  000b0	c7 45 e0 99 b3
	93 b5		 mov	 DWORD PTR __k$532659[ebp+4], -1248611431 ; b593b399H
  000b7	c7 45 e4 82 8a
	8d 99		 mov	 DWORD PTR __k$532659[ebp+8], -1718777214 ; 998d8a82H
  000be	66 c7 45 e8 88
	98		 mov	 WORD PTR __k$532659[ebp+12], 39048 ; 00009888H
  000c4	8d 45 dc	 lea	 eax, DWORD PTR __k$532659[ebp]
  000c7	c6 45 ea 00	 mov	 BYTE PTR __k$532659[ebp+14], 0
  000cb	8b cf		 mov	 ecx, edi
$LL330@InitMapInf:
  000cd	81 30 ed ec eb
	ea		 xor	 DWORD PTR [eax], -353637139 ; eaebecedH
  000d3	83 c0 04	 add	 eax, 4
  000d6	49		 dec	 ecx
  000d7	75 f4		 jne	 SHORT $LL330@InitMapInf
  000d9	6a 0c		 push	 12			; 0000000cH
  000db	58		 pop	 eax
$LL327@InitMapInf:
  000dc	8b c8		 mov	 ecx, eax
  000de	81 e1 03 00 00
	80		 and	 ecx, -2147483645	; 80000003H
  000e4	79 05		 jns	 SHORT $LN574@InitMapInf
  000e6	49		 dec	 ecx
  000e7	83 c9 fc	 or	 ecx, -4			; fffffffcH
  000ea	41		 inc	 ecx
$LN574@InitMapInf:
  000eb	b2 ed		 mov	 dl, -19			; ffffffedH
  000ed	2a d1		 sub	 dl, cl
  000ef	30 54 05 dc	 xor	 BYTE PTR __k$532659[ebp+eax], dl
  000f3	40		 inc	 eax
  000f4	83 f8 0e	 cmp	 eax, 14			; 0000000eH
  000f7	7c e3		 jl	 SHORT $LL327@InitMapInf
  000f9	8b 8d c4 fe ff
	ff		 mov	 ecx, DWORD PTR _rkLoader$GSCopy$[ebp]
  000ff	6a 00		 push	 0
  00101	8d 45 dc	 lea	 eax, DWORD PTR __k$532659[ebp]
  00104	50		 push	 eax
  00105	ff d6		 call	 esi
  00107	89 83 bc 01 00
	00		 mov	 DWORD PTR [ebx+444], eax

; 78   : 	m_iPointOffY = rkLoader.LoadInt_e( "point_y_offset", 0 );

  0010d	c7 45 dc 9d 83
	82 84		 mov	 DWORD PTR __k$532784[ebp], -2071821411 ; 8482839dH
  00114	c7 45 e0 99 b3
	92 b5		 mov	 DWORD PTR __k$532784[ebp+4], -1248676967 ; b592b399H
  0011b	c7 45 e4 82 8a
	8d 99		 mov	 DWORD PTR __k$532784[ebp+8], -1718777214 ; 998d8a82H
  00122	66 c7 45 e8 88
	98		 mov	 WORD PTR __k$532784[ebp+12], 39048 ; 00009888H
  00128	8d 45 dc	 lea	 eax, DWORD PTR __k$532784[ebp]
  0012b	c6 45 ea 00	 mov	 BYTE PTR __k$532784[ebp+14], 0
$LL436@InitMapInf:
  0012f	81 30 ed ec eb
	ea		 xor	 DWORD PTR [eax], -353637139 ; eaebecedH
  00135	83 c0 04	 add	 eax, 4
  00138	4f		 dec	 edi
  00139	75 f4		 jne	 SHORT $LL436@InitMapInf
  0013b	6a 0c		 push	 12			; 0000000cH
  0013d	5f		 pop	 edi
$LL433@InitMapInf:
  0013e	8b c7		 mov	 eax, edi
  00140	25 03 00 00 80	 and	 eax, -2147483645	; 80000003H
  00145	79 05		 jns	 SHORT $LN575@InitMapInf
  00147	48		 dec	 eax
  00148	83 c8 fc	 or	 eax, -4			; fffffffcH
  0014b	40		 inc	 eax
$LN575@InitMapInf:
  0014c	b1 ed		 mov	 cl, -19			; ffffffedH
  0014e	2a c8		 sub	 cl, al
  00150	30 4c 3d dc	 xor	 BYTE PTR __k$532784[ebp+edi], cl
  00154	47		 inc	 edi
  00155	83 ff 0e	 cmp	 edi, 14			; 0000000eH
  00158	7c e4		 jl	 SHORT $LL433@InitMapInf
  0015a	8b 8d c4 fe ff
	ff		 mov	 ecx, DWORD PTR _rkLoader$GSCopy$[ebp]
  00160	6a 00		 push	 0
  00162	8d 45 dc	 lea	 eax, DWORD PTR __k$532784[ebp]
  00165	50		 push	 eax
  00166	ff d6		 call	 esi

; 79   : 
; 80   : 	m_dwTime = 0;
; 81   : 
; 82   : 	D3DXVECTOR3 vMin, vMax;
; 83   : 	vMin = rkWorldBox.GetMinPos();

  00168	8b 8d c8 fe ff
	ff		 mov	 ecx, DWORD PTR _rkWorldBox$GSCopy$[ebp]
  0016e	83 a3 b4 02 00
	00 00		 and	 DWORD PTR [ebx+692], 0
  00175	89 83 c0 01 00
	00		 mov	 DWORD PTR [ebx+448], eax
  0017b	ff 15 00 00 00
	00		 call	 DWORD PTR __imp_?GetMinPos@ioAxisAlignBox@@QBEABUD3DXVECTOR3@@XZ

; 84   : 	vMax = rkWorldBox.GetMaxPos();

  00181	8b 8d c8 fe ff
	ff		 mov	 ecx, DWORD PTR _rkWorldBox$GSCopy$[ebp]
  00187	8b f0		 mov	 esi, eax
  00189	8d 7d d0	 lea	 edi, DWORD PTR _vMin$[ebp]
  0018c	a5		 movsd
  0018d	a5		 movsd
  0018e	a5		 movsd
  0018f	ff 15 00 00 00
	00		 call	 DWORD PTR __imp_?GetMaxPos@ioAxisAlignBox@@QBEABUD3DXVECTOR3@@XZ

; 85   : 
; 86   : 	m_fMapStartX = vMin.x;

  00195	f3 0f 10 45 d0	 movss	 xmm0, DWORD PTR _vMin$[ebp]

; 87   : 	m_fMapStartZ = vMin.z;

  0019a	f3 0f 10 4d d8	 movss	 xmm1, DWORD PTR _vMin$[ebp+8]

; 88   : 	m_fMapRealWidth  = vMax.x - vMin.x;
; 89   : 	m_fMapRealHeight = vMax.z - vMin.z;
; 90   : 
; 91   : 	char szBuf[MAX_PATH];
; 92   : 	rkLoader.LoadString_e( "image", "", szBuf, MAX_PATH );

  0019f	8b 8d c4 fe ff
	ff		 mov	 ecx, DWORD PTR _rkLoader$GSCopy$[ebp]
  001a5	8b f0		 mov	 esi, eax
  001a7	8d 7d e0	 lea	 edi, DWORD PTR _vMax$[ebp]
  001aa	a5		 movsd
  001ab	a5		 movsd
  001ac	a5		 movsd
  001ad	f3 0f 10 55 e0	 movss	 xmm2, DWORD PTR _vMax$[ebp]
  001b2	f3 0f 11 83 a4
	01 00 00	 movss	 DWORD PTR [ebx+420], xmm0
  001ba	0f 5a c0	 cvtps2pd xmm0, xmm0
  001bd	0f 5a d2	 cvtps2pd xmm2, xmm2
  001c0	f2 0f 5c d0	 subsd	 xmm2, xmm0
  001c4	0f 57 c0	 xorps	 xmm0, xmm0
  001c7	66 0f 5a c2	 cvtpd2ps xmm0, xmm2
  001cb	68 04 01 00 00	 push	 260			; 00000104H
  001d0	f3 0f 11 83 ac
	01 00 00	 movss	 DWORD PTR [ebx+428], xmm0
  001d8	f3 0f 10 45 e8	 movss	 xmm0, DWORD PTR _vMax$[ebp+8]
  001dd	8d 85 cc fe ff
	ff		 lea	 eax, DWORD PTR _szBuf$[ebp]
  001e3	50		 push	 eax
  001e4	f3 0f 11 8b a8
	01 00 00	 movss	 DWORD PTR [ebx+424], xmm1
  001ec	0f 5a c0	 cvtps2pd xmm0, xmm0
  001ef	bf 00 00 00 00	 mov	 edi, OFFSET ??_C@_00CNPNBAHC@?$AA@
  001f4	0f 5a c9	 cvtps2pd xmm1, xmm1
  001f7	57		 push	 edi
  001f8	8d 45 d0	 lea	 eax, DWORD PTR __k$532915[ebp]
  001fb	f2 0f 5c c1	 subsd	 xmm0, xmm1
  001ff	66 0f 5a c0	 cvtpd2ps xmm0, xmm0
  00203	c7 45 d0 84 81
	8a 8d		 mov	 DWORD PTR __k$532915[ebp], -1920302716 ; 8d8a8184H
  0020a	81 75 d0 ed ec
	eb ea		 xor	 DWORD PTR __k$532915[ebp], -353637139 ; eaebecedH
  00211	50		 push	 eax
  00212	f3 0f 11 83 b0
	01 00 00	 movss	 DWORD PTR [ebx+432], xmm0
  0021a	66 c7 45 d4 65
	00		 mov	 WORD PTR __k$532915[ebp+4], 101 ; 00000065H
  00220	ff 15 00 00 00
	00		 call	 DWORD PTR __imp_?LoadStringA@ioINILoader@@QAEXPBD0PADH@Z

; 93   : 
; 94   : 	SAFEDELETE( m_pMiniMap );

  00226	8b 8b cc 01 00
	00		 mov	 ecx, DWORD PTR [ebx+460]
  0022c	85 c9		 test	 ecx, ecx
  0022e	74 0e		 je	 SHORT $LN7@InitMapInf
  00230	8b 01		 mov	 eax, DWORD PTR [ecx]
  00232	6a 01		 push	 1
  00234	ff 50 40	 call	 DWORD PTR [eax+64]
  00237	83 a3 cc 01 00
	00 00		 and	 DWORD PTR [ebx+460], 0
$LN7@InitMapInf:

; 95   : 
; 96   : 	for(int i = TIME_ICON; i < MAX_IMAGE; i++)

  0023e	8d b3 60 02 00
	00		 lea	 esi, DWORD PTR [ebx+608]
  00244	c7 85 c8 fe ff
	ff 06 00 00 00	 mov	 DWORD PTR tv763[ebp], 6
$LL6@InitMapInf:

; 97   : 		SAFEDELETE(m_pExtraImg[i]);

  0024e	8b 0e		 mov	 ecx, DWORD PTR [esi]
  00250	85 c9		 test	 ecx, ecx
  00252	74 0a		 je	 SHORT $LN5@InitMapInf
  00254	8b 01		 mov	 eax, DWORD PTR [ecx]
  00256	6a 01		 push	 1
  00258	ff 50 40	 call	 DWORD PTR [eax+64]
  0025b	83 26 00	 and	 DWORD PTR [esi], 0
$LN5@InitMapInf:

; 95   : 
; 96   : 	for(int i = TIME_ICON; i < MAX_IMAGE; i++)

  0025e	83 c6 04	 add	 esi, 4
  00261	ff 8d c8 fe ff
	ff		 dec	 DWORD PTR tv763[ebp]
  00267	75 e5		 jne	 SHORT $LL6@InitMapInf

; 98   : 
; 99   : 	m_bShowTime = false;
; 100  : 
; 101  : 	if( strcmp( szBuf, "" ) != 0 )

  00269	33 c9		 xor	 ecx, ecx
  0026b	41		 inc	 ecx
  0026c	8d b5 cc fe ff
	ff		 lea	 esi, DWORD PTR _szBuf$[ebp]
  00272	33 c0		 xor	 eax, eax
  00274	c6 83 bc 02 00
	00 00		 mov	 BYTE PTR [ebx+700], 0
  0027b	f3 a6		 repe cmpsb
  0027d	74 68		 je	 SHORT $LN1@InitMapInf

; 102  : 	{
; 103  : 		m_pMiniMap = g_UIImageSetMgr.CreateImageByFullName( szBuf );

  0027f	8d 85 cc fe ff
	ff		 lea	 eax, DWORD PTR _szBuf$[ebp]
  00285	50		 push	 eax
  00286	8d 8d b4 fe ff
	ff		 lea	 ecx, DWORD PTR $T532379[ebp]
  0028c	ff 15 00 00 00
	00		 call	 DWORD PTR __imp_??0ioHashString@@QAE@PBD@Z
  00292	33 f6		 xor	 esi, esi
  00294	8d 85 b4 fe ff
	ff		 lea	 eax, DWORD PTR $T532379[ebp]
  0029a	56		 push	 esi
  0029b	50		 push	 eax
  0029c	89 75 fc	 mov	 DWORD PTR __$EHRec$[ebp+8], esi
  0029f	ff 15 00 00 00
	00		 call	 DWORD PTR __imp_?GetSingleton@ioUIImageSetManager@@SAAAV1@XZ
  002a5	8b c8		 mov	 ecx, eax
  002a7	ff 15 00 00 00
	00		 call	 DWORD PTR __imp_?CreateImageByFullName@ioUIImageSetManager@@QAEPAVioUIRenderImage@@ABVioHashString@@_N@Z
  002ad	83 4d fc ff	 or	 DWORD PTR __$EHRec$[ebp+8], -1
  002b1	8d 8d b4 fe ff
	ff		 lea	 ecx, DWORD PTR $T532379[ebp]
  002b7	89 83 cc 01 00
	00		 mov	 DWORD PTR [ebx+460], eax
  002bd	ff 15 00 00 00
	00		 call	 DWORD PTR __imp_??1ioHashString@@QAE@XZ

; 104  : 		if( !m_pMiniMap )

  002c3	39 b3 cc 01 00
	00		 cmp	 DWORD PTR [ebx+460], esi
  002c9	75 1c		 jne	 SHORT $LN1@InitMapInf

; 105  : 		{
; 106  : 			LOG.PrintTimeAndLog( 0, "Not MiniMap Resource!!(%s)", szBuf );

  002cb	8d 85 cc fe ff
	ff		 lea	 eax, DWORD PTR _szBuf$[ebp]
  002d1	50		 push	 eax
  002d2	68 00 00 00 00	 push	 OFFSET ??_C@_0BL@JPMNBPHF@Not?5MiniMap?5Resource?$CB?$CB?$CI?$CFs?$CJ?$AA@
  002d7	56		 push	 esi
  002d8	ff 35 00 00 00
	00		 push	 DWORD PTR __imp_?LOG@@3VCLog@@A
  002de	ff 15 00 00 00
	00		 call	 DWORD PTR __imp_?PrintTimeAndLog@CLog@@QAAXHPADZZ
  002e4	83 c4 10	 add	 esp, 16			; 00000010H
$LN1@InitMapInf:

; 107  : 		}
; 108  : 	}
; 109  : }

  002e7	e8 00 00 00 00	 call	 __EH_epilog3_GS
  002ec	c2 0c 00	 ret	 12			; 0000000cH
_TEXT	ENDS
;	COMDAT text$x
text$x	SEGMENT
__unwindfunclet$?InitMapInfo@MiniMap@@QAEXAAVioINILoader@@ABVioAxisAlignBox@@PAVioPlayMode@@@Z$0:
  00000	8d 8d b4 fe ff
	ff		 lea	 ecx, DWORD PTR $T532379[ebp]
  00006	ff 25 00 00 00
	00		 jmp	 DWORD PTR __imp_??1ioHashString@@QAE@XZ
__ehhandler$?InitMapInfo@MiniMap@@QAEXAAVioINILoader@@ABVioAxisAlignBox@@PAVioPlayMode@@@Z:
  0000c	8b 54 24 08	 mov	 edx, DWORD PTR [esp+8]
  00010	8d 42 0c	 lea	 eax, DWORD PTR [edx+12]
  00013	8b 8a b0 fe ff
	ff		 mov	 ecx, DWORD PTR [edx-336]
  00019	33 c8		 xor	 ecx, eax
  0001b	e8 00 00 00 00	 call	 @__security_check_cookie@4
  00020	8b 4a fc	 mov	 ecx, DWORD PTR [edx-4]
  00023	33 c8		 xor	 ecx, eax
  00025	e8 00 00 00 00	 call	 @__security_check_cookie@4
  0002a	b8 00 00 00 00	 mov	 eax, OFFSET __ehfuncinfo$?InitMapInfo@MiniMap@@QAEXAAVioINILoader@@ABVioAxisAlignBox@@PAVioPlayMode@@@Z
  0002f	e9 00 00 00 00	 jmp	 ___CxxFrameHandler3
text$x	ENDS
?InitMapInfo@MiniMap@@QAEXAAVioINILoader@@ABVioAxisAlignBox@@PAVioPlayMode@@@Z ENDP ; MiniMap::InitMapInfo
PUBLIC	_rkLoader$GSCopy$
PUBLIC	?SetTimeImage@MiniMap@@QAEXAAVioINILoader@@@Z	; MiniMap::SetTimeImage
EXTRN	_memset:PROC
;	COMDAT xdata$x
; File d:\lost saga for developer\youtube\tutorial\source\src\lsclient\stringprotect.h
xdata$x	SEGMENT
__ehfuncinfo$?SetTimeImage@MiniMap@@QAEXAAVioINILoader@@@Z DD 019930522H
	DD	06H
	DD	FLAT:__unwindtable$?SetTimeImage@MiniMap@@QAEXAAVioINILoader@@@Z
	DD	2 DUP(00H)
	DD	2 DUP(00H)
	DD	00H
	DD	01H
__unwindtable$?SetTimeImage@MiniMap@@QAEXAAVioINILoader@@@Z DD 0ffffffffH
	DD	FLAT:__unwindfunclet$?SetTimeImage@MiniMap@@QAEXAAVioINILoader@@@Z$0
	DD	0ffffffffH
	DD	FLAT:__unwindfunclet$?SetTimeImage@MiniMap@@QAEXAAVioINILoader@@@Z$1
	DD	0ffffffffH
	DD	FLAT:__unwindfunclet$?SetTimeImage@MiniMap@@QAEXAAVioINILoader@@@Z$2
	DD	0ffffffffH
	DD	FLAT:__unwindfunclet$?SetTimeImage@MiniMap@@QAEXAAVioINILoader@@@Z$3
	DD	0ffffffffH
	DD	FLAT:__unwindfunclet$?SetTimeImage@MiniMap@@QAEXAAVioINILoader@@@Z$4
	DD	0ffffffffH
	DD	FLAT:__unwindfunclet$?SetTimeImage@MiniMap@@QAEXAAVioINILoader@@@Z$5
; Function compile flags: /Ogsp
; File d:\lost saga for developer\youtube\tutorial\source\src\lsclient\gui\minimap.cpp
xdata$x	ENDS
;	COMDAT ?SetTimeImage@MiniMap@@QAEXAAVioINILoader@@@Z
_TEXT	SEGMENT
$T533057 = -732						; size = 16
$T533052 = -716						; size = 16
$T533054 = -700						; size = 16
$T533056 = -684						; size = 16
$T533053 = -668						; size = 16
$T533055 = -652						; size = 16
_rkLoader$GSCopy$ = -636				; size = 4
_szBuf$ = -632						; size = 260
__k$533877 = -372					; size = 9
__k$533489 = -356					; size = 9
__t$533092 = -340					; size = 13
__d$534712 = -320					; size = 37
__k$534204 = -276					; size = 14
__k$535199 = -256					; size = 10
__k$534454 = -240					; size = 10
__k$533954 = -224					; size = 16
__k$534079 = -204					; size = 16
__k$535324 = -184					; size = 10
__k$534837 = -168					; size = 12
__k$535133 = -152					; size = 10
__k$533592 = -136					; size = 11
__k$534329 = -120					; size = 10
__k$533329 = -104					; size = 11
__k$533217 = -88					; size = 11
__k$534962 = -72					; size = 12
__k$533717 = -56					; size = 11
__k$534615 = -40					; size = 8
__k$535449 = -28					; size = 8
__$EHRec$ = -12						; size = 12
_rkLoader$ = 8						; size = 4
?SetTimeImage@MiniMap@@QAEXAAVioINILoader@@@Z PROC	; MiniMap::SetTimeImage, COMDAT
; _this$ = ecx

; 112  : {

  00000	68 d0 02 00 00	 push	 720			; 000002d0H
  00005	b8 00 00 00 00	 mov	 eax, __ehhandler$?SetTimeImage@MiniMap@@QAEXAAVioINILoader@@@Z
  0000a	e8 00 00 00 00	 call	 __EH_prolog3_GS
  0000f	8b f1		 mov	 esi, ecx
  00011	8b 4d 08	 mov	 ecx, DWORD PTR _rkLoader$[ebp]

; 113  : 	rkLoader.SetTitle_e( "MiniMapExtra" );

  00014	33 db		 xor	 ebx, ebx
  00016	6a 03		 push	 3

; 149  : 	m_ptOffSet[TIME_DOT].y = rkLoader.LoadInt_e( "timedot_y", 0 );

  00018	89 8d 84 fd ff
	ff		 mov	 DWORD PTR _rkLoader$GSCopy$[ebp], ecx
  0001e	c7 85 ac fe ff
	ff a0 85 85 83	 mov	 DWORD PTR __t$533092[ebp], -2088401504 ; 838585a0H
  00028	c7 85 b0 fe ff
	ff a0 8d 9b af	 mov	 DWORD PTR __t$533092[ebp+4], -1348760160 ; af9b8da0H
  00032	c7 85 b4 fe ff
	ff 95 98 99 8b	 mov	 DWORD PTR __t$533092[ebp+8], -1952868203 ; 8b999895H
  0003c	8d 85 ac fe ff
	ff		 lea	 eax, DWORD PTR __t$533092[ebp]
  00042	88 9d b8 fe ff
	ff		 mov	 BYTE PTR __t$533092[ebp+12], bl
  00048	5a		 pop	 edx
  00049	bf ed ec eb ea	 mov	 edi, -353637139		; eaebecedH
$LL112@SetTimeIma:

; 113  : 	rkLoader.SetTitle_e( "MiniMapExtra" );

  0004e	31 38		 xor	 DWORD PTR [eax], edi
  00050	83 c0 04	 add	 eax, 4
  00053	4a		 dec	 edx
  00054	75 f8		 jne	 SHORT $LL112@SetTimeIma
  00056	8d 85 ac fe ff
	ff		 lea	 eax, DWORD PTR __t$533092[ebp]
  0005c	50		 push	 eax
  0005d	ff 15 00 00 00
	00		 call	 DWORD PTR __imp_?SetTitle@ioINILoader@@QAEXPBD@Z
  00063	6a 02		 push	 2

; 114  : 
; 115  : 	m_ptOffSet[TIME_ICON].x = rkLoader.LoadInt_e( "timeicon_x", 0 );

  00065	c7 45 a8 99 85
	86 8f		 mov	 DWORD PTR __k$533217[ebp], -1887009383 ; 8f868599H
  0006c	c7 45 ac 84 8f
	84 84		 mov	 DWORD PTR __k$533217[ebp+4], -2071687292 ; 84848f84H
  00073	66 c7 45 b0 b2
	94		 mov	 WORD PTR __k$533217[ebp+8], 38066 ; 000094b2H
  00079	8d 45 a8	 lea	 eax, DWORD PTR __k$533217[ebp]
  0007c	88 5d b2	 mov	 BYTE PTR __k$533217[ebp+10], bl
  0007f	59		 pop	 ecx
$LL218@SetTimeIma:
  00080	31 38		 xor	 DWORD PTR [eax], edi
  00082	83 c0 04	 add	 eax, 4
  00085	49		 dec	 ecx
  00086	75 f8		 jne	 SHORT $LL218@SetTimeIma
  00088	6a 08		 push	 8
  0008a	5f		 pop	 edi
$LL215@SetTimeIma:
  0008b	8b c7		 mov	 eax, edi
  0008d	25 03 00 00 80	 and	 eax, -2147483645	; 80000003H
  00092	79 05		 jns	 SHORT $LN2208@SetTimeIma
  00094	48		 dec	 eax
  00095	83 c8 fc	 or	 eax, -4			; fffffffcH
  00098	40		 inc	 eax
$LN2208@SetTimeIma:
  00099	b1 ed		 mov	 cl, -19			; ffffffedH
  0009b	2a c8		 sub	 cl, al
  0009d	30 4c 3d a8	 xor	 BYTE PTR __k$533217[ebp+edi], cl
  000a1	47		 inc	 edi
  000a2	83 ff 0a	 cmp	 edi, 10			; 0000000aH
  000a5	7c e4		 jl	 SHORT $LL215@SetTimeIma
  000a7	8b 8d 84 fd ff
	ff		 mov	 ecx, DWORD PTR _rkLoader$GSCopy$[ebp]
  000ad	8b 3d 00 00 00
	00		 mov	 edi, DWORD PTR __imp_?LoadInt@ioINILoader@@QAEHPBDH@Z
  000b3	53		 push	 ebx
  000b4	8d 45 a8	 lea	 eax, DWORD PTR __k$533217[ebp]
  000b7	50		 push	 eax
  000b8	ff d7		 call	 edi
  000ba	89 86 c0 02 00
	00		 mov	 DWORD PTR [esi+704], eax
  000c0	6a 02		 push	 2

; 116  : 	m_ptOffSet[TIME_ICON].y = rkLoader.LoadInt_e( "timeicon_y", 0 );

  000c2	c7 45 98 99 85
	86 8f		 mov	 DWORD PTR __k$533329[ebp], -1887009383 ; 8f868599H
  000c9	c7 45 9c 84 8f
	84 84		 mov	 DWORD PTR __k$533329[ebp+4], -2071687292 ; 84848f84H
  000d0	66 c7 45 a0 b2
	95		 mov	 WORD PTR __k$533329[ebp+8], 38322 ; 000095b2H
  000d6	8d 45 98	 lea	 eax, DWORD PTR __k$533329[ebp]
  000d9	88 5d a2	 mov	 BYTE PTR __k$533329[ebp+10], bl
  000dc	59		 pop	 ecx
$LL324@SetTimeIma:
  000dd	81 30 ed ec eb
	ea		 xor	 DWORD PTR [eax], -353637139 ; eaebecedH
  000e3	83 c0 04	 add	 eax, 4
  000e6	49		 dec	 ecx
  000e7	75 f4		 jne	 SHORT $LL324@SetTimeIma
  000e9	6a 08		 push	 8
  000eb	58		 pop	 eax
$LL321@SetTimeIma:
  000ec	8b c8		 mov	 ecx, eax
  000ee	81 e1 03 00 00
	80		 and	 ecx, -2147483645	; 80000003H
  000f4	79 05		 jns	 SHORT $LN2209@SetTimeIma
  000f6	49		 dec	 ecx
  000f7	83 c9 fc	 or	 ecx, -4			; fffffffcH
  000fa	41		 inc	 ecx
$LN2209@SetTimeIma:
  000fb	b2 ed		 mov	 dl, -19			; ffffffedH
  000fd	2a d1		 sub	 dl, cl
  000ff	30 54 05 98	 xor	 BYTE PTR __k$533329[ebp+eax], dl
  00103	40		 inc	 eax
  00104	83 f8 0a	 cmp	 eax, 10			; 0000000aH
  00107	7c e3		 jl	 SHORT $LL321@SetTimeIma
  00109	8b 8d 84 fd ff
	ff		 mov	 ecx, DWORD PTR _rkLoader$GSCopy$[ebp]
  0010f	53		 push	 ebx
  00110	8d 45 98	 lea	 eax, DWORD PTR __k$533329[ebp]
  00113	50		 push	 eax
  00114	ff d7		 call	 edi
  00116	89 86 c4 02 00
	00		 mov	 DWORD PTR [esi+708], eax

; 117  : 
; 118  : 	char szBuf[MAX_PATH] = "";

  0011c	68 03 01 00 00	 push	 259			; 00000103H
  00121	8d 85 89 fd ff
	ff		 lea	 eax, DWORD PTR _szBuf$[ebp+1]
  00127	53		 push	 ebx
  00128	50		 push	 eax
  00129	88 9d 88 fd ff
	ff		 mov	 BYTE PTR _szBuf$[ebp], bl
  0012f	e8 00 00 00 00	 call	 _memset
  00134	83 c4 0c	 add	 esp, 12			; 0000000cH
  00137	6a 02		 push	 2

; 119  : 	rkLoader.LoadString_e( "timeicon", "", szBuf, MAX_PATH );

  00139	c7 85 9c fe ff
	ff 99 85 86 8f	 mov	 DWORD PTR __k$533489[ebp], -1887009383 ; 8f868599H
  00143	c7 85 a0 fe ff
	ff 84 8f 84 84	 mov	 DWORD PTR __k$533489[ebp+4], -2071687292 ; 84848f84H
  0014d	8d 85 9c fe ff
	ff		 lea	 eax, DWORD PTR __k$533489[ebp]
  00153	88 9d a4 fe ff
	ff		 mov	 BYTE PTR __k$533489[ebp+8], bl
  00159	59		 pop	 ecx
$LL430@SetTimeIma:
  0015a	81 30 ed ec eb
	ea		 xor	 DWORD PTR [eax], -353637139 ; eaebecedH
  00160	83 c0 04	 add	 eax, 4
  00163	49		 dec	 ecx
  00164	75 f4		 jne	 SHORT $LL430@SetTimeIma
  00166	8b 8d 84 fd ff
	ff		 mov	 ecx, DWORD PTR _rkLoader$GSCopy$[ebp]
  0016c	68 04 01 00 00	 push	 260			; 00000104H
  00171	8d 85 88 fd ff
	ff		 lea	 eax, DWORD PTR _szBuf$[ebp]
  00177	50		 push	 eax
  00178	68 00 00 00 00	 push	 OFFSET ??_C@_00CNPNBAHC@?$AA@
  0017d	8d 85 9c fe ff
	ff		 lea	 eax, DWORD PTR __k$533489[ebp]
  00183	50		 push	 eax
  00184	ff 15 00 00 00
	00		 call	 DWORD PTR __imp_?LoadStringA@ioINILoader@@QAEXPBD0PADH@Z

; 120  : 	m_pExtraImg[TIME_ICON] = g_UIImageSetMgr.CreateImageByFullName(szBuf);

  0018a	8d 85 88 fd ff
	ff		 lea	 eax, DWORD PTR _szBuf$[ebp]
  00190	50		 push	 eax
  00191	8d 8d 34 fd ff
	ff		 lea	 ecx, DWORD PTR $T533052[ebp]
  00197	ff 15 00 00 00
	00		 call	 DWORD PTR __imp_??0ioHashString@@QAE@PBD@Z
  0019d	8d 85 34 fd ff
	ff		 lea	 eax, DWORD PTR $T533052[ebp]
  001a3	53		 push	 ebx
  001a4	50		 push	 eax
  001a5	89 5d fc	 mov	 DWORD PTR __$EHRec$[ebp+8], ebx
  001a8	ff 15 00 00 00
	00		 call	 DWORD PTR __imp_?GetSingleton@ioUIImageSetManager@@SAAAV1@XZ
  001ae	8b c8		 mov	 ecx, eax
  001b0	ff 15 00 00 00
	00		 call	 DWORD PTR __imp_?CreateImageByFullName@ioUIImageSetManager@@QAEPAVioUIRenderImage@@ABVioHashString@@_N@Z
  001b6	83 4d fc ff	 or	 DWORD PTR __$EHRec$[ebp+8], -1
  001ba	8d 8d 34 fd ff
	ff		 lea	 ecx, DWORD PTR $T533052[ebp]
  001c0	89 86 60 02 00
	00		 mov	 DWORD PTR [esi+608], eax
  001c6	ff 15 00 00 00
	00		 call	 DWORD PTR __imp_??1ioHashString@@QAE@XZ
  001cc	6a 02		 push	 2

; 121  : 
; 122  : 
; 123  : 	m_ptOffSet[MAP_TITLE].x = rkLoader.LoadInt_e( "maptitle_x", 0 );

  001ce	c7 85 78 ff ff
	ff 80 8d 9b 9e	 mov	 DWORD PTR __k$533592[ebp], -1633972864 ; 9e9b8d80H
  001d8	c7 85 7c ff ff
	ff 84 98 87 8f	 mov	 DWORD PTR __k$533592[ebp+4], -1886939004 ; 8f879884H
  001e2	66 c7 45 80 b2
	94		 mov	 WORD PTR __k$533592[ebp+8], 38066 ; 000094b2H
  001e8	8d 85 78 ff ff
	ff		 lea	 eax, DWORD PTR __k$533592[ebp]
  001ee	88 5d 82	 mov	 BYTE PTR __k$533592[ebp+10], bl
  001f1	59		 pop	 ecx
$LL536@SetTimeIma:
  001f2	81 30 ed ec eb
	ea		 xor	 DWORD PTR [eax], -353637139 ; eaebecedH
  001f8	83 c0 04	 add	 eax, 4
  001fb	49		 dec	 ecx
  001fc	75 f4		 jne	 SHORT $LL536@SetTimeIma
  001fe	6a 08		 push	 8
  00200	58		 pop	 eax
$LL533@SetTimeIma:
  00201	8b c8		 mov	 ecx, eax
  00203	81 e1 03 00 00
	80		 and	 ecx, -2147483645	; 80000003H
  00209	79 05		 jns	 SHORT $LN2210@SetTimeIma
  0020b	49		 dec	 ecx
  0020c	83 c9 fc	 or	 ecx, -4			; fffffffcH
  0020f	41		 inc	 ecx
$LN2210@SetTimeIma:
  00210	b2 ed		 mov	 dl, -19			; ffffffedH
  00212	2a d1		 sub	 dl, cl
  00214	30 94 05 78 ff
	ff ff		 xor	 BYTE PTR __k$533592[ebp+eax], dl
  0021b	40		 inc	 eax
  0021c	83 f8 0a	 cmp	 eax, 10			; 0000000aH
  0021f	7c e0		 jl	 SHORT $LL533@SetTimeIma
  00221	8b 8d 84 fd ff
	ff		 mov	 ecx, DWORD PTR _rkLoader$GSCopy$[ebp]
  00227	53		 push	 ebx
  00228	8d 85 78 ff ff
	ff		 lea	 eax, DWORD PTR __k$533592[ebp]
  0022e	50		 push	 eax
  0022f	ff d7		 call	 edi
  00231	89 86 c8 02 00
	00		 mov	 DWORD PTR [esi+712], eax
  00237	6a 02		 push	 2

; 124  : 	m_ptOffSet[MAP_TITLE].y = rkLoader.LoadInt_e( "maptitle_y", 0 );

  00239	c7 45 c8 80 8d
	9b 9e		 mov	 DWORD PTR __k$533717[ebp], -1633972864 ; 9e9b8d80H
  00240	c7 45 cc 84 98
	87 8f		 mov	 DWORD PTR __k$533717[ebp+4], -1886939004 ; 8f879884H
  00247	66 c7 45 d0 b2
	95		 mov	 WORD PTR __k$533717[ebp+8], 38322 ; 000095b2H
  0024d	8d 45 c8	 lea	 eax, DWORD PTR __k$533717[ebp]
  00250	88 5d d2	 mov	 BYTE PTR __k$533717[ebp+10], bl
  00253	59		 pop	 ecx
$LL642@SetTimeIma:
  00254	81 30 ed ec eb
	ea		 xor	 DWORD PTR [eax], -353637139 ; eaebecedH
  0025a	83 c0 04	 add	 eax, 4
  0025d	49		 dec	 ecx
  0025e	75 f4		 jne	 SHORT $LL642@SetTimeIma
  00260	6a 08		 push	 8
  00262	58		 pop	 eax
$LL639@SetTimeIma:
  00263	8b c8		 mov	 ecx, eax
  00265	81 e1 03 00 00
	80		 and	 ecx, -2147483645	; 80000003H
  0026b	79 05		 jns	 SHORT $LN2211@SetTimeIma
  0026d	49		 dec	 ecx
  0026e	83 c9 fc	 or	 ecx, -4			; fffffffcH
  00271	41		 inc	 ecx
$LN2211@SetTimeIma:
  00272	b2 ed		 mov	 dl, -19			; ffffffedH
  00274	2a d1		 sub	 dl, cl
  00276	30 54 05 c8	 xor	 BYTE PTR __k$533717[ebp+eax], dl
  0027a	40		 inc	 eax
  0027b	83 f8 0a	 cmp	 eax, 10			; 0000000aH
  0027e	7c e3		 jl	 SHORT $LL639@SetTimeIma
  00280	8b 8d 84 fd ff
	ff		 mov	 ecx, DWORD PTR _rkLoader$GSCopy$[ebp]
  00286	53		 push	 ebx
  00287	8d 45 c8	 lea	 eax, DWORD PTR __k$533717[ebp]
  0028a	50		 push	 eax
  0028b	ff d7		 call	 edi
  0028d	89 86 cc 02 00
	00		 mov	 DWORD PTR [esi+716], eax
  00293	6a 02		 push	 2

; 125  : 
; 126  : 	rkLoader.LoadString_e( "maptitle", "", szBuf, MAX_PATH );

  00295	c7 85 8c fe ff
	ff 80 8d 9b 9e	 mov	 DWORD PTR __k$533877[ebp], -1633972864 ; 9e9b8d80H
  0029f	c7 85 90 fe ff
	ff 84 98 87 8f	 mov	 DWORD PTR __k$533877[ebp+4], -1886939004 ; 8f879884H
  002a9	8d 85 8c fe ff
	ff		 lea	 eax, DWORD PTR __k$533877[ebp]
  002af	88 9d 94 fe ff
	ff		 mov	 BYTE PTR __k$533877[ebp+8], bl
  002b5	59		 pop	 ecx
$LL748@SetTimeIma:
  002b6	81 30 ed ec eb
	ea		 xor	 DWORD PTR [eax], -353637139 ; eaebecedH
  002bc	83 c0 04	 add	 eax, 4
  002bf	49		 dec	 ecx
  002c0	75 f4		 jne	 SHORT $LL748@SetTimeIma
  002c2	8b 8d 84 fd ff
	ff		 mov	 ecx, DWORD PTR _rkLoader$GSCopy$[ebp]
  002c8	68 04 01 00 00	 push	 260			; 00000104H
  002cd	8d 85 88 fd ff
	ff		 lea	 eax, DWORD PTR _szBuf$[ebp]
  002d3	50		 push	 eax
  002d4	68 00 00 00 00	 push	 OFFSET ??_C@_00CNPNBAHC@?$AA@
  002d9	8d 85 8c fe ff
	ff		 lea	 eax, DWORD PTR __k$533877[ebp]
  002df	50		 push	 eax
  002e0	ff 15 00 00 00
	00		 call	 DWORD PTR __imp_?LoadStringA@ioINILoader@@QAEXPBD0PADH@Z

; 127  : 	m_pExtraImg[MAP_TITLE] = g_UIImageSetMgr.CreateImageByFullName(szBuf);

  002e6	8d 85 88 fd ff
	ff		 lea	 eax, DWORD PTR _szBuf$[ebp]
  002ec	50		 push	 eax
  002ed	8d 8d 64 fd ff
	ff		 lea	 ecx, DWORD PTR $T533053[ebp]
  002f3	ff 15 00 00 00
	00		 call	 DWORD PTR __imp_??0ioHashString@@QAE@PBD@Z
  002f9	8d 85 64 fd ff
	ff		 lea	 eax, DWORD PTR $T533053[ebp]
  002ff	53		 push	 ebx
  00300	50		 push	 eax
  00301	c7 45 fc 01 00
	00 00		 mov	 DWORD PTR __$EHRec$[ebp+8], 1
  00308	ff 15 00 00 00
	00		 call	 DWORD PTR __imp_?GetSingleton@ioUIImageSetManager@@SAAAV1@XZ
  0030e	8b c8		 mov	 ecx, eax
  00310	ff 15 00 00 00
	00		 call	 DWORD PTR __imp_?CreateImageByFullName@ioUIImageSetManager@@QAEPAVioUIRenderImage@@ABVioHashString@@_N@Z
  00316	83 4d fc ff	 or	 DWORD PTR __$EHRec$[ebp+8], -1
  0031a	8d 8d 64 fd ff
	ff		 lea	 ecx, DWORD PTR $T533053[ebp]
  00320	89 86 64 02 00
	00		 mov	 DWORD PTR [esi+612], eax
  00326	ff 15 00 00 00
	00		 call	 DWORD PTR __imp_??1ioHashString@@QAE@XZ
  0032c	6a 03		 push	 3

; 128  : 
; 129  : 	m_ptOffSet[MAP_DIFFICULTY].x = rkLoader.LoadInt_e( "mapdifficulty_x", 0 );

  0032e	c7 85 20 ff ff
	ff 80 8d 9b 8e	 mov	 DWORD PTR __k$533954[ebp], -1902408320 ; 8e9b8d80H
  00338	c7 85 24 ff ff
	ff 84 8a 8d 83	 mov	 DWORD PTR __k$533954[ebp+4], -2087875964 ; 838d8a84H
  00342	c7 85 28 ff ff
	ff 8e 99 87 9e	 mov	 DWORD PTR __k$533954[ebp+8], -1635280498 ; 9e87998eH
  0034c	8d 85 20 ff ff
	ff		 lea	 eax, DWORD PTR __k$533954[ebp]
  00352	c7 85 2c ff ff
	ff 94 b3 93 00	 mov	 DWORD PTR __k$533954[ebp+12], 9679764 ; 0093b394H
  0035c	59		 pop	 ecx
$LL854@SetTimeIma:
  0035d	81 30 ed ec eb
	ea		 xor	 DWORD PTR [eax], -353637139 ; eaebecedH
  00363	83 c0 04	 add	 eax, 4
  00366	49		 dec	 ecx
  00367	75 f4		 jne	 SHORT $LL854@SetTimeIma
  00369	6a 0c		 push	 12			; 0000000cH
  0036b	58		 pop	 eax
$LL851@SetTimeIma:
  0036c	8b c8		 mov	 ecx, eax
  0036e	81 e1 03 00 00
	80		 and	 ecx, -2147483645	; 80000003H
  00374	79 05		 jns	 SHORT $LN2212@SetTimeIma
  00376	49		 dec	 ecx
  00377	83 c9 fc	 or	 ecx, -4			; fffffffcH
  0037a	41		 inc	 ecx
$LN2212@SetTimeIma:
  0037b	b2 ed		 mov	 dl, -19			; ffffffedH
  0037d	2a d1		 sub	 dl, cl
  0037f	30 94 05 20 ff
	ff ff		 xor	 BYTE PTR __k$533954[ebp+eax], dl
  00386	40		 inc	 eax
  00387	83 f8 0f	 cmp	 eax, 15			; 0000000fH
  0038a	7c e0		 jl	 SHORT $LL851@SetTimeIma
  0038c	8b 8d 84 fd ff
	ff		 mov	 ecx, DWORD PTR _rkLoader$GSCopy$[ebp]
  00392	53		 push	 ebx
  00393	8d 85 20 ff ff
	ff		 lea	 eax, DWORD PTR __k$533954[ebp]
  00399	50		 push	 eax
  0039a	ff d7		 call	 edi
  0039c	89 86 d0 02 00
	00		 mov	 DWORD PTR [esi+720], eax
  003a2	6a 03		 push	 3

; 130  : 	m_ptOffSet[MAP_DIFFICULTY].y = rkLoader.LoadInt_e( "mapdifficulty_y", 0 );

  003a4	c7 85 34 ff ff
	ff 80 8d 9b 8e	 mov	 DWORD PTR __k$534079[ebp], -1902408320 ; 8e9b8d80H
  003ae	c7 85 38 ff ff
	ff 84 8a 8d 83	 mov	 DWORD PTR __k$534079[ebp+4], -2087875964 ; 838d8a84H
  003b8	c7 85 3c ff ff
	ff 8e 99 87 9e	 mov	 DWORD PTR __k$534079[ebp+8], -1635280498 ; 9e87998eH
  003c2	8d 85 34 ff ff
	ff		 lea	 eax, DWORD PTR __k$534079[ebp]
  003c8	c7 85 40 ff ff
	ff 94 b3 92 00	 mov	 DWORD PTR __k$534079[ebp+12], 9614228 ; 0092b394H
  003d2	59		 pop	 ecx
$LL960@SetTimeIma:
  003d3	81 30 ed ec eb
	ea		 xor	 DWORD PTR [eax], -353637139 ; eaebecedH
  003d9	83 c0 04	 add	 eax, 4
  003dc	49		 dec	 ecx
  003dd	75 f4		 jne	 SHORT $LL960@SetTimeIma
  003df	6a 0c		 push	 12			; 0000000cH
  003e1	58		 pop	 eax
$LL957@SetTimeIma:
  003e2	8b c8		 mov	 ecx, eax
  003e4	81 e1 03 00 00
	80		 and	 ecx, -2147483645	; 80000003H
  003ea	79 05		 jns	 SHORT $LN2213@SetTimeIma
  003ec	49		 dec	 ecx
  003ed	83 c9 fc	 or	 ecx, -4			; fffffffcH
  003f0	41		 inc	 ecx
$LN2213@SetTimeIma:
  003f1	b2 ed		 mov	 dl, -19			; ffffffedH
  003f3	2a d1		 sub	 dl, cl
  003f5	30 94 05 34 ff
	ff ff		 xor	 BYTE PTR __k$534079[ebp+eax], dl
  003fc	40		 inc	 eax
  003fd	83 f8 0f	 cmp	 eax, 15			; 0000000fH
  00400	7c e0		 jl	 SHORT $LL957@SetTimeIma
  00402	8b 8d 84 fd ff
	ff		 mov	 ecx, DWORD PTR _rkLoader$GSCopy$[ebp]
  00408	53		 push	 ebx
  00409	8d 85 34 ff ff
	ff		 lea	 eax, DWORD PTR __k$534079[ebp]
  0040f	50		 push	 eax
  00410	ff d7		 call	 edi
  00412	89 86 d4 02 00
	00		 mov	 DWORD PTR [esi+724], eax
  00418	6a 03		 push	 3

; 131  : 
; 132  : 	rkLoader.LoadString_e( "mapdifficulty", "", szBuf, MAX_PATH );

  0041a	c7 85 ec fe ff
	ff 80 8d 9b 8e	 mov	 DWORD PTR __k$534204[ebp], -1902408320 ; 8e9b8d80H
  00424	c7 85 f0 fe ff
	ff 84 8a 8d 83	 mov	 DWORD PTR __k$534204[ebp+4], -2087875964 ; 838d8a84H
  0042e	c7 85 f4 fe ff
	ff 8e 99 87 9e	 mov	 DWORD PTR __k$534204[ebp+8], -1635280498 ; 9e87998eH
  00438	8d 85 ec fe ff
	ff		 lea	 eax, DWORD PTR __k$534204[ebp]
  0043e	66 c7 85 f8 fe
	ff ff 94 00	 mov	 WORD PTR __k$534204[ebp+12], 148 ; 00000094H
  00447	59		 pop	 ecx
$LL1066@SetTimeIma:
  00448	81 30 ed ec eb
	ea		 xor	 DWORD PTR [eax], -353637139 ; eaebecedH
  0044e	83 c0 04	 add	 eax, 4
  00451	49		 dec	 ecx
  00452	75 f4		 jne	 SHORT $LL1066@SetTimeIma
  00454	8b 8d 84 fd ff
	ff		 mov	 ecx, DWORD PTR _rkLoader$GSCopy$[ebp]
  0045a	80 b5 f8 fe ff
	ff ed		 xor	 BYTE PTR __k$534204[ebp+12], -19 ; ffffffedH
  00461	68 04 01 00 00	 push	 260			; 00000104H
  00466	8d 85 88 fd ff
	ff		 lea	 eax, DWORD PTR _szBuf$[ebp]
  0046c	50		 push	 eax
  0046d	68 00 00 00 00	 push	 OFFSET ??_C@_00CNPNBAHC@?$AA@
  00472	8d 85 ec fe ff
	ff		 lea	 eax, DWORD PTR __k$534204[ebp]
  00478	50		 push	 eax
  00479	ff 15 00 00 00
	00		 call	 DWORD PTR __imp_?LoadStringA@ioINILoader@@QAEXPBD0PADH@Z

; 133  : 	m_pExtraImg[MAP_DIFFICULTY] = g_UIImageSetMgr.CreateImageByFullName(szBuf);

  0047f	8d 85 88 fd ff
	ff		 lea	 eax, DWORD PTR _szBuf$[ebp]
  00485	50		 push	 eax
  00486	8d 8d 44 fd ff
	ff		 lea	 ecx, DWORD PTR $T533054[ebp]
  0048c	ff 15 00 00 00
	00		 call	 DWORD PTR __imp_??0ioHashString@@QAE@PBD@Z
  00492	8d 85 44 fd ff
	ff		 lea	 eax, DWORD PTR $T533054[ebp]
  00498	53		 push	 ebx
  00499	50		 push	 eax
  0049a	c7 45 fc 02 00
	00 00		 mov	 DWORD PTR __$EHRec$[ebp+8], 2
  004a1	ff 15 00 00 00
	00		 call	 DWORD PTR __imp_?GetSingleton@ioUIImageSetManager@@SAAAV1@XZ
  004a7	8b c8		 mov	 ecx, eax
  004a9	ff 15 00 00 00
	00		 call	 DWORD PTR __imp_?CreateImageByFullName@ioUIImageSetManager@@QAEPAVioUIRenderImage@@ABVioHashString@@_N@Z
  004af	83 4d fc ff	 or	 DWORD PTR __$EHRec$[ebp+8], -1
  004b3	8d 8d 44 fd ff
	ff		 lea	 ecx, DWORD PTR $T533054[ebp]
  004b9	89 86 68 02 00
	00		 mov	 DWORD PTR [esi+616], eax
  004bf	ff 15 00 00 00
	00		 call	 DWORD PTR __imp_??1ioHashString@@QAE@XZ
  004c5	6a 02		 push	 2

; 134  : 
; 135  : 
; 136  : 	m_ptOffSet[TIME_NUMBER].x = rkLoader.LoadInt_e( "timenum_x", 0 );

  004c7	c7 45 88 99 85
	86 8f		 mov	 DWORD PTR __k$534329[ebp], -1887009383 ; 8f868599H
  004ce	c7 45 8c 83 99
	86 b5		 mov	 DWORD PTR __k$534329[ebp+4], -1249470077 ; b5869983H
  004d5	8d 45 88	 lea	 eax, DWORD PTR __k$534329[ebp]
  004d8	66 c7 45 90 95
	00		 mov	 WORD PTR __k$534329[ebp+8], 149 ; 00000095H
  004de	59		 pop	 ecx
$LL1172@SetTimeIma:
  004df	81 30 ed ec eb
	ea		 xor	 DWORD PTR [eax], -353637139 ; eaebecedH
  004e5	83 c0 04	 add	 eax, 4
  004e8	49		 dec	 ecx
  004e9	75 f4		 jne	 SHORT $LL1172@SetTimeIma
  004eb	8b 8d 84 fd ff
	ff		 mov	 ecx, DWORD PTR _rkLoader$GSCopy$[ebp]
  004f1	80 75 90 ed	 xor	 BYTE PTR __k$534329[ebp+8], -19 ; ffffffedH
  004f5	53		 push	 ebx
  004f6	8d 45 88	 lea	 eax, DWORD PTR __k$534329[ebp]
  004f9	50		 push	 eax
  004fa	ff d7		 call	 edi
  004fc	89 86 d8 02 00
	00		 mov	 DWORD PTR [esi+728], eax
  00502	6a 02		 push	 2

; 137  : 	m_ptOffSet[TIME_NUMBER].y = rkLoader.LoadInt_e( "timenum_y", 0 );

  00504	c7 85 10 ff ff
	ff 99 85 86 8f	 mov	 DWORD PTR __k$534454[ebp], -1887009383 ; 8f868599H
  0050e	c7 85 14 ff ff
	ff 83 99 86 b5	 mov	 DWORD PTR __k$534454[ebp+4], -1249470077 ; b5869983H
  00518	8d 85 10 ff ff
	ff		 lea	 eax, DWORD PTR __k$534454[ebp]
  0051e	66 c7 85 18 ff
	ff ff 94 00	 mov	 WORD PTR __k$534454[ebp+8], 148 ; 00000094H
  00527	59		 pop	 ecx
$LL1278@SetTimeIma:
  00528	81 30 ed ec eb
	ea		 xor	 DWORD PTR [eax], -353637139 ; eaebecedH
  0052e	83 c0 04	 add	 eax, 4
  00531	49		 dec	 ecx
  00532	75 f4		 jne	 SHORT $LL1278@SetTimeIma
  00534	8b 8d 84 fd ff
	ff		 mov	 ecx, DWORD PTR _rkLoader$GSCopy$[ebp]
  0053a	80 b5 18 ff ff
	ff ed		 xor	 BYTE PTR __k$534454[ebp+8], -19 ; ffffffedH
  00541	53		 push	 ebx
  00542	8d 85 10 ff ff
	ff		 lea	 eax, DWORD PTR __k$534454[ebp]
  00548	50		 push	 eax
  00549	ff d7		 call	 edi
  0054b	89 86 dc 02 00
	00		 mov	 DWORD PTR [esi+732], eax

; 138  : 
; 139  : 	rkLoader.LoadString_e( "timenum", "BaseImage_Defense003#timeui_easy_num", szBuf, MAX_PATH );

  00551	6a 04		 push	 4
  00553	c7 45 d8 99 85
	86 8f		 mov	 DWORD PTR __k$534615[ebp], -1887009383 ; 8f868599H
  0055a	81 75 d8 ed ec
	eb ea		 xor	 DWORD PTR __k$534615[ebp], -353637139 ; eaebecedH
  00561	c7 45 dc 83 99
	86 00		 mov	 DWORD PTR __k$534615[ebp+4], 8821123 ; 00869983H
  00568	58		 pop	 eax
$LL1477@SetTimeIma:
  00569	8b c8		 mov	 ecx, eax
  0056b	81 e1 03 00 00
	80		 and	 ecx, -2147483645	; 80000003H
  00571	79 05		 jns	 SHORT $LN2214@SetTimeIma
  00573	49		 dec	 ecx
  00574	83 c9 fc	 or	 ecx, -4			; fffffffcH
  00577	41		 inc	 ecx
$LN2214@SetTimeIma:
  00578	b2 ed		 mov	 dl, -19			; ffffffedH
  0057a	2a d1		 sub	 dl, cl
  0057c	30 54 05 d8	 xor	 BYTE PTR __k$534615[ebp+eax], dl
  00580	40		 inc	 eax
  00581	83 f8 07	 cmp	 eax, 7
  00584	7c e3		 jl	 SHORT $LL1477@SetTimeIma
  00586	6a 09		 push	 9
  00588	c7 85 c0 fe ff
	ff af 8d 98 8f	 mov	 DWORD PTR __d$534712[ebp], -1885827665 ; 8f988dafH
  00592	c7 85 c4 fe ff
	ff a4 81 8a 8d	 mov	 DWORD PTR __d$534712[ebp+4], -1920302684 ; 8d8a81a4H
  0059c	c7 85 c8 fe ff
	ff 88 b3 af 8f	 mov	 DWORD PTR __d$534712[ebp+8], -1884310648 ; 8fafb388H
  005a6	c7 85 cc fe ff
	ff 8b 89 85 99	 mov	 DWORD PTR __d$534712[ebp+12], -1719301749 ; 9985898bH
  005b0	c7 85 d0 fe ff
	ff 88 dc db d9	 mov	 DWORD PTR __d$534712[ebp+16], -639902584 ; d9dbdc88H
  005ba	c7 85 d4 fe ff
	ff ce 98 82 87	 mov	 DWORD PTR __d$534712[ebp+20], -2021484338 ; 878298ceH
  005c4	c7 85 d8 fe ff
	ff 88 99 82 b5	 mov	 DWORD PTR __d$534712[ebp+24], -1249732216 ; b5829988H
  005ce	c7 85 dc fe ff
	ff 88 8d 98 93	 mov	 DWORD PTR __d$534712[ebp+28], -1818718840 ; 93988d88H
  005d8	c7 85 e0 fe ff
	ff b2 82 9e 87	 mov	 DWORD PTR __d$534712[ebp+32], -2019654990 ; 879e82b2H
  005e2	8d 85 c0 fe ff
	ff		 lea	 eax, DWORD PTR __d$534712[ebp]
  005e8	88 9d e4 fe ff
	ff		 mov	 BYTE PTR __d$534712[ebp+36], bl
  005ee	59		 pop	 ecx
$LL1488@SetTimeIma:
  005ef	81 30 ed ec eb
	ea		 xor	 DWORD PTR [eax], -353637139 ; eaebecedH
  005f5	83 c0 04	 add	 eax, 4
  005f8	49		 dec	 ecx
  005f9	75 f4		 jne	 SHORT $LL1488@SetTimeIma
  005fb	8b 8d 84 fd ff
	ff		 mov	 ecx, DWORD PTR _rkLoader$GSCopy$[ebp]
  00601	68 04 01 00 00	 push	 260			; 00000104H
  00606	8d 85 88 fd ff
	ff		 lea	 eax, DWORD PTR _szBuf$[ebp]
  0060c	50		 push	 eax
  0060d	8d 85 c0 fe ff
	ff		 lea	 eax, DWORD PTR __d$534712[ebp]
  00613	50		 push	 eax
  00614	8d 45 d8	 lea	 eax, DWORD PTR __k$534615[ebp]
  00617	50		 push	 eax
  00618	ff 15 00 00 00
	00		 call	 DWORD PTR __imp_?LoadStringA@ioINILoader@@QAEXPBD0PADH@Z

; 140  : 	m_pExtraImg[TIME_NUMBER] = g_UIImageSetMgr.CreateImageByFullName(szBuf);

  0061e	8d 85 88 fd ff
	ff		 lea	 eax, DWORD PTR _szBuf$[ebp]
  00624	50		 push	 eax
  00625	8d 8d 74 fd ff
	ff		 lea	 ecx, DWORD PTR $T533055[ebp]
  0062b	ff 15 00 00 00
	00		 call	 DWORD PTR __imp_??0ioHashString@@QAE@PBD@Z
  00631	8d 85 74 fd ff
	ff		 lea	 eax, DWORD PTR $T533055[ebp]
  00637	53		 push	 ebx
  00638	50		 push	 eax
  00639	c7 45 fc 03 00
	00 00		 mov	 DWORD PTR __$EHRec$[ebp+8], 3
  00640	ff 15 00 00 00
	00		 call	 DWORD PTR __imp_?GetSingleton@ioUIImageSetManager@@SAAAV1@XZ
  00646	8b c8		 mov	 ecx, eax
  00648	ff 15 00 00 00
	00		 call	 DWORD PTR __imp_?CreateImageByFullName@ioUIImageSetManager@@QAEPAVioUIRenderImage@@ABVioHashString@@_N@Z
  0064e	83 4d fc ff	 or	 DWORD PTR __$EHRec$[ebp+8], -1
  00652	8d 8d 74 fd ff
	ff		 lea	 ecx, DWORD PTR $T533055[ebp]
  00658	89 86 6c 02 00
	00		 mov	 DWORD PTR [esi+620], eax
  0065e	ff 15 00 00 00
	00		 call	 DWORD PTR __imp_??1ioHashString@@QAE@XZ
  00664	6a 02		 push	 2

; 141  : 
; 142  : 	m_ptOffSet[TIME_COLON].x = rkLoader.LoadInt_e( "timecolon_x", 0 );

  00666	c7 85 58 ff ff
	ff 99 85 86 8f	 mov	 DWORD PTR __k$534837[ebp], -1887009383 ; 8f868599H
  00670	c7 85 5c ff ff
	ff 8e 83 87 85	 mov	 DWORD PTR __k$534837[ebp+4], -2054716530 ; 8587838eH
  0067a	8d 85 58 ff ff
	ff		 lea	 eax, DWORD PTR __k$534837[ebp]
  00680	c7 85 60 ff ff
	ff 83 b3 93 00	 mov	 DWORD PTR __k$534837[ebp+8], 9679747 ; 0093b383H
  0068a	59		 pop	 ecx
$LL1594@SetTimeIma:
  0068b	81 30 ed ec eb
	ea		 xor	 DWORD PTR [eax], -353637139 ; eaebecedH
  00691	83 c0 04	 add	 eax, 4
  00694	49		 dec	 ecx
  00695	75 f4		 jne	 SHORT $LL1594@SetTimeIma
  00697	6a 08		 push	 8
  00699	58		 pop	 eax
$LL1591@SetTimeIma:
  0069a	8b c8		 mov	 ecx, eax
  0069c	81 e1 03 00 00
	80		 and	 ecx, -2147483645	; 80000003H
  006a2	79 05		 jns	 SHORT $LN2215@SetTimeIma
  006a4	49		 dec	 ecx
  006a5	83 c9 fc	 or	 ecx, -4			; fffffffcH
  006a8	41		 inc	 ecx
$LN2215@SetTimeIma:
  006a9	b2 ed		 mov	 dl, -19			; ffffffedH
  006ab	2a d1		 sub	 dl, cl
  006ad	30 94 05 58 ff
	ff ff		 xor	 BYTE PTR __k$534837[ebp+eax], dl
  006b4	40		 inc	 eax
  006b5	83 f8 0b	 cmp	 eax, 11			; 0000000bH
  006b8	7c e0		 jl	 SHORT $LL1591@SetTimeIma
  006ba	8b 8d 84 fd ff
	ff		 mov	 ecx, DWORD PTR _rkLoader$GSCopy$[ebp]
  006c0	53		 push	 ebx
  006c1	8d 85 58 ff ff
	ff		 lea	 eax, DWORD PTR __k$534837[ebp]
  006c7	50		 push	 eax
  006c8	ff d7		 call	 edi
  006ca	89 86 e0 02 00
	00		 mov	 DWORD PTR [esi+736], eax
  006d0	6a 02		 push	 2

; 143  : 	m_ptOffSet[TIME_COLON].y = rkLoader.LoadInt_e( "timecolon_y", 0 );

  006d2	c7 45 b8 99 85
	86 8f		 mov	 DWORD PTR __k$534962[ebp], -1887009383 ; 8f868599H
  006d9	c7 45 bc 8e 83
	87 85		 mov	 DWORD PTR __k$534962[ebp+4], -2054716530 ; 8587838eH
  006e0	8d 45 b8	 lea	 eax, DWORD PTR __k$534962[ebp]
  006e3	c7 45 c0 83 b3
	92 00		 mov	 DWORD PTR __k$534962[ebp+8], 9614211 ; 0092b383H
  006ea	59		 pop	 ecx
$LL1700@SetTimeIma:
  006eb	81 30 ed ec eb
	ea		 xor	 DWORD PTR [eax], -353637139 ; eaebecedH
  006f1	83 c0 04	 add	 eax, 4
  006f4	49		 dec	 ecx
  006f5	75 f4		 jne	 SHORT $LL1700@SetTimeIma
  006f7	6a 08		 push	 8
  006f9	58		 pop	 eax
$LL1697@SetTimeIma:
  006fa	8b c8		 mov	 ecx, eax
  006fc	81 e1 03 00 00
	80		 and	 ecx, -2147483645	; 80000003H
  00702	79 05		 jns	 SHORT $LN2216@SetTimeIma
  00704	49		 dec	 ecx
  00705	83 c9 fc	 or	 ecx, -4			; fffffffcH
  00708	41		 inc	 ecx
$LN2216@SetTimeIma:
  00709	b2 ed		 mov	 dl, -19			; ffffffedH
  0070b	2a d1		 sub	 dl, cl
  0070d	30 54 05 b8	 xor	 BYTE PTR __k$534962[ebp+eax], dl
  00711	40		 inc	 eax
  00712	83 f8 0b	 cmp	 eax, 11			; 0000000bH
  00715	7c e3		 jl	 SHORT $LL1697@SetTimeIma
  00717	8b 8d 84 fd ff
	ff		 mov	 ecx, DWORD PTR _rkLoader$GSCopy$[ebp]
  0071d	53		 push	 ebx
  0071e	8d 45 b8	 lea	 eax, DWORD PTR __k$534962[ebp]
  00721	50		 push	 eax
  00722	ff d7		 call	 edi
  00724	89 86 e4 02 00
	00		 mov	 DWORD PTR [esi+740], eax
  0072a	6a 02		 push	 2

; 144  : 
; 145  : 	rkLoader.LoadString_e( "timecolon", "", szBuf, MAX_PATH );

  0072c	c7 85 68 ff ff
	ff 99 85 86 8f	 mov	 DWORD PTR __k$535133[ebp], -1887009383 ; 8f868599H
  00736	c7 85 6c ff ff
	ff 8e 83 87 85	 mov	 DWORD PTR __k$535133[ebp+4], -2054716530 ; 8587838eH
  00740	8d 85 68 ff ff
	ff		 lea	 eax, DWORD PTR __k$535133[ebp]
  00746	66 c7 85 70 ff
	ff ff 83 00	 mov	 WORD PTR __k$535133[ebp+8], 131 ; 00000083H
  0074f	59		 pop	 ecx
$LL1806@SetTimeIma:
  00750	81 30 ed ec eb
	ea		 xor	 DWORD PTR [eax], -353637139 ; eaebecedH
  00756	83 c0 04	 add	 eax, 4
  00759	49		 dec	 ecx
  0075a	75 f4		 jne	 SHORT $LL1806@SetTimeIma
  0075c	8b 8d 84 fd ff
	ff		 mov	 ecx, DWORD PTR _rkLoader$GSCopy$[ebp]
  00762	80 b5 70 ff ff
	ff ed		 xor	 BYTE PTR __k$535133[ebp+8], -19 ; ffffffedH
  00769	68 04 01 00 00	 push	 260			; 00000104H
  0076e	8d 85 88 fd ff
	ff		 lea	 eax, DWORD PTR _szBuf$[ebp]
  00774	50		 push	 eax
  00775	68 00 00 00 00	 push	 OFFSET ??_C@_00CNPNBAHC@?$AA@
  0077a	8d 85 68 ff ff
	ff		 lea	 eax, DWORD PTR __k$535133[ebp]
  00780	50		 push	 eax
  00781	ff 15 00 00 00
	00		 call	 DWORD PTR __imp_?LoadStringA@ioINILoader@@QAEXPBD0PADH@Z

; 146  : 	m_pExtraImg[TIME_COLON] = g_UIImageSetMgr.CreateImageByFullName(szBuf);

  00787	8d 85 88 fd ff
	ff		 lea	 eax, DWORD PTR _szBuf$[ebp]
  0078d	50		 push	 eax
  0078e	8d 8d 54 fd ff
	ff		 lea	 ecx, DWORD PTR $T533056[ebp]
  00794	ff 15 00 00 00
	00		 call	 DWORD PTR __imp_??0ioHashString@@QAE@PBD@Z
  0079a	8d 85 54 fd ff
	ff		 lea	 eax, DWORD PTR $T533056[ebp]
  007a0	53		 push	 ebx
  007a1	50		 push	 eax
  007a2	c7 45 fc 04 00
	00 00		 mov	 DWORD PTR __$EHRec$[ebp+8], 4
  007a9	ff 15 00 00 00
	00		 call	 DWORD PTR __imp_?GetSingleton@ioUIImageSetManager@@SAAAV1@XZ
  007af	8b c8		 mov	 ecx, eax
  007b1	ff 15 00 00 00
	00		 call	 DWORD PTR __imp_?CreateImageByFullName@ioUIImageSetManager@@QAEPAVioUIRenderImage@@ABVioHashString@@_N@Z
  007b7	83 4d fc ff	 or	 DWORD PTR __$EHRec$[ebp+8], -1
  007bb	8d 8d 54 fd ff
	ff		 lea	 ecx, DWORD PTR $T533056[ebp]
  007c1	89 86 70 02 00
	00		 mov	 DWORD PTR [esi+624], eax
  007c7	ff 15 00 00 00
	00		 call	 DWORD PTR __imp_??1ioHashString@@QAE@XZ
  007cd	6a 02		 push	 2

; 147  : 
; 148  : 	m_ptOffSet[TIME_DOT].x = rkLoader.LoadInt_e( "timedot_x", 0 );

  007cf	c7 85 00 ff ff
	ff 99 85 86 8f	 mov	 DWORD PTR __k$535199[ebp], -1887009383 ; 8f868599H
  007d9	c7 85 04 ff ff
	ff 89 83 9f b5	 mov	 DWORD PTR __k$535199[ebp+4], -1247837303 ; b59f8389H
  007e3	8d 85 00 ff ff
	ff		 lea	 eax, DWORD PTR __k$535199[ebp]
  007e9	66 c7 85 08 ff
	ff ff 95 00	 mov	 WORD PTR __k$535199[ebp+8], 149 ; 00000095H
  007f2	59		 pop	 ecx
$LL1912@SetTimeIma:
  007f3	81 30 ed ec eb
	ea		 xor	 DWORD PTR [eax], -353637139 ; eaebecedH
  007f9	83 c0 04	 add	 eax, 4
  007fc	49		 dec	 ecx
  007fd	75 f4		 jne	 SHORT $LL1912@SetTimeIma
  007ff	8b 8d 84 fd ff
	ff		 mov	 ecx, DWORD PTR _rkLoader$GSCopy$[ebp]
  00805	80 b5 08 ff ff
	ff ed		 xor	 BYTE PTR __k$535199[ebp+8], -19 ; ffffffedH
  0080c	53		 push	 ebx
  0080d	8d 85 00 ff ff
	ff		 lea	 eax, DWORD PTR __k$535199[ebp]
  00813	50		 push	 eax
  00814	ff d7		 call	 edi
  00816	89 86 e8 02 00
	00		 mov	 DWORD PTR [esi+744], eax
  0081c	6a 02		 push	 2

; 149  : 	m_ptOffSet[TIME_DOT].y = rkLoader.LoadInt_e( "timedot_y", 0 );

  0081e	c7 85 48 ff ff
	ff 99 85 86 8f	 mov	 DWORD PTR __k$535324[ebp], -1887009383 ; 8f868599H
  00828	c7 85 4c ff ff
	ff 89 83 9f b5	 mov	 DWORD PTR __k$535324[ebp+4], -1247837303 ; b59f8389H
  00832	8d 85 48 ff ff
	ff		 lea	 eax, DWORD PTR __k$535324[ebp]
  00838	66 c7 85 50 ff
	ff ff 94 00	 mov	 WORD PTR __k$535324[ebp+8], 148 ; 00000094H
  00841	59		 pop	 ecx
$LL2018@SetTimeIma:
  00842	81 30 ed ec eb
	ea		 xor	 DWORD PTR [eax], -353637139 ; eaebecedH
  00848	83 c0 04	 add	 eax, 4
  0084b	49		 dec	 ecx
  0084c	75 f4		 jne	 SHORT $LL2018@SetTimeIma
  0084e	8b 8d 84 fd ff
	ff		 mov	 ecx, DWORD PTR _rkLoader$GSCopy$[ebp]
  00854	80 b5 50 ff ff
	ff ed		 xor	 BYTE PTR __k$535324[ebp+8], -19 ; ffffffedH
  0085b	53		 push	 ebx
  0085c	8d 85 48 ff ff
	ff		 lea	 eax, DWORD PTR __k$535324[ebp]
  00862	50		 push	 eax
  00863	ff d7		 call	 edi
  00865	89 86 ec 02 00
	00		 mov	 DWORD PTR [esi+748], eax

; 150  : 
; 151  : 	rkLoader.LoadString_e( "timedot", "", szBuf, MAX_PATH );

  0086b	6a 04		 push	 4
  0086d	c7 45 e4 99 85
	86 8f		 mov	 DWORD PTR __k$535449[ebp], -1887009383 ; 8f868599H
  00874	81 75 e4 ed ec
	eb ea		 xor	 DWORD PTR __k$535449[ebp], -353637139 ; eaebecedH
  0087b	c7 45 e8 89 83
	9f 00		 mov	 DWORD PTR __k$535449[ebp+4], 10453897 ; 009f8389H
  00882	5f		 pop	 edi
$LL2121@SetTimeIma:
  00883	8b c7		 mov	 eax, edi
  00885	25 03 00 00 80	 and	 eax, -2147483645	; 80000003H
  0088a	79 05		 jns	 SHORT $LN2217@SetTimeIma
  0088c	48		 dec	 eax
  0088d	83 c8 fc	 or	 eax, -4			; fffffffcH
  00890	40		 inc	 eax
$LN2217@SetTimeIma:
  00891	b1 ed		 mov	 cl, -19			; ffffffedH
  00893	2a c8		 sub	 cl, al
  00895	30 4c 3d e4	 xor	 BYTE PTR __k$535449[ebp+edi], cl
  00899	47		 inc	 edi
  0089a	83 ff 07	 cmp	 edi, 7
  0089d	7c e4		 jl	 SHORT $LL2121@SetTimeIma
  0089f	8b 8d 84 fd ff
	ff		 mov	 ecx, DWORD PTR _rkLoader$GSCopy$[ebp]
  008a5	68 04 01 00 00	 push	 260			; 00000104H
  008aa	8d 85 88 fd ff
	ff		 lea	 eax, DWORD PTR _szBuf$[ebp]
  008b0	50		 push	 eax
  008b1	68 00 00 00 00	 push	 OFFSET ??_C@_00CNPNBAHC@?$AA@
  008b6	8d 45 e4	 lea	 eax, DWORD PTR __k$535449[ebp]
  008b9	50		 push	 eax
  008ba	ff 15 00 00 00
	00		 call	 DWORD PTR __imp_?LoadStringA@ioINILoader@@QAEXPBD0PADH@Z

; 152  : 	m_pExtraImg[TIME_DOT] = g_UIImageSetMgr.CreateImageByFullName(szBuf);

  008c0	8d 85 88 fd ff
	ff		 lea	 eax, DWORD PTR _szBuf$[ebp]
  008c6	50		 push	 eax
  008c7	8d 8d 24 fd ff
	ff		 lea	 ecx, DWORD PTR $T533057[ebp]
  008cd	ff 15 00 00 00
	00		 call	 DWORD PTR __imp_??0ioHashString@@QAE@PBD@Z
  008d3	8d 85 24 fd ff
	ff		 lea	 eax, DWORD PTR $T533057[ebp]
  008d9	53		 push	 ebx
  008da	50		 push	 eax
  008db	c7 45 fc 05 00
	00 00		 mov	 DWORD PTR __$EHRec$[ebp+8], 5
  008e2	ff 15 00 00 00
	00		 call	 DWORD PTR __imp_?GetSingleton@ioUIImageSetManager@@SAAAV1@XZ
  008e8	8b c8		 mov	 ecx, eax
  008ea	ff 15 00 00 00
	00		 call	 DWORD PTR __imp_?CreateImageByFullName@ioUIImageSetManager@@QAEPAVioUIRenderImage@@ABVioHashString@@_N@Z
  008f0	83 4d fc ff	 or	 DWORD PTR __$EHRec$[ebp+8], -1
  008f4	8d 8d 24 fd ff
	ff		 lea	 ecx, DWORD PTR $T533057[ebp]
  008fa	89 86 74 02 00
	00		 mov	 DWORD PTR [esi+628], eax
  00900	ff 15 00 00 00
	00		 call	 DWORD PTR __imp_??1ioHashString@@QAE@XZ

; 153  : 
; 154  : 	m_bShowTime = true;

  00906	c6 86 bc 02 00
	00 01		 mov	 BYTE PTR [esi+700], 1

; 155  : }

  0090d	e8 00 00 00 00	 call	 __EH_epilog3_GS
  00912	c2 04 00	 ret	 4
_TEXT	ENDS
;	COMDAT text$x
text$x	SEGMENT
__unwindfunclet$?SetTimeImage@MiniMap@@QAEXAAVioINILoader@@@Z$0:
  00000	8d 8d 34 fd ff
	ff		 lea	 ecx, DWORD PTR $T533052[ebp]
  00006	ff 25 00 00 00
	00		 jmp	 DWORD PTR __imp_??1ioHashString@@QAE@XZ
__unwindfunclet$?SetTimeImage@MiniMap@@QAEXAAVioINILoader@@@Z$1:
  0000c	8d 8d 64 fd ff
	ff		 lea	 ecx, DWORD PTR $T533053[ebp]
  00012	ff 25 00 00 00
	00		 jmp	 DWORD PTR __imp_??1ioHashString@@QAE@XZ
__unwindfunclet$?SetTimeImage@MiniMap@@QAEXAAVioINILoader@@@Z$2:
  00018	8d 8d 44 fd ff
	ff		 lea	 ecx, DWORD PTR $T533054[ebp]
  0001e	ff 25 00 00 00
	00		 jmp	 DWORD PTR __imp_??1ioHashString@@QAE@XZ
__unwindfunclet$?SetTimeImage@MiniMap@@QAEXAAVioINILoader@@@Z$3:
  00024	8d 8d 74 fd ff
	ff		 lea	 ecx, DWORD PTR $T533055[ebp]
  0002a	ff 25 00 00 00
	00		 jmp	 DWORD PTR __imp_??1ioHashString@@QAE@XZ
__unwindfunclet$?SetTimeImage@MiniMap@@QAEXAAVioINILoader@@@Z$4:
  00030	8d 8d 54 fd ff
	ff		 lea	 ecx, DWORD PTR $T533056[ebp]
  00036	ff 25 00 00 00
	00		 jmp	 DWORD PTR __imp_??1ioHashString@@QAE@XZ
__unwindfunclet$?SetTimeImage@MiniMap@@QAEXAAVioINILoader@@@Z$5:
  0003c	8d 8d 24 fd ff
	ff		 lea	 ecx, DWORD PTR $T533057[ebp]
  00042	ff 25 00 00 00
	00		 jmp	 DWORD PTR __imp_??1ioHashString@@QAE@XZ
__ehhandler$?SetTimeImage@MiniMap@@QAEXAAVioINILoader@@@Z:
  00048	8b 54 24 08	 mov	 edx, DWORD PTR [esp+8]
  0004c	8d 42 0c	 lea	 eax, DWORD PTR [edx+12]
  0004f	8b 8a 20 fd ff
	ff		 mov	 ecx, DWORD PTR [edx-736]
  00055	33 c8		 xor	 ecx, eax
  00057	e8 00 00 00 00	 call	 @__security_check_cookie@4
  0005c	8b 4a fc	 mov	 ecx, DWORD PTR [edx-4]
  0005f	33 c8		 xor	 ecx, eax
  00061	e8 00 00 00 00	 call	 @__security_check_cookie@4
  00066	b8 00 00 00 00	 mov	 eax, OFFSET __ehfuncinfo$?SetTimeImage@MiniMap@@QAEXAAVioINILoader@@@Z
  0006b	e9 00 00 00 00	 jmp	 ___CxxFrameHandler3
text$x	ENDS
?SetTimeImage@MiniMap@@QAEXAAVioINILoader@@@Z ENDP	; MiniMap::SetTimeImage
PUBLIC	_this$GSCopy$
PUBLIC	_pImage$GSCopy$
PUBLIC	_szType$GSCopy$
PUBLIC	__$ArrayPad$
PUBLIC	?AddRenderImage@MiniMap@@UAEXABVioHashString@@PAVioUIRenderImage@@@Z ; MiniMap::AddRenderImage
EXTRN	__imp_?AddRenderImage@ioWnd@@UAEXABVioHashString@@PAVioUIRenderImage@@@Z:PROC
; Function compile flags: /Ogsp
;	COMDAT ?AddRenderImage@MiniMap@@UAEXABVioHashString@@PAVioUIRenderImage@@@Z
_TEXT	SEGMENT
_pImage$GSCopy$ = -728					; size = 4
_szType$GSCopy$ = -724					; size = 4
_this$GSCopy$ = -720					; size = 4
__t$539444 = -716					; size = 9
__t$538194 = -700					; size = 9
__t$535819 = -684					; size = 13
__t$537444 = -664					; size = 13
__t$538069 = -644					; size = 13
__t$538444 = -624					; size = 13
__t$539319 = -604					; size = 13
__t$538944 = -584					; size = 13
__t$538569 = -564					; size = 13
__t$537569 = -544					; size = 17
__t$536569 = -520					; size = 17
__t$535957 = -496					; size = 17
__t$539832 = -472					; size = 19
__t$540082 = -448					; size = 23
__t$539707 = -420					; size = 19
__t$537707 = -396					; size = 12
__t$537194 = -380					; size = 18
__t$538707 = -356					; size = 12
__t$539207 = -340					; size = 11
__t$539957 = -324					; size = 11
__t$536332 = -308					; size = 11
__t$537069 = -292					; size = 14
__t$537319 = -272					; size = 14
__t$537957 = -252					; size = 16
__t$539082 = -232					; size = 12
__t$536707 = -216					; size = 16
__t$537832 = -196					; size = 12
__t$536207 = -180					; size = 16
__t$536082 = -160					; size = 12
__t$537022 = -144					; size = 15
__t$539569 = -124					; size = 11
__t$536897 = -108					; size = 15
__t$536444 = -88					; size = 11
__t$538819 = -72					; size = 14
__t$540207 = -52					; size = 24
__t$538319 = -24					; size = 14
__$ArrayPad$ = -4					; size = 4
_szType$ = 8						; size = 4
_pImage$ = 12						; size = 4
?AddRenderImage@MiniMap@@UAEXABVioHashString@@PAVioUIRenderImage@@@Z PROC ; MiniMap::AddRenderImage, COMDAT
; _this$ = ecx

; 269  : {

  00000	55		 push	 ebp
  00001	8b ec		 mov	 ebp, esp
  00003	81 ec d8 02 00
	00		 sub	 esp, 728		; 000002d8H
  00009	a1 00 00 00 00	 mov	 eax, DWORD PTR ___security_cookie
  0000e	33 c5		 xor	 eax, ebp
  00010	89 45 fc	 mov	 DWORD PTR __$ArrayPad$[ebp], eax

; 284  : 	}
; 285  : 	else if( szType == "SpotDropUserRed" )

  00013	8b 45 08	 mov	 eax, DWORD PTR _szType$[ebp]
  00016	53		 push	 ebx
  00017	56		 push	 esi
  00018	57		 push	 edi
  00019	89 85 2c fd ff
	ff		 mov	 DWORD PTR _szType$GSCopy$[ebp], eax
  0001f	8b 45 0c	 mov	 eax, DWORD PTR _pImage$[ebp]
  00022	8b f9		 mov	 edi, ecx
  00024	33 db		 xor	 ebx, ebx
  00026	6a 03		 push	 3
  00028	89 85 28 fd ff
	ff		 mov	 DWORD PTR _pImage$GSCopy$[ebp], eax

; 354  : 	}
; 355  : 	else if( szType == "SpotDropBossMon" )

  0002e	89 bd 30 fd ff
	ff		 mov	 DWORD PTR _this$GSCopy$[ebp], edi
  00034	c7 85 54 fd ff
	ff be 9c 84 9e	 mov	 DWORD PTR __t$535819[ebp], -1635476290 ; 9e849cbeH
  0003e	c7 85 58 fd ff
	ff b8 9f 8e 98	 mov	 DWORD PTR __t$535819[ebp+4], -1735483464 ; 988e9fb8H
  00048	c7 85 5c fd ff
	ff af 80 9e 8f	 mov	 DWORD PTR __t$535819[ebp+8], -1885437777 ; 8f9e80afH
  00052	8d 85 54 fd ff
	ff		 lea	 eax, DWORD PTR __t$535819[ebp]
  00058	88 9d 60 fd ff
	ff		 mov	 BYTE PTR __t$535819[ebp+12], bl
  0005e	59		 pop	 ecx
$LL286@AddRenderI:

; 270  : 	if( szType == "SpotUserBlue" )

  0005f	81 30 ed ec eb
	ea		 xor	 DWORD PTR [eax], -353637139 ; eaebecedH
  00065	83 c0 04	 add	 eax, 4
  00068	49		 dec	 ecx
  00069	75 f4		 jne	 SHORT $LL286@AddRenderI
  0006b	8b 8d 2c fd ff
	ff		 mov	 ecx, DWORD PTR _szType$GSCopy$[ebp]
  00071	8d b5 54 fd ff
	ff		 lea	 esi, DWORD PTR __t$535819[ebp]
  00077	ff 15 00 00 00
	00		 call	 DWORD PTR __imp_?c_str@ioHashString@@QBEPBDXZ
$LL4178@AddRenderI:
  0007d	8a 08		 mov	 cl, BYTE PTR [eax]
  0007f	3a 0e		 cmp	 cl, BYTE PTR [esi]
  00081	75 1a		 jne	 SHORT $LN4179@AddRenderI
  00083	3a cb		 cmp	 cl, bl
  00085	74 12		 je	 SHORT $LN4180@AddRenderI
  00087	8a 48 01	 mov	 cl, BYTE PTR [eax+1]
  0008a	3a 4e 01	 cmp	 cl, BYTE PTR [esi+1]
  0008d	75 0e		 jne	 SHORT $LN4179@AddRenderI
  0008f	83 c0 02	 add	 eax, 2
  00092	83 c6 02	 add	 esi, 2
  00095	3a cb		 cmp	 cl, bl
  00097	75 e4		 jne	 SHORT $LL4178@AddRenderI
$LN4180@AddRenderI:
  00099	33 c0		 xor	 eax, eax
  0009b	eb 05		 jmp	 SHORT $LN4181@AddRenderI
$LN4179@AddRenderI:
  0009d	1b c0		 sbb	 eax, eax
  0009f	83 d8 ff	 sbb	 eax, -1
$LN4181@AddRenderI:
  000a2	3b c3		 cmp	 eax, ebx
  000a4	75 30		 jne	 SHORT $LN4143@AddRenderI

; 271  : 	{
; 272  : 		SAFEDELETE( m_pSpot[SPOT_USER] );

  000a6	39 9f d4 01 00
	00		 cmp	 DWORD PTR [edi+468], ebx
  000ac	74 17		 je	 SHORT $LN107@AddRenderI
  000ae	8b 8f d4 01 00
	00		 mov	 ecx, DWORD PTR [edi+468]
  000b4	3b cb		 cmp	 ecx, ebx
  000b6	74 07		 je	 SHORT $LN111@AddRenderI
  000b8	8b 01		 mov	 eax, DWORD PTR [ecx]
  000ba	6a 01		 push	 1
  000bc	ff 50 40	 call	 DWORD PTR [eax+64]
$LN111@AddRenderI:
  000bf	89 9f d4 01 00
	00		 mov	 DWORD PTR [edi+468], ebx
$LN107@AddRenderI:

; 273  : 		m_pSpot[SPOT_USER] = pImage;

  000c5	8b 85 28 fd ff
	ff		 mov	 eax, DWORD PTR _pImage$GSCopy$[ebp]
  000cb	89 87 d4 01 00
	00		 mov	 DWORD PTR [edi+468], eax
  000d1	e9 04 1a 00 00	 jmp	 $LN1@AddRenderI
$LN4143@AddRenderI:

; 274  : 	}
; 275  : 	else if( szType == "SpotDropUserBlue" )

  000d6	6a 04		 push	 4
  000d8	c7 85 10 fe ff
	ff be 9c 84 9e	 mov	 DWORD PTR __t$535957[ebp], -1635476290 ; 9e849cbeH
  000e2	c7 85 14 fe ff
	ff a9 9e 84 9a	 mov	 DWORD PTR __t$535957[ebp+4], -1702584663 ; 9a849ea9H
  000ec	c7 85 18 fe ff
	ff b8 9f 8e 98	 mov	 DWORD PTR __t$535957[ebp+8], -1735483464 ; 988e9fb8H
  000f6	c7 85 1c fe ff
	ff af 80 9e 8f	 mov	 DWORD PTR __t$535957[ebp+12], -1885437777 ; 8f9e80afH
  00100	8d 85 10 fe ff
	ff		 lea	 eax, DWORD PTR __t$535957[ebp]
  00106	88 9d 20 fe ff
	ff		 mov	 BYTE PTR __t$535957[ebp+16], bl
  0010c	59		 pop	 ecx
$LL392@AddRenderI:
  0010d	81 30 ed ec eb
	ea		 xor	 DWORD PTR [eax], -353637139 ; eaebecedH
  00113	83 c0 04	 add	 eax, 4
  00116	49		 dec	 ecx
  00117	75 f4		 jne	 SHORT $LL392@AddRenderI
  00119	8b 8d 2c fd ff
	ff		 mov	 ecx, DWORD PTR _szType$GSCopy$[ebp]
  0011f	8d b5 10 fe ff
	ff		 lea	 esi, DWORD PTR __t$535957[ebp]
  00125	ff 15 00 00 00
	00		 call	 DWORD PTR __imp_?c_str@ioHashString@@QBEPBDXZ
$LL4182@AddRenderI:
  0012b	8a 08		 mov	 cl, BYTE PTR [eax]
  0012d	3a 0e		 cmp	 cl, BYTE PTR [esi]
  0012f	75 1a		 jne	 SHORT $LN4183@AddRenderI
  00131	3a cb		 cmp	 cl, bl
  00133	74 12		 je	 SHORT $LN4322@AddRenderI
  00135	8a 48 01	 mov	 cl, BYTE PTR [eax+1]
  00138	3a 4e 01	 cmp	 cl, BYTE PTR [esi+1]
  0013b	75 0e		 jne	 SHORT $LN4183@AddRenderI
  0013d	83 c0 02	 add	 eax, 2
  00140	83 c6 02	 add	 esi, 2
  00143	3a cb		 cmp	 cl, bl
  00145	75 e4		 jne	 SHORT $LL4182@AddRenderI
$LN4322@AddRenderI:
  00147	33 c0		 xor	 eax, eax
  00149	eb 05		 jmp	 SHORT $LN4185@AddRenderI
$LN4183@AddRenderI:
  0014b	1b c0		 sbb	 eax, eax
  0014d	83 d8 ff	 sbb	 eax, -1
$LN4185@AddRenderI:
  00150	3b c3		 cmp	 eax, ebx
  00152	75 30		 jne	 SHORT $LN4144@AddRenderI

; 276  : 	{
; 277  : 		SAFEDELETE( m_pSpot[SPOT_DROP_USER] );

  00154	39 9f dc 01 00
	00		 cmp	 DWORD PTR [edi+476], ebx
  0015a	74 17		 je	 SHORT $LN104@AddRenderI
  0015c	8b 8f dc 01 00
	00		 mov	 ecx, DWORD PTR [edi+476]
  00162	3b cb		 cmp	 ecx, ebx
  00164	74 07		 je	 SHORT $LN113@AddRenderI
  00166	8b 01		 mov	 eax, DWORD PTR [ecx]
  00168	6a 01		 push	 1
  0016a	ff 50 40	 call	 DWORD PTR [eax+64]
$LN113@AddRenderI:
  0016d	89 9f dc 01 00
	00		 mov	 DWORD PTR [edi+476], ebx
$LN104@AddRenderI:

; 278  : 		m_pSpot[SPOT_DROP_USER] = pImage;

  00173	8b 85 28 fd ff
	ff		 mov	 eax, DWORD PTR _pImage$GSCopy$[ebp]
  00179	89 87 dc 01 00
	00		 mov	 DWORD PTR [edi+476], eax
  0017f	e9 56 19 00 00	 jmp	 $LN1@AddRenderI
$LN4144@AddRenderI:

; 279  : 	}
; 280  : 	else if( szType == "SpotUserRed" )

  00184	6a 02		 push	 2
  00186	c7 85 60 ff ff
	ff be 9c 84 9e	 mov	 DWORD PTR __t$536082[ebp], -1635476290 ; 9e849cbeH
  00190	c7 85 64 ff ff
	ff b8 9f 8e 98	 mov	 DWORD PTR __t$536082[ebp+4], -1735483464 ; 988e9fb8H
  0019a	8d 85 60 ff ff
	ff		 lea	 eax, DWORD PTR __t$536082[ebp]
  001a0	c7 85 68 ff ff
	ff bf 89 8f 00	 mov	 DWORD PTR __t$536082[ebp+8], 9406911 ; 008f89bfH
  001aa	59		 pop	 ecx
$LL498@AddRenderI:
  001ab	81 30 ed ec eb
	ea		 xor	 DWORD PTR [eax], -353637139 ; eaebecedH
  001b1	83 c0 04	 add	 eax, 4
  001b4	49		 dec	 ecx
  001b5	75 f4		 jne	 SHORT $LL498@AddRenderI
  001b7	6a 08		 push	 8
  001b9	58		 pop	 eax
$LL495@AddRenderI:
  001ba	8b c8		 mov	 ecx, eax
  001bc	81 e1 03 00 00
	80		 and	 ecx, -2147483645	; 80000003H
  001c2	79 05		 jns	 SHORT $LN4334@AddRenderI
  001c4	49		 dec	 ecx
  001c5	83 c9 fc	 or	 ecx, -4			; fffffffcH
  001c8	41		 inc	 ecx
$LN4334@AddRenderI:
  001c9	b2 ed		 mov	 dl, -19			; ffffffedH
  001cb	2a d1		 sub	 dl, cl
  001cd	30 94 05 60 ff
	ff ff		 xor	 BYTE PTR __t$536082[ebp+eax], dl
  001d4	40		 inc	 eax
  001d5	83 f8 0b	 cmp	 eax, 11			; 0000000bH
  001d8	7c e0		 jl	 SHORT $LL495@AddRenderI
  001da	8b 8d 2c fd ff
	ff		 mov	 ecx, DWORD PTR _szType$GSCopy$[ebp]
  001e0	8d b5 60 ff ff
	ff		 lea	 esi, DWORD PTR __t$536082[ebp]
  001e6	ff 15 00 00 00
	00		 call	 DWORD PTR __imp_?c_str@ioHashString@@QBEPBDXZ
$LL4186@AddRenderI:
  001ec	8a 08		 mov	 cl, BYTE PTR [eax]
  001ee	3a 0e		 cmp	 cl, BYTE PTR [esi]
  001f0	75 1a		 jne	 SHORT $LN4187@AddRenderI
  001f2	3a cb		 cmp	 cl, bl
  001f4	74 12		 je	 SHORT $LN4188@AddRenderI
  001f6	8a 48 01	 mov	 cl, BYTE PTR [eax+1]
  001f9	3a 4e 01	 cmp	 cl, BYTE PTR [esi+1]
  001fc	75 0e		 jne	 SHORT $LN4187@AddRenderI
  001fe	83 c0 02	 add	 eax, 2
  00201	83 c6 02	 add	 esi, 2
  00204	3a cb		 cmp	 cl, bl
  00206	75 e4		 jne	 SHORT $LL4186@AddRenderI
$LN4188@AddRenderI:
  00208	33 c0		 xor	 eax, eax
  0020a	eb 05		 jmp	 SHORT $LN4189@AddRenderI
$LN4187@AddRenderI:
  0020c	1b c0		 sbb	 eax, eax
  0020e	83 d8 ff	 sbb	 eax, -1
$LN4189@AddRenderI:
  00211	3b c3		 cmp	 eax, ebx
  00213	75 30		 jne	 SHORT $LN4145@AddRenderI

; 281  : 	{
; 282  : 		SAFEDELETE( m_pSpot[SPOT_USER_RED] );

  00215	39 9f d8 01 00
	00		 cmp	 DWORD PTR [edi+472], ebx
  0021b	74 17		 je	 SHORT $LN101@AddRenderI
  0021d	8b 8f d8 01 00
	00		 mov	 ecx, DWORD PTR [edi+472]
  00223	3b cb		 cmp	 ecx, ebx
  00225	74 07		 je	 SHORT $LN115@AddRenderI
  00227	8b 01		 mov	 eax, DWORD PTR [ecx]
  00229	6a 01		 push	 1
  0022b	ff 50 40	 call	 DWORD PTR [eax+64]
$LN115@AddRenderI:
  0022e	89 9f d8 01 00
	00		 mov	 DWORD PTR [edi+472], ebx
$LN101@AddRenderI:

; 283  : 		m_pSpot[SPOT_USER_RED] = pImage;

  00234	8b 85 28 fd ff
	ff		 mov	 eax, DWORD PTR _pImage$GSCopy$[ebp]
  0023a	89 87 d8 01 00
	00		 mov	 DWORD PTR [edi+472], eax
  00240	e9 95 18 00 00	 jmp	 $LN1@AddRenderI
$LN4145@AddRenderI:

; 284  : 	}
; 285  : 	else if( szType == "SpotDropUserRed" )

  00245	6a 03		 push	 3
  00247	c7 85 4c ff ff
	ff be 9c 84 9e	 mov	 DWORD PTR __t$536207[ebp], -1635476290 ; 9e849cbeH
  00251	c7 85 50 ff ff
	ff a9 9e 84 9a	 mov	 DWORD PTR __t$536207[ebp+4], -1702584663 ; 9a849ea9H
  0025b	c7 85 54 ff ff
	ff b8 9f 8e 98	 mov	 DWORD PTR __t$536207[ebp+8], -1735483464 ; 988e9fb8H
  00265	8d 85 4c ff ff
	ff		 lea	 eax, DWORD PTR __t$536207[ebp]
  0026b	c7 85 58 ff ff
	ff bf 89 8f 00	 mov	 DWORD PTR __t$536207[ebp+12], 9406911 ; 008f89bfH
  00275	59		 pop	 ecx
$LL604@AddRenderI:
  00276	81 30 ed ec eb
	ea		 xor	 DWORD PTR [eax], -353637139 ; eaebecedH
  0027c	83 c0 04	 add	 eax, 4
  0027f	49		 dec	 ecx
  00280	75 f4		 jne	 SHORT $LL604@AddRenderI
  00282	6a 0c		 push	 12			; 0000000cH
  00284	5f		 pop	 edi
  00285	8b c7		 mov	 eax, edi
$LL601@AddRenderI:
  00287	8b c8		 mov	 ecx, eax
  00289	81 e1 03 00 00
	80		 and	 ecx, -2147483645	; 80000003H
  0028f	79 05		 jns	 SHORT $LN4335@AddRenderI
  00291	49		 dec	 ecx
  00292	83 c9 fc	 or	 ecx, -4			; fffffffcH
  00295	41		 inc	 ecx
$LN4335@AddRenderI:
  00296	b2 ed		 mov	 dl, -19			; ffffffedH
  00298	2a d1		 sub	 dl, cl
  0029a	30 94 05 4c ff
	ff ff		 xor	 BYTE PTR __t$536207[ebp+eax], dl
  002a1	40		 inc	 eax
  002a2	83 f8 0f	 cmp	 eax, 15			; 0000000fH
  002a5	7c e0		 jl	 SHORT $LL601@AddRenderI
  002a7	8b 8d 2c fd ff
	ff		 mov	 ecx, DWORD PTR _szType$GSCopy$[ebp]
  002ad	8d b5 4c ff ff
	ff		 lea	 esi, DWORD PTR __t$536207[ebp]
  002b3	ff 15 00 00 00
	00		 call	 DWORD PTR __imp_?c_str@ioHashString@@QBEPBDXZ
$LL4190@AddRenderI:
  002b9	8a 08		 mov	 cl, BYTE PTR [eax]
  002bb	3a 0e		 cmp	 cl, BYTE PTR [esi]
  002bd	75 1a		 jne	 SHORT $LN4191@AddRenderI
  002bf	3a cb		 cmp	 cl, bl
  002c1	74 12		 je	 SHORT $LN4323@AddRenderI
  002c3	8a 48 01	 mov	 cl, BYTE PTR [eax+1]
  002c6	3a 4e 01	 cmp	 cl, BYTE PTR [esi+1]
  002c9	75 0e		 jne	 SHORT $LN4191@AddRenderI
  002cb	83 c0 02	 add	 eax, 2
  002ce	83 c6 02	 add	 esi, 2
  002d1	3a cb		 cmp	 cl, bl
  002d3	75 e4		 jne	 SHORT $LL4190@AddRenderI
$LN4323@AddRenderI:
  002d5	33 c0		 xor	 eax, eax
  002d7	eb 05		 jmp	 SHORT $LN4193@AddRenderI
$LN4191@AddRenderI:
  002d9	1b c0		 sbb	 eax, eax
  002db	83 d8 ff	 sbb	 eax, -1
$LN4193@AddRenderI:
  002de	3b c3		 cmp	 eax, ebx
  002e0	75 3c		 jne	 SHORT $LN4146@AddRenderI

; 286  : 	{
; 287  : 		SAFEDELETE( m_pSpot[SPOT_DROP_USER_RED] );

  002e2	8b 85 30 fd ff
	ff		 mov	 eax, DWORD PTR _this$GSCopy$[ebp]
  002e8	39 98 e0 01 00
	00		 cmp	 DWORD PTR [eax+480], ebx
  002ee	74 1d		 je	 SHORT $LN98@AddRenderI
  002f0	8b 88 e0 01 00
	00		 mov	 ecx, DWORD PTR [eax+480]
  002f6	3b cb		 cmp	 ecx, ebx
  002f8	74 0d		 je	 SHORT $LN117@AddRenderI
  002fa	8b 01		 mov	 eax, DWORD PTR [ecx]
  002fc	6a 01		 push	 1
  002fe	ff 50 40	 call	 DWORD PTR [eax+64]
  00301	8b 85 30 fd ff
	ff		 mov	 eax, DWORD PTR _this$GSCopy$[ebp]
$LN117@AddRenderI:
  00307	89 98 e0 01 00
	00		 mov	 DWORD PTR [eax+480], ebx
$LN98@AddRenderI:

; 288  : 		m_pSpot[SPOT_DROP_USER_RED] = pImage;

  0030d	8b 8d 28 fd ff
	ff		 mov	 ecx, DWORD PTR _pImage$GSCopy$[ebp]
  00313	89 88 e0 01 00
	00		 mov	 DWORD PTR [eax+480], ecx
  00319	e9 bc 17 00 00	 jmp	 $LN1@AddRenderI
$LN4146@AddRenderI:

; 289  : 	}
; 290  : 	else if( szType == "SpotUserMe" )

  0031e	6a 02		 push	 2
  00320	c7 85 cc fe ff
	ff be 9c 84 9e	 mov	 DWORD PTR __t$536332[ebp], -1635476290 ; 9e849cbeH
  0032a	c7 85 d0 fe ff
	ff b8 9f 8e 98	 mov	 DWORD PTR __t$536332[ebp+4], -1735483464 ; 988e9fb8H
  00334	66 c7 85 d4 fe
	ff ff a0 89	 mov	 WORD PTR __t$536332[ebp+8], 35232 ; 000089a0H
  0033d	8d 85 cc fe ff
	ff		 lea	 eax, DWORD PTR __t$536332[ebp]
  00343	88 9d d6 fe ff
	ff		 mov	 BYTE PTR __t$536332[ebp+10], bl
  00349	59		 pop	 ecx
$LL710@AddRenderI:
  0034a	81 30 ed ec eb
	ea		 xor	 DWORD PTR [eax], -353637139 ; eaebecedH
  00350	83 c0 04	 add	 eax, 4
  00353	49		 dec	 ecx
  00354	75 f4		 jne	 SHORT $LL710@AddRenderI
  00356	6a 08		 push	 8
  00358	58		 pop	 eax
$LL707@AddRenderI:
  00359	8b c8		 mov	 ecx, eax
  0035b	81 e1 03 00 00
	80		 and	 ecx, -2147483645	; 80000003H
  00361	79 05		 jns	 SHORT $LN4336@AddRenderI
  00363	49		 dec	 ecx
  00364	83 c9 fc	 or	 ecx, -4			; fffffffcH
  00367	41		 inc	 ecx
$LN4336@AddRenderI:
  00368	b2 ed		 mov	 dl, -19			; ffffffedH
  0036a	2a d1		 sub	 dl, cl
  0036c	30 94 05 cc fe
	ff ff		 xor	 BYTE PTR __t$536332[ebp+eax], dl
  00373	40		 inc	 eax
  00374	83 f8 0a	 cmp	 eax, 10			; 0000000aH
  00377	7c e0		 jl	 SHORT $LL707@AddRenderI
  00379	8b 8d 2c fd ff
	ff		 mov	 ecx, DWORD PTR _szType$GSCopy$[ebp]
  0037f	8d b5 cc fe ff
	ff		 lea	 esi, DWORD PTR __t$536332[ebp]
  00385	ff 15 00 00 00
	00		 call	 DWORD PTR __imp_?c_str@ioHashString@@QBEPBDXZ
$LL4194@AddRenderI:
  0038b	8a 08		 mov	 cl, BYTE PTR [eax]
  0038d	3a 0e		 cmp	 cl, BYTE PTR [esi]
  0038f	75 1a		 jne	 SHORT $LN4195@AddRenderI
  00391	3a cb		 cmp	 cl, bl
  00393	74 12		 je	 SHORT $LN4324@AddRenderI
  00395	8a 48 01	 mov	 cl, BYTE PTR [eax+1]
  00398	3a 4e 01	 cmp	 cl, BYTE PTR [esi+1]
  0039b	75 0e		 jne	 SHORT $LN4195@AddRenderI
  0039d	83 c0 02	 add	 eax, 2
  003a0	83 c6 02	 add	 esi, 2
  003a3	3a cb		 cmp	 cl, bl
  003a5	75 e4		 jne	 SHORT $LL4194@AddRenderI
$LN4324@AddRenderI:
  003a7	33 c0		 xor	 eax, eax
  003a9	eb 05		 jmp	 SHORT $LN4197@AddRenderI
$LN4195@AddRenderI:
  003ab	1b c0		 sbb	 eax, eax
  003ad	83 d8 ff	 sbb	 eax, -1
$LN4197@AddRenderI:
  003b0	3b c3		 cmp	 eax, ebx
  003b2	75 3c		 jne	 SHORT $LN4147@AddRenderI

; 291  : 	{
; 292  : 		SAFEDELETE( m_pSpot[SPOT_ME] );

  003b4	8b 85 30 fd ff
	ff		 mov	 eax, DWORD PTR _this$GSCopy$[ebp]
  003ba	39 98 e4 01 00
	00		 cmp	 DWORD PTR [eax+484], ebx
  003c0	74 1d		 je	 SHORT $LN95@AddRenderI
  003c2	8b 88 e4 01 00
	00		 mov	 ecx, DWORD PTR [eax+484]
  003c8	3b cb		 cmp	 ecx, ebx
  003ca	74 0d		 je	 SHORT $LN119@AddRenderI
  003cc	8b 01		 mov	 eax, DWORD PTR [ecx]
  003ce	6a 01		 push	 1
  003d0	ff 50 40	 call	 DWORD PTR [eax+64]
  003d3	8b 85 30 fd ff
	ff		 mov	 eax, DWORD PTR _this$GSCopy$[ebp]
$LN119@AddRenderI:
  003d9	89 98 e4 01 00
	00		 mov	 DWORD PTR [eax+484], ebx
$LN95@AddRenderI:

; 293  : 		m_pSpot[SPOT_ME] = pImage;

  003df	8b 8d 28 fd ff
	ff		 mov	 ecx, DWORD PTR _pImage$GSCopy$[ebp]
  003e5	89 88 e4 01 00
	00		 mov	 DWORD PTR [eax+484], ecx
  003eb	e9 ea 16 00 00	 jmp	 $LN1@AddRenderI
$LN4147@AddRenderI:

; 294  : 	}
; 295  : 	else if( szType == "SpotDropMe" )

  003f0	6a 02		 push	 2
  003f2	c7 45 a8 be 9c
	84 9e		 mov	 DWORD PTR __t$536444[ebp], -1635476290 ; 9e849cbeH
  003f9	c7 45 ac a9 9e
	84 9a		 mov	 DWORD PTR __t$536444[ebp+4], -1702584663 ; 9a849ea9H
  00400	66 c7 45 b0 a0
	89		 mov	 WORD PTR __t$536444[ebp+8], 35232 ; 000089a0H
  00406	8d 45 a8	 lea	 eax, DWORD PTR __t$536444[ebp]
  00409	88 5d b2	 mov	 BYTE PTR __t$536444[ebp+10], bl
  0040c	59		 pop	 ecx
$LL816@AddRenderI:
  0040d	81 30 ed ec eb
	ea		 xor	 DWORD PTR [eax], -353637139 ; eaebecedH
  00413	83 c0 04	 add	 eax, 4
  00416	49		 dec	 ecx
  00417	75 f4		 jne	 SHORT $LL816@AddRenderI
  00419	6a 08		 push	 8
  0041b	58		 pop	 eax
$LL813@AddRenderI:
  0041c	8b c8		 mov	 ecx, eax
  0041e	81 e1 03 00 00
	80		 and	 ecx, -2147483645	; 80000003H
  00424	79 05		 jns	 SHORT $LN4337@AddRenderI
  00426	49		 dec	 ecx
  00427	83 c9 fc	 or	 ecx, -4			; fffffffcH
  0042a	41		 inc	 ecx
$LN4337@AddRenderI:
  0042b	b2 ed		 mov	 dl, -19			; ffffffedH
  0042d	2a d1		 sub	 dl, cl
  0042f	30 54 05 a8	 xor	 BYTE PTR __t$536444[ebp+eax], dl
  00433	40		 inc	 eax
  00434	83 f8 0a	 cmp	 eax, 10			; 0000000aH
  00437	7c e3		 jl	 SHORT $LL813@AddRenderI
  00439	8b 8d 2c fd ff
	ff		 mov	 ecx, DWORD PTR _szType$GSCopy$[ebp]
  0043f	8d 75 a8	 lea	 esi, DWORD PTR __t$536444[ebp]
  00442	ff 15 00 00 00
	00		 call	 DWORD PTR __imp_?c_str@ioHashString@@QBEPBDXZ
$LL4198@AddRenderI:
  00448	8a 08		 mov	 cl, BYTE PTR [eax]
  0044a	3a 0e		 cmp	 cl, BYTE PTR [esi]
  0044c	75 1a		 jne	 SHORT $LN4199@AddRenderI
  0044e	3a cb		 cmp	 cl, bl
  00450	74 12		 je	 SHORT $LN4200@AddRenderI
  00452	8a 48 01	 mov	 cl, BYTE PTR [eax+1]
  00455	3a 4e 01	 cmp	 cl, BYTE PTR [esi+1]
  00458	75 0e		 jne	 SHORT $LN4199@AddRenderI
  0045a	83 c0 02	 add	 eax, 2
  0045d	83 c6 02	 add	 esi, 2
  00460	3a cb		 cmp	 cl, bl
  00462	75 e4		 jne	 SHORT $LL4198@AddRenderI
$LN4200@AddRenderI:
  00464	33 c0		 xor	 eax, eax
  00466	eb 05		 jmp	 SHORT $LN4201@AddRenderI
$LN4199@AddRenderI:
  00468	1b c0		 sbb	 eax, eax
  0046a	83 d8 ff	 sbb	 eax, -1
$LN4201@AddRenderI:
  0046d	3b c3		 cmp	 eax, ebx
  0046f	75 3c		 jne	 SHORT $LN4148@AddRenderI

; 296  : 	{
; 297  : 		SAFEDELETE( m_pSpot[SPOT_DROP_ME] );		// 같은 이미지 사용

  00471	8b 85 30 fd ff
	ff		 mov	 eax, DWORD PTR _this$GSCopy$[ebp]
  00477	39 98 10 02 00
	00		 cmp	 DWORD PTR [eax+528], ebx
  0047d	74 1d		 je	 SHORT $LN92@AddRenderI
  0047f	8b 88 10 02 00
	00		 mov	 ecx, DWORD PTR [eax+528]
  00485	3b cb		 cmp	 ecx, ebx
  00487	74 0d		 je	 SHORT $LN121@AddRenderI
  00489	8b 01		 mov	 eax, DWORD PTR [ecx]
  0048b	6a 01		 push	 1
  0048d	ff 50 40	 call	 DWORD PTR [eax+64]
  00490	8b 85 30 fd ff
	ff		 mov	 eax, DWORD PTR _this$GSCopy$[ebp]
$LN121@AddRenderI:
  00496	89 98 10 02 00
	00		 mov	 DWORD PTR [eax+528], ebx
$LN92@AddRenderI:

; 298  : 		m_pSpot[SPOT_DROP_ME] = pImage;

  0049c	8b 8d 28 fd ff
	ff		 mov	 ecx, DWORD PTR _pImage$GSCopy$[ebp]
  004a2	89 88 10 02 00
	00		 mov	 DWORD PTR [eax+528], ecx
  004a8	e9 2d 16 00 00	 jmp	 $LN1@AddRenderI
$LN4148@AddRenderI:

; 299  : 	}
; 300  : 	else if( szType == "SpotPrisonerBlue" )

  004ad	6a 04		 push	 4
  004af	c7 85 f8 fd ff
	ff be 9c 84 9e	 mov	 DWORD PTR __t$536569[ebp], -1635476290 ; 9e849cbeH
  004b9	c7 85 fc fd ff
	ff bd 9e 82 99	 mov	 DWORD PTR __t$536569[ebp+4], -1719492931 ; 99829ebdH
  004c3	c7 85 00 fe ff
	ff 82 82 8e 98	 mov	 DWORD PTR __t$536569[ebp+8], -1735490942 ; 988e8282H
  004cd	c7 85 04 fe ff
	ff af 80 9e 8f	 mov	 DWORD PTR __t$536569[ebp+12], -1885437777 ; 8f9e80afH
  004d7	8d 85 f8 fd ff
	ff		 lea	 eax, DWORD PTR __t$536569[ebp]
  004dd	88 9d 08 fe ff
	ff		 mov	 BYTE PTR __t$536569[ebp+16], bl
  004e3	59		 pop	 ecx
$LL922@AddRenderI:
  004e4	81 30 ed ec eb
	ea		 xor	 DWORD PTR [eax], -353637139 ; eaebecedH
  004ea	83 c0 04	 add	 eax, 4
  004ed	49		 dec	 ecx
  004ee	75 f4		 jne	 SHORT $LL922@AddRenderI
  004f0	8b 8d 2c fd ff
	ff		 mov	 ecx, DWORD PTR _szType$GSCopy$[ebp]
  004f6	8d b5 f8 fd ff
	ff		 lea	 esi, DWORD PTR __t$536569[ebp]
  004fc	ff 15 00 00 00
	00		 call	 DWORD PTR __imp_?c_str@ioHashString@@QBEPBDXZ
$LL4202@AddRenderI:
  00502	8a 08		 mov	 cl, BYTE PTR [eax]
  00504	3a 0e		 cmp	 cl, BYTE PTR [esi]
  00506	75 1a		 jne	 SHORT $LN4203@AddRenderI
  00508	3a cb		 cmp	 cl, bl
  0050a	74 12		 je	 SHORT $LN4204@AddRenderI
  0050c	8a 48 01	 mov	 cl, BYTE PTR [eax+1]
  0050f	3a 4e 01	 cmp	 cl, BYTE PTR [esi+1]
  00512	75 0e		 jne	 SHORT $LN4203@AddRenderI
  00514	83 c0 02	 add	 eax, 2
  00517	83 c6 02	 add	 esi, 2
  0051a	3a cb		 cmp	 cl, bl
  0051c	75 e4		 jne	 SHORT $LL4202@AddRenderI
$LN4204@AddRenderI:
  0051e	33 c0		 xor	 eax, eax
  00520	eb 05		 jmp	 SHORT $LN4205@AddRenderI
$LN4203@AddRenderI:
  00522	1b c0		 sbb	 eax, eax
  00524	83 d8 ff	 sbb	 eax, -1
$LN4205@AddRenderI:
  00527	3b c3		 cmp	 eax, ebx
  00529	75 3c		 jne	 SHORT $LN4149@AddRenderI

; 301  : 	{
; 302  : 		SAFEDELETE( m_pSpot[SPOT_PRISON_USER] );

  0052b	8b 85 30 fd ff
	ff		 mov	 eax, DWORD PTR _this$GSCopy$[ebp]
  00531	39 98 f4 01 00
	00		 cmp	 DWORD PTR [eax+500], ebx
  00537	74 1d		 je	 SHORT $LN89@AddRenderI
  00539	8b 88 f4 01 00
	00		 mov	 ecx, DWORD PTR [eax+500]
  0053f	3b cb		 cmp	 ecx, ebx
  00541	74 0d		 je	 SHORT $LN123@AddRenderI
  00543	8b 01		 mov	 eax, DWORD PTR [ecx]
  00545	6a 01		 push	 1
  00547	ff 50 40	 call	 DWORD PTR [eax+64]
  0054a	8b 85 30 fd ff
	ff		 mov	 eax, DWORD PTR _this$GSCopy$[ebp]
$LN123@AddRenderI:
  00550	89 98 f4 01 00
	00		 mov	 DWORD PTR [eax+500], ebx
$LN89@AddRenderI:

; 303  : 		m_pSpot[SPOT_PRISON_USER] = pImage;

  00556	8b 8d 28 fd ff
	ff		 mov	 ecx, DWORD PTR _pImage$GSCopy$[ebp]
  0055c	89 88 f4 01 00
	00		 mov	 DWORD PTR [eax+500], ecx
  00562	e9 73 15 00 00	 jmp	 $LN1@AddRenderI
$LN4149@AddRenderI:

; 304  : 	}
; 305  : 	else if( szType == "SpotPrisonerRed" )

  00567	6a 03		 push	 3
  00569	c7 85 28 ff ff
	ff be 9c 84 9e	 mov	 DWORD PTR __t$536707[ebp], -1635476290 ; 9e849cbeH
  00573	c7 85 2c ff ff
	ff bd 9e 82 99	 mov	 DWORD PTR __t$536707[ebp+4], -1719492931 ; 99829ebdH
  0057d	c7 85 30 ff ff
	ff 82 82 8e 98	 mov	 DWORD PTR __t$536707[ebp+8], -1735490942 ; 988e8282H
  00587	8d 85 28 ff ff
	ff		 lea	 eax, DWORD PTR __t$536707[ebp]
  0058d	c7 85 34 ff ff
	ff bf 89 8f 00	 mov	 DWORD PTR __t$536707[ebp+12], 9406911 ; 008f89bfH
  00597	59		 pop	 ecx
$LL1028@AddRenderI:
  00598	81 30 ed ec eb
	ea		 xor	 DWORD PTR [eax], -353637139 ; eaebecedH
  0059e	83 c0 04	 add	 eax, 4
  005a1	49		 dec	 ecx
  005a2	75 f4		 jne	 SHORT $LL1028@AddRenderI
  005a4	8b c7		 mov	 eax, edi
$LL1025@AddRenderI:
  005a6	8b c8		 mov	 ecx, eax
  005a8	81 e1 03 00 00
	80		 and	 ecx, -2147483645	; 80000003H
  005ae	79 05		 jns	 SHORT $LN4338@AddRenderI
  005b0	49		 dec	 ecx
  005b1	83 c9 fc	 or	 ecx, -4			; fffffffcH
  005b4	41		 inc	 ecx
$LN4338@AddRenderI:
  005b5	b2 ed		 mov	 dl, -19			; ffffffedH
  005b7	2a d1		 sub	 dl, cl
  005b9	30 94 05 28 ff
	ff ff		 xor	 BYTE PTR __t$536707[ebp+eax], dl
  005c0	40		 inc	 eax
  005c1	83 f8 0f	 cmp	 eax, 15			; 0000000fH
  005c4	7c e0		 jl	 SHORT $LL1025@AddRenderI
  005c6	8b 8d 2c fd ff
	ff		 mov	 ecx, DWORD PTR _szType$GSCopy$[ebp]
  005cc	8d b5 28 ff ff
	ff		 lea	 esi, DWORD PTR __t$536707[ebp]
  005d2	ff 15 00 00 00
	00		 call	 DWORD PTR __imp_?c_str@ioHashString@@QBEPBDXZ
$LL4206@AddRenderI:
  005d8	8a 08		 mov	 cl, BYTE PTR [eax]
  005da	3a 0e		 cmp	 cl, BYTE PTR [esi]
  005dc	75 1a		 jne	 SHORT $LN4207@AddRenderI
  005de	3a cb		 cmp	 cl, bl
  005e0	74 12		 je	 SHORT $LN4208@AddRenderI
  005e2	8a 48 01	 mov	 cl, BYTE PTR [eax+1]
  005e5	3a 4e 01	 cmp	 cl, BYTE PTR [esi+1]
  005e8	75 0e		 jne	 SHORT $LN4207@AddRenderI
  005ea	83 c0 02	 add	 eax, 2
  005ed	83 c6 02	 add	 esi, 2
  005f0	3a cb		 cmp	 cl, bl
  005f2	75 e4		 jne	 SHORT $LL4206@AddRenderI
$LN4208@AddRenderI:
  005f4	33 c0		 xor	 eax, eax
  005f6	eb 05		 jmp	 SHORT $LN4209@AddRenderI
$LN4207@AddRenderI:
  005f8	1b c0		 sbb	 eax, eax
  005fa	83 d8 ff	 sbb	 eax, -1
$LN4209@AddRenderI:
  005fd	3b c3		 cmp	 eax, ebx
  005ff	75 3c		 jne	 SHORT $LN4150@AddRenderI

; 306  : 	{
; 307  : 		SAFEDELETE( m_pSpot[SPOT_PRISON_USER_RED] );

  00601	8b 85 30 fd ff
	ff		 mov	 eax, DWORD PTR _this$GSCopy$[ebp]
  00607	39 98 f8 01 00
	00		 cmp	 DWORD PTR [eax+504], ebx
  0060d	74 1d		 je	 SHORT $LN86@AddRenderI
  0060f	8b 88 f8 01 00
	00		 mov	 ecx, DWORD PTR [eax+504]
  00615	3b cb		 cmp	 ecx, ebx
  00617	74 0d		 je	 SHORT $LN125@AddRenderI
  00619	8b 01		 mov	 eax, DWORD PTR [ecx]
  0061b	6a 01		 push	 1
  0061d	ff 50 40	 call	 DWORD PTR [eax+64]
  00620	8b 85 30 fd ff
	ff		 mov	 eax, DWORD PTR _this$GSCopy$[ebp]
$LN125@AddRenderI:
  00626	89 98 f8 01 00
	00		 mov	 DWORD PTR [eax+504], ebx
$LN86@AddRenderI:

; 308  : 		m_pSpot[SPOT_PRISON_USER_RED] = pImage;

  0062c	8b 8d 28 fd ff
	ff		 mov	 ecx, DWORD PTR _pImage$GSCopy$[ebp]
  00632	89 88 f8 01 00
	00		 mov	 DWORD PTR [eax+504], ecx
  00638	e9 9d 14 00 00	 jmp	 $LN1@AddRenderI
$LN4150@AddRenderI:

; 309  : 	}
; 310  : 	else if( szType == "SpotPrisonerMe" )

  0063d	6a 03		 push	 3
  0063f	c7 45 94 be 9c
	84 9e		 mov	 DWORD PTR __t$536897[ebp], -1635476290 ; 9e849cbeH
  00646	c7 45 98 bd 9e
	82 99		 mov	 DWORD PTR __t$536897[ebp+4], -1719492931 ; 99829ebdH
  0064d	c7 45 9c 82 82
	8e 98		 mov	 DWORD PTR __t$536897[ebp+8], -1735490942 ; 988e8282H
  00654	66 c7 45 a0 a0
	89		 mov	 WORD PTR __t$536897[ebp+12], 35232 ; 000089a0H
  0065a	8d 45 94	 lea	 eax, DWORD PTR __t$536897[ebp]
  0065d	88 5d a2	 mov	 BYTE PTR __t$536897[ebp+14], bl
  00660	59		 pop	 ecx
$LL1134@AddRenderI:
  00661	81 30 ed ec eb
	ea		 xor	 DWORD PTR [eax], -353637139 ; eaebecedH
  00667	83 c0 04	 add	 eax, 4
  0066a	49		 dec	 ecx
  0066b	75 f4		 jne	 SHORT $LL1134@AddRenderI
  0066d	8b c7		 mov	 eax, edi
$LL1131@AddRenderI:
  0066f	8b c8		 mov	 ecx, eax
  00671	81 e1 03 00 00
	80		 and	 ecx, -2147483645	; 80000003H
  00677	79 05		 jns	 SHORT $LN4339@AddRenderI
  00679	49		 dec	 ecx
  0067a	83 c9 fc	 or	 ecx, -4			; fffffffcH
  0067d	41		 inc	 ecx
$LN4339@AddRenderI:
  0067e	b2 ed		 mov	 dl, -19			; ffffffedH
  00680	2a d1		 sub	 dl, cl
  00682	30 54 05 94	 xor	 BYTE PTR __t$536897[ebp+eax], dl
  00686	40		 inc	 eax
  00687	83 f8 0e	 cmp	 eax, 14			; 0000000eH
  0068a	7c e3		 jl	 SHORT $LL1131@AddRenderI
  0068c	8b 8d 2c fd ff
	ff		 mov	 ecx, DWORD PTR _szType$GSCopy$[ebp]
  00692	8d 75 94	 lea	 esi, DWORD PTR __t$536897[ebp]
  00695	ff 15 00 00 00
	00		 call	 DWORD PTR __imp_?c_str@ioHashString@@QBEPBDXZ
$LL4210@AddRenderI:
  0069b	8a 08		 mov	 cl, BYTE PTR [eax]
  0069d	3a 0e		 cmp	 cl, BYTE PTR [esi]
  0069f	75 1a		 jne	 SHORT $LN4211@AddRenderI
  006a1	3a cb		 cmp	 cl, bl
  006a3	74 12		 je	 SHORT $LN4212@AddRenderI
  006a5	8a 48 01	 mov	 cl, BYTE PTR [eax+1]
  006a8	3a 4e 01	 cmp	 cl, BYTE PTR [esi+1]
  006ab	75 0e		 jne	 SHORT $LN4211@AddRenderI
  006ad	83 c0 02	 add	 eax, 2
  006b0	83 c6 02	 add	 esi, 2
  006b3	3a cb		 cmp	 cl, bl
  006b5	75 e4		 jne	 SHORT $LL4210@AddRenderI
$LN4212@AddRenderI:
  006b7	33 c0		 xor	 eax, eax
  006b9	eb 05		 jmp	 SHORT $LN4213@AddRenderI
$LN4211@AddRenderI:
  006bb	1b c0		 sbb	 eax, eax
  006bd	83 d8 ff	 sbb	 eax, -1
$LN4213@AddRenderI:
  006c0	3b c3		 cmp	 eax, ebx
  006c2	75 3c		 jne	 SHORT $LN4151@AddRenderI

; 311  : 	{
; 312  : 		SAFEDELETE( m_pSpot[SPOT_PRISON_ME] );

  006c4	8b 85 30 fd ff
	ff		 mov	 eax, DWORD PTR _this$GSCopy$[ebp]
  006ca	39 98 fc 01 00
	00		 cmp	 DWORD PTR [eax+508], ebx
  006d0	74 1d		 je	 SHORT $LN83@AddRenderI
  006d2	8b 88 fc 01 00
	00		 mov	 ecx, DWORD PTR [eax+508]
  006d8	3b cb		 cmp	 ecx, ebx
  006da	74 0d		 je	 SHORT $LN127@AddRenderI
  006dc	8b 01		 mov	 eax, DWORD PTR [ecx]
  006de	6a 01		 push	 1
  006e0	ff 50 40	 call	 DWORD PTR [eax+64]
  006e3	8b 85 30 fd ff
	ff		 mov	 eax, DWORD PTR _this$GSCopy$[ebp]
$LN127@AddRenderI:
  006e9	89 98 fc 01 00
	00		 mov	 DWORD PTR [eax+508], ebx
$LN83@AddRenderI:

; 313  : 		m_pSpot[SPOT_PRISON_ME] = pImage;

  006ef	8b 8d 28 fd ff
	ff		 mov	 ecx, DWORD PTR _pImage$GSCopy$[ebp]
  006f5	89 88 fc 01 00
	00		 mov	 DWORD PTR [eax+508], ecx
  006fb	e9 da 13 00 00	 jmp	 $LN1@AddRenderI
$LN4151@AddRenderI:

; 314  : 	}
; 315  : 	else if( szType == "SpotSymbolBlue" )

  00700	6a 03		 push	 3
  00702	c7 85 70 ff ff
	ff be 9c 84 9e	 mov	 DWORD PTR __t$537022[ebp], -1635476290 ; 9e849cbeH
  0070c	c7 85 74 ff ff
	ff be 95 86 88	 mov	 DWORD PTR __t$537022[ebp+4], -2004445762 ; 888695beH
  00716	c7 85 78 ff ff
	ff 82 80 a9 86	 mov	 DWORD PTR __t$537022[ebp+8], -2035711870 ; 86a98082H
  00720	66 c7 85 7c ff
	ff ff 98 89	 mov	 WORD PTR __t$537022[ebp+12], 35224 ; 00008998H
  00729	8d 85 70 ff ff
	ff		 lea	 eax, DWORD PTR __t$537022[ebp]
  0072f	88 9d 7e ff ff
	ff		 mov	 BYTE PTR __t$537022[ebp+14], bl
  00735	59		 pop	 ecx
$LL1240@AddRenderI:
  00736	81 30 ed ec eb
	ea		 xor	 DWORD PTR [eax], -353637139 ; eaebecedH
  0073c	83 c0 04	 add	 eax, 4
  0073f	49		 dec	 ecx
  00740	75 f4		 jne	 SHORT $LL1240@AddRenderI
  00742	8b c7		 mov	 eax, edi
$LL1237@AddRenderI:
  00744	8b c8		 mov	 ecx, eax
  00746	81 e1 03 00 00
	80		 and	 ecx, -2147483645	; 80000003H
  0074c	79 05		 jns	 SHORT $LN4340@AddRenderI
  0074e	49		 dec	 ecx
  0074f	83 c9 fc	 or	 ecx, -4			; fffffffcH
  00752	41		 inc	 ecx
$LN4340@AddRenderI:
  00753	b2 ed		 mov	 dl, -19			; ffffffedH
  00755	2a d1		 sub	 dl, cl
  00757	30 94 05 70 ff
	ff ff		 xor	 BYTE PTR __t$537022[ebp+eax], dl
  0075e	40		 inc	 eax
  0075f	83 f8 0e	 cmp	 eax, 14			; 0000000eH
  00762	7c e0		 jl	 SHORT $LL1237@AddRenderI
  00764	8b 8d 2c fd ff
	ff		 mov	 ecx, DWORD PTR _szType$GSCopy$[ebp]
  0076a	8d b5 70 ff ff
	ff		 lea	 esi, DWORD PTR __t$537022[ebp]
  00770	ff 15 00 00 00
	00		 call	 DWORD PTR __imp_?c_str@ioHashString@@QBEPBDXZ
$LL4214@AddRenderI:
  00776	8a 08		 mov	 cl, BYTE PTR [eax]
  00778	3a 0e		 cmp	 cl, BYTE PTR [esi]
  0077a	75 1a		 jne	 SHORT $LN4215@AddRenderI
  0077c	3a cb		 cmp	 cl, bl
  0077e	74 12		 je	 SHORT $LN4216@AddRenderI
  00780	8a 48 01	 mov	 cl, BYTE PTR [eax+1]
  00783	3a 4e 01	 cmp	 cl, BYTE PTR [esi+1]
  00786	75 0e		 jne	 SHORT $LN4215@AddRenderI
  00788	83 c0 02	 add	 eax, 2
  0078b	83 c6 02	 add	 esi, 2
  0078e	3a cb		 cmp	 cl, bl
  00790	75 e4		 jne	 SHORT $LL4214@AddRenderI
$LN4216@AddRenderI:
  00792	33 c0		 xor	 eax, eax
  00794	eb 05		 jmp	 SHORT $LN4217@AddRenderI
$LN4215@AddRenderI:
  00796	1b c0		 sbb	 eax, eax
  00798	83 d8 ff	 sbb	 eax, -1
$LN4217@AddRenderI:
  0079b	3b c3		 cmp	 eax, ebx
  0079d	75 3c		 jne	 SHORT $LN4152@AddRenderI

; 316  : 	{
; 317  : 		SAFEDELETE( m_pSpot[SPOT_SYMBOL] );

  0079f	8b 85 30 fd ff
	ff		 mov	 eax, DWORD PTR _this$GSCopy$[ebp]
  007a5	39 98 e8 01 00
	00		 cmp	 DWORD PTR [eax+488], ebx
  007ab	74 1d		 je	 SHORT $LN80@AddRenderI
  007ad	8b 88 e8 01 00
	00		 mov	 ecx, DWORD PTR [eax+488]
  007b3	3b cb		 cmp	 ecx, ebx
  007b5	74 0d		 je	 SHORT $LN129@AddRenderI
  007b7	8b 01		 mov	 eax, DWORD PTR [ecx]
  007b9	6a 01		 push	 1
  007bb	ff 50 40	 call	 DWORD PTR [eax+64]
  007be	8b 85 30 fd ff
	ff		 mov	 eax, DWORD PTR _this$GSCopy$[ebp]
$LN129@AddRenderI:
  007c4	89 98 e8 01 00
	00		 mov	 DWORD PTR [eax+488], ebx
$LN80@AddRenderI:

; 318  : 		m_pSpot[SPOT_SYMBOL] = pImage;

  007ca	8b 8d 28 fd ff
	ff		 mov	 ecx, DWORD PTR _pImage$GSCopy$[ebp]
  007d0	89 88 e8 01 00
	00		 mov	 DWORD PTR [eax+488], ecx
  007d6	e9 ff 12 00 00	 jmp	 $LN1@AddRenderI
$LN4152@AddRenderI:

; 319  : 	}
; 320  : 	else if( szType == "SpotSymbolRed" )

  007db	6a 03		 push	 3
  007dd	c7 85 dc fe ff
	ff be 9c 84 9e	 mov	 DWORD PTR __t$537069[ebp], -1635476290 ; 9e849cbeH
  007e7	c7 85 e0 fe ff
	ff be 95 86 88	 mov	 DWORD PTR __t$537069[ebp+4], -2004445762 ; 888695beH
  007f1	c7 85 e4 fe ff
	ff 82 80 b9 8f	 mov	 DWORD PTR __t$537069[ebp+8], -1883668350 ; 8fb98082H
  007fb	8d 85 dc fe ff
	ff		 lea	 eax, DWORD PTR __t$537069[ebp]
  00801	66 c7 85 e8 fe
	ff ff 89 00	 mov	 WORD PTR __t$537069[ebp+12], 137 ; 00000089H
  0080a	59		 pop	 ecx
$LL1346@AddRenderI:
  0080b	81 30 ed ec eb
	ea		 xor	 DWORD PTR [eax], -353637139 ; eaebecedH
  00811	83 c0 04	 add	 eax, 4
  00814	49		 dec	 ecx
  00815	75 f4		 jne	 SHORT $LL1346@AddRenderI
  00817	8b 8d 2c fd ff
	ff		 mov	 ecx, DWORD PTR _szType$GSCopy$[ebp]
  0081d	80 b5 e8 fe ff
	ff ed		 xor	 BYTE PTR __t$537069[ebp+12], -19 ; ffffffedH
  00824	8d b5 dc fe ff
	ff		 lea	 esi, DWORD PTR __t$537069[ebp]
  0082a	ff 15 00 00 00
	00		 call	 DWORD PTR __imp_?c_str@ioHashString@@QBEPBDXZ
$LL4218@AddRenderI:
  00830	8a 08		 mov	 cl, BYTE PTR [eax]
  00832	3a 0e		 cmp	 cl, BYTE PTR [esi]
  00834	75 1a		 jne	 SHORT $LN4219@AddRenderI
  00836	3a cb		 cmp	 cl, bl
  00838	74 12		 je	 SHORT $LN4220@AddRenderI
  0083a	8a 48 01	 mov	 cl, BYTE PTR [eax+1]
  0083d	3a 4e 01	 cmp	 cl, BYTE PTR [esi+1]
  00840	75 0e		 jne	 SHORT $LN4219@AddRenderI
  00842	83 c0 02	 add	 eax, 2
  00845	83 c6 02	 add	 esi, 2
  00848	3a cb		 cmp	 cl, bl
  0084a	75 e4		 jne	 SHORT $LL4218@AddRenderI
$LN4220@AddRenderI:
  0084c	33 c0		 xor	 eax, eax
  0084e	eb 05		 jmp	 SHORT $LN4221@AddRenderI
$LN4219@AddRenderI:
  00850	1b c0		 sbb	 eax, eax
  00852	83 d8 ff	 sbb	 eax, -1
$LN4221@AddRenderI:
  00855	3b c3		 cmp	 eax, ebx
  00857	75 3c		 jne	 SHORT $LN4153@AddRenderI

; 321  : 	{
; 322  : 		SAFEDELETE( m_pSpot[SPOT_SYMBOL_RED] );

  00859	8b 85 30 fd ff
	ff		 mov	 eax, DWORD PTR _this$GSCopy$[ebp]
  0085f	39 98 ec 01 00
	00		 cmp	 DWORD PTR [eax+492], ebx
  00865	74 1d		 je	 SHORT $LN77@AddRenderI
  00867	8b 88 ec 01 00
	00		 mov	 ecx, DWORD PTR [eax+492]
  0086d	3b cb		 cmp	 ecx, ebx
  0086f	74 0d		 je	 SHORT $LN131@AddRenderI
  00871	8b 01		 mov	 eax, DWORD PTR [ecx]
  00873	6a 01		 push	 1
  00875	ff 50 40	 call	 DWORD PTR [eax+64]
  00878	8b 85 30 fd ff
	ff		 mov	 eax, DWORD PTR _this$GSCopy$[ebp]
$LN131@AddRenderI:
  0087e	89 98 ec 01 00
	00		 mov	 DWORD PTR [eax+492], ebx
$LN77@AddRenderI:

; 323  : 		m_pSpot[SPOT_SYMBOL_RED] = pImage;

  00884	8b 8d 28 fd ff
	ff		 mov	 ecx, DWORD PTR _pImage$GSCopy$[ebp]
  0088a	89 88 ec 01 00
	00		 mov	 DWORD PTR [eax+492], ecx
  00890	e9 45 12 00 00	 jmp	 $LN1@AddRenderI
$LN4153@AddRenderI:

; 324  : 	}
; 325  : 	else if( szType == "SpotSymbolNeutral" )

  00895	6a 04		 push	 4
  00897	c7 85 84 fe ff
	ff be 9c 84 9e	 mov	 DWORD PTR __t$537194[ebp], -1635476290 ; 9e849cbeH
  008a1	c7 85 88 fe ff
	ff be 95 86 88	 mov	 DWORD PTR __t$537194[ebp+4], -2004445762 ; 888695beH
  008ab	c7 85 8c fe ff
	ff 82 80 a5 8f	 mov	 DWORD PTR __t$537194[ebp+8], -1884979070 ; 8fa58082H
  008b5	c7 85 90 fe ff
	ff 98 98 99 8b	 mov	 DWORD PTR __t$537194[ebp+12], -1952868200 ; 8b999898H
  008bf	8d 85 84 fe ff
	ff		 lea	 eax, DWORD PTR __t$537194[ebp]
  008c5	66 c7 85 94 fe
	ff ff 81 00	 mov	 WORD PTR __t$537194[ebp+16], 129 ; 00000081H
  008ce	59		 pop	 ecx
$LL1452@AddRenderI:
  008cf	81 30 ed ec eb
	ea		 xor	 DWORD PTR [eax], -353637139 ; eaebecedH
  008d5	83 c0 04	 add	 eax, 4
  008d8	49		 dec	 ecx
  008d9	75 f4		 jne	 SHORT $LL1452@AddRenderI
  008db	8b 8d 2c fd ff
	ff		 mov	 ecx, DWORD PTR _szType$GSCopy$[ebp]
  008e1	80 b5 94 fe ff
	ff ed		 xor	 BYTE PTR __t$537194[ebp+16], -19 ; ffffffedH
  008e8	8d b5 84 fe ff
	ff		 lea	 esi, DWORD PTR __t$537194[ebp]
  008ee	ff 15 00 00 00
	00		 call	 DWORD PTR __imp_?c_str@ioHashString@@QBEPBDXZ
$LL4222@AddRenderI:
  008f4	8a 08		 mov	 cl, BYTE PTR [eax]
  008f6	3a 0e		 cmp	 cl, BYTE PTR [esi]
  008f8	75 1a		 jne	 SHORT $LN4223@AddRenderI
  008fa	3a cb		 cmp	 cl, bl
  008fc	74 12		 je	 SHORT $LN4224@AddRenderI
  008fe	8a 48 01	 mov	 cl, BYTE PTR [eax+1]
  00901	3a 4e 01	 cmp	 cl, BYTE PTR [esi+1]
  00904	75 0e		 jne	 SHORT $LN4223@AddRenderI
  00906	83 c0 02	 add	 eax, 2
  00909	83 c6 02	 add	 esi, 2
  0090c	3a cb		 cmp	 cl, bl
  0090e	75 e4		 jne	 SHORT $LL4222@AddRenderI
$LN4224@AddRenderI:
  00910	33 c0		 xor	 eax, eax
  00912	eb 05		 jmp	 SHORT $LN4225@AddRenderI
$LN4223@AddRenderI:
  00914	1b c0		 sbb	 eax, eax
  00916	83 d8 ff	 sbb	 eax, -1
$LN4225@AddRenderI:
  00919	3b c3		 cmp	 eax, ebx
  0091b	75 3c		 jne	 SHORT $LN4154@AddRenderI

; 326  : 	{
; 327  : 		SAFEDELETE( m_pSpot[SPOT_SYMBOL_NEUTRAL] );

  0091d	8b 85 30 fd ff
	ff		 mov	 eax, DWORD PTR _this$GSCopy$[ebp]
  00923	39 98 f0 01 00
	00		 cmp	 DWORD PTR [eax+496], ebx
  00929	74 1d		 je	 SHORT $LN74@AddRenderI
  0092b	8b 88 f0 01 00
	00		 mov	 ecx, DWORD PTR [eax+496]
  00931	3b cb		 cmp	 ecx, ebx
  00933	74 0d		 je	 SHORT $LN133@AddRenderI
  00935	8b 01		 mov	 eax, DWORD PTR [ecx]
  00937	6a 01		 push	 1
  00939	ff 50 40	 call	 DWORD PTR [eax+64]
  0093c	8b 85 30 fd ff
	ff		 mov	 eax, DWORD PTR _this$GSCopy$[ebp]
$LN133@AddRenderI:
  00942	89 98 f0 01 00
	00		 mov	 DWORD PTR [eax+496], ebx
$LN74@AddRenderI:

; 328  : 		m_pSpot[SPOT_SYMBOL_NEUTRAL] = pImage;

  00948	8b 8d 28 fd ff
	ff		 mov	 ecx, DWORD PTR _pImage$GSCopy$[ebp]
  0094e	89 88 f0 01 00
	00		 mov	 DWORD PTR [eax+496], ecx
  00954	e9 81 11 00 00	 jmp	 $LN1@AddRenderI
$LN4154@AddRenderI:

; 329  : 	}
; 330  : 	else if( szType == "SpotCrownBlue" )

  00959	6a 03		 push	 3
  0095b	c7 85 f0 fe ff
	ff be 9c 84 9e	 mov	 DWORD PTR __t$537319[ebp], -1635476290 ; 9e849cbeH
  00965	c7 85 f4 fe ff
	ff ae 9e 84 9d	 mov	 DWORD PTR __t$537319[ebp+4], -1652253010 ; 9d849eaeH
  0096f	c7 85 f8 fe ff
	ff 83 ae 87 9f	 mov	 DWORD PTR __t$537319[ebp+8], -1618497917 ; 9f87ae83H
  00979	8d 85 f0 fe ff
	ff		 lea	 eax, DWORD PTR __t$537319[ebp]
  0097f	66 c7 85 fc fe
	ff ff 88 00	 mov	 WORD PTR __t$537319[ebp+12], 136 ; 00000088H
  00988	59		 pop	 ecx
$LL1558@AddRenderI:
  00989	81 30 ed ec eb
	ea		 xor	 DWORD PTR [eax], -353637139 ; eaebecedH
  0098f	83 c0 04	 add	 eax, 4
  00992	49		 dec	 ecx
  00993	75 f4		 jne	 SHORT $LL1558@AddRenderI
  00995	8b 8d 2c fd ff
	ff		 mov	 ecx, DWORD PTR _szType$GSCopy$[ebp]
  0099b	80 b5 fc fe ff
	ff ed		 xor	 BYTE PTR __t$537319[ebp+12], -19 ; ffffffedH
  009a2	8d b5 f0 fe ff
	ff		 lea	 esi, DWORD PTR __t$537319[ebp]
  009a8	ff 15 00 00 00
	00		 call	 DWORD PTR __imp_?c_str@ioHashString@@QBEPBDXZ
$LL4226@AddRenderI:
  009ae	8a 08		 mov	 cl, BYTE PTR [eax]
  009b0	3a 0e		 cmp	 cl, BYTE PTR [esi]
  009b2	75 1a		 jne	 SHORT $LN4227@AddRenderI
  009b4	3a cb		 cmp	 cl, bl
  009b6	74 12		 je	 SHORT $LN4228@AddRenderI
  009b8	8a 48 01	 mov	 cl, BYTE PTR [eax+1]
  009bb	3a 4e 01	 cmp	 cl, BYTE PTR [esi+1]
  009be	75 0e		 jne	 SHORT $LN4227@AddRenderI
  009c0	83 c0 02	 add	 eax, 2
  009c3	83 c6 02	 add	 esi, 2
  009c6	3a cb		 cmp	 cl, bl
  009c8	75 e4		 jne	 SHORT $LL4226@AddRenderI
$LN4228@AddRenderI:
  009ca	33 c0		 xor	 eax, eax
  009cc	eb 05		 jmp	 SHORT $LN4229@AddRenderI
$LN4227@AddRenderI:
  009ce	1b c0		 sbb	 eax, eax
  009d0	83 d8 ff	 sbb	 eax, -1
$LN4229@AddRenderI:
  009d3	3b c3		 cmp	 eax, ebx
  009d5	75 3c		 jne	 SHORT $LN4155@AddRenderI

; 331  : 	{
; 332  : 		SAFEDELETE( m_pSpot[SPOT_KING_USER] );

  009d7	8b 85 30 fd ff
	ff		 mov	 eax, DWORD PTR _this$GSCopy$[ebp]
  009dd	39 98 00 02 00
	00		 cmp	 DWORD PTR [eax+512], ebx
  009e3	74 1d		 je	 SHORT $LN71@AddRenderI
  009e5	8b 88 00 02 00
	00		 mov	 ecx, DWORD PTR [eax+512]
  009eb	3b cb		 cmp	 ecx, ebx
  009ed	74 0d		 je	 SHORT $LN135@AddRenderI
  009ef	8b 01		 mov	 eax, DWORD PTR [ecx]
  009f1	6a 01		 push	 1
  009f3	ff 50 40	 call	 DWORD PTR [eax+64]
  009f6	8b 85 30 fd ff
	ff		 mov	 eax, DWORD PTR _this$GSCopy$[ebp]
$LN135@AddRenderI:
  009fc	89 98 00 02 00
	00		 mov	 DWORD PTR [eax+512], ebx
$LN71@AddRenderI:

; 333  : 		m_pSpot[SPOT_KING_USER] = pImage;

  00a02	8b 8d 28 fd ff
	ff		 mov	 ecx, DWORD PTR _pImage$GSCopy$[ebp]
  00a08	89 88 00 02 00
	00		 mov	 DWORD PTR [eax+512], ecx
  00a0e	e9 c7 10 00 00	 jmp	 $LN1@AddRenderI
$LN4155@AddRenderI:

; 334  : 	}
; 335  : 	else if( szType == "SpotCrownRed" )

  00a13	6a 03		 push	 3
  00a15	c7 85 68 fd ff
	ff be 9c 84 9e	 mov	 DWORD PTR __t$537444[ebp], -1635476290 ; 9e849cbeH
  00a1f	c7 85 6c fd ff
	ff ae 9e 84 9d	 mov	 DWORD PTR __t$537444[ebp+4], -1652253010 ; 9d849eaeH
  00a29	c7 85 70 fd ff
	ff 83 be 8e 8e	 mov	 DWORD PTR __t$537444[ebp+8], -1903247741 ; 8e8ebe83H
  00a33	8d 85 68 fd ff
	ff		 lea	 eax, DWORD PTR __t$537444[ebp]
  00a39	88 9d 74 fd ff
	ff		 mov	 BYTE PTR __t$537444[ebp+12], bl
  00a3f	59		 pop	 ecx
$LL1664@AddRenderI:
  00a40	81 30 ed ec eb
	ea		 xor	 DWORD PTR [eax], -353637139 ; eaebecedH
  00a46	83 c0 04	 add	 eax, 4
  00a49	49		 dec	 ecx
  00a4a	75 f4		 jne	 SHORT $LL1664@AddRenderI
  00a4c	8b 8d 2c fd ff
	ff		 mov	 ecx, DWORD PTR _szType$GSCopy$[ebp]
  00a52	8d b5 68 fd ff
	ff		 lea	 esi, DWORD PTR __t$537444[ebp]
  00a58	ff 15 00 00 00
	00		 call	 DWORD PTR __imp_?c_str@ioHashString@@QBEPBDXZ
$LL4230@AddRenderI:
  00a5e	8a 08		 mov	 cl, BYTE PTR [eax]
  00a60	3a 0e		 cmp	 cl, BYTE PTR [esi]
  00a62	75 1a		 jne	 SHORT $LN4231@AddRenderI
  00a64	3a cb		 cmp	 cl, bl
  00a66	74 12		 je	 SHORT $LN4232@AddRenderI
  00a68	8a 48 01	 mov	 cl, BYTE PTR [eax+1]
  00a6b	3a 4e 01	 cmp	 cl, BYTE PTR [esi+1]
  00a6e	75 0e		 jne	 SHORT $LN4231@AddRenderI
  00a70	83 c0 02	 add	 eax, 2
  00a73	83 c6 02	 add	 esi, 2
  00a76	3a cb		 cmp	 cl, bl
  00a78	75 e4		 jne	 SHORT $LL4230@AddRenderI
$LN4232@AddRenderI:
  00a7a	33 c0		 xor	 eax, eax
  00a7c	eb 05		 jmp	 SHORT $LN4233@AddRenderI
$LN4231@AddRenderI:
  00a7e	1b c0		 sbb	 eax, eax
  00a80	83 d8 ff	 sbb	 eax, -1
$LN4233@AddRenderI:
  00a83	3b c3		 cmp	 eax, ebx
  00a85	75 3c		 jne	 SHORT $LN4156@AddRenderI

; 336  : 	{
; 337  : 		SAFEDELETE( m_pSpot[SPOT_KING_USER_RED] );

  00a87	8b 85 30 fd ff
	ff		 mov	 eax, DWORD PTR _this$GSCopy$[ebp]
  00a8d	39 98 04 02 00
	00		 cmp	 DWORD PTR [eax+516], ebx
  00a93	74 1d		 je	 SHORT $LN68@AddRenderI
  00a95	8b 88 04 02 00
	00		 mov	 ecx, DWORD PTR [eax+516]
  00a9b	3b cb		 cmp	 ecx, ebx
  00a9d	74 0d		 je	 SHORT $LN137@AddRenderI
  00a9f	8b 01		 mov	 eax, DWORD PTR [ecx]
  00aa1	6a 01		 push	 1
  00aa3	ff 50 40	 call	 DWORD PTR [eax+64]
  00aa6	8b 85 30 fd ff
	ff		 mov	 eax, DWORD PTR _this$GSCopy$[ebp]
$LN137@AddRenderI:
  00aac	89 98 04 02 00
	00		 mov	 DWORD PTR [eax+516], ebx
$LN68@AddRenderI:

; 338  : 		m_pSpot[SPOT_KING_USER_RED] = pImage;

  00ab2	8b 8d 28 fd ff
	ff		 mov	 ecx, DWORD PTR _pImage$GSCopy$[ebp]
  00ab8	89 88 04 02 00
	00		 mov	 DWORD PTR [eax+516], ecx
  00abe	e9 17 10 00 00	 jmp	 $LN1@AddRenderI
$LN4156@AddRenderI:

; 339  : 	}
; 340  : 	else if( szType == "SpotCrownNeutral" )

  00ac3	6a 04		 push	 4
  00ac5	c7 85 e0 fd ff
	ff be 9c 84 9e	 mov	 DWORD PTR __t$537569[ebp], -1635476290 ; 9e849cbeH
  00acf	c7 85 e4 fd ff
	ff ae 9e 84 9d	 mov	 DWORD PTR __t$537569[ebp+4], -1652253010 ; 9d849eaeH
  00ad9	c7 85 e8 fd ff
	ff 83 a2 8e 9f	 mov	 DWORD PTR __t$537569[ebp+8], -1618042237 ; 9f8ea283H
  00ae3	c7 85 ec fd ff
	ff 99 9e 8a 86	 mov	 DWORD PTR __t$537569[ebp+12], -2037735783 ; 868a9e99H
  00aed	8d 85 e0 fd ff
	ff		 lea	 eax, DWORD PTR __t$537569[ebp]
  00af3	88 9d f0 fd ff
	ff		 mov	 BYTE PTR __t$537569[ebp+16], bl
  00af9	59		 pop	 ecx
$LL1770@AddRenderI:
  00afa	81 30 ed ec eb
	ea		 xor	 DWORD PTR [eax], -353637139 ; eaebecedH
  00b00	83 c0 04	 add	 eax, 4
  00b03	49		 dec	 ecx
  00b04	75 f4		 jne	 SHORT $LL1770@AddRenderI
  00b06	8b 8d 2c fd ff
	ff		 mov	 ecx, DWORD PTR _szType$GSCopy$[ebp]
  00b0c	8d b5 e0 fd ff
	ff		 lea	 esi, DWORD PTR __t$537569[ebp]
  00b12	ff 15 00 00 00
	00		 call	 DWORD PTR __imp_?c_str@ioHashString@@QBEPBDXZ
$LL4234@AddRenderI:
  00b18	8a 08		 mov	 cl, BYTE PTR [eax]
  00b1a	3a 0e		 cmp	 cl, BYTE PTR [esi]
  00b1c	75 1a		 jne	 SHORT $LN4235@AddRenderI
  00b1e	3a cb		 cmp	 cl, bl
  00b20	74 12		 je	 SHORT $LN4325@AddRenderI
  00b22	8a 48 01	 mov	 cl, BYTE PTR [eax+1]
  00b25	3a 4e 01	 cmp	 cl, BYTE PTR [esi+1]
  00b28	75 0e		 jne	 SHORT $LN4235@AddRenderI
  00b2a	83 c0 02	 add	 eax, 2
  00b2d	83 c6 02	 add	 esi, 2
  00b30	3a cb		 cmp	 cl, bl
  00b32	75 e4		 jne	 SHORT $LL4234@AddRenderI
$LN4325@AddRenderI:
  00b34	33 c0		 xor	 eax, eax
  00b36	eb 05		 jmp	 SHORT $LN4237@AddRenderI
$LN4235@AddRenderI:
  00b38	1b c0		 sbb	 eax, eax
  00b3a	83 d8 ff	 sbb	 eax, -1
$LN4237@AddRenderI:
  00b3d	3b c3		 cmp	 eax, ebx
  00b3f	75 3c		 jne	 SHORT $LN4157@AddRenderI

; 341  : 	{
; 342  : 		SAFEDELETE( m_pSpot[SPOT_CROWN] );

  00b41	8b 85 30 fd ff
	ff		 mov	 eax, DWORD PTR _this$GSCopy$[ebp]
  00b47	39 98 08 02 00
	00		 cmp	 DWORD PTR [eax+520], ebx
  00b4d	74 1d		 je	 SHORT $LN65@AddRenderI
  00b4f	8b 88 08 02 00
	00		 mov	 ecx, DWORD PTR [eax+520]
  00b55	3b cb		 cmp	 ecx, ebx
  00b57	74 0d		 je	 SHORT $LN139@AddRenderI
  00b59	8b 01		 mov	 eax, DWORD PTR [ecx]
  00b5b	6a 01		 push	 1
  00b5d	ff 50 40	 call	 DWORD PTR [eax+64]
  00b60	8b 85 30 fd ff
	ff		 mov	 eax, DWORD PTR _this$GSCopy$[ebp]
$LN139@AddRenderI:
  00b66	89 98 08 02 00
	00		 mov	 DWORD PTR [eax+520], ebx
$LN65@AddRenderI:

; 343  : 		m_pSpot[SPOT_CROWN] = pImage;

  00b6c	8b 8d 28 fd ff
	ff		 mov	 ecx, DWORD PTR _pImage$GSCopy$[ebp]
  00b72	89 88 08 02 00
	00		 mov	 DWORD PTR [eax+520], ecx
  00b78	e9 5d 0f 00 00	 jmp	 $LN1@AddRenderI
$LN4157@AddRenderI:

; 344  : 	}
; 345  : 	else if( szType == "SpotCrownMe" )

  00b7d	6a 02		 push	 2
  00b7f	c7 85 74 fe ff
	ff be 9c 84 9e	 mov	 DWORD PTR __t$537707[ebp], -1635476290 ; 9e849cbeH
  00b89	c7 85 78 fe ff
	ff ae 9e 84 9d	 mov	 DWORD PTR __t$537707[ebp+4], -1652253010 ; 9d849eaeH
  00b93	8d 85 74 fe ff
	ff		 lea	 eax, DWORD PTR __t$537707[ebp]
  00b99	c7 85 7c fe ff
	ff 83 a1 8e 00	 mov	 DWORD PTR __t$537707[ebp+8], 9347459 ; 008ea183H
  00ba3	59		 pop	 ecx
$LL1876@AddRenderI:
  00ba4	81 30 ed ec eb
	ea		 xor	 DWORD PTR [eax], -353637139 ; eaebecedH
  00baa	83 c0 04	 add	 eax, 4
  00bad	49		 dec	 ecx
  00bae	75 f4		 jne	 SHORT $LL1876@AddRenderI
  00bb0	6a 08		 push	 8
  00bb2	58		 pop	 eax
$LL1873@AddRenderI:
  00bb3	8b c8		 mov	 ecx, eax
  00bb5	81 e1 03 00 00
	80		 and	 ecx, -2147483645	; 80000003H
  00bbb	79 05		 jns	 SHORT $LN4341@AddRenderI
  00bbd	49		 dec	 ecx
  00bbe	83 c9 fc	 or	 ecx, -4			; fffffffcH
  00bc1	41		 inc	 ecx
$LN4341@AddRenderI:
  00bc2	b2 ed		 mov	 dl, -19			; ffffffedH
  00bc4	2a d1		 sub	 dl, cl
  00bc6	30 94 05 74 fe
	ff ff		 xor	 BYTE PTR __t$537707[ebp+eax], dl
  00bcd	40		 inc	 eax
  00bce	83 f8 0b	 cmp	 eax, 11			; 0000000bH
  00bd1	7c e0		 jl	 SHORT $LL1873@AddRenderI
  00bd3	8b 8d 2c fd ff
	ff		 mov	 ecx, DWORD PTR _szType$GSCopy$[ebp]
  00bd9	8d b5 74 fe ff
	ff		 lea	 esi, DWORD PTR __t$537707[ebp]
  00bdf	ff 15 00 00 00
	00		 call	 DWORD PTR __imp_?c_str@ioHashString@@QBEPBDXZ
$LL4238@AddRenderI:
  00be5	8a 08		 mov	 cl, BYTE PTR [eax]
  00be7	3a 0e		 cmp	 cl, BYTE PTR [esi]
  00be9	75 1a		 jne	 SHORT $LN4239@AddRenderI
  00beb	3a cb		 cmp	 cl, bl
  00bed	74 12		 je	 SHORT $LN4326@AddRenderI
  00bef	8a 48 01	 mov	 cl, BYTE PTR [eax+1]
  00bf2	3a 4e 01	 cmp	 cl, BYTE PTR [esi+1]
  00bf5	75 0e		 jne	 SHORT $LN4239@AddRenderI
  00bf7	83 c0 02	 add	 eax, 2
  00bfa	83 c6 02	 add	 esi, 2
  00bfd	3a cb		 cmp	 cl, bl
  00bff	75 e4		 jne	 SHORT $LL4238@AddRenderI
$LN4326@AddRenderI:
  00c01	33 c0		 xor	 eax, eax
  00c03	eb 05		 jmp	 SHORT $LN4241@AddRenderI
$LN4239@AddRenderI:
  00c05	1b c0		 sbb	 eax, eax
  00c07	83 d8 ff	 sbb	 eax, -1
$LN4241@AddRenderI:
  00c0a	3b c3		 cmp	 eax, ebx
  00c0c	75 3c		 jne	 SHORT $LN4158@AddRenderI

; 346  : 	{
; 347  : 		SAFEDELETE( m_pSpot[SPOT_KING_ME] );

  00c0e	8b 85 30 fd ff
	ff		 mov	 eax, DWORD PTR _this$GSCopy$[ebp]
  00c14	39 98 0c 02 00
	00		 cmp	 DWORD PTR [eax+524], ebx
  00c1a	74 1d		 je	 SHORT $LN62@AddRenderI
  00c1c	8b 88 0c 02 00
	00		 mov	 ecx, DWORD PTR [eax+524]
  00c22	3b cb		 cmp	 ecx, ebx
  00c24	74 0d		 je	 SHORT $LN141@AddRenderI
  00c26	8b 01		 mov	 eax, DWORD PTR [ecx]
  00c28	6a 01		 push	 1
  00c2a	ff 50 40	 call	 DWORD PTR [eax+64]
  00c2d	8b 85 30 fd ff
	ff		 mov	 eax, DWORD PTR _this$GSCopy$[ebp]
$LN141@AddRenderI:
  00c33	89 98 0c 02 00
	00		 mov	 DWORD PTR [eax+524], ebx
$LN62@AddRenderI:

; 348  : 		m_pSpot[SPOT_KING_ME] = pImage;

  00c39	8b 8d 28 fd ff
	ff		 mov	 ecx, DWORD PTR _pImage$GSCopy$[ebp]
  00c3f	89 88 0c 02 00
	00		 mov	 DWORD PTR [eax+524], ecx
  00c45	e9 90 0e 00 00	 jmp	 $LN1@AddRenderI
$LN4158@AddRenderI:

; 349  : 	}
; 350  : 	else if( szType == "SpotBossMon" )

  00c4a	6a 02		 push	 2
  00c4c	c7 85 3c ff ff
	ff be 9c 84 9e	 mov	 DWORD PTR __t$537832[ebp], -1635476290 ; 9e849cbeH
  00c56	c7 85 40 ff ff
	ff af 83 98 99	 mov	 DWORD PTR __t$537832[ebp+4], -1718058065 ; 999883afH
  00c60	8d 85 3c ff ff
	ff		 lea	 eax, DWORD PTR __t$537832[ebp]
  00c66	c7 85 44 ff ff
	ff a0 83 85 00	 mov	 DWORD PTR __t$537832[ebp+8], 8749984 ; 008583a0H
  00c70	59		 pop	 ecx
$LL1982@AddRenderI:
  00c71	81 30 ed ec eb
	ea		 xor	 DWORD PTR [eax], -353637139 ; eaebecedH
  00c77	83 c0 04	 add	 eax, 4
  00c7a	49		 dec	 ecx
  00c7b	75 f4		 jne	 SHORT $LL1982@AddRenderI
  00c7d	6a 08		 push	 8
  00c7f	58		 pop	 eax
$LL1979@AddRenderI:
  00c80	8b c8		 mov	 ecx, eax
  00c82	81 e1 03 00 00
	80		 and	 ecx, -2147483645	; 80000003H
  00c88	79 05		 jns	 SHORT $LN4342@AddRenderI
  00c8a	49		 dec	 ecx
  00c8b	83 c9 fc	 or	 ecx, -4			; fffffffcH
  00c8e	41		 inc	 ecx
$LN4342@AddRenderI:
  00c8f	b2 ed		 mov	 dl, -19			; ffffffedH
  00c91	2a d1		 sub	 dl, cl
  00c93	30 94 05 3c ff
	ff ff		 xor	 BYTE PTR __t$537832[ebp+eax], dl
  00c9a	40		 inc	 eax
  00c9b	83 f8 0b	 cmp	 eax, 11			; 0000000bH
  00c9e	7c e0		 jl	 SHORT $LL1979@AddRenderI
  00ca0	8b 8d 2c fd ff
	ff		 mov	 ecx, DWORD PTR _szType$GSCopy$[ebp]
  00ca6	8d b5 3c ff ff
	ff		 lea	 esi, DWORD PTR __t$537832[ebp]
  00cac	ff 15 00 00 00
	00		 call	 DWORD PTR __imp_?c_str@ioHashString@@QBEPBDXZ
$LL4242@AddRenderI:
  00cb2	8a 08		 mov	 cl, BYTE PTR [eax]
  00cb4	3a 0e		 cmp	 cl, BYTE PTR [esi]
  00cb6	75 1a		 jne	 SHORT $LN4243@AddRenderI
  00cb8	3a cb		 cmp	 cl, bl
  00cba	74 12		 je	 SHORT $LN4244@AddRenderI
  00cbc	8a 48 01	 mov	 cl, BYTE PTR [eax+1]
  00cbf	3a 4e 01	 cmp	 cl, BYTE PTR [esi+1]
  00cc2	75 0e		 jne	 SHORT $LN4243@AddRenderI
  00cc4	83 c0 02	 add	 eax, 2
  00cc7	83 c6 02	 add	 esi, 2
  00cca	3a cb		 cmp	 cl, bl
  00ccc	75 e4		 jne	 SHORT $LL4242@AddRenderI
$LN4244@AddRenderI:
  00cce	33 c0		 xor	 eax, eax
  00cd0	eb 05		 jmp	 SHORT $LN4245@AddRenderI
$LN4243@AddRenderI:
  00cd2	1b c0		 sbb	 eax, eax
  00cd4	83 d8 ff	 sbb	 eax, -1
$LN4245@AddRenderI:
  00cd7	3b c3		 cmp	 eax, ebx
  00cd9	75 3c		 jne	 SHORT $LN4159@AddRenderI

; 351  : 	{
; 352  : 		SAFEDELETE( m_pSpot[SPOT_BOSS_MON] );

  00cdb	8b 85 30 fd ff
	ff		 mov	 eax, DWORD PTR _this$GSCopy$[ebp]
  00ce1	39 98 18 02 00
	00		 cmp	 DWORD PTR [eax+536], ebx
  00ce7	74 1d		 je	 SHORT $LN59@AddRenderI
  00ce9	8b 88 18 02 00
	00		 mov	 ecx, DWORD PTR [eax+536]
  00cef	3b cb		 cmp	 ecx, ebx
  00cf1	74 0d		 je	 SHORT $LN143@AddRenderI
  00cf3	8b 01		 mov	 eax, DWORD PTR [ecx]
  00cf5	6a 01		 push	 1
  00cf7	ff 50 40	 call	 DWORD PTR [eax+64]
  00cfa	8b 85 30 fd ff
	ff		 mov	 eax, DWORD PTR _this$GSCopy$[ebp]
$LN143@AddRenderI:
  00d00	89 98 18 02 00
	00		 mov	 DWORD PTR [eax+536], ebx
$LN59@AddRenderI:

; 353  : 		m_pSpot[SPOT_BOSS_MON] = pImage;

  00d06	8b 8d 28 fd ff
	ff		 mov	 ecx, DWORD PTR _pImage$GSCopy$[ebp]
  00d0c	89 88 18 02 00
	00		 mov	 DWORD PTR [eax+536], ecx
  00d12	e9 c3 0d 00 00	 jmp	 $LN1@AddRenderI
$LN4159@AddRenderI:

; 354  : 	}
; 355  : 	else if( szType == "SpotDropBossMon" )

  00d17	6a 03		 push	 3
  00d19	c7 85 04 ff ff
	ff be 9c 84 9e	 mov	 DWORD PTR __t$537957[ebp], -1635476290 ; 9e849cbeH
  00d23	c7 85 08 ff ff
	ff a9 9e 84 9a	 mov	 DWORD PTR __t$537957[ebp+4], -1702584663 ; 9a849ea9H
  00d2d	c7 85 0c ff ff
	ff af 83 98 99	 mov	 DWORD PTR __t$537957[ebp+8], -1718058065 ; 999883afH
  00d37	8d 85 04 ff ff
	ff		 lea	 eax, DWORD PTR __t$537957[ebp]
  00d3d	c7 85 10 ff ff
	ff a0 83 85 00	 mov	 DWORD PTR __t$537957[ebp+12], 8749984 ; 008583a0H
  00d47	59		 pop	 ecx
$LL2088@AddRenderI:
  00d48	81 30 ed ec eb
	ea		 xor	 DWORD PTR [eax], -353637139 ; eaebecedH
  00d4e	83 c0 04	 add	 eax, 4
  00d51	49		 dec	 ecx
  00d52	75 f4		 jne	 SHORT $LL2088@AddRenderI
  00d54	8b c7		 mov	 eax, edi
$LL2085@AddRenderI:
  00d56	8b c8		 mov	 ecx, eax
  00d58	81 e1 03 00 00
	80		 and	 ecx, -2147483645	; 80000003H
  00d5e	79 05		 jns	 SHORT $LN4343@AddRenderI
  00d60	49		 dec	 ecx
  00d61	83 c9 fc	 or	 ecx, -4			; fffffffcH
  00d64	41		 inc	 ecx
$LN4343@AddRenderI:
  00d65	b2 ed		 mov	 dl, -19			; ffffffedH
  00d67	2a d1		 sub	 dl, cl
  00d69	30 94 05 04 ff
	ff ff		 xor	 BYTE PTR __t$537957[ebp+eax], dl
  00d70	40		 inc	 eax
  00d71	83 f8 0f	 cmp	 eax, 15			; 0000000fH
  00d74	7c e0		 jl	 SHORT $LL2085@AddRenderI
  00d76	8b 8d 2c fd ff
	ff		 mov	 ecx, DWORD PTR _szType$GSCopy$[ebp]
  00d7c	8d b5 04 ff ff
	ff		 lea	 esi, DWORD PTR __t$537957[ebp]
  00d82	ff 15 00 00 00
	00		 call	 DWORD PTR __imp_?c_str@ioHashString@@QBEPBDXZ
$LL4246@AddRenderI:
  00d88	8a 08		 mov	 cl, BYTE PTR [eax]
  00d8a	3a 0e		 cmp	 cl, BYTE PTR [esi]
  00d8c	75 1a		 jne	 SHORT $LN4247@AddRenderI
  00d8e	3a cb		 cmp	 cl, bl
  00d90	74 12		 je	 SHORT $LN4248@AddRenderI
  00d92	8a 48 01	 mov	 cl, BYTE PTR [eax+1]
  00d95	3a 4e 01	 cmp	 cl, BYTE PTR [esi+1]
  00d98	75 0e		 jne	 SHORT $LN4247@AddRenderI
  00d9a	83 c0 02	 add	 eax, 2
  00d9d	83 c6 02	 add	 esi, 2
  00da0	3a cb		 cmp	 cl, bl
  00da2	75 e4		 jne	 SHORT $LL4246@AddRenderI
$LN4248@AddRenderI:
  00da4	33 c0		 xor	 eax, eax
  00da6	eb 05		 jmp	 SHORT $LN4249@AddRenderI
$LN4247@AddRenderI:
  00da8	1b c0		 sbb	 eax, eax
  00daa	83 d8 ff	 sbb	 eax, -1
$LN4249@AddRenderI:
  00dad	3b c3		 cmp	 eax, ebx
  00daf	75 36		 jne	 SHORT $LN4160@AddRenderI

; 356  : 	{
; 357  : 		SAFEDELETE( m_pSpot[SPOT_DROP_BOSS_MON] );

  00db1	8b b5 30 fd ff
	ff		 mov	 esi, DWORD PTR _this$GSCopy$[ebp]
  00db7	39 9e 1c 02 00
	00		 cmp	 DWORD PTR [esi+540], ebx
  00dbd	74 17		 je	 SHORT $LN56@AddRenderI
  00dbf	8b 8e 1c 02 00
	00		 mov	 ecx, DWORD PTR [esi+540]
  00dc5	3b cb		 cmp	 ecx, ebx
  00dc7	74 07		 je	 SHORT $LN145@AddRenderI
  00dc9	8b 01		 mov	 eax, DWORD PTR [ecx]
  00dcb	6a 01		 push	 1
  00dcd	ff 50 40	 call	 DWORD PTR [eax+64]
$LN145@AddRenderI:
  00dd0	89 9e 1c 02 00
	00		 mov	 DWORD PTR [esi+540], ebx
$LN56@AddRenderI:

; 358  : 		m_pSpot[SPOT_DROP_BOSS_MON] = pImage;

  00dd6	8b 85 28 fd ff
	ff		 mov	 eax, DWORD PTR _pImage$GSCopy$[ebp]
  00ddc	89 86 1c 02 00
	00		 mov	 DWORD PTR [esi+540], eax
  00de2	e9 f3 0c 00 00	 jmp	 $LN1@AddRenderI
$LN4160@AddRenderI:

; 359  : 	}
; 360  : 	else if( szType == "SpotDeathMon" )

  00de7	6a 03		 push	 3
  00de9	c7 85 7c fd ff
	ff be 9c 84 9e	 mov	 DWORD PTR __t$538069[ebp], -1635476290 ; 9e849cbeH
  00df3	c7 85 80 fd ff
	ff a9 89 8a 9e	 mov	 DWORD PTR __t$538069[ebp+4], -1635087959 ; 9e8a89a9H
  00dfd	c7 85 84 fd ff
	ff 85 a1 84 84	 mov	 DWORD PTR __t$538069[ebp+8], -2071682683 ; 8484a185H
  00e07	8d 85 7c fd ff
	ff		 lea	 eax, DWORD PTR __t$538069[ebp]
  00e0d	88 9d 88 fd ff
	ff		 mov	 BYTE PTR __t$538069[ebp+12], bl
  00e13	59		 pop	 ecx
  00e14	bf ed ec eb ea	 mov	 edi, -353637139		; eaebecedH
$LL2194@AddRenderI:
  00e19	31 38		 xor	 DWORD PTR [eax], edi
  00e1b	83 c0 04	 add	 eax, 4
  00e1e	49		 dec	 ecx
  00e1f	75 f8		 jne	 SHORT $LL2194@AddRenderI
  00e21	8b 8d 2c fd ff
	ff		 mov	 ecx, DWORD PTR _szType$GSCopy$[ebp]
  00e27	8d b5 7c fd ff
	ff		 lea	 esi, DWORD PTR __t$538069[ebp]
  00e2d	ff 15 00 00 00
	00		 call	 DWORD PTR __imp_?c_str@ioHashString@@QBEPBDXZ
$LL4250@AddRenderI:
  00e33	8a 08		 mov	 cl, BYTE PTR [eax]
  00e35	3a 0e		 cmp	 cl, BYTE PTR [esi]
  00e37	75 1a		 jne	 SHORT $LN4251@AddRenderI
  00e39	3a cb		 cmp	 cl, bl
  00e3b	74 12		 je	 SHORT $LN4327@AddRenderI
  00e3d	8a 48 01	 mov	 cl, BYTE PTR [eax+1]
  00e40	3a 4e 01	 cmp	 cl, BYTE PTR [esi+1]
  00e43	75 0e		 jne	 SHORT $LN4251@AddRenderI
  00e45	83 c0 02	 add	 eax, 2
  00e48	83 c6 02	 add	 esi, 2
  00e4b	3a cb		 cmp	 cl, bl
  00e4d	75 e4		 jne	 SHORT $LL4250@AddRenderI
$LN4327@AddRenderI:
  00e4f	33 c0		 xor	 eax, eax
  00e51	eb 05		 jmp	 SHORT $LN4253@AddRenderI
$LN4251@AddRenderI:
  00e53	1b c0		 sbb	 eax, eax
  00e55	83 d8 ff	 sbb	 eax, -1
$LN4253@AddRenderI:
  00e58	3b c3		 cmp	 eax, ebx
  00e5a	75 36		 jne	 SHORT $LN4161@AddRenderI

; 361  : 	{
; 362  : 		SAFEDELETE( m_pSpot[SPOT_DEATH_MON] );

  00e5c	8b b5 30 fd ff
	ff		 mov	 esi, DWORD PTR _this$GSCopy$[ebp]
  00e62	39 9e 14 02 00
	00		 cmp	 DWORD PTR [esi+532], ebx
  00e68	74 17		 je	 SHORT $LN53@AddRenderI
  00e6a	8b 8e 14 02 00
	00		 mov	 ecx, DWORD PTR [esi+532]
  00e70	3b cb		 cmp	 ecx, ebx
  00e72	74 07		 je	 SHORT $LN147@AddRenderI
  00e74	8b 01		 mov	 eax, DWORD PTR [ecx]
  00e76	6a 01		 push	 1
  00e78	ff 50 40	 call	 DWORD PTR [eax+64]
$LN147@AddRenderI:
  00e7b	89 9e 14 02 00
	00		 mov	 DWORD PTR [esi+532], ebx
$LN53@AddRenderI:

; 363  : 		m_pSpot[SPOT_DEATH_MON] = pImage;

  00e81	8b 85 28 fd ff
	ff		 mov	 eax, DWORD PTR _pImage$GSCopy$[ebp]
  00e87	89 86 14 02 00
	00		 mov	 DWORD PTR [esi+532], eax
  00e8d	e9 48 0c 00 00	 jmp	 $LN1@AddRenderI
$LN4161@AddRenderI:

; 364  : 	}
; 365  : 	else if( szType == "SpotBall" )

  00e92	6a 02		 push	 2
  00e94	c7 85 44 fd ff
	ff be 9c 84 9e	 mov	 DWORD PTR __t$538194[ebp], -1635476290 ; 9e849cbeH
  00e9e	c7 85 48 fd ff
	ff af 8d 87 86	 mov	 DWORD PTR __t$538194[ebp+4], -2037936721 ; 86878dafH
  00ea8	8d 85 44 fd ff
	ff		 lea	 eax, DWORD PTR __t$538194[ebp]
  00eae	88 9d 4c fd ff
	ff		 mov	 BYTE PTR __t$538194[ebp+8], bl
  00eb4	59		 pop	 ecx
$LL2300@AddRenderI:
  00eb5	31 38		 xor	 DWORD PTR [eax], edi
  00eb7	83 c0 04	 add	 eax, 4
  00eba	49		 dec	 ecx
  00ebb	75 f8		 jne	 SHORT $LL2300@AddRenderI
  00ebd	8b 8d 2c fd ff
	ff		 mov	 ecx, DWORD PTR _szType$GSCopy$[ebp]
  00ec3	8d b5 44 fd ff
	ff		 lea	 esi, DWORD PTR __t$538194[ebp]
  00ec9	ff 15 00 00 00
	00		 call	 DWORD PTR __imp_?c_str@ioHashString@@QBEPBDXZ
$LL4254@AddRenderI:
  00ecf	8a 08		 mov	 cl, BYTE PTR [eax]
  00ed1	3a 0e		 cmp	 cl, BYTE PTR [esi]
  00ed3	75 1a		 jne	 SHORT $LN4255@AddRenderI
  00ed5	3a cb		 cmp	 cl, bl
  00ed7	74 12		 je	 SHORT $LN4256@AddRenderI
  00ed9	8a 48 01	 mov	 cl, BYTE PTR [eax+1]
  00edc	3a 4e 01	 cmp	 cl, BYTE PTR [esi+1]
  00edf	75 0e		 jne	 SHORT $LN4255@AddRenderI
  00ee1	83 c0 02	 add	 eax, 2
  00ee4	83 c6 02	 add	 esi, 2
  00ee7	3a cb		 cmp	 cl, bl
  00ee9	75 e4		 jne	 SHORT $LL4254@AddRenderI
$LN4256@AddRenderI:
  00eeb	33 c0		 xor	 eax, eax
  00eed	eb 05		 jmp	 SHORT $LN4257@AddRenderI
$LN4255@AddRenderI:
  00eef	1b c0		 sbb	 eax, eax
  00ef1	83 d8 ff	 sbb	 eax, -1
$LN4257@AddRenderI:
  00ef4	3b c3		 cmp	 eax, ebx
  00ef6	75 36		 jne	 SHORT $LN4162@AddRenderI

; 366  : 	{
; 367  : 		SAFEDELETE( m_pSpot[SPOT_BALL] );

  00ef8	8b b5 30 fd ff
	ff		 mov	 esi, DWORD PTR _this$GSCopy$[ebp]
  00efe	39 9e 20 02 00
	00		 cmp	 DWORD PTR [esi+544], ebx
  00f04	74 17		 je	 SHORT $LN50@AddRenderI
  00f06	8b 8e 20 02 00
	00		 mov	 ecx, DWORD PTR [esi+544]
  00f0c	3b cb		 cmp	 ecx, ebx
  00f0e	74 07		 je	 SHORT $LN149@AddRenderI
  00f10	8b 01		 mov	 eax, DWORD PTR [ecx]
  00f12	6a 01		 push	 1
  00f14	ff 50 40	 call	 DWORD PTR [eax+64]
$LN149@AddRenderI:
  00f17	89 9e 20 02 00
	00		 mov	 DWORD PTR [esi+544], ebx
$LN50@AddRenderI:

; 368  : 		m_pSpot[SPOT_BALL] = pImage;

  00f1d	8b 85 28 fd ff
	ff		 mov	 eax, DWORD PTR _pImage$GSCopy$[ebp]
  00f23	89 86 20 02 00
	00		 mov	 DWORD PTR [esi+544], eax
  00f29	e9 ac 0b 00 00	 jmp	 $LN1@AddRenderI
$LN4162@AddRenderI:

; 369  : 	}
; 370  : 	else if( szType == "SpotBlueNexus" )

  00f2e	6a 03		 push	 3
  00f30	c7 45 e8 be 9c
	84 9e		 mov	 DWORD PTR __t$538319[ebp], -1635476290 ; 9e849cbeH
  00f37	c7 45 ec af 80
	9e 8f		 mov	 DWORD PTR __t$538319[ebp+4], -1885437777 ; 8f9e80afH
  00f3e	c7 45 f0 a3 89
	93 9f		 mov	 DWORD PTR __t$538319[ebp+8], -1617720925 ; 9f9389a3H
  00f45	8d 45 e8	 lea	 eax, DWORD PTR __t$538319[ebp]
  00f48	66 c7 45 f4 9e
	00		 mov	 WORD PTR __t$538319[ebp+12], 158 ; 0000009eH
  00f4e	59		 pop	 ecx
$LL2406@AddRenderI:
  00f4f	31 38		 xor	 DWORD PTR [eax], edi
  00f51	83 c0 04	 add	 eax, 4
  00f54	49		 dec	 ecx
  00f55	75 f8		 jne	 SHORT $LL2406@AddRenderI
  00f57	8b 8d 2c fd ff
	ff		 mov	 ecx, DWORD PTR _szType$GSCopy$[ebp]
  00f5d	80 75 f4 ed	 xor	 BYTE PTR __t$538319[ebp+12], -19 ; ffffffedH
  00f61	8d 75 e8	 lea	 esi, DWORD PTR __t$538319[ebp]
  00f64	ff 15 00 00 00
	00		 call	 DWORD PTR __imp_?c_str@ioHashString@@QBEPBDXZ
$LL4258@AddRenderI:
  00f6a	8a 08		 mov	 cl, BYTE PTR [eax]
  00f6c	3a 0e		 cmp	 cl, BYTE PTR [esi]
  00f6e	75 1a		 jne	 SHORT $LN4259@AddRenderI
  00f70	3a cb		 cmp	 cl, bl
  00f72	74 12		 je	 SHORT $LN4260@AddRenderI
  00f74	8a 48 01	 mov	 cl, BYTE PTR [eax+1]
  00f77	3a 4e 01	 cmp	 cl, BYTE PTR [esi+1]
  00f7a	75 0e		 jne	 SHORT $LN4259@AddRenderI
  00f7c	83 c0 02	 add	 eax, 2
  00f7f	83 c6 02	 add	 esi, 2
  00f82	3a cb		 cmp	 cl, bl
  00f84	75 e4		 jne	 SHORT $LL4258@AddRenderI
$LN4260@AddRenderI:
  00f86	33 c0		 xor	 eax, eax
  00f88	eb 05		 jmp	 SHORT $LN4261@AddRenderI
$LN4259@AddRenderI:
  00f8a	1b c0		 sbb	 eax, eax
  00f8c	83 d8 ff	 sbb	 eax, -1
$LN4261@AddRenderI:
  00f8f	3b c3		 cmp	 eax, ebx
  00f91	75 36		 jne	 SHORT $LN4163@AddRenderI

; 371  : 	{
; 372  : 		SAFEDELETE( m_pSpot[SPOT_NEXUS] );

  00f93	8b b5 30 fd ff
	ff		 mov	 esi, DWORD PTR _this$GSCopy$[ebp]
  00f99	39 9e 24 02 00
	00		 cmp	 DWORD PTR [esi+548], ebx
  00f9f	74 17		 je	 SHORT $LN47@AddRenderI
  00fa1	8b 8e 24 02 00
	00		 mov	 ecx, DWORD PTR [esi+548]
  00fa7	3b cb		 cmp	 ecx, ebx
  00fa9	74 07		 je	 SHORT $LN151@AddRenderI
  00fab	8b 01		 mov	 eax, DWORD PTR [ecx]
  00fad	6a 01		 push	 1
  00faf	ff 50 40	 call	 DWORD PTR [eax+64]
$LN151@AddRenderI:
  00fb2	89 9e 24 02 00
	00		 mov	 DWORD PTR [esi+548], ebx
$LN47@AddRenderI:

; 373  : 		m_pSpot[SPOT_NEXUS] = pImage;

  00fb8	8b 85 28 fd ff
	ff		 mov	 eax, DWORD PTR _pImage$GSCopy$[ebp]
  00fbe	89 86 24 02 00
	00		 mov	 DWORD PTR [esi+548], eax
  00fc4	e9 11 0b 00 00	 jmp	 $LN1@AddRenderI
$LN4163@AddRenderI:

; 374  : 	}
; 375  : 	else if( szType == "SpotRedNexus" )

  00fc9	6a 03		 push	 3
  00fcb	c7 85 90 fd ff
	ff be 9c 84 9e	 mov	 DWORD PTR __t$538444[ebp], -1635476290 ; 9e849cbeH
  00fd5	c7 85 94 fd ff
	ff bf 89 8f a4	 mov	 DWORD PTR __t$538444[ebp+4], -1534096961 ; a48f89bfH
  00fdf	c7 85 98 fd ff
	ff 88 94 9e 99	 mov	 DWORD PTR __t$538444[ebp+8], -1717660536 ; 999e9488H
  00fe9	8d 85 90 fd ff
	ff		 lea	 eax, DWORD PTR __t$538444[ebp]
  00fef	88 9d 9c fd ff
	ff		 mov	 BYTE PTR __t$538444[ebp+12], bl
  00ff5	59		 pop	 ecx
$LL2512@AddRenderI:
  00ff6	31 38		 xor	 DWORD PTR [eax], edi
  00ff8	83 c0 04	 add	 eax, 4
  00ffb	49		 dec	 ecx
  00ffc	75 f8		 jne	 SHORT $LL2512@AddRenderI
  00ffe	8b 8d 2c fd ff
	ff		 mov	 ecx, DWORD PTR _szType$GSCopy$[ebp]
  01004	8d b5 90 fd ff
	ff		 lea	 esi, DWORD PTR __t$538444[ebp]
  0100a	ff 15 00 00 00
	00		 call	 DWORD PTR __imp_?c_str@ioHashString@@QBEPBDXZ
$LL4262@AddRenderI:
  01010	8a 08		 mov	 cl, BYTE PTR [eax]
  01012	3a 0e		 cmp	 cl, BYTE PTR [esi]
  01014	75 1a		 jne	 SHORT $LN4263@AddRenderI
  01016	3a cb		 cmp	 cl, bl
  01018	74 12		 je	 SHORT $LN4264@AddRenderI
  0101a	8a 48 01	 mov	 cl, BYTE PTR [eax+1]
  0101d	3a 4e 01	 cmp	 cl, BYTE PTR [esi+1]
  01020	75 0e		 jne	 SHORT $LN4263@AddRenderI
  01022	83 c0 02	 add	 eax, 2
  01025	83 c6 02	 add	 esi, 2
  01028	3a cb		 cmp	 cl, bl
  0102a	75 e4		 jne	 SHORT $LL4262@AddRenderI
$LN4264@AddRenderI:
  0102c	33 c0		 xor	 eax, eax
  0102e	eb 05		 jmp	 SHORT $LN4265@AddRenderI
$LN4263@AddRenderI:
  01030	1b c0		 sbb	 eax, eax
  01032	83 d8 ff	 sbb	 eax, -1
$LN4265@AddRenderI:
  01035	3b c3		 cmp	 eax, ebx
  01037	75 36		 jne	 SHORT $LN4164@AddRenderI

; 376  : 	{
; 377  : 		SAFEDELETE( m_pSpot[SPOT_NEXUS_RED] );

  01039	8b b5 30 fd ff
	ff		 mov	 esi, DWORD PTR _this$GSCopy$[ebp]
  0103f	39 9e 28 02 00
	00		 cmp	 DWORD PTR [esi+552], ebx
  01045	74 17		 je	 SHORT $LN44@AddRenderI
  01047	8b 8e 28 02 00
	00		 mov	 ecx, DWORD PTR [esi+552]
  0104d	3b cb		 cmp	 ecx, ebx
  0104f	74 07		 je	 SHORT $LN153@AddRenderI
  01051	8b 01		 mov	 eax, DWORD PTR [ecx]
  01053	6a 01		 push	 1
  01055	ff 50 40	 call	 DWORD PTR [eax+64]
$LN153@AddRenderI:
  01058	89 9e 28 02 00
	00		 mov	 DWORD PTR [esi+552], ebx
$LN44@AddRenderI:

; 378  : 		m_pSpot[SPOT_NEXUS_RED] = pImage;

  0105e	8b 85 28 fd ff
	ff		 mov	 eax, DWORD PTR _pImage$GSCopy$[ebp]
  01064	89 86 28 02 00
	00		 mov	 DWORD PTR [esi+552], eax
  0106a	e9 6b 0a 00 00	 jmp	 $LN1@AddRenderI
$LN4164@AddRenderI:

; 379  : 	}
; 380  : 	else if( szType == "SpotBlueLair" )

  0106f	6a 03		 push	 3
  01071	c7 85 cc fd ff
	ff be 9c 84 9e	 mov	 DWORD PTR __t$538569[ebp], -1635476290 ; 9e849cbeH
  0107b	c7 85 d0 fd ff
	ff af 80 9e 8f	 mov	 DWORD PTR __t$538569[ebp+4], -1885437777 ; 8f9e80afH
  01085	c7 85 d4 fd ff
	ff a1 8d 82 98	 mov	 DWORD PTR __t$538569[ebp+8], -1736274527 ; 98828da1H
  0108f	8d 85 cc fd ff
	ff		 lea	 eax, DWORD PTR __t$538569[ebp]
  01095	88 9d d8 fd ff
	ff		 mov	 BYTE PTR __t$538569[ebp+12], bl
  0109b	59		 pop	 ecx
$LL2618@AddRenderI:
  0109c	31 38		 xor	 DWORD PTR [eax], edi
  0109e	83 c0 04	 add	 eax, 4
  010a1	49		 dec	 ecx
  010a2	75 f8		 jne	 SHORT $LL2618@AddRenderI
  010a4	8b 8d 2c fd ff
	ff		 mov	 ecx, DWORD PTR _szType$GSCopy$[ebp]
  010aa	8d b5 cc fd ff
	ff		 lea	 esi, DWORD PTR __t$538569[ebp]
  010b0	ff 15 00 00 00
	00		 call	 DWORD PTR __imp_?c_str@ioHashString@@QBEPBDXZ
$LL4266@AddRenderI:
  010b6	8a 08		 mov	 cl, BYTE PTR [eax]
  010b8	3a 0e		 cmp	 cl, BYTE PTR [esi]
  010ba	75 1a		 jne	 SHORT $LN4267@AddRenderI
  010bc	3a cb		 cmp	 cl, bl
  010be	74 12		 je	 SHORT $LN4328@AddRenderI
  010c0	8a 48 01	 mov	 cl, BYTE PTR [eax+1]
  010c3	3a 4e 01	 cmp	 cl, BYTE PTR [esi+1]
  010c6	75 0e		 jne	 SHORT $LN4267@AddRenderI
  010c8	83 c0 02	 add	 eax, 2
  010cb	83 c6 02	 add	 esi, 2
  010ce	3a cb		 cmp	 cl, bl
  010d0	75 e4		 jne	 SHORT $LL4266@AddRenderI
$LN4328@AddRenderI:
  010d2	33 c0		 xor	 eax, eax
  010d4	eb 05		 jmp	 SHORT $LN4269@AddRenderI
$LN4267@AddRenderI:
  010d6	1b c0		 sbb	 eax, eax
  010d8	83 d8 ff	 sbb	 eax, -1
$LN4269@AddRenderI:
  010db	3b c3		 cmp	 eax, ebx
  010dd	75 36		 jne	 SHORT $LN4165@AddRenderI

; 381  : 	{
; 382  : 		SAFEDELETE( m_pSpot[SPOT_LAIR] );

  010df	8b b5 30 fd ff
	ff		 mov	 esi, DWORD PTR _this$GSCopy$[ebp]
  010e5	39 9e 2c 02 00
	00		 cmp	 DWORD PTR [esi+556], ebx
  010eb	74 17		 je	 SHORT $LN41@AddRenderI
  010ed	8b 8e 2c 02 00
	00		 mov	 ecx, DWORD PTR [esi+556]
  010f3	3b cb		 cmp	 ecx, ebx
  010f5	74 07		 je	 SHORT $LN155@AddRenderI
  010f7	8b 01		 mov	 eax, DWORD PTR [ecx]
  010f9	6a 01		 push	 1
  010fb	ff 50 40	 call	 DWORD PTR [eax+64]
$LN155@AddRenderI:
  010fe	89 9e 2c 02 00
	00		 mov	 DWORD PTR [esi+556], ebx
$LN41@AddRenderI:

; 383  : 		m_pSpot[SPOT_LAIR] = pImage;

  01104	8b 85 28 fd ff
	ff		 mov	 eax, DWORD PTR _pImage$GSCopy$[ebp]
  0110a	89 86 2c 02 00
	00		 mov	 DWORD PTR [esi+556], eax
  01110	e9 c5 09 00 00	 jmp	 $LN1@AddRenderI
$LN4165@AddRenderI:

; 384  : 	}
; 385  : 	else if( szType == "SpotRedLair" )

  01115	6a 02		 push	 2
  01117	c7 85 9c fe ff
	ff be 9c 84 9e	 mov	 DWORD PTR __t$538707[ebp], -1635476290 ; 9e849cbeH
  01121	c7 85 a0 fe ff
	ff bf 89 8f a6	 mov	 DWORD PTR __t$538707[ebp+4], -1500542529 ; a68f89bfH
  0112b	8d 85 9c fe ff
	ff		 lea	 eax, DWORD PTR __t$538707[ebp]
  01131	c7 85 a4 fe ff
	ff 8c 85 99 00	 mov	 DWORD PTR __t$538707[ebp+8], 10061196 ; 0099858cH
  0113b	59		 pop	 ecx
$LL2724@AddRenderI:
  0113c	31 38		 xor	 DWORD PTR [eax], edi
  0113e	83 c0 04	 add	 eax, 4
  01141	49		 dec	 ecx
  01142	75 f8		 jne	 SHORT $LL2724@AddRenderI
  01144	6a 08		 push	 8
  01146	58		 pop	 eax
$LL2721@AddRenderI:
  01147	8b c8		 mov	 ecx, eax
  01149	81 e1 03 00 00
	80		 and	 ecx, -2147483645	; 80000003H
  0114f	79 05		 jns	 SHORT $LN4344@AddRenderI
  01151	49		 dec	 ecx
  01152	83 c9 fc	 or	 ecx, -4			; fffffffcH
  01155	41		 inc	 ecx
$LN4344@AddRenderI:
  01156	b2 ed		 mov	 dl, -19			; ffffffedH
  01158	2a d1		 sub	 dl, cl
  0115a	30 94 05 9c fe
	ff ff		 xor	 BYTE PTR __t$538707[ebp+eax], dl
  01161	40		 inc	 eax
  01162	83 f8 0b	 cmp	 eax, 11			; 0000000bH
  01165	7c e0		 jl	 SHORT $LL2721@AddRenderI
  01167	8b 8d 2c fd ff
	ff		 mov	 ecx, DWORD PTR _szType$GSCopy$[ebp]
  0116d	8d b5 9c fe ff
	ff		 lea	 esi, DWORD PTR __t$538707[ebp]
  01173	ff 15 00 00 00
	00		 call	 DWORD PTR __imp_?c_str@ioHashString@@QBEPBDXZ
$LL4270@AddRenderI:
  01179	8a 08		 mov	 cl, BYTE PTR [eax]
  0117b	3a 0e		 cmp	 cl, BYTE PTR [esi]
  0117d	75 1a		 jne	 SHORT $LN4271@AddRenderI
  0117f	3a cb		 cmp	 cl, bl
  01181	74 12		 je	 SHORT $LN4272@AddRenderI
  01183	8a 48 01	 mov	 cl, BYTE PTR [eax+1]
  01186	3a 4e 01	 cmp	 cl, BYTE PTR [esi+1]
  01189	75 0e		 jne	 SHORT $LN4271@AddRenderI
  0118b	83 c0 02	 add	 eax, 2
  0118e	83 c6 02	 add	 esi, 2
  01191	3a cb		 cmp	 cl, bl
  01193	75 e4		 jne	 SHORT $LL4270@AddRenderI
$LN4272@AddRenderI:
  01195	33 c0		 xor	 eax, eax
  01197	eb 05		 jmp	 SHORT $LN4273@AddRenderI
$LN4271@AddRenderI:
  01199	1b c0		 sbb	 eax, eax
  0119b	83 d8 ff	 sbb	 eax, -1
$LN4273@AddRenderI:
  0119e	3b c3		 cmp	 eax, ebx
  011a0	75 36		 jne	 SHORT $LN4166@AddRenderI

; 386  : 	{
; 387  : 		SAFEDELETE( m_pSpot[SPOT_LAIR_RED] );

  011a2	8b b5 30 fd ff
	ff		 mov	 esi, DWORD PTR _this$GSCopy$[ebp]
  011a8	39 9e 30 02 00
	00		 cmp	 DWORD PTR [esi+560], ebx
  011ae	74 17		 je	 SHORT $LN38@AddRenderI
  011b0	8b 8e 30 02 00
	00		 mov	 ecx, DWORD PTR [esi+560]
  011b6	3b cb		 cmp	 ecx, ebx
  011b8	74 07		 je	 SHORT $LN157@AddRenderI
  011ba	8b 01		 mov	 eax, DWORD PTR [ecx]
  011bc	6a 01		 push	 1
  011be	ff 50 40	 call	 DWORD PTR [eax+64]
$LN157@AddRenderI:
  011c1	89 9e 30 02 00
	00		 mov	 DWORD PTR [esi+560], ebx
$LN38@AddRenderI:

; 388  : 		m_pSpot[SPOT_LAIR_RED] = pImage;

  011c7	8b 85 28 fd ff
	ff		 mov	 eax, DWORD PTR _pImage$GSCopy$[ebp]
  011cd	89 86 30 02 00
	00		 mov	 DWORD PTR [esi+560], eax
  011d3	e9 02 09 00 00	 jmp	 $LN1@AddRenderI
$LN4166@AddRenderI:

; 389  : 	}
; 390  : 	else if( szType == "SpotBlueTower" )

  011d8	6a 03		 push	 3
  011da	c7 45 b8 be 9c
	84 9e		 mov	 DWORD PTR __t$538819[ebp], -1635476290 ; 9e849cbeH
  011e1	c7 45 bc af 80
	9e 8f		 mov	 DWORD PTR __t$538819[ebp+4], -1885437777 ; 8f9e80afH
  011e8	c7 45 c0 b9 83
	9c 8f		 mov	 DWORD PTR __t$538819[ebp+8], -1885568071 ; 8f9c83b9H
  011ef	8d 45 b8	 lea	 eax, DWORD PTR __t$538819[ebp]
  011f2	66 c7 45 c4 9f
	00		 mov	 WORD PTR __t$538819[ebp+12], 159 ; 0000009fH
  011f8	59		 pop	 ecx
$LL2830@AddRenderI:
  011f9	31 38		 xor	 DWORD PTR [eax], edi
  011fb	83 c0 04	 add	 eax, 4
  011fe	49		 dec	 ecx
  011ff	75 f8		 jne	 SHORT $LL2830@AddRenderI
  01201	8b 8d 2c fd ff
	ff		 mov	 ecx, DWORD PTR _szType$GSCopy$[ebp]
  01207	80 75 c4 ed	 xor	 BYTE PTR __t$538819[ebp+12], -19 ; ffffffedH
  0120b	8d 75 b8	 lea	 esi, DWORD PTR __t$538819[ebp]
  0120e	ff 15 00 00 00
	00		 call	 DWORD PTR __imp_?c_str@ioHashString@@QBEPBDXZ
$LL4274@AddRenderI:
  01214	8a 08		 mov	 cl, BYTE PTR [eax]
  01216	3a 0e		 cmp	 cl, BYTE PTR [esi]
  01218	75 1a		 jne	 SHORT $LN4275@AddRenderI
  0121a	3a cb		 cmp	 cl, bl
  0121c	74 12		 je	 SHORT $LN4276@AddRenderI
  0121e	8a 48 01	 mov	 cl, BYTE PTR [eax+1]
  01221	3a 4e 01	 cmp	 cl, BYTE PTR [esi+1]
  01224	75 0e		 jne	 SHORT $LN4275@AddRenderI
  01226	83 c0 02	 add	 eax, 2
  01229	83 c6 02	 add	 esi, 2
  0122c	3a cb		 cmp	 cl, bl
  0122e	75 e4		 jne	 SHORT $LL4274@AddRenderI
$LN4276@AddRenderI:
  01230	33 c0		 xor	 eax, eax
  01232	eb 05		 jmp	 SHORT $LN4277@AddRenderI
$LN4275@AddRenderI:
  01234	1b c0		 sbb	 eax, eax
  01236	83 d8 ff	 sbb	 eax, -1
$LN4277@AddRenderI:
  01239	3b c3		 cmp	 eax, ebx
  0123b	75 36		 jne	 SHORT $LN4167@AddRenderI

; 391  : 	{
; 392  : 		SAFEDELETE( m_pSpot[SPOT_TOWER] );

  0123d	8b b5 30 fd ff
	ff		 mov	 esi, DWORD PTR _this$GSCopy$[ebp]
  01243	39 9e 34 02 00
	00		 cmp	 DWORD PTR [esi+564], ebx
  01249	74 17		 je	 SHORT $LN35@AddRenderI
  0124b	8b 8e 34 02 00
	00		 mov	 ecx, DWORD PTR [esi+564]
  01251	3b cb		 cmp	 ecx, ebx
  01253	74 07		 je	 SHORT $LN159@AddRenderI
  01255	8b 01		 mov	 eax, DWORD PTR [ecx]
  01257	6a 01		 push	 1
  01259	ff 50 40	 call	 DWORD PTR [eax+64]
$LN159@AddRenderI:
  0125c	89 9e 34 02 00
	00		 mov	 DWORD PTR [esi+564], ebx
$LN35@AddRenderI:

; 393  : 		m_pSpot[SPOT_TOWER] = pImage;

  01262	8b 85 28 fd ff
	ff		 mov	 eax, DWORD PTR _pImage$GSCopy$[ebp]
  01268	89 86 34 02 00
	00		 mov	 DWORD PTR [esi+564], eax
  0126e	e9 67 08 00 00	 jmp	 $LN1@AddRenderI
$LN4167@AddRenderI:

; 394  : 	}
; 395  : 	else if( szType == "SpotRedTower" )

  01273	6a 03		 push	 3
  01275	c7 85 b8 fd ff
	ff be 9c 84 9e	 mov	 DWORD PTR __t$538944[ebp], -1635476290 ; 9e849cbeH
  0127f	c7 85 bc fd ff
	ff bf 89 8f be	 mov	 DWORD PTR __t$538944[ebp+4], -1097889345 ; be8f89bfH
  01289	c7 85 c0 fd ff
	ff 82 9b 8e 98	 mov	 DWORD PTR __t$538944[ebp+8], -1735484542 ; 988e9b82H
  01293	8d 85 b8 fd ff
	ff		 lea	 eax, DWORD PTR __t$538944[ebp]
  01299	88 9d c4 fd ff
	ff		 mov	 BYTE PTR __t$538944[ebp+12], bl
  0129f	59		 pop	 ecx
$LL2936@AddRenderI:
  012a0	31 38		 xor	 DWORD PTR [eax], edi
  012a2	83 c0 04	 add	 eax, 4
  012a5	49		 dec	 ecx
  012a6	75 f8		 jne	 SHORT $LL2936@AddRenderI
  012a8	8b 8d 2c fd ff
	ff		 mov	 ecx, DWORD PTR _szType$GSCopy$[ebp]
  012ae	8d b5 b8 fd ff
	ff		 lea	 esi, DWORD PTR __t$538944[ebp]
  012b4	ff 15 00 00 00
	00		 call	 DWORD PTR __imp_?c_str@ioHashString@@QBEPBDXZ
$LL4278@AddRenderI:
  012ba	8a 08		 mov	 cl, BYTE PTR [eax]
  012bc	3a 0e		 cmp	 cl, BYTE PTR [esi]
  012be	75 1a		 jne	 SHORT $LN4279@AddRenderI
  012c0	3a cb		 cmp	 cl, bl
  012c2	74 12		 je	 SHORT $LN4329@AddRenderI
  012c4	8a 48 01	 mov	 cl, BYTE PTR [eax+1]
  012c7	3a 4e 01	 cmp	 cl, BYTE PTR [esi+1]
  012ca	75 0e		 jne	 SHORT $LN4279@AddRenderI
  012cc	83 c0 02	 add	 eax, 2
  012cf	83 c6 02	 add	 esi, 2
  012d2	3a cb		 cmp	 cl, bl
  012d4	75 e4		 jne	 SHORT $LL4278@AddRenderI
$LN4329@AddRenderI:
  012d6	33 c0		 xor	 eax, eax
  012d8	eb 05		 jmp	 SHORT $LN4281@AddRenderI
$LN4279@AddRenderI:
  012da	1b c0		 sbb	 eax, eax
  012dc	83 d8 ff	 sbb	 eax, -1
$LN4281@AddRenderI:
  012df	3b c3		 cmp	 eax, ebx
  012e1	75 36		 jne	 SHORT $LN4168@AddRenderI

; 396  : 	{
; 397  : 		SAFEDELETE( m_pSpot[SPOT_TOWER_RED] );

  012e3	8b b5 30 fd ff
	ff		 mov	 esi, DWORD PTR _this$GSCopy$[ebp]
  012e9	39 9e 38 02 00
	00		 cmp	 DWORD PTR [esi+568], ebx
  012ef	74 17		 je	 SHORT $LN32@AddRenderI
  012f1	8b 8e 38 02 00
	00		 mov	 ecx, DWORD PTR [esi+568]
  012f7	3b cb		 cmp	 ecx, ebx
  012f9	74 07		 je	 SHORT $LN161@AddRenderI
  012fb	8b 01		 mov	 eax, DWORD PTR [ecx]
  012fd	6a 01		 push	 1
  012ff	ff 50 40	 call	 DWORD PTR [eax+64]
$LN161@AddRenderI:
  01302	89 9e 38 02 00
	00		 mov	 DWORD PTR [esi+568], ebx
$LN32@AddRenderI:

; 398  : 		m_pSpot[SPOT_TOWER_RED] = pImage;

  01308	8b 85 28 fd ff
	ff		 mov	 eax, DWORD PTR _pImage$GSCopy$[ebp]
  0130e	89 86 38 02 00
	00		 mov	 DWORD PTR [esi+568], eax
  01314	e9 c1 07 00 00	 jmp	 $LN1@AddRenderI
$LN4168@AddRenderI:

; 399  : 	}
; 400  : 	else if( szType == "SpotNpcBlue" )

  01319	6a 02		 push	 2
  0131b	c7 85 18 ff ff
	ff be 9c 84 9e	 mov	 DWORD PTR __t$539082[ebp], -1635476290 ; 9e849cbeH
  01325	c7 85 1c ff ff
	ff a3 9c 88 a8	 mov	 DWORD PTR __t$539082[ebp+4], -1467442013 ; a8889ca3H
  0132f	8d 85 18 ff ff
	ff		 lea	 eax, DWORD PTR __t$539082[ebp]
  01335	c7 85 20 ff ff
	ff 81 99 8e 00	 mov	 DWORD PTR __t$539082[ebp+8], 9345409 ; 008e9981H
  0133f	59		 pop	 ecx
$LL3042@AddRenderI:
  01340	31 38		 xor	 DWORD PTR [eax], edi
  01342	83 c0 04	 add	 eax, 4
  01345	49		 dec	 ecx
  01346	75 f8		 jne	 SHORT $LL3042@AddRenderI
  01348	6a 08		 push	 8
  0134a	58		 pop	 eax
$LL3039@AddRenderI:
  0134b	8b c8		 mov	 ecx, eax
  0134d	81 e1 03 00 00
	80		 and	 ecx, -2147483645	; 80000003H
  01353	79 05		 jns	 SHORT $LN4345@AddRenderI
  01355	49		 dec	 ecx
  01356	83 c9 fc	 or	 ecx, -4			; fffffffcH
  01359	41		 inc	 ecx
$LN4345@AddRenderI:
  0135a	b2 ed		 mov	 dl, -19			; ffffffedH
  0135c	2a d1		 sub	 dl, cl
  0135e	30 94 05 18 ff
	ff ff		 xor	 BYTE PTR __t$539082[ebp+eax], dl
  01365	40		 inc	 eax
  01366	83 f8 0b	 cmp	 eax, 11			; 0000000bH
  01369	7c e0		 jl	 SHORT $LL3039@AddRenderI
  0136b	8b 8d 2c fd ff
	ff		 mov	 ecx, DWORD PTR _szType$GSCopy$[ebp]
  01371	8d b5 18 ff ff
	ff		 lea	 esi, DWORD PTR __t$539082[ebp]
  01377	ff 15 00 00 00
	00		 call	 DWORD PTR __imp_?c_str@ioHashString@@QBEPBDXZ
$LL4282@AddRenderI:
  0137d	8a 08		 mov	 cl, BYTE PTR [eax]
  0137f	3a 0e		 cmp	 cl, BYTE PTR [esi]
  01381	75 1a		 jne	 SHORT $LN4283@AddRenderI
  01383	3a cb		 cmp	 cl, bl
  01385	74 12		 je	 SHORT $LN4330@AddRenderI
  01387	8a 48 01	 mov	 cl, BYTE PTR [eax+1]
  0138a	3a 4e 01	 cmp	 cl, BYTE PTR [esi+1]
  0138d	75 0e		 jne	 SHORT $LN4283@AddRenderI
  0138f	83 c0 02	 add	 eax, 2
  01392	83 c6 02	 add	 esi, 2
  01395	3a cb		 cmp	 cl, bl
  01397	75 e4		 jne	 SHORT $LL4282@AddRenderI
$LN4330@AddRenderI:
  01399	33 c0		 xor	 eax, eax
  0139b	eb 05		 jmp	 SHORT $LN4285@AddRenderI
$LN4283@AddRenderI:
  0139d	1b c0		 sbb	 eax, eax
  0139f	83 d8 ff	 sbb	 eax, -1
$LN4285@AddRenderI:
  013a2	3b c3		 cmp	 eax, ebx
  013a4	75 36		 jne	 SHORT $LN4169@AddRenderI

; 401  : 	{
; 402  : 		SAFEDELETE( m_pSpot[SPOT_NPC] );

  013a6	8b b5 30 fd ff
	ff		 mov	 esi, DWORD PTR _this$GSCopy$[ebp]
  013ac	39 9e 3c 02 00
	00		 cmp	 DWORD PTR [esi+572], ebx
  013b2	74 17		 je	 SHORT $LN29@AddRenderI
  013b4	8b 8e 3c 02 00
	00		 mov	 ecx, DWORD PTR [esi+572]
  013ba	3b cb		 cmp	 ecx, ebx
  013bc	74 07		 je	 SHORT $LN163@AddRenderI
  013be	8b 01		 mov	 eax, DWORD PTR [ecx]
  013c0	6a 01		 push	 1
  013c2	ff 50 40	 call	 DWORD PTR [eax+64]
$LN163@AddRenderI:
  013c5	89 9e 3c 02 00
	00		 mov	 DWORD PTR [esi+572], ebx
$LN29@AddRenderI:

; 403  : 		m_pSpot[SPOT_NPC] = pImage;

  013cb	8b 85 28 fd ff
	ff		 mov	 eax, DWORD PTR _pImage$GSCopy$[ebp]
  013d1	89 86 3c 02 00
	00		 mov	 DWORD PTR [esi+572], eax
  013d7	e9 fe 06 00 00	 jmp	 $LN1@AddRenderI
$LN4169@AddRenderI:

; 404  : 	}
; 405  : 	else if( szType == "SpotNpcRed" )

  013dc	6a 02		 push	 2
  013de	c7 85 ac fe ff
	ff be 9c 84 9e	 mov	 DWORD PTR __t$539207[ebp], -1635476290 ; 9e849cbeH
  013e8	c7 85 b0 fe ff
	ff a3 9c 88 b8	 mov	 DWORD PTR __t$539207[ebp+4], -1199006557 ; b8889ca3H
  013f2	66 c7 85 b4 fe
	ff ff 88 88	 mov	 WORD PTR __t$539207[ebp+8], 34952 ; 00008888H
  013fb	8d 85 ac fe ff
	ff		 lea	 eax, DWORD PTR __t$539207[ebp]
  01401	88 9d b6 fe ff
	ff		 mov	 BYTE PTR __t$539207[ebp+10], bl
  01407	59		 pop	 ecx
$LL3148@AddRenderI:
  01408	31 38		 xor	 DWORD PTR [eax], edi
  0140a	83 c0 04	 add	 eax, 4
  0140d	49		 dec	 ecx
  0140e	75 f8		 jne	 SHORT $LL3148@AddRenderI
  01410	6a 08		 push	 8
  01412	58		 pop	 eax
$LL3145@AddRenderI:
  01413	8b c8		 mov	 ecx, eax
  01415	81 e1 03 00 00
	80		 and	 ecx, -2147483645	; 80000003H
  0141b	79 05		 jns	 SHORT $LN4346@AddRenderI
  0141d	49		 dec	 ecx
  0141e	83 c9 fc	 or	 ecx, -4			; fffffffcH
  01421	41		 inc	 ecx
$LN4346@AddRenderI:
  01422	b2 ed		 mov	 dl, -19			; ffffffedH
  01424	2a d1		 sub	 dl, cl
  01426	30 94 05 ac fe
	ff ff		 xor	 BYTE PTR __t$539207[ebp+eax], dl
  0142d	40		 inc	 eax
  0142e	83 f8 0a	 cmp	 eax, 10			; 0000000aH
  01431	7c e0		 jl	 SHORT $LL3145@AddRenderI
  01433	8b 8d 2c fd ff
	ff		 mov	 ecx, DWORD PTR _szType$GSCopy$[ebp]
  01439	8d b5 ac fe ff
	ff		 lea	 esi, DWORD PTR __t$539207[ebp]
  0143f	ff 15 00 00 00
	00		 call	 DWORD PTR __imp_?c_str@ioHashString@@QBEPBDXZ
$LL4286@AddRenderI:
  01445	8a 08		 mov	 cl, BYTE PTR [eax]
  01447	3a 0e		 cmp	 cl, BYTE PTR [esi]
  01449	75 1a		 jne	 SHORT $LN4287@AddRenderI
  0144b	3a cb		 cmp	 cl, bl
  0144d	74 12		 je	 SHORT $LN4288@AddRenderI
  0144f	8a 48 01	 mov	 cl, BYTE PTR [eax+1]
  01452	3a 4e 01	 cmp	 cl, BYTE PTR [esi+1]
  01455	75 0e		 jne	 SHORT $LN4287@AddRenderI
  01457	83 c0 02	 add	 eax, 2
  0145a	83 c6 02	 add	 esi, 2
  0145d	3a cb		 cmp	 cl, bl
  0145f	75 e4		 jne	 SHORT $LL4286@AddRenderI
$LN4288@AddRenderI:
  01461	33 c0		 xor	 eax, eax
  01463	eb 05		 jmp	 SHORT $LN4289@AddRenderI
$LN4287@AddRenderI:
  01465	1b c0		 sbb	 eax, eax
  01467	83 d8 ff	 sbb	 eax, -1
$LN4289@AddRenderI:
  0146a	3b c3		 cmp	 eax, ebx
  0146c	75 36		 jne	 SHORT $LN4170@AddRenderI

; 406  : 	{
; 407  : 		SAFEDELETE( m_pSpot[SPOT_NPC_RED] );

  0146e	8b b5 30 fd ff
	ff		 mov	 esi, DWORD PTR _this$GSCopy$[ebp]
  01474	39 9e 40 02 00
	00		 cmp	 DWORD PTR [esi+576], ebx
  0147a	74 17		 je	 SHORT $LN26@AddRenderI
  0147c	8b 8e 40 02 00
	00		 mov	 ecx, DWORD PTR [esi+576]
  01482	3b cb		 cmp	 ecx, ebx
  01484	74 07		 je	 SHORT $LN165@AddRenderI
  01486	8b 01		 mov	 eax, DWORD PTR [ecx]
  01488	6a 01		 push	 1
  0148a	ff 50 40	 call	 DWORD PTR [eax+64]
$LN165@AddRenderI:
  0148d	89 9e 40 02 00
	00		 mov	 DWORD PTR [esi+576], ebx
$LN26@AddRenderI:

; 408  : 		m_pSpot[SPOT_NPC_RED] = pImage;

  01493	8b 85 28 fd ff
	ff		 mov	 eax, DWORD PTR _pImage$GSCopy$[ebp]
  01499	89 86 40 02 00
	00		 mov	 DWORD PTR [esi+576], eax
  0149f	e9 36 06 00 00	 jmp	 $LN1@AddRenderI
$LN4170@AddRenderI:

; 409  : 	}
; 410  : 	else if( szType == "SpotRoulette" )

  014a4	6a 03		 push	 3
  014a6	c7 85 a4 fd ff
	ff be 9c 84 9e	 mov	 DWORD PTR __t$539319[ebp], -1635476290 ; 9e849cbeH
  014b0	c7 85 a8 fd ff
	ff bf 83 9e 86	 mov	 DWORD PTR __t$539319[ebp+4], -2036431937 ; 869e83bfH
  014ba	c7 85 ac fd ff
	ff 88 98 9f 8f	 mov	 DWORD PTR __t$539319[ebp+8], -1885366136 ; 8f9f9888H
  014c4	8d 85 a4 fd ff
	ff		 lea	 eax, DWORD PTR __t$539319[ebp]
  014ca	88 9d b0 fd ff
	ff		 mov	 BYTE PTR __t$539319[ebp+12], bl
  014d0	59		 pop	 ecx
$LL3254@AddRenderI:
  014d1	31 38		 xor	 DWORD PTR [eax], edi
  014d3	83 c0 04	 add	 eax, 4
  014d6	49		 dec	 ecx
  014d7	75 f8		 jne	 SHORT $LL3254@AddRenderI
  014d9	8b 8d 2c fd ff
	ff		 mov	 ecx, DWORD PTR _szType$GSCopy$[ebp]
  014df	8d b5 a4 fd ff
	ff		 lea	 esi, DWORD PTR __t$539319[ebp]
  014e5	ff 15 00 00 00
	00		 call	 DWORD PTR __imp_?c_str@ioHashString@@QBEPBDXZ
$LL4290@AddRenderI:
  014eb	8a 08		 mov	 cl, BYTE PTR [eax]
  014ed	3a 0e		 cmp	 cl, BYTE PTR [esi]
  014ef	75 1a		 jne	 SHORT $LN4291@AddRenderI
  014f1	3a cb		 cmp	 cl, bl
  014f3	74 12		 je	 SHORT $LN4331@AddRenderI
  014f5	8a 48 01	 mov	 cl, BYTE PTR [eax+1]
  014f8	3a 4e 01	 cmp	 cl, BYTE PTR [esi+1]
  014fb	75 0e		 jne	 SHORT $LN4291@AddRenderI
  014fd	83 c0 02	 add	 eax, 2
  01500	83 c6 02	 add	 esi, 2
  01503	3a cb		 cmp	 cl, bl
  01505	75 e4		 jne	 SHORT $LL4290@AddRenderI
$LN4331@AddRenderI:
  01507	33 c0		 xor	 eax, eax
  01509	eb 05		 jmp	 SHORT $LN4293@AddRenderI
$LN4291@AddRenderI:
  0150b	1b c0		 sbb	 eax, eax
  0150d	83 d8 ff	 sbb	 eax, -1
$LN4293@AddRenderI:
  01510	3b c3		 cmp	 eax, ebx
  01512	75 36		 jne	 SHORT $LN4171@AddRenderI

; 411  : 	{
; 412  : 		SAFEDELETE( m_pSpot[SPOT_ROULETTE] );

  01514	8b b5 30 fd ff
	ff		 mov	 esi, DWORD PTR _this$GSCopy$[ebp]
  0151a	39 9e 44 02 00
	00		 cmp	 DWORD PTR [esi+580], ebx
  01520	74 17		 je	 SHORT $LN23@AddRenderI
  01522	8b 8e 44 02 00
	00		 mov	 ecx, DWORD PTR [esi+580]
  01528	3b cb		 cmp	 ecx, ebx
  0152a	74 07		 je	 SHORT $LN167@AddRenderI
  0152c	8b 01		 mov	 eax, DWORD PTR [ecx]
  0152e	6a 01		 push	 1
  01530	ff 50 40	 call	 DWORD PTR [eax+64]
$LN167@AddRenderI:
  01533	89 9e 44 02 00
	00		 mov	 DWORD PTR [esi+580], ebx
$LN23@AddRenderI:

; 413  : 		m_pSpot[SPOT_ROULETTE] = pImage;

  01539	8b 85 28 fd ff
	ff		 mov	 eax, DWORD PTR _pImage$GSCopy$[ebp]
  0153f	89 86 44 02 00
	00		 mov	 DWORD PTR [esi+580], eax
  01545	e9 90 05 00 00	 jmp	 $LN1@AddRenderI
$LN4171@AddRenderI:

; 414  : 	}
; 415  : 	else if( szType == "SpotStar" )

  0154a	6a 02		 push	 2
  0154c	c7 85 34 fd ff
	ff be 9c 84 9e	 mov	 DWORD PTR __t$539444[ebp], -1635476290 ; 9e849cbeH
  01556	c7 85 38 fd ff
	ff be 98 8a 98	 mov	 DWORD PTR __t$539444[ebp+4], -1735747394 ; 988a98beH
  01560	8d 85 34 fd ff
	ff		 lea	 eax, DWORD PTR __t$539444[ebp]
  01566	88 9d 3c fd ff
	ff		 mov	 BYTE PTR __t$539444[ebp+8], bl
  0156c	59		 pop	 ecx
$LL3360@AddRenderI:
  0156d	31 38		 xor	 DWORD PTR [eax], edi
  0156f	83 c0 04	 add	 eax, 4
  01572	49		 dec	 ecx
  01573	75 f8		 jne	 SHORT $LL3360@AddRenderI
  01575	8b 8d 2c fd ff
	ff		 mov	 ecx, DWORD PTR _szType$GSCopy$[ebp]
  0157b	8d b5 34 fd ff
	ff		 lea	 esi, DWORD PTR __t$539444[ebp]
  01581	ff 15 00 00 00
	00		 call	 DWORD PTR __imp_?c_str@ioHashString@@QBEPBDXZ
$LL4294@AddRenderI:
  01587	8a 08		 mov	 cl, BYTE PTR [eax]
  01589	3a 0e		 cmp	 cl, BYTE PTR [esi]
  0158b	75 1a		 jne	 SHORT $LN4295@AddRenderI
  0158d	3a cb		 cmp	 cl, bl
  0158f	74 12		 je	 SHORT $LN4332@AddRenderI
  01591	8a 48 01	 mov	 cl, BYTE PTR [eax+1]
  01594	3a 4e 01	 cmp	 cl, BYTE PTR [esi+1]
  01597	75 0e		 jne	 SHORT $LN4295@AddRenderI
  01599	83 c0 02	 add	 eax, 2
  0159c	83 c6 02	 add	 esi, 2
  0159f	3a cb		 cmp	 cl, bl
  015a1	75 e4		 jne	 SHORT $LL4294@AddRenderI
$LN4332@AddRenderI:
  015a3	33 c0		 xor	 eax, eax
  015a5	eb 05		 jmp	 SHORT $LN4297@AddRenderI
$LN4295@AddRenderI:
  015a7	1b c0		 sbb	 eax, eax
  015a9	83 d8 ff	 sbb	 eax, -1
$LN4297@AddRenderI:
  015ac	3b c3		 cmp	 eax, ebx
  015ae	75 36		 jne	 SHORT $LN4172@AddRenderI

; 416  : 	{
; 417  : 		SAFEDELETE( m_pSpot[SPOT_STAR] );

  015b0	8b b5 30 fd ff
	ff		 mov	 esi, DWORD PTR _this$GSCopy$[ebp]
  015b6	39 9e 54 02 00
	00		 cmp	 DWORD PTR [esi+596], ebx
  015bc	74 17		 je	 SHORT $LN20@AddRenderI
  015be	8b 8e 54 02 00
	00		 mov	 ecx, DWORD PTR [esi+596]
  015c4	3b cb		 cmp	 ecx, ebx
  015c6	74 07		 je	 SHORT $LN169@AddRenderI
  015c8	8b 01		 mov	 eax, DWORD PTR [ecx]
  015ca	6a 01		 push	 1
  015cc	ff 50 40	 call	 DWORD PTR [eax+64]
$LN169@AddRenderI:
  015cf	89 9e 54 02 00
	00		 mov	 DWORD PTR [esi+596], ebx
$LN20@AddRenderI:

; 418  : 		m_pSpot[SPOT_STAR] = pImage;

  015d5	8b 85 28 fd ff
	ff		 mov	 eax, DWORD PTR _pImage$GSCopy$[ebp]
  015db	89 86 54 02 00
	00		 mov	 DWORD PTR [esi+596], eax
  015e1	e9 f4 04 00 00	 jmp	 $LN1@AddRenderI
$LN4172@AddRenderI:

; 419  : 	}
; 420  : 	else if( szType == "SpotStarOn" )

  015e6	6a 02		 push	 2
  015e8	c7 45 84 be 9c
	84 9e		 mov	 DWORD PTR __t$539569[ebp], -1635476290 ; 9e849cbeH
  015ef	c7 45 88 be 98
	8a 98		 mov	 DWORD PTR __t$539569[ebp+4], -1735747394 ; 988a98beH
  015f6	66 c7 45 8c a2
	82		 mov	 WORD PTR __t$539569[ebp+8], 33442 ; 000082a2H
  015fc	8d 45 84	 lea	 eax, DWORD PTR __t$539569[ebp]
  015ff	88 5d 8e	 mov	 BYTE PTR __t$539569[ebp+10], bl
  01602	59		 pop	 ecx
$LL3466@AddRenderI:
  01603	31 38		 xor	 DWORD PTR [eax], edi
  01605	83 c0 04	 add	 eax, 4
  01608	49		 dec	 ecx
  01609	75 f8		 jne	 SHORT $LL3466@AddRenderI
  0160b	6a 08		 push	 8
  0160d	58		 pop	 eax
$LL3463@AddRenderI:
  0160e	8b c8		 mov	 ecx, eax
  01610	81 e1 03 00 00
	80		 and	 ecx, -2147483645	; 80000003H
  01616	79 05		 jns	 SHORT $LN4347@AddRenderI
  01618	49		 dec	 ecx
  01619	83 c9 fc	 or	 ecx, -4			; fffffffcH
  0161c	41		 inc	 ecx
$LN4347@AddRenderI:
  0161d	b2 ed		 mov	 dl, -19			; ffffffedH
  0161f	2a d1		 sub	 dl, cl
  01621	30 54 05 84	 xor	 BYTE PTR __t$539569[ebp+eax], dl
  01625	40		 inc	 eax
  01626	83 f8 0a	 cmp	 eax, 10			; 0000000aH
  01629	7c e3		 jl	 SHORT $LL3463@AddRenderI
  0162b	8b 8d 2c fd ff
	ff		 mov	 ecx, DWORD PTR _szType$GSCopy$[ebp]
  01631	8d 75 84	 lea	 esi, DWORD PTR __t$539569[ebp]
  01634	ff 15 00 00 00
	00		 call	 DWORD PTR __imp_?c_str@ioHashString@@QBEPBDXZ
$LL4298@AddRenderI:
  0163a	8a 08		 mov	 cl, BYTE PTR [eax]
  0163c	3a 0e		 cmp	 cl, BYTE PTR [esi]
  0163e	75 1a		 jne	 SHORT $LN4299@AddRenderI
  01640	3a cb		 cmp	 cl, bl
  01642	74 12		 je	 SHORT $LN4300@AddRenderI
  01644	8a 48 01	 mov	 cl, BYTE PTR [eax+1]
  01647	3a 4e 01	 cmp	 cl, BYTE PTR [esi+1]
  0164a	75 0e		 jne	 SHORT $LN4299@AddRenderI
  0164c	83 c0 02	 add	 eax, 2
  0164f	83 c6 02	 add	 esi, 2
  01652	3a cb		 cmp	 cl, bl
  01654	75 e4		 jne	 SHORT $LL4298@AddRenderI
$LN4300@AddRenderI:
  01656	33 c0		 xor	 eax, eax
  01658	eb 05		 jmp	 SHORT $LN4301@AddRenderI
$LN4299@AddRenderI:
  0165a	1b c0		 sbb	 eax, eax
  0165c	83 d8 ff	 sbb	 eax, -1
$LN4301@AddRenderI:
  0165f	3b c3		 cmp	 eax, ebx
  01661	75 36		 jne	 SHORT $LN4173@AddRenderI

; 421  : 	{
; 422  : 		SAFEDELETE( m_pSpot[SPOT_STAR_ON] );

  01663	8b b5 30 fd ff
	ff		 mov	 esi, DWORD PTR _this$GSCopy$[ebp]
  01669	39 9e 50 02 00
	00		 cmp	 DWORD PTR [esi+592], ebx
  0166f	74 17		 je	 SHORT $LN17@AddRenderI
  01671	8b 8e 50 02 00
	00		 mov	 ecx, DWORD PTR [esi+592]
  01677	3b cb		 cmp	 ecx, ebx
  01679	74 07		 je	 SHORT $LN171@AddRenderI
  0167b	8b 01		 mov	 eax, DWORD PTR [ecx]
  0167d	6a 01		 push	 1
  0167f	ff 50 40	 call	 DWORD PTR [eax+64]
$LN171@AddRenderI:
  01682	89 9e 50 02 00
	00		 mov	 DWORD PTR [esi+592], ebx
$LN17@AddRenderI:

; 423  : 		m_pSpot[SPOT_STAR_ON] = pImage;

  01688	8b 85 28 fd ff
	ff		 mov	 eax, DWORD PTR _pImage$GSCopy$[ebp]
  0168e	89 86 50 02 00
	00		 mov	 DWORD PTR [esi+592], eax
  01694	e9 41 04 00 00	 jmp	 $LN1@AddRenderI
$LN4173@AddRenderI:

; 424  : 	}
; 425  : 	else if( szType == "SpotShuffleMonster" )

  01699	6a 04		 push	 4
  0169b	c7 85 5c fe ff
	ff be 9c 84 9e	 mov	 DWORD PTR __t$539707[ebp], -1635476290 ; 9e849cbeH
  016a5	c7 85 60 fe ff
	ff be 84 9e 8c	 mov	 DWORD PTR __t$539707[ebp+4], -1935768386 ; 8c9e84beH
  016af	c7 85 64 fe ff
	ff 8b 80 8e a7	 mov	 DWORD PTR __t$539707[ebp+8], -1483833205 ; a78e808bH
  016b9	c7 85 68 fe ff
	ff 82 82 98 9e	 mov	 DWORD PTR __t$539707[ebp+12], -1634172286 ; 9e988282H
  016c3	66 c7 85 6c fe
	ff ff 88 9e	 mov	 WORD PTR __t$539707[ebp+16], 40584 ; 00009e88H
  016cc	8d 85 5c fe ff
	ff		 lea	 eax, DWORD PTR __t$539707[ebp]
  016d2	88 9d 6e fe ff
	ff		 mov	 BYTE PTR __t$539707[ebp+18], bl
  016d8	59		 pop	 ecx
$LL3572@AddRenderI:
  016d9	31 38		 xor	 DWORD PTR [eax], edi
  016db	83 c0 04	 add	 eax, 4
  016de	49		 dec	 ecx
  016df	75 f8		 jne	 SHORT $LL3572@AddRenderI
  016e1	6a 10		 push	 16			; 00000010H
  016e3	58		 pop	 eax
$LL3569@AddRenderI:
  016e4	8b c8		 mov	 ecx, eax
  016e6	81 e1 03 00 00
	80		 and	 ecx, -2147483645	; 80000003H
  016ec	79 05		 jns	 SHORT $LN4348@AddRenderI
  016ee	49		 dec	 ecx
  016ef	83 c9 fc	 or	 ecx, -4			; fffffffcH
  016f2	41		 inc	 ecx
$LN4348@AddRenderI:
  016f3	b2 ed		 mov	 dl, -19			; ffffffedH
  016f5	2a d1		 sub	 dl, cl
  016f7	30 94 05 5c fe
	ff ff		 xor	 BYTE PTR __t$539707[ebp+eax], dl
  016fe	40		 inc	 eax
  016ff	83 f8 12	 cmp	 eax, 18			; 00000012H
  01702	7c e0		 jl	 SHORT $LL3569@AddRenderI
  01704	8b 8d 2c fd ff
	ff		 mov	 ecx, DWORD PTR _szType$GSCopy$[ebp]
  0170a	8d b5 5c fe ff
	ff		 lea	 esi, DWORD PTR __t$539707[ebp]
  01710	ff 15 00 00 00
	00		 call	 DWORD PTR __imp_?c_str@ioHashString@@QBEPBDXZ
$LL4302@AddRenderI:
  01716	8a 08		 mov	 cl, BYTE PTR [eax]
  01718	3a 0e		 cmp	 cl, BYTE PTR [esi]
  0171a	75 1a		 jne	 SHORT $LN4303@AddRenderI
  0171c	3a cb		 cmp	 cl, bl
  0171e	74 12		 je	 SHORT $LN4304@AddRenderI
  01720	8a 48 01	 mov	 cl, BYTE PTR [eax+1]
  01723	3a 4e 01	 cmp	 cl, BYTE PTR [esi+1]
  01726	75 0e		 jne	 SHORT $LN4303@AddRenderI
  01728	83 c0 02	 add	 eax, 2
  0172b	83 c6 02	 add	 esi, 2
  0172e	3a cb		 cmp	 cl, bl
  01730	75 e4		 jne	 SHORT $LL4302@AddRenderI
$LN4304@AddRenderI:
  01732	33 c0		 xor	 eax, eax
  01734	eb 05		 jmp	 SHORT $LN4305@AddRenderI
$LN4303@AddRenderI:
  01736	1b c0		 sbb	 eax, eax
  01738	83 d8 ff	 sbb	 eax, -1
$LN4305@AddRenderI:
  0173b	3b c3		 cmp	 eax, ebx
  0173d	75 36		 jne	 SHORT $LN4174@AddRenderI

; 426  : 	{
; 427  : 		SAFEDELETE( m_pSpot[SPOT_SHUFFFLE_MONSTER] );

  0173f	8b b5 30 fd ff
	ff		 mov	 esi, DWORD PTR _this$GSCopy$[ebp]
  01745	39 9e 58 02 00
	00		 cmp	 DWORD PTR [esi+600], ebx
  0174b	74 17		 je	 SHORT $LN14@AddRenderI
  0174d	8b 8e 58 02 00
	00		 mov	 ecx, DWORD PTR [esi+600]
  01753	3b cb		 cmp	 ecx, ebx
  01755	74 07		 je	 SHORT $LN173@AddRenderI
  01757	8b 01		 mov	 eax, DWORD PTR [ecx]
  01759	6a 01		 push	 1
  0175b	ff 50 40	 call	 DWORD PTR [eax+64]
$LN173@AddRenderI:
  0175e	89 9e 58 02 00
	00		 mov	 DWORD PTR [esi+600], ebx
$LN14@AddRenderI:

; 428  : 		m_pSpot[SPOT_SHUFFFLE_MONSTER] = pImage;

  01764	8b 85 28 fd ff
	ff		 mov	 eax, DWORD PTR _pImage$GSCopy$[ebp]
  0176a	89 86 58 02 00
	00		 mov	 DWORD PTR [esi+600], eax
  01770	e9 65 03 00 00	 jmp	 $LN1@AddRenderI
$LN4174@AddRenderI:

; 429  : 	}
; 430  : 	else if( szType == "SpotShuffleBuffBox" )

  01775	6a 04		 push	 4
  01777	c7 85 28 fe ff
	ff be 9c 84 9e	 mov	 DWORD PTR __t$539832[ebp], -1635476290 ; 9e849cbeH
  01781	c7 85 2c fe ff
	ff be 84 9e 8c	 mov	 DWORD PTR __t$539832[ebp+4], -1935768386 ; 8c9e84beH
  0178b	c7 85 30 fe ff
	ff 8b 80 8e a8	 mov	 DWORD PTR __t$539832[ebp+8], -1467055989 ; a88e808bH
  01795	c7 85 34 fe ff
	ff 98 8a 8d a8	 mov	 DWORD PTR __t$539832[ebp+12], -1467118952 ; a88d8a98H
  0179f	66 c7 85 38 fe
	ff ff 82 94	 mov	 WORD PTR __t$539832[ebp+16], 38018 ; 00009482H
  017a8	8d 85 28 fe ff
	ff		 lea	 eax, DWORD PTR __t$539832[ebp]
  017ae	88 9d 3a fe ff
	ff		 mov	 BYTE PTR __t$539832[ebp+18], bl
  017b4	59		 pop	 ecx
$LL3678@AddRenderI:
  017b5	31 38		 xor	 DWORD PTR [eax], edi
  017b7	83 c0 04	 add	 eax, 4
  017ba	49		 dec	 ecx
  017bb	75 f8		 jne	 SHORT $LL3678@AddRenderI
  017bd	6a 10		 push	 16			; 00000010H
  017bf	58		 pop	 eax
$LL3675@AddRenderI:
  017c0	8b c8		 mov	 ecx, eax
  017c2	81 e1 03 00 00
	80		 and	 ecx, -2147483645	; 80000003H
  017c8	79 05		 jns	 SHORT $LN4349@AddRenderI
  017ca	49		 dec	 ecx
  017cb	83 c9 fc	 or	 ecx, -4			; fffffffcH
  017ce	41		 inc	 ecx
$LN4349@AddRenderI:
  017cf	b2 ed		 mov	 dl, -19			; ffffffedH
  017d1	2a d1		 sub	 dl, cl
  017d3	30 94 05 28 fe
	ff ff		 xor	 BYTE PTR __t$539832[ebp+eax], dl
  017da	40		 inc	 eax
  017db	83 f8 12	 cmp	 eax, 18			; 00000012H
  017de	7c e0		 jl	 SHORT $LL3675@AddRenderI
  017e0	8b 8d 2c fd ff
	ff		 mov	 ecx, DWORD PTR _szType$GSCopy$[ebp]
  017e6	8d b5 28 fe ff
	ff		 lea	 esi, DWORD PTR __t$539832[ebp]
  017ec	ff 15 00 00 00
	00		 call	 DWORD PTR __imp_?c_str@ioHashString@@QBEPBDXZ
$LL4306@AddRenderI:
  017f2	8a 08		 mov	 cl, BYTE PTR [eax]
  017f4	3a 0e		 cmp	 cl, BYTE PTR [esi]
  017f6	75 1a		 jne	 SHORT $LN4307@AddRenderI
  017f8	3a cb		 cmp	 cl, bl
  017fa	74 12		 je	 SHORT $LN4333@AddRenderI
  017fc	8a 48 01	 mov	 cl, BYTE PTR [eax+1]
  017ff	3a 4e 01	 cmp	 cl, BYTE PTR [esi+1]
  01802	75 0e		 jne	 SHORT $LN4307@AddRenderI
  01804	83 c0 02	 add	 eax, 2
  01807	83 c6 02	 add	 esi, 2
  0180a	3a cb		 cmp	 cl, bl
  0180c	75 e4		 jne	 SHORT $LL4306@AddRenderI
$LN4333@AddRenderI:
  0180e	33 c0		 xor	 eax, eax
  01810	eb 05		 jmp	 SHORT $LN4309@AddRenderI
$LN4307@AddRenderI:
  01812	1b c0		 sbb	 eax, eax
  01814	83 d8 ff	 sbb	 eax, -1
$LN4309@AddRenderI:
  01817	3b c3		 cmp	 eax, ebx
  01819	75 36		 jne	 SHORT $LN4175@AddRenderI

; 431  : 	{
; 432  : 		SAFEDELETE( m_pSpot[SPOT_SHUFFLE_BUFFBOX] );

  0181b	8b b5 30 fd ff
	ff		 mov	 esi, DWORD PTR _this$GSCopy$[ebp]
  01821	39 9e 5c 02 00
	00		 cmp	 DWORD PTR [esi+604], ebx
  01827	74 17		 je	 SHORT $LN11@AddRenderI
  01829	8b 8e 5c 02 00
	00		 mov	 ecx, DWORD PTR [esi+604]
  0182f	3b cb		 cmp	 ecx, ebx
  01831	74 07		 je	 SHORT $LN175@AddRenderI
  01833	8b 01		 mov	 eax, DWORD PTR [ecx]
  01835	6a 01		 push	 1
  01837	ff 50 40	 call	 DWORD PTR [eax+64]
$LN175@AddRenderI:
  0183a	89 9e 5c 02 00
	00		 mov	 DWORD PTR [esi+604], ebx
$LN11@AddRenderI:

; 433  : 		m_pSpot[SPOT_SHUFFLE_BUFFBOX] = pImage;

  01840	8b 85 28 fd ff
	ff		 mov	 eax, DWORD PTR _pImage$GSCopy$[ebp]
  01846	89 86 5c 02 00
	00		 mov	 DWORD PTR [esi+604], eax
  0184c	e9 89 02 00 00	 jmp	 $LN1@AddRenderI
$LN4175@AddRenderI:

; 434  : 	}
; 435  : 	else if( szType == "SpotAreaMe" )

  01851	6a 02		 push	 2
  01853	c7 85 bc fe ff
	ff be 9c 84 9e	 mov	 DWORD PTR __t$539957[ebp], -1635476290 ; 9e849cbeH
  0185d	c7 85 c0 fe ff
	ff ac 9e 8e 8b	 mov	 DWORD PTR __t$539957[ebp+4], -1953587540 ; 8b8e9eacH
  01867	66 c7 85 c4 fe
	ff ff a0 89	 mov	 WORD PTR __t$539957[ebp+8], 35232 ; 000089a0H
  01870	8d 85 bc fe ff
	ff		 lea	 eax, DWORD PTR __t$539957[ebp]
  01876	88 9d c6 fe ff
	ff		 mov	 BYTE PTR __t$539957[ebp+10], bl
  0187c	59		 pop	 ecx
$LL3784@AddRenderI:
  0187d	31 38		 xor	 DWORD PTR [eax], edi
  0187f	83 c0 04	 add	 eax, 4
  01882	49		 dec	 ecx
  01883	75 f8		 jne	 SHORT $LL3784@AddRenderI
  01885	6a 08		 push	 8
  01887	58		 pop	 eax
$LL3781@AddRenderI:
  01888	8b c8		 mov	 ecx, eax
  0188a	81 e1 03 00 00
	80		 and	 ecx, -2147483645	; 80000003H
  01890	79 05		 jns	 SHORT $LN4350@AddRenderI
  01892	49		 dec	 ecx
  01893	83 c9 fc	 or	 ecx, -4			; fffffffcH
  01896	41		 inc	 ecx
$LN4350@AddRenderI:
  01897	b2 ed		 mov	 dl, -19			; ffffffedH
  01899	2a d1		 sub	 dl, cl
  0189b	30 94 05 bc fe
	ff ff		 xor	 BYTE PTR __t$539957[ebp+eax], dl
  018a2	40		 inc	 eax
  018a3	83 f8 0a	 cmp	 eax, 10			; 0000000aH
  018a6	7c e0		 jl	 SHORT $LL3781@AddRenderI
  018a8	8b 8d 2c fd ff
	ff		 mov	 ecx, DWORD PTR _szType$GSCopy$[ebp]
  018ae	8d b5 bc fe ff
	ff		 lea	 esi, DWORD PTR __t$539957[ebp]
  018b4	ff 15 00 00 00
	00		 call	 DWORD PTR __imp_?c_str@ioHashString@@QBEPBDXZ
$LL4310@AddRenderI:
  018ba	8a 08		 mov	 cl, BYTE PTR [eax]
  018bc	3a 0e		 cmp	 cl, BYTE PTR [esi]
  018be	75 1a		 jne	 SHORT $LN4311@AddRenderI
  018c0	3a cb		 cmp	 cl, bl
  018c2	74 12		 je	 SHORT $LN4312@AddRenderI
  018c4	8a 48 01	 mov	 cl, BYTE PTR [eax+1]
  018c7	3a 4e 01	 cmp	 cl, BYTE PTR [esi+1]
  018ca	75 0e		 jne	 SHORT $LN4311@AddRenderI
  018cc	83 c0 02	 add	 eax, 2
  018cf	83 c6 02	 add	 esi, 2
  018d2	3a cb		 cmp	 cl, bl
  018d4	75 e4		 jne	 SHORT $LL4310@AddRenderI
$LN4312@AddRenderI:
  018d6	33 c0		 xor	 eax, eax
  018d8	eb 05		 jmp	 SHORT $LN4313@AddRenderI
$LN4311@AddRenderI:
  018da	1b c0		 sbb	 eax, eax
  018dc	83 d8 ff	 sbb	 eax, -1
$LN4313@AddRenderI:
  018df	3b c3		 cmp	 eax, ebx
  018e1	75 36		 jne	 SHORT $LN4176@AddRenderI

; 436  : 	{
; 437  : 		SAFEDELETE( m_pAreaMe );

  018e3	8b b5 30 fd ff
	ff		 mov	 esi, DWORD PTR _this$GSCopy$[ebp]
  018e9	39 9e d0 01 00
	00		 cmp	 DWORD PTR [esi+464], ebx
  018ef	74 17		 je	 SHORT $LN8@AddRenderI
  018f1	8b 8e d0 01 00
	00		 mov	 ecx, DWORD PTR [esi+464]
  018f7	3b cb		 cmp	 ecx, ebx
  018f9	74 07		 je	 SHORT $LN177@AddRenderI
  018fb	8b 01		 mov	 eax, DWORD PTR [ecx]
  018fd	6a 01		 push	 1
  018ff	ff 50 40	 call	 DWORD PTR [eax+64]
$LN177@AddRenderI:
  01902	89 9e d0 01 00
	00		 mov	 DWORD PTR [esi+464], ebx
$LN8@AddRenderI:

; 438  : 		m_pAreaMe = pImage;

  01908	8b 85 28 fd ff
	ff		 mov	 eax, DWORD PTR _pImage$GSCopy$[ebp]
  0190e	89 86 d0 01 00
	00		 mov	 DWORD PTR [esi+464], eax
  01914	e9 c1 01 00 00	 jmp	 $LN1@AddRenderI
$LN4176@AddRenderI:

; 439  : 	}
; 440  : 	else if( szType == "SpotDobuleCrownDropRed" )

  01919	6a 05		 push	 5
  0191b	c7 85 40 fe ff
	ff be 9c 84 9e	 mov	 DWORD PTR __t$540082[ebp], -1635476290 ; 9e849cbeH
  01925	c7 85 44 fe ff
	ff a9 83 89 9f	 mov	 DWORD PTR __t$540082[ebp+4], -1618377815 ; 9f8983a9H
  0192f	c7 85 48 fe ff
	ff 81 89 a8 98	 mov	 DWORD PTR __t$540082[ebp+8], -1733785215 ; 98a88981H
  01939	c7 85 4c fe ff
	ff 82 9b 85 ae	 mov	 DWORD PTR __t$540082[ebp+12], -1366975614 ; ae859b82H
  01943	c7 85 50 fe ff
	ff 9f 83 9b b8	 mov	 DWORD PTR __t$540082[ebp+16], -1197767777 ; b89b839fH
  0194d	66 c7 85 54 fe
	ff ff 88 88	 mov	 WORD PTR __t$540082[ebp+20], 34952 ; 00008888H
  01956	8d 85 40 fe ff
	ff		 lea	 eax, DWORD PTR __t$540082[ebp]
  0195c	88 9d 56 fe ff
	ff		 mov	 BYTE PTR __t$540082[ebp+22], bl
  01962	59		 pop	 ecx
$LL3890@AddRenderI:
  01963	31 38		 xor	 DWORD PTR [eax], edi
  01965	83 c0 04	 add	 eax, 4
  01968	49		 dec	 ecx
  01969	75 f8		 jne	 SHORT $LL3890@AddRenderI
  0196b	6a 14		 push	 20			; 00000014H
  0196d	58		 pop	 eax
$LL3887@AddRenderI:
  0196e	8b c8		 mov	 ecx, eax
  01970	81 e1 03 00 00
	80		 and	 ecx, -2147483645	; 80000003H
  01976	79 05		 jns	 SHORT $LN4351@AddRenderI
  01978	49		 dec	 ecx
  01979	83 c9 fc	 or	 ecx, -4			; fffffffcH
  0197c	41		 inc	 ecx
$LN4351@AddRenderI:
  0197d	b2 ed		 mov	 dl, -19			; ffffffedH
  0197f	2a d1		 sub	 dl, cl
  01981	30 94 05 40 fe
	ff ff		 xor	 BYTE PTR __t$540082[ebp+eax], dl
  01988	40		 inc	 eax
  01989	83 f8 16	 cmp	 eax, 22			; 00000016H
  0198c	7c e0		 jl	 SHORT $LL3887@AddRenderI
  0198e	8b 8d 2c fd ff
	ff		 mov	 ecx, DWORD PTR _szType$GSCopy$[ebp]
  01994	8d b5 40 fe ff
	ff		 lea	 esi, DWORD PTR __t$540082[ebp]
  0199a	ff 15 00 00 00
	00		 call	 DWORD PTR __imp_?c_str@ioHashString@@QBEPBDXZ
$LL4314@AddRenderI:
  019a0	8a 08		 mov	 cl, BYTE PTR [eax]
  019a2	3a 0e		 cmp	 cl, BYTE PTR [esi]
  019a4	75 1a		 jne	 SHORT $LN4315@AddRenderI
  019a6	3a cb		 cmp	 cl, bl
  019a8	74 12		 je	 SHORT $LN4316@AddRenderI
  019aa	8a 48 01	 mov	 cl, BYTE PTR [eax+1]
  019ad	3a 4e 01	 cmp	 cl, BYTE PTR [esi+1]
  019b0	75 0e		 jne	 SHORT $LN4315@AddRenderI
  019b2	83 c0 02	 add	 eax, 2
  019b5	83 c6 02	 add	 esi, 2
  019b8	3a cb		 cmp	 cl, bl
  019ba	75 e4		 jne	 SHORT $LL4314@AddRenderI
$LN4316@AddRenderI:
  019bc	33 c0		 xor	 eax, eax
  019be	eb 05		 jmp	 SHORT $LN4317@AddRenderI
$LN4315@AddRenderI:
  019c0	1b c0		 sbb	 eax, eax
  019c2	83 d8 ff	 sbb	 eax, -1
$LN4317@AddRenderI:
  019c5	3b c3		 cmp	 eax, ebx
  019c7	75 36		 jne	 SHORT $LN4177@AddRenderI

; 441  : 	{
; 442  : 		SAFEDELETE( m_pSpot[SPOT_DOUBLECROWN_DROP_RED] );

  019c9	8b b5 30 fd ff
	ff		 mov	 esi, DWORD PTR _this$GSCopy$[ebp]
  019cf	39 9e 48 02 00
	00		 cmp	 DWORD PTR [esi+584], ebx
  019d5	74 17		 je	 SHORT $LN5@AddRenderI
  019d7	8b 8e 48 02 00
	00		 mov	 ecx, DWORD PTR [esi+584]
  019dd	3b cb		 cmp	 ecx, ebx
  019df	74 07		 je	 SHORT $LN179@AddRenderI
  019e1	8b 01		 mov	 eax, DWORD PTR [ecx]
  019e3	6a 01		 push	 1
  019e5	ff 50 40	 call	 DWORD PTR [eax+64]
$LN179@AddRenderI:
  019e8	89 9e 48 02 00
	00		 mov	 DWORD PTR [esi+584], ebx
$LN5@AddRenderI:

; 443  : 		m_pSpot[SPOT_DOUBLECROWN_DROP_RED] = pImage;

  019ee	8b 85 28 fd ff
	ff		 mov	 eax, DWORD PTR _pImage$GSCopy$[ebp]
  019f4	89 86 48 02 00
	00		 mov	 DWORD PTR [esi+584], eax
  019fa	e9 db 00 00 00	 jmp	 $LN1@AddRenderI
$LN4177@AddRenderI:

; 444  : 	}
; 445  : 	else if( szType == "SpotDobuleCrownDropBlue" )

  019ff	6a 05		 push	 5
  01a01	c7 45 cc be 9c
	84 9e		 mov	 DWORD PTR __t$540207[ebp], -1635476290 ; 9e849cbeH
  01a08	c7 45 d0 a9 83
	89 9f		 mov	 DWORD PTR __t$540207[ebp+4], -1618377815 ; 9f8983a9H
  01a0f	c7 45 d4 81 89
	a8 98		 mov	 DWORD PTR __t$540207[ebp+8], -1733785215 ; 98a88981H
  01a16	c7 45 d8 82 9b
	85 ae		 mov	 DWORD PTR __t$540207[ebp+12], -1366975614 ; ae859b82H
  01a1d	c7 45 dc 9f 83
	9b a8		 mov	 DWORD PTR __t$540207[ebp+16], -1466203233 ; a89b839fH
  01a24	8d 45 cc	 lea	 eax, DWORD PTR __t$540207[ebp]
  01a27	c7 45 e0 81 99
	8e 00		 mov	 DWORD PTR __t$540207[ebp+20], 9345409 ; 008e9981H
  01a2e	59		 pop	 ecx
$LL3996@AddRenderI:
  01a2f	31 38		 xor	 DWORD PTR [eax], edi
  01a31	83 c0 04	 add	 eax, 4
  01a34	49		 dec	 ecx
  01a35	75 f8		 jne	 SHORT $LL3996@AddRenderI
  01a37	6a 14		 push	 20			; 00000014H
  01a39	58		 pop	 eax
$LL3993@AddRenderI:
  01a3a	8b c8		 mov	 ecx, eax
  01a3c	81 e1 03 00 00
	80		 and	 ecx, -2147483645	; 80000003H
  01a42	79 05		 jns	 SHORT $LN4352@AddRenderI
  01a44	49		 dec	 ecx
  01a45	83 c9 fc	 or	 ecx, -4			; fffffffcH
  01a48	41		 inc	 ecx
$LN4352@AddRenderI:
  01a49	b2 ed		 mov	 dl, -19			; ffffffedH
  01a4b	2a d1		 sub	 dl, cl
  01a4d	30 54 05 cc	 xor	 BYTE PTR __t$540207[ebp+eax], dl
  01a51	40		 inc	 eax
  01a52	83 f8 17	 cmp	 eax, 23			; 00000017H
  01a55	7c e3		 jl	 SHORT $LL3993@AddRenderI
  01a57	8b 8d 2c fd ff
	ff		 mov	 ecx, DWORD PTR _szType$GSCopy$[ebp]
  01a5d	8d 75 cc	 lea	 esi, DWORD PTR __t$540207[ebp]
  01a60	ff 15 00 00 00
	00		 call	 DWORD PTR __imp_?c_str@ioHashString@@QBEPBDXZ
$LL4318@AddRenderI:
  01a66	8a 08		 mov	 cl, BYTE PTR [eax]
  01a68	3a 0e		 cmp	 cl, BYTE PTR [esi]
  01a6a	75 1a		 jne	 SHORT $LN4319@AddRenderI
  01a6c	3a cb		 cmp	 cl, bl
  01a6e	74 12		 je	 SHORT $LN4320@AddRenderI
  01a70	8a 48 01	 mov	 cl, BYTE PTR [eax+1]
  01a73	3a 4e 01	 cmp	 cl, BYTE PTR [esi+1]
  01a76	75 0e		 jne	 SHORT $LN4319@AddRenderI
  01a78	83 c0 02	 add	 eax, 2
  01a7b	83 c6 02	 add	 esi, 2
  01a7e	3a cb		 cmp	 cl, bl
  01a80	75 e4		 jne	 SHORT $LL4318@AddRenderI
$LN4320@AddRenderI:
  01a82	33 c0		 xor	 eax, eax
  01a84	eb 05		 jmp	 SHORT $LN4321@AddRenderI
$LN4319@AddRenderI:
  01a86	1b c0		 sbb	 eax, eax
  01a88	83 d8 ff	 sbb	 eax, -1
$LN4321@AddRenderI:
  01a8b	3b c3		 cmp	 eax, ebx
  01a8d	75 33		 jne	 SHORT $LN3@AddRenderI

; 446  : 	{
; 447  : 		SAFEDELETE( m_pSpot[SPOT_DOUBLECROWN_DROP_BLUE] );

  01a8f	8b b5 30 fd ff
	ff		 mov	 esi, DWORD PTR _this$GSCopy$[ebp]
  01a95	39 9e 4c 02 00
	00		 cmp	 DWORD PTR [esi+588], ebx
  01a9b	74 17		 je	 SHORT $LN2@AddRenderI
  01a9d	8b 8e 4c 02 00
	00		 mov	 ecx, DWORD PTR [esi+588]
  01aa3	3b cb		 cmp	 ecx, ebx
  01aa5	74 07		 je	 SHORT $LN181@AddRenderI
  01aa7	8b 01		 mov	 eax, DWORD PTR [ecx]
  01aa9	6a 01		 push	 1
  01aab	ff 50 40	 call	 DWORD PTR [eax+64]
$LN181@AddRenderI:
  01aae	89 9e 4c 02 00
	00		 mov	 DWORD PTR [esi+588], ebx
$LN2@AddRenderI:

; 448  : 		m_pSpot[SPOT_DOUBLECROWN_DROP_BLUE] = pImage;

  01ab4	8b 85 28 fd ff
	ff		 mov	 eax, DWORD PTR _pImage$GSCopy$[ebp]
  01aba	89 86 4c 02 00
	00		 mov	 DWORD PTR [esi+588], eax

; 449  : 	}
; 450  : 	else

  01ac0	eb 18		 jmp	 SHORT $LN1@AddRenderI
$LN3@AddRenderI:

; 451  : 	{
; 452  : 		ioWnd::AddRenderImage( szType, pImage );

  01ac2	ff b5 28 fd ff
	ff		 push	 DWORD PTR _pImage$GSCopy$[ebp]
  01ac8	8b 8d 30 fd ff
	ff		 mov	 ecx, DWORD PTR _this$GSCopy$[ebp]
  01ace	ff b5 2c fd ff
	ff		 push	 DWORD PTR _szType$GSCopy$[ebp]
  01ad4	ff 15 00 00 00
	00		 call	 DWORD PTR __imp_?AddRenderImage@ioWnd@@UAEXABVioHashString@@PAVioUIRenderImage@@@Z
$LN1@AddRenderI:

; 453  : 	}
; 454  : }

  01ada	8b 4d fc	 mov	 ecx, DWORD PTR __$ArrayPad$[ebp]
  01add	5f		 pop	 edi
  01ade	5e		 pop	 esi
  01adf	33 cd		 xor	 ecx, ebp
  01ae1	5b		 pop	 ebx
  01ae2	e8 00 00 00 00	 call	 @__security_check_cookie@4
  01ae7	c9		 leave
  01ae8	c2 08 00	 ret	 8
?AddRenderImage@MiniMap@@UAEXABVioHashString@@PAVioUIRenderImage@@@Z ENDP ; MiniMap::AddRenderImage
_TEXT	ENDS
PUBLIC	__$ArrayPad$
PUBLIC	?ParseExtraInfo@MiniMap@@UAEXAAVioXMLElement@@@Z ; MiniMap::ParseExtraInfo
; Function compile flags: /Ogsp
;	COMDAT ?ParseExtraInfo@MiniMap@@UAEXAAVioXMLElement@@@Z
_TEXT	SEGMENT
__k$541066 = -28					; size = 17
__k$540941 = -28					; size = 15
__k$540816 = -24					; size = 13
__k$540768 = -24					; size = 12
__$ArrayPad$ = -4					; size = 4
_xElement$ = 8						; size = 4
?ParseExtraInfo@MiniMap@@UAEXAAVioXMLElement@@@Z PROC	; MiniMap::ParseExtraInfo, COMDAT
; _this$ = ecx

; 457  : {

  00000	55		 push	 ebp
  00001	8b ec		 mov	 ebp, esp
  00003	83 ec 1c	 sub	 esp, 28			; 0000001cH
  00006	a1 00 00 00 00	 mov	 eax, DWORD PTR ___security_cookie
  0000b	33 c5		 xor	 eax, ebp
  0000d	89 45 fc	 mov	 DWORD PTR __$ArrayPad$[ebp], eax
  00010	53		 push	 ebx
  00011	8b 5d 08	 mov	 ebx, DWORD PTR _xElement$[ebp]
  00014	57		 push	 edi

; 458  : 	m_dwSpotHideGap     = (DWORD)xElement.GetIntAttribute_e( "SpotHideGap" );

  00015	6a 02		 push	 2
  00017	8b f9		 mov	 edi, ecx
  00019	c7 45 e8 be 9c
	84 9e		 mov	 DWORD PTR __k$540768[ebp], -1635476290 ; 9e849cbeH
  00020	c7 45 ec a5 85
	8f 8f		 mov	 DWORD PTR __k$540768[ebp+4], -1886419547 ; 8f8f85a5H
  00027	8d 45 e8	 lea	 eax, DWORD PTR __k$540768[ebp]
  0002a	c7 45 f0 aa 8d
	9b 00		 mov	 DWORD PTR __k$540768[ebp+8], 10194346 ; 009b8daaH
  00031	59		 pop	 ecx
$LL106@ParseExtra:
  00032	81 30 ed ec eb
	ea		 xor	 DWORD PTR [eax], -353637139 ; eaebecedH
  00038	83 c0 04	 add	 eax, 4
  0003b	49		 dec	 ecx
  0003c	75 f4		 jne	 SHORT $LL106@ParseExtra
  0003e	56		 push	 esi
  0003f	6a 08		 push	 8
  00041	5e		 pop	 esi
$LL103@ParseExtra:
  00042	8b c6		 mov	 eax, esi
  00044	25 03 00 00 80	 and	 eax, -2147483645	; 80000003H
  00049	79 05		 jns	 SHORT $LN443@ParseExtra
  0004b	48		 dec	 eax
  0004c	83 c8 fc	 or	 eax, -4			; fffffffcH
  0004f	40		 inc	 eax
$LN443@ParseExtra:
  00050	b1 ed		 mov	 cl, -19			; ffffffedH
  00052	2a c8		 sub	 cl, al
  00054	30 4c 35 e8	 xor	 BYTE PTR __k$540768[ebp+esi], cl
  00058	46		 inc	 esi
  00059	83 fe 0b	 cmp	 esi, 11			; 0000000bH
  0005c	7c e4		 jl	 SHORT $LL103@ParseExtra
  0005e	8b 35 00 00 00
	00		 mov	 esi, DWORD PTR __imp_?GetIntAttribute@ioXMLElement@@QBEHPBD@Z
  00064	8d 45 e8	 lea	 eax, DWORD PTR __k$540768[ebp]
  00067	50		 push	 eax
  00068	8b cb		 mov	 ecx, ebx
  0006a	ff d6		 call	 esi
  0006c	6a 03		 push	 3
  0006e	89 87 b0 02 00
	00		 mov	 DWORD PTR [edi+688], eax

; 459  : 	m_dwSpotDuration    = (DWORD)xElement.GetIntAttribute_e( "SpotDuration" );

  00074	c7 45 e8 be 9c
	84 9e		 mov	 DWORD PTR __k$540816[ebp], -1635476290 ; 9e849cbeH
  0007b	c7 45 ec a9 99
	99 8b		 mov	 DWORD PTR __k$540816[ebp+4], -1952867927 ; 8b9999a9H
  00082	c7 45 f0 99 85
	84 84		 mov	 DWORD PTR __k$540816[ebp+8], -2071689831 ; 84848599H
  00089	8d 45 e8	 lea	 eax, DWORD PTR __k$540816[ebp]
  0008c	c6 45 f4 00	 mov	 BYTE PTR __k$540816[ebp+12], 0
  00090	59		 pop	 ecx
$LL212@ParseExtra:
  00091	81 30 ed ec eb
	ea		 xor	 DWORD PTR [eax], -353637139 ; eaebecedH
  00097	83 c0 04	 add	 eax, 4
  0009a	49		 dec	 ecx
  0009b	75 f4		 jne	 SHORT $LL212@ParseExtra
  0009d	8d 45 e8	 lea	 eax, DWORD PTR __k$540816[ebp]
  000a0	50		 push	 eax
  000a1	8b cb		 mov	 ecx, ebx
  000a3	ff d6		 call	 esi
  000a5	6a 03		 push	 3
  000a7	89 87 a8 02 00
	00		 mov	 DWORD PTR [edi+680], eax

; 460  : 	m_dwSpotVisibleGap  = (DWORD)xElement.GetIntAttribute_e( "SpotVisibleGap" );

  000ad	c7 45 e4 be 9c
	84 9e		 mov	 DWORD PTR __k$540941[ebp], -1635476290 ; 9e849cbeH
  000b4	c7 45 e8 bb 85
	98 83		 mov	 DWORD PTR __k$540941[ebp+4], -2087156293 ; 839885bbH
  000bb	c7 45 ec 8f 80
	8e ad		 mov	 DWORD PTR __k$540941[ebp+8], -1383169905 ; ad8e808fH
  000c2	66 c7 45 f0 8c
	9c		 mov	 WORD PTR __k$540941[ebp+12], 40076 ; 00009c8cH
  000c8	8d 45 e4	 lea	 eax, DWORD PTR __k$540941[ebp]
  000cb	c6 45 f2 00	 mov	 BYTE PTR __k$540941[ebp+14], 0
  000cf	59		 pop	 ecx
$LL318@ParseExtra:
  000d0	81 30 ed ec eb
	ea		 xor	 DWORD PTR [eax], -353637139 ; eaebecedH
  000d6	83 c0 04	 add	 eax, 4
  000d9	49		 dec	 ecx
  000da	75 f4		 jne	 SHORT $LL318@ParseExtra
  000dc	6a 0c		 push	 12			; 0000000cH
  000de	58		 pop	 eax
$LL315@ParseExtra:
  000df	8b c8		 mov	 ecx, eax
  000e1	81 e1 03 00 00
	80		 and	 ecx, -2147483645	; 80000003H
  000e7	79 05		 jns	 SHORT $LN444@ParseExtra
  000e9	49		 dec	 ecx
  000ea	83 c9 fc	 or	 ecx, -4			; fffffffcH
  000ed	41		 inc	 ecx
$LN444@ParseExtra:
  000ee	b2 ed		 mov	 dl, -19			; ffffffedH
  000f0	2a d1		 sub	 dl, cl
  000f2	30 54 05 e4	 xor	 BYTE PTR __k$540941[ebp+eax], dl
  000f6	40		 inc	 eax
  000f7	83 f8 0e	 cmp	 eax, 14			; 0000000eH
  000fa	7c e3		 jl	 SHORT $LL315@ParseExtra
  000fc	8d 45 e4	 lea	 eax, DWORD PTR __k$540941[ebp]
  000ff	50		 push	 eax
  00100	8b cb		 mov	 ecx, ebx
  00102	ff d6		 call	 esi
  00104	6a 04		 push	 4
  00106	59		 pop	 ecx
  00107	89 87 ac 02 00
	00		 mov	 DWORD PTR [edi+684], eax

; 461  : 	m_fSpotPositionRate = xElement.GetFloatAttribute_e( "SpotPositionRate" );

  0010d	c7 45 e4 be 9c
	84 9e		 mov	 DWORD PTR __k$541066[ebp], -1635476290 ; 9e849cbeH
  00114	c7 45 e8 bd 83
	98 83		 mov	 DWORD PTR __k$541066[ebp+4], -2087156803 ; 839883bdH
  0011b	c7 45 ec 99 85
	84 84		 mov	 DWORD PTR __k$541066[ebp+8], -2071689831 ; 84848599H
  00122	c7 45 f0 bf 8d
	9f 8f		 mov	 DWORD PTR __k$541066[ebp+12], -1885368897 ; 8f9f8dbfH
  00129	8d 45 e4	 lea	 eax, DWORD PTR __k$541066[ebp]
  0012c	c6 45 f4 00	 mov	 BYTE PTR __k$541066[ebp+16], 0
  00130	5e		 pop	 esi
$LL424@ParseExtra:
  00131	81 30 ed ec eb
	ea		 xor	 DWORD PTR [eax], -353637139 ; eaebecedH
  00137	83 c0 04	 add	 eax, 4
  0013a	49		 dec	 ecx
  0013b	75 f4		 jne	 SHORT $LL424@ParseExtra
  0013d	8d 45 e4	 lea	 eax, DWORD PTR __k$541066[ebp]
  00140	50		 push	 eax
  00141	8b cb		 mov	 ecx, ebx
  00143	ff 15 00 00 00
	00		 call	 DWORD PTR __imp_?GetFloatAttribute@ioXMLElement@@QBEMPBD@Z
  00149	d9 9f b8 02 00
	00		 fstp	 DWORD PTR [edi+696]

; 462  : }

  0014f	8b 4d fc	 mov	 ecx, DWORD PTR __$ArrayPad$[ebp]
  00152	5f		 pop	 edi
  00153	33 cd		 xor	 ecx, ebp
  00155	5b		 pop	 ebx
  00156	e8 00 00 00 00	 call	 @__security_check_cookie@4
  0015b	c9		 leave
  0015c	c2 04 00	 ret	 4
?ParseExtraInfo@MiniMap@@UAEXAAVioXMLElement@@@Z ENDP	; MiniMap::ParseExtraInfo
_TEXT	ENDS
PUBLIC	?UpdateAniState@MiniMap@@IAEXXZ			; MiniMap::UpdateAniState
; Function compile flags: /Ogsp
;	COMDAT ?UpdateAniState@MiniMap@@IAEXXZ
_TEXT	SEGMENT
?UpdateAniState@MiniMap@@IAEXXZ PROC			; MiniMap::UpdateAniState, COMDAT
; _this$ = ecx

; 798  : {

  00000	56		 push	 esi
  00001	8b f1		 mov	 esi, ecx

; 799  : 	if( UpdateShowAni() )

  00003	e8 00 00 00 00	 call	 ?UpdateShowAni@MiniMap@@IAE_NXZ ; MiniMap::UpdateShowAni
  00008	84 c0		 test	 al, al
  0000a	75 56		 jne	 SHORT $LN1@UpdateAniS

; 800  : 		return;
; 801  : 
; 802  : 	UpdateDefaultPos();

  0000c	8b ce		 mov	 ecx, esi
  0000e	e8 00 00 00 00	 call	 ?UpdateDefaultPos@MiniMap@@IAEXXZ ; MiniMap::UpdateDefaultPos

; 803  : 
; 804  : 	// blind ani
; 805  : 	if( m_iBlindOffSetY != m_iPreBlindOffSetY )

  00013	8b 86 c4 01 00
	00		 mov	 eax, DWORD PTR [esi+452]
  00019	3b 86 c8 01 00
	00		 cmp	 eax, DWORD PTR [esi+456]
  0001f	74 41		 je	 SHORT $LN1@UpdateAniS

; 806  : 	{
; 807  : 		int iCurYPos = m_iDefaultY + m_iBlindOffSetY;

  00021	57		 push	 edi
  00022	8b be a4 02 00
	00		 mov	 edi, DWORD PTR [esi+676]
  00028	03 f8		 add	 edi, eax

; 808  : 		if( COMPARE( iCurYPos, 0, ( Setting::Height() - GetHeight() ) + 1) )

  0002a	78 35		 js	 SHORT $LN6@UpdateAniS
  0002c	53		 push	 ebx
  0002d	8b ce		 mov	 ecx, esi
  0002f	ff 15 00 00 00
	00		 call	 DWORD PTR __imp_?GetHeight@ioWnd@@QBEHXZ
  00035	33 db		 xor	 ebx, ebx
  00037	43		 inc	 ebx
  00038	2b d8		 sub	 ebx, eax
  0003a	e8 00 00 00 00	 call	 ?Height@Setting@@SAHXZ	; Setting::Height
  0003f	03 c3		 add	 eax, ebx
  00041	5b		 pop	 ebx
  00042	3b f8		 cmp	 edi, eax
  00044	7d 1b		 jge	 SHORT $LN6@UpdateAniS

; 809  : 		{
; 810  : 			SetWndPos( m_iDefaultX,  iCurYPos );

  00046	57		 push	 edi
  00047	ff b6 a0 02 00
	00		 push	 DWORD PTR [esi+672]
  0004d	8b ce		 mov	 ecx, esi
  0004f	ff 15 00 00 00
	00		 call	 DWORD PTR __imp_?SetWndPos@ioWnd@@QAEXHH@Z

; 811  : 			m_iPreBlindOffSetY = m_iBlindOffSetY;

  00055	8b 86 c4 01 00
	00		 mov	 eax, DWORD PTR [esi+452]
  0005b	89 86 c8 01 00
	00		 mov	 DWORD PTR [esi+456], eax
$LN6@UpdateAniS:
  00061	5f		 pop	 edi
$LN1@UpdateAniS:
  00062	5e		 pop	 esi

; 812  : 		}
; 813  : 	}
; 814  : }

  00063	c3		 ret	 0
?UpdateAniState@MiniMap@@IAEXXZ ENDP			; MiniMap::UpdateAniState
_TEXT	ENDS
PUBLIC	??0?$vector@USpotPoint@MiniMap@@V?$allocator@USpotPoint@MiniMap@@@std@@@std@@QAE@XZ ; std::vector<MiniMap::SpotPoint,std::allocator<MiniMap::SpotPoint> >::vector<MiniMap::SpotPoint,std::allocator<MiniMap::SpotPoint> >
; Function compile flags: /Ogsp
; File c:\program files (x86)\microsoft visual studio 10.0\vc\include\vector
;	COMDAT ??0?$vector@USpotPoint@MiniMap@@V?$allocator@USpotPoint@MiniMap@@@std@@@std@@QAE@XZ
_TEXT	SEGMENT
??0?$vector@USpotPoint@MiniMap@@V?$allocator@USpotPoint@MiniMap@@@std@@@std@@QAE@XZ PROC ; std::vector<MiniMap::SpotPoint,std::allocator<MiniMap::SpotPoint> >::vector<MiniMap::SpotPoint,std::allocator<MiniMap::SpotPoint> >, COMDAT
; _this$ = ecx

; 507  : 		{	// construct empty vector

  00000	8b c1		 mov	 eax, ecx
  00002	33 c9		 xor	 ecx, ecx
  00004	89 08		 mov	 DWORD PTR [eax], ecx
  00006	89 48 04	 mov	 DWORD PTR [eax+4], ecx
  00009	89 48 08	 mov	 DWORD PTR [eax+8], ecx

; 508  : 		}

  0000c	c3		 ret	 0
??0?$vector@USpotPoint@MiniMap@@V?$allocator@USpotPoint@MiniMap@@@std@@@std@@QAE@XZ ENDP ; std::vector<MiniMap::SpotPoint,std::allocator<MiniMap::SpotPoint> >::vector<MiniMap::SpotPoint,std::allocator<MiniMap::SpotPoint> >
_TEXT	ENDS
PUBLIC	?begin@?$vector@USpotPoint@MiniMap@@V?$allocator@USpotPoint@MiniMap@@@std@@@std@@QAE?AV?$_Vector_iterator@V?$_Vector_val@USpotPoint@MiniMap@@V?$allocator@USpotPoint@MiniMap@@@std@@@std@@@2@XZ ; std::vector<MiniMap::SpotPoint,std::allocator<MiniMap::SpotPoint> >::begin
; Function compile flags: /Ogsp
;	COMDAT ?begin@?$vector@USpotPoint@MiniMap@@V?$allocator@USpotPoint@MiniMap@@@std@@@std@@QAE?AV?$_Vector_iterator@V?$_Vector_val@USpotPoint@MiniMap@@V?$allocator@USpotPoint@MiniMap@@@std@@@std@@@2@XZ
_TEXT	SEGMENT
___$ReturnUdt$ = 8					; size = 4
?begin@?$vector@USpotPoint@MiniMap@@V?$allocator@USpotPoint@MiniMap@@@std@@@std@@QAE?AV?$_Vector_iterator@V?$_Vector_val@USpotPoint@MiniMap@@V?$allocator@USpotPoint@MiniMap@@@std@@@std@@@2@XZ PROC ; std::vector<MiniMap::SpotPoint,std::allocator<MiniMap::SpotPoint> >::begin, COMDAT
; _this$ = ecx

; 781  : 		{	// return iterator for beginning of mutable sequence

  00000	55		 push	 ebp
  00001	8b ec		 mov	 ebp, esp

; 782  : 		return (iterator(this->_Myfirst, this));

  00003	8b 09		 mov	 ecx, DWORD PTR [ecx]
  00005	8b 45 08	 mov	 eax, DWORD PTR ___$ReturnUdt$[ebp]
  00008	89 08		 mov	 DWORD PTR [eax], ecx

; 783  : 		}

  0000a	5d		 pop	 ebp
  0000b	c2 04 00	 ret	 4
?begin@?$vector@USpotPoint@MiniMap@@V?$allocator@USpotPoint@MiniMap@@@std@@@std@@QAE?AV?$_Vector_iterator@V?$_Vector_val@USpotPoint@MiniMap@@V?$allocator@USpotPoint@MiniMap@@@std@@@std@@@2@XZ ENDP ; std::vector<MiniMap::SpotPoint,std::allocator<MiniMap::SpotPoint> >::begin
_TEXT	ENDS
PUBLIC	?end@?$vector@USpotPoint@MiniMap@@V?$allocator@USpotPoint@MiniMap@@@std@@@std@@QAE?AV?$_Vector_iterator@V?$_Vector_val@USpotPoint@MiniMap@@V?$allocator@USpotPoint@MiniMap@@@std@@@std@@@2@XZ ; std::vector<MiniMap::SpotPoint,std::allocator<MiniMap::SpotPoint> >::end
; Function compile flags: /Ogsp
;	COMDAT ?end@?$vector@USpotPoint@MiniMap@@V?$allocator@USpotPoint@MiniMap@@@std@@@std@@QAE?AV?$_Vector_iterator@V?$_Vector_val@USpotPoint@MiniMap@@V?$allocator@USpotPoint@MiniMap@@@std@@@std@@@2@XZ
_TEXT	SEGMENT
___$ReturnUdt$ = 8					; size = 4
?end@?$vector@USpotPoint@MiniMap@@V?$allocator@USpotPoint@MiniMap@@@std@@@std@@QAE?AV?$_Vector_iterator@V?$_Vector_val@USpotPoint@MiniMap@@V?$allocator@USpotPoint@MiniMap@@@std@@@std@@@2@XZ PROC ; std::vector<MiniMap::SpotPoint,std::allocator<MiniMap::SpotPoint> >::end, COMDAT
; _this$ = ecx

; 791  : 		{	// return iterator for end of mutable sequence

  00000	55		 push	 ebp
  00001	8b ec		 mov	 ebp, esp

; 792  : 		return (iterator(this->_Mylast, this));

  00003	8b 49 04	 mov	 ecx, DWORD PTR [ecx+4]
  00006	8b 45 08	 mov	 eax, DWORD PTR ___$ReturnUdt$[ebp]
  00009	89 08		 mov	 DWORD PTR [eax], ecx

; 793  : 		}

  0000b	5d		 pop	 ebp
  0000c	c2 04 00	 ret	 4
?end@?$vector@USpotPoint@MiniMap@@V?$allocator@USpotPoint@MiniMap@@@std@@@std@@QAE?AV?$_Vector_iterator@V?$_Vector_val@USpotPoint@MiniMap@@V?$allocator@USpotPoint@MiniMap@@@std@@@std@@@2@XZ ENDP ; std::vector<MiniMap::SpotPoint,std::allocator<MiniMap::SpotPoint> >::end
_TEXT	ENDS
PUBLIC	??9?$_Vector_const_iterator@V?$_Vector_val@USpotPoint@MiniMap@@V?$allocator@USpotPoint@MiniMap@@@std@@@std@@@std@@QBE_NABV01@@Z ; std::_Vector_const_iterator<std::_Vector_val<MiniMap::SpotPoint,std::allocator<MiniMap::SpotPoint> > >::operator!=
; Function compile flags: /Ogsp
;	COMDAT ??9?$_Vector_const_iterator@V?$_Vector_val@USpotPoint@MiniMap@@V?$allocator@USpotPoint@MiniMap@@@std@@@std@@@std@@QBE_NABV01@@Z
_TEXT	SEGMENT
__Right$ = 8						; size = 4
??9?$_Vector_const_iterator@V?$_Vector_val@USpotPoint@MiniMap@@V?$allocator@USpotPoint@MiniMap@@@std@@@std@@@std@@QBE_NABV01@@Z PROC ; std::_Vector_const_iterator<std::_Vector_val<MiniMap::SpotPoint,std::allocator<MiniMap::SpotPoint> > >::operator!=, COMDAT
; _this$ = ecx

; 207  : 		{	// test for iterator inequality

  00000	55		 push	 ebp
  00001	8b ec		 mov	 ebp, esp

; 208  : 		return (!(*this == _Right));

  00003	8b 01		 mov	 eax, DWORD PTR [ecx]
  00005	8b 55 08	 mov	 edx, DWORD PTR __Right$[ebp]
  00008	33 c9		 xor	 ecx, ecx
  0000a	3b 02		 cmp	 eax, DWORD PTR [edx]
  0000c	0f 95 c0	 setne	 al

; 209  : 		}

  0000f	5d		 pop	 ebp
  00010	c2 04 00	 ret	 4
??9?$_Vector_const_iterator@V?$_Vector_val@USpotPoint@MiniMap@@V?$allocator@USpotPoint@MiniMap@@@std@@@std@@@std@@QBE_NABV01@@Z ENDP ; std::_Vector_const_iterator<std::_Vector_val<MiniMap::SpotPoint,std::allocator<MiniMap::SpotPoint> > >::operator!=
_TEXT	ENDS
PUBLIC	?_Make_iter@?$vector@USpotPoint@MiniMap@@V?$allocator@USpotPoint@MiniMap@@@std@@@std@@QBE?AV?$_Vector_iterator@V?$_Vector_val@USpotPoint@MiniMap@@V?$allocator@USpotPoint@MiniMap@@@std@@@std@@@2@V?$_Vector_const_iterator@V?$_Vector_val@USpotPoint@MiniMap@@V?$allocator@USpotPoint@MiniMap@@@std@@@std@@@2@@Z ; std::vector<MiniMap::SpotPoint,std::allocator<MiniMap::SpotPoint> >::_Make_iter
; Function compile flags: /Ogsp
;	COMDAT ?_Make_iter@?$vector@USpotPoint@MiniMap@@V?$allocator@USpotPoint@MiniMap@@@std@@@std@@QBE?AV?$_Vector_iterator@V?$_Vector_val@USpotPoint@MiniMap@@V?$allocator@USpotPoint@MiniMap@@@std@@@std@@@2@V?$_Vector_const_iterator@V?$_Vector_val@USpotPoint@MiniMap@@V?$allocator@USpotPoint@MiniMap@@@std@@@std@@@2@@Z
_TEXT	SEGMENT
___$ReturnUdt$ = 8					; size = 4
__Where$ = 12						; size = 4
?_Make_iter@?$vector@USpotPoint@MiniMap@@V?$allocator@USpotPoint@MiniMap@@@std@@@std@@QBE?AV?$_Vector_iterator@V?$_Vector_val@USpotPoint@MiniMap@@V?$allocator@USpotPoint@MiniMap@@@std@@@std@@@2@V?$_Vector_const_iterator@V?$_Vector_val@USpotPoint@MiniMap@@V?$allocator@USpotPoint@MiniMap@@@std@@@std@@@2@@Z PROC ; std::vector<MiniMap::SpotPoint,std::allocator<MiniMap::SpotPoint> >::_Make_iter, COMDAT
; _this$ = ecx

; 801  : 		{	// make iterator from const_iterator

  00000	55		 push	 ebp
  00001	8b ec		 mov	 ebp, esp

; 802  : 		return (iterator(_Where._Ptr, this));

  00003	8b 45 08	 mov	 eax, DWORD PTR ___$ReturnUdt$[ebp]
  00006	8b 4d 0c	 mov	 ecx, DWORD PTR __Where$[ebp]
  00009	89 08		 mov	 DWORD PTR [eax], ecx

; 803  : 		}

  0000b	5d		 pop	 ebp
  0000c	c2 08 00	 ret	 8
?_Make_iter@?$vector@USpotPoint@MiniMap@@V?$allocator@USpotPoint@MiniMap@@@std@@@std@@QBE?AV?$_Vector_iterator@V?$_Vector_val@USpotPoint@MiniMap@@V?$allocator@USpotPoint@MiniMap@@@std@@@std@@@2@V?$_Vector_const_iterator@V?$_Vector_val@USpotPoint@MiniMap@@V?$allocator@USpotPoint@MiniMap@@@std@@@std@@@2@@Z ENDP ; std::vector<MiniMap::SpotPoint,std::allocator<MiniMap::SpotPoint> >::_Make_iter
_TEXT	ENDS
PUBLIC	??$_Cons_val@V?$allocator@USpotPoint@MiniMap@@@std@@USpotPoint@MiniMap@@ABU34@@std@@YAXAAV?$allocator@USpotPoint@MiniMap@@@0@PAUSpotPoint@MiniMap@@ABU23@@Z ; std::_Cons_val<std::allocator<MiniMap::SpotPoint>,MiniMap::SpotPoint,MiniMap::SpotPoint const &>
; Function compile flags: /Ogsp
; File c:\program files (x86)\microsoft visual studio 10.0\vc\include\xmemory
;	COMDAT ??$_Cons_val@V?$allocator@USpotPoint@MiniMap@@@std@@USpotPoint@MiniMap@@ABU34@@std@@YAXAAV?$allocator@USpotPoint@MiniMap@@@0@PAUSpotPoint@MiniMap@@ABU23@@Z
_TEXT	SEGMENT
__Alval$ = 8						; size = 4
__Pdest$ = 12						; size = 4
__Src$ = 16						; size = 4
??$_Cons_val@V?$allocator@USpotPoint@MiniMap@@@std@@USpotPoint@MiniMap@@ABU34@@std@@YAXAAV?$allocator@USpotPoint@MiniMap@@@0@PAUSpotPoint@MiniMap@@ABU23@@Z PROC ; std::_Cons_val<std::allocator<MiniMap::SpotPoint>,MiniMap::SpotPoint,MiniMap::SpotPoint const &>, COMDAT

; 279  : 	{	// construct using allocator

  00000	55		 push	 ebp
  00001	8b ec		 mov	 ebp, esp
  00003	57		 push	 edi

; 280  : 	_Alval.construct(_Pdest, _STD forward<_Ty2>(_Src));

  00004	8b 7d 0c	 mov	 edi, DWORD PTR __Pdest$[ebp]
  00007	85 ff		 test	 edi, edi
  00009	74 0a		 je	 SHORT $LN9@Cons_val@2
  0000b	56		 push	 esi
  0000c	8b 75 10	 mov	 esi, DWORD PTR __Src$[ebp]
  0000f	6a 05		 push	 5
  00011	59		 pop	 ecx
  00012	f3 a5		 rep movsd
  00014	5e		 pop	 esi
$LN9@Cons_val@2:
  00015	5f		 pop	 edi

; 281  : 	}

  00016	5d		 pop	 ebp
  00017	c3		 ret	 0
??$_Cons_val@V?$allocator@USpotPoint@MiniMap@@@std@@USpotPoint@MiniMap@@ABU34@@std@@YAXAAV?$allocator@USpotPoint@MiniMap@@@0@PAUSpotPoint@MiniMap@@ABU23@@Z ENDP ; std::_Cons_val<std::allocator<MiniMap::SpotPoint>,MiniMap::SpotPoint,MiniMap::SpotPoint const &>
_TEXT	ENDS
PUBLIC	??$_Move@PAUSpotPoint@MiniMap@@PAU12@@std@@YAPAUSpotPoint@MiniMap@@PAU12@00@Z ; std::_Move<MiniMap::SpotPoint *,MiniMap::SpotPoint *>
; Function compile flags: /Ogsp
; File c:\program files (x86)\microsoft visual studio 10.0\vc\include\xutility
;	COMDAT ??$_Move@PAUSpotPoint@MiniMap@@PAU12@@std@@YAPAUSpotPoint@MiniMap@@PAU12@00@Z
_TEXT	SEGMENT
__Cat$541314 = -4					; size = 1
__First$ = 8						; size = 4
__Last$ = 12						; size = 4
__Dest$ = 16						; size = 4
??$_Move@PAUSpotPoint@MiniMap@@PAU12@@std@@YAPAUSpotPoint@MiniMap@@PAU12@00@Z PROC ; std::_Move<MiniMap::SpotPoint *,MiniMap::SpotPoint *>, COMDAT

; 2533 : 	{	// move [_First, _Last) to [_Dest, ...), unchecked

  00000	55		 push	 ebp
  00001	8b ec		 mov	 ebp, esp
  00003	51		 push	 ecx

; 2534 : 	return (_Move(_First, _Last,
; 2535 : 		_Dest, _Ptr_cat(_First, _Dest)));

  00004	ff 75 fc	 push	 DWORD PTR __Cat$541314[ebp]
  00007	ff 75 10	 push	 DWORD PTR __Dest$[ebp]
  0000a	ff 75 0c	 push	 DWORD PTR __Last$[ebp]
  0000d	ff 75 08	 push	 DWORD PTR __First$[ebp]
  00010	e8 00 00 00 00	 call	 ??$_Move@PAUSpotPoint@MiniMap@@PAU12@@std@@YAPAUSpotPoint@MiniMap@@PAU12@00U_Nonscalar_ptr_iterator_tag@0@@Z ; std::_Move<MiniMap::SpotPoint *,MiniMap::SpotPoint *>
  00015	83 c4 10	 add	 esp, 16			; 00000010H

; 2536 : 	}

  00018	c9		 leave
  00019	c3		 ret	 0
??$_Move@PAUSpotPoint@MiniMap@@PAU12@@std@@YAPAUSpotPoint@MiniMap@@PAU12@00@Z ENDP ; std::_Move<MiniMap::SpotPoint *,MiniMap::SpotPoint *>
_TEXT	ENDS
PUBLIC	??$_Dest_val@V?$allocator@USpotPoint@MiniMap@@@std@@USpotPoint@MiniMap@@@std@@YAXAAV?$allocator@USpotPoint@MiniMap@@@0@PAUSpotPoint@MiniMap@@@Z ; std::_Dest_val<std::allocator<MiniMap::SpotPoint>,MiniMap::SpotPoint>
; Function compile flags: /Ogsp
; File c:\program files (x86)\microsoft visual studio 10.0\vc\include\xmemory
;	COMDAT ??$_Dest_val@V?$allocator@USpotPoint@MiniMap@@@std@@USpotPoint@MiniMap@@@std@@YAXAAV?$allocator@USpotPoint@MiniMap@@@0@PAUSpotPoint@MiniMap@@@Z
_TEXT	SEGMENT
__Alval$ = 8						; size = 4
__Pdest$ = 12						; size = 4
??$_Dest_val@V?$allocator@USpotPoint@MiniMap@@@std@@USpotPoint@MiniMap@@@std@@YAXAAV?$allocator@USpotPoint@MiniMap@@@0@PAUSpotPoint@MiniMap@@@Z PROC ; std::_Dest_val<std::allocator<MiniMap::SpotPoint>,MiniMap::SpotPoint>, COMDAT

; 287  : 	_Alval.destroy(_Pdest);
; 288  : 	}

  00000	c3		 ret	 0
??$_Dest_val@V?$allocator@USpotPoint@MiniMap@@@std@@USpotPoint@MiniMap@@@std@@YAXAAV?$allocator@USpotPoint@MiniMap@@@0@PAUSpotPoint@MiniMap@@@Z ENDP ; std::_Dest_val<std::allocator<MiniMap::SpotPoint>,MiniMap::SpotPoint>
_TEXT	ENDS
PUBLIC	??$_Cons_val@V?$allocator@USpotPoint@MiniMap@@@std@@USpotPoint@MiniMap@@U34@@std@@YAXAAV?$allocator@USpotPoint@MiniMap@@@0@PAUSpotPoint@MiniMap@@$$QAU23@@Z ; std::_Cons_val<std::allocator<MiniMap::SpotPoint>,MiniMap::SpotPoint,MiniMap::SpotPoint>
; Function compile flags: /Ogsp
;	COMDAT ??$_Cons_val@V?$allocator@USpotPoint@MiniMap@@@std@@USpotPoint@MiniMap@@U34@@std@@YAXAAV?$allocator@USpotPoint@MiniMap@@@0@PAUSpotPoint@MiniMap@@$$QAU23@@Z
_TEXT	SEGMENT
__Alval$ = 8						; size = 4
__Pdest$ = 12						; size = 4
__Src$ = 16						; size = 4
??$_Cons_val@V?$allocator@USpotPoint@MiniMap@@@std@@USpotPoint@MiniMap@@U34@@std@@YAXAAV?$allocator@USpotPoint@MiniMap@@@0@PAUSpotPoint@MiniMap@@$$QAU23@@Z PROC ; std::_Cons_val<std::allocator<MiniMap::SpotPoint>,MiniMap::SpotPoint,MiniMap::SpotPoint>, COMDAT

; 279  : 	{	// construct using allocator

  00000	55		 push	 ebp
  00001	8b ec		 mov	 ebp, esp
  00003	57		 push	 edi

; 280  : 	_Alval.construct(_Pdest, _STD forward<_Ty2>(_Src));

  00004	8b 7d 0c	 mov	 edi, DWORD PTR __Pdest$[ebp]
  00007	85 ff		 test	 edi, edi
  00009	74 0a		 je	 SHORT $LN7@Cons_val@3
  0000b	56		 push	 esi
  0000c	8b 75 10	 mov	 esi, DWORD PTR __Src$[ebp]
  0000f	6a 05		 push	 5
  00011	59		 pop	 ecx
  00012	f3 a5		 rep movsd
  00014	5e		 pop	 esi
$LN7@Cons_val@3:
  00015	5f		 pop	 edi

; 281  : 	}

  00016	5d		 pop	 ebp
  00017	c3		 ret	 0
??$_Cons_val@V?$allocator@USpotPoint@MiniMap@@@std@@USpotPoint@MiniMap@@U34@@std@@YAXAAV?$allocator@USpotPoint@MiniMap@@@0@PAUSpotPoint@MiniMap@@$$QAU23@@Z ENDP ; std::_Cons_val<std::allocator<MiniMap::SpotPoint>,MiniMap::SpotPoint,MiniMap::SpotPoint>
_TEXT	ENDS
PUBLIC	?OnProcess@MiniMap@@MAEXM@Z			; MiniMap::OnProcess
EXTRN	__imp_?OnProcess@ioWnd@@MAEXM@Z:PROC
EXTRN	__imp_?IsShow@ioWnd@@QBE_NXZ:PROC
; Function compile flags: /Ogsp
; File d:\lost saga for developer\youtube\tutorial\source\src\lsclient\gui\minimap.cpp
;	COMDAT ?OnProcess@MiniMap@@MAEXM@Z
_TEXT	SEGMENT
_fTimePerSec$ = 8					; size = 4
?OnProcess@MiniMap@@MAEXM@Z PROC			; MiniMap::OnProcess, COMDAT
; _this$ = ecx

; 480  : {

  00000	55		 push	 ebp
  00001	8b ec		 mov	 ebp, esp
  00003	56		 push	 esi
  00004	8b f1		 mov	 esi, ecx

; 481  : 	if( !IsShow() ) return;

  00006	ff 15 00 00 00
	00		 call	 DWORD PTR __imp_?IsShow@ioWnd@@QBE_NXZ
  0000c	84 c0		 test	 al, al
  0000e	74 1a		 je	 SHORT $LN2@OnProcess

; 482  : 
; 483  : 	UpdateAniState();	

  00010	8b ce		 mov	 ecx, esi
  00012	e8 00 00 00 00	 call	 ?UpdateAniState@MiniMap@@IAEXXZ ; MiniMap::UpdateAniState

; 484  : 
; 485  : 	ioMovingWnd::OnProcess( fTimePerSec );

  00017	f3 0f 10 45 08	 movss	 xmm0, DWORD PTR _fTimePerSec$[ebp]
  0001c	51		 push	 ecx
  0001d	8b ce		 mov	 ecx, esi
  0001f	f3 0f 11 04 24	 movss	 DWORD PTR [esp], xmm0
  00024	ff 15 00 00 00
	00		 call	 DWORD PTR __imp_?OnProcess@ioWnd@@MAEXM@Z
$LN2@OnProcess:
  0002a	5e		 pop	 esi

; 486  : }

  0002b	5d		 pop	 ebp
  0002c	c2 04 00	 ret	 4
?OnProcess@MiniMap@@MAEXM@Z ENDP			; MiniMap::OnProcess
_TEXT	ENDS
PUBLIC	?OnRender@MiniMap@@MAEXXZ			; MiniMap::OnRender
EXTRN	__imp_?OnRender@ioWnd@@MAEXXZ:PROC
; Function compile flags: /Ogsp
;	COMDAT ?OnRender@MiniMap@@MAEXXZ
_TEXT	SEGMENT
_iYPos$ = -4						; size = 4
?OnRender@MiniMap@@MAEXXZ PROC				; MiniMap::OnRender, COMDAT
; _this$ = ecx

; 489  : {

  00000	55		 push	 ebp
  00001	8b ec		 mov	 ebp, esp
  00003	51		 push	 ecx
  00004	56		 push	 esi
  00005	8b f1		 mov	 esi, ecx

; 490  : 	if( !m_pMiniMap )	return;

  00007	83 be cc 01 00
	00 00		 cmp	 DWORD PTR [esi+460], 0
  0000e	0f 84 19 01 00
	00		 je	 $LN11@OnRender

; 491  : 
; 492  : 	if( m_ShowAniState.GetCurState() == SAT_DELAY || 
; 493  : 		m_ShowAniState.GetCurState() == SAT_START_ROUND )

  00014	8b 86 7c 02 00
	00		 mov	 eax, DWORD PTR [esi+636]
  0001a	83 f8 02	 cmp	 eax, 2
  0001d	0f 84 0a 01 00
	00		 je	 $LN11@OnRender
  00023	83 f8 01	 cmp	 eax, 1
  00026	0f 84 01 01 00
	00		 je	 $LN11@OnRender

; 494  : 		return;
; 495  : 
; 496  : 	ioWnd::OnRender();

  0002c	53		 push	 ebx
  0002d	57		 push	 edi
  0002e	ff 15 00 00 00
	00		 call	 DWORD PTR __imp_?OnRender@ioWnd@@MAEXXZ

; 497  : 
; 498  : 	int iXPos = GetDerivedPosX();

  00034	8b ce		 mov	 ecx, esi
  00036	ff 15 00 00 00
	00		 call	 DWORD PTR __imp_?GetDerivedPosX@ioWnd@@QBEHXZ

; 499  : 	int iYPos = GetDerivedPosY();

  0003c	8b ce		 mov	 ecx, esi
  0003e	8b d8		 mov	 ebx, eax
  00040	ff 15 00 00 00
	00		 call	 DWORD PTR __imp_?GetDerivedPosY@ioWnd@@QBEHXZ

; 500  : 
; 501  : 	if( m_bShowTime)

  00046	80 be bc 02 00
	00 00		 cmp	 BYTE PTR [esi+700], 0
  0004d	8b f8		 mov	 edi, eax
  0004f	74 09		 je	 SHORT $LN10@OnRender

; 502  : 		RenderDigitTime(iXPos, iYPos);

  00051	57		 push	 edi
  00052	53		 push	 ebx
  00053	8b ce		 mov	 ecx, esi
  00055	e8 00 00 00 00	 call	 ?RenderDigitTime@MiniMap@@IAEXHH@Z ; MiniMap::RenderDigitTime
$LN10@OnRender:

; 503  : 
; 504  : 	iXPos += m_iMiniMapOffX;
; 505  : 	iYPos += m_iMiniMapOffY;
; 506  : 
; 507  : 	m_pMiniMap->Render( iXPos, iYPos );

  0005a	8b 8e cc 01 00
	00		 mov	 ecx, DWORD PTR [esi+460]
  00060	03 be b8 01 00
	00		 add	 edi, DWORD PTR [esi+440]
  00066	03 9e b4 01 00
	00		 add	 ebx, DWORD PTR [esi+436]
  0006c	8b 11		 mov	 edx, DWORD PTR [ecx]
  0006e	33 c0		 xor	 eax, eax
  00070	50		 push	 eax
  00071	50		 push	 eax
  00072	50		 push	 eax
  00073	50		 push	 eax
  00074	0f 57 c0	 xorps	 xmm0, xmm0
  00077	51		 push	 ecx
  00078	f3 0f 2a c7	 cvtsi2ss xmm0, edi
  0007c	51		 push	 ecx
  0007d	f3 0f 11 44 24
	04		 movss	 DWORD PTR [esp+4], xmm0
  00083	0f 57 c0	 xorps	 xmm0, xmm0
  00086	f3 0f 2a c3	 cvtsi2ss xmm0, ebx
  0008a	89 7d fc	 mov	 DWORD PTR _iYPos$[ebp], edi
  0008d	f3 0f 11 04 24	 movss	 DWORD PTR [esp], xmm0
  00092	ff 12		 call	 DWORD PTR [edx]

; 508  : 
; 509  : 	if( m_pAreaMe )

  00094	83 be d0 01 00
	00 00		 cmp	 DWORD PTR [esi+464], 0
  0009b	74 6f		 je	 SHORT $LN6@OnRender

; 510  : 	{
; 511  : 		int iSize = m_SpotPointList.size();

  0009d	8b 8e 90 01 00
	00		 mov	 ecx, DWORD PTR [esi+400]
  000a3	8b 86 94 01 00
	00		 mov	 eax, DWORD PTR [esi+404]
  000a9	2b c1		 sub	 eax, ecx
  000ab	99		 cdq
  000ac	6a 14		 push	 20			; 00000014H
  000ae	5f		 pop	 edi
  000af	f7 ff		 idiv	 edi

; 512  : 		for (int i = iSize - 1; i >= 0 ; i--)

  000b1	48		 dec	 eax
  000b2	78 58		 js	 SHORT $LN6@OnRender

; 510  : 	{
; 511  : 		int iSize = m_SpotPointList.size();

  000b4	8b d0		 mov	 edx, eax
  000b6	6b d2 14	 imul	 edx, 20			; 00000014H
  000b9	03 d1		 add	 edx, ecx
  000bb	33 ff		 xor	 edi, edi
$LL8@OnRender:

; 513  : 		{
; 514  : 			const SpotPoint &rkSpot = m_SpotPointList[i];
; 515  : 
; 516  : 			if( rkSpot.m_Type == SPOT_ME ||
; 517  : 				rkSpot.m_Type == SPOT_PRISON_ME ||
; 518  : 				rkSpot.m_Type == SPOT_KING_ME )

  000bd	8b 0a		 mov	 ecx, DWORD PTR [edx]
  000bf	83 f9 04	 cmp	 ecx, 4
  000c2	74 14		 je	 SHORT $LN56@OnRender
  000c4	83 f9 0a	 cmp	 ecx, 10			; 0000000aH
  000c7	74 0f		 je	 SHORT $LN56@OnRender
  000c9	83 f9 0e	 cmp	 ecx, 14			; 0000000eH
  000cc	74 0a		 je	 SHORT $LN56@OnRender

; 512  : 		for (int i = iSize - 1; i >= 0 ; i--)

  000ce	48		 dec	 eax
  000cf	83 ea 14	 sub	 edx, 20			; 00000014H
  000d2	3b c7		 cmp	 eax, edi
  000d4	7d e7		 jge	 SHORT $LL8@OnRender

; 513  : 		{
; 514  : 			const SpotPoint &rkSpot = m_SpotPointList[i];
; 515  : 
; 516  : 			if( rkSpot.m_Type == SPOT_ME ||
; 517  : 				rkSpot.m_Type == SPOT_PRISON_ME ||
; 518  : 				rkSpot.m_Type == SPOT_KING_ME )

  000d6	eb 34		 jmp	 SHORT $LN6@OnRender
$LN56@OnRender:

; 519  : 			{
; 520  : 				m_pAreaMe->Render( iXPos + rkSpot.m_iXOffset, iYPos + rkSpot.m_iYOffset );

  000d8	8b 8e d0 01 00
	00		 mov	 ecx, DWORD PTR [esi+464]
  000de	8b 01		 mov	 eax, DWORD PTR [ecx]
  000e0	57		 push	 edi
  000e1	57		 push	 edi
  000e2	57		 push	 edi
  000e3	57		 push	 edi
  000e4	8b 7a 08	 mov	 edi, DWORD PTR [edx+8]
  000e7	03 7d fc	 add	 edi, DWORD PTR _iYPos$[ebp]
  000ea	8b 52 04	 mov	 edx, DWORD PTR [edx+4]
  000ed	0f 57 c0	 xorps	 xmm0, xmm0
  000f0	51		 push	 ecx
  000f1	f3 0f 2a c7	 cvtsi2ss xmm0, edi
  000f5	51		 push	 ecx
  000f6	f3 0f 11 44 24
	04		 movss	 DWORD PTR [esp+4], xmm0
  000fc	03 d3		 add	 edx, ebx
  000fe	0f 57 c0	 xorps	 xmm0, xmm0
  00101	f3 0f 2a c2	 cvtsi2ss xmm0, edx
  00105	f3 0f 11 04 24	 movss	 DWORD PTR [esp], xmm0
  0010a	ff 10		 call	 DWORD PTR [eax]
$LN6@OnRender:

; 521  : 				break;
; 522  : 			}
; 523  : 		}
; 524  : 	}
; 525  : 
; 526  : 	SpotPointList::iterator iter=m_SpotPointList.begin();

  0010c	8b be 90 01 00
	00		 mov	 edi, DWORD PTR [esi+400]
  00112	eb 0f		 jmp	 SHORT $LN61@OnRender

; 527  : 	for( ; iter!=m_SpotPointList.end(); ++iter )

$LL34@OnRender:

; 528  : 	{
; 529  : 		RenderSpotPoint( iXPos, iYPos, *iter );

  00114	57		 push	 edi
  00115	ff 75 fc	 push	 DWORD PTR _iYPos$[ebp]
  00118	8b ce		 mov	 ecx, esi
  0011a	53		 push	 ebx
  0011b	e8 00 00 00 00	 call	 ?RenderSpotPoint@MiniMap@@IAEXHHABUSpotPoint@1@@Z ; MiniMap::RenderSpotPoint
  00120	83 c7 14	 add	 edi, 20			; 00000014H
$LN61@OnRender:

; 527  : 	for( ; iter!=m_SpotPointList.end(); ++iter )

  00123	3b be 94 01 00
	00		 cmp	 edi, DWORD PTR [esi+404]
  00129	75 e9		 jne	 SHORT $LL34@OnRender
  0012b	5f		 pop	 edi
  0012c	5b		 pop	 ebx
$LN11@OnRender:
  0012d	5e		 pop	 esi

; 530  : 	}
; 531  : 
; 532  : 	
; 533  : }

  0012e	c9		 leave
  0012f	c3		 ret	 0
?OnRender@MiniMap@@MAEXXZ ENDP				; MiniMap::OnRender
_TEXT	ENDS
PUBLIC	??$_Destroy_range@V?$allocator@USpotPoint@MiniMap@@@std@@@std@@YAXPAUSpotPoint@MiniMap@@0AAV?$allocator@USpotPoint@MiniMap@@@0@U_Nonscalar_ptr_iterator_tag@0@@Z ; std::_Destroy_range<std::allocator<MiniMap::SpotPoint> >
; Function compile flags: /Ogsp
; File c:\program files (x86)\microsoft visual studio 10.0\vc\include\xmemory
;	COMDAT ??$_Destroy_range@V?$allocator@USpotPoint@MiniMap@@@std@@@std@@YAXPAUSpotPoint@MiniMap@@0AAV?$allocator@USpotPoint@MiniMap@@@0@U_Nonscalar_ptr_iterator_tag@0@@Z
_TEXT	SEGMENT
__First$ = 8						; size = 4
__Last$ = 12						; size = 4
__Al$ = 16						; size = 4
___formal$ = 20						; size = 1
??$_Destroy_range@V?$allocator@USpotPoint@MiniMap@@@std@@@std@@YAXPAUSpotPoint@MiniMap@@0AAV?$allocator@USpotPoint@MiniMap@@@0@U_Nonscalar_ptr_iterator_tag@0@@Z PROC ; std::_Destroy_range<std::allocator<MiniMap::SpotPoint> >, COMDAT

; 96   : 	for (; _First != _Last; ++_First)
; 97   : 		_Dest_val(_Al, _First);
; 98   : 	}

  00000	c3		 ret	 0
??$_Destroy_range@V?$allocator@USpotPoint@MiniMap@@@std@@@std@@YAXPAUSpotPoint@MiniMap@@0AAV?$allocator@USpotPoint@MiniMap@@@0@U_Nonscalar_ptr_iterator_tag@0@@Z ENDP ; std::_Destroy_range<std::allocator<MiniMap::SpotPoint> >
_TEXT	ENDS
PUBLIC	??$_Uninit_move@PAUSpotPoint@MiniMap@@PAU12@V?$allocator@USpotPoint@MiniMap@@@std@@U12@@std@@YAPAUSpotPoint@MiniMap@@PAU12@00AAV?$allocator@USpotPoint@MiniMap@@@0@0U_Nonscalar_ptr_iterator_tag@0@@Z ; std::_Uninit_move<MiniMap::SpotPoint *,MiniMap::SpotPoint *,std::allocator<MiniMap::SpotPoint>,MiniMap::SpotPoint>
; Function compile flags: /Ogsp
; File c:\program files (x86)\microsoft visual studio 10.0\vc\include\memory
;	COMDAT ??$_Uninit_move@PAUSpotPoint@MiniMap@@PAU12@V?$allocator@USpotPoint@MiniMap@@@std@@U12@@std@@YAPAUSpotPoint@MiniMap@@PAU12@00AAV?$allocator@USpotPoint@MiniMap@@@0@0U_Nonscalar_ptr_iterator_tag@0@@Z
_TEXT	SEGMENT
__First$ = 8						; size = 4
__Last$ = 12						; size = 4
__Dest$ = 16						; size = 4
__Al$ = 20						; size = 4
___formal$ = 24						; size = 4
___formal$ = 28						; size = 1
??$_Uninit_move@PAUSpotPoint@MiniMap@@PAU12@V?$allocator@USpotPoint@MiniMap@@@std@@U12@@std@@YAPAUSpotPoint@MiniMap@@PAU12@00AAV?$allocator@USpotPoint@MiniMap@@@0@0U_Nonscalar_ptr_iterator_tag@0@@Z PROC ; std::_Uninit_move<MiniMap::SpotPoint *,MiniMap::SpotPoint *,std::allocator<MiniMap::SpotPoint>,MiniMap::SpotPoint>, COMDAT

; 424  : 	{	// move [_First, _Last) to raw _Dest, using _Al, arbitrary type

  00000	55		 push	 ebp
  00001	8b ec		 mov	 ebp, esp
  00003	56		 push	 esi

; 425  : 	_DEBUG_RANGE(_First, _Last);
; 426  : 	_DEBUG_POINTER(_Dest);
; 427  : 	_FwdIt _Next = _Dest;
; 428  : 
; 429  : 	_TRY_BEGIN
; 430  : 	for (; _First != _Last; ++_Dest, ++_First)

  00004	8b 75 08	 mov	 esi, DWORD PTR __First$[ebp]
  00007	eb 16		 jmp	 SHORT $LN24@Uninit_mov
$LL6@Uninit_mov:

; 431  : 		_Cons_val(_Al, _Dest, (_Valty &&)*_First);

  00009	56		 push	 esi
  0000a	ff 75 10	 push	 DWORD PTR __Dest$[ebp]
  0000d	ff 75 14	 push	 DWORD PTR __Al$[ebp]
  00010	e8 00 00 00 00	 call	 ??$_Cons_val@V?$allocator@USpotPoint@MiniMap@@@std@@USpotPoint@MiniMap@@U34@@std@@YAXAAV?$allocator@USpotPoint@MiniMap@@@0@PAUSpotPoint@MiniMap@@$$QAU23@@Z ; std::_Cons_val<std::allocator<MiniMap::SpotPoint>,MiniMap::SpotPoint,MiniMap::SpotPoint>
  00015	83 45 10 14	 add	 DWORD PTR __Dest$[ebp], 20 ; 00000014H
  00019	83 c4 0c	 add	 esp, 12			; 0000000cH
  0001c	83 c6 14	 add	 esi, 20			; 00000014H
$LN24@Uninit_mov:

; 425  : 	_DEBUG_RANGE(_First, _Last);
; 426  : 	_DEBUG_POINTER(_Dest);
; 427  : 	_FwdIt _Next = _Dest;
; 428  : 
; 429  : 	_TRY_BEGIN
; 430  : 	for (; _First != _Last; ++_Dest, ++_First)

  0001f	3b 75 0c	 cmp	 esi, DWORD PTR __Last$[ebp]
  00022	75 e5		 jne	 SHORT $LL6@Uninit_mov

; 432  : 	_CATCH_ALL
; 433  : 	for (; _Next != _Dest; ++_Next)
; 434  : 		_Dest_val(_Al, _Next);
; 435  : 	_RERAISE;
; 436  : 	_CATCH_END
; 437  : 	return (_Dest);

  00024	8b 45 10	 mov	 eax, DWORD PTR __Dest$[ebp]
  00027	5e		 pop	 esi

; 438  : 	}

  00028	5d		 pop	 ebp
  00029	c3		 ret	 0
??$_Uninit_move@PAUSpotPoint@MiniMap@@PAU12@V?$allocator@USpotPoint@MiniMap@@@std@@U12@@std@@YAPAUSpotPoint@MiniMap@@PAU12@00AAV?$allocator@USpotPoint@MiniMap@@@0@0U_Nonscalar_ptr_iterator_tag@0@@Z ENDP ; std::_Uninit_move<MiniMap::SpotPoint *,MiniMap::SpotPoint *,std::allocator<MiniMap::SpotPoint>,MiniMap::SpotPoint>
_TEXT	ENDS
PUBLIC	??$_Destroy_range@V?$allocator@USpotPoint@MiniMap@@@std@@@std@@YAXPAUSpotPoint@MiniMap@@0AAV?$allocator@USpotPoint@MiniMap@@@0@@Z ; std::_Destroy_range<std::allocator<MiniMap::SpotPoint> >
; Function compile flags: /Ogsp
; File c:\program files (x86)\microsoft visual studio 10.0\vc\include\xmemory
;	COMDAT ??$_Destroy_range@V?$allocator@USpotPoint@MiniMap@@@std@@@std@@YAXPAUSpotPoint@MiniMap@@0AAV?$allocator@USpotPoint@MiniMap@@@0@@Z
_TEXT	SEGMENT
__First$ = 8						; size = 4
__Last$ = 12						; size = 4
__Al$ = 16						; size = 4
??$_Destroy_range@V?$allocator@USpotPoint@MiniMap@@@std@@@std@@YAXPAUSpotPoint@MiniMap@@0AAV?$allocator@USpotPoint@MiniMap@@@0@@Z PROC ; std::_Destroy_range<std::allocator<MiniMap::SpotPoint> >, COMDAT

; 88   : 	_Destroy_range(_First, _Last, _Al, _Ptr_cat(_First, _Last));
; 89   : 	}

  00000	c3		 ret	 0
??$_Destroy_range@V?$allocator@USpotPoint@MiniMap@@@std@@@std@@YAXPAUSpotPoint@MiniMap@@0AAV?$allocator@USpotPoint@MiniMap@@@0@@Z ENDP ; std::_Destroy_range<std::allocator<MiniMap::SpotPoint> >
_TEXT	ENDS
PUBLIC	??$_Uninitialized_move@PAUSpotPoint@MiniMap@@PAU12@V?$allocator@USpotPoint@MiniMap@@@std@@@std@@YAPAUSpotPoint@MiniMap@@PAU12@00AAV?$allocator@USpotPoint@MiniMap@@@0@@Z ; std::_Uninitialized_move<MiniMap::SpotPoint *,MiniMap::SpotPoint *,std::allocator<MiniMap::SpotPoint> >
; Function compile flags: /Ogsp
; File c:\program files (x86)\microsoft visual studio 10.0\vc\include\memory
;	COMDAT ??$_Uninitialized_move@PAUSpotPoint@MiniMap@@PAU12@V?$allocator@USpotPoint@MiniMap@@@std@@@std@@YAPAUSpotPoint@MiniMap@@PAU12@00AAV?$allocator@USpotPoint@MiniMap@@@0@@Z
_TEXT	SEGMENT
__Cat$541553 = -4					; size = 1
__First$ = 8						; size = 4
__Last$ = 12						; size = 4
__Dest$ = 16						; size = 4
__Al$ = 20						; size = 4
??$_Uninitialized_move@PAUSpotPoint@MiniMap@@PAU12@V?$allocator@USpotPoint@MiniMap@@@std@@@std@@YAPAUSpotPoint@MiniMap@@PAU12@00AAV?$allocator@USpotPoint@MiniMap@@@0@@Z PROC ; std::_Uninitialized_move<MiniMap::SpotPoint *,MiniMap::SpotPoint *,std::allocator<MiniMap::SpotPoint> >, COMDAT

; 469  : 	{	// move [_First, _Last) to raw _Dest, using _Al

  00000	55		 push	 ebp
  00001	8b ec		 mov	 ebp, esp
  00003	51		 push	 ecx

; 470  : 	return (_Uninit_move(_First, _Last, _Dest, _Al,
; 471  : 		_Val_type(_First), _Ptr_cat(_First, _Dest)));

  00004	ff 75 fc	 push	 DWORD PTR __Cat$541553[ebp]
  00007	6a 00		 push	 0
  00009	ff 75 14	 push	 DWORD PTR __Al$[ebp]
  0000c	ff 75 10	 push	 DWORD PTR __Dest$[ebp]
  0000f	ff 75 0c	 push	 DWORD PTR __Last$[ebp]
  00012	ff 75 08	 push	 DWORD PTR __First$[ebp]
  00015	e8 00 00 00 00	 call	 ??$_Uninit_move@PAUSpotPoint@MiniMap@@PAU12@V?$allocator@USpotPoint@MiniMap@@@std@@U12@@std@@YAPAUSpotPoint@MiniMap@@PAU12@00AAV?$allocator@USpotPoint@MiniMap@@@0@0U_Nonscalar_ptr_iterator_tag@0@@Z ; std::_Uninit_move<MiniMap::SpotPoint *,MiniMap::SpotPoint *,std::allocator<MiniMap::SpotPoint>,MiniMap::SpotPoint>
  0001a	83 c4 18	 add	 esp, 24			; 00000018H

; 472  : 	}

  0001d	c9		 leave
  0001e	c3		 ret	 0
??$_Uninitialized_move@PAUSpotPoint@MiniMap@@PAU12@V?$allocator@USpotPoint@MiniMap@@@std@@@std@@YAPAUSpotPoint@MiniMap@@PAU12@00AAV?$allocator@USpotPoint@MiniMap@@@0@@Z ENDP ; std::_Uninitialized_move<MiniMap::SpotPoint *,MiniMap::SpotPoint *,std::allocator<MiniMap::SpotPoint> >
_TEXT	ENDS
PUBLIC	?_Destroy@?$vector@USpotPoint@MiniMap@@V?$allocator@USpotPoint@MiniMap@@@std@@@std@@IAEXPAUSpotPoint@MiniMap@@0@Z ; std::vector<MiniMap::SpotPoint,std::allocator<MiniMap::SpotPoint> >::_Destroy
; Function compile flags: /Ogsp
; File c:\program files (x86)\microsoft visual studio 10.0\vc\include\vector
;	COMDAT ?_Destroy@?$vector@USpotPoint@MiniMap@@V?$allocator@USpotPoint@MiniMap@@@std@@@std@@IAEXPAUSpotPoint@MiniMap@@0@Z
_TEXT	SEGMENT
__First$ = 8						; size = 4
__Last$ = 12						; size = 4
?_Destroy@?$vector@USpotPoint@MiniMap@@V?$allocator@USpotPoint@MiniMap@@@std@@@std@@IAEXPAUSpotPoint@MiniMap@@0@Z PROC ; std::vector<MiniMap::SpotPoint,std::allocator<MiniMap::SpotPoint> >::_Destroy, COMDAT
; _this$ = ecx

; 1270 : 		_Destroy_range(_First, _Last, this->_Alval);
; 1271 : 		}

  00000	c2 08 00	 ret	 8
?_Destroy@?$vector@USpotPoint@MiniMap@@V?$allocator@USpotPoint@MiniMap@@@std@@@std@@IAEXPAUSpotPoint@MiniMap@@0@Z ENDP ; std::vector<MiniMap::SpotPoint,std::allocator<MiniMap::SpotPoint> >::_Destroy
_TEXT	ENDS
PUBLIC	?_Tidy@?$vector@USpotPoint@MiniMap@@V?$allocator@USpotPoint@MiniMap@@@std@@@std@@IAEXXZ ; std::vector<MiniMap::SpotPoint,std::allocator<MiniMap::SpotPoint> >::_Tidy
EXTRN	__imp_?_Orphan_all@_Container_base0@std@@QAEXXZ:PROC
; Function compile flags: /Ogsp
;	COMDAT ?_Tidy@?$vector@USpotPoint@MiniMap@@V?$allocator@USpotPoint@MiniMap@@@std@@@std@@IAEXXZ
_TEXT	SEGMENT
?_Tidy@?$vector@USpotPoint@MiniMap@@V?$allocator@USpotPoint@MiniMap@@@std@@@std@@IAEXXZ PROC ; std::vector<MiniMap::SpotPoint,std::allocator<MiniMap::SpotPoint> >::_Tidy, COMDAT
; _this$ = ecx

; 1301 : 		{	// free all storage

  00000	56		 push	 esi
  00001	8b f1		 mov	 esi, ecx

; 1302 : 		if (this->_Myfirst != 0)

  00003	83 3e 00	 cmp	 DWORD PTR [esi], 0
  00006	74 0e		 je	 SHORT $LN21@Tidy

; 1303 : 			{	// something to free, destroy and deallocate it
; 1304 : 			this->_Orphan_all();

  00008	ff 15 00 00 00
	00		 call	 DWORD PTR __imp_?_Orphan_all@_Container_base0@std@@QAEXXZ

; 1305 : 			_Destroy(this->_Myfirst, this->_Mylast);
; 1306 : 			this->_Alval.deallocate(this->_Myfirst,
; 1307 : 				this->_Myend - this->_Myfirst);

  0000e	ff 36		 push	 DWORD PTR [esi]
  00010	e8 00 00 00 00	 call	 ??3@YAXPAX@Z		; operator delete
  00015	59		 pop	 ecx
$LN21@Tidy:

; 1308 : 			}
; 1309 : 		this->_Myfirst = 0;

  00016	83 26 00	 and	 DWORD PTR [esi], 0

; 1310 : 		this->_Mylast = 0;

  00019	83 66 04 00	 and	 DWORD PTR [esi+4], 0

; 1311 : 		this->_Myend = 0;

  0001d	83 66 08 00	 and	 DWORD PTR [esi+8], 0
  00021	5e		 pop	 esi

; 1312 : 		}

  00022	c3		 ret	 0
?_Tidy@?$vector@USpotPoint@MiniMap@@V?$allocator@USpotPoint@MiniMap@@@std@@@std@@IAEXXZ ENDP ; std::vector<MiniMap::SpotPoint,std::allocator<MiniMap::SpotPoint> >::_Tidy
_TEXT	ENDS
PUBLIC	??$_Umove@PAUSpotPoint@MiniMap@@@?$vector@USpotPoint@MiniMap@@V?$allocator@USpotPoint@MiniMap@@@std@@@std@@IAEPAUSpotPoint@MiniMap@@PAU23@00@Z ; std::vector<MiniMap::SpotPoint,std::allocator<MiniMap::SpotPoint> >::_Umove<MiniMap::SpotPoint *>
; Function compile flags: /Ogsp
;	COMDAT ??$_Umove@PAUSpotPoint@MiniMap@@@?$vector@USpotPoint@MiniMap@@V?$allocator@USpotPoint@MiniMap@@@std@@@std@@IAEPAUSpotPoint@MiniMap@@PAU23@00@Z
_TEXT	SEGMENT
__First$ = 8						; size = 4
__Last$ = 12						; size = 4
__Ptr$ = 16						; size = 4
??$_Umove@PAUSpotPoint@MiniMap@@@?$vector@USpotPoint@MiniMap@@V?$allocator@USpotPoint@MiniMap@@@std@@@std@@IAEPAUSpotPoint@MiniMap@@PAU23@00@Z PROC ; std::vector<MiniMap::SpotPoint,std::allocator<MiniMap::SpotPoint> >::_Umove<MiniMap::SpotPoint *>, COMDAT
; _this$ = ecx

; 1322 : 		pointer _Umove(_Iter _First, _Iter _Last, pointer _Ptr)

  00000	55		 push	 ebp
  00001	8b ec		 mov	 ebp, esp

; 1323 : 		{	// move initializing [_First, _Last), using allocator
; 1324 : 		return (_Uninitialized_move(_First, _Last,
; 1325 : 			_Ptr, this->_Alval));

  00003	83 c1 0c	 add	 ecx, 12			; 0000000cH
  00006	51		 push	 ecx
  00007	ff 75 10	 push	 DWORD PTR __Ptr$[ebp]
  0000a	ff 75 0c	 push	 DWORD PTR __Last$[ebp]
  0000d	ff 75 08	 push	 DWORD PTR __First$[ebp]
  00010	e8 00 00 00 00	 call	 ??$_Uninitialized_move@PAUSpotPoint@MiniMap@@PAU12@V?$allocator@USpotPoint@MiniMap@@@std@@@std@@YAPAUSpotPoint@MiniMap@@PAU12@00AAV?$allocator@USpotPoint@MiniMap@@@0@@Z ; std::_Uninitialized_move<MiniMap::SpotPoint *,MiniMap::SpotPoint *,std::allocator<MiniMap::SpotPoint> >
  00015	83 c4 10	 add	 esp, 16			; 00000010H

; 1326 : 		}

  00018	5d		 pop	 ebp
  00019	c2 0c 00	 ret	 12			; 0000000cH
??$_Umove@PAUSpotPoint@MiniMap@@@?$vector@USpotPoint@MiniMap@@V?$allocator@USpotPoint@MiniMap@@@std@@@std@@IAEPAUSpotPoint@MiniMap@@PAU23@00@Z ENDP ; std::vector<MiniMap::SpotPoint,std::allocator<MiniMap::SpotPoint> >::_Umove<MiniMap::SpotPoint *>
_TEXT	ENDS
PUBLIC	??1?$vector@USpotPoint@MiniMap@@V?$allocator@USpotPoint@MiniMap@@@std@@@std@@QAE@XZ ; std::vector<MiniMap::SpotPoint,std::allocator<MiniMap::SpotPoint> >::~vector<MiniMap::SpotPoint,std::allocator<MiniMap::SpotPoint> >
; Function compile flags: /Ogsp
;	COMDAT ??1?$vector@USpotPoint@MiniMap@@V?$allocator@USpotPoint@MiniMap@@@std@@@std@@QAE@XZ
_TEXT	SEGMENT
??1?$vector@USpotPoint@MiniMap@@V?$allocator@USpotPoint@MiniMap@@@std@@@std@@QAE@XZ PROC ; std::vector<MiniMap::SpotPoint,std::allocator<MiniMap::SpotPoint> >::~vector<MiniMap::SpotPoint,std::allocator<MiniMap::SpotPoint> >, COMDAT
; _this$ = ecx

; 705  : 		_Tidy();

  00000	e9 00 00 00 00	 jmp	 ?_Tidy@?$vector@USpotPoint@MiniMap@@V?$allocator@USpotPoint@MiniMap@@@std@@@std@@IAEXXZ ; std::vector<MiniMap::SpotPoint,std::allocator<MiniMap::SpotPoint> >::_Tidy
??1?$vector@USpotPoint@MiniMap@@V?$allocator@USpotPoint@MiniMap@@@std@@@std@@QAE@XZ ENDP ; std::vector<MiniMap::SpotPoint,std::allocator<MiniMap::SpotPoint> >::~vector<MiniMap::SpotPoint,std::allocator<MiniMap::SpotPoint> >
_TEXT	ENDS
PUBLIC	?erase@?$vector@USpotPoint@MiniMap@@V?$allocator@USpotPoint@MiniMap@@@std@@@std@@QAE?AV?$_Vector_iterator@V?$_Vector_val@USpotPoint@MiniMap@@V?$allocator@USpotPoint@MiniMap@@@std@@@std@@@2@V?$_Vector_const_iterator@V?$_Vector_val@USpotPoint@MiniMap@@V?$allocator@USpotPoint@MiniMap@@@std@@@std@@@2@0@Z ; std::vector<MiniMap::SpotPoint,std::allocator<MiniMap::SpotPoint> >::erase
; Function compile flags: /Ogsp
;	COMDAT ?erase@?$vector@USpotPoint@MiniMap@@V?$allocator@USpotPoint@MiniMap@@@std@@@std@@QAE?AV?$_Vector_iterator@V?$_Vector_val@USpotPoint@MiniMap@@V?$allocator@USpotPoint@MiniMap@@@std@@@std@@@2@V?$_Vector_const_iterator@V?$_Vector_val@USpotPoint@MiniMap@@V?$allocator@USpotPoint@MiniMap@@@std@@@std@@@2@0@Z
_TEXT	SEGMENT
___$ReturnUdt$ = 8					; size = 4
__First_arg$ = 12					; size = 4
__Cat$541778 = 16					; size = 1
__Last_arg$ = 16					; size = 4
?erase@?$vector@USpotPoint@MiniMap@@V?$allocator@USpotPoint@MiniMap@@@std@@@std@@QAE?AV?$_Vector_iterator@V?$_Vector_val@USpotPoint@MiniMap@@V?$allocator@USpotPoint@MiniMap@@@std@@@std@@@2@V?$_Vector_const_iterator@V?$_Vector_val@USpotPoint@MiniMap@@V?$allocator@USpotPoint@MiniMap@@@std@@@std@@@2@0@Z PROC ; std::vector<MiniMap::SpotPoint,std::allocator<MiniMap::SpotPoint> >::erase, COMDAT
; _this$ = ecx

; 1190 : 		{	// erase [_First, _Last)

  00000	55		 push	 ebp
  00001	8b ec		 mov	 ebp, esp

; 1191 : 		iterator _First = _Make_iter(_First_arg);

  00003	8b 45 0c	 mov	 eax, DWORD PTR __First_arg$[ebp]
  00006	56		 push	 esi
  00007	57		 push	 edi
  00008	8b 7d 08	 mov	 edi, DWORD PTR ___$ReturnUdt$[ebp]
  0000b	8b f1		 mov	 esi, ecx
  0000d	89 07		 mov	 DWORD PTR [edi], eax

; 1192 : 		iterator _Last = _Make_iter(_Last_arg);
; 1193 : 
; 1194 : 		if (_First != _Last)

  0000f	3b 45 10	 cmp	 eax, DWORD PTR __Last_arg$[ebp]
  00012	74 16		 je	 SHORT $LN1@erase

; 1195 : 			{	// worth doing, copy down over hole
; 1196 :  #if _ITERATOR_DEBUG_LEVEL == 2
; 1197 : 			if (_Last < _First || _VICONT(_First) != this
; 1198 : 				|| _VIPTR(_First) < this->_Myfirst
; 1199 : 				|| this->_Mylast < _VIPTR(_Last))
; 1200 : 				_DEBUG_ERROR("vector erase iterator outside range");
; 1201 : 			pointer _Ptr = _Move(_VIPTR(_Last), this->_Mylast,
; 1202 : 				_VIPTR(_First));
; 1203 : 			_Orphan_range(_VIPTR(_First), this->_Mylast);
; 1204 : 
; 1205 :  #else /* _ITERATOR_DEBUG_LEVEL == 2 */
; 1206 : 			pointer _Ptr = _Move(_VIPTR(_Last), this->_Mylast,
; 1207 : 				_VIPTR(_First));

  00014	ff 75 10	 push	 DWORD PTR __Cat$541778[ebp]
  00017	8b 4e 04	 mov	 ecx, DWORD PTR [esi+4]
  0001a	50		 push	 eax
  0001b	51		 push	 ecx
  0001c	ff 75 10	 push	 DWORD PTR __Last_arg$[ebp]
  0001f	e8 00 00 00 00	 call	 ??$_Move@PAUSpotPoint@MiniMap@@PAU12@@std@@YAPAUSpotPoint@MiniMap@@PAU12@00U_Nonscalar_ptr_iterator_tag@0@@Z ; std::_Move<MiniMap::SpotPoint *,MiniMap::SpotPoint *>
  00024	83 c4 10	 add	 esp, 16			; 00000010H

; 1208 :  #endif /* _ITERATOR_DEBUG_LEVEL == 2 */
; 1209 : 
; 1210 : 			_Destroy(_Ptr, this->_Mylast);
; 1211 : 			this->_Mylast = _Ptr;

  00027	89 46 04	 mov	 DWORD PTR [esi+4], eax
$LN1@erase:

; 1212 : 			}
; 1213 : 		return (_First);

  0002a	8b c7		 mov	 eax, edi
  0002c	5f		 pop	 edi
  0002d	5e		 pop	 esi

; 1214 : 		}

  0002e	5d		 pop	 ebp
  0002f	c2 0c 00	 ret	 12			; 0000000cH
?erase@?$vector@USpotPoint@MiniMap@@V?$allocator@USpotPoint@MiniMap@@@std@@@std@@QAE?AV?$_Vector_iterator@V?$_Vector_val@USpotPoint@MiniMap@@V?$allocator@USpotPoint@MiniMap@@@std@@@std@@@2@V?$_Vector_const_iterator@V?$_Vector_val@USpotPoint@MiniMap@@V?$allocator@USpotPoint@MiniMap@@@std@@@std@@@2@0@Z ENDP ; std::vector<MiniMap::SpotPoint,std::allocator<MiniMap::SpotPoint> >::erase
_TEXT	ENDS
PUBLIC	?reserve@?$vector@USpotPoint@MiniMap@@V?$allocator@USpotPoint@MiniMap@@@std@@@std@@QAEXI@Z ; std::vector<MiniMap::SpotPoint,std::allocator<MiniMap::SpotPoint> >::reserve
EXTRN	__EH_prolog3_catch:PROC
;	COMDAT xdata$x
; File c:\program files (x86)\microsoft visual studio 10.0\vc\include\xmemory
xdata$x	SEGMENT
__catchsym$?reserve@?$vector@USpotPoint@MiniMap@@V?$allocator@USpotPoint@MiniMap@@@std@@@std@@QAEXI@Z$2 DD 040H
	DD	00H
	DD	00H
	DD	FLAT:__catch$?reserve@?$vector@USpotPoint@MiniMap@@V?$allocator@USpotPoint@MiniMap@@@std@@@std@@QAEXI@Z$0
__unwindtable$?reserve@?$vector@USpotPoint@MiniMap@@V?$allocator@USpotPoint@MiniMap@@@std@@@std@@QAEXI@Z DD 0ffffffffH
	DD	00H
	DD	0ffffffffH
	DD	00H
__tryblocktable$?reserve@?$vector@USpotPoint@MiniMap@@V?$allocator@USpotPoint@MiniMap@@@std@@@std@@QAEXI@Z DD 00H
	DD	00H
	DD	01H
	DD	01H
	DD	FLAT:__catchsym$?reserve@?$vector@USpotPoint@MiniMap@@V?$allocator@USpotPoint@MiniMap@@@std@@@std@@QAEXI@Z$2
__ehfuncinfo$?reserve@?$vector@USpotPoint@MiniMap@@V?$allocator@USpotPoint@MiniMap@@@std@@@std@@QAEXI@Z DD 019930522H
	DD	02H
	DD	FLAT:__unwindtable$?reserve@?$vector@USpotPoint@MiniMap@@V?$allocator@USpotPoint@MiniMap@@@std@@@std@@QAEXI@Z
	DD	01H
	DD	FLAT:__tryblocktable$?reserve@?$vector@USpotPoint@MiniMap@@V?$allocator@USpotPoint@MiniMap@@@std@@@std@@QAEXI@Z
	DD	2 DUP(00H)
	DD	00H
	DD	01H
; Function compile flags: /Ogsp
; File c:\program files (x86)\microsoft visual studio 10.0\vc\include\vector
xdata$x	ENDS
;	COMDAT ?reserve@?$vector@USpotPoint@MiniMap@@V?$allocator@USpotPoint@MiniMap@@@std@@@std@@QAEXI@Z
_TEXT	SEGMENT
__$EHRec$ = -16						; size = 16
__Ptr$525465 = 8					; size = 4
__Count$ = 8						; size = 4
?reserve@?$vector@USpotPoint@MiniMap@@V?$allocator@USpotPoint@MiniMap@@@std@@@std@@QAEXI@Z PROC ; std::vector<MiniMap::SpotPoint,std::allocator<MiniMap::SpotPoint> >::reserve, COMDAT
; _this$ = ecx

; 746  : 		{	// determine new minimum length of allocated storage

  00000	6a 04		 push	 4
  00002	b8 00 00 00 00	 mov	 eax, __ehhandler$?reserve@?$vector@USpotPoint@MiniMap@@V?$allocator@USpotPoint@MiniMap@@@std@@@std@@QAEXI@Z
  00007	e8 00 00 00 00	 call	 __EH_prolog3_catch
  0000c	8b f1		 mov	 esi, ecx

; 747  : 		if (max_size() < _Count)

  0000e	8b 5d 08	 mov	 ebx, DWORD PTR __Count$[ebp]
  00011	81 fb cc cc cc
	0c		 cmp	 ebx, 214748364		; 0cccccccH
  00017	76 0b		 jbe	 SHORT $LN5@reserve

; 748  : 			_Xlen();	// result too long

  00019	68 00 00 00 00	 push	 OFFSET ??_C@_0BD@OLBABOEK@vector?$DMT?$DO?5too?5long?$AA@
  0001e	ff 15 00 00 00
	00		 call	 DWORD PTR __imp_?_Xlength_error@std@@YAXPBD@Z
$LN56@reserve:
$LN5@reserve:

; 749  : 		else if (capacity() < _Count)

  00024	8b 46 08	 mov	 eax, DWORD PTR [esi+8]
  00027	2b 06		 sub	 eax, DWORD PTR [esi]
  00029	6a 14		 push	 20			; 00000014H
  0002b	99		 cdq
  0002c	59		 pop	 ecx
  0002d	f7 f9		 idiv	 ecx
  0002f	3b c3		 cmp	 eax, ebx
  00031	73 6b		 jae	 SHORT $LN3@reserve

; 750  : 			{	// not enough room, reallocate
; 751  : 			pointer _Ptr = this->_Alval.allocate(_Count);

  00033	6a 00		 push	 0
  00035	53		 push	 ebx
  00036	e8 00 00 00 00	 call	 ??$_Allocate@USpotPoint@MiniMap@@@std@@YAPAUSpotPoint@MiniMap@@IPAU12@@Z ; std::_Allocate<MiniMap::SpotPoint>

; 752  : 
; 753  : 			_TRY_BEGIN
; 754  : 			_Umove(this->_Myfirst, this->_Mylast, _Ptr);

  0003b	8b 0e		 mov	 ecx, DWORD PTR [esi]
  0003d	83 65 fc 00	 and	 DWORD PTR __$EHRec$[ebp+12], 0
  00041	8d 56 0c	 lea	 edx, DWORD PTR [esi+12]
  00044	52		 push	 edx
  00045	89 45 08	 mov	 DWORD PTR __Ptr$525465[ebp], eax
  00048	ff 75 08	 push	 DWORD PTR __Ptr$525465[ebp]
  0004b	8b 46 04	 mov	 eax, DWORD PTR [esi+4]
  0004e	50		 push	 eax
  0004f	51		 push	 ecx
  00050	e8 00 00 00 00	 call	 ??$_Uninitialized_move@PAUSpotPoint@MiniMap@@PAU12@V?$allocator@USpotPoint@MiniMap@@@std@@@std@@YAPAUSpotPoint@MiniMap@@PAU12@00AAV?$allocator@USpotPoint@MiniMap@@@0@@Z ; std::_Uninitialized_move<MiniMap::SpotPoint *,MiniMap::SpotPoint *,std::allocator<MiniMap::SpotPoint> >

; 758  : 			_CATCH_END
; 759  : 
; 760  : 			size_type _Size = size();

  00055	8b 0e		 mov	 ecx, DWORD PTR [esi]
  00057	8b 46 04	 mov	 eax, DWORD PTR [esi+4]
  0005a	83 c4 18	 add	 esp, 24			; 00000018H
  0005d	2b c1		 sub	 eax, ecx
  0005f	6a 14		 push	 20			; 00000014H
  00061	99		 cdq
  00062	5f		 pop	 edi
  00063	f7 ff		 idiv	 edi
  00065	83 4d fc ff	 or	 DWORD PTR __$EHRec$[ebp+12], -1
  00069	8b f8		 mov	 edi, eax
  0006b	85 c9		 test	 ecx, ecx
  0006d	74 12		 je	 SHORT $LN48@reserve

; 761  : 			if (this->_Myfirst != 0)

  0006f	eb 03		 jmp	 SHORT $LN55@reserve

; 762  : 				{	// destroy and deallocate old array
; 763  : 				_Destroy(this->_Myfirst, this->_Mylast);

$LL39@reserve:
  00071	83 c1 14	 add	 ecx, 20			; 00000014H
$LN55@reserve:
  00074	3b 4e 04	 cmp	 ecx, DWORD PTR [esi+4]
  00077	75 f8		 jne	 SHORT $LL39@reserve

; 764  : 				this->_Alval.deallocate(this->_Myfirst,
; 765  : 					this->_Myend - this->_Myfirst);

  00079	ff 36		 push	 DWORD PTR [esi]
  0007b	e8 00 00 00 00	 call	 ??3@YAXPAX@Z		; operator delete
  00080	59		 pop	 ecx
$LN48@reserve:

; 766  : 				}
; 767  : 
; 768  : 			this->_Orphan_all();

  00081	8b ce		 mov	 ecx, esi
  00083	ff 15 00 00 00
	00		 call	 DWORD PTR __imp_?_Orphan_all@_Container_base0@std@@QAEXXZ

; 769  : 			this->_Myend = _Ptr + _Count;

  00089	6b db 14	 imul	 ebx, 20			; 00000014H

; 770  : 			this->_Mylast = _Ptr + _Size;

  0008c	6b ff 14	 imul	 edi, 20			; 00000014H
  0008f	8b 45 08	 mov	 eax, DWORD PTR __Ptr$525465[ebp]
  00092	03 d8		 add	 ebx, eax
  00094	03 f8		 add	 edi, eax
  00096	89 5e 08	 mov	 DWORD PTR [esi+8], ebx
  00099	89 7e 04	 mov	 DWORD PTR [esi+4], edi

; 771  : 			this->_Myfirst = _Ptr;

  0009c	89 06		 mov	 DWORD PTR [esi], eax
$LN3@reserve:

; 772  : 			}
; 773  : 		}

  0009e	e8 00 00 00 00	 call	 __EH_epilog3
  000a3	c2 04 00	 ret	 4
__catch$?reserve@?$vector@USpotPoint@MiniMap@@V?$allocator@USpotPoint@MiniMap@@@std@@@std@@QAEXI@Z$0:

; 755  : 			_CATCH_ALL
; 756  : 			this->_Alval.deallocate(_Ptr, _Count);

  000a6	ff 75 08	 push	 DWORD PTR __Ptr$525465[ebp]
  000a9	e8 00 00 00 00	 call	 ??3@YAXPAX@Z		; operator delete
  000ae	59		 pop	 ecx

; 757  : 			_RERAISE;

  000af	6a 00		 push	 0
  000b1	6a 00		 push	 0
  000b3	e8 00 00 00 00	 call	 __CxxThrowException@8
$LN57@reserve:
$LN54@reserve:
  000b8	cc		 int	 3
_TEXT	ENDS
;	COMDAT text$x
text$x	SEGMENT
__ehhandler$?reserve@?$vector@USpotPoint@MiniMap@@V?$allocator@USpotPoint@MiniMap@@@std@@@std@@QAEXI@Z:
  00000	8b 54 24 08	 mov	 edx, DWORD PTR [esp+8]
  00004	8d 42 0c	 lea	 eax, DWORD PTR [edx+12]
  00007	8b 4a ec	 mov	 ecx, DWORD PTR [edx-20]
  0000a	33 c8		 xor	 ecx, eax
  0000c	e8 00 00 00 00	 call	 @__security_check_cookie@4
  00011	b8 00 00 00 00	 mov	 eax, OFFSET __ehfuncinfo$?reserve@?$vector@USpotPoint@MiniMap@@V?$allocator@USpotPoint@MiniMap@@@std@@@std@@QAEXI@Z
  00016	e9 00 00 00 00	 jmp	 ___CxxFrameHandler3
text$x	ENDS
?reserve@?$vector@USpotPoint@MiniMap@@V?$allocator@USpotPoint@MiniMap@@@std@@@std@@QAEXI@Z ENDP ; std::vector<MiniMap::SpotPoint,std::allocator<MiniMap::SpotPoint> >::reserve
PUBLIC	??_7MiniMap@@6B@				; MiniMap::`vftable'
PUBLIC	??0MiniMap@@QAE@XZ				; MiniMap::MiniMap
PUBLIC	??_R4MiniMap@@6B@				; MiniMap::`RTTI Complete Object Locator'
PUBLIC	??_R0?AVMiniMap@@@8				; MiniMap `RTTI Type Descriptor'
PUBLIC	??_R3MiniMap@@8					; MiniMap::`RTTI Class Hierarchy Descriptor'
PUBLIC	??_R2MiniMap@@8					; MiniMap::`RTTI Base Class Array'
PUBLIC	??_R1A@?0A@EA@MiniMap@@8			; MiniMap::`RTTI Base Class Descriptor at (0,-1,0,64)'
PUBLIC	??_R1A@?0A@EA@ioMovingWnd@@8			; ioMovingWnd::`RTTI Base Class Descriptor at (0,-1,0,64)'
PUBLIC	??_R0?AVioMovingWnd@@@8				; ioMovingWnd `RTTI Type Descriptor'
PUBLIC	??_R3ioMovingWnd@@8				; ioMovingWnd::`RTTI Class Hierarchy Descriptor'
PUBLIC	??_R2ioMovingWnd@@8				; ioMovingWnd::`RTTI Base Class Array'
PUBLIC	??_R1A@?0A@EA@ioWnd@@8				; ioWnd::`RTTI Base Class Descriptor at (0,-1,0,64)'
PUBLIC	??_R0?AVioWnd@@@8				; ioWnd `RTTI Type Descriptor'
PUBLIC	??_R3ioWnd@@8					; ioWnd::`RTTI Class Hierarchy Descriptor'
PUBLIC	??_R2ioWnd@@8					; ioWnd::`RTTI Base Class Array'
EXTRN	??1FSMStateMgr@@UAE@XZ:PROC			; FSMStateMgr::~FSMStateMgr
EXTRN	__imp_??1ioMovingWnd@@UAE@XZ:PROC
EXTRN	??0FSMStateMgr@@QAE@XZ:PROC			; FSMStateMgr::FSMStateMgr
EXTRN	__imp_??0ioMovingWnd@@QAE@XZ:PROC
EXTRN	?AddRenderFrame@ioWnd@@UAEXABVioHashString@@PAVioUIRenderFrame@@@Z:PROC ; ioWnd::AddRenderFrame
EXTRN	?AddTooltipHelp@ioWnd@@UAEXABVioHashString@@00@Z:PROC ; ioWnd::AddTooltipHelp
EXTRN	?AddNamedRenderImage@ioWnd@@UAEXABVioHashString@@PAVioUIRenderImage@@@Z:PROC ; ioWnd::AddNamedRenderImage
EXTRN	?RemoveNamedRenderImage@ioWnd@@UAEXABVioHashString@@@Z:PROC ; ioWnd::RemoveNamedRenderImage
EXTRN	?GetNamedRenderImage@ioWnd@@UBEPAVioUIRenderImage@@ABVioHashString@@@Z:PROC ; ioWnd::GetNamedRenderImage
EXTRN	?SetWindowAlpha@ioWnd@@UAEXH@Z:PROC		; ioWnd::SetWindowAlpha
EXTRN	?SetActive@ioWnd@@UAEXXZ:PROC			; ioWnd::SetActive
EXTRN	?SetInActive@ioWnd@@UAEXXZ:PROC			; ioWnd::SetInActive
EXTRN	?ClearElementImageList@ioWnd@@UAEXXZ:PROC	; ioWnd::ClearElementImageList
EXTRN	?SetSize@ioWnd@@UAEXHH@Z:PROC			; ioWnd::SetSize
EXTRN	?IsNeedProcess@ioWnd@@UBE_NXZ:PROC		; ioWnd::IsNeedProcess
EXTRN	?IsCanMouseReaction@ioWnd@@UBE_NXZ:PROC		; ioWnd::IsCanMouseReaction
EXTRN	?AddChild@ioWnd@@UAEXPAV1@@Z:PROC		; ioWnd::AddChild
EXTRN	?DeleteChild@ioWnd@@UAEXK@Z:PROC		; ioWnd::DeleteChild
EXTRN	?DeleteAllChild@ioWnd@@UAEXXZ:PROC		; ioWnd::DeleteAllChild
EXTRN	?OnRenderShowAndHide@ioWnd@@MAE_NXZ:PROC	; ioWnd::OnRenderShowAndHide
EXTRN	?OnRenderShowAndHideByDefault@ioWnd@@MAE_NK@Z:PROC ; ioWnd::OnRenderShowAndHideByDefault
EXTRN	?OnRenderShowAndHideByTop@ioWnd@@MAE_NK@Z:PROC	; ioWnd::OnRenderShowAndHideByTop
EXTRN	?OnRenderShowAndHideByDown@ioWnd@@MAE_NK@Z:PROC	; ioWnd::OnRenderShowAndHideByDown
EXTRN	?OnRenderAfterChild@ioWnd@@MAEXXZ:PROC		; ioWnd::OnRenderAfterChild
EXTRN	?OnMouseProcess@ioMovingWnd@@MAEXABVioMouse@@@Z:PROC ; ioMovingWnd::OnMouseProcess
EXTRN	?CheckFrameReSize@ioWnd@@MAEXHHHH@Z:PROC	; ioWnd::CheckFrameReSize
EXTRN	?RenderImageList@ioWnd@@MAEXHHW4UIRenderType@@@Z:PROC ; ioWnd::RenderImageList
EXTRN	?iwm_destroy@ioWnd@@UAEXXZ:PROC			; ioWnd::iwm_destroy
EXTRN	?iwm_lbuttondown@ioMovingWnd@@UAEXABVioMouse@@@Z:PROC ; ioMovingWnd::iwm_lbuttondown
EXTRN	?iwm_lbuttonup@ioMovingWnd@@UAEXABVioMouse@@@Z:PROC ; ioMovingWnd::iwm_lbuttonup
EXTRN	?iwm_lbuttonDBLCLK@ioWnd@@UAEXABVioMouse@@@Z:PROC ; ioWnd::iwm_lbuttonDBLCLK
EXTRN	?iwm_rbuttondown@ioWnd@@UAEXABVioMouse@@@Z:PROC	; ioWnd::iwm_rbuttondown
EXTRN	?iwm_rbuttonup@ioWnd@@UAEXABVioMouse@@@Z:PROC	; ioWnd::iwm_rbuttonup
EXTRN	?iwm_command@ioWnd@@UAEXPAV1@HK@Z:PROC		; ioWnd::iwm_command
EXTRN	?iwm_mouseover@ioWnd@@UAEXABVioMouse@@@Z:PROC	; ioWnd::iwm_mouseover
EXTRN	?iwm_mousemove@ioWnd@@UAEXABVioMouse@@@Z:PROC	; ioWnd::iwm_mousemove
EXTRN	?iwm_mouseleave@ioWnd@@UAEXABVioMouse@@@Z:PROC	; ioWnd::iwm_mouseleave
EXTRN	?iwm_vscroll@ioWnd@@UAEXKH@Z:PROC		; ioWnd::iwm_vscroll
EXTRN	?iwm_wheel@ioWnd@@UAEXH@Z:PROC			; ioWnd::iwm_wheel
EXTRN	?iwm_show@ioWnd@@UAEXXZ:PROC			; ioWnd::iwm_show
EXTRN	?iwm_hide@ioWnd@@UAEXXZ:PROC			; ioWnd::iwm_hide
EXTRN	?iwm_esc@ioWnd@@UAE_NXZ:PROC			; ioWnd::iwm_esc
EXTRN	?iwm_spacebar@ioWnd@@UAE_NXZ:PROC		; ioWnd::iwm_spacebar
EXTRN	?iwm_gototop@ioWnd@@UAEXXZ:PROC			; ioWnd::iwm_gototop
EXTRN	?iwm_dragenter@ioWnd@@UAE?AW4IWDropEffect@@PAVioDragItem@@ABVioMouse@@@Z:PROC ; ioWnd::iwm_dragenter
EXTRN	?iwm_dragover@ioWnd@@UAE?AW4IWDropEffect@@PAVioDragItem@@ABVioMouse@@@Z:PROC ; ioWnd::iwm_dragover
EXTRN	?iwm_dragleave@ioWnd@@UAEXXZ:PROC		; ioWnd::iwm_dragleave
EXTRN	?iwm_dropitem@ioWnd@@UAE_NPAVioDragItem@@ABVioMouse@@PAV1@@Z:PROC ; ioWnd::iwm_dropitem
EXTRN	?iwm_dropdone@ioWnd@@UAEXPAVioDragItem@@PAV1@_N@Z:PROC ; ioWnd::iwm_dropdone
EXTRN	?IsEXType@ioWnd@@UBE_NXZ:PROC			; ioWnd::IsEXType
EXTRN	?GetWndType@ioWnd@@UBEKXZ:PROC			; ioWnd::GetWndType
EXTRN	?RenderWnd@ioWnd@@UAEXXZ:PROC			; ioWnd::RenderWnd
EXTRN	?SetIDEX@ioWnd@@UAEXAAK_N@Z:PROC		; ioWnd::SetIDEX
EXTRN	?ParseXML@ioWnd@@UAEXAAVioXMLElement@@@Z:PROC	; ioWnd::ParseXML
EXTRN	?GetHeaderFileName@ioWnd@@UAEPBDXZ:PROC		; ioWnd::GetHeaderFileName
EXTRN	?GetTemplateName@ioWnd@@UAEPBDXZ:PROC		; ioWnd::GetTemplateName
EXTRN	?GetDefClassName@ioWnd@@UBEPBDXZ:PROC		; ioWnd::GetDefClassName
EXTRN	?_Clone@ioWnd@@UAEPAV1@XZ:PROC			; ioWnd::_Clone
EXTRN	?Copy@ioWnd@@UAEXPAV1@@Z:PROC			; ioWnd::Copy
EXTRN	?Save@ioWnd@@UAE_NAAVioXMLElement@@@Z:PROC	; ioWnd::Save
EXTRN	?SetSaveData@ioWnd@@UAEXAAVioXMLElement@@@Z:PROC ; ioWnd::SetSaveData
EXTRN	?SetPosX@ioWnd@@UAEXH@Z:PROC			; ioWnd::SetPosX
EXTRN	?SetPosY@ioWnd@@UAEXH@Z:PROC			; ioWnd::SetPosY
EXTRN	?SetWidth@ioWnd@@UAEXH@Z:PROC			; ioWnd::SetWidth
EXTRN	?SetHeight@ioWnd@@UAEXH@Z:PROC			; ioWnd::SetHeight
EXTRN	?GetNumFixedRenderFrame@ioWnd@@UBEHXZ:PROC	; ioWnd::GetNumFixedRenderFrame
EXTRN	?GetFixedRenderFrameType@ioWnd@@UAEPBDH@Z:PROC	; ioWnd::GetFixedRenderFrameType
EXTRN	?GetRenderFrame@ioWnd@@UAEPAPAVioUIRenderElement@@PBD@Z:PROC ; ioWnd::GetRenderFrame
EXTRN	?GetNumFixedRenderImage@ioWnd@@UBEHXZ:PROC	; ioWnd::GetNumFixedRenderImage
EXTRN	?GetFixedRenderImageType@ioWnd@@UAEPBDH@Z:PROC	; ioWnd::GetFixedRenderImageType
EXTRN	?GetRenderImage@ioWnd@@UAEPAPAVioUIRenderElement@@PBD@Z:PROC ; ioWnd::GetRenderImage
EXTRN	?AddEffect@ioWnd@@UAEXABVioHashString@@PAVioUI3DEffectRender@@@Z:PROC ; ioWnd::AddEffect
EXTRN	?GetEffect@ioWnd@@UAEPAVioUI3DEffectRender@@VioHashString@@@Z:PROC ; ioWnd::GetEffect
EXTRN	??_EMiniMap@@UAEPAXI@Z:PROC			; MiniMap::`vector deleting destructor'
;	COMDAT ??_R2ioWnd@@8
; File d:\lost saga for developer\youtube\tutorial\source\src\lsclient\stdafx.h
rdata$r	SEGMENT
??_R2ioWnd@@8 DD FLAT:??_R1A@?0A@EA@ioWnd@@8		; ioWnd::`RTTI Base Class Array'
rdata$r	ENDS
;	COMDAT ??_R3ioWnd@@8
rdata$r	SEGMENT
??_R3ioWnd@@8 DD 00H					; ioWnd::`RTTI Class Hierarchy Descriptor'
	DD	00H
	DD	01H
	DD	FLAT:??_R2ioWnd@@8
rdata$r	ENDS
;	COMDAT ??_R0?AVioWnd@@@8
_DATA	SEGMENT
??_R0?AVioWnd@@@8 DD FLAT:??_7type_info@@6B@		; ioWnd `RTTI Type Descriptor'
	DD	00H
	DB	'.?AVioWnd@@', 00H
_DATA	ENDS
;	COMDAT ??_R1A@?0A@EA@ioWnd@@8
rdata$r	SEGMENT
??_R1A@?0A@EA@ioWnd@@8 DD FLAT:??_R0?AVioWnd@@@8	; ioWnd::`RTTI Base Class Descriptor at (0,-1,0,64)'
	DD	00H
	DD	00H
	DD	0ffffffffH
	DD	00H
	DD	040H
	DD	FLAT:??_R3ioWnd@@8
rdata$r	ENDS
;	COMDAT ??_R2ioMovingWnd@@8
rdata$r	SEGMENT
??_R2ioMovingWnd@@8 DD FLAT:??_R1A@?0A@EA@ioMovingWnd@@8 ; ioMovingWnd::`RTTI Base Class Array'
	DD	FLAT:??_R1A@?0A@EA@ioWnd@@8
rdata$r	ENDS
;	COMDAT ??_R3ioMovingWnd@@8
rdata$r	SEGMENT
??_R3ioMovingWnd@@8 DD 00H				; ioMovingWnd::`RTTI Class Hierarchy Descriptor'
	DD	00H
	DD	02H
	DD	FLAT:??_R2ioMovingWnd@@8
rdata$r	ENDS
;	COMDAT ??_R0?AVioMovingWnd@@@8
_DATA	SEGMENT
??_R0?AVioMovingWnd@@@8 DD FLAT:??_7type_info@@6B@	; ioMovingWnd `RTTI Type Descriptor'
	DD	00H
	DB	'.?AVioMovingWnd@@', 00H
_DATA	ENDS
;	COMDAT ??_R1A@?0A@EA@ioMovingWnd@@8
rdata$r	SEGMENT
??_R1A@?0A@EA@ioMovingWnd@@8 DD FLAT:??_R0?AVioMovingWnd@@@8 ; ioMovingWnd::`RTTI Base Class Descriptor at (0,-1,0,64)'
	DD	01H
	DD	00H
	DD	0ffffffffH
	DD	00H
	DD	040H
	DD	FLAT:??_R3ioMovingWnd@@8
rdata$r	ENDS
;	COMDAT ??_R1A@?0A@EA@MiniMap@@8
rdata$r	SEGMENT
??_R1A@?0A@EA@MiniMap@@8 DD FLAT:??_R0?AVMiniMap@@@8	; MiniMap::`RTTI Base Class Descriptor at (0,-1,0,64)'
	DD	02H
	DD	00H
	DD	0ffffffffH
	DD	00H
	DD	040H
	DD	FLAT:??_R3MiniMap@@8
rdata$r	ENDS
;	COMDAT ??_R2MiniMap@@8
rdata$r	SEGMENT
??_R2MiniMap@@8 DD FLAT:??_R1A@?0A@EA@MiniMap@@8	; MiniMap::`RTTI Base Class Array'
	DD	FLAT:??_R1A@?0A@EA@ioMovingWnd@@8
	DD	FLAT:??_R1A@?0A@EA@ioWnd@@8
rdata$r	ENDS
;	COMDAT ??_R3MiniMap@@8
rdata$r	SEGMENT
??_R3MiniMap@@8 DD 00H					; MiniMap::`RTTI Class Hierarchy Descriptor'
	DD	00H
	DD	03H
	DD	FLAT:??_R2MiniMap@@8
rdata$r	ENDS
;	COMDAT ??_R0?AVMiniMap@@@8
_DATA	SEGMENT
??_R0?AVMiniMap@@@8 DD FLAT:??_7type_info@@6B@		; MiniMap `RTTI Type Descriptor'
	DD	00H
	DB	'.?AVMiniMap@@', 00H
_DATA	ENDS
;	COMDAT ??_R4MiniMap@@6B@
rdata$r	SEGMENT
??_R4MiniMap@@6B@ DD 00H				; MiniMap::`RTTI Complete Object Locator'
	DD	00H
	DD	00H
	DD	FLAT:??_R0?AVMiniMap@@@8
	DD	FLAT:??_R3MiniMap@@8
rdata$r	ENDS
;	COMDAT ??_7MiniMap@@6B@
CONST	SEGMENT
??_7MiniMap@@6B@ DD FLAT:??_R4MiniMap@@6B@		; MiniMap::`vftable'
	DD	FLAT:?AddRenderFrame@ioWnd@@UAEXABVioHashString@@PAVioUIRenderFrame@@@Z
	DD	FLAT:?AddRenderImage@MiniMap@@UAEXABVioHashString@@PAVioUIRenderImage@@@Z
	DD	FLAT:?AddTooltipHelp@ioWnd@@UAEXABVioHashString@@00@Z
	DD	FLAT:?ParseExtraInfo@MiniMap@@UAEXAAVioXMLElement@@@Z
	DD	FLAT:?AddNamedRenderImage@ioWnd@@UAEXABVioHashString@@PAVioUIRenderImage@@@Z
	DD	FLAT:?RemoveNamedRenderImage@ioWnd@@UAEXABVioHashString@@@Z
	DD	FLAT:?GetNamedRenderImage@ioWnd@@UBEPAVioUIRenderImage@@ABVioHashString@@@Z
	DD	FLAT:?SetWindowAlpha@ioWnd@@UAEXH@Z
	DD	FLAT:?SetActive@ioWnd@@UAEXXZ
	DD	FLAT:?SetInActive@ioWnd@@UAEXXZ
	DD	FLAT:?ClearElementImageList@ioWnd@@UAEXXZ
	DD	FLAT:?SetSize@ioWnd@@UAEXHH@Z
	DD	FLAT:?SetPositionToDefault@MiniMap@@UAEXHH_N0@Z
	DD	FLAT:?IsNeedProcess@ioWnd@@UBE_NXZ
	DD	FLAT:?IsCanMouseReaction@ioWnd@@UBE_NXZ
	DD	FLAT:?AddChild@ioWnd@@UAEXPAV1@@Z
	DD	FLAT:?DeleteChild@ioWnd@@UAEXK@Z
	DD	FLAT:?DeleteAllChild@ioWnd@@UAEXXZ
	DD	FLAT:?OnRenderShowAndHide@ioWnd@@MAE_NXZ
	DD	FLAT:?OnRenderShowAndHideByDefault@ioWnd@@MAE_NK@Z
	DD	FLAT:?OnRenderShowAndHideByTop@ioWnd@@MAE_NK@Z
	DD	FLAT:?OnRenderShowAndHideByDown@ioWnd@@MAE_NK@Z
	DD	FLAT:?OnRender@MiniMap@@MAEXXZ
	DD	FLAT:?OnRenderAfterChild@ioWnd@@MAEXXZ
	DD	FLAT:?OnProcess@MiniMap@@MAEXM@Z
	DD	FLAT:?OnMouseProcess@ioMovingWnd@@MAEXABVioMouse@@@Z
	DD	FLAT:?CheckFrameReSize@ioWnd@@MAEXHHHH@Z
	DD	FLAT:?RenderImageList@ioWnd@@MAEXHHW4UIRenderType@@@Z
	DD	FLAT:?iwm_create@MiniMap@@UAEXXZ
	DD	FLAT:?iwm_destroy@ioWnd@@UAEXXZ
	DD	FLAT:?iwm_lbuttondown@ioMovingWnd@@UAEXABVioMouse@@@Z
	DD	FLAT:?iwm_lbuttonup@ioMovingWnd@@UAEXABVioMouse@@@Z
	DD	FLAT:?iwm_lbuttonDBLCLK@ioWnd@@UAEXABVioMouse@@@Z
	DD	FLAT:?iwm_rbuttondown@ioWnd@@UAEXABVioMouse@@@Z
	DD	FLAT:?iwm_rbuttonup@ioWnd@@UAEXABVioMouse@@@Z
	DD	FLAT:?iwm_command@ioWnd@@UAEXPAV1@HK@Z
	DD	FLAT:?iwm_mouseover@ioWnd@@UAEXABVioMouse@@@Z
	DD	FLAT:?iwm_mousemove@ioWnd@@UAEXABVioMouse@@@Z
	DD	FLAT:?iwm_mouseleave@ioWnd@@UAEXABVioMouse@@@Z
	DD	FLAT:?iwm_vscroll@ioWnd@@UAEXKH@Z
	DD	FLAT:?iwm_wheel@ioWnd@@UAEXH@Z
	DD	FLAT:?iwm_show@ioWnd@@UAEXXZ
	DD	FLAT:?iwm_hide@ioWnd@@UAEXXZ
	DD	FLAT:?iwm_esc@ioWnd@@UAE_NXZ
	DD	FLAT:?iwm_spacebar@ioWnd@@UAE_NXZ
	DD	FLAT:?iwm_gototop@ioWnd@@UAEXXZ
	DD	FLAT:?iwm_dragenter@ioWnd@@UAE?AW4IWDropEffect@@PAVioDragItem@@ABVioMouse@@@Z
	DD	FLAT:?iwm_dragover@ioWnd@@UAE?AW4IWDropEffect@@PAVioDragItem@@ABVioMouse@@@Z
	DD	FLAT:?iwm_dragleave@ioWnd@@UAEXXZ
	DD	FLAT:?iwm_dropitem@ioWnd@@UAE_NPAVioDragItem@@ABVioMouse@@PAV1@@Z
	DD	FLAT:?iwm_dropdone@ioWnd@@UAEXPAVioDragItem@@PAV1@_N@Z
	DD	FLAT:?IsEXType@ioWnd@@UBE_NXZ
	DD	FLAT:?GetWndType@ioWnd@@UBEKXZ
	DD	FLAT:?RenderWnd@ioWnd@@UAEXXZ
	DD	FLAT:?SetIDEX@ioWnd@@UAEXAAK_N@Z
	DD	FLAT:?ParseXML@ioWnd@@UAEXAAVioXMLElement@@@Z
	DD	FLAT:?GetHeaderFileName@ioWnd@@UAEPBDXZ
	DD	FLAT:?GetTemplateName@ioWnd@@UAEPBDXZ
	DD	FLAT:?GetDefClassName@ioWnd@@UBEPBDXZ
	DD	FLAT:?_Clone@ioWnd@@UAEPAV1@XZ
	DD	FLAT:?Copy@ioWnd@@UAEXPAV1@@Z
	DD	FLAT:?Save@ioWnd@@UAE_NAAVioXMLElement@@@Z
	DD	FLAT:?SetSaveData@ioWnd@@UAEXAAVioXMLElement@@@Z
	DD	FLAT:?SetPosX@ioWnd@@UAEXH@Z
	DD	FLAT:?SetPosY@ioWnd@@UAEXH@Z
	DD	FLAT:?SetWidth@ioWnd@@UAEXH@Z
	DD	FLAT:?SetHeight@ioWnd@@UAEXH@Z
	DD	FLAT:?GetNumFixedRenderFrame@ioWnd@@UBEHXZ
	DD	FLAT:?GetFixedRenderFrameType@ioWnd@@UAEPBDH@Z
	DD	FLAT:?GetRenderFrame@ioWnd@@UAEPAPAVioUIRenderElement@@PBD@Z
	DD	FLAT:?GetNumFixedRenderImage@ioWnd@@UBEHXZ
	DD	FLAT:?GetFixedRenderImageType@ioWnd@@UAEPBDH@Z
	DD	FLAT:?GetRenderImage@ioWnd@@UAEPAPAVioUIRenderElement@@PBD@Z
	DD	FLAT:?AddEffect@ioWnd@@UAEXABVioHashString@@PAVioUI3DEffectRender@@@Z
	DD	FLAT:?GetEffect@ioWnd@@UAEPAVioUI3DEffectRender@@VioHashString@@@Z
	DD	FLAT:??_EMiniMap@@UAEPAXI@Z
CONST	ENDS
;	COMDAT xdata$x
xdata$x	SEGMENT
__unwindtable$??0MiniMap@@QAE@XZ DD 0ffffffffH
	DD	FLAT:__unwindfunclet$??0MiniMap@@QAE@XZ$0
	DD	00H
	DD	FLAT:__unwindfunclet$??0MiniMap@@QAE@XZ$1
	DD	01H
	DD	FLAT:__unwindfunclet$??0MiniMap@@QAE@XZ$2
__ehfuncinfo$??0MiniMap@@QAE@XZ DD 019930522H
	DD	03H
	DD	FLAT:__unwindtable$??0MiniMap@@QAE@XZ
	DD	2 DUP(00H)
	DD	2 DUP(00H)
	DD	00H
	DD	01H
; Function compile flags: /Ogsp
; File d:\lost saga for developer\youtube\tutorial\source\src\lsclient\gui\minimap.cpp
xdata$x	ENDS
;	COMDAT ??0MiniMap@@QAE@XZ
_TEXT	SEGMENT
tv341 = -20						; size = 4
tv336 = -20						; size = 4
_this$ = -16						; size = 4
__$EHRec$ = -12						; size = 12
??0MiniMap@@QAE@XZ PROC					; MiniMap::MiniMap, COMDAT
; _this$ = ecx

; 9    : {

  00000	6a 08		 push	 8
  00002	b8 00 00 00 00	 mov	 eax, __ehhandler$??0MiniMap@@QAE@XZ
  00007	e8 00 00 00 00	 call	 __EH_prolog3
  0000c	8b f1		 mov	 esi, ecx
  0000e	89 75 f0	 mov	 DWORD PTR _this$[ebp], esi
  00011	ff 15 00 00 00
	00		 call	 DWORD PTR __imp_??0ioMovingWnd@@QAE@XZ
  00017	33 db		 xor	 ebx, ebx
  00019	c7 06 00 00 00
	00		 mov	 DWORD PTR [esi], OFFSET ??_7MiniMap@@6B@
  0001f	89 5d fc	 mov	 DWORD PTR __$EHRec$[ebp+8], ebx
  00022	89 9e 90 01 00
	00		 mov	 DWORD PTR [esi+400], ebx
  00028	89 9e 94 01 00
	00		 mov	 DWORD PTR [esi+404], ebx
  0002e	89 9e 98 01 00
	00		 mov	 DWORD PTR [esi+408], ebx
  00034	8d 8e 78 02 00
	00		 lea	 ecx, DWORD PTR [esi+632]
  0003a	c6 45 fc 01	 mov	 BYTE PTR __$EHRec$[ebp+8], 1
  0003e	e8 00 00 00 00	 call	 ??0FSMStateMgr@@QAE@XZ	; FSMStateMgr::FSMStateMgr

; 10   : 	m_pModeParent = NULL;
; 11   : 
; 12   : 	m_fMapStartX = 0.0f;

  00043	0f 57 c0	 xorps	 xmm0, xmm0
  00046	c6 45 fc 02	 mov	 BYTE PTR __$EHRec$[ebp+8], 2
  0004a	89 9e a0 01 00
	00		 mov	 DWORD PTR [esi+416], ebx
  00050	f3 0f 11 86 a4
	01 00 00	 movss	 DWORD PTR [esi+420], xmm0

; 13   : 	m_fMapStartZ = 0.0f;

  00058	f3 0f 11 86 a8
	01 00 00	 movss	 DWORD PTR [esi+424], xmm0

; 14   : 	m_fMapRealWidth  = FLOAT100;

  00060	b8 64 00 00 00	 mov	 eax, 100		; 00000064H
  00065	89 45 ec	 mov	 DWORD PTR tv341[ebp], eax
  00068	db 45 ec	 fild	 DWORD PTR tv341[ebp]
  0006b	85 c0		 test	 eax, eax
  0006d	79 06		 jns	 SHORT $LN29@MiniMap
  0006f	d8 05 00 00 00
	00		 fadd	 DWORD PTR __real@4f800000
$LN29@MiniMap:
  00075	d9 9e ac 01 00
	00		 fstp	 DWORD PTR [esi+428]

; 15   : 	m_fMapRealHeight = FLOAT100;

  0007b	b8 64 00 00 00	 mov	 eax, 100		; 00000064H
  00080	89 45 ec	 mov	 DWORD PTR tv336[ebp], eax
  00083	db 45 ec	 fild	 DWORD PTR tv336[ebp]
  00086	85 c0		 test	 eax, eax
  00088	79 06		 jns	 SHORT $LN30@MiniMap
  0008a	d8 05 00 00 00
	00		 fadd	 DWORD PTR __real@4f800000
$LN30@MiniMap:

; 16   : 	
; 17   : 	m_iMiniMapOffX = 0;
; 18   : 	m_iMiniMapOffY = 0;
; 19   : 	m_iPointOffX = 0;
; 20   : 	m_iPointOffY = 0;
; 21   : 
; 22   : 	m_iBlindOffSetY    = 0;
; 23   : 	m_iPreBlindOffSetY = 0;
; 24   : 
; 25   : 	m_pMiniMap		 = NULL;
; 26   : 	m_pAreaMe        = NULL;
; 27   : 	
; 28   : 	for(int i = SPOT_USER; i < MAX_SPOT; i++)
; 29   : 		m_pSpot[i] = NULL;

  00090	6a 23		 push	 35			; 00000023H
  00092	d9 9e b0 01 00
	00		 fstp	 DWORD PTR [esi+432]
  00098	59		 pop	 ecx
  00099	33 c0		 xor	 eax, eax
  0009b	89 9e b4 01 00
	00		 mov	 DWORD PTR [esi+436], ebx
  000a1	89 9e b8 01 00
	00		 mov	 DWORD PTR [esi+440], ebx
  000a7	89 9e bc 01 00
	00		 mov	 DWORD PTR [esi+444], ebx
  000ad	89 9e c0 01 00
	00		 mov	 DWORD PTR [esi+448], ebx
  000b3	89 9e c4 01 00
	00		 mov	 DWORD PTR [esi+452], ebx
  000b9	89 9e c8 01 00
	00		 mov	 DWORD PTR [esi+456], ebx
  000bf	89 9e cc 01 00
	00		 mov	 DWORD PTR [esi+460], ebx
  000c5	89 9e d0 01 00
	00		 mov	 DWORD PTR [esi+464], ebx
  000cb	8d be d4 01 00
	00		 lea	 edi, DWORD PTR [esi+468]
  000d1	f3 ab		 rep stosd

; 30   : 
; 31   : 	for(int i = TIME_ICON; i < MAX_IMAGE; i++)
; 32   : 		m_pExtraImg[i] = NULL;

  000d3	6a 06		 push	 6
  000d5	59		 pop	 ecx
  000d6	8d be 60 02 00
	00		 lea	 edi, DWORD PTR [esi+608]
  000dc	f3 ab		 rep stosd

; 33   : 
; 34   : 	m_iDefaultX = 0;
; 35   : 	m_iDefaultY = 0;
; 36   : 
; 37   : 	m_dwSpotDuration = 0;
; 38   : 	m_dwSpotVisibleGap = 0;
; 39   : 	m_dwSpotHideGap = 0;
; 40   : 	m_dwTime = 0;
; 41   : 	
; 42   : 	m_fSpotPositionRate = 0.0f;
; 43   : 
; 44   : 	m_bShowTime = false;
; 45   : 
; 46   : 	InitShowAniState();

  000de	8b ce		 mov	 ecx, esi
  000e0	89 9e a0 02 00
	00		 mov	 DWORD PTR [esi+672], ebx
  000e6	89 9e a4 02 00
	00		 mov	 DWORD PTR [esi+676], ebx
  000ec	89 9e a8 02 00
	00		 mov	 DWORD PTR [esi+680], ebx
  000f2	89 9e ac 02 00
	00		 mov	 DWORD PTR [esi+684], ebx
  000f8	89 9e b0 02 00
	00		 mov	 DWORD PTR [esi+688], ebx
  000fe	89 9e b4 02 00
	00		 mov	 DWORD PTR [esi+692], ebx
  00104	f3 0f 11 86 b8
	02 00 00	 movss	 DWORD PTR [esi+696], xmm0
  0010c	88 9e bc 02 00
	00		 mov	 BYTE PTR [esi+700], bl
  00112	e8 00 00 00 00	 call	 ?InitShowAniState@MiniMap@@IAEXXZ ; MiniMap::InitShowAniState

; 47   : }

  00117	8b c6		 mov	 eax, esi
  00119	e8 00 00 00 00	 call	 __EH_epilog3
  0011e	c3		 ret	 0
_TEXT	ENDS
;	COMDAT text$x
text$x	SEGMENT
__unwindfunclet$??0MiniMap@@QAE@XZ$0:
  00000	8b 4d f0	 mov	 ecx, DWORD PTR _this$[ebp]
  00003	ff 25 00 00 00
	00		 jmp	 DWORD PTR __imp_??1ioMovingWnd@@UAE@XZ
__unwindfunclet$??0MiniMap@@QAE@XZ$1:
  00009	8b 4d f0	 mov	 ecx, DWORD PTR _this$[ebp]
  0000c	81 c1 90 01 00
	00		 add	 ecx, 400		; 00000190H
  00012	e9 00 00 00 00	 jmp	 ??1?$vector@USpotPoint@MiniMap@@V?$allocator@USpotPoint@MiniMap@@@std@@@std@@QAE@XZ ; std::vector<MiniMap::SpotPoint,std::allocator<MiniMap::SpotPoint> >::~vector<MiniMap::SpotPoint,std::allocator<MiniMap::SpotPoint> >
__unwindfunclet$??0MiniMap@@QAE@XZ$2:
  00017	8b 4d f0	 mov	 ecx, DWORD PTR _this$[ebp]
  0001a	81 c1 78 02 00
	00		 add	 ecx, 632		; 00000278H
  00020	e9 00 00 00 00	 jmp	 ??1FSMStateMgr@@UAE@XZ	; FSMStateMgr::~FSMStateMgr
__ehhandler$??0MiniMap@@QAE@XZ:
  00025	8b 54 24 08	 mov	 edx, DWORD PTR [esp+8]
  00029	8d 42 0c	 lea	 eax, DWORD PTR [edx+12]
  0002c	8b 4a e8	 mov	 ecx, DWORD PTR [edx-24]
  0002f	33 c8		 xor	 ecx, eax
  00031	e8 00 00 00 00	 call	 @__security_check_cookie@4
  00036	b8 00 00 00 00	 mov	 eax, OFFSET __ehfuncinfo$??0MiniMap@@QAE@XZ
  0003b	e9 00 00 00 00	 jmp	 ___CxxFrameHandler3
text$x	ENDS
??0MiniMap@@QAE@XZ ENDP					; MiniMap::MiniMap
PUBLIC	??1MiniMap@@UAE@XZ				; MiniMap::~MiniMap
EXTRN	?GUIPosSaveInt@ioSP2GUIManager@@QAEHPBD0HH@Z:PROC ; ioSP2GUIManager::GUIPosSaveInt
;	COMDAT xdata$x
; File c:\program files (x86)\microsoft visual studio 10.0\vc\include\vector
xdata$x	SEGMENT
__unwindtable$??1MiniMap@@UAE@XZ DD 0ffffffffH
	DD	FLAT:__unwindfunclet$??1MiniMap@@UAE@XZ$0
	DD	00H
	DD	FLAT:__unwindfunclet$??1MiniMap@@UAE@XZ$1
	DD	01H
	DD	FLAT:__unwindfunclet$??1MiniMap@@UAE@XZ$2
__ehfuncinfo$??1MiniMap@@UAE@XZ DD 019930522H
	DD	03H
	DD	FLAT:__unwindtable$??1MiniMap@@UAE@XZ
	DD	2 DUP(00H)
	DD	2 DUP(00H)
	DD	00H
	DD	01H
; Function compile flags: /Ogsp
; File d:\lost saga for developer\youtube\tutorial\source\src\lsclient\gui\minimap.cpp
xdata$x	ENDS
;	COMDAT ??1MiniMap@@UAE@XZ
_TEXT	SEGMENT
_this$ = -20						; size = 4
tv147 = -16						; size = 4
tv83 = -16						; size = 4
__$EHRec$ = -12						; size = 12
??1MiniMap@@UAE@XZ PROC					; MiniMap::~MiniMap, COMDAT
; _this$ = ecx

; 50   : {

  00000	6a 08		 push	 8
  00002	b8 00 00 00 00	 mov	 eax, __ehhandler$??1MiniMap@@UAE@XZ
  00007	e8 00 00 00 00	 call	 __EH_prolog3
  0000c	8b f1		 mov	 esi, ecx
  0000e	89 75 ec	 mov	 DWORD PTR _this$[ebp], esi
  00011	c7 06 00 00 00
	00		 mov	 DWORD PTR [esi], OFFSET ??_7MiniMap@@6B@

; 51   : 	SAFEDELETE( m_pMiniMap );

  00017	8b 8e cc 01 00
	00		 mov	 ecx, DWORD PTR [esi+460]
  0001d	33 db		 xor	 ebx, ebx
  0001f	c7 45 fc 02 00
	00 00		 mov	 DWORD PTR __$EHRec$[ebp+8], 2
  00026	3b cb		 cmp	 ecx, ebx
  00028	74 0d		 je	 SHORT $LN11@MiniMap@2
  0002a	8b 01		 mov	 eax, DWORD PTR [ecx]
  0002c	6a 01		 push	 1
  0002e	ff 50 40	 call	 DWORD PTR [eax+64]
  00031	89 9e cc 01 00
	00		 mov	 DWORD PTR [esi+460], ebx
$LN11@MiniMap@2:

; 52   : 	SAFEDELETE( m_pAreaMe );

  00037	8b 8e d0 01 00
	00		 mov	 ecx, DWORD PTR [esi+464]
  0003d	3b cb		 cmp	 ecx, ebx
  0003f	74 0d		 je	 SHORT $LN10@MiniMap@2
  00041	8b 01		 mov	 eax, DWORD PTR [ecx]
  00043	6a 01		 push	 1
  00045	ff 50 40	 call	 DWORD PTR [eax+64]
  00048	89 9e d0 01 00
	00		 mov	 DWORD PTR [esi+464], ebx
$LN10@MiniMap@2:

; 53   : 
; 54   : 	for(int i = SPOT_USER; i < MAX_SPOT; i++)

  0004e	8d be d4 01 00
	00		 lea	 edi, DWORD PTR [esi+468]
  00054	c7 45 f0 23 00
	00 00		 mov	 DWORD PTR tv147[ebp], 35 ; 00000023H
$LL9@MiniMap@2:

; 55   : 		SAFEDELETE(m_pSpot[i]);

  0005b	8b 0f		 mov	 ecx, DWORD PTR [edi]
  0005d	3b cb		 cmp	 ecx, ebx
  0005f	74 09		 je	 SHORT $LN8@MiniMap@2
  00061	8b 01		 mov	 eax, DWORD PTR [ecx]
  00063	6a 01		 push	 1
  00065	ff 50 40	 call	 DWORD PTR [eax+64]
  00068	89 1f		 mov	 DWORD PTR [edi], ebx
$LN8@MiniMap@2:

; 53   : 
; 54   : 	for(int i = SPOT_USER; i < MAX_SPOT; i++)

  0006a	83 c7 04	 add	 edi, 4
  0006d	ff 4d f0	 dec	 DWORD PTR tv147[ebp]
  00070	75 e9		 jne	 SHORT $LL9@MiniMap@2

; 56   : 
; 57   : 	for(int i = TIME_ICON; i < MAX_IMAGE; i++)

  00072	8d be 60 02 00
	00		 lea	 edi, DWORD PTR [esi+608]
  00078	c7 45 f0 06 00
	00 00		 mov	 DWORD PTR tv83[ebp], 6
$LL5@MiniMap@2:

; 58   : 		SAFEDELETE(m_pExtraImg[i]);

  0007f	8b 0f		 mov	 ecx, DWORD PTR [edi]
  00081	3b cb		 cmp	 ecx, ebx
  00083	74 09		 je	 SHORT $LN4@MiniMap@2
  00085	8b 01		 mov	 eax, DWORD PTR [ecx]
  00087	6a 01		 push	 1
  00089	ff 50 40	 call	 DWORD PTR [eax+64]
  0008c	89 1f		 mov	 DWORD PTR [edi], ebx
$LN4@MiniMap@2:

; 56   : 
; 57   : 	for(int i = TIME_ICON; i < MAX_IMAGE; i++)

  0008e	83 c7 04	 add	 edi, 4
  00091	ff 4d f0	 dec	 DWORD PTR tv83[ebp]
  00094	75 e9		 jne	 SHORT $LL5@MiniMap@2

; 59   : 
; 60   : 	if( COMPARE( m_iDefaultX, 0, Setting::Width() ) && 
; 61   : 		COMPARE( m_iDefaultY, 0, Setting::Height() ) )

  00096	39 9e a0 02 00
	00		 cmp	 DWORD PTR [esi+672], ebx
  0009c	7c 5b		 jl	 SHORT $LN1@MiniMap@2
  0009e	e8 00 00 00 00	 call	 ?Width@Setting@@SAHXZ	; Setting::Width
  000a3	39 86 a0 02 00
	00		 cmp	 DWORD PTR [esi+672], eax
  000a9	7d 4e		 jge	 SHORT $LN1@MiniMap@2
  000ab	39 9e a4 02 00
	00		 cmp	 DWORD PTR [esi+676], ebx
  000b1	7c 46		 jl	 SHORT $LN1@MiniMap@2
  000b3	e8 00 00 00 00	 call	 ?Height@Setting@@SAHXZ	; Setting::Height
  000b8	39 86 a4 02 00
	00		 cmp	 DWORD PTR [esi+676], eax
  000be	7d 39		 jge	 SHORT $LN1@MiniMap@2

; 62   : 	{
; 63   : 		g_GUIMgr.GUIPosSaveInt( "MiniMap", "XPos", m_iDefaultX ,POS_SAVE_VERSION );

  000c0	6a 04		 push	 4
  000c2	ff b6 a0 02 00
	00		 push	 DWORD PTR [esi+672]
  000c8	bf 00 00 00 00	 mov	 edi, OFFSET ??_C@_07JPODNNIL@MiniMap?$AA@
  000cd	68 00 00 00 00	 push	 OFFSET ??_C@_04LNCKCFGC@XPos?$AA@
  000d2	57		 push	 edi
  000d3	e8 00 00 00 00	 call	 ?GetSingleton@ioSP2GUIManager@@SAAAV1@XZ ; ioSP2GUIManager::GetSingleton
  000d8	8b c8		 mov	 ecx, eax
  000da	e8 00 00 00 00	 call	 ?GUIPosSaveInt@ioSP2GUIManager@@QAEHPBD0HH@Z ; ioSP2GUIManager::GUIPosSaveInt

; 64   : 		g_GUIMgr.GUIPosSaveInt( "MiniMap", "YPos", m_iDefaultY ,POS_SAVE_VERSION );

  000df	6a 04		 push	 4
  000e1	ff b6 a4 02 00
	00		 push	 DWORD PTR [esi+676]
  000e7	68 00 00 00 00	 push	 OFFSET ??_C@_04IAEKAMNC@YPos?$AA@
  000ec	57		 push	 edi
  000ed	e8 00 00 00 00	 call	 ?GetSingleton@ioSP2GUIManager@@SAAAV1@XZ ; ioSP2GUIManager::GetSingleton
  000f2	8b c8		 mov	 ecx, eax
  000f4	e8 00 00 00 00	 call	 ?GUIPosSaveInt@ioSP2GUIManager@@QAEHPBD0HH@Z ; ioSP2GUIManager::GUIPosSaveInt
$LN1@MiniMap@2:

; 65   : 	}
; 66   : }

  000f9	8d 8e 78 02 00
	00		 lea	 ecx, DWORD PTR [esi+632]
  000ff	c6 45 fc 01	 mov	 BYTE PTR __$EHRec$[ebp+8], 1
  00103	e8 00 00 00 00	 call	 ??1FSMStateMgr@@UAE@XZ	; FSMStateMgr::~FSMStateMgr
  00108	8d 8e 90 01 00
	00		 lea	 ecx, DWORD PTR [esi+400]
  0010e	88 5d fc	 mov	 BYTE PTR __$EHRec$[ebp+8], bl
  00111	e8 00 00 00 00	 call	 ?_Tidy@?$vector@USpotPoint@MiniMap@@V?$allocator@USpotPoint@MiniMap@@@std@@@std@@IAEXXZ ; std::vector<MiniMap::SpotPoint,std::allocator<MiniMap::SpotPoint> >::_Tidy
  00116	83 4d fc ff	 or	 DWORD PTR __$EHRec$[ebp+8], -1
  0011a	8b ce		 mov	 ecx, esi
  0011c	ff 15 00 00 00
	00		 call	 DWORD PTR __imp_??1ioMovingWnd@@UAE@XZ
  00122	e8 00 00 00 00	 call	 __EH_epilog3
  00127	c3		 ret	 0
_TEXT	ENDS
;	COMDAT text$x
text$x	SEGMENT
__unwindfunclet$??1MiniMap@@UAE@XZ$0:
  00000	8b 4d ec	 mov	 ecx, DWORD PTR _this$[ebp]
  00003	ff 25 00 00 00
	00		 jmp	 DWORD PTR __imp_??1ioMovingWnd@@UAE@XZ
__unwindfunclet$??1MiniMap@@UAE@XZ$1:
  00009	8b 4d ec	 mov	 ecx, DWORD PTR _this$[ebp]
  0000c	81 c1 90 01 00
	00		 add	 ecx, 400		; 00000190H
  00012	e9 00 00 00 00	 jmp	 ??1?$vector@USpotPoint@MiniMap@@V?$allocator@USpotPoint@MiniMap@@@std@@@std@@QAE@XZ ; std::vector<MiniMap::SpotPoint,std::allocator<MiniMap::SpotPoint> >::~vector<MiniMap::SpotPoint,std::allocator<MiniMap::SpotPoint> >
__unwindfunclet$??1MiniMap@@UAE@XZ$2:
  00017	8b 4d ec	 mov	 ecx, DWORD PTR _this$[ebp]
  0001a	81 c1 78 02 00
	00		 add	 ecx, 632		; 00000278H
  00020	e9 00 00 00 00	 jmp	 ??1FSMStateMgr@@UAE@XZ	; FSMStateMgr::~FSMStateMgr
__ehhandler$??1MiniMap@@UAE@XZ:
  00025	8b 54 24 08	 mov	 edx, DWORD PTR [esp+8]
  00029	8d 42 0c	 lea	 eax, DWORD PTR [edx+12]
  0002c	8b 4a e8	 mov	 ecx, DWORD PTR [edx-24]
  0002f	33 c8		 xor	 ecx, eax
  00031	e8 00 00 00 00	 call	 @__security_check_cookie@4
  00036	b8 00 00 00 00	 mov	 eax, OFFSET __ehfuncinfo$??1MiniMap@@UAE@XZ
  0003b	e9 00 00 00 00	 jmp	 ___CxxFrameHandler3
text$x	ENDS
??1MiniMap@@UAE@XZ ENDP					; MiniMap::~MiniMap
PUBLIC	?ClearPointList@MiniMap@@QAEXXZ			; MiniMap::ClearPointList
; Function compile flags: /Ogsp
;	COMDAT ?ClearPointList@MiniMap@@QAEXXZ
_TEXT	SEGMENT
$T542088 = -4						; size = 4
?ClearPointList@MiniMap@@QAEXXZ PROC			; MiniMap::ClearPointList, COMDAT
; _this$ = ecx

; 264  : {

  00000	55		 push	 ebp
  00001	8b ec		 mov	 ebp, esp
  00003	51		 push	 ecx

; 265  : 	m_SpotPointList.erase( m_SpotPointList.begin(), m_SpotPointList.end() );

  00004	8b 81 94 01 00
	00		 mov	 eax, DWORD PTR [ecx+404]
  0000a	81 c1 90 01 00
	00		 add	 ecx, 400		; 00000190H
  00010	8b 11		 mov	 edx, DWORD PTR [ecx]
  00012	50		 push	 eax
  00013	52		 push	 edx
  00014	8d 45 fc	 lea	 eax, DWORD PTR $T542088[ebp]
  00017	50		 push	 eax
  00018	e8 00 00 00 00	 call	 ?erase@?$vector@USpotPoint@MiniMap@@V?$allocator@USpotPoint@MiniMap@@@std@@@std@@QAE?AV?$_Vector_iterator@V?$_Vector_val@USpotPoint@MiniMap@@V?$allocator@USpotPoint@MiniMap@@@std@@@std@@@2@V?$_Vector_const_iterator@V?$_Vector_val@USpotPoint@MiniMap@@V?$allocator@USpotPoint@MiniMap@@@std@@@std@@@2@0@Z ; std::vector<MiniMap::SpotPoint,std::allocator<MiniMap::SpotPoint> >::erase

; 266  : }

  0001d	c9		 leave
  0001e	c3		 ret	 0
?ClearPointList@MiniMap@@QAEXXZ ENDP			; MiniMap::ClearPointList
_TEXT	ENDS
PUBLIC	?_Reserve@?$vector@USpotPoint@MiniMap@@V?$allocator@USpotPoint@MiniMap@@@std@@@std@@IAEXI@Z ; std::vector<MiniMap::SpotPoint,std::allocator<MiniMap::SpotPoint> >::_Reserve
; Function compile flags: /Ogsp
; File c:\program files (x86)\microsoft visual studio 10.0\vc\include\vector
;	COMDAT ?_Reserve@?$vector@USpotPoint@MiniMap@@V?$allocator@USpotPoint@MiniMap@@@std@@@std@@IAEXI@Z
_TEXT	SEGMENT
__Count$ = 8						; size = 4
?_Reserve@?$vector@USpotPoint@MiniMap@@V?$allocator@USpotPoint@MiniMap@@@std@@@std@@IAEXI@Z PROC ; std::vector<MiniMap::SpotPoint,std::allocator<MiniMap::SpotPoint> >::_Reserve, COMDAT
; _this$ = ecx

; 1290 : 		{	// ensure room for _Count new elements, grow exponentially

  00000	55		 push	 ebp
  00001	8b ec		 mov	 ebp, esp
  00003	56		 push	 esi
  00004	8b f1		 mov	 esi, ecx

; 1291 : 		size_type _Size = size();

  00006	8b 0e		 mov	 ecx, DWORD PTR [esi]
  00008	8b 46 04	 mov	 eax, DWORD PTR [esi+4]
  0000b	2b c1		 sub	 eax, ecx
  0000d	57		 push	 edi
  0000e	99		 cdq
  0000f	6a 14		 push	 20			; 00000014H
  00011	5f		 pop	 edi
  00012	f7 ff		 idiv	 edi
  00014	8b f8		 mov	 edi, eax

; 1292 : 		if (max_size() - _Count < _Size)

  00016	b8 cc cc cc 0c	 mov	 eax, 214748364		; 0cccccccH
  0001b	2b 45 08	 sub	 eax, DWORD PTR __Count$[ebp]
  0001e	3b c7		 cmp	 eax, edi
  00020	73 0b		 jae	 SHORT $LN4@Reserve

; 1293 : 			_Xlen();

  00022	68 00 00 00 00	 push	 OFFSET ??_C@_0BD@OLBABOEK@vector?$DMT?$DO?5too?5long?$AA@
  00027	ff 15 00 00 00
	00		 call	 DWORD PTR __imp_?_Xlength_error@std@@YAXPBD@Z
$LN21@Reserve:
$LN4@Reserve:

; 1294 : 		else if ((_Size += _Count) <= capacity())

  0002d	8b 46 08	 mov	 eax, DWORD PTR [esi+8]
  00030	2b c1		 sub	 eax, ecx
  00032	6a 14		 push	 20			; 00000014H
  00034	99		 cdq
  00035	59		 pop	 ecx
  00036	f7 f9		 idiv	 ecx
  00038	03 7d 08	 add	 edi, DWORD PTR __Count$[ebp]
  0003b	3b f8		 cmp	 edi, eax
  0003d	76 10		 jbe	 SHORT $LN1@Reserve

; 1295 : 			;
; 1296 : 		else
; 1297 : 			reserve(_Grow_to(_Size));

  0003f	57		 push	 edi
  00040	8b ce		 mov	 ecx, esi
  00042	e8 00 00 00 00	 call	 ?_Grow_to@?$vector@USpotPoint@MiniMap@@V?$allocator@USpotPoint@MiniMap@@@std@@@std@@IBEII@Z ; std::vector<MiniMap::SpotPoint,std::allocator<MiniMap::SpotPoint> >::_Grow_to
  00047	50		 push	 eax
  00048	8b ce		 mov	 ecx, esi
  0004a	e8 00 00 00 00	 call	 ?reserve@?$vector@USpotPoint@MiniMap@@V?$allocator@USpotPoint@MiniMap@@@std@@@std@@QAEXI@Z ; std::vector<MiniMap::SpotPoint,std::allocator<MiniMap::SpotPoint> >::reserve
$LN1@Reserve:
  0004f	5f		 pop	 edi
  00050	5e		 pop	 esi

; 1298 : 		}

  00051	5d		 pop	 ebp
  00052	c2 04 00	 ret	 4
$LN20@Reserve:
?_Reserve@?$vector@USpotPoint@MiniMap@@V?$allocator@USpotPoint@MiniMap@@@std@@@std@@IAEXI@Z ENDP ; std::vector<MiniMap::SpotPoint,std::allocator<MiniMap::SpotPoint> >::_Reserve
; Function compile flags: /Ogsp
_TEXT	ENDS
;	COMDAT ??_GMiniMap@@UAEPAXI@Z
_TEXT	SEGMENT
___flags$ = 8						; size = 4
??_GMiniMap@@UAEPAXI@Z PROC				; MiniMap::`scalar deleting destructor', COMDAT
; _this$ = ecx
  00000	55		 push	 ebp
  00001	8b ec		 mov	 ebp, esp
  00003	56		 push	 esi
  00004	8b f1		 mov	 esi, ecx
  00006	e8 00 00 00 00	 call	 ??1MiniMap@@UAE@XZ	; MiniMap::~MiniMap
  0000b	f6 45 08 01	 test	 BYTE PTR ___flags$[ebp], 1
  0000f	74 07		 je	 SHORT $LN1@scalar@2
  00011	56		 push	 esi
  00012	e8 00 00 00 00	 call	 ??3@YAXPAX@Z		; operator delete
  00017	59		 pop	 ecx
$LN1@scalar@2:
  00018	8b c6		 mov	 eax, esi
  0001a	5e		 pop	 esi
  0001b	5d		 pop	 ebp
  0001c	c2 04 00	 ret	 4
??_GMiniMap@@UAEPAXI@Z ENDP				; MiniMap::`scalar deleting destructor'
_TEXT	ENDS
PUBLIC	?push_back@?$vector@USpotPoint@MiniMap@@V?$allocator@USpotPoint@MiniMap@@@std@@@std@@QAEXABUSpotPoint@MiniMap@@@Z ; std::vector<MiniMap::SpotPoint,std::allocator<MiniMap::SpotPoint> >::push_back
; Function compile flags: /Ogsp
;	COMDAT ?push_back@?$vector@USpotPoint@MiniMap@@V?$allocator@USpotPoint@MiniMap@@@std@@@std@@QAEXABUSpotPoint@MiniMap@@@Z
_TEXT	SEGMENT
__Val$ = 8						; size = 4
?push_back@?$vector@USpotPoint@MiniMap@@V?$allocator@USpotPoint@MiniMap@@@std@@@std@@QAEXABUSpotPoint@MiniMap@@@Z PROC ; std::vector<MiniMap::SpotPoint,std::allocator<MiniMap::SpotPoint> >::push_back, COMDAT
; _this$ = ecx

; 976  : 		{	// insert element at end

  00000	55		 push	 ebp
  00001	8b ec		 mov	 ebp, esp
  00003	56		 push	 esi
  00004	8b f1		 mov	 esi, ecx

; 977  : 		if (_Inside(_STD addressof(_Val)))

  00006	8b 4e 04	 mov	 ecx, DWORD PTR [esi+4]
  00009	57		 push	 edi
  0000a	8b 7d 08	 mov	 edi, DWORD PTR __Val$[ebp]
  0000d	3b f9		 cmp	 edi, ecx
  0000f	73 34		 jae	 SHORT $LN4@push_back
  00011	8b 16		 mov	 edx, DWORD PTR [esi]
  00013	3b d7		 cmp	 edx, edi
  00015	77 2e		 ja	 SHORT $LN4@push_back

; 978  : 			{	// push back an element
; 979  : 			size_type _Idx = _STD addressof(_Val) - this->_Myfirst;

  00017	8b c7		 mov	 eax, edi
  00019	2b c2		 sub	 eax, edx
  0001b	6a 14		 push	 20			; 00000014H
  0001d	99		 cdq
  0001e	5f		 pop	 edi
  0001f	f7 ff		 idiv	 edi
  00021	8b f8		 mov	 edi, eax

; 980  : 			if (this->_Mylast == this->_Myend)

  00023	3b 4e 08	 cmp	 ecx, DWORD PTR [esi+8]
  00026	75 09		 jne	 SHORT $LN3@push_back

; 981  : 				_Reserve(1);

  00028	6a 01		 push	 1
  0002a	8b ce		 mov	 ecx, esi
  0002c	e8 00 00 00 00	 call	 ?_Reserve@?$vector@USpotPoint@MiniMap@@V?$allocator@USpotPoint@MiniMap@@@std@@@std@@IAEXI@Z ; std::vector<MiniMap::SpotPoint,std::allocator<MiniMap::SpotPoint> >::_Reserve
$LN3@push_back:

; 982  : 			_Orphan_range(this->_Mylast, this->_Mylast);
; 983  : 			_Cons_val(this->_Alval,
; 984  : 				this->_Mylast,
; 985  : 				this->_Myfirst[_Idx]);

  00031	6b ff 14	 imul	 edi, 20			; 00000014H
  00034	03 3e		 add	 edi, DWORD PTR [esi]
  00036	8d 46 0c	 lea	 eax, DWORD PTR [esi+12]
  00039	57		 push	 edi
  0003a	ff 76 04	 push	 DWORD PTR [esi+4]
  0003d	50		 push	 eax
  0003e	e8 00 00 00 00	 call	 ??$_Cons_val@V?$allocator@USpotPoint@MiniMap@@@std@@USpotPoint@MiniMap@@AAU34@@std@@YAXAAV?$allocator@USpotPoint@MiniMap@@@0@PAUSpotPoint@MiniMap@@AAU23@@Z ; std::_Cons_val<std::allocator<MiniMap::SpotPoint>,MiniMap::SpotPoint,MiniMap::SpotPoint &>

; 986  : 			++this->_Mylast;
; 987  : 			}
; 988  : 		else

  00043	eb 1b		 jmp	 SHORT $LN20@push_back
$LN4@push_back:

; 989  : 			{	// push back a non-element
; 990  : 			if (this->_Mylast == this->_Myend)

  00045	3b 4e 08	 cmp	 ecx, DWORD PTR [esi+8]
  00048	75 09		 jne	 SHORT $LN1@push_back

; 991  : 				_Reserve(1);

  0004a	6a 01		 push	 1
  0004c	8b ce		 mov	 ecx, esi
  0004e	e8 00 00 00 00	 call	 ?_Reserve@?$vector@USpotPoint@MiniMap@@V?$allocator@USpotPoint@MiniMap@@@std@@@std@@IAEXI@Z ; std::vector<MiniMap::SpotPoint,std::allocator<MiniMap::SpotPoint> >::_Reserve
$LN1@push_back:

; 992  : 			_Orphan_range(this->_Mylast, this->_Mylast);
; 993  : 			_Cons_val(this->_Alval,
; 994  : 				this->_Mylast,
; 995  : 				_Val);

  00053	57		 push	 edi
  00054	ff 76 04	 push	 DWORD PTR [esi+4]
  00057	8d 46 0c	 lea	 eax, DWORD PTR [esi+12]
  0005a	50		 push	 eax
  0005b	e8 00 00 00 00	 call	 ??$_Cons_val@V?$allocator@USpotPoint@MiniMap@@@std@@USpotPoint@MiniMap@@ABU34@@std@@YAXAAV?$allocator@USpotPoint@MiniMap@@@0@PAUSpotPoint@MiniMap@@ABU23@@Z ; std::_Cons_val<std::allocator<MiniMap::SpotPoint>,MiniMap::SpotPoint,MiniMap::SpotPoint const &>
$LN20@push_back:
  00060	83 c4 0c	 add	 esp, 12			; 0000000cH

; 996  : 			++this->_Mylast;

  00063	83 46 04 14	 add	 DWORD PTR [esi+4], 20	; 00000014H
  00067	5f		 pop	 edi
  00068	5e		 pop	 esi

; 997  : 			}
; 998  : 		}

  00069	5d		 pop	 ebp
  0006a	c2 04 00	 ret	 4
?push_back@?$vector@USpotPoint@MiniMap@@V?$allocator@USpotPoint@MiniMap@@@std@@@std@@QAEXABUSpotPoint@MiniMap@@@Z ENDP ; std::vector<MiniMap::SpotPoint,std::allocator<MiniMap::SpotPoint> >::push_back
_TEXT	ENDS
PUBLIC	__$ArrayPad$
PUBLIC	?AddPoint@MiniMap@@QAEXMMW4SpotType@1@W4TeamType@@K@Z ; MiniMap::AddPoint
; Function compile flags: /Ogsp
; File d:\lost saga for developer\youtube\tutorial\source\src\lsclient\gui\minimap.cpp
;	COMDAT ?AddPoint@MiniMap@@QAEXMMW4SpotType@1@W4TeamType@@K@Z
_TEXT	SEGMENT
_kNewPoint$ = -24					; size = 20
__$ArrayPad$ = -4					; size = 4
_fXPos$ = 8						; size = 4
_fZPos$ = 12						; size = 4
_eSpot$ = 16						; size = 4
_eTeam$ = 20						; size = 4
_dwGapTime$ = 24					; size = 4
?AddPoint@MiniMap@@QAEXMMW4SpotType@1@W4TeamType@@K@Z PROC ; MiniMap::AddPoint, COMDAT
; _this$ = ecx

; 238  : {

  00000	55		 push	 ebp
  00001	8b ec		 mov	 ebp, esp
  00003	83 ec 18	 sub	 esp, 24			; 00000018H
  00006	a1 00 00 00 00	 mov	 eax, DWORD PTR ___security_cookie
  0000b	33 c5		 xor	 eax, ebp
  0000d	89 45 fc	 mov	 DWORD PTR __$ArrayPad$[ebp], eax
  00010	56		 push	 esi
  00011	8b f1		 mov	 esi, ecx

; 239  : 	if( !m_pMiniMap )	return;

  00013	83 be cc 01 00
	00 00		 cmp	 DWORD PTR [esi+460], 0
  0001a	74 50		 je	 SHORT $LN2@AddPoint

; 240  : 
; 241  : 	SpotPoint kNewPoint;
; 242  : 	kNewPoint.m_Type = eSpot;

  0001c	8b 45 10	 mov	 eax, DWORD PTR _eSpot$[ebp]

; 243  : 	kNewPoint.m_eTeamType = eTeam;
; 244  : 	kNewPoint.m_iXOffset  = GetPointOffsetX( fXPos );

  0001f	f3 0f 10 45 08	 movss	 xmm0, DWORD PTR _fXPos$[ebp]
  00024	89 45 e8	 mov	 DWORD PTR _kNewPoint$[ebp], eax
  00027	8b 45 14	 mov	 eax, DWORD PTR _eTeam$[ebp]
  0002a	51		 push	 ecx
  0002b	89 45 f4	 mov	 DWORD PTR _kNewPoint$[ebp+12], eax
  0002e	f3 0f 11 04 24	 movss	 DWORD PTR [esp], xmm0
  00033	e8 00 00 00 00	 call	 ?GetPointOffsetX@MiniMap@@IAEHM@Z ; MiniMap::GetPointOffsetX

; 245  : 	kNewPoint.m_iYOffset  = GetPointOffsetY( fZPos );

  00038	f3 0f 10 45 0c	 movss	 xmm0, DWORD PTR _fZPos$[ebp]
  0003d	51		 push	 ecx
  0003e	8b ce		 mov	 ecx, esi
  00040	89 45 ec	 mov	 DWORD PTR _kNewPoint$[ebp+4], eax
  00043	f3 0f 11 04 24	 movss	 DWORD PTR [esp], xmm0
  00048	e8 00 00 00 00	 call	 ?GetPointOffsetY@MiniMap@@IAEHM@Z ; MiniMap::GetPointOffsetY

; 246  : 	kNewPoint.m_bRender = CheckEnableRenderPoint( dwGapTime );

  0004d	ff 75 18	 push	 DWORD PTR _dwGapTime$[ebp]
  00050	8b ce		 mov	 ecx, esi
  00052	89 45 f0	 mov	 DWORD PTR _kNewPoint$[ebp+8], eax
  00055	e8 00 00 00 00	 call	 ?CheckEnableRenderPoint@MiniMap@@IAE_NK@Z ; MiniMap::CheckEnableRenderPoint
  0005a	88 45 f8	 mov	 BYTE PTR _kNewPoint$[ebp+16], al

; 247  : 
; 248  : 	m_SpotPointList.push_back( kNewPoint );	

  0005d	8d 45 e8	 lea	 eax, DWORD PTR _kNewPoint$[ebp]
  00060	50		 push	 eax
  00061	8d 8e 90 01 00
	00		 lea	 ecx, DWORD PTR [esi+400]
  00067	e8 00 00 00 00	 call	 ?push_back@?$vector@USpotPoint@MiniMap@@V?$allocator@USpotPoint@MiniMap@@@std@@@std@@QAEXABUSpotPoint@MiniMap@@@Z ; std::vector<MiniMap::SpotPoint,std::allocator<MiniMap::SpotPoint> >::push_back
$LN2@AddPoint:

; 249  : }

  0006c	8b 4d fc	 mov	 ecx, DWORD PTR __$ArrayPad$[ebp]
  0006f	33 cd		 xor	 ecx, ebp
  00071	5e		 pop	 esi
  00072	e8 00 00 00 00	 call	 @__security_check_cookie@4
  00077	c9		 leave
  00078	c2 14 00	 ret	 20			; 00000014H
?AddPoint@MiniMap@@QAEXMMW4SpotType@1@W4TeamType@@K@Z ENDP ; MiniMap::AddPoint
_TEXT	ENDS
END
