; Listing generated by Microsoft (R) Optimizing Compiler Version 16.00.30319.01 

	TITLE	D:\Lost Saga For Developer\Youtube\Tutorial\Source\src\LSClient\GUI\ModeMapSelectList.cpp
	.686P
	.XMM
	include listing.inc
	.model	flat

INCLUDELIB MSVCRT
INCLUDELIB OLDNAMES

PUBLIC	??0SelectList@ModeMapSelectList@@QAE@XZ		; ModeMapSelectList::SelectList::SelectList
EXTRN	__imp_??0ioHashString@@QAE@XZ:PROC
; Function compile flags: /Ogsp
; File d:\lost saga for developer\youtube\tutorial\source\src\lsclient\gui\modemapselectlist.h
;	COMDAT ??0SelectList@ModeMapSelectList@@QAE@XZ
_TEXT	SEGMENT
??0SelectList@ModeMapSelectList@@QAE@XZ PROC		; ModeMapSelectList::SelectList::SelectList, COMDAT
; _this$ = ecx

; 54   : 		SelectList()

  00000	56		 push	 esi
  00001	8b f1		 mov	 esi, ecx
  00003	8d 4e 10	 lea	 ecx, DWORD PTR [esi+16]
  00006	ff 15 00 00 00
	00		 call	 DWORD PTR __imp_??0ioHashString@@QAE@XZ

; 55   : 		{
; 56   : 			m_iIndex = -1;

  0000c	83 0e ff	 or	 DWORD PTR [esi], -1

; 57   : 			m_iHelpIndex = -1;

  0000f	83 4e 04 ff	 or	 DWORD PTR [esi+4], -1

; 58   : 			m_iManualIndex = -1;

  00013	83 4e 08 ff	 or	 DWORD PTR [esi+8], -1

; 59   : 			m_bCheck = false;

  00017	33 c0		 xor	 eax, eax
  00019	66 89 46 0c	 mov	 WORD PTR [esi+12], ax

; 60   : 			m_bSafetyLevelRoom = false;
; 61   : 			m_pMarkRes = NULL;

  0001d	89 46 20	 mov	 DWORD PTR [esi+32], eax

; 62   : 		}

  00020	8b c6		 mov	 eax, esi
  00022	5e		 pop	 esi
  00023	c3		 ret	 0
??0SelectList@ModeMapSelectList@@QAE@XZ ENDP		; ModeMapSelectList::SelectList::SelectList
_TEXT	ENDS
PUBLIC	??0SelectList@CreateModeSelectList@@QAE@XZ	; CreateModeSelectList::SelectList::SelectList
; Function compile flags: /Ogsp
;	COMDAT ??0SelectList@CreateModeSelectList@@QAE@XZ
_TEXT	SEGMENT
??0SelectList@CreateModeSelectList@@QAE@XZ PROC		; CreateModeSelectList::SelectList::SelectList, COMDAT
; _this$ = ecx

; 136  : 		SelectList()

  00000	56		 push	 esi
  00001	8b f1		 mov	 esi, ecx
  00003	8d 4e 0c	 lea	 ecx, DWORD PTR [esi+12]
  00006	ff 15 00 00 00
	00		 call	 DWORD PTR __imp_??0ioHashString@@QAE@XZ

; 137  : 		{
; 138  : 			m_iIndex = -1;

  0000c	83 0e ff	 or	 DWORD PTR [esi], -1

; 139  : 			m_iHelpIndex = m_iManualIndex = -1;

  0000f	83 4e 08 ff	 or	 DWORD PTR [esi+8], -1
  00013	83 4e 04 ff	 or	 DWORD PTR [esi+4], -1

; 140  : 			m_pMarkRes = NULL;

  00017	83 66 1c 00	 and	 DWORD PTR [esi+28], 0

; 141  : 		}

  0001b	8b c6		 mov	 eax, esi
  0001d	5e		 pop	 esi
  0001e	c3		 ret	 0
??0SelectList@CreateModeSelectList@@QAE@XZ ENDP		; CreateModeSelectList::SelectList::SelectList
_TEXT	ENDS
PUBLIC	?iwm_show@ModeMapSelectList@@UAEXXZ		; ModeMapSelectList::iwm_show
EXTRN	__imp_?SetCheckParentOutSide@ioWnd@@QAEX_N@Z:PROC
; Function compile flags: /Ogsp
; File d:\lost saga for developer\youtube\tutorial\source\src\lsclient\gui\modemapselectlist.cpp
;	COMDAT ?iwm_show@ModeMapSelectList@@UAEXXZ
_TEXT	SEGMENT
?iwm_show@ModeMapSelectList@@UAEXXZ PROC		; ModeMapSelectList::iwm_show, COMDAT
; _this$ = ecx

; 109  : 	SetCheckParentOutSide( true );

  00000	6a 01		 push	 1
  00002	ff 15 00 00 00
	00		 call	 DWORD PTR __imp_?SetCheckParentOutSide@ioWnd@@QAEX_N@Z

; 110  : }

  00008	c3		 ret	 0
?iwm_show@ModeMapSelectList@@UAEXXZ ENDP		; ModeMapSelectList::iwm_show
_TEXT	ENDS
PUBLIC	??_C@_00CNPNBAHC@?$AA@				; `string'
PUBLIC	??_R0?AVioWnd@@@8				; ioWnd `RTTI Type Descriptor'
PUBLIC	??_R0?AVModeHelpTooltip@@@8			; ModeHelpTooltip `RTTI Type Descriptor'
PUBLIC	?iwm_hide@ModeMapSelectList@@UAEXXZ		; ModeMapSelectList::iwm_hide
EXTRN	__imp_??1ioHashString@@QAE@XZ:PROC
EXTRN	?SetModeHelpTooltip@ModeHelpTooltip@@QAEXPAVioWnd@@ABVioHashString@@H@Z:PROC ; ModeHelpTooltip::SetModeHelpTooltip
EXTRN	__imp_??0ioHashString@@QAE@PBD@Z:PROC
EXTRN	___CxxFrameHandler3:PROC
EXTRN	@__security_check_cookie@4:PROC
EXTRN	__EH_epilog3:PROC
EXTRN	__EH_prolog3:PROC
EXTRN	___RTDynamicCast:PROC
EXTRN	??_7type_info@@6B@:QWORD			; type_info::`vftable'
;	COMDAT ??_C@_00CNPNBAHC@?$AA@
CONST	SEGMENT
??_C@_00CNPNBAHC@?$AA@ DB 00H				; `string'
CONST	ENDS
;	COMDAT ??_R0?AVioWnd@@@8
_DATA	SEGMENT
??_R0?AVioWnd@@@8 DD FLAT:??_7type_info@@6B@		; ioWnd `RTTI Type Descriptor'
	DD	00H
	DB	'.?AVioWnd@@', 00H
_DATA	ENDS
;	COMDAT ??_R0?AVModeHelpTooltip@@@8
_DATA	SEGMENT
??_R0?AVModeHelpTooltip@@@8 DD FLAT:??_7type_info@@6B@	; ModeHelpTooltip `RTTI Type Descriptor'
	DD	00H
	DB	'.?AVModeHelpTooltip@@', 00H
_DATA	ENDS
;	COMDAT xdata$x
xdata$x	SEGMENT
__unwindtable$?iwm_hide@ModeMapSelectList@@UAEXXZ DD 0ffffffffH
	DD	FLAT:__unwindfunclet$?iwm_hide@ModeMapSelectList@@UAEXXZ$0
__ehfuncinfo$?iwm_hide@ModeMapSelectList@@UAEXXZ DD 019930522H
	DD	01H
	DD	FLAT:__unwindtable$?iwm_hide@ModeMapSelectList@@UAEXXZ
	DD	2 DUP(00H)
	DD	2 DUP(00H)
	DD	00H
	DD	01H
; Function compile flags: /Ogsp
xdata$x	ENDS
;	COMDAT ?iwm_hide@ModeMapSelectList@@UAEXXZ
_TEXT	SEGMENT
$T513638 = -28						; size = 16
__$EHRec$ = -12						; size = 12
?iwm_hide@ModeMapSelectList@@UAEXXZ PROC		; ModeMapSelectList::iwm_hide, COMDAT
; _this$ = ecx

; 113  : {

  00000	6a 10		 push	 16			; 00000010H
  00002	b8 00 00 00 00	 mov	 eax, __ehhandler$?iwm_hide@ModeMapSelectList@@UAEXXZ
  00007	e8 00 00 00 00	 call	 __EH_prolog3
  0000c	8b f1		 mov	 esi, ecx

; 114  : 	SetCheckParentOutSide( false );

  0000e	33 ff		 xor	 edi, edi
  00010	57		 push	 edi
  00011	ff 15 00 00 00
	00		 call	 DWORD PTR __imp_?SetCheckParentOutSide@ioWnd@@QAEX_N@Z

; 115  : 
; 116  : 	ModeHelpTooltip *pModeHelpTooltip = dynamic_cast< ModeHelpTooltip * >( m_pModeHelpTooltip );	

  00017	57		 push	 edi
  00018	68 00 00 00 00	 push	 OFFSET ??_R0?AVModeHelpTooltip@@@8
  0001d	68 00 00 00 00	 push	 OFFSET ??_R0?AVioWnd@@@8
  00022	57		 push	 edi
  00023	ff b6 cc 01 00
	00		 push	 DWORD PTR [esi+460]
  00029	e8 00 00 00 00	 call	 ___RTDynamicCast
  0002e	8b f0		 mov	 esi, eax
  00030	83 c4 14	 add	 esp, 20			; 00000014H

; 117  : 	if( pModeHelpTooltip )

  00033	3b f7		 cmp	 esi, edi
  00035	74 2c		 je	 SHORT $LN1@iwm_hide

; 118  : 	{
; 119  : 		pModeHelpTooltip->SetModeHelpTooltip( NULL, "", -1 );

  00037	68 00 00 00 00	 push	 OFFSET ??_C@_00CNPNBAHC@?$AA@
  0003c	8d 4d e4	 lea	 ecx, DWORD PTR $T513638[ebp]
  0003f	ff 15 00 00 00
	00		 call	 DWORD PTR __imp_??0ioHashString@@QAE@PBD@Z
  00045	6a ff		 push	 -1
  00047	8d 45 e4	 lea	 eax, DWORD PTR $T513638[ebp]
  0004a	50		 push	 eax
  0004b	57		 push	 edi
  0004c	8b ce		 mov	 ecx, esi
  0004e	89 7d fc	 mov	 DWORD PTR __$EHRec$[ebp+8], edi
  00051	e8 00 00 00 00	 call	 ?SetModeHelpTooltip@ModeHelpTooltip@@QAEXPAVioWnd@@ABVioHashString@@H@Z ; ModeHelpTooltip::SetModeHelpTooltip
  00056	83 4d fc ff	 or	 DWORD PTR __$EHRec$[ebp+8], -1
  0005a	8d 4d e4	 lea	 ecx, DWORD PTR $T513638[ebp]
  0005d	ff 15 00 00 00
	00		 call	 DWORD PTR __imp_??1ioHashString@@QAE@XZ
$LN1@iwm_hide:

; 120  : 	}	
; 121  : }

  00063	e8 00 00 00 00	 call	 __EH_epilog3
  00068	c3		 ret	 0
_TEXT	ENDS
;	COMDAT text$x
text$x	SEGMENT
__unwindfunclet$?iwm_hide@ModeMapSelectList@@UAEXXZ$0:
  00000	8d 4d e4	 lea	 ecx, DWORD PTR $T513638[ebp]
  00003	ff 25 00 00 00
	00		 jmp	 DWORD PTR __imp_??1ioHashString@@QAE@XZ
__ehhandler$?iwm_hide@ModeMapSelectList@@UAEXXZ:
  00009	8b 54 24 08	 mov	 edx, DWORD PTR [esp+8]
  0000d	8d 42 0c	 lea	 eax, DWORD PTR [edx+12]
  00010	8b 4a e0	 mov	 ecx, DWORD PTR [edx-32]
  00013	33 c8		 xor	 ecx, eax
  00015	e8 00 00 00 00	 call	 @__security_check_cookie@4
  0001a	b8 00 00 00 00	 mov	 eax, OFFSET __ehfuncinfo$?iwm_hide@ModeMapSelectList@@UAEXXZ
  0001f	e9 00 00 00 00	 jmp	 ___CxxFrameHandler3
text$x	ENDS
?iwm_hide@ModeMapSelectList@@UAEXXZ ENDP		; ModeMapSelectList::iwm_hide
PUBLIC	?iwm_wheel@ModeMapSelectList@@UAEXH@Z		; ModeMapSelectList::iwm_wheel
EXTRN	__imp_?FindChildWnd@ioWnd@@QAEPAV1@K@Z:PROC
EXTRN	?IsMouseBusy@ioApplication@@QAE_NXZ:PROC	; ioApplication::IsMouseBusy
EXTRN	?GetSingleton@ioApplication@@SAAAV1@XZ:PROC	; ioApplication::GetSingleton
EXTRN	__imp_?iwm_wheel@ioWnd@@UAEXH@Z:PROC
EXTRN	__imp_?IsShow@ioWnd@@QBE_NXZ:PROC
; Function compile flags: /Ogsp
;	COMDAT ?iwm_wheel@ModeMapSelectList@@UAEXH@Z
_TEXT	SEGMENT
_zDelta$ = 8						; size = 4
?iwm_wheel@ModeMapSelectList@@UAEXH@Z PROC		; ModeMapSelectList::iwm_wheel, COMDAT
; _this$ = ecx

; 124  : {

  00000	55		 push	 ebp
  00001	8b ec		 mov	 ebp, esp
  00003	57		 push	 edi
  00004	8b f9		 mov	 edi, ecx

; 125  : 	if( !IsShow() )

  00006	ff 15 00 00 00
	00		 call	 DWORD PTR __imp_?IsShow@ioWnd@@QBE_NXZ
  0000c	84 c0		 test	 al, al
  0000e	75 0d		 jne	 SHORT $LN8@iwm_wheel

; 126  : 		ioWnd::iwm_wheel( zDelta );

  00010	ff 75 08	 push	 DWORD PTR _zDelta$[ebp]
  00013	8b cf		 mov	 ecx, edi
  00015	ff 15 00 00 00
	00		 call	 DWORD PTR __imp_?iwm_wheel@ioWnd@@UAEXH@Z

; 127  : 	else

  0001b	eb 58		 jmp	 SHORT $LN1@iwm_wheel
$LN8@iwm_wheel:

; 128  : 	{
; 129  : 		if( g_App.IsMouseBusy() ) return;

  0001d	e8 00 00 00 00	 call	 ?GetSingleton@ioApplication@@SAAAV1@XZ ; ioApplication::GetSingleton
  00022	8b c8		 mov	 ecx, eax
  00024	e8 00 00 00 00	 call	 ?IsMouseBusy@ioApplication@@QAE_NXZ ; ioApplication::IsMouseBusy
  00029	84 c0		 test	 al, al
  0002b	75 48		 jne	 SHORT $LN1@iwm_wheel

; 130  : 
; 131  : 		ioScroll *pScroll = (ioScroll*)FindChildWnd( ID_VERT_SCROLL );

  0002d	56		 push	 esi
  0002e	68 e8 03 00 00	 push	 1000			; 000003e8H
  00033	8b cf		 mov	 ecx, edi
  00035	ff 15 00 00 00
	00		 call	 DWORD PTR __imp_?FindChildWnd@ioWnd@@QAEPAV1@K@Z
  0003b	8b f0		 mov	 esi, eax

; 132  : 		if( pScroll == NULL ) return;

  0003d	85 f6		 test	 esi, esi
  0003f	74 33		 je	 SHORT $LN11@iwm_wheel

; 133  : 		if( !pScroll->IsShow() ) return;

  00041	8b ce		 mov	 ecx, esi
  00043	ff 15 00 00 00
	00		 call	 DWORD PTR __imp_?IsShow@ioWnd@@QBE_NXZ
  00049	84 c0		 test	 al, al
  0004b	74 27		 je	 SHORT $LN11@iwm_wheel

; 134  : 
; 135  : 		if( zDelta == WHEEL_DELTA )

  0004d	83 7d 08 78	 cmp	 DWORD PTR _zDelta$[ebp], 120 ; 00000078H
  00051	75 09		 jne	 SHORT $LN3@iwm_wheel

; 136  : 			pScroll->SetScrollPos( m_iCurPos - 1 );

  00053	8b 8f a0 01 00
	00		 mov	 ecx, DWORD PTR [edi+416]
  00059	49		 dec	 ecx
  0005a	eb 0d		 jmp	 SHORT $LN12@iwm_wheel
$LN3@iwm_wheel:

; 137  : 		else if( zDelta == -WHEEL_DELTA )

  0005c	83 7d 08 88	 cmp	 DWORD PTR _zDelta$[ebp], -120 ; ffffff88H
  00060	75 12		 jne	 SHORT $LN11@iwm_wheel

; 138  : 			pScroll->SetScrollPos( m_iCurPos + 1 );

  00062	8b 8f a0 01 00
	00		 mov	 ecx, DWORD PTR [edi+416]
  00068	41		 inc	 ecx
$LN12@iwm_wheel:
  00069	8b 06		 mov	 eax, DWORD PTR [esi]
  0006b	51		 push	 ecx
  0006c	8b ce		 mov	 ecx, esi
  0006e	ff 90 38 01 00
	00		 call	 DWORD PTR [eax+312]
$LN11@iwm_wheel:
  00074	5e		 pop	 esi
$LN1@iwm_wheel:
  00075	5f		 pop	 edi

; 139  : 	}
; 140  : }

  00076	5d		 pop	 ebp
  00077	c2 04 00	 ret	 4
?iwm_wheel@ModeMapSelectList@@UAEXH@Z ENDP		; ModeMapSelectList::iwm_wheel
_TEXT	ENDS
PUBLIC	?iwm_vscroll@ModeMapSelectList@@UAEXKH@Z	; ModeMapSelectList::iwm_vscroll
; Function compile flags: /Ogsp
;	COMDAT ?iwm_vscroll@ModeMapSelectList@@UAEXKH@Z
_TEXT	SEGMENT
_dwID$ = 8						; size = 4
_curPos$ = 12						; size = 4
?iwm_vscroll@ModeMapSelectList@@UAEXKH@Z PROC		; ModeMapSelectList::iwm_vscroll, COMDAT
; _this$ = ecx

; 143  : {

  00000	55		 push	 ebp
  00001	8b ec		 mov	 ebp, esp
  00003	56		 push	 esi

; 144  : 	ioScroll *pScroll = (ioScroll*)FindChildWnd( ID_VERT_SCROLL );

  00004	68 e8 03 00 00	 push	 1000			; 000003e8H
  00009	8b f1		 mov	 esi, ecx
  0000b	ff 15 00 00 00
	00		 call	 DWORD PTR __imp_?FindChildWnd@ioWnd@@QAEPAV1@K@Z

; 145  : 	if( pScroll == NULL ) return;

  00011	85 c0		 test	 eax, eax
  00013	74 15		 je	 SHORT $LN3@iwm_vscrol

; 146  : 	if( !pScroll->IsShow() ) return;

  00015	8b c8		 mov	 ecx, eax
  00017	ff 15 00 00 00
	00		 call	 DWORD PTR __imp_?IsShow@ioWnd@@QBE_NXZ
  0001d	84 c0		 test	 al, al
  0001f	74 09		 je	 SHORT $LN3@iwm_vscrol

; 147  : 
; 148  : 	m_iCurPos = curPos;

  00021	8b 45 0c	 mov	 eax, DWORD PTR _curPos$[ebp]
  00024	89 86 a0 01 00
	00		 mov	 DWORD PTR [esi+416], eax
$LN3@iwm_vscrol:
  0002a	5e		 pop	 esi

; 149  : }

  0002b	5d		 pop	 ebp
  0002c	c2 08 00	 ret	 8
?iwm_vscroll@ModeMapSelectList@@UAEXKH@Z ENDP		; ModeMapSelectList::iwm_vscroll
_TEXT	ENDS
PUBLIC	??1SelectList@ModeMapSelectList@@QAE@XZ		; ModeMapSelectList::SelectList::~SelectList
; Function compile flags: /Ogsp
;	COMDAT ??1SelectList@ModeMapSelectList@@QAE@XZ
_TEXT	SEGMENT
??1SelectList@ModeMapSelectList@@QAE@XZ PROC		; ModeMapSelectList::SelectList::~SelectList, COMDAT
; _this$ = ecx
  00000	83 c1 10	 add	 ecx, 16			; 00000010H
  00003	ff 25 00 00 00
	00		 jmp	 DWORD PTR __imp_??1ioHashString@@QAE@XZ
??1SelectList@ModeMapSelectList@@QAE@XZ ENDP		; ModeMapSelectList::SelectList::~SelectList
_TEXT	ENDS
PUBLIC	??_7bad_alloc@std@@6B@				; std::bad_alloc::`vftable'
PUBLIC	??0bad_alloc@std@@QAE@PBD@Z			; std::bad_alloc::bad_alloc
PUBLIC	??_R4bad_alloc@std@@6B@				; std::bad_alloc::`RTTI Complete Object Locator'
PUBLIC	??_R0?AVbad_alloc@std@@@8			; std::bad_alloc `RTTI Type Descriptor'
PUBLIC	??_R3bad_alloc@std@@8				; std::bad_alloc::`RTTI Class Hierarchy Descriptor'
PUBLIC	??_R2bad_alloc@std@@8				; std::bad_alloc::`RTTI Base Class Array'
PUBLIC	??_R1A@?0A@EA@bad_alloc@std@@8			; std::bad_alloc::`RTTI Base Class Descriptor at (0,-1,0,64)'
PUBLIC	??_R1A@?0A@EA@exception@std@@8			; std::exception::`RTTI Base Class Descriptor at (0,-1,0,64)'
PUBLIC	??_R0?AVexception@std@@@8			; std::exception `RTTI Type Descriptor'
PUBLIC	??_R3exception@std@@8				; std::exception::`RTTI Class Hierarchy Descriptor'
PUBLIC	??_R2exception@std@@8				; std::exception::`RTTI Base Class Array'
EXTRN	__imp_??0exception@std@@QAE@ABQBD@Z:PROC
EXTRN	??_Ebad_alloc@std@@UAEPAXI@Z:PROC		; std::bad_alloc::`vector deleting destructor'
EXTRN	?what@exception@std@@UBEPBDXZ:PROC		; std::exception::what
;	COMDAT ??_R2exception@std@@8
; File c:\program files (x86)\microsoft visual studio 10.0\vc\include\exception
rdata$r	SEGMENT
??_R2exception@std@@8 DD FLAT:??_R1A@?0A@EA@exception@std@@8 ; std::exception::`RTTI Base Class Array'
rdata$r	ENDS
;	COMDAT ??_R3exception@std@@8
rdata$r	SEGMENT
??_R3exception@std@@8 DD 00H				; std::exception::`RTTI Class Hierarchy Descriptor'
	DD	00H
	DD	01H
	DD	FLAT:??_R2exception@std@@8
rdata$r	ENDS
;	COMDAT ??_R0?AVexception@std@@@8
_DATA	SEGMENT
??_R0?AVexception@std@@@8 DD FLAT:??_7type_info@@6B@	; std::exception `RTTI Type Descriptor'
	DD	00H
	DB	'.?AVexception@std@@', 00H
_DATA	ENDS
;	COMDAT ??_R1A@?0A@EA@exception@std@@8
rdata$r	SEGMENT
??_R1A@?0A@EA@exception@std@@8 DD FLAT:??_R0?AVexception@std@@@8 ; std::exception::`RTTI Base Class Descriptor at (0,-1,0,64)'
	DD	00H
	DD	00H
	DD	0ffffffffH
	DD	00H
	DD	040H
	DD	FLAT:??_R3exception@std@@8
rdata$r	ENDS
;	COMDAT ??_R1A@?0A@EA@bad_alloc@std@@8
rdata$r	SEGMENT
??_R1A@?0A@EA@bad_alloc@std@@8 DD FLAT:??_R0?AVbad_alloc@std@@@8 ; std::bad_alloc::`RTTI Base Class Descriptor at (0,-1,0,64)'
	DD	01H
	DD	00H
	DD	0ffffffffH
	DD	00H
	DD	040H
	DD	FLAT:??_R3bad_alloc@std@@8
rdata$r	ENDS
;	COMDAT ??_R2bad_alloc@std@@8
rdata$r	SEGMENT
??_R2bad_alloc@std@@8 DD FLAT:??_R1A@?0A@EA@bad_alloc@std@@8 ; std::bad_alloc::`RTTI Base Class Array'
	DD	FLAT:??_R1A@?0A@EA@exception@std@@8
rdata$r	ENDS
;	COMDAT ??_R3bad_alloc@std@@8
rdata$r	SEGMENT
??_R3bad_alloc@std@@8 DD 00H				; std::bad_alloc::`RTTI Class Hierarchy Descriptor'
	DD	00H
	DD	02H
	DD	FLAT:??_R2bad_alloc@std@@8
rdata$r	ENDS
;	COMDAT ??_R0?AVbad_alloc@std@@@8
_DATA	SEGMENT
??_R0?AVbad_alloc@std@@@8 DD FLAT:??_7type_info@@6B@	; std::bad_alloc `RTTI Type Descriptor'
	DD	00H
	DB	'.?AVbad_alloc@std@@', 00H
_DATA	ENDS
;	COMDAT ??_R4bad_alloc@std@@6B@
rdata$r	SEGMENT
??_R4bad_alloc@std@@6B@ DD 00H				; std::bad_alloc::`RTTI Complete Object Locator'
	DD	00H
	DD	00H
	DD	FLAT:??_R0?AVbad_alloc@std@@@8
	DD	FLAT:??_R3bad_alloc@std@@8
rdata$r	ENDS
;	COMDAT ??_7bad_alloc@std@@6B@
CONST	SEGMENT
??_7bad_alloc@std@@6B@ DD FLAT:??_R4bad_alloc@std@@6B@	; std::bad_alloc::`vftable'
	DD	FLAT:??_Ebad_alloc@std@@UAEPAXI@Z
	DD	FLAT:?what@exception@std@@UBEPBDXZ
; Function compile flags: /Ogsp
CONST	ENDS
;	COMDAT ??0bad_alloc@std@@QAE@PBD@Z
_TEXT	SEGMENT
__Message$ = 8						; size = 4
??0bad_alloc@std@@QAE@PBD@Z PROC			; std::bad_alloc::bad_alloc, COMDAT
; _this$ = ecx

; 345  : 		{	// construct from message string

  00000	55		 push	 ebp
  00001	8b ec		 mov	 ebp, esp
  00003	56		 push	 esi
  00004	8d 45 08	 lea	 eax, DWORD PTR __Message$[ebp]
  00007	50		 push	 eax
  00008	8b f1		 mov	 esi, ecx
  0000a	ff 15 00 00 00
	00		 call	 DWORD PTR __imp_??0exception@std@@QAE@ABQBD@Z
  00010	c7 06 00 00 00
	00		 mov	 DWORD PTR [esi], OFFSET ??_7bad_alloc@std@@6B@

; 346  : 		}

  00016	8b c6		 mov	 eax, esi
  00018	5e		 pop	 esi
  00019	5d		 pop	 ebp
  0001a	c2 04 00	 ret	 4
??0bad_alloc@std@@QAE@PBD@Z ENDP			; std::bad_alloc::bad_alloc
_TEXT	ENDS
PUBLIC	??1bad_alloc@std@@UAE@XZ			; std::bad_alloc::~bad_alloc
EXTRN	__imp_??1exception@std@@UAE@XZ:PROC
; Function compile flags: /Ogsp
;	COMDAT ??1bad_alloc@std@@UAE@XZ
_TEXT	SEGMENT
??1bad_alloc@std@@UAE@XZ PROC				; std::bad_alloc::~bad_alloc, COMDAT
; _this$ = ecx

; 354  : 		{	// destroy the object

  00000	c7 01 00 00 00
	00		 mov	 DWORD PTR [ecx], OFFSET ??_7bad_alloc@std@@6B@

; 355  : 		}

  00006	ff 25 00 00 00
	00		 jmp	 DWORD PTR __imp_??1exception@std@@UAE@XZ
??1bad_alloc@std@@UAE@XZ ENDP				; std::bad_alloc::~bad_alloc
_TEXT	ENDS
EXTRN	??3@YAXPAX@Z:PROC				; operator delete
; Function compile flags: /Ogsp
;	COMDAT ??_Gbad_alloc@std@@UAEPAXI@Z
_TEXT	SEGMENT
___flags$ = 8						; size = 4
??_Gbad_alloc@std@@UAEPAXI@Z PROC			; std::bad_alloc::`scalar deleting destructor', COMDAT
; _this$ = ecx
  00000	55		 push	 ebp
  00001	8b ec		 mov	 ebp, esp
  00003	56		 push	 esi
  00004	8b f1		 mov	 esi, ecx
  00006	c7 06 00 00 00
	00		 mov	 DWORD PTR [esi], OFFSET ??_7bad_alloc@std@@6B@
  0000c	ff 15 00 00 00
	00		 call	 DWORD PTR __imp_??1exception@std@@UAE@XZ
  00012	f6 45 08 01	 test	 BYTE PTR ___flags$[ebp], 1
  00016	74 07		 je	 SHORT $LN1@scalar
  00018	56		 push	 esi
  00019	e8 00 00 00 00	 call	 ??3@YAXPAX@Z		; operator delete
  0001e	59		 pop	 ecx
$LN1@scalar:
  0001f	8b c6		 mov	 eax, esi
  00021	5e		 pop	 esi
  00022	5d		 pop	 ebp
  00023	c2 04 00	 ret	 4
??_Gbad_alloc@std@@UAEPAXI@Z ENDP			; std::bad_alloc::`scalar deleting destructor'
_TEXT	ENDS
PUBLIC	??2@YAPAXIPAX@Z					; operator new
; Function compile flags: /Ogsp
; File c:\program files (x86)\microsoft visual studio 10.0\vc\include\new
;	COMDAT ??2@YAPAXIPAX@Z
_TEXT	SEGMENT
___formal$ = 8						; size = 4
__Where$ = 12						; size = 4
??2@YAPAXIPAX@Z PROC					; operator new, COMDAT

; 56   : 	{	// construct array with placement at _Where

  00000	55		 push	 ebp
  00001	8b ec		 mov	 ebp, esp

; 57   : 	return (_Where);

  00003	8b 45 0c	 mov	 eax, DWORD PTR __Where$[ebp]

; 58   : 	}

  00006	5d		 pop	 ebp
  00007	c3		 ret	 0
??2@YAPAXIPAX@Z ENDP					; operator new
_TEXT	ENDS
PUBLIC	??3@YAXPAX0@Z					; operator delete
; Function compile flags: /Ogsp
;	COMDAT ??3@YAXPAX0@Z
_TEXT	SEGMENT
___formal$ = 8						; size = 4
___formal$ = 12						; size = 4
??3@YAXPAX0@Z PROC					; operator delete, COMDAT

; 62   : 	}

  00000	c3		 ret	 0
??3@YAXPAX0@Z ENDP					; operator delete
_TEXT	ENDS
PUBLIC	?iwm_show@CreateModeSelectList@@UAEXXZ		; CreateModeSelectList::iwm_show
; Function compile flags: /Ogsp
; File d:\lost saga for developer\youtube\tutorial\source\src\lsclient\gui\modemapselectlist.cpp
;	COMDAT ?iwm_show@CreateModeSelectList@@UAEXXZ
_TEXT	SEGMENT
?iwm_show@CreateModeSelectList@@UAEXXZ PROC		; CreateModeSelectList::iwm_show, COMDAT
; _this$ = ecx

; 523  : 	SetCheckParentOutSide( true );

  00000	6a 01		 push	 1
  00002	ff 15 00 00 00
	00		 call	 DWORD PTR __imp_?SetCheckParentOutSide@ioWnd@@QAEX_N@Z

; 524  : }

  00008	c3		 ret	 0
?iwm_show@CreateModeSelectList@@UAEXXZ ENDP		; CreateModeSelectList::iwm_show
_TEXT	ENDS
PUBLIC	?iwm_hide@CreateModeSelectList@@UAEXXZ		; CreateModeSelectList::iwm_hide
;	COMDAT xdata$x
xdata$x	SEGMENT
__unwindtable$?iwm_hide@CreateModeSelectList@@UAEXXZ DD 0ffffffffH
	DD	FLAT:__unwindfunclet$?iwm_hide@CreateModeSelectList@@UAEXXZ$0
__ehfuncinfo$?iwm_hide@CreateModeSelectList@@UAEXXZ DD 019930522H
	DD	01H
	DD	FLAT:__unwindtable$?iwm_hide@CreateModeSelectList@@UAEXXZ
	DD	2 DUP(00H)
	DD	2 DUP(00H)
	DD	00H
	DD	01H
; Function compile flags: /Ogsp
xdata$x	ENDS
;	COMDAT ?iwm_hide@CreateModeSelectList@@UAEXXZ
_TEXT	SEGMENT
$T513682 = -28						; size = 16
__$EHRec$ = -12						; size = 12
?iwm_hide@CreateModeSelectList@@UAEXXZ PROC		; CreateModeSelectList::iwm_hide, COMDAT
; _this$ = ecx

; 527  : {

  00000	6a 10		 push	 16			; 00000010H
  00002	b8 00 00 00 00	 mov	 eax, __ehhandler$?iwm_hide@CreateModeSelectList@@UAEXXZ
  00007	e8 00 00 00 00	 call	 __EH_prolog3
  0000c	8b f1		 mov	 esi, ecx

; 528  : 	SetCheckParentOutSide( false );

  0000e	33 ff		 xor	 edi, edi
  00010	57		 push	 edi
  00011	ff 15 00 00 00
	00		 call	 DWORD PTR __imp_?SetCheckParentOutSide@ioWnd@@QAEX_N@Z

; 529  : 
; 530  : 	ModeHelpTooltip *pModeHelpTooltip = dynamic_cast< ModeHelpTooltip * >( m_pModeHelpTooltip );	

  00017	57		 push	 edi
  00018	68 00 00 00 00	 push	 OFFSET ??_R0?AVModeHelpTooltip@@@8
  0001d	68 00 00 00 00	 push	 OFFSET ??_R0?AVioWnd@@@8
  00022	57		 push	 edi
  00023	ff b6 b4 01 00
	00		 push	 DWORD PTR [esi+436]
  00029	e8 00 00 00 00	 call	 ___RTDynamicCast
  0002e	8b f0		 mov	 esi, eax
  00030	83 c4 14	 add	 esp, 20			; 00000014H

; 531  : 	if( pModeHelpTooltip )

  00033	3b f7		 cmp	 esi, edi
  00035	74 2c		 je	 SHORT $LN1@iwm_hide@2

; 532  : 	{
; 533  : 		pModeHelpTooltip->SetModeHelpTooltip( NULL, "", -1 );

  00037	68 00 00 00 00	 push	 OFFSET ??_C@_00CNPNBAHC@?$AA@
  0003c	8d 4d e4	 lea	 ecx, DWORD PTR $T513682[ebp]
  0003f	ff 15 00 00 00
	00		 call	 DWORD PTR __imp_??0ioHashString@@QAE@PBD@Z
  00045	6a ff		 push	 -1
  00047	8d 45 e4	 lea	 eax, DWORD PTR $T513682[ebp]
  0004a	50		 push	 eax
  0004b	57		 push	 edi
  0004c	8b ce		 mov	 ecx, esi
  0004e	89 7d fc	 mov	 DWORD PTR __$EHRec$[ebp+8], edi
  00051	e8 00 00 00 00	 call	 ?SetModeHelpTooltip@ModeHelpTooltip@@QAEXPAVioWnd@@ABVioHashString@@H@Z ; ModeHelpTooltip::SetModeHelpTooltip
  00056	83 4d fc ff	 or	 DWORD PTR __$EHRec$[ebp+8], -1
  0005a	8d 4d e4	 lea	 ecx, DWORD PTR $T513682[ebp]
  0005d	ff 15 00 00 00
	00		 call	 DWORD PTR __imp_??1ioHashString@@QAE@XZ
$LN1@iwm_hide@2:

; 534  : 	}	
; 535  : }

  00063	e8 00 00 00 00	 call	 __EH_epilog3
  00068	c3		 ret	 0
_TEXT	ENDS
;	COMDAT text$x
text$x	SEGMENT
__unwindfunclet$?iwm_hide@CreateModeSelectList@@UAEXXZ$0:
  00000	8d 4d e4	 lea	 ecx, DWORD PTR $T513682[ebp]
  00003	ff 25 00 00 00
	00		 jmp	 DWORD PTR __imp_??1ioHashString@@QAE@XZ
__ehhandler$?iwm_hide@CreateModeSelectList@@UAEXXZ:
  00009	8b 54 24 08	 mov	 edx, DWORD PTR [esp+8]
  0000d	8d 42 0c	 lea	 eax, DWORD PTR [edx+12]
  00010	8b 4a e0	 mov	 ecx, DWORD PTR [edx-32]
  00013	33 c8		 xor	 ecx, eax
  00015	e8 00 00 00 00	 call	 @__security_check_cookie@4
  0001a	b8 00 00 00 00	 mov	 eax, OFFSET __ehfuncinfo$?iwm_hide@CreateModeSelectList@@UAEXXZ
  0001f	e9 00 00 00 00	 jmp	 ___CxxFrameHandler3
text$x	ENDS
?iwm_hide@CreateModeSelectList@@UAEXXZ ENDP		; CreateModeSelectList::iwm_hide
PUBLIC	?iwm_wheel@CreateModeSelectList@@UAEXH@Z	; CreateModeSelectList::iwm_wheel
; Function compile flags: /Ogsp
;	COMDAT ?iwm_wheel@CreateModeSelectList@@UAEXH@Z
_TEXT	SEGMENT
_zDelta$ = 8						; size = 4
?iwm_wheel@CreateModeSelectList@@UAEXH@Z PROC		; CreateModeSelectList::iwm_wheel, COMDAT
; _this$ = ecx

; 538  : {

  00000	55		 push	 ebp
  00001	8b ec		 mov	 ebp, esp
  00003	57		 push	 edi
  00004	8b f9		 mov	 edi, ecx

; 539  : 	if( !IsShow() )

  00006	ff 15 00 00 00
	00		 call	 DWORD PTR __imp_?IsShow@ioWnd@@QBE_NXZ
  0000c	84 c0		 test	 al, al
  0000e	75 0d		 jne	 SHORT $LN8@iwm_wheel@2

; 540  : 		ioWnd::iwm_wheel( zDelta );

  00010	ff 75 08	 push	 DWORD PTR _zDelta$[ebp]
  00013	8b cf		 mov	 ecx, edi
  00015	ff 15 00 00 00
	00		 call	 DWORD PTR __imp_?iwm_wheel@ioWnd@@UAEXH@Z

; 541  : 	else

  0001b	eb 58		 jmp	 SHORT $LN1@iwm_wheel@2
$LN8@iwm_wheel@2:

; 542  : 	{
; 543  : 		if( g_App.IsMouseBusy() ) return;

  0001d	e8 00 00 00 00	 call	 ?GetSingleton@ioApplication@@SAAAV1@XZ ; ioApplication::GetSingleton
  00022	8b c8		 mov	 ecx, eax
  00024	e8 00 00 00 00	 call	 ?IsMouseBusy@ioApplication@@QAE_NXZ ; ioApplication::IsMouseBusy
  00029	84 c0		 test	 al, al
  0002b	75 48		 jne	 SHORT $LN1@iwm_wheel@2

; 544  : 
; 545  : 		ioScroll *pScroll = (ioScroll*)FindChildWnd( ID_VERT_SCROLL );

  0002d	56		 push	 esi
  0002e	68 e8 03 00 00	 push	 1000			; 000003e8H
  00033	8b cf		 mov	 ecx, edi
  00035	ff 15 00 00 00
	00		 call	 DWORD PTR __imp_?FindChildWnd@ioWnd@@QAEPAV1@K@Z
  0003b	8b f0		 mov	 esi, eax

; 546  : 		if( pScroll == NULL ) return;

  0003d	85 f6		 test	 esi, esi
  0003f	74 33		 je	 SHORT $LN11@iwm_wheel@2

; 547  : 		if( !pScroll->IsShow() ) return;

  00041	8b ce		 mov	 ecx, esi
  00043	ff 15 00 00 00
	00		 call	 DWORD PTR __imp_?IsShow@ioWnd@@QBE_NXZ
  00049	84 c0		 test	 al, al
  0004b	74 27		 je	 SHORT $LN11@iwm_wheel@2

; 548  : 
; 549  : 		if( zDelta == WHEEL_DELTA )

  0004d	83 7d 08 78	 cmp	 DWORD PTR _zDelta$[ebp], 120 ; 00000078H
  00051	75 09		 jne	 SHORT $LN3@iwm_wheel@2

; 550  : 			pScroll->SetScrollPos( m_iCurPos - 1 );

  00053	8b 8f 98 01 00
	00		 mov	 ecx, DWORD PTR [edi+408]
  00059	49		 dec	 ecx
  0005a	eb 0d		 jmp	 SHORT $LN12@iwm_wheel@2
$LN3@iwm_wheel@2:

; 551  : 		else if( zDelta == -WHEEL_DELTA )

  0005c	83 7d 08 88	 cmp	 DWORD PTR _zDelta$[ebp], -120 ; ffffff88H
  00060	75 12		 jne	 SHORT $LN11@iwm_wheel@2

; 552  : 			pScroll->SetScrollPos( m_iCurPos + 1 );

  00062	8b 8f 98 01 00
	00		 mov	 ecx, DWORD PTR [edi+408]
  00068	41		 inc	 ecx
$LN12@iwm_wheel@2:
  00069	8b 06		 mov	 eax, DWORD PTR [esi]
  0006b	51		 push	 ecx
  0006c	8b ce		 mov	 ecx, esi
  0006e	ff 90 38 01 00
	00		 call	 DWORD PTR [eax+312]
$LN11@iwm_wheel@2:
  00074	5e		 pop	 esi
$LN1@iwm_wheel@2:
  00075	5f		 pop	 edi

; 553  : 	}
; 554  : }

  00076	5d		 pop	 ebp
  00077	c2 04 00	 ret	 4
?iwm_wheel@CreateModeSelectList@@UAEXH@Z ENDP		; CreateModeSelectList::iwm_wheel
_TEXT	ENDS
PUBLIC	?iwm_vscroll@CreateModeSelectList@@UAEXKH@Z	; CreateModeSelectList::iwm_vscroll
; Function compile flags: /Ogsp
;	COMDAT ?iwm_vscroll@CreateModeSelectList@@UAEXKH@Z
_TEXT	SEGMENT
_dwID$ = 8						; size = 4
_curPos$ = 12						; size = 4
?iwm_vscroll@CreateModeSelectList@@UAEXKH@Z PROC	; CreateModeSelectList::iwm_vscroll, COMDAT
; _this$ = ecx

; 557  : {

  00000	55		 push	 ebp
  00001	8b ec		 mov	 ebp, esp
  00003	56		 push	 esi

; 558  : 	ioScroll *pScroll = (ioScroll*)FindChildWnd( ID_VERT_SCROLL );

  00004	68 e8 03 00 00	 push	 1000			; 000003e8H
  00009	8b f1		 mov	 esi, ecx
  0000b	ff 15 00 00 00
	00		 call	 DWORD PTR __imp_?FindChildWnd@ioWnd@@QAEPAV1@K@Z

; 559  : 	if( pScroll == NULL ) return;

  00011	85 c0		 test	 eax, eax
  00013	74 15		 je	 SHORT $LN3@iwm_vscrol@2

; 560  : 	if( !pScroll->IsShow() ) return;

  00015	8b c8		 mov	 ecx, eax
  00017	ff 15 00 00 00
	00		 call	 DWORD PTR __imp_?IsShow@ioWnd@@QBE_NXZ
  0001d	84 c0		 test	 al, al
  0001f	74 09		 je	 SHORT $LN3@iwm_vscrol@2

; 561  : 
; 562  : 	m_iCurPos = curPos;

  00021	8b 45 0c	 mov	 eax, DWORD PTR _curPos$[ebp]
  00024	89 86 98 01 00
	00		 mov	 DWORD PTR [esi+408], eax
$LN3@iwm_vscrol@2:
  0002a	5e		 pop	 esi

; 563  : }

  0002b	5d		 pop	 ebp
  0002c	c2 08 00	 ret	 8
?iwm_vscroll@CreateModeSelectList@@UAEXKH@Z ENDP	; CreateModeSelectList::iwm_vscroll
_TEXT	ENDS
PUBLIC	??1SelectList@CreateModeSelectList@@QAE@XZ	; CreateModeSelectList::SelectList::~SelectList
; Function compile flags: /Ogsp
;	COMDAT ??1SelectList@CreateModeSelectList@@QAE@XZ
_TEXT	SEGMENT
??1SelectList@CreateModeSelectList@@QAE@XZ PROC		; CreateModeSelectList::SelectList::~SelectList, COMDAT
; _this$ = ecx
  00000	83 c1 0c	 add	 ecx, 12			; 0000000cH
  00003	ff 25 00 00 00
	00		 jmp	 DWORD PTR __imp_??1ioHashString@@QAE@XZ
??1SelectList@CreateModeSelectList@@QAE@XZ ENDP		; CreateModeSelectList::SelectList::~SelectList
_TEXT	ENDS
PUBLIC	?_Adopt@_Iterator_base0@std@@QAEXPBX@Z		; std::_Iterator_base0::_Adopt
; Function compile flags: /Ogsp
; File c:\program files (x86)\microsoft visual studio 10.0\vc\include\xutility
;	COMDAT ?_Adopt@_Iterator_base0@std@@QAEXPBX@Z
_TEXT	SEGMENT
___formal$ = 8						; size = 4
?_Adopt@_Iterator_base0@std@@QAEXPBX@Z PROC		; std::_Iterator_base0::_Adopt, COMDAT
; _this$ = ecx

; 49   : 		}

  00000	c2 04 00	 ret	 4
?_Adopt@_Iterator_base0@std@@QAEXPBX@Z ENDP		; std::_Iterator_base0::_Adopt
_TEXT	ENDS
PUBLIC	?size@?$vector@USelectList@ModeMapSelectList@@V?$allocator@USelectList@ModeMapSelectList@@@std@@@std@@QBEIXZ ; std::vector<ModeMapSelectList::SelectList,std::allocator<ModeMapSelectList::SelectList> >::size
; Function compile flags: /Ogsp
; File c:\program files (x86)\microsoft visual studio 10.0\vc\include\vector
;	COMDAT ?size@?$vector@USelectList@ModeMapSelectList@@V?$allocator@USelectList@ModeMapSelectList@@@std@@@std@@QBEIXZ
_TEXT	SEGMENT
?size@?$vector@USelectList@ModeMapSelectList@@V?$allocator@USelectList@ModeMapSelectList@@@std@@@std@@QBEIXZ PROC ; std::vector<ModeMapSelectList::SelectList,std::allocator<ModeMapSelectList::SelectList> >::size, COMDAT
; _this$ = ecx

; 879  : 		return (this->_Mylast - this->_Myfirst);

  00000	8b 41 04	 mov	 eax, DWORD PTR [ecx+4]
  00003	2b 01		 sub	 eax, DWORD PTR [ecx]
  00005	6a 24		 push	 36			; 00000024H
  00007	99		 cdq
  00008	59		 pop	 ecx
  00009	f7 f9		 idiv	 ecx

; 880  : 		}

  0000b	c3		 ret	 0
?size@?$vector@USelectList@ModeMapSelectList@@V?$allocator@USelectList@ModeMapSelectList@@@std@@@std@@QBEIXZ ENDP ; std::vector<ModeMapSelectList::SelectList,std::allocator<ModeMapSelectList::SelectList> >::size
_TEXT	ENDS
PUBLIC	??A?$vector@USelectList@ModeMapSelectList@@V?$allocator@USelectList@ModeMapSelectList@@@std@@@std@@QAEAAUSelectList@ModeMapSelectList@@I@Z ; std::vector<ModeMapSelectList::SelectList,std::allocator<ModeMapSelectList::SelectList> >::operator[]
; Function compile flags: /Ogsp
;	COMDAT ??A?$vector@USelectList@ModeMapSelectList@@V?$allocator@USelectList@ModeMapSelectList@@@std@@@std@@QAEAAUSelectList@ModeMapSelectList@@I@Z
_TEXT	SEGMENT
__Pos$ = 8						; size = 4
??A?$vector@USelectList@ModeMapSelectList@@V?$allocator@USelectList@ModeMapSelectList@@@std@@@std@@QAEAAUSelectList@ModeMapSelectList@@I@Z PROC ; std::vector<ModeMapSelectList::SelectList,std::allocator<ModeMapSelectList::SelectList> >::operator[], COMDAT
; _this$ = ecx

; 928  : 		{	// subscript mutable sequence

  00000	55		 push	 ebp
  00001	8b ec		 mov	 ebp, esp

; 929  :  #if _ITERATOR_DEBUG_LEVEL == 2
; 930  : 		if (size() <= _Pos)
; 931  : 			{	// report error
; 932  : 			_DEBUG_ERROR("vector subscript out of range");
; 933  : 			_SCL_SECURE_OUT_OF_RANGE;
; 934  : 			}
; 935  : 
; 936  :  #elif _ITERATOR_DEBUG_LEVEL == 1
; 937  : 		_SCL_SECURE_VALIDATE_RANGE(_Pos < size());
; 938  :  #endif /* _ITERATOR_DEBUG_LEVEL */
; 939  : 
; 940  : 		return (*(this->_Myfirst + _Pos));

  00003	8b 45 08	 mov	 eax, DWORD PTR __Pos$[ebp]
  00006	6b c0 24	 imul	 eax, 36			; 00000024H
  00009	03 01		 add	 eax, DWORD PTR [ecx]

; 941  : 		}

  0000b	5d		 pop	 ebp
  0000c	c2 04 00	 ret	 4
??A?$vector@USelectList@ModeMapSelectList@@V?$allocator@USelectList@ModeMapSelectList@@@std@@@std@@QAEAAUSelectList@ModeMapSelectList@@I@Z ENDP ; std::vector<ModeMapSelectList::SelectList,std::allocator<ModeMapSelectList::SelectList> >::operator[]
_TEXT	ENDS
PUBLIC	?size@?$vector@USelectList@CreateModeSelectList@@V?$allocator@USelectList@CreateModeSelectList@@@std@@@std@@QBEIXZ ; std::vector<CreateModeSelectList::SelectList,std::allocator<CreateModeSelectList::SelectList> >::size
; Function compile flags: /Ogsp
;	COMDAT ?size@?$vector@USelectList@CreateModeSelectList@@V?$allocator@USelectList@CreateModeSelectList@@@std@@@std@@QBEIXZ
_TEXT	SEGMENT
?size@?$vector@USelectList@CreateModeSelectList@@V?$allocator@USelectList@CreateModeSelectList@@@std@@@std@@QBEIXZ PROC ; std::vector<CreateModeSelectList::SelectList,std::allocator<CreateModeSelectList::SelectList> >::size, COMDAT
; _this$ = ecx

; 879  : 		return (this->_Mylast - this->_Myfirst);

  00000	8b 41 04	 mov	 eax, DWORD PTR [ecx+4]
  00003	2b 01		 sub	 eax, DWORD PTR [ecx]
  00005	c1 f8 05	 sar	 eax, 5

; 880  : 		}

  00008	c3		 ret	 0
?size@?$vector@USelectList@CreateModeSelectList@@V?$allocator@USelectList@CreateModeSelectList@@@std@@@std@@QBEIXZ ENDP ; std::vector<CreateModeSelectList::SelectList,std::allocator<CreateModeSelectList::SelectList> >::size
_TEXT	ENDS
PUBLIC	??A?$vector@USelectList@CreateModeSelectList@@V?$allocator@USelectList@CreateModeSelectList@@@std@@@std@@QAEAAUSelectList@CreateModeSelectList@@I@Z ; std::vector<CreateModeSelectList::SelectList,std::allocator<CreateModeSelectList::SelectList> >::operator[]
; Function compile flags: /Ogsp
;	COMDAT ??A?$vector@USelectList@CreateModeSelectList@@V?$allocator@USelectList@CreateModeSelectList@@@std@@@std@@QAEAAUSelectList@CreateModeSelectList@@I@Z
_TEXT	SEGMENT
__Pos$ = 8						; size = 4
??A?$vector@USelectList@CreateModeSelectList@@V?$allocator@USelectList@CreateModeSelectList@@@std@@@std@@QAEAAUSelectList@CreateModeSelectList@@I@Z PROC ; std::vector<CreateModeSelectList::SelectList,std::allocator<CreateModeSelectList::SelectList> >::operator[], COMDAT
; _this$ = ecx

; 928  : 		{	// subscript mutable sequence

  00000	55		 push	 ebp
  00001	8b ec		 mov	 ebp, esp

; 929  :  #if _ITERATOR_DEBUG_LEVEL == 2
; 930  : 		if (size() <= _Pos)
; 931  : 			{	// report error
; 932  : 			_DEBUG_ERROR("vector subscript out of range");
; 933  : 			_SCL_SECURE_OUT_OF_RANGE;
; 934  : 			}
; 935  : 
; 936  :  #elif _ITERATOR_DEBUG_LEVEL == 1
; 937  : 		_SCL_SECURE_VALIDATE_RANGE(_Pos < size());
; 938  :  #endif /* _ITERATOR_DEBUG_LEVEL */
; 939  : 
; 940  : 		return (*(this->_Myfirst + _Pos));

  00003	8b 45 08	 mov	 eax, DWORD PTR __Pos$[ebp]
  00006	c1 e0 05	 shl	 eax, 5
  00009	03 01		 add	 eax, DWORD PTR [ecx]

; 941  : 		}

  0000b	5d		 pop	 ebp
  0000c	c2 04 00	 ret	 4
??A?$vector@USelectList@CreateModeSelectList@@V?$allocator@USelectList@CreateModeSelectList@@@std@@@std@@QAEAAUSelectList@CreateModeSelectList@@I@Z ENDP ; std::vector<CreateModeSelectList::SelectList,std::allocator<CreateModeSelectList::SelectList> >::operator[]
_TEXT	ENDS
PUBLIC	?_Inside@?$vector@USelectList@ModeMapSelectList@@V?$allocator@USelectList@ModeMapSelectList@@@std@@@std@@IBE_NPBUSelectList@ModeMapSelectList@@@Z ; std::vector<ModeMapSelectList::SelectList,std::allocator<ModeMapSelectList::SelectList> >::_Inside
; Function compile flags: /Ogsp
;	COMDAT ?_Inside@?$vector@USelectList@ModeMapSelectList@@V?$allocator@USelectList@ModeMapSelectList@@@std@@@std@@IBE_NPBUSelectList@ModeMapSelectList@@@Z
_TEXT	SEGMENT
__Ptr$ = 8						; size = 4
?_Inside@?$vector@USelectList@ModeMapSelectList@@V?$allocator@USelectList@ModeMapSelectList@@@std@@@std@@IBE_NPBUSelectList@ModeMapSelectList@@@Z PROC ; std::vector<ModeMapSelectList::SelectList,std::allocator<ModeMapSelectList::SelectList> >::_Inside, COMDAT
; _this$ = ecx

; 1285 : 		{	// test if _Ptr points inside vector

  00000	55		 push	 ebp
  00001	8b ec		 mov	 ebp, esp

; 1286 : 		return (_Ptr < this->_Mylast && this->_Myfirst <= _Ptr);

  00003	8b 45 08	 mov	 eax, DWORD PTR __Ptr$[ebp]
  00006	3b 41 04	 cmp	 eax, DWORD PTR [ecx+4]
  00009	73 09		 jae	 SHORT $LN3@Inside
  0000b	39 01		 cmp	 DWORD PTR [ecx], eax
  0000d	77 05		 ja	 SHORT $LN3@Inside
  0000f	33 c0		 xor	 eax, eax
  00011	40		 inc	 eax
  00012	eb 02		 jmp	 SHORT $LN4@Inside
$LN3@Inside:
  00014	33 c0		 xor	 eax, eax
$LN4@Inside:

; 1287 : 		}

  00016	5d		 pop	 ebp
  00017	c2 04 00	 ret	 4
?_Inside@?$vector@USelectList@ModeMapSelectList@@V?$allocator@USelectList@ModeMapSelectList@@@std@@@std@@IBE_NPBUSelectList@ModeMapSelectList@@@Z ENDP ; std::vector<ModeMapSelectList::SelectList,std::allocator<ModeMapSelectList::SelectList> >::_Inside
_TEXT	ENDS
PUBLIC	?_Orphan_range@?$vector@USelectList@ModeMapSelectList@@V?$allocator@USelectList@ModeMapSelectList@@@std@@@std@@IBEXPAUSelectList@ModeMapSelectList@@0@Z ; std::vector<ModeMapSelectList::SelectList,std::allocator<ModeMapSelectList::SelectList> >::_Orphan_range
; Function compile flags: /Ogsp
;	COMDAT ?_Orphan_range@?$vector@USelectList@ModeMapSelectList@@V?$allocator@USelectList@ModeMapSelectList@@@std@@@std@@IBEXPAUSelectList@ModeMapSelectList@@0@Z
_TEXT	SEGMENT
___formal$ = 8						; size = 4
___formal$ = 12						; size = 4
?_Orphan_range@?$vector@USelectList@ModeMapSelectList@@V?$allocator@USelectList@ModeMapSelectList@@@std@@@std@@IBEXPAUSelectList@ModeMapSelectList@@0@Z PROC ; std::vector<ModeMapSelectList::SelectList,std::allocator<ModeMapSelectList::SelectList> >::_Orphan_range, COMDAT
; _this$ = ecx

; 1454 : 		}

  00000	c2 08 00	 ret	 8
?_Orphan_range@?$vector@USelectList@ModeMapSelectList@@V?$allocator@USelectList@ModeMapSelectList@@@std@@@std@@IBEXPAUSelectList@ModeMapSelectList@@0@Z ENDP ; std::vector<ModeMapSelectList::SelectList,std::allocator<ModeMapSelectList::SelectList> >::_Orphan_range
_TEXT	ENDS
PUBLIC	??1?$_Vector_val@USelectList@ModeMapSelectList@@V?$allocator@USelectList@ModeMapSelectList@@@std@@@std@@QAE@XZ ; std::_Vector_val<ModeMapSelectList::SelectList,std::allocator<ModeMapSelectList::SelectList> >::~_Vector_val<ModeMapSelectList::SelectList,std::allocator<ModeMapSelectList::SelectList> >
; Function compile flags: /Ogsp
;	COMDAT ??1?$_Vector_val@USelectList@ModeMapSelectList@@V?$allocator@USelectList@ModeMapSelectList@@@std@@@std@@QAE@XZ
_TEXT	SEGMENT
??1?$_Vector_val@USelectList@ModeMapSelectList@@V?$allocator@USelectList@ModeMapSelectList@@@std@@@std@@QAE@XZ PROC ; std::_Vector_val<ModeMapSelectList::SelectList,std::allocator<ModeMapSelectList::SelectList> >::~_Vector_val<ModeMapSelectList::SelectList,std::allocator<ModeMapSelectList::SelectList> >, COMDAT
; _this$ = ecx

; 434  : 		}

  00000	c3		 ret	 0
??1?$_Vector_val@USelectList@ModeMapSelectList@@V?$allocator@USelectList@ModeMapSelectList@@@std@@@std@@QAE@XZ ENDP ; std::_Vector_val<ModeMapSelectList::SelectList,std::allocator<ModeMapSelectList::SelectList> >::~_Vector_val<ModeMapSelectList::SelectList,std::allocator<ModeMapSelectList::SelectList> >
_TEXT	ENDS
PUBLIC	??0?$allocator@USelectList@ModeMapSelectList@@@std@@QAE@XZ ; std::allocator<ModeMapSelectList::SelectList>::allocator<ModeMapSelectList::SelectList>
; Function compile flags: /Ogsp
; File c:\program files (x86)\microsoft visual studio 10.0\vc\include\xmemory
;	COMDAT ??0?$allocator@USelectList@ModeMapSelectList@@@std@@QAE@XZ
_TEXT	SEGMENT
??0?$allocator@USelectList@ModeMapSelectList@@@std@@QAE@XZ PROC ; std::allocator<ModeMapSelectList::SelectList>::allocator<ModeMapSelectList::SelectList>, COMDAT
; _this$ = ecx

; 161  : 	_ALLOCATOR() _THROW0()

  00000	8b c1		 mov	 eax, ecx

; 162  : 		{	// construct default allocator (do nothing)
; 163  : 		}

  00002	c3		 ret	 0
??0?$allocator@USelectList@ModeMapSelectList@@@std@@QAE@XZ ENDP ; std::allocator<ModeMapSelectList::SelectList>::allocator<ModeMapSelectList::SelectList>
_TEXT	ENDS
PUBLIC	?_Inside@?$vector@USelectList@CreateModeSelectList@@V?$allocator@USelectList@CreateModeSelectList@@@std@@@std@@IBE_NPBUSelectList@CreateModeSelectList@@@Z ; std::vector<CreateModeSelectList::SelectList,std::allocator<CreateModeSelectList::SelectList> >::_Inside
; Function compile flags: /Ogsp
; File c:\program files (x86)\microsoft visual studio 10.0\vc\include\vector
;	COMDAT ?_Inside@?$vector@USelectList@CreateModeSelectList@@V?$allocator@USelectList@CreateModeSelectList@@@std@@@std@@IBE_NPBUSelectList@CreateModeSelectList@@@Z
_TEXT	SEGMENT
__Ptr$ = 8						; size = 4
?_Inside@?$vector@USelectList@CreateModeSelectList@@V?$allocator@USelectList@CreateModeSelectList@@@std@@@std@@IBE_NPBUSelectList@CreateModeSelectList@@@Z PROC ; std::vector<CreateModeSelectList::SelectList,std::allocator<CreateModeSelectList::SelectList> >::_Inside, COMDAT
; _this$ = ecx

; 1285 : 		{	// test if _Ptr points inside vector

  00000	55		 push	 ebp
  00001	8b ec		 mov	 ebp, esp

; 1286 : 		return (_Ptr < this->_Mylast && this->_Myfirst <= _Ptr);

  00003	8b 45 08	 mov	 eax, DWORD PTR __Ptr$[ebp]
  00006	3b 41 04	 cmp	 eax, DWORD PTR [ecx+4]
  00009	73 09		 jae	 SHORT $LN3@Inside@2
  0000b	39 01		 cmp	 DWORD PTR [ecx], eax
  0000d	77 05		 ja	 SHORT $LN3@Inside@2
  0000f	33 c0		 xor	 eax, eax
  00011	40		 inc	 eax
  00012	eb 02		 jmp	 SHORT $LN4@Inside@2
$LN3@Inside@2:
  00014	33 c0		 xor	 eax, eax
$LN4@Inside@2:

; 1287 : 		}

  00016	5d		 pop	 ebp
  00017	c2 04 00	 ret	 4
?_Inside@?$vector@USelectList@CreateModeSelectList@@V?$allocator@USelectList@CreateModeSelectList@@@std@@@std@@IBE_NPBUSelectList@CreateModeSelectList@@@Z ENDP ; std::vector<CreateModeSelectList::SelectList,std::allocator<CreateModeSelectList::SelectList> >::_Inside
_TEXT	ENDS
PUBLIC	?_Orphan_range@?$vector@USelectList@CreateModeSelectList@@V?$allocator@USelectList@CreateModeSelectList@@@std@@@std@@IBEXPAUSelectList@CreateModeSelectList@@0@Z ; std::vector<CreateModeSelectList::SelectList,std::allocator<CreateModeSelectList::SelectList> >::_Orphan_range
; Function compile flags: /Ogsp
;	COMDAT ?_Orphan_range@?$vector@USelectList@CreateModeSelectList@@V?$allocator@USelectList@CreateModeSelectList@@@std@@@std@@IBEXPAUSelectList@CreateModeSelectList@@0@Z
_TEXT	SEGMENT
___formal$ = 8						; size = 4
___formal$ = 12						; size = 4
?_Orphan_range@?$vector@USelectList@CreateModeSelectList@@V?$allocator@USelectList@CreateModeSelectList@@@std@@@std@@IBEXPAUSelectList@CreateModeSelectList@@0@Z PROC ; std::vector<CreateModeSelectList::SelectList,std::allocator<CreateModeSelectList::SelectList> >::_Orphan_range, COMDAT
; _this$ = ecx

; 1454 : 		}

  00000	c2 08 00	 ret	 8
?_Orphan_range@?$vector@USelectList@CreateModeSelectList@@V?$allocator@USelectList@CreateModeSelectList@@@std@@@std@@IBEXPAUSelectList@CreateModeSelectList@@0@Z ENDP ; std::vector<CreateModeSelectList::SelectList,std::allocator<CreateModeSelectList::SelectList> >::_Orphan_range
_TEXT	ENDS
PUBLIC	??1?$_Vector_val@USelectList@CreateModeSelectList@@V?$allocator@USelectList@CreateModeSelectList@@@std@@@std@@QAE@XZ ; std::_Vector_val<CreateModeSelectList::SelectList,std::allocator<CreateModeSelectList::SelectList> >::~_Vector_val<CreateModeSelectList::SelectList,std::allocator<CreateModeSelectList::SelectList> >
; Function compile flags: /Ogsp
;	COMDAT ??1?$_Vector_val@USelectList@CreateModeSelectList@@V?$allocator@USelectList@CreateModeSelectList@@@std@@@std@@QAE@XZ
_TEXT	SEGMENT
??1?$_Vector_val@USelectList@CreateModeSelectList@@V?$allocator@USelectList@CreateModeSelectList@@@std@@@std@@QAE@XZ PROC ; std::_Vector_val<CreateModeSelectList::SelectList,std::allocator<CreateModeSelectList::SelectList> >::~_Vector_val<CreateModeSelectList::SelectList,std::allocator<CreateModeSelectList::SelectList> >, COMDAT
; _this$ = ecx

; 434  : 		}

  00000	c3		 ret	 0
??1?$_Vector_val@USelectList@CreateModeSelectList@@V?$allocator@USelectList@CreateModeSelectList@@@std@@@std@@QAE@XZ ENDP ; std::_Vector_val<CreateModeSelectList::SelectList,std::allocator<CreateModeSelectList::SelectList> >::~_Vector_val<CreateModeSelectList::SelectList,std::allocator<CreateModeSelectList::SelectList> >
_TEXT	ENDS
PUBLIC	??0?$allocator@USelectList@CreateModeSelectList@@@std@@QAE@XZ ; std::allocator<CreateModeSelectList::SelectList>::allocator<CreateModeSelectList::SelectList>
; Function compile flags: /Ogsp
; File c:\program files (x86)\microsoft visual studio 10.0\vc\include\xmemory
;	COMDAT ??0?$allocator@USelectList@CreateModeSelectList@@@std@@QAE@XZ
_TEXT	SEGMENT
??0?$allocator@USelectList@CreateModeSelectList@@@std@@QAE@XZ PROC ; std::allocator<CreateModeSelectList::SelectList>::allocator<CreateModeSelectList::SelectList>, COMDAT
; _this$ = ecx

; 161  : 	_ALLOCATOR() _THROW0()

  00000	8b c1		 mov	 eax, ecx

; 162  : 		{	// construct default allocator (do nothing)
; 163  : 		}

  00002	c3		 ret	 0
??0?$allocator@USelectList@CreateModeSelectList@@@std@@QAE@XZ ENDP ; std::allocator<CreateModeSelectList::SelectList>::allocator<CreateModeSelectList::SelectList>
_TEXT	ENDS
PUBLIC	?capacity@?$vector@USelectList@ModeMapSelectList@@V?$allocator@USelectList@ModeMapSelectList@@@std@@@std@@QBEIXZ ; std::vector<ModeMapSelectList::SelectList,std::allocator<ModeMapSelectList::SelectList> >::capacity
; Function compile flags: /Ogsp
; File c:\program files (x86)\microsoft visual studio 10.0\vc\include\vector
;	COMDAT ?capacity@?$vector@USelectList@ModeMapSelectList@@V?$allocator@USelectList@ModeMapSelectList@@@std@@@std@@QBEIXZ
_TEXT	SEGMENT
?capacity@?$vector@USelectList@ModeMapSelectList@@V?$allocator@USelectList@ModeMapSelectList@@@std@@@std@@QBEIXZ PROC ; std::vector<ModeMapSelectList::SelectList,std::allocator<ModeMapSelectList::SelectList> >::capacity, COMDAT
; _this$ = ecx

; 777  : 		return (this->_Myend - this->_Myfirst);

  00000	8b 41 08	 mov	 eax, DWORD PTR [ecx+8]
  00003	2b 01		 sub	 eax, DWORD PTR [ecx]
  00005	6a 24		 push	 36			; 00000024H
  00007	99		 cdq
  00008	59		 pop	 ecx
  00009	f7 f9		 idiv	 ecx

; 778  : 		}

  0000b	c3		 ret	 0
?capacity@?$vector@USelectList@ModeMapSelectList@@V?$allocator@USelectList@ModeMapSelectList@@@std@@@std@@QBEIXZ ENDP ; std::vector<ModeMapSelectList::SelectList,std::allocator<ModeMapSelectList::SelectList> >::capacity
_TEXT	ENDS
PUBLIC	??_C@_0BD@OLBABOEK@vector?$DMT?$DO?5too?5long?$AA@ ; `string'
PUBLIC	?_Xlen@?$vector@USelectList@ModeMapSelectList@@V?$allocator@USelectList@ModeMapSelectList@@@std@@@std@@IBEXXZ ; std::vector<ModeMapSelectList::SelectList,std::allocator<ModeMapSelectList::SelectList> >::_Xlen
EXTRN	__imp_?_Xlength_error@std@@YAXPBD@Z:PROC
;	COMDAT ??_C@_0BD@OLBABOEK@vector?$DMT?$DO?5too?5long?$AA@
CONST	SEGMENT
??_C@_0BD@OLBABOEK@vector?$DMT?$DO?5too?5long?$AA@ DB 'vector<T> too long'
	DB	00H						; `string'
; Function compile flags: /Ogsp
CONST	ENDS
;	COMDAT ?_Xlen@?$vector@USelectList@ModeMapSelectList@@V?$allocator@USelectList@ModeMapSelectList@@@std@@@std@@IBEXXZ
_TEXT	SEGMENT
?_Xlen@?$vector@USelectList@ModeMapSelectList@@V?$allocator@USelectList@ModeMapSelectList@@@std@@@std@@IBEXXZ PROC ; std::vector<ModeMapSelectList::SelectList,std::allocator<ModeMapSelectList::SelectList> >::_Xlen, COMDAT
; _this$ = ecx

; 1427 : 		_Xlength_error("vector<T> too long");

  00000	68 00 00 00 00	 push	 OFFSET ??_C@_0BD@OLBABOEK@vector?$DMT?$DO?5too?5long?$AA@
  00005	ff 15 00 00 00
	00		 call	 DWORD PTR __imp_?_Xlength_error@std@@YAXPBD@Z
$LN4@Xlen:
$LN3@Xlen:
  0000b	cc		 int	 3
?_Xlen@?$vector@USelectList@ModeMapSelectList@@V?$allocator@USelectList@ModeMapSelectList@@@std@@@std@@IBEXXZ ENDP ; std::vector<ModeMapSelectList::SelectList,std::allocator<ModeMapSelectList::SelectList> >::_Xlen
_TEXT	ENDS
PUBLIC	??0?$allocator@USelectList@ModeMapSelectList@@@std@@QAE@ABV01@@Z ; std::allocator<ModeMapSelectList::SelectList>::allocator<ModeMapSelectList::SelectList>
; Function compile flags: /Ogsp
; File c:\program files (x86)\microsoft visual studio 10.0\vc\include\xmemory
;	COMDAT ??0?$allocator@USelectList@ModeMapSelectList@@@std@@QAE@ABV01@@Z
_TEXT	SEGMENT
___formal$ = 8						; size = 4
??0?$allocator@USelectList@ModeMapSelectList@@@std@@QAE@ABV01@@Z PROC ; std::allocator<ModeMapSelectList::SelectList>::allocator<ModeMapSelectList::SelectList>, COMDAT
; _this$ = ecx

; 165  : 	_ALLOCATOR(const _ALLOCATOR<_Ty>&) _THROW0()

  00000	8b c1		 mov	 eax, ecx

; 166  : 		{	// construct by copying (do nothing)
; 167  : 		}

  00002	c2 04 00	 ret	 4
??0?$allocator@USelectList@ModeMapSelectList@@@std@@QAE@ABV01@@Z ENDP ; std::allocator<ModeMapSelectList::SelectList>::allocator<ModeMapSelectList::SelectList>
_TEXT	ENDS
PUBLIC	?deallocate@?$allocator@USelectList@ModeMapSelectList@@@std@@QAEXPAUSelectList@ModeMapSelectList@@I@Z ; std::allocator<ModeMapSelectList::SelectList>::deallocate
; Function compile flags: /Ogsp
;	COMDAT ?deallocate@?$allocator@USelectList@ModeMapSelectList@@@std@@QAEXPAUSelectList@ModeMapSelectList@@I@Z
_TEXT	SEGMENT
__Ptr$ = 8						; size = 4
___formal$ = 12						; size = 4
?deallocate@?$allocator@USelectList@ModeMapSelectList@@@std@@QAEXPAUSelectList@ModeMapSelectList@@I@Z PROC ; std::allocator<ModeMapSelectList::SelectList>::deallocate, COMDAT
; _this$ = ecx

; 181  : 		{	// deallocate object at _Ptr, ignore size

  00000	55		 push	 ebp
  00001	8b ec		 mov	 ebp, esp

; 182  : 		::operator delete(_Ptr);

  00003	ff 75 08	 push	 DWORD PTR __Ptr$[ebp]
  00006	e8 00 00 00 00	 call	 ??3@YAXPAX@Z		; operator delete
  0000b	59		 pop	 ecx

; 183  : 		}

  0000c	5d		 pop	 ebp
  0000d	c2 08 00	 ret	 8
?deallocate@?$allocator@USelectList@ModeMapSelectList@@@std@@QAEXPAUSelectList@ModeMapSelectList@@I@Z ENDP ; std::allocator<ModeMapSelectList::SelectList>::deallocate
_TEXT	ENDS
PUBLIC	?capacity@?$vector@USelectList@CreateModeSelectList@@V?$allocator@USelectList@CreateModeSelectList@@@std@@@std@@QBEIXZ ; std::vector<CreateModeSelectList::SelectList,std::allocator<CreateModeSelectList::SelectList> >::capacity
; Function compile flags: /Ogsp
; File c:\program files (x86)\microsoft visual studio 10.0\vc\include\vector
;	COMDAT ?capacity@?$vector@USelectList@CreateModeSelectList@@V?$allocator@USelectList@CreateModeSelectList@@@std@@@std@@QBEIXZ
_TEXT	SEGMENT
?capacity@?$vector@USelectList@CreateModeSelectList@@V?$allocator@USelectList@CreateModeSelectList@@@std@@@std@@QBEIXZ PROC ; std::vector<CreateModeSelectList::SelectList,std::allocator<CreateModeSelectList::SelectList> >::capacity, COMDAT
; _this$ = ecx

; 777  : 		return (this->_Myend - this->_Myfirst);

  00000	8b 41 08	 mov	 eax, DWORD PTR [ecx+8]
  00003	2b 01		 sub	 eax, DWORD PTR [ecx]
  00005	c1 f8 05	 sar	 eax, 5

; 778  : 		}

  00008	c3		 ret	 0
?capacity@?$vector@USelectList@CreateModeSelectList@@V?$allocator@USelectList@CreateModeSelectList@@@std@@@std@@QBEIXZ ENDP ; std::vector<CreateModeSelectList::SelectList,std::allocator<CreateModeSelectList::SelectList> >::capacity
_TEXT	ENDS
PUBLIC	?_Xlen@?$vector@USelectList@CreateModeSelectList@@V?$allocator@USelectList@CreateModeSelectList@@@std@@@std@@IBEXXZ ; std::vector<CreateModeSelectList::SelectList,std::allocator<CreateModeSelectList::SelectList> >::_Xlen
; Function compile flags: /Ogsp
;	COMDAT ?_Xlen@?$vector@USelectList@CreateModeSelectList@@V?$allocator@USelectList@CreateModeSelectList@@@std@@@std@@IBEXXZ
_TEXT	SEGMENT
?_Xlen@?$vector@USelectList@CreateModeSelectList@@V?$allocator@USelectList@CreateModeSelectList@@@std@@@std@@IBEXXZ PROC ; std::vector<CreateModeSelectList::SelectList,std::allocator<CreateModeSelectList::SelectList> >::_Xlen, COMDAT
; _this$ = ecx

; 1427 : 		_Xlength_error("vector<T> too long");

  00000	68 00 00 00 00	 push	 OFFSET ??_C@_0BD@OLBABOEK@vector?$DMT?$DO?5too?5long?$AA@
  00005	ff 15 00 00 00
	00		 call	 DWORD PTR __imp_?_Xlength_error@std@@YAXPBD@Z
$LN4@Xlen@2:
$LN3@Xlen@2:
  0000b	cc		 int	 3
?_Xlen@?$vector@USelectList@CreateModeSelectList@@V?$allocator@USelectList@CreateModeSelectList@@@std@@@std@@IBEXXZ ENDP ; std::vector<CreateModeSelectList::SelectList,std::allocator<CreateModeSelectList::SelectList> >::_Xlen
_TEXT	ENDS
PUBLIC	??0?$allocator@USelectList@CreateModeSelectList@@@std@@QAE@ABV01@@Z ; std::allocator<CreateModeSelectList::SelectList>::allocator<CreateModeSelectList::SelectList>
; Function compile flags: /Ogsp
; File c:\program files (x86)\microsoft visual studio 10.0\vc\include\xmemory
;	COMDAT ??0?$allocator@USelectList@CreateModeSelectList@@@std@@QAE@ABV01@@Z
_TEXT	SEGMENT
___formal$ = 8						; size = 4
??0?$allocator@USelectList@CreateModeSelectList@@@std@@QAE@ABV01@@Z PROC ; std::allocator<CreateModeSelectList::SelectList>::allocator<CreateModeSelectList::SelectList>, COMDAT
; _this$ = ecx

; 165  : 	_ALLOCATOR(const _ALLOCATOR<_Ty>&) _THROW0()

  00000	8b c1		 mov	 eax, ecx

; 166  : 		{	// construct by copying (do nothing)
; 167  : 		}

  00002	c2 04 00	 ret	 4
??0?$allocator@USelectList@CreateModeSelectList@@@std@@QAE@ABV01@@Z ENDP ; std::allocator<CreateModeSelectList::SelectList>::allocator<CreateModeSelectList::SelectList>
_TEXT	ENDS
PUBLIC	?deallocate@?$allocator@USelectList@CreateModeSelectList@@@std@@QAEXPAUSelectList@CreateModeSelectList@@I@Z ; std::allocator<CreateModeSelectList::SelectList>::deallocate
; Function compile flags: /Ogsp
;	COMDAT ?deallocate@?$allocator@USelectList@CreateModeSelectList@@@std@@QAEXPAUSelectList@CreateModeSelectList@@I@Z
_TEXT	SEGMENT
__Ptr$ = 8						; size = 4
___formal$ = 12						; size = 4
?deallocate@?$allocator@USelectList@CreateModeSelectList@@@std@@QAEXPAUSelectList@CreateModeSelectList@@I@Z PROC ; std::allocator<CreateModeSelectList::SelectList>::deallocate, COMDAT
; _this$ = ecx

; 181  : 		{	// deallocate object at _Ptr, ignore size

  00000	55		 push	 ebp
  00001	8b ec		 mov	 ebp, esp

; 182  : 		::operator delete(_Ptr);

  00003	ff 75 08	 push	 DWORD PTR __Ptr$[ebp]
  00006	e8 00 00 00 00	 call	 ??3@YAXPAX@Z		; operator delete
  0000b	59		 pop	 ecx

; 183  : 		}

  0000c	5d		 pop	 ebp
  0000d	c2 08 00	 ret	 8
?deallocate@?$allocator@USelectList@CreateModeSelectList@@@std@@QAEXPAUSelectList@CreateModeSelectList@@I@Z ENDP ; std::allocator<CreateModeSelectList::SelectList>::deallocate
_TEXT	ENDS
PUBLIC	?max_size@?$allocator@USelectList@ModeMapSelectList@@@std@@QBEIXZ ; std::allocator<ModeMapSelectList::SelectList>::max_size
; Function compile flags: /Ogsp
;	COMDAT ?max_size@?$allocator@USelectList@ModeMapSelectList@@@std@@QBEIXZ
_TEXT	SEGMENT
?max_size@?$allocator@USelectList@ModeMapSelectList@@@std@@QBEIXZ PROC ; std::allocator<ModeMapSelectList::SelectList>::max_size, COMDAT
; _this$ = ecx

; 218  : 		_SIZT _Count = (_SIZT)(-1) / sizeof (_Ty);
; 219  : 		return (0 < _Count ? _Count : 1);

  00000	b8 c7 71 1c 07	 mov	 eax, 119304647		; 071c71c7H

; 220  : 		}

  00005	c3		 ret	 0
?max_size@?$allocator@USelectList@ModeMapSelectList@@@std@@QBEIXZ ENDP ; std::allocator<ModeMapSelectList::SelectList>::max_size
_TEXT	ENDS
PUBLIC	?max_size@?$allocator@USelectList@CreateModeSelectList@@@std@@QBEIXZ ; std::allocator<CreateModeSelectList::SelectList>::max_size
; Function compile flags: /Ogsp
;	COMDAT ?max_size@?$allocator@USelectList@CreateModeSelectList@@@std@@QBEIXZ
_TEXT	SEGMENT
?max_size@?$allocator@USelectList@CreateModeSelectList@@@std@@QBEIXZ PROC ; std::allocator<CreateModeSelectList::SelectList>::max_size, COMDAT
; _this$ = ecx

; 218  : 		_SIZT _Count = (_SIZT)(-1) / sizeof (_Ty);
; 219  : 		return (0 < _Count ? _Count : 1);

  00000	b8 ff ff ff 07	 mov	 eax, 134217727		; 07ffffffH

; 220  : 		}

  00005	c3		 ret	 0
?max_size@?$allocator@USelectList@CreateModeSelectList@@@std@@QBEIXZ ENDP ; std::allocator<CreateModeSelectList::SelectList>::max_size
_TEXT	ENDS
PUBLIC	??0?$_Vector_const_iterator@V?$_Vector_val@USelectList@ModeMapSelectList@@V?$allocator@USelectList@ModeMapSelectList@@@std@@@std@@@std@@QAE@PAUSelectList@ModeMapSelectList@@PBU_Container_base0@1@@Z ; std::_Vector_const_iterator<std::_Vector_val<ModeMapSelectList::SelectList,std::allocator<ModeMapSelectList::SelectList> > >::_Vector_const_iterator<std::_Vector_val<ModeMapSelectList::SelectList,std::allocator<ModeMapSelectList::SelectList> > >
; Function compile flags: /Ogsp
; File c:\program files (x86)\microsoft visual studio 10.0\vc\include\vector
;	COMDAT ??0?$_Vector_const_iterator@V?$_Vector_val@USelectList@ModeMapSelectList@@V?$allocator@USelectList@ModeMapSelectList@@@std@@@std@@@std@@QAE@PAUSelectList@ModeMapSelectList@@PBU_Container_base0@1@@Z
_TEXT	SEGMENT
__Parg$ = 8						; size = 4
__Pvector$ = 12						; size = 4
??0?$_Vector_const_iterator@V?$_Vector_val@USelectList@ModeMapSelectList@@V?$allocator@USelectList@ModeMapSelectList@@@std@@@std@@@std@@QAE@PAUSelectList@ModeMapSelectList@@PBU_Container_base0@1@@Z PROC ; std::_Vector_const_iterator<std::_Vector_val<ModeMapSelectList::SelectList,std::allocator<ModeMapSelectList::SelectList> > >::_Vector_const_iterator<std::_Vector_val<ModeMapSelectList::SelectList,std::allocator<ModeMapSelectList::SelectList> > >, COMDAT
; _this$ = ecx

; 45   : 		{	// construct with pointer _Parg

  00000	55		 push	 ebp
  00001	8b ec		 mov	 ebp, esp
  00003	8b c1		 mov	 eax, ecx
  00005	8b 4d 08	 mov	 ecx, DWORD PTR __Parg$[ebp]
  00008	89 08		 mov	 DWORD PTR [eax], ecx

; 46   : 		this->_Adopt(_Pvector);
; 47   : 		}

  0000a	5d		 pop	 ebp
  0000b	c2 08 00	 ret	 8
??0?$_Vector_const_iterator@V?$_Vector_val@USelectList@ModeMapSelectList@@V?$allocator@USelectList@ModeMapSelectList@@@std@@@std@@@std@@QAE@PAUSelectList@ModeMapSelectList@@PBU_Container_base0@1@@Z ENDP ; std::_Vector_const_iterator<std::_Vector_val<ModeMapSelectList::SelectList,std::allocator<ModeMapSelectList::SelectList> > >::_Vector_const_iterator<std::_Vector_val<ModeMapSelectList::SelectList,std::allocator<ModeMapSelectList::SelectList> > >
_TEXT	ENDS
PUBLIC	??0?$_Vector_const_iterator@V?$_Vector_val@USelectList@CreateModeSelectList@@V?$allocator@USelectList@CreateModeSelectList@@@std@@@std@@@std@@QAE@PAUSelectList@CreateModeSelectList@@PBU_Container_base0@1@@Z ; std::_Vector_const_iterator<std::_Vector_val<CreateModeSelectList::SelectList,std::allocator<CreateModeSelectList::SelectList> > >::_Vector_const_iterator<std::_Vector_val<CreateModeSelectList::SelectList,std::allocator<CreateModeSelectList::SelectList> > >
; Function compile flags: /Ogsp
;	COMDAT ??0?$_Vector_const_iterator@V?$_Vector_val@USelectList@CreateModeSelectList@@V?$allocator@USelectList@CreateModeSelectList@@@std@@@std@@@std@@QAE@PAUSelectList@CreateModeSelectList@@PBU_Container_base0@1@@Z
_TEXT	SEGMENT
__Parg$ = 8						; size = 4
__Pvector$ = 12						; size = 4
??0?$_Vector_const_iterator@V?$_Vector_val@USelectList@CreateModeSelectList@@V?$allocator@USelectList@CreateModeSelectList@@@std@@@std@@@std@@QAE@PAUSelectList@CreateModeSelectList@@PBU_Container_base0@1@@Z PROC ; std::_Vector_const_iterator<std::_Vector_val<CreateModeSelectList::SelectList,std::allocator<CreateModeSelectList::SelectList> > >::_Vector_const_iterator<std::_Vector_val<CreateModeSelectList::SelectList,std::allocator<CreateModeSelectList::SelectList> > >, COMDAT
; _this$ = ecx

; 45   : 		{	// construct with pointer _Parg

  00000	55		 push	 ebp
  00001	8b ec		 mov	 ebp, esp
  00003	8b c1		 mov	 eax, ecx
  00005	8b 4d 08	 mov	 ecx, DWORD PTR __Parg$[ebp]
  00008	89 08		 mov	 DWORD PTR [eax], ecx

; 46   : 		this->_Adopt(_Pvector);
; 47   : 		}

  0000a	5d		 pop	 ebp
  0000b	c2 08 00	 ret	 8
??0?$_Vector_const_iterator@V?$_Vector_val@USelectList@CreateModeSelectList@@V?$allocator@USelectList@CreateModeSelectList@@@std@@@std@@@std@@QAE@PAUSelectList@CreateModeSelectList@@PBU_Container_base0@1@@Z ENDP ; std::_Vector_const_iterator<std::_Vector_val<CreateModeSelectList::SelectList,std::allocator<CreateModeSelectList::SelectList> > >::_Vector_const_iterator<std::_Vector_val<CreateModeSelectList::SelectList,std::allocator<CreateModeSelectList::SelectList> > >
_TEXT	ENDS
PUBLIC	?_Compat@?$_Vector_const_iterator@V?$_Vector_val@USelectList@ModeMapSelectList@@V?$allocator@USelectList@ModeMapSelectList@@@std@@@std@@@std@@QBEXABV12@@Z ; std::_Vector_const_iterator<std::_Vector_val<ModeMapSelectList::SelectList,std::allocator<ModeMapSelectList::SelectList> > >::_Compat
; Function compile flags: /Ogsp
;	COMDAT ?_Compat@?$_Vector_const_iterator@V?$_Vector_val@USelectList@ModeMapSelectList@@V?$allocator@USelectList@ModeMapSelectList@@@std@@@std@@@std@@QBEXABV12@@Z
_TEXT	SEGMENT
___formal$ = 8						; size = 4
?_Compat@?$_Vector_const_iterator@V?$_Vector_val@USelectList@ModeMapSelectList@@V?$allocator@USelectList@ModeMapSelectList@@@std@@@std@@@std@@QBEXABV12@@Z PROC ; std::_Vector_const_iterator<std::_Vector_val<ModeMapSelectList::SelectList,std::allocator<ModeMapSelectList::SelectList> > >::_Compat, COMDAT
; _this$ = ecx

; 253  : 		}

  00000	c2 04 00	 ret	 4
?_Compat@?$_Vector_const_iterator@V?$_Vector_val@USelectList@ModeMapSelectList@@V?$allocator@USelectList@ModeMapSelectList@@@std@@@std@@@std@@QBEXABV12@@Z ENDP ; std::_Vector_const_iterator<std::_Vector_val<ModeMapSelectList::SelectList,std::allocator<ModeMapSelectList::SelectList> > >::_Compat
_TEXT	ENDS
PUBLIC	?_Compat@?$_Vector_const_iterator@V?$_Vector_val@USelectList@CreateModeSelectList@@V?$allocator@USelectList@CreateModeSelectList@@@std@@@std@@@std@@QBEXABV12@@Z ; std::_Vector_const_iterator<std::_Vector_val<CreateModeSelectList::SelectList,std::allocator<CreateModeSelectList::SelectList> > >::_Compat
; Function compile flags: /Ogsp
;	COMDAT ?_Compat@?$_Vector_const_iterator@V?$_Vector_val@USelectList@CreateModeSelectList@@V?$allocator@USelectList@CreateModeSelectList@@@std@@@std@@@std@@QBEXABV12@@Z
_TEXT	SEGMENT
___formal$ = 8						; size = 4
?_Compat@?$_Vector_const_iterator@V?$_Vector_val@USelectList@CreateModeSelectList@@V?$allocator@USelectList@CreateModeSelectList@@@std@@@std@@@std@@QBEXABV12@@Z PROC ; std::_Vector_const_iterator<std::_Vector_val<CreateModeSelectList::SelectList,std::allocator<CreateModeSelectList::SelectList> > >::_Compat, COMDAT
; _this$ = ecx

; 253  : 		}

  00000	c2 04 00	 ret	 4
?_Compat@?$_Vector_const_iterator@V?$_Vector_val@USelectList@CreateModeSelectList@@V?$allocator@USelectList@CreateModeSelectList@@@std@@@std@@@std@@QBEXABV12@@Z ENDP ; std::_Vector_const_iterator<std::_Vector_val<CreateModeSelectList::SelectList,std::allocator<CreateModeSelectList::SelectList> > >::_Compat
_TEXT	ENDS
PUBLIC	??$addressof@$$CBUSelectList@ModeMapSelectList@@@std@@YAPBUSelectList@ModeMapSelectList@@ABU12@@Z ; std::addressof<ModeMapSelectList::SelectList const >
; Function compile flags: /Ogsp
; File c:\program files (x86)\microsoft visual studio 10.0\vc\include\xmemory
;	COMDAT ??$addressof@$$CBUSelectList@ModeMapSelectList@@@std@@YAPBUSelectList@ModeMapSelectList@@ABU12@@Z
_TEXT	SEGMENT
__Val$ = 8						; size = 4
??$addressof@$$CBUSelectList@ModeMapSelectList@@@std@@YAPBUSelectList@ModeMapSelectList@@ABU12@@Z PROC ; std::addressof<ModeMapSelectList::SelectList const >, COMDAT

; 110  : 	{	// return address of _Val

  00000	55		 push	 ebp
  00001	8b ec		 mov	 ebp, esp

; 111  : 	return ((_Ty *) &(char&)_Val);

  00003	8b 45 08	 mov	 eax, DWORD PTR __Val$[ebp]

; 112  : 	}

  00006	5d		 pop	 ebp
  00007	c3		 ret	 0
??$addressof@$$CBUSelectList@ModeMapSelectList@@@std@@YAPBUSelectList@ModeMapSelectList@@ABU12@@Z ENDP ; std::addressof<ModeMapSelectList::SelectList const >
_TEXT	ENDS
PUBLIC	??$addressof@$$CBUSelectList@CreateModeSelectList@@@std@@YAPBUSelectList@CreateModeSelectList@@ABU12@@Z ; std::addressof<CreateModeSelectList::SelectList const >
; Function compile flags: /Ogsp
;	COMDAT ??$addressof@$$CBUSelectList@CreateModeSelectList@@@std@@YAPBUSelectList@CreateModeSelectList@@ABU12@@Z
_TEXT	SEGMENT
__Val$ = 8						; size = 4
??$addressof@$$CBUSelectList@CreateModeSelectList@@@std@@YAPBUSelectList@CreateModeSelectList@@ABU12@@Z PROC ; std::addressof<CreateModeSelectList::SelectList const >, COMDAT

; 110  : 	{	// return address of _Val

  00000	55		 push	 ebp
  00001	8b ec		 mov	 ebp, esp

; 111  : 	return ((_Ty *) &(char&)_Val);

  00003	8b 45 08	 mov	 eax, DWORD PTR __Val$[ebp]

; 112  : 	}

  00006	5d		 pop	 ebp
  00007	c3		 ret	 0
??$addressof@$$CBUSelectList@CreateModeSelectList@@@std@@YAPBUSelectList@CreateModeSelectList@@ABU12@@Z ENDP ; std::addressof<CreateModeSelectList::SelectList const >
_TEXT	ENDS
PUBLIC	__TI2?AVbad_alloc@std@@
PUBLIC	??$_Allocate@USelectList@ModeMapSelectList@@@std@@YAPAUSelectList@ModeMapSelectList@@IPAU12@@Z ; std::_Allocate<ModeMapSelectList::SelectList>
PUBLIC	__CTA2?AVbad_alloc@std@@
PUBLIC	__CT??_R0?AVbad_alloc@std@@@8??0bad_alloc@std@@QAE@ABV01@@Z12
PUBLIC	??0bad_alloc@std@@QAE@ABV01@@Z			; std::bad_alloc::bad_alloc
PUBLIC	__CT??_R0?AVexception@std@@@8??0exception@std@@QAE@ABV01@@Z12
EXTRN	??2@YAPAXI@Z:PROC				; operator new
EXTRN	__CxxThrowException@8:PROC
EXTRN	??0exception@std@@QAE@ABV01@@Z:PROC		; std::exception::exception
;	COMDAT __CT??_R0?AVexception@std@@@8??0exception@std@@QAE@ABV01@@Z12
; File c:\program files (x86)\microsoft visual studio 10.0\vc\include\exception
xdata$x	SEGMENT
__CT??_R0?AVexception@std@@@8??0exception@std@@QAE@ABV01@@Z12 DD 00H
	DD	FLAT:??_R0?AVexception@std@@@8
	DD	00H
	DD	0ffffffffH
	ORG $+4
	DD	0cH
	DD	FLAT:??0exception@std@@QAE@ABV01@@Z
xdata$x	ENDS
;	COMDAT __CT??_R0?AVbad_alloc@std@@@8??0bad_alloc@std@@QAE@ABV01@@Z12
xdata$x	SEGMENT
__CT??_R0?AVbad_alloc@std@@@8??0bad_alloc@std@@QAE@ABV01@@Z12 DD 00H
	DD	FLAT:??_R0?AVbad_alloc@std@@@8
	DD	00H
	DD	0ffffffffH
	ORG $+4
	DD	0cH
	DD	FLAT:??0bad_alloc@std@@QAE@ABV01@@Z
xdata$x	ENDS
;	COMDAT __CTA2?AVbad_alloc@std@@
xdata$x	SEGMENT
__CTA2?AVbad_alloc@std@@ DD 02H
	DD	FLAT:__CT??_R0?AVbad_alloc@std@@@8??0bad_alloc@std@@QAE@ABV01@@Z12
	DD	FLAT:__CT??_R0?AVexception@std@@@8??0exception@std@@QAE@ABV01@@Z12
xdata$x	ENDS
;	COMDAT __TI2?AVbad_alloc@std@@
xdata$x	SEGMENT
__TI2?AVbad_alloc@std@@ DD 00H
	DD	FLAT:??1bad_alloc@std@@UAE@XZ
	DD	00H
	DD	FLAT:__CTA2?AVbad_alloc@std@@
; Function compile flags: /Ogsp
; File c:\program files (x86)\microsoft visual studio 10.0\vc\include\xmemory
xdata$x	ENDS
;	COMDAT ??$_Allocate@USelectList@ModeMapSelectList@@@std@@YAPAUSelectList@ModeMapSelectList@@IPAU12@@Z
_TEXT	SEGMENT
$T513797 = -12						; size = 12
$T513802 = 8						; size = 4
__Count$ = 8						; size = 4
___formal$ = 12						; size = 4
??$_Allocate@USelectList@ModeMapSelectList@@@std@@YAPAUSelectList@ModeMapSelectList@@IPAU12@@Z PROC ; std::_Allocate<ModeMapSelectList::SelectList>, COMDAT

; 30   : 	{	// allocate storage for _Count elements of type _Ty

  00000	55		 push	 ebp
  00001	8b ec		 mov	 ebp, esp

; 31   : 	void *_Ptr = 0;
; 32   : 
; 33   : 	if (_Count <= 0)

  00003	8b 4d 08	 mov	 ecx, DWORD PTR __Count$[ebp]
  00006	83 ec 0c	 sub	 esp, 12			; 0000000cH
  00009	33 c0		 xor	 eax, eax
  0000b	85 c9		 test	 ecx, ecx

; 34   : 		_Count = 0;
; 35   : 	else if (((_SIZT)(-1) / sizeof (_Ty) < _Count)

  0000d	74 3c		 je	 SHORT $LN5@Allocate

; 36   : 		|| (_Ptr = ::operator new(_Count * sizeof (_Ty))) == 0)

  0000f	81 f9 c7 71 1c
	07		 cmp	 ecx, 119304647		; 071c71c7H
  00015	77 0e		 ja	 SHORT $LN1@Allocate
  00017	6b c9 24	 imul	 ecx, 36			; 00000024H
  0001a	51		 push	 ecx
  0001b	e8 00 00 00 00	 call	 ??2@YAPAXI@Z		; operator new
  00020	59		 pop	 ecx
  00021	85 c0		 test	 eax, eax

; 38   : 
; 39   : 	return ((_Ty _FARQ *)_Ptr);

  00023	75 26		 jne	 SHORT $LN5@Allocate
$LN1@Allocate:

; 37   : 		_THROW_NCEE(bad_alloc, 0);

  00025	83 65 08 00	 and	 DWORD PTR $T513802[ebp], 0
  00029	8d 45 08	 lea	 eax, DWORD PTR $T513802[ebp]
  0002c	50		 push	 eax
  0002d	8d 4d f4	 lea	 ecx, DWORD PTR $T513797[ebp]
  00030	ff 15 00 00 00
	00		 call	 DWORD PTR __imp_??0exception@std@@QAE@ABQBD@Z
  00036	68 00 00 00 00	 push	 OFFSET __TI2?AVbad_alloc@std@@
  0003b	8d 45 f4	 lea	 eax, DWORD PTR $T513797[ebp]
  0003e	50		 push	 eax
  0003f	c7 45 f4 00 00
	00 00		 mov	 DWORD PTR $T513797[ebp], OFFSET ??_7bad_alloc@std@@6B@
  00046	e8 00 00 00 00	 call	 __CxxThrowException@8
$LN10@Allocate:
$LN5@Allocate:

; 40   : 	}

  0004b	c9		 leave
  0004c	c3		 ret	 0
$LN9@Allocate:
??$_Allocate@USelectList@ModeMapSelectList@@@std@@YAPAUSelectList@ModeMapSelectList@@IPAU12@@Z ENDP ; std::_Allocate<ModeMapSelectList::SelectList>
_TEXT	ENDS
PUBLIC	??$_Allocate@USelectList@CreateModeSelectList@@@std@@YAPAUSelectList@CreateModeSelectList@@IPAU12@@Z ; std::_Allocate<CreateModeSelectList::SelectList>
; Function compile flags: /Ogsp
;	COMDAT ??$_Allocate@USelectList@CreateModeSelectList@@@std@@YAPAUSelectList@CreateModeSelectList@@IPAU12@@Z
_TEXT	SEGMENT
$T513807 = -12						; size = 12
$T513811 = 8						; size = 4
__Count$ = 8						; size = 4
___formal$ = 12						; size = 4
??$_Allocate@USelectList@CreateModeSelectList@@@std@@YAPAUSelectList@CreateModeSelectList@@IPAU12@@Z PROC ; std::_Allocate<CreateModeSelectList::SelectList>, COMDAT

; 30   : 	{	// allocate storage for _Count elements of type _Ty

  00000	55		 push	 ebp
  00001	8b ec		 mov	 ebp, esp

; 31   : 	void *_Ptr = 0;
; 32   : 
; 33   : 	if (_Count <= 0)

  00003	8b 4d 08	 mov	 ecx, DWORD PTR __Count$[ebp]
  00006	83 ec 0c	 sub	 esp, 12			; 0000000cH
  00009	33 c0		 xor	 eax, eax
  0000b	85 c9		 test	 ecx, ecx

; 34   : 		_Count = 0;
; 35   : 	else if (((_SIZT)(-1) / sizeof (_Ty) < _Count)

  0000d	74 3c		 je	 SHORT $LN5@Allocate@2

; 36   : 		|| (_Ptr = ::operator new(_Count * sizeof (_Ty))) == 0)

  0000f	81 f9 ff ff ff
	07		 cmp	 ecx, 134217727		; 07ffffffH
  00015	77 0e		 ja	 SHORT $LN1@Allocate@2
  00017	c1 e1 05	 shl	 ecx, 5
  0001a	51		 push	 ecx
  0001b	e8 00 00 00 00	 call	 ??2@YAPAXI@Z		; operator new
  00020	59		 pop	 ecx
  00021	85 c0		 test	 eax, eax

; 38   : 
; 39   : 	return ((_Ty _FARQ *)_Ptr);

  00023	75 26		 jne	 SHORT $LN5@Allocate@2
$LN1@Allocate@2:

; 37   : 		_THROW_NCEE(bad_alloc, 0);

  00025	83 65 08 00	 and	 DWORD PTR $T513811[ebp], 0
  00029	8d 45 08	 lea	 eax, DWORD PTR $T513811[ebp]
  0002c	50		 push	 eax
  0002d	8d 4d f4	 lea	 ecx, DWORD PTR $T513807[ebp]
  00030	ff 15 00 00 00
	00		 call	 DWORD PTR __imp_??0exception@std@@QAE@ABQBD@Z
  00036	68 00 00 00 00	 push	 OFFSET __TI2?AVbad_alloc@std@@
  0003b	8d 45 f4	 lea	 eax, DWORD PTR $T513807[ebp]
  0003e	50		 push	 eax
  0003f	c7 45 f4 00 00
	00 00		 mov	 DWORD PTR $T513807[ebp], OFFSET ??_7bad_alloc@std@@6B@
  00046	e8 00 00 00 00	 call	 __CxxThrowException@8
$LN10@Allocate@2:
$LN5@Allocate@2:

; 40   : 	}

  0004b	c9		 leave
  0004c	c3		 ret	 0
$LN9@Allocate@2:
??$_Allocate@USelectList@CreateModeSelectList@@@std@@YAPAUSelectList@CreateModeSelectList@@IPAU12@@Z ENDP ; std::_Allocate<CreateModeSelectList::SelectList>
_TEXT	ENDS
PUBLIC	??$forward@AAUSelectList@ModeMapSelectList@@@std@@YAAAUSelectList@ModeMapSelectList@@AAU12@@Z ; std::forward<ModeMapSelectList::SelectList &>
; Function compile flags: /Ogsp
; File c:\program files (x86)\microsoft visual studio 10.0\vc\include\utility
;	COMDAT ??$forward@AAUSelectList@ModeMapSelectList@@@std@@YAAAUSelectList@ModeMapSelectList@@AAU12@@Z
_TEXT	SEGMENT
__Arg$ = 8						; size = 4
??$forward@AAUSelectList@ModeMapSelectList@@@std@@YAAAUSelectList@ModeMapSelectList@@AAU12@@Z PROC ; std::forward<ModeMapSelectList::SelectList &>, COMDAT

; 78   : 	{	// forward _Arg, given explicitly specified type parameter

  00000	55		 push	 ebp
  00001	8b ec		 mov	 ebp, esp

; 79   : 	return ((_Ty&&)_Arg);

  00003	8b 45 08	 mov	 eax, DWORD PTR __Arg$[ebp]

; 80   : 	}

  00006	5d		 pop	 ebp
  00007	c3		 ret	 0
??$forward@AAUSelectList@ModeMapSelectList@@@std@@YAAAUSelectList@ModeMapSelectList@@AAU12@@Z ENDP ; std::forward<ModeMapSelectList::SelectList &>
_TEXT	ENDS
PUBLIC	??$forward@ABUSelectList@ModeMapSelectList@@@std@@YAABUSelectList@ModeMapSelectList@@ABU12@@Z ; std::forward<ModeMapSelectList::SelectList const &>
; Function compile flags: /Ogsp
;	COMDAT ??$forward@ABUSelectList@ModeMapSelectList@@@std@@YAABUSelectList@ModeMapSelectList@@ABU12@@Z
_TEXT	SEGMENT
__Arg$ = 8						; size = 4
??$forward@ABUSelectList@ModeMapSelectList@@@std@@YAABUSelectList@ModeMapSelectList@@ABU12@@Z PROC ; std::forward<ModeMapSelectList::SelectList const &>, COMDAT

; 78   : 	{	// forward _Arg, given explicitly specified type parameter

  00000	55		 push	 ebp
  00001	8b ec		 mov	 ebp, esp

; 79   : 	return ((_Ty&&)_Arg);

  00003	8b 45 08	 mov	 eax, DWORD PTR __Arg$[ebp]

; 80   : 	}

  00006	5d		 pop	 ebp
  00007	c3		 ret	 0
??$forward@ABUSelectList@ModeMapSelectList@@@std@@YAABUSelectList@ModeMapSelectList@@ABU12@@Z ENDP ; std::forward<ModeMapSelectList::SelectList const &>
_TEXT	ENDS
PUBLIC	??$forward@AAUSelectList@CreateModeSelectList@@@std@@YAAAUSelectList@CreateModeSelectList@@AAU12@@Z ; std::forward<CreateModeSelectList::SelectList &>
; Function compile flags: /Ogsp
;	COMDAT ??$forward@AAUSelectList@CreateModeSelectList@@@std@@YAAAUSelectList@CreateModeSelectList@@AAU12@@Z
_TEXT	SEGMENT
__Arg$ = 8						; size = 4
??$forward@AAUSelectList@CreateModeSelectList@@@std@@YAAAUSelectList@CreateModeSelectList@@AAU12@@Z PROC ; std::forward<CreateModeSelectList::SelectList &>, COMDAT

; 78   : 	{	// forward _Arg, given explicitly specified type parameter

  00000	55		 push	 ebp
  00001	8b ec		 mov	 ebp, esp

; 79   : 	return ((_Ty&&)_Arg);

  00003	8b 45 08	 mov	 eax, DWORD PTR __Arg$[ebp]

; 80   : 	}

  00006	5d		 pop	 ebp
  00007	c3		 ret	 0
??$forward@AAUSelectList@CreateModeSelectList@@@std@@YAAAUSelectList@CreateModeSelectList@@AAU12@@Z ENDP ; std::forward<CreateModeSelectList::SelectList &>
_TEXT	ENDS
PUBLIC	??$forward@ABUSelectList@CreateModeSelectList@@@std@@YAABUSelectList@CreateModeSelectList@@ABU12@@Z ; std::forward<CreateModeSelectList::SelectList const &>
; Function compile flags: /Ogsp
;	COMDAT ??$forward@ABUSelectList@CreateModeSelectList@@@std@@YAABUSelectList@CreateModeSelectList@@ABU12@@Z
_TEXT	SEGMENT
__Arg$ = 8						; size = 4
??$forward@ABUSelectList@CreateModeSelectList@@@std@@YAABUSelectList@CreateModeSelectList@@ABU12@@Z PROC ; std::forward<CreateModeSelectList::SelectList const &>, COMDAT

; 78   : 	{	// forward _Arg, given explicitly specified type parameter

  00000	55		 push	 ebp
  00001	8b ec		 mov	 ebp, esp

; 79   : 	return ((_Ty&&)_Arg);

  00003	8b 45 08	 mov	 eax, DWORD PTR __Arg$[ebp]

; 80   : 	}

  00006	5d		 pop	 ebp
  00007	c3		 ret	 0
??$forward@ABUSelectList@CreateModeSelectList@@@std@@YAABUSelectList@CreateModeSelectList@@ABU12@@Z ENDP ; std::forward<CreateModeSelectList::SelectList const &>
_TEXT	ENDS
PUBLIC	??$_Ptr_cat@USelectList@ModeMapSelectList@@U12@@std@@YA?AU_Nonscalar_ptr_iterator_tag@0@PAUSelectList@ModeMapSelectList@@0@Z ; std::_Ptr_cat<ModeMapSelectList::SelectList,ModeMapSelectList::SelectList>
; Function compile flags: /Ogsp
; File c:\program files (x86)\microsoft visual studio 10.0\vc\include\xutility
;	COMDAT ??$_Ptr_cat@USelectList@ModeMapSelectList@@U12@@std@@YA?AU_Nonscalar_ptr_iterator_tag@0@PAUSelectList@ModeMapSelectList@@0@Z
_TEXT	SEGMENT
__Cat$ = -1						; size = 1
___formal$ = 8						; size = 4
___formal$ = 12						; size = 4
??$_Ptr_cat@USelectList@ModeMapSelectList@@U12@@std@@YA?AU_Nonscalar_ptr_iterator_tag@0@PAUSelectList@ModeMapSelectList@@0@Z PROC ; std::_Ptr_cat<ModeMapSelectList::SelectList,ModeMapSelectList::SelectList>, COMDAT

; 516  : 	{	// return pointer category from pointers

  00000	55		 push	 ebp
  00001	8b ec		 mov	 ebp, esp
  00003	51		 push	 ecx

; 517  : 	typename _Ptr_cat_helper<_Elem1, _Elem2>::_Type _Cat;
; 518  : 	return (_Cat);

  00004	8a 45 ff	 mov	 al, BYTE PTR __Cat$[ebp]

; 519  : 	}

  00007	c9		 leave
  00008	c3		 ret	 0
??$_Ptr_cat@USelectList@ModeMapSelectList@@U12@@std@@YA?AU_Nonscalar_ptr_iterator_tag@0@PAUSelectList@ModeMapSelectList@@0@Z ENDP ; std::_Ptr_cat<ModeMapSelectList::SelectList,ModeMapSelectList::SelectList>
_TEXT	ENDS
PUBLIC	??$_Ptr_cat@USelectList@CreateModeSelectList@@U12@@std@@YA?AU_Nonscalar_ptr_iterator_tag@0@PAUSelectList@CreateModeSelectList@@0@Z ; std::_Ptr_cat<CreateModeSelectList::SelectList,CreateModeSelectList::SelectList>
; Function compile flags: /Ogsp
;	COMDAT ??$_Ptr_cat@USelectList@CreateModeSelectList@@U12@@std@@YA?AU_Nonscalar_ptr_iterator_tag@0@PAUSelectList@CreateModeSelectList@@0@Z
_TEXT	SEGMENT
__Cat$ = -1						; size = 1
___formal$ = 8						; size = 4
___formal$ = 12						; size = 4
??$_Ptr_cat@USelectList@CreateModeSelectList@@U12@@std@@YA?AU_Nonscalar_ptr_iterator_tag@0@PAUSelectList@CreateModeSelectList@@0@Z PROC ; std::_Ptr_cat<CreateModeSelectList::SelectList,CreateModeSelectList::SelectList>, COMDAT

; 516  : 	{	// return pointer category from pointers

  00000	55		 push	 ebp
  00001	8b ec		 mov	 ebp, esp
  00003	51		 push	 ecx

; 517  : 	typename _Ptr_cat_helper<_Elem1, _Elem2>::_Type _Cat;
; 518  : 	return (_Cat);

  00004	8a 45 ff	 mov	 al, BYTE PTR __Cat$[ebp]

; 519  : 	}

  00007	c9		 leave
  00008	c3		 ret	 0
??$_Ptr_cat@USelectList@CreateModeSelectList@@U12@@std@@YA?AU_Nonscalar_ptr_iterator_tag@0@PAUSelectList@CreateModeSelectList@@0@Z ENDP ; std::_Ptr_cat<CreateModeSelectList::SelectList,CreateModeSelectList::SelectList>
_TEXT	ENDS
PUBLIC	??0SelectList@ModeMapSelectList@@QAE@ABU01@@Z	; ModeMapSelectList::SelectList::SelectList
EXTRN	__imp_??0ioHashString@@QAE@ABV0@@Z:PROC
; Function compile flags: /Ogsp
;	COMDAT ??0SelectList@ModeMapSelectList@@QAE@ABU01@@Z
_TEXT	SEGMENT
___that$ = 8						; size = 4
??0SelectList@ModeMapSelectList@@QAE@ABU01@@Z PROC	; ModeMapSelectList::SelectList::SelectList, COMDAT
; _this$ = ecx
  00000	55		 push	 ebp
  00001	8b ec		 mov	 ebp, esp
  00003	56		 push	 esi
  00004	8b f1		 mov	 esi, ecx
  00006	57		 push	 edi
  00007	8b 7d 08	 mov	 edi, DWORD PTR ___that$[ebp]
  0000a	8b 07		 mov	 eax, DWORD PTR [edi]
  0000c	89 06		 mov	 DWORD PTR [esi], eax
  0000e	8b 47 04	 mov	 eax, DWORD PTR [edi+4]
  00011	89 46 04	 mov	 DWORD PTR [esi+4], eax
  00014	8b 47 08	 mov	 eax, DWORD PTR [edi+8]
  00017	89 46 08	 mov	 DWORD PTR [esi+8], eax
  0001a	8a 47 0c	 mov	 al, BYTE PTR [edi+12]
  0001d	88 46 0c	 mov	 BYTE PTR [esi+12], al
  00020	8a 47 0d	 mov	 al, BYTE PTR [edi+13]
  00023	88 46 0d	 mov	 BYTE PTR [esi+13], al
  00026	8d 47 10	 lea	 eax, DWORD PTR [edi+16]
  00029	50		 push	 eax
  0002a	8d 4e 10	 lea	 ecx, DWORD PTR [esi+16]
  0002d	ff 15 00 00 00
	00		 call	 DWORD PTR __imp_??0ioHashString@@QAE@ABV0@@Z
  00033	8b 47 20	 mov	 eax, DWORD PTR [edi+32]
  00036	89 46 20	 mov	 DWORD PTR [esi+32], eax
  00039	5f		 pop	 edi
  0003a	8b c6		 mov	 eax, esi
  0003c	5e		 pop	 esi
  0003d	5d		 pop	 ebp
  0003e	c2 04 00	 ret	 4
??0SelectList@ModeMapSelectList@@QAE@ABU01@@Z ENDP	; ModeMapSelectList::SelectList::SelectList
_TEXT	ENDS
PUBLIC	??0SelectList@CreateModeSelectList@@QAE@ABU01@@Z ; CreateModeSelectList::SelectList::SelectList
; Function compile flags: /Ogsp
;	COMDAT ??0SelectList@CreateModeSelectList@@QAE@ABU01@@Z
_TEXT	SEGMENT
___that$ = 8						; size = 4
??0SelectList@CreateModeSelectList@@QAE@ABU01@@Z PROC	; CreateModeSelectList::SelectList::SelectList, COMDAT
; _this$ = ecx
  00000	55		 push	 ebp
  00001	8b ec		 mov	 ebp, esp
  00003	56		 push	 esi
  00004	57		 push	 edi
  00005	8b 7d 08	 mov	 edi, DWORD PTR ___that$[ebp]
  00008	8b 07		 mov	 eax, DWORD PTR [edi]
  0000a	8b f1		 mov	 esi, ecx
  0000c	89 06		 mov	 DWORD PTR [esi], eax
  0000e	8b 47 04	 mov	 eax, DWORD PTR [edi+4]
  00011	89 46 04	 mov	 DWORD PTR [esi+4], eax
  00014	8b 47 08	 mov	 eax, DWORD PTR [edi+8]
  00017	89 46 08	 mov	 DWORD PTR [esi+8], eax
  0001a	8d 47 0c	 lea	 eax, DWORD PTR [edi+12]
  0001d	50		 push	 eax
  0001e	8d 4e 0c	 lea	 ecx, DWORD PTR [esi+12]
  00021	ff 15 00 00 00
	00		 call	 DWORD PTR __imp_??0ioHashString@@QAE@ABV0@@Z
  00027	8b 47 1c	 mov	 eax, DWORD PTR [edi+28]
  0002a	89 46 1c	 mov	 DWORD PTR [esi+28], eax
  0002d	5f		 pop	 edi
  0002e	8b c6		 mov	 eax, esi
  00030	5e		 pop	 esi
  00031	5d		 pop	 ebp
  00032	c2 04 00	 ret	 4
??0SelectList@CreateModeSelectList@@QAE@ABU01@@Z ENDP	; CreateModeSelectList::SelectList::SelectList
_TEXT	ENDS
PUBLIC	??4SelectList@ModeMapSelectList@@QAEAAU01@ABU01@@Z ; ModeMapSelectList::SelectList::operator=
EXTRN	__imp_??4ioHashString@@QAEAAV0@ABV0@@Z:PROC
; Function compile flags: /Ogsp
;	COMDAT ??4SelectList@ModeMapSelectList@@QAEAAU01@ABU01@@Z
_TEXT	SEGMENT
___that$ = 8						; size = 4
??4SelectList@ModeMapSelectList@@QAEAAU01@ABU01@@Z PROC	; ModeMapSelectList::SelectList::operator=, COMDAT
; _this$ = ecx
  00000	55		 push	 ebp
  00001	8b ec		 mov	 ebp, esp
  00003	56		 push	 esi
  00004	8b f1		 mov	 esi, ecx
  00006	57		 push	 edi
  00007	8b 7d 08	 mov	 edi, DWORD PTR ___that$[ebp]
  0000a	8b 07		 mov	 eax, DWORD PTR [edi]
  0000c	89 06		 mov	 DWORD PTR [esi], eax
  0000e	8b 47 04	 mov	 eax, DWORD PTR [edi+4]
  00011	89 46 04	 mov	 DWORD PTR [esi+4], eax
  00014	8b 47 08	 mov	 eax, DWORD PTR [edi+8]
  00017	89 46 08	 mov	 DWORD PTR [esi+8], eax
  0001a	8a 47 0c	 mov	 al, BYTE PTR [edi+12]
  0001d	88 46 0c	 mov	 BYTE PTR [esi+12], al
  00020	8a 47 0d	 mov	 al, BYTE PTR [edi+13]
  00023	88 46 0d	 mov	 BYTE PTR [esi+13], al
  00026	8d 47 10	 lea	 eax, DWORD PTR [edi+16]
  00029	50		 push	 eax
  0002a	8d 4e 10	 lea	 ecx, DWORD PTR [esi+16]
  0002d	ff 15 00 00 00
	00		 call	 DWORD PTR __imp_??4ioHashString@@QAEAAV0@ABV0@@Z
  00033	8b 47 20	 mov	 eax, DWORD PTR [edi+32]
  00036	89 46 20	 mov	 DWORD PTR [esi+32], eax
  00039	5f		 pop	 edi
  0003a	8b c6		 mov	 eax, esi
  0003c	5e		 pop	 esi
  0003d	5d		 pop	 ebp
  0003e	c2 04 00	 ret	 4
??4SelectList@ModeMapSelectList@@QAEAAU01@ABU01@@Z ENDP	; ModeMapSelectList::SelectList::operator=
_TEXT	ENDS
PUBLIC	??4SelectList@CreateModeSelectList@@QAEAAU01@ABU01@@Z ; CreateModeSelectList::SelectList::operator=
; Function compile flags: /Ogsp
;	COMDAT ??4SelectList@CreateModeSelectList@@QAEAAU01@ABU01@@Z
_TEXT	SEGMENT
___that$ = 8						; size = 4
??4SelectList@CreateModeSelectList@@QAEAAU01@ABU01@@Z PROC ; CreateModeSelectList::SelectList::operator=, COMDAT
; _this$ = ecx
  00000	55		 push	 ebp
  00001	8b ec		 mov	 ebp, esp
  00003	56		 push	 esi
  00004	57		 push	 edi
  00005	8b 7d 08	 mov	 edi, DWORD PTR ___that$[ebp]
  00008	8b 07		 mov	 eax, DWORD PTR [edi]
  0000a	8b f1		 mov	 esi, ecx
  0000c	89 06		 mov	 DWORD PTR [esi], eax
  0000e	8b 47 04	 mov	 eax, DWORD PTR [edi+4]
  00011	89 46 04	 mov	 DWORD PTR [esi+4], eax
  00014	8b 47 08	 mov	 eax, DWORD PTR [edi+8]
  00017	89 46 08	 mov	 DWORD PTR [esi+8], eax
  0001a	8d 47 0c	 lea	 eax, DWORD PTR [edi+12]
  0001d	50		 push	 eax
  0001e	8d 4e 0c	 lea	 ecx, DWORD PTR [esi+12]
  00021	ff 15 00 00 00
	00		 call	 DWORD PTR __imp_??4ioHashString@@QAEAAV0@ABV0@@Z
  00027	8b 47 1c	 mov	 eax, DWORD PTR [edi+28]
  0002a	89 46 1c	 mov	 DWORD PTR [esi+28], eax
  0002d	5f		 pop	 edi
  0002e	8b c6		 mov	 eax, esi
  00030	5e		 pop	 esi
  00031	5d		 pop	 ebp
  00032	c2 04 00	 ret	 4
??4SelectList@CreateModeSelectList@@QAEAAU01@ABU01@@Z ENDP ; CreateModeSelectList::SelectList::operator=
_TEXT	ENDS
PUBLIC	??$move@AAUSelectList@ModeMapSelectList@@@std@@YA$$QAUSelectList@ModeMapSelectList@@AAU12@@Z ; std::move<ModeMapSelectList::SelectList &>
; Function compile flags: /Ogsp
; File c:\program files (x86)\microsoft visual studio 10.0\vc\include\utility
;	COMDAT ??$move@AAUSelectList@ModeMapSelectList@@@std@@YA$$QAUSelectList@ModeMapSelectList@@AAU12@@Z
_TEXT	SEGMENT
__Arg$ = 8						; size = 4
??$move@AAUSelectList@ModeMapSelectList@@@std@@YA$$QAUSelectList@ModeMapSelectList@@AAU12@@Z PROC ; std::move<ModeMapSelectList::SelectList &>, COMDAT

; 86   : 	{	// forward _Arg as movable

  00000	55		 push	 ebp
  00001	8b ec		 mov	 ebp, esp

; 87   : 	return ((typename tr1::_Remove_reference<_Ty>::_Type&&)_Arg);

  00003	8b 45 08	 mov	 eax, DWORD PTR __Arg$[ebp]

; 88   : 	}

  00006	5d		 pop	 ebp
  00007	c3		 ret	 0
??$move@AAUSelectList@ModeMapSelectList@@@std@@YA$$QAUSelectList@ModeMapSelectList@@AAU12@@Z ENDP ; std::move<ModeMapSelectList::SelectList &>
_TEXT	ENDS
PUBLIC	??$move@AAUSelectList@CreateModeSelectList@@@std@@YA$$QAUSelectList@CreateModeSelectList@@AAU12@@Z ; std::move<CreateModeSelectList::SelectList &>
; Function compile flags: /Ogsp
;	COMDAT ??$move@AAUSelectList@CreateModeSelectList@@@std@@YA$$QAUSelectList@CreateModeSelectList@@AAU12@@Z
_TEXT	SEGMENT
__Arg$ = 8						; size = 4
??$move@AAUSelectList@CreateModeSelectList@@@std@@YA$$QAUSelectList@CreateModeSelectList@@AAU12@@Z PROC ; std::move<CreateModeSelectList::SelectList &>, COMDAT

; 86   : 	{	// forward _Arg as movable

  00000	55		 push	 ebp
  00001	8b ec		 mov	 ebp, esp

; 87   : 	return ((typename tr1::_Remove_reference<_Ty>::_Type&&)_Arg);

  00003	8b 45 08	 mov	 eax, DWORD PTR __Arg$[ebp]

; 88   : 	}

  00006	5d		 pop	 ebp
  00007	c3		 ret	 0
??$move@AAUSelectList@CreateModeSelectList@@@std@@YA$$QAUSelectList@CreateModeSelectList@@AAU12@@Z ENDP ; std::move<CreateModeSelectList::SelectList &>
_TEXT	ENDS
PUBLIC	??$_Val_type@PAUSelectList@ModeMapSelectList@@@std@@YAPAUSelectList@ModeMapSelectList@@PAU12@@Z ; std::_Val_type<ModeMapSelectList::SelectList *>
; Function compile flags: /Ogsp
; File c:\program files (x86)\microsoft visual studio 10.0\vc\include\xutility
;	COMDAT ??$_Val_type@PAUSelectList@ModeMapSelectList@@@std@@YAPAUSelectList@ModeMapSelectList@@PAU12@@Z
_TEXT	SEGMENT
___formal$ = 8						; size = 4
??$_Val_type@PAUSelectList@ModeMapSelectList@@@std@@YAPAUSelectList@ModeMapSelectList@@PAU12@@Z PROC ; std::_Val_type<ModeMapSelectList::SelectList *>, COMDAT

; 790  : 	return (0);

  00000	33 c0		 xor	 eax, eax

; 791  : 	}

  00002	c3		 ret	 0
??$_Val_type@PAUSelectList@ModeMapSelectList@@@std@@YAPAUSelectList@ModeMapSelectList@@PAU12@@Z ENDP ; std::_Val_type<ModeMapSelectList::SelectList *>
_TEXT	ENDS
PUBLIC	??$_Val_type@PAUSelectList@CreateModeSelectList@@@std@@YAPAUSelectList@CreateModeSelectList@@PAU12@@Z ; std::_Val_type<CreateModeSelectList::SelectList *>
; Function compile flags: /Ogsp
;	COMDAT ??$_Val_type@PAUSelectList@CreateModeSelectList@@@std@@YAPAUSelectList@CreateModeSelectList@@PAU12@@Z
_TEXT	SEGMENT
___formal$ = 8						; size = 4
??$_Val_type@PAUSelectList@CreateModeSelectList@@@std@@YAPAUSelectList@CreateModeSelectList@@PAU12@@Z PROC ; std::_Val_type<CreateModeSelectList::SelectList *>, COMDAT

; 790  : 	return (0);

  00000	33 c0		 xor	 eax, eax

; 791  : 	}

  00002	c3		 ret	 0
??$_Val_type@PAUSelectList@CreateModeSelectList@@@std@@YAPAUSelectList@CreateModeSelectList@@PAU12@@Z ENDP ; std::_Val_type<CreateModeSelectList::SelectList *>
_TEXT	ENDS
PUBLIC	??_GSelectList@ModeMapSelectList@@QAEPAXI@Z	; ModeMapSelectList::SelectList::`scalar deleting destructor'
; Function compile flags: /Ogsp
;	COMDAT ??_GSelectList@ModeMapSelectList@@QAEPAXI@Z
_TEXT	SEGMENT
___flags$ = 8						; size = 4
??_GSelectList@ModeMapSelectList@@QAEPAXI@Z PROC	; ModeMapSelectList::SelectList::`scalar deleting destructor', COMDAT
; _this$ = ecx
  00000	55		 push	 ebp
  00001	8b ec		 mov	 ebp, esp
  00003	56		 push	 esi
  00004	8b f1		 mov	 esi, ecx
  00006	8d 4e 10	 lea	 ecx, DWORD PTR [esi+16]
  00009	ff 15 00 00 00
	00		 call	 DWORD PTR __imp_??1ioHashString@@QAE@XZ
  0000f	f6 45 08 01	 test	 BYTE PTR ___flags$[ebp], 1
  00013	74 07		 je	 SHORT $LN1@scalar@2
  00015	56		 push	 esi
  00016	e8 00 00 00 00	 call	 ??3@YAXPAX@Z		; operator delete
  0001b	59		 pop	 ecx
$LN1@scalar@2:
  0001c	8b c6		 mov	 eax, esi
  0001e	5e		 pop	 esi
  0001f	5d		 pop	 ebp
  00020	c2 04 00	 ret	 4
??_GSelectList@ModeMapSelectList@@QAEPAXI@Z ENDP	; ModeMapSelectList::SelectList::`scalar deleting destructor'
_TEXT	ENDS
PUBLIC	??_GSelectList@CreateModeSelectList@@QAEPAXI@Z	; CreateModeSelectList::SelectList::`scalar deleting destructor'
; Function compile flags: /Ogsp
;	COMDAT ??_GSelectList@CreateModeSelectList@@QAEPAXI@Z
_TEXT	SEGMENT
___flags$ = 8						; size = 4
??_GSelectList@CreateModeSelectList@@QAEPAXI@Z PROC	; CreateModeSelectList::SelectList::`scalar deleting destructor', COMDAT
; _this$ = ecx
  00000	55		 push	 ebp
  00001	8b ec		 mov	 ebp, esp
  00003	56		 push	 esi
  00004	8b f1		 mov	 esi, ecx
  00006	8d 4e 0c	 lea	 ecx, DWORD PTR [esi+12]
  00009	ff 15 00 00 00
	00		 call	 DWORD PTR __imp_??1ioHashString@@QAE@XZ
  0000f	f6 45 08 01	 test	 BYTE PTR ___flags$[ebp], 1
  00013	74 07		 je	 SHORT $LN1@scalar@3
  00015	56		 push	 esi
  00016	e8 00 00 00 00	 call	 ??3@YAXPAX@Z		; operator delete
  0001b	59		 pop	 ecx
$LN1@scalar@3:
  0001c	8b c6		 mov	 eax, esi
  0001e	5e		 pop	 esi
  0001f	5d		 pop	 ebp
  00020	c2 04 00	 ret	 4
??_GSelectList@CreateModeSelectList@@QAEPAXI@Z ENDP	; CreateModeSelectList::SelectList::`scalar deleting destructor'
_TEXT	ENDS
PUBLIC	??$forward@USelectList@ModeMapSelectList@@@std@@YA$$QAUSelectList@ModeMapSelectList@@AAU12@@Z ; std::forward<ModeMapSelectList::SelectList>
; Function compile flags: /Ogsp
; File c:\program files (x86)\microsoft visual studio 10.0\vc\include\utility
;	COMDAT ??$forward@USelectList@ModeMapSelectList@@@std@@YA$$QAUSelectList@ModeMapSelectList@@AAU12@@Z
_TEXT	SEGMENT
__Arg$ = 8						; size = 4
??$forward@USelectList@ModeMapSelectList@@@std@@YA$$QAUSelectList@ModeMapSelectList@@AAU12@@Z PROC ; std::forward<ModeMapSelectList::SelectList>, COMDAT

; 78   : 	{	// forward _Arg, given explicitly specified type parameter

  00000	55		 push	 ebp
  00001	8b ec		 mov	 ebp, esp

; 79   : 	return ((_Ty&&)_Arg);

  00003	8b 45 08	 mov	 eax, DWORD PTR __Arg$[ebp]

; 80   : 	}

  00006	5d		 pop	 ebp
  00007	c3		 ret	 0
??$forward@USelectList@ModeMapSelectList@@@std@@YA$$QAUSelectList@ModeMapSelectList@@AAU12@@Z ENDP ; std::forward<ModeMapSelectList::SelectList>
_TEXT	ENDS
PUBLIC	??$forward@USelectList@CreateModeSelectList@@@std@@YA$$QAUSelectList@CreateModeSelectList@@AAU12@@Z ; std::forward<CreateModeSelectList::SelectList>
; Function compile flags: /Ogsp
;	COMDAT ??$forward@USelectList@CreateModeSelectList@@@std@@YA$$QAUSelectList@CreateModeSelectList@@AAU12@@Z
_TEXT	SEGMENT
__Arg$ = 8						; size = 4
??$forward@USelectList@CreateModeSelectList@@@std@@YA$$QAUSelectList@CreateModeSelectList@@AAU12@@Z PROC ; std::forward<CreateModeSelectList::SelectList>, COMDAT

; 78   : 	{	// forward _Arg, given explicitly specified type parameter

  00000	55		 push	 ebp
  00001	8b ec		 mov	 ebp, esp

; 79   : 	return ((_Ty&&)_Arg);

  00003	8b 45 08	 mov	 eax, DWORD PTR __Arg$[ebp]

; 80   : 	}

  00006	5d		 pop	 ebp
  00007	c3		 ret	 0
??$forward@USelectList@CreateModeSelectList@@@std@@YA$$QAUSelectList@CreateModeSelectList@@AAU12@@Z ENDP ; std::forward<CreateModeSelectList::SelectList>
_TEXT	ENDS
PUBLIC	?_DECSTR@@YAXPADH@Z				; _DECSTR
; Function compile flags: /Ogsp
; File d:\lost saga for developer\youtube\tutorial\source\src\lsclient\stringprotect.h
;	COMDAT ?_DECSTR@@YAXPADH@Z
_TEXT	SEGMENT
_s$ = 8							; size = 4
_l$ = 12						; size = 4
?_DECSTR@@YAXPADH@Z PROC				; _DECSTR, COMDAT

; 40   : __forceinline void _DECSTR(char* s, int l){int i=0,l4=(l-1)/4,*p=(int*)s;s[l-1]=0;for(;i<l4;++i)*(p++)^=0xEAEBECED;for(i=l4*4;i<l-1;++i)s[i]^=0xED-i%4;}

  00000	55		 push	 ebp
  00001	8b ec		 mov	 ebp, esp
  00003	8b 4d 0c	 mov	 ecx, DWORD PTR _l$[ebp]
  00006	56		 push	 esi
  00007	8b 75 08	 mov	 esi, DWORD PTR _s$[ebp]
  0000a	57		 push	 edi
  0000b	8d 79 ff	 lea	 edi, DWORD PTR [ecx-1]
  0000e	8b c7		 mov	 eax, edi
  00010	99		 cdq
  00011	83 e2 03	 and	 edx, 3
  00014	03 c2		 add	 eax, edx
  00016	c1 f8 02	 sar	 eax, 2
  00019	8b d6		 mov	 edx, esi
  0001b	c6 44 0e ff 00	 mov	 BYTE PTR [esi+ecx-1], 0
  00020	85 c0		 test	 eax, eax
  00022	7e 0e		 jle	 SHORT $LN4@DECSTR
  00024	8b c8		 mov	 ecx, eax
$LL6@DECSTR:
  00026	81 32 ed ec eb
	ea		 xor	 DWORD PTR [edx], -353637139 ; eaebecedH
  0002c	83 c2 04	 add	 edx, 4
  0002f	49		 dec	 ecx
  00030	75 f4		 jne	 SHORT $LL6@DECSTR
$LN4@DECSTR:
  00032	c1 e0 02	 shl	 eax, 2
  00035	eb 17		 jmp	 SHORT $LN14@DECSTR
$LL3@DECSTR:
  00037	8b c8		 mov	 ecx, eax
  00039	81 e1 03 00 00
	80		 and	 ecx, -2147483645	; 80000003H
  0003f	79 05		 jns	 SHORT $LN13@DECSTR
  00041	49		 dec	 ecx
  00042	83 c9 fc	 or	 ecx, -4			; fffffffcH
  00045	41		 inc	 ecx
$LN13@DECSTR:
  00046	b2 ed		 mov	 dl, -19			; ffffffedH
  00048	2a d1		 sub	 dl, cl
  0004a	30 14 30	 xor	 BYTE PTR [eax+esi], dl
  0004d	40		 inc	 eax
$LN14@DECSTR:
  0004e	3b c7		 cmp	 eax, edi
  00050	7c e5		 jl	 SHORT $LL3@DECSTR
  00052	5f		 pop	 edi
  00053	5e		 pop	 esi
  00054	5d		 pop	 ebp
  00055	c3		 ret	 0
?_DECSTR@@YAXPADH@Z ENDP				; _DECSTR
_TEXT	ENDS
PUBLIC	?GetMouse@ioApplication@@QAEPAVioLSMouse@@XZ	; ioApplication::GetMouse
; Function compile flags: /Ogsp
; File d:\lost saga for developer\youtube\tutorial\source\src\lsclient\ioapplication.h
;	COMDAT ?GetMouse@ioApplication@@QAEPAVioLSMouse@@XZ
_TEXT	SEGMENT
?GetMouse@ioApplication@@QAEPAVioLSMouse@@XZ PROC	; ioApplication::GetMouse, COMDAT
; _this$ = ecx

; 796  : 	inline ioLSMouse* GetMouse(){ return &m_Mouse;	}

  00000	8d 81 90 00 00
	00		 lea	 eax, DWORD PTR [ecx+144]
  00006	c3		 ret	 0
?GetMouse@ioApplication@@QAEPAVioLSMouse@@XZ ENDP	; ioApplication::GetMouse
_TEXT	ENDS
PUBLIC	?GetPreClickWnd@ioSP2GUIManager@@QAEPAVioWnd@@XZ ; ioSP2GUIManager::GetPreClickWnd
; Function compile flags: /Ogsp
; File d:\lost saga for developer\youtube\tutorial\source\src\lsclient\gui\iosp2guimanager.h
;	COMDAT ?GetPreClickWnd@ioSP2GUIManager@@QAEPAVioWnd@@XZ
_TEXT	SEGMENT
?GetPreClickWnd@ioSP2GUIManager@@QAEPAVioWnd@@XZ PROC	; ioSP2GUIManager::GetPreClickWnd, COMDAT
; _this$ = ecx

; 221  : 	ioWnd *GetPreClickWnd(){ return m_pPreClickWnd; }

  00000	8b 41 14	 mov	 eax, DWORD PTR [ecx+20]
  00003	c3		 ret	 0
?GetPreClickWnd@ioSP2GUIManager@@QAEPAVioWnd@@XZ ENDP	; ioSP2GUIManager::GetPreClickWnd
_TEXT	ENDS
EXTRN	__imp_??0exception@std@@QAE@ABV01@@Z:PROC
; Function compile flags: /Ogsp
;	COMDAT ??0bad_alloc@std@@QAE@ABV01@@Z
_TEXT	SEGMENT
___that$ = 8						; size = 4
??0bad_alloc@std@@QAE@ABV01@@Z PROC			; std::bad_alloc::bad_alloc, COMDAT
; _this$ = ecx
  00000	55		 push	 ebp
  00001	8b ec		 mov	 ebp, esp
  00003	56		 push	 esi
  00004	ff 75 08	 push	 DWORD PTR ___that$[ebp]
  00007	8b f1		 mov	 esi, ecx
  00009	ff 15 00 00 00
	00		 call	 DWORD PTR __imp_??0exception@std@@QAE@ABV01@@Z
  0000f	c7 06 00 00 00
	00		 mov	 DWORD PTR [esi], OFFSET ??_7bad_alloc@std@@6B@
  00015	8b c6		 mov	 eax, esi
  00017	5e		 pop	 esi
  00018	5d		 pop	 ebp
  00019	c2 04 00	 ret	 4
??0bad_alloc@std@@QAE@ABV01@@Z ENDP			; std::bad_alloc::bad_alloc
_TEXT	ENDS
PUBLIC	??_R0?AVioScroll@@@8				; ioScroll `RTTI Type Descriptor'
PUBLIC	?GetIndexToXYPos@ModeMapSelectList@@QAE_NHAAM0@Z ; ModeMapSelectList::GetIndexToXYPos
EXTRN	__imp_?GetWidth@ioWnd@@QBEHXZ:PROC
EXTRN	__imp_?GetDerivedPosY@ioWnd@@QBEHXZ:PROC
EXTRN	__imp_?GetDerivedPosX@ioWnd@@QBEHXZ:PROC
EXTRN	__fltused:DWORD
;	COMDAT ??_R0?AVioScroll@@@8
; File c:\program files (x86)\microsoft visual studio 10.0\vc\include\vector
_DATA	SEGMENT
??_R0?AVioScroll@@@8 DD FLAT:??_7type_info@@6B@		; ioScroll `RTTI Type Descriptor'
	DD	00H
	DB	'.?AVioScroll@@', 00H
; Function compile flags: /Ogsp
; File d:\lost saga for developer\youtube\tutorial\source\src\lsclient\gui\modemapselectlist.cpp
_DATA	ENDS
;	COMDAT ?GetIndexToXYPos@ModeMapSelectList@@QAE_NHAAM0@Z
_TEXT	SEGMENT
_iYPos$ = -16						; size = 4
_iXPos$ = -12						; size = 4
tv276 = -8						; size = 4
_iIndex$510105 = -4					; size = 4
tv143 = 8						; size = 4
_iSelectIndex$ = 8					; size = 4
_rfXPos$ = 12						; size = 4
_rfYPos$ = 16						; size = 4
?GetIndexToXYPos@ModeMapSelectList@@QAE_NHAAM0@Z PROC	; ModeMapSelectList::GetIndexToXYPos, COMDAT
; _this$ = ecx

; 212  : {

  00000	55		 push	 ebp
  00001	8b ec		 mov	 ebp, esp
  00003	83 ec 10	 sub	 esp, 16			; 00000010H
  00006	53		 push	 ebx
  00007	56		 push	 esi
  00008	57		 push	 edi

; 213  : 	int iXPos, iYPos;
; 214  : 	iXPos = GetDerivedPosX();

  00009	8b 3d 00 00 00
	00		 mov	 edi, DWORD PTR __imp_?GetDerivedPosX@ioWnd@@QBEHXZ
  0000f	8b f1		 mov	 esi, ecx
  00011	ff d7		 call	 edi

; 215  : 	iYPos = GetDerivedPosY();

  00013	8b 1d 00 00 00
	00		 mov	 ebx, DWORD PTR __imp_?GetDerivedPosY@ioWnd@@QBEHXZ
  00019	8b ce		 mov	 ecx, esi
  0001b	89 45 f4	 mov	 DWORD PTR _iXPos$[ebp], eax
  0001e	ff d3		 call	 ebx
  00020	89 45 f0	 mov	 DWORD PTR _iYPos$[ebp], eax

; 216  : 
; 217  : 	int iCutWidth = 0;
; 218  : 	if( (int)m_vEnableSelectList.size() > m_iMaxPageList )
; 219  : 		iCutWidth = m_iCutWidth;
; 220  : 
; 221  : 	int iListSize = m_vEnableSelectList.size();

  00023	8b 86 c0 01 00
	00		 mov	 eax, DWORD PTR [esi+448]
  00029	2b 86 bc 01 00
	00		 sub	 eax, DWORD PTR [esi+444]
  0002f	6a 24		 push	 36			; 00000024H
  00031	99		 cdq
  00032	59		 pop	 ecx
  00033	f7 f9		 idiv	 ecx

; 222  : 	for(int iIndex = 0 ; iIndex < iListSize ; ++iIndex )

  00035	83 65 fc 00	 and	 DWORD PTR _iIndex$510105[ebp], 0
  00039	85 c0		 test	 eax, eax
  0003b	7e 31		 jle	 SHORT $LN22@GetIndexTo
$LL7@GetIndexTo:

; 223  : 	{
; 224  : 		if( iIndex >= m_iMaxPageList )

  0003d	8b 4d fc	 mov	 ecx, DWORD PTR _iIndex$510105[ebp]
  00040	3b 8e 94 01 00
	00		 cmp	 ecx, DWORD PTR [esi+404]
  00046	7d 26		 jge	 SHORT $LN22@GetIndexTo

; 225  : 			break;
; 226  : 
; 227  : 		int iListPos = m_iCurPos + iIndex;

  00048	8b 8e a0 01 00
	00		 mov	 ecx, DWORD PTR [esi+416]
  0004e	03 4d fc	 add	 ecx, DWORD PTR _iIndex$510105[ebp]

; 228  : 		if( iListPos >= iListSize )

  00051	3b c8		 cmp	 ecx, eax
  00053	7d 19		 jge	 SHORT $LN22@GetIndexTo

; 229  : 			break;
; 230  : 
; 231  : 		if( m_vEnableSelectList[iListPos].m_iIndex == iSelectIndex )

  00055	8b 96 bc 01 00
	00		 mov	 edx, DWORD PTR [esi+444]
  0005b	6b c9 24	 imul	 ecx, 36			; 00000024H
  0005e	8b 0c 11	 mov	 ecx, DWORD PTR [ecx+edx]
  00061	3b 4d 08	 cmp	 ecx, DWORD PTR _iSelectIndex$[ebp]
  00064	74 6a		 je	 SHORT $LN20@GetIndexTo

; 222  : 	for(int iIndex = 0 ; iIndex < iListSize ; ++iIndex )

  00066	ff 45 fc	 inc	 DWORD PTR _iIndex$510105[ebp]
  00069	39 45 fc	 cmp	 DWORD PTR _iIndex$510105[ebp], eax
  0006c	7c cf		 jl	 SHORT $LL7@GetIndexTo
$LN22@GetIndexTo:

; 236  : 		}
; 237  : 	}
; 238  : 
; 239  : 
; 240  : 	//  
; 241  : 	ioScroll *pScroll = dynamic_cast<ioScroll*>(FindChildWnd( ID_VERT_SCROLL ));

  0006e	6a 00		 push	 0
  00070	68 00 00 00 00	 push	 OFFSET ??_R0?AVioScroll@@@8
  00075	68 00 00 00 00	 push	 OFFSET ??_R0?AVioWnd@@@8
  0007a	6a 00		 push	 0
  0007c	68 e8 03 00 00	 push	 1000			; 000003e8H
  00081	8b ce		 mov	 ecx, esi
  00083	ff 15 00 00 00
	00		 call	 DWORD PTR __imp_?FindChildWnd@ioWnd@@QAEPAV1@K@Z
  00089	50		 push	 eax
  0008a	e8 00 00 00 00	 call	 ___RTDynamicCast
  0008f	8b f0		 mov	 esi, eax
  00091	83 c4 14	 add	 esp, 20			; 00000014H

; 242  : 	if( pScroll && pScroll->IsShow() )

  00094	85 f6		 test	 esi, esi
  00096	74 7b		 je	 SHORT $LN1@GetIndexTo
  00098	8b ce		 mov	 ecx, esi
  0009a	ff 15 00 00 00
	00		 call	 DWORD PTR __imp_?IsShow@ioWnd@@QBE_NXZ
  000a0	84 c0		 test	 al, al
  000a2	74 6f		 je	 SHORT $LN1@GetIndexTo

; 243  : 	{
; 244  : 		rfXPos = pScroll->GetDerivedPosX() + ( pScroll->GetWidth() / 2 );

  000a4	8b ce		 mov	 ecx, esi
  000a6	ff 15 00 00 00
	00		 call	 DWORD PTR __imp_?GetWidth@ioWnd@@QBEHXZ
  000ac	99		 cdq
  000ad	2b c2		 sub	 eax, edx
  000af	89 45 08	 mov	 DWORD PTR tv143[ebp], eax
  000b2	d1 7d 08	 sar	 DWORD PTR tv143[ebp], 1
  000b5	8b ce		 mov	 ecx, esi
  000b7	ff d7		 call	 edi
  000b9	03 45 08	 add	 eax, DWORD PTR tv143[ebp]
  000bc	0f 57 c0	 xorps	 xmm0, xmm0
  000bf	f3 0f 2a c0	 cvtsi2ss xmm0, eax
  000c3	8b 45 0c	 mov	 eax, DWORD PTR _rfXPos$[ebp]

; 245  : 		rfYPos = pScroll->GetDerivedPosY();

  000c6	8b ce		 mov	 ecx, esi
  000c8	f3 0f 11 00	 movss	 DWORD PTR [eax], xmm0
  000cc	ff d3		 call	 ebx

; 246  : 		return true;

  000ce	eb 31		 jmp	 SHORT $LN23@GetIndexTo
$LN20@GetIndexTo:

; 232  : 		{
; 233  : 			rfXPos = iXPos + GetWidth() / 2;

  000d0	8b ce		 mov	 ecx, esi
  000d2	ff 15 00 00 00
	00		 call	 DWORD PTR __imp_?GetWidth@ioWnd@@QBEHXZ
  000d8	99		 cdq
  000d9	2b c2		 sub	 eax, edx
  000db	d1 f8		 sar	 eax, 1
  000dd	03 45 f4	 add	 eax, DWORD PTR _iXPos$[ebp]
  000e0	0f 57 c0	 xorps	 xmm0, xmm0
  000e3	f3 0f 2a c0	 cvtsi2ss xmm0, eax
  000e7	8b 45 0c	 mov	 eax, DWORD PTR _rfXPos$[ebp]
  000ea	f3 0f 11 00	 movss	 DWORD PTR [eax], xmm0

; 234  : 			rfYPos = iYPos + m_iListYPos + iIndex * m_iHeightGap;

  000ee	8b 86 84 01 00
	00		 mov	 eax, DWORD PTR [esi+388]
  000f4	0f af 45 fc	 imul	 eax, DWORD PTR _iIndex$510105[ebp]
  000f8	03 86 80 01 00
	00		 add	 eax, DWORD PTR [esi+384]
  000fe	03 45 f0	 add	 eax, DWORD PTR _iYPos$[ebp]
$LN23@GetIndexTo:
  00101	0f 57 c0	 xorps	 xmm0, xmm0
  00104	f3 0f 2a c0	 cvtsi2ss xmm0, eax
  00108	8b 45 10	 mov	 eax, DWORD PTR _rfYPos$[ebp]
  0010b	f3 0f 11 00	 movss	 DWORD PTR [eax], xmm0

; 235  : 			return true;

  0010f	b0 01		 mov	 al, 1
  00111	eb 02		 jmp	 SHORT $LN9@GetIndexTo
$LN1@GetIndexTo:

; 247  : 	}
; 248  : 	return false;

  00113	32 c0		 xor	 al, al
$LN9@GetIndexTo:
  00115	5f		 pop	 edi
  00116	5e		 pop	 esi
  00117	5b		 pop	 ebx

; 249  : }

  00118	c9		 leave
  00119	c2 0c 00	 ret	 12			; 0000000cH
?GetIndexToXYPos@ModeMapSelectList@@QAE_NHAAM0@Z ENDP	; ModeMapSelectList::GetIndexToXYPos
_TEXT	ENDS
PUBLIC	?ProcessModeHelpTooltip@ModeMapSelectList@@IAEXXZ ; ModeMapSelectList::ProcessModeHelpTooltip
;	COMDAT xdata$x
; File c:\program files (x86)\microsoft visual studio 10.0\vc\include\vector
xdata$x	SEGMENT
__unwindtable$?ProcessModeHelpTooltip@ModeMapSelectList@@IAEXXZ DD 0ffffffffH
	DD	FLAT:__unwindfunclet$?ProcessModeHelpTooltip@ModeMapSelectList@@IAEXXZ$0
__ehfuncinfo$?ProcessModeHelpTooltip@ModeMapSelectList@@IAEXXZ DD 019930522H
	DD	01H
	DD	FLAT:__unwindtable$?ProcessModeHelpTooltip@ModeMapSelectList@@IAEXXZ
	DD	2 DUP(00H)
	DD	2 DUP(00H)
	DD	00H
	DD	01H
; Function compile flags: /Ogsp
; File d:\lost saga for developer\youtube\tutorial\source\src\lsclient\gui\modemapselectlist.cpp
xdata$x	ENDS
;	COMDAT ?ProcessModeHelpTooltip@ModeMapSelectList@@IAEXXZ
_TEXT	SEGMENT
$T513902 = -28						; size = 16
__$EHRec$ = -12						; size = 12
?ProcessModeHelpTooltip@ModeMapSelectList@@IAEXXZ PROC	; ModeMapSelectList::ProcessModeHelpTooltip, COMDAT
; _this$ = ecx

; 345  : {

  00000	6a 10		 push	 16			; 00000010H
  00002	b8 00 00 00 00	 mov	 eax, __ehhandler$?ProcessModeHelpTooltip@ModeMapSelectList@@IAEXXZ
  00007	e8 00 00 00 00	 call	 __EH_prolog3
  0000c	8b f1		 mov	 esi, ecx

; 346  : 	if( !IsShow() ) return;

  0000e	ff 15 00 00 00
	00		 call	 DWORD PTR __imp_?IsShow@ioWnd@@QBE_NXZ
  00014	84 c0		 test	 al, al
  00016	0f 84 c4 00 00
	00		 je	 $LN1@ProcessMod

; 347  : 
; 348  : 	if( m_pModeHelpTooltip == NULL )

  0001c	33 c0		 xor	 eax, eax
  0001e	bb 00 00 00 00	 mov	 ebx, OFFSET ??_R0?AVModeHelpTooltip@@@8
  00023	bf 00 00 00 00	 mov	 edi, OFFSET ??_R0?AVioWnd@@@8
  00028	39 86 cc 01 00
	00		 cmp	 DWORD PTR [esi+460], eax
  0002e	75 22		 jne	 SHORT $LN8@ProcessMod

; 349  : 		m_pModeHelpTooltip = dynamic_cast< ModeHelpTooltip * >( FindChildWnd( ID_MODE_HELP_TOOLTIP ) );

  00030	50		 push	 eax
  00031	53		 push	 ebx
  00032	57		 push	 edi
  00033	50		 push	 eax
  00034	68 f4 01 00 00	 push	 500			; 000001f4H
  00039	8b ce		 mov	 ecx, esi
  0003b	ff 15 00 00 00
	00		 call	 DWORD PTR __imp_?FindChildWnd@ioWnd@@QAEPAV1@K@Z
  00041	50		 push	 eax
  00042	e8 00 00 00 00	 call	 ___RTDynamicCast
  00047	83 c4 14	 add	 esp, 20			; 00000014H
  0004a	89 86 cc 01 00
	00		 mov	 DWORD PTR [esi+460], eax
  00050	33 c0		 xor	 eax, eax
$LN8@ProcessMod:

; 350  : 
; 351  : 	ModeHelpTooltip *pModeHelpTooltip = dynamic_cast< ModeHelpTooltip * >( m_pModeHelpTooltip );	

  00052	50		 push	 eax
  00053	53		 push	 ebx
  00054	57		 push	 edi
  00055	50		 push	 eax
  00056	ff b6 cc 01 00
	00		 push	 DWORD PTR [esi+460]
  0005c	e8 00 00 00 00	 call	 ___RTDynamicCast
  00061	8b d8		 mov	 ebx, eax
  00063	83 c4 14	 add	 esp, 20			; 00000014H

; 352  : 	if( pModeHelpTooltip )

  00066	85 db		 test	 ebx, ebx
  00068	74 76		 je	 SHORT $LN1@ProcessMod

; 353  : 	{		
; 354  : 		if( m_iOverMarkListIndex != -2 )

  0006a	8b be b0 01 00
	00		 mov	 edi, DWORD PTR [esi+432]
  00070	83 ff fe	 cmp	 edi, -2			; fffffffeH
  00073	74 3d		 je	 SHORT $LN6@ProcessMod

; 355  : 		{
; 356  : 			int iListSize = m_vEnableSelectList.size();

  00075	8b 86 c0 01 00
	00		 mov	 eax, DWORD PTR [esi+448]
  0007b	2b 86 bc 01 00
	00		 sub	 eax, DWORD PTR [esi+444]
  00081	6a 24		 push	 36			; 00000024H
  00083	99		 cdq
  00084	59		 pop	 ecx
  00085	f7 f9		 idiv	 ecx

; 357  : 			for(int iIndex = 0 ; iIndex < iListSize ; ++iIndex )

  00087	33 d2		 xor	 edx, edx
  00089	85 c0		 test	 eax, eax
  0008b	7e 53		 jle	 SHORT $LN1@ProcessMod

; 355  : 		{
; 356  : 			int iListSize = m_vEnableSelectList.size();

  0008d	8b 8e bc 01 00
	00		 mov	 ecx, DWORD PTR [esi+444]
$LL5@ProcessMod:

; 358  : 			{
; 359  : 				SelectList &kList = m_vEnableSelectList[iIndex];
; 360  : 				if( m_iOverMarkListIndex == kList.m_iIndex )

  00093	3b 39		 cmp	 edi, DWORD PTR [ecx]
  00095	74 0a		 je	 SHORT $LN18@ProcessMod

; 357  : 			for(int iIndex = 0 ; iIndex < iListSize ; ++iIndex )

  00097	42		 inc	 edx
  00098	83 c1 24	 add	 ecx, 36			; 00000024H
  0009b	3b d0		 cmp	 edx, eax
  0009d	7c f4		 jl	 SHORT $LL5@ProcessMod

; 358  : 			{
; 359  : 				SelectList &kList = m_vEnableSelectList[iIndex];
; 360  : 				if( m_iOverMarkListIndex == kList.m_iIndex )

  0009f	eb 3f		 jmp	 SHORT $LN1@ProcessMod
$LN18@ProcessMod:

; 361  : 				{
; 362  : 					pModeHelpTooltip->SetModeHelpTooltip( this, kList.m_szTitle, kList.m_iHelpIndex );

  000a1	ff 71 04	 push	 DWORD PTR [ecx+4]
  000a4	83 c1 10	 add	 ecx, 16			; 00000010H
  000a7	51		 push	 ecx
  000a8	56		 push	 esi
  000a9	8b cb		 mov	 ecx, ebx
  000ab	e8 00 00 00 00	 call	 ?SetModeHelpTooltip@ModeHelpTooltip@@QAEXPAVioWnd@@ABVioHashString@@H@Z ; ModeHelpTooltip::SetModeHelpTooltip

; 363  : 					break;
; 364  : 				}
; 365  : 			}			
; 366  : 		}
; 367  : 		else

  000b0	eb 2e		 jmp	 SHORT $LN1@ProcessMod
$LN6@ProcessMod:

; 368  : 		{
; 369  : 			pModeHelpTooltip->SetModeHelpTooltip( NULL, "", -1 );

  000b2	68 00 00 00 00	 push	 OFFSET ??_C@_00CNPNBAHC@?$AA@
  000b7	8d 4d e4	 lea	 ecx, DWORD PTR $T513902[ebp]
  000ba	ff 15 00 00 00
	00		 call	 DWORD PTR __imp_??0ioHashString@@QAE@PBD@Z
  000c0	83 65 fc 00	 and	 DWORD PTR __$EHRec$[ebp+8], 0
  000c4	6a ff		 push	 -1
  000c6	8d 45 e4	 lea	 eax, DWORD PTR $T513902[ebp]
  000c9	50		 push	 eax
  000ca	6a 00		 push	 0
  000cc	8b cb		 mov	 ecx, ebx
  000ce	e8 00 00 00 00	 call	 ?SetModeHelpTooltip@ModeHelpTooltip@@QAEXPAVioWnd@@ABVioHashString@@H@Z ; ModeHelpTooltip::SetModeHelpTooltip
  000d3	83 4d fc ff	 or	 DWORD PTR __$EHRec$[ebp+8], -1
  000d7	8d 4d e4	 lea	 ecx, DWORD PTR $T513902[ebp]
  000da	ff 15 00 00 00
	00		 call	 DWORD PTR __imp_??1ioHashString@@QAE@XZ
$LN1@ProcessMod:

; 370  : 		}
; 371  : 	}	
; 372  : }

  000e0	e8 00 00 00 00	 call	 __EH_epilog3
  000e5	c3		 ret	 0
_TEXT	ENDS
;	COMDAT text$x
text$x	SEGMENT
__unwindfunclet$?ProcessModeHelpTooltip@ModeMapSelectList@@IAEXXZ$0:
  00000	8d 4d e4	 lea	 ecx, DWORD PTR $T513902[ebp]
  00003	ff 25 00 00 00
	00		 jmp	 DWORD PTR __imp_??1ioHashString@@QAE@XZ
__ehhandler$?ProcessModeHelpTooltip@ModeMapSelectList@@IAEXXZ:
  00009	8b 54 24 08	 mov	 edx, DWORD PTR [esp+8]
  0000d	8d 42 0c	 lea	 eax, DWORD PTR [edx+12]
  00010	8b 4a e0	 mov	 ecx, DWORD PTR [edx-32]
  00013	33 c8		 xor	 ecx, eax
  00015	e8 00 00 00 00	 call	 @__security_check_cookie@4
  0001a	b8 00 00 00 00	 mov	 eax, OFFSET __ehfuncinfo$?ProcessModeHelpTooltip@ModeMapSelectList@@IAEXXZ
  0001f	e9 00 00 00 00	 jmp	 ___CxxFrameHandler3
text$x	ENDS
?ProcessModeHelpTooltip@ModeMapSelectList@@IAEXXZ ENDP	; ModeMapSelectList::ProcessModeHelpTooltip
PUBLIC	__real@3f19999a
PUBLIC	?OnRender@ModeMapSelectList@@MAEXXZ		; ModeMapSelectList::OnRender
EXTRN	__imp_?GetTextWidth@ioFontManager@@QAEMPBDW4TextStyle@@MH@Z:PROC
EXTRN	__imp_?PrintText@ioFontManager@@QAAXMMMPBDZZ:PROC
EXTRN	__imp_?c_str@ioHashString@@QBEPBDXZ:PROC
EXTRN	__imp_?SetTextColor@ioFontManager@@QAEXK@Z:PROC
EXTRN	__imp_?SetTextColor@ioFontManager@@QAEXHHH@Z:PROC
EXTRN	__imp_?SetVertFormatting@ioUIRenderImage@@QAEXW4VertFormatting@1@@Z:PROC
EXTRN	__imp_?SetHorzFormatting@ioUIRenderImage@@QAEXW4HorzFormatting@1@@Z:PROC
EXTRN	__imp_?SetBkColor@ioFontManager@@QAEXHHH@Z:PROC
EXTRN	__imp_?SetTextStyle@ioFontManager@@QAEXW4TextStyle@@@Z:PROC
EXTRN	__imp_?SetAlignType@ioFontManager@@QAEXW4TextAlignType@@@Z:PROC
EXTRN	__imp_?GetSingleton@ioFontManager@@SAAAV1@XZ:PROC
EXTRN	__imp_?OnRender@ioWnd@@MAEXXZ:PROC
EXTRN	__ftol2_sse:PROC
;	COMDAT __real@3f19999a
; File c:\program files (x86)\microsoft visual studio 10.0\vc\include\vector
CONST	SEGMENT
__real@3f19999a DD 03f19999ar			; 0.6
; Function compile flags: /Ogsp
; File d:\lost saga for developer\youtube\tutorial\source\src\lsclient\gui\modemapselectlist.cpp
CONST	ENDS
;	COMDAT ?OnRender@ModeMapSelectList@@MAEXXZ
_TEXT	SEGMENT
tv337 = -32						; size = 4
tv308 = -32						; size = 4
tv253 = -32						; size = 4
_iTitleSize$510206 = -32				; size = 4
tv773 = -28						; size = 4
_iCutWidth$ = -24					; size = 4
_rkSelectList$510198 = -20				; size = 4
_iXPos$ = -16						; size = 4
_iYPos$ = -12						; size = 4
_i$510191 = -8						; size = 4
_bDarkRender$ = -1					; size = 1
?OnRender@ModeMapSelectList@@MAEXXZ PROC		; ModeMapSelectList::OnRender, COMDAT
; _this$ = ecx

; 375  : {

  00000	55		 push	 ebp
  00001	8b ec		 mov	 ebp, esp
  00003	83 ec 20	 sub	 esp, 32			; 00000020H
  00006	53		 push	 ebx
  00007	56		 push	 esi
  00008	8b f1		 mov	 esi, ecx

; 376  : 	ioWnd::OnRender();

  0000a	ff 15 00 00 00
	00		 call	 DWORD PTR __imp_?OnRender@ioWnd@@MAEXXZ

; 377  : 	
; 378  : 	if( !m_pDarkLine || !m_pLightLine || !m_pOverLine ) 

  00010	33 db		 xor	 ebx, ebx
  00012	39 9e 60 01 00
	00		 cmp	 DWORD PTR [esi+352], ebx
  00018	0f 84 26 04 00
	00		 je	 $LN26@OnRender
  0001e	39 9e 64 01 00
	00		 cmp	 DWORD PTR [esi+356], ebx
  00024	0f 84 1a 04 00
	00		 je	 $LN26@OnRender
  0002a	39 9e 68 01 00
	00		 cmp	 DWORD PTR [esi+360], ebx
  00030	0f 84 0e 04 00
	00		 je	 $LN26@OnRender

; 379  : 		return;
; 380  : 
; 381  : 	g_FontMgr.SetAlignType( TAT_LEFT );

  00036	57		 push	 edi
  00037	8b 3d 00 00 00
	00		 mov	 edi, DWORD PTR __imp_?GetSingleton@ioFontManager@@SAAAV1@XZ
  0003d	53		 push	 ebx
  0003e	ff d7		 call	 edi
  00040	8b c8		 mov	 ecx, eax
  00042	ff 15 00 00 00
	00		 call	 DWORD PTR __imp_?SetAlignType@ioFontManager@@QAEXW4TextAlignType@@@Z

; 382  : 	g_FontMgr.SetTextStyle( TS_NORMAL );

  00048	53		 push	 ebx
  00049	ff d7		 call	 edi
  0004b	8b c8		 mov	 ecx, eax
  0004d	ff 15 00 00 00
	00		 call	 DWORD PTR __imp_?SetTextStyle@ioFontManager@@QAEXW4TextStyle@@@Z

; 383  : 	g_FontMgr.SetBkColor( 0, 0, 0 );

  00053	53		 push	 ebx
  00054	53		 push	 ebx
  00055	53		 push	 ebx
  00056	ff d7		 call	 edi
  00058	8b c8		 mov	 ecx, eax
  0005a	ff 15 00 00 00
	00		 call	 DWORD PTR __imp_?SetBkColor@ioFontManager@@QAEXHHH@Z

; 384  : 	
; 385  : 	int iXPos = GetDerivedPosX();

  00060	8b ce		 mov	 ecx, esi
  00062	ff 15 00 00 00
	00		 call	 DWORD PTR __imp_?GetDerivedPosX@ioWnd@@QBEHXZ

; 386  : 	int iYPos = GetDerivedPosY();

  00068	8b ce		 mov	 ecx, esi
  0006a	89 45 f0	 mov	 DWORD PTR _iXPos$[ebp], eax
  0006d	ff 15 00 00 00
	00		 call	 DWORD PTR __imp_?GetDerivedPosY@ioWnd@@QBEHXZ
  00073	89 45 f4	 mov	 DWORD PTR _iYPos$[ebp], eax

; 387  : 
; 388  : 	int iCutWidth = 0;
; 389  : 	if( (int)m_vEnableSelectList.size() > m_iMaxPageList )

  00076	8b 86 c0 01 00
	00		 mov	 eax, DWORD PTR [esi+448]
  0007c	2b 86 bc 01 00
	00		 sub	 eax, DWORD PTR [esi+444]
  00082	6a 24		 push	 36			; 00000024H
  00084	99		 cdq
  00085	59		 pop	 ecx
  00086	f7 f9		 idiv	 ecx
  00088	89 5d e8	 mov	 DWORD PTR _iCutWidth$[ebp], ebx
  0008b	89 45 e4	 mov	 DWORD PTR tv773[ebp], eax
  0008e	3b 86 94 01 00
	00		 cmp	 eax, DWORD PTR [esi+404]
  00094	7e 09		 jle	 SHORT $LN14@OnRender

; 390  : 		iCutWidth = m_iCutWidth;

  00096	8b 8e 90 01 00
	00		 mov	 ecx, DWORD PTR [esi+400]
  0009c	89 4d e8	 mov	 DWORD PTR _iCutWidth$[ebp], ecx
$LN14@OnRender:

; 391  : 
; 392  : 	bool bDarkRender = false;

  0009f	88 5d ff	 mov	 BYTE PTR _bDarkRender$[ebp], bl

; 393  : 	int iListSize = m_vEnableSelectList.size();
; 394  : 	for(int i = 0;i < iListSize;i++)

  000a2	89 5d f8	 mov	 DWORD PTR _i$510191[ebp], ebx
  000a5	3b c3		 cmp	 eax, ebx
  000a7	0f 8e 96 03 00
	00		 jle	 $LN30@OnRender
$LL29@OnRender:

; 395  : 	{
; 396  : 		if( i >= m_iMaxPageList )

  000ad	8b 4d f8	 mov	 ecx, DWORD PTR _i$510191[ebp]
  000b0	3b 8e 94 01 00
	00		 cmp	 ecx, DWORD PTR [esi+404]
  000b6	0f 8d 87 03 00
	00		 jge	 $LN30@OnRender

; 397  : 			break;
; 398  : 
; 399  : 		int iListPos = m_iCurPos + i;

  000bc	8b 86 a0 01 00
	00		 mov	 eax, DWORD PTR [esi+416]
  000c2	03 c1		 add	 eax, ecx

; 400  : 		if( iListPos >= iListSize )

  000c4	3b 45 e4	 cmp	 eax, DWORD PTR tv773[ebp]
  000c7	0f 8d 76 03 00
	00		 jge	 $LN30@OnRender

; 401  : 			break;
; 402  : 
; 403  : 		const SelectList &rkSelectList = m_vEnableSelectList[iListPos];

  000cd	6b c0 24	 imul	 eax, 36			; 00000024H
  000d0	03 86 bc 01 00
	00		 add	 eax, DWORD PTR [esi+444]

; 404  : 		bDarkRender = !bDarkRender;

  000d6	38 5d ff	 cmp	 BYTE PTR _bDarkRender$[ebp], bl
  000d9	89 45 ec	 mov	 DWORD PTR _rkSelectList$510198[ebp], eax
  000dc	0f 94 c1	 sete	 cl
  000df	88 4d ff	 mov	 BYTE PTR _bDarkRender$[ebp], cl

; 405  : 		if( m_iOverListIndex == rkSelectList.m_iIndex && m_bOverSafetyLevel == rkSelectList.m_bSafetyLevelRoom )

  000e2	8b 8e ac 01 00
	00		 mov	 ecx, DWORD PTR [esi+428]
  000e8	3b 08		 cmp	 ecx, DWORD PTR [eax]
  000ea	0f 85 ac 00 00
	00		 jne	 $LN8@OnRender
  000f0	8a 8e b4 01 00
	00		 mov	 cl, BYTE PTR [esi+436]
  000f6	3a 48 0d	 cmp	 cl, BYTE PTR [eax+13]
  000f9	0f 85 9d 00 00
	00		 jne	 $LN8@OnRender

; 406  : 		{
; 407  : 			m_pOverLine->SetSize( ( GetWidth() - m_iAddWidth ) - iCutWidth, 21 );

  000ff	8b 86 68 01 00
	00		 mov	 eax, DWORD PTR [esi+360]
  00105	8b 00		 mov	 eax, DWORD PTR [eax]
  00107	83 c0 10	 add	 eax, 16			; 00000010H
  0010a	6a 15		 push	 21			; 00000015H
  0010c	8b ce		 mov	 ecx, esi
  0010e	89 45 e0	 mov	 DWORD PTR tv253[ebp], eax
  00111	ff 15 00 00 00
	00		 call	 DWORD PTR __imp_?GetWidth@ioWnd@@QBEHXZ
  00117	2b 86 74 01 00
	00		 sub	 eax, DWORD PTR [esi+372]
  0011d	8b 8e 68 01 00
	00		 mov	 ecx, DWORD PTR [esi+360]
  00123	2b 45 e8	 sub	 eax, DWORD PTR _iCutWidth$[ebp]
  00126	50		 push	 eax
  00127	8b 45 e0	 mov	 eax, DWORD PTR tv253[ebp]
  0012a	ff 10		 call	 DWORD PTR [eax]

; 408  : 			m_pOverLine->SetHorzFormatting( ioUIRenderImage::HF_STRETCH );

  0012c	8b 8e 68 01 00
	00		 mov	 ecx, DWORD PTR [esi+360]
  00132	6a 03		 push	 3
  00134	ff 15 00 00 00
	00		 call	 DWORD PTR __imp_?SetHorzFormatting@ioUIRenderImage@@QAEXW4HorzFormatting@1@@Z

; 409  : 			m_pOverLine->SetVertFormatting( ioUIRenderImage::VF_STRETCH );

  0013a	8b 8e 68 01 00
	00		 mov	 ecx, DWORD PTR [esi+360]
  00140	6a 03		 push	 3
  00142	ff 15 00 00 00
	00		 call	 DWORD PTR __imp_?SetVertFormatting@ioUIRenderImage@@QAEXW4VertFormatting@1@@Z

; 410  : 			m_pOverLine->Render( iXPos, iYPos + ( i * m_iHeightGap ) );

  00148	8b 8e 84 01 00
	00		 mov	 ecx, DWORD PTR [esi+388]
  0014e	0f af 4d f8	 imul	 ecx, DWORD PTR _i$510191[ebp]
  00152	03 4d f4	 add	 ecx, DWORD PTR _iYPos$[ebp]
  00155	8b 86 68 01 00
	00		 mov	 eax, DWORD PTR [esi+360]
  0015b	8b 00		 mov	 eax, DWORD PTR [eax]
  0015d	53		 push	 ebx
  0015e	53		 push	 ebx
  0015f	53		 push	 ebx
  00160	53		 push	 ebx
  00161	51		 push	 ecx
  00162	0f 57 c0	 xorps	 xmm0, xmm0
  00165	f3 0f 2a c1	 cvtsi2ss xmm0, ecx
  00169	51		 push	 ecx
  0016a	8b 8e 68 01 00
	00		 mov	 ecx, DWORD PTR [esi+360]
  00170	f3 0f 11 44 24
	04		 movss	 DWORD PTR [esp+4], xmm0
  00176	66 0f 6e 45 f0	 movd	 xmm0, DWORD PTR _iXPos$[ebp]
  0017b	0f 5b c0	 cvtdq2ps xmm0, xmm0
  0017e	f3 0f 11 04 24	 movss	 DWORD PTR [esp], xmm0
  00183	ff 10		 call	 DWORD PTR [eax]

; 411  : 			g_FontMgr.SetTextColor( 255, 255, 255 );

  00185	b8 ff 00 00 00	 mov	 eax, 255		; 000000ffH
  0018a	50		 push	 eax
  0018b	50		 push	 eax
  0018c	50		 push	 eax
  0018d	ff d7		 call	 edi
  0018f	8b c8		 mov	 ecx, eax
  00191	ff 15 00 00 00
	00		 call	 DWORD PTR __imp_?SetTextColor@ioFontManager@@QAEXHHH@Z
  00197	e9 ff 00 00 00	 jmp	 $LN5@OnRender
$LN8@OnRender:

; 412  : 		}
; 413  : 		else if( bDarkRender )
; 414  : 		{
; 415  : 			m_pDarkLine->SetSize( ( GetWidth() - m_iAddWidth ) - iCutWidth, 21 );

  0019c	6a 15		 push	 21			; 00000015H
  0019e	8b ce		 mov	 ecx, esi
  001a0	38 5d ff	 cmp	 BYTE PTR _bDarkRender$[ebp], bl
  001a3	74 69		 je	 SHORT $LN6@OnRender
  001a5	8b 86 60 01 00
	00		 mov	 eax, DWORD PTR [esi+352]
  001ab	8b 00		 mov	 eax, DWORD PTR [eax]
  001ad	83 c0 10	 add	 eax, 16			; 00000010H
  001b0	89 45 e0	 mov	 DWORD PTR tv308[ebp], eax
  001b3	ff 15 00 00 00
	00		 call	 DWORD PTR __imp_?GetWidth@ioWnd@@QBEHXZ
  001b9	2b 86 74 01 00
	00		 sub	 eax, DWORD PTR [esi+372]
  001bf	8b 8e 60 01 00
	00		 mov	 ecx, DWORD PTR [esi+352]
  001c5	2b 45 e8	 sub	 eax, DWORD PTR _iCutWidth$[ebp]
  001c8	50		 push	 eax
  001c9	8b 45 e0	 mov	 eax, DWORD PTR tv308[ebp]
  001cc	ff 10		 call	 DWORD PTR [eax]

; 416  : 			m_pDarkLine->SetHorzFormatting( ioUIRenderImage::HF_STRETCH );

  001ce	8b 8e 60 01 00
	00		 mov	 ecx, DWORD PTR [esi+352]
  001d4	6a 03		 push	 3
  001d6	ff 15 00 00 00
	00		 call	 DWORD PTR __imp_?SetHorzFormatting@ioUIRenderImage@@QAEXW4HorzFormatting@1@@Z

; 417  : 			m_pDarkLine->SetVertFormatting( ioUIRenderImage::VF_STRETCH );

  001dc	8b 8e 60 01 00
	00		 mov	 ecx, DWORD PTR [esi+352]
  001e2	6a 03		 push	 3
  001e4	ff 15 00 00 00
	00		 call	 DWORD PTR __imp_?SetVertFormatting@ioUIRenderImage@@QAEXW4VertFormatting@1@@Z

; 418  : 			m_pDarkLine->Render( iXPos, iYPos + ( i * m_iHeightGap ) );

  001ea	8b 8e 84 01 00
	00		 mov	 ecx, DWORD PTR [esi+388]
  001f0	0f af 4d f8	 imul	 ecx, DWORD PTR _i$510191[ebp]
  001f4	03 4d f4	 add	 ecx, DWORD PTR _iYPos$[ebp]
  001f7	8b 86 60 01 00
	00		 mov	 eax, DWORD PTR [esi+352]
  001fd	53		 push	 ebx
  001fe	53		 push	 ebx
  001ff	53		 push	 ebx
  00200	53		 push	 ebx
  00201	51		 push	 ecx
  00202	0f 57 c0	 xorps	 xmm0, xmm0
  00205	f3 0f 2a c1	 cvtsi2ss xmm0, ecx
  00209	51		 push	 ecx
  0020a	8b c8		 mov	 ecx, eax

; 419  : 			g_FontMgr.SetTextColor( TCT_DEFAULT_DARKGRAY );
; 420  : 		}
; 421  : 		else

  0020c	eb 67		 jmp	 SHORT $LN31@OnRender
$LN6@OnRender:

; 422  : 		{
; 423  : 			m_pLightLine->SetSize( ( GetWidth() - m_iAddWidth ) - iCutWidth, 21 );

  0020e	8b 86 64 01 00
	00		 mov	 eax, DWORD PTR [esi+356]
  00214	8b 00		 mov	 eax, DWORD PTR [eax]
  00216	83 c0 10	 add	 eax, 16			; 00000010H
  00219	89 45 e0	 mov	 DWORD PTR tv337[ebp], eax
  0021c	ff 15 00 00 00
	00		 call	 DWORD PTR __imp_?GetWidth@ioWnd@@QBEHXZ
  00222	2b 86 74 01 00
	00		 sub	 eax, DWORD PTR [esi+372]
  00228	8b 8e 64 01 00
	00		 mov	 ecx, DWORD PTR [esi+356]
  0022e	2b 45 e8	 sub	 eax, DWORD PTR _iCutWidth$[ebp]
  00231	50		 push	 eax
  00232	8b 45 e0	 mov	 eax, DWORD PTR tv337[ebp]
  00235	ff 10		 call	 DWORD PTR [eax]

; 424  : 			m_pLightLine->SetHorzFormatting( ioUIRenderImage::HF_STRETCH );

  00237	8b 8e 64 01 00
	00		 mov	 ecx, DWORD PTR [esi+356]
  0023d	6a 03		 push	 3
  0023f	ff 15 00 00 00
	00		 call	 DWORD PTR __imp_?SetHorzFormatting@ioUIRenderImage@@QAEXW4HorzFormatting@1@@Z

; 425  : 			m_pLightLine->SetVertFormatting( ioUIRenderImage::VF_STRETCH );

  00245	8b 8e 64 01 00
	00		 mov	 ecx, DWORD PTR [esi+356]
  0024b	6a 03		 push	 3
  0024d	ff 15 00 00 00
	00		 call	 DWORD PTR __imp_?SetVertFormatting@ioUIRenderImage@@QAEXW4VertFormatting@1@@Z

; 426  : 			m_pLightLine->Render( iXPos, iYPos + ( i * m_iHeightGap ) );

  00253	8b 8e 84 01 00
	00		 mov	 ecx, DWORD PTR [esi+388]
  00259	0f af 4d f8	 imul	 ecx, DWORD PTR _i$510191[ebp]
  0025d	03 4d f4	 add	 ecx, DWORD PTR _iYPos$[ebp]
  00260	8b 86 64 01 00
	00		 mov	 eax, DWORD PTR [esi+356]
  00266	53		 push	 ebx
  00267	53		 push	 ebx
  00268	53		 push	 ebx
  00269	53		 push	 ebx
  0026a	51		 push	 ecx
  0026b	0f 57 c0	 xorps	 xmm0, xmm0
  0026e	f3 0f 2a c1	 cvtsi2ss xmm0, ecx
  00272	51		 push	 ecx
  00273	8b c8		 mov	 ecx, eax
$LN31@OnRender:
  00275	8b 00		 mov	 eax, DWORD PTR [eax]
  00277	f3 0f 11 44 24
	04		 movss	 DWORD PTR [esp+4], xmm0
  0027d	66 0f 6e 45 f0	 movd	 xmm0, DWORD PTR _iXPos$[ebp]
  00282	0f 5b c0	 cvtdq2ps xmm0, xmm0
  00285	f3 0f 11 04 24	 movss	 DWORD PTR [esp], xmm0
  0028a	ff 10		 call	 DWORD PTR [eax]

; 427  : 			g_FontMgr.SetTextColor( TCT_DEFAULT_DARKGRAY );

  0028c	68 3a 3a 3a ff	 push	 -12961222		; ff3a3a3aH
  00291	ff d7		 call	 edi
  00293	8b c8		 mov	 ecx, eax
  00295	ff 15 00 00 00
	00		 call	 DWORD PTR __imp_?SetTextColor@ioFontManager@@QAEXK@Z
$LN5@OnRender:

; 428  : 		}
; 429  : 
; 430  : 		g_FontMgr.PrintText( iXPos + m_iListXPos + 5, iYPos + m_iListYPos + ( i * m_iHeightGap ) + 3, FONT_SIZE_12, rkSelectList.m_szTitle.c_str() );

  0029b	8b 4d ec	 mov	 ecx, DWORD PTR _rkSelectList$510198[ebp]
  0029e	83 c1 10	 add	 ecx, 16			; 00000010H
  002a1	ff 15 00 00 00
	00		 call	 DWORD PTR __imp_?c_str@ioHashString@@QBEPBDXZ
  002a7	8b 8e 80 01 00
	00		 mov	 ecx, DWORD PTR [esi+384]
  002ad	f3 0f 10 05 00
	00 00 00	 movss	 xmm0, DWORD PTR __real@3f19999a
  002b5	50		 push	 eax
  002b6	8b 86 84 01 00
	00		 mov	 eax, DWORD PTR [esi+388]
  002bc	0f af 45 f8	 imul	 eax, DWORD PTR _i$510191[ebp]
  002c0	03 45 f4	 add	 eax, DWORD PTR _iYPos$[ebp]
  002c3	83 ec 0c	 sub	 esp, 12			; 0000000cH
  002c6	f3 0f 11 44 24
	08		 movss	 DWORD PTR [esp+8], xmm0
  002cc	8d 44 08 03	 lea	 eax, DWORD PTR [eax+ecx+3]
  002d0	8b 4d f0	 mov	 ecx, DWORD PTR _iXPos$[ebp]
  002d3	0f 57 c0	 xorps	 xmm0, xmm0
  002d6	f3 0f 2a c0	 cvtsi2ss xmm0, eax
  002da	8b 86 7c 01 00
	00		 mov	 eax, DWORD PTR [esi+380]
  002e0	f3 0f 11 44 24
	04		 movss	 DWORD PTR [esp+4], xmm0
  002e6	8d 44 08 05	 lea	 eax, DWORD PTR [eax+ecx+5]
  002ea	0f 57 c0	 xorps	 xmm0, xmm0
  002ed	f3 0f 2a c0	 cvtsi2ss xmm0, eax
  002f1	f3 0f 11 04 24	 movss	 DWORD PTR [esp], xmm0
  002f6	ff d7		 call	 edi
  002f8	50		 push	 eax
  002f9	ff 15 00 00 00
	00		 call	 DWORD PTR __imp_?PrintText@ioFontManager@@QAAXMMMPBDZZ

; 431  : 		
; 432  : 		if( rkSelectList.m_pMarkRes )

  002ff	8b 45 ec	 mov	 eax, DWORD PTR _rkSelectList$510198[ebp]
  00302	83 c4 14	 add	 esp, 20			; 00000014H
  00305	39 58 20	 cmp	 DWORD PTR [eax+32], ebx
  00308	0f 84 85 00 00
	00		 je	 $LN4@OnRender

; 433  : 		{
; 434  : 			int iTitleSize = g_FontMgr.GetTextWidth( rkSelectList.m_szTitle.c_str(), TS_NORMAL, FONT_SIZE_12 );

  0030e	f3 0f 10 05 00
	00 00 00	 movss	 xmm0, DWORD PTR __real@3f19999a
  00316	53		 push	 ebx
  00317	51		 push	 ecx
  00318	f3 0f 11 04 24	 movss	 DWORD PTR [esp], xmm0
  0031d	53		 push	 ebx
  0031e	8d 48 10	 lea	 ecx, DWORD PTR [eax+16]
  00321	ff 15 00 00 00
	00		 call	 DWORD PTR __imp_?c_str@ioHashString@@QBEPBDXZ
  00327	50		 push	 eax
  00328	ff d7		 call	 edi
  0032a	8b c8		 mov	 ecx, eax
  0032c	ff 15 00 00 00
	00		 call	 DWORD PTR __imp_?GetTextWidth@ioFontManager@@QAEMPBDW4TextStyle@@MH@Z
  00332	e8 00 00 00 00	 call	 __ftol2_sse

; 435  : 			rkSelectList.m_pMarkRes->Render( iXPos + m_iListXPos + 7 + iTitleSize, iYPos + m_iListYPos + ( i * m_iHeightGap ) + 5 );

  00337	8b 8e 84 01 00
	00		 mov	 ecx, DWORD PTR [esi+388]
  0033d	0f af 4d f8	 imul	 ecx, DWORD PTR _i$510191[ebp]
  00341	03 4d f4	 add	 ecx, DWORD PTR _iYPos$[ebp]
  00344	8b 96 80 01 00
	00		 mov	 edx, DWORD PTR [esi+384]
  0034a	53		 push	 ebx
  0034b	8d 4c 11 05	 lea	 ecx, DWORD PTR [ecx+edx+5]
  0034f	8b 55 f0	 mov	 edx, DWORD PTR _iXPos$[ebp]
  00352	53		 push	 ebx
  00353	53		 push	 ebx
  00354	53		 push	 ebx
  00355	51		 push	 ecx
  00356	51		 push	 ecx
  00357	0f 57 c0	 xorps	 xmm0, xmm0
  0035a	f3 0f 2a c1	 cvtsi2ss xmm0, ecx
  0035e	8b 8e 7c 01 00
	00		 mov	 ecx, DWORD PTR [esi+380]
  00364	89 45 e0	 mov	 DWORD PTR _iTitleSize$510206[ebp], eax
  00367	03 4d e0	 add	 ecx, DWORD PTR _iTitleSize$510206[ebp]
  0036a	8b 45 ec	 mov	 eax, DWORD PTR _rkSelectList$510198[ebp]
  0036d	8b 40 20	 mov	 eax, DWORD PTR [eax+32]
  00370	8b 00		 mov	 eax, DWORD PTR [eax]
  00372	f3 0f 11 44 24
	04		 movss	 DWORD PTR [esp+4], xmm0
  00378	8d 4c 11 07	 lea	 ecx, DWORD PTR [ecx+edx+7]
  0037c	0f 57 c0	 xorps	 xmm0, xmm0
  0037f	f3 0f 2a c1	 cvtsi2ss xmm0, ecx
  00383	8b 4d ec	 mov	 ecx, DWORD PTR _rkSelectList$510198[ebp]
  00386	8b 49 20	 mov	 ecx, DWORD PTR [ecx+32]
  00389	f3 0f 11 04 24	 movss	 DWORD PTR [esp], xmm0
  0038e	ff 10		 call	 DWORD PTR [eax]
  00390	8b 45 ec	 mov	 eax, DWORD PTR _rkSelectList$510198[ebp]
$LN4@OnRender:

; 436  : 		}
; 437  : 
; 438  : 		if( m_bModeSelect && m_pManualMark )

  00393	38 9e b5 01 00
	00		 cmp	 BYTE PTR [esi+437], bl
  00399	0f 84 95 00 00
	00		 je	 $LN12@OnRender
  0039f	39 9e 6c 01 00
	00		 cmp	 DWORD PTR [esi+364], ebx
  003a5	0f 84 89 00 00
	00		 je	 $LN12@OnRender

; 439  : 		{
; 440  : 			if( m_iOverMarkListIndex == rkSelectList.m_iIndex )

  003ab	8b 8e b0 01 00
	00		 mov	 ecx, DWORD PTR [esi+432]
  003b1	3b 08		 cmp	 ecx, DWORD PTR [eax]

; 441  : 				m_pManualMark->SetColor( 206, 78, 0 );

  003b3	8b 8e 6c 01 00
	00		 mov	 ecx, DWORD PTR [esi+364]
  003b9	75 0f		 jne	 SHORT $LN2@OnRender
  003bb	8b 01		 mov	 eax, DWORD PTR [ecx]
  003bd	53		 push	 ebx
  003be	6a 4e		 push	 78			; 0000004eH
  003c0	68 ce 00 00 00	 push	 206			; 000000ceH
  003c5	ff 50 28	 call	 DWORD PTR [eax+40]

; 442  : 			else

  003c8	eb 0d		 jmp	 SHORT $LN1@OnRender
$LN2@OnRender:

; 443  : 				m_pManualMark->SetColor( 128, 128, 128 );

  003ca	8b 11		 mov	 edx, DWORD PTR [ecx]
  003cc	b8 80 00 00 00	 mov	 eax, 128		; 00000080H
  003d1	50		 push	 eax
  003d2	50		 push	 eax
  003d3	50		 push	 eax
  003d4	ff 52 28	 call	 DWORD PTR [edx+40]
$LN1@OnRender:

; 444  : 
; 445  : 			m_pManualMark->Render( iXPos + m_iListXPos + ( m_iManualMarkX - iCutWidth ) + 3, iYPos + m_iListYPos + ( i * m_iHeightGap ) + 3, UI_RENDER_NORMAL_ADD_COLOR );

  003d7	8b 8e 84 01 00
	00		 mov	 ecx, DWORD PTR [esi+388]
  003dd	0f af 4d f8	 imul	 ecx, DWORD PTR _i$510191[ebp]
  003e1	03 4d f4	 add	 ecx, DWORD PTR _iYPos$[ebp]
  003e4	8b 96 80 01 00
	00		 mov	 edx, DWORD PTR [esi+384]
  003ea	8b 86 6c 01 00
	00		 mov	 eax, DWORD PTR [esi+364]
  003f0	8b 00		 mov	 eax, DWORD PTR [eax]
  003f2	53		 push	 ebx
  003f3	8d 4c 11 03	 lea	 ecx, DWORD PTR [ecx+edx+3]
  003f7	8b 55 f0	 mov	 edx, DWORD PTR _iXPos$[ebp]
  003fa	53		 push	 ebx
  003fb	53		 push	 ebx
  003fc	6a 04		 push	 4
  003fe	51		 push	 ecx
  003ff	51		 push	 ecx
  00400	0f 57 c0	 xorps	 xmm0, xmm0
  00403	f3 0f 2a c1	 cvtsi2ss xmm0, ecx
  00407	8b 8e 98 01 00
	00		 mov	 ecx, DWORD PTR [esi+408]
  0040d	2b 4d e8	 sub	 ecx, DWORD PTR _iCutWidth$[ebp]
  00410	f3 0f 11 44 24
	04		 movss	 DWORD PTR [esp+4], xmm0
  00416	03 8e 7c 01 00
	00		 add	 ecx, DWORD PTR [esi+380]
  0041c	0f 57 c0	 xorps	 xmm0, xmm0
  0041f	8d 4c 11 03	 lea	 ecx, DWORD PTR [ecx+edx+3]
  00423	f3 0f 2a c1	 cvtsi2ss xmm0, ecx
  00427	8b 8e 6c 01 00
	00		 mov	 ecx, DWORD PTR [esi+364]
  0042d	f3 0f 11 04 24	 movss	 DWORD PTR [esp], xmm0
  00432	ff 10		 call	 DWORD PTR [eax]
$LN12@OnRender:

; 393  : 	int iListSize = m_vEnableSelectList.size();
; 394  : 	for(int i = 0;i < iListSize;i++)

  00434	ff 45 f8	 inc	 DWORD PTR _i$510191[ebp]
  00437	8b 45 f8	 mov	 eax, DWORD PTR _i$510191[ebp]
  0043a	3b 45 e4	 cmp	 eax, DWORD PTR tv773[ebp]
  0043d	0f 8c 6a fc ff
	ff		 jl	 $LL29@OnRender
$LN30@OnRender:
  00443	5f		 pop	 edi
$LN26@OnRender:
  00444	5e		 pop	 esi
  00445	5b		 pop	 ebx

; 446  : 		}
; 447  : 	}
; 448  : }

  00446	c9		 leave
  00447	c3		 ret	 0
?OnRender@ModeMapSelectList@@MAEXXZ ENDP		; ModeMapSelectList::OnRender
_TEXT	ENDS
PUBLIC	?GetIndexToXYPos@CreateModeSelectList@@QAE_NHAAM0@Z ; CreateModeSelectList::GetIndexToXYPos
; Function compile flags: /Ogsp
;	COMDAT ?GetIndexToXYPos@CreateModeSelectList@@QAE_NHAAM0@Z
_TEXT	SEGMENT
_iYPos$ = -16						; size = 4
_iXPos$ = -12						; size = 4
tv276 = -8						; size = 4
_iIndex$510330 = -4					; size = 4
tv143 = 8						; size = 4
_iSelectIndex$ = 8					; size = 4
_rfXPos$ = 12						; size = 4
_rfYPos$ = 16						; size = 4
?GetIndexToXYPos@CreateModeSelectList@@QAE_NHAAM0@Z PROC ; CreateModeSelectList::GetIndexToXYPos, COMDAT
; _this$ = ecx

; 608  : {

  00000	55		 push	 ebp
  00001	8b ec		 mov	 ebp, esp
  00003	83 ec 10	 sub	 esp, 16			; 00000010H
  00006	53		 push	 ebx
  00007	56		 push	 esi
  00008	57		 push	 edi

; 609  : 	int iXPos, iYPos;
; 610  : 	iXPos = GetDerivedPosX();

  00009	8b 3d 00 00 00
	00		 mov	 edi, DWORD PTR __imp_?GetDerivedPosX@ioWnd@@QBEHXZ
  0000f	8b f1		 mov	 esi, ecx
  00011	ff d7		 call	 edi

; 611  : 	iYPos = GetDerivedPosY();

  00013	8b 1d 00 00 00
	00		 mov	 ebx, DWORD PTR __imp_?GetDerivedPosY@ioWnd@@QBEHXZ
  00019	8b ce		 mov	 ecx, esi
  0001b	89 45 f4	 mov	 DWORD PTR _iXPos$[ebp], eax
  0001e	ff d3		 call	 ebx

; 612  : 
; 613  : 	int iCutWidth = 0;
; 614  : 	if( (int)m_vEnableSelectList.size() > m_iMaxPageList )
; 615  : 		iCutWidth = m_iCutWidth;
; 616  : 
; 617  : 	int iListSize = m_vEnableSelectList.size();
; 618  : 	for(int iIndex = 0 ; iIndex < iListSize ; ++iIndex )

  00020	83 65 fc 00	 and	 DWORD PTR _iIndex$510330[ebp], 0
  00024	89 45 f0	 mov	 DWORD PTR _iYPos$[ebp], eax
  00027	8b 86 a8 01 00
	00		 mov	 eax, DWORD PTR [esi+424]
  0002d	2b 86 a4 01 00
	00		 sub	 eax, DWORD PTR [esi+420]
  00033	c1 f8 05	 sar	 eax, 5
  00036	85 c0		 test	 eax, eax
  00038	7e 30		 jle	 SHORT $LN23@GetIndexTo@2
$LL22@GetIndexTo@2:

; 619  : 	{
; 620  : 		if( iIndex >= m_iMaxPageList )

  0003a	8b 55 fc	 mov	 edx, DWORD PTR _iIndex$510330[ebp]
  0003d	3b 96 94 01 00
	00		 cmp	 edx, DWORD PTR [esi+404]
  00043	7d 25		 jge	 SHORT $LN23@GetIndexTo@2

; 621  : 			break;
; 622  : 
; 623  : 		int iListPos = m_iCurPos + iIndex;

  00045	8b 8e 98 01 00
	00		 mov	 ecx, DWORD PTR [esi+408]
  0004b	03 ca		 add	 ecx, edx

; 624  : 		if( iListPos >= iListSize )

  0004d	3b c8		 cmp	 ecx, eax
  0004f	7d 19		 jge	 SHORT $LN23@GetIndexTo@2

; 625  : 			break;
; 626  : 
; 627  : 		if( m_vEnableSelectList[iListPos].m_iIndex == iSelectIndex )

  00051	8b 96 a4 01 00
	00		 mov	 edx, DWORD PTR [esi+420]
  00057	c1 e1 05	 shl	 ecx, 5
  0005a	8b 0c 11	 mov	 ecx, DWORD PTR [ecx+edx]
  0005d	3b 4d 08	 cmp	 ecx, DWORD PTR _iSelectIndex$[ebp]
  00060	74 6a		 je	 SHORT $LN20@GetIndexTo@2

; 612  : 
; 613  : 	int iCutWidth = 0;
; 614  : 	if( (int)m_vEnableSelectList.size() > m_iMaxPageList )
; 615  : 		iCutWidth = m_iCutWidth;
; 616  : 
; 617  : 	int iListSize = m_vEnableSelectList.size();
; 618  : 	for(int iIndex = 0 ; iIndex < iListSize ; ++iIndex )

  00062	ff 45 fc	 inc	 DWORD PTR _iIndex$510330[ebp]
  00065	39 45 fc	 cmp	 DWORD PTR _iIndex$510330[ebp], eax
  00068	7c d0		 jl	 SHORT $LL22@GetIndexTo@2
$LN23@GetIndexTo@2:

; 632  : 		}
; 633  : 	}
; 634  : 
; 635  : 	//  
; 636  : 	ioScroll *pScroll = dynamic_cast<ioScroll*>(FindChildWnd( ID_VERT_SCROLL ));

  0006a	6a 00		 push	 0
  0006c	68 00 00 00 00	 push	 OFFSET ??_R0?AVioScroll@@@8
  00071	68 00 00 00 00	 push	 OFFSET ??_R0?AVioWnd@@@8
  00076	6a 00		 push	 0
  00078	68 e8 03 00 00	 push	 1000			; 000003e8H
  0007d	8b ce		 mov	 ecx, esi
  0007f	ff 15 00 00 00
	00		 call	 DWORD PTR __imp_?FindChildWnd@ioWnd@@QAEPAV1@K@Z
  00085	50		 push	 eax
  00086	e8 00 00 00 00	 call	 ___RTDynamicCast
  0008b	8b f0		 mov	 esi, eax
  0008d	83 c4 14	 add	 esp, 20			; 00000014H

; 637  : 	if( pScroll && pScroll->IsShow() )

  00090	85 f6		 test	 esi, esi
  00092	74 7b		 je	 SHORT $LN1@GetIndexTo@2
  00094	8b ce		 mov	 ecx, esi
  00096	ff 15 00 00 00
	00		 call	 DWORD PTR __imp_?IsShow@ioWnd@@QBE_NXZ
  0009c	84 c0		 test	 al, al
  0009e	74 6f		 je	 SHORT $LN1@GetIndexTo@2

; 638  : 	{
; 639  : 		rfXPos = pScroll->GetDerivedPosX() + ( pScroll->GetWidth() / 2 );

  000a0	8b ce		 mov	 ecx, esi
  000a2	ff 15 00 00 00
	00		 call	 DWORD PTR __imp_?GetWidth@ioWnd@@QBEHXZ
  000a8	99		 cdq
  000a9	2b c2		 sub	 eax, edx
  000ab	89 45 08	 mov	 DWORD PTR tv143[ebp], eax
  000ae	d1 7d 08	 sar	 DWORD PTR tv143[ebp], 1
  000b1	8b ce		 mov	 ecx, esi
  000b3	ff d7		 call	 edi
  000b5	03 45 08	 add	 eax, DWORD PTR tv143[ebp]
  000b8	0f 57 c0	 xorps	 xmm0, xmm0
  000bb	f3 0f 2a c0	 cvtsi2ss xmm0, eax
  000bf	8b 45 0c	 mov	 eax, DWORD PTR _rfXPos$[ebp]

; 640  : 		rfYPos = pScroll->GetDerivedPosY();

  000c2	8b ce		 mov	 ecx, esi
  000c4	f3 0f 11 00	 movss	 DWORD PTR [eax], xmm0
  000c8	ff d3		 call	 ebx

; 641  : 		return true;

  000ca	eb 31		 jmp	 SHORT $LN24@GetIndexTo@2
$LN20@GetIndexTo@2:

; 628  : 		{
; 629  : 			rfXPos = iXPos + GetWidth() / 2;

  000cc	8b ce		 mov	 ecx, esi
  000ce	ff 15 00 00 00
	00		 call	 DWORD PTR __imp_?GetWidth@ioWnd@@QBEHXZ
  000d4	99		 cdq
  000d5	2b c2		 sub	 eax, edx
  000d7	d1 f8		 sar	 eax, 1
  000d9	03 45 f4	 add	 eax, DWORD PTR _iXPos$[ebp]
  000dc	0f 57 c0	 xorps	 xmm0, xmm0
  000df	f3 0f 2a c0	 cvtsi2ss xmm0, eax
  000e3	8b 45 0c	 mov	 eax, DWORD PTR _rfXPos$[ebp]
  000e6	f3 0f 11 00	 movss	 DWORD PTR [eax], xmm0

; 630  : 			rfYPos = iYPos + m_iListYPos + iIndex * m_iHeightGap;

  000ea	8b 86 84 01 00
	00		 mov	 eax, DWORD PTR [esi+388]
  000f0	0f af 45 fc	 imul	 eax, DWORD PTR _iIndex$510330[ebp]
  000f4	03 86 80 01 00
	00		 add	 eax, DWORD PTR [esi+384]
  000fa	03 45 f0	 add	 eax, DWORD PTR _iYPos$[ebp]
$LN24@GetIndexTo@2:
  000fd	0f 57 c0	 xorps	 xmm0, xmm0
  00100	f3 0f 2a c0	 cvtsi2ss xmm0, eax
  00104	8b 45 10	 mov	 eax, DWORD PTR _rfYPos$[ebp]
  00107	f3 0f 11 00	 movss	 DWORD PTR [eax], xmm0

; 631  : 			return true;

  0010b	b0 01		 mov	 al, 1
  0010d	eb 02		 jmp	 SHORT $LN9@GetIndexTo@2
$LN1@GetIndexTo@2:

; 642  : 	}
; 643  : 	return false;

  0010f	32 c0		 xor	 al, al
$LN9@GetIndexTo@2:
  00111	5f		 pop	 edi
  00112	5e		 pop	 esi
  00113	5b		 pop	 ebx

; 644  : }

  00114	c9		 leave
  00115	c2 0c 00	 ret	 12			; 0000000cH
?GetIndexToXYPos@CreateModeSelectList@@QAE_NHAAM0@Z ENDP ; CreateModeSelectList::GetIndexToXYPos
_TEXT	ENDS
PUBLIC	?ProcessModeHelpTooltip@CreateModeSelectList@@IAEXXZ ; CreateModeSelectList::ProcessModeHelpTooltip
;	COMDAT xdata$x
; File c:\program files (x86)\microsoft visual studio 10.0\vc\include\vector
xdata$x	SEGMENT
__unwindtable$?ProcessModeHelpTooltip@CreateModeSelectList@@IAEXXZ DD 0ffffffffH
	DD	FLAT:__unwindfunclet$?ProcessModeHelpTooltip@CreateModeSelectList@@IAEXXZ$0
__ehfuncinfo$?ProcessModeHelpTooltip@CreateModeSelectList@@IAEXXZ DD 019930522H
	DD	01H
	DD	FLAT:__unwindtable$?ProcessModeHelpTooltip@CreateModeSelectList@@IAEXXZ
	DD	2 DUP(00H)
	DD	2 DUP(00H)
	DD	00H
	DD	01H
; Function compile flags: /Ogsp
; File d:\lost saga for developer\youtube\tutorial\source\src\lsclient\gui\modemapselectlist.cpp
xdata$x	ENDS
;	COMDAT ?ProcessModeHelpTooltip@CreateModeSelectList@@IAEXXZ
_TEXT	SEGMENT
$T513966 = -28						; size = 16
__$EHRec$ = -12						; size = 12
?ProcessModeHelpTooltip@CreateModeSelectList@@IAEXXZ PROC ; CreateModeSelectList::ProcessModeHelpTooltip, COMDAT
; _this$ = ecx

; 738  : {

  00000	6a 10		 push	 16			; 00000010H
  00002	b8 00 00 00 00	 mov	 eax, __ehhandler$?ProcessModeHelpTooltip@CreateModeSelectList@@IAEXXZ
  00007	e8 00 00 00 00	 call	 __EH_prolog3
  0000c	8b f1		 mov	 esi, ecx

; 739  : 	if( !IsShow() ) return;

  0000e	ff 15 00 00 00
	00		 call	 DWORD PTR __imp_?IsShow@ioWnd@@QBE_NXZ
  00014	84 c0		 test	 al, al
  00016	0f 84 c1 00 00
	00		 je	 $LN1@ProcessMod@2

; 740  : 
; 741  : 	if( m_pModeHelpTooltip == NULL )

  0001c	33 c0		 xor	 eax, eax
  0001e	bb 00 00 00 00	 mov	 ebx, OFFSET ??_R0?AVModeHelpTooltip@@@8
  00023	bf 00 00 00 00	 mov	 edi, OFFSET ??_R0?AVioWnd@@@8
  00028	39 86 b4 01 00
	00		 cmp	 DWORD PTR [esi+436], eax
  0002e	75 22		 jne	 SHORT $LN8@ProcessMod@2

; 742  : 		m_pModeHelpTooltip = dynamic_cast< ModeHelpTooltip * >( FindChildWnd( ID_MODE_HELP_TOOLTIP ) );

  00030	50		 push	 eax
  00031	53		 push	 ebx
  00032	57		 push	 edi
  00033	50		 push	 eax
  00034	68 f4 01 00 00	 push	 500			; 000001f4H
  00039	8b ce		 mov	 ecx, esi
  0003b	ff 15 00 00 00
	00		 call	 DWORD PTR __imp_?FindChildWnd@ioWnd@@QAEPAV1@K@Z
  00041	50		 push	 eax
  00042	e8 00 00 00 00	 call	 ___RTDynamicCast
  00047	83 c4 14	 add	 esp, 20			; 00000014H
  0004a	89 86 b4 01 00
	00		 mov	 DWORD PTR [esi+436], eax
  00050	33 c0		 xor	 eax, eax
$LN8@ProcessMod@2:

; 743  : 
; 744  : 	ModeHelpTooltip *pModeHelpTooltip = dynamic_cast< ModeHelpTooltip * >( m_pModeHelpTooltip );	

  00052	50		 push	 eax
  00053	53		 push	 ebx
  00054	57		 push	 edi
  00055	50		 push	 eax
  00056	ff b6 b4 01 00
	00		 push	 DWORD PTR [esi+436]
  0005c	e8 00 00 00 00	 call	 ___RTDynamicCast
  00061	8b d8		 mov	 ebx, eax
  00063	83 c4 14	 add	 esp, 20			; 00000014H

; 745  : 	if( pModeHelpTooltip )

  00066	85 db		 test	 ebx, ebx
  00068	74 73		 je	 SHORT $LN1@ProcessMod@2

; 746  : 	{		
; 747  : 		if( m_iOverMarkListIndex != -2 )

  0006a	8b be a0 01 00
	00		 mov	 edi, DWORD PTR [esi+416]
  00070	83 ff fe	 cmp	 edi, -2			; fffffffeH
  00073	74 3a		 je	 SHORT $LN6@ProcessMod@2

; 748  : 		{
; 749  : 			int iListSize = m_vEnableSelectList.size();

  00075	8b 86 a8 01 00
	00		 mov	 eax, DWORD PTR [esi+424]
  0007b	2b 86 a4 01 00
	00		 sub	 eax, DWORD PTR [esi+420]

; 750  : 			for(int iIndex = 0 ; iIndex < iListSize ; ++iIndex )

  00081	33 d2		 xor	 edx, edx
  00083	c1 f8 05	 sar	 eax, 5
  00086	85 c0		 test	 eax, eax
  00088	7e 53		 jle	 SHORT $LN1@ProcessMod@2

; 748  : 		{
; 749  : 			int iListSize = m_vEnableSelectList.size();

  0008a	8b 8e a4 01 00
	00		 mov	 ecx, DWORD PTR [esi+420]
$LL5@ProcessMod@2:

; 751  : 			{
; 752  : 				SelectList &kList = m_vEnableSelectList[iIndex];
; 753  : 				if( m_iOverMarkListIndex == kList.m_iIndex )

  00090	3b 39		 cmp	 edi, DWORD PTR [ecx]
  00092	74 0a		 je	 SHORT $LN18@ProcessMod@2

; 750  : 			for(int iIndex = 0 ; iIndex < iListSize ; ++iIndex )

  00094	42		 inc	 edx
  00095	83 c1 20	 add	 ecx, 32			; 00000020H
  00098	3b d0		 cmp	 edx, eax
  0009a	7c f4		 jl	 SHORT $LL5@ProcessMod@2

; 751  : 			{
; 752  : 				SelectList &kList = m_vEnableSelectList[iIndex];
; 753  : 				if( m_iOverMarkListIndex == kList.m_iIndex )

  0009c	eb 3f		 jmp	 SHORT $LN1@ProcessMod@2
$LN18@ProcessMod@2:

; 754  : 				{
; 755  : 					pModeHelpTooltip->SetModeHelpTooltip( this, kList.m_szTitle, kList.m_iHelpIndex );

  0009e	ff 71 04	 push	 DWORD PTR [ecx+4]
  000a1	83 c1 0c	 add	 ecx, 12			; 0000000cH
  000a4	51		 push	 ecx
  000a5	56		 push	 esi
  000a6	8b cb		 mov	 ecx, ebx
  000a8	e8 00 00 00 00	 call	 ?SetModeHelpTooltip@ModeHelpTooltip@@QAEXPAVioWnd@@ABVioHashString@@H@Z ; ModeHelpTooltip::SetModeHelpTooltip

; 756  : 					break;
; 757  : 				}
; 758  : 			}			
; 759  : 		}
; 760  : 		else

  000ad	eb 2e		 jmp	 SHORT $LN1@ProcessMod@2
$LN6@ProcessMod@2:

; 761  : 		{
; 762  : 			pModeHelpTooltip->SetModeHelpTooltip( NULL, "", -1 );

  000af	68 00 00 00 00	 push	 OFFSET ??_C@_00CNPNBAHC@?$AA@
  000b4	8d 4d e4	 lea	 ecx, DWORD PTR $T513966[ebp]
  000b7	ff 15 00 00 00
	00		 call	 DWORD PTR __imp_??0ioHashString@@QAE@PBD@Z
  000bd	83 65 fc 00	 and	 DWORD PTR __$EHRec$[ebp+8], 0
  000c1	6a ff		 push	 -1
  000c3	8d 45 e4	 lea	 eax, DWORD PTR $T513966[ebp]
  000c6	50		 push	 eax
  000c7	6a 00		 push	 0
  000c9	8b cb		 mov	 ecx, ebx
  000cb	e8 00 00 00 00	 call	 ?SetModeHelpTooltip@ModeHelpTooltip@@QAEXPAVioWnd@@ABVioHashString@@H@Z ; ModeHelpTooltip::SetModeHelpTooltip
  000d0	83 4d fc ff	 or	 DWORD PTR __$EHRec$[ebp+8], -1
  000d4	8d 4d e4	 lea	 ecx, DWORD PTR $T513966[ebp]
  000d7	ff 15 00 00 00
	00		 call	 DWORD PTR __imp_??1ioHashString@@QAE@XZ
$LN1@ProcessMod@2:

; 763  : 		}
; 764  : 	}	
; 765  : }

  000dd	e8 00 00 00 00	 call	 __EH_epilog3
  000e2	c3		 ret	 0
_TEXT	ENDS
;	COMDAT text$x
text$x	SEGMENT
__unwindfunclet$?ProcessModeHelpTooltip@CreateModeSelectList@@IAEXXZ$0:
  00000	8d 4d e4	 lea	 ecx, DWORD PTR $T513966[ebp]
  00003	ff 25 00 00 00
	00		 jmp	 DWORD PTR __imp_??1ioHashString@@QAE@XZ
__ehhandler$?ProcessModeHelpTooltip@CreateModeSelectList@@IAEXXZ:
  00009	8b 54 24 08	 mov	 edx, DWORD PTR [esp+8]
  0000d	8d 42 0c	 lea	 eax, DWORD PTR [edx+12]
  00010	8b 4a e0	 mov	 ecx, DWORD PTR [edx-32]
  00013	33 c8		 xor	 ecx, eax
  00015	e8 00 00 00 00	 call	 @__security_check_cookie@4
  0001a	b8 00 00 00 00	 mov	 eax, OFFSET __ehfuncinfo$?ProcessModeHelpTooltip@CreateModeSelectList@@IAEXXZ
  0001f	e9 00 00 00 00	 jmp	 ___CxxFrameHandler3
text$x	ENDS
?ProcessModeHelpTooltip@CreateModeSelectList@@IAEXXZ ENDP ; CreateModeSelectList::ProcessModeHelpTooltip
PUBLIC	?OnRender@CreateModeSelectList@@MAEXXZ		; CreateModeSelectList::OnRender
; Function compile flags: /Ogsp
;	COMDAT ?OnRender@CreateModeSelectList@@MAEXXZ
_TEXT	SEGMENT
tv731 = -36						; size = 4
tv350 = -32						; size = 4
tv321 = -32						; size = 4
tv277 = -32						; size = 4
_iTitleSize$510423 = -32				; size = 4
tv823 = -28						; size = 4
tv650 = -24						; size = 4
_iCutWidth$ = -20					; size = 4
_iXPos$ = -16						; size = 4
_iYPos$ = -12						; size = 4
_iIndex$510409 = -8					; size = 4
_bDarkRender$ = -1					; size = 1
?OnRender@CreateModeSelectList@@MAEXXZ PROC		; CreateModeSelectList::OnRender, COMDAT
; _this$ = ecx

; 768  : {

  00000	55		 push	 ebp
  00001	8b ec		 mov	 ebp, esp
  00003	83 ec 24	 sub	 esp, 36			; 00000024H
  00006	53		 push	 ebx
  00007	56		 push	 esi
  00008	8b f1		 mov	 esi, ecx

; 769  : 	ioWnd::OnRender();

  0000a	ff 15 00 00 00
	00		 call	 DWORD PTR __imp_?OnRender@ioWnd@@MAEXXZ

; 770  : 
; 771  : 	if( !m_pDarkLine || !m_pLightLine || !m_pOverLine ) 

  00010	33 db		 xor	 ebx, ebx
  00012	39 9e 60 01 00
	00		 cmp	 DWORD PTR [esi+352], ebx
  00018	0f 84 64 04 00
	00		 je	 $LN36@OnRender@2
  0001e	39 9e 64 01 00
	00		 cmp	 DWORD PTR [esi+356], ebx
  00024	0f 84 58 04 00
	00		 je	 $LN36@OnRender@2
  0002a	39 9e 68 01 00
	00		 cmp	 DWORD PTR [esi+360], ebx
  00030	0f 84 4c 04 00
	00		 je	 $LN36@OnRender@2

; 772  : 		return;
; 773  : 
; 774  : 	g_FontMgr.SetAlignType( TAT_LEFT );

  00036	57		 push	 edi
  00037	8b 3d 00 00 00
	00		 mov	 edi, DWORD PTR __imp_?GetSingleton@ioFontManager@@SAAAV1@XZ
  0003d	53		 push	 ebx
  0003e	ff d7		 call	 edi
  00040	8b c8		 mov	 ecx, eax
  00042	ff 15 00 00 00
	00		 call	 DWORD PTR __imp_?SetAlignType@ioFontManager@@QAEXW4TextAlignType@@@Z

; 775  : 	g_FontMgr.SetTextStyle( TS_NORMAL );

  00048	53		 push	 ebx
  00049	ff d7		 call	 edi
  0004b	8b c8		 mov	 ecx, eax
  0004d	ff 15 00 00 00
	00		 call	 DWORD PTR __imp_?SetTextStyle@ioFontManager@@QAEXW4TextStyle@@@Z

; 776  : 	g_FontMgr.SetBkColor( 0, 0, 0 );

  00053	53		 push	 ebx
  00054	53		 push	 ebx
  00055	53		 push	 ebx
  00056	ff d7		 call	 edi
  00058	8b c8		 mov	 ecx, eax
  0005a	ff 15 00 00 00
	00		 call	 DWORD PTR __imp_?SetBkColor@ioFontManager@@QAEXHHH@Z

; 777  : 
; 778  : 	int iXPos = GetDerivedPosX();

  00060	8b ce		 mov	 ecx, esi
  00062	ff 15 00 00 00
	00		 call	 DWORD PTR __imp_?GetDerivedPosX@ioWnd@@QBEHXZ

; 779  : 	int iYPos = GetDerivedPosY();

  00068	8b ce		 mov	 ecx, esi
  0006a	89 45 f0	 mov	 DWORD PTR _iXPos$[ebp], eax
  0006d	ff 15 00 00 00
	00		 call	 DWORD PTR __imp_?GetDerivedPosY@ioWnd@@QBEHXZ
  00073	89 45 f4	 mov	 DWORD PTR _iYPos$[ebp], eax

; 780  : 
; 781  : 	int iCutWidth = 0;
; 782  : 	if( (int)m_vEnableSelectList.size() > m_iMaxPageList )

  00076	8b 86 a8 01 00
	00		 mov	 eax, DWORD PTR [esi+424]
  0007c	2b 86 a4 01 00
	00		 sub	 eax, DWORD PTR [esi+420]
  00082	89 5d ec	 mov	 DWORD PTR _iCutWidth$[ebp], ebx
  00085	c1 f8 05	 sar	 eax, 5
  00088	89 45 e4	 mov	 DWORD PTR tv823[ebp], eax
  0008b	3b 86 94 01 00
	00		 cmp	 eax, DWORD PTR [esi+404]
  00091	7e 09		 jle	 SHORT $LN14@OnRender@2

; 783  : 		iCutWidth = m_iCutWidth;

  00093	8b 8e 88 01 00
	00		 mov	 ecx, DWORD PTR [esi+392]
  00099	89 4d ec	 mov	 DWORD PTR _iCutWidth$[ebp], ecx
$LN14@OnRender@2:

; 784  : 
; 785  : 	bool bDarkRender = false;

  0009c	88 5d ff	 mov	 BYTE PTR _bDarkRender$[ebp], bl

; 786  : 	int iListSize = m_vEnableSelectList.size();
; 787  : 	for(int iIndex = 0 ; iIndex < iListSize ; ++iIndex )

  0009f	89 5d f8	 mov	 DWORD PTR _iIndex$510409[ebp], ebx
  000a2	3b c3		 cmp	 eax, ebx
  000a4	0f 8e d7 03 00
	00		 jle	 $LN40@OnRender@2
  000aa	eb 03		 jmp	 SHORT $LN13@OnRender@2
$LL39@OnRender@2:
  000ac	8b 45 e4	 mov	 eax, DWORD PTR tv823[ebp]
$LN13@OnRender@2:

; 788  : 	{
; 789  : 		if( iIndex >= m_iMaxPageList )

  000af	8b 55 f8	 mov	 edx, DWORD PTR _iIndex$510409[ebp]
  000b2	3b 96 94 01 00
	00		 cmp	 edx, DWORD PTR [esi+404]
  000b8	0f 8d c3 03 00
	00		 jge	 $LN40@OnRender@2

; 790  : 			break;
; 791  : 
; 792  : 		int iListPos = m_iCurPos + iIndex;

  000be	8b 8e 98 01 00
	00		 mov	 ecx, DWORD PTR [esi+408]
  000c4	03 ca		 add	 ecx, edx

; 793  : 		if( iListPos >= iListSize )

  000c6	3b c8		 cmp	 ecx, eax
  000c8	0f 8d b3 03 00
	00		 jge	 $LN40@OnRender@2

; 794  : 			break;
; 795  : 
; 796  : 		bDarkRender = !bDarkRender;

  000ce	38 5d ff	 cmp	 BYTE PTR _bDarkRender$[ebp], bl

; 797  : 		if( m_iOverListIndex == m_vEnableSelectList[iListPos].m_iIndex )

  000d1	8b 96 9c 01 00
	00		 mov	 edx, DWORD PTR [esi+412]
  000d7	0f 94 c0	 sete	 al
  000da	c1 e1 05	 shl	 ecx, 5
  000dd	88 45 ff	 mov	 BYTE PTR _bDarkRender$[ebp], al
  000e0	8b 86 a4 01 00
	00		 mov	 eax, DWORD PTR [esi+420]
  000e6	3b 14 01	 cmp	 edx, DWORD PTR [ecx+eax]
  000e9	89 4d e8	 mov	 DWORD PTR tv650[ebp], ecx

; 798  : 		{
; 799  : 			m_pOverLine->SetSize( ( GetWidth() - m_iAddWidth ) - iCutWidth, 21 );

  000ec	6a 15		 push	 21			; 00000015H
  000ee	8b ce		 mov	 ecx, esi
  000f0	0f 85 a7 00 00
	00		 jne	 $LN8@OnRender@2
  000f6	8b 86 68 01 00
	00		 mov	 eax, DWORD PTR [esi+360]
  000fc	8b 00		 mov	 eax, DWORD PTR [eax]
  000fe	83 c0 10	 add	 eax, 16			; 00000010H
  00101	89 45 e0	 mov	 DWORD PTR tv277[ebp], eax
  00104	ff 15 00 00 00
	00		 call	 DWORD PTR __imp_?GetWidth@ioWnd@@QBEHXZ
  0010a	2b 86 74 01 00
	00		 sub	 eax, DWORD PTR [esi+372]
  00110	8b 8e 68 01 00
	00		 mov	 ecx, DWORD PTR [esi+360]
  00116	2b 45 ec	 sub	 eax, DWORD PTR _iCutWidth$[ebp]
  00119	50		 push	 eax
  0011a	8b 45 e0	 mov	 eax, DWORD PTR tv277[ebp]
  0011d	ff 10		 call	 DWORD PTR [eax]

; 800  : 			m_pOverLine->SetHorzFormatting( ioUIRenderImage::HF_STRETCH );

  0011f	8b 8e 68 01 00
	00		 mov	 ecx, DWORD PTR [esi+360]
  00125	6a 03		 push	 3
  00127	ff 15 00 00 00
	00		 call	 DWORD PTR __imp_?SetHorzFormatting@ioUIRenderImage@@QAEXW4HorzFormatting@1@@Z

; 801  : 			m_pOverLine->SetVertFormatting( ioUIRenderImage::VF_STRETCH );

  0012d	8b 8e 68 01 00
	00		 mov	 ecx, DWORD PTR [esi+360]
  00133	6a 03		 push	 3
  00135	ff 15 00 00 00
	00		 call	 DWORD PTR __imp_?SetVertFormatting@ioUIRenderImage@@QAEXW4VertFormatting@1@@Z

; 802  : 			m_pOverLine->Render( iXPos + m_iListXPos, iYPos + m_iListYPos + ( iIndex * m_iHeightGap ) );

  0013b	8b 8e 84 01 00
	00		 mov	 ecx, DWORD PTR [esi+388]
  00141	0f af 4d f8	 imul	 ecx, DWORD PTR _iIndex$510409[ebp]
  00145	03 4d f4	 add	 ecx, DWORD PTR _iYPos$[ebp]
  00148	8b 86 68 01 00
	00		 mov	 eax, DWORD PTR [esi+360]
  0014e	03 8e 80 01 00
	00		 add	 ecx, DWORD PTR [esi+384]
  00154	8b 00		 mov	 eax, DWORD PTR [eax]
  00156	53		 push	 ebx
  00157	53		 push	 ebx
  00158	53		 push	 ebx
  00159	53		 push	 ebx
  0015a	51		 push	 ecx
  0015b	51		 push	 ecx
  0015c	0f 57 c0	 xorps	 xmm0, xmm0
  0015f	f3 0f 2a c1	 cvtsi2ss xmm0, ecx
  00163	8b 8e 7c 01 00
	00		 mov	 ecx, DWORD PTR [esi+380]
  00169	03 4d f0	 add	 ecx, DWORD PTR _iXPos$[ebp]
  0016c	f3 0f 11 44 24
	04		 movss	 DWORD PTR [esp+4], xmm0
  00172	0f 57 c0	 xorps	 xmm0, xmm0
  00175	f3 0f 2a c1	 cvtsi2ss xmm0, ecx
  00179	8b 8e 68 01 00
	00		 mov	 ecx, DWORD PTR [esi+360]
  0017f	f3 0f 11 04 24	 movss	 DWORD PTR [esp], xmm0
  00184	ff 10		 call	 DWORD PTR [eax]

; 803  : 			g_FontMgr.SetTextColor( 255, 255, 255 );

  00186	b8 ff 00 00 00	 mov	 eax, 255		; 000000ffH
  0018b	50		 push	 eax
  0018c	50		 push	 eax
  0018d	50		 push	 eax
  0018e	ff d7		 call	 edi
  00190	8b c8		 mov	 ecx, eax
  00192	ff 15 00 00 00
	00		 call	 DWORD PTR __imp_?SetTextColor@ioFontManager@@QAEXHHH@Z
  00198	e9 2c 01 00 00	 jmp	 $LN5@OnRender@2
$LN8@OnRender@2:

; 804  : 		}
; 805  : 		else if( bDarkRender )

  0019d	38 5d ff	 cmp	 BYTE PTR _bDarkRender$[ebp], bl
  001a0	0f 84 88 00 00
	00		 je	 $LN6@OnRender@2

; 806  : 		{
; 807  : 			m_pDarkLine->SetSize( ( GetWidth() - m_iAddWidth ) - iCutWidth, 21 );

  001a6	8b 86 60 01 00
	00		 mov	 eax, DWORD PTR [esi+352]
  001ac	8b 00		 mov	 eax, DWORD PTR [eax]
  001ae	83 c0 10	 add	 eax, 16			; 00000010H
  001b1	89 45 e0	 mov	 DWORD PTR tv321[ebp], eax
  001b4	ff 15 00 00 00
	00		 call	 DWORD PTR __imp_?GetWidth@ioWnd@@QBEHXZ
  001ba	2b 86 74 01 00
	00		 sub	 eax, DWORD PTR [esi+372]
  001c0	8b 8e 60 01 00
	00		 mov	 ecx, DWORD PTR [esi+352]
  001c6	2b 45 ec	 sub	 eax, DWORD PTR _iCutWidth$[ebp]
  001c9	50		 push	 eax
  001ca	8b 45 e0	 mov	 eax, DWORD PTR tv321[ebp]
  001cd	ff 10		 call	 DWORD PTR [eax]

; 808  : 			m_pDarkLine->SetHorzFormatting( ioUIRenderImage::HF_STRETCH );

  001cf	8b 8e 60 01 00
	00		 mov	 ecx, DWORD PTR [esi+352]
  001d5	6a 03		 push	 3
  001d7	ff 15 00 00 00
	00		 call	 DWORD PTR __imp_?SetHorzFormatting@ioUIRenderImage@@QAEXW4HorzFormatting@1@@Z

; 809  : 			m_pDarkLine->SetVertFormatting( ioUIRenderImage::VF_STRETCH );

  001dd	8b 8e 60 01 00
	00		 mov	 ecx, DWORD PTR [esi+352]
  001e3	6a 03		 push	 3
  001e5	ff 15 00 00 00
	00		 call	 DWORD PTR __imp_?SetVertFormatting@ioUIRenderImage@@QAEXW4VertFormatting@1@@Z

; 810  : 			m_pDarkLine->Render( iXPos + m_iListXPos, iYPos + m_iListYPos + ( iIndex * m_iHeightGap ) );

  001eb	8b 8e 84 01 00
	00		 mov	 ecx, DWORD PTR [esi+388]
  001f1	0f af 4d f8	 imul	 ecx, DWORD PTR _iIndex$510409[ebp]
  001f5	03 4d f4	 add	 ecx, DWORD PTR _iYPos$[ebp]
  001f8	8b 86 60 01 00
	00		 mov	 eax, DWORD PTR [esi+352]
  001fe	03 8e 80 01 00
	00		 add	 ecx, DWORD PTR [esi+384]
  00204	53		 push	 ebx
  00205	53		 push	 ebx
  00206	53		 push	 ebx
  00207	53		 push	 ebx
  00208	51		 push	 ecx
  00209	0f 57 c0	 xorps	 xmm0, xmm0
  0020c	f3 0f 2a c1	 cvtsi2ss xmm0, ecx
  00210	51		 push	 ecx
  00211	8b 8e 7c 01 00
	00		 mov	 ecx, DWORD PTR [esi+380]
  00217	03 4d f0	 add	 ecx, DWORD PTR _iXPos$[ebp]
  0021a	f3 0f 11 44 24
	04		 movss	 DWORD PTR [esp+4], xmm0
  00220	0f 57 c0	 xorps	 xmm0, xmm0
  00223	f3 0f 2a c1	 cvtsi2ss xmm0, ecx
  00227	8b c8		 mov	 ecx, eax

; 811  : 			g_FontMgr.SetTextColor( TCT_DEFAULT_DARKGRAY );
; 812  : 		}
; 813  : 		else

  00229	e9 83 00 00 00	 jmp	 $LN41@OnRender@2
$LN6@OnRender@2:

; 814  : 		{
; 815  : 			m_pLightLine->SetSize( ( GetWidth() - m_iAddWidth ) - iCutWidth, 21 );

  0022e	8b 86 64 01 00
	00		 mov	 eax, DWORD PTR [esi+356]
  00234	8b 00		 mov	 eax, DWORD PTR [eax]
  00236	83 c0 10	 add	 eax, 16			; 00000010H
  00239	89 45 e0	 mov	 DWORD PTR tv350[ebp], eax
  0023c	ff 15 00 00 00
	00		 call	 DWORD PTR __imp_?GetWidth@ioWnd@@QBEHXZ
  00242	2b 86 74 01 00
	00		 sub	 eax, DWORD PTR [esi+372]
  00248	8b 8e 64 01 00
	00		 mov	 ecx, DWORD PTR [esi+356]
  0024e	2b 45 ec	 sub	 eax, DWORD PTR _iCutWidth$[ebp]
  00251	50		 push	 eax
  00252	8b 45 e0	 mov	 eax, DWORD PTR tv350[ebp]
  00255	ff 10		 call	 DWORD PTR [eax]

; 816  : 			m_pLightLine->SetHorzFormatting( ioUIRenderImage::HF_STRETCH );

  00257	8b 8e 64 01 00
	00		 mov	 ecx, DWORD PTR [esi+356]
  0025d	6a 03		 push	 3
  0025f	ff 15 00 00 00
	00		 call	 DWORD PTR __imp_?SetHorzFormatting@ioUIRenderImage@@QAEXW4HorzFormatting@1@@Z

; 817  : 			m_pLightLine->SetVertFormatting( ioUIRenderImage::VF_STRETCH );

  00265	8b 8e 64 01 00
	00		 mov	 ecx, DWORD PTR [esi+356]
  0026b	6a 03		 push	 3
  0026d	ff 15 00 00 00
	00		 call	 DWORD PTR __imp_?SetVertFormatting@ioUIRenderImage@@QAEXW4VertFormatting@1@@Z

; 818  : 			m_pLightLine->Render( iXPos + m_iListXPos, iYPos + m_iListYPos + ( iIndex * m_iHeightGap ) );

  00273	8b 8e 84 01 00
	00		 mov	 ecx, DWORD PTR [esi+388]
  00279	0f af 4d f8	 imul	 ecx, DWORD PTR _iIndex$510409[ebp]
  0027d	03 4d f4	 add	 ecx, DWORD PTR _iYPos$[ebp]
  00280	8b 86 64 01 00
	00		 mov	 eax, DWORD PTR [esi+356]
  00286	03 8e 80 01 00
	00		 add	 ecx, DWORD PTR [esi+384]
  0028c	53		 push	 ebx
  0028d	53		 push	 ebx
  0028e	53		 push	 ebx
  0028f	53		 push	 ebx
  00290	51		 push	 ecx
  00291	0f 57 c0	 xorps	 xmm0, xmm0
  00294	f3 0f 2a c1	 cvtsi2ss xmm0, ecx
  00298	51		 push	 ecx
  00299	8b 8e 7c 01 00
	00		 mov	 ecx, DWORD PTR [esi+380]
  0029f	03 4d f0	 add	 ecx, DWORD PTR _iXPos$[ebp]
  002a2	f3 0f 11 44 24
	04		 movss	 DWORD PTR [esp+4], xmm0
  002a8	0f 57 c0	 xorps	 xmm0, xmm0
  002ab	f3 0f 2a c1	 cvtsi2ss xmm0, ecx
  002af	8b c8		 mov	 ecx, eax
$LN41@OnRender@2:
  002b1	8b 00		 mov	 eax, DWORD PTR [eax]
  002b3	f3 0f 11 04 24	 movss	 DWORD PTR [esp], xmm0
  002b8	ff 10		 call	 DWORD PTR [eax]

; 819  : 			g_FontMgr.SetTextColor( TCT_DEFAULT_DARKGRAY );

  002ba	68 3a 3a 3a ff	 push	 -12961222		; ff3a3a3aH
  002bf	ff d7		 call	 edi
  002c1	8b c8		 mov	 ecx, eax
  002c3	ff 15 00 00 00
	00		 call	 DWORD PTR __imp_?SetTextColor@ioFontManager@@QAEXK@Z
$LN5@OnRender@2:

; 820  : 		}
; 821  : 
; 822  : 		g_FontMgr.PrintText( iXPos + m_iListXPos + 5, iYPos + m_iListYPos + ( iIndex * m_iHeightGap ) + 3, FONT_SIZE_12, m_vEnableSelectList[iListPos].m_szTitle.c_str() );

  002c9	8b 8e a4 01 00
	00		 mov	 ecx, DWORD PTR [esi+420]
  002cf	03 4d e8	 add	 ecx, DWORD PTR tv650[ebp]
  002d2	8d 49 0c	 lea	 ecx, DWORD PTR [ecx+12]
  002d5	ff 15 00 00 00
	00		 call	 DWORD PTR __imp_?c_str@ioHashString@@QBEPBDXZ
  002db	8b 8e 80 01 00
	00		 mov	 ecx, DWORD PTR [esi+384]
  002e1	f3 0f 10 05 00
	00 00 00	 movss	 xmm0, DWORD PTR __real@3f19999a
  002e9	50		 push	 eax
  002ea	8b 86 84 01 00
	00		 mov	 eax, DWORD PTR [esi+388]
  002f0	0f af 45 f8	 imul	 eax, DWORD PTR _iIndex$510409[ebp]
  002f4	03 45 f4	 add	 eax, DWORD PTR _iYPos$[ebp]
  002f7	83 ec 0c	 sub	 esp, 12			; 0000000cH
  002fa	f3 0f 11 44 24
	08		 movss	 DWORD PTR [esp+8], xmm0
  00300	8d 44 08 03	 lea	 eax, DWORD PTR [eax+ecx+3]
  00304	8b 4d f0	 mov	 ecx, DWORD PTR _iXPos$[ebp]
  00307	0f 57 c0	 xorps	 xmm0, xmm0
  0030a	f3 0f 2a c0	 cvtsi2ss xmm0, eax
  0030e	8b 86 7c 01 00
	00		 mov	 eax, DWORD PTR [esi+380]
  00314	f3 0f 11 44 24
	04		 movss	 DWORD PTR [esp+4], xmm0
  0031a	8d 44 08 05	 lea	 eax, DWORD PTR [eax+ecx+5]
  0031e	0f 57 c0	 xorps	 xmm0, xmm0
  00321	f3 0f 2a c0	 cvtsi2ss xmm0, eax
  00325	f3 0f 11 04 24	 movss	 DWORD PTR [esp], xmm0
  0032a	ff d7		 call	 edi
  0032c	50		 push	 eax
  0032d	ff 15 00 00 00
	00		 call	 DWORD PTR __imp_?PrintText@ioFontManager@@QAAXMMMPBDZZ

; 823  : 
; 824  : 		if( m_vEnableSelectList[iListPos].m_pMarkRes )

  00333	8b 86 a4 01 00
	00		 mov	 eax, DWORD PTR [esi+420]
  00339	8b 4d e8	 mov	 ecx, DWORD PTR tv650[ebp]
  0033c	83 c4 14	 add	 esp, 20			; 00000014H
  0033f	39 5c 08 1c	 cmp	 DWORD PTR [eax+ecx+28], ebx
  00343	0f 84 8a 00 00
	00		 je	 $LN4@OnRender@2

; 825  : 		{
; 826  : 			int iTitleSize = g_FontMgr.GetTextWidth( m_vEnableSelectList[iListPos].m_szTitle.c_str(), TS_NORMAL, FONT_SIZE_12 );

  00349	f3 0f 10 05 00
	00 00 00	 movss	 xmm0, DWORD PTR __real@3f19999a
  00351	53		 push	 ebx
  00352	51		 push	 ecx
  00353	f3 0f 11 04 24	 movss	 DWORD PTR [esp], xmm0
  00358	53		 push	 ebx
  00359	8d 4c 08 0c	 lea	 ecx, DWORD PTR [eax+ecx+12]
  0035d	ff 15 00 00 00
	00		 call	 DWORD PTR __imp_?c_str@ioHashString@@QBEPBDXZ
  00363	50		 push	 eax
  00364	ff d7		 call	 edi
  00366	8b c8		 mov	 ecx, eax
  00368	ff 15 00 00 00
	00		 call	 DWORD PTR __imp_?GetTextWidth@ioFontManager@@QAEMPBDW4TextStyle@@MH@Z
  0036e	e8 00 00 00 00	 call	 __ftol2_sse

; 827  : 			m_vEnableSelectList[iListPos].m_pMarkRes->Render( iXPos + m_iListXPos + 7 + iTitleSize, iYPos + m_iListYPos + ( iIndex * m_iHeightGap ) + 5 );

  00373	8b 4d e8	 mov	 ecx, DWORD PTR tv650[ebp]
  00376	8b 96 80 01 00
	00		 mov	 edx, DWORD PTR [esi+384]
  0037c	89 45 e0	 mov	 DWORD PTR _iTitleSize$510423[ebp], eax
  0037f	8b 86 a4 01 00
	00		 mov	 eax, DWORD PTR [esi+420]
  00385	8b 44 01 1c	 mov	 eax, DWORD PTR [ecx+eax+28]
  00389	8b 8e 84 01 00
	00		 mov	 ecx, DWORD PTR [esi+388]
  0038f	0f af 4d f8	 imul	 ecx, DWORD PTR _iIndex$510409[ebp]
  00393	03 4d f4	 add	 ecx, DWORD PTR _iYPos$[ebp]
  00396	53		 push	 ebx
  00397	53		 push	 ebx
  00398	8d 4c 11 05	 lea	 ecx, DWORD PTR [ecx+edx+5]
  0039c	8b 55 f0	 mov	 edx, DWORD PTR _iXPos$[ebp]
  0039f	53		 push	 ebx
  003a0	53		 push	 ebx
  003a1	51		 push	 ecx
  003a2	51		 push	 ecx
  003a3	0f 57 c0	 xorps	 xmm0, xmm0
  003a6	f3 0f 2a c1	 cvtsi2ss xmm0, ecx
  003aa	8b 8e 7c 01 00
	00		 mov	 ecx, DWORD PTR [esi+380]
  003b0	03 4d e0	 add	 ecx, DWORD PTR _iTitleSize$510423[ebp]
  003b3	f3 0f 11 44 24
	04		 movss	 DWORD PTR [esp+4], xmm0
  003b9	8d 4c 11 07	 lea	 ecx, DWORD PTR [ecx+edx+7]
  003bd	89 45 dc	 mov	 DWORD PTR tv731[ebp], eax
  003c0	8b 00		 mov	 eax, DWORD PTR [eax]
  003c2	0f 57 c0	 xorps	 xmm0, xmm0
  003c5	f3 0f 2a c1	 cvtsi2ss xmm0, ecx
  003c9	8b 4d dc	 mov	 ecx, DWORD PTR tv731[ebp]
  003cc	f3 0f 11 04 24	 movss	 DWORD PTR [esp], xmm0
  003d1	ff 10		 call	 DWORD PTR [eax]
$LN4@OnRender@2:

; 828  : 		}
; 829  : 
; 830  : 		if( m_pManualMark )

  003d3	39 9e 6c 01 00
	00		 cmp	 DWORD PTR [esi+364], ebx
  003d9	0f 84 93 00 00
	00		 je	 $LN12@OnRender@2

; 831  : 		{
; 832  : 			if( m_iOverMarkListIndex == m_vEnableSelectList[iListPos].m_iIndex )

  003df	8b 8e a0 01 00
	00		 mov	 ecx, DWORD PTR [esi+416]
  003e5	8b 86 a4 01 00
	00		 mov	 eax, DWORD PTR [esi+420]
  003eb	8b 55 e8	 mov	 edx, DWORD PTR tv650[ebp]
  003ee	3b 0c 02	 cmp	 ecx, DWORD PTR [edx+eax]

; 833  : 				m_pManualMark->SetColor( 206, 78, 0 );

  003f1	8b 8e 6c 01 00
	00		 mov	 ecx, DWORD PTR [esi+364]
  003f7	75 0f		 jne	 SHORT $LN2@OnRender@2
  003f9	8b 01		 mov	 eax, DWORD PTR [ecx]
  003fb	53		 push	 ebx
  003fc	6a 4e		 push	 78			; 0000004eH
  003fe	68 ce 00 00 00	 push	 206			; 000000ceH
  00403	ff 50 28	 call	 DWORD PTR [eax+40]

; 834  : 			else

  00406	eb 0d		 jmp	 SHORT $LN1@OnRender@2
$LN2@OnRender@2:

; 835  : 				m_pManualMark->SetColor( 128, 128, 128 );

  00408	8b 11		 mov	 edx, DWORD PTR [ecx]
  0040a	b8 80 00 00 00	 mov	 eax, 128		; 00000080H
  0040f	50		 push	 eax
  00410	50		 push	 eax
  00411	50		 push	 eax
  00412	ff 52 28	 call	 DWORD PTR [edx+40]
$LN1@OnRender@2:

; 836  : 			m_pManualMark->Render( iXPos + m_iListXPos + ( m_iManualMarkX - iCutWidth ) + 3, iYPos + m_iListYPos + ( iIndex * m_iHeightGap ) + 3, UI_RENDER_NORMAL_ADD_COLOR );

  00415	8b 8e 84 01 00
	00		 mov	 ecx, DWORD PTR [esi+388]
  0041b	0f af 4d f8	 imul	 ecx, DWORD PTR _iIndex$510409[ebp]
  0041f	03 4d f4	 add	 ecx, DWORD PTR _iYPos$[ebp]
  00422	8b 96 80 01 00
	00		 mov	 edx, DWORD PTR [esi+384]
  00428	8b 86 6c 01 00
	00		 mov	 eax, DWORD PTR [esi+364]
  0042e	8b 00		 mov	 eax, DWORD PTR [eax]
  00430	53		 push	 ebx
  00431	8d 4c 11 03	 lea	 ecx, DWORD PTR [ecx+edx+3]
  00435	8b 55 f0	 mov	 edx, DWORD PTR _iXPos$[ebp]
  00438	53		 push	 ebx
  00439	53		 push	 ebx
  0043a	6a 04		 push	 4
  0043c	51		 push	 ecx
  0043d	51		 push	 ecx
  0043e	0f 57 c0	 xorps	 xmm0, xmm0
  00441	f3 0f 2a c1	 cvtsi2ss xmm0, ecx
  00445	8b 8e 8c 01 00
	00		 mov	 ecx, DWORD PTR [esi+396]
  0044b	2b 4d ec	 sub	 ecx, DWORD PTR _iCutWidth$[ebp]
  0044e	f3 0f 11 44 24
	04		 movss	 DWORD PTR [esp+4], xmm0
  00454	03 8e 7c 01 00
	00		 add	 ecx, DWORD PTR [esi+380]
  0045a	0f 57 c0	 xorps	 xmm0, xmm0
  0045d	8d 4c 11 03	 lea	 ecx, DWORD PTR [ecx+edx+3]
  00461	f3 0f 2a c1	 cvtsi2ss xmm0, ecx
  00465	8b 8e 6c 01 00
	00		 mov	 ecx, DWORD PTR [esi+364]
  0046b	f3 0f 11 04 24	 movss	 DWORD PTR [esp], xmm0
  00470	ff 10		 call	 DWORD PTR [eax]
$LN12@OnRender@2:

; 786  : 	int iListSize = m_vEnableSelectList.size();
; 787  : 	for(int iIndex = 0 ; iIndex < iListSize ; ++iIndex )

  00472	ff 45 f8	 inc	 DWORD PTR _iIndex$510409[ebp]
  00475	8b 45 f8	 mov	 eax, DWORD PTR _iIndex$510409[ebp]
  00478	3b 45 e4	 cmp	 eax, DWORD PTR tv823[ebp]
  0047b	0f 8c 2b fc ff
	ff		 jl	 $LL39@OnRender@2
$LN40@OnRender@2:
  00481	5f		 pop	 edi
$LN36@OnRender@2:
  00482	5e		 pop	 esi
  00483	5b		 pop	 ebx

; 837  : 		}
; 838  : 	}
; 839  : }

  00484	c9		 leave
  00485	c3		 ret	 0
?OnRender@CreateModeSelectList@@MAEXXZ ENDP		; CreateModeSelectList::OnRender
_TEXT	ENDS
PUBLIC	??0?$_Vector_val@USelectList@ModeMapSelectList@@V?$allocator@USelectList@ModeMapSelectList@@@std@@@std@@QAE@V?$allocator@USelectList@ModeMapSelectList@@@1@@Z ; std::_Vector_val<ModeMapSelectList::SelectList,std::allocator<ModeMapSelectList::SelectList> >::_Vector_val<ModeMapSelectList::SelectList,std::allocator<ModeMapSelectList::SelectList> >
; Function compile flags: /Ogsp
; File c:\program files (x86)\microsoft visual studio 10.0\vc\include\vector
;	COMDAT ??0?$_Vector_val@USelectList@ModeMapSelectList@@V?$allocator@USelectList@ModeMapSelectList@@@std@@@std@@QAE@V?$allocator@USelectList@ModeMapSelectList@@@1@@Z
_TEXT	SEGMENT
__Al$ = 8						; size = 1
??0?$_Vector_val@USelectList@ModeMapSelectList@@V?$allocator@USelectList@ModeMapSelectList@@@std@@@std@@QAE@V?$allocator@USelectList@ModeMapSelectList@@@1@@Z PROC ; std::_Vector_val<ModeMapSelectList::SelectList,std::allocator<ModeMapSelectList::SelectList> >::_Vector_val<ModeMapSelectList::SelectList,std::allocator<ModeMapSelectList::SelectList> >, COMDAT
; _this$ = ecx

; 426  : 		{	// construct allocator from _Al

  00000	8b c1		 mov	 eax, ecx

; 427  : 		_Myfirst = 0;

  00002	33 c9		 xor	 ecx, ecx
  00004	89 08		 mov	 DWORD PTR [eax], ecx

; 428  : 		_Mylast = 0;

  00006	89 48 04	 mov	 DWORD PTR [eax+4], ecx

; 429  : 		_Myend = 0;

  00009	89 48 08	 mov	 DWORD PTR [eax+8], ecx

; 430  : 		}

  0000c	c2 04 00	 ret	 4
??0?$_Vector_val@USelectList@ModeMapSelectList@@V?$allocator@USelectList@ModeMapSelectList@@@std@@@std@@QAE@V?$allocator@USelectList@ModeMapSelectList@@@1@@Z ENDP ; std::_Vector_val<ModeMapSelectList::SelectList,std::allocator<ModeMapSelectList::SelectList> >::_Vector_val<ModeMapSelectList::SelectList,std::allocator<ModeMapSelectList::SelectList> >
_TEXT	ENDS
PUBLIC	??0?$_Vector_val@USelectList@CreateModeSelectList@@V?$allocator@USelectList@CreateModeSelectList@@@std@@@std@@QAE@V?$allocator@USelectList@CreateModeSelectList@@@1@@Z ; std::_Vector_val<CreateModeSelectList::SelectList,std::allocator<CreateModeSelectList::SelectList> >::_Vector_val<CreateModeSelectList::SelectList,std::allocator<CreateModeSelectList::SelectList> >
; Function compile flags: /Ogsp
;	COMDAT ??0?$_Vector_val@USelectList@CreateModeSelectList@@V?$allocator@USelectList@CreateModeSelectList@@@std@@@std@@QAE@V?$allocator@USelectList@CreateModeSelectList@@@1@@Z
_TEXT	SEGMENT
__Al$ = 8						; size = 1
??0?$_Vector_val@USelectList@CreateModeSelectList@@V?$allocator@USelectList@CreateModeSelectList@@@std@@@std@@QAE@V?$allocator@USelectList@CreateModeSelectList@@@1@@Z PROC ; std::_Vector_val<CreateModeSelectList::SelectList,std::allocator<CreateModeSelectList::SelectList> >::_Vector_val<CreateModeSelectList::SelectList,std::allocator<CreateModeSelectList::SelectList> >, COMDAT
; _this$ = ecx

; 426  : 		{	// construct allocator from _Al

  00000	8b c1		 mov	 eax, ecx

; 427  : 		_Myfirst = 0;

  00002	33 c9		 xor	 ecx, ecx
  00004	89 08		 mov	 DWORD PTR [eax], ecx

; 428  : 		_Mylast = 0;

  00006	89 48 04	 mov	 DWORD PTR [eax+4], ecx

; 429  : 		_Myend = 0;

  00009	89 48 08	 mov	 DWORD PTR [eax+8], ecx

; 430  : 		}

  0000c	c2 04 00	 ret	 4
??0?$_Vector_val@USelectList@CreateModeSelectList@@V?$allocator@USelectList@CreateModeSelectList@@@std@@@std@@QAE@V?$allocator@USelectList@CreateModeSelectList@@@1@@Z ENDP ; std::_Vector_val<CreateModeSelectList::SelectList,std::allocator<CreateModeSelectList::SelectList> >::_Vector_val<CreateModeSelectList::SelectList,std::allocator<CreateModeSelectList::SelectList> >
_TEXT	ENDS
PUBLIC	?max_size@?$vector@USelectList@ModeMapSelectList@@V?$allocator@USelectList@ModeMapSelectList@@@std@@@std@@QBEIXZ ; std::vector<ModeMapSelectList::SelectList,std::allocator<ModeMapSelectList::SelectList> >::max_size
; Function compile flags: /Ogsp
;	COMDAT ?max_size@?$vector@USelectList@ModeMapSelectList@@V?$allocator@USelectList@ModeMapSelectList@@@std@@@std@@QBEIXZ
_TEXT	SEGMENT
?max_size@?$vector@USelectList@ModeMapSelectList@@V?$allocator@USelectList@ModeMapSelectList@@@std@@@std@@QBEIXZ PROC ; std::vector<ModeMapSelectList::SelectList,std::allocator<ModeMapSelectList::SelectList> >::max_size, COMDAT
; _this$ = ecx

; 884  : 		return (this->_Alval.max_size());

  00000	b8 c7 71 1c 07	 mov	 eax, 119304647		; 071c71c7H

; 885  : 		}

  00005	c3		 ret	 0
?max_size@?$vector@USelectList@ModeMapSelectList@@V?$allocator@USelectList@ModeMapSelectList@@@std@@@std@@QBEIXZ ENDP ; std::vector<ModeMapSelectList::SelectList,std::allocator<ModeMapSelectList::SelectList> >::max_size
_TEXT	ENDS
PUBLIC	?_Grow_to@?$vector@USelectList@ModeMapSelectList@@V?$allocator@USelectList@ModeMapSelectList@@@std@@@std@@IBEII@Z ; std::vector<ModeMapSelectList::SelectList,std::allocator<ModeMapSelectList::SelectList> >::_Grow_to
; Function compile flags: /Ogsp
;	COMDAT ?_Grow_to@?$vector@USelectList@ModeMapSelectList@@V?$allocator@USelectList@ModeMapSelectList@@@std@@@std@@IBEII@Z
_TEXT	SEGMENT
__Count$ = 8						; size = 4
?_Grow_to@?$vector@USelectList@ModeMapSelectList@@V?$allocator@USelectList@ModeMapSelectList@@@std@@@std@@IBEII@Z PROC ; std::vector<ModeMapSelectList::SelectList,std::allocator<ModeMapSelectList::SelectList> >::_Grow_to, COMDAT
; _this$ = ecx

; 1274 : 		{	// grow by 50% or at least to _Count

  00000	55		 push	 ebp
  00001	8b ec		 mov	 ebp, esp

; 1275 : 		size_type _Capacity = capacity();

  00003	8b 41 08	 mov	 eax, DWORD PTR [ecx+8]
  00006	2b 01		 sub	 eax, DWORD PTR [ecx]
  00008	6a 24		 push	 36			; 00000024H
  0000a	99		 cdq
  0000b	59		 pop	 ecx
  0000c	f7 f9		 idiv	 ecx

; 1276 : 
; 1277 : 		_Capacity = max_size() - _Capacity / 2 < _Capacity
; 1278 : 			? 0 : _Capacity + _Capacity / 2;	// try to grow by 50%

  0000e	ba c7 71 1c 07	 mov	 edx, 119304647		; 071c71c7H
  00013	8b c8		 mov	 ecx, eax
  00015	d1 e9		 shr	 ecx, 1
  00017	2b d1		 sub	 edx, ecx
  00019	3b d0		 cmp	 edx, eax
  0001b	73 04		 jae	 SHORT $LN4@Grow_to
  0001d	33 c0		 xor	 eax, eax
  0001f	eb 02		 jmp	 SHORT $LN5@Grow_to
$LN4@Grow_to:
  00021	03 c1		 add	 eax, ecx
$LN5@Grow_to:

; 1279 : 		if (_Capacity < _Count)

  00023	3b 45 08	 cmp	 eax, DWORD PTR __Count$[ebp]

; 1280 : 			_Capacity = _Count;

  00026	0f 42 45 08	 cmovb	 eax, DWORD PTR __Count$[ebp]

; 1281 : 		return (_Capacity);
; 1282 : 		}

  0002a	5d		 pop	 ebp
  0002b	c2 04 00	 ret	 4
?_Grow_to@?$vector@USelectList@ModeMapSelectList@@V?$allocator@USelectList@ModeMapSelectList@@@std@@@std@@IBEII@Z ENDP ; std::vector<ModeMapSelectList::SelectList,std::allocator<ModeMapSelectList::SelectList> >::_Grow_to
_TEXT	ENDS
PUBLIC	?max_size@?$vector@USelectList@CreateModeSelectList@@V?$allocator@USelectList@CreateModeSelectList@@@std@@@std@@QBEIXZ ; std::vector<CreateModeSelectList::SelectList,std::allocator<CreateModeSelectList::SelectList> >::max_size
; Function compile flags: /Ogsp
;	COMDAT ?max_size@?$vector@USelectList@CreateModeSelectList@@V?$allocator@USelectList@CreateModeSelectList@@@std@@@std@@QBEIXZ
_TEXT	SEGMENT
?max_size@?$vector@USelectList@CreateModeSelectList@@V?$allocator@USelectList@CreateModeSelectList@@@std@@@std@@QBEIXZ PROC ; std::vector<CreateModeSelectList::SelectList,std::allocator<CreateModeSelectList::SelectList> >::max_size, COMDAT
; _this$ = ecx

; 884  : 		return (this->_Alval.max_size());

  00000	b8 ff ff ff 07	 mov	 eax, 134217727		; 07ffffffH

; 885  : 		}

  00005	c3		 ret	 0
?max_size@?$vector@USelectList@CreateModeSelectList@@V?$allocator@USelectList@CreateModeSelectList@@@std@@@std@@QBEIXZ ENDP ; std::vector<CreateModeSelectList::SelectList,std::allocator<CreateModeSelectList::SelectList> >::max_size
_TEXT	ENDS
PUBLIC	?_Grow_to@?$vector@USelectList@CreateModeSelectList@@V?$allocator@USelectList@CreateModeSelectList@@@std@@@std@@IBEII@Z ; std::vector<CreateModeSelectList::SelectList,std::allocator<CreateModeSelectList::SelectList> >::_Grow_to
; Function compile flags: /Ogsp
;	COMDAT ?_Grow_to@?$vector@USelectList@CreateModeSelectList@@V?$allocator@USelectList@CreateModeSelectList@@@std@@@std@@IBEII@Z
_TEXT	SEGMENT
__Count$ = 8						; size = 4
?_Grow_to@?$vector@USelectList@CreateModeSelectList@@V?$allocator@USelectList@CreateModeSelectList@@@std@@@std@@IBEII@Z PROC ; std::vector<CreateModeSelectList::SelectList,std::allocator<CreateModeSelectList::SelectList> >::_Grow_to, COMDAT
; _this$ = ecx

; 1274 : 		{	// grow by 50% or at least to _Count

  00000	55		 push	 ebp
  00001	8b ec		 mov	 ebp, esp

; 1275 : 		size_type _Capacity = capacity();

  00003	8b 41 08	 mov	 eax, DWORD PTR [ecx+8]
  00006	2b 01		 sub	 eax, DWORD PTR [ecx]

; 1276 : 
; 1277 : 		_Capacity = max_size() - _Capacity / 2 < _Capacity
; 1278 : 			? 0 : _Capacity + _Capacity / 2;	// try to grow by 50%

  00008	ba ff ff ff 07	 mov	 edx, 134217727		; 07ffffffH
  0000d	c1 f8 05	 sar	 eax, 5
  00010	8b c8		 mov	 ecx, eax
  00012	d1 e9		 shr	 ecx, 1
  00014	2b d1		 sub	 edx, ecx
  00016	3b d0		 cmp	 edx, eax
  00018	73 04		 jae	 SHORT $LN4@Grow_to@2
  0001a	33 c0		 xor	 eax, eax
  0001c	eb 02		 jmp	 SHORT $LN5@Grow_to@2
$LN4@Grow_to@2:
  0001e	03 c1		 add	 eax, ecx
$LN5@Grow_to@2:

; 1279 : 		if (_Capacity < _Count)

  00020	3b 45 08	 cmp	 eax, DWORD PTR __Count$[ebp]

; 1280 : 			_Capacity = _Count;

  00023	0f 42 45 08	 cmovb	 eax, DWORD PTR __Count$[ebp]

; 1281 : 		return (_Capacity);
; 1282 : 		}

  00027	5d		 pop	 ebp
  00028	c2 04 00	 ret	 4
?_Grow_to@?$vector@USelectList@CreateModeSelectList@@V?$allocator@USelectList@CreateModeSelectList@@@std@@@std@@IBEII@Z ENDP ; std::vector<CreateModeSelectList::SelectList,std::allocator<CreateModeSelectList::SelectList> >::_Grow_to
_TEXT	ENDS
PUBLIC	??0?$_Vector_iterator@V?$_Vector_val@USelectList@ModeMapSelectList@@V?$allocator@USelectList@ModeMapSelectList@@@std@@@std@@@std@@QAE@PAUSelectList@ModeMapSelectList@@PBU_Container_base0@1@@Z ; std::_Vector_iterator<std::_Vector_val<ModeMapSelectList::SelectList,std::allocator<ModeMapSelectList::SelectList> > >::_Vector_iterator<std::_Vector_val<ModeMapSelectList::SelectList,std::allocator<ModeMapSelectList::SelectList> > >
; Function compile flags: /Ogsp
;	COMDAT ??0?$_Vector_iterator@V?$_Vector_val@USelectList@ModeMapSelectList@@V?$allocator@USelectList@ModeMapSelectList@@@std@@@std@@@std@@QAE@PAUSelectList@ModeMapSelectList@@PBU_Container_base0@1@@Z
_TEXT	SEGMENT
__Parg$ = 8						; size = 4
__Pvector$ = 12						; size = 4
??0?$_Vector_iterator@V?$_Vector_val@USelectList@ModeMapSelectList@@V?$allocator@USelectList@ModeMapSelectList@@@std@@@std@@@std@@QAE@PAUSelectList@ModeMapSelectList@@PBU_Container_base0@1@@Z PROC ; std::_Vector_iterator<std::_Vector_val<ModeMapSelectList::SelectList,std::allocator<ModeMapSelectList::SelectList> > >::_Vector_iterator<std::_Vector_val<ModeMapSelectList::SelectList,std::allocator<ModeMapSelectList::SelectList> > >, COMDAT
; _this$ = ecx

; 304  : 		{	// construct with pointer _Parg

  00000	55		 push	 ebp
  00001	8b ec		 mov	 ebp, esp
  00003	8b c1		 mov	 eax, ecx
  00005	8b 4d 08	 mov	 ecx, DWORD PTR __Parg$[ebp]
  00008	89 08		 mov	 DWORD PTR [eax], ecx

; 305  : 		}

  0000a	5d		 pop	 ebp
  0000b	c2 08 00	 ret	 8
??0?$_Vector_iterator@V?$_Vector_val@USelectList@ModeMapSelectList@@V?$allocator@USelectList@ModeMapSelectList@@@std@@@std@@@std@@QAE@PAUSelectList@ModeMapSelectList@@PBU_Container_base0@1@@Z ENDP ; std::_Vector_iterator<std::_Vector_val<ModeMapSelectList::SelectList,std::allocator<ModeMapSelectList::SelectList> > >::_Vector_iterator<std::_Vector_val<ModeMapSelectList::SelectList,std::allocator<ModeMapSelectList::SelectList> > >
_TEXT	ENDS
PUBLIC	??0?$_Vector_iterator@V?$_Vector_val@USelectList@CreateModeSelectList@@V?$allocator@USelectList@CreateModeSelectList@@@std@@@std@@@std@@QAE@PAUSelectList@CreateModeSelectList@@PBU_Container_base0@1@@Z ; std::_Vector_iterator<std::_Vector_val<CreateModeSelectList::SelectList,std::allocator<CreateModeSelectList::SelectList> > >::_Vector_iterator<std::_Vector_val<CreateModeSelectList::SelectList,std::allocator<CreateModeSelectList::SelectList> > >
; Function compile flags: /Ogsp
;	COMDAT ??0?$_Vector_iterator@V?$_Vector_val@USelectList@CreateModeSelectList@@V?$allocator@USelectList@CreateModeSelectList@@@std@@@std@@@std@@QAE@PAUSelectList@CreateModeSelectList@@PBU_Container_base0@1@@Z
_TEXT	SEGMENT
__Parg$ = 8						; size = 4
__Pvector$ = 12						; size = 4
??0?$_Vector_iterator@V?$_Vector_val@USelectList@CreateModeSelectList@@V?$allocator@USelectList@CreateModeSelectList@@@std@@@std@@@std@@QAE@PAUSelectList@CreateModeSelectList@@PBU_Container_base0@1@@Z PROC ; std::_Vector_iterator<std::_Vector_val<CreateModeSelectList::SelectList,std::allocator<CreateModeSelectList::SelectList> > >::_Vector_iterator<std::_Vector_val<CreateModeSelectList::SelectList,std::allocator<CreateModeSelectList::SelectList> > >, COMDAT
; _this$ = ecx

; 304  : 		{	// construct with pointer _Parg

  00000	55		 push	 ebp
  00001	8b ec		 mov	 ebp, esp
  00003	8b c1		 mov	 eax, ecx
  00005	8b 4d 08	 mov	 ecx, DWORD PTR __Parg$[ebp]
  00008	89 08		 mov	 DWORD PTR [eax], ecx

; 305  : 		}

  0000a	5d		 pop	 ebp
  0000b	c2 08 00	 ret	 8
??0?$_Vector_iterator@V?$_Vector_val@USelectList@CreateModeSelectList@@V?$allocator@USelectList@CreateModeSelectList@@@std@@@std@@@std@@QAE@PAUSelectList@CreateModeSelectList@@PBU_Container_base0@1@@Z ENDP ; std::_Vector_iterator<std::_Vector_val<CreateModeSelectList::SelectList,std::allocator<CreateModeSelectList::SelectList> > >::_Vector_iterator<std::_Vector_val<CreateModeSelectList::SelectList,std::allocator<CreateModeSelectList::SelectList> > >
_TEXT	ENDS
PUBLIC	?allocate@?$allocator@USelectList@ModeMapSelectList@@@std@@QAEPAUSelectList@ModeMapSelectList@@I@Z ; std::allocator<ModeMapSelectList::SelectList>::allocate
; Function compile flags: /Ogsp
; File c:\program files (x86)\microsoft visual studio 10.0\vc\include\xmemory
;	COMDAT ?allocate@?$allocator@USelectList@ModeMapSelectList@@@std@@QAEPAUSelectList@ModeMapSelectList@@I@Z
_TEXT	SEGMENT
__Count$ = 8						; size = 4
?allocate@?$allocator@USelectList@ModeMapSelectList@@@std@@QAEPAUSelectList@ModeMapSelectList@@I@Z PROC ; std::allocator<ModeMapSelectList::SelectList>::allocate, COMDAT
; _this$ = ecx

; 186  : 		{	// allocate array of _Count elements

  00000	55		 push	 ebp
  00001	8b ec		 mov	 ebp, esp

; 187  : 		return (_Allocate(_Count, (pointer)0));

  00003	6a 00		 push	 0
  00005	ff 75 08	 push	 DWORD PTR __Count$[ebp]
  00008	e8 00 00 00 00	 call	 ??$_Allocate@USelectList@ModeMapSelectList@@@std@@YAPAUSelectList@ModeMapSelectList@@IPAU12@@Z ; std::_Allocate<ModeMapSelectList::SelectList>
  0000d	59		 pop	 ecx
  0000e	59		 pop	 ecx

; 188  : 		}

  0000f	5d		 pop	 ebp
  00010	c2 04 00	 ret	 4
?allocate@?$allocator@USelectList@ModeMapSelectList@@@std@@QAEPAUSelectList@ModeMapSelectList@@I@Z ENDP ; std::allocator<ModeMapSelectList::SelectList>::allocate
_TEXT	ENDS
PUBLIC	?allocate@?$allocator@USelectList@CreateModeSelectList@@@std@@QAEPAUSelectList@CreateModeSelectList@@I@Z ; std::allocator<CreateModeSelectList::SelectList>::allocate
; Function compile flags: /Ogsp
;	COMDAT ?allocate@?$allocator@USelectList@CreateModeSelectList@@@std@@QAEPAUSelectList@CreateModeSelectList@@I@Z
_TEXT	SEGMENT
__Count$ = 8						; size = 4
?allocate@?$allocator@USelectList@CreateModeSelectList@@@std@@QAEPAUSelectList@CreateModeSelectList@@I@Z PROC ; std::allocator<CreateModeSelectList::SelectList>::allocate, COMDAT
; _this$ = ecx

; 186  : 		{	// allocate array of _Count elements

  00000	55		 push	 ebp
  00001	8b ec		 mov	 ebp, esp

; 187  : 		return (_Allocate(_Count, (pointer)0));

  00003	6a 00		 push	 0
  00005	ff 75 08	 push	 DWORD PTR __Count$[ebp]
  00008	e8 00 00 00 00	 call	 ??$_Allocate@USelectList@CreateModeSelectList@@@std@@YAPAUSelectList@CreateModeSelectList@@IPAU12@@Z ; std::_Allocate<CreateModeSelectList::SelectList>
  0000d	59		 pop	 ecx
  0000e	59		 pop	 ecx

; 188  : 		}

  0000f	5d		 pop	 ebp
  00010	c2 04 00	 ret	 4
?allocate@?$allocator@USelectList@CreateModeSelectList@@@std@@QAEPAUSelectList@CreateModeSelectList@@I@Z ENDP ; std::allocator<CreateModeSelectList::SelectList>::allocate
_TEXT	ENDS
PUBLIC	??8?$_Vector_const_iterator@V?$_Vector_val@USelectList@ModeMapSelectList@@V?$allocator@USelectList@ModeMapSelectList@@@std@@@std@@@std@@QBE_NABV01@@Z ; std::_Vector_const_iterator<std::_Vector_val<ModeMapSelectList::SelectList,std::allocator<ModeMapSelectList::SelectList> > >::operator==
; Function compile flags: /Ogsp
; File c:\program files (x86)\microsoft visual studio 10.0\vc\include\vector
;	COMDAT ??8?$_Vector_const_iterator@V?$_Vector_val@USelectList@ModeMapSelectList@@V?$allocator@USelectList@ModeMapSelectList@@@std@@@std@@@std@@QBE_NABV01@@Z
_TEXT	SEGMENT
__Right$ = 8						; size = 4
??8?$_Vector_const_iterator@V?$_Vector_val@USelectList@ModeMapSelectList@@V?$allocator@USelectList@ModeMapSelectList@@@std@@@std@@@std@@QBE_NABV01@@Z PROC ; std::_Vector_const_iterator<std::_Vector_val<ModeMapSelectList::SelectList,std::allocator<ModeMapSelectList::SelectList> > >::operator==, COMDAT
; _this$ = ecx

; 201  : 		{	// test for iterator equality

  00000	55		 push	 ebp
  00001	8b ec		 mov	 ebp, esp

; 202  : 		_Compat(_Right);
; 203  : 		return (this->_Ptr == _Right._Ptr);

  00003	8b 01		 mov	 eax, DWORD PTR [ecx]
  00005	8b 4d 08	 mov	 ecx, DWORD PTR __Right$[ebp]
  00008	2b 01		 sub	 eax, DWORD PTR [ecx]
  0000a	f7 d8		 neg	 eax
  0000c	1b c0		 sbb	 eax, eax
  0000e	40		 inc	 eax

; 204  : 		}

  0000f	5d		 pop	 ebp
  00010	c2 04 00	 ret	 4
??8?$_Vector_const_iterator@V?$_Vector_val@USelectList@ModeMapSelectList@@V?$allocator@USelectList@ModeMapSelectList@@@std@@@std@@@std@@QBE_NABV01@@Z ENDP ; std::_Vector_const_iterator<std::_Vector_val<ModeMapSelectList::SelectList,std::allocator<ModeMapSelectList::SelectList> > >::operator==
_TEXT	ENDS
PUBLIC	??8?$_Vector_const_iterator@V?$_Vector_val@USelectList@CreateModeSelectList@@V?$allocator@USelectList@CreateModeSelectList@@@std@@@std@@@std@@QBE_NABV01@@Z ; std::_Vector_const_iterator<std::_Vector_val<CreateModeSelectList::SelectList,std::allocator<CreateModeSelectList::SelectList> > >::operator==
; Function compile flags: /Ogsp
;	COMDAT ??8?$_Vector_const_iterator@V?$_Vector_val@USelectList@CreateModeSelectList@@V?$allocator@USelectList@CreateModeSelectList@@@std@@@std@@@std@@QBE_NABV01@@Z
_TEXT	SEGMENT
__Right$ = 8						; size = 4
??8?$_Vector_const_iterator@V?$_Vector_val@USelectList@CreateModeSelectList@@V?$allocator@USelectList@CreateModeSelectList@@@std@@@std@@@std@@QBE_NABV01@@Z PROC ; std::_Vector_const_iterator<std::_Vector_val<CreateModeSelectList::SelectList,std::allocator<CreateModeSelectList::SelectList> > >::operator==, COMDAT
; _this$ = ecx

; 201  : 		{	// test for iterator equality

  00000	55		 push	 ebp
  00001	8b ec		 mov	 ebp, esp

; 202  : 		_Compat(_Right);
; 203  : 		return (this->_Ptr == _Right._Ptr);

  00003	8b 01		 mov	 eax, DWORD PTR [ecx]
  00005	8b 4d 08	 mov	 ecx, DWORD PTR __Right$[ebp]
  00008	2b 01		 sub	 eax, DWORD PTR [ecx]
  0000a	f7 d8		 neg	 eax
  0000c	1b c0		 sbb	 eax, eax
  0000e	40		 inc	 eax

; 204  : 		}

  0000f	5d		 pop	 ebp
  00010	c2 04 00	 ret	 4
??8?$_Vector_const_iterator@V?$_Vector_val@USelectList@CreateModeSelectList@@V?$allocator@USelectList@CreateModeSelectList@@@std@@@std@@@std@@QBE_NABV01@@Z ENDP ; std::_Vector_const_iterator<std::_Vector_val<CreateModeSelectList::SelectList,std::allocator<CreateModeSelectList::SelectList> > >::operator==
_TEXT	ENDS
PUBLIC	__$ArrayPad$
PUBLIC	??$GetIntAttribute_e@$08@ioXMLElement@@QBEHAAY08$$CBD@Z ; ioXMLElement::GetIntAttribute_e<9>
EXTRN	__imp_?GetIntAttribute@ioXMLElement@@QBEHPBD@Z:PROC
EXTRN	___security_cookie:DWORD
; Function compile flags: /Ogsp
; File d:\lost saga for developer\youtube\tutorial\source\src\io3dengine\ioxmlelement.h
;	COMDAT ??$GetIntAttribute_e@$08@ioXMLElement@@QBEHAAY08$$CBD@Z
_TEXT	SEGMENT
__k$ = -20						; size = 9
__$ArrayPad$ = -4					; size = 4
_k$ = 8							; size = 4
??$GetIntAttribute_e@$08@ioXMLElement@@QBEHAAY08$$CBD@Z PROC ; ioXMLElement::GetIntAttribute_e<9>, COMDAT
; _this$ = ecx

; 86   : 	{

  00000	55		 push	 ebp
  00001	8b ec		 mov	 ebp, esp
  00003	83 ec 14	 sub	 esp, 20			; 00000014H
  00006	a1 00 00 00 00	 mov	 eax, DWORD PTR ___security_cookie
  0000b	33 c5		 xor	 eax, ebp
  0000d	89 45 fc	 mov	 DWORD PTR __$ArrayPad$[ebp], eax
  00010	8b 45 08	 mov	 eax, DWORD PTR _k$[ebp]

; 87   : 		_ENCSTR(k, _k);

  00013	8a 10		 mov	 dl, BYTE PTR [eax]
  00015	84 d2		 test	 dl, dl
  00017	0f 84 ee 00 00
	00		 je	 $LN96@GetIntAttr
  0001d	80 f2 ed	 xor	 dl, -19			; ffffffedH
  00020	88 55 ec	 mov	 BYTE PTR __k$[ebp], dl
  00023	8a 50 01	 mov	 dl, BYTE PTR [eax+1]
  00026	84 d2		 test	 dl, dl
  00028	0f 84 d7 00 00
	00		 je	 $LN95@GetIntAttr
  0002e	80 f2 ec	 xor	 dl, -20			; ffffffecH
  00031	88 55 ed	 mov	 BYTE PTR __k$[ebp+1], dl
  00034	8a 50 02	 mov	 dl, BYTE PTR [eax+2]
  00037	84 d2		 test	 dl, dl
  00039	0f 84 c0 00 00
	00		 je	 $LN94@GetIntAttr
  0003f	80 f2 eb	 xor	 dl, -21			; ffffffebH
  00042	88 55 ee	 mov	 BYTE PTR __k$[ebp+2], dl
  00045	8a 50 03	 mov	 dl, BYTE PTR [eax+3]
  00048	84 d2		 test	 dl, dl
  0004a	0f 84 a9 00 00
	00		 je	 $LN93@GetIntAttr
  00050	80 f2 ea	 xor	 dl, -22			; ffffffeaH
  00053	88 55 ef	 mov	 BYTE PTR __k$[ebp+3], dl
  00056	8a 50 04	 mov	 dl, BYTE PTR [eax+4]
  00059	84 d2		 test	 dl, dl
  0005b	0f 84 92 00 00
	00		 je	 $LN92@GetIntAttr
  00061	80 f2 ed	 xor	 dl, -19			; ffffffedH
  00064	88 55 f0	 mov	 BYTE PTR __k$[ebp+4], dl
  00067	8a 50 05	 mov	 dl, BYTE PTR [eax+5]
  0006a	84 d2		 test	 dl, dl
  0006c	74 7f		 je	 SHORT $LN91@GetIntAttr
  0006e	80 f2 ec	 xor	 dl, -20			; ffffffecH
  00071	88 55 f1	 mov	 BYTE PTR __k$[ebp+5], dl
  00074	8a 50 06	 mov	 dl, BYTE PTR [eax+6]
  00077	84 d2		 test	 dl, dl
  00079	74 6c		 je	 SHORT $LN90@GetIntAttr
  0007b	80 f2 eb	 xor	 dl, -21			; ffffffebH
  0007e	88 55 f2	 mov	 BYTE PTR __k$[ebp+6], dl
  00081	8a 50 07	 mov	 dl, BYTE PTR [eax+7]
  00084	84 d2		 test	 dl, dl
  00086	74 59		 je	 SHORT $LN89@GetIntAttr
  00088	80 f2 ea	 xor	 dl, -22			; ffffffeaH
  0008b	80 78 08 00	 cmp	 BYTE PTR [eax+8], 0
  0008f	88 55 f3	 mov	 BYTE PTR __k$[ebp+7], dl
  00092	74 7b		 je	 SHORT $LN1@GetIntAttr
  00094	8a 50 09	 mov	 dl, BYTE PTR [eax+9]
  00097	84 d2		 test	 dl, dl
  00099	74 40		 je	 SHORT $LN87@GetIntAttr
  0009b	80 f2 ec	 xor	 dl, -20			; ffffffecH
  0009e	88 55 f5	 mov	 BYTE PTR __k$[ebp+9], dl
  000a1	8a 50 0a	 mov	 dl, BYTE PTR [eax+10]
  000a4	84 d2		 test	 dl, dl
  000a6	74 2d		 je	 SHORT $LN86@GetIntAttr
  000a8	80 f2 eb	 xor	 dl, -21			; ffffffebH
  000ab	88 55 f6	 mov	 BYTE PTR __k$[ebp+10], dl
  000ae	8a 50 0b	 mov	 dl, BYTE PTR [eax+11]
  000b1	84 d2		 test	 dl, dl
  000b3	74 1a		 je	 SHORT $LN85@GetIntAttr
  000b5	8a 40 0c	 mov	 al, BYTE PTR [eax+12]
  000b8	80 f2 ea	 xor	 dl, -22			; ffffffeaH
  000bb	88 55 f7	 mov	 BYTE PTR __k$[ebp+11], dl
  000be	84 c0		 test	 al, al
  000c0	74 07		 je	 SHORT $LN84@GetIntAttr
  000c2	34 ed		 xor	 al, -19			; ffffffedH
  000c4	88 45 f8	 mov	 BYTE PTR __k$[ebp+12], al
  000c7	eb 46		 jmp	 SHORT $LN1@GetIntAttr
$LN84@GetIntAttr:
  000c9	c6 45 f8 ed	 mov	 BYTE PTR __k$[ebp+12], -19 ; ffffffedH
  000cd	eb 40		 jmp	 SHORT $LN1@GetIntAttr
$LN85@GetIntAttr:
  000cf	c6 45 f7 ea	 mov	 BYTE PTR __k$[ebp+11], -22 ; ffffffeaH
  000d3	eb 3a		 jmp	 SHORT $LN1@GetIntAttr
$LN86@GetIntAttr:
  000d5	c6 45 f6 eb	 mov	 BYTE PTR __k$[ebp+10], -21 ; ffffffebH
  000d9	eb 34		 jmp	 SHORT $LN1@GetIntAttr
$LN87@GetIntAttr:
  000db	c6 45 f5 ec	 mov	 BYTE PTR __k$[ebp+9], -20 ; ffffffecH
  000df	eb 2e		 jmp	 SHORT $LN1@GetIntAttr
$LN89@GetIntAttr:
  000e1	c6 45 f3 ea	 mov	 BYTE PTR __k$[ebp+7], -22 ; ffffffeaH
  000e5	eb 28		 jmp	 SHORT $LN1@GetIntAttr
$LN90@GetIntAttr:
  000e7	c6 45 f2 eb	 mov	 BYTE PTR __k$[ebp+6], -21 ; ffffffebH
  000eb	eb 22		 jmp	 SHORT $LN1@GetIntAttr
$LN91@GetIntAttr:
  000ed	c6 45 f1 ec	 mov	 BYTE PTR __k$[ebp+5], -20 ; ffffffecH
  000f1	eb 1c		 jmp	 SHORT $LN1@GetIntAttr
$LN92@GetIntAttr:
  000f3	c6 45 f0 ed	 mov	 BYTE PTR __k$[ebp+4], -19 ; ffffffedH
  000f7	eb 16		 jmp	 SHORT $LN1@GetIntAttr
$LN93@GetIntAttr:
  000f9	c6 45 ef ea	 mov	 BYTE PTR __k$[ebp+3], -22 ; ffffffeaH
  000fd	eb 10		 jmp	 SHORT $LN1@GetIntAttr
$LN94@GetIntAttr:
  000ff	c6 45 ee eb	 mov	 BYTE PTR __k$[ebp+2], -21 ; ffffffebH
  00103	eb 0a		 jmp	 SHORT $LN1@GetIntAttr
$LN95@GetIntAttr:
  00105	c6 45 ed ec	 mov	 BYTE PTR __k$[ebp+1], -20 ; ffffffecH
  00109	eb 04		 jmp	 SHORT $LN1@GetIntAttr
$LN96@GetIntAttr:
  0010b	c6 45 ec ed	 mov	 BYTE PTR __k$[ebp], -19	; ffffffedH
$LN1@GetIntAttr:
  0010f	6a 02		 push	 2
  00111	8d 45 ec	 lea	 eax, DWORD PTR __k$[ebp]
  00114	c6 45 f4 00	 mov	 BYTE PTR __k$[ebp+8], 0
  00118	5a		 pop	 edx
$LL104@GetIntAttr:
  00119	81 30 ed ec eb
	ea		 xor	 DWORD PTR [eax], -353637139 ; eaebecedH
  0011f	83 c0 04	 add	 eax, 4
  00122	4a		 dec	 edx
  00123	75 f4		 jne	 SHORT $LL104@GetIntAttr

; 88   : 		return GetIntAttribute(_k);

  00125	8d 45 ec	 lea	 eax, DWORD PTR __k$[ebp]
  00128	50		 push	 eax
  00129	ff 15 00 00 00
	00		 call	 DWORD PTR __imp_?GetIntAttribute@ioXMLElement@@QBEHPBD@Z

; 89   : 	}

  0012f	8b 4d fc	 mov	 ecx, DWORD PTR __$ArrayPad$[ebp]
  00132	33 cd		 xor	 ecx, ebp
  00134	e8 00 00 00 00	 call	 @__security_check_cookie@4
  00139	c9		 leave
  0013a	c2 04 00	 ret	 4
??$GetIntAttribute_e@$08@ioXMLElement@@QBEHAAY08$$CBD@Z ENDP ; ioXMLElement::GetIntAttribute_e<9>
_TEXT	ENDS
PUBLIC	__$ArrayPad$
PUBLIC	??$GetIntAttribute_e@$09@ioXMLElement@@QBEHAAY09$$CBD@Z ; ioXMLElement::GetIntAttribute_e<10>
; Function compile flags: /Ogsp
;	COMDAT ??$GetIntAttribute_e@$09@ioXMLElement@@QBEHAAY09$$CBD@Z
_TEXT	SEGMENT
__k$ = -20						; size = 10
__$ArrayPad$ = -4					; size = 4
_k$ = 8							; size = 4
??$GetIntAttribute_e@$09@ioXMLElement@@QBEHAAY09$$CBD@Z PROC ; ioXMLElement::GetIntAttribute_e<10>, COMDAT
; _this$ = ecx

; 86   : 	{

  00000	55		 push	 ebp
  00001	8b ec		 mov	 ebp, esp
  00003	83 ec 14	 sub	 esp, 20			; 00000014H
  00006	a1 00 00 00 00	 mov	 eax, DWORD PTR ___security_cookie
  0000b	33 c5		 xor	 eax, ebp
  0000d	89 45 fc	 mov	 DWORD PTR __$ArrayPad$[ebp], eax
  00010	8b 45 08	 mov	 eax, DWORD PTR _k$[ebp]

; 87   : 		_ENCSTR(k, _k);

  00013	8a 10		 mov	 dl, BYTE PTR [eax]
  00015	84 d2		 test	 dl, dl
  00017	0f 84 0d 01 00
	00		 je	 $LN96@GetIntAttr@2
  0001d	80 f2 ed	 xor	 dl, -19			; ffffffedH
  00020	88 55 ec	 mov	 BYTE PTR __k$[ebp], dl
  00023	8a 50 01	 mov	 dl, BYTE PTR [eax+1]
  00026	84 d2		 test	 dl, dl
  00028	0f 84 f6 00 00
	00		 je	 $LN95@GetIntAttr@2
  0002e	80 f2 ec	 xor	 dl, -20			; ffffffecH
  00031	88 55 ed	 mov	 BYTE PTR __k$[ebp+1], dl
  00034	8a 50 02	 mov	 dl, BYTE PTR [eax+2]
  00037	84 d2		 test	 dl, dl
  00039	0f 84 df 00 00
	00		 je	 $LN94@GetIntAttr@2
  0003f	80 f2 eb	 xor	 dl, -21			; ffffffebH
  00042	88 55 ee	 mov	 BYTE PTR __k$[ebp+2], dl
  00045	8a 50 03	 mov	 dl, BYTE PTR [eax+3]
  00048	84 d2		 test	 dl, dl
  0004a	0f 84 c8 00 00
	00		 je	 $LN93@GetIntAttr@2
  00050	80 f2 ea	 xor	 dl, -22			; ffffffeaH
  00053	88 55 ef	 mov	 BYTE PTR __k$[ebp+3], dl
  00056	8a 50 04	 mov	 dl, BYTE PTR [eax+4]
  00059	84 d2		 test	 dl, dl
  0005b	0f 84 b1 00 00
	00		 je	 $LN92@GetIntAttr@2
  00061	80 f2 ed	 xor	 dl, -19			; ffffffedH
  00064	88 55 f0	 mov	 BYTE PTR __k$[ebp+4], dl
  00067	8a 50 05	 mov	 dl, BYTE PTR [eax+5]
  0006a	84 d2		 test	 dl, dl
  0006c	0f 84 9a 00 00
	00		 je	 $LN91@GetIntAttr@2
  00072	80 f2 ec	 xor	 dl, -20			; ffffffecH
  00075	88 55 f1	 mov	 BYTE PTR __k$[ebp+5], dl
  00078	8a 50 06	 mov	 dl, BYTE PTR [eax+6]
  0007b	84 d2		 test	 dl, dl
  0007d	0f 84 83 00 00
	00		 je	 $LN90@GetIntAttr@2
  00083	80 f2 eb	 xor	 dl, -21			; ffffffebH
  00086	88 55 f2	 mov	 BYTE PTR __k$[ebp+6], dl
  00089	8a 50 07	 mov	 dl, BYTE PTR [eax+7]
  0008c	84 d2		 test	 dl, dl
  0008e	74 70		 je	 SHORT $LN89@GetIntAttr@2
  00090	80 f2 ea	 xor	 dl, -22			; ffffffeaH
  00093	88 55 f3	 mov	 BYTE PTR __k$[ebp+7], dl
  00096	8a 50 08	 mov	 dl, BYTE PTR [eax+8]
  00099	84 d2		 test	 dl, dl
  0009b	74 5d		 je	 SHORT $LN88@GetIntAttr@2
  0009d	80 f2 ed	 xor	 dl, -19			; ffffffedH
  000a0	80 78 09 00	 cmp	 BYTE PTR [eax+9], 0
  000a4	88 55 f4	 mov	 BYTE PTR __k$[ebp+8], dl
  000a7	0f 84 81 00 00
	00		 je	 $LN1@GetIntAttr@2
  000ad	8a 50 0a	 mov	 dl, BYTE PTR [eax+10]
  000b0	84 d2		 test	 dl, dl
  000b2	74 40		 je	 SHORT $LN86@GetIntAttr@2
  000b4	80 f2 eb	 xor	 dl, -21			; ffffffebH
  000b7	88 55 f6	 mov	 BYTE PTR __k$[ebp+10], dl
  000ba	8a 50 0b	 mov	 dl, BYTE PTR [eax+11]
  000bd	84 d2		 test	 dl, dl
  000bf	74 2d		 je	 SHORT $LN85@GetIntAttr@2
  000c1	80 f2 ea	 xor	 dl, -22			; ffffffeaH
  000c4	88 55 f7	 mov	 BYTE PTR __k$[ebp+11], dl
  000c7	8a 50 0c	 mov	 dl, BYTE PTR [eax+12]
  000ca	84 d2		 test	 dl, dl
  000cc	74 1a		 je	 SHORT $LN84@GetIntAttr@2
  000ce	8a 40 0d	 mov	 al, BYTE PTR [eax+13]
  000d1	80 f2 ed	 xor	 dl, -19			; ffffffedH
  000d4	88 55 f8	 mov	 BYTE PTR __k$[ebp+12], dl
  000d7	84 c0		 test	 al, al
  000d9	74 07		 je	 SHORT $LN83@GetIntAttr@2
  000db	34 ec		 xor	 al, -20			; ffffffecH
  000dd	88 45 f9	 mov	 BYTE PTR __k$[ebp+13], al
  000e0	eb 4c		 jmp	 SHORT $LN1@GetIntAttr@2
$LN83@GetIntAttr@2:
  000e2	c6 45 f9 ec	 mov	 BYTE PTR __k$[ebp+13], -20 ; ffffffecH
  000e6	eb 46		 jmp	 SHORT $LN1@GetIntAttr@2
$LN84@GetIntAttr@2:
  000e8	c6 45 f8 ed	 mov	 BYTE PTR __k$[ebp+12], -19 ; ffffffedH
  000ec	eb 40		 jmp	 SHORT $LN1@GetIntAttr@2
$LN85@GetIntAttr@2:
  000ee	c6 45 f7 ea	 mov	 BYTE PTR __k$[ebp+11], -22 ; ffffffeaH
  000f2	eb 3a		 jmp	 SHORT $LN1@GetIntAttr@2
$LN86@GetIntAttr@2:
  000f4	c6 45 f6 eb	 mov	 BYTE PTR __k$[ebp+10], -21 ; ffffffebH
  000f8	eb 34		 jmp	 SHORT $LN1@GetIntAttr@2
$LN88@GetIntAttr@2:
  000fa	c6 45 f4 ed	 mov	 BYTE PTR __k$[ebp+8], -19 ; ffffffedH
  000fe	eb 2e		 jmp	 SHORT $LN1@GetIntAttr@2
$LN89@GetIntAttr@2:
  00100	c6 45 f3 ea	 mov	 BYTE PTR __k$[ebp+7], -22 ; ffffffeaH
  00104	eb 28		 jmp	 SHORT $LN1@GetIntAttr@2
$LN90@GetIntAttr@2:
  00106	c6 45 f2 eb	 mov	 BYTE PTR __k$[ebp+6], -21 ; ffffffebH
  0010a	eb 22		 jmp	 SHORT $LN1@GetIntAttr@2
$LN91@GetIntAttr@2:
  0010c	c6 45 f1 ec	 mov	 BYTE PTR __k$[ebp+5], -20 ; ffffffecH
  00110	eb 1c		 jmp	 SHORT $LN1@GetIntAttr@2
$LN92@GetIntAttr@2:
  00112	c6 45 f0 ed	 mov	 BYTE PTR __k$[ebp+4], -19 ; ffffffedH
  00116	eb 16		 jmp	 SHORT $LN1@GetIntAttr@2
$LN93@GetIntAttr@2:
  00118	c6 45 ef ea	 mov	 BYTE PTR __k$[ebp+3], -22 ; ffffffeaH
  0011c	eb 10		 jmp	 SHORT $LN1@GetIntAttr@2
$LN94@GetIntAttr@2:
  0011e	c6 45 ee eb	 mov	 BYTE PTR __k$[ebp+2], -21 ; ffffffebH
  00122	eb 0a		 jmp	 SHORT $LN1@GetIntAttr@2
$LN95@GetIntAttr@2:
  00124	c6 45 ed ec	 mov	 BYTE PTR __k$[ebp+1], -20 ; ffffffecH
  00128	eb 04		 jmp	 SHORT $LN1@GetIntAttr@2
$LN96@GetIntAttr@2:
  0012a	c6 45 ec ed	 mov	 BYTE PTR __k$[ebp], -19	; ffffffedH
$LN1@GetIntAttr@2:
  0012e	6a 02		 push	 2
  00130	8d 45 ec	 lea	 eax, DWORD PTR __k$[ebp]
  00133	c6 45 f5 00	 mov	 BYTE PTR __k$[ebp+9], 0
  00137	5a		 pop	 edx
$LL104@GetIntAttr@2:
  00138	81 30 ed ec eb
	ea		 xor	 DWORD PTR [eax], -353637139 ; eaebecedH
  0013e	83 c0 04	 add	 eax, 4
  00141	4a		 dec	 edx
  00142	75 f4		 jne	 SHORT $LL104@GetIntAttr@2
  00144	80 75 f4 ed	 xor	 BYTE PTR __k$[ebp+8], -19 ; ffffffedH

; 88   : 		return GetIntAttribute(_k);

  00148	8d 45 ec	 lea	 eax, DWORD PTR __k$[ebp]
  0014b	50		 push	 eax
  0014c	ff 15 00 00 00
	00		 call	 DWORD PTR __imp_?GetIntAttribute@ioXMLElement@@QBEHPBD@Z

; 89   : 	}

  00152	8b 4d fc	 mov	 ecx, DWORD PTR __$ArrayPad$[ebp]
  00155	33 cd		 xor	 ecx, ebp
  00157	e8 00 00 00 00	 call	 @__security_check_cookie@4
  0015c	c9		 leave
  0015d	c2 04 00	 ret	 4
??$GetIntAttribute_e@$09@ioXMLElement@@QBEHAAY09$$CBD@Z ENDP ; ioXMLElement::GetIntAttribute_e<10>
_TEXT	ENDS
PUBLIC	__$ArrayPad$
PUBLIC	??$GetIntAttribute_e@$05@ioXMLElement@@QBEHAAY05$$CBD@Z ; ioXMLElement::GetIntAttribute_e<6>
; Function compile flags: /Ogsp
;	COMDAT ??$GetIntAttribute_e@$05@ioXMLElement@@QBEHAAY05$$CBD@Z
_TEXT	SEGMENT
__k$ = -16						; size = 6
__$ArrayPad$ = -4					; size = 4
_k$ = 8							; size = 4
??$GetIntAttribute_e@$05@ioXMLElement@@QBEHAAY05$$CBD@Z PROC ; ioXMLElement::GetIntAttribute_e<6>, COMDAT
; _this$ = ecx

; 86   : 	{

  00000	55		 push	 ebp
  00001	8b ec		 mov	 ebp, esp
  00003	83 ec 10	 sub	 esp, 16			; 00000010H
  00006	a1 00 00 00 00	 mov	 eax, DWORD PTR ___security_cookie
  0000b	33 c5		 xor	 eax, ebp
  0000d	89 45 fc	 mov	 DWORD PTR __$ArrayPad$[ebp], eax
  00010	8b 45 08	 mov	 eax, DWORD PTR _k$[ebp]

; 87   : 		_ENCSTR(k, _k);

  00013	8a 10		 mov	 dl, BYTE PTR [eax]
  00015	84 d2		 test	 dl, dl
  00017	0f 84 a9 00 00
	00		 je	 $LN96@GetIntAttr@3
  0001d	80 f2 ed	 xor	 dl, -19			; ffffffedH
  00020	88 55 f0	 mov	 BYTE PTR __k$[ebp], dl
  00023	8a 50 01	 mov	 dl, BYTE PTR [eax+1]
  00026	84 d2		 test	 dl, dl
  00028	0f 84 92 00 00
	00		 je	 $LN95@GetIntAttr@3
  0002e	80 f2 ec	 xor	 dl, -20			; ffffffecH
  00031	88 55 f1	 mov	 BYTE PTR __k$[ebp+1], dl
  00034	8a 50 02	 mov	 dl, BYTE PTR [eax+2]
  00037	84 d2		 test	 dl, dl
  00039	74 7f		 je	 SHORT $LN94@GetIntAttr@3
  0003b	80 f2 eb	 xor	 dl, -21			; ffffffebH
  0003e	88 55 f2	 mov	 BYTE PTR __k$[ebp+2], dl
  00041	8a 50 03	 mov	 dl, BYTE PTR [eax+3]
  00044	84 d2		 test	 dl, dl
  00046	74 6c		 je	 SHORT $LN93@GetIntAttr@3
  00048	80 f2 ea	 xor	 dl, -22			; ffffffeaH
  0004b	88 55 f3	 mov	 BYTE PTR __k$[ebp+3], dl
  0004e	8a 50 04	 mov	 dl, BYTE PTR [eax+4]
  00051	84 d2		 test	 dl, dl
  00053	74 59		 je	 SHORT $LN92@GetIntAttr@3
  00055	80 f2 ed	 xor	 dl, -19			; ffffffedH
  00058	80 78 05 00	 cmp	 BYTE PTR [eax+5], 0
  0005c	88 55 f4	 mov	 BYTE PTR __k$[ebp+4], dl
  0005f	74 69		 je	 SHORT $LN1@GetIntAttr@3
  00061	8a 50 06	 mov	 dl, BYTE PTR [eax+6]
  00064	84 d2		 test	 dl, dl
  00066	74 40		 je	 SHORT $LN90@GetIntAttr@3
  00068	80 f2 eb	 xor	 dl, -21			; ffffffebH
  0006b	88 55 f6	 mov	 BYTE PTR __k$[ebp+6], dl
  0006e	8a 50 07	 mov	 dl, BYTE PTR [eax+7]
  00071	84 d2		 test	 dl, dl
  00073	74 2d		 je	 SHORT $LN89@GetIntAttr@3
  00075	80 f2 ea	 xor	 dl, -22			; ffffffeaH
  00078	88 55 f7	 mov	 BYTE PTR __k$[ebp+7], dl
  0007b	8a 50 08	 mov	 dl, BYTE PTR [eax+8]
  0007e	84 d2		 test	 dl, dl
  00080	74 1a		 je	 SHORT $LN88@GetIntAttr@3
  00082	8a 40 09	 mov	 al, BYTE PTR [eax+9]
  00085	80 f2 ed	 xor	 dl, -19			; ffffffedH
  00088	88 55 f8	 mov	 BYTE PTR __k$[ebp+8], dl
  0008b	84 c0		 test	 al, al
  0008d	74 07		 je	 SHORT $LN87@GetIntAttr@3
  0008f	34 ec		 xor	 al, -20			; ffffffecH
  00091	88 45 f9	 mov	 BYTE PTR __k$[ebp+9], al
  00094	eb 34		 jmp	 SHORT $LN1@GetIntAttr@3
$LN87@GetIntAttr@3:
  00096	c6 45 f9 ec	 mov	 BYTE PTR __k$[ebp+9], -20 ; ffffffecH
  0009a	eb 2e		 jmp	 SHORT $LN1@GetIntAttr@3
$LN88@GetIntAttr@3:
  0009c	c6 45 f8 ed	 mov	 BYTE PTR __k$[ebp+8], -19 ; ffffffedH
  000a0	eb 28		 jmp	 SHORT $LN1@GetIntAttr@3
$LN89@GetIntAttr@3:
  000a2	c6 45 f7 ea	 mov	 BYTE PTR __k$[ebp+7], -22 ; ffffffeaH
  000a6	eb 22		 jmp	 SHORT $LN1@GetIntAttr@3
$LN90@GetIntAttr@3:
  000a8	c6 45 f6 eb	 mov	 BYTE PTR __k$[ebp+6], -21 ; ffffffebH
  000ac	eb 1c		 jmp	 SHORT $LN1@GetIntAttr@3
$LN92@GetIntAttr@3:
  000ae	c6 45 f4 ed	 mov	 BYTE PTR __k$[ebp+4], -19 ; ffffffedH
  000b2	eb 16		 jmp	 SHORT $LN1@GetIntAttr@3
$LN93@GetIntAttr@3:
  000b4	c6 45 f3 ea	 mov	 BYTE PTR __k$[ebp+3], -22 ; ffffffeaH
  000b8	eb 10		 jmp	 SHORT $LN1@GetIntAttr@3
$LN94@GetIntAttr@3:
  000ba	c6 45 f2 eb	 mov	 BYTE PTR __k$[ebp+2], -21 ; ffffffebH
  000be	eb 0a		 jmp	 SHORT $LN1@GetIntAttr@3
$LN95@GetIntAttr@3:
  000c0	c6 45 f1 ec	 mov	 BYTE PTR __k$[ebp+1], -20 ; ffffffecH
  000c4	eb 04		 jmp	 SHORT $LN1@GetIntAttr@3
$LN96@GetIntAttr@3:
  000c6	c6 45 f0 ed	 mov	 BYTE PTR __k$[ebp], -19	; ffffffedH
$LN1@GetIntAttr@3:
  000ca	81 75 f0 ed ec
	eb ea		 xor	 DWORD PTR __k$[ebp], -353637139 ; eaebecedH
  000d1	80 75 f4 ed	 xor	 BYTE PTR __k$[ebp+4], -19 ; ffffffedH

; 88   : 		return GetIntAttribute(_k);

  000d5	8d 45 f0	 lea	 eax, DWORD PTR __k$[ebp]
  000d8	50		 push	 eax
  000d9	c6 45 f5 00	 mov	 BYTE PTR __k$[ebp+5], 0
  000dd	ff 15 00 00 00
	00		 call	 DWORD PTR __imp_?GetIntAttribute@ioXMLElement@@QBEHPBD@Z

; 89   : 	}

  000e3	8b 4d fc	 mov	 ecx, DWORD PTR __$ArrayPad$[ebp]
  000e6	33 cd		 xor	 ecx, ebp
  000e8	e8 00 00 00 00	 call	 @__security_check_cookie@4
  000ed	c9		 leave
  000ee	c2 04 00	 ret	 4
??$GetIntAttribute_e@$05@ioXMLElement@@QBEHAAY05$$CBD@Z ENDP ; ioXMLElement::GetIntAttribute_e<6>
_TEXT	ENDS
PUBLIC	__$ArrayPad$
PUBLIC	??$GetIntAttribute_e@$0M@@ioXMLElement@@QBEHAAY0M@$$CBD@Z ; ioXMLElement::GetIntAttribute_e<12>
; Function compile flags: /Ogsp
;	COMDAT ??$GetIntAttribute_e@$0M@@ioXMLElement@@QBEHAAY0M@$$CBD@Z
_TEXT	SEGMENT
__k$ = -20						; size = 12
__$ArrayPad$ = -4					; size = 4
_k$ = 8							; size = 4
??$GetIntAttribute_e@$0M@@ioXMLElement@@QBEHAAY0M@$$CBD@Z PROC ; ioXMLElement::GetIntAttribute_e<12>, COMDAT
; _this$ = ecx

; 86   : 	{

  00000	55		 push	 ebp
  00001	8b ec		 mov	 ebp, esp
  00003	83 ec 14	 sub	 esp, 20			; 00000014H
  00006	a1 00 00 00 00	 mov	 eax, DWORD PTR ___security_cookie
  0000b	33 c5		 xor	 eax, ebp
  0000d	89 45 fc	 mov	 DWORD PTR __$ArrayPad$[ebp], eax
  00010	8b 45 08	 mov	 eax, DWORD PTR _k$[ebp]

; 87   : 		_ENCSTR(k, _k);

  00013	8a 10		 mov	 dl, BYTE PTR [eax]
  00015	56		 push	 esi
  00016	8b f1		 mov	 esi, ecx
  00018	84 d2		 test	 dl, dl
  0001a	0f 84 32 01 00
	00		 je	 $LN96@GetIntAttr@4
  00020	80 f2 ed	 xor	 dl, -19			; ffffffedH
  00023	88 55 ec	 mov	 BYTE PTR __k$[ebp], dl
  00026	8a 50 01	 mov	 dl, BYTE PTR [eax+1]
  00029	84 d2		 test	 dl, dl
  0002b	0f 84 1b 01 00
	00		 je	 $LN95@GetIntAttr@4
  00031	80 f2 ec	 xor	 dl, -20			; ffffffecH
  00034	88 55 ed	 mov	 BYTE PTR __k$[ebp+1], dl
  00037	8a 50 02	 mov	 dl, BYTE PTR [eax+2]
  0003a	84 d2		 test	 dl, dl
  0003c	0f 84 04 01 00
	00		 je	 $LN94@GetIntAttr@4
  00042	b1 eb		 mov	 cl, -21			; ffffffebH
  00044	32 d1		 xor	 dl, cl
  00046	88 55 ee	 mov	 BYTE PTR __k$[ebp+2], dl
  00049	8a 50 03	 mov	 dl, BYTE PTR [eax+3]
  0004c	84 d2		 test	 dl, dl
  0004e	0f 84 ec 00 00
	00		 je	 $LN93@GetIntAttr@4
  00054	80 f2 ea	 xor	 dl, -22			; ffffffeaH
  00057	88 55 ef	 mov	 BYTE PTR __k$[ebp+3], dl
  0005a	8a 50 04	 mov	 dl, BYTE PTR [eax+4]
  0005d	84 d2		 test	 dl, dl
  0005f	0f 84 d5 00 00
	00		 je	 $LN92@GetIntAttr@4
  00065	80 f2 ed	 xor	 dl, -19			; ffffffedH
  00068	88 55 f0	 mov	 BYTE PTR __k$[ebp+4], dl
  0006b	8a 50 05	 mov	 dl, BYTE PTR [eax+5]
  0006e	84 d2		 test	 dl, dl
  00070	0f 84 be 00 00
	00		 je	 $LN91@GetIntAttr@4
  00076	80 f2 ec	 xor	 dl, -20			; ffffffecH
  00079	88 55 f1	 mov	 BYTE PTR __k$[ebp+5], dl
  0007c	8a 50 06	 mov	 dl, BYTE PTR [eax+6]
  0007f	84 d2		 test	 dl, dl
  00081	0f 84 a8 00 00
	00		 je	 $LN90@GetIntAttr@4
  00087	32 d1		 xor	 dl, cl
  00089	88 55 f2	 mov	 BYTE PTR __k$[ebp+6], dl
  0008c	8a 50 07	 mov	 dl, BYTE PTR [eax+7]
  0008f	84 d2		 test	 dl, dl
  00091	0f 84 92 00 00
	00		 je	 $LN89@GetIntAttr@4
  00097	80 f2 ea	 xor	 dl, -22			; ffffffeaH
  0009a	88 55 f3	 mov	 BYTE PTR __k$[ebp+7], dl
  0009d	8a 50 08	 mov	 dl, BYTE PTR [eax+8]
  000a0	84 d2		 test	 dl, dl
  000a2	74 7f		 je	 SHORT $LN88@GetIntAttr@4
  000a4	80 f2 ed	 xor	 dl, -19			; ffffffedH
  000a7	88 55 f4	 mov	 BYTE PTR __k$[ebp+8], dl
  000aa	8a 50 09	 mov	 dl, BYTE PTR [eax+9]
  000ad	84 d2		 test	 dl, dl
  000af	74 6c		 je	 SHORT $LN87@GetIntAttr@4
  000b1	80 f2 ec	 xor	 dl, -20			; ffffffecH
  000b4	88 55 f5	 mov	 BYTE PTR __k$[ebp+9], dl
  000b7	8a 50 0a	 mov	 dl, BYTE PTR [eax+10]
  000ba	84 d2		 test	 dl, dl
  000bc	74 5a		 je	 SHORT $LN86@GetIntAttr@4
  000be	32 d1		 xor	 dl, cl
  000c0	80 78 0b 00	 cmp	 BYTE PTR [eax+11], 0
  000c4	88 55 f6	 mov	 BYTE PTR __k$[ebp+10], dl
  000c7	0f 84 89 00 00
	00		 je	 $LN1@GetIntAttr@4
  000cd	8a 50 0c	 mov	 dl, BYTE PTR [eax+12]
  000d0	84 d2		 test	 dl, dl
  000d2	74 3e		 je	 SHORT $LN84@GetIntAttr@4
  000d4	80 f2 ed	 xor	 dl, -19			; ffffffedH
  000d7	88 55 f8	 mov	 BYTE PTR __k$[ebp+12], dl
  000da	8a 50 0d	 mov	 dl, BYTE PTR [eax+13]
  000dd	84 d2		 test	 dl, dl
  000df	74 2b		 je	 SHORT $LN83@GetIntAttr@4
  000e1	80 f2 ec	 xor	 dl, -20			; ffffffecH
  000e4	88 55 f9	 mov	 BYTE PTR __k$[ebp+13], dl
  000e7	8a 50 0e	 mov	 dl, BYTE PTR [eax+14]
  000ea	84 d2		 test	 dl, dl
  000ec	74 19		 je	 SHORT $LN82@GetIntAttr@4
  000ee	8a 40 0f	 mov	 al, BYTE PTR [eax+15]
  000f1	32 d1		 xor	 dl, cl
  000f3	88 55 fa	 mov	 BYTE PTR __k$[ebp+14], dl
  000f6	84 c0		 test	 al, al
  000f8	74 07		 je	 SHORT $LN81@GetIntAttr@4
  000fa	34 ea		 xor	 al, -22			; ffffffeaH
  000fc	88 45 fb	 mov	 BYTE PTR __k$[ebp+15], al
  000ff	eb 55		 jmp	 SHORT $LN1@GetIntAttr@4
$LN81@GetIntAttr@4:
  00101	c6 45 fb ea	 mov	 BYTE PTR __k$[ebp+15], -22 ; ffffffeaH
  00105	eb 4f		 jmp	 SHORT $LN1@GetIntAttr@4
$LN82@GetIntAttr@4:
  00107	88 4d fa	 mov	 BYTE PTR __k$[ebp+14], cl
  0010a	eb 4a		 jmp	 SHORT $LN1@GetIntAttr@4
$LN83@GetIntAttr@4:
  0010c	c6 45 f9 ec	 mov	 BYTE PTR __k$[ebp+13], -20 ; ffffffecH
  00110	eb 44		 jmp	 SHORT $LN1@GetIntAttr@4
$LN84@GetIntAttr@4:
  00112	c6 45 f8 ed	 mov	 BYTE PTR __k$[ebp+12], -19 ; ffffffedH
  00116	eb 3e		 jmp	 SHORT $LN1@GetIntAttr@4
$LN86@GetIntAttr@4:
  00118	88 4d f6	 mov	 BYTE PTR __k$[ebp+10], cl
  0011b	eb 39		 jmp	 SHORT $LN1@GetIntAttr@4
$LN87@GetIntAttr@4:
  0011d	c6 45 f5 ec	 mov	 BYTE PTR __k$[ebp+9], -20 ; ffffffecH
  00121	eb 33		 jmp	 SHORT $LN1@GetIntAttr@4
$LN88@GetIntAttr@4:
  00123	c6 45 f4 ed	 mov	 BYTE PTR __k$[ebp+8], -19 ; ffffffedH
  00127	eb 2d		 jmp	 SHORT $LN1@GetIntAttr@4
$LN89@GetIntAttr@4:
  00129	c6 45 f3 ea	 mov	 BYTE PTR __k$[ebp+7], -22 ; ffffffeaH
  0012d	eb 27		 jmp	 SHORT $LN1@GetIntAttr@4
$LN90@GetIntAttr@4:
  0012f	88 4d f2	 mov	 BYTE PTR __k$[ebp+6], cl
  00132	eb 22		 jmp	 SHORT $LN1@GetIntAttr@4
$LN91@GetIntAttr@4:
  00134	c6 45 f1 ec	 mov	 BYTE PTR __k$[ebp+5], -20 ; ffffffecH
  00138	eb 1c		 jmp	 SHORT $LN1@GetIntAttr@4
$LN92@GetIntAttr@4:
  0013a	c6 45 f0 ed	 mov	 BYTE PTR __k$[ebp+4], -19 ; ffffffedH
  0013e	eb 16		 jmp	 SHORT $LN1@GetIntAttr@4
$LN93@GetIntAttr@4:
  00140	c6 45 ef ea	 mov	 BYTE PTR __k$[ebp+3], -22 ; ffffffeaH
  00144	eb 10		 jmp	 SHORT $LN1@GetIntAttr@4
$LN94@GetIntAttr@4:
  00146	c6 45 ee eb	 mov	 BYTE PTR __k$[ebp+2], -21 ; ffffffebH
  0014a	eb 0a		 jmp	 SHORT $LN1@GetIntAttr@4
$LN95@GetIntAttr@4:
  0014c	c6 45 ed ec	 mov	 BYTE PTR __k$[ebp+1], -20 ; ffffffecH
  00150	eb 04		 jmp	 SHORT $LN1@GetIntAttr@4
$LN96@GetIntAttr@4:
  00152	c6 45 ec ed	 mov	 BYTE PTR __k$[ebp], -19	; ffffffedH
$LN1@GetIntAttr@4:
  00156	6a 02		 push	 2
  00158	8d 45 ec	 lea	 eax, DWORD PTR __k$[ebp]
  0015b	c6 45 f7 00	 mov	 BYTE PTR __k$[ebp+11], 0
  0015f	5a		 pop	 edx
$LL104@GetIntAttr@4:
  00160	81 30 ed ec eb
	ea		 xor	 DWORD PTR [eax], -353637139 ; eaebecedH
  00166	83 c0 04	 add	 eax, 4
  00169	4a		 dec	 edx
  0016a	75 f4		 jne	 SHORT $LL104@GetIntAttr@4
  0016c	6a 08		 push	 8
  0016e	58		 pop	 eax
$LL101@GetIntAttr@4:
  0016f	8b c8		 mov	 ecx, eax
  00171	81 e1 03 00 00
	80		 and	 ecx, -2147483645	; 80000003H
  00177	79 05		 jns	 SHORT $LN111@GetIntAttr@4
  00179	49		 dec	 ecx
  0017a	83 c9 fc	 or	 ecx, -4			; fffffffcH
  0017d	41		 inc	 ecx
$LN111@GetIntAttr@4:
  0017e	b2 ed		 mov	 dl, -19			; ffffffedH
  00180	2a d1		 sub	 dl, cl
  00182	30 54 05 ec	 xor	 BYTE PTR __k$[ebp+eax], dl
  00186	40		 inc	 eax
  00187	83 f8 0b	 cmp	 eax, 11			; 0000000bH
  0018a	7c e3		 jl	 SHORT $LL101@GetIntAttr@4

; 88   : 		return GetIntAttribute(_k);

  0018c	8d 45 ec	 lea	 eax, DWORD PTR __k$[ebp]
  0018f	50		 push	 eax
  00190	8b ce		 mov	 ecx, esi
  00192	ff 15 00 00 00
	00		 call	 DWORD PTR __imp_?GetIntAttribute@ioXMLElement@@QBEHPBD@Z

; 89   : 	}

  00198	8b 4d fc	 mov	 ecx, DWORD PTR __$ArrayPad$[ebp]
  0019b	33 cd		 xor	 ecx, ebp
  0019d	5e		 pop	 esi
  0019e	e8 00 00 00 00	 call	 @__security_check_cookie@4
  001a3	c9		 leave
  001a4	c2 04 00	 ret	 4
??$GetIntAttribute_e@$0M@@ioXMLElement@@QBEHAAY0M@$$CBD@Z ENDP ; ioXMLElement::GetIntAttribute_e<12>
_TEXT	ENDS
PUBLIC	__$ArrayPad$
PUBLIC	??$GetIntAttribute_e@$0BA@@ioXMLElement@@QBEHAAY0BA@$$CBD@Z ; ioXMLElement::GetIntAttribute_e<16>
; Function compile flags: /Ogsp
;	COMDAT ??$GetIntAttribute_e@$0BA@@ioXMLElement@@QBEHAAY0BA@$$CBD@Z
_TEXT	SEGMENT
__k$ = -24						; size = 16
__$ArrayPad$ = -4					; size = 4
_k$ = 8							; size = 4
??$GetIntAttribute_e@$0BA@@ioXMLElement@@QBEHAAY0BA@$$CBD@Z PROC ; ioXMLElement::GetIntAttribute_e<16>, COMDAT
; _this$ = ecx

; 86   : 	{

  00000	55		 push	 ebp
  00001	8b ec		 mov	 ebp, esp
  00003	83 ec 18	 sub	 esp, 24			; 00000018H
  00006	a1 00 00 00 00	 mov	 eax, DWORD PTR ___security_cookie
  0000b	33 c5		 xor	 eax, ebp
  0000d	89 45 fc	 mov	 DWORD PTR __$ArrayPad$[ebp], eax
  00010	8b 45 08	 mov	 eax, DWORD PTR _k$[ebp]

; 87   : 		_ENCSTR(k, _k);

  00013	8a 10		 mov	 dl, BYTE PTR [eax]
  00015	56		 push	 esi
  00016	8b f1		 mov	 esi, ecx
  00018	84 d2		 test	 dl, dl
  0001a	0f 84 8c 01 00
	00		 je	 $LN96@GetIntAttr@5
  00020	80 f2 ed	 xor	 dl, -19			; ffffffedH
  00023	88 55 e8	 mov	 BYTE PTR __k$[ebp], dl
  00026	8a 50 01	 mov	 dl, BYTE PTR [eax+1]
  00029	84 d2		 test	 dl, dl
  0002b	0f 84 75 01 00
	00		 je	 $LN95@GetIntAttr@5
  00031	80 f2 ec	 xor	 dl, -20			; ffffffecH
  00034	88 55 e9	 mov	 BYTE PTR __k$[ebp+1], dl
  00037	8a 50 02	 mov	 dl, BYTE PTR [eax+2]
  0003a	84 d2		 test	 dl, dl
  0003c	0f 84 5e 01 00
	00		 je	 $LN94@GetIntAttr@5
  00042	b1 eb		 mov	 cl, -21			; ffffffebH
  00044	32 d1		 xor	 dl, cl
  00046	88 55 ea	 mov	 BYTE PTR __k$[ebp+2], dl
  00049	8a 50 03	 mov	 dl, BYTE PTR [eax+3]
  0004c	84 d2		 test	 dl, dl
  0004e	0f 84 46 01 00
	00		 je	 $LN93@GetIntAttr@5
  00054	80 f2 ea	 xor	 dl, -22			; ffffffeaH
  00057	88 55 eb	 mov	 BYTE PTR __k$[ebp+3], dl
  0005a	8a 50 04	 mov	 dl, BYTE PTR [eax+4]
  0005d	84 d2		 test	 dl, dl
  0005f	0f 84 2f 01 00
	00		 je	 $LN92@GetIntAttr@5
  00065	80 f2 ed	 xor	 dl, -19			; ffffffedH
  00068	88 55 ec	 mov	 BYTE PTR __k$[ebp+4], dl
  0006b	8a 50 05	 mov	 dl, BYTE PTR [eax+5]
  0006e	84 d2		 test	 dl, dl
  00070	0f 84 18 01 00
	00		 je	 $LN91@GetIntAttr@5
  00076	80 f2 ec	 xor	 dl, -20			; ffffffecH
  00079	88 55 ed	 mov	 BYTE PTR __k$[ebp+5], dl
  0007c	8a 50 06	 mov	 dl, BYTE PTR [eax+6]
  0007f	84 d2		 test	 dl, dl
  00081	0f 84 02 01 00
	00		 je	 $LN90@GetIntAttr@5
  00087	32 d1		 xor	 dl, cl
  00089	88 55 ee	 mov	 BYTE PTR __k$[ebp+6], dl
  0008c	8a 50 07	 mov	 dl, BYTE PTR [eax+7]
  0008f	84 d2		 test	 dl, dl
  00091	0f 84 ec 00 00
	00		 je	 $LN89@GetIntAttr@5
  00097	80 f2 ea	 xor	 dl, -22			; ffffffeaH
  0009a	88 55 ef	 mov	 BYTE PTR __k$[ebp+7], dl
  0009d	8a 50 08	 mov	 dl, BYTE PTR [eax+8]
  000a0	84 d2		 test	 dl, dl
  000a2	0f 84 d5 00 00
	00		 je	 $LN88@GetIntAttr@5
  000a8	80 f2 ed	 xor	 dl, -19			; ffffffedH
  000ab	88 55 f0	 mov	 BYTE PTR __k$[ebp+8], dl
  000ae	8a 50 09	 mov	 dl, BYTE PTR [eax+9]
  000b1	84 d2		 test	 dl, dl
  000b3	0f 84 be 00 00
	00		 je	 $LN87@GetIntAttr@5
  000b9	80 f2 ec	 xor	 dl, -20			; ffffffecH
  000bc	88 55 f1	 mov	 BYTE PTR __k$[ebp+9], dl
  000bf	8a 50 0a	 mov	 dl, BYTE PTR [eax+10]
  000c2	84 d2		 test	 dl, dl
  000c4	0f 84 a8 00 00
	00		 je	 $LN86@GetIntAttr@5
  000ca	32 d1		 xor	 dl, cl
  000cc	88 55 f2	 mov	 BYTE PTR __k$[ebp+10], dl
  000cf	8a 50 0b	 mov	 dl, BYTE PTR [eax+11]
  000d2	84 d2		 test	 dl, dl
  000d4	0f 84 92 00 00
	00		 je	 $LN85@GetIntAttr@5
  000da	80 f2 ea	 xor	 dl, -22			; ffffffeaH
  000dd	88 55 f3	 mov	 BYTE PTR __k$[ebp+11], dl
  000e0	8a 50 0c	 mov	 dl, BYTE PTR [eax+12]
  000e3	84 d2		 test	 dl, dl
  000e5	74 7f		 je	 SHORT $LN84@GetIntAttr@5
  000e7	80 f2 ed	 xor	 dl, -19			; ffffffedH
  000ea	88 55 f4	 mov	 BYTE PTR __k$[ebp+12], dl
  000ed	8a 50 0d	 mov	 dl, BYTE PTR [eax+13]
  000f0	84 d2		 test	 dl, dl
  000f2	74 6c		 je	 SHORT $LN83@GetIntAttr@5
  000f4	80 f2 ec	 xor	 dl, -20			; ffffffecH
  000f7	88 55 f5	 mov	 BYTE PTR __k$[ebp+13], dl
  000fa	8a 50 0e	 mov	 dl, BYTE PTR [eax+14]
  000fd	84 d2		 test	 dl, dl
  000ff	74 5a		 je	 SHORT $LN82@GetIntAttr@5
  00101	32 d1		 xor	 dl, cl
  00103	80 78 0f 00	 cmp	 BYTE PTR [eax+15], 0
  00107	88 55 f6	 mov	 BYTE PTR __k$[ebp+14], dl
  0010a	0f 84 a0 00 00
	00		 je	 $LN1@GetIntAttr@5
  00110	8a 50 10	 mov	 dl, BYTE PTR [eax+16]
  00113	84 d2		 test	 dl, dl
  00115	74 3e		 je	 SHORT $LN80@GetIntAttr@5
  00117	80 f2 ed	 xor	 dl, -19			; ffffffedH
  0011a	88 55 f8	 mov	 BYTE PTR __k$[ebp+16], dl
  0011d	8a 50 11	 mov	 dl, BYTE PTR [eax+17]
  00120	84 d2		 test	 dl, dl
  00122	74 2b		 je	 SHORT $LN79@GetIntAttr@5
  00124	80 f2 ec	 xor	 dl, -20			; ffffffecH
  00127	88 55 f9	 mov	 BYTE PTR __k$[ebp+17], dl
  0012a	8a 50 12	 mov	 dl, BYTE PTR [eax+18]
  0012d	84 d2		 test	 dl, dl
  0012f	74 19		 je	 SHORT $LN78@GetIntAttr@5
  00131	8a 40 13	 mov	 al, BYTE PTR [eax+19]
  00134	32 d1		 xor	 dl, cl
  00136	88 55 fa	 mov	 BYTE PTR __k$[ebp+18], dl
  00139	84 c0		 test	 al, al
  0013b	74 07		 je	 SHORT $LN77@GetIntAttr@5
  0013d	34 ea		 xor	 al, -22			; ffffffeaH
  0013f	88 45 fb	 mov	 BYTE PTR __k$[ebp+19], al
  00142	eb 6c		 jmp	 SHORT $LN1@GetIntAttr@5
$LN77@GetIntAttr@5:
  00144	c6 45 fb ea	 mov	 BYTE PTR __k$[ebp+19], -22 ; ffffffeaH
  00148	eb 66		 jmp	 SHORT $LN1@GetIntAttr@5
$LN78@GetIntAttr@5:
  0014a	88 4d fa	 mov	 BYTE PTR __k$[ebp+18], cl
  0014d	eb 61		 jmp	 SHORT $LN1@GetIntAttr@5
$LN79@GetIntAttr@5:
  0014f	c6 45 f9 ec	 mov	 BYTE PTR __k$[ebp+17], -20 ; ffffffecH
  00153	eb 5b		 jmp	 SHORT $LN1@GetIntAttr@5
$LN80@GetIntAttr@5:
  00155	c6 45 f8 ed	 mov	 BYTE PTR __k$[ebp+16], -19 ; ffffffedH
  00159	eb 55		 jmp	 SHORT $LN1@GetIntAttr@5
$LN82@GetIntAttr@5:
  0015b	88 4d f6	 mov	 BYTE PTR __k$[ebp+14], cl
  0015e	eb 50		 jmp	 SHORT $LN1@GetIntAttr@5
$LN83@GetIntAttr@5:
  00160	c6 45 f5 ec	 mov	 BYTE PTR __k$[ebp+13], -20 ; ffffffecH
  00164	eb 4a		 jmp	 SHORT $LN1@GetIntAttr@5
$LN84@GetIntAttr@5:
  00166	c6 45 f4 ed	 mov	 BYTE PTR __k$[ebp+12], -19 ; ffffffedH
  0016a	eb 44		 jmp	 SHORT $LN1@GetIntAttr@5
$LN85@GetIntAttr@5:
  0016c	c6 45 f3 ea	 mov	 BYTE PTR __k$[ebp+11], -22 ; ffffffeaH
  00170	eb 3e		 jmp	 SHORT $LN1@GetIntAttr@5
$LN86@GetIntAttr@5:
  00172	88 4d f2	 mov	 BYTE PTR __k$[ebp+10], cl
  00175	eb 39		 jmp	 SHORT $LN1@GetIntAttr@5
$LN87@GetIntAttr@5:
  00177	c6 45 f1 ec	 mov	 BYTE PTR __k$[ebp+9], -20 ; ffffffecH
  0017b	eb 33		 jmp	 SHORT $LN1@GetIntAttr@5
$LN88@GetIntAttr@5:
  0017d	c6 45 f0 ed	 mov	 BYTE PTR __k$[ebp+8], -19 ; ffffffedH
  00181	eb 2d		 jmp	 SHORT $LN1@GetIntAttr@5
$LN89@GetIntAttr@5:
  00183	c6 45 ef ea	 mov	 BYTE PTR __k$[ebp+7], -22 ; ffffffeaH
  00187	eb 27		 jmp	 SHORT $LN1@GetIntAttr@5
$LN90@GetIntAttr@5:
  00189	88 4d ee	 mov	 BYTE PTR __k$[ebp+6], cl
  0018c	eb 22		 jmp	 SHORT $LN1@GetIntAttr@5
$LN91@GetIntAttr@5:
  0018e	c6 45 ed ec	 mov	 BYTE PTR __k$[ebp+5], -20 ; ffffffecH
  00192	eb 1c		 jmp	 SHORT $LN1@GetIntAttr@5
$LN92@GetIntAttr@5:
  00194	c6 45 ec ed	 mov	 BYTE PTR __k$[ebp+4], -19 ; ffffffedH
  00198	eb 16		 jmp	 SHORT $LN1@GetIntAttr@5
$LN93@GetIntAttr@5:
  0019a	c6 45 eb ea	 mov	 BYTE PTR __k$[ebp+3], -22 ; ffffffeaH
  0019e	eb 10		 jmp	 SHORT $LN1@GetIntAttr@5
$LN94@GetIntAttr@5:
  001a0	c6 45 ea eb	 mov	 BYTE PTR __k$[ebp+2], -21 ; ffffffebH
  001a4	eb 0a		 jmp	 SHORT $LN1@GetIntAttr@5
$LN95@GetIntAttr@5:
  001a6	c6 45 e9 ec	 mov	 BYTE PTR __k$[ebp+1], -20 ; ffffffecH
  001aa	eb 04		 jmp	 SHORT $LN1@GetIntAttr@5
$LN96@GetIntAttr@5:
  001ac	c6 45 e8 ed	 mov	 BYTE PTR __k$[ebp], -19	; ffffffedH
$LN1@GetIntAttr@5:
  001b0	6a 03		 push	 3
  001b2	8d 45 e8	 lea	 eax, DWORD PTR __k$[ebp]
  001b5	c6 45 f7 00	 mov	 BYTE PTR __k$[ebp+15], 0
  001b9	5a		 pop	 edx
$LL104@GetIntAttr@5:
  001ba	81 30 ed ec eb
	ea		 xor	 DWORD PTR [eax], -353637139 ; eaebecedH
  001c0	83 c0 04	 add	 eax, 4
  001c3	4a		 dec	 edx
  001c4	75 f4		 jne	 SHORT $LL104@GetIntAttr@5
  001c6	6a 0c		 push	 12			; 0000000cH
  001c8	58		 pop	 eax
$LL101@GetIntAttr@5:
  001c9	8b c8		 mov	 ecx, eax
  001cb	81 e1 03 00 00
	80		 and	 ecx, -2147483645	; 80000003H
  001d1	79 05		 jns	 SHORT $LN111@GetIntAttr@5
  001d3	49		 dec	 ecx
  001d4	83 c9 fc	 or	 ecx, -4			; fffffffcH
  001d7	41		 inc	 ecx
$LN111@GetIntAttr@5:
  001d8	b2 ed		 mov	 dl, -19			; ffffffedH
  001da	2a d1		 sub	 dl, cl
  001dc	30 54 05 e8	 xor	 BYTE PTR __k$[ebp+eax], dl
  001e0	40		 inc	 eax
  001e1	83 f8 0f	 cmp	 eax, 15			; 0000000fH
  001e4	7c e3		 jl	 SHORT $LL101@GetIntAttr@5

; 88   : 		return GetIntAttribute(_k);

  001e6	8d 45 e8	 lea	 eax, DWORD PTR __k$[ebp]
  001e9	50		 push	 eax
  001ea	8b ce		 mov	 ecx, esi
  001ec	ff 15 00 00 00
	00		 call	 DWORD PTR __imp_?GetIntAttribute@ioXMLElement@@QBEHPBD@Z

; 89   : 	}

  001f2	8b 4d fc	 mov	 ecx, DWORD PTR __$ArrayPad$[ebp]
  001f5	33 cd		 xor	 ecx, ebp
  001f7	5e		 pop	 esi
  001f8	e8 00 00 00 00	 call	 @__security_check_cookie@4
  001fd	c9		 leave
  001fe	c2 04 00	 ret	 4
??$GetIntAttribute_e@$0BA@@ioXMLElement@@QBEHAAY0BA@$$CBD@Z ENDP ; ioXMLElement::GetIntAttribute_e<16>
_TEXT	ENDS
PUBLIC	__$ArrayPad$
PUBLIC	??$?8$08@@YA_NABVioHashString@@AAY08$$CBD@Z	; operator==<9>
; Function compile flags: /Ogsp
; File d:\lost saga for developer\youtube\tutorial\source\src\io3dengine\iohashstring.h
;	COMDAT ??$?8$08@@YA_NABVioHashString@@AAY08$$CBD@Z
_TEXT	SEGMENT
__t$ = -20						; size = 9
__$ArrayPad$ = -4					; size = 4
_lhs$ = 8						; size = 4
_t$ = 12						; size = 4
??$?8$08@@YA_NABVioHashString@@AAY08$$CBD@Z PROC	; operator==<9>, COMDAT

; 146  : {

  00000	55		 push	 ebp
  00001	8b ec		 mov	 ebp, esp
  00003	83 ec 14	 sub	 esp, 20			; 00000014H
  00006	a1 00 00 00 00	 mov	 eax, DWORD PTR ___security_cookie
  0000b	33 c5		 xor	 eax, ebp
  0000d	89 45 fc	 mov	 DWORD PTR __$ArrayPad$[ebp], eax
  00010	8b 45 0c	 mov	 eax, DWORD PTR _t$[ebp]

; 147  : 	_ENCSTR(t, _t); return ( strcmp( lhs.c_str(), _t ) == 0 );

  00013	8a 10		 mov	 dl, BYTE PTR [eax]
  00015	8b 4d 08	 mov	 ecx, DWORD PTR _lhs$[ebp]
  00018	84 d2		 test	 dl, dl
  0001a	0f 84 ee 00 00
	00		 je	 $LN96@operator
  00020	80 f2 ed	 xor	 dl, -19			; ffffffedH
  00023	88 55 ec	 mov	 BYTE PTR __t$[ebp], dl
  00026	8a 50 01	 mov	 dl, BYTE PTR [eax+1]
  00029	84 d2		 test	 dl, dl
  0002b	0f 84 d7 00 00
	00		 je	 $LN95@operator
  00031	80 f2 ec	 xor	 dl, -20			; ffffffecH
  00034	88 55 ed	 mov	 BYTE PTR __t$[ebp+1], dl
  00037	8a 50 02	 mov	 dl, BYTE PTR [eax+2]
  0003a	84 d2		 test	 dl, dl
  0003c	0f 84 c0 00 00
	00		 je	 $LN94@operator
  00042	80 f2 eb	 xor	 dl, -21			; ffffffebH
  00045	88 55 ee	 mov	 BYTE PTR __t$[ebp+2], dl
  00048	8a 50 03	 mov	 dl, BYTE PTR [eax+3]
  0004b	84 d2		 test	 dl, dl
  0004d	0f 84 a9 00 00
	00		 je	 $LN93@operator
  00053	80 f2 ea	 xor	 dl, -22			; ffffffeaH
  00056	88 55 ef	 mov	 BYTE PTR __t$[ebp+3], dl
  00059	8a 50 04	 mov	 dl, BYTE PTR [eax+4]
  0005c	84 d2		 test	 dl, dl
  0005e	0f 84 92 00 00
	00		 je	 $LN92@operator
  00064	80 f2 ed	 xor	 dl, -19			; ffffffedH
  00067	88 55 f0	 mov	 BYTE PTR __t$[ebp+4], dl
  0006a	8a 50 05	 mov	 dl, BYTE PTR [eax+5]
  0006d	84 d2		 test	 dl, dl
  0006f	74 7f		 je	 SHORT $LN91@operator
  00071	80 f2 ec	 xor	 dl, -20			; ffffffecH
  00074	88 55 f1	 mov	 BYTE PTR __t$[ebp+5], dl
  00077	8a 50 06	 mov	 dl, BYTE PTR [eax+6]
  0007a	84 d2		 test	 dl, dl
  0007c	74 6c		 je	 SHORT $LN90@operator
  0007e	80 f2 eb	 xor	 dl, -21			; ffffffebH
  00081	88 55 f2	 mov	 BYTE PTR __t$[ebp+6], dl
  00084	8a 50 07	 mov	 dl, BYTE PTR [eax+7]
  00087	84 d2		 test	 dl, dl
  00089	74 59		 je	 SHORT $LN89@operator
  0008b	80 f2 ea	 xor	 dl, -22			; ffffffeaH
  0008e	80 78 08 00	 cmp	 BYTE PTR [eax+8], 0
  00092	88 55 f3	 mov	 BYTE PTR __t$[ebp+7], dl
  00095	74 7b		 je	 SHORT $LN1@operator
  00097	8a 50 09	 mov	 dl, BYTE PTR [eax+9]
  0009a	84 d2		 test	 dl, dl
  0009c	74 40		 je	 SHORT $LN87@operator
  0009e	80 f2 ec	 xor	 dl, -20			; ffffffecH
  000a1	88 55 f5	 mov	 BYTE PTR __t$[ebp+9], dl
  000a4	8a 50 0a	 mov	 dl, BYTE PTR [eax+10]
  000a7	84 d2		 test	 dl, dl
  000a9	74 2d		 je	 SHORT $LN86@operator
  000ab	80 f2 eb	 xor	 dl, -21			; ffffffebH
  000ae	88 55 f6	 mov	 BYTE PTR __t$[ebp+10], dl
  000b1	8a 50 0b	 mov	 dl, BYTE PTR [eax+11]
  000b4	84 d2		 test	 dl, dl
  000b6	74 1a		 je	 SHORT $LN85@operator
  000b8	8a 40 0c	 mov	 al, BYTE PTR [eax+12]
  000bb	80 f2 ea	 xor	 dl, -22			; ffffffeaH
  000be	88 55 f7	 mov	 BYTE PTR __t$[ebp+11], dl
  000c1	84 c0		 test	 al, al
  000c3	74 07		 je	 SHORT $LN84@operator
  000c5	34 ed		 xor	 al, -19			; ffffffedH
  000c7	88 45 f8	 mov	 BYTE PTR __t$[ebp+12], al
  000ca	eb 46		 jmp	 SHORT $LN1@operator
$LN84@operator:
  000cc	c6 45 f8 ed	 mov	 BYTE PTR __t$[ebp+12], -19 ; ffffffedH
  000d0	eb 40		 jmp	 SHORT $LN1@operator
$LN85@operator:
  000d2	c6 45 f7 ea	 mov	 BYTE PTR __t$[ebp+11], -22 ; ffffffeaH
  000d6	eb 3a		 jmp	 SHORT $LN1@operator
$LN86@operator:
  000d8	c6 45 f6 eb	 mov	 BYTE PTR __t$[ebp+10], -21 ; ffffffebH
  000dc	eb 34		 jmp	 SHORT $LN1@operator
$LN87@operator:
  000de	c6 45 f5 ec	 mov	 BYTE PTR __t$[ebp+9], -20 ; ffffffecH
  000e2	eb 2e		 jmp	 SHORT $LN1@operator
$LN89@operator:
  000e4	c6 45 f3 ea	 mov	 BYTE PTR __t$[ebp+7], -22 ; ffffffeaH
  000e8	eb 28		 jmp	 SHORT $LN1@operator
$LN90@operator:
  000ea	c6 45 f2 eb	 mov	 BYTE PTR __t$[ebp+6], -21 ; ffffffebH
  000ee	eb 22		 jmp	 SHORT $LN1@operator
$LN91@operator:
  000f0	c6 45 f1 ec	 mov	 BYTE PTR __t$[ebp+5], -20 ; ffffffecH
  000f4	eb 1c		 jmp	 SHORT $LN1@operator
$LN92@operator:
  000f6	c6 45 f0 ed	 mov	 BYTE PTR __t$[ebp+4], -19 ; ffffffedH
  000fa	eb 16		 jmp	 SHORT $LN1@operator
$LN93@operator:
  000fc	c6 45 ef ea	 mov	 BYTE PTR __t$[ebp+3], -22 ; ffffffeaH
  00100	eb 10		 jmp	 SHORT $LN1@operator
$LN94@operator:
  00102	c6 45 ee eb	 mov	 BYTE PTR __t$[ebp+2], -21 ; ffffffebH
  00106	eb 0a		 jmp	 SHORT $LN1@operator
$LN95@operator:
  00108	c6 45 ed ec	 mov	 BYTE PTR __t$[ebp+1], -20 ; ffffffecH
  0010c	eb 04		 jmp	 SHORT $LN1@operator
$LN96@operator:
  0010e	c6 45 ec ed	 mov	 BYTE PTR __t$[ebp], -19	; ffffffedH
$LN1@operator:
  00112	6a 02		 push	 2
  00114	8d 45 ec	 lea	 eax, DWORD PTR __t$[ebp]
  00117	c6 45 f4 00	 mov	 BYTE PTR __t$[ebp+8], 0
  0011b	5a		 pop	 edx
$LL104@operator:
  0011c	81 30 ed ec eb
	ea		 xor	 DWORD PTR [eax], -353637139 ; eaebecedH
  00122	83 c0 04	 add	 eax, 4
  00125	4a		 dec	 edx
  00126	75 f4		 jne	 SHORT $LL104@operator
  00128	56		 push	 esi
  00129	8d 75 ec	 lea	 esi, DWORD PTR __t$[ebp]
  0012c	ff 15 00 00 00
	00		 call	 DWORD PTR __imp_?c_str@ioHashString@@QBEPBDXZ
$LL111@operator:
  00132	8a 08		 mov	 cl, BYTE PTR [eax]
  00134	3a 0e		 cmp	 cl, BYTE PTR [esi]
  00136	75 1a		 jne	 SHORT $LN112@operator
  00138	84 c9		 test	 cl, cl
  0013a	74 12		 je	 SHORT $LN113@operator
  0013c	8a 48 01	 mov	 cl, BYTE PTR [eax+1]
  0013f	3a 4e 01	 cmp	 cl, BYTE PTR [esi+1]
  00142	75 0e		 jne	 SHORT $LN112@operator
  00144	83 c0 02	 add	 eax, 2
  00147	83 c6 02	 add	 esi, 2
  0014a	84 c9		 test	 cl, cl
  0014c	75 e4		 jne	 SHORT $LL111@operator
$LN113@operator:
  0014e	33 c0		 xor	 eax, eax
  00150	eb 05		 jmp	 SHORT $LN114@operator
$LN112@operator:
  00152	1b c0		 sbb	 eax, eax
  00154	83 d8 ff	 sbb	 eax, -1
$LN114@operator:
  00157	33 c9		 xor	 ecx, ecx
  00159	85 c0		 test	 eax, eax
  0015b	0f 94 c0	 sete	 al

; 148  : }

  0015e	8b 4d fc	 mov	 ecx, DWORD PTR __$ArrayPad$[ebp]
  00161	33 cd		 xor	 ecx, ebp
  00163	5e		 pop	 esi
  00164	e8 00 00 00 00	 call	 @__security_check_cookie@4
  00169	c9		 leave
  0016a	c3		 ret	 0
??$?8$08@@YA_NABVioHashString@@AAY08$$CBD@Z ENDP	; operator==<9>
_TEXT	ENDS
PUBLIC	__$ArrayPad$
PUBLIC	??$?8$09@@YA_NABVioHashString@@AAY09$$CBD@Z	; operator==<10>
; Function compile flags: /Ogsp
;	COMDAT ??$?8$09@@YA_NABVioHashString@@AAY09$$CBD@Z
_TEXT	SEGMENT
__t$ = -20						; size = 10
__$ArrayPad$ = -4					; size = 4
_lhs$ = 8						; size = 4
_t$ = 12						; size = 4
??$?8$09@@YA_NABVioHashString@@AAY09$$CBD@Z PROC	; operator==<10>, COMDAT

; 146  : {

  00000	55		 push	 ebp
  00001	8b ec		 mov	 ebp, esp
  00003	83 ec 14	 sub	 esp, 20			; 00000014H
  00006	a1 00 00 00 00	 mov	 eax, DWORD PTR ___security_cookie
  0000b	33 c5		 xor	 eax, ebp
  0000d	89 45 fc	 mov	 DWORD PTR __$ArrayPad$[ebp], eax
  00010	8b 45 0c	 mov	 eax, DWORD PTR _t$[ebp]

; 147  : 	_ENCSTR(t, _t); return ( strcmp( lhs.c_str(), _t ) == 0 );

  00013	8a 10		 mov	 dl, BYTE PTR [eax]
  00015	8b 4d 08	 mov	 ecx, DWORD PTR _lhs$[ebp]
  00018	84 d2		 test	 dl, dl
  0001a	0f 84 0d 01 00
	00		 je	 $LN96@operator@2
  00020	80 f2 ed	 xor	 dl, -19			; ffffffedH
  00023	88 55 ec	 mov	 BYTE PTR __t$[ebp], dl
  00026	8a 50 01	 mov	 dl, BYTE PTR [eax+1]
  00029	84 d2		 test	 dl, dl
  0002b	0f 84 f6 00 00
	00		 je	 $LN95@operator@2
  00031	80 f2 ec	 xor	 dl, -20			; ffffffecH
  00034	88 55 ed	 mov	 BYTE PTR __t$[ebp+1], dl
  00037	8a 50 02	 mov	 dl, BYTE PTR [eax+2]
  0003a	84 d2		 test	 dl, dl
  0003c	0f 84 df 00 00
	00		 je	 $LN94@operator@2
  00042	80 f2 eb	 xor	 dl, -21			; ffffffebH
  00045	88 55 ee	 mov	 BYTE PTR __t$[ebp+2], dl
  00048	8a 50 03	 mov	 dl, BYTE PTR [eax+3]
  0004b	84 d2		 test	 dl, dl
  0004d	0f 84 c8 00 00
	00		 je	 $LN93@operator@2
  00053	80 f2 ea	 xor	 dl, -22			; ffffffeaH
  00056	88 55 ef	 mov	 BYTE PTR __t$[ebp+3], dl
  00059	8a 50 04	 mov	 dl, BYTE PTR [eax+4]
  0005c	84 d2		 test	 dl, dl
  0005e	0f 84 b1 00 00
	00		 je	 $LN92@operator@2
  00064	80 f2 ed	 xor	 dl, -19			; ffffffedH
  00067	88 55 f0	 mov	 BYTE PTR __t$[ebp+4], dl
  0006a	8a 50 05	 mov	 dl, BYTE PTR [eax+5]
  0006d	84 d2		 test	 dl, dl
  0006f	0f 84 9a 00 00
	00		 je	 $LN91@operator@2
  00075	80 f2 ec	 xor	 dl, -20			; ffffffecH
  00078	88 55 f1	 mov	 BYTE PTR __t$[ebp+5], dl
  0007b	8a 50 06	 mov	 dl, BYTE PTR [eax+6]
  0007e	84 d2		 test	 dl, dl
  00080	0f 84 83 00 00
	00		 je	 $LN90@operator@2
  00086	80 f2 eb	 xor	 dl, -21			; ffffffebH
  00089	88 55 f2	 mov	 BYTE PTR __t$[ebp+6], dl
  0008c	8a 50 07	 mov	 dl, BYTE PTR [eax+7]
  0008f	84 d2		 test	 dl, dl
  00091	74 70		 je	 SHORT $LN89@operator@2
  00093	80 f2 ea	 xor	 dl, -22			; ffffffeaH
  00096	88 55 f3	 mov	 BYTE PTR __t$[ebp+7], dl
  00099	8a 50 08	 mov	 dl, BYTE PTR [eax+8]
  0009c	84 d2		 test	 dl, dl
  0009e	74 5d		 je	 SHORT $LN88@operator@2
  000a0	80 f2 ed	 xor	 dl, -19			; ffffffedH
  000a3	80 78 09 00	 cmp	 BYTE PTR [eax+9], 0
  000a7	88 55 f4	 mov	 BYTE PTR __t$[ebp+8], dl
  000aa	0f 84 81 00 00
	00		 je	 $LN1@operator@2
  000b0	8a 50 0a	 mov	 dl, BYTE PTR [eax+10]
  000b3	84 d2		 test	 dl, dl
  000b5	74 40		 je	 SHORT $LN86@operator@2
  000b7	80 f2 eb	 xor	 dl, -21			; ffffffebH
  000ba	88 55 f6	 mov	 BYTE PTR __t$[ebp+10], dl
  000bd	8a 50 0b	 mov	 dl, BYTE PTR [eax+11]
  000c0	84 d2		 test	 dl, dl
  000c2	74 2d		 je	 SHORT $LN85@operator@2
  000c4	80 f2 ea	 xor	 dl, -22			; ffffffeaH
  000c7	88 55 f7	 mov	 BYTE PTR __t$[ebp+11], dl
  000ca	8a 50 0c	 mov	 dl, BYTE PTR [eax+12]
  000cd	84 d2		 test	 dl, dl
  000cf	74 1a		 je	 SHORT $LN84@operator@2
  000d1	8a 40 0d	 mov	 al, BYTE PTR [eax+13]
  000d4	80 f2 ed	 xor	 dl, -19			; ffffffedH
  000d7	88 55 f8	 mov	 BYTE PTR __t$[ebp+12], dl
  000da	84 c0		 test	 al, al
  000dc	74 07		 je	 SHORT $LN83@operator@2
  000de	34 ec		 xor	 al, -20			; ffffffecH
  000e0	88 45 f9	 mov	 BYTE PTR __t$[ebp+13], al
  000e3	eb 4c		 jmp	 SHORT $LN1@operator@2
$LN83@operator@2:
  000e5	c6 45 f9 ec	 mov	 BYTE PTR __t$[ebp+13], -20 ; ffffffecH
  000e9	eb 46		 jmp	 SHORT $LN1@operator@2
$LN84@operator@2:
  000eb	c6 45 f8 ed	 mov	 BYTE PTR __t$[ebp+12], -19 ; ffffffedH
  000ef	eb 40		 jmp	 SHORT $LN1@operator@2
$LN85@operator@2:
  000f1	c6 45 f7 ea	 mov	 BYTE PTR __t$[ebp+11], -22 ; ffffffeaH
  000f5	eb 3a		 jmp	 SHORT $LN1@operator@2
$LN86@operator@2:
  000f7	c6 45 f6 eb	 mov	 BYTE PTR __t$[ebp+10], -21 ; ffffffebH
  000fb	eb 34		 jmp	 SHORT $LN1@operator@2
$LN88@operator@2:
  000fd	c6 45 f4 ed	 mov	 BYTE PTR __t$[ebp+8], -19 ; ffffffedH
  00101	eb 2e		 jmp	 SHORT $LN1@operator@2
$LN89@operator@2:
  00103	c6 45 f3 ea	 mov	 BYTE PTR __t$[ebp+7], -22 ; ffffffeaH
  00107	eb 28		 jmp	 SHORT $LN1@operator@2
$LN90@operator@2:
  00109	c6 45 f2 eb	 mov	 BYTE PTR __t$[ebp+6], -21 ; ffffffebH
  0010d	eb 22		 jmp	 SHORT $LN1@operator@2
$LN91@operator@2:
  0010f	c6 45 f1 ec	 mov	 BYTE PTR __t$[ebp+5], -20 ; ffffffecH
  00113	eb 1c		 jmp	 SHORT $LN1@operator@2
$LN92@operator@2:
  00115	c6 45 f0 ed	 mov	 BYTE PTR __t$[ebp+4], -19 ; ffffffedH
  00119	eb 16		 jmp	 SHORT $LN1@operator@2
$LN93@operator@2:
  0011b	c6 45 ef ea	 mov	 BYTE PTR __t$[ebp+3], -22 ; ffffffeaH
  0011f	eb 10		 jmp	 SHORT $LN1@operator@2
$LN94@operator@2:
  00121	c6 45 ee eb	 mov	 BYTE PTR __t$[ebp+2], -21 ; ffffffebH
  00125	eb 0a		 jmp	 SHORT $LN1@operator@2
$LN95@operator@2:
  00127	c6 45 ed ec	 mov	 BYTE PTR __t$[ebp+1], -20 ; ffffffecH
  0012b	eb 04		 jmp	 SHORT $LN1@operator@2
$LN96@operator@2:
  0012d	c6 45 ec ed	 mov	 BYTE PTR __t$[ebp], -19	; ffffffedH
$LN1@operator@2:
  00131	6a 02		 push	 2
  00133	8d 45 ec	 lea	 eax, DWORD PTR __t$[ebp]
  00136	c6 45 f5 00	 mov	 BYTE PTR __t$[ebp+9], 0
  0013a	5a		 pop	 edx
$LL104@operator@2:
  0013b	81 30 ed ec eb
	ea		 xor	 DWORD PTR [eax], -353637139 ; eaebecedH
  00141	83 c0 04	 add	 eax, 4
  00144	4a		 dec	 edx
  00145	75 f4		 jne	 SHORT $LL104@operator@2
  00147	80 75 f4 ed	 xor	 BYTE PTR __t$[ebp+8], -19 ; ffffffedH
  0014b	56		 push	 esi
  0014c	8d 75 ec	 lea	 esi, DWORD PTR __t$[ebp]
  0014f	ff 15 00 00 00
	00		 call	 DWORD PTR __imp_?c_str@ioHashString@@QBEPBDXZ
$LL111@operator@2:
  00155	8a 08		 mov	 cl, BYTE PTR [eax]
  00157	3a 0e		 cmp	 cl, BYTE PTR [esi]
  00159	75 1a		 jne	 SHORT $LN112@operator@2
  0015b	84 c9		 test	 cl, cl
  0015d	74 12		 je	 SHORT $LN113@operator@2
  0015f	8a 48 01	 mov	 cl, BYTE PTR [eax+1]
  00162	3a 4e 01	 cmp	 cl, BYTE PTR [esi+1]
  00165	75 0e		 jne	 SHORT $LN112@operator@2
  00167	83 c0 02	 add	 eax, 2
  0016a	83 c6 02	 add	 esi, 2
  0016d	84 c9		 test	 cl, cl
  0016f	75 e4		 jne	 SHORT $LL111@operator@2
$LN113@operator@2:
  00171	33 c0		 xor	 eax, eax
  00173	eb 05		 jmp	 SHORT $LN114@operator@2
$LN112@operator@2:
  00175	1b c0		 sbb	 eax, eax
  00177	83 d8 ff	 sbb	 eax, -1
$LN114@operator@2:
  0017a	33 c9		 xor	 ecx, ecx
  0017c	85 c0		 test	 eax, eax
  0017e	0f 94 c0	 sete	 al

; 148  : }

  00181	8b 4d fc	 mov	 ecx, DWORD PTR __$ArrayPad$[ebp]
  00184	33 cd		 xor	 ecx, ebp
  00186	5e		 pop	 esi
  00187	e8 00 00 00 00	 call	 @__security_check_cookie@4
  0018c	c9		 leave
  0018d	c3		 ret	 0
??$?8$09@@YA_NABVioHashString@@AAY09$$CBD@Z ENDP	; operator==<10>
_TEXT	ENDS
PUBLIC	__$ArrayPad$
PUBLIC	??$?8$0L@@@YA_NABVioHashString@@AAY0L@$$CBD@Z	; operator==<11>
; Function compile flags: /Ogsp
;	COMDAT ??$?8$0L@@@YA_NABVioHashString@@AAY0L@$$CBD@Z
_TEXT	SEGMENT
__t$ = -20						; size = 11
__$ArrayPad$ = -4					; size = 4
_lhs$ = 8						; size = 4
_t$ = 12						; size = 4
??$?8$0L@@@YA_NABVioHashString@@AAY0L@$$CBD@Z PROC	; operator==<11>, COMDAT

; 146  : {

  00000	55		 push	 ebp
  00001	8b ec		 mov	 ebp, esp
  00003	83 ec 14	 sub	 esp, 20			; 00000014H
  00006	a1 00 00 00 00	 mov	 eax, DWORD PTR ___security_cookie
  0000b	33 c5		 xor	 eax, ebp
  0000d	89 45 fc	 mov	 DWORD PTR __$ArrayPad$[ebp], eax
  00010	8b 45 0c	 mov	 eax, DWORD PTR _t$[ebp]

; 147  : 	_ENCSTR(t, _t); return ( strcmp( lhs.c_str(), _t ) == 0 );

  00013	8a 10		 mov	 dl, BYTE PTR [eax]
  00015	56		 push	 esi
  00016	57		 push	 edi
  00017	8b 7d 08	 mov	 edi, DWORD PTR _lhs$[ebp]
  0001a	84 d2		 test	 dl, dl
  0001c	0f 84 24 01 00
	00		 je	 $LN96@operator@3
  00022	80 f2 ed	 xor	 dl, -19			; ffffffedH
  00025	88 55 ec	 mov	 BYTE PTR __t$[ebp], dl
  00028	8a 50 01	 mov	 dl, BYTE PTR [eax+1]
  0002b	84 d2		 test	 dl, dl
  0002d	0f 84 0d 01 00
	00		 je	 $LN95@operator@3
  00033	80 f2 ec	 xor	 dl, -20			; ffffffecH
  00036	88 55 ed	 mov	 BYTE PTR __t$[ebp+1], dl
  00039	8a 50 02	 mov	 dl, BYTE PTR [eax+2]
  0003c	84 d2		 test	 dl, dl
  0003e	0f 84 f6 00 00
	00		 je	 $LN94@operator@3
  00044	80 f2 eb	 xor	 dl, -21			; ffffffebH
  00047	88 55 ee	 mov	 BYTE PTR __t$[ebp+2], dl
  0004a	8a 50 03	 mov	 dl, BYTE PTR [eax+3]
  0004d	84 d2		 test	 dl, dl
  0004f	0f 84 df 00 00
	00		 je	 $LN93@operator@3
  00055	80 f2 ea	 xor	 dl, -22			; ffffffeaH
  00058	88 55 ef	 mov	 BYTE PTR __t$[ebp+3], dl
  0005b	8a 50 04	 mov	 dl, BYTE PTR [eax+4]
  0005e	84 d2		 test	 dl, dl
  00060	0f 84 c8 00 00
	00		 je	 $LN92@operator@3
  00066	80 f2 ed	 xor	 dl, -19			; ffffffedH
  00069	88 55 f0	 mov	 BYTE PTR __t$[ebp+4], dl
  0006c	8a 50 05	 mov	 dl, BYTE PTR [eax+5]
  0006f	84 d2		 test	 dl, dl
  00071	0f 84 b1 00 00
	00		 je	 $LN91@operator@3
  00077	80 f2 ec	 xor	 dl, -20			; ffffffecH
  0007a	88 55 f1	 mov	 BYTE PTR __t$[ebp+5], dl
  0007d	8a 50 06	 mov	 dl, BYTE PTR [eax+6]
  00080	84 d2		 test	 dl, dl
  00082	0f 84 9a 00 00
	00		 je	 $LN90@operator@3
  00088	80 f2 eb	 xor	 dl, -21			; ffffffebH
  0008b	88 55 f2	 mov	 BYTE PTR __t$[ebp+6], dl
  0008e	8a 50 07	 mov	 dl, BYTE PTR [eax+7]
  00091	84 d2		 test	 dl, dl
  00093	0f 84 83 00 00
	00		 je	 $LN89@operator@3
  00099	80 f2 ea	 xor	 dl, -22			; ffffffeaH
  0009c	88 55 f3	 mov	 BYTE PTR __t$[ebp+7], dl
  0009f	8a 50 08	 mov	 dl, BYTE PTR [eax+8]
  000a2	84 d2		 test	 dl, dl
  000a4	74 70		 je	 SHORT $LN88@operator@3
  000a6	80 f2 ed	 xor	 dl, -19			; ffffffedH
  000a9	88 55 f4	 mov	 BYTE PTR __t$[ebp+8], dl
  000ac	8a 50 09	 mov	 dl, BYTE PTR [eax+9]
  000af	84 d2		 test	 dl, dl
  000b1	74 5d		 je	 SHORT $LN87@operator@3
  000b3	80 f2 ec	 xor	 dl, -20			; ffffffecH
  000b6	80 78 0a 00	 cmp	 BYTE PTR [eax+10], 0
  000ba	88 55 f5	 mov	 BYTE PTR __t$[ebp+9], dl
  000bd	0f 84 87 00 00
	00		 je	 $LN1@operator@3
  000c3	8a 50 0b	 mov	 dl, BYTE PTR [eax+11]
  000c6	84 d2		 test	 dl, dl
  000c8	74 40		 je	 SHORT $LN85@operator@3
  000ca	80 f2 ea	 xor	 dl, -22			; ffffffeaH
  000cd	88 55 f7	 mov	 BYTE PTR __t$[ebp+11], dl
  000d0	8a 50 0c	 mov	 dl, BYTE PTR [eax+12]
  000d3	84 d2		 test	 dl, dl
  000d5	74 2d		 je	 SHORT $LN84@operator@3
  000d7	80 f2 ed	 xor	 dl, -19			; ffffffedH
  000da	88 55 f8	 mov	 BYTE PTR __t$[ebp+12], dl
  000dd	8a 50 0d	 mov	 dl, BYTE PTR [eax+13]
  000e0	84 d2		 test	 dl, dl
  000e2	74 1a		 je	 SHORT $LN83@operator@3
  000e4	8a 40 0e	 mov	 al, BYTE PTR [eax+14]
  000e7	80 f2 ec	 xor	 dl, -20			; ffffffecH
  000ea	88 55 f9	 mov	 BYTE PTR __t$[ebp+13], dl
  000ed	84 c0		 test	 al, al
  000ef	74 07		 je	 SHORT $LN82@operator@3
  000f1	34 eb		 xor	 al, -21			; ffffffebH
  000f3	88 45 fa	 mov	 BYTE PTR __t$[ebp+14], al
  000f6	eb 52		 jmp	 SHORT $LN1@operator@3
$LN82@operator@3:
  000f8	c6 45 fa eb	 mov	 BYTE PTR __t$[ebp+14], -21 ; ffffffebH
  000fc	eb 4c		 jmp	 SHORT $LN1@operator@3
$LN83@operator@3:
  000fe	c6 45 f9 ec	 mov	 BYTE PTR __t$[ebp+13], -20 ; ffffffecH
  00102	eb 46		 jmp	 SHORT $LN1@operator@3
$LN84@operator@3:
  00104	c6 45 f8 ed	 mov	 BYTE PTR __t$[ebp+12], -19 ; ffffffedH
  00108	eb 40		 jmp	 SHORT $LN1@operator@3
$LN85@operator@3:
  0010a	c6 45 f7 ea	 mov	 BYTE PTR __t$[ebp+11], -22 ; ffffffeaH
  0010e	eb 3a		 jmp	 SHORT $LN1@operator@3
$LN87@operator@3:
  00110	c6 45 f5 ec	 mov	 BYTE PTR __t$[ebp+9], -20 ; ffffffecH
  00114	eb 34		 jmp	 SHORT $LN1@operator@3
$LN88@operator@3:
  00116	c6 45 f4 ed	 mov	 BYTE PTR __t$[ebp+8], -19 ; ffffffedH
  0011a	eb 2e		 jmp	 SHORT $LN1@operator@3
$LN89@operator@3:
  0011c	c6 45 f3 ea	 mov	 BYTE PTR __t$[ebp+7], -22 ; ffffffeaH
  00120	eb 28		 jmp	 SHORT $LN1@operator@3
$LN90@operator@3:
  00122	c6 45 f2 eb	 mov	 BYTE PTR __t$[ebp+6], -21 ; ffffffebH
  00126	eb 22		 jmp	 SHORT $LN1@operator@3
$LN91@operator@3:
  00128	c6 45 f1 ec	 mov	 BYTE PTR __t$[ebp+5], -20 ; ffffffecH
  0012c	eb 1c		 jmp	 SHORT $LN1@operator@3
$LN92@operator@3:
  0012e	c6 45 f0 ed	 mov	 BYTE PTR __t$[ebp+4], -19 ; ffffffedH
  00132	eb 16		 jmp	 SHORT $LN1@operator@3
$LN93@operator@3:
  00134	c6 45 ef ea	 mov	 BYTE PTR __t$[ebp+3], -22 ; ffffffeaH
  00138	eb 10		 jmp	 SHORT $LN1@operator@3
$LN94@operator@3:
  0013a	c6 45 ee eb	 mov	 BYTE PTR __t$[ebp+2], -21 ; ffffffebH
  0013e	eb 0a		 jmp	 SHORT $LN1@operator@3
$LN95@operator@3:
  00140	c6 45 ed ec	 mov	 BYTE PTR __t$[ebp+1], -20 ; ffffffecH
  00144	eb 04		 jmp	 SHORT $LN1@operator@3
$LN96@operator@3:
  00146	c6 45 ec ed	 mov	 BYTE PTR __t$[ebp], -19	; ffffffedH
$LN1@operator@3:
  0014a	6a 02		 push	 2
  0014c	8d 45 ec	 lea	 eax, DWORD PTR __t$[ebp]
  0014f	c6 45 f6 00	 mov	 BYTE PTR __t$[ebp+10], 0
  00153	5a		 pop	 edx
$LL104@operator@3:
  00154	81 30 ed ec eb
	ea		 xor	 DWORD PTR [eax], -353637139 ; eaebecedH
  0015a	83 c0 04	 add	 eax, 4
  0015d	4a		 dec	 edx
  0015e	75 f4		 jne	 SHORT $LL104@operator@3
  00160	6a 08		 push	 8
  00162	58		 pop	 eax
$LL101@operator@3:
  00163	8b c8		 mov	 ecx, eax
  00165	81 e1 03 00 00
	80		 and	 ecx, -2147483645	; 80000003H
  0016b	79 05		 jns	 SHORT $LN115@operator@3
  0016d	49		 dec	 ecx
  0016e	83 c9 fc	 or	 ecx, -4			; fffffffcH
  00171	41		 inc	 ecx
$LN115@operator@3:
  00172	b2 ed		 mov	 dl, -19			; ffffffedH
  00174	2a d1		 sub	 dl, cl
  00176	30 54 05 ec	 xor	 BYTE PTR __t$[ebp+eax], dl
  0017a	40		 inc	 eax
  0017b	83 f8 0a	 cmp	 eax, 10			; 0000000aH
  0017e	7c e3		 jl	 SHORT $LL101@operator@3
  00180	8b cf		 mov	 ecx, edi
  00182	8d 75 ec	 lea	 esi, DWORD PTR __t$[ebp]
  00185	ff 15 00 00 00
	00		 call	 DWORD PTR __imp_?c_str@ioHashString@@QBEPBDXZ
$LL111@operator@3:
  0018b	8a 08		 mov	 cl, BYTE PTR [eax]
  0018d	3a 0e		 cmp	 cl, BYTE PTR [esi]
  0018f	75 1a		 jne	 SHORT $LN112@operator@3
  00191	84 c9		 test	 cl, cl
  00193	74 12		 je	 SHORT $LN113@operator@3
  00195	8a 48 01	 mov	 cl, BYTE PTR [eax+1]
  00198	3a 4e 01	 cmp	 cl, BYTE PTR [esi+1]
  0019b	75 0e		 jne	 SHORT $LN112@operator@3
  0019d	83 c0 02	 add	 eax, 2
  001a0	83 c6 02	 add	 esi, 2
  001a3	84 c9		 test	 cl, cl
  001a5	75 e4		 jne	 SHORT $LL111@operator@3
$LN113@operator@3:
  001a7	33 c0		 xor	 eax, eax
  001a9	eb 05		 jmp	 SHORT $LN114@operator@3
$LN112@operator@3:
  001ab	1b c0		 sbb	 eax, eax
  001ad	83 d8 ff	 sbb	 eax, -1
$LN114@operator@3:
  001b0	33 c9		 xor	 ecx, ecx
  001b2	85 c0		 test	 eax, eax
  001b4	0f 94 c0	 sete	 al

; 148  : }

  001b7	8b 4d fc	 mov	 ecx, DWORD PTR __$ArrayPad$[ebp]
  001ba	5f		 pop	 edi
  001bb	33 cd		 xor	 ecx, ebp
  001bd	5e		 pop	 esi
  001be	e8 00 00 00 00	 call	 @__security_check_cookie@4
  001c3	c9		 leave
  001c4	c3		 ret	 0
??$?8$0L@@@YA_NABVioHashString@@AAY0L@$$CBD@Z ENDP	; operator==<11>
_TEXT	ENDS
PUBLIC	??$construct@AAUSelectList@ModeMapSelectList@@@?$allocator@USelectList@ModeMapSelectList@@@std@@QAEXPAUSelectList@ModeMapSelectList@@AAU23@@Z ; std::allocator<ModeMapSelectList::SelectList>::construct<ModeMapSelectList::SelectList &>
;	COMDAT xdata$x
; File c:\program files (x86)\microsoft visual studio 10.0\vc\include\utility
xdata$x	SEGMENT
__unwindtable$??$construct@AAUSelectList@ModeMapSelectList@@@?$allocator@USelectList@ModeMapSelectList@@@std@@QAEXPAUSelectList@ModeMapSelectList@@AAU23@@Z DD 0ffffffffH
	DD	FLAT:__unwindfunclet$??$construct@AAUSelectList@ModeMapSelectList@@@?$allocator@USelectList@ModeMapSelectList@@@std@@QAEXPAUSelectList@ModeMapSelectList@@AAU23@@Z$0
__ehfuncinfo$??$construct@AAUSelectList@ModeMapSelectList@@@?$allocator@USelectList@ModeMapSelectList@@@std@@QAEXPAUSelectList@ModeMapSelectList@@AAU23@@Z DD 019930522H
	DD	01H
	DD	FLAT:__unwindtable$??$construct@AAUSelectList@ModeMapSelectList@@@?$allocator@USelectList@ModeMapSelectList@@@std@@QAEXPAUSelectList@ModeMapSelectList@@AAU23@@Z
	DD	2 DUP(00H)
	DD	2 DUP(00H)
	DD	00H
	DD	01H
; Function compile flags: /Ogsp
; File c:\program files (x86)\microsoft visual studio 10.0\vc\include\xmemory
xdata$x	ENDS
;	COMDAT ??$construct@AAUSelectList@ModeMapSelectList@@@?$allocator@USelectList@ModeMapSelectList@@@std@@QAEXPAUSelectList@ModeMapSelectList@@AAU23@@Z
_TEXT	SEGMENT
$T514322 = -16						; size = 4
__$EHRec$ = -12						; size = 12
__Ptr$ = 8						; size = 4
__Val$ = 12						; size = 4
??$construct@AAUSelectList@ModeMapSelectList@@@?$allocator@USelectList@ModeMapSelectList@@@std@@QAEXPAUSelectList@ModeMapSelectList@@AAU23@@Z PROC ; std::allocator<ModeMapSelectList::SelectList>::construct<ModeMapSelectList::SelectList &>, COMDAT
; _this$ = ecx

; 206  : 		void construct(pointer _Ptr, _Other&& _Val)

  00000	6a 04		 push	 4
  00002	b8 00 00 00 00	 mov	 eax, __ehhandler$??$construct@AAUSelectList@ModeMapSelectList@@@?$allocator@USelectList@ModeMapSelectList@@@std@@QAEXPAUSelectList@ModeMapSelectList@@AAU23@@Z
  00007	e8 00 00 00 00	 call	 __EH_prolog3

; 207  : 		{	// construct object at _Ptr with value _Val
; 208  : 		::new ((void _FARQ *)_Ptr) _Ty(_STD forward<_Other>(_Val));

  0000c	8b 4d 08	 mov	 ecx, DWORD PTR __Ptr$[ebp]
  0000f	89 4d f0	 mov	 DWORD PTR $T514322[ebp], ecx
  00012	83 65 fc 00	 and	 DWORD PTR __$EHRec$[ebp+8], 0
  00016	85 c9		 test	 ecx, ecx
  00018	74 08		 je	 SHORT $LN3@construct
  0001a	ff 75 0c	 push	 DWORD PTR __Val$[ebp]
  0001d	e8 00 00 00 00	 call	 ??0SelectList@ModeMapSelectList@@QAE@ABU01@@Z
$LN3@construct:

; 209  : 		}

  00022	e8 00 00 00 00	 call	 __EH_epilog3
  00027	c2 08 00	 ret	 8
_TEXT	ENDS
;	COMDAT text$x
text$x	SEGMENT
__unwindfunclet$??$construct@AAUSelectList@ModeMapSelectList@@@?$allocator@USelectList@ModeMapSelectList@@@std@@QAEXPAUSelectList@ModeMapSelectList@@AAU23@@Z$0:
  00000	ff 75 08	 push	 DWORD PTR __Ptr$[ebp]
  00003	ff 75 f0	 push	 DWORD PTR $T514322[ebp]
  00006	e8 00 00 00 00	 call	 ??3@YAXPAX0@Z		; operator delete
  0000b	59		 pop	 ecx
  0000c	59		 pop	 ecx
  0000d	c3		 ret	 0
__ehhandler$??$construct@AAUSelectList@ModeMapSelectList@@@?$allocator@USelectList@ModeMapSelectList@@@std@@QAEXPAUSelectList@ModeMapSelectList@@AAU23@@Z:
  0000e	8b 54 24 08	 mov	 edx, DWORD PTR [esp+8]
  00012	8d 42 0c	 lea	 eax, DWORD PTR [edx+12]
  00015	8b 4a ec	 mov	 ecx, DWORD PTR [edx-20]
  00018	33 c8		 xor	 ecx, eax
  0001a	e8 00 00 00 00	 call	 @__security_check_cookie@4
  0001f	b8 00 00 00 00	 mov	 eax, OFFSET __ehfuncinfo$??$construct@AAUSelectList@ModeMapSelectList@@@?$allocator@USelectList@ModeMapSelectList@@@std@@QAEXPAUSelectList@ModeMapSelectList@@AAU23@@Z
  00024	e9 00 00 00 00	 jmp	 ___CxxFrameHandler3
text$x	ENDS
??$construct@AAUSelectList@ModeMapSelectList@@@?$allocator@USelectList@ModeMapSelectList@@@std@@QAEXPAUSelectList@ModeMapSelectList@@AAU23@@Z ENDP ; std::allocator<ModeMapSelectList::SelectList>::construct<ModeMapSelectList::SelectList &>
PUBLIC	??$construct@AAUSelectList@CreateModeSelectList@@@?$allocator@USelectList@CreateModeSelectList@@@std@@QAEXPAUSelectList@CreateModeSelectList@@AAU23@@Z ; std::allocator<CreateModeSelectList::SelectList>::construct<CreateModeSelectList::SelectList &>
;	COMDAT xdata$x
; File c:\program files (x86)\microsoft visual studio 10.0\vc\include\utility
xdata$x	SEGMENT
__unwindtable$??$construct@AAUSelectList@CreateModeSelectList@@@?$allocator@USelectList@CreateModeSelectList@@@std@@QAEXPAUSelectList@CreateModeSelectList@@AAU23@@Z DD 0ffffffffH
	DD	FLAT:__unwindfunclet$??$construct@AAUSelectList@CreateModeSelectList@@@?$allocator@USelectList@CreateModeSelectList@@@std@@QAEXPAUSelectList@CreateModeSelectList@@AAU23@@Z$0
__ehfuncinfo$??$construct@AAUSelectList@CreateModeSelectList@@@?$allocator@USelectList@CreateModeSelectList@@@std@@QAEXPAUSelectList@CreateModeSelectList@@AAU23@@Z DD 019930522H
	DD	01H
	DD	FLAT:__unwindtable$??$construct@AAUSelectList@CreateModeSelectList@@@?$allocator@USelectList@CreateModeSelectList@@@std@@QAEXPAUSelectList@CreateModeSelectList@@AAU23@@Z
	DD	2 DUP(00H)
	DD	2 DUP(00H)
	DD	00H
	DD	01H
; Function compile flags: /Ogsp
; File c:\program files (x86)\microsoft visual studio 10.0\vc\include\xmemory
xdata$x	ENDS
;	COMDAT ??$construct@AAUSelectList@CreateModeSelectList@@@?$allocator@USelectList@CreateModeSelectList@@@std@@QAEXPAUSelectList@CreateModeSelectList@@AAU23@@Z
_TEXT	SEGMENT
$T514341 = -16						; size = 4
__$EHRec$ = -12						; size = 12
__Ptr$ = 8						; size = 4
__Val$ = 12						; size = 4
??$construct@AAUSelectList@CreateModeSelectList@@@?$allocator@USelectList@CreateModeSelectList@@@std@@QAEXPAUSelectList@CreateModeSelectList@@AAU23@@Z PROC ; std::allocator<CreateModeSelectList::SelectList>::construct<CreateModeSelectList::SelectList &>, COMDAT
; _this$ = ecx

; 206  : 		void construct(pointer _Ptr, _Other&& _Val)

  00000	6a 04		 push	 4
  00002	b8 00 00 00 00	 mov	 eax, __ehhandler$??$construct@AAUSelectList@CreateModeSelectList@@@?$allocator@USelectList@CreateModeSelectList@@@std@@QAEXPAUSelectList@CreateModeSelectList@@AAU23@@Z
  00007	e8 00 00 00 00	 call	 __EH_prolog3

; 207  : 		{	// construct object at _Ptr with value _Val
; 208  : 		::new ((void _FARQ *)_Ptr) _Ty(_STD forward<_Other>(_Val));

  0000c	8b 4d 08	 mov	 ecx, DWORD PTR __Ptr$[ebp]
  0000f	89 4d f0	 mov	 DWORD PTR $T514341[ebp], ecx
  00012	83 65 fc 00	 and	 DWORD PTR __$EHRec$[ebp+8], 0
  00016	85 c9		 test	 ecx, ecx
  00018	74 08		 je	 SHORT $LN3@construct@2
  0001a	ff 75 0c	 push	 DWORD PTR __Val$[ebp]
  0001d	e8 00 00 00 00	 call	 ??0SelectList@CreateModeSelectList@@QAE@ABU01@@Z
$LN3@construct@2:

; 209  : 		}

  00022	e8 00 00 00 00	 call	 __EH_epilog3
  00027	c2 08 00	 ret	 8
_TEXT	ENDS
;	COMDAT text$x
text$x	SEGMENT
__unwindfunclet$??$construct@AAUSelectList@CreateModeSelectList@@@?$allocator@USelectList@CreateModeSelectList@@@std@@QAEXPAUSelectList@CreateModeSelectList@@AAU23@@Z$0:
  00000	ff 75 08	 push	 DWORD PTR __Ptr$[ebp]
  00003	ff 75 f0	 push	 DWORD PTR $T514341[ebp]
  00006	e8 00 00 00 00	 call	 ??3@YAXPAX0@Z		; operator delete
  0000b	59		 pop	 ecx
  0000c	59		 pop	 ecx
  0000d	c3		 ret	 0
__ehhandler$??$construct@AAUSelectList@CreateModeSelectList@@@?$allocator@USelectList@CreateModeSelectList@@@std@@QAEXPAUSelectList@CreateModeSelectList@@AAU23@@Z:
  0000e	8b 54 24 08	 mov	 edx, DWORD PTR [esp+8]
  00012	8d 42 0c	 lea	 eax, DWORD PTR [edx+12]
  00015	8b 4a ec	 mov	 ecx, DWORD PTR [edx-20]
  00018	33 c8		 xor	 ecx, eax
  0001a	e8 00 00 00 00	 call	 @__security_check_cookie@4
  0001f	b8 00 00 00 00	 mov	 eax, OFFSET __ehfuncinfo$??$construct@AAUSelectList@CreateModeSelectList@@@?$allocator@USelectList@CreateModeSelectList@@@std@@QAEXPAUSelectList@CreateModeSelectList@@AAU23@@Z
  00024	e9 00 00 00 00	 jmp	 ___CxxFrameHandler3
text$x	ENDS
??$construct@AAUSelectList@CreateModeSelectList@@@?$allocator@USelectList@CreateModeSelectList@@@std@@QAEXPAUSelectList@CreateModeSelectList@@AAU23@@Z ENDP ; std::allocator<CreateModeSelectList::SelectList>::construct<CreateModeSelectList::SelectList &>
PUBLIC	??$_Move@PAUSelectList@ModeMapSelectList@@PAU12@@std@@YAPAUSelectList@ModeMapSelectList@@PAU12@00U_Nonscalar_ptr_iterator_tag@0@@Z ; std::_Move<ModeMapSelectList::SelectList *,ModeMapSelectList::SelectList *>
; Function compile flags: /Ogsp
; File c:\program files (x86)\microsoft visual studio 10.0\vc\include\xutility
;	COMDAT ??$_Move@PAUSelectList@ModeMapSelectList@@PAU12@@std@@YAPAUSelectList@ModeMapSelectList@@PAU12@00U_Nonscalar_ptr_iterator_tag@0@@Z
_TEXT	SEGMENT
__First$ = 8						; size = 4
__Last$ = 12						; size = 4
__Dest$ = 16						; size = 4
___formal$ = 20						; size = 1
??$_Move@PAUSelectList@ModeMapSelectList@@PAU12@@std@@YAPAUSelectList@ModeMapSelectList@@PAU12@00U_Nonscalar_ptr_iterator_tag@0@@Z PROC ; std::_Move<ModeMapSelectList::SelectList *,ModeMapSelectList::SelectList *>, COMDAT

; 2512 : 	{	// move [_First, _Last) to [_Dest, ...), arbitrary iterators

  00000	55		 push	 ebp
  00001	8b ec		 mov	 ebp, esp
  00003	56		 push	 esi

; 2513 : 	for (; _First != _Last; ++_Dest, ++_First)

  00004	8b 75 08	 mov	 esi, DWORD PTR __First$[ebp]
  00007	eb 10		 jmp	 SHORT $LN11@Move
$LL3@Move:

; 2514 : 		*_Dest = _STD move(*_First);

  00009	8b 4d 10	 mov	 ecx, DWORD PTR __Dest$[ebp]
  0000c	56		 push	 esi
  0000d	e8 00 00 00 00	 call	 ??4SelectList@ModeMapSelectList@@QAEAAU01@ABU01@@Z
  00012	83 45 10 24	 add	 DWORD PTR __Dest$[ebp], 36 ; 00000024H
  00016	83 c6 24	 add	 esi, 36			; 00000024H
$LN11@Move:

; 2513 : 	for (; _First != _Last; ++_Dest, ++_First)

  00019	3b 75 0c	 cmp	 esi, DWORD PTR __Last$[ebp]
  0001c	75 eb		 jne	 SHORT $LL3@Move

; 2515 : 	return (_Dest);

  0001e	8b 45 10	 mov	 eax, DWORD PTR __Dest$[ebp]
  00021	5e		 pop	 esi

; 2516 : 	}

  00022	5d		 pop	 ebp
  00023	c3		 ret	 0
??$_Move@PAUSelectList@ModeMapSelectList@@PAU12@@std@@YAPAUSelectList@ModeMapSelectList@@PAU12@00U_Nonscalar_ptr_iterator_tag@0@@Z ENDP ; std::_Move<ModeMapSelectList::SelectList *,ModeMapSelectList::SelectList *>
_TEXT	ENDS
PUBLIC	??$_Move@PAUSelectList@CreateModeSelectList@@PAU12@@std@@YAPAUSelectList@CreateModeSelectList@@PAU12@00U_Nonscalar_ptr_iterator_tag@0@@Z ; std::_Move<CreateModeSelectList::SelectList *,CreateModeSelectList::SelectList *>
; Function compile flags: /Ogsp
;	COMDAT ??$_Move@PAUSelectList@CreateModeSelectList@@PAU12@@std@@YAPAUSelectList@CreateModeSelectList@@PAU12@00U_Nonscalar_ptr_iterator_tag@0@@Z
_TEXT	SEGMENT
__First$ = 8						; size = 4
__Last$ = 12						; size = 4
__Dest$ = 16						; size = 4
___formal$ = 20						; size = 1
??$_Move@PAUSelectList@CreateModeSelectList@@PAU12@@std@@YAPAUSelectList@CreateModeSelectList@@PAU12@00U_Nonscalar_ptr_iterator_tag@0@@Z PROC ; std::_Move<CreateModeSelectList::SelectList *,CreateModeSelectList::SelectList *>, COMDAT

; 2512 : 	{	// move [_First, _Last) to [_Dest, ...), arbitrary iterators

  00000	55		 push	 ebp
  00001	8b ec		 mov	 ebp, esp
  00003	56		 push	 esi

; 2513 : 	for (; _First != _Last; ++_Dest, ++_First)

  00004	8b 75 08	 mov	 esi, DWORD PTR __First$[ebp]
  00007	eb 10		 jmp	 SHORT $LN11@Move@2
$LL3@Move@2:

; 2514 : 		*_Dest = _STD move(*_First);

  00009	8b 4d 10	 mov	 ecx, DWORD PTR __Dest$[ebp]
  0000c	56		 push	 esi
  0000d	e8 00 00 00 00	 call	 ??4SelectList@CreateModeSelectList@@QAEAAU01@ABU01@@Z
  00012	83 45 10 20	 add	 DWORD PTR __Dest$[ebp], 32 ; 00000020H
  00016	83 c6 20	 add	 esi, 32			; 00000020H
$LN11@Move@2:

; 2513 : 	for (; _First != _Last; ++_Dest, ++_First)

  00019	3b 75 0c	 cmp	 esi, DWORD PTR __Last$[ebp]
  0001c	75 eb		 jne	 SHORT $LL3@Move@2

; 2515 : 	return (_Dest);

  0001e	8b 45 10	 mov	 eax, DWORD PTR __Dest$[ebp]
  00021	5e		 pop	 esi

; 2516 : 	}

  00022	5d		 pop	 ebp
  00023	c3		 ret	 0
??$_Move@PAUSelectList@CreateModeSelectList@@PAU12@@std@@YAPAUSelectList@CreateModeSelectList@@PAU12@00U_Nonscalar_ptr_iterator_tag@0@@Z ENDP ; std::_Move<CreateModeSelectList::SelectList *,CreateModeSelectList::SelectList *>
_TEXT	ENDS
PUBLIC	??$_Construct@USelectList@ModeMapSelectList@@ABU12@@std@@YAXPAUSelectList@ModeMapSelectList@@ABU12@@Z ; std::_Construct<ModeMapSelectList::SelectList,ModeMapSelectList::SelectList const &>
;	COMDAT xdata$x
; File c:\program files (x86)\microsoft visual studio 10.0\vc\include\utility
xdata$x	SEGMENT
__unwindtable$??$_Construct@USelectList@ModeMapSelectList@@ABU12@@std@@YAXPAUSelectList@ModeMapSelectList@@ABU12@@Z DD 0ffffffffH
	DD	FLAT:__unwindfunclet$??$_Construct@USelectList@ModeMapSelectList@@ABU12@@std@@YAXPAUSelectList@ModeMapSelectList@@ABU12@@Z$0
__ehfuncinfo$??$_Construct@USelectList@ModeMapSelectList@@ABU12@@std@@YAXPAUSelectList@ModeMapSelectList@@ABU12@@Z DD 019930522H
	DD	01H
	DD	FLAT:__unwindtable$??$_Construct@USelectList@ModeMapSelectList@@ABU12@@std@@YAXPAUSelectList@ModeMapSelectList@@ABU12@@Z
	DD	2 DUP(00H)
	DD	2 DUP(00H)
	DD	00H
	DD	01H
; Function compile flags: /Ogsp
; File c:\program files (x86)\microsoft visual studio 10.0\vc\include\xmemory
xdata$x	ENDS
;	COMDAT ??$_Construct@USelectList@ModeMapSelectList@@ABU12@@std@@YAXPAUSelectList@ModeMapSelectList@@ABU12@@Z
_TEXT	SEGMENT
$T514378 = -16						; size = 4
__$EHRec$ = -12						; size = 12
__Vptr$ = 8						; size = 4
__Ptr$ = 8						; size = 4
__Val$ = 12						; size = 4
??$_Construct@USelectList@ModeMapSelectList@@ABU12@@std@@YAXPAUSelectList@ModeMapSelectList@@ABU12@@Z PROC ; std::_Construct<ModeMapSelectList::SelectList,ModeMapSelectList::SelectList const &>, COMDAT

; 46   : 	{	// construct object at _Ptr with value _Val

  00000	6a 04		 push	 4
  00002	b8 00 00 00 00	 mov	 eax, __ehhandler$??$_Construct@USelectList@ModeMapSelectList@@ABU12@@std@@YAXPAUSelectList@ModeMapSelectList@@ABU12@@Z
  00007	e8 00 00 00 00	 call	 __EH_prolog3

; 47   : 	void _FARQ *_Vptr = _Ptr;

  0000c	8b 4d 08	 mov	 ecx, DWORD PTR __Ptr$[ebp]
  0000f	89 4d 08	 mov	 DWORD PTR __Vptr$[ebp], ecx

; 48   : 	::new (_Vptr) _Ty1(_STD forward<_Ty2>(_Val));

  00012	89 4d f0	 mov	 DWORD PTR $T514378[ebp], ecx
  00015	83 65 fc 00	 and	 DWORD PTR __$EHRec$[ebp+8], 0
  00019	85 c9		 test	 ecx, ecx
  0001b	74 08		 je	 SHORT $LN3@Construct
  0001d	ff 75 0c	 push	 DWORD PTR __Val$[ebp]
  00020	e8 00 00 00 00	 call	 ??0SelectList@ModeMapSelectList@@QAE@ABU01@@Z
$LN3@Construct:

; 49   : 	}

  00025	e8 00 00 00 00	 call	 __EH_epilog3
  0002a	c3		 ret	 0
_TEXT	ENDS
;	COMDAT text$x
text$x	SEGMENT
__unwindfunclet$??$_Construct@USelectList@ModeMapSelectList@@ABU12@@std@@YAXPAUSelectList@ModeMapSelectList@@ABU12@@Z$0:
  00000	ff 75 08	 push	 DWORD PTR __Vptr$[ebp]
  00003	ff 75 f0	 push	 DWORD PTR $T514378[ebp]
  00006	e8 00 00 00 00	 call	 ??3@YAXPAX0@Z		; operator delete
  0000b	59		 pop	 ecx
  0000c	59		 pop	 ecx
  0000d	c3		 ret	 0
__ehhandler$??$_Construct@USelectList@ModeMapSelectList@@ABU12@@std@@YAXPAUSelectList@ModeMapSelectList@@ABU12@@Z:
  0000e	8b 54 24 08	 mov	 edx, DWORD PTR [esp+8]
  00012	8d 42 0c	 lea	 eax, DWORD PTR [edx+12]
  00015	8b 4a ec	 mov	 ecx, DWORD PTR [edx-20]
  00018	33 c8		 xor	 ecx, eax
  0001a	e8 00 00 00 00	 call	 @__security_check_cookie@4
  0001f	b8 00 00 00 00	 mov	 eax, OFFSET __ehfuncinfo$??$_Construct@USelectList@ModeMapSelectList@@ABU12@@std@@YAXPAUSelectList@ModeMapSelectList@@ABU12@@Z
  00024	e9 00 00 00 00	 jmp	 ___CxxFrameHandler3
text$x	ENDS
??$_Construct@USelectList@ModeMapSelectList@@ABU12@@std@@YAXPAUSelectList@ModeMapSelectList@@ABU12@@Z ENDP ; std::_Construct<ModeMapSelectList::SelectList,ModeMapSelectList::SelectList const &>
PUBLIC	??$_Construct@USelectList@CreateModeSelectList@@ABU12@@std@@YAXPAUSelectList@CreateModeSelectList@@ABU12@@Z ; std::_Construct<CreateModeSelectList::SelectList,CreateModeSelectList::SelectList const &>
;	COMDAT xdata$x
; File c:\program files (x86)\microsoft visual studio 10.0\vc\include\utility
xdata$x	SEGMENT
__unwindtable$??$_Construct@USelectList@CreateModeSelectList@@ABU12@@std@@YAXPAUSelectList@CreateModeSelectList@@ABU12@@Z DD 0ffffffffH
	DD	FLAT:__unwindfunclet$??$_Construct@USelectList@CreateModeSelectList@@ABU12@@std@@YAXPAUSelectList@CreateModeSelectList@@ABU12@@Z$0
__ehfuncinfo$??$_Construct@USelectList@CreateModeSelectList@@ABU12@@std@@YAXPAUSelectList@CreateModeSelectList@@ABU12@@Z DD 019930522H
	DD	01H
	DD	FLAT:__unwindtable$??$_Construct@USelectList@CreateModeSelectList@@ABU12@@std@@YAXPAUSelectList@CreateModeSelectList@@ABU12@@Z
	DD	2 DUP(00H)
	DD	2 DUP(00H)
	DD	00H
	DD	01H
; Function compile flags: /Ogsp
; File c:\program files (x86)\microsoft visual studio 10.0\vc\include\xmemory
xdata$x	ENDS
;	COMDAT ??$_Construct@USelectList@CreateModeSelectList@@ABU12@@std@@YAXPAUSelectList@CreateModeSelectList@@ABU12@@Z
_TEXT	SEGMENT
$T514397 = -16						; size = 4
__$EHRec$ = -12						; size = 12
__Vptr$ = 8						; size = 4
__Ptr$ = 8						; size = 4
__Val$ = 12						; size = 4
??$_Construct@USelectList@CreateModeSelectList@@ABU12@@std@@YAXPAUSelectList@CreateModeSelectList@@ABU12@@Z PROC ; std::_Construct<CreateModeSelectList::SelectList,CreateModeSelectList::SelectList const &>, COMDAT

; 46   : 	{	// construct object at _Ptr with value _Val

  00000	6a 04		 push	 4
  00002	b8 00 00 00 00	 mov	 eax, __ehhandler$??$_Construct@USelectList@CreateModeSelectList@@ABU12@@std@@YAXPAUSelectList@CreateModeSelectList@@ABU12@@Z
  00007	e8 00 00 00 00	 call	 __EH_prolog3

; 47   : 	void _FARQ *_Vptr = _Ptr;

  0000c	8b 4d 08	 mov	 ecx, DWORD PTR __Ptr$[ebp]
  0000f	89 4d 08	 mov	 DWORD PTR __Vptr$[ebp], ecx

; 48   : 	::new (_Vptr) _Ty1(_STD forward<_Ty2>(_Val));

  00012	89 4d f0	 mov	 DWORD PTR $T514397[ebp], ecx
  00015	83 65 fc 00	 and	 DWORD PTR __$EHRec$[ebp+8], 0
  00019	85 c9		 test	 ecx, ecx
  0001b	74 08		 je	 SHORT $LN3@Construct@2
  0001d	ff 75 0c	 push	 DWORD PTR __Val$[ebp]
  00020	e8 00 00 00 00	 call	 ??0SelectList@CreateModeSelectList@@QAE@ABU01@@Z
$LN3@Construct@2:

; 49   : 	}

  00025	e8 00 00 00 00	 call	 __EH_epilog3
  0002a	c3		 ret	 0
_TEXT	ENDS
;	COMDAT text$x
text$x	SEGMENT
__unwindfunclet$??$_Construct@USelectList@CreateModeSelectList@@ABU12@@std@@YAXPAUSelectList@CreateModeSelectList@@ABU12@@Z$0:
  00000	ff 75 08	 push	 DWORD PTR __Vptr$[ebp]
  00003	ff 75 f0	 push	 DWORD PTR $T514397[ebp]
  00006	e8 00 00 00 00	 call	 ??3@YAXPAX0@Z		; operator delete
  0000b	59		 pop	 ecx
  0000c	59		 pop	 ecx
  0000d	c3		 ret	 0
__ehhandler$??$_Construct@USelectList@CreateModeSelectList@@ABU12@@std@@YAXPAUSelectList@CreateModeSelectList@@ABU12@@Z:
  0000e	8b 54 24 08	 mov	 edx, DWORD PTR [esp+8]
  00012	8d 42 0c	 lea	 eax, DWORD PTR [edx+12]
  00015	8b 4a ec	 mov	 ecx, DWORD PTR [edx-20]
  00018	33 c8		 xor	 ecx, eax
  0001a	e8 00 00 00 00	 call	 @__security_check_cookie@4
  0001f	b8 00 00 00 00	 mov	 eax, OFFSET __ehfuncinfo$??$_Construct@USelectList@CreateModeSelectList@@ABU12@@std@@YAXPAUSelectList@CreateModeSelectList@@ABU12@@Z
  00024	e9 00 00 00 00	 jmp	 ___CxxFrameHandler3
text$x	ENDS
??$_Construct@USelectList@CreateModeSelectList@@ABU12@@std@@YAXPAUSelectList@CreateModeSelectList@@ABU12@@Z ENDP ; std::_Construct<CreateModeSelectList::SelectList,CreateModeSelectList::SelectList const &>
PUBLIC	??$_Destroy@USelectList@ModeMapSelectList@@@std@@YAXPAUSelectList@ModeMapSelectList@@@Z ; std::_Destroy<ModeMapSelectList::SelectList>
; Function compile flags: /Ogsp
;	COMDAT ??$_Destroy@USelectList@ModeMapSelectList@@@std@@YAXPAUSelectList@ModeMapSelectList@@@Z
_TEXT	SEGMENT
__Ptr$ = 8						; size = 4
??$_Destroy@USelectList@ModeMapSelectList@@@std@@YAXPAUSelectList@ModeMapSelectList@@@Z PROC ; std::_Destroy<ModeMapSelectList::SelectList>, COMDAT

; 62   : 	{	// destroy object at _Ptr

  00000	55		 push	 ebp
  00001	8b ec		 mov	 ebp, esp

; 63   : 	_Ptr->~_Ty();

  00003	8b 4d 08	 mov	 ecx, DWORD PTR __Ptr$[ebp]
  00006	83 c1 10	 add	 ecx, 16			; 00000010H

; 64   : 	}

  00009	5d		 pop	 ebp

; 63   : 	_Ptr->~_Ty();

  0000a	ff 25 00 00 00
	00		 jmp	 DWORD PTR __imp_??1ioHashString@@QAE@XZ
??$_Destroy@USelectList@ModeMapSelectList@@@std@@YAXPAUSelectList@ModeMapSelectList@@@Z ENDP ; std::_Destroy<ModeMapSelectList::SelectList>
_TEXT	ENDS
PUBLIC	??$_Destroy@USelectList@CreateModeSelectList@@@std@@YAXPAUSelectList@CreateModeSelectList@@@Z ; std::_Destroy<CreateModeSelectList::SelectList>
; Function compile flags: /Ogsp
;	COMDAT ??$_Destroy@USelectList@CreateModeSelectList@@@std@@YAXPAUSelectList@CreateModeSelectList@@@Z
_TEXT	SEGMENT
__Ptr$ = 8						; size = 4
??$_Destroy@USelectList@CreateModeSelectList@@@std@@YAXPAUSelectList@CreateModeSelectList@@@Z PROC ; std::_Destroy<CreateModeSelectList::SelectList>, COMDAT

; 62   : 	{	// destroy object at _Ptr

  00000	55		 push	 ebp
  00001	8b ec		 mov	 ebp, esp

; 63   : 	_Ptr->~_Ty();

  00003	8b 4d 08	 mov	 ecx, DWORD PTR __Ptr$[ebp]
  00006	83 c1 0c	 add	 ecx, 12			; 0000000cH

; 64   : 	}

  00009	5d		 pop	 ebp

; 63   : 	_Ptr->~_Ty();

  0000a	ff 25 00 00 00
	00		 jmp	 DWORD PTR __imp_??1ioHashString@@QAE@XZ
??$_Destroy@USelectList@CreateModeSelectList@@@std@@YAXPAUSelectList@CreateModeSelectList@@@Z ENDP ; std::_Destroy<CreateModeSelectList::SelectList>
_TEXT	ENDS
PUBLIC	?construct@?$allocator@USelectList@ModeMapSelectList@@@std@@QAEXPAUSelectList@ModeMapSelectList@@$$QAU34@@Z ; std::allocator<ModeMapSelectList::SelectList>::construct
;	COMDAT xdata$x
; File c:\program files (x86)\microsoft visual studio 10.0\vc\include\utility
xdata$x	SEGMENT
__unwindtable$?construct@?$allocator@USelectList@ModeMapSelectList@@@std@@QAEXPAUSelectList@ModeMapSelectList@@$$QAU34@@Z DD 0ffffffffH
	DD	FLAT:__unwindfunclet$?construct@?$allocator@USelectList@ModeMapSelectList@@@std@@QAEXPAUSelectList@ModeMapSelectList@@$$QAU34@@Z$0
__ehfuncinfo$?construct@?$allocator@USelectList@ModeMapSelectList@@@std@@QAEXPAUSelectList@ModeMapSelectList@@$$QAU34@@Z DD 019930522H
	DD	01H
	DD	FLAT:__unwindtable$?construct@?$allocator@USelectList@ModeMapSelectList@@@std@@QAEXPAUSelectList@ModeMapSelectList@@$$QAU34@@Z
	DD	2 DUP(00H)
	DD	2 DUP(00H)
	DD	00H
	DD	01H
; Function compile flags: /Ogsp
; File c:\program files (x86)\microsoft visual studio 10.0\vc\include\xmemory
xdata$x	ENDS
;	COMDAT ?construct@?$allocator@USelectList@ModeMapSelectList@@@std@@QAEXPAUSelectList@ModeMapSelectList@@$$QAU34@@Z
_TEXT	SEGMENT
$T514442 = -16						; size = 4
__$EHRec$ = -12						; size = 12
__Ptr$ = 8						; size = 4
__Val$ = 12						; size = 4
?construct@?$allocator@USelectList@ModeMapSelectList@@@std@@QAEXPAUSelectList@ModeMapSelectList@@$$QAU34@@Z PROC ; std::allocator<ModeMapSelectList::SelectList>::construct, COMDAT
; _this$ = ecx

; 201  : 		{	// construct object at _Ptr with value _Val

  00000	6a 04		 push	 4
  00002	b8 00 00 00 00	 mov	 eax, __ehhandler$?construct@?$allocator@USelectList@ModeMapSelectList@@@std@@QAEXPAUSelectList@ModeMapSelectList@@$$QAU34@@Z
  00007	e8 00 00 00 00	 call	 __EH_prolog3

; 202  : 		::new ((void _FARQ *)_Ptr) _Ty(_STD forward<_Ty>(_Val));

  0000c	8b 4d 08	 mov	 ecx, DWORD PTR __Ptr$[ebp]
  0000f	89 4d f0	 mov	 DWORD PTR $T514442[ebp], ecx
  00012	83 65 fc 00	 and	 DWORD PTR __$EHRec$[ebp+8], 0
  00016	85 c9		 test	 ecx, ecx
  00018	74 08		 je	 SHORT $LN3@construct@3
  0001a	ff 75 0c	 push	 DWORD PTR __Val$[ebp]
  0001d	e8 00 00 00 00	 call	 ??0SelectList@ModeMapSelectList@@QAE@ABU01@@Z
$LN3@construct@3:

; 203  : 		}

  00022	e8 00 00 00 00	 call	 __EH_epilog3
  00027	c2 08 00	 ret	 8
_TEXT	ENDS
;	COMDAT text$x
text$x	SEGMENT
__unwindfunclet$?construct@?$allocator@USelectList@ModeMapSelectList@@@std@@QAEXPAUSelectList@ModeMapSelectList@@$$QAU34@@Z$0:
  00000	ff 75 08	 push	 DWORD PTR __Ptr$[ebp]
  00003	ff 75 f0	 push	 DWORD PTR $T514442[ebp]
  00006	e8 00 00 00 00	 call	 ??3@YAXPAX0@Z		; operator delete
  0000b	59		 pop	 ecx
  0000c	59		 pop	 ecx
  0000d	c3		 ret	 0
__ehhandler$?construct@?$allocator@USelectList@ModeMapSelectList@@@std@@QAEXPAUSelectList@ModeMapSelectList@@$$QAU34@@Z:
  0000e	8b 54 24 08	 mov	 edx, DWORD PTR [esp+8]
  00012	8d 42 0c	 lea	 eax, DWORD PTR [edx+12]
  00015	8b 4a ec	 mov	 ecx, DWORD PTR [edx-20]
  00018	33 c8		 xor	 ecx, eax
  0001a	e8 00 00 00 00	 call	 @__security_check_cookie@4
  0001f	b8 00 00 00 00	 mov	 eax, OFFSET __ehfuncinfo$?construct@?$allocator@USelectList@ModeMapSelectList@@@std@@QAEXPAUSelectList@ModeMapSelectList@@$$QAU34@@Z
  00024	e9 00 00 00 00	 jmp	 ___CxxFrameHandler3
text$x	ENDS
?construct@?$allocator@USelectList@ModeMapSelectList@@@std@@QAEXPAUSelectList@ModeMapSelectList@@$$QAU34@@Z ENDP ; std::allocator<ModeMapSelectList::SelectList>::construct
PUBLIC	?construct@?$allocator@USelectList@CreateModeSelectList@@@std@@QAEXPAUSelectList@CreateModeSelectList@@$$QAU34@@Z ; std::allocator<CreateModeSelectList::SelectList>::construct
;	COMDAT xdata$x
; File c:\program files (x86)\microsoft visual studio 10.0\vc\include\utility
xdata$x	SEGMENT
__unwindtable$?construct@?$allocator@USelectList@CreateModeSelectList@@@std@@QAEXPAUSelectList@CreateModeSelectList@@$$QAU34@@Z DD 0ffffffffH
	DD	FLAT:__unwindfunclet$?construct@?$allocator@USelectList@CreateModeSelectList@@@std@@QAEXPAUSelectList@CreateModeSelectList@@$$QAU34@@Z$0
__ehfuncinfo$?construct@?$allocator@USelectList@CreateModeSelectList@@@std@@QAEXPAUSelectList@CreateModeSelectList@@$$QAU34@@Z DD 019930522H
	DD	01H
	DD	FLAT:__unwindtable$?construct@?$allocator@USelectList@CreateModeSelectList@@@std@@QAEXPAUSelectList@CreateModeSelectList@@$$QAU34@@Z
	DD	2 DUP(00H)
	DD	2 DUP(00H)
	DD	00H
	DD	01H
; Function compile flags: /Ogsp
; File c:\program files (x86)\microsoft visual studio 10.0\vc\include\xmemory
xdata$x	ENDS
;	COMDAT ?construct@?$allocator@USelectList@CreateModeSelectList@@@std@@QAEXPAUSelectList@CreateModeSelectList@@$$QAU34@@Z
_TEXT	SEGMENT
$T514461 = -16						; size = 4
__$EHRec$ = -12						; size = 12
__Ptr$ = 8						; size = 4
__Val$ = 12						; size = 4
?construct@?$allocator@USelectList@CreateModeSelectList@@@std@@QAEXPAUSelectList@CreateModeSelectList@@$$QAU34@@Z PROC ; std::allocator<CreateModeSelectList::SelectList>::construct, COMDAT
; _this$ = ecx

; 201  : 		{	// construct object at _Ptr with value _Val

  00000	6a 04		 push	 4
  00002	b8 00 00 00 00	 mov	 eax, __ehhandler$?construct@?$allocator@USelectList@CreateModeSelectList@@@std@@QAEXPAUSelectList@CreateModeSelectList@@$$QAU34@@Z
  00007	e8 00 00 00 00	 call	 __EH_prolog3

; 202  : 		::new ((void _FARQ *)_Ptr) _Ty(_STD forward<_Ty>(_Val));

  0000c	8b 4d 08	 mov	 ecx, DWORD PTR __Ptr$[ebp]
  0000f	89 4d f0	 mov	 DWORD PTR $T514461[ebp], ecx
  00012	83 65 fc 00	 and	 DWORD PTR __$EHRec$[ebp+8], 0
  00016	85 c9		 test	 ecx, ecx
  00018	74 08		 je	 SHORT $LN3@construct@4
  0001a	ff 75 0c	 push	 DWORD PTR __Val$[ebp]
  0001d	e8 00 00 00 00	 call	 ??0SelectList@CreateModeSelectList@@QAE@ABU01@@Z
$LN3@construct@4:

; 203  : 		}

  00022	e8 00 00 00 00	 call	 __EH_epilog3
  00027	c2 08 00	 ret	 8
_TEXT	ENDS
;	COMDAT text$x
text$x	SEGMENT
__unwindfunclet$?construct@?$allocator@USelectList@CreateModeSelectList@@@std@@QAEXPAUSelectList@CreateModeSelectList@@$$QAU34@@Z$0:
  00000	ff 75 08	 push	 DWORD PTR __Ptr$[ebp]
  00003	ff 75 f0	 push	 DWORD PTR $T514461[ebp]
  00006	e8 00 00 00 00	 call	 ??3@YAXPAX0@Z		; operator delete
  0000b	59		 pop	 ecx
  0000c	59		 pop	 ecx
  0000d	c3		 ret	 0
__ehhandler$?construct@?$allocator@USelectList@CreateModeSelectList@@@std@@QAEXPAUSelectList@CreateModeSelectList@@$$QAU34@@Z:
  0000e	8b 54 24 08	 mov	 edx, DWORD PTR [esp+8]
  00012	8d 42 0c	 lea	 eax, DWORD PTR [edx+12]
  00015	8b 4a ec	 mov	 ecx, DWORD PTR [edx-20]
  00018	33 c8		 xor	 ecx, eax
  0001a	e8 00 00 00 00	 call	 @__security_check_cookie@4
  0001f	b8 00 00 00 00	 mov	 eax, OFFSET __ehfuncinfo$?construct@?$allocator@USelectList@CreateModeSelectList@@@std@@QAEXPAUSelectList@CreateModeSelectList@@$$QAU34@@Z
  00024	e9 00 00 00 00	 jmp	 ___CxxFrameHandler3
text$x	ENDS
?construct@?$allocator@USelectList@CreateModeSelectList@@@std@@QAEXPAUSelectList@CreateModeSelectList@@$$QAU34@@Z ENDP ; std::allocator<CreateModeSelectList::SelectList>::construct
PUBLIC	_xElement$GSCopy$
PUBLIC	__$ArrayPad$
PUBLIC	?ParseExtraInfo@ModeMapSelectList@@UAEXAAVioXMLElement@@@Z ; ModeMapSelectList::ParseExtraInfo
; Function compile flags: /Ogsp
; File d:\lost saga for developer\youtube\tutorial\source\src\lsclient\gui\modemapselectlist.cpp
;	COMDAT ?ParseExtraInfo@ModeMapSelectList@@UAEXAAVioXMLElement@@@Z
_TEXT	SEGMENT
_xElement$GSCopy$ = -28					; size = 4
__k$515257 = -24					; size = 16
__k$515507 = -20					; size = 12
__k$515369 = -20					; size = 9
__k$515132 = -20					; size = 12
__k$514994 = -20					; size = 10
__k$514619 = -20					; size = 10
__k$514494 = -20					; size = 9
__k$514869 = -16					; size = 6
__k$514744 = -16					; size = 6
__$ArrayPad$ = -4					; size = 4
_xElement$ = 8						; size = 4
?ParseExtraInfo@ModeMapSelectList@@UAEXAAVioXMLElement@@@Z PROC ; ModeMapSelectList::ParseExtraInfo, COMDAT
; _this$ = ecx

; 67   : {

  00000	55		 push	 ebp
  00001	8b ec		 mov	 ebp, esp
  00003	83 ec 1c	 sub	 esp, 28			; 0000001cH
  00006	a1 00 00 00 00	 mov	 eax, DWORD PTR ___security_cookie
  0000b	33 c5		 xor	 eax, ebp
  0000d	89 45 fc	 mov	 DWORD PTR __$ArrayPad$[ebp], eax
  00010	53		 push	 ebx
  00011	56		 push	 esi
  00012	57		 push	 edi
  00013	8b f9		 mov	 edi, ecx
  00015	8b 4d 08	 mov	 ecx, DWORD PTR _xElement$[ebp]

; 68   : 	m_iAddWidth	= xElement.GetIntAttribute_e( "AddWidth" );

  00018	6a 02		 push	 2

; 76   : 	m_iMaxPageList = xElement.GetIntAttribute_e( "MaxPageList" );

  0001a	89 4d e4	 mov	 DWORD PTR _xElement$GSCopy$[ebp], ecx
  0001d	c7 45 ec ac 88
	8f bd		 mov	 DWORD PTR __k$514494[ebp], -1114666836 ; bd8f88acH
  00024	c7 45 f0 84 88
	9f 82		 mov	 DWORD PTR __k$514494[ebp+4], -2103474044 ; 829f8884H
  0002b	8d 45 ec	 lea	 eax, DWORD PTR __k$514494[ebp]
  0002e	c6 45 f4 00	 mov	 BYTE PTR __k$514494[ebp+8], 0
  00032	5a		 pop	 edx
  00033	bb ed ec eb ea	 mov	 ebx, -353637139		; eaebecedH
$LL106@ParseExtra:

; 68   : 	m_iAddWidth	= xElement.GetIntAttribute_e( "AddWidth" );

  00038	31 18		 xor	 DWORD PTR [eax], ebx
  0003a	83 c0 04	 add	 eax, 4
  0003d	4a		 dec	 edx
  0003e	75 f8		 jne	 SHORT $LL106@ParseExtra
  00040	8b 35 00 00 00
	00		 mov	 esi, DWORD PTR __imp_?GetIntAttribute@ioXMLElement@@QBEHPBD@Z
  00046	8d 45 ec	 lea	 eax, DWORD PTR __k$514494[ebp]
  00049	50		 push	 eax
  0004a	ff d6		 call	 esi
  0004c	6a 02		 push	 2
  0004e	89 87 74 01 00
	00		 mov	 DWORD PTR [edi+372], eax

; 69   : 	m_iAddHeight= xElement.GetIntAttribute_e( "AddHeight" );

  00054	c7 45 ec ac 88
	8f a2		 mov	 DWORD PTR __k$514619[ebp], -1567651668 ; a28f88acH
  0005b	c7 45 f0 88 85
	8c 82		 mov	 DWORD PTR __k$514619[ebp+4], -2104719992 ; 828c8588H
  00062	8d 45 ec	 lea	 eax, DWORD PTR __k$514619[ebp]
  00065	66 c7 45 f4 99
	00		 mov	 WORD PTR __k$514619[ebp+8], 153 ; 00000099H
  0006b	59		 pop	 ecx
$LL212@ParseExtra:
  0006c	31 18		 xor	 DWORD PTR [eax], ebx
  0006e	83 c0 04	 add	 eax, 4
  00071	49		 dec	 ecx
  00072	75 f8		 jne	 SHORT $LL212@ParseExtra
  00074	8b 4d e4	 mov	 ecx, DWORD PTR _xElement$GSCopy$[ebp]
  00077	80 75 f4 ed	 xor	 BYTE PTR __k$514619[ebp+8], -19 ; ffffffedH
  0007b	8d 45 ec	 lea	 eax, DWORD PTR __k$514619[ebp]
  0007e	50		 push	 eax
  0007f	ff d6		 call	 esi

; 70   : 	m_iListXPos = xElement.GetIntAttribute_e( "ListX" );

  00081	8b 4d e4	 mov	 ecx, DWORD PTR _xElement$GSCopy$[ebp]
  00084	89 87 78 01 00
	00		 mov	 DWORD PTR [edi+376], eax
  0008a	8d 45 f0	 lea	 eax, DWORD PTR __k$514744[ebp]
  0008d	c7 45 f0 a1 85
	98 9e		 mov	 DWORD PTR __k$514744[ebp], -1634171487 ; 9e9885a1H
  00094	31 5d f0	 xor	 DWORD PTR __k$514744[ebp], ebx
  00097	50		 push	 eax
  00098	66 c7 45 f4 58
	00		 mov	 WORD PTR __k$514744[ebp+4], 88 ; 00000058H
  0009e	ff d6		 call	 esi

; 71   : 	m_iListYPos = xElement.GetIntAttribute_e( "ListY" );

  000a0	8b 4d e4	 mov	 ecx, DWORD PTR _xElement$GSCopy$[ebp]
  000a3	89 87 7c 01 00
	00		 mov	 DWORD PTR [edi+380], eax
  000a9	8d 45 f0	 lea	 eax, DWORD PTR __k$514869[ebp]
  000ac	c7 45 f0 a1 85
	98 9e		 mov	 DWORD PTR __k$514869[ebp], -1634171487 ; 9e9885a1H
  000b3	31 5d f0	 xor	 DWORD PTR __k$514869[ebp], ebx
  000b6	50		 push	 eax
  000b7	66 c7 45 f4 59
	00		 mov	 WORD PTR __k$514869[ebp+4], 89 ; 00000059H
  000bd	ff d6		 call	 esi
  000bf	6a 02		 push	 2
  000c1	89 87 80 01 00
	00		 mov	 DWORD PTR [edi+384], eax

; 72   : 	m_iHeightGap= xElement.GetIntAttribute_e( "HeightGap" );

  000c7	c7 45 ec a5 89
	82 8d		 mov	 DWORD PTR __k$514994[ebp], -1920824923 ; 8d8289a5H
  000ce	c7 45 f0 85 98
	ac 8b		 mov	 DWORD PTR __k$514994[ebp+4], -1951623035 ; 8bac9885H
  000d5	8d 45 ec	 lea	 eax, DWORD PTR __k$514994[ebp]
  000d8	66 c7 45 f4 9d
	00		 mov	 WORD PTR __k$514994[ebp+8], 157 ; 0000009dH
  000de	59		 pop	 ecx
$LL530@ParseExtra:
  000df	31 18		 xor	 DWORD PTR [eax], ebx
  000e1	83 c0 04	 add	 eax, 4
  000e4	49		 dec	 ecx
  000e5	75 f8		 jne	 SHORT $LL530@ParseExtra
  000e7	8b 4d e4	 mov	 ecx, DWORD PTR _xElement$GSCopy$[ebp]
  000ea	80 75 f4 ed	 xor	 BYTE PTR __k$514994[ebp+8], -19 ; ffffffedH
  000ee	8d 45 ec	 lea	 eax, DWORD PTR __k$514994[ebp]
  000f1	50		 push	 eax
  000f2	ff d6		 call	 esi
  000f4	6a 02		 push	 2
  000f6	89 87 84 01 00
	00		 mov	 DWORD PTR [edi+388], eax

; 73   : 	m_iManualMarkX = xElement.GetIntAttribute_e( "ManualMarkX" );

  000fc	c7 45 ec a0 8d
	85 9f		 mov	 DWORD PTR __k$515132[ebp], -1618637408 ; 9f858da0H
  00103	c7 45 f0 8c 80
	a6 8b		 mov	 DWORD PTR __k$515132[ebp+4], -1952022388 ; 8ba6808cH
  0010a	8d 45 ec	 lea	 eax, DWORD PTR __k$515132[ebp]
  0010d	c7 45 f4 9f 87
	b3 00		 mov	 DWORD PTR __k$515132[ebp+8], 11765663 ; 00b3879fH
  00114	59		 pop	 ecx
$LL636@ParseExtra:
  00115	31 18		 xor	 DWORD PTR [eax], ebx
  00117	83 c0 04	 add	 eax, 4
  0011a	49		 dec	 ecx
  0011b	75 f8		 jne	 SHORT $LL636@ParseExtra
  0011d	6a 08		 push	 8
  0011f	58		 pop	 eax
$LL633@ParseExtra:
  00120	8b c8		 mov	 ecx, eax
  00122	81 e1 03 00 00
	80		 and	 ecx, -2147483645	; 80000003H
  00128	79 05		 jns	 SHORT $LN993@ParseExtra
  0012a	49		 dec	 ecx
  0012b	83 c9 fc	 or	 ecx, -4			; fffffffcH
  0012e	41		 inc	 ecx
$LN993@ParseExtra:
  0012f	b2 ed		 mov	 dl, -19			; ffffffedH
  00131	2a d1		 sub	 dl, cl
  00133	30 54 05 ec	 xor	 BYTE PTR __k$515132[ebp+eax], dl
  00137	40		 inc	 eax
  00138	83 f8 0b	 cmp	 eax, 11			; 0000000bH
  0013b	7c e3		 jl	 SHORT $LL633@ParseExtra
  0013d	8b 4d e4	 mov	 ecx, DWORD PTR _xElement$GSCopy$[ebp]
  00140	8d 45 ec	 lea	 eax, DWORD PTR __k$515132[ebp]
  00143	50		 push	 eax
  00144	ff d6		 call	 esi
  00146	6a 03		 push	 3
  00148	89 87 98 01 00
	00		 mov	 DWORD PTR [edi+408], eax

; 74   : 	m_iManualMarkWidth = xElement.GetIntAttribute_e( "ManualMarkWidth" );

  0014e	c7 45 e8 a0 8d
	85 9f		 mov	 DWORD PTR __k$515257[ebp], -1618637408 ; 9f858da0H
  00155	c7 45 ec 8c 80
	a6 8b		 mov	 DWORD PTR __k$515257[ebp+4], -1952022388 ; 8ba6808cH
  0015c	c7 45 f0 9f 87
	bc 83		 mov	 DWORD PTR __k$515257[ebp+8], -2084796513 ; 83bc879fH
  00163	8d 45 e8	 lea	 eax, DWORD PTR __k$515257[ebp]
  00166	c7 45 f4 89 98
	83 00		 mov	 DWORD PTR __k$515257[ebp+12], 8624265 ; 00839889H
  0016d	59		 pop	 ecx
$LL742@ParseExtra:
  0016e	31 18		 xor	 DWORD PTR [eax], ebx
  00170	83 c0 04	 add	 eax, 4
  00173	49		 dec	 ecx
  00174	75 f8		 jne	 SHORT $LL742@ParseExtra
  00176	6a 0c		 push	 12			; 0000000cH
  00178	58		 pop	 eax
$LL739@ParseExtra:
  00179	8b c8		 mov	 ecx, eax
  0017b	81 e1 03 00 00
	80		 and	 ecx, -2147483645	; 80000003H
  00181	79 05		 jns	 SHORT $LN994@ParseExtra
  00183	49		 dec	 ecx
  00184	83 c9 fc	 or	 ecx, -4			; fffffffcH
  00187	41		 inc	 ecx
$LN994@ParseExtra:
  00188	b2 ed		 mov	 dl, -19			; ffffffedH
  0018a	2a d1		 sub	 dl, cl
  0018c	30 54 05 e8	 xor	 BYTE PTR __k$515257[ebp+eax], dl
  00190	40		 inc	 eax
  00191	83 f8 0f	 cmp	 eax, 15			; 0000000fH
  00194	7c e3		 jl	 SHORT $LL739@ParseExtra
  00196	8b 4d e4	 mov	 ecx, DWORD PTR _xElement$GSCopy$[ebp]
  00199	8d 45 e8	 lea	 eax, DWORD PTR __k$515257[ebp]
  0019c	50		 push	 eax
  0019d	ff d6		 call	 esi
  0019f	6a 02		 push	 2
  001a1	89 87 9c 01 00
	00		 mov	 DWORD PTR [edi+412], eax

; 75   : 	m_iCutWidth = xElement.GetIntAttribute_e( "CutWidth" );

  001a7	c7 45 ec ae 99
	9f bd		 mov	 DWORD PTR __k$515369[ebp], -1113613906 ; bd9f99aeH
  001ae	c7 45 f0 84 88
	9f 82		 mov	 DWORD PTR __k$515369[ebp+4], -2103474044 ; 829f8884H
  001b5	8d 45 ec	 lea	 eax, DWORD PTR __k$515369[ebp]
  001b8	c6 45 f4 00	 mov	 BYTE PTR __k$515369[ebp+8], 0
  001bc	59		 pop	 ecx
$LL848@ParseExtra:
  001bd	31 18		 xor	 DWORD PTR [eax], ebx
  001bf	83 c0 04	 add	 eax, 4
  001c2	49		 dec	 ecx
  001c3	75 f8		 jne	 SHORT $LL848@ParseExtra
  001c5	8b 4d e4	 mov	 ecx, DWORD PTR _xElement$GSCopy$[ebp]
  001c8	8d 45 ec	 lea	 eax, DWORD PTR __k$515369[ebp]
  001cb	50		 push	 eax
  001cc	ff d6		 call	 esi
  001ce	6a 02		 push	 2
  001d0	89 87 90 01 00
	00		 mov	 DWORD PTR [edi+400], eax

; 76   : 	m_iMaxPageList = xElement.GetIntAttribute_e( "MaxPageList" );

  001d6	c7 45 ec a0 8d
	93 ba		 mov	 DWORD PTR __k$515507[ebp], -1164735072 ; ba938da0H
  001dd	c7 45 f0 8c 8b
	8e a6		 mov	 DWORD PTR __k$515507[ebp+4], -1500607604 ; a68e8b8cH
  001e4	8d 45 ec	 lea	 eax, DWORD PTR __k$515507[ebp]
  001e7	c7 45 f4 84 9f
	9f 00		 mov	 DWORD PTR __k$515507[ebp+8], 10461060 ; 009f9f84H
  001ee	59		 pop	 ecx
$LL954@ParseExtra:
  001ef	31 18		 xor	 DWORD PTR [eax], ebx
  001f1	83 c0 04	 add	 eax, 4
  001f4	49		 dec	 ecx
  001f5	75 f8		 jne	 SHORT $LL954@ParseExtra
  001f7	6a 08		 push	 8
  001f9	58		 pop	 eax
$LL951@ParseExtra:
  001fa	8b c8		 mov	 ecx, eax
  001fc	81 e1 03 00 00
	80		 and	 ecx, -2147483645	; 80000003H
  00202	79 05		 jns	 SHORT $LN995@ParseExtra
  00204	49		 dec	 ecx
  00205	83 c9 fc	 or	 ecx, -4			; fffffffcH
  00208	41		 inc	 ecx
$LN995@ParseExtra:
  00209	b2 ed		 mov	 dl, -19			; ffffffedH
  0020b	2a d1		 sub	 dl, cl
  0020d	30 54 05 ec	 xor	 BYTE PTR __k$515507[ebp+eax], dl
  00211	40		 inc	 eax
  00212	83 f8 0b	 cmp	 eax, 11			; 0000000bH
  00215	7c e3		 jl	 SHORT $LL951@ParseExtra
  00217	8b 4d e4	 mov	 ecx, DWORD PTR _xElement$GSCopy$[ebp]
  0021a	8d 45 ec	 lea	 eax, DWORD PTR __k$515507[ebp]
  0021d	50		 push	 eax
  0021e	ff d6		 call	 esi

; 77   : }

  00220	8b 4d fc	 mov	 ecx, DWORD PTR __$ArrayPad$[ebp]
  00223	89 87 94 01 00
	00		 mov	 DWORD PTR [edi+404], eax
  00229	5f		 pop	 edi
  0022a	5e		 pop	 esi
  0022b	33 cd		 xor	 ecx, ebp
  0022d	5b		 pop	 ebx
  0022e	e8 00 00 00 00	 call	 @__security_check_cookie@4
  00233	c9		 leave
  00234	c2 04 00	 ret	 4
?ParseExtraInfo@ModeMapSelectList@@UAEXAAVioXMLElement@@@Z ENDP ; ModeMapSelectList::ParseExtraInfo
_TEXT	ENDS
PUBLIC	_szType$GSCopy$
PUBLIC	_pImage$GSCopy$
PUBLIC	_this$GSCopy$
PUBLIC	__$ArrayPad$
PUBLIC	?AddRenderImage@ModeMapSelectList@@UAEXABVioHashString@@PAVioUIRenderImage@@@Z ; ModeMapSelectList::AddRenderImage
EXTRN	__imp_?AddRenderImage@ioWnd@@UAEXABVioHashString@@PAVioUIRenderImage@@@Z:PROC
; Function compile flags: /Ogsp
;	COMDAT ?AddRenderImage@ModeMapSelectList@@UAEXABVioHashString@@PAVioUIRenderImage@@@Z
_TEXT	SEGMENT
_szType$GSCopy$ = -32					; size = 4
_pImage$GSCopy$ = -28					; size = 4
_this$GSCopy$ = -24					; size = 4
__t$516053 = -20					; size = 11
__t$515928 = -20					; size = 9
__t$515874 = -20					; size = 10
__t$515691 = -20					; size = 9
__$ArrayPad$ = -4					; size = 4
_szType$ = 8						; size = 4
_pImage$ = 12						; size = 4
?AddRenderImage@ModeMapSelectList@@UAEXABVioHashString@@PAVioUIRenderImage@@@Z PROC ; ModeMapSelectList::AddRenderImage, COMDAT
; _this$ = ecx

; 80   : {

  00000	55		 push	 ebp
  00001	8b ec		 mov	 ebp, esp
  00003	83 ec 20	 sub	 esp, 32			; 00000020H
  00006	a1 00 00 00 00	 mov	 eax, DWORD PTR ___security_cookie
  0000b	33 c5		 xor	 eax, ebp
  0000d	89 45 fc	 mov	 DWORD PTR __$ArrayPad$[ebp], eax
  00010	8b 45 0c	 mov	 eax, DWORD PTR _pImage$[ebp]
  00013	8b 55 08	 mov	 edx, DWORD PTR _szType$[ebp]
  00016	53		 push	 ebx
  00017	56		 push	 esi
  00018	57		 push	 edi

; 81   : 	if( szType == "DarkLine" )

  00019	6a 02		 push	 2
  0001b	33 db		 xor	 ebx, ebx
  0001d	5f		 pop	 edi
  0001e	89 4d e8	 mov	 DWORD PTR _this$GSCopy$[ebp], ecx

; 97   : 	{
; 98   : 		SAFEDELETE( m_pManualMark );

  00021	89 45 e4	 mov	 DWORD PTR _pImage$GSCopy$[ebp], eax
  00024	89 55 e0	 mov	 DWORD PTR _szType$GSCopy$[ebp], edx
  00027	c7 45 ec a9 8d
	99 81		 mov	 DWORD PTR __t$515691[ebp], -2120643159 ; 81998da9H
  0002e	c7 45 f0 a1 85
	85 8f		 mov	 DWORD PTR __t$515691[ebp+4], -1887074911 ; 8f8585a1H
  00035	8d 45 ec	 lea	 eax, DWORD PTR __t$515691[ebp]
  00038	88 5d f4	 mov	 BYTE PTR __t$515691[ebp+8], bl
  0003b	8b cf		 mov	 ecx, edi
$LL126@AddRenderI:

; 81   : 	if( szType == "DarkLine" )

  0003d	81 30 ed ec eb
	ea		 xor	 DWORD PTR [eax], -353637139 ; eaebecedH
  00043	83 c0 04	 add	 eax, 4
  00046	49		 dec	 ecx
  00047	75 f4		 jne	 SHORT $LL126@AddRenderI
  00049	8b ca		 mov	 ecx, edx
  0004b	8d 75 ec	 lea	 esi, DWORD PTR __t$515691[ebp]
  0004e	ff 15 00 00 00
	00		 call	 DWORD PTR __imp_?c_str@ioHashString@@QBEPBDXZ
$LL466@AddRenderI:
  00054	8a 08		 mov	 cl, BYTE PTR [eax]
  00056	3a 0e		 cmp	 cl, BYTE PTR [esi]
  00058	75 18		 jne	 SHORT $LN467@AddRenderI
  0005a	3a cb		 cmp	 cl, bl
  0005c	74 10		 je	 SHORT $LN468@AddRenderI
  0005e	8a 48 01	 mov	 cl, BYTE PTR [eax+1]
  00061	3a 4e 01	 cmp	 cl, BYTE PTR [esi+1]
  00064	75 0c		 jne	 SHORT $LN467@AddRenderI
  00066	03 c7		 add	 eax, edi
  00068	03 f7		 add	 esi, edi
  0006a	3a cb		 cmp	 cl, bl
  0006c	75 e6		 jne	 SHORT $LL466@AddRenderI
$LN468@AddRenderI:
  0006e	33 c0		 xor	 eax, eax
  00070	eb 05		 jmp	 SHORT $LN469@AddRenderI
$LN467@AddRenderI:
  00072	1b c0		 sbb	 eax, eax
  00074	83 d8 ff	 sbb	 eax, -1
$LN469@AddRenderI:
  00077	3b c3		 cmp	 eax, ebx
  00079	75 28		 jne	 SHORT $LN463@AddRenderI

; 82   : 	{
; 83   : 		SAFEDELETE( m_pDarkLine );

  0007b	8b 75 e8	 mov	 esi, DWORD PTR _this$GSCopy$[ebp]
  0007e	8b 8e 60 01 00
	00		 mov	 ecx, DWORD PTR [esi+352]
  00084	3b cb		 cmp	 ecx, ebx
  00086	74 0d		 je	 SHORT $LN11@AddRenderI
  00088	8b 01		 mov	 eax, DWORD PTR [ecx]
  0008a	6a 01		 push	 1
  0008c	ff 50 40	 call	 DWORD PTR [eax+64]
  0008f	89 9e 60 01 00
	00		 mov	 DWORD PTR [esi+352], ebx
$LN11@AddRenderI:

; 84   : 		m_pDarkLine = pImage;

  00095	8b 45 e4	 mov	 eax, DWORD PTR _pImage$GSCopy$[ebp]
  00098	89 86 60 01 00
	00		 mov	 DWORD PTR [esi+352], eax
  0009e	e9 b0 01 00 00	 jmp	 $LN1@AddRenderI
$LN463@AddRenderI:

; 85   : 	}
; 86   : 	else if( szType == "LightLine" )

  000a3	c7 45 ec a1 85
	8c 82		 mov	 DWORD PTR __t$515874[ebp], -2104719967 ; 828c85a1H
  000aa	c7 45 f0 99 a0
	82 84		 mov	 DWORD PTR __t$515874[ebp+4], -2071813991 ; 8482a099H
  000b1	8d 45 ec	 lea	 eax, DWORD PTR __t$515874[ebp]
  000b4	66 c7 45 f4 88
	00		 mov	 WORD PTR __t$515874[ebp+8], 136 ; 00000088H
  000ba	8b cf		 mov	 ecx, edi
$LL232@AddRenderI:
  000bc	81 30 ed ec eb
	ea		 xor	 DWORD PTR [eax], -353637139 ; eaebecedH
  000c2	83 c0 04	 add	 eax, 4
  000c5	49		 dec	 ecx
  000c6	75 f4		 jne	 SHORT $LL232@AddRenderI
  000c8	8b 4d e0	 mov	 ecx, DWORD PTR _szType$GSCopy$[ebp]
  000cb	80 75 f4 ed	 xor	 BYTE PTR __t$515874[ebp+8], -19 ; ffffffedH
  000cf	8d 75 ec	 lea	 esi, DWORD PTR __t$515874[ebp]
  000d2	ff 15 00 00 00
	00		 call	 DWORD PTR __imp_?c_str@ioHashString@@QBEPBDXZ
$LL470@AddRenderI:
  000d8	8a 08		 mov	 cl, BYTE PTR [eax]
  000da	3a 0e		 cmp	 cl, BYTE PTR [esi]
  000dc	75 18		 jne	 SHORT $LN471@AddRenderI
  000de	3a cb		 cmp	 cl, bl
  000e0	74 10		 je	 SHORT $LN472@AddRenderI
  000e2	8a 48 01	 mov	 cl, BYTE PTR [eax+1]
  000e5	3a 4e 01	 cmp	 cl, BYTE PTR [esi+1]
  000e8	75 0c		 jne	 SHORT $LN471@AddRenderI
  000ea	03 c7		 add	 eax, edi
  000ec	03 f7		 add	 esi, edi
  000ee	3a cb		 cmp	 cl, bl
  000f0	75 e6		 jne	 SHORT $LL470@AddRenderI
$LN472@AddRenderI:
  000f2	33 c0		 xor	 eax, eax
  000f4	eb 05		 jmp	 SHORT $LN473@AddRenderI
$LN471@AddRenderI:
  000f6	1b c0		 sbb	 eax, eax
  000f8	83 d8 ff	 sbb	 eax, -1
$LN473@AddRenderI:
  000fb	3b c3		 cmp	 eax, ebx
  000fd	75 28		 jne	 SHORT $LN464@AddRenderI

; 87   : 	{
; 88   : 		SAFEDELETE( m_pLightLine );

  000ff	8b 75 e8	 mov	 esi, DWORD PTR _this$GSCopy$[ebp]
  00102	8b 8e 64 01 00
	00		 mov	 ecx, DWORD PTR [esi+356]
  00108	3b cb		 cmp	 ecx, ebx
  0010a	74 0d		 je	 SHORT $LN8@AddRenderI
  0010c	8b 01		 mov	 eax, DWORD PTR [ecx]
  0010e	6a 01		 push	 1
  00110	ff 50 40	 call	 DWORD PTR [eax+64]
  00113	89 9e 64 01 00
	00		 mov	 DWORD PTR [esi+356], ebx
$LN8@AddRenderI:

; 89   : 		m_pLightLine = pImage;

  00119	8b 45 e4	 mov	 eax, DWORD PTR _pImage$GSCopy$[ebp]
  0011c	89 86 64 01 00
	00		 mov	 DWORD PTR [esi+356], eax
  00122	e9 2c 01 00 00	 jmp	 $LN1@AddRenderI
$LN464@AddRenderI:

; 90   : 	}
; 91   : 	else if( szType == "OverLine" )

  00127	c7 45 ec a2 9a
	8e 98		 mov	 DWORD PTR __t$515928[ebp], -1735484766 ; 988e9aa2H
  0012e	c7 45 f0 a1 85
	85 8f		 mov	 DWORD PTR __t$515928[ebp+4], -1887074911 ; 8f8585a1H
  00135	8d 45 ec	 lea	 eax, DWORD PTR __t$515928[ebp]
  00138	88 5d f4	 mov	 BYTE PTR __t$515928[ebp+8], bl
  0013b	8b cf		 mov	 ecx, edi
$LL338@AddRenderI:
  0013d	81 30 ed ec eb
	ea		 xor	 DWORD PTR [eax], -353637139 ; eaebecedH
  00143	83 c0 04	 add	 eax, 4
  00146	49		 dec	 ecx
  00147	75 f4		 jne	 SHORT $LL338@AddRenderI
  00149	8b 4d e0	 mov	 ecx, DWORD PTR _szType$GSCopy$[ebp]
  0014c	8d 75 ec	 lea	 esi, DWORD PTR __t$515928[ebp]
  0014f	ff 15 00 00 00
	00		 call	 DWORD PTR __imp_?c_str@ioHashString@@QBEPBDXZ
$LL474@AddRenderI:
  00155	8a 08		 mov	 cl, BYTE PTR [eax]
  00157	3a 0e		 cmp	 cl, BYTE PTR [esi]
  00159	75 18		 jne	 SHORT $LN475@AddRenderI
  0015b	3a cb		 cmp	 cl, bl
  0015d	74 10		 je	 SHORT $LN476@AddRenderI
  0015f	8a 48 01	 mov	 cl, BYTE PTR [eax+1]
  00162	3a 4e 01	 cmp	 cl, BYTE PTR [esi+1]
  00165	75 0c		 jne	 SHORT $LN475@AddRenderI
  00167	03 c7		 add	 eax, edi
  00169	03 f7		 add	 esi, edi
  0016b	3a cb		 cmp	 cl, bl
  0016d	75 e6		 jne	 SHORT $LL474@AddRenderI
$LN476@AddRenderI:
  0016f	33 c0		 xor	 eax, eax
  00171	eb 05		 jmp	 SHORT $LN477@AddRenderI
$LN475@AddRenderI:
  00173	1b c0		 sbb	 eax, eax
  00175	83 d8 ff	 sbb	 eax, -1
$LN477@AddRenderI:
  00178	3b c3		 cmp	 eax, ebx
  0017a	75 28		 jne	 SHORT $LN465@AddRenderI

; 92   : 	{
; 93   : 		SAFEDELETE( m_pOverLine );

  0017c	8b 75 e8	 mov	 esi, DWORD PTR _this$GSCopy$[ebp]
  0017f	8b 8e 68 01 00
	00		 mov	 ecx, DWORD PTR [esi+360]
  00185	3b cb		 cmp	 ecx, ebx
  00187	74 0d		 je	 SHORT $LN5@AddRenderI
  00189	8b 01		 mov	 eax, DWORD PTR [ecx]
  0018b	6a 01		 push	 1
  0018d	ff 50 40	 call	 DWORD PTR [eax+64]
  00190	89 9e 68 01 00
	00		 mov	 DWORD PTR [esi+360], ebx
$LN5@AddRenderI:

; 94   : 		m_pOverLine = pImage;

  00196	8b 45 e4	 mov	 eax, DWORD PTR _pImage$GSCopy$[ebp]
  00199	89 86 68 01 00
	00		 mov	 DWORD PTR [esi+360], eax
  0019f	e9 af 00 00 00	 jmp	 $LN1@AddRenderI
$LN465@AddRenderI:

; 95   : 	}
; 96   : 	else if( szType == "ManualMark" )

  001a4	c7 45 ec a0 8d
	85 9f		 mov	 DWORD PTR __t$516053[ebp], -1618637408 ; 9f858da0H
  001ab	c7 45 f0 8c 80
	a6 8b		 mov	 DWORD PTR __t$516053[ebp+4], -1952022388 ; 8ba6808cH
  001b2	66 c7 45 f4 9f
	87		 mov	 WORD PTR __t$516053[ebp+8], 34719 ; 0000879fH
  001b8	8d 45 ec	 lea	 eax, DWORD PTR __t$516053[ebp]
  001bb	88 5d f6	 mov	 BYTE PTR __t$516053[ebp+10], bl
  001be	8b cf		 mov	 ecx, edi
$LL444@AddRenderI:
  001c0	81 30 ed ec eb
	ea		 xor	 DWORD PTR [eax], -353637139 ; eaebecedH
  001c6	83 c0 04	 add	 eax, 4
  001c9	49		 dec	 ecx
  001ca	75 f4		 jne	 SHORT $LL444@AddRenderI
  001cc	6a 08		 push	 8
  001ce	58		 pop	 eax
$LL441@AddRenderI:
  001cf	8b c8		 mov	 ecx, eax
  001d1	81 e1 03 00 00
	80		 and	 ecx, -2147483645	; 80000003H
  001d7	79 05		 jns	 SHORT $LN482@AddRenderI
  001d9	49		 dec	 ecx
  001da	83 c9 fc	 or	 ecx, -4			; fffffffcH
  001dd	41		 inc	 ecx
$LN482@AddRenderI:
  001de	b2 ed		 mov	 dl, -19			; ffffffedH
  001e0	2a d1		 sub	 dl, cl
  001e2	30 54 05 ec	 xor	 BYTE PTR __t$516053[ebp+eax], dl
  001e6	40		 inc	 eax
  001e7	83 f8 0a	 cmp	 eax, 10			; 0000000aH
  001ea	7c e3		 jl	 SHORT $LL441@AddRenderI
  001ec	8b 4d e0	 mov	 ecx, DWORD PTR _szType$GSCopy$[ebp]
  001ef	8d 75 ec	 lea	 esi, DWORD PTR __t$516053[ebp]
  001f2	ff 15 00 00 00
	00		 call	 DWORD PTR __imp_?c_str@ioHashString@@QBEPBDXZ
$LL478@AddRenderI:
  001f8	8a 08		 mov	 cl, BYTE PTR [eax]
  001fa	3a 0e		 cmp	 cl, BYTE PTR [esi]
  001fc	75 18		 jne	 SHORT $LN479@AddRenderI
  001fe	3a cb		 cmp	 cl, bl
  00200	74 10		 je	 SHORT $LN480@AddRenderI
  00202	8a 48 01	 mov	 cl, BYTE PTR [eax+1]
  00205	3a 4e 01	 cmp	 cl, BYTE PTR [esi+1]
  00208	75 0c		 jne	 SHORT $LN479@AddRenderI
  0020a	03 c7		 add	 eax, edi
  0020c	03 f7		 add	 esi, edi
  0020e	3a cb		 cmp	 cl, bl
  00210	75 e6		 jne	 SHORT $LL478@AddRenderI
$LN480@AddRenderI:
  00212	33 c0		 xor	 eax, eax
  00214	eb 05		 jmp	 SHORT $LN481@AddRenderI
$LN479@AddRenderI:
  00216	1b c0		 sbb	 eax, eax
  00218	83 d8 ff	 sbb	 eax, -1
$LN481@AddRenderI:
  0021b	3b c3		 cmp	 eax, ebx
  0021d	75 25		 jne	 SHORT $LN3@AddRenderI

; 97   : 	{
; 98   : 		SAFEDELETE( m_pManualMark );

  0021f	8b 75 e8	 mov	 esi, DWORD PTR _this$GSCopy$[ebp]
  00222	8b 8e 6c 01 00
	00		 mov	 ecx, DWORD PTR [esi+364]
  00228	3b cb		 cmp	 ecx, ebx
  0022a	74 0d		 je	 SHORT $LN2@AddRenderI
  0022c	8b 01		 mov	 eax, DWORD PTR [ecx]
  0022e	6a 01		 push	 1
  00230	ff 50 40	 call	 DWORD PTR [eax+64]
  00233	89 9e 6c 01 00
	00		 mov	 DWORD PTR [esi+364], ebx
$LN2@AddRenderI:

; 99   : 		m_pManualMark = pImage;

  00239	8b 45 e4	 mov	 eax, DWORD PTR _pImage$GSCopy$[ebp]
  0023c	89 86 6c 01 00
	00		 mov	 DWORD PTR [esi+364], eax

; 100  : 	}
; 101  : 	else

  00242	eb 0f		 jmp	 SHORT $LN1@AddRenderI
$LN3@AddRenderI:

; 102  : 	{
; 103  : 		ioWnd::AddRenderImage( szType, pImage );

  00244	ff 75 e4	 push	 DWORD PTR _pImage$GSCopy$[ebp]
  00247	8b 4d e8	 mov	 ecx, DWORD PTR _this$GSCopy$[ebp]
  0024a	ff 75 e0	 push	 DWORD PTR _szType$GSCopy$[ebp]
  0024d	ff 15 00 00 00
	00		 call	 DWORD PTR __imp_?AddRenderImage@ioWnd@@UAEXABVioHashString@@PAVioUIRenderImage@@@Z
$LN1@AddRenderI:

; 104  : 	}
; 105  : }

  00253	8b 4d fc	 mov	 ecx, DWORD PTR __$ArrayPad$[ebp]
  00256	5f		 pop	 edi
  00257	5e		 pop	 esi
  00258	33 cd		 xor	 ecx, ebp
  0025a	5b		 pop	 ebx
  0025b	e8 00 00 00 00	 call	 @__security_check_cookie@4
  00260	c9		 leave
  00261	c2 08 00	 ret	 8
?AddRenderImage@ModeMapSelectList@@UAEXABVioHashString@@PAVioUIRenderImage@@@Z ENDP ; ModeMapSelectList::AddRenderImage
_TEXT	ENDS
PUBLIC	??_R0?AVManualListWnd@@@8			; ManualListWnd `RTTI Type Descriptor'
PUBLIC	__$ArrayPad$
PUBLIC	?OnProcess@ModeMapSelectList@@MAEXM@Z		; ModeMapSelectList::OnProcess
EXTRN	?ShowWndByCurManual@ManualListWnd@@QAEXH@Z:PROC	; ManualListWnd::ShowWndByCurManual
EXTRN	__imp_?FindWnd@ioGUIManager@@QAEPAVioWnd@@K@Z:PROC
EXTRN	__imp_?GetID@ioWnd@@QBEKXZ:PROC
EXTRN	__imp_?IsLBtnUp@ioMouse@@QBE_NXZ:PROC
EXTRN	__imp__PtInRect@12:PROC
EXTRN	__imp_?GetMousePos@ioMouse@@QBEABUtagPOINT@@XZ:PROC
EXTRN	__imp_?HideWnd@ioWnd@@QAEXXZ:PROC
EXTRN	__imp_?GetParent@ioWnd@@QAEPAV1@XZ:PROC
EXTRN	?GetSingleton@ioSP2GUIManager@@SAAAV1@XZ:PROC	; ioSP2GUIManager::GetSingleton
;	COMDAT ??_R0?AVManualListWnd@@@8
; File c:\program files (x86)\microsoft visual studio 10.0\vc\include\vector
_DATA	SEGMENT
??_R0?AVManualListWnd@@@8 DD FLAT:??_7type_info@@6B@	; ManualListWnd `RTTI Type Descriptor'
	DD	00H
	DB	'.?AVManualListWnd@@', 00H
; Function compile flags: /Ogsp
; File d:\lost saga for developer\youtube\tutorial\source\src\lsclient\gui\modemapselectlist.cpp
_DATA	ENDS
;	COMDAT ?OnProcess@ModeMapSelectList@@MAEXM@Z
_TEXT	SEGMENT
_iYPos$ = -48						; size = 4
_iListSize$ = -44					; size = 4
_iManualMarkWidth$ = -40				; size = 4
_iXPos$ = -36						; size = 4
tv237 = -32						; size = 4
_pMouse$ = -32						; size = 4
_iCutWidth$ = -28					; size = 4
_i$510133 = -24						; size = 4
_rcNameRect$510140 = -20				; size = 16
__$ArrayPad$ = -4					; size = 4
_fTimePerSec$ = 8					; size = 4
?OnProcess@ModeMapSelectList@@MAEXM@Z PROC		; ModeMapSelectList::OnProcess, COMDAT
; _this$ = ecx

; 252  : {

  00000	55		 push	 ebp
  00001	8b ec		 mov	 ebp, esp
  00003	83 ec 30	 sub	 esp, 48			; 00000030H
  00006	a1 00 00 00 00	 mov	 eax, DWORD PTR ___security_cookie
  0000b	33 c5		 xor	 eax, ebp
  0000d	89 45 fc	 mov	 DWORD PTR __$ArrayPad$[ebp], eax
  00010	56		 push	 esi
  00011	8b f1		 mov	 esi, ecx

; 253  : 	if( !IsShow() )	return;

  00013	ff 15 00 00 00
	00		 call	 DWORD PTR __imp_?IsShow@ioWnd@@QBE_NXZ
  00019	84 c0		 test	 al, al
  0001b	0f 84 b9 02 00
	00		 je	 $LN18@OnProcess

; 254  : 
; 255  : 	m_iOverListIndex  = -2;

  00021	53		 push	 ebx
  00022	57		 push	 edi
  00023	6a fe		 push	 -2			; fffffffeH
  00025	58		 pop	 eax
  00026	89 86 ac 01 00
	00		 mov	 DWORD PTR [esi+428], eax

; 256  : 	m_iOverMarkListIndex = -2;

  0002c	89 86 b0 01 00
	00		 mov	 DWORD PTR [esi+432], eax

; 257  : 	m_bOverSafetyLevel= false;

  00032	c6 86 b4 01 00
	00 00		 mov	 BYTE PTR [esi+436], 0

; 258  : 
; 259  : 	//     
; 260  : 	ioWnd *pPreClick = g_GUIMgr.GetPreClickWnd();

  00039	e8 00 00 00 00	 call	 ?GetSingleton@ioSP2GUIManager@@SAAAV1@XZ ; ioSP2GUIManager::GetSingleton
  0003e	8b 78 14	 mov	 edi, DWORD PTR [eax+20]

; 261  : 	if( pPreClick )

  00041	85 ff		 test	 edi, edi
  00043	74 43		 je	 SHORT $LN39@OnProcess

; 262  : 	{
; 263  : 		if( pPreClick != this && 
; 264  : 			pPreClick != m_pOpenBtn &&
; 265  : 			pPreClick != FindChildWnd( ID_VERT_SCROLL ) &&
; 266  : 			pPreClick->GetParent() != FindChildWnd( ID_VERT_SCROLL ) )

  00045	3b fe		 cmp	 edi, esi
  00047	74 3f		 je	 SHORT $LN39@OnProcess
  00049	3b be 70 01 00
	00		 cmp	 edi, DWORD PTR [esi+368]
  0004f	74 37		 je	 SHORT $LN39@OnProcess
  00051	8b 1d 00 00 00
	00		 mov	 ebx, DWORD PTR __imp_?FindChildWnd@ioWnd@@QAEPAV1@K@Z
  00057	68 e8 03 00 00	 push	 1000			; 000003e8H
  0005c	8b ce		 mov	 ecx, esi
  0005e	ff d3		 call	 ebx
  00060	3b f8		 cmp	 edi, eax
  00062	74 24		 je	 SHORT $LN39@OnProcess
  00064	68 e8 03 00 00	 push	 1000			; 000003e8H
  00069	8b ce		 mov	 ecx, esi
  0006b	ff d3		 call	 ebx
  0006d	8b cf		 mov	 ecx, edi
  0006f	8b d8		 mov	 ebx, eax
  00071	ff 15 00 00 00
	00		 call	 DWORD PTR __imp_?GetParent@ioWnd@@QAEPAV1@XZ
  00077	3b c3		 cmp	 eax, ebx
  00079	74 0d		 je	 SHORT $LN39@OnProcess

; 267  : 		{
; 268  : 			HideWnd();

  0007b	8b ce		 mov	 ecx, esi
  0007d	ff 15 00 00 00
	00		 call	 DWORD PTR __imp_?HideWnd@ioWnd@@QAEXXZ

; 269  : 			return;

  00083	e9 50 02 00 00	 jmp	 $LN40@OnProcess
$LN39@OnProcess:

; 270  : 		}
; 271  : 	}
; 272  : 
; 273  : 	int iXPos, iYPos;
; 274  : 	iXPos = GetDerivedPosX();

  00088	8b ce		 mov	 ecx, esi
  0008a	ff 15 00 00 00
	00		 call	 DWORD PTR __imp_?GetDerivedPosX@ioWnd@@QBEHXZ

; 275  : 	iYPos = GetDerivedPosY();

  00090	8b ce		 mov	 ecx, esi
  00092	89 45 dc	 mov	 DWORD PTR _iXPos$[ebp], eax
  00095	ff 15 00 00 00
	00		 call	 DWORD PTR __imp_?GetDerivedPosY@ioWnd@@QBEHXZ
  0009b	89 45 d0	 mov	 DWORD PTR _iYPos$[ebp], eax

; 276  : 
; 277  : 	int iCutWidth = 0;
; 278  : 	int iManualMarkWidth = 0;
; 279  : 	if( (int)m_vEnableSelectList.size() > m_iMaxPageList )

  0009e	8b 86 c0 01 00
	00		 mov	 eax, DWORD PTR [esi+448]
  000a4	2b 86 bc 01 00
	00		 sub	 eax, DWORD PTR [esi+444]
  000aa	6a 24		 push	 36			; 00000024H
  000ac	99		 cdq
  000ad	59		 pop	 ecx
  000ae	f7 f9		 idiv	 ecx
  000b0	83 65 e4 00	 and	 DWORD PTR _iCutWidth$[ebp], 0
  000b4	83 65 d8 00	 and	 DWORD PTR _iManualMarkWidth$[ebp], 0
  000b8	3b 86 94 01 00
	00		 cmp	 eax, DWORD PTR [esi+404]
  000be	7e 09		 jle	 SHORT $LN14@OnProcess

; 280  : 		iCutWidth = m_iCutWidth;

  000c0	8b 86 90 01 00
	00		 mov	 eax, DWORD PTR [esi+400]
  000c6	89 45 e4	 mov	 DWORD PTR _iCutWidth$[ebp], eax
$LN14@OnProcess:

; 281  : 	if( m_bModeSelect )

  000c9	80 be b5 01 00
	00 00		 cmp	 BYTE PTR [esi+437], 0
  000d0	74 09		 je	 SHORT $LN13@OnProcess

; 282  : 		iManualMarkWidth = m_iManualMarkWidth;

  000d2	8b 86 9c 01 00
	00		 mov	 eax, DWORD PTR [esi+412]
  000d8	89 45 d8	 mov	 DWORD PTR _iManualMarkWidth$[ebp], eax
$LN13@OnProcess:

; 283  : 
; 284  : 	ioLSMouse *pMouse = g_App.GetMouse();

  000db	e8 00 00 00 00	 call	 ?GetSingleton@ioApplication@@SAAAV1@XZ ; ioApplication::GetSingleton
  000e0	8d 98 90 00 00
	00		 lea	 ebx, DWORD PTR [eax+144]

; 285  : 	int iListSize = m_vEnableSelectList.size();

  000e6	8b 86 c0 01 00
	00		 mov	 eax, DWORD PTR [esi+448]
  000ec	2b 86 bc 01 00
	00		 sub	 eax, DWORD PTR [esi+444]
  000f2	6a 24		 push	 36			; 00000024H
  000f4	99		 cdq
  000f5	59		 pop	 ecx
  000f6	f7 f9		 idiv	 ecx

; 286  : 	for(int i = 0;i < iListSize;i++)

  000f8	83 65 e8 00	 and	 DWORD PTR _i$510133[ebp], 0
  000fc	89 5d e0	 mov	 DWORD PTR _pMouse$[ebp], ebx
  000ff	89 45 d4	 mov	 DWORD PTR _iListSize$[ebp], eax
  00102	85 c0		 test	 eax, eax
  00104	0f 8e c7 01 00
	00		 jle	 $LN1@OnProcess
$LL38@OnProcess:

; 287  : 	{
; 288  : 		if( i >= m_iMaxPageList )

  0010a	8b 45 e8	 mov	 eax, DWORD PTR _i$510133[ebp]
  0010d	3b 86 94 01 00
	00		 cmp	 eax, DWORD PTR [esi+404]
  00113	0f 8d b8 01 00
	00		 jge	 $LN1@OnProcess

; 289  : 			break;
; 290  : 
; 291  : 		int iListPos = m_iCurPos + i;

  00119	8b be a0 01 00
	00		 mov	 edi, DWORD PTR [esi+416]
  0011f	03 f8		 add	 edi, eax

; 292  : 		if( iListPos >= iListSize )

  00121	3b 7d d4	 cmp	 edi, DWORD PTR _iListSize$[ebp]
  00124	0f 8d a7 01 00
	00		 jge	 $LN1@OnProcess

; 293  : 			break;
; 294  : 
; 295  : 		RECT rcNameRect;
; 296  : 		rcNameRect.left = iXPos + m_iListXPos;

  0012a	8b 8e 7c 01 00
	00		 mov	 ecx, DWORD PTR [esi+380]
  00130	03 4d dc	 add	 ecx, DWORD PTR _iXPos$[ebp]
  00133	89 4d ec	 mov	 DWORD PTR _rcNameRect$510140[ebp], ecx

; 297  : 		rcNameRect.top  = iYPos + m_iListYPos + i * m_iHeightGap;

  00136	8b 8e 84 01 00
	00		 mov	 ecx, DWORD PTR [esi+388]
  0013c	0f af c8	 imul	 ecx, eax
  0013f	03 8e 80 01 00
	00		 add	 ecx, DWORD PTR [esi+384]
  00145	03 4d d0	 add	 ecx, DWORD PTR _iYPos$[ebp]
  00148	89 4d f0	 mov	 DWORD PTR _rcNameRect$510140[ebp+4], ecx

; 298  : 		rcNameRect.right  = rcNameRect.left + ( ( GetWidth() - ( iCutWidth + iManualMarkWidth ) ) - ( m_iListXPos * 2 ) );

  0014b	8b ce		 mov	 ecx, esi
  0014d	ff 15 00 00 00
	00		 call	 DWORD PTR __imp_?GetWidth@ioWnd@@QBEHXZ
  00153	8b 8e 7c 01 00
	00		 mov	 ecx, DWORD PTR [esi+380]
  00159	8b 55 ec	 mov	 edx, DWORD PTR _rcNameRect$510140[ebp]
  0015c	03 c9		 add	 ecx, ecx
  0015e	2b d1		 sub	 edx, ecx
  00160	2b 55 d8	 sub	 edx, DWORD PTR _iManualMarkWidth$[ebp]

; 299  : 		rcNameRect.bottom = rcNameRect.top + m_iHeightGap;
; 300  : 		if( ::PtInRect( &rcNameRect, pMouse->GetMousePos() ) )

  00163	8b cb		 mov	 ecx, ebx
  00165	2b 55 e4	 sub	 edx, DWORD PTR _iCutWidth$[ebp]
  00168	03 c2		 add	 eax, edx
  0016a	89 45 f4	 mov	 DWORD PTR _rcNameRect$510140[ebp+8], eax
  0016d	8b 86 84 01 00
	00		 mov	 eax, DWORD PTR [esi+388]
  00173	03 45 f0	 add	 eax, DWORD PTR _rcNameRect$510140[ebp+4]
  00176	89 45 f8	 mov	 DWORD PTR _rcNameRect$510140[ebp+12], eax
  00179	ff 15 00 00 00
	00		 call	 DWORD PTR __imp_?GetMousePos@ioMouse@@QBEABUtagPOINT@@XZ
  0017f	ff 70 04	 push	 DWORD PTR [eax+4]
  00182	ff 30		 push	 DWORD PTR [eax]
  00184	8d 45 ec	 lea	 eax, DWORD PTR _rcNameRect$510140[ebp]
  00187	50		 push	 eax
  00188	ff 15 00 00 00
	00		 call	 DWORD PTR __imp__PtInRect@12
  0018e	85 c0		 test	 eax, eax
  00190	75 77		 jne	 SHORT $LN35@OnProcess

; 312  : 		}
; 313  : 
; 314  : 		if( m_bModeSelect )

  00192	38 86 b5 01 00
	00		 cmp	 BYTE PTR [esi+437], al
  00198	74 5b		 je	 SHORT $LN11@OnProcess

; 315  : 		{
; 316  : 			//  
; 317  : 			rcNameRect.left = iXPos + m_iListXPos + ( m_iManualMarkX - iCutWidth );
; 318  : 			rcNameRect.top  = iYPos + m_iListYPos + i * m_iHeightGap;

  0019a	8b 96 84 01 00
	00		 mov	 edx, DWORD PTR [esi+388]
  001a0	8b 8e 98 01 00
	00		 mov	 ecx, DWORD PTR [esi+408]
  001a6	2b 4d e4	 sub	 ecx, DWORD PTR _iCutWidth$[ebp]

; 319  : 			rcNameRect.right  = rcNameRect.left + m_iManualMarkWidth;

  001a9	8b 9e 9c 01 00
	00		 mov	 ebx, DWORD PTR [esi+412]
  001af	03 8e 7c 01 00
	00		 add	 ecx, DWORD PTR [esi+380]
  001b5	8b c2		 mov	 eax, edx
  001b7	0f af 45 e8	 imul	 eax, DWORD PTR _i$510133[ebp]
  001bb	03 4d dc	 add	 ecx, DWORD PTR _iXPos$[ebp]
  001be	03 86 80 01 00
	00		 add	 eax, DWORD PTR [esi+384]
  001c4	03 d9		 add	 ebx, ecx
  001c6	03 45 d0	 add	 eax, DWORD PTR _iYPos$[ebp]
  001c9	89 5d f4	 mov	 DWORD PTR _rcNameRect$510140[ebp+8], ebx

; 320  : 			rcNameRect.bottom = rcNameRect.top  + m_iHeightGap;
; 321  : 			if( ::PtInRect( &rcNameRect, pMouse->GetMousePos() ) )

  001cc	8b 5d e0	 mov	 ebx, DWORD PTR _pMouse$[ebp]
  001cf	89 4d ec	 mov	 DWORD PTR _rcNameRect$510140[ebp], ecx
  001d2	03 d0		 add	 edx, eax
  001d4	8b cb		 mov	 ecx, ebx
  001d6	89 45 f0	 mov	 DWORD PTR _rcNameRect$510140[ebp+4], eax
  001d9	89 55 f8	 mov	 DWORD PTR _rcNameRect$510140[ebp+12], edx
  001dc	ff 15 00 00 00
	00		 call	 DWORD PTR __imp_?GetMousePos@ioMouse@@QBEABUtagPOINT@@XZ
  001e2	ff 70 04	 push	 DWORD PTR [eax+4]
  001e5	ff 30		 push	 DWORD PTR [eax]
  001e7	8d 45 ec	 lea	 eax, DWORD PTR _rcNameRect$510140[ebp]
  001ea	50		 push	 eax
  001eb	ff 15 00 00 00
	00		 call	 DWORD PTR __imp__PtInRect@12
  001f1	85 c0		 test	 eax, eax
  001f3	75 7a		 jne	 SHORT $LN36@OnProcess
$LN11@OnProcess:

; 286  : 	for(int i = 0;i < iListSize;i++)

  001f5	ff 45 e8	 inc	 DWORD PTR _i$510133[ebp]
  001f8	8b 45 e8	 mov	 eax, DWORD PTR _i$510133[ebp]
  001fb	3b 45 d4	 cmp	 eax, DWORD PTR _iListSize$[ebp]
  001fe	0f 8c 06 ff ff
	ff		 jl	 $LL38@OnProcess

; 320  : 			rcNameRect.bottom = rcNameRect.top  + m_iHeightGap;
; 321  : 			if( ::PtInRect( &rcNameRect, pMouse->GetMousePos() ) )

  00204	e9 c8 00 00 00	 jmp	 $LN1@OnProcess
$LN35@OnProcess:

; 301  : 		{
; 302  : 			SelectList &kList = m_vEnableSelectList[iListPos];

  00209	6b ff 24	 imul	 edi, 36			; 00000024H
  0020c	03 be bc 01 00
	00		 add	 edi, DWORD PTR [esi+444]

; 303  : 			m_iOverListIndex  = kList.m_iIndex;
; 304  : 			m_bOverSafetyLevel= kList.m_bSafetyLevelRoom;
; 305  : 			if( pMouse->IsLBtnUp() )

  00212	8b cb		 mov	 ecx, ebx
  00214	8b 07		 mov	 eax, DWORD PTR [edi]
  00216	89 86 ac 01 00
	00		 mov	 DWORD PTR [esi+428], eax
  0021c	8a 47 0d	 mov	 al, BYTE PTR [edi+13]
  0021f	88 86 b4 01 00
	00		 mov	 BYTE PTR [esi+436], al
  00225	ff 15 00 00 00
	00		 call	 DWORD PTR __imp_?IsLBtnUp@ioMouse@@QBE_NXZ
  0022b	84 c0		 test	 al, al
  0022d	0f 84 9e 00 00
	00		 je	 $LN1@OnProcess

; 306  : 			{
; 307  : 				DWORD dwParam = MAKELONG( kList.m_bSafetyLevelRoom, kList.m_iIndex );

  00233	0f b7 1f	 movzx	 ebx, WORD PTR [edi]
  00236	0f b6 47 0d	 movzx	 eax, BYTE PTR [edi+13]
  0023a	c1 e3 10	 shl	 ebx, 16			; 00000010H

; 308  : 				GetParent()->iwm_command( m_pOpenBtn, GetID(), dwParam );

  0023d	8b ce		 mov	 ecx, esi
  0023f	0b d8		 or	 ebx, eax
  00241	ff 15 00 00 00
	00		 call	 DWORD PTR __imp_?GetParent@ioWnd@@QAEPAV1@XZ
  00247	8b 38		 mov	 edi, DWORD PTR [eax]
  00249	53		 push	 ebx
  0024a	8b ce		 mov	 ecx, esi
  0024c	89 45 e0	 mov	 DWORD PTR tv237[ebp], eax
  0024f	ff 15 00 00 00
	00		 call	 DWORD PTR __imp_?GetID@ioWnd@@QBEKXZ
  00255	8b 4d e0	 mov	 ecx, DWORD PTR tv237[ebp]
  00258	50		 push	 eax
  00259	ff b6 70 01 00
	00		 push	 DWORD PTR [esi+368]
  0025f	ff 97 8c 00 00
	00		 call	 DWORD PTR [edi+140]

; 309  : 				HideWnd();

  00265	8b ce		 mov	 ecx, esi
  00267	ff 15 00 00 00
	00		 call	 DWORD PTR __imp_?HideWnd@ioWnd@@QAEXXZ

; 310  : 			}
; 311  : 			break;

  0026d	eb 62		 jmp	 SHORT $LN1@OnProcess
$LN36@OnProcess:

; 322  : 			{
; 323  : 				SelectList &kList = m_vEnableSelectList[iListPos];

  0026f	6b ff 24	 imul	 edi, 36			; 00000024H
  00272	03 be bc 01 00
	00		 add	 edi, DWORD PTR [esi+444]

; 324  : 				m_iOverMarkListIndex  = kList.m_iIndex;
; 325  : 				if( pMouse->IsLBtnUp() )

  00278	8b cb		 mov	 ecx, ebx
  0027a	8b 07		 mov	 eax, DWORD PTR [edi]
  0027c	89 86 b0 01 00
	00		 mov	 DWORD PTR [esi+432], eax
  00282	ff 15 00 00 00
	00		 call	 DWORD PTR __imp_?IsLBtnUp@ioMouse@@QBE_NXZ
  00288	84 c0		 test	 al, al
  0028a	74 45		 je	 SHORT $LN1@OnProcess

; 326  : 				{
; 327  : 					//  
; 328  : 					if( kList.m_iManualIndex != -1 )

  0028c	83 7f 08 ff	 cmp	 DWORD PTR [edi+8], -1
  00290	74 3f		 je	 SHORT $LN1@OnProcess

; 329  : 					{
; 330  : 						HideWnd();

  00292	8b ce		 mov	 ecx, esi
  00294	ff 15 00 00 00
	00		 call	 DWORD PTR __imp_?HideWnd@ioWnd@@QAEXXZ

; 331  : 						ManualListWnd *pManualWnd = dynamic_cast<ManualListWnd*> (g_GUIMgr.FindWnd( MANUAL_LIST_WND ) );

  0029a	6a 00		 push	 0
  0029c	68 00 00 00 00	 push	 OFFSET ??_R0?AVManualListWnd@@@8
  002a1	68 00 00 00 00	 push	 OFFSET ??_R0?AVioWnd@@@8
  002a6	6a 00		 push	 0
  002a8	68 75 17 00 00	 push	 6005			; 00001775H
  002ad	e8 00 00 00 00	 call	 ?GetSingleton@ioSP2GUIManager@@SAAAV1@XZ ; ioSP2GUIManager::GetSingleton
  002b2	8b c8		 mov	 ecx, eax
  002b4	ff 15 00 00 00
	00		 call	 DWORD PTR __imp_?FindWnd@ioGUIManager@@QAEPAVioWnd@@K@Z
  002ba	50		 push	 eax
  002bb	e8 00 00 00 00	 call	 ___RTDynamicCast
  002c0	83 c4 14	 add	 esp, 20			; 00000014H

; 332  : 						if( pManualWnd )

  002c3	85 c0		 test	 eax, eax
  002c5	74 0a		 je	 SHORT $LN1@OnProcess

; 333  : 							pManualWnd->ShowWndByCurManual( kList.m_iManualIndex );

  002c7	ff 77 08	 push	 DWORD PTR [edi+8]
  002ca	8b c8		 mov	 ecx, eax
  002cc	e8 00 00 00 00	 call	 ?ShowWndByCurManual@ManualListWnd@@QAEXH@Z ; ManualListWnd::ShowWndByCurManual
$LN1@OnProcess:

; 334  : 					}				
; 335  : 				}
; 336  : 				break;
; 337  : 			}
; 338  : 		}
; 339  : 	}
; 340  : 
; 341  : 	ProcessModeHelpTooltip();

  002d1	8b ce		 mov	 ecx, esi
  002d3	e8 00 00 00 00	 call	 ?ProcessModeHelpTooltip@ModeMapSelectList@@IAEXXZ ; ModeMapSelectList::ProcessModeHelpTooltip
$LN40@OnProcess:
  002d8	5f		 pop	 edi
  002d9	5b		 pop	 ebx
$LN18@OnProcess:

; 342  : }

  002da	8b 4d fc	 mov	 ecx, DWORD PTR __$ArrayPad$[ebp]
  002dd	33 cd		 xor	 ecx, ebp
  002df	5e		 pop	 esi
  002e0	e8 00 00 00 00	 call	 @__security_check_cookie@4
  002e5	c9		 leave
  002e6	c2 04 00	 ret	 4
?OnProcess@ModeMapSelectList@@MAEXM@Z ENDP		; ModeMapSelectList::OnProcess
_TEXT	ENDS
PUBLIC	_xElement$GSCopy$
PUBLIC	__$ArrayPad$
PUBLIC	?ParseExtraInfo@CreateModeSelectList@@UAEXAAVioXMLElement@@@Z ; CreateModeSelectList::ParseExtraInfo
; Function compile flags: /Ogsp
;	COMDAT ?ParseExtraInfo@CreateModeSelectList@@UAEXAAVioXMLElement@@@Z
_TEXT	SEGMENT
_xElement$GSCopy$ = -28					; size = 4
__k$517139 = -24					; size = 16
__k$517268 = -20					; size = 12
__k$517005 = -20					; size = 12
__k$516880 = -20					; size = 9
__k$516755 = -20					; size = 10
__k$516380 = -20					; size = 10
__k$516255 = -20					; size = 9
__k$516630 = -16					; size = 6
__k$516505 = -16					; size = 6
__$ArrayPad$ = -4					; size = 4
_xElement$ = 8						; size = 4
?ParseExtraInfo@CreateModeSelectList@@UAEXAAVioXMLElement@@@Z PROC ; CreateModeSelectList::ParseExtraInfo, COMDAT
; _this$ = ecx

; 481  : {

  00000	55		 push	 ebp
  00001	8b ec		 mov	 ebp, esp
  00003	83 ec 1c	 sub	 esp, 28			; 0000001cH
  00006	a1 00 00 00 00	 mov	 eax, DWORD PTR ___security_cookie
  0000b	33 c5		 xor	 eax, ebp
  0000d	89 45 fc	 mov	 DWORD PTR __$ArrayPad$[ebp], eax
  00010	53		 push	 ebx
  00011	56		 push	 esi
  00012	57		 push	 edi
  00013	8b f9		 mov	 edi, ecx
  00015	8b 4d 08	 mov	 ecx, DWORD PTR _xElement$[ebp]

; 482  : 	m_iAddWidth	= xElement.GetIntAttribute_e( "AddWidth" );

  00018	6a 02		 push	 2

; 490  : 	m_iMaxPageList = xElement.GetIntAttribute_e( "MaxPageList" );

  0001a	89 4d e4	 mov	 DWORD PTR _xElement$GSCopy$[ebp], ecx
  0001d	c7 45 ec ac 88
	8f bd		 mov	 DWORD PTR __k$516255[ebp], -1114666836 ; bd8f88acH
  00024	c7 45 f0 84 88
	9f 82		 mov	 DWORD PTR __k$516255[ebp+4], -2103474044 ; 829f8884H
  0002b	8d 45 ec	 lea	 eax, DWORD PTR __k$516255[ebp]
  0002e	c6 45 f4 00	 mov	 BYTE PTR __k$516255[ebp+8], 0
  00032	5a		 pop	 edx
  00033	bb ed ec eb ea	 mov	 ebx, -353637139		; eaebecedH
$LL106@ParseExtra@2:

; 482  : 	m_iAddWidth	= xElement.GetIntAttribute_e( "AddWidth" );

  00038	31 18		 xor	 DWORD PTR [eax], ebx
  0003a	83 c0 04	 add	 eax, 4
  0003d	4a		 dec	 edx
  0003e	75 f8		 jne	 SHORT $LL106@ParseExtra@2
  00040	8b 35 00 00 00
	00		 mov	 esi, DWORD PTR __imp_?GetIntAttribute@ioXMLElement@@QBEHPBD@Z
  00046	8d 45 ec	 lea	 eax, DWORD PTR __k$516255[ebp]
  00049	50		 push	 eax
  0004a	ff d6		 call	 esi
  0004c	6a 02		 push	 2
  0004e	89 87 74 01 00
	00		 mov	 DWORD PTR [edi+372], eax

; 483  : 	m_iAddHeight= xElement.GetIntAttribute_e( "AddHeight" );

  00054	c7 45 ec ac 88
	8f a2		 mov	 DWORD PTR __k$516380[ebp], -1567651668 ; a28f88acH
  0005b	c7 45 f0 88 85
	8c 82		 mov	 DWORD PTR __k$516380[ebp+4], -2104719992 ; 828c8588H
  00062	8d 45 ec	 lea	 eax, DWORD PTR __k$516380[ebp]
  00065	66 c7 45 f4 99
	00		 mov	 WORD PTR __k$516380[ebp+8], 153 ; 00000099H
  0006b	59		 pop	 ecx
$LL212@ParseExtra@2:
  0006c	31 18		 xor	 DWORD PTR [eax], ebx
  0006e	83 c0 04	 add	 eax, 4
  00071	49		 dec	 ecx
  00072	75 f8		 jne	 SHORT $LL212@ParseExtra@2
  00074	8b 4d e4	 mov	 ecx, DWORD PTR _xElement$GSCopy$[ebp]
  00077	80 75 f4 ed	 xor	 BYTE PTR __k$516380[ebp+8], -19 ; ffffffedH
  0007b	8d 45 ec	 lea	 eax, DWORD PTR __k$516380[ebp]
  0007e	50		 push	 eax
  0007f	ff d6		 call	 esi

; 484  : 	m_iListXPos = xElement.GetIntAttribute_e( "ListX" );

  00081	8b 4d e4	 mov	 ecx, DWORD PTR _xElement$GSCopy$[ebp]
  00084	89 87 78 01 00
	00		 mov	 DWORD PTR [edi+376], eax
  0008a	8d 45 f0	 lea	 eax, DWORD PTR __k$516505[ebp]
  0008d	c7 45 f0 a1 85
	98 9e		 mov	 DWORD PTR __k$516505[ebp], -1634171487 ; 9e9885a1H
  00094	31 5d f0	 xor	 DWORD PTR __k$516505[ebp], ebx
  00097	50		 push	 eax
  00098	66 c7 45 f4 58
	00		 mov	 WORD PTR __k$516505[ebp+4], 88 ; 00000058H
  0009e	ff d6		 call	 esi

; 485  : 	m_iListYPos = xElement.GetIntAttribute_e( "ListY" );

  000a0	8b 4d e4	 mov	 ecx, DWORD PTR _xElement$GSCopy$[ebp]
  000a3	89 87 7c 01 00
	00		 mov	 DWORD PTR [edi+380], eax
  000a9	8d 45 f0	 lea	 eax, DWORD PTR __k$516630[ebp]
  000ac	c7 45 f0 a1 85
	98 9e		 mov	 DWORD PTR __k$516630[ebp], -1634171487 ; 9e9885a1H
  000b3	31 5d f0	 xor	 DWORD PTR __k$516630[ebp], ebx
  000b6	50		 push	 eax
  000b7	66 c7 45 f4 59
	00		 mov	 WORD PTR __k$516630[ebp+4], 89 ; 00000059H
  000bd	ff d6		 call	 esi
  000bf	6a 02		 push	 2
  000c1	89 87 80 01 00
	00		 mov	 DWORD PTR [edi+384], eax

; 486  : 	m_iHeightGap= xElement.GetIntAttribute_e( "HeightGap" );

  000c7	c7 45 ec a5 89
	82 8d		 mov	 DWORD PTR __k$516755[ebp], -1920824923 ; 8d8289a5H
  000ce	c7 45 f0 85 98
	ac 8b		 mov	 DWORD PTR __k$516755[ebp+4], -1951623035 ; 8bac9885H
  000d5	8d 45 ec	 lea	 eax, DWORD PTR __k$516755[ebp]
  000d8	66 c7 45 f4 9d
	00		 mov	 WORD PTR __k$516755[ebp+8], 157 ; 0000009dH
  000de	59		 pop	 ecx
$LL530@ParseExtra@2:
  000df	31 18		 xor	 DWORD PTR [eax], ebx
  000e1	83 c0 04	 add	 eax, 4
  000e4	49		 dec	 ecx
  000e5	75 f8		 jne	 SHORT $LL530@ParseExtra@2
  000e7	8b 4d e4	 mov	 ecx, DWORD PTR _xElement$GSCopy$[ebp]
  000ea	80 75 f4 ed	 xor	 BYTE PTR __k$516755[ebp+8], -19 ; ffffffedH
  000ee	8d 45 ec	 lea	 eax, DWORD PTR __k$516755[ebp]
  000f1	50		 push	 eax
  000f2	ff d6		 call	 esi
  000f4	6a 02		 push	 2
  000f6	89 87 84 01 00
	00		 mov	 DWORD PTR [edi+388], eax

; 487  : 	m_iCutWidth = xElement.GetIntAttribute_e( "CutWidth" );

  000fc	c7 45 ec ae 99
	9f bd		 mov	 DWORD PTR __k$516880[ebp], -1113613906 ; bd9f99aeH
  00103	c7 45 f0 84 88
	9f 82		 mov	 DWORD PTR __k$516880[ebp+4], -2103474044 ; 829f8884H
  0010a	8d 45 ec	 lea	 eax, DWORD PTR __k$516880[ebp]
  0010d	c6 45 f4 00	 mov	 BYTE PTR __k$516880[ebp+8], 0
  00111	59		 pop	 ecx
$LL636@ParseExtra@2:
  00112	31 18		 xor	 DWORD PTR [eax], ebx
  00114	83 c0 04	 add	 eax, 4
  00117	49		 dec	 ecx
  00118	75 f8		 jne	 SHORT $LL636@ParseExtra@2
  0011a	8b 4d e4	 mov	 ecx, DWORD PTR _xElement$GSCopy$[ebp]
  0011d	8d 45 ec	 lea	 eax, DWORD PTR __k$516880[ebp]
  00120	50		 push	 eax
  00121	ff d6		 call	 esi
  00123	6a 02		 push	 2
  00125	89 87 88 01 00
	00		 mov	 DWORD PTR [edi+392], eax

; 488  : 	m_iManualMarkX = xElement.GetIntAttribute_e( "ManualMarkX" );

  0012b	c7 45 ec a0 8d
	85 9f		 mov	 DWORD PTR __k$517005[ebp], -1618637408 ; 9f858da0H
  00132	c7 45 f0 8c 80
	a6 8b		 mov	 DWORD PTR __k$517005[ebp+4], -1952022388 ; 8ba6808cH
  00139	8d 45 ec	 lea	 eax, DWORD PTR __k$517005[ebp]
  0013c	c7 45 f4 9f 87
	b3 00		 mov	 DWORD PTR __k$517005[ebp+8], 11765663 ; 00b3879fH
  00143	59		 pop	 ecx
$LL742@ParseExtra@2:
  00144	31 18		 xor	 DWORD PTR [eax], ebx
  00146	83 c0 04	 add	 eax, 4
  00149	49		 dec	 ecx
  0014a	75 f8		 jne	 SHORT $LL742@ParseExtra@2
  0014c	6a 08		 push	 8
  0014e	58		 pop	 eax
$LL739@ParseExtra@2:
  0014f	8b c8		 mov	 ecx, eax
  00151	81 e1 03 00 00
	80		 and	 ecx, -2147483645	; 80000003H
  00157	79 05		 jns	 SHORT $LN993@ParseExtra@2
  00159	49		 dec	 ecx
  0015a	83 c9 fc	 or	 ecx, -4			; fffffffcH
  0015d	41		 inc	 ecx
$LN993@ParseExtra@2:
  0015e	b2 ed		 mov	 dl, -19			; ffffffedH
  00160	2a d1		 sub	 dl, cl
  00162	30 54 05 ec	 xor	 BYTE PTR __k$517005[ebp+eax], dl
  00166	40		 inc	 eax
  00167	83 f8 0b	 cmp	 eax, 11			; 0000000bH
  0016a	7c e3		 jl	 SHORT $LL739@ParseExtra@2
  0016c	8b 4d e4	 mov	 ecx, DWORD PTR _xElement$GSCopy$[ebp]
  0016f	8d 45 ec	 lea	 eax, DWORD PTR __k$517005[ebp]
  00172	50		 push	 eax
  00173	ff d6		 call	 esi
  00175	6a 03		 push	 3
  00177	89 87 8c 01 00
	00		 mov	 DWORD PTR [edi+396], eax

; 489  : 	m_iManualMarkWidth = xElement.GetIntAttribute_e( "ManualMarkWidth" );

  0017d	c7 45 e8 a0 8d
	85 9f		 mov	 DWORD PTR __k$517139[ebp], -1618637408 ; 9f858da0H
  00184	c7 45 ec 8c 80
	a6 8b		 mov	 DWORD PTR __k$517139[ebp+4], -1952022388 ; 8ba6808cH
  0018b	c7 45 f0 9f 87
	bc 83		 mov	 DWORD PTR __k$517139[ebp+8], -2084796513 ; 83bc879fH
  00192	8d 45 e8	 lea	 eax, DWORD PTR __k$517139[ebp]
  00195	c7 45 f4 89 98
	83 00		 mov	 DWORD PTR __k$517139[ebp+12], 8624265 ; 00839889H
  0019c	59		 pop	 ecx
$LL848@ParseExtra@2:
  0019d	31 18		 xor	 DWORD PTR [eax], ebx
  0019f	83 c0 04	 add	 eax, 4
  001a2	49		 dec	 ecx
  001a3	75 f8		 jne	 SHORT $LL848@ParseExtra@2
  001a5	6a 0c		 push	 12			; 0000000cH
  001a7	58		 pop	 eax
$LL845@ParseExtra@2:
  001a8	8b c8		 mov	 ecx, eax
  001aa	81 e1 03 00 00
	80		 and	 ecx, -2147483645	; 80000003H
  001b0	79 05		 jns	 SHORT $LN994@ParseExtra@2
  001b2	49		 dec	 ecx
  001b3	83 c9 fc	 or	 ecx, -4			; fffffffcH
  001b6	41		 inc	 ecx
$LN994@ParseExtra@2:
  001b7	b2 ed		 mov	 dl, -19			; ffffffedH
  001b9	2a d1		 sub	 dl, cl
  001bb	30 54 05 e8	 xor	 BYTE PTR __k$517139[ebp+eax], dl
  001bf	40		 inc	 eax
  001c0	83 f8 0f	 cmp	 eax, 15			; 0000000fH
  001c3	7c e3		 jl	 SHORT $LL845@ParseExtra@2
  001c5	8b 4d e4	 mov	 ecx, DWORD PTR _xElement$GSCopy$[ebp]
  001c8	8d 45 e8	 lea	 eax, DWORD PTR __k$517139[ebp]
  001cb	50		 push	 eax
  001cc	ff d6		 call	 esi
  001ce	6a 02		 push	 2
  001d0	89 87 90 01 00
	00		 mov	 DWORD PTR [edi+400], eax

; 490  : 	m_iMaxPageList = xElement.GetIntAttribute_e( "MaxPageList" );

  001d6	c7 45 ec a0 8d
	93 ba		 mov	 DWORD PTR __k$517268[ebp], -1164735072 ; ba938da0H
  001dd	c7 45 f0 8c 8b
	8e a6		 mov	 DWORD PTR __k$517268[ebp+4], -1500607604 ; a68e8b8cH
  001e4	8d 45 ec	 lea	 eax, DWORD PTR __k$517268[ebp]
  001e7	c7 45 f4 84 9f
	9f 00		 mov	 DWORD PTR __k$517268[ebp+8], 10461060 ; 009f9f84H
  001ee	59		 pop	 ecx
$LL954@ParseExtra@2:
  001ef	31 18		 xor	 DWORD PTR [eax], ebx
  001f1	83 c0 04	 add	 eax, 4
  001f4	49		 dec	 ecx
  001f5	75 f8		 jne	 SHORT $LL954@ParseExtra@2
  001f7	6a 08		 push	 8
  001f9	58		 pop	 eax
$LL951@ParseExtra@2:
  001fa	8b c8		 mov	 ecx, eax
  001fc	81 e1 03 00 00
	80		 and	 ecx, -2147483645	; 80000003H
  00202	79 05		 jns	 SHORT $LN995@ParseExtra@2
  00204	49		 dec	 ecx
  00205	83 c9 fc	 or	 ecx, -4			; fffffffcH
  00208	41		 inc	 ecx
$LN995@ParseExtra@2:
  00209	b2 ed		 mov	 dl, -19			; ffffffedH
  0020b	2a d1		 sub	 dl, cl
  0020d	30 54 05 ec	 xor	 BYTE PTR __k$517268[ebp+eax], dl
  00211	40		 inc	 eax
  00212	83 f8 0b	 cmp	 eax, 11			; 0000000bH
  00215	7c e3		 jl	 SHORT $LL951@ParseExtra@2
  00217	8b 4d e4	 mov	 ecx, DWORD PTR _xElement$GSCopy$[ebp]
  0021a	8d 45 ec	 lea	 eax, DWORD PTR __k$517268[ebp]
  0021d	50		 push	 eax
  0021e	ff d6		 call	 esi

; 491  : }

  00220	8b 4d fc	 mov	 ecx, DWORD PTR __$ArrayPad$[ebp]
  00223	89 87 94 01 00
	00		 mov	 DWORD PTR [edi+404], eax
  00229	5f		 pop	 edi
  0022a	5e		 pop	 esi
  0022b	33 cd		 xor	 ecx, ebp
  0022d	5b		 pop	 ebx
  0022e	e8 00 00 00 00	 call	 @__security_check_cookie@4
  00233	c9		 leave
  00234	c2 04 00	 ret	 4
?ParseExtraInfo@CreateModeSelectList@@UAEXAAVioXMLElement@@@Z ENDP ; CreateModeSelectList::ParseExtraInfo
_TEXT	ENDS
PUBLIC	_szType$GSCopy$
PUBLIC	_pImage$GSCopy$
PUBLIC	_this$GSCopy$
PUBLIC	__$ArrayPad$
PUBLIC	?AddRenderImage@CreateModeSelectList@@UAEXABVioHashString@@PAVioUIRenderImage@@@Z ; CreateModeSelectList::AddRenderImage
; Function compile flags: /Ogsp
;	COMDAT ?AddRenderImage@CreateModeSelectList@@UAEXABVioHashString@@PAVioUIRenderImage@@@Z
_TEXT	SEGMENT
_szType$GSCopy$ = -32					; size = 4
_pImage$GSCopy$ = -28					; size = 4
_this$GSCopy$ = -24					; size = 4
__t$517814 = -20					; size = 11
__t$517702 = -20					; size = 9
__t$517635 = -20					; size = 10
__t$517452 = -20					; size = 9
__$ArrayPad$ = -4					; size = 4
_szType$ = 8						; size = 4
_pImage$ = 12						; size = 4
?AddRenderImage@CreateModeSelectList@@UAEXABVioHashString@@PAVioUIRenderImage@@@Z PROC ; CreateModeSelectList::AddRenderImage, COMDAT
; _this$ = ecx

; 494  : {

  00000	55		 push	 ebp
  00001	8b ec		 mov	 ebp, esp
  00003	83 ec 20	 sub	 esp, 32			; 00000020H
  00006	a1 00 00 00 00	 mov	 eax, DWORD PTR ___security_cookie
  0000b	33 c5		 xor	 eax, ebp
  0000d	89 45 fc	 mov	 DWORD PTR __$ArrayPad$[ebp], eax
  00010	8b 45 0c	 mov	 eax, DWORD PTR _pImage$[ebp]
  00013	8b 55 08	 mov	 edx, DWORD PTR _szType$[ebp]
  00016	53		 push	 ebx
  00017	56		 push	 esi
  00018	57		 push	 edi

; 495  : 	if( szType == "DarkLine" )

  00019	6a 02		 push	 2
  0001b	33 db		 xor	 ebx, ebx
  0001d	5f		 pop	 edi
  0001e	89 4d e8	 mov	 DWORD PTR _this$GSCopy$[ebp], ecx

; 511  : 	{
; 512  : 		SAFEDELETE( m_pManualMark );

  00021	89 45 e4	 mov	 DWORD PTR _pImage$GSCopy$[ebp], eax
  00024	89 55 e0	 mov	 DWORD PTR _szType$GSCopy$[ebp], edx
  00027	c7 45 ec a9 8d
	99 81		 mov	 DWORD PTR __t$517452[ebp], -2120643159 ; 81998da9H
  0002e	c7 45 f0 a1 85
	85 8f		 mov	 DWORD PTR __t$517452[ebp+4], -1887074911 ; 8f8585a1H
  00035	8d 45 ec	 lea	 eax, DWORD PTR __t$517452[ebp]
  00038	88 5d f4	 mov	 BYTE PTR __t$517452[ebp+8], bl
  0003b	8b cf		 mov	 ecx, edi
$LL126@AddRenderI@2:

; 495  : 	if( szType == "DarkLine" )

  0003d	81 30 ed ec eb
	ea		 xor	 DWORD PTR [eax], -353637139 ; eaebecedH
  00043	83 c0 04	 add	 eax, 4
  00046	49		 dec	 ecx
  00047	75 f4		 jne	 SHORT $LL126@AddRenderI@2
  00049	8b ca		 mov	 ecx, edx
  0004b	8d 75 ec	 lea	 esi, DWORD PTR __t$517452[ebp]
  0004e	ff 15 00 00 00
	00		 call	 DWORD PTR __imp_?c_str@ioHashString@@QBEPBDXZ
$LL466@AddRenderI@2:
  00054	8a 08		 mov	 cl, BYTE PTR [eax]
  00056	3a 0e		 cmp	 cl, BYTE PTR [esi]
  00058	75 18		 jne	 SHORT $LN467@AddRenderI@2
  0005a	3a cb		 cmp	 cl, bl
  0005c	74 10		 je	 SHORT $LN468@AddRenderI@2
  0005e	8a 48 01	 mov	 cl, BYTE PTR [eax+1]
  00061	3a 4e 01	 cmp	 cl, BYTE PTR [esi+1]
  00064	75 0c		 jne	 SHORT $LN467@AddRenderI@2
  00066	03 c7		 add	 eax, edi
  00068	03 f7		 add	 esi, edi
  0006a	3a cb		 cmp	 cl, bl
  0006c	75 e6		 jne	 SHORT $LL466@AddRenderI@2
$LN468@AddRenderI@2:
  0006e	33 c0		 xor	 eax, eax
  00070	eb 05		 jmp	 SHORT $LN469@AddRenderI@2
$LN467@AddRenderI@2:
  00072	1b c0		 sbb	 eax, eax
  00074	83 d8 ff	 sbb	 eax, -1
$LN469@AddRenderI@2:
  00077	3b c3		 cmp	 eax, ebx
  00079	75 28		 jne	 SHORT $LN463@AddRenderI@2

; 496  : 	{
; 497  : 		SAFEDELETE( m_pDarkLine );

  0007b	8b 75 e8	 mov	 esi, DWORD PTR _this$GSCopy$[ebp]
  0007e	8b 8e 60 01 00
	00		 mov	 ecx, DWORD PTR [esi+352]
  00084	3b cb		 cmp	 ecx, ebx
  00086	74 0d		 je	 SHORT $LN11@AddRenderI@2
  00088	8b 01		 mov	 eax, DWORD PTR [ecx]
  0008a	6a 01		 push	 1
  0008c	ff 50 40	 call	 DWORD PTR [eax+64]
  0008f	89 9e 60 01 00
	00		 mov	 DWORD PTR [esi+352], ebx
$LN11@AddRenderI@2:

; 498  : 		m_pDarkLine = pImage;

  00095	8b 45 e4	 mov	 eax, DWORD PTR _pImage$GSCopy$[ebp]
  00098	89 86 60 01 00
	00		 mov	 DWORD PTR [esi+352], eax
  0009e	e9 b0 01 00 00	 jmp	 $LN1@AddRenderI@2
$LN463@AddRenderI@2:

; 499  : 	}
; 500  : 	else if( szType == "LightLine" )

  000a3	c7 45 ec a1 85
	8c 82		 mov	 DWORD PTR __t$517635[ebp], -2104719967 ; 828c85a1H
  000aa	c7 45 f0 99 a0
	82 84		 mov	 DWORD PTR __t$517635[ebp+4], -2071813991 ; 8482a099H
  000b1	8d 45 ec	 lea	 eax, DWORD PTR __t$517635[ebp]
  000b4	66 c7 45 f4 88
	00		 mov	 WORD PTR __t$517635[ebp+8], 136 ; 00000088H
  000ba	8b cf		 mov	 ecx, edi
$LL232@AddRenderI@2:
  000bc	81 30 ed ec eb
	ea		 xor	 DWORD PTR [eax], -353637139 ; eaebecedH
  000c2	83 c0 04	 add	 eax, 4
  000c5	49		 dec	 ecx
  000c6	75 f4		 jne	 SHORT $LL232@AddRenderI@2
  000c8	8b 4d e0	 mov	 ecx, DWORD PTR _szType$GSCopy$[ebp]
  000cb	80 75 f4 ed	 xor	 BYTE PTR __t$517635[ebp+8], -19 ; ffffffedH
  000cf	8d 75 ec	 lea	 esi, DWORD PTR __t$517635[ebp]
  000d2	ff 15 00 00 00
	00		 call	 DWORD PTR __imp_?c_str@ioHashString@@QBEPBDXZ
$LL470@AddRenderI@2:
  000d8	8a 08		 mov	 cl, BYTE PTR [eax]
  000da	3a 0e		 cmp	 cl, BYTE PTR [esi]
  000dc	75 18		 jne	 SHORT $LN471@AddRenderI@2
  000de	3a cb		 cmp	 cl, bl
  000e0	74 10		 je	 SHORT $LN472@AddRenderI@2
  000e2	8a 48 01	 mov	 cl, BYTE PTR [eax+1]
  000e5	3a 4e 01	 cmp	 cl, BYTE PTR [esi+1]
  000e8	75 0c		 jne	 SHORT $LN471@AddRenderI@2
  000ea	03 c7		 add	 eax, edi
  000ec	03 f7		 add	 esi, edi
  000ee	3a cb		 cmp	 cl, bl
  000f0	75 e6		 jne	 SHORT $LL470@AddRenderI@2
$LN472@AddRenderI@2:
  000f2	33 c0		 xor	 eax, eax
  000f4	eb 05		 jmp	 SHORT $LN473@AddRenderI@2
$LN471@AddRenderI@2:
  000f6	1b c0		 sbb	 eax, eax
  000f8	83 d8 ff	 sbb	 eax, -1
$LN473@AddRenderI@2:
  000fb	3b c3		 cmp	 eax, ebx
  000fd	75 28		 jne	 SHORT $LN464@AddRenderI@2

; 501  : 	{
; 502  : 		SAFEDELETE( m_pLightLine );

  000ff	8b 75 e8	 mov	 esi, DWORD PTR _this$GSCopy$[ebp]
  00102	8b 8e 64 01 00
	00		 mov	 ecx, DWORD PTR [esi+356]
  00108	3b cb		 cmp	 ecx, ebx
  0010a	74 0d		 je	 SHORT $LN8@AddRenderI@2
  0010c	8b 01		 mov	 eax, DWORD PTR [ecx]
  0010e	6a 01		 push	 1
  00110	ff 50 40	 call	 DWORD PTR [eax+64]
  00113	89 9e 64 01 00
	00		 mov	 DWORD PTR [esi+356], ebx
$LN8@AddRenderI@2:

; 503  : 		m_pLightLine = pImage;

  00119	8b 45 e4	 mov	 eax, DWORD PTR _pImage$GSCopy$[ebp]
  0011c	89 86 64 01 00
	00		 mov	 DWORD PTR [esi+356], eax
  00122	e9 2c 01 00 00	 jmp	 $LN1@AddRenderI@2
$LN464@AddRenderI@2:

; 504  : 	}
; 505  : 	else if( szType == "OverLine" )

  00127	c7 45 ec a2 9a
	8e 98		 mov	 DWORD PTR __t$517702[ebp], -1735484766 ; 988e9aa2H
  0012e	c7 45 f0 a1 85
	85 8f		 mov	 DWORD PTR __t$517702[ebp+4], -1887074911 ; 8f8585a1H
  00135	8d 45 ec	 lea	 eax, DWORD PTR __t$517702[ebp]
  00138	88 5d f4	 mov	 BYTE PTR __t$517702[ebp+8], bl
  0013b	8b cf		 mov	 ecx, edi
$LL338@AddRenderI@2:
  0013d	81 30 ed ec eb
	ea		 xor	 DWORD PTR [eax], -353637139 ; eaebecedH
  00143	83 c0 04	 add	 eax, 4
  00146	49		 dec	 ecx
  00147	75 f4		 jne	 SHORT $LL338@AddRenderI@2
  00149	8b 4d e0	 mov	 ecx, DWORD PTR _szType$GSCopy$[ebp]
  0014c	8d 75 ec	 lea	 esi, DWORD PTR __t$517702[ebp]
  0014f	ff 15 00 00 00
	00		 call	 DWORD PTR __imp_?c_str@ioHashString@@QBEPBDXZ
$LL474@AddRenderI@2:
  00155	8a 08		 mov	 cl, BYTE PTR [eax]
  00157	3a 0e		 cmp	 cl, BYTE PTR [esi]
  00159	75 18		 jne	 SHORT $LN475@AddRenderI@2
  0015b	3a cb		 cmp	 cl, bl
  0015d	74 10		 je	 SHORT $LN476@AddRenderI@2
  0015f	8a 48 01	 mov	 cl, BYTE PTR [eax+1]
  00162	3a 4e 01	 cmp	 cl, BYTE PTR [esi+1]
  00165	75 0c		 jne	 SHORT $LN475@AddRenderI@2
  00167	03 c7		 add	 eax, edi
  00169	03 f7		 add	 esi, edi
  0016b	3a cb		 cmp	 cl, bl
  0016d	75 e6		 jne	 SHORT $LL474@AddRenderI@2
$LN476@AddRenderI@2:
  0016f	33 c0		 xor	 eax, eax
  00171	eb 05		 jmp	 SHORT $LN477@AddRenderI@2
$LN475@AddRenderI@2:
  00173	1b c0		 sbb	 eax, eax
  00175	83 d8 ff	 sbb	 eax, -1
$LN477@AddRenderI@2:
  00178	3b c3		 cmp	 eax, ebx
  0017a	75 28		 jne	 SHORT $LN465@AddRenderI@2

; 506  : 	{
; 507  : 		SAFEDELETE( m_pOverLine );

  0017c	8b 75 e8	 mov	 esi, DWORD PTR _this$GSCopy$[ebp]
  0017f	8b 8e 68 01 00
	00		 mov	 ecx, DWORD PTR [esi+360]
  00185	3b cb		 cmp	 ecx, ebx
  00187	74 0d		 je	 SHORT $LN5@AddRenderI@2
  00189	8b 01		 mov	 eax, DWORD PTR [ecx]
  0018b	6a 01		 push	 1
  0018d	ff 50 40	 call	 DWORD PTR [eax+64]
  00190	89 9e 68 01 00
	00		 mov	 DWORD PTR [esi+360], ebx
$LN5@AddRenderI@2:

; 508  : 		m_pOverLine = pImage;

  00196	8b 45 e4	 mov	 eax, DWORD PTR _pImage$GSCopy$[ebp]
  00199	89 86 68 01 00
	00		 mov	 DWORD PTR [esi+360], eax
  0019f	e9 af 00 00 00	 jmp	 $LN1@AddRenderI@2
$LN465@AddRenderI@2:

; 509  : 	}
; 510  : 	else if( szType == "ManualMark" )

  001a4	c7 45 ec a0 8d
	85 9f		 mov	 DWORD PTR __t$517814[ebp], -1618637408 ; 9f858da0H
  001ab	c7 45 f0 8c 80
	a6 8b		 mov	 DWORD PTR __t$517814[ebp+4], -1952022388 ; 8ba6808cH
  001b2	66 c7 45 f4 9f
	87		 mov	 WORD PTR __t$517814[ebp+8], 34719 ; 0000879fH
  001b8	8d 45 ec	 lea	 eax, DWORD PTR __t$517814[ebp]
  001bb	88 5d f6	 mov	 BYTE PTR __t$517814[ebp+10], bl
  001be	8b cf		 mov	 ecx, edi
$LL444@AddRenderI@2:
  001c0	81 30 ed ec eb
	ea		 xor	 DWORD PTR [eax], -353637139 ; eaebecedH
  001c6	83 c0 04	 add	 eax, 4
  001c9	49		 dec	 ecx
  001ca	75 f4		 jne	 SHORT $LL444@AddRenderI@2
  001cc	6a 08		 push	 8
  001ce	58		 pop	 eax
$LL441@AddRenderI@2:
  001cf	8b c8		 mov	 ecx, eax
  001d1	81 e1 03 00 00
	80		 and	 ecx, -2147483645	; 80000003H
  001d7	79 05		 jns	 SHORT $LN482@AddRenderI@2
  001d9	49		 dec	 ecx
  001da	83 c9 fc	 or	 ecx, -4			; fffffffcH
  001dd	41		 inc	 ecx
$LN482@AddRenderI@2:
  001de	b2 ed		 mov	 dl, -19			; ffffffedH
  001e0	2a d1		 sub	 dl, cl
  001e2	30 54 05 ec	 xor	 BYTE PTR __t$517814[ebp+eax], dl
  001e6	40		 inc	 eax
  001e7	83 f8 0a	 cmp	 eax, 10			; 0000000aH
  001ea	7c e3		 jl	 SHORT $LL441@AddRenderI@2
  001ec	8b 4d e0	 mov	 ecx, DWORD PTR _szType$GSCopy$[ebp]
  001ef	8d 75 ec	 lea	 esi, DWORD PTR __t$517814[ebp]
  001f2	ff 15 00 00 00
	00		 call	 DWORD PTR __imp_?c_str@ioHashString@@QBEPBDXZ
$LL478@AddRenderI@2:
  001f8	8a 08		 mov	 cl, BYTE PTR [eax]
  001fa	3a 0e		 cmp	 cl, BYTE PTR [esi]
  001fc	75 18		 jne	 SHORT $LN479@AddRenderI@2
  001fe	3a cb		 cmp	 cl, bl
  00200	74 10		 je	 SHORT $LN480@AddRenderI@2
  00202	8a 48 01	 mov	 cl, BYTE PTR [eax+1]
  00205	3a 4e 01	 cmp	 cl, BYTE PTR [esi+1]
  00208	75 0c		 jne	 SHORT $LN479@AddRenderI@2
  0020a	03 c7		 add	 eax, edi
  0020c	03 f7		 add	 esi, edi
  0020e	3a cb		 cmp	 cl, bl
  00210	75 e6		 jne	 SHORT $LL478@AddRenderI@2
$LN480@AddRenderI@2:
  00212	33 c0		 xor	 eax, eax
  00214	eb 05		 jmp	 SHORT $LN481@AddRenderI@2
$LN479@AddRenderI@2:
  00216	1b c0		 sbb	 eax, eax
  00218	83 d8 ff	 sbb	 eax, -1
$LN481@AddRenderI@2:
  0021b	3b c3		 cmp	 eax, ebx
  0021d	75 25		 jne	 SHORT $LN3@AddRenderI@2

; 511  : 	{
; 512  : 		SAFEDELETE( m_pManualMark );

  0021f	8b 75 e8	 mov	 esi, DWORD PTR _this$GSCopy$[ebp]
  00222	8b 8e 6c 01 00
	00		 mov	 ecx, DWORD PTR [esi+364]
  00228	3b cb		 cmp	 ecx, ebx
  0022a	74 0d		 je	 SHORT $LN2@AddRenderI@2
  0022c	8b 01		 mov	 eax, DWORD PTR [ecx]
  0022e	6a 01		 push	 1
  00230	ff 50 40	 call	 DWORD PTR [eax+64]
  00233	89 9e 6c 01 00
	00		 mov	 DWORD PTR [esi+364], ebx
$LN2@AddRenderI@2:

; 513  : 		m_pManualMark = pImage;

  00239	8b 45 e4	 mov	 eax, DWORD PTR _pImage$GSCopy$[ebp]
  0023c	89 86 6c 01 00
	00		 mov	 DWORD PTR [esi+364], eax

; 514  : 	}
; 515  : 	else

  00242	eb 0f		 jmp	 SHORT $LN1@AddRenderI@2
$LN3@AddRenderI@2:

; 516  : 	{
; 517  : 		ioWnd::AddRenderImage( szType, pImage );

  00244	ff 75 e4	 push	 DWORD PTR _pImage$GSCopy$[ebp]
  00247	8b 4d e8	 mov	 ecx, DWORD PTR _this$GSCopy$[ebp]
  0024a	ff 75 e0	 push	 DWORD PTR _szType$GSCopy$[ebp]
  0024d	ff 15 00 00 00
	00		 call	 DWORD PTR __imp_?AddRenderImage@ioWnd@@UAEXABVioHashString@@PAVioUIRenderImage@@@Z
$LN1@AddRenderI@2:

; 518  : 	}
; 519  : }

  00253	8b 4d fc	 mov	 ecx, DWORD PTR __$ArrayPad$[ebp]
  00256	5f		 pop	 edi
  00257	5e		 pop	 esi
  00258	33 cd		 xor	 ecx, ebp
  0025a	5b		 pop	 ebx
  0025b	e8 00 00 00 00	 call	 @__security_check_cookie@4
  00260	c9		 leave
  00261	c2 08 00	 ret	 8
?AddRenderImage@CreateModeSelectList@@UAEXABVioHashString@@PAVioUIRenderImage@@@Z ENDP ; CreateModeSelectList::AddRenderImage
_TEXT	ENDS
PUBLIC	__$ArrayPad$
PUBLIC	?OnProcess@CreateModeSelectList@@MAEXM@Z	; CreateModeSelectList::OnProcess
; Function compile flags: /Ogsp
;	COMDAT ?OnProcess@CreateModeSelectList@@MAEXM@Z
_TEXT	SEGMENT
_iListSize$ = -48					; size = 4
_pMouse$ = -44						; size = 4
_iYPos$ = -40						; size = 4
_iManualMarkWidth$ = -36				; size = 4
_iXPos$ = -32						; size = 4
_iCutWidth$ = -28					; size = 4
_iIndex$510358 = -24					; size = 4
_rcNameRect$510365 = -20				; size = 16
__$ArrayPad$ = -4					; size = 4
_fTimePerSec$ = 8					; size = 4
?OnProcess@CreateModeSelectList@@MAEXM@Z PROC		; CreateModeSelectList::OnProcess, COMDAT
; _this$ = ecx

; 647  : {

  00000	55		 push	 ebp
  00001	8b ec		 mov	 ebp, esp
  00003	83 ec 30	 sub	 esp, 48			; 00000030H
  00006	a1 00 00 00 00	 mov	 eax, DWORD PTR ___security_cookie
  0000b	33 c5		 xor	 eax, ebp
  0000d	89 45 fc	 mov	 DWORD PTR __$ArrayPad$[ebp], eax
  00010	56		 push	 esi
  00011	8b f1		 mov	 esi, ecx

; 648  : 	if( !IsShow() )	return;

  00013	ff 15 00 00 00
	00		 call	 DWORD PTR __imp_?IsShow@ioWnd@@QBE_NXZ
  00019	84 c0		 test	 al, al
  0001b	0f 84 c2 02 00
	00		 je	 $LN19@OnProcess@2

; 649  : 
; 650  : 	m_iOverListIndex  = -2;

  00021	53		 push	 ebx
  00022	57		 push	 edi
  00023	6a fe		 push	 -2			; fffffffeH
  00025	58		 pop	 eax
  00026	89 86 9c 01 00
	00		 mov	 DWORD PTR [esi+412], eax

; 651  : 	m_iOverMarkListIndex  = -2;

  0002c	89 86 a0 01 00
	00		 mov	 DWORD PTR [esi+416], eax

; 652  : 
; 653  : 	//     
; 654  : 	ioWnd *pPreClick = g_GUIMgr.GetPreClickWnd();

  00032	e8 00 00 00 00	 call	 ?GetSingleton@ioSP2GUIManager@@SAAAV1@XZ ; ioSP2GUIManager::GetSingleton
  00037	8b 58 14	 mov	 ebx, DWORD PTR [eax+20]

; 655  : 	if( pPreClick && GetParent() )

  0003a	85 db		 test	 ebx, ebx
  0003c	74 4f		 je	 SHORT $LN40@OnProcess@2
  0003e	8b ce		 mov	 ecx, esi
  00040	ff 15 00 00 00
	00		 call	 DWORD PTR __imp_?GetParent@ioWnd@@QAEPAV1@XZ
  00046	85 c0		 test	 eax, eax
  00048	74 43		 je	 SHORT $LN40@OnProcess@2

; 656  : 	{
; 657  : 		if( pPreClick != this && 
; 658  : 			pPreClick != m_pOpenBtn &&
; 659  : 			pPreClick != FindChildWnd( ID_VERT_SCROLL ) &&
; 660  : 			pPreClick->GetParent() != FindChildWnd( ID_VERT_SCROLL ) )

  0004a	3b de		 cmp	 ebx, esi
  0004c	74 3f		 je	 SHORT $LN40@OnProcess@2
  0004e	3b 9e 70 01 00
	00		 cmp	 ebx, DWORD PTR [esi+368]
  00054	74 37		 je	 SHORT $LN40@OnProcess@2
  00056	8b 3d 00 00 00
	00		 mov	 edi, DWORD PTR __imp_?FindChildWnd@ioWnd@@QAEPAV1@K@Z
  0005c	68 e8 03 00 00	 push	 1000			; 000003e8H
  00061	8b ce		 mov	 ecx, esi
  00063	ff d7		 call	 edi
  00065	3b d8		 cmp	 ebx, eax
  00067	74 24		 je	 SHORT $LN40@OnProcess@2
  00069	68 e8 03 00 00	 push	 1000			; 000003e8H
  0006e	8b ce		 mov	 ecx, esi
  00070	ff d7		 call	 edi
  00072	8b cb		 mov	 ecx, ebx
  00074	8b f8		 mov	 edi, eax
  00076	ff 15 00 00 00
	00		 call	 DWORD PTR __imp_?GetParent@ioWnd@@QAEPAV1@XZ
  0007c	3b c7		 cmp	 eax, edi
  0007e	74 0d		 je	 SHORT $LN40@OnProcess@2

; 661  : 		{
; 662  : 			HideWnd();

  00080	8b ce		 mov	 ecx, esi
  00082	ff 15 00 00 00
	00		 call	 DWORD PTR __imp_?HideWnd@ioWnd@@QAEXXZ

; 663  : 			return;

  00088	e9 54 02 00 00	 jmp	 $LN41@OnProcess@2
$LN40@OnProcess@2:

; 664  : 		}
; 665  : 	}
; 666  : 
; 667  : 	int iXPos, iYPos;
; 668  : 	iXPos = GetDerivedPosX();

  0008d	8b ce		 mov	 ecx, esi
  0008f	ff 15 00 00 00
	00		 call	 DWORD PTR __imp_?GetDerivedPosX@ioWnd@@QBEHXZ

; 669  : 	iYPos = GetDerivedPosY();

  00095	8b ce		 mov	 ecx, esi
  00097	89 45 e0	 mov	 DWORD PTR _iXPos$[ebp], eax
  0009a	ff 15 00 00 00
	00		 call	 DWORD PTR __imp_?GetDerivedPosY@ioWnd@@QBEHXZ
  000a0	89 45 d8	 mov	 DWORD PTR _iYPos$[ebp], eax

; 670  : 
; 671  : 	int iCutWidth = 0;
; 672  : 	int iManualMarkWidth = 0;
; 673  : 	if( (int)m_vEnableSelectList.size() > m_iMaxPageList )

  000a3	8b 86 a8 01 00
	00		 mov	 eax, DWORD PTR [esi+424]
  000a9	2b 86 a4 01 00
	00		 sub	 eax, DWORD PTR [esi+420]
  000af	33 ff		 xor	 edi, edi
  000b1	c1 f8 05	 sar	 eax, 5
  000b4	89 7d e4	 mov	 DWORD PTR _iCutWidth$[ebp], edi
  000b7	89 7d dc	 mov	 DWORD PTR _iManualMarkWidth$[ebp], edi
  000ba	3b 86 94 01 00
	00		 cmp	 eax, DWORD PTR [esi+404]
  000c0	7e 09		 jle	 SHORT $LN15@OnProcess@2

; 674  : 		iCutWidth = m_iCutWidth;

  000c2	8b 86 88 01 00
	00		 mov	 eax, DWORD PTR [esi+392]
  000c8	89 45 e4	 mov	 DWORD PTR _iCutWidth$[ebp], eax
$LN15@OnProcess@2:

; 675  : 	if( m_pManualMark )

  000cb	39 be 6c 01 00
	00		 cmp	 DWORD PTR [esi+364], edi
  000d1	74 09		 je	 SHORT $LN14@OnProcess@2

; 676  : 		iManualMarkWidth = m_iManualMarkWidth;

  000d3	8b 86 90 01 00
	00		 mov	 eax, DWORD PTR [esi+400]
  000d9	89 45 dc	 mov	 DWORD PTR _iManualMarkWidth$[ebp], eax
$LN14@OnProcess@2:

; 677  : 
; 678  : 	ioLSMouse *pMouse = g_App.GetMouse();

  000dc	e8 00 00 00 00	 call	 ?GetSingleton@ioApplication@@SAAAV1@XZ ; ioApplication::GetSingleton
  000e1	8d 98 90 00 00
	00		 lea	 ebx, DWORD PTR [eax+144]

; 679  : 	int iListSize = m_vEnableSelectList.size();

  000e7	8b 86 a8 01 00
	00		 mov	 eax, DWORD PTR [esi+424]
  000ed	2b 86 a4 01 00
	00		 sub	 eax, DWORD PTR [esi+420]
  000f3	89 5d d4	 mov	 DWORD PTR _pMouse$[ebp], ebx
  000f6	c1 f8 05	 sar	 eax, 5
  000f9	89 45 d0	 mov	 DWORD PTR _iListSize$[ebp], eax

; 680  : 	for(int iIndex = 0 ; iIndex < iListSize ; ++iIndex )

  000fc	89 7d e8	 mov	 DWORD PTR _iIndex$510358[ebp], edi
  000ff	3b c7		 cmp	 eax, edi
  00101	0f 8e d3 01 00
	00		 jle	 $LN1@OnProcess@2
$LL39@OnProcess@2:

; 681  : 	{
; 682  : 		if( iIndex >= m_iMaxPageList )

  00107	8b 4d e8	 mov	 ecx, DWORD PTR _iIndex$510358[ebp]
  0010a	3b 8e 94 01 00
	00		 cmp	 ecx, DWORD PTR [esi+404]
  00110	0f 8d c4 01 00
	00		 jge	 $LN1@OnProcess@2

; 683  : 			break;
; 684  : 
; 685  : 		int iListPos = m_iCurPos + iIndex;

  00116	8b be 98 01 00
	00		 mov	 edi, DWORD PTR [esi+408]
  0011c	03 f9		 add	 edi, ecx

; 686  : 		if( iListPos >= iListSize )

  0011e	3b f8		 cmp	 edi, eax
  00120	0f 8d b4 01 00
	00		 jge	 $LN1@OnProcess@2

; 687  : 			break;
; 688  : 
; 689  : 		// 
; 690  : 		RECT rcNameRect;
; 691  : 		rcNameRect.left = iXPos + m_iListXPos;

  00126	8b 86 7c 01 00
	00		 mov	 eax, DWORD PTR [esi+380]
  0012c	03 45 e0	 add	 eax, DWORD PTR _iXPos$[ebp]
  0012f	89 45 ec	 mov	 DWORD PTR _rcNameRect$510365[ebp], eax

; 692  : 		rcNameRect.top  = iYPos + m_iListYPos + iIndex * m_iHeightGap;

  00132	8b 86 84 01 00
	00		 mov	 eax, DWORD PTR [esi+388]
  00138	0f af c1	 imul	 eax, ecx
  0013b	03 86 80 01 00
	00		 add	 eax, DWORD PTR [esi+384]

; 693  : 		rcNameRect.right  = rcNameRect.left + ( ( GetWidth() - ( m_iListXPos * 2 ) ) - ( iCutWidth + iManualMarkWidth ) );

  00141	8b ce		 mov	 ecx, esi
  00143	03 45 d8	 add	 eax, DWORD PTR _iYPos$[ebp]
  00146	89 45 f0	 mov	 DWORD PTR _rcNameRect$510365[ebp+4], eax
  00149	ff 15 00 00 00
	00		 call	 DWORD PTR __imp_?GetWidth@ioWnd@@QBEHXZ
  0014f	8b 8e 7c 01 00
	00		 mov	 ecx, DWORD PTR [esi+380]
  00155	8b 55 ec	 mov	 edx, DWORD PTR _rcNameRect$510365[ebp]
  00158	03 c9		 add	 ecx, ecx
  0015a	2b d1		 sub	 edx, ecx
  0015c	2b 55 dc	 sub	 edx, DWORD PTR _iManualMarkWidth$[ebp]

; 694  : 		rcNameRect.bottom = rcNameRect.top + m_iHeightGap;
; 695  : 		if( ::PtInRect( &rcNameRect, pMouse->GetMousePos() ) )

  0015f	8b cb		 mov	 ecx, ebx
  00161	2b 55 e4	 sub	 edx, DWORD PTR _iCutWidth$[ebp]
  00164	03 c2		 add	 eax, edx
  00166	89 45 f4	 mov	 DWORD PTR _rcNameRect$510365[ebp+8], eax
  00169	8b 86 84 01 00
	00		 mov	 eax, DWORD PTR [esi+388]
  0016f	03 45 f0	 add	 eax, DWORD PTR _rcNameRect$510365[ebp+4]
  00172	89 45 f8	 mov	 DWORD PTR _rcNameRect$510365[ebp+12], eax
  00175	ff 15 00 00 00
	00		 call	 DWORD PTR __imp_?GetMousePos@ioMouse@@QBEABUtagPOINT@@XZ
  0017b	ff 70 04	 push	 DWORD PTR [eax+4]
  0017e	ff 30		 push	 DWORD PTR [eax]
  00180	8d 45 ec	 lea	 eax, DWORD PTR _rcNameRect$510365[ebp]
  00183	50		 push	 eax
  00184	ff 15 00 00 00
	00		 call	 DWORD PTR __imp__PtInRect@12
  0018a	85 c0		 test	 eax, eax
  0018c	75 6f		 jne	 SHORT $LN36@OnProcess@2

; 706  : 		}
; 707  : 
; 708  : 		//  
; 709  : 		rcNameRect.left = iXPos + m_iListXPos + ( m_iManualMarkX - iCutWidth );
; 710  : 		rcNameRect.top  = iYPos + m_iListYPos + iIndex * m_iHeightGap;

  0018e	8b 96 84 01 00
	00		 mov	 edx, DWORD PTR [esi+388]
  00194	8b 8e 8c 01 00
	00		 mov	 ecx, DWORD PTR [esi+396]
  0019a	2b 4d e4	 sub	 ecx, DWORD PTR _iCutWidth$[ebp]

; 711  : 		rcNameRect.right  = rcNameRect.left + m_iManualMarkWidth;

  0019d	8b 9e 90 01 00
	00		 mov	 ebx, DWORD PTR [esi+400]
  001a3	03 8e 7c 01 00
	00		 add	 ecx, DWORD PTR [esi+380]
  001a9	8b c2		 mov	 eax, edx
  001ab	0f af 45 e8	 imul	 eax, DWORD PTR _iIndex$510358[ebp]
  001af	03 4d e0	 add	 ecx, DWORD PTR _iXPos$[ebp]
  001b2	03 86 80 01 00
	00		 add	 eax, DWORD PTR [esi+384]
  001b8	03 d9		 add	 ebx, ecx
  001ba	03 45 d8	 add	 eax, DWORD PTR _iYPos$[ebp]
  001bd	89 5d f4	 mov	 DWORD PTR _rcNameRect$510365[ebp+8], ebx

; 712  : 		rcNameRect.bottom = rcNameRect.top  + m_iHeightGap;
; 713  : 		if( ::PtInRect( &rcNameRect, pMouse->GetMousePos() ) )

  001c0	8b 5d d4	 mov	 ebx, DWORD PTR _pMouse$[ebp]
  001c3	89 4d ec	 mov	 DWORD PTR _rcNameRect$510365[ebp], ecx
  001c6	03 d0		 add	 edx, eax
  001c8	8b cb		 mov	 ecx, ebx
  001ca	89 45 f0	 mov	 DWORD PTR _rcNameRect$510365[ebp+4], eax
  001cd	89 55 f8	 mov	 DWORD PTR _rcNameRect$510365[ebp+12], edx
  001d0	ff 15 00 00 00
	00		 call	 DWORD PTR __imp_?GetMousePos@ioMouse@@QBEABUtagPOINT@@XZ
  001d6	ff 70 04	 push	 DWORD PTR [eax+4]
  001d9	ff 30		 push	 DWORD PTR [eax]
  001db	8d 45 ec	 lea	 eax, DWORD PTR _rcNameRect$510365[ebp]
  001de	50		 push	 eax
  001df	ff 15 00 00 00
	00		 call	 DWORD PTR __imp__PtInRect@12
  001e5	85 c0		 test	 eax, eax
  001e7	75 75		 jne	 SHORT $LN37@OnProcess@2

; 680  : 	for(int iIndex = 0 ; iIndex < iListSize ; ++iIndex )

  001e9	ff 45 e8	 inc	 DWORD PTR _iIndex$510358[ebp]
  001ec	8b 45 d0	 mov	 eax, DWORD PTR _iListSize$[ebp]
  001ef	39 45 e8	 cmp	 DWORD PTR _iIndex$510358[ebp], eax
  001f2	0f 8c 0f ff ff
	ff		 jl	 $LL39@OnProcess@2

; 712  : 		rcNameRect.bottom = rcNameRect.top  + m_iHeightGap;
; 713  : 		if( ::PtInRect( &rcNameRect, pMouse->GetMousePos() ) )

  001f8	e9 dd 00 00 00	 jmp	 $LN1@OnProcess@2
$LN36@OnProcess@2:

; 696  : 		{
; 697  : 			SelectList &kList = m_vEnableSelectList[iListPos];
; 698  : 			m_iOverListIndex  = kList.m_iIndex;

  001fd	8b 86 a4 01 00
	00		 mov	 eax, DWORD PTR [esi+420]
  00203	c1 e7 05	 shl	 edi, 5
  00206	8b 04 07	 mov	 eax, DWORD PTR [edi+eax]

; 699  : 			if( pMouse->IsLBtnUp() )

  00209	8b cb		 mov	 ecx, ebx
  0020b	89 86 9c 01 00
	00		 mov	 DWORD PTR [esi+412], eax
  00211	ff 15 00 00 00
	00		 call	 DWORD PTR __imp_?IsLBtnUp@ioMouse@@QBE_NXZ
  00217	84 c0		 test	 al, al
  00219	0f 84 bb 00 00
	00		 je	 $LN1@OnProcess@2

; 700  : 			{
; 701  : 				if( GetParent() )

  0021f	8b ce		 mov	 ecx, esi
  00221	ff 15 00 00 00
	00		 call	 DWORD PTR __imp_?GetParent@ioWnd@@QAEPAV1@XZ
  00227	85 c0		 test	 eax, eax
  00229	74 29		 je	 SHORT $LN6@OnProcess@2

; 702  : 					GetParent()->iwm_command( m_pOpenBtn, GetID(), m_iOverListIndex );

  0022b	8b ce		 mov	 ecx, esi
  0022d	ff 15 00 00 00
	00		 call	 DWORD PTR __imp_?GetParent@ioWnd@@QAEPAV1@XZ
  00233	ff b6 9c 01 00
	00		 push	 DWORD PTR [esi+412]
  00239	8b d8		 mov	 ebx, eax
  0023b	8b 3b		 mov	 edi, DWORD PTR [ebx]
  0023d	8b ce		 mov	 ecx, esi
  0023f	ff 15 00 00 00
	00		 call	 DWORD PTR __imp_?GetID@ioWnd@@QBEKXZ
  00245	50		 push	 eax
  00246	ff b6 70 01 00
	00		 push	 DWORD PTR [esi+368]
  0024c	8b cb		 mov	 ecx, ebx
  0024e	ff 97 8c 00 00
	00		 call	 DWORD PTR [edi+140]
$LN6@OnProcess@2:

; 703  : 				HideWnd();

  00254	8b ce		 mov	 ecx, esi
  00256	ff 15 00 00 00
	00		 call	 DWORD PTR __imp_?HideWnd@ioWnd@@QAEXXZ

; 704  : 			}
; 705  : 			break;

  0025c	eb 7c		 jmp	 SHORT $LN1@OnProcess@2
$LN37@OnProcess@2:

; 714  : 		{
; 715  : 			SelectList &kList = m_vEnableSelectList[iListPos];

  0025e	c1 e7 05	 shl	 edi, 5
  00261	03 be a4 01 00
	00		 add	 edi, DWORD PTR [esi+420]

; 716  : 			m_iOverMarkListIndex  = kList.m_iIndex;
; 717  : 			if( pMouse->IsLBtnUp() )

  00267	8b cb		 mov	 ecx, ebx
  00269	8b 07		 mov	 eax, DWORD PTR [edi]
  0026b	89 86 a0 01 00
	00		 mov	 DWORD PTR [esi+416], eax
  00271	ff 15 00 00 00
	00		 call	 DWORD PTR __imp_?IsLBtnUp@ioMouse@@QBE_NXZ
  00277	84 c0		 test	 al, al
  00279	74 5f		 je	 SHORT $LN1@OnProcess@2

; 718  : 			{
; 719  : 				//  
; 720  : 				if( kList.m_iManualIndex != -1 )

  0027b	83 7f 08 ff	 cmp	 DWORD PTR [edi+8], -1
  0027f	74 59		 je	 SHORT $LN1@OnProcess@2

; 721  : 				{
; 722  : 					if( GetParent() )

  00281	8b ce		 mov	 ecx, esi
  00283	ff 15 00 00 00
	00		 call	 DWORD PTR __imp_?GetParent@ioWnd@@QAEPAV1@XZ
  00289	8b 1d 00 00 00
	00		 mov	 ebx, DWORD PTR __imp_?HideWnd@ioWnd@@QAEXXZ
  0028f	85 c0		 test	 eax, eax
  00291	74 0c		 je	 SHORT $LN2@OnProcess@2

; 723  : 						GetParent()->HideWnd();

  00293	8b ce		 mov	 ecx, esi
  00295	ff 15 00 00 00
	00		 call	 DWORD PTR __imp_?GetParent@ioWnd@@QAEPAV1@XZ
  0029b	8b c8		 mov	 ecx, eax
  0029d	ff d3		 call	 ebx
$LN2@OnProcess@2:

; 724  : 					HideWnd();

  0029f	8b ce		 mov	 ecx, esi
  002a1	ff d3		 call	 ebx

; 725  : 
; 726  : 					ManualListWnd *pManualWnd = dynamic_cast<ManualListWnd*> (g_GUIMgr.FindWnd( MANUAL_LIST_WND ) );

  002a3	6a 00		 push	 0
  002a5	68 00 00 00 00	 push	 OFFSET ??_R0?AVManualListWnd@@@8
  002aa	68 00 00 00 00	 push	 OFFSET ??_R0?AVioWnd@@@8
  002af	6a 00		 push	 0
  002b1	68 75 17 00 00	 push	 6005			; 00001775H
  002b6	e8 00 00 00 00	 call	 ?GetSingleton@ioSP2GUIManager@@SAAAV1@XZ ; ioSP2GUIManager::GetSingleton
  002bb	8b c8		 mov	 ecx, eax
  002bd	ff 15 00 00 00
	00		 call	 DWORD PTR __imp_?FindWnd@ioGUIManager@@QAEPAVioWnd@@K@Z
  002c3	50		 push	 eax
  002c4	e8 00 00 00 00	 call	 ___RTDynamicCast
  002c9	83 c4 14	 add	 esp, 20			; 00000014H

; 727  : 					if( pManualWnd )

  002cc	85 c0		 test	 eax, eax
  002ce	74 0a		 je	 SHORT $LN1@OnProcess@2

; 728  : 						pManualWnd->ShowWndByCurManual( kList.m_iManualIndex );

  002d0	ff 77 08	 push	 DWORD PTR [edi+8]
  002d3	8b c8		 mov	 ecx, eax
  002d5	e8 00 00 00 00	 call	 ?ShowWndByCurManual@ManualListWnd@@QAEXH@Z ; ManualListWnd::ShowWndByCurManual
$LN1@OnProcess@2:

; 729  : 				}				
; 730  : 			}
; 731  : 			break;
; 732  : 		}
; 733  : 	}
; 734  : 	ProcessModeHelpTooltip();

  002da	8b ce		 mov	 ecx, esi
  002dc	e8 00 00 00 00	 call	 ?ProcessModeHelpTooltip@CreateModeSelectList@@IAEXXZ ; CreateModeSelectList::ProcessModeHelpTooltip
$LN41@OnProcess@2:
  002e1	5f		 pop	 edi
  002e2	5b		 pop	 ebx
$LN19@OnProcess@2:

; 735  : }

  002e3	8b 4d fc	 mov	 ecx, DWORD PTR __$ArrayPad$[ebp]
  002e6	33 cd		 xor	 ecx, ebp
  002e8	5e		 pop	 esi
  002e9	e8 00 00 00 00	 call	 @__security_check_cookie@4
  002ee	c9		 leave
  002ef	c2 04 00	 ret	 4
?OnProcess@CreateModeSelectList@@MAEXM@Z ENDP		; CreateModeSelectList::OnProcess
_TEXT	ENDS
PUBLIC	??0?$vector@USelectList@ModeMapSelectList@@V?$allocator@USelectList@ModeMapSelectList@@@std@@@std@@QAE@XZ ; std::vector<ModeMapSelectList::SelectList,std::allocator<ModeMapSelectList::SelectList> >::vector<ModeMapSelectList::SelectList,std::allocator<ModeMapSelectList::SelectList> >
; Function compile flags: /Ogsp
; File c:\program files (x86)\microsoft visual studio 10.0\vc\include\vector
;	COMDAT ??0?$vector@USelectList@ModeMapSelectList@@V?$allocator@USelectList@ModeMapSelectList@@@std@@@std@@QAE@XZ
_TEXT	SEGMENT
??0?$vector@USelectList@ModeMapSelectList@@V?$allocator@USelectList@ModeMapSelectList@@@std@@@std@@QAE@XZ PROC ; std::vector<ModeMapSelectList::SelectList,std::allocator<ModeMapSelectList::SelectList> >::vector<ModeMapSelectList::SelectList,std::allocator<ModeMapSelectList::SelectList> >, COMDAT
; _this$ = ecx

; 507  : 		{	// construct empty vector

  00000	8b c1		 mov	 eax, ecx
  00002	33 c9		 xor	 ecx, ecx
  00004	89 08		 mov	 DWORD PTR [eax], ecx
  00006	89 48 04	 mov	 DWORD PTR [eax+4], ecx
  00009	89 48 08	 mov	 DWORD PTR [eax+8], ecx

; 508  : 		}

  0000c	c3		 ret	 0
??0?$vector@USelectList@ModeMapSelectList@@V?$allocator@USelectList@ModeMapSelectList@@@std@@@std@@QAE@XZ ENDP ; std::vector<ModeMapSelectList::SelectList,std::allocator<ModeMapSelectList::SelectList> >::vector<ModeMapSelectList::SelectList,std::allocator<ModeMapSelectList::SelectList> >
_TEXT	ENDS
PUBLIC	??0?$vector@USelectList@CreateModeSelectList@@V?$allocator@USelectList@CreateModeSelectList@@@std@@@std@@QAE@XZ ; std::vector<CreateModeSelectList::SelectList,std::allocator<CreateModeSelectList::SelectList> >::vector<CreateModeSelectList::SelectList,std::allocator<CreateModeSelectList::SelectList> >
; Function compile flags: /Ogsp
;	COMDAT ??0?$vector@USelectList@CreateModeSelectList@@V?$allocator@USelectList@CreateModeSelectList@@@std@@@std@@QAE@XZ
_TEXT	SEGMENT
??0?$vector@USelectList@CreateModeSelectList@@V?$allocator@USelectList@CreateModeSelectList@@@std@@@std@@QAE@XZ PROC ; std::vector<CreateModeSelectList::SelectList,std::allocator<CreateModeSelectList::SelectList> >::vector<CreateModeSelectList::SelectList,std::allocator<CreateModeSelectList::SelectList> >, COMDAT
; _this$ = ecx

; 507  : 		{	// construct empty vector

  00000	8b c1		 mov	 eax, ecx
  00002	33 c9		 xor	 ecx, ecx
  00004	89 08		 mov	 DWORD PTR [eax], ecx
  00006	89 48 04	 mov	 DWORD PTR [eax+4], ecx
  00009	89 48 08	 mov	 DWORD PTR [eax+8], ecx

; 508  : 		}

  0000c	c3		 ret	 0
??0?$vector@USelectList@CreateModeSelectList@@V?$allocator@USelectList@CreateModeSelectList@@@std@@@std@@QAE@XZ ENDP ; std::vector<CreateModeSelectList::SelectList,std::allocator<CreateModeSelectList::SelectList> >::vector<CreateModeSelectList::SelectList,std::allocator<CreateModeSelectList::SelectList> >
_TEXT	ENDS
PUBLIC	?begin@?$vector@USelectList@ModeMapSelectList@@V?$allocator@USelectList@ModeMapSelectList@@@std@@@std@@QAE?AV?$_Vector_iterator@V?$_Vector_val@USelectList@ModeMapSelectList@@V?$allocator@USelectList@ModeMapSelectList@@@std@@@std@@@2@XZ ; std::vector<ModeMapSelectList::SelectList,std::allocator<ModeMapSelectList::SelectList> >::begin
; Function compile flags: /Ogsp
;	COMDAT ?begin@?$vector@USelectList@ModeMapSelectList@@V?$allocator@USelectList@ModeMapSelectList@@@std@@@std@@QAE?AV?$_Vector_iterator@V?$_Vector_val@USelectList@ModeMapSelectList@@V?$allocator@USelectList@ModeMapSelectList@@@std@@@std@@@2@XZ
_TEXT	SEGMENT
___$ReturnUdt$ = 8					; size = 4
?begin@?$vector@USelectList@ModeMapSelectList@@V?$allocator@USelectList@ModeMapSelectList@@@std@@@std@@QAE?AV?$_Vector_iterator@V?$_Vector_val@USelectList@ModeMapSelectList@@V?$allocator@USelectList@ModeMapSelectList@@@std@@@std@@@2@XZ PROC ; std::vector<ModeMapSelectList::SelectList,std::allocator<ModeMapSelectList::SelectList> >::begin, COMDAT
; _this$ = ecx

; 781  : 		{	// return iterator for beginning of mutable sequence

  00000	55		 push	 ebp
  00001	8b ec		 mov	 ebp, esp

; 782  : 		return (iterator(this->_Myfirst, this));

  00003	8b 09		 mov	 ecx, DWORD PTR [ecx]
  00005	8b 45 08	 mov	 eax, DWORD PTR ___$ReturnUdt$[ebp]
  00008	89 08		 mov	 DWORD PTR [eax], ecx

; 783  : 		}

  0000a	5d		 pop	 ebp
  0000b	c2 04 00	 ret	 4
?begin@?$vector@USelectList@ModeMapSelectList@@V?$allocator@USelectList@ModeMapSelectList@@@std@@@std@@QAE?AV?$_Vector_iterator@V?$_Vector_val@USelectList@ModeMapSelectList@@V?$allocator@USelectList@ModeMapSelectList@@@std@@@std@@@2@XZ ENDP ; std::vector<ModeMapSelectList::SelectList,std::allocator<ModeMapSelectList::SelectList> >::begin
_TEXT	ENDS
PUBLIC	?end@?$vector@USelectList@ModeMapSelectList@@V?$allocator@USelectList@ModeMapSelectList@@@std@@@std@@QAE?AV?$_Vector_iterator@V?$_Vector_val@USelectList@ModeMapSelectList@@V?$allocator@USelectList@ModeMapSelectList@@@std@@@std@@@2@XZ ; std::vector<ModeMapSelectList::SelectList,std::allocator<ModeMapSelectList::SelectList> >::end
; Function compile flags: /Ogsp
;	COMDAT ?end@?$vector@USelectList@ModeMapSelectList@@V?$allocator@USelectList@ModeMapSelectList@@@std@@@std@@QAE?AV?$_Vector_iterator@V?$_Vector_val@USelectList@ModeMapSelectList@@V?$allocator@USelectList@ModeMapSelectList@@@std@@@std@@@2@XZ
_TEXT	SEGMENT
___$ReturnUdt$ = 8					; size = 4
?end@?$vector@USelectList@ModeMapSelectList@@V?$allocator@USelectList@ModeMapSelectList@@@std@@@std@@QAE?AV?$_Vector_iterator@V?$_Vector_val@USelectList@ModeMapSelectList@@V?$allocator@USelectList@ModeMapSelectList@@@std@@@std@@@2@XZ PROC ; std::vector<ModeMapSelectList::SelectList,std::allocator<ModeMapSelectList::SelectList> >::end, COMDAT
; _this$ = ecx

; 791  : 		{	// return iterator for end of mutable sequence

  00000	55		 push	 ebp
  00001	8b ec		 mov	 ebp, esp

; 792  : 		return (iterator(this->_Mylast, this));

  00003	8b 49 04	 mov	 ecx, DWORD PTR [ecx+4]
  00006	8b 45 08	 mov	 eax, DWORD PTR ___$ReturnUdt$[ebp]
  00009	89 08		 mov	 DWORD PTR [eax], ecx

; 793  : 		}

  0000b	5d		 pop	 ebp
  0000c	c2 04 00	 ret	 4
?end@?$vector@USelectList@ModeMapSelectList@@V?$allocator@USelectList@ModeMapSelectList@@@std@@@std@@QAE?AV?$_Vector_iterator@V?$_Vector_val@USelectList@ModeMapSelectList@@V?$allocator@USelectList@ModeMapSelectList@@@std@@@std@@@2@XZ ENDP ; std::vector<ModeMapSelectList::SelectList,std::allocator<ModeMapSelectList::SelectList> >::end
_TEXT	ENDS
PUBLIC	?begin@?$vector@USelectList@CreateModeSelectList@@V?$allocator@USelectList@CreateModeSelectList@@@std@@@std@@QAE?AV?$_Vector_iterator@V?$_Vector_val@USelectList@CreateModeSelectList@@V?$allocator@USelectList@CreateModeSelectList@@@std@@@std@@@2@XZ ; std::vector<CreateModeSelectList::SelectList,std::allocator<CreateModeSelectList::SelectList> >::begin
; Function compile flags: /Ogsp
;	COMDAT ?begin@?$vector@USelectList@CreateModeSelectList@@V?$allocator@USelectList@CreateModeSelectList@@@std@@@std@@QAE?AV?$_Vector_iterator@V?$_Vector_val@USelectList@CreateModeSelectList@@V?$allocator@USelectList@CreateModeSelectList@@@std@@@std@@@2@XZ
_TEXT	SEGMENT
___$ReturnUdt$ = 8					; size = 4
?begin@?$vector@USelectList@CreateModeSelectList@@V?$allocator@USelectList@CreateModeSelectList@@@std@@@std@@QAE?AV?$_Vector_iterator@V?$_Vector_val@USelectList@CreateModeSelectList@@V?$allocator@USelectList@CreateModeSelectList@@@std@@@std@@@2@XZ PROC ; std::vector<CreateModeSelectList::SelectList,std::allocator<CreateModeSelectList::SelectList> >::begin, COMDAT
; _this$ = ecx

; 781  : 		{	// return iterator for beginning of mutable sequence

  00000	55		 push	 ebp
  00001	8b ec		 mov	 ebp, esp

; 782  : 		return (iterator(this->_Myfirst, this));

  00003	8b 09		 mov	 ecx, DWORD PTR [ecx]
  00005	8b 45 08	 mov	 eax, DWORD PTR ___$ReturnUdt$[ebp]
  00008	89 08		 mov	 DWORD PTR [eax], ecx

; 783  : 		}

  0000a	5d		 pop	 ebp
  0000b	c2 04 00	 ret	 4
?begin@?$vector@USelectList@CreateModeSelectList@@V?$allocator@USelectList@CreateModeSelectList@@@std@@@std@@QAE?AV?$_Vector_iterator@V?$_Vector_val@USelectList@CreateModeSelectList@@V?$allocator@USelectList@CreateModeSelectList@@@std@@@std@@@2@XZ ENDP ; std::vector<CreateModeSelectList::SelectList,std::allocator<CreateModeSelectList::SelectList> >::begin
_TEXT	ENDS
PUBLIC	?end@?$vector@USelectList@CreateModeSelectList@@V?$allocator@USelectList@CreateModeSelectList@@@std@@@std@@QAE?AV?$_Vector_iterator@V?$_Vector_val@USelectList@CreateModeSelectList@@V?$allocator@USelectList@CreateModeSelectList@@@std@@@std@@@2@XZ ; std::vector<CreateModeSelectList::SelectList,std::allocator<CreateModeSelectList::SelectList> >::end
; Function compile flags: /Ogsp
;	COMDAT ?end@?$vector@USelectList@CreateModeSelectList@@V?$allocator@USelectList@CreateModeSelectList@@@std@@@std@@QAE?AV?$_Vector_iterator@V?$_Vector_val@USelectList@CreateModeSelectList@@V?$allocator@USelectList@CreateModeSelectList@@@std@@@std@@@2@XZ
_TEXT	SEGMENT
___$ReturnUdt$ = 8					; size = 4
?end@?$vector@USelectList@CreateModeSelectList@@V?$allocator@USelectList@CreateModeSelectList@@@std@@@std@@QAE?AV?$_Vector_iterator@V?$_Vector_val@USelectList@CreateModeSelectList@@V?$allocator@USelectList@CreateModeSelectList@@@std@@@std@@@2@XZ PROC ; std::vector<CreateModeSelectList::SelectList,std::allocator<CreateModeSelectList::SelectList> >::end, COMDAT
; _this$ = ecx

; 791  : 		{	// return iterator for end of mutable sequence

  00000	55		 push	 ebp
  00001	8b ec		 mov	 ebp, esp

; 792  : 		return (iterator(this->_Mylast, this));

  00003	8b 49 04	 mov	 ecx, DWORD PTR [ecx+4]
  00006	8b 45 08	 mov	 eax, DWORD PTR ___$ReturnUdt$[ebp]
  00009	89 08		 mov	 DWORD PTR [eax], ecx

; 793  : 		}

  0000b	5d		 pop	 ebp
  0000c	c2 04 00	 ret	 4
?end@?$vector@USelectList@CreateModeSelectList@@V?$allocator@USelectList@CreateModeSelectList@@@std@@@std@@QAE?AV?$_Vector_iterator@V?$_Vector_val@USelectList@CreateModeSelectList@@V?$allocator@USelectList@CreateModeSelectList@@@std@@@std@@@2@XZ ENDP ; std::vector<CreateModeSelectList::SelectList,std::allocator<CreateModeSelectList::SelectList> >::end
_TEXT	ENDS
PUBLIC	?_Make_iter@?$vector@USelectList@ModeMapSelectList@@V?$allocator@USelectList@ModeMapSelectList@@@std@@@std@@QBE?AV?$_Vector_iterator@V?$_Vector_val@USelectList@ModeMapSelectList@@V?$allocator@USelectList@ModeMapSelectList@@@std@@@std@@@2@V?$_Vector_const_iterator@V?$_Vector_val@USelectList@ModeMapSelectList@@V?$allocator@USelectList@ModeMapSelectList@@@std@@@std@@@2@@Z ; std::vector<ModeMapSelectList::SelectList,std::allocator<ModeMapSelectList::SelectList> >::_Make_iter
; Function compile flags: /Ogsp
;	COMDAT ?_Make_iter@?$vector@USelectList@ModeMapSelectList@@V?$allocator@USelectList@ModeMapSelectList@@@std@@@std@@QBE?AV?$_Vector_iterator@V?$_Vector_val@USelectList@ModeMapSelectList@@V?$allocator@USelectList@ModeMapSelectList@@@std@@@std@@@2@V?$_Vector_const_iterator@V?$_Vector_val@USelectList@ModeMapSelectList@@V?$allocator@USelectList@ModeMapSelectList@@@std@@@std@@@2@@Z
_TEXT	SEGMENT
___$ReturnUdt$ = 8					; size = 4
__Where$ = 12						; size = 4
?_Make_iter@?$vector@USelectList@ModeMapSelectList@@V?$allocator@USelectList@ModeMapSelectList@@@std@@@std@@QBE?AV?$_Vector_iterator@V?$_Vector_val@USelectList@ModeMapSelectList@@V?$allocator@USelectList@ModeMapSelectList@@@std@@@std@@@2@V?$_Vector_const_iterator@V?$_Vector_val@USelectList@ModeMapSelectList@@V?$allocator@USelectList@ModeMapSelectList@@@std@@@std@@@2@@Z PROC ; std::vector<ModeMapSelectList::SelectList,std::allocator<ModeMapSelectList::SelectList> >::_Make_iter, COMDAT
; _this$ = ecx

; 801  : 		{	// make iterator from const_iterator

  00000	55		 push	 ebp
  00001	8b ec		 mov	 ebp, esp

; 802  : 		return (iterator(_Where._Ptr, this));

  00003	8b 45 08	 mov	 eax, DWORD PTR ___$ReturnUdt$[ebp]
  00006	8b 4d 0c	 mov	 ecx, DWORD PTR __Where$[ebp]
  00009	89 08		 mov	 DWORD PTR [eax], ecx

; 803  : 		}

  0000b	5d		 pop	 ebp
  0000c	c2 08 00	 ret	 8
?_Make_iter@?$vector@USelectList@ModeMapSelectList@@V?$allocator@USelectList@ModeMapSelectList@@@std@@@std@@QBE?AV?$_Vector_iterator@V?$_Vector_val@USelectList@ModeMapSelectList@@V?$allocator@USelectList@ModeMapSelectList@@@std@@@std@@@2@V?$_Vector_const_iterator@V?$_Vector_val@USelectList@ModeMapSelectList@@V?$allocator@USelectList@ModeMapSelectList@@@std@@@std@@@2@@Z ENDP ; std::vector<ModeMapSelectList::SelectList,std::allocator<ModeMapSelectList::SelectList> >::_Make_iter
_TEXT	ENDS
PUBLIC	?_Make_iter@?$vector@USelectList@CreateModeSelectList@@V?$allocator@USelectList@CreateModeSelectList@@@std@@@std@@QBE?AV?$_Vector_iterator@V?$_Vector_val@USelectList@CreateModeSelectList@@V?$allocator@USelectList@CreateModeSelectList@@@std@@@std@@@2@V?$_Vector_const_iterator@V?$_Vector_val@USelectList@CreateModeSelectList@@V?$allocator@USelectList@CreateModeSelectList@@@std@@@std@@@2@@Z ; std::vector<CreateModeSelectList::SelectList,std::allocator<CreateModeSelectList::SelectList> >::_Make_iter
; Function compile flags: /Ogsp
;	COMDAT ?_Make_iter@?$vector@USelectList@CreateModeSelectList@@V?$allocator@USelectList@CreateModeSelectList@@@std@@@std@@QBE?AV?$_Vector_iterator@V?$_Vector_val@USelectList@CreateModeSelectList@@V?$allocator@USelectList@CreateModeSelectList@@@std@@@std@@@2@V?$_Vector_const_iterator@V?$_Vector_val@USelectList@CreateModeSelectList@@V?$allocator@USelectList@CreateModeSelectList@@@std@@@std@@@2@@Z
_TEXT	SEGMENT
___$ReturnUdt$ = 8					; size = 4
__Where$ = 12						; size = 4
?_Make_iter@?$vector@USelectList@CreateModeSelectList@@V?$allocator@USelectList@CreateModeSelectList@@@std@@@std@@QBE?AV?$_Vector_iterator@V?$_Vector_val@USelectList@CreateModeSelectList@@V?$allocator@USelectList@CreateModeSelectList@@@std@@@std@@@2@V?$_Vector_const_iterator@V?$_Vector_val@USelectList@CreateModeSelectList@@V?$allocator@USelectList@CreateModeSelectList@@@std@@@std@@@2@@Z PROC ; std::vector<CreateModeSelectList::SelectList,std::allocator<CreateModeSelectList::SelectList> >::_Make_iter, COMDAT
; _this$ = ecx

; 801  : 		{	// make iterator from const_iterator

  00000	55		 push	 ebp
  00001	8b ec		 mov	 ebp, esp

; 802  : 		return (iterator(_Where._Ptr, this));

  00003	8b 45 08	 mov	 eax, DWORD PTR ___$ReturnUdt$[ebp]
  00006	8b 4d 0c	 mov	 ecx, DWORD PTR __Where$[ebp]
  00009	89 08		 mov	 DWORD PTR [eax], ecx

; 803  : 		}

  0000b	5d		 pop	 ebp
  0000c	c2 08 00	 ret	 8
?_Make_iter@?$vector@USelectList@CreateModeSelectList@@V?$allocator@USelectList@CreateModeSelectList@@@std@@@std@@QBE?AV?$_Vector_iterator@V?$_Vector_val@USelectList@CreateModeSelectList@@V?$allocator@USelectList@CreateModeSelectList@@@std@@@std@@@2@V?$_Vector_const_iterator@V?$_Vector_val@USelectList@CreateModeSelectList@@V?$allocator@USelectList@CreateModeSelectList@@@std@@@std@@@2@@Z ENDP ; std::vector<CreateModeSelectList::SelectList,std::allocator<CreateModeSelectList::SelectList> >::_Make_iter
_TEXT	ENDS
PUBLIC	??9?$_Vector_const_iterator@V?$_Vector_val@USelectList@ModeMapSelectList@@V?$allocator@USelectList@ModeMapSelectList@@@std@@@std@@@std@@QBE_NABV01@@Z ; std::_Vector_const_iterator<std::_Vector_val<ModeMapSelectList::SelectList,std::allocator<ModeMapSelectList::SelectList> > >::operator!=
; Function compile flags: /Ogsp
;	COMDAT ??9?$_Vector_const_iterator@V?$_Vector_val@USelectList@ModeMapSelectList@@V?$allocator@USelectList@ModeMapSelectList@@@std@@@std@@@std@@QBE_NABV01@@Z
_TEXT	SEGMENT
__Right$ = 8						; size = 4
??9?$_Vector_const_iterator@V?$_Vector_val@USelectList@ModeMapSelectList@@V?$allocator@USelectList@ModeMapSelectList@@@std@@@std@@@std@@QBE_NABV01@@Z PROC ; std::_Vector_const_iterator<std::_Vector_val<ModeMapSelectList::SelectList,std::allocator<ModeMapSelectList::SelectList> > >::operator!=, COMDAT
; _this$ = ecx

; 207  : 		{	// test for iterator inequality

  00000	55		 push	 ebp
  00001	8b ec		 mov	 ebp, esp

; 208  : 		return (!(*this == _Right));

  00003	8b 01		 mov	 eax, DWORD PTR [ecx]
  00005	8b 55 08	 mov	 edx, DWORD PTR __Right$[ebp]
  00008	33 c9		 xor	 ecx, ecx
  0000a	3b 02		 cmp	 eax, DWORD PTR [edx]
  0000c	0f 95 c0	 setne	 al

; 209  : 		}

  0000f	5d		 pop	 ebp
  00010	c2 04 00	 ret	 4
??9?$_Vector_const_iterator@V?$_Vector_val@USelectList@ModeMapSelectList@@V?$allocator@USelectList@ModeMapSelectList@@@std@@@std@@@std@@QBE_NABV01@@Z ENDP ; std::_Vector_const_iterator<std::_Vector_val<ModeMapSelectList::SelectList,std::allocator<ModeMapSelectList::SelectList> > >::operator!=
_TEXT	ENDS
PUBLIC	??9?$_Vector_const_iterator@V?$_Vector_val@USelectList@CreateModeSelectList@@V?$allocator@USelectList@CreateModeSelectList@@@std@@@std@@@std@@QBE_NABV01@@Z ; std::_Vector_const_iterator<std::_Vector_val<CreateModeSelectList::SelectList,std::allocator<CreateModeSelectList::SelectList> > >::operator!=
; Function compile flags: /Ogsp
;	COMDAT ??9?$_Vector_const_iterator@V?$_Vector_val@USelectList@CreateModeSelectList@@V?$allocator@USelectList@CreateModeSelectList@@@std@@@std@@@std@@QBE_NABV01@@Z
_TEXT	SEGMENT
__Right$ = 8						; size = 4
??9?$_Vector_const_iterator@V?$_Vector_val@USelectList@CreateModeSelectList@@V?$allocator@USelectList@CreateModeSelectList@@@std@@@std@@@std@@QBE_NABV01@@Z PROC ; std::_Vector_const_iterator<std::_Vector_val<CreateModeSelectList::SelectList,std::allocator<CreateModeSelectList::SelectList> > >::operator!=, COMDAT
; _this$ = ecx

; 207  : 		{	// test for iterator inequality

  00000	55		 push	 ebp
  00001	8b ec		 mov	 ebp, esp

; 208  : 		return (!(*this == _Right));

  00003	8b 01		 mov	 eax, DWORD PTR [ecx]
  00005	8b 55 08	 mov	 edx, DWORD PTR __Right$[ebp]
  00008	33 c9		 xor	 ecx, ecx
  0000a	3b 02		 cmp	 eax, DWORD PTR [edx]
  0000c	0f 95 c0	 setne	 al

; 209  : 		}

  0000f	5d		 pop	 ebp
  00010	c2 04 00	 ret	 4
??9?$_Vector_const_iterator@V?$_Vector_val@USelectList@CreateModeSelectList@@V?$allocator@USelectList@CreateModeSelectList@@@std@@@std@@@std@@QBE_NABV01@@Z ENDP ; std::_Vector_const_iterator<std::_Vector_val<CreateModeSelectList::SelectList,std::allocator<CreateModeSelectList::SelectList> > >::operator!=
_TEXT	ENDS
PUBLIC	??$_Cons_val@V?$allocator@USelectList@ModeMapSelectList@@@std@@USelectList@ModeMapSelectList@@AAU34@@std@@YAXAAV?$allocator@USelectList@ModeMapSelectList@@@0@PAUSelectList@ModeMapSelectList@@AAU23@@Z ; std::_Cons_val<std::allocator<ModeMapSelectList::SelectList>,ModeMapSelectList::SelectList,ModeMapSelectList::SelectList &>
;	COMDAT xdata$x
; File c:\program files (x86)\microsoft visual studio 10.0\vc\include\utility
xdata$x	SEGMENT
__unwindtable$??$_Cons_val@V?$allocator@USelectList@ModeMapSelectList@@@std@@USelectList@ModeMapSelectList@@AAU34@@std@@YAXAAV?$allocator@USelectList@ModeMapSelectList@@@0@PAUSelectList@ModeMapSelectList@@AAU23@@Z DD 0ffffffffH
	DD	FLAT:__unwindfunclet$??$_Cons_val@V?$allocator@USelectList@ModeMapSelectList@@@std@@USelectList@ModeMapSelectList@@AAU34@@std@@YAXAAV?$allocator@USelectList@ModeMapSelectList@@@0@PAUSelectList@ModeMapSelectList@@AAU23@@Z$0
__ehfuncinfo$??$_Cons_val@V?$allocator@USelectList@ModeMapSelectList@@@std@@USelectList@ModeMapSelectList@@AAU34@@std@@YAXAAV?$allocator@USelectList@ModeMapSelectList@@@0@PAUSelectList@ModeMapSelectList@@AAU23@@Z DD 019930522H
	DD	01H
	DD	FLAT:__unwindtable$??$_Cons_val@V?$allocator@USelectList@ModeMapSelectList@@@std@@USelectList@ModeMapSelectList@@AAU34@@std@@YAXAAV?$allocator@USelectList@ModeMapSelectList@@@0@PAUSelectList@ModeMapSelectList@@AAU23@@Z
	DD	2 DUP(00H)
	DD	2 DUP(00H)
	DD	00H
	DD	01H
; Function compile flags: /Ogsp
; File c:\program files (x86)\microsoft visual studio 10.0\vc\include\xmemory
xdata$x	ENDS
;	COMDAT ??$_Cons_val@V?$allocator@USelectList@ModeMapSelectList@@@std@@USelectList@ModeMapSelectList@@AAU34@@std@@YAXAAV?$allocator@USelectList@ModeMapSelectList@@@0@PAUSelectList@ModeMapSelectList@@AAU23@@Z
_TEXT	SEGMENT
$T518178 = -16						; size = 4
__$EHRec$ = -12						; size = 12
__Alval$ = 8						; size = 4
__Pdest$ = 12						; size = 4
__Src$ = 16						; size = 4
??$_Cons_val@V?$allocator@USelectList@ModeMapSelectList@@@std@@USelectList@ModeMapSelectList@@AAU34@@std@@YAXAAV?$allocator@USelectList@ModeMapSelectList@@@0@PAUSelectList@ModeMapSelectList@@AAU23@@Z PROC ; std::_Cons_val<std::allocator<ModeMapSelectList::SelectList>,ModeMapSelectList::SelectList,ModeMapSelectList::SelectList &>, COMDAT

; 279  : 	{	// construct using allocator

  00000	6a 04		 push	 4
  00002	b8 00 00 00 00	 mov	 eax, __ehhandler$??$_Cons_val@V?$allocator@USelectList@ModeMapSelectList@@@std@@USelectList@ModeMapSelectList@@AAU34@@std@@YAXAAV?$allocator@USelectList@ModeMapSelectList@@@0@PAUSelectList@ModeMapSelectList@@AAU23@@Z
  00007	e8 00 00 00 00	 call	 __EH_prolog3

; 280  : 	_Alval.construct(_Pdest, _STD forward<_Ty2>(_Src));

  0000c	8b 4d 0c	 mov	 ecx, DWORD PTR __Pdest$[ebp]
  0000f	89 4d f0	 mov	 DWORD PTR $T518178[ebp], ecx
  00012	83 65 fc 00	 and	 DWORD PTR __$EHRec$[ebp+8], 0
  00016	85 c9		 test	 ecx, ecx
  00018	74 08		 je	 SHORT $LN7@Cons_val
  0001a	ff 75 10	 push	 DWORD PTR __Src$[ebp]
  0001d	e8 00 00 00 00	 call	 ??0SelectList@ModeMapSelectList@@QAE@ABU01@@Z
$LN7@Cons_val:

; 281  : 	}

  00022	e8 00 00 00 00	 call	 __EH_epilog3
  00027	c3		 ret	 0
_TEXT	ENDS
;	COMDAT text$x
text$x	SEGMENT
__unwindfunclet$??$_Cons_val@V?$allocator@USelectList@ModeMapSelectList@@@std@@USelectList@ModeMapSelectList@@AAU34@@std@@YAXAAV?$allocator@USelectList@ModeMapSelectList@@@0@PAUSelectList@ModeMapSelectList@@AAU23@@Z$0:
  00000	ff 75 0c	 push	 DWORD PTR __Pdest$[ebp]
  00003	ff 75 f0	 push	 DWORD PTR $T518178[ebp]
  00006	e8 00 00 00 00	 call	 ??3@YAXPAX0@Z		; operator delete
  0000b	59		 pop	 ecx
  0000c	59		 pop	 ecx
  0000d	c3		 ret	 0
__ehhandler$??$_Cons_val@V?$allocator@USelectList@ModeMapSelectList@@@std@@USelectList@ModeMapSelectList@@AAU34@@std@@YAXAAV?$allocator@USelectList@ModeMapSelectList@@@0@PAUSelectList@ModeMapSelectList@@AAU23@@Z:
  0000e	8b 54 24 08	 mov	 edx, DWORD PTR [esp+8]
  00012	8d 42 0c	 lea	 eax, DWORD PTR [edx+12]
  00015	8b 4a ec	 mov	 ecx, DWORD PTR [edx-20]
  00018	33 c8		 xor	 ecx, eax
  0001a	e8 00 00 00 00	 call	 @__security_check_cookie@4
  0001f	b8 00 00 00 00	 mov	 eax, OFFSET __ehfuncinfo$??$_Cons_val@V?$allocator@USelectList@ModeMapSelectList@@@std@@USelectList@ModeMapSelectList@@AAU34@@std@@YAXAAV?$allocator@USelectList@ModeMapSelectList@@@0@PAUSelectList@ModeMapSelectList@@AAU23@@Z
  00024	e9 00 00 00 00	 jmp	 ___CxxFrameHandler3
text$x	ENDS
??$_Cons_val@V?$allocator@USelectList@ModeMapSelectList@@@std@@USelectList@ModeMapSelectList@@AAU34@@std@@YAXAAV?$allocator@USelectList@ModeMapSelectList@@@0@PAUSelectList@ModeMapSelectList@@AAU23@@Z ENDP ; std::_Cons_val<std::allocator<ModeMapSelectList::SelectList>,ModeMapSelectList::SelectList,ModeMapSelectList::SelectList &>
PUBLIC	??$_Cons_val@V?$allocator@USelectList@CreateModeSelectList@@@std@@USelectList@CreateModeSelectList@@AAU34@@std@@YAXAAV?$allocator@USelectList@CreateModeSelectList@@@0@PAUSelectList@CreateModeSelectList@@AAU23@@Z ; std::_Cons_val<std::allocator<CreateModeSelectList::SelectList>,CreateModeSelectList::SelectList,CreateModeSelectList::SelectList &>
;	COMDAT xdata$x
; File c:\program files (x86)\microsoft visual studio 10.0\vc\include\utility
xdata$x	SEGMENT
__unwindtable$??$_Cons_val@V?$allocator@USelectList@CreateModeSelectList@@@std@@USelectList@CreateModeSelectList@@AAU34@@std@@YAXAAV?$allocator@USelectList@CreateModeSelectList@@@0@PAUSelectList@CreateModeSelectList@@AAU23@@Z DD 0ffffffffH
	DD	FLAT:__unwindfunclet$??$_Cons_val@V?$allocator@USelectList@CreateModeSelectList@@@std@@USelectList@CreateModeSelectList@@AAU34@@std@@YAXAAV?$allocator@USelectList@CreateModeSelectList@@@0@PAUSelectList@CreateModeSelectList@@AAU23@@Z$0
__ehfuncinfo$??$_Cons_val@V?$allocator@USelectList@CreateModeSelectList@@@std@@USelectList@CreateModeSelectList@@AAU34@@std@@YAXAAV?$allocator@USelectList@CreateModeSelectList@@@0@PAUSelectList@CreateModeSelectList@@AAU23@@Z DD 019930522H
	DD	01H
	DD	FLAT:__unwindtable$??$_Cons_val@V?$allocator@USelectList@CreateModeSelectList@@@std@@USelectList@CreateModeSelectList@@AAU34@@std@@YAXAAV?$allocator@USelectList@CreateModeSelectList@@@0@PAUSelectList@CreateModeSelectList@@AAU23@@Z
	DD	2 DUP(00H)
	DD	2 DUP(00H)
	DD	00H
	DD	01H
; Function compile flags: /Ogsp
; File c:\program files (x86)\microsoft visual studio 10.0\vc\include\xmemory
xdata$x	ENDS
;	COMDAT ??$_Cons_val@V?$allocator@USelectList@CreateModeSelectList@@@std@@USelectList@CreateModeSelectList@@AAU34@@std@@YAXAAV?$allocator@USelectList@CreateModeSelectList@@@0@PAUSelectList@CreateModeSelectList@@AAU23@@Z
_TEXT	SEGMENT
$T518211 = -16						; size = 4
__$EHRec$ = -12						; size = 12
__Alval$ = 8						; size = 4
__Pdest$ = 12						; size = 4
__Src$ = 16						; size = 4
??$_Cons_val@V?$allocator@USelectList@CreateModeSelectList@@@std@@USelectList@CreateModeSelectList@@AAU34@@std@@YAXAAV?$allocator@USelectList@CreateModeSelectList@@@0@PAUSelectList@CreateModeSelectList@@AAU23@@Z PROC ; std::_Cons_val<std::allocator<CreateModeSelectList::SelectList>,CreateModeSelectList::SelectList,CreateModeSelectList::SelectList &>, COMDAT

; 279  : 	{	// construct using allocator

  00000	6a 04		 push	 4
  00002	b8 00 00 00 00	 mov	 eax, __ehhandler$??$_Cons_val@V?$allocator@USelectList@CreateModeSelectList@@@std@@USelectList@CreateModeSelectList@@AAU34@@std@@YAXAAV?$allocator@USelectList@CreateModeSelectList@@@0@PAUSelectList@CreateModeSelectList@@AAU23@@Z
  00007	e8 00 00 00 00	 call	 __EH_prolog3

; 280  : 	_Alval.construct(_Pdest, _STD forward<_Ty2>(_Src));

  0000c	8b 4d 0c	 mov	 ecx, DWORD PTR __Pdest$[ebp]
  0000f	89 4d f0	 mov	 DWORD PTR $T518211[ebp], ecx
  00012	83 65 fc 00	 and	 DWORD PTR __$EHRec$[ebp+8], 0
  00016	85 c9		 test	 ecx, ecx
  00018	74 08		 je	 SHORT $LN7@Cons_val@2
  0001a	ff 75 10	 push	 DWORD PTR __Src$[ebp]
  0001d	e8 00 00 00 00	 call	 ??0SelectList@CreateModeSelectList@@QAE@ABU01@@Z
$LN7@Cons_val@2:

; 281  : 	}

  00022	e8 00 00 00 00	 call	 __EH_epilog3
  00027	c3		 ret	 0
_TEXT	ENDS
;	COMDAT text$x
text$x	SEGMENT
__unwindfunclet$??$_Cons_val@V?$allocator@USelectList@CreateModeSelectList@@@std@@USelectList@CreateModeSelectList@@AAU34@@std@@YAXAAV?$allocator@USelectList@CreateModeSelectList@@@0@PAUSelectList@CreateModeSelectList@@AAU23@@Z$0:
  00000	ff 75 0c	 push	 DWORD PTR __Pdest$[ebp]
  00003	ff 75 f0	 push	 DWORD PTR $T518211[ebp]
  00006	e8 00 00 00 00	 call	 ??3@YAXPAX0@Z		; operator delete
  0000b	59		 pop	 ecx
  0000c	59		 pop	 ecx
  0000d	c3		 ret	 0
__ehhandler$??$_Cons_val@V?$allocator@USelectList@CreateModeSelectList@@@std@@USelectList@CreateModeSelectList@@AAU34@@std@@YAXAAV?$allocator@USelectList@CreateModeSelectList@@@0@PAUSelectList@CreateModeSelectList@@AAU23@@Z:
  0000e	8b 54 24 08	 mov	 edx, DWORD PTR [esp+8]
  00012	8d 42 0c	 lea	 eax, DWORD PTR [edx+12]
  00015	8b 4a ec	 mov	 ecx, DWORD PTR [edx-20]
  00018	33 c8		 xor	 ecx, eax
  0001a	e8 00 00 00 00	 call	 @__security_check_cookie@4
  0001f	b8 00 00 00 00	 mov	 eax, OFFSET __ehfuncinfo$??$_Cons_val@V?$allocator@USelectList@CreateModeSelectList@@@std@@USelectList@CreateModeSelectList@@AAU34@@std@@YAXAAV?$allocator@USelectList@CreateModeSelectList@@@0@PAUSelectList@CreateModeSelectList@@AAU23@@Z
  00024	e9 00 00 00 00	 jmp	 ___CxxFrameHandler3
text$x	ENDS
??$_Cons_val@V?$allocator@USelectList@CreateModeSelectList@@@std@@USelectList@CreateModeSelectList@@AAU34@@std@@YAXAAV?$allocator@USelectList@CreateModeSelectList@@@0@PAUSelectList@CreateModeSelectList@@AAU23@@Z ENDP ; std::_Cons_val<std::allocator<CreateModeSelectList::SelectList>,CreateModeSelectList::SelectList,CreateModeSelectList::SelectList &>
PUBLIC	??$_Move@PAUSelectList@ModeMapSelectList@@PAU12@@std@@YAPAUSelectList@ModeMapSelectList@@PAU12@00@Z ; std::_Move<ModeMapSelectList::SelectList *,ModeMapSelectList::SelectList *>
; Function compile flags: /Ogsp
; File c:\program files (x86)\microsoft visual studio 10.0\vc\include\xutility
;	COMDAT ??$_Move@PAUSelectList@ModeMapSelectList@@PAU12@@std@@YAPAUSelectList@ModeMapSelectList@@PAU12@00@Z
_TEXT	SEGMENT
__Cat$518231 = -4					; size = 1
__First$ = 8						; size = 4
__Last$ = 12						; size = 4
__Dest$ = 16						; size = 4
??$_Move@PAUSelectList@ModeMapSelectList@@PAU12@@std@@YAPAUSelectList@ModeMapSelectList@@PAU12@00@Z PROC ; std::_Move<ModeMapSelectList::SelectList *,ModeMapSelectList::SelectList *>, COMDAT

; 2533 : 	{	// move [_First, _Last) to [_Dest, ...), unchecked

  00000	55		 push	 ebp
  00001	8b ec		 mov	 ebp, esp
  00003	51		 push	 ecx

; 2534 : 	return (_Move(_First, _Last,
; 2535 : 		_Dest, _Ptr_cat(_First, _Dest)));

  00004	ff 75 fc	 push	 DWORD PTR __Cat$518231[ebp]
  00007	ff 75 10	 push	 DWORD PTR __Dest$[ebp]
  0000a	ff 75 0c	 push	 DWORD PTR __Last$[ebp]
  0000d	ff 75 08	 push	 DWORD PTR __First$[ebp]
  00010	e8 00 00 00 00	 call	 ??$_Move@PAUSelectList@ModeMapSelectList@@PAU12@@std@@YAPAUSelectList@ModeMapSelectList@@PAU12@00U_Nonscalar_ptr_iterator_tag@0@@Z ; std::_Move<ModeMapSelectList::SelectList *,ModeMapSelectList::SelectList *>
  00015	83 c4 10	 add	 esp, 16			; 00000010H

; 2536 : 	}

  00018	c9		 leave
  00019	c3		 ret	 0
??$_Move@PAUSelectList@ModeMapSelectList@@PAU12@@std@@YAPAUSelectList@ModeMapSelectList@@PAU12@00@Z ENDP ; std::_Move<ModeMapSelectList::SelectList *,ModeMapSelectList::SelectList *>
_TEXT	ENDS
PUBLIC	??$_Move@PAUSelectList@CreateModeSelectList@@PAU12@@std@@YAPAUSelectList@CreateModeSelectList@@PAU12@00@Z ; std::_Move<CreateModeSelectList::SelectList *,CreateModeSelectList::SelectList *>
; Function compile flags: /Ogsp
;	COMDAT ??$_Move@PAUSelectList@CreateModeSelectList@@PAU12@@std@@YAPAUSelectList@CreateModeSelectList@@PAU12@00@Z
_TEXT	SEGMENT
__Cat$518238 = -4					; size = 1
__First$ = 8						; size = 4
__Last$ = 12						; size = 4
__Dest$ = 16						; size = 4
??$_Move@PAUSelectList@CreateModeSelectList@@PAU12@@std@@YAPAUSelectList@CreateModeSelectList@@PAU12@00@Z PROC ; std::_Move<CreateModeSelectList::SelectList *,CreateModeSelectList::SelectList *>, COMDAT

; 2533 : 	{	// move [_First, _Last) to [_Dest, ...), unchecked

  00000	55		 push	 ebp
  00001	8b ec		 mov	 ebp, esp
  00003	51		 push	 ecx

; 2534 : 	return (_Move(_First, _Last,
; 2535 : 		_Dest, _Ptr_cat(_First, _Dest)));

  00004	ff 75 fc	 push	 DWORD PTR __Cat$518238[ebp]
  00007	ff 75 10	 push	 DWORD PTR __Dest$[ebp]
  0000a	ff 75 0c	 push	 DWORD PTR __Last$[ebp]
  0000d	ff 75 08	 push	 DWORD PTR __First$[ebp]
  00010	e8 00 00 00 00	 call	 ??$_Move@PAUSelectList@CreateModeSelectList@@PAU12@@std@@YAPAUSelectList@CreateModeSelectList@@PAU12@00U_Nonscalar_ptr_iterator_tag@0@@Z ; std::_Move<CreateModeSelectList::SelectList *,CreateModeSelectList::SelectList *>
  00015	83 c4 10	 add	 esp, 16			; 00000010H

; 2536 : 	}

  00018	c9		 leave
  00019	c3		 ret	 0
??$_Move@PAUSelectList@CreateModeSelectList@@PAU12@@std@@YAPAUSelectList@CreateModeSelectList@@PAU12@00@Z ENDP ; std::_Move<CreateModeSelectList::SelectList *,CreateModeSelectList::SelectList *>
_TEXT	ENDS
PUBLIC	?construct@?$allocator@USelectList@ModeMapSelectList@@@std@@QAEXPAUSelectList@ModeMapSelectList@@ABU34@@Z ; std::allocator<ModeMapSelectList::SelectList>::construct
; Function compile flags: /Ogsp
; File c:\program files (x86)\microsoft visual studio 10.0\vc\include\xmemory
;	COMDAT ?construct@?$allocator@USelectList@ModeMapSelectList@@@std@@QAEXPAUSelectList@ModeMapSelectList@@ABU34@@Z
_TEXT	SEGMENT
__Ptr$ = 8						; size = 4
__Val$ = 12						; size = 4
?construct@?$allocator@USelectList@ModeMapSelectList@@@std@@QAEXPAUSelectList@ModeMapSelectList@@ABU34@@Z PROC ; std::allocator<ModeMapSelectList::SelectList>::construct, COMDAT
; _this$ = ecx

; 196  : 		{	// construct object at _Ptr with value _Val

  00000	55		 push	 ebp
  00001	8b ec		 mov	 ebp, esp

; 197  : 		_Construct(_Ptr, _Val);

  00003	ff 75 0c	 push	 DWORD PTR __Val$[ebp]
  00006	ff 75 08	 push	 DWORD PTR __Ptr$[ebp]
  00009	e8 00 00 00 00	 call	 ??$_Construct@USelectList@ModeMapSelectList@@ABU12@@std@@YAXPAUSelectList@ModeMapSelectList@@ABU12@@Z ; std::_Construct<ModeMapSelectList::SelectList,ModeMapSelectList::SelectList const &>
  0000e	59		 pop	 ecx
  0000f	59		 pop	 ecx

; 198  : 		}

  00010	5d		 pop	 ebp
  00011	c2 08 00	 ret	 8
?construct@?$allocator@USelectList@ModeMapSelectList@@@std@@QAEXPAUSelectList@ModeMapSelectList@@ABU34@@Z ENDP ; std::allocator<ModeMapSelectList::SelectList>::construct
_TEXT	ENDS
PUBLIC	?construct@?$allocator@USelectList@CreateModeSelectList@@@std@@QAEXPAUSelectList@CreateModeSelectList@@ABU34@@Z ; std::allocator<CreateModeSelectList::SelectList>::construct
; Function compile flags: /Ogsp
;	COMDAT ?construct@?$allocator@USelectList@CreateModeSelectList@@@std@@QAEXPAUSelectList@CreateModeSelectList@@ABU34@@Z
_TEXT	SEGMENT
__Ptr$ = 8						; size = 4
__Val$ = 12						; size = 4
?construct@?$allocator@USelectList@CreateModeSelectList@@@std@@QAEXPAUSelectList@CreateModeSelectList@@ABU34@@Z PROC ; std::allocator<CreateModeSelectList::SelectList>::construct, COMDAT
; _this$ = ecx

; 196  : 		{	// construct object at _Ptr with value _Val

  00000	55		 push	 ebp
  00001	8b ec		 mov	 ebp, esp

; 197  : 		_Construct(_Ptr, _Val);

  00003	ff 75 0c	 push	 DWORD PTR __Val$[ebp]
  00006	ff 75 08	 push	 DWORD PTR __Ptr$[ebp]
  00009	e8 00 00 00 00	 call	 ??$_Construct@USelectList@CreateModeSelectList@@ABU12@@std@@YAXPAUSelectList@CreateModeSelectList@@ABU12@@Z ; std::_Construct<CreateModeSelectList::SelectList,CreateModeSelectList::SelectList const &>
  0000e	59		 pop	 ecx
  0000f	59		 pop	 ecx

; 198  : 		}

  00010	5d		 pop	 ebp
  00011	c2 08 00	 ret	 8
?construct@?$allocator@USelectList@CreateModeSelectList@@@std@@QAEXPAUSelectList@CreateModeSelectList@@ABU34@@Z ENDP ; std::allocator<CreateModeSelectList::SelectList>::construct
_TEXT	ENDS
PUBLIC	?destroy@?$allocator@USelectList@ModeMapSelectList@@@std@@QAEXPAUSelectList@ModeMapSelectList@@@Z ; std::allocator<ModeMapSelectList::SelectList>::destroy
; Function compile flags: /Ogsp
;	COMDAT ?destroy@?$allocator@USelectList@ModeMapSelectList@@@std@@QAEXPAUSelectList@ModeMapSelectList@@@Z
_TEXT	SEGMENT
__Ptr$ = 8						; size = 4
?destroy@?$allocator@USelectList@ModeMapSelectList@@@std@@QAEXPAUSelectList@ModeMapSelectList@@@Z PROC ; std::allocator<ModeMapSelectList::SelectList>::destroy, COMDAT
; _this$ = ecx

; 212  : 		{	// destroy object at _Ptr

  00000	55		 push	 ebp
  00001	8b ec		 mov	 ebp, esp

; 213  : 		_Destroy(_Ptr);

  00003	8b 4d 08	 mov	 ecx, DWORD PTR __Ptr$[ebp]
  00006	83 c1 10	 add	 ecx, 16			; 00000010H
  00009	ff 15 00 00 00
	00		 call	 DWORD PTR __imp_??1ioHashString@@QAE@XZ

; 214  : 		}

  0000f	5d		 pop	 ebp
  00010	c2 04 00	 ret	 4
?destroy@?$allocator@USelectList@ModeMapSelectList@@@std@@QAEXPAUSelectList@ModeMapSelectList@@@Z ENDP ; std::allocator<ModeMapSelectList::SelectList>::destroy
_TEXT	ENDS
PUBLIC	?destroy@?$allocator@USelectList@CreateModeSelectList@@@std@@QAEXPAUSelectList@CreateModeSelectList@@@Z ; std::allocator<CreateModeSelectList::SelectList>::destroy
; Function compile flags: /Ogsp
;	COMDAT ?destroy@?$allocator@USelectList@CreateModeSelectList@@@std@@QAEXPAUSelectList@CreateModeSelectList@@@Z
_TEXT	SEGMENT
__Ptr$ = 8						; size = 4
?destroy@?$allocator@USelectList@CreateModeSelectList@@@std@@QAEXPAUSelectList@CreateModeSelectList@@@Z PROC ; std::allocator<CreateModeSelectList::SelectList>::destroy, COMDAT
; _this$ = ecx

; 212  : 		{	// destroy object at _Ptr

  00000	55		 push	 ebp
  00001	8b ec		 mov	 ebp, esp

; 213  : 		_Destroy(_Ptr);

  00003	8b 4d 08	 mov	 ecx, DWORD PTR __Ptr$[ebp]
  00006	83 c1 0c	 add	 ecx, 12			; 0000000cH
  00009	ff 15 00 00 00
	00		 call	 DWORD PTR __imp_??1ioHashString@@QAE@XZ

; 214  : 		}

  0000f	5d		 pop	 ebp
  00010	c2 04 00	 ret	 4
?destroy@?$allocator@USelectList@CreateModeSelectList@@@std@@QAEXPAUSelectList@CreateModeSelectList@@@Z ENDP ; std::allocator<CreateModeSelectList::SelectList>::destroy
_TEXT	ENDS
PUBLIC	??$_Cons_val@V?$allocator@USelectList@ModeMapSelectList@@@std@@USelectList@ModeMapSelectList@@U34@@std@@YAXAAV?$allocator@USelectList@ModeMapSelectList@@@0@PAUSelectList@ModeMapSelectList@@$$QAU23@@Z ; std::_Cons_val<std::allocator<ModeMapSelectList::SelectList>,ModeMapSelectList::SelectList,ModeMapSelectList::SelectList>
;	COMDAT xdata$x
; File c:\program files (x86)\microsoft visual studio 10.0\vc\include\utility
xdata$x	SEGMENT
__unwindtable$??$_Cons_val@V?$allocator@USelectList@ModeMapSelectList@@@std@@USelectList@ModeMapSelectList@@U34@@std@@YAXAAV?$allocator@USelectList@ModeMapSelectList@@@0@PAUSelectList@ModeMapSelectList@@$$QAU23@@Z DD 0ffffffffH
	DD	FLAT:__unwindfunclet$??$_Cons_val@V?$allocator@USelectList@ModeMapSelectList@@@std@@USelectList@ModeMapSelectList@@U34@@std@@YAXAAV?$allocator@USelectList@ModeMapSelectList@@@0@PAUSelectList@ModeMapSelectList@@$$QAU23@@Z$0
__ehfuncinfo$??$_Cons_val@V?$allocator@USelectList@ModeMapSelectList@@@std@@USelectList@ModeMapSelectList@@U34@@std@@YAXAAV?$allocator@USelectList@ModeMapSelectList@@@0@PAUSelectList@ModeMapSelectList@@$$QAU23@@Z DD 019930522H
	DD	01H
	DD	FLAT:__unwindtable$??$_Cons_val@V?$allocator@USelectList@ModeMapSelectList@@@std@@USelectList@ModeMapSelectList@@U34@@std@@YAXAAV?$allocator@USelectList@ModeMapSelectList@@@0@PAUSelectList@ModeMapSelectList@@$$QAU23@@Z
	DD	2 DUP(00H)
	DD	2 DUP(00H)
	DD	00H
	DD	01H
; Function compile flags: /Ogsp
; File c:\program files (x86)\microsoft visual studio 10.0\vc\include\xmemory
xdata$x	ENDS
;	COMDAT ??$_Cons_val@V?$allocator@USelectList@ModeMapSelectList@@@std@@USelectList@ModeMapSelectList@@U34@@std@@YAXAAV?$allocator@USelectList@ModeMapSelectList@@@0@PAUSelectList@ModeMapSelectList@@$$QAU23@@Z
_TEXT	SEGMENT
$T518302 = -16						; size = 4
__$EHRec$ = -12						; size = 12
__Alval$ = 8						; size = 4
__Pdest$ = 12						; size = 4
__Src$ = 16						; size = 4
??$_Cons_val@V?$allocator@USelectList@ModeMapSelectList@@@std@@USelectList@ModeMapSelectList@@U34@@std@@YAXAAV?$allocator@USelectList@ModeMapSelectList@@@0@PAUSelectList@ModeMapSelectList@@$$QAU23@@Z PROC ; std::_Cons_val<std::allocator<ModeMapSelectList::SelectList>,ModeMapSelectList::SelectList,ModeMapSelectList::SelectList>, COMDAT

; 279  : 	{	// construct using allocator

  00000	6a 04		 push	 4
  00002	b8 00 00 00 00	 mov	 eax, __ehhandler$??$_Cons_val@V?$allocator@USelectList@ModeMapSelectList@@@std@@USelectList@ModeMapSelectList@@U34@@std@@YAXAAV?$allocator@USelectList@ModeMapSelectList@@@0@PAUSelectList@ModeMapSelectList@@$$QAU23@@Z
  00007	e8 00 00 00 00	 call	 __EH_prolog3

; 280  : 	_Alval.construct(_Pdest, _STD forward<_Ty2>(_Src));

  0000c	8b 4d 0c	 mov	 ecx, DWORD PTR __Pdest$[ebp]
  0000f	89 4d f0	 mov	 DWORD PTR $T518302[ebp], ecx
  00012	83 65 fc 00	 and	 DWORD PTR __$EHRec$[ebp+8], 0
  00016	85 c9		 test	 ecx, ecx
  00018	74 08		 je	 SHORT $LN7@Cons_val@3
  0001a	ff 75 10	 push	 DWORD PTR __Src$[ebp]
  0001d	e8 00 00 00 00	 call	 ??0SelectList@ModeMapSelectList@@QAE@ABU01@@Z
$LN7@Cons_val@3:

; 281  : 	}

  00022	e8 00 00 00 00	 call	 __EH_epilog3
  00027	c3		 ret	 0
_TEXT	ENDS
;	COMDAT text$x
text$x	SEGMENT
__unwindfunclet$??$_Cons_val@V?$allocator@USelectList@ModeMapSelectList@@@std@@USelectList@ModeMapSelectList@@U34@@std@@YAXAAV?$allocator@USelectList@ModeMapSelectList@@@0@PAUSelectList@ModeMapSelectList@@$$QAU23@@Z$0:
  00000	ff 75 0c	 push	 DWORD PTR __Pdest$[ebp]
  00003	ff 75 f0	 push	 DWORD PTR $T518302[ebp]
  00006	e8 00 00 00 00	 call	 ??3@YAXPAX0@Z		; operator delete
  0000b	59		 pop	 ecx
  0000c	59		 pop	 ecx
  0000d	c3		 ret	 0
__ehhandler$??$_Cons_val@V?$allocator@USelectList@ModeMapSelectList@@@std@@USelectList@ModeMapSelectList@@U34@@std@@YAXAAV?$allocator@USelectList@ModeMapSelectList@@@0@PAUSelectList@ModeMapSelectList@@$$QAU23@@Z:
  0000e	8b 54 24 08	 mov	 edx, DWORD PTR [esp+8]
  00012	8d 42 0c	 lea	 eax, DWORD PTR [edx+12]
  00015	8b 4a ec	 mov	 ecx, DWORD PTR [edx-20]
  00018	33 c8		 xor	 ecx, eax
  0001a	e8 00 00 00 00	 call	 @__security_check_cookie@4
  0001f	b8 00 00 00 00	 mov	 eax, OFFSET __ehfuncinfo$??$_Cons_val@V?$allocator@USelectList@ModeMapSelectList@@@std@@USelectList@ModeMapSelectList@@U34@@std@@YAXAAV?$allocator@USelectList@ModeMapSelectList@@@0@PAUSelectList@ModeMapSelectList@@$$QAU23@@Z
  00024	e9 00 00 00 00	 jmp	 ___CxxFrameHandler3
text$x	ENDS
??$_Cons_val@V?$allocator@USelectList@ModeMapSelectList@@@std@@USelectList@ModeMapSelectList@@U34@@std@@YAXAAV?$allocator@USelectList@ModeMapSelectList@@@0@PAUSelectList@ModeMapSelectList@@$$QAU23@@Z ENDP ; std::_Cons_val<std::allocator<ModeMapSelectList::SelectList>,ModeMapSelectList::SelectList,ModeMapSelectList::SelectList>
PUBLIC	??$_Cons_val@V?$allocator@USelectList@CreateModeSelectList@@@std@@USelectList@CreateModeSelectList@@U34@@std@@YAXAAV?$allocator@USelectList@CreateModeSelectList@@@0@PAUSelectList@CreateModeSelectList@@$$QAU23@@Z ; std::_Cons_val<std::allocator<CreateModeSelectList::SelectList>,CreateModeSelectList::SelectList,CreateModeSelectList::SelectList>
;	COMDAT xdata$x
; File c:\program files (x86)\microsoft visual studio 10.0\vc\include\utility
xdata$x	SEGMENT
__unwindtable$??$_Cons_val@V?$allocator@USelectList@CreateModeSelectList@@@std@@USelectList@CreateModeSelectList@@U34@@std@@YAXAAV?$allocator@USelectList@CreateModeSelectList@@@0@PAUSelectList@CreateModeSelectList@@$$QAU23@@Z DD 0ffffffffH
	DD	FLAT:__unwindfunclet$??$_Cons_val@V?$allocator@USelectList@CreateModeSelectList@@@std@@USelectList@CreateModeSelectList@@U34@@std@@YAXAAV?$allocator@USelectList@CreateModeSelectList@@@0@PAUSelectList@CreateModeSelectList@@$$QAU23@@Z$0
__ehfuncinfo$??$_Cons_val@V?$allocator@USelectList@CreateModeSelectList@@@std@@USelectList@CreateModeSelectList@@U34@@std@@YAXAAV?$allocator@USelectList@CreateModeSelectList@@@0@PAUSelectList@CreateModeSelectList@@$$QAU23@@Z DD 019930522H
	DD	01H
	DD	FLAT:__unwindtable$??$_Cons_val@V?$allocator@USelectList@CreateModeSelectList@@@std@@USelectList@CreateModeSelectList@@U34@@std@@YAXAAV?$allocator@USelectList@CreateModeSelectList@@@0@PAUSelectList@CreateModeSelectList@@$$QAU23@@Z
	DD	2 DUP(00H)
	DD	2 DUP(00H)
	DD	00H
	DD	01H
; Function compile flags: /Ogsp
; File c:\program files (x86)\microsoft visual studio 10.0\vc\include\xmemory
xdata$x	ENDS
;	COMDAT ??$_Cons_val@V?$allocator@USelectList@CreateModeSelectList@@@std@@USelectList@CreateModeSelectList@@U34@@std@@YAXAAV?$allocator@USelectList@CreateModeSelectList@@@0@PAUSelectList@CreateModeSelectList@@$$QAU23@@Z
_TEXT	SEGMENT
$T518335 = -16						; size = 4
__$EHRec$ = -12						; size = 12
__Alval$ = 8						; size = 4
__Pdest$ = 12						; size = 4
__Src$ = 16						; size = 4
??$_Cons_val@V?$allocator@USelectList@CreateModeSelectList@@@std@@USelectList@CreateModeSelectList@@U34@@std@@YAXAAV?$allocator@USelectList@CreateModeSelectList@@@0@PAUSelectList@CreateModeSelectList@@$$QAU23@@Z PROC ; std::_Cons_val<std::allocator<CreateModeSelectList::SelectList>,CreateModeSelectList::SelectList,CreateModeSelectList::SelectList>, COMDAT

; 279  : 	{	// construct using allocator

  00000	6a 04		 push	 4
  00002	b8 00 00 00 00	 mov	 eax, __ehhandler$??$_Cons_val@V?$allocator@USelectList@CreateModeSelectList@@@std@@USelectList@CreateModeSelectList@@U34@@std@@YAXAAV?$allocator@USelectList@CreateModeSelectList@@@0@PAUSelectList@CreateModeSelectList@@$$QAU23@@Z
  00007	e8 00 00 00 00	 call	 __EH_prolog3

; 280  : 	_Alval.construct(_Pdest, _STD forward<_Ty2>(_Src));

  0000c	8b 4d 0c	 mov	 ecx, DWORD PTR __Pdest$[ebp]
  0000f	89 4d f0	 mov	 DWORD PTR $T518335[ebp], ecx
  00012	83 65 fc 00	 and	 DWORD PTR __$EHRec$[ebp+8], 0
  00016	85 c9		 test	 ecx, ecx
  00018	74 08		 je	 SHORT $LN7@Cons_val@4
  0001a	ff 75 10	 push	 DWORD PTR __Src$[ebp]
  0001d	e8 00 00 00 00	 call	 ??0SelectList@CreateModeSelectList@@QAE@ABU01@@Z
$LN7@Cons_val@4:

; 281  : 	}

  00022	e8 00 00 00 00	 call	 __EH_epilog3
  00027	c3		 ret	 0
_TEXT	ENDS
;	COMDAT text$x
text$x	SEGMENT
__unwindfunclet$??$_Cons_val@V?$allocator@USelectList@CreateModeSelectList@@@std@@USelectList@CreateModeSelectList@@U34@@std@@YAXAAV?$allocator@USelectList@CreateModeSelectList@@@0@PAUSelectList@CreateModeSelectList@@$$QAU23@@Z$0:
  00000	ff 75 0c	 push	 DWORD PTR __Pdest$[ebp]
  00003	ff 75 f0	 push	 DWORD PTR $T518335[ebp]
  00006	e8 00 00 00 00	 call	 ??3@YAXPAX0@Z		; operator delete
  0000b	59		 pop	 ecx
  0000c	59		 pop	 ecx
  0000d	c3		 ret	 0
__ehhandler$??$_Cons_val@V?$allocator@USelectList@CreateModeSelectList@@@std@@USelectList@CreateModeSelectList@@U34@@std@@YAXAAV?$allocator@USelectList@CreateModeSelectList@@@0@PAUSelectList@CreateModeSelectList@@$$QAU23@@Z:
  0000e	8b 54 24 08	 mov	 edx, DWORD PTR [esp+8]
  00012	8d 42 0c	 lea	 eax, DWORD PTR [edx+12]
  00015	8b 4a ec	 mov	 ecx, DWORD PTR [edx-20]
  00018	33 c8		 xor	 ecx, eax
  0001a	e8 00 00 00 00	 call	 @__security_check_cookie@4
  0001f	b8 00 00 00 00	 mov	 eax, OFFSET __ehfuncinfo$??$_Cons_val@V?$allocator@USelectList@CreateModeSelectList@@@std@@USelectList@CreateModeSelectList@@U34@@std@@YAXAAV?$allocator@USelectList@CreateModeSelectList@@@0@PAUSelectList@CreateModeSelectList@@$$QAU23@@Z
  00024	e9 00 00 00 00	 jmp	 ___CxxFrameHandler3
text$x	ENDS
??$_Cons_val@V?$allocator@USelectList@CreateModeSelectList@@@std@@USelectList@CreateModeSelectList@@U34@@std@@YAXAAV?$allocator@USelectList@CreateModeSelectList@@@0@PAUSelectList@CreateModeSelectList@@$$QAU23@@Z ENDP ; std::_Cons_val<std::allocator<CreateModeSelectList::SelectList>,CreateModeSelectList::SelectList,CreateModeSelectList::SelectList>
PUBLIC	??$_Cons_val@V?$allocator@USelectList@ModeMapSelectList@@@std@@USelectList@ModeMapSelectList@@ABU34@@std@@YAXAAV?$allocator@USelectList@ModeMapSelectList@@@0@PAUSelectList@ModeMapSelectList@@ABU23@@Z ; std::_Cons_val<std::allocator<ModeMapSelectList::SelectList>,ModeMapSelectList::SelectList,ModeMapSelectList::SelectList const &>
; Function compile flags: /Ogsp
;	COMDAT ??$_Cons_val@V?$allocator@USelectList@ModeMapSelectList@@@std@@USelectList@ModeMapSelectList@@ABU34@@std@@YAXAAV?$allocator@USelectList@ModeMapSelectList@@@0@PAUSelectList@ModeMapSelectList@@ABU23@@Z
_TEXT	SEGMENT
__Alval$ = 8						; size = 4
__Pdest$ = 12						; size = 4
__Src$ = 16						; size = 4
??$_Cons_val@V?$allocator@USelectList@ModeMapSelectList@@@std@@USelectList@ModeMapSelectList@@ABU34@@std@@YAXAAV?$allocator@USelectList@ModeMapSelectList@@@0@PAUSelectList@ModeMapSelectList@@ABU23@@Z PROC ; std::_Cons_val<std::allocator<ModeMapSelectList::SelectList>,ModeMapSelectList::SelectList,ModeMapSelectList::SelectList const &>, COMDAT

; 279  : 	{	// construct using allocator

  00000	55		 push	 ebp
  00001	8b ec		 mov	 ebp, esp

; 280  : 	_Alval.construct(_Pdest, _STD forward<_Ty2>(_Src));

  00003	ff 75 10	 push	 DWORD PTR __Src$[ebp]
  00006	ff 75 0c	 push	 DWORD PTR __Pdest$[ebp]
  00009	e8 00 00 00 00	 call	 ??$_Construct@USelectList@ModeMapSelectList@@ABU12@@std@@YAXPAUSelectList@ModeMapSelectList@@ABU12@@Z ; std::_Construct<ModeMapSelectList::SelectList,ModeMapSelectList::SelectList const &>
  0000e	59		 pop	 ecx
  0000f	59		 pop	 ecx

; 281  : 	}

  00010	5d		 pop	 ebp
  00011	c3		 ret	 0
??$_Cons_val@V?$allocator@USelectList@ModeMapSelectList@@@std@@USelectList@ModeMapSelectList@@ABU34@@std@@YAXAAV?$allocator@USelectList@ModeMapSelectList@@@0@PAUSelectList@ModeMapSelectList@@ABU23@@Z ENDP ; std::_Cons_val<std::allocator<ModeMapSelectList::SelectList>,ModeMapSelectList::SelectList,ModeMapSelectList::SelectList const &>
_TEXT	ENDS
PUBLIC	??$_Cons_val@V?$allocator@USelectList@CreateModeSelectList@@@std@@USelectList@CreateModeSelectList@@ABU34@@std@@YAXAAV?$allocator@USelectList@CreateModeSelectList@@@0@PAUSelectList@CreateModeSelectList@@ABU23@@Z ; std::_Cons_val<std::allocator<CreateModeSelectList::SelectList>,CreateModeSelectList::SelectList,CreateModeSelectList::SelectList const &>
; Function compile flags: /Ogsp
;	COMDAT ??$_Cons_val@V?$allocator@USelectList@CreateModeSelectList@@@std@@USelectList@CreateModeSelectList@@ABU34@@std@@YAXAAV?$allocator@USelectList@CreateModeSelectList@@@0@PAUSelectList@CreateModeSelectList@@ABU23@@Z
_TEXT	SEGMENT
__Alval$ = 8						; size = 4
__Pdest$ = 12						; size = 4
__Src$ = 16						; size = 4
??$_Cons_val@V?$allocator@USelectList@CreateModeSelectList@@@std@@USelectList@CreateModeSelectList@@ABU34@@std@@YAXAAV?$allocator@USelectList@CreateModeSelectList@@@0@PAUSelectList@CreateModeSelectList@@ABU23@@Z PROC ; std::_Cons_val<std::allocator<CreateModeSelectList::SelectList>,CreateModeSelectList::SelectList,CreateModeSelectList::SelectList const &>, COMDAT

; 279  : 	{	// construct using allocator

  00000	55		 push	 ebp
  00001	8b ec		 mov	 ebp, esp

; 280  : 	_Alval.construct(_Pdest, _STD forward<_Ty2>(_Src));

  00003	ff 75 10	 push	 DWORD PTR __Src$[ebp]
  00006	ff 75 0c	 push	 DWORD PTR __Pdest$[ebp]
  00009	e8 00 00 00 00	 call	 ??$_Construct@USelectList@CreateModeSelectList@@ABU12@@std@@YAXPAUSelectList@CreateModeSelectList@@ABU12@@Z ; std::_Construct<CreateModeSelectList::SelectList,CreateModeSelectList::SelectList const &>
  0000e	59		 pop	 ecx
  0000f	59		 pop	 ecx

; 281  : 	}

  00010	5d		 pop	 ebp
  00011	c3		 ret	 0
??$_Cons_val@V?$allocator@USelectList@CreateModeSelectList@@@std@@USelectList@CreateModeSelectList@@ABU34@@std@@YAXAAV?$allocator@USelectList@CreateModeSelectList@@@0@PAUSelectList@CreateModeSelectList@@ABU23@@Z ENDP ; std::_Cons_val<std::allocator<CreateModeSelectList::SelectList>,CreateModeSelectList::SelectList,CreateModeSelectList::SelectList const &>
_TEXT	ENDS
PUBLIC	??$_Dest_val@V?$allocator@USelectList@ModeMapSelectList@@@std@@USelectList@ModeMapSelectList@@@std@@YAXAAV?$allocator@USelectList@ModeMapSelectList@@@0@PAUSelectList@ModeMapSelectList@@@Z ; std::_Dest_val<std::allocator<ModeMapSelectList::SelectList>,ModeMapSelectList::SelectList>
; Function compile flags: /Ogsp
;	COMDAT ??$_Dest_val@V?$allocator@USelectList@ModeMapSelectList@@@std@@USelectList@ModeMapSelectList@@@std@@YAXAAV?$allocator@USelectList@ModeMapSelectList@@@0@PAUSelectList@ModeMapSelectList@@@Z
_TEXT	SEGMENT
__Alval$ = 8						; size = 4
__Pdest$ = 12						; size = 4
??$_Dest_val@V?$allocator@USelectList@ModeMapSelectList@@@std@@USelectList@ModeMapSelectList@@@std@@YAXAAV?$allocator@USelectList@ModeMapSelectList@@@0@PAUSelectList@ModeMapSelectList@@@Z PROC ; std::_Dest_val<std::allocator<ModeMapSelectList::SelectList>,ModeMapSelectList::SelectList>, COMDAT

; 286  : 	{	// destroy using allocator

  00000	55		 push	 ebp
  00001	8b ec		 mov	 ebp, esp

; 287  : 	_Alval.destroy(_Pdest);

  00003	8b 4d 0c	 mov	 ecx, DWORD PTR __Pdest$[ebp]
  00006	83 c1 10	 add	 ecx, 16			; 00000010H

; 288  : 	}

  00009	5d		 pop	 ebp

; 287  : 	_Alval.destroy(_Pdest);

  0000a	ff 25 00 00 00
	00		 jmp	 DWORD PTR __imp_??1ioHashString@@QAE@XZ
??$_Dest_val@V?$allocator@USelectList@ModeMapSelectList@@@std@@USelectList@ModeMapSelectList@@@std@@YAXAAV?$allocator@USelectList@ModeMapSelectList@@@0@PAUSelectList@ModeMapSelectList@@@Z ENDP ; std::_Dest_val<std::allocator<ModeMapSelectList::SelectList>,ModeMapSelectList::SelectList>
_TEXT	ENDS
PUBLIC	??$_Dest_val@V?$allocator@USelectList@CreateModeSelectList@@@std@@USelectList@CreateModeSelectList@@@std@@YAXAAV?$allocator@USelectList@CreateModeSelectList@@@0@PAUSelectList@CreateModeSelectList@@@Z ; std::_Dest_val<std::allocator<CreateModeSelectList::SelectList>,CreateModeSelectList::SelectList>
; Function compile flags: /Ogsp
;	COMDAT ??$_Dest_val@V?$allocator@USelectList@CreateModeSelectList@@@std@@USelectList@CreateModeSelectList@@@std@@YAXAAV?$allocator@USelectList@CreateModeSelectList@@@0@PAUSelectList@CreateModeSelectList@@@Z
_TEXT	SEGMENT
__Alval$ = 8						; size = 4
__Pdest$ = 12						; size = 4
??$_Dest_val@V?$allocator@USelectList@CreateModeSelectList@@@std@@USelectList@CreateModeSelectList@@@std@@YAXAAV?$allocator@USelectList@CreateModeSelectList@@@0@PAUSelectList@CreateModeSelectList@@@Z PROC ; std::_Dest_val<std::allocator<CreateModeSelectList::SelectList>,CreateModeSelectList::SelectList>, COMDAT

; 286  : 	{	// destroy using allocator

  00000	55		 push	 ebp
  00001	8b ec		 mov	 ebp, esp

; 287  : 	_Alval.destroy(_Pdest);

  00003	8b 4d 0c	 mov	 ecx, DWORD PTR __Pdest$[ebp]
  00006	83 c1 0c	 add	 ecx, 12			; 0000000cH

; 288  : 	}

  00009	5d		 pop	 ebp

; 287  : 	_Alval.destroy(_Pdest);

  0000a	ff 25 00 00 00
	00		 jmp	 DWORD PTR __imp_??1ioHashString@@QAE@XZ
??$_Dest_val@V?$allocator@USelectList@CreateModeSelectList@@@std@@USelectList@CreateModeSelectList@@@std@@YAXAAV?$allocator@USelectList@CreateModeSelectList@@@0@PAUSelectList@CreateModeSelectList@@@Z ENDP ; std::_Dest_val<std::allocator<CreateModeSelectList::SelectList>,CreateModeSelectList::SelectList>
_TEXT	ENDS
PUBLIC	??$_Destroy_range@V?$allocator@USelectList@ModeMapSelectList@@@std@@@std@@YAXPAUSelectList@ModeMapSelectList@@0AAV?$allocator@USelectList@ModeMapSelectList@@@0@U_Nonscalar_ptr_iterator_tag@0@@Z ; std::_Destroy_range<std::allocator<ModeMapSelectList::SelectList> >
; Function compile flags: /Ogsp
;	COMDAT ??$_Destroy_range@V?$allocator@USelectList@ModeMapSelectList@@@std@@@std@@YAXPAUSelectList@ModeMapSelectList@@0AAV?$allocator@USelectList@ModeMapSelectList@@@0@U_Nonscalar_ptr_iterator_tag@0@@Z
_TEXT	SEGMENT
__First$ = 8						; size = 4
__Last$ = 12						; size = 4
__Al$ = 16						; size = 4
___formal$ = 20						; size = 1
??$_Destroy_range@V?$allocator@USelectList@ModeMapSelectList@@@std@@@std@@YAXPAUSelectList@ModeMapSelectList@@0AAV?$allocator@USelectList@ModeMapSelectList@@@0@U_Nonscalar_ptr_iterator_tag@0@@Z PROC ; std::_Destroy_range<std::allocator<ModeMapSelectList::SelectList> >, COMDAT

; 95   : 	{	// destroy [_First, _Last), arbitrary type

  00000	55		 push	 ebp
  00001	8b ec		 mov	 ebp, esp
  00003	56		 push	 esi

; 96   : 	for (; _First != _Last; ++_First)

  00004	8b 75 08	 mov	 esi, DWORD PTR __First$[ebp]
  00007	eb 0c		 jmp	 SHORT $LN20@Destroy_ra
$LL3@Destroy_ra:

; 97   : 		_Dest_val(_Al, _First);

  00009	8d 4e 10	 lea	 ecx, DWORD PTR [esi+16]
  0000c	ff 15 00 00 00
	00		 call	 DWORD PTR __imp_??1ioHashString@@QAE@XZ
  00012	83 c6 24	 add	 esi, 36			; 00000024H
$LN20@Destroy_ra:

; 96   : 	for (; _First != _Last; ++_First)

  00015	3b 75 0c	 cmp	 esi, DWORD PTR __Last$[ebp]
  00018	75 ef		 jne	 SHORT $LL3@Destroy_ra
  0001a	5e		 pop	 esi

; 98   : 	}

  0001b	5d		 pop	 ebp
  0001c	c3		 ret	 0
??$_Destroy_range@V?$allocator@USelectList@ModeMapSelectList@@@std@@@std@@YAXPAUSelectList@ModeMapSelectList@@0AAV?$allocator@USelectList@ModeMapSelectList@@@0@U_Nonscalar_ptr_iterator_tag@0@@Z ENDP ; std::_Destroy_range<std::allocator<ModeMapSelectList::SelectList> >
_TEXT	ENDS
PUBLIC	??$_Destroy_range@V?$allocator@USelectList@CreateModeSelectList@@@std@@@std@@YAXPAUSelectList@CreateModeSelectList@@0AAV?$allocator@USelectList@CreateModeSelectList@@@0@U_Nonscalar_ptr_iterator_tag@0@@Z ; std::_Destroy_range<std::allocator<CreateModeSelectList::SelectList> >
; Function compile flags: /Ogsp
;	COMDAT ??$_Destroy_range@V?$allocator@USelectList@CreateModeSelectList@@@std@@@std@@YAXPAUSelectList@CreateModeSelectList@@0AAV?$allocator@USelectList@CreateModeSelectList@@@0@U_Nonscalar_ptr_iterator_tag@0@@Z
_TEXT	SEGMENT
__First$ = 8						; size = 4
__Last$ = 12						; size = 4
__Al$ = 16						; size = 4
___formal$ = 20						; size = 1
??$_Destroy_range@V?$allocator@USelectList@CreateModeSelectList@@@std@@@std@@YAXPAUSelectList@CreateModeSelectList@@0AAV?$allocator@USelectList@CreateModeSelectList@@@0@U_Nonscalar_ptr_iterator_tag@0@@Z PROC ; std::_Destroy_range<std::allocator<CreateModeSelectList::SelectList> >, COMDAT

; 95   : 	{	// destroy [_First, _Last), arbitrary type

  00000	55		 push	 ebp
  00001	8b ec		 mov	 ebp, esp
  00003	56		 push	 esi

; 96   : 	for (; _First != _Last; ++_First)

  00004	8b 75 08	 mov	 esi, DWORD PTR __First$[ebp]
  00007	eb 0c		 jmp	 SHORT $LN20@Destroy_ra@2
$LL3@Destroy_ra@2:

; 97   : 		_Dest_val(_Al, _First);

  00009	8d 4e 0c	 lea	 ecx, DWORD PTR [esi+12]
  0000c	ff 15 00 00 00
	00		 call	 DWORD PTR __imp_??1ioHashString@@QAE@XZ
  00012	83 c6 20	 add	 esi, 32			; 00000020H
$LN20@Destroy_ra@2:

; 96   : 	for (; _First != _Last; ++_First)

  00015	3b 75 0c	 cmp	 esi, DWORD PTR __Last$[ebp]
  00018	75 ef		 jne	 SHORT $LL3@Destroy_ra@2
  0001a	5e		 pop	 esi

; 98   : 	}

  0001b	5d		 pop	 ebp
  0001c	c3		 ret	 0
??$_Destroy_range@V?$allocator@USelectList@CreateModeSelectList@@@std@@@std@@YAXPAUSelectList@CreateModeSelectList@@0AAV?$allocator@USelectList@CreateModeSelectList@@@0@U_Nonscalar_ptr_iterator_tag@0@@Z ENDP ; std::_Destroy_range<std::allocator<CreateModeSelectList::SelectList> >
_TEXT	ENDS
PUBLIC	??$_Uninit_move@PAUSelectList@ModeMapSelectList@@PAU12@V?$allocator@USelectList@ModeMapSelectList@@@std@@U12@@std@@YAPAUSelectList@ModeMapSelectList@@PAU12@00AAV?$allocator@USelectList@ModeMapSelectList@@@0@0U_Nonscalar_ptr_iterator_tag@0@@Z ; std::_Uninit_move<ModeMapSelectList::SelectList *,ModeMapSelectList::SelectList *,std::allocator<ModeMapSelectList::SelectList>,ModeMapSelectList::SelectList>
EXTRN	__EH_prolog3_catch:PROC
;	COMDAT xdata$x
; File d:\lost saga for developer\youtube\tutorial\source\src\lsclient\gui\modemapselectlist.cpp
xdata$x	SEGMENT
__catchsym$??$_Uninit_move@PAUSelectList@ModeMapSelectList@@PAU12@V?$allocator@USelectList@ModeMapSelectList@@@std@@U12@@std@@YAPAUSelectList@ModeMapSelectList@@PAU12@00AAV?$allocator@USelectList@ModeMapSelectList@@@0@0U_Nonscalar_ptr_iterator_tag@0@@Z$3 DD 040H
	DD	00H
	DD	00H
	DD	FLAT:__catch$??$_Uninit_move@PAUSelectList@ModeMapSelectList@@PAU12@V?$allocator@USelectList@ModeMapSelectList@@@std@@U12@@std@@YAPAUSelectList@ModeMapSelectList@@PAU12@00AAV?$allocator@USelectList@ModeMapSelectList@@@0@0U_Nonscalar_ptr_iterator_tag@0@@Z$0
__unwindtable$??$_Uninit_move@PAUSelectList@ModeMapSelectList@@PAU12@V?$allocator@USelectList@ModeMapSelectList@@@std@@U12@@std@@YAPAUSelectList@ModeMapSelectList@@PAU12@00AAV?$allocator@USelectList@ModeMapSelectList@@@0@0U_Nonscalar_ptr_iterator_tag@0@@Z DD 0ffffffffH
	DD	00H
	DD	0ffffffffH
	DD	00H
__tryblocktable$??$_Uninit_move@PAUSelectList@ModeMapSelectList@@PAU12@V?$allocator@USelectList@ModeMapSelectList@@@std@@U12@@std@@YAPAUSelectList@ModeMapSelectList@@PAU12@00AAV?$allocator@USelectList@ModeMapSelectList@@@0@0U_Nonscalar_ptr_iterator_tag@0@@Z DD 00H
	DD	00H
	DD	01H
	DD	01H
	DD	FLAT:__catchsym$??$_Uninit_move@PAUSelectList@ModeMapSelectList@@PAU12@V?$allocator@USelectList@ModeMapSelectList@@@std@@U12@@std@@YAPAUSelectList@ModeMapSelectList@@PAU12@00AAV?$allocator@USelectList@ModeMapSelectList@@@0@0U_Nonscalar_ptr_iterator_tag@0@@Z$3
__ehfuncinfo$??$_Uninit_move@PAUSelectList@ModeMapSelectList@@PAU12@V?$allocator@USelectList@ModeMapSelectList@@@std@@U12@@std@@YAPAUSelectList@ModeMapSelectList@@PAU12@00AAV?$allocator@USelectList@ModeMapSelectList@@@0@0U_Nonscalar_ptr_iterator_tag@0@@Z DD 019930522H
	DD	02H
	DD	FLAT:__unwindtable$??$_Uninit_move@PAUSelectList@ModeMapSelectList@@PAU12@V?$allocator@USelectList@ModeMapSelectList@@@std@@U12@@std@@YAPAUSelectList@ModeMapSelectList@@PAU12@00AAV?$allocator@USelectList@ModeMapSelectList@@@0@0U_Nonscalar_ptr_iterator_tag@0@@Z
	DD	01H
	DD	FLAT:__tryblocktable$??$_Uninit_move@PAUSelectList@ModeMapSelectList@@PAU12@V?$allocator@USelectList@ModeMapSelectList@@@std@@U12@@std@@YAPAUSelectList@ModeMapSelectList@@PAU12@00AAV?$allocator@USelectList@ModeMapSelectList@@@0@0U_Nonscalar_ptr_iterator_tag@0@@Z
	DD	2 DUP(00H)
	DD	00H
	DD	01H
; Function compile flags: /Ogsp
; File c:\program files (x86)\microsoft visual studio 10.0\vc\include\memory
xdata$x	ENDS
;	COMDAT ??$_Uninit_move@PAUSelectList@ModeMapSelectList@@PAU12@V?$allocator@USelectList@ModeMapSelectList@@@std@@U12@@std@@YAPAUSelectList@ModeMapSelectList@@PAU12@00AAV?$allocator@USelectList@ModeMapSelectList@@@0@0U_Nonscalar_ptr_iterator_tag@0@@Z
_TEXT	SEGMENT
__Next$ = -20						; size = 4
__$EHRec$ = -16						; size = 16
__First$ = 8						; size = 4
__Last$ = 12						; size = 4
__Dest$ = 16						; size = 4
__Al$ = 20						; size = 4
___formal$ = 24						; size = 4
___formal$ = 28						; size = 1
??$_Uninit_move@PAUSelectList@ModeMapSelectList@@PAU12@V?$allocator@USelectList@ModeMapSelectList@@@std@@U12@@std@@YAPAUSelectList@ModeMapSelectList@@PAU12@00AAV?$allocator@USelectList@ModeMapSelectList@@@0@0U_Nonscalar_ptr_iterator_tag@0@@Z PROC ; std::_Uninit_move<ModeMapSelectList::SelectList *,ModeMapSelectList::SelectList *,std::allocator<ModeMapSelectList::SelectList>,ModeMapSelectList::SelectList>, COMDAT

; 424  : 	{	// move [_First, _Last) to raw _Dest, using _Al, arbitrary type

  00000	6a 08		 push	 8
  00002	b8 00 00 00 00	 mov	 eax, __ehhandler$??$_Uninit_move@PAUSelectList@ModeMapSelectList@@PAU12@V?$allocator@USelectList@ModeMapSelectList@@@std@@U12@@std@@YAPAUSelectList@ModeMapSelectList@@PAU12@00AAV?$allocator@USelectList@ModeMapSelectList@@@0@0U_Nonscalar_ptr_iterator_tag@0@@Z
  00007	e8 00 00 00 00	 call	 __EH_prolog3_catch

; 425  : 	_DEBUG_RANGE(_First, _Last);
; 426  : 	_DEBUG_POINTER(_Dest);
; 427  : 	_FwdIt _Next = _Dest;

  0000c	8b 45 10	 mov	 eax, DWORD PTR __Dest$[ebp]

; 428  : 
; 429  : 	_TRY_BEGIN

  0000f	83 65 fc 00	 and	 DWORD PTR __$EHRec$[ebp+12], 0
  00013	8b 75 08	 mov	 esi, DWORD PTR __First$[ebp]
  00016	89 45 ec	 mov	 DWORD PTR __Next$[ebp], eax
$LL6@Uninit_mov:

; 430  : 	for (; _First != _Last; ++_Dest, ++_First)

  00019	3b 75 0c	 cmp	 esi, DWORD PTR __Last$[ebp]
  0001c	74 37		 je	 SHORT $LN4@Uninit_mov

; 431  : 		_Cons_val(_Al, _Dest, (_Valty &&)*_First);

  0001e	56		 push	 esi
  0001f	ff 75 10	 push	 DWORD PTR __Dest$[ebp]
  00022	ff 75 14	 push	 DWORD PTR __Al$[ebp]
  00025	e8 00 00 00 00	 call	 ??$_Cons_val@V?$allocator@USelectList@ModeMapSelectList@@@std@@USelectList@ModeMapSelectList@@U34@@std@@YAXAAV?$allocator@USelectList@ModeMapSelectList@@@0@PAUSelectList@ModeMapSelectList@@$$QAU23@@Z ; std::_Cons_val<std::allocator<ModeMapSelectList::SelectList>,ModeMapSelectList::SelectList,ModeMapSelectList::SelectList>
  0002a	83 45 10 24	 add	 DWORD PTR __Dest$[ebp], 36 ; 00000024H
  0002e	83 c4 0c	 add	 esp, 12			; 0000000cH
  00031	83 c6 24	 add	 esi, 36			; 00000024H
  00034	eb e3		 jmp	 SHORT $LL6@Uninit_mov
__catch$??$_Uninit_move@PAUSelectList@ModeMapSelectList@@PAU12@V?$allocator@USelectList@ModeMapSelectList@@@std@@U12@@std@@YAPAUSelectList@ModeMapSelectList@@PAU12@00AAV?$allocator@USelectList@ModeMapSelectList@@@0@0U_Nonscalar_ptr_iterator_tag@0@@Z$0:

; 432  : 	_CATCH_ALL
; 433  : 	for (; _Next != _Dest; ++_Next)

  00036	8b 75 ec	 mov	 esi, DWORD PTR __Next$[ebp]
  00039	eb 0c		 jmp	 SHORT $LN32@Uninit_mov
$LL3@Uninit_mov:

; 434  : 		_Dest_val(_Al, _Next);

  0003b	8d 4e 10	 lea	 ecx, DWORD PTR [esi+16]
  0003e	ff 15 00 00 00
	00		 call	 DWORD PTR __imp_??1ioHashString@@QAE@XZ
  00044	83 c6 24	 add	 esi, 36			; 00000024H
$LN32@Uninit_mov:

; 432  : 	_CATCH_ALL
; 433  : 	for (; _Next != _Dest; ++_Next)

  00047	3b 75 10	 cmp	 esi, DWORD PTR __Dest$[ebp]
  0004a	75 ef		 jne	 SHORT $LL3@Uninit_mov

; 435  : 	_RERAISE;

  0004c	6a 00		 push	 0
  0004e	6a 00		 push	 0
  00050	e8 00 00 00 00	 call	 __CxxThrowException@8
$LN33@Uninit_mov:
$LN4@Uninit_mov:

; 436  : 	_CATCH_END
; 437  : 	return (_Dest);

  00055	8b 45 10	 mov	 eax, DWORD PTR __Dest$[ebp]

; 438  : 	}

  00058	e8 00 00 00 00	 call	 __EH_epilog3
  0005d	c3		 ret	 0
$LN31@Uninit_mov:
_TEXT	ENDS
;	COMDAT text$x
text$x	SEGMENT
__ehhandler$??$_Uninit_move@PAUSelectList@ModeMapSelectList@@PAU12@V?$allocator@USelectList@ModeMapSelectList@@@std@@U12@@std@@YAPAUSelectList@ModeMapSelectList@@PAU12@00AAV?$allocator@USelectList@ModeMapSelectList@@@0@0U_Nonscalar_ptr_iterator_tag@0@@Z:
  00000	8b 54 24 08	 mov	 edx, DWORD PTR [esp+8]
  00004	8d 42 0c	 lea	 eax, DWORD PTR [edx+12]
  00007	8b 4a e8	 mov	 ecx, DWORD PTR [edx-24]
  0000a	33 c8		 xor	 ecx, eax
  0000c	e8 00 00 00 00	 call	 @__security_check_cookie@4
  00011	b8 00 00 00 00	 mov	 eax, OFFSET __ehfuncinfo$??$_Uninit_move@PAUSelectList@ModeMapSelectList@@PAU12@V?$allocator@USelectList@ModeMapSelectList@@@std@@U12@@std@@YAPAUSelectList@ModeMapSelectList@@PAU12@00AAV?$allocator@USelectList@ModeMapSelectList@@@0@0U_Nonscalar_ptr_iterator_tag@0@@Z
  00016	e9 00 00 00 00	 jmp	 ___CxxFrameHandler3
text$x	ENDS
??$_Uninit_move@PAUSelectList@ModeMapSelectList@@PAU12@V?$allocator@USelectList@ModeMapSelectList@@@std@@U12@@std@@YAPAUSelectList@ModeMapSelectList@@PAU12@00AAV?$allocator@USelectList@ModeMapSelectList@@@0@0U_Nonscalar_ptr_iterator_tag@0@@Z ENDP ; std::_Uninit_move<ModeMapSelectList::SelectList *,ModeMapSelectList::SelectList *,std::allocator<ModeMapSelectList::SelectList>,ModeMapSelectList::SelectList>
PUBLIC	??$_Uninit_move@PAUSelectList@CreateModeSelectList@@PAU12@V?$allocator@USelectList@CreateModeSelectList@@@std@@U12@@std@@YAPAUSelectList@CreateModeSelectList@@PAU12@00AAV?$allocator@USelectList@CreateModeSelectList@@@0@0U_Nonscalar_ptr_iterator_tag@0@@Z ; std::_Uninit_move<CreateModeSelectList::SelectList *,CreateModeSelectList::SelectList *,std::allocator<CreateModeSelectList::SelectList>,CreateModeSelectList::SelectList>
;	COMDAT xdata$x
; File d:\lost saga for developer\youtube\tutorial\source\src\lsclient\gui\modemapselectlist.cpp
xdata$x	SEGMENT
__catchsym$??$_Uninit_move@PAUSelectList@CreateModeSelectList@@PAU12@V?$allocator@USelectList@CreateModeSelectList@@@std@@U12@@std@@YAPAUSelectList@CreateModeSelectList@@PAU12@00AAV?$allocator@USelectList@CreateModeSelectList@@@0@0U_Nonscalar_ptr_iterator_tag@0@@Z$3 DD 040H
	DD	00H
	DD	00H
	DD	FLAT:__catch$??$_Uninit_move@PAUSelectList@CreateModeSelectList@@PAU12@V?$allocator@USelectList@CreateModeSelectList@@@std@@U12@@std@@YAPAUSelectList@CreateModeSelectList@@PAU12@00AAV?$allocator@USelectList@CreateModeSelectList@@@0@0U_Nonscalar_ptr_iterator_tag@0@@Z$0
__unwindtable$??$_Uninit_move@PAUSelectList@CreateModeSelectList@@PAU12@V?$allocator@USelectList@CreateModeSelectList@@@std@@U12@@std@@YAPAUSelectList@CreateModeSelectList@@PAU12@00AAV?$allocator@USelectList@CreateModeSelectList@@@0@0U_Nonscalar_ptr_iterator_tag@0@@Z DD 0ffffffffH
	DD	00H
	DD	0ffffffffH
	DD	00H
__tryblocktable$??$_Uninit_move@PAUSelectList@CreateModeSelectList@@PAU12@V?$allocator@USelectList@CreateModeSelectList@@@std@@U12@@std@@YAPAUSelectList@CreateModeSelectList@@PAU12@00AAV?$allocator@USelectList@CreateModeSelectList@@@0@0U_Nonscalar_ptr_iterator_tag@0@@Z DD 00H
	DD	00H
	DD	01H
	DD	01H
	DD	FLAT:__catchsym$??$_Uninit_move@PAUSelectList@CreateModeSelectList@@PAU12@V?$allocator@USelectList@CreateModeSelectList@@@std@@U12@@std@@YAPAUSelectList@CreateModeSelectList@@PAU12@00AAV?$allocator@USelectList@CreateModeSelectList@@@0@0U_Nonscalar_ptr_iterator_tag@0@@Z$3
__ehfuncinfo$??$_Uninit_move@PAUSelectList@CreateModeSelectList@@PAU12@V?$allocator@USelectList@CreateModeSelectList@@@std@@U12@@std@@YAPAUSelectList@CreateModeSelectList@@PAU12@00AAV?$allocator@USelectList@CreateModeSelectList@@@0@0U_Nonscalar_ptr_iterator_tag@0@@Z DD 019930522H
	DD	02H
	DD	FLAT:__unwindtable$??$_Uninit_move@PAUSelectList@CreateModeSelectList@@PAU12@V?$allocator@USelectList@CreateModeSelectList@@@std@@U12@@std@@YAPAUSelectList@CreateModeSelectList@@PAU12@00AAV?$allocator@USelectList@CreateModeSelectList@@@0@0U_Nonscalar_ptr_iterator_tag@0@@Z
	DD	01H
	DD	FLAT:__tryblocktable$??$_Uninit_move@PAUSelectList@CreateModeSelectList@@PAU12@V?$allocator@USelectList@CreateModeSelectList@@@std@@U12@@std@@YAPAUSelectList@CreateModeSelectList@@PAU12@00AAV?$allocator@USelectList@CreateModeSelectList@@@0@0U_Nonscalar_ptr_iterator_tag@0@@Z
	DD	2 DUP(00H)
	DD	00H
	DD	01H
; Function compile flags: /Ogsp
; File c:\program files (x86)\microsoft visual studio 10.0\vc\include\memory
xdata$x	ENDS
;	COMDAT ??$_Uninit_move@PAUSelectList@CreateModeSelectList@@PAU12@V?$allocator@USelectList@CreateModeSelectList@@@std@@U12@@std@@YAPAUSelectList@CreateModeSelectList@@PAU12@00AAV?$allocator@USelectList@CreateModeSelectList@@@0@0U_Nonscalar_ptr_iterator_tag@0@@Z
_TEXT	SEGMENT
__Next$ = -20						; size = 4
__$EHRec$ = -16						; size = 16
__First$ = 8						; size = 4
__Last$ = 12						; size = 4
__Dest$ = 16						; size = 4
__Al$ = 20						; size = 4
___formal$ = 24						; size = 4
___formal$ = 28						; size = 1
??$_Uninit_move@PAUSelectList@CreateModeSelectList@@PAU12@V?$allocator@USelectList@CreateModeSelectList@@@std@@U12@@std@@YAPAUSelectList@CreateModeSelectList@@PAU12@00AAV?$allocator@USelectList@CreateModeSelectList@@@0@0U_Nonscalar_ptr_iterator_tag@0@@Z PROC ; std::_Uninit_move<CreateModeSelectList::SelectList *,CreateModeSelectList::SelectList *,std::allocator<CreateModeSelectList::SelectList>,CreateModeSelectList::SelectList>, COMDAT

; 424  : 	{	// move [_First, _Last) to raw _Dest, using _Al, arbitrary type

  00000	6a 08		 push	 8
  00002	b8 00 00 00 00	 mov	 eax, __ehhandler$??$_Uninit_move@PAUSelectList@CreateModeSelectList@@PAU12@V?$allocator@USelectList@CreateModeSelectList@@@std@@U12@@std@@YAPAUSelectList@CreateModeSelectList@@PAU12@00AAV?$allocator@USelectList@CreateModeSelectList@@@0@0U_Nonscalar_ptr_iterator_tag@0@@Z
  00007	e8 00 00 00 00	 call	 __EH_prolog3_catch

; 425  : 	_DEBUG_RANGE(_First, _Last);
; 426  : 	_DEBUG_POINTER(_Dest);
; 427  : 	_FwdIt _Next = _Dest;

  0000c	8b 45 10	 mov	 eax, DWORD PTR __Dest$[ebp]

; 428  : 
; 429  : 	_TRY_BEGIN

  0000f	83 65 fc 00	 and	 DWORD PTR __$EHRec$[ebp+12], 0
  00013	8b 75 08	 mov	 esi, DWORD PTR __First$[ebp]
  00016	89 45 ec	 mov	 DWORD PTR __Next$[ebp], eax
$LL6@Uninit_mov@2:

; 430  : 	for (; _First != _Last; ++_Dest, ++_First)

  00019	3b 75 0c	 cmp	 esi, DWORD PTR __Last$[ebp]
  0001c	74 37		 je	 SHORT $LN4@Uninit_mov@2

; 431  : 		_Cons_val(_Al, _Dest, (_Valty &&)*_First);

  0001e	56		 push	 esi
  0001f	ff 75 10	 push	 DWORD PTR __Dest$[ebp]
  00022	ff 75 14	 push	 DWORD PTR __Al$[ebp]
  00025	e8 00 00 00 00	 call	 ??$_Cons_val@V?$allocator@USelectList@CreateModeSelectList@@@std@@USelectList@CreateModeSelectList@@U34@@std@@YAXAAV?$allocator@USelectList@CreateModeSelectList@@@0@PAUSelectList@CreateModeSelectList@@$$QAU23@@Z ; std::_Cons_val<std::allocator<CreateModeSelectList::SelectList>,CreateModeSelectList::SelectList,CreateModeSelectList::SelectList>
  0002a	83 45 10 20	 add	 DWORD PTR __Dest$[ebp], 32 ; 00000020H
  0002e	83 c4 0c	 add	 esp, 12			; 0000000cH
  00031	83 c6 20	 add	 esi, 32			; 00000020H
  00034	eb e3		 jmp	 SHORT $LL6@Uninit_mov@2
__catch$??$_Uninit_move@PAUSelectList@CreateModeSelectList@@PAU12@V?$allocator@USelectList@CreateModeSelectList@@@std@@U12@@std@@YAPAUSelectList@CreateModeSelectList@@PAU12@00AAV?$allocator@USelectList@CreateModeSelectList@@@0@0U_Nonscalar_ptr_iterator_tag@0@@Z$0:

; 432  : 	_CATCH_ALL
; 433  : 	for (; _Next != _Dest; ++_Next)

  00036	8b 75 ec	 mov	 esi, DWORD PTR __Next$[ebp]
  00039	eb 0c		 jmp	 SHORT $LN32@Uninit_mov@2
$LL3@Uninit_mov@2:

; 434  : 		_Dest_val(_Al, _Next);

  0003b	8d 4e 0c	 lea	 ecx, DWORD PTR [esi+12]
  0003e	ff 15 00 00 00
	00		 call	 DWORD PTR __imp_??1ioHashString@@QAE@XZ
  00044	83 c6 20	 add	 esi, 32			; 00000020H
$LN32@Uninit_mov@2:

; 432  : 	_CATCH_ALL
; 433  : 	for (; _Next != _Dest; ++_Next)

  00047	3b 75 10	 cmp	 esi, DWORD PTR __Dest$[ebp]
  0004a	75 ef		 jne	 SHORT $LL3@Uninit_mov@2

; 435  : 	_RERAISE;

  0004c	6a 00		 push	 0
  0004e	6a 00		 push	 0
  00050	e8 00 00 00 00	 call	 __CxxThrowException@8
$LN33@Uninit_mov@2:
$LN4@Uninit_mov@2:

; 436  : 	_CATCH_END
; 437  : 	return (_Dest);

  00055	8b 45 10	 mov	 eax, DWORD PTR __Dest$[ebp]

; 438  : 	}

  00058	e8 00 00 00 00	 call	 __EH_epilog3
  0005d	c3		 ret	 0
$LN31@Uninit_mov@2:
_TEXT	ENDS
;	COMDAT text$x
text$x	SEGMENT
__ehhandler$??$_Uninit_move@PAUSelectList@CreateModeSelectList@@PAU12@V?$allocator@USelectList@CreateModeSelectList@@@std@@U12@@std@@YAPAUSelectList@CreateModeSelectList@@PAU12@00AAV?$allocator@USelectList@CreateModeSelectList@@@0@0U_Nonscalar_ptr_iterator_tag@0@@Z:
  00000	8b 54 24 08	 mov	 edx, DWORD PTR [esp+8]
  00004	8d 42 0c	 lea	 eax, DWORD PTR [edx+12]
  00007	8b 4a e8	 mov	 ecx, DWORD PTR [edx-24]
  0000a	33 c8		 xor	 ecx, eax
  0000c	e8 00 00 00 00	 call	 @__security_check_cookie@4
  00011	b8 00 00 00 00	 mov	 eax, OFFSET __ehfuncinfo$??$_Uninit_move@PAUSelectList@CreateModeSelectList@@PAU12@V?$allocator@USelectList@CreateModeSelectList@@@std@@U12@@std@@YAPAUSelectList@CreateModeSelectList@@PAU12@00AAV?$allocator@USelectList@CreateModeSelectList@@@0@0U_Nonscalar_ptr_iterator_tag@0@@Z
  00016	e9 00 00 00 00	 jmp	 ___CxxFrameHandler3
text$x	ENDS
??$_Uninit_move@PAUSelectList@CreateModeSelectList@@PAU12@V?$allocator@USelectList@CreateModeSelectList@@@std@@U12@@std@@YAPAUSelectList@CreateModeSelectList@@PAU12@00AAV?$allocator@USelectList@CreateModeSelectList@@@0@0U_Nonscalar_ptr_iterator_tag@0@@Z ENDP ; std::_Uninit_move<CreateModeSelectList::SelectList *,CreateModeSelectList::SelectList *,std::allocator<CreateModeSelectList::SelectList>,CreateModeSelectList::SelectList>
PUBLIC	??$_Destroy_range@V?$allocator@USelectList@ModeMapSelectList@@@std@@@std@@YAXPAUSelectList@ModeMapSelectList@@0AAV?$allocator@USelectList@ModeMapSelectList@@@0@@Z ; std::_Destroy_range<std::allocator<ModeMapSelectList::SelectList> >
; Function compile flags: /Ogsp
; File c:\program files (x86)\microsoft visual studio 10.0\vc\include\xmemory
;	COMDAT ??$_Destroy_range@V?$allocator@USelectList@ModeMapSelectList@@@std@@@std@@YAXPAUSelectList@ModeMapSelectList@@0AAV?$allocator@USelectList@ModeMapSelectList@@@0@@Z
_TEXT	SEGMENT
__First$ = 8						; size = 4
__Last$ = 12						; size = 4
__Al$ = 16						; size = 4
??$_Destroy_range@V?$allocator@USelectList@ModeMapSelectList@@@std@@@std@@YAXPAUSelectList@ModeMapSelectList@@0AAV?$allocator@USelectList@ModeMapSelectList@@@0@@Z PROC ; std::_Destroy_range<std::allocator<ModeMapSelectList::SelectList> >, COMDAT

; 87   : 	{	// destroy [_First, _Last)

  00000	55		 push	 ebp
  00001	8b ec		 mov	 ebp, esp
  00003	56		 push	 esi

; 88   : 	_Destroy_range(_First, _Last, _Al, _Ptr_cat(_First, _Last));

  00004	8b 75 08	 mov	 esi, DWORD PTR __First$[ebp]
  00007	eb 0c		 jmp	 SHORT $LN24@Destroy_ra@3
$LL7@Destroy_ra@3:
  00009	8d 4e 10	 lea	 ecx, DWORD PTR [esi+16]
  0000c	ff 15 00 00 00
	00		 call	 DWORD PTR __imp_??1ioHashString@@QAE@XZ
  00012	83 c6 24	 add	 esi, 36			; 00000024H
$LN24@Destroy_ra@3:
  00015	3b 75 0c	 cmp	 esi, DWORD PTR __Last$[ebp]
  00018	75 ef		 jne	 SHORT $LL7@Destroy_ra@3
  0001a	5e		 pop	 esi

; 89   : 	}

  0001b	5d		 pop	 ebp
  0001c	c3		 ret	 0
??$_Destroy_range@V?$allocator@USelectList@ModeMapSelectList@@@std@@@std@@YAXPAUSelectList@ModeMapSelectList@@0AAV?$allocator@USelectList@ModeMapSelectList@@@0@@Z ENDP ; std::_Destroy_range<std::allocator<ModeMapSelectList::SelectList> >
_TEXT	ENDS
PUBLIC	??$_Destroy_range@V?$allocator@USelectList@CreateModeSelectList@@@std@@@std@@YAXPAUSelectList@CreateModeSelectList@@0AAV?$allocator@USelectList@CreateModeSelectList@@@0@@Z ; std::_Destroy_range<std::allocator<CreateModeSelectList::SelectList> >
; Function compile flags: /Ogsp
;	COMDAT ??$_Destroy_range@V?$allocator@USelectList@CreateModeSelectList@@@std@@@std@@YAXPAUSelectList@CreateModeSelectList@@0AAV?$allocator@USelectList@CreateModeSelectList@@@0@@Z
_TEXT	SEGMENT
__First$ = 8						; size = 4
__Last$ = 12						; size = 4
__Al$ = 16						; size = 4
??$_Destroy_range@V?$allocator@USelectList@CreateModeSelectList@@@std@@@std@@YAXPAUSelectList@CreateModeSelectList@@0AAV?$allocator@USelectList@CreateModeSelectList@@@0@@Z PROC ; std::_Destroy_range<std::allocator<CreateModeSelectList::SelectList> >, COMDAT

; 87   : 	{	// destroy [_First, _Last)

  00000	55		 push	 ebp
  00001	8b ec		 mov	 ebp, esp
  00003	56		 push	 esi

; 88   : 	_Destroy_range(_First, _Last, _Al, _Ptr_cat(_First, _Last));

  00004	8b 75 08	 mov	 esi, DWORD PTR __First$[ebp]
  00007	eb 0c		 jmp	 SHORT $LN24@Destroy_ra@4
$LL7@Destroy_ra@4:
  00009	8d 4e 0c	 lea	 ecx, DWORD PTR [esi+12]
  0000c	ff 15 00 00 00
	00		 call	 DWORD PTR __imp_??1ioHashString@@QAE@XZ
  00012	83 c6 20	 add	 esi, 32			; 00000020H
$LN24@Destroy_ra@4:
  00015	3b 75 0c	 cmp	 esi, DWORD PTR __Last$[ebp]
  00018	75 ef		 jne	 SHORT $LL7@Destroy_ra@4
  0001a	5e		 pop	 esi

; 89   : 	}

  0001b	5d		 pop	 ebp
  0001c	c3		 ret	 0
??$_Destroy_range@V?$allocator@USelectList@CreateModeSelectList@@@std@@@std@@YAXPAUSelectList@CreateModeSelectList@@0AAV?$allocator@USelectList@CreateModeSelectList@@@0@@Z ENDP ; std::_Destroy_range<std::allocator<CreateModeSelectList::SelectList> >
_TEXT	ENDS
PUBLIC	??$_Uninitialized_move@PAUSelectList@ModeMapSelectList@@PAU12@V?$allocator@USelectList@ModeMapSelectList@@@std@@@std@@YAPAUSelectList@ModeMapSelectList@@PAU12@00AAV?$allocator@USelectList@ModeMapSelectList@@@0@@Z ; std::_Uninitialized_move<ModeMapSelectList::SelectList *,ModeMapSelectList::SelectList *,std::allocator<ModeMapSelectList::SelectList> >
; Function compile flags: /Ogsp
; File c:\program files (x86)\microsoft visual studio 10.0\vc\include\memory
;	COMDAT ??$_Uninitialized_move@PAUSelectList@ModeMapSelectList@@PAU12@V?$allocator@USelectList@ModeMapSelectList@@@std@@@std@@YAPAUSelectList@ModeMapSelectList@@PAU12@00AAV?$allocator@USelectList@ModeMapSelectList@@@0@@Z
_TEXT	SEGMENT
__Cat$518782 = -4					; size = 1
__First$ = 8						; size = 4
__Last$ = 12						; size = 4
__Dest$ = 16						; size = 4
__Al$ = 20						; size = 4
??$_Uninitialized_move@PAUSelectList@ModeMapSelectList@@PAU12@V?$allocator@USelectList@ModeMapSelectList@@@std@@@std@@YAPAUSelectList@ModeMapSelectList@@PAU12@00AAV?$allocator@USelectList@ModeMapSelectList@@@0@@Z PROC ; std::_Uninitialized_move<ModeMapSelectList::SelectList *,ModeMapSelectList::SelectList *,std::allocator<ModeMapSelectList::SelectList> >, COMDAT

; 469  : 	{	// move [_First, _Last) to raw _Dest, using _Al

  00000	55		 push	 ebp
  00001	8b ec		 mov	 ebp, esp
  00003	51		 push	 ecx

; 470  : 	return (_Uninit_move(_First, _Last, _Dest, _Al,
; 471  : 		_Val_type(_First), _Ptr_cat(_First, _Dest)));

  00004	ff 75 fc	 push	 DWORD PTR __Cat$518782[ebp]
  00007	6a 00		 push	 0
  00009	ff 75 14	 push	 DWORD PTR __Al$[ebp]
  0000c	ff 75 10	 push	 DWORD PTR __Dest$[ebp]
  0000f	ff 75 0c	 push	 DWORD PTR __Last$[ebp]
  00012	ff 75 08	 push	 DWORD PTR __First$[ebp]
  00015	e8 00 00 00 00	 call	 ??$_Uninit_move@PAUSelectList@ModeMapSelectList@@PAU12@V?$allocator@USelectList@ModeMapSelectList@@@std@@U12@@std@@YAPAUSelectList@ModeMapSelectList@@PAU12@00AAV?$allocator@USelectList@ModeMapSelectList@@@0@0U_Nonscalar_ptr_iterator_tag@0@@Z ; std::_Uninit_move<ModeMapSelectList::SelectList *,ModeMapSelectList::SelectList *,std::allocator<ModeMapSelectList::SelectList>,ModeMapSelectList::SelectList>
  0001a	83 c4 18	 add	 esp, 24			; 00000018H

; 472  : 	}

  0001d	c9		 leave
  0001e	c3		 ret	 0
??$_Uninitialized_move@PAUSelectList@ModeMapSelectList@@PAU12@V?$allocator@USelectList@ModeMapSelectList@@@std@@@std@@YAPAUSelectList@ModeMapSelectList@@PAU12@00AAV?$allocator@USelectList@ModeMapSelectList@@@0@@Z ENDP ; std::_Uninitialized_move<ModeMapSelectList::SelectList *,ModeMapSelectList::SelectList *,std::allocator<ModeMapSelectList::SelectList> >
_TEXT	ENDS
PUBLIC	??$_Uninitialized_move@PAUSelectList@CreateModeSelectList@@PAU12@V?$allocator@USelectList@CreateModeSelectList@@@std@@@std@@YAPAUSelectList@CreateModeSelectList@@PAU12@00AAV?$allocator@USelectList@CreateModeSelectList@@@0@@Z ; std::_Uninitialized_move<CreateModeSelectList::SelectList *,CreateModeSelectList::SelectList *,std::allocator<CreateModeSelectList::SelectList> >
; Function compile flags: /Ogsp
;	COMDAT ??$_Uninitialized_move@PAUSelectList@CreateModeSelectList@@PAU12@V?$allocator@USelectList@CreateModeSelectList@@@std@@@std@@YAPAUSelectList@CreateModeSelectList@@PAU12@00AAV?$allocator@USelectList@CreateModeSelectList@@@0@@Z
_TEXT	SEGMENT
__Cat$518792 = -4					; size = 1
__First$ = 8						; size = 4
__Last$ = 12						; size = 4
__Dest$ = 16						; size = 4
__Al$ = 20						; size = 4
??$_Uninitialized_move@PAUSelectList@CreateModeSelectList@@PAU12@V?$allocator@USelectList@CreateModeSelectList@@@std@@@std@@YAPAUSelectList@CreateModeSelectList@@PAU12@00AAV?$allocator@USelectList@CreateModeSelectList@@@0@@Z PROC ; std::_Uninitialized_move<CreateModeSelectList::SelectList *,CreateModeSelectList::SelectList *,std::allocator<CreateModeSelectList::SelectList> >, COMDAT

; 469  : 	{	// move [_First, _Last) to raw _Dest, using _Al

  00000	55		 push	 ebp
  00001	8b ec		 mov	 ebp, esp
  00003	51		 push	 ecx

; 470  : 	return (_Uninit_move(_First, _Last, _Dest, _Al,
; 471  : 		_Val_type(_First), _Ptr_cat(_First, _Dest)));

  00004	ff 75 fc	 push	 DWORD PTR __Cat$518792[ebp]
  00007	6a 00		 push	 0
  00009	ff 75 14	 push	 DWORD PTR __Al$[ebp]
  0000c	ff 75 10	 push	 DWORD PTR __Dest$[ebp]
  0000f	ff 75 0c	 push	 DWORD PTR __Last$[ebp]
  00012	ff 75 08	 push	 DWORD PTR __First$[ebp]
  00015	e8 00 00 00 00	 call	 ??$_Uninit_move@PAUSelectList@CreateModeSelectList@@PAU12@V?$allocator@USelectList@CreateModeSelectList@@@std@@U12@@std@@YAPAUSelectList@CreateModeSelectList@@PAU12@00AAV?$allocator@USelectList@CreateModeSelectList@@@0@0U_Nonscalar_ptr_iterator_tag@0@@Z ; std::_Uninit_move<CreateModeSelectList::SelectList *,CreateModeSelectList::SelectList *,std::allocator<CreateModeSelectList::SelectList>,CreateModeSelectList::SelectList>
  0001a	83 c4 18	 add	 esp, 24			; 00000018H

; 472  : 	}

  0001d	c9		 leave
  0001e	c3		 ret	 0
??$_Uninitialized_move@PAUSelectList@CreateModeSelectList@@PAU12@V?$allocator@USelectList@CreateModeSelectList@@@std@@@std@@YAPAUSelectList@CreateModeSelectList@@PAU12@00AAV?$allocator@USelectList@CreateModeSelectList@@@0@@Z ENDP ; std::_Uninitialized_move<CreateModeSelectList::SelectList *,CreateModeSelectList::SelectList *,std::allocator<CreateModeSelectList::SelectList> >
_TEXT	ENDS
PUBLIC	?_Destroy@?$vector@USelectList@ModeMapSelectList@@V?$allocator@USelectList@ModeMapSelectList@@@std@@@std@@IAEXPAUSelectList@ModeMapSelectList@@0@Z ; std::vector<ModeMapSelectList::SelectList,std::allocator<ModeMapSelectList::SelectList> >::_Destroy
; Function compile flags: /Ogsp
; File c:\program files (x86)\microsoft visual studio 10.0\vc\include\vector
;	COMDAT ?_Destroy@?$vector@USelectList@ModeMapSelectList@@V?$allocator@USelectList@ModeMapSelectList@@@std@@@std@@IAEXPAUSelectList@ModeMapSelectList@@0@Z
_TEXT	SEGMENT
__First$ = 8						; size = 4
__Last$ = 12						; size = 4
?_Destroy@?$vector@USelectList@ModeMapSelectList@@V?$allocator@USelectList@ModeMapSelectList@@@std@@@std@@IAEXPAUSelectList@ModeMapSelectList@@0@Z PROC ; std::vector<ModeMapSelectList::SelectList,std::allocator<ModeMapSelectList::SelectList> >::_Destroy, COMDAT
; _this$ = ecx

; 1269 : 		{	// destroy [_First, _Last) using allocator

  00000	55		 push	 ebp
  00001	8b ec		 mov	 ebp, esp

; 1270 : 		_Destroy_range(_First, _Last, this->_Alval);

  00003	83 c1 0c	 add	 ecx, 12			; 0000000cH
  00006	51		 push	 ecx
  00007	ff 75 0c	 push	 DWORD PTR __Last$[ebp]
  0000a	ff 75 08	 push	 DWORD PTR __First$[ebp]
  0000d	e8 00 00 00 00	 call	 ??$_Destroy_range@V?$allocator@USelectList@ModeMapSelectList@@@std@@@std@@YAXPAUSelectList@ModeMapSelectList@@0AAV?$allocator@USelectList@ModeMapSelectList@@@0@@Z ; std::_Destroy_range<std::allocator<ModeMapSelectList::SelectList> >
  00012	83 c4 0c	 add	 esp, 12			; 0000000cH

; 1271 : 		}

  00015	5d		 pop	 ebp
  00016	c2 08 00	 ret	 8
?_Destroy@?$vector@USelectList@ModeMapSelectList@@V?$allocator@USelectList@ModeMapSelectList@@@std@@@std@@IAEXPAUSelectList@ModeMapSelectList@@0@Z ENDP ; std::vector<ModeMapSelectList::SelectList,std::allocator<ModeMapSelectList::SelectList> >::_Destroy
_TEXT	ENDS
PUBLIC	?_Destroy@?$vector@USelectList@CreateModeSelectList@@V?$allocator@USelectList@CreateModeSelectList@@@std@@@std@@IAEXPAUSelectList@CreateModeSelectList@@0@Z ; std::vector<CreateModeSelectList::SelectList,std::allocator<CreateModeSelectList::SelectList> >::_Destroy
; Function compile flags: /Ogsp
;	COMDAT ?_Destroy@?$vector@USelectList@CreateModeSelectList@@V?$allocator@USelectList@CreateModeSelectList@@@std@@@std@@IAEXPAUSelectList@CreateModeSelectList@@0@Z
_TEXT	SEGMENT
__First$ = 8						; size = 4
__Last$ = 12						; size = 4
?_Destroy@?$vector@USelectList@CreateModeSelectList@@V?$allocator@USelectList@CreateModeSelectList@@@std@@@std@@IAEXPAUSelectList@CreateModeSelectList@@0@Z PROC ; std::vector<CreateModeSelectList::SelectList,std::allocator<CreateModeSelectList::SelectList> >::_Destroy, COMDAT
; _this$ = ecx

; 1269 : 		{	// destroy [_First, _Last) using allocator

  00000	55		 push	 ebp
  00001	8b ec		 mov	 ebp, esp

; 1270 : 		_Destroy_range(_First, _Last, this->_Alval);

  00003	83 c1 0c	 add	 ecx, 12			; 0000000cH
  00006	51		 push	 ecx
  00007	ff 75 0c	 push	 DWORD PTR __Last$[ebp]
  0000a	ff 75 08	 push	 DWORD PTR __First$[ebp]
  0000d	e8 00 00 00 00	 call	 ??$_Destroy_range@V?$allocator@USelectList@CreateModeSelectList@@@std@@@std@@YAXPAUSelectList@CreateModeSelectList@@0AAV?$allocator@USelectList@CreateModeSelectList@@@0@@Z ; std::_Destroy_range<std::allocator<CreateModeSelectList::SelectList> >
  00012	83 c4 0c	 add	 esp, 12			; 0000000cH

; 1271 : 		}

  00015	5d		 pop	 ebp
  00016	c2 08 00	 ret	 8
?_Destroy@?$vector@USelectList@CreateModeSelectList@@V?$allocator@USelectList@CreateModeSelectList@@@std@@@std@@IAEXPAUSelectList@CreateModeSelectList@@0@Z ENDP ; std::vector<CreateModeSelectList::SelectList,std::allocator<CreateModeSelectList::SelectList> >::_Destroy
_TEXT	ENDS
PUBLIC	??$_Umove@PAUSelectList@ModeMapSelectList@@@?$vector@USelectList@ModeMapSelectList@@V?$allocator@USelectList@ModeMapSelectList@@@std@@@std@@IAEPAUSelectList@ModeMapSelectList@@PAU23@00@Z ; std::vector<ModeMapSelectList::SelectList,std::allocator<ModeMapSelectList::SelectList> >::_Umove<ModeMapSelectList::SelectList *>
; Function compile flags: /Ogsp
;	COMDAT ??$_Umove@PAUSelectList@ModeMapSelectList@@@?$vector@USelectList@ModeMapSelectList@@V?$allocator@USelectList@ModeMapSelectList@@@std@@@std@@IAEPAUSelectList@ModeMapSelectList@@PAU23@00@Z
_TEXT	SEGMENT
__First$ = 8						; size = 4
__Last$ = 12						; size = 4
__Ptr$ = 16						; size = 4
??$_Umove@PAUSelectList@ModeMapSelectList@@@?$vector@USelectList@ModeMapSelectList@@V?$allocator@USelectList@ModeMapSelectList@@@std@@@std@@IAEPAUSelectList@ModeMapSelectList@@PAU23@00@Z PROC ; std::vector<ModeMapSelectList::SelectList,std::allocator<ModeMapSelectList::SelectList> >::_Umove<ModeMapSelectList::SelectList *>, COMDAT
; _this$ = ecx

; 1322 : 		pointer _Umove(_Iter _First, _Iter _Last, pointer _Ptr)

  00000	55		 push	 ebp
  00001	8b ec		 mov	 ebp, esp

; 1323 : 		{	// move initializing [_First, _Last), using allocator
; 1324 : 		return (_Uninitialized_move(_First, _Last,
; 1325 : 			_Ptr, this->_Alval));

  00003	83 c1 0c	 add	 ecx, 12			; 0000000cH
  00006	51		 push	 ecx
  00007	ff 75 10	 push	 DWORD PTR __Ptr$[ebp]
  0000a	ff 75 0c	 push	 DWORD PTR __Last$[ebp]
  0000d	ff 75 08	 push	 DWORD PTR __First$[ebp]
  00010	e8 00 00 00 00	 call	 ??$_Uninitialized_move@PAUSelectList@ModeMapSelectList@@PAU12@V?$allocator@USelectList@ModeMapSelectList@@@std@@@std@@YAPAUSelectList@ModeMapSelectList@@PAU12@00AAV?$allocator@USelectList@ModeMapSelectList@@@0@@Z ; std::_Uninitialized_move<ModeMapSelectList::SelectList *,ModeMapSelectList::SelectList *,std::allocator<ModeMapSelectList::SelectList> >
  00015	83 c4 10	 add	 esp, 16			; 00000010H

; 1326 : 		}

  00018	5d		 pop	 ebp
  00019	c2 0c 00	 ret	 12			; 0000000cH
??$_Umove@PAUSelectList@ModeMapSelectList@@@?$vector@USelectList@ModeMapSelectList@@V?$allocator@USelectList@ModeMapSelectList@@@std@@@std@@IAEPAUSelectList@ModeMapSelectList@@PAU23@00@Z ENDP ; std::vector<ModeMapSelectList::SelectList,std::allocator<ModeMapSelectList::SelectList> >::_Umove<ModeMapSelectList::SelectList *>
_TEXT	ENDS
PUBLIC	??$_Umove@PAUSelectList@CreateModeSelectList@@@?$vector@USelectList@CreateModeSelectList@@V?$allocator@USelectList@CreateModeSelectList@@@std@@@std@@IAEPAUSelectList@CreateModeSelectList@@PAU23@00@Z ; std::vector<CreateModeSelectList::SelectList,std::allocator<CreateModeSelectList::SelectList> >::_Umove<CreateModeSelectList::SelectList *>
; Function compile flags: /Ogsp
;	COMDAT ??$_Umove@PAUSelectList@CreateModeSelectList@@@?$vector@USelectList@CreateModeSelectList@@V?$allocator@USelectList@CreateModeSelectList@@@std@@@std@@IAEPAUSelectList@CreateModeSelectList@@PAU23@00@Z
_TEXT	SEGMENT
__First$ = 8						; size = 4
__Last$ = 12						; size = 4
__Ptr$ = 16						; size = 4
??$_Umove@PAUSelectList@CreateModeSelectList@@@?$vector@USelectList@CreateModeSelectList@@V?$allocator@USelectList@CreateModeSelectList@@@std@@@std@@IAEPAUSelectList@CreateModeSelectList@@PAU23@00@Z PROC ; std::vector<CreateModeSelectList::SelectList,std::allocator<CreateModeSelectList::SelectList> >::_Umove<CreateModeSelectList::SelectList *>, COMDAT
; _this$ = ecx

; 1322 : 		pointer _Umove(_Iter _First, _Iter _Last, pointer _Ptr)

  00000	55		 push	 ebp
  00001	8b ec		 mov	 ebp, esp

; 1323 : 		{	// move initializing [_First, _Last), using allocator
; 1324 : 		return (_Uninitialized_move(_First, _Last,
; 1325 : 			_Ptr, this->_Alval));

  00003	83 c1 0c	 add	 ecx, 12			; 0000000cH
  00006	51		 push	 ecx
  00007	ff 75 10	 push	 DWORD PTR __Ptr$[ebp]
  0000a	ff 75 0c	 push	 DWORD PTR __Last$[ebp]
  0000d	ff 75 08	 push	 DWORD PTR __First$[ebp]
  00010	e8 00 00 00 00	 call	 ??$_Uninitialized_move@PAUSelectList@CreateModeSelectList@@PAU12@V?$allocator@USelectList@CreateModeSelectList@@@std@@@std@@YAPAUSelectList@CreateModeSelectList@@PAU12@00AAV?$allocator@USelectList@CreateModeSelectList@@@0@@Z ; std::_Uninitialized_move<CreateModeSelectList::SelectList *,CreateModeSelectList::SelectList *,std::allocator<CreateModeSelectList::SelectList> >
  00015	83 c4 10	 add	 esp, 16			; 00000010H

; 1326 : 		}

  00018	5d		 pop	 ebp
  00019	c2 0c 00	 ret	 12			; 0000000cH
??$_Umove@PAUSelectList@CreateModeSelectList@@@?$vector@USelectList@CreateModeSelectList@@V?$allocator@USelectList@CreateModeSelectList@@@std@@@std@@IAEPAUSelectList@CreateModeSelectList@@PAU23@00@Z ENDP ; std::vector<CreateModeSelectList::SelectList,std::allocator<CreateModeSelectList::SelectList> >::_Umove<CreateModeSelectList::SelectList *>
_TEXT	ENDS
PUBLIC	?erase@?$vector@USelectList@ModeMapSelectList@@V?$allocator@USelectList@ModeMapSelectList@@@std@@@std@@QAE?AV?$_Vector_iterator@V?$_Vector_val@USelectList@ModeMapSelectList@@V?$allocator@USelectList@ModeMapSelectList@@@std@@@std@@@2@V?$_Vector_const_iterator@V?$_Vector_val@USelectList@ModeMapSelectList@@V?$allocator@USelectList@ModeMapSelectList@@@std@@@std@@@2@0@Z ; std::vector<ModeMapSelectList::SelectList,std::allocator<ModeMapSelectList::SelectList> >::erase
; Function compile flags: /Ogsp
;	COMDAT ?erase@?$vector@USelectList@ModeMapSelectList@@V?$allocator@USelectList@ModeMapSelectList@@@std@@@std@@QAE?AV?$_Vector_iterator@V?$_Vector_val@USelectList@ModeMapSelectList@@V?$allocator@USelectList@ModeMapSelectList@@@std@@@std@@@2@V?$_Vector_const_iterator@V?$_Vector_val@USelectList@ModeMapSelectList@@V?$allocator@USelectList@ModeMapSelectList@@@std@@@std@@@2@0@Z
_TEXT	SEGMENT
___$ReturnUdt$ = 8					; size = 4
__First_arg$ = 12					; size = 4
__Cat$518880 = 16					; size = 1
__Last_arg$ = 16					; size = 4
?erase@?$vector@USelectList@ModeMapSelectList@@V?$allocator@USelectList@ModeMapSelectList@@@std@@@std@@QAE?AV?$_Vector_iterator@V?$_Vector_val@USelectList@ModeMapSelectList@@V?$allocator@USelectList@ModeMapSelectList@@@std@@@std@@@2@V?$_Vector_const_iterator@V?$_Vector_val@USelectList@ModeMapSelectList@@V?$allocator@USelectList@ModeMapSelectList@@@std@@@std@@@2@0@Z PROC ; std::vector<ModeMapSelectList::SelectList,std::allocator<ModeMapSelectList::SelectList> >::erase, COMDAT
; _this$ = ecx

; 1190 : 		{	// erase [_First, _Last)

  00000	55		 push	 ebp
  00001	8b ec		 mov	 ebp, esp

; 1191 : 		iterator _First = _Make_iter(_First_arg);

  00003	8b 45 0c	 mov	 eax, DWORD PTR __First_arg$[ebp]
  00006	53		 push	 ebx
  00007	8b 5d 08	 mov	 ebx, DWORD PTR ___$ReturnUdt$[ebp]
  0000a	56		 push	 esi
  0000b	8b f1		 mov	 esi, ecx
  0000d	89 03		 mov	 DWORD PTR [ebx], eax

; 1192 : 		iterator _Last = _Make_iter(_Last_arg);
; 1193 : 
; 1194 : 		if (_First != _Last)

  0000f	3b 45 10	 cmp	 eax, DWORD PTR __Last_arg$[ebp]
  00012	74 27		 je	 SHORT $LN1@erase

; 1195 : 			{	// worth doing, copy down over hole
; 1196 :  #if _ITERATOR_DEBUG_LEVEL == 2
; 1197 : 			if (_Last < _First || _VICONT(_First) != this
; 1198 : 				|| _VIPTR(_First) < this->_Myfirst
; 1199 : 				|| this->_Mylast < _VIPTR(_Last))
; 1200 : 				_DEBUG_ERROR("vector erase iterator outside range");
; 1201 : 			pointer _Ptr = _Move(_VIPTR(_Last), this->_Mylast,
; 1202 : 				_VIPTR(_First));
; 1203 : 			_Orphan_range(_VIPTR(_First), this->_Mylast);
; 1204 : 
; 1205 :  #else /* _ITERATOR_DEBUG_LEVEL == 2 */
; 1206 : 			pointer _Ptr = _Move(_VIPTR(_Last), this->_Mylast,
; 1207 : 				_VIPTR(_First));

  00014	8b 4e 04	 mov	 ecx, DWORD PTR [esi+4]
  00017	57		 push	 edi
  00018	ff 75 10	 push	 DWORD PTR __Cat$518880[ebp]
  0001b	50		 push	 eax
  0001c	51		 push	 ecx
  0001d	ff 75 10	 push	 DWORD PTR __Last_arg$[ebp]
  00020	e8 00 00 00 00	 call	 ??$_Move@PAUSelectList@ModeMapSelectList@@PAU12@@std@@YAPAUSelectList@ModeMapSelectList@@PAU12@00U_Nonscalar_ptr_iterator_tag@0@@Z ; std::_Move<ModeMapSelectList::SelectList *,ModeMapSelectList::SelectList *>
  00025	8b f8		 mov	 edi, eax

; 1208 :  #endif /* _ITERATOR_DEBUG_LEVEL == 2 */
; 1209 : 
; 1210 : 			_Destroy(_Ptr, this->_Mylast);

  00027	8d 46 0c	 lea	 eax, DWORD PTR [esi+12]
  0002a	50		 push	 eax
  0002b	ff 76 04	 push	 DWORD PTR [esi+4]
  0002e	57		 push	 edi
  0002f	e8 00 00 00 00	 call	 ??$_Destroy_range@V?$allocator@USelectList@ModeMapSelectList@@@std@@@std@@YAXPAUSelectList@ModeMapSelectList@@0AAV?$allocator@USelectList@ModeMapSelectList@@@0@@Z ; std::_Destroy_range<std::allocator<ModeMapSelectList::SelectList> >
  00034	83 c4 1c	 add	 esp, 28			; 0000001cH

; 1211 : 			this->_Mylast = _Ptr;

  00037	89 7e 04	 mov	 DWORD PTR [esi+4], edi
  0003a	5f		 pop	 edi
$LN1@erase:

; 1212 : 			}
; 1213 : 		return (_First);

  0003b	5e		 pop	 esi
  0003c	8b c3		 mov	 eax, ebx
  0003e	5b		 pop	 ebx

; 1214 : 		}

  0003f	5d		 pop	 ebp
  00040	c2 0c 00	 ret	 12			; 0000000cH
?erase@?$vector@USelectList@ModeMapSelectList@@V?$allocator@USelectList@ModeMapSelectList@@@std@@@std@@QAE?AV?$_Vector_iterator@V?$_Vector_val@USelectList@ModeMapSelectList@@V?$allocator@USelectList@ModeMapSelectList@@@std@@@std@@@2@V?$_Vector_const_iterator@V?$_Vector_val@USelectList@ModeMapSelectList@@V?$allocator@USelectList@ModeMapSelectList@@@std@@@std@@@2@0@Z ENDP ; std::vector<ModeMapSelectList::SelectList,std::allocator<ModeMapSelectList::SelectList> >::erase
_TEXT	ENDS
PUBLIC	?_Tidy@?$vector@USelectList@ModeMapSelectList@@V?$allocator@USelectList@ModeMapSelectList@@@std@@@std@@IAEXXZ ; std::vector<ModeMapSelectList::SelectList,std::allocator<ModeMapSelectList::SelectList> >::_Tidy
EXTRN	__imp_?_Orphan_all@_Container_base0@std@@QAEXXZ:PROC
; Function compile flags: /Ogsp
;	COMDAT ?_Tidy@?$vector@USelectList@ModeMapSelectList@@V?$allocator@USelectList@ModeMapSelectList@@@std@@@std@@IAEXXZ
_TEXT	SEGMENT
?_Tidy@?$vector@USelectList@ModeMapSelectList@@V?$allocator@USelectList@ModeMapSelectList@@@std@@@std@@IAEXXZ PROC ; std::vector<ModeMapSelectList::SelectList,std::allocator<ModeMapSelectList::SelectList> >::_Tidy, COMDAT
; _this$ = ecx

; 1301 : 		{	// free all storage

  00000	56		 push	 esi
  00001	8b f1		 mov	 esi, ecx

; 1302 : 		if (this->_Myfirst != 0)

  00003	83 3e 00	 cmp	 DWORD PTR [esi], 0
  00006	74 1e		 je	 SHORT $LN6@Tidy

; 1303 : 			{	// something to free, destroy and deallocate it
; 1304 : 			this->_Orphan_all();

  00008	ff 15 00 00 00
	00		 call	 DWORD PTR __imp_?_Orphan_all@_Container_base0@std@@QAEXXZ

; 1305 : 			_Destroy(this->_Myfirst, this->_Mylast);

  0000e	8d 46 0c	 lea	 eax, DWORD PTR [esi+12]
  00011	50		 push	 eax
  00012	ff 76 04	 push	 DWORD PTR [esi+4]
  00015	ff 36		 push	 DWORD PTR [esi]
  00017	e8 00 00 00 00	 call	 ??$_Destroy_range@V?$allocator@USelectList@ModeMapSelectList@@@std@@@std@@YAXPAUSelectList@ModeMapSelectList@@0AAV?$allocator@USelectList@ModeMapSelectList@@@0@@Z ; std::_Destroy_range<std::allocator<ModeMapSelectList::SelectList> >

; 1306 : 			this->_Alval.deallocate(this->_Myfirst,
; 1307 : 				this->_Myend - this->_Myfirst);

  0001c	ff 36		 push	 DWORD PTR [esi]
  0001e	e8 00 00 00 00	 call	 ??3@YAXPAX@Z		; operator delete
  00023	83 c4 10	 add	 esp, 16			; 00000010H
$LN6@Tidy:

; 1308 : 			}
; 1309 : 		this->_Myfirst = 0;

  00026	83 26 00	 and	 DWORD PTR [esi], 0

; 1310 : 		this->_Mylast = 0;

  00029	83 66 04 00	 and	 DWORD PTR [esi+4], 0

; 1311 : 		this->_Myend = 0;

  0002d	83 66 08 00	 and	 DWORD PTR [esi+8], 0
  00031	5e		 pop	 esi

; 1312 : 		}

  00032	c3		 ret	 0
?_Tidy@?$vector@USelectList@ModeMapSelectList@@V?$allocator@USelectList@ModeMapSelectList@@@std@@@std@@IAEXXZ ENDP ; std::vector<ModeMapSelectList::SelectList,std::allocator<ModeMapSelectList::SelectList> >::_Tidy
_TEXT	ENDS
PUBLIC	?erase@?$vector@USelectList@CreateModeSelectList@@V?$allocator@USelectList@CreateModeSelectList@@@std@@@std@@QAE?AV?$_Vector_iterator@V?$_Vector_val@USelectList@CreateModeSelectList@@V?$allocator@USelectList@CreateModeSelectList@@@std@@@std@@@2@V?$_Vector_const_iterator@V?$_Vector_val@USelectList@CreateModeSelectList@@V?$allocator@USelectList@CreateModeSelectList@@@std@@@std@@@2@0@Z ; std::vector<CreateModeSelectList::SelectList,std::allocator<CreateModeSelectList::SelectList> >::erase
; Function compile flags: /Ogsp
;	COMDAT ?erase@?$vector@USelectList@CreateModeSelectList@@V?$allocator@USelectList@CreateModeSelectList@@@std@@@std@@QAE?AV?$_Vector_iterator@V?$_Vector_val@USelectList@CreateModeSelectList@@V?$allocator@USelectList@CreateModeSelectList@@@std@@@std@@@2@V?$_Vector_const_iterator@V?$_Vector_val@USelectList@CreateModeSelectList@@V?$allocator@USelectList@CreateModeSelectList@@@std@@@std@@@2@0@Z
_TEXT	SEGMENT
___$ReturnUdt$ = 8					; size = 4
__First_arg$ = 12					; size = 4
__Cat$518977 = 16					; size = 1
__Last_arg$ = 16					; size = 4
?erase@?$vector@USelectList@CreateModeSelectList@@V?$allocator@USelectList@CreateModeSelectList@@@std@@@std@@QAE?AV?$_Vector_iterator@V?$_Vector_val@USelectList@CreateModeSelectList@@V?$allocator@USelectList@CreateModeSelectList@@@std@@@std@@@2@V?$_Vector_const_iterator@V?$_Vector_val@USelectList@CreateModeSelectList@@V?$allocator@USelectList@CreateModeSelectList@@@std@@@std@@@2@0@Z PROC ; std::vector<CreateModeSelectList::SelectList,std::allocator<CreateModeSelectList::SelectList> >::erase, COMDAT
; _this$ = ecx

; 1190 : 		{	// erase [_First, _Last)

  00000	55		 push	 ebp
  00001	8b ec		 mov	 ebp, esp

; 1191 : 		iterator _First = _Make_iter(_First_arg);

  00003	8b 45 0c	 mov	 eax, DWORD PTR __First_arg$[ebp]
  00006	53		 push	 ebx
  00007	8b 5d 08	 mov	 ebx, DWORD PTR ___$ReturnUdt$[ebp]
  0000a	56		 push	 esi
  0000b	8b f1		 mov	 esi, ecx
  0000d	89 03		 mov	 DWORD PTR [ebx], eax

; 1192 : 		iterator _Last = _Make_iter(_Last_arg);
; 1193 : 
; 1194 : 		if (_First != _Last)

  0000f	3b 45 10	 cmp	 eax, DWORD PTR __Last_arg$[ebp]
  00012	74 27		 je	 SHORT $LN1@erase@2

; 1195 : 			{	// worth doing, copy down over hole
; 1196 :  #if _ITERATOR_DEBUG_LEVEL == 2
; 1197 : 			if (_Last < _First || _VICONT(_First) != this
; 1198 : 				|| _VIPTR(_First) < this->_Myfirst
; 1199 : 				|| this->_Mylast < _VIPTR(_Last))
; 1200 : 				_DEBUG_ERROR("vector erase iterator outside range");
; 1201 : 			pointer _Ptr = _Move(_VIPTR(_Last), this->_Mylast,
; 1202 : 				_VIPTR(_First));
; 1203 : 			_Orphan_range(_VIPTR(_First), this->_Mylast);
; 1204 : 
; 1205 :  #else /* _ITERATOR_DEBUG_LEVEL == 2 */
; 1206 : 			pointer _Ptr = _Move(_VIPTR(_Last), this->_Mylast,
; 1207 : 				_VIPTR(_First));

  00014	8b 4e 04	 mov	 ecx, DWORD PTR [esi+4]
  00017	57		 push	 edi
  00018	ff 75 10	 push	 DWORD PTR __Cat$518977[ebp]
  0001b	50		 push	 eax
  0001c	51		 push	 ecx
  0001d	ff 75 10	 push	 DWORD PTR __Last_arg$[ebp]
  00020	e8 00 00 00 00	 call	 ??$_Move@PAUSelectList@CreateModeSelectList@@PAU12@@std@@YAPAUSelectList@CreateModeSelectList@@PAU12@00U_Nonscalar_ptr_iterator_tag@0@@Z ; std::_Move<CreateModeSelectList::SelectList *,CreateModeSelectList::SelectList *>
  00025	8b f8		 mov	 edi, eax

; 1208 :  #endif /* _ITERATOR_DEBUG_LEVEL == 2 */
; 1209 : 
; 1210 : 			_Destroy(_Ptr, this->_Mylast);

  00027	8d 46 0c	 lea	 eax, DWORD PTR [esi+12]
  0002a	50		 push	 eax
  0002b	ff 76 04	 push	 DWORD PTR [esi+4]
  0002e	57		 push	 edi
  0002f	e8 00 00 00 00	 call	 ??$_Destroy_range@V?$allocator@USelectList@CreateModeSelectList@@@std@@@std@@YAXPAUSelectList@CreateModeSelectList@@0AAV?$allocator@USelectList@CreateModeSelectList@@@0@@Z ; std::_Destroy_range<std::allocator<CreateModeSelectList::SelectList> >
  00034	83 c4 1c	 add	 esp, 28			; 0000001cH

; 1211 : 			this->_Mylast = _Ptr;

  00037	89 7e 04	 mov	 DWORD PTR [esi+4], edi
  0003a	5f		 pop	 edi
$LN1@erase@2:

; 1212 : 			}
; 1213 : 		return (_First);

  0003b	5e		 pop	 esi
  0003c	8b c3		 mov	 eax, ebx
  0003e	5b		 pop	 ebx

; 1214 : 		}

  0003f	5d		 pop	 ebp
  00040	c2 0c 00	 ret	 12			; 0000000cH
?erase@?$vector@USelectList@CreateModeSelectList@@V?$allocator@USelectList@CreateModeSelectList@@@std@@@std@@QAE?AV?$_Vector_iterator@V?$_Vector_val@USelectList@CreateModeSelectList@@V?$allocator@USelectList@CreateModeSelectList@@@std@@@std@@@2@V?$_Vector_const_iterator@V?$_Vector_val@USelectList@CreateModeSelectList@@V?$allocator@USelectList@CreateModeSelectList@@@std@@@std@@@2@0@Z ENDP ; std::vector<CreateModeSelectList::SelectList,std::allocator<CreateModeSelectList::SelectList> >::erase
_TEXT	ENDS
PUBLIC	?_Tidy@?$vector@USelectList@CreateModeSelectList@@V?$allocator@USelectList@CreateModeSelectList@@@std@@@std@@IAEXXZ ; std::vector<CreateModeSelectList::SelectList,std::allocator<CreateModeSelectList::SelectList> >::_Tidy
; Function compile flags: /Ogsp
;	COMDAT ?_Tidy@?$vector@USelectList@CreateModeSelectList@@V?$allocator@USelectList@CreateModeSelectList@@@std@@@std@@IAEXXZ
_TEXT	SEGMENT
?_Tidy@?$vector@USelectList@CreateModeSelectList@@V?$allocator@USelectList@CreateModeSelectList@@@std@@@std@@IAEXXZ PROC ; std::vector<CreateModeSelectList::SelectList,std::allocator<CreateModeSelectList::SelectList> >::_Tidy, COMDAT
; _this$ = ecx

; 1301 : 		{	// free all storage

  00000	56		 push	 esi
  00001	8b f1		 mov	 esi, ecx

; 1302 : 		if (this->_Myfirst != 0)

  00003	83 3e 00	 cmp	 DWORD PTR [esi], 0
  00006	74 1e		 je	 SHORT $LN6@Tidy@2

; 1303 : 			{	// something to free, destroy and deallocate it
; 1304 : 			this->_Orphan_all();

  00008	ff 15 00 00 00
	00		 call	 DWORD PTR __imp_?_Orphan_all@_Container_base0@std@@QAEXXZ

; 1305 : 			_Destroy(this->_Myfirst, this->_Mylast);

  0000e	8d 46 0c	 lea	 eax, DWORD PTR [esi+12]
  00011	50		 push	 eax
  00012	ff 76 04	 push	 DWORD PTR [esi+4]
  00015	ff 36		 push	 DWORD PTR [esi]
  00017	e8 00 00 00 00	 call	 ??$_Destroy_range@V?$allocator@USelectList@CreateModeSelectList@@@std@@@std@@YAXPAUSelectList@CreateModeSelectList@@0AAV?$allocator@USelectList@CreateModeSelectList@@@0@@Z ; std::_Destroy_range<std::allocator<CreateModeSelectList::SelectList> >

; 1306 : 			this->_Alval.deallocate(this->_Myfirst,
; 1307 : 				this->_Myend - this->_Myfirst);

  0001c	ff 36		 push	 DWORD PTR [esi]
  0001e	e8 00 00 00 00	 call	 ??3@YAXPAX@Z		; operator delete
  00023	83 c4 10	 add	 esp, 16			; 00000010H
$LN6@Tidy@2:

; 1308 : 			}
; 1309 : 		this->_Myfirst = 0;

  00026	83 26 00	 and	 DWORD PTR [esi], 0

; 1310 : 		this->_Mylast = 0;

  00029	83 66 04 00	 and	 DWORD PTR [esi+4], 0

; 1311 : 		this->_Myend = 0;

  0002d	83 66 08 00	 and	 DWORD PTR [esi+8], 0
  00031	5e		 pop	 esi

; 1312 : 		}

  00032	c3		 ret	 0
?_Tidy@?$vector@USelectList@CreateModeSelectList@@V?$allocator@USelectList@CreateModeSelectList@@@std@@@std@@IAEXXZ ENDP ; std::vector<CreateModeSelectList::SelectList,std::allocator<CreateModeSelectList::SelectList> >::_Tidy
_TEXT	ENDS
PUBLIC	?reserve@?$vector@USelectList@ModeMapSelectList@@V?$allocator@USelectList@ModeMapSelectList@@@std@@@std@@QAEXI@Z ; std::vector<ModeMapSelectList::SelectList,std::allocator<ModeMapSelectList::SelectList> >::reserve
;	COMDAT xdata$x
; File c:\program files (x86)\microsoft visual studio 10.0\vc\include\xmemory
xdata$x	SEGMENT
__catchsym$?reserve@?$vector@USelectList@ModeMapSelectList@@V?$allocator@USelectList@ModeMapSelectList@@@std@@@std@@QAEXI@Z$2 DD 040H
	DD	00H
	DD	00H
	DD	FLAT:__catch$?reserve@?$vector@USelectList@ModeMapSelectList@@V?$allocator@USelectList@ModeMapSelectList@@@std@@@std@@QAEXI@Z$0
__unwindtable$?reserve@?$vector@USelectList@ModeMapSelectList@@V?$allocator@USelectList@ModeMapSelectList@@@std@@@std@@QAEXI@Z DD 0ffffffffH
	DD	00H
	DD	0ffffffffH
	DD	00H
__tryblocktable$?reserve@?$vector@USelectList@ModeMapSelectList@@V?$allocator@USelectList@ModeMapSelectList@@@std@@@std@@QAEXI@Z DD 00H
	DD	00H
	DD	01H
	DD	01H
	DD	FLAT:__catchsym$?reserve@?$vector@USelectList@ModeMapSelectList@@V?$allocator@USelectList@ModeMapSelectList@@@std@@@std@@QAEXI@Z$2
__ehfuncinfo$?reserve@?$vector@USelectList@ModeMapSelectList@@V?$allocator@USelectList@ModeMapSelectList@@@std@@@std@@QAEXI@Z DD 019930522H
	DD	02H
	DD	FLAT:__unwindtable$?reserve@?$vector@USelectList@ModeMapSelectList@@V?$allocator@USelectList@ModeMapSelectList@@@std@@@std@@QAEXI@Z
	DD	01H
	DD	FLAT:__tryblocktable$?reserve@?$vector@USelectList@ModeMapSelectList@@V?$allocator@USelectList@ModeMapSelectList@@@std@@@std@@QAEXI@Z
	DD	2 DUP(00H)
	DD	00H
	DD	01H
; Function compile flags: /Ogsp
; File c:\program files (x86)\microsoft visual studio 10.0\vc\include\vector
xdata$x	ENDS
;	COMDAT ?reserve@?$vector@USelectList@ModeMapSelectList@@V?$allocator@USelectList@ModeMapSelectList@@@std@@@std@@QAEXI@Z
_TEXT	SEGMENT
__$EHRec$ = -16						; size = 16
__Ptr$510904 = 8					; size = 4
__Count$ = 8						; size = 4
?reserve@?$vector@USelectList@ModeMapSelectList@@V?$allocator@USelectList@ModeMapSelectList@@@std@@@std@@QAEXI@Z PROC ; std::vector<ModeMapSelectList::SelectList,std::allocator<ModeMapSelectList::SelectList> >::reserve, COMDAT
; _this$ = ecx

; 746  : 		{	// determine new minimum length of allocated storage

  00000	6a 04		 push	 4
  00002	b8 00 00 00 00	 mov	 eax, __ehhandler$?reserve@?$vector@USelectList@ModeMapSelectList@@V?$allocator@USelectList@ModeMapSelectList@@@std@@@std@@QAEXI@Z
  00007	e8 00 00 00 00	 call	 __EH_prolog3_catch
  0000c	8b f1		 mov	 esi, ecx

; 747  : 		if (max_size() < _Count)

  0000e	8b 5d 08	 mov	 ebx, DWORD PTR __Count$[ebp]
  00011	81 fb c7 71 1c
	07		 cmp	 ebx, 119304647		; 071c71c7H
  00017	76 0b		 jbe	 SHORT $LN5@reserve

; 748  : 			_Xlen();	// result too long

  00019	68 00 00 00 00	 push	 OFFSET ??_C@_0BD@OLBABOEK@vector?$DMT?$DO?5too?5long?$AA@
  0001e	ff 15 00 00 00
	00		 call	 DWORD PTR __imp_?_Xlength_error@std@@YAXPBD@Z
$LN38@reserve:
$LN5@reserve:

; 749  : 		else if (capacity() < _Count)

  00024	8b 46 08	 mov	 eax, DWORD PTR [esi+8]
  00027	2b 06		 sub	 eax, DWORD PTR [esi]
  00029	6a 24		 push	 36			; 00000024H
  0002b	99		 cdq
  0002c	59		 pop	 ecx
  0002d	f7 f9		 idiv	 ecx
  0002f	3b c3		 cmp	 eax, ebx
  00031	73 70		 jae	 SHORT $LN3@reserve

; 750  : 			{	// not enough room, reallocate
; 751  : 			pointer _Ptr = this->_Alval.allocate(_Count);

  00033	6a 00		 push	 0
  00035	53		 push	 ebx
  00036	e8 00 00 00 00	 call	 ??$_Allocate@USelectList@ModeMapSelectList@@@std@@YAPAUSelectList@ModeMapSelectList@@IPAU12@@Z ; std::_Allocate<ModeMapSelectList::SelectList>

; 752  : 
; 753  : 			_TRY_BEGIN
; 754  : 			_Umove(this->_Myfirst, this->_Mylast, _Ptr);

  0003b	8b 0e		 mov	 ecx, DWORD PTR [esi]
  0003d	83 65 fc 00	 and	 DWORD PTR __$EHRec$[ebp+12], 0
  00041	8d 56 0c	 lea	 edx, DWORD PTR [esi+12]
  00044	52		 push	 edx
  00045	89 45 08	 mov	 DWORD PTR __Ptr$510904[ebp], eax
  00048	ff 75 08	 push	 DWORD PTR __Ptr$510904[ebp]
  0004b	8b 46 04	 mov	 eax, DWORD PTR [esi+4]
  0004e	50		 push	 eax
  0004f	51		 push	 ecx
  00050	e8 00 00 00 00	 call	 ??$_Uninitialized_move@PAUSelectList@ModeMapSelectList@@PAU12@V?$allocator@USelectList@ModeMapSelectList@@@std@@@std@@YAPAUSelectList@ModeMapSelectList@@PAU12@00AAV?$allocator@USelectList@ModeMapSelectList@@@0@@Z ; std::_Uninitialized_move<ModeMapSelectList::SelectList *,ModeMapSelectList::SelectList *,std::allocator<ModeMapSelectList::SelectList> >

; 758  : 			_CATCH_END
; 759  : 
; 760  : 			size_type _Size = size();

  00055	8b 0e		 mov	 ecx, DWORD PTR [esi]
  00057	8b 46 04	 mov	 eax, DWORD PTR [esi+4]
  0005a	83 c4 18	 add	 esp, 24			; 00000018H
  0005d	2b c1		 sub	 eax, ecx
  0005f	6a 24		 push	 36			; 00000024H
  00061	99		 cdq
  00062	5f		 pop	 edi
  00063	f7 ff		 idiv	 edi
  00065	83 4d fc ff	 or	 DWORD PTR __$EHRec$[ebp+12], -1
  00069	8b f8		 mov	 edi, eax
  0006b	85 c9		 test	 ecx, ecx
  0006d	74 17		 je	 SHORT $LN33@reserve

; 761  : 			if (this->_Myfirst != 0)
; 762  : 				{	// destroy and deallocate old array
; 763  : 				_Destroy(this->_Myfirst, this->_Mylast);

  0006f	8d 46 0c	 lea	 eax, DWORD PTR [esi+12]
  00072	50		 push	 eax
  00073	ff 76 04	 push	 DWORD PTR [esi+4]
  00076	51		 push	 ecx
  00077	e8 00 00 00 00	 call	 ??$_Destroy_range@V?$allocator@USelectList@ModeMapSelectList@@@std@@@std@@YAXPAUSelectList@ModeMapSelectList@@0AAV?$allocator@USelectList@ModeMapSelectList@@@0@@Z ; std::_Destroy_range<std::allocator<ModeMapSelectList::SelectList> >

; 764  : 				this->_Alval.deallocate(this->_Myfirst,
; 765  : 					this->_Myend - this->_Myfirst);

  0007c	ff 36		 push	 DWORD PTR [esi]
  0007e	e8 00 00 00 00	 call	 ??3@YAXPAX@Z		; operator delete
  00083	83 c4 10	 add	 esp, 16			; 00000010H
$LN33@reserve:

; 766  : 				}
; 767  : 
; 768  : 			this->_Orphan_all();

  00086	8b ce		 mov	 ecx, esi
  00088	ff 15 00 00 00
	00		 call	 DWORD PTR __imp_?_Orphan_all@_Container_base0@std@@QAEXXZ

; 769  : 			this->_Myend = _Ptr + _Count;

  0008e	6b db 24	 imul	 ebx, 36			; 00000024H

; 770  : 			this->_Mylast = _Ptr + _Size;

  00091	6b ff 24	 imul	 edi, 36			; 00000024H
  00094	8b 45 08	 mov	 eax, DWORD PTR __Ptr$510904[ebp]
  00097	03 d8		 add	 ebx, eax
  00099	03 f8		 add	 edi, eax
  0009b	89 5e 08	 mov	 DWORD PTR [esi+8], ebx
  0009e	89 7e 04	 mov	 DWORD PTR [esi+4], edi

; 771  : 			this->_Myfirst = _Ptr;

  000a1	89 06		 mov	 DWORD PTR [esi], eax
$LN3@reserve:

; 772  : 			}
; 773  : 		}

  000a3	e8 00 00 00 00	 call	 __EH_epilog3
  000a8	c2 04 00	 ret	 4
__catch$?reserve@?$vector@USelectList@ModeMapSelectList@@V?$allocator@USelectList@ModeMapSelectList@@@std@@@std@@QAEXI@Z$0:

; 755  : 			_CATCH_ALL
; 756  : 			this->_Alval.deallocate(_Ptr, _Count);

  000ab	ff 75 08	 push	 DWORD PTR __Ptr$510904[ebp]
  000ae	e8 00 00 00 00	 call	 ??3@YAXPAX@Z		; operator delete
  000b3	59		 pop	 ecx

; 757  : 			_RERAISE;

  000b4	6a 00		 push	 0
  000b6	6a 00		 push	 0
  000b8	e8 00 00 00 00	 call	 __CxxThrowException@8
$LN39@reserve:
$LN37@reserve:
  000bd	cc		 int	 3
_TEXT	ENDS
;	COMDAT text$x
text$x	SEGMENT
__ehhandler$?reserve@?$vector@USelectList@ModeMapSelectList@@V?$allocator@USelectList@ModeMapSelectList@@@std@@@std@@QAEXI@Z:
  00000	8b 54 24 08	 mov	 edx, DWORD PTR [esp+8]
  00004	8d 42 0c	 lea	 eax, DWORD PTR [edx+12]
  00007	8b 4a ec	 mov	 ecx, DWORD PTR [edx-20]
  0000a	33 c8		 xor	 ecx, eax
  0000c	e8 00 00 00 00	 call	 @__security_check_cookie@4
  00011	b8 00 00 00 00	 mov	 eax, OFFSET __ehfuncinfo$?reserve@?$vector@USelectList@ModeMapSelectList@@V?$allocator@USelectList@ModeMapSelectList@@@std@@@std@@QAEXI@Z
  00016	e9 00 00 00 00	 jmp	 ___CxxFrameHandler3
text$x	ENDS
?reserve@?$vector@USelectList@ModeMapSelectList@@V?$allocator@USelectList@ModeMapSelectList@@@std@@@std@@QAEXI@Z ENDP ; std::vector<ModeMapSelectList::SelectList,std::allocator<ModeMapSelectList::SelectList> >::reserve
PUBLIC	?reserve@?$vector@USelectList@CreateModeSelectList@@V?$allocator@USelectList@CreateModeSelectList@@@std@@@std@@QAEXI@Z ; std::vector<CreateModeSelectList::SelectList,std::allocator<CreateModeSelectList::SelectList> >::reserve
;	COMDAT xdata$x
; File c:\program files (x86)\microsoft visual studio 10.0\vc\include\xmemory
xdata$x	SEGMENT
__catchsym$?reserve@?$vector@USelectList@CreateModeSelectList@@V?$allocator@USelectList@CreateModeSelectList@@@std@@@std@@QAEXI@Z$2 DD 040H
	DD	00H
	DD	00H
	DD	FLAT:__catch$?reserve@?$vector@USelectList@CreateModeSelectList@@V?$allocator@USelectList@CreateModeSelectList@@@std@@@std@@QAEXI@Z$0
__unwindtable$?reserve@?$vector@USelectList@CreateModeSelectList@@V?$allocator@USelectList@CreateModeSelectList@@@std@@@std@@QAEXI@Z DD 0ffffffffH
	DD	00H
	DD	0ffffffffH
	DD	00H
__tryblocktable$?reserve@?$vector@USelectList@CreateModeSelectList@@V?$allocator@USelectList@CreateModeSelectList@@@std@@@std@@QAEXI@Z DD 00H
	DD	00H
	DD	01H
	DD	01H
	DD	FLAT:__catchsym$?reserve@?$vector@USelectList@CreateModeSelectList@@V?$allocator@USelectList@CreateModeSelectList@@@std@@@std@@QAEXI@Z$2
__ehfuncinfo$?reserve@?$vector@USelectList@CreateModeSelectList@@V?$allocator@USelectList@CreateModeSelectList@@@std@@@std@@QAEXI@Z DD 019930522H
	DD	02H
	DD	FLAT:__unwindtable$?reserve@?$vector@USelectList@CreateModeSelectList@@V?$allocator@USelectList@CreateModeSelectList@@@std@@@std@@QAEXI@Z
	DD	01H
	DD	FLAT:__tryblocktable$?reserve@?$vector@USelectList@CreateModeSelectList@@V?$allocator@USelectList@CreateModeSelectList@@@std@@@std@@QAEXI@Z
	DD	2 DUP(00H)
	DD	00H
	DD	01H
; Function compile flags: /Ogsp
; File c:\program files (x86)\microsoft visual studio 10.0\vc\include\vector
xdata$x	ENDS
;	COMDAT ?reserve@?$vector@USelectList@CreateModeSelectList@@V?$allocator@USelectList@CreateModeSelectList@@@std@@@std@@QAEXI@Z
_TEXT	SEGMENT
__$EHRec$ = -16						; size = 16
__Ptr$510944 = 8					; size = 4
__Count$ = 8						; size = 4
?reserve@?$vector@USelectList@CreateModeSelectList@@V?$allocator@USelectList@CreateModeSelectList@@@std@@@std@@QAEXI@Z PROC ; std::vector<CreateModeSelectList::SelectList,std::allocator<CreateModeSelectList::SelectList> >::reserve, COMDAT
; _this$ = ecx

; 746  : 		{	// determine new minimum length of allocated storage

  00000	6a 04		 push	 4
  00002	b8 00 00 00 00	 mov	 eax, __ehhandler$?reserve@?$vector@USelectList@CreateModeSelectList@@V?$allocator@USelectList@CreateModeSelectList@@@std@@@std@@QAEXI@Z
  00007	e8 00 00 00 00	 call	 __EH_prolog3_catch
  0000c	8b f1		 mov	 esi, ecx

; 747  : 		if (max_size() < _Count)

  0000e	8b 5d 08	 mov	 ebx, DWORD PTR __Count$[ebp]
  00011	81 fb ff ff ff
	07		 cmp	 ebx, 134217727		; 07ffffffH
  00017	76 0b		 jbe	 SHORT $LN5@reserve@2

; 748  : 			_Xlen();	// result too long

  00019	68 00 00 00 00	 push	 OFFSET ??_C@_0BD@OLBABOEK@vector?$DMT?$DO?5too?5long?$AA@
  0001e	ff 15 00 00 00
	00		 call	 DWORD PTR __imp_?_Xlength_error@std@@YAXPBD@Z
$LN38@reserve@2:
$LN5@reserve@2:

; 749  : 		else if (capacity() < _Count)

  00024	8b 46 08	 mov	 eax, DWORD PTR [esi+8]
  00027	2b 06		 sub	 eax, DWORD PTR [esi]
  00029	c1 f8 05	 sar	 eax, 5
  0002c	3b c3		 cmp	 eax, ebx
  0002e	73 68		 jae	 SHORT $LN3@reserve@2

; 750  : 			{	// not enough room, reallocate
; 751  : 			pointer _Ptr = this->_Alval.allocate(_Count);

  00030	6a 00		 push	 0
  00032	53		 push	 ebx
  00033	e8 00 00 00 00	 call	 ??$_Allocate@USelectList@CreateModeSelectList@@@std@@YAPAUSelectList@CreateModeSelectList@@IPAU12@@Z ; std::_Allocate<CreateModeSelectList::SelectList>

; 752  : 
; 753  : 			_TRY_BEGIN
; 754  : 			_Umove(this->_Myfirst, this->_Mylast, _Ptr);

  00038	8b 0e		 mov	 ecx, DWORD PTR [esi]
  0003a	83 65 fc 00	 and	 DWORD PTR __$EHRec$[ebp+12], 0
  0003e	8d 56 0c	 lea	 edx, DWORD PTR [esi+12]
  00041	52		 push	 edx
  00042	89 45 08	 mov	 DWORD PTR __Ptr$510944[ebp], eax
  00045	ff 75 08	 push	 DWORD PTR __Ptr$510944[ebp]
  00048	8b 46 04	 mov	 eax, DWORD PTR [esi+4]
  0004b	50		 push	 eax
  0004c	51		 push	 ecx
  0004d	e8 00 00 00 00	 call	 ??$_Uninitialized_move@PAUSelectList@CreateModeSelectList@@PAU12@V?$allocator@USelectList@CreateModeSelectList@@@std@@@std@@YAPAUSelectList@CreateModeSelectList@@PAU12@00AAV?$allocator@USelectList@CreateModeSelectList@@@0@@Z ; std::_Uninitialized_move<CreateModeSelectList::SelectList *,CreateModeSelectList::SelectList *,std::allocator<CreateModeSelectList::SelectList> >

; 758  : 			_CATCH_END
; 759  : 
; 760  : 			size_type _Size = size();

  00052	8b 4e 04	 mov	 ecx, DWORD PTR [esi+4]
  00055	8b 06		 mov	 eax, DWORD PTR [esi]
  00057	83 4d fc ff	 or	 DWORD PTR __$EHRec$[ebp+12], -1
  0005b	8b f9		 mov	 edi, ecx
  0005d	83 c4 18	 add	 esp, 24			; 00000018H
  00060	2b f8		 sub	 edi, eax
  00062	85 c0		 test	 eax, eax
  00064	74 15		 je	 SHORT $LN33@reserve@2

; 761  : 			if (this->_Myfirst != 0)
; 762  : 				{	// destroy and deallocate old array
; 763  : 				_Destroy(this->_Myfirst, this->_Mylast);

  00066	8d 56 0c	 lea	 edx, DWORD PTR [esi+12]
  00069	52		 push	 edx
  0006a	51		 push	 ecx
  0006b	50		 push	 eax
  0006c	e8 00 00 00 00	 call	 ??$_Destroy_range@V?$allocator@USelectList@CreateModeSelectList@@@std@@@std@@YAXPAUSelectList@CreateModeSelectList@@0AAV?$allocator@USelectList@CreateModeSelectList@@@0@@Z ; std::_Destroy_range<std::allocator<CreateModeSelectList::SelectList> >

; 764  : 				this->_Alval.deallocate(this->_Myfirst,
; 765  : 					this->_Myend - this->_Myfirst);

  00071	ff 36		 push	 DWORD PTR [esi]
  00073	e8 00 00 00 00	 call	 ??3@YAXPAX@Z		; operator delete
  00078	83 c4 10	 add	 esp, 16			; 00000010H
$LN33@reserve@2:

; 766  : 				}
; 767  : 
; 768  : 			this->_Orphan_all();

  0007b	8b ce		 mov	 ecx, esi
  0007d	ff 15 00 00 00
	00		 call	 DWORD PTR __imp_?_Orphan_all@_Container_base0@std@@QAEXXZ

; 769  : 			this->_Myend = _Ptr + _Count;

  00083	8b 45 08	 mov	 eax, DWORD PTR __Ptr$510944[ebp]
  00086	c1 e3 05	 shl	 ebx, 5
  00089	03 d8		 add	 ebx, eax

; 770  : 			this->_Mylast = _Ptr + _Size;

  0008b	83 e7 e0	 and	 edi, -32		; ffffffe0H
  0008e	03 f8		 add	 edi, eax
  00090	89 5e 08	 mov	 DWORD PTR [esi+8], ebx
  00093	89 7e 04	 mov	 DWORD PTR [esi+4], edi

; 771  : 			this->_Myfirst = _Ptr;

  00096	89 06		 mov	 DWORD PTR [esi], eax
$LN3@reserve@2:

; 772  : 			}
; 773  : 		}

  00098	e8 00 00 00 00	 call	 __EH_epilog3
  0009d	c2 04 00	 ret	 4
__catch$?reserve@?$vector@USelectList@CreateModeSelectList@@V?$allocator@USelectList@CreateModeSelectList@@@std@@@std@@QAEXI@Z$0:

; 755  : 			_CATCH_ALL
; 756  : 			this->_Alval.deallocate(_Ptr, _Count);

  000a0	ff 75 08	 push	 DWORD PTR __Ptr$510944[ebp]
  000a3	e8 00 00 00 00	 call	 ??3@YAXPAX@Z		; operator delete
  000a8	59		 pop	 ecx

; 757  : 			_RERAISE;

  000a9	6a 00		 push	 0
  000ab	6a 00		 push	 0
  000ad	e8 00 00 00 00	 call	 __CxxThrowException@8
$LN39@reserve@2:
$LN37@reserve@2:
  000b2	cc		 int	 3
_TEXT	ENDS
;	COMDAT text$x
text$x	SEGMENT
__ehhandler$?reserve@?$vector@USelectList@CreateModeSelectList@@V?$allocator@USelectList@CreateModeSelectList@@@std@@@std@@QAEXI@Z:
  00000	8b 54 24 08	 mov	 edx, DWORD PTR [esp+8]
  00004	8d 42 0c	 lea	 eax, DWORD PTR [edx+12]
  00007	8b 4a ec	 mov	 ecx, DWORD PTR [edx-20]
  0000a	33 c8		 xor	 ecx, eax
  0000c	e8 00 00 00 00	 call	 @__security_check_cookie@4
  00011	b8 00 00 00 00	 mov	 eax, OFFSET __ehfuncinfo$?reserve@?$vector@USelectList@CreateModeSelectList@@V?$allocator@USelectList@CreateModeSelectList@@@std@@@std@@QAEXI@Z
  00016	e9 00 00 00 00	 jmp	 ___CxxFrameHandler3
text$x	ENDS
?reserve@?$vector@USelectList@CreateModeSelectList@@V?$allocator@USelectList@CreateModeSelectList@@@std@@@std@@QAEXI@Z ENDP ; std::vector<CreateModeSelectList::SelectList,std::allocator<CreateModeSelectList::SelectList> >::reserve
PUBLIC	??1?$vector@USelectList@ModeMapSelectList@@V?$allocator@USelectList@ModeMapSelectList@@@std@@@std@@QAE@XZ ; std::vector<ModeMapSelectList::SelectList,std::allocator<ModeMapSelectList::SelectList> >::~vector<ModeMapSelectList::SelectList,std::allocator<ModeMapSelectList::SelectList> >
; Function compile flags: /Ogsp
;	COMDAT ??1?$vector@USelectList@ModeMapSelectList@@V?$allocator@USelectList@ModeMapSelectList@@@std@@@std@@QAE@XZ
_TEXT	SEGMENT
??1?$vector@USelectList@ModeMapSelectList@@V?$allocator@USelectList@ModeMapSelectList@@@std@@@std@@QAE@XZ PROC ; std::vector<ModeMapSelectList::SelectList,std::allocator<ModeMapSelectList::SelectList> >::~vector<ModeMapSelectList::SelectList,std::allocator<ModeMapSelectList::SelectList> >, COMDAT
; _this$ = ecx

; 705  : 		_Tidy();

  00000	e9 00 00 00 00	 jmp	 ?_Tidy@?$vector@USelectList@ModeMapSelectList@@V?$allocator@USelectList@ModeMapSelectList@@@std@@@std@@IAEXXZ ; std::vector<ModeMapSelectList::SelectList,std::allocator<ModeMapSelectList::SelectList> >::_Tidy
??1?$vector@USelectList@ModeMapSelectList@@V?$allocator@USelectList@ModeMapSelectList@@@std@@@std@@QAE@XZ ENDP ; std::vector<ModeMapSelectList::SelectList,std::allocator<ModeMapSelectList::SelectList> >::~vector<ModeMapSelectList::SelectList,std::allocator<ModeMapSelectList::SelectList> >
_TEXT	ENDS
PUBLIC	?clear@?$vector@USelectList@ModeMapSelectList@@V?$allocator@USelectList@ModeMapSelectList@@@std@@@std@@QAEXXZ ; std::vector<ModeMapSelectList::SelectList,std::allocator<ModeMapSelectList::SelectList> >::clear
; Function compile flags: /Ogsp
;	COMDAT ?clear@?$vector@USelectList@ModeMapSelectList@@V?$allocator@USelectList@ModeMapSelectList@@@std@@@std@@QAEXXZ
_TEXT	SEGMENT
$T519141 = -4						; size = 4
?clear@?$vector@USelectList@ModeMapSelectList@@V?$allocator@USelectList@ModeMapSelectList@@@std@@@std@@QAEXXZ PROC ; std::vector<ModeMapSelectList::SelectList,std::allocator<ModeMapSelectList::SelectList> >::clear, COMDAT
; _this$ = ecx

; 1217 : 		{	// erase all

  00000	55		 push	 ebp
  00001	8b ec		 mov	 ebp, esp
  00003	51		 push	 ecx

; 1218 : 		erase(begin(), end());

  00004	8b 41 04	 mov	 eax, DWORD PTR [ecx+4]
  00007	8b 11		 mov	 edx, DWORD PTR [ecx]
  00009	50		 push	 eax
  0000a	52		 push	 edx
  0000b	8d 45 fc	 lea	 eax, DWORD PTR $T519141[ebp]
  0000e	50		 push	 eax
  0000f	e8 00 00 00 00	 call	 ?erase@?$vector@USelectList@ModeMapSelectList@@V?$allocator@USelectList@ModeMapSelectList@@@std@@@std@@QAE?AV?$_Vector_iterator@V?$_Vector_val@USelectList@ModeMapSelectList@@V?$allocator@USelectList@ModeMapSelectList@@@std@@@std@@@2@V?$_Vector_const_iterator@V?$_Vector_val@USelectList@ModeMapSelectList@@V?$allocator@USelectList@ModeMapSelectList@@@std@@@std@@@2@0@Z ; std::vector<ModeMapSelectList::SelectList,std::allocator<ModeMapSelectList::SelectList> >::erase

; 1219 : 		}

  00014	c9		 leave
  00015	c3		 ret	 0
?clear@?$vector@USelectList@ModeMapSelectList@@V?$allocator@USelectList@ModeMapSelectList@@@std@@@std@@QAEXXZ ENDP ; std::vector<ModeMapSelectList::SelectList,std::allocator<ModeMapSelectList::SelectList> >::clear
_TEXT	ENDS
PUBLIC	??1?$vector@USelectList@CreateModeSelectList@@V?$allocator@USelectList@CreateModeSelectList@@@std@@@std@@QAE@XZ ; std::vector<CreateModeSelectList::SelectList,std::allocator<CreateModeSelectList::SelectList> >::~vector<CreateModeSelectList::SelectList,std::allocator<CreateModeSelectList::SelectList> >
; Function compile flags: /Ogsp
;	COMDAT ??1?$vector@USelectList@CreateModeSelectList@@V?$allocator@USelectList@CreateModeSelectList@@@std@@@std@@QAE@XZ
_TEXT	SEGMENT
??1?$vector@USelectList@CreateModeSelectList@@V?$allocator@USelectList@CreateModeSelectList@@@std@@@std@@QAE@XZ PROC ; std::vector<CreateModeSelectList::SelectList,std::allocator<CreateModeSelectList::SelectList> >::~vector<CreateModeSelectList::SelectList,std::allocator<CreateModeSelectList::SelectList> >, COMDAT
; _this$ = ecx

; 705  : 		_Tidy();

  00000	e9 00 00 00 00	 jmp	 ?_Tidy@?$vector@USelectList@CreateModeSelectList@@V?$allocator@USelectList@CreateModeSelectList@@@std@@@std@@IAEXXZ ; std::vector<CreateModeSelectList::SelectList,std::allocator<CreateModeSelectList::SelectList> >::_Tidy
??1?$vector@USelectList@CreateModeSelectList@@V?$allocator@USelectList@CreateModeSelectList@@@std@@@std@@QAE@XZ ENDP ; std::vector<CreateModeSelectList::SelectList,std::allocator<CreateModeSelectList::SelectList> >::~vector<CreateModeSelectList::SelectList,std::allocator<CreateModeSelectList::SelectList> >
_TEXT	ENDS
PUBLIC	?clear@?$vector@USelectList@CreateModeSelectList@@V?$allocator@USelectList@CreateModeSelectList@@@std@@@std@@QAEXXZ ; std::vector<CreateModeSelectList::SelectList,std::allocator<CreateModeSelectList::SelectList> >::clear
; Function compile flags: /Ogsp
;	COMDAT ?clear@?$vector@USelectList@CreateModeSelectList@@V?$allocator@USelectList@CreateModeSelectList@@@std@@@std@@QAEXXZ
_TEXT	SEGMENT
$T519205 = -4						; size = 4
?clear@?$vector@USelectList@CreateModeSelectList@@V?$allocator@USelectList@CreateModeSelectList@@@std@@@std@@QAEXXZ PROC ; std::vector<CreateModeSelectList::SelectList,std::allocator<CreateModeSelectList::SelectList> >::clear, COMDAT
; _this$ = ecx

; 1217 : 		{	// erase all

  00000	55		 push	 ebp
  00001	8b ec		 mov	 ebp, esp
  00003	51		 push	 ecx

; 1218 : 		erase(begin(), end());

  00004	8b 41 04	 mov	 eax, DWORD PTR [ecx+4]
  00007	8b 11		 mov	 edx, DWORD PTR [ecx]
  00009	50		 push	 eax
  0000a	52		 push	 edx
  0000b	8d 45 fc	 lea	 eax, DWORD PTR $T519205[ebp]
  0000e	50		 push	 eax
  0000f	e8 00 00 00 00	 call	 ?erase@?$vector@USelectList@CreateModeSelectList@@V?$allocator@USelectList@CreateModeSelectList@@@std@@@std@@QAE?AV?$_Vector_iterator@V?$_Vector_val@USelectList@CreateModeSelectList@@V?$allocator@USelectList@CreateModeSelectList@@@std@@@std@@@2@V?$_Vector_const_iterator@V?$_Vector_val@USelectList@CreateModeSelectList@@V?$allocator@USelectList@CreateModeSelectList@@@std@@@std@@@2@0@Z ; std::vector<CreateModeSelectList::SelectList,std::allocator<CreateModeSelectList::SelectList> >::erase

; 1219 : 		}

  00014	c9		 leave
  00015	c3		 ret	 0
?clear@?$vector@USelectList@CreateModeSelectList@@V?$allocator@USelectList@CreateModeSelectList@@@std@@@std@@QAEXXZ ENDP ; std::vector<CreateModeSelectList::SelectList,std::allocator<CreateModeSelectList::SelectList> >::clear
_TEXT	ENDS
PUBLIC	?_Reserve@?$vector@USelectList@ModeMapSelectList@@V?$allocator@USelectList@ModeMapSelectList@@@std@@@std@@IAEXI@Z ; std::vector<ModeMapSelectList::SelectList,std::allocator<ModeMapSelectList::SelectList> >::_Reserve
; Function compile flags: /Ogsp
;	COMDAT ?_Reserve@?$vector@USelectList@ModeMapSelectList@@V?$allocator@USelectList@ModeMapSelectList@@@std@@@std@@IAEXI@Z
_TEXT	SEGMENT
__Count$ = 8						; size = 4
?_Reserve@?$vector@USelectList@ModeMapSelectList@@V?$allocator@USelectList@ModeMapSelectList@@@std@@@std@@IAEXI@Z PROC ; std::vector<ModeMapSelectList::SelectList,std::allocator<ModeMapSelectList::SelectList> >::_Reserve, COMDAT
; _this$ = ecx

; 1290 : 		{	// ensure room for _Count new elements, grow exponentially

  00000	55		 push	 ebp
  00001	8b ec		 mov	 ebp, esp
  00003	56		 push	 esi
  00004	8b f1		 mov	 esi, ecx

; 1291 : 		size_type _Size = size();

  00006	8b 0e		 mov	 ecx, DWORD PTR [esi]
  00008	8b 46 04	 mov	 eax, DWORD PTR [esi+4]
  0000b	2b c1		 sub	 eax, ecx
  0000d	57		 push	 edi
  0000e	99		 cdq
  0000f	6a 24		 push	 36			; 00000024H
  00011	5f		 pop	 edi
  00012	f7 ff		 idiv	 edi
  00014	8b f8		 mov	 edi, eax

; 1292 : 		if (max_size() - _Count < _Size)

  00016	b8 c7 71 1c 07	 mov	 eax, 119304647		; 071c71c7H
  0001b	2b 45 08	 sub	 eax, DWORD PTR __Count$[ebp]
  0001e	3b c7		 cmp	 eax, edi
  00020	73 0b		 jae	 SHORT $LN4@Reserve

; 1293 : 			_Xlen();

  00022	68 00 00 00 00	 push	 OFFSET ??_C@_0BD@OLBABOEK@vector?$DMT?$DO?5too?5long?$AA@
  00027	ff 15 00 00 00
	00		 call	 DWORD PTR __imp_?_Xlength_error@std@@YAXPBD@Z
$LN21@Reserve:
$LN4@Reserve:

; 1294 : 		else if ((_Size += _Count) <= capacity())

  0002d	8b 46 08	 mov	 eax, DWORD PTR [esi+8]
  00030	2b c1		 sub	 eax, ecx
  00032	6a 24		 push	 36			; 00000024H
  00034	99		 cdq
  00035	59		 pop	 ecx
  00036	f7 f9		 idiv	 ecx
  00038	03 7d 08	 add	 edi, DWORD PTR __Count$[ebp]
  0003b	3b f8		 cmp	 edi, eax
  0003d	76 10		 jbe	 SHORT $LN1@Reserve

; 1295 : 			;
; 1296 : 		else
; 1297 : 			reserve(_Grow_to(_Size));

  0003f	57		 push	 edi
  00040	8b ce		 mov	 ecx, esi
  00042	e8 00 00 00 00	 call	 ?_Grow_to@?$vector@USelectList@ModeMapSelectList@@V?$allocator@USelectList@ModeMapSelectList@@@std@@@std@@IBEII@Z ; std::vector<ModeMapSelectList::SelectList,std::allocator<ModeMapSelectList::SelectList> >::_Grow_to
  00047	50		 push	 eax
  00048	8b ce		 mov	 ecx, esi
  0004a	e8 00 00 00 00	 call	 ?reserve@?$vector@USelectList@ModeMapSelectList@@V?$allocator@USelectList@ModeMapSelectList@@@std@@@std@@QAEXI@Z ; std::vector<ModeMapSelectList::SelectList,std::allocator<ModeMapSelectList::SelectList> >::reserve
$LN1@Reserve:
  0004f	5f		 pop	 edi
  00050	5e		 pop	 esi

; 1298 : 		}

  00051	5d		 pop	 ebp
  00052	c2 04 00	 ret	 4
$LN20@Reserve:
?_Reserve@?$vector@USelectList@ModeMapSelectList@@V?$allocator@USelectList@ModeMapSelectList@@@std@@@std@@IAEXI@Z ENDP ; std::vector<ModeMapSelectList::SelectList,std::allocator<ModeMapSelectList::SelectList> >::_Reserve
_TEXT	ENDS
PUBLIC	?_Reserve@?$vector@USelectList@CreateModeSelectList@@V?$allocator@USelectList@CreateModeSelectList@@@std@@@std@@IAEXI@Z ; std::vector<CreateModeSelectList::SelectList,std::allocator<CreateModeSelectList::SelectList> >::_Reserve
; Function compile flags: /Ogsp
;	COMDAT ?_Reserve@?$vector@USelectList@CreateModeSelectList@@V?$allocator@USelectList@CreateModeSelectList@@@std@@@std@@IAEXI@Z
_TEXT	SEGMENT
__Count$ = 8						; size = 4
?_Reserve@?$vector@USelectList@CreateModeSelectList@@V?$allocator@USelectList@CreateModeSelectList@@@std@@@std@@IAEXI@Z PROC ; std::vector<CreateModeSelectList::SelectList,std::allocator<CreateModeSelectList::SelectList> >::_Reserve, COMDAT
; _this$ = ecx

; 1290 : 		{	// ensure room for _Count new elements, grow exponentially

  00000	55		 push	 ebp
  00001	8b ec		 mov	 ebp, esp
  00003	56		 push	 esi
  00004	8b f1		 mov	 esi, ecx

; 1291 : 		size_type _Size = size();

  00006	8b 0e		 mov	 ecx, DWORD PTR [esi]
  00008	8b 46 04	 mov	 eax, DWORD PTR [esi+4]
  0000b	2b c1		 sub	 eax, ecx

; 1292 : 		if (max_size() - _Count < _Size)

  0000d	ba ff ff ff 07	 mov	 edx, 134217727		; 07ffffffH
  00012	2b 55 08	 sub	 edx, DWORD PTR __Count$[ebp]
  00015	c1 f8 05	 sar	 eax, 5
  00018	3b d0		 cmp	 edx, eax
  0001a	73 0b		 jae	 SHORT $LN4@Reserve@2

; 1293 : 			_Xlen();

  0001c	68 00 00 00 00	 push	 OFFSET ??_C@_0BD@OLBABOEK@vector?$DMT?$DO?5too?5long?$AA@
  00021	ff 15 00 00 00
	00		 call	 DWORD PTR __imp_?_Xlength_error@std@@YAXPBD@Z
$LN21@Reserve@2:
$LN4@Reserve@2:

; 1294 : 		else if ((_Size += _Count) <= capacity())

  00027	8b 56 08	 mov	 edx, DWORD PTR [esi+8]
  0002a	03 45 08	 add	 eax, DWORD PTR __Count$[ebp]
  0002d	2b d1		 sub	 edx, ecx
  0002f	c1 fa 05	 sar	 edx, 5
  00032	3b c2		 cmp	 eax, edx
  00034	76 10		 jbe	 SHORT $LN1@Reserve@2

; 1295 : 			;
; 1296 : 		else
; 1297 : 			reserve(_Grow_to(_Size));

  00036	50		 push	 eax
  00037	8b ce		 mov	 ecx, esi
  00039	e8 00 00 00 00	 call	 ?_Grow_to@?$vector@USelectList@CreateModeSelectList@@V?$allocator@USelectList@CreateModeSelectList@@@std@@@std@@IBEII@Z ; std::vector<CreateModeSelectList::SelectList,std::allocator<CreateModeSelectList::SelectList> >::_Grow_to
  0003e	50		 push	 eax
  0003f	8b ce		 mov	 ecx, esi
  00041	e8 00 00 00 00	 call	 ?reserve@?$vector@USelectList@CreateModeSelectList@@V?$allocator@USelectList@CreateModeSelectList@@@std@@@std@@QAEXI@Z ; std::vector<CreateModeSelectList::SelectList,std::allocator<CreateModeSelectList::SelectList> >::reserve
$LN1@Reserve@2:
  00046	5e		 pop	 esi

; 1298 : 		}

  00047	5d		 pop	 ebp
  00048	c2 04 00	 ret	 4
$LN20@Reserve@2:
?_Reserve@?$vector@USelectList@CreateModeSelectList@@V?$allocator@USelectList@CreateModeSelectList@@@std@@@std@@IAEXI@Z ENDP ; std::vector<CreateModeSelectList::SelectList,std::allocator<CreateModeSelectList::SelectList> >::_Reserve
_TEXT	ENDS
PUBLIC	??_7ModeMapSelectList@@6B@			; ModeMapSelectList::`vftable'
PUBLIC	??0ModeMapSelectList@@QAE@XZ			; ModeMapSelectList::ModeMapSelectList
PUBLIC	??_R4ModeMapSelectList@@6B@			; ModeMapSelectList::`RTTI Complete Object Locator'
PUBLIC	??_R0?AVModeMapSelectList@@@8			; ModeMapSelectList `RTTI Type Descriptor'
PUBLIC	??_R3ModeMapSelectList@@8			; ModeMapSelectList::`RTTI Class Hierarchy Descriptor'
PUBLIC	??_R2ModeMapSelectList@@8			; ModeMapSelectList::`RTTI Base Class Array'
PUBLIC	??_R1A@?0A@EA@ModeMapSelectList@@8		; ModeMapSelectList::`RTTI Base Class Descriptor at (0,-1,0,64)'
PUBLIC	??_R1A@?0A@EA@ioWnd@@8				; ioWnd::`RTTI Base Class Descriptor at (0,-1,0,64)'
PUBLIC	??_R3ioWnd@@8					; ioWnd::`RTTI Class Hierarchy Descriptor'
PUBLIC	??_R2ioWnd@@8					; ioWnd::`RTTI Base Class Array'
PUBLIC	?OpenList@ModeMapSelectList@@UAEXPAVioWnd@@_NH1HH1@Z ; ModeMapSelectList::OpenList
PUBLIC	?AddList@ModeMapSelectList@@UAEXH_NABVioHashString@@HHPAVioUIRenderImage@@@Z ; ModeMapSelectList::AddList
EXTRN	__imp_??0ioWnd@@QAE@XZ:PROC
EXTRN	?AddRenderFrame@ioWnd@@UAEXABVioHashString@@PAVioUIRenderFrame@@@Z:PROC ; ioWnd::AddRenderFrame
EXTRN	?AddTooltipHelp@ioWnd@@UAEXABVioHashString@@00@Z:PROC ; ioWnd::AddTooltipHelp
EXTRN	?AddNamedRenderImage@ioWnd@@UAEXABVioHashString@@PAVioUIRenderImage@@@Z:PROC ; ioWnd::AddNamedRenderImage
EXTRN	?RemoveNamedRenderImage@ioWnd@@UAEXABVioHashString@@@Z:PROC ; ioWnd::RemoveNamedRenderImage
EXTRN	?GetNamedRenderImage@ioWnd@@UBEPAVioUIRenderImage@@ABVioHashString@@@Z:PROC ; ioWnd::GetNamedRenderImage
EXTRN	?SetWindowAlpha@ioWnd@@UAEXH@Z:PROC		; ioWnd::SetWindowAlpha
EXTRN	?SetActive@ioWnd@@UAEXXZ:PROC			; ioWnd::SetActive
EXTRN	?SetInActive@ioWnd@@UAEXXZ:PROC			; ioWnd::SetInActive
EXTRN	?ClearElementImageList@ioWnd@@UAEXXZ:PROC	; ioWnd::ClearElementImageList
EXTRN	?SetSize@ioWnd@@UAEXHH@Z:PROC			; ioWnd::SetSize
EXTRN	?SetPositionToDefault@ioWnd@@UAEXHH_N0@Z:PROC	; ioWnd::SetPositionToDefault
EXTRN	?IsNeedProcess@ioWnd@@UBE_NXZ:PROC		; ioWnd::IsNeedProcess
EXTRN	?IsCanMouseReaction@ioWnd@@UBE_NXZ:PROC		; ioWnd::IsCanMouseReaction
EXTRN	?AddChild@ioWnd@@UAEXPAV1@@Z:PROC		; ioWnd::AddChild
EXTRN	?DeleteChild@ioWnd@@UAEXK@Z:PROC		; ioWnd::DeleteChild
EXTRN	?DeleteAllChild@ioWnd@@UAEXXZ:PROC		; ioWnd::DeleteAllChild
EXTRN	?OnRenderShowAndHide@ioWnd@@MAE_NXZ:PROC	; ioWnd::OnRenderShowAndHide
EXTRN	?OnRenderShowAndHideByDefault@ioWnd@@MAE_NK@Z:PROC ; ioWnd::OnRenderShowAndHideByDefault
EXTRN	?OnRenderShowAndHideByTop@ioWnd@@MAE_NK@Z:PROC	; ioWnd::OnRenderShowAndHideByTop
EXTRN	?OnRenderShowAndHideByDown@ioWnd@@MAE_NK@Z:PROC	; ioWnd::OnRenderShowAndHideByDown
EXTRN	?OnRenderAfterChild@ioWnd@@MAEXXZ:PROC		; ioWnd::OnRenderAfterChild
EXTRN	?OnMouseProcess@ioWnd@@MAEXABVioMouse@@@Z:PROC	; ioWnd::OnMouseProcess
EXTRN	?CheckFrameReSize@ioWnd@@MAEXHHHH@Z:PROC	; ioWnd::CheckFrameReSize
EXTRN	?RenderImageList@ioWnd@@MAEXHHW4UIRenderType@@@Z:PROC ; ioWnd::RenderImageList
EXTRN	?iwm_create@ioWnd@@UAEXXZ:PROC			; ioWnd::iwm_create
EXTRN	?iwm_destroy@ioWnd@@UAEXXZ:PROC			; ioWnd::iwm_destroy
EXTRN	?iwm_lbuttondown@ioWnd@@UAEXABVioMouse@@@Z:PROC	; ioWnd::iwm_lbuttondown
EXTRN	?iwm_lbuttonup@ioWnd@@UAEXABVioMouse@@@Z:PROC	; ioWnd::iwm_lbuttonup
EXTRN	?iwm_lbuttonDBLCLK@ioWnd@@UAEXABVioMouse@@@Z:PROC ; ioWnd::iwm_lbuttonDBLCLK
EXTRN	?iwm_rbuttondown@ioWnd@@UAEXABVioMouse@@@Z:PROC	; ioWnd::iwm_rbuttondown
EXTRN	?iwm_rbuttonup@ioWnd@@UAEXABVioMouse@@@Z:PROC	; ioWnd::iwm_rbuttonup
EXTRN	?iwm_command@ioWnd@@UAEXPAV1@HK@Z:PROC		; ioWnd::iwm_command
EXTRN	?iwm_mouseover@ioWnd@@UAEXABVioMouse@@@Z:PROC	; ioWnd::iwm_mouseover
EXTRN	?iwm_mousemove@ioWnd@@UAEXABVioMouse@@@Z:PROC	; ioWnd::iwm_mousemove
EXTRN	?iwm_mouseleave@ioWnd@@UAEXABVioMouse@@@Z:PROC	; ioWnd::iwm_mouseleave
EXTRN	?iwm_esc@ioWnd@@UAE_NXZ:PROC			; ioWnd::iwm_esc
EXTRN	?iwm_spacebar@ioWnd@@UAE_NXZ:PROC		; ioWnd::iwm_spacebar
EXTRN	?iwm_gototop@ioWnd@@UAEXXZ:PROC			; ioWnd::iwm_gototop
EXTRN	?iwm_dragenter@ioWnd@@UAE?AW4IWDropEffect@@PAVioDragItem@@ABVioMouse@@@Z:PROC ; ioWnd::iwm_dragenter
EXTRN	?iwm_dragover@ioWnd@@UAE?AW4IWDropEffect@@PAVioDragItem@@ABVioMouse@@@Z:PROC ; ioWnd::iwm_dragover
EXTRN	?iwm_dragleave@ioWnd@@UAEXXZ:PROC		; ioWnd::iwm_dragleave
EXTRN	?iwm_dropitem@ioWnd@@UAE_NPAVioDragItem@@ABVioMouse@@PAV1@@Z:PROC ; ioWnd::iwm_dropitem
EXTRN	?iwm_dropdone@ioWnd@@UAEXPAVioDragItem@@PAV1@_N@Z:PROC ; ioWnd::iwm_dropdone
EXTRN	?IsEXType@ioWnd@@UBE_NXZ:PROC			; ioWnd::IsEXType
EXTRN	?GetWndType@ioWnd@@UBEKXZ:PROC			; ioWnd::GetWndType
EXTRN	?RenderWnd@ioWnd@@UAEXXZ:PROC			; ioWnd::RenderWnd
EXTRN	?SetIDEX@ioWnd@@UAEXAAK_N@Z:PROC		; ioWnd::SetIDEX
EXTRN	?ParseXML@ioWnd@@UAEXAAVioXMLElement@@@Z:PROC	; ioWnd::ParseXML
EXTRN	?GetHeaderFileName@ioWnd@@UAEPBDXZ:PROC		; ioWnd::GetHeaderFileName
EXTRN	?GetTemplateName@ioWnd@@UAEPBDXZ:PROC		; ioWnd::GetTemplateName
EXTRN	?GetDefClassName@ioWnd@@UBEPBDXZ:PROC		; ioWnd::GetDefClassName
EXTRN	?_Clone@ioWnd@@UAEPAV1@XZ:PROC			; ioWnd::_Clone
EXTRN	?Copy@ioWnd@@UAEXPAV1@@Z:PROC			; ioWnd::Copy
EXTRN	?Save@ioWnd@@UAE_NAAVioXMLElement@@@Z:PROC	; ioWnd::Save
EXTRN	?SetSaveData@ioWnd@@UAEXAAVioXMLElement@@@Z:PROC ; ioWnd::SetSaveData
EXTRN	?SetPosX@ioWnd@@UAEXH@Z:PROC			; ioWnd::SetPosX
EXTRN	?SetPosY@ioWnd@@UAEXH@Z:PROC			; ioWnd::SetPosY
EXTRN	?SetWidth@ioWnd@@UAEXH@Z:PROC			; ioWnd::SetWidth
EXTRN	?SetHeight@ioWnd@@UAEXH@Z:PROC			; ioWnd::SetHeight
EXTRN	?GetNumFixedRenderFrame@ioWnd@@UBEHXZ:PROC	; ioWnd::GetNumFixedRenderFrame
EXTRN	?GetFixedRenderFrameType@ioWnd@@UAEPBDH@Z:PROC	; ioWnd::GetFixedRenderFrameType
EXTRN	?GetRenderFrame@ioWnd@@UAEPAPAVioUIRenderElement@@PBD@Z:PROC ; ioWnd::GetRenderFrame
EXTRN	?GetNumFixedRenderImage@ioWnd@@UBEHXZ:PROC	; ioWnd::GetNumFixedRenderImage
EXTRN	?GetFixedRenderImageType@ioWnd@@UAEPBDH@Z:PROC	; ioWnd::GetFixedRenderImageType
EXTRN	?GetRenderImage@ioWnd@@UAEPAPAVioUIRenderElement@@PBD@Z:PROC ; ioWnd::GetRenderImage
EXTRN	?AddEffect@ioWnd@@UAEXABVioHashString@@PAVioUI3DEffectRender@@@Z:PROC ; ioWnd::AddEffect
EXTRN	?GetEffect@ioWnd@@UAEPAVioUI3DEffectRender@@VioHashString@@@Z:PROC ; ioWnd::GetEffect
EXTRN	??_EModeMapSelectList@@UAEPAXI@Z:PROC		; ModeMapSelectList::`vector deleting destructor'
;	COMDAT ??_R2ioWnd@@8
; File c:\program files (x86)\microsoft visual studio 10.0\vc\include\xmemory
rdata$r	SEGMENT
??_R2ioWnd@@8 DD FLAT:??_R1A@?0A@EA@ioWnd@@8		; ioWnd::`RTTI Base Class Array'
rdata$r	ENDS
;	COMDAT ??_R3ioWnd@@8
rdata$r	SEGMENT
??_R3ioWnd@@8 DD 00H					; ioWnd::`RTTI Class Hierarchy Descriptor'
	DD	00H
	DD	01H
	DD	FLAT:??_R2ioWnd@@8
rdata$r	ENDS
;	COMDAT ??_R1A@?0A@EA@ioWnd@@8
rdata$r	SEGMENT
??_R1A@?0A@EA@ioWnd@@8 DD FLAT:??_R0?AVioWnd@@@8	; ioWnd::`RTTI Base Class Descriptor at (0,-1,0,64)'
	DD	00H
	DD	00H
	DD	0ffffffffH
	DD	00H
	DD	040H
	DD	FLAT:??_R3ioWnd@@8
rdata$r	ENDS
;	COMDAT ??_R1A@?0A@EA@ModeMapSelectList@@8
rdata$r	SEGMENT
??_R1A@?0A@EA@ModeMapSelectList@@8 DD FLAT:??_R0?AVModeMapSelectList@@@8 ; ModeMapSelectList::`RTTI Base Class Descriptor at (0,-1,0,64)'
	DD	01H
	DD	00H
	DD	0ffffffffH
	DD	00H
	DD	040H
	DD	FLAT:??_R3ModeMapSelectList@@8
rdata$r	ENDS
;	COMDAT ??_R2ModeMapSelectList@@8
rdata$r	SEGMENT
??_R2ModeMapSelectList@@8 DD FLAT:??_R1A@?0A@EA@ModeMapSelectList@@8 ; ModeMapSelectList::`RTTI Base Class Array'
	DD	FLAT:??_R1A@?0A@EA@ioWnd@@8
rdata$r	ENDS
;	COMDAT ??_R3ModeMapSelectList@@8
rdata$r	SEGMENT
??_R3ModeMapSelectList@@8 DD 00H			; ModeMapSelectList::`RTTI Class Hierarchy Descriptor'
	DD	00H
	DD	02H
	DD	FLAT:??_R2ModeMapSelectList@@8
rdata$r	ENDS
;	COMDAT ??_R0?AVModeMapSelectList@@@8
_DATA	SEGMENT
??_R0?AVModeMapSelectList@@@8 DD FLAT:??_7type_info@@6B@ ; ModeMapSelectList `RTTI Type Descriptor'
	DD	00H
	DB	'.?AVModeMapSelectList@@', 00H
_DATA	ENDS
;	COMDAT ??_R4ModeMapSelectList@@6B@
rdata$r	SEGMENT
??_R4ModeMapSelectList@@6B@ DD 00H			; ModeMapSelectList::`RTTI Complete Object Locator'
	DD	00H
	DD	00H
	DD	FLAT:??_R0?AVModeMapSelectList@@@8
	DD	FLAT:??_R3ModeMapSelectList@@8
rdata$r	ENDS
;	COMDAT ??_7ModeMapSelectList@@6B@
CONST	SEGMENT
??_7ModeMapSelectList@@6B@ DD FLAT:??_R4ModeMapSelectList@@6B@ ; ModeMapSelectList::`vftable'
	DD	FLAT:?AddRenderFrame@ioWnd@@UAEXABVioHashString@@PAVioUIRenderFrame@@@Z
	DD	FLAT:?AddRenderImage@ModeMapSelectList@@UAEXABVioHashString@@PAVioUIRenderImage@@@Z
	DD	FLAT:?AddTooltipHelp@ioWnd@@UAEXABVioHashString@@00@Z
	DD	FLAT:?ParseExtraInfo@ModeMapSelectList@@UAEXAAVioXMLElement@@@Z
	DD	FLAT:?AddNamedRenderImage@ioWnd@@UAEXABVioHashString@@PAVioUIRenderImage@@@Z
	DD	FLAT:?RemoveNamedRenderImage@ioWnd@@UAEXABVioHashString@@@Z
	DD	FLAT:?GetNamedRenderImage@ioWnd@@UBEPAVioUIRenderImage@@ABVioHashString@@@Z
	DD	FLAT:?SetWindowAlpha@ioWnd@@UAEXH@Z
	DD	FLAT:?SetActive@ioWnd@@UAEXXZ
	DD	FLAT:?SetInActive@ioWnd@@UAEXXZ
	DD	FLAT:?ClearElementImageList@ioWnd@@UAEXXZ
	DD	FLAT:?SetSize@ioWnd@@UAEXHH@Z
	DD	FLAT:?SetPositionToDefault@ioWnd@@UAEXHH_N0@Z
	DD	FLAT:?IsNeedProcess@ioWnd@@UBE_NXZ
	DD	FLAT:?IsCanMouseReaction@ioWnd@@UBE_NXZ
	DD	FLAT:?AddChild@ioWnd@@UAEXPAV1@@Z
	DD	FLAT:?DeleteChild@ioWnd@@UAEXK@Z
	DD	FLAT:?DeleteAllChild@ioWnd@@UAEXXZ
	DD	FLAT:?OnRenderShowAndHide@ioWnd@@MAE_NXZ
	DD	FLAT:?OnRenderShowAndHideByDefault@ioWnd@@MAE_NK@Z
	DD	FLAT:?OnRenderShowAndHideByTop@ioWnd@@MAE_NK@Z
	DD	FLAT:?OnRenderShowAndHideByDown@ioWnd@@MAE_NK@Z
	DD	FLAT:?OnRender@ModeMapSelectList@@MAEXXZ
	DD	FLAT:?OnRenderAfterChild@ioWnd@@MAEXXZ
	DD	FLAT:?OnProcess@ModeMapSelectList@@MAEXM@Z
	DD	FLAT:?OnMouseProcess@ioWnd@@MAEXABVioMouse@@@Z
	DD	FLAT:?CheckFrameReSize@ioWnd@@MAEXHHHH@Z
	DD	FLAT:?RenderImageList@ioWnd@@MAEXHHW4UIRenderType@@@Z
	DD	FLAT:?iwm_create@ioWnd@@UAEXXZ
	DD	FLAT:?iwm_destroy@ioWnd@@UAEXXZ
	DD	FLAT:?iwm_lbuttondown@ioWnd@@UAEXABVioMouse@@@Z
	DD	FLAT:?iwm_lbuttonup@ioWnd@@UAEXABVioMouse@@@Z
	DD	FLAT:?iwm_lbuttonDBLCLK@ioWnd@@UAEXABVioMouse@@@Z
	DD	FLAT:?iwm_rbuttondown@ioWnd@@UAEXABVioMouse@@@Z
	DD	FLAT:?iwm_rbuttonup@ioWnd@@UAEXABVioMouse@@@Z
	DD	FLAT:?iwm_command@ioWnd@@UAEXPAV1@HK@Z
	DD	FLAT:?iwm_mouseover@ioWnd@@UAEXABVioMouse@@@Z
	DD	FLAT:?iwm_mousemove@ioWnd@@UAEXABVioMouse@@@Z
	DD	FLAT:?iwm_mouseleave@ioWnd@@UAEXABVioMouse@@@Z
	DD	FLAT:?iwm_vscroll@ModeMapSelectList@@UAEXKH@Z
	DD	FLAT:?iwm_wheel@ModeMapSelectList@@UAEXH@Z
	DD	FLAT:?iwm_show@ModeMapSelectList@@UAEXXZ
	DD	FLAT:?iwm_hide@ModeMapSelectList@@UAEXXZ
	DD	FLAT:?iwm_esc@ioWnd@@UAE_NXZ
	DD	FLAT:?iwm_spacebar@ioWnd@@UAE_NXZ
	DD	FLAT:?iwm_gototop@ioWnd@@UAEXXZ
	DD	FLAT:?iwm_dragenter@ioWnd@@UAE?AW4IWDropEffect@@PAVioDragItem@@ABVioMouse@@@Z
	DD	FLAT:?iwm_dragover@ioWnd@@UAE?AW4IWDropEffect@@PAVioDragItem@@ABVioMouse@@@Z
	DD	FLAT:?iwm_dragleave@ioWnd@@UAEXXZ
	DD	FLAT:?iwm_dropitem@ioWnd@@UAE_NPAVioDragItem@@ABVioMouse@@PAV1@@Z
	DD	FLAT:?iwm_dropdone@ioWnd@@UAEXPAVioDragItem@@PAV1@_N@Z
	DD	FLAT:?IsEXType@ioWnd@@UBE_NXZ
	DD	FLAT:?GetWndType@ioWnd@@UBEKXZ
	DD	FLAT:?RenderWnd@ioWnd@@UAEXXZ
	DD	FLAT:?SetIDEX@ioWnd@@UAEXAAK_N@Z
	DD	FLAT:?ParseXML@ioWnd@@UAEXAAVioXMLElement@@@Z
	DD	FLAT:?GetHeaderFileName@ioWnd@@UAEPBDXZ
	DD	FLAT:?GetTemplateName@ioWnd@@UAEPBDXZ
	DD	FLAT:?GetDefClassName@ioWnd@@UBEPBDXZ
	DD	FLAT:?_Clone@ioWnd@@UAEPAV1@XZ
	DD	FLAT:?Copy@ioWnd@@UAEXPAV1@@Z
	DD	FLAT:?Save@ioWnd@@UAE_NAAVioXMLElement@@@Z
	DD	FLAT:?SetSaveData@ioWnd@@UAEXAAVioXMLElement@@@Z
	DD	FLAT:?SetPosX@ioWnd@@UAEXH@Z
	DD	FLAT:?SetPosY@ioWnd@@UAEXH@Z
	DD	FLAT:?SetWidth@ioWnd@@UAEXH@Z
	DD	FLAT:?SetHeight@ioWnd@@UAEXH@Z
	DD	FLAT:?GetNumFixedRenderFrame@ioWnd@@UBEHXZ
	DD	FLAT:?GetFixedRenderFrameType@ioWnd@@UAEPBDH@Z
	DD	FLAT:?GetRenderFrame@ioWnd@@UAEPAPAVioUIRenderElement@@PBD@Z
	DD	FLAT:?GetNumFixedRenderImage@ioWnd@@UBEHXZ
	DD	FLAT:?GetFixedRenderImageType@ioWnd@@UAEPBDH@Z
	DD	FLAT:?GetRenderImage@ioWnd@@UAEPAPAVioUIRenderElement@@PBD@Z
	DD	FLAT:?AddEffect@ioWnd@@UAEXABVioHashString@@PAVioUI3DEffectRender@@@Z
	DD	FLAT:?GetEffect@ioWnd@@UAEPAVioUI3DEffectRender@@VioHashString@@@Z
	DD	FLAT:??_EModeMapSelectList@@UAEPAXI@Z
	DD	FLAT:?OpenList@ModeMapSelectList@@UAEXPAVioWnd@@_NH1HH1@Z
	DD	FLAT:?AddList@ModeMapSelectList@@UAEXH_NABVioHashString@@HHPAVioUIRenderImage@@@Z
; Function compile flags: /Ogsp
; File d:\lost saga for developer\youtube\tutorial\source\src\lsclient\gui\modemapselectlist.cpp
CONST	ENDS
;	COMDAT ??0ModeMapSelectList@@QAE@XZ
_TEXT	SEGMENT
??0ModeMapSelectList@@QAE@XZ PROC			; ModeMapSelectList::ModeMapSelectList, COMDAT
; _this$ = ecx

; 29   : {

  00000	56		 push	 esi
  00001	8b f1		 mov	 esi, ecx
  00003	ff 15 00 00 00
	00		 call	 DWORD PTR __imp_??0ioWnd@@QAE@XZ
  00009	33 c0		 xor	 eax, eax
  0000b	89 86 70 01 00
	00		 mov	 DWORD PTR [esi+368], eax
  00011	c7 06 00 00 00
	00		 mov	 DWORD PTR [esi], OFFSET ??_7ModeMapSelectList@@6B@
  00017	89 86 bc 01 00
	00		 mov	 DWORD PTR [esi+444], eax
  0001d	89 86 c0 01 00
	00		 mov	 DWORD PTR [esi+448], eax
  00023	89 86 c4 01 00
	00		 mov	 DWORD PTR [esi+452], eax

; 30   : 	m_pDarkLine	 = NULL;
; 31   : 	m_pLightLine = NULL;
; 32   : 	m_pOverLine	 = NULL;
; 33   : 	m_pManualMark= NULL;
; 34   : 
; 35   : 	m_iAddWidth	= 0;
; 36   : 	m_iAddHeight= 0;
; 37   : 	m_iListXPos = 0;
; 38   : 	m_iListYPos = 0;
; 39   : 	m_iStartXPos= 0;
; 40   : 	m_iStartYPos= 0;
; 41   : 	m_iCutWidth = 0;
; 42   : 	m_iHeightGap= 0;	
; 43   : 	m_iCurPos   = 0;	
; 44   : 	m_iSelectIndex   = -1;

  00029	83 8e a4 01 00
	00 ff		 or	 DWORD PTR [esi+420], -1

; 45   : 	m_bSafetyLevelRoom = false;
; 46   : 	m_iOverListIndex = -2;

  00030	6a fe		 push	 -2			; fffffffeH
  00032	59		 pop	 ecx
  00033	89 86 60 01 00
	00		 mov	 DWORD PTR [esi+352], eax
  00039	89 86 64 01 00
	00		 mov	 DWORD PTR [esi+356], eax
  0003f	89 86 68 01 00
	00		 mov	 DWORD PTR [esi+360], eax
  00045	89 86 6c 01 00
	00		 mov	 DWORD PTR [esi+364], eax
  0004b	89 86 74 01 00
	00		 mov	 DWORD PTR [esi+372], eax
  00051	89 86 78 01 00
	00		 mov	 DWORD PTR [esi+376], eax
  00057	89 86 7c 01 00
	00		 mov	 DWORD PTR [esi+380], eax
  0005d	89 86 80 01 00
	00		 mov	 DWORD PTR [esi+384], eax
  00063	89 86 88 01 00
	00		 mov	 DWORD PTR [esi+392], eax
  00069	89 86 8c 01 00
	00		 mov	 DWORD PTR [esi+396], eax
  0006f	89 86 90 01 00
	00		 mov	 DWORD PTR [esi+400], eax
  00075	89 86 84 01 00
	00		 mov	 DWORD PTR [esi+388], eax
  0007b	89 86 a0 01 00
	00		 mov	 DWORD PTR [esi+416], eax
  00081	88 86 a8 01 00
	00		 mov	 BYTE PTR [esi+424], al

; 47   : 	m_iOverMarkListIndex = -2;
; 48   : 	m_bOverSafetyLevel = false;
; 49   : 	m_iManualMarkX = 0;

  00087	89 86 98 01 00
	00		 mov	 DWORD PTR [esi+408], eax

; 50   : 	m_iManualMarkWidth = 0;

  0008d	89 86 9c 01 00
	00		 mov	 DWORD PTR [esi+412], eax

; 51   : 	m_pModeHelpTooltip  = NULL;

  00093	89 86 cc 01 00
	00		 mov	 DWORD PTR [esi+460], eax
  00099	66 89 86 b4 01
	00 00		 mov	 WORD PTR [esi+436], ax

; 52   : 	m_bModeSelect   = false;	
; 53   : 	m_iMaxPageList  = 0;

  000a0	89 86 94 01 00
	00		 mov	 DWORD PTR [esi+404], eax

; 54   : 	m_iBackupWidth = 0;

  000a6	89 86 b8 01 00
	00		 mov	 DWORD PTR [esi+440], eax

; 55   : 	m_bAI = false;

  000ac	88 86 b6 01 00
	00		 mov	 BYTE PTR [esi+438], al
  000b2	89 8e ac 01 00
	00		 mov	 DWORD PTR [esi+428], ecx
  000b8	89 8e b0 01 00
	00		 mov	 DWORD PTR [esi+432], ecx

; 56   : }

  000be	8b c6		 mov	 eax, esi
  000c0	5e		 pop	 esi
  000c1	c3		 ret	 0
??0ModeMapSelectList@@QAE@XZ ENDP			; ModeMapSelectList::ModeMapSelectList
_TEXT	ENDS
PUBLIC	??1ModeMapSelectList@@UAE@XZ			; ModeMapSelectList::~ModeMapSelectList
EXTRN	__imp_??1ioWnd@@UAE@XZ:PROC
;	COMDAT xdata$x
; File c:\program files (x86)\microsoft visual studio 10.0\vc\include\vector
xdata$x	SEGMENT
__unwindtable$??1ModeMapSelectList@@UAE@XZ DD 0ffffffffH
	DD	FLAT:__unwindfunclet$??1ModeMapSelectList@@UAE@XZ$0
	DD	00H
	DD	FLAT:__unwindfunclet$??1ModeMapSelectList@@UAE@XZ$1
__ehfuncinfo$??1ModeMapSelectList@@UAE@XZ DD 019930522H
	DD	02H
	DD	FLAT:__unwindtable$??1ModeMapSelectList@@UAE@XZ
	DD	2 DUP(00H)
	DD	2 DUP(00H)
	DD	00H
	DD	01H
; Function compile flags: /Ogsp
; File d:\lost saga for developer\youtube\tutorial\source\src\lsclient\gui\modemapselectlist.cpp
xdata$x	ENDS
;	COMDAT ??1ModeMapSelectList@@UAE@XZ
_TEXT	SEGMENT
_this$ = -16						; size = 4
__$EHRec$ = -12						; size = 12
??1ModeMapSelectList@@UAE@XZ PROC			; ModeMapSelectList::~ModeMapSelectList, COMDAT
; _this$ = ecx

; 59   : {

  00000	6a 04		 push	 4
  00002	b8 00 00 00 00	 mov	 eax, __ehhandler$??1ModeMapSelectList@@UAE@XZ
  00007	e8 00 00 00 00	 call	 __EH_prolog3
  0000c	8b f1		 mov	 esi, ecx
  0000e	89 75 f0	 mov	 DWORD PTR _this$[ebp], esi
  00011	c7 06 00 00 00
	00		 mov	 DWORD PTR [esi], OFFSET ??_7ModeMapSelectList@@6B@

; 60   : 	SAFEDELETE( m_pDarkLine	);

  00017	8b 8e 60 01 00
	00		 mov	 ecx, DWORD PTR [esi+352]
  0001d	33 db		 xor	 ebx, ebx
  0001f	43		 inc	 ebx
  00020	89 5d fc	 mov	 DWORD PTR __$EHRec$[ebp+8], ebx
  00023	85 c9		 test	 ecx, ecx
  00025	74 0d		 je	 SHORT $LN4@ModeMapSel
  00027	8b 01		 mov	 eax, DWORD PTR [ecx]
  00029	53		 push	 ebx
  0002a	ff 50 40	 call	 DWORD PTR [eax+64]
  0002d	83 a6 60 01 00
	00 00		 and	 DWORD PTR [esi+352], 0
$LN4@ModeMapSel:

; 61   : 	SAFEDELETE( m_pLightLine );

  00034	8b 8e 64 01 00
	00		 mov	 ecx, DWORD PTR [esi+356]
  0003a	85 c9		 test	 ecx, ecx
  0003c	74 0d		 je	 SHORT $LN3@ModeMapSel
  0003e	8b 01		 mov	 eax, DWORD PTR [ecx]
  00040	53		 push	 ebx
  00041	ff 50 40	 call	 DWORD PTR [eax+64]
  00044	83 a6 64 01 00
	00 00		 and	 DWORD PTR [esi+356], 0
$LN3@ModeMapSel:

; 62   : 	SAFEDELETE( m_pOverLine	);

  0004b	8b 8e 68 01 00
	00		 mov	 ecx, DWORD PTR [esi+360]
  00051	85 c9		 test	 ecx, ecx
  00053	74 0d		 je	 SHORT $LN2@ModeMapSel
  00055	8b 01		 mov	 eax, DWORD PTR [ecx]
  00057	53		 push	 ebx
  00058	ff 50 40	 call	 DWORD PTR [eax+64]
  0005b	83 a6 68 01 00
	00 00		 and	 DWORD PTR [esi+360], 0
$LN2@ModeMapSel:

; 63   : 	SAFEDELETE( m_pManualMark );

  00062	8b 8e 6c 01 00
	00		 mov	 ecx, DWORD PTR [esi+364]
  00068	85 c9		 test	 ecx, ecx
  0006a	74 0d		 je	 SHORT $LN1@ModeMapSel
  0006c	8b 01		 mov	 eax, DWORD PTR [ecx]
  0006e	53		 push	 ebx
  0006f	ff 50 40	 call	 DWORD PTR [eax+64]
  00072	83 a6 6c 01 00
	00 00		 and	 DWORD PTR [esi+364], 0
$LN1@ModeMapSel:

; 64   : }

  00079	8d 8e bc 01 00
	00		 lea	 ecx, DWORD PTR [esi+444]
  0007f	c6 45 fc 00	 mov	 BYTE PTR __$EHRec$[ebp+8], 0
  00083	e8 00 00 00 00	 call	 ?_Tidy@?$vector@USelectList@ModeMapSelectList@@V?$allocator@USelectList@ModeMapSelectList@@@std@@@std@@IAEXXZ ; std::vector<ModeMapSelectList::SelectList,std::allocator<ModeMapSelectList::SelectList> >::_Tidy
  00088	83 4d fc ff	 or	 DWORD PTR __$EHRec$[ebp+8], -1
  0008c	8b ce		 mov	 ecx, esi
  0008e	ff 15 00 00 00
	00		 call	 DWORD PTR __imp_??1ioWnd@@UAE@XZ
  00094	e8 00 00 00 00	 call	 __EH_epilog3
  00099	c3		 ret	 0
_TEXT	ENDS
;	COMDAT text$x
text$x	SEGMENT
__unwindfunclet$??1ModeMapSelectList@@UAE@XZ$0:
  00000	8b 4d f0	 mov	 ecx, DWORD PTR _this$[ebp]
  00003	ff 25 00 00 00
	00		 jmp	 DWORD PTR __imp_??1ioWnd@@UAE@XZ
__unwindfunclet$??1ModeMapSelectList@@UAE@XZ$1:
  00009	8b 4d f0	 mov	 ecx, DWORD PTR _this$[ebp]
  0000c	81 c1 bc 01 00
	00		 add	 ecx, 444		; 000001bcH
  00012	e9 00 00 00 00	 jmp	 ??1?$vector@USelectList@ModeMapSelectList@@V?$allocator@USelectList@ModeMapSelectList@@@std@@@std@@QAE@XZ ; std::vector<ModeMapSelectList::SelectList,std::allocator<ModeMapSelectList::SelectList> >::~vector<ModeMapSelectList::SelectList,std::allocator<ModeMapSelectList::SelectList> >
__ehhandler$??1ModeMapSelectList@@UAE@XZ:
  00017	8b 54 24 08	 mov	 edx, DWORD PTR [esp+8]
  0001b	8d 42 0c	 lea	 eax, DWORD PTR [edx+12]
  0001e	8b 4a ec	 mov	 ecx, DWORD PTR [edx-20]
  00021	33 c8		 xor	 ecx, eax
  00023	e8 00 00 00 00	 call	 @__security_check_cookie@4
  00028	b8 00 00 00 00	 mov	 eax, OFFSET __ehfuncinfo$??1ModeMapSelectList@@UAE@XZ
  0002d	e9 00 00 00 00	 jmp	 ___CxxFrameHandler3
text$x	ENDS
??1ModeMapSelectList@@UAE@XZ ENDP			; ModeMapSelectList::~ModeMapSelectList
EXTRN	__imp_?ShowWnd@ioWnd@@QAEXXZ:PROC
; Function compile flags: /Ogsp
;	COMDAT ?OpenList@ModeMapSelectList@@UAEXPAVioWnd@@_NH1HH1@Z
_TEXT	SEGMENT
$T519443 = -4						; size = 4
_pOpenBtn$ = 8						; size = 4
_bModeSelect$ = 12					; size = 1
_iSelectIndex$ = 16					; size = 4
_bSafetyLevelRoom$ = 20					; size = 1
_iStartXPos$ = 24					; size = 4
_iStartYPos$ = 28					; size = 4
_bAI$ = 32						; size = 1
?OpenList@ModeMapSelectList@@UAEXPAVioWnd@@_NH1HH1@Z PROC ; ModeMapSelectList::OpenList, COMDAT
; _this$ = ecx

; 152  : {

  00000	55		 push	 ebp
  00001	8b ec		 mov	 ebp, esp
  00003	51		 push	 ecx
  00004	56		 push	 esi
  00005	8b f1		 mov	 esi, ecx

; 153  : 	if( IsShow() )

  00007	ff 15 00 00 00
	00		 call	 DWORD PTR __imp_?IsShow@ioWnd@@QBE_NXZ
  0000d	84 c0		 test	 al, al
  0000f	74 0a		 je	 SHORT $LN1@OpenList

; 154  : 	{
; 155  : 		HideWnd();

  00011	8b ce		 mov	 ecx, esi
  00013	ff 15 00 00 00
	00		 call	 DWORD PTR __imp_?HideWnd@ioWnd@@QAEXXZ

; 156  : 		return;

  00019	eb 5d		 jmp	 SHORT $LN2@OpenList
$LN1@OpenList:

; 157  : 	}
; 158  : 	m_vEnableSelectList.clear();

  0001b	8d 8e bc 01 00
	00		 lea	 ecx, DWORD PTR [esi+444]
  00021	8b 41 04	 mov	 eax, DWORD PTR [ecx+4]
  00024	8b 11		 mov	 edx, DWORD PTR [ecx]
  00026	50		 push	 eax
  00027	52		 push	 edx
  00028	8d 45 fc	 lea	 eax, DWORD PTR $T519443[ebp]
  0002b	50		 push	 eax
  0002c	e8 00 00 00 00	 call	 ?erase@?$vector@USelectList@ModeMapSelectList@@V?$allocator@USelectList@ModeMapSelectList@@@std@@@std@@QAE?AV?$_Vector_iterator@V?$_Vector_val@USelectList@ModeMapSelectList@@V?$allocator@USelectList@ModeMapSelectList@@@std@@@std@@@2@V?$_Vector_const_iterator@V?$_Vector_val@USelectList@ModeMapSelectList@@V?$allocator@USelectList@ModeMapSelectList@@@std@@@std@@@2@0@Z ; std::vector<ModeMapSelectList::SelectList,std::allocator<ModeMapSelectList::SelectList> >::erase

; 159  : 
; 160  : 	m_pOpenBtn			= pOpenBtn;

  00031	8b 45 08	 mov	 eax, DWORD PTR _pOpenBtn$[ebp]
  00034	89 86 70 01 00
	00		 mov	 DWORD PTR [esi+368], eax

; 161  : 	m_bModeSelect       = bModeSelect;

  0003a	8a 45 0c	 mov	 al, BYTE PTR _bModeSelect$[ebp]
  0003d	88 86 b5 01 00
	00		 mov	 BYTE PTR [esi+437], al

; 162  : 	m_iStartXPos		= iStartXPos;

  00043	8b 45 18	 mov	 eax, DWORD PTR _iStartXPos$[ebp]
  00046	89 86 88 01 00
	00		 mov	 DWORD PTR [esi+392], eax

; 163  : 	m_iStartYPos		= iStartYPos;	

  0004c	8b 45 1c	 mov	 eax, DWORD PTR _iStartYPos$[ebp]
  0004f	89 86 8c 01 00
	00		 mov	 DWORD PTR [esi+396], eax

; 164  : 	m_iSelectIndex		= iSelectIndex;

  00055	8b 45 10	 mov	 eax, DWORD PTR _iSelectIndex$[ebp]
  00058	89 86 a4 01 00
	00		 mov	 DWORD PTR [esi+420], eax

; 165  : 	m_bSafetyLevelRoom	= bSafetyLevelRoom;

  0005e	8a 45 14	 mov	 al, BYTE PTR _bSafetyLevelRoom$[ebp]
  00061	88 86 a8 01 00
	00		 mov	 BYTE PTR [esi+424], al

; 166  : 	m_bAI = bAI;

  00067	8a 45 20	 mov	 al, BYTE PTR _bAI$[ebp]

; 167  : 	ShowWnd();

  0006a	8b ce		 mov	 ecx, esi
  0006c	88 86 b6 01 00
	00		 mov	 BYTE PTR [esi+438], al
  00072	ff 15 00 00 00
	00		 call	 DWORD PTR __imp_?ShowWnd@ioWnd@@QAEXXZ
$LN2@OpenList:
  00078	5e		 pop	 esi

; 168  : }

  00079	c9		 leave
  0007a	c2 1c 00	 ret	 28			; 0000001cH
?OpenList@ModeMapSelectList@@UAEXPAVioWnd@@_NH1HH1@Z ENDP ; ModeMapSelectList::OpenList
_TEXT	ENDS
PUBLIC	??_7CreateModeSelectList@@6B@			; CreateModeSelectList::`vftable'
PUBLIC	??0CreateModeSelectList@@QAE@XZ			; CreateModeSelectList::CreateModeSelectList
PUBLIC	??_R4CreateModeSelectList@@6B@			; CreateModeSelectList::`RTTI Complete Object Locator'
PUBLIC	??_R0?AVCreateModeSelectList@@@8		; CreateModeSelectList `RTTI Type Descriptor'
PUBLIC	??_R3CreateModeSelectList@@8			; CreateModeSelectList::`RTTI Class Hierarchy Descriptor'
PUBLIC	??_R2CreateModeSelectList@@8			; CreateModeSelectList::`RTTI Base Class Array'
PUBLIC	??_R1A@?0A@EA@CreateModeSelectList@@8		; CreateModeSelectList::`RTTI Base Class Descriptor at (0,-1,0,64)'
PUBLIC	?OpenList@CreateModeSelectList@@UAEXPAVioWnd@@@Z ; CreateModeSelectList::OpenList
PUBLIC	?AddList@CreateModeSelectList@@UAEXHABVioHashString@@HHPAVioUIRenderImage@@@Z ; CreateModeSelectList::AddList
EXTRN	??_ECreateModeSelectList@@UAEPAXI@Z:PROC	; CreateModeSelectList::`vector deleting destructor'
;	COMDAT ??_R1A@?0A@EA@CreateModeSelectList@@8
; File c:\program files (x86)\microsoft visual studio 10.0\vc\include\xmemory
rdata$r	SEGMENT
??_R1A@?0A@EA@CreateModeSelectList@@8 DD FLAT:??_R0?AVCreateModeSelectList@@@8 ; CreateModeSelectList::`RTTI Base Class Descriptor at (0,-1,0,64)'
	DD	01H
	DD	00H
	DD	0ffffffffH
	DD	00H
	DD	040H
	DD	FLAT:??_R3CreateModeSelectList@@8
rdata$r	ENDS
;	COMDAT ??_R2CreateModeSelectList@@8
rdata$r	SEGMENT
??_R2CreateModeSelectList@@8 DD FLAT:??_R1A@?0A@EA@CreateModeSelectList@@8 ; CreateModeSelectList::`RTTI Base Class Array'
	DD	FLAT:??_R1A@?0A@EA@ioWnd@@8
rdata$r	ENDS
;	COMDAT ??_R3CreateModeSelectList@@8
rdata$r	SEGMENT
??_R3CreateModeSelectList@@8 DD 00H			; CreateModeSelectList::`RTTI Class Hierarchy Descriptor'
	DD	00H
	DD	02H
	DD	FLAT:??_R2CreateModeSelectList@@8
rdata$r	ENDS
;	COMDAT ??_R0?AVCreateModeSelectList@@@8
_DATA	SEGMENT
??_R0?AVCreateModeSelectList@@@8 DD FLAT:??_7type_info@@6B@ ; CreateModeSelectList `RTTI Type Descriptor'
	DD	00H
	DB	'.?AVCreateModeSelectList@@', 00H
_DATA	ENDS
;	COMDAT ??_R4CreateModeSelectList@@6B@
rdata$r	SEGMENT
??_R4CreateModeSelectList@@6B@ DD 00H			; CreateModeSelectList::`RTTI Complete Object Locator'
	DD	00H
	DD	00H
	DD	FLAT:??_R0?AVCreateModeSelectList@@@8
	DD	FLAT:??_R3CreateModeSelectList@@8
rdata$r	ENDS
;	COMDAT ??_7CreateModeSelectList@@6B@
CONST	SEGMENT
??_7CreateModeSelectList@@6B@ DD FLAT:??_R4CreateModeSelectList@@6B@ ; CreateModeSelectList::`vftable'
	DD	FLAT:?AddRenderFrame@ioWnd@@UAEXABVioHashString@@PAVioUIRenderFrame@@@Z
	DD	FLAT:?AddRenderImage@CreateModeSelectList@@UAEXABVioHashString@@PAVioUIRenderImage@@@Z
	DD	FLAT:?AddTooltipHelp@ioWnd@@UAEXABVioHashString@@00@Z
	DD	FLAT:?ParseExtraInfo@CreateModeSelectList@@UAEXAAVioXMLElement@@@Z
	DD	FLAT:?AddNamedRenderImage@ioWnd@@UAEXABVioHashString@@PAVioUIRenderImage@@@Z
	DD	FLAT:?RemoveNamedRenderImage@ioWnd@@UAEXABVioHashString@@@Z
	DD	FLAT:?GetNamedRenderImage@ioWnd@@UBEPAVioUIRenderImage@@ABVioHashString@@@Z
	DD	FLAT:?SetWindowAlpha@ioWnd@@UAEXH@Z
	DD	FLAT:?SetActive@ioWnd@@UAEXXZ
	DD	FLAT:?SetInActive@ioWnd@@UAEXXZ
	DD	FLAT:?ClearElementImageList@ioWnd@@UAEXXZ
	DD	FLAT:?SetSize@ioWnd@@UAEXHH@Z
	DD	FLAT:?SetPositionToDefault@ioWnd@@UAEXHH_N0@Z
	DD	FLAT:?IsNeedProcess@ioWnd@@UBE_NXZ
	DD	FLAT:?IsCanMouseReaction@ioWnd@@UBE_NXZ
	DD	FLAT:?AddChild@ioWnd@@UAEXPAV1@@Z
	DD	FLAT:?DeleteChild@ioWnd@@UAEXK@Z
	DD	FLAT:?DeleteAllChild@ioWnd@@UAEXXZ
	DD	FLAT:?OnRenderShowAndHide@ioWnd@@MAE_NXZ
	DD	FLAT:?OnRenderShowAndHideByDefault@ioWnd@@MAE_NK@Z
	DD	FLAT:?OnRenderShowAndHideByTop@ioWnd@@MAE_NK@Z
	DD	FLAT:?OnRenderShowAndHideByDown@ioWnd@@MAE_NK@Z
	DD	FLAT:?OnRender@CreateModeSelectList@@MAEXXZ
	DD	FLAT:?OnRenderAfterChild@ioWnd@@MAEXXZ
	DD	FLAT:?OnProcess@CreateModeSelectList@@MAEXM@Z
	DD	FLAT:?OnMouseProcess@ioWnd@@MAEXABVioMouse@@@Z
	DD	FLAT:?CheckFrameReSize@ioWnd@@MAEXHHHH@Z
	DD	FLAT:?RenderImageList@ioWnd@@MAEXHHW4UIRenderType@@@Z
	DD	FLAT:?iwm_create@ioWnd@@UAEXXZ
	DD	FLAT:?iwm_destroy@ioWnd@@UAEXXZ
	DD	FLAT:?iwm_lbuttondown@ioWnd@@UAEXABVioMouse@@@Z
	DD	FLAT:?iwm_lbuttonup@ioWnd@@UAEXABVioMouse@@@Z
	DD	FLAT:?iwm_lbuttonDBLCLK@ioWnd@@UAEXABVioMouse@@@Z
	DD	FLAT:?iwm_rbuttondown@ioWnd@@UAEXABVioMouse@@@Z
	DD	FLAT:?iwm_rbuttonup@ioWnd@@UAEXABVioMouse@@@Z
	DD	FLAT:?iwm_command@ioWnd@@UAEXPAV1@HK@Z
	DD	FLAT:?iwm_mouseover@ioWnd@@UAEXABVioMouse@@@Z
	DD	FLAT:?iwm_mousemove@ioWnd@@UAEXABVioMouse@@@Z
	DD	FLAT:?iwm_mouseleave@ioWnd@@UAEXABVioMouse@@@Z
	DD	FLAT:?iwm_vscroll@CreateModeSelectList@@UAEXKH@Z
	DD	FLAT:?iwm_wheel@CreateModeSelectList@@UAEXH@Z
	DD	FLAT:?iwm_show@CreateModeSelectList@@UAEXXZ
	DD	FLAT:?iwm_hide@CreateModeSelectList@@UAEXXZ
	DD	FLAT:?iwm_esc@ioWnd@@UAE_NXZ
	DD	FLAT:?iwm_spacebar@ioWnd@@UAE_NXZ
	DD	FLAT:?iwm_gototop@ioWnd@@UAEXXZ
	DD	FLAT:?iwm_dragenter@ioWnd@@UAE?AW4IWDropEffect@@PAVioDragItem@@ABVioMouse@@@Z
	DD	FLAT:?iwm_dragover@ioWnd@@UAE?AW4IWDropEffect@@PAVioDragItem@@ABVioMouse@@@Z
	DD	FLAT:?iwm_dragleave@ioWnd@@UAEXXZ
	DD	FLAT:?iwm_dropitem@ioWnd@@UAE_NPAVioDragItem@@ABVioMouse@@PAV1@@Z
	DD	FLAT:?iwm_dropdone@ioWnd@@UAEXPAVioDragItem@@PAV1@_N@Z
	DD	FLAT:?IsEXType@ioWnd@@UBE_NXZ
	DD	FLAT:?GetWndType@ioWnd@@UBEKXZ
	DD	FLAT:?RenderWnd@ioWnd@@UAEXXZ
	DD	FLAT:?SetIDEX@ioWnd@@UAEXAAK_N@Z
	DD	FLAT:?ParseXML@ioWnd@@UAEXAAVioXMLElement@@@Z
	DD	FLAT:?GetHeaderFileName@ioWnd@@UAEPBDXZ
	DD	FLAT:?GetTemplateName@ioWnd@@UAEPBDXZ
	DD	FLAT:?GetDefClassName@ioWnd@@UBEPBDXZ
	DD	FLAT:?_Clone@ioWnd@@UAEPAV1@XZ
	DD	FLAT:?Copy@ioWnd@@UAEXPAV1@@Z
	DD	FLAT:?Save@ioWnd@@UAE_NAAVioXMLElement@@@Z
	DD	FLAT:?SetSaveData@ioWnd@@UAEXAAVioXMLElement@@@Z
	DD	FLAT:?SetPosX@ioWnd@@UAEXH@Z
	DD	FLAT:?SetPosY@ioWnd@@UAEXH@Z
	DD	FLAT:?SetWidth@ioWnd@@UAEXH@Z
	DD	FLAT:?SetHeight@ioWnd@@UAEXH@Z
	DD	FLAT:?GetNumFixedRenderFrame@ioWnd@@UBEHXZ
	DD	FLAT:?GetFixedRenderFrameType@ioWnd@@UAEPBDH@Z
	DD	FLAT:?GetRenderFrame@ioWnd@@UAEPAPAVioUIRenderElement@@PBD@Z
	DD	FLAT:?GetNumFixedRenderImage@ioWnd@@UBEHXZ
	DD	FLAT:?GetFixedRenderImageType@ioWnd@@UAEPBDH@Z
	DD	FLAT:?GetRenderImage@ioWnd@@UAEPAPAVioUIRenderElement@@PBD@Z
	DD	FLAT:?AddEffect@ioWnd@@UAEXABVioHashString@@PAVioUI3DEffectRender@@@Z
	DD	FLAT:?GetEffect@ioWnd@@UAEPAVioUI3DEffectRender@@VioHashString@@@Z
	DD	FLAT:??_ECreateModeSelectList@@UAEPAXI@Z
	DD	FLAT:?OpenList@CreateModeSelectList@@UAEXPAVioWnd@@@Z
	DD	FLAT:?AddList@CreateModeSelectList@@UAEXHABVioHashString@@HHPAVioUIRenderImage@@@Z
; Function compile flags: /Ogsp
; File d:\lost saga for developer\youtube\tutorial\source\src\lsclient\gui\modemapselectlist.cpp
CONST	ENDS
;	COMDAT ??0CreateModeSelectList@@QAE@XZ
_TEXT	SEGMENT
??0CreateModeSelectList@@QAE@XZ PROC			; CreateModeSelectList::CreateModeSelectList, COMDAT
; _this$ = ecx

; 451  : {

  00000	56		 push	 esi
  00001	8b f1		 mov	 esi, ecx
  00003	ff 15 00 00 00
	00		 call	 DWORD PTR __imp_??0ioWnd@@QAE@XZ
  00009	33 c0		 xor	 eax, eax
  0000b	89 86 70 01 00
	00		 mov	 DWORD PTR [esi+368], eax
  00011	c7 06 00 00 00
	00		 mov	 DWORD PTR [esi], OFFSET ??_7CreateModeSelectList@@6B@
  00017	89 86 a4 01 00
	00		 mov	 DWORD PTR [esi+420], eax
  0001d	89 86 a8 01 00
	00		 mov	 DWORD PTR [esi+424], eax
  00023	89 86 ac 01 00
	00		 mov	 DWORD PTR [esi+428], eax

; 452  : 	m_pDarkLine	= NULL;
; 453  : 	m_pLightLine= NULL;
; 454  : 	m_pOverLine	= NULL;
; 455  : 	m_pManualMark = NULL;
; 456  : 
; 457  : 	m_iMaxPageList = 10;
; 458  : 	m_iAddWidth	= 0;
; 459  : 	m_iAddHeight= 0;
; 460  : 	m_iListXPos = 0;
; 461  : 	m_iListYPos = 0;
; 462  : 	m_iHeightGap= 0;
; 463  : 	m_iCutWidth = 0;
; 464  : 	m_iOverListIndex = -2;

  00029	6a fe		 push	 -2			; fffffffeH
  0002b	59		 pop	 ecx
  0002c	89 86 60 01 00
	00		 mov	 DWORD PTR [esi+352], eax
  00032	89 86 64 01 00
	00		 mov	 DWORD PTR [esi+356], eax
  00038	89 86 68 01 00
	00		 mov	 DWORD PTR [esi+360], eax
  0003e	89 86 6c 01 00
	00		 mov	 DWORD PTR [esi+364], eax
  00044	89 86 74 01 00
	00		 mov	 DWORD PTR [esi+372], eax
  0004a	89 86 78 01 00
	00		 mov	 DWORD PTR [esi+376], eax
  00050	89 86 7c 01 00
	00		 mov	 DWORD PTR [esi+380], eax
  00056	89 86 80 01 00
	00		 mov	 DWORD PTR [esi+384], eax
  0005c	89 86 84 01 00
	00		 mov	 DWORD PTR [esi+388], eax
  00062	89 86 88 01 00
	00		 mov	 DWORD PTR [esi+392], eax

; 465  : 	m_iOverMarkListIndex = -2;
; 466  : 	m_iCurPos   = 0;

  00068	89 86 98 01 00
	00		 mov	 DWORD PTR [esi+408], eax

; 467  : 	m_iManualMarkX = 0;

  0006e	89 86 8c 01 00
	00		 mov	 DWORD PTR [esi+396], eax

; 468  : 	m_iManualMarkWidth = 0;

  00074	89 86 90 01 00
	00		 mov	 DWORD PTR [esi+400], eax

; 469  : 	m_pModeHelpTooltip  = NULL;

  0007a	89 86 b4 01 00
	00		 mov	 DWORD PTR [esi+436], eax
  00080	c7 86 94 01 00
	00 0a 00 00 00	 mov	 DWORD PTR [esi+404], 10	; 0000000aH
  0008a	89 8e 9c 01 00
	00		 mov	 DWORD PTR [esi+412], ecx
  00090	89 8e a0 01 00
	00		 mov	 DWORD PTR [esi+416], ecx

; 470  : }

  00096	8b c6		 mov	 eax, esi
  00098	5e		 pop	 esi
  00099	c3		 ret	 0
??0CreateModeSelectList@@QAE@XZ ENDP			; CreateModeSelectList::CreateModeSelectList
_TEXT	ENDS
PUBLIC	??1CreateModeSelectList@@UAE@XZ			; CreateModeSelectList::~CreateModeSelectList
;	COMDAT xdata$x
; File c:\program files (x86)\microsoft visual studio 10.0\vc\include\vector
xdata$x	SEGMENT
__unwindtable$??1CreateModeSelectList@@UAE@XZ DD 0ffffffffH
	DD	FLAT:__unwindfunclet$??1CreateModeSelectList@@UAE@XZ$0
	DD	00H
	DD	FLAT:__unwindfunclet$??1CreateModeSelectList@@UAE@XZ$1
__ehfuncinfo$??1CreateModeSelectList@@UAE@XZ DD 019930522H
	DD	02H
	DD	FLAT:__unwindtable$??1CreateModeSelectList@@UAE@XZ
	DD	2 DUP(00H)
	DD	2 DUP(00H)
	DD	00H
	DD	01H
; Function compile flags: /Ogsp
; File d:\lost saga for developer\youtube\tutorial\source\src\lsclient\gui\modemapselectlist.cpp
xdata$x	ENDS
;	COMDAT ??1CreateModeSelectList@@UAE@XZ
_TEXT	SEGMENT
_this$ = -16						; size = 4
__$EHRec$ = -12						; size = 12
??1CreateModeSelectList@@UAE@XZ PROC			; CreateModeSelectList::~CreateModeSelectList, COMDAT
; _this$ = ecx

; 473  : {

  00000	6a 04		 push	 4
  00002	b8 00 00 00 00	 mov	 eax, __ehhandler$??1CreateModeSelectList@@UAE@XZ
  00007	e8 00 00 00 00	 call	 __EH_prolog3
  0000c	8b f1		 mov	 esi, ecx
  0000e	89 75 f0	 mov	 DWORD PTR _this$[ebp], esi
  00011	c7 06 00 00 00
	00		 mov	 DWORD PTR [esi], OFFSET ??_7CreateModeSelectList@@6B@

; 474  : 	SAFEDELETE( m_pDarkLine	);

  00017	8b 8e 60 01 00
	00		 mov	 ecx, DWORD PTR [esi+352]
  0001d	33 db		 xor	 ebx, ebx
  0001f	43		 inc	 ebx
  00020	89 5d fc	 mov	 DWORD PTR __$EHRec$[ebp+8], ebx
  00023	85 c9		 test	 ecx, ecx
  00025	74 0d		 je	 SHORT $LN4@CreateMode
  00027	8b 01		 mov	 eax, DWORD PTR [ecx]
  00029	53		 push	 ebx
  0002a	ff 50 40	 call	 DWORD PTR [eax+64]
  0002d	83 a6 60 01 00
	00 00		 and	 DWORD PTR [esi+352], 0
$LN4@CreateMode:

; 475  : 	SAFEDELETE( m_pLightLine );

  00034	8b 8e 64 01 00
	00		 mov	 ecx, DWORD PTR [esi+356]
  0003a	85 c9		 test	 ecx, ecx
  0003c	74 0d		 je	 SHORT $LN3@CreateMode
  0003e	8b 01		 mov	 eax, DWORD PTR [ecx]
  00040	53		 push	 ebx
  00041	ff 50 40	 call	 DWORD PTR [eax+64]
  00044	83 a6 64 01 00
	00 00		 and	 DWORD PTR [esi+356], 0
$LN3@CreateMode:

; 476  : 	SAFEDELETE( m_pOverLine	);

  0004b	8b 8e 68 01 00
	00		 mov	 ecx, DWORD PTR [esi+360]
  00051	85 c9		 test	 ecx, ecx
  00053	74 0d		 je	 SHORT $LN2@CreateMode
  00055	8b 01		 mov	 eax, DWORD PTR [ecx]
  00057	53		 push	 ebx
  00058	ff 50 40	 call	 DWORD PTR [eax+64]
  0005b	83 a6 68 01 00
	00 00		 and	 DWORD PTR [esi+360], 0
$LN2@CreateMode:

; 477  : 	SAFEDELETE( m_pManualMark );

  00062	8b 8e 6c 01 00
	00		 mov	 ecx, DWORD PTR [esi+364]
  00068	85 c9		 test	 ecx, ecx
  0006a	74 0d		 je	 SHORT $LN1@CreateMode
  0006c	8b 01		 mov	 eax, DWORD PTR [ecx]
  0006e	53		 push	 ebx
  0006f	ff 50 40	 call	 DWORD PTR [eax+64]
  00072	83 a6 6c 01 00
	00 00		 and	 DWORD PTR [esi+364], 0
$LN1@CreateMode:

; 478  : }

  00079	8d 8e a4 01 00
	00		 lea	 ecx, DWORD PTR [esi+420]
  0007f	c6 45 fc 00	 mov	 BYTE PTR __$EHRec$[ebp+8], 0
  00083	e8 00 00 00 00	 call	 ?_Tidy@?$vector@USelectList@CreateModeSelectList@@V?$allocator@USelectList@CreateModeSelectList@@@std@@@std@@IAEXXZ ; std::vector<CreateModeSelectList::SelectList,std::allocator<CreateModeSelectList::SelectList> >::_Tidy
  00088	83 4d fc ff	 or	 DWORD PTR __$EHRec$[ebp+8], -1
  0008c	8b ce		 mov	 ecx, esi
  0008e	ff 15 00 00 00
	00		 call	 DWORD PTR __imp_??1ioWnd@@UAE@XZ
  00094	e8 00 00 00 00	 call	 __EH_epilog3
  00099	c3		 ret	 0
_TEXT	ENDS
;	COMDAT text$x
text$x	SEGMENT
__unwindfunclet$??1CreateModeSelectList@@UAE@XZ$0:
  00000	8b 4d f0	 mov	 ecx, DWORD PTR _this$[ebp]
  00003	ff 25 00 00 00
	00		 jmp	 DWORD PTR __imp_??1ioWnd@@UAE@XZ
__unwindfunclet$??1CreateModeSelectList@@UAE@XZ$1:
  00009	8b 4d f0	 mov	 ecx, DWORD PTR _this$[ebp]
  0000c	81 c1 a4 01 00
	00		 add	 ecx, 420		; 000001a4H
  00012	e9 00 00 00 00	 jmp	 ??1?$vector@USelectList@CreateModeSelectList@@V?$allocator@USelectList@CreateModeSelectList@@@std@@@std@@QAE@XZ ; std::vector<CreateModeSelectList::SelectList,std::allocator<CreateModeSelectList::SelectList> >::~vector<CreateModeSelectList::SelectList,std::allocator<CreateModeSelectList::SelectList> >
__ehhandler$??1CreateModeSelectList@@UAE@XZ:
  00017	8b 54 24 08	 mov	 edx, DWORD PTR [esp+8]
  0001b	8d 42 0c	 lea	 eax, DWORD PTR [edx+12]
  0001e	8b 4a ec	 mov	 ecx, DWORD PTR [edx-20]
  00021	33 c8		 xor	 ecx, eax
  00023	e8 00 00 00 00	 call	 @__security_check_cookie@4
  00028	b8 00 00 00 00	 mov	 eax, OFFSET __ehfuncinfo$??1CreateModeSelectList@@UAE@XZ
  0002d	e9 00 00 00 00	 jmp	 ___CxxFrameHandler3
text$x	ENDS
??1CreateModeSelectList@@UAE@XZ ENDP			; CreateModeSelectList::~CreateModeSelectList
; Function compile flags: /Ogsp
;	COMDAT ?OpenList@CreateModeSelectList@@UAEXPAVioWnd@@@Z
_TEXT	SEGMENT
$T519589 = -4						; size = 4
_pOpenBtn$ = 8						; size = 4
?OpenList@CreateModeSelectList@@UAEXPAVioWnd@@@Z PROC	; CreateModeSelectList::OpenList, COMDAT
; _this$ = ecx

; 566  : {

  00000	55		 push	 ebp
  00001	8b ec		 mov	 ebp, esp
  00003	51		 push	 ecx
  00004	56		 push	 esi
  00005	8b f1		 mov	 esi, ecx

; 567  : 	if( IsShow() )

  00007	ff 15 00 00 00
	00		 call	 DWORD PTR __imp_?IsShow@ioWnd@@QBE_NXZ
  0000d	84 c0		 test	 al, al
  0000f	74 0a		 je	 SHORT $LN1@OpenList@2

; 568  : 	{
; 569  : 		HideWnd();

  00011	8b ce		 mov	 ecx, esi
  00013	ff 15 00 00 00
	00		 call	 DWORD PTR __imp_?HideWnd@ioWnd@@QAEXXZ

; 570  : 		return;

  00019	eb 27		 jmp	 SHORT $LN2@OpenList@2
$LN1@OpenList@2:

; 571  : 	}
; 572  : 	m_vEnableSelectList.clear();

  0001b	8d 8e a4 01 00
	00		 lea	 ecx, DWORD PTR [esi+420]
  00021	8b 41 04	 mov	 eax, DWORD PTR [ecx+4]
  00024	8b 11		 mov	 edx, DWORD PTR [ecx]
  00026	50		 push	 eax
  00027	52		 push	 edx
  00028	8d 45 fc	 lea	 eax, DWORD PTR $T519589[ebp]
  0002b	50		 push	 eax
  0002c	e8 00 00 00 00	 call	 ?erase@?$vector@USelectList@CreateModeSelectList@@V?$allocator@USelectList@CreateModeSelectList@@@std@@@std@@QAE?AV?$_Vector_iterator@V?$_Vector_val@USelectList@CreateModeSelectList@@V?$allocator@USelectList@CreateModeSelectList@@@std@@@std@@@2@V?$_Vector_const_iterator@V?$_Vector_val@USelectList@CreateModeSelectList@@V?$allocator@USelectList@CreateModeSelectList@@@std@@@std@@@2@0@Z ; std::vector<CreateModeSelectList::SelectList,std::allocator<CreateModeSelectList::SelectList> >::erase

; 573  : 
; 574  : 	m_pOpenBtn			= pOpenBtn;	

  00031	8b 45 08	 mov	 eax, DWORD PTR _pOpenBtn$[ebp]

; 575  : 	ShowWnd();

  00034	8b ce		 mov	 ecx, esi
  00036	89 86 70 01 00
	00		 mov	 DWORD PTR [esi+368], eax
  0003c	ff 15 00 00 00
	00		 call	 DWORD PTR __imp_?ShowWnd@ioWnd@@QAEXXZ
$LN2@OpenList@2:
  00042	5e		 pop	 esi

; 576  : }

  00043	c9		 leave
  00044	c2 04 00	 ret	 4
?OpenList@CreateModeSelectList@@UAEXPAVioWnd@@@Z ENDP	; CreateModeSelectList::OpenList
_TEXT	ENDS
PUBLIC	?push_back@?$vector@USelectList@ModeMapSelectList@@V?$allocator@USelectList@ModeMapSelectList@@@std@@@std@@QAEXABUSelectList@ModeMapSelectList@@@Z ; std::vector<ModeMapSelectList::SelectList,std::allocator<ModeMapSelectList::SelectList> >::push_back
; Function compile flags: /Ogsp
; File c:\program files (x86)\microsoft visual studio 10.0\vc\include\vector
;	COMDAT ?push_back@?$vector@USelectList@ModeMapSelectList@@V?$allocator@USelectList@ModeMapSelectList@@@std@@@std@@QAEXABUSelectList@ModeMapSelectList@@@Z
_TEXT	SEGMENT
__Val$ = 8						; size = 4
?push_back@?$vector@USelectList@ModeMapSelectList@@V?$allocator@USelectList@ModeMapSelectList@@@std@@@std@@QAEXABUSelectList@ModeMapSelectList@@@Z PROC ; std::vector<ModeMapSelectList::SelectList,std::allocator<ModeMapSelectList::SelectList> >::push_back, COMDAT
; _this$ = ecx

; 976  : 		{	// insert element at end

  00000	55		 push	 ebp
  00001	8b ec		 mov	 ebp, esp
  00003	56		 push	 esi
  00004	8b f1		 mov	 esi, ecx

; 977  : 		if (_Inside(_STD addressof(_Val)))

  00006	8b 4e 04	 mov	 ecx, DWORD PTR [esi+4]
  00009	57		 push	 edi
  0000a	8b 7d 08	 mov	 edi, DWORD PTR __Val$[ebp]
  0000d	3b f9		 cmp	 edi, ecx
  0000f	73 37		 jae	 SHORT $LN4@push_back
  00011	8b 16		 mov	 edx, DWORD PTR [esi]
  00013	3b d7		 cmp	 edx, edi
  00015	77 31		 ja	 SHORT $LN4@push_back

; 978  : 			{	// push back an element
; 979  : 			size_type _Idx = _STD addressof(_Val) - this->_Myfirst;

  00017	8b c7		 mov	 eax, edi
  00019	2b c2		 sub	 eax, edx
  0001b	6a 24		 push	 36			; 00000024H
  0001d	99		 cdq
  0001e	5f		 pop	 edi
  0001f	f7 ff		 idiv	 edi
  00021	8b f8		 mov	 edi, eax

; 980  : 			if (this->_Mylast == this->_Myend)

  00023	3b 4e 08	 cmp	 ecx, DWORD PTR [esi+8]
  00026	75 09		 jne	 SHORT $LN3@push_back

; 981  : 				_Reserve(1);

  00028	6a 01		 push	 1
  0002a	8b ce		 mov	 ecx, esi
  0002c	e8 00 00 00 00	 call	 ?_Reserve@?$vector@USelectList@ModeMapSelectList@@V?$allocator@USelectList@ModeMapSelectList@@@std@@@std@@IAEXI@Z ; std::vector<ModeMapSelectList::SelectList,std::allocator<ModeMapSelectList::SelectList> >::_Reserve
$LN3@push_back:

; 982  : 			_Orphan_range(this->_Mylast, this->_Mylast);
; 983  : 			_Cons_val(this->_Alval,
; 984  : 				this->_Mylast,
; 985  : 				this->_Myfirst[_Idx]);

  00031	6b ff 24	 imul	 edi, 36			; 00000024H
  00034	03 3e		 add	 edi, DWORD PTR [esi]
  00036	8d 46 0c	 lea	 eax, DWORD PTR [esi+12]
  00039	57		 push	 edi
  0003a	ff 76 04	 push	 DWORD PTR [esi+4]
  0003d	50		 push	 eax
  0003e	e8 00 00 00 00	 call	 ??$_Cons_val@V?$allocator@USelectList@ModeMapSelectList@@@std@@USelectList@ModeMapSelectList@@AAU34@@std@@YAXAAV?$allocator@USelectList@ModeMapSelectList@@@0@PAUSelectList@ModeMapSelectList@@AAU23@@Z ; std::_Cons_val<std::allocator<ModeMapSelectList::SelectList>,ModeMapSelectList::SelectList,ModeMapSelectList::SelectList &>
  00043	83 c4 0c	 add	 esp, 12			; 0000000cH

; 986  : 			++this->_Mylast;
; 987  : 			}
; 988  : 		else

  00046	eb 19		 jmp	 SHORT $LN26@push_back
$LN4@push_back:

; 989  : 			{	// push back a non-element
; 990  : 			if (this->_Mylast == this->_Myend)

  00048	3b 4e 08	 cmp	 ecx, DWORD PTR [esi+8]
  0004b	75 09		 jne	 SHORT $LN1@push_back

; 991  : 				_Reserve(1);

  0004d	6a 01		 push	 1
  0004f	8b ce		 mov	 ecx, esi
  00051	e8 00 00 00 00	 call	 ?_Reserve@?$vector@USelectList@ModeMapSelectList@@V?$allocator@USelectList@ModeMapSelectList@@@std@@@std@@IAEXI@Z ; std::vector<ModeMapSelectList::SelectList,std::allocator<ModeMapSelectList::SelectList> >::_Reserve
$LN1@push_back:

; 992  : 			_Orphan_range(this->_Mylast, this->_Mylast);
; 993  : 			_Cons_val(this->_Alval,
; 994  : 				this->_Mylast,
; 995  : 				_Val);

  00056	57		 push	 edi
  00057	ff 76 04	 push	 DWORD PTR [esi+4]
  0005a	e8 00 00 00 00	 call	 ??$_Construct@USelectList@ModeMapSelectList@@ABU12@@std@@YAXPAUSelectList@ModeMapSelectList@@ABU12@@Z ; std::_Construct<ModeMapSelectList::SelectList,ModeMapSelectList::SelectList const &>
  0005f	59		 pop	 ecx
  00060	59		 pop	 ecx
$LN26@push_back:

; 996  : 			++this->_Mylast;

  00061	83 46 04 24	 add	 DWORD PTR [esi+4], 36	; 00000024H
  00065	5f		 pop	 edi
  00066	5e		 pop	 esi

; 997  : 			}
; 998  : 		}

  00067	5d		 pop	 ebp
  00068	c2 04 00	 ret	 4
?push_back@?$vector@USelectList@ModeMapSelectList@@V?$allocator@USelectList@ModeMapSelectList@@@std@@@std@@QAEXABUSelectList@ModeMapSelectList@@@Z ENDP ; std::vector<ModeMapSelectList::SelectList,std::allocator<ModeMapSelectList::SelectList> >::push_back
_TEXT	ENDS
PUBLIC	?push_back@?$vector@USelectList@CreateModeSelectList@@V?$allocator@USelectList@CreateModeSelectList@@@std@@@std@@QAEXABUSelectList@CreateModeSelectList@@@Z ; std::vector<CreateModeSelectList::SelectList,std::allocator<CreateModeSelectList::SelectList> >::push_back
; Function compile flags: /Ogsp
;	COMDAT ?push_back@?$vector@USelectList@CreateModeSelectList@@V?$allocator@USelectList@CreateModeSelectList@@@std@@@std@@QAEXABUSelectList@CreateModeSelectList@@@Z
_TEXT	SEGMENT
__Val$ = 8						; size = 4
?push_back@?$vector@USelectList@CreateModeSelectList@@V?$allocator@USelectList@CreateModeSelectList@@@std@@@std@@QAEXABUSelectList@CreateModeSelectList@@@Z PROC ; std::vector<CreateModeSelectList::SelectList,std::allocator<CreateModeSelectList::SelectList> >::push_back, COMDAT
; _this$ = ecx

; 976  : 		{	// insert element at end

  00000	55		 push	 ebp
  00001	8b ec		 mov	 ebp, esp
  00003	56		 push	 esi
  00004	8b f1		 mov	 esi, ecx

; 977  : 		if (_Inside(_STD addressof(_Val)))

  00006	8b 46 04	 mov	 eax, DWORD PTR [esi+4]
  00009	57		 push	 edi
  0000a	8b 7d 08	 mov	 edi, DWORD PTR __Val$[ebp]
  0000d	3b f8		 cmp	 edi, eax
  0000f	73 2d		 jae	 SHORT $LN4@push_back@2
  00011	8b 0e		 mov	 ecx, DWORD PTR [esi]
  00013	3b cf		 cmp	 ecx, edi
  00015	77 27		 ja	 SHORT $LN4@push_back@2

; 978  : 			{	// push back an element
; 979  : 			size_type _Idx = _STD addressof(_Val) - this->_Myfirst;

  00017	2b f9		 sub	 edi, ecx

; 980  : 			if (this->_Mylast == this->_Myend)

  00019	3b 46 08	 cmp	 eax, DWORD PTR [esi+8]
  0001c	75 09		 jne	 SHORT $LN3@push_back@2

; 981  : 				_Reserve(1);

  0001e	6a 01		 push	 1
  00020	8b ce		 mov	 ecx, esi
  00022	e8 00 00 00 00	 call	 ?_Reserve@?$vector@USelectList@CreateModeSelectList@@V?$allocator@USelectList@CreateModeSelectList@@@std@@@std@@IAEXI@Z ; std::vector<CreateModeSelectList::SelectList,std::allocator<CreateModeSelectList::SelectList> >::_Reserve
$LN3@push_back@2:

; 982  : 			_Orphan_range(this->_Mylast, this->_Mylast);
; 983  : 			_Cons_val(this->_Alval,
; 984  : 				this->_Mylast,
; 985  : 				this->_Myfirst[_Idx]);

  00027	83 e7 e0	 and	 edi, -32		; ffffffe0H
  0002a	03 3e		 add	 edi, DWORD PTR [esi]
  0002c	8d 46 0c	 lea	 eax, DWORD PTR [esi+12]
  0002f	57		 push	 edi
  00030	ff 76 04	 push	 DWORD PTR [esi+4]
  00033	50		 push	 eax
  00034	e8 00 00 00 00	 call	 ??$_Cons_val@V?$allocator@USelectList@CreateModeSelectList@@@std@@USelectList@CreateModeSelectList@@AAU34@@std@@YAXAAV?$allocator@USelectList@CreateModeSelectList@@@0@PAUSelectList@CreateModeSelectList@@AAU23@@Z ; std::_Cons_val<std::allocator<CreateModeSelectList::SelectList>,CreateModeSelectList::SelectList,CreateModeSelectList::SelectList &>
  00039	83 c4 0c	 add	 esp, 12			; 0000000cH

; 986  : 			++this->_Mylast;
; 987  : 			}
; 988  : 		else

  0003c	eb 19		 jmp	 SHORT $LN26@push_back@2
$LN4@push_back@2:

; 989  : 			{	// push back a non-element
; 990  : 			if (this->_Mylast == this->_Myend)

  0003e	3b 46 08	 cmp	 eax, DWORD PTR [esi+8]
  00041	75 09		 jne	 SHORT $LN1@push_back@2

; 991  : 				_Reserve(1);

  00043	6a 01		 push	 1
  00045	8b ce		 mov	 ecx, esi
  00047	e8 00 00 00 00	 call	 ?_Reserve@?$vector@USelectList@CreateModeSelectList@@V?$allocator@USelectList@CreateModeSelectList@@@std@@@std@@IAEXI@Z ; std::vector<CreateModeSelectList::SelectList,std::allocator<CreateModeSelectList::SelectList> >::_Reserve
$LN1@push_back@2:

; 992  : 			_Orphan_range(this->_Mylast, this->_Mylast);
; 993  : 			_Cons_val(this->_Alval,
; 994  : 				this->_Mylast,
; 995  : 				_Val);

  0004c	57		 push	 edi
  0004d	ff 76 04	 push	 DWORD PTR [esi+4]
  00050	e8 00 00 00 00	 call	 ??$_Construct@USelectList@CreateModeSelectList@@ABU12@@std@@YAXPAUSelectList@CreateModeSelectList@@ABU12@@Z ; std::_Construct<CreateModeSelectList::SelectList,CreateModeSelectList::SelectList const &>
  00055	59		 pop	 ecx
  00056	59		 pop	 ecx
$LN26@push_back@2:

; 996  : 			++this->_Mylast;

  00057	83 46 04 20	 add	 DWORD PTR [esi+4], 32	; 00000020H
  0005b	5f		 pop	 edi
  0005c	5e		 pop	 esi

; 997  : 			}
; 998  : 		}

  0005d	5d		 pop	 ebp
  0005e	c2 04 00	 ret	 4
?push_back@?$vector@USelectList@CreateModeSelectList@@V?$allocator@USelectList@CreateModeSelectList@@@std@@@std@@QAEXABUSelectList@CreateModeSelectList@@@Z ENDP ; std::vector<CreateModeSelectList::SelectList,std::allocator<CreateModeSelectList::SelectList> >::push_back
; Function compile flags: /Ogsp
_TEXT	ENDS
;	COMDAT ??_GModeMapSelectList@@UAEPAXI@Z
_TEXT	SEGMENT
___flags$ = 8						; size = 4
??_GModeMapSelectList@@UAEPAXI@Z PROC			; ModeMapSelectList::`scalar deleting destructor', COMDAT
; _this$ = ecx
  00000	55		 push	 ebp
  00001	8b ec		 mov	 ebp, esp
  00003	56		 push	 esi
  00004	8b f1		 mov	 esi, ecx
  00006	e8 00 00 00 00	 call	 ??1ModeMapSelectList@@UAE@XZ ; ModeMapSelectList::~ModeMapSelectList
  0000b	f6 45 08 01	 test	 BYTE PTR ___flags$[ebp], 1
  0000f	74 07		 je	 SHORT $LN1@scalar@4
  00011	56		 push	 esi
  00012	e8 00 00 00 00	 call	 ??3@YAXPAX@Z		; operator delete
  00017	59		 pop	 ecx
$LN1@scalar@4:
  00018	8b c6		 mov	 eax, esi
  0001a	5e		 pop	 esi
  0001b	5d		 pop	 ebp
  0001c	c2 04 00	 ret	 4
??_GModeMapSelectList@@UAEPAXI@Z ENDP			; ModeMapSelectList::`scalar deleting destructor'
_TEXT	ENDS
EXTRN	__imp_?HideChildWnd@ioWnd@@QAEXK_N@Z:PROC
EXTRN	__imp_?SetWndPos@ioWnd@@QAEXHH@Z:PROC
EXTRN	__imp_?GetHeight@ioWnd@@QBEHXZ:PROC
;	COMDAT xdata$x
; File d:\lost saga for developer\youtube\tutorial\source\src\lsclient\gui\modemapselectlist.cpp
xdata$x	SEGMENT
__unwindtable$?AddList@ModeMapSelectList@@UAEXH_NABVioHashString@@HHPAVioUIRenderImage@@@Z DD 0ffffffffH
	DD	FLAT:__unwindfunclet$?AddList@ModeMapSelectList@@UAEXH_NABVioHashString@@HHPAVioUIRenderImage@@@Z$0
__ehfuncinfo$?AddList@ModeMapSelectList@@UAEXH_NABVioHashString@@HHPAVioUIRenderImage@@@Z DD 019930522H
	DD	01H
	DD	FLAT:__unwindtable$?AddList@ModeMapSelectList@@UAEXH_NABVioHashString@@HHPAVioUIRenderImage@@@Z
	DD	2 DUP(00H)
	DD	2 DUP(00H)
	DD	00H
	DD	01H
; Function compile flags: /Ogsp
xdata$x	ENDS
;	COMDAT ?AddList@ModeMapSelectList@@UAEXH_NABVioHashString@@HHPAVioUIRenderImage@@@Z
_TEXT	SEGMENT
_kList$ = -48						; size = 36
__$EHRec$ = -12						; size = 12
_iIndex$ = 8						; size = 4
tv477 = 12						; size = 4
_bSafetyLevelRoom$ = 12					; size = 1
_rkName$ = 16						; size = 4
_iHelpIndex$ = 20					; size = 4
_iManualIndex$ = 24					; size = 4
_pMarkRes$ = 28						; size = 4
?AddList@ModeMapSelectList@@UAEXH_NABVioHashString@@HHPAVioUIRenderImage@@@Z PROC ; ModeMapSelectList::AddList, COMDAT
; _this$ = ecx

; 171  : {

  00000	6a 24		 push	 36			; 00000024H
  00002	b8 00 00 00 00	 mov	 eax, __ehhandler$?AddList@ModeMapSelectList@@UAEXH_NABVioHashString@@HHPAVioUIRenderImage@@@Z
  00007	e8 00 00 00 00	 call	 __EH_prolog3
  0000c	8b f1		 mov	 esi, ecx

; 172  : 	SelectList kList;

  0000e	8d 4d d0	 lea	 ecx, DWORD PTR _kList$[ebp]
  00011	e8 00 00 00 00	 call	 ??0SelectList@ModeMapSelectList@@QAE@XZ ; ModeMapSelectList::SelectList::SelectList

; 173  : 	kList.m_iIndex			 = iIndex;
; 174  : 	kList.m_iHelpIndex       = iHelpIndex;

  00016	8b 45 14	 mov	 eax, DWORD PTR _iHelpIndex$[ebp]
  00019	8b 7d 08	 mov	 edi, DWORD PTR _iIndex$[ebp]

; 175  : 	kList.m_iManualIndex     = iManualIndex;
; 176  : 	kList.m_szTitle			 = rkName;

  0001c	ff 75 10	 push	 DWORD PTR _rkName$[ebp]
  0001f	89 45 d4	 mov	 DWORD PTR _kList$[ebp+4], eax
  00022	8b 45 18	 mov	 eax, DWORD PTR _iManualIndex$[ebp]
  00025	33 db		 xor	 ebx, ebx
  00027	8d 4d e0	 lea	 ecx, DWORD PTR _kList$[ebp+16]
  0002a	89 5d fc	 mov	 DWORD PTR __$EHRec$[ebp+8], ebx
  0002d	89 7d d0	 mov	 DWORD PTR _kList$[ebp], edi
  00030	89 45 d8	 mov	 DWORD PTR _kList$[ebp+8], eax
  00033	ff 15 00 00 00
	00		 call	 DWORD PTR __imp_??4ioHashString@@QAEAAV0@ABV0@@Z

; 177  : 	kList.m_bSafetyLevelRoom = bSafetyLevelRoom;

  00039	8a 45 0c	 mov	 al, BYTE PTR _bSafetyLevelRoom$[ebp]

; 178  : 	kList.m_pMarkRes         = pMarkRes;

  0003c	8b 4d 1c	 mov	 ecx, DWORD PTR _pMarkRes$[ebp]
  0003f	88 45 dd	 mov	 BYTE PTR _kList$[ebp+13], al
  00042	89 4d f0	 mov	 DWORD PTR _kList$[ebp+32], ecx

; 179  : 	if( m_iSelectIndex == iIndex && 
; 180  : 		m_bSafetyLevelRoom == bSafetyLevelRoom )

  00045	39 be a4 01 00
	00		 cmp	 DWORD PTR [esi+420], edi
  0004b	75 0c		 jne	 SHORT $LN7@AddList
  0004d	38 86 a8 01 00
	00		 cmp	 BYTE PTR [esi+424], al
  00053	75 04		 jne	 SHORT $LN7@AddList

; 181  : 	{
; 182  : 		kList.m_bCheck = true;

  00055	c6 45 dc 01	 mov	 BYTE PTR _kList$[ebp+12], 1
$LN7@AddList:

; 183  : 	}
; 184  : 	m_vEnableSelectList.push_back( kList );

  00059	8d 45 d0	 lea	 eax, DWORD PTR _kList$[ebp]
  0005c	50		 push	 eax
  0005d	8d 8e bc 01 00
	00		 lea	 ecx, DWORD PTR [esi+444]
  00063	e8 00 00 00 00	 call	 ?push_back@?$vector@USelectList@ModeMapSelectList@@V?$allocator@USelectList@ModeMapSelectList@@@std@@@std@@QAEXABUSelectList@ModeMapSelectList@@@Z ; std::vector<ModeMapSelectList::SelectList,std::allocator<ModeMapSelectList::SelectList> >::push_back

; 185  : 
; 186  : 	if( m_iBackupWidth == 0 )

  00068	39 9e b8 01 00
	00		 cmp	 DWORD PTR [esi+440], ebx
  0006e	75 0e		 jne	 SHORT $LN6@AddList

; 187  : 		m_iBackupWidth = GetWidth();

  00070	8b ce		 mov	 ecx, esi
  00072	ff 15 00 00 00
	00		 call	 DWORD PTR __imp_?GetWidth@ioWnd@@QBEHXZ
  00078	89 86 b8 01 00
	00		 mov	 DWORD PTR [esi+440], eax
$LN6@AddList:

; 188  : 	if( m_bAI )		
; 189  : 		SetSize( m_iBackupWidth + 1, ( min( m_iMaxPageList, (int)m_vEnableSelectList.size() ) * m_iHeightGap ) + m_iAddHeight );

  0007e	8b 86 c0 01 00
	00		 mov	 eax, DWORD PTR [esi+448]
  00084	2b 86 bc 01 00
	00		 sub	 eax, DWORD PTR [esi+444]
  0008a	6a 24		 push	 36			; 00000024H
  0008c	59		 pop	 ecx
  0008d	99		 cdq
  0008e	f7 f9		 idiv	 ecx
  00090	8b 8e 94 01 00
	00		 mov	 ecx, DWORD PTR [esi+404]
  00096	8b 16		 mov	 edx, DWORD PTR [esi]
  00098	38 9e b6 01 00
	00		 cmp	 BYTE PTR [esi+438], bl
  0009e	74 1f		 je	 SHORT $LN5@AddList
  000a0	3b c8		 cmp	 ecx, eax
  000a2	0f 4c c1	 cmovl	 eax, ecx
  000a5	8b 8e 84 01 00
	00		 mov	 ecx, DWORD PTR [esi+388]
  000ab	0f af c8	 imul	 ecx, eax
  000ae	03 8e 78 01 00
	00		 add	 ecx, DWORD PTR [esi+376]
  000b4	8b 86 b8 01 00
	00		 mov	 eax, DWORD PTR [esi+440]
  000ba	51		 push	 ecx
  000bb	40		 inc	 eax
  000bc	50		 push	 eax

; 190  : 	else

  000bd	eb 1b		 jmp	 SHORT $LN31@AddList
$LN5@AddList:

; 191  : 		SetSize( m_iBackupWidth, ( min( m_iMaxPageList, (int)m_vEnableSelectList.size() ) * m_iHeightGap ) + m_iAddHeight );

  000bf	3b c8		 cmp	 ecx, eax
  000c1	0f 4c c1	 cmovl	 eax, ecx
  000c4	8b 8e 84 01 00
	00		 mov	 ecx, DWORD PTR [esi+388]
  000ca	0f af c8	 imul	 ecx, eax
  000cd	03 8e 78 01 00
	00		 add	 ecx, DWORD PTR [esi+376]
  000d3	51		 push	 ecx
  000d4	ff b6 b8 01 00
	00		 push	 DWORD PTR [esi+440]
$LN31@AddList:
  000da	8b ce		 mov	 ecx, esi
  000dc	ff 52 2c	 call	 DWORD PTR [edx+44]

; 192  : 	SetWndPos( m_iStartXPos, m_iStartYPos - GetHeight() );

  000df	8b ce		 mov	 ecx, esi
  000e1	ff 15 00 00 00
	00		 call	 DWORD PTR __imp_?GetHeight@ioWnd@@QBEHXZ
  000e7	8b 8e 8c 01 00
	00		 mov	 ecx, DWORD PTR [esi+396]
  000ed	2b c8		 sub	 ecx, eax
  000ef	51		 push	 ecx
  000f0	ff b6 88 01 00
	00		 push	 DWORD PTR [esi+392]
  000f6	8b ce		 mov	 ecx, esi
  000f8	ff 15 00 00 00
	00		 call	 DWORD PTR __imp_?SetWndPos@ioWnd@@QAEXHH@Z

; 193  : 
; 194  : 	m_iCurPos = 0;

  000fe	89 9e a0 01 00
	00		 mov	 DWORD PTR [esi+416], ebx

; 195  : 	if( (int)m_vEnableSelectList.size() <= m_iMaxPageList )

  00104	8b 86 c0 01 00
	00		 mov	 eax, DWORD PTR [esi+448]
  0010a	2b 86 bc 01 00
	00		 sub	 eax, DWORD PTR [esi+444]
  00110	6a 24		 push	 36			; 00000024H
  00112	99		 cdq
  00113	59		 pop	 ecx
  00114	f7 f9		 idiv	 ecx

; 196  : 	{
; 197  : 		HideChildWnd( ID_VERT_SCROLL );

  00116	8b ce		 mov	 ecx, esi
  00118	3b 86 94 01 00
	00		 cmp	 eax, DWORD PTR [esi+404]
  0011e	7f 0e		 jg	 SHORT $LN3@AddList
  00120	53		 push	 ebx
  00121	68 e8 03 00 00	 push	 1000			; 000003e8H
  00126	ff 15 00 00 00
	00		 call	 DWORD PTR __imp_?HideChildWnd@ioWnd@@QAEXK_N@Z

; 198  : 	}
; 199  : 	else

  0012c	eb 48		 jmp	 SHORT $LN1@AddList
$LN3@AddList:

; 200  : 	{
; 201  : 		ioScroll *pScroll = (ioScroll*)FindChildWnd( ID_VERT_SCROLL );

  0012e	68 e8 03 00 00	 push	 1000			; 000003e8H
  00133	ff 15 00 00 00
	00		 call	 DWORD PTR __imp_?FindChildWnd@ioWnd@@QAEPAV1@K@Z
  00139	8b d8		 mov	 ebx, eax

; 202  : 		if( pScroll )

  0013b	85 db		 test	 ebx, ebx
  0013d	74 37		 je	 SHORT $LN1@AddList

; 203  : 		{
; 204  : 			pScroll->SetScrollRange( 0, m_vEnableSelectList.size() );

  0013f	8b 86 c0 01 00
	00		 mov	 eax, DWORD PTR [esi+448]
  00145	2b 86 bc 01 00
	00		 sub	 eax, DWORD PTR [esi+444]
  0014b	6a 24		 push	 36			; 00000024H
  0014d	59		 pop	 ecx
  0014e	99		 cdq
  0014f	f7 f9		 idiv	 ecx
  00151	8b cb		 mov	 ecx, ebx
  00153	50		 push	 eax
  00154	8b 03		 mov	 eax, DWORD PTR [ebx]
  00156	6a 00		 push	 0
  00158	ff 90 30 01 00
	00		 call	 DWORD PTR [eax+304]

; 205  : 			pScroll->SetScrollPos( m_iCurPos );

  0015e	ff b6 a0 01 00
	00		 push	 DWORD PTR [esi+416]
  00164	8b 03		 mov	 eax, DWORD PTR [ebx]
  00166	8b cb		 mov	 ecx, ebx
  00168	ff 90 38 01 00
	00		 call	 DWORD PTR [eax+312]

; 206  : 			pScroll->ShowWnd();

  0016e	8b cb		 mov	 ecx, ebx
  00170	ff 15 00 00 00
	00		 call	 DWORD PTR __imp_?ShowWnd@ioWnd@@QAEXXZ
$LN1@AddList:

; 207  : 		}
; 208  : 	}
; 209  : }

  00176	83 4d fc ff	 or	 DWORD PTR __$EHRec$[ebp+8], -1
  0017a	8d 4d e0	 lea	 ecx, DWORD PTR _kList$[ebp+16]
  0017d	ff 15 00 00 00
	00		 call	 DWORD PTR __imp_??1ioHashString@@QAE@XZ
  00183	e8 00 00 00 00	 call	 __EH_epilog3
  00188	c2 18 00	 ret	 24			; 00000018H
_TEXT	ENDS
;	COMDAT text$x
text$x	SEGMENT
__unwindfunclet$?AddList@ModeMapSelectList@@UAEXH_NABVioHashString@@HHPAVioUIRenderImage@@@Z$0:
  00000	8d 4d d0	 lea	 ecx, DWORD PTR _kList$[ebp]
  00003	e9 00 00 00 00	 jmp	 ??1SelectList@ModeMapSelectList@@QAE@XZ
__ehhandler$?AddList@ModeMapSelectList@@UAEXH_NABVioHashString@@HHPAVioUIRenderImage@@@Z:
  00008	8b 54 24 08	 mov	 edx, DWORD PTR [esp+8]
  0000c	8d 42 0c	 lea	 eax, DWORD PTR [edx+12]
  0000f	8b 4a cc	 mov	 ecx, DWORD PTR [edx-52]
  00012	33 c8		 xor	 ecx, eax
  00014	e8 00 00 00 00	 call	 @__security_check_cookie@4
  00019	b8 00 00 00 00	 mov	 eax, OFFSET __ehfuncinfo$?AddList@ModeMapSelectList@@UAEXH_NABVioHashString@@HHPAVioUIRenderImage@@@Z
  0001e	e9 00 00 00 00	 jmp	 ___CxxFrameHandler3
text$x	ENDS
?AddList@ModeMapSelectList@@UAEXH_NABVioHashString@@HHPAVioUIRenderImage@@@Z ENDP ; ModeMapSelectList::AddList
; Function compile flags: /Ogsp
;	COMDAT ??_GCreateModeSelectList@@UAEPAXI@Z
_TEXT	SEGMENT
___flags$ = 8						; size = 4
??_GCreateModeSelectList@@UAEPAXI@Z PROC		; CreateModeSelectList::`scalar deleting destructor', COMDAT
; _this$ = ecx
  00000	55		 push	 ebp
  00001	8b ec		 mov	 ebp, esp
  00003	56		 push	 esi
  00004	8b f1		 mov	 esi, ecx
  00006	e8 00 00 00 00	 call	 ??1CreateModeSelectList@@UAE@XZ ; CreateModeSelectList::~CreateModeSelectList
  0000b	f6 45 08 01	 test	 BYTE PTR ___flags$[ebp], 1
  0000f	74 07		 je	 SHORT $LN1@scalar@5
  00011	56		 push	 esi
  00012	e8 00 00 00 00	 call	 ??3@YAXPAX@Z		; operator delete
  00017	59		 pop	 ecx
$LN1@scalar@5:
  00018	8b c6		 mov	 eax, esi
  0001a	5e		 pop	 esi
  0001b	5d		 pop	 ebp
  0001c	c2 04 00	 ret	 4
??_GCreateModeSelectList@@UAEPAXI@Z ENDP		; CreateModeSelectList::`scalar deleting destructor'
_TEXT	ENDS
;	COMDAT xdata$x
xdata$x	SEGMENT
__unwindtable$?AddList@CreateModeSelectList@@UAEXHABVioHashString@@HHPAVioUIRenderImage@@@Z DD 0ffffffffH
	DD	FLAT:__unwindfunclet$?AddList@CreateModeSelectList@@UAEXHABVioHashString@@HHPAVioUIRenderImage@@@Z$0
__ehfuncinfo$?AddList@CreateModeSelectList@@UAEXHABVioHashString@@HHPAVioUIRenderImage@@@Z DD 019930522H
	DD	01H
	DD	FLAT:__unwindtable$?AddList@CreateModeSelectList@@UAEXHABVioHashString@@HHPAVioUIRenderImage@@@Z
	DD	2 DUP(00H)
	DD	2 DUP(00H)
	DD	00H
	DD	01H
; Function compile flags: /Ogsp
xdata$x	ENDS
;	COMDAT ?AddList@CreateModeSelectList@@UAEXHABVioHashString@@HHPAVioUIRenderImage@@@Z
_TEXT	SEGMENT
_kList$ = -44						; size = 32
__$EHRec$ = -12						; size = 12
_iIndex$ = 8						; size = 4
_rkName$ = 12						; size = 4
_iHelpIndex$ = 16					; size = 4
_iManualIndex$ = 20					; size = 4
_pMarkRes$ = 24						; size = 4
?AddList@CreateModeSelectList@@UAEXHABVioHashString@@HHPAVioUIRenderImage@@@Z PROC ; CreateModeSelectList::AddList, COMDAT
; _this$ = ecx

; 579  : {

  00000	6a 20		 push	 32			; 00000020H
  00002	b8 00 00 00 00	 mov	 eax, __ehhandler$?AddList@CreateModeSelectList@@UAEXHABVioHashString@@HHPAVioUIRenderImage@@@Z
  00007	e8 00 00 00 00	 call	 __EH_prolog3
  0000c	8b f1		 mov	 esi, ecx

; 580  : 	SelectList kList;

  0000e	8d 4d d4	 lea	 ecx, DWORD PTR _kList$[ebp]
  00011	e8 00 00 00 00	 call	 ??0SelectList@CreateModeSelectList@@QAE@XZ ; CreateModeSelectList::SelectList::SelectList

; 581  : 	kList.m_iIndex			 = iIndex;

  00016	8b 45 08	 mov	 eax, DWORD PTR _iIndex$[ebp]

; 582  : 	kList.m_iHelpIndex       = iHelpIndex;
; 583  : 	kList.m_iManualIndex     = iManualIndex;
; 584  : 	kList.m_szTitle			 = rkName;

  00019	ff 75 0c	 push	 DWORD PTR _rkName$[ebp]
  0001c	83 65 fc 00	 and	 DWORD PTR __$EHRec$[ebp+8], 0
  00020	89 45 d4	 mov	 DWORD PTR _kList$[ebp], eax
  00023	8b 45 10	 mov	 eax, DWORD PTR _iHelpIndex$[ebp]
  00026	89 45 d8	 mov	 DWORD PTR _kList$[ebp+4], eax
  00029	8b 45 14	 mov	 eax, DWORD PTR _iManualIndex$[ebp]
  0002c	8d 4d e0	 lea	 ecx, DWORD PTR _kList$[ebp+12]
  0002f	89 45 dc	 mov	 DWORD PTR _kList$[ebp+8], eax
  00032	ff 15 00 00 00
	00		 call	 DWORD PTR __imp_??4ioHashString@@QAEAAV0@ABV0@@Z

; 585  : 	kList.m_pMarkRes		 = pMarkRes;

  00038	8b 45 18	 mov	 eax, DWORD PTR _pMarkRes$[ebp]
  0003b	89 45 f0	 mov	 DWORD PTR _kList$[ebp+28], eax

; 586  : 	m_vEnableSelectList.push_back( kList );

  0003e	8d 45 d4	 lea	 eax, DWORD PTR _kList$[ebp]
  00041	50		 push	 eax
  00042	8d 8e a4 01 00
	00		 lea	 ecx, DWORD PTR [esi+420]
  00048	e8 00 00 00 00	 call	 ?push_back@?$vector@USelectList@CreateModeSelectList@@V?$allocator@USelectList@CreateModeSelectList@@@std@@@std@@QAEXABUSelectList@CreateModeSelectList@@@Z ; std::vector<CreateModeSelectList::SelectList,std::allocator<CreateModeSelectList::SelectList> >::push_back

; 587  : 
; 588  : 	SetSize( GetWidth(), ( min( m_iMaxPageList, (int)m_vEnableSelectList.size() ) * m_iHeightGap ) + m_iAddHeight );

  0004d	8b 86 a8 01 00
	00		 mov	 eax, DWORD PTR [esi+424]
  00053	2b 86 a4 01 00
	00		 sub	 eax, DWORD PTR [esi+420]
  00059	8b 8e 94 01 00
	00		 mov	 ecx, DWORD PTR [esi+404]
  0005f	8b 1e		 mov	 ebx, DWORD PTR [esi]
  00061	c1 f8 05	 sar	 eax, 5
  00064	3b c8		 cmp	 ecx, eax
  00066	0f 4c c1	 cmovl	 eax, ecx
  00069	8b 8e 84 01 00
	00		 mov	 ecx, DWORD PTR [esi+388]
  0006f	0f af c8	 imul	 ecx, eax
  00072	03 8e 78 01 00
	00		 add	 ecx, DWORD PTR [esi+376]
  00078	51		 push	 ecx
  00079	8b ce		 mov	 ecx, esi
  0007b	ff 15 00 00 00
	00		 call	 DWORD PTR __imp_?GetWidth@ioWnd@@QBEHXZ
  00081	50		 push	 eax
  00082	8b ce		 mov	 ecx, esi
  00084	ff 53 2c	 call	 DWORD PTR [ebx+44]

; 589  : 
; 590  : 	m_iCurPos = 0;

  00087	83 a6 98 01 00
	00 00		 and	 DWORD PTR [esi+408], 0

; 591  : 	if( (int)m_vEnableSelectList.size() <= m_iMaxPageList )

  0008e	8b 86 a8 01 00
	00		 mov	 eax, DWORD PTR [esi+424]
  00094	2b 86 a4 01 00
	00		 sub	 eax, DWORD PTR [esi+420]

; 592  : 	{
; 593  : 		HideChildWnd( ID_VERT_SCROLL );

  0009a	8b ce		 mov	 ecx, esi
  0009c	c1 f8 05	 sar	 eax, 5
  0009f	3b 86 94 01 00
	00		 cmp	 eax, DWORD PTR [esi+404]
  000a5	7f 0f		 jg	 SHORT $LN3@AddList@2
  000a7	6a 00		 push	 0
  000a9	68 e8 03 00 00	 push	 1000			; 000003e8H
  000ae	ff 15 00 00 00
	00		 call	 DWORD PTR __imp_?HideChildWnd@ioWnd@@QAEXK_N@Z

; 594  : 	}
; 595  : 	else

  000b4	eb 45		 jmp	 SHORT $LN1@AddList@2
$LN3@AddList@2:

; 596  : 	{
; 597  : 		ioScroll *pScroll = (ioScroll*)FindChildWnd( ID_VERT_SCROLL );

  000b6	68 e8 03 00 00	 push	 1000			; 000003e8H
  000bb	ff 15 00 00 00
	00		 call	 DWORD PTR __imp_?FindChildWnd@ioWnd@@QAEPAV1@K@Z
  000c1	8b d8		 mov	 ebx, eax

; 598  : 		if( pScroll )

  000c3	85 db		 test	 ebx, ebx
  000c5	74 34		 je	 SHORT $LN1@AddList@2

; 599  : 		{
; 600  : 			pScroll->SetScrollRange( 0, m_vEnableSelectList.size() );

  000c7	8b 8e a8 01 00
	00		 mov	 ecx, DWORD PTR [esi+424]
  000cd	2b 8e a4 01 00
	00		 sub	 ecx, DWORD PTR [esi+420]
  000d3	8b 03		 mov	 eax, DWORD PTR [ebx]
  000d5	c1 f9 05	 sar	 ecx, 5
  000d8	51		 push	 ecx
  000d9	6a 00		 push	 0
  000db	8b cb		 mov	 ecx, ebx
  000dd	ff 90 30 01 00
	00		 call	 DWORD PTR [eax+304]

; 601  : 			pScroll->SetScrollPos( m_iCurPos );

  000e3	ff b6 98 01 00
	00		 push	 DWORD PTR [esi+408]
  000e9	8b 03		 mov	 eax, DWORD PTR [ebx]
  000eb	8b cb		 mov	 ecx, ebx
  000ed	ff 90 38 01 00
	00		 call	 DWORD PTR [eax+312]

; 602  : 			pScroll->ShowWnd();

  000f3	8b cb		 mov	 ecx, ebx
  000f5	ff 15 00 00 00
	00		 call	 DWORD PTR __imp_?ShowWnd@ioWnd@@QAEXXZ
$LN1@AddList@2:

; 603  : 		}
; 604  : 	}
; 605  : }

  000fb	83 4d fc ff	 or	 DWORD PTR __$EHRec$[ebp+8], -1
  000ff	8d 4d e0	 lea	 ecx, DWORD PTR _kList$[ebp+12]
  00102	ff 15 00 00 00
	00		 call	 DWORD PTR __imp_??1ioHashString@@QAE@XZ
  00108	e8 00 00 00 00	 call	 __EH_epilog3
  0010d	c2 14 00	 ret	 20			; 00000014H
_TEXT	ENDS
;	COMDAT text$x
text$x	SEGMENT
__unwindfunclet$?AddList@CreateModeSelectList@@UAEXHABVioHashString@@HHPAVioUIRenderImage@@@Z$0:
  00000	8d 4d d4	 lea	 ecx, DWORD PTR _kList$[ebp]
  00003	e9 00 00 00 00	 jmp	 ??1SelectList@CreateModeSelectList@@QAE@XZ
__ehhandler$?AddList@CreateModeSelectList@@UAEXHABVioHashString@@HHPAVioUIRenderImage@@@Z:
  00008	8b 54 24 08	 mov	 edx, DWORD PTR [esp+8]
  0000c	8d 42 0c	 lea	 eax, DWORD PTR [edx+12]
  0000f	8b 4a d0	 mov	 ecx, DWORD PTR [edx-48]
  00012	33 c8		 xor	 ecx, eax
  00014	e8 00 00 00 00	 call	 @__security_check_cookie@4
  00019	b8 00 00 00 00	 mov	 eax, OFFSET __ehfuncinfo$?AddList@CreateModeSelectList@@UAEXHABVioHashString@@HHPAVioUIRenderImage@@@Z
  0001e	e9 00 00 00 00	 jmp	 ___CxxFrameHandler3
text$x	ENDS
?AddList@CreateModeSelectList@@UAEXHABVioHashString@@HHPAVioUIRenderImage@@@Z ENDP ; CreateModeSelectList::AddList
END
