; Listing generated by Microsoft (R) Optimizing Compiler Version 16.00.30319.01 

	TITLE	D:\Lost Saga For Developer\Youtube\Tutorial\Source\src\LSClient\GUI\ModeRankWnd.cpp
	.686P
	.XMM
	include listing.inc
	.model	flat

INCLUDELIB MSVCRT
INCLUDELIB OLDNAMES

PUBLIC	?_EEM_DS@?$deque@UD3DXVECTOR3@@V?$allocator@UD3DXVECTOR3@@@std@@@std@@2HB ; std::deque<D3DXVECTOR3,std::allocator<D3DXVECTOR3> >::_EEM_DS
;	COMDAT ?_EEM_DS@?$deque@UD3DXVECTOR3@@V?$allocator@UD3DXVECTOR3@@@std@@@std@@2HB
CONST	SEGMENT
?_EEM_DS@?$deque@UD3DXVECTOR3@@V?$allocator@UD3DXVECTOR3@@@std@@@std@@2HB DD 01H ; std::deque<D3DXVECTOR3,std::allocator<D3DXVECTOR3> >::_EEM_DS
CONST	ENDS
PUBLIC	?return5@@YAIXZ					; return5
; Function compile flags: /Ogsp
; File d:\lost saga for developer\youtube\tutorial\source\src\lsclient\stdafx.h
;	COMDAT ?return5@@YAIXZ
_TEXT	SEGMENT
?return5@@YAIXZ PROC					; return5, COMDAT

; 18   : 	__forceinline unsigned int return5() { __asm mov eax, 5 };

  00000	b8 05 00 00 00	 mov	 eax, 5
  00005	c3		 ret	 0
?return5@@YAIXZ ENDP					; return5
_TEXT	ENDS
PUBLIC	?return10@@YAIXZ				; return10
; Function compile flags: /Ogsp
;	COMDAT ?return10@@YAIXZ
_TEXT	SEGMENT
?return10@@YAIXZ PROC					; return10, COMDAT

; 21   : 	__forceinline unsigned int return10() { __asm mov eax, 10 };

  00000	b8 0a 00 00 00	 mov	 eax, 10			; 0000000aH
  00005	c3		 ret	 0
?return10@@YAIXZ ENDP					; return10
_TEXT	ENDS
PUBLIC	??0RankData@ModeRankWnd@@QAE@XZ			; ModeRankWnd::RankData::RankData
; Function compile flags: /Ogsp
; File d:\lost saga for developer\youtube\tutorial\source\src\lsclient\gui\moderankwnd.h
;	COMDAT ??0RankData@ModeRankWnd@@QAE@XZ
_TEXT	SEGMENT
??0RankData@ModeRankWnd@@QAE@XZ PROC			; ModeRankWnd::RankData::RankData, COMDAT
; _this$ = ecx

; 69   : 		RankData()

  00000	8b c1		 mov	 eax, ecx

; 70   : 		{
; 71   : 			m_iRank    = -1;

  00002	83 08 ff	 or	 DWORD PTR [eax], -1

; 72   : 			m_iCurRank = -1;

  00005	83 48 04 ff	 or	 DWORD PTR [eax+4], -1

; 73   : 			m_dwRollingTime = 0;

  00009	83 60 08 00	 and	 DWORD PTR [eax+8], 0

; 74   : 		}

  0000d	c3		 ret	 0
??0RankData@ModeRankWnd@@QAE@XZ ENDP			; ModeRankWnd::RankData::RankData
_TEXT	ENDS
PUBLIC	??_C@_04IAEKAMNC@YPos?$AA@			; `string'
PUBLIC	??_C@_04LNCKCFGC@XPos?$AA@			; `string'
PUBLIC	??_C@_08BNCJBDIC@ModeRank?$AA@			; `string'
PUBLIC	?UIPositionSave@ModeRankWnd@@IAEX_N@Z		; ModeRankWnd::UIPositionSave
EXTRN	__imp_?GetYPos@ioWnd@@QBEHXZ:PROC
EXTRN	__imp_?GetXPos@ioWnd@@QBEHXZ:PROC
EXTRN	?GUIPosSaveInt@ioSP2GUIManager@@QAEHPBD0HH@Z:PROC ; ioSP2GUIManager::GUIPosSaveInt
EXTRN	?GetSingleton@ioSP2GUIManager@@SAAAV1@XZ:PROC	; ioSP2GUIManager::GetSingleton
;	COMDAT ??_C@_04IAEKAMNC@YPos?$AA@
; File d:\lost saga for developer\youtube\tutorial\source\src\lsclient\gui\moderankwnd.cpp
CONST	SEGMENT
??_C@_04IAEKAMNC@YPos?$AA@ DB 'YPos', 00H		; `string'
CONST	ENDS
;	COMDAT ??_C@_04LNCKCFGC@XPos?$AA@
CONST	SEGMENT
??_C@_04LNCKCFGC@XPos?$AA@ DB 'XPos', 00H		; `string'
CONST	ENDS
;	COMDAT ??_C@_08BNCJBDIC@ModeRank?$AA@
CONST	SEGMENT
??_C@_08BNCJBDIC@ModeRank?$AA@ DB 'ModeRank', 00H	; `string'
; Function compile flags: /Ogsp
CONST	ENDS
;	COMDAT ?UIPositionSave@ModeRankWnd@@IAEX_N@Z
_TEXT	SEGMENT
_bDefault$ = 8						; size = 1
?UIPositionSave@ModeRankWnd@@IAEX_N@Z PROC		; ModeRankWnd::UIPositionSave, COMDAT
; _this$ = ecx

; 188  : {

  00000	55		 push	 ebp
  00001	8b ec		 mov	 ebp, esp

; 189  : 	if( bDefault )

  00003	80 7d 08 00	 cmp	 BYTE PTR _bDefault$[ebp], 0
  00007	53		 push	 ebx
  00008	56		 push	 esi
  00009	57		 push	 edi
  0000a	8b d9		 mov	 ebx, ecx
  0000c	bf f1 d8 ff ff	 mov	 edi, -9999		; ffffd8f1H
  00011	be 00 00 00 00	 mov	 esi, OFFSET ??_C@_08BNCJBDIC@ModeRank?$AA@
  00016	74 2a		 je	 SHORT $LN6@UIPosition

; 190  : 	{
; 191  : 		g_GUIMgr.GUIPosSaveInt( "ModeRank", "XPos", ioSP2GUIManager::SCREEN_OUT_POS, POS_SAVE_VERSION );

  00018	6a 04		 push	 4
  0001a	57		 push	 edi
  0001b	68 00 00 00 00	 push	 OFFSET ??_C@_04LNCKCFGC@XPos?$AA@
  00020	56		 push	 esi
  00021	e8 00 00 00 00	 call	 ?GetSingleton@ioSP2GUIManager@@SAAAV1@XZ ; ioSP2GUIManager::GetSingleton
  00026	8b c8		 mov	 ecx, eax
  00028	e8 00 00 00 00	 call	 ?GUIPosSaveInt@ioSP2GUIManager@@QAEHPBD0HH@Z ; ioSP2GUIManager::GUIPosSaveInt

; 192  : 		g_GUIMgr.GUIPosSaveInt( "ModeRank", "YPos", ioSP2GUIManager::SCREEN_OUT_POS, POS_SAVE_VERSION );

  0002d	6a 04		 push	 4
  0002f	57		 push	 edi
  00030	68 00 00 00 00	 push	 OFFSET ??_C@_04IAEKAMNC@YPos?$AA@
  00035	56		 push	 esi
  00036	e8 00 00 00 00	 call	 ?GetSingleton@ioSP2GUIManager@@SAAAV1@XZ ; ioSP2GUIManager::GetSingleton
  0003b	8b c8		 mov	 ecx, eax
  0003d	e8 00 00 00 00	 call	 ?GUIPosSaveInt@ioSP2GUIManager@@QAEHPBD0HH@Z ; ioSP2GUIManager::GUIPosSaveInt
$LN6@UIPosition:

; 193  : 	}
; 194  : 
; 195  : 	if( m_iDefaultX == ioSP2GUIManager::SCREEN_OUT_POS ||
; 196  : 		m_iDefaultY == ioSP2GUIManager::SCREEN_OUT_POS )

  00042	39 bb 68 02 00
	00		 cmp	 DWORD PTR [ebx+616], edi
  00048	74 72		 je	 SHORT $LN4@UIPosition
  0004a	39 bb 6c 02 00
	00		 cmp	 DWORD PTR [ebx+620], edi
  00050	74 6a		 je	 SHORT $LN4@UIPosition

; 197  : 		return;
; 198  : 
; 199  : 	if( m_bPosSave )

  00052	80 bb 00 02 00
	00 00		 cmp	 BYTE PTR [ebx+512], 0
  00059	74 61		 je	 SHORT $LN4@UIPosition

; 200  : 	{
; 201  : 		if( m_iDefaultX != GetXPos() || m_iDefaultY != GetYPos() )

  0005b	8b cb		 mov	 ecx, ebx
  0005d	ff 15 00 00 00
	00		 call	 DWORD PTR __imp_?GetXPos@ioWnd@@QBEHXZ
  00063	39 83 68 02 00
	00		 cmp	 DWORD PTR [ebx+616], eax
  00069	75 10		 jne	 SHORT $LN1@UIPosition
  0006b	8b cb		 mov	 ecx, ebx
  0006d	ff 15 00 00 00
	00		 call	 DWORD PTR __imp_?GetYPos@ioWnd@@QBEHXZ
  00073	39 83 6c 02 00
	00		 cmp	 DWORD PTR [ebx+620], eax
  00079	74 3a		 je	 SHORT $LN2@UIPosition
$LN1@UIPosition:

; 202  : 		{
; 203  : 			g_GUIMgr.GUIPosSaveInt( "ModeRank", "XPos", GetXPos(), POS_SAVE_VERSION );

  0007b	6a 04		 push	 4
  0007d	8b cb		 mov	 ecx, ebx
  0007f	ff 15 00 00 00
	00		 call	 DWORD PTR __imp_?GetXPos@ioWnd@@QBEHXZ
  00085	50		 push	 eax
  00086	68 00 00 00 00	 push	 OFFSET ??_C@_04LNCKCFGC@XPos?$AA@
  0008b	56		 push	 esi
  0008c	e8 00 00 00 00	 call	 ?GetSingleton@ioSP2GUIManager@@SAAAV1@XZ ; ioSP2GUIManager::GetSingleton
  00091	8b c8		 mov	 ecx, eax
  00093	e8 00 00 00 00	 call	 ?GUIPosSaveInt@ioSP2GUIManager@@QAEHPBD0HH@Z ; ioSP2GUIManager::GUIPosSaveInt

; 204  : 			g_GUIMgr.GUIPosSaveInt( "ModeRank", "YPos", GetYPos(), POS_SAVE_VERSION );

  00098	6a 04		 push	 4
  0009a	8b cb		 mov	 ecx, ebx
  0009c	ff 15 00 00 00
	00		 call	 DWORD PTR __imp_?GetYPos@ioWnd@@QBEHXZ
  000a2	50		 push	 eax
  000a3	68 00 00 00 00	 push	 OFFSET ??_C@_04IAEKAMNC@YPos?$AA@
  000a8	56		 push	 esi
  000a9	e8 00 00 00 00	 call	 ?GetSingleton@ioSP2GUIManager@@SAAAV1@XZ ; ioSP2GUIManager::GetSingleton
  000ae	8b c8		 mov	 ecx, eax
  000b0	e8 00 00 00 00	 call	 ?GUIPosSaveInt@ioSP2GUIManager@@QAEHPBD0HH@Z ; ioSP2GUIManager::GUIPosSaveInt
$LN2@UIPosition:

; 205  : 		}	
; 206  : 
; 207  : 		m_bPosSave = false;

  000b5	c6 83 00 02 00
	00 00		 mov	 BYTE PTR [ebx+512], 0
$LN4@UIPosition:
  000bc	5f		 pop	 edi
  000bd	5e		 pop	 esi
  000be	5b		 pop	 ebx

; 208  : 	}	
; 209  : }

  000bf	5d		 pop	 ebp
  000c0	c2 04 00	 ret	 4
?UIPositionSave@ModeRankWnd@@IAEX_N@Z ENDP		; ModeRankWnd::UIPositionSave
_TEXT	ENDS
PUBLIC	?iwm_hide@ModeRankWnd@@UAEXXZ			; ModeRankWnd::iwm_hide
EXTRN	__imp_?StopSound@ioSoundManager@@QAEXABVioHashString@@K@Z:PROC
EXTRN	__imp_?GetSingleton@ioSoundManager@@SAAAV1@XZ:PROC
; Function compile flags: /Ogsp
;	COMDAT ?iwm_hide@ModeRankWnd@@UAEXXZ
_TEXT	SEGMENT
?iwm_hide@ModeRankWnd@@UAEXXZ PROC			; ModeRankWnd::iwm_hide, COMDAT
; _this$ = ecx

; 305  : {

  00000	56		 push	 esi
  00001	57		 push	 edi

; 306  : 	UIPositionSave();

  00002	33 ff		 xor	 edi, edi
  00004	57		 push	 edi
  00005	8b f1		 mov	 esi, ecx
  00007	e8 00 00 00 00	 call	 ?UIPositionSave@ModeRankWnd@@IAEX_N@Z ; ModeRankWnd::UIPositionSave

; 307  : 
; 308  : 	g_SoundMgr.StopSound( m_RollingSound, 0 );

  0000c	8d 86 d8 01 00
	00		 lea	 eax, DWORD PTR [esi+472]
  00012	57		 push	 edi
  00013	50		 push	 eax
  00014	ff 15 00 00 00
	00		 call	 DWORD PTR __imp_?GetSingleton@ioSoundManager@@SAAAV1@XZ
  0001a	8b c8		 mov	 ecx, eax
  0001c	ff 15 00 00 00
	00		 call	 DWORD PTR __imp_?StopSound@ioSoundManager@@QAEXABVioHashString@@K@Z

; 309  : 	m_dwCurTime = m_dwCurHideTime = 0;

  00022	89 be 64 02 00
	00		 mov	 DWORD PTR [esi+612], edi
  00028	89 be 50 02 00
	00		 mov	 DWORD PTR [esi+592], edi

; 310  : 	m_iRankType = NONE_TYPE;

  0002e	89 be 04 02 00
	00		 mov	 DWORD PTR [esi+516], edi
  00034	5f		 pop	 edi
  00035	5e		 pop	 esi

; 311  : }

  00036	c3		 ret	 0
?iwm_hide@ModeRankWnd@@UAEXXZ ENDP			; ModeRankWnd::iwm_hide
_TEXT	ENDS
PUBLIC	__real@bfc89374c0000000
PUBLIC	__real@3fcc28f5c0000000
PUBLIC	?SetPositionByRankType@ModeRankWnd@@IAEXH@Z	; ModeRankWnd::SetPositionByRankType
EXTRN	__imp_?SetWndPos@ioWnd@@QAEXHH@Z:PROC
EXTRN	?IsMonsterDungeonMode@Help@@YA_NW4ModeType@@@Z:PROC ; Help::IsMonsterDungeonMode
EXTRN	?Height@Setting@@SAHXZ:PROC			; Setting::Height
EXTRN	?Width@Setting@@SAHXZ:PROC			; Setting::Width
EXTRN	__imp_?GetWidth@ioWnd@@QBEHXZ:PROC
EXTRN	__fltused:DWORD
;	COMDAT __real@bfc89374c0000000
CONST	SEGMENT
__real@bfc89374c0000000 DQ 0bfc89374c0000000r	; -0.192
CONST	ENDS
;	COMDAT __real@3fcc28f5c0000000
CONST	SEGMENT
__real@3fcc28f5c0000000 DQ 03fcc28f5c0000000r	; 0.22
; Function compile flags: /Ogsp
CONST	ENDS
;	COMDAT ?SetPositionByRankType@ModeRankWnd@@IAEXH@Z
_TEXT	SEGMENT
tv186 = -8						; size = 8
_iRankType$ = 8						; size = 4
?SetPositionByRankType@ModeRankWnd@@IAEXH@Z PROC	; ModeRankWnd::SetPositionByRankType, COMDAT
; _this$ = ecx

; 333  : {

  00000	55		 push	 ebp
  00001	8b ec		 mov	 ebp, esp
  00003	51		 push	 ecx
  00004	51		 push	 ecx

; 334  : 	int iXPos = 0;
; 335  : 	int iYPos = 0;
; 336  : 
; 337  : 	switch( iRankType )

  00005	8b 45 08	 mov	 eax, DWORD PTR _iRankType$[ebp]
  00008	48		 dec	 eax
  00009	53		 push	 ebx
  0000a	56		 push	 esi
  0000b	57		 push	 edi
  0000c	8b d9		 mov	 ebx, ecx
  0000e	0f 84 0b 01 00
	00		 je	 $LN5@SetPositio
  00014	48		 dec	 eax
  00015	0f 84 b5 00 00
	00		 je	 $LN4@SetPositio
  0001b	48		 dec	 eax
  0001c	0f 85 2a 01 00
	00		 jne	 $LN6@SetPositio

; 351  : 	case TABKEY_TYPE:
; 352  : 		iXPos = Setting::Width() / 2 - GetWidth() / 2;

  00022	ff 15 00 00 00
	00		 call	 DWORD PTR __imp_?GetWidth@ioWnd@@QBEHXZ
  00028	99		 cdq
  00029	2b c2		 sub	 eax, edx
  0002b	8b f0		 mov	 esi, eax
  0002d	d1 fe		 sar	 esi, 1
  0002f	e8 00 00 00 00	 call	 ?Width@Setting@@SAHXZ	; Setting::Width
  00034	99		 cdq
  00035	2b c2		 sub	 eax, edx
  00037	8b f8		 mov	 edi, eax
  00039	d1 ff		 sar	 edi, 1
  0003b	2b fe		 sub	 edi, esi

; 353  : 		iYPos = Setting::Height() - 197;

  0003d	e8 00 00 00 00	 call	 ?Height@Setting@@SAHXZ	; Setting::Height
  00042	8d b0 3b ff ff
	ff		 lea	 esi, DWORD PTR [eax-197]

; 354  : 
; 355  : 		if( m_eModeType == MT_SYMBOL ||
; 356  : 			m_eModeType == MT_KING ||
; 357  : 			m_eModeType == MT_TEAM_SURVIVAL ||
; 358  : 			m_eModeType == MT_TEAM_SURVIVAL_AI ||
; 359  : 			m_eModeType == MT_BOSS ||
; 360  : 			m_eModeType == MT_MONSTER_SURVIVAL ||
; 361  : 			m_eModeType == MT_FOOTBALL ||
; 362  : 			m_eModeType == MT_GANGSI ||
; 363  : 			m_eModeType == MT_DUNGEON_A || 
; 364  : 			m_eModeType == MT_DOUBLE_CROWN ||
; 365  : 			m_eModeType == MT_RAID ||
; 366  : 			Help::IsMonsterDungeonMode(m_eModeType) )

  00048	8b 83 fc 01 00
	00		 mov	 eax, DWORD PTR [ebx+508]
  0004e	83 f8 01	 cmp	 eax, 1
  00051	74 3d		 je	 SHORT $LN1@SetPositio
  00053	83 f8 03	 cmp	 eax, 3
  00056	74 38		 je	 SHORT $LN1@SetPositio
  00058	83 f8 06	 cmp	 eax, 6
  0005b	74 33		 je	 SHORT $LN1@SetPositio
  0005d	83 f8 16	 cmp	 eax, 22			; 00000016H
  00060	74 2e		 je	 SHORT $LN1@SetPositio
  00062	83 f8 07	 cmp	 eax, 7
  00065	74 29		 je	 SHORT $LN1@SetPositio
  00067	83 f8 08	 cmp	 eax, 8
  0006a	74 24		 je	 SHORT $LN1@SetPositio
  0006c	83 f8 09	 cmp	 eax, 9
  0006f	74 1f		 je	 SHORT $LN1@SetPositio
  00071	83 f8 0b	 cmp	 eax, 11			; 0000000bH
  00074	74 1a		 je	 SHORT $LN1@SetPositio
  00076	83 f8 0c	 cmp	 eax, 12			; 0000000cH
  00079	74 15		 je	 SHORT $LN1@SetPositio
  0007b	83 f8 13	 cmp	 eax, 19			; 00000013H
  0007e	74 10		 je	 SHORT $LN1@SetPositio
  00080	83 f8 1b	 cmp	 eax, 27			; 0000001bH
  00083	74 0b		 je	 SHORT $LN1@SetPositio
  00085	50		 push	 eax
  00086	e8 00 00 00 00	 call	 ?IsMonsterDungeonMode@Help@@YA_NW4ModeType@@@Z ; Help::IsMonsterDungeonMode
  0008b	59		 pop	 ecx
  0008c	84 c0		 test	 al, al
  0008e	74 07		 je	 SHORT $LN10@SetPositio
$LN1@SetPositio:

; 367  : 		{
; 368  : 			iYPos = max( 0, iYPos - 21 );

  00090	83 c6 eb	 add	 esi, -21		; ffffffebH
  00093	79 02		 jns	 SHORT $LN10@SetPositio
  00095	33 f6		 xor	 esi, esi
$LN10@SetPositio:

; 369  : 		}
; 370  : 
; 371  : 		iYPos -= ( Setting::Height() - 600 ) * 0.22f;

  00097	0f 57 c0	 xorps	 xmm0, xmm0
  0009a	f2 0f 2a c6	 cvtsi2sd xmm0, esi
  0009e	f2 0f 11 45 f8	 movsd	 QWORD PTR tv186[ebp], xmm0
  000a3	e8 00 00 00 00	 call	 ?Height@Setting@@SAHXZ	; Setting::Height
  000a8	f2 0f 10 4d f8	 movsd	 xmm1, QWORD PTR tv186[ebp]
  000ad	2d 58 02 00 00	 sub	 eax, 600		; 00000258H
  000b2	0f 57 c0	 xorps	 xmm0, xmm0
  000b5	f3 0f 2a c0	 cvtsi2ss xmm0, eax
  000b9	0f 5a c0	 cvtps2pd xmm0, xmm0
  000bc	f2 0f 59 05 00
	00 00 00	 mulsd	 xmm0, QWORD PTR __real@3fcc28f5c0000000
  000c4	f2 0f 5c c8	 subsd	 xmm1, xmm0
  000c8	f2 0f 2c c1	 cvttsd2si eax, xmm1

; 372  : 		ioWnd::SetWndPos( iXPos, iYPos );

  000cc	50		 push	 eax
$LN13@SetPositio:
  000cd	57		 push	 edi

; 373  : 		break;

  000ce	eb 74		 jmp	 SHORT $LN12@SetPositio
$LN4@SetPositio:

; 343  : 		break;
; 344  : 	case RESULT_TYPE:
; 345  : 		iXPos = Setting::Width() / 2 - GetWidth() / 2;

  000d0	ff 15 00 00 00
	00		 call	 DWORD PTR __imp_?GetWidth@ioWnd@@QBEHXZ
  000d6	99		 cdq
  000d7	2b c2		 sub	 eax, edx
  000d9	8b f0		 mov	 esi, eax
  000db	d1 fe		 sar	 esi, 1
  000dd	e8 00 00 00 00	 call	 ?Width@Setting@@SAHXZ	; Setting::Width
  000e2	99		 cdq
  000e3	2b c2		 sub	 eax, edx
  000e5	8b f8		 mov	 edi, eax
  000e7	d1 ff		 sar	 edi, 1
  000e9	2b fe		 sub	 edi, esi

; 346  : 		iYPos = Setting::Height() / 2;

  000eb	e8 00 00 00 00	 call	 ?Height@Setting@@SAHXZ	; Setting::Height
  000f0	99		 cdq
  000f1	2b c2		 sub	 eax, edx
  000f3	8b f0		 mov	 esi, eax
  000f5	d1 fe		 sar	 esi, 1

; 347  : 
; 348  : 		iYPos -= (int)( (float)( Setting::Height() - 600 ) * 0.192f );

  000f7	e8 00 00 00 00	 call	 ?Height@Setting@@SAHXZ	; Setting::Height
  000fc	2d 58 02 00 00	 sub	 eax, 600		; 00000258H
  00101	0f 57 c0	 xorps	 xmm0, xmm0
  00104	f3 0f 2a c0	 cvtsi2ss xmm0, eax
  00108	0f 5a c0	 cvtps2pd xmm0, xmm0
  0010b	f2 0f 59 05 00
	00 00 00	 mulsd	 xmm0, QWORD PTR __real@bfc89374c0000000
  00113	f2 0f 2c c0	 cvttsd2si eax, xmm0
  00117	03 f0		 add	 esi, eax

; 349  : 		ioWnd::SetWndPos( iXPos , iYPos - 89 );

  00119	83 c6 a7	 add	 esi, -89		; ffffffa7H
  0011c	56		 push	 esi

; 350  : 		break;

  0011d	eb ae		 jmp	 SHORT $LN13@SetPositio
$LN5@SetPositio:

; 338  : 	{
; 339  : 	case DEATH_TYPE:
; 340  : 		iXPos = Setting::Width() / 2 - GetWidth() / 2;

  0011f	ff 15 00 00 00
	00		 call	 DWORD PTR __imp_?GetWidth@ioWnd@@QBEHXZ
  00125	99		 cdq
  00126	2b c2		 sub	 eax, edx
  00128	8b f8		 mov	 edi, eax
  0012a	d1 ff		 sar	 edi, 1
  0012c	e8 00 00 00 00	 call	 ?Width@Setting@@SAHXZ	; Setting::Width
  00131	99		 cdq
  00132	2b c2		 sub	 eax, edx
  00134	8b f0		 mov	 esi, eax
  00136	d1 fe		 sar	 esi, 1
  00138	2b f7		 sub	 esi, edi

; 341  : 		iYPos = Setting::Height() - 74;

  0013a	e8 00 00 00 00	 call	 ?Height@Setting@@SAHXZ	; Setting::Height
  0013f	83 e8 4a	 sub	 eax, 74			; 0000004aH

; 342  : 		ioWnd::SetWndPos( iXPos, iYPos );

  00142	50		 push	 eax
  00143	56		 push	 esi
$LN12@SetPositio:
  00144	8b cb		 mov	 ecx, ebx
  00146	ff 15 00 00 00
	00		 call	 DWORD PTR __imp_?SetWndPos@ioWnd@@QAEXHH@Z
$LN6@SetPositio:
  0014c	5f		 pop	 edi
  0014d	5e		 pop	 esi
  0014e	5b		 pop	 ebx

; 374  : 	}
; 375  : }

  0014f	c9		 leave
  00150	c2 04 00	 ret	 4
?SetPositionByRankType@ModeRankWnd@@IAEXH@Z ENDP	; ModeRankWnd::SetPositionByRankType
_TEXT	ENDS
PUBLIC	?SetRank@ModeRankWnd@@QAEXH@Z			; ModeRankWnd::SetRank
EXTRN	__imp_?ShowWnd@ioWnd@@QAEXXZ:PROC
EXTRN	__imp_?GetLoopSec@ioFrameTimer@@QBEKXZ:PROC
EXTRN	__imp_?GetSingleton@ioFrameTimer@@SAAAV1@XZ:PROC
EXTRN	?GetModeType@ioPlayStage@@QBE?AW4ModeType@@XZ:PROC ; ioPlayStage::GetModeType
; Function compile flags: /Ogsp
;	COMDAT ?SetRank@ModeRankWnd@@QAEXH@Z
_TEXT	SEGMENT
_iRankType$ = 8						; size = 4
?SetRank@ModeRankWnd@@QAEXH@Z PROC			; ModeRankWnd::SetRank, COMDAT
; _this$ = ecx

; 378  : {

  00000	55		 push	 ebp
  00001	8b ec		 mov	 ebp, esp
  00003	56		 push	 esi
  00004	8b f1		 mov	 esi, ecx

; 379  : 	if( !m_pPlayStage ) return;

  00006	8b 8e f8 01 00
	00		 mov	 ecx, DWORD PTR [esi+504]
  0000c	85 c9		 test	 ecx, ecx
  0000e	74 5a		 je	 SHORT $LN4@SetRank

; 380  : 
; 381  : 	m_eModeType = m_pPlayStage->GetModeType();

  00010	e8 00 00 00 00	 call	 ?GetModeType@ioPlayStage@@QBE?AW4ModeType@@XZ ; ioPlayStage::GetModeType
  00015	89 86 fc 01 00
	00		 mov	 DWORD PTR [esi+508], eax

; 382  : 	if( m_eModeType == MT_MYROOM || m_eModeType == MT_TRAINING || m_eModeType == MT_HEADQUARTERS  || m_eModeType == MT_HOUSE )

  0001b	83 f8 18	 cmp	 eax, 24			; 00000018H
  0001e	74 4a		 je	 SHORT $LN4@SetRank
  00020	83 f8 04	 cmp	 eax, 4
  00023	74 45		 je	 SHORT $LN4@SetRank
  00025	83 f8 0d	 cmp	 eax, 13			; 0000000dH
  00028	74 40		 je	 SHORT $LN4@SetRank
  0002a	83 f8 17	 cmp	 eax, 23			; 00000017H
  0002d	74 3b		 je	 SHORT $LN4@SetRank

; 383  : 		return;
; 384  : 
; 385  : 	m_iRankType = iRankType;

  0002f	8b 45 08	 mov	 eax, DWORD PTR _iRankType$[ebp]
  00032	89 86 04 02 00
	00		 mov	 DWORD PTR [esi+516], eax

; 386  : 	if( m_iRankType == RESULT_TYPE ||
; 387  : 		m_iRankType == TABKEY_TYPE )

  00038	83 f8 02	 cmp	 eax, 2
  0003b	74 1b		 je	 SHORT $LN2@SetRank
  0003d	83 f8 03	 cmp	 eax, 3
  00040	74 16		 je	 SHORT $LN2@SetRank

; 390  : 	}
; 391  : 	else 
; 392  : 	{
; 393  : 		m_dwCurTime = FRAMEGETTIME();

  00042	ff 15 00 00 00
	00		 call	 DWORD PTR __imp_?GetSingleton@ioFrameTimer@@SAAAV1@XZ
  00048	8b c8		 mov	 ecx, eax
  0004a	ff 15 00 00 00
	00		 call	 DWORD PTR __imp_?GetLoopSec@ioFrameTimer@@QBEKXZ
  00050	89 86 50 02 00
	00		 mov	 DWORD PTR [esi+592], eax
  00056	eb 08		 jmp	 SHORT $LN1@SetRank
$LN2@SetRank:

; 388  : 	{
; 389  : 		ShowWnd();

  00058	8b ce		 mov	 ecx, esi
  0005a	ff 15 00 00 00
	00		 call	 DWORD PTR __imp_?ShowWnd@ioWnd@@QAEXXZ
$LN1@SetRank:

; 394  : 	}
; 395  : 
; 396  : 	m_iAlphaRate = MAX_ALPHA_RATE;

  00060	c7 86 0c 02 00
	00 ff 00 00 00	 mov	 DWORD PTR [esi+524], 255 ; 000000ffH
$LN4@SetRank:
  0006a	5e		 pop	 esi

; 397  : }

  0006b	5d		 pop	 ebp
  0006c	c2 04 00	 ret	 4
?SetRank@ModeRankWnd@@QAEXH@Z ENDP			; ModeRankWnd::SetRank
_TEXT	ENDS
PUBLIC	__real@3fe8000000000000
PUBLIC	__real@4f800000
PUBLIC	__real@3fd0000000000000
PUBLIC	?ProcessRank@ModeRankWnd@@IAEXXZ		; ModeRankWnd::ProcessRank
EXTRN	?ContributeMyRank@ioPlayStage@@QAEHAAH000@Z:PROC ; ioPlayStage::ContributeMyRank
EXTRN	__imp_?PlaySoundA@ioSoundManager@@QAEKABVioHashString@@HK@Z:PROC
EXTRN	__imp_?IsEmpty@ioHashString@@QBE_NXZ:PROC
;	COMDAT __real@3fe8000000000000
; File d:\lost saga for developer\youtube\tutorial\source\src\lsclient\stdafx.h
CONST	SEGMENT
__real@3fe8000000000000 DQ 03fe8000000000000r	; 0.75
CONST	ENDS
;	COMDAT __real@4f800000
CONST	SEGMENT
__real@4f800000 DD 04f800000r			; 4.29497e+009
CONST	ENDS
;	COMDAT __real@3fd0000000000000
CONST	SEGMENT
__real@3fd0000000000000 DQ 03fd0000000000000r	; 0.25
; Function compile flags: /Ogsp
; File d:\lost saga for developer\youtube\tutorial\source\src\lsclient\gui\moderankwnd.cpp
CONST	ENDS
;	COMDAT ?ProcessRank@ModeRankWnd@@IAEXXZ
_TEXT	SEGMENT
tv500 = -16						; size = 4
tv887 = -12						; size = 4
tv883 = -12						; size = 4
tv879 = -12						; size = 4
tv896 = -8						; size = 4
tv250 = -8						; size = 4
_bRollingEnd$512307 = -1				; size = 1
?ProcessRank@ModeRankWnd@@IAEXXZ PROC			; ModeRankWnd::ProcessRank, COMDAT
; _this$ = ecx

; 400  : {

  00000	55		 push	 ebp
  00001	8b ec		 mov	 ebp, esp
  00003	83 ec 10	 sub	 esp, 16			; 00000010H
  00006	56		 push	 esi
  00007	8b f1		 mov	 esi, ecx

; 401  : 	if( m_eModeType == MT_FOOTBALL )

  00009	83 be fc 01 00
	00 09		 cmp	 DWORD PTR [esi+508], 9
  00010	0f 84 8e 02 00
	00		 je	 $LN1@ProcessRan

; 402  : 		return;
; 403  : 
; 404  : 	if( !m_bRollingEnd )

  00016	80 be 08 02 00
	00 00		 cmp	 BYTE PTR [esi+520], 0
  0001d	53		 push	 ebx
  0001e	8b 1d 00 00 00
	00		 mov	 ebx, DWORD PTR __imp_?GetSingleton@ioFrameTimer@@SAAAV1@XZ
  00024	57		 push	 edi
  00025	0f 85 f6 00 00
	00		 jne	 $LN56@ProcessRan

; 405  : 	{
; 406  : 		bool bRollingEnd = true;

  0002b	c6 45 ff 01	 mov	 BYTE PTR _bRollingEnd$512307[ebp], 1
  0002f	8d be 18 02 00
	00		 lea	 edi, DWORD PTR [esi+536]
  00035	c7 45 f8 04 00
	00 00		 mov	 DWORD PTR tv250[ebp], 4
$LL34@ProcessRan:

; 408  : 		{
; 409  : 			if( m_RankData[i].m_iRank == -1 ) continue;

  0003c	83 7f f8 ff	 cmp	 DWORD PTR [edi-8], -1
  00040	0f 84 82 00 00
	00		 je	 $LN33@ProcessRan

; 410  : 			if( m_RankData[i].m_dwRollingTime == 0 ) continue;

  00046	83 3f 00	 cmp	 DWORD PTR [edi], 0
  00049	74 7d		 je	 SHORT $LN33@ProcessRan

; 411  : 
; 412  : 			if( FRAMEGETTIME() - m_dwCurTime >  m_RankData[i].m_dwRollingTime )

  0004b	ff d3		 call	 ebx
  0004d	8b c8		 mov	 ecx, eax
  0004f	ff 15 00 00 00
	00		 call	 DWORD PTR __imp_?GetLoopSec@ioFrameTimer@@QBEKXZ
  00055	2b 86 50 02 00
	00		 sub	 eax, DWORD PTR [esi+592]
  0005b	3b 07		 cmp	 eax, DWORD PTR [edi]
  0005d	76 34		 jbe	 SHORT $LN29@ProcessRan

; 413  : 			{
; 414  : 				m_RankData[i].m_iCurRank = m_RankData[i].m_iRank;

  0005f	8b 47 f8	 mov	 eax, DWORD PTR [edi-8]

; 415  : 				m_RankData[i].m_dwRollingTime = 0;

  00062	83 27 00	 and	 DWORD PTR [edi], 0

; 416  : 
; 417  : 				if( !m_RollingStopSound.IsEmpty() )

  00065	8d 8e e8 01 00
	00		 lea	 ecx, DWORD PTR [esi+488]
  0006b	89 47 fc	 mov	 DWORD PTR [edi-4], eax
  0006e	ff 15 00 00 00
	00		 call	 DWORD PTR __imp_?IsEmpty@ioHashString@@QBE_NXZ
  00074	84 c0		 test	 al, al
  00076	75 50		 jne	 SHORT $LN33@ProcessRan

; 418  : 				{
; 419  : 					g_SoundMgr.PlaySound( m_RollingStopSound );

  00078	6a 04		 push	 4
  0007a	8d 86 e8 01 00
	00		 lea	 eax, DWORD PTR [esi+488]
  00080	6a 00		 push	 0
  00082	50		 push	 eax
  00083	ff 15 00 00 00
	00		 call	 DWORD PTR __imp_?GetSingleton@ioSoundManager@@SAAAV1@XZ
  00089	8b c8		 mov	 ecx, eax
  0008b	ff 15 00 00 00
	00		 call	 DWORD PTR __imp_?PlaySoundA@ioSoundManager@@QAEKABVioHashString@@HK@Z

; 420  : 				}
; 421  : 			}
; 422  : 			else 

  00091	eb 35		 jmp	 SHORT $LN33@ProcessRan
$LN29@ProcessRan:

; 423  : 			{
; 424  : 				bRollingEnd = false;

  00093	c6 45 ff 00	 mov	 BYTE PTR _bRollingEnd$512307[ebp], 0

; 425  : 				if( FRAMEGETTIME() - m_RankData[i].m_dwRankUPTime > 50 )

  00097	ff d3		 call	 ebx
  00099	8b c8		 mov	 ecx, eax
  0009b	ff 15 00 00 00
	00		 call	 DWORD PTR __imp_?GetLoopSec@ioFrameTimer@@QBEKXZ
  000a1	2b 47 04	 sub	 eax, DWORD PTR [edi+4]
  000a4	83 f8 32	 cmp	 eax, 50			; 00000032H
  000a7	76 1f		 jbe	 SHORT $LN33@ProcessRan

; 426  : 				{
; 427  : 					m_RankData[i].m_dwRankUPTime = FRAMEGETTIME();		

  000a9	ff d3		 call	 ebx
  000ab	8b c8		 mov	 ecx, eax
  000ad	ff 15 00 00 00
	00		 call	 DWORD PTR __imp_?GetLoopSec@ioFrameTimer@@QBEKXZ
  000b3	89 47 04	 mov	 DWORD PTR [edi+4], eax

; 428  : 					m_RankData[i].m_iCurRank++;

  000b6	8b 47 fc	 mov	 eax, DWORD PTR [edi-4]
  000b9	40		 inc	 eax
  000ba	89 47 fc	 mov	 DWORD PTR [edi-4], eax

; 429  : 
; 430  : 					if( !COMPARE( m_RankData[i].m_iCurRank, 0, MAX_RANK ) )

  000bd	78 05		 js	 SHORT $LN24@ProcessRan
  000bf	83 f8 04	 cmp	 eax, 4
  000c2	7c 04		 jl	 SHORT $LN33@ProcessRan
$LN24@ProcessRan:

; 431  : 						m_RankData[i].m_iCurRank = S_RANK;					

  000c4	83 67 fc 00	 and	 DWORD PTR [edi-4], 0
$LN33@ProcessRan:

; 407  : 		for(int i = 0;i < MAX_RANK_ELEMENT;i++)

  000c8	83 c7 10	 add	 edi, 16			; 00000010H
  000cb	ff 4d f8	 dec	 DWORD PTR tv250[ebp]
  000ce	0f 85 68 ff ff
	ff		 jne	 $LL34@ProcessRan

; 432  : 				}
; 433  : 			}
; 434  : 		}
; 435  : 
; 436  : 		if( bRollingEnd )

  000d4	80 7d ff 00	 cmp	 BYTE PTR _bRollingEnd$512307[ebp], 0
  000d8	74 3a		 je	 SHORT $LN50@ProcessRan

; 437  : 		{
; 438  : 			m_dwCurTime = FRAMEGETTIME();

  000da	ff d3		 call	 ebx
  000dc	8b c8		 mov	 ecx, eax
  000de	ff 15 00 00 00
	00		 call	 DWORD PTR __imp_?GetLoopSec@ioFrameTimer@@QBEKXZ

; 439  : 			m_bRollingEnd = true;
; 440  : 			if( !m_RollingSound.IsEmpty() )

  000e4	8d be d8 01 00
	00		 lea	 edi, DWORD PTR [esi+472]
  000ea	8b cf		 mov	 ecx, edi
  000ec	89 86 50 02 00
	00		 mov	 DWORD PTR [esi+592], eax
  000f2	c6 86 08 02 00
	00 01		 mov	 BYTE PTR [esi+520], 1
  000f9	ff 15 00 00 00
	00		 call	 DWORD PTR __imp_?IsEmpty@ioHashString@@QBE_NXZ
  000ff	84 c0		 test	 al, al
  00101	75 11		 jne	 SHORT $LN50@ProcessRan

; 441  : 			{
; 442  : 				g_SoundMgr.StopSound( m_RollingSound, 0 );

  00103	6a 00		 push	 0
  00105	57		 push	 edi
  00106	ff 15 00 00 00
	00		 call	 DWORD PTR __imp_?GetSingleton@ioSoundManager@@SAAAV1@XZ
  0010c	8b c8		 mov	 ecx, eax
  0010e	ff 15 00 00 00
	00		 call	 DWORD PTR __imp_?StopSound@ioSoundManager@@QAEXABVioHashString@@K@Z
$LN50@ProcessRan:

; 443  : 			}
; 444  : 		}
; 445  : 	}	
; 446  : 
; 447  : 	if( m_bRollingEnd )

  00114	80 be 08 02 00
	00 00		 cmp	 BYTE PTR [esi+520], 0
  0011b	0f 84 81 01 00
	00		 je	 $LN51@ProcessRan
$LN56@ProcessRan:

; 448  : 	{
; 449  : 		if( FRAMEGETTIME() - m_dwCurTime > 1000 )

  00121	ff d3		 call	 ebx
  00123	8b c8		 mov	 ecx, eax
  00125	ff 15 00 00 00
	00		 call	 DWORD PTR __imp_?GetLoopSec@ioFrameTimer@@QBEKXZ
  0012b	2b 86 50 02 00
	00		 sub	 eax, DWORD PTR [esi+592]
  00131	3d e8 03 00 00	 cmp	 eax, 1000		; 000003e8H
  00136	0f 86 66 01 00
	00		 jbe	 $LN51@ProcessRan

; 450  : 		{
; 451  : 			m_dwCurTime = FRAMEGETTIME();

  0013c	ff d3		 call	 ebx
  0013e	8b c8		 mov	 ecx, eax
  00140	ff 15 00 00 00
	00		 call	 DWORD PTR __imp_?GetLoopSec@ioFrameTimer@@QBEKXZ

; 452  : 
; 453  : 			int iMaxPlayer = m_pPlayStage->ContributeMyRank( m_RankData[0].m_iRank,
; 454  : 															 m_RankData[1].m_iRank,
; 455  : 															 m_RankData[2].m_iRank,
; 456  : 															 m_RankData[3].m_iRank );

  00146	8b 8e f8 01 00
	00		 mov	 ecx, DWORD PTR [esi+504]
  0014c	89 86 50 02 00
	00		 mov	 DWORD PTR [esi+592], eax
  00152	8d 86 40 02 00
	00		 lea	 eax, DWORD PTR [esi+576]
  00158	50		 push	 eax
  00159	8d 86 30 02 00
	00		 lea	 eax, DWORD PTR [esi+560]
  0015f	50		 push	 eax
  00160	8d 86 20 02 00
	00		 lea	 eax, DWORD PTR [esi+544]
  00166	50		 push	 eax
  00167	8d be 10 02 00
	00		 lea	 edi, DWORD PTR [esi+528]
  0016d	57		 push	 edi
  0016e	e8 00 00 00 00	 call	 ?ContributeMyRank@ioPlayStage@@QAEHAAH000@Z ; ioPlayStage::ContributeMyRank

; 457  : 
; 458  : 			if( Help::IsMonsterDungeonMode(m_eModeType) )

  00173	ff b6 fc 01 00
	00		 push	 DWORD PTR [esi+508]
  00179	8b d8		 mov	 ebx, eax
  0017b	e8 00 00 00 00	 call	 ?IsMonsterDungeonMode@Help@@YA_NW4ModeType@@@Z ; Help::IsMonsterDungeonMode
  00180	59		 pop	 ecx

; 459  : 			{
; 460  : 				for(int i = 0;i < MAX_RANK_ELEMENT;i++)

  00181	6a 04		 push	 4
  00183	84 c0		 test	 al, al
  00185	74 2a		 je	 SHORT $LN19@ProcessRan
  00187	8b c7		 mov	 eax, edi
  00189	5a		 pop	 edx
$LL18@ProcessRan:

; 461  : 				{
; 462  : 					if( m_RankData[i].m_iRank == -1 )

  0018a	8b 08		 mov	 ecx, DWORD PTR [eax]
  0018c	83 f9 ff	 cmp	 ecx, -1
  0018f	74 15		 je	 SHORT $LN17@ProcessRan

; 463  : 						continue;
; 464  : 
; 465  : 					if( m_RankData[i].m_iCurRank != m_RankData[i].m_iRank )

  00191	39 48 04	 cmp	 DWORD PTR [eax+4], ecx
  00194	74 10		 je	 SHORT $LN17@ProcessRan

; 466  : 					{					
; 467  : 						m_bRollingEnd = false;
; 468  : 						m_RankData[i].m_dwRollingTime = m_dwGapTime;					

  00196	8b 8e 60 02 00
	00		 mov	 ecx, DWORD PTR [esi+608]
  0019c	c6 86 08 02 00
	00 00		 mov	 BYTE PTR [esi+520], 0
  001a3	89 48 08	 mov	 DWORD PTR [eax+8], ecx
$LN17@ProcessRan:

; 459  : 			{
; 460  : 				for(int i = 0;i < MAX_RANK_ELEMENT;i++)

  001a6	83 c0 10	 add	 eax, 16			; 00000010H
  001a9	4a		 dec	 edx
  001aa	75 de		 jne	 SHORT $LL18@ProcessRan

; 469  : 					}
; 470  : 				}
; 471  : 			}
; 472  : 			else

  001ac	e9 cf 00 00 00	 jmp	 $LN10@ProcessRan
$LN19@ProcessRan:

; 473  : 			{
; 474  : 				for(int i = 0;i < MAX_RANK_ELEMENT;i++)

  001b1	8b cf		 mov	 ecx, edi
  001b3	5f		 pop	 edi
$LL12@ProcessRan:

; 475  : 				{
; 476  : 					if( m_RankData[i].m_iRank == -1 )

  001b4	8b 01		 mov	 eax, DWORD PTR [ecx]
  001b6	83 f8 ff	 cmp	 eax, -1
  001b9	0f 84 b7 00 00
	00		 je	 $LN11@ProcessRan

; 477  : 						continue;
; 478  : 
; 479  : 					if( (float)m_RankData[i].m_iRank < (float)iMaxPlayer * 0.25f )

  001bf	0f 57 c0	 xorps	 xmm0, xmm0
  001c2	f3 0f 2a c3	 cvtsi2ss xmm0, ebx
  001c6	0f 57 c9	 xorps	 xmm1, xmm1
  001c9	f3 0f 2a c8	 cvtsi2ss xmm1, eax
  001cd	0f 5a d0	 cvtps2pd xmm2, xmm0
  001d0	f2 0f 59 15 00
	00 00 00	 mulsd	 xmm2, QWORD PTR __real@3fd0000000000000
  001d8	0f 5a c9	 cvtps2pd xmm1, xmm1
  001db	66 0f 2f d1	 comisd	 xmm2, xmm1
  001df	f3 0f 11 45 f0	 movss	 DWORD PTR tv500[ebp], xmm0
  001e4	76 05		 jbe	 SHORT $LN8@ProcessRan

; 480  : 						m_RankData[i].m_iRank = S_RANK;

  001e6	83 21 00	 and	 DWORD PTR [ecx], 0
  001e9	eb 74		 jmp	 SHORT $LN3@ProcessRan
$LN8@ProcessRan:

; 481  : 					else if( (float)m_RankData[i].m_iRank < (float)iMaxPlayer * FLOAT05 )

  001eb	b8 05 00 00 00	 mov	 eax, 5
  001f0	8b d0		 mov	 edx, eax
  001f2	b8 0a 00 00 00	 mov	 eax, 10			; 0000000aH
  001f7	db 01		 fild	 DWORD PTR [ecx]
  001f9	89 55 f4	 mov	 DWORD PTR tv887[ebp], edx
  001fc	d9 5d f8	 fstp	 DWORD PTR tv896[ebp]
  001ff	d9 45 f8	 fld	 DWORD PTR tv896[ebp]
  00202	db 45 f4	 fild	 DWORD PTR tv887[ebp]
  00205	85 d2		 test	 edx, edx
  00207	79 06		 jns	 SHORT $LN53@ProcessRan
  00209	d8 05 00 00 00
	00		 fadd	 DWORD PTR __real@4f800000
$LN53@ProcessRan:
  0020f	89 45 f4	 mov	 DWORD PTR tv883[ebp], eax
  00212	db 45 f4	 fild	 DWORD PTR tv883[ebp]
  00215	85 c0		 test	 eax, eax
  00217	79 06		 jns	 SHORT $LN54@ProcessRan
  00219	d8 05 00 00 00
	00		 fadd	 DWORD PTR __real@4f800000
$LN54@ProcessRan:
  0021f	de f9		 fdivp	 ST(1), ST(0)
  00221	d9 5d f4	 fstp	 DWORD PTR tv879[ebp]
  00224	d9 45 f4	 fld	 DWORD PTR tv879[ebp]
  00227	d8 4d f0	 fmul	 DWORD PTR tv500[ebp]
  0022a	df f1		 fcomip	 ST(1)
  0022c	dd d8		 fstp	 ST(0)
  0022e	76 08		 jbe	 SHORT $LN6@ProcessRan

; 482  : 						m_RankData[i].m_iRank = A_RANK;

  00230	c7 01 01 00 00
	00		 mov	 DWORD PTR [ecx], 1
  00236	eb 27		 jmp	 SHORT $LN3@ProcessRan
$LN6@ProcessRan:

; 483  : 					else if( (float)m_RankData[i].m_iRank < (float)iMaxPlayer * 0.75f )

  00238	f3 0f 10 4d f8	 movss	 xmm1, DWORD PTR tv896[ebp]
  0023d	0f 5a c0	 cvtps2pd xmm0, xmm0
  00240	f2 0f 59 05 00
	00 00 00	 mulsd	 xmm0, QWORD PTR __real@3fe8000000000000
  00248	0f 5a c9	 cvtps2pd xmm1, xmm1
  0024b	66 0f 2f c1	 comisd	 xmm0, xmm1
  0024f	76 08		 jbe	 SHORT $LN4@ProcessRan

; 484  : 						m_RankData[i].m_iRank = B_RANK;

  00251	c7 01 02 00 00
	00		 mov	 DWORD PTR [ecx], 2

; 485  : 					else 

  00257	eb 06		 jmp	 SHORT $LN3@ProcessRan
$LN4@ProcessRan:

; 486  : 						m_RankData[i].m_iRank = C_RANK;

  00259	c7 01 03 00 00
	00		 mov	 DWORD PTR [ecx], 3
$LN3@ProcessRan:

; 487  : 
; 488  : 					if( m_RankData[i].m_iCurRank != m_RankData[i].m_iRank )

  0025f	8b 41 04	 mov	 eax, DWORD PTR [ecx+4]
  00262	3b 01		 cmp	 eax, DWORD PTR [ecx]
  00264	74 10		 je	 SHORT $LN11@ProcessRan

; 489  : 					{					
; 490  : 						m_bRollingEnd = false;
; 491  : 						m_RankData[i].m_dwRollingTime = m_dwGapTime;					

  00266	8b 86 60 02 00
	00		 mov	 eax, DWORD PTR [esi+608]
  0026c	c6 86 08 02 00
	00 00		 mov	 BYTE PTR [esi+520], 0
  00273	89 41 08	 mov	 DWORD PTR [ecx+8], eax
$LN11@ProcessRan:

; 473  : 			{
; 474  : 				for(int i = 0;i < MAX_RANK_ELEMENT;i++)

  00276	83 c1 10	 add	 ecx, 16			; 00000010H
  00279	4f		 dec	 edi
  0027a	0f 85 34 ff ff
	ff		 jne	 $LL12@ProcessRan
$LN10@ProcessRan:

; 492  : 					}
; 493  : 				}
; 494  : 			}
; 495  : 
; 496  : 			if( !m_bRollingEnd )

  00280	80 be 08 02 00
	00 00		 cmp	 BYTE PTR [esi+520], 0
  00287	75 19		 jne	 SHORT $LN51@ProcessRan

; 497  : 			{
; 498  : 				g_SoundMgr.PlaySound( m_RollingSound, DSBVOLUME_MAX, PSM_LOOP | PSM_THREAD );

  00289	6a 06		 push	 6
  0028b	6a 00		 push	 0
  0028d	81 c6 d8 01 00
	00		 add	 esi, 472		; 000001d8H
  00293	56		 push	 esi
  00294	ff 15 00 00 00
	00		 call	 DWORD PTR __imp_?GetSingleton@ioSoundManager@@SAAAV1@XZ
  0029a	8b c8		 mov	 ecx, eax
  0029c	ff 15 00 00 00
	00		 call	 DWORD PTR __imp_?PlaySoundA@ioSoundManager@@QAEKABVioHashString@@HK@Z
$LN51@ProcessRan:
  002a2	5f		 pop	 edi
  002a3	5b		 pop	 ebx
$LN1@ProcessRan:
  002a4	5e		 pop	 esi

; 499  : 			}
; 500  : 		}
; 501  : 	}
; 502  : }

  002a5	c9		 leave
  002a6	c3		 ret	 0
?ProcessRank@ModeRankWnd@@IAEXXZ ENDP			; ModeRankWnd::ProcessRank
_TEXT	ENDS
PUBLIC	?DeathTypeProcessShow@ModeRankWnd@@IAEXXZ	; ModeRankWnd::DeathTypeProcessShow
EXTRN	?IsRoundSetEnd@ioPlayStage@@QAE_NXZ:PROC	; ioPlayStage::IsRoundSetEnd
EXTRN	__imp_?IsShow@ioGUIManager@@QAE_NK@Z:PROC
; Function compile flags: /Ogsp
;	COMDAT ?DeathTypeProcessShow@ModeRankWnd@@IAEXXZ
_TEXT	SEGMENT
?DeathTypeProcessShow@ModeRankWnd@@IAEXXZ PROC		; ModeRankWnd::DeathTypeProcessShow, COMDAT
; _this$ = ecx

; 505  : {

  00000	56		 push	 esi
  00001	8b f1		 mov	 esi, ecx

; 506  : 	if( m_iRankType != DEATH_TYPE ) return;

  00003	83 be 04 02 00
	00 01		 cmp	 DWORD PTR [esi+516], 1
  0000a	0f 85 82 00 00
	00		 jne	 $LN4@DeathTypeP

; 507  : 	if( m_dwCurTime == 0 ) return;

  00010	83 be 50 02 00
	00 00		 cmp	 DWORD PTR [esi+592], 0
  00017	74 79		 je	 SHORT $LN4@DeathTypeP

; 508  : 
; 509  : 	if( FRAMEGETTIME() - m_dwCurTime > m_dwShowTime )

  00019	ff 15 00 00 00
	00		 call	 DWORD PTR __imp_?GetSingleton@ioFrameTimer@@SAAAV1@XZ
  0001f	8b c8		 mov	 ecx, eax
  00021	ff 15 00 00 00
	00		 call	 DWORD PTR __imp_?GetLoopSec@ioFrameTimer@@QBEKXZ
  00027	2b 86 50 02 00
	00		 sub	 eax, DWORD PTR [esi+592]
  0002d	3b 86 54 02 00
	00		 cmp	 eax, DWORD PTR [esi+596]
  00033	76 5d		 jbe	 SHORT $LN4@DeathTypeP

; 510  : 	{
; 511  : 		if( m_pPlayStage )

  00035	83 be f8 01 00
	00 00		 cmp	 DWORD PTR [esi+504], 0
  0003c	57		 push	 edi
  0003d	74 55		 je	 SHORT $LN2@DeathTypeP

; 512  : 		{
; 513  : 			if( g_GUIMgr.IsShow( ROUND_RESULT_MAIN_WND ) ||
; 514  : 				g_GUIMgr.IsShow( TOTAL_RESULT_MAIN_WND ) ||
; 515  : 				g_GUIMgr.IsShow( BRIEFING_WND ) ||
; 516  : 				m_pPlayStage->IsRoundSetEnd() )

  0003f	68 8c 13 00 00	 push	 5004			; 0000138cH
  00044	e8 00 00 00 00	 call	 ?GetSingleton@ioSP2GUIManager@@SAAAV1@XZ ; ioSP2GUIManager::GetSingleton
  00049	8b 3d 00 00 00
	00		 mov	 edi, DWORD PTR __imp_?IsShow@ioGUIManager@@QAE_NK@Z
  0004f	8b c8		 mov	 ecx, eax
  00051	ff d7		 call	 edi
  00053	84 c0		 test	 al, al
  00055	75 33		 jne	 SHORT $LN1@DeathTypeP
  00057	68 8f 13 00 00	 push	 5007			; 0000138fH
  0005c	e8 00 00 00 00	 call	 ?GetSingleton@ioSP2GUIManager@@SAAAV1@XZ ; ioSP2GUIManager::GetSingleton
  00061	8b c8		 mov	 ecx, eax
  00063	ff d7		 call	 edi
  00065	84 c0		 test	 al, al
  00067	75 21		 jne	 SHORT $LN1@DeathTypeP
  00069	68 a3 13 00 00	 push	 5027			; 000013a3H
  0006e	e8 00 00 00 00	 call	 ?GetSingleton@ioSP2GUIManager@@SAAAV1@XZ ; ioSP2GUIManager::GetSingleton
  00073	8b c8		 mov	 ecx, eax
  00075	ff d7		 call	 edi
  00077	84 c0		 test	 al, al
  00079	75 0f		 jne	 SHORT $LN1@DeathTypeP
  0007b	8b 8e f8 01 00
	00		 mov	 ecx, DWORD PTR [esi+504]
  00081	e8 00 00 00 00	 call	 ?IsRoundSetEnd@ioPlayStage@@QAE_NXZ ; ioPlayStage::IsRoundSetEnd
  00086	84 c0		 test	 al, al
  00088	74 0a		 je	 SHORT $LN2@DeathTypeP
$LN1@DeathTypeP:

; 517  : 			{
; 518  : 				m_dwCurTime = 0;

  0008a	83 a6 50 02 00
	00 00		 and	 DWORD PTR [esi+592], 0
  00091	5f		 pop	 edi
$LN4@DeathTypeP:
  00092	5e		 pop	 esi

; 524  : 	}
; 525  : }

  00093	c3		 ret	 0
$LN2@DeathTypeP:
  00094	5f		 pop	 edi

; 519  : 				return;
; 520  : 			}
; 521  : 		}
; 522  : 
; 523  : 		ShowWnd();

  00095	8b ce		 mov	 ecx, esi
  00097	5e		 pop	 esi
  00098	ff 25 00 00 00
	00		 jmp	 DWORD PTR __imp_?ShowWnd@ioWnd@@QAEXXZ
?DeathTypeProcessShow@ModeRankWnd@@IAEXXZ ENDP		; ModeRankWnd::DeathTypeProcessShow
_TEXT	ENDS
PUBLIC	?TabTypeProcessHide@ModeRankWnd@@IAEXXZ		; ModeRankWnd::TabTypeProcessHide
EXTRN	__imp_?HideWnd@ioWnd@@QAEXXZ:PROC
; Function compile flags: /Ogsp
;	COMDAT ?TabTypeProcessHide@ModeRankWnd@@IAEXXZ
_TEXT	SEGMENT
?TabTypeProcessHide@ModeRankWnd@@IAEXXZ PROC		; ModeRankWnd::TabTypeProcessHide, COMDAT
; _this$ = ecx

; 528  : {

  00000	57		 push	 edi
  00001	8b f9		 mov	 edi, ecx

; 529  : 	if( m_iRankType != TABKEY_TYPE ) return;

  00003	83 bf 04 02 00
	00 03		 cmp	 DWORD PTR [edi+516], 3
  0000a	75 31		 jne	 SHORT $LN1@TabTypePro

; 530  : 	if( m_dwCurHideTime == 0 ) return;

  0000c	83 bf 64 02 00
	00 00		 cmp	 DWORD PTR [edi+612], 0
  00013	56		 push	 esi
  00014	74 26		 je	 SHORT $LN6@TabTypePro

; 531  : 
; 532  : 	if( FRAMEGETTIME() - m_dwCurHideTime > m_dwHideTime )

  00016	ff 15 00 00 00
	00		 call	 DWORD PTR __imp_?GetSingleton@ioFrameTimer@@SAAAV1@XZ
  0001c	8b c8		 mov	 ecx, eax
  0001e	ff 15 00 00 00
	00		 call	 DWORD PTR __imp_?GetLoopSec@ioFrameTimer@@QBEKXZ
  00024	2b 87 64 02 00
	00		 sub	 eax, DWORD PTR [edi+612]
  0002a	3b 87 58 02 00
	00		 cmp	 eax, DWORD PTR [edi+600]
  00030	76 0a		 jbe	 SHORT $LN6@TabTypePro

; 533  : 	{	
; 534  : 		HideWnd();

  00032	5e		 pop	 esi
  00033	8b cf		 mov	 ecx, edi
  00035	5f		 pop	 edi
  00036	ff 25 00 00 00
	00		 jmp	 DWORD PTR __imp_?HideWnd@ioWnd@@QAEXXZ
$LN6@TabTypePro:
  0003c	5e		 pop	 esi
$LN1@TabTypePro:
  0003d	5f		 pop	 edi

; 535  : 	}
; 536  : }

  0003e	c3		 ret	 0
?TabTypeProcessHide@ModeRankWnd@@IAEXXZ ENDP		; ModeRankWnd::TabTypeProcessHide
_TEXT	ENDS
PUBLIC	?OnProcess@ModeRankWnd@@MAEXM@Z			; ModeRankWnd::OnProcess
EXTRN	__imp_?OnProcess@ioWnd@@MAEXM@Z:PROC
EXTRN	__imp_?IsShow@ioWnd@@QBE_NXZ:PROC
; Function compile flags: /Ogsp
;	COMDAT ?OnProcess@ModeRankWnd@@MAEXM@Z
_TEXT	SEGMENT
_fTimePerSec$ = 8					; size = 4
?OnProcess@ModeRankWnd@@MAEXM@Z PROC			; ModeRankWnd::OnProcess, COMDAT
; _this$ = ecx

; 539  : {

  00000	55		 push	 ebp
  00001	8b ec		 mov	 ebp, esp
  00003	56		 push	 esi
  00004	8b f1		 mov	 esi, ecx

; 540  : 	if( !IsShow() )

  00006	ff 15 00 00 00
	00		 call	 DWORD PTR __imp_?IsShow@ioWnd@@QBE_NXZ
  0000c	84 c0		 test	 al, al
  0000e	75 09		 jne	 SHORT $LN3@OnProcess

; 541  : 	{
; 542  : 		DeathTypeProcessShow();

  00010	8b ce		 mov	 ecx, esi
  00012	e8 00 00 00 00	 call	 ?DeathTypeProcessShow@ModeRankWnd@@IAEXXZ ; ModeRankWnd::DeathTypeProcessShow

; 543  : 		return;

  00017	eb 31		 jmp	 SHORT $LN4@OnProcess
$LN3@OnProcess:

; 544  : 	}
; 545  : 
; 546  : 	if( m_iRankType == DEATH_TYPE || m_iRankType == TABKEY_TYPE )

  00019	8b 86 04 02 00
	00		 mov	 eax, DWORD PTR [esi+516]
  0001f	83 f8 01	 cmp	 eax, 1
  00022	74 05		 je	 SHORT $LN1@OnProcess
  00024	83 f8 03	 cmp	 eax, 3
  00027	75 13		 jne	 SHORT $LN2@OnProcess
$LN1@OnProcess:

; 547  : 	{
; 548  : 		ioMovingWnd::OnProcess( fTimePerSec );

  00029	f3 0f 10 45 08	 movss	 xmm0, DWORD PTR _fTimePerSec$[ebp]
  0002e	51		 push	 ecx
  0002f	8b ce		 mov	 ecx, esi
  00031	f3 0f 11 04 24	 movss	 DWORD PTR [esp], xmm0
  00036	ff 15 00 00 00
	00		 call	 DWORD PTR __imp_?OnProcess@ioWnd@@MAEXM@Z
$LN2@OnProcess:

; 549  : 	}
; 550  : 
; 551  : 	ProcessRank();

  0003c	8b ce		 mov	 ecx, esi
  0003e	e8 00 00 00 00	 call	 ?ProcessRank@ModeRankWnd@@IAEXXZ ; ModeRankWnd::ProcessRank

; 552  : 	TabTypeProcessHide();

  00043	8b ce		 mov	 ecx, esi
  00045	e8 00 00 00 00	 call	 ?TabTypeProcessHide@ModeRankWnd@@IAEXXZ ; ModeRankWnd::TabTypeProcessHide
$LN4@OnProcess:
  0004a	5e		 pop	 esi

; 553  : }

  0004b	5d		 pop	 ebp
  0004c	c2 04 00	 ret	 4
?OnProcess@ModeRankWnd@@MAEXM@Z ENDP			; ModeRankWnd::OnProcess
_TEXT	ENDS
PUBLIC	?RenderRank@ModeRankWnd@@IAEXPAVioUIRenderImage@@000@Z ; ModeRankWnd::RenderRank
EXTRN	__imp_?GetDerivedPosY@ioWnd@@QBEHXZ:PROC
EXTRN	__imp_?GetDerivedPosX@ioWnd@@QBEHXZ:PROC
; Function compile flags: /Ogsp
;	COMDAT ?RenderRank@ModeRankWnd@@IAEXPAVioUIRenderImage@@000@Z
_TEXT	SEGMENT
_iYPos$ = -4						; size = 4
tv246 = 8						; size = 4
_pRankValue1$ = 8					; size = 4
_pRankValue2$ = 12					; size = 4
tv413 = 16						; size = 4
_pRankValue3$ = 16					; size = 4
tv401 = 20						; size = 4
_pRankValue4$ = 20					; size = 4
?RenderRank@ModeRankWnd@@IAEXPAVioUIRenderImage@@000@Z PROC ; ModeRankWnd::RenderRank, COMDAT
; _this$ = ecx

; 624  : {

  00000	55		 push	 ebp
  00001	8b ec		 mov	 ebp, esp
  00003	51		 push	 ecx
  00004	53		 push	 ebx
  00005	56		 push	 esi
  00006	57		 push	 edi
  00007	8b f1		 mov	 esi, ecx

; 625  : 	int iXPos = GetDerivedPosX();

  00009	ff 15 00 00 00
	00		 call	 DWORD PTR __imp_?GetDerivedPosX@ioWnd@@QBEHXZ

; 626  : 	int iYPos = GetDerivedPosY();

  0000f	8b ce		 mov	 ecx, esi
  00011	8b d8		 mov	 ebx, eax
  00013	ff 15 00 00 00
	00		 call	 DWORD PTR __imp_?GetDerivedPosY@ioWnd@@QBEHXZ

; 627  : 
; 628  : 	if( !pRankValue3 )

  00019	33 ff		 xor	 edi, edi
  0001b	89 45 fc	 mov	 DWORD PTR _iYPos$[ebp], eax
  0001e	39 7d 10	 cmp	 DWORD PTR _pRankValue3$[ebp], edi
  00021	75 03		 jne	 SHORT $LN10@RenderRank

; 629  : 		iXPos += 35;

  00023	83 c3 23	 add	 ebx, 35			; 00000023H
$LN10@RenderRank:

; 630  : 	if( !pRankValue4 )

  00026	39 7d 14	 cmp	 DWORD PTR _pRankValue4$[ebp], edi
  00029	75 03		 jne	 SHORT $LN9@RenderRank

; 631  : 		iXPos += 35;	

  0002b	83 c3 23	 add	 ebx, 35			; 00000023H
$LN9@RenderRank:

; 632  : 
; 633  : 	if( pRankValue1 )

  0002e	8b 4d 08	 mov	 ecx, DWORD PTR _pRankValue1$[ebp]
  00031	3b cf		 cmp	 ecx, edi
  00033	74 34		 je	 SHORT $LN8@RenderRank

; 634  : 	{
; 635  : 		pRankValue1->SetAlpha( (BYTE)m_iAlphaRate );

  00035	0f b6 96 0c 02
	00 00		 movzx	 edx, BYTE PTR [esi+524]
  0003c	8b 01		 mov	 eax, DWORD PTR [ecx]
  0003e	52		 push	 edx
  0003f	ff 50 30	 call	 DWORD PTR [eax+48]

; 636  : 		pRankValue1->Render( iXPos, iYPos );

  00042	8b 4d 08	 mov	 ecx, DWORD PTR _pRankValue1$[ebp]
  00045	66 0f 6e 45 fc	 movd	 xmm0, DWORD PTR _iYPos$[ebp]
  0004a	8b 01		 mov	 eax, DWORD PTR [ecx]
  0004c	57		 push	 edi
  0004d	57		 push	 edi
  0004e	57		 push	 edi
  0004f	57		 push	 edi
  00050	51		 push	 ecx
  00051	0f 5b c0	 cvtdq2ps xmm0, xmm0
  00054	51		 push	 ecx
  00055	f3 0f 11 44 24
	04		 movss	 DWORD PTR [esp+4], xmm0
  0005b	0f 57 c0	 xorps	 xmm0, xmm0
  0005e	f3 0f 2a c3	 cvtsi2ss xmm0, ebx
  00062	f3 0f 11 04 24	 movss	 DWORD PTR [esp], xmm0
  00067	ff 10		 call	 DWORD PTR [eax]
$LN8@RenderRank:

; 637  : 	}
; 638  : 
; 639  : 	if( pRankValue2 )

  00069	8b 4d 0c	 mov	 ecx, DWORD PTR _pRankValue2$[ebp]
  0006c	3b cf		 cmp	 ecx, edi
  0006e	74 37		 je	 SHORT $LN7@RenderRank

; 640  : 	{
; 641  : 		pRankValue2->SetAlpha( (BYTE)m_iAlphaRate );

  00070	0f b6 96 0c 02
	00 00		 movzx	 edx, BYTE PTR [esi+524]
  00077	8b 01		 mov	 eax, DWORD PTR [ecx]
  00079	52		 push	 edx
  0007a	ff 50 30	 call	 DWORD PTR [eax+48]

; 642  : 		pRankValue2->Render( iXPos + 71, iYPos );

  0007d	8b 4d 0c	 mov	 ecx, DWORD PTR _pRankValue2$[ebp]
  00080	66 0f 6e 45 fc	 movd	 xmm0, DWORD PTR _iYPos$[ebp]
  00085	8b 01		 mov	 eax, DWORD PTR [ecx]
  00087	57		 push	 edi
  00088	57		 push	 edi
  00089	57		 push	 edi
  0008a	57		 push	 edi
  0008b	51		 push	 ecx
  0008c	0f 5b c0	 cvtdq2ps xmm0, xmm0
  0008f	51		 push	 ecx
  00090	f3 0f 11 44 24
	04		 movss	 DWORD PTR [esp+4], xmm0
  00096	8d 53 47	 lea	 edx, DWORD PTR [ebx+71]
  00099	0f 57 c0	 xorps	 xmm0, xmm0
  0009c	f3 0f 2a c2	 cvtsi2ss xmm0, edx
  000a0	f3 0f 11 04 24	 movss	 DWORD PTR [esp], xmm0
  000a5	ff 10		 call	 DWORD PTR [eax]
$LN7@RenderRank:

; 643  : 	}
; 644  : 
; 645  : 	if( pRankValue3 )

  000a7	8b 4d 10	 mov	 ecx, DWORD PTR _pRankValue3$[ebp]
  000aa	3b cf		 cmp	 ecx, edi
  000ac	74 3a		 je	 SHORT $LN6@RenderRank

; 646  : 	{
; 647  : 		pRankValue3->SetAlpha( (BYTE)m_iAlphaRate );

  000ae	0f b6 96 0c 02
	00 00		 movzx	 edx, BYTE PTR [esi+524]
  000b5	8b 01		 mov	 eax, DWORD PTR [ecx]
  000b7	52		 push	 edx
  000b8	ff 50 30	 call	 DWORD PTR [eax+48]

; 648  : 		pRankValue3->Render( iXPos + 142, iYPos );

  000bb	8b 4d 10	 mov	 ecx, DWORD PTR _pRankValue3$[ebp]
  000be	66 0f 6e 45 fc	 movd	 xmm0, DWORD PTR _iYPos$[ebp]
  000c3	8b 01		 mov	 eax, DWORD PTR [ecx]
  000c5	57		 push	 edi
  000c6	57		 push	 edi
  000c7	57		 push	 edi
  000c8	57		 push	 edi
  000c9	51		 push	 ecx
  000ca	0f 5b c0	 cvtdq2ps xmm0, xmm0
  000cd	51		 push	 ecx
  000ce	f3 0f 11 44 24
	04		 movss	 DWORD PTR [esp+4], xmm0
  000d4	8d 93 8e 00 00
	00		 lea	 edx, DWORD PTR [ebx+142]
  000da	0f 57 c0	 xorps	 xmm0, xmm0
  000dd	f3 0f 2a c2	 cvtsi2ss xmm0, edx
  000e1	f3 0f 11 04 24	 movss	 DWORD PTR [esp], xmm0
  000e6	ff 10		 call	 DWORD PTR [eax]
$LN6@RenderRank:

; 649  : 	}
; 650  : 
; 651  : 	if( pRankValue4 )

  000e8	8b 4d 14	 mov	 ecx, DWORD PTR _pRankValue4$[ebp]
  000eb	3b cf		 cmp	 ecx, edi
  000ed	74 3a		 je	 SHORT $LN5@RenderRank

; 652  : 	{
; 653  : 		pRankValue4->SetAlpha( (BYTE)m_iAlphaRate );

  000ef	0f b6 96 0c 02
	00 00		 movzx	 edx, BYTE PTR [esi+524]
  000f6	8b 01		 mov	 eax, DWORD PTR [ecx]
  000f8	52		 push	 edx
  000f9	ff 50 30	 call	 DWORD PTR [eax+48]

; 654  : 		pRankValue4->Render( iXPos + 213, iYPos );

  000fc	8b 4d 14	 mov	 ecx, DWORD PTR _pRankValue4$[ebp]
  000ff	66 0f 6e 45 fc	 movd	 xmm0, DWORD PTR _iYPos$[ebp]
  00104	8b 01		 mov	 eax, DWORD PTR [ecx]
  00106	57		 push	 edi
  00107	57		 push	 edi
  00108	57		 push	 edi
  00109	57		 push	 edi
  0010a	51		 push	 ecx
  0010b	0f 5b c0	 cvtdq2ps xmm0, xmm0
  0010e	51		 push	 ecx
  0010f	f3 0f 11 44 24
	04		 movss	 DWORD PTR [esp+4], xmm0
  00115	8d 93 d5 00 00
	00		 lea	 edx, DWORD PTR [ebx+213]
  0011b	0f 57 c0	 xorps	 xmm0, xmm0
  0011e	f3 0f 2a c2	 cvtsi2ss xmm0, edx
  00122	f3 0f 11 04 24	 movss	 DWORD PTR [esp], xmm0
  00127	ff 10		 call	 DWORD PTR [eax]
$LN5@RenderRank:

; 655  : 	}
; 656  : 
; 657  : 	for(int i = 0;i < MAX_RANK_ELEMENT;i++)

  00129	8d 86 14 02 00
	00		 lea	 eax, DWORD PTR [esi+532]
  0012f	89 5d 14	 mov	 DWORD PTR tv401[ebp], ebx
  00132	89 45 10	 mov	 DWORD PTR tv413[ebp], eax
  00135	c7 45 08 04 00
	00 00		 mov	 DWORD PTR tv246[ebp], 4
$LL4@RenderRank:

; 658  : 	{
; 659  : 		int iCurRank = m_RankData[i].m_iCurRank;

  0013c	8b 45 10	 mov	 eax, DWORD PTR tv413[ebp]
  0013f	8b 00		 mov	 eax, DWORD PTR [eax]

; 660  : 
; 661  : 		if( COMPARE( iCurRank, 0, MAX_RANK ) && m_pRank[iCurRank] )

  00141	83 f8 03	 cmp	 eax, 3
  00144	77 43		 ja	 SHORT $LN3@RenderRank
  00146	8d 9c 86 c8 01
	00 00		 lea	 ebx, DWORD PTR [esi+eax*4+456]
  0014d	39 3b		 cmp	 DWORD PTR [ebx], edi
  0014f	74 38		 je	 SHORT $LN3@RenderRank

; 662  : 		{
; 663  : 			m_pRank[iCurRank]->SetAlpha( (BYTE)m_iAlphaRate );

  00151	0f b6 96 0c 02
	00 00		 movzx	 edx, BYTE PTR [esi+524]
  00158	8b 0b		 mov	 ecx, DWORD PTR [ebx]
  0015a	8b 01		 mov	 eax, DWORD PTR [ecx]
  0015c	52		 push	 edx
  0015d	ff 50 30	 call	 DWORD PTR [eax+48]

; 664  : 			m_pRank[iCurRank]->Render( iXPos + (i*71), iYPos );

  00160	66 0f 6e 45 fc	 movd	 xmm0, DWORD PTR _iYPos$[ebp]
  00165	8b 1b		 mov	 ebx, DWORD PTR [ebx]
  00167	8b 03		 mov	 eax, DWORD PTR [ebx]
  00169	57		 push	 edi
  0016a	57		 push	 edi
  0016b	57		 push	 edi
  0016c	57		 push	 edi
  0016d	51		 push	 ecx
  0016e	51		 push	 ecx
  0016f	0f 5b c0	 cvtdq2ps xmm0, xmm0
  00172	f3 0f 11 44 24
	04		 movss	 DWORD PTR [esp+4], xmm0
  00178	66 0f 6e 45 14	 movd	 xmm0, DWORD PTR tv401[ebp]
  0017d	0f 5b c0	 cvtdq2ps xmm0, xmm0
  00180	8b cb		 mov	 ecx, ebx
  00182	f3 0f 11 04 24	 movss	 DWORD PTR [esp], xmm0
  00187	ff 10		 call	 DWORD PTR [eax]
$LN3@RenderRank:

; 655  : 	}
; 656  : 
; 657  : 	for(int i = 0;i < MAX_RANK_ELEMENT;i++)

  00189	83 45 10 10	 add	 DWORD PTR tv413[ebp], 16 ; 00000010H
  0018d	83 45 14 47	 add	 DWORD PTR tv401[ebp], 71 ; 00000047H
  00191	ff 4d 08	 dec	 DWORD PTR tv246[ebp]
  00194	75 a6		 jne	 SHORT $LL4@RenderRank
  00196	5f		 pop	 edi
  00197	5e		 pop	 esi
  00198	5b		 pop	 ebx

; 665  : 		}
; 666  : 	}
; 667  : }

  00199	c9		 leave
  0019a	c2 10 00	 ret	 16			; 00000010H
?RenderRank@ModeRankWnd@@IAEXPAVioUIRenderImage@@000@Z ENDP ; ModeRankWnd::RenderRank
_TEXT	ENDS
PUBLIC	??_H@YGXPAXIHP6EPAX0@Z@Z			; `vector constructor iterator'
; Function compile flags: /Ogsp
;	COMDAT ??_H@YGXPAXIHP6EPAX0@Z@Z
_TEXT	SEGMENT
___t$ = 8						; size = 4
___s$ = 12						; size = 4
___n$ = 16						; size = 4
___f$ = 20						; size = 4
??_H@YGXPAXIHP6EPAX0@Z@Z PROC				; `vector constructor iterator', COMDAT
  00000	55		 push	 ebp
  00001	8b ec		 mov	 ebp, esp
  00003	ff 4d 10	 dec	 DWORD PTR ___n$[ebp]
  00006	78 12		 js	 SHORT $LN1@vector
  00008	56		 push	 esi
  00009	8b 75 08	 mov	 esi, DWORD PTR ___t$[ebp]
$LL2@vector:
  0000c	8b ce		 mov	 ecx, esi
  0000e	ff 55 14	 call	 DWORD PTR ___f$[ebp]
  00011	03 75 0c	 add	 esi, DWORD PTR ___s$[ebp]
  00014	ff 4d 10	 dec	 DWORD PTR ___n$[ebp]
  00017	79 f3		 jns	 SHORT $LL2@vector
  00019	5e		 pop	 esi
$LN1@vector:
  0001a	5d		 pop	 ebp
  0001b	c2 10 00	 ret	 16			; 00000010H
??_H@YGXPAXIHP6EPAX0@Z@Z ENDP				; `vector constructor iterator'
_TEXT	ENDS
PUBLIC	?_DECSTR@@YAXPADH@Z				; _DECSTR
; Function compile flags: /Ogsp
; File d:\lost saga for developer\youtube\tutorial\source\src\lsclient\stringprotect.h
;	COMDAT ?_DECSTR@@YAXPADH@Z
_TEXT	SEGMENT
_s$ = 8							; size = 4
_l$ = 12						; size = 4
?_DECSTR@@YAXPADH@Z PROC				; _DECSTR, COMDAT

; 40   : __forceinline void _DECSTR(char* s, int l){int i=0,l4=(l-1)/4,*p=(int*)s;s[l-1]=0;for(;i<l4;++i)*(p++)^=0xEAEBECED;for(i=l4*4;i<l-1;++i)s[i]^=0xED-i%4;}

  00000	55		 push	 ebp
  00001	8b ec		 mov	 ebp, esp
  00003	8b 4d 0c	 mov	 ecx, DWORD PTR _l$[ebp]
  00006	56		 push	 esi
  00007	8b 75 08	 mov	 esi, DWORD PTR _s$[ebp]
  0000a	57		 push	 edi
  0000b	8d 79 ff	 lea	 edi, DWORD PTR [ecx-1]
  0000e	8b c7		 mov	 eax, edi
  00010	99		 cdq
  00011	83 e2 03	 and	 edx, 3
  00014	03 c2		 add	 eax, edx
  00016	c1 f8 02	 sar	 eax, 2
  00019	8b d6		 mov	 edx, esi
  0001b	c6 44 0e ff 00	 mov	 BYTE PTR [esi+ecx-1], 0
  00020	85 c0		 test	 eax, eax
  00022	7e 0e		 jle	 SHORT $LN4@DECSTR
  00024	8b c8		 mov	 ecx, eax
$LL6@DECSTR:
  00026	81 32 ed ec eb
	ea		 xor	 DWORD PTR [edx], -353637139 ; eaebecedH
  0002c	83 c2 04	 add	 edx, 4
  0002f	49		 dec	 ecx
  00030	75 f4		 jne	 SHORT $LL6@DECSTR
$LN4@DECSTR:
  00032	c1 e0 02	 shl	 eax, 2
  00035	eb 17		 jmp	 SHORT $LN14@DECSTR
$LL3@DECSTR:
  00037	8b c8		 mov	 ecx, eax
  00039	81 e1 03 00 00
	80		 and	 ecx, -2147483645	; 80000003H
  0003f	79 05		 jns	 SHORT $LN13@DECSTR
  00041	49		 dec	 ecx
  00042	83 c9 fc	 or	 ecx, -4			; fffffffcH
  00045	41		 inc	 ecx
$LN13@DECSTR:
  00046	b2 ed		 mov	 dl, -19			; ffffffedH
  00048	2a d1		 sub	 dl, cl
  0004a	30 14 30	 xor	 BYTE PTR [eax+esi], dl
  0004d	40		 inc	 eax
$LN14@DECSTR:
  0004e	3b c7		 cmp	 eax, edi
  00050	7c e5		 jl	 SHORT $LL3@DECSTR
  00052	5f		 pop	 edi
  00053	5e		 pop	 esi
  00054	5d		 pop	 ebp
  00055	c3		 ret	 0
?_DECSTR@@YAXPADH@Z ENDP				; _DECSTR
_TEXT	ENDS
PUBLIC	?GetPublicID@ioMyInfo@@QBEABVioHashString@@XZ	; ioMyInfo::GetPublicID
; Function compile flags: /Ogsp
; File d:\lost saga for developer\youtube\tutorial\source\src\lsclient\iomyinfo.h
;	COMDAT ?GetPublicID@ioMyInfo@@QBEABVioHashString@@XZ
_TEXT	SEGMENT
?GetPublicID@ioMyInfo@@QBEABVioHashString@@XZ PROC	; ioMyInfo::GetPublicID, COMDAT
; _this$ = ecx

; 517  : 	const ioHashString& GetPublicID() const { return m_user_data.m_public_id; }    

  00000	8d 41 1c	 lea	 eax, DWORD PTR [ecx+28]
  00003	c3		 ret	 0
?GetPublicID@ioMyInfo@@QBEABVioHashString@@XZ ENDP	; ioMyInfo::GetPublicID
_TEXT	ENDS
PUBLIC	??_7ModeRankWnd@@6B@				; ModeRankWnd::`vftable'
PUBLIC	??0ModeRankWnd@@QAE@XZ				; ModeRankWnd::ModeRankWnd
PUBLIC	??_R4ModeRankWnd@@6B@				; ModeRankWnd::`RTTI Complete Object Locator'
PUBLIC	??_R0?AVModeRankWnd@@@8				; ModeRankWnd `RTTI Type Descriptor'
PUBLIC	??_R3ModeRankWnd@@8				; ModeRankWnd::`RTTI Class Hierarchy Descriptor'
PUBLIC	??_R2ModeRankWnd@@8				; ModeRankWnd::`RTTI Base Class Array'
PUBLIC	??_R1A@?0A@EA@ModeRankWnd@@8			; ModeRankWnd::`RTTI Base Class Descriptor at (0,-1,0,64)'
PUBLIC	??_R1A@?0A@EA@ioMovingWnd@@8			; ioMovingWnd::`RTTI Base Class Descriptor at (0,-1,0,64)'
PUBLIC	??_R0?AVioMovingWnd@@@8				; ioMovingWnd `RTTI Type Descriptor'
PUBLIC	??_R3ioMovingWnd@@8				; ioMovingWnd::`RTTI Class Hierarchy Descriptor'
PUBLIC	??_R2ioMovingWnd@@8				; ioMovingWnd::`RTTI Base Class Array'
PUBLIC	??_R1A@?0A@EA@ioWnd@@8				; ioWnd::`RTTI Base Class Descriptor at (0,-1,0,64)'
PUBLIC	??_R0?AVioWnd@@@8				; ioWnd `RTTI Type Descriptor'
PUBLIC	??_R3ioWnd@@8					; ioWnd::`RTTI Class Hierarchy Descriptor'
PUBLIC	??_R2ioWnd@@8					; ioWnd::`RTTI Base Class Array'
PUBLIC	?AddRenderImage@ModeRankWnd@@UAEXABVioHashString@@PAVioUIRenderImage@@@Z ; ModeRankWnd::AddRenderImage
PUBLIC	?ParseExtraInfo@ModeRankWnd@@UAEXAAVioXMLElement@@@Z ; ModeRankWnd::ParseExtraInfo
PUBLIC	?SetPositionToDefault@ModeRankWnd@@UAEXHH_N0@Z	; ModeRankWnd::SetPositionToDefault
PUBLIC	?OnRender@ModeRankWnd@@MAEXXZ			; ModeRankWnd::OnRender
PUBLIC	?iwm_show@ModeRankWnd@@UAEXXZ			; ModeRankWnd::iwm_show
EXTRN	__imp_??1ioHashString@@QAE@XZ:PROC
EXTRN	__imp_??1ioMovingWnd@@UAE@XZ:PROC
EXTRN	__imp_??0ioHashString@@QAE@XZ:PROC
EXTRN	__imp_??0ioMovingWnd@@QAE@XZ:PROC
EXTRN	___CxxFrameHandler3:PROC
EXTRN	@__security_check_cookie@4:PROC
EXTRN	__EH_epilog3:PROC
EXTRN	__EH_prolog3:PROC
EXTRN	??_7type_info@@6B@:QWORD			; type_info::`vftable'
EXTRN	?AddRenderFrame@ioWnd@@UAEXABVioHashString@@PAVioUIRenderFrame@@@Z:PROC ; ioWnd::AddRenderFrame
EXTRN	?AddTooltipHelp@ioWnd@@UAEXABVioHashString@@00@Z:PROC ; ioWnd::AddTooltipHelp
EXTRN	?AddNamedRenderImage@ioWnd@@UAEXABVioHashString@@PAVioUIRenderImage@@@Z:PROC ; ioWnd::AddNamedRenderImage
EXTRN	?RemoveNamedRenderImage@ioWnd@@UAEXABVioHashString@@@Z:PROC ; ioWnd::RemoveNamedRenderImage
EXTRN	?GetNamedRenderImage@ioWnd@@UBEPAVioUIRenderImage@@ABVioHashString@@@Z:PROC ; ioWnd::GetNamedRenderImage
EXTRN	?SetWindowAlpha@ioWnd@@UAEXH@Z:PROC		; ioWnd::SetWindowAlpha
EXTRN	?SetActive@ioWnd@@UAEXXZ:PROC			; ioWnd::SetActive
EXTRN	?SetInActive@ioWnd@@UAEXXZ:PROC			; ioWnd::SetInActive
EXTRN	?ClearElementImageList@ioWnd@@UAEXXZ:PROC	; ioWnd::ClearElementImageList
EXTRN	?SetSize@ioWnd@@UAEXHH@Z:PROC			; ioWnd::SetSize
EXTRN	?IsNeedProcess@ioWnd@@UBE_NXZ:PROC		; ioWnd::IsNeedProcess
EXTRN	?IsCanMouseReaction@ioWnd@@UBE_NXZ:PROC		; ioWnd::IsCanMouseReaction
EXTRN	?AddChild@ioWnd@@UAEXPAV1@@Z:PROC		; ioWnd::AddChild
EXTRN	?DeleteChild@ioWnd@@UAEXK@Z:PROC		; ioWnd::DeleteChild
EXTRN	?DeleteAllChild@ioWnd@@UAEXXZ:PROC		; ioWnd::DeleteAllChild
EXTRN	?OnRenderShowAndHide@ioWnd@@MAE_NXZ:PROC	; ioWnd::OnRenderShowAndHide
EXTRN	?OnRenderShowAndHideByDefault@ioWnd@@MAE_NK@Z:PROC ; ioWnd::OnRenderShowAndHideByDefault
EXTRN	?OnRenderShowAndHideByTop@ioWnd@@MAE_NK@Z:PROC	; ioWnd::OnRenderShowAndHideByTop
EXTRN	?OnRenderShowAndHideByDown@ioWnd@@MAE_NK@Z:PROC	; ioWnd::OnRenderShowAndHideByDown
EXTRN	?OnRenderAfterChild@ioWnd@@MAEXXZ:PROC		; ioWnd::OnRenderAfterChild
EXTRN	?OnMouseProcess@ioMovingWnd@@MAEXABVioMouse@@@Z:PROC ; ioMovingWnd::OnMouseProcess
EXTRN	?CheckFrameReSize@ioWnd@@MAEXHHHH@Z:PROC	; ioWnd::CheckFrameReSize
EXTRN	?RenderImageList@ioWnd@@MAEXHHW4UIRenderType@@@Z:PROC ; ioWnd::RenderImageList
EXTRN	?iwm_create@ioWnd@@UAEXXZ:PROC			; ioWnd::iwm_create
EXTRN	?iwm_destroy@ioWnd@@UAEXXZ:PROC			; ioWnd::iwm_destroy
EXTRN	?iwm_lbuttondown@ioMovingWnd@@UAEXABVioMouse@@@Z:PROC ; ioMovingWnd::iwm_lbuttondown
EXTRN	?iwm_lbuttonup@ioMovingWnd@@UAEXABVioMouse@@@Z:PROC ; ioMovingWnd::iwm_lbuttonup
EXTRN	?iwm_lbuttonDBLCLK@ioWnd@@UAEXABVioMouse@@@Z:PROC ; ioWnd::iwm_lbuttonDBLCLK
EXTRN	?iwm_rbuttondown@ioWnd@@UAEXABVioMouse@@@Z:PROC	; ioWnd::iwm_rbuttondown
EXTRN	?iwm_rbuttonup@ioWnd@@UAEXABVioMouse@@@Z:PROC	; ioWnd::iwm_rbuttonup
EXTRN	?iwm_command@ioWnd@@UAEXPAV1@HK@Z:PROC		; ioWnd::iwm_command
EXTRN	?iwm_mouseover@ioWnd@@UAEXABVioMouse@@@Z:PROC	; ioWnd::iwm_mouseover
EXTRN	?iwm_mousemove@ioWnd@@UAEXABVioMouse@@@Z:PROC	; ioWnd::iwm_mousemove
EXTRN	?iwm_mouseleave@ioWnd@@UAEXABVioMouse@@@Z:PROC	; ioWnd::iwm_mouseleave
EXTRN	?iwm_vscroll@ioWnd@@UAEXKH@Z:PROC		; ioWnd::iwm_vscroll
EXTRN	?iwm_wheel@ioWnd@@UAEXH@Z:PROC			; ioWnd::iwm_wheel
EXTRN	?iwm_esc@ioWnd@@UAE_NXZ:PROC			; ioWnd::iwm_esc
EXTRN	?iwm_spacebar@ioWnd@@UAE_NXZ:PROC		; ioWnd::iwm_spacebar
EXTRN	?iwm_gototop@ioWnd@@UAEXXZ:PROC			; ioWnd::iwm_gototop
EXTRN	?iwm_dragenter@ioWnd@@UAE?AW4IWDropEffect@@PAVioDragItem@@ABVioMouse@@@Z:PROC ; ioWnd::iwm_dragenter
EXTRN	?iwm_dragover@ioWnd@@UAE?AW4IWDropEffect@@PAVioDragItem@@ABVioMouse@@@Z:PROC ; ioWnd::iwm_dragover
EXTRN	?iwm_dragleave@ioWnd@@UAEXXZ:PROC		; ioWnd::iwm_dragleave
EXTRN	?iwm_dropitem@ioWnd@@UAE_NPAVioDragItem@@ABVioMouse@@PAV1@@Z:PROC ; ioWnd::iwm_dropitem
EXTRN	?iwm_dropdone@ioWnd@@UAEXPAVioDragItem@@PAV1@_N@Z:PROC ; ioWnd::iwm_dropdone
EXTRN	?IsEXType@ioWnd@@UBE_NXZ:PROC			; ioWnd::IsEXType
EXTRN	?GetWndType@ioWnd@@UBEKXZ:PROC			; ioWnd::GetWndType
EXTRN	?RenderWnd@ioWnd@@UAEXXZ:PROC			; ioWnd::RenderWnd
EXTRN	?SetIDEX@ioWnd@@UAEXAAK_N@Z:PROC		; ioWnd::SetIDEX
EXTRN	?ParseXML@ioWnd@@UAEXAAVioXMLElement@@@Z:PROC	; ioWnd::ParseXML
EXTRN	?GetHeaderFileName@ioWnd@@UAEPBDXZ:PROC		; ioWnd::GetHeaderFileName
EXTRN	?GetTemplateName@ioWnd@@UAEPBDXZ:PROC		; ioWnd::GetTemplateName
EXTRN	?GetDefClassName@ioWnd@@UBEPBDXZ:PROC		; ioWnd::GetDefClassName
EXTRN	?_Clone@ioWnd@@UAEPAV1@XZ:PROC			; ioWnd::_Clone
EXTRN	?Copy@ioWnd@@UAEXPAV1@@Z:PROC			; ioWnd::Copy
EXTRN	?Save@ioWnd@@UAE_NAAVioXMLElement@@@Z:PROC	; ioWnd::Save
EXTRN	?SetSaveData@ioWnd@@UAEXAAVioXMLElement@@@Z:PROC ; ioWnd::SetSaveData
EXTRN	?SetPosX@ioWnd@@UAEXH@Z:PROC			; ioWnd::SetPosX
EXTRN	?SetPosY@ioWnd@@UAEXH@Z:PROC			; ioWnd::SetPosY
EXTRN	?SetWidth@ioWnd@@UAEXH@Z:PROC			; ioWnd::SetWidth
EXTRN	?SetHeight@ioWnd@@UAEXH@Z:PROC			; ioWnd::SetHeight
EXTRN	?GetNumFixedRenderFrame@ioWnd@@UBEHXZ:PROC	; ioWnd::GetNumFixedRenderFrame
EXTRN	?GetFixedRenderFrameType@ioWnd@@UAEPBDH@Z:PROC	; ioWnd::GetFixedRenderFrameType
EXTRN	?GetRenderFrame@ioWnd@@UAEPAPAVioUIRenderElement@@PBD@Z:PROC ; ioWnd::GetRenderFrame
EXTRN	?GetNumFixedRenderImage@ioWnd@@UBEHXZ:PROC	; ioWnd::GetNumFixedRenderImage
EXTRN	?GetFixedRenderImageType@ioWnd@@UAEPBDH@Z:PROC	; ioWnd::GetFixedRenderImageType
EXTRN	?GetRenderImage@ioWnd@@UAEPAPAVioUIRenderElement@@PBD@Z:PROC ; ioWnd::GetRenderImage
EXTRN	?AddEffect@ioWnd@@UAEXABVioHashString@@PAVioUI3DEffectRender@@@Z:PROC ; ioWnd::AddEffect
EXTRN	?GetEffect@ioWnd@@UAEPAVioUI3DEffectRender@@VioHashString@@@Z:PROC ; ioWnd::GetEffect
EXTRN	??_EModeRankWnd@@UAEPAXI@Z:PROC			; ModeRankWnd::`vector deleting destructor'
;	COMDAT ??_R2ioWnd@@8
; File d:\lost saga for developer\youtube\tutorial\source\src\lsclient\gui\moderankwnd.h
rdata$r	SEGMENT
??_R2ioWnd@@8 DD FLAT:??_R1A@?0A@EA@ioWnd@@8		; ioWnd::`RTTI Base Class Array'
rdata$r	ENDS
;	COMDAT ??_R3ioWnd@@8
rdata$r	SEGMENT
??_R3ioWnd@@8 DD 00H					; ioWnd::`RTTI Class Hierarchy Descriptor'
	DD	00H
	DD	01H
	DD	FLAT:??_R2ioWnd@@8
rdata$r	ENDS
;	COMDAT ??_R0?AVioWnd@@@8
_DATA	SEGMENT
??_R0?AVioWnd@@@8 DD FLAT:??_7type_info@@6B@		; ioWnd `RTTI Type Descriptor'
	DD	00H
	DB	'.?AVioWnd@@', 00H
_DATA	ENDS
;	COMDAT ??_R1A@?0A@EA@ioWnd@@8
rdata$r	SEGMENT
??_R1A@?0A@EA@ioWnd@@8 DD FLAT:??_R0?AVioWnd@@@8	; ioWnd::`RTTI Base Class Descriptor at (0,-1,0,64)'
	DD	00H
	DD	00H
	DD	0ffffffffH
	DD	00H
	DD	040H
	DD	FLAT:??_R3ioWnd@@8
rdata$r	ENDS
;	COMDAT ??_R2ioMovingWnd@@8
rdata$r	SEGMENT
??_R2ioMovingWnd@@8 DD FLAT:??_R1A@?0A@EA@ioMovingWnd@@8 ; ioMovingWnd::`RTTI Base Class Array'
	DD	FLAT:??_R1A@?0A@EA@ioWnd@@8
rdata$r	ENDS
;	COMDAT ??_R3ioMovingWnd@@8
rdata$r	SEGMENT
??_R3ioMovingWnd@@8 DD 00H				; ioMovingWnd::`RTTI Class Hierarchy Descriptor'
	DD	00H
	DD	02H
	DD	FLAT:??_R2ioMovingWnd@@8
rdata$r	ENDS
;	COMDAT ??_R0?AVioMovingWnd@@@8
_DATA	SEGMENT
??_R0?AVioMovingWnd@@@8 DD FLAT:??_7type_info@@6B@	; ioMovingWnd `RTTI Type Descriptor'
	DD	00H
	DB	'.?AVioMovingWnd@@', 00H
_DATA	ENDS
;	COMDAT ??_R1A@?0A@EA@ioMovingWnd@@8
rdata$r	SEGMENT
??_R1A@?0A@EA@ioMovingWnd@@8 DD FLAT:??_R0?AVioMovingWnd@@@8 ; ioMovingWnd::`RTTI Base Class Descriptor at (0,-1,0,64)'
	DD	01H
	DD	00H
	DD	0ffffffffH
	DD	00H
	DD	040H
	DD	FLAT:??_R3ioMovingWnd@@8
rdata$r	ENDS
;	COMDAT ??_R1A@?0A@EA@ModeRankWnd@@8
rdata$r	SEGMENT
??_R1A@?0A@EA@ModeRankWnd@@8 DD FLAT:??_R0?AVModeRankWnd@@@8 ; ModeRankWnd::`RTTI Base Class Descriptor at (0,-1,0,64)'
	DD	02H
	DD	00H
	DD	0ffffffffH
	DD	00H
	DD	040H
	DD	FLAT:??_R3ModeRankWnd@@8
rdata$r	ENDS
;	COMDAT ??_R2ModeRankWnd@@8
rdata$r	SEGMENT
??_R2ModeRankWnd@@8 DD FLAT:??_R1A@?0A@EA@ModeRankWnd@@8 ; ModeRankWnd::`RTTI Base Class Array'
	DD	FLAT:??_R1A@?0A@EA@ioMovingWnd@@8
	DD	FLAT:??_R1A@?0A@EA@ioWnd@@8
rdata$r	ENDS
;	COMDAT ??_R3ModeRankWnd@@8
rdata$r	SEGMENT
??_R3ModeRankWnd@@8 DD 00H				; ModeRankWnd::`RTTI Class Hierarchy Descriptor'
	DD	00H
	DD	03H
	DD	FLAT:??_R2ModeRankWnd@@8
rdata$r	ENDS
;	COMDAT ??_R0?AVModeRankWnd@@@8
_DATA	SEGMENT
??_R0?AVModeRankWnd@@@8 DD FLAT:??_7type_info@@6B@	; ModeRankWnd `RTTI Type Descriptor'
	DD	00H
	DB	'.?AVModeRankWnd@@', 00H
_DATA	ENDS
;	COMDAT ??_R4ModeRankWnd@@6B@
rdata$r	SEGMENT
??_R4ModeRankWnd@@6B@ DD 00H				; ModeRankWnd::`RTTI Complete Object Locator'
	DD	00H
	DD	00H
	DD	FLAT:??_R0?AVModeRankWnd@@@8
	DD	FLAT:??_R3ModeRankWnd@@8
rdata$r	ENDS
;	COMDAT ??_7ModeRankWnd@@6B@
CONST	SEGMENT
??_7ModeRankWnd@@6B@ DD FLAT:??_R4ModeRankWnd@@6B@	; ModeRankWnd::`vftable'
	DD	FLAT:?AddRenderFrame@ioWnd@@UAEXABVioHashString@@PAVioUIRenderFrame@@@Z
	DD	FLAT:?AddRenderImage@ModeRankWnd@@UAEXABVioHashString@@PAVioUIRenderImage@@@Z
	DD	FLAT:?AddTooltipHelp@ioWnd@@UAEXABVioHashString@@00@Z
	DD	FLAT:?ParseExtraInfo@ModeRankWnd@@UAEXAAVioXMLElement@@@Z
	DD	FLAT:?AddNamedRenderImage@ioWnd@@UAEXABVioHashString@@PAVioUIRenderImage@@@Z
	DD	FLAT:?RemoveNamedRenderImage@ioWnd@@UAEXABVioHashString@@@Z
	DD	FLAT:?GetNamedRenderImage@ioWnd@@UBEPAVioUIRenderImage@@ABVioHashString@@@Z
	DD	FLAT:?SetWindowAlpha@ioWnd@@UAEXH@Z
	DD	FLAT:?SetActive@ioWnd@@UAEXXZ
	DD	FLAT:?SetInActive@ioWnd@@UAEXXZ
	DD	FLAT:?ClearElementImageList@ioWnd@@UAEXXZ
	DD	FLAT:?SetSize@ioWnd@@UAEXHH@Z
	DD	FLAT:?SetPositionToDefault@ModeRankWnd@@UAEXHH_N0@Z
	DD	FLAT:?IsNeedProcess@ioWnd@@UBE_NXZ
	DD	FLAT:?IsCanMouseReaction@ioWnd@@UBE_NXZ
	DD	FLAT:?AddChild@ioWnd@@UAEXPAV1@@Z
	DD	FLAT:?DeleteChild@ioWnd@@UAEXK@Z
	DD	FLAT:?DeleteAllChild@ioWnd@@UAEXXZ
	DD	FLAT:?OnRenderShowAndHide@ioWnd@@MAE_NXZ
	DD	FLAT:?OnRenderShowAndHideByDefault@ioWnd@@MAE_NK@Z
	DD	FLAT:?OnRenderShowAndHideByTop@ioWnd@@MAE_NK@Z
	DD	FLAT:?OnRenderShowAndHideByDown@ioWnd@@MAE_NK@Z
	DD	FLAT:?OnRender@ModeRankWnd@@MAEXXZ
	DD	FLAT:?OnRenderAfterChild@ioWnd@@MAEXXZ
	DD	FLAT:?OnProcess@ModeRankWnd@@MAEXM@Z
	DD	FLAT:?OnMouseProcess@ioMovingWnd@@MAEXABVioMouse@@@Z
	DD	FLAT:?CheckFrameReSize@ioWnd@@MAEXHHHH@Z
	DD	FLAT:?RenderImageList@ioWnd@@MAEXHHW4UIRenderType@@@Z
	DD	FLAT:?iwm_create@ioWnd@@UAEXXZ
	DD	FLAT:?iwm_destroy@ioWnd@@UAEXXZ
	DD	FLAT:?iwm_lbuttondown@ioMovingWnd@@UAEXABVioMouse@@@Z
	DD	FLAT:?iwm_lbuttonup@ioMovingWnd@@UAEXABVioMouse@@@Z
	DD	FLAT:?iwm_lbuttonDBLCLK@ioWnd@@UAEXABVioMouse@@@Z
	DD	FLAT:?iwm_rbuttondown@ioWnd@@UAEXABVioMouse@@@Z
	DD	FLAT:?iwm_rbuttonup@ioWnd@@UAEXABVioMouse@@@Z
	DD	FLAT:?iwm_command@ioWnd@@UAEXPAV1@HK@Z
	DD	FLAT:?iwm_mouseover@ioWnd@@UAEXABVioMouse@@@Z
	DD	FLAT:?iwm_mousemove@ioWnd@@UAEXABVioMouse@@@Z
	DD	FLAT:?iwm_mouseleave@ioWnd@@UAEXABVioMouse@@@Z
	DD	FLAT:?iwm_vscroll@ioWnd@@UAEXKH@Z
	DD	FLAT:?iwm_wheel@ioWnd@@UAEXH@Z
	DD	FLAT:?iwm_show@ModeRankWnd@@UAEXXZ
	DD	FLAT:?iwm_hide@ModeRankWnd@@UAEXXZ
	DD	FLAT:?iwm_esc@ioWnd@@UAE_NXZ
	DD	FLAT:?iwm_spacebar@ioWnd@@UAE_NXZ
	DD	FLAT:?iwm_gototop@ioWnd@@UAEXXZ
	DD	FLAT:?iwm_dragenter@ioWnd@@UAE?AW4IWDropEffect@@PAVioDragItem@@ABVioMouse@@@Z
	DD	FLAT:?iwm_dragover@ioWnd@@UAE?AW4IWDropEffect@@PAVioDragItem@@ABVioMouse@@@Z
	DD	FLAT:?iwm_dragleave@ioWnd@@UAEXXZ
	DD	FLAT:?iwm_dropitem@ioWnd@@UAE_NPAVioDragItem@@ABVioMouse@@PAV1@@Z
	DD	FLAT:?iwm_dropdone@ioWnd@@UAEXPAVioDragItem@@PAV1@_N@Z
	DD	FLAT:?IsEXType@ioWnd@@UBE_NXZ
	DD	FLAT:?GetWndType@ioWnd@@UBEKXZ
	DD	FLAT:?RenderWnd@ioWnd@@UAEXXZ
	DD	FLAT:?SetIDEX@ioWnd@@UAEXAAK_N@Z
	DD	FLAT:?ParseXML@ioWnd@@UAEXAAVioXMLElement@@@Z
	DD	FLAT:?GetHeaderFileName@ioWnd@@UAEPBDXZ
	DD	FLAT:?GetTemplateName@ioWnd@@UAEPBDXZ
	DD	FLAT:?GetDefClassName@ioWnd@@UBEPBDXZ
	DD	FLAT:?_Clone@ioWnd@@UAEPAV1@XZ
	DD	FLAT:?Copy@ioWnd@@UAEXPAV1@@Z
	DD	FLAT:?Save@ioWnd@@UAE_NAAVioXMLElement@@@Z
	DD	FLAT:?SetSaveData@ioWnd@@UAEXAAVioXMLElement@@@Z
	DD	FLAT:?SetPosX@ioWnd@@UAEXH@Z
	DD	FLAT:?SetPosY@ioWnd@@UAEXH@Z
	DD	FLAT:?SetWidth@ioWnd@@UAEXH@Z
	DD	FLAT:?SetHeight@ioWnd@@UAEXH@Z
	DD	FLAT:?GetNumFixedRenderFrame@ioWnd@@UBEHXZ
	DD	FLAT:?GetFixedRenderFrameType@ioWnd@@UAEPBDH@Z
	DD	FLAT:?GetRenderFrame@ioWnd@@UAEPAPAVioUIRenderElement@@PBD@Z
	DD	FLAT:?GetNumFixedRenderImage@ioWnd@@UBEHXZ
	DD	FLAT:?GetFixedRenderImageType@ioWnd@@UAEPBDH@Z
	DD	FLAT:?GetRenderImage@ioWnd@@UAEPAPAVioUIRenderElement@@PBD@Z
	DD	FLAT:?AddEffect@ioWnd@@UAEXABVioHashString@@PAVioUI3DEffectRender@@@Z
	DD	FLAT:?GetEffect@ioWnd@@UAEPAVioUI3DEffectRender@@VioHashString@@@Z
	DD	FLAT:??_EModeRankWnd@@UAEPAXI@Z
CONST	ENDS
;	COMDAT xdata$x
xdata$x	SEGMENT
__unwindtable$??0ModeRankWnd@@QAE@XZ DD 0ffffffffH
	DD	FLAT:__unwindfunclet$??0ModeRankWnd@@QAE@XZ$0
	DD	00H
	DD	FLAT:__unwindfunclet$??0ModeRankWnd@@QAE@XZ$1
__ehfuncinfo$??0ModeRankWnd@@QAE@XZ DD 019930522H
	DD	02H
	DD	FLAT:__unwindtable$??0ModeRankWnd@@QAE@XZ
	DD	2 DUP(00H)
	DD	2 DUP(00H)
	DD	00H
	DD	01H
; Function compile flags: /Ogsp
; File d:\lost saga for developer\youtube\tutorial\source\src\lsclient\gui\moderankwnd.cpp
xdata$x	ENDS
;	COMDAT ??0ModeRankWnd@@QAE@XZ
_TEXT	SEGMENT
_this$ = -16						; size = 4
__$EHRec$ = -12						; size = 12
??0ModeRankWnd@@QAE@XZ PROC				; ModeRankWnd::ModeRankWnd, COMDAT
; _this$ = ecx

; 23   : {

  00000	6a 04		 push	 4
  00002	b8 00 00 00 00	 mov	 eax, __ehhandler$??0ModeRankWnd@@QAE@XZ
  00007	e8 00 00 00 00	 call	 __EH_prolog3
  0000c	8b f1		 mov	 esi, ecx
  0000e	89 75 f0	 mov	 DWORD PTR _this$[ebp], esi
  00011	ff 15 00 00 00
	00		 call	 DWORD PTR __imp_??0ioMovingWnd@@QAE@XZ
  00017	8b 3d 00 00 00
	00		 mov	 edi, DWORD PTR __imp_??0ioHashString@@QAE@XZ
  0001d	33 db		 xor	 ebx, ebx
  0001f	8d 8e d8 01 00
	00		 lea	 ecx, DWORD PTR [esi+472]
  00025	89 5d fc	 mov	 DWORD PTR __$EHRec$[ebp+8], ebx
  00028	c7 06 00 00 00
	00		 mov	 DWORD PTR [esi], OFFSET ??_7ModeRankWnd@@6B@
  0002e	ff d7		 call	 edi
  00030	8d 8e e8 01 00
	00		 lea	 ecx, DWORD PTR [esi+488]
  00036	c6 45 fc 01	 mov	 BYTE PTR __$EHRec$[ebp+8], 1
  0003a	ff d7		 call	 edi
  0003c	6a 03		 push	 3
  0003e	89 9e f8 01 00
	00		 mov	 DWORD PTR [esi+504], ebx
  00044	89 9e fc 01 00
	00		 mov	 DWORD PTR [esi+508], ebx
  0004a	88 9e 00 02 00
	00		 mov	 BYTE PTR [esi+512], bl
  00050	89 9e 04 02 00
	00		 mov	 DWORD PTR [esi+516], ebx
  00056	c7 86 0c 02 00
	00 ff 00 00 00	 mov	 DWORD PTR [esi+524], 255 ; 000000ffH
  00060	8d 86 10 02 00
	00		 lea	 eax, DWORD PTR [esi+528]
  00066	59		 pop	 ecx
$LL10@ModeRankWn:
  00067	83 08 ff	 or	 DWORD PTR [eax], -1
  0006a	83 48 04 ff	 or	 DWORD PTR [eax+4], -1
  0006e	89 58 08	 mov	 DWORD PTR [eax+8], ebx
  00071	83 c0 10	 add	 eax, 16			; 00000010H
  00074	49		 dec	 ecx
  00075	79 f0		 jns	 SHORT $LL10@ModeRankWn

; 24   : 	m_pStonePoint	= NULL;
; 25   : 	m_pPrisonerPoint= NULL;
; 26   : 	m_pKingPoint	= NULL;
; 27   : 	m_pKillPoint	= NULL;
; 28   : 	m_pAttackPoint	= NULL;
; 29   : 	m_pDamagePoint	= NULL;
; 30   : 	m_pNpcKillPts	= NULL;
; 31   : 	m_pNpcTowerPts	= NULL;
; 32   : 	m_pTimePts		= NULL;
; 33   : 
; 34   : 	m_pGoalPoint		= NULL;
; 35   : 	m_pBallTouchPoint	= NULL;
; 36   : 	m_pBallTimePoint	= NULL;
; 37   : 
; 38   : 	m_pGangsiInfectionPoint = NULL;
; 39   : 	m_pGangsiSurvivorPoint  = NULL;
; 40   : 
; 41   : 	for(int i = 0;i < MAX_RANK;i++)
; 42   : 		m_pRank[i]		= NULL;

  00077	33 c0		 xor	 eax, eax
  00079	89 9e 90 01 00
	00		 mov	 DWORD PTR [esi+400], ebx
  0007f	89 9e 94 01 00
	00		 mov	 DWORD PTR [esi+404], ebx
  00085	89 9e 98 01 00
	00		 mov	 DWORD PTR [esi+408], ebx
  0008b	89 9e 9c 01 00
	00		 mov	 DWORD PTR [esi+412], ebx
  00091	89 9e a0 01 00
	00		 mov	 DWORD PTR [esi+416], ebx
  00097	89 9e a4 01 00
	00		 mov	 DWORD PTR [esi+420], ebx
  0009d	89 9e a8 01 00
	00		 mov	 DWORD PTR [esi+424], ebx
  000a3	89 9e ac 01 00
	00		 mov	 DWORD PTR [esi+428], ebx
  000a9	89 9e b0 01 00
	00		 mov	 DWORD PTR [esi+432], ebx
  000af	89 9e b4 01 00
	00		 mov	 DWORD PTR [esi+436], ebx
  000b5	89 9e b8 01 00
	00		 mov	 DWORD PTR [esi+440], ebx
  000bb	89 9e bc 01 00
	00		 mov	 DWORD PTR [esi+444], ebx
  000c1	89 9e c0 01 00
	00		 mov	 DWORD PTR [esi+448], ebx
  000c7	89 9e c4 01 00
	00		 mov	 DWORD PTR [esi+452], ebx
  000cd	8d be c8 01 00
	00		 lea	 edi, DWORD PTR [esi+456]
  000d3	ab		 stosd
  000d4	ab		 stosd
  000d5	ab		 stosd
  000d6	ab		 stosd

; 43   : 
; 44   : 	m_dwCurTime = m_dwShowTime = m_dwStartTime = m_dwHideTime = m_dwGapTime = m_dwCurHideTime = 0;
; 45   : 
; 46   : 	m_bRollingEnd = false;
; 47   : 	m_iDefaultX = m_iDefaultY = ioSP2GUIManager::SCREEN_OUT_POS;

  000d7	b8 f1 d8 ff ff	 mov	 eax, -9999		; ffffd8f1H
  000dc	89 86 6c 02 00
	00		 mov	 DWORD PTR [esi+620], eax
  000e2	89 86 68 02 00
	00		 mov	 DWORD PTR [esi+616], eax
  000e8	89 9e 64 02 00
	00		 mov	 DWORD PTR [esi+612], ebx
  000ee	89 9e 60 02 00
	00		 mov	 DWORD PTR [esi+608], ebx
  000f4	89 9e 58 02 00
	00		 mov	 DWORD PTR [esi+600], ebx
  000fa	89 9e 5c 02 00
	00		 mov	 DWORD PTR [esi+604], ebx
  00100	89 9e 54 02 00
	00		 mov	 DWORD PTR [esi+596], ebx
  00106	89 9e 50 02 00
	00		 mov	 DWORD PTR [esi+592], ebx
  0010c	88 9e 08 02 00
	00		 mov	 BYTE PTR [esi+520], bl

; 48   : }

  00112	8b c6		 mov	 eax, esi
  00114	e8 00 00 00 00	 call	 __EH_epilog3
  00119	c3		 ret	 0
_TEXT	ENDS
;	COMDAT text$x
text$x	SEGMENT
__unwindfunclet$??0ModeRankWnd@@QAE@XZ$0:
  00000	8b 4d f0	 mov	 ecx, DWORD PTR _this$[ebp]
  00003	ff 25 00 00 00
	00		 jmp	 DWORD PTR __imp_??1ioMovingWnd@@UAE@XZ
__unwindfunclet$??0ModeRankWnd@@QAE@XZ$1:
  00009	8b 4d f0	 mov	 ecx, DWORD PTR _this$[ebp]
  0000c	81 c1 d8 01 00
	00		 add	 ecx, 472		; 000001d8H
  00012	ff 25 00 00 00
	00		 jmp	 DWORD PTR __imp_??1ioHashString@@QAE@XZ
__ehhandler$??0ModeRankWnd@@QAE@XZ:
  00018	8b 54 24 08	 mov	 edx, DWORD PTR [esp+8]
  0001c	8d 42 0c	 lea	 eax, DWORD PTR [edx+12]
  0001f	8b 4a ec	 mov	 ecx, DWORD PTR [edx-20]
  00022	33 c8		 xor	 ecx, eax
  00024	e8 00 00 00 00	 call	 @__security_check_cookie@4
  00029	b8 00 00 00 00	 mov	 eax, OFFSET __ehfuncinfo$??0ModeRankWnd@@QAE@XZ
  0002e	e9 00 00 00 00	 jmp	 ___CxxFrameHandler3
text$x	ENDS
??0ModeRankWnd@@QAE@XZ ENDP				; ModeRankWnd::ModeRankWnd
PUBLIC	??1ModeRankWnd@@UAE@XZ				; ModeRankWnd::~ModeRankWnd
;	COMDAT xdata$x
xdata$x	SEGMENT
__unwindtable$??1ModeRankWnd@@UAE@XZ DD 0ffffffffH
	DD	FLAT:__unwindfunclet$??1ModeRankWnd@@UAE@XZ$0
	DD	00H
	DD	FLAT:__unwindfunclet$??1ModeRankWnd@@UAE@XZ$1
	DD	01H
	DD	FLAT:__unwindfunclet$??1ModeRankWnd@@UAE@XZ$2
__ehfuncinfo$??1ModeRankWnd@@UAE@XZ DD 019930522H
	DD	03H
	DD	FLAT:__unwindtable$??1ModeRankWnd@@UAE@XZ
	DD	2 DUP(00H)
	DD	2 DUP(00H)
	DD	00H
	DD	01H
; Function compile flags: /Ogsp
xdata$x	ENDS
;	COMDAT ??1ModeRankWnd@@UAE@XZ
_TEXT	SEGMENT
_this$ = -20						; size = 4
tv207 = -16						; size = 4
__$EHRec$ = -12						; size = 12
??1ModeRankWnd@@UAE@XZ PROC				; ModeRankWnd::~ModeRankWnd, COMDAT
; _this$ = ecx

; 51   : {

  00000	6a 08		 push	 8
  00002	b8 00 00 00 00	 mov	 eax, __ehhandler$??1ModeRankWnd@@UAE@XZ
  00007	e8 00 00 00 00	 call	 __EH_prolog3
  0000c	8b f1		 mov	 esi, ecx
  0000e	89 75 ec	 mov	 DWORD PTR _this$[ebp], esi
  00011	c7 06 00 00 00
	00		 mov	 DWORD PTR [esi], OFFSET ??_7ModeRankWnd@@6B@

; 52   : 	SAFEDELETE( m_pStonePoint );

  00017	8b 8e 90 01 00
	00		 mov	 ecx, DWORD PTR [esi+400]
  0001d	33 db		 xor	 ebx, ebx
  0001f	c7 45 fc 02 00
	00 00		 mov	 DWORD PTR __$EHRec$[ebp+8], 2
  00026	3b cb		 cmp	 ecx, ebx
  00028	74 0d		 je	 SHORT $LN19@ModeRankWn@2
  0002a	8b 01		 mov	 eax, DWORD PTR [ecx]
  0002c	6a 01		 push	 1
  0002e	ff 50 40	 call	 DWORD PTR [eax+64]
  00031	89 9e 90 01 00
	00		 mov	 DWORD PTR [esi+400], ebx
$LN19@ModeRankWn@2:

; 53   : 	SAFEDELETE( m_pPrisonerPoint );

  00037	8b 8e 94 01 00
	00		 mov	 ecx, DWORD PTR [esi+404]
  0003d	3b cb		 cmp	 ecx, ebx
  0003f	74 0d		 je	 SHORT $LN18@ModeRankWn@2
  00041	8b 01		 mov	 eax, DWORD PTR [ecx]
  00043	6a 01		 push	 1
  00045	ff 50 40	 call	 DWORD PTR [eax+64]
  00048	89 9e 94 01 00
	00		 mov	 DWORD PTR [esi+404], ebx
$LN18@ModeRankWn@2:

; 54   : 	SAFEDELETE( m_pKingPoint );

  0004e	8b 8e 98 01 00
	00		 mov	 ecx, DWORD PTR [esi+408]
  00054	3b cb		 cmp	 ecx, ebx
  00056	74 0d		 je	 SHORT $LN17@ModeRankWn@2
  00058	8b 01		 mov	 eax, DWORD PTR [ecx]
  0005a	6a 01		 push	 1
  0005c	ff 50 40	 call	 DWORD PTR [eax+64]
  0005f	89 9e 98 01 00
	00		 mov	 DWORD PTR [esi+408], ebx
$LN17@ModeRankWn@2:

; 55   : 	SAFEDELETE( m_pKillPoint );

  00065	8b 8e 9c 01 00
	00		 mov	 ecx, DWORD PTR [esi+412]
  0006b	3b cb		 cmp	 ecx, ebx
  0006d	74 0d		 je	 SHORT $LN16@ModeRankWn@2
  0006f	8b 01		 mov	 eax, DWORD PTR [ecx]
  00071	6a 01		 push	 1
  00073	ff 50 40	 call	 DWORD PTR [eax+64]
  00076	89 9e 9c 01 00
	00		 mov	 DWORD PTR [esi+412], ebx
$LN16@ModeRankWn@2:

; 56   : 	SAFEDELETE( m_pAttackPoint );

  0007c	8b 8e a0 01 00
	00		 mov	 ecx, DWORD PTR [esi+416]
  00082	3b cb		 cmp	 ecx, ebx
  00084	74 0d		 je	 SHORT $LN15@ModeRankWn@2
  00086	8b 01		 mov	 eax, DWORD PTR [ecx]
  00088	6a 01		 push	 1
  0008a	ff 50 40	 call	 DWORD PTR [eax+64]
  0008d	89 9e a0 01 00
	00		 mov	 DWORD PTR [esi+416], ebx
$LN15@ModeRankWn@2:

; 57   : 	SAFEDELETE( m_pDamagePoint );

  00093	8b 8e a4 01 00
	00		 mov	 ecx, DWORD PTR [esi+420]
  00099	3b cb		 cmp	 ecx, ebx
  0009b	74 0d		 je	 SHORT $LN14@ModeRankWn@2
  0009d	8b 01		 mov	 eax, DWORD PTR [ecx]
  0009f	6a 01		 push	 1
  000a1	ff 50 40	 call	 DWORD PTR [eax+64]
  000a4	89 9e a4 01 00
	00		 mov	 DWORD PTR [esi+420], ebx
$LN14@ModeRankWn@2:

; 58   : 	SAFEDELETE(m_pNpcKillPts);

  000aa	8b 8e a8 01 00
	00		 mov	 ecx, DWORD PTR [esi+424]
  000b0	3b cb		 cmp	 ecx, ebx
  000b2	74 0d		 je	 SHORT $LN13@ModeRankWn@2
  000b4	8b 01		 mov	 eax, DWORD PTR [ecx]
  000b6	6a 01		 push	 1
  000b8	ff 50 40	 call	 DWORD PTR [eax+64]
  000bb	89 9e a8 01 00
	00		 mov	 DWORD PTR [esi+424], ebx
$LN13@ModeRankWn@2:

; 59   : 	SAFEDELETE(m_pNpcTowerPts);

  000c1	8b 8e ac 01 00
	00		 mov	 ecx, DWORD PTR [esi+428]
  000c7	3b cb		 cmp	 ecx, ebx
  000c9	74 0d		 je	 SHORT $LN12@ModeRankWn@2
  000cb	8b 01		 mov	 eax, DWORD PTR [ecx]
  000cd	6a 01		 push	 1
  000cf	ff 50 40	 call	 DWORD PTR [eax+64]
  000d2	89 9e ac 01 00
	00		 mov	 DWORD PTR [esi+428], ebx
$LN12@ModeRankWn@2:

; 60   : 	SAFEDELETE(m_pTimePts);

  000d8	8b 8e b0 01 00
	00		 mov	 ecx, DWORD PTR [esi+432]
  000de	3b cb		 cmp	 ecx, ebx
  000e0	74 0d		 je	 SHORT $LN11@ModeRankWn@2
  000e2	8b 01		 mov	 eax, DWORD PTR [ecx]
  000e4	6a 01		 push	 1
  000e6	ff 50 40	 call	 DWORD PTR [eax+64]
  000e9	89 9e b0 01 00
	00		 mov	 DWORD PTR [esi+432], ebx
$LN11@ModeRankWn@2:

; 61   : 
; 62   : 
; 63   : 	SAFEDELETE( m_pGoalPoint );

  000ef	8b 8e b4 01 00
	00		 mov	 ecx, DWORD PTR [esi+436]
  000f5	3b cb		 cmp	 ecx, ebx
  000f7	74 0d		 je	 SHORT $LN10@ModeRankWn@2
  000f9	8b 01		 mov	 eax, DWORD PTR [ecx]
  000fb	6a 01		 push	 1
  000fd	ff 50 40	 call	 DWORD PTR [eax+64]
  00100	89 9e b4 01 00
	00		 mov	 DWORD PTR [esi+436], ebx
$LN10@ModeRankWn@2:

; 64   : 	SAFEDELETE( m_pBallTouchPoint );

  00106	8b 8e b8 01 00
	00		 mov	 ecx, DWORD PTR [esi+440]
  0010c	3b cb		 cmp	 ecx, ebx
  0010e	74 0d		 je	 SHORT $LN9@ModeRankWn@2
  00110	8b 01		 mov	 eax, DWORD PTR [ecx]
  00112	6a 01		 push	 1
  00114	ff 50 40	 call	 DWORD PTR [eax+64]
  00117	89 9e b8 01 00
	00		 mov	 DWORD PTR [esi+440], ebx
$LN9@ModeRankWn@2:

; 65   : 	SAFEDELETE( m_pBallTimePoint );

  0011d	8b 8e bc 01 00
	00		 mov	 ecx, DWORD PTR [esi+444]
  00123	3b cb		 cmp	 ecx, ebx
  00125	74 0d		 je	 SHORT $LN8@ModeRankWn@2
  00127	8b 01		 mov	 eax, DWORD PTR [ecx]
  00129	6a 01		 push	 1
  0012b	ff 50 40	 call	 DWORD PTR [eax+64]
  0012e	89 9e bc 01 00
	00		 mov	 DWORD PTR [esi+444], ebx
$LN8@ModeRankWn@2:

; 66   : 
; 67   : 	SAFEDELETE( m_pGangsiInfectionPoint );

  00134	8b 8e c0 01 00
	00		 mov	 ecx, DWORD PTR [esi+448]
  0013a	3b cb		 cmp	 ecx, ebx
  0013c	74 0d		 je	 SHORT $LN7@ModeRankWn@2
  0013e	8b 01		 mov	 eax, DWORD PTR [ecx]
  00140	6a 01		 push	 1
  00142	ff 50 40	 call	 DWORD PTR [eax+64]
  00145	89 9e c0 01 00
	00		 mov	 DWORD PTR [esi+448], ebx
$LN7@ModeRankWn@2:

; 68   : 	SAFEDELETE( m_pGangsiSurvivorPoint );

  0014b	8b 8e c4 01 00
	00		 mov	 ecx, DWORD PTR [esi+452]
  00151	3b cb		 cmp	 ecx, ebx
  00153	74 0d		 je	 SHORT $LN6@ModeRankWn@2
  00155	8b 01		 mov	 eax, DWORD PTR [ecx]
  00157	6a 01		 push	 1
  00159	ff 50 40	 call	 DWORD PTR [eax+64]
  0015c	89 9e c4 01 00
	00		 mov	 DWORD PTR [esi+452], ebx
$LN6@ModeRankWn@2:

; 69   : 
; 70   : 	for(int i = 0;i < MAX_RANK;i++)

  00162	8d be c8 01 00
	00		 lea	 edi, DWORD PTR [esi+456]
  00168	c7 45 f0 04 00
	00 00		 mov	 DWORD PTR tv207[ebp], 4
$LL5@ModeRankWn@2:

; 71   : 		SAFEDELETE( m_pRank[i] );

  0016f	8b 0f		 mov	 ecx, DWORD PTR [edi]
  00171	3b cb		 cmp	 ecx, ebx
  00173	74 09		 je	 SHORT $LN4@ModeRankWn@2
  00175	8b 01		 mov	 eax, DWORD PTR [ecx]
  00177	6a 01		 push	 1
  00179	ff 50 40	 call	 DWORD PTR [eax+64]
  0017c	89 1f		 mov	 DWORD PTR [edi], ebx
$LN4@ModeRankWn@2:

; 69   : 
; 70   : 	for(int i = 0;i < MAX_RANK;i++)

  0017e	83 c7 04	 add	 edi, 4
  00181	ff 4d f0	 dec	 DWORD PTR tv207[ebp]
  00184	75 e9		 jne	 SHORT $LL5@ModeRankWn@2

; 72   : 
; 73   : 	UIPositionSave();

  00186	53		 push	 ebx
  00187	8b ce		 mov	 ecx, esi
  00189	e8 00 00 00 00	 call	 ?UIPositionSave@ModeRankWnd@@IAEX_N@Z ; ModeRankWnd::UIPositionSave

; 74   : 
; 75   : 	if( !m_RollingSound.IsEmpty() )

  0018e	8d be d8 01 00
	00		 lea	 edi, DWORD PTR [esi+472]
  00194	8b cf		 mov	 ecx, edi
  00196	ff 15 00 00 00
	00		 call	 DWORD PTR __imp_?IsEmpty@ioHashString@@QBE_NXZ
  0019c	84 c0		 test	 al, al
  0019e	75 10		 jne	 SHORT $LN1@ModeRankWn@2

; 76   : 		g_SoundMgr.StopSound( m_RollingSound, 0 );

  001a0	53		 push	 ebx
  001a1	57		 push	 edi
  001a2	ff 15 00 00 00
	00		 call	 DWORD PTR __imp_?GetSingleton@ioSoundManager@@SAAAV1@XZ
  001a8	8b c8		 mov	 ecx, eax
  001aa	ff 15 00 00 00
	00		 call	 DWORD PTR __imp_?StopSound@ioSoundManager@@QAEXABVioHashString@@K@Z
$LN1@ModeRankWn@2:

; 77   : }

  001b0	8b 3d 00 00 00
	00		 mov	 edi, DWORD PTR __imp_??1ioHashString@@QAE@XZ
  001b6	8d 8e e8 01 00
	00		 lea	 ecx, DWORD PTR [esi+488]
  001bc	c6 45 fc 01	 mov	 BYTE PTR __$EHRec$[ebp+8], 1
  001c0	ff d7		 call	 edi
  001c2	8d 8e d8 01 00
	00		 lea	 ecx, DWORD PTR [esi+472]
  001c8	88 5d fc	 mov	 BYTE PTR __$EHRec$[ebp+8], bl
  001cb	ff d7		 call	 edi
  001cd	83 4d fc ff	 or	 DWORD PTR __$EHRec$[ebp+8], -1
  001d1	8b ce		 mov	 ecx, esi
  001d3	ff 15 00 00 00
	00		 call	 DWORD PTR __imp_??1ioMovingWnd@@UAE@XZ
  001d9	e8 00 00 00 00	 call	 __EH_epilog3
  001de	c3		 ret	 0
_TEXT	ENDS
;	COMDAT text$x
text$x	SEGMENT
__unwindfunclet$??1ModeRankWnd@@UAE@XZ$0:
  00000	8b 4d ec	 mov	 ecx, DWORD PTR _this$[ebp]
  00003	ff 25 00 00 00
	00		 jmp	 DWORD PTR __imp_??1ioMovingWnd@@UAE@XZ
__unwindfunclet$??1ModeRankWnd@@UAE@XZ$1:
  00009	8b 4d ec	 mov	 ecx, DWORD PTR _this$[ebp]
  0000c	81 c1 d8 01 00
	00		 add	 ecx, 472		; 000001d8H
  00012	ff 25 00 00 00
	00		 jmp	 DWORD PTR __imp_??1ioHashString@@QAE@XZ
__unwindfunclet$??1ModeRankWnd@@UAE@XZ$2:
  00018	8b 4d ec	 mov	 ecx, DWORD PTR _this$[ebp]
  0001b	81 c1 e8 01 00
	00		 add	 ecx, 488		; 000001e8H
  00021	ff 25 00 00 00
	00		 jmp	 DWORD PTR __imp_??1ioHashString@@QAE@XZ
__ehhandler$??1ModeRankWnd@@UAE@XZ:
  00027	8b 54 24 08	 mov	 edx, DWORD PTR [esp+8]
  0002b	8d 42 0c	 lea	 eax, DWORD PTR [edx+12]
  0002e	8b 4a e8	 mov	 ecx, DWORD PTR [edx-24]
  00031	33 c8		 xor	 ecx, eax
  00033	e8 00 00 00 00	 call	 @__security_check_cookie@4
  00038	b8 00 00 00 00	 mov	 eax, OFFSET __ehfuncinfo$??1ModeRankWnd@@UAE@XZ
  0003d	e9 00 00 00 00	 jmp	 ___CxxFrameHandler3
text$x	ENDS
??1ModeRankWnd@@UAE@XZ ENDP				; ModeRankWnd::~ModeRankWnd
EXTRN	?GUIPosLoadInt@ioSP2GUIManager@@QAEHPBD0HH@Z:PROC ; ioSP2GUIManager::GUIPosLoadInt
; Function compile flags: /Ogsp
;	COMDAT ?iwm_show@ModeRankWnd@@UAEXXZ
_TEXT	SEGMENT
tv426 = -16						; size = 4
tv664 = -12						; size = 4
tv660 = -12						; size = 4
tv656 = -12						; size = 4
_iMaxPlayer$512233 = -8					; size = 4
tv683 = -4						; size = 4
_iXPos$512227 = -4					; size = 4
?iwm_show@ModeRankWnd@@UAEXXZ PROC			; ModeRankWnd::iwm_show, COMDAT
; _this$ = ecx

; 212  : {

  00000	55		 push	 ebp
  00001	8b ec		 mov	 ebp, esp
  00003	83 ec 10	 sub	 esp, 16			; 00000010H
  00006	53		 push	 ebx
  00007	56		 push	 esi
  00008	8b f1		 mov	 esi, ecx

; 213  : 	switch( m_iRankType )

  0000a	8b 86 04 02 00
	00		 mov	 eax, DWORD PTR [esi+516]
  00010	48		 dec	 eax
  00011	57		 push	 edi
  00012	0f 84 b8 00 00
	00		 je	 $LN24@iwm_show
  00018	48		 dec	 eax
  00019	0f 84 ad 00 00
	00		 je	 $LN23@iwm_show
  0001f	48		 dec	 eax
  00020	0f 85 b1 00 00
	00		 jne	 $LN37@iwm_show

; 221  : 	case TABKEY_TYPE:
; 222  : 		{
; 223  : 			int iXPos = g_GUIMgr.GUIPosLoadInt( "ModeRank", "XPos", ioSP2GUIManager::SCREEN_OUT_POS, POS_SAVE_VERSION );

  00026	6a 04		 push	 4
  00028	bb f1 d8 ff ff	 mov	 ebx, -9999		; ffffd8f1H
  0002d	53		 push	 ebx
  0002e	68 00 00 00 00	 push	 OFFSET ??_C@_04LNCKCFGC@XPos?$AA@
  00033	bf 00 00 00 00	 mov	 edi, OFFSET ??_C@_08BNCJBDIC@ModeRank?$AA@
  00038	57		 push	 edi
  00039	e8 00 00 00 00	 call	 ?GetSingleton@ioSP2GUIManager@@SAAAV1@XZ ; ioSP2GUIManager::GetSingleton
  0003e	8b c8		 mov	 ecx, eax
  00040	e8 00 00 00 00	 call	 ?GUIPosLoadInt@ioSP2GUIManager@@QAEHPBD0HH@Z ; ioSP2GUIManager::GUIPosLoadInt

; 224  : 			int iYPos = g_GUIMgr.GUIPosLoadInt( "ModeRank", "YPos", ioSP2GUIManager::SCREEN_OUT_POS, POS_SAVE_VERSION );

  00045	6a 04		 push	 4
  00047	53		 push	 ebx
  00048	68 00 00 00 00	 push	 OFFSET ??_C@_04IAEKAMNC@YPos?$AA@
  0004d	57		 push	 edi
  0004e	89 45 fc	 mov	 DWORD PTR _iXPos$512227[ebp], eax
  00051	e8 00 00 00 00	 call	 ?GetSingleton@ioSP2GUIManager@@SAAAV1@XZ ; ioSP2GUIManager::GetSingleton
  00056	8b c8		 mov	 ecx, eax
  00058	e8 00 00 00 00	 call	 ?GUIPosLoadInt@ioSP2GUIManager@@QAEHPBD0HH@Z ; ioSP2GUIManager::GUIPosLoadInt

; 225  : 
; 226  : 			if( COMPARE( iXPos, 0, Setting::Width() ) && COMPARE( iYPos, 0, Setting::Height() ) )

  0005d	83 7d fc 00	 cmp	 DWORD PTR _iXPos$512227[ebp], 0
  00061	8b f8		 mov	 edi, eax
  00063	7c 25		 jl	 SHORT $LN21@iwm_show
  00065	e8 00 00 00 00	 call	 ?Width@Setting@@SAHXZ	; Setting::Width
  0006a	39 45 fc	 cmp	 DWORD PTR _iXPos$512227[ebp], eax
  0006d	7d 1b		 jge	 SHORT $LN21@iwm_show
  0006f	85 ff		 test	 edi, edi
  00071	78 17		 js	 SHORT $LN21@iwm_show
  00073	e8 00 00 00 00	 call	 ?Height@Setting@@SAHXZ	; Setting::Height
  00078	3b f8		 cmp	 edi, eax
  0007a	7d 0e		 jge	 SHORT $LN21@iwm_show

; 227  : 			{
; 228  : 				ioWnd::SetWndPos( iXPos, iYPos );

  0007c	57		 push	 edi
  0007d	ff 75 fc	 push	 DWORD PTR _iXPos$512227[ebp]
  00080	8b ce		 mov	 ecx, esi
  00082	ff 15 00 00 00
	00		 call	 DWORD PTR __imp_?SetWndPos@ioWnd@@QAEXHH@Z

; 229  : 			}
; 230  : 			else       

  00088	eb 09		 jmp	 SHORT $LN20@iwm_show
$LN21@iwm_show:

; 231  : 			{
; 232  : 				SetPositionByRankType( TABKEY_TYPE );

  0008a	6a 03		 push	 3
  0008c	8b ce		 mov	 ecx, esi
  0008e	e8 00 00 00 00	 call	 ?SetPositionByRankType@ModeRankWnd@@IAEXH@Z ; ModeRankWnd::SetPositionByRankType
$LN20@iwm_show:

; 233  : 			}
; 234  : 
; 235  : 			m_iDefaultX = GetXPos();

  00093	8b ce		 mov	 ecx, esi
  00095	ff 15 00 00 00
	00		 call	 DWORD PTR __imp_?GetXPos@ioWnd@@QBEHXZ

; 236  : 			m_iDefaultY = GetYPos();

  0009b	8b ce		 mov	 ecx, esi
  0009d	89 86 68 02 00
	00		 mov	 DWORD PTR [esi+616], eax
  000a3	ff 15 00 00 00
	00		 call	 DWORD PTR __imp_?GetYPos@ioWnd@@QBEHXZ
  000a9	89 86 6c 02 00
	00		 mov	 DWORD PTR [esi+620], eax

; 237  : 
; 238  : 			m_bPosSave = true;

  000af	c6 86 00 02 00
	00 01		 mov	 BYTE PTR [esi+512], 1

; 239  : 			m_dwCurHideTime = FRAMEGETTIME();

  000b6	ff 15 00 00 00
	00		 call	 DWORD PTR __imp_?GetSingleton@ioFrameTimer@@SAAAV1@XZ
  000bc	8b c8		 mov	 ecx, eax
  000be	ff 15 00 00 00
	00		 call	 DWORD PTR __imp_?GetLoopSec@ioFrameTimer@@QBEKXZ
  000c4	89 86 64 02 00
	00		 mov	 DWORD PTR [esi+612], eax

; 240  : 		}
; 241  : 		break;

  000ca	eb 0b		 jmp	 SHORT $LN37@iwm_show
$LN23@iwm_show:

; 217  : 		break;
; 218  : 	case RESULT_TYPE:
; 219  : 		SetPositionByRankType( RESULT_TYPE );

  000cc	6a 02		 push	 2

; 220  : 		break;

  000ce	eb 02		 jmp	 SHORT $LN40@iwm_show
$LN24@iwm_show:

; 214  : 	{
; 215  : 	case DEATH_TYPE:
; 216  : 		SetPositionByRankType( DEATH_TYPE );

  000d0	6a 01		 push	 1
$LN40@iwm_show:
  000d2	e8 00 00 00 00	 call	 ?SetPositionByRankType@ModeRankWnd@@IAEXH@Z ; ModeRankWnd::SetPositionByRankType
$LN37@iwm_show:

; 242  : 	}
; 243  : 
; 244  : 	if( m_eModeType == MT_FOOTBALL )

  000d7	83 be fc 01 00
	00 09		 cmp	 DWORD PTR [esi+508], 9
  000de	0f 84 a6 01 00
	00		 je	 $LN1@iwm_show

; 245  : 		return;
; 246  : 
; 247  : 	if( m_pPlayStage )

  000e4	33 db		 xor	 ebx, ebx
  000e6	39 9e f8 01 00
	00		 cmp	 DWORD PTR [esi+504], ebx
  000ec	0f 84 98 01 00
	00		 je	 $LN1@iwm_show

; 248  : 	{
; 249  : 		m_bRollingEnd = true;

  000f2	c6 86 08 02 00
	00 01		 mov	 BYTE PTR [esi+520], 1

; 250  : 		m_dwCurTime = FRAMEGETTIME();

  000f9	ff 15 00 00 00
	00		 call	 DWORD PTR __imp_?GetSingleton@ioFrameTimer@@SAAAV1@XZ
  000ff	8b c8		 mov	 ecx, eax
  00101	ff 15 00 00 00
	00		 call	 DWORD PTR __imp_?GetLoopSec@ioFrameTimer@@QBEKXZ

; 251  : 
; 252  : 		int iMaxPlayer = m_pPlayStage->ContributeMyRank( m_RankData[0].m_iRank,
; 253  : 													     m_RankData[1].m_iRank,
; 254  : 														 m_RankData[2].m_iRank,
; 255  : 														 m_RankData[3].m_iRank );

  00107	8b 8e f8 01 00
	00		 mov	 ecx, DWORD PTR [esi+504]
  0010d	89 86 50 02 00
	00		 mov	 DWORD PTR [esi+592], eax
  00113	8d 86 40 02 00
	00		 lea	 eax, DWORD PTR [esi+576]
  00119	50		 push	 eax
  0011a	8d 86 30 02 00
	00		 lea	 eax, DWORD PTR [esi+560]
  00120	50		 push	 eax
  00121	8d 86 20 02 00
	00		 lea	 eax, DWORD PTR [esi+544]
  00127	50		 push	 eax
  00128	8d be 10 02 00
	00		 lea	 edi, DWORD PTR [esi+528]
  0012e	57		 push	 edi
  0012f	e8 00 00 00 00	 call	 ?ContributeMyRank@ioPlayStage@@QAEHAAH000@Z ; ioPlayStage::ContributeMyRank

; 256  : 
; 257  : 		if( Help::IsMonsterDungeonMode(m_eModeType) ) 

  00134	ff b6 fc 01 00
	00		 push	 DWORD PTR [esi+508]
  0013a	89 45 f8	 mov	 DWORD PTR _iMaxPlayer$512233[ebp], eax
  0013d	e8 00 00 00 00	 call	 ?IsMonsterDungeonMode@Help@@YA_NW4ModeType@@@Z ; Help::IsMonsterDungeonMode
  00142	59		 pop	 ecx
  00143	84 c0		 test	 al, al
  00145	74 3d		 je	 SHORT $LN17@iwm_show

; 258  : 		{
; 259  : 			for(int i = 0;i < MAX_RANK_ELEMENT;i++)

  00147	33 c9		 xor	 ecx, ecx
  00149	8d 86 1c 02 00
	00		 lea	 eax, DWORD PTR [esi+540]
$LL16@iwm_show:

; 260  : 			{
; 261  : 				m_RankData[i].m_iCurRank = -1;

  0014f	83 48 f8 ff	 or	 DWORD PTR [eax-8], -1

; 262  : 				m_RankData[i].m_dwRollingTime = 0;
; 263  : 				m_RankData[i].m_dwRankUPTime  = 0;
; 264  : 
; 265  : 				if( m_RankData[i].m_iRank == -1 )

  00153	83 78 f4 ff	 cmp	 DWORD PTR [eax-12], -1
  00157	89 58 fc	 mov	 DWORD PTR [eax-4], ebx
  0015a	89 18		 mov	 DWORD PTR [eax], ebx
  0015c	74 18		 je	 SHORT $LN15@iwm_show

; 266  : 					continue;
; 267  : 
; 268  : 				m_RankData[i].m_dwRollingTime = m_dwStartTime + ( i * m_dwGapTime );

  0015e	8b 96 60 02 00
	00		 mov	 edx, DWORD PTR [esi+608]
  00164	0f af d1	 imul	 edx, ecx
  00167	03 96 5c 02 00
	00		 add	 edx, DWORD PTR [esi+604]
  0016d	89 50 fc	 mov	 DWORD PTR [eax-4], edx

; 269  : 				m_bRollingEnd = false;

  00170	88 9e 08 02 00
	00		 mov	 BYTE PTR [esi+520], bl
$LN15@iwm_show:

; 258  : 		{
; 259  : 			for(int i = 0;i < MAX_RANK_ELEMENT;i++)

  00176	41		 inc	 ecx
  00177	83 c0 10	 add	 eax, 16			; 00000010H
  0017a	83 f9 04	 cmp	 ecx, 4
  0017d	7c d0		 jl	 SHORT $LL16@iwm_show

; 270  : 			}
; 271  : 		}
; 272  : 		else

  0017f	e9 e4 00 00 00	 jmp	 $LN9@iwm_show
$LN17@iwm_show:

; 273  : 		{
; 274  : 			for(int i = 0;i < MAX_RANK_ELEMENT;i++)

  00184	8b cf		 mov	 ecx, edi
$LL11@iwm_show:

; 275  : 			{
; 276  : 				m_RankData[i].m_iCurRank = -1;
; 277  : 				m_RankData[i].m_dwRollingTime = 0;
; 278  : 				m_RankData[i].m_dwRankUPTime  = 0;
; 279  : 
; 280  : 				if( m_RankData[i].m_iRank == -1 )

  00186	8b 01		 mov	 eax, DWORD PTR [ecx]
  00188	83 49 04 ff	 or	 DWORD PTR [ecx+4], -1
  0018c	33 d2		 xor	 edx, edx
  0018e	89 51 08	 mov	 DWORD PTR [ecx+8], edx
  00191	89 51 0c	 mov	 DWORD PTR [ecx+12], edx
  00194	83 f8 ff	 cmp	 eax, -1
  00197	0f 84 be 00 00
	00		 je	 $LN10@iwm_show

; 281  : 					continue;
; 282  : 
; 283  : 				if( (float)m_RankData[i].m_iRank < (float)iMaxPlayer * 0.25f )

  0019d	66 0f 6e 45 f8	 movd	 xmm0, DWORD PTR _iMaxPlayer$512233[ebp]
  001a2	0f 5b c0	 cvtdq2ps xmm0, xmm0
  001a5	0f 57 c9	 xorps	 xmm1, xmm1
  001a8	0f 57 d2	 xorps	 xmm2, xmm2
  001ab	f3 0f 2a c8	 cvtsi2ss xmm1, eax
  001af	f3 0f 5a d0	 cvtss2sd xmm2, xmm0
  001b3	f2 0f 59 15 00
	00 00 00	 mulsd	 xmm2, QWORD PTR __real@3fd0000000000000
  001bb	0f 5a c9	 cvtps2pd xmm1, xmm1
  001be	66 0f 2f d1	 comisd	 xmm2, xmm1
  001c2	f3 0f 11 45 f0	 movss	 DWORD PTR tv426[ebp], xmm0
  001c7	76 04		 jbe	 SHORT $LN7@iwm_show

; 284  : 					m_RankData[i].m_iRank = S_RANK;

  001c9	89 11		 mov	 DWORD PTR [ecx], edx
  001cb	eb 75		 jmp	 SHORT $LN2@iwm_show
$LN7@iwm_show:

; 285  : 				else if( (float)m_RankData[i].m_iRank < (float)iMaxPlayer * FLOAT05 )

  001cd	b8 05 00 00 00	 mov	 eax, 5
  001d2	8b d0		 mov	 edx, eax
  001d4	b8 0a 00 00 00	 mov	 eax, 10			; 0000000aH
  001d9	db 01		 fild	 DWORD PTR [ecx]
  001db	89 55 f4	 mov	 DWORD PTR tv664[ebp], edx
  001de	d9 5d fc	 fstp	 DWORD PTR tv683[ebp]
  001e1	d9 45 fc	 fld	 DWORD PTR tv683[ebp]
  001e4	db 45 f4	 fild	 DWORD PTR tv664[ebp]
  001e7	85 d2		 test	 edx, edx
  001e9	79 06		 jns	 SHORT $LN38@iwm_show
  001eb	d8 05 00 00 00
	00		 fadd	 DWORD PTR __real@4f800000
$LN38@iwm_show:
  001f1	89 45 f4	 mov	 DWORD PTR tv660[ebp], eax
  001f4	db 45 f4	 fild	 DWORD PTR tv660[ebp]
  001f7	85 c0		 test	 eax, eax
  001f9	79 06		 jns	 SHORT $LN39@iwm_show
  001fb	d8 05 00 00 00
	00		 fadd	 DWORD PTR __real@4f800000
$LN39@iwm_show:
  00201	de f9		 fdivp	 ST(1), ST(0)
  00203	d9 5d f4	 fstp	 DWORD PTR tv656[ebp]
  00206	d9 45 f4	 fld	 DWORD PTR tv656[ebp]
  00209	d8 4d f0	 fmul	 DWORD PTR tv426[ebp]
  0020c	df f1		 fcomip	 ST(1)
  0020e	dd d8		 fstp	 ST(0)
  00210	76 08		 jbe	 SHORT $LN5@iwm_show

; 286  : 					m_RankData[i].m_iRank = A_RANK;

  00212	c7 01 01 00 00
	00		 mov	 DWORD PTR [ecx], 1
  00218	eb 28		 jmp	 SHORT $LN2@iwm_show
$LN5@iwm_show:

; 287  : 				else if( (float)m_RankData[i].m_iRank < (float)iMaxPlayer * 0.75f )

  0021a	f3 0f 10 4d fc	 movss	 xmm1, DWORD PTR tv683[ebp]
  0021f	f3 0f 5a c0	 cvtss2sd xmm0, xmm0
  00223	f2 0f 59 05 00
	00 00 00	 mulsd	 xmm0, QWORD PTR __real@3fe8000000000000
  0022b	0f 5a c9	 cvtps2pd xmm1, xmm1
  0022e	66 0f 2f c1	 comisd	 xmm0, xmm1
  00232	76 08		 jbe	 SHORT $LN3@iwm_show

; 288  : 					m_RankData[i].m_iRank = B_RANK;

  00234	c7 01 02 00 00
	00		 mov	 DWORD PTR [ecx], 2

; 289  : 				else 

  0023a	eb 06		 jmp	 SHORT $LN2@iwm_show
$LN3@iwm_show:

; 290  : 					m_RankData[i].m_iRank = C_RANK;

  0023c	c7 01 03 00 00
	00		 mov	 DWORD PTR [ecx], 3
$LN2@iwm_show:

; 291  : 
; 292  : 				m_RankData[i].m_dwRollingTime = m_dwStartTime + ( i * m_dwGapTime );

  00242	8b 86 60 02 00
	00		 mov	 eax, DWORD PTR [esi+608]
  00248	0f af c3	 imul	 eax, ebx
  0024b	03 86 5c 02 00
	00		 add	 eax, DWORD PTR [esi+604]
  00251	89 41 08	 mov	 DWORD PTR [ecx+8], eax

; 293  : 				m_bRollingEnd = false;

  00254	c6 86 08 02 00
	00 00		 mov	 BYTE PTR [esi+520], 0
$LN10@iwm_show:

; 273  : 		{
; 274  : 			for(int i = 0;i < MAX_RANK_ELEMENT;i++)

  0025b	43		 inc	 ebx
  0025c	83 c1 10	 add	 ecx, 16			; 00000010H
  0025f	83 fb 04	 cmp	 ebx, 4
  00262	0f 8c 1e ff ff
	ff		 jl	 $LL11@iwm_show
$LN9@iwm_show:

; 294  : 			}
; 295  : 		}
; 296  : 
; 297  : 		if( !m_bRollingEnd )

  00268	80 be 08 02 00
	00 00		 cmp	 BYTE PTR [esi+520], 0
  0026f	75 19		 jne	 SHORT $LN1@iwm_show

; 298  : 		{	
; 299  : 			g_SoundMgr.PlaySound( m_RollingSound, DSBVOLUME_MAX, PSM_LOOP | PSM_THREAD );

  00271	6a 06		 push	 6
  00273	6a 00		 push	 0
  00275	81 c6 d8 01 00
	00		 add	 esi, 472		; 000001d8H
  0027b	56		 push	 esi
  0027c	ff 15 00 00 00
	00		 call	 DWORD PTR __imp_?GetSingleton@ioSoundManager@@SAAAV1@XZ
  00282	8b c8		 mov	 ecx, eax
  00284	ff 15 00 00 00
	00		 call	 DWORD PTR __imp_?PlaySoundA@ioSoundManager@@QAEKABVioHashString@@HK@Z
$LN1@iwm_show:
  0028a	5f		 pop	 edi
  0028b	5e		 pop	 esi
  0028c	5b		 pop	 ebx

; 300  : 		}
; 301  : 	}
; 302  : }

  0028d	c9		 leave
  0028e	c3		 ret	 0
?iwm_show@ModeRankWnd@@UAEXXZ ENDP			; ModeRankWnd::iwm_show
_TEXT	ENDS
EXTRN	__imp_?SetPositionToDefault@ioMovingWnd@@UAEXHH_N0@Z:PROC
; Function compile flags: /Ogsp
;	COMDAT ?SetPositionToDefault@ModeRankWnd@@UAEXHH_N0@Z
_TEXT	SEGMENT
_iParentWidth$ = 8					; size = 4
_iParentHeight$ = 12					; size = 4
_bChildMove$ = 16					; size = 1
_bCreate$ = 20						; size = 1
?SetPositionToDefault@ModeRankWnd@@UAEXHH_N0@Z PROC	; ModeRankWnd::SetPositionToDefault, COMDAT
; _this$ = ecx

; 314  : {

  00000	55		 push	 ebp
  00001	8b ec		 mov	 ebp, esp
  00003	56		 push	 esi

; 315  : 	ioMovingWnd::SetPositionToDefault( iParentWidth, iParentHeight, bChildMove, bCreate );

  00004	ff 75 14	 push	 DWORD PTR _bCreate$[ebp]
  00007	8b f1		 mov	 esi, ecx
  00009	ff 75 10	 push	 DWORD PTR _bChildMove$[ebp]
  0000c	ff 75 0c	 push	 DWORD PTR _iParentHeight$[ebp]
  0000f	ff 75 08	 push	 DWORD PTR _iParentWidth$[ebp]
  00012	ff 15 00 00 00
	00		 call	 DWORD PTR __imp_?SetPositionToDefault@ioMovingWnd@@UAEXHH_N0@Z

; 316  : 
; 317  : 	if( !bCreate )

  00018	80 7d 14 00	 cmp	 BYTE PTR _bCreate$[ebp], 0
  0001c	75 4b		 jne	 SHORT $LN3@SetPositio@2

; 318  : 	{
; 319  : 		SetPositionByRankType( m_iRankType );

  0001e	57		 push	 edi
  0001f	ff b6 04 02 00
	00		 push	 DWORD PTR [esi+516]
  00025	8b ce		 mov	 ecx, esi
  00027	e8 00 00 00 00	 call	 ?SetPositionByRankType@ModeRankWnd@@IAEXH@Z ; ModeRankWnd::SetPositionByRankType

; 320  : 
; 321  : 		if( m_iRankType == DEATH_TYPE || m_iRankType == TABKEY_TYPE )

  0002c	8b be 04 02 00
	00		 mov	 edi, DWORD PTR [esi+516]
  00032	83 ff 01	 cmp	 edi, 1
  00035	74 05		 je	 SHORT $LN1@SetPositio@2
  00037	83 ff 03	 cmp	 edi, 3
  0003a	75 1c		 jne	 SHORT $LN2@SetPositio@2
$LN1@SetPositio@2:

; 322  : 		{
; 323  : 			m_iDefaultX = GetXPos();

  0003c	8b ce		 mov	 ecx, esi
  0003e	ff 15 00 00 00
	00		 call	 DWORD PTR __imp_?GetXPos@ioWnd@@QBEHXZ

; 324  : 			m_iDefaultY = GetYPos();

  00044	8b ce		 mov	 ecx, esi
  00046	89 86 68 02 00
	00		 mov	 DWORD PTR [esi+616], eax
  0004c	ff 15 00 00 00
	00		 call	 DWORD PTR __imp_?GetYPos@ioWnd@@QBEHXZ
  00052	89 86 6c 02 00
	00		 mov	 DWORD PTR [esi+620], eax
$LN2@SetPositio@2:

; 325  : 		}
; 326  : 
; 327  : 		m_bPosSave = false;
; 328  : 		UIPositionSave( true );

  00058	6a 01		 push	 1
  0005a	8b ce		 mov	 ecx, esi
  0005c	c6 86 00 02 00
	00 00		 mov	 BYTE PTR [esi+512], 0
  00063	e8 00 00 00 00	 call	 ?UIPositionSave@ModeRankWnd@@IAEX_N@Z ; ModeRankWnd::UIPositionSave
  00068	5f		 pop	 edi
$LN3@SetPositio@2:
  00069	5e		 pop	 esi

; 329  : 	}
; 330  : }

  0006a	5d		 pop	 ebp
  0006b	c2 10 00	 ret	 16			; 00000010H
?SetPositionToDefault@ModeRankWnd@@UAEXHH_N0@Z ENDP	; ModeRankWnd::SetPositionToDefault
_TEXT	ENDS
EXTRN	__imp_?OnRender@ioWnd@@MAEXXZ:PROC
EXTRN	?IsObserverUser@ioBattleRoomMgr@@QAE_NABVioHashString@@@Z:PROC ; ioBattleRoomMgr::IsObserverUser
EXTRN	?GetSingleton@ioBattleRoomMgr@@SAAAV1@XZ:PROC	; ioBattleRoomMgr::GetSingleton
EXTRN	?GetSingleton@ioMyInfo@@SAAAV1@XZ:PROC		; ioMyInfo::GetSingleton
; Function compile flags: /Ogsp
;	COMDAT ?OnRender@ModeRankWnd@@MAEXXZ
_TEXT	SEGMENT
?OnRender@ModeRankWnd@@MAEXXZ PROC			; ModeRankWnd::OnRender, COMDAT
; _this$ = ecx

; 556  : {

  00000	56		 push	 esi
  00001	8b f1		 mov	 esi, ecx

; 557  : 	//   
; 558  : 	if( g_BattleRoomMgr.IsObserverUser( g_MyInfo.GetPublicID() ) )

  00003	e8 00 00 00 00	 call	 ?GetSingleton@ioMyInfo@@SAAAV1@XZ ; ioMyInfo::GetSingleton
  00008	83 c0 1c	 add	 eax, 28			; 0000001cH
  0000b	50		 push	 eax
  0000c	e8 00 00 00 00	 call	 ?GetSingleton@ioBattleRoomMgr@@SAAAV1@XZ ; ioBattleRoomMgr::GetSingleton
  00011	8b c8		 mov	 ecx, eax
  00013	e8 00 00 00 00	 call	 ?IsObserverUser@ioBattleRoomMgr@@QAE_NABVioHashString@@@Z ; ioBattleRoomMgr::IsObserverUser
  00018	84 c0		 test	 al, al
  0001a	0f 85 df 00 00
	00		 jne	 $LN14@OnRender

; 559  : 		return;
; 560  : 
; 561  : 	//   
; 562  : 	if( m_eModeType == MT_FOOTBALL )

  00020	83 be fc 01 00
	00 09		 cmp	 DWORD PTR [esi+508], 9
  00027	57		 push	 edi
  00028	0f 84 d0 00 00
	00		 je	 $LN23@OnRender

; 563  : 		return;
; 564  : 
; 565  : 	ioWnd::OnRender();

  0002e	8b ce		 mov	 ecx, esi
  00030	ff 15 00 00 00
	00		 call	 DWORD PTR __imp_?OnRender@ioWnd@@MAEXXZ

; 566  : 
; 567  : 	switch( m_eModeType )

  00036	8b 86 fc 01 00
	00		 mov	 eax, DWORD PTR [esi+508]
  0003c	48		 dec	 eax
  0003d	83 f8 1a	 cmp	 eax, 26			; 0000001aH
  00040	0f 87 b8 00 00
	00		 ja	 $LN23@OnRender
  00046	0f b6 80 00 00
	00 00		 movzx	 eax, BYTE PTR $LN22@OnRender[eax]
  0004d	ff 24 85 00 00
	00 00		 jmp	 DWORD PTR $LN25@OnRender[eax*4]
$LN12@OnRender:

; 568  : 	{
; 569  : 	case MT_SURVIVAL:
; 570  : 	case MT_SHUFFLE_BONUS:
; 571  : 		RenderRank( m_pKillPoint, m_pAttackPoint, m_pDamagePoint, NULL );
; 572  : 		break;
; 573  : 	case MT_SYMBOL:
; 574  : 		RenderRank( m_pStonePoint, m_pKillPoint, m_pAttackPoint, m_pDamagePoint );

  00054	ff b6 a4 01 00
	00		 push	 DWORD PTR [esi+420]
  0005a	ff b6 a0 01 00
	00		 push	 DWORD PTR [esi+416]
  00060	ff b6 9c 01 00
	00		 push	 DWORD PTR [esi+412]
  00066	ff b6 90 01 00
	00		 push	 DWORD PTR [esi+400]

; 575  : 		break;

  0006c	e9 86 00 00 00	 jmp	 $LN24@OnRender
$LN11@OnRender:

; 576  : 	case MT_TOWER_DEFENSE:
; 577  : 	case MT_DARK_XMAS:
; 578  : 	case MT_FIRE_TEMPLE:
; 579  : 	case MT_FACTORY:
; 580  : 		RenderRank( m_pNpcKillPts, m_pNpcTowerPts, m_pTimePts, NULL );

  00071	6a 00		 push	 0
  00073	ff b6 b0 01 00
	00		 push	 DWORD PTR [esi+432]
  00079	ff b6 ac 01 00
	00		 push	 DWORD PTR [esi+428]
  0007f	ff b6 a8 01 00
	00		 push	 DWORD PTR [esi+424]

; 581  : 		break;

  00085	eb 70		 jmp	 SHORT $LN24@OnRender
$LN9@OnRender:

; 582  : 	case MT_RAID:
; 583  : 		RenderRank( m_pKillPoint, m_pAttackPoint, m_pDamagePoint, NULL );
; 584  : 		break;
; 585  : 	case MT_KING:
; 586  : 	case MT_DOUBLE_CROWN:
; 587  : 		RenderRank( m_pKingPoint, m_pKillPoint, m_pAttackPoint, m_pDamagePoint );

  00087	ff b6 a4 01 00
	00		 push	 DWORD PTR [esi+420]
  0008d	ff b6 a0 01 00
	00		 push	 DWORD PTR [esi+416]
  00093	ff b6 9c 01 00
	00		 push	 DWORD PTR [esi+412]
  00099	ff b6 98 01 00
	00		 push	 DWORD PTR [esi+408]

; 588  : 		break;

  0009f	eb 56		 jmp	 SHORT $LN24@OnRender
$LN8@OnRender:

; 589  : 	case MT_UNDERWEAR:
; 590  : 	case MT_CBT:
; 591  : 	case MT_CATCH:
; 592  : 	case MT_CATCH_RUNNINGMAN:
; 593  : 		RenderRank( m_pPrisonerPoint, m_pAttackPoint, m_pDamagePoint, NULL );

  000a1	6a 00		 push	 0
  000a3	ff b6 a4 01 00
	00		 push	 DWORD PTR [esi+420]
  000a9	ff b6 a0 01 00
	00		 push	 DWORD PTR [esi+416]
  000af	ff b6 94 01 00
	00		 push	 DWORD PTR [esi+404]

; 594  : 		break;

  000b5	eb 40		 jmp	 SHORT $LN24@OnRender
$LN4@OnRender:

; 595  : 	case MT_TEAM_SURVIVAL:
; 596  : 	case MT_TEAM_SURVIVAL_AI:
; 597  : 		RenderRank( m_pKillPoint, m_pAttackPoint, m_pDamagePoint, NULL );
; 598  : 		break;
; 599  : 	case MT_BOSS:
; 600  : 		RenderRank( m_pKillPoint, m_pAttackPoint, m_pDamagePoint, NULL );
; 601  : 		break;
; 602  : 	case MT_MONSTER_SURVIVAL:
; 603  : 		RenderRank( m_pKillPoint, m_pAttackPoint, m_pDamagePoint, NULL );
; 604  : 		break;
; 605  : 	case MT_FOOTBALL:
; 606  : 		RenderRank( m_pGoalPoint, m_pBallTouchPoint, m_pBallTimePoint, NULL );

  000b7	6a 00		 push	 0
  000b9	ff b6 bc 01 00
	00		 push	 DWORD PTR [esi+444]
  000bf	ff b6 b8 01 00
	00		 push	 DWORD PTR [esi+440]
  000c5	ff b6 b4 01 00
	00		 push	 DWORD PTR [esi+436]

; 607  : 		break;

  000cb	eb 2a		 jmp	 SHORT $LN24@OnRender
$LN2@OnRender:

; 608  : 	case MT_HEROMATCH:
; 609  : 		RenderRank( m_pPrisonerPoint, m_pAttackPoint, m_pDamagePoint, NULL );
; 610  : 		break;
; 611  : 	case MT_GANGSI:
; 612  : 		RenderRank( m_pGangsiInfectionPoint, m_pGangsiSurvivorPoint, m_pDamagePoint, NULL );

  000cd	6a 00		 push	 0
  000cf	ff b6 a4 01 00
	00		 push	 DWORD PTR [esi+420]
  000d5	ff b6 c4 01 00
	00		 push	 DWORD PTR [esi+452]
  000db	ff b6 c0 01 00
	00		 push	 DWORD PTR [esi+448]

; 613  : 		break;

  000e1	eb 14		 jmp	 SHORT $LN24@OnRender
$LN1@OnRender:

; 614  : 	case MT_DUNGEON_A:
; 615  : 		RenderRank( m_pKillPoint, m_pAttackPoint, m_pDamagePoint, NULL );

  000e3	6a 00		 push	 0
  000e5	ff b6 a4 01 00
	00		 push	 DWORD PTR [esi+420]
  000eb	ff b6 a0 01 00
	00		 push	 DWORD PTR [esi+416]
  000f1	ff b6 9c 01 00
	00		 push	 DWORD PTR [esi+412]
$LN24@OnRender:
  000f7	8b ce		 mov	 ecx, esi
  000f9	e8 00 00 00 00	 call	 ?RenderRank@ModeRankWnd@@IAEXPAVioUIRenderImage@@000@Z ; ModeRankWnd::RenderRank
$LN23@OnRender:
  000fe	5f		 pop	 edi
$LN14@OnRender:
  000ff	5e		 pop	 esi

; 616  : 		break;
; 617  : 	}
; 618  : }

  00100	c3		 ret	 0
  00101	8d 49 00	 npad	 3
$LN25@OnRender:
  00104	00 00 00 00	 DD	 $LN12@OnRender
  00108	00 00 00 00	 DD	 $LN8@OnRender
  0010c	00 00 00 00	 DD	 $LN9@OnRender
  00110	00 00 00 00	 DD	 $LN1@OnRender
  00114	00 00 00 00	 DD	 $LN4@OnRender
  00118	00 00 00 00	 DD	 $LN2@OnRender
  0011c	00 00 00 00	 DD	 $LN11@OnRender
  00120	00 00 00 00	 DD	 $LN23@OnRender
$LN22@OnRender:
  00124	00		 DB	 0
  00125	01		 DB	 1
  00126	02		 DB	 2
  00127	07		 DB	 7
  00128	03		 DB	 3
  00129	03		 DB	 3
  0012a	03		 DB	 3
  0012b	03		 DB	 3
  0012c	04		 DB	 4
  0012d	01		 DB	 1
  0012e	05		 DB	 5
  0012f	03		 DB	 3
  00130	07		 DB	 7
  00131	01		 DB	 1
  00132	07		 DB	 7
  00133	06		 DB	 6
  00134	06		 DB	 6
  00135	06		 DB	 6
  00136	02		 DB	 2
  00137	03		 DB	 3
  00138	06		 DB	 6
  00139	03		 DB	 3
  0013a	07		 DB	 7
  0013b	07		 DB	 7
  0013c	01		 DB	 1
  0013d	01		 DB	 1
  0013e	03		 DB	 3
?OnRender@ModeRankWnd@@MAEXXZ ENDP			; ModeRankWnd::OnRender
_TEXT	ENDS
PUBLIC	__$ArrayPad$
PUBLIC	??$GetStringAttribute_e@$0N@@ioXMLElement@@QBEPBDAAY0N@$$CBD@Z ; ioXMLElement::GetStringAttribute_e<13>
EXTRN	__imp_?GetStringAttribute@ioXMLElement@@QBEPBDPBD@Z:PROC
EXTRN	___security_cookie:DWORD
; Function compile flags: /Ogsp
; File d:\lost saga for developer\youtube\tutorial\source\src\io3dengine\ioxmlelement.h
;	COMDAT ??$GetStringAttribute_e@$0N@@ioXMLElement@@QBEPBDAAY0N@$$CBD@Z
_TEXT	SEGMENT
__k$ = -24						; size = 13
__$ArrayPad$ = -4					; size = 4
_k$ = 8							; size = 4
??$GetStringAttribute_e@$0N@@ioXMLElement@@QBEPBDAAY0N@$$CBD@Z PROC ; ioXMLElement::GetStringAttribute_e<13>, COMDAT
; _this$ = ecx

; 107  : 	{

  00000	55		 push	 ebp
  00001	8b ec		 mov	 ebp, esp
  00003	83 ec 18	 sub	 esp, 24			; 00000018H
  00006	a1 00 00 00 00	 mov	 eax, DWORD PTR ___security_cookie
  0000b	33 c5		 xor	 eax, ebp
  0000d	89 45 fc	 mov	 DWORD PTR __$ArrayPad$[ebp], eax
  00010	8b 45 08	 mov	 eax, DWORD PTR _k$[ebp]

; 108  : 		_ENCSTR(k, _k);

  00013	8a 10		 mov	 dl, BYTE PTR [eax]
  00015	56		 push	 esi
  00016	8b f1		 mov	 esi, ecx
  00018	84 d2		 test	 dl, dl
  0001a	0f 84 4d 01 00
	00		 je	 $LN96@GetStringA
  00020	80 f2 ed	 xor	 dl, -19			; ffffffedH
  00023	88 55 e8	 mov	 BYTE PTR __k$[ebp], dl
  00026	8a 50 01	 mov	 dl, BYTE PTR [eax+1]
  00029	84 d2		 test	 dl, dl
  0002b	0f 84 36 01 00
	00		 je	 $LN95@GetStringA
  00031	b1 ec		 mov	 cl, -20			; ffffffecH
  00033	32 d1		 xor	 dl, cl
  00035	88 55 e9	 mov	 BYTE PTR __k$[ebp+1], dl
  00038	8a 50 02	 mov	 dl, BYTE PTR [eax+2]
  0003b	84 d2		 test	 dl, dl
  0003d	0f 84 1e 01 00
	00		 je	 $LN94@GetStringA
  00043	80 f2 eb	 xor	 dl, -21			; ffffffebH
  00046	88 55 ea	 mov	 BYTE PTR __k$[ebp+2], dl
  00049	8a 50 03	 mov	 dl, BYTE PTR [eax+3]
  0004c	84 d2		 test	 dl, dl
  0004e	0f 84 07 01 00
	00		 je	 $LN93@GetStringA
  00054	80 f2 ea	 xor	 dl, -22			; ffffffeaH
  00057	88 55 eb	 mov	 BYTE PTR __k$[ebp+3], dl
  0005a	8a 50 04	 mov	 dl, BYTE PTR [eax+4]
  0005d	84 d2		 test	 dl, dl
  0005f	0f 84 f0 00 00
	00		 je	 $LN92@GetStringA
  00065	80 f2 ed	 xor	 dl, -19			; ffffffedH
  00068	88 55 ec	 mov	 BYTE PTR __k$[ebp+4], dl
  0006b	8a 50 05	 mov	 dl, BYTE PTR [eax+5]
  0006e	84 d2		 test	 dl, dl
  00070	0f 84 da 00 00
	00		 je	 $LN91@GetStringA
  00076	32 d1		 xor	 dl, cl
  00078	88 55 ed	 mov	 BYTE PTR __k$[ebp+5], dl
  0007b	8a 50 06	 mov	 dl, BYTE PTR [eax+6]
  0007e	84 d2		 test	 dl, dl
  00080	0f 84 c4 00 00
	00		 je	 $LN90@GetStringA
  00086	80 f2 eb	 xor	 dl, -21			; ffffffebH
  00089	88 55 ee	 mov	 BYTE PTR __k$[ebp+6], dl
  0008c	8a 50 07	 mov	 dl, BYTE PTR [eax+7]
  0008f	84 d2		 test	 dl, dl
  00091	0f 84 ad 00 00
	00		 je	 $LN89@GetStringA
  00097	80 f2 ea	 xor	 dl, -22			; ffffffeaH
  0009a	88 55 ef	 mov	 BYTE PTR __k$[ebp+7], dl
  0009d	8a 50 08	 mov	 dl, BYTE PTR [eax+8]
  000a0	84 d2		 test	 dl, dl
  000a2	0f 84 96 00 00
	00		 je	 $LN88@GetStringA
  000a8	80 f2 ed	 xor	 dl, -19			; ffffffedH
  000ab	88 55 f0	 mov	 BYTE PTR __k$[ebp+8], dl
  000ae	8a 50 09	 mov	 dl, BYTE PTR [eax+9]
  000b1	84 d2		 test	 dl, dl
  000b3	0f 84 80 00 00
	00		 je	 $LN87@GetStringA
  000b9	32 d1		 xor	 dl, cl
  000bb	88 55 f1	 mov	 BYTE PTR __k$[ebp+9], dl
  000be	8a 50 0a	 mov	 dl, BYTE PTR [eax+10]
  000c1	84 d2		 test	 dl, dl
  000c3	74 6e		 je	 SHORT $LN86@GetStringA
  000c5	80 f2 eb	 xor	 dl, -21			; ffffffebH
  000c8	88 55 f2	 mov	 BYTE PTR __k$[ebp+10], dl
  000cb	8a 50 0b	 mov	 dl, BYTE PTR [eax+11]
  000ce	84 d2		 test	 dl, dl
  000d0	74 5b		 je	 SHORT $LN85@GetStringA
  000d2	80 f2 ea	 xor	 dl, -22			; ffffffeaH
  000d5	80 78 0c 00	 cmp	 BYTE PTR [eax+12], 0
  000d9	88 55 f3	 mov	 BYTE PTR __k$[ebp+11], dl
  000dc	0f 84 8f 00 00
	00		 je	 $LN1@GetStringA
  000e2	8a 50 0d	 mov	 dl, BYTE PTR [eax+13]
  000e5	84 d2		 test	 dl, dl
  000e7	74 3f		 je	 SHORT $LN83@GetStringA
  000e9	32 d1		 xor	 dl, cl
  000eb	88 55 f5	 mov	 BYTE PTR __k$[ebp+13], dl
  000ee	8a 50 0e	 mov	 dl, BYTE PTR [eax+14]
  000f1	84 d2		 test	 dl, dl
  000f3	74 2d		 je	 SHORT $LN82@GetStringA
  000f5	80 f2 eb	 xor	 dl, -21			; ffffffebH
  000f8	88 55 f6	 mov	 BYTE PTR __k$[ebp+14], dl
  000fb	8a 50 0f	 mov	 dl, BYTE PTR [eax+15]
  000fe	84 d2		 test	 dl, dl
  00100	74 1a		 je	 SHORT $LN81@GetStringA
  00102	8a 40 10	 mov	 al, BYTE PTR [eax+16]
  00105	80 f2 ea	 xor	 dl, -22			; ffffffeaH
  00108	88 55 f7	 mov	 BYTE PTR __k$[ebp+15], dl
  0010b	84 c0		 test	 al, al
  0010d	74 07		 je	 SHORT $LN80@GetStringA
  0010f	34 ed		 xor	 al, -19			; ffffffedH
  00111	88 45 f8	 mov	 BYTE PTR __k$[ebp+16], al
  00114	eb 5b		 jmp	 SHORT $LN1@GetStringA
$LN80@GetStringA:
  00116	c6 45 f8 ed	 mov	 BYTE PTR __k$[ebp+16], -19 ; ffffffedH
  0011a	eb 55		 jmp	 SHORT $LN1@GetStringA
$LN81@GetStringA:
  0011c	c6 45 f7 ea	 mov	 BYTE PTR __k$[ebp+15], -22 ; ffffffeaH
  00120	eb 4f		 jmp	 SHORT $LN1@GetStringA
$LN82@GetStringA:
  00122	c6 45 f6 eb	 mov	 BYTE PTR __k$[ebp+14], -21 ; ffffffebH
  00126	eb 49		 jmp	 SHORT $LN1@GetStringA
$LN83@GetStringA:
  00128	88 4d f5	 mov	 BYTE PTR __k$[ebp+13], cl
  0012b	eb 44		 jmp	 SHORT $LN1@GetStringA
$LN85@GetStringA:
  0012d	c6 45 f3 ea	 mov	 BYTE PTR __k$[ebp+11], -22 ; ffffffeaH
  00131	eb 3e		 jmp	 SHORT $LN1@GetStringA
$LN86@GetStringA:
  00133	c6 45 f2 eb	 mov	 BYTE PTR __k$[ebp+10], -21 ; ffffffebH
  00137	eb 38		 jmp	 SHORT $LN1@GetStringA
$LN87@GetStringA:
  00139	88 4d f1	 mov	 BYTE PTR __k$[ebp+9], cl
  0013c	eb 33		 jmp	 SHORT $LN1@GetStringA
$LN88@GetStringA:
  0013e	c6 45 f0 ed	 mov	 BYTE PTR __k$[ebp+8], -19 ; ffffffedH
  00142	eb 2d		 jmp	 SHORT $LN1@GetStringA
$LN89@GetStringA:
  00144	c6 45 ef ea	 mov	 BYTE PTR __k$[ebp+7], -22 ; ffffffeaH
  00148	eb 27		 jmp	 SHORT $LN1@GetStringA
$LN90@GetStringA:
  0014a	c6 45 ee eb	 mov	 BYTE PTR __k$[ebp+6], -21 ; ffffffebH
  0014e	eb 21		 jmp	 SHORT $LN1@GetStringA
$LN91@GetStringA:
  00150	88 4d ed	 mov	 BYTE PTR __k$[ebp+5], cl
  00153	eb 1c		 jmp	 SHORT $LN1@GetStringA
$LN92@GetStringA:
  00155	c6 45 ec ed	 mov	 BYTE PTR __k$[ebp+4], -19 ; ffffffedH
  00159	eb 16		 jmp	 SHORT $LN1@GetStringA
$LN93@GetStringA:
  0015b	c6 45 eb ea	 mov	 BYTE PTR __k$[ebp+3], -22 ; ffffffeaH
  0015f	eb 10		 jmp	 SHORT $LN1@GetStringA
$LN94@GetStringA:
  00161	c6 45 ea eb	 mov	 BYTE PTR __k$[ebp+2], -21 ; ffffffebH
  00165	eb 0a		 jmp	 SHORT $LN1@GetStringA
$LN95@GetStringA:
  00167	c6 45 e9 ec	 mov	 BYTE PTR __k$[ebp+1], -20 ; ffffffecH
  0016b	eb 04		 jmp	 SHORT $LN1@GetStringA
$LN96@GetStringA:
  0016d	c6 45 e8 ed	 mov	 BYTE PTR __k$[ebp], -19	; ffffffedH
$LN1@GetStringA:
  00171	6a 03		 push	 3
  00173	8d 45 e8	 lea	 eax, DWORD PTR __k$[ebp]
  00176	c6 45 f4 00	 mov	 BYTE PTR __k$[ebp+12], 0
  0017a	5a		 pop	 edx
$LL104@GetStringA:
  0017b	81 30 ed ec eb
	ea		 xor	 DWORD PTR [eax], -353637139 ; eaebecedH
  00181	83 c0 04	 add	 eax, 4
  00184	4a		 dec	 edx
  00185	75 f4		 jne	 SHORT $LL104@GetStringA

; 109  : 		return GetStringAttribute(_k);

  00187	8d 45 e8	 lea	 eax, DWORD PTR __k$[ebp]
  0018a	50		 push	 eax
  0018b	8b ce		 mov	 ecx, esi
  0018d	ff 15 00 00 00
	00		 call	 DWORD PTR __imp_?GetStringAttribute@ioXMLElement@@QBEPBDPBD@Z

; 110  : 	}

  00193	8b 4d fc	 mov	 ecx, DWORD PTR __$ArrayPad$[ebp]
  00196	33 cd		 xor	 ecx, ebp
  00198	5e		 pop	 esi
  00199	e8 00 00 00 00	 call	 @__security_check_cookie@4
  0019e	c9		 leave
  0019f	c2 04 00	 ret	 4
??$GetStringAttribute_e@$0N@@ioXMLElement@@QBEPBDAAY0N@$$CBD@Z ENDP ; ioXMLElement::GetStringAttribute_e<13>
_TEXT	ENDS
PUBLIC	__$ArrayPad$
PUBLIC	??$GetStringAttribute_e@$0BB@@ioXMLElement@@QBEPBDAAY0BB@$$CBD@Z ; ioXMLElement::GetStringAttribute_e<17>
; Function compile flags: /Ogsp
;	COMDAT ??$GetStringAttribute_e@$0BB@@ioXMLElement@@QBEPBDAAY0BB@$$CBD@Z
_TEXT	SEGMENT
__k$ = -28						; size = 17
__$ArrayPad$ = -4					; size = 4
_k$ = 8							; size = 4
??$GetStringAttribute_e@$0BB@@ioXMLElement@@QBEPBDAAY0BB@$$CBD@Z PROC ; ioXMLElement::GetStringAttribute_e<17>, COMDAT
; _this$ = ecx

; 107  : 	{

  00000	55		 push	 ebp
  00001	8b ec		 mov	 ebp, esp
  00003	83 ec 1c	 sub	 esp, 28			; 0000001cH
  00006	a1 00 00 00 00	 mov	 eax, DWORD PTR ___security_cookie
  0000b	33 c5		 xor	 eax, ebp
  0000d	89 45 fc	 mov	 DWORD PTR __$ArrayPad$[ebp], eax
  00010	8b 45 08	 mov	 eax, DWORD PTR _k$[ebp]

; 108  : 		_ENCSTR(k, _k);

  00013	8a 10		 mov	 dl, BYTE PTR [eax]
  00015	56		 push	 esi
  00016	8b f1		 mov	 esi, ecx
  00018	84 d2		 test	 dl, dl
  0001a	0f 84 a7 01 00
	00		 je	 $LN96@GetStringA@2
  00020	80 f2 ed	 xor	 dl, -19			; ffffffedH
  00023	88 55 e4	 mov	 BYTE PTR __k$[ebp], dl
  00026	8a 50 01	 mov	 dl, BYTE PTR [eax+1]
  00029	84 d2		 test	 dl, dl
  0002b	0f 84 90 01 00
	00		 je	 $LN95@GetStringA@2
  00031	b1 ec		 mov	 cl, -20			; ffffffecH
  00033	32 d1		 xor	 dl, cl
  00035	88 55 e5	 mov	 BYTE PTR __k$[ebp+1], dl
  00038	8a 50 02	 mov	 dl, BYTE PTR [eax+2]
  0003b	84 d2		 test	 dl, dl
  0003d	0f 84 78 01 00
	00		 je	 $LN94@GetStringA@2
  00043	80 f2 eb	 xor	 dl, -21			; ffffffebH
  00046	88 55 e6	 mov	 BYTE PTR __k$[ebp+2], dl
  00049	8a 50 03	 mov	 dl, BYTE PTR [eax+3]
  0004c	84 d2		 test	 dl, dl
  0004e	0f 84 61 01 00
	00		 je	 $LN93@GetStringA@2
  00054	80 f2 ea	 xor	 dl, -22			; ffffffeaH
  00057	88 55 e7	 mov	 BYTE PTR __k$[ebp+3], dl
  0005a	8a 50 04	 mov	 dl, BYTE PTR [eax+4]
  0005d	84 d2		 test	 dl, dl
  0005f	0f 84 4a 01 00
	00		 je	 $LN92@GetStringA@2
  00065	80 f2 ed	 xor	 dl, -19			; ffffffedH
  00068	88 55 e8	 mov	 BYTE PTR __k$[ebp+4], dl
  0006b	8a 50 05	 mov	 dl, BYTE PTR [eax+5]
  0006e	84 d2		 test	 dl, dl
  00070	0f 84 34 01 00
	00		 je	 $LN91@GetStringA@2
  00076	32 d1		 xor	 dl, cl
  00078	88 55 e9	 mov	 BYTE PTR __k$[ebp+5], dl
  0007b	8a 50 06	 mov	 dl, BYTE PTR [eax+6]
  0007e	84 d2		 test	 dl, dl
  00080	0f 84 1e 01 00
	00		 je	 $LN90@GetStringA@2
  00086	80 f2 eb	 xor	 dl, -21			; ffffffebH
  00089	88 55 ea	 mov	 BYTE PTR __k$[ebp+6], dl
  0008c	8a 50 07	 mov	 dl, BYTE PTR [eax+7]
  0008f	84 d2		 test	 dl, dl
  00091	0f 84 07 01 00
	00		 je	 $LN89@GetStringA@2
  00097	80 f2 ea	 xor	 dl, -22			; ffffffeaH
  0009a	88 55 eb	 mov	 BYTE PTR __k$[ebp+7], dl
  0009d	8a 50 08	 mov	 dl, BYTE PTR [eax+8]
  000a0	84 d2		 test	 dl, dl
  000a2	0f 84 f0 00 00
	00		 je	 $LN88@GetStringA@2
  000a8	80 f2 ed	 xor	 dl, -19			; ffffffedH
  000ab	88 55 ec	 mov	 BYTE PTR __k$[ebp+8], dl
  000ae	8a 50 09	 mov	 dl, BYTE PTR [eax+9]
  000b1	84 d2		 test	 dl, dl
  000b3	0f 84 da 00 00
	00		 je	 $LN87@GetStringA@2
  000b9	32 d1		 xor	 dl, cl
  000bb	88 55 ed	 mov	 BYTE PTR __k$[ebp+9], dl
  000be	8a 50 0a	 mov	 dl, BYTE PTR [eax+10]
  000c1	84 d2		 test	 dl, dl
  000c3	0f 84 c4 00 00
	00		 je	 $LN86@GetStringA@2
  000c9	80 f2 eb	 xor	 dl, -21			; ffffffebH
  000cc	88 55 ee	 mov	 BYTE PTR __k$[ebp+10], dl
  000cf	8a 50 0b	 mov	 dl, BYTE PTR [eax+11]
  000d2	84 d2		 test	 dl, dl
  000d4	0f 84 ad 00 00
	00		 je	 $LN85@GetStringA@2
  000da	80 f2 ea	 xor	 dl, -22			; ffffffeaH
  000dd	88 55 ef	 mov	 BYTE PTR __k$[ebp+11], dl
  000e0	8a 50 0c	 mov	 dl, BYTE PTR [eax+12]
  000e3	84 d2		 test	 dl, dl
  000e5	0f 84 96 00 00
	00		 je	 $LN84@GetStringA@2
  000eb	80 f2 ed	 xor	 dl, -19			; ffffffedH
  000ee	88 55 f0	 mov	 BYTE PTR __k$[ebp+12], dl
  000f1	8a 50 0d	 mov	 dl, BYTE PTR [eax+13]
  000f4	84 d2		 test	 dl, dl
  000f6	0f 84 80 00 00
	00		 je	 $LN83@GetStringA@2
  000fc	32 d1		 xor	 dl, cl
  000fe	88 55 f1	 mov	 BYTE PTR __k$[ebp+13], dl
  00101	8a 50 0e	 mov	 dl, BYTE PTR [eax+14]
  00104	84 d2		 test	 dl, dl
  00106	74 6e		 je	 SHORT $LN82@GetStringA@2
  00108	80 f2 eb	 xor	 dl, -21			; ffffffebH
  0010b	88 55 f2	 mov	 BYTE PTR __k$[ebp+14], dl
  0010e	8a 50 0f	 mov	 dl, BYTE PTR [eax+15]
  00111	84 d2		 test	 dl, dl
  00113	74 5b		 je	 SHORT $LN81@GetStringA@2
  00115	80 f2 ea	 xor	 dl, -22			; ffffffeaH
  00118	80 78 10 00	 cmp	 BYTE PTR [eax+16], 0
  0011c	88 55 f3	 mov	 BYTE PTR __k$[ebp+15], dl
  0011f	0f 84 a6 00 00
	00		 je	 $LN1@GetStringA@2
  00125	8a 50 11	 mov	 dl, BYTE PTR [eax+17]
  00128	84 d2		 test	 dl, dl
  0012a	74 3f		 je	 SHORT $LN79@GetStringA@2
  0012c	32 d1		 xor	 dl, cl
  0012e	88 55 f5	 mov	 BYTE PTR __k$[ebp+17], dl
  00131	8a 50 12	 mov	 dl, BYTE PTR [eax+18]
  00134	84 d2		 test	 dl, dl
  00136	74 2d		 je	 SHORT $LN78@GetStringA@2
  00138	80 f2 eb	 xor	 dl, -21			; ffffffebH
  0013b	88 55 f6	 mov	 BYTE PTR __k$[ebp+18], dl
  0013e	8a 50 13	 mov	 dl, BYTE PTR [eax+19]
  00141	84 d2		 test	 dl, dl
  00143	74 1a		 je	 SHORT $LN77@GetStringA@2
  00145	8a 40 14	 mov	 al, BYTE PTR [eax+20]
  00148	80 f2 ea	 xor	 dl, -22			; ffffffeaH
  0014b	88 55 f7	 mov	 BYTE PTR __k$[ebp+19], dl
  0014e	84 c0		 test	 al, al
  00150	74 07		 je	 SHORT $LN76@GetStringA@2
  00152	34 ed		 xor	 al, -19			; ffffffedH
  00154	88 45 f8	 mov	 BYTE PTR __k$[ebp+20], al
  00157	eb 72		 jmp	 SHORT $LN1@GetStringA@2
$LN76@GetStringA@2:
  00159	c6 45 f8 ed	 mov	 BYTE PTR __k$[ebp+20], -19 ; ffffffedH
  0015d	eb 6c		 jmp	 SHORT $LN1@GetStringA@2
$LN77@GetStringA@2:
  0015f	c6 45 f7 ea	 mov	 BYTE PTR __k$[ebp+19], -22 ; ffffffeaH
  00163	eb 66		 jmp	 SHORT $LN1@GetStringA@2
$LN78@GetStringA@2:
  00165	c6 45 f6 eb	 mov	 BYTE PTR __k$[ebp+18], -21 ; ffffffebH
  00169	eb 60		 jmp	 SHORT $LN1@GetStringA@2
$LN79@GetStringA@2:
  0016b	88 4d f5	 mov	 BYTE PTR __k$[ebp+17], cl
  0016e	eb 5b		 jmp	 SHORT $LN1@GetStringA@2
$LN81@GetStringA@2:
  00170	c6 45 f3 ea	 mov	 BYTE PTR __k$[ebp+15], -22 ; ffffffeaH
  00174	eb 55		 jmp	 SHORT $LN1@GetStringA@2
$LN82@GetStringA@2:
  00176	c6 45 f2 eb	 mov	 BYTE PTR __k$[ebp+14], -21 ; ffffffebH
  0017a	eb 4f		 jmp	 SHORT $LN1@GetStringA@2
$LN83@GetStringA@2:
  0017c	88 4d f1	 mov	 BYTE PTR __k$[ebp+13], cl
  0017f	eb 4a		 jmp	 SHORT $LN1@GetStringA@2
$LN84@GetStringA@2:
  00181	c6 45 f0 ed	 mov	 BYTE PTR __k$[ebp+12], -19 ; ffffffedH
  00185	eb 44		 jmp	 SHORT $LN1@GetStringA@2
$LN85@GetStringA@2:
  00187	c6 45 ef ea	 mov	 BYTE PTR __k$[ebp+11], -22 ; ffffffeaH
  0018b	eb 3e		 jmp	 SHORT $LN1@GetStringA@2
$LN86@GetStringA@2:
  0018d	c6 45 ee eb	 mov	 BYTE PTR __k$[ebp+10], -21 ; ffffffebH
  00191	eb 38		 jmp	 SHORT $LN1@GetStringA@2
$LN87@GetStringA@2:
  00193	88 4d ed	 mov	 BYTE PTR __k$[ebp+9], cl
  00196	eb 33		 jmp	 SHORT $LN1@GetStringA@2
$LN88@GetStringA@2:
  00198	c6 45 ec ed	 mov	 BYTE PTR __k$[ebp+8], -19 ; ffffffedH
  0019c	eb 2d		 jmp	 SHORT $LN1@GetStringA@2
$LN89@GetStringA@2:
  0019e	c6 45 eb ea	 mov	 BYTE PTR __k$[ebp+7], -22 ; ffffffeaH
  001a2	eb 27		 jmp	 SHORT $LN1@GetStringA@2
$LN90@GetStringA@2:
  001a4	c6 45 ea eb	 mov	 BYTE PTR __k$[ebp+6], -21 ; ffffffebH
  001a8	eb 21		 jmp	 SHORT $LN1@GetStringA@2
$LN91@GetStringA@2:
  001aa	88 4d e9	 mov	 BYTE PTR __k$[ebp+5], cl
  001ad	eb 1c		 jmp	 SHORT $LN1@GetStringA@2
$LN92@GetStringA@2:
  001af	c6 45 e8 ed	 mov	 BYTE PTR __k$[ebp+4], -19 ; ffffffedH
  001b3	eb 16		 jmp	 SHORT $LN1@GetStringA@2
$LN93@GetStringA@2:
  001b5	c6 45 e7 ea	 mov	 BYTE PTR __k$[ebp+3], -22 ; ffffffeaH
  001b9	eb 10		 jmp	 SHORT $LN1@GetStringA@2
$LN94@GetStringA@2:
  001bb	c6 45 e6 eb	 mov	 BYTE PTR __k$[ebp+2], -21 ; ffffffebH
  001bf	eb 0a		 jmp	 SHORT $LN1@GetStringA@2
$LN95@GetStringA@2:
  001c1	c6 45 e5 ec	 mov	 BYTE PTR __k$[ebp+1], -20 ; ffffffecH
  001c5	eb 04		 jmp	 SHORT $LN1@GetStringA@2
$LN96@GetStringA@2:
  001c7	c6 45 e4 ed	 mov	 BYTE PTR __k$[ebp], -19	; ffffffedH
$LN1@GetStringA@2:
  001cb	6a 04		 push	 4
  001cd	8d 45 e4	 lea	 eax, DWORD PTR __k$[ebp]
  001d0	c6 45 f4 00	 mov	 BYTE PTR __k$[ebp+16], 0
  001d4	5a		 pop	 edx
$LL104@GetStringA@2:
  001d5	81 30 ed ec eb
	ea		 xor	 DWORD PTR [eax], -353637139 ; eaebecedH
  001db	83 c0 04	 add	 eax, 4
  001de	4a		 dec	 edx
  001df	75 f4		 jne	 SHORT $LL104@GetStringA@2

; 109  : 		return GetStringAttribute(_k);

  001e1	8d 45 e4	 lea	 eax, DWORD PTR __k$[ebp]
  001e4	50		 push	 eax
  001e5	8b ce		 mov	 ecx, esi
  001e7	ff 15 00 00 00
	00		 call	 DWORD PTR __imp_?GetStringAttribute@ioXMLElement@@QBEPBDPBD@Z

; 110  : 	}

  001ed	8b 4d fc	 mov	 ecx, DWORD PTR __$ArrayPad$[ebp]
  001f0	33 cd		 xor	 ecx, ebp
  001f2	5e		 pop	 esi
  001f3	e8 00 00 00 00	 call	 @__security_check_cookie@4
  001f8	c9		 leave
  001f9	c2 04 00	 ret	 4
??$GetStringAttribute_e@$0BB@@ioXMLElement@@QBEPBDAAY0BB@$$CBD@Z ENDP ; ioXMLElement::GetStringAttribute_e<17>
_TEXT	ENDS
PUBLIC	__$ArrayPad$
PUBLIC	??$GetIntAttribute_e@$08@ioXMLElement@@QBEHAAY08$$CBD@Z ; ioXMLElement::GetIntAttribute_e<9>
EXTRN	__imp_?GetIntAttribute@ioXMLElement@@QBEHPBD@Z:PROC
; Function compile flags: /Ogsp
;	COMDAT ??$GetIntAttribute_e@$08@ioXMLElement@@QBEHAAY08$$CBD@Z
_TEXT	SEGMENT
__k$ = -20						; size = 9
__$ArrayPad$ = -4					; size = 4
_k$ = 8							; size = 4
??$GetIntAttribute_e@$08@ioXMLElement@@QBEHAAY08$$CBD@Z PROC ; ioXMLElement::GetIntAttribute_e<9>, COMDAT
; _this$ = ecx

; 86   : 	{

  00000	55		 push	 ebp
  00001	8b ec		 mov	 ebp, esp
  00003	83 ec 14	 sub	 esp, 20			; 00000014H
  00006	a1 00 00 00 00	 mov	 eax, DWORD PTR ___security_cookie
  0000b	33 c5		 xor	 eax, ebp
  0000d	89 45 fc	 mov	 DWORD PTR __$ArrayPad$[ebp], eax
  00010	8b 45 08	 mov	 eax, DWORD PTR _k$[ebp]

; 87   : 		_ENCSTR(k, _k);

  00013	8a 10		 mov	 dl, BYTE PTR [eax]
  00015	84 d2		 test	 dl, dl
  00017	0f 84 ee 00 00
	00		 je	 $LN96@GetIntAttr
  0001d	80 f2 ed	 xor	 dl, -19			; ffffffedH
  00020	88 55 ec	 mov	 BYTE PTR __k$[ebp], dl
  00023	8a 50 01	 mov	 dl, BYTE PTR [eax+1]
  00026	84 d2		 test	 dl, dl
  00028	0f 84 d7 00 00
	00		 je	 $LN95@GetIntAttr
  0002e	80 f2 ec	 xor	 dl, -20			; ffffffecH
  00031	88 55 ed	 mov	 BYTE PTR __k$[ebp+1], dl
  00034	8a 50 02	 mov	 dl, BYTE PTR [eax+2]
  00037	84 d2		 test	 dl, dl
  00039	0f 84 c0 00 00
	00		 je	 $LN94@GetIntAttr
  0003f	80 f2 eb	 xor	 dl, -21			; ffffffebH
  00042	88 55 ee	 mov	 BYTE PTR __k$[ebp+2], dl
  00045	8a 50 03	 mov	 dl, BYTE PTR [eax+3]
  00048	84 d2		 test	 dl, dl
  0004a	0f 84 a9 00 00
	00		 je	 $LN93@GetIntAttr
  00050	80 f2 ea	 xor	 dl, -22			; ffffffeaH
  00053	88 55 ef	 mov	 BYTE PTR __k$[ebp+3], dl
  00056	8a 50 04	 mov	 dl, BYTE PTR [eax+4]
  00059	84 d2		 test	 dl, dl
  0005b	0f 84 92 00 00
	00		 je	 $LN92@GetIntAttr
  00061	80 f2 ed	 xor	 dl, -19			; ffffffedH
  00064	88 55 f0	 mov	 BYTE PTR __k$[ebp+4], dl
  00067	8a 50 05	 mov	 dl, BYTE PTR [eax+5]
  0006a	84 d2		 test	 dl, dl
  0006c	74 7f		 je	 SHORT $LN91@GetIntAttr
  0006e	80 f2 ec	 xor	 dl, -20			; ffffffecH
  00071	88 55 f1	 mov	 BYTE PTR __k$[ebp+5], dl
  00074	8a 50 06	 mov	 dl, BYTE PTR [eax+6]
  00077	84 d2		 test	 dl, dl
  00079	74 6c		 je	 SHORT $LN90@GetIntAttr
  0007b	80 f2 eb	 xor	 dl, -21			; ffffffebH
  0007e	88 55 f2	 mov	 BYTE PTR __k$[ebp+6], dl
  00081	8a 50 07	 mov	 dl, BYTE PTR [eax+7]
  00084	84 d2		 test	 dl, dl
  00086	74 59		 je	 SHORT $LN89@GetIntAttr
  00088	80 f2 ea	 xor	 dl, -22			; ffffffeaH
  0008b	80 78 08 00	 cmp	 BYTE PTR [eax+8], 0
  0008f	88 55 f3	 mov	 BYTE PTR __k$[ebp+7], dl
  00092	74 7b		 je	 SHORT $LN1@GetIntAttr
  00094	8a 50 09	 mov	 dl, BYTE PTR [eax+9]
  00097	84 d2		 test	 dl, dl
  00099	74 40		 je	 SHORT $LN87@GetIntAttr
  0009b	80 f2 ec	 xor	 dl, -20			; ffffffecH
  0009e	88 55 f5	 mov	 BYTE PTR __k$[ebp+9], dl
  000a1	8a 50 0a	 mov	 dl, BYTE PTR [eax+10]
  000a4	84 d2		 test	 dl, dl
  000a6	74 2d		 je	 SHORT $LN86@GetIntAttr
  000a8	80 f2 eb	 xor	 dl, -21			; ffffffebH
  000ab	88 55 f6	 mov	 BYTE PTR __k$[ebp+10], dl
  000ae	8a 50 0b	 mov	 dl, BYTE PTR [eax+11]
  000b1	84 d2		 test	 dl, dl
  000b3	74 1a		 je	 SHORT $LN85@GetIntAttr
  000b5	8a 40 0c	 mov	 al, BYTE PTR [eax+12]
  000b8	80 f2 ea	 xor	 dl, -22			; ffffffeaH
  000bb	88 55 f7	 mov	 BYTE PTR __k$[ebp+11], dl
  000be	84 c0		 test	 al, al
  000c0	74 07		 je	 SHORT $LN84@GetIntAttr
  000c2	34 ed		 xor	 al, -19			; ffffffedH
  000c4	88 45 f8	 mov	 BYTE PTR __k$[ebp+12], al
  000c7	eb 46		 jmp	 SHORT $LN1@GetIntAttr
$LN84@GetIntAttr:
  000c9	c6 45 f8 ed	 mov	 BYTE PTR __k$[ebp+12], -19 ; ffffffedH
  000cd	eb 40		 jmp	 SHORT $LN1@GetIntAttr
$LN85@GetIntAttr:
  000cf	c6 45 f7 ea	 mov	 BYTE PTR __k$[ebp+11], -22 ; ffffffeaH
  000d3	eb 3a		 jmp	 SHORT $LN1@GetIntAttr
$LN86@GetIntAttr:
  000d5	c6 45 f6 eb	 mov	 BYTE PTR __k$[ebp+10], -21 ; ffffffebH
  000d9	eb 34		 jmp	 SHORT $LN1@GetIntAttr
$LN87@GetIntAttr:
  000db	c6 45 f5 ec	 mov	 BYTE PTR __k$[ebp+9], -20 ; ffffffecH
  000df	eb 2e		 jmp	 SHORT $LN1@GetIntAttr
$LN89@GetIntAttr:
  000e1	c6 45 f3 ea	 mov	 BYTE PTR __k$[ebp+7], -22 ; ffffffeaH
  000e5	eb 28		 jmp	 SHORT $LN1@GetIntAttr
$LN90@GetIntAttr:
  000e7	c6 45 f2 eb	 mov	 BYTE PTR __k$[ebp+6], -21 ; ffffffebH
  000eb	eb 22		 jmp	 SHORT $LN1@GetIntAttr
$LN91@GetIntAttr:
  000ed	c6 45 f1 ec	 mov	 BYTE PTR __k$[ebp+5], -20 ; ffffffecH
  000f1	eb 1c		 jmp	 SHORT $LN1@GetIntAttr
$LN92@GetIntAttr:
  000f3	c6 45 f0 ed	 mov	 BYTE PTR __k$[ebp+4], -19 ; ffffffedH
  000f7	eb 16		 jmp	 SHORT $LN1@GetIntAttr
$LN93@GetIntAttr:
  000f9	c6 45 ef ea	 mov	 BYTE PTR __k$[ebp+3], -22 ; ffffffeaH
  000fd	eb 10		 jmp	 SHORT $LN1@GetIntAttr
$LN94@GetIntAttr:
  000ff	c6 45 ee eb	 mov	 BYTE PTR __k$[ebp+2], -21 ; ffffffebH
  00103	eb 0a		 jmp	 SHORT $LN1@GetIntAttr
$LN95@GetIntAttr:
  00105	c6 45 ed ec	 mov	 BYTE PTR __k$[ebp+1], -20 ; ffffffecH
  00109	eb 04		 jmp	 SHORT $LN1@GetIntAttr
$LN96@GetIntAttr:
  0010b	c6 45 ec ed	 mov	 BYTE PTR __k$[ebp], -19	; ffffffedH
$LN1@GetIntAttr:
  0010f	6a 02		 push	 2
  00111	8d 45 ec	 lea	 eax, DWORD PTR __k$[ebp]
  00114	c6 45 f4 00	 mov	 BYTE PTR __k$[ebp+8], 0
  00118	5a		 pop	 edx
$LL104@GetIntAttr:
  00119	81 30 ed ec eb
	ea		 xor	 DWORD PTR [eax], -353637139 ; eaebecedH
  0011f	83 c0 04	 add	 eax, 4
  00122	4a		 dec	 edx
  00123	75 f4		 jne	 SHORT $LL104@GetIntAttr

; 88   : 		return GetIntAttribute(_k);

  00125	8d 45 ec	 lea	 eax, DWORD PTR __k$[ebp]
  00128	50		 push	 eax
  00129	ff 15 00 00 00
	00		 call	 DWORD PTR __imp_?GetIntAttribute@ioXMLElement@@QBEHPBD@Z

; 89   : 	}

  0012f	8b 4d fc	 mov	 ecx, DWORD PTR __$ArrayPad$[ebp]
  00132	33 cd		 xor	 ecx, ebp
  00134	e8 00 00 00 00	 call	 @__security_check_cookie@4
  00139	c9		 leave
  0013a	c2 04 00	 ret	 4
??$GetIntAttribute_e@$08@ioXMLElement@@QBEHAAY08$$CBD@Z ENDP ; ioXMLElement::GetIntAttribute_e<9>
_TEXT	ENDS
PUBLIC	__$ArrayPad$
PUBLIC	??$GetIntAttribute_e@$09@ioXMLElement@@QBEHAAY09$$CBD@Z ; ioXMLElement::GetIntAttribute_e<10>
; Function compile flags: /Ogsp
;	COMDAT ??$GetIntAttribute_e@$09@ioXMLElement@@QBEHAAY09$$CBD@Z
_TEXT	SEGMENT
__k$ = -20						; size = 10
__$ArrayPad$ = -4					; size = 4
_k$ = 8							; size = 4
??$GetIntAttribute_e@$09@ioXMLElement@@QBEHAAY09$$CBD@Z PROC ; ioXMLElement::GetIntAttribute_e<10>, COMDAT
; _this$ = ecx

; 86   : 	{

  00000	55		 push	 ebp
  00001	8b ec		 mov	 ebp, esp
  00003	83 ec 14	 sub	 esp, 20			; 00000014H
  00006	a1 00 00 00 00	 mov	 eax, DWORD PTR ___security_cookie
  0000b	33 c5		 xor	 eax, ebp
  0000d	89 45 fc	 mov	 DWORD PTR __$ArrayPad$[ebp], eax
  00010	8b 45 08	 mov	 eax, DWORD PTR _k$[ebp]

; 87   : 		_ENCSTR(k, _k);

  00013	8a 10		 mov	 dl, BYTE PTR [eax]
  00015	84 d2		 test	 dl, dl
  00017	0f 84 0d 01 00
	00		 je	 $LN96@GetIntAttr@2
  0001d	80 f2 ed	 xor	 dl, -19			; ffffffedH
  00020	88 55 ec	 mov	 BYTE PTR __k$[ebp], dl
  00023	8a 50 01	 mov	 dl, BYTE PTR [eax+1]
  00026	84 d2		 test	 dl, dl
  00028	0f 84 f6 00 00
	00		 je	 $LN95@GetIntAttr@2
  0002e	80 f2 ec	 xor	 dl, -20			; ffffffecH
  00031	88 55 ed	 mov	 BYTE PTR __k$[ebp+1], dl
  00034	8a 50 02	 mov	 dl, BYTE PTR [eax+2]
  00037	84 d2		 test	 dl, dl
  00039	0f 84 df 00 00
	00		 je	 $LN94@GetIntAttr@2
  0003f	80 f2 eb	 xor	 dl, -21			; ffffffebH
  00042	88 55 ee	 mov	 BYTE PTR __k$[ebp+2], dl
  00045	8a 50 03	 mov	 dl, BYTE PTR [eax+3]
  00048	84 d2		 test	 dl, dl
  0004a	0f 84 c8 00 00
	00		 je	 $LN93@GetIntAttr@2
  00050	80 f2 ea	 xor	 dl, -22			; ffffffeaH
  00053	88 55 ef	 mov	 BYTE PTR __k$[ebp+3], dl
  00056	8a 50 04	 mov	 dl, BYTE PTR [eax+4]
  00059	84 d2		 test	 dl, dl
  0005b	0f 84 b1 00 00
	00		 je	 $LN92@GetIntAttr@2
  00061	80 f2 ed	 xor	 dl, -19			; ffffffedH
  00064	88 55 f0	 mov	 BYTE PTR __k$[ebp+4], dl
  00067	8a 50 05	 mov	 dl, BYTE PTR [eax+5]
  0006a	84 d2		 test	 dl, dl
  0006c	0f 84 9a 00 00
	00		 je	 $LN91@GetIntAttr@2
  00072	80 f2 ec	 xor	 dl, -20			; ffffffecH
  00075	88 55 f1	 mov	 BYTE PTR __k$[ebp+5], dl
  00078	8a 50 06	 mov	 dl, BYTE PTR [eax+6]
  0007b	84 d2		 test	 dl, dl
  0007d	0f 84 83 00 00
	00		 je	 $LN90@GetIntAttr@2
  00083	80 f2 eb	 xor	 dl, -21			; ffffffebH
  00086	88 55 f2	 mov	 BYTE PTR __k$[ebp+6], dl
  00089	8a 50 07	 mov	 dl, BYTE PTR [eax+7]
  0008c	84 d2		 test	 dl, dl
  0008e	74 70		 je	 SHORT $LN89@GetIntAttr@2
  00090	80 f2 ea	 xor	 dl, -22			; ffffffeaH
  00093	88 55 f3	 mov	 BYTE PTR __k$[ebp+7], dl
  00096	8a 50 08	 mov	 dl, BYTE PTR [eax+8]
  00099	84 d2		 test	 dl, dl
  0009b	74 5d		 je	 SHORT $LN88@GetIntAttr@2
  0009d	80 f2 ed	 xor	 dl, -19			; ffffffedH
  000a0	80 78 09 00	 cmp	 BYTE PTR [eax+9], 0
  000a4	88 55 f4	 mov	 BYTE PTR __k$[ebp+8], dl
  000a7	0f 84 81 00 00
	00		 je	 $LN1@GetIntAttr@2
  000ad	8a 50 0a	 mov	 dl, BYTE PTR [eax+10]
  000b0	84 d2		 test	 dl, dl
  000b2	74 40		 je	 SHORT $LN86@GetIntAttr@2
  000b4	80 f2 eb	 xor	 dl, -21			; ffffffebH
  000b7	88 55 f6	 mov	 BYTE PTR __k$[ebp+10], dl
  000ba	8a 50 0b	 mov	 dl, BYTE PTR [eax+11]
  000bd	84 d2		 test	 dl, dl
  000bf	74 2d		 je	 SHORT $LN85@GetIntAttr@2
  000c1	80 f2 ea	 xor	 dl, -22			; ffffffeaH
  000c4	88 55 f7	 mov	 BYTE PTR __k$[ebp+11], dl
  000c7	8a 50 0c	 mov	 dl, BYTE PTR [eax+12]
  000ca	84 d2		 test	 dl, dl
  000cc	74 1a		 je	 SHORT $LN84@GetIntAttr@2
  000ce	8a 40 0d	 mov	 al, BYTE PTR [eax+13]
  000d1	80 f2 ed	 xor	 dl, -19			; ffffffedH
  000d4	88 55 f8	 mov	 BYTE PTR __k$[ebp+12], dl
  000d7	84 c0		 test	 al, al
  000d9	74 07		 je	 SHORT $LN83@GetIntAttr@2
  000db	34 ec		 xor	 al, -20			; ffffffecH
  000dd	88 45 f9	 mov	 BYTE PTR __k$[ebp+13], al
  000e0	eb 4c		 jmp	 SHORT $LN1@GetIntAttr@2
$LN83@GetIntAttr@2:
  000e2	c6 45 f9 ec	 mov	 BYTE PTR __k$[ebp+13], -20 ; ffffffecH
  000e6	eb 46		 jmp	 SHORT $LN1@GetIntAttr@2
$LN84@GetIntAttr@2:
  000e8	c6 45 f8 ed	 mov	 BYTE PTR __k$[ebp+12], -19 ; ffffffedH
  000ec	eb 40		 jmp	 SHORT $LN1@GetIntAttr@2
$LN85@GetIntAttr@2:
  000ee	c6 45 f7 ea	 mov	 BYTE PTR __k$[ebp+11], -22 ; ffffffeaH
  000f2	eb 3a		 jmp	 SHORT $LN1@GetIntAttr@2
$LN86@GetIntAttr@2:
  000f4	c6 45 f6 eb	 mov	 BYTE PTR __k$[ebp+10], -21 ; ffffffebH
  000f8	eb 34		 jmp	 SHORT $LN1@GetIntAttr@2
$LN88@GetIntAttr@2:
  000fa	c6 45 f4 ed	 mov	 BYTE PTR __k$[ebp+8], -19 ; ffffffedH
  000fe	eb 2e		 jmp	 SHORT $LN1@GetIntAttr@2
$LN89@GetIntAttr@2:
  00100	c6 45 f3 ea	 mov	 BYTE PTR __k$[ebp+7], -22 ; ffffffeaH
  00104	eb 28		 jmp	 SHORT $LN1@GetIntAttr@2
$LN90@GetIntAttr@2:
  00106	c6 45 f2 eb	 mov	 BYTE PTR __k$[ebp+6], -21 ; ffffffebH
  0010a	eb 22		 jmp	 SHORT $LN1@GetIntAttr@2
$LN91@GetIntAttr@2:
  0010c	c6 45 f1 ec	 mov	 BYTE PTR __k$[ebp+5], -20 ; ffffffecH
  00110	eb 1c		 jmp	 SHORT $LN1@GetIntAttr@2
$LN92@GetIntAttr@2:
  00112	c6 45 f0 ed	 mov	 BYTE PTR __k$[ebp+4], -19 ; ffffffedH
  00116	eb 16		 jmp	 SHORT $LN1@GetIntAttr@2
$LN93@GetIntAttr@2:
  00118	c6 45 ef ea	 mov	 BYTE PTR __k$[ebp+3], -22 ; ffffffeaH
  0011c	eb 10		 jmp	 SHORT $LN1@GetIntAttr@2
$LN94@GetIntAttr@2:
  0011e	c6 45 ee eb	 mov	 BYTE PTR __k$[ebp+2], -21 ; ffffffebH
  00122	eb 0a		 jmp	 SHORT $LN1@GetIntAttr@2
$LN95@GetIntAttr@2:
  00124	c6 45 ed ec	 mov	 BYTE PTR __k$[ebp+1], -20 ; ffffffecH
  00128	eb 04		 jmp	 SHORT $LN1@GetIntAttr@2
$LN96@GetIntAttr@2:
  0012a	c6 45 ec ed	 mov	 BYTE PTR __k$[ebp], -19	; ffffffedH
$LN1@GetIntAttr@2:
  0012e	6a 02		 push	 2
  00130	8d 45 ec	 lea	 eax, DWORD PTR __k$[ebp]
  00133	c6 45 f5 00	 mov	 BYTE PTR __k$[ebp+9], 0
  00137	5a		 pop	 edx
$LL104@GetIntAttr@2:
  00138	81 30 ed ec eb
	ea		 xor	 DWORD PTR [eax], -353637139 ; eaebecedH
  0013e	83 c0 04	 add	 eax, 4
  00141	4a		 dec	 edx
  00142	75 f4		 jne	 SHORT $LL104@GetIntAttr@2
  00144	80 75 f4 ed	 xor	 BYTE PTR __k$[ebp+8], -19 ; ffffffedH

; 88   : 		return GetIntAttribute(_k);

  00148	8d 45 ec	 lea	 eax, DWORD PTR __k$[ebp]
  0014b	50		 push	 eax
  0014c	ff 15 00 00 00
	00		 call	 DWORD PTR __imp_?GetIntAttribute@ioXMLElement@@QBEHPBD@Z

; 89   : 	}

  00152	8b 4d fc	 mov	 ecx, DWORD PTR __$ArrayPad$[ebp]
  00155	33 cd		 xor	 ecx, ebp
  00157	e8 00 00 00 00	 call	 @__security_check_cookie@4
  0015c	c9		 leave
  0015d	c2 04 00	 ret	 4
??$GetIntAttribute_e@$09@ioXMLElement@@QBEHAAY09$$CBD@Z ENDP ; ioXMLElement::GetIntAttribute_e<10>
_TEXT	ENDS
PUBLIC	__$ArrayPad$
PUBLIC	??$GetIntAttribute_e@$07@ioXMLElement@@QBEHAAY07$$CBD@Z ; ioXMLElement::GetIntAttribute_e<8>
; Function compile flags: /Ogsp
;	COMDAT ??$GetIntAttribute_e@$07@ioXMLElement@@QBEHAAY07$$CBD@Z
_TEXT	SEGMENT
__k$ = -16						; size = 8
__$ArrayPad$ = -4					; size = 4
_k$ = 8							; size = 4
??$GetIntAttribute_e@$07@ioXMLElement@@QBEHAAY07$$CBD@Z PROC ; ioXMLElement::GetIntAttribute_e<8>, COMDAT
; _this$ = ecx

; 86   : 	{

  00000	55		 push	 ebp
  00001	8b ec		 mov	 ebp, esp
  00003	83 ec 10	 sub	 esp, 16			; 00000010H
  00006	a1 00 00 00 00	 mov	 eax, DWORD PTR ___security_cookie
  0000b	33 c5		 xor	 eax, ebp
  0000d	89 45 fc	 mov	 DWORD PTR __$ArrayPad$[ebp], eax
  00010	8b 45 08	 mov	 eax, DWORD PTR _k$[ebp]

; 87   : 		_ENCSTR(k, _k);

  00013	8a 10		 mov	 dl, BYTE PTR [eax]
  00015	56		 push	 esi
  00016	8b f1		 mov	 esi, ecx
  00018	84 d2		 test	 dl, dl
  0001a	0f 84 d7 00 00
	00		 je	 $LN96@GetIntAttr@3
  00020	80 f2 ed	 xor	 dl, -19			; ffffffedH
  00023	88 55 f0	 mov	 BYTE PTR __k$[ebp], dl
  00026	8a 50 01	 mov	 dl, BYTE PTR [eax+1]
  00029	84 d2		 test	 dl, dl
  0002b	0f 84 c0 00 00
	00		 je	 $LN95@GetIntAttr@3
  00031	80 f2 ec	 xor	 dl, -20			; ffffffecH
  00034	88 55 f1	 mov	 BYTE PTR __k$[ebp+1], dl
  00037	8a 50 02	 mov	 dl, BYTE PTR [eax+2]
  0003a	84 d2		 test	 dl, dl
  0003c	0f 84 a9 00 00
	00		 je	 $LN94@GetIntAttr@3
  00042	80 f2 eb	 xor	 dl, -21			; ffffffebH
  00045	88 55 f2	 mov	 BYTE PTR __k$[ebp+2], dl
  00048	8a 50 03	 mov	 dl, BYTE PTR [eax+3]
  0004b	84 d2		 test	 dl, dl
  0004d	0f 84 92 00 00
	00		 je	 $LN93@GetIntAttr@3
  00053	80 f2 ea	 xor	 dl, -22			; ffffffeaH
  00056	88 55 f3	 mov	 BYTE PTR __k$[ebp+3], dl
  00059	8a 50 04	 mov	 dl, BYTE PTR [eax+4]
  0005c	84 d2		 test	 dl, dl
  0005e	74 7f		 je	 SHORT $LN92@GetIntAttr@3
  00060	80 f2 ed	 xor	 dl, -19			; ffffffedH
  00063	88 55 f4	 mov	 BYTE PTR __k$[ebp+4], dl
  00066	8a 50 05	 mov	 dl, BYTE PTR [eax+5]
  00069	84 d2		 test	 dl, dl
  0006b	74 6c		 je	 SHORT $LN91@GetIntAttr@3
  0006d	80 f2 ec	 xor	 dl, -20			; ffffffecH
  00070	88 55 f5	 mov	 BYTE PTR __k$[ebp+5], dl
  00073	8a 50 06	 mov	 dl, BYTE PTR [eax+6]
  00076	84 d2		 test	 dl, dl
  00078	74 59		 je	 SHORT $LN90@GetIntAttr@3
  0007a	80 f2 eb	 xor	 dl, -21			; ffffffebH
  0007d	80 78 07 00	 cmp	 BYTE PTR [eax+7], 0
  00081	88 55 f6	 mov	 BYTE PTR __k$[ebp+6], dl
  00084	74 75		 je	 SHORT $LN1@GetIntAttr@3
  00086	8a 50 08	 mov	 dl, BYTE PTR [eax+8]
  00089	84 d2		 test	 dl, dl
  0008b	74 40		 je	 SHORT $LN88@GetIntAttr@3
  0008d	80 f2 ed	 xor	 dl, -19			; ffffffedH
  00090	88 55 f8	 mov	 BYTE PTR __k$[ebp+8], dl
  00093	8a 50 09	 mov	 dl, BYTE PTR [eax+9]
  00096	84 d2		 test	 dl, dl
  00098	74 2d		 je	 SHORT $LN87@GetIntAttr@3
  0009a	80 f2 ec	 xor	 dl, -20			; ffffffecH
  0009d	88 55 f9	 mov	 BYTE PTR __k$[ebp+9], dl
  000a0	8a 50 0a	 mov	 dl, BYTE PTR [eax+10]
  000a3	84 d2		 test	 dl, dl
  000a5	74 1a		 je	 SHORT $LN86@GetIntAttr@3
  000a7	8a 40 0b	 mov	 al, BYTE PTR [eax+11]
  000aa	80 f2 eb	 xor	 dl, -21			; ffffffebH
  000ad	88 55 fa	 mov	 BYTE PTR __k$[ebp+10], dl
  000b0	84 c0		 test	 al, al
  000b2	74 07		 je	 SHORT $LN85@GetIntAttr@3
  000b4	34 ea		 xor	 al, -22			; ffffffeaH
  000b6	88 45 fb	 mov	 BYTE PTR __k$[ebp+11], al
  000b9	eb 40		 jmp	 SHORT $LN1@GetIntAttr@3
$LN85@GetIntAttr@3:
  000bb	c6 45 fb ea	 mov	 BYTE PTR __k$[ebp+11], -22 ; ffffffeaH
  000bf	eb 3a		 jmp	 SHORT $LN1@GetIntAttr@3
$LN86@GetIntAttr@3:
  000c1	c6 45 fa eb	 mov	 BYTE PTR __k$[ebp+10], -21 ; ffffffebH
  000c5	eb 34		 jmp	 SHORT $LN1@GetIntAttr@3
$LN87@GetIntAttr@3:
  000c7	c6 45 f9 ec	 mov	 BYTE PTR __k$[ebp+9], -20 ; ffffffecH
  000cb	eb 2e		 jmp	 SHORT $LN1@GetIntAttr@3
$LN88@GetIntAttr@3:
  000cd	c6 45 f8 ed	 mov	 BYTE PTR __k$[ebp+8], -19 ; ffffffedH
  000d1	eb 28		 jmp	 SHORT $LN1@GetIntAttr@3
$LN90@GetIntAttr@3:
  000d3	c6 45 f6 eb	 mov	 BYTE PTR __k$[ebp+6], -21 ; ffffffebH
  000d7	eb 22		 jmp	 SHORT $LN1@GetIntAttr@3
$LN91@GetIntAttr@3:
  000d9	c6 45 f5 ec	 mov	 BYTE PTR __k$[ebp+5], -20 ; ffffffecH
  000dd	eb 1c		 jmp	 SHORT $LN1@GetIntAttr@3
$LN92@GetIntAttr@3:
  000df	c6 45 f4 ed	 mov	 BYTE PTR __k$[ebp+4], -19 ; ffffffedH
  000e3	eb 16		 jmp	 SHORT $LN1@GetIntAttr@3
$LN93@GetIntAttr@3:
  000e5	c6 45 f3 ea	 mov	 BYTE PTR __k$[ebp+3], -22 ; ffffffeaH
  000e9	eb 10		 jmp	 SHORT $LN1@GetIntAttr@3
$LN94@GetIntAttr@3:
  000eb	c6 45 f2 eb	 mov	 BYTE PTR __k$[ebp+2], -21 ; ffffffebH
  000ef	eb 0a		 jmp	 SHORT $LN1@GetIntAttr@3
$LN95@GetIntAttr@3:
  000f1	c6 45 f1 ec	 mov	 BYTE PTR __k$[ebp+1], -20 ; ffffffecH
  000f5	eb 04		 jmp	 SHORT $LN1@GetIntAttr@3
$LN96@GetIntAttr@3:
  000f7	c6 45 f0 ed	 mov	 BYTE PTR __k$[ebp], -19	; ffffffedH
$LN1@GetIntAttr@3:
  000fb	81 75 f0 ed ec
	eb ea		 xor	 DWORD PTR __k$[ebp], -353637139 ; eaebecedH
  00102	6a 04		 push	 4
  00104	c6 45 f7 00	 mov	 BYTE PTR __k$[ebp+7], 0
  00108	58		 pop	 eax
$LL101@GetIntAttr@3:
  00109	8b c8		 mov	 ecx, eax
  0010b	81 e1 03 00 00
	80		 and	 ecx, -2147483645	; 80000003H
  00111	79 05		 jns	 SHORT $LN111@GetIntAttr@3
  00113	49		 dec	 ecx
  00114	83 c9 fc	 or	 ecx, -4			; fffffffcH
  00117	41		 inc	 ecx
$LN111@GetIntAttr@3:
  00118	b2 ed		 mov	 dl, -19			; ffffffedH
  0011a	2a d1		 sub	 dl, cl
  0011c	30 54 05 f0	 xor	 BYTE PTR __k$[ebp+eax], dl
  00120	40		 inc	 eax
  00121	83 f8 07	 cmp	 eax, 7
  00124	7c e3		 jl	 SHORT $LL101@GetIntAttr@3

; 88   : 		return GetIntAttribute(_k);

  00126	8d 45 f0	 lea	 eax, DWORD PTR __k$[ebp]
  00129	50		 push	 eax
  0012a	8b ce		 mov	 ecx, esi
  0012c	ff 15 00 00 00
	00		 call	 DWORD PTR __imp_?GetIntAttribute@ioXMLElement@@QBEHPBD@Z

; 89   : 	}

  00132	8b 4d fc	 mov	 ecx, DWORD PTR __$ArrayPad$[ebp]
  00135	33 cd		 xor	 ecx, ebp
  00137	5e		 pop	 esi
  00138	e8 00 00 00 00	 call	 @__security_check_cookie@4
  0013d	c9		 leave
  0013e	c2 04 00	 ret	 4
??$GetIntAttribute_e@$07@ioXMLElement@@QBEHAAY07$$CBD@Z ENDP ; ioXMLElement::GetIntAttribute_e<8>
_TEXT	ENDS
PUBLIC	__$ArrayPad$
PUBLIC	??$?8$0L@@@YA_NABVioHashString@@AAY0L@$$CBD@Z	; operator==<11>
EXTRN	__imp_?c_str@ioHashString@@QBEPBDXZ:PROC
; Function compile flags: /Ogsp
; File d:\lost saga for developer\youtube\tutorial\source\src\io3dengine\iohashstring.h
;	COMDAT ??$?8$0L@@@YA_NABVioHashString@@AAY0L@$$CBD@Z
_TEXT	SEGMENT
__t$ = -20						; size = 11
__$ArrayPad$ = -4					; size = 4
_lhs$ = 8						; size = 4
_t$ = 12						; size = 4
??$?8$0L@@@YA_NABVioHashString@@AAY0L@$$CBD@Z PROC	; operator==<11>, COMDAT

; 146  : {

  00000	55		 push	 ebp
  00001	8b ec		 mov	 ebp, esp
  00003	83 ec 14	 sub	 esp, 20			; 00000014H
  00006	a1 00 00 00 00	 mov	 eax, DWORD PTR ___security_cookie
  0000b	33 c5		 xor	 eax, ebp
  0000d	89 45 fc	 mov	 DWORD PTR __$ArrayPad$[ebp], eax
  00010	8b 45 0c	 mov	 eax, DWORD PTR _t$[ebp]

; 147  : 	_ENCSTR(t, _t); return ( strcmp( lhs.c_str(), _t ) == 0 );

  00013	8a 10		 mov	 dl, BYTE PTR [eax]
  00015	56		 push	 esi
  00016	57		 push	 edi
  00017	8b 7d 08	 mov	 edi, DWORD PTR _lhs$[ebp]
  0001a	84 d2		 test	 dl, dl
  0001c	0f 84 24 01 00
	00		 je	 $LN96@operator
  00022	80 f2 ed	 xor	 dl, -19			; ffffffedH
  00025	88 55 ec	 mov	 BYTE PTR __t$[ebp], dl
  00028	8a 50 01	 mov	 dl, BYTE PTR [eax+1]
  0002b	84 d2		 test	 dl, dl
  0002d	0f 84 0d 01 00
	00		 je	 $LN95@operator
  00033	80 f2 ec	 xor	 dl, -20			; ffffffecH
  00036	88 55 ed	 mov	 BYTE PTR __t$[ebp+1], dl
  00039	8a 50 02	 mov	 dl, BYTE PTR [eax+2]
  0003c	84 d2		 test	 dl, dl
  0003e	0f 84 f6 00 00
	00		 je	 $LN94@operator
  00044	80 f2 eb	 xor	 dl, -21			; ffffffebH
  00047	88 55 ee	 mov	 BYTE PTR __t$[ebp+2], dl
  0004a	8a 50 03	 mov	 dl, BYTE PTR [eax+3]
  0004d	84 d2		 test	 dl, dl
  0004f	0f 84 df 00 00
	00		 je	 $LN93@operator
  00055	80 f2 ea	 xor	 dl, -22			; ffffffeaH
  00058	88 55 ef	 mov	 BYTE PTR __t$[ebp+3], dl
  0005b	8a 50 04	 mov	 dl, BYTE PTR [eax+4]
  0005e	84 d2		 test	 dl, dl
  00060	0f 84 c8 00 00
	00		 je	 $LN92@operator
  00066	80 f2 ed	 xor	 dl, -19			; ffffffedH
  00069	88 55 f0	 mov	 BYTE PTR __t$[ebp+4], dl
  0006c	8a 50 05	 mov	 dl, BYTE PTR [eax+5]
  0006f	84 d2		 test	 dl, dl
  00071	0f 84 b1 00 00
	00		 je	 $LN91@operator
  00077	80 f2 ec	 xor	 dl, -20			; ffffffecH
  0007a	88 55 f1	 mov	 BYTE PTR __t$[ebp+5], dl
  0007d	8a 50 06	 mov	 dl, BYTE PTR [eax+6]
  00080	84 d2		 test	 dl, dl
  00082	0f 84 9a 00 00
	00		 je	 $LN90@operator
  00088	80 f2 eb	 xor	 dl, -21			; ffffffebH
  0008b	88 55 f2	 mov	 BYTE PTR __t$[ebp+6], dl
  0008e	8a 50 07	 mov	 dl, BYTE PTR [eax+7]
  00091	84 d2		 test	 dl, dl
  00093	0f 84 83 00 00
	00		 je	 $LN89@operator
  00099	80 f2 ea	 xor	 dl, -22			; ffffffeaH
  0009c	88 55 f3	 mov	 BYTE PTR __t$[ebp+7], dl
  0009f	8a 50 08	 mov	 dl, BYTE PTR [eax+8]
  000a2	84 d2		 test	 dl, dl
  000a4	74 70		 je	 SHORT $LN88@operator
  000a6	80 f2 ed	 xor	 dl, -19			; ffffffedH
  000a9	88 55 f4	 mov	 BYTE PTR __t$[ebp+8], dl
  000ac	8a 50 09	 mov	 dl, BYTE PTR [eax+9]
  000af	84 d2		 test	 dl, dl
  000b1	74 5d		 je	 SHORT $LN87@operator
  000b3	80 f2 ec	 xor	 dl, -20			; ffffffecH
  000b6	80 78 0a 00	 cmp	 BYTE PTR [eax+10], 0
  000ba	88 55 f5	 mov	 BYTE PTR __t$[ebp+9], dl
  000bd	0f 84 87 00 00
	00		 je	 $LN1@operator
  000c3	8a 50 0b	 mov	 dl, BYTE PTR [eax+11]
  000c6	84 d2		 test	 dl, dl
  000c8	74 40		 je	 SHORT $LN85@operator
  000ca	80 f2 ea	 xor	 dl, -22			; ffffffeaH
  000cd	88 55 f7	 mov	 BYTE PTR __t$[ebp+11], dl
  000d0	8a 50 0c	 mov	 dl, BYTE PTR [eax+12]
  000d3	84 d2		 test	 dl, dl
  000d5	74 2d		 je	 SHORT $LN84@operator
  000d7	80 f2 ed	 xor	 dl, -19			; ffffffedH
  000da	88 55 f8	 mov	 BYTE PTR __t$[ebp+12], dl
  000dd	8a 50 0d	 mov	 dl, BYTE PTR [eax+13]
  000e0	84 d2		 test	 dl, dl
  000e2	74 1a		 je	 SHORT $LN83@operator
  000e4	8a 40 0e	 mov	 al, BYTE PTR [eax+14]
  000e7	80 f2 ec	 xor	 dl, -20			; ffffffecH
  000ea	88 55 f9	 mov	 BYTE PTR __t$[ebp+13], dl
  000ed	84 c0		 test	 al, al
  000ef	74 07		 je	 SHORT $LN82@operator
  000f1	34 eb		 xor	 al, -21			; ffffffebH
  000f3	88 45 fa	 mov	 BYTE PTR __t$[ebp+14], al
  000f6	eb 52		 jmp	 SHORT $LN1@operator
$LN82@operator:
  000f8	c6 45 fa eb	 mov	 BYTE PTR __t$[ebp+14], -21 ; ffffffebH
  000fc	eb 4c		 jmp	 SHORT $LN1@operator
$LN83@operator:
  000fe	c6 45 f9 ec	 mov	 BYTE PTR __t$[ebp+13], -20 ; ffffffecH
  00102	eb 46		 jmp	 SHORT $LN1@operator
$LN84@operator:
  00104	c6 45 f8 ed	 mov	 BYTE PTR __t$[ebp+12], -19 ; ffffffedH
  00108	eb 40		 jmp	 SHORT $LN1@operator
$LN85@operator:
  0010a	c6 45 f7 ea	 mov	 BYTE PTR __t$[ebp+11], -22 ; ffffffeaH
  0010e	eb 3a		 jmp	 SHORT $LN1@operator
$LN87@operator:
  00110	c6 45 f5 ec	 mov	 BYTE PTR __t$[ebp+9], -20 ; ffffffecH
  00114	eb 34		 jmp	 SHORT $LN1@operator
$LN88@operator:
  00116	c6 45 f4 ed	 mov	 BYTE PTR __t$[ebp+8], -19 ; ffffffedH
  0011a	eb 2e		 jmp	 SHORT $LN1@operator
$LN89@operator:
  0011c	c6 45 f3 ea	 mov	 BYTE PTR __t$[ebp+7], -22 ; ffffffeaH
  00120	eb 28		 jmp	 SHORT $LN1@operator
$LN90@operator:
  00122	c6 45 f2 eb	 mov	 BYTE PTR __t$[ebp+6], -21 ; ffffffebH
  00126	eb 22		 jmp	 SHORT $LN1@operator
$LN91@operator:
  00128	c6 45 f1 ec	 mov	 BYTE PTR __t$[ebp+5], -20 ; ffffffecH
  0012c	eb 1c		 jmp	 SHORT $LN1@operator
$LN92@operator:
  0012e	c6 45 f0 ed	 mov	 BYTE PTR __t$[ebp+4], -19 ; ffffffedH
  00132	eb 16		 jmp	 SHORT $LN1@operator
$LN93@operator:
  00134	c6 45 ef ea	 mov	 BYTE PTR __t$[ebp+3], -22 ; ffffffeaH
  00138	eb 10		 jmp	 SHORT $LN1@operator
$LN94@operator:
  0013a	c6 45 ee eb	 mov	 BYTE PTR __t$[ebp+2], -21 ; ffffffebH
  0013e	eb 0a		 jmp	 SHORT $LN1@operator
$LN95@operator:
  00140	c6 45 ed ec	 mov	 BYTE PTR __t$[ebp+1], -20 ; ffffffecH
  00144	eb 04		 jmp	 SHORT $LN1@operator
$LN96@operator:
  00146	c6 45 ec ed	 mov	 BYTE PTR __t$[ebp], -19	; ffffffedH
$LN1@operator:
  0014a	6a 02		 push	 2
  0014c	8d 45 ec	 lea	 eax, DWORD PTR __t$[ebp]
  0014f	c6 45 f6 00	 mov	 BYTE PTR __t$[ebp+10], 0
  00153	5a		 pop	 edx
$LL104@operator:
  00154	81 30 ed ec eb
	ea		 xor	 DWORD PTR [eax], -353637139 ; eaebecedH
  0015a	83 c0 04	 add	 eax, 4
  0015d	4a		 dec	 edx
  0015e	75 f4		 jne	 SHORT $LL104@operator
  00160	6a 08		 push	 8
  00162	58		 pop	 eax
$LL101@operator:
  00163	8b c8		 mov	 ecx, eax
  00165	81 e1 03 00 00
	80		 and	 ecx, -2147483645	; 80000003H
  0016b	79 05		 jns	 SHORT $LN115@operator
  0016d	49		 dec	 ecx
  0016e	83 c9 fc	 or	 ecx, -4			; fffffffcH
  00171	41		 inc	 ecx
$LN115@operator:
  00172	b2 ed		 mov	 dl, -19			; ffffffedH
  00174	2a d1		 sub	 dl, cl
  00176	30 54 05 ec	 xor	 BYTE PTR __t$[ebp+eax], dl
  0017a	40		 inc	 eax
  0017b	83 f8 0a	 cmp	 eax, 10			; 0000000aH
  0017e	7c e3		 jl	 SHORT $LL101@operator
  00180	8b cf		 mov	 ecx, edi
  00182	8d 75 ec	 lea	 esi, DWORD PTR __t$[ebp]
  00185	ff 15 00 00 00
	00		 call	 DWORD PTR __imp_?c_str@ioHashString@@QBEPBDXZ
$LL111@operator:
  0018b	8a 08		 mov	 cl, BYTE PTR [eax]
  0018d	3a 0e		 cmp	 cl, BYTE PTR [esi]
  0018f	75 1a		 jne	 SHORT $LN112@operator
  00191	84 c9		 test	 cl, cl
  00193	74 12		 je	 SHORT $LN113@operator
  00195	8a 48 01	 mov	 cl, BYTE PTR [eax+1]
  00198	3a 4e 01	 cmp	 cl, BYTE PTR [esi+1]
  0019b	75 0e		 jne	 SHORT $LN112@operator
  0019d	83 c0 02	 add	 eax, 2
  001a0	83 c6 02	 add	 esi, 2
  001a3	84 c9		 test	 cl, cl
  001a5	75 e4		 jne	 SHORT $LL111@operator
$LN113@operator:
  001a7	33 c0		 xor	 eax, eax
  001a9	eb 05		 jmp	 SHORT $LN114@operator
$LN112@operator:
  001ab	1b c0		 sbb	 eax, eax
  001ad	83 d8 ff	 sbb	 eax, -1
$LN114@operator:
  001b0	33 c9		 xor	 ecx, ecx
  001b2	85 c0		 test	 eax, eax
  001b4	0f 94 c0	 sete	 al

; 148  : }

  001b7	8b 4d fc	 mov	 ecx, DWORD PTR __$ArrayPad$[ebp]
  001ba	5f		 pop	 edi
  001bb	33 cd		 xor	 ecx, ebp
  001bd	5e		 pop	 esi
  001be	e8 00 00 00 00	 call	 @__security_check_cookie@4
  001c3	c9		 leave
  001c4	c3		 ret	 0
??$?8$0L@@@YA_NABVioHashString@@AAY0L@$$CBD@Z ENDP	; operator==<11>
_TEXT	ENDS
PUBLIC	__$ArrayPad$
PUBLIC	??$?8$0O@@@YA_NABVioHashString@@AAY0O@$$CBD@Z	; operator==<14>
; Function compile flags: /Ogsp
;	COMDAT ??$?8$0O@@@YA_NABVioHashString@@AAY0O@$$CBD@Z
_TEXT	SEGMENT
__t$ = -24						; size = 14
__$ArrayPad$ = -4					; size = 4
_lhs$ = 8						; size = 4
_t$ = 12						; size = 4
??$?8$0O@@@YA_NABVioHashString@@AAY0O@$$CBD@Z PROC	; operator==<14>, COMDAT

; 146  : {

  00000	55		 push	 ebp
  00001	8b ec		 mov	 ebp, esp
  00003	83 ec 18	 sub	 esp, 24			; 00000018H
  00006	a1 00 00 00 00	 mov	 eax, DWORD PTR ___security_cookie
  0000b	33 c5		 xor	 eax, ebp
  0000d	89 45 fc	 mov	 DWORD PTR __$ArrayPad$[ebp], eax
  00010	8b 45 0c	 mov	 eax, DWORD PTR _t$[ebp]

; 147  : 	_ENCSTR(t, _t); return ( strcmp( lhs.c_str(), _t ) == 0 );

  00013	8a 10		 mov	 dl, BYTE PTR [eax]
  00015	56		 push	 esi
  00016	57		 push	 edi
  00017	8b 7d 08	 mov	 edi, DWORD PTR _lhs$[ebp]
  0001a	84 d2		 test	 dl, dl
  0001c	0f 84 64 01 00
	00		 je	 $LN96@operator@2
  00022	80 f2 ed	 xor	 dl, -19			; ffffffedH
  00025	88 55 e8	 mov	 BYTE PTR __t$[ebp], dl
  00028	8a 50 01	 mov	 dl, BYTE PTR [eax+1]
  0002b	84 d2		 test	 dl, dl
  0002d	0f 84 4d 01 00
	00		 je	 $LN95@operator@2
  00033	80 f2 ec	 xor	 dl, -20			; ffffffecH
  00036	88 55 e9	 mov	 BYTE PTR __t$[ebp+1], dl
  00039	8a 50 02	 mov	 dl, BYTE PTR [eax+2]
  0003c	84 d2		 test	 dl, dl
  0003e	0f 84 36 01 00
	00		 je	 $LN94@operator@2
  00044	b1 eb		 mov	 cl, -21			; ffffffebH
  00046	32 d1		 xor	 dl, cl
  00048	88 55 ea	 mov	 BYTE PTR __t$[ebp+2], dl
  0004b	8a 50 03	 mov	 dl, BYTE PTR [eax+3]
  0004e	84 d2		 test	 dl, dl
  00050	0f 84 1e 01 00
	00		 je	 $LN93@operator@2
  00056	80 f2 ea	 xor	 dl, -22			; ffffffeaH
  00059	88 55 eb	 mov	 BYTE PTR __t$[ebp+3], dl
  0005c	8a 50 04	 mov	 dl, BYTE PTR [eax+4]
  0005f	84 d2		 test	 dl, dl
  00061	0f 84 07 01 00
	00		 je	 $LN92@operator@2
  00067	80 f2 ed	 xor	 dl, -19			; ffffffedH
  0006a	88 55 ec	 mov	 BYTE PTR __t$[ebp+4], dl
  0006d	8a 50 05	 mov	 dl, BYTE PTR [eax+5]
  00070	84 d2		 test	 dl, dl
  00072	0f 84 f0 00 00
	00		 je	 $LN91@operator@2
  00078	80 f2 ec	 xor	 dl, -20			; ffffffecH
  0007b	88 55 ed	 mov	 BYTE PTR __t$[ebp+5], dl
  0007e	8a 50 06	 mov	 dl, BYTE PTR [eax+6]
  00081	84 d2		 test	 dl, dl
  00083	0f 84 da 00 00
	00		 je	 $LN90@operator@2
  00089	32 d1		 xor	 dl, cl
  0008b	88 55 ee	 mov	 BYTE PTR __t$[ebp+6], dl
  0008e	8a 50 07	 mov	 dl, BYTE PTR [eax+7]
  00091	84 d2		 test	 dl, dl
  00093	0f 84 c4 00 00
	00		 je	 $LN89@operator@2
  00099	80 f2 ea	 xor	 dl, -22			; ffffffeaH
  0009c	88 55 ef	 mov	 BYTE PTR __t$[ebp+7], dl
  0009f	8a 50 08	 mov	 dl, BYTE PTR [eax+8]
  000a2	84 d2		 test	 dl, dl
  000a4	0f 84 ad 00 00
	00		 je	 $LN88@operator@2
  000aa	80 f2 ed	 xor	 dl, -19			; ffffffedH
  000ad	88 55 f0	 mov	 BYTE PTR __t$[ebp+8], dl
  000b0	8a 50 09	 mov	 dl, BYTE PTR [eax+9]
  000b3	84 d2		 test	 dl, dl
  000b5	0f 84 96 00 00
	00		 je	 $LN87@operator@2
  000bb	80 f2 ec	 xor	 dl, -20			; ffffffecH
  000be	88 55 f1	 mov	 BYTE PTR __t$[ebp+9], dl
  000c1	8a 50 0a	 mov	 dl, BYTE PTR [eax+10]
  000c4	84 d2		 test	 dl, dl
  000c6	0f 84 80 00 00
	00		 je	 $LN86@operator@2
  000cc	32 d1		 xor	 dl, cl
  000ce	88 55 f2	 mov	 BYTE PTR __t$[ebp+10], dl
  000d1	8a 50 0b	 mov	 dl, BYTE PTR [eax+11]
  000d4	84 d2		 test	 dl, dl
  000d6	74 6e		 je	 SHORT $LN85@operator@2
  000d8	80 f2 ea	 xor	 dl, -22			; ffffffeaH
  000db	88 55 f3	 mov	 BYTE PTR __t$[ebp+11], dl
  000de	8a 50 0c	 mov	 dl, BYTE PTR [eax+12]
  000e1	84 d2		 test	 dl, dl
  000e3	74 5b		 je	 SHORT $LN84@operator@2
  000e5	80 f2 ed	 xor	 dl, -19			; ffffffedH
  000e8	80 78 0d 00	 cmp	 BYTE PTR [eax+13], 0
  000ec	88 55 f4	 mov	 BYTE PTR __t$[ebp+12], dl
  000ef	0f 84 95 00 00
	00		 je	 $LN1@operator@2
  000f5	8a 50 0e	 mov	 dl, BYTE PTR [eax+14]
  000f8	84 d2		 test	 dl, dl
  000fa	74 3f		 je	 SHORT $LN82@operator@2
  000fc	32 d1		 xor	 dl, cl
  000fe	88 55 f6	 mov	 BYTE PTR __t$[ebp+14], dl
  00101	8a 50 0f	 mov	 dl, BYTE PTR [eax+15]
  00104	84 d2		 test	 dl, dl
  00106	74 2d		 je	 SHORT $LN81@operator@2
  00108	80 f2 ea	 xor	 dl, -22			; ffffffeaH
  0010b	88 55 f7	 mov	 BYTE PTR __t$[ebp+15], dl
  0010e	8a 50 10	 mov	 dl, BYTE PTR [eax+16]
  00111	84 d2		 test	 dl, dl
  00113	74 1a		 je	 SHORT $LN80@operator@2
  00115	8a 40 11	 mov	 al, BYTE PTR [eax+17]
  00118	80 f2 ed	 xor	 dl, -19			; ffffffedH
  0011b	88 55 f8	 mov	 BYTE PTR __t$[ebp+16], dl
  0011e	84 c0		 test	 al, al
  00120	74 07		 je	 SHORT $LN79@operator@2
  00122	34 ec		 xor	 al, -20			; ffffffecH
  00124	88 45 f9	 mov	 BYTE PTR __t$[ebp+17], al
  00127	eb 61		 jmp	 SHORT $LN1@operator@2
$LN79@operator@2:
  00129	c6 45 f9 ec	 mov	 BYTE PTR __t$[ebp+17], -20 ; ffffffecH
  0012d	eb 5b		 jmp	 SHORT $LN1@operator@2
$LN80@operator@2:
  0012f	c6 45 f8 ed	 mov	 BYTE PTR __t$[ebp+16], -19 ; ffffffedH
  00133	eb 55		 jmp	 SHORT $LN1@operator@2
$LN81@operator@2:
  00135	c6 45 f7 ea	 mov	 BYTE PTR __t$[ebp+15], -22 ; ffffffeaH
  00139	eb 4f		 jmp	 SHORT $LN1@operator@2
$LN82@operator@2:
  0013b	88 4d f6	 mov	 BYTE PTR __t$[ebp+14], cl
  0013e	eb 4a		 jmp	 SHORT $LN1@operator@2
$LN84@operator@2:
  00140	c6 45 f4 ed	 mov	 BYTE PTR __t$[ebp+12], -19 ; ffffffedH
  00144	eb 44		 jmp	 SHORT $LN1@operator@2
$LN85@operator@2:
  00146	c6 45 f3 ea	 mov	 BYTE PTR __t$[ebp+11], -22 ; ffffffeaH
  0014a	eb 3e		 jmp	 SHORT $LN1@operator@2
$LN86@operator@2:
  0014c	88 4d f2	 mov	 BYTE PTR __t$[ebp+10], cl
  0014f	eb 39		 jmp	 SHORT $LN1@operator@2
$LN87@operator@2:
  00151	c6 45 f1 ec	 mov	 BYTE PTR __t$[ebp+9], -20 ; ffffffecH
  00155	eb 33		 jmp	 SHORT $LN1@operator@2
$LN88@operator@2:
  00157	c6 45 f0 ed	 mov	 BYTE PTR __t$[ebp+8], -19 ; ffffffedH
  0015b	eb 2d		 jmp	 SHORT $LN1@operator@2
$LN89@operator@2:
  0015d	c6 45 ef ea	 mov	 BYTE PTR __t$[ebp+7], -22 ; ffffffeaH
  00161	eb 27		 jmp	 SHORT $LN1@operator@2
$LN90@operator@2:
  00163	88 4d ee	 mov	 BYTE PTR __t$[ebp+6], cl
  00166	eb 22		 jmp	 SHORT $LN1@operator@2
$LN91@operator@2:
  00168	c6 45 ed ec	 mov	 BYTE PTR __t$[ebp+5], -20 ; ffffffecH
  0016c	eb 1c		 jmp	 SHORT $LN1@operator@2
$LN92@operator@2:
  0016e	c6 45 ec ed	 mov	 BYTE PTR __t$[ebp+4], -19 ; ffffffedH
  00172	eb 16		 jmp	 SHORT $LN1@operator@2
$LN93@operator@2:
  00174	c6 45 eb ea	 mov	 BYTE PTR __t$[ebp+3], -22 ; ffffffeaH
  00178	eb 10		 jmp	 SHORT $LN1@operator@2
$LN94@operator@2:
  0017a	c6 45 ea eb	 mov	 BYTE PTR __t$[ebp+2], -21 ; ffffffebH
  0017e	eb 0a		 jmp	 SHORT $LN1@operator@2
$LN95@operator@2:
  00180	c6 45 e9 ec	 mov	 BYTE PTR __t$[ebp+1], -20 ; ffffffecH
  00184	eb 04		 jmp	 SHORT $LN1@operator@2
$LN96@operator@2:
  00186	c6 45 e8 ed	 mov	 BYTE PTR __t$[ebp], -19	; ffffffedH
$LN1@operator@2:
  0018a	6a 03		 push	 3
  0018c	8d 45 e8	 lea	 eax, DWORD PTR __t$[ebp]
  0018f	c6 45 f5 00	 mov	 BYTE PTR __t$[ebp+13], 0
  00193	5a		 pop	 edx
$LL104@operator@2:
  00194	81 30 ed ec eb
	ea		 xor	 DWORD PTR [eax], -353637139 ; eaebecedH
  0019a	83 c0 04	 add	 eax, 4
  0019d	4a		 dec	 edx
  0019e	75 f4		 jne	 SHORT $LL104@operator@2
  001a0	80 75 f4 ed	 xor	 BYTE PTR __t$[ebp+12], -19 ; ffffffedH
  001a4	8b cf		 mov	 ecx, edi
  001a6	8d 75 e8	 lea	 esi, DWORD PTR __t$[ebp]
  001a9	ff 15 00 00 00
	00		 call	 DWORD PTR __imp_?c_str@ioHashString@@QBEPBDXZ
$LL111@operator@2:
  001af	8a 08		 mov	 cl, BYTE PTR [eax]
  001b1	3a 0e		 cmp	 cl, BYTE PTR [esi]
  001b3	75 1a		 jne	 SHORT $LN112@operator@2
  001b5	84 c9		 test	 cl, cl
  001b7	74 12		 je	 SHORT $LN113@operator@2
  001b9	8a 48 01	 mov	 cl, BYTE PTR [eax+1]
  001bc	3a 4e 01	 cmp	 cl, BYTE PTR [esi+1]
  001bf	75 0e		 jne	 SHORT $LN112@operator@2
  001c1	83 c0 02	 add	 eax, 2
  001c4	83 c6 02	 add	 esi, 2
  001c7	84 c9		 test	 cl, cl
  001c9	75 e4		 jne	 SHORT $LL111@operator@2
$LN113@operator@2:
  001cb	33 c0		 xor	 eax, eax
  001cd	eb 05		 jmp	 SHORT $LN114@operator@2
$LN112@operator@2:
  001cf	1b c0		 sbb	 eax, eax
  001d1	83 d8 ff	 sbb	 eax, -1
$LN114@operator@2:
  001d4	33 c9		 xor	 ecx, ecx
  001d6	85 c0		 test	 eax, eax
  001d8	0f 94 c0	 sete	 al

; 148  : }

  001db	8b 4d fc	 mov	 ecx, DWORD PTR __$ArrayPad$[ebp]
  001de	5f		 pop	 edi
  001df	33 cd		 xor	 ecx, ebp
  001e1	5e		 pop	 esi
  001e2	e8 00 00 00 00	 call	 @__security_check_cookie@4
  001e7	c9		 leave
  001e8	c3		 ret	 0
??$?8$0O@@@YA_NABVioHashString@@AAY0O@$$CBD@Z ENDP	; operator==<14>
_TEXT	ENDS
PUBLIC	__$ArrayPad$
PUBLIC	??$?8$09@@YA_NABVioHashString@@AAY09$$CBD@Z	; operator==<10>
; Function compile flags: /Ogsp
;	COMDAT ??$?8$09@@YA_NABVioHashString@@AAY09$$CBD@Z
_TEXT	SEGMENT
__t$ = -20						; size = 10
__$ArrayPad$ = -4					; size = 4
_lhs$ = 8						; size = 4
_t$ = 12						; size = 4
??$?8$09@@YA_NABVioHashString@@AAY09$$CBD@Z PROC	; operator==<10>, COMDAT

; 146  : {

  00000	55		 push	 ebp
  00001	8b ec		 mov	 ebp, esp
  00003	83 ec 14	 sub	 esp, 20			; 00000014H
  00006	a1 00 00 00 00	 mov	 eax, DWORD PTR ___security_cookie
  0000b	33 c5		 xor	 eax, ebp
  0000d	89 45 fc	 mov	 DWORD PTR __$ArrayPad$[ebp], eax
  00010	8b 45 0c	 mov	 eax, DWORD PTR _t$[ebp]

; 147  : 	_ENCSTR(t, _t); return ( strcmp( lhs.c_str(), _t ) == 0 );

  00013	8a 10		 mov	 dl, BYTE PTR [eax]
  00015	8b 4d 08	 mov	 ecx, DWORD PTR _lhs$[ebp]
  00018	84 d2		 test	 dl, dl
  0001a	0f 84 0d 01 00
	00		 je	 $LN96@operator@3
  00020	80 f2 ed	 xor	 dl, -19			; ffffffedH
  00023	88 55 ec	 mov	 BYTE PTR __t$[ebp], dl
  00026	8a 50 01	 mov	 dl, BYTE PTR [eax+1]
  00029	84 d2		 test	 dl, dl
  0002b	0f 84 f6 00 00
	00		 je	 $LN95@operator@3
  00031	80 f2 ec	 xor	 dl, -20			; ffffffecH
  00034	88 55 ed	 mov	 BYTE PTR __t$[ebp+1], dl
  00037	8a 50 02	 mov	 dl, BYTE PTR [eax+2]
  0003a	84 d2		 test	 dl, dl
  0003c	0f 84 df 00 00
	00		 je	 $LN94@operator@3
  00042	80 f2 eb	 xor	 dl, -21			; ffffffebH
  00045	88 55 ee	 mov	 BYTE PTR __t$[ebp+2], dl
  00048	8a 50 03	 mov	 dl, BYTE PTR [eax+3]
  0004b	84 d2		 test	 dl, dl
  0004d	0f 84 c8 00 00
	00		 je	 $LN93@operator@3
  00053	80 f2 ea	 xor	 dl, -22			; ffffffeaH
  00056	88 55 ef	 mov	 BYTE PTR __t$[ebp+3], dl
  00059	8a 50 04	 mov	 dl, BYTE PTR [eax+4]
  0005c	84 d2		 test	 dl, dl
  0005e	0f 84 b1 00 00
	00		 je	 $LN92@operator@3
  00064	80 f2 ed	 xor	 dl, -19			; ffffffedH
  00067	88 55 f0	 mov	 BYTE PTR __t$[ebp+4], dl
  0006a	8a 50 05	 mov	 dl, BYTE PTR [eax+5]
  0006d	84 d2		 test	 dl, dl
  0006f	0f 84 9a 00 00
	00		 je	 $LN91@operator@3
  00075	80 f2 ec	 xor	 dl, -20			; ffffffecH
  00078	88 55 f1	 mov	 BYTE PTR __t$[ebp+5], dl
  0007b	8a 50 06	 mov	 dl, BYTE PTR [eax+6]
  0007e	84 d2		 test	 dl, dl
  00080	0f 84 83 00 00
	00		 je	 $LN90@operator@3
  00086	80 f2 eb	 xor	 dl, -21			; ffffffebH
  00089	88 55 f2	 mov	 BYTE PTR __t$[ebp+6], dl
  0008c	8a 50 07	 mov	 dl, BYTE PTR [eax+7]
  0008f	84 d2		 test	 dl, dl
  00091	74 70		 je	 SHORT $LN89@operator@3
  00093	80 f2 ea	 xor	 dl, -22			; ffffffeaH
  00096	88 55 f3	 mov	 BYTE PTR __t$[ebp+7], dl
  00099	8a 50 08	 mov	 dl, BYTE PTR [eax+8]
  0009c	84 d2		 test	 dl, dl
  0009e	74 5d		 je	 SHORT $LN88@operator@3
  000a0	80 f2 ed	 xor	 dl, -19			; ffffffedH
  000a3	80 78 09 00	 cmp	 BYTE PTR [eax+9], 0
  000a7	88 55 f4	 mov	 BYTE PTR __t$[ebp+8], dl
  000aa	0f 84 81 00 00
	00		 je	 $LN1@operator@3
  000b0	8a 50 0a	 mov	 dl, BYTE PTR [eax+10]
  000b3	84 d2		 test	 dl, dl
  000b5	74 40		 je	 SHORT $LN86@operator@3
  000b7	80 f2 eb	 xor	 dl, -21			; ffffffebH
  000ba	88 55 f6	 mov	 BYTE PTR __t$[ebp+10], dl
  000bd	8a 50 0b	 mov	 dl, BYTE PTR [eax+11]
  000c0	84 d2		 test	 dl, dl
  000c2	74 2d		 je	 SHORT $LN85@operator@3
  000c4	80 f2 ea	 xor	 dl, -22			; ffffffeaH
  000c7	88 55 f7	 mov	 BYTE PTR __t$[ebp+11], dl
  000ca	8a 50 0c	 mov	 dl, BYTE PTR [eax+12]
  000cd	84 d2		 test	 dl, dl
  000cf	74 1a		 je	 SHORT $LN84@operator@3
  000d1	8a 40 0d	 mov	 al, BYTE PTR [eax+13]
  000d4	80 f2 ed	 xor	 dl, -19			; ffffffedH
  000d7	88 55 f8	 mov	 BYTE PTR __t$[ebp+12], dl
  000da	84 c0		 test	 al, al
  000dc	74 07		 je	 SHORT $LN83@operator@3
  000de	34 ec		 xor	 al, -20			; ffffffecH
  000e0	88 45 f9	 mov	 BYTE PTR __t$[ebp+13], al
  000e3	eb 4c		 jmp	 SHORT $LN1@operator@3
$LN83@operator@3:
  000e5	c6 45 f9 ec	 mov	 BYTE PTR __t$[ebp+13], -20 ; ffffffecH
  000e9	eb 46		 jmp	 SHORT $LN1@operator@3
$LN84@operator@3:
  000eb	c6 45 f8 ed	 mov	 BYTE PTR __t$[ebp+12], -19 ; ffffffedH
  000ef	eb 40		 jmp	 SHORT $LN1@operator@3
$LN85@operator@3:
  000f1	c6 45 f7 ea	 mov	 BYTE PTR __t$[ebp+11], -22 ; ffffffeaH
  000f5	eb 3a		 jmp	 SHORT $LN1@operator@3
$LN86@operator@3:
  000f7	c6 45 f6 eb	 mov	 BYTE PTR __t$[ebp+10], -21 ; ffffffebH
  000fb	eb 34		 jmp	 SHORT $LN1@operator@3
$LN88@operator@3:
  000fd	c6 45 f4 ed	 mov	 BYTE PTR __t$[ebp+8], -19 ; ffffffedH
  00101	eb 2e		 jmp	 SHORT $LN1@operator@3
$LN89@operator@3:
  00103	c6 45 f3 ea	 mov	 BYTE PTR __t$[ebp+7], -22 ; ffffffeaH
  00107	eb 28		 jmp	 SHORT $LN1@operator@3
$LN90@operator@3:
  00109	c6 45 f2 eb	 mov	 BYTE PTR __t$[ebp+6], -21 ; ffffffebH
  0010d	eb 22		 jmp	 SHORT $LN1@operator@3
$LN91@operator@3:
  0010f	c6 45 f1 ec	 mov	 BYTE PTR __t$[ebp+5], -20 ; ffffffecH
  00113	eb 1c		 jmp	 SHORT $LN1@operator@3
$LN92@operator@3:
  00115	c6 45 f0 ed	 mov	 BYTE PTR __t$[ebp+4], -19 ; ffffffedH
  00119	eb 16		 jmp	 SHORT $LN1@operator@3
$LN93@operator@3:
  0011b	c6 45 ef ea	 mov	 BYTE PTR __t$[ebp+3], -22 ; ffffffeaH
  0011f	eb 10		 jmp	 SHORT $LN1@operator@3
$LN94@operator@3:
  00121	c6 45 ee eb	 mov	 BYTE PTR __t$[ebp+2], -21 ; ffffffebH
  00125	eb 0a		 jmp	 SHORT $LN1@operator@3
$LN95@operator@3:
  00127	c6 45 ed ec	 mov	 BYTE PTR __t$[ebp+1], -20 ; ffffffecH
  0012b	eb 04		 jmp	 SHORT $LN1@operator@3
$LN96@operator@3:
  0012d	c6 45 ec ed	 mov	 BYTE PTR __t$[ebp], -19	; ffffffedH
$LN1@operator@3:
  00131	6a 02		 push	 2
  00133	8d 45 ec	 lea	 eax, DWORD PTR __t$[ebp]
  00136	c6 45 f5 00	 mov	 BYTE PTR __t$[ebp+9], 0
  0013a	5a		 pop	 edx
$LL104@operator@3:
  0013b	81 30 ed ec eb
	ea		 xor	 DWORD PTR [eax], -353637139 ; eaebecedH
  00141	83 c0 04	 add	 eax, 4
  00144	4a		 dec	 edx
  00145	75 f4		 jne	 SHORT $LL104@operator@3
  00147	80 75 f4 ed	 xor	 BYTE PTR __t$[ebp+8], -19 ; ffffffedH
  0014b	56		 push	 esi
  0014c	8d 75 ec	 lea	 esi, DWORD PTR __t$[ebp]
  0014f	ff 15 00 00 00
	00		 call	 DWORD PTR __imp_?c_str@ioHashString@@QBEPBDXZ
$LL111@operator@3:
  00155	8a 08		 mov	 cl, BYTE PTR [eax]
  00157	3a 0e		 cmp	 cl, BYTE PTR [esi]
  00159	75 1a		 jne	 SHORT $LN112@operator@3
  0015b	84 c9		 test	 cl, cl
  0015d	74 12		 je	 SHORT $LN113@operator@3
  0015f	8a 48 01	 mov	 cl, BYTE PTR [eax+1]
  00162	3a 4e 01	 cmp	 cl, BYTE PTR [esi+1]
  00165	75 0e		 jne	 SHORT $LN112@operator@3
  00167	83 c0 02	 add	 eax, 2
  0016a	83 c6 02	 add	 esi, 2
  0016d	84 c9		 test	 cl, cl
  0016f	75 e4		 jne	 SHORT $LL111@operator@3
$LN113@operator@3:
  00171	33 c0		 xor	 eax, eax
  00173	eb 05		 jmp	 SHORT $LN114@operator@3
$LN112@operator@3:
  00175	1b c0		 sbb	 eax, eax
  00177	83 d8 ff	 sbb	 eax, -1
$LN114@operator@3:
  0017a	33 c9		 xor	 ecx, ecx
  0017c	85 c0		 test	 eax, eax
  0017e	0f 94 c0	 sete	 al

; 148  : }

  00181	8b 4d fc	 mov	 ecx, DWORD PTR __$ArrayPad$[ebp]
  00184	33 cd		 xor	 ecx, ebp
  00186	5e		 pop	 esi
  00187	e8 00 00 00 00	 call	 @__security_check_cookie@4
  0018c	c9		 leave
  0018d	c3		 ret	 0
??$?8$09@@YA_NABVioHashString@@AAY09$$CBD@Z ENDP	; operator==<10>
_TEXT	ENDS
PUBLIC	__$ArrayPad$
PUBLIC	??$?8$0M@@@YA_NABVioHashString@@AAY0M@$$CBD@Z	; operator==<12>
; Function compile flags: /Ogsp
;	COMDAT ??$?8$0M@@@YA_NABVioHashString@@AAY0M@$$CBD@Z
_TEXT	SEGMENT
__t$ = -20						; size = 12
__$ArrayPad$ = -4					; size = 4
_lhs$ = 8						; size = 4
_t$ = 12						; size = 4
??$?8$0M@@@YA_NABVioHashString@@AAY0M@$$CBD@Z PROC	; operator==<12>, COMDAT

; 146  : {

  00000	55		 push	 ebp
  00001	8b ec		 mov	 ebp, esp
  00003	83 ec 14	 sub	 esp, 20			; 00000014H
  00006	a1 00 00 00 00	 mov	 eax, DWORD PTR ___security_cookie
  0000b	33 c5		 xor	 eax, ebp
  0000d	89 45 fc	 mov	 DWORD PTR __$ArrayPad$[ebp], eax
  00010	8b 45 0c	 mov	 eax, DWORD PTR _t$[ebp]

; 147  : 	_ENCSTR(t, _t); return ( strcmp( lhs.c_str(), _t ) == 0 );

  00013	8a 10		 mov	 dl, BYTE PTR [eax]
  00015	56		 push	 esi
  00016	57		 push	 edi
  00017	8b 7d 08	 mov	 edi, DWORD PTR _lhs$[ebp]
  0001a	84 d2		 test	 dl, dl
  0001c	0f 84 32 01 00
	00		 je	 $LN96@operator@4
  00022	80 f2 ed	 xor	 dl, -19			; ffffffedH
  00025	88 55 ec	 mov	 BYTE PTR __t$[ebp], dl
  00028	8a 50 01	 mov	 dl, BYTE PTR [eax+1]
  0002b	84 d2		 test	 dl, dl
  0002d	0f 84 1b 01 00
	00		 je	 $LN95@operator@4
  00033	80 f2 ec	 xor	 dl, -20			; ffffffecH
  00036	88 55 ed	 mov	 BYTE PTR __t$[ebp+1], dl
  00039	8a 50 02	 mov	 dl, BYTE PTR [eax+2]
  0003c	84 d2		 test	 dl, dl
  0003e	0f 84 04 01 00
	00		 je	 $LN94@operator@4
  00044	b1 eb		 mov	 cl, -21			; ffffffebH
  00046	32 d1		 xor	 dl, cl
  00048	88 55 ee	 mov	 BYTE PTR __t$[ebp+2], dl
  0004b	8a 50 03	 mov	 dl, BYTE PTR [eax+3]
  0004e	84 d2		 test	 dl, dl
  00050	0f 84 ec 00 00
	00		 je	 $LN93@operator@4
  00056	80 f2 ea	 xor	 dl, -22			; ffffffeaH
  00059	88 55 ef	 mov	 BYTE PTR __t$[ebp+3], dl
  0005c	8a 50 04	 mov	 dl, BYTE PTR [eax+4]
  0005f	84 d2		 test	 dl, dl
  00061	0f 84 d5 00 00
	00		 je	 $LN92@operator@4
  00067	80 f2 ed	 xor	 dl, -19			; ffffffedH
  0006a	88 55 f0	 mov	 BYTE PTR __t$[ebp+4], dl
  0006d	8a 50 05	 mov	 dl, BYTE PTR [eax+5]
  00070	84 d2		 test	 dl, dl
  00072	0f 84 be 00 00
	00		 je	 $LN91@operator@4
  00078	80 f2 ec	 xor	 dl, -20			; ffffffecH
  0007b	88 55 f1	 mov	 BYTE PTR __t$[ebp+5], dl
  0007e	8a 50 06	 mov	 dl, BYTE PTR [eax+6]
  00081	84 d2		 test	 dl, dl
  00083	0f 84 a8 00 00
	00		 je	 $LN90@operator@4
  00089	32 d1		 xor	 dl, cl
  0008b	88 55 f2	 mov	 BYTE PTR __t$[ebp+6], dl
  0008e	8a 50 07	 mov	 dl, BYTE PTR [eax+7]
  00091	84 d2		 test	 dl, dl
  00093	0f 84 92 00 00
	00		 je	 $LN89@operator@4
  00099	80 f2 ea	 xor	 dl, -22			; ffffffeaH
  0009c	88 55 f3	 mov	 BYTE PTR __t$[ebp+7], dl
  0009f	8a 50 08	 mov	 dl, BYTE PTR [eax+8]
  000a2	84 d2		 test	 dl, dl
  000a4	74 7f		 je	 SHORT $LN88@operator@4
  000a6	80 f2 ed	 xor	 dl, -19			; ffffffedH
  000a9	88 55 f4	 mov	 BYTE PTR __t$[ebp+8], dl
  000ac	8a 50 09	 mov	 dl, BYTE PTR [eax+9]
  000af	84 d2		 test	 dl, dl
  000b1	74 6c		 je	 SHORT $LN87@operator@4
  000b3	80 f2 ec	 xor	 dl, -20			; ffffffecH
  000b6	88 55 f5	 mov	 BYTE PTR __t$[ebp+9], dl
  000b9	8a 50 0a	 mov	 dl, BYTE PTR [eax+10]
  000bc	84 d2		 test	 dl, dl
  000be	74 5a		 je	 SHORT $LN86@operator@4
  000c0	32 d1		 xor	 dl, cl
  000c2	80 78 0b 00	 cmp	 BYTE PTR [eax+11], 0
  000c6	88 55 f6	 mov	 BYTE PTR __t$[ebp+10], dl
  000c9	0f 84 89 00 00
	00		 je	 $LN1@operator@4
  000cf	8a 50 0c	 mov	 dl, BYTE PTR [eax+12]
  000d2	84 d2		 test	 dl, dl
  000d4	74 3e		 je	 SHORT $LN84@operator@4
  000d6	80 f2 ed	 xor	 dl, -19			; ffffffedH
  000d9	88 55 f8	 mov	 BYTE PTR __t$[ebp+12], dl
  000dc	8a 50 0d	 mov	 dl, BYTE PTR [eax+13]
  000df	84 d2		 test	 dl, dl
  000e1	74 2b		 je	 SHORT $LN83@operator@4
  000e3	80 f2 ec	 xor	 dl, -20			; ffffffecH
  000e6	88 55 f9	 mov	 BYTE PTR __t$[ebp+13], dl
  000e9	8a 50 0e	 mov	 dl, BYTE PTR [eax+14]
  000ec	84 d2		 test	 dl, dl
  000ee	74 19		 je	 SHORT $LN82@operator@4
  000f0	8a 40 0f	 mov	 al, BYTE PTR [eax+15]
  000f3	32 d1		 xor	 dl, cl
  000f5	88 55 fa	 mov	 BYTE PTR __t$[ebp+14], dl
  000f8	84 c0		 test	 al, al
  000fa	74 07		 je	 SHORT $LN81@operator@4
  000fc	34 ea		 xor	 al, -22			; ffffffeaH
  000fe	88 45 fb	 mov	 BYTE PTR __t$[ebp+15], al
  00101	eb 55		 jmp	 SHORT $LN1@operator@4
$LN81@operator@4:
  00103	c6 45 fb ea	 mov	 BYTE PTR __t$[ebp+15], -22 ; ffffffeaH
  00107	eb 4f		 jmp	 SHORT $LN1@operator@4
$LN82@operator@4:
  00109	88 4d fa	 mov	 BYTE PTR __t$[ebp+14], cl
  0010c	eb 4a		 jmp	 SHORT $LN1@operator@4
$LN83@operator@4:
  0010e	c6 45 f9 ec	 mov	 BYTE PTR __t$[ebp+13], -20 ; ffffffecH
  00112	eb 44		 jmp	 SHORT $LN1@operator@4
$LN84@operator@4:
  00114	c6 45 f8 ed	 mov	 BYTE PTR __t$[ebp+12], -19 ; ffffffedH
  00118	eb 3e		 jmp	 SHORT $LN1@operator@4
$LN86@operator@4:
  0011a	88 4d f6	 mov	 BYTE PTR __t$[ebp+10], cl
  0011d	eb 39		 jmp	 SHORT $LN1@operator@4
$LN87@operator@4:
  0011f	c6 45 f5 ec	 mov	 BYTE PTR __t$[ebp+9], -20 ; ffffffecH
  00123	eb 33		 jmp	 SHORT $LN1@operator@4
$LN88@operator@4:
  00125	c6 45 f4 ed	 mov	 BYTE PTR __t$[ebp+8], -19 ; ffffffedH
  00129	eb 2d		 jmp	 SHORT $LN1@operator@4
$LN89@operator@4:
  0012b	c6 45 f3 ea	 mov	 BYTE PTR __t$[ebp+7], -22 ; ffffffeaH
  0012f	eb 27		 jmp	 SHORT $LN1@operator@4
$LN90@operator@4:
  00131	88 4d f2	 mov	 BYTE PTR __t$[ebp+6], cl
  00134	eb 22		 jmp	 SHORT $LN1@operator@4
$LN91@operator@4:
  00136	c6 45 f1 ec	 mov	 BYTE PTR __t$[ebp+5], -20 ; ffffffecH
  0013a	eb 1c		 jmp	 SHORT $LN1@operator@4
$LN92@operator@4:
  0013c	c6 45 f0 ed	 mov	 BYTE PTR __t$[ebp+4], -19 ; ffffffedH
  00140	eb 16		 jmp	 SHORT $LN1@operator@4
$LN93@operator@4:
  00142	c6 45 ef ea	 mov	 BYTE PTR __t$[ebp+3], -22 ; ffffffeaH
  00146	eb 10		 jmp	 SHORT $LN1@operator@4
$LN94@operator@4:
  00148	c6 45 ee eb	 mov	 BYTE PTR __t$[ebp+2], -21 ; ffffffebH
  0014c	eb 0a		 jmp	 SHORT $LN1@operator@4
$LN95@operator@4:
  0014e	c6 45 ed ec	 mov	 BYTE PTR __t$[ebp+1], -20 ; ffffffecH
  00152	eb 04		 jmp	 SHORT $LN1@operator@4
$LN96@operator@4:
  00154	c6 45 ec ed	 mov	 BYTE PTR __t$[ebp], -19	; ffffffedH
$LN1@operator@4:
  00158	6a 02		 push	 2
  0015a	8d 45 ec	 lea	 eax, DWORD PTR __t$[ebp]
  0015d	c6 45 f7 00	 mov	 BYTE PTR __t$[ebp+11], 0
  00161	5a		 pop	 edx
$LL104@operator@4:
  00162	81 30 ed ec eb
	ea		 xor	 DWORD PTR [eax], -353637139 ; eaebecedH
  00168	83 c0 04	 add	 eax, 4
  0016b	4a		 dec	 edx
  0016c	75 f4		 jne	 SHORT $LL104@operator@4
  0016e	6a 08		 push	 8
  00170	58		 pop	 eax
$LL101@operator@4:
  00171	8b c8		 mov	 ecx, eax
  00173	81 e1 03 00 00
	80		 and	 ecx, -2147483645	; 80000003H
  00179	79 05		 jns	 SHORT $LN115@operator@4
  0017b	49		 dec	 ecx
  0017c	83 c9 fc	 or	 ecx, -4			; fffffffcH
  0017f	41		 inc	 ecx
$LN115@operator@4:
  00180	b2 ed		 mov	 dl, -19			; ffffffedH
  00182	2a d1		 sub	 dl, cl
  00184	30 54 05 ec	 xor	 BYTE PTR __t$[ebp+eax], dl
  00188	40		 inc	 eax
  00189	83 f8 0b	 cmp	 eax, 11			; 0000000bH
  0018c	7c e3		 jl	 SHORT $LL101@operator@4
  0018e	8b cf		 mov	 ecx, edi
  00190	8d 75 ec	 lea	 esi, DWORD PTR __t$[ebp]
  00193	ff 15 00 00 00
	00		 call	 DWORD PTR __imp_?c_str@ioHashString@@QBEPBDXZ
$LL111@operator@4:
  00199	8a 08		 mov	 cl, BYTE PTR [eax]
  0019b	3a 0e		 cmp	 cl, BYTE PTR [esi]
  0019d	75 1a		 jne	 SHORT $LN112@operator@4
  0019f	84 c9		 test	 cl, cl
  001a1	74 12		 je	 SHORT $LN113@operator@4
  001a3	8a 48 01	 mov	 cl, BYTE PTR [eax+1]
  001a6	3a 4e 01	 cmp	 cl, BYTE PTR [esi+1]
  001a9	75 0e		 jne	 SHORT $LN112@operator@4
  001ab	83 c0 02	 add	 eax, 2
  001ae	83 c6 02	 add	 esi, 2
  001b1	84 c9		 test	 cl, cl
  001b3	75 e4		 jne	 SHORT $LL111@operator@4
$LN113@operator@4:
  001b5	33 c0		 xor	 eax, eax
  001b7	eb 05		 jmp	 SHORT $LN114@operator@4
$LN112@operator@4:
  001b9	1b c0		 sbb	 eax, eax
  001bb	83 d8 ff	 sbb	 eax, -1
$LN114@operator@4:
  001be	33 c9		 xor	 ecx, ecx
  001c0	85 c0		 test	 eax, eax
  001c2	0f 94 c0	 sete	 al

; 148  : }

  001c5	8b 4d fc	 mov	 ecx, DWORD PTR __$ArrayPad$[ebp]
  001c8	5f		 pop	 edi
  001c9	33 cd		 xor	 ecx, ebp
  001cb	5e		 pop	 esi
  001cc	e8 00 00 00 00	 call	 @__security_check_cookie@4
  001d1	c9		 leave
  001d2	c3		 ret	 0
??$?8$0M@@@YA_NABVioHashString@@AAY0M@$$CBD@Z ENDP	; operator==<12>
_TEXT	ENDS
PUBLIC	__$ArrayPad$
PUBLIC	??$?8$0P@@@YA_NABVioHashString@@AAY0P@$$CBD@Z	; operator==<15>
; Function compile flags: /Ogsp
;	COMDAT ??$?8$0P@@@YA_NABVioHashString@@AAY0P@$$CBD@Z
_TEXT	SEGMENT
__t$ = -24						; size = 15
__$ArrayPad$ = -4					; size = 4
_lhs$ = 8						; size = 4
_t$ = 12						; size = 4
??$?8$0P@@@YA_NABVioHashString@@AAY0P@$$CBD@Z PROC	; operator==<15>, COMDAT

; 146  : {

  00000	55		 push	 ebp
  00001	8b ec		 mov	 ebp, esp
  00003	83 ec 18	 sub	 esp, 24			; 00000018H
  00006	a1 00 00 00 00	 mov	 eax, DWORD PTR ___security_cookie
  0000b	33 c5		 xor	 eax, ebp
  0000d	89 45 fc	 mov	 DWORD PTR __$ArrayPad$[ebp], eax
  00010	8b 45 0c	 mov	 eax, DWORD PTR _t$[ebp]

; 147  : 	_ENCSTR(t, _t); return ( strcmp( lhs.c_str(), _t ) == 0 );

  00013	8a 10		 mov	 dl, BYTE PTR [eax]
  00015	56		 push	 esi
  00016	57		 push	 edi
  00017	8b 7d 08	 mov	 edi, DWORD PTR _lhs$[ebp]
  0001a	84 d2		 test	 dl, dl
  0001c	0f 84 75 01 00
	00		 je	 $LN96@operator@5
  00022	80 f2 ed	 xor	 dl, -19			; ffffffedH
  00025	88 55 e8	 mov	 BYTE PTR __t$[ebp], dl
  00028	8a 50 01	 mov	 dl, BYTE PTR [eax+1]
  0002b	84 d2		 test	 dl, dl
  0002d	0f 84 5e 01 00
	00		 je	 $LN95@operator@5
  00033	b1 ec		 mov	 cl, -20			; ffffffecH
  00035	32 d1		 xor	 dl, cl
  00037	88 55 e9	 mov	 BYTE PTR __t$[ebp+1], dl
  0003a	8a 50 02	 mov	 dl, BYTE PTR [eax+2]
  0003d	84 d2		 test	 dl, dl
  0003f	0f 84 46 01 00
	00		 je	 $LN94@operator@5
  00045	80 f2 eb	 xor	 dl, -21			; ffffffebH
  00048	88 55 ea	 mov	 BYTE PTR __t$[ebp+2], dl
  0004b	8a 50 03	 mov	 dl, BYTE PTR [eax+3]
  0004e	84 d2		 test	 dl, dl
  00050	0f 84 2f 01 00
	00		 je	 $LN93@operator@5
  00056	80 f2 ea	 xor	 dl, -22			; ffffffeaH
  00059	88 55 eb	 mov	 BYTE PTR __t$[ebp+3], dl
  0005c	8a 50 04	 mov	 dl, BYTE PTR [eax+4]
  0005f	84 d2		 test	 dl, dl
  00061	0f 84 18 01 00
	00		 je	 $LN92@operator@5
  00067	80 f2 ed	 xor	 dl, -19			; ffffffedH
  0006a	88 55 ec	 mov	 BYTE PTR __t$[ebp+4], dl
  0006d	8a 50 05	 mov	 dl, BYTE PTR [eax+5]
  00070	84 d2		 test	 dl, dl
  00072	0f 84 02 01 00
	00		 je	 $LN91@operator@5
  00078	32 d1		 xor	 dl, cl
  0007a	88 55 ed	 mov	 BYTE PTR __t$[ebp+5], dl
  0007d	8a 50 06	 mov	 dl, BYTE PTR [eax+6]
  00080	84 d2		 test	 dl, dl
  00082	0f 84 ec 00 00
	00		 je	 $LN90@operator@5
  00088	80 f2 eb	 xor	 dl, -21			; ffffffebH
  0008b	88 55 ee	 mov	 BYTE PTR __t$[ebp+6], dl
  0008e	8a 50 07	 mov	 dl, BYTE PTR [eax+7]
  00091	84 d2		 test	 dl, dl
  00093	0f 84 d5 00 00
	00		 je	 $LN89@operator@5
  00099	80 f2 ea	 xor	 dl, -22			; ffffffeaH
  0009c	88 55 ef	 mov	 BYTE PTR __t$[ebp+7], dl
  0009f	8a 50 08	 mov	 dl, BYTE PTR [eax+8]
  000a2	84 d2		 test	 dl, dl
  000a4	0f 84 be 00 00
	00		 je	 $LN88@operator@5
  000aa	80 f2 ed	 xor	 dl, -19			; ffffffedH
  000ad	88 55 f0	 mov	 BYTE PTR __t$[ebp+8], dl
  000b0	8a 50 09	 mov	 dl, BYTE PTR [eax+9]
  000b3	84 d2		 test	 dl, dl
  000b5	0f 84 a8 00 00
	00		 je	 $LN87@operator@5
  000bb	32 d1		 xor	 dl, cl
  000bd	88 55 f1	 mov	 BYTE PTR __t$[ebp+9], dl
  000c0	8a 50 0a	 mov	 dl, BYTE PTR [eax+10]
  000c3	84 d2		 test	 dl, dl
  000c5	0f 84 92 00 00
	00		 je	 $LN86@operator@5
  000cb	80 f2 eb	 xor	 dl, -21			; ffffffebH
  000ce	88 55 f2	 mov	 BYTE PTR __t$[ebp+10], dl
  000d1	8a 50 0b	 mov	 dl, BYTE PTR [eax+11]
  000d4	84 d2		 test	 dl, dl
  000d6	74 7f		 je	 SHORT $LN85@operator@5
  000d8	80 f2 ea	 xor	 dl, -22			; ffffffeaH
  000db	88 55 f3	 mov	 BYTE PTR __t$[ebp+11], dl
  000de	8a 50 0c	 mov	 dl, BYTE PTR [eax+12]
  000e1	84 d2		 test	 dl, dl
  000e3	74 6c		 je	 SHORT $LN84@operator@5
  000e5	80 f2 ed	 xor	 dl, -19			; ffffffedH
  000e8	88 55 f4	 mov	 BYTE PTR __t$[ebp+12], dl
  000eb	8a 50 0d	 mov	 dl, BYTE PTR [eax+13]
  000ee	84 d2		 test	 dl, dl
  000f0	74 5a		 je	 SHORT $LN83@operator@5
  000f2	32 d1		 xor	 dl, cl
  000f4	80 78 0e 00	 cmp	 BYTE PTR [eax+14], 0
  000f8	88 55 f5	 mov	 BYTE PTR __t$[ebp+13], dl
  000fb	0f 84 9a 00 00
	00		 je	 $LN1@operator@5
  00101	8a 50 0f	 mov	 dl, BYTE PTR [eax+15]
  00104	84 d2		 test	 dl, dl
  00106	74 3e		 je	 SHORT $LN81@operator@5
  00108	80 f2 ea	 xor	 dl, -22			; ffffffeaH
  0010b	88 55 f7	 mov	 BYTE PTR __t$[ebp+15], dl
  0010e	8a 50 10	 mov	 dl, BYTE PTR [eax+16]
  00111	84 d2		 test	 dl, dl
  00113	74 2b		 je	 SHORT $LN80@operator@5
  00115	80 f2 ed	 xor	 dl, -19			; ffffffedH
  00118	88 55 f8	 mov	 BYTE PTR __t$[ebp+16], dl
  0011b	8a 50 11	 mov	 dl, BYTE PTR [eax+17]
  0011e	84 d2		 test	 dl, dl
  00120	74 19		 je	 SHORT $LN79@operator@5
  00122	8a 40 12	 mov	 al, BYTE PTR [eax+18]
  00125	32 d1		 xor	 dl, cl
  00127	88 55 f9	 mov	 BYTE PTR __t$[ebp+17], dl
  0012a	84 c0		 test	 al, al
  0012c	74 07		 je	 SHORT $LN78@operator@5
  0012e	34 eb		 xor	 al, -21			; ffffffebH
  00130	88 45 fa	 mov	 BYTE PTR __t$[ebp+18], al
  00133	eb 66		 jmp	 SHORT $LN1@operator@5
$LN78@operator@5:
  00135	c6 45 fa eb	 mov	 BYTE PTR __t$[ebp+18], -21 ; ffffffebH
  00139	eb 60		 jmp	 SHORT $LN1@operator@5
$LN79@operator@5:
  0013b	88 4d f9	 mov	 BYTE PTR __t$[ebp+17], cl
  0013e	eb 5b		 jmp	 SHORT $LN1@operator@5
$LN80@operator@5:
  00140	c6 45 f8 ed	 mov	 BYTE PTR __t$[ebp+16], -19 ; ffffffedH
  00144	eb 55		 jmp	 SHORT $LN1@operator@5
$LN81@operator@5:
  00146	c6 45 f7 ea	 mov	 BYTE PTR __t$[ebp+15], -22 ; ffffffeaH
  0014a	eb 4f		 jmp	 SHORT $LN1@operator@5
$LN83@operator@5:
  0014c	88 4d f5	 mov	 BYTE PTR __t$[ebp+13], cl
  0014f	eb 4a		 jmp	 SHORT $LN1@operator@5
$LN84@operator@5:
  00151	c6 45 f4 ed	 mov	 BYTE PTR __t$[ebp+12], -19 ; ffffffedH
  00155	eb 44		 jmp	 SHORT $LN1@operator@5
$LN85@operator@5:
  00157	c6 45 f3 ea	 mov	 BYTE PTR __t$[ebp+11], -22 ; ffffffeaH
  0015b	eb 3e		 jmp	 SHORT $LN1@operator@5
$LN86@operator@5:
  0015d	c6 45 f2 eb	 mov	 BYTE PTR __t$[ebp+10], -21 ; ffffffebH
  00161	eb 38		 jmp	 SHORT $LN1@operator@5
$LN87@operator@5:
  00163	88 4d f1	 mov	 BYTE PTR __t$[ebp+9], cl
  00166	eb 33		 jmp	 SHORT $LN1@operator@5
$LN88@operator@5:
  00168	c6 45 f0 ed	 mov	 BYTE PTR __t$[ebp+8], -19 ; ffffffedH
  0016c	eb 2d		 jmp	 SHORT $LN1@operator@5
$LN89@operator@5:
  0016e	c6 45 ef ea	 mov	 BYTE PTR __t$[ebp+7], -22 ; ffffffeaH
  00172	eb 27		 jmp	 SHORT $LN1@operator@5
$LN90@operator@5:
  00174	c6 45 ee eb	 mov	 BYTE PTR __t$[ebp+6], -21 ; ffffffebH
  00178	eb 21		 jmp	 SHORT $LN1@operator@5
$LN91@operator@5:
  0017a	88 4d ed	 mov	 BYTE PTR __t$[ebp+5], cl
  0017d	eb 1c		 jmp	 SHORT $LN1@operator@5
$LN92@operator@5:
  0017f	c6 45 ec ed	 mov	 BYTE PTR __t$[ebp+4], -19 ; ffffffedH
  00183	eb 16		 jmp	 SHORT $LN1@operator@5
$LN93@operator@5:
  00185	c6 45 eb ea	 mov	 BYTE PTR __t$[ebp+3], -22 ; ffffffeaH
  00189	eb 10		 jmp	 SHORT $LN1@operator@5
$LN94@operator@5:
  0018b	c6 45 ea eb	 mov	 BYTE PTR __t$[ebp+2], -21 ; ffffffebH
  0018f	eb 0a		 jmp	 SHORT $LN1@operator@5
$LN95@operator@5:
  00191	c6 45 e9 ec	 mov	 BYTE PTR __t$[ebp+1], -20 ; ffffffecH
  00195	eb 04		 jmp	 SHORT $LN1@operator@5
$LN96@operator@5:
  00197	c6 45 e8 ed	 mov	 BYTE PTR __t$[ebp], -19	; ffffffedH
$LN1@operator@5:
  0019b	6a 03		 push	 3
  0019d	8d 45 e8	 lea	 eax, DWORD PTR __t$[ebp]
  001a0	c6 45 f6 00	 mov	 BYTE PTR __t$[ebp+14], 0
  001a4	5a		 pop	 edx
$LL104@operator@5:
  001a5	81 30 ed ec eb
	ea		 xor	 DWORD PTR [eax], -353637139 ; eaebecedH
  001ab	83 c0 04	 add	 eax, 4
  001ae	4a		 dec	 edx
  001af	75 f4		 jne	 SHORT $LL104@operator@5
  001b1	6a 0c		 push	 12			; 0000000cH
  001b3	58		 pop	 eax
$LL101@operator@5:
  001b4	8b c8		 mov	 ecx, eax
  001b6	81 e1 03 00 00
	80		 and	 ecx, -2147483645	; 80000003H
  001bc	79 05		 jns	 SHORT $LN115@operator@5
  001be	49		 dec	 ecx
  001bf	83 c9 fc	 or	 ecx, -4			; fffffffcH
  001c2	41		 inc	 ecx
$LN115@operator@5:
  001c3	b2 ed		 mov	 dl, -19			; ffffffedH
  001c5	2a d1		 sub	 dl, cl
  001c7	30 54 05 e8	 xor	 BYTE PTR __t$[ebp+eax], dl
  001cb	40		 inc	 eax
  001cc	83 f8 0e	 cmp	 eax, 14			; 0000000eH
  001cf	7c e3		 jl	 SHORT $LL101@operator@5
  001d1	8b cf		 mov	 ecx, edi
  001d3	8d 75 e8	 lea	 esi, DWORD PTR __t$[ebp]
  001d6	ff 15 00 00 00
	00		 call	 DWORD PTR __imp_?c_str@ioHashString@@QBEPBDXZ
$LL111@operator@5:
  001dc	8a 08		 mov	 cl, BYTE PTR [eax]
  001de	3a 0e		 cmp	 cl, BYTE PTR [esi]
  001e0	75 1a		 jne	 SHORT $LN112@operator@5
  001e2	84 c9		 test	 cl, cl
  001e4	74 12		 je	 SHORT $LN113@operator@5
  001e6	8a 48 01	 mov	 cl, BYTE PTR [eax+1]
  001e9	3a 4e 01	 cmp	 cl, BYTE PTR [esi+1]
  001ec	75 0e		 jne	 SHORT $LN112@operator@5
  001ee	83 c0 02	 add	 eax, 2
  001f1	83 c6 02	 add	 esi, 2
  001f4	84 c9		 test	 cl, cl
  001f6	75 e4		 jne	 SHORT $LL111@operator@5
$LN113@operator@5:
  001f8	33 c0		 xor	 eax, eax
  001fa	eb 05		 jmp	 SHORT $LN114@operator@5
$LN112@operator@5:
  001fc	1b c0		 sbb	 eax, eax
  001fe	83 d8 ff	 sbb	 eax, -1
$LN114@operator@5:
  00201	33 c9		 xor	 ecx, ecx
  00203	85 c0		 test	 eax, eax
  00205	0f 94 c0	 sete	 al

; 148  : }

  00208	8b 4d fc	 mov	 ecx, DWORD PTR __$ArrayPad$[ebp]
  0020b	5f		 pop	 edi
  0020c	33 cd		 xor	 ecx, ebp
  0020e	5e		 pop	 esi
  0020f	e8 00 00 00 00	 call	 @__security_check_cookie@4
  00214	c9		 leave
  00215	c3		 ret	 0
??$?8$0P@@@YA_NABVioHashString@@AAY0P@$$CBD@Z ENDP	; operator==<15>
_TEXT	ENDS
PUBLIC	__$ArrayPad$
PUBLIC	??$?8$0BF@@@YA_NABVioHashString@@AAY0BF@$$CBD@Z	; operator==<21>
; Function compile flags: /Ogsp
;	COMDAT ??$?8$0BF@@@YA_NABVioHashString@@AAY0BF@$$CBD@Z
_TEXT	SEGMENT
__t$ = -32						; size = 21
__$ArrayPad$ = -4					; size = 4
_lhs$ = 8						; size = 4
_t$ = 12						; size = 4
??$?8$0BF@@@YA_NABVioHashString@@AAY0BF@$$CBD@Z PROC	; operator==<21>, COMDAT

; 146  : {

  00000	55		 push	 ebp
  00001	8b ec		 mov	 ebp, esp
  00003	83 ec 20	 sub	 esp, 32			; 00000020H
  00006	a1 00 00 00 00	 mov	 eax, DWORD PTR ___security_cookie
  0000b	33 c5		 xor	 eax, ebp
  0000d	89 45 fc	 mov	 DWORD PTR __$ArrayPad$[ebp], eax
  00010	8b 45 0c	 mov	 eax, DWORD PTR _t$[ebp]

; 147  : 	_ENCSTR(t, _t); return ( strcmp( lhs.c_str(), _t ) == 0 );

  00013	8a 10		 mov	 dl, BYTE PTR [eax]
  00015	53		 push	 ebx
  00016	56		 push	 esi
  00017	57		 push	 edi
  00018	8b 7d 08	 mov	 edi, DWORD PTR _lhs$[ebp]
  0001b	84 d2		 test	 dl, dl
  0001d	0f 84 f7 01 00
	00		 je	 $LN96@operator@6
  00023	80 f2 ed	 xor	 dl, -19			; ffffffedH
  00026	88 55 e0	 mov	 BYTE PTR __t$[ebp], dl
  00029	8a 50 01	 mov	 dl, BYTE PTR [eax+1]
  0002c	84 d2		 test	 dl, dl
  0002e	0f 84 e0 01 00
	00		 je	 $LN95@operator@6
  00034	b1 ec		 mov	 cl, -20			; ffffffecH
  00036	32 d1		 xor	 dl, cl
  00038	88 55 e1	 mov	 BYTE PTR __t$[ebp+1], dl
  0003b	8a 50 02	 mov	 dl, BYTE PTR [eax+2]
  0003e	84 d2		 test	 dl, dl
  00040	0f 84 c8 01 00
	00		 je	 $LN94@operator@6
  00046	b3 eb		 mov	 bl, -21			; ffffffebH
  00048	32 d3		 xor	 dl, bl
  0004a	88 55 e2	 mov	 BYTE PTR __t$[ebp+2], dl
  0004d	8a 50 03	 mov	 dl, BYTE PTR [eax+3]
  00050	84 d2		 test	 dl, dl
  00052	0f 84 b0 01 00
	00		 je	 $LN93@operator@6
  00058	80 f2 ea	 xor	 dl, -22			; ffffffeaH
  0005b	88 55 e3	 mov	 BYTE PTR __t$[ebp+3], dl
  0005e	8a 50 04	 mov	 dl, BYTE PTR [eax+4]
  00061	84 d2		 test	 dl, dl
  00063	0f 84 99 01 00
	00		 je	 $LN92@operator@6
  00069	80 f2 ed	 xor	 dl, -19			; ffffffedH
  0006c	88 55 e4	 mov	 BYTE PTR __t$[ebp+4], dl
  0006f	8a 50 05	 mov	 dl, BYTE PTR [eax+5]
  00072	84 d2		 test	 dl, dl
  00074	0f 84 83 01 00
	00		 je	 $LN91@operator@6
  0007a	32 d1		 xor	 dl, cl
  0007c	88 55 e5	 mov	 BYTE PTR __t$[ebp+5], dl
  0007f	8a 50 06	 mov	 dl, BYTE PTR [eax+6]
  00082	84 d2		 test	 dl, dl
  00084	0f 84 6e 01 00
	00		 je	 $LN90@operator@6
  0008a	32 d3		 xor	 dl, bl
  0008c	88 55 e6	 mov	 BYTE PTR __t$[ebp+6], dl
  0008f	8a 50 07	 mov	 dl, BYTE PTR [eax+7]
  00092	84 d2		 test	 dl, dl
  00094	0f 84 58 01 00
	00		 je	 $LN89@operator@6
  0009a	80 f2 ea	 xor	 dl, -22			; ffffffeaH
  0009d	88 55 e7	 mov	 BYTE PTR __t$[ebp+7], dl
  000a0	8a 50 08	 mov	 dl, BYTE PTR [eax+8]
  000a3	84 d2		 test	 dl, dl
  000a5	0f 84 41 01 00
	00		 je	 $LN88@operator@6
  000ab	80 f2 ed	 xor	 dl, -19			; ffffffedH
  000ae	88 55 e8	 mov	 BYTE PTR __t$[ebp+8], dl
  000b1	8a 50 09	 mov	 dl, BYTE PTR [eax+9]
  000b4	84 d2		 test	 dl, dl
  000b6	0f 84 2b 01 00
	00		 je	 $LN87@operator@6
  000bc	32 d1		 xor	 dl, cl
  000be	88 55 e9	 mov	 BYTE PTR __t$[ebp+9], dl
  000c1	8a 50 0a	 mov	 dl, BYTE PTR [eax+10]
  000c4	84 d2		 test	 dl, dl
  000c6	0f 84 16 01 00
	00		 je	 $LN86@operator@6
  000cc	32 d3		 xor	 dl, bl
  000ce	88 55 ea	 mov	 BYTE PTR __t$[ebp+10], dl
  000d1	8a 50 0b	 mov	 dl, BYTE PTR [eax+11]
  000d4	84 d2		 test	 dl, dl
  000d6	0f 84 00 01 00
	00		 je	 $LN85@operator@6
  000dc	80 f2 ea	 xor	 dl, -22			; ffffffeaH
  000df	88 55 eb	 mov	 BYTE PTR __t$[ebp+11], dl
  000e2	8a 50 0c	 mov	 dl, BYTE PTR [eax+12]
  000e5	84 d2		 test	 dl, dl
  000e7	0f 84 e9 00 00
	00		 je	 $LN84@operator@6
  000ed	80 f2 ed	 xor	 dl, -19			; ffffffedH
  000f0	88 55 ec	 mov	 BYTE PTR __t$[ebp+12], dl
  000f3	8a 50 0d	 mov	 dl, BYTE PTR [eax+13]
  000f6	84 d2		 test	 dl, dl
  000f8	0f 84 d3 00 00
	00		 je	 $LN83@operator@6
  000fe	32 d1		 xor	 dl, cl
  00100	88 55 ed	 mov	 BYTE PTR __t$[ebp+13], dl
  00103	8a 50 0e	 mov	 dl, BYTE PTR [eax+14]
  00106	84 d2		 test	 dl, dl
  00108	0f 84 be 00 00
	00		 je	 $LN82@operator@6
  0010e	32 d3		 xor	 dl, bl
  00110	88 55 ee	 mov	 BYTE PTR __t$[ebp+14], dl
  00113	8a 50 0f	 mov	 dl, BYTE PTR [eax+15]
  00116	84 d2		 test	 dl, dl
  00118	0f 84 a8 00 00
	00		 je	 $LN81@operator@6
  0011e	80 f2 ea	 xor	 dl, -22			; ffffffeaH
  00121	88 55 ef	 mov	 BYTE PTR __t$[ebp+15], dl
  00124	8a 50 10	 mov	 dl, BYTE PTR [eax+16]
  00127	84 d2		 test	 dl, dl
  00129	0f 84 91 00 00
	00		 je	 $LN80@operator@6
  0012f	80 f2 ed	 xor	 dl, -19			; ffffffedH
  00132	88 55 f0	 mov	 BYTE PTR __t$[ebp+16], dl
  00135	8a 50 11	 mov	 dl, BYTE PTR [eax+17]
  00138	84 d2		 test	 dl, dl
  0013a	74 7f		 je	 SHORT $LN79@operator@6
  0013c	32 d1		 xor	 dl, cl
  0013e	88 55 f1	 mov	 BYTE PTR __t$[ebp+17], dl
  00141	8a 50 12	 mov	 dl, BYTE PTR [eax+18]
  00144	84 d2		 test	 dl, dl
  00146	74 6e		 je	 SHORT $LN78@operator@6
  00148	32 d3		 xor	 dl, bl
  0014a	88 55 f2	 mov	 BYTE PTR __t$[ebp+18], dl
  0014d	8a 50 13	 mov	 dl, BYTE PTR [eax+19]
  00150	84 d2		 test	 dl, dl
  00152	74 5c		 je	 SHORT $LN77@operator@6
  00154	80 f2 ea	 xor	 dl, -22			; ffffffeaH
  00157	80 78 14 00	 cmp	 BYTE PTR [eax+20], 0
  0015b	88 55 f3	 mov	 BYTE PTR __t$[ebp+19], dl
  0015e	0f 84 ba 00 00
	00		 je	 $LN1@operator@6
  00164	8a 50 15	 mov	 dl, BYTE PTR [eax+21]
  00167	84 d2		 test	 dl, dl
  00169	74 40		 je	 SHORT $LN75@operator@6
  0016b	32 d1		 xor	 dl, cl
  0016d	88 55 f5	 mov	 BYTE PTR __t$[ebp+21], dl
  00170	8a 50 16	 mov	 dl, BYTE PTR [eax+22]
  00173	84 d2		 test	 dl, dl
  00175	74 2f		 je	 SHORT $LN74@operator@6
  00177	32 d3		 xor	 dl, bl
  00179	88 55 f6	 mov	 BYTE PTR __t$[ebp+22], dl
  0017c	8a 50 17	 mov	 dl, BYTE PTR [eax+23]
  0017f	84 d2		 test	 dl, dl
  00181	74 1d		 je	 SHORT $LN73@operator@6
  00183	8a 40 18	 mov	 al, BYTE PTR [eax+24]
  00186	80 f2 ea	 xor	 dl, -22			; ffffffeaH
  00189	88 55 f7	 mov	 BYTE PTR __t$[ebp+23], dl
  0018c	84 c0		 test	 al, al
  0018e	74 0a		 je	 SHORT $LN72@operator@6
  00190	34 ed		 xor	 al, -19			; ffffffedH
  00192	88 45 f8	 mov	 BYTE PTR __t$[ebp+24], al
  00195	e9 84 00 00 00	 jmp	 $LN1@operator@6
$LN72@operator@6:
  0019a	c6 45 f8 ed	 mov	 BYTE PTR __t$[ebp+24], -19 ; ffffffedH
  0019e	eb 7e		 jmp	 SHORT $LN1@operator@6
$LN73@operator@6:
  001a0	c6 45 f7 ea	 mov	 BYTE PTR __t$[ebp+23], -22 ; ffffffeaH
  001a4	eb 78		 jmp	 SHORT $LN1@operator@6
$LN74@operator@6:
  001a6	88 5d f6	 mov	 BYTE PTR __t$[ebp+22], bl
  001a9	eb 73		 jmp	 SHORT $LN1@operator@6
$LN75@operator@6:
  001ab	88 4d f5	 mov	 BYTE PTR __t$[ebp+21], cl
  001ae	eb 6e		 jmp	 SHORT $LN1@operator@6
$LN77@operator@6:
  001b0	c6 45 f3 ea	 mov	 BYTE PTR __t$[ebp+19], -22 ; ffffffeaH
  001b4	eb 68		 jmp	 SHORT $LN1@operator@6
$LN78@operator@6:
  001b6	88 5d f2	 mov	 BYTE PTR __t$[ebp+18], bl
  001b9	eb 63		 jmp	 SHORT $LN1@operator@6
$LN79@operator@6:
  001bb	88 4d f1	 mov	 BYTE PTR __t$[ebp+17], cl
  001be	eb 5e		 jmp	 SHORT $LN1@operator@6
$LN80@operator@6:
  001c0	c6 45 f0 ed	 mov	 BYTE PTR __t$[ebp+16], -19 ; ffffffedH
  001c4	eb 58		 jmp	 SHORT $LN1@operator@6
$LN81@operator@6:
  001c6	c6 45 ef ea	 mov	 BYTE PTR __t$[ebp+15], -22 ; ffffffeaH
  001ca	eb 52		 jmp	 SHORT $LN1@operator@6
$LN82@operator@6:
  001cc	88 5d ee	 mov	 BYTE PTR __t$[ebp+14], bl
  001cf	eb 4d		 jmp	 SHORT $LN1@operator@6
$LN83@operator@6:
  001d1	88 4d ed	 mov	 BYTE PTR __t$[ebp+13], cl
  001d4	eb 48		 jmp	 SHORT $LN1@operator@6
$LN84@operator@6:
  001d6	c6 45 ec ed	 mov	 BYTE PTR __t$[ebp+12], -19 ; ffffffedH
  001da	eb 42		 jmp	 SHORT $LN1@operator@6
$LN85@operator@6:
  001dc	c6 45 eb ea	 mov	 BYTE PTR __t$[ebp+11], -22 ; ffffffeaH
  001e0	eb 3c		 jmp	 SHORT $LN1@operator@6
$LN86@operator@6:
  001e2	88 5d ea	 mov	 BYTE PTR __t$[ebp+10], bl
  001e5	eb 37		 jmp	 SHORT $LN1@operator@6
$LN87@operator@6:
  001e7	88 4d e9	 mov	 BYTE PTR __t$[ebp+9], cl
  001ea	eb 32		 jmp	 SHORT $LN1@operator@6
$LN88@operator@6:
  001ec	c6 45 e8 ed	 mov	 BYTE PTR __t$[ebp+8], -19 ; ffffffedH
  001f0	eb 2c		 jmp	 SHORT $LN1@operator@6
$LN89@operator@6:
  001f2	c6 45 e7 ea	 mov	 BYTE PTR __t$[ebp+7], -22 ; ffffffeaH
  001f6	eb 26		 jmp	 SHORT $LN1@operator@6
$LN90@operator@6:
  001f8	88 5d e6	 mov	 BYTE PTR __t$[ebp+6], bl
  001fb	eb 21		 jmp	 SHORT $LN1@operator@6
$LN91@operator@6:
  001fd	88 4d e5	 mov	 BYTE PTR __t$[ebp+5], cl
  00200	eb 1c		 jmp	 SHORT $LN1@operator@6
$LN92@operator@6:
  00202	c6 45 e4 ed	 mov	 BYTE PTR __t$[ebp+4], -19 ; ffffffedH
  00206	eb 16		 jmp	 SHORT $LN1@operator@6
$LN93@operator@6:
  00208	c6 45 e3 ea	 mov	 BYTE PTR __t$[ebp+3], -22 ; ffffffeaH
  0020c	eb 10		 jmp	 SHORT $LN1@operator@6
$LN94@operator@6:
  0020e	c6 45 e2 eb	 mov	 BYTE PTR __t$[ebp+2], -21 ; ffffffebH
  00212	eb 0a		 jmp	 SHORT $LN1@operator@6
$LN95@operator@6:
  00214	c6 45 e1 ec	 mov	 BYTE PTR __t$[ebp+1], -20 ; ffffffecH
  00218	eb 04		 jmp	 SHORT $LN1@operator@6
$LN96@operator@6:
  0021a	c6 45 e0 ed	 mov	 BYTE PTR __t$[ebp], -19	; ffffffedH
$LN1@operator@6:
  0021e	6a 05		 push	 5
  00220	8d 45 e0	 lea	 eax, DWORD PTR __t$[ebp]
  00223	c6 45 f4 00	 mov	 BYTE PTR __t$[ebp+20], 0
  00227	5a		 pop	 edx
$LL104@operator@6:
  00228	81 30 ed ec eb
	ea		 xor	 DWORD PTR [eax], -353637139 ; eaebecedH
  0022e	83 c0 04	 add	 eax, 4
  00231	4a		 dec	 edx
  00232	75 f4		 jne	 SHORT $LL104@operator@6
  00234	8b cf		 mov	 ecx, edi
  00236	8d 75 e0	 lea	 esi, DWORD PTR __t$[ebp]
  00239	ff 15 00 00 00
	00		 call	 DWORD PTR __imp_?c_str@ioHashString@@QBEPBDXZ
$LL111@operator@6:
  0023f	8a 08		 mov	 cl, BYTE PTR [eax]
  00241	3a 0e		 cmp	 cl, BYTE PTR [esi]
  00243	75 1a		 jne	 SHORT $LN112@operator@6
  00245	84 c9		 test	 cl, cl
  00247	74 12		 je	 SHORT $LN113@operator@6
  00249	8a 48 01	 mov	 cl, BYTE PTR [eax+1]
  0024c	3a 4e 01	 cmp	 cl, BYTE PTR [esi+1]
  0024f	75 0e		 jne	 SHORT $LN112@operator@6
  00251	83 c0 02	 add	 eax, 2
  00254	83 c6 02	 add	 esi, 2
  00257	84 c9		 test	 cl, cl
  00259	75 e4		 jne	 SHORT $LL111@operator@6
$LN113@operator@6:
  0025b	33 c0		 xor	 eax, eax
  0025d	eb 05		 jmp	 SHORT $LN114@operator@6
$LN112@operator@6:
  0025f	1b c0		 sbb	 eax, eax
  00261	83 d8 ff	 sbb	 eax, -1
$LN114@operator@6:
  00264	33 c9		 xor	 ecx, ecx
  00266	85 c0		 test	 eax, eax
  00268	0f 94 c0	 sete	 al

; 148  : }

  0026b	8b 4d fc	 mov	 ecx, DWORD PTR __$ArrayPad$[ebp]
  0026e	5f		 pop	 edi
  0026f	5e		 pop	 esi
  00270	33 cd		 xor	 ecx, ebp
  00272	5b		 pop	 ebx
  00273	e8 00 00 00 00	 call	 @__security_check_cookie@4
  00278	c9		 leave
  00279	c3		 ret	 0
??$?8$0BF@@@YA_NABVioHashString@@AAY0BF@$$CBD@Z ENDP	; operator==<21>
_TEXT	ENDS
PUBLIC	__$ArrayPad$
PUBLIC	??$?8$0BE@@@YA_NABVioHashString@@AAY0BE@$$CBD@Z	; operator==<20>
; Function compile flags: /Ogsp
;	COMDAT ??$?8$0BE@@@YA_NABVioHashString@@AAY0BE@$$CBD@Z
_TEXT	SEGMENT
__t$ = -28						; size = 20
__$ArrayPad$ = -4					; size = 4
_lhs$ = 8						; size = 4
_t$ = 12						; size = 4
??$?8$0BE@@@YA_NABVioHashString@@AAY0BE@$$CBD@Z PROC	; operator==<20>, COMDAT

; 146  : {

  00000	55		 push	 ebp
  00001	8b ec		 mov	 ebp, esp
  00003	83 ec 1c	 sub	 esp, 28			; 0000001cH
  00006	a1 00 00 00 00	 mov	 eax, DWORD PTR ___security_cookie
  0000b	33 c5		 xor	 eax, ebp
  0000d	89 45 fc	 mov	 DWORD PTR __$ArrayPad$[ebp], eax
  00010	8b 45 0c	 mov	 eax, DWORD PTR _t$[ebp]

; 147  : 	_ENCSTR(t, _t); return ( strcmp( lhs.c_str(), _t ) == 0 );

  00013	8a 10		 mov	 dl, BYTE PTR [eax]
  00015	53		 push	 ebx
  00016	56		 push	 esi
  00017	57		 push	 edi
  00018	8b 7d 08	 mov	 edi, DWORD PTR _lhs$[ebp]
  0001b	84 d2		 test	 dl, dl
  0001d	0f 84 dd 01 00
	00		 je	 $LN96@operator@7
  00023	80 f2 ed	 xor	 dl, -19			; ffffffedH
  00026	88 55 e4	 mov	 BYTE PTR __t$[ebp], dl
  00029	8a 50 01	 mov	 dl, BYTE PTR [eax+1]
  0002c	84 d2		 test	 dl, dl
  0002e	0f 84 c6 01 00
	00		 je	 $LN95@operator@7
  00034	b3 ec		 mov	 bl, -20			; ffffffecH
  00036	32 d3		 xor	 dl, bl
  00038	88 55 e5	 mov	 BYTE PTR __t$[ebp+1], dl
  0003b	8a 50 02	 mov	 dl, BYTE PTR [eax+2]
  0003e	84 d2		 test	 dl, dl
  00040	0f 84 ae 01 00
	00		 je	 $LN94@operator@7
  00046	b1 eb		 mov	 cl, -21			; ffffffebH
  00048	32 d1		 xor	 dl, cl
  0004a	88 55 e6	 mov	 BYTE PTR __t$[ebp+2], dl
  0004d	8a 50 03	 mov	 dl, BYTE PTR [eax+3]
  00050	84 d2		 test	 dl, dl
  00052	0f 84 96 01 00
	00		 je	 $LN93@operator@7
  00058	80 f2 ea	 xor	 dl, -22			; ffffffeaH
  0005b	88 55 e7	 mov	 BYTE PTR __t$[ebp+3], dl
  0005e	8a 50 04	 mov	 dl, BYTE PTR [eax+4]
  00061	84 d2		 test	 dl, dl
  00063	0f 84 7f 01 00
	00		 je	 $LN92@operator@7
  00069	80 f2 ed	 xor	 dl, -19			; ffffffedH
  0006c	88 55 e8	 mov	 BYTE PTR __t$[ebp+4], dl
  0006f	8a 50 05	 mov	 dl, BYTE PTR [eax+5]
  00072	84 d2		 test	 dl, dl
  00074	0f 84 69 01 00
	00		 je	 $LN91@operator@7
  0007a	32 d3		 xor	 dl, bl
  0007c	88 55 e9	 mov	 BYTE PTR __t$[ebp+5], dl
  0007f	8a 50 06	 mov	 dl, BYTE PTR [eax+6]
  00082	84 d2		 test	 dl, dl
  00084	0f 84 54 01 00
	00		 je	 $LN90@operator@7
  0008a	32 d1		 xor	 dl, cl
  0008c	88 55 ea	 mov	 BYTE PTR __t$[ebp+6], dl
  0008f	8a 50 07	 mov	 dl, BYTE PTR [eax+7]
  00092	84 d2		 test	 dl, dl
  00094	0f 84 3e 01 00
	00		 je	 $LN89@operator@7
  0009a	80 f2 ea	 xor	 dl, -22			; ffffffeaH
  0009d	88 55 eb	 mov	 BYTE PTR __t$[ebp+7], dl
  000a0	8a 50 08	 mov	 dl, BYTE PTR [eax+8]
  000a3	84 d2		 test	 dl, dl
  000a5	0f 84 27 01 00
	00		 je	 $LN88@operator@7
  000ab	80 f2 ed	 xor	 dl, -19			; ffffffedH
  000ae	88 55 ec	 mov	 BYTE PTR __t$[ebp+8], dl
  000b1	8a 50 09	 mov	 dl, BYTE PTR [eax+9]
  000b4	84 d2		 test	 dl, dl
  000b6	0f 84 11 01 00
	00		 je	 $LN87@operator@7
  000bc	32 d3		 xor	 dl, bl
  000be	88 55 ed	 mov	 BYTE PTR __t$[ebp+9], dl
  000c1	8a 50 0a	 mov	 dl, BYTE PTR [eax+10]
  000c4	84 d2		 test	 dl, dl
  000c6	0f 84 fc 00 00
	00		 je	 $LN86@operator@7
  000cc	32 d1		 xor	 dl, cl
  000ce	88 55 ee	 mov	 BYTE PTR __t$[ebp+10], dl
  000d1	8a 50 0b	 mov	 dl, BYTE PTR [eax+11]
  000d4	84 d2		 test	 dl, dl
  000d6	0f 84 e6 00 00
	00		 je	 $LN85@operator@7
  000dc	80 f2 ea	 xor	 dl, -22			; ffffffeaH
  000df	88 55 ef	 mov	 BYTE PTR __t$[ebp+11], dl
  000e2	8a 50 0c	 mov	 dl, BYTE PTR [eax+12]
  000e5	84 d2		 test	 dl, dl
  000e7	0f 84 cf 00 00
	00		 je	 $LN84@operator@7
  000ed	80 f2 ed	 xor	 dl, -19			; ffffffedH
  000f0	88 55 f0	 mov	 BYTE PTR __t$[ebp+12], dl
  000f3	8a 50 0d	 mov	 dl, BYTE PTR [eax+13]
  000f6	84 d2		 test	 dl, dl
  000f8	0f 84 b9 00 00
	00		 je	 $LN83@operator@7
  000fe	32 d3		 xor	 dl, bl
  00100	88 55 f1	 mov	 BYTE PTR __t$[ebp+13], dl
  00103	8a 50 0e	 mov	 dl, BYTE PTR [eax+14]
  00106	84 d2		 test	 dl, dl
  00108	0f 84 a4 00 00
	00		 je	 $LN82@operator@7
  0010e	32 d1		 xor	 dl, cl
  00110	88 55 f2	 mov	 BYTE PTR __t$[ebp+14], dl
  00113	8a 50 0f	 mov	 dl, BYTE PTR [eax+15]
  00116	84 d2		 test	 dl, dl
  00118	0f 84 8e 00 00
	00		 je	 $LN81@operator@7
  0011e	80 f2 ea	 xor	 dl, -22			; ffffffeaH
  00121	88 55 f3	 mov	 BYTE PTR __t$[ebp+15], dl
  00124	8a 50 10	 mov	 dl, BYTE PTR [eax+16]
  00127	84 d2		 test	 dl, dl
  00129	74 7b		 je	 SHORT $LN80@operator@7
  0012b	80 f2 ed	 xor	 dl, -19			; ffffffedH
  0012e	88 55 f4	 mov	 BYTE PTR __t$[ebp+16], dl
  00131	8a 50 11	 mov	 dl, BYTE PTR [eax+17]
  00134	84 d2		 test	 dl, dl
  00136	74 69		 je	 SHORT $LN79@operator@7
  00138	32 d3		 xor	 dl, bl
  0013a	88 55 f5	 mov	 BYTE PTR __t$[ebp+17], dl
  0013d	8a 50 12	 mov	 dl, BYTE PTR [eax+18]
  00140	84 d2		 test	 dl, dl
  00142	74 58		 je	 SHORT $LN78@operator@7
  00144	32 d1		 xor	 dl, cl
  00146	80 78 13 00	 cmp	 BYTE PTR [eax+19], 0
  0014a	88 55 f6	 mov	 BYTE PTR __t$[ebp+18], dl
  0014d	0f 84 b1 00 00
	00		 je	 $LN1@operator@7
  00153	8a 50 14	 mov	 dl, BYTE PTR [eax+20]
  00156	84 d2		 test	 dl, dl
  00158	74 3c		 je	 SHORT $LN76@operator@7
  0015a	80 f2 ed	 xor	 dl, -19			; ffffffedH
  0015d	88 55 f8	 mov	 BYTE PTR __t$[ebp+20], dl
  00160	8a 50 15	 mov	 dl, BYTE PTR [eax+21]
  00163	84 d2		 test	 dl, dl
  00165	74 2a		 je	 SHORT $LN75@operator@7
  00167	32 d3		 xor	 dl, bl
  00169	88 55 f9	 mov	 BYTE PTR __t$[ebp+21], dl
  0016c	8a 50 16	 mov	 dl, BYTE PTR [eax+22]
  0016f	84 d2		 test	 dl, dl
  00171	74 19		 je	 SHORT $LN74@operator@7
  00173	8a 40 17	 mov	 al, BYTE PTR [eax+23]
  00176	32 d1		 xor	 dl, cl
  00178	88 55 fa	 mov	 BYTE PTR __t$[ebp+22], dl
  0017b	84 c0		 test	 al, al
  0017d	74 07		 je	 SHORT $LN73@operator@7
  0017f	34 ea		 xor	 al, -22			; ffffffeaH
  00181	88 45 fb	 mov	 BYTE PTR __t$[ebp+23], al
  00184	eb 7e		 jmp	 SHORT $LN1@operator@7
$LN73@operator@7:
  00186	c6 45 fb ea	 mov	 BYTE PTR __t$[ebp+23], -22 ; ffffffeaH
  0018a	eb 78		 jmp	 SHORT $LN1@operator@7
$LN74@operator@7:
  0018c	88 4d fa	 mov	 BYTE PTR __t$[ebp+22], cl
  0018f	eb 73		 jmp	 SHORT $LN1@operator@7
$LN75@operator@7:
  00191	88 5d f9	 mov	 BYTE PTR __t$[ebp+21], bl
  00194	eb 6e		 jmp	 SHORT $LN1@operator@7
$LN76@operator@7:
  00196	c6 45 f8 ed	 mov	 BYTE PTR __t$[ebp+20], -19 ; ffffffedH
  0019a	eb 68		 jmp	 SHORT $LN1@operator@7
$LN78@operator@7:
  0019c	88 4d f6	 mov	 BYTE PTR __t$[ebp+18], cl
  0019f	eb 63		 jmp	 SHORT $LN1@operator@7
$LN79@operator@7:
  001a1	88 5d f5	 mov	 BYTE PTR __t$[ebp+17], bl
  001a4	eb 5e		 jmp	 SHORT $LN1@operator@7
$LN80@operator@7:
  001a6	c6 45 f4 ed	 mov	 BYTE PTR __t$[ebp+16], -19 ; ffffffedH
  001aa	eb 58		 jmp	 SHORT $LN1@operator@7
$LN81@operator@7:
  001ac	c6 45 f3 ea	 mov	 BYTE PTR __t$[ebp+15], -22 ; ffffffeaH
  001b0	eb 52		 jmp	 SHORT $LN1@operator@7
$LN82@operator@7:
  001b2	88 4d f2	 mov	 BYTE PTR __t$[ebp+14], cl
  001b5	eb 4d		 jmp	 SHORT $LN1@operator@7
$LN83@operator@7:
  001b7	88 5d f1	 mov	 BYTE PTR __t$[ebp+13], bl
  001ba	eb 48		 jmp	 SHORT $LN1@operator@7
$LN84@operator@7:
  001bc	c6 45 f0 ed	 mov	 BYTE PTR __t$[ebp+12], -19 ; ffffffedH
  001c0	eb 42		 jmp	 SHORT $LN1@operator@7
$LN85@operator@7:
  001c2	c6 45 ef ea	 mov	 BYTE PTR __t$[ebp+11], -22 ; ffffffeaH
  001c6	eb 3c		 jmp	 SHORT $LN1@operator@7
$LN86@operator@7:
  001c8	88 4d ee	 mov	 BYTE PTR __t$[ebp+10], cl
  001cb	eb 37		 jmp	 SHORT $LN1@operator@7
$LN87@operator@7:
  001cd	88 5d ed	 mov	 BYTE PTR __t$[ebp+9], bl
  001d0	eb 32		 jmp	 SHORT $LN1@operator@7
$LN88@operator@7:
  001d2	c6 45 ec ed	 mov	 BYTE PTR __t$[ebp+8], -19 ; ffffffedH
  001d6	eb 2c		 jmp	 SHORT $LN1@operator@7
$LN89@operator@7:
  001d8	c6 45 eb ea	 mov	 BYTE PTR __t$[ebp+7], -22 ; ffffffeaH
  001dc	eb 26		 jmp	 SHORT $LN1@operator@7
$LN90@operator@7:
  001de	88 4d ea	 mov	 BYTE PTR __t$[ebp+6], cl
  001e1	eb 21		 jmp	 SHORT $LN1@operator@7
$LN91@operator@7:
  001e3	88 5d e9	 mov	 BYTE PTR __t$[ebp+5], bl
  001e6	eb 1c		 jmp	 SHORT $LN1@operator@7
$LN92@operator@7:
  001e8	c6 45 e8 ed	 mov	 BYTE PTR __t$[ebp+4], -19 ; ffffffedH
  001ec	eb 16		 jmp	 SHORT $LN1@operator@7
$LN93@operator@7:
  001ee	c6 45 e7 ea	 mov	 BYTE PTR __t$[ebp+3], -22 ; ffffffeaH
  001f2	eb 10		 jmp	 SHORT $LN1@operator@7
$LN94@operator@7:
  001f4	c6 45 e6 eb	 mov	 BYTE PTR __t$[ebp+2], -21 ; ffffffebH
  001f8	eb 0a		 jmp	 SHORT $LN1@operator@7
$LN95@operator@7:
  001fa	c6 45 e5 ec	 mov	 BYTE PTR __t$[ebp+1], -20 ; ffffffecH
  001fe	eb 04		 jmp	 SHORT $LN1@operator@7
$LN96@operator@7:
  00200	c6 45 e4 ed	 mov	 BYTE PTR __t$[ebp], -19	; ffffffedH
$LN1@operator@7:
  00204	6a 04		 push	 4
  00206	8d 45 e4	 lea	 eax, DWORD PTR __t$[ebp]
  00209	c6 45 f7 00	 mov	 BYTE PTR __t$[ebp+19], 0
  0020d	5a		 pop	 edx
$LL104@operator@7:
  0020e	81 30 ed ec eb
	ea		 xor	 DWORD PTR [eax], -353637139 ; eaebecedH
  00214	83 c0 04	 add	 eax, 4
  00217	4a		 dec	 edx
  00218	75 f4		 jne	 SHORT $LL104@operator@7
  0021a	6a 10		 push	 16			; 00000010H
  0021c	58		 pop	 eax
$LL101@operator@7:
  0021d	8b c8		 mov	 ecx, eax
  0021f	81 e1 03 00 00
	80		 and	 ecx, -2147483645	; 80000003H
  00225	79 05		 jns	 SHORT $LN115@operator@7
  00227	49		 dec	 ecx
  00228	83 c9 fc	 or	 ecx, -4			; fffffffcH
  0022b	41		 inc	 ecx
$LN115@operator@7:
  0022c	b2 ed		 mov	 dl, -19			; ffffffedH
  0022e	2a d1		 sub	 dl, cl
  00230	30 54 05 e4	 xor	 BYTE PTR __t$[ebp+eax], dl
  00234	40		 inc	 eax
  00235	83 f8 13	 cmp	 eax, 19			; 00000013H
  00238	7c e3		 jl	 SHORT $LL101@operator@7
  0023a	8b cf		 mov	 ecx, edi
  0023c	8d 75 e4	 lea	 esi, DWORD PTR __t$[ebp]
  0023f	ff 15 00 00 00
	00		 call	 DWORD PTR __imp_?c_str@ioHashString@@QBEPBDXZ
$LL111@operator@7:
  00245	8a 08		 mov	 cl, BYTE PTR [eax]
  00247	3a 0e		 cmp	 cl, BYTE PTR [esi]
  00249	75 1a		 jne	 SHORT $LN112@operator@7
  0024b	84 c9		 test	 cl, cl
  0024d	74 12		 je	 SHORT $LN113@operator@7
  0024f	8a 48 01	 mov	 cl, BYTE PTR [eax+1]
  00252	3a 4e 01	 cmp	 cl, BYTE PTR [esi+1]
  00255	75 0e		 jne	 SHORT $LN112@operator@7
  00257	83 c0 02	 add	 eax, 2
  0025a	83 c6 02	 add	 esi, 2
  0025d	84 c9		 test	 cl, cl
  0025f	75 e4		 jne	 SHORT $LL111@operator@7
$LN113@operator@7:
  00261	33 c0		 xor	 eax, eax
  00263	eb 05		 jmp	 SHORT $LN114@operator@7
$LN112@operator@7:
  00265	1b c0		 sbb	 eax, eax
  00267	83 d8 ff	 sbb	 eax, -1
$LN114@operator@7:
  0026a	33 c9		 xor	 ecx, ecx
  0026c	85 c0		 test	 eax, eax
  0026e	0f 94 c0	 sete	 al

; 148  : }

  00271	8b 4d fc	 mov	 ecx, DWORD PTR __$ArrayPad$[ebp]
  00274	5f		 pop	 edi
  00275	5e		 pop	 esi
  00276	33 cd		 xor	 ecx, ebp
  00278	5b		 pop	 ebx
  00279	e8 00 00 00 00	 call	 @__security_check_cookie@4
  0027e	c9		 leave
  0027f	c3		 ret	 0
??$?8$0BE@@@YA_NABVioHashString@@AAY0BE@$$CBD@Z ENDP	; operator==<20>
_TEXT	ENDS
PUBLIC	__$ArrayPad$
PUBLIC	??$?8$06@@YA_NABVioHashString@@AAY06$$CBD@Z	; operator==<7>
; Function compile flags: /Ogsp
;	COMDAT ??$?8$06@@YA_NABVioHashString@@AAY06$$CBD@Z
_TEXT	SEGMENT
__t$ = -16						; size = 7
__$ArrayPad$ = -4					; size = 4
_lhs$ = 8						; size = 4
_t$ = 12						; size = 4
??$?8$06@@YA_NABVioHashString@@AAY06$$CBD@Z PROC	; operator==<7>, COMDAT

; 146  : {

  00000	55		 push	 ebp
  00001	8b ec		 mov	 ebp, esp
  00003	83 ec 10	 sub	 esp, 16			; 00000010H
  00006	a1 00 00 00 00	 mov	 eax, DWORD PTR ___security_cookie
  0000b	33 c5		 xor	 eax, ebp
  0000d	89 45 fc	 mov	 DWORD PTR __$ArrayPad$[ebp], eax
  00010	8b 45 0c	 mov	 eax, DWORD PTR _t$[ebp]

; 147  : 	_ENCSTR(t, _t); return ( strcmp( lhs.c_str(), _t ) == 0 );

  00013	8a 10		 mov	 dl, BYTE PTR [eax]
  00015	56		 push	 esi
  00016	57		 push	 edi
  00017	8b 7d 08	 mov	 edi, DWORD PTR _lhs$[ebp]
  0001a	84 d2		 test	 dl, dl
  0001c	0f 84 c0 00 00
	00		 je	 $LN96@operator@8
  00022	80 f2 ed	 xor	 dl, -19			; ffffffedH
  00025	88 55 f0	 mov	 BYTE PTR __t$[ebp], dl
  00028	8a 50 01	 mov	 dl, BYTE PTR [eax+1]
  0002b	84 d2		 test	 dl, dl
  0002d	0f 84 a9 00 00
	00		 je	 $LN95@operator@8
  00033	80 f2 ec	 xor	 dl, -20			; ffffffecH
  00036	88 55 f1	 mov	 BYTE PTR __t$[ebp+1], dl
  00039	8a 50 02	 mov	 dl, BYTE PTR [eax+2]
  0003c	84 d2		 test	 dl, dl
  0003e	0f 84 92 00 00
	00		 je	 $LN94@operator@8
  00044	80 f2 eb	 xor	 dl, -21			; ffffffebH
  00047	88 55 f2	 mov	 BYTE PTR __t$[ebp+2], dl
  0004a	8a 50 03	 mov	 dl, BYTE PTR [eax+3]
  0004d	84 d2		 test	 dl, dl
  0004f	74 7f		 je	 SHORT $LN93@operator@8
  00051	80 f2 ea	 xor	 dl, -22			; ffffffeaH
  00054	88 55 f3	 mov	 BYTE PTR __t$[ebp+3], dl
  00057	8a 50 04	 mov	 dl, BYTE PTR [eax+4]
  0005a	84 d2		 test	 dl, dl
  0005c	74 6c		 je	 SHORT $LN92@operator@8
  0005e	80 f2 ed	 xor	 dl, -19			; ffffffedH
  00061	88 55 f4	 mov	 BYTE PTR __t$[ebp+4], dl
  00064	8a 50 05	 mov	 dl, BYTE PTR [eax+5]
  00067	84 d2		 test	 dl, dl
  00069	74 59		 je	 SHORT $LN91@operator@8
  0006b	80 f2 ec	 xor	 dl, -20			; ffffffecH
  0006e	80 78 06 00	 cmp	 BYTE PTR [eax+6], 0
  00072	88 55 f5	 mov	 BYTE PTR __t$[ebp+5], dl
  00075	74 6f		 je	 SHORT $LN1@operator@8
  00077	8a 50 07	 mov	 dl, BYTE PTR [eax+7]
  0007a	84 d2		 test	 dl, dl
  0007c	74 40		 je	 SHORT $LN89@operator@8
  0007e	80 f2 ea	 xor	 dl, -22			; ffffffeaH
  00081	88 55 f7	 mov	 BYTE PTR __t$[ebp+7], dl
  00084	8a 50 08	 mov	 dl, BYTE PTR [eax+8]
  00087	84 d2		 test	 dl, dl
  00089	74 2d		 je	 SHORT $LN88@operator@8
  0008b	80 f2 ed	 xor	 dl, -19			; ffffffedH
  0008e	88 55 f8	 mov	 BYTE PTR __t$[ebp+8], dl
  00091	8a 50 09	 mov	 dl, BYTE PTR [eax+9]
  00094	84 d2		 test	 dl, dl
  00096	74 1a		 je	 SHORT $LN87@operator@8
  00098	8a 40 0a	 mov	 al, BYTE PTR [eax+10]
  0009b	80 f2 ec	 xor	 dl, -20			; ffffffecH
  0009e	88 55 f9	 mov	 BYTE PTR __t$[ebp+9], dl
  000a1	84 c0		 test	 al, al
  000a3	74 07		 je	 SHORT $LN86@operator@8
  000a5	34 eb		 xor	 al, -21			; ffffffebH
  000a7	88 45 fa	 mov	 BYTE PTR __t$[ebp+10], al
  000aa	eb 3a		 jmp	 SHORT $LN1@operator@8
$LN86@operator@8:
  000ac	c6 45 fa eb	 mov	 BYTE PTR __t$[ebp+10], -21 ; ffffffebH
  000b0	eb 34		 jmp	 SHORT $LN1@operator@8
$LN87@operator@8:
  000b2	c6 45 f9 ec	 mov	 BYTE PTR __t$[ebp+9], -20 ; ffffffecH
  000b6	eb 2e		 jmp	 SHORT $LN1@operator@8
$LN88@operator@8:
  000b8	c6 45 f8 ed	 mov	 BYTE PTR __t$[ebp+8], -19 ; ffffffedH
  000bc	eb 28		 jmp	 SHORT $LN1@operator@8
$LN89@operator@8:
  000be	c6 45 f7 ea	 mov	 BYTE PTR __t$[ebp+7], -22 ; ffffffeaH
  000c2	eb 22		 jmp	 SHORT $LN1@operator@8
$LN91@operator@8:
  000c4	c6 45 f5 ec	 mov	 BYTE PTR __t$[ebp+5], -20 ; ffffffecH
  000c8	eb 1c		 jmp	 SHORT $LN1@operator@8
$LN92@operator@8:
  000ca	c6 45 f4 ed	 mov	 BYTE PTR __t$[ebp+4], -19 ; ffffffedH
  000ce	eb 16		 jmp	 SHORT $LN1@operator@8
$LN93@operator@8:
  000d0	c6 45 f3 ea	 mov	 BYTE PTR __t$[ebp+3], -22 ; ffffffeaH
  000d4	eb 10		 jmp	 SHORT $LN1@operator@8
$LN94@operator@8:
  000d6	c6 45 f2 eb	 mov	 BYTE PTR __t$[ebp+2], -21 ; ffffffebH
  000da	eb 0a		 jmp	 SHORT $LN1@operator@8
$LN95@operator@8:
  000dc	c6 45 f1 ec	 mov	 BYTE PTR __t$[ebp+1], -20 ; ffffffecH
  000e0	eb 04		 jmp	 SHORT $LN1@operator@8
$LN96@operator@8:
  000e2	c6 45 f0 ed	 mov	 BYTE PTR __t$[ebp], -19	; ffffffedH
$LN1@operator@8:
  000e6	81 75 f0 ed ec
	eb ea		 xor	 DWORD PTR __t$[ebp], -353637139 ; eaebecedH
  000ed	6a 04		 push	 4
  000ef	c6 45 f6 00	 mov	 BYTE PTR __t$[ebp+6], 0
  000f3	58		 pop	 eax
$LL101@operator@8:
  000f4	8b c8		 mov	 ecx, eax
  000f6	81 e1 03 00 00
	80		 and	 ecx, -2147483645	; 80000003H
  000fc	79 05		 jns	 SHORT $LN115@operator@8
  000fe	49		 dec	 ecx
  000ff	83 c9 fc	 or	 ecx, -4			; fffffffcH
  00102	41		 inc	 ecx
$LN115@operator@8:
  00103	b2 ed		 mov	 dl, -19			; ffffffedH
  00105	2a d1		 sub	 dl, cl
  00107	30 54 05 f0	 xor	 BYTE PTR __t$[ebp+eax], dl
  0010b	40		 inc	 eax
  0010c	83 f8 06	 cmp	 eax, 6
  0010f	7c e3		 jl	 SHORT $LL101@operator@8
  00111	8b cf		 mov	 ecx, edi
  00113	8d 75 f0	 lea	 esi, DWORD PTR __t$[ebp]
  00116	ff 15 00 00 00
	00		 call	 DWORD PTR __imp_?c_str@ioHashString@@QBEPBDXZ
$LL111@operator@8:
  0011c	8a 08		 mov	 cl, BYTE PTR [eax]
  0011e	3a 0e		 cmp	 cl, BYTE PTR [esi]
  00120	75 1a		 jne	 SHORT $LN112@operator@8
  00122	84 c9		 test	 cl, cl
  00124	74 12		 je	 SHORT $LN113@operator@8
  00126	8a 48 01	 mov	 cl, BYTE PTR [eax+1]
  00129	3a 4e 01	 cmp	 cl, BYTE PTR [esi+1]
  0012c	75 0e		 jne	 SHORT $LN112@operator@8
  0012e	83 c0 02	 add	 eax, 2
  00131	83 c6 02	 add	 esi, 2
  00134	84 c9		 test	 cl, cl
  00136	75 e4		 jne	 SHORT $LL111@operator@8
$LN113@operator@8:
  00138	33 c0		 xor	 eax, eax
  0013a	eb 05		 jmp	 SHORT $LN114@operator@8
$LN112@operator@8:
  0013c	1b c0		 sbb	 eax, eax
  0013e	83 d8 ff	 sbb	 eax, -1
$LN114@operator@8:
  00141	33 c9		 xor	 ecx, ecx
  00143	85 c0		 test	 eax, eax
  00145	0f 94 c0	 sete	 al

; 148  : }

  00148	8b 4d fc	 mov	 ecx, DWORD PTR __$ArrayPad$[ebp]
  0014b	5f		 pop	 edi
  0014c	33 cd		 xor	 ecx, ebp
  0014e	5e		 pop	 esi
  0014f	e8 00 00 00 00	 call	 @__security_check_cookie@4
  00154	c9		 leave
  00155	c3		 ret	 0
??$?8$06@@YA_NABVioHashString@@AAY06$$CBD@Z ENDP	; operator==<7>
_TEXT	ENDS
PUBLIC	__$ArrayPad$
PUBLIC	??$?8$0N@@@YA_NABVioHashString@@AAY0N@$$CBD@Z	; operator==<13>
; Function compile flags: /Ogsp
;	COMDAT ??$?8$0N@@@YA_NABVioHashString@@AAY0N@$$CBD@Z
_TEXT	SEGMENT
__t$ = -24						; size = 13
__$ArrayPad$ = -4					; size = 4
_lhs$ = 8						; size = 4
_t$ = 12						; size = 4
??$?8$0N@@@YA_NABVioHashString@@AAY0N@$$CBD@Z PROC	; operator==<13>, COMDAT

; 146  : {

  00000	55		 push	 ebp
  00001	8b ec		 mov	 ebp, esp
  00003	83 ec 18	 sub	 esp, 24			; 00000018H
  00006	a1 00 00 00 00	 mov	 eax, DWORD PTR ___security_cookie
  0000b	33 c5		 xor	 eax, ebp
  0000d	89 45 fc	 mov	 DWORD PTR __$ArrayPad$[ebp], eax
  00010	8b 45 0c	 mov	 eax, DWORD PTR _t$[ebp]

; 147  : 	_ENCSTR(t, _t); return ( strcmp( lhs.c_str(), _t ) == 0 );

  00013	8a 10		 mov	 dl, BYTE PTR [eax]
  00015	56		 push	 esi
  00016	57		 push	 edi
  00017	8b 7d 08	 mov	 edi, DWORD PTR _lhs$[ebp]
  0001a	84 d2		 test	 dl, dl
  0001c	0f 84 4d 01 00
	00		 je	 $LN96@operator@9
  00022	80 f2 ed	 xor	 dl, -19			; ffffffedH
  00025	88 55 e8	 mov	 BYTE PTR __t$[ebp], dl
  00028	8a 50 01	 mov	 dl, BYTE PTR [eax+1]
  0002b	84 d2		 test	 dl, dl
  0002d	0f 84 36 01 00
	00		 je	 $LN95@operator@9
  00033	b1 ec		 mov	 cl, -20			; ffffffecH
  00035	32 d1		 xor	 dl, cl
  00037	88 55 e9	 mov	 BYTE PTR __t$[ebp+1], dl
  0003a	8a 50 02	 mov	 dl, BYTE PTR [eax+2]
  0003d	84 d2		 test	 dl, dl
  0003f	0f 84 1e 01 00
	00		 je	 $LN94@operator@9
  00045	80 f2 eb	 xor	 dl, -21			; ffffffebH
  00048	88 55 ea	 mov	 BYTE PTR __t$[ebp+2], dl
  0004b	8a 50 03	 mov	 dl, BYTE PTR [eax+3]
  0004e	84 d2		 test	 dl, dl
  00050	0f 84 07 01 00
	00		 je	 $LN93@operator@9
  00056	80 f2 ea	 xor	 dl, -22			; ffffffeaH
  00059	88 55 eb	 mov	 BYTE PTR __t$[ebp+3], dl
  0005c	8a 50 04	 mov	 dl, BYTE PTR [eax+4]
  0005f	84 d2		 test	 dl, dl
  00061	0f 84 f0 00 00
	00		 je	 $LN92@operator@9
  00067	80 f2 ed	 xor	 dl, -19			; ffffffedH
  0006a	88 55 ec	 mov	 BYTE PTR __t$[ebp+4], dl
  0006d	8a 50 05	 mov	 dl, BYTE PTR [eax+5]
  00070	84 d2		 test	 dl, dl
  00072	0f 84 da 00 00
	00		 je	 $LN91@operator@9
  00078	32 d1		 xor	 dl, cl
  0007a	88 55 ed	 mov	 BYTE PTR __t$[ebp+5], dl
  0007d	8a 50 06	 mov	 dl, BYTE PTR [eax+6]
  00080	84 d2		 test	 dl, dl
  00082	0f 84 c4 00 00
	00		 je	 $LN90@operator@9
  00088	80 f2 eb	 xor	 dl, -21			; ffffffebH
  0008b	88 55 ee	 mov	 BYTE PTR __t$[ebp+6], dl
  0008e	8a 50 07	 mov	 dl, BYTE PTR [eax+7]
  00091	84 d2		 test	 dl, dl
  00093	0f 84 ad 00 00
	00		 je	 $LN89@operator@9
  00099	80 f2 ea	 xor	 dl, -22			; ffffffeaH
  0009c	88 55 ef	 mov	 BYTE PTR __t$[ebp+7], dl
  0009f	8a 50 08	 mov	 dl, BYTE PTR [eax+8]
  000a2	84 d2		 test	 dl, dl
  000a4	0f 84 96 00 00
	00		 je	 $LN88@operator@9
  000aa	80 f2 ed	 xor	 dl, -19			; ffffffedH
  000ad	88 55 f0	 mov	 BYTE PTR __t$[ebp+8], dl
  000b0	8a 50 09	 mov	 dl, BYTE PTR [eax+9]
  000b3	84 d2		 test	 dl, dl
  000b5	0f 84 80 00 00
	00		 je	 $LN87@operator@9
  000bb	32 d1		 xor	 dl, cl
  000bd	88 55 f1	 mov	 BYTE PTR __t$[ebp+9], dl
  000c0	8a 50 0a	 mov	 dl, BYTE PTR [eax+10]
  000c3	84 d2		 test	 dl, dl
  000c5	74 6e		 je	 SHORT $LN86@operator@9
  000c7	80 f2 eb	 xor	 dl, -21			; ffffffebH
  000ca	88 55 f2	 mov	 BYTE PTR __t$[ebp+10], dl
  000cd	8a 50 0b	 mov	 dl, BYTE PTR [eax+11]
  000d0	84 d2		 test	 dl, dl
  000d2	74 5b		 je	 SHORT $LN85@operator@9
  000d4	80 f2 ea	 xor	 dl, -22			; ffffffeaH
  000d7	80 78 0c 00	 cmp	 BYTE PTR [eax+12], 0
  000db	88 55 f3	 mov	 BYTE PTR __t$[ebp+11], dl
  000de	0f 84 8f 00 00
	00		 je	 $LN1@operator@9
  000e4	8a 50 0d	 mov	 dl, BYTE PTR [eax+13]
  000e7	84 d2		 test	 dl, dl
  000e9	74 3f		 je	 SHORT $LN83@operator@9
  000eb	32 d1		 xor	 dl, cl
  000ed	88 55 f5	 mov	 BYTE PTR __t$[ebp+13], dl
  000f0	8a 50 0e	 mov	 dl, BYTE PTR [eax+14]
  000f3	84 d2		 test	 dl, dl
  000f5	74 2d		 je	 SHORT $LN82@operator@9
  000f7	80 f2 eb	 xor	 dl, -21			; ffffffebH
  000fa	88 55 f6	 mov	 BYTE PTR __t$[ebp+14], dl
  000fd	8a 50 0f	 mov	 dl, BYTE PTR [eax+15]
  00100	84 d2		 test	 dl, dl
  00102	74 1a		 je	 SHORT $LN81@operator@9
  00104	8a 40 10	 mov	 al, BYTE PTR [eax+16]
  00107	80 f2 ea	 xor	 dl, -22			; ffffffeaH
  0010a	88 55 f7	 mov	 BYTE PTR __t$[ebp+15], dl
  0010d	84 c0		 test	 al, al
  0010f	74 07		 je	 SHORT $LN80@operator@9
  00111	34 ed		 xor	 al, -19			; ffffffedH
  00113	88 45 f8	 mov	 BYTE PTR __t$[ebp+16], al
  00116	eb 5b		 jmp	 SHORT $LN1@operator@9
$LN80@operator@9:
  00118	c6 45 f8 ed	 mov	 BYTE PTR __t$[ebp+16], -19 ; ffffffedH
  0011c	eb 55		 jmp	 SHORT $LN1@operator@9
$LN81@operator@9:
  0011e	c6 45 f7 ea	 mov	 BYTE PTR __t$[ebp+15], -22 ; ffffffeaH
  00122	eb 4f		 jmp	 SHORT $LN1@operator@9
$LN82@operator@9:
  00124	c6 45 f6 eb	 mov	 BYTE PTR __t$[ebp+14], -21 ; ffffffebH
  00128	eb 49		 jmp	 SHORT $LN1@operator@9
$LN83@operator@9:
  0012a	88 4d f5	 mov	 BYTE PTR __t$[ebp+13], cl
  0012d	eb 44		 jmp	 SHORT $LN1@operator@9
$LN85@operator@9:
  0012f	c6 45 f3 ea	 mov	 BYTE PTR __t$[ebp+11], -22 ; ffffffeaH
  00133	eb 3e		 jmp	 SHORT $LN1@operator@9
$LN86@operator@9:
  00135	c6 45 f2 eb	 mov	 BYTE PTR __t$[ebp+10], -21 ; ffffffebH
  00139	eb 38		 jmp	 SHORT $LN1@operator@9
$LN87@operator@9:
  0013b	88 4d f1	 mov	 BYTE PTR __t$[ebp+9], cl
  0013e	eb 33		 jmp	 SHORT $LN1@operator@9
$LN88@operator@9:
  00140	c6 45 f0 ed	 mov	 BYTE PTR __t$[ebp+8], -19 ; ffffffedH
  00144	eb 2d		 jmp	 SHORT $LN1@operator@9
$LN89@operator@9:
  00146	c6 45 ef ea	 mov	 BYTE PTR __t$[ebp+7], -22 ; ffffffeaH
  0014a	eb 27		 jmp	 SHORT $LN1@operator@9
$LN90@operator@9:
  0014c	c6 45 ee eb	 mov	 BYTE PTR __t$[ebp+6], -21 ; ffffffebH
  00150	eb 21		 jmp	 SHORT $LN1@operator@9
$LN91@operator@9:
  00152	88 4d ed	 mov	 BYTE PTR __t$[ebp+5], cl
  00155	eb 1c		 jmp	 SHORT $LN1@operator@9
$LN92@operator@9:
  00157	c6 45 ec ed	 mov	 BYTE PTR __t$[ebp+4], -19 ; ffffffedH
  0015b	eb 16		 jmp	 SHORT $LN1@operator@9
$LN93@operator@9:
  0015d	c6 45 eb ea	 mov	 BYTE PTR __t$[ebp+3], -22 ; ffffffeaH
  00161	eb 10		 jmp	 SHORT $LN1@operator@9
$LN94@operator@9:
  00163	c6 45 ea eb	 mov	 BYTE PTR __t$[ebp+2], -21 ; ffffffebH
  00167	eb 0a		 jmp	 SHORT $LN1@operator@9
$LN95@operator@9:
  00169	c6 45 e9 ec	 mov	 BYTE PTR __t$[ebp+1], -20 ; ffffffecH
  0016d	eb 04		 jmp	 SHORT $LN1@operator@9
$LN96@operator@9:
  0016f	c6 45 e8 ed	 mov	 BYTE PTR __t$[ebp], -19	; ffffffedH
$LN1@operator@9:
  00173	6a 03		 push	 3
  00175	8d 45 e8	 lea	 eax, DWORD PTR __t$[ebp]
  00178	c6 45 f4 00	 mov	 BYTE PTR __t$[ebp+12], 0
  0017c	5a		 pop	 edx
$LL104@operator@9:
  0017d	81 30 ed ec eb
	ea		 xor	 DWORD PTR [eax], -353637139 ; eaebecedH
  00183	83 c0 04	 add	 eax, 4
  00186	4a		 dec	 edx
  00187	75 f4		 jne	 SHORT $LL104@operator@9
  00189	8b cf		 mov	 ecx, edi
  0018b	8d 75 e8	 lea	 esi, DWORD PTR __t$[ebp]
  0018e	ff 15 00 00 00
	00		 call	 DWORD PTR __imp_?c_str@ioHashString@@QBEPBDXZ
$LL111@operator@9:
  00194	8a 08		 mov	 cl, BYTE PTR [eax]
  00196	3a 0e		 cmp	 cl, BYTE PTR [esi]
  00198	75 1a		 jne	 SHORT $LN112@operator@9
  0019a	84 c9		 test	 cl, cl
  0019c	74 12		 je	 SHORT $LN113@operator@9
  0019e	8a 48 01	 mov	 cl, BYTE PTR [eax+1]
  001a1	3a 4e 01	 cmp	 cl, BYTE PTR [esi+1]
  001a4	75 0e		 jne	 SHORT $LN112@operator@9
  001a6	83 c0 02	 add	 eax, 2
  001a9	83 c6 02	 add	 esi, 2
  001ac	84 c9		 test	 cl, cl
  001ae	75 e4		 jne	 SHORT $LL111@operator@9
$LN113@operator@9:
  001b0	33 c0		 xor	 eax, eax
  001b2	eb 05		 jmp	 SHORT $LN114@operator@9
$LN112@operator@9:
  001b4	1b c0		 sbb	 eax, eax
  001b6	83 d8 ff	 sbb	 eax, -1
$LN114@operator@9:
  001b9	33 c9		 xor	 ecx, ecx
  001bb	85 c0		 test	 eax, eax
  001bd	0f 94 c0	 sete	 al

; 148  : }

  001c0	8b 4d fc	 mov	 ecx, DWORD PTR __$ArrayPad$[ebp]
  001c3	5f		 pop	 edi
  001c4	33 cd		 xor	 ecx, ebp
  001c6	5e		 pop	 esi
  001c7	e8 00 00 00 00	 call	 @__security_check_cookie@4
  001cc	c9		 leave
  001cd	c3		 ret	 0
??$?8$0N@@@YA_NABVioHashString@@AAY0N@$$CBD@Z ENDP	; operator==<13>
_TEXT	ENDS
EXTRN	??3@YAXPAX@Z:PROC				; operator delete
; Function compile flags: /Ogsp
;	COMDAT ??_GModeRankWnd@@UAEPAXI@Z
_TEXT	SEGMENT
___flags$ = 8						; size = 4
??_GModeRankWnd@@UAEPAXI@Z PROC				; ModeRankWnd::`scalar deleting destructor', COMDAT
; _this$ = ecx
  00000	55		 push	 ebp
  00001	8b ec		 mov	 ebp, esp
  00003	56		 push	 esi
  00004	8b f1		 mov	 esi, ecx
  00006	e8 00 00 00 00	 call	 ??1ModeRankWnd@@UAE@XZ	; ModeRankWnd::~ModeRankWnd
  0000b	f6 45 08 01	 test	 BYTE PTR ___flags$[ebp], 1
  0000f	74 07		 je	 SHORT $LN1@scalar
  00011	56		 push	 esi
  00012	e8 00 00 00 00	 call	 ??3@YAXPAX@Z		; operator delete
  00017	59		 pop	 ecx
$LN1@scalar:
  00018	8b c6		 mov	 eax, esi
  0001a	5e		 pop	 esi
  0001b	5d		 pop	 ebp
  0001c	c2 04 00	 ret	 4
??_GModeRankWnd@@UAEPAXI@Z ENDP				; ModeRankWnd::`scalar deleting destructor'
_TEXT	ENDS
PUBLIC	_xElement$GSCopy$
PUBLIC	__$ArrayPad$
EXTRN	__imp_??4ioHashString@@QAEAAV0@PBD@Z:PROC
; Function compile flags: /Ogsp
; File d:\lost saga for developer\youtube\tutorial\source\src\lsclient\gui\moderankwnd.cpp
;	COMDAT ?ParseExtraInfo@ModeRankWnd@@UAEXAAVioXMLElement@@@Z
_TEXT	SEGMENT
_xElement$GSCopy$ = -32					; size = 4
__k$515505 = -28					; size = 17
__k$515889 = -24					; size = 10
__k$515380 = -24					; size = 13
__k$515992 = -20					; size = 8
__k$515755 = -20					; size = 9
__k$515630 = -20					; size = 9
__$ArrayPad$ = -4					; size = 4
_xElement$ = 8						; size = 4
?ParseExtraInfo@ModeRankWnd@@UAEXAAVioXMLElement@@@Z PROC ; ModeRankWnd::ParseExtraInfo, COMDAT
; _this$ = ecx

; 80   : {

  00000	55		 push	 ebp
  00001	8b ec		 mov	 ebp, esp
  00003	83 ec 20	 sub	 esp, 32			; 00000020H
  00006	a1 00 00 00 00	 mov	 eax, DWORD PTR ___security_cookie
  0000b	33 c5		 xor	 eax, ebp
  0000d	89 45 fc	 mov	 DWORD PTR __$ArrayPad$[ebp], eax
  00010	53		 push	 ebx
  00011	56		 push	 esi
  00012	57		 push	 edi
  00013	8b f1		 mov	 esi, ecx
  00015	8b 4d 08	 mov	 ecx, DWORD PTR _xElement$[ebp]

; 81   : 	m_RollingSound		= xElement.GetStringAttribute_e( "RollingSound" );

  00018	6a 03		 push	 3

; 82   : 	m_RollingStopSound	= xElement.GetStringAttribute_e( "RollingStopSound" );

  0001a	89 4d e0	 mov	 DWORD PTR _xElement$GSCopy$[ebp], ecx
  0001d	c7 45 e8 bf 83
	87 86		 mov	 DWORD PTR __k$515380[ebp], -2037939265 ; 868783bfH
  00024	c7 45 ec 84 82
	8c b9		 mov	 DWORD PTR __k$515380[ebp+4], -1181973884 ; b98c8284H
  0002b	c7 45 f0 82 99
	85 8e		 mov	 DWORD PTR __k$515380[ebp+8], -1903847038 ; 8e859982H
  00032	8d 45 e8	 lea	 eax, DWORD PTR __k$515380[ebp]
  00035	c6 45 f4 00	 mov	 BYTE PTR __k$515380[ebp+12], 0
  00039	5a		 pop	 edx
$LL106@ParseExtra:

; 81   : 	m_RollingSound		= xElement.GetStringAttribute_e( "RollingSound" );

  0003a	81 30 ed ec eb
	ea		 xor	 DWORD PTR [eax], -353637139 ; eaebecedH
  00040	83 c0 04	 add	 eax, 4
  00043	4a		 dec	 edx
  00044	75 f4		 jne	 SHORT $LL106@ParseExtra
  00046	8b 3d 00 00 00
	00		 mov	 edi, DWORD PTR __imp_?GetStringAttribute@ioXMLElement@@QBEPBDPBD@Z
  0004c	8d 45 e8	 lea	 eax, DWORD PTR __k$515380[ebp]
  0004f	50		 push	 eax
  00050	ff d7		 call	 edi
  00052	8b 1d 00 00 00
	00		 mov	 ebx, DWORD PTR __imp_??4ioHashString@@QAEAAV0@PBD@Z
  00058	50		 push	 eax
  00059	8d 8e d8 01 00
	00		 lea	 ecx, DWORD PTR [esi+472]
  0005f	ff d3		 call	 ebx
  00061	6a 04		 push	 4

; 82   : 	m_RollingStopSound	= xElement.GetStringAttribute_e( "RollingStopSound" );

  00063	c7 45 e4 bf 83
	87 86		 mov	 DWORD PTR __k$515505[ebp], -2037939265 ; 868783bfH
  0006a	c7 45 e8 84 82
	8c b9		 mov	 DWORD PTR __k$515505[ebp+4], -1181973884 ; b98c8284H
  00071	c7 45 ec 99 83
	9b b9		 mov	 DWORD PTR __k$515505[ebp+8], -1180990567 ; b99b8399H
  00078	c7 45 f0 82 99
	85 8e		 mov	 DWORD PTR __k$515505[ebp+12], -1903847038 ; 8e859982H
  0007f	8d 45 e4	 lea	 eax, DWORD PTR __k$515505[ebp]
  00082	c6 45 f4 00	 mov	 BYTE PTR __k$515505[ebp+16], 0
  00086	59		 pop	 ecx
$LL212@ParseExtra:
  00087	81 30 ed ec eb
	ea		 xor	 DWORD PTR [eax], -353637139 ; eaebecedH
  0008d	83 c0 04	 add	 eax, 4
  00090	49		 dec	 ecx
  00091	75 f4		 jne	 SHORT $LL212@ParseExtra
  00093	8b 4d e0	 mov	 ecx, DWORD PTR _xElement$GSCopy$[ebp]
  00096	8d 45 e4	 lea	 eax, DWORD PTR __k$515505[ebp]
  00099	50		 push	 eax
  0009a	ff d7		 call	 edi
  0009c	50		 push	 eax
  0009d	8d 8e e8 01 00
	00		 lea	 ecx, DWORD PTR [esi+488]
  000a3	ff d3		 call	 ebx
  000a5	6a 02		 push	 2

; 83   : 	m_dwShowTime		= xElement.GetIntAttribute_e( "ShowTime" ); 

  000a7	c7 45 ec be 84
	84 9d		 mov	 DWORD PTR __k$515630[ebp], -1652259650 ; 9d8484beH
  000ae	c7 45 f0 b9 85
	86 8f		 mov	 DWORD PTR __k$515630[ebp+4], -1887009351 ; 8f8685b9H
  000b5	8d 45 ec	 lea	 eax, DWORD PTR __k$515630[ebp]
  000b8	c6 45 f4 00	 mov	 BYTE PTR __k$515630[ebp+8], 0
  000bc	59		 pop	 ecx
$LL318@ParseExtra:
  000bd	81 30 ed ec eb
	ea		 xor	 DWORD PTR [eax], -353637139 ; eaebecedH
  000c3	83 c0 04	 add	 eax, 4
  000c6	49		 dec	 ecx
  000c7	75 f4		 jne	 SHORT $LL318@ParseExtra
  000c9	8b 5d e0	 mov	 ebx, DWORD PTR _xElement$GSCopy$[ebp]
  000cc	8b 3d 00 00 00
	00		 mov	 edi, DWORD PTR __imp_?GetIntAttribute@ioXMLElement@@QBEHPBD@Z
  000d2	8d 45 ec	 lea	 eax, DWORD PTR __k$515630[ebp]
  000d5	50		 push	 eax
  000d6	8b cb		 mov	 ecx, ebx
  000d8	ff d7		 call	 edi
  000da	6a 02		 push	 2
  000dc	89 86 54 02 00
	00		 mov	 DWORD PTR [esi+596], eax

; 84   : 	m_dwHideTime        = xElement.GetIntAttribute_e( "HideTime" ); 

  000e2	c7 45 ec a5 85
	8f 8f		 mov	 DWORD PTR __k$515755[ebp], -1886419547 ; 8f8f85a5H
  000e9	c7 45 f0 b9 85
	86 8f		 mov	 DWORD PTR __k$515755[ebp+4], -1887009351 ; 8f8685b9H
  000f0	8d 45 ec	 lea	 eax, DWORD PTR __k$515755[ebp]
  000f3	c6 45 f4 00	 mov	 BYTE PTR __k$515755[ebp+8], 0
  000f7	59		 pop	 ecx
$LL424@ParseExtra:
  000f8	81 30 ed ec eb
	ea		 xor	 DWORD PTR [eax], -353637139 ; eaebecedH
  000fe	83 c0 04	 add	 eax, 4
  00101	49		 dec	 ecx
  00102	75 f4		 jne	 SHORT $LL424@ParseExtra
  00104	8d 45 ec	 lea	 eax, DWORD PTR __k$515755[ebp]
  00107	50		 push	 eax
  00108	8b cb		 mov	 ecx, ebx
  0010a	ff d7		 call	 edi
  0010c	6a 02		 push	 2
  0010e	89 86 58 02 00
	00		 mov	 DWORD PTR [esi+600], eax

; 85   : 	m_dwStartTime		= xElement.GetIntAttribute_e( "StartTime" ); 

  00114	c7 45 e8 be 98
	8a 98		 mov	 DWORD PTR __k$515889[ebp], -1735747394 ; 988a98beH
  0011b	c7 45 ec 99 b8
	82 87		 mov	 DWORD PTR __k$515889[ebp+4], -2021476199 ; 8782b899H
  00122	8d 45 e8	 lea	 eax, DWORD PTR __k$515889[ebp]
  00125	66 c7 45 f0 88
	00		 mov	 WORD PTR __k$515889[ebp+8], 136 ; 00000088H
  0012b	59		 pop	 ecx
$LL530@ParseExtra:
  0012c	81 30 ed ec eb
	ea		 xor	 DWORD PTR [eax], -353637139 ; eaebecedH
  00132	83 c0 04	 add	 eax, 4
  00135	49		 dec	 ecx
  00136	75 f4		 jne	 SHORT $LL530@ParseExtra
  00138	80 75 f0 ed	 xor	 BYTE PTR __k$515889[ebp+8], -19 ; ffffffedH
  0013c	8d 45 e8	 lea	 eax, DWORD PTR __k$515889[ebp]
  0013f	50		 push	 eax
  00140	8b cb		 mov	 ecx, ebx
  00142	ff d7		 call	 edi

; 86   : 	m_dwGapTime			= xElement.GetIntAttribute_e( "GapTime" );

  00144	6a 04		 push	 4
  00146	89 86 5c 02 00
	00		 mov	 DWORD PTR [esi+604], eax
  0014c	c7 45 ec aa 8d
	9b be		 mov	 DWORD PTR __k$515992[ebp], -1097101910 ; be9b8daaH
  00153	81 75 ec ed ec
	eb ea		 xor	 DWORD PTR __k$515992[ebp], -353637139 ; eaebecedH
  0015a	c7 45 f0 84 81
	8e 00		 mov	 DWORD PTR __k$515992[ebp+4], 9339268 ; 008e8184H
  00161	58		 pop	 eax
$LL633@ParseExtra:
  00162	8b c8		 mov	 ecx, eax
  00164	81 e1 03 00 00
	80		 and	 ecx, -2147483645	; 80000003H
  0016a	79 05		 jns	 SHORT $LN663@ParseExtra
  0016c	49		 dec	 ecx
  0016d	83 c9 fc	 or	 ecx, -4			; fffffffcH
  00170	41		 inc	 ecx
$LN663@ParseExtra:
  00171	b2 ed		 mov	 dl, -19			; ffffffedH
  00173	2a d1		 sub	 dl, cl
  00175	30 54 05 ec	 xor	 BYTE PTR __k$515992[ebp+eax], dl
  00179	40		 inc	 eax
  0017a	83 f8 07	 cmp	 eax, 7
  0017d	7c e3		 jl	 SHORT $LL633@ParseExtra
  0017f	8d 45 ec	 lea	 eax, DWORD PTR __k$515992[ebp]
  00182	50		 push	 eax
  00183	8b cb		 mov	 ecx, ebx
  00185	ff d7		 call	 edi

; 87   : }

  00187	8b 4d fc	 mov	 ecx, DWORD PTR __$ArrayPad$[ebp]
  0018a	5f		 pop	 edi
  0018b	89 86 60 02 00
	00		 mov	 DWORD PTR [esi+608], eax
  00191	5e		 pop	 esi
  00192	33 cd		 xor	 ecx, ebp
  00194	5b		 pop	 ebx
  00195	e8 00 00 00 00	 call	 @__security_check_cookie@4
  0019a	c9		 leave
  0019b	c2 04 00	 ret	 4
?ParseExtraInfo@ModeRankWnd@@UAEXAAVioXMLElement@@@Z ENDP ; ModeRankWnd::ParseExtraInfo
_TEXT	ENDS
PUBLIC	_pImage$GSCopy$
PUBLIC	_this$GSCopy$
PUBLIC	_szType$GSCopy$
PUBLIC	__$ArrayPad$
EXTRN	__imp_?AddRenderImage@ioWnd@@UAEXABVioHashString@@PAVioUIRenderImage@@@Z:PROC
; Function compile flags: /Ogsp
;	COMDAT ?AddRenderImage@ModeRankWnd@@UAEXABVioHashString@@PAVioUIRenderImage@@@Z
_TEXT	SEGMENT
_pImage$GSCopy$ = -44					; size = 4
_this$GSCopy$ = -40					; size = 4
_szType$GSCopy$ = -36					; size = 4
__t$517468 = -32					; size = 20
__t$517375 = -32					; size = 21
__t$517231 = -28					; size = 14
__t$517093 = -28					; size = 15
__t$516356 = -28					; size = 14
__t$518356 = -24					; size = 10
__t$518231 = -24					; size = 13
__t$518093 = -24					; size = 12
__t$516968 = -24					; size = 10
__t$516843 = -24					; size = 12
__t$516728 = -24					; size = 12
__t$516593 = -24					; size = 10
__t$516481 = -24					; size = 10
__t$516231 = -24					; size = 11
__t$517968 = -20					; size = 7
__t$517843 = -20					; size = 7
__t$517718 = -20					; size = 7
__t$517593 = -20					; size = 7
__$ArrayPad$ = -4					; size = 4
_szType$ = 8						; size = 4
_pImage$ = 12						; size = 4
?AddRenderImage@ModeRankWnd@@UAEXABVioHashString@@PAVioUIRenderImage@@@Z PROC ; ModeRankWnd::AddRenderImage, COMDAT
; _this$ = ecx

; 90   : {	

  00000	55		 push	 ebp
  00001	8b ec		 mov	 ebp, esp
  00003	83 ec 2c	 sub	 esp, 44			; 0000002cH
  00006	a1 00 00 00 00	 mov	 eax, DWORD PTR ___security_cookie
  0000b	33 c5		 xor	 eax, ebp
  0000d	89 45 fc	 mov	 DWORD PTR __$ArrayPad$[ebp], eax

; 145  : 	}
; 146  : 	else if( szType == "Rank_S" )

  00010	8b 45 08	 mov	 eax, DWORD PTR _szType$[ebp]
  00013	53		 push	 ebx
  00014	56		 push	 esi
  00015	57		 push	 edi
  00016	89 45 dc	 mov	 DWORD PTR _szType$GSCopy$[ebp], eax
  00019	8b 45 0c	 mov	 eax, DWORD PTR _pImage$[ebp]
  0001c	33 db		 xor	 ebx, ebx
  0001e	6a 02		 push	 2
  00020	89 4d d8	 mov	 DWORD PTR _this$GSCopy$[ebp], ecx
  00023	89 45 d4	 mov	 DWORD PTR _pImage$GSCopy$[ebp], eax
  00026	c7 45 e8 be 98
	84 84		 mov	 DWORD PTR __t$516231[ebp], -2071684930 ; 848498beH
  0002d	c7 45 ec 88 bc
	84 83		 mov	 DWORD PTR __t$516231[ebp+4], -2088452984 ; 8384bc88H
  00034	66 c7 45 f0 83
	98		 mov	 WORD PTR __t$516231[ebp+8], 39043 ; 00009883H
  0003a	8d 45 e8	 lea	 eax, DWORD PTR __t$516231[ebp]
  0003d	88 5d f2	 mov	 BYTE PTR __t$516231[ebp+10], bl
  00040	59		 pop	 ecx
  00041	bf ed ec eb ea	 mov	 edi, -353637139		; eaebecedH
$LL196@AddRenderI:

; 91   : 	if( szType == "StonePoint" )

  00046	31 38		 xor	 DWORD PTR [eax], edi
  00048	83 c0 04	 add	 eax, 4
  0004b	49		 dec	 ecx
  0004c	75 f8		 jne	 SHORT $LL196@AddRenderI
  0004e	6a 08		 push	 8
  00050	58		 pop	 eax
$LL193@AddRenderI:
  00051	8b c8		 mov	 ecx, eax
  00053	81 e1 03 00 00
	80		 and	 ecx, -2147483645	; 80000003H
  00059	79 05		 jns	 SHORT $LN2169@AddRenderI
  0005b	49		 dec	 ecx
  0005c	83 c9 fc	 or	 ecx, -4			; fffffffcH
  0005f	41		 inc	 ecx
$LN2169@AddRenderI:
  00060	b2 ed		 mov	 dl, -19			; ffffffedH
  00062	2a d1		 sub	 dl, cl
  00064	30 54 05 e8	 xor	 BYTE PTR __t$516231[ebp+eax], dl
  00068	40		 inc	 eax
  00069	83 f8 0a	 cmp	 eax, 10			; 0000000aH
  0006c	7c e3		 jl	 SHORT $LL193@AddRenderI
  0006e	8b 4d dc	 mov	 ecx, DWORD PTR _szType$GSCopy$[ebp]
  00071	8d 75 e8	 lea	 esi, DWORD PTR __t$516231[ebp]
  00074	ff 15 00 00 00
	00		 call	 DWORD PTR __imp_?c_str@ioHashString@@QBEPBDXZ
$LL2090@AddRenderI:
  0007a	8a 08		 mov	 cl, BYTE PTR [eax]
  0007c	3a 0e		 cmp	 cl, BYTE PTR [esi]
  0007e	75 1a		 jne	 SHORT $LN2091@AddRenderI
  00080	3a cb		 cmp	 cl, bl
  00082	74 12		 je	 SHORT $LN2092@AddRenderI
  00084	8a 48 01	 mov	 cl, BYTE PTR [eax+1]
  00087	3a 4e 01	 cmp	 cl, BYTE PTR [esi+1]
  0008a	75 0e		 jne	 SHORT $LN2091@AddRenderI
  0008c	83 c0 02	 add	 eax, 2
  0008f	83 c6 02	 add	 esi, 2
  00092	3a cb		 cmp	 cl, bl
  00094	75 e4		 jne	 SHORT $LL2090@AddRenderI
$LN2092@AddRenderI:
  00096	33 c0		 xor	 eax, eax
  00098	eb 05		 jmp	 SHORT $LN2093@AddRenderI
$LN2091@AddRenderI:
  0009a	1b c0		 sbb	 eax, eax
  0009c	83 d8 ff	 sbb	 eax, -1
$LN2093@AddRenderI:
  0009f	3b c3		 cmp	 eax, ebx
  000a1	75 28		 jne	 SHORT $LN2073@AddRenderI

; 92   : 	{
; 93   : 		SAFEDELETE( m_pStonePoint );

  000a3	8b 75 d8	 mov	 esi, DWORD PTR _this$GSCopy$[ebp]
  000a6	8b 8e 90 01 00
	00		 mov	 ecx, DWORD PTR [esi+400]
  000ac	3b cb		 cmp	 ecx, ebx
  000ae	74 0d		 je	 SHORT $LN53@AddRenderI
  000b0	8b 01		 mov	 eax, DWORD PTR [ecx]
  000b2	6a 01		 push	 1
  000b4	ff 50 40	 call	 DWORD PTR [eax+64]
  000b7	89 9e 90 01 00
	00		 mov	 DWORD PTR [esi+400], ebx
$LN53@AddRenderI:

; 94   : 		m_pStonePoint = pImage;

  000bd	8b 45 d4	 mov	 eax, DWORD PTR _pImage$GSCopy$[ebp]
  000c0	89 86 90 01 00
	00		 mov	 DWORD PTR [esi+400], eax
  000c6	e9 c7 09 00 00	 jmp	 $LN1@AddRenderI
$LN2073@AddRenderI:

; 95   : 	}
; 96   : 	else if( szType == "PrisonerPoint" )

  000cb	6a 03		 push	 3
  000cd	c7 45 e4 bd 9e
	82 99		 mov	 DWORD PTR __t$516356[ebp], -1719492931 ; 99829ebdH
  000d4	c7 45 e8 82 82
	8e 98		 mov	 DWORD PTR __t$516356[ebp+4], -1735490942 ; 988e8282H
  000db	c7 45 ec bd 83
	82 84		 mov	 DWORD PTR __t$516356[ebp+8], -2071821379 ; 848283bdH
  000e2	8d 45 e4	 lea	 eax, DWORD PTR __t$516356[ebp]
  000e5	66 c7 45 f0 99
	00		 mov	 WORD PTR __t$516356[ebp+12], 153 ; 00000099H
  000eb	59		 pop	 ecx
$LL302@AddRenderI:
  000ec	31 38		 xor	 DWORD PTR [eax], edi
  000ee	83 c0 04	 add	 eax, 4
  000f1	49		 dec	 ecx
  000f2	75 f8		 jne	 SHORT $LL302@AddRenderI
  000f4	8b 4d dc	 mov	 ecx, DWORD PTR _szType$GSCopy$[ebp]
  000f7	80 75 f0 ed	 xor	 BYTE PTR __t$516356[ebp+12], -19 ; ffffffedH
  000fb	8d 75 e4	 lea	 esi, DWORD PTR __t$516356[ebp]
  000fe	ff 15 00 00 00
	00		 call	 DWORD PTR __imp_?c_str@ioHashString@@QBEPBDXZ
$LL2094@AddRenderI:
  00104	8a 08		 mov	 cl, BYTE PTR [eax]
  00106	3a 0e		 cmp	 cl, BYTE PTR [esi]
  00108	75 1a		 jne	 SHORT $LN2095@AddRenderI
  0010a	3a cb		 cmp	 cl, bl
  0010c	74 12		 je	 SHORT $LN2162@AddRenderI
  0010e	8a 48 01	 mov	 cl, BYTE PTR [eax+1]
  00111	3a 4e 01	 cmp	 cl, BYTE PTR [esi+1]
  00114	75 0e		 jne	 SHORT $LN2095@AddRenderI
  00116	83 c0 02	 add	 eax, 2
  00119	83 c6 02	 add	 esi, 2
  0011c	3a cb		 cmp	 cl, bl
  0011e	75 e4		 jne	 SHORT $LL2094@AddRenderI
$LN2162@AddRenderI:
  00120	33 c0		 xor	 eax, eax
  00122	eb 05		 jmp	 SHORT $LN2097@AddRenderI
$LN2095@AddRenderI:
  00124	1b c0		 sbb	 eax, eax
  00126	83 d8 ff	 sbb	 eax, -1
$LN2097@AddRenderI:
  00129	3b c3		 cmp	 eax, ebx
  0012b	75 28		 jne	 SHORT $LN2074@AddRenderI

; 97   : 	{
; 98   : 		SAFEDELETE( m_pPrisonerPoint );

  0012d	8b 75 d8	 mov	 esi, DWORD PTR _this$GSCopy$[ebp]
  00130	8b 8e 94 01 00
	00		 mov	 ecx, DWORD PTR [esi+404]
  00136	3b cb		 cmp	 ecx, ebx
  00138	74 0d		 je	 SHORT $LN50@AddRenderI
  0013a	8b 01		 mov	 eax, DWORD PTR [ecx]
  0013c	6a 01		 push	 1
  0013e	ff 50 40	 call	 DWORD PTR [eax+64]
  00141	89 9e 94 01 00
	00		 mov	 DWORD PTR [esi+404], ebx
$LN50@AddRenderI:

; 99   : 		m_pPrisonerPoint = pImage;

  00147	8b 45 d4	 mov	 eax, DWORD PTR _pImage$GSCopy$[ebp]
  0014a	89 86 94 01 00
	00		 mov	 DWORD PTR [esi+404], eax
  00150	e9 3d 09 00 00	 jmp	 $LN1@AddRenderI
$LN2074@AddRenderI:

; 100  : 	}	
; 101  : 	else if( szType == "KingPoint" )

  00155	6a 02		 push	 2
  00157	c7 45 e8 a6 85
	85 8d		 mov	 DWORD PTR __t$516481[ebp], -1920629338 ; 8d8585a6H
  0015e	c7 45 ec bd 83
	82 84		 mov	 DWORD PTR __t$516481[ebp+4], -2071821379 ; 848283bdH
  00165	8d 45 e8	 lea	 eax, DWORD PTR __t$516481[ebp]
  00168	66 c7 45 f0 99
	00		 mov	 WORD PTR __t$516481[ebp+8], 153 ; 00000099H
  0016e	59		 pop	 ecx
$LL408@AddRenderI:
  0016f	31 38		 xor	 DWORD PTR [eax], edi
  00171	83 c0 04	 add	 eax, 4
  00174	49		 dec	 ecx
  00175	75 f8		 jne	 SHORT $LL408@AddRenderI
  00177	8b 4d dc	 mov	 ecx, DWORD PTR _szType$GSCopy$[ebp]
  0017a	80 75 f0 ed	 xor	 BYTE PTR __t$516481[ebp+8], -19 ; ffffffedH
  0017e	8d 75 e8	 lea	 esi, DWORD PTR __t$516481[ebp]
  00181	ff 15 00 00 00
	00		 call	 DWORD PTR __imp_?c_str@ioHashString@@QBEPBDXZ
$LL2098@AddRenderI:
  00187	8a 08		 mov	 cl, BYTE PTR [eax]
  00189	3a 0e		 cmp	 cl, BYTE PTR [esi]
  0018b	75 1a		 jne	 SHORT $LN2099@AddRenderI
  0018d	3a cb		 cmp	 cl, bl
  0018f	74 12		 je	 SHORT $LN2163@AddRenderI
  00191	8a 48 01	 mov	 cl, BYTE PTR [eax+1]
  00194	3a 4e 01	 cmp	 cl, BYTE PTR [esi+1]
  00197	75 0e		 jne	 SHORT $LN2099@AddRenderI
  00199	83 c0 02	 add	 eax, 2
  0019c	83 c6 02	 add	 esi, 2
  0019f	3a cb		 cmp	 cl, bl
  001a1	75 e4		 jne	 SHORT $LL2098@AddRenderI
$LN2163@AddRenderI:
  001a3	33 c0		 xor	 eax, eax
  001a5	eb 05		 jmp	 SHORT $LN2101@AddRenderI
$LN2099@AddRenderI:
  001a7	1b c0		 sbb	 eax, eax
  001a9	83 d8 ff	 sbb	 eax, -1
$LN2101@AddRenderI:
  001ac	3b c3		 cmp	 eax, ebx
  001ae	75 28		 jne	 SHORT $LN2075@AddRenderI

; 102  : 	{
; 103  : 		SAFEDELETE( m_pKingPoint );

  001b0	8b 75 d8	 mov	 esi, DWORD PTR _this$GSCopy$[ebp]
  001b3	8b 8e 98 01 00
	00		 mov	 ecx, DWORD PTR [esi+408]
  001b9	3b cb		 cmp	 ecx, ebx
  001bb	74 0d		 je	 SHORT $LN47@AddRenderI
  001bd	8b 01		 mov	 eax, DWORD PTR [ecx]
  001bf	6a 01		 push	 1
  001c1	ff 50 40	 call	 DWORD PTR [eax+64]
  001c4	89 9e 98 01 00
	00		 mov	 DWORD PTR [esi+408], ebx
$LN47@AddRenderI:

; 104  : 		m_pKingPoint = pImage;

  001ca	8b 45 d4	 mov	 eax, DWORD PTR _pImage$GSCopy$[ebp]
  001cd	89 86 98 01 00
	00		 mov	 DWORD PTR [esi+408], eax
  001d3	e9 ba 08 00 00	 jmp	 $LN1@AddRenderI
$LN2075@AddRenderI:

; 105  : 	}	
; 106  : 	else if( szType == "KillPoint" )

  001d8	6a 02		 push	 2
  001da	c7 45 e8 a6 85
	87 86		 mov	 DWORD PTR __t$516593[ebp], -2037938778 ; 868785a6H
  001e1	c7 45 ec bd 83
	82 84		 mov	 DWORD PTR __t$516593[ebp+4], -2071821379 ; 848283bdH
  001e8	8d 45 e8	 lea	 eax, DWORD PTR __t$516593[ebp]
  001eb	66 c7 45 f0 99
	00		 mov	 WORD PTR __t$516593[ebp+8], 153 ; 00000099H
  001f1	59		 pop	 ecx
$LL514@AddRenderI:
  001f2	31 38		 xor	 DWORD PTR [eax], edi
  001f4	83 c0 04	 add	 eax, 4
  001f7	49		 dec	 ecx
  001f8	75 f8		 jne	 SHORT $LL514@AddRenderI
  001fa	8b 4d dc	 mov	 ecx, DWORD PTR _szType$GSCopy$[ebp]
  001fd	80 75 f0 ed	 xor	 BYTE PTR __t$516593[ebp+8], -19 ; ffffffedH
  00201	8d 75 e8	 lea	 esi, DWORD PTR __t$516593[ebp]
  00204	ff 15 00 00 00
	00		 call	 DWORD PTR __imp_?c_str@ioHashString@@QBEPBDXZ
$LL2102@AddRenderI:
  0020a	8a 08		 mov	 cl, BYTE PTR [eax]
  0020c	3a 0e		 cmp	 cl, BYTE PTR [esi]
  0020e	75 1a		 jne	 SHORT $LN2103@AddRenderI
  00210	3a cb		 cmp	 cl, bl
  00212	74 12		 je	 SHORT $LN2164@AddRenderI
  00214	8a 48 01	 mov	 cl, BYTE PTR [eax+1]
  00217	3a 4e 01	 cmp	 cl, BYTE PTR [esi+1]
  0021a	75 0e		 jne	 SHORT $LN2103@AddRenderI
  0021c	83 c0 02	 add	 eax, 2
  0021f	83 c6 02	 add	 esi, 2
  00222	3a cb		 cmp	 cl, bl
  00224	75 e4		 jne	 SHORT $LL2102@AddRenderI
$LN2164@AddRenderI:
  00226	33 c0		 xor	 eax, eax
  00228	eb 05		 jmp	 SHORT $LN2105@AddRenderI
$LN2103@AddRenderI:
  0022a	1b c0		 sbb	 eax, eax
  0022c	83 d8 ff	 sbb	 eax, -1
$LN2105@AddRenderI:
  0022f	3b c3		 cmp	 eax, ebx
  00231	75 28		 jne	 SHORT $LN2076@AddRenderI

; 107  : 	{
; 108  : 		SAFEDELETE( m_pKillPoint );

  00233	8b 75 d8	 mov	 esi, DWORD PTR _this$GSCopy$[ebp]
  00236	8b 8e 9c 01 00
	00		 mov	 ecx, DWORD PTR [esi+412]
  0023c	3b cb		 cmp	 ecx, ebx
  0023e	74 0d		 je	 SHORT $LN44@AddRenderI
  00240	8b 01		 mov	 eax, DWORD PTR [ecx]
  00242	6a 01		 push	 1
  00244	ff 50 40	 call	 DWORD PTR [eax+64]
  00247	89 9e 9c 01 00
	00		 mov	 DWORD PTR [esi+412], ebx
$LN44@AddRenderI:

; 109  : 		m_pKillPoint = pImage;

  0024d	8b 45 d4	 mov	 eax, DWORD PTR _pImage$GSCopy$[ebp]
  00250	89 86 9c 01 00
	00		 mov	 DWORD PTR [esi+412], eax
  00256	e9 37 08 00 00	 jmp	 $LN1@AddRenderI
$LN2076@AddRenderI:

; 110  : 	}	
; 111  : 	else if( szType == "AttackPoint" )

  0025b	6a 02		 push	 2
  0025d	c7 45 e8 ac 98
	9f 8b		 mov	 DWORD PTR __t$516728[ebp], -1952474964 ; 8b9f98acH
  00264	c7 45 ec 8e 87
	bb 85		 mov	 DWORD PTR __t$516728[ebp+4], -2051307634 ; 85bb878eH
  0026b	8d 45 e8	 lea	 eax, DWORD PTR __t$516728[ebp]
  0026e	c7 45 f0 84 82
	9f 00		 mov	 DWORD PTR __t$516728[ebp+8], 10453636 ; 009f8284H
  00275	59		 pop	 ecx
$LL620@AddRenderI:
  00276	31 38		 xor	 DWORD PTR [eax], edi
  00278	83 c0 04	 add	 eax, 4
  0027b	49		 dec	 ecx
  0027c	75 f8		 jne	 SHORT $LL620@AddRenderI
  0027e	6a 08		 push	 8
  00280	58		 pop	 eax
$LL617@AddRenderI:
  00281	8b c8		 mov	 ecx, eax
  00283	81 e1 03 00 00
	80		 and	 ecx, -2147483645	; 80000003H
  00289	79 05		 jns	 SHORT $LN2170@AddRenderI
  0028b	49		 dec	 ecx
  0028c	83 c9 fc	 or	 ecx, -4			; fffffffcH
  0028f	41		 inc	 ecx
$LN2170@AddRenderI:
  00290	b2 ed		 mov	 dl, -19			; ffffffedH
  00292	2a d1		 sub	 dl, cl
  00294	30 54 05 e8	 xor	 BYTE PTR __t$516728[ebp+eax], dl
  00298	40		 inc	 eax
  00299	83 f8 0b	 cmp	 eax, 11			; 0000000bH
  0029c	7c e3		 jl	 SHORT $LL617@AddRenderI
  0029e	8b 4d dc	 mov	 ecx, DWORD PTR _szType$GSCopy$[ebp]
  002a1	8d 75 e8	 lea	 esi, DWORD PTR __t$516728[ebp]
  002a4	ff 15 00 00 00
	00		 call	 DWORD PTR __imp_?c_str@ioHashString@@QBEPBDXZ
$LL2106@AddRenderI:
  002aa	8a 08		 mov	 cl, BYTE PTR [eax]
  002ac	3a 0e		 cmp	 cl, BYTE PTR [esi]
  002ae	75 1a		 jne	 SHORT $LN2107@AddRenderI
  002b0	3a cb		 cmp	 cl, bl
  002b2	74 12		 je	 SHORT $LN2165@AddRenderI
  002b4	8a 48 01	 mov	 cl, BYTE PTR [eax+1]
  002b7	3a 4e 01	 cmp	 cl, BYTE PTR [esi+1]
  002ba	75 0e		 jne	 SHORT $LN2107@AddRenderI
  002bc	83 c0 02	 add	 eax, 2
  002bf	83 c6 02	 add	 esi, 2
  002c2	3a cb		 cmp	 cl, bl
  002c4	75 e4		 jne	 SHORT $LL2106@AddRenderI
$LN2165@AddRenderI:
  002c6	33 c0		 xor	 eax, eax
  002c8	eb 05		 jmp	 SHORT $LN2109@AddRenderI
$LN2107@AddRenderI:
  002ca	1b c0		 sbb	 eax, eax
  002cc	83 d8 ff	 sbb	 eax, -1
$LN2109@AddRenderI:
  002cf	3b c3		 cmp	 eax, ebx
  002d1	75 28		 jne	 SHORT $LN2077@AddRenderI

; 112  : 	{
; 113  : 		SAFEDELETE( m_pAttackPoint );

  002d3	8b 75 d8	 mov	 esi, DWORD PTR _this$GSCopy$[ebp]
  002d6	8b 8e a0 01 00
	00		 mov	 ecx, DWORD PTR [esi+416]
  002dc	3b cb		 cmp	 ecx, ebx
  002de	74 0d		 je	 SHORT $LN41@AddRenderI
  002e0	8b 01		 mov	 eax, DWORD PTR [ecx]
  002e2	6a 01		 push	 1
  002e4	ff 50 40	 call	 DWORD PTR [eax+64]
  002e7	89 9e a0 01 00
	00		 mov	 DWORD PTR [esi+416], ebx
$LN41@AddRenderI:

; 114  : 		m_pAttackPoint = pImage;

  002ed	8b 45 d4	 mov	 eax, DWORD PTR _pImage$GSCopy$[ebp]
  002f0	89 86 a0 01 00
	00		 mov	 DWORD PTR [esi+416], eax
  002f6	e9 97 07 00 00	 jmp	 $LN1@AddRenderI
$LN2077@AddRenderI:

; 115  : 	}	
; 116  : 	else if( szType == "DamagePoint" )

  002fb	6a 02		 push	 2
  002fd	c7 45 e8 a9 8d
	86 8b		 mov	 DWORD PTR __t$516843[ebp], -1954116183 ; 8b868da9H
  00304	c7 45 ec 8a 89
	bb 85		 mov	 DWORD PTR __t$516843[ebp+4], -2051307126 ; 85bb898aH
  0030b	8d 45 e8	 lea	 eax, DWORD PTR __t$516843[ebp]
  0030e	c7 45 f0 84 82
	9f 00		 mov	 DWORD PTR __t$516843[ebp+8], 10453636 ; 009f8284H
  00315	59		 pop	 ecx
$LL726@AddRenderI:
  00316	31 38		 xor	 DWORD PTR [eax], edi
  00318	83 c0 04	 add	 eax, 4
  0031b	49		 dec	 ecx
  0031c	75 f8		 jne	 SHORT $LL726@AddRenderI
  0031e	6a 08		 push	 8
  00320	58		 pop	 eax
$LL723@AddRenderI:
  00321	8b c8		 mov	 ecx, eax
  00323	81 e1 03 00 00
	80		 and	 ecx, -2147483645	; 80000003H
  00329	79 05		 jns	 SHORT $LN2171@AddRenderI
  0032b	49		 dec	 ecx
  0032c	83 c9 fc	 or	 ecx, -4			; fffffffcH
  0032f	41		 inc	 ecx
$LN2171@AddRenderI:
  00330	b2 ed		 mov	 dl, -19			; ffffffedH
  00332	2a d1		 sub	 dl, cl
  00334	30 54 05 e8	 xor	 BYTE PTR __t$516843[ebp+eax], dl
  00338	40		 inc	 eax
  00339	83 f8 0b	 cmp	 eax, 11			; 0000000bH
  0033c	7c e3		 jl	 SHORT $LL723@AddRenderI
  0033e	8b 4d dc	 mov	 ecx, DWORD PTR _szType$GSCopy$[ebp]
  00341	8d 75 e8	 lea	 esi, DWORD PTR __t$516843[ebp]
  00344	ff 15 00 00 00
	00		 call	 DWORD PTR __imp_?c_str@ioHashString@@QBEPBDXZ
$LL2110@AddRenderI:
  0034a	8a 08		 mov	 cl, BYTE PTR [eax]
  0034c	3a 0e		 cmp	 cl, BYTE PTR [esi]
  0034e	75 1a		 jne	 SHORT $LN2111@AddRenderI
  00350	3a cb		 cmp	 cl, bl
  00352	74 12		 je	 SHORT $LN2166@AddRenderI
  00354	8a 48 01	 mov	 cl, BYTE PTR [eax+1]
  00357	3a 4e 01	 cmp	 cl, BYTE PTR [esi+1]
  0035a	75 0e		 jne	 SHORT $LN2111@AddRenderI
  0035c	83 c0 02	 add	 eax, 2
  0035f	83 c6 02	 add	 esi, 2
  00362	3a cb		 cmp	 cl, bl
  00364	75 e4		 jne	 SHORT $LL2110@AddRenderI
$LN2166@AddRenderI:
  00366	33 c0		 xor	 eax, eax
  00368	eb 05		 jmp	 SHORT $LN2113@AddRenderI
$LN2111@AddRenderI:
  0036a	1b c0		 sbb	 eax, eax
  0036c	83 d8 ff	 sbb	 eax, -1
$LN2113@AddRenderI:
  0036f	3b c3		 cmp	 eax, ebx
  00371	75 28		 jne	 SHORT $LN2078@AddRenderI

; 117  : 	{
; 118  : 		SAFEDELETE( m_pDamagePoint );

  00373	8b 75 d8	 mov	 esi, DWORD PTR _this$GSCopy$[ebp]
  00376	8b 8e a4 01 00
	00		 mov	 ecx, DWORD PTR [esi+420]
  0037c	3b cb		 cmp	 ecx, ebx
  0037e	74 0d		 je	 SHORT $LN38@AddRenderI
  00380	8b 01		 mov	 eax, DWORD PTR [ecx]
  00382	6a 01		 push	 1
  00384	ff 50 40	 call	 DWORD PTR [eax+64]
  00387	89 9e a4 01 00
	00		 mov	 DWORD PTR [esi+420], ebx
$LN38@AddRenderI:

; 119  : 		m_pDamagePoint = pImage;

  0038d	8b 45 d4	 mov	 eax, DWORD PTR _pImage$GSCopy$[ebp]
  00390	89 86 a4 01 00
	00		 mov	 DWORD PTR [esi+420], eax
  00396	e9 f7 06 00 00	 jmp	 $LN1@AddRenderI
$LN2078@AddRenderI:

; 120  : 	}
; 121  : 	else if( szType == "GoalPoint" )

  0039b	6a 02		 push	 2
  0039d	c7 45 e8 aa 83
	8a 86		 mov	 DWORD PTR __t$516968[ebp], -2037742678 ; 868a83aaH
  003a4	c7 45 ec bd 83
	82 84		 mov	 DWORD PTR __t$516968[ebp+4], -2071821379 ; 848283bdH
  003ab	8d 45 e8	 lea	 eax, DWORD PTR __t$516968[ebp]
  003ae	66 c7 45 f0 99
	00		 mov	 WORD PTR __t$516968[ebp+8], 153 ; 00000099H
  003b4	59		 pop	 ecx
$LL832@AddRenderI:
  003b5	31 38		 xor	 DWORD PTR [eax], edi
  003b7	83 c0 04	 add	 eax, 4
  003ba	49		 dec	 ecx
  003bb	75 f8		 jne	 SHORT $LL832@AddRenderI
  003bd	8b 4d dc	 mov	 ecx, DWORD PTR _szType$GSCopy$[ebp]
  003c0	80 75 f0 ed	 xor	 BYTE PTR __t$516968[ebp+8], -19 ; ffffffedH
  003c4	8d 75 e8	 lea	 esi, DWORD PTR __t$516968[ebp]
  003c7	ff 15 00 00 00
	00		 call	 DWORD PTR __imp_?c_str@ioHashString@@QBEPBDXZ
$LL2114@AddRenderI:
  003cd	8a 08		 mov	 cl, BYTE PTR [eax]
  003cf	3a 0e		 cmp	 cl, BYTE PTR [esi]
  003d1	75 1a		 jne	 SHORT $LN2115@AddRenderI
  003d3	3a cb		 cmp	 cl, bl
  003d5	74 12		 je	 SHORT $LN2116@AddRenderI
  003d7	8a 48 01	 mov	 cl, BYTE PTR [eax+1]
  003da	3a 4e 01	 cmp	 cl, BYTE PTR [esi+1]
  003dd	75 0e		 jne	 SHORT $LN2115@AddRenderI
  003df	83 c0 02	 add	 eax, 2
  003e2	83 c6 02	 add	 esi, 2
  003e5	3a cb		 cmp	 cl, bl
  003e7	75 e4		 jne	 SHORT $LL2114@AddRenderI
$LN2116@AddRenderI:
  003e9	33 c0		 xor	 eax, eax
  003eb	eb 05		 jmp	 SHORT $LN2117@AddRenderI
$LN2115@AddRenderI:
  003ed	1b c0		 sbb	 eax, eax
  003ef	83 d8 ff	 sbb	 eax, -1
$LN2117@AddRenderI:
  003f2	3b c3		 cmp	 eax, ebx
  003f4	75 28		 jne	 SHORT $LN2079@AddRenderI

; 122  : 	{
; 123  : 		SAFEDELETE( m_pGoalPoint );

  003f6	8b 75 d8	 mov	 esi, DWORD PTR _this$GSCopy$[ebp]
  003f9	8b 8e b4 01 00
	00		 mov	 ecx, DWORD PTR [esi+436]
  003ff	3b cb		 cmp	 ecx, ebx
  00401	74 0d		 je	 SHORT $LN35@AddRenderI
  00403	8b 01		 mov	 eax, DWORD PTR [ecx]
  00405	6a 01		 push	 1
  00407	ff 50 40	 call	 DWORD PTR [eax+64]
  0040a	89 9e b4 01 00
	00		 mov	 DWORD PTR [esi+436], ebx
$LN35@AddRenderI:

; 124  : 		m_pGoalPoint = pImage;

  00410	8b 45 d4	 mov	 eax, DWORD PTR _pImage$GSCopy$[ebp]
  00413	89 86 b4 01 00
	00		 mov	 DWORD PTR [esi+436], eax
  00419	e9 74 06 00 00	 jmp	 $LN1@AddRenderI
$LN2079@AddRenderI:

; 125  : 	}
; 126  : 	else if( szType == "BallTouchPoint" )

  0041e	6a 03		 push	 3
  00420	c7 45 e4 af 8d
	87 86		 mov	 DWORD PTR __t$517093[ebp], -2037936721 ; 86878dafH
  00427	c7 45 e8 b9 83
	9e 89		 mov	 DWORD PTR __t$517093[ebp+4], -1986100295 ; 899e83b9H
  0042e	c7 45 ec 85 bc
	84 83		 mov	 DWORD PTR __t$517093[ebp+8], -2088452987 ; 8384bc85H
  00435	66 c7 45 f0 83
	98		 mov	 WORD PTR __t$517093[ebp+12], 39043 ; 00009883H
  0043b	8d 45 e4	 lea	 eax, DWORD PTR __t$517093[ebp]
  0043e	88 5d f2	 mov	 BYTE PTR __t$517093[ebp+14], bl
  00441	59		 pop	 ecx
$LL938@AddRenderI:
  00442	31 38		 xor	 DWORD PTR [eax], edi
  00444	83 c0 04	 add	 eax, 4
  00447	49		 dec	 ecx
  00448	75 f8		 jne	 SHORT $LL938@AddRenderI
  0044a	6a 0c		 push	 12			; 0000000cH
  0044c	58		 pop	 eax
$LL935@AddRenderI:
  0044d	8b c8		 mov	 ecx, eax
  0044f	81 e1 03 00 00
	80		 and	 ecx, -2147483645	; 80000003H
  00455	79 05		 jns	 SHORT $LN2172@AddRenderI
  00457	49		 dec	 ecx
  00458	83 c9 fc	 or	 ecx, -4			; fffffffcH
  0045b	41		 inc	 ecx
$LN2172@AddRenderI:
  0045c	b2 ed		 mov	 dl, -19			; ffffffedH
  0045e	2a d1		 sub	 dl, cl
  00460	30 54 05 e4	 xor	 BYTE PTR __t$517093[ebp+eax], dl
  00464	40		 inc	 eax
  00465	83 f8 0e	 cmp	 eax, 14			; 0000000eH
  00468	7c e3		 jl	 SHORT $LL935@AddRenderI
  0046a	8b 4d dc	 mov	 ecx, DWORD PTR _szType$GSCopy$[ebp]
  0046d	8d 75 e4	 lea	 esi, DWORD PTR __t$517093[ebp]
  00470	ff 15 00 00 00
	00		 call	 DWORD PTR __imp_?c_str@ioHashString@@QBEPBDXZ
$LL2118@AddRenderI:
  00476	8a 08		 mov	 cl, BYTE PTR [eax]
  00478	3a 0e		 cmp	 cl, BYTE PTR [esi]
  0047a	75 1a		 jne	 SHORT $LN2119@AddRenderI
  0047c	3a cb		 cmp	 cl, bl
  0047e	74 12		 je	 SHORT $LN2120@AddRenderI
  00480	8a 48 01	 mov	 cl, BYTE PTR [eax+1]
  00483	3a 4e 01	 cmp	 cl, BYTE PTR [esi+1]
  00486	75 0e		 jne	 SHORT $LN2119@AddRenderI
  00488	83 c0 02	 add	 eax, 2
  0048b	83 c6 02	 add	 esi, 2
  0048e	3a cb		 cmp	 cl, bl
  00490	75 e4		 jne	 SHORT $LL2118@AddRenderI
$LN2120@AddRenderI:
  00492	33 c0		 xor	 eax, eax
  00494	eb 05		 jmp	 SHORT $LN2121@AddRenderI
$LN2119@AddRenderI:
  00496	1b c0		 sbb	 eax, eax
  00498	83 d8 ff	 sbb	 eax, -1
$LN2121@AddRenderI:
  0049b	3b c3		 cmp	 eax, ebx
  0049d	75 28		 jne	 SHORT $LN2080@AddRenderI

; 127  : 	{
; 128  : 		SAFEDELETE( m_pBallTouchPoint );

  0049f	8b 75 d8	 mov	 esi, DWORD PTR _this$GSCopy$[ebp]
  004a2	8b 8e b8 01 00
	00		 mov	 ecx, DWORD PTR [esi+440]
  004a8	3b cb		 cmp	 ecx, ebx
  004aa	74 0d		 je	 SHORT $LN32@AddRenderI
  004ac	8b 01		 mov	 eax, DWORD PTR [ecx]
  004ae	6a 01		 push	 1
  004b0	ff 50 40	 call	 DWORD PTR [eax+64]
  004b3	89 9e b8 01 00
	00		 mov	 DWORD PTR [esi+440], ebx
$LN32@AddRenderI:

; 129  : 		m_pBallTouchPoint = pImage;

  004b9	8b 45 d4	 mov	 eax, DWORD PTR _pImage$GSCopy$[ebp]
  004bc	89 86 b8 01 00
	00		 mov	 DWORD PTR [esi+440], eax
  004c2	e9 cb 05 00 00	 jmp	 $LN1@AddRenderI
$LN2080@AddRenderI:

; 130  : 	}
; 131  : 	else if( szType == "BallTimePoint" )

  004c7	6a 03		 push	 3
  004c9	c7 45 e4 af 8d
	87 86		 mov	 DWORD PTR __t$517231[ebp], -2037936721 ; 86878dafH
  004d0	c7 45 e8 b9 85
	86 8f		 mov	 DWORD PTR __t$517231[ebp+4], -1887009351 ; 8f8685b9H
  004d7	c7 45 ec bd 83
	82 84		 mov	 DWORD PTR __t$517231[ebp+8], -2071821379 ; 848283bdH
  004de	8d 45 e4	 lea	 eax, DWORD PTR __t$517231[ebp]
  004e1	66 c7 45 f0 99
	00		 mov	 WORD PTR __t$517231[ebp+12], 153 ; 00000099H
  004e7	59		 pop	 ecx
$LL1044@AddRenderI:
  004e8	31 38		 xor	 DWORD PTR [eax], edi
  004ea	83 c0 04	 add	 eax, 4
  004ed	49		 dec	 ecx
  004ee	75 f8		 jne	 SHORT $LL1044@AddRenderI
  004f0	8b 4d dc	 mov	 ecx, DWORD PTR _szType$GSCopy$[ebp]
  004f3	80 75 f0 ed	 xor	 BYTE PTR __t$517231[ebp+12], -19 ; ffffffedH
  004f7	8d 75 e4	 lea	 esi, DWORD PTR __t$517231[ebp]
  004fa	ff 15 00 00 00
	00		 call	 DWORD PTR __imp_?c_str@ioHashString@@QBEPBDXZ
$LL2122@AddRenderI:
  00500	8a 08		 mov	 cl, BYTE PTR [eax]
  00502	3a 0e		 cmp	 cl, BYTE PTR [esi]
  00504	75 1a		 jne	 SHORT $LN2123@AddRenderI
  00506	3a cb		 cmp	 cl, bl
  00508	74 12		 je	 SHORT $LN2124@AddRenderI
  0050a	8a 48 01	 mov	 cl, BYTE PTR [eax+1]
  0050d	3a 4e 01	 cmp	 cl, BYTE PTR [esi+1]
  00510	75 0e		 jne	 SHORT $LN2123@AddRenderI
  00512	83 c0 02	 add	 eax, 2
  00515	83 c6 02	 add	 esi, 2
  00518	3a cb		 cmp	 cl, bl
  0051a	75 e4		 jne	 SHORT $LL2122@AddRenderI
$LN2124@AddRenderI:
  0051c	33 c0		 xor	 eax, eax
  0051e	eb 05		 jmp	 SHORT $LN2125@AddRenderI
$LN2123@AddRenderI:
  00520	1b c0		 sbb	 eax, eax
  00522	83 d8 ff	 sbb	 eax, -1
$LN2125@AddRenderI:
  00525	3b c3		 cmp	 eax, ebx
  00527	75 28		 jne	 SHORT $LN2081@AddRenderI

; 132  : 	{
; 133  : 		SAFEDELETE( m_pBallTimePoint );

  00529	8b 75 d8	 mov	 esi, DWORD PTR _this$GSCopy$[ebp]
  0052c	8b 8e bc 01 00
	00		 mov	 ecx, DWORD PTR [esi+444]
  00532	3b cb		 cmp	 ecx, ebx
  00534	74 0d		 je	 SHORT $LN29@AddRenderI
  00536	8b 01		 mov	 eax, DWORD PTR [ecx]
  00538	6a 01		 push	 1
  0053a	ff 50 40	 call	 DWORD PTR [eax+64]
  0053d	89 9e bc 01 00
	00		 mov	 DWORD PTR [esi+444], ebx
$LN29@AddRenderI:

; 134  : 		m_pBallTimePoint = pImage;

  00543	8b 45 d4	 mov	 eax, DWORD PTR _pImage$GSCopy$[ebp]
  00546	89 86 bc 01 00
	00		 mov	 DWORD PTR [esi+444], eax
  0054c	e9 41 05 00 00	 jmp	 $LN1@AddRenderI
$LN2081@AddRenderI:

; 135  : 	}
; 136  : 	else if( szType == "GangsiInfectionPoint" )

  00551	6a 05		 push	 5
  00553	c7 45 e0 aa 8d
	85 8d		 mov	 DWORD PTR __t$517375[ebp], -1920627286 ; 8d858daaH
  0055a	c7 45 e4 9e 85
	a2 84		 mov	 DWORD PTR __t$517375[ebp+4], -2069723746 ; 84a2859eH
  00561	c7 45 e8 8b 89
	88 9e		 mov	 DWORD PTR __t$517375[ebp+8], -1635219061 ; 9e88898bH
  00568	c7 45 ec 84 83
	85 ba		 mov	 DWORD PTR __t$517375[ebp+12], -1165655164 ; ba858384H
  0056f	c7 45 f0 82 85
	85 9e		 mov	 DWORD PTR __t$517375[ebp+16], -1635416702 ; 9e858582H
  00576	8d 45 e0	 lea	 eax, DWORD PTR __t$517375[ebp]
  00579	88 5d f4	 mov	 BYTE PTR __t$517375[ebp+20], bl
  0057c	59		 pop	 ecx
$LL1150@AddRenderI:
  0057d	31 38		 xor	 DWORD PTR [eax], edi
  0057f	83 c0 04	 add	 eax, 4
  00582	49		 dec	 ecx
  00583	75 f8		 jne	 SHORT $LL1150@AddRenderI
  00585	8b 4d dc	 mov	 ecx, DWORD PTR _szType$GSCopy$[ebp]
  00588	8d 75 e0	 lea	 esi, DWORD PTR __t$517375[ebp]
  0058b	ff 15 00 00 00
	00		 call	 DWORD PTR __imp_?c_str@ioHashString@@QBEPBDXZ
$LL2126@AddRenderI:
  00591	8a 08		 mov	 cl, BYTE PTR [eax]
  00593	3a 0e		 cmp	 cl, BYTE PTR [esi]
  00595	75 1a		 jne	 SHORT $LN2127@AddRenderI
  00597	3a cb		 cmp	 cl, bl
  00599	74 12		 je	 SHORT $LN2128@AddRenderI
  0059b	8a 48 01	 mov	 cl, BYTE PTR [eax+1]
  0059e	3a 4e 01	 cmp	 cl, BYTE PTR [esi+1]
  005a1	75 0e		 jne	 SHORT $LN2127@AddRenderI
  005a3	83 c0 02	 add	 eax, 2
  005a6	83 c6 02	 add	 esi, 2
  005a9	3a cb		 cmp	 cl, bl
  005ab	75 e4		 jne	 SHORT $LL2126@AddRenderI
$LN2128@AddRenderI:
  005ad	33 c0		 xor	 eax, eax
  005af	eb 05		 jmp	 SHORT $LN2129@AddRenderI
$LN2127@AddRenderI:
  005b1	1b c0		 sbb	 eax, eax
  005b3	83 d8 ff	 sbb	 eax, -1
$LN2129@AddRenderI:
  005b6	3b c3		 cmp	 eax, ebx
  005b8	75 28		 jne	 SHORT $LN2082@AddRenderI

; 137  : 	{
; 138  : 		SAFEDELETE( m_pGangsiInfectionPoint );

  005ba	8b 75 d8	 mov	 esi, DWORD PTR _this$GSCopy$[ebp]
  005bd	8b 8e c0 01 00
	00		 mov	 ecx, DWORD PTR [esi+448]
  005c3	3b cb		 cmp	 ecx, ebx
  005c5	74 0d		 je	 SHORT $LN26@AddRenderI
  005c7	8b 01		 mov	 eax, DWORD PTR [ecx]
  005c9	6a 01		 push	 1
  005cb	ff 50 40	 call	 DWORD PTR [eax+64]
  005ce	89 9e c0 01 00
	00		 mov	 DWORD PTR [esi+448], ebx
$LN26@AddRenderI:

; 139  : 		m_pGangsiInfectionPoint = pImage;

  005d4	8b 45 d4	 mov	 eax, DWORD PTR _pImage$GSCopy$[ebp]
  005d7	89 86 c0 01 00
	00		 mov	 DWORD PTR [esi+448], eax
  005dd	e9 b0 04 00 00	 jmp	 $LN1@AddRenderI
$LN2082@AddRenderI:

; 140  : 	}
; 141  : 	else if( szType == "GangsiSurvivorPoint" )

  005e2	6a 04		 push	 4
  005e4	c7 45 e0 aa 8d
	85 8d		 mov	 DWORD PTR __t$517468[ebp], -1920627286 ; 8d858daaH
  005eb	c7 45 e4 9e 85
	b8 9f		 mov	 DWORD PTR __t$517468[ebp+4], -1615297122 ; 9fb8859eH
  005f2	c7 45 e8 9f 9a
	82 9c		 mov	 DWORD PTR __t$517468[ebp+8], -1669162337 ; 9c829a9fH
  005f9	c7 45 ec 82 9e
	bb 85		 mov	 DWORD PTR __t$517468[ebp+12], -2051301758 ; 85bb9e82H
  00600	8d 45 e0	 lea	 eax, DWORD PTR __t$517468[ebp]
  00603	c7 45 f0 84 82
	9f 00		 mov	 DWORD PTR __t$517468[ebp+16], 10453636 ; 009f8284H
  0060a	59		 pop	 ecx
$LL1256@AddRenderI:
  0060b	31 38		 xor	 DWORD PTR [eax], edi
  0060d	83 c0 04	 add	 eax, 4
  00610	49		 dec	 ecx
  00611	75 f8		 jne	 SHORT $LL1256@AddRenderI
  00613	6a 10		 push	 16			; 00000010H
  00615	58		 pop	 eax
$LL1253@AddRenderI:
  00616	8b c8		 mov	 ecx, eax
  00618	81 e1 03 00 00
	80		 and	 ecx, -2147483645	; 80000003H
  0061e	79 05		 jns	 SHORT $LN2173@AddRenderI
  00620	49		 dec	 ecx
  00621	83 c9 fc	 or	 ecx, -4			; fffffffcH
  00624	41		 inc	 ecx
$LN2173@AddRenderI:
  00625	b2 ed		 mov	 dl, -19			; ffffffedH
  00627	2a d1		 sub	 dl, cl
  00629	30 54 05 e0	 xor	 BYTE PTR __t$517468[ebp+eax], dl
  0062d	40		 inc	 eax
  0062e	83 f8 13	 cmp	 eax, 19			; 00000013H
  00631	7c e3		 jl	 SHORT $LL1253@AddRenderI
  00633	8b 4d dc	 mov	 ecx, DWORD PTR _szType$GSCopy$[ebp]
  00636	8d 75 e0	 lea	 esi, DWORD PTR __t$517468[ebp]
  00639	ff 15 00 00 00
	00		 call	 DWORD PTR __imp_?c_str@ioHashString@@QBEPBDXZ
$LL2130@AddRenderI:
  0063f	8a 08		 mov	 cl, BYTE PTR [eax]
  00641	3a 0e		 cmp	 cl, BYTE PTR [esi]
  00643	75 1a		 jne	 SHORT $LN2131@AddRenderI
  00645	3a cb		 cmp	 cl, bl
  00647	74 12		 je	 SHORT $LN2132@AddRenderI
  00649	8a 48 01	 mov	 cl, BYTE PTR [eax+1]
  0064c	3a 4e 01	 cmp	 cl, BYTE PTR [esi+1]
  0064f	75 0e		 jne	 SHORT $LN2131@AddRenderI
  00651	83 c0 02	 add	 eax, 2
  00654	83 c6 02	 add	 esi, 2
  00657	3a cb		 cmp	 cl, bl
  00659	75 e4		 jne	 SHORT $LL2130@AddRenderI
$LN2132@AddRenderI:
  0065b	33 c0		 xor	 eax, eax
  0065d	eb 05		 jmp	 SHORT $LN2133@AddRenderI
$LN2131@AddRenderI:
  0065f	1b c0		 sbb	 eax, eax
  00661	83 d8 ff	 sbb	 eax, -1
$LN2133@AddRenderI:
  00664	3b c3		 cmp	 eax, ebx
  00666	75 28		 jne	 SHORT $LN2083@AddRenderI

; 142  : 	{
; 143  : 		SAFEDELETE( m_pGangsiSurvivorPoint );

  00668	8b 75 d8	 mov	 esi, DWORD PTR _this$GSCopy$[ebp]
  0066b	8b 8e c4 01 00
	00		 mov	 ecx, DWORD PTR [esi+452]
  00671	3b cb		 cmp	 ecx, ebx
  00673	74 0d		 je	 SHORT $LN23@AddRenderI
  00675	8b 01		 mov	 eax, DWORD PTR [ecx]
  00677	6a 01		 push	 1
  00679	ff 50 40	 call	 DWORD PTR [eax+64]
  0067c	89 9e c4 01 00
	00		 mov	 DWORD PTR [esi+452], ebx
$LN23@AddRenderI:

; 144  : 		m_pGangsiSurvivorPoint = pImage;

  00682	8b 45 d4	 mov	 eax, DWORD PTR _pImage$GSCopy$[ebp]
  00685	89 86 c4 01 00
	00		 mov	 DWORD PTR [esi+452], eax
  0068b	e9 02 04 00 00	 jmp	 $LN1@AddRenderI
$LN2083@AddRenderI:

; 145  : 	}
; 146  : 	else if( szType == "Rank_S" )

  00690	6a 04		 push	 4
  00692	58		 pop	 eax
  00693	c7 45 ec bf 8d
	85 81		 mov	 DWORD PTR __t$517593[ebp], -2121953857 ; 81858dbfH
  0069a	31 7d ec	 xor	 DWORD PTR __t$517593[ebp], edi
  0069d	6a 06		 push	 6
  0069f	66 c7 45 f0 b2
	bf		 mov	 WORD PTR __t$517593[ebp+4], 49074 ; 0000bfb2H
  006a5	88 5d f2	 mov	 BYTE PTR __t$517593[ebp+6], bl
  006a8	5f		 pop	 edi
$LL1359@AddRenderI:
  006a9	8b c8		 mov	 ecx, eax
  006ab	81 e1 03 00 00
	80		 and	 ecx, -2147483645	; 80000003H
  006b1	79 05		 jns	 SHORT $LN2174@AddRenderI
  006b3	49		 dec	 ecx
  006b4	83 c9 fc	 or	 ecx, -4			; fffffffcH
  006b7	41		 inc	 ecx
$LN2174@AddRenderI:
  006b8	b2 ed		 mov	 dl, -19			; ffffffedH
  006ba	2a d1		 sub	 dl, cl
  006bc	30 54 05 ec	 xor	 BYTE PTR __t$517593[ebp+eax], dl
  006c0	40		 inc	 eax
  006c1	3b c7		 cmp	 eax, edi
  006c3	7c e4		 jl	 SHORT $LL1359@AddRenderI
  006c5	8b 4d dc	 mov	 ecx, DWORD PTR _szType$GSCopy$[ebp]
  006c8	8d 75 ec	 lea	 esi, DWORD PTR __t$517593[ebp]
  006cb	ff 15 00 00 00
	00		 call	 DWORD PTR __imp_?c_str@ioHashString@@QBEPBDXZ
$LL2134@AddRenderI:
  006d1	8a 08		 mov	 cl, BYTE PTR [eax]
  006d3	3a 0e		 cmp	 cl, BYTE PTR [esi]
  006d5	75 1a		 jne	 SHORT $LN2135@AddRenderI
  006d7	3a cb		 cmp	 cl, bl
  006d9	74 12		 je	 SHORT $LN2136@AddRenderI
  006db	8a 48 01	 mov	 cl, BYTE PTR [eax+1]
  006de	3a 4e 01	 cmp	 cl, BYTE PTR [esi+1]
  006e1	75 0e		 jne	 SHORT $LN2135@AddRenderI
  006e3	83 c0 02	 add	 eax, 2
  006e6	83 c6 02	 add	 esi, 2
  006e9	3a cb		 cmp	 cl, bl
  006eb	75 e4		 jne	 SHORT $LL2134@AddRenderI
$LN2136@AddRenderI:
  006ed	33 c0		 xor	 eax, eax
  006ef	eb 05		 jmp	 SHORT $LN2137@AddRenderI
$LN2135@AddRenderI:
  006f1	1b c0		 sbb	 eax, eax
  006f3	83 d8 ff	 sbb	 eax, -1
$LN2137@AddRenderI:
  006f6	3b c3		 cmp	 eax, ebx
  006f8	75 28		 jne	 SHORT $LN2084@AddRenderI

; 147  : 	{
; 148  : 		SAFEDELETE( m_pRank[0] );

  006fa	8b 75 d8	 mov	 esi, DWORD PTR _this$GSCopy$[ebp]
  006fd	8b 8e c8 01 00
	00		 mov	 ecx, DWORD PTR [esi+456]
  00703	3b cb		 cmp	 ecx, ebx
  00705	74 0d		 je	 SHORT $LN20@AddRenderI
  00707	8b 01		 mov	 eax, DWORD PTR [ecx]
  00709	6a 01		 push	 1
  0070b	ff 50 40	 call	 DWORD PTR [eax+64]
  0070e	89 9e c8 01 00
	00		 mov	 DWORD PTR [esi+456], ebx
$LN20@AddRenderI:

; 149  : 		m_pRank[0] = pImage;

  00714	8b 45 d4	 mov	 eax, DWORD PTR _pImage$GSCopy$[ebp]
  00717	89 86 c8 01 00
	00		 mov	 DWORD PTR [esi+456], eax
  0071d	e9 70 03 00 00	 jmp	 $LN1@AddRenderI
$LN2084@AddRenderI:

; 150  : 	}	
; 151  : 	else if( szType == "Rank_A" )

  00722	6a 04		 push	 4
  00724	c7 45 ec bf 8d
	85 81		 mov	 DWORD PTR __t$517718[ebp], -2121953857 ; 81858dbfH
  0072b	81 75 ec ed ec
	eb ea		 xor	 DWORD PTR __t$517718[ebp], -353637139 ; eaebecedH
  00732	66 c7 45 f0 b2
	ad		 mov	 WORD PTR __t$517718[ebp+4], 44466 ; 0000adb2H
  00738	88 5d f2	 mov	 BYTE PTR __t$517718[ebp+6], bl
  0073b	58		 pop	 eax
$LL1465@AddRenderI:
  0073c	8b c8		 mov	 ecx, eax
  0073e	81 e1 03 00 00
	80		 and	 ecx, -2147483645	; 80000003H
  00744	79 05		 jns	 SHORT $LN2175@AddRenderI
  00746	49		 dec	 ecx
  00747	83 c9 fc	 or	 ecx, -4			; fffffffcH
  0074a	41		 inc	 ecx
$LN2175@AddRenderI:
  0074b	b2 ed		 mov	 dl, -19			; ffffffedH
  0074d	2a d1		 sub	 dl, cl
  0074f	30 54 05 ec	 xor	 BYTE PTR __t$517718[ebp+eax], dl
  00753	40		 inc	 eax
  00754	3b c7		 cmp	 eax, edi
  00756	7c e4		 jl	 SHORT $LL1465@AddRenderI
  00758	8b 4d dc	 mov	 ecx, DWORD PTR _szType$GSCopy$[ebp]
  0075b	8d 75 ec	 lea	 esi, DWORD PTR __t$517718[ebp]
  0075e	ff 15 00 00 00
	00		 call	 DWORD PTR __imp_?c_str@ioHashString@@QBEPBDXZ
$LL2138@AddRenderI:
  00764	8a 08		 mov	 cl, BYTE PTR [eax]
  00766	3a 0e		 cmp	 cl, BYTE PTR [esi]
  00768	75 1a		 jne	 SHORT $LN2139@AddRenderI
  0076a	3a cb		 cmp	 cl, bl
  0076c	74 12		 je	 SHORT $LN2140@AddRenderI
  0076e	8a 48 01	 mov	 cl, BYTE PTR [eax+1]
  00771	3a 4e 01	 cmp	 cl, BYTE PTR [esi+1]
  00774	75 0e		 jne	 SHORT $LN2139@AddRenderI
  00776	83 c0 02	 add	 eax, 2
  00779	83 c6 02	 add	 esi, 2
  0077c	3a cb		 cmp	 cl, bl
  0077e	75 e4		 jne	 SHORT $LL2138@AddRenderI
$LN2140@AddRenderI:
  00780	33 c0		 xor	 eax, eax
  00782	eb 05		 jmp	 SHORT $LN2141@AddRenderI
$LN2139@AddRenderI:
  00784	1b c0		 sbb	 eax, eax
  00786	83 d8 ff	 sbb	 eax, -1
$LN2141@AddRenderI:
  00789	3b c3		 cmp	 eax, ebx
  0078b	75 28		 jne	 SHORT $LN2085@AddRenderI

; 152  : 	{
; 153  : 		SAFEDELETE( m_pRank[1] );

  0078d	8b 75 d8	 mov	 esi, DWORD PTR _this$GSCopy$[ebp]
  00790	8b 8e cc 01 00
	00		 mov	 ecx, DWORD PTR [esi+460]
  00796	3b cb		 cmp	 ecx, ebx
  00798	74 0d		 je	 SHORT $LN17@AddRenderI
  0079a	8b 01		 mov	 eax, DWORD PTR [ecx]
  0079c	6a 01		 push	 1
  0079e	ff 50 40	 call	 DWORD PTR [eax+64]
  007a1	89 9e cc 01 00
	00		 mov	 DWORD PTR [esi+460], ebx
$LN17@AddRenderI:

; 154  : 		m_pRank[1] = pImage;

  007a7	8b 45 d4	 mov	 eax, DWORD PTR _pImage$GSCopy$[ebp]
  007aa	89 86 cc 01 00
	00		 mov	 DWORD PTR [esi+460], eax
  007b0	e9 dd 02 00 00	 jmp	 $LN1@AddRenderI
$LN2085@AddRenderI:

; 155  : 	}	
; 156  : 	else if( szType == "Rank_B" )

  007b5	6a 04		 push	 4
  007b7	c7 45 ec bf 8d
	85 81		 mov	 DWORD PTR __t$517843[ebp], -2121953857 ; 81858dbfH
  007be	81 75 ec ed ec
	eb ea		 xor	 DWORD PTR __t$517843[ebp], -353637139 ; eaebecedH
  007c5	66 c7 45 f0 b2
	ae		 mov	 WORD PTR __t$517843[ebp+4], 44722 ; 0000aeb2H
  007cb	88 5d f2	 mov	 BYTE PTR __t$517843[ebp+6], bl
  007ce	58		 pop	 eax
$LL1571@AddRenderI:
  007cf	8b c8		 mov	 ecx, eax
  007d1	81 e1 03 00 00
	80		 and	 ecx, -2147483645	; 80000003H
  007d7	79 05		 jns	 SHORT $LN2176@AddRenderI
  007d9	49		 dec	 ecx
  007da	83 c9 fc	 or	 ecx, -4			; fffffffcH
  007dd	41		 inc	 ecx
$LN2176@AddRenderI:
  007de	b2 ed		 mov	 dl, -19			; ffffffedH
  007e0	2a d1		 sub	 dl, cl
  007e2	30 54 05 ec	 xor	 BYTE PTR __t$517843[ebp+eax], dl
  007e6	40		 inc	 eax
  007e7	3b c7		 cmp	 eax, edi
  007e9	7c e4		 jl	 SHORT $LL1571@AddRenderI
  007eb	8b 4d dc	 mov	 ecx, DWORD PTR _szType$GSCopy$[ebp]
  007ee	8d 75 ec	 lea	 esi, DWORD PTR __t$517843[ebp]
  007f1	ff 15 00 00 00
	00		 call	 DWORD PTR __imp_?c_str@ioHashString@@QBEPBDXZ
$LL2142@AddRenderI:
  007f7	8a 08		 mov	 cl, BYTE PTR [eax]
  007f9	3a 0e		 cmp	 cl, BYTE PTR [esi]
  007fb	75 1a		 jne	 SHORT $LN2143@AddRenderI
  007fd	3a cb		 cmp	 cl, bl
  007ff	74 12		 je	 SHORT $LN2144@AddRenderI
  00801	8a 48 01	 mov	 cl, BYTE PTR [eax+1]
  00804	3a 4e 01	 cmp	 cl, BYTE PTR [esi+1]
  00807	75 0e		 jne	 SHORT $LN2143@AddRenderI
  00809	83 c0 02	 add	 eax, 2
  0080c	83 c6 02	 add	 esi, 2
  0080f	3a cb		 cmp	 cl, bl
  00811	75 e4		 jne	 SHORT $LL2142@AddRenderI
$LN2144@AddRenderI:
  00813	33 c0		 xor	 eax, eax
  00815	eb 05		 jmp	 SHORT $LN2145@AddRenderI
$LN2143@AddRenderI:
  00817	1b c0		 sbb	 eax, eax
  00819	83 d8 ff	 sbb	 eax, -1
$LN2145@AddRenderI:
  0081c	3b c3		 cmp	 eax, ebx
  0081e	75 28		 jne	 SHORT $LN2086@AddRenderI

; 157  : 	{
; 158  : 		SAFEDELETE( m_pRank[2] );

  00820	8b 75 d8	 mov	 esi, DWORD PTR _this$GSCopy$[ebp]
  00823	8b 8e d0 01 00
	00		 mov	 ecx, DWORD PTR [esi+464]
  00829	3b cb		 cmp	 ecx, ebx
  0082b	74 0d		 je	 SHORT $LN14@AddRenderI
  0082d	8b 01		 mov	 eax, DWORD PTR [ecx]
  0082f	6a 01		 push	 1
  00831	ff 50 40	 call	 DWORD PTR [eax+64]
  00834	89 9e d0 01 00
	00		 mov	 DWORD PTR [esi+464], ebx
$LN14@AddRenderI:

; 159  : 		m_pRank[2] = pImage;

  0083a	8b 45 d4	 mov	 eax, DWORD PTR _pImage$GSCopy$[ebp]
  0083d	89 86 d0 01 00
	00		 mov	 DWORD PTR [esi+464], eax
  00843	e9 4a 02 00 00	 jmp	 $LN1@AddRenderI
$LN2086@AddRenderI:

; 160  : 	}	
; 161  : 	else if( szType == "Rank_C" )

  00848	6a 04		 push	 4
  0084a	c7 45 ec bf 8d
	85 81		 mov	 DWORD PTR __t$517968[ebp], -2121953857 ; 81858dbfH
  00851	81 75 ec ed ec
	eb ea		 xor	 DWORD PTR __t$517968[ebp], -353637139 ; eaebecedH
  00858	66 c7 45 f0 b2
	af		 mov	 WORD PTR __t$517968[ebp+4], 44978 ; 0000afb2H
  0085e	88 5d f2	 mov	 BYTE PTR __t$517968[ebp+6], bl
  00861	58		 pop	 eax
$LL1677@AddRenderI:
  00862	8b c8		 mov	 ecx, eax
  00864	81 e1 03 00 00
	80		 and	 ecx, -2147483645	; 80000003H
  0086a	79 05		 jns	 SHORT $LN2177@AddRenderI
  0086c	49		 dec	 ecx
  0086d	83 c9 fc	 or	 ecx, -4			; fffffffcH
  00870	41		 inc	 ecx
$LN2177@AddRenderI:
  00871	b2 ed		 mov	 dl, -19			; ffffffedH
  00873	2a d1		 sub	 dl, cl
  00875	30 54 05 ec	 xor	 BYTE PTR __t$517968[ebp+eax], dl
  00879	40		 inc	 eax
  0087a	3b c7		 cmp	 eax, edi
  0087c	7c e4		 jl	 SHORT $LL1677@AddRenderI
  0087e	8b 4d dc	 mov	 ecx, DWORD PTR _szType$GSCopy$[ebp]
  00881	8d 75 ec	 lea	 esi, DWORD PTR __t$517968[ebp]
  00884	ff 15 00 00 00
	00		 call	 DWORD PTR __imp_?c_str@ioHashString@@QBEPBDXZ
$LL2146@AddRenderI:
  0088a	8a 08		 mov	 cl, BYTE PTR [eax]
  0088c	3a 0e		 cmp	 cl, BYTE PTR [esi]
  0088e	75 1a		 jne	 SHORT $LN2147@AddRenderI
  00890	3a cb		 cmp	 cl, bl
  00892	74 12		 je	 SHORT $LN2167@AddRenderI
  00894	8a 48 01	 mov	 cl, BYTE PTR [eax+1]
  00897	3a 4e 01	 cmp	 cl, BYTE PTR [esi+1]
  0089a	75 0e		 jne	 SHORT $LN2147@AddRenderI
  0089c	83 c0 02	 add	 eax, 2
  0089f	83 c6 02	 add	 esi, 2
  008a2	3a cb		 cmp	 cl, bl
  008a4	75 e4		 jne	 SHORT $LL2146@AddRenderI
$LN2167@AddRenderI:
  008a6	33 c0		 xor	 eax, eax
  008a8	eb 05		 jmp	 SHORT $LN2149@AddRenderI
$LN2147@AddRenderI:
  008aa	1b c0		 sbb	 eax, eax
  008ac	83 d8 ff	 sbb	 eax, -1
$LN2149@AddRenderI:
  008af	3b c3		 cmp	 eax, ebx
  008b1	75 28		 jne	 SHORT $LN2087@AddRenderI

; 162  : 	{
; 163  : 		SAFEDELETE( m_pRank[3] );

  008b3	8b 75 d8	 mov	 esi, DWORD PTR _this$GSCopy$[ebp]
  008b6	8b 8e d4 01 00
	00		 mov	 ecx, DWORD PTR [esi+468]
  008bc	3b cb		 cmp	 ecx, ebx
  008be	74 0d		 je	 SHORT $LN11@AddRenderI
  008c0	8b 01		 mov	 eax, DWORD PTR [ecx]
  008c2	6a 01		 push	 1
  008c4	ff 50 40	 call	 DWORD PTR [eax+64]
  008c7	89 9e d4 01 00
	00		 mov	 DWORD PTR [esi+468], ebx
$LN11@AddRenderI:

; 164  : 		m_pRank[3] = pImage;

  008cd	8b 45 d4	 mov	 eax, DWORD PTR _pImage$GSCopy$[ebp]
  008d0	89 86 d4 01 00
	00		 mov	 DWORD PTR [esi+468], eax
  008d6	e9 b7 01 00 00	 jmp	 $LN1@AddRenderI
$LN2087@AddRenderI:

; 165  : 	}
; 166  : 	else if( szType == "Rank_Attack" )

  008db	6a 02		 push	 2
  008dd	c7 45 e8 bf 8d
	85 81		 mov	 DWORD PTR __t$518093[ebp], -2121953857 ; 81858dbfH
  008e4	c7 45 ec b2 ad
	9f 9e		 mov	 DWORD PTR __t$518093[ebp+4], -1633702478 ; 9e9fadb2H
  008eb	8d 45 e8	 lea	 eax, DWORD PTR __t$518093[ebp]
  008ee	c7 45 f0 8c 8f
	80 00		 mov	 DWORD PTR __t$518093[ebp+8], 8425356 ; 00808f8cH
  008f5	59		 pop	 ecx
  008f6	bf ed ec eb ea	 mov	 edi, -353637139		; eaebecedH
$LL1786@AddRenderI:
  008fb	31 38		 xor	 DWORD PTR [eax], edi
  008fd	83 c0 04	 add	 eax, 4
  00900	49		 dec	 ecx
  00901	75 f8		 jne	 SHORT $LL1786@AddRenderI
  00903	6a 08		 push	 8
  00905	58		 pop	 eax
$LL1783@AddRenderI:
  00906	8b c8		 mov	 ecx, eax
  00908	81 e1 03 00 00
	80		 and	 ecx, -2147483645	; 80000003H
  0090e	79 05		 jns	 SHORT $LN2178@AddRenderI
  00910	49		 dec	 ecx
  00911	83 c9 fc	 or	 ecx, -4			; fffffffcH
  00914	41		 inc	 ecx
$LN2178@AddRenderI:
  00915	b2 ed		 mov	 dl, -19			; ffffffedH
  00917	2a d1		 sub	 dl, cl
  00919	30 54 05 e8	 xor	 BYTE PTR __t$518093[ebp+eax], dl
  0091d	40		 inc	 eax
  0091e	83 f8 0b	 cmp	 eax, 11			; 0000000bH
  00921	7c e3		 jl	 SHORT $LL1783@AddRenderI
  00923	8b 4d dc	 mov	 ecx, DWORD PTR _szType$GSCopy$[ebp]
  00926	8d 75 e8	 lea	 esi, DWORD PTR __t$518093[ebp]
  00929	ff 15 00 00 00
	00		 call	 DWORD PTR __imp_?c_str@ioHashString@@QBEPBDXZ
$LL2150@AddRenderI:
  0092f	8a 08		 mov	 cl, BYTE PTR [eax]
  00931	3a 0e		 cmp	 cl, BYTE PTR [esi]
  00933	75 1a		 jne	 SHORT $LN2151@AddRenderI
  00935	3a cb		 cmp	 cl, bl
  00937	74 12		 je	 SHORT $LN2152@AddRenderI
  00939	8a 48 01	 mov	 cl, BYTE PTR [eax+1]
  0093c	3a 4e 01	 cmp	 cl, BYTE PTR [esi+1]
  0093f	75 0e		 jne	 SHORT $LN2151@AddRenderI
  00941	83 c0 02	 add	 eax, 2
  00944	83 c6 02	 add	 esi, 2
  00947	3a cb		 cmp	 cl, bl
  00949	75 e4		 jne	 SHORT $LL2150@AddRenderI
$LN2152@AddRenderI:
  0094b	33 c0		 xor	 eax, eax
  0094d	eb 05		 jmp	 SHORT $LN2153@AddRenderI
$LN2151@AddRenderI:
  0094f	1b c0		 sbb	 eax, eax
  00951	83 d8 ff	 sbb	 eax, -1
$LN2153@AddRenderI:
  00954	3b c3		 cmp	 eax, ebx
  00956	75 28		 jne	 SHORT $LN2088@AddRenderI

; 167  : 	{
; 168  : 		SAFEDELETE(m_pNpcKillPts);

  00958	8b 75 d8	 mov	 esi, DWORD PTR _this$GSCopy$[ebp]
  0095b	8b 8e a8 01 00
	00		 mov	 ecx, DWORD PTR [esi+424]
  00961	3b cb		 cmp	 ecx, ebx
  00963	74 0d		 je	 SHORT $LN8@AddRenderI
  00965	8b 01		 mov	 eax, DWORD PTR [ecx]
  00967	6a 01		 push	 1
  00969	ff 50 40	 call	 DWORD PTR [eax+64]
  0096c	89 9e a8 01 00
	00		 mov	 DWORD PTR [esi+424], ebx
$LN8@AddRenderI:

; 169  : 		m_pNpcKillPts = pImage;

  00972	8b 45 d4	 mov	 eax, DWORD PTR _pImage$GSCopy$[ebp]
  00975	89 86 a8 01 00
	00		 mov	 DWORD PTR [esi+424], eax
  0097b	e9 12 01 00 00	 jmp	 $LN1@AddRenderI
$LN2088@AddRenderI:

; 170  : 	}
; 171  : 	else if( szType == "Rank_Defense" )

  00980	6a 03		 push	 3
  00982	c7 45 e8 bf 8d
	85 81		 mov	 DWORD PTR __t$518231[ebp], -2121953857 ; 81858dbfH
  00989	c7 45 ec b2 a8
	8e 8c		 mov	 DWORD PTR __t$518231[ebp+4], -1936807758 ; 8c8ea8b2H
  00990	c7 45 f0 88 82
	98 8f		 mov	 DWORD PTR __t$518231[ebp+8], -1885830520 ; 8f988288H
  00997	8d 45 e8	 lea	 eax, DWORD PTR __t$518231[ebp]
  0099a	88 5d f4	 mov	 BYTE PTR __t$518231[ebp+12], bl
  0099d	59		 pop	 ecx
$LL1892@AddRenderI:
  0099e	31 38		 xor	 DWORD PTR [eax], edi
  009a0	83 c0 04	 add	 eax, 4
  009a3	49		 dec	 ecx
  009a4	75 f8		 jne	 SHORT $LL1892@AddRenderI
  009a6	8b 4d dc	 mov	 ecx, DWORD PTR _szType$GSCopy$[ebp]
  009a9	8d 75 e8	 lea	 esi, DWORD PTR __t$518231[ebp]
  009ac	ff 15 00 00 00
	00		 call	 DWORD PTR __imp_?c_str@ioHashString@@QBEPBDXZ
$LL2154@AddRenderI:
  009b2	8a 08		 mov	 cl, BYTE PTR [eax]
  009b4	3a 0e		 cmp	 cl, BYTE PTR [esi]
  009b6	75 1a		 jne	 SHORT $LN2155@AddRenderI
  009b8	3a cb		 cmp	 cl, bl
  009ba	74 12		 je	 SHORT $LN2168@AddRenderI
  009bc	8a 48 01	 mov	 cl, BYTE PTR [eax+1]
  009bf	3a 4e 01	 cmp	 cl, BYTE PTR [esi+1]
  009c2	75 0e		 jne	 SHORT $LN2155@AddRenderI
  009c4	83 c0 02	 add	 eax, 2
  009c7	83 c6 02	 add	 esi, 2
  009ca	3a cb		 cmp	 cl, bl
  009cc	75 e4		 jne	 SHORT $LL2154@AddRenderI
$LN2168@AddRenderI:
  009ce	33 c0		 xor	 eax, eax
  009d0	eb 05		 jmp	 SHORT $LN2157@AddRenderI
$LN2155@AddRenderI:
  009d2	1b c0		 sbb	 eax, eax
  009d4	83 d8 ff	 sbb	 eax, -1
$LN2157@AddRenderI:
  009d7	3b c3		 cmp	 eax, ebx
  009d9	75 28		 jne	 SHORT $LN2089@AddRenderI

; 172  : 	{
; 173  : 		SAFEDELETE(m_pNpcTowerPts);

  009db	8b 75 d8	 mov	 esi, DWORD PTR _this$GSCopy$[ebp]
  009de	8b 8e ac 01 00
	00		 mov	 ecx, DWORD PTR [esi+428]
  009e4	3b cb		 cmp	 ecx, ebx
  009e6	74 0d		 je	 SHORT $LN5@AddRenderI
  009e8	8b 01		 mov	 eax, DWORD PTR [ecx]
  009ea	6a 01		 push	 1
  009ec	ff 50 40	 call	 DWORD PTR [eax+64]
  009ef	89 9e ac 01 00
	00		 mov	 DWORD PTR [esi+428], ebx
$LN5@AddRenderI:

; 174  : 		m_pNpcTowerPts = pImage;

  009f5	8b 45 d4	 mov	 eax, DWORD PTR _pImage$GSCopy$[ebp]
  009f8	89 86 ac 01 00
	00		 mov	 DWORD PTR [esi+428], eax
  009fe	e9 8f 00 00 00	 jmp	 $LN1@AddRenderI
$LN2089@AddRenderI:

; 175  : 	}
; 176  : 	else if( szType == "Rank_Time" )

  00a03	6a 02		 push	 2
  00a05	c7 45 e8 bf 8d
	85 81		 mov	 DWORD PTR __t$518356[ebp], -2121953857 ; 81858dbfH
  00a0c	c7 45 ec b2 b8
	82 87		 mov	 DWORD PTR __t$518356[ebp+4], -2021476174 ; 8782b8b2H
  00a13	8d 45 e8	 lea	 eax, DWORD PTR __t$518356[ebp]
  00a16	66 c7 45 f0 88
	00		 mov	 WORD PTR __t$518356[ebp+8], 136 ; 00000088H
  00a1c	59		 pop	 ecx
$LL1998@AddRenderI:
  00a1d	31 38		 xor	 DWORD PTR [eax], edi
  00a1f	83 c0 04	 add	 eax, 4
  00a22	49		 dec	 ecx
  00a23	75 f8		 jne	 SHORT $LL1998@AddRenderI
  00a25	8b 4d dc	 mov	 ecx, DWORD PTR _szType$GSCopy$[ebp]
  00a28	80 75 f0 ed	 xor	 BYTE PTR __t$518356[ebp+8], -19 ; ffffffedH
  00a2c	8d 75 e8	 lea	 esi, DWORD PTR __t$518356[ebp]
  00a2f	ff 15 00 00 00
	00		 call	 DWORD PTR __imp_?c_str@ioHashString@@QBEPBDXZ
$LL2158@AddRenderI:
  00a35	8a 08		 mov	 cl, BYTE PTR [eax]
  00a37	3a 0e		 cmp	 cl, BYTE PTR [esi]
  00a39	75 1a		 jne	 SHORT $LN2159@AddRenderI
  00a3b	3a cb		 cmp	 cl, bl
  00a3d	74 12		 je	 SHORT $LN2160@AddRenderI
  00a3f	8a 48 01	 mov	 cl, BYTE PTR [eax+1]
  00a42	3a 4e 01	 cmp	 cl, BYTE PTR [esi+1]
  00a45	75 0e		 jne	 SHORT $LN2159@AddRenderI
  00a47	83 c0 02	 add	 eax, 2
  00a4a	83 c6 02	 add	 esi, 2
  00a4d	3a cb		 cmp	 cl, bl
  00a4f	75 e4		 jne	 SHORT $LL2158@AddRenderI
$LN2160@AddRenderI:
  00a51	33 c0		 xor	 eax, eax
  00a53	eb 05		 jmp	 SHORT $LN2161@AddRenderI
$LN2159@AddRenderI:
  00a55	1b c0		 sbb	 eax, eax
  00a57	83 d8 ff	 sbb	 eax, -1
$LN2161@AddRenderI:
  00a5a	3b c3		 cmp	 eax, ebx
  00a5c	75 25		 jne	 SHORT $LN3@AddRenderI

; 177  : 	{
; 178  : 		SAFEDELETE(m_pTimePts);

  00a5e	8b 75 d8	 mov	 esi, DWORD PTR _this$GSCopy$[ebp]
  00a61	8b 8e b0 01 00
	00		 mov	 ecx, DWORD PTR [esi+432]
  00a67	3b cb		 cmp	 ecx, ebx
  00a69	74 0d		 je	 SHORT $LN2@AddRenderI
  00a6b	8b 01		 mov	 eax, DWORD PTR [ecx]
  00a6d	6a 01		 push	 1
  00a6f	ff 50 40	 call	 DWORD PTR [eax+64]
  00a72	89 9e b0 01 00
	00		 mov	 DWORD PTR [esi+432], ebx
$LN2@AddRenderI:

; 179  : 		m_pTimePts = pImage;

  00a78	8b 45 d4	 mov	 eax, DWORD PTR _pImage$GSCopy$[ebp]
  00a7b	89 86 b0 01 00
	00		 mov	 DWORD PTR [esi+432], eax

; 180  : 	}
; 181  : 	else

  00a81	eb 0f		 jmp	 SHORT $LN1@AddRenderI
$LN3@AddRenderI:

; 182  : 	{
; 183  : 		ioWnd::AddRenderImage( szType, pImage );

  00a83	ff 75 d4	 push	 DWORD PTR _pImage$GSCopy$[ebp]
  00a86	8b 4d d8	 mov	 ecx, DWORD PTR _this$GSCopy$[ebp]
  00a89	ff 75 dc	 push	 DWORD PTR _szType$GSCopy$[ebp]
  00a8c	ff 15 00 00 00
	00		 call	 DWORD PTR __imp_?AddRenderImage@ioWnd@@UAEXABVioHashString@@PAVioUIRenderImage@@@Z
$LN1@AddRenderI:

; 184  : 	}
; 185  : }

  00a92	8b 4d fc	 mov	 ecx, DWORD PTR __$ArrayPad$[ebp]
  00a95	5f		 pop	 edi
  00a96	5e		 pop	 esi
  00a97	33 cd		 xor	 ecx, ebp
  00a99	5b		 pop	 ebx
  00a9a	e8 00 00 00 00	 call	 @__security_check_cookie@4
  00a9f	c9		 leave
  00aa0	c2 08 00	 ret	 8
?AddRenderImage@ModeRankWnd@@UAEXABVioHashString@@PAVioUIRenderImage@@@Z ENDP ; ModeRankWnd::AddRenderImage
_TEXT	ENDS
END
