; Listing generated by Microsoft (R) Optimizing Compiler Version 16.00.30319.01 

	TITLE	D:\Lost Saga For Developer\Youtube\Tutorial\Source\src\LSClient\GUI\NamedTitleResultWnd.cpp
	.686P
	.XMM
	include listing.inc
	.model	flat

INCLUDELIB MSVCRT
INCLUDELIB OLDNAMES

PUBLIC	??_7NamedTitleResultWnd@@6B@			; NamedTitleResultWnd::`vftable'
PUBLIC	??0NamedTitleResultWnd@@QAE@XZ			; NamedTitleResultWnd::NamedTitleResultWnd
PUBLIC	??_R4NamedTitleResultWnd@@6B@			; NamedTitleResultWnd::`RTTI Complete Object Locator'
PUBLIC	??_R0?AVNamedTitleResultWnd@@@8			; NamedTitleResultWnd `RTTI Type Descriptor'
PUBLIC	??_R3NamedTitleResultWnd@@8			; NamedTitleResultWnd::`RTTI Class Hierarchy Descriptor'
PUBLIC	??_R2NamedTitleResultWnd@@8			; NamedTitleResultWnd::`RTTI Base Class Array'
PUBLIC	??_R1A@?0A@EA@NamedTitleResultWnd@@8		; NamedTitleResultWnd::`RTTI Base Class Descriptor at (0,-1,0,64)'
PUBLIC	??_R1A@?0A@EA@ioWnd@@8				; ioWnd::`RTTI Base Class Descriptor at (0,-1,0,64)'
PUBLIC	??_R0?AVioWnd@@@8				; ioWnd `RTTI Type Descriptor'
PUBLIC	??_R3ioWnd@@8					; ioWnd::`RTTI Class Hierarchy Descriptor'
PUBLIC	??_R2ioWnd@@8					; ioWnd::`RTTI Base Class Array'
PUBLIC	?AddRenderImage@NamedTitleResultWnd@@UAEXABVioHashString@@PAVioUIRenderImage@@@Z ; NamedTitleResultWnd::AddRenderImage
PUBLIC	?OnRender@NamedTitleResultWnd@@MAEXXZ		; NamedTitleResultWnd::OnRender
PUBLIC	?iwm_command@NamedTitleResultWnd@@UAEXPAVioWnd@@HK@Z ; NamedTitleResultWnd::iwm_command
EXTRN	??_M@YGXPAXIHP6EX0@Z@Z:PROC			; `eh vector destructor iterator'
EXTRN	__imp_??1ioWnd@@UAE@XZ:PROC
EXTRN	?ClearList@ioComplexStringPrinter@@QAEXXZ:PROC	; ioComplexStringPrinter::ClearList
EXTRN	??_L@YGXPAXIHP6EX0@Z1@Z:PROC			; `eh vector constructor iterator'
EXTRN	??0ioComplexStringPrinter@@QAE@XZ:PROC		; ioComplexStringPrinter::ioComplexStringPrinter
EXTRN	??1ioComplexStringPrinter@@QAE@XZ:PROC		; ioComplexStringPrinter::~ioComplexStringPrinter
EXTRN	__imp_??0ioWnd@@QAE@XZ:PROC
EXTRN	___CxxFrameHandler3:PROC
EXTRN	@__security_check_cookie@4:PROC
EXTRN	__EH_epilog3:PROC
EXTRN	__EH_prolog3:PROC
EXTRN	??_7type_info@@6B@:QWORD			; type_info::`vftable'
EXTRN	?AddRenderFrame@ioWnd@@UAEXABVioHashString@@PAVioUIRenderFrame@@@Z:PROC ; ioWnd::AddRenderFrame
EXTRN	?AddTooltipHelp@ioWnd@@UAEXABVioHashString@@00@Z:PROC ; ioWnd::AddTooltipHelp
EXTRN	?ParseExtraInfo@ioWnd@@UAEXAAVioXMLElement@@@Z:PROC ; ioWnd::ParseExtraInfo
EXTRN	?AddNamedRenderImage@ioWnd@@UAEXABVioHashString@@PAVioUIRenderImage@@@Z:PROC ; ioWnd::AddNamedRenderImage
EXTRN	?RemoveNamedRenderImage@ioWnd@@UAEXABVioHashString@@@Z:PROC ; ioWnd::RemoveNamedRenderImage
EXTRN	?GetNamedRenderImage@ioWnd@@UBEPAVioUIRenderImage@@ABVioHashString@@@Z:PROC ; ioWnd::GetNamedRenderImage
EXTRN	?SetWindowAlpha@ioWnd@@UAEXH@Z:PROC		; ioWnd::SetWindowAlpha
EXTRN	?SetActive@ioWnd@@UAEXXZ:PROC			; ioWnd::SetActive
EXTRN	?SetInActive@ioWnd@@UAEXXZ:PROC			; ioWnd::SetInActive
EXTRN	?ClearElementImageList@ioWnd@@UAEXXZ:PROC	; ioWnd::ClearElementImageList
EXTRN	?SetSize@ioWnd@@UAEXHH@Z:PROC			; ioWnd::SetSize
EXTRN	?SetPositionToDefault@ioWnd@@UAEXHH_N0@Z:PROC	; ioWnd::SetPositionToDefault
EXTRN	?IsNeedProcess@ioWnd@@UBE_NXZ:PROC		; ioWnd::IsNeedProcess
EXTRN	?IsCanMouseReaction@ioWnd@@UBE_NXZ:PROC		; ioWnd::IsCanMouseReaction
EXTRN	?AddChild@ioWnd@@UAEXPAV1@@Z:PROC		; ioWnd::AddChild
EXTRN	?DeleteChild@ioWnd@@UAEXK@Z:PROC		; ioWnd::DeleteChild
EXTRN	?DeleteAllChild@ioWnd@@UAEXXZ:PROC		; ioWnd::DeleteAllChild
EXTRN	?OnRenderShowAndHide@ioWnd@@MAE_NXZ:PROC	; ioWnd::OnRenderShowAndHide
EXTRN	?OnRenderShowAndHideByDefault@ioWnd@@MAE_NK@Z:PROC ; ioWnd::OnRenderShowAndHideByDefault
EXTRN	?OnRenderShowAndHideByTop@ioWnd@@MAE_NK@Z:PROC	; ioWnd::OnRenderShowAndHideByTop
EXTRN	?OnRenderShowAndHideByDown@ioWnd@@MAE_NK@Z:PROC	; ioWnd::OnRenderShowAndHideByDown
EXTRN	?OnRenderAfterChild@ioWnd@@MAEXXZ:PROC		; ioWnd::OnRenderAfterChild
EXTRN	?OnProcess@ioWnd@@MAEXM@Z:PROC			; ioWnd::OnProcess
EXTRN	?OnMouseProcess@ioWnd@@MAEXABVioMouse@@@Z:PROC	; ioWnd::OnMouseProcess
EXTRN	?CheckFrameReSize@ioWnd@@MAEXHHHH@Z:PROC	; ioWnd::CheckFrameReSize
EXTRN	?RenderImageList@ioWnd@@MAEXHHW4UIRenderType@@@Z:PROC ; ioWnd::RenderImageList
EXTRN	?iwm_create@ioWnd@@UAEXXZ:PROC			; ioWnd::iwm_create
EXTRN	?iwm_destroy@ioWnd@@UAEXXZ:PROC			; ioWnd::iwm_destroy
EXTRN	?iwm_lbuttondown@ioWnd@@UAEXABVioMouse@@@Z:PROC	; ioWnd::iwm_lbuttondown
EXTRN	?iwm_lbuttonup@ioWnd@@UAEXABVioMouse@@@Z:PROC	; ioWnd::iwm_lbuttonup
EXTRN	?iwm_lbuttonDBLCLK@ioWnd@@UAEXABVioMouse@@@Z:PROC ; ioWnd::iwm_lbuttonDBLCLK
EXTRN	?iwm_rbuttondown@ioWnd@@UAEXABVioMouse@@@Z:PROC	; ioWnd::iwm_rbuttondown
EXTRN	?iwm_rbuttonup@ioWnd@@UAEXABVioMouse@@@Z:PROC	; ioWnd::iwm_rbuttonup
EXTRN	?iwm_mouseover@ioWnd@@UAEXABVioMouse@@@Z:PROC	; ioWnd::iwm_mouseover
EXTRN	?iwm_mousemove@ioWnd@@UAEXABVioMouse@@@Z:PROC	; ioWnd::iwm_mousemove
EXTRN	?iwm_mouseleave@ioWnd@@UAEXABVioMouse@@@Z:PROC	; ioWnd::iwm_mouseleave
EXTRN	?iwm_vscroll@ioWnd@@UAEXKH@Z:PROC		; ioWnd::iwm_vscroll
EXTRN	?iwm_wheel@ioWnd@@UAEXH@Z:PROC			; ioWnd::iwm_wheel
EXTRN	?iwm_show@ioWnd@@UAEXXZ:PROC			; ioWnd::iwm_show
EXTRN	?iwm_hide@ioWnd@@UAEXXZ:PROC			; ioWnd::iwm_hide
EXTRN	?iwm_esc@ioWnd@@UAE_NXZ:PROC			; ioWnd::iwm_esc
EXTRN	?iwm_spacebar@ioWnd@@UAE_NXZ:PROC		; ioWnd::iwm_spacebar
EXTRN	?iwm_gototop@ioWnd@@UAEXXZ:PROC			; ioWnd::iwm_gototop
EXTRN	?iwm_dragenter@ioWnd@@UAE?AW4IWDropEffect@@PAVioDragItem@@ABVioMouse@@@Z:PROC ; ioWnd::iwm_dragenter
EXTRN	?iwm_dragover@ioWnd@@UAE?AW4IWDropEffect@@PAVioDragItem@@ABVioMouse@@@Z:PROC ; ioWnd::iwm_dragover
EXTRN	?iwm_dragleave@ioWnd@@UAEXXZ:PROC		; ioWnd::iwm_dragleave
EXTRN	?iwm_dropitem@ioWnd@@UAE_NPAVioDragItem@@ABVioMouse@@PAV1@@Z:PROC ; ioWnd::iwm_dropitem
EXTRN	?iwm_dropdone@ioWnd@@UAEXPAVioDragItem@@PAV1@_N@Z:PROC ; ioWnd::iwm_dropdone
EXTRN	?IsEXType@ioWnd@@UBE_NXZ:PROC			; ioWnd::IsEXType
EXTRN	?GetWndType@ioWnd@@UBEKXZ:PROC			; ioWnd::GetWndType
EXTRN	?RenderWnd@ioWnd@@UAEXXZ:PROC			; ioWnd::RenderWnd
EXTRN	?SetIDEX@ioWnd@@UAEXAAK_N@Z:PROC		; ioWnd::SetIDEX
EXTRN	?ParseXML@ioWnd@@UAEXAAVioXMLElement@@@Z:PROC	; ioWnd::ParseXML
EXTRN	?GetHeaderFileName@ioWnd@@UAEPBDXZ:PROC		; ioWnd::GetHeaderFileName
EXTRN	?GetTemplateName@ioWnd@@UAEPBDXZ:PROC		; ioWnd::GetTemplateName
EXTRN	?GetDefClassName@ioWnd@@UBEPBDXZ:PROC		; ioWnd::GetDefClassName
EXTRN	?_Clone@ioWnd@@UAEPAV1@XZ:PROC			; ioWnd::_Clone
EXTRN	?Copy@ioWnd@@UAEXPAV1@@Z:PROC			; ioWnd::Copy
EXTRN	?Save@ioWnd@@UAE_NAAVioXMLElement@@@Z:PROC	; ioWnd::Save
EXTRN	?SetSaveData@ioWnd@@UAEXAAVioXMLElement@@@Z:PROC ; ioWnd::SetSaveData
EXTRN	?SetPosX@ioWnd@@UAEXH@Z:PROC			; ioWnd::SetPosX
EXTRN	?SetPosY@ioWnd@@UAEXH@Z:PROC			; ioWnd::SetPosY
EXTRN	?SetWidth@ioWnd@@UAEXH@Z:PROC			; ioWnd::SetWidth
EXTRN	?SetHeight@ioWnd@@UAEXH@Z:PROC			; ioWnd::SetHeight
EXTRN	?GetNumFixedRenderFrame@ioWnd@@UBEHXZ:PROC	; ioWnd::GetNumFixedRenderFrame
EXTRN	?GetFixedRenderFrameType@ioWnd@@UAEPBDH@Z:PROC	; ioWnd::GetFixedRenderFrameType
EXTRN	?GetRenderFrame@ioWnd@@UAEPAPAVioUIRenderElement@@PBD@Z:PROC ; ioWnd::GetRenderFrame
EXTRN	?GetNumFixedRenderImage@ioWnd@@UBEHXZ:PROC	; ioWnd::GetNumFixedRenderImage
EXTRN	?GetFixedRenderImageType@ioWnd@@UAEPBDH@Z:PROC	; ioWnd::GetFixedRenderImageType
EXTRN	?GetRenderImage@ioWnd@@UAEPAPAVioUIRenderElement@@PBD@Z:PROC ; ioWnd::GetRenderImage
EXTRN	?AddEffect@ioWnd@@UAEXABVioHashString@@PAVioUI3DEffectRender@@@Z:PROC ; ioWnd::AddEffect
EXTRN	?GetEffect@ioWnd@@UAEPAVioUI3DEffectRender@@VioHashString@@@Z:PROC ; ioWnd::GetEffect
EXTRN	??_ENamedTitleResultWnd@@UAEPAXI@Z:PROC		; NamedTitleResultWnd::`vector deleting destructor'
;	COMDAT ??_R2ioWnd@@8
; File d:\lost saga for developer\youtube\tutorial\source\src\lsclient\gui\namedtitleresultwnd.cpp
rdata$r	SEGMENT
??_R2ioWnd@@8 DD FLAT:??_R1A@?0A@EA@ioWnd@@8		; ioWnd::`RTTI Base Class Array'
rdata$r	ENDS
;	COMDAT ??_R3ioWnd@@8
rdata$r	SEGMENT
??_R3ioWnd@@8 DD 00H					; ioWnd::`RTTI Class Hierarchy Descriptor'
	DD	00H
	DD	01H
	DD	FLAT:??_R2ioWnd@@8
rdata$r	ENDS
;	COMDAT ??_R0?AVioWnd@@@8
_DATA	SEGMENT
??_R0?AVioWnd@@@8 DD FLAT:??_7type_info@@6B@		; ioWnd `RTTI Type Descriptor'
	DD	00H
	DB	'.?AVioWnd@@', 00H
_DATA	ENDS
;	COMDAT ??_R1A@?0A@EA@ioWnd@@8
rdata$r	SEGMENT
??_R1A@?0A@EA@ioWnd@@8 DD FLAT:??_R0?AVioWnd@@@8	; ioWnd::`RTTI Base Class Descriptor at (0,-1,0,64)'
	DD	00H
	DD	00H
	DD	0ffffffffH
	DD	00H
	DD	040H
	DD	FLAT:??_R3ioWnd@@8
rdata$r	ENDS
;	COMDAT ??_R1A@?0A@EA@NamedTitleResultWnd@@8
rdata$r	SEGMENT
??_R1A@?0A@EA@NamedTitleResultWnd@@8 DD FLAT:??_R0?AVNamedTitleResultWnd@@@8 ; NamedTitleResultWnd::`RTTI Base Class Descriptor at (0,-1,0,64)'
	DD	01H
	DD	00H
	DD	0ffffffffH
	DD	00H
	DD	040H
	DD	FLAT:??_R3NamedTitleResultWnd@@8
rdata$r	ENDS
;	COMDAT ??_R2NamedTitleResultWnd@@8
rdata$r	SEGMENT
??_R2NamedTitleResultWnd@@8 DD FLAT:??_R1A@?0A@EA@NamedTitleResultWnd@@8 ; NamedTitleResultWnd::`RTTI Base Class Array'
	DD	FLAT:??_R1A@?0A@EA@ioWnd@@8
rdata$r	ENDS
;	COMDAT ??_R3NamedTitleResultWnd@@8
rdata$r	SEGMENT
??_R3NamedTitleResultWnd@@8 DD 00H			; NamedTitleResultWnd::`RTTI Class Hierarchy Descriptor'
	DD	00H
	DD	02H
	DD	FLAT:??_R2NamedTitleResultWnd@@8
rdata$r	ENDS
;	COMDAT ??_R0?AVNamedTitleResultWnd@@@8
_DATA	SEGMENT
??_R0?AVNamedTitleResultWnd@@@8 DD FLAT:??_7type_info@@6B@ ; NamedTitleResultWnd `RTTI Type Descriptor'
	DD	00H
	DB	'.?AVNamedTitleResultWnd@@', 00H
_DATA	ENDS
;	COMDAT ??_R4NamedTitleResultWnd@@6B@
rdata$r	SEGMENT
??_R4NamedTitleResultWnd@@6B@ DD 00H			; NamedTitleResultWnd::`RTTI Complete Object Locator'
	DD	00H
	DD	00H
	DD	FLAT:??_R0?AVNamedTitleResultWnd@@@8
	DD	FLAT:??_R3NamedTitleResultWnd@@8
rdata$r	ENDS
;	COMDAT ??_7NamedTitleResultWnd@@6B@
CONST	SEGMENT
??_7NamedTitleResultWnd@@6B@ DD FLAT:??_R4NamedTitleResultWnd@@6B@ ; NamedTitleResultWnd::`vftable'
	DD	FLAT:?AddRenderFrame@ioWnd@@UAEXABVioHashString@@PAVioUIRenderFrame@@@Z
	DD	FLAT:?AddRenderImage@NamedTitleResultWnd@@UAEXABVioHashString@@PAVioUIRenderImage@@@Z
	DD	FLAT:?AddTooltipHelp@ioWnd@@UAEXABVioHashString@@00@Z
	DD	FLAT:?ParseExtraInfo@ioWnd@@UAEXAAVioXMLElement@@@Z
	DD	FLAT:?AddNamedRenderImage@ioWnd@@UAEXABVioHashString@@PAVioUIRenderImage@@@Z
	DD	FLAT:?RemoveNamedRenderImage@ioWnd@@UAEXABVioHashString@@@Z
	DD	FLAT:?GetNamedRenderImage@ioWnd@@UBEPAVioUIRenderImage@@ABVioHashString@@@Z
	DD	FLAT:?SetWindowAlpha@ioWnd@@UAEXH@Z
	DD	FLAT:?SetActive@ioWnd@@UAEXXZ
	DD	FLAT:?SetInActive@ioWnd@@UAEXXZ
	DD	FLAT:?ClearElementImageList@ioWnd@@UAEXXZ
	DD	FLAT:?SetSize@ioWnd@@UAEXHH@Z
	DD	FLAT:?SetPositionToDefault@ioWnd@@UAEXHH_N0@Z
	DD	FLAT:?IsNeedProcess@ioWnd@@UBE_NXZ
	DD	FLAT:?IsCanMouseReaction@ioWnd@@UBE_NXZ
	DD	FLAT:?AddChild@ioWnd@@UAEXPAV1@@Z
	DD	FLAT:?DeleteChild@ioWnd@@UAEXK@Z
	DD	FLAT:?DeleteAllChild@ioWnd@@UAEXXZ
	DD	FLAT:?OnRenderShowAndHide@ioWnd@@MAE_NXZ
	DD	FLAT:?OnRenderShowAndHideByDefault@ioWnd@@MAE_NK@Z
	DD	FLAT:?OnRenderShowAndHideByTop@ioWnd@@MAE_NK@Z
	DD	FLAT:?OnRenderShowAndHideByDown@ioWnd@@MAE_NK@Z
	DD	FLAT:?OnRender@NamedTitleResultWnd@@MAEXXZ
	DD	FLAT:?OnRenderAfterChild@ioWnd@@MAEXXZ
	DD	FLAT:?OnProcess@ioWnd@@MAEXM@Z
	DD	FLAT:?OnMouseProcess@ioWnd@@MAEXABVioMouse@@@Z
	DD	FLAT:?CheckFrameReSize@ioWnd@@MAEXHHHH@Z
	DD	FLAT:?RenderImageList@ioWnd@@MAEXHHW4UIRenderType@@@Z
	DD	FLAT:?iwm_create@ioWnd@@UAEXXZ
	DD	FLAT:?iwm_destroy@ioWnd@@UAEXXZ
	DD	FLAT:?iwm_lbuttondown@ioWnd@@UAEXABVioMouse@@@Z
	DD	FLAT:?iwm_lbuttonup@ioWnd@@UAEXABVioMouse@@@Z
	DD	FLAT:?iwm_lbuttonDBLCLK@ioWnd@@UAEXABVioMouse@@@Z
	DD	FLAT:?iwm_rbuttondown@ioWnd@@UAEXABVioMouse@@@Z
	DD	FLAT:?iwm_rbuttonup@ioWnd@@UAEXABVioMouse@@@Z
	DD	FLAT:?iwm_command@NamedTitleResultWnd@@UAEXPAVioWnd@@HK@Z
	DD	FLAT:?iwm_mouseover@ioWnd@@UAEXABVioMouse@@@Z
	DD	FLAT:?iwm_mousemove@ioWnd@@UAEXABVioMouse@@@Z
	DD	FLAT:?iwm_mouseleave@ioWnd@@UAEXABVioMouse@@@Z
	DD	FLAT:?iwm_vscroll@ioWnd@@UAEXKH@Z
	DD	FLAT:?iwm_wheel@ioWnd@@UAEXH@Z
	DD	FLAT:?iwm_show@ioWnd@@UAEXXZ
	DD	FLAT:?iwm_hide@ioWnd@@UAEXXZ
	DD	FLAT:?iwm_esc@ioWnd@@UAE_NXZ
	DD	FLAT:?iwm_spacebar@ioWnd@@UAE_NXZ
	DD	FLAT:?iwm_gototop@ioWnd@@UAEXXZ
	DD	FLAT:?iwm_dragenter@ioWnd@@UAE?AW4IWDropEffect@@PAVioDragItem@@ABVioMouse@@@Z
	DD	FLAT:?iwm_dragover@ioWnd@@UAE?AW4IWDropEffect@@PAVioDragItem@@ABVioMouse@@@Z
	DD	FLAT:?iwm_dragleave@ioWnd@@UAEXXZ
	DD	FLAT:?iwm_dropitem@ioWnd@@UAE_NPAVioDragItem@@ABVioMouse@@PAV1@@Z
	DD	FLAT:?iwm_dropdone@ioWnd@@UAEXPAVioDragItem@@PAV1@_N@Z
	DD	FLAT:?IsEXType@ioWnd@@UBE_NXZ
	DD	FLAT:?GetWndType@ioWnd@@UBEKXZ
	DD	FLAT:?RenderWnd@ioWnd@@UAEXXZ
	DD	FLAT:?SetIDEX@ioWnd@@UAEXAAK_N@Z
	DD	FLAT:?ParseXML@ioWnd@@UAEXAAVioXMLElement@@@Z
	DD	FLAT:?GetHeaderFileName@ioWnd@@UAEPBDXZ
	DD	FLAT:?GetTemplateName@ioWnd@@UAEPBDXZ
	DD	FLAT:?GetDefClassName@ioWnd@@UBEPBDXZ
	DD	FLAT:?_Clone@ioWnd@@UAEPAV1@XZ
	DD	FLAT:?Copy@ioWnd@@UAEXPAV1@@Z
	DD	FLAT:?Save@ioWnd@@UAE_NAAVioXMLElement@@@Z
	DD	FLAT:?SetSaveData@ioWnd@@UAEXAAVioXMLElement@@@Z
	DD	FLAT:?SetPosX@ioWnd@@UAEXH@Z
	DD	FLAT:?SetPosY@ioWnd@@UAEXH@Z
	DD	FLAT:?SetWidth@ioWnd@@UAEXH@Z
	DD	FLAT:?SetHeight@ioWnd@@UAEXH@Z
	DD	FLAT:?GetNumFixedRenderFrame@ioWnd@@UBEHXZ
	DD	FLAT:?GetFixedRenderFrameType@ioWnd@@UAEPBDH@Z
	DD	FLAT:?GetRenderFrame@ioWnd@@UAEPAPAVioUIRenderElement@@PBD@Z
	DD	FLAT:?GetNumFixedRenderImage@ioWnd@@UBEHXZ
	DD	FLAT:?GetFixedRenderImageType@ioWnd@@UAEPBDH@Z
	DD	FLAT:?GetRenderImage@ioWnd@@UAEPAPAVioUIRenderElement@@PBD@Z
	DD	FLAT:?AddEffect@ioWnd@@UAEXABVioHashString@@PAVioUI3DEffectRender@@@Z
	DD	FLAT:?GetEffect@ioWnd@@UAEPAVioUI3DEffectRender@@VioHashString@@@Z
	DD	FLAT:??_ENamedTitleResultWnd@@UAEPAXI@Z
CONST	ENDS
;	COMDAT xdata$x
xdata$x	SEGMENT
__unwindtable$??0NamedTitleResultWnd@@QAE@XZ DD 0ffffffffH
	DD	FLAT:__unwindfunclet$??0NamedTitleResultWnd@@QAE@XZ$0
	DD	00H
	DD	FLAT:__unwindfunclet$??0NamedTitleResultWnd@@QAE@XZ$1
__ehfuncinfo$??0NamedTitleResultWnd@@QAE@XZ DD 019930522H
	DD	02H
	DD	FLAT:__unwindtable$??0NamedTitleResultWnd@@QAE@XZ
	DD	2 DUP(00H)
	DD	2 DUP(00H)
	DD	00H
	DD	01H
; Function compile flags: /Ogsp
xdata$x	ENDS
;	COMDAT ??0NamedTitleResultWnd@@QAE@XZ
_TEXT	SEGMENT
_this$ = -16						; size = 4
__$EHRec$ = -12						; size = 12
??0NamedTitleResultWnd@@QAE@XZ PROC			; NamedTitleResultWnd::NamedTitleResultWnd, COMDAT
; _this$ = ecx

; 8    : {

  00000	6a 04		 push	 4
  00002	b8 00 00 00 00	 mov	 eax, __ehhandler$??0NamedTitleResultWnd@@QAE@XZ
  00007	e8 00 00 00 00	 call	 __EH_prolog3
  0000c	8b f1		 mov	 esi, ecx
  0000e	89 75 f0	 mov	 DWORD PTR _this$[ebp], esi
  00011	ff 15 00 00 00
	00		 call	 DWORD PTR __imp_??0ioWnd@@QAE@XZ
  00017	68 00 00 00 00	 push	 OFFSET ??1ioComplexStringPrinter@@QAE@XZ ; ioComplexStringPrinter::~ioComplexStringPrinter
  0001c	68 00 00 00 00	 push	 OFFSET ??0ioComplexStringPrinter@@QAE@XZ ; ioComplexStringPrinter::ioComplexStringPrinter
  00021	6a 0a		 push	 10			; 0000000aH
  00023	6a 20		 push	 32			; 00000020H
  00025	33 db		 xor	 ebx, ebx
  00027	8d be 68 01 00
	00		 lea	 edi, DWORD PTR [esi+360]
  0002d	57		 push	 edi
  0002e	89 5d fc	 mov	 DWORD PTR __$EHRec$[ebp+8], ebx
  00031	c7 06 00 00 00
	00		 mov	 DWORD PTR [esi], OFFSET ??_7NamedTitleResultWnd@@6B@
  00037	e8 00 00 00 00	 call	 ??_L@YGXPAXIHP6EX0@Z1@Z
  0003c	6a 0a		 push	 10			; 0000000aH

; 9    : 	m_pIcon = NULL;

  0003e	89 9e 60 01 00
	00		 mov	 DWORD PTR [esi+352], ebx

; 10   : 	m_pBackEffect = NULL;

  00044	89 9e 64 01 00
	00		 mov	 DWORD PTR [esi+356], ebx
  0004a	c6 45 fc 01	 mov	 BYTE PTR __$EHRec$[ebp+8], 1
  0004e	5b		 pop	 ebx
$LL3@NamedTitle:

; 11   : 	
; 12   : 	for ( int i=0; i<MAXLINE; i++ )
; 13   : 		m_Desc[i].ClearList();

  0004f	8b cf		 mov	 ecx, edi
  00051	e8 00 00 00 00	 call	 ?ClearList@ioComplexStringPrinter@@QAEXXZ ; ioComplexStringPrinter::ClearList
  00056	83 c7 20	 add	 edi, 32			; 00000020H
  00059	4b		 dec	 ebx
  0005a	75 f3		 jne	 SHORT $LL3@NamedTitle

; 14   : }

  0005c	8b c6		 mov	 eax, esi
  0005e	e8 00 00 00 00	 call	 __EH_epilog3
  00063	c3		 ret	 0
_TEXT	ENDS
;	COMDAT text$x
text$x	SEGMENT
__unwindfunclet$??0NamedTitleResultWnd@@QAE@XZ$0:
  00000	8b 4d f0	 mov	 ecx, DWORD PTR _this$[ebp]
  00003	ff 25 00 00 00
	00		 jmp	 DWORD PTR __imp_??1ioWnd@@UAE@XZ
__unwindfunclet$??0NamedTitleResultWnd@@QAE@XZ$1:
  00009	68 00 00 00 00	 push	 OFFSET ??1ioComplexStringPrinter@@QAE@XZ ; ioComplexStringPrinter::~ioComplexStringPrinter
  0000e	6a 0a		 push	 10			; 0000000aH
  00010	6a 20		 push	 32			; 00000020H
  00012	8b 45 f0	 mov	 eax, DWORD PTR _this$[ebp]
  00015	05 68 01 00 00	 add	 eax, 360		; 00000168H
  0001a	50		 push	 eax
  0001b	e8 00 00 00 00	 call	 ??_M@YGXPAXIHP6EX0@Z@Z
  00020	c3		 ret	 0
__ehhandler$??0NamedTitleResultWnd@@QAE@XZ:
  00021	8b 54 24 08	 mov	 edx, DWORD PTR [esp+8]
  00025	8d 42 0c	 lea	 eax, DWORD PTR [edx+12]
  00028	8b 4a ec	 mov	 ecx, DWORD PTR [edx-20]
  0002b	33 c8		 xor	 ecx, eax
  0002d	e8 00 00 00 00	 call	 @__security_check_cookie@4
  00032	b8 00 00 00 00	 mov	 eax, OFFSET __ehfuncinfo$??0NamedTitleResultWnd@@QAE@XZ
  00037	e9 00 00 00 00	 jmp	 ___CxxFrameHandler3
text$x	ENDS
??0NamedTitleResultWnd@@QAE@XZ ENDP			; NamedTitleResultWnd::NamedTitleResultWnd
PUBLIC	??1NamedTitleResultWnd@@UAE@XZ			; NamedTitleResultWnd::~NamedTitleResultWnd
;	COMDAT xdata$x
xdata$x	SEGMENT
__unwindtable$??1NamedTitleResultWnd@@UAE@XZ DD 0ffffffffH
	DD	FLAT:__unwindfunclet$??1NamedTitleResultWnd@@UAE@XZ$0
	DD	00H
	DD	FLAT:__unwindfunclet$??1NamedTitleResultWnd@@UAE@XZ$1
__ehfuncinfo$??1NamedTitleResultWnd@@UAE@XZ DD 019930522H
	DD	02H
	DD	FLAT:__unwindtable$??1NamedTitleResultWnd@@UAE@XZ
	DD	2 DUP(00H)
	DD	2 DUP(00H)
	DD	00H
	DD	01H
; Function compile flags: /Ogsp
xdata$x	ENDS
;	COMDAT ??1NamedTitleResultWnd@@UAE@XZ
_TEXT	SEGMENT
_this$ = -16						; size = 4
__$EHRec$ = -12						; size = 12
??1NamedTitleResultWnd@@UAE@XZ PROC			; NamedTitleResultWnd::~NamedTitleResultWnd, COMDAT
; _this$ = ecx

; 17   : {

  00000	6a 04		 push	 4
  00002	b8 00 00 00 00	 mov	 eax, __ehhandler$??1NamedTitleResultWnd@@UAE@XZ
  00007	e8 00 00 00 00	 call	 __EH_prolog3
  0000c	8b f1		 mov	 esi, ecx
  0000e	89 75 f0	 mov	 DWORD PTR _this$[ebp], esi
  00011	c7 06 00 00 00
	00		 mov	 DWORD PTR [esi], OFFSET ??_7NamedTitleResultWnd@@6B@

; 18   : 	SAFEDELETE(m_pIcon);

  00017	8b 8e 60 01 00
	00		 mov	 ecx, DWORD PTR [esi+352]
  0001d	c7 45 fc 01 00
	00 00		 mov	 DWORD PTR __$EHRec$[ebp+8], 1
  00024	85 c9		 test	 ecx, ecx
  00026	74 0e		 je	 SHORT $LN2@NamedTitle@2
  00028	8b 01		 mov	 eax, DWORD PTR [ecx]
  0002a	6a 01		 push	 1
  0002c	ff 50 40	 call	 DWORD PTR [eax+64]
  0002f	83 a6 60 01 00
	00 00		 and	 DWORD PTR [esi+352], 0
$LN2@NamedTitle@2:

; 19   : 	SAFEDELETE(m_pBackEffect);

  00036	8b 8e 64 01 00
	00		 mov	 ecx, DWORD PTR [esi+356]
  0003c	85 c9		 test	 ecx, ecx
  0003e	74 0e		 je	 SHORT $LN1@NamedTitle@2
  00040	8b 01		 mov	 eax, DWORD PTR [ecx]
  00042	6a 01		 push	 1
  00044	ff 50 40	 call	 DWORD PTR [eax+64]
  00047	83 a6 64 01 00
	00 00		 and	 DWORD PTR [esi+356], 0
$LN1@NamedTitle@2:

; 20   : }

  0004e	68 00 00 00 00	 push	 OFFSET ??1ioComplexStringPrinter@@QAE@XZ ; ioComplexStringPrinter::~ioComplexStringPrinter
  00053	6a 0a		 push	 10			; 0000000aH
  00055	6a 20		 push	 32			; 00000020H
  00057	8d 86 68 01 00
	00		 lea	 eax, DWORD PTR [esi+360]
  0005d	50		 push	 eax
  0005e	c6 45 fc 00	 mov	 BYTE PTR __$EHRec$[ebp+8], 0
  00062	e8 00 00 00 00	 call	 ??_M@YGXPAXIHP6EX0@Z@Z
  00067	83 4d fc ff	 or	 DWORD PTR __$EHRec$[ebp+8], -1
  0006b	8b ce		 mov	 ecx, esi
  0006d	ff 15 00 00 00
	00		 call	 DWORD PTR __imp_??1ioWnd@@UAE@XZ
  00073	e8 00 00 00 00	 call	 __EH_epilog3
  00078	c3		 ret	 0
_TEXT	ENDS
;	COMDAT text$x
text$x	SEGMENT
__unwindfunclet$??1NamedTitleResultWnd@@UAE@XZ$0:
  00000	8b 4d f0	 mov	 ecx, DWORD PTR _this$[ebp]
  00003	ff 25 00 00 00
	00		 jmp	 DWORD PTR __imp_??1ioWnd@@UAE@XZ
__unwindfunclet$??1NamedTitleResultWnd@@UAE@XZ$1:
  00009	68 00 00 00 00	 push	 OFFSET ??1ioComplexStringPrinter@@QAE@XZ ; ioComplexStringPrinter::~ioComplexStringPrinter
  0000e	6a 0a		 push	 10			; 0000000aH
  00010	6a 20		 push	 32			; 00000020H
  00012	8b 45 f0	 mov	 eax, DWORD PTR _this$[ebp]
  00015	05 68 01 00 00	 add	 eax, 360		; 00000168H
  0001a	50		 push	 eax
  0001b	e8 00 00 00 00	 call	 ??_M@YGXPAXIHP6EX0@Z@Z
  00020	c3		 ret	 0
__ehhandler$??1NamedTitleResultWnd@@UAE@XZ:
  00021	8b 54 24 08	 mov	 edx, DWORD PTR [esp+8]
  00025	8d 42 0c	 lea	 eax, DWORD PTR [edx+12]
  00028	8b 4a ec	 mov	 ecx, DWORD PTR [edx-20]
  0002b	33 c8		 xor	 ecx, eax
  0002d	e8 00 00 00 00	 call	 @__security_check_cookie@4
  00032	b8 00 00 00 00	 mov	 eax, OFFSET __ehfuncinfo$??1NamedTitleResultWnd@@UAE@XZ
  00037	e9 00 00 00 00	 jmp	 ___CxxFrameHandler3
text$x	ENDS
??1NamedTitleResultWnd@@UAE@XZ ENDP			; NamedTitleResultWnd::~NamedTitleResultWnd
PUBLIC	??_R0?AVNamedTitleSelectWnd@@@8			; NamedTitleSelectWnd `RTTI Type Descriptor'
EXTRN	?ShowSelectWnd@NamedTitleSelectWnd@@QAEXXZ:PROC	; NamedTitleSelectWnd::ShowSelectWnd
EXTRN	__imp_?FindWnd@ioGUIManager@@QAEPAVioWnd@@K@Z:PROC
EXTRN	?GetSingleton@ioSP2GUIManager@@SAAAV1@XZ:PROC	; ioSP2GUIManager::GetSingleton
EXTRN	__imp_?GetID@ioWnd@@QBEKXZ:PROC
EXTRN	___RTDynamicCast:PROC
;	COMDAT ??_R0?AVNamedTitleSelectWnd@@@8
_DATA	SEGMENT
??_R0?AVNamedTitleSelectWnd@@@8 DD FLAT:??_7type_info@@6B@ ; NamedTitleSelectWnd `RTTI Type Descriptor'
	DD	00H
	DB	'.?AVNamedTitleSelectWnd@@', 00H
; Function compile flags: /Ogsp
_DATA	ENDS
;	COMDAT ?iwm_command@NamedTitleResultWnd@@UAEXPAVioWnd@@HK@Z
_TEXT	SEGMENT
_pWnd$ = 8						; size = 4
_cmd$ = 12						; size = 4
_param$ = 16						; size = 4
?iwm_command@NamedTitleResultWnd@@UAEXPAVioWnd@@HK@Z PROC ; NamedTitleResultWnd::iwm_command, COMDAT
; _this$ = ecx

; 23   : {

  00000	55		 push	 ebp
  00001	8b ec		 mov	 ebp, esp

; 24   : 	DWORD dwID = pWnd->GetID();

  00003	8b 4d 08	 mov	 ecx, DWORD PTR _pWnd$[ebp]
  00006	ff 15 00 00 00
	00		 call	 DWORD PTR __imp_?GetID@ioWnd@@QBEKXZ

; 25   : 	switch( dwID )

  0000c	48		 dec	 eax
  0000d	75 38		 jne	 SHORT $LN1@iwm_comman

; 26   : 	{
; 27   : 	case ID_GO:
; 28   : 		if( cmd == IOBN_BTNUP )

  0000f	83 7d 0c 11	 cmp	 DWORD PTR _cmd$[ebp], 17 ; 00000011H
  00013	75 32		 jne	 SHORT $LN1@iwm_comman

; 29   : 		{
; 30   : 			NamedTitleSelectWnd *pWnd = dynamic_cast<NamedTitleSelectWnd*>( g_GUIMgr.FindWnd( NAMED_TITLE_SELECT_WND ) );

  00015	50		 push	 eax
  00016	68 00 00 00 00	 push	 OFFSET ??_R0?AVNamedTitleSelectWnd@@@8
  0001b	68 00 00 00 00	 push	 OFFSET ??_R0?AVioWnd@@@8
  00020	50		 push	 eax
  00021	68 93 18 00 00	 push	 6291			; 00001893H
  00026	e8 00 00 00 00	 call	 ?GetSingleton@ioSP2GUIManager@@SAAAV1@XZ ; ioSP2GUIManager::GetSingleton
  0002b	8b c8		 mov	 ecx, eax
  0002d	ff 15 00 00 00
	00		 call	 DWORD PTR __imp_?FindWnd@ioGUIManager@@QAEPAVioWnd@@K@Z
  00033	50		 push	 eax
  00034	e8 00 00 00 00	 call	 ___RTDynamicCast
  00039	83 c4 14	 add	 esp, 20			; 00000014H

; 31   : 			if( pWnd )

  0003c	85 c0		 test	 eax, eax
  0003e	74 07		 je	 SHORT $LN1@iwm_comman

; 32   : 				pWnd->ShowSelectWnd();

  00040	8b c8		 mov	 ecx, eax
  00042	e8 00 00 00 00	 call	 ?ShowSelectWnd@NamedTitleSelectWnd@@QAEXXZ ; NamedTitleSelectWnd::ShowSelectWnd
$LN1@iwm_comman:

; 33   : 		}
; 34   : 		break;
; 35   : 	}
; 36   : }

  00047	5d		 pop	 ebp
  00048	c2 0c 00	 ret	 12			; 0000000cH
?iwm_command@NamedTitleResultWnd@@UAEXPAVioWnd@@HK@Z ENDP ; NamedTitleResultWnd::iwm_command
_TEXT	ENDS
PUBLIC	??_7NamedTitlePremiumResultWnd@@6B@		; NamedTitlePremiumResultWnd::`vftable'
PUBLIC	??0NamedTitlePremiumResultWnd@@QAE@XZ		; NamedTitlePremiumResultWnd::NamedTitlePremiumResultWnd
PUBLIC	??_R4NamedTitlePremiumResultWnd@@6B@		; NamedTitlePremiumResultWnd::`RTTI Complete Object Locator'
PUBLIC	??_R0?AVNamedTitlePremiumResultWnd@@@8		; NamedTitlePremiumResultWnd `RTTI Type Descriptor'
PUBLIC	??_R3NamedTitlePremiumResultWnd@@8		; NamedTitlePremiumResultWnd::`RTTI Class Hierarchy Descriptor'
PUBLIC	??_R2NamedTitlePremiumResultWnd@@8		; NamedTitlePremiumResultWnd::`RTTI Base Class Array'
PUBLIC	??_R1A@?0A@EA@NamedTitlePremiumResultWnd@@8	; NamedTitlePremiumResultWnd::`RTTI Base Class Descriptor at (0,-1,0,64)'
PUBLIC	?AddRenderImage@NamedTitlePremiumResultWnd@@UAEXABVioHashString@@PAVioUIRenderImage@@@Z ; NamedTitlePremiumResultWnd::AddRenderImage
PUBLIC	?OnRender@NamedTitlePremiumResultWnd@@MAEXXZ	; NamedTitlePremiumResultWnd::OnRender
PUBLIC	?iwm_command@NamedTitlePremiumResultWnd@@UAEXPAVioWnd@@HK@Z ; NamedTitlePremiumResultWnd::iwm_command
EXTRN	??_ENamedTitlePremiumResultWnd@@UAEPAXI@Z:PROC	; NamedTitlePremiumResultWnd::`vector deleting destructor'
;	COMDAT ??_R1A@?0A@EA@NamedTitlePremiumResultWnd@@8
rdata$r	SEGMENT
??_R1A@?0A@EA@NamedTitlePremiumResultWnd@@8 DD FLAT:??_R0?AVNamedTitlePremiumResultWnd@@@8 ; NamedTitlePremiumResultWnd::`RTTI Base Class Descriptor at (0,-1,0,64)'
	DD	01H
	DD	00H
	DD	0ffffffffH
	DD	00H
	DD	040H
	DD	FLAT:??_R3NamedTitlePremiumResultWnd@@8
rdata$r	ENDS
;	COMDAT ??_R2NamedTitlePremiumResultWnd@@8
rdata$r	SEGMENT
??_R2NamedTitlePremiumResultWnd@@8 DD FLAT:??_R1A@?0A@EA@NamedTitlePremiumResultWnd@@8 ; NamedTitlePremiumResultWnd::`RTTI Base Class Array'
	DD	FLAT:??_R1A@?0A@EA@ioWnd@@8
rdata$r	ENDS
;	COMDAT ??_R3NamedTitlePremiumResultWnd@@8
rdata$r	SEGMENT
??_R3NamedTitlePremiumResultWnd@@8 DD 00H		; NamedTitlePremiumResultWnd::`RTTI Class Hierarchy Descriptor'
	DD	00H
	DD	02H
	DD	FLAT:??_R2NamedTitlePremiumResultWnd@@8
rdata$r	ENDS
;	COMDAT ??_R0?AVNamedTitlePremiumResultWnd@@@8
_DATA	SEGMENT
??_R0?AVNamedTitlePremiumResultWnd@@@8 DD FLAT:??_7type_info@@6B@ ; NamedTitlePremiumResultWnd `RTTI Type Descriptor'
	DD	00H
	DB	'.?AVNamedTitlePremiumResultWnd@@', 00H
_DATA	ENDS
;	COMDAT ??_R4NamedTitlePremiumResultWnd@@6B@
rdata$r	SEGMENT
??_R4NamedTitlePremiumResultWnd@@6B@ DD 00H		; NamedTitlePremiumResultWnd::`RTTI Complete Object Locator'
	DD	00H
	DD	00H
	DD	FLAT:??_R0?AVNamedTitlePremiumResultWnd@@@8
	DD	FLAT:??_R3NamedTitlePremiumResultWnd@@8
rdata$r	ENDS
;	COMDAT ??_7NamedTitlePremiumResultWnd@@6B@
CONST	SEGMENT
??_7NamedTitlePremiumResultWnd@@6B@ DD FLAT:??_R4NamedTitlePremiumResultWnd@@6B@ ; NamedTitlePremiumResultWnd::`vftable'
	DD	FLAT:?AddRenderFrame@ioWnd@@UAEXABVioHashString@@PAVioUIRenderFrame@@@Z
	DD	FLAT:?AddRenderImage@NamedTitlePremiumResultWnd@@UAEXABVioHashString@@PAVioUIRenderImage@@@Z
	DD	FLAT:?AddTooltipHelp@ioWnd@@UAEXABVioHashString@@00@Z
	DD	FLAT:?ParseExtraInfo@ioWnd@@UAEXAAVioXMLElement@@@Z
	DD	FLAT:?AddNamedRenderImage@ioWnd@@UAEXABVioHashString@@PAVioUIRenderImage@@@Z
	DD	FLAT:?RemoveNamedRenderImage@ioWnd@@UAEXABVioHashString@@@Z
	DD	FLAT:?GetNamedRenderImage@ioWnd@@UBEPAVioUIRenderImage@@ABVioHashString@@@Z
	DD	FLAT:?SetWindowAlpha@ioWnd@@UAEXH@Z
	DD	FLAT:?SetActive@ioWnd@@UAEXXZ
	DD	FLAT:?SetInActive@ioWnd@@UAEXXZ
	DD	FLAT:?ClearElementImageList@ioWnd@@UAEXXZ
	DD	FLAT:?SetSize@ioWnd@@UAEXHH@Z
	DD	FLAT:?SetPositionToDefault@ioWnd@@UAEXHH_N0@Z
	DD	FLAT:?IsNeedProcess@ioWnd@@UBE_NXZ
	DD	FLAT:?IsCanMouseReaction@ioWnd@@UBE_NXZ
	DD	FLAT:?AddChild@ioWnd@@UAEXPAV1@@Z
	DD	FLAT:?DeleteChild@ioWnd@@UAEXK@Z
	DD	FLAT:?DeleteAllChild@ioWnd@@UAEXXZ
	DD	FLAT:?OnRenderShowAndHide@ioWnd@@MAE_NXZ
	DD	FLAT:?OnRenderShowAndHideByDefault@ioWnd@@MAE_NK@Z
	DD	FLAT:?OnRenderShowAndHideByTop@ioWnd@@MAE_NK@Z
	DD	FLAT:?OnRenderShowAndHideByDown@ioWnd@@MAE_NK@Z
	DD	FLAT:?OnRender@NamedTitlePremiumResultWnd@@MAEXXZ
	DD	FLAT:?OnRenderAfterChild@ioWnd@@MAEXXZ
	DD	FLAT:?OnProcess@ioWnd@@MAEXM@Z
	DD	FLAT:?OnMouseProcess@ioWnd@@MAEXABVioMouse@@@Z
	DD	FLAT:?CheckFrameReSize@ioWnd@@MAEXHHHH@Z
	DD	FLAT:?RenderImageList@ioWnd@@MAEXHHW4UIRenderType@@@Z
	DD	FLAT:?iwm_create@ioWnd@@UAEXXZ
	DD	FLAT:?iwm_destroy@ioWnd@@UAEXXZ
	DD	FLAT:?iwm_lbuttondown@ioWnd@@UAEXABVioMouse@@@Z
	DD	FLAT:?iwm_lbuttonup@ioWnd@@UAEXABVioMouse@@@Z
	DD	FLAT:?iwm_lbuttonDBLCLK@ioWnd@@UAEXABVioMouse@@@Z
	DD	FLAT:?iwm_rbuttondown@ioWnd@@UAEXABVioMouse@@@Z
	DD	FLAT:?iwm_rbuttonup@ioWnd@@UAEXABVioMouse@@@Z
	DD	FLAT:?iwm_command@NamedTitlePremiumResultWnd@@UAEXPAVioWnd@@HK@Z
	DD	FLAT:?iwm_mouseover@ioWnd@@UAEXABVioMouse@@@Z
	DD	FLAT:?iwm_mousemove@ioWnd@@UAEXABVioMouse@@@Z
	DD	FLAT:?iwm_mouseleave@ioWnd@@UAEXABVioMouse@@@Z
	DD	FLAT:?iwm_vscroll@ioWnd@@UAEXKH@Z
	DD	FLAT:?iwm_wheel@ioWnd@@UAEXH@Z
	DD	FLAT:?iwm_show@ioWnd@@UAEXXZ
	DD	FLAT:?iwm_hide@ioWnd@@UAEXXZ
	DD	FLAT:?iwm_esc@ioWnd@@UAE_NXZ
	DD	FLAT:?iwm_spacebar@ioWnd@@UAE_NXZ
	DD	FLAT:?iwm_gototop@ioWnd@@UAEXXZ
	DD	FLAT:?iwm_dragenter@ioWnd@@UAE?AW4IWDropEffect@@PAVioDragItem@@ABVioMouse@@@Z
	DD	FLAT:?iwm_dragover@ioWnd@@UAE?AW4IWDropEffect@@PAVioDragItem@@ABVioMouse@@@Z
	DD	FLAT:?iwm_dragleave@ioWnd@@UAEXXZ
	DD	FLAT:?iwm_dropitem@ioWnd@@UAE_NPAVioDragItem@@ABVioMouse@@PAV1@@Z
	DD	FLAT:?iwm_dropdone@ioWnd@@UAEXPAVioDragItem@@PAV1@_N@Z
	DD	FLAT:?IsEXType@ioWnd@@UBE_NXZ
	DD	FLAT:?GetWndType@ioWnd@@UBEKXZ
	DD	FLAT:?RenderWnd@ioWnd@@UAEXXZ
	DD	FLAT:?SetIDEX@ioWnd@@UAEXAAK_N@Z
	DD	FLAT:?ParseXML@ioWnd@@UAEXAAVioXMLElement@@@Z
	DD	FLAT:?GetHeaderFileName@ioWnd@@UAEPBDXZ
	DD	FLAT:?GetTemplateName@ioWnd@@UAEPBDXZ
	DD	FLAT:?GetDefClassName@ioWnd@@UBEPBDXZ
	DD	FLAT:?_Clone@ioWnd@@UAEPAV1@XZ
	DD	FLAT:?Copy@ioWnd@@UAEXPAV1@@Z
	DD	FLAT:?Save@ioWnd@@UAE_NAAVioXMLElement@@@Z
	DD	FLAT:?SetSaveData@ioWnd@@UAEXAAVioXMLElement@@@Z
	DD	FLAT:?SetPosX@ioWnd@@UAEXH@Z
	DD	FLAT:?SetPosY@ioWnd@@UAEXH@Z
	DD	FLAT:?SetWidth@ioWnd@@UAEXH@Z
	DD	FLAT:?SetHeight@ioWnd@@UAEXH@Z
	DD	FLAT:?GetNumFixedRenderFrame@ioWnd@@UBEHXZ
	DD	FLAT:?GetFixedRenderFrameType@ioWnd@@UAEPBDH@Z
	DD	FLAT:?GetRenderFrame@ioWnd@@UAEPAPAVioUIRenderElement@@PBD@Z
	DD	FLAT:?GetNumFixedRenderImage@ioWnd@@UBEHXZ
	DD	FLAT:?GetFixedRenderImageType@ioWnd@@UAEPBDH@Z
	DD	FLAT:?GetRenderImage@ioWnd@@UAEPAPAVioUIRenderElement@@PBD@Z
	DD	FLAT:?AddEffect@ioWnd@@UAEXABVioHashString@@PAVioUI3DEffectRender@@@Z
	DD	FLAT:?GetEffect@ioWnd@@UAEPAVioUI3DEffectRender@@VioHashString@@@Z
	DD	FLAT:??_ENamedTitlePremiumResultWnd@@UAEPAXI@Z
CONST	ENDS
;	COMDAT xdata$x
xdata$x	SEGMENT
__unwindtable$??0NamedTitlePremiumResultWnd@@QAE@XZ DD 0ffffffffH
	DD	FLAT:__unwindfunclet$??0NamedTitlePremiumResultWnd@@QAE@XZ$0
	DD	00H
	DD	FLAT:__unwindfunclet$??0NamedTitlePremiumResultWnd@@QAE@XZ$1
__ehfuncinfo$??0NamedTitlePremiumResultWnd@@QAE@XZ DD 019930522H
	DD	02H
	DD	FLAT:__unwindtable$??0NamedTitlePremiumResultWnd@@QAE@XZ
	DD	2 DUP(00H)
	DD	2 DUP(00H)
	DD	00H
	DD	01H
; Function compile flags: /Ogsp
xdata$x	ENDS
;	COMDAT ??0NamedTitlePremiumResultWnd@@QAE@XZ
_TEXT	SEGMENT
_this$ = -16						; size = 4
__$EHRec$ = -12						; size = 12
??0NamedTitlePremiumResultWnd@@QAE@XZ PROC		; NamedTitlePremiumResultWnd::NamedTitlePremiumResultWnd, COMDAT
; _this$ = ecx

; 145  : {

  00000	6a 04		 push	 4
  00002	b8 00 00 00 00	 mov	 eax, __ehhandler$??0NamedTitlePremiumResultWnd@@QAE@XZ
  00007	e8 00 00 00 00	 call	 __EH_prolog3
  0000c	8b f1		 mov	 esi, ecx
  0000e	89 75 f0	 mov	 DWORD PTR _this$[ebp], esi
  00011	ff 15 00 00 00
	00		 call	 DWORD PTR __imp_??0ioWnd@@QAE@XZ
  00017	68 00 00 00 00	 push	 OFFSET ??1ioComplexStringPrinter@@QAE@XZ ; ioComplexStringPrinter::~ioComplexStringPrinter
  0001c	68 00 00 00 00	 push	 OFFSET ??0ioComplexStringPrinter@@QAE@XZ ; ioComplexStringPrinter::ioComplexStringPrinter
  00021	6a 0a		 push	 10			; 0000000aH
  00023	6a 20		 push	 32			; 00000020H
  00025	33 db		 xor	 ebx, ebx
  00027	8d be 68 01 00
	00		 lea	 edi, DWORD PTR [esi+360]
  0002d	57		 push	 edi
  0002e	89 5d fc	 mov	 DWORD PTR __$EHRec$[ebp+8], ebx
  00031	c7 06 00 00 00
	00		 mov	 DWORD PTR [esi], OFFSET ??_7NamedTitlePremiumResultWnd@@6B@
  00037	e8 00 00 00 00	 call	 ??_L@YGXPAXIHP6EX0@Z1@Z
  0003c	6a 0a		 push	 10			; 0000000aH

; 146  : 	m_pIcon = NULL;

  0003e	89 9e 60 01 00
	00		 mov	 DWORD PTR [esi+352], ebx

; 147  : 	m_pBackEffect = NULL;

  00044	89 9e 64 01 00
	00		 mov	 DWORD PTR [esi+356], ebx
  0004a	c6 45 fc 01	 mov	 BYTE PTR __$EHRec$[ebp+8], 1
  0004e	5b		 pop	 ebx
$LL3@NamedTitle@3:

; 148  : 	
; 149  : 	for ( int i=0; i<MAXLINE; i++ )
; 150  : 		m_Desc[i].ClearList();

  0004f	8b cf		 mov	 ecx, edi
  00051	e8 00 00 00 00	 call	 ?ClearList@ioComplexStringPrinter@@QAEXXZ ; ioComplexStringPrinter::ClearList
  00056	83 c7 20	 add	 edi, 32			; 00000020H
  00059	4b		 dec	 ebx
  0005a	75 f3		 jne	 SHORT $LL3@NamedTitle@3

; 151  : }

  0005c	8b c6		 mov	 eax, esi
  0005e	e8 00 00 00 00	 call	 __EH_epilog3
  00063	c3		 ret	 0
_TEXT	ENDS
;	COMDAT text$x
text$x	SEGMENT
__unwindfunclet$??0NamedTitlePremiumResultWnd@@QAE@XZ$0:
  00000	8b 4d f0	 mov	 ecx, DWORD PTR _this$[ebp]
  00003	ff 25 00 00 00
	00		 jmp	 DWORD PTR __imp_??1ioWnd@@UAE@XZ
__unwindfunclet$??0NamedTitlePremiumResultWnd@@QAE@XZ$1:
  00009	68 00 00 00 00	 push	 OFFSET ??1ioComplexStringPrinter@@QAE@XZ ; ioComplexStringPrinter::~ioComplexStringPrinter
  0000e	6a 0a		 push	 10			; 0000000aH
  00010	6a 20		 push	 32			; 00000020H
  00012	8b 45 f0	 mov	 eax, DWORD PTR _this$[ebp]
  00015	05 68 01 00 00	 add	 eax, 360		; 00000168H
  0001a	50		 push	 eax
  0001b	e8 00 00 00 00	 call	 ??_M@YGXPAXIHP6EX0@Z@Z
  00020	c3		 ret	 0
__ehhandler$??0NamedTitlePremiumResultWnd@@QAE@XZ:
  00021	8b 54 24 08	 mov	 edx, DWORD PTR [esp+8]
  00025	8d 42 0c	 lea	 eax, DWORD PTR [edx+12]
  00028	8b 4a ec	 mov	 ecx, DWORD PTR [edx-20]
  0002b	33 c8		 xor	 ecx, eax
  0002d	e8 00 00 00 00	 call	 @__security_check_cookie@4
  00032	b8 00 00 00 00	 mov	 eax, OFFSET __ehfuncinfo$??0NamedTitlePremiumResultWnd@@QAE@XZ
  00037	e9 00 00 00 00	 jmp	 ___CxxFrameHandler3
text$x	ENDS
??0NamedTitlePremiumResultWnd@@QAE@XZ ENDP		; NamedTitlePremiumResultWnd::NamedTitlePremiumResultWnd
PUBLIC	??1NamedTitlePremiumResultWnd@@UAE@XZ		; NamedTitlePremiumResultWnd::~NamedTitlePremiumResultWnd
;	COMDAT xdata$x
xdata$x	SEGMENT
__unwindtable$??1NamedTitlePremiumResultWnd@@UAE@XZ DD 0ffffffffH
	DD	FLAT:__unwindfunclet$??1NamedTitlePremiumResultWnd@@UAE@XZ$0
	DD	00H
	DD	FLAT:__unwindfunclet$??1NamedTitlePremiumResultWnd@@UAE@XZ$1
__ehfuncinfo$??1NamedTitlePremiumResultWnd@@UAE@XZ DD 019930522H
	DD	02H
	DD	FLAT:__unwindtable$??1NamedTitlePremiumResultWnd@@UAE@XZ
	DD	2 DUP(00H)
	DD	2 DUP(00H)
	DD	00H
	DD	01H
; Function compile flags: /Ogsp
xdata$x	ENDS
;	COMDAT ??1NamedTitlePremiumResultWnd@@UAE@XZ
_TEXT	SEGMENT
_this$ = -16						; size = 4
__$EHRec$ = -12						; size = 12
??1NamedTitlePremiumResultWnd@@UAE@XZ PROC		; NamedTitlePremiumResultWnd::~NamedTitlePremiumResultWnd, COMDAT
; _this$ = ecx

; 154  : {

  00000	6a 04		 push	 4
  00002	b8 00 00 00 00	 mov	 eax, __ehhandler$??1NamedTitlePremiumResultWnd@@UAE@XZ
  00007	e8 00 00 00 00	 call	 __EH_prolog3
  0000c	8b f1		 mov	 esi, ecx
  0000e	89 75 f0	 mov	 DWORD PTR _this$[ebp], esi
  00011	c7 06 00 00 00
	00		 mov	 DWORD PTR [esi], OFFSET ??_7NamedTitlePremiumResultWnd@@6B@

; 155  : 	SAFEDELETE(m_pIcon);

  00017	8b 8e 60 01 00
	00		 mov	 ecx, DWORD PTR [esi+352]
  0001d	c7 45 fc 01 00
	00 00		 mov	 DWORD PTR __$EHRec$[ebp+8], 1
  00024	85 c9		 test	 ecx, ecx
  00026	74 0e		 je	 SHORT $LN2@NamedTitle@4
  00028	8b 01		 mov	 eax, DWORD PTR [ecx]
  0002a	6a 01		 push	 1
  0002c	ff 50 40	 call	 DWORD PTR [eax+64]
  0002f	83 a6 60 01 00
	00 00		 and	 DWORD PTR [esi+352], 0
$LN2@NamedTitle@4:

; 156  : 	SAFEDELETE(m_pBackEffect);

  00036	8b 8e 64 01 00
	00		 mov	 ecx, DWORD PTR [esi+356]
  0003c	85 c9		 test	 ecx, ecx
  0003e	74 0e		 je	 SHORT $LN1@NamedTitle@4
  00040	8b 01		 mov	 eax, DWORD PTR [ecx]
  00042	6a 01		 push	 1
  00044	ff 50 40	 call	 DWORD PTR [eax+64]
  00047	83 a6 64 01 00
	00 00		 and	 DWORD PTR [esi+356], 0
$LN1@NamedTitle@4:

; 157  : }

  0004e	68 00 00 00 00	 push	 OFFSET ??1ioComplexStringPrinter@@QAE@XZ ; ioComplexStringPrinter::~ioComplexStringPrinter
  00053	6a 0a		 push	 10			; 0000000aH
  00055	6a 20		 push	 32			; 00000020H
  00057	8d 86 68 01 00
	00		 lea	 eax, DWORD PTR [esi+360]
  0005d	50		 push	 eax
  0005e	c6 45 fc 00	 mov	 BYTE PTR __$EHRec$[ebp+8], 0
  00062	e8 00 00 00 00	 call	 ??_M@YGXPAXIHP6EX0@Z@Z
  00067	83 4d fc ff	 or	 DWORD PTR __$EHRec$[ebp+8], -1
  0006b	8b ce		 mov	 ecx, esi
  0006d	ff 15 00 00 00
	00		 call	 DWORD PTR __imp_??1ioWnd@@UAE@XZ
  00073	e8 00 00 00 00	 call	 __EH_epilog3
  00078	c3		 ret	 0
_TEXT	ENDS
;	COMDAT text$x
text$x	SEGMENT
__unwindfunclet$??1NamedTitlePremiumResultWnd@@UAE@XZ$0:
  00000	8b 4d f0	 mov	 ecx, DWORD PTR _this$[ebp]
  00003	ff 25 00 00 00
	00		 jmp	 DWORD PTR __imp_??1ioWnd@@UAE@XZ
__unwindfunclet$??1NamedTitlePremiumResultWnd@@UAE@XZ$1:
  00009	68 00 00 00 00	 push	 OFFSET ??1ioComplexStringPrinter@@QAE@XZ ; ioComplexStringPrinter::~ioComplexStringPrinter
  0000e	6a 0a		 push	 10			; 0000000aH
  00010	6a 20		 push	 32			; 00000020H
  00012	8b 45 f0	 mov	 eax, DWORD PTR _this$[ebp]
  00015	05 68 01 00 00	 add	 eax, 360		; 00000168H
  0001a	50		 push	 eax
  0001b	e8 00 00 00 00	 call	 ??_M@YGXPAXIHP6EX0@Z@Z
  00020	c3		 ret	 0
__ehhandler$??1NamedTitlePremiumResultWnd@@UAE@XZ:
  00021	8b 54 24 08	 mov	 edx, DWORD PTR [esp+8]
  00025	8d 42 0c	 lea	 eax, DWORD PTR [edx+12]
  00028	8b 4a ec	 mov	 ecx, DWORD PTR [edx-20]
  0002b	33 c8		 xor	 ecx, eax
  0002d	e8 00 00 00 00	 call	 @__security_check_cookie@4
  00032	b8 00 00 00 00	 mov	 eax, OFFSET __ehfuncinfo$??1NamedTitlePremiumResultWnd@@UAE@XZ
  00037	e9 00 00 00 00	 jmp	 ___CxxFrameHandler3
text$x	ENDS
??1NamedTitlePremiumResultWnd@@UAE@XZ ENDP		; NamedTitlePremiumResultWnd::~NamedTitlePremiumResultWnd
PUBLIC	?GetSingleton@?$Singleton@VioEtcItemManager@@@@SAAAVioEtcItemManager@@XZ ; Singleton<ioEtcItemManager>::GetSingleton
EXTRN	?ms_Singleton@?$Singleton@VioEtcItemManager@@@@1PAVioEtcItemManager@@A:DWORD ; Singleton<ioEtcItemManager>::ms_Singleton
; Function compile flags: /Ogsp
; File d:\lost saga for developer\youtube\tutorial\source\src\io3dengine\iosingleton.h
;	COMDAT ?GetSingleton@?$Singleton@VioEtcItemManager@@@@SAAAVioEtcItemManager@@XZ
_TEXT	SEGMENT
?GetSingleton@?$Singleton@VioEtcItemManager@@@@SAAAVioEtcItemManager@@XZ PROC ; Singleton<ioEtcItemManager>::GetSingleton, COMDAT

; 42   : 		assert( ms_Singleton );
; 43   : 		return (*ms_Singleton);

  00000	a1 00 00 00 00	 mov	 eax, DWORD PTR ?ms_Singleton@?$Singleton@VioEtcItemManager@@@@1PAVioEtcItemManager@@A ; Singleton<ioEtcItemManager>::ms_Singleton

; 44   : 	}

  00005	c3		 ret	 0
?GetSingleton@?$Singleton@VioEtcItemManager@@@@SAAAVioEtcItemManager@@XZ ENDP ; Singleton<ioEtcItemManager>::GetSingleton
_TEXT	ENDS
PUBLIC	?_Adopt@_Iterator_base0@std@@QAEXPBX@Z		; std::_Iterator_base0::_Adopt
; Function compile flags: /Ogsp
; File c:\program files (x86)\microsoft visual studio 10.0\vc\include\xutility
;	COMDAT ?_Adopt@_Iterator_base0@std@@QAEXPBX@Z
_TEXT	SEGMENT
___formal$ = 8						; size = 4
?_Adopt@_Iterator_base0@std@@QAEXPBX@Z PROC		; std::_Iterator_base0::_Adopt, COMDAT
; _this$ = ecx

; 49   : 		}

  00000	c2 04 00	 ret	 4
?_Adopt@_Iterator_base0@std@@QAEXPBX@Z ENDP		; std::_Iterator_base0::_Adopt
_TEXT	ENDS
PUBLIC	?_DECSTR@@YAXPADH@Z				; _DECSTR
; Function compile flags: /Ogsp
; File d:\lost saga for developer\youtube\tutorial\source\src\lsclient\stringprotect.h
;	COMDAT ?_DECSTR@@YAXPADH@Z
_TEXT	SEGMENT
_s$ = 8							; size = 4
_l$ = 12						; size = 4
?_DECSTR@@YAXPADH@Z PROC				; _DECSTR, COMDAT

; 40   : __forceinline void _DECSTR(char* s, int l){int i=0,l4=(l-1)/4,*p=(int*)s;s[l-1]=0;for(;i<l4;++i)*(p++)^=0xEAEBECED;for(i=l4*4;i<l-1;++i)s[i]^=0xED-i%4;}

  00000	55		 push	 ebp
  00001	8b ec		 mov	 ebp, esp
  00003	8b 4d 0c	 mov	 ecx, DWORD PTR _l$[ebp]
  00006	56		 push	 esi
  00007	8b 75 08	 mov	 esi, DWORD PTR _s$[ebp]
  0000a	57		 push	 edi
  0000b	8d 79 ff	 lea	 edi, DWORD PTR [ecx-1]
  0000e	8b c7		 mov	 eax, edi
  00010	99		 cdq
  00011	83 e2 03	 and	 edx, 3
  00014	03 c2		 add	 eax, edx
  00016	c1 f8 02	 sar	 eax, 2
  00019	8b d6		 mov	 edx, esi
  0001b	c6 44 0e ff 00	 mov	 BYTE PTR [esi+ecx-1], 0
  00020	85 c0		 test	 eax, eax
  00022	7e 0e		 jle	 SHORT $LN4@DECSTR
  00024	8b c8		 mov	 ecx, eax
$LL6@DECSTR:
  00026	81 32 ed ec eb
	ea		 xor	 DWORD PTR [edx], -353637139 ; eaebecedH
  0002c	83 c2 04	 add	 edx, 4
  0002f	49		 dec	 ecx
  00030	75 f4		 jne	 SHORT $LL6@DECSTR
$LN4@DECSTR:
  00032	c1 e0 02	 shl	 eax, 2
  00035	eb 17		 jmp	 SHORT $LN14@DECSTR
$LL3@DECSTR:
  00037	8b c8		 mov	 ecx, eax
  00039	81 e1 03 00 00
	80		 and	 ecx, -2147483645	; 80000003H
  0003f	79 05		 jns	 SHORT $LN13@DECSTR
  00041	49		 dec	 ecx
  00042	83 c9 fc	 or	 ecx, -4			; fffffffcH
  00045	41		 inc	 ecx
$LN13@DECSTR:
  00046	b2 ed		 mov	 dl, -19			; ffffffedH
  00048	2a d1		 sub	 dl, cl
  0004a	30 14 30	 xor	 BYTE PTR [eax+esi], dl
  0004d	40		 inc	 eax
$LN14@DECSTR:
  0004e	3b c7		 cmp	 eax, edi
  00050	7c e5		 jl	 SHORT $LL3@DECSTR
  00052	5f		 pop	 edi
  00053	5e		 pop	 esi
  00054	5d		 pop	 ebp
  00055	c3		 ret	 0
?_DECSTR@@YAXPADH@Z ENDP				; _DECSTR
_TEXT	ENDS
PUBLIC	??0ETCITEMSLOT@ioUserEtcItem@@QAE@XZ		; ioUserEtcItem::ETCITEMSLOT::ETCITEMSLOT
; Function compile flags: /Ogsp
; File d:\lost saga for developer\youtube\tutorial\source\src\lsclient\iouseretcitem.h
;	COMDAT ??0ETCITEMSLOT@ioUserEtcItem@@QAE@XZ
_TEXT	SEGMENT
??0ETCITEMSLOT@ioUserEtcItem@@QAE@XZ PROC		; ioUserEtcItem::ETCITEMSLOT::ETCITEMSLOT, COMDAT
; _this$ = ecx

; 22   : 		ETCITEMSLOT()

  00000	8b c1		 mov	 eax, ecx

; 23   : 		{
; 24   : 			m_iType   = 0;

  00002	33 c9		 xor	 ecx, ecx
  00004	89 08		 mov	 DWORD PTR [eax], ecx

; 25   : 			m_iValue1 = 0;

  00006	89 48 04	 mov	 DWORD PTR [eax+4], ecx

; 26   : 			m_iValue2 = 0;

  00009	89 48 08	 mov	 DWORD PTR [eax+8], ecx

; 27   : 		}

  0000c	c3		 ret	 0
??0ETCITEMSLOT@ioUserEtcItem@@QAE@XZ ENDP		; ioUserEtcItem::ETCITEMSLOT::ETCITEMSLOT
_TEXT	ENDS
PUBLIC	?GetUserEtcItem@ioMyInfo@@QAEPAVioUserEtcItem@@XZ ; ioMyInfo::GetUserEtcItem
; Function compile flags: /Ogsp
; File d:\lost saga for developer\youtube\tutorial\source\src\lsclient\iomyinfo.h
;	COMDAT ?GetUserEtcItem@ioMyInfo@@QAEPAVioUserEtcItem@@XZ
_TEXT	SEGMENT
?GetUserEtcItem@ioMyInfo@@QAEPAVioUserEtcItem@@XZ PROC	; ioMyInfo::GetUserEtcItem, COMDAT
; _this$ = ecx

; 635  : 	ioUserEtcItem* GetUserEtcItem() { return &m_UserEtcItem; }

  00000	8d 81 44 01 00
	00		 lea	 eax, DWORD PTR [ecx+324]
  00006	c3		 ret	 0
?GetUserEtcItem@ioMyInfo@@QAEPAVioUserEtcItem@@XZ ENDP	; ioMyInfo::GetUserEtcItem
_TEXT	ENDS
PUBLIC	?empty@?$vector@UtagTextPiece@ioComplexStringPrinter@@V?$allocator@UtagTextPiece@ioComplexStringPrinter@@@std@@@std@@QBE_NXZ ; std::vector<ioComplexStringPrinter::tagTextPiece,std::allocator<ioComplexStringPrinter::tagTextPiece> >::empty
; Function compile flags: /Ogsp
; File c:\program files (x86)\microsoft visual studio 10.0\vc\include\vector
;	COMDAT ?empty@?$vector@UtagTextPiece@ioComplexStringPrinter@@V?$allocator@UtagTextPiece@ioComplexStringPrinter@@@std@@@std@@QBE_NXZ
_TEXT	SEGMENT
?empty@?$vector@UtagTextPiece@ioComplexStringPrinter@@V?$allocator@UtagTextPiece@ioComplexStringPrinter@@@std@@@std@@QBE_NXZ PROC ; std::vector<ioComplexStringPrinter::tagTextPiece,std::allocator<ioComplexStringPrinter::tagTextPiece> >::empty, COMDAT
; _this$ = ecx

; 889  : 		return (this->_Myfirst == this->_Mylast);

  00000	8b 01		 mov	 eax, DWORD PTR [ecx]
  00002	2b 41 04	 sub	 eax, DWORD PTR [ecx+4]
  00005	f7 d8		 neg	 eax
  00007	1b c0		 sbb	 eax, eax
  00009	40		 inc	 eax

; 890  : 		}

  0000a	c3		 ret	 0
?empty@?$vector@UtagTextPiece@ioComplexStringPrinter@@V?$allocator@UtagTextPiece@ioComplexStringPrinter@@@std@@@std@@QBE_NXZ ENDP ; std::vector<ioComplexStringPrinter::tagTextPiece,std::allocator<ioComplexStringPrinter::tagTextPiece> >::empty
_TEXT	ENDS
PUBLIC	??1?$_Vector_val@UtagNamedTitleGrade@@V?$allocator@UtagNamedTitleGrade@@@std@@@std@@QAE@XZ ; std::_Vector_val<tagNamedTitleGrade,std::allocator<tagNamedTitleGrade> >::~_Vector_val<tagNamedTitleGrade,std::allocator<tagNamedTitleGrade> >
; Function compile flags: /Ogsp
;	COMDAT ??1?$_Vector_val@UtagNamedTitleGrade@@V?$allocator@UtagNamedTitleGrade@@@std@@@std@@QAE@XZ
_TEXT	SEGMENT
??1?$_Vector_val@UtagNamedTitleGrade@@V?$allocator@UtagNamedTitleGrade@@@std@@@std@@QAE@XZ PROC ; std::_Vector_val<tagNamedTitleGrade,std::allocator<tagNamedTitleGrade> >::~_Vector_val<tagNamedTitleGrade,std::allocator<tagNamedTitleGrade> >, COMDAT
; _this$ = ecx

; 434  : 		}

  00000	c3		 ret	 0
??1?$_Vector_val@UtagNamedTitleGrade@@V?$allocator@UtagNamedTitleGrade@@@std@@@std@@QAE@XZ ENDP ; std::_Vector_val<tagNamedTitleGrade,std::allocator<tagNamedTitleGrade> >::~_Vector_val<tagNamedTitleGrade,std::allocator<tagNamedTitleGrade> >
_TEXT	ENDS
PUBLIC	??0?$allocator@UtagNamedTitleGrade@@@std@@QAE@XZ ; std::allocator<tagNamedTitleGrade>::allocator<tagNamedTitleGrade>
; Function compile flags: /Ogsp
; File c:\program files (x86)\microsoft visual studio 10.0\vc\include\xmemory
;	COMDAT ??0?$allocator@UtagNamedTitleGrade@@@std@@QAE@XZ
_TEXT	SEGMENT
??0?$allocator@UtagNamedTitleGrade@@@std@@QAE@XZ PROC	; std::allocator<tagNamedTitleGrade>::allocator<tagNamedTitleGrade>, COMDAT
; _this$ = ecx

; 161  : 	_ALLOCATOR() _THROW0()

  00000	8b c1		 mov	 eax, ecx

; 162  : 		{	// construct default allocator (do nothing)
; 163  : 		}

  00002	c3		 ret	 0
??0?$allocator@UtagNamedTitleGrade@@@std@@QAE@XZ ENDP	; std::allocator<tagNamedTitleGrade>::allocator<tagNamedTitleGrade>
_TEXT	ENDS
PUBLIC	??0?$allocator@UtagNamedTitleGrade@@@std@@QAE@ABV01@@Z ; std::allocator<tagNamedTitleGrade>::allocator<tagNamedTitleGrade>
; Function compile flags: /Ogsp
;	COMDAT ??0?$allocator@UtagNamedTitleGrade@@@std@@QAE@ABV01@@Z
_TEXT	SEGMENT
___formal$ = 8						; size = 4
??0?$allocator@UtagNamedTitleGrade@@@std@@QAE@ABV01@@Z PROC ; std::allocator<tagNamedTitleGrade>::allocator<tagNamedTitleGrade>, COMDAT
; _this$ = ecx

; 165  : 	_ALLOCATOR(const _ALLOCATOR<_Ty>&) _THROW0()

  00000	8b c1		 mov	 eax, ecx

; 166  : 		{	// construct by copying (do nothing)
; 167  : 		}

  00002	c2 04 00	 ret	 4
??0?$allocator@UtagNamedTitleGrade@@@std@@QAE@ABV01@@Z ENDP ; std::allocator<tagNamedTitleGrade>::allocator<tagNamedTitleGrade>
_TEXT	ENDS
PUBLIC	?deallocate@?$allocator@UtagNamedTitleGrade@@@std@@QAEXPAUtagNamedTitleGrade@@I@Z ; std::allocator<tagNamedTitleGrade>::deallocate
EXTRN	??3@YAXPAX@Z:PROC				; operator delete
; Function compile flags: /Ogsp
;	COMDAT ?deallocate@?$allocator@UtagNamedTitleGrade@@@std@@QAEXPAUtagNamedTitleGrade@@I@Z
_TEXT	SEGMENT
__Ptr$ = 8						; size = 4
___formal$ = 12						; size = 4
?deallocate@?$allocator@UtagNamedTitleGrade@@@std@@QAEXPAUtagNamedTitleGrade@@I@Z PROC ; std::allocator<tagNamedTitleGrade>::deallocate, COMDAT
; _this$ = ecx

; 181  : 		{	// deallocate object at _Ptr, ignore size

  00000	55		 push	 ebp
  00001	8b ec		 mov	 ebp, esp

; 182  : 		::operator delete(_Ptr);

  00003	ff 75 08	 push	 DWORD PTR __Ptr$[ebp]
  00006	e8 00 00 00 00	 call	 ??3@YAXPAX@Z		; operator delete
  0000b	59		 pop	 ecx

; 183  : 		}

  0000c	5d		 pop	 ebp
  0000d	c2 08 00	 ret	 8
?deallocate@?$allocator@UtagNamedTitleGrade@@@std@@QAEXPAUtagNamedTitleGrade@@I@Z ENDP ; std::allocator<tagNamedTitleGrade>::deallocate
_TEXT	ENDS
PUBLIC	??0?$_Vector_const_iterator@V?$_Vector_val@UtagNamedTitleGrade@@V?$allocator@UtagNamedTitleGrade@@@std@@@std@@@std@@QAE@PAUtagNamedTitleGrade@@PBU_Container_base0@1@@Z ; std::_Vector_const_iterator<std::_Vector_val<tagNamedTitleGrade,std::allocator<tagNamedTitleGrade> > >::_Vector_const_iterator<std::_Vector_val<tagNamedTitleGrade,std::allocator<tagNamedTitleGrade> > >
; Function compile flags: /Ogsp
; File c:\program files (x86)\microsoft visual studio 10.0\vc\include\vector
;	COMDAT ??0?$_Vector_const_iterator@V?$_Vector_val@UtagNamedTitleGrade@@V?$allocator@UtagNamedTitleGrade@@@std@@@std@@@std@@QAE@PAUtagNamedTitleGrade@@PBU_Container_base0@1@@Z
_TEXT	SEGMENT
__Parg$ = 8						; size = 4
__Pvector$ = 12						; size = 4
??0?$_Vector_const_iterator@V?$_Vector_val@UtagNamedTitleGrade@@V?$allocator@UtagNamedTitleGrade@@@std@@@std@@@std@@QAE@PAUtagNamedTitleGrade@@PBU_Container_base0@1@@Z PROC ; std::_Vector_const_iterator<std::_Vector_val<tagNamedTitleGrade,std::allocator<tagNamedTitleGrade> > >::_Vector_const_iterator<std::_Vector_val<tagNamedTitleGrade,std::allocator<tagNamedTitleGrade> > >, COMDAT
; _this$ = ecx

; 45   : 		{	// construct with pointer _Parg

  00000	55		 push	 ebp
  00001	8b ec		 mov	 ebp, esp
  00003	8b c1		 mov	 eax, ecx
  00005	8b 4d 08	 mov	 ecx, DWORD PTR __Parg$[ebp]
  00008	89 08		 mov	 DWORD PTR [eax], ecx

; 46   : 		this->_Adopt(_Pvector);
; 47   : 		}

  0000a	5d		 pop	 ebp
  0000b	c2 08 00	 ret	 8
??0?$_Vector_const_iterator@V?$_Vector_val@UtagNamedTitleGrade@@V?$allocator@UtagNamedTitleGrade@@@std@@@std@@@std@@QAE@PAUtagNamedTitleGrade@@PBU_Container_base0@1@@Z ENDP ; std::_Vector_const_iterator<std::_Vector_val<tagNamedTitleGrade,std::allocator<tagNamedTitleGrade> > >::_Vector_const_iterator<std::_Vector_val<tagNamedTitleGrade,std::allocator<tagNamedTitleGrade> > >
_TEXT	ENDS
PUBLIC	?_Compat@?$_Vector_const_iterator@V?$_Vector_val@UtagNamedTitleGrade@@V?$allocator@UtagNamedTitleGrade@@@std@@@std@@@std@@QBEXABV12@@Z ; std::_Vector_const_iterator<std::_Vector_val<tagNamedTitleGrade,std::allocator<tagNamedTitleGrade> > >::_Compat
; Function compile flags: /Ogsp
;	COMDAT ?_Compat@?$_Vector_const_iterator@V?$_Vector_val@UtagNamedTitleGrade@@V?$allocator@UtagNamedTitleGrade@@@std@@@std@@@std@@QBEXABV12@@Z
_TEXT	SEGMENT
___formal$ = 8						; size = 4
?_Compat@?$_Vector_const_iterator@V?$_Vector_val@UtagNamedTitleGrade@@V?$allocator@UtagNamedTitleGrade@@@std@@@std@@@std@@QBEXABV12@@Z PROC ; std::_Vector_const_iterator<std::_Vector_val<tagNamedTitleGrade,std::allocator<tagNamedTitleGrade> > >::_Compat, COMDAT
; _this$ = ecx

; 253  : 		}

  00000	c2 04 00	 ret	 4
?_Compat@?$_Vector_const_iterator@V?$_Vector_val@UtagNamedTitleGrade@@V?$allocator@UtagNamedTitleGrade@@@std@@@std@@@std@@QBEXABV12@@Z ENDP ; std::_Vector_const_iterator<std::_Vector_val<tagNamedTitleGrade,std::allocator<tagNamedTitleGrade> > >::_Compat
_TEXT	ENDS
PUBLIC	??$_Ptr_cat@UtagNamedTitleGrade@@U1@@std@@YA?AU_Nonscalar_ptr_iterator_tag@0@PAUtagNamedTitleGrade@@0@Z ; std::_Ptr_cat<tagNamedTitleGrade,tagNamedTitleGrade>
; Function compile flags: /Ogsp
; File c:\program files (x86)\microsoft visual studio 10.0\vc\include\xutility
;	COMDAT ??$_Ptr_cat@UtagNamedTitleGrade@@U1@@std@@YA?AU_Nonscalar_ptr_iterator_tag@0@PAUtagNamedTitleGrade@@0@Z
_TEXT	SEGMENT
__Cat$ = -1						; size = 1
___formal$ = 8						; size = 4
___formal$ = 12						; size = 4
??$_Ptr_cat@UtagNamedTitleGrade@@U1@@std@@YA?AU_Nonscalar_ptr_iterator_tag@0@PAUtagNamedTitleGrade@@0@Z PROC ; std::_Ptr_cat<tagNamedTitleGrade,tagNamedTitleGrade>, COMDAT

; 516  : 	{	// return pointer category from pointers

  00000	55		 push	 ebp
  00001	8b ec		 mov	 ebp, esp
  00003	51		 push	 ecx

; 517  : 	typename _Ptr_cat_helper<_Elem1, _Elem2>::_Type _Cat;
; 518  : 	return (_Cat);

  00004	8a 45 ff	 mov	 al, BYTE PTR __Cat$[ebp]

; 519  : 	}

  00007	c9		 leave
  00008	c3		 ret	 0
??$_Ptr_cat@UtagNamedTitleGrade@@U1@@std@@YA?AU_Nonscalar_ptr_iterator_tag@0@PAUtagNamedTitleGrade@@0@Z ENDP ; std::_Ptr_cat<tagNamedTitleGrade,tagNamedTitleGrade>
_TEXT	ENDS
PUBLIC	??4tagNamedTitleGrade@@QAEAAU0@ABU0@@Z		; tagNamedTitleGrade::operator=
EXTRN	__imp_??4ioHashString@@QAEAAV0@ABV0@@Z:PROC
; Function compile flags: /Ogsp
;	COMDAT ??4tagNamedTitleGrade@@QAEAAU0@ABU0@@Z
_TEXT	SEGMENT
___that$ = 8						; size = 4
??4tagNamedTitleGrade@@QAEAAU0@ABU0@@Z PROC		; tagNamedTitleGrade::operator=, COMDAT
; _this$ = ecx
  00000	55		 push	 ebp
  00001	8b ec		 mov	 ebp, esp
  00003	8b 45 08	 mov	 eax, DWORD PTR ___that$[ebp]
  00006	56		 push	 esi
  00007	8b f1		 mov	 esi, ecx
  00009	8b 08		 mov	 ecx, DWORD PTR [eax]
  0000b	83 c0 04	 add	 eax, 4
  0000e	89 0e		 mov	 DWORD PTR [esi], ecx
  00010	50		 push	 eax
  00011	8d 4e 04	 lea	 ecx, DWORD PTR [esi+4]
  00014	ff 15 00 00 00
	00		 call	 DWORD PTR __imp_??4ioHashString@@QAEAAV0@ABV0@@Z
  0001a	8b c6		 mov	 eax, esi
  0001c	5e		 pop	 esi
  0001d	5d		 pop	 ebp
  0001e	c2 04 00	 ret	 4
??4tagNamedTitleGrade@@QAEAAU0@ABU0@@Z ENDP		; tagNamedTitleGrade::operator=
_TEXT	ENDS
PUBLIC	??$move@AAUtagNamedTitleGrade@@@std@@YA$$QAUtagNamedTitleGrade@@AAU1@@Z ; std::move<tagNamedTitleGrade &>
; Function compile flags: /Ogsp
; File c:\program files (x86)\microsoft visual studio 10.0\vc\include\utility
;	COMDAT ??$move@AAUtagNamedTitleGrade@@@std@@YA$$QAUtagNamedTitleGrade@@AAU1@@Z
_TEXT	SEGMENT
__Arg$ = 8						; size = 4
??$move@AAUtagNamedTitleGrade@@@std@@YA$$QAUtagNamedTitleGrade@@AAU1@@Z PROC ; std::move<tagNamedTitleGrade &>, COMDAT

; 86   : 	{	// forward _Arg as movable

  00000	55		 push	 ebp
  00001	8b ec		 mov	 ebp, esp

; 87   : 	return ((typename tr1::_Remove_reference<_Ty>::_Type&&)_Arg);

  00003	8b 45 08	 mov	 eax, DWORD PTR __Arg$[ebp]

; 88   : 	}

  00006	5d		 pop	 ebp
  00007	c3		 ret	 0
??$move@AAUtagNamedTitleGrade@@@std@@YA$$QAUtagNamedTitleGrade@@AAU1@@Z ENDP ; std::move<tagNamedTitleGrade &>
_TEXT	ENDS
PUBLIC	??1tagNamedTitleGrade@@QAE@XZ			; tagNamedTitleGrade::~tagNamedTitleGrade
EXTRN	__imp_??1ioHashString@@QAE@XZ:PROC
; Function compile flags: /Ogsp
;	COMDAT ??1tagNamedTitleGrade@@QAE@XZ
_TEXT	SEGMENT
??1tagNamedTitleGrade@@QAE@XZ PROC			; tagNamedTitleGrade::~tagNamedTitleGrade, COMDAT
; _this$ = ecx
  00000	83 c1 04	 add	 ecx, 4
  00003	ff 25 00 00 00
	00		 jmp	 DWORD PTR __imp_??1ioHashString@@QAE@XZ
??1tagNamedTitleGrade@@QAE@XZ ENDP			; tagNamedTitleGrade::~tagNamedTitleGrade
; Function compile flags: /Ogsp
_TEXT	ENDS
;	COMDAT ??_GNamedTitleResultWnd@@UAEPAXI@Z
_TEXT	SEGMENT
___flags$ = 8						; size = 4
??_GNamedTitleResultWnd@@UAEPAXI@Z PROC			; NamedTitleResultWnd::`scalar deleting destructor', COMDAT
; _this$ = ecx
  00000	55		 push	 ebp
  00001	8b ec		 mov	 ebp, esp
  00003	56		 push	 esi
  00004	8b f1		 mov	 esi, ecx
  00006	e8 00 00 00 00	 call	 ??1NamedTitleResultWnd@@UAE@XZ ; NamedTitleResultWnd::~NamedTitleResultWnd
  0000b	f6 45 08 01	 test	 BYTE PTR ___flags$[ebp], 1
  0000f	74 07		 je	 SHORT $LN1@scalar
  00011	56		 push	 esi
  00012	e8 00 00 00 00	 call	 ??3@YAXPAX@Z		; operator delete
  00017	59		 pop	 ecx
$LN1@scalar:
  00018	8b c6		 mov	 eax, esi
  0001a	5e		 pop	 esi
  0001b	5d		 pop	 ebp
  0001c	c2 04 00	 ret	 4
??_GNamedTitleResultWnd@@UAEPAXI@Z ENDP			; NamedTitleResultWnd::`scalar deleting destructor'
; Function compile flags: /Ogsp
_TEXT	ENDS
;	COMDAT ??_GNamedTitlePremiumResultWnd@@UAEPAXI@Z
_TEXT	SEGMENT
___flags$ = 8						; size = 4
??_GNamedTitlePremiumResultWnd@@UAEPAXI@Z PROC		; NamedTitlePremiumResultWnd::`scalar deleting destructor', COMDAT
; _this$ = ecx
  00000	55		 push	 ebp
  00001	8b ec		 mov	 ebp, esp
  00003	56		 push	 esi
  00004	8b f1		 mov	 esi, ecx
  00006	e8 00 00 00 00	 call	 ??1NamedTitlePremiumResultWnd@@UAE@XZ ; NamedTitlePremiumResultWnd::~NamedTitlePremiumResultWnd
  0000b	f6 45 08 01	 test	 BYTE PTR ___flags$[ebp], 1
  0000f	74 07		 je	 SHORT $LN1@scalar@2
  00011	56		 push	 esi
  00012	e8 00 00 00 00	 call	 ??3@YAXPAX@Z		; operator delete
  00017	59		 pop	 ecx
$LN1@scalar@2:
  00018	8b c6		 mov	 eax, esi
  0001a	5e		 pop	 esi
  0001b	5d		 pop	 ebp
  0001c	c2 04 00	 ret	 4
??_GNamedTitlePremiumResultWnd@@UAEPAXI@Z ENDP		; NamedTitlePremiumResultWnd::`scalar deleting destructor'
_TEXT	ENDS
PUBLIC	??_C@_0BJ@MBKFFGIH@?$CFs?5pEtcItem?5?$DN?$DN?5NULL?5?3?5?$CFd?$AA@ ; `string'
PUBLIC	??_C@_0CI@OJPJDNOM@NamedTitlePremiumResultWnd?3?3iwm_@ ; `string'
EXTRN	__imp_?HideWnd@ioWnd@@QAEXXZ:PROC
EXTRN	__imp_?PrintTimeAndLog@CLog@@QAAXHPADZZ:PROC
EXTRN	__imp_?LOG@@3VCLog@@A:BYTE
EXTRN	?FindEtcItem@ioEtcItemManager@@QAEPAVioEtcItem@@K@Z:PROC ; ioEtcItemManager::FindEtcItem
EXTRN	?GetSingleton@ioMyInfo@@SAAAV1@XZ:PROC		; ioMyInfo::GetSingleton
;	COMDAT ??_C@_0BJ@MBKFFGIH@?$CFs?5pEtcItem?5?$DN?$DN?5NULL?5?3?5?$CFd?$AA@
; File d:\lost saga for developer\youtube\tutorial\source\src\io3dengine\iosingleton.h
CONST	SEGMENT
??_C@_0BJ@MBKFFGIH@?$CFs?5pEtcItem?5?$DN?$DN?5NULL?5?3?5?$CFd?$AA@ DB '%s'
	DB	' pEtcItem == NULL : %d', 00H		; `string'
CONST	ENDS
;	COMDAT ??_C@_0CI@OJPJDNOM@NamedTitlePremiumResultWnd?3?3iwm_@
CONST	SEGMENT
??_C@_0CI@OJPJDNOM@NamedTitlePremiumResultWnd?3?3iwm_@ DB 'NamedTitlePrem'
	DB	'iumResultWnd::iwm_command', 00H		; `string'
; Function compile flags: /Ogsp
; File d:\lost saga for developer\youtube\tutorial\source\src\lsclient\gui\namedtitleresultwnd.cpp
CONST	ENDS
;	COMDAT ?iwm_command@NamedTitlePremiumResultWnd@@UAEXPAVioWnd@@HK@Z
_TEXT	SEGMENT
_this$ = -4						; size = 4
_pWnd$ = 8						; size = 4
_cmd$ = 12						; size = 4
_param$ = 16						; size = 4
?iwm_command@NamedTitlePremiumResultWnd@@UAEXPAVioWnd@@HK@Z PROC ; NamedTitlePremiumResultWnd::iwm_command, COMDAT
; _this$ = ecx

; 160  : {

  00000	55		 push	 ebp
  00001	8b ec		 mov	 ebp, esp
  00003	51		 push	 ecx
  00004	53		 push	 ebx
  00005	56		 push	 esi
  00006	89 4d fc	 mov	 DWORD PTR _this$[ebp], ecx

; 161  : 	DWORD dwID = pWnd->GetID();

  00009	8b 4d 08	 mov	 ecx, DWORD PTR _pWnd$[ebp]
  0000c	57		 push	 edi
  0000d	ff 15 00 00 00
	00		 call	 DWORD PTR __imp_?GetID@ioWnd@@QBEKXZ

; 162  : 	switch( dwID )

  00013	48		 dec	 eax
  00014	74 6e		 je	 SHORT $LN7@iwm_comman@2
  00016	48		 dec	 eax
  00017	0f 85 a1 00 00
	00		 jne	 $LN5@iwm_comman@2

; 170  : 		}
; 171  : 		break;
; 172  : 	case ID_USE:
; 173  : 		if( cmd == IOBN_BTNUP )

  0001d	83 7d 0c 11	 cmp	 DWORD PTR _cmd$[ebp], 17 ; 00000011H
  00021	0f 85 97 00 00
	00		 jne	 $LN5@iwm_comman@2

; 174  : 		{
; 175  : 			ioUserEtcItem *pUserEtcItem = g_MyInfo.GetUserEtcItem();

  00027	e8 00 00 00 00	 call	 ?GetSingleton@ioMyInfo@@SAAAV1@XZ ; ioMyInfo::GetSingleton
  0002c	8b d8		 mov	 ebx, eax
  0002e	81 c3 44 01 00
	00		 add	 ebx, 324		; 00000144H

; 176  : 			if( pUserEtcItem )

  00034	0f 84 84 00 00
	00		 je	 $LN5@iwm_comman@2

; 177  : 			{
; 178  : 				ioEtcItem *pEtcItem = g_EtcItemMgr.FindEtcItem( ioEtcItem::EIT_ETC_NAMEDTITLE_PREMIUM );

  0003a	8b 0d 00 00 00
	00		 mov	 ecx, DWORD PTR ?ms_Singleton@?$Singleton@VioEtcItemManager@@@@1PAVioEtcItemManager@@A ; Singleton<ioEtcItemManager>::ms_Singleton
  00040	be 53 68 0f 00	 mov	 esi, 1009747		; 000f6853H
  00045	56		 push	 esi
  00046	e8 00 00 00 00	 call	 ?FindEtcItem@ioEtcItemManager@@QAEPAVioEtcItem@@K@Z ; ioEtcItemManager::FindEtcItem
  0004b	8b f8		 mov	 edi, eax

; 179  : 				if( !pEtcItem )

  0004d	85 ff		 test	 edi, edi
  0004f	75 1d		 jne	 SHORT $LN1@iwm_comman@2

; 180  : 				{
; 181  : 					LOG.PrintTimeAndLog( 0, "%s pEtcItem == NULL : %d", __FUNCTION__, ioEtcItem::EIT_ETC_NAMEDTITLE_PREMIUM );

  00051	56		 push	 esi
  00052	68 00 00 00 00	 push	 OFFSET ??_C@_0CI@OJPJDNOM@NamedTitlePremiumResultWnd?3?3iwm_@
  00057	68 00 00 00 00	 push	 OFFSET ??_C@_0BJ@MBKFFGIH@?$CFs?5pEtcItem?5?$DN?$DN?5NULL?5?3?5?$CFd?$AA@
  0005c	50		 push	 eax
  0005d	ff 35 00 00 00
	00		 push	 DWORD PTR __imp_?LOG@@3VCLog@@A
  00063	ff 15 00 00 00
	00		 call	 DWORD PTR __imp_?PrintTimeAndLog@CLog@@QAAXHPADZZ
  00069	83 c4 14	 add	 esp, 20			; 00000014H

; 182  : 					return;

  0006c	eb 50		 jmp	 SHORT $LN5@iwm_comman@2
$LN1@iwm_comman@2:

; 183  : 				}
; 184  : 				HideWnd();

  0006e	8b 4d fc	 mov	 ecx, DWORD PTR _this$[ebp]
  00071	ff 15 00 00 00
	00		 call	 DWORD PTR __imp_?HideWnd@ioWnd@@QAEXXZ

; 185  : 
; 186  : 				pEtcItem->OnUseBtnPush( ioEtcItem::EIT_ETC_NAMEDTITLE_PREMIUM, pUserEtcItem );

  00077	8b 07		 mov	 eax, DWORD PTR [edi]
  00079	6a 01		 push	 1
  0007b	53		 push	 ebx
  0007c	56		 push	 esi
  0007d	8b cf		 mov	 ecx, edi
  0007f	ff 50 20	 call	 DWORD PTR [eax+32]

; 187  : 			}
; 188  : 		}
; 189  : 		break;

  00082	eb 3a		 jmp	 SHORT $LN5@iwm_comman@2
$LN7@iwm_comman@2:

; 163  : 	{
; 164  : 	case ID_GO:
; 165  : 		if( cmd == IOBN_BTNUP )

  00084	83 7d 0c 11	 cmp	 DWORD PTR _cmd$[ebp], 17 ; 00000011H
  00088	75 34		 jne	 SHORT $LN5@iwm_comman@2

; 166  : 		{
; 167  : 			NamedTitleSelectWnd *pWnd = dynamic_cast<NamedTitleSelectWnd*>( g_GUIMgr.FindWnd( NAMED_TITLE_SELECT_WND ) );

  0008a	6a 00		 push	 0
  0008c	68 00 00 00 00	 push	 OFFSET ??_R0?AVNamedTitleSelectWnd@@@8
  00091	68 00 00 00 00	 push	 OFFSET ??_R0?AVioWnd@@@8
  00096	6a 00		 push	 0
  00098	68 93 18 00 00	 push	 6291			; 00001893H
  0009d	e8 00 00 00 00	 call	 ?GetSingleton@ioSP2GUIManager@@SAAAV1@XZ ; ioSP2GUIManager::GetSingleton
  000a2	8b c8		 mov	 ecx, eax
  000a4	ff 15 00 00 00
	00		 call	 DWORD PTR __imp_?FindWnd@ioGUIManager@@QAEPAVioWnd@@K@Z
  000aa	50		 push	 eax
  000ab	e8 00 00 00 00	 call	 ___RTDynamicCast
  000b0	83 c4 14	 add	 esp, 20			; 00000014H

; 168  : 			if( pWnd )

  000b3	85 c0		 test	 eax, eax
  000b5	74 07		 je	 SHORT $LN5@iwm_comman@2

; 169  : 				pWnd->ShowSelectWnd();

  000b7	8b c8		 mov	 ecx, eax
  000b9	e8 00 00 00 00	 call	 ?ShowSelectWnd@NamedTitleSelectWnd@@QAEXXZ ; NamedTitleSelectWnd::ShowSelectWnd
$LN5@iwm_comman@2:
  000be	5f		 pop	 edi
  000bf	5e		 pop	 esi
  000c0	5b		 pop	 ebx

; 190  : 	}
; 191  : }

  000c1	c9		 leave
  000c2	c2 0c 00	 ret	 12			; 0000000cH
?iwm_command@NamedTitlePremiumResultWnd@@UAEXPAVioWnd@@HK@Z ENDP ; NamedTitlePremiumResultWnd::iwm_command
_TEXT	ENDS
PUBLIC	??_R0?AVioButton@@@8				; ioButton `RTTI Type Descriptor'
PUBLIC	?ReBatchButton@NamedTitlePremiumResultWnd@@IAEXXZ ; NamedTitlePremiumResultWnd::ReBatchButton
EXTRN	?GetEtcItem@ioUserEtcItem@@QAE_NHAAUETCITEMSLOT@1@@Z:PROC ; ioUserEtcItem::GetEtcItem
EXTRN	__imp_?ShowWnd@ioWnd@@QAEXXZ:PROC
EXTRN	__imp_?SetOffset@ioUITitle@@QAEXHH@Z:PROC
EXTRN	__imp_?GetTextYOffSet@ioUITitle@@QBEHXZ:PROC
EXTRN	__imp_?GetTitle@ioWnd@@QBEPAVioUITitle@@XZ:PROC
EXTRN	__imp_?SetWndPos@ioWnd@@QAEXHH@Z:PROC
EXTRN	__imp_?GetYPos@ioWnd@@QBEHXZ:PROC
EXTRN	__imp_?GetHeight@ioWnd@@QBEHXZ:PROC
EXTRN	__imp_?FindChildWnd@ioWnd@@QAEPAV1@K@Z:PROC
EXTRN	__imp_?HideChildWnd@ioWnd@@QAEXK_N@Z:PROC
;	COMDAT ??_R0?AVioButton@@@8
; File d:\lost saga for developer\youtube\tutorial\source\src\lsclient\iouseretcitem.h
_DATA	SEGMENT
??_R0?AVioButton@@@8 DD FLAT:??_7type_info@@6B@		; ioButton `RTTI Type Descriptor'
	DD	00H
	DB	'.?AVioButton@@', 00H
; Function compile flags: /Ogsp
; File d:\lost saga for developer\youtube\tutorial\source\src\lsclient\gui\namedtitleresultwnd.cpp
_DATA	ENDS
;	COMDAT ?ReBatchButton@NamedTitlePremiumResultWnd@@IAEXXZ
_TEXT	SEGMENT
_kSlot$ = -28						; size = 12
tv428 = -16						; size = 4
_pTitle$505851 = -16					; size = 4
_pUserEtcItem$ = -16					; size = 4
tv426 = -12						; size = 4
_pTitle$505838 = -12					; size = 4
_pButton$505848 = -8					; size = 4
_pButton$505835 = -8					; size = 4
_this$ = -4						; size = 4
?ReBatchButton@NamedTitlePremiumResultWnd@@IAEXXZ PROC	; NamedTitlePremiumResultWnd::ReBatchButton, COMDAT
; _this$ = ecx

; 247  : {

  00000	55		 push	 ebp
  00001	8b ec		 mov	 ebp, esp
  00003	83 ec 1c	 sub	 esp, 28			; 0000001cH
  00006	53		 push	 ebx
  00007	56		 push	 esi

; 248  : 	enum
; 249  : 	{
; 250  : 		ONE_BTN_SIZE	= 204,
; 251  : 		TWO_BTN_SIZE	= 102,
; 252  : 
; 253  : 		ONE_BTN_X		= 27,
; 254  : 		TWO_BTN_X		= 131,
; 255  : 
; 256  : 		ONE_TEXT_X		= 102,
; 257  : 		TWO_TEXT_X		= 51,
; 258  : 	};
; 259  : 
; 260  : 
; 261  : 	HideChildWnd( ID_USE );

  00008	8b 35 00 00 00
	00		 mov	 esi, DWORD PTR __imp_?HideChildWnd@ioWnd@@QAEXK_N@Z
  0000e	57		 push	 edi
  0000f	6a 00		 push	 0
  00011	6a 02		 push	 2
  00013	89 4d fc	 mov	 DWORD PTR _this$[ebp], ecx
  00016	ff d6		 call	 esi

; 262  : 	HideChildWnd( ID_GO );

  00018	8b 4d fc	 mov	 ecx, DWORD PTR _this$[ebp]
  0001b	6a 00		 push	 0
  0001d	6a 01		 push	 1
  0001f	ff d6		 call	 esi

; 263  : 
; 264  : 	// 
; 265  : 	ioUserEtcItem *pUserEtcItem = g_MyInfo.GetUserEtcItem();

  00021	e8 00 00 00 00	 call	 ?GetSingleton@ioMyInfo@@SAAAV1@XZ ; ioMyInfo::GetSingleton

; 266  : 	if( !pUserEtcItem )

  00026	8b 35 00 00 00
	00		 mov	 esi, DWORD PTR __imp_?FindChildWnd@ioWnd@@QAEPAV1@K@Z
  0002c	05 44 01 00 00	 add	 eax, 324		; 00000144H
  00031	89 45 f0	 mov	 DWORD PTR _pUserEtcItem$[ebp], eax
  00034	bb 00 00 00 00	 mov	 ebx, OFFSET ??_R0?AVioButton@@@8
  00039	bf 00 00 00 00	 mov	 edi, OFFSET ??_R0?AVioWnd@@@8
  0003e	75 7b		 jne	 SHORT $LN18@ReBatchBut

; 267  : 	{
; 268  : 		ioButton *pButton = dynamic_cast<ioButton*>(FindChildWnd(ID_GO));

  00040	8b 4d fc	 mov	 ecx, DWORD PTR _this$[ebp]
  00043	6a 00		 push	 0
  00045	53		 push	 ebx
  00046	57		 push	 edi
  00047	6a 00		 push	 0
  00049	6a 01		 push	 1
  0004b	ff d6		 call	 esi
  0004d	50		 push	 eax
  0004e	e8 00 00 00 00	 call	 ___RTDynamicCast
  00053	83 c4 14	 add	 esp, 20			; 00000014H
  00056	89 45 f8	 mov	 DWORD PTR _pButton$505835[ebp], eax

; 269  : 		if( pButton )

  00059	85 c0		 test	 eax, eax
  0005b	74 5e		 je	 SHORT $LN18@ReBatchBut

; 270  : 		{
; 271  : 			pButton->SetSize( ONE_BTN_SIZE, pButton->GetHeight() );

  0005d	8b 08		 mov	 ecx, DWORD PTR [eax]
  0005f	89 4d f4	 mov	 DWORD PTR tv426[ebp], ecx
  00062	8b c8		 mov	 ecx, eax
  00064	ff 15 00 00 00
	00		 call	 DWORD PTR __imp_?GetHeight@ioWnd@@QBEHXZ
  0006a	8b 4d f8	 mov	 ecx, DWORD PTR _pButton$505835[ebp]
  0006d	50		 push	 eax
  0006e	8b 45 f4	 mov	 eax, DWORD PTR tv426[ebp]
  00071	68 cc 00 00 00	 push	 204			; 000000ccH
  00076	ff 50 2c	 call	 DWORD PTR [eax+44]

; 272  : 			pButton->SetWndPos( ONE_BTN_X, pButton->GetYPos() );

  00079	8b 4d f8	 mov	 ecx, DWORD PTR _pButton$505835[ebp]
  0007c	ff 15 00 00 00
	00		 call	 DWORD PTR __imp_?GetYPos@ioWnd@@QBEHXZ
  00082	8b 4d f8	 mov	 ecx, DWORD PTR _pButton$505835[ebp]
  00085	50		 push	 eax
  00086	6a 1b		 push	 27			; 0000001bH
  00088	ff 15 00 00 00
	00		 call	 DWORD PTR __imp_?SetWndPos@ioWnd@@QAEXHH@Z

; 273  : 
; 274  : 			ioUITitle *pTitle =  pButton->GetTitle();

  0008e	8b 4d f8	 mov	 ecx, DWORD PTR _pButton$505835[ebp]
  00091	ff 15 00 00 00
	00		 call	 DWORD PTR __imp_?GetTitle@ioWnd@@QBEPAVioUITitle@@XZ
  00097	8b c8		 mov	 ecx, eax
  00099	89 4d f4	 mov	 DWORD PTR _pTitle$505838[ebp], ecx

; 275  : 			if( pTitle )

  0009c	85 c9		 test	 ecx, ecx
  0009e	74 12		 je	 SHORT $LN9@ReBatchBut

; 276  : 				pTitle->SetOffset( ONE_TEXT_X, pTitle->GetTextYOffSet() );

  000a0	ff 15 00 00 00
	00		 call	 DWORD PTR __imp_?GetTextYOffSet@ioUITitle@@QBEHXZ
  000a6	8b 4d f4	 mov	 ecx, DWORD PTR _pTitle$505838[ebp]
  000a9	50		 push	 eax
  000aa	6a 66		 push	 102			; 00000066H
  000ac	ff 15 00 00 00
	00		 call	 DWORD PTR __imp_?SetOffset@ioUITitle@@QAEXHH@Z
$LN9@ReBatchBut:

; 277  : 
; 278  : 			pButton->ShowWnd();

  000b2	8b 4d f8	 mov	 ecx, DWORD PTR _pButton$505835[ebp]
  000b5	ff 15 00 00 00
	00		 call	 DWORD PTR __imp_?ShowWnd@ioWnd@@QAEXXZ
$LN18@ReBatchBut:

; 279  : 		}
; 280  : 	}
; 281  : 
; 282  : 	ioUserEtcItem::ETCITEMSLOT kSlot;
; 283  : 	if( !pUserEtcItem->GetEtcItem( ioEtcItem::EIT_ETC_NAMEDTITLE_PREMIUM, kSlot ) )

  000bb	8b 4d f0	 mov	 ecx, DWORD PTR _pUserEtcItem$[ebp]
  000be	33 c0		 xor	 eax, eax
  000c0	89 45 e4	 mov	 DWORD PTR _kSlot$[ebp], eax
  000c3	89 45 e8	 mov	 DWORD PTR _kSlot$[ebp+4], eax
  000c6	89 45 ec	 mov	 DWORD PTR _kSlot$[ebp+8], eax
  000c9	8d 45 e4	 lea	 eax, DWORD PTR _kSlot$[ebp]
  000cc	50		 push	 eax
  000cd	68 53 68 0f 00	 push	 1009747			; 000f6853H
  000d2	e8 00 00 00 00	 call	 ?GetEtcItem@ioUserEtcItem@@QAE_NHAAUETCITEMSLOT@1@@Z ; ioUserEtcItem::GetEtcItem

; 284  : 	{
; 285  : 		ioButton *pButton = dynamic_cast<ioButton*>(FindChildWnd(ID_GO));

  000d7	8b 4d fc	 mov	 ecx, DWORD PTR _this$[ebp]
  000da	6a 00		 push	 0
  000dc	53		 push	 ebx
  000dd	57		 push	 edi
  000de	6a 00		 push	 0
  000e0	84 c0		 test	 al, al
  000e2	75 61		 jne	 SHORT $LN8@ReBatchBut
  000e4	6a 01		 push	 1
  000e6	ff d6		 call	 esi
  000e8	50		 push	 eax
  000e9	e8 00 00 00 00	 call	 ___RTDynamicCast
  000ee	8b f0		 mov	 esi, eax
  000f0	83 c4 14	 add	 esp, 20			; 00000014H

; 286  : 		if( pButton )

  000f3	85 f6		 test	 esi, esi
  000f5	0f 84 26 01 00
	00		 je	 $LN2@ReBatchBut

; 287  : 		{
; 288  : 			pButton->SetSize( ONE_BTN_SIZE, pButton->GetHeight() );

  000fb	8b 3e		 mov	 edi, DWORD PTR [esi]
  000fd	8b ce		 mov	 ecx, esi
  000ff	ff 15 00 00 00
	00		 call	 DWORD PTR __imp_?GetHeight@ioWnd@@QBEHXZ
  00105	50		 push	 eax
  00106	68 cc 00 00 00	 push	 204			; 000000ccH
  0010b	8b ce		 mov	 ecx, esi
  0010d	ff 57 2c	 call	 DWORD PTR [edi+44]

; 289  : 			pButton->SetWndPos( ONE_BTN_X, pButton->GetYPos() );

  00110	8b ce		 mov	 ecx, esi
  00112	ff 15 00 00 00
	00		 call	 DWORD PTR __imp_?GetYPos@ioWnd@@QBEHXZ
  00118	50		 push	 eax
  00119	6a 1b		 push	 27			; 0000001bH
  0011b	8b ce		 mov	 ecx, esi
  0011d	ff 15 00 00 00
	00		 call	 DWORD PTR __imp_?SetWndPos@ioWnd@@QAEXHH@Z

; 290  : 
; 291  : 			ioUITitle *pTitle =  pButton->GetTitle();

  00123	8b ce		 mov	 ecx, esi
  00125	ff 15 00 00 00
	00		 call	 DWORD PTR __imp_?GetTitle@ioWnd@@QBEPAVioUITitle@@XZ
  0012b	8b f8		 mov	 edi, eax

; 292  : 			if( pTitle )

  0012d	85 ff		 test	 edi, edi
  0012f	0f 84 e4 00 00
	00		 je	 $LN1@ReBatchBut

; 293  : 				pTitle->SetOffset( ONE_TEXT_X, pTitle->GetTextYOffSet() );

  00135	8b cf		 mov	 ecx, edi
  00137	ff 15 00 00 00
	00		 call	 DWORD PTR __imp_?GetTextYOffSet@ioUITitle@@QBEHXZ
  0013d	50		 push	 eax
  0013e	6a 66		 push	 102			; 00000066H

; 294  : 
; 295  : 			pButton->ShowWnd();
; 296  : 		}
; 297  : 	}
; 298  : 	else

  00140	e9 cc 00 00 00	 jmp	 $LN20@ReBatchBut
$LN8@ReBatchBut:

; 299  : 	{
; 300  : 		ioButton *pButton = dynamic_cast<ioButton*>(FindChildWnd(ID_USE));

  00145	6a 02		 push	 2
  00147	ff d6		 call	 esi
  00149	50		 push	 eax
  0014a	e8 00 00 00 00	 call	 ___RTDynamicCast
  0014f	83 c4 14	 add	 esp, 20			; 00000014H
  00152	89 45 f8	 mov	 DWORD PTR _pButton$505848[ebp], eax

; 301  : 		if( pButton )

  00155	85 c0		 test	 eax, eax
  00157	74 5b		 je	 SHORT $LN4@ReBatchBut

; 302  : 		{
; 303  : 			pButton->SetSize( TWO_BTN_SIZE, pButton->GetHeight() );

  00159	8b 08		 mov	 ecx, DWORD PTR [eax]
  0015b	89 4d f0	 mov	 DWORD PTR tv428[ebp], ecx
  0015e	8b c8		 mov	 ecx, eax
  00160	ff 15 00 00 00
	00		 call	 DWORD PTR __imp_?GetHeight@ioWnd@@QBEHXZ
  00166	8b 4d f8	 mov	 ecx, DWORD PTR _pButton$505848[ebp]
  00169	50		 push	 eax
  0016a	8b 45 f0	 mov	 eax, DWORD PTR tv428[ebp]
  0016d	6a 66		 push	 102			; 00000066H
  0016f	ff 50 2c	 call	 DWORD PTR [eax+44]

; 304  : 			pButton->SetWndPos( ONE_BTN_X, pButton->GetYPos() );

  00172	8b 4d f8	 mov	 ecx, DWORD PTR _pButton$505848[ebp]
  00175	ff 15 00 00 00
	00		 call	 DWORD PTR __imp_?GetYPos@ioWnd@@QBEHXZ
  0017b	8b 4d f8	 mov	 ecx, DWORD PTR _pButton$505848[ebp]
  0017e	50		 push	 eax
  0017f	6a 1b		 push	 27			; 0000001bH
  00181	ff 15 00 00 00
	00		 call	 DWORD PTR __imp_?SetWndPos@ioWnd@@QAEXHH@Z

; 305  : 
; 306  : 			ioUITitle *pTitle =  pButton->GetTitle();

  00187	8b 4d f8	 mov	 ecx, DWORD PTR _pButton$505848[ebp]
  0018a	ff 15 00 00 00
	00		 call	 DWORD PTR __imp_?GetTitle@ioWnd@@QBEPAVioUITitle@@XZ
  00190	8b c8		 mov	 ecx, eax
  00192	89 4d f0	 mov	 DWORD PTR _pTitle$505851[ebp], ecx

; 307  : 			if( pTitle )

  00195	85 c9		 test	 ecx, ecx
  00197	74 12		 je	 SHORT $LN3@ReBatchBut

; 308  : 				pTitle->SetOffset( TWO_TEXT_X, pTitle->GetTextYOffSet() );

  00199	ff 15 00 00 00
	00		 call	 DWORD PTR __imp_?GetTextYOffSet@ioUITitle@@QBEHXZ
  0019f	8b 4d f0	 mov	 ecx, DWORD PTR _pTitle$505851[ebp]
  001a2	50		 push	 eax
  001a3	6a 33		 push	 51			; 00000033H
  001a5	ff 15 00 00 00
	00		 call	 DWORD PTR __imp_?SetOffset@ioUITitle@@QAEXHH@Z
$LN3@ReBatchBut:

; 309  : 
; 310  : 			pButton->ShowWnd();

  001ab	8b 4d f8	 mov	 ecx, DWORD PTR _pButton$505848[ebp]
  001ae	ff 15 00 00 00
	00		 call	 DWORD PTR __imp_?ShowWnd@ioWnd@@QAEXXZ
$LN4@ReBatchBut:

; 311  : 		}
; 312  : 
; 313  : 		pButton = dynamic_cast<ioButton*>(FindChildWnd(ID_GO));

  001b4	8b 4d fc	 mov	 ecx, DWORD PTR _this$[ebp]
  001b7	6a 00		 push	 0
  001b9	53		 push	 ebx
  001ba	57		 push	 edi
  001bb	6a 00		 push	 0
  001bd	6a 01		 push	 1
  001bf	ff d6		 call	 esi
  001c1	50		 push	 eax
  001c2	e8 00 00 00 00	 call	 ___RTDynamicCast
  001c7	8b f0		 mov	 esi, eax
  001c9	83 c4 14	 add	 esp, 20			; 00000014H

; 314  : 		if( pButton )

  001cc	85 f6		 test	 esi, esi
  001ce	74 51		 je	 SHORT $LN2@ReBatchBut

; 315  : 		{
; 316  : 			pButton->SetSize( TWO_BTN_SIZE, pButton->GetHeight() );

  001d0	8b 3e		 mov	 edi, DWORD PTR [esi]
  001d2	8b ce		 mov	 ecx, esi
  001d4	ff 15 00 00 00
	00		 call	 DWORD PTR __imp_?GetHeight@ioWnd@@QBEHXZ
  001da	50		 push	 eax
  001db	6a 66		 push	 102			; 00000066H
  001dd	8b ce		 mov	 ecx, esi
  001df	ff 57 2c	 call	 DWORD PTR [edi+44]

; 317  : 			pButton->SetWndPos( TWO_BTN_X, pButton->GetYPos() );

  001e2	8b ce		 mov	 ecx, esi
  001e4	ff 15 00 00 00
	00		 call	 DWORD PTR __imp_?GetYPos@ioWnd@@QBEHXZ
  001ea	50		 push	 eax
  001eb	68 83 00 00 00	 push	 131			; 00000083H
  001f0	8b ce		 mov	 ecx, esi
  001f2	ff 15 00 00 00
	00		 call	 DWORD PTR __imp_?SetWndPos@ioWnd@@QAEXHH@Z

; 318  : 
; 319  : 			ioUITitle *pTitle =  pButton->GetTitle();

  001f8	8b ce		 mov	 ecx, esi
  001fa	ff 15 00 00 00
	00		 call	 DWORD PTR __imp_?GetTitle@ioWnd@@QBEPAVioUITitle@@XZ
  00200	8b f8		 mov	 edi, eax

; 320  : 			if( pTitle )

  00202	85 ff		 test	 edi, edi
  00204	74 13		 je	 SHORT $LN1@ReBatchBut

; 321  : 				pTitle->SetOffset( TWO_TEXT_X, pTitle->GetTextYOffSet() );

  00206	8b cf		 mov	 ecx, edi
  00208	ff 15 00 00 00
	00		 call	 DWORD PTR __imp_?GetTextYOffSet@ioUITitle@@QBEHXZ
  0020e	50		 push	 eax
  0020f	6a 33		 push	 51			; 00000033H
$LN20@ReBatchBut:
  00211	8b cf		 mov	 ecx, edi
  00213	ff 15 00 00 00
	00		 call	 DWORD PTR __imp_?SetOffset@ioUITitle@@QAEXHH@Z
$LN1@ReBatchBut:

; 322  : 
; 323  : 			pButton->ShowWnd();

  00219	8b ce		 mov	 ecx, esi
  0021b	ff 15 00 00 00
	00		 call	 DWORD PTR __imp_?ShowWnd@ioWnd@@QAEXXZ
$LN2@ReBatchBut:
  00221	5f		 pop	 edi
  00222	5e		 pop	 esi
  00223	5b		 pop	 ebx

; 324  : 		}
; 325  : 	}
; 326  : }

  00224	c9		 leave
  00225	c3		 ret	 0
?ReBatchButton@NamedTitlePremiumResultWnd@@IAEXXZ ENDP	; NamedTitlePremiumResultWnd::ReBatchButton
_TEXT	ENDS
PUBLIC	__$ArrayPad$
PUBLIC	??$?8$0M@@@YA_NABVioHashString@@AAY0M@$$CBD@Z	; operator==<12>
EXTRN	__imp_?c_str@ioHashString@@QBEPBDXZ:PROC
EXTRN	___security_cookie:DWORD
; Function compile flags: /Ogsp
; File d:\lost saga for developer\youtube\tutorial\source\src\io3dengine\iohashstring.h
;	COMDAT ??$?8$0M@@@YA_NABVioHashString@@AAY0M@$$CBD@Z
_TEXT	SEGMENT
__t$ = -20						; size = 12
__$ArrayPad$ = -4					; size = 4
_lhs$ = 8						; size = 4
_t$ = 12						; size = 4
??$?8$0M@@@YA_NABVioHashString@@AAY0M@$$CBD@Z PROC	; operator==<12>, COMDAT

; 146  : {

  00000	55		 push	 ebp
  00001	8b ec		 mov	 ebp, esp
  00003	83 ec 14	 sub	 esp, 20			; 00000014H
  00006	a1 00 00 00 00	 mov	 eax, DWORD PTR ___security_cookie
  0000b	33 c5		 xor	 eax, ebp
  0000d	89 45 fc	 mov	 DWORD PTR __$ArrayPad$[ebp], eax
  00010	8b 45 0c	 mov	 eax, DWORD PTR _t$[ebp]

; 147  : 	_ENCSTR(t, _t); return ( strcmp( lhs.c_str(), _t ) == 0 );

  00013	8a 10		 mov	 dl, BYTE PTR [eax]
  00015	56		 push	 esi
  00016	57		 push	 edi
  00017	8b 7d 08	 mov	 edi, DWORD PTR _lhs$[ebp]
  0001a	84 d2		 test	 dl, dl
  0001c	0f 84 32 01 00
	00		 je	 $LN96@operator
  00022	80 f2 ed	 xor	 dl, -19			; ffffffedH
  00025	88 55 ec	 mov	 BYTE PTR __t$[ebp], dl
  00028	8a 50 01	 mov	 dl, BYTE PTR [eax+1]
  0002b	84 d2		 test	 dl, dl
  0002d	0f 84 1b 01 00
	00		 je	 $LN95@operator
  00033	80 f2 ec	 xor	 dl, -20			; ffffffecH
  00036	88 55 ed	 mov	 BYTE PTR __t$[ebp+1], dl
  00039	8a 50 02	 mov	 dl, BYTE PTR [eax+2]
  0003c	84 d2		 test	 dl, dl
  0003e	0f 84 04 01 00
	00		 je	 $LN94@operator
  00044	b1 eb		 mov	 cl, -21			; ffffffebH
  00046	32 d1		 xor	 dl, cl
  00048	88 55 ee	 mov	 BYTE PTR __t$[ebp+2], dl
  0004b	8a 50 03	 mov	 dl, BYTE PTR [eax+3]
  0004e	84 d2		 test	 dl, dl
  00050	0f 84 ec 00 00
	00		 je	 $LN93@operator
  00056	80 f2 ea	 xor	 dl, -22			; ffffffeaH
  00059	88 55 ef	 mov	 BYTE PTR __t$[ebp+3], dl
  0005c	8a 50 04	 mov	 dl, BYTE PTR [eax+4]
  0005f	84 d2		 test	 dl, dl
  00061	0f 84 d5 00 00
	00		 je	 $LN92@operator
  00067	80 f2 ed	 xor	 dl, -19			; ffffffedH
  0006a	88 55 f0	 mov	 BYTE PTR __t$[ebp+4], dl
  0006d	8a 50 05	 mov	 dl, BYTE PTR [eax+5]
  00070	84 d2		 test	 dl, dl
  00072	0f 84 be 00 00
	00		 je	 $LN91@operator
  00078	80 f2 ec	 xor	 dl, -20			; ffffffecH
  0007b	88 55 f1	 mov	 BYTE PTR __t$[ebp+5], dl
  0007e	8a 50 06	 mov	 dl, BYTE PTR [eax+6]
  00081	84 d2		 test	 dl, dl
  00083	0f 84 a8 00 00
	00		 je	 $LN90@operator
  00089	32 d1		 xor	 dl, cl
  0008b	88 55 f2	 mov	 BYTE PTR __t$[ebp+6], dl
  0008e	8a 50 07	 mov	 dl, BYTE PTR [eax+7]
  00091	84 d2		 test	 dl, dl
  00093	0f 84 92 00 00
	00		 je	 $LN89@operator
  00099	80 f2 ea	 xor	 dl, -22			; ffffffeaH
  0009c	88 55 f3	 mov	 BYTE PTR __t$[ebp+7], dl
  0009f	8a 50 08	 mov	 dl, BYTE PTR [eax+8]
  000a2	84 d2		 test	 dl, dl
  000a4	74 7f		 je	 SHORT $LN88@operator
  000a6	80 f2 ed	 xor	 dl, -19			; ffffffedH
  000a9	88 55 f4	 mov	 BYTE PTR __t$[ebp+8], dl
  000ac	8a 50 09	 mov	 dl, BYTE PTR [eax+9]
  000af	84 d2		 test	 dl, dl
  000b1	74 6c		 je	 SHORT $LN87@operator
  000b3	80 f2 ec	 xor	 dl, -20			; ffffffecH
  000b6	88 55 f5	 mov	 BYTE PTR __t$[ebp+9], dl
  000b9	8a 50 0a	 mov	 dl, BYTE PTR [eax+10]
  000bc	84 d2		 test	 dl, dl
  000be	74 5a		 je	 SHORT $LN86@operator
  000c0	32 d1		 xor	 dl, cl
  000c2	80 78 0b 00	 cmp	 BYTE PTR [eax+11], 0
  000c6	88 55 f6	 mov	 BYTE PTR __t$[ebp+10], dl
  000c9	0f 84 89 00 00
	00		 je	 $LN1@operator
  000cf	8a 50 0c	 mov	 dl, BYTE PTR [eax+12]
  000d2	84 d2		 test	 dl, dl
  000d4	74 3e		 je	 SHORT $LN84@operator
  000d6	80 f2 ed	 xor	 dl, -19			; ffffffedH
  000d9	88 55 f8	 mov	 BYTE PTR __t$[ebp+12], dl
  000dc	8a 50 0d	 mov	 dl, BYTE PTR [eax+13]
  000df	84 d2		 test	 dl, dl
  000e1	74 2b		 je	 SHORT $LN83@operator
  000e3	80 f2 ec	 xor	 dl, -20			; ffffffecH
  000e6	88 55 f9	 mov	 BYTE PTR __t$[ebp+13], dl
  000e9	8a 50 0e	 mov	 dl, BYTE PTR [eax+14]
  000ec	84 d2		 test	 dl, dl
  000ee	74 19		 je	 SHORT $LN82@operator
  000f0	8a 40 0f	 mov	 al, BYTE PTR [eax+15]
  000f3	32 d1		 xor	 dl, cl
  000f5	88 55 fa	 mov	 BYTE PTR __t$[ebp+14], dl
  000f8	84 c0		 test	 al, al
  000fa	74 07		 je	 SHORT $LN81@operator
  000fc	34 ea		 xor	 al, -22			; ffffffeaH
  000fe	88 45 fb	 mov	 BYTE PTR __t$[ebp+15], al
  00101	eb 55		 jmp	 SHORT $LN1@operator
$LN81@operator:
  00103	c6 45 fb ea	 mov	 BYTE PTR __t$[ebp+15], -22 ; ffffffeaH
  00107	eb 4f		 jmp	 SHORT $LN1@operator
$LN82@operator:
  00109	88 4d fa	 mov	 BYTE PTR __t$[ebp+14], cl
  0010c	eb 4a		 jmp	 SHORT $LN1@operator
$LN83@operator:
  0010e	c6 45 f9 ec	 mov	 BYTE PTR __t$[ebp+13], -20 ; ffffffecH
  00112	eb 44		 jmp	 SHORT $LN1@operator
$LN84@operator:
  00114	c6 45 f8 ed	 mov	 BYTE PTR __t$[ebp+12], -19 ; ffffffedH
  00118	eb 3e		 jmp	 SHORT $LN1@operator
$LN86@operator:
  0011a	88 4d f6	 mov	 BYTE PTR __t$[ebp+10], cl
  0011d	eb 39		 jmp	 SHORT $LN1@operator
$LN87@operator:
  0011f	c6 45 f5 ec	 mov	 BYTE PTR __t$[ebp+9], -20 ; ffffffecH
  00123	eb 33		 jmp	 SHORT $LN1@operator
$LN88@operator:
  00125	c6 45 f4 ed	 mov	 BYTE PTR __t$[ebp+8], -19 ; ffffffedH
  00129	eb 2d		 jmp	 SHORT $LN1@operator
$LN89@operator:
  0012b	c6 45 f3 ea	 mov	 BYTE PTR __t$[ebp+7], -22 ; ffffffeaH
  0012f	eb 27		 jmp	 SHORT $LN1@operator
$LN90@operator:
  00131	88 4d f2	 mov	 BYTE PTR __t$[ebp+6], cl
  00134	eb 22		 jmp	 SHORT $LN1@operator
$LN91@operator:
  00136	c6 45 f1 ec	 mov	 BYTE PTR __t$[ebp+5], -20 ; ffffffecH
  0013a	eb 1c		 jmp	 SHORT $LN1@operator
$LN92@operator:
  0013c	c6 45 f0 ed	 mov	 BYTE PTR __t$[ebp+4], -19 ; ffffffedH
  00140	eb 16		 jmp	 SHORT $LN1@operator
$LN93@operator:
  00142	c6 45 ef ea	 mov	 BYTE PTR __t$[ebp+3], -22 ; ffffffeaH
  00146	eb 10		 jmp	 SHORT $LN1@operator
$LN94@operator:
  00148	c6 45 ee eb	 mov	 BYTE PTR __t$[ebp+2], -21 ; ffffffebH
  0014c	eb 0a		 jmp	 SHORT $LN1@operator
$LN95@operator:
  0014e	c6 45 ed ec	 mov	 BYTE PTR __t$[ebp+1], -20 ; ffffffecH
  00152	eb 04		 jmp	 SHORT $LN1@operator
$LN96@operator:
  00154	c6 45 ec ed	 mov	 BYTE PTR __t$[ebp], -19	; ffffffedH
$LN1@operator:
  00158	6a 02		 push	 2
  0015a	8d 45 ec	 lea	 eax, DWORD PTR __t$[ebp]
  0015d	c6 45 f7 00	 mov	 BYTE PTR __t$[ebp+11], 0
  00161	5a		 pop	 edx
$LL104@operator:
  00162	81 30 ed ec eb
	ea		 xor	 DWORD PTR [eax], -353637139 ; eaebecedH
  00168	83 c0 04	 add	 eax, 4
  0016b	4a		 dec	 edx
  0016c	75 f4		 jne	 SHORT $LL104@operator
  0016e	6a 08		 push	 8
  00170	58		 pop	 eax
$LL101@operator:
  00171	8b c8		 mov	 ecx, eax
  00173	81 e1 03 00 00
	80		 and	 ecx, -2147483645	; 80000003H
  00179	79 05		 jns	 SHORT $LN115@operator
  0017b	49		 dec	 ecx
  0017c	83 c9 fc	 or	 ecx, -4			; fffffffcH
  0017f	41		 inc	 ecx
$LN115@operator:
  00180	b2 ed		 mov	 dl, -19			; ffffffedH
  00182	2a d1		 sub	 dl, cl
  00184	30 54 05 ec	 xor	 BYTE PTR __t$[ebp+eax], dl
  00188	40		 inc	 eax
  00189	83 f8 0b	 cmp	 eax, 11			; 0000000bH
  0018c	7c e3		 jl	 SHORT $LL101@operator
  0018e	8b cf		 mov	 ecx, edi
  00190	8d 75 ec	 lea	 esi, DWORD PTR __t$[ebp]
  00193	ff 15 00 00 00
	00		 call	 DWORD PTR __imp_?c_str@ioHashString@@QBEPBDXZ
$LL111@operator:
  00199	8a 08		 mov	 cl, BYTE PTR [eax]
  0019b	3a 0e		 cmp	 cl, BYTE PTR [esi]
  0019d	75 1a		 jne	 SHORT $LN112@operator
  0019f	84 c9		 test	 cl, cl
  001a1	74 12		 je	 SHORT $LN113@operator
  001a3	8a 48 01	 mov	 cl, BYTE PTR [eax+1]
  001a6	3a 4e 01	 cmp	 cl, BYTE PTR [esi+1]
  001a9	75 0e		 jne	 SHORT $LN112@operator
  001ab	83 c0 02	 add	 eax, 2
  001ae	83 c6 02	 add	 esi, 2
  001b1	84 c9		 test	 cl, cl
  001b3	75 e4		 jne	 SHORT $LL111@operator
$LN113@operator:
  001b5	33 c0		 xor	 eax, eax
  001b7	eb 05		 jmp	 SHORT $LN114@operator
$LN112@operator:
  001b9	1b c0		 sbb	 eax, eax
  001bb	83 d8 ff	 sbb	 eax, -1
$LN114@operator:
  001be	33 c9		 xor	 ecx, ecx
  001c0	85 c0		 test	 eax, eax
  001c2	0f 94 c0	 sete	 al

; 148  : }

  001c5	8b 4d fc	 mov	 ecx, DWORD PTR __$ArrayPad$[ebp]
  001c8	5f		 pop	 edi
  001c9	33 cd		 xor	 ecx, ebp
  001cb	5e		 pop	 esi
  001cc	e8 00 00 00 00	 call	 @__security_check_cookie@4
  001d1	c9		 leave
  001d2	c3		 ret	 0
??$?8$0M@@@YA_NABVioHashString@@AAY0M@$$CBD@Z ENDP	; operator==<12>
_TEXT	ENDS
PUBLIC	?IsEmpty@ioComplexStringPrinter@@QBE_NXZ	; ioComplexStringPrinter::IsEmpty
; Function compile flags: /Ogsp
; File d:\lost saga for developer\youtube\tutorial\source\src\lsclient\iocomplexstringprinter.h
;	COMDAT ?IsEmpty@ioComplexStringPrinter@@QBE_NXZ
_TEXT	SEGMENT
?IsEmpty@ioComplexStringPrinter@@QBE_NXZ PROC		; ioComplexStringPrinter::IsEmpty, COMDAT
; _this$ = ecx

; 124  : 	inline bool IsEmpty() const { return m_vPieceList.empty(); }

  00000	8b 41 0c	 mov	 eax, DWORD PTR [ecx+12]
  00003	2b 41 10	 sub	 eax, DWORD PTR [ecx+16]
  00006	f7 d8		 neg	 eax
  00008	1b c0		 sbb	 eax, eax
  0000a	40		 inc	 eax
  0000b	c3		 ret	 0
?IsEmpty@ioComplexStringPrinter@@QBE_NXZ ENDP		; ioComplexStringPrinter::IsEmpty
_TEXT	ENDS
PUBLIC	??0?$_Vector_val@UtagNamedTitleGrade@@V?$allocator@UtagNamedTitleGrade@@@std@@@std@@QAE@V?$allocator@UtagNamedTitleGrade@@@1@@Z ; std::_Vector_val<tagNamedTitleGrade,std::allocator<tagNamedTitleGrade> >::_Vector_val<tagNamedTitleGrade,std::allocator<tagNamedTitleGrade> >
; Function compile flags: /Ogsp
; File c:\program files (x86)\microsoft visual studio 10.0\vc\include\vector
;	COMDAT ??0?$_Vector_val@UtagNamedTitleGrade@@V?$allocator@UtagNamedTitleGrade@@@std@@@std@@QAE@V?$allocator@UtagNamedTitleGrade@@@1@@Z
_TEXT	SEGMENT
__Al$ = 8						; size = 1
??0?$_Vector_val@UtagNamedTitleGrade@@V?$allocator@UtagNamedTitleGrade@@@std@@@std@@QAE@V?$allocator@UtagNamedTitleGrade@@@1@@Z PROC ; std::_Vector_val<tagNamedTitleGrade,std::allocator<tagNamedTitleGrade> >::_Vector_val<tagNamedTitleGrade,std::allocator<tagNamedTitleGrade> >, COMDAT
; _this$ = ecx

; 426  : 		{	// construct allocator from _Al

  00000	8b c1		 mov	 eax, ecx

; 427  : 		_Myfirst = 0;

  00002	33 c9		 xor	 ecx, ecx
  00004	89 08		 mov	 DWORD PTR [eax], ecx

; 428  : 		_Mylast = 0;

  00006	89 48 04	 mov	 DWORD PTR [eax+4], ecx

; 429  : 		_Myend = 0;

  00009	89 48 08	 mov	 DWORD PTR [eax+8], ecx

; 430  : 		}

  0000c	c2 04 00	 ret	 4
??0?$_Vector_val@UtagNamedTitleGrade@@V?$allocator@UtagNamedTitleGrade@@@std@@@std@@QAE@V?$allocator@UtagNamedTitleGrade@@@1@@Z ENDP ; std::_Vector_val<tagNamedTitleGrade,std::allocator<tagNamedTitleGrade> >::_Vector_val<tagNamedTitleGrade,std::allocator<tagNamedTitleGrade> >
_TEXT	ENDS
PUBLIC	??0?$_Vector_iterator@V?$_Vector_val@UtagNamedTitleGrade@@V?$allocator@UtagNamedTitleGrade@@@std@@@std@@@std@@QAE@PAUtagNamedTitleGrade@@PBU_Container_base0@1@@Z ; std::_Vector_iterator<std::_Vector_val<tagNamedTitleGrade,std::allocator<tagNamedTitleGrade> > >::_Vector_iterator<std::_Vector_val<tagNamedTitleGrade,std::allocator<tagNamedTitleGrade> > >
; Function compile flags: /Ogsp
;	COMDAT ??0?$_Vector_iterator@V?$_Vector_val@UtagNamedTitleGrade@@V?$allocator@UtagNamedTitleGrade@@@std@@@std@@@std@@QAE@PAUtagNamedTitleGrade@@PBU_Container_base0@1@@Z
_TEXT	SEGMENT
__Parg$ = 8						; size = 4
__Pvector$ = 12						; size = 4
??0?$_Vector_iterator@V?$_Vector_val@UtagNamedTitleGrade@@V?$allocator@UtagNamedTitleGrade@@@std@@@std@@@std@@QAE@PAUtagNamedTitleGrade@@PBU_Container_base0@1@@Z PROC ; std::_Vector_iterator<std::_Vector_val<tagNamedTitleGrade,std::allocator<tagNamedTitleGrade> > >::_Vector_iterator<std::_Vector_val<tagNamedTitleGrade,std::allocator<tagNamedTitleGrade> > >, COMDAT
; _this$ = ecx

; 304  : 		{	// construct with pointer _Parg

  00000	55		 push	 ebp
  00001	8b ec		 mov	 ebp, esp
  00003	8b c1		 mov	 eax, ecx
  00005	8b 4d 08	 mov	 ecx, DWORD PTR __Parg$[ebp]
  00008	89 08		 mov	 DWORD PTR [eax], ecx

; 305  : 		}

  0000a	5d		 pop	 ebp
  0000b	c2 08 00	 ret	 8
??0?$_Vector_iterator@V?$_Vector_val@UtagNamedTitleGrade@@V?$allocator@UtagNamedTitleGrade@@@std@@@std@@@std@@QAE@PAUtagNamedTitleGrade@@PBU_Container_base0@1@@Z ENDP ; std::_Vector_iterator<std::_Vector_val<tagNamedTitleGrade,std::allocator<tagNamedTitleGrade> > >::_Vector_iterator<std::_Vector_val<tagNamedTitleGrade,std::allocator<tagNamedTitleGrade> > >
_TEXT	ENDS
PUBLIC	??8?$_Vector_const_iterator@V?$_Vector_val@UtagNamedTitleGrade@@V?$allocator@UtagNamedTitleGrade@@@std@@@std@@@std@@QBE_NABV01@@Z ; std::_Vector_const_iterator<std::_Vector_val<tagNamedTitleGrade,std::allocator<tagNamedTitleGrade> > >::operator==
; Function compile flags: /Ogsp
;	COMDAT ??8?$_Vector_const_iterator@V?$_Vector_val@UtagNamedTitleGrade@@V?$allocator@UtagNamedTitleGrade@@@std@@@std@@@std@@QBE_NABV01@@Z
_TEXT	SEGMENT
__Right$ = 8						; size = 4
??8?$_Vector_const_iterator@V?$_Vector_val@UtagNamedTitleGrade@@V?$allocator@UtagNamedTitleGrade@@@std@@@std@@@std@@QBE_NABV01@@Z PROC ; std::_Vector_const_iterator<std::_Vector_val<tagNamedTitleGrade,std::allocator<tagNamedTitleGrade> > >::operator==, COMDAT
; _this$ = ecx

; 201  : 		{	// test for iterator equality

  00000	55		 push	 ebp
  00001	8b ec		 mov	 ebp, esp

; 202  : 		_Compat(_Right);
; 203  : 		return (this->_Ptr == _Right._Ptr);

  00003	8b 01		 mov	 eax, DWORD PTR [ecx]
  00005	8b 4d 08	 mov	 ecx, DWORD PTR __Right$[ebp]
  00008	2b 01		 sub	 eax, DWORD PTR [ecx]
  0000a	f7 d8		 neg	 eax
  0000c	1b c0		 sbb	 eax, eax
  0000e	40		 inc	 eax

; 204  : 		}

  0000f	5d		 pop	 ebp
  00010	c2 04 00	 ret	 4
??8?$_Vector_const_iterator@V?$_Vector_val@UtagNamedTitleGrade@@V?$allocator@UtagNamedTitleGrade@@@std@@@std@@@std@@QBE_NABV01@@Z ENDP ; std::_Vector_const_iterator<std::_Vector_val<tagNamedTitleGrade,std::allocator<tagNamedTitleGrade> > >::operator==
_TEXT	ENDS
PUBLIC	??$_Move@PAUtagNamedTitleGrade@@PAU1@@std@@YAPAUtagNamedTitleGrade@@PAU1@00U_Nonscalar_ptr_iterator_tag@0@@Z ; std::_Move<tagNamedTitleGrade *,tagNamedTitleGrade *>
; Function compile flags: /Ogsp
; File c:\program files (x86)\microsoft visual studio 10.0\vc\include\xutility
;	COMDAT ??$_Move@PAUtagNamedTitleGrade@@PAU1@@std@@YAPAUtagNamedTitleGrade@@PAU1@00U_Nonscalar_ptr_iterator_tag@0@@Z
_TEXT	SEGMENT
__First$ = 8						; size = 4
__Last$ = 12						; size = 4
__Dest$ = 16						; size = 4
___formal$ = 20						; size = 1
??$_Move@PAUtagNamedTitleGrade@@PAU1@@std@@YAPAUtagNamedTitleGrade@@PAU1@00U_Nonscalar_ptr_iterator_tag@0@@Z PROC ; std::_Move<tagNamedTitleGrade *,tagNamedTitleGrade *>, COMDAT

; 2512 : 	{	// move [_First, _Last) to [_Dest, ...), arbitrary iterators

  00000	55		 push	 ebp
  00001	8b ec		 mov	 ebp, esp
  00003	56		 push	 esi

; 2513 : 	for (; _First != _Last; ++_Dest, ++_First)

  00004	8b 75 08	 mov	 esi, DWORD PTR __First$[ebp]
  00007	57		 push	 edi
  00008	8b 7d 10	 mov	 edi, DWORD PTR __Dest$[ebp]
$LN13@Move:
  0000b	3b 75 0c	 cmp	 esi, DWORD PTR __Last$[ebp]
  0000e	74 19		 je	 SHORT $LN1@Move

; 2514 : 		*_Dest = _STD move(*_First);

  00010	8b 06		 mov	 eax, DWORD PTR [esi]
  00012	89 07		 mov	 DWORD PTR [edi], eax
  00014	8d 46 04	 lea	 eax, DWORD PTR [esi+4]
  00017	50		 push	 eax
  00018	8d 4f 04	 lea	 ecx, DWORD PTR [edi+4]
  0001b	ff 15 00 00 00
	00		 call	 DWORD PTR __imp_??4ioHashString@@QAEAAV0@ABV0@@Z
  00021	83 c7 14	 add	 edi, 20			; 00000014H
  00024	83 c6 14	 add	 esi, 20			; 00000014H
  00027	eb e2		 jmp	 SHORT $LN13@Move
$LN1@Move:

; 2515 : 	return (_Dest);

  00029	8b c7		 mov	 eax, edi
  0002b	5f		 pop	 edi
  0002c	5e		 pop	 esi

; 2516 : 	}

  0002d	5d		 pop	 ebp
  0002e	c3		 ret	 0
??$_Move@PAUtagNamedTitleGrade@@PAU1@@std@@YAPAUtagNamedTitleGrade@@PAU1@00U_Nonscalar_ptr_iterator_tag@0@@Z ENDP ; std::_Move<tagNamedTitleGrade *,tagNamedTitleGrade *>
_TEXT	ENDS
PUBLIC	??_GtagNamedTitleGrade@@QAEPAXI@Z		; tagNamedTitleGrade::`scalar deleting destructor'
; Function compile flags: /Ogsp
;	COMDAT ??_GtagNamedTitleGrade@@QAEPAXI@Z
_TEXT	SEGMENT
___flags$ = 8						; size = 4
??_GtagNamedTitleGrade@@QAEPAXI@Z PROC			; tagNamedTitleGrade::`scalar deleting destructor', COMDAT
; _this$ = ecx
  00000	55		 push	 ebp
  00001	8b ec		 mov	 ebp, esp
  00003	56		 push	 esi
  00004	8b f1		 mov	 esi, ecx
  00006	8d 4e 04	 lea	 ecx, DWORD PTR [esi+4]
  00009	ff 15 00 00 00
	00		 call	 DWORD PTR __imp_??1ioHashString@@QAE@XZ
  0000f	f6 45 08 01	 test	 BYTE PTR ___flags$[ebp], 1
  00013	74 07		 je	 SHORT $LN1@scalar@3
  00015	56		 push	 esi
  00016	e8 00 00 00 00	 call	 ??3@YAXPAX@Z		; operator delete
  0001b	59		 pop	 ecx
$LN1@scalar@3:
  0001c	8b c6		 mov	 eax, esi
  0001e	5e		 pop	 esi
  0001f	5d		 pop	 ebp
  00020	c2 04 00	 ret	 4
??_GtagNamedTitleGrade@@QAEPAXI@Z ENDP			; tagNamedTitleGrade::`scalar deleting destructor'
_TEXT	ENDS
PUBLIC	_this$GSCopy$
PUBLIC	__$ArrayPad$
EXTRN	__imp_?AddRenderImage@ioWnd@@UAEXABVioHashString@@PAVioUIRenderImage@@@Z:PROC
; Function compile flags: /Ogsp
; File d:\lost saga for developer\youtube\tutorial\source\src\lsclient\gui\namedtitleresultwnd.cpp
;	COMDAT ?AddRenderImage@NamedTitleResultWnd@@UAEXABVioHashString@@PAVioUIRenderImage@@@Z
_TEXT	SEGMENT
_this$GSCopy$ = -24					; size = 4
__t$506503 = -20					; size = 12
__$ArrayPad$ = -4					; size = 4
_szType$ = 8						; size = 4
_pImage$ = 12						; size = 4
?AddRenderImage@NamedTitleResultWnd@@UAEXABVioHashString@@PAVioUIRenderImage@@@Z PROC ; NamedTitleResultWnd::AddRenderImage, COMDAT
; _this$ = ecx

; 39   : {

  00000	55		 push	 ebp
  00001	8b ec		 mov	 ebp, esp
  00003	83 ec 18	 sub	 esp, 24			; 00000018H
  00006	a1 00 00 00 00	 mov	 eax, DWORD PTR ___security_cookie
  0000b	33 c5		 xor	 eax, ebp
  0000d	89 45 fc	 mov	 DWORD PTR __$ArrayPad$[ebp], eax
  00010	53		 push	 ebx
  00011	8b 5d 0c	 mov	 ebx, DWORD PTR _pImage$[ebp]
  00014	56		 push	 esi
  00015	57		 push	 edi
  00016	8b 7d 08	 mov	 edi, DWORD PTR _szType$[ebp]

; 40   : 	if( szType == "back_effect" )

  00019	6a 02		 push	 2
  0001b	89 4d e8	 mov	 DWORD PTR _this$GSCopy$[ebp], ecx
  0001e	c7 45 ec 8f 8d
	88 81		 mov	 DWORD PTR __t$506503[ebp], -2121757297 ; 81888d8fH
  00025	c7 45 f0 b2 89
	8d 8c		 mov	 DWORD PTR __t$506503[ebp+4], -1936881230 ; 8c8d89b2H
  0002c	8d 45 ec	 lea	 eax, DWORD PTR __t$506503[ebp]
  0002f	c7 45 f4 88 8f
	9f 00		 mov	 DWORD PTR __t$506503[ebp+8], 10456968 ; 009f8f88H
  00036	59		 pop	 ecx
$LL111@AddRenderI:
  00037	81 30 ed ec eb
	ea		 xor	 DWORD PTR [eax], -353637139 ; eaebecedH
  0003d	83 c0 04	 add	 eax, 4
  00040	49		 dec	 ecx
  00041	75 f4		 jne	 SHORT $LL111@AddRenderI
  00043	6a 08		 push	 8
  00045	58		 pop	 eax
$LL108@AddRenderI:
  00046	8b c8		 mov	 ecx, eax
  00048	81 e1 03 00 00
	80		 and	 ecx, -2147483645	; 80000003H
  0004e	79 05		 jns	 SHORT $LN122@AddRenderI
  00050	49		 dec	 ecx
  00051	83 c9 fc	 or	 ecx, -4			; fffffffcH
  00054	41		 inc	 ecx
$LN122@AddRenderI:
  00055	b2 ed		 mov	 dl, -19			; ffffffedH
  00057	2a d1		 sub	 dl, cl
  00059	30 54 05 ec	 xor	 BYTE PTR __t$506503[ebp+eax], dl
  0005d	40		 inc	 eax
  0005e	83 f8 0b	 cmp	 eax, 11			; 0000000bH
  00061	7c e3		 jl	 SHORT $LL108@AddRenderI
  00063	8b cf		 mov	 ecx, edi
  00065	8d 75 ec	 lea	 esi, DWORD PTR __t$506503[ebp]
  00068	ff 15 00 00 00
	00		 call	 DWORD PTR __imp_?c_str@ioHashString@@QBEPBDXZ
$LL118@AddRenderI:
  0006e	8a 08		 mov	 cl, BYTE PTR [eax]
  00070	3a 0e		 cmp	 cl, BYTE PTR [esi]
  00072	75 1a		 jne	 SHORT $LN119@AddRenderI
  00074	84 c9		 test	 cl, cl
  00076	74 12		 je	 SHORT $LN120@AddRenderI
  00078	8a 48 01	 mov	 cl, BYTE PTR [eax+1]
  0007b	3a 4e 01	 cmp	 cl, BYTE PTR [esi+1]
  0007e	75 0e		 jne	 SHORT $LN119@AddRenderI
  00080	83 c0 02	 add	 eax, 2
  00083	83 c6 02	 add	 esi, 2
  00086	84 c9		 test	 cl, cl
  00088	75 e4		 jne	 SHORT $LL118@AddRenderI
$LN120@AddRenderI:
  0008a	33 c0		 xor	 eax, eax
  0008c	eb 05		 jmp	 SHORT $LN121@AddRenderI
$LN119@AddRenderI:
  0008e	1b c0		 sbb	 eax, eax
  00090	83 d8 ff	 sbb	 eax, -1
$LN121@AddRenderI:
  00093	85 c0		 test	 eax, eax
  00095	75 23		 jne	 SHORT $LN3@AddRenderI

; 41   : 	{
; 42   : 		SAFEDELETE( m_pBackEffect );

  00097	8b 75 e8	 mov	 esi, DWORD PTR _this$GSCopy$[ebp]
  0009a	8b 8e 64 01 00
	00		 mov	 ecx, DWORD PTR [esi+356]
  000a0	85 c9		 test	 ecx, ecx
  000a2	74 0e		 je	 SHORT $LN2@AddRenderI
  000a4	8b 01		 mov	 eax, DWORD PTR [ecx]
  000a6	6a 01		 push	 1
  000a8	ff 50 40	 call	 DWORD PTR [eax+64]
  000ab	83 a6 64 01 00
	00 00		 and	 DWORD PTR [esi+356], 0
$LN2@AddRenderI:

; 43   : 		m_pBackEffect = pImage;

  000b2	89 9e 64 01 00
	00		 mov	 DWORD PTR [esi+356], ebx

; 44   : 	}
; 45   : 	else

  000b8	eb 0b		 jmp	 SHORT $LN1@AddRenderI
$LN3@AddRenderI:

; 46   : 		ioWnd::AddRenderImage( szType, pImage );

  000ba	8b 4d e8	 mov	 ecx, DWORD PTR _this$GSCopy$[ebp]
  000bd	53		 push	 ebx
  000be	57		 push	 edi
  000bf	ff 15 00 00 00
	00		 call	 DWORD PTR __imp_?AddRenderImage@ioWnd@@UAEXABVioHashString@@PAVioUIRenderImage@@@Z
$LN1@AddRenderI:

; 47   : }

  000c5	8b 4d fc	 mov	 ecx, DWORD PTR __$ArrayPad$[ebp]
  000c8	5f		 pop	 edi
  000c9	5e		 pop	 esi
  000ca	33 cd		 xor	 ecx, ebp
  000cc	5b		 pop	 ebx
  000cd	e8 00 00 00 00	 call	 @__security_check_cookie@4
  000d2	c9		 leave
  000d3	c2 08 00	 ret	 8
?AddRenderImage@NamedTitleResultWnd@@UAEXABVioHashString@@PAVioUIRenderImage@@@Z ENDP ; NamedTitleResultWnd::AddRenderImage
_TEXT	ENDS
PUBLIC	__real@43340000
EXTRN	?PrintFullText@ioComplexStringPrinter@@QAEXMMW4TextAlignType@@E@Z:PROC ; ioComplexStringPrinter::PrintFullText
EXTRN	?PrintFullTextWidthCut@ioComplexStringPrinter@@QAEXMMW4TextAlignType@@ME@Z:PROC ; ioComplexStringPrinter::PrintFullTextWidthCut
EXTRN	__imp_?GetDerivedPosY@ioWnd@@QBEHXZ:PROC
EXTRN	__imp_?GetDerivedPosX@ioWnd@@QBEHXZ:PROC
EXTRN	__imp_?OnRender@ioWnd@@MAEXXZ:PROC
EXTRN	__fltused:DWORD
;	COMDAT __real@43340000
; File c:\program files (x86)\microsoft visual studio 10.0\vc\include\vector
CONST	SEGMENT
__real@43340000 DD 043340000r			; 180
; Function compile flags: /Ogsp
; File d:\lost saga for developer\youtube\tutorial\source\src\lsclient\gui\namedtitleresultwnd.cpp
CONST	ENDS
;	COMDAT ?OnRender@NamedTitleResultWnd@@MAEXXZ
_TEXT	SEGMENT
?OnRender@NamedTitleResultWnd@@MAEXXZ PROC		; NamedTitleResultWnd::OnRender, COMDAT
; _this$ = ecx

; 52   : {

  00000	53		 push	 ebx
  00001	56		 push	 esi
  00002	57		 push	 edi
  00003	8b f1		 mov	 esi, ecx

; 53   : 	ioWnd::OnRender();

  00005	ff 15 00 00 00
	00		 call	 DWORD PTR __imp_?OnRender@ioWnd@@MAEXXZ

; 54   : 
; 55   : 	int iXPos = GetDerivedPosX();

  0000b	8b ce		 mov	 ecx, esi
  0000d	ff 15 00 00 00
	00		 call	 DWORD PTR __imp_?GetDerivedPosX@ioWnd@@QBEHXZ

; 56   : 	int iYPos = GetDerivedPosY();

  00013	8b ce		 mov	 ecx, esi
  00015	8b f8		 mov	 edi, eax
  00017	ff 15 00 00 00
	00		 call	 DWORD PTR __imp_?GetDerivedPosY@ioWnd@@QBEHXZ

; 57   : 
; 58   : 	enum
; 59   : 	{
; 60   : 		ICON_X		= 129,
; 61   : 		ICON_Y		= 105,
; 62   : 
; 63   : 		DESC_BIG_X	= 129,
; 64   : 		DESC_BIG_Y	= 152,
; 65   : 
; 66   : 		DESC_X		= 27,
; 67   : 		DESC_Y		= 206,
; 68   : 
; 69   : 		FINAL_DESC_X	= 128,
; 70   : 		FINAL_DESC_Y	= 421,
; 71   : 	};
; 72   : 
; 73   : 	// Back
; 74   : 	if( m_pBackEffect )

  0001d	33 c9		 xor	 ecx, ecx
  0001f	8b d8		 mov	 ebx, eax
  00021	39 8e 64 01 00
	00		 cmp	 DWORD PTR [esi+356], ecx
  00027	74 35		 je	 SHORT $LN6@OnRender

; 75   : 		m_pBackEffect->Render( iXPos+ICON_X, iYPos+ICON_Y, UI_RENDER_MULTIPLY );

  00029	8b 86 64 01 00
	00		 mov	 eax, DWORD PTR [esi+356]
  0002f	8b 10		 mov	 edx, DWORD PTR [eax]
  00031	51		 push	 ecx
  00032	51		 push	 ecx
  00033	51		 push	 ecx
  00034	8d 4b 69	 lea	 ecx, DWORD PTR [ebx+105]
  00037	6a 08		 push	 8
  00039	51		 push	 ecx
  0003a	51		 push	 ecx
  0003b	0f 57 c0	 xorps	 xmm0, xmm0
  0003e	f3 0f 2a c1	 cvtsi2ss xmm0, ecx
  00042	f3 0f 11 44 24
	04		 movss	 DWORD PTR [esp+4], xmm0
  00048	8d 8f 81 00 00
	00		 lea	 ecx, DWORD PTR [edi+129]
  0004e	0f 57 c0	 xorps	 xmm0, xmm0
  00051	f3 0f 2a c1	 cvtsi2ss xmm0, ecx
  00055	8b c8		 mov	 ecx, eax
  00057	f3 0f 11 04 24	 movss	 DWORD PTR [esp], xmm0
  0005c	ff 12		 call	 DWORD PTR [edx]
$LN6@OnRender:

; 76   : 	
; 77   : 	// Icon
; 78   : 	if( m_pIcon )

  0005e	33 d2		 xor	 edx, edx
  00060	39 96 60 01 00
	00		 cmp	 DWORD PTR [esi+352], edx
  00066	74 33		 je	 SHORT $LN5@OnRender

; 79   : 		m_pIcon->Render( iXPos+ICON_X, iYPos+ICON_Y, UI_RENDER_NORMAL, TFO_BILINEAR );

  00068	8b 8e 60 01 00
	00		 mov	 ecx, DWORD PTR [esi+352]
  0006e	8b 01		 mov	 eax, DWORD PTR [ecx]
  00070	52		 push	 edx
  00071	52		 push	 edx
  00072	6a 01		 push	 1
  00074	52		 push	 edx
  00075	0f 57 c0	 xorps	 xmm0, xmm0
  00078	51		 push	 ecx
  00079	8d 53 69	 lea	 edx, DWORD PTR [ebx+105]
  0007c	f3 0f 2a c2	 cvtsi2ss xmm0, edx
  00080	51		 push	 ecx
  00081	f3 0f 11 44 24
	04		 movss	 DWORD PTR [esp+4], xmm0
  00087	8d 97 81 00 00
	00		 lea	 edx, DWORD PTR [edi+129]
  0008d	0f 57 c0	 xorps	 xmm0, xmm0
  00090	f3 0f 2a c2	 cvtsi2ss xmm0, edx
  00094	f3 0f 11 04 24	 movss	 DWORD PTR [esp], xmm0
  00099	ff 10		 call	 DWORD PTR [eax]
$LN5@OnRender:

; 80   : 	
; 81   : 	// Desc
; 82   : 	if( !m_Desc[0].IsEmpty() )

  0009b	8b 8e 74 01 00
	00		 mov	 ecx, DWORD PTR [esi+372]
  000a1	3b 8e 78 01 00
	00		 cmp	 ecx, DWORD PTR [esi+376]
  000a7	74 47		 je	 SHORT $LN4@OnRender

; 83   : 		m_Desc[0].PrintFullTextWidthCut( iXPos+DESC_BIG_X, iYPos+DESC_BIG_Y, TAT_CENTER, 180 );

  000a9	f3 0f 10 05 00
	00 00 00	 movss	 xmm0, DWORD PTR __real@43340000
  000b1	68 ff 00 00 00	 push	 255			; 000000ffH
  000b6	51		 push	 ecx
  000b7	f3 0f 11 04 24	 movss	 DWORD PTR [esp], xmm0
  000bc	6a 01		 push	 1
  000be	51		 push	 ecx
  000bf	0f 57 c0	 xorps	 xmm0, xmm0
  000c2	51		 push	 ecx
  000c3	8d 83 98 00 00
	00		 lea	 eax, DWORD PTR [ebx+152]
  000c9	f3 0f 2a c0	 cvtsi2ss xmm0, eax
  000cd	f3 0f 11 44 24
	04		 movss	 DWORD PTR [esp+4], xmm0
  000d3	8d 87 81 00 00
	00		 lea	 eax, DWORD PTR [edi+129]
  000d9	0f 57 c0	 xorps	 xmm0, xmm0
  000dc	f3 0f 2a c0	 cvtsi2ss xmm0, eax
  000e0	8d 8e 68 01 00
	00		 lea	 ecx, DWORD PTR [esi+360]
  000e6	f3 0f 11 04 24	 movss	 DWORD PTR [esp], xmm0
  000eb	e8 00 00 00 00	 call	 ?PrintFullTextWidthCut@ioComplexStringPrinter@@QAEXMMW4TextAlignType@@ME@Z ; ioComplexStringPrinter::PrintFullTextWidthCut
$LN4@OnRender:

; 84   : 
; 85   : 	if( !m_Desc[1].IsEmpty() )

  000f0	8b 8e 94 01 00
	00		 mov	 ecx, DWORD PTR [esi+404]
  000f6	3b 8e 98 01 00
	00		 cmp	 ecx, DWORD PTR [esi+408]
  000fc	74 36		 je	 SHORT $LN3@OnRender

; 86   : 		m_Desc[1].PrintFullText( iXPos+DESC_X, iYPos+DESC_Y, TAT_LEFT );

  000fe	68 ff 00 00 00	 push	 255			; 000000ffH
  00103	6a 00		 push	 0
  00105	51		 push	 ecx
  00106	0f 57 c0	 xorps	 xmm0, xmm0
  00109	51		 push	 ecx
  0010a	8d 83 ce 00 00
	00		 lea	 eax, DWORD PTR [ebx+206]
  00110	f3 0f 2a c0	 cvtsi2ss xmm0, eax
  00114	f3 0f 11 44 24
	04		 movss	 DWORD PTR [esp+4], xmm0
  0011a	8d 47 1b	 lea	 eax, DWORD PTR [edi+27]
  0011d	0f 57 c0	 xorps	 xmm0, xmm0
  00120	f3 0f 2a c0	 cvtsi2ss xmm0, eax
  00124	8d 8e 88 01 00
	00		 lea	 ecx, DWORD PTR [esi+392]
  0012a	f3 0f 11 04 24	 movss	 DWORD PTR [esp], xmm0
  0012f	e8 00 00 00 00	 call	 ?PrintFullText@ioComplexStringPrinter@@QAEXMMW4TextAlignType@@E@Z ; ioComplexStringPrinter::PrintFullText
$LN3@OnRender:

; 87   : 
; 88   : 	if( !m_Desc[2].IsEmpty() )

  00134	8b 8e b4 01 00
	00		 mov	 ecx, DWORD PTR [esi+436]
  0013a	3b 8e b8 01 00
	00		 cmp	 ecx, DWORD PTR [esi+440]
  00140	74 36		 je	 SHORT $LN2@OnRender

; 89   : 		m_Desc[2].PrintFullText( iXPos+DESC_X, iYPos+DESC_Y+18, TAT_LEFT );

  00142	68 ff 00 00 00	 push	 255			; 000000ffH
  00147	6a 00		 push	 0
  00149	51		 push	 ecx
  0014a	0f 57 c0	 xorps	 xmm0, xmm0
  0014d	51		 push	 ecx
  0014e	8d 83 e0 00 00
	00		 lea	 eax, DWORD PTR [ebx+224]
  00154	f3 0f 2a c0	 cvtsi2ss xmm0, eax
  00158	f3 0f 11 44 24
	04		 movss	 DWORD PTR [esp+4], xmm0
  0015e	8d 47 1b	 lea	 eax, DWORD PTR [edi+27]
  00161	0f 57 c0	 xorps	 xmm0, xmm0
  00164	f3 0f 2a c0	 cvtsi2ss xmm0, eax
  00168	8d 8e a8 01 00
	00		 lea	 ecx, DWORD PTR [esi+424]
  0016e	f3 0f 11 04 24	 movss	 DWORD PTR [esp], xmm0
  00173	e8 00 00 00 00	 call	 ?PrintFullText@ioComplexStringPrinter@@QAEXMMW4TextAlignType@@E@Z ; ioComplexStringPrinter::PrintFullText
$LN2@OnRender:

; 90   : 
; 91   : 	if( !m_Desc[3].IsEmpty() )

  00178	8b 8e d4 01 00
	00		 mov	 ecx, DWORD PTR [esi+468]
  0017e	3b 8e d8 01 00
	00		 cmp	 ecx, DWORD PTR [esi+472]
  00184	74 36		 je	 SHORT $LN1@OnRender

; 92   : 		m_Desc[3].PrintFullText( iXPos+FINAL_DESC_X, iYPos+FINAL_DESC_Y, TAT_CENTER );

  00186	68 ff 00 00 00	 push	 255			; 000000ffH
  0018b	6a 01		 push	 1
  0018d	51		 push	 ecx
  0018e	0f 57 c0	 xorps	 xmm0, xmm0
  00191	51		 push	 ecx
  00192	81 c3 a5 01 00
	00		 add	 ebx, 421		; 000001a5H
  00198	f3 0f 2a c3	 cvtsi2ss xmm0, ebx
  0019c	f3 0f 11 44 24
	04		 movss	 DWORD PTR [esp+4], xmm0
  001a2	83 ef 80	 sub	 edi, -128		; ffffff80H
  001a5	0f 57 c0	 xorps	 xmm0, xmm0
  001a8	f3 0f 2a c7	 cvtsi2ss xmm0, edi
  001ac	8d 8e c8 01 00
	00		 lea	 ecx, DWORD PTR [esi+456]
  001b2	f3 0f 11 04 24	 movss	 DWORD PTR [esp], xmm0
  001b7	e8 00 00 00 00	 call	 ?PrintFullText@ioComplexStringPrinter@@QAEXMMW4TextAlignType@@E@Z ; ioComplexStringPrinter::PrintFullText
$LN1@OnRender:

; 93   : }

  001bc	5f		 pop	 edi
  001bd	5e		 pop	 esi
  001be	5b		 pop	 ebx
  001bf	c3		 ret	 0
?OnRender@NamedTitleResultWnd@@MAEXXZ ENDP		; NamedTitleResultWnd::OnRender
_TEXT	ENDS
PUBLIC	_this$GSCopy$
PUBLIC	__$ArrayPad$
; Function compile flags: /Ogsp
;	COMDAT ?AddRenderImage@NamedTitlePremiumResultWnd@@UAEXABVioHashString@@PAVioUIRenderImage@@@Z
_TEXT	SEGMENT
_this$GSCopy$ = -24					; size = 4
__t$506688 = -20					; size = 12
__$ArrayPad$ = -4					; size = 4
_szType$ = 8						; size = 4
_pImage$ = 12						; size = 4
?AddRenderImage@NamedTitlePremiumResultWnd@@UAEXABVioHashString@@PAVioUIRenderImage@@@Z PROC ; NamedTitlePremiumResultWnd::AddRenderImage, COMDAT
; _this$ = ecx

; 194  : {

  00000	55		 push	 ebp
  00001	8b ec		 mov	 ebp, esp
  00003	83 ec 18	 sub	 esp, 24			; 00000018H
  00006	a1 00 00 00 00	 mov	 eax, DWORD PTR ___security_cookie
  0000b	33 c5		 xor	 eax, ebp
  0000d	89 45 fc	 mov	 DWORD PTR __$ArrayPad$[ebp], eax
  00010	53		 push	 ebx
  00011	8b 5d 0c	 mov	 ebx, DWORD PTR _pImage$[ebp]
  00014	56		 push	 esi
  00015	57		 push	 edi
  00016	8b 7d 08	 mov	 edi, DWORD PTR _szType$[ebp]

; 195  : 	if( szType == "back_effect" )

  00019	6a 02		 push	 2
  0001b	89 4d e8	 mov	 DWORD PTR _this$GSCopy$[ebp], ecx
  0001e	c7 45 ec 8f 8d
	88 81		 mov	 DWORD PTR __t$506688[ebp], -2121757297 ; 81888d8fH
  00025	c7 45 f0 b2 89
	8d 8c		 mov	 DWORD PTR __t$506688[ebp+4], -1936881230 ; 8c8d89b2H
  0002c	8d 45 ec	 lea	 eax, DWORD PTR __t$506688[ebp]
  0002f	c7 45 f4 88 8f
	9f 00		 mov	 DWORD PTR __t$506688[ebp+8], 10456968 ; 009f8f88H
  00036	59		 pop	 ecx
$LL111@AddRenderI@2:
  00037	81 30 ed ec eb
	ea		 xor	 DWORD PTR [eax], -353637139 ; eaebecedH
  0003d	83 c0 04	 add	 eax, 4
  00040	49		 dec	 ecx
  00041	75 f4		 jne	 SHORT $LL111@AddRenderI@2
  00043	6a 08		 push	 8
  00045	58		 pop	 eax
$LL108@AddRenderI@2:
  00046	8b c8		 mov	 ecx, eax
  00048	81 e1 03 00 00
	80		 and	 ecx, -2147483645	; 80000003H
  0004e	79 05		 jns	 SHORT $LN122@AddRenderI@2
  00050	49		 dec	 ecx
  00051	83 c9 fc	 or	 ecx, -4			; fffffffcH
  00054	41		 inc	 ecx
$LN122@AddRenderI@2:
  00055	b2 ed		 mov	 dl, -19			; ffffffedH
  00057	2a d1		 sub	 dl, cl
  00059	30 54 05 ec	 xor	 BYTE PTR __t$506688[ebp+eax], dl
  0005d	40		 inc	 eax
  0005e	83 f8 0b	 cmp	 eax, 11			; 0000000bH
  00061	7c e3		 jl	 SHORT $LL108@AddRenderI@2
  00063	8b cf		 mov	 ecx, edi
  00065	8d 75 ec	 lea	 esi, DWORD PTR __t$506688[ebp]
  00068	ff 15 00 00 00
	00		 call	 DWORD PTR __imp_?c_str@ioHashString@@QBEPBDXZ
$LL118@AddRenderI@2:
  0006e	8a 08		 mov	 cl, BYTE PTR [eax]
  00070	3a 0e		 cmp	 cl, BYTE PTR [esi]
  00072	75 1a		 jne	 SHORT $LN119@AddRenderI@2
  00074	84 c9		 test	 cl, cl
  00076	74 12		 je	 SHORT $LN120@AddRenderI@2
  00078	8a 48 01	 mov	 cl, BYTE PTR [eax+1]
  0007b	3a 4e 01	 cmp	 cl, BYTE PTR [esi+1]
  0007e	75 0e		 jne	 SHORT $LN119@AddRenderI@2
  00080	83 c0 02	 add	 eax, 2
  00083	83 c6 02	 add	 esi, 2
  00086	84 c9		 test	 cl, cl
  00088	75 e4		 jne	 SHORT $LL118@AddRenderI@2
$LN120@AddRenderI@2:
  0008a	33 c0		 xor	 eax, eax
  0008c	eb 05		 jmp	 SHORT $LN121@AddRenderI@2
$LN119@AddRenderI@2:
  0008e	1b c0		 sbb	 eax, eax
  00090	83 d8 ff	 sbb	 eax, -1
$LN121@AddRenderI@2:
  00093	85 c0		 test	 eax, eax
  00095	75 23		 jne	 SHORT $LN3@AddRenderI@2

; 196  : 	{
; 197  : 		SAFEDELETE( m_pBackEffect );

  00097	8b 75 e8	 mov	 esi, DWORD PTR _this$GSCopy$[ebp]
  0009a	8b 8e 64 01 00
	00		 mov	 ecx, DWORD PTR [esi+356]
  000a0	85 c9		 test	 ecx, ecx
  000a2	74 0e		 je	 SHORT $LN2@AddRenderI@2
  000a4	8b 01		 mov	 eax, DWORD PTR [ecx]
  000a6	6a 01		 push	 1
  000a8	ff 50 40	 call	 DWORD PTR [eax+64]
  000ab	83 a6 64 01 00
	00 00		 and	 DWORD PTR [esi+356], 0
$LN2@AddRenderI@2:

; 198  : 		m_pBackEffect = pImage;

  000b2	89 9e 64 01 00
	00		 mov	 DWORD PTR [esi+356], ebx

; 199  : 	}
; 200  : 	else

  000b8	eb 0b		 jmp	 SHORT $LN1@AddRenderI@2
$LN3@AddRenderI@2:

; 201  : 		ioWnd::AddRenderImage( szType, pImage );

  000ba	8b 4d e8	 mov	 ecx, DWORD PTR _this$GSCopy$[ebp]
  000bd	53		 push	 ebx
  000be	57		 push	 edi
  000bf	ff 15 00 00 00
	00		 call	 DWORD PTR __imp_?AddRenderImage@ioWnd@@UAEXABVioHashString@@PAVioUIRenderImage@@@Z
$LN1@AddRenderI@2:

; 202  : }

  000c5	8b 4d fc	 mov	 ecx, DWORD PTR __$ArrayPad$[ebp]
  000c8	5f		 pop	 edi
  000c9	5e		 pop	 esi
  000ca	33 cd		 xor	 ecx, ebp
  000cc	5b		 pop	 ebx
  000cd	e8 00 00 00 00	 call	 @__security_check_cookie@4
  000d2	c9		 leave
  000d3	c2 08 00	 ret	 8
?AddRenderImage@NamedTitlePremiumResultWnd@@UAEXABVioHashString@@PAVioUIRenderImage@@@Z ENDP ; NamedTitlePremiumResultWnd::AddRenderImage
; Function compile flags: /Ogsp
_TEXT	ENDS
;	COMDAT ?OnRender@NamedTitlePremiumResultWnd@@MAEXXZ
_TEXT	SEGMENT
?OnRender@NamedTitlePremiumResultWnd@@MAEXXZ PROC	; NamedTitlePremiumResultWnd::OnRender, COMDAT
; _this$ = ecx

; 207  : {

  00000	53		 push	 ebx
  00001	56		 push	 esi
  00002	57		 push	 edi
  00003	8b f1		 mov	 esi, ecx

; 208  : 	ioWnd::OnRender();

  00005	ff 15 00 00 00
	00		 call	 DWORD PTR __imp_?OnRender@ioWnd@@MAEXXZ

; 209  : 
; 210  : 	int iXPos = GetDerivedPosX();

  0000b	8b ce		 mov	 ecx, esi
  0000d	ff 15 00 00 00
	00		 call	 DWORD PTR __imp_?GetDerivedPosX@ioWnd@@QBEHXZ

; 211  : 	int iYPos = GetDerivedPosY();

  00013	8b ce		 mov	 ecx, esi
  00015	8b f8		 mov	 edi, eax
  00017	ff 15 00 00 00
	00		 call	 DWORD PTR __imp_?GetDerivedPosY@ioWnd@@QBEHXZ

; 212  : 
; 213  : 	enum
; 214  : 	{
; 215  : 		ICON_X		= 129,
; 216  : 		ICON_Y		= 105,
; 217  : 
; 218  : 		DESC_BIG_X	= 129,
; 219  : 		DESC_BIG_Y	= 152,
; 220  : 
; 221  : 		DESC_X		= 27,
; 222  : 		DESC_Y		= 206,
; 223  : 	};
; 224  : 
; 225  : 	// Back
; 226  : 	if( m_pBackEffect )

  0001d	33 c9		 xor	 ecx, ecx
  0001f	8b d8		 mov	 ebx, eax
  00021	39 8e 64 01 00
	00		 cmp	 DWORD PTR [esi+356], ecx
  00027	74 35		 je	 SHORT $LN5@OnRender@2

; 227  : 		m_pBackEffect->Render( iXPos+ICON_X, iYPos+ICON_Y, UI_RENDER_MULTIPLY );

  00029	8b 86 64 01 00
	00		 mov	 eax, DWORD PTR [esi+356]
  0002f	8b 10		 mov	 edx, DWORD PTR [eax]
  00031	51		 push	 ecx
  00032	51		 push	 ecx
  00033	51		 push	 ecx
  00034	8d 4b 69	 lea	 ecx, DWORD PTR [ebx+105]
  00037	6a 08		 push	 8
  00039	51		 push	 ecx
  0003a	51		 push	 ecx
  0003b	0f 57 c0	 xorps	 xmm0, xmm0
  0003e	f3 0f 2a c1	 cvtsi2ss xmm0, ecx
  00042	f3 0f 11 44 24
	04		 movss	 DWORD PTR [esp+4], xmm0
  00048	8d 8f 81 00 00
	00		 lea	 ecx, DWORD PTR [edi+129]
  0004e	0f 57 c0	 xorps	 xmm0, xmm0
  00051	f3 0f 2a c1	 cvtsi2ss xmm0, ecx
  00055	8b c8		 mov	 ecx, eax
  00057	f3 0f 11 04 24	 movss	 DWORD PTR [esp], xmm0
  0005c	ff 12		 call	 DWORD PTR [edx]
$LN5@OnRender@2:

; 228  : 
; 229  : 	// Icon
; 230  : 	if( m_pIcon )

  0005e	33 d2		 xor	 edx, edx
  00060	39 96 60 01 00
	00		 cmp	 DWORD PTR [esi+352], edx
  00066	74 33		 je	 SHORT $LN4@OnRender@2

; 231  : 		m_pIcon->Render( iXPos+ICON_X, iYPos+ICON_Y, UI_RENDER_NORMAL, TFO_BILINEAR );

  00068	8b 8e 60 01 00
	00		 mov	 ecx, DWORD PTR [esi+352]
  0006e	8b 01		 mov	 eax, DWORD PTR [ecx]
  00070	52		 push	 edx
  00071	52		 push	 edx
  00072	6a 01		 push	 1
  00074	52		 push	 edx
  00075	0f 57 c0	 xorps	 xmm0, xmm0
  00078	51		 push	 ecx
  00079	8d 53 69	 lea	 edx, DWORD PTR [ebx+105]
  0007c	f3 0f 2a c2	 cvtsi2ss xmm0, edx
  00080	51		 push	 ecx
  00081	f3 0f 11 44 24
	04		 movss	 DWORD PTR [esp+4], xmm0
  00087	8d 97 81 00 00
	00		 lea	 edx, DWORD PTR [edi+129]
  0008d	0f 57 c0	 xorps	 xmm0, xmm0
  00090	f3 0f 2a c2	 cvtsi2ss xmm0, edx
  00094	f3 0f 11 04 24	 movss	 DWORD PTR [esp], xmm0
  00099	ff 10		 call	 DWORD PTR [eax]
$LN4@OnRender@2:

; 232  : 
; 233  : 	// Desc
; 234  : 	if( !m_Desc[0].IsEmpty() )

  0009b	8b 8e 74 01 00
	00		 mov	 ecx, DWORD PTR [esi+372]
  000a1	3b 8e 78 01 00
	00		 cmp	 ecx, DWORD PTR [esi+376]
  000a7	74 39		 je	 SHORT $LN3@OnRender@2

; 235  : 		m_Desc[0].PrintFullText( iXPos+DESC_BIG_X, iYPos+DESC_BIG_Y, TAT_CENTER );

  000a9	68 ff 00 00 00	 push	 255			; 000000ffH
  000ae	6a 01		 push	 1
  000b0	51		 push	 ecx
  000b1	0f 57 c0	 xorps	 xmm0, xmm0
  000b4	51		 push	 ecx
  000b5	8d 83 98 00 00
	00		 lea	 eax, DWORD PTR [ebx+152]
  000bb	f3 0f 2a c0	 cvtsi2ss xmm0, eax
  000bf	f3 0f 11 44 24
	04		 movss	 DWORD PTR [esp+4], xmm0
  000c5	8d 87 81 00 00
	00		 lea	 eax, DWORD PTR [edi+129]
  000cb	0f 57 c0	 xorps	 xmm0, xmm0
  000ce	f3 0f 2a c0	 cvtsi2ss xmm0, eax
  000d2	8d 8e 68 01 00
	00		 lea	 ecx, DWORD PTR [esi+360]
  000d8	f3 0f 11 04 24	 movss	 DWORD PTR [esp], xmm0
  000dd	e8 00 00 00 00	 call	 ?PrintFullText@ioComplexStringPrinter@@QAEXMMW4TextAlignType@@E@Z ; ioComplexStringPrinter::PrintFullText
$LN3@OnRender@2:

; 236  : 
; 237  : 	if( !m_Desc[1].IsEmpty() )

  000e2	8b 8e 94 01 00
	00		 mov	 ecx, DWORD PTR [esi+404]
  000e8	3b 8e 98 01 00
	00		 cmp	 ecx, DWORD PTR [esi+408]
  000ee	74 44		 je	 SHORT $LN2@OnRender@2

; 238  : 		m_Desc[1].PrintFullTextWidthCut( iXPos+DESC_X, iYPos+DESC_Y, TAT_LEFT, 180 );

  000f0	f3 0f 10 05 00
	00 00 00	 movss	 xmm0, DWORD PTR __real@43340000
  000f8	68 ff 00 00 00	 push	 255			; 000000ffH
  000fd	51		 push	 ecx
  000fe	f3 0f 11 04 24	 movss	 DWORD PTR [esp], xmm0
  00103	6a 00		 push	 0
  00105	51		 push	 ecx
  00106	0f 57 c0	 xorps	 xmm0, xmm0
  00109	51		 push	 ecx
  0010a	8d 83 ce 00 00
	00		 lea	 eax, DWORD PTR [ebx+206]
  00110	f3 0f 2a c0	 cvtsi2ss xmm0, eax
  00114	f3 0f 11 44 24
	04		 movss	 DWORD PTR [esp+4], xmm0
  0011a	8d 47 1b	 lea	 eax, DWORD PTR [edi+27]
  0011d	0f 57 c0	 xorps	 xmm0, xmm0
  00120	f3 0f 2a c0	 cvtsi2ss xmm0, eax
  00124	8d 8e 88 01 00
	00		 lea	 ecx, DWORD PTR [esi+392]
  0012a	f3 0f 11 04 24	 movss	 DWORD PTR [esp], xmm0
  0012f	e8 00 00 00 00	 call	 ?PrintFullTextWidthCut@ioComplexStringPrinter@@QAEXMMW4TextAlignType@@ME@Z ; ioComplexStringPrinter::PrintFullTextWidthCut
$LN2@OnRender@2:

; 239  : 	
; 240  : 	if( !m_Desc[2].IsEmpty() )

  00134	8b 8e b4 01 00
	00		 mov	 ecx, DWORD PTR [esi+436]
  0013a	3b 8e b8 01 00
	00		 cmp	 ecx, DWORD PTR [esi+440]
  00140	74 36		 je	 SHORT $LN1@OnRender@2

; 241  : 		m_Desc[2].PrintFullText( iXPos+DESC_X, iYPos+DESC_Y+18, TAT_LEFT );

  00142	68 ff 00 00 00	 push	 255			; 000000ffH
  00147	6a 00		 push	 0
  00149	51		 push	 ecx
  0014a	0f 57 c0	 xorps	 xmm0, xmm0
  0014d	51		 push	 ecx
  0014e	81 c3 e0 00 00
	00		 add	 ebx, 224		; 000000e0H
  00154	f3 0f 2a c3	 cvtsi2ss xmm0, ebx
  00158	f3 0f 11 44 24
	04		 movss	 DWORD PTR [esp+4], xmm0
  0015e	83 c7 1b	 add	 edi, 27			; 0000001bH
  00161	0f 57 c0	 xorps	 xmm0, xmm0
  00164	f3 0f 2a c7	 cvtsi2ss xmm0, edi
  00168	8d 8e a8 01 00
	00		 lea	 ecx, DWORD PTR [esi+424]
  0016e	f3 0f 11 04 24	 movss	 DWORD PTR [esp], xmm0
  00173	e8 00 00 00 00	 call	 ?PrintFullText@ioComplexStringPrinter@@QAEXMMW4TextAlignType@@E@Z ; ioComplexStringPrinter::PrintFullText
$LN1@OnRender@2:

; 242  : }

  00178	5f		 pop	 edi
  00179	5e		 pop	 esi
  0017a	5b		 pop	 ebx
  0017b	c3		 ret	 0
?OnRender@NamedTitlePremiumResultWnd@@MAEXXZ ENDP	; NamedTitlePremiumResultWnd::OnRender
_TEXT	ENDS
PUBLIC	??0?$vector@UtagNamedTitleGrade@@V?$allocator@UtagNamedTitleGrade@@@std@@@std@@QAE@XZ ; std::vector<tagNamedTitleGrade,std::allocator<tagNamedTitleGrade> >::vector<tagNamedTitleGrade,std::allocator<tagNamedTitleGrade> >
; Function compile flags: /Ogsp
; File c:\program files (x86)\microsoft visual studio 10.0\vc\include\vector
;	COMDAT ??0?$vector@UtagNamedTitleGrade@@V?$allocator@UtagNamedTitleGrade@@@std@@@std@@QAE@XZ
_TEXT	SEGMENT
??0?$vector@UtagNamedTitleGrade@@V?$allocator@UtagNamedTitleGrade@@@std@@@std@@QAE@XZ PROC ; std::vector<tagNamedTitleGrade,std::allocator<tagNamedTitleGrade> >::vector<tagNamedTitleGrade,std::allocator<tagNamedTitleGrade> >, COMDAT
; _this$ = ecx

; 507  : 		{	// construct empty vector

  00000	8b c1		 mov	 eax, ecx
  00002	33 c9		 xor	 ecx, ecx
  00004	89 08		 mov	 DWORD PTR [eax], ecx
  00006	89 48 04	 mov	 DWORD PTR [eax+4], ecx
  00009	89 48 08	 mov	 DWORD PTR [eax+8], ecx

; 508  : 		}

  0000c	c3		 ret	 0
??0?$vector@UtagNamedTitleGrade@@V?$allocator@UtagNamedTitleGrade@@@std@@@std@@QAE@XZ ENDP ; std::vector<tagNamedTitleGrade,std::allocator<tagNamedTitleGrade> >::vector<tagNamedTitleGrade,std::allocator<tagNamedTitleGrade> >
_TEXT	ENDS
PUBLIC	?begin@?$vector@UtagNamedTitleGrade@@V?$allocator@UtagNamedTitleGrade@@@std@@@std@@QAE?AV?$_Vector_iterator@V?$_Vector_val@UtagNamedTitleGrade@@V?$allocator@UtagNamedTitleGrade@@@std@@@std@@@2@XZ ; std::vector<tagNamedTitleGrade,std::allocator<tagNamedTitleGrade> >::begin
; Function compile flags: /Ogsp
;	COMDAT ?begin@?$vector@UtagNamedTitleGrade@@V?$allocator@UtagNamedTitleGrade@@@std@@@std@@QAE?AV?$_Vector_iterator@V?$_Vector_val@UtagNamedTitleGrade@@V?$allocator@UtagNamedTitleGrade@@@std@@@std@@@2@XZ
_TEXT	SEGMENT
___$ReturnUdt$ = 8					; size = 4
?begin@?$vector@UtagNamedTitleGrade@@V?$allocator@UtagNamedTitleGrade@@@std@@@std@@QAE?AV?$_Vector_iterator@V?$_Vector_val@UtagNamedTitleGrade@@V?$allocator@UtagNamedTitleGrade@@@std@@@std@@@2@XZ PROC ; std::vector<tagNamedTitleGrade,std::allocator<tagNamedTitleGrade> >::begin, COMDAT
; _this$ = ecx

; 781  : 		{	// return iterator for beginning of mutable sequence

  00000	55		 push	 ebp
  00001	8b ec		 mov	 ebp, esp

; 782  : 		return (iterator(this->_Myfirst, this));

  00003	8b 09		 mov	 ecx, DWORD PTR [ecx]
  00005	8b 45 08	 mov	 eax, DWORD PTR ___$ReturnUdt$[ebp]
  00008	89 08		 mov	 DWORD PTR [eax], ecx

; 783  : 		}

  0000a	5d		 pop	 ebp
  0000b	c2 04 00	 ret	 4
?begin@?$vector@UtagNamedTitleGrade@@V?$allocator@UtagNamedTitleGrade@@@std@@@std@@QAE?AV?$_Vector_iterator@V?$_Vector_val@UtagNamedTitleGrade@@V?$allocator@UtagNamedTitleGrade@@@std@@@std@@@2@XZ ENDP ; std::vector<tagNamedTitleGrade,std::allocator<tagNamedTitleGrade> >::begin
_TEXT	ENDS
PUBLIC	?end@?$vector@UtagNamedTitleGrade@@V?$allocator@UtagNamedTitleGrade@@@std@@@std@@QAE?AV?$_Vector_iterator@V?$_Vector_val@UtagNamedTitleGrade@@V?$allocator@UtagNamedTitleGrade@@@std@@@std@@@2@XZ ; std::vector<tagNamedTitleGrade,std::allocator<tagNamedTitleGrade> >::end
; Function compile flags: /Ogsp
;	COMDAT ?end@?$vector@UtagNamedTitleGrade@@V?$allocator@UtagNamedTitleGrade@@@std@@@std@@QAE?AV?$_Vector_iterator@V?$_Vector_val@UtagNamedTitleGrade@@V?$allocator@UtagNamedTitleGrade@@@std@@@std@@@2@XZ
_TEXT	SEGMENT
___$ReturnUdt$ = 8					; size = 4
?end@?$vector@UtagNamedTitleGrade@@V?$allocator@UtagNamedTitleGrade@@@std@@@std@@QAE?AV?$_Vector_iterator@V?$_Vector_val@UtagNamedTitleGrade@@V?$allocator@UtagNamedTitleGrade@@@std@@@std@@@2@XZ PROC ; std::vector<tagNamedTitleGrade,std::allocator<tagNamedTitleGrade> >::end, COMDAT
; _this$ = ecx

; 791  : 		{	// return iterator for end of mutable sequence

  00000	55		 push	 ebp
  00001	8b ec		 mov	 ebp, esp

; 792  : 		return (iterator(this->_Mylast, this));

  00003	8b 49 04	 mov	 ecx, DWORD PTR [ecx+4]
  00006	8b 45 08	 mov	 eax, DWORD PTR ___$ReturnUdt$[ebp]
  00009	89 08		 mov	 DWORD PTR [eax], ecx

; 793  : 		}

  0000b	5d		 pop	 ebp
  0000c	c2 04 00	 ret	 4
?end@?$vector@UtagNamedTitleGrade@@V?$allocator@UtagNamedTitleGrade@@@std@@@std@@QAE?AV?$_Vector_iterator@V?$_Vector_val@UtagNamedTitleGrade@@V?$allocator@UtagNamedTitleGrade@@@std@@@std@@@2@XZ ENDP ; std::vector<tagNamedTitleGrade,std::allocator<tagNamedTitleGrade> >::end
_TEXT	ENDS
PUBLIC	?_Make_iter@?$vector@UtagNamedTitleGrade@@V?$allocator@UtagNamedTitleGrade@@@std@@@std@@QBE?AV?$_Vector_iterator@V?$_Vector_val@UtagNamedTitleGrade@@V?$allocator@UtagNamedTitleGrade@@@std@@@std@@@2@V?$_Vector_const_iterator@V?$_Vector_val@UtagNamedTitleGrade@@V?$allocator@UtagNamedTitleGrade@@@std@@@std@@@2@@Z ; std::vector<tagNamedTitleGrade,std::allocator<tagNamedTitleGrade> >::_Make_iter
; Function compile flags: /Ogsp
;	COMDAT ?_Make_iter@?$vector@UtagNamedTitleGrade@@V?$allocator@UtagNamedTitleGrade@@@std@@@std@@QBE?AV?$_Vector_iterator@V?$_Vector_val@UtagNamedTitleGrade@@V?$allocator@UtagNamedTitleGrade@@@std@@@std@@@2@V?$_Vector_const_iterator@V?$_Vector_val@UtagNamedTitleGrade@@V?$allocator@UtagNamedTitleGrade@@@std@@@std@@@2@@Z
_TEXT	SEGMENT
___$ReturnUdt$ = 8					; size = 4
__Where$ = 12						; size = 4
?_Make_iter@?$vector@UtagNamedTitleGrade@@V?$allocator@UtagNamedTitleGrade@@@std@@@std@@QBE?AV?$_Vector_iterator@V?$_Vector_val@UtagNamedTitleGrade@@V?$allocator@UtagNamedTitleGrade@@@std@@@std@@@2@V?$_Vector_const_iterator@V?$_Vector_val@UtagNamedTitleGrade@@V?$allocator@UtagNamedTitleGrade@@@std@@@std@@@2@@Z PROC ; std::vector<tagNamedTitleGrade,std::allocator<tagNamedTitleGrade> >::_Make_iter, COMDAT
; _this$ = ecx

; 801  : 		{	// make iterator from const_iterator

  00000	55		 push	 ebp
  00001	8b ec		 mov	 ebp, esp

; 802  : 		return (iterator(_Where._Ptr, this));

  00003	8b 45 08	 mov	 eax, DWORD PTR ___$ReturnUdt$[ebp]
  00006	8b 4d 0c	 mov	 ecx, DWORD PTR __Where$[ebp]
  00009	89 08		 mov	 DWORD PTR [eax], ecx

; 803  : 		}

  0000b	5d		 pop	 ebp
  0000c	c2 08 00	 ret	 8
?_Make_iter@?$vector@UtagNamedTitleGrade@@V?$allocator@UtagNamedTitleGrade@@@std@@@std@@QBE?AV?$_Vector_iterator@V?$_Vector_val@UtagNamedTitleGrade@@V?$allocator@UtagNamedTitleGrade@@@std@@@std@@@2@V?$_Vector_const_iterator@V?$_Vector_val@UtagNamedTitleGrade@@V?$allocator@UtagNamedTitleGrade@@@std@@@std@@@2@@Z ENDP ; std::vector<tagNamedTitleGrade,std::allocator<tagNamedTitleGrade> >::_Make_iter
_TEXT	ENDS
PUBLIC	??9?$_Vector_const_iterator@V?$_Vector_val@UtagNamedTitleGrade@@V?$allocator@UtagNamedTitleGrade@@@std@@@std@@@std@@QBE_NABV01@@Z ; std::_Vector_const_iterator<std::_Vector_val<tagNamedTitleGrade,std::allocator<tagNamedTitleGrade> > >::operator!=
; Function compile flags: /Ogsp
;	COMDAT ??9?$_Vector_const_iterator@V?$_Vector_val@UtagNamedTitleGrade@@V?$allocator@UtagNamedTitleGrade@@@std@@@std@@@std@@QBE_NABV01@@Z
_TEXT	SEGMENT
__Right$ = 8						; size = 4
??9?$_Vector_const_iterator@V?$_Vector_val@UtagNamedTitleGrade@@V?$allocator@UtagNamedTitleGrade@@@std@@@std@@@std@@QBE_NABV01@@Z PROC ; std::_Vector_const_iterator<std::_Vector_val<tagNamedTitleGrade,std::allocator<tagNamedTitleGrade> > >::operator!=, COMDAT
; _this$ = ecx

; 207  : 		{	// test for iterator inequality

  00000	55		 push	 ebp
  00001	8b ec		 mov	 ebp, esp

; 208  : 		return (!(*this == _Right));

  00003	8b 01		 mov	 eax, DWORD PTR [ecx]
  00005	8b 55 08	 mov	 edx, DWORD PTR __Right$[ebp]
  00008	33 c9		 xor	 ecx, ecx
  0000a	3b 02		 cmp	 eax, DWORD PTR [edx]
  0000c	0f 95 c0	 setne	 al

; 209  : 		}

  0000f	5d		 pop	 ebp
  00010	c2 04 00	 ret	 4
??9?$_Vector_const_iterator@V?$_Vector_val@UtagNamedTitleGrade@@V?$allocator@UtagNamedTitleGrade@@@std@@@std@@@std@@QBE_NABV01@@Z ENDP ; std::_Vector_const_iterator<std::_Vector_val<tagNamedTitleGrade,std::allocator<tagNamedTitleGrade> > >::operator!=
_TEXT	ENDS
PUBLIC	??$_Move@PAUtagNamedTitleGrade@@PAU1@@std@@YAPAUtagNamedTitleGrade@@PAU1@00@Z ; std::_Move<tagNamedTitleGrade *,tagNamedTitleGrade *>
; Function compile flags: /Ogsp
; File c:\program files (x86)\microsoft visual studio 10.0\vc\include\xutility
;	COMDAT ??$_Move@PAUtagNamedTitleGrade@@PAU1@@std@@YAPAUtagNamedTitleGrade@@PAU1@00@Z
_TEXT	SEGMENT
__Cat$506926 = -4					; size = 1
__First$ = 8						; size = 4
__Last$ = 12						; size = 4
__Dest$ = 16						; size = 4
??$_Move@PAUtagNamedTitleGrade@@PAU1@@std@@YAPAUtagNamedTitleGrade@@PAU1@00@Z PROC ; std::_Move<tagNamedTitleGrade *,tagNamedTitleGrade *>, COMDAT

; 2533 : 	{	// move [_First, _Last) to [_Dest, ...), unchecked

  00000	55		 push	 ebp
  00001	8b ec		 mov	 ebp, esp
  00003	51		 push	 ecx

; 2534 : 	return (_Move(_First, _Last,
; 2535 : 		_Dest, _Ptr_cat(_First, _Dest)));

  00004	ff 75 fc	 push	 DWORD PTR __Cat$506926[ebp]
  00007	ff 75 10	 push	 DWORD PTR __Dest$[ebp]
  0000a	ff 75 0c	 push	 DWORD PTR __Last$[ebp]
  0000d	ff 75 08	 push	 DWORD PTR __First$[ebp]
  00010	e8 00 00 00 00	 call	 ??$_Move@PAUtagNamedTitleGrade@@PAU1@@std@@YAPAUtagNamedTitleGrade@@PAU1@00U_Nonscalar_ptr_iterator_tag@0@@Z ; std::_Move<tagNamedTitleGrade *,tagNamedTitleGrade *>
  00015	83 c4 10	 add	 esp, 16			; 00000010H

; 2536 : 	}

  00018	c9		 leave
  00019	c3		 ret	 0
??$_Move@PAUtagNamedTitleGrade@@PAU1@@std@@YAPAUtagNamedTitleGrade@@PAU1@00@Z ENDP ; std::_Move<tagNamedTitleGrade *,tagNamedTitleGrade *>
_TEXT	ENDS
PUBLIC	??$_Destroy@UtagNamedTitleGrade@@@std@@YAXPAUtagNamedTitleGrade@@@Z ; std::_Destroy<tagNamedTitleGrade>
; Function compile flags: /Ogsp
; File c:\program files (x86)\microsoft visual studio 10.0\vc\include\xmemory
;	COMDAT ??$_Destroy@UtagNamedTitleGrade@@@std@@YAXPAUtagNamedTitleGrade@@@Z
_TEXT	SEGMENT
__Ptr$ = 8						; size = 4
??$_Destroy@UtagNamedTitleGrade@@@std@@YAXPAUtagNamedTitleGrade@@@Z PROC ; std::_Destroy<tagNamedTitleGrade>, COMDAT

; 62   : 	{	// destroy object at _Ptr

  00000	55		 push	 ebp
  00001	8b ec		 mov	 ebp, esp

; 63   : 	_Ptr->~_Ty();

  00003	8b 4d 08	 mov	 ecx, DWORD PTR __Ptr$[ebp]
  00006	83 c1 04	 add	 ecx, 4

; 64   : 	}

  00009	5d		 pop	 ebp

; 63   : 	_Ptr->~_Ty();

  0000a	ff 25 00 00 00
	00		 jmp	 DWORD PTR __imp_??1ioHashString@@QAE@XZ
??$_Destroy@UtagNamedTitleGrade@@@std@@YAXPAUtagNamedTitleGrade@@@Z ENDP ; std::_Destroy<tagNamedTitleGrade>
_TEXT	ENDS
PUBLIC	?destroy@?$allocator@UtagNamedTitleGrade@@@std@@QAEXPAUtagNamedTitleGrade@@@Z ; std::allocator<tagNamedTitleGrade>::destroy
; Function compile flags: /Ogsp
;	COMDAT ?destroy@?$allocator@UtagNamedTitleGrade@@@std@@QAEXPAUtagNamedTitleGrade@@@Z
_TEXT	SEGMENT
__Ptr$ = 8						; size = 4
?destroy@?$allocator@UtagNamedTitleGrade@@@std@@QAEXPAUtagNamedTitleGrade@@@Z PROC ; std::allocator<tagNamedTitleGrade>::destroy, COMDAT
; _this$ = ecx

; 212  : 		{	// destroy object at _Ptr

  00000	55		 push	 ebp
  00001	8b ec		 mov	 ebp, esp

; 213  : 		_Destroy(_Ptr);

  00003	8b 4d 08	 mov	 ecx, DWORD PTR __Ptr$[ebp]
  00006	83 c1 04	 add	 ecx, 4
  00009	ff 15 00 00 00
	00		 call	 DWORD PTR __imp_??1ioHashString@@QAE@XZ

; 214  : 		}

  0000f	5d		 pop	 ebp
  00010	c2 04 00	 ret	 4
?destroy@?$allocator@UtagNamedTitleGrade@@@std@@QAEXPAUtagNamedTitleGrade@@@Z ENDP ; std::allocator<tagNamedTitleGrade>::destroy
_TEXT	ENDS
PUBLIC	??$_Dest_val@V?$allocator@UtagNamedTitleGrade@@@std@@UtagNamedTitleGrade@@@std@@YAXAAV?$allocator@UtagNamedTitleGrade@@@0@PAUtagNamedTitleGrade@@@Z ; std::_Dest_val<std::allocator<tagNamedTitleGrade>,tagNamedTitleGrade>
; Function compile flags: /Ogsp
;	COMDAT ??$_Dest_val@V?$allocator@UtagNamedTitleGrade@@@std@@UtagNamedTitleGrade@@@std@@YAXAAV?$allocator@UtagNamedTitleGrade@@@0@PAUtagNamedTitleGrade@@@Z
_TEXT	SEGMENT
__Alval$ = 8						; size = 4
__Pdest$ = 12						; size = 4
??$_Dest_val@V?$allocator@UtagNamedTitleGrade@@@std@@UtagNamedTitleGrade@@@std@@YAXAAV?$allocator@UtagNamedTitleGrade@@@0@PAUtagNamedTitleGrade@@@Z PROC ; std::_Dest_val<std::allocator<tagNamedTitleGrade>,tagNamedTitleGrade>, COMDAT

; 286  : 	{	// destroy using allocator

  00000	55		 push	 ebp
  00001	8b ec		 mov	 ebp, esp

; 287  : 	_Alval.destroy(_Pdest);

  00003	8b 4d 0c	 mov	 ecx, DWORD PTR __Pdest$[ebp]
  00006	83 c1 04	 add	 ecx, 4

; 288  : 	}

  00009	5d		 pop	 ebp

; 287  : 	_Alval.destroy(_Pdest);

  0000a	ff 25 00 00 00
	00		 jmp	 DWORD PTR __imp_??1ioHashString@@QAE@XZ
??$_Dest_val@V?$allocator@UtagNamedTitleGrade@@@std@@UtagNamedTitleGrade@@@std@@YAXAAV?$allocator@UtagNamedTitleGrade@@@0@PAUtagNamedTitleGrade@@@Z ENDP ; std::_Dest_val<std::allocator<tagNamedTitleGrade>,tagNamedTitleGrade>
_TEXT	ENDS
PUBLIC	??$_Destroy_range@V?$allocator@UtagNamedTitleGrade@@@std@@@std@@YAXPAUtagNamedTitleGrade@@0AAV?$allocator@UtagNamedTitleGrade@@@0@U_Nonscalar_ptr_iterator_tag@0@@Z ; std::_Destroy_range<std::allocator<tagNamedTitleGrade> >
; Function compile flags: /Ogsp
;	COMDAT ??$_Destroy_range@V?$allocator@UtagNamedTitleGrade@@@std@@@std@@YAXPAUtagNamedTitleGrade@@0AAV?$allocator@UtagNamedTitleGrade@@@0@U_Nonscalar_ptr_iterator_tag@0@@Z
_TEXT	SEGMENT
__First$ = 8						; size = 4
__Last$ = 12						; size = 4
__Al$ = 16						; size = 4
___formal$ = 20						; size = 1
??$_Destroy_range@V?$allocator@UtagNamedTitleGrade@@@std@@@std@@YAXPAUtagNamedTitleGrade@@0AAV?$allocator@UtagNamedTitleGrade@@@0@U_Nonscalar_ptr_iterator_tag@0@@Z PROC ; std::_Destroy_range<std::allocator<tagNamedTitleGrade> >, COMDAT

; 95   : 	{	// destroy [_First, _Last), arbitrary type

  00000	55		 push	 ebp
  00001	8b ec		 mov	 ebp, esp
  00003	56		 push	 esi

; 96   : 	for (; _First != _Last; ++_First)

  00004	8b 75 08	 mov	 esi, DWORD PTR __First$[ebp]
  00007	eb 0c		 jmp	 SHORT $LN20@Destroy_ra
$LL3@Destroy_ra:

; 97   : 		_Dest_val(_Al, _First);

  00009	8d 4e 04	 lea	 ecx, DWORD PTR [esi+4]
  0000c	ff 15 00 00 00
	00		 call	 DWORD PTR __imp_??1ioHashString@@QAE@XZ
  00012	83 c6 14	 add	 esi, 20			; 00000014H
$LN20@Destroy_ra:

; 96   : 	for (; _First != _Last; ++_First)

  00015	3b 75 0c	 cmp	 esi, DWORD PTR __Last$[ebp]
  00018	75 ef		 jne	 SHORT $LL3@Destroy_ra
  0001a	5e		 pop	 esi

; 98   : 	}

  0001b	5d		 pop	 ebp
  0001c	c3		 ret	 0
??$_Destroy_range@V?$allocator@UtagNamedTitleGrade@@@std@@@std@@YAXPAUtagNamedTitleGrade@@0AAV?$allocator@UtagNamedTitleGrade@@@0@U_Nonscalar_ptr_iterator_tag@0@@Z ENDP ; std::_Destroy_range<std::allocator<tagNamedTitleGrade> >
_TEXT	ENDS
PUBLIC	??$_Destroy_range@V?$allocator@UtagNamedTitleGrade@@@std@@@std@@YAXPAUtagNamedTitleGrade@@0AAV?$allocator@UtagNamedTitleGrade@@@0@@Z ; std::_Destroy_range<std::allocator<tagNamedTitleGrade> >
; Function compile flags: /Ogsp
;	COMDAT ??$_Destroy_range@V?$allocator@UtagNamedTitleGrade@@@std@@@std@@YAXPAUtagNamedTitleGrade@@0AAV?$allocator@UtagNamedTitleGrade@@@0@@Z
_TEXT	SEGMENT
__First$ = 8						; size = 4
__Last$ = 12						; size = 4
__Al$ = 16						; size = 4
??$_Destroy_range@V?$allocator@UtagNamedTitleGrade@@@std@@@std@@YAXPAUtagNamedTitleGrade@@0AAV?$allocator@UtagNamedTitleGrade@@@0@@Z PROC ; std::_Destroy_range<std::allocator<tagNamedTitleGrade> >, COMDAT

; 87   : 	{	// destroy [_First, _Last)

  00000	55		 push	 ebp
  00001	8b ec		 mov	 ebp, esp
  00003	56		 push	 esi

; 88   : 	_Destroy_range(_First, _Last, _Al, _Ptr_cat(_First, _Last));

  00004	8b 75 08	 mov	 esi, DWORD PTR __First$[ebp]
  00007	eb 0c		 jmp	 SHORT $LN24@Destroy_ra@2
$LL7@Destroy_ra@2:
  00009	8d 4e 04	 lea	 ecx, DWORD PTR [esi+4]
  0000c	ff 15 00 00 00
	00		 call	 DWORD PTR __imp_??1ioHashString@@QAE@XZ
  00012	83 c6 14	 add	 esi, 20			; 00000014H
$LN24@Destroy_ra@2:
  00015	3b 75 0c	 cmp	 esi, DWORD PTR __Last$[ebp]
  00018	75 ef		 jne	 SHORT $LL7@Destroy_ra@2
  0001a	5e		 pop	 esi

; 89   : 	}

  0001b	5d		 pop	 ebp
  0001c	c3		 ret	 0
??$_Destroy_range@V?$allocator@UtagNamedTitleGrade@@@std@@@std@@YAXPAUtagNamedTitleGrade@@0AAV?$allocator@UtagNamedTitleGrade@@@0@@Z ENDP ; std::_Destroy_range<std::allocator<tagNamedTitleGrade> >
_TEXT	ENDS
PUBLIC	?_Destroy@?$vector@UtagNamedTitleGrade@@V?$allocator@UtagNamedTitleGrade@@@std@@@std@@IAEXPAUtagNamedTitleGrade@@0@Z ; std::vector<tagNamedTitleGrade,std::allocator<tagNamedTitleGrade> >::_Destroy
; Function compile flags: /Ogsp
; File c:\program files (x86)\microsoft visual studio 10.0\vc\include\vector
;	COMDAT ?_Destroy@?$vector@UtagNamedTitleGrade@@V?$allocator@UtagNamedTitleGrade@@@std@@@std@@IAEXPAUtagNamedTitleGrade@@0@Z
_TEXT	SEGMENT
__First$ = 8						; size = 4
__Last$ = 12						; size = 4
?_Destroy@?$vector@UtagNamedTitleGrade@@V?$allocator@UtagNamedTitleGrade@@@std@@@std@@IAEXPAUtagNamedTitleGrade@@0@Z PROC ; std::vector<tagNamedTitleGrade,std::allocator<tagNamedTitleGrade> >::_Destroy, COMDAT
; _this$ = ecx

; 1269 : 		{	// destroy [_First, _Last) using allocator

  00000	55		 push	 ebp
  00001	8b ec		 mov	 ebp, esp

; 1270 : 		_Destroy_range(_First, _Last, this->_Alval);

  00003	83 c1 0c	 add	 ecx, 12			; 0000000cH
  00006	51		 push	 ecx
  00007	ff 75 0c	 push	 DWORD PTR __Last$[ebp]
  0000a	ff 75 08	 push	 DWORD PTR __First$[ebp]
  0000d	e8 00 00 00 00	 call	 ??$_Destroy_range@V?$allocator@UtagNamedTitleGrade@@@std@@@std@@YAXPAUtagNamedTitleGrade@@0AAV?$allocator@UtagNamedTitleGrade@@@0@@Z ; std::_Destroy_range<std::allocator<tagNamedTitleGrade> >
  00012	83 c4 0c	 add	 esp, 12			; 0000000cH

; 1271 : 		}

  00015	5d		 pop	 ebp
  00016	c2 08 00	 ret	 8
?_Destroy@?$vector@UtagNamedTitleGrade@@V?$allocator@UtagNamedTitleGrade@@@std@@@std@@IAEXPAUtagNamedTitleGrade@@0@Z ENDP ; std::vector<tagNamedTitleGrade,std::allocator<tagNamedTitleGrade> >::_Destroy
_TEXT	ENDS
PUBLIC	?erase@?$vector@UtagNamedTitleGrade@@V?$allocator@UtagNamedTitleGrade@@@std@@@std@@QAE?AV?$_Vector_iterator@V?$_Vector_val@UtagNamedTitleGrade@@V?$allocator@UtagNamedTitleGrade@@@std@@@std@@@2@V?$_Vector_const_iterator@V?$_Vector_val@UtagNamedTitleGrade@@V?$allocator@UtagNamedTitleGrade@@@std@@@std@@@2@0@Z ; std::vector<tagNamedTitleGrade,std::allocator<tagNamedTitleGrade> >::erase
; Function compile flags: /Ogsp
;	COMDAT ?erase@?$vector@UtagNamedTitleGrade@@V?$allocator@UtagNamedTitleGrade@@@std@@@std@@QAE?AV?$_Vector_iterator@V?$_Vector_val@UtagNamedTitleGrade@@V?$allocator@UtagNamedTitleGrade@@@std@@@std@@@2@V?$_Vector_const_iterator@V?$_Vector_val@UtagNamedTitleGrade@@V?$allocator@UtagNamedTitleGrade@@@std@@@std@@@2@0@Z
_TEXT	SEGMENT
___$ReturnUdt$ = 8					; size = 4
__First_arg$ = 12					; size = 4
__Cat$507181 = 16					; size = 1
__Last_arg$ = 16					; size = 4
?erase@?$vector@UtagNamedTitleGrade@@V?$allocator@UtagNamedTitleGrade@@@std@@@std@@QAE?AV?$_Vector_iterator@V?$_Vector_val@UtagNamedTitleGrade@@V?$allocator@UtagNamedTitleGrade@@@std@@@std@@@2@V?$_Vector_const_iterator@V?$_Vector_val@UtagNamedTitleGrade@@V?$allocator@UtagNamedTitleGrade@@@std@@@std@@@2@0@Z PROC ; std::vector<tagNamedTitleGrade,std::allocator<tagNamedTitleGrade> >::erase, COMDAT
; _this$ = ecx

; 1190 : 		{	// erase [_First, _Last)

  00000	55		 push	 ebp
  00001	8b ec		 mov	 ebp, esp

; 1191 : 		iterator _First = _Make_iter(_First_arg);

  00003	8b 45 0c	 mov	 eax, DWORD PTR __First_arg$[ebp]
  00006	53		 push	 ebx
  00007	8b 5d 08	 mov	 ebx, DWORD PTR ___$ReturnUdt$[ebp]
  0000a	56		 push	 esi
  0000b	8b f1		 mov	 esi, ecx
  0000d	89 03		 mov	 DWORD PTR [ebx], eax

; 1192 : 		iterator _Last = _Make_iter(_Last_arg);
; 1193 : 
; 1194 : 		if (_First != _Last)

  0000f	3b 45 10	 cmp	 eax, DWORD PTR __Last_arg$[ebp]
  00012	74 27		 je	 SHORT $LN1@erase

; 1195 : 			{	// worth doing, copy down over hole
; 1196 :  #if _ITERATOR_DEBUG_LEVEL == 2
; 1197 : 			if (_Last < _First || _VICONT(_First) != this
; 1198 : 				|| _VIPTR(_First) < this->_Myfirst
; 1199 : 				|| this->_Mylast < _VIPTR(_Last))
; 1200 : 				_DEBUG_ERROR("vector erase iterator outside range");
; 1201 : 			pointer _Ptr = _Move(_VIPTR(_Last), this->_Mylast,
; 1202 : 				_VIPTR(_First));
; 1203 : 			_Orphan_range(_VIPTR(_First), this->_Mylast);
; 1204 : 
; 1205 :  #else /* _ITERATOR_DEBUG_LEVEL == 2 */
; 1206 : 			pointer _Ptr = _Move(_VIPTR(_Last), this->_Mylast,
; 1207 : 				_VIPTR(_First));

  00014	8b 4e 04	 mov	 ecx, DWORD PTR [esi+4]
  00017	57		 push	 edi
  00018	ff 75 10	 push	 DWORD PTR __Cat$507181[ebp]
  0001b	50		 push	 eax
  0001c	51		 push	 ecx
  0001d	ff 75 10	 push	 DWORD PTR __Last_arg$[ebp]
  00020	e8 00 00 00 00	 call	 ??$_Move@PAUtagNamedTitleGrade@@PAU1@@std@@YAPAUtagNamedTitleGrade@@PAU1@00U_Nonscalar_ptr_iterator_tag@0@@Z ; std::_Move<tagNamedTitleGrade *,tagNamedTitleGrade *>
  00025	8b f8		 mov	 edi, eax

; 1208 :  #endif /* _ITERATOR_DEBUG_LEVEL == 2 */
; 1209 : 
; 1210 : 			_Destroy(_Ptr, this->_Mylast);

  00027	8d 46 0c	 lea	 eax, DWORD PTR [esi+12]
  0002a	50		 push	 eax
  0002b	ff 76 04	 push	 DWORD PTR [esi+4]
  0002e	57		 push	 edi
  0002f	e8 00 00 00 00	 call	 ??$_Destroy_range@V?$allocator@UtagNamedTitleGrade@@@std@@@std@@YAXPAUtagNamedTitleGrade@@0AAV?$allocator@UtagNamedTitleGrade@@@0@@Z ; std::_Destroy_range<std::allocator<tagNamedTitleGrade> >
  00034	83 c4 1c	 add	 esp, 28			; 0000001cH

; 1211 : 			this->_Mylast = _Ptr;

  00037	89 7e 04	 mov	 DWORD PTR [esi+4], edi
  0003a	5f		 pop	 edi
$LN1@erase:

; 1212 : 			}
; 1213 : 		return (_First);

  0003b	5e		 pop	 esi
  0003c	8b c3		 mov	 eax, ebx
  0003e	5b		 pop	 ebx

; 1214 : 		}

  0003f	5d		 pop	 ebp
  00040	c2 0c 00	 ret	 12			; 0000000cH
?erase@?$vector@UtagNamedTitleGrade@@V?$allocator@UtagNamedTitleGrade@@@std@@@std@@QAE?AV?$_Vector_iterator@V?$_Vector_val@UtagNamedTitleGrade@@V?$allocator@UtagNamedTitleGrade@@@std@@@std@@@2@V?$_Vector_const_iterator@V?$_Vector_val@UtagNamedTitleGrade@@V?$allocator@UtagNamedTitleGrade@@@std@@@std@@@2@0@Z ENDP ; std::vector<tagNamedTitleGrade,std::allocator<tagNamedTitleGrade> >::erase
_TEXT	ENDS
PUBLIC	?_Tidy@?$vector@UtagNamedTitleGrade@@V?$allocator@UtagNamedTitleGrade@@@std@@@std@@IAEXXZ ; std::vector<tagNamedTitleGrade,std::allocator<tagNamedTitleGrade> >::_Tidy
EXTRN	__imp_?_Orphan_all@_Container_base0@std@@QAEXXZ:PROC
; Function compile flags: /Ogsp
;	COMDAT ?_Tidy@?$vector@UtagNamedTitleGrade@@V?$allocator@UtagNamedTitleGrade@@@std@@@std@@IAEXXZ
_TEXT	SEGMENT
?_Tidy@?$vector@UtagNamedTitleGrade@@V?$allocator@UtagNamedTitleGrade@@@std@@@std@@IAEXXZ PROC ; std::vector<tagNamedTitleGrade,std::allocator<tagNamedTitleGrade> >::_Tidy, COMDAT
; _this$ = ecx

; 1301 : 		{	// free all storage

  00000	56		 push	 esi
  00001	8b f1		 mov	 esi, ecx

; 1302 : 		if (this->_Myfirst != 0)

  00003	83 3e 00	 cmp	 DWORD PTR [esi], 0
  00006	74 1e		 je	 SHORT $LN6@Tidy

; 1303 : 			{	// something to free, destroy and deallocate it
; 1304 : 			this->_Orphan_all();

  00008	ff 15 00 00 00
	00		 call	 DWORD PTR __imp_?_Orphan_all@_Container_base0@std@@QAEXXZ

; 1305 : 			_Destroy(this->_Myfirst, this->_Mylast);

  0000e	8d 46 0c	 lea	 eax, DWORD PTR [esi+12]
  00011	50		 push	 eax
  00012	ff 76 04	 push	 DWORD PTR [esi+4]
  00015	ff 36		 push	 DWORD PTR [esi]
  00017	e8 00 00 00 00	 call	 ??$_Destroy_range@V?$allocator@UtagNamedTitleGrade@@@std@@@std@@YAXPAUtagNamedTitleGrade@@0AAV?$allocator@UtagNamedTitleGrade@@@0@@Z ; std::_Destroy_range<std::allocator<tagNamedTitleGrade> >

; 1306 : 			this->_Alval.deallocate(this->_Myfirst,
; 1307 : 				this->_Myend - this->_Myfirst);

  0001c	ff 36		 push	 DWORD PTR [esi]
  0001e	e8 00 00 00 00	 call	 ??3@YAXPAX@Z		; operator delete
  00023	83 c4 10	 add	 esp, 16			; 00000010H
$LN6@Tidy:

; 1308 : 			}
; 1309 : 		this->_Myfirst = 0;

  00026	83 26 00	 and	 DWORD PTR [esi], 0

; 1310 : 		this->_Mylast = 0;

  00029	83 66 04 00	 and	 DWORD PTR [esi+4], 0

; 1311 : 		this->_Myend = 0;

  0002d	83 66 08 00	 and	 DWORD PTR [esi+8], 0
  00031	5e		 pop	 esi

; 1312 : 		}

  00032	c3		 ret	 0
?_Tidy@?$vector@UtagNamedTitleGrade@@V?$allocator@UtagNamedTitleGrade@@@std@@@std@@IAEXXZ ENDP ; std::vector<tagNamedTitleGrade,std::allocator<tagNamedTitleGrade> >::_Tidy
_TEXT	ENDS
PUBLIC	??1?$vector@UtagNamedTitleGrade@@V?$allocator@UtagNamedTitleGrade@@@std@@@std@@QAE@XZ ; std::vector<tagNamedTitleGrade,std::allocator<tagNamedTitleGrade> >::~vector<tagNamedTitleGrade,std::allocator<tagNamedTitleGrade> >
; Function compile flags: /Ogsp
;	COMDAT ??1?$vector@UtagNamedTitleGrade@@V?$allocator@UtagNamedTitleGrade@@@std@@@std@@QAE@XZ
_TEXT	SEGMENT
??1?$vector@UtagNamedTitleGrade@@V?$allocator@UtagNamedTitleGrade@@@std@@@std@@QAE@XZ PROC ; std::vector<tagNamedTitleGrade,std::allocator<tagNamedTitleGrade> >::~vector<tagNamedTitleGrade,std::allocator<tagNamedTitleGrade> >, COMDAT
; _this$ = ecx

; 705  : 		_Tidy();

  00000	e9 00 00 00 00	 jmp	 ?_Tidy@?$vector@UtagNamedTitleGrade@@V?$allocator@UtagNamedTitleGrade@@@std@@@std@@IAEXXZ ; std::vector<tagNamedTitleGrade,std::allocator<tagNamedTitleGrade> >::_Tidy
??1?$vector@UtagNamedTitleGrade@@V?$allocator@UtagNamedTitleGrade@@@std@@@std@@QAE@XZ ENDP ; std::vector<tagNamedTitleGrade,std::allocator<tagNamedTitleGrade> >::~vector<tagNamedTitleGrade,std::allocator<tagNamedTitleGrade> >
_TEXT	ENDS
PUBLIC	?clear@?$vector@UtagNamedTitleGrade@@V?$allocator@UtagNamedTitleGrade@@@std@@@std@@QAEXXZ ; std::vector<tagNamedTitleGrade,std::allocator<tagNamedTitleGrade> >::clear
; Function compile flags: /Ogsp
;	COMDAT ?clear@?$vector@UtagNamedTitleGrade@@V?$allocator@UtagNamedTitleGrade@@@std@@@std@@QAEXXZ
_TEXT	SEGMENT
$T507216 = -4						; size = 4
?clear@?$vector@UtagNamedTitleGrade@@V?$allocator@UtagNamedTitleGrade@@@std@@@std@@QAEXXZ PROC ; std::vector<tagNamedTitleGrade,std::allocator<tagNamedTitleGrade> >::clear, COMDAT
; _this$ = ecx

; 1217 : 		{	// erase all

  00000	55		 push	 ebp
  00001	8b ec		 mov	 ebp, esp
  00003	51		 push	 ecx

; 1218 : 		erase(begin(), end());

  00004	8b 41 04	 mov	 eax, DWORD PTR [ecx+4]
  00007	8b 11		 mov	 edx, DWORD PTR [ecx]
  00009	50		 push	 eax
  0000a	52		 push	 edx
  0000b	8d 45 fc	 lea	 eax, DWORD PTR $T507216[ebp]
  0000e	50		 push	 eax
  0000f	e8 00 00 00 00	 call	 ?erase@?$vector@UtagNamedTitleGrade@@V?$allocator@UtagNamedTitleGrade@@@std@@@std@@QAE?AV?$_Vector_iterator@V?$_Vector_val@UtagNamedTitleGrade@@V?$allocator@UtagNamedTitleGrade@@@std@@@std@@@2@V?$_Vector_const_iterator@V?$_Vector_val@UtagNamedTitleGrade@@V?$allocator@UtagNamedTitleGrade@@@std@@@std@@@2@0@Z ; std::vector<tagNamedTitleGrade,std::allocator<tagNamedTitleGrade> >::erase

; 1219 : 		}

  00014	c9		 leave
  00015	c3		 ret	 0
?clear@?$vector@UtagNamedTitleGrade@@V?$allocator@UtagNamedTitleGrade@@@std@@@std@@QAEXXZ ENDP ; std::vector<tagNamedTitleGrade,std::allocator<tagNamedTitleGrade> >::clear
_TEXT	ENDS
PUBLIC	??1tagNamedTitleInfo@@QAE@XZ			; tagNamedTitleInfo::~tagNamedTitleInfo
;	COMDAT xdata$x
xdata$x	SEGMENT
__unwindtable$??1tagNamedTitleInfo@@QAE@XZ DD 0ffffffffH
	DD	FLAT:__unwindfunclet$??1tagNamedTitleInfo@@QAE@XZ$0
__ehfuncinfo$??1tagNamedTitleInfo@@QAE@XZ DD 019930522H
	DD	01H
	DD	FLAT:__unwindtable$??1tagNamedTitleInfo@@QAE@XZ
	DD	2 DUP(00H)
	DD	2 DUP(00H)
	DD	00H
	DD	01H
; Function compile flags: /Ogsp
xdata$x	ENDS
;	COMDAT ??1tagNamedTitleInfo@@QAE@XZ
_TEXT	SEGMENT
_this$ = -16						; size = 4
__$EHRec$ = -12						; size = 12
??1tagNamedTitleInfo@@QAE@XZ PROC			; tagNamedTitleInfo::~tagNamedTitleInfo, COMDAT
; _this$ = ecx
  00000	6a 04		 push	 4
  00002	b8 00 00 00 00	 mov	 eax, __ehhandler$??1tagNamedTitleInfo@@QAE@XZ
  00007	e8 00 00 00 00	 call	 __EH_prolog3
  0000c	8b f1		 mov	 esi, ecx
  0000e	89 75 f0	 mov	 DWORD PTR _this$[ebp], esi
  00011	83 65 fc 00	 and	 DWORD PTR __$EHRec$[ebp+8], 0
  00015	8d 4e 14	 lea	 ecx, DWORD PTR [esi+20]
  00018	e8 00 00 00 00	 call	 ?_Tidy@?$vector@UtagNamedTitleGrade@@V?$allocator@UtagNamedTitleGrade@@@std@@@std@@IAEXXZ ; std::vector<tagNamedTitleGrade,std::allocator<tagNamedTitleGrade> >::_Tidy
  0001d	83 4d fc ff	 or	 DWORD PTR __$EHRec$[ebp+8], -1
  00021	8d 4e 04	 lea	 ecx, DWORD PTR [esi+4]
  00024	ff 15 00 00 00
	00		 call	 DWORD PTR __imp_??1ioHashString@@QAE@XZ
  0002a	e8 00 00 00 00	 call	 __EH_epilog3
  0002f	c3		 ret	 0
_TEXT	ENDS
;	COMDAT text$x
text$x	SEGMENT
__unwindfunclet$??1tagNamedTitleInfo@@QAE@XZ$0:
  00000	8b 4d f0	 mov	 ecx, DWORD PTR _this$[ebp]
  00003	83 c1 04	 add	 ecx, 4
  00006	ff 25 00 00 00
	00		 jmp	 DWORD PTR __imp_??1ioHashString@@QAE@XZ
__ehhandler$??1tagNamedTitleInfo@@QAE@XZ:
  0000c	8b 54 24 08	 mov	 edx, DWORD PTR [esp+8]
  00010	8d 42 0c	 lea	 eax, DWORD PTR [edx+12]
  00013	8b 4a ec	 mov	 ecx, DWORD PTR [edx-20]
  00016	33 c8		 xor	 ecx, eax
  00018	e8 00 00 00 00	 call	 @__security_check_cookie@4
  0001d	b8 00 00 00 00	 mov	 eax, OFFSET __ehfuncinfo$??1tagNamedTitleInfo@@QAE@XZ
  00022	e9 00 00 00 00	 jmp	 ___CxxFrameHandler3
text$x	ENDS
??1tagNamedTitleInfo@@QAE@XZ ENDP			; tagNamedTitleInfo::~tagNamedTitleInfo
PUBLIC	?Init@tagNamedTitleInfo@@QAEXXZ			; tagNamedTitleInfo::Init
EXTRN	__imp_?Clear@ioHashString@@QAEXXZ:PROC
; Function compile flags: /Ogsp
; File d:\lost saga for developer\youtube\tutorial\source\src\lsclient\namedtitleenumtype.h
;	COMDAT ?Init@tagNamedTitleInfo@@QAEXXZ
_TEXT	SEGMENT
$T507348 = -4						; size = 4
?Init@tagNamedTitleInfo@@QAEXXZ PROC			; tagNamedTitleInfo::Init, COMDAT
; _this$ = ecx

; 38   : 	{

  00000	55		 push	 ebp
  00001	8b ec		 mov	 ebp, esp
  00003	51		 push	 ecx
  00004	56		 push	 esi
  00005	8b f1		 mov	 esi, ecx

; 39   : 		m_dwCode = 0;

  00007	83 26 00	 and	 DWORD PTR [esi], 0

; 40   : 		m_szName.Clear();

  0000a	8d 4e 04	 lea	 ecx, DWORD PTR [esi+4]
  0000d	ff 15 00 00 00
	00		 call	 DWORD PTR __imp_?Clear@ioHashString@@QAEXXZ

; 41   : 		m_GradeList.clear();

  00013	8d 4e 14	 lea	 ecx, DWORD PTR [esi+20]
  00016	8b 41 04	 mov	 eax, DWORD PTR [ecx+4]
  00019	8b 11		 mov	 edx, DWORD PTR [ecx]
  0001b	50		 push	 eax
  0001c	52		 push	 edx
  0001d	8d 45 fc	 lea	 eax, DWORD PTR $T507348[ebp]
  00020	50		 push	 eax
  00021	e8 00 00 00 00	 call	 ?erase@?$vector@UtagNamedTitleGrade@@V?$allocator@UtagNamedTitleGrade@@@std@@@std@@QAE?AV?$_Vector_iterator@V?$_Vector_val@UtagNamedTitleGrade@@V?$allocator@UtagNamedTitleGrade@@@std@@@std@@@2@V?$_Vector_const_iterator@V?$_Vector_val@UtagNamedTitleGrade@@V?$allocator@UtagNamedTitleGrade@@@std@@@std@@@2@0@Z ; std::vector<tagNamedTitleGrade,std::allocator<tagNamedTitleGrade> >::erase
  00026	5e		 pop	 esi

; 42   : 	}

  00027	c9		 leave
  00028	c3		 ret	 0
?Init@tagNamedTitleInfo@@QAEXXZ ENDP			; tagNamedTitleInfo::Init
_TEXT	ENDS
PUBLIC	??0tagNamedTitleInfo@@QAE@XZ			; tagNamedTitleInfo::tagNamedTitleInfo
EXTRN	__imp_??0ioHashString@@QAE@XZ:PROC
;	COMDAT xdata$x
; File c:\program files (x86)\microsoft visual studio 10.0\vc\include\xmemory
xdata$x	SEGMENT
__unwindtable$??0tagNamedTitleInfo@@QAE@XZ DD 0ffffffffH
	DD	FLAT:__unwindfunclet$??0tagNamedTitleInfo@@QAE@XZ$0
	DD	00H
	DD	FLAT:__unwindfunclet$??0tagNamedTitleInfo@@QAE@XZ$1
__ehfuncinfo$??0tagNamedTitleInfo@@QAE@XZ DD 019930522H
	DD	02H
	DD	FLAT:__unwindtable$??0tagNamedTitleInfo@@QAE@XZ
	DD	2 DUP(00H)
	DD	2 DUP(00H)
	DD	00H
	DD	01H
; Function compile flags: /Ogsp
; File d:\lost saga for developer\youtube\tutorial\source\src\lsclient\namedtitleenumtype.h
xdata$x	ENDS
;	COMDAT ??0tagNamedTitleInfo@@QAE@XZ
_TEXT	SEGMENT
_this$ = -16						; size = 4
__$EHRec$ = -12						; size = 12
??0tagNamedTitleInfo@@QAE@XZ PROC			; tagNamedTitleInfo::tagNamedTitleInfo, COMDAT
; _this$ = ecx

; 44   : 	tagNamedTitleInfo()

  00000	6a 04		 push	 4
  00002	b8 00 00 00 00	 mov	 eax, __ehhandler$??0tagNamedTitleInfo@@QAE@XZ
  00007	e8 00 00 00 00	 call	 __EH_prolog3
  0000c	8b f1		 mov	 esi, ecx
  0000e	89 75 f0	 mov	 DWORD PTR _this$[ebp], esi
  00011	8d 4e 04	 lea	 ecx, DWORD PTR [esi+4]
  00014	ff 15 00 00 00
	00		 call	 DWORD PTR __imp_??0ioHashString@@QAE@XZ
  0001a	33 c0		 xor	 eax, eax
  0001c	89 45 fc	 mov	 DWORD PTR __$EHRec$[ebp+8], eax
  0001f	89 46 14	 mov	 DWORD PTR [esi+20], eax
  00022	89 46 18	 mov	 DWORD PTR [esi+24], eax
  00025	89 46 1c	 mov	 DWORD PTR [esi+28], eax

; 45   : 	{
; 46   : 		Init();

  00028	8b ce		 mov	 ecx, esi
  0002a	c6 45 fc 01	 mov	 BYTE PTR __$EHRec$[ebp+8], 1
  0002e	e8 00 00 00 00	 call	 ?Init@tagNamedTitleInfo@@QAEXXZ ; tagNamedTitleInfo::Init

; 47   : 	}

  00033	8b c6		 mov	 eax, esi
  00035	e8 00 00 00 00	 call	 __EH_epilog3
  0003a	c3		 ret	 0
_TEXT	ENDS
;	COMDAT text$x
text$x	SEGMENT
__unwindfunclet$??0tagNamedTitleInfo@@QAE@XZ$0:
  00000	8b 4d f0	 mov	 ecx, DWORD PTR _this$[ebp]
  00003	83 c1 04	 add	 ecx, 4
  00006	ff 25 00 00 00
	00		 jmp	 DWORD PTR __imp_??1ioHashString@@QAE@XZ
__unwindfunclet$??0tagNamedTitleInfo@@QAE@XZ$1:
  0000c	8b 4d f0	 mov	 ecx, DWORD PTR _this$[ebp]
  0000f	83 c1 14	 add	 ecx, 20			; 00000014H
  00012	e9 00 00 00 00	 jmp	 ??1?$vector@UtagNamedTitleGrade@@V?$allocator@UtagNamedTitleGrade@@@std@@@std@@QAE@XZ ; std::vector<tagNamedTitleGrade,std::allocator<tagNamedTitleGrade> >::~vector<tagNamedTitleGrade,std::allocator<tagNamedTitleGrade> >
__ehhandler$??0tagNamedTitleInfo@@QAE@XZ:
  00017	8b 54 24 08	 mov	 edx, DWORD PTR [esp+8]
  0001b	8d 42 0c	 lea	 eax, DWORD PTR [edx+12]
  0001e	8b 4a ec	 mov	 ecx, DWORD PTR [edx-20]
  00021	33 c8		 xor	 ecx, eax
  00023	e8 00 00 00 00	 call	 @__security_check_cookie@4
  00028	b8 00 00 00 00	 mov	 eax, OFFSET __ehfuncinfo$??0tagNamedTitleInfo@@QAE@XZ
  0002d	e9 00 00 00 00	 jmp	 ___CxxFrameHandler3
text$x	ENDS
??0tagNamedTitleInfo@@QAE@XZ ENDP			; tagNamedTitleInfo::tagNamedTitleInfo
PUBLIC	__real@3f19999a
PUBLIC	__real@3f59999a
PUBLIC	??_C@_0CA@GOKFOBNN@NamedTitleResultWnd?3?3ShowResult?$AA@ ; `string'
PUBLIC	??_C@_00CNPNBAHC@?$AA@				; `string'
PUBLIC	?ShowResult@NamedTitleResultWnd@@QAEXKHE@Z	; NamedTitleResultWnd::ShowResult
EXTRN	?AddTextPiece@ioComplexStringPrinter@@QAEXMPBD0@Z:PROC ; ioComplexStringPrinter::AddTextPiece
EXTRN	?GetNamedTitleTextColor@ioNamedTitleInfoManager@@QAEKKHEE@Z:PROC ; ioNamedTitleInfoManager::GetNamedTitleTextColor
EXTRN	?AddTextPiece@ioComplexStringPrinter@@QAAXMPBDZZ:PROC ; ioComplexStringPrinter::AddTextPiece
EXTRN	__imp_?GetString@ioStringManager@@QAEPADPBD0HW4FileNamePrefix@1@@Z:PROC
EXTRN	__imp_?GetSingleton@ioStringManager@@SAAAV1@XZ:PROC
EXTRN	?SetTextColor@ioComplexStringPrinter@@QAEXK@Z:PROC ; ioComplexStringPrinter::SetTextColor
EXTRN	?SetBkColor@ioComplexStringPrinter@@QAEXHHH@Z:PROC ; ioComplexStringPrinter::SetBkColor
EXTRN	?SetTextStyle@ioComplexStringPrinter@@QAEXW4TextStyle@@@Z:PROC ; ioComplexStringPrinter::SetTextStyle
EXTRN	__imp_?CreateImageByFullName@ioUIImageSetManager@@QAEPAVioUIRenderImage@@ABVioHashString@@_N@Z:PROC
EXTRN	__imp_?GetSingleton@ioUIImageSetManager@@SAAAV1@XZ:PROC
EXTRN	?GetNamedTitleIcon@ioNamedTitleInfoManager@@QAE?AVioHashString@@XZ:PROC ; ioNamedTitleInfoManager::GetNamedTitleIcon
EXTRN	?GetNamedTitleInfo@ioNamedTitleInfoManager@@QAE_NKAAUtagNamedTitleInfo@@@Z:PROC ; ioNamedTitleInfoManager::GetNamedTitleInfo
EXTRN	?GetSingleton@ioNamedTitleInfoManager@@SAAAV1@XZ:PROC ; ioNamedTitleInfoManager::GetSingleton
;	COMDAT __real@3f19999a
; File d:\lost saga for developer\youtube\tutorial\source\src\lsclient\gui\namedtitleresultwnd.cpp
CONST	SEGMENT
__real@3f19999a DD 03f19999ar			; 0.6
CONST	ENDS
;	COMDAT __real@3f59999a
CONST	SEGMENT
__real@3f59999a DD 03f59999ar			; 0.85
CONST	ENDS
;	COMDAT ??_C@_0CA@GOKFOBNN@NamedTitleResultWnd?3?3ShowResult?$AA@
CONST	SEGMENT
??_C@_0CA@GOKFOBNN@NamedTitleResultWnd?3?3ShowResult?$AA@ DB 'NamedTitleR'
	DB	'esultWnd::ShowResult', 00H			; `string'
CONST	ENDS
;	COMDAT ??_C@_00CNPNBAHC@?$AA@
CONST	SEGMENT
??_C@_00CNPNBAHC@?$AA@ DB 00H				; `string'
CONST	ENDS
;	COMDAT xdata$x
xdata$x	SEGMENT
__unwindtable$?ShowResult@NamedTitleResultWnd@@QAEXKHE@Z DD 0ffffffffH
	DD	FLAT:__unwindfunclet$?ShowResult@NamedTitleResultWnd@@QAEXKHE@Z$0
	DD	00H
	DD	FLAT:__unwindfunclet$?ShowResult@NamedTitleResultWnd@@QAEXKHE@Z$1
__ehfuncinfo$?ShowResult@NamedTitleResultWnd@@QAEXKHE@Z DD 019930522H
	DD	02H
	DD	FLAT:__unwindtable$?ShowResult@NamedTitleResultWnd@@QAEXKHE@Z
	DD	2 DUP(00H)
	DD	2 DUP(00H)
	DD	00H
	DD	01H
; Function compile flags: /Ogsp
xdata$x	ENDS
;	COMDAT ?ShowResult@NamedTitleResultWnd@@QAEXKHE@Z
_TEXT	SEGMENT
_sNamedTitleInfo$ = -72					; size = 36
$T507408 = -36						; size = 16
tv73 = -20						; size = 4
_this$ = -16						; size = 4
__$EHRec$ = -12						; size = 12
_dwCode$ = 8						; size = 4
_nLevel$ = 12						; size = 4
_byPremium$ = 16					; size = 1
?ShowResult@NamedTitleResultWnd@@QAEXKHE@Z PROC		; NamedTitleResultWnd::ShowResult, COMDAT
; _this$ = ecx

; 98   : {

  00000	6a 3c		 push	 60			; 0000003cH
  00002	b8 00 00 00 00	 mov	 eax, __ehhandler$?ShowResult@NamedTitleResultWnd@@QAEXKHE@Z
  00007	e8 00 00 00 00	 call	 __EH_prolog3
  0000c	8b f1		 mov	 esi, ecx
  0000e	89 75 f0	 mov	 DWORD PTR _this$[ebp], esi

; 99   : 	SAFEDELETE(m_pIcon);

  00011	8b 8e 60 01 00
	00		 mov	 ecx, DWORD PTR [esi+352]
  00017	33 ff		 xor	 edi, edi
  00019	3b cf		 cmp	 ecx, edi
  0001b	74 0d		 je	 SHORT $LN5@ShowResult
  0001d	8b 01		 mov	 eax, DWORD PTR [ecx]
  0001f	6a 01		 push	 1
  00021	ff 50 40	 call	 DWORD PTR [eax+64]
  00024	89 be 60 01 00
	00		 mov	 DWORD PTR [esi+352], edi
$LN5@ShowResult:

; 100  : 
; 101  : 	for ( int i=0; i<MAXLINE; i++ )

  0002a	8d 9e 68 01 00
	00		 lea	 ebx, DWORD PTR [esi+360]
  00030	c7 45 ec 0a 00
	00 00		 mov	 DWORD PTR tv73[ebp], 10	; 0000000aH
$LL4@ShowResult:

; 102  : 		m_Desc[i].ClearList();

  00037	8b cb		 mov	 ecx, ebx
  00039	e8 00 00 00 00	 call	 ?ClearList@ioComplexStringPrinter@@QAEXXZ ; ioComplexStringPrinter::ClearList
  0003e	83 c3 20	 add	 ebx, 32			; 00000020H
  00041	ff 4d ec	 dec	 DWORD PTR tv73[ebp]
  00044	75 f1		 jne	 SHORT $LL4@ShowResult

; 103  : 
; 104  : 	NamedTitleInfo sNamedTitleInfo;

  00046	8d 4d b8	 lea	 ecx, DWORD PTR _sNamedTitleInfo$[ebp]
  00049	e8 00 00 00 00	 call	 ??0tagNamedTitleInfo@@QAE@XZ ; tagNamedTitleInfo::tagNamedTitleInfo

; 105  : 	if ( !g_NamedTitleInfoMgr.GetNamedTitleInfo( dwCode, sNamedTitleInfo ) )

  0004e	8d 45 b8	 lea	 eax, DWORD PTR _sNamedTitleInfo$[ebp]
  00051	50		 push	 eax
  00052	ff 75 08	 push	 DWORD PTR _dwCode$[ebp]
  00055	89 7d fc	 mov	 DWORD PTR __$EHRec$[ebp+8], edi
  00058	e8 00 00 00 00	 call	 ?GetSingleton@ioNamedTitleInfoManager@@SAAAV1@XZ ; ioNamedTitleInfoManager::GetSingleton
  0005d	8b c8		 mov	 ecx, eax
  0005f	e8 00 00 00 00	 call	 ?GetNamedTitleInfo@ioNamedTitleInfoManager@@QAE_NKAAUtagNamedTitleInfo@@@Z ; ioNamedTitleInfoManager::GetNamedTitleInfo
  00064	84 c0		 test	 al, al

; 106  : 		return;

  00066	0f 84 b9 02 00
	00		 je	 $LN15@ShowResult

; 107  : 		
; 108  : 	m_pIcon = g_UIImageSetMgr.CreateImageByFullName( g_NamedTitleInfoMgr.GetNamedTitleIcon() );

  0006c	8d 45 dc	 lea	 eax, DWORD PTR $T507408[ebp]
  0006f	50		 push	 eax
  00070	e8 00 00 00 00	 call	 ?GetSingleton@ioNamedTitleInfoManager@@SAAAV1@XZ ; ioNamedTitleInfoManager::GetSingleton
  00075	8b c8		 mov	 ecx, eax
  00077	e8 00 00 00 00	 call	 ?GetNamedTitleIcon@ioNamedTitleInfoManager@@QAE?AVioHashString@@XZ ; ioNamedTitleInfoManager::GetNamedTitleIcon
  0007c	57		 push	 edi
  0007d	50		 push	 eax
  0007e	c6 45 fc 01	 mov	 BYTE PTR __$EHRec$[ebp+8], 1
  00082	ff 15 00 00 00
	00		 call	 DWORD PTR __imp_?GetSingleton@ioUIImageSetManager@@SAAAV1@XZ
  00088	8b c8		 mov	 ecx, eax
  0008a	ff 15 00 00 00
	00		 call	 DWORD PTR __imp_?CreateImageByFullName@ioUIImageSetManager@@QAEPAVioUIRenderImage@@ABVioHashString@@_N@Z
  00090	8d 4d dc	 lea	 ecx, DWORD PTR $T507408[ebp]
  00093	89 86 60 01 00
	00		 mov	 DWORD PTR [esi+352], eax
  00099	c6 45 fc 00	 mov	 BYTE PTR __$EHRec$[ebp+8], 0
  0009d	ff 15 00 00 00
	00		 call	 DWORD PTR __imp_??1ioHashString@@QAE@XZ

; 109  : 
; 110  : 	m_Desc[0].SetTextStyle( TS_NORMAL );

  000a3	81 c6 68 01 00
	00		 add	 esi, 360		; 00000168H
  000a9	57		 push	 edi
  000aa	8b ce		 mov	 ecx, esi
  000ac	e8 00 00 00 00	 call	 ?SetTextStyle@ioComplexStringPrinter@@QAEXW4TextStyle@@@Z ; ioComplexStringPrinter::SetTextStyle

; 111  : 	m_Desc[0].SetBkColor( 0, 0, 0 );	

  000b1	57		 push	 edi
  000b2	57		 push	 edi
  000b3	57		 push	 edi
  000b4	8b ce		 mov	 ecx, esi
  000b6	e8 00 00 00 00	 call	 ?SetBkColor@ioComplexStringPrinter@@QAEXHHH@Z ; ioComplexStringPrinter::SetBkColor

; 112  : 	m_Desc[0].SetTextColor( TCT_DEFAULT_DARKGRAY );

  000bb	68 3a 3a 3a ff	 push	 -12961222		; ff3a3a3aH
  000c0	8b ce		 mov	 ecx, esi
  000c2	e8 00 00 00 00	 call	 ?SetTextColor@ioComplexStringPrinter@@QAEXK@Z ; ioComplexStringPrinter::SetTextColor

; 113  : 	m_Desc[0].AddTextPiece( FONT_SIZE_17, STR(1) );

  000c7	8b 35 00 00 00
	00		 mov	 esi, DWORD PTR __imp_?GetSingleton@ioStringManager@@SAAAV1@XZ
  000cd	57		 push	 edi
  000ce	6a 01		 push	 1
  000d0	68 00 00 00 00	 push	 OFFSET ??_C@_00CNPNBAHC@?$AA@
  000d5	bb 00 00 00 00	 mov	 ebx, OFFSET ??_C@_0CA@GOKFOBNN@NamedTitleResultWnd?3?3ShowResult?$AA@
  000da	53		 push	 ebx
  000db	ff d6		 call	 esi
  000dd	8b 3d 00 00 00
	00		 mov	 edi, DWORD PTR __imp_?GetString@ioStringManager@@QAEPADPBD0HW4FileNamePrefix@1@@Z
  000e3	8b c8		 mov	 ecx, eax
  000e5	ff d7		 call	 edi
  000e7	f3 0f 10 05 00
	00 00 00	 movss	 xmm0, DWORD PTR __real@3f59999a
  000ef	50		 push	 eax
  000f0	8b 45 f0	 mov	 eax, DWORD PTR _this$[ebp]
  000f3	51		 push	 ecx
  000f4	05 68 01 00 00	 add	 eax, 360		; 00000168H
  000f9	f3 0f 11 04 24	 movss	 DWORD PTR [esp], xmm0
  000fe	50		 push	 eax
  000ff	e8 00 00 00 00	 call	 ?AddTextPiece@ioComplexStringPrinter@@QAAXMPBDZZ ; ioComplexStringPrinter::AddTextPiece
  00104	83 c4 0c	 add	 esp, 12			; 0000000cH

; 114  : 
; 115  : 	m_Desc[0].SetTextColor( g_NamedTitleInfoMgr.GetNamedTitleTextColor( dwCode, nLevel, byPremium, false ) );

  00107	6a 00		 push	 0
  00109	ff 75 10	 push	 DWORD PTR _byPremium$[ebp]
  0010c	ff 75 0c	 push	 DWORD PTR _nLevel$[ebp]
  0010f	ff 75 08	 push	 DWORD PTR _dwCode$[ebp]
  00112	e8 00 00 00 00	 call	 ?GetSingleton@ioNamedTitleInfoManager@@SAAAV1@XZ ; ioNamedTitleInfoManager::GetSingleton
  00117	8b c8		 mov	 ecx, eax
  00119	e8 00 00 00 00	 call	 ?GetNamedTitleTextColor@ioNamedTitleInfoManager@@QAEKKHEE@Z ; ioNamedTitleInfoManager::GetNamedTitleTextColor
  0011e	8b 4d f0	 mov	 ecx, DWORD PTR _this$[ebp]
  00121	50		 push	 eax
  00122	81 c1 68 01 00
	00		 add	 ecx, 360		; 00000168H
  00128	e8 00 00 00 00	 call	 ?SetTextColor@ioComplexStringPrinter@@QAEXK@Z ; ioComplexStringPrinter::SetTextColor

; 116  : 	m_Desc[0].AddTextPiece( FONT_SIZE_17, STR(2), sNamedTitleInfo.m_szName.c_str() );

  0012d	8d 4d bc	 lea	 ecx, DWORD PTR _sNamedTitleInfo$[ebp+4]
  00130	ff 15 00 00 00
	00		 call	 DWORD PTR __imp_?c_str@ioHashString@@QBEPBDXZ
  00136	50		 push	 eax
  00137	6a 00		 push	 0
  00139	6a 02		 push	 2
  0013b	68 00 00 00 00	 push	 OFFSET ??_C@_00CNPNBAHC@?$AA@
  00140	53		 push	 ebx
  00141	ff d6		 call	 esi
  00143	8b c8		 mov	 ecx, eax
  00145	ff d7		 call	 edi
  00147	f3 0f 10 05 00
	00 00 00	 movss	 xmm0, DWORD PTR __real@3f59999a
  0014f	50		 push	 eax
  00150	51		 push	 ecx
  00151	8b 4d f0	 mov	 ecx, DWORD PTR _this$[ebp]
  00154	81 c1 68 01 00
	00		 add	 ecx, 360		; 00000168H
  0015a	f3 0f 11 04 24	 movss	 DWORD PTR [esp], xmm0
  0015f	e8 00 00 00 00	 call	 ?AddTextPiece@ioComplexStringPrinter@@QAEXMPBD0@Z ; ioComplexStringPrinter::AddTextPiece

; 117  : 
; 118  : 	m_Desc[1].SetTextStyle( TS_NORMAL );

  00164	8b 4d f0	 mov	 ecx, DWORD PTR _this$[ebp]
  00167	81 c1 88 01 00
	00		 add	 ecx, 392		; 00000188H
  0016d	6a 00		 push	 0
  0016f	e8 00 00 00 00	 call	 ?SetTextStyle@ioComplexStringPrinter@@QAEXW4TextStyle@@@Z ; ioComplexStringPrinter::SetTextStyle

; 119  : 	m_Desc[1].SetBkColor( 0, 0, 0 );	

  00174	33 c0		 xor	 eax, eax
  00176	50		 push	 eax
  00177	8b 4d f0	 mov	 ecx, DWORD PTR _this$[ebp]
  0017a	50		 push	 eax
  0017b	50		 push	 eax
  0017c	81 c1 88 01 00
	00		 add	 ecx, 392		; 00000188H
  00182	e8 00 00 00 00	 call	 ?SetBkColor@ioComplexStringPrinter@@QAEXHHH@Z ; ioComplexStringPrinter::SetBkColor

; 120  : 	m_Desc[1].SetTextColor( TCT_DEFAULT_DARKGRAY );

  00187	8b 4d f0	 mov	 ecx, DWORD PTR _this$[ebp]
  0018a	68 3a 3a 3a ff	 push	 -12961222		; ff3a3a3aH
  0018f	81 c1 88 01 00
	00		 add	 ecx, 392		; 00000188H
  00195	e8 00 00 00 00	 call	 ?SetTextColor@ioComplexStringPrinter@@QAEXK@Z ; ioComplexStringPrinter::SetTextColor

; 121  : 	m_Desc[1].AddTextPiece( FONT_SIZE_12, STR(3) );

  0019a	6a 00		 push	 0
  0019c	6a 03		 push	 3
  0019e	68 00 00 00 00	 push	 OFFSET ??_C@_00CNPNBAHC@?$AA@
  001a3	53		 push	 ebx
  001a4	ff d6		 call	 esi
  001a6	8b c8		 mov	 ecx, eax
  001a8	ff d7		 call	 edi
  001aa	f3 0f 10 05 00
	00 00 00	 movss	 xmm0, DWORD PTR __real@3f19999a
  001b2	50		 push	 eax
  001b3	8b 45 f0	 mov	 eax, DWORD PTR _this$[ebp]
  001b6	51		 push	 ecx
  001b7	05 88 01 00 00	 add	 eax, 392		; 00000188H
  001bc	f3 0f 11 04 24	 movss	 DWORD PTR [esp], xmm0
  001c1	50		 push	 eax
  001c2	e8 00 00 00 00	 call	 ?AddTextPiece@ioComplexStringPrinter@@QAAXMPBDZZ ; ioComplexStringPrinter::AddTextPiece

; 122  : 
; 123  : 	m_Desc[1].SetTextColor( TCT_DEFAULT_RED );

  001c7	8b 4d f0	 mov	 ecx, DWORD PTR _this$[ebp]
  001ca	83 c4 0c	 add	 esp, 12			; 0000000cH
  001cd	68 00 16 b9 ff	 push	 -4647424		; ffb91600H
  001d2	81 c1 88 01 00
	00		 add	 ecx, 392		; 00000188H
  001d8	e8 00 00 00 00	 call	 ?SetTextColor@ioComplexStringPrinter@@QAEXK@Z ; ioComplexStringPrinter::SetTextColor

; 124  : 	m_Desc[1].AddTextPiece( FONT_SIZE_12, STR(4) );

  001dd	6a 00		 push	 0
  001df	6a 04		 push	 4
  001e1	68 00 00 00 00	 push	 OFFSET ??_C@_00CNPNBAHC@?$AA@
  001e6	53		 push	 ebx
  001e7	ff d6		 call	 esi
  001e9	8b c8		 mov	 ecx, eax
  001eb	ff d7		 call	 edi
  001ed	f3 0f 10 05 00
	00 00 00	 movss	 xmm0, DWORD PTR __real@3f19999a
  001f5	50		 push	 eax
  001f6	8b 45 f0	 mov	 eax, DWORD PTR _this$[ebp]
  001f9	51		 push	 ecx
  001fa	05 88 01 00 00	 add	 eax, 392		; 00000188H
  001ff	f3 0f 11 04 24	 movss	 DWORD PTR [esp], xmm0
  00204	50		 push	 eax
  00205	e8 00 00 00 00	 call	 ?AddTextPiece@ioComplexStringPrinter@@QAAXMPBDZZ ; ioComplexStringPrinter::AddTextPiece

; 125  : 
; 126  : 	m_Desc[1].SetTextColor( TCT_DEFAULT_DARKGRAY );

  0020a	8b 4d f0	 mov	 ecx, DWORD PTR _this$[ebp]
  0020d	83 c4 0c	 add	 esp, 12			; 0000000cH
  00210	68 3a 3a 3a ff	 push	 -12961222		; ff3a3a3aH
  00215	81 c1 88 01 00
	00		 add	 ecx, 392		; 00000188H
  0021b	e8 00 00 00 00	 call	 ?SetTextColor@ioComplexStringPrinter@@QAEXK@Z ; ioComplexStringPrinter::SetTextColor

; 127  : 	m_Desc[1].AddTextPiece( FONT_SIZE_12, STR(5) );

  00220	6a 00		 push	 0
  00222	6a 05		 push	 5
  00224	68 00 00 00 00	 push	 OFFSET ??_C@_00CNPNBAHC@?$AA@
  00229	53		 push	 ebx
  0022a	ff d6		 call	 esi
  0022c	8b c8		 mov	 ecx, eax
  0022e	ff d7		 call	 edi
  00230	f3 0f 10 05 00
	00 00 00	 movss	 xmm0, DWORD PTR __real@3f19999a
  00238	50		 push	 eax
  00239	8b 45 f0	 mov	 eax, DWORD PTR _this$[ebp]
  0023c	51		 push	 ecx
  0023d	05 88 01 00 00	 add	 eax, 392		; 00000188H
  00242	f3 0f 11 04 24	 movss	 DWORD PTR [esp], xmm0
  00247	50		 push	 eax
  00248	e8 00 00 00 00	 call	 ?AddTextPiece@ioComplexStringPrinter@@QAAXMPBDZZ ; ioComplexStringPrinter::AddTextPiece

; 128  : 
; 129  : 	m_Desc[2].SetTextStyle( TS_NORMAL );

  0024d	8b 4d f0	 mov	 ecx, DWORD PTR _this$[ebp]
  00250	83 c4 0c	 add	 esp, 12			; 0000000cH
  00253	81 c1 a8 01 00
	00		 add	 ecx, 424		; 000001a8H
  00259	6a 00		 push	 0
  0025b	e8 00 00 00 00	 call	 ?SetTextStyle@ioComplexStringPrinter@@QAEXW4TextStyle@@@Z ; ioComplexStringPrinter::SetTextStyle

; 130  : 	m_Desc[2].SetBkColor( 0, 0, 0 );	

  00260	8b 4d f0	 mov	 ecx, DWORD PTR _this$[ebp]
  00263	33 c0		 xor	 eax, eax
  00265	50		 push	 eax
  00266	50		 push	 eax
  00267	50		 push	 eax
  00268	81 c1 a8 01 00
	00		 add	 ecx, 424		; 000001a8H
  0026e	e8 00 00 00 00	 call	 ?SetBkColor@ioComplexStringPrinter@@QAEXHHH@Z ; ioComplexStringPrinter::SetBkColor

; 131  : 	m_Desc[2].SetTextColor( TCT_DEFAULT_DARKGRAY );

  00273	8b 4d f0	 mov	 ecx, DWORD PTR _this$[ebp]
  00276	68 3a 3a 3a ff	 push	 -12961222		; ff3a3a3aH
  0027b	81 c1 a8 01 00
	00		 add	 ecx, 424		; 000001a8H
  00281	e8 00 00 00 00	 call	 ?SetTextColor@ioComplexStringPrinter@@QAEXK@Z ; ioComplexStringPrinter::SetTextColor

; 132  : 	m_Desc[2].AddTextPiece( FONT_SIZE_12, STR(6) );

  00286	6a 00		 push	 0
  00288	6a 06		 push	 6
  0028a	68 00 00 00 00	 push	 OFFSET ??_C@_00CNPNBAHC@?$AA@
  0028f	53		 push	 ebx
  00290	ff d6		 call	 esi
  00292	8b c8		 mov	 ecx, eax
  00294	ff d7		 call	 edi
  00296	f3 0f 10 05 00
	00 00 00	 movss	 xmm0, DWORD PTR __real@3f19999a
  0029e	50		 push	 eax
  0029f	8b 45 f0	 mov	 eax, DWORD PTR _this$[ebp]
  002a2	51		 push	 ecx
  002a3	05 a8 01 00 00	 add	 eax, 424		; 000001a8H
  002a8	f3 0f 11 04 24	 movss	 DWORD PTR [esp], xmm0
  002ad	50		 push	 eax
  002ae	e8 00 00 00 00	 call	 ?AddTextPiece@ioComplexStringPrinter@@QAAXMPBDZZ ; ioComplexStringPrinter::AddTextPiece

; 133  : 
; 134  : 	m_Desc[3].SetTextStyle( TS_NORMAL );

  002b3	8b 4d f0	 mov	 ecx, DWORD PTR _this$[ebp]
  002b6	83 c4 0c	 add	 esp, 12			; 0000000cH
  002b9	81 c1 c8 01 00
	00		 add	 ecx, 456		; 000001c8H
  002bf	6a 00		 push	 0
  002c1	e8 00 00 00 00	 call	 ?SetTextStyle@ioComplexStringPrinter@@QAEXW4TextStyle@@@Z ; ioComplexStringPrinter::SetTextStyle

; 135  : 	m_Desc[3].SetBkColor( 0, 0, 0 );	

  002c6	8b 4d f0	 mov	 ecx, DWORD PTR _this$[ebp]
  002c9	33 c0		 xor	 eax, eax
  002cb	50		 push	 eax
  002cc	50		 push	 eax
  002cd	50		 push	 eax
  002ce	81 c1 c8 01 00
	00		 add	 ecx, 456		; 000001c8H
  002d4	e8 00 00 00 00	 call	 ?SetBkColor@ioComplexStringPrinter@@QAEXHHH@Z ; ioComplexStringPrinter::SetBkColor

; 136  : 	m_Desc[3].SetTextColor( TCT_DEFAULT_GREEN );

  002d9	8b 4d f0	 mov	 ecx, DWORD PTR _this$[ebp]
  002dc	68 22 72 11 ff	 push	 -15633886		; ff117222H
  002e1	81 c1 c8 01 00
	00		 add	 ecx, 456		; 000001c8H
  002e7	e8 00 00 00 00	 call	 ?SetTextColor@ioComplexStringPrinter@@QAEXK@Z ; ioComplexStringPrinter::SetTextColor

; 137  : 	m_Desc[3].AddTextPiece( FONT_SIZE_17, STR(7) );

  002ec	6a 00		 push	 0
  002ee	6a 07		 push	 7
  002f0	68 00 00 00 00	 push	 OFFSET ??_C@_00CNPNBAHC@?$AA@
  002f5	53		 push	 ebx
  002f6	ff d6		 call	 esi
  002f8	8b c8		 mov	 ecx, eax
  002fa	ff d7		 call	 edi
  002fc	f3 0f 10 05 00
	00 00 00	 movss	 xmm0, DWORD PTR __real@3f59999a
  00304	50		 push	 eax
  00305	8b 45 f0	 mov	 eax, DWORD PTR _this$[ebp]
  00308	51		 push	 ecx
  00309	05 c8 01 00 00	 add	 eax, 456		; 000001c8H
  0030e	f3 0f 11 04 24	 movss	 DWORD PTR [esp], xmm0
  00313	50		 push	 eax
  00314	e8 00 00 00 00	 call	 ?AddTextPiece@ioComplexStringPrinter@@QAAXMPBDZZ ; ioComplexStringPrinter::AddTextPiece

; 138  : 
; 139  : 	ShowWnd();

  00319	8b 4d f0	 mov	 ecx, DWORD PTR _this$[ebp]
  0031c	83 c4 0c	 add	 esp, 12			; 0000000cH
  0031f	ff 15 00 00 00
	00		 call	 DWORD PTR __imp_?ShowWnd@ioWnd@@QAEXXZ
$LN15@ShowResult:

; 140  : }

  00325	83 4d fc ff	 or	 DWORD PTR __$EHRec$[ebp+8], -1
  00329	8d 4d b8	 lea	 ecx, DWORD PTR _sNamedTitleInfo$[ebp]
  0032c	e8 00 00 00 00	 call	 ??1tagNamedTitleInfo@@QAE@XZ
  00331	e8 00 00 00 00	 call	 __EH_epilog3
  00336	c2 0c 00	 ret	 12			; 0000000cH
_TEXT	ENDS
;	COMDAT text$x
text$x	SEGMENT
__unwindfunclet$?ShowResult@NamedTitleResultWnd@@QAEXKHE@Z$0:
  00000	8d 4d b8	 lea	 ecx, DWORD PTR _sNamedTitleInfo$[ebp]
  00003	e9 00 00 00 00	 jmp	 ??1tagNamedTitleInfo@@QAE@XZ
__unwindfunclet$?ShowResult@NamedTitleResultWnd@@QAEXKHE@Z$1:
  00008	8d 4d dc	 lea	 ecx, DWORD PTR $T507408[ebp]
  0000b	ff 25 00 00 00
	00		 jmp	 DWORD PTR __imp_??1ioHashString@@QAE@XZ
__ehhandler$?ShowResult@NamedTitleResultWnd@@QAEXKHE@Z:
  00011	8b 54 24 08	 mov	 edx, DWORD PTR [esp+8]
  00015	8d 42 0c	 lea	 eax, DWORD PTR [edx+12]
  00018	8b 4a b4	 mov	 ecx, DWORD PTR [edx-76]
  0001b	33 c8		 xor	 ecx, eax
  0001d	e8 00 00 00 00	 call	 @__security_check_cookie@4
  00022	b8 00 00 00 00	 mov	 eax, OFFSET __ehfuncinfo$?ShowResult@NamedTitleResultWnd@@QAEXKHE@Z
  00027	e9 00 00 00 00	 jmp	 ___CxxFrameHandler3
text$x	ENDS
?ShowResult@NamedTitleResultWnd@@QAEXKHE@Z ENDP		; NamedTitleResultWnd::ShowResult
PUBLIC	??_C@_0CH@JFEFFGEE@NamedTitlePremiumResultWnd?3?3Show@ ; `string'
PUBLIC	?ShowResult@NamedTitlePremiumResultWnd@@QAEXKHE@Z ; NamedTitlePremiumResultWnd::ShowResult
EXTRN	?GetNamedTitlePremiumIcon@ioNamedTitleInfoManager@@QAE?AVioHashString@@XZ:PROC ; ioNamedTitleInfoManager::GetNamedTitlePremiumIcon
;	COMDAT ??_C@_0CH@JFEFFGEE@NamedTitlePremiumResultWnd?3?3Show@
CONST	SEGMENT
??_C@_0CH@JFEFFGEE@NamedTitlePremiumResultWnd?3?3Show@ DB 'NamedTitlePrem'
	DB	'iumResultWnd::ShowResult', 00H		; `string'
CONST	ENDS
;	COMDAT xdata$x
xdata$x	SEGMENT
__unwindtable$?ShowResult@NamedTitlePremiumResultWnd@@QAEXKHE@Z DD 0ffffffffH
	DD	FLAT:__unwindfunclet$?ShowResult@NamedTitlePremiumResultWnd@@QAEXKHE@Z$0
	DD	00H
	DD	FLAT:__unwindfunclet$?ShowResult@NamedTitlePremiumResultWnd@@QAEXKHE@Z$1
__ehfuncinfo$?ShowResult@NamedTitlePremiumResultWnd@@QAEXKHE@Z DD 019930522H
	DD	02H
	DD	FLAT:__unwindtable$?ShowResult@NamedTitlePremiumResultWnd@@QAEXKHE@Z
	DD	2 DUP(00H)
	DD	2 DUP(00H)
	DD	00H
	DD	01H
; Function compile flags: /Ogsp
xdata$x	ENDS
;	COMDAT ?ShowResult@NamedTitlePremiumResultWnd@@QAEXKHE@Z
_TEXT	SEGMENT
_sNamedTitleInfo$ = -68					; size = 36
$T507430 = -32						; size = 16
tv175 = -16						; size = 4
__$EHRec$ = -12						; size = 12
_dwCode$ = 8						; size = 4
_nLevel$ = 12						; size = 4
_byPremium$ = 16					; size = 1
?ShowResult@NamedTitlePremiumResultWnd@@QAEXKHE@Z PROC	; NamedTitlePremiumResultWnd::ShowResult, COMDAT
; _this$ = ecx

; 331  : {

  00000	6a 38		 push	 56			; 00000038H
  00002	b8 00 00 00 00	 mov	 eax, __ehhandler$?ShowResult@NamedTitlePremiumResultWnd@@QAEXKHE@Z
  00007	e8 00 00 00 00	 call	 __EH_prolog3
  0000c	8b f1		 mov	 esi, ecx

; 332  : 	SAFEDELETE(m_pIcon);

  0000e	8b 8e 60 01 00
	00		 mov	 ecx, DWORD PTR [esi+352]
  00014	33 db		 xor	 ebx, ebx
  00016	3b cb		 cmp	 ecx, ebx
  00018	74 0d		 je	 SHORT $LN5@ShowResult@2
  0001a	8b 01		 mov	 eax, DWORD PTR [ecx]
  0001c	6a 01		 push	 1
  0001e	ff 50 40	 call	 DWORD PTR [eax+64]
  00021	89 9e 60 01 00
	00		 mov	 DWORD PTR [esi+352], ebx
$LN5@ShowResult@2:

; 333  : 
; 334  : 	for ( int i=0; i<MAXLINE; i++ )

  00027	8d be 68 01 00
	00		 lea	 edi, DWORD PTR [esi+360]
  0002d	c7 45 f0 0a 00
	00 00		 mov	 DWORD PTR tv175[ebp], 10 ; 0000000aH
$LL4@ShowResult@2:

; 335  : 		m_Desc[i].ClearList();

  00034	8b cf		 mov	 ecx, edi
  00036	e8 00 00 00 00	 call	 ?ClearList@ioComplexStringPrinter@@QAEXXZ ; ioComplexStringPrinter::ClearList
  0003b	83 c7 20	 add	 edi, 32			; 00000020H
  0003e	ff 4d f0	 dec	 DWORD PTR tv175[ebp]
  00041	75 f1		 jne	 SHORT $LL4@ShowResult@2

; 336  : 		
; 337  : 	NamedTitleInfo sNamedTitleInfo;

  00043	8d 4d bc	 lea	 ecx, DWORD PTR _sNamedTitleInfo$[ebp]
  00046	e8 00 00 00 00	 call	 ??0tagNamedTitleInfo@@QAE@XZ ; tagNamedTitleInfo::tagNamedTitleInfo

; 338  : 	if ( !g_NamedTitleInfoMgr.GetNamedTitleInfo( dwCode, sNamedTitleInfo ) )

  0004b	8d 45 bc	 lea	 eax, DWORD PTR _sNamedTitleInfo$[ebp]
  0004e	50		 push	 eax
  0004f	ff 75 08	 push	 DWORD PTR _dwCode$[ebp]
  00052	89 5d fc	 mov	 DWORD PTR __$EHRec$[ebp+8], ebx
  00055	e8 00 00 00 00	 call	 ?GetSingleton@ioNamedTitleInfoManager@@SAAAV1@XZ ; ioNamedTitleInfoManager::GetSingleton
  0005a	8b c8		 mov	 ecx, eax
  0005c	e8 00 00 00 00	 call	 ?GetNamedTitleInfo@ioNamedTitleInfoManager@@QAE_NKAAUtagNamedTitleInfo@@@Z ; ioNamedTitleInfoManager::GetNamedTitleInfo
  00061	84 c0		 test	 al, al

; 339  : 		return;

  00063	0f 84 80 01 00
	00		 je	 $LN16@ShowResult@2

; 340  : 
; 341  : 	m_pIcon = g_UIImageSetMgr.CreateImageByFullName( g_NamedTitleInfoMgr.GetNamedTitlePremiumIcon() );

  00069	8d 45 e0	 lea	 eax, DWORD PTR $T507430[ebp]
  0006c	50		 push	 eax
  0006d	e8 00 00 00 00	 call	 ?GetSingleton@ioNamedTitleInfoManager@@SAAAV1@XZ ; ioNamedTitleInfoManager::GetSingleton
  00072	8b c8		 mov	 ecx, eax
  00074	e8 00 00 00 00	 call	 ?GetNamedTitlePremiumIcon@ioNamedTitleInfoManager@@QAE?AVioHashString@@XZ ; ioNamedTitleInfoManager::GetNamedTitlePremiumIcon
  00079	53		 push	 ebx
  0007a	50		 push	 eax
  0007b	c6 45 fc 01	 mov	 BYTE PTR __$EHRec$[ebp+8], 1
  0007f	ff 15 00 00 00
	00		 call	 DWORD PTR __imp_?GetSingleton@ioUIImageSetManager@@SAAAV1@XZ
  00085	8b c8		 mov	 ecx, eax
  00087	ff 15 00 00 00
	00		 call	 DWORD PTR __imp_?CreateImageByFullName@ioUIImageSetManager@@QAEPAVioUIRenderImage@@ABVioHashString@@_N@Z
  0008d	8d 4d e0	 lea	 ecx, DWORD PTR $T507430[ebp]
  00090	89 86 60 01 00
	00		 mov	 DWORD PTR [esi+352], eax
  00096	88 5d fc	 mov	 BYTE PTR __$EHRec$[ebp+8], bl
  00099	ff 15 00 00 00
	00		 call	 DWORD PTR __imp_??1ioHashString@@QAE@XZ

; 342  : 
; 343  : 	m_Desc[0].SetTextStyle( TS_NORMAL );

  0009f	53		 push	 ebx
  000a0	8d 8e 68 01 00
	00		 lea	 ecx, DWORD PTR [esi+360]
  000a6	e8 00 00 00 00	 call	 ?SetTextStyle@ioComplexStringPrinter@@QAEXW4TextStyle@@@Z ; ioComplexStringPrinter::SetTextStyle

; 344  : 	m_Desc[0].SetBkColor( 0, 0, 0 );	

  000ab	53		 push	 ebx
  000ac	53		 push	 ebx
  000ad	53		 push	 ebx
  000ae	8d 8e 68 01 00
	00		 lea	 ecx, DWORD PTR [esi+360]
  000b4	e8 00 00 00 00	 call	 ?SetBkColor@ioComplexStringPrinter@@QAEXHHH@Z ; ioComplexStringPrinter::SetBkColor

; 345  : 	m_Desc[0].SetTextColor( TCT_DEFAULT_DARKGRAY );

  000b9	68 3a 3a 3a ff	 push	 -12961222		; ff3a3a3aH
  000be	8d 8e 68 01 00
	00		 lea	 ecx, DWORD PTR [esi+360]
  000c4	e8 00 00 00 00	 call	 ?SetTextColor@ioComplexStringPrinter@@QAEXK@Z ; ioComplexStringPrinter::SetTextColor

; 346  : 	m_Desc[0].AddTextPiece( FONT_SIZE_17, STR(1) );

  000c9	8b 3d 00 00 00
	00		 mov	 edi, DWORD PTR __imp_?GetSingleton@ioStringManager@@SAAAV1@XZ
  000cf	53		 push	 ebx
  000d0	6a 01		 push	 1
  000d2	68 00 00 00 00	 push	 OFFSET ??_C@_00CNPNBAHC@?$AA@
  000d7	68 00 00 00 00	 push	 OFFSET ??_C@_0CH@JFEFFGEE@NamedTitlePremiumResultWnd?3?3Show@
  000dc	ff d7		 call	 edi
  000de	8b c8		 mov	 ecx, eax
  000e0	ff 15 00 00 00
	00		 call	 DWORD PTR __imp_?GetString@ioStringManager@@QAEPADPBD0HW4FileNamePrefix@1@@Z
  000e6	f3 0f 10 05 00
	00 00 00	 movss	 xmm0, DWORD PTR __real@3f59999a
  000ee	50		 push	 eax
  000ef	51		 push	 ecx
  000f0	8d 86 68 01 00
	00		 lea	 eax, DWORD PTR [esi+360]
  000f6	f3 0f 11 04 24	 movss	 DWORD PTR [esp], xmm0
  000fb	50		 push	 eax
  000fc	e8 00 00 00 00	 call	 ?AddTextPiece@ioComplexStringPrinter@@QAAXMPBDZZ ; ioComplexStringPrinter::AddTextPiece
  00101	83 c4 0c	 add	 esp, 12			; 0000000cH

; 347  : 
; 348  : 	m_Desc[1].SetTextStyle( TS_NORMAL );

  00104	8d 8e 88 01 00
	00		 lea	 ecx, DWORD PTR [esi+392]
  0010a	53		 push	 ebx
  0010b	e8 00 00 00 00	 call	 ?SetTextStyle@ioComplexStringPrinter@@QAEXW4TextStyle@@@Z ; ioComplexStringPrinter::SetTextStyle

; 349  : 	m_Desc[1].SetBkColor( 0, 0, 0 );	

  00110	53		 push	 ebx
  00111	53		 push	 ebx
  00112	53		 push	 ebx
  00113	8d 8e 88 01 00
	00		 lea	 ecx, DWORD PTR [esi+392]
  00119	e8 00 00 00 00	 call	 ?SetBkColor@ioComplexStringPrinter@@QAEXHHH@Z ; ioComplexStringPrinter::SetBkColor

; 350  : 	m_Desc[1].SetTextColor( g_NamedTitleInfoMgr.GetNamedTitleTextColor( dwCode, nLevel, byPremium, false ) );

  0011e	53		 push	 ebx
  0011f	ff 75 10	 push	 DWORD PTR _byPremium$[ebp]
  00122	ff 75 0c	 push	 DWORD PTR _nLevel$[ebp]
  00125	ff 75 08	 push	 DWORD PTR _dwCode$[ebp]
  00128	e8 00 00 00 00	 call	 ?GetSingleton@ioNamedTitleInfoManager@@SAAAV1@XZ ; ioNamedTitleInfoManager::GetSingleton
  0012d	8b c8		 mov	 ecx, eax
  0012f	e8 00 00 00 00	 call	 ?GetNamedTitleTextColor@ioNamedTitleInfoManager@@QAEKKHEE@Z ; ioNamedTitleInfoManager::GetNamedTitleTextColor
  00134	50		 push	 eax
  00135	8d 8e 88 01 00
	00		 lea	 ecx, DWORD PTR [esi+392]
  0013b	e8 00 00 00 00	 call	 ?SetTextColor@ioComplexStringPrinter@@QAEXK@Z ; ioComplexStringPrinter::SetTextColor

; 351  : 	m_Desc[1].AddTextPiece( FONT_SIZE_12, STR(2), sNamedTitleInfo.m_szName.c_str() );

  00140	8d 4d c0	 lea	 ecx, DWORD PTR _sNamedTitleInfo$[ebp+4]
  00143	ff 15 00 00 00
	00		 call	 DWORD PTR __imp_?c_str@ioHashString@@QBEPBDXZ
  00149	50		 push	 eax
  0014a	53		 push	 ebx
  0014b	6a 02		 push	 2
  0014d	68 00 00 00 00	 push	 OFFSET ??_C@_00CNPNBAHC@?$AA@
  00152	68 00 00 00 00	 push	 OFFSET ??_C@_0CH@JFEFFGEE@NamedTitlePremiumResultWnd?3?3Show@
  00157	ff d7		 call	 edi
  00159	8b c8		 mov	 ecx, eax
  0015b	ff 15 00 00 00
	00		 call	 DWORD PTR __imp_?GetString@ioStringManager@@QAEPADPBD0HW4FileNamePrefix@1@@Z
  00161	f3 0f 10 05 00
	00 00 00	 movss	 xmm0, DWORD PTR __real@3f19999a
  00169	50		 push	 eax
  0016a	51		 push	 ecx
  0016b	8d 8e 88 01 00
	00		 lea	 ecx, DWORD PTR [esi+392]
  00171	f3 0f 11 04 24	 movss	 DWORD PTR [esp], xmm0
  00176	e8 00 00 00 00	 call	 ?AddTextPiece@ioComplexStringPrinter@@QAEXMPBD0@Z ; ioComplexStringPrinter::AddTextPiece

; 352  : 
; 353  : 	m_Desc[2].SetTextStyle( TS_NORMAL );

  0017b	8d 8e a8 01 00
	00		 lea	 ecx, DWORD PTR [esi+424]
  00181	53		 push	 ebx
  00182	e8 00 00 00 00	 call	 ?SetTextStyle@ioComplexStringPrinter@@QAEXW4TextStyle@@@Z ; ioComplexStringPrinter::SetTextStyle

; 354  : 	m_Desc[2].SetBkColor( 0, 0, 0 );	

  00187	53		 push	 ebx
  00188	53		 push	 ebx
  00189	53		 push	 ebx
  0018a	8d 8e a8 01 00
	00		 lea	 ecx, DWORD PTR [esi+424]
  00190	e8 00 00 00 00	 call	 ?SetBkColor@ioComplexStringPrinter@@QAEXHHH@Z ; ioComplexStringPrinter::SetBkColor

; 355  : 	m_Desc[2].SetTextColor( TCT_DEFAULT_DARKGRAY );

  00195	68 3a 3a 3a ff	 push	 -12961222		; ff3a3a3aH
  0019a	8d 8e a8 01 00
	00		 lea	 ecx, DWORD PTR [esi+424]
  001a0	e8 00 00 00 00	 call	 ?SetTextColor@ioComplexStringPrinter@@QAEXK@Z ; ioComplexStringPrinter::SetTextColor

; 356  : 	m_Desc[2].AddTextPiece( FONT_SIZE_12, STR(3) );

  001a5	53		 push	 ebx
  001a6	6a 03		 push	 3
  001a8	68 00 00 00 00	 push	 OFFSET ??_C@_00CNPNBAHC@?$AA@
  001ad	68 00 00 00 00	 push	 OFFSET ??_C@_0CH@JFEFFGEE@NamedTitlePremiumResultWnd?3?3Show@
  001b2	ff d7		 call	 edi
  001b4	8b c8		 mov	 ecx, eax
  001b6	ff 15 00 00 00
	00		 call	 DWORD PTR __imp_?GetString@ioStringManager@@QAEPADPBD0HW4FileNamePrefix@1@@Z
  001bc	f3 0f 10 05 00
	00 00 00	 movss	 xmm0, DWORD PTR __real@3f19999a
  001c4	50		 push	 eax
  001c5	51		 push	 ecx
  001c6	8d 86 a8 01 00
	00		 lea	 eax, DWORD PTR [esi+424]
  001cc	f3 0f 11 04 24	 movss	 DWORD PTR [esp], xmm0
  001d1	50		 push	 eax
  001d2	e8 00 00 00 00	 call	 ?AddTextPiece@ioComplexStringPrinter@@QAAXMPBDZZ ; ioComplexStringPrinter::AddTextPiece
  001d7	83 c4 0c	 add	 esp, 12			; 0000000cH

; 357  : 
; 358  : 	ReBatchButton();

  001da	8b ce		 mov	 ecx, esi
  001dc	e8 00 00 00 00	 call	 ?ReBatchButton@NamedTitlePremiumResultWnd@@IAEXXZ ; NamedTitlePremiumResultWnd::ReBatchButton

; 359  : 	ShowWnd();

  001e1	8b ce		 mov	 ecx, esi
  001e3	ff 15 00 00 00
	00		 call	 DWORD PTR __imp_?ShowWnd@ioWnd@@QAEXXZ
$LN16@ShowResult@2:

; 360  : }

  001e9	83 4d fc ff	 or	 DWORD PTR __$EHRec$[ebp+8], -1
  001ed	8d 4d bc	 lea	 ecx, DWORD PTR _sNamedTitleInfo$[ebp]
  001f0	e8 00 00 00 00	 call	 ??1tagNamedTitleInfo@@QAE@XZ
  001f5	e8 00 00 00 00	 call	 __EH_epilog3
  001fa	c2 0c 00	 ret	 12			; 0000000cH
_TEXT	ENDS
;	COMDAT text$x
text$x	SEGMENT
__unwindfunclet$?ShowResult@NamedTitlePremiumResultWnd@@QAEXKHE@Z$0:
  00000	8d 4d bc	 lea	 ecx, DWORD PTR _sNamedTitleInfo$[ebp]
  00003	e9 00 00 00 00	 jmp	 ??1tagNamedTitleInfo@@QAE@XZ
__unwindfunclet$?ShowResult@NamedTitlePremiumResultWnd@@QAEXKHE@Z$1:
  00008	8d 4d e0	 lea	 ecx, DWORD PTR $T507430[ebp]
  0000b	ff 25 00 00 00
	00		 jmp	 DWORD PTR __imp_??1ioHashString@@QAE@XZ
__ehhandler$?ShowResult@NamedTitlePremiumResultWnd@@QAEXKHE@Z:
  00011	8b 54 24 08	 mov	 edx, DWORD PTR [esp+8]
  00015	8d 42 0c	 lea	 eax, DWORD PTR [edx+12]
  00018	8b 4a b8	 mov	 ecx, DWORD PTR [edx-72]
  0001b	33 c8		 xor	 ecx, eax
  0001d	e8 00 00 00 00	 call	 @__security_check_cookie@4
  00022	b8 00 00 00 00	 mov	 eax, OFFSET __ehfuncinfo$?ShowResult@NamedTitlePremiumResultWnd@@QAEXKHE@Z
  00027	e9 00 00 00 00	 jmp	 ___CxxFrameHandler3
text$x	ENDS
?ShowResult@NamedTitlePremiumResultWnd@@QAEXKHE@Z ENDP	; NamedTitlePremiumResultWnd::ShowResult
END
