; Listing generated by Microsoft (R) Optimizing Compiler Version 16.00.30319.01 

	TITLE	D:\Lost Saga For Developer\Youtube\Tutorial\Source\src\LSClient\NetworkWrappingFunc.cpp
	.686P
	.XMM
	include listing.inc
	.model	flat

INCLUDELIB MSVCRT
INCLUDELIB OLDNAMES

PUBLIC	?IsNetworkPlaying@P2PNetwork@@YA_NXZ		; P2PNetwork::IsNetworkPlaying
EXTRN	?m_bNetworkPlay@@3_NA:BYTE			; m_bNetworkPlay
; Function compile flags: /Ogsp
; File d:\lost saga for developer\youtube\tutorial\source\src\lsclient\networkwrappingfunc.cpp
;	COMDAT ?IsNetworkPlaying@P2PNetwork@@YA_NXZ
_TEXT	SEGMENT
?IsNetworkPlaying@P2PNetwork@@YA_NXZ PROC		; P2PNetwork::IsNetworkPlaying, COMDAT

; 16   : 		return m_bNetworkPlay;

  00000	a0 00 00 00 00	 mov	 al, BYTE PTR ?m_bNetworkPlay@@3_NA ; m_bNetworkPlay

; 17   : 	}

  00005	c3		 ret	 0
?IsNetworkPlaying@P2PNetwork@@YA_NXZ ENDP		; P2PNetwork::IsNetworkPlaying
_TEXT	ENDS
PUBLIC	?IsHost@P2PNetwork@@YA_NXZ			; P2PNetwork::IsHost
EXTRN	?IsHost@ioMyInfo@@QBE_NXZ:PROC			; ioMyInfo::IsHost
EXTRN	?GetSingleton@ioMyInfo@@SAAAV1@XZ:PROC		; ioMyInfo::GetSingleton
; Function compile flags: /Ogsp
;	COMDAT ?IsHost@P2PNetwork@@YA_NXZ
_TEXT	SEGMENT
?IsHost@P2PNetwork@@YA_NXZ PROC				; P2PNetwork::IsHost, COMDAT

; 21   : 		if( !IsNetworkPlaying() || g_MyInfo.IsHost() )

  00000	80 3d 00 00 00
	00 00		 cmp	 BYTE PTR ?m_bNetworkPlay@@3_NA, 0 ; m_bNetworkPlay
  00007	74 11		 je	 SHORT $LN1@IsHost
  00009	e8 00 00 00 00	 call	 ?GetSingleton@ioMyInfo@@SAAAV1@XZ ; ioMyInfo::GetSingleton
  0000e	8b c8		 mov	 ecx, eax
  00010	e8 00 00 00 00	 call	 ?IsHost@ioMyInfo@@QBE_NXZ ; ioMyInfo::IsHost
  00015	84 c0		 test	 al, al
  00017	75 01		 jne	 SHORT $LN1@IsHost

; 23   : 
; 24   : 		return false;
; 25   : 	}

  00019	c3		 ret	 0
$LN1@IsHost:

; 22   : 			return true;

  0001a	b0 01		 mov	 al, 1

; 23   : 
; 24   : 		return false;
; 25   : 	}

  0001c	c3		 ret	 0
?IsHost@P2PNetwork@@YA_NXZ ENDP				; P2PNetwork::IsHost
_TEXT	ENDS
PUBLIC	?SendToAllPlayingUser@P2PNetwork@@YAXAAVSP2Packet@@PAVioBaseChar@@@Z ; P2PNetwork::SendToAllPlayingUser
EXTRN	?SendToAllPlayingUser@ioApplication@@QAEXAAVSP2Packet@@PAVioBaseChar@@@Z:PROC ; ioApplication::SendToAllPlayingUser
EXTRN	?GetSingleton@ioApplication@@SAAAV1@XZ:PROC	; ioApplication::GetSingleton
; Function compile flags: /Ogsp
;	COMDAT ?SendToAllPlayingUser@P2PNetwork@@YAXAAVSP2Packet@@PAVioBaseChar@@@Z
_TEXT	SEGMENT
_rkPacket$ = 8						; size = 4
_pBase$ = 12						; size = 4
?SendToAllPlayingUser@P2PNetwork@@YAXAAVSP2Packet@@PAVioBaseChar@@@Z PROC ; P2PNetwork::SendToAllPlayingUser, COMDAT

; 28   : 	{

  00000	55		 push	 ebp
  00001	8b ec		 mov	 ebp, esp

; 29   : 		g_App.SendToAllPlayingUser( rkPacket, pBase );

  00003	ff 75 0c	 push	 DWORD PTR _pBase$[ebp]
  00006	ff 75 08	 push	 DWORD PTR _rkPacket$[ebp]
  00009	e8 00 00 00 00	 call	 ?GetSingleton@ioApplication@@SAAAV1@XZ ; ioApplication::GetSingleton
  0000e	8b c8		 mov	 ecx, eax
  00010	e8 00 00 00 00	 call	 ?SendToAllPlayingUser@ioApplication@@QAEXAAVSP2Packet@@PAVioBaseChar@@@Z ; ioApplication::SendToAllPlayingUser

; 30   : 	}

  00015	5d		 pop	 ebp
  00016	c3		 ret	 0
?SendToAllPlayingUser@P2PNetwork@@YAXAAVSP2Packet@@PAVioBaseChar@@@Z ENDP ; P2PNetwork::SendToAllPlayingUser
_TEXT	ENDS
PUBLIC	?SendToAllUser@P2PNetwork@@YAXAAVSP2Packet@@PAVioBaseChar@@@Z ; P2PNetwork::SendToAllUser
EXTRN	?SendToAllUser@ioApplication@@QAEXAAVSP2Packet@@PAVioBaseChar@@@Z:PROC ; ioApplication::SendToAllUser
; Function compile flags: /Ogsp
;	COMDAT ?SendToAllUser@P2PNetwork@@YAXAAVSP2Packet@@PAVioBaseChar@@@Z
_TEXT	SEGMENT
_rkPacket$ = 8						; size = 4
_pBase$ = 12						; size = 4
?SendToAllUser@P2PNetwork@@YAXAAVSP2Packet@@PAVioBaseChar@@@Z PROC ; P2PNetwork::SendToAllUser, COMDAT

; 33   : 	{

  00000	55		 push	 ebp
  00001	8b ec		 mov	 ebp, esp

; 34   : 		g_App.SendToAllUser( rkPacket, pBase );

  00003	ff 75 0c	 push	 DWORD PTR _pBase$[ebp]
  00006	ff 75 08	 push	 DWORD PTR _rkPacket$[ebp]
  00009	e8 00 00 00 00	 call	 ?GetSingleton@ioApplication@@SAAAV1@XZ ; ioApplication::GetSingleton
  0000e	8b c8		 mov	 ecx, eax
  00010	e8 00 00 00 00	 call	 ?SendToAllUser@ioApplication@@QAEXAAVSP2Packet@@PAVioBaseChar@@@Z ; ioApplication::SendToAllUser

; 35   : 	}

  00015	5d		 pop	 ebp
  00016	c3		 ret	 0
?SendToAllUser@P2PNetwork@@YAXAAVSP2Packet@@PAVioBaseChar@@@Z ENDP ; P2PNetwork::SendToAllUser
_TEXT	ENDS
PUBLIC	?SendToTeam@P2PNetwork@@YAXAAVSP2Packet@@W4TeamType@@@Z ; P2PNetwork::SendToTeam
EXTRN	?SendToTeam@ioApplication@@QAEXAAVSP2Packet@@W4TeamType@@@Z:PROC ; ioApplication::SendToTeam
; Function compile flags: /Ogsp
;	COMDAT ?SendToTeam@P2PNetwork@@YAXAAVSP2Packet@@W4TeamType@@@Z
_TEXT	SEGMENT
_rkPacket$ = 8						; size = 4
_eSendTeam$ = 12					; size = 4
?SendToTeam@P2PNetwork@@YAXAAVSP2Packet@@W4TeamType@@@Z PROC ; P2PNetwork::SendToTeam, COMDAT

; 38   : 	{

  00000	55		 push	 ebp
  00001	8b ec		 mov	 ebp, esp

; 39   : 		g_App.SendToTeam( rkPacket , eSendTeam);

  00003	ff 75 0c	 push	 DWORD PTR _eSendTeam$[ebp]
  00006	ff 75 08	 push	 DWORD PTR _rkPacket$[ebp]
  00009	e8 00 00 00 00	 call	 ?GetSingleton@ioApplication@@SAAAV1@XZ ; ioApplication::GetSingleton
  0000e	8b c8		 mov	 ecx, eax
  00010	e8 00 00 00 00	 call	 ?SendToTeam@ioApplication@@QAEXAAVSP2Packet@@W4TeamType@@@Z ; ioApplication::SendToTeam

; 40   : 	}

  00015	5d		 pop	 ebp
  00016	c3		 ret	 0
?SendToTeam@P2PNetwork@@YAXAAVSP2Packet@@W4TeamType@@@Z ENDP ; P2PNetwork::SendToTeam
_TEXT	ENDS
PUBLIC	?SendToUser@P2PNetwork@@YAXABVioHashString@@AAVSP2Packet@@@Z ; P2PNetwork::SendToUser
EXTRN	?SendToUser@ioApplication@@QAEXABVioHashString@@AAVSP2Packet@@@Z:PROC ; ioApplication::SendToUser
; Function compile flags: /Ogsp
;	COMDAT ?SendToUser@P2PNetwork@@YAXABVioHashString@@AAVSP2Packet@@@Z
_TEXT	SEGMENT
_rkName$ = 8						; size = 4
_rkPacket$ = 12						; size = 4
?SendToUser@P2PNetwork@@YAXABVioHashString@@AAVSP2Packet@@@Z PROC ; P2PNetwork::SendToUser, COMDAT

; 43   : 	{

  00000	55		 push	 ebp
  00001	8b ec		 mov	 ebp, esp

; 44   : 		g_App.SendToUser( rkName, rkPacket );

  00003	ff 75 0c	 push	 DWORD PTR _rkPacket$[ebp]
  00006	ff 75 08	 push	 DWORD PTR _rkName$[ebp]
  00009	e8 00 00 00 00	 call	 ?GetSingleton@ioApplication@@SAAAV1@XZ ; ioApplication::GetSingleton
  0000e	8b c8		 mov	 ecx, eax
  00010	e8 00 00 00 00	 call	 ?SendToUser@ioApplication@@QAEXABVioHashString@@AAVSP2Packet@@@Z ; ioApplication::SendToUser

; 45   : 	}

  00015	5d		 pop	 ebp
  00016	c3		 ret	 0
?SendToUser@P2PNetwork@@YAXABVioHashString@@AAVSP2Packet@@@Z ENDP ; P2PNetwork::SendToUser
_TEXT	ENDS
PUBLIC	?SendToUserByIndex@P2PNetwork@@YAXKAAVSP2Packet@@@Z ; P2PNetwork::SendToUserByIndex
EXTRN	?SendToUserByIndex@ioApplication@@QAEXKAAVSP2Packet@@@Z:PROC ; ioApplication::SendToUserByIndex
; Function compile flags: /Ogsp
;	COMDAT ?SendToUserByIndex@P2PNetwork@@YAXKAAVSP2Packet@@@Z
_TEXT	SEGMENT
_dwUserIndex$ = 8					; size = 4
_rkPacket$ = 12						; size = 4
?SendToUserByIndex@P2PNetwork@@YAXKAAVSP2Packet@@@Z PROC ; P2PNetwork::SendToUserByIndex, COMDAT

; 48   : 	{

  00000	55		 push	 ebp
  00001	8b ec		 mov	 ebp, esp

; 49   : 		g_App.SendToUserByIndex( dwUserIndex, rkPacket );

  00003	ff 75 0c	 push	 DWORD PTR _rkPacket$[ebp]
  00006	ff 75 08	 push	 DWORD PTR _dwUserIndex$[ebp]
  00009	e8 00 00 00 00	 call	 ?GetSingleton@ioApplication@@SAAAV1@XZ ; ioApplication::GetSingleton
  0000e	8b c8		 mov	 ecx, eax
  00010	e8 00 00 00 00	 call	 ?SendToUserByIndex@ioApplication@@QAEXKAAVSP2Packet@@@Z ; ioApplication::SendToUserByIndex

; 50   : 	}

  00015	5d		 pop	 ebp
  00016	c3		 ret	 0
?SendToUserByIndex@P2PNetwork@@YAXKAAVSP2Packet@@@Z ENDP ; P2PNetwork::SendToUserByIndex
_TEXT	ENDS
PUBLIC	?SendToHost@P2PNetwork@@YAXAAVSP2Packet@@@Z	; P2PNetwork::SendToHost
EXTRN	?SendToHost@ioApplication@@QAEXAAVSP2Packet@@@Z:PROC ; ioApplication::SendToHost
; Function compile flags: /Ogsp
;	COMDAT ?SendToHost@P2PNetwork@@YAXAAVSP2Packet@@@Z
_TEXT	SEGMENT
_rkPacket$ = 8						; size = 4
?SendToHost@P2PNetwork@@YAXAAVSP2Packet@@@Z PROC	; P2PNetwork::SendToHost, COMDAT

; 53   : 	{

  00000	55		 push	 ebp
  00001	8b ec		 mov	 ebp, esp

; 54   : 		if( !IsHost() )

  00003	e8 00 00 00 00	 call	 ?IsHost@P2PNetwork@@YA_NXZ ; P2PNetwork::IsHost
  00008	84 c0		 test	 al, al
  0000a	75 0f		 jne	 SHORT $LN1@SendToHost

; 55   : 		{
; 56   : 			g_App.SendToHost( rkPacket );

  0000c	ff 75 08	 push	 DWORD PTR _rkPacket$[ebp]
  0000f	e8 00 00 00 00	 call	 ?GetSingleton@ioApplication@@SAAAV1@XZ ; ioApplication::GetSingleton
  00014	8b c8		 mov	 ecx, eax
  00016	e8 00 00 00 00	 call	 ?SendToHost@ioApplication@@QAEXAAVSP2Packet@@@Z ; ioApplication::SendToHost
$LN1@SendToHost:

; 57   : 		}
; 58   : 	}

  0001b	5d		 pop	 ebp
  0001c	c3		 ret	 0
?SendToHost@P2PNetwork@@YAXAAVSP2Packet@@@Z ENDP	; P2PNetwork::SendToHost
_TEXT	ENDS
PUBLIC	?SendToServer@P2PNetwork@@YAXAAVSP2Packet@@@Z	; P2PNetwork::SendToServer
EXTRN	?SendUDPToServer@ioApplication@@QAEXAAVSP2Packet@@@Z:PROC ; ioApplication::SendUDPToServer
; Function compile flags: /Ogsp
;	COMDAT ?SendToServer@P2PNetwork@@YAXAAVSP2Packet@@@Z
_TEXT	SEGMENT
_rkPacket$ = 8						; size = 4
?SendToServer@P2PNetwork@@YAXAAVSP2Packet@@@Z PROC	; P2PNetwork::SendToServer, COMDAT

; 61   : 	{

  00000	55		 push	 ebp
  00001	8b ec		 mov	 ebp, esp

; 62   : 		g_App.SendUDPToServer( rkPacket );

  00003	ff 75 08	 push	 DWORD PTR _rkPacket$[ebp]
  00006	e8 00 00 00 00	 call	 ?GetSingleton@ioApplication@@SAAAV1@XZ ; ioApplication::GetSingleton
  0000b	8b c8		 mov	 ecx, eax
  0000d	e8 00 00 00 00	 call	 ?SendUDPToServer@ioApplication@@QAEXAAVSP2Packet@@@Z ; ioApplication::SendUDPToServer

; 63   : 	}

  00012	5d		 pop	 ebp
  00013	c3		 ret	 0
?SendToServer@P2PNetwork@@YAXAAVSP2Packet@@@Z ENDP	; P2PNetwork::SendToServer
_TEXT	ENDS
PUBLIC	?SendLog@P2PNetwork@@YAXAAVSP2Packet@@@Z	; P2PNetwork::SendLog
EXTRN	?SendToLogServer@ioApplication@@QAEXAAVSP2Packet@@@Z:PROC ; ioApplication::SendToLogServer
; Function compile flags: /Ogsp
;	COMDAT ?SendLog@P2PNetwork@@YAXAAVSP2Packet@@@Z
_TEXT	SEGMENT
_rkPacket$ = 8						; size = 4
?SendLog@P2PNetwork@@YAXAAVSP2Packet@@@Z PROC		; P2PNetwork::SendLog, COMDAT

; 66   : 	{

  00000	55		 push	 ebp
  00001	8b ec		 mov	 ebp, esp

; 67   : 		g_App.SendToLogServer( rkPacket );

  00003	ff 75 08	 push	 DWORD PTR _rkPacket$[ebp]
  00006	e8 00 00 00 00	 call	 ?GetSingleton@ioApplication@@SAAAV1@XZ ; ioApplication::GetSingleton
  0000b	8b c8		 mov	 ecx, eax
  0000d	e8 00 00 00 00	 call	 ?SendToLogServer@ioApplication@@QAEXAAVSP2Packet@@@Z ; ioApplication::SendToLogServer

; 68   : 	}

  00012	5d		 pop	 ebp
  00013	c3		 ret	 0
?SendLog@P2PNetwork@@YAXAAVSP2Packet@@@Z ENDP		; P2PNetwork::SendLog
_TEXT	ENDS
PUBLIC	?SendP2PUserInfoSync@P2PNetwork@@YAXABVioHashString@@AAVSP2Packet@@@Z ; P2PNetwork::SendP2PUserInfoSync
EXTRN	?SendP2PUserInfoSync@ioApplication@@QAEXABVioHashString@@AAVSP2Packet@@@Z:PROC ; ioApplication::SendP2PUserInfoSync
; Function compile flags: /Ogsp
;	COMDAT ?SendP2PUserInfoSync@P2PNetwork@@YAXABVioHashString@@AAVSP2Packet@@@Z
_TEXT	SEGMENT
_rkName$ = 8						; size = 4
_rkPacket$ = 12						; size = 4
?SendP2PUserInfoSync@P2PNetwork@@YAXABVioHashString@@AAVSP2Packet@@@Z PROC ; P2PNetwork::SendP2PUserInfoSync, COMDAT

; 71   : 	{

  00000	55		 push	 ebp
  00001	8b ec		 mov	 ebp, esp

; 72   : 		g_App.SendP2PUserInfoSync( rkName, rkPacket );

  00003	ff 75 0c	 push	 DWORD PTR _rkPacket$[ebp]
  00006	ff 75 08	 push	 DWORD PTR _rkName$[ebp]
  00009	e8 00 00 00 00	 call	 ?GetSingleton@ioApplication@@SAAAV1@XZ ; ioApplication::GetSingleton
  0000e	8b c8		 mov	 ecx, eax
  00010	e8 00 00 00 00	 call	 ?SendP2PUserInfoSync@ioApplication@@QAEXABVioHashString@@AAVSP2Packet@@@Z ; ioApplication::SendP2PUserInfoSync

; 73   : 	}

  00015	5d		 pop	 ebp
  00016	c3		 ret	 0
?SendP2PUserInfoSync@P2PNetwork@@YAXABVioHashString@@AAVSP2Packet@@@Z ENDP ; P2PNetwork::SendP2PUserInfoSync
_TEXT	ENDS
PUBLIC	?SendToRelayPacket@P2PNetwork@@YAXABVioHashString@@AAVSP2Packet@@@Z ; P2PNetwork::SendToRelayPacket
EXTRN	?SendP2PRelayPacket@ioApplication@@QAEXABVioHashString@@AAVSP2Packet@@@Z:PROC ; ioApplication::SendP2PRelayPacket
; Function compile flags: /Ogsp
;	COMDAT ?SendToRelayPacket@P2PNetwork@@YAXABVioHashString@@AAVSP2Packet@@@Z
_TEXT	SEGMENT
_rkName$ = 8						; size = 4
_rkPacket$ = 12						; size = 4
?SendToRelayPacket@P2PNetwork@@YAXABVioHashString@@AAVSP2Packet@@@Z PROC ; P2PNetwork::SendToRelayPacket, COMDAT

; 76   : 	{

  00000	55		 push	 ebp
  00001	8b ec		 mov	 ebp, esp

; 77   : 		g_App.SendP2PRelayPacket( rkName, rkPacket );

  00003	ff 75 0c	 push	 DWORD PTR _rkPacket$[ebp]
  00006	ff 75 08	 push	 DWORD PTR _rkName$[ebp]
  00009	e8 00 00 00 00	 call	 ?GetSingleton@ioApplication@@SAAAV1@XZ ; ioApplication::GetSingleton
  0000e	8b c8		 mov	 ecx, eax
  00010	e8 00 00 00 00	 call	 ?SendP2PRelayPacket@ioApplication@@QAEXABVioHashString@@AAVSP2Packet@@@Z ; ioApplication::SendP2PRelayPacket

; 78   : 	}

  00015	5d		 pop	 ebp
  00016	c3		 ret	 0
?SendToRelayPacket@P2PNetwork@@YAXABVioHashString@@AAVSP2Packet@@@Z ENDP ; P2PNetwork::SendToRelayPacket
_TEXT	ENDS
PUBLIC	?SendToRelaySelf@P2PNetwork@@YAXAAVSP2Packet@@@Z ; P2PNetwork::SendToRelaySelf
EXTRN	?SendToRelaySelf@ioApplication@@QAEXAAVSP2Packet@@@Z:PROC ; ioApplication::SendToRelaySelf
; Function compile flags: /Ogsp
;	COMDAT ?SendToRelaySelf@P2PNetwork@@YAXAAVSP2Packet@@@Z
_TEXT	SEGMENT
_rkPacket$ = 8						; size = 4
?SendToRelaySelf@P2PNetwork@@YAXAAVSP2Packet@@@Z PROC	; P2PNetwork::SendToRelaySelf, COMDAT

; 81   : 	{

  00000	55		 push	 ebp
  00001	8b ec		 mov	 ebp, esp

; 82   : 		g_App.SendToRelaySelf( rkPacket );

  00003	ff 75 08	 push	 DWORD PTR _rkPacket$[ebp]
  00006	e8 00 00 00 00	 call	 ?GetSingleton@ioApplication@@SAAAV1@XZ ; ioApplication::GetSingleton
  0000b	8b c8		 mov	 ecx, eax
  0000d	e8 00 00 00 00	 call	 ?SendToRelaySelf@ioApplication@@QAEXAAVSP2Packet@@@Z ; ioApplication::SendToRelaySelf

; 83   : 	}

  00012	5d		 pop	 ebp
  00013	c3		 ret	 0
?SendToRelaySelf@P2PNetwork@@YAXAAVSP2Packet@@@Z ENDP	; P2PNetwork::SendToRelaySelf
_TEXT	ENDS
PUBLIC	?RecvPacket@P2PNetwork@@YAXAAVSP2Packet@@PADH@Z	; P2PNetwork::RecvPacket
EXTRN	?RecvUDPPacket@ioApplication@@QAEXAAVSP2Packet@@PBDH@Z:PROC ; ioApplication::RecvUDPPacket
EXTRN	?g_bExit@@3_NA:BYTE				; g_bExit
; Function compile flags: /Ogsp
;	COMDAT ?RecvPacket@P2PNetwork@@YAXAAVSP2Packet@@PADH@Z
_TEXT	SEGMENT
_rkPacket$ = 8						; size = 4
_RcvIP$ = 12						; size = 4
_iRcvPort$ = 16						; size = 4
?RecvPacket@P2PNetwork@@YAXAAVSP2Packet@@PADH@Z PROC	; P2PNetwork::RecvPacket, COMDAT

; 86   : 	{

  00000	55		 push	 ebp
  00001	8b ec		 mov	 ebp, esp

; 87   : 		if( g_bExit )

  00003	80 3d 00 00 00
	00 00		 cmp	 BYTE PTR ?g_bExit@@3_NA, 0 ; g_bExit
  0000a	75 15		 jne	 SHORT $LN2@RecvPacket

; 88   : 			return;
; 89   : 		g_App.RecvUDPPacket( rkPacket, RcvIP, iRcvPort );

  0000c	ff 75 10	 push	 DWORD PTR _iRcvPort$[ebp]
  0000f	ff 75 0c	 push	 DWORD PTR _RcvIP$[ebp]
  00012	ff 75 08	 push	 DWORD PTR _rkPacket$[ebp]
  00015	e8 00 00 00 00	 call	 ?GetSingleton@ioApplication@@SAAAV1@XZ ; ioApplication::GetSingleton
  0001a	8b c8		 mov	 ecx, eax
  0001c	e8 00 00 00 00	 call	 ?RecvUDPPacket@ioApplication@@QAEXAAVSP2Packet@@PBDH@Z ; ioApplication::RecvUDPPacket
$LN2@RecvPacket:

; 90   : 	}

  00021	5d		 pop	 ebp
  00022	c3		 ret	 0
?RecvPacket@P2PNetwork@@YAXAAVSP2Packet@@PADH@Z ENDP	; P2PNetwork::RecvPacket
_TEXT	ENDS
PUBLIC	?GetNextSendIndex@P2PNetwork@@YAH_N@Z		; P2PNetwork::GetNextSendIndex
EXTRN	?GetNextSendIndex@ioApplication@@QAEHXZ:PROC	; ioApplication::GetNextSendIndex
; Function compile flags: /Ogsp
;	COMDAT ?GetNextSendIndex@P2PNetwork@@YAH_N@Z
_TEXT	SEGMENT
_bNpc$ = 8						; size = 1
?GetNextSendIndex@P2PNetwork@@YAH_N@Z PROC		; P2PNetwork::GetNextSendIndex, COMDAT

; 93   : 	{

  00000	55		 push	 ebp
  00001	8b ec		 mov	 ebp, esp

; 94   : 		if( bNpc )

  00003	80 7d 08 00	 cmp	 BYTE PTR _bNpc$[ebp], 0
  00007	74 05		 je	 SHORT $LN1@GetNextSen

; 95   : 			return -1;

  00009	83 c8 ff	 or	 eax, -1

; 97   : 	}

  0000c	5d		 pop	 ebp
  0000d	c3		 ret	 0
$LN1@GetNextSen:

; 96   : 		return g_App.GetNextSendIndex();

  0000e	e8 00 00 00 00	 call	 ?GetSingleton@ioApplication@@SAAAV1@XZ ; ioApplication::GetSingleton
  00013	8b c8		 mov	 ecx, eax

; 97   : 	}

  00015	5d		 pop	 ebp

; 96   : 		return g_App.GetNextSendIndex();

  00016	e9 00 00 00 00	 jmp	 ?GetNextSendIndex@ioApplication@@QAEHXZ ; ioApplication::GetNextSendIndex
?GetNextSendIndex@P2PNetwork@@YAH_N@Z ENDP		; P2PNetwork::GetNextSendIndex
_TEXT	ENDS
PUBLIC	?SetLastControlIndex@P2PNetwork@@YAXABVioHashString@@H@Z ; P2PNetwork::SetLastControlIndex
EXTRN	?SetLastControlIndex@ioApplication@@QAEXABVioHashString@@H@Z:PROC ; ioApplication::SetLastControlIndex
; Function compile flags: /Ogsp
;	COMDAT ?SetLastControlIndex@P2PNetwork@@YAXABVioHashString@@H@Z
_TEXT	SEGMENT
_rkName$ = 8						; size = 4
_iIndex$ = 12						; size = 4
?SetLastControlIndex@P2PNetwork@@YAXABVioHashString@@H@Z PROC ; P2PNetwork::SetLastControlIndex, COMDAT

; 100  : 	{

  00000	55		 push	 ebp
  00001	8b ec		 mov	 ebp, esp

; 101  : 		g_App.SetLastControlIndex( rkName, iIndex );

  00003	ff 75 0c	 push	 DWORD PTR _iIndex$[ebp]
  00006	ff 75 08	 push	 DWORD PTR _rkName$[ebp]
  00009	e8 00 00 00 00	 call	 ?GetSingleton@ioApplication@@SAAAV1@XZ ; ioApplication::GetSingleton
  0000e	8b c8		 mov	 ecx, eax
  00010	e8 00 00 00 00	 call	 ?SetLastControlIndex@ioApplication@@QAEXABVioHashString@@H@Z ; ioApplication::SetLastControlIndex

; 102  : 	}

  00015	5d		 pop	 ebp
  00016	c3		 ret	 0
?SetLastControlIndex@P2PNetwork@@YAXABVioHashString@@H@Z ENDP ; P2PNetwork::SetLastControlIndex
_TEXT	ENDS
PUBLIC	?GetLastControlIndex@P2PNetwork@@YAHABVioHashString@@@Z ; P2PNetwork::GetLastControlIndex
EXTRN	?GetLastControlIndex@ioApplication@@QBEHABVioHashString@@@Z:PROC ; ioApplication::GetLastControlIndex
; Function compile flags: /Ogsp
;	COMDAT ?GetLastControlIndex@P2PNetwork@@YAHABVioHashString@@@Z
_TEXT	SEGMENT
_rkName$ = 8						; size = 4
?GetLastControlIndex@P2PNetwork@@YAHABVioHashString@@@Z PROC ; P2PNetwork::GetLastControlIndex, COMDAT

; 119  : 	{

  00000	55		 push	 ebp
  00001	8b ec		 mov	 ebp, esp

; 120  : 		return g_App.GetLastControlIndex( rkName );

  00003	ff 75 08	 push	 DWORD PTR _rkName$[ebp]
  00006	e8 00 00 00 00	 call	 ?GetSingleton@ioApplication@@SAAAV1@XZ ; ioApplication::GetSingleton
  0000b	8b c8		 mov	 ecx, eax
  0000d	e8 00 00 00 00	 call	 ?GetLastControlIndex@ioApplication@@QBEHABVioHashString@@@Z ; ioApplication::GetLastControlIndex

; 121  : 	}

  00012	5d		 pop	 ebp
  00013	c3		 ret	 0
?GetLastControlIndex@P2PNetwork@@YAHABVioHashString@@@Z ENDP ; P2PNetwork::GetLastControlIndex
_TEXT	ENDS
PUBLIC	?SetLastRecvTime@P2PNetwork@@YAXABVioHashString@@K@Z ; P2PNetwork::SetLastRecvTime
EXTRN	?SetLastRecvTime@ioApplication@@QAEXABVioHashString@@K@Z:PROC ; ioApplication::SetLastRecvTime
; Function compile flags: /Ogsp
;	COMDAT ?SetLastRecvTime@P2PNetwork@@YAXABVioHashString@@K@Z
_TEXT	SEGMENT
_rkName$ = 8						; size = 4
_dwPingTime$ = 12					; size = 4
?SetLastRecvTime@P2PNetwork@@YAXABVioHashString@@K@Z PROC ; P2PNetwork::SetLastRecvTime, COMDAT

; 124  : 	{

  00000	55		 push	 ebp
  00001	8b ec		 mov	 ebp, esp

; 125  : 		g_App.SetLastRecvTime( rkName, dwPingTime );

  00003	ff 75 0c	 push	 DWORD PTR _dwPingTime$[ebp]
  00006	ff 75 08	 push	 DWORD PTR _rkName$[ebp]
  00009	e8 00 00 00 00	 call	 ?GetSingleton@ioApplication@@SAAAV1@XZ ; ioApplication::GetSingleton
  0000e	8b c8		 mov	 ecx, eax
  00010	e8 00 00 00 00	 call	 ?SetLastRecvTime@ioApplication@@QAEXABVioHashString@@K@Z ; ioApplication::SetLastRecvTime

; 126  : 	}

  00015	5d		 pop	 ebp
  00016	c3		 ret	 0
?SetLastRecvTime@P2PNetwork@@YAXABVioHashString@@K@Z ENDP ; P2PNetwork::SetLastRecvTime
_TEXT	ENDS
PUBLIC	?GetP2pPingTime@P2PNetwork@@YAHABVioHashString@@@Z ; P2PNetwork::GetP2pPingTime
EXTRN	?GetP2pPingTime@ioApplication@@QAEHABVioHashString@@@Z:PROC ; ioApplication::GetP2pPingTime
; Function compile flags: /Ogsp
;	COMDAT ?GetP2pPingTime@P2PNetwork@@YAHABVioHashString@@@Z
_TEXT	SEGMENT
_rkName$ = 8						; size = 4
?GetP2pPingTime@P2PNetwork@@YAHABVioHashString@@@Z PROC	; P2PNetwork::GetP2pPingTime, COMDAT

; 129  : 	{

  00000	55		 push	 ebp
  00001	8b ec		 mov	 ebp, esp

; 130  : 		return g_App.GetP2pPingTime( rkName );

  00003	ff 75 08	 push	 DWORD PTR _rkName$[ebp]
  00006	e8 00 00 00 00	 call	 ?GetSingleton@ioApplication@@SAAAV1@XZ ; ioApplication::GetSingleton
  0000b	8b c8		 mov	 ecx, eax
  0000d	e8 00 00 00 00	 call	 ?GetP2pPingTime@ioApplication@@QAEHABVioHashString@@@Z ; ioApplication::GetP2pPingTime

; 131  : 	}

  00012	5d		 pop	 ebp
  00013	c3		 ret	 0
?GetP2pPingTime@P2PNetwork@@YAHABVioHashString@@@Z ENDP	; P2PNetwork::GetP2pPingTime
_TEXT	ENDS
PUBLIC	?IsServerRelay@P2PNetwork@@YA_NABVioHashString@@@Z ; P2PNetwork::IsServerRelay
EXTRN	?IsServerRelay@ioApplication@@QAE_NABVioHashString@@@Z:PROC ; ioApplication::IsServerRelay
; Function compile flags: /Ogsp
;	COMDAT ?IsServerRelay@P2PNetwork@@YA_NABVioHashString@@@Z
_TEXT	SEGMENT
_rkName$ = 8						; size = 4
?IsServerRelay@P2PNetwork@@YA_NABVioHashString@@@Z PROC	; P2PNetwork::IsServerRelay, COMDAT

; 134  : 	{

  00000	55		 push	 ebp
  00001	8b ec		 mov	 ebp, esp

; 135  : 		return g_App.IsServerRelay( rkName );

  00003	ff 75 08	 push	 DWORD PTR _rkName$[ebp]
  00006	e8 00 00 00 00	 call	 ?GetSingleton@ioApplication@@SAAAV1@XZ ; ioApplication::GetSingleton
  0000b	8b c8		 mov	 ecx, eax
  0000d	e8 00 00 00 00	 call	 ?IsServerRelay@ioApplication@@QAE_NABVioHashString@@@Z ; ioApplication::IsServerRelay

; 136  : 	}

  00012	5d		 pop	 ebp
  00013	c3		 ret	 0
?IsServerRelay@P2PNetwork@@YA_NABVioHashString@@@Z ENDP	; P2PNetwork::IsServerRelay
_TEXT	ENDS
PUBLIC	?IsNetworkTimeOut@P2PNetwork@@YA_NABVioHashString@@@Z ; P2PNetwork::IsNetworkTimeOut
EXTRN	?IsNetworkTimeOut@ioApplication@@QAE_NABVioHashString@@@Z:PROC ; ioApplication::IsNetworkTimeOut
; Function compile flags: /Ogsp
;	COMDAT ?IsNetworkTimeOut@P2PNetwork@@YA_NABVioHashString@@@Z
_TEXT	SEGMENT
_rkName$ = 8						; size = 4
?IsNetworkTimeOut@P2PNetwork@@YA_NABVioHashString@@@Z PROC ; P2PNetwork::IsNetworkTimeOut, COMDAT

; 139  : 	{

  00000	55		 push	 ebp
  00001	8b ec		 mov	 ebp, esp

; 140  : 		return g_App.IsNetworkTimeOut( rkName );

  00003	ff 75 08	 push	 DWORD PTR _rkName$[ebp]
  00006	e8 00 00 00 00	 call	 ?GetSingleton@ioApplication@@SAAAV1@XZ ; ioApplication::GetSingleton
  0000b	8b c8		 mov	 ecx, eax
  0000d	e8 00 00 00 00	 call	 ?IsNetworkTimeOut@ioApplication@@QAE_NABVioHashString@@@Z ; ioApplication::IsNetworkTimeOut

; 141  : 	}

  00012	5d		 pop	 ebp
  00013	c3		 ret	 0
?IsNetworkTimeOut@P2PNetwork@@YA_NABVioHashString@@@Z ENDP ; P2PNetwork::IsNetworkTimeOut
_TEXT	ENDS
PUBLIC	?IsNetworkTableUser@P2PNetwork@@YA_NABVioHashString@@@Z ; P2PNetwork::IsNetworkTableUser
EXTRN	?IsNetworkTableUser@ioApplication@@QAE_NABVioHashString@@@Z:PROC ; ioApplication::IsNetworkTableUser
; Function compile flags: /Ogsp
;	COMDAT ?IsNetworkTableUser@P2PNetwork@@YA_NABVioHashString@@@Z
_TEXT	SEGMENT
_rkName$ = 8						; size = 4
?IsNetworkTableUser@P2PNetwork@@YA_NABVioHashString@@@Z PROC ; P2PNetwork::IsNetworkTableUser, COMDAT

; 144  : 	{

  00000	55		 push	 ebp
  00001	8b ec		 mov	 ebp, esp

; 145  : 		return g_App.IsNetworkTableUser( rkName );

  00003	ff 75 08	 push	 DWORD PTR _rkName$[ebp]
  00006	e8 00 00 00 00	 call	 ?GetSingleton@ioApplication@@SAAAV1@XZ ; ioApplication::GetSingleton
  0000b	8b c8		 mov	 ecx, eax
  0000d	e8 00 00 00 00	 call	 ?IsNetworkTableUser@ioApplication@@QAE_NABVioHashString@@@Z ; ioApplication::IsNetworkTableUser

; 146  : 	}

  00012	5d		 pop	 ebp
  00013	c3		 ret	 0
?IsNetworkTableUser@P2PNetwork@@YA_NABVioHashString@@@Z ENDP ; P2PNetwork::IsNetworkTableUser
_TEXT	ENDS
PUBLIC	?MouseBusy@TCPNetwork@@YAX_N@Z			; TCPNetwork::MouseBusy
EXTRN	?SetMouseBusy@ioApplication@@QAEX_N@Z:PROC	; ioApplication::SetMouseBusy
; Function compile flags: /Ogsp
;	COMDAT ?MouseBusy@TCPNetwork@@YAX_N@Z
_TEXT	SEGMENT
_bBusy$ = 8						; size = 1
?MouseBusy@TCPNetwork@@YAX_N@Z PROC			; TCPNetwork::MouseBusy, COMDAT

; 162  : 	{

  00000	55		 push	 ebp
  00001	8b ec		 mov	 ebp, esp

; 163  : 		g_App.SetMouseBusy( bBusy );

  00003	ff 75 08	 push	 DWORD PTR _bBusy$[ebp]
  00006	e8 00 00 00 00	 call	 ?GetSingleton@ioApplication@@SAAAV1@XZ ; ioApplication::GetSingleton
  0000b	8b c8		 mov	 ecx, eax
  0000d	e8 00 00 00 00	 call	 ?SetMouseBusy@ioApplication@@QAEX_N@Z ; ioApplication::SetMouseBusy

; 164  : 	}

  00012	5d		 pop	 ebp
  00013	c3		 ret	 0
?MouseBusy@TCPNetwork@@YAX_N@Z ENDP			; TCPNetwork::MouseBusy
_TEXT	ENDS
PUBLIC	?SendToServer@TCPNetwork@@YAXAAVSP2Packet@@@Z	; TCPNetwork::SendToServer
EXTRN	?SendTCPPacket@ioApplication@@QAEXAAVSP2Packet@@@Z:PROC ; ioApplication::SendTCPPacket
; Function compile flags: /Ogsp
;	COMDAT ?SendToServer@TCPNetwork@@YAXAAVSP2Packet@@@Z
_TEXT	SEGMENT
_rkPacket$ = 8						; size = 4
?SendToServer@TCPNetwork@@YAXAAVSP2Packet@@@Z PROC	; TCPNetwork::SendToServer, COMDAT

; 167  : 	{

  00000	55		 push	 ebp
  00001	8b ec		 mov	 ebp, esp

; 168  : 		g_App.SendTCPPacket( rkPacket );

  00003	ff 75 08	 push	 DWORD PTR _rkPacket$[ebp]
  00006	e8 00 00 00 00	 call	 ?GetSingleton@ioApplication@@SAAAV1@XZ ; ioApplication::GetSingleton
  0000b	8b c8		 mov	 ecx, eax
  0000d	e8 00 00 00 00	 call	 ?SendTCPPacket@ioApplication@@QAEXAAVSP2Packet@@@Z ; ioApplication::SendTCPPacket

; 169  : 	}

  00012	5d		 pop	 ebp
  00013	c3		 ret	 0
?SendToServer@TCPNetwork@@YAXAAVSP2Packet@@@Z ENDP	; TCPNetwork::SendToServer
_TEXT	ENDS
PUBLIC	?RecvPacket@TCPNetwork@@YAXAAVSP2Packet@@@Z	; TCPNetwork::RecvPacket
EXTRN	?RecvTCPPacket@ioApplication@@QAEXAAVSP2Packet@@@Z:PROC ; ioApplication::RecvTCPPacket
; Function compile flags: /Ogsp
;	COMDAT ?RecvPacket@TCPNetwork@@YAXAAVSP2Packet@@@Z
_TEXT	SEGMENT
_rkPacket$ = 8						; size = 4
?RecvPacket@TCPNetwork@@YAXAAVSP2Packet@@@Z PROC	; TCPNetwork::RecvPacket, COMDAT

; 172  : 	{

  00000	55		 push	 ebp
  00001	8b ec		 mov	 ebp, esp

; 173  : 		if( g_bExit )

  00003	80 3d 00 00 00
	00 00		 cmp	 BYTE PTR ?g_bExit@@3_NA, 0 ; g_bExit
  0000a	75 0f		 jne	 SHORT $LN2@RecvPacket@2

; 174  : 			return;
; 175  : 		g_App.RecvTCPPacket( rkPacket );

  0000c	ff 75 08	 push	 DWORD PTR _rkPacket$[ebp]
  0000f	e8 00 00 00 00	 call	 ?GetSingleton@ioApplication@@SAAAV1@XZ ; ioApplication::GetSingleton
  00014	8b c8		 mov	 ecx, eax
  00016	e8 00 00 00 00	 call	 ?RecvTCPPacket@ioApplication@@QAEXAAVSP2Packet@@@Z ; ioApplication::RecvTCPPacket
$LN2@RecvPacket@2:

; 176  : 	}

  0001b	5d		 pop	 ebp
  0001c	c3		 ret	 0
?RecvPacket@TCPNetwork@@YAXAAVSP2Packet@@@Z ENDP	; TCPNetwork::RecvPacket
_TEXT	ENDS
PUBLIC	?SetNagleAlgorithm@TCPNetwork@@YAX_N@Z		; TCPNetwork::SetNagleAlgorithm
EXTRN	?SetNagleAlgorithm@ioApplication@@QAEX_N@Z:PROC	; ioApplication::SetNagleAlgorithm
; Function compile flags: /Ogsp
;	COMDAT ?SetNagleAlgorithm@TCPNetwork@@YAX_N@Z
_TEXT	SEGMENT
_bOn$ = 8						; size = 1
?SetNagleAlgorithm@TCPNetwork@@YAX_N@Z PROC		; TCPNetwork::SetNagleAlgorithm, COMDAT

; 179  : 	{

  00000	55		 push	 ebp
  00001	8b ec		 mov	 ebp, esp

; 180  : 		g_App.SetNagleAlgorithm( bOn );

  00003	ff 75 08	 push	 DWORD PTR _bOn$[ebp]
  00006	e8 00 00 00 00	 call	 ?GetSingleton@ioApplication@@SAAAV1@XZ ; ioApplication::GetSingleton
  0000b	8b c8		 mov	 ecx, eax
  0000d	e8 00 00 00 00	 call	 ?SetNagleAlgorithm@ioApplication@@QAEX_N@Z ; ioApplication::SetNagleAlgorithm

; 181  : 	}

  00012	5d		 pop	 ebp
  00013	c3		 ret	 0
?SetNagleAlgorithm@TCPNetwork@@YAX_N@Z ENDP		; TCPNetwork::SetNagleAlgorithm
_TEXT	ENDS
PUBLIC	?IsControlSyncExpand@ioApplication@@QAE_NXZ	; ioApplication::IsControlSyncExpand
; Function compile flags: /Ogsp
; File d:\lost saga for developer\youtube\tutorial\source\src\lsclient\ioapplication.h
;	COMDAT ?IsControlSyncExpand@ioApplication@@QAE_NXZ
_TEXT	SEGMENT
?IsControlSyncExpand@ioApplication@@QAE_NXZ PROC	; ioApplication::IsControlSyncExpand, COMDAT
; _this$ = ecx

; 660  : 	inline bool IsControlSyncExpand(){ return m_bControlSyncExpand; }

  00000	8a 81 f5 04 00
	00		 mov	 al, BYTE PTR [ecx+1269]
  00006	c3		 ret	 0
?IsControlSyncExpand@ioApplication@@QAE_NXZ ENDP	; ioApplication::IsControlSyncExpand
_TEXT	ENDS
PUBLIC	?SetControlSyncExpand@ioApplication@@QAEX_N@Z	; ioApplication::SetControlSyncExpand
; Function compile flags: /Ogsp
;	COMDAT ?SetControlSyncExpand@ioApplication@@QAEX_N@Z
_TEXT	SEGMENT
_bControlSyncExpand$ = 8				; size = 1
?SetControlSyncExpand@ioApplication@@QAEX_N@Z PROC	; ioApplication::SetControlSyncExpand, COMDAT
; _this$ = ecx

; 661  : 	inline void SetControlSyncExpand( bool bControlSyncExpand ){ m_bControlSyncExpand = bControlSyncExpand; }

  00000	55		 push	 ebp
  00001	8b ec		 mov	 ebp, esp
  00003	8a 45 08	 mov	 al, BYTE PTR _bControlSyncExpand$[ebp]
  00006	88 81 f5 04 00
	00		 mov	 BYTE PTR [ecx+1269], al
  0000c	5d		 pop	 ebp
  0000d	c2 04 00	 ret	 4
?SetControlSyncExpand@ioApplication@@QAEX_N@Z ENDP	; ioApplication::SetControlSyncExpand
_TEXT	ENDS
PUBLIC	?ControlSyncExpand@P2PNetwork@@YA_NXZ		; P2PNetwork::ControlSyncExpand
; Function compile flags: /Ogsp
; File d:\lost saga for developer\youtube\tutorial\source\src\lsclient\networkwrappingfunc.cpp
;	COMDAT ?ControlSyncExpand@P2PNetwork@@YA_NXZ
_TEXT	SEGMENT
?ControlSyncExpand@P2PNetwork@@YA_NXZ PROC		; P2PNetwork::ControlSyncExpand, COMDAT

; 150  : 		return g_App.IsControlSyncExpand();

  00000	e8 00 00 00 00	 call	 ?GetSingleton@ioApplication@@SAAAV1@XZ ; ioApplication::GetSingleton
  00005	8a 80 f5 04 00
	00		 mov	 al, BYTE PTR [eax+1269]

; 151  : 	}

  0000b	c3		 ret	 0
?ControlSyncExpand@P2PNetwork@@YA_NXZ ENDP		; P2PNetwork::ControlSyncExpand
_TEXT	ENDS
PUBLIC	?SetControlSyncExpand@P2PNetwork@@YAX_N@Z	; P2PNetwork::SetControlSyncExpand
; Function compile flags: /Ogsp
;	COMDAT ?SetControlSyncExpand@P2PNetwork@@YAX_N@Z
_TEXT	SEGMENT
_bControlSyncExpand$ = 8				; size = 1
?SetControlSyncExpand@P2PNetwork@@YAX_N@Z PROC		; P2PNetwork::SetControlSyncExpand, COMDAT

; 154  : 	{

  00000	55		 push	 ebp
  00001	8b ec		 mov	 ebp, esp

; 155  : 		g_App.SetControlSyncExpand( bControlSyncExpand );

  00003	e8 00 00 00 00	 call	 ?GetSingleton@ioApplication@@SAAAV1@XZ ; ioApplication::GetSingleton
  00008	8a 4d 08	 mov	 cl, BYTE PTR _bControlSyncExpand$[ebp]
  0000b	88 88 f5 04 00
	00		 mov	 BYTE PTR [eax+1269], cl

; 156  : 	}

  00011	5d		 pop	 ebp
  00012	c3		 ret	 0
?SetControlSyncExpand@P2PNetwork@@YAX_N@Z ENDP		; P2PNetwork::SetControlSyncExpand
_TEXT	ENDS
PUBLIC	?SetLastControlIndex@P2PNetwork@@YAXABVioHashString@@AAVSP2Packet@@@Z ; P2PNetwork::SetLastControlIndex
EXTRN	??5SP2Packet@@QAEAAV0@AAH@Z:PROC		; SP2Packet::operator>>
; Function compile flags: /Ogsp
;	COMDAT ?SetLastControlIndex@P2PNetwork@@YAXABVioHashString@@AAVSP2Packet@@@Z
_TEXT	SEGMENT
_iSendIndex$ = -4					; size = 4
_rkName$ = 8						; size = 4
_rkPacket$ = 12						; size = 4
?SetLastControlIndex@P2PNetwork@@YAXABVioHashString@@AAVSP2Packet@@@Z PROC ; P2PNetwork::SetLastControlIndex, COMDAT

; 105  : 	{

  00000	55		 push	 ebp
  00001	8b ec		 mov	 ebp, esp
  00003	51		 push	 ecx

; 106  : 		int iSendIndex;
; 107  : 		rkPacket >> iSendIndex;

  00004	8b 4d 0c	 mov	 ecx, DWORD PTR _rkPacket$[ebp]
  00007	8d 45 fc	 lea	 eax, DWORD PTR _iSendIndex$[ebp]
  0000a	50		 push	 eax
  0000b	e8 00 00 00 00	 call	 ??5SP2Packet@@QAEAAV0@AAH@Z ; SP2Packet::operator>>

; 108  : 		if( ControlSyncExpand() )

  00010	e8 00 00 00 00	 call	 ?ControlSyncExpand@P2PNetwork@@YA_NXZ ; P2PNetwork::ControlSyncExpand
  00015	84 c0		 test	 al, al
  00017	74 1f		 je	 SHORT $LN1@SetLastCon

; 109  : 		{
; 110  : 			int iPreIndex = GetLastControlIndex( rkName );

  00019	ff 75 08	 push	 DWORD PTR _rkName$[ebp]
  0001c	e8 00 00 00 00	 call	 ?GetLastControlIndex@P2PNetwork@@YAHABVioHashString@@@Z ; P2PNetwork::GetLastControlIndex
  00021	59		 pop	 ecx

; 111  : 			if( iPreIndex >= 0 && iPreIndex <= iSendIndex )

  00022	85 c0		 test	 eax, eax
  00024	78 12		 js	 SHORT $LN1@SetLastCon
  00026	3b 45 fc	 cmp	 eax, DWORD PTR _iSendIndex$[ebp]
  00029	7f 0d		 jg	 SHORT $LN1@SetLastCon

; 112  : 			{
; 113  : 				SetLastControlIndex( rkName, iSendIndex );

  0002b	ff 75 fc	 push	 DWORD PTR _iSendIndex$[ebp]
  0002e	ff 75 08	 push	 DWORD PTR _rkName$[ebp]
  00031	e8 00 00 00 00	 call	 ?SetLastControlIndex@P2PNetwork@@YAXABVioHashString@@H@Z ; P2PNetwork::SetLastControlIndex
  00036	59		 pop	 ecx
  00037	59		 pop	 ecx
$LN1@SetLastCon:

; 114  : 			}
; 115  : 		}
; 116  : 	}

  00038	c9		 leave
  00039	c3		 ret	 0
?SetLastControlIndex@P2PNetwork@@YAXABVioHashString@@AAVSP2Packet@@@Z ENDP ; P2PNetwork::SetLastControlIndex
_TEXT	ENDS
END
