; Listing generated by Microsoft (R) Optimizing Compiler Version 16.00.30319.01 

	TITLE	D:\Lost Saga For Developer\Youtube\Tutorial\Source\src\LSClient\GUI\NewShopItemInfoWnd.cpp
	.686P
	.XMM
	include listing.inc
	.model	flat

INCLUDELIB MSVCRT
INCLUDELIB OLDNAMES

PUBLIC	?SetTopSubIconType@NewShopIconBtn@@QAEXW4TopSubIconType@1@@Z ; NewShopIconBtn::SetTopSubIconType
; Function compile flags: /Ogsp
; File d:\lost saga for developer\youtube\tutorial\source\src\lsclient\gui\newshopiconbtn.h
;	COMDAT ?SetTopSubIconType@NewShopIconBtn@@QAEXW4TopSubIconType@1@@Z
_TEXT	SEGMENT
_eType$ = 8						; size = 4
?SetTopSubIconType@NewShopIconBtn@@QAEXW4TopSubIconType@1@@Z PROC ; NewShopIconBtn::SetTopSubIconType, COMDAT
; _this$ = ecx

; 62   : 	void SetTopSubIconType( NewShopIconBtn::TopSubIconType eType ){ m_TopSubIconType = eType; }

  00000	55		 push	 ebp
  00001	8b ec		 mov	 ebp, esp
  00003	8b 45 08	 mov	 eax, DWORD PTR _eType$[ebp]
  00006	89 81 fc 01 00
	00		 mov	 DWORD PTR [ecx+508], eax
  0000c	5d		 pop	 ebp
  0000d	c2 04 00	 ret	 4
?SetTopSubIconType@NewShopIconBtn@@QAEXW4TopSubIconType@1@@Z ENDP ; NewShopIconBtn::SetTopSubIconType
_TEXT	ENDS
PUBLIC	?SetMarkType@NewShopIconBtn@@QAEXH@Z		; NewShopIconBtn::SetMarkType
; Function compile flags: /Ogsp
;	COMDAT ?SetMarkType@NewShopIconBtn@@QAEXH@Z
_TEXT	SEGMENT
_iMarkType$ = 8						; size = 4
?SetMarkType@NewShopIconBtn@@QAEXH@Z PROC		; NewShopIconBtn::SetMarkType, COMDAT
; _this$ = ecx

; 64   : 	void SetMarkType( int iMarkType )	{ m_iMarkType = iMarkType; } 

  00000	55		 push	 ebp
  00001	8b ec		 mov	 ebp, esp
  00003	8b 45 08	 mov	 eax, DWORD PTR _iMarkType$[ebp]
  00006	89 81 4c 02 00
	00		 mov	 DWORD PTR [ecx+588], eax
  0000c	5d		 pop	 ebp
  0000d	c2 04 00	 ret	 4
?SetMarkType@NewShopIconBtn@@QAEXH@Z ENDP		; NewShopIconBtn::SetMarkType
_TEXT	ENDS
PUBLIC	?SetNumber@NewShopIconBtn@@QAEXH@Z		; NewShopIconBtn::SetNumber
; Function compile flags: /Ogsp
;	COMDAT ?SetNumber@NewShopIconBtn@@QAEXH@Z
_TEXT	SEGMENT
_iNumber$ = 8						; size = 4
?SetNumber@NewShopIconBtn@@QAEXH@Z PROC			; NewShopIconBtn::SetNumber, COMDAT
; _this$ = ecx

; 65   : 	void SetNumber( int iNumber )		{ m_iNumber = iNumber; }	

  00000	55		 push	 ebp
  00001	8b ec		 mov	 ebp, esp
  00003	8b 45 08	 mov	 eax, DWORD PTR _iNumber$[ebp]
  00006	89 81 64 02 00
	00		 mov	 DWORD PTR [ecx+612], eax
  0000c	5d		 pop	 ebp
  0000d	c2 04 00	 ret	 4
?SetNumber@NewShopIconBtn@@QAEXH@Z ENDP			; NewShopIconBtn::SetNumber
_TEXT	ENDS
PUBLIC	?SetLimitDay@NewShopIconBtn@@QAEXH@Z		; NewShopIconBtn::SetLimitDay
; Function compile flags: /Ogsp
;	COMDAT ?SetLimitDay@NewShopIconBtn@@QAEXH@Z
_TEXT	SEGMENT
_iDay$ = 8						; size = 4
?SetLimitDay@NewShopIconBtn@@QAEXH@Z PROC		; NewShopIconBtn::SetLimitDay, COMDAT
; _this$ = ecx

; 66   : 	void SetLimitDay( int iDay )		{ m_iLimitDay = iDay; }

  00000	55		 push	 ebp
  00001	8b ec		 mov	 ebp, esp
  00003	8b 45 08	 mov	 eax, DWORD PTR _iDay$[ebp]
  00006	89 81 50 02 00
	00		 mov	 DWORD PTR [ecx+592], eax
  0000c	5d		 pop	 ebp
  0000d	c2 04 00	 ret	 4
?SetLimitDay@NewShopIconBtn@@QAEXH@Z ENDP		; NewShopIconBtn::SetLimitDay
_TEXT	ENDS
PUBLIC	?SetGradeType@NewShopIconBtn@@QAEXH@Z		; NewShopIconBtn::SetGradeType
; Function compile flags: /Ogsp
;	COMDAT ?SetGradeType@NewShopIconBtn@@QAEXH@Z
_TEXT	SEGMENT
_nGradeType$ = 8					; size = 4
?SetGradeType@NewShopIconBtn@@QAEXH@Z PROC		; NewShopIconBtn::SetGradeType, COMDAT
; _this$ = ecx

; 67   : 	void SetGradeType( int nGradeType ) { m_nGradeType = nGradeType; }

  00000	55		 push	 ebp
  00001	8b ec		 mov	 ebp, esp
  00003	8b 45 08	 mov	 eax, DWORD PTR _nGradeType$[ebp]
  00006	89 81 68 02 00
	00		 mov	 DWORD PTR [ecx+616], eax
  0000c	5d		 pop	 ebp
  0000d	c2 04 00	 ret	 4
?SetGradeType@NewShopIconBtn@@QAEXH@Z ENDP		; NewShopIconBtn::SetGradeType
_TEXT	ENDS
PUBLIC	?iwm_command@NewShopItemInfoWnd@@UAEXPAVioWnd@@HK@Z ; NewShopItemInfoWnd::iwm_command
EXTRN	__imp_?GetParent@ioWnd@@QAEPAV1@XZ:PROC
EXTRN	__imp_?GetID@ioWnd@@QBEKXZ:PROC
; Function compile flags: /Ogsp
; File d:\lost saga for developer\youtube\tutorial\source\src\lsclient\gui\newshopiteminfownd.cpp
;	COMDAT ?iwm_command@NewShopItemInfoWnd@@UAEXPAVioWnd@@HK@Z
_TEXT	SEGMENT
_pWnd$ = 8						; size = 4
_cmd$ = 12						; size = 4
_param$ = 16						; size = 4
?iwm_command@NewShopItemInfoWnd@@UAEXPAVioWnd@@HK@Z PROC ; NewShopItemInfoWnd::iwm_command, COMDAT
; _this$ = ecx

; 66   : {

  00000	55		 push	 ebp
  00001	8b ec		 mov	 ebp, esp
  00003	53		 push	 ebx
  00004	56		 push	 esi
  00005	8b f1		 mov	 esi, ecx

; 67   : 	DWORD dwID = pWnd->GetID();

  00007	8b 4d 08	 mov	 ecx, DWORD PTR _pWnd$[ebp]
  0000a	ff 15 00 00 00
	00		 call	 DWORD PTR __imp_?GetID@ioWnd@@QBEKXZ
  00010	8b d8		 mov	 ebx, eax

; 68   : 
; 69   : 	switch( dwID )

  00012	85 db		 test	 ebx, ebx
  00014	74 3a		 je	 SHORT $LN1@iwm_comman
  00016	83 fb 02	 cmp	 ebx, 2
  00019	77 35		 ja	 SHORT $LN1@iwm_comman

; 70   : 	{
; 71   : 	case ID_ICON_BTN:
; 72   : 	case ID_DETAIL_BTN:
; 73   : 		if( cmd == IOBN_BTNUP ||
; 74   : 			cmd == IOWN_OVERED||
; 75   : 			cmd == IOWN_LEAVED )

  0001b	57		 push	 edi
  0001c	8b 7d 0c	 mov	 edi, DWORD PTR _cmd$[ebp]
  0001f	83 ff 11	 cmp	 edi, 17			; 00000011H
  00022	74 0a		 je	 SHORT $LN2@iwm_comman
  00024	83 ff 04	 cmp	 edi, 4
  00027	74 05		 je	 SHORT $LN2@iwm_comman
  00029	83 ff 03	 cmp	 edi, 3
  0002c	75 21		 jne	 SHORT $LN9@iwm_comman
$LN2@iwm_comman:

; 76   : 		{
; 77   : 			if( GetParent() )

  0002e	8b ce		 mov	 ecx, esi
  00030	ff 15 00 00 00
	00		 call	 DWORD PTR __imp_?GetParent@ioWnd@@QAEPAV1@XZ
  00036	85 c0		 test	 eax, eax
  00038	74 15		 je	 SHORT $LN9@iwm_comman

; 78   : 				GetParent()->iwm_command( this, cmd, dwID );

  0003a	8b ce		 mov	 ecx, esi
  0003c	ff 15 00 00 00
	00		 call	 DWORD PTR __imp_?GetParent@ioWnd@@QAEPAV1@XZ
  00042	8b 10		 mov	 edx, DWORD PTR [eax]
  00044	53		 push	 ebx
  00045	57		 push	 edi
  00046	56		 push	 esi
  00047	8b c8		 mov	 ecx, eax
  00049	ff 92 8c 00 00
	00		 call	 DWORD PTR [edx+140]
$LN9@iwm_comman:
  0004f	5f		 pop	 edi
$LN1@iwm_comman:
  00050	5e		 pop	 esi
  00051	5b		 pop	 ebx

; 79   : 		}
; 80   : 		break;
; 81   : 	}
; 82   : 
; 83   : }

  00052	5d		 pop	 ebp
  00053	c2 0c 00	 ret	 12			; 0000000cH
?iwm_command@NewShopItemInfoWnd@@UAEXPAVioWnd@@HK@Z ENDP ; NewShopItemInfoWnd::iwm_command
_TEXT	ENDS
PUBLIC	?ClearDesc@NewShopItemInfoWnd@@IAEXXZ		; NewShopItemInfoWnd::ClearDesc
EXTRN	?ClearList@ioComplexStringPrinter@@QAEXXZ:PROC	; ioComplexStringPrinter::ClearList
; Function compile flags: /Ogsp
;	COMDAT ?ClearDesc@NewShopItemInfoWnd@@IAEXXZ
_TEXT	SEGMENT
?ClearDesc@NewShopItemInfoWnd@@IAEXXZ PROC		; NewShopItemInfoWnd::ClearDesc, COMDAT
; _this$ = ecx

; 109  : {

  00000	56		 push	 esi
  00001	57		 push	 edi

; 110  : 	for (int i = 0; i < MAX_DESC ; i++)

  00002	6a 03		 push	 3
  00004	8d b1 fc 01 00
	00		 lea	 esi, DWORD PTR [ecx+508]
  0000a	5f		 pop	 edi
$LL3@ClearDesc:

; 111  : 	{
; 112  : 		m_szDescArray[i].ClearList();

  0000b	8b ce		 mov	 ecx, esi
  0000d	e8 00 00 00 00	 call	 ?ClearList@ioComplexStringPrinter@@QAEXXZ ; ioComplexStringPrinter::ClearList
  00012	83 c6 20	 add	 esi, 32			; 00000020H
  00015	4f		 dec	 edi
  00016	75 f3		 jne	 SHORT $LL3@ClearDesc

; 113  : 	}
; 114  : }

  00018	5f		 pop	 edi
  00019	5e		 pop	 esi
  0001a	c3		 ret	 0
?ClearDesc@NewShopItemInfoWnd@@IAEXXZ ENDP		; NewShopItemInfoWnd::ClearDesc
_TEXT	ENDS
PUBLIC	??_7bad_alloc@std@@6B@				; std::bad_alloc::`vftable'
PUBLIC	??0bad_alloc@std@@QAE@PBD@Z			; std::bad_alloc::bad_alloc
PUBLIC	??_R4bad_alloc@std@@6B@				; std::bad_alloc::`RTTI Complete Object Locator'
PUBLIC	??_R0?AVbad_alloc@std@@@8			; std::bad_alloc `RTTI Type Descriptor'
PUBLIC	??_R3bad_alloc@std@@8				; std::bad_alloc::`RTTI Class Hierarchy Descriptor'
PUBLIC	??_R2bad_alloc@std@@8				; std::bad_alloc::`RTTI Base Class Array'
PUBLIC	??_R1A@?0A@EA@bad_alloc@std@@8			; std::bad_alloc::`RTTI Base Class Descriptor at (0,-1,0,64)'
PUBLIC	??_R1A@?0A@EA@exception@std@@8			; std::exception::`RTTI Base Class Descriptor at (0,-1,0,64)'
PUBLIC	??_R0?AVexception@std@@@8			; std::exception `RTTI Type Descriptor'
PUBLIC	??_R3exception@std@@8				; std::exception::`RTTI Class Hierarchy Descriptor'
PUBLIC	??_R2exception@std@@8				; std::exception::`RTTI Base Class Array'
EXTRN	__imp_??0exception@std@@QAE@ABQBD@Z:PROC
EXTRN	??_7type_info@@6B@:QWORD			; type_info::`vftable'
EXTRN	??_Ebad_alloc@std@@UAEPAXI@Z:PROC		; std::bad_alloc::`vector deleting destructor'
EXTRN	?what@exception@std@@UBEPBDXZ:PROC		; std::exception::what
;	COMDAT ??_R2exception@std@@8
; File c:\program files (x86)\microsoft visual studio 10.0\vc\include\exception
rdata$r	SEGMENT
??_R2exception@std@@8 DD FLAT:??_R1A@?0A@EA@exception@std@@8 ; std::exception::`RTTI Base Class Array'
rdata$r	ENDS
;	COMDAT ??_R3exception@std@@8
rdata$r	SEGMENT
??_R3exception@std@@8 DD 00H				; std::exception::`RTTI Class Hierarchy Descriptor'
	DD	00H
	DD	01H
	DD	FLAT:??_R2exception@std@@8
rdata$r	ENDS
;	COMDAT ??_R0?AVexception@std@@@8
_DATA	SEGMENT
??_R0?AVexception@std@@@8 DD FLAT:??_7type_info@@6B@	; std::exception `RTTI Type Descriptor'
	DD	00H
	DB	'.?AVexception@std@@', 00H
_DATA	ENDS
;	COMDAT ??_R1A@?0A@EA@exception@std@@8
rdata$r	SEGMENT
??_R1A@?0A@EA@exception@std@@8 DD FLAT:??_R0?AVexception@std@@@8 ; std::exception::`RTTI Base Class Descriptor at (0,-1,0,64)'
	DD	00H
	DD	00H
	DD	0ffffffffH
	DD	00H
	DD	040H
	DD	FLAT:??_R3exception@std@@8
rdata$r	ENDS
;	COMDAT ??_R1A@?0A@EA@bad_alloc@std@@8
rdata$r	SEGMENT
??_R1A@?0A@EA@bad_alloc@std@@8 DD FLAT:??_R0?AVbad_alloc@std@@@8 ; std::bad_alloc::`RTTI Base Class Descriptor at (0,-1,0,64)'
	DD	01H
	DD	00H
	DD	0ffffffffH
	DD	00H
	DD	040H
	DD	FLAT:??_R3bad_alloc@std@@8
rdata$r	ENDS
;	COMDAT ??_R2bad_alloc@std@@8
rdata$r	SEGMENT
??_R2bad_alloc@std@@8 DD FLAT:??_R1A@?0A@EA@bad_alloc@std@@8 ; std::bad_alloc::`RTTI Base Class Array'
	DD	FLAT:??_R1A@?0A@EA@exception@std@@8
rdata$r	ENDS
;	COMDAT ??_R3bad_alloc@std@@8
rdata$r	SEGMENT
??_R3bad_alloc@std@@8 DD 00H				; std::bad_alloc::`RTTI Class Hierarchy Descriptor'
	DD	00H
	DD	02H
	DD	FLAT:??_R2bad_alloc@std@@8
rdata$r	ENDS
;	COMDAT ??_R0?AVbad_alloc@std@@@8
_DATA	SEGMENT
??_R0?AVbad_alloc@std@@@8 DD FLAT:??_7type_info@@6B@	; std::bad_alloc `RTTI Type Descriptor'
	DD	00H
	DB	'.?AVbad_alloc@std@@', 00H
_DATA	ENDS
;	COMDAT ??_R4bad_alloc@std@@6B@
rdata$r	SEGMENT
??_R4bad_alloc@std@@6B@ DD 00H				; std::bad_alloc::`RTTI Complete Object Locator'
	DD	00H
	DD	00H
	DD	FLAT:??_R0?AVbad_alloc@std@@@8
	DD	FLAT:??_R3bad_alloc@std@@8
rdata$r	ENDS
;	COMDAT ??_7bad_alloc@std@@6B@
CONST	SEGMENT
??_7bad_alloc@std@@6B@ DD FLAT:??_R4bad_alloc@std@@6B@	; std::bad_alloc::`vftable'
	DD	FLAT:??_Ebad_alloc@std@@UAEPAXI@Z
	DD	FLAT:?what@exception@std@@UBEPBDXZ
; Function compile flags: /Ogsp
CONST	ENDS
;	COMDAT ??0bad_alloc@std@@QAE@PBD@Z
_TEXT	SEGMENT
__Message$ = 8						; size = 4
??0bad_alloc@std@@QAE@PBD@Z PROC			; std::bad_alloc::bad_alloc, COMDAT
; _this$ = ecx

; 345  : 		{	// construct from message string

  00000	55		 push	 ebp
  00001	8b ec		 mov	 ebp, esp
  00003	56		 push	 esi
  00004	8d 45 08	 lea	 eax, DWORD PTR __Message$[ebp]
  00007	50		 push	 eax
  00008	8b f1		 mov	 esi, ecx
  0000a	ff 15 00 00 00
	00		 call	 DWORD PTR __imp_??0exception@std@@QAE@ABQBD@Z
  00010	c7 06 00 00 00
	00		 mov	 DWORD PTR [esi], OFFSET ??_7bad_alloc@std@@6B@

; 346  : 		}

  00016	8b c6		 mov	 eax, esi
  00018	5e		 pop	 esi
  00019	5d		 pop	 ebp
  0001a	c2 04 00	 ret	 4
??0bad_alloc@std@@QAE@PBD@Z ENDP			; std::bad_alloc::bad_alloc
_TEXT	ENDS
PUBLIC	??1bad_alloc@std@@UAE@XZ			; std::bad_alloc::~bad_alloc
EXTRN	__imp_??1exception@std@@UAE@XZ:PROC
; Function compile flags: /Ogsp
;	COMDAT ??1bad_alloc@std@@UAE@XZ
_TEXT	SEGMENT
??1bad_alloc@std@@UAE@XZ PROC				; std::bad_alloc::~bad_alloc, COMDAT
; _this$ = ecx

; 354  : 		{	// destroy the object

  00000	c7 01 00 00 00
	00		 mov	 DWORD PTR [ecx], OFFSET ??_7bad_alloc@std@@6B@

; 355  : 		}

  00006	ff 25 00 00 00
	00		 jmp	 DWORD PTR __imp_??1exception@std@@UAE@XZ
??1bad_alloc@std@@UAE@XZ ENDP				; std::bad_alloc::~bad_alloc
_TEXT	ENDS
EXTRN	??3@YAXPAX@Z:PROC				; operator delete
; Function compile flags: /Ogsp
;	COMDAT ??_Gbad_alloc@std@@UAEPAXI@Z
_TEXT	SEGMENT
___flags$ = 8						; size = 4
??_Gbad_alloc@std@@UAEPAXI@Z PROC			; std::bad_alloc::`scalar deleting destructor', COMDAT
; _this$ = ecx
  00000	55		 push	 ebp
  00001	8b ec		 mov	 ebp, esp
  00003	56		 push	 esi
  00004	8b f1		 mov	 esi, ecx
  00006	c7 06 00 00 00
	00		 mov	 DWORD PTR [esi], OFFSET ??_7bad_alloc@std@@6B@
  0000c	ff 15 00 00 00
	00		 call	 DWORD PTR __imp_??1exception@std@@UAE@XZ
  00012	f6 45 08 01	 test	 BYTE PTR ___flags$[ebp], 1
  00016	74 07		 je	 SHORT $LN1@scalar
  00018	56		 push	 esi
  00019	e8 00 00 00 00	 call	 ??3@YAXPAX@Z		; operator delete
  0001e	59		 pop	 ecx
$LN1@scalar:
  0001f	8b c6		 mov	 eax, esi
  00021	5e		 pop	 esi
  00022	5d		 pop	 ebp
  00023	c2 04 00	 ret	 4
??_Gbad_alloc@std@@UAEPAXI@Z ENDP			; std::bad_alloc::`scalar deleting destructor'
_TEXT	ENDS
PUBLIC	?OnProcess@NewShopItemInfoWnd@@MAEXM@Z		; NewShopItemInfoWnd::OnProcess
EXTRN	__imp_?IsShow@ioWnd@@QBE_NXZ:PROC
; Function compile flags: /Ogsp
; File d:\lost saga for developer\youtube\tutorial\source\src\lsclient\gui\newshopiteminfownd.cpp
;	COMDAT ?OnProcess@NewShopItemInfoWnd@@MAEXM@Z
_TEXT	SEGMENT
_fTimePerSec$ = 8					; size = 4
?OnProcess@NewShopItemInfoWnd@@MAEXM@Z PROC		; NewShopItemInfoWnd::OnProcess, COMDAT
; _this$ = ecx

; 490  : 	if( !IsShow() ) return;

  00000	ff 15 00 00 00
	00		 call	 DWORD PTR __imp_?IsShow@ioWnd@@QBE_NXZ

; 491  : }

  00006	c2 04 00	 ret	 4
?OnProcess@NewShopItemInfoWnd@@MAEXM@Z ENDP		; NewShopItemInfoWnd::OnProcess
_TEXT	ENDS
PUBLIC	?GetSingleton@?$Singleton@VioEtcItemManager@@@@SAAAVioEtcItemManager@@XZ ; Singleton<ioEtcItemManager>::GetSingleton
EXTRN	?ms_Singleton@?$Singleton@VioEtcItemManager@@@@1PAVioEtcItemManager@@A:DWORD ; Singleton<ioEtcItemManager>::ms_Singleton
; Function compile flags: /Ogsp
; File d:\lost saga for developer\youtube\tutorial\source\src\io3dengine\iosingleton.h
;	COMDAT ?GetSingleton@?$Singleton@VioEtcItemManager@@@@SAAAVioEtcItemManager@@XZ
_TEXT	SEGMENT
?GetSingleton@?$Singleton@VioEtcItemManager@@@@SAAAVioEtcItemManager@@XZ PROC ; Singleton<ioEtcItemManager>::GetSingleton, COMDAT

; 42   : 		assert( ms_Singleton );
; 43   : 		return (*ms_Singleton);

  00000	a1 00 00 00 00	 mov	 eax, DWORD PTR ?ms_Singleton@?$Singleton@VioEtcItemManager@@@@1PAVioEtcItemManager@@A ; Singleton<ioEtcItemManager>::ms_Singleton

; 44   : 	}

  00005	c3		 ret	 0
?GetSingleton@?$Singleton@VioEtcItemManager@@@@SAAAVioEtcItemManager@@XZ ENDP ; Singleton<ioEtcItemManager>::GetSingleton
_TEXT	ENDS
PUBLIC	?_Adopt@_Iterator_base0@std@@QAEXPBX@Z		; std::_Iterator_base0::_Adopt
; Function compile flags: /Ogsp
; File c:\program files (x86)\microsoft visual studio 10.0\vc\include\xutility
;	COMDAT ?_Adopt@_Iterator_base0@std@@QAEXPBX@Z
_TEXT	SEGMENT
___formal$ = 8						; size = 4
?_Adopt@_Iterator_base0@std@@QAEXPBX@Z PROC		; std::_Iterator_base0::_Adopt, COMDAT
; _this$ = ecx

; 49   : 		}

  00000	c2 04 00	 ret	 4
?_Adopt@_Iterator_base0@std@@QAEXPBX@Z ENDP		; std::_Iterator_base0::_Adopt
_TEXT	ENDS
PUBLIC	??$_Copy_impl@PAHPAH@std@@YAPAHPAH00U_Scalar_ptr_iterator_tag@0@@Z ; std::_Copy_impl<int *,int *>
EXTRN	__imp__memmove:PROC
; Function compile flags: /Ogsp
;	COMDAT ??$_Copy_impl@PAHPAH@std@@YAPAHPAH00U_Scalar_ptr_iterator_tag@0@@Z
_TEXT	SEGMENT
__First$ = 8						; size = 4
__Last$ = 12						; size = 4
__Dest$ = 16						; size = 4
___formal$ = 20						; size = 1
??$_Copy_impl@PAHPAH@std@@YAPAHPAH00U_Scalar_ptr_iterator_tag@0@@Z PROC ; std::_Copy_impl<int *,int *>, COMDAT

; 2152 : 	{	// copy [_First, _Last) to [_Dest, ...), pointers to scalars

  00000	55		 push	 ebp
  00001	8b ec		 mov	 ebp, esp
  00003	56		 push	 esi

; 2153 : 	ptrdiff_t _Count = _Last - _First;

  00004	8b 75 0c	 mov	 esi, DWORD PTR __Last$[ebp]
  00007	2b 75 08	 sub	 esi, DWORD PTR __First$[ebp]
  0000a	57		 push	 edi

; 2154 : 	_CSTD memmove(&*_Dest, &*_First,
; 2155 : 		_Count * sizeof (*_First));

  0000b	8b 7d 10	 mov	 edi, DWORD PTR __Dest$[ebp]
  0000e	c1 fe 02	 sar	 esi, 2
  00011	c1 e6 02	 shl	 esi, 2
  00014	56		 push	 esi
  00015	ff 75 08	 push	 DWORD PTR __First$[ebp]
  00018	57		 push	 edi
  00019	ff 15 00 00 00
	00		 call	 DWORD PTR __imp__memmove
  0001f	83 c4 0c	 add	 esp, 12			; 0000000cH

; 2156 : 	return (_Dest + _Count);

  00022	8d 04 3e	 lea	 eax, DWORD PTR [esi+edi]
  00025	5f		 pop	 edi
  00026	5e		 pop	 esi

; 2157 : 	}

  00027	5d		 pop	 ebp
  00028	c3		 ret	 0
??$_Copy_impl@PAHPAH@std@@YAPAHPAH00U_Scalar_ptr_iterator_tag@0@@Z ENDP ; std::_Copy_impl<int *,int *>
_TEXT	ENDS
PUBLIC	??$_Uninit_copy@HH@std@@YAPAHPAH00AAV?$allocator@H@0@U_Scalar_ptr_iterator_tag@0@@Z ; std::_Uninit_copy<int,int>
; Function compile flags: /Ogsp
; File c:\program files (x86)\microsoft visual studio 10.0\vc\include\memory
;	COMDAT ??$_Uninit_copy@HH@std@@YAPAHPAH00AAV?$allocator@H@0@U_Scalar_ptr_iterator_tag@0@@Z
_TEXT	SEGMENT
__First$ = 8						; size = 4
__Last$ = 12						; size = 4
__Dest$ = 16						; size = 4
___formal$ = 20						; size = 4
___formal$ = 24						; size = 1
??$_Uninit_copy@HH@std@@YAPAHPAH00AAV?$allocator@H@0@U_Scalar_ptr_iterator_tag@0@@Z PROC ; std::_Uninit_copy<int,int>, COMDAT

; 399  : 	{	// copy [_First, _Last) to raw _Dest, scalar type

  00000	55		 push	 ebp
  00001	8b ec		 mov	 ebp, esp
  00003	56		 push	 esi

; 400  : 	_DEBUG_RANGE(_First, _Last);
; 401  : 	_DEBUG_POINTER(_Dest);
; 402  : 	size_t _Count = (size_t)(_Last - _First);

  00004	8b 75 0c	 mov	 esi, DWORD PTR __Last$[ebp]
  00007	2b 75 08	 sub	 esi, DWORD PTR __First$[ebp]
  0000a	c1 fe 02	 sar	 esi, 2

; 403  : 	return ((_Ty2 *)_CSTD memmove(&*_Dest, &*_First,
; 404  : 		_Count * sizeof (*_First)) + _Count);	// NB: non-overlapping move

  0000d	c1 e6 02	 shl	 esi, 2
  00010	56		 push	 esi
  00011	ff 75 08	 push	 DWORD PTR __First$[ebp]
  00014	ff 75 10	 push	 DWORD PTR __Dest$[ebp]
  00017	ff 15 00 00 00
	00		 call	 DWORD PTR __imp__memmove
  0001d	83 c4 0c	 add	 esp, 12			; 0000000cH
  00020	03 c6		 add	 eax, esi
  00022	5e		 pop	 esi

; 405  : 	}

  00023	5d		 pop	 ebp
  00024	c3		 ret	 0
??$_Uninit_copy@HH@std@@YAPAHPAH00AAV?$allocator@H@0@U_Scalar_ptr_iterator_tag@0@@Z ENDP ; std::_Uninit_copy<int,int>
; Function compile flags: /Ogsp
; File c:\program files (x86)\microsoft sdks\windows\v7.0a\include\strsafe.h
_TEXT	ENDS
;	COMDAT ?StringLengthWorkerA@@YGJPBDIPAI@Z
_TEXT	SEGMENT
?StringLengthWorkerA@@YGJPBDIPAI@Z PROC			; StringLengthWorkerA, COMDAT
; _psz$ = eax
; _cchMax$ = edx
; _pcchLength$ = edi

; 8549 : {

  00000	56		 push	 esi
  00001	8b f0		 mov	 esi, eax

; 8550 :     HRESULT hr = S_OK;

  00003	33 c0		 xor	 eax, eax

; 8551 :     size_t cchOriginalMax = cchMax;

  00005	8b ca		 mov	 ecx, edx

; 8552 : 
; 8553 :     while (cchMax && (*psz != '\0'))

  00007	85 d2		 test	 edx, edx
  00009	74 0c		 je	 SHORT $LN11@StringLeng
$LL6@StringLeng:
  0000b	38 06		 cmp	 BYTE PTR [esi], al
  0000d	74 04		 je	 SHORT $LN5@StringLeng

; 8554 :     {
; 8555 :         psz++;

  0000f	46		 inc	 esi

; 8556 :         cchMax--;

  00010	4a		 dec	 edx
  00011	75 f8		 jne	 SHORT $LL6@StringLeng
$LN5@StringLeng:

; 8557 :     }
; 8558 : 
; 8559 :     if (cchMax == 0)

  00013	85 d2		 test	 edx, edx
  00015	75 05		 jne	 SHORT $LN4@StringLeng
$LN11@StringLeng:

; 8560 :     {
; 8561 :         // the string is longer than cchMax
; 8562 :         hr = STRSAFE_E_INVALID_PARAMETER;

  00017	b8 57 00 07 80	 mov	 eax, -2147024809	; 80070057H
$LN4@StringLeng:
  0001c	5e		 pop	 esi

; 8563 :     }
; 8564 : 
; 8565 :     if (pcchLength)

  0001d	85 ff		 test	 edi, edi
  0001f	74 0c		 je	 SHORT $LN1@StringLeng

; 8566 :     {
; 8567 :         if (SUCCEEDED(hr))

  00021	85 c0		 test	 eax, eax
  00023	78 05		 js	 SHORT $LN2@StringLeng

; 8568 :         {
; 8569 :             *pcchLength = cchOriginalMax - cchMax;

  00025	2b ca		 sub	 ecx, edx
  00027	89 0f		 mov	 DWORD PTR [edi], ecx

; 8574 :         }
; 8575 :     }
; 8576 : 
; 8577 :     return hr;
; 8578 : }

  00029	c3		 ret	 0
$LN2@StringLeng:

; 8570 :         }
; 8571 :         else
; 8572 :         {
; 8573 :             *pcchLength = 0;

  0002a	83 27 00	 and	 DWORD PTR [edi], 0
$LN1@StringLeng:

; 8574 :         }
; 8575 :     }
; 8576 : 
; 8577 :     return hr;
; 8578 : }

  0002d	c3		 ret	 0
?StringLengthWorkerA@@YGJPBDIPAI@Z ENDP			; StringLengthWorkerA
; Function compile flags: /Ogsp
_TEXT	ENDS
;	COMDAT ?StringValidateDestA@@YGJPBDII@Z
_TEXT	SEGMENT
_cchMax$ = 8						; size = 4
?StringValidateDestA@@YGJPBDII@Z PROC			; StringValidateDestA, COMDAT
; _cchDest$ = ecx

; 8721 : {

  00000	55		 push	 ebp
  00001	8b ec		 mov	 ebp, esp

; 8722 :     HRESULT hr = S_OK;

  00003	33 c0		 xor	 eax, eax

; 8723 : 
; 8724 :     if ((cchDest == 0) || (cchDest > cchMax))

  00005	85 c9		 test	 ecx, ecx
  00007	74 05		 je	 SHORT $LN1@StringVali
  00009	3b 4d 08	 cmp	 ecx, DWORD PTR _cchMax$[ebp]
  0000c	76 05		 jbe	 SHORT $LN2@StringVali
$LN1@StringVali:

; 8725 :     {
; 8726 :         hr = STRSAFE_E_INVALID_PARAMETER;

  0000e	b8 57 00 07 80	 mov	 eax, -2147024809	; 80070057H
$LN2@StringVali:

; 8727 :     }
; 8728 : 
; 8729 :     return hr;
; 8730 : }

  00013	5d		 pop	 ebp
  00014	c2 04 00	 ret	 4
?StringValidateDestA@@YGJPBDII@Z ENDP			; StringValidateDestA
; Function compile flags: /Ogsp
_TEXT	ENDS
;	COMDAT ?StringValidateDestAndLengthA@@YGJPBDIPAII@Z
_TEXT	SEGMENT
_pszDest$ = 8						; size = 4
_cchMax$ = 12						; size = 4
?StringValidateDestAndLengthA@@YGJPBDIPAII@Z PROC	; StringValidateDestAndLengthA, COMDAT
; _cchDest$ = ecx
; _pcchDestLength$ = esi

; 8743 : {

  00000	55		 push	 ebp
  00001	8b ec		 mov	 ebp, esp

; 8744 :     HRESULT hr;
; 8745 : 
; 8746 :     hr = StringValidateDestA(pszDest, cchDest, cchMax);

  00003	33 c0		 xor	 eax, eax
  00005	85 c9		 test	 ecx, ecx
  00007	74 05		 je	 SHORT $LN5@StringVali@2
  00009	3b 4d 0c	 cmp	 ecx, DWORD PTR _cchMax$[ebp]
  0000c	76 05		 jbe	 SHORT $LN6@StringVali@2
$LN5@StringVali@2:
  0000e	b8 57 00 07 80	 mov	 eax, -2147024809	; 80070057H
$LN6@StringVali@2:

; 8747 : 
; 8748 :     if (SUCCEEDED(hr))

  00013	85 c0		 test	 eax, eax
  00015	78 34		 js	 SHORT $LN2@StringVali@2

; 8749 :     {
; 8750 :         hr = StringLengthWorkerA(pszDest, cchDest, pcchDestLength);

  00017	8b 45 08	 mov	 eax, DWORD PTR _pszDest$[ebp]
  0001a	57		 push	 edi
  0001b	33 ff		 xor	 edi, edi
  0001d	8b d1		 mov	 edx, ecx
  0001f	85 c9		 test	 ecx, ecx
  00021	74 0d		 je	 SHORT $LN19@StringVali@2
$LL14@StringVali@2:
  00023	80 38 00	 cmp	 BYTE PTR [eax], 0
  00026	74 04		 je	 SHORT $LN13@StringVali@2
  00028	40		 inc	 eax
  00029	4a		 dec	 edx
  0002a	75 f7		 jne	 SHORT $LL14@StringVali@2
$LN13@StringVali@2:
  0002c	85 d2		 test	 edx, edx
  0002e	75 05		 jne	 SHORT $LN12@StringVali@2
$LN19@StringVali@2:
  00030	bf 57 00 07 80	 mov	 edi, -2147024809	; 80070057H
$LN12@StringVali@2:
  00035	85 f6		 test	 esi, esi
  00037	74 0d		 je	 SHORT $LN9@StringVali@2
  00039	85 ff		 test	 edi, edi
  0003b	78 06		 js	 SHORT $LN10@StringVali@2
  0003d	2b ca		 sub	 ecx, edx
  0003f	89 0e		 mov	 DWORD PTR [esi], ecx
  00041	eb 03		 jmp	 SHORT $LN9@StringVali@2
$LN10@StringVali@2:
  00043	83 26 00	 and	 DWORD PTR [esi], 0
$LN9@StringVali@2:
  00046	8b c7		 mov	 eax, edi
  00048	5f		 pop	 edi

; 8751 :     }
; 8752 :     else

  00049	eb 03		 jmp	 SHORT $LN1@StringVali@2
$LN2@StringVali@2:

; 8753 :     {
; 8754 :         *pcchDestLength = 0;

  0004b	83 26 00	 and	 DWORD PTR [esi], 0
$LN1@StringVali@2:

; 8755 :     }
; 8756 : 
; 8757 :     return hr;
; 8758 : }

  0004e	5d		 pop	 ebp
  0004f	c2 08 00	 ret	 8
?StringValidateDestAndLengthA@@YGJPBDIPAII@Z ENDP	; StringValidateDestAndLengthA
; Function compile flags: /Ogsp
_TEXT	ENDS
;	COMDAT ?StringCopyWorkerA@@YGJPADIPAIPBDI@Z
_TEXT	SEGMENT
_hr$ = -4						; size = 4
_pcchNewDestLength$ = 8					; size = 4
_pszSrc$ = 12						; size = 4
_cchToCopy$ = 16					; size = 4
?StringCopyWorkerA@@YGJPADIPAIPBDI@Z PROC		; StringCopyWorkerA, COMDAT
; _pszDest$ = ecx
; _cchDest$ = eax

; 8947 : {

  00000	55		 push	 ebp
  00001	8b ec		 mov	 ebp, esp
  00003	51		 push	 ecx

; 8948 :     HRESULT hr = S_OK;

  00004	83 65 fc 00	 and	 DWORD PTR _hr$[ebp], 0
  00008	57		 push	 edi
  00009	8b f8		 mov	 edi, eax

; 8949 :     size_t cchNewDestLength = 0;

  0000b	33 c0		 xor	 eax, eax

; 8950 :     
; 8951 :     // ASSERT(cchDest != 0);
; 8952 : 
; 8953 :     while (cchDest && cchToCopy && (*pszSrc != '\0'))

  0000d	85 ff		 test	 edi, edi
  0000f	74 23		 je	 SHORT $LN9@StringCopy

; 8948 :     HRESULT hr = S_OK;

  00011	53		 push	 ebx
  00012	8b 5d 10	 mov	 ebx, DWORD PTR _cchToCopy$[ebp]
  00015	56		 push	 esi

; 8950 :     
; 8951 :     // ASSERT(cchDest != 0);
; 8952 : 
; 8953 :     while (cchDest && cchToCopy && (*pszSrc != '\0'))

  00016	8b 75 0c	 mov	 esi, DWORD PTR _pszSrc$[ebp]
  00019	2b f1		 sub	 esi, ecx
$LL4@StringCopy:
  0001b	85 db		 test	 ebx, ebx
  0001d	74 0f		 je	 SHORT $LN11@StringCopy
  0001f	8a 14 0e	 mov	 dl, BYTE PTR [esi+ecx]
  00022	84 d2		 test	 dl, dl
  00024	74 08		 je	 SHORT $LN11@StringCopy

; 8954 :     {
; 8955 :         *pszDest++ = *pszSrc++;

  00026	88 11		 mov	 BYTE PTR [ecx], dl
  00028	41		 inc	 ecx

; 8956 :         cchDest--;

  00029	4b		 dec	 ebx

; 8957 :         cchToCopy--;
; 8958 : 
; 8959 :         cchNewDestLength++;

  0002a	40		 inc	 eax
  0002b	4f		 dec	 edi
  0002c	75 ed		 jne	 SHORT $LL4@StringCopy
$LN11@StringCopy:
  0002e	5e		 pop	 esi
  0002f	5b		 pop	 ebx

; 8960 :     }
; 8961 : 
; 8962 :     if (cchDest == 0)

  00030	85 ff		 test	 edi, edi
  00032	75 09		 jne	 SHORT $LN2@StringCopy
$LN9@StringCopy:

; 8963 :     {
; 8964 :         // we are going to truncate pszDest
; 8965 :         pszDest--;

  00034	49		 dec	 ecx

; 8966 :         cchNewDestLength--;

  00035	48		 dec	 eax

; 8967 : 
; 8968 :         hr = STRSAFE_E_INSUFFICIENT_BUFFER;

  00036	c7 45 fc 7a 00
	07 80		 mov	 DWORD PTR _hr$[ebp], -2147024774 ; 8007007aH
$LN2@StringCopy:

; 8969 :     }
; 8970 : 
; 8971 :     *pszDest = '\0';

  0003d	c6 01 00	 mov	 BYTE PTR [ecx], 0

; 8972 : 
; 8973 :     if (pcchNewDestLength)

  00040	8b 4d 08	 mov	 ecx, DWORD PTR _pcchNewDestLength$[ebp]
  00043	5f		 pop	 edi
  00044	85 c9		 test	 ecx, ecx
  00046	74 02		 je	 SHORT $LN1@StringCopy

; 8974 :     {
; 8975 :         *pcchNewDestLength = cchNewDestLength;

  00048	89 01		 mov	 DWORD PTR [ecx], eax
$LN1@StringCopy:

; 8976 :     }
; 8977 : 
; 8978 :     return hr;

  0004a	8b 45 fc	 mov	 eax, DWORD PTR _hr$[ebp]

; 8979 : }

  0004d	c9		 leave
  0004e	c2 0c 00	 ret	 12			; 0000000cH
?StringCopyWorkerA@@YGJPADIPAIPBDI@Z ENDP		; StringCopyWorkerA
_TEXT	ENDS
PUBLIC	??0CTimeSpan@ATL@@QAE@_J@Z			; ATL::CTimeSpan::CTimeSpan
; Function compile flags: /Ogsp
; File c:\program files (x86)\microsoft visual studio 10.0\vc\atlmfc\include\atltime.inl
;	COMDAT ??0CTimeSpan@ATL@@QAE@_J@Z
_TEXT	SEGMENT
_time$ = 8						; size = 8
??0CTimeSpan@ATL@@QAE@_J@Z PROC				; ATL::CTimeSpan::CTimeSpan, COMDAT
; _this$ = ecx

; 33   : {

  00000	55		 push	 ebp
  00001	8b ec		 mov	 ebp, esp
  00003	8b c1		 mov	 eax, ecx
  00005	8b 4d 08	 mov	 ecx, DWORD PTR _time$[ebp]
  00008	89 08		 mov	 DWORD PTR [eax], ecx
  0000a	8b 4d 0c	 mov	 ecx, DWORD PTR _time$[ebp+4]
  0000d	89 48 04	 mov	 DWORD PTR [eax+4], ecx

; 34   : }

  00010	5d		 pop	 ebp
  00011	c2 08 00	 ret	 8
??0CTimeSpan@ATL@@QAE@_J@Z ENDP				; ATL::CTimeSpan::CTimeSpan
_TEXT	ENDS
PUBLIC	?GetDays@CTimeSpan@ATL@@QBE_JXZ			; ATL::CTimeSpan::GetDays
EXTRN	__alldiv:PROC
; Function compile flags: /Ogsp
;	COMDAT ?GetDays@CTimeSpan@ATL@@QBE_JXZ
_TEXT	SEGMENT
?GetDays@CTimeSpan@ATL@@QBE_JXZ PROC			; ATL::CTimeSpan::GetDays, COMDAT
; _this$ = ecx

; 47   : 	return( m_timeSpan/(24*3600) );

  00000	6a 00		 push	 0
  00002	68 80 51 01 00	 push	 86400			; 00015180H
  00007	ff 71 04	 push	 DWORD PTR [ecx+4]
  0000a	ff 31		 push	 DWORD PTR [ecx]
  0000c	e8 00 00 00 00	 call	 __alldiv

; 48   : }

  00011	c3		 ret	 0
?GetDays@CTimeSpan@ATL@@QBE_JXZ ENDP			; ATL::CTimeSpan::GetDays
_TEXT	ENDS
PUBLIC	??0CTime@ATL@@QAE@XZ				; ATL::CTime::CTime
; Function compile flags: /Ogsp
;	COMDAT ??0CTime@ATL@@QAE@XZ
_TEXT	SEGMENT
??0CTime@ATL@@QAE@XZ PROC				; ATL::CTime::CTime, COMDAT
; _this$ = ecx

; 166  : {

  00000	8b c1		 mov	 eax, ecx
  00002	83 20 00	 and	 DWORD PTR [eax], 0
  00005	83 60 04 00	 and	 DWORD PTR [eax+4], 0

; 167  : }

  00009	c3		 ret	 0
??0CTime@ATL@@QAE@XZ ENDP				; ATL::CTime::CTime
_TEXT	ENDS
PUBLIC	??GCTime@ATL@@QBE?AVCTimeSpan@1@V01@@Z		; ATL::CTime::operator-
; Function compile flags: /Ogsp
;	COMDAT ??GCTime@ATL@@QBE?AVCTimeSpan@1@V01@@Z
_TEXT	SEGMENT
___$ReturnUdt$ = 8					; size = 4
_time$ = 12						; size = 8
??GCTime@ATL@@QBE?AVCTimeSpan@1@V01@@Z PROC		; ATL::CTime::operator-, COMDAT
; _this$ = ecx

; 304  : {

  00000	55		 push	 ebp
  00001	8b ec		 mov	 ebp, esp

; 305  : 	return( CTimeSpan( m_time-time.m_time ) );

  00003	8b 11		 mov	 edx, DWORD PTR [ecx]
  00005	2b 55 0c	 sub	 edx, DWORD PTR _time$[ebp]
  00008	8b 49 04	 mov	 ecx, DWORD PTR [ecx+4]
  0000b	1b 4d 10	 sbb	 ecx, DWORD PTR _time$[ebp+4]
  0000e	8b 45 08	 mov	 eax, DWORD PTR ___$ReturnUdt$[ebp]
  00011	89 10		 mov	 DWORD PTR [eax], edx
  00013	89 48 04	 mov	 DWORD PTR [eax+4], ecx

; 306  : }

  00016	5d		 pop	 ebp
  00017	c2 0c 00	 ret	 12			; 0000000cH
??GCTime@ATL@@QBE?AVCTimeSpan@1@V01@@Z ENDP		; ATL::CTime::operator-
_TEXT	ENDS
PUBLIC	?_DECSTR@@YAXPADH@Z				; _DECSTR
; Function compile flags: /Ogsp
; File d:\lost saga for developer\youtube\tutorial\source\src\lsclient\stringprotect.h
;	COMDAT ?_DECSTR@@YAXPADH@Z
_TEXT	SEGMENT
_s$ = 8							; size = 4
_l$ = 12						; size = 4
?_DECSTR@@YAXPADH@Z PROC				; _DECSTR, COMDAT

; 40   : __forceinline void _DECSTR(char* s, int l){int i=0,l4=(l-1)/4,*p=(int*)s;s[l-1]=0;for(;i<l4;++i)*(p++)^=0xEAEBECED;for(i=l4*4;i<l-1;++i)s[i]^=0xED-i%4;}

  00000	55		 push	 ebp
  00001	8b ec		 mov	 ebp, esp
  00003	8b 4d 0c	 mov	 ecx, DWORD PTR _l$[ebp]
  00006	56		 push	 esi
  00007	8b 75 08	 mov	 esi, DWORD PTR _s$[ebp]
  0000a	57		 push	 edi
  0000b	8d 79 ff	 lea	 edi, DWORD PTR [ecx-1]
  0000e	8b c7		 mov	 eax, edi
  00010	99		 cdq
  00011	83 e2 03	 and	 edx, 3
  00014	03 c2		 add	 eax, edx
  00016	c1 f8 02	 sar	 eax, 2
  00019	8b d6		 mov	 edx, esi
  0001b	c6 44 0e ff 00	 mov	 BYTE PTR [esi+ecx-1], 0
  00020	85 c0		 test	 eax, eax
  00022	7e 0e		 jle	 SHORT $LN4@DECSTR
  00024	8b c8		 mov	 ecx, eax
$LL6@DECSTR:
  00026	81 32 ed ec eb
	ea		 xor	 DWORD PTR [edx], -353637139 ; eaebecedH
  0002c	83 c2 04	 add	 edx, 4
  0002f	49		 dec	 ecx
  00030	75 f4		 jne	 SHORT $LL6@DECSTR
$LN4@DECSTR:
  00032	c1 e0 02	 shl	 eax, 2
  00035	eb 17		 jmp	 SHORT $LN14@DECSTR
$LL3@DECSTR:
  00037	8b c8		 mov	 ecx, eax
  00039	81 e1 03 00 00
	80		 and	 ecx, -2147483645	; 80000003H
  0003f	79 05		 jns	 SHORT $LN13@DECSTR
  00041	49		 dec	 ecx
  00042	83 c9 fc	 or	 ecx, -4			; fffffffcH
  00045	41		 inc	 ecx
$LN13@DECSTR:
  00046	b2 ed		 mov	 dl, -19			; ffffffedH
  00048	2a d1		 sub	 dl, cl
  0004a	30 14 30	 xor	 BYTE PTR [eax+esi], dl
  0004d	40		 inc	 eax
$LN14@DECSTR:
  0004e	3b c7		 cmp	 eax, edi
  00050	7c e5		 jl	 SHORT $LL3@DECSTR
  00052	5f		 pop	 edi
  00053	5e		 pop	 esi
  00054	5d		 pop	 ebp
  00055	c3		 ret	 0
?_DECSTR@@YAXPADH@Z ENDP				; _DECSTR
_TEXT	ENDS
PUBLIC	?GetGradeType@CostumeShopInfo@@QBEHXZ		; CostumeShopInfo::GetGradeType
; Function compile flags: /Ogsp
; File d:\lost saga for developer\youtube\tutorial\source\src\lsclient\iocostumeshopinfomanager.h
;	COMDAT ?GetGradeType@CostumeShopInfo@@QBEHXZ
_TEXT	SEGMENT
?GetGradeType@CostumeShopInfo@@QBEHXZ PROC		; CostumeShopInfo::GetGradeType, COMDAT
; _this$ = ecx

; 60   : 	inline int GetGradeType() const { return m_nGradeType; }

  00000	8b 41 0c	 mov	 eax, DWORD PTR [ecx+12]
  00003	c3		 ret	 0
?GetGradeType@CostumeShopInfo@@QBEHXZ ENDP		; CostumeShopInfo::GetGradeType
_TEXT	ENDS
PUBLIC	?ShowExtraInfo@Setting@@SA_NXZ			; Setting::ShowExtraInfo
EXTRN	?m_Option@Setting@@1USettingOption@@A:BYTE	; Setting::m_Option
; Function compile flags: /Ogsp
; File d:\lost saga for developer\youtube\tutorial\source\src\lsclient\setting.h
;	COMDAT ?ShowExtraInfo@Setting@@SA_NXZ
_TEXT	SEGMENT
?ShowExtraInfo@Setting@@SA_NXZ PROC			; Setting::ShowExtraInfo, COMDAT

; 417  : 	static bool ShowExtraInfo() { return m_Option.m_bExtraInfo; }

  00000	a0 70 00 00 00	 mov	 al, BYTE PTR ?m_Option@Setting@@1USettingOption@@A+112
  00005	c3		 ret	 0
?ShowExtraInfo@Setting@@SA_NXZ ENDP			; Setting::ShowExtraInfo
_TEXT	ENDS
PUBLIC	?GetGradeType@ioItem@@QBEHXZ			; ioItem::GetGradeType
; Function compile flags: /Ogsp
; File d:\lost saga for developer\youtube\tutorial\source\src\lsclient\ioitem.h
;	COMDAT ?GetGradeType@ioItem@@QBEHXZ
_TEXT	SEGMENT
?GetGradeType@ioItem@@QBEHXZ PROC			; ioItem::GetGradeType, COMDAT
; _this$ = ecx

; 445  : 	inline int GetGradeType() const { return m_nGradeType; }

  00000	8b 81 20 06 00
	00		 mov	 eax, DWORD PTR [ecx+1568]
  00006	c3		 ret	 0
?GetGradeType@ioItem@@QBEHXZ ENDP			; ioItem::GetGradeType
_TEXT	ENDS
PUBLIC	?GetGradeType@ioEtcItem@@QBEHXZ			; ioEtcItem::GetGradeType
; Function compile flags: /Ogsp
; File d:\lost saga for developer\youtube\tutorial\source\src\lsclient\ioetcitem.h
;	COMDAT ?GetGradeType@ioEtcItem@@QBEHXZ
_TEXT	SEGMENT
?GetGradeType@ioEtcItem@@QBEHXZ PROC			; ioEtcItem::GetGradeType, COMDAT
; _this$ = ecx

; 440  : 	inline int GetGradeType() const { return m_nGradeType; }

  00000	8b 81 84 01 00
	00		 mov	 eax, DWORD PTR [ecx+388]
  00006	c3		 ret	 0
?GetGradeType@ioEtcItem@@QBEHXZ ENDP			; ioEtcItem::GetGradeType
_TEXT	ENDS
PUBLIC	?GetName@ioEtcItem@@QBEABVioHashString@@XZ	; ioEtcItem::GetName
; Function compile flags: /Ogsp
;	COMDAT ?GetName@ioEtcItem@@QBEABVioHashString@@XZ
_TEXT	SEGMENT
?GetName@ioEtcItem@@QBEABVioHashString@@XZ PROC		; ioEtcItem::GetName, COMDAT
; _this$ = ecx

; 465  : 	inline const ioHashString& GetName() const { return m_Name; }

  00000	8d 41 04	 lea	 eax, DWORD PTR [ecx+4]
  00003	c3		 ret	 0
?GetName@ioEtcItem@@QBEABVioHashString@@XZ ENDP		; ioEtcItem::GetName
_TEXT	ENDS
PUBLIC	?GetGradeType@RandomMachineInfo@@QBEHXZ		; RandomMachineInfo::GetGradeType
; Function compile flags: /Ogsp
; File d:\lost saga for developer\youtube\tutorial\source\src\lsclient\ioextraiteminfomanager.h
;	COMDAT ?GetGradeType@RandomMachineInfo@@QBEHXZ
_TEXT	SEGMENT
?GetGradeType@RandomMachineInfo@@QBEHXZ PROC		; RandomMachineInfo::GetGradeType, COMDAT
; _this$ = ecx

; 131  : 	inline int GetGradeType() const { return m_nGradeType; }

  00000	8b 81 8c 00 00
	00		 mov	 eax, DWORD PTR [ecx+140]
  00006	c3		 ret	 0
?GetGradeType@RandomMachineInfo@@QBEHXZ ENDP		; RandomMachineInfo::GetGradeType
_TEXT	ENDS
PUBLIC	?size@?$vector@HV?$allocator@H@std@@@std@@QBEIXZ ; std::vector<int,std::allocator<int> >::size
; Function compile flags: /Ogsp
; File c:\program files (x86)\microsoft visual studio 10.0\vc\include\vector
;	COMDAT ?size@?$vector@HV?$allocator@H@std@@@std@@QBEIXZ
_TEXT	SEGMENT
?size@?$vector@HV?$allocator@H@std@@@std@@QBEIXZ PROC	; std::vector<int,std::allocator<int> >::size, COMDAT
; _this$ = ecx

; 879  : 		return (this->_Mylast - this->_Myfirst);

  00000	8b 41 04	 mov	 eax, DWORD PTR [ecx+4]
  00003	2b 01		 sub	 eax, DWORD PTR [ecx]
  00005	c1 f8 02	 sar	 eax, 2

; 880  : 		}

  00008	c3		 ret	 0
?size@?$vector@HV?$allocator@H@std@@@std@@QBEIXZ ENDP	; std::vector<int,std::allocator<int> >::size
_TEXT	ENDS
PUBLIC	??A?$vector@HV?$allocator@H@std@@@std@@QBEABHI@Z ; std::vector<int,std::allocator<int> >::operator[]
; Function compile flags: /Ogsp
;	COMDAT ??A?$vector@HV?$allocator@H@std@@@std@@QBEABHI@Z
_TEXT	SEGMENT
__Pos$ = 8						; size = 4
??A?$vector@HV?$allocator@H@std@@@std@@QBEABHI@Z PROC	; std::vector<int,std::allocator<int> >::operator[], COMDAT
; _this$ = ecx

; 912  : 		{	// subscript nonmutable sequence

  00000	55		 push	 ebp
  00001	8b ec		 mov	 ebp, esp

; 913  :  #if _ITERATOR_DEBUG_LEVEL == 2
; 914  : 		if (size() <= _Pos)
; 915  : 			{	// report error
; 916  : 			_DEBUG_ERROR("vector subscript out of range");
; 917  : 			_SCL_SECURE_OUT_OF_RANGE;
; 918  : 			}
; 919  : 
; 920  :  #elif _ITERATOR_DEBUG_LEVEL == 1
; 921  : 		_SCL_SECURE_VALIDATE_RANGE(_Pos < size());
; 922  :  #endif /* _ITERATOR_DEBUG_LEVEL */
; 923  : 
; 924  : 		return (*(this->_Myfirst + _Pos));

  00003	8b 01		 mov	 eax, DWORD PTR [ecx]
  00005	8b 4d 08	 mov	 ecx, DWORD PTR __Pos$[ebp]
  00008	8d 04 88	 lea	 eax, DWORD PTR [eax+ecx*4]

; 925  : 		}

  0000b	5d		 pop	 ebp
  0000c	c2 04 00	 ret	 4
??A?$vector@HV?$allocator@H@std@@@std@@QBEABHI@Z ENDP	; std::vector<int,std::allocator<int> >::operator[]
_TEXT	ENDS
PUBLIC	??A?$vector@HV?$allocator@H@std@@@std@@QAEAAHI@Z ; std::vector<int,std::allocator<int> >::operator[]
; Function compile flags: /Ogsp
;	COMDAT ??A?$vector@HV?$allocator@H@std@@@std@@QAEAAHI@Z
_TEXT	SEGMENT
__Pos$ = 8						; size = 4
??A?$vector@HV?$allocator@H@std@@@std@@QAEAAHI@Z PROC	; std::vector<int,std::allocator<int> >::operator[], COMDAT
; _this$ = ecx

; 928  : 		{	// subscript mutable sequence

  00000	55		 push	 ebp
  00001	8b ec		 mov	 ebp, esp

; 929  :  #if _ITERATOR_DEBUG_LEVEL == 2
; 930  : 		if (size() <= _Pos)
; 931  : 			{	// report error
; 932  : 			_DEBUG_ERROR("vector subscript out of range");
; 933  : 			_SCL_SECURE_OUT_OF_RANGE;
; 934  : 			}
; 935  : 
; 936  :  #elif _ITERATOR_DEBUG_LEVEL == 1
; 937  : 		_SCL_SECURE_VALIDATE_RANGE(_Pos < size());
; 938  :  #endif /* _ITERATOR_DEBUG_LEVEL */
; 939  : 
; 940  : 		return (*(this->_Myfirst + _Pos));

  00003	8b 01		 mov	 eax, DWORD PTR [ecx]
  00005	8b 4d 08	 mov	 ecx, DWORD PTR __Pos$[ebp]
  00008	8d 04 88	 lea	 eax, DWORD PTR [eax+ecx*4]

; 941  : 		}

  0000b	5d		 pop	 ebp
  0000c	c2 04 00	 ret	 4
??A?$vector@HV?$allocator@H@std@@@std@@QAEAAHI@Z ENDP	; std::vector<int,std::allocator<int> >::operator[]
_TEXT	ENDS
PUBLIC	?empty@?$vector@UtagTextPiece@ioComplexStringPrinter@@V?$allocator@UtagTextPiece@ioComplexStringPrinter@@@std@@@std@@QBE_NXZ ; std::vector<ioComplexStringPrinter::tagTextPiece,std::allocator<ioComplexStringPrinter::tagTextPiece> >::empty
; Function compile flags: /Ogsp
;	COMDAT ?empty@?$vector@UtagTextPiece@ioComplexStringPrinter@@V?$allocator@UtagTextPiece@ioComplexStringPrinter@@@std@@@std@@QBE_NXZ
_TEXT	SEGMENT
?empty@?$vector@UtagTextPiece@ioComplexStringPrinter@@V?$allocator@UtagTextPiece@ioComplexStringPrinter@@@std@@@std@@QBE_NXZ PROC ; std::vector<ioComplexStringPrinter::tagTextPiece,std::allocator<ioComplexStringPrinter::tagTextPiece> >::empty, COMDAT
; _this$ = ecx

; 889  : 		return (this->_Myfirst == this->_Mylast);

  00000	8b 01		 mov	 eax, DWORD PTR [ecx]
  00002	2b 41 04	 sub	 eax, DWORD PTR [ecx+4]
  00005	f7 d8		 neg	 eax
  00007	1b c0		 sbb	 eax, eax
  00009	40		 inc	 eax

; 890  : 		}

  0000a	c3		 ret	 0
?empty@?$vector@UtagTextPiece@ioComplexStringPrinter@@V?$allocator@UtagTextPiece@ioComplexStringPrinter@@@std@@@std@@QBE_NXZ ENDP ; std::vector<ioComplexStringPrinter::tagTextPiece,std::allocator<ioComplexStringPrinter::tagTextPiece> >::empty
_TEXT	ENDS
PUBLIC	??0?$allocator@H@std@@QAE@XZ			; std::allocator<int>::allocator<int>
; Function compile flags: /Ogsp
; File c:\program files (x86)\microsoft visual studio 10.0\vc\include\xmemory
;	COMDAT ??0?$allocator@H@std@@QAE@XZ
_TEXT	SEGMENT
??0?$allocator@H@std@@QAE@XZ PROC			; std::allocator<int>::allocator<int>, COMDAT
; _this$ = ecx

; 161  : 	_ALLOCATOR() _THROW0()

  00000	8b c1		 mov	 eax, ecx

; 162  : 		{	// construct default allocator (do nothing)
; 163  : 		}

  00002	c3		 ret	 0
??0?$allocator@H@std@@QAE@XZ ENDP			; std::allocator<int>::allocator<int>
_TEXT	ENDS
PUBLIC	??1?$_Vector_val@HV?$allocator@H@std@@@std@@QAE@XZ ; std::_Vector_val<int,std::allocator<int> >::~_Vector_val<int,std::allocator<int> >
; Function compile flags: /Ogsp
; File c:\program files (x86)\microsoft visual studio 10.0\vc\include\vector
;	COMDAT ??1?$_Vector_val@HV?$allocator@H@std@@@std@@QAE@XZ
_TEXT	SEGMENT
??1?$_Vector_val@HV?$allocator@H@std@@@std@@QAE@XZ PROC	; std::_Vector_val<int,std::allocator<int> >::~_Vector_val<int,std::allocator<int> >, COMDAT
; _this$ = ecx

; 434  : 		}

  00000	c3		 ret	 0
??1?$_Vector_val@HV?$allocator@H@std@@@std@@QAE@XZ ENDP	; std::_Vector_val<int,std::allocator<int> >::~_Vector_val<int,std::allocator<int> >
_TEXT	ENDS
PUBLIC	??0?$_Vector_const_iterator@V?$_Vector_val@HV?$allocator@H@std@@@std@@@std@@QAE@PAHPBU_Container_base0@1@@Z ; std::_Vector_const_iterator<std::_Vector_val<int,std::allocator<int> > >::_Vector_const_iterator<std::_Vector_val<int,std::allocator<int> > >
; Function compile flags: /Ogsp
;	COMDAT ??0?$_Vector_const_iterator@V?$_Vector_val@HV?$allocator@H@std@@@std@@@std@@QAE@PAHPBU_Container_base0@1@@Z
_TEXT	SEGMENT
__Parg$ = 8						; size = 4
__Pvector$ = 12						; size = 4
??0?$_Vector_const_iterator@V?$_Vector_val@HV?$allocator@H@std@@@std@@@std@@QAE@PAHPBU_Container_base0@1@@Z PROC ; std::_Vector_const_iterator<std::_Vector_val<int,std::allocator<int> > >::_Vector_const_iterator<std::_Vector_val<int,std::allocator<int> > >, COMDAT
; _this$ = ecx

; 45   : 		{	// construct with pointer _Parg

  00000	55		 push	 ebp
  00001	8b ec		 mov	 ebp, esp
  00003	8b c1		 mov	 eax, ecx
  00005	8b 4d 08	 mov	 ecx, DWORD PTR __Parg$[ebp]
  00008	89 08		 mov	 DWORD PTR [eax], ecx

; 46   : 		this->_Adopt(_Pvector);
; 47   : 		}

  0000a	5d		 pop	 ebp
  0000b	c2 08 00	 ret	 8
??0?$_Vector_const_iterator@V?$_Vector_val@HV?$allocator@H@std@@@std@@@std@@QAE@PAHPBU_Container_base0@1@@Z ENDP ; std::_Vector_const_iterator<std::_Vector_val<int,std::allocator<int> > >::_Vector_const_iterator<std::_Vector_val<int,std::allocator<int> > >
_TEXT	ENDS
PUBLIC	??0?$_Vector_iterator@V?$_Vector_val@HV?$allocator@H@std@@@std@@@std@@QAE@PAHPBU_Container_base0@1@@Z ; std::_Vector_iterator<std::_Vector_val<int,std::allocator<int> > >::_Vector_iterator<std::_Vector_val<int,std::allocator<int> > >
; Function compile flags: /Ogsp
;	COMDAT ??0?$_Vector_iterator@V?$_Vector_val@HV?$allocator@H@std@@@std@@@std@@QAE@PAHPBU_Container_base0@1@@Z
_TEXT	SEGMENT
__Parg$ = 8						; size = 4
__Pvector$ = 12						; size = 4
??0?$_Vector_iterator@V?$_Vector_val@HV?$allocator@H@std@@@std@@@std@@QAE@PAHPBU_Container_base0@1@@Z PROC ; std::_Vector_iterator<std::_Vector_val<int,std::allocator<int> > >::_Vector_iterator<std::_Vector_val<int,std::allocator<int> > >, COMDAT
; _this$ = ecx

; 304  : 		{	// construct with pointer _Parg

  00000	55		 push	 ebp
  00001	8b ec		 mov	 ebp, esp
  00003	8b c1		 mov	 eax, ecx
  00005	8b 4d 08	 mov	 ecx, DWORD PTR __Parg$[ebp]
  00008	89 08		 mov	 DWORD PTR [eax], ecx

; 305  : 		}

  0000a	5d		 pop	 ebp
  0000b	c2 08 00	 ret	 8
??0?$_Vector_iterator@V?$_Vector_val@HV?$allocator@H@std@@@std@@@std@@QAE@PAHPBU_Container_base0@1@@Z ENDP ; std::_Vector_iterator<std::_Vector_val<int,std::allocator<int> > >::_Vector_iterator<std::_Vector_val<int,std::allocator<int> > >
_TEXT	ENDS
PUBLIC	??0?$allocator@H@std@@QAE@ABV01@@Z		; std::allocator<int>::allocator<int>
; Function compile flags: /Ogsp
; File c:\program files (x86)\microsoft visual studio 10.0\vc\include\xmemory
;	COMDAT ??0?$allocator@H@std@@QAE@ABV01@@Z
_TEXT	SEGMENT
___formal$ = 8						; size = 4
??0?$allocator@H@std@@QAE@ABV01@@Z PROC			; std::allocator<int>::allocator<int>, COMDAT
; _this$ = ecx

; 165  : 	_ALLOCATOR(const _ALLOCATOR<_Ty>&) _THROW0()

  00000	8b c1		 mov	 eax, ecx

; 166  : 		{	// construct by copying (do nothing)
; 167  : 		}

  00002	c2 04 00	 ret	 4
??0?$allocator@H@std@@QAE@ABV01@@Z ENDP			; std::allocator<int>::allocator<int>
_TEXT	ENDS
PUBLIC	?deallocate@?$allocator@H@std@@QAEXPAHI@Z	; std::allocator<int>::deallocate
; Function compile flags: /Ogsp
;	COMDAT ?deallocate@?$allocator@H@std@@QAEXPAHI@Z
_TEXT	SEGMENT
__Ptr$ = 8						; size = 4
___formal$ = 12						; size = 4
?deallocate@?$allocator@H@std@@QAEXPAHI@Z PROC		; std::allocator<int>::deallocate, COMDAT
; _this$ = ecx

; 181  : 		{	// deallocate object at _Ptr, ignore size

  00000	55		 push	 ebp
  00001	8b ec		 mov	 ebp, esp

; 182  : 		::operator delete(_Ptr);

  00003	ff 75 08	 push	 DWORD PTR __Ptr$[ebp]
  00006	e8 00 00 00 00	 call	 ??3@YAXPAX@Z		; operator delete
  0000b	59		 pop	 ecx

; 183  : 		}

  0000c	5d		 pop	 ebp
  0000d	c2 08 00	 ret	 8
?deallocate@?$allocator@H@std@@QAEXPAHI@Z ENDP		; std::allocator<int>::deallocate
_TEXT	ENDS
PUBLIC	?capacity@?$vector@HV?$allocator@H@std@@@std@@QBEIXZ ; std::vector<int,std::allocator<int> >::capacity
; Function compile flags: /Ogsp
; File c:\program files (x86)\microsoft visual studio 10.0\vc\include\vector
;	COMDAT ?capacity@?$vector@HV?$allocator@H@std@@@std@@QBEIXZ
_TEXT	SEGMENT
?capacity@?$vector@HV?$allocator@H@std@@@std@@QBEIXZ PROC ; std::vector<int,std::allocator<int> >::capacity, COMDAT
; _this$ = ecx

; 777  : 		return (this->_Myend - this->_Myfirst);

  00000	8b 41 08	 mov	 eax, DWORD PTR [ecx+8]
  00003	2b 01		 sub	 eax, DWORD PTR [ecx]
  00005	c1 f8 02	 sar	 eax, 2

; 778  : 		}

  00008	c3		 ret	 0
?capacity@?$vector@HV?$allocator@H@std@@@std@@QBEIXZ ENDP ; std::vector<int,std::allocator<int> >::capacity
_TEXT	ENDS
PUBLIC	?_Make_iter@?$vector@HV?$allocator@H@std@@@std@@QBE?AV?$_Vector_iterator@V?$_Vector_val@HV?$allocator@H@std@@@std@@@2@V?$_Vector_const_iterator@V?$_Vector_val@HV?$allocator@H@std@@@std@@@2@@Z ; std::vector<int,std::allocator<int> >::_Make_iter
; Function compile flags: /Ogsp
;	COMDAT ?_Make_iter@?$vector@HV?$allocator@H@std@@@std@@QBE?AV?$_Vector_iterator@V?$_Vector_val@HV?$allocator@H@std@@@std@@@2@V?$_Vector_const_iterator@V?$_Vector_val@HV?$allocator@H@std@@@std@@@2@@Z
_TEXT	SEGMENT
___$ReturnUdt$ = 8					; size = 4
__Where$ = 12						; size = 4
?_Make_iter@?$vector@HV?$allocator@H@std@@@std@@QBE?AV?$_Vector_iterator@V?$_Vector_val@HV?$allocator@H@std@@@std@@@2@V?$_Vector_const_iterator@V?$_Vector_val@HV?$allocator@H@std@@@std@@@2@@Z PROC ; std::vector<int,std::allocator<int> >::_Make_iter, COMDAT
; _this$ = ecx

; 801  : 		{	// make iterator from const_iterator

  00000	55		 push	 ebp
  00001	8b ec		 mov	 ebp, esp

; 802  : 		return (iterator(_Where._Ptr, this));

  00003	8b 45 08	 mov	 eax, DWORD PTR ___$ReturnUdt$[ebp]
  00006	8b 4d 0c	 mov	 ecx, DWORD PTR __Where$[ebp]
  00009	89 08		 mov	 DWORD PTR [eax], ecx

; 803  : 		}

  0000b	5d		 pop	 ebp
  0000c	c2 08 00	 ret	 8
?_Make_iter@?$vector@HV?$allocator@H@std@@@std@@QBE?AV?$_Vector_iterator@V?$_Vector_val@HV?$allocator@H@std@@@std@@@2@V?$_Vector_const_iterator@V?$_Vector_val@HV?$allocator@H@std@@@std@@@2@@Z ENDP ; std::vector<int,std::allocator<int> >::_Make_iter
_TEXT	ENDS
PUBLIC	??_C@_0BD@OLBABOEK@vector?$DMT?$DO?5too?5long?$AA@ ; `string'
PUBLIC	?_Xlen@?$vector@HV?$allocator@H@std@@@std@@IBEXXZ ; std::vector<int,std::allocator<int> >::_Xlen
EXTRN	__imp_?_Xlength_error@std@@YAXPBD@Z:PROC
;	COMDAT ??_C@_0BD@OLBABOEK@vector?$DMT?$DO?5too?5long?$AA@
CONST	SEGMENT
??_C@_0BD@OLBABOEK@vector?$DMT?$DO?5too?5long?$AA@ DB 'vector<T> too long'
	DB	00H						; `string'
; Function compile flags: /Ogsp
CONST	ENDS
;	COMDAT ?_Xlen@?$vector@HV?$allocator@H@std@@@std@@IBEXXZ
_TEXT	SEGMENT
?_Xlen@?$vector@HV?$allocator@H@std@@@std@@IBEXXZ PROC	; std::vector<int,std::allocator<int> >::_Xlen, COMDAT
; _this$ = ecx

; 1427 : 		_Xlength_error("vector<T> too long");

  00000	68 00 00 00 00	 push	 OFFSET ??_C@_0BD@OLBABOEK@vector?$DMT?$DO?5too?5long?$AA@
  00005	ff 15 00 00 00
	00		 call	 DWORD PTR __imp_?_Xlength_error@std@@YAXPBD@Z
$LN4@Xlen:
$LN3@Xlen:
  0000b	cc		 int	 3
?_Xlen@?$vector@HV?$allocator@H@std@@@std@@IBEXXZ ENDP	; std::vector<int,std::allocator<int> >::_Xlen
_TEXT	ENDS
PUBLIC	?max_size@?$allocator@H@std@@QBEIXZ		; std::allocator<int>::max_size
; Function compile flags: /Ogsp
; File c:\program files (x86)\microsoft visual studio 10.0\vc\include\xmemory
;	COMDAT ?max_size@?$allocator@H@std@@QBEIXZ
_TEXT	SEGMENT
?max_size@?$allocator@H@std@@QBEIXZ PROC		; std::allocator<int>::max_size, COMDAT
; _this$ = ecx

; 218  : 		_SIZT _Count = (_SIZT)(-1) / sizeof (_Ty);
; 219  : 		return (0 < _Count ? _Count : 1);

  00000	b8 ff ff ff 3f	 mov	 eax, 1073741823		; 3fffffffH

; 220  : 		}

  00005	c3		 ret	 0
?max_size@?$allocator@H@std@@QBEIXZ ENDP		; std::allocator<int>::max_size
_TEXT	ENDS
PUBLIC	?_Compat@?$_Vector_const_iterator@V?$_Vector_val@HV?$allocator@H@std@@@std@@@std@@QBEXABV12@@Z ; std::_Vector_const_iterator<std::_Vector_val<int,std::allocator<int> > >::_Compat
; Function compile flags: /Ogsp
; File c:\program files (x86)\microsoft visual studio 10.0\vc\include\vector
;	COMDAT ?_Compat@?$_Vector_const_iterator@V?$_Vector_val@HV?$allocator@H@std@@@std@@@std@@QBEXABV12@@Z
_TEXT	SEGMENT
___formal$ = 8						; size = 4
?_Compat@?$_Vector_const_iterator@V?$_Vector_val@HV?$allocator@H@std@@@std@@@std@@QBEXABV12@@Z PROC ; std::_Vector_const_iterator<std::_Vector_val<int,std::allocator<int> > >::_Compat, COMDAT
; _this$ = ecx

; 253  : 		}

  00000	c2 04 00	 ret	 4
?_Compat@?$_Vector_const_iterator@V?$_Vector_val@HV?$allocator@H@std@@@std@@@std@@QBEXABV12@@Z ENDP ; std::_Vector_const_iterator<std::_Vector_val<int,std::allocator<int> > >::_Compat
_TEXT	ENDS
PUBLIC	__TI2?AVbad_alloc@std@@
PUBLIC	??$_Allocate@H@std@@YAPAHIPAH@Z			; std::_Allocate<int>
PUBLIC	__CTA2?AVbad_alloc@std@@
PUBLIC	__CT??_R0?AVbad_alloc@std@@@8??0bad_alloc@std@@QAE@ABV01@@Z12
PUBLIC	??0bad_alloc@std@@QAE@ABV01@@Z			; std::bad_alloc::bad_alloc
PUBLIC	__CT??_R0?AVexception@std@@@8??0exception@std@@QAE@ABV01@@Z12
EXTRN	??2@YAPAXI@Z:PROC				; operator new
EXTRN	__CxxThrowException@8:PROC
EXTRN	??0exception@std@@QAE@ABV01@@Z:PROC		; std::exception::exception
;	COMDAT __CT??_R0?AVexception@std@@@8??0exception@std@@QAE@ABV01@@Z12
; File c:\program files (x86)\microsoft visual studio 10.0\vc\include\exception
xdata$x	SEGMENT
__CT??_R0?AVexception@std@@@8??0exception@std@@QAE@ABV01@@Z12 DD 00H
	DD	FLAT:??_R0?AVexception@std@@@8
	DD	00H
	DD	0ffffffffH
	ORG $+4
	DD	0cH
	DD	FLAT:??0exception@std@@QAE@ABV01@@Z
xdata$x	ENDS
;	COMDAT __CT??_R0?AVbad_alloc@std@@@8??0bad_alloc@std@@QAE@ABV01@@Z12
xdata$x	SEGMENT
__CT??_R0?AVbad_alloc@std@@@8??0bad_alloc@std@@QAE@ABV01@@Z12 DD 00H
	DD	FLAT:??_R0?AVbad_alloc@std@@@8
	DD	00H
	DD	0ffffffffH
	ORG $+4
	DD	0cH
	DD	FLAT:??0bad_alloc@std@@QAE@ABV01@@Z
xdata$x	ENDS
;	COMDAT __CTA2?AVbad_alloc@std@@
xdata$x	SEGMENT
__CTA2?AVbad_alloc@std@@ DD 02H
	DD	FLAT:__CT??_R0?AVbad_alloc@std@@@8??0bad_alloc@std@@QAE@ABV01@@Z12
	DD	FLAT:__CT??_R0?AVexception@std@@@8??0exception@std@@QAE@ABV01@@Z12
xdata$x	ENDS
;	COMDAT __TI2?AVbad_alloc@std@@
xdata$x	SEGMENT
__TI2?AVbad_alloc@std@@ DD 00H
	DD	FLAT:??1bad_alloc@std@@UAE@XZ
	DD	00H
	DD	FLAT:__CTA2?AVbad_alloc@std@@
; Function compile flags: /Ogsp
; File c:\program files (x86)\microsoft visual studio 10.0\vc\include\xmemory
xdata$x	ENDS
;	COMDAT ??$_Allocate@H@std@@YAPAHIPAH@Z
_TEXT	SEGMENT
$T506621 = -12						; size = 12
$T506626 = 8						; size = 4
__Count$ = 8						; size = 4
___formal$ = 12						; size = 4
??$_Allocate@H@std@@YAPAHIPAH@Z PROC			; std::_Allocate<int>, COMDAT

; 30   : 	{	// allocate storage for _Count elements of type _Ty

  00000	55		 push	 ebp
  00001	8b ec		 mov	 ebp, esp

; 31   : 	void *_Ptr = 0;
; 32   : 
; 33   : 	if (_Count <= 0)

  00003	8b 4d 08	 mov	 ecx, DWORD PTR __Count$[ebp]
  00006	83 ec 0c	 sub	 esp, 12			; 0000000cH
  00009	33 c0		 xor	 eax, eax
  0000b	85 c9		 test	 ecx, ecx

; 34   : 		_Count = 0;
; 35   : 	else if (((_SIZT)(-1) / sizeof (_Ty) < _Count)

  0000d	74 3e		 je	 SHORT $LN5@Allocate

; 36   : 		|| (_Ptr = ::operator new(_Count * sizeof (_Ty))) == 0)

  0000f	81 f9 ff ff ff
	3f		 cmp	 ecx, 1073741823		; 3fffffffH
  00015	77 10		 ja	 SHORT $LN1@Allocate
  00017	8b c1		 mov	 eax, ecx
  00019	c1 e0 02	 shl	 eax, 2
  0001c	50		 push	 eax
  0001d	e8 00 00 00 00	 call	 ??2@YAPAXI@Z		; operator new
  00022	59		 pop	 ecx
  00023	85 c0		 test	 eax, eax

; 38   : 
; 39   : 	return ((_Ty _FARQ *)_Ptr);

  00025	75 26		 jne	 SHORT $LN5@Allocate
$LN1@Allocate:

; 37   : 		_THROW_NCEE(bad_alloc, 0);

  00027	83 65 08 00	 and	 DWORD PTR $T506626[ebp], 0
  0002b	8d 45 08	 lea	 eax, DWORD PTR $T506626[ebp]
  0002e	50		 push	 eax
  0002f	8d 4d f4	 lea	 ecx, DWORD PTR $T506621[ebp]
  00032	ff 15 00 00 00
	00		 call	 DWORD PTR __imp_??0exception@std@@QAE@ABQBD@Z
  00038	68 00 00 00 00	 push	 OFFSET __TI2?AVbad_alloc@std@@
  0003d	8d 45 f4	 lea	 eax, DWORD PTR $T506621[ebp]
  00040	50		 push	 eax
  00041	c7 45 f4 00 00
	00 00		 mov	 DWORD PTR $T506621[ebp], OFFSET ??_7bad_alloc@std@@6B@
  00048	e8 00 00 00 00	 call	 __CxxThrowException@8
$LN10@Allocate:
$LN5@Allocate:

; 40   : 	}

  0004d	c9		 leave
  0004e	c3		 ret	 0
$LN9@Allocate:
??$_Allocate@H@std@@YAPAHIPAH@Z ENDP			; std::_Allocate<int>
_TEXT	ENDS
EXTRN	__imp_??0exception@std@@QAE@ABV01@@Z:PROC
; Function compile flags: /Ogsp
;	COMDAT ??0bad_alloc@std@@QAE@ABV01@@Z
_TEXT	SEGMENT
___that$ = 8						; size = 4
??0bad_alloc@std@@QAE@ABV01@@Z PROC			; std::bad_alloc::bad_alloc, COMDAT
; _this$ = ecx
  00000	55		 push	 ebp
  00001	8b ec		 mov	 ebp, esp
  00003	56		 push	 esi
  00004	ff 75 08	 push	 DWORD PTR ___that$[ebp]
  00007	8b f1		 mov	 esi, ecx
  00009	ff 15 00 00 00
	00		 call	 DWORD PTR __imp_??0exception@std@@QAE@ABV01@@Z
  0000f	c7 06 00 00 00
	00		 mov	 DWORD PTR [esi], OFFSET ??_7bad_alloc@std@@6B@
  00015	8b c6		 mov	 eax, esi
  00017	5e		 pop	 esi
  00018	5d		 pop	 ebp
  00019	c2 04 00	 ret	 4
??0bad_alloc@std@@QAE@ABV01@@Z ENDP			; std::bad_alloc::bad_alloc
_TEXT	ENDS
PUBLIC	??$_Ptr_cat@HH@std@@YA?AU_Scalar_ptr_iterator_tag@0@PAH0@Z ; std::_Ptr_cat<int,int>
; Function compile flags: /Ogsp
; File c:\program files (x86)\microsoft visual studio 10.0\vc\include\xutility
;	COMDAT ??$_Ptr_cat@HH@std@@YA?AU_Scalar_ptr_iterator_tag@0@PAH0@Z
_TEXT	SEGMENT
__Cat$ = -1						; size = 1
___formal$ = 8						; size = 4
___formal$ = 12						; size = 4
??$_Ptr_cat@HH@std@@YA?AU_Scalar_ptr_iterator_tag@0@PAH0@Z PROC ; std::_Ptr_cat<int,int>, COMDAT

; 516  : 	{	// return pointer category from pointers

  00000	55		 push	 ebp
  00001	8b ec		 mov	 ebp, esp
  00003	51		 push	 ecx

; 517  : 	typename _Ptr_cat_helper<_Elem1, _Elem2>::_Type _Cat;
; 518  : 	return (_Cat);

  00004	8a 45 ff	 mov	 al, BYTE PTR __Cat$[ebp]

; 519  : 	}

  00007	c9		 leave
  00008	c3		 ret	 0
??$_Ptr_cat@HH@std@@YA?AU_Scalar_ptr_iterator_tag@0@PAH0@Z ENDP ; std::_Ptr_cat<int,int>
_TEXT	ENDS
PUBLIC	??$_Move@PAHPAH@std@@YAPAHPAH00U_Scalar_ptr_iterator_tag@0@@Z ; std::_Move<int *,int *>
; Function compile flags: /Ogsp
;	COMDAT ??$_Move@PAHPAH@std@@YAPAHPAH00U_Scalar_ptr_iterator_tag@0@@Z
_TEXT	SEGMENT
__First$ = 8						; size = 4
__Last$ = 12						; size = 4
__Dest$ = 16						; size = 4
___formal$ = 20						; size = 1
??$_Move@PAHPAH@std@@YAPAHPAH00U_Scalar_ptr_iterator_tag@0@@Z PROC ; std::_Move<int *,int *>, COMDAT

; 2522 : 	{	// move [_First, _Last) to [_Dest, ...), pointers to scalars

  00000	55		 push	 ebp
  00001	8b ec		 mov	 ebp, esp
  00003	56		 push	 esi

; 2523 : 	ptrdiff_t _Count = _Last - _First;

  00004	8b 75 0c	 mov	 esi, DWORD PTR __Last$[ebp]
  00007	2b 75 08	 sub	 esi, DWORD PTR __First$[ebp]
  0000a	57		 push	 edi

; 2524 : 	_CSTD memmove(&*_Dest, &*_First,
; 2525 : 		_Count * sizeof (*_First));

  0000b	8b 7d 10	 mov	 edi, DWORD PTR __Dest$[ebp]
  0000e	c1 fe 02	 sar	 esi, 2
  00011	c1 e6 02	 shl	 esi, 2
  00014	56		 push	 esi
  00015	ff 75 08	 push	 DWORD PTR __First$[ebp]
  00018	57		 push	 edi
  00019	ff 15 00 00 00
	00		 call	 DWORD PTR __imp__memmove
  0001f	83 c4 0c	 add	 esp, 12			; 0000000cH

; 2526 : 	return (_Dest + _Count);

  00022	8d 04 3e	 lea	 eax, DWORD PTR [esi+edi]
  00025	5f		 pop	 edi
  00026	5e		 pop	 esi

; 2527 : 	}

  00027	5d		 pop	 ebp
  00028	c3		 ret	 0
??$_Move@PAHPAH@std@@YAPAHPAH00U_Scalar_ptr_iterator_tag@0@@Z ENDP ; std::_Move<int *,int *>
_TEXT	ENDS
PUBLIC	??$_Destroy_range@V?$allocator@H@std@@@std@@YAXPAH0AAV?$allocator@H@0@U_Scalar_ptr_iterator_tag@0@@Z ; std::_Destroy_range<std::allocator<int> >
; Function compile flags: /Ogsp
; File c:\program files (x86)\microsoft visual studio 10.0\vc\include\xmemory
;	COMDAT ??$_Destroy_range@V?$allocator@H@std@@@std@@YAXPAH0AAV?$allocator@H@0@U_Scalar_ptr_iterator_tag@0@@Z
_TEXT	SEGMENT
__First$ = 8						; size = 4
__Last$ = 12						; size = 4
__Al$ = 16						; size = 4
___formal$ = 20						; size = 1
??$_Destroy_range@V?$allocator@H@std@@@std@@YAXPAH0AAV?$allocator@H@0@U_Scalar_ptr_iterator_tag@0@@Z PROC ; std::_Destroy_range<std::allocator<int> >, COMDAT

; 105  : 	}

  00000	c3		 ret	 0
??$_Destroy_range@V?$allocator@H@std@@@std@@YAXPAH0AAV?$allocator@H@0@U_Scalar_ptr_iterator_tag@0@@Z ENDP ; std::_Destroy_range<std::allocator<int> >
_TEXT	ENDS
PUBLIC	??_C@_01JOAMLHOP@?9?$AA@			; `string'
PUBLIC	__real@3f266666
PUBLIC	??_C@_0BN@EFICEEIB@NewShopItemInfoWnd?3?3SetBlank?$AA@ ; `string'
PUBLIC	??_C@_00CNPNBAHC@?$AA@				; `string'
PUBLIC	?SetBlank@NewShopItemInfoWnd@@IAEXXZ		; NewShopItemInfoWnd::SetBlank
EXTRN	?AddTextPiece@ioComplexStringPrinter@@QAAXMPBDZZ:PROC ; ioComplexStringPrinter::AddTextPiece
EXTRN	__imp_?GetString@ioStringManager@@QAEPADPBD0HW4FileNamePrefix@1@@Z:PROC
EXTRN	__imp_?GetSingleton@ioStringManager@@SAAAV1@XZ:PROC
EXTRN	?SetTextColor@ioComplexStringPrinter@@QAEXK@Z:PROC ; ioComplexStringPrinter::SetTextColor
EXTRN	?SetBkColor@ioComplexStringPrinter@@QAEXHHH@Z:PROC ; ioComplexStringPrinter::SetBkColor
EXTRN	?SetTextStyle@ioComplexStringPrinter@@QAEXW4TextStyle@@@Z:PROC ; ioComplexStringPrinter::SetTextStyle
EXTRN	__imp_?HideChildWnd@ioWnd@@QAEXK_N@Z:PROC
EXTRN	__imp_?SetChildInActive@ioWnd@@QAEXK@Z:PROC
EXTRN	__fltused:DWORD
;	COMDAT ??_C@_01JOAMLHOP@?9?$AA@
; File d:\lost saga for developer\youtube\tutorial\source\src\lsclient\gui\newshopiteminfownd.cpp
CONST	SEGMENT
??_C@_01JOAMLHOP@?9?$AA@ DB '-', 00H			; `string'
CONST	ENDS
;	COMDAT __real@3f266666
CONST	SEGMENT
__real@3f266666 DD 03f266666r			; 0.65
CONST	ENDS
;	COMDAT ??_C@_0BN@EFICEEIB@NewShopItemInfoWnd?3?3SetBlank?$AA@
CONST	SEGMENT
??_C@_0BN@EFICEEIB@NewShopItemInfoWnd?3?3SetBlank?$AA@ DB 'NewShopItemInf'
	DB	'oWnd::SetBlank', 00H			; `string'
CONST	ENDS
;	COMDAT ??_C@_00CNPNBAHC@?$AA@
CONST	SEGMENT
??_C@_00CNPNBAHC@?$AA@ DB 00H				; `string'
; Function compile flags: /Ogsp
CONST	ENDS
;	COMDAT ?SetBlank@NewShopItemInfoWnd@@IAEXXZ
_TEXT	SEGMENT
?SetBlank@NewShopItemInfoWnd@@IAEXXZ PROC		; NewShopItemInfoWnd::SetBlank, COMDAT
; _this$ = ecx

; 86   : {

  00000	53		 push	 ebx
  00001	56		 push	 esi
  00002	8b f1		 mov	 esi, ecx

; 87   : 	SetInActive();

  00004	8b 06		 mov	 eax, DWORD PTR [esi]
  00006	57		 push	 edi
  00007	ff 50 24	 call	 DWORD PTR [eax+36]

; 88   : 
; 89   : 	SetChildInActive( ID_ICON_BTN );

  0000a	6a 01		 push	 1
  0000c	8b ce		 mov	 ecx, esi
  0000e	ff 15 00 00 00
	00		 call	 DWORD PTR __imp_?SetChildInActive@ioWnd@@QAEXK@Z

; 90   : 	HideChildWnd( ID_DETAIL_BTN );

  00014	33 ff		 xor	 edi, edi
  00016	57		 push	 edi
  00017	6a 02		 push	 2
  00019	8b ce		 mov	 ecx, esi
  0001b	ff 15 00 00 00
	00		 call	 DWORD PTR __imp_?HideChildWnd@ioWnd@@QAEXK_N@Z

; 91   : 
; 92   : 	ClearDesc();

  00021	8b ce		 mov	 ecx, esi
  00023	e8 00 00 00 00	 call	 ?ClearDesc@NewShopItemInfoWnd@@IAEXXZ ; NewShopItemInfoWnd::ClearDesc

; 93   : 
; 94   : 	m_szDescArray[0].SetTextStyle( TS_NORMAL );

  00028	57		 push	 edi
  00029	8d 8e fc 01 00
	00		 lea	 ecx, DWORD PTR [esi+508]
  0002f	e8 00 00 00 00	 call	 ?SetTextStyle@ioComplexStringPrinter@@QAEXW4TextStyle@@@Z ; ioComplexStringPrinter::SetTextStyle

; 95   : 	m_szDescArray[0].SetBkColor( 0, 0, 0 );	

  00034	57		 push	 edi
  00035	57		 push	 edi
  00036	57		 push	 edi
  00037	8d 8e fc 01 00
	00		 lea	 ecx, DWORD PTR [esi+508]
  0003d	e8 00 00 00 00	 call	 ?SetBkColor@ioComplexStringPrinter@@QAEXHHH@Z ; ioComplexStringPrinter::SetBkColor

; 96   : 	m_szDescArray[0].SetTextColor( TCT_DEFAULT_LIGHTGRAY ); 

  00042	bb a7 a7 a7 ff	 mov	 ebx, -5789785		; ffa7a7a7H
  00047	53		 push	 ebx
  00048	8d 8e fc 01 00
	00		 lea	 ecx, DWORD PTR [esi+508]
  0004e	e8 00 00 00 00	 call	 ?SetTextColor@ioComplexStringPrinter@@QAEXK@Z ; ioComplexStringPrinter::SetTextColor

; 97   : 	m_szDescArray[0].AddTextPiece( FONT_SIZE_13, STR(1) );

  00053	57		 push	 edi
  00054	6a 01		 push	 1
  00056	68 00 00 00 00	 push	 OFFSET ??_C@_00CNPNBAHC@?$AA@
  0005b	68 00 00 00 00	 push	 OFFSET ??_C@_0BN@EFICEEIB@NewShopItemInfoWnd?3?3SetBlank?$AA@
  00060	ff 15 00 00 00
	00		 call	 DWORD PTR __imp_?GetSingleton@ioStringManager@@SAAAV1@XZ
  00066	8b c8		 mov	 ecx, eax
  00068	ff 15 00 00 00
	00		 call	 DWORD PTR __imp_?GetString@ioStringManager@@QAEPADPBD0HW4FileNamePrefix@1@@Z
  0006e	f3 0f 10 05 00
	00 00 00	 movss	 xmm0, DWORD PTR __real@3f266666
  00076	50		 push	 eax
  00077	51		 push	 ecx
  00078	8d 86 fc 01 00
	00		 lea	 eax, DWORD PTR [esi+508]
  0007e	f3 0f 11 04 24	 movss	 DWORD PTR [esp], xmm0
  00083	50		 push	 eax
  00084	e8 00 00 00 00	 call	 ?AddTextPiece@ioComplexStringPrinter@@QAAXMPBDZZ ; ioComplexStringPrinter::AddTextPiece
  00089	83 c4 0c	 add	 esp, 12			; 0000000cH

; 98   : 
; 99   : 	m_szDescArray[1].SetTextStyle( TS_NORMAL );

  0008c	8d 8e 1c 02 00
	00		 lea	 ecx, DWORD PTR [esi+540]
  00092	57		 push	 edi
  00093	e8 00 00 00 00	 call	 ?SetTextStyle@ioComplexStringPrinter@@QAEXW4TextStyle@@@Z ; ioComplexStringPrinter::SetTextStyle

; 100  : 	m_szDescArray[1].SetBkColor( 0, 0, 0);	

  00098	57		 push	 edi
  00099	57		 push	 edi
  0009a	57		 push	 edi
  0009b	8d 8e 1c 02 00
	00		 lea	 ecx, DWORD PTR [esi+540]
  000a1	e8 00 00 00 00	 call	 ?SetBkColor@ioComplexStringPrinter@@QAEXHHH@Z ; ioComplexStringPrinter::SetBkColor

; 101  : 	m_szDescArray[1].SetTextColor( TCT_DEFAULT_LIGHTGRAY ); 

  000a6	53		 push	 ebx
  000a7	8d 9e 1c 02 00
	00		 lea	 ebx, DWORD PTR [esi+540]
  000ad	8b cb		 mov	 ecx, ebx
  000af	e8 00 00 00 00	 call	 ?SetTextColor@ioComplexStringPrinter@@QAEXK@Z ; ioComplexStringPrinter::SetTextColor

; 102  : 	m_szDescArray[1].AddTextPiece( FONT_SIZE_13, "-" );

  000b4	f3 0f 10 05 00
	00 00 00	 movss	 xmm0, DWORD PTR __real@3f266666
  000bc	68 00 00 00 00	 push	 OFFSET ??_C@_01JOAMLHOP@?9?$AA@
  000c1	51		 push	 ecx
  000c2	f3 0f 11 04 24	 movss	 DWORD PTR [esp], xmm0
  000c7	53		 push	 ebx
  000c8	e8 00 00 00 00	 call	 ?AddTextPiece@ioComplexStringPrinter@@QAAXMPBDZZ ; ioComplexStringPrinter::AddTextPiece
  000cd	83 c4 0c	 add	 esp, 12			; 0000000cH

; 103  : 
; 104  : 	m_eLimitRender = LR_DEFULT_LIMIT;
; 105  : 	m_nGradeType = 0;

  000d0	89 be 40 03 00
	00		 mov	 DWORD PTR [esi+832], edi
  000d6	5f		 pop	 edi
  000d7	c7 86 6c 02 00
	00 01 00 00 00	 mov	 DWORD PTR [esi+620], 1
  000e1	5e		 pop	 esi
  000e2	5b		 pop	 ebx

; 106  : }

  000e3	c3		 ret	 0
?SetBlank@NewShopItemInfoWnd@@IAEXXZ ENDP		; NewShopItemInfoWnd::SetBlank
_TEXT	ENDS
PUBLIC	__$ArrayPad$
PUBLIC	??$?8$04@@YA_NABVioHashString@@AAY04$$CBD@Z	; operator==<5>
EXTRN	__imp_?c_str@ioHashString@@QBEPBDXZ:PROC
EXTRN	___security_cookie:DWORD
EXTRN	@__security_check_cookie@4:PROC
; Function compile flags: /Ogsp
; File d:\lost saga for developer\youtube\tutorial\source\src\io3dengine\iohashstring.h
;	COMDAT ??$?8$04@@YA_NABVioHashString@@AAY04$$CBD@Z
_TEXT	SEGMENT
__t$ = -16						; size = 5
__$ArrayPad$ = -4					; size = 4
_lhs$ = 8						; size = 4
_t$ = 12						; size = 4
??$?8$04@@YA_NABVioHashString@@AAY04$$CBD@Z PROC	; operator==<5>, COMDAT

; 146  : {

  00000	55		 push	 ebp
  00001	8b ec		 mov	 ebp, esp
  00003	83 ec 10	 sub	 esp, 16			; 00000010H
  00006	a1 00 00 00 00	 mov	 eax, DWORD PTR ___security_cookie
  0000b	33 c5		 xor	 eax, ebp
  0000d	89 45 fc	 mov	 DWORD PTR __$ArrayPad$[ebp], eax
  00010	8b 45 0c	 mov	 eax, DWORD PTR _t$[ebp]

; 147  : 	_ENCSTR(t, _t); return ( strcmp( lhs.c_str(), _t ) == 0 );

  00013	8a 10		 mov	 dl, BYTE PTR [eax]
  00015	8b 4d 08	 mov	 ecx, DWORD PTR _lhs$[ebp]
  00018	84 d2		 test	 dl, dl
  0001a	0f 84 92 00 00
	00		 je	 $LN96@operator
  00020	80 f2 ed	 xor	 dl, -19			; ffffffedH
  00023	88 55 f0	 mov	 BYTE PTR __t$[ebp], dl
  00026	8a 50 01	 mov	 dl, BYTE PTR [eax+1]
  00029	84 d2		 test	 dl, dl
  0002b	74 7f		 je	 SHORT $LN95@operator
  0002d	80 f2 ec	 xor	 dl, -20			; ffffffecH
  00030	88 55 f1	 mov	 BYTE PTR __t$[ebp+1], dl
  00033	8a 50 02	 mov	 dl, BYTE PTR [eax+2]
  00036	84 d2		 test	 dl, dl
  00038	74 6c		 je	 SHORT $LN94@operator
  0003a	80 f2 eb	 xor	 dl, -21			; ffffffebH
  0003d	88 55 f2	 mov	 BYTE PTR __t$[ebp+2], dl
  00040	8a 50 03	 mov	 dl, BYTE PTR [eax+3]
  00043	84 d2		 test	 dl, dl
  00045	74 59		 je	 SHORT $LN93@operator
  00047	80 f2 ea	 xor	 dl, -22			; ffffffeaH
  0004a	80 78 04 00	 cmp	 BYTE PTR [eax+4], 0
  0004e	88 55 f3	 mov	 BYTE PTR __t$[ebp+3], dl
  00051	74 63		 je	 SHORT $LN1@operator
  00053	8a 50 05	 mov	 dl, BYTE PTR [eax+5]
  00056	84 d2		 test	 dl, dl
  00058	74 40		 je	 SHORT $LN91@operator
  0005a	80 f2 ec	 xor	 dl, -20			; ffffffecH
  0005d	88 55 f5	 mov	 BYTE PTR __t$[ebp+5], dl
  00060	8a 50 06	 mov	 dl, BYTE PTR [eax+6]
  00063	84 d2		 test	 dl, dl
  00065	74 2d		 je	 SHORT $LN90@operator
  00067	80 f2 eb	 xor	 dl, -21			; ffffffebH
  0006a	88 55 f6	 mov	 BYTE PTR __t$[ebp+6], dl
  0006d	8a 50 07	 mov	 dl, BYTE PTR [eax+7]
  00070	84 d2		 test	 dl, dl
  00072	74 1a		 je	 SHORT $LN89@operator
  00074	8a 40 08	 mov	 al, BYTE PTR [eax+8]
  00077	80 f2 ea	 xor	 dl, -22			; ffffffeaH
  0007a	88 55 f7	 mov	 BYTE PTR __t$[ebp+7], dl
  0007d	84 c0		 test	 al, al
  0007f	74 07		 je	 SHORT $LN88@operator
  00081	34 ed		 xor	 al, -19			; ffffffedH
  00083	88 45 f8	 mov	 BYTE PTR __t$[ebp+8], al
  00086	eb 2e		 jmp	 SHORT $LN1@operator
$LN88@operator:
  00088	c6 45 f8 ed	 mov	 BYTE PTR __t$[ebp+8], -19 ; ffffffedH
  0008c	eb 28		 jmp	 SHORT $LN1@operator
$LN89@operator:
  0008e	c6 45 f7 ea	 mov	 BYTE PTR __t$[ebp+7], -22 ; ffffffeaH
  00092	eb 22		 jmp	 SHORT $LN1@operator
$LN90@operator:
  00094	c6 45 f6 eb	 mov	 BYTE PTR __t$[ebp+6], -21 ; ffffffebH
  00098	eb 1c		 jmp	 SHORT $LN1@operator
$LN91@operator:
  0009a	c6 45 f5 ec	 mov	 BYTE PTR __t$[ebp+5], -20 ; ffffffecH
  0009e	eb 16		 jmp	 SHORT $LN1@operator
$LN93@operator:
  000a0	c6 45 f3 ea	 mov	 BYTE PTR __t$[ebp+3], -22 ; ffffffeaH
  000a4	eb 10		 jmp	 SHORT $LN1@operator
$LN94@operator:
  000a6	c6 45 f2 eb	 mov	 BYTE PTR __t$[ebp+2], -21 ; ffffffebH
  000aa	eb 0a		 jmp	 SHORT $LN1@operator
$LN95@operator:
  000ac	c6 45 f1 ec	 mov	 BYTE PTR __t$[ebp+1], -20 ; ffffffecH
  000b0	eb 04		 jmp	 SHORT $LN1@operator
$LN96@operator:
  000b2	c6 45 f0 ed	 mov	 BYTE PTR __t$[ebp], -19	; ffffffedH
$LN1@operator:
  000b6	81 75 f0 ed ec
	eb ea		 xor	 DWORD PTR __t$[ebp], -353637139 ; eaebecedH
  000bd	56		 push	 esi
  000be	c6 45 f4 00	 mov	 BYTE PTR __t$[ebp+4], 0
  000c2	8d 75 f0	 lea	 esi, DWORD PTR __t$[ebp]
  000c5	ff 15 00 00 00
	00		 call	 DWORD PTR __imp_?c_str@ioHashString@@QBEPBDXZ
$LL111@operator:
  000cb	8a 08		 mov	 cl, BYTE PTR [eax]
  000cd	3a 0e		 cmp	 cl, BYTE PTR [esi]
  000cf	75 1a		 jne	 SHORT $LN112@operator
  000d1	84 c9		 test	 cl, cl
  000d3	74 12		 je	 SHORT $LN113@operator
  000d5	8a 48 01	 mov	 cl, BYTE PTR [eax+1]
  000d8	3a 4e 01	 cmp	 cl, BYTE PTR [esi+1]
  000db	75 0e		 jne	 SHORT $LN112@operator
  000dd	83 c0 02	 add	 eax, 2
  000e0	83 c6 02	 add	 esi, 2
  000e3	84 c9		 test	 cl, cl
  000e5	75 e4		 jne	 SHORT $LL111@operator
$LN113@operator:
  000e7	33 c0		 xor	 eax, eax
  000e9	eb 05		 jmp	 SHORT $LN114@operator
$LN112@operator:
  000eb	1b c0		 sbb	 eax, eax
  000ed	83 d8 ff	 sbb	 eax, -1
$LN114@operator:
  000f0	33 c9		 xor	 ecx, ecx
  000f2	85 c0		 test	 eax, eax
  000f4	0f 94 c0	 sete	 al

; 148  : }

  000f7	8b 4d fc	 mov	 ecx, DWORD PTR __$ArrayPad$[ebp]
  000fa	33 cd		 xor	 ecx, ebp
  000fc	5e		 pop	 esi
  000fd	e8 00 00 00 00	 call	 @__security_check_cookie@4
  00102	c9		 leave
  00103	c3		 ret	 0
??$?8$04@@YA_NABVioHashString@@AAY04$$CBD@Z ENDP	; operator==<5>
_TEXT	ENDS
PUBLIC	__$ArrayPad$
PUBLIC	??$?8$09@@YA_NABVioHashString@@AAY09$$CBD@Z	; operator==<10>
; Function compile flags: /Ogsp
;	COMDAT ??$?8$09@@YA_NABVioHashString@@AAY09$$CBD@Z
_TEXT	SEGMENT
__t$ = -20						; size = 10
__$ArrayPad$ = -4					; size = 4
_lhs$ = 8						; size = 4
_t$ = 12						; size = 4
??$?8$09@@YA_NABVioHashString@@AAY09$$CBD@Z PROC	; operator==<10>, COMDAT

; 146  : {

  00000	55		 push	 ebp
  00001	8b ec		 mov	 ebp, esp
  00003	83 ec 14	 sub	 esp, 20			; 00000014H
  00006	a1 00 00 00 00	 mov	 eax, DWORD PTR ___security_cookie
  0000b	33 c5		 xor	 eax, ebp
  0000d	89 45 fc	 mov	 DWORD PTR __$ArrayPad$[ebp], eax
  00010	8b 45 0c	 mov	 eax, DWORD PTR _t$[ebp]

; 147  : 	_ENCSTR(t, _t); return ( strcmp( lhs.c_str(), _t ) == 0 );

  00013	8a 10		 mov	 dl, BYTE PTR [eax]
  00015	8b 4d 08	 mov	 ecx, DWORD PTR _lhs$[ebp]
  00018	84 d2		 test	 dl, dl
  0001a	0f 84 0d 01 00
	00		 je	 $LN96@operator@2
  00020	80 f2 ed	 xor	 dl, -19			; ffffffedH
  00023	88 55 ec	 mov	 BYTE PTR __t$[ebp], dl
  00026	8a 50 01	 mov	 dl, BYTE PTR [eax+1]
  00029	84 d2		 test	 dl, dl
  0002b	0f 84 f6 00 00
	00		 je	 $LN95@operator@2
  00031	80 f2 ec	 xor	 dl, -20			; ffffffecH
  00034	88 55 ed	 mov	 BYTE PTR __t$[ebp+1], dl
  00037	8a 50 02	 mov	 dl, BYTE PTR [eax+2]
  0003a	84 d2		 test	 dl, dl
  0003c	0f 84 df 00 00
	00		 je	 $LN94@operator@2
  00042	80 f2 eb	 xor	 dl, -21			; ffffffebH
  00045	88 55 ee	 mov	 BYTE PTR __t$[ebp+2], dl
  00048	8a 50 03	 mov	 dl, BYTE PTR [eax+3]
  0004b	84 d2		 test	 dl, dl
  0004d	0f 84 c8 00 00
	00		 je	 $LN93@operator@2
  00053	80 f2 ea	 xor	 dl, -22			; ffffffeaH
  00056	88 55 ef	 mov	 BYTE PTR __t$[ebp+3], dl
  00059	8a 50 04	 mov	 dl, BYTE PTR [eax+4]
  0005c	84 d2		 test	 dl, dl
  0005e	0f 84 b1 00 00
	00		 je	 $LN92@operator@2
  00064	80 f2 ed	 xor	 dl, -19			; ffffffedH
  00067	88 55 f0	 mov	 BYTE PTR __t$[ebp+4], dl
  0006a	8a 50 05	 mov	 dl, BYTE PTR [eax+5]
  0006d	84 d2		 test	 dl, dl
  0006f	0f 84 9a 00 00
	00		 je	 $LN91@operator@2
  00075	80 f2 ec	 xor	 dl, -20			; ffffffecH
  00078	88 55 f1	 mov	 BYTE PTR __t$[ebp+5], dl
  0007b	8a 50 06	 mov	 dl, BYTE PTR [eax+6]
  0007e	84 d2		 test	 dl, dl
  00080	0f 84 83 00 00
	00		 je	 $LN90@operator@2
  00086	80 f2 eb	 xor	 dl, -21			; ffffffebH
  00089	88 55 f2	 mov	 BYTE PTR __t$[ebp+6], dl
  0008c	8a 50 07	 mov	 dl, BYTE PTR [eax+7]
  0008f	84 d2		 test	 dl, dl
  00091	74 70		 je	 SHORT $LN89@operator@2
  00093	80 f2 ea	 xor	 dl, -22			; ffffffeaH
  00096	88 55 f3	 mov	 BYTE PTR __t$[ebp+7], dl
  00099	8a 50 08	 mov	 dl, BYTE PTR [eax+8]
  0009c	84 d2		 test	 dl, dl
  0009e	74 5d		 je	 SHORT $LN88@operator@2
  000a0	80 f2 ed	 xor	 dl, -19			; ffffffedH
  000a3	80 78 09 00	 cmp	 BYTE PTR [eax+9], 0
  000a7	88 55 f4	 mov	 BYTE PTR __t$[ebp+8], dl
  000aa	0f 84 81 00 00
	00		 je	 $LN1@operator@2
  000b0	8a 50 0a	 mov	 dl, BYTE PTR [eax+10]
  000b3	84 d2		 test	 dl, dl
  000b5	74 40		 je	 SHORT $LN86@operator@2
  000b7	80 f2 eb	 xor	 dl, -21			; ffffffebH
  000ba	88 55 f6	 mov	 BYTE PTR __t$[ebp+10], dl
  000bd	8a 50 0b	 mov	 dl, BYTE PTR [eax+11]
  000c0	84 d2		 test	 dl, dl
  000c2	74 2d		 je	 SHORT $LN85@operator@2
  000c4	80 f2 ea	 xor	 dl, -22			; ffffffeaH
  000c7	88 55 f7	 mov	 BYTE PTR __t$[ebp+11], dl
  000ca	8a 50 0c	 mov	 dl, BYTE PTR [eax+12]
  000cd	84 d2		 test	 dl, dl
  000cf	74 1a		 je	 SHORT $LN84@operator@2
  000d1	8a 40 0d	 mov	 al, BYTE PTR [eax+13]
  000d4	80 f2 ed	 xor	 dl, -19			; ffffffedH
  000d7	88 55 f8	 mov	 BYTE PTR __t$[ebp+12], dl
  000da	84 c0		 test	 al, al
  000dc	74 07		 je	 SHORT $LN83@operator@2
  000de	34 ec		 xor	 al, -20			; ffffffecH
  000e0	88 45 f9	 mov	 BYTE PTR __t$[ebp+13], al
  000e3	eb 4c		 jmp	 SHORT $LN1@operator@2
$LN83@operator@2:
  000e5	c6 45 f9 ec	 mov	 BYTE PTR __t$[ebp+13], -20 ; ffffffecH
  000e9	eb 46		 jmp	 SHORT $LN1@operator@2
$LN84@operator@2:
  000eb	c6 45 f8 ed	 mov	 BYTE PTR __t$[ebp+12], -19 ; ffffffedH
  000ef	eb 40		 jmp	 SHORT $LN1@operator@2
$LN85@operator@2:
  000f1	c6 45 f7 ea	 mov	 BYTE PTR __t$[ebp+11], -22 ; ffffffeaH
  000f5	eb 3a		 jmp	 SHORT $LN1@operator@2
$LN86@operator@2:
  000f7	c6 45 f6 eb	 mov	 BYTE PTR __t$[ebp+10], -21 ; ffffffebH
  000fb	eb 34		 jmp	 SHORT $LN1@operator@2
$LN88@operator@2:
  000fd	c6 45 f4 ed	 mov	 BYTE PTR __t$[ebp+8], -19 ; ffffffedH
  00101	eb 2e		 jmp	 SHORT $LN1@operator@2
$LN89@operator@2:
  00103	c6 45 f3 ea	 mov	 BYTE PTR __t$[ebp+7], -22 ; ffffffeaH
  00107	eb 28		 jmp	 SHORT $LN1@operator@2
$LN90@operator@2:
  00109	c6 45 f2 eb	 mov	 BYTE PTR __t$[ebp+6], -21 ; ffffffebH
  0010d	eb 22		 jmp	 SHORT $LN1@operator@2
$LN91@operator@2:
  0010f	c6 45 f1 ec	 mov	 BYTE PTR __t$[ebp+5], -20 ; ffffffecH
  00113	eb 1c		 jmp	 SHORT $LN1@operator@2
$LN92@operator@2:
  00115	c6 45 f0 ed	 mov	 BYTE PTR __t$[ebp+4], -19 ; ffffffedH
  00119	eb 16		 jmp	 SHORT $LN1@operator@2
$LN93@operator@2:
  0011b	c6 45 ef ea	 mov	 BYTE PTR __t$[ebp+3], -22 ; ffffffeaH
  0011f	eb 10		 jmp	 SHORT $LN1@operator@2
$LN94@operator@2:
  00121	c6 45 ee eb	 mov	 BYTE PTR __t$[ebp+2], -21 ; ffffffebH
  00125	eb 0a		 jmp	 SHORT $LN1@operator@2
$LN95@operator@2:
  00127	c6 45 ed ec	 mov	 BYTE PTR __t$[ebp+1], -20 ; ffffffecH
  0012b	eb 04		 jmp	 SHORT $LN1@operator@2
$LN96@operator@2:
  0012d	c6 45 ec ed	 mov	 BYTE PTR __t$[ebp], -19	; ffffffedH
$LN1@operator@2:
  00131	6a 02		 push	 2
  00133	8d 45 ec	 lea	 eax, DWORD PTR __t$[ebp]
  00136	c6 45 f5 00	 mov	 BYTE PTR __t$[ebp+9], 0
  0013a	5a		 pop	 edx
$LL104@operator@2:
  0013b	81 30 ed ec eb
	ea		 xor	 DWORD PTR [eax], -353637139 ; eaebecedH
  00141	83 c0 04	 add	 eax, 4
  00144	4a		 dec	 edx
  00145	75 f4		 jne	 SHORT $LL104@operator@2
  00147	80 75 f4 ed	 xor	 BYTE PTR __t$[ebp+8], -19 ; ffffffedH
  0014b	56		 push	 esi
  0014c	8d 75 ec	 lea	 esi, DWORD PTR __t$[ebp]
  0014f	ff 15 00 00 00
	00		 call	 DWORD PTR __imp_?c_str@ioHashString@@QBEPBDXZ
$LL111@operator@2:
  00155	8a 08		 mov	 cl, BYTE PTR [eax]
  00157	3a 0e		 cmp	 cl, BYTE PTR [esi]
  00159	75 1a		 jne	 SHORT $LN112@operator@2
  0015b	84 c9		 test	 cl, cl
  0015d	74 12		 je	 SHORT $LN113@operator@2
  0015f	8a 48 01	 mov	 cl, BYTE PTR [eax+1]
  00162	3a 4e 01	 cmp	 cl, BYTE PTR [esi+1]
  00165	75 0e		 jne	 SHORT $LN112@operator@2
  00167	83 c0 02	 add	 eax, 2
  0016a	83 c6 02	 add	 esi, 2
  0016d	84 c9		 test	 cl, cl
  0016f	75 e4		 jne	 SHORT $LL111@operator@2
$LN113@operator@2:
  00171	33 c0		 xor	 eax, eax
  00173	eb 05		 jmp	 SHORT $LN114@operator@2
$LN112@operator@2:
  00175	1b c0		 sbb	 eax, eax
  00177	83 d8 ff	 sbb	 eax, -1
$LN114@operator@2:
  0017a	33 c9		 xor	 ecx, ecx
  0017c	85 c0		 test	 eax, eax
  0017e	0f 94 c0	 sete	 al

; 148  : }

  00181	8b 4d fc	 mov	 ecx, DWORD PTR __$ArrayPad$[ebp]
  00184	33 cd		 xor	 ecx, ebp
  00186	5e		 pop	 esi
  00187	e8 00 00 00 00	 call	 @__security_check_cookie@4
  0018c	c9		 leave
  0018d	c3		 ret	 0
??$?8$09@@YA_NABVioHashString@@AAY09$$CBD@Z ENDP	; operator==<10>
_TEXT	ENDS
PUBLIC	__$ArrayPad$
PUBLIC	??$?8$08@@YA_NABVioHashString@@AAY08$$CBD@Z	; operator==<9>
; Function compile flags: /Ogsp
;	COMDAT ??$?8$08@@YA_NABVioHashString@@AAY08$$CBD@Z
_TEXT	SEGMENT
__t$ = -20						; size = 9
__$ArrayPad$ = -4					; size = 4
_lhs$ = 8						; size = 4
_t$ = 12						; size = 4
??$?8$08@@YA_NABVioHashString@@AAY08$$CBD@Z PROC	; operator==<9>, COMDAT

; 146  : {

  00000	55		 push	 ebp
  00001	8b ec		 mov	 ebp, esp
  00003	83 ec 14	 sub	 esp, 20			; 00000014H
  00006	a1 00 00 00 00	 mov	 eax, DWORD PTR ___security_cookie
  0000b	33 c5		 xor	 eax, ebp
  0000d	89 45 fc	 mov	 DWORD PTR __$ArrayPad$[ebp], eax
  00010	8b 45 0c	 mov	 eax, DWORD PTR _t$[ebp]

; 147  : 	_ENCSTR(t, _t); return ( strcmp( lhs.c_str(), _t ) == 0 );

  00013	8a 10		 mov	 dl, BYTE PTR [eax]
  00015	8b 4d 08	 mov	 ecx, DWORD PTR _lhs$[ebp]
  00018	84 d2		 test	 dl, dl
  0001a	0f 84 ee 00 00
	00		 je	 $LN96@operator@3
  00020	80 f2 ed	 xor	 dl, -19			; ffffffedH
  00023	88 55 ec	 mov	 BYTE PTR __t$[ebp], dl
  00026	8a 50 01	 mov	 dl, BYTE PTR [eax+1]
  00029	84 d2		 test	 dl, dl
  0002b	0f 84 d7 00 00
	00		 je	 $LN95@operator@3
  00031	80 f2 ec	 xor	 dl, -20			; ffffffecH
  00034	88 55 ed	 mov	 BYTE PTR __t$[ebp+1], dl
  00037	8a 50 02	 mov	 dl, BYTE PTR [eax+2]
  0003a	84 d2		 test	 dl, dl
  0003c	0f 84 c0 00 00
	00		 je	 $LN94@operator@3
  00042	80 f2 eb	 xor	 dl, -21			; ffffffebH
  00045	88 55 ee	 mov	 BYTE PTR __t$[ebp+2], dl
  00048	8a 50 03	 mov	 dl, BYTE PTR [eax+3]
  0004b	84 d2		 test	 dl, dl
  0004d	0f 84 a9 00 00
	00		 je	 $LN93@operator@3
  00053	80 f2 ea	 xor	 dl, -22			; ffffffeaH
  00056	88 55 ef	 mov	 BYTE PTR __t$[ebp+3], dl
  00059	8a 50 04	 mov	 dl, BYTE PTR [eax+4]
  0005c	84 d2		 test	 dl, dl
  0005e	0f 84 92 00 00
	00		 je	 $LN92@operator@3
  00064	80 f2 ed	 xor	 dl, -19			; ffffffedH
  00067	88 55 f0	 mov	 BYTE PTR __t$[ebp+4], dl
  0006a	8a 50 05	 mov	 dl, BYTE PTR [eax+5]
  0006d	84 d2		 test	 dl, dl
  0006f	74 7f		 je	 SHORT $LN91@operator@3
  00071	80 f2 ec	 xor	 dl, -20			; ffffffecH
  00074	88 55 f1	 mov	 BYTE PTR __t$[ebp+5], dl
  00077	8a 50 06	 mov	 dl, BYTE PTR [eax+6]
  0007a	84 d2		 test	 dl, dl
  0007c	74 6c		 je	 SHORT $LN90@operator@3
  0007e	80 f2 eb	 xor	 dl, -21			; ffffffebH
  00081	88 55 f2	 mov	 BYTE PTR __t$[ebp+6], dl
  00084	8a 50 07	 mov	 dl, BYTE PTR [eax+7]
  00087	84 d2		 test	 dl, dl
  00089	74 59		 je	 SHORT $LN89@operator@3
  0008b	80 f2 ea	 xor	 dl, -22			; ffffffeaH
  0008e	80 78 08 00	 cmp	 BYTE PTR [eax+8], 0
  00092	88 55 f3	 mov	 BYTE PTR __t$[ebp+7], dl
  00095	74 7b		 je	 SHORT $LN1@operator@3
  00097	8a 50 09	 mov	 dl, BYTE PTR [eax+9]
  0009a	84 d2		 test	 dl, dl
  0009c	74 40		 je	 SHORT $LN87@operator@3
  0009e	80 f2 ec	 xor	 dl, -20			; ffffffecH
  000a1	88 55 f5	 mov	 BYTE PTR __t$[ebp+9], dl
  000a4	8a 50 0a	 mov	 dl, BYTE PTR [eax+10]
  000a7	84 d2		 test	 dl, dl
  000a9	74 2d		 je	 SHORT $LN86@operator@3
  000ab	80 f2 eb	 xor	 dl, -21			; ffffffebH
  000ae	88 55 f6	 mov	 BYTE PTR __t$[ebp+10], dl
  000b1	8a 50 0b	 mov	 dl, BYTE PTR [eax+11]
  000b4	84 d2		 test	 dl, dl
  000b6	74 1a		 je	 SHORT $LN85@operator@3
  000b8	8a 40 0c	 mov	 al, BYTE PTR [eax+12]
  000bb	80 f2 ea	 xor	 dl, -22			; ffffffeaH
  000be	88 55 f7	 mov	 BYTE PTR __t$[ebp+11], dl
  000c1	84 c0		 test	 al, al
  000c3	74 07		 je	 SHORT $LN84@operator@3
  000c5	34 ed		 xor	 al, -19			; ffffffedH
  000c7	88 45 f8	 mov	 BYTE PTR __t$[ebp+12], al
  000ca	eb 46		 jmp	 SHORT $LN1@operator@3
$LN84@operator@3:
  000cc	c6 45 f8 ed	 mov	 BYTE PTR __t$[ebp+12], -19 ; ffffffedH
  000d0	eb 40		 jmp	 SHORT $LN1@operator@3
$LN85@operator@3:
  000d2	c6 45 f7 ea	 mov	 BYTE PTR __t$[ebp+11], -22 ; ffffffeaH
  000d6	eb 3a		 jmp	 SHORT $LN1@operator@3
$LN86@operator@3:
  000d8	c6 45 f6 eb	 mov	 BYTE PTR __t$[ebp+10], -21 ; ffffffebH
  000dc	eb 34		 jmp	 SHORT $LN1@operator@3
$LN87@operator@3:
  000de	c6 45 f5 ec	 mov	 BYTE PTR __t$[ebp+9], -20 ; ffffffecH
  000e2	eb 2e		 jmp	 SHORT $LN1@operator@3
$LN89@operator@3:
  000e4	c6 45 f3 ea	 mov	 BYTE PTR __t$[ebp+7], -22 ; ffffffeaH
  000e8	eb 28		 jmp	 SHORT $LN1@operator@3
$LN90@operator@3:
  000ea	c6 45 f2 eb	 mov	 BYTE PTR __t$[ebp+6], -21 ; ffffffebH
  000ee	eb 22		 jmp	 SHORT $LN1@operator@3
$LN91@operator@3:
  000f0	c6 45 f1 ec	 mov	 BYTE PTR __t$[ebp+5], -20 ; ffffffecH
  000f4	eb 1c		 jmp	 SHORT $LN1@operator@3
$LN92@operator@3:
  000f6	c6 45 f0 ed	 mov	 BYTE PTR __t$[ebp+4], -19 ; ffffffedH
  000fa	eb 16		 jmp	 SHORT $LN1@operator@3
$LN93@operator@3:
  000fc	c6 45 ef ea	 mov	 BYTE PTR __t$[ebp+3], -22 ; ffffffeaH
  00100	eb 10		 jmp	 SHORT $LN1@operator@3
$LN94@operator@3:
  00102	c6 45 ee eb	 mov	 BYTE PTR __t$[ebp+2], -21 ; ffffffebH
  00106	eb 0a		 jmp	 SHORT $LN1@operator@3
$LN95@operator@3:
  00108	c6 45 ed ec	 mov	 BYTE PTR __t$[ebp+1], -20 ; ffffffecH
  0010c	eb 04		 jmp	 SHORT $LN1@operator@3
$LN96@operator@3:
  0010e	c6 45 ec ed	 mov	 BYTE PTR __t$[ebp], -19	; ffffffedH
$LN1@operator@3:
  00112	6a 02		 push	 2
  00114	8d 45 ec	 lea	 eax, DWORD PTR __t$[ebp]
  00117	c6 45 f4 00	 mov	 BYTE PTR __t$[ebp+8], 0
  0011b	5a		 pop	 edx
$LL104@operator@3:
  0011c	81 30 ed ec eb
	ea		 xor	 DWORD PTR [eax], -353637139 ; eaebecedH
  00122	83 c0 04	 add	 eax, 4
  00125	4a		 dec	 edx
  00126	75 f4		 jne	 SHORT $LL104@operator@3
  00128	56		 push	 esi
  00129	8d 75 ec	 lea	 esi, DWORD PTR __t$[ebp]
  0012c	ff 15 00 00 00
	00		 call	 DWORD PTR __imp_?c_str@ioHashString@@QBEPBDXZ
$LL111@operator@3:
  00132	8a 08		 mov	 cl, BYTE PTR [eax]
  00134	3a 0e		 cmp	 cl, BYTE PTR [esi]
  00136	75 1a		 jne	 SHORT $LN112@operator@3
  00138	84 c9		 test	 cl, cl
  0013a	74 12		 je	 SHORT $LN113@operator@3
  0013c	8a 48 01	 mov	 cl, BYTE PTR [eax+1]
  0013f	3a 4e 01	 cmp	 cl, BYTE PTR [esi+1]
  00142	75 0e		 jne	 SHORT $LN112@operator@3
  00144	83 c0 02	 add	 eax, 2
  00147	83 c6 02	 add	 esi, 2
  0014a	84 c9		 test	 cl, cl
  0014c	75 e4		 jne	 SHORT $LL111@operator@3
$LN113@operator@3:
  0014e	33 c0		 xor	 eax, eax
  00150	eb 05		 jmp	 SHORT $LN114@operator@3
$LN112@operator@3:
  00152	1b c0		 sbb	 eax, eax
  00154	83 d8 ff	 sbb	 eax, -1
$LN114@operator@3:
  00157	33 c9		 xor	 ecx, ecx
  00159	85 c0		 test	 eax, eax
  0015b	0f 94 c0	 sete	 al

; 148  : }

  0015e	8b 4d fc	 mov	 ecx, DWORD PTR __$ArrayPad$[ebp]
  00161	33 cd		 xor	 ecx, ebp
  00163	5e		 pop	 esi
  00164	e8 00 00 00 00	 call	 @__security_check_cookie@4
  00169	c9		 leave
  0016a	c3		 ret	 0
??$?8$08@@YA_NABVioHashString@@AAY08$$CBD@Z ENDP	; operator==<9>
_TEXT	ENDS
PUBLIC	??$_Copy_impl@PAHPAH@std@@YAPAHPAH00@Z		; std::_Copy_impl<int *,int *>
; Function compile flags: /Ogsp
; File c:\program files (x86)\microsoft visual studio 10.0\vc\include\xutility
;	COMDAT ??$_Copy_impl@PAHPAH@std@@YAPAHPAH00@Z
_TEXT	SEGMENT
__Cat$506727 = -4					; size = 1
__First$ = 8						; size = 4
__Last$ = 12						; size = 4
__Dest$ = 16						; size = 4
??$_Copy_impl@PAHPAH@std@@YAPAHPAH00@Z PROC		; std::_Copy_impl<int *,int *>, COMDAT

; 2163 : 	{	// copy [_First, _Last) to [_Dest, ...)

  00000	55		 push	 ebp
  00001	8b ec		 mov	 ebp, esp
  00003	51		 push	 ecx

; 2164 : 	return (_Copy_impl(_First, _Last,
; 2165 : 		_Dest, _Ptr_cat(_First, _Dest)));

  00004	ff 75 fc	 push	 DWORD PTR __Cat$506727[ebp]
  00007	ff 75 10	 push	 DWORD PTR __Dest$[ebp]
  0000a	ff 75 0c	 push	 DWORD PTR __Last$[ebp]
  0000d	ff 75 08	 push	 DWORD PTR __First$[ebp]
  00010	e8 00 00 00 00	 call	 ??$_Copy_impl@PAHPAH@std@@YAPAHPAH00U_Scalar_ptr_iterator_tag@0@@Z ; std::_Copy_impl<int *,int *>
  00015	83 c4 10	 add	 esp, 16			; 00000010H

; 2166 : 	}

  00018	c9		 leave
  00019	c3		 ret	 0
??$_Copy_impl@PAHPAH@std@@YAPAHPAH00@Z ENDP		; std::_Copy_impl<int *,int *>
_TEXT	ENDS
PUBLIC	??$_Uninitialized_copy@PAHPAHV?$allocator@H@std@@@std@@YAPAHPAH00AAV?$allocator@H@0@@Z ; std::_Uninitialized_copy<int *,int *,std::allocator<int> >
; Function compile flags: /Ogsp
; File c:\program files (x86)\microsoft visual studio 10.0\vc\include\memory
;	COMDAT ??$_Uninitialized_copy@PAHPAHV?$allocator@H@std@@@std@@YAPAHPAH00AAV?$allocator@H@0@@Z
_TEXT	SEGMENT
__Cat$506734 = -4					; size = 1
__First$ = 8						; size = 4
__Last$ = 12						; size = 4
__Dest$ = 16						; size = 4
__Al$ = 20						; size = 4
??$_Uninitialized_copy@PAHPAHV?$allocator@H@std@@@std@@YAPAHPAH00AAV?$allocator@H@0@@Z PROC ; std::_Uninitialized_copy<int *,int *,std::allocator<int> >, COMDAT

; 412  : 	{	// copy [_First, _Last) to raw _Dest, using _Al

  00000	55		 push	 ebp
  00001	8b ec		 mov	 ebp, esp
  00003	51		 push	 ecx

; 413  : 	return (_Uninit_copy(_First, _Last, _Dest, _Al,
; 414  : 		_Ptr_cat(_First, _Dest)));

  00004	ff 75 fc	 push	 DWORD PTR __Cat$506734[ebp]
  00007	ff 75 14	 push	 DWORD PTR __Al$[ebp]
  0000a	ff 75 10	 push	 DWORD PTR __Dest$[ebp]
  0000d	ff 75 0c	 push	 DWORD PTR __Last$[ebp]
  00010	ff 75 08	 push	 DWORD PTR __First$[ebp]
  00013	e8 00 00 00 00	 call	 ??$_Uninit_copy@HH@std@@YAPAHPAH00AAV?$allocator@H@0@U_Scalar_ptr_iterator_tag@0@@Z ; std::_Uninit_copy<int,int>
  00018	83 c4 14	 add	 esp, 20			; 00000014H

; 415  : 	}

  0001b	c9		 leave
  0001c	c3		 ret	 0
??$_Uninitialized_copy@PAHPAHV?$allocator@H@std@@@std@@YAPAHPAH00AAV?$allocator@H@0@@Z ENDP ; std::_Uninitialized_copy<int *,int *,std::allocator<int> >
_TEXT	ENDS
PUBLIC	?StringCbCopyA@@YGJPADIPBD@Z			; StringCbCopyA
; Function compile flags: /Ogsp
; File c:\program files (x86)\microsoft sdks\windows\v7.0a\include\strsafe.h
;	COMDAT ?StringCbCopyA@@YGJPADIPBD@Z
_TEXT	SEGMENT
_pszDest$ = 8						; size = 4
_cbDest$ = 12						; size = 4
_pszSrc$ = 16						; size = 4
?StringCbCopyA@@YGJPADIPBD@Z PROC			; StringCbCopyA, COMDAT

; 582  : {

  00000	55		 push	 ebp
  00001	8b ec		 mov	 ebp, esp

; 583  :     HRESULT hr;
; 584  :     size_t cchDest = cbDest / sizeof(char);
; 585  : 
; 586  :     hr = StringValidateDestA(pszDest, cchDest, STRSAFE_MAX_CCH);

  00003	33 c0		 xor	 eax, eax
  00005	39 45 0c	 cmp	 DWORD PTR _cbDest$[ebp], eax
  00008	74 09		 je	 SHORT $LN4@StringCbCo
  0000a	81 7d 0c ff ff
	ff 7f		 cmp	 DWORD PTR _cbDest$[ebp], 2147483647 ; 7fffffffH
  00011	76 05		 jbe	 SHORT $LN5@StringCbCo
$LN4@StringCbCo:
  00013	b8 57 00 07 80	 mov	 eax, -2147024809	; 80070057H
$LN5@StringCbCo:

; 587  : 
; 588  :     if (SUCCEEDED(hr))

  00018	85 c0		 test	 eax, eax
  0001a	78 15		 js	 SHORT $LN1@StringCbCo

; 589  :     {
; 590  :         hr = StringCopyWorkerA(pszDest,
; 591  :                                cchDest,
; 592  :                                NULL,
; 593  :                                pszSrc,
; 594  :                                STRSAFE_MAX_LENGTH);

  0001c	8b 45 0c	 mov	 eax, DWORD PTR _cbDest$[ebp]
  0001f	8b 4d 08	 mov	 ecx, DWORD PTR _pszDest$[ebp]
  00022	68 fe ff ff 7f	 push	 2147483646		; 7ffffffeH
  00027	ff 75 10	 push	 DWORD PTR _pszSrc$[ebp]
  0002a	6a 00		 push	 0
  0002c	e8 00 00 00 00	 call	 ?StringCopyWorkerA@@YGJPADIPAIPBDI@Z ; StringCopyWorkerA
$LN1@StringCbCo:

; 595  :     }
; 596  : 
; 597  :     return hr;
; 598  : }

  00031	5d		 pop	 ebp
  00032	c2 0c 00	 ret	 12			; 0000000cH
?StringCbCopyA@@YGJPADIPBD@Z ENDP			; StringCbCopyA
_TEXT	ENDS
PUBLIC	?StringCbCatA@@YGJPADIPBD@Z			; StringCbCatA
; Function compile flags: /Ogsp
;	COMDAT ?StringCbCatA@@YGJPADIPBD@Z
_TEXT	SEGMENT
_pszDest$ = 8						; size = 4
_cbDest$ = 12						; size = 4
_pszSrc$ = 16						; size = 4
?StringCbCatA@@YGJPADIPBD@Z PROC			; StringCbCatA, COMDAT

; 2449 : {

  00000	55		 push	 ebp
  00001	8b ec		 mov	 ebp, esp
  00003	53		 push	 ebx
  00004	56		 push	 esi

; 2450 :     HRESULT hr;
; 2451 :     size_t cchDestLength;
; 2452 :     size_t cchDest = cbDest / sizeof(char);
; 2453 : 
; 2454 :     hr = StringValidateDestAndLengthA(pszDest,
; 2455 :                                       cchDest,
; 2456 :                                       &cchDestLength,
; 2457 :                                       STRSAFE_MAX_CCH);

  00005	8b 75 0c	 mov	 esi, DWORD PTR _cbDest$[ebp]
  00008	33 c9		 xor	 ecx, ecx
  0000a	57		 push	 edi
  0000b	bb ff ff ff 7f	 mov	 ebx, 2147483647		; 7fffffffH
  00010	85 f6		 test	 esi, esi
  00012	74 04		 je	 SHORT $LN8@StringCbCa
  00014	3b f3		 cmp	 esi, ebx
  00016	76 05		 jbe	 SHORT $LN9@StringCbCa
$LN8@StringCbCa:
  00018	b9 57 00 07 80	 mov	 ecx, -2147024809	; 80070057H
$LN9@StringCbCa:
  0001d	8b 7d 08	 mov	 edi, DWORD PTR _pszDest$[ebp]
  00020	8b c1		 mov	 eax, ecx
  00022	85 c9		 test	 ecx, ecx
  00024	78 1b		 js	 SHORT $LN5@StringCbCa
  00026	33 c0		 xor	 eax, eax
  00028	8b d6		 mov	 edx, esi
  0002a	8b cf		 mov	 ecx, edi
  0002c	85 f6		 test	 esi, esi
  0002e	74 0c		 je	 SHORT $LN24@StringCbCa
$LL17@StringCbCa:
  00030	38 01		 cmp	 BYTE PTR [ecx], al
  00032	74 04		 je	 SHORT $LN16@StringCbCa
  00034	41		 inc	 ecx
  00035	4a		 dec	 edx
  00036	75 f8		 jne	 SHORT $LL17@StringCbCa
$LN16@StringCbCa:
  00038	85 d2		 test	 edx, edx
  0003a	75 23		 jne	 SHORT $LN23@StringCbCa
$LN24@StringCbCa:
  0003c	b8 57 00 07 80	 mov	 eax, -2147024809	; 80070057H
$LN5@StringCbCa:
  00041	33 c9		 xor	 ecx, ecx
$LN4@StringCbCa:

; 2458 :     
; 2459 :     if (SUCCEEDED(hr))

  00043	85 c0		 test	 eax, eax
  00045	78 11		 js	 SHORT $LN1@StringCbCa

; 2460 :     {
; 2461 :         hr = StringCopyWorkerA(pszDest + cchDestLength,
; 2462 :                                cchDest - cchDestLength,
; 2463 :                                NULL,
; 2464 :                                pszSrc,
; 2465 :                                STRSAFE_MAX_CCH);

  00047	53		 push	 ebx
  00048	ff 75 10	 push	 DWORD PTR _pszSrc$[ebp]
  0004b	8b c6		 mov	 eax, esi
  0004d	2b c1		 sub	 eax, ecx
  0004f	6a 00		 push	 0
  00051	03 cf		 add	 ecx, edi
  00053	e8 00 00 00 00	 call	 ?StringCopyWorkerA@@YGJPADIPAIPBDI@Z ; StringCopyWorkerA
$LN1@StringCbCa:
  00058	5f		 pop	 edi
  00059	5e		 pop	 esi
  0005a	5b		 pop	 ebx

; 2466 :     }
; 2467 : 
; 2468 :     return hr;
; 2469 : }

  0005b	5d		 pop	 ebp
  0005c	c2 0c 00	 ret	 12			; 0000000cH
$LN23@StringCbCa:

; 2450 :     HRESULT hr;
; 2451 :     size_t cchDestLength;
; 2452 :     size_t cchDest = cbDest / sizeof(char);
; 2453 : 
; 2454 :     hr = StringValidateDestAndLengthA(pszDest,
; 2455 :                                       cchDest,
; 2456 :                                       &cchDestLength,
; 2457 :                                       STRSAFE_MAX_CCH);

  0005f	8b ce		 mov	 ecx, esi
  00061	2b ca		 sub	 ecx, edx
  00063	eb de		 jmp	 SHORT $LN4@StringCbCa
?StringCbCatA@@YGJPADIPBD@Z ENDP			; StringCbCatA
_TEXT	ENDS
PUBLIC	?IsEmpty@ioComplexStringPrinter@@QBE_NXZ	; ioComplexStringPrinter::IsEmpty
; Function compile flags: /Ogsp
; File d:\lost saga for developer\youtube\tutorial\source\src\lsclient\iocomplexstringprinter.h
;	COMDAT ?IsEmpty@ioComplexStringPrinter@@QBE_NXZ
_TEXT	SEGMENT
?IsEmpty@ioComplexStringPrinter@@QBE_NXZ PROC		; ioComplexStringPrinter::IsEmpty, COMDAT
; _this$ = ecx

; 124  : 	inline bool IsEmpty() const { return m_vPieceList.empty(); }

  00000	8b 41 0c	 mov	 eax, DWORD PTR [ecx+12]
  00003	2b 41 10	 sub	 eax, DWORD PTR [ecx+16]
  00006	f7 d8		 neg	 eax
  00008	1b c0		 sbb	 eax, eax
  0000a	40		 inc	 eax
  0000b	c3		 ret	 0
?IsEmpty@ioComplexStringPrinter@@QBE_NXZ ENDP		; ioComplexStringPrinter::IsEmpty
_TEXT	ENDS
PUBLIC	?GetPeso@tagNewShopItemInfo@@QBEHH@Z		; tagNewShopItemInfo::GetPeso
; Function compile flags: /Ogsp
; File d:\lost saga for developer\youtube\tutorial\source\src\lsclient\gui\newshopdatadefine.h
;	COMDAT ?GetPeso@tagNewShopItemInfo@@QBEHH@Z
_TEXT	SEGMENT
_iArray$ = 8						; size = 4
?GetPeso@tagNewShopItemInfo@@QBEHH@Z PROC		; tagNewShopItemInfo::GetPeso, COMDAT
; _this$ = ecx

; 113  : 	{

  00000	55		 push	 ebp
  00001	8b ec		 mov	 ebp, esp

; 114  : 		if( COMPARE( iArray, 0, (int) m_vPeso.size() ) )

  00003	8b 45 08	 mov	 eax, DWORD PTR _iArray$[ebp]
  00006	85 c0		 test	 eax, eax
  00008	78 15		 js	 SHORT $LN1@GetPeso
  0000a	8b 51 14	 mov	 edx, DWORD PTR [ecx+20]
  0000d	2b 51 10	 sub	 edx, DWORD PTR [ecx+16]
  00010	c1 fa 02	 sar	 edx, 2
  00013	3b c2		 cmp	 eax, edx
  00015	7d 08		 jge	 SHORT $LN1@GetPeso

; 115  : 			return m_vPeso[iArray];

  00017	8b 49 10	 mov	 ecx, DWORD PTR [ecx+16]
  0001a	8b 04 81	 mov	 eax, DWORD PTR [ecx+eax*4]
  0001d	eb 02		 jmp	 SHORT $LN2@GetPeso
$LN1@GetPeso:

; 116  : 
; 117  : 		return 0;

  0001f	33 c0		 xor	 eax, eax
$LN2@GetPeso:

; 118  : 	}

  00021	5d		 pop	 ebp
  00022	c2 04 00	 ret	 4
?GetPeso@tagNewShopItemInfo@@QBEHH@Z ENDP		; tagNewShopItemInfo::GetPeso
_TEXT	ENDS
PUBLIC	?GetCash@tagNewShopItemInfo@@QBEHH@Z		; tagNewShopItemInfo::GetCash
; Function compile flags: /Ogsp
;	COMDAT ?GetCash@tagNewShopItemInfo@@QBEHH@Z
_TEXT	SEGMENT
_iArray$ = 8						; size = 4
?GetCash@tagNewShopItemInfo@@QBEHH@Z PROC		; tagNewShopItemInfo::GetCash, COMDAT
; _this$ = ecx

; 121  : 	{

  00000	55		 push	 ebp
  00001	8b ec		 mov	 ebp, esp

; 122  : 		if( COMPARE( iArray, 0, (int) m_vCash.size() ) )

  00003	8b 45 08	 mov	 eax, DWORD PTR _iArray$[ebp]
  00006	85 c0		 test	 eax, eax
  00008	78 15		 js	 SHORT $LN1@GetCash
  0000a	8b 51 24	 mov	 edx, DWORD PTR [ecx+36]
  0000d	2b 51 20	 sub	 edx, DWORD PTR [ecx+32]
  00010	c1 fa 02	 sar	 edx, 2
  00013	3b c2		 cmp	 eax, edx
  00015	7d 08		 jge	 SHORT $LN1@GetCash

; 123  : 			return m_vCash[iArray];

  00017	8b 49 20	 mov	 ecx, DWORD PTR [ecx+32]
  0001a	8b 04 81	 mov	 eax, DWORD PTR [ecx+eax*4]
  0001d	eb 02		 jmp	 SHORT $LN2@GetCash
$LN1@GetCash:

; 124  : 
; 125  : 		return 0;

  0001f	33 c0		 xor	 eax, eax
$LN2@GetCash:

; 126  : 	}

  00021	5d		 pop	 ebp
  00022	c2 04 00	 ret	 4
?GetCash@tagNewShopItemInfo@@QBEHH@Z ENDP		; tagNewShopItemInfo::GetCash
_TEXT	ENDS
PUBLIC	?GetStamp@tagNewShopItemInfo@@QBEHH@Z		; tagNewShopItemInfo::GetStamp
; Function compile flags: /Ogsp
;	COMDAT ?GetStamp@tagNewShopItemInfo@@QBEHH@Z
_TEXT	SEGMENT
_iArray$ = 8						; size = 4
?GetStamp@tagNewShopItemInfo@@QBEHH@Z PROC		; tagNewShopItemInfo::GetStamp, COMDAT
; _this$ = ecx

; 129  : 	{

  00000	55		 push	 ebp
  00001	8b ec		 mov	 ebp, esp

; 130  : 		if( COMPARE( iArray, 0, (int)m_vStamp.size() ) )

  00003	8b 45 08	 mov	 eax, DWORD PTR _iArray$[ebp]
  00006	85 c0		 test	 eax, eax
  00008	78 15		 js	 SHORT $LN1@GetStamp
  0000a	8b 51 34	 mov	 edx, DWORD PTR [ecx+52]
  0000d	2b 51 30	 sub	 edx, DWORD PTR [ecx+48]
  00010	c1 fa 02	 sar	 edx, 2
  00013	3b c2		 cmp	 eax, edx
  00015	7d 08		 jge	 SHORT $LN1@GetStamp

; 131  : 			return m_vStamp[iArray];

  00017	8b 49 30	 mov	 ecx, DWORD PTR [ecx+48]
  0001a	8b 04 81	 mov	 eax, DWORD PTR [ecx+eax*4]
  0001d	eb 02		 jmp	 SHORT $LN2@GetStamp
$LN1@GetStamp:

; 132  : 		return 0;

  0001f	33 c0		 xor	 eax, eax
$LN2@GetStamp:

; 133  : 	}

  00021	5d		 pop	 ebp
  00022	c2 04 00	 ret	 4
?GetStamp@tagNewShopItemInfo@@QBEHH@Z ENDP		; tagNewShopItemInfo::GetStamp
_TEXT	ENDS
PUBLIC	?GetBonusPeso@tagNewShopItemInfo@@QAEHH@Z	; tagNewShopItemInfo::GetBonusPeso
; Function compile flags: /Ogsp
;	COMDAT ?GetBonusPeso@tagNewShopItemInfo@@QAEHH@Z
_TEXT	SEGMENT
_iArray$ = 8						; size = 4
?GetBonusPeso@tagNewShopItemInfo@@QAEHH@Z PROC		; tagNewShopItemInfo::GetBonusPeso, COMDAT
; _this$ = ecx

; 136  : 	{

  00000	55		 push	 ebp
  00001	8b ec		 mov	 ebp, esp

; 137  : 		if( COMPARE( iArray, 0, (int) m_vBonusPeso.size() ) )

  00003	8b 45 08	 mov	 eax, DWORD PTR _iArray$[ebp]
  00006	85 c0		 test	 eax, eax
  00008	78 15		 js	 SHORT $LN1@GetBonusPe
  0000a	8b 51 5c	 mov	 edx, DWORD PTR [ecx+92]
  0000d	2b 51 58	 sub	 edx, DWORD PTR [ecx+88]
  00010	c1 fa 02	 sar	 edx, 2
  00013	3b c2		 cmp	 eax, edx
  00015	7d 08		 jge	 SHORT $LN1@GetBonusPe

; 138  : 			return m_vBonusPeso[iArray];

  00017	8b 49 58	 mov	 ecx, DWORD PTR [ecx+88]
  0001a	8b 04 81	 mov	 eax, DWORD PTR [ecx+eax*4]
  0001d	eb 02		 jmp	 SHORT $LN2@GetBonusPe
$LN1@GetBonusPe:

; 139  : 
; 140  : 		return 0;

  0001f	33 c0		 xor	 eax, eax
$LN2@GetBonusPe:

; 141  : 	}

  00021	5d		 pop	 ebp
  00022	c2 04 00	 ret	 4
?GetBonusPeso@tagNewShopItemInfo@@QAEHH@Z ENDP		; tagNewShopItemInfo::GetBonusPeso
_TEXT	ENDS
PUBLIC	?GetValue3@tagNewShopItemInfo@@QBEHH@Z		; tagNewShopItemInfo::GetValue3
; Function compile flags: /Ogsp
;	COMDAT ?GetValue3@tagNewShopItemInfo@@QBEHH@Z
_TEXT	SEGMENT
_iArray$ = 8						; size = 4
?GetValue3@tagNewShopItemInfo@@QBEHH@Z PROC		; tagNewShopItemInfo::GetValue3, COMDAT
; _this$ = ecx

; 160  : 	{

  00000	55		 push	 ebp
  00001	8b ec		 mov	 ebp, esp

; 161  : 		if( COMPARE( iArray, 0, (int) m_vValue3.size() ) )

  00003	8b 55 08	 mov	 edx, DWORD PTR _iArray$[ebp]
  00006	85 d2		 test	 edx, edx
  00008	78 19		 js	 SHORT $LN1@GetValue3
  0000a	8d 81 84 00 00
	00		 lea	 eax, DWORD PTR [ecx+132]
  00010	8b 48 04	 mov	 ecx, DWORD PTR [eax+4]
  00013	2b 08		 sub	 ecx, DWORD PTR [eax]
  00015	c1 f9 02	 sar	 ecx, 2
  00018	3b d1		 cmp	 edx, ecx
  0001a	7d 07		 jge	 SHORT $LN1@GetValue3

; 162  : 			return m_vValue3[iArray];

  0001c	8b 00		 mov	 eax, DWORD PTR [eax]
  0001e	8b 04 90	 mov	 eax, DWORD PTR [eax+edx*4]
  00021	eb 02		 jmp	 SHORT $LN2@GetValue3
$LN1@GetValue3:

; 163  : 
; 164  : 		return 0;

  00023	33 c0		 xor	 eax, eax
$LN2@GetValue3:

; 165  : 	}

  00025	5d		 pop	 ebp
  00026	c2 04 00	 ret	 4
?GetValue3@tagNewShopItemInfo@@QBEHH@Z ENDP		; tagNewShopItemInfo::GetValue3
_TEXT	ENDS
PUBLIC	?begin@?$vector@HV?$allocator@H@std@@@std@@QAE?AV?$_Vector_iterator@V?$_Vector_val@HV?$allocator@H@std@@@std@@@2@XZ ; std::vector<int,std::allocator<int> >::begin
; Function compile flags: /Ogsp
; File c:\program files (x86)\microsoft visual studio 10.0\vc\include\vector
;	COMDAT ?begin@?$vector@HV?$allocator@H@std@@@std@@QAE?AV?$_Vector_iterator@V?$_Vector_val@HV?$allocator@H@std@@@std@@@2@XZ
_TEXT	SEGMENT
___$ReturnUdt$ = 8					; size = 4
?begin@?$vector@HV?$allocator@H@std@@@std@@QAE?AV?$_Vector_iterator@V?$_Vector_val@HV?$allocator@H@std@@@std@@@2@XZ PROC ; std::vector<int,std::allocator<int> >::begin, COMDAT
; _this$ = ecx

; 781  : 		{	// return iterator for beginning of mutable sequence

  00000	55		 push	 ebp
  00001	8b ec		 mov	 ebp, esp

; 782  : 		return (iterator(this->_Myfirst, this));

  00003	8b 09		 mov	 ecx, DWORD PTR [ecx]
  00005	8b 45 08	 mov	 eax, DWORD PTR ___$ReturnUdt$[ebp]
  00008	89 08		 mov	 DWORD PTR [eax], ecx

; 783  : 		}

  0000a	5d		 pop	 ebp
  0000b	c2 04 00	 ret	 4
?begin@?$vector@HV?$allocator@H@std@@@std@@QAE?AV?$_Vector_iterator@V?$_Vector_val@HV?$allocator@H@std@@@std@@@2@XZ ENDP ; std::vector<int,std::allocator<int> >::begin
_TEXT	ENDS
PUBLIC	?end@?$vector@HV?$allocator@H@std@@@std@@QAE?AV?$_Vector_iterator@V?$_Vector_val@HV?$allocator@H@std@@@std@@@2@XZ ; std::vector<int,std::allocator<int> >::end
; Function compile flags: /Ogsp
;	COMDAT ?end@?$vector@HV?$allocator@H@std@@@std@@QAE?AV?$_Vector_iterator@V?$_Vector_val@HV?$allocator@H@std@@@std@@@2@XZ
_TEXT	SEGMENT
___$ReturnUdt$ = 8					; size = 4
?end@?$vector@HV?$allocator@H@std@@@std@@QAE?AV?$_Vector_iterator@V?$_Vector_val@HV?$allocator@H@std@@@std@@@2@XZ PROC ; std::vector<int,std::allocator<int> >::end, COMDAT
; _this$ = ecx

; 791  : 		{	// return iterator for end of mutable sequence

  00000	55		 push	 ebp
  00001	8b ec		 mov	 ebp, esp

; 792  : 		return (iterator(this->_Mylast, this));

  00003	8b 49 04	 mov	 ecx, DWORD PTR [ecx+4]
  00006	8b 45 08	 mov	 eax, DWORD PTR ___$ReturnUdt$[ebp]
  00009	89 08		 mov	 DWORD PTR [eax], ecx

; 793  : 		}

  0000b	5d		 pop	 ebp
  0000c	c2 04 00	 ret	 4
?end@?$vector@HV?$allocator@H@std@@@std@@QAE?AV?$_Vector_iterator@V?$_Vector_val@HV?$allocator@H@std@@@std@@@2@XZ ENDP ; std::vector<int,std::allocator<int> >::end
_TEXT	ENDS
PUBLIC	??0?$_Vector_val@HV?$allocator@H@std@@@std@@QAE@V?$allocator@H@1@@Z ; std::_Vector_val<int,std::allocator<int> >::_Vector_val<int,std::allocator<int> >
; Function compile flags: /Ogsp
;	COMDAT ??0?$_Vector_val@HV?$allocator@H@std@@@std@@QAE@V?$allocator@H@1@@Z
_TEXT	SEGMENT
__Al$ = 8						; size = 1
??0?$_Vector_val@HV?$allocator@H@std@@@std@@QAE@V?$allocator@H@1@@Z PROC ; std::_Vector_val<int,std::allocator<int> >::_Vector_val<int,std::allocator<int> >, COMDAT
; _this$ = ecx

; 426  : 		{	// construct allocator from _Al

  00000	8b c1		 mov	 eax, ecx

; 427  : 		_Myfirst = 0;

  00002	33 c9		 xor	 ecx, ecx
  00004	89 08		 mov	 DWORD PTR [eax], ecx

; 428  : 		_Mylast = 0;

  00006	89 48 04	 mov	 DWORD PTR [eax+4], ecx

; 429  : 		_Myend = 0;

  00009	89 48 08	 mov	 DWORD PTR [eax+8], ecx

; 430  : 		}

  0000c	c2 04 00	 ret	 4
??0?$_Vector_val@HV?$allocator@H@std@@@std@@QAE@V?$allocator@H@1@@Z ENDP ; std::_Vector_val<int,std::allocator<int> >::_Vector_val<int,std::allocator<int> >
_TEXT	ENDS
PUBLIC	?max_size@?$vector@HV?$allocator@H@std@@@std@@QBEIXZ ; std::vector<int,std::allocator<int> >::max_size
; Function compile flags: /Ogsp
;	COMDAT ?max_size@?$vector@HV?$allocator@H@std@@@std@@QBEIXZ
_TEXT	SEGMENT
?max_size@?$vector@HV?$allocator@H@std@@@std@@QBEIXZ PROC ; std::vector<int,std::allocator<int> >::max_size, COMDAT
; _this$ = ecx

; 884  : 		return (this->_Alval.max_size());

  00000	b8 ff ff ff 3f	 mov	 eax, 1073741823		; 3fffffffH

; 885  : 		}

  00005	c3		 ret	 0
?max_size@?$vector@HV?$allocator@H@std@@@std@@QBEIXZ ENDP ; std::vector<int,std::allocator<int> >::max_size
_TEXT	ENDS
PUBLIC	?allocate@?$allocator@H@std@@QAEPAHI@Z		; std::allocator<int>::allocate
; Function compile flags: /Ogsp
; File c:\program files (x86)\microsoft visual studio 10.0\vc\include\xmemory
;	COMDAT ?allocate@?$allocator@H@std@@QAEPAHI@Z
_TEXT	SEGMENT
__Count$ = 8						; size = 4
?allocate@?$allocator@H@std@@QAEPAHI@Z PROC		; std::allocator<int>::allocate, COMDAT
; _this$ = ecx

; 186  : 		{	// allocate array of _Count elements

  00000	55		 push	 ebp
  00001	8b ec		 mov	 ebp, esp

; 187  : 		return (_Allocate(_Count, (pointer)0));

  00003	6a 00		 push	 0
  00005	ff 75 08	 push	 DWORD PTR __Count$[ebp]
  00008	e8 00 00 00 00	 call	 ??$_Allocate@H@std@@YAPAHIPAH@Z ; std::_Allocate<int>
  0000d	59		 pop	 ecx
  0000e	59		 pop	 ecx

; 188  : 		}

  0000f	5d		 pop	 ebp
  00010	c2 04 00	 ret	 4
?allocate@?$allocator@H@std@@QAEPAHI@Z ENDP		; std::allocator<int>::allocate
_TEXT	ENDS
PUBLIC	??8?$_Vector_const_iterator@V?$_Vector_val@HV?$allocator@H@std@@@std@@@std@@QBE_NABV01@@Z ; std::_Vector_const_iterator<std::_Vector_val<int,std::allocator<int> > >::operator==
; Function compile flags: /Ogsp
; File c:\program files (x86)\microsoft visual studio 10.0\vc\include\vector
;	COMDAT ??8?$_Vector_const_iterator@V?$_Vector_val@HV?$allocator@H@std@@@std@@@std@@QBE_NABV01@@Z
_TEXT	SEGMENT
__Right$ = 8						; size = 4
??8?$_Vector_const_iterator@V?$_Vector_val@HV?$allocator@H@std@@@std@@@std@@QBE_NABV01@@Z PROC ; std::_Vector_const_iterator<std::_Vector_val<int,std::allocator<int> > >::operator==, COMDAT
; _this$ = ecx

; 201  : 		{	// test for iterator equality

  00000	55		 push	 ebp
  00001	8b ec		 mov	 ebp, esp

; 202  : 		_Compat(_Right);
; 203  : 		return (this->_Ptr == _Right._Ptr);

  00003	8b 01		 mov	 eax, DWORD PTR [ecx]
  00005	8b 4d 08	 mov	 ecx, DWORD PTR __Right$[ebp]
  00008	2b 01		 sub	 eax, DWORD PTR [ecx]
  0000a	f7 d8		 neg	 eax
  0000c	1b c0		 sbb	 eax, eax
  0000e	40		 inc	 eax

; 204  : 		}

  0000f	5d		 pop	 ebp
  00010	c2 04 00	 ret	 4
??8?$_Vector_const_iterator@V?$_Vector_val@HV?$allocator@H@std@@@std@@@std@@QBE_NABV01@@Z ENDP ; std::_Vector_const_iterator<std::_Vector_val<int,std::allocator<int> > >::operator==
_TEXT	ENDS
PUBLIC	??$_Move@PAHPAH@std@@YAPAHPAH00@Z		; std::_Move<int *,int *>
; Function compile flags: /Ogsp
; File c:\program files (x86)\microsoft visual studio 10.0\vc\include\xutility
;	COMDAT ??$_Move@PAHPAH@std@@YAPAHPAH00@Z
_TEXT	SEGMENT
__Cat$506909 = -4					; size = 1
__First$ = 8						; size = 4
__Last$ = 12						; size = 4
__Dest$ = 16						; size = 4
??$_Move@PAHPAH@std@@YAPAHPAH00@Z PROC			; std::_Move<int *,int *>, COMDAT

; 2533 : 	{	// move [_First, _Last) to [_Dest, ...), unchecked

  00000	55		 push	 ebp
  00001	8b ec		 mov	 ebp, esp
  00003	51		 push	 ecx

; 2534 : 	return (_Move(_First, _Last,
; 2535 : 		_Dest, _Ptr_cat(_First, _Dest)));

  00004	ff 75 fc	 push	 DWORD PTR __Cat$506909[ebp]
  00007	ff 75 10	 push	 DWORD PTR __Dest$[ebp]
  0000a	ff 75 0c	 push	 DWORD PTR __Last$[ebp]
  0000d	ff 75 08	 push	 DWORD PTR __First$[ebp]
  00010	e8 00 00 00 00	 call	 ??$_Move@PAHPAH@std@@YAPAHPAH00U_Scalar_ptr_iterator_tag@0@@Z ; std::_Move<int *,int *>
  00015	83 c4 10	 add	 esp, 16			; 00000010H

; 2536 : 	}

  00018	c9		 leave
  00019	c3		 ret	 0
??$_Move@PAHPAH@std@@YAPAHPAH00@Z ENDP			; std::_Move<int *,int *>
_TEXT	ENDS
PUBLIC	??$_Destroy_range@V?$allocator@H@std@@@std@@YAXPAH0AAV?$allocator@H@0@@Z ; std::_Destroy_range<std::allocator<int> >
; Function compile flags: /Ogsp
; File c:\program files (x86)\microsoft visual studio 10.0\vc\include\xmemory
;	COMDAT ??$_Destroy_range@V?$allocator@H@std@@@std@@YAXPAH0AAV?$allocator@H@0@@Z
_TEXT	SEGMENT
__First$ = 8						; size = 4
__Last$ = 12						; size = 4
__Al$ = 16						; size = 4
??$_Destroy_range@V?$allocator@H@std@@@std@@YAXPAH0AAV?$allocator@H@0@@Z PROC ; std::_Destroy_range<std::allocator<int> >, COMDAT

; 88   : 	_Destroy_range(_First, _Last, _Al, _Ptr_cat(_First, _Last));
; 89   : 	}

  00000	c3		 ret	 0
??$_Destroy_range@V?$allocator@H@std@@@std@@YAXPAH0AAV?$allocator@H@0@@Z ENDP ; std::_Destroy_range<std::allocator<int> >
_TEXT	ENDS
PUBLIC	_this$GSCopy$
PUBLIC	__$ArrayPad$
PUBLIC	?AddRenderImage@NewShopItemInfoWnd@@MAEXABVioHashString@@PAVioUIRenderImage@@@Z ; NewShopItemInfoWnd::AddRenderImage
EXTRN	__imp_?AddRenderImage@ioButton@@UAEXABVioHashString@@PAVioUIRenderImage@@@Z:PROC
; Function compile flags: /Ogsp
; File d:\lost saga for developer\youtube\tutorial\source\src\lsclient\gui\newshopiteminfownd.cpp
;	COMDAT ?AddRenderImage@NewShopItemInfoWnd@@MAEXABVioHashString@@PAVioUIRenderImage@@@Z
_TEXT	SEGMENT
_this$GSCopy$ = -20					; size = 4
__t$506955 = -16					; size = 5
__$ArrayPad$ = -4					; size = 4
_szType$ = 8						; size = 4
_pImage$ = 12						; size = 4
?AddRenderImage@NewShopItemInfoWnd@@MAEXABVioHashString@@PAVioUIRenderImage@@@Z PROC ; NewShopItemInfoWnd::AddRenderImage, COMDAT
; _this$ = ecx

; 35   : {

  00000	55		 push	 ebp
  00001	8b ec		 mov	 ebp, esp
  00003	83 ec 14	 sub	 esp, 20			; 00000014H
  00006	a1 00 00 00 00	 mov	 eax, DWORD PTR ___security_cookie
  0000b	33 c5		 xor	 eax, ebp
  0000d	89 45 fc	 mov	 DWORD PTR __$ArrayPad$[ebp], eax
  00010	53		 push	 ebx
  00011	8b 5d 0c	 mov	 ebx, DWORD PTR _pImage$[ebp]
  00014	56		 push	 esi
  00015	57		 push	 edi
  00016	8b 7d 08	 mov	 edi, DWORD PTR _szType$[ebp]
  00019	89 4d ec	 mov	 DWORD PTR _this$GSCopy$[ebp], ecx

; 36   : 	if( szType == "Left" )

  0001c	c7 45 f0 a1 89
	8d 9e		 mov	 DWORD PTR __t$506955[ebp], -1634891359 ; 9e8d89a1H
  00023	81 75 f0 ed ec
	eb ea		 xor	 DWORD PTR __t$506955[ebp], -353637139 ; eaebecedH
  0002a	8b cf		 mov	 ecx, edi
  0002c	c6 45 f4 00	 mov	 BYTE PTR __t$506955[ebp+4], 0
  00030	8d 75 f0	 lea	 esi, DWORD PTR __t$506955[ebp]
  00033	ff 15 00 00 00
	00		 call	 DWORD PTR __imp_?c_str@ioHashString@@QBEPBDXZ
$LL118@AddRenderI:
  00039	8a 08		 mov	 cl, BYTE PTR [eax]
  0003b	3a 0e		 cmp	 cl, BYTE PTR [esi]
  0003d	75 1a		 jne	 SHORT $LN119@AddRenderI
  0003f	84 c9		 test	 cl, cl
  00041	74 12		 je	 SHORT $LN120@AddRenderI
  00043	8a 48 01	 mov	 cl, BYTE PTR [eax+1]
  00046	3a 4e 01	 cmp	 cl, BYTE PTR [esi+1]
  00049	75 0e		 jne	 SHORT $LN119@AddRenderI
  0004b	83 c0 02	 add	 eax, 2
  0004e	83 c6 02	 add	 esi, 2
  00051	84 c9		 test	 cl, cl
  00053	75 e4		 jne	 SHORT $LL118@AddRenderI
$LN120@AddRenderI:
  00055	33 c0		 xor	 eax, eax
  00057	eb 05		 jmp	 SHORT $LN121@AddRenderI
$LN119@AddRenderI:
  00059	1b c0		 sbb	 eax, eax
  0005b	83 d8 ff	 sbb	 eax, -1
$LN121@AddRenderI:
  0005e	85 c0		 test	 eax, eax
  00060	75 23		 jne	 SHORT $LN3@AddRenderI

; 37   : 	{
; 38   : 		SAFEDELETE( m_pLeft );

  00062	8b 75 ec	 mov	 esi, DWORD PTR _this$GSCopy$[ebp]
  00065	8b 8e 64 02 00
	00		 mov	 ecx, DWORD PTR [esi+612]
  0006b	85 c9		 test	 ecx, ecx
  0006d	74 0e		 je	 SHORT $LN2@AddRenderI
  0006f	8b 01		 mov	 eax, DWORD PTR [ecx]
  00071	6a 01		 push	 1
  00073	ff 50 40	 call	 DWORD PTR [eax+64]
  00076	83 a6 64 02 00
	00 00		 and	 DWORD PTR [esi+612], 0
$LN2@AddRenderI:

; 39   : 		m_pLeft = pImage;

  0007d	89 9e 64 02 00
	00		 mov	 DWORD PTR [esi+612], ebx

; 40   : 	}
; 41   : 	else

  00083	eb 0b		 jmp	 SHORT $LN1@AddRenderI
$LN3@AddRenderI:

; 42   : 	{
; 43   : 		ioButton::AddRenderImage( szType, pImage );	

  00085	8b 4d ec	 mov	 ecx, DWORD PTR _this$GSCopy$[ebp]
  00088	53		 push	 ebx
  00089	57		 push	 edi
  0008a	ff 15 00 00 00
	00		 call	 DWORD PTR __imp_?AddRenderImage@ioButton@@UAEXABVioHashString@@PAVioUIRenderImage@@@Z
$LN1@AddRenderI:

; 44   : 	}	
; 45   : }

  00090	8b 4d fc	 mov	 ecx, DWORD PTR __$ArrayPad$[ebp]
  00093	5f		 pop	 edi
  00094	5e		 pop	 esi
  00095	33 cd		 xor	 ecx, ebp
  00097	5b		 pop	 ebx
  00098	e8 00 00 00 00	 call	 @__security_check_cookie@4
  0009d	c9		 leave
  0009e	c2 08 00	 ret	 8
?AddRenderImage@NewShopItemInfoWnd@@MAEXABVioHashString@@PAVioUIRenderImage@@@Z ENDP ; NewShopItemInfoWnd::AddRenderImage
_TEXT	ENDS
PUBLIC	_szType$GSCopy$
PUBLIC	_pFrame$GSCopy$
PUBLIC	_this$GSCopy$
PUBLIC	__$ArrayPad$
PUBLIC	?AddRenderFrame@NewShopItemInfoWnd@@MAEXABVioHashString@@PAVioUIRenderFrame@@@Z ; NewShopItemInfoWnd::AddRenderFrame
EXTRN	__imp_?AddRenderFrame@ioButton@@UAEXABVioHashString@@PAVioUIRenderFrame@@@Z:PROC
; Function compile flags: /Ogsp
;	COMDAT ?AddRenderFrame@NewShopItemInfoWnd@@MAEXABVioHashString@@PAVioUIRenderFrame@@@Z
_TEXT	SEGMENT
_szType$GSCopy$ = -32					; size = 4
_pFrame$GSCopy$ = -28					; size = 4
_this$GSCopy$ = -24					; size = 4
__t$507213 = -20					; size = 9
__t$507122 = -20					; size = 10
__$ArrayPad$ = -4					; size = 4
_szType$ = 8						; size = 4
_pFrame$ = 12						; size = 4
?AddRenderFrame@NewShopItemInfoWnd@@MAEXABVioHashString@@PAVioUIRenderFrame@@@Z PROC ; NewShopItemInfoWnd::AddRenderFrame, COMDAT
; _this$ = ecx

; 48   : {

  00000	55		 push	 ebp
  00001	8b ec		 mov	 ebp, esp
  00003	83 ec 20	 sub	 esp, 32			; 00000020H
  00006	a1 00 00 00 00	 mov	 eax, DWORD PTR ___security_cookie
  0000b	33 c5		 xor	 eax, ebp
  0000d	89 45 fc	 mov	 DWORD PTR __$ArrayPad$[ebp], eax
  00010	8b 45 0c	 mov	 eax, DWORD PTR _pFrame$[ebp]
  00013	8b 55 08	 mov	 edx, DWORD PTR _szType$[ebp]
  00016	53		 push	 ebx
  00017	56		 push	 esi
  00018	57		 push	 edi

; 49   : 	if( szType == "SelectFrm" )

  00019	6a 02		 push	 2
  0001b	5b		 pop	 ebx
  0001c	89 4d e8	 mov	 DWORD PTR _this$GSCopy$[ebp], ecx

; 53   : 	}
; 54   : 	else if( szType == "EventFrm" )

  0001f	89 45 e4	 mov	 DWORD PTR _pFrame$GSCopy$[ebp], eax
  00022	89 55 e0	 mov	 DWORD PTR _szType$GSCopy$[ebp], edx
  00025	c7 45 ec be 89
	87 8f		 mov	 DWORD PTR __t$507122[ebp], -1886942786 ; 8f8789beH
  0002c	c7 45 f0 8e 98
	ad 98		 mov	 DWORD PTR __t$507122[ebp+4], -1733453682 ; 98ad988eH
  00033	8d 45 ec	 lea	 eax, DWORD PTR __t$507122[ebp]
  00036	66 c7 45 f4 80
	00		 mov	 WORD PTR __t$507122[ebp+8], 128 ; 00000080H
  0003c	8b cb		 mov	 ecx, ebx
  0003e	bf ed ec eb ea	 mov	 edi, -353637139		; eaebecedH
$LL116@AddRenderF:

; 49   : 	if( szType == "SelectFrm" )

  00043	31 38		 xor	 DWORD PTR [eax], edi
  00045	83 c0 04	 add	 eax, 4
  00048	49		 dec	 ecx
  00049	75 f8		 jne	 SHORT $LL116@AddRenderF
  0004b	80 75 f4 ed	 xor	 BYTE PTR __t$507122[ebp+8], -19 ; ffffffedH
  0004f	8b ca		 mov	 ecx, edx
  00051	8d 75 ec	 lea	 esi, DWORD PTR __t$507122[ebp]
  00054	ff 15 00 00 00
	00		 call	 DWORD PTR __imp_?c_str@ioHashString@@QBEPBDXZ
$LL234@AddRenderF:
  0005a	8a 08		 mov	 cl, BYTE PTR [eax]
  0005c	3a 0e		 cmp	 cl, BYTE PTR [esi]
  0005e	75 18		 jne	 SHORT $LN235@AddRenderF
  00060	84 c9		 test	 cl, cl
  00062	74 10		 je	 SHORT $LN236@AddRenderF
  00064	8a 48 01	 mov	 cl, BYTE PTR [eax+1]
  00067	3a 4e 01	 cmp	 cl, BYTE PTR [esi+1]
  0006a	75 0c		 jne	 SHORT $LN235@AddRenderF
  0006c	03 c3		 add	 eax, ebx
  0006e	03 f3		 add	 esi, ebx
  00070	84 c9		 test	 cl, cl
  00072	75 e6		 jne	 SHORT $LL234@AddRenderF
$LN236@AddRenderF:
  00074	33 c0		 xor	 eax, eax
  00076	eb 05		 jmp	 SHORT $LN237@AddRenderF
$LN235@AddRenderF:
  00078	1b c0		 sbb	 eax, eax
  0007a	83 d8 ff	 sbb	 eax, -1
$LN237@AddRenderF:
  0007d	85 c0		 test	 eax, eax
  0007f	75 29		 jne	 SHORT $LN233@AddRenderF

; 50   : 	{
; 51   : 		SAFEDELETE( m_pSelectFrm );

  00081	8b 75 e8	 mov	 esi, DWORD PTR _this$GSCopy$[ebp]
  00084	8b 8e 5c 02 00
	00		 mov	 ecx, DWORD PTR [esi+604]
  0008a	85 c9		 test	 ecx, ecx
  0008c	74 0e		 je	 SHORT $LN5@AddRenderF
  0008e	8b 01		 mov	 eax, DWORD PTR [ecx]
  00090	6a 01		 push	 1
  00092	ff 50 40	 call	 DWORD PTR [eax+64]
  00095	83 a6 5c 02 00
	00 00		 and	 DWORD PTR [esi+604], 0
$LN5@AddRenderF:

; 52   : 		m_pSelectFrm = pFrame;

  0009c	8b 45 e4	 mov	 eax, DWORD PTR _pFrame$GSCopy$[ebp]
  0009f	89 86 5c 02 00
	00		 mov	 DWORD PTR [esi+604], eax
  000a5	e9 87 00 00 00	 jmp	 $LN1@AddRenderF
$LN233@AddRenderF:

; 53   : 	}
; 54   : 	else if( szType == "EventFrm" )

  000aa	c7 45 ec a8 9a
	8e 84		 mov	 DWORD PTR __t$507213[ebp], -2071029080 ; 848e9aa8H
  000b1	c7 45 f0 99 aa
	99 87		 mov	 DWORD PTR __t$507213[ebp+4], -2019972455 ; 8799aa99H
  000b8	8d 45 ec	 lea	 eax, DWORD PTR __t$507213[ebp]
  000bb	c6 45 f4 00	 mov	 BYTE PTR __t$507213[ebp+8], 0
  000bf	8b cb		 mov	 ecx, ebx
$LL222@AddRenderF:
  000c1	31 38		 xor	 DWORD PTR [eax], edi
  000c3	83 c0 04	 add	 eax, 4
  000c6	49		 dec	 ecx
  000c7	75 f8		 jne	 SHORT $LL222@AddRenderF
  000c9	8b 4d e0	 mov	 ecx, DWORD PTR _szType$GSCopy$[ebp]
  000cc	8d 75 ec	 lea	 esi, DWORD PTR __t$507213[ebp]
  000cf	ff 15 00 00 00
	00		 call	 DWORD PTR __imp_?c_str@ioHashString@@QBEPBDXZ
$LL238@AddRenderF:
  000d5	8a 08		 mov	 cl, BYTE PTR [eax]
  000d7	3a 0e		 cmp	 cl, BYTE PTR [esi]
  000d9	75 18		 jne	 SHORT $LN239@AddRenderF
  000db	84 c9		 test	 cl, cl
  000dd	74 10		 je	 SHORT $LN240@AddRenderF
  000df	8a 48 01	 mov	 cl, BYTE PTR [eax+1]
  000e2	3a 4e 01	 cmp	 cl, BYTE PTR [esi+1]
  000e5	75 0c		 jne	 SHORT $LN239@AddRenderF
  000e7	03 c3		 add	 eax, ebx
  000e9	03 f3		 add	 esi, ebx
  000eb	84 c9		 test	 cl, cl
  000ed	75 e6		 jne	 SHORT $LL238@AddRenderF
$LN240@AddRenderF:
  000ef	33 c0		 xor	 eax, eax
  000f1	eb 05		 jmp	 SHORT $LN241@AddRenderF
$LN239@AddRenderF:
  000f3	1b c0		 sbb	 eax, eax
  000f5	83 d8 ff	 sbb	 eax, -1
$LN241@AddRenderF:
  000f8	85 c0		 test	 eax, eax
  000fa	75 26		 jne	 SHORT $LN3@AddRenderF

; 55   : 	{
; 56   : 		SAFEDELETE( m_pEventFrm );

  000fc	8b 75 e8	 mov	 esi, DWORD PTR _this$GSCopy$[ebp]
  000ff	8b 8e 60 02 00
	00		 mov	 ecx, DWORD PTR [esi+608]
  00105	85 c9		 test	 ecx, ecx
  00107	74 0e		 je	 SHORT $LN2@AddRenderF
  00109	8b 01		 mov	 eax, DWORD PTR [ecx]
  0010b	6a 01		 push	 1
  0010d	ff 50 40	 call	 DWORD PTR [eax+64]
  00110	83 a6 60 02 00
	00 00		 and	 DWORD PTR [esi+608], 0
$LN2@AddRenderF:

; 57   : 		m_pEventFrm = pFrame;

  00117	8b 45 e4	 mov	 eax, DWORD PTR _pFrame$GSCopy$[ebp]
  0011a	89 86 60 02 00
	00		 mov	 DWORD PTR [esi+608], eax

; 58   : 	}
; 59   : 	else

  00120	eb 0f		 jmp	 SHORT $LN1@AddRenderF
$LN3@AddRenderF:

; 60   : 	{
; 61   : 		ioButton::AddRenderFrame( szType, pFrame );

  00122	ff 75 e4	 push	 DWORD PTR _pFrame$GSCopy$[ebp]
  00125	8b 4d e8	 mov	 ecx, DWORD PTR _this$GSCopy$[ebp]
  00128	ff 75 e0	 push	 DWORD PTR _szType$GSCopy$[ebp]
  0012b	ff 15 00 00 00
	00		 call	 DWORD PTR __imp_?AddRenderFrame@ioButton@@UAEXABVioHashString@@PAVioUIRenderFrame@@@Z
$LN1@AddRenderF:

; 62   : 	}
; 63   : }

  00131	8b 4d fc	 mov	 ecx, DWORD PTR __$ArrayPad$[ebp]
  00134	5f		 pop	 edi
  00135	5e		 pop	 esi
  00136	33 cd		 xor	 ecx, ebp
  00138	5b		 pop	 ebx
  00139	e8 00 00 00 00	 call	 @__security_check_cookie@4
  0013e	c9		 leave
  0013f	c2 08 00	 ret	 8
?AddRenderFrame@NewShopItemInfoWnd@@MAEXABVioHashString@@PAVioUIRenderFrame@@@Z ENDP ; NewShopItemInfoWnd::AddRenderFrame
_TEXT	ENDS
PUBLIC	__real@42b40000
PUBLIC	??_C@_0M@PGEMCGBF@?$CF1?5?$CF2?5?$CF3?5?$CF4?$AA@ ; `string'
PUBLIC	__real@3f19999a
PUBLIC	??_C@_0BP@PHEDIOOC@NewShopItemInfoWnd?3?3RenderDesc?$AA@ ; `string'
PUBLIC	?RenderDesc@NewShopItemInfoWnd@@IAEXHH@Z	; NewShopItemInfoWnd::RenderDesc
EXTRN	?PrintFullTextWidthCut@ioComplexStringPrinter@@QAEXMMW4TextAlignType@@ME@Z:PROC ; ioComplexStringPrinter::PrintFullTextWidthCut
EXTRN	__imp_?PrintText@ioFontManager@@QAEXMMMPBDHHHH@Z:PROC
EXTRN	__imp_?PrintText@ioFontManager@@QAEXMMMPBDH@Z:PROC
EXTRN	__imp_?SetTextColor@ioFontManager@@QAEXK@Z:PROC
EXTRN	__imp_?SetBkColor@ioFontManager@@QAEXHHH@Z:PROC
EXTRN	__imp_?SetTextStyle@ioFontManager@@QAEXW4TextStyle@@@Z:PROC
EXTRN	__imp_?SetAlignType@ioFontManager@@QAEXW4TextAlignType@@@Z:PROC
EXTRN	__imp_?GetSingleton@ioFontManager@@SAAAV1@XZ:PROC
;	COMDAT __real@42b40000
; File c:\program files (x86)\microsoft visual studio 10.0\vc\include\vector
CONST	SEGMENT
__real@42b40000 DD 042b40000r			; 90
CONST	ENDS
;	COMDAT ??_C@_0M@PGEMCGBF@?$CF1?5?$CF2?5?$CF3?5?$CF4?$AA@
CONST	SEGMENT
??_C@_0M@PGEMCGBF@?$CF1?5?$CF2?5?$CF3?5?$CF4?$AA@ DB '%1 %2 %3 %4', 00H ; `string'
CONST	ENDS
;	COMDAT __real@3f19999a
CONST	SEGMENT
__real@3f19999a DD 03f19999ar			; 0.6
CONST	ENDS
;	COMDAT ??_C@_0BP@PHEDIOOC@NewShopItemInfoWnd?3?3RenderDesc?$AA@
CONST	SEGMENT
??_C@_0BP@PHEDIOOC@NewShopItemInfoWnd?3?3RenderDesc?$AA@ DB 'NewShopItemI'
	DB	'nfoWnd::RenderDesc', 00H			; `string'
; Function compile flags: /Ogsp
; File d:\lost saga for developer\youtube\tutorial\source\src\lsclient\gui\newshopiteminfownd.cpp
CONST	ENDS
;	COMDAT ?RenderDesc@NewShopItemInfoWnd@@IAEXHH@Z
_TEXT	SEGMENT
_iXPos$ = 8						; size = 4
tv262 = 12						; size = 4
_iYPos$ = 12						; size = 4
?RenderDesc@NewShopItemInfoWnd@@IAEXHH@Z PROC		; NewShopItemInfoWnd::RenderDesc, COMDAT
; _this$ = ecx

; 134  : {

  00000	55		 push	 ebp
  00001	8b ec		 mov	 ebp, esp

; 135  : 	enum 
; 136  : 	{
; 137  : 		X_OFFSET           = 52,
; 138  : 		Y_OFFSET           = 105,
; 139  : 		Y_LINE_GAP         = 16,
; 140  : 		Y_OFFSET_SECOND    = -8,
; 141  : 	};
; 142  : 
; 143  : 
; 144  : 	if( Setting::ShowExtraInfo() )

  00003	80 3d 70 00 00
	00 00		 cmp	 BYTE PTR ?m_Option@Setting@@1USettingOption@@A+112, 0
  0000a	53		 push	 ebx
  0000b	8b 5d 0c	 mov	 ebx, DWORD PTR _iYPos$[ebp]
  0000e	56		 push	 esi
  0000f	57		 push	 edi
  00010	8b f9		 mov	 edi, ecx
  00012	0f 84 f3 00 00
	00		 je	 $LN10@RenderDesc

; 145  : 	{
; 146  : 		g_FontMgr.SetAlignType( TAT_LEFT );

  00018	8b 35 00 00 00
	00		 mov	 esi, DWORD PTR __imp_?GetSingleton@ioFontManager@@SAAAV1@XZ
  0001e	6a 00		 push	 0
  00020	ff d6		 call	 esi
  00022	8b c8		 mov	 ecx, eax
  00024	ff 15 00 00 00
	00		 call	 DWORD PTR __imp_?SetAlignType@ioFontManager@@QAEXW4TextAlignType@@@Z

; 147  : 		g_FontMgr.SetTextStyle( TS_NORMAL );

  0002a	6a 00		 push	 0
  0002c	ff d6		 call	 esi
  0002e	8b c8		 mov	 ecx, eax
  00030	ff 15 00 00 00
	00		 call	 DWORD PTR __imp_?SetTextStyle@ioFontManager@@QAEXW4TextStyle@@@Z

; 148  : 		g_FontMgr.SetBkColor( 0, 0, 0 );

  00036	33 c0		 xor	 eax, eax
  00038	50		 push	 eax
  00039	50		 push	 eax
  0003a	50		 push	 eax
  0003b	ff d6		 call	 esi
  0003d	8b c8		 mov	 ecx, eax
  0003f	ff 15 00 00 00
	00		 call	 DWORD PTR __imp_?SetBkColor@ioFontManager@@QAEXHHH@Z

; 149  : 		g_FontMgr.SetTextColor( TCT_DEFAULT_RED );	

  00045	68 00 16 b9 ff	 push	 -4647424		; ffb91600H
  0004a	ff d6		 call	 esi
  0004c	8b c8		 mov	 ecx, eax
  0004e	ff 15 00 00 00
	00		 call	 DWORD PTR __imp_?SetTextColor@ioFontManager@@QAEXK@Z

; 150  : 		g_FontMgr.PrintText( iXPos, iYPos - 7, FONT_SIZE_12, STR(1), m_ItemInfo.m_iSortPoint );

  00054	ff b7 74 02 00
	00		 push	 DWORD PTR [edi+628]
  0005a	66 0f 6e 45 08	 movd	 xmm0, DWORD PTR _iXPos$[ebp]
  0005f	6a 00		 push	 0
  00061	6a 01		 push	 1
  00063	68 00 00 00 00	 push	 OFFSET ??_C@_00CNPNBAHC@?$AA@
  00068	0f 5b c0	 cvtdq2ps xmm0, xmm0
  0006b	68 00 00 00 00	 push	 OFFSET ??_C@_0BP@PHEDIOOC@NewShopItemInfoWnd?3?3RenderDesc?$AA@
  00070	f3 0f 11 45 0c	 movss	 DWORD PTR tv262[ebp], xmm0
  00075	ff 15 00 00 00
	00		 call	 DWORD PTR __imp_?GetSingleton@ioStringManager@@SAAAV1@XZ
  0007b	8b c8		 mov	 ecx, eax
  0007d	ff 15 00 00 00
	00		 call	 DWORD PTR __imp_?GetString@ioStringManager@@QAEPADPBD0HW4FileNamePrefix@1@@Z
  00083	f3 0f 10 05 00
	00 00 00	 movss	 xmm0, DWORD PTR __real@3f19999a
  0008b	50		 push	 eax
  0008c	83 ec 0c	 sub	 esp, 12			; 0000000cH
  0008f	f3 0f 11 44 24
	08		 movss	 DWORD PTR [esp+8], xmm0
  00095	8d 43 f9	 lea	 eax, DWORD PTR [ebx-7]
  00098	0f 57 c0	 xorps	 xmm0, xmm0
  0009b	f3 0f 2a c0	 cvtsi2ss xmm0, eax
  0009f	f3 0f 11 44 24
	04		 movss	 DWORD PTR [esp+4], xmm0
  000a5	f3 0f 10 45 0c	 movss	 xmm0, DWORD PTR tv262[ebp]
  000aa	f3 0f 11 04 24	 movss	 DWORD PTR [esp], xmm0
  000af	ff d6		 call	 esi
  000b1	8b c8		 mov	 ecx, eax
  000b3	ff 15 00 00 00
	00		 call	 DWORD PTR __imp_?PrintText@ioFontManager@@QAEXMMMPBDH@Z

; 151  : 
; 152  : 		g_FontMgr.PrintText( iXPos, iYPos - 32, FONT_SIZE_12, "%1 %2 %3 %4", m_ItemInfo.m_iItemType,
; 153  : 			m_ItemInfo.m_iValue0, m_ItemInfo.m_iValue1, m_ItemInfo.m_iValue2 );

  000b9	ff b7 f0 02 00
	00		 push	 DWORD PTR [edi+752]
  000bf	f3 0f 10 05 00
	00 00 00	 movss	 xmm0, DWORD PTR __real@3f19999a
  000c7	ff b7 ec 02 00
	00		 push	 DWORD PTR [edi+748]
  000cd	8d 43 e0	 lea	 eax, DWORD PTR [ebx-32]
  000d0	ff b7 e8 02 00
	00		 push	 DWORD PTR [edi+744]
  000d6	ff b7 70 02 00
	00		 push	 DWORD PTR [edi+624]
  000dc	68 00 00 00 00	 push	 OFFSET ??_C@_0M@PGEMCGBF@?$CF1?5?$CF2?5?$CF3?5?$CF4?$AA@
  000e1	83 ec 0c	 sub	 esp, 12			; 0000000cH
  000e4	f3 0f 11 44 24
	08		 movss	 DWORD PTR [esp+8], xmm0
  000ea	0f 57 c0	 xorps	 xmm0, xmm0
  000ed	f3 0f 2a c0	 cvtsi2ss xmm0, eax
  000f1	f3 0f 11 44 24
	04		 movss	 DWORD PTR [esp+4], xmm0
  000f7	f3 0f 10 45 0c	 movss	 xmm0, DWORD PTR tv262[ebp]
  000fc	f3 0f 11 04 24	 movss	 DWORD PTR [esp], xmm0
  00101	ff d6		 call	 esi
  00103	8b c8		 mov	 ecx, eax
  00105	ff 15 00 00 00
	00		 call	 DWORD PTR __imp_?PrintText@ioFontManager@@QAEXMMMPBDHHHH@Z
$LN10@RenderDesc:

; 154  : 	}
; 155  : 
; 156  : 	iXPos += X_OFFSET;

  0010b	83 45 08 34	 add	 DWORD PTR _iXPos$[ebp], 52 ; 00000034H

; 157  : 	iYPos += Y_OFFSET;

  0010f	83 c3 69	 add	 ebx, 105		; 00000069H

; 158  : 
; 159  : 	int iDescCnt = 0;

  00112	33 d2		 xor	 edx, edx
  00114	81 c7 08 02 00
	00		 add	 edi, 520		; 00000208H
  0011a	6a 03		 push	 3
  0011c	8b c7		 mov	 eax, edi
  0011e	59		 pop	 ecx
$LL9@RenderDesc:

; 161  : 	{
; 162  : 		if( m_szDescArray[i].IsEmpty() )

  0011f	8b 30		 mov	 esi, DWORD PTR [eax]
  00121	3b 70 04	 cmp	 esi, DWORD PTR [eax+4]
  00124	74 01		 je	 SHORT $LN8@RenderDesc

; 163  : 			continue;
; 164  : 		iDescCnt++;

  00126	42		 inc	 edx
$LN8@RenderDesc:

; 160  : 	for( int i = 0 ; i < MAX_DESC ; i++ )

  00127	83 c0 20	 add	 eax, 32			; 00000020H
  0012a	49		 dec	 ecx
  0012b	75 f2		 jne	 SHORT $LL9@RenderDesc

; 165  : 	}
; 166  : 
; 167  : 	if( iDescCnt == 3 )

  0012d	6a 03		 push	 3
  0012f	5e		 pop	 esi
  00130	3b d6		 cmp	 edx, esi
  00132	75 03		 jne	 SHORT $LL5@RenderDesc

; 168  : 		iYPos += Y_OFFSET_SECOND;

  00134	83 eb 08	 sub	 ebx, 8
$LL5@RenderDesc:

; 172  : 	{
; 173  : 		if( m_szDescArray[i].IsEmpty() )

  00137	8b 07		 mov	 eax, DWORD PTR [edi]
  00139	3b 47 04	 cmp	 eax, DWORD PTR [edi+4]
  0013c	74 3c		 je	 SHORT $LN3@RenderDesc

; 174  : 			continue;
; 175  : 		m_szDescArray[i].PrintFullTextWidthCut( iXPos, iYPos + ( Y_LINE_GAP * iCnt ), TAT_CENTER, NEW_SHOP_WIDTHCUT_SIZE );

  0013e	f3 0f 10 05 00
	00 00 00	 movss	 xmm0, DWORD PTR __real@42b40000
  00146	68 ff 00 00 00	 push	 255			; 000000ffH
  0014b	51		 push	 ecx
  0014c	f3 0f 11 04 24	 movss	 DWORD PTR [esp], xmm0
  00151	6a 01		 push	 1
  00153	51		 push	 ecx
  00154	0f 57 c0	 xorps	 xmm0, xmm0
  00157	51		 push	 ecx
  00158	f3 0f 2a c3	 cvtsi2ss xmm0, ebx
  0015c	f3 0f 11 44 24
	04		 movss	 DWORD PTR [esp+4], xmm0
  00162	66 0f 6e 45 08	 movd	 xmm0, DWORD PTR _iXPos$[ebp]
  00167	0f 5b c0	 cvtdq2ps xmm0, xmm0
  0016a	8d 4f f4	 lea	 ecx, DWORD PTR [edi-12]
  0016d	f3 0f 11 04 24	 movss	 DWORD PTR [esp], xmm0
  00172	e8 00 00 00 00	 call	 ?PrintFullTextWidthCut@ioComplexStringPrinter@@QAEXMMW4TextAlignType@@ME@Z ; ioComplexStringPrinter::PrintFullTextWidthCut

; 176  : 		iCnt++;

  00177	83 c3 10	 add	 ebx, 16			; 00000010H
$LN3@RenderDesc:

; 169  : 
; 170  : 	int iCnt  = 0;
; 171  : 	for( int i = 0 ; i < MAX_DESC ; i++ )

  0017a	83 c7 20	 add	 edi, 32			; 00000020H
  0017d	4e		 dec	 esi
  0017e	75 b7		 jne	 SHORT $LL5@RenderDesc
  00180	5f		 pop	 edi
  00181	5e		 pop	 esi
  00182	5b		 pop	 ebx

; 177  : 	}
; 178  : }

  00183	5d		 pop	 ebp
  00184	c2 08 00	 ret	 8
?RenderDesc@NewShopItemInfoWnd@@IAEXHH@Z ENDP		; NewShopItemInfoWnd::RenderDesc
_TEXT	ENDS
PUBLIC	??_C@_0CB@EIDFPEJH@NewShopItemInfoWnd?3?3RenderBottom@ ; `string'
PUBLIC	?RenderBottom@NewShopItemInfoWnd@@IAEXHH@Z	; NewShopItemInfoWnd::RenderBottom
EXTRN	__imp_?PrintText@ioFontManager@@QAAXMMMPBDZZ:PROC
EXTRN	__imp_?GetWidth@ioWnd@@QBEHXZ:PROC
;	COMDAT ??_C@_0CB@EIDFPEJH@NewShopItemInfoWnd?3?3RenderBottom@
CONST	SEGMENT
??_C@_0CB@EIDFPEJH@NewShopItemInfoWnd?3?3RenderBottom@ DB 'NewShopItemInf'
	DB	'oWnd::RenderBottom', 00H			; `string'
; Function compile flags: /Ogsp
CONST	ENDS
;	COMDAT ?RenderBottom@NewShopItemInfoWnd@@IAEXHH@Z
_TEXT	SEGMENT
_iXPos$ = 8						; size = 4
_iYPos$ = 12						; size = 4
?RenderBottom@NewShopItemInfoWnd@@IAEXHH@Z PROC		; NewShopItemInfoWnd::RenderBottom, COMDAT
; _this$ = ecx

; 545  : {

  00000	55		 push	 ebp
  00001	8b ec		 mov	 ebp, esp
  00003	53		 push	 ebx
  00004	56		 push	 esi
  00005	57		 push	 edi
  00006	8b f9		 mov	 edi, ecx

; 546  : 	enum 
; 547  : 	{
; 548  : 		TEXT_X_OFFSET = 52,
; 549  : 		TEXT_Y_OFFSET = 157,
; 550  : 
; 551  : 		LEFT_MARK_X_OFFSET = 71, 
; 552  : 	};
; 553  : 
; 554  : 	// xml  
; 555  : 	if( m_pMultiplyFrm )

  00008	33 db		 xor	 ebx, ebx
  0000a	39 9f b0 00 00
	00		 cmp	 DWORD PTR [edi+176], ebx
  00010	74 2e		 je	 SHORT $LN17@RenderBott

; 556  : 		m_pMultiplyFrm->Render( iXPos, iYPos, UI_RENDER_MULTIPLY );

  00012	66 0f 6e 45 0c	 movd	 xmm0, DWORD PTR _iYPos$[ebp]
  00017	8b 87 b0 00 00
	00		 mov	 eax, DWORD PTR [edi+176]
  0001d	8b 10		 mov	 edx, DWORD PTR [eax]
  0001f	53		 push	 ebx
  00020	53		 push	 ebx
  00021	53		 push	 ebx
  00022	6a 08		 push	 8
  00024	51		 push	 ecx
  00025	51		 push	 ecx
  00026	0f 5b c0	 cvtdq2ps xmm0, xmm0
  00029	f3 0f 11 44 24
	04		 movss	 DWORD PTR [esp+4], xmm0
  0002f	66 0f 6e 45 08	 movd	 xmm0, DWORD PTR _iXPos$[ebp]
  00034	0f 5b c0	 cvtdq2ps xmm0, xmm0
  00037	8b c8		 mov	 ecx, eax
  00039	f3 0f 11 04 24	 movss	 DWORD PTR [esp], xmm0
  0003e	ff 12		 call	 DWORD PTR [edx]
$LN17@RenderBott:

; 557  : 	
; 558  : 	if( m_eLimitRender == LR_DEFULT_LIMIT || m_eLimitRender == LR_ETC_LIMIT )

  00040	8b 87 6c 02 00
	00		 mov	 eax, DWORD PTR [edi+620]
  00046	83 f8 01	 cmp	 eax, 1
  00049	0f 84 07 01 00
	00		 je	 $LN12@RenderBott
  0004f	83 f8 02	 cmp	 eax, 2
  00052	0f 84 fe 00 00
	00		 je	 $LN12@RenderBott

; 578  : 		}
; 579  : 	}
; 580  : 	else
; 581  : 	{
; 582  : 		if( !m_bDecoEquip )

  00058	38 9f 69 02 00
	00		 cmp	 BYTE PTR [edi+617], bl
  0005e	75 2c		 jne	 SHORT $LN6@RenderBott

; 583  : 		{
; 584  : 			// xml  
; 585  : 			if( m_pLeft )

  00060	39 9f 64 02 00
	00		 cmp	 DWORD PTR [edi+612], ebx
  00066	74 5c		 je	 SHORT $LN3@RenderBott

; 586  : 				m_pLeft->Render( iXPos, iYPos );

  00068	8b 8f 64 02 00
	00		 mov	 ecx, DWORD PTR [edi+612]
  0006e	66 0f 6e 45 0c	 movd	 xmm0, DWORD PTR _iYPos$[ebp]
  00073	53		 push	 ebx
  00074	53		 push	 ebx
  00075	53		 push	 ebx
  00076	53		 push	 ebx
  00077	51		 push	 ecx
  00078	0f 5b c0	 cvtdq2ps xmm0, xmm0
  0007b	51		 push	 ecx
  0007c	f3 0f 11 44 24
	04		 movss	 DWORD PTR [esp+4], xmm0
  00082	66 0f 6e 45 08	 movd	 xmm0, DWORD PTR _iXPos$[ebp]
  00087	0f 5b c0	 cvtdq2ps xmm0, xmm0

; 587  : 		}
; 588  : 		else

  0008a	eb 2f		 jmp	 SHORT $LN18@RenderBott
$LN6@RenderBott:

; 589  : 		{
; 590  : 			// xml  
; 591  : 			if( m_pLeft )

  0008c	39 9f 64 02 00
	00		 cmp	 DWORD PTR [edi+612], ebx
  00092	74 30		 je	 SHORT $LN3@RenderBott

; 592  : 				m_pLeft->Render( iXPos + LEFT_MARK_X_OFFSET, iYPos );

  00094	8b 8f 64 02 00
	00		 mov	 ecx, DWORD PTR [edi+612]
  0009a	66 0f 6e 45 0c	 movd	 xmm0, DWORD PTR _iYPos$[ebp]
  0009f	8b 55 08	 mov	 edx, DWORD PTR _iXPos$[ebp]
  000a2	53		 push	 ebx
  000a3	53		 push	 ebx
  000a4	53		 push	 ebx
  000a5	53		 push	 ebx
  000a6	51		 push	 ecx
  000a7	0f 5b c0	 cvtdq2ps xmm0, xmm0
  000aa	51		 push	 ecx
  000ab	f3 0f 11 44 24
	04		 movss	 DWORD PTR [esp+4], xmm0
  000b1	83 c2 47	 add	 edx, 71			; 00000047H
  000b4	0f 57 c0	 xorps	 xmm0, xmm0
  000b7	f3 0f 2a c2	 cvtsi2ss xmm0, edx
$LN18@RenderBott:
  000bb	8b 01		 mov	 eax, DWORD PTR [ecx]
  000bd	f3 0f 11 04 24	 movss	 DWORD PTR [esp], xmm0
  000c2	ff 10		 call	 DWORD PTR [eax]
$LN3@RenderBott:

; 593  : 		}
; 594  : 
; 595  : 		g_FontMgr.SetAlignType( TAT_CENTER );

  000c4	8b 35 00 00 00
	00		 mov	 esi, DWORD PTR __imp_?GetSingleton@ioFontManager@@SAAAV1@XZ
  000ca	6a 01		 push	 1
  000cc	ff d6		 call	 esi
  000ce	8b c8		 mov	 ecx, eax
  000d0	ff 15 00 00 00
	00		 call	 DWORD PTR __imp_?SetAlignType@ioFontManager@@QAEXW4TextAlignType@@@Z

; 596  : 		g_FontMgr.SetTextStyle( TS_NORMAL );

  000d6	53		 push	 ebx
  000d7	ff d6		 call	 esi
  000d9	8b c8		 mov	 ecx, eax
  000db	ff 15 00 00 00
	00		 call	 DWORD PTR __imp_?SetTextStyle@ioFontManager@@QAEXW4TextStyle@@@Z

; 597  : 		g_FontMgr.SetBkColor( 0, 0, 0 );

  000e1	53		 push	 ebx
  000e2	53		 push	 ebx
  000e3	53		 push	 ebx
  000e4	ff d6		 call	 esi
  000e6	8b c8		 mov	 ecx, eax
  000e8	ff 15 00 00 00
	00		 call	 DWORD PTR __imp_?SetBkColor@ioFontManager@@QAEXHHH@Z

; 598  : 		g_FontMgr.SetTextColor( TCT_DEFAULT_GRAY );

  000ee	68 6e 6e 6e ff	 push	 -9539986		; ff6e6e6eH
  000f3	ff d6		 call	 esi
  000f5	8b c8		 mov	 ecx, eax
  000f7	ff 15 00 00 00
	00		 call	 DWORD PTR __imp_?SetTextColor@ioFontManager@@QAEXK@Z

; 599  : 		if( !m_bDecoEquip )
; 600  : 			g_FontMgr.PrintText( iXPos + TEXT_X_OFFSET, iYPos + TEXT_Y_OFFSET, FONT_SIZE_12, STR(1) );

  000fd	53		 push	 ebx
  000fe	38 9f 69 02 00
	00		 cmp	 BYTE PTR [edi+617], bl
  00104	75 4c		 jne	 SHORT $LN2@RenderBott
  00106	6a 01		 push	 1
$LN20@RenderBott:
  00108	68 00 00 00 00	 push	 OFFSET ??_C@_00CNPNBAHC@?$AA@
  0010d	68 00 00 00 00	 push	 OFFSET ??_C@_0CB@EIDFPEJH@NewShopItemInfoWnd?3?3RenderBottom@
  00112	ff 15 00 00 00
	00		 call	 DWORD PTR __imp_?GetSingleton@ioStringManager@@SAAAV1@XZ
  00118	8b c8		 mov	 ecx, eax
  0011a	ff 15 00 00 00
	00		 call	 DWORD PTR __imp_?GetString@ioStringManager@@QAEPADPBD0HW4FileNamePrefix@1@@Z
  00120	f3 0f 10 05 00
	00 00 00	 movss	 xmm0, DWORD PTR __real@3f19999a
  00128	50		 push	 eax
  00129	8b 45 0c	 mov	 eax, DWORD PTR _iYPos$[ebp]
  0012c	83 ec 0c	 sub	 esp, 12			; 0000000cH
  0012f	f3 0f 11 44 24
	08		 movss	 DWORD PTR [esp+8], xmm0
  00135	05 9d 00 00 00	 add	 eax, 157		; 0000009dH
  0013a	0f 57 c0	 xorps	 xmm0, xmm0
  0013d	f3 0f 2a c0	 cvtsi2ss xmm0, eax
  00141	8b 45 08	 mov	 eax, DWORD PTR _iXPos$[ebp]
  00144	f3 0f 11 44 24
	04		 movss	 DWORD PTR [esp+4], xmm0
  0014a	83 c0 34	 add	 eax, 52			; 00000034H

; 601  : 		else

  0014d	e9 1b 01 00 00	 jmp	 $LN19@RenderBott
$LN2@RenderBott:

; 602  : 			g_FontMgr.PrintText( iXPos + TEXT_X_OFFSET, iYPos + TEXT_Y_OFFSET, FONT_SIZE_12, STR(4) );

  00152	6a 04		 push	 4
  00154	eb b2		 jmp	 SHORT $LN20@RenderBott
$LN12@RenderBott:

; 559  : 	{
; 560  : 		g_FontMgr.SetAlignType( TAT_CENTER );

  00156	8b 35 00 00 00
	00		 mov	 esi, DWORD PTR __imp_?GetSingleton@ioFontManager@@SAAAV1@XZ
  0015c	6a 01		 push	 1
  0015e	ff d6		 call	 esi
  00160	8b c8		 mov	 ecx, eax
  00162	ff 15 00 00 00
	00		 call	 DWORD PTR __imp_?SetAlignType@ioFontManager@@QAEXW4TextAlignType@@@Z

; 561  : 		g_FontMgr.SetTextStyle( TS_NORMAL );

  00168	53		 push	 ebx
  00169	ff d6		 call	 esi
  0016b	8b c8		 mov	 ecx, eax
  0016d	ff 15 00 00 00
	00		 call	 DWORD PTR __imp_?SetTextStyle@ioFontManager@@QAEXW4TextStyle@@@Z

; 562  : 		g_FontMgr.SetBkColor( 0, 0, 0 );

  00173	53		 push	 ebx
  00174	53		 push	 ebx
  00175	53		 push	 ebx
  00176	ff d6		 call	 esi
  00178	8b c8		 mov	 ecx, eax
  0017a	ff 15 00 00 00
	00		 call	 DWORD PTR __imp_?SetBkColor@ioFontManager@@QAEXHHH@Z

; 563  : 		g_FontMgr.SetTextColor( TCT_DEFAULT_GRAY );

  00180	68 6e 6e 6e ff	 push	 -9539986		; ff6e6e6eH
  00185	ff d6		 call	 esi
  00187	8b c8		 mov	 ecx, eax
  00189	ff 15 00 00 00
	00		 call	 DWORD PTR __imp_?SetTextColor@ioFontManager@@QAEXK@Z

; 564  : 
; 565  : 		int iValue3 = 0;
; 566  : 		if( m_eLimitRender == LR_ETC_LIMIT )

  0018f	83 bf 6c 02 00
	00 02		 cmp	 DWORD PTR [edi+620], 2
  00196	75 08		 jne	 SHORT $LN11@RenderBott

; 567  : 			iValue3 = m_ItemInfo.m_iLimit;

  00198	8b 87 04 03 00
	00		 mov	 eax, DWORD PTR [edi+772]

; 568  : 		else

  0019e	eb 0d		 jmp	 SHORT $LN10@RenderBott
$LN11@RenderBott:

; 569  : 			iValue3 = m_ItemInfo.GetValue3(1);

  001a0	6a 01		 push	 1
  001a2	8d 8f 70 02 00
	00		 lea	 ecx, DWORD PTR [edi+624]
  001a8	e8 00 00 00 00	 call	 ?GetValue3@tagNewShopItemInfo@@QBEHH@Z ; tagNewShopItemInfo::GetValue3
$LN10@RenderBott:

; 570  : 
; 571  : 		if( iValue3 != EVENT_GOODS_INFINITY_COUNT )

  001ad	83 f8 ff	 cmp	 eax, -1
  001b0	74 6a		 je	 SHORT $LN9@RenderBott

; 572  : 		{
; 573  : 			g_FontMgr.PrintText( iXPos + (GetWidth() / 2), iYPos + TEXT_Y_OFFSET, FONT_SIZE_12, STR(2), iValue3 );

  001b2	50		 push	 eax
  001b3	53		 push	 ebx
  001b4	6a 02		 push	 2
  001b6	68 00 00 00 00	 push	 OFFSET ??_C@_00CNPNBAHC@?$AA@
  001bb	68 00 00 00 00	 push	 OFFSET ??_C@_0CB@EIDFPEJH@NewShopItemInfoWnd?3?3RenderBottom@
  001c0	ff 15 00 00 00
	00		 call	 DWORD PTR __imp_?GetSingleton@ioStringManager@@SAAAV1@XZ
  001c6	8b c8		 mov	 ecx, eax
  001c8	ff 15 00 00 00
	00		 call	 DWORD PTR __imp_?GetString@ioStringManager@@QAEPADPBD0HW4FileNamePrefix@1@@Z
  001ce	f3 0f 10 05 00
	00 00 00	 movss	 xmm0, DWORD PTR __real@3f19999a
  001d6	50		 push	 eax
  001d7	8b 45 0c	 mov	 eax, DWORD PTR _iYPos$[ebp]
  001da	51		 push	 ecx
  001db	51		 push	 ecx
  001dc	f3 0f 11 44 24
	04		 movss	 DWORD PTR [esp+4], xmm0
  001e2	05 9d 00 00 00	 add	 eax, 157		; 0000009dH
  001e7	0f 57 c0	 xorps	 xmm0, xmm0
  001ea	f3 0f 2a c0	 cvtsi2ss xmm0, eax
  001ee	8b cf		 mov	 ecx, edi
  001f0	f3 0f 11 04 24	 movss	 DWORD PTR [esp], xmm0
  001f5	ff 15 00 00 00
	00		 call	 DWORD PTR __imp_?GetWidth@ioWnd@@QBEHXZ
  001fb	99		 cdq
  001fc	2b c2		 sub	 eax, edx
  001fe	d1 f8		 sar	 eax, 1
  00200	03 45 08	 add	 eax, DWORD PTR _iXPos$[ebp]
  00203	0f 57 c0	 xorps	 xmm0, xmm0
  00206	51		 push	 ecx
  00207	f3 0f 2a c0	 cvtsi2ss xmm0, eax
  0020b	f3 0f 11 04 24	 movss	 DWORD PTR [esp], xmm0
  00210	ff d6		 call	 esi
  00212	8b c8		 mov	 ecx, eax
  00214	ff 15 00 00 00
	00		 call	 DWORD PTR __imp_?PrintText@ioFontManager@@QAEXMMMPBDH@Z

; 574  : 		}
; 575  : 		else

  0021a	eb 69		 jmp	 SHORT $LN8@RenderBott
$LN9@RenderBott:

; 576  : 		{
; 577  : 			g_FontMgr.PrintText( iXPos + (GetWidth() / 2), iYPos + TEXT_Y_OFFSET, FONT_SIZE_12, STR(3) );

  0021c	53		 push	 ebx
  0021d	6a 03		 push	 3
  0021f	68 00 00 00 00	 push	 OFFSET ??_C@_00CNPNBAHC@?$AA@
  00224	68 00 00 00 00	 push	 OFFSET ??_C@_0CB@EIDFPEJH@NewShopItemInfoWnd?3?3RenderBottom@
  00229	ff 15 00 00 00
	00		 call	 DWORD PTR __imp_?GetSingleton@ioStringManager@@SAAAV1@XZ
  0022f	8b c8		 mov	 ecx, eax
  00231	ff 15 00 00 00
	00		 call	 DWORD PTR __imp_?GetString@ioStringManager@@QAEPADPBD0HW4FileNamePrefix@1@@Z
  00237	f3 0f 10 05 00
	00 00 00	 movss	 xmm0, DWORD PTR __real@3f19999a
  0023f	50		 push	 eax
  00240	8b 45 0c	 mov	 eax, DWORD PTR _iYPos$[ebp]
  00243	51		 push	 ecx
  00244	51		 push	 ecx
  00245	f3 0f 11 44 24
	04		 movss	 DWORD PTR [esp+4], xmm0
  0024b	05 9d 00 00 00	 add	 eax, 157		; 0000009dH
  00250	0f 57 c0	 xorps	 xmm0, xmm0
  00253	f3 0f 2a c0	 cvtsi2ss xmm0, eax
  00257	8b cf		 mov	 ecx, edi
  00259	f3 0f 11 04 24	 movss	 DWORD PTR [esp], xmm0
  0025e	ff 15 00 00 00
	00		 call	 DWORD PTR __imp_?GetWidth@ioWnd@@QBEHXZ
  00264	99		 cdq
  00265	2b c2		 sub	 eax, edx
  00267	d1 f8		 sar	 eax, 1
  00269	03 45 08	 add	 eax, DWORD PTR _iXPos$[ebp]
  0026c	51		 push	 ecx
$LN19@RenderBott:
  0026d	0f 57 c0	 xorps	 xmm0, xmm0
  00270	f3 0f 2a c0	 cvtsi2ss xmm0, eax
  00274	f3 0f 11 04 24	 movss	 DWORD PTR [esp], xmm0
  00279	ff d6		 call	 esi
  0027b	50		 push	 eax
  0027c	ff 15 00 00 00
	00		 call	 DWORD PTR __imp_?PrintText@ioFontManager@@QAAXMMMPBDZZ
  00282	83 c4 14	 add	 esp, 20			; 00000014H
$LN8@RenderBott:
  00285	5f		 pop	 edi
  00286	5e		 pop	 esi
  00287	5b		 pop	 ebx

; 603  : 	}
; 604  : }

  00288	5d		 pop	 ebp
  00289	c2 08 00	 ret	 8
?RenderBottom@NewShopItemInfoWnd@@IAEXHH@Z ENDP		; NewShopItemInfoWnd::RenderBottom
_TEXT	ENDS
PUBLIC	?_Buy@?$vector@HV?$allocator@H@std@@@std@@IAE_NI@Z ; std::vector<int,std::allocator<int> >::_Buy
; Function compile flags: /Ogsp
; File c:\program files (x86)\microsoft visual studio 10.0\vc\include\vector
;	COMDAT ?_Buy@?$vector@HV?$allocator@H@std@@@std@@IAE_NI@Z
_TEXT	SEGMENT
__Capacity$ = 8						; size = 4
?_Buy@?$vector@HV?$allocator@H@std@@@std@@IAE_NI@Z PROC	; std::vector<int,std::allocator<int> >::_Buy, COMDAT
; _this$ = ecx

; 1250 : 		{	// allocate array with _Capacity elements

  00000	55		 push	 ebp
  00001	8b ec		 mov	 ebp, esp
  00003	56		 push	 esi

; 1251 : 		this->_Myfirst = 0;

  00004	33 c0		 xor	 eax, eax
  00006	57		 push	 edi

; 1252 : 		this->_Mylast = 0;
; 1253 : 		this->_Myend = 0;
; 1254 : 
; 1255 : 		if (_Capacity == 0)

  00007	8b 7d 08	 mov	 edi, DWORD PTR __Capacity$[ebp]
  0000a	8b f1		 mov	 esi, ecx
  0000c	89 06		 mov	 DWORD PTR [esi], eax
  0000e	89 46 04	 mov	 DWORD PTR [esi+4], eax
  00011	89 46 08	 mov	 DWORD PTR [esi+8], eax
  00014	3b f8		 cmp	 edi, eax
  00016	75 04		 jne	 SHORT $LN4@Buy

; 1256 : 			return (false);

  00018	32 c0		 xor	 al, al
  0001a	eb 29		 jmp	 SHORT $LN5@Buy
$LN4@Buy:

; 1257 : 		else if (max_size() < _Capacity)

  0001c	81 ff ff ff ff
	3f		 cmp	 edi, 1073741823		; 3fffffffH
  00022	76 0b		 jbe	 SHORT $LN2@Buy

; 1258 : 			_Xlen();	// result too long

  00024	68 00 00 00 00	 push	 OFFSET ??_C@_0BD@OLBABOEK@vector?$DMT?$DO?5too?5long?$AA@
  00029	ff 15 00 00 00
	00		 call	 DWORD PTR __imp_?_Xlength_error@std@@YAXPBD@Z
$LN19@Buy:
$LN2@Buy:

; 1259 : 		else
; 1260 : 			{	// nonempty array, allocate storage
; 1261 : 			this->_Myfirst = this->_Alval.allocate(_Capacity);

  0002f	50		 push	 eax
  00030	57		 push	 edi
  00031	e8 00 00 00 00	 call	 ??$_Allocate@H@std@@YAPAHIPAH@Z ; std::_Allocate<int>
  00036	89 06		 mov	 DWORD PTR [esi], eax

; 1262 : 			this->_Mylast = this->_Myfirst;

  00038	89 46 04	 mov	 DWORD PTR [esi+4], eax

; 1263 : 			this->_Myend = this->_Myfirst + _Capacity;

  0003b	8d 04 b8	 lea	 eax, DWORD PTR [eax+edi*4]
  0003e	59		 pop	 ecx
  0003f	89 46 08	 mov	 DWORD PTR [esi+8], eax
  00042	59		 pop	 ecx

; 1264 : 			}
; 1265 : 		return (true);

  00043	b0 01		 mov	 al, 1
$LN5@Buy:
  00045	5f		 pop	 edi
  00046	5e		 pop	 esi

; 1266 : 		}

  00047	5d		 pop	 ebp
  00048	c2 04 00	 ret	 4
$LN18@Buy:
?_Buy@?$vector@HV?$allocator@H@std@@@std@@IAE_NI@Z ENDP	; std::vector<int,std::allocator<int> >::_Buy
_TEXT	ENDS
PUBLIC	??$_Ucopy@PAH@?$vector@HV?$allocator@H@std@@@std@@IAEPAHPAH00@Z ; std::vector<int,std::allocator<int> >::_Ucopy<int *>
; Function compile flags: /Ogsp
;	COMDAT ??$_Ucopy@PAH@?$vector@HV?$allocator@H@std@@@std@@IAEPAHPAH00@Z
_TEXT	SEGMENT
__First$ = 8						; size = 4
__Last$ = 12						; size = 4
__Cat$507419 = 16					; size = 1
__Ptr$ = 16						; size = 4
??$_Ucopy@PAH@?$vector@HV?$allocator@H@std@@@std@@IAEPAHPAH00@Z PROC ; std::vector<int,std::allocator<int> >::_Ucopy<int *>, COMDAT
; _this$ = ecx

; 1315 : 		pointer _Ucopy(_Iter _First, _Iter _Last, pointer _Ptr)

  00000	55		 push	 ebp
  00001	8b ec		 mov	 ebp, esp

; 1316 : 		{	// copy initializing [_First, _Last), using allocator
; 1317 : 		return (_Uninitialized_copy(_First, _Last,
; 1318 : 			_Ptr, this->_Alval));

  00003	ff 75 10	 push	 DWORD PTR __Cat$507419[ebp]
  00006	83 c1 0c	 add	 ecx, 12			; 0000000cH
  00009	51		 push	 ecx
  0000a	ff 75 10	 push	 DWORD PTR __Ptr$[ebp]
  0000d	ff 75 0c	 push	 DWORD PTR __Last$[ebp]
  00010	ff 75 08	 push	 DWORD PTR __First$[ebp]
  00013	e8 00 00 00 00	 call	 ??$_Uninit_copy@HH@std@@YAPAHPAH00AAV?$allocator@H@0@U_Scalar_ptr_iterator_tag@0@@Z ; std::_Uninit_copy<int,int>
  00018	83 c4 14	 add	 esp, 20			; 00000014H

; 1319 : 		}

  0001b	5d		 pop	 ebp
  0001c	c2 0c 00	 ret	 12			; 0000000cH
??$_Ucopy@PAH@?$vector@HV?$allocator@H@std@@@std@@IAEPAHPAH00@Z ENDP ; std::vector<int,std::allocator<int> >::_Ucopy<int *>
_TEXT	ENDS
PUBLIC	??0?$vector@HV?$allocator@H@std@@@std@@QAE@XZ	; std::vector<int,std::allocator<int> >::vector<int,std::allocator<int> >
; Function compile flags: /Ogsp
;	COMDAT ??0?$vector@HV?$allocator@H@std@@@std@@QAE@XZ
_TEXT	SEGMENT
??0?$vector@HV?$allocator@H@std@@@std@@QAE@XZ PROC	; std::vector<int,std::allocator<int> >::vector<int,std::allocator<int> >, COMDAT
; _this$ = ecx

; 507  : 		{	// construct empty vector

  00000	8b c1		 mov	 eax, ecx
  00002	33 c9		 xor	 ecx, ecx
  00004	89 08		 mov	 DWORD PTR [eax], ecx
  00006	89 48 04	 mov	 DWORD PTR [eax+4], ecx
  00009	89 48 08	 mov	 DWORD PTR [eax+8], ecx

; 508  : 		}

  0000c	c3		 ret	 0
??0?$vector@HV?$allocator@H@std@@@std@@QAE@XZ ENDP	; std::vector<int,std::allocator<int> >::vector<int,std::allocator<int> >
_TEXT	ENDS
PUBLIC	?_Destroy@?$vector@HV?$allocator@H@std@@@std@@IAEXPAH0@Z ; std::vector<int,std::allocator<int> >::_Destroy
; Function compile flags: /Ogsp
;	COMDAT ?_Destroy@?$vector@HV?$allocator@H@std@@@std@@IAEXPAH0@Z
_TEXT	SEGMENT
__First$ = 8						; size = 4
__Last$ = 12						; size = 4
?_Destroy@?$vector@HV?$allocator@H@std@@@std@@IAEXPAH0@Z PROC ; std::vector<int,std::allocator<int> >::_Destroy, COMDAT
; _this$ = ecx

; 1270 : 		_Destroy_range(_First, _Last, this->_Alval);
; 1271 : 		}

  00000	c2 08 00	 ret	 8
?_Destroy@?$vector@HV?$allocator@H@std@@@std@@IAEXPAH0@Z ENDP ; std::vector<int,std::allocator<int> >::_Destroy
_TEXT	ENDS
PUBLIC	??9?$_Vector_const_iterator@V?$_Vector_val@HV?$allocator@H@std@@@std@@@std@@QBE_NABV01@@Z ; std::_Vector_const_iterator<std::_Vector_val<int,std::allocator<int> > >::operator!=
; Function compile flags: /Ogsp
;	COMDAT ??9?$_Vector_const_iterator@V?$_Vector_val@HV?$allocator@H@std@@@std@@@std@@QBE_NABV01@@Z
_TEXT	SEGMENT
__Right$ = 8						; size = 4
??9?$_Vector_const_iterator@V?$_Vector_val@HV?$allocator@H@std@@@std@@@std@@QBE_NABV01@@Z PROC ; std::_Vector_const_iterator<std::_Vector_val<int,std::allocator<int> > >::operator!=, COMDAT
; _this$ = ecx

; 207  : 		{	// test for iterator inequality

  00000	55		 push	 ebp
  00001	8b ec		 mov	 ebp, esp

; 208  : 		return (!(*this == _Right));

  00003	8b 01		 mov	 eax, DWORD PTR [ecx]
  00005	8b 55 08	 mov	 edx, DWORD PTR __Right$[ebp]
  00008	33 c9		 xor	 ecx, ecx
  0000a	3b 02		 cmp	 eax, DWORD PTR [edx]
  0000c	0f 95 c0	 setne	 al

; 209  : 		}

  0000f	5d		 pop	 ebp
  00010	c2 04 00	 ret	 4
??9?$_Vector_const_iterator@V?$_Vector_val@HV?$allocator@H@std@@@std@@@std@@QBE_NABV01@@Z ENDP ; std::_Vector_const_iterator<std::_Vector_val<int,std::allocator<int> > >::operator!=
_TEXT	ENDS
PUBLIC	?OnRender@NewShopItemInfoWnd@@MAEXXZ		; NewShopItemInfoWnd::OnRender
EXTRN	__imp_?GetDerivedPosY@ioWnd@@QBEHXZ:PROC
EXTRN	__imp_?GetDerivedPosX@ioWnd@@QBEHXZ:PROC
EXTRN	__imp_?OnRender@ioButton@@MAEXXZ:PROC
; Function compile flags: /Ogsp
; File d:\lost saga for developer\youtube\tutorial\source\src\lsclient\gui\newshopiteminfownd.cpp
;	COMDAT ?OnRender@NewShopItemInfoWnd@@MAEXXZ
_TEXT	SEGMENT
?OnRender@NewShopItemInfoWnd@@MAEXXZ PROC		; NewShopItemInfoWnd::OnRender, COMDAT
; _this$ = ecx

; 117  : {

  00000	53		 push	 ebx
  00001	56		 push	 esi
  00002	57		 push	 edi
  00003	8b f1		 mov	 esi, ecx

; 118  : 	ioButton::OnRender();

  00005	ff 15 00 00 00
	00		 call	 DWORD PTR __imp_?OnRender@ioButton@@MAEXXZ

; 119  : 
; 120  : 	int iXPos = GetDerivedPosX();

  0000b	8b ce		 mov	 ecx, esi
  0000d	ff 15 00 00 00
	00		 call	 DWORD PTR __imp_?GetDerivedPosX@ioWnd@@QBEHXZ

; 121  : 	int iYPos = GetDerivedPosY();

  00013	8b ce		 mov	 ecx, esi
  00015	8b f8		 mov	 edi, eax
  00017	ff 15 00 00 00
	00		 call	 DWORD PTR __imp_?GetDerivedPosY@ioWnd@@QBEHXZ
  0001d	8b d8		 mov	 ebx, eax

; 122  : 
; 123  : 	RenderDesc( iXPos, iYPos );

  0001f	53		 push	 ebx
  00020	57		 push	 edi
  00021	8b ce		 mov	 ecx, esi
  00023	e8 00 00 00 00	 call	 ?RenderDesc@NewShopItemInfoWnd@@IAEXHH@Z ; NewShopItemInfoWnd::RenderDesc

; 124  : 
; 125  : 	if( m_bSelect )

  00028	33 d2		 xor	 edx, edx
  0002a	38 96 68 02 00
	00		 cmp	 BYTE PTR [esi+616], dl
  00030	74 31		 je	 SHORT $LN1@OnRender

; 126  : 	{
; 127  : 		// xml offset     .
; 128  : 		if( m_pSelectFrm )

  00032	39 96 5c 02 00
	00		 cmp	 DWORD PTR [esi+604], edx
  00038	74 29		 je	 SHORT $LN1@OnRender

; 129  : 			m_pSelectFrm->Render( iXPos, iYPos );

  0003a	8b 8e 5c 02 00
	00		 mov	 ecx, DWORD PTR [esi+604]
  00040	8b 01		 mov	 eax, DWORD PTR [ecx]
  00042	52		 push	 edx
  00043	52		 push	 edx
  00044	52		 push	 edx
  00045	52		 push	 edx
  00046	0f 57 c0	 xorps	 xmm0, xmm0
  00049	51		 push	 ecx
  0004a	f3 0f 2a c3	 cvtsi2ss xmm0, ebx
  0004e	51		 push	 ecx
  0004f	f3 0f 11 44 24
	04		 movss	 DWORD PTR [esp+4], xmm0
  00055	0f 57 c0	 xorps	 xmm0, xmm0
  00058	f3 0f 2a c7	 cvtsi2ss xmm0, edi
  0005c	f3 0f 11 04 24	 movss	 DWORD PTR [esp], xmm0
  00061	ff 10		 call	 DWORD PTR [eax]
$LN1@OnRender:

; 130  : 	}
; 131  : }

  00063	5f		 pop	 edi
  00064	5e		 pop	 esi
  00065	5b		 pop	 ebx
  00066	c3		 ret	 0
?OnRender@NewShopItemInfoWnd@@MAEXXZ ENDP		; NewShopItemInfoWnd::OnRender
_TEXT	ENDS
PUBLIC	?OnDrawNormal@NewShopItemInfoWnd@@MAEXHH@Z	; NewShopItemInfoWnd::OnDrawNormal
EXTRN	__imp_?OnDrawNormal@ioButton@@MAEXHH@Z:PROC
; Function compile flags: /Ogsp
;	COMDAT ?OnDrawNormal@NewShopItemInfoWnd@@MAEXHH@Z
_TEXT	SEGMENT
_iXPos$ = 8						; size = 4
_iYPos$ = 12						; size = 4
?OnDrawNormal@NewShopItemInfoWnd@@MAEXHH@Z PROC		; NewShopItemInfoWnd::OnDrawNormal, COMDAT
; _this$ = ecx

; 494  : {

  00000	55		 push	 ebp
  00001	8b ec		 mov	 ebp, esp
  00003	56		 push	 esi
  00004	8b f1		 mov	 esi, ecx

; 495  : 	if( m_ItemInfo.m_iShopMarkType == SHOP_MARK_TYPE_EVENT )

  00006	83 be 78 02 00
	00 04		 cmp	 DWORD PTR [esi+632], 4
  0000d	75 56		 jne	 SHORT $LN3@OnDrawNorm

; 496  : 	{
; 497  : 		if( m_pEventFrm )

  0000f	57		 push	 edi
  00010	33 ff		 xor	 edi, edi
  00012	39 be 60 02 00
	00		 cmp	 DWORD PTR [esi+608], edi
  00018	74 2d		 je	 SHORT $LN2@OnDrawNorm

; 498  : 			m_pEventFrm->Render( iXPos, iYPos );

  0001a	66 0f 6e 45 0c	 movd	 xmm0, DWORD PTR _iYPos$[ebp]
  0001f	8b 86 60 02 00
	00		 mov	 eax, DWORD PTR [esi+608]
  00025	8b 10		 mov	 edx, DWORD PTR [eax]
  00027	57		 push	 edi
  00028	57		 push	 edi
  00029	57		 push	 edi
  0002a	57		 push	 edi
  0002b	51		 push	 ecx
  0002c	51		 push	 ecx
  0002d	0f 5b c0	 cvtdq2ps xmm0, xmm0
  00030	f3 0f 11 44 24
	04		 movss	 DWORD PTR [esp+4], xmm0
  00036	66 0f 6e 45 08	 movd	 xmm0, DWORD PTR _iXPos$[ebp]
  0003b	0f 5b c0	 cvtdq2ps xmm0, xmm0
  0003e	8b c8		 mov	 ecx, eax
  00040	f3 0f 11 04 24	 movss	 DWORD PTR [esp], xmm0
  00045	ff 12		 call	 DWORD PTR [edx]
$LN2@OnDrawNorm:

; 499  : 
; 500  : 		RenderImageList( iXPos, iYPos, UI_RENDER_NORMAL );

  00047	8b 06		 mov	 eax, DWORD PTR [esi]
  00049	57		 push	 edi
  0004a	ff 75 0c	 push	 DWORD PTR _iYPos$[ebp]
  0004d	8b ce		 mov	 ecx, esi
  0004f	ff 75 08	 push	 DWORD PTR _iXPos$[ebp]
  00052	ff 50 6c	 call	 DWORD PTR [eax+108]

; 501  : 		RenderBottom( iXPos, iYPos );

  00055	ff 75 0c	 push	 DWORD PTR _iYPos$[ebp]
  00058	8b ce		 mov	 ecx, esi
  0005a	ff 75 08	 push	 DWORD PTR _iXPos$[ebp]
  0005d	e8 00 00 00 00	 call	 ?RenderBottom@NewShopItemInfoWnd@@IAEXHH@Z ; NewShopItemInfoWnd::RenderBottom
  00062	5f		 pop	 edi

; 502  : 	}
; 503  : 	else

  00063	eb 19		 jmp	 SHORT $LN1@OnDrawNorm
$LN3@OnDrawNorm:

; 504  : 	{
; 505  : 		ioButton::OnDrawNormal( iXPos, iYPos );

  00065	ff 75 0c	 push	 DWORD PTR _iYPos$[ebp]
  00068	ff 75 08	 push	 DWORD PTR _iXPos$[ebp]
  0006b	ff 15 00 00 00
	00		 call	 DWORD PTR __imp_?OnDrawNormal@ioButton@@MAEXHH@Z

; 506  : 		RenderBottom( iXPos, iYPos );

  00071	ff 75 0c	 push	 DWORD PTR _iYPos$[ebp]
  00074	8b ce		 mov	 ecx, esi
  00076	ff 75 08	 push	 DWORD PTR _iXPos$[ebp]
  00079	e8 00 00 00 00	 call	 ?RenderBottom@NewShopItemInfoWnd@@IAEXHH@Z ; NewShopItemInfoWnd::RenderBottom
$LN1@OnDrawNorm:
  0007e	5e		 pop	 esi

; 507  : 	}
; 508  : }

  0007f	5d		 pop	 ebp
  00080	c2 08 00	 ret	 8
?OnDrawNormal@NewShopItemInfoWnd@@MAEXHH@Z ENDP		; NewShopItemInfoWnd::OnDrawNormal
_TEXT	ENDS
PUBLIC	?OnDrawOvered@NewShopItemInfoWnd@@MAEXHH@Z	; NewShopItemInfoWnd::OnDrawOvered
EXTRN	__imp_?OnDrawOvered@ioButton@@MAEXHH@Z:PROC
; Function compile flags: /Ogsp
;	COMDAT ?OnDrawOvered@NewShopItemInfoWnd@@MAEXHH@Z
_TEXT	SEGMENT
_iXPos$ = 8						; size = 4
_iYPos$ = 12						; size = 4
?OnDrawOvered@NewShopItemInfoWnd@@MAEXHH@Z PROC		; NewShopItemInfoWnd::OnDrawOvered, COMDAT
; _this$ = ecx

; 511  : {

  00000	55		 push	 ebp
  00001	8b ec		 mov	 ebp, esp
  00003	56		 push	 esi
  00004	8b f1		 mov	 esi, ecx

; 512  : 	if( m_ItemInfo.m_iShopMarkType == SHOP_MARK_TYPE_EVENT )

  00006	83 be 78 02 00
	00 04		 cmp	 DWORD PTR [esi+632], 4
  0000d	75 56		 jne	 SHORT $LN3@OnDrawOver

; 513  : 	{
; 514  : 		if( m_pEventFrm )

  0000f	57		 push	 edi
  00010	33 ff		 xor	 edi, edi
  00012	39 be 60 02 00
	00		 cmp	 DWORD PTR [esi+608], edi
  00018	74 2d		 je	 SHORT $LN2@OnDrawOver

; 515  : 			m_pEventFrm->Render( iXPos, iYPos );

  0001a	66 0f 6e 45 0c	 movd	 xmm0, DWORD PTR _iYPos$[ebp]
  0001f	8b 86 60 02 00
	00		 mov	 eax, DWORD PTR [esi+608]
  00025	8b 10		 mov	 edx, DWORD PTR [eax]
  00027	57		 push	 edi
  00028	57		 push	 edi
  00029	57		 push	 edi
  0002a	57		 push	 edi
  0002b	51		 push	 ecx
  0002c	51		 push	 ecx
  0002d	0f 5b c0	 cvtdq2ps xmm0, xmm0
  00030	f3 0f 11 44 24
	04		 movss	 DWORD PTR [esp+4], xmm0
  00036	66 0f 6e 45 08	 movd	 xmm0, DWORD PTR _iXPos$[ebp]
  0003b	0f 5b c0	 cvtdq2ps xmm0, xmm0
  0003e	8b c8		 mov	 ecx, eax
  00040	f3 0f 11 04 24	 movss	 DWORD PTR [esp], xmm0
  00045	ff 12		 call	 DWORD PTR [edx]
$LN2@OnDrawOver:

; 516  : 
; 517  : 		RenderImageList( iXPos, iYPos, UI_RENDER_NORMAL );

  00047	8b 06		 mov	 eax, DWORD PTR [esi]
  00049	57		 push	 edi
  0004a	ff 75 0c	 push	 DWORD PTR _iYPos$[ebp]
  0004d	8b ce		 mov	 ecx, esi
  0004f	ff 75 08	 push	 DWORD PTR _iXPos$[ebp]
  00052	ff 50 6c	 call	 DWORD PTR [eax+108]

; 518  : 		RenderBottom( iXPos, iYPos );

  00055	ff 75 0c	 push	 DWORD PTR _iYPos$[ebp]
  00058	8b ce		 mov	 ecx, esi
  0005a	ff 75 08	 push	 DWORD PTR _iXPos$[ebp]
  0005d	e8 00 00 00 00	 call	 ?RenderBottom@NewShopItemInfoWnd@@IAEXHH@Z ; NewShopItemInfoWnd::RenderBottom
  00062	5f		 pop	 edi

; 519  : 	}
; 520  : 	else

  00063	eb 19		 jmp	 SHORT $LN1@OnDrawOver
$LN3@OnDrawOver:

; 521  : 	{
; 522  : 		ioButton::OnDrawOvered( iXPos, iYPos );

  00065	ff 75 0c	 push	 DWORD PTR _iYPos$[ebp]
  00068	ff 75 08	 push	 DWORD PTR _iXPos$[ebp]
  0006b	ff 15 00 00 00
	00		 call	 DWORD PTR __imp_?OnDrawOvered@ioButton@@MAEXHH@Z

; 523  : 		RenderBottom( iXPos, iYPos );

  00071	ff 75 0c	 push	 DWORD PTR _iYPos$[ebp]
  00074	8b ce		 mov	 ecx, esi
  00076	ff 75 08	 push	 DWORD PTR _iXPos$[ebp]
  00079	e8 00 00 00 00	 call	 ?RenderBottom@NewShopItemInfoWnd@@IAEXHH@Z ; NewShopItemInfoWnd::RenderBottom
$LN1@OnDrawOver:
  0007e	5e		 pop	 esi

; 524  : 	}
; 525  : }

  0007f	5d		 pop	 ebp
  00080	c2 08 00	 ret	 8
?OnDrawOvered@NewShopItemInfoWnd@@MAEXHH@Z ENDP		; NewShopItemInfoWnd::OnDrawOvered
_TEXT	ENDS
PUBLIC	?OnDrawPushed@NewShopItemInfoWnd@@MAEXHH@Z	; NewShopItemInfoWnd::OnDrawPushed
EXTRN	__imp_?OnDrawPushed@ioButton@@MAEXHH@Z:PROC
; Function compile flags: /Ogsp
;	COMDAT ?OnDrawPushed@NewShopItemInfoWnd@@MAEXHH@Z
_TEXT	SEGMENT
_iXPos$ = 8						; size = 4
_iYPos$ = 12						; size = 4
?OnDrawPushed@NewShopItemInfoWnd@@MAEXHH@Z PROC		; NewShopItemInfoWnd::OnDrawPushed, COMDAT
; _this$ = ecx

; 528  : {

  00000	55		 push	 ebp
  00001	8b ec		 mov	 ebp, esp
  00003	56		 push	 esi
  00004	8b f1		 mov	 esi, ecx

; 529  : 	if( m_ItemInfo.m_iShopMarkType == SHOP_MARK_TYPE_EVENT )

  00006	83 be 78 02 00
	00 04		 cmp	 DWORD PTR [esi+632], 4
  0000d	75 56		 jne	 SHORT $LN3@OnDrawPush

; 530  : 	{
; 531  : 		if( m_pEventFrm )

  0000f	57		 push	 edi
  00010	33 ff		 xor	 edi, edi
  00012	39 be 60 02 00
	00		 cmp	 DWORD PTR [esi+608], edi
  00018	74 2d		 je	 SHORT $LN2@OnDrawPush

; 532  : 			m_pEventFrm->Render( iXPos, iYPos );

  0001a	66 0f 6e 45 0c	 movd	 xmm0, DWORD PTR _iYPos$[ebp]
  0001f	8b 86 60 02 00
	00		 mov	 eax, DWORD PTR [esi+608]
  00025	8b 10		 mov	 edx, DWORD PTR [eax]
  00027	57		 push	 edi
  00028	57		 push	 edi
  00029	57		 push	 edi
  0002a	57		 push	 edi
  0002b	51		 push	 ecx
  0002c	51		 push	 ecx
  0002d	0f 5b c0	 cvtdq2ps xmm0, xmm0
  00030	f3 0f 11 44 24
	04		 movss	 DWORD PTR [esp+4], xmm0
  00036	66 0f 6e 45 08	 movd	 xmm0, DWORD PTR _iXPos$[ebp]
  0003b	0f 5b c0	 cvtdq2ps xmm0, xmm0
  0003e	8b c8		 mov	 ecx, eax
  00040	f3 0f 11 04 24	 movss	 DWORD PTR [esp], xmm0
  00045	ff 12		 call	 DWORD PTR [edx]
$LN2@OnDrawPush:

; 533  : 
; 534  : 		RenderImageList( iXPos, iYPos, UI_RENDER_NORMAL );

  00047	8b 06		 mov	 eax, DWORD PTR [esi]
  00049	57		 push	 edi
  0004a	ff 75 0c	 push	 DWORD PTR _iYPos$[ebp]
  0004d	8b ce		 mov	 ecx, esi
  0004f	ff 75 08	 push	 DWORD PTR _iXPos$[ebp]
  00052	ff 50 6c	 call	 DWORD PTR [eax+108]

; 535  : 		RenderBottom( iXPos, iYPos );

  00055	ff 75 0c	 push	 DWORD PTR _iYPos$[ebp]
  00058	8b ce		 mov	 ecx, esi
  0005a	ff 75 08	 push	 DWORD PTR _iXPos$[ebp]
  0005d	e8 00 00 00 00	 call	 ?RenderBottom@NewShopItemInfoWnd@@IAEXHH@Z ; NewShopItemInfoWnd::RenderBottom
  00062	5f		 pop	 edi

; 536  : 	}
; 537  : 	else

  00063	eb 19		 jmp	 SHORT $LN1@OnDrawPush
$LN3@OnDrawPush:

; 538  : 	{
; 539  : 		ioButton::OnDrawPushed( iXPos, iYPos );

  00065	ff 75 0c	 push	 DWORD PTR _iYPos$[ebp]
  00068	ff 75 08	 push	 DWORD PTR _iXPos$[ebp]
  0006b	ff 15 00 00 00
	00		 call	 DWORD PTR __imp_?OnDrawPushed@ioButton@@MAEXHH@Z

; 540  : 		RenderBottom( iXPos, iYPos );

  00071	ff 75 0c	 push	 DWORD PTR _iYPos$[ebp]
  00074	8b ce		 mov	 ecx, esi
  00076	ff 75 08	 push	 DWORD PTR _iXPos$[ebp]
  00079	e8 00 00 00 00	 call	 ?RenderBottom@NewShopItemInfoWnd@@IAEXHH@Z ; NewShopItemInfoWnd::RenderBottom
$LN1@OnDrawPush:
  0007e	5e		 pop	 esi

; 541  : 	}
; 542  : }

  0007f	5d		 pop	 ebp
  00080	c2 08 00	 ret	 8
?OnDrawPushed@NewShopItemInfoWnd@@MAEXHH@Z ENDP		; NewShopItemInfoWnd::OnDrawPushed
_TEXT	ENDS
PUBLIC	?erase@?$vector@HV?$allocator@H@std@@@std@@QAE?AV?$_Vector_iterator@V?$_Vector_val@HV?$allocator@H@std@@@std@@@2@V?$_Vector_const_iterator@V?$_Vector_val@HV?$allocator@H@std@@@std@@@2@0@Z ; std::vector<int,std::allocator<int> >::erase
; Function compile flags: /Ogsp
; File c:\program files (x86)\microsoft visual studio 10.0\vc\include\vector
;	COMDAT ?erase@?$vector@HV?$allocator@H@std@@@std@@QAE?AV?$_Vector_iterator@V?$_Vector_val@HV?$allocator@H@std@@@std@@@2@V?$_Vector_const_iterator@V?$_Vector_val@HV?$allocator@H@std@@@std@@@2@0@Z
_TEXT	SEGMENT
___$ReturnUdt$ = 8					; size = 4
__First_arg$ = 12					; size = 4
__Cat$507552 = 16					; size = 1
__Last_arg$ = 16					; size = 4
?erase@?$vector@HV?$allocator@H@std@@@std@@QAE?AV?$_Vector_iterator@V?$_Vector_val@HV?$allocator@H@std@@@std@@@2@V?$_Vector_const_iterator@V?$_Vector_val@HV?$allocator@H@std@@@std@@@2@0@Z PROC ; std::vector<int,std::allocator<int> >::erase, COMDAT
; _this$ = ecx

; 1190 : 		{	// erase [_First, _Last)

  00000	55		 push	 ebp
  00001	8b ec		 mov	 ebp, esp

; 1191 : 		iterator _First = _Make_iter(_First_arg);

  00003	8b 45 0c	 mov	 eax, DWORD PTR __First_arg$[ebp]
  00006	56		 push	 esi
  00007	57		 push	 edi
  00008	8b 7d 08	 mov	 edi, DWORD PTR ___$ReturnUdt$[ebp]
  0000b	8b f1		 mov	 esi, ecx
  0000d	89 07		 mov	 DWORD PTR [edi], eax

; 1192 : 		iterator _Last = _Make_iter(_Last_arg);
; 1193 : 
; 1194 : 		if (_First != _Last)

  0000f	3b 45 10	 cmp	 eax, DWORD PTR __Last_arg$[ebp]
  00012	74 16		 je	 SHORT $LN1@erase

; 1195 : 			{	// worth doing, copy down over hole
; 1196 :  #if _ITERATOR_DEBUG_LEVEL == 2
; 1197 : 			if (_Last < _First || _VICONT(_First) != this
; 1198 : 				|| _VIPTR(_First) < this->_Myfirst
; 1199 : 				|| this->_Mylast < _VIPTR(_Last))
; 1200 : 				_DEBUG_ERROR("vector erase iterator outside range");
; 1201 : 			pointer _Ptr = _Move(_VIPTR(_Last), this->_Mylast,
; 1202 : 				_VIPTR(_First));
; 1203 : 			_Orphan_range(_VIPTR(_First), this->_Mylast);
; 1204 : 
; 1205 :  #else /* _ITERATOR_DEBUG_LEVEL == 2 */
; 1206 : 			pointer _Ptr = _Move(_VIPTR(_Last), this->_Mylast,
; 1207 : 				_VIPTR(_First));

  00014	ff 75 10	 push	 DWORD PTR __Cat$507552[ebp]
  00017	8b 4e 04	 mov	 ecx, DWORD PTR [esi+4]
  0001a	50		 push	 eax
  0001b	51		 push	 ecx
  0001c	ff 75 10	 push	 DWORD PTR __Last_arg$[ebp]
  0001f	e8 00 00 00 00	 call	 ??$_Move@PAHPAH@std@@YAPAHPAH00U_Scalar_ptr_iterator_tag@0@@Z ; std::_Move<int *,int *>
  00024	83 c4 10	 add	 esp, 16			; 00000010H

; 1208 :  #endif /* _ITERATOR_DEBUG_LEVEL == 2 */
; 1209 : 
; 1210 : 			_Destroy(_Ptr, this->_Mylast);
; 1211 : 			this->_Mylast = _Ptr;

  00027	89 46 04	 mov	 DWORD PTR [esi+4], eax
$LN1@erase:

; 1212 : 			}
; 1213 : 		return (_First);

  0002a	8b c7		 mov	 eax, edi
  0002c	5f		 pop	 edi
  0002d	5e		 pop	 esi

; 1214 : 		}

  0002e	5d		 pop	 ebp
  0002f	c2 0c 00	 ret	 12			; 0000000cH
?erase@?$vector@HV?$allocator@H@std@@@std@@QAE?AV?$_Vector_iterator@V?$_Vector_val@HV?$allocator@H@std@@@std@@@2@V?$_Vector_const_iterator@V?$_Vector_val@HV?$allocator@H@std@@@std@@@2@0@Z ENDP ; std::vector<int,std::allocator<int> >::erase
_TEXT	ENDS
PUBLIC	?_Tidy@?$vector@HV?$allocator@H@std@@@std@@IAEXXZ ; std::vector<int,std::allocator<int> >::_Tidy
EXTRN	__imp_?_Orphan_all@_Container_base0@std@@QAEXXZ:PROC
; Function compile flags: /Ogsp
;	COMDAT ?_Tidy@?$vector@HV?$allocator@H@std@@@std@@IAEXXZ
_TEXT	SEGMENT
?_Tidy@?$vector@HV?$allocator@H@std@@@std@@IAEXXZ PROC	; std::vector<int,std::allocator<int> >::_Tidy, COMDAT
; _this$ = ecx

; 1301 : 		{	// free all storage

  00000	56		 push	 esi
  00001	8b f1		 mov	 esi, ecx

; 1302 : 		if (this->_Myfirst != 0)

  00003	83 3e 00	 cmp	 DWORD PTR [esi], 0
  00006	74 0e		 je	 SHORT $LN12@Tidy

; 1303 : 			{	// something to free, destroy and deallocate it
; 1304 : 			this->_Orphan_all();

  00008	ff 15 00 00 00
	00		 call	 DWORD PTR __imp_?_Orphan_all@_Container_base0@std@@QAEXXZ

; 1305 : 			_Destroy(this->_Myfirst, this->_Mylast);
; 1306 : 			this->_Alval.deallocate(this->_Myfirst,
; 1307 : 				this->_Myend - this->_Myfirst);

  0000e	ff 36		 push	 DWORD PTR [esi]
  00010	e8 00 00 00 00	 call	 ??3@YAXPAX@Z		; operator delete
  00015	59		 pop	 ecx
$LN12@Tidy:

; 1308 : 			}
; 1309 : 		this->_Myfirst = 0;

  00016	83 26 00	 and	 DWORD PTR [esi], 0

; 1310 : 		this->_Mylast = 0;

  00019	83 66 04 00	 and	 DWORD PTR [esi+4], 0

; 1311 : 		this->_Myend = 0;

  0001d	83 66 08 00	 and	 DWORD PTR [esi+8], 0
  00021	5e		 pop	 esi

; 1312 : 		}

  00022	c3		 ret	 0
?_Tidy@?$vector@HV?$allocator@H@std@@@std@@IAEXXZ ENDP	; std::vector<int,std::allocator<int> >::_Tidy
_TEXT	ENDS
PUBLIC	??1?$vector@HV?$allocator@H@std@@@std@@QAE@XZ	; std::vector<int,std::allocator<int> >::~vector<int,std::allocator<int> >
; Function compile flags: /Ogsp
;	COMDAT ??1?$vector@HV?$allocator@H@std@@@std@@QAE@XZ
_TEXT	SEGMENT
??1?$vector@HV?$allocator@H@std@@@std@@QAE@XZ PROC	; std::vector<int,std::allocator<int> >::~vector<int,std::allocator<int> >, COMDAT
; _this$ = ecx

; 705  : 		_Tidy();

  00000	e9 00 00 00 00	 jmp	 ?_Tidy@?$vector@HV?$allocator@H@std@@@std@@IAEXXZ ; std::vector<int,std::allocator<int> >::_Tidy
??1?$vector@HV?$allocator@H@std@@@std@@QAE@XZ ENDP	; std::vector<int,std::allocator<int> >::~vector<int,std::allocator<int> >
_TEXT	ENDS
PUBLIC	?clear@?$vector@HV?$allocator@H@std@@@std@@QAEXXZ ; std::vector<int,std::allocator<int> >::clear
; Function compile flags: /Ogsp
;	COMDAT ?clear@?$vector@HV?$allocator@H@std@@@std@@QAEXXZ
_TEXT	SEGMENT
$T507634 = -4						; size = 4
?clear@?$vector@HV?$allocator@H@std@@@std@@QAEXXZ PROC	; std::vector<int,std::allocator<int> >::clear, COMDAT
; _this$ = ecx

; 1217 : 		{	// erase all

  00000	55		 push	 ebp
  00001	8b ec		 mov	 ebp, esp
  00003	51		 push	 ecx

; 1218 : 		erase(begin(), end());

  00004	8b 41 04	 mov	 eax, DWORD PTR [ecx+4]
  00007	8b 11		 mov	 edx, DWORD PTR [ecx]
  00009	50		 push	 eax
  0000a	52		 push	 edx
  0000b	8d 45 fc	 lea	 eax, DWORD PTR $T507634[ebp]
  0000e	50		 push	 eax
  0000f	e8 00 00 00 00	 call	 ?erase@?$vector@HV?$allocator@H@std@@@std@@QAE?AV?$_Vector_iterator@V?$_Vector_val@HV?$allocator@H@std@@@std@@@2@V?$_Vector_const_iterator@V?$_Vector_val@HV?$allocator@H@std@@@std@@@2@0@Z ; std::vector<int,std::allocator<int> >::erase

; 1219 : 		}

  00014	c9		 leave
  00015	c3		 ret	 0
?clear@?$vector@HV?$allocator@H@std@@@std@@QAEXXZ ENDP	; std::vector<int,std::allocator<int> >::clear
_TEXT	ENDS
PUBLIC	??1tagNewShopItemInfo@@QAE@XZ			; tagNewShopItemInfo::~tagNewShopItemInfo
EXTRN	__imp_??1ioHashString@@QAE@XZ:PROC
EXTRN	___CxxFrameHandler3:PROC
EXTRN	__EH_epilog3:PROC
EXTRN	__EH_prolog3:PROC
;	COMDAT xdata$x
xdata$x	SEGMENT
__ehfuncinfo$??1tagNewShopItemInfo@@QAE@XZ DD 019930522H
	DD	09H
	DD	FLAT:__unwindtable$??1tagNewShopItemInfo@@QAE@XZ
	DD	2 DUP(00H)
	DD	2 DUP(00H)
	DD	00H
	DD	01H
__unwindtable$??1tagNewShopItemInfo@@QAE@XZ DD 0ffffffffH
	DD	FLAT:__unwindfunclet$??1tagNewShopItemInfo@@QAE@XZ$0
	DD	00H
	DD	FLAT:__unwindfunclet$??1tagNewShopItemInfo@@QAE@XZ$1
	DD	01H
	DD	FLAT:__unwindfunclet$??1tagNewShopItemInfo@@QAE@XZ$2
	DD	02H
	DD	FLAT:__unwindfunclet$??1tagNewShopItemInfo@@QAE@XZ$3
	DD	03H
	DD	FLAT:__unwindfunclet$??1tagNewShopItemInfo@@QAE@XZ$4
	DD	04H
	DD	FLAT:__unwindfunclet$??1tagNewShopItemInfo@@QAE@XZ$5
	DD	05H
	DD	FLAT:__unwindfunclet$??1tagNewShopItemInfo@@QAE@XZ$6
	DD	06H
	DD	FLAT:__unwindfunclet$??1tagNewShopItemInfo@@QAE@XZ$7
	DD	07H
	DD	FLAT:__unwindfunclet$??1tagNewShopItemInfo@@QAE@XZ$8
; Function compile flags: /Ogsp
xdata$x	ENDS
;	COMDAT ??1tagNewShopItemInfo@@QAE@XZ
_TEXT	SEGMENT
_this$ = -16						; size = 4
__$EHRec$ = -12						; size = 12
??1tagNewShopItemInfo@@QAE@XZ PROC			; tagNewShopItemInfo::~tagNewShopItemInfo, COMDAT
; _this$ = ecx
  00000	6a 04		 push	 4
  00002	b8 00 00 00 00	 mov	 eax, __ehhandler$??1tagNewShopItemInfo@@QAE@XZ
  00007	e8 00 00 00 00	 call	 __EH_prolog3
  0000c	8b f1		 mov	 esi, ecx
  0000e	89 75 f0	 mov	 DWORD PTR _this$[ebp], esi
  00011	8b 3d 00 00 00
	00		 mov	 edi, DWORD PTR __imp_??1ioHashString@@QAE@XZ
  00017	8d 8e bc 00 00
	00		 lea	 ecx, DWORD PTR [esi+188]
  0001d	c7 45 fc 08 00
	00 00		 mov	 DWORD PTR __$EHRec$[ebp+8], 8
  00024	ff d7		 call	 edi
  00026	8d 8e ac 00 00
	00		 lea	 ecx, DWORD PTR [esi+172]
  0002c	c6 45 fc 07	 mov	 BYTE PTR __$EHRec$[ebp+8], 7
  00030	ff d7		 call	 edi
  00032	8d 8e 98 00 00
	00		 lea	 ecx, DWORD PTR [esi+152]
  00038	c6 45 fc 06	 mov	 BYTE PTR __$EHRec$[ebp+8], 6
  0003c	e8 00 00 00 00	 call	 ?_Tidy@?$vector@HV?$allocator@H@std@@@std@@IAEXXZ ; std::vector<int,std::allocator<int> >::_Tidy
  00041	8d 8e 84 00 00
	00		 lea	 ecx, DWORD PTR [esi+132]
  00047	c6 45 fc 05	 mov	 BYTE PTR __$EHRec$[ebp+8], 5
  0004b	e8 00 00 00 00	 call	 ?_Tidy@?$vector@HV?$allocator@H@std@@@std@@IAEXXZ ; std::vector<int,std::allocator<int> >::_Tidy
  00050	8d 4e 68	 lea	 ecx, DWORD PTR [esi+104]
  00053	c6 45 fc 04	 mov	 BYTE PTR __$EHRec$[ebp+8], 4
  00057	e8 00 00 00 00	 call	 ?_Tidy@?$vector@HV?$allocator@H@std@@@std@@IAEXXZ ; std::vector<int,std::allocator<int> >::_Tidy
  0005c	8d 4e 58	 lea	 ecx, DWORD PTR [esi+88]
  0005f	c6 45 fc 03	 mov	 BYTE PTR __$EHRec$[ebp+8], 3
  00063	e8 00 00 00 00	 call	 ?_Tidy@?$vector@HV?$allocator@H@std@@@std@@IAEXXZ ; std::vector<int,std::allocator<int> >::_Tidy
  00068	8d 4e 40	 lea	 ecx, DWORD PTR [esi+64]
  0006b	c6 45 fc 02	 mov	 BYTE PTR __$EHRec$[ebp+8], 2
  0006f	e8 00 00 00 00	 call	 ?_Tidy@?$vector@HV?$allocator@H@std@@@std@@IAEXXZ ; std::vector<int,std::allocator<int> >::_Tidy
  00074	8d 4e 30	 lea	 ecx, DWORD PTR [esi+48]
  00077	c6 45 fc 01	 mov	 BYTE PTR __$EHRec$[ebp+8], 1
  0007b	e8 00 00 00 00	 call	 ?_Tidy@?$vector@HV?$allocator@H@std@@@std@@IAEXXZ ; std::vector<int,std::allocator<int> >::_Tidy
  00080	8d 4e 20	 lea	 ecx, DWORD PTR [esi+32]
  00083	c6 45 fc 00	 mov	 BYTE PTR __$EHRec$[ebp+8], 0
  00087	e8 00 00 00 00	 call	 ?_Tidy@?$vector@HV?$allocator@H@std@@@std@@IAEXXZ ; std::vector<int,std::allocator<int> >::_Tidy
  0008c	83 4d fc ff	 or	 DWORD PTR __$EHRec$[ebp+8], -1
  00090	8d 4e 10	 lea	 ecx, DWORD PTR [esi+16]
  00093	e8 00 00 00 00	 call	 ?_Tidy@?$vector@HV?$allocator@H@std@@@std@@IAEXXZ ; std::vector<int,std::allocator<int> >::_Tidy
  00098	e8 00 00 00 00	 call	 __EH_epilog3
  0009d	c3		 ret	 0
_TEXT	ENDS
;	COMDAT text$x
text$x	SEGMENT
__unwindfunclet$??1tagNewShopItemInfo@@QAE@XZ$0:
  00000	8b 4d f0	 mov	 ecx, DWORD PTR _this$[ebp]
  00003	83 c1 10	 add	 ecx, 16			; 00000010H
  00006	e9 00 00 00 00	 jmp	 ??1?$vector@HV?$allocator@H@std@@@std@@QAE@XZ ; std::vector<int,std::allocator<int> >::~vector<int,std::allocator<int> >
__unwindfunclet$??1tagNewShopItemInfo@@QAE@XZ$1:
  0000b	8b 4d f0	 mov	 ecx, DWORD PTR _this$[ebp]
  0000e	83 c1 20	 add	 ecx, 32			; 00000020H
  00011	e9 00 00 00 00	 jmp	 ??1?$vector@HV?$allocator@H@std@@@std@@QAE@XZ ; std::vector<int,std::allocator<int> >::~vector<int,std::allocator<int> >
__unwindfunclet$??1tagNewShopItemInfo@@QAE@XZ$2:
  00016	8b 4d f0	 mov	 ecx, DWORD PTR _this$[ebp]
  00019	83 c1 30	 add	 ecx, 48			; 00000030H
  0001c	e9 00 00 00 00	 jmp	 ??1?$vector@HV?$allocator@H@std@@@std@@QAE@XZ ; std::vector<int,std::allocator<int> >::~vector<int,std::allocator<int> >
__unwindfunclet$??1tagNewShopItemInfo@@QAE@XZ$3:
  00021	8b 4d f0	 mov	 ecx, DWORD PTR _this$[ebp]
  00024	83 c1 40	 add	 ecx, 64			; 00000040H
  00027	e9 00 00 00 00	 jmp	 ??1?$vector@HV?$allocator@H@std@@@std@@QAE@XZ ; std::vector<int,std::allocator<int> >::~vector<int,std::allocator<int> >
__unwindfunclet$??1tagNewShopItemInfo@@QAE@XZ$4:
  0002c	8b 4d f0	 mov	 ecx, DWORD PTR _this$[ebp]
  0002f	83 c1 58	 add	 ecx, 88			; 00000058H
  00032	e9 00 00 00 00	 jmp	 ??1?$vector@HV?$allocator@H@std@@@std@@QAE@XZ ; std::vector<int,std::allocator<int> >::~vector<int,std::allocator<int> >
__unwindfunclet$??1tagNewShopItemInfo@@QAE@XZ$5:
  00037	8b 4d f0	 mov	 ecx, DWORD PTR _this$[ebp]
  0003a	83 c1 68	 add	 ecx, 104		; 00000068H
  0003d	e9 00 00 00 00	 jmp	 ??1?$vector@HV?$allocator@H@std@@@std@@QAE@XZ ; std::vector<int,std::allocator<int> >::~vector<int,std::allocator<int> >
__unwindfunclet$??1tagNewShopItemInfo@@QAE@XZ$6:
  00042	8b 4d f0	 mov	 ecx, DWORD PTR _this$[ebp]
  00045	81 c1 84 00 00
	00		 add	 ecx, 132		; 00000084H
  0004b	e9 00 00 00 00	 jmp	 ??1?$vector@HV?$allocator@H@std@@@std@@QAE@XZ ; std::vector<int,std::allocator<int> >::~vector<int,std::allocator<int> >
__unwindfunclet$??1tagNewShopItemInfo@@QAE@XZ$7:
  00050	8b 4d f0	 mov	 ecx, DWORD PTR _this$[ebp]
  00053	81 c1 98 00 00
	00		 add	 ecx, 152		; 00000098H
  00059	e9 00 00 00 00	 jmp	 ??1?$vector@HV?$allocator@H@std@@@std@@QAE@XZ ; std::vector<int,std::allocator<int> >::~vector<int,std::allocator<int> >
__unwindfunclet$??1tagNewShopItemInfo@@QAE@XZ$8:
  0005e	8b 4d f0	 mov	 ecx, DWORD PTR _this$[ebp]
  00061	81 c1 ac 00 00
	00		 add	 ecx, 172		; 000000acH
  00067	ff 25 00 00 00
	00		 jmp	 DWORD PTR __imp_??1ioHashString@@QAE@XZ
__ehhandler$??1tagNewShopItemInfo@@QAE@XZ:
  0006d	8b 54 24 08	 mov	 edx, DWORD PTR [esp+8]
  00071	8d 42 0c	 lea	 eax, DWORD PTR [edx+12]
  00074	8b 4a ec	 mov	 ecx, DWORD PTR [edx-20]
  00077	33 c8		 xor	 ecx, eax
  00079	e8 00 00 00 00	 call	 @__security_check_cookie@4
  0007e	b8 00 00 00 00	 mov	 eax, OFFSET __ehfuncinfo$??1tagNewShopItemInfo@@QAE@XZ
  00083	e9 00 00 00 00	 jmp	 ___CxxFrameHandler3
text$x	ENDS
??1tagNewShopItemInfo@@QAE@XZ ENDP			; tagNewShopItemInfo::~tagNewShopItemInfo
PUBLIC	??_7NewShopItemInfoWnd@@6B@			; NewShopItemInfoWnd::`vftable'
PUBLIC	??1NewShopItemInfoWnd@@UAE@XZ			; NewShopItemInfoWnd::~NewShopItemInfoWnd
PUBLIC	??_R4NewShopItemInfoWnd@@6B@			; NewShopItemInfoWnd::`RTTI Complete Object Locator'
PUBLIC	??_R0?AVNewShopItemInfoWnd@@@8			; NewShopItemInfoWnd `RTTI Type Descriptor'
PUBLIC	??_R3NewShopItemInfoWnd@@8			; NewShopItemInfoWnd::`RTTI Class Hierarchy Descriptor'
PUBLIC	??_R2NewShopItemInfoWnd@@8			; NewShopItemInfoWnd::`RTTI Base Class Array'
PUBLIC	??_R1A@?0A@EA@NewShopItemInfoWnd@@8		; NewShopItemInfoWnd::`RTTI Base Class Descriptor at (0,-1,0,64)'
PUBLIC	??_R1A@?0A@EA@ioButton@@8			; ioButton::`RTTI Base Class Descriptor at (0,-1,0,64)'
PUBLIC	??_R0?AVioButton@@@8				; ioButton `RTTI Type Descriptor'
PUBLIC	??_R3ioButton@@8				; ioButton::`RTTI Class Hierarchy Descriptor'
PUBLIC	??_R2ioButton@@8				; ioButton::`RTTI Base Class Array'
PUBLIC	??_R1A@?0A@EA@ioWnd@@8				; ioWnd::`RTTI Base Class Descriptor at (0,-1,0,64)'
PUBLIC	??_R0?AVioWnd@@@8				; ioWnd `RTTI Type Descriptor'
PUBLIC	??_R3ioWnd@@8					; ioWnd::`RTTI Class Hierarchy Descriptor'
PUBLIC	??_R2ioWnd@@8					; ioWnd::`RTTI Base Class Array'
EXTRN	__imp_??1ioButton@@UAE@XZ:PROC
EXTRN	??_M@YGXPAXIHP6EX0@Z@Z:PROC			; `eh vector destructor iterator'
EXTRN	??1ioComplexStringPrinter@@QAE@XZ:PROC		; ioComplexStringPrinter::~ioComplexStringPrinter
EXTRN	?AddTooltipHelp@ioWnd@@UAEXABVioHashString@@00@Z:PROC ; ioWnd::AddTooltipHelp
EXTRN	?ParseExtraInfo@ioButton@@UAEXAAVioXMLElement@@@Z:PROC ; ioButton::ParseExtraInfo
EXTRN	?AddNamedRenderImage@ioWnd@@UAEXABVioHashString@@PAVioUIRenderImage@@@Z:PROC ; ioWnd::AddNamedRenderImage
EXTRN	?RemoveNamedRenderImage@ioWnd@@UAEXABVioHashString@@@Z:PROC ; ioWnd::RemoveNamedRenderImage
EXTRN	?GetNamedRenderImage@ioWnd@@UBEPAVioUIRenderImage@@ABVioHashString@@@Z:PROC ; ioWnd::GetNamedRenderImage
EXTRN	?SetWindowAlpha@ioButton@@UAEXH@Z:PROC		; ioButton::SetWindowAlpha
EXTRN	?SetActive@ioWnd@@UAEXXZ:PROC			; ioWnd::SetActive
EXTRN	?SetInActive@ioWnd@@UAEXXZ:PROC			; ioWnd::SetInActive
EXTRN	?ClearElementImageList@ioWnd@@UAEXXZ:PROC	; ioWnd::ClearElementImageList
EXTRN	?SetSize@ioWnd@@UAEXHH@Z:PROC			; ioWnd::SetSize
EXTRN	?SetPositionToDefault@ioWnd@@UAEXHH_N0@Z:PROC	; ioWnd::SetPositionToDefault
EXTRN	?IsNeedProcess@ioWnd@@UBE_NXZ:PROC		; ioWnd::IsNeedProcess
EXTRN	?IsCanMouseReaction@ioWnd@@UBE_NXZ:PROC		; ioWnd::IsCanMouseReaction
EXTRN	?AddChild@ioWnd@@UAEXPAV1@@Z:PROC		; ioWnd::AddChild
EXTRN	?DeleteChild@ioWnd@@UAEXK@Z:PROC		; ioWnd::DeleteChild
EXTRN	?DeleteAllChild@ioWnd@@UAEXXZ:PROC		; ioWnd::DeleteAllChild
EXTRN	?OnRenderShowAndHide@ioWnd@@MAE_NXZ:PROC	; ioWnd::OnRenderShowAndHide
EXTRN	?OnRenderShowAndHideByDefault@ioWnd@@MAE_NK@Z:PROC ; ioWnd::OnRenderShowAndHideByDefault
EXTRN	?OnRenderShowAndHideByTop@ioWnd@@MAE_NK@Z:PROC	; ioWnd::OnRenderShowAndHideByTop
EXTRN	?OnRenderShowAndHideByDown@ioWnd@@MAE_NK@Z:PROC	; ioWnd::OnRenderShowAndHideByDown
EXTRN	?OnRenderAfterChild@ioWnd@@MAEXXZ:PROC		; ioWnd::OnRenderAfterChild
EXTRN	?OnMouseProcess@ioWnd@@MAEXABVioMouse@@@Z:PROC	; ioWnd::OnMouseProcess
EXTRN	?CheckFrameReSize@ioButton@@MAEXHHHH@Z:PROC	; ioButton::CheckFrameReSize
EXTRN	?RenderImageList@ioWnd@@MAEXHHW4UIRenderType@@@Z:PROC ; ioWnd::RenderImageList
EXTRN	?iwm_create@ioWnd@@UAEXXZ:PROC			; ioWnd::iwm_create
EXTRN	?iwm_destroy@ioWnd@@UAEXXZ:PROC			; ioWnd::iwm_destroy
EXTRN	?iwm_lbuttondown@ioButton@@UAEXABVioMouse@@@Z:PROC ; ioButton::iwm_lbuttondown
EXTRN	?iwm_lbuttonup@ioButton@@UAEXABVioMouse@@@Z:PROC ; ioButton::iwm_lbuttonup
EXTRN	?iwm_lbuttonDBLCLK@ioButton@@UAEXABVioMouse@@@Z:PROC ; ioButton::iwm_lbuttonDBLCLK
EXTRN	?iwm_rbuttondown@ioButton@@UAEXABVioMouse@@@Z:PROC ; ioButton::iwm_rbuttondown
EXTRN	?iwm_rbuttonup@ioButton@@UAEXABVioMouse@@@Z:PROC ; ioButton::iwm_rbuttonup
EXTRN	?iwm_mouseover@ioButton@@UAEXABVioMouse@@@Z:PROC ; ioButton::iwm_mouseover
EXTRN	?iwm_mousemove@ioWnd@@UAEXABVioMouse@@@Z:PROC	; ioWnd::iwm_mousemove
EXTRN	?iwm_mouseleave@ioWnd@@UAEXABVioMouse@@@Z:PROC	; ioWnd::iwm_mouseleave
EXTRN	?iwm_vscroll@ioWnd@@UAEXKH@Z:PROC		; ioWnd::iwm_vscroll
EXTRN	?iwm_wheel@ioWnd@@UAEXH@Z:PROC			; ioWnd::iwm_wheel
EXTRN	?iwm_show@ioWnd@@UAEXXZ:PROC			; ioWnd::iwm_show
EXTRN	?iwm_hide@ioWnd@@UAEXXZ:PROC			; ioWnd::iwm_hide
EXTRN	?iwm_esc@ioWnd@@UAE_NXZ:PROC			; ioWnd::iwm_esc
EXTRN	?iwm_spacebar@ioWnd@@UAE_NXZ:PROC		; ioWnd::iwm_spacebar
EXTRN	?iwm_gototop@ioWnd@@UAEXXZ:PROC			; ioWnd::iwm_gototop
EXTRN	?iwm_dragenter@ioWnd@@UAE?AW4IWDropEffect@@PAVioDragItem@@ABVioMouse@@@Z:PROC ; ioWnd::iwm_dragenter
EXTRN	?iwm_dragover@ioWnd@@UAE?AW4IWDropEffect@@PAVioDragItem@@ABVioMouse@@@Z:PROC ; ioWnd::iwm_dragover
EXTRN	?iwm_dragleave@ioWnd@@UAEXXZ:PROC		; ioWnd::iwm_dragleave
EXTRN	?iwm_dropitem@ioWnd@@UAE_NPAVioDragItem@@ABVioMouse@@PAV1@@Z:PROC ; ioWnd::iwm_dropitem
EXTRN	?iwm_dropdone@ioWnd@@UAEXPAVioDragItem@@PAV1@_N@Z:PROC ; ioWnd::iwm_dropdone
EXTRN	?IsEXType@ioWnd@@UBE_NXZ:PROC			; ioWnd::IsEXType
EXTRN	?GetWndType@ioButton@@UBEKXZ:PROC		; ioButton::GetWndType
EXTRN	?RenderWnd@ioWnd@@UAEXXZ:PROC			; ioWnd::RenderWnd
EXTRN	?SetIDEX@ioWnd@@UAEXAAK_N@Z:PROC		; ioWnd::SetIDEX
EXTRN	?ParseXML@ioWnd@@UAEXAAVioXMLElement@@@Z:PROC	; ioWnd::ParseXML
EXTRN	?GetHeaderFileName@ioButton@@UAEPBDXZ:PROC	; ioButton::GetHeaderFileName
EXTRN	?GetTemplateName@ioButton@@UAEPBDXZ:PROC	; ioButton::GetTemplateName
EXTRN	?GetDefClassName@ioButton@@UBEPBDXZ:PROC	; ioButton::GetDefClassName
EXTRN	?_Clone@ioButton@@UAEPAVioWnd@@XZ:PROC		; ioButton::_Clone
EXTRN	?Copy@ioButton@@UAEXPAVioWnd@@@Z:PROC		; ioButton::Copy
EXTRN	?Save@ioWnd@@UAE_NAAVioXMLElement@@@Z:PROC	; ioWnd::Save
EXTRN	?SetSaveData@ioButton@@UAEXAAVioXMLElement@@@Z:PROC ; ioButton::SetSaveData
EXTRN	?SetPosX@ioWnd@@UAEXH@Z:PROC			; ioWnd::SetPosX
EXTRN	?SetPosY@ioWnd@@UAEXH@Z:PROC			; ioWnd::SetPosY
EXTRN	?SetWidth@ioWnd@@UAEXH@Z:PROC			; ioWnd::SetWidth
EXTRN	?SetHeight@ioWnd@@UAEXH@Z:PROC			; ioWnd::SetHeight
EXTRN	?GetNumFixedRenderFrame@ioButton@@UBEHXZ:PROC	; ioButton::GetNumFixedRenderFrame
EXTRN	?GetFixedRenderFrameType@ioButton@@UAEPBDH@Z:PROC ; ioButton::GetFixedRenderFrameType
EXTRN	?GetRenderFrame@ioButton@@UAEPAPAVioUIRenderElement@@PBD@Z:PROC ; ioButton::GetRenderFrame
EXTRN	?GetNumFixedRenderImage@ioButton@@UBEHXZ:PROC	; ioButton::GetNumFixedRenderImage
EXTRN	?GetFixedRenderImageType@ioButton@@UAEPBDH@Z:PROC ; ioButton::GetFixedRenderImageType
EXTRN	?GetRenderImage@ioButton@@UAEPAPAVioUIRenderElement@@PBD@Z:PROC ; ioButton::GetRenderImage
EXTRN	?AddEffect@ioWnd@@UAEXABVioHashString@@PAVioUI3DEffectRender@@@Z:PROC ; ioWnd::AddEffect
EXTRN	?GetEffect@ioWnd@@UAEPAVioUI3DEffectRender@@VioHashString@@@Z:PROC ; ioWnd::GetEffect
EXTRN	??_ENewShopItemInfoWnd@@UAEPAXI@Z:PROC		; NewShopItemInfoWnd::`vector deleting destructor'
EXTRN	?OnDrawOveredAdd@ioButton@@MAEXHH@Z:PROC	; ioButton::OnDrawOveredAdd
EXTRN	?OnDrawDisabled@ioButton@@MAEXHH@Z:PROC		; ioButton::OnDrawDisabled
EXTRN	?OnDrawExDisabledNormal@ioButton@@MAEXHH@Z:PROC	; ioButton::OnDrawExDisabledNormal
EXTRN	?OnDrawExDisabledOvered@ioButton@@MAEXHH@Z:PROC	; ioButton::OnDrawExDisabledOvered
EXTRN	?OnDrawExDisabledPushed@ioButton@@MAEXHH@Z:PROC	; ioButton::OnDrawExDisabledPushed
EXTRN	?OnDrawBack@ioButton@@MAEXHH@Z:PROC		; ioButton::OnDrawBack
EXTRN	?OnDrawNormalList@ioButton@@MAEXHH@Z:PROC	; ioButton::OnDrawNormalList
EXTRN	?OnDrawDisableList@ioButton@@MAEXHH@Z:PROC	; ioButton::OnDrawDisableList
;	COMDAT ??_R2ioWnd@@8
; File d:\lost saga for developer\youtube\tutorial\source\src\lsclient\gui\newshopiteminfownd.cpp
rdata$r	SEGMENT
??_R2ioWnd@@8 DD FLAT:??_R1A@?0A@EA@ioWnd@@8		; ioWnd::`RTTI Base Class Array'
rdata$r	ENDS
;	COMDAT ??_R3ioWnd@@8
rdata$r	SEGMENT
??_R3ioWnd@@8 DD 00H					; ioWnd::`RTTI Class Hierarchy Descriptor'
	DD	00H
	DD	01H
	DD	FLAT:??_R2ioWnd@@8
rdata$r	ENDS
;	COMDAT ??_R0?AVioWnd@@@8
_DATA	SEGMENT
??_R0?AVioWnd@@@8 DD FLAT:??_7type_info@@6B@		; ioWnd `RTTI Type Descriptor'
	DD	00H
	DB	'.?AVioWnd@@', 00H
_DATA	ENDS
;	COMDAT ??_R1A@?0A@EA@ioWnd@@8
rdata$r	SEGMENT
??_R1A@?0A@EA@ioWnd@@8 DD FLAT:??_R0?AVioWnd@@@8	; ioWnd::`RTTI Base Class Descriptor at (0,-1,0,64)'
	DD	00H
	DD	00H
	DD	0ffffffffH
	DD	00H
	DD	040H
	DD	FLAT:??_R3ioWnd@@8
rdata$r	ENDS
;	COMDAT ??_R2ioButton@@8
rdata$r	SEGMENT
??_R2ioButton@@8 DD FLAT:??_R1A@?0A@EA@ioButton@@8	; ioButton::`RTTI Base Class Array'
	DD	FLAT:??_R1A@?0A@EA@ioWnd@@8
rdata$r	ENDS
;	COMDAT ??_R3ioButton@@8
rdata$r	SEGMENT
??_R3ioButton@@8 DD 00H					; ioButton::`RTTI Class Hierarchy Descriptor'
	DD	00H
	DD	02H
	DD	FLAT:??_R2ioButton@@8
rdata$r	ENDS
;	COMDAT ??_R0?AVioButton@@@8
_DATA	SEGMENT
??_R0?AVioButton@@@8 DD FLAT:??_7type_info@@6B@		; ioButton `RTTI Type Descriptor'
	DD	00H
	DB	'.?AVioButton@@', 00H
_DATA	ENDS
;	COMDAT ??_R1A@?0A@EA@ioButton@@8
rdata$r	SEGMENT
??_R1A@?0A@EA@ioButton@@8 DD FLAT:??_R0?AVioButton@@@8	; ioButton::`RTTI Base Class Descriptor at (0,-1,0,64)'
	DD	01H
	DD	00H
	DD	0ffffffffH
	DD	00H
	DD	040H
	DD	FLAT:??_R3ioButton@@8
rdata$r	ENDS
;	COMDAT ??_R1A@?0A@EA@NewShopItemInfoWnd@@8
rdata$r	SEGMENT
??_R1A@?0A@EA@NewShopItemInfoWnd@@8 DD FLAT:??_R0?AVNewShopItemInfoWnd@@@8 ; NewShopItemInfoWnd::`RTTI Base Class Descriptor at (0,-1,0,64)'
	DD	02H
	DD	00H
	DD	0ffffffffH
	DD	00H
	DD	040H
	DD	FLAT:??_R3NewShopItemInfoWnd@@8
rdata$r	ENDS
;	COMDAT ??_R2NewShopItemInfoWnd@@8
rdata$r	SEGMENT
??_R2NewShopItemInfoWnd@@8 DD FLAT:??_R1A@?0A@EA@NewShopItemInfoWnd@@8 ; NewShopItemInfoWnd::`RTTI Base Class Array'
	DD	FLAT:??_R1A@?0A@EA@ioButton@@8
	DD	FLAT:??_R1A@?0A@EA@ioWnd@@8
rdata$r	ENDS
;	COMDAT ??_R3NewShopItemInfoWnd@@8
rdata$r	SEGMENT
??_R3NewShopItemInfoWnd@@8 DD 00H			; NewShopItemInfoWnd::`RTTI Class Hierarchy Descriptor'
	DD	00H
	DD	03H
	DD	FLAT:??_R2NewShopItemInfoWnd@@8
rdata$r	ENDS
;	COMDAT ??_R0?AVNewShopItemInfoWnd@@@8
_DATA	SEGMENT
??_R0?AVNewShopItemInfoWnd@@@8 DD FLAT:??_7type_info@@6B@ ; NewShopItemInfoWnd `RTTI Type Descriptor'
	DD	00H
	DB	'.?AVNewShopItemInfoWnd@@', 00H
_DATA	ENDS
;	COMDAT ??_R4NewShopItemInfoWnd@@6B@
rdata$r	SEGMENT
??_R4NewShopItemInfoWnd@@6B@ DD 00H			; NewShopItemInfoWnd::`RTTI Complete Object Locator'
	DD	00H
	DD	00H
	DD	FLAT:??_R0?AVNewShopItemInfoWnd@@@8
	DD	FLAT:??_R3NewShopItemInfoWnd@@8
rdata$r	ENDS
;	COMDAT ??_7NewShopItemInfoWnd@@6B@
CONST	SEGMENT
??_7NewShopItemInfoWnd@@6B@ DD FLAT:??_R4NewShopItemInfoWnd@@6B@ ; NewShopItemInfoWnd::`vftable'
	DD	FLAT:?AddRenderFrame@NewShopItemInfoWnd@@MAEXABVioHashString@@PAVioUIRenderFrame@@@Z
	DD	FLAT:?AddRenderImage@NewShopItemInfoWnd@@MAEXABVioHashString@@PAVioUIRenderImage@@@Z
	DD	FLAT:?AddTooltipHelp@ioWnd@@UAEXABVioHashString@@00@Z
	DD	FLAT:?ParseExtraInfo@ioButton@@UAEXAAVioXMLElement@@@Z
	DD	FLAT:?AddNamedRenderImage@ioWnd@@UAEXABVioHashString@@PAVioUIRenderImage@@@Z
	DD	FLAT:?RemoveNamedRenderImage@ioWnd@@UAEXABVioHashString@@@Z
	DD	FLAT:?GetNamedRenderImage@ioWnd@@UBEPAVioUIRenderImage@@ABVioHashString@@@Z
	DD	FLAT:?SetWindowAlpha@ioButton@@UAEXH@Z
	DD	FLAT:?SetActive@ioWnd@@UAEXXZ
	DD	FLAT:?SetInActive@ioWnd@@UAEXXZ
	DD	FLAT:?ClearElementImageList@ioWnd@@UAEXXZ
	DD	FLAT:?SetSize@ioWnd@@UAEXHH@Z
	DD	FLAT:?SetPositionToDefault@ioWnd@@UAEXHH_N0@Z
	DD	FLAT:?IsNeedProcess@ioWnd@@UBE_NXZ
	DD	FLAT:?IsCanMouseReaction@ioWnd@@UBE_NXZ
	DD	FLAT:?AddChild@ioWnd@@UAEXPAV1@@Z
	DD	FLAT:?DeleteChild@ioWnd@@UAEXK@Z
	DD	FLAT:?DeleteAllChild@ioWnd@@UAEXXZ
	DD	FLAT:?OnRenderShowAndHide@ioWnd@@MAE_NXZ
	DD	FLAT:?OnRenderShowAndHideByDefault@ioWnd@@MAE_NK@Z
	DD	FLAT:?OnRenderShowAndHideByTop@ioWnd@@MAE_NK@Z
	DD	FLAT:?OnRenderShowAndHideByDown@ioWnd@@MAE_NK@Z
	DD	FLAT:?OnRender@NewShopItemInfoWnd@@MAEXXZ
	DD	FLAT:?OnRenderAfterChild@ioWnd@@MAEXXZ
	DD	FLAT:?OnProcess@NewShopItemInfoWnd@@MAEXM@Z
	DD	FLAT:?OnMouseProcess@ioWnd@@MAEXABVioMouse@@@Z
	DD	FLAT:?CheckFrameReSize@ioButton@@MAEXHHHH@Z
	DD	FLAT:?RenderImageList@ioWnd@@MAEXHHW4UIRenderType@@@Z
	DD	FLAT:?iwm_create@ioWnd@@UAEXXZ
	DD	FLAT:?iwm_destroy@ioWnd@@UAEXXZ
	DD	FLAT:?iwm_lbuttondown@ioButton@@UAEXABVioMouse@@@Z
	DD	FLAT:?iwm_lbuttonup@ioButton@@UAEXABVioMouse@@@Z
	DD	FLAT:?iwm_lbuttonDBLCLK@ioButton@@UAEXABVioMouse@@@Z
	DD	FLAT:?iwm_rbuttondown@ioButton@@UAEXABVioMouse@@@Z
	DD	FLAT:?iwm_rbuttonup@ioButton@@UAEXABVioMouse@@@Z
	DD	FLAT:?iwm_command@NewShopItemInfoWnd@@UAEXPAVioWnd@@HK@Z
	DD	FLAT:?iwm_mouseover@ioButton@@UAEXABVioMouse@@@Z
	DD	FLAT:?iwm_mousemove@ioWnd@@UAEXABVioMouse@@@Z
	DD	FLAT:?iwm_mouseleave@ioWnd@@UAEXABVioMouse@@@Z
	DD	FLAT:?iwm_vscroll@ioWnd@@UAEXKH@Z
	DD	FLAT:?iwm_wheel@ioWnd@@UAEXH@Z
	DD	FLAT:?iwm_show@ioWnd@@UAEXXZ
	DD	FLAT:?iwm_hide@ioWnd@@UAEXXZ
	DD	FLAT:?iwm_esc@ioWnd@@UAE_NXZ
	DD	FLAT:?iwm_spacebar@ioWnd@@UAE_NXZ
	DD	FLAT:?iwm_gototop@ioWnd@@UAEXXZ
	DD	FLAT:?iwm_dragenter@ioWnd@@UAE?AW4IWDropEffect@@PAVioDragItem@@ABVioMouse@@@Z
	DD	FLAT:?iwm_dragover@ioWnd@@UAE?AW4IWDropEffect@@PAVioDragItem@@ABVioMouse@@@Z
	DD	FLAT:?iwm_dragleave@ioWnd@@UAEXXZ
	DD	FLAT:?iwm_dropitem@ioWnd@@UAE_NPAVioDragItem@@ABVioMouse@@PAV1@@Z
	DD	FLAT:?iwm_dropdone@ioWnd@@UAEXPAVioDragItem@@PAV1@_N@Z
	DD	FLAT:?IsEXType@ioWnd@@UBE_NXZ
	DD	FLAT:?GetWndType@ioButton@@UBEKXZ
	DD	FLAT:?RenderWnd@ioWnd@@UAEXXZ
	DD	FLAT:?SetIDEX@ioWnd@@UAEXAAK_N@Z
	DD	FLAT:?ParseXML@ioWnd@@UAEXAAVioXMLElement@@@Z
	DD	FLAT:?GetHeaderFileName@ioButton@@UAEPBDXZ
	DD	FLAT:?GetTemplateName@ioButton@@UAEPBDXZ
	DD	FLAT:?GetDefClassName@ioButton@@UBEPBDXZ
	DD	FLAT:?_Clone@ioButton@@UAEPAVioWnd@@XZ
	DD	FLAT:?Copy@ioButton@@UAEXPAVioWnd@@@Z
	DD	FLAT:?Save@ioWnd@@UAE_NAAVioXMLElement@@@Z
	DD	FLAT:?SetSaveData@ioButton@@UAEXAAVioXMLElement@@@Z
	DD	FLAT:?SetPosX@ioWnd@@UAEXH@Z
	DD	FLAT:?SetPosY@ioWnd@@UAEXH@Z
	DD	FLAT:?SetWidth@ioWnd@@UAEXH@Z
	DD	FLAT:?SetHeight@ioWnd@@UAEXH@Z
	DD	FLAT:?GetNumFixedRenderFrame@ioButton@@UBEHXZ
	DD	FLAT:?GetFixedRenderFrameType@ioButton@@UAEPBDH@Z
	DD	FLAT:?GetRenderFrame@ioButton@@UAEPAPAVioUIRenderElement@@PBD@Z
	DD	FLAT:?GetNumFixedRenderImage@ioButton@@UBEHXZ
	DD	FLAT:?GetFixedRenderImageType@ioButton@@UAEPBDH@Z
	DD	FLAT:?GetRenderImage@ioButton@@UAEPAPAVioUIRenderElement@@PBD@Z
	DD	FLAT:?AddEffect@ioWnd@@UAEXABVioHashString@@PAVioUI3DEffectRender@@@Z
	DD	FLAT:?GetEffect@ioWnd@@UAEPAVioUI3DEffectRender@@VioHashString@@@Z
	DD	FLAT:??_ENewShopItemInfoWnd@@UAEPAXI@Z
	DD	FLAT:?OnDrawNormal@NewShopItemInfoWnd@@MAEXHH@Z
	DD	FLAT:?OnDrawOvered@NewShopItemInfoWnd@@MAEXHH@Z
	DD	FLAT:?OnDrawOveredAdd@ioButton@@MAEXHH@Z
	DD	FLAT:?OnDrawPushed@NewShopItemInfoWnd@@MAEXHH@Z
	DD	FLAT:?OnDrawDisabled@ioButton@@MAEXHH@Z
	DD	FLAT:?OnDrawExDisabledNormal@ioButton@@MAEXHH@Z
	DD	FLAT:?OnDrawExDisabledOvered@ioButton@@MAEXHH@Z
	DD	FLAT:?OnDrawExDisabledPushed@ioButton@@MAEXHH@Z
	DD	FLAT:?OnDrawBack@ioButton@@MAEXHH@Z
	DD	FLAT:?OnDrawNormalList@ioButton@@MAEXHH@Z
	DD	FLAT:?OnDrawDisableList@ioButton@@MAEXHH@Z
CONST	ENDS
;	COMDAT xdata$x
xdata$x	SEGMENT
__unwindtable$??1NewShopItemInfoWnd@@UAE@XZ DD 0ffffffffH
	DD	FLAT:__unwindfunclet$??1NewShopItemInfoWnd@@UAE@XZ$0
	DD	00H
	DD	FLAT:__unwindfunclet$??1NewShopItemInfoWnd@@UAE@XZ$1
	DD	01H
	DD	FLAT:__unwindfunclet$??1NewShopItemInfoWnd@@UAE@XZ$2
__ehfuncinfo$??1NewShopItemInfoWnd@@UAE@XZ DD 019930522H
	DD	03H
	DD	FLAT:__unwindtable$??1NewShopItemInfoWnd@@UAE@XZ
	DD	2 DUP(00H)
	DD	2 DUP(00H)
	DD	00H
	DD	01H
; Function compile flags: /Ogsp
xdata$x	ENDS
;	COMDAT ??1NewShopItemInfoWnd@@UAE@XZ
_TEXT	SEGMENT
_this$ = -16						; size = 4
__$EHRec$ = -12						; size = 12
??1NewShopItemInfoWnd@@UAE@XZ PROC			; NewShopItemInfoWnd::~NewShopItemInfoWnd, COMDAT
; _this$ = ecx

; 26   : {

  00000	6a 04		 push	 4
  00002	b8 00 00 00 00	 mov	 eax, __ehhandler$??1NewShopItemInfoWnd@@UAE@XZ
  00007	e8 00 00 00 00	 call	 __EH_prolog3
  0000c	8b f1		 mov	 esi, ecx
  0000e	89 75 f0	 mov	 DWORD PTR _this$[ebp], esi
  00011	c7 06 00 00 00
	00		 mov	 DWORD PTR [esi], OFFSET ??_7NewShopItemInfoWnd@@6B@
  00017	c7 45 fc 02 00
	00 00		 mov	 DWORD PTR __$EHRec$[ebp+8], 2

; 27   : 	ClearDesc();

  0001e	e8 00 00 00 00	 call	 ?ClearDesc@NewShopItemInfoWnd@@IAEXXZ ; NewShopItemInfoWnd::ClearDesc

; 28   : 
; 29   : 	SAFEDELETE( m_pSelectFrm );

  00023	8b 8e 5c 02 00
	00		 mov	 ecx, DWORD PTR [esi+604]
  00029	85 c9		 test	 ecx, ecx
  0002b	74 0e		 je	 SHORT $LN3@NewShopIte
  0002d	8b 01		 mov	 eax, DWORD PTR [ecx]
  0002f	6a 01		 push	 1
  00031	ff 50 40	 call	 DWORD PTR [eax+64]
  00034	83 a6 5c 02 00
	00 00		 and	 DWORD PTR [esi+604], 0
$LN3@NewShopIte:

; 30   : 	SAFEDELETE( m_pEventFrm );

  0003b	8b 8e 60 02 00
	00		 mov	 ecx, DWORD PTR [esi+608]
  00041	85 c9		 test	 ecx, ecx
  00043	74 0e		 je	 SHORT $LN2@NewShopIte
  00045	8b 01		 mov	 eax, DWORD PTR [ecx]
  00047	6a 01		 push	 1
  00049	ff 50 40	 call	 DWORD PTR [eax+64]
  0004c	83 a6 60 02 00
	00 00		 and	 DWORD PTR [esi+608], 0
$LN2@NewShopIte:

; 31   : 	SAFEDELETE( m_pLeft );

  00053	8b 8e 64 02 00
	00		 mov	 ecx, DWORD PTR [esi+612]
  00059	85 c9		 test	 ecx, ecx
  0005b	74 0e		 je	 SHORT $LN1@NewShopIte
  0005d	8b 01		 mov	 eax, DWORD PTR [ecx]
  0005f	6a 01		 push	 1
  00061	ff 50 40	 call	 DWORD PTR [eax+64]
  00064	83 a6 64 02 00
	00 00		 and	 DWORD PTR [esi+612], 0
$LN1@NewShopIte:

; 32   : }

  0006b	8d 8e 70 02 00
	00		 lea	 ecx, DWORD PTR [esi+624]
  00071	c6 45 fc 01	 mov	 BYTE PTR __$EHRec$[ebp+8], 1
  00075	e8 00 00 00 00	 call	 ??1tagNewShopItemInfo@@QAE@XZ
  0007a	68 00 00 00 00	 push	 OFFSET ??1ioComplexStringPrinter@@QAE@XZ ; ioComplexStringPrinter::~ioComplexStringPrinter
  0007f	6a 03		 push	 3
  00081	6a 20		 push	 32			; 00000020H
  00083	8d 86 fc 01 00
	00		 lea	 eax, DWORD PTR [esi+508]
  00089	50		 push	 eax
  0008a	c6 45 fc 00	 mov	 BYTE PTR __$EHRec$[ebp+8], 0
  0008e	e8 00 00 00 00	 call	 ??_M@YGXPAXIHP6EX0@Z@Z
  00093	83 4d fc ff	 or	 DWORD PTR __$EHRec$[ebp+8], -1
  00097	8b ce		 mov	 ecx, esi
  00099	ff 15 00 00 00
	00		 call	 DWORD PTR __imp_??1ioButton@@UAE@XZ
  0009f	e8 00 00 00 00	 call	 __EH_epilog3
  000a4	c3		 ret	 0
_TEXT	ENDS
;	COMDAT text$x
text$x	SEGMENT
__unwindfunclet$??1NewShopItemInfoWnd@@UAE@XZ$0:
  00000	8b 4d f0	 mov	 ecx, DWORD PTR _this$[ebp]
  00003	ff 25 00 00 00
	00		 jmp	 DWORD PTR __imp_??1ioButton@@UAE@XZ
__unwindfunclet$??1NewShopItemInfoWnd@@UAE@XZ$1:
  00009	68 00 00 00 00	 push	 OFFSET ??1ioComplexStringPrinter@@QAE@XZ ; ioComplexStringPrinter::~ioComplexStringPrinter
  0000e	6a 03		 push	 3
  00010	6a 20		 push	 32			; 00000020H
  00012	8b 45 f0	 mov	 eax, DWORD PTR _this$[ebp]
  00015	05 fc 01 00 00	 add	 eax, 508		; 000001fcH
  0001a	50		 push	 eax
  0001b	e8 00 00 00 00	 call	 ??_M@YGXPAXIHP6EX0@Z@Z
  00020	c3		 ret	 0
__unwindfunclet$??1NewShopItemInfoWnd@@UAE@XZ$2:
  00021	8b 4d f0	 mov	 ecx, DWORD PTR _this$[ebp]
  00024	81 c1 70 02 00
	00		 add	 ecx, 624		; 00000270H
  0002a	e9 00 00 00 00	 jmp	 ??1tagNewShopItemInfo@@QAE@XZ
__ehhandler$??1NewShopItemInfoWnd@@UAE@XZ:
  0002f	8b 54 24 08	 mov	 edx, DWORD PTR [esp+8]
  00033	8d 42 0c	 lea	 eax, DWORD PTR [edx+12]
  00036	8b 4a ec	 mov	 ecx, DWORD PTR [edx-20]
  00039	33 c8		 xor	 ecx, eax
  0003b	e8 00 00 00 00	 call	 @__security_check_cookie@4
  00040	b8 00 00 00 00	 mov	 eax, OFFSET __ehfuncinfo$??1NewShopItemInfoWnd@@UAE@XZ
  00045	e9 00 00 00 00	 jmp	 ___CxxFrameHandler3
text$x	ENDS
??1NewShopItemInfoWnd@@UAE@XZ ENDP			; NewShopItemInfoWnd::~NewShopItemInfoWnd
PUBLIC	??4?$vector@HV?$allocator@H@std@@@std@@QAEAAV01@ABV01@@Z ; std::vector<int,std::allocator<int> >::operator=
; Function compile flags: /Ogsp
; File c:\program files (x86)\microsoft visual studio 10.0\vc\include\vector
;	COMDAT ??4?$vector@HV?$allocator@H@std@@@std@@QAEAAV01@ABV01@@Z
_TEXT	SEGMENT
__Cat$508032 = 8					; size = 1
__Cat$507972 = 8					; size = 1
__Cat$507950 = 8					; size = 1
__Cat$507895 = 8					; size = 1
$T507862 = 8						; size = 4
__Right$ = 8						; size = 4
??4?$vector@HV?$allocator@H@std@@@std@@QAEAAV01@ABV01@@Z PROC ; std::vector<int,std::allocator<int> >::operator=, COMDAT
; _this$ = ecx

; 709  : 		{	// assign _Right

  00000	55		 push	 ebp
  00001	8b ec		 mov	 ebp, esp
  00003	56		 push	 esi
  00004	57		 push	 edi

; 710  : 		if (this != &_Right)

  00005	8b 7d 08	 mov	 edi, DWORD PTR __Right$[ebp]
  00008	8b f1		 mov	 esi, ecx
  0000a	3b f7		 cmp	 esi, edi
  0000c	0f 84 c7 00 00
	00		 je	 $LN1@operator@4

; 711  : 			{	// worth doing
; 712  : 			this->_Orphan_all();

  00012	53		 push	 ebx
  00013	ff 15 00 00 00
	00		 call	 DWORD PTR __imp_?_Orphan_all@_Container_base0@std@@QAEXXZ

; 713  : 
; 714  : 			if (_Right.size() == 0)

  00019	8b 5f 04	 mov	 ebx, DWORD PTR [edi+4]

; 715  : 				clear();	// new sequence empty, erase existing sequence

  0001c	8b 46 04	 mov	 eax, DWORD PTR [esi+4]
  0001f	8b cb		 mov	 ecx, ebx
  00021	2b 0f		 sub	 ecx, DWORD PTR [edi]
  00023	c1 f9 02	 sar	 ecx, 2
  00026	85 c9		 test	 ecx, ecx
  00028	75 14		 jne	 SHORT $LN8@operator@4
  0002a	8b 0e		 mov	 ecx, DWORD PTR [esi]
  0002c	50		 push	 eax
  0002d	51		 push	 ecx
  0002e	8d 45 08	 lea	 eax, DWORD PTR $T507862[ebp]
  00031	50		 push	 eax
  00032	8b ce		 mov	 ecx, esi
  00034	e8 00 00 00 00	 call	 ?erase@?$vector@HV?$allocator@H@std@@@std@@QAE?AV?$_Vector_iterator@V?$_Vector_val@HV?$allocator@H@std@@@std@@@2@V?$_Vector_const_iterator@V?$_Vector_val@HV?$allocator@H@std@@@std@@@2@0@Z ; std::vector<int,std::allocator<int> >::erase

; 716  : 			else if (_Right.size() <= size())

  00039	e9 9a 00 00 00	 jmp	 $LN84@operator@4
$LN8@operator@4:
  0003e	8b 16		 mov	 edx, DWORD PTR [esi]
  00040	2b c2		 sub	 eax, edx
  00042	c1 f8 02	 sar	 eax, 2
  00045	3b c8		 cmp	 ecx, eax
  00047	77 1e		 ja	 SHORT $LN6@operator@4

; 717  : 				{	// enough elements, copy new and destroy old
; 718  : 				pointer _Ptr = _STD _Copy_impl(_Right._Myfirst, _Right._Mylast,
; 719  : 					this->_Myfirst);	// copy new

  00049	ff 75 08	 push	 DWORD PTR __Cat$507895[ebp]
  0004c	52		 push	 edx
  0004d	53		 push	 ebx
  0004e	ff 37		 push	 DWORD PTR [edi]
  00050	e8 00 00 00 00	 call	 ??$_Copy_impl@PAHPAH@std@@YAPAHPAH00U_Scalar_ptr_iterator_tag@0@@Z ; std::_Copy_impl<int *,int *>

; 720  : 				_Destroy(_Ptr, this->_Mylast);	// destroy old
; 721  : 				this->_Mylast = this->_Myfirst + _Right.size();

  00055	8b 47 04	 mov	 eax, DWORD PTR [edi+4]
  00058	2b 07		 sub	 eax, DWORD PTR [edi]
  0005a	8b 0e		 mov	 ecx, DWORD PTR [esi]
  0005c	83 c4 10	 add	 esp, 16			; 00000010H
  0005f	c1 f8 02	 sar	 eax, 2
  00062	8d 04 81	 lea	 eax, DWORD PTR [ecx+eax*4]

; 722  : 				}
; 723  : 			else if (_Right.size() <= capacity())

  00065	eb 6e		 jmp	 SHORT $LN85@operator@4
$LN6@operator@4:
  00067	8b 5e 08	 mov	 ebx, DWORD PTR [esi+8]
  0006a	2b da		 sub	 ebx, edx
  0006c	c1 fb 02	 sar	 ebx, 2
  0006f	3b cb		 cmp	 ecx, ebx
  00071	77 2a		 ja	 SHORT $LN4@operator@4

; 724  : 				{	// enough room, copy and construct new
; 725  : 				pointer _Ptr = _Right._Myfirst + size();
; 726  : 				_STD _Copy_impl(_Right._Myfirst, _Ptr, this->_Myfirst);

  00073	ff 75 08	 push	 DWORD PTR __Cat$507950[ebp]
  00076	8b 0f		 mov	 ecx, DWORD PTR [edi]
  00078	52		 push	 edx
  00079	8d 1c 81	 lea	 ebx, DWORD PTR [ecx+eax*4]
  0007c	53		 push	 ebx
  0007d	51		 push	 ecx
  0007e	e8 00 00 00 00	 call	 ??$_Copy_impl@PAHPAH@std@@YAPAHPAH00U_Scalar_ptr_iterator_tag@0@@Z ; std::_Copy_impl<int *,int *>

; 727  : 				this->_Mylast = _Ucopy(_Ptr, _Right._Mylast, this->_Mylast);

  00083	ff 75 08	 push	 DWORD PTR __Cat$507972[ebp]
  00086	8b 46 04	 mov	 eax, DWORD PTR [esi+4]
  00089	8b 7f 04	 mov	 edi, DWORD PTR [edi+4]
  0008c	8d 4e 0c	 lea	 ecx, DWORD PTR [esi+12]
  0008f	51		 push	 ecx
  00090	50		 push	 eax
  00091	57		 push	 edi
  00092	53		 push	 ebx
  00093	e8 00 00 00 00	 call	 ??$_Uninit_copy@HH@std@@YAPAHPAH00AAV?$allocator@H@0@U_Scalar_ptr_iterator_tag@0@@Z ; std::_Uninit_copy<int,int>
  00098	83 c4 24	 add	 esp, 36			; 00000024H

; 728  : 				}
; 729  : 			else

  0009b	eb 38		 jmp	 SHORT $LN85@operator@4
$LN4@operator@4:

; 730  : 				{	// not enough room, allocate new array and construct new
; 731  : 				if (this->_Myfirst != 0)

  0009d	85 d2		 test	 edx, edx
  0009f	74 07		 je	 SHORT $LN74@operator@4

; 732  : 					{	// discard old array
; 733  : 					_Destroy(this->_Myfirst, this->_Mylast);
; 734  : 					this->_Alval.deallocate(this->_Myfirst,
; 735  : 						this->_Myend - this->_Myfirst);

  000a1	52		 push	 edx
  000a2	e8 00 00 00 00	 call	 ??3@YAXPAX@Z		; operator delete
  000a7	59		 pop	 ecx
$LN74@operator@4:

; 736  : 					}
; 737  : 				if (_Buy(_Right.size()))

  000a8	8b 47 04	 mov	 eax, DWORD PTR [edi+4]
  000ab	2b 07		 sub	 eax, DWORD PTR [edi]
  000ad	8b ce		 mov	 ecx, esi
  000af	c1 f8 02	 sar	 eax, 2
  000b2	50		 push	 eax
  000b3	e8 00 00 00 00	 call	 ?_Buy@?$vector@HV?$allocator@H@std@@@std@@IAE_NI@Z ; std::vector<int,std::allocator<int> >::_Buy
  000b8	84 c0		 test	 al, al
  000ba	74 1c		 je	 SHORT $LN84@operator@4

; 738  : 					this->_Mylast = _Ucopy(_Right._Myfirst, _Right._Mylast,
; 739  : 						this->_Myfirst);

  000bc	ff 75 08	 push	 DWORD PTR __Cat$508032[ebp]
  000bf	8b 06		 mov	 eax, DWORD PTR [esi]
  000c1	8b 4f 04	 mov	 ecx, DWORD PTR [edi+4]
  000c4	8b 3f		 mov	 edi, DWORD PTR [edi]
  000c6	8d 56 0c	 lea	 edx, DWORD PTR [esi+12]
  000c9	52		 push	 edx
  000ca	50		 push	 eax
  000cb	51		 push	 ecx
  000cc	57		 push	 edi
  000cd	e8 00 00 00 00	 call	 ??$_Uninit_copy@HH@std@@YAPAHPAH00AAV?$allocator@H@0@U_Scalar_ptr_iterator_tag@0@@Z ; std::_Uninit_copy<int,int>
  000d2	83 c4 14	 add	 esp, 20			; 00000014H
$LN85@operator@4:
  000d5	89 46 04	 mov	 DWORD PTR [esi+4], eax
$LN84@operator@4:
  000d8	5b		 pop	 ebx
$LN1@operator@4:
  000d9	5f		 pop	 edi

; 740  : 				}
; 741  : 			}
; 742  : 		return (*this);

  000da	8b c6		 mov	 eax, esi
  000dc	5e		 pop	 esi

; 743  : 		}

  000dd	5d		 pop	 ebp
  000de	c2 04 00	 ret	 4
??4?$vector@HV?$allocator@H@std@@@std@@QAEAAV01@ABV01@@Z ENDP ; std::vector<int,std::allocator<int> >::operator=
_TEXT	ENDS
PUBLIC	?Clear@tagNewShopItemInfo@@QAEXXZ		; tagNewShopItemInfo::Clear
; Function compile flags: /Ogsp
; File d:\lost saga for developer\youtube\tutorial\source\src\lsclient\gui\newshopdatadefine.h
;	COMDAT ?Clear@tagNewShopItemInfo@@QAEXXZ
_TEXT	SEGMENT
$T508664 = -4						; size = 4
$T508584 = -4						; size = 4
$T508503 = -4						; size = 4
$T508423 = -4						; size = 4
$T508343 = -4						; size = 4
$T508263 = -4						; size = 4
$T508183 = -4						; size = 4
$T508103 = -4						; size = 4
?Clear@tagNewShopItemInfo@@QAEXXZ PROC			; tagNewShopItemInfo::Clear, COMDAT
; _this$ = ecx

; 84   : 	{

  00000	55		 push	 ebp
  00001	8b ec		 mov	 ebp, esp
  00003	51		 push	 ecx

; 85   : 		m_iItemType			= 0;

  00004	33 c0		 xor	 eax, eax
  00006	56		 push	 esi
  00007	8b f1		 mov	 esi, ecx
  00009	89 06		 mov	 DWORD PTR [esi], eax

; 86   : 		m_iSortPoint		= 0;    

  0000b	89 46 04	 mov	 DWORD PTR [esi+4], eax

; 87   : 		m_iShopMarkType		= SHOP_MARK_TYPE_NONE;

  0000e	89 46 08	 mov	 DWORD PTR [esi+8], eax

; 88   : 		m_bShowPeso			= false;

  00011	89 46 0c	 mov	 DWORD PTR [esi+12], eax

; 89   : 		m_dwStampEtcItem	= 0;

  00014	89 46 50	 mov	 DWORD PTR [esi+80], eax

; 90   : 		m_iNeedLevel		= 0;

  00017	89 46 54	 mov	 DWORD PTR [esi+84], eax

; 91   : 		m_iValue0			= 0;

  0001a	89 46 78	 mov	 DWORD PTR [esi+120], eax

; 92   : 		m_iValue1			= 0;

  0001d	89 46 7c	 mov	 DWORD PTR [esi+124], eax

; 93   : 		m_iValue2			= 0;

  00020	89 86 80 00 00
	00		 mov	 DWORD PTR [esi+128], eax

; 94   : 		m_iLimit			= 0;

  00026	89 86 94 00 00
	00		 mov	 DWORD PTR [esi+148], eax

; 95   : 		m_iLimitDate		= 0;

  0002c	89 86 cc 00 00
	00		 mov	 DWORD PTR [esi+204], eax

; 96   : 		m_iSubscriptionType = SUBSCRIPTION_NONE;

  00032	89 86 a8 00 00
	00		 mov	 DWORD PTR [esi+168], eax

; 97   : 		
; 98   : 
; 99   : 		m_vPeso.clear();

  00038	8d 4e 10	 lea	 ecx, DWORD PTR [esi+16]
  0003b	8b 41 04	 mov	 eax, DWORD PTR [ecx+4]
  0003e	8b 11		 mov	 edx, DWORD PTR [ecx]
  00040	50		 push	 eax
  00041	52		 push	 edx
  00042	8d 45 fc	 lea	 eax, DWORD PTR $T508103[ebp]
  00045	50		 push	 eax
  00046	e8 00 00 00 00	 call	 ?erase@?$vector@HV?$allocator@H@std@@@std@@QAE?AV?$_Vector_iterator@V?$_Vector_val@HV?$allocator@H@std@@@std@@@2@V?$_Vector_const_iterator@V?$_Vector_val@HV?$allocator@H@std@@@std@@@2@0@Z ; std::vector<int,std::allocator<int> >::erase

; 100  : 		m_vCash.clear();

  0004b	8d 4e 20	 lea	 ecx, DWORD PTR [esi+32]
  0004e	8b 41 04	 mov	 eax, DWORD PTR [ecx+4]
  00051	8b 11		 mov	 edx, DWORD PTR [ecx]
  00053	50		 push	 eax
  00054	52		 push	 edx
  00055	8d 45 fc	 lea	 eax, DWORD PTR $T508183[ebp]
  00058	50		 push	 eax
  00059	e8 00 00 00 00	 call	 ?erase@?$vector@HV?$allocator@H@std@@@std@@QAE?AV?$_Vector_iterator@V?$_Vector_val@HV?$allocator@H@std@@@std@@@2@V?$_Vector_const_iterator@V?$_Vector_val@HV?$allocator@H@std@@@std@@@2@0@Z ; std::vector<int,std::allocator<int> >::erase

; 101  : 		m_vStamp.clear();

  0005e	8d 4e 30	 lea	 ecx, DWORD PTR [esi+48]
  00061	8b 41 04	 mov	 eax, DWORD PTR [ecx+4]
  00064	8b 11		 mov	 edx, DWORD PTR [ecx]
  00066	50		 push	 eax
  00067	52		 push	 edx
  00068	8d 45 fc	 lea	 eax, DWORD PTR $T508263[ebp]
  0006b	50		 push	 eax
  0006c	e8 00 00 00 00	 call	 ?erase@?$vector@HV?$allocator@H@std@@@std@@QAE?AV?$_Vector_iterator@V?$_Vector_val@HV?$allocator@H@std@@@std@@@2@V?$_Vector_const_iterator@V?$_Vector_val@HV?$allocator@H@std@@@std@@@2@0@Z ; std::vector<int,std::allocator<int> >::erase

; 102  : 		m_vTournamentCoin.clear();

  00071	8d 4e 40	 lea	 ecx, DWORD PTR [esi+64]
  00074	8b 41 04	 mov	 eax, DWORD PTR [ecx+4]
  00077	8b 11		 mov	 edx, DWORD PTR [ecx]
  00079	50		 push	 eax
  0007a	52		 push	 edx
  0007b	8d 45 fc	 lea	 eax, DWORD PTR $T508343[ebp]
  0007e	50		 push	 eax
  0007f	e8 00 00 00 00	 call	 ?erase@?$vector@HV?$allocator@H@std@@@std@@QAE?AV?$_Vector_iterator@V?$_Vector_val@HV?$allocator@H@std@@@std@@@2@V?$_Vector_const_iterator@V?$_Vector_val@HV?$allocator@H@std@@@std@@@2@0@Z ; std::vector<int,std::allocator<int> >::erase

; 103  : 
; 104  : 		m_vBonusPeso.clear();

  00084	8d 4e 58	 lea	 ecx, DWORD PTR [esi+88]
  00087	8b 41 04	 mov	 eax, DWORD PTR [ecx+4]
  0008a	8b 11		 mov	 edx, DWORD PTR [ecx]
  0008c	50		 push	 eax
  0008d	52		 push	 edx
  0008e	8d 45 fc	 lea	 eax, DWORD PTR $T508423[ebp]
  00091	50		 push	 eax
  00092	e8 00 00 00 00	 call	 ?erase@?$vector@HV?$allocator@H@std@@@std@@QAE?AV?$_Vector_iterator@V?$_Vector_val@HV?$allocator@H@std@@@std@@@2@V?$_Vector_const_iterator@V?$_Vector_val@HV?$allocator@H@std@@@std@@@2@0@Z ; std::vector<int,std::allocator<int> >::erase

; 105  : 		m_vManualIndex.clear();

  00097	8d 4e 68	 lea	 ecx, DWORD PTR [esi+104]
  0009a	8b 41 04	 mov	 eax, DWORD PTR [ecx+4]
  0009d	8b 11		 mov	 edx, DWORD PTR [ecx]
  0009f	50		 push	 eax
  000a0	52		 push	 edx
  000a1	8d 45 fc	 lea	 eax, DWORD PTR $T508503[ebp]
  000a4	50		 push	 eax
  000a5	e8 00 00 00 00	 call	 ?erase@?$vector@HV?$allocator@H@std@@@std@@QAE?AV?$_Vector_iterator@V?$_Vector_val@HV?$allocator@H@std@@@std@@@2@V?$_Vector_const_iterator@V?$_Vector_val@HV?$allocator@H@std@@@std@@@2@0@Z ; std::vector<int,std::allocator<int> >::erase

; 106  : 
; 107  : 
; 108  : 		m_vValue3.clear();

  000aa	8d 8e 84 00 00
	00		 lea	 ecx, DWORD PTR [esi+132]
  000b0	8b 41 04	 mov	 eax, DWORD PTR [ecx+4]
  000b3	8b 11		 mov	 edx, DWORD PTR [ecx]
  000b5	50		 push	 eax
  000b6	52		 push	 edx
  000b7	8d 45 fc	 lea	 eax, DWORD PTR $T508584[ebp]
  000ba	50		 push	 eax
  000bb	e8 00 00 00 00	 call	 ?erase@?$vector@HV?$allocator@H@std@@@std@@QAE?AV?$_Vector_iterator@V?$_Vector_val@HV?$allocator@H@std@@@std@@@2@V?$_Vector_const_iterator@V?$_Vector_val@HV?$allocator@H@std@@@std@@@2@0@Z ; std::vector<int,std::allocator<int> >::erase

; 109  : 		m_vSubscriptionType.clear();

  000c0	8d 8e 98 00 00
	00		 lea	 ecx, DWORD PTR [esi+152]
  000c6	8b 41 04	 mov	 eax, DWORD PTR [ecx+4]
  000c9	8b 11		 mov	 edx, DWORD PTR [ecx]
  000cb	50		 push	 eax
  000cc	52		 push	 edx
  000cd	8d 45 fc	 lea	 eax, DWORD PTR $T508664[ebp]
  000d0	50		 push	 eax
  000d1	e8 00 00 00 00	 call	 ?erase@?$vector@HV?$allocator@H@std@@@std@@QAE?AV?$_Vector_iterator@V?$_Vector_val@HV?$allocator@H@std@@@std@@@2@V?$_Vector_const_iterator@V?$_Vector_val@HV?$allocator@H@std@@@std@@@2@0@Z ; std::vector<int,std::allocator<int> >::erase
  000d6	5e		 pop	 esi

; 110  : 	}

  000d7	c9		 leave
  000d8	c3		 ret	 0
?Clear@tagNewShopItemInfo@@QAEXXZ ENDP			; tagNewShopItemInfo::Clear
; Function compile flags: /Ogsp
_TEXT	ENDS
;	COMDAT ??_GNewShopItemInfoWnd@@UAEPAXI@Z
_TEXT	SEGMENT
___flags$ = 8						; size = 4
??_GNewShopItemInfoWnd@@UAEPAXI@Z PROC			; NewShopItemInfoWnd::`scalar deleting destructor', COMDAT
; _this$ = ecx
  00000	55		 push	 ebp
  00001	8b ec		 mov	 ebp, esp
  00003	56		 push	 esi
  00004	8b f1		 mov	 esi, ecx
  00006	e8 00 00 00 00	 call	 ??1NewShopItemInfoWnd@@UAE@XZ ; NewShopItemInfoWnd::~NewShopItemInfoWnd
  0000b	f6 45 08 01	 test	 BYTE PTR ___flags$[ebp], 1
  0000f	74 07		 je	 SHORT $LN1@scalar@2
  00011	56		 push	 esi
  00012	e8 00 00 00 00	 call	 ??3@YAXPAX@Z		; operator delete
  00017	59		 pop	 ecx
$LN1@scalar@2:
  00018	8b c6		 mov	 eax, esi
  0001a	5e		 pop	 esi
  0001b	5d		 pop	 ebp
  0001c	c2 04 00	 ret	 4
??_GNewShopItemInfoWnd@@UAEPAXI@Z ENDP			; NewShopItemInfoWnd::`scalar deleting destructor'
_TEXT	ENDS
PUBLIC	??4tagNewShopItemInfo@@QAEAAU0@ABU0@@Z		; tagNewShopItemInfo::operator=
EXTRN	__imp_??4ioHashString@@QAEAAV0@ABV0@@Z:PROC
; Function compile flags: /Ogsp
;	COMDAT ??4tagNewShopItemInfo@@QAEAAU0@ABU0@@Z
_TEXT	SEGMENT
___that$ = 8						; size = 4
??4tagNewShopItemInfo@@QAEAAU0@ABU0@@Z PROC		; tagNewShopItemInfo::operator=, COMDAT
; _this$ = ecx
  00000	55		 push	 ebp
  00001	8b ec		 mov	 ebp, esp
  00003	53		 push	 ebx
  00004	56		 push	 esi
  00005	57		 push	 edi
  00006	8b 7d 08	 mov	 edi, DWORD PTR ___that$[ebp]
  00009	8b 07		 mov	 eax, DWORD PTR [edi]
  0000b	8b f1		 mov	 esi, ecx
  0000d	89 06		 mov	 DWORD PTR [esi], eax
  0000f	8b 47 04	 mov	 eax, DWORD PTR [edi+4]
  00012	89 46 04	 mov	 DWORD PTR [esi+4], eax
  00015	8b 47 08	 mov	 eax, DWORD PTR [edi+8]
  00018	89 46 08	 mov	 DWORD PTR [esi+8], eax
  0001b	8b 47 0c	 mov	 eax, DWORD PTR [edi+12]
  0001e	89 46 0c	 mov	 DWORD PTR [esi+12], eax
  00021	8d 47 10	 lea	 eax, DWORD PTR [edi+16]
  00024	50		 push	 eax
  00025	8d 4e 10	 lea	 ecx, DWORD PTR [esi+16]
  00028	e8 00 00 00 00	 call	 ??4?$vector@HV?$allocator@H@std@@@std@@QAEAAV01@ABV01@@Z ; std::vector<int,std::allocator<int> >::operator=
  0002d	8d 47 20	 lea	 eax, DWORD PTR [edi+32]
  00030	50		 push	 eax
  00031	8d 4e 20	 lea	 ecx, DWORD PTR [esi+32]
  00034	e8 00 00 00 00	 call	 ??4?$vector@HV?$allocator@H@std@@@std@@QAEAAV01@ABV01@@Z ; std::vector<int,std::allocator<int> >::operator=
  00039	8d 47 30	 lea	 eax, DWORD PTR [edi+48]
  0003c	50		 push	 eax
  0003d	8d 4e 30	 lea	 ecx, DWORD PTR [esi+48]
  00040	e8 00 00 00 00	 call	 ??4?$vector@HV?$allocator@H@std@@@std@@QAEAAV01@ABV01@@Z ; std::vector<int,std::allocator<int> >::operator=
  00045	8d 47 40	 lea	 eax, DWORD PTR [edi+64]
  00048	50		 push	 eax
  00049	8d 4e 40	 lea	 ecx, DWORD PTR [esi+64]
  0004c	e8 00 00 00 00	 call	 ??4?$vector@HV?$allocator@H@std@@@std@@QAEAAV01@ABV01@@Z ; std::vector<int,std::allocator<int> >::operator=
  00051	8b 47 50	 mov	 eax, DWORD PTR [edi+80]
  00054	89 46 50	 mov	 DWORD PTR [esi+80], eax
  00057	8b 47 54	 mov	 eax, DWORD PTR [edi+84]
  0005a	89 46 54	 mov	 DWORD PTR [esi+84], eax
  0005d	8d 47 58	 lea	 eax, DWORD PTR [edi+88]
  00060	50		 push	 eax
  00061	8d 4e 58	 lea	 ecx, DWORD PTR [esi+88]
  00064	e8 00 00 00 00	 call	 ??4?$vector@HV?$allocator@H@std@@@std@@QAEAAV01@ABV01@@Z ; std::vector<int,std::allocator<int> >::operator=
  00069	8d 47 68	 lea	 eax, DWORD PTR [edi+104]
  0006c	50		 push	 eax
  0006d	8d 4e 68	 lea	 ecx, DWORD PTR [esi+104]
  00070	e8 00 00 00 00	 call	 ??4?$vector@HV?$allocator@H@std@@@std@@QAEAAV01@ABV01@@Z ; std::vector<int,std::allocator<int> >::operator=
  00075	8b 47 78	 mov	 eax, DWORD PTR [edi+120]
  00078	89 46 78	 mov	 DWORD PTR [esi+120], eax
  0007b	8b 47 7c	 mov	 eax, DWORD PTR [edi+124]
  0007e	89 46 7c	 mov	 DWORD PTR [esi+124], eax
  00081	8b 87 80 00 00
	00		 mov	 eax, DWORD PTR [edi+128]
  00087	89 86 80 00 00
	00		 mov	 DWORD PTR [esi+128], eax
  0008d	8d 87 84 00 00
	00		 lea	 eax, DWORD PTR [edi+132]
  00093	50		 push	 eax
  00094	8d 8e 84 00 00
	00		 lea	 ecx, DWORD PTR [esi+132]
  0009a	e8 00 00 00 00	 call	 ??4?$vector@HV?$allocator@H@std@@@std@@QAEAAV01@ABV01@@Z ; std::vector<int,std::allocator<int> >::operator=
  0009f	8b 87 94 00 00
	00		 mov	 eax, DWORD PTR [edi+148]
  000a5	89 86 94 00 00
	00		 mov	 DWORD PTR [esi+148], eax
  000ab	8d 87 98 00 00
	00		 lea	 eax, DWORD PTR [edi+152]
  000b1	50		 push	 eax
  000b2	8d 8e 98 00 00
	00		 lea	 ecx, DWORD PTR [esi+152]
  000b8	e8 00 00 00 00	 call	 ??4?$vector@HV?$allocator@H@std@@@std@@QAEAAV01@ABV01@@Z ; std::vector<int,std::allocator<int> >::operator=
  000bd	8b 87 a8 00 00
	00		 mov	 eax, DWORD PTR [edi+168]
  000c3	8b 1d 00 00 00
	00		 mov	 ebx, DWORD PTR __imp_??4ioHashString@@QAEAAV0@ABV0@@Z
  000c9	89 86 a8 00 00
	00		 mov	 DWORD PTR [esi+168], eax
  000cf	8d 87 ac 00 00
	00		 lea	 eax, DWORD PTR [edi+172]
  000d5	50		 push	 eax
  000d6	8d 8e ac 00 00
	00		 lea	 ecx, DWORD PTR [esi+172]
  000dc	ff d3		 call	 ebx
  000de	8d 87 bc 00 00
	00		 lea	 eax, DWORD PTR [edi+188]
  000e4	50		 push	 eax
  000e5	8d 8e bc 00 00
	00		 lea	 ecx, DWORD PTR [esi+188]
  000eb	ff d3		 call	 ebx
  000ed	8b 87 cc 00 00
	00		 mov	 eax, DWORD PTR [edi+204]
  000f3	89 86 cc 00 00
	00		 mov	 DWORD PTR [esi+204], eax
  000f9	5f		 pop	 edi
  000fa	8b c6		 mov	 eax, esi
  000fc	5e		 pop	 esi
  000fd	5b		 pop	 ebx
  000fe	5d		 pop	 ebp
  000ff	c2 04 00	 ret	 4
??4tagNewShopItemInfo@@QAEAAU0@ABU0@@Z ENDP		; tagNewShopItemInfo::operator=
_TEXT	ENDS
PUBLIC	??0tagNewShopItemInfo@@QAE@XZ			; tagNewShopItemInfo::tagNewShopItemInfo
EXTRN	__imp_??0ioHashString@@QAE@XZ:PROC
;	COMDAT xdata$x
; File c:\program files (x86)\microsoft visual studio 10.0\vc\include\xmemory
xdata$x	SEGMENT
__ehfuncinfo$??0tagNewShopItemInfo@@QAE@XZ DD 019930522H
	DD	09H
	DD	FLAT:__unwindtable$??0tagNewShopItemInfo@@QAE@XZ
	DD	2 DUP(00H)
	DD	2 DUP(00H)
	DD	00H
	DD	01H
__unwindtable$??0tagNewShopItemInfo@@QAE@XZ DD 0ffffffffH
	DD	FLAT:__unwindfunclet$??0tagNewShopItemInfo@@QAE@XZ$0
	DD	00H
	DD	FLAT:__unwindfunclet$??0tagNewShopItemInfo@@QAE@XZ$1
	DD	01H
	DD	FLAT:__unwindfunclet$??0tagNewShopItemInfo@@QAE@XZ$2
	DD	02H
	DD	FLAT:__unwindfunclet$??0tagNewShopItemInfo@@QAE@XZ$3
	DD	03H
	DD	FLAT:__unwindfunclet$??0tagNewShopItemInfo@@QAE@XZ$4
	DD	04H
	DD	FLAT:__unwindfunclet$??0tagNewShopItemInfo@@QAE@XZ$5
	DD	05H
	DD	FLAT:__unwindfunclet$??0tagNewShopItemInfo@@QAE@XZ$6
	DD	06H
	DD	FLAT:__unwindfunclet$??0tagNewShopItemInfo@@QAE@XZ$7
	DD	07H
	DD	FLAT:__unwindfunclet$??0tagNewShopItemInfo@@QAE@XZ$8
; Function compile flags: /Ogsp
; File d:\lost saga for developer\youtube\tutorial\source\src\lsclient\gui\newshopdatadefine.h
xdata$x	ENDS
;	COMDAT ??0tagNewShopItemInfo@@QAE@XZ
_TEXT	SEGMENT
_this$ = -16						; size = 4
__$EHRec$ = -12						; size = 12
??0tagNewShopItemInfo@@QAE@XZ PROC			; tagNewShopItemInfo::tagNewShopItemInfo, COMDAT
; _this$ = ecx

; 78   : 	tagNewShopItemInfo()

  00000	6a 04		 push	 4
  00002	b8 00 00 00 00	 mov	 eax, __ehhandler$??0tagNewShopItemInfo@@QAE@XZ
  00007	e8 00 00 00 00	 call	 __EH_prolog3
  0000c	8b f1		 mov	 esi, ecx
  0000e	89 75 f0	 mov	 DWORD PTR _this$[ebp], esi
  00011	33 c0		 xor	 eax, eax
  00013	89 46 10	 mov	 DWORD PTR [esi+16], eax
  00016	89 46 14	 mov	 DWORD PTR [esi+20], eax
  00019	89 46 18	 mov	 DWORD PTR [esi+24], eax
  0001c	89 45 fc	 mov	 DWORD PTR __$EHRec$[ebp+8], eax
  0001f	89 46 20	 mov	 DWORD PTR [esi+32], eax
  00022	89 46 24	 mov	 DWORD PTR [esi+36], eax
  00025	89 46 28	 mov	 DWORD PTR [esi+40], eax
  00028	89 46 30	 mov	 DWORD PTR [esi+48], eax
  0002b	89 46 34	 mov	 DWORD PTR [esi+52], eax
  0002e	89 46 38	 mov	 DWORD PTR [esi+56], eax
  00031	89 46 40	 mov	 DWORD PTR [esi+64], eax
  00034	89 46 44	 mov	 DWORD PTR [esi+68], eax
  00037	89 46 48	 mov	 DWORD PTR [esi+72], eax
  0003a	89 46 58	 mov	 DWORD PTR [esi+88], eax
  0003d	89 46 5c	 mov	 DWORD PTR [esi+92], eax
  00040	89 46 60	 mov	 DWORD PTR [esi+96], eax
  00043	89 46 68	 mov	 DWORD PTR [esi+104], eax
  00046	89 46 6c	 mov	 DWORD PTR [esi+108], eax
  00049	89 46 70	 mov	 DWORD PTR [esi+112], eax
  0004c	89 86 84 00 00
	00		 mov	 DWORD PTR [esi+132], eax
  00052	89 86 88 00 00
	00		 mov	 DWORD PTR [esi+136], eax
  00058	89 86 8c 00 00
	00		 mov	 DWORD PTR [esi+140], eax
  0005e	89 86 98 00 00
	00		 mov	 DWORD PTR [esi+152], eax
  00064	89 86 9c 00 00
	00		 mov	 DWORD PTR [esi+156], eax
  0006a	89 86 a0 00 00
	00		 mov	 DWORD PTR [esi+160], eax
  00070	8b 3d 00 00 00
	00		 mov	 edi, DWORD PTR __imp_??0ioHashString@@QAE@XZ
  00076	8d 8e ac 00 00
	00		 lea	 ecx, DWORD PTR [esi+172]
  0007c	c6 45 fc 07	 mov	 BYTE PTR __$EHRec$[ebp+8], 7
  00080	ff d7		 call	 edi
  00082	8d 8e bc 00 00
	00		 lea	 ecx, DWORD PTR [esi+188]
  00088	c6 45 fc 08	 mov	 BYTE PTR __$EHRec$[ebp+8], 8
  0008c	ff d7		 call	 edi

; 79   : 	{
; 80   : 		Clear();

  0008e	8b ce		 mov	 ecx, esi
  00090	e8 00 00 00 00	 call	 ?Clear@tagNewShopItemInfo@@QAEXXZ ; tagNewShopItemInfo::Clear

; 81   : 	}

  00095	8b c6		 mov	 eax, esi
  00097	e8 00 00 00 00	 call	 __EH_epilog3
  0009c	c3		 ret	 0
_TEXT	ENDS
;	COMDAT text$x
text$x	SEGMENT
__unwindfunclet$??0tagNewShopItemInfo@@QAE@XZ$0:
  00000	8b 4d f0	 mov	 ecx, DWORD PTR _this$[ebp]
  00003	83 c1 10	 add	 ecx, 16			; 00000010H
  00006	e9 00 00 00 00	 jmp	 ??1?$vector@HV?$allocator@H@std@@@std@@QAE@XZ ; std::vector<int,std::allocator<int> >::~vector<int,std::allocator<int> >
__unwindfunclet$??0tagNewShopItemInfo@@QAE@XZ$1:
  0000b	8b 4d f0	 mov	 ecx, DWORD PTR _this$[ebp]
  0000e	83 c1 20	 add	 ecx, 32			; 00000020H
  00011	e9 00 00 00 00	 jmp	 ??1?$vector@HV?$allocator@H@std@@@std@@QAE@XZ ; std::vector<int,std::allocator<int> >::~vector<int,std::allocator<int> >
__unwindfunclet$??0tagNewShopItemInfo@@QAE@XZ$2:
  00016	8b 4d f0	 mov	 ecx, DWORD PTR _this$[ebp]
  00019	83 c1 30	 add	 ecx, 48			; 00000030H
  0001c	e9 00 00 00 00	 jmp	 ??1?$vector@HV?$allocator@H@std@@@std@@QAE@XZ ; std::vector<int,std::allocator<int> >::~vector<int,std::allocator<int> >
__unwindfunclet$??0tagNewShopItemInfo@@QAE@XZ$3:
  00021	8b 4d f0	 mov	 ecx, DWORD PTR _this$[ebp]
  00024	83 c1 40	 add	 ecx, 64			; 00000040H
  00027	e9 00 00 00 00	 jmp	 ??1?$vector@HV?$allocator@H@std@@@std@@QAE@XZ ; std::vector<int,std::allocator<int> >::~vector<int,std::allocator<int> >
__unwindfunclet$??0tagNewShopItemInfo@@QAE@XZ$4:
  0002c	8b 4d f0	 mov	 ecx, DWORD PTR _this$[ebp]
  0002f	83 c1 58	 add	 ecx, 88			; 00000058H
  00032	e9 00 00 00 00	 jmp	 ??1?$vector@HV?$allocator@H@std@@@std@@QAE@XZ ; std::vector<int,std::allocator<int> >::~vector<int,std::allocator<int> >
__unwindfunclet$??0tagNewShopItemInfo@@QAE@XZ$5:
  00037	8b 4d f0	 mov	 ecx, DWORD PTR _this$[ebp]
  0003a	83 c1 68	 add	 ecx, 104		; 00000068H
  0003d	e9 00 00 00 00	 jmp	 ??1?$vector@HV?$allocator@H@std@@@std@@QAE@XZ ; std::vector<int,std::allocator<int> >::~vector<int,std::allocator<int> >
__unwindfunclet$??0tagNewShopItemInfo@@QAE@XZ$6:
  00042	8b 4d f0	 mov	 ecx, DWORD PTR _this$[ebp]
  00045	81 c1 84 00 00
	00		 add	 ecx, 132		; 00000084H
  0004b	e9 00 00 00 00	 jmp	 ??1?$vector@HV?$allocator@H@std@@@std@@QAE@XZ ; std::vector<int,std::allocator<int> >::~vector<int,std::allocator<int> >
__unwindfunclet$??0tagNewShopItemInfo@@QAE@XZ$7:
  00050	8b 4d f0	 mov	 ecx, DWORD PTR _this$[ebp]
  00053	81 c1 98 00 00
	00		 add	 ecx, 152		; 00000098H
  00059	e9 00 00 00 00	 jmp	 ??1?$vector@HV?$allocator@H@std@@@std@@QAE@XZ ; std::vector<int,std::allocator<int> >::~vector<int,std::allocator<int> >
__unwindfunclet$??0tagNewShopItemInfo@@QAE@XZ$8:
  0005e	8b 4d f0	 mov	 ecx, DWORD PTR _this$[ebp]
  00061	81 c1 ac 00 00
	00		 add	 ecx, 172		; 000000acH
  00067	ff 25 00 00 00
	00		 jmp	 DWORD PTR __imp_??1ioHashString@@QAE@XZ
__ehhandler$??0tagNewShopItemInfo@@QAE@XZ:
  0006d	8b 54 24 08	 mov	 edx, DWORD PTR [esp+8]
  00071	8d 42 0c	 lea	 eax, DWORD PTR [edx+12]
  00074	8b 4a ec	 mov	 ecx, DWORD PTR [edx-20]
  00077	33 c8		 xor	 ecx, eax
  00079	e8 00 00 00 00	 call	 @__security_check_cookie@4
  0007e	b8 00 00 00 00	 mov	 eax, OFFSET __ehfuncinfo$??0tagNewShopItemInfo@@QAE@XZ
  00083	e9 00 00 00 00	 jmp	 ___CxxFrameHandler3
text$x	ENDS
??0tagNewShopItemInfo@@QAE@XZ ENDP			; tagNewShopItemInfo::tagNewShopItemInfo
PUBLIC	??0NewShopItemInfoWnd@@QAE@XZ			; NewShopItemInfoWnd::NewShopItemInfoWnd
EXTRN	??_L@YGXPAXIHP6EX0@Z1@Z:PROC			; `eh vector constructor iterator'
EXTRN	??0ioComplexStringPrinter@@QAE@XZ:PROC		; ioComplexStringPrinter::ioComplexStringPrinter
EXTRN	__imp_??0ioButton@@QAE@XZ:PROC
;	COMDAT xdata$x
; File d:\lost saga for developer\youtube\tutorial\source\src\lsclient\gui\newshopiteminfownd.cpp
xdata$x	SEGMENT
__unwindtable$??0NewShopItemInfoWnd@@QAE@XZ DD 0ffffffffH
	DD	FLAT:__unwindfunclet$??0NewShopItemInfoWnd@@QAE@XZ$0
	DD	00H
	DD	FLAT:__unwindfunclet$??0NewShopItemInfoWnd@@QAE@XZ$1
__ehfuncinfo$??0NewShopItemInfoWnd@@QAE@XZ DD 019930522H
	DD	02H
	DD	FLAT:__unwindtable$??0NewShopItemInfoWnd@@QAE@XZ
	DD	2 DUP(00H)
	DD	2 DUP(00H)
	DD	00H
	DD	01H
; Function compile flags: /Ogsp
xdata$x	ENDS
;	COMDAT ??0NewShopItemInfoWnd@@QAE@XZ
_TEXT	SEGMENT
_this$ = -16						; size = 4
__$EHRec$ = -12						; size = 12
??0NewShopItemInfoWnd@@QAE@XZ PROC			; NewShopItemInfoWnd::NewShopItemInfoWnd, COMDAT
; _this$ = ecx

; 13   : {

  00000	6a 04		 push	 4
  00002	b8 00 00 00 00	 mov	 eax, __ehhandler$??0NewShopItemInfoWnd@@QAE@XZ
  00007	e8 00 00 00 00	 call	 __EH_prolog3
  0000c	8b f1		 mov	 esi, ecx
  0000e	89 75 f0	 mov	 DWORD PTR _this$[ebp], esi
  00011	ff 15 00 00 00
	00		 call	 DWORD PTR __imp_??0ioButton@@QAE@XZ
  00017	68 00 00 00 00	 push	 OFFSET ??1ioComplexStringPrinter@@QAE@XZ ; ioComplexStringPrinter::~ioComplexStringPrinter
  0001c	68 00 00 00 00	 push	 OFFSET ??0ioComplexStringPrinter@@QAE@XZ ; ioComplexStringPrinter::ioComplexStringPrinter
  00021	6a 03		 push	 3
  00023	6a 20		 push	 32			; 00000020H
  00025	8d 86 fc 01 00
	00		 lea	 eax, DWORD PTR [esi+508]
  0002b	33 db		 xor	 ebx, ebx
  0002d	50		 push	 eax
  0002e	89 5d fc	 mov	 DWORD PTR __$EHRec$[ebp+8], ebx
  00031	c7 06 00 00 00
	00		 mov	 DWORD PTR [esi], OFFSET ??_7NewShopItemInfoWnd@@6B@
  00037	e8 00 00 00 00	 call	 ??_L@YGXPAXIHP6EX0@Z1@Z
  0003c	8d 8e 70 02 00
	00		 lea	 ecx, DWORD PTR [esi+624]
  00042	c6 45 fc 01	 mov	 BYTE PTR __$EHRec$[ebp+8], 1
  00046	e8 00 00 00 00	 call	 ??0tagNewShopItemInfo@@QAE@XZ ; tagNewShopItemInfo::tagNewShopItemInfo

; 14   : 	m_pSelectFrm	= NULL;

  0004b	89 9e 5c 02 00
	00		 mov	 DWORD PTR [esi+604], ebx

; 15   : 	m_pEventFrm		= NULL;

  00051	89 9e 60 02 00
	00		 mov	 DWORD PTR [esi+608], ebx

; 16   : 	m_pLeft			= NULL;

  00057	89 9e 64 02 00
	00		 mov	 DWORD PTR [esi+612], ebx

; 17   : 
; 18   : 	m_bSelect		= false;

  0005d	66 89 9e 68 02
	00 00		 mov	 WORD PTR [esi+616], bx

; 19   : 	m_bDecoEquip	= false;
; 20   : 
; 21   : 	m_eLimitRender	= LR_NONE;

  00064	89 9e 6c 02 00
	00		 mov	 DWORD PTR [esi+620], ebx

; 22   : 	m_nGradeType = 0;

  0006a	89 9e 40 03 00
	00		 mov	 DWORD PTR [esi+832], ebx

; 23   : }

  00070	8b c6		 mov	 eax, esi
  00072	e8 00 00 00 00	 call	 __EH_epilog3
  00077	c3		 ret	 0
_TEXT	ENDS
;	COMDAT text$x
text$x	SEGMENT
__unwindfunclet$??0NewShopItemInfoWnd@@QAE@XZ$0:
  00000	8b 4d f0	 mov	 ecx, DWORD PTR _this$[ebp]
  00003	ff 25 00 00 00
	00		 jmp	 DWORD PTR __imp_??1ioButton@@UAE@XZ
__unwindfunclet$??0NewShopItemInfoWnd@@QAE@XZ$1:
  00009	68 00 00 00 00	 push	 OFFSET ??1ioComplexStringPrinter@@QAE@XZ ; ioComplexStringPrinter::~ioComplexStringPrinter
  0000e	6a 03		 push	 3
  00010	6a 20		 push	 32			; 00000020H
  00012	8b 45 f0	 mov	 eax, DWORD PTR _this$[ebp]
  00015	05 fc 01 00 00	 add	 eax, 508		; 000001fcH
  0001a	50		 push	 eax
  0001b	e8 00 00 00 00	 call	 ??_M@YGXPAXIHP6EX0@Z@Z
  00020	c3		 ret	 0
__ehhandler$??0NewShopItemInfoWnd@@QAE@XZ:
  00021	8b 54 24 08	 mov	 edx, DWORD PTR [esp+8]
  00025	8d 42 0c	 lea	 eax, DWORD PTR [edx+12]
  00028	8b 4a ec	 mov	 ecx, DWORD PTR [edx-20]
  0002b	33 c8		 xor	 ecx, eax
  0002d	e8 00 00 00 00	 call	 @__security_check_cookie@4
  00032	b8 00 00 00 00	 mov	 eax, OFFSET __ehfuncinfo$??0NewShopItemInfoWnd@@QAE@XZ
  00037	e9 00 00 00 00	 jmp	 ___CxxFrameHandler3
text$x	ENDS
??0NewShopItemInfoWnd@@QAE@XZ ENDP			; NewShopItemInfoWnd::NewShopItemInfoWnd
PUBLIC	??_C@_0BA@CPGDPCCL@?$CFs?5pBtn?5?$DN?$DN?5NULL?$AA@ ; `string'
PUBLIC	??_R0?AVNewShopIconBtn@@@8			; NewShopIconBtn `RTTI Type Descriptor'
PUBLIC	__real@3f0ccccd
PUBLIC	??_C@_0BM@EGPFJCKD@NewShopItemInfoWnd?3?3SetInfo?$AA@ ; `string'
PUBLIC	_this$GSCopy$
PUBLIC	?SetInfo@NewShopItemInfoWnd@@QAEXAAUtagNewShopItemInfo@@@Z ; NewShopItemInfoWnd::SetInfo
EXTRN	?GetPowerUpGradeType@ioUIImageRenderManager@@QAEHH@Z:PROC ; ioUIImageRenderManager::GetPowerUpGradeType
EXTRN	?GetSingleton@ioUIImageRenderManager@@SAAAV1@XZ:PROC ; ioUIImageRenderManager::GetSingleton
EXTRN	?GetItemConst@ioItemMaker@@QBEPBVioItem@@KABVioHashString@@@Z:PROC ; ioItemMaker::GetItemConst
EXTRN	?GetSingleton@ioItemMaker@@SAAAV1@XZ:PROC	; ioItemMaker::GetSingleton
EXTRN	__imp_??0ioHashString@@QAE@PBD@Z:PROC
EXTRN	?GetRandomMachineInfo@ioExtraItemInfoManager@@QAEPAVRandomMachineInfo@@H@Z:PROC ; ioExtraItemInfoManager::GetRandomMachineInfo
EXTRN	?GetSingleton@ioExtraItemInfoManager@@SAAAV1@XZ:PROC ; ioExtraItemInfoManager::GetSingleton
EXTRN	?GetGradeType@ioCostumeInfoManager@@QAEHH@Z:PROC ; ioCostumeInfoManager::GetGradeType
EXTRN	?GetSingleton@ioCostumeInfoManager@@SAAAV1@XZ:PROC ; ioCostumeInfoManager::GetSingleton
EXTRN	?GetCostumeMachineInfo@ioCostumeShopInfoManager@@QAEPAVCostumeShopInfo@@H@Z:PROC ; ioCostumeShopInfoManager::GetCostumeMachineInfo
EXTRN	?GetSingleton@ioCostumeShopInfoManager@@SAAAV1@XZ:PROC ; ioCostumeShopInfoManager::GetSingleton
EXTRN	?SetIcon@NewShopIconBtn@@QAE_NPAVioUIRenderImage@@@Z:PROC ; NewShopIconBtn::SetIcon
EXTRN	__imp_?CreateImageByFullName@ioUIImageSetManager@@QAEPAVioUIRenderImage@@ABVioHashString@@_N@Z:PROC
EXTRN	__imp_?GetSingleton@ioUIImageSetManager@@SAAAV1@XZ:PROC
EXTRN	?ConvertCTime@DateHelp@@YAXKAAVCTime@ATL@@@Z:PROC ; DateHelp::ConvertCTime
EXTRN	?GetCurrTime@DateHelp@@YAABVCTime@ATL@@XZ:PROC	; DateHelp::GetCurrTime
EXTRN	__imp_?PrintTimeAndLog@CLog@@QAAXHPADZZ:PROC
EXTRN	__imp_?LOG@@3VCLog@@A:BYTE
EXTRN	__imp_?FindChildWnd@ioWnd@@QAEPAV1@K@Z:PROC
EXTRN	?AddTextPiece@ioComplexStringPrinter@@QAEXMPBD0@Z:PROC ; ioComplexStringPrinter::AddTextPiece
EXTRN	?SetTextColor@ioComplexStringPrinter@@QAEXHHH@Z:PROC ; ioComplexStringPrinter::SetTextColor
EXTRN	?AddTextPiece@ioComplexStringPrinter@@QAEXMPBD00@Z:PROC ; ioComplexStringPrinter::AddTextPiece
EXTRN	?FindEtcItem@ioEtcItemManager@@QAEPAVioEtcItem@@K@Z:PROC ; ioEtcItemManager::FindEtcItem
EXTRN	__imp_?SafeSprintf@@YAXPADHPBD1@Z:PROC
EXTRN	?ConvertNumToStrComma@Help@@YAXHPADH@Z:PROC	; Help::ConvertNumToStrComma
EXTRN	?GetGradeName@ioMyLevelMgr@@QBEXHPADH_N1@Z:PROC	; ioMyLevelMgr::GetGradeName
EXTRN	?GetSingleton@ioMyLevelMgr@@SAAAV1@XZ:PROC	; ioMyLevelMgr::GetSingleton
EXTRN	__imp_?SafeSprintf@@YAXPADHPBDH@Z:PROC
EXTRN	?GetPresentValue2Text@ioPresentMgr@@QAEABVioHashString@@FHH@Z:PROC ; ioPresentMgr::GetPresentValue2Text
EXTRN	?GetSingleton@ioPresentMgr@@SAAAV1@XZ:PROC	; ioPresentMgr::GetSingleton
EXTRN	__imp_?ShowChildWnd@ioWnd@@QAEXK_N@Z:PROC
EXTRN	__imp_?SetChildActive@ioWnd@@QAEXK@Z:PROC
EXTRN	__imp_?IsEmpty@ioHashString@@QBE_NXZ:PROC
EXTRN	__EH_epilog3_GS:PROC
EXTRN	__EH_prolog3_GS:PROC
EXTRN	_memset:PROC
EXTRN	___RTDynamicCast:PROC
;	COMDAT ??_C@_0BA@CPGDPCCL@?$CFs?5pBtn?5?$DN?$DN?5NULL?$AA@
; File d:\lost saga for developer\youtube\tutorial\source\src\lsclient\gui\newshopiconbtn.h
CONST	SEGMENT
??_C@_0BA@CPGDPCCL@?$CFs?5pBtn?5?$DN?$DN?5NULL?$AA@ DB '%s pBtn == NULL', 00H ; `string'
CONST	ENDS
;	COMDAT ??_R0?AVNewShopIconBtn@@@8
_DATA	SEGMENT
??_R0?AVNewShopIconBtn@@@8 DD FLAT:??_7type_info@@6B@	; NewShopIconBtn `RTTI Type Descriptor'
	DD	00H
	DB	'.?AVNewShopIconBtn@@', 00H
_DATA	ENDS
;	COMDAT __real@3f0ccccd
CONST	SEGMENT
__real@3f0ccccd DD 03f0ccccdr			; 0.55
CONST	ENDS
;	COMDAT ??_C@_0BM@EGPFJCKD@NewShopItemInfoWnd?3?3SetInfo?$AA@
CONST	SEGMENT
??_C@_0BM@EGPFJCKD@NewShopItemInfoWnd?3?3SetInfo?$AA@ DB 'NewShopItemInfo'
	DB	'Wnd::SetInfo', 00H				; `string'
CONST	ENDS
;	COMDAT xdata$x
xdata$x	SEGMENT
__unwindtable$?SetInfo@NewShopItemInfoWnd@@QAEXAAUtagNewShopItemInfo@@@Z DD 0ffffffffH
	DD	FLAT:__unwindfunclet$?SetInfo@NewShopItemInfoWnd@@QAEXAAUtagNewShopItemInfo@@@Z$0
__ehfuncinfo$?SetInfo@NewShopItemInfoWnd@@QAEXAAUtagNewShopItemInfo@@@Z DD 019930522H
	DD	01H
	DD	FLAT:__unwindtable$?SetInfo@NewShopItemInfoWnd@@QAEXAAUtagNewShopItemInfo@@@Z
	DD	2 DUP(00H)
	DD	2 DUP(00H)
	DD	00H
	DD	01H
; Function compile flags: /Ogsp
; File d:\lost saga for developer\youtube\tutorial\source\src\lsclient\gui\newshopiteminfownd.cpp
xdata$x	ENDS
;	COMDAT ?SetInfo@NewShopItemInfoWnd@@QAEXAAUtagNewShopItemInfo@@@Z
_TEXT	SEGMENT
$T508919 = -584						; size = 16
_kCurrTime$505476 = -568				; size = 8
_kLimitTime$505475 = -560				; size = 8
_iReinforceNumber$ = -556				; size = 4
_bTextStamp$ = -549					; size = 1
_this$GSCopy$ = -548					; size = 4
tv990 = -544						; size = 4
_pBtn$ = -544						; size = 4
_iArray$505463 = -544					; size = 4
_iArray$505449 = -544					; size = 4
_iBonusPesoArray$505432 = -544				; size = 4
_bTextPeso$ = -538					; size = 1
_bAscendingOrder$ = -537				; size = 1
_szComma$505468 = -536					; size = 260
_szComma$505452 = -536					; size = 260
_szText$505447 = -536					; size = 260
_szComma$505457 = -276					; size = 260
_szComma$505446 = -276					; size = 260
_szText$505438 = -276					; size = 260
__$EHRec$ = -12						; size = 12
_rkInfo$ = 8						; size = 4
?SetInfo@NewShopItemInfoWnd@@QAEXAAUtagNewShopItemInfo@@@Z PROC ; NewShopItemInfoWnd::SetInfo, COMDAT
; _this$ = ecx

; 181  : {

  00000	68 3c 02 00 00	 push	 572			; 0000023cH
  00005	b8 00 00 00 00	 mov	 eax, __ehhandler$?SetInfo@NewShopItemInfoWnd@@QAEXAAUtagNewShopItemInfo@@@Z
  0000a	e8 00 00 00 00	 call	 __EH_prolog3_GS
  0000f	8b 75 08	 mov	 esi, DWORD PTR _rkInfo$[ebp]
  00012	8b f9		 mov	 edi, ecx

; 182  : 	m_ItemInfo = rkInfo;

  00014	56		 push	 esi
  00015	8d 8f 70 02 00
	00		 lea	 ecx, DWORD PTR [edi+624]

; 391  : 		}
; 392  : 		char szComma[MAX_PATH]="";

  0001b	89 bd dc fd ff
	ff		 mov	 DWORD PTR _this$GSCopy$[ebp], edi
  00021	e8 00 00 00 00	 call	 ??4tagNewShopItemInfo@@QAEAAU0@ABU0@@Z
  00026	33 db		 xor	 ebx, ebx
  00028	8d 8e ac 00 00
	00		 lea	 ecx, DWORD PTR [esi+172]
  0002e	89 9f 40 03 00
	00		 mov	 DWORD PTR [edi+832], ebx
  00034	ff 15 00 00 00
	00		 call	 DWORD PTR __imp_?IsEmpty@ioHashString@@QBE_NXZ
  0003a	84 c0		 test	 al, al
  0003c	0f 85 16 0a 00
	00		 jne	 $LN71@SetInfo

; 183  : 	m_nGradeType = 0;
; 184  : 
; 185  : 	if( rkInfo.m_sName.IsEmpty() || rkInfo.m_sIcon.IsEmpty() )

  00042	8d 8e bc 00 00
	00		 lea	 ecx, DWORD PTR [esi+188]
  00048	ff 15 00 00 00
	00		 call	 DWORD PTR __imp_?IsEmpty@ioHashString@@QBE_NXZ
  0004e	84 c0		 test	 al, al
  00050	0f 85 02 0a 00
	00		 jne	 $LN71@SetInfo

; 188  : 		return;
; 189  : 	}
; 190  : 
; 191  : 	SetActive();

  00056	8b 07		 mov	 eax, DWORD PTR [edi]
  00058	8b cf		 mov	 ecx, edi
  0005a	ff 50 20	 call	 DWORD PTR [eax+32]

; 192  : 
; 193  : 	// etc btn
; 194  : 	SetChildActive( ID_ICON_BTN );

  0005d	6a 01		 push	 1
  0005f	8b cf		 mov	 ecx, edi
  00061	ff 15 00 00 00
	00		 call	 DWORD PTR __imp_?SetChildActive@ioWnd@@QAEXK@Z

; 195  : 	ShowChildWnd( ID_DETAIL_BTN );

  00067	53		 push	 ebx
  00068	6a 02		 push	 2
  0006a	8b cf		 mov	 ecx, edi
  0006c	ff 15 00 00 00
	00		 call	 DWORD PTR __imp_?ShowChildWnd@ioWnd@@QAEXK_N@Z

; 196  : 
; 197  : 	// 
; 198  : 	// 
; 199  : 	bool bTextPeso = false;

  00072	88 9d e6 fd ff
	ff		 mov	 BYTE PTR _bTextPeso$[ebp], bl

; 200  : 	if( ( rkInfo.m_bShowPeso && rkInfo.GetPeso( 0 ) > 0 )       ||
; 201  : 		( rkInfo.GetPeso( 0 ) > 0 && rkInfo.GetCash( 0 ) <= 0 ) ||
; 202  : 		( rkInfo.m_iNeedLevel == 0 && rkInfo.GetPeso( 0 ) > 0 && rkInfo.GetCash( 0 ) > 0 ) )

  00078	39 5e 0c	 cmp	 DWORD PTR [esi+12], ebx
  0007b	74 1a		 je	 SHORT $LN68@SetInfo
  0007d	8b 46 14	 mov	 eax, DWORD PTR [esi+20]
  00080	2b 46 10	 sub	 eax, DWORD PTR [esi+16]
  00083	a9 fc ff ff ff	 test	 eax, -4			; fffffffcH
  00088	7e 07		 jle	 SHORT $LN76@SetInfo
  0008a	8b 46 10	 mov	 eax, DWORD PTR [esi+16]
  0008d	8b 00		 mov	 eax, DWORD PTR [eax]
  0008f	eb 02		 jmp	 SHORT $LN77@SetInfo
$LN76@SetInfo:
  00091	33 c0		 xor	 eax, eax
$LN77@SetInfo:
  00093	3b c3		 cmp	 eax, ebx
  00095	7f 65		 jg	 SHORT $LN69@SetInfo
$LN68@SetInfo:
  00097	8b 46 14	 mov	 eax, DWORD PTR [esi+20]
  0009a	2b 46 10	 sub	 eax, DWORD PTR [esi+16]
  0009d	c1 f8 02	 sar	 eax, 2
  000a0	3b c3		 cmp	 eax, ebx
  000a2	7e 07		 jle	 SHORT $LN83@SetInfo
  000a4	8b 4e 10	 mov	 ecx, DWORD PTR [esi+16]
  000a7	8b 09		 mov	 ecx, DWORD PTR [ecx]
  000a9	eb 02		 jmp	 SHORT $LN84@SetInfo
$LN83@SetInfo:
  000ab	33 c9		 xor	 ecx, ecx
$LN84@SetInfo:
  000ad	3b cb		 cmp	 ecx, ebx
  000af	7e 1b		 jle	 SHORT $LN67@SetInfo
  000b1	8b 4e 24	 mov	 ecx, DWORD PTR [esi+36]
  000b4	2b 4e 20	 sub	 ecx, DWORD PTR [esi+32]
  000b7	f7 c1 fc ff ff
	ff		 test	 ecx, -4			; fffffffcH
  000bd	7e 07		 jle	 SHORT $LN90@SetInfo
  000bf	8b 4e 20	 mov	 ecx, DWORD PTR [esi+32]
  000c2	8b 09		 mov	 ecx, DWORD PTR [ecx]
  000c4	eb 02		 jmp	 SHORT $LN91@SetInfo
$LN90@SetInfo:
  000c6	33 c9		 xor	 ecx, ecx
$LN91@SetInfo:
  000c8	3b cb		 cmp	 ecx, ebx
  000ca	7e 30		 jle	 SHORT $LN69@SetInfo
$LN67@SetInfo:
  000cc	39 5e 54	 cmp	 DWORD PTR [esi+84], ebx
  000cf	75 32		 jne	 SHORT $LN70@SetInfo
  000d1	3b c3		 cmp	 eax, ebx
  000d3	7e 07		 jle	 SHORT $LN97@SetInfo
  000d5	8b 46 10	 mov	 eax, DWORD PTR [esi+16]
  000d8	8b 00		 mov	 eax, DWORD PTR [eax]
  000da	eb 02		 jmp	 SHORT $LN98@SetInfo
$LN97@SetInfo:
  000dc	33 c0		 xor	 eax, eax
$LN98@SetInfo:
  000de	3b c3		 cmp	 eax, ebx
  000e0	7e 21		 jle	 SHORT $LN70@SetInfo
  000e2	8b 46 24	 mov	 eax, DWORD PTR [esi+36]
  000e5	2b 46 20	 sub	 eax, DWORD PTR [esi+32]
  000e8	a9 fc ff ff ff	 test	 eax, -4			; fffffffcH
  000ed	7e 07		 jle	 SHORT $LN104@SetInfo
  000ef	8b 46 20	 mov	 eax, DWORD PTR [esi+32]
  000f2	8b 00		 mov	 eax, DWORD PTR [eax]
  000f4	eb 02		 jmp	 SHORT $LN105@SetInfo
$LN104@SetInfo:
  000f6	33 c0		 xor	 eax, eax
$LN105@SetInfo:
  000f8	3b c3		 cmp	 eax, ebx
  000fa	7e 07		 jle	 SHORT $LN70@SetInfo
$LN69@SetInfo:

; 203  : 		bTextPeso = true;

  000fc	c6 85 e6 fd ff
	ff 01		 mov	 BYTE PTR _bTextPeso$[ebp], 1
$LN70@SetInfo:

; 204  : 
; 205  : 	//  
; 206  : 	bool bTextStamp = false;  
; 207  : 	if( rkInfo.GetStamp( 0 ) > 0 )

  00103	8b 46 34	 mov	 eax, DWORD PTR [esi+52]
  00106	2b 46 30	 sub	 eax, DWORD PTR [esi+48]
  00109	88 9d db fd ff
	ff		 mov	 BYTE PTR _bTextStamp$[ebp], bl
  0010f	a9 fc ff ff ff	 test	 eax, -4			; fffffffcH
  00114	7e 07		 jle	 SHORT $LN111@SetInfo
  00116	8b 46 30	 mov	 eax, DWORD PTR [esi+48]
  00119	8b 00		 mov	 eax, DWORD PTR [eax]
  0011b	eb 02		 jmp	 SHORT $LN112@SetInfo
$LN111@SetInfo:
  0011d	33 c0		 xor	 eax, eax
$LN112@SetInfo:
  0011f	3b c3		 cmp	 eax, ebx
  00121	7e 07		 jle	 SHORT $LN66@SetInfo

; 208  : 		bTextStamp = true;

  00123	c6 85 db fd ff
	ff 01		 mov	 BYTE PTR _bTextStamp$[ebp], 1
$LN66@SetInfo:

; 209  : 
; 210  : 	//    
; 211  : 	int iReinforceNumber = 0;
; 212  : 
; 213  : 	m_eLimitRender = LR_NONE;

  0012a	89 9f 6c 02 00
	00		 mov	 DWORD PTR [edi+620], ebx

; 214  : 	if( rkInfo.m_iItemType == PRESENT_DEFAULT )

  00130	8b 06		 mov	 eax, DWORD PTR [esi]
  00132	6a 07		 push	 7
  00134	89 9d d4 fd ff
	ff		 mov	 DWORD PTR _iReinforceNumber$[ebp], ebx
  0013a	59		 pop	 ecx
  0013b	3b c3		 cmp	 eax, ebx
  0013d	75 66		 jne	 SHORT $LN65@SetInfo

; 215  : 	{
; 216  : 		//  
; 217  : 		if( rkInfo.m_iValue0 == PRESENT_EXTRAITEM )

  0013f	83 7e 78 05	 cmp	 DWORD PTR [esi+120], 5
  00143	75 33		 jne	 SHORT $LN63@SetInfo

; 218  : 		{
; 219  : 			// 
; 220  : 			iReinforceNumber = ( rkInfo.m_iValue2 % PRESENT_EXTRAITEM_DIVISION_1 ) / PRESENT_EXTRAITEM_DIVISION_2;

  00145	8b 86 80 00 00
	00		 mov	 eax, DWORD PTR [esi+128]
  0014b	99		 cdq
  0014c	b9 00 e1 f5 05	 mov	 ecx, 100000000		; 05f5e100H
  00151	f7 f9		 idiv	 ecx
  00153	b9 10 27 00 00	 mov	 ecx, 10000		; 00002710H
  00158	89 85 e0 fd ff
	ff		 mov	 DWORD PTR tv990[ebp], eax
  0015e	8b c2		 mov	 eax, edx
  00160	99		 cdq
  00161	f7 f9		 idiv	 ecx
  00163	89 85 d4 fd ff
	ff		 mov	 DWORD PTR _iReinforceNumber$[ebp], eax

; 221  : 
; 222  : 			//  
; 223  : 			if( rkInfo.m_iValue2 / PRESENT_EXTRAITEM_DIVISION_1 != 0 )

  00169	39 9d e0 fd ff
	ff		 cmp	 DWORD PTR tv990[ebp], ebx
  0016f	74 07		 je	 SHORT $LN63@SetInfo

; 224  : 				rkInfo.m_iShopMarkType = SHOP_MARK_TYPE_EXTRAITEM_GROWTH_CATALYST;

  00171	c7 46 08 08 00
	00 00		 mov	 DWORD PTR [esi+8], 8
$LN63@SetInfo:

; 225  : 		}
; 226  : 
; 227  : 		//     Sold Out 
; 228  : 		if( rkInfo.m_iShopMarkType == SHOP_MARK_TYPE_LIMIT_GOODS || rkInfo.m_iShopMarkType == SHOP_MARK_TYPE_LIMIT_DAYS )

  00178	8b 46 08	 mov	 eax, DWORD PTR [esi+8]
  0017b	83 f8 06	 cmp	 eax, 6
  0017e	74 05		 je	 SHORT $LN61@SetInfo
  00180	83 f8 0b	 cmp	 eax, 11			; 0000000bH
  00183	75 4b		 jne	 SHORT $LN57@SetInfo
$LN61@SetInfo:

; 229  : 		{
; 230  : 			if( rkInfo.GetValue3( 1 ) == 0 )

  00185	6a 01		 push	 1
  00187	8b ce		 mov	 ecx, esi
  00189	e8 00 00 00 00	 call	 ?GetValue3@tagNewShopItemInfo@@QBEHH@Z ; tagNewShopItemInfo::GetValue3
  0018e	85 c0		 test	 eax, eax
  00190	75 07		 jne	 SHORT $LN60@SetInfo

; 231  : 				rkInfo.m_iShopMarkType = SHOP_MARK_TYPE_SOLD_OUT;

  00192	c7 46 08 07 00
	00 00		 mov	 DWORD PTR [esi+8], 7
$LN60@SetInfo:

; 232  : 
; 233  : 			m_eLimitRender = LR_DEFULT_LIMIT;

  00199	c7 87 6c 02 00
	00 01 00 00 00	 mov	 DWORD PTR [edi+620], 1

; 234  : 		}
; 235  : 	}

  001a3	eb 2b		 jmp	 SHORT $LN57@SetInfo
$LN65@SetInfo:

; 236  : 	else if( rkInfo.m_iItemType == PRESENT_ETC_ITEM )

  001a5	83 f8 03	 cmp	 eax, 3
  001a8	75 26		 jne	 SHORT $LN57@SetInfo

; 237  : 	{
; 238  : 		//     Sold Out 
; 239  : 		if( rkInfo.m_iShopMarkType == SHOP_MARK_TYPE_LIMIT_GOODS || rkInfo.m_iShopMarkType == SHOP_MARK_TYPE_LIMIT_DAYS || rkInfo.m_iShopMarkType == SHOP_MARK_TYPE_SOLD_OUT )

  001aa	8b 46 08	 mov	 eax, DWORD PTR [esi+8]
  001ad	83 f8 06	 cmp	 eax, 6
  001b0	74 09		 je	 SHORT $LN56@SetInfo
  001b2	83 f8 0b	 cmp	 eax, 11			; 0000000bH
  001b5	74 04		 je	 SHORT $LN56@SetInfo
  001b7	3b c1		 cmp	 eax, ecx
  001b9	75 15		 jne	 SHORT $LN57@SetInfo
$LN56@SetInfo:

; 240  : 		{
; 241  : 			if( rkInfo.m_iLimit == 0 )

  001bb	39 9e 94 00 00
	00		 cmp	 DWORD PTR [esi+148], ebx
  001c1	75 03		 jne	 SHORT $LN55@SetInfo

; 242  : 				rkInfo.m_iShopMarkType = SHOP_MARK_TYPE_SOLD_OUT;

  001c3	89 4e 08	 mov	 DWORD PTR [esi+8], ecx
$LN55@SetInfo:

; 243  : 
; 244  : 			m_eLimitRender = LR_ETC_LIMIT;

  001c6	c7 87 6c 02 00
	00 02 00 00 00	 mov	 DWORD PTR [edi+620], 2
$LN57@SetInfo:

; 245  : 		}
; 246  : 	}
; 247  : 
; 248  : 	// desc
; 249  : 	ClearDesc();

  001d0	8b cf		 mov	 ecx, edi
  001d2	e8 00 00 00 00	 call	 ?ClearDesc@NewShopItemInfoWnd@@IAEXXZ ; NewShopItemInfoWnd::ClearDesc

; 250  : 
; 251  : 	m_szDescArray[0].SetTextStyle( TS_NORMAL );

  001d7	8d 8f fc 01 00
	00		 lea	 ecx, DWORD PTR [edi+508]
  001dd	53		 push	 ebx
  001de	e8 00 00 00 00	 call	 ?SetTextStyle@ioComplexStringPrinter@@QAEXW4TextStyle@@@Z ; ioComplexStringPrinter::SetTextStyle

; 252  : 	m_szDescArray[0].SetBkColor( 0, 0, 0 );	

  001e3	53		 push	 ebx
  001e4	53		 push	 ebx
  001e5	53		 push	 ebx
  001e6	8d 8f fc 01 00
	00		 lea	 ecx, DWORD PTR [edi+508]
  001ec	e8 00 00 00 00	 call	 ?SetBkColor@ioComplexStringPrinter@@QAEXHHH@Z ; ioComplexStringPrinter::SetBkColor

; 253  : 	m_szDescArray[0].SetTextColor( TCT_DEFAULT_DARKGRAY ); // 

  001f1	68 3a 3a 3a ff	 push	 -12961222		; ff3a3a3aH
  001f6	8d 8f fc 01 00
	00		 lea	 ecx, DWORD PTR [edi+508]
  001fc	e8 00 00 00 00	 call	 ?SetTextColor@ioComplexStringPrinter@@QAEXK@Z ; ioComplexStringPrinter::SetTextColor

; 254  : 	m_szDescArray[0].AddTextPiece( FONT_SIZE_13, rkInfo.m_sName.c_str() );

  00201	8d 8e ac 00 00
	00		 lea	 ecx, DWORD PTR [esi+172]
  00207	ff 15 00 00 00
	00		 call	 DWORD PTR __imp_?c_str@ioHashString@@QBEPBDXZ
  0020d	f3 0f 10 05 00
	00 00 00	 movss	 xmm0, DWORD PTR __real@3f266666
  00215	50		 push	 eax
  00216	51		 push	 ecx
  00217	8d 87 fc 01 00
	00		 lea	 eax, DWORD PTR [edi+508]
  0021d	f3 0f 11 04 24	 movss	 DWORD PTR [esp], xmm0
  00222	50		 push	 eax
  00223	e8 00 00 00 00	 call	 ?AddTextPiece@ioComplexStringPrinter@@QAAXMPBDZZ ; ioComplexStringPrinter::AddTextPiece
  00228	83 c4 0c	 add	 esp, 12			; 0000000cH

; 255  : 
; 256  : 	m_szDescArray[1].SetTextStyle( TS_NORMAL );

  0022b	81 c7 1c 02 00
	00		 add	 edi, 540		; 0000021cH
  00231	53		 push	 ebx
  00232	8b cf		 mov	 ecx, edi
  00234	e8 00 00 00 00	 call	 ?SetTextStyle@ioComplexStringPrinter@@QAEXW4TextStyle@@@Z ; ioComplexStringPrinter::SetTextStyle

; 257  : 	m_szDescArray[1].SetBkColor( 0, 0, 0);	

  00239	53		 push	 ebx
  0023a	53		 push	 ebx
  0023b	53		 push	 ebx
  0023c	8b cf		 mov	 ecx, edi
  0023e	e8 00 00 00 00	 call	 ?SetBkColor@ioComplexStringPrinter@@QAEXHHH@Z ; ioComplexStringPrinter::SetBkColor

; 258  : 	m_szDescArray[1].SetTextColor( TCT_DEFAULT_GRAY ); // 

  00243	68 6e 6e 6e ff	 push	 -9539986		; ff6e6e6eH
  00248	8b cf		 mov	 ecx, edi
  0024a	e8 00 00 00 00	 call	 ?SetTextColor@ioComplexStringPrinter@@QAEXK@Z ; ioComplexStringPrinter::SetTextColor

; 259  : 
; 260  : 
; 261  : 	bool bAscendingOrder = false; //      bAscendingOrder   
; 262  : 
; 263  : 	if( rkInfo.m_iItemType == PRESENT_ETC_ITEM ||
; 264  : 		rkInfo.m_iItemType == PRESENT_EXTRAITEM_BOX ||
; 265  : 		rkInfo.m_iItemType == PRESENT_DECORATION ||
; 266  : 		rkInfo.m_iItemType == PRESENT_COSTUME_BOX )

  0024f	8b 06		 mov	 eax, DWORD PTR [esi]
  00251	88 9d e7 fd ff
	ff		 mov	 BYTE PTR _bAscendingOrder$[ebp], bl
  00257	83 f8 03	 cmp	 eax, 3
  0025a	74 0f		 je	 SHORT $LN53@SetInfo
  0025c	83 f8 06	 cmp	 eax, 6
  0025f	74 0a		 je	 SHORT $LN53@SetInfo
  00261	83 f8 02	 cmp	 eax, 2
  00264	74 05		 je	 SHORT $LN53@SetInfo
  00266	83 f8 0f	 cmp	 eax, 15			; 0000000fH
  00269	75 07		 jne	 SHORT $LN54@SetInfo
$LN53@SetInfo:

; 267  : 		bAscendingOrder = true;

  0026b	c6 85 e7 fd ff
	ff 01		 mov	 BYTE PTR _bAscendingOrder$[ebp], 1
$LN54@SetInfo:

; 268  : 
; 269  : 	//    
; 270  : 	if( rkInfo.m_iItemType == PRESENT_ETC_ITEM && rkInfo.m_iValue1 == ioEtcItem::EIT_ETC_WHOLE_CHAT )

  00272	83 f8 03	 cmp	 eax, 3
  00275	75 67		 jne	 SHORT $LN50@SetInfo
  00277	8b 7e 7c	 mov	 edi, DWORD PTR [esi+124]
  0027a	81 ff 41 42 0f
	00		 cmp	 edi, 1000001		; 000f4241H
  00280	75 06		 jne	 SHORT $LN52@SetInfo

; 271  : 		bAscendingOrder = false;

  00282	88 9d e7 fd ff
	ff		 mov	 BYTE PTR _bAscendingOrder$[ebp], bl
$LN52@SetInfo:

; 272  : 
; 273  : 	// +200 
; 274  : 	if( rkInfo.m_iItemType == PRESENT_ETC_ITEM && rkInfo.m_iValue1 == ioEtcItem::EIT_ETC_EXP_BONUS && rkInfo.GetPeso( 2 ) > 0 )

  00288	81 ff 4c 4b 4c
	00		 cmp	 edi, 5000012		; 004c4b4cH
  0028e	75 23		 jne	 SHORT $LN51@SetInfo
  00290	8b 4e 14	 mov	 ecx, DWORD PTR [esi+20]
  00293	2b 4e 10	 sub	 ecx, DWORD PTR [esi+16]
  00296	83 e1 fc	 and	 ecx, -4			; fffffffcH
  00299	83 f9 08	 cmp	 ecx, 8
  0029c	7e 08		 jle	 SHORT $LN118@SetInfo
  0029e	8b 4e 10	 mov	 ecx, DWORD PTR [esi+16]
  002a1	8b 49 08	 mov	 ecx, DWORD PTR [ecx+8]
  002a4	eb 02		 jmp	 SHORT $LN119@SetInfo
$LN118@SetInfo:
  002a6	33 c9		 xor	 ecx, ecx
$LN119@SetInfo:
  002a8	3b cb		 cmp	 ecx, ebx
  002aa	7e 07		 jle	 SHORT $LN51@SetInfo

; 275  : 	{
; 276  : 		bTextPeso = true;

  002ac	c6 85 e6 fd ff
	ff 01		 mov	 BYTE PTR _bTextPeso$[ebp], 1
$LN51@SetInfo:

; 277  : 	}
; 278  : 
; 279  : 	// +100 
; 280  : 	if( rkInfo.m_iItemType == PRESENT_ETC_ITEM && rkInfo.m_iValue1 == ioEtcItem::EIT_ETC_PESO_BONUS && rkInfo.GetPeso( 2 ) > 0 )

  002b3	81 ff 4b 4b 4c
	00		 cmp	 edi, 5000011		; 004c4b4bH
  002b9	75 23		 jne	 SHORT $LN50@SetInfo
  002bb	8b 4e 14	 mov	 ecx, DWORD PTR [esi+20]
  002be	2b 4e 10	 sub	 ecx, DWORD PTR [esi+16]
  002c1	83 e1 fc	 and	 ecx, -4			; fffffffcH
  002c4	83 f9 08	 cmp	 ecx, 8
  002c7	7e 08		 jle	 SHORT $LN125@SetInfo
  002c9	8b 4e 10	 mov	 ecx, DWORD PTR [esi+16]
  002cc	8b 49 08	 mov	 ecx, DWORD PTR [ecx+8]
  002cf	eb 02		 jmp	 SHORT $LN126@SetInfo
$LN125@SetInfo:
  002d1	33 c9		 xor	 ecx, ecx
$LN126@SetInfo:
  002d3	3b cb		 cmp	 ecx, ebx
  002d5	7e 07		 jle	 SHORT $LN50@SetInfo

; 281  : 	{
; 282  : 		bTextPeso = true;

  002d7	c6 85 e6 fd ff
	ff 01		 mov	 BYTE PTR _bTextPeso$[ebp], 1
$LN50@SetInfo:

; 283  : 	}
; 284  : 
; 285  : 	//     
; 286  : 	if( rkInfo.m_iItemType == PRESENT_SOLDIER && rkInfo.m_iShopMarkType == SHOP_MARK_TYPE_EVENT )

  002de	83 f8 01	 cmp	 eax, 1
  002e1	75 12		 jne	 SHORT $LN49@SetInfo
  002e3	83 7e 08 04	 cmp	 DWORD PTR [esi+8], 4
  002e7	75 0c		 jne	 SHORT $LN49@SetInfo

; 287  : 	{
; 288  : 		bAscendingOrder = false;

  002e9	88 9d e7 fd ff
	ff		 mov	 BYTE PTR _bAscendingOrder$[ebp], bl

; 289  : 		bTextPeso       = false;

  002ef	88 9d e6 fd ff
	ff		 mov	 BYTE PTR _bTextPeso$[ebp], bl
$LN49@SetInfo:

; 290  : 	}
; 291  : 
; 292  : 	//   
; 293  : 	if( rkInfo.m_iItemType == PRESENT_DEFAULT )

  002f5	bf 04 01 00 00	 mov	 edi, 260		; 00000104H
  002fa	39 1e		 cmp	 DWORD PTR [esi], ebx
  002fc	75 27		 jne	 SHORT $LN48@SetInfo

; 294  : 	{
; 295  : 		m_szDescArray[1].AddTextPiece( FONT_SIZE_11, g_PresentMgr.GetPresentValue2Text( rkInfo.m_iValue0, rkInfo.m_iValue1, rkInfo.m_iValue2 ).c_str() );

  002fe	ff b6 80 00 00
	00		 push	 DWORD PTR [esi+128]
  00304	0f b7 46 78	 movzx	 eax, WORD PTR [esi+120]
  00308	ff 76 7c	 push	 DWORD PTR [esi+124]
  0030b	50		 push	 eax
  0030c	e8 00 00 00 00	 call	 ?GetSingleton@ioPresentMgr@@SAAAV1@XZ ; ioPresentMgr::GetSingleton
  00311	8b c8		 mov	 ecx, eax
  00313	e8 00 00 00 00	 call	 ?GetPresentValue2Text@ioPresentMgr@@QAEABVioHashString@@FHH@Z ; ioPresentMgr::GetPresentValue2Text
  00318	8b c8		 mov	 ecx, eax
  0031a	ff 15 00 00 00
	00		 call	 DWORD PTR __imp_?c_str@ioHashString@@QBEPBDXZ

; 296  : 	}
; 297  : 	else

  00320	e9 e3 01 00 00	 jmp	 $LN218@SetInfo
$LN48@SetInfo:

; 298  : 	{
; 299  : 		int iBonusPesoArray = 0;

  00325	89 9d e0 fd ff
	ff		 mov	 DWORD PTR _iBonusPesoArray$505432[ebp], ebx

; 300  : 		if( !bAscendingOrder )

  0032b	38 9d e7 fd ff
	ff		 cmp	 BYTE PTR _bAscendingOrder$[ebp], bl
  00331	75 10		 jne	 SHORT $LN46@SetInfo

; 301  : 			iBonusPesoArray = rkInfo.m_vBonusPeso.size()-1;

  00333	8b 46 5c	 mov	 eax, DWORD PTR [esi+92]
  00336	2b 46 58	 sub	 eax, DWORD PTR [esi+88]
  00339	c1 f8 02	 sar	 eax, 2
  0033c	48		 dec	 eax
  0033d	89 85 e0 fd ff
	ff		 mov	 DWORD PTR _iBonusPesoArray$505432[ebp], eax
$LN46@SetInfo:

; 302  : 
; 303  : 		if( rkInfo.GetBonusPeso( iBonusPesoArray ) <= 0 )

  00343	ff b5 e0 fd ff
	ff		 push	 DWORD PTR _iBonusPesoArray$505432[ebp]
  00349	8b ce		 mov	 ecx, esi
  0034b	e8 00 00 00 00	 call	 ?GetBonusPeso@tagNewShopItemInfo@@QAEHH@Z ; tagNewShopItemInfo::GetBonusPeso
  00350	85 c0		 test	 eax, eax
  00352	7f 16		 jg	 SHORT $LN43@SetInfo

; 304  : 		{
; 305  : 			if( !bAscendingOrder )

  00354	38 9d e7 fd ff
	ff		 cmp	 BYTE PTR _bAscendingOrder$[ebp], bl
  0035a	75 08		 jne	 SHORT $LN44@SetInfo

; 306  : 				iBonusPesoArray--;

  0035c	ff 8d e0 fd ff
	ff		 dec	 DWORD PTR _iBonusPesoArray$505432[ebp]

; 307  : 			else

  00362	eb 06		 jmp	 SHORT $LN43@SetInfo
$LN44@SetInfo:

; 308  : 				iBonusPesoArray++;

  00364	ff 85 e0 fd ff
	ff		 inc	 DWORD PTR _iBonusPesoArray$505432[ebp]
$LN43@SetInfo:

; 309  : 		}
; 310  : 		
; 311  : 		if( rkInfo.m_iNeedLevel > 0 )

  0036a	39 5e 54	 cmp	 DWORD PTR [esi+84], ebx
  0036d	0f 8e e9 00 00
	00		 jle	 $LN42@SetInfo

; 312  : 		{
; 313  : 			char szText[MAX_PATH]="";

  00373	68 03 01 00 00	 push	 259			; 00000103H
  00378	8d 85 ed fe ff
	ff		 lea	 eax, DWORD PTR _szText$505438[ebp+1]
  0037e	53		 push	 ebx
  0037f	50		 push	 eax
  00380	88 9d ec fe ff
	ff		 mov	 BYTE PTR _szText$505438[ebp], bl
  00386	e8 00 00 00 00	 call	 _memset
  0038b	83 c4 0c	 add	 esp, 12			; 0000000cH

; 314  : 			if( rkInfo.m_iItemType == PRESENT_DECORATION )

  0038e	83 3e 02	 cmp	 DWORD PTR [esi], 2
  00391	75 35		 jne	 SHORT $LN41@SetInfo

; 315  : 				SafeSprintf( szText, sizeof( szText ),  STR(1), rkInfo.m_iNeedLevel );

  00393	ff 76 54	 push	 DWORD PTR [esi+84]
  00396	53		 push	 ebx
  00397	6a 01		 push	 1
  00399	68 00 00 00 00	 push	 OFFSET ??_C@_00CNPNBAHC@?$AA@
  0039e	68 00 00 00 00	 push	 OFFSET ??_C@_0BM@EGPFJCKD@NewShopItemInfoWnd?3?3SetInfo?$AA@
  003a3	ff 15 00 00 00
	00		 call	 DWORD PTR __imp_?GetSingleton@ioStringManager@@SAAAV1@XZ
  003a9	8b c8		 mov	 ecx, eax
  003ab	ff 15 00 00 00
	00		 call	 DWORD PTR __imp_?GetString@ioStringManager@@QAEPADPBD0HW4FileNamePrefix@1@@Z
  003b1	50		 push	 eax
  003b2	8d 85 ec fe ff
	ff		 lea	 eax, DWORD PTR _szText$505438[ebp]
  003b8	57		 push	 edi
  003b9	50		 push	 eax
  003ba	ff 15 00 00 00
	00		 call	 DWORD PTR __imp_?SafeSprintf@@YAXPADHPBDH@Z
  003c0	83 c4 10	 add	 esp, 16			; 00000010H

; 316  : 			else

  003c3	e9 89 00 00 00	 jmp	 $LN38@SetInfo
$LN41@SetInfo:

; 317  : 			{
; 318  : 				if( rkInfo.GetPeso( 0 ) != 0 )

  003c8	8b 46 14	 mov	 eax, DWORD PTR [esi+20]
  003cb	2b 46 10	 sub	 eax, DWORD PTR [esi+16]
  003ce	a9 fc ff ff ff	 test	 eax, -4			; fffffffcH
  003d3	7e 07		 jle	 SHORT $LN134@SetInfo
  003d5	8b 46 10	 mov	 eax, DWORD PTR [esi+16]
  003d8	8b 00		 mov	 eax, DWORD PTR [eax]
  003da	eb 02		 jmp	 SHORT $LN135@SetInfo
$LN134@SetInfo:
  003dc	33 c0		 xor	 eax, eax
$LN135@SetInfo:
  003de	3b c3		 cmp	 eax, ebx
  003e0	74 46		 je	 SHORT $LN39@SetInfo

; 319  : 				{
; 320  : 					g_LevelMgr.GetGradeName( rkInfo.m_iNeedLevel, szText, sizeof(szText), true );

  003e2	6a 01		 push	 1
  003e4	6a 01		 push	 1
  003e6	57		 push	 edi
  003e7	8d 85 ec fe ff
	ff		 lea	 eax, DWORD PTR _szText$505438[ebp]
  003ed	50		 push	 eax
  003ee	ff 76 54	 push	 DWORD PTR [esi+84]
  003f1	e8 00 00 00 00	 call	 ?GetSingleton@ioMyLevelMgr@@SAAAV1@XZ ; ioMyLevelMgr::GetSingleton
  003f6	8b c8		 mov	 ecx, eax
  003f8	e8 00 00 00 00	 call	 ?GetGradeName@ioMyLevelMgr@@QBEXHPADH_N1@Z ; ioMyLevelMgr::GetGradeName

; 321  : 					StringCbCat( szText, sizeof( szText ), STR(2) );

  003fd	53		 push	 ebx
  003fe	6a 02		 push	 2
  00400	68 00 00 00 00	 push	 OFFSET ??_C@_00CNPNBAHC@?$AA@
  00405	68 00 00 00 00	 push	 OFFSET ??_C@_0BM@EGPFJCKD@NewShopItemInfoWnd?3?3SetInfo?$AA@
  0040a	ff 15 00 00 00
	00		 call	 DWORD PTR __imp_?GetSingleton@ioStringManager@@SAAAV1@XZ
  00410	8b c8		 mov	 ecx, eax
  00412	ff 15 00 00 00
	00		 call	 DWORD PTR __imp_?GetString@ioStringManager@@QAEPADPBD0HW4FileNamePrefix@1@@Z
  00418	50		 push	 eax
  00419	57		 push	 edi
  0041a	8d 85 ec fe ff
	ff		 lea	 eax, DWORD PTR _szText$505438[ebp]
  00420	50		 push	 eax
  00421	e8 00 00 00 00	 call	 ?StringCbCatA@@YGJPADIPBD@Z ; StringCbCatA

; 322  : 				}
; 323  : 				else

  00426	eb 29		 jmp	 SHORT $LN38@SetInfo
$LN39@SetInfo:

; 324  : 					StringCbCopy( szText, sizeof( szText ), STR(3) );

  00428	53		 push	 ebx
  00429	6a 03		 push	 3
  0042b	68 00 00 00 00	 push	 OFFSET ??_C@_00CNPNBAHC@?$AA@
  00430	68 00 00 00 00	 push	 OFFSET ??_C@_0BM@EGPFJCKD@NewShopItemInfoWnd?3?3SetInfo?$AA@
  00435	ff 15 00 00 00
	00		 call	 DWORD PTR __imp_?GetSingleton@ioStringManager@@SAAAV1@XZ
  0043b	8b c8		 mov	 ecx, eax
  0043d	ff 15 00 00 00
	00		 call	 DWORD PTR __imp_?GetString@ioStringManager@@QAEPADPBD0HW4FileNamePrefix@1@@Z
  00443	50		 push	 eax
  00444	57		 push	 edi
  00445	8d 85 ec fe ff
	ff		 lea	 eax, DWORD PTR _szText$505438[ebp]
  0044b	50		 push	 eax
  0044c	e8 00 00 00 00	 call	 ?StringCbCopyA@@YGJPADIPBD@Z ; StringCbCopyA
$LN38@SetInfo:

; 325  : 			}
; 326  : 			m_szDescArray[1].AddTextPiece( FONT_SIZE_11, szText );

  00451	8d 85 ec fe ff
	ff		 lea	 eax, DWORD PTR _szText$505438[ebp]
  00457	e9 ac 00 00 00	 jmp	 $LN218@SetInfo
$LN42@SetInfo:

; 327  : 		}
; 328  : 		else if( rkInfo.GetBonusPeso( iBonusPesoArray ) > 0 && !bTextPeso )

  0045c	ff b5 e0 fd ff
	ff		 push	 DWORD PTR _iBonusPesoArray$505432[ebp]
  00462	8b ce		 mov	 ecx, esi
  00464	e8 00 00 00 00	 call	 ?GetBonusPeso@tagNewShopItemInfo@@QAEHH@Z ; tagNewShopItemInfo::GetBonusPeso
  00469	85 c0		 test	 eax, eax
  0046b	0f 8e ba 00 00
	00		 jle	 $LN36@SetInfo
  00471	38 9d e6 fd ff
	ff		 cmp	 BYTE PTR _bTextPeso$[ebp], bl
  00477	0f 85 ba 00 00
	00		 jne	 $LN199@SetInfo

; 329  : 		{
; 330  : 			char szComma[MAX_PATH]="";

  0047d	68 03 01 00 00	 push	 259			; 00000103H
  00482	8d 85 ed fe ff
	ff		 lea	 eax, DWORD PTR _szComma$505446[ebp+1]
  00488	53		 push	 ebx
  00489	50		 push	 eax
  0048a	88 9d ec fe ff
	ff		 mov	 BYTE PTR _szComma$505446[ebp], bl
  00490	e8 00 00 00 00	 call	 _memset
  00495	83 c4 0c	 add	 esp, 12			; 0000000cH

; 331  : 			Help::ConvertNumToStrComma( rkInfo.GetBonusPeso( iBonusPesoArray ), szComma, sizeof( szComma ) );

  00498	57		 push	 edi
  00499	8d 85 ec fe ff
	ff		 lea	 eax, DWORD PTR _szComma$505446[ebp]
  0049f	50		 push	 eax
  004a0	ff b5 e0 fd ff
	ff		 push	 DWORD PTR _iBonusPesoArray$505432[ebp]
  004a6	8b ce		 mov	 ecx, esi
  004a8	e8 00 00 00 00	 call	 ?GetBonusPeso@tagNewShopItemInfo@@QAEHH@Z ; tagNewShopItemInfo::GetBonusPeso
  004ad	50		 push	 eax
  004ae	e8 00 00 00 00	 call	 ?ConvertNumToStrComma@Help@@YAXHPADH@Z ; Help::ConvertNumToStrComma

; 332  : 			char szText[MAX_PATH]="";

  004b3	68 03 01 00 00	 push	 259			; 00000103H
  004b8	8d 85 e9 fd ff
	ff		 lea	 eax, DWORD PTR _szText$505447[ebp+1]
  004be	53		 push	 ebx
  004bf	50		 push	 eax
  004c0	88 9d e8 fd ff
	ff		 mov	 BYTE PTR _szText$505447[ebp], bl
  004c6	e8 00 00 00 00	 call	 _memset
  004cb	83 c4 18	 add	 esp, 24			; 00000018H

; 333  : 			SafeSprintf( szText, sizeof( szText ), STR(4), szComma );

  004ce	8d 85 ec fe ff
	ff		 lea	 eax, DWORD PTR _szComma$505446[ebp]
  004d4	50		 push	 eax
  004d5	53		 push	 ebx
  004d6	6a 04		 push	 4
  004d8	68 00 00 00 00	 push	 OFFSET ??_C@_00CNPNBAHC@?$AA@
  004dd	68 00 00 00 00	 push	 OFFSET ??_C@_0BM@EGPFJCKD@NewShopItemInfoWnd?3?3SetInfo?$AA@
  004e2	ff 15 00 00 00
	00		 call	 DWORD PTR __imp_?GetSingleton@ioStringManager@@SAAAV1@XZ
  004e8	8b c8		 mov	 ecx, eax
  004ea	ff 15 00 00 00
	00		 call	 DWORD PTR __imp_?GetString@ioStringManager@@QAEPADPBD0HW4FileNamePrefix@1@@Z
  004f0	50		 push	 eax
  004f1	8d 85 e8 fd ff
	ff		 lea	 eax, DWORD PTR _szText$505447[ebp]
  004f7	57		 push	 edi
  004f8	50		 push	 eax
  004f9	ff 15 00 00 00
	00		 call	 DWORD PTR __imp_?SafeSprintf@@YAXPADHPBD1@Z
  004ff	83 c4 10	 add	 esp, 16			; 00000010H

; 334  : 			m_szDescArray[1].AddTextPiece( FONT_SIZE_11, szText );

  00502	8d 85 e8 fd ff
	ff		 lea	 eax, DWORD PTR _szText$505447[ebp]
$LN218@SetInfo:
  00508	f3 0f 10 05 00
	00 00 00	 movss	 xmm0, DWORD PTR __real@3f0ccccd
  00510	50		 push	 eax
  00511	8b 85 dc fd ff
	ff		 mov	 eax, DWORD PTR _this$GSCopy$[ebp]
  00517	51		 push	 ecx
  00518	05 1c 02 00 00	 add	 eax, 540		; 0000021cH
  0051d	f3 0f 11 04 24	 movss	 DWORD PTR [esp], xmm0
  00522	50		 push	 eax
  00523	e8 00 00 00 00	 call	 ?AddTextPiece@ioComplexStringPrinter@@QAAXMPBDZZ ; ioComplexStringPrinter::AddTextPiece
  00528	83 c4 0c	 add	 esp, 12			; 0000000cH
$LN36@SetInfo:

; 335  : 		}
; 336  : 	}
; 337  : 
; 338  : 	if( bTextPeso )

  0052b	38 9d e6 fd ff
	ff		 cmp	 BYTE PTR _bTextPeso$[ebp], bl
  00531	0f 84 dc 00 00
	00		 je	 $LN35@SetInfo
$LN199@SetInfo:

; 339  : 	{
; 340  : 		// 
; 341  : 		int iArray = 0;
; 342  : 
; 343  : 		// +200 
; 344  : 		if( rkInfo.m_iItemType == PRESENT_ETC_ITEM && rkInfo.m_iValue1 == ioEtcItem::EIT_ETC_EXP_BONUS && rkInfo.GetPeso( 2 ) > 0 )

  00537	83 3e 03	 cmp	 DWORD PTR [esi], 3
  0053a	89 9d e0 fd ff
	ff		 mov	 DWORD PTR _iArray$505449[ebp], ebx
  00540	75 5f		 jne	 SHORT $LN33@SetInfo
  00542	8b 4e 7c	 mov	 ecx, DWORD PTR [esi+124]
  00545	81 f9 4c 4b 4c
	00		 cmp	 ecx, 5000012		; 004c4b4cH
  0054b	75 26		 jne	 SHORT $LN34@SetInfo
  0054d	8b 46 14	 mov	 eax, DWORD PTR [esi+20]
  00550	2b 46 10	 sub	 eax, DWORD PTR [esi+16]
  00553	83 e0 fc	 and	 eax, -4			; fffffffcH
  00556	83 f8 08	 cmp	 eax, 8
  00559	7e 08		 jle	 SHORT $LN141@SetInfo
  0055b	8b 46 10	 mov	 eax, DWORD PTR [esi+16]
  0055e	8b 40 08	 mov	 eax, DWORD PTR [eax+8]
  00561	eb 02		 jmp	 SHORT $LN142@SetInfo
$LN141@SetInfo:
  00563	33 c0		 xor	 eax, eax
$LN142@SetInfo:
  00565	3b c3		 cmp	 eax, ebx
  00567	7e 0a		 jle	 SHORT $LN34@SetInfo

; 345  : 		{
; 346  : 			iArray = 2;

  00569	c7 85 e0 fd ff
	ff 02 00 00 00	 mov	 DWORD PTR _iArray$505449[ebp], 2
$LN34@SetInfo:

; 347  : 		}
; 348  : 
; 349  : 		// +100 
; 350  : 		if( rkInfo.m_iItemType == PRESENT_ETC_ITEM && rkInfo.m_iValue1 == ioEtcItem::EIT_ETC_PESO_BONUS && rkInfo.GetPeso( 2 ) > 0 )

  00573	81 f9 4b 4b 4c
	00		 cmp	 ecx, 5000011		; 004c4b4bH
  00579	75 26		 jne	 SHORT $LN33@SetInfo
  0057b	8b 46 14	 mov	 eax, DWORD PTR [esi+20]
  0057e	2b 46 10	 sub	 eax, DWORD PTR [esi+16]
  00581	83 e0 fc	 and	 eax, -4			; fffffffcH
  00584	83 f8 08	 cmp	 eax, 8
  00587	7e 08		 jle	 SHORT $LN148@SetInfo
  00589	8b 46 10	 mov	 eax, DWORD PTR [esi+16]
  0058c	8b 40 08	 mov	 eax, DWORD PTR [eax+8]
  0058f	eb 02		 jmp	 SHORT $LN149@SetInfo
$LN148@SetInfo:
  00591	33 c0		 xor	 eax, eax
$LN149@SetInfo:
  00593	3b c3		 cmp	 eax, ebx
  00595	7e 0a		 jle	 SHORT $LN33@SetInfo

; 351  : 		{
; 352  : 			iArray = 2;

  00597	c7 85 e0 fd ff
	ff 02 00 00 00	 mov	 DWORD PTR _iArray$505449[ebp], 2
$LN33@SetInfo:

; 353  : 		}
; 354  : 
; 355  : 		char szComma[MAX_PATH]="";

  005a1	68 03 01 00 00	 push	 259			; 00000103H
  005a6	8d 85 e9 fd ff
	ff		 lea	 eax, DWORD PTR _szComma$505452[ebp+1]
  005ac	53		 push	 ebx
  005ad	50		 push	 eax
  005ae	88 9d e8 fd ff
	ff		 mov	 BYTE PTR _szComma$505452[ebp], bl
  005b4	e8 00 00 00 00	 call	 _memset
  005b9	83 c4 0c	 add	 esp, 12			; 0000000cH

; 356  : 		Help::ConvertNumToStrComma( rkInfo.GetPeso( iArray ), szComma, sizeof( szComma ) );

  005bc	57		 push	 edi
  005bd	8d 85 e8 fd ff
	ff		 lea	 eax, DWORD PTR _szComma$505452[ebp]
  005c3	50		 push	 eax
  005c4	ff b5 e0 fd ff
	ff		 push	 DWORD PTR _iArray$505449[ebp]
  005ca	8b ce		 mov	 ecx, esi
  005cc	e8 00 00 00 00	 call	 ?GetPeso@tagNewShopItemInfo@@QBEHH@Z ; tagNewShopItemInfo::GetPeso
  005d1	50		 push	 eax
  005d2	e8 00 00 00 00	 call	 ?ConvertNumToStrComma@Help@@YAXHPADH@Z ; Help::ConvertNumToStrComma

; 357  : 		m_szDescArray[2].SetTextStyle( TS_NORMAL );

  005d7	8b bd dc fd ff
	ff		 mov	 edi, DWORD PTR _this$GSCopy$[ebp]
  005dd	83 c4 0c	 add	 esp, 12			; 0000000cH
  005e0	81 c7 3c 02 00
	00		 add	 edi, 572		; 0000023cH
  005e6	53		 push	 ebx
  005e7	8b cf		 mov	 ecx, edi
  005e9	e8 00 00 00 00	 call	 ?SetTextStyle@ioComplexStringPrinter@@QAEXW4TextStyle@@@Z ; ioComplexStringPrinter::SetTextStyle

; 358  : 		m_szDescArray[2].SetBkColor( 0, 0, 0 );	

  005ee	53		 push	 ebx
  005ef	53		 push	 ebx
  005f0	53		 push	 ebx
  005f1	8b cf		 mov	 ecx, edi
  005f3	e8 00 00 00 00	 call	 ?SetBkColor@ioComplexStringPrinter@@QAEXHHH@Z ; ioComplexStringPrinter::SetBkColor

; 359  : 		m_szDescArray[2].SetTextColor( TCT_DEFAULT_BLUE ); // 

  005f8	68 b2 46 16 ff	 push	 -15317326		; ff1646b2H
  005fd	8b cf		 mov	 ecx, edi
  005ff	e8 00 00 00 00	 call	 ?SetTextColor@ioComplexStringPrinter@@QAEXK@Z ; ioComplexStringPrinter::SetTextColor

; 360  : 		m_szDescArray[2].AddTextPiece( FONT_SIZE_13, STR(5), szComma );

  00604	8d 85 e8 fd ff
	ff		 lea	 eax, DWORD PTR _szComma$505452[ebp]
  0060a	50		 push	 eax
  0060b	53		 push	 ebx
  0060c	6a 05		 push	 5
  0060e	e9 88 01 00 00	 jmp	 $LN219@SetInfo
$LN35@SetInfo:

; 361  : 	}
; 362  : 	else if( bTextStamp )

  00613	38 9d db fd ff
	ff		 cmp	 BYTE PTR _bTextStamp$[ebp], bl
  00619	0f 84 c6 00 00
	00		 je	 $LN31@SetInfo

; 363  : 	{
; 364  : 		// 
; 365  : 		int iArray = 0;
; 366  : 		char szComma[MAX_PATH]="";

  0061f	68 03 01 00 00	 push	 259			; 00000103H
  00624	8d 85 ed fe ff
	ff		 lea	 eax, DWORD PTR _szComma$505457[ebp+1]
  0062a	53		 push	 ebx
  0062b	50		 push	 eax
  0062c	88 9d ec fe ff
	ff		 mov	 BYTE PTR _szComma$505457[ebp], bl
  00632	e8 00 00 00 00	 call	 _memset
  00637	83 c4 0c	 add	 esp, 12			; 0000000cH

; 367  : 		Help::ConvertNumToStrComma( rkInfo.GetStamp( iArray ), szComma, sizeof( szComma ) );

  0063a	57		 push	 edi
  0063b	8d 85 ec fe ff
	ff		 lea	 eax, DWORD PTR _szComma$505457[ebp]
  00641	50		 push	 eax
  00642	53		 push	 ebx
  00643	8b ce		 mov	 ecx, esi
  00645	e8 00 00 00 00	 call	 ?GetStamp@tagNewShopItemInfo@@QBEHH@Z ; tagNewShopItemInfo::GetStamp
  0064a	50		 push	 eax
  0064b	e8 00 00 00 00	 call	 ?ConvertNumToStrComma@Help@@YAXHPADH@Z ; Help::ConvertNumToStrComma

; 368  : 		m_szDescArray[2].SetTextStyle( TS_NORMAL );

  00650	8b bd dc fd ff
	ff		 mov	 edi, DWORD PTR _this$GSCopy$[ebp]
  00656	83 c4 0c	 add	 esp, 12			; 0000000cH
  00659	81 c7 3c 02 00
	00		 add	 edi, 572		; 0000023cH
  0065f	53		 push	 ebx
  00660	8b cf		 mov	 ecx, edi
  00662	e8 00 00 00 00	 call	 ?SetTextStyle@ioComplexStringPrinter@@QAEXW4TextStyle@@@Z ; ioComplexStringPrinter::SetTextStyle

; 369  : 		m_szDescArray[2].SetBkColor( 0, 0, 0 );	

  00667	53		 push	 ebx
  00668	53		 push	 ebx
  00669	53		 push	 ebx
  0066a	8b cf		 mov	 ecx, edi
  0066c	e8 00 00 00 00	 call	 ?SetBkColor@ioComplexStringPrinter@@QAEXHHH@Z ; ioComplexStringPrinter::SetBkColor

; 370  : 		m_szDescArray[2].SetTextColor( TCT_DEFAULT_BLUE ); // 

  00671	68 b2 46 16 ff	 push	 -15317326		; ff1646b2H
  00676	8b cf		 mov	 ecx, edi
  00678	e8 00 00 00 00	 call	 ?SetTextColor@ioComplexStringPrinter@@QAEXK@Z ; ioComplexStringPrinter::SetTextColor

; 371  : 
; 372  : 		ioEtcItem *pEtcItem = g_EtcItemMgr.FindEtcItem( rkInfo.m_dwStampEtcItem );

  0067d	ff 76 50	 push	 DWORD PTR [esi+80]
  00680	8b 0d 00 00 00
	00		 mov	 ecx, DWORD PTR ?ms_Singleton@?$Singleton@VioEtcItemManager@@@@1PAVioEtcItemManager@@A ; Singleton<ioEtcItemManager>::ms_Singleton
  00686	e8 00 00 00 00	 call	 ?FindEtcItem@ioEtcItemManager@@QAEPAVioEtcItem@@K@Z ; ioEtcItemManager::FindEtcItem

; 373  : 		if( pEtcItem )

  0068b	3b c3		 cmp	 eax, ebx
  0068d	74 47		 je	 SHORT $LN30@SetInfo

; 374  : 			m_szDescArray[2].AddTextPiece( FONT_SIZE_13, STR(8), pEtcItem->GetName().c_str(), szComma );

  0068f	8d 8d ec fe ff
	ff		 lea	 ecx, DWORD PTR _szComma$505457[ebp]
  00695	51		 push	 ecx
  00696	8d 48 04	 lea	 ecx, DWORD PTR [eax+4]
  00699	ff 15 00 00 00
	00		 call	 DWORD PTR __imp_?c_str@ioHashString@@QBEPBDXZ
  0069f	50		 push	 eax
  006a0	53		 push	 ebx
  006a1	6a 08		 push	 8
  006a3	68 00 00 00 00	 push	 OFFSET ??_C@_00CNPNBAHC@?$AA@
  006a8	68 00 00 00 00	 push	 OFFSET ??_C@_0BM@EGPFJCKD@NewShopItemInfoWnd?3?3SetInfo?$AA@
  006ad	ff 15 00 00 00
	00		 call	 DWORD PTR __imp_?GetSingleton@ioStringManager@@SAAAV1@XZ
  006b3	8b c8		 mov	 ecx, eax
  006b5	ff 15 00 00 00
	00		 call	 DWORD PTR __imp_?GetString@ioStringManager@@QAEPADPBD0HW4FileNamePrefix@1@@Z
  006bb	f3 0f 10 05 00
	00 00 00	 movss	 xmm0, DWORD PTR __real@3f266666
  006c3	50		 push	 eax
  006c4	51		 push	 ecx
  006c5	8b cf		 mov	 ecx, edi
  006c7	f3 0f 11 04 24	 movss	 DWORD PTR [esp], xmm0
  006cc	e8 00 00 00 00	 call	 ?AddTextPiece@ioComplexStringPrinter@@QAEXMPBD00@Z ; ioComplexStringPrinter::AddTextPiece

; 375  : 		else

  006d1	e9 f3 00 00 00	 jmp	 $LN28@SetInfo
$LN30@SetInfo:

; 376  : 			m_szDescArray[2].AddTextPiece( FONT_SIZE_13, STR(7), szComma );

  006d6	8d 85 ec fe ff
	ff		 lea	 eax, DWORD PTR _szComma$505457[ebp]
  006dc	50		 push	 eax
  006dd	53		 push	 ebx
  006de	6a 07		 push	 7

; 377  : 	}
; 378  : 	else

  006e0	e9 b6 00 00 00	 jmp	 $LN219@SetInfo
$LN31@SetInfo:

; 379  : 	{
; 380  : 		// 
; 381  : 		int iArray = 0;

  006e5	89 9d e0 fd ff
	ff		 mov	 DWORD PTR _iArray$505463[ebp], ebx

; 382  : 		if( !bAscendingOrder )

  006eb	38 9d e7 fd ff
	ff		 cmp	 BYTE PTR _bAscendingOrder$[ebp], bl
  006f1	75 10		 jne	 SHORT $LN27@SetInfo

; 383  : 			iArray = rkInfo.m_vCash.size()-1;

  006f3	8b 46 24	 mov	 eax, DWORD PTR [esi+36]
  006f6	2b 46 20	 sub	 eax, DWORD PTR [esi+32]
  006f9	c1 f8 02	 sar	 eax, 2
  006fc	48		 dec	 eax
  006fd	89 85 e0 fd ff
	ff		 mov	 DWORD PTR _iArray$505463[ebp], eax
$LN27@SetInfo:

; 384  : 
; 385  : 		if( rkInfo.GetCash( iArray ) <= 0 )

  00703	ff b5 e0 fd ff
	ff		 push	 DWORD PTR _iArray$505463[ebp]
  00709	8b ce		 mov	 ecx, esi
  0070b	e8 00 00 00 00	 call	 ?GetCash@tagNewShopItemInfo@@QBEHH@Z ; tagNewShopItemInfo::GetCash
  00710	85 c0		 test	 eax, eax
  00712	7f 16		 jg	 SHORT $LN24@SetInfo

; 386  : 		{
; 387  : 			if( !bAscendingOrder )

  00714	38 9d e7 fd ff
	ff		 cmp	 BYTE PTR _bAscendingOrder$[ebp], bl
  0071a	75 08		 jne	 SHORT $LN25@SetInfo

; 388  : 				iArray--;

  0071c	ff 8d e0 fd ff
	ff		 dec	 DWORD PTR _iArray$505463[ebp]

; 389  : 			else

  00722	eb 06		 jmp	 SHORT $LN24@SetInfo
$LN25@SetInfo:

; 390  : 				iArray++;

  00724	ff 85 e0 fd ff
	ff		 inc	 DWORD PTR _iArray$505463[ebp]
$LN24@SetInfo:

; 391  : 		}
; 392  : 		char szComma[MAX_PATH]="";

  0072a	68 03 01 00 00	 push	 259			; 00000103H
  0072f	8d 85 e9 fd ff
	ff		 lea	 eax, DWORD PTR _szComma$505468[ebp+1]
  00735	53		 push	 ebx
  00736	50		 push	 eax
  00737	88 9d e8 fd ff
	ff		 mov	 BYTE PTR _szComma$505468[ebp], bl
  0073d	e8 00 00 00 00	 call	 _memset
  00742	83 c4 0c	 add	 esp, 12			; 0000000cH

; 393  : 		Help::ConvertNumToStrComma( rkInfo.GetCash( iArray ) , szComma, sizeof( szComma ) );

  00745	57		 push	 edi
  00746	8d 85 e8 fd ff
	ff		 lea	 eax, DWORD PTR _szComma$505468[ebp]
  0074c	50		 push	 eax
  0074d	ff b5 e0 fd ff
	ff		 push	 DWORD PTR _iArray$505463[ebp]
  00753	8b ce		 mov	 ecx, esi
  00755	e8 00 00 00 00	 call	 ?GetCash@tagNewShopItemInfo@@QBEHH@Z ; tagNewShopItemInfo::GetCash
  0075a	50		 push	 eax
  0075b	e8 00 00 00 00	 call	 ?ConvertNumToStrComma@Help@@YAXHPADH@Z ; Help::ConvertNumToStrComma

; 394  : 		m_szDescArray[2].SetTextStyle( TS_NORMAL );

  00760	8b bd dc fd ff
	ff		 mov	 edi, DWORD PTR _this$GSCopy$[ebp]
  00766	83 c4 0c	 add	 esp, 12			; 0000000cH
  00769	81 c7 3c 02 00
	00		 add	 edi, 572		; 0000023cH
  0076f	53		 push	 ebx
  00770	8b cf		 mov	 ecx, edi
  00772	e8 00 00 00 00	 call	 ?SetTextStyle@ioComplexStringPrinter@@QAEXW4TextStyle@@@Z ; ioComplexStringPrinter::SetTextStyle

; 395  : 		m_szDescArray[2].SetBkColor( 0, 0, 0 );	

  00777	53		 push	 ebx
  00778	53		 push	 ebx
  00779	53		 push	 ebx
  0077a	8b cf		 mov	 ecx, edi
  0077c	e8 00 00 00 00	 call	 ?SetBkColor@ioComplexStringPrinter@@QAEXHHH@Z ; ioComplexStringPrinter::SetBkColor

; 396  : 		m_szDescArray[2].SetTextColor( 141,87,4 ); // 

  00781	6a 04		 push	 4
  00783	6a 57		 push	 87			; 00000057H
  00785	68 8d 00 00 00	 push	 141			; 0000008dH
  0078a	8b cf		 mov	 ecx, edi
  0078c	e8 00 00 00 00	 call	 ?SetTextColor@ioComplexStringPrinter@@QAEXHHH@Z ; ioComplexStringPrinter::SetTextColor

; 397  : 		m_szDescArray[2].AddTextPiece( FONT_SIZE_13, STR(6), szComma );

  00791	8d 85 e8 fd ff
	ff		 lea	 eax, DWORD PTR _szComma$505468[ebp]
  00797	50		 push	 eax
  00798	53		 push	 ebx
  00799	6a 06		 push	 6
$LN219@SetInfo:
  0079b	68 00 00 00 00	 push	 OFFSET ??_C@_00CNPNBAHC@?$AA@
  007a0	68 00 00 00 00	 push	 OFFSET ??_C@_0BM@EGPFJCKD@NewShopItemInfoWnd?3?3SetInfo?$AA@
  007a5	ff 15 00 00 00
	00		 call	 DWORD PTR __imp_?GetSingleton@ioStringManager@@SAAAV1@XZ
  007ab	8b c8		 mov	 ecx, eax
  007ad	ff 15 00 00 00
	00		 call	 DWORD PTR __imp_?GetString@ioStringManager@@QAEPADPBD0HW4FileNamePrefix@1@@Z
  007b3	f3 0f 10 05 00
	00 00 00	 movss	 xmm0, DWORD PTR __real@3f266666
  007bb	50		 push	 eax
  007bc	51		 push	 ecx
  007bd	8b cf		 mov	 ecx, edi
  007bf	f3 0f 11 04 24	 movss	 DWORD PTR [esp], xmm0
  007c4	e8 00 00 00 00	 call	 ?AddTextPiece@ioComplexStringPrinter@@QAEXMPBD0@Z ; ioComplexStringPrinter::AddTextPiece
$LN28@SetInfo:

; 398  : 	}
; 399  : 
; 400  : 
; 401  : 	// icon btn
; 402  : 	NewShopIconBtn *pBtn = dynamic_cast< NewShopIconBtn* > ( FindChildWnd( ID_ICON_BTN ) );

  007c9	8b 8d dc fd ff
	ff		 mov	 ecx, DWORD PTR _this$GSCopy$[ebp]
  007cf	53		 push	 ebx
  007d0	68 00 00 00 00	 push	 OFFSET ??_R0?AVNewShopIconBtn@@@8
  007d5	68 00 00 00 00	 push	 OFFSET ??_R0?AVioWnd@@@8
  007da	53		 push	 ebx
  007db	6a 01		 push	 1
  007dd	ff 15 00 00 00
	00		 call	 DWORD PTR __imp_?FindChildWnd@ioWnd@@QAEPAV1@K@Z
  007e3	50		 push	 eax
  007e4	e8 00 00 00 00	 call	 ___RTDynamicCast
  007e9	83 c4 14	 add	 esp, 20			; 00000014H
  007ec	89 85 e0 fd ff
	ff		 mov	 DWORD PTR _pBtn$[ebp], eax

; 403  : 	if( !pBtn )

  007f2	3b c3		 cmp	 eax, ebx
  007f4	75 25		 jne	 SHORT $LN23@SetInfo

; 404  : 	{
; 405  : 		LOG.PrintTimeAndLog( 0, "%s pBtn == NULL", __FUNCTION__ );

  007f6	68 00 00 00 00	 push	 OFFSET ??_C@_0BM@EGPFJCKD@NewShopItemInfoWnd?3?3SetInfo?$AA@
  007fb	68 00 00 00 00	 push	 OFFSET ??_C@_0BA@CPGDPCCL@?$CFs?5pBtn?5?$DN?$DN?5NULL?$AA@
  00800	53		 push	 ebx
  00801	ff 35 00 00 00
	00		 push	 DWORD PTR __imp_?LOG@@3VCLog@@A
  00807	ff 15 00 00 00
	00		 call	 DWORD PTR __imp_?PrintTimeAndLog@CLog@@QAAXHPADZZ
  0080d	83 c4 10	 add	 esp, 16			; 00000010H
$LN222@SetInfo:

; 406  : 		SetBlank();

  00810	8b 8d dc fd ff
	ff		 mov	 ecx, DWORD PTR _this$GSCopy$[ebp]

; 407  : 		return;

  00816	e9 3f 02 00 00	 jmp	 $LN220@SetInfo
$LN23@SetInfo:

; 408  : 	}
; 409  : 	pBtn->SetNumber( iReinforceNumber );

  0081b	8b 8d d4 fd ff
	ff		 mov	 ecx, DWORD PTR _iReinforceNumber$[ebp]
  00821	89 88 64 02 00
	00		 mov	 DWORD PTR [eax+612], ecx

; 410  : 
; 411  : 	if( rkInfo.m_iShopMarkType == SHOP_MARK_TYPE_DATE && 0 < rkInfo.m_iLimitDate )

  00827	83 7e 08 0a	 cmp	 DWORD PTR [esi+8], 10	; 0000000aH
  0082b	75 7d		 jne	 SHORT $LN175@SetInfo
  0082d	39 9e cc 00 00
	00		 cmp	 DWORD PTR [esi+204], ebx
  00833	7e 75		 jle	 SHORT $LN175@SetInfo

; 412  : 	{
; 413  : 		CTime kLimitTime;

  00835	66 0f 57 c0	 xorpd	 xmm0, xmm0
  00839	66 0f 13 85 d0
	fd ff ff	 movlpd	 QWORD PTR _kLimitTime$505475[ebp], xmm0

; 414  : 		CTime kCurrTime = DateHelp::GetCurrTime();

  00841	e8 00 00 00 00	 call	 ?GetCurrTime@DateHelp@@YAABVCTime@ATL@@XZ ; DateHelp::GetCurrTime
  00846	8b 38		 mov	 edi, DWORD PTR [eax]
  00848	8b 40 04	 mov	 eax, DWORD PTR [eax+4]
  0084b	89 85 cc fd ff
	ff		 mov	 DWORD PTR _kCurrTime$505476[ebp+4], eax

; 415  : 		DateHelp::ConvertCTime( rkInfo.m_iLimitDate, kLimitTime );

  00851	8d 85 d0 fd ff
	ff		 lea	 eax, DWORD PTR _kLimitTime$505475[ebp]
  00857	50		 push	 eax
  00858	ff b6 cc 00 00
	00		 push	 DWORD PTR [esi+204]
  0085e	e8 00 00 00 00	 call	 ?ConvertCTime@DateHelp@@YAXKAAVCTime@ATL@@@Z ; DateHelp::ConvertCTime

; 416  : 		CTimeSpan TimeGap = kLimitTime - kCurrTime;

  00863	8b 85 d0 fd ff
	ff		 mov	 eax, DWORD PTR _kLimitTime$505475[ebp]
  00869	59		 pop	 ecx
  0086a	59		 pop	 ecx
  0086b	8b 8d d4 fd ff
	ff		 mov	 ecx, DWORD PTR _kLimitTime$505475[ebp+4]
  00871	2b c7		 sub	 eax, edi
  00873	1b 8d cc fd ff
	ff		 sbb	 ecx, DWORD PTR _kCurrTime$505476[ebp+4]

; 417  : 		if( 0 < TimeGap.GetDays() )

  00879	53		 push	 ebx
  0087a	68 80 51 01 00	 push	 86400			; 00015180H
  0087f	51		 push	 ecx
  00880	50		 push	 eax
  00881	e8 00 00 00 00	 call	 __alldiv
  00886	3b d3		 cmp	 edx, ebx
  00888	7c 14		 jl	 SHORT $LN21@SetInfo
  0088a	7f 04		 jg	 SHORT $LN200@SetInfo
  0088c	3b c3		 cmp	 eax, ebx
  0088e	76 0e		 jbe	 SHORT $LN21@SetInfo
$LN200@SetInfo:

; 418  : 			pBtn->SetLimitDay( TimeGap.GetDays() );

  00890	8b 8d e0 fd ff
	ff		 mov	 ecx, DWORD PTR _pBtn$[ebp]
  00896	89 81 50 02 00
	00		 mov	 DWORD PTR [ecx+592], eax

; 419  : 		else

  0089c	eb 0c		 jmp	 SHORT $LN175@SetInfo
$LN21@SetInfo:

; 420  : 			pBtn->SetLimitDay( 0 );

  0089e	8b 85 e0 fd ff
	ff		 mov	 eax, DWORD PTR _pBtn$[ebp]
  008a4	89 98 50 02 00
	00		 mov	 DWORD PTR [eax+592], ebx
$LN175@SetInfo:

; 421  : 	}
; 422  : 
; 423  : 	ioUIRenderImage *pIcon = g_UIImageSetMgr.CreateImageByFullName( rkInfo.m_sIcon );

  008aa	8d 86 bc 00 00
	00		 lea	 eax, DWORD PTR [esi+188]
  008b0	53		 push	 ebx
  008b1	50		 push	 eax
  008b2	ff 15 00 00 00
	00		 call	 DWORD PTR __imp_?GetSingleton@ioUIImageSetManager@@SAAAV1@XZ
  008b8	8b c8		 mov	 ecx, eax
  008ba	ff 15 00 00 00
	00		 call	 DWORD PTR __imp_?CreateImageByFullName@ioUIImageSetManager@@QAEPAVioUIRenderImage@@ABVioHashString@@_N@Z

; 424  : 	if( !pBtn->SetIcon( pIcon ) )

  008c0	8b bd e0 fd ff
	ff		 mov	 edi, DWORD PTR _pBtn$[ebp]
  008c6	50		 push	 eax
  008c7	8b cf		 mov	 ecx, edi
  008c9	e8 00 00 00 00	 call	 ?SetIcon@NewShopIconBtn@@QAE_NPAVioUIRenderImage@@@Z ; NewShopIconBtn::SetIcon
  008ce	84 c0		 test	 al, al

; 425  : 	{
; 426  : 		SetBlank();
; 427  : 		return;

  008d0	0f 84 3a ff ff
	ff		 je	 $LN222@SetInfo

; 428  : 	}
; 429  : 
; 430  : 	pBtn->SetMarkType( rkInfo.m_iShopMarkType );

  008d6	8b 46 08	 mov	 eax, DWORD PTR [esi+8]
  008d9	89 87 4c 02 00
	00		 mov	 DWORD PTR [edi+588], eax

; 431  : 
; 432  : 	if ( rkInfo.m_iItemType == PRESENT_COSTUME || rkInfo.m_iItemType == PRESENT_COSTUME_BOX )

  008df	8b 06		 mov	 eax, DWORD PTR [esi]
  008e1	83 f8 0c	 cmp	 eax, 12			; 0000000cH
  008e4	74 05		 je	 SHORT $LN17@SetInfo
  008e6	83 f8 0f	 cmp	 eax, 15			; 0000000fH
  008e9	75 0a		 jne	 SHORT $LN179@SetInfo
$LN17@SetInfo:

; 433  : 		pBtn->SetTopSubIconType( NewShopIconBtn::TSIT_COSTUME );

  008eb	c7 87 fc 01 00
	00 01 00 00 00	 mov	 DWORD PTR [edi+508], 1
$LN179@SetInfo:

; 434  : 
; 435  : 	if ( rkInfo.m_iItemType == PRESENT_DEFAULT && ( rkInfo.m_iValue0 == PRESENT_COSTUME || rkInfo.m_iValue0 == PRESENT_COSTUME_BOX ) )

  008f5	39 1e		 cmp	 DWORD PTR [esi], ebx
  008f7	75 17		 jne	 SHORT $LN181@SetInfo
  008f9	8b 46 78	 mov	 eax, DWORD PTR [esi+120]
  008fc	83 f8 0c	 cmp	 eax, 12			; 0000000cH
  008ff	74 05		 je	 SHORT $LN15@SetInfo
  00901	83 f8 0f	 cmp	 eax, 15			; 0000000fH
  00904	75 0a		 jne	 SHORT $LN181@SetInfo
$LN15@SetInfo:

; 436  : 		pBtn->SetTopSubIconType( NewShopIconBtn::TSIT_COSTUME );

  00906	c7 87 fc 01 00
	00 01 00 00 00	 mov	 DWORD PTR [edi+508], 1
$LN181@SetInfo:

; 437  : 	
; 438  : 	if( rkInfo.m_iItemType == PRESENT_ETC_ITEM && COMPARE(  rkInfo.m_iValue1, ioEtcItem::EIT_ETC_GUILD_HOUSING_BLOCK_0001, ioEtcItem::EIT_ETC_GUILD_HOUSING_BLOCK_1000+1 ) )

  00910	6a 03		 push	 3
  00912	59		 pop	 ecx
  00913	39 0e		 cmp	 DWORD PTR [esi], ecx
  00915	75 36		 jne	 SHORT $LN185@SetInfo
  00917	8b 46 7c	 mov	 eax, DWORD PTR [esi+124]
  0091a	3d d1 5b 0f 00	 cmp	 eax, 1006545		; 000f5bd1H
  0091f	7c 11		 jl	 SHORT $LN183@SetInfo
  00921	3d b9 5f 0f 00	 cmp	 eax, 1007545		; 000f5fb9H
  00926	7d 0a		 jge	 SHORT $LN183@SetInfo

; 439  : 		pBtn->SetTopSubIconType( NewShopIconBtn::TSIT_GUILD );

  00928	c7 87 fc 01 00
	00 02 00 00 00	 mov	 DWORD PTR [edi+508], 2
$LN183@SetInfo:

; 440  : 
; 441  : 	if( rkInfo.m_iItemType == PRESENT_ETC_ITEM && COMPARE(  rkInfo.m_iValue1, ioEtcItem::EIT_ETC_HOME_HOUSING_BLOCK_0001, ioEtcItem::EIT_ETC_HOME_HOUSING_BLOCK_1000+1 ) )

  00932	39 0e		 cmp	 DWORD PTR [esi], ecx
  00934	75 17		 jne	 SHORT $LN185@SetInfo
  00936	8b 46 7c	 mov	 eax, DWORD PTR [esi+124]
  00939	3d ba 5f 0f 00	 cmp	 eax, 1007546		; 000f5fbaH
  0093e	7c 0d		 jl	 SHORT $LN185@SetInfo
  00940	3d a2 63 0f 00	 cmp	 eax, 1008546		; 000f63a2H
  00945	7d 06		 jge	 SHORT $LN185@SetInfo

; 442  : 		pBtn->SetTopSubIconType( NewShopIconBtn::TSIT_HOME );

  00947	89 8f fc 01 00
	00		 mov	 DWORD PTR [edi+508], ecx
$LN185@SetInfo:

; 443  : 
; 444  : 	switch( rkInfo.m_iItemType )

  0094d	8b 06		 mov	 eax, DWORD PTR [esi]
  0094f	48		 dec	 eax
  00950	0f 84 d3 00 00
	00		 je	 $LN10@SetInfo
  00956	48		 dec	 eax
  00957	48		 dec	 eax
  00958	0f 84 b1 00 00
	00		 je	 $LN2@SetInfo
  0095e	48		 dec	 eax
  0095f	48		 dec	 eax
  00960	74 65		 je	 SHORT $LN9@SetInfo
  00962	48		 dec	 eax
  00963	74 43		 je	 SHORT $LN7@SetInfo
  00965	83 e8 06	 sub	 eax, 6
  00968	74 2a		 je	 SHORT $LN5@SetInfo
  0096a	48		 dec	 eax
  0096b	48		 dec	 eax
  0096c	74 59		 je	 SHORT $LN9@SetInfo
  0096e	48		 dec	 eax
  0096f	0f 85 cf 00 00
	00		 jne	 $LN11@SetInfo

; 469  : 	case PRESENT_COSTUME_BOX:
; 470  : 		{
; 471  : 			CostumeShopInfo *pInfo = g_CostumeShopInfoMgr.GetCostumeMachineInfo( rkInfo.m_iValue1 );

  00975	ff 76 7c	 push	 DWORD PTR [esi+124]
  00978	e8 00 00 00 00	 call	 ?GetSingleton@ioCostumeShopInfoManager@@SAAAV1@XZ ; ioCostumeShopInfoManager::GetSingleton
  0097d	8b c8		 mov	 ecx, eax
  0097f	e8 00 00 00 00	 call	 ?GetCostumeMachineInfo@ioCostumeShopInfoManager@@QAEPAVCostumeShopInfo@@H@Z ; ioCostumeShopInfoManager::GetCostumeMachineInfo

; 472  : 			if( pInfo )

  00984	3b c3		 cmp	 eax, ebx
  00986	0f 84 b8 00 00
	00		 je	 $LN11@SetInfo

; 473  : 				m_nGradeType = pInfo->GetGradeType();

  0098c	8b 40 0c	 mov	 eax, DWORD PTR [eax+12]

; 474  : 		}
; 475  : 		break;

  0098f	e9 a4 00 00 00	 jmp	 $LN221@SetInfo
$LN5@SetInfo:

; 464  : 	case PRESENT_COSTUME:
; 465  : 		{
; 466  : 			m_nGradeType = g_CostumeInfoMgr.GetGradeType( rkInfo.m_iValue1 );

  00994	ff 76 7c	 push	 DWORD PTR [esi+124]
  00997	e8 00 00 00 00	 call	 ?GetSingleton@ioCostumeInfoManager@@SAAAV1@XZ ; ioCostumeInfoManager::GetSingleton
  0099c	8b c8		 mov	 ecx, eax
  0099e	e8 00 00 00 00	 call	 ?GetGradeType@ioCostumeInfoManager@@QAEHH@Z ; ioCostumeInfoManager::GetGradeType

; 467  : 		}
; 468  : 		break;

  009a3	e9 90 00 00 00	 jmp	 $LN221@SetInfo
$LN7@SetInfo:

; 457  : 	case PRESENT_EXTRAITEM_BOX:
; 458  : 		{
; 459  : 			RandomMachineInfo *pInfo = g_ExtraItemInfoMgr.GetRandomMachineInfo( rkInfo.m_iValue1 );

  009a8	ff 76 7c	 push	 DWORD PTR [esi+124]
  009ab	e8 00 00 00 00	 call	 ?GetSingleton@ioExtraItemInfoManager@@SAAAV1@XZ ; ioExtraItemInfoManager::GetSingleton
  009b0	8b c8		 mov	 ecx, eax
  009b2	e8 00 00 00 00	 call	 ?GetRandomMachineInfo@ioExtraItemInfoManager@@QAEPAVRandomMachineInfo@@H@Z ; ioExtraItemInfoManager::GetRandomMachineInfo

; 460  : 			if( pInfo )

  009b7	3b c3		 cmp	 eax, ebx
  009b9	0f 84 85 00 00
	00		 je	 $LN11@SetInfo

; 461  : 				m_nGradeType = pInfo->GetGradeType();

  009bf	8b 80 8c 00 00
	00		 mov	 eax, DWORD PTR [eax+140]

; 462  : 		}
; 463  : 		break;

  009c5	eb 71		 jmp	 SHORT $LN221@SetInfo
$LN9@SetInfo:

; 448  : 		break;
; 449  : 	case PRESENT_EXTRAITEM:
; 450  : 	case PRESENT_ACCESSORY:
; 451  : 		{
; 452  : 			const ioItem *pItem = g_ItemMaker.GetItemConst( rkInfo.m_iValue1, __FUNCTION__ );

  009c7	68 00 00 00 00	 push	 OFFSET ??_C@_0BM@EGPFJCKD@NewShopItemInfoWnd?3?3SetInfo?$AA@
  009cc	8d 8d b8 fd ff
	ff		 lea	 ecx, DWORD PTR $T508919[ebp]
  009d2	ff 15 00 00 00
	00		 call	 DWORD PTR __imp_??0ioHashString@@QAE@PBD@Z
  009d8	8d 85 b8 fd ff
	ff		 lea	 eax, DWORD PTR $T508919[ebp]
  009de	50		 push	 eax
  009df	ff 76 7c	 push	 DWORD PTR [esi+124]
  009e2	89 5d fc	 mov	 DWORD PTR __$EHRec$[ebp+8], ebx
  009e5	e8 00 00 00 00	 call	 ?GetSingleton@ioItemMaker@@SAAAV1@XZ ; ioItemMaker::GetSingleton
  009ea	8b c8		 mov	 ecx, eax
  009ec	e8 00 00 00 00	 call	 ?GetItemConst@ioItemMaker@@QBEPBVioItem@@KABVioHashString@@@Z ; ioItemMaker::GetItemConst
  009f1	83 4d fc ff	 or	 DWORD PTR __$EHRec$[ebp+8], -1
  009f5	8d 8d b8 fd ff
	ff		 lea	 ecx, DWORD PTR $T508919[ebp]
  009fb	8b f0		 mov	 esi, eax
  009fd	ff 15 00 00 00
	00		 call	 DWORD PTR __imp_??1ioHashString@@QAE@XZ

; 453  : 			if( pItem )

  00a03	3b f3		 cmp	 esi, ebx
  00a05	74 3d		 je	 SHORT $LN11@SetInfo

; 454  : 				m_nGradeType = pItem->GetGradeType();

  00a07	8b 86 20 06 00
	00		 mov	 eax, DWORD PTR [esi+1568]

; 455  : 		}
; 456  : 		break;

  00a0d	eb 29		 jmp	 SHORT $LN221@SetInfo
$LN2@SetInfo:

; 476  : 	case PRESENT_ETC_ITEM:
; 477  : 		{
; 478  : 			ioEtcItem *pEtcItem = g_EtcItemMgr.FindEtcItem( rkInfo.m_iValue1 );

  00a0f	ff 76 7c	 push	 DWORD PTR [esi+124]
  00a12	8b 0d 00 00 00
	00		 mov	 ecx, DWORD PTR ?ms_Singleton@?$Singleton@VioEtcItemManager@@@@1PAVioEtcItemManager@@A ; Singleton<ioEtcItemManager>::ms_Singleton
  00a18	e8 00 00 00 00	 call	 ?FindEtcItem@ioEtcItemManager@@QAEPAVioEtcItem@@K@Z ; ioEtcItemManager::FindEtcItem

; 479  : 			if( pEtcItem ) 

  00a1d	3b c3		 cmp	 eax, ebx
  00a1f	74 23		 je	 SHORT $LN11@SetInfo

; 480  : 				m_nGradeType = pEtcItem->GetGradeType();

  00a21	8b 80 84 01 00
	00		 mov	 eax, DWORD PTR [eax+388]

; 481  : 		}
; 482  : 		break;

  00a27	eb 0f		 jmp	 SHORT $LN221@SetInfo
$LN10@SetInfo:

; 445  : 	{
; 446  : 	case PRESENT_SOLDIER:
; 447  : 		m_nGradeType = g_UIImageRenderMgr.GetPowerUpGradeType( rkInfo.m_iValue1 );

  00a29	ff 76 7c	 push	 DWORD PTR [esi+124]
  00a2c	e8 00 00 00 00	 call	 ?GetSingleton@ioUIImageRenderManager@@SAAAV1@XZ ; ioUIImageRenderManager::GetSingleton
  00a31	8b c8		 mov	 ecx, eax
  00a33	e8 00 00 00 00	 call	 ?GetPowerUpGradeType@ioUIImageRenderManager@@QAEHH@Z ; ioUIImageRenderManager::GetPowerUpGradeType
$LN221@SetInfo:
  00a38	8b 8d dc fd ff
	ff		 mov	 ecx, DWORD PTR _this$GSCopy$[ebp]
  00a3e	89 81 40 03 00
	00		 mov	 DWORD PTR [ecx+832], eax
$LN11@SetInfo:

; 483  : 	}
; 484  : 
; 485  : 	pBtn->SetGradeType( m_nGradeType );

  00a44	8b 85 dc fd ff
	ff		 mov	 eax, DWORD PTR _this$GSCopy$[ebp]
  00a4a	8b 80 40 03 00
	00		 mov	 eax, DWORD PTR [eax+832]
  00a50	89 87 68 02 00
	00		 mov	 DWORD PTR [edi+616], eax
  00a56	eb 07		 jmp	 SHORT $LN197@SetInfo
$LN71@SetInfo:

; 186  : 	{
; 187  : 		SetBlank();

  00a58	8b cf		 mov	 ecx, edi
$LN220@SetInfo:
  00a5a	e8 00 00 00 00	 call	 ?SetBlank@NewShopItemInfoWnd@@IAEXXZ ; NewShopItemInfoWnd::SetBlank

; 483  : 	}
; 484  : 
; 485  : 	pBtn->SetGradeType( m_nGradeType );

$LN197@SetInfo:

; 486  : }

  00a5f	e8 00 00 00 00	 call	 __EH_epilog3_GS
  00a64	c2 04 00	 ret	 4
_TEXT	ENDS
;	COMDAT text$x
text$x	SEGMENT
__unwindfunclet$?SetInfo@NewShopItemInfoWnd@@QAEXAAUtagNewShopItemInfo@@@Z$0:
  00000	8d 8d b8 fd ff
	ff		 lea	 ecx, DWORD PTR $T508919[ebp]
  00006	ff 25 00 00 00
	00		 jmp	 DWORD PTR __imp_??1ioHashString@@QAE@XZ
__ehhandler$?SetInfo@NewShopItemInfoWnd@@QAEXAAUtagNewShopItemInfo@@@Z:
  0000c	8b 54 24 08	 mov	 edx, DWORD PTR [esp+8]
  00010	8d 42 0c	 lea	 eax, DWORD PTR [edx+12]
  00013	8b 8a b4 fd ff
	ff		 mov	 ecx, DWORD PTR [edx-588]
  00019	33 c8		 xor	 ecx, eax
  0001b	e8 00 00 00 00	 call	 @__security_check_cookie@4
  00020	8b 4a fc	 mov	 ecx, DWORD PTR [edx-4]
  00023	33 c8		 xor	 ecx, eax
  00025	e8 00 00 00 00	 call	 @__security_check_cookie@4
  0002a	b8 00 00 00 00	 mov	 eax, OFFSET __ehfuncinfo$?SetInfo@NewShopItemInfoWnd@@QAEXAAUtagNewShopItemInfo@@@Z
  0002f	e9 00 00 00 00	 jmp	 ___CxxFrameHandler3
text$x	ENDS
?SetInfo@NewShopItemInfoWnd@@QAEXAAUtagNewShopItemInfo@@@Z ENDP ; NewShopItemInfoWnd::SetInfo
END
