; Listing generated by Microsoft (R) Optimizing Compiler Version 16.00.30319.01 

	TITLE	D:\Lost Saga For Developer\Youtube\Tutorial\Source\src\LSClient\GUI\PaperMercenaryControlWnd.cpp
	.686P
	.XMM
	include listing.inc
	.model	flat

INCLUDELIB MSVCRT
INCLUDELIB OLDNAMES

PUBLIC	??_7PaperMercenaryControlWndBase@@6B@		; PaperMercenaryControlWndBase::`vftable'
PUBLIC	??0PaperMercenaryControlWndBase@@QAE@XZ		; PaperMercenaryControlWndBase::PaperMercenaryControlWndBase
PUBLIC	??_R4PaperMercenaryControlWndBase@@6B@		; PaperMercenaryControlWndBase::`RTTI Complete Object Locator'
PUBLIC	??_R0?AVPaperMercenaryControlWndBase@@@8	; PaperMercenaryControlWndBase `RTTI Type Descriptor'
PUBLIC	??_R3PaperMercenaryControlWndBase@@8		; PaperMercenaryControlWndBase::`RTTI Class Hierarchy Descriptor'
PUBLIC	??_R2PaperMercenaryControlWndBase@@8		; PaperMercenaryControlWndBase::`RTTI Base Class Array'
PUBLIC	??_R1A@?0A@EA@PaperMercenaryControlWndBase@@8	; PaperMercenaryControlWndBase::`RTTI Base Class Descriptor at (0,-1,0,64)'
PUBLIC	??_R1A@?0A@EA@ioWndEX@@8			; ioWndEX::`RTTI Base Class Descriptor at (0,-1,0,64)'
PUBLIC	??_R0?AVioWndEX@@@8				; ioWndEX `RTTI Type Descriptor'
PUBLIC	??_R3ioWndEX@@8					; ioWndEX::`RTTI Class Hierarchy Descriptor'
PUBLIC	??_R2ioWndEX@@8					; ioWndEX::`RTTI Base Class Array'
PUBLIC	??_R1A@?0A@EA@ioWnd@@8				; ioWnd::`RTTI Base Class Descriptor at (0,-1,0,64)'
PUBLIC	??_R0?AVioWnd@@@8				; ioWnd `RTTI Type Descriptor'
PUBLIC	??_R3ioWnd@@8					; ioWnd::`RTTI Class Hierarchy Descriptor'
PUBLIC	??_R2ioWnd@@8					; ioWnd::`RTTI Base Class Array'
PUBLIC	?iwm_create@PaperMercenaryControlWndBase@@UAEXXZ ; PaperMercenaryControlWndBase::iwm_create
PUBLIC	?iwm_destroy@PaperMercenaryControlWndBase@@UAEXXZ ; PaperMercenaryControlWndBase::iwm_destroy
PUBLIC	?OnClickChange@PaperMercenaryControlWndBase@@UAEXPAVioWndEX@@AAVioWndEXMouseEvent@@@Z ; PaperMercenaryControlWndBase::OnClickChange
PUBLIC	?OnTurnLeft@PaperMercenaryControlWndBase@@UAEXPAVioWndEX@@AAVioWndEXMouseEvent@@@Z ; PaperMercenaryControlWndBase::OnTurnLeft
PUBLIC	?OnTurnRight@PaperMercenaryControlWndBase@@UAEXPAVioWndEX@@AAVioWndEXMouseEvent@@@Z ; PaperMercenaryControlWndBase::OnTurnRight
EXTRN	__imp_??0ioWndEX@@QAE@XZ:PROC
EXTRN	??_7type_info@@6B@:QWORD			; type_info::`vftable'
EXTRN	?AddRenderFrame@ioWnd@@UAEXABVioHashString@@PAVioUIRenderFrame@@@Z:PROC ; ioWnd::AddRenderFrame
EXTRN	?AddRenderImage@ioWnd@@UAEXABVioHashString@@PAVioUIRenderImage@@@Z:PROC ; ioWnd::AddRenderImage
EXTRN	?AddTooltipHelp@ioWnd@@UAEXABVioHashString@@00@Z:PROC ; ioWnd::AddTooltipHelp
EXTRN	?ParseExtraInfo@ioWndEX@@UAEXAAVioXMLElement@@@Z:PROC ; ioWndEX::ParseExtraInfo
EXTRN	?AddNamedRenderImage@ioWnd@@UAEXABVioHashString@@PAVioUIRenderImage@@@Z:PROC ; ioWnd::AddNamedRenderImage
EXTRN	?RemoveNamedRenderImage@ioWnd@@UAEXABVioHashString@@@Z:PROC ; ioWnd::RemoveNamedRenderImage
EXTRN	?GetNamedRenderImage@ioWnd@@UBEPAVioUIRenderImage@@ABVioHashString@@@Z:PROC ; ioWnd::GetNamedRenderImage
EXTRN	?SetWindowAlpha@ioWnd@@UAEXH@Z:PROC		; ioWnd::SetWindowAlpha
EXTRN	?SetActive@ioWnd@@UAEXXZ:PROC			; ioWnd::SetActive
EXTRN	?SetInActive@ioWnd@@UAEXXZ:PROC			; ioWnd::SetInActive
EXTRN	?ClearElementImageList@ioWnd@@UAEXXZ:PROC	; ioWnd::ClearElementImageList
EXTRN	?SetSize@ioWnd@@UAEXHH@Z:PROC			; ioWnd::SetSize
EXTRN	?SetPositionToDefault@ioWnd@@UAEXHH_N0@Z:PROC	; ioWnd::SetPositionToDefault
EXTRN	?IsNeedProcess@ioWnd@@UBE_NXZ:PROC		; ioWnd::IsNeedProcess
EXTRN	?IsCanMouseReaction@ioWnd@@UBE_NXZ:PROC		; ioWnd::IsCanMouseReaction
EXTRN	?AddChild@ioWnd@@UAEXPAV1@@Z:PROC		; ioWnd::AddChild
EXTRN	?DeleteChild@ioWnd@@UAEXK@Z:PROC		; ioWnd::DeleteChild
EXTRN	?DeleteAllChild@ioWnd@@UAEXXZ:PROC		; ioWnd::DeleteAllChild
EXTRN	?OnRenderShowAndHide@ioWnd@@MAE_NXZ:PROC	; ioWnd::OnRenderShowAndHide
EXTRN	?OnRenderShowAndHideByDefault@ioWnd@@MAE_NK@Z:PROC ; ioWnd::OnRenderShowAndHideByDefault
EXTRN	?OnRenderShowAndHideByTop@ioWnd@@MAE_NK@Z:PROC	; ioWnd::OnRenderShowAndHideByTop
EXTRN	?OnRenderShowAndHideByDown@ioWnd@@MAE_NK@Z:PROC	; ioWnd::OnRenderShowAndHideByDown
EXTRN	?OnRender@ioWnd@@MAEXXZ:PROC			; ioWnd::OnRender
EXTRN	?OnRenderAfterChild@ioWnd@@MAEXXZ:PROC		; ioWnd::OnRenderAfterChild
EXTRN	?OnProcess@ioWnd@@MAEXM@Z:PROC			; ioWnd::OnProcess
EXTRN	?OnMouseProcess@ioWnd@@MAEXABVioMouse@@@Z:PROC	; ioWnd::OnMouseProcess
EXTRN	?CheckFrameReSize@ioWnd@@MAEXHHHH@Z:PROC	; ioWnd::CheckFrameReSize
EXTRN	?RenderImageList@ioWnd@@MAEXHHW4UIRenderType@@@Z:PROC ; ioWnd::RenderImageList
EXTRN	?iwm_lbuttondown@ioWndEX@@UAEXABVioMouse@@@Z:PROC ; ioWndEX::iwm_lbuttondown
EXTRN	?iwm_lbuttonup@ioWndEX@@UAEXABVioMouse@@@Z:PROC	; ioWndEX::iwm_lbuttonup
EXTRN	?iwm_lbuttonDBLCLK@ioWndEX@@UAEXABVioMouse@@@Z:PROC ; ioWndEX::iwm_lbuttonDBLCLK
EXTRN	?iwm_rbuttondown@ioWndEX@@UAEXABVioMouse@@@Z:PROC ; ioWndEX::iwm_rbuttondown
EXTRN	?iwm_rbuttonup@ioWndEX@@UAEXABVioMouse@@@Z:PROC	; ioWndEX::iwm_rbuttonup
EXTRN	?iwm_command@ioWnd@@UAEXPAV1@HK@Z:PROC		; ioWnd::iwm_command
EXTRN	?iwm_mouseover@ioWndEX@@UAEXABVioMouse@@@Z:PROC	; ioWndEX::iwm_mouseover
EXTRN	?iwm_mousemove@ioWndEX@@UAEXABVioMouse@@@Z:PROC	; ioWndEX::iwm_mousemove
EXTRN	?iwm_mouseleave@ioWndEX@@UAEXABVioMouse@@@Z:PROC ; ioWndEX::iwm_mouseleave
EXTRN	?iwm_vscroll@ioWnd@@UAEXKH@Z:PROC		; ioWnd::iwm_vscroll
EXTRN	?iwm_wheel@ioWndEX@@UAEXH@Z:PROC		; ioWndEX::iwm_wheel
EXTRN	?iwm_show@ioWndEX@@UAEXXZ:PROC			; ioWndEX::iwm_show
EXTRN	?iwm_hide@ioWndEX@@UAEXXZ:PROC			; ioWndEX::iwm_hide
EXTRN	?iwm_esc@ioWndEX@@UAE_NXZ:PROC			; ioWndEX::iwm_esc
EXTRN	?iwm_spacebar@ioWndEX@@UAE_NXZ:PROC		; ioWndEX::iwm_spacebar
EXTRN	?iwm_gototop@ioWnd@@UAEXXZ:PROC			; ioWnd::iwm_gototop
EXTRN	?iwm_dragenter@ioWnd@@UAE?AW4IWDropEffect@@PAVioDragItem@@ABVioMouse@@@Z:PROC ; ioWnd::iwm_dragenter
EXTRN	?iwm_dragover@ioWnd@@UAE?AW4IWDropEffect@@PAVioDragItem@@ABVioMouse@@@Z:PROC ; ioWnd::iwm_dragover
EXTRN	?iwm_dragleave@ioWnd@@UAEXXZ:PROC		; ioWnd::iwm_dragleave
EXTRN	?iwm_dropitem@ioWnd@@UAE_NPAVioDragItem@@ABVioMouse@@PAV1@@Z:PROC ; ioWnd::iwm_dropitem
EXTRN	?iwm_dropdone@ioWnd@@UAEXPAVioDragItem@@PAV1@_N@Z:PROC ; ioWnd::iwm_dropdone
EXTRN	?IsEXType@ioWndEX@@UBE_NXZ:PROC			; ioWndEX::IsEXType
EXTRN	?GetWndType@ioWnd@@UBEKXZ:PROC			; ioWnd::GetWndType
EXTRN	?RenderWnd@ioWnd@@UAEXXZ:PROC			; ioWnd::RenderWnd
EXTRN	?SetIDEX@ioWnd@@UAEXAAK_N@Z:PROC		; ioWnd::SetIDEX
EXTRN	?ParseXML@ioWnd@@UAEXAAVioXMLElement@@@Z:PROC	; ioWnd::ParseXML
EXTRN	?GetHeaderFileName@ioWndEX@@UAEPBDXZ:PROC	; ioWndEX::GetHeaderFileName
EXTRN	?GetTemplateName@ioWndEX@@UAEPBDXZ:PROC		; ioWndEX::GetTemplateName
EXTRN	?GetDefClassName@ioWndEX@@UBEPBDXZ:PROC		; ioWndEX::GetDefClassName
EXTRN	?_Clone@ioWndEX@@UAEPAVioWnd@@XZ:PROC		; ioWndEX::_Clone
EXTRN	?Copy@ioWnd@@UAEXPAV1@@Z:PROC			; ioWnd::Copy
EXTRN	?Save@ioWnd@@UAE_NAAVioXMLElement@@@Z:PROC	; ioWnd::Save
EXTRN	?SetSaveData@ioWndEX@@UAEXAAVioXMLElement@@@Z:PROC ; ioWndEX::SetSaveData
EXTRN	?SetPosX@ioWnd@@UAEXH@Z:PROC			; ioWnd::SetPosX
EXTRN	?SetPosY@ioWnd@@UAEXH@Z:PROC			; ioWnd::SetPosY
EXTRN	?SetWidth@ioWnd@@UAEXH@Z:PROC			; ioWnd::SetWidth
EXTRN	?SetHeight@ioWnd@@UAEXH@Z:PROC			; ioWnd::SetHeight
EXTRN	?GetNumFixedRenderFrame@ioWnd@@UBEHXZ:PROC	; ioWnd::GetNumFixedRenderFrame
EXTRN	?GetFixedRenderFrameType@ioWnd@@UAEPBDH@Z:PROC	; ioWnd::GetFixedRenderFrameType
EXTRN	?GetRenderFrame@ioWnd@@UAEPAPAVioUIRenderElement@@PBD@Z:PROC ; ioWnd::GetRenderFrame
EXTRN	?GetNumFixedRenderImage@ioWnd@@UBEHXZ:PROC	; ioWnd::GetNumFixedRenderImage
EXTRN	?GetFixedRenderImageType@ioWnd@@UAEPBDH@Z:PROC	; ioWnd::GetFixedRenderImageType
EXTRN	?GetRenderImage@ioWnd@@UAEPAPAVioUIRenderElement@@PBD@Z:PROC ; ioWnd::GetRenderImage
EXTRN	?AddEffect@ioWnd@@UAEXABVioHashString@@PAVioUI3DEffectRender@@@Z:PROC ; ioWnd::AddEffect
EXTRN	?GetEffect@ioWnd@@UAEPAVioUI3DEffectRender@@VioHashString@@@Z:PROC ; ioWnd::GetEffect
EXTRN	??_EPaperMercenaryControlWndBase@@UAEPAXI@Z:PROC ; PaperMercenaryControlWndBase::`vector deleting destructor'
EXTRN	?_ParseExtraInfo@ioWndEX@@UAEXAAVioXMLElement@@@Z:PROC ; ioWndEX::_ParseExtraInfo
EXTRN	?_SetSaveData@ioWndEX@@UAEXAAVioXMLElement@@@Z:PROC ; ioWndEX::_SetSaveData
;	COMDAT ??_R2ioWnd@@8
; File d:\lost saga for developer\youtube\tutorial\source\src\lsclient\gui\papermercenarycontrolwndbase.h
rdata$r	SEGMENT
??_R2ioWnd@@8 DD FLAT:??_R1A@?0A@EA@ioWnd@@8		; ioWnd::`RTTI Base Class Array'
rdata$r	ENDS
;	COMDAT ??_R3ioWnd@@8
rdata$r	SEGMENT
??_R3ioWnd@@8 DD 00H					; ioWnd::`RTTI Class Hierarchy Descriptor'
	DD	00H
	DD	01H
	DD	FLAT:??_R2ioWnd@@8
rdata$r	ENDS
;	COMDAT ??_R0?AVioWnd@@@8
_DATA	SEGMENT
??_R0?AVioWnd@@@8 DD FLAT:??_7type_info@@6B@		; ioWnd `RTTI Type Descriptor'
	DD	00H
	DB	'.?AVioWnd@@', 00H
_DATA	ENDS
;	COMDAT ??_R1A@?0A@EA@ioWnd@@8
rdata$r	SEGMENT
??_R1A@?0A@EA@ioWnd@@8 DD FLAT:??_R0?AVioWnd@@@8	; ioWnd::`RTTI Base Class Descriptor at (0,-1,0,64)'
	DD	00H
	DD	00H
	DD	0ffffffffH
	DD	00H
	DD	040H
	DD	FLAT:??_R3ioWnd@@8
rdata$r	ENDS
;	COMDAT ??_R2ioWndEX@@8
rdata$r	SEGMENT
??_R2ioWndEX@@8 DD FLAT:??_R1A@?0A@EA@ioWndEX@@8	; ioWndEX::`RTTI Base Class Array'
	DD	FLAT:??_R1A@?0A@EA@ioWnd@@8
rdata$r	ENDS
;	COMDAT ??_R3ioWndEX@@8
rdata$r	SEGMENT
??_R3ioWndEX@@8 DD 00H					; ioWndEX::`RTTI Class Hierarchy Descriptor'
	DD	00H
	DD	02H
	DD	FLAT:??_R2ioWndEX@@8
rdata$r	ENDS
;	COMDAT ??_R0?AVioWndEX@@@8
_DATA	SEGMENT
??_R0?AVioWndEX@@@8 DD FLAT:??_7type_info@@6B@		; ioWndEX `RTTI Type Descriptor'
	DD	00H
	DB	'.?AVioWndEX@@', 00H
_DATA	ENDS
;	COMDAT ??_R1A@?0A@EA@ioWndEX@@8
rdata$r	SEGMENT
??_R1A@?0A@EA@ioWndEX@@8 DD FLAT:??_R0?AVioWndEX@@@8	; ioWndEX::`RTTI Base Class Descriptor at (0,-1,0,64)'
	DD	01H
	DD	00H
	DD	0ffffffffH
	DD	00H
	DD	040H
	DD	FLAT:??_R3ioWndEX@@8
rdata$r	ENDS
;	COMDAT ??_R1A@?0A@EA@PaperMercenaryControlWndBase@@8
rdata$r	SEGMENT
??_R1A@?0A@EA@PaperMercenaryControlWndBase@@8 DD FLAT:??_R0?AVPaperMercenaryControlWndBase@@@8 ; PaperMercenaryControlWndBase::`RTTI Base Class Descriptor at (0,-1,0,64)'
	DD	02H
	DD	00H
	DD	0ffffffffH
	DD	00H
	DD	040H
	DD	FLAT:??_R3PaperMercenaryControlWndBase@@8
rdata$r	ENDS
;	COMDAT ??_R2PaperMercenaryControlWndBase@@8
rdata$r	SEGMENT
??_R2PaperMercenaryControlWndBase@@8 DD FLAT:??_R1A@?0A@EA@PaperMercenaryControlWndBase@@8 ; PaperMercenaryControlWndBase::`RTTI Base Class Array'
	DD	FLAT:??_R1A@?0A@EA@ioWndEX@@8
	DD	FLAT:??_R1A@?0A@EA@ioWnd@@8
rdata$r	ENDS
;	COMDAT ??_R3PaperMercenaryControlWndBase@@8
rdata$r	SEGMENT
??_R3PaperMercenaryControlWndBase@@8 DD 00H		; PaperMercenaryControlWndBase::`RTTI Class Hierarchy Descriptor'
	DD	00H
	DD	03H
	DD	FLAT:??_R2PaperMercenaryControlWndBase@@8
rdata$r	ENDS
;	COMDAT ??_R0?AVPaperMercenaryControlWndBase@@@8
_DATA	SEGMENT
??_R0?AVPaperMercenaryControlWndBase@@@8 DD FLAT:??_7type_info@@6B@ ; PaperMercenaryControlWndBase `RTTI Type Descriptor'
	DD	00H
	DB	'.?AVPaperMercenaryControlWndBase@@', 00H
_DATA	ENDS
;	COMDAT ??_R4PaperMercenaryControlWndBase@@6B@
rdata$r	SEGMENT
??_R4PaperMercenaryControlWndBase@@6B@ DD 00H		; PaperMercenaryControlWndBase::`RTTI Complete Object Locator'
	DD	00H
	DD	00H
	DD	FLAT:??_R0?AVPaperMercenaryControlWndBase@@@8
	DD	FLAT:??_R3PaperMercenaryControlWndBase@@8
rdata$r	ENDS
;	COMDAT ??_7PaperMercenaryControlWndBase@@6B@
CONST	SEGMENT
??_7PaperMercenaryControlWndBase@@6B@ DD FLAT:??_R4PaperMercenaryControlWndBase@@6B@ ; PaperMercenaryControlWndBase::`vftable'
	DD	FLAT:?AddRenderFrame@ioWnd@@UAEXABVioHashString@@PAVioUIRenderFrame@@@Z
	DD	FLAT:?AddRenderImage@ioWnd@@UAEXABVioHashString@@PAVioUIRenderImage@@@Z
	DD	FLAT:?AddTooltipHelp@ioWnd@@UAEXABVioHashString@@00@Z
	DD	FLAT:?ParseExtraInfo@ioWndEX@@UAEXAAVioXMLElement@@@Z
	DD	FLAT:?AddNamedRenderImage@ioWnd@@UAEXABVioHashString@@PAVioUIRenderImage@@@Z
	DD	FLAT:?RemoveNamedRenderImage@ioWnd@@UAEXABVioHashString@@@Z
	DD	FLAT:?GetNamedRenderImage@ioWnd@@UBEPAVioUIRenderImage@@ABVioHashString@@@Z
	DD	FLAT:?SetWindowAlpha@ioWnd@@UAEXH@Z
	DD	FLAT:?SetActive@ioWnd@@UAEXXZ
	DD	FLAT:?SetInActive@ioWnd@@UAEXXZ
	DD	FLAT:?ClearElementImageList@ioWnd@@UAEXXZ
	DD	FLAT:?SetSize@ioWnd@@UAEXHH@Z
	DD	FLAT:?SetPositionToDefault@ioWnd@@UAEXHH_N0@Z
	DD	FLAT:?IsNeedProcess@ioWnd@@UBE_NXZ
	DD	FLAT:?IsCanMouseReaction@ioWnd@@UBE_NXZ
	DD	FLAT:?AddChild@ioWnd@@UAEXPAV1@@Z
	DD	FLAT:?DeleteChild@ioWnd@@UAEXK@Z
	DD	FLAT:?DeleteAllChild@ioWnd@@UAEXXZ
	DD	FLAT:?OnRenderShowAndHide@ioWnd@@MAE_NXZ
	DD	FLAT:?OnRenderShowAndHideByDefault@ioWnd@@MAE_NK@Z
	DD	FLAT:?OnRenderShowAndHideByTop@ioWnd@@MAE_NK@Z
	DD	FLAT:?OnRenderShowAndHideByDown@ioWnd@@MAE_NK@Z
	DD	FLAT:?OnRender@ioWnd@@MAEXXZ
	DD	FLAT:?OnRenderAfterChild@ioWnd@@MAEXXZ
	DD	FLAT:?OnProcess@ioWnd@@MAEXM@Z
	DD	FLAT:?OnMouseProcess@ioWnd@@MAEXABVioMouse@@@Z
	DD	FLAT:?CheckFrameReSize@ioWnd@@MAEXHHHH@Z
	DD	FLAT:?RenderImageList@ioWnd@@MAEXHHW4UIRenderType@@@Z
	DD	FLAT:?iwm_create@PaperMercenaryControlWndBase@@UAEXXZ
	DD	FLAT:?iwm_destroy@PaperMercenaryControlWndBase@@UAEXXZ
	DD	FLAT:?iwm_lbuttondown@ioWndEX@@UAEXABVioMouse@@@Z
	DD	FLAT:?iwm_lbuttonup@ioWndEX@@UAEXABVioMouse@@@Z
	DD	FLAT:?iwm_lbuttonDBLCLK@ioWndEX@@UAEXABVioMouse@@@Z
	DD	FLAT:?iwm_rbuttondown@ioWndEX@@UAEXABVioMouse@@@Z
	DD	FLAT:?iwm_rbuttonup@ioWndEX@@UAEXABVioMouse@@@Z
	DD	FLAT:?iwm_command@ioWnd@@UAEXPAV1@HK@Z
	DD	FLAT:?iwm_mouseover@ioWndEX@@UAEXABVioMouse@@@Z
	DD	FLAT:?iwm_mousemove@ioWndEX@@UAEXABVioMouse@@@Z
	DD	FLAT:?iwm_mouseleave@ioWndEX@@UAEXABVioMouse@@@Z
	DD	FLAT:?iwm_vscroll@ioWnd@@UAEXKH@Z
	DD	FLAT:?iwm_wheel@ioWndEX@@UAEXH@Z
	DD	FLAT:?iwm_show@ioWndEX@@UAEXXZ
	DD	FLAT:?iwm_hide@ioWndEX@@UAEXXZ
	DD	FLAT:?iwm_esc@ioWndEX@@UAE_NXZ
	DD	FLAT:?iwm_spacebar@ioWndEX@@UAE_NXZ
	DD	FLAT:?iwm_gototop@ioWnd@@UAEXXZ
	DD	FLAT:?iwm_dragenter@ioWnd@@UAE?AW4IWDropEffect@@PAVioDragItem@@ABVioMouse@@@Z
	DD	FLAT:?iwm_dragover@ioWnd@@UAE?AW4IWDropEffect@@PAVioDragItem@@ABVioMouse@@@Z
	DD	FLAT:?iwm_dragleave@ioWnd@@UAEXXZ
	DD	FLAT:?iwm_dropitem@ioWnd@@UAE_NPAVioDragItem@@ABVioMouse@@PAV1@@Z
	DD	FLAT:?iwm_dropdone@ioWnd@@UAEXPAVioDragItem@@PAV1@_N@Z
	DD	FLAT:?IsEXType@ioWndEX@@UBE_NXZ
	DD	FLAT:?GetWndType@ioWnd@@UBEKXZ
	DD	FLAT:?RenderWnd@ioWnd@@UAEXXZ
	DD	FLAT:?SetIDEX@ioWnd@@UAEXAAK_N@Z
	DD	FLAT:?ParseXML@ioWnd@@UAEXAAVioXMLElement@@@Z
	DD	FLAT:?GetHeaderFileName@ioWndEX@@UAEPBDXZ
	DD	FLAT:?GetTemplateName@ioWndEX@@UAEPBDXZ
	DD	FLAT:?GetDefClassName@ioWndEX@@UBEPBDXZ
	DD	FLAT:?_Clone@ioWndEX@@UAEPAVioWnd@@XZ
	DD	FLAT:?Copy@ioWnd@@UAEXPAV1@@Z
	DD	FLAT:?Save@ioWnd@@UAE_NAAVioXMLElement@@@Z
	DD	FLAT:?SetSaveData@ioWndEX@@UAEXAAVioXMLElement@@@Z
	DD	FLAT:?SetPosX@ioWnd@@UAEXH@Z
	DD	FLAT:?SetPosY@ioWnd@@UAEXH@Z
	DD	FLAT:?SetWidth@ioWnd@@UAEXH@Z
	DD	FLAT:?SetHeight@ioWnd@@UAEXH@Z
	DD	FLAT:?GetNumFixedRenderFrame@ioWnd@@UBEHXZ
	DD	FLAT:?GetFixedRenderFrameType@ioWnd@@UAEPBDH@Z
	DD	FLAT:?GetRenderFrame@ioWnd@@UAEPAPAVioUIRenderElement@@PBD@Z
	DD	FLAT:?GetNumFixedRenderImage@ioWnd@@UBEHXZ
	DD	FLAT:?GetFixedRenderImageType@ioWnd@@UAEPBDH@Z
	DD	FLAT:?GetRenderImage@ioWnd@@UAEPAPAVioUIRenderElement@@PBD@Z
	DD	FLAT:?AddEffect@ioWnd@@UAEXABVioHashString@@PAVioUI3DEffectRender@@@Z
	DD	FLAT:?GetEffect@ioWnd@@UAEPAVioUI3DEffectRender@@VioHashString@@@Z
	DD	FLAT:??_EPaperMercenaryControlWndBase@@UAEPAXI@Z
	DD	FLAT:?_ParseExtraInfo@ioWndEX@@UAEXAAVioXMLElement@@@Z
	DD	FLAT:?_SetSaveData@ioWndEX@@UAEXAAVioXMLElement@@@Z
	DD	FLAT:?OnClickChange@PaperMercenaryControlWndBase@@UAEXPAVioWndEX@@AAVioWndEXMouseEvent@@@Z
	DD	FLAT:?OnTurnLeft@PaperMercenaryControlWndBase@@UAEXPAVioWndEX@@AAVioWndEXMouseEvent@@@Z
	DD	FLAT:?OnTurnRight@PaperMercenaryControlWndBase@@UAEXPAVioWndEX@@AAVioWndEXMouseEvent@@@Z
; Function compile flags: /Ogsp
CONST	ENDS
;	COMDAT ??0PaperMercenaryControlWndBase@@QAE@XZ
_TEXT	SEGMENT
??0PaperMercenaryControlWndBase@@QAE@XZ PROC		; PaperMercenaryControlWndBase::PaperMercenaryControlWndBase, COMDAT
; _this$ = ecx

; 44   : 	{

  00000	56		 push	 esi
  00001	8b f1		 mov	 esi, ecx
  00003	ff 15 00 00 00
	00		 call	 DWORD PTR __imp_??0ioWndEX@@QAE@XZ

; 45   : 		m_backfrm = 0;

  00009	33 c0		 xor	 eax, eax
  0000b	89 86 84 01 00
	00		 mov	 DWORD PTR [esi+388], eax

; 46   : 		m_changeImgBtn = 0;

  00011	89 86 88 01 00
	00		 mov	 DWORD PTR [esi+392], eax

; 47   : 		m_turnLeftImgBtn = 0;

  00017	89 86 8c 01 00
	00		 mov	 DWORD PTR [esi+396], eax

; 48   : 		m_turnRightImgBtn = 0;

  0001d	89 86 90 01 00
	00		 mov	 DWORD PTR [esi+400], eax
  00023	c7 06 00 00 00
	00		 mov	 DWORD PTR [esi], OFFSET ??_7PaperMercenaryControlWndBase@@6B@

; 49   : 
; 50   : 	}

  00029	8b c6		 mov	 eax, esi
  0002b	5e		 pop	 esi
  0002c	c3		 ret	 0
??0PaperMercenaryControlWndBase@@QAE@XZ ENDP		; PaperMercenaryControlWndBase::PaperMercenaryControlWndBase
_TEXT	ENDS
PUBLIC	??1PaperMercenaryControlWndBase@@UAE@XZ		; PaperMercenaryControlWndBase::~PaperMercenaryControlWndBase
EXTRN	__imp_??1ioWndEX@@UAE@XZ:PROC
; Function compile flags: /Ogsp
;	COMDAT ??1PaperMercenaryControlWndBase@@UAE@XZ
_TEXT	SEGMENT
??1PaperMercenaryControlWndBase@@UAE@XZ PROC		; PaperMercenaryControlWndBase::~PaperMercenaryControlWndBase, COMDAT
; _this$ = ecx

; 53   : 	{

  00000	c7 01 00 00 00
	00		 mov	 DWORD PTR [ecx], OFFSET ??_7PaperMercenaryControlWndBase@@6B@

; 54   : 	}

  00006	ff 25 00 00 00
	00		 jmp	 DWORD PTR __imp_??1ioWndEX@@UAE@XZ
??1PaperMercenaryControlWndBase@@UAE@XZ ENDP		; PaperMercenaryControlWndBase::~PaperMercenaryControlWndBase
_TEXT	ENDS
EXTRN	__imp_?iwm_destroy@ioWndEX@@UAEXXZ:PROC
EXTRN	__imp_?Disconnect@ioWndEX@@QAEXW4WNDEX_EVENT_TYPE@@PAV1@@Z:PROC
EXTRN	__imp_?FindChildWndEX@ioWnd@@QAEPAV1@K_N@Z:PROC
; Function compile flags: /Ogsp
;	COMDAT ?iwm_destroy@PaperMercenaryControlWndBase@@UAEXXZ
_TEXT	SEGMENT
?iwm_destroy@PaperMercenaryControlWndBase@@UAEXXZ PROC	; PaperMercenaryControlWndBase::iwm_destroy, COMDAT
; _this$ = ecx

; 92   : 	{

  00000	53		 push	 ebx
  00001	56		 push	 esi

; 93   : 		{
; 94   : 				ioWndEX* child = (ioWndEX*)( FindChildWndEX(5) );

  00002	8b 35 00 00 00
	00		 mov	 esi, DWORD PTR __imp_?FindChildWndEX@ioWnd@@QAEPAV1@K_N@Z
  00008	57		 push	 edi
  00009	6a 00		 push	 0
  0000b	6a 05		 push	 5
  0000d	8b d9		 mov	 ebx, ecx
  0000f	ff d6		 call	 esi

; 95   : 				if ( child ) {

  00011	8b 3d 00 00 00
	00		 mov	 edi, DWORD PTR __imp_?Disconnect@ioWndEX@@QAEXW4WNDEX_EVENT_TYPE@@PAV1@@Z
  00017	85 c0		 test	 eax, eax
  00019	74 07		 je	 SHORT $LN3@iwm_destro

; 96   : 					child->Disconnect( static_cast<WNDEX_EVENT_TYPE>(7), this );

  0001b	53		 push	 ebx
  0001c	6a 07		 push	 7
  0001e	8b c8		 mov	 ecx, eax
  00020	ff d7		 call	 edi
$LN3@iwm_destro:

; 97   : 				}
; 98   : 		}
; 99   : 		{
; 100  : 				ioWndEX* child = (ioWndEX*)( FindChildWndEX(6) );

  00022	6a 00		 push	 0
  00024	6a 06		 push	 6
  00026	8b cb		 mov	 ecx, ebx
  00028	ff d6		 call	 esi

; 101  : 				if ( child ) {

  0002a	85 c0		 test	 eax, eax
  0002c	74 07		 je	 SHORT $LN2@iwm_destro

; 102  : 					child->Disconnect( static_cast<WNDEX_EVENT_TYPE>(6), this );

  0002e	53		 push	 ebx
  0002f	6a 06		 push	 6
  00031	8b c8		 mov	 ecx, eax
  00033	ff d7		 call	 edi
$LN2@iwm_destro:

; 103  : 				}
; 104  : 		}
; 105  : 		{
; 106  : 				ioWndEX* child = (ioWndEX*)( FindChildWndEX(7) );

  00035	6a 00		 push	 0
  00037	6a 07		 push	 7
  00039	8b cb		 mov	 ecx, ebx
  0003b	ff d6		 call	 esi

; 107  : 				if ( child ) {

  0003d	85 c0		 test	 eax, eax
  0003f	74 07		 je	 SHORT $LN1@iwm_destro

; 108  : 					child->Disconnect( static_cast<WNDEX_EVENT_TYPE>(6), this );

  00041	53		 push	 ebx
  00042	6a 06		 push	 6
  00044	8b c8		 mov	 ecx, eax
  00046	ff d7		 call	 edi
$LN1@iwm_destro:

; 109  : 				}
; 110  : 		}
; 111  : 
; 112  : 
; 113  : 		ioWndEX::iwm_destroy();

  00048	5f		 pop	 edi
  00049	5e		 pop	 esi
  0004a	8b cb		 mov	 ecx, ebx
  0004c	5b		 pop	 ebx
  0004d	ff 25 00 00 00
	00		 jmp	 DWORD PTR __imp_?iwm_destroy@ioWndEX@@UAEXXZ
?iwm_destroy@PaperMercenaryControlWndBase@@UAEXXZ ENDP	; PaperMercenaryControlWndBase::iwm_destroy
; Function compile flags: /Ogsp
_TEXT	ENDS
;	COMDAT ?OnClickChange@PaperMercenaryControlWndBase@@UAEXPAVioWndEX@@AAVioWndEXMouseEvent@@@Z
_TEXT	SEGMENT
_wnd$ = 8						; size = 4
_event$ = 12						; size = 4
?OnClickChange@PaperMercenaryControlWndBase@@UAEXPAVioWndEX@@AAVioWndEXMouseEvent@@@Z PROC ; PaperMercenaryControlWndBase::OnClickChange, COMDAT
; _this$ = ecx

; 120  : 	virtual void OnClickChange( ioWndEX* wnd, ioWndEXMouseEvent& event ) {}

  00000	c2 08 00	 ret	 8
?OnClickChange@PaperMercenaryControlWndBase@@UAEXPAVioWndEX@@AAVioWndEXMouseEvent@@@Z ENDP ; PaperMercenaryControlWndBase::OnClickChange
; Function compile flags: /Ogsp
_TEXT	ENDS
;	COMDAT ?OnTurnLeft@PaperMercenaryControlWndBase@@UAEXPAVioWndEX@@AAVioWndEXMouseEvent@@@Z
_TEXT	SEGMENT
_wnd$ = 8						; size = 4
_event$ = 12						; size = 4
?OnTurnLeft@PaperMercenaryControlWndBase@@UAEXPAVioWndEX@@AAVioWndEXMouseEvent@@@Z PROC ; PaperMercenaryControlWndBase::OnTurnLeft, COMDAT
; _this$ = ecx

; 121  : 	virtual void OnTurnLeft( ioWndEX* wnd, ioWndEXMouseEvent& event ) {}

  00000	c2 08 00	 ret	 8
?OnTurnLeft@PaperMercenaryControlWndBase@@UAEXPAVioWndEX@@AAVioWndEXMouseEvent@@@Z ENDP ; PaperMercenaryControlWndBase::OnTurnLeft
; Function compile flags: /Ogsp
_TEXT	ENDS
;	COMDAT ?OnTurnRight@PaperMercenaryControlWndBase@@UAEXPAVioWndEX@@AAVioWndEXMouseEvent@@@Z
_TEXT	SEGMENT
_wnd$ = 8						; size = 4
_event$ = 12						; size = 4
?OnTurnRight@PaperMercenaryControlWndBase@@UAEXPAVioWndEX@@AAVioWndEXMouseEvent@@@Z PROC ; PaperMercenaryControlWndBase::OnTurnRight, COMDAT
; _this$ = ecx

; 122  : 	virtual void OnTurnRight( ioWndEX* wnd, ioWndEXMouseEvent& event ) {}

  00000	c2 08 00	 ret	 8
?OnTurnRight@PaperMercenaryControlWndBase@@UAEXPAVioWndEX@@AAVioWndEXMouseEvent@@@Z ENDP ; PaperMercenaryControlWndBase::OnTurnRight
_TEXT	ENDS
EXTRN	??3@YAXPAX@Z:PROC				; operator delete
; Function compile flags: /Ogsp
;	COMDAT ??_GPaperMercenaryControlWndBase@@UAEPAXI@Z
_TEXT	SEGMENT
___flags$ = 8						; size = 4
??_GPaperMercenaryControlWndBase@@UAEPAXI@Z PROC	; PaperMercenaryControlWndBase::`scalar deleting destructor', COMDAT
; _this$ = ecx
  00000	55		 push	 ebp
  00001	8b ec		 mov	 ebp, esp
  00003	56		 push	 esi
  00004	8b f1		 mov	 esi, ecx
  00006	c7 06 00 00 00
	00		 mov	 DWORD PTR [esi], OFFSET ??_7PaperMercenaryControlWndBase@@6B@
  0000c	ff 15 00 00 00
	00		 call	 DWORD PTR __imp_??1ioWndEX@@UAE@XZ
  00012	f6 45 08 01	 test	 BYTE PTR ___flags$[ebp], 1
  00016	74 07		 je	 SHORT $LN1@scalar
  00018	56		 push	 esi
  00019	e8 00 00 00 00	 call	 ??3@YAXPAX@Z		; operator delete
  0001e	59		 pop	 ecx
$LN1@scalar:
  0001f	8b c6		 mov	 eax, esi
  00021	5e		 pop	 esi
  00022	5d		 pop	 ebp
  00023	c2 04 00	 ret	 4
??_GPaperMercenaryControlWndBase@@UAEPAXI@Z ENDP	; PaperMercenaryControlWndBase::`scalar deleting destructor'
_TEXT	ENDS
PUBLIC	?SetSelectCharArray@UISoldierSelectWnd@@QAEXH@Z	; UISoldierSelectWnd::SetSelectCharArray
; Function compile flags: /Ogsp
; File d:\lost saga for developer\youtube\tutorial\source\src\lsclient\gui\uisoldierselectwnd.h
;	COMDAT ?SetSelectCharArray@UISoldierSelectWnd@@QAEXH@Z
_TEXT	SEGMENT
_iSelectCharArray$ = 8					; size = 4
?SetSelectCharArray@UISoldierSelectWnd@@QAEXH@Z PROC	; UISoldierSelectWnd::SetSelectCharArray, COMDAT
; _this$ = ecx

; 136  : 	inline void SetSelectCharArray( int iSelectCharArray ){ m_iSelectCharArray = iSelectCharArray; }

  00000	55		 push	 ebp
  00001	8b ec		 mov	 ebp, esp
  00003	8b 45 08	 mov	 eax, DWORD PTR _iSelectCharArray$[ebp]
  00006	89 81 64 01 00
	00		 mov	 DWORD PTR [ecx+356], eax
  0000c	5d		 pop	 ebp
  0000d	c2 04 00	 ret	 4
?SetSelectCharArray@UISoldierSelectWnd@@QAEXH@Z ENDP	; UISoldierSelectWnd::SetSelectCharArray
_TEXT	ENDS
PUBLIC	??_7PaperMercenaryControlWnd@@6B@		; PaperMercenaryControlWnd::`vftable'
PUBLIC	??0PaperMercenaryControlWnd@@QAE@XZ		; PaperMercenaryControlWnd::PaperMercenaryControlWnd
PUBLIC	??_R4PaperMercenaryControlWnd@@6B@		; PaperMercenaryControlWnd::`RTTI Complete Object Locator'
PUBLIC	??_R0?AVPaperMercenaryControlWnd@@@8		; PaperMercenaryControlWnd `RTTI Type Descriptor'
PUBLIC	??_R3PaperMercenaryControlWnd@@8		; PaperMercenaryControlWnd::`RTTI Class Hierarchy Descriptor'
PUBLIC	??_R2PaperMercenaryControlWnd@@8		; PaperMercenaryControlWnd::`RTTI Base Class Array'
PUBLIC	??_R1A@?0A@EA@PaperMercenaryControlWnd@@8	; PaperMercenaryControlWnd::`RTTI Base Class Descriptor at (0,-1,0,64)'
PUBLIC	?OnProcess@PaperMercenaryControlWnd@@UAEXM@Z	; PaperMercenaryControlWnd::OnProcess
PUBLIC	?iwm_command@PaperMercenaryControlWnd@@UAEXPAVioWnd@@HK@Z ; PaperMercenaryControlWnd::iwm_command
PUBLIC	?OnClickChange@PaperMercenaryControlWnd@@UAEXPAVioWndEX@@AAVioWndEXMouseEvent@@@Z ; PaperMercenaryControlWnd::OnClickChange
PUBLIC	?OnTurnLeft@PaperMercenaryControlWnd@@UAEXPAVioWndEX@@AAVioWndEXMouseEvent@@@Z ; PaperMercenaryControlWnd::OnTurnLeft
PUBLIC	?OnTurnRight@PaperMercenaryControlWnd@@UAEXPAVioWndEX@@AAVioWndEXMouseEvent@@@Z ; PaperMercenaryControlWnd::OnTurnRight
EXTRN	??_EPaperMercenaryControlWnd@@UAEPAXI@Z:PROC	; PaperMercenaryControlWnd::`vector deleting destructor'
;	COMDAT ??_R1A@?0A@EA@PaperMercenaryControlWnd@@8
; File d:\lost saga for developer\youtube\tutorial\source\src\lsclient\gui\papermercenarycontrolwnd.cpp
rdata$r	SEGMENT
??_R1A@?0A@EA@PaperMercenaryControlWnd@@8 DD FLAT:??_R0?AVPaperMercenaryControlWnd@@@8 ; PaperMercenaryControlWnd::`RTTI Base Class Descriptor at (0,-1,0,64)'
	DD	03H
	DD	00H
	DD	0ffffffffH
	DD	00H
	DD	040H
	DD	FLAT:??_R3PaperMercenaryControlWnd@@8
rdata$r	ENDS
;	COMDAT ??_R2PaperMercenaryControlWnd@@8
rdata$r	SEGMENT
??_R2PaperMercenaryControlWnd@@8 DD FLAT:??_R1A@?0A@EA@PaperMercenaryControlWnd@@8 ; PaperMercenaryControlWnd::`RTTI Base Class Array'
	DD	FLAT:??_R1A@?0A@EA@PaperMercenaryControlWndBase@@8
	DD	FLAT:??_R1A@?0A@EA@ioWndEX@@8
	DD	FLAT:??_R1A@?0A@EA@ioWnd@@8
rdata$r	ENDS
;	COMDAT ??_R3PaperMercenaryControlWnd@@8
rdata$r	SEGMENT
??_R3PaperMercenaryControlWnd@@8 DD 00H			; PaperMercenaryControlWnd::`RTTI Class Hierarchy Descriptor'
	DD	00H
	DD	04H
	DD	FLAT:??_R2PaperMercenaryControlWnd@@8
rdata$r	ENDS
;	COMDAT ??_R0?AVPaperMercenaryControlWnd@@@8
_DATA	SEGMENT
??_R0?AVPaperMercenaryControlWnd@@@8 DD FLAT:??_7type_info@@6B@ ; PaperMercenaryControlWnd `RTTI Type Descriptor'
	DD	00H
	DB	'.?AVPaperMercenaryControlWnd@@', 00H
_DATA	ENDS
;	COMDAT ??_R4PaperMercenaryControlWnd@@6B@
rdata$r	SEGMENT
??_R4PaperMercenaryControlWnd@@6B@ DD 00H		; PaperMercenaryControlWnd::`RTTI Complete Object Locator'
	DD	00H
	DD	00H
	DD	FLAT:??_R0?AVPaperMercenaryControlWnd@@@8
	DD	FLAT:??_R3PaperMercenaryControlWnd@@8
rdata$r	ENDS
;	COMDAT ??_7PaperMercenaryControlWnd@@6B@
CONST	SEGMENT
??_7PaperMercenaryControlWnd@@6B@ DD FLAT:??_R4PaperMercenaryControlWnd@@6B@ ; PaperMercenaryControlWnd::`vftable'
	DD	FLAT:?AddRenderFrame@ioWnd@@UAEXABVioHashString@@PAVioUIRenderFrame@@@Z
	DD	FLAT:?AddRenderImage@ioWnd@@UAEXABVioHashString@@PAVioUIRenderImage@@@Z
	DD	FLAT:?AddTooltipHelp@ioWnd@@UAEXABVioHashString@@00@Z
	DD	FLAT:?ParseExtraInfo@ioWndEX@@UAEXAAVioXMLElement@@@Z
	DD	FLAT:?AddNamedRenderImage@ioWnd@@UAEXABVioHashString@@PAVioUIRenderImage@@@Z
	DD	FLAT:?RemoveNamedRenderImage@ioWnd@@UAEXABVioHashString@@@Z
	DD	FLAT:?GetNamedRenderImage@ioWnd@@UBEPAVioUIRenderImage@@ABVioHashString@@@Z
	DD	FLAT:?SetWindowAlpha@ioWnd@@UAEXH@Z
	DD	FLAT:?SetActive@ioWnd@@UAEXXZ
	DD	FLAT:?SetInActive@ioWnd@@UAEXXZ
	DD	FLAT:?ClearElementImageList@ioWnd@@UAEXXZ
	DD	FLAT:?SetSize@ioWnd@@UAEXHH@Z
	DD	FLAT:?SetPositionToDefault@ioWnd@@UAEXHH_N0@Z
	DD	FLAT:?IsNeedProcess@ioWnd@@UBE_NXZ
	DD	FLAT:?IsCanMouseReaction@ioWnd@@UBE_NXZ
	DD	FLAT:?AddChild@ioWnd@@UAEXPAV1@@Z
	DD	FLAT:?DeleteChild@ioWnd@@UAEXK@Z
	DD	FLAT:?DeleteAllChild@ioWnd@@UAEXXZ
	DD	FLAT:?OnRenderShowAndHide@ioWnd@@MAE_NXZ
	DD	FLAT:?OnRenderShowAndHideByDefault@ioWnd@@MAE_NK@Z
	DD	FLAT:?OnRenderShowAndHideByTop@ioWnd@@MAE_NK@Z
	DD	FLAT:?OnRenderShowAndHideByDown@ioWnd@@MAE_NK@Z
	DD	FLAT:?OnRender@ioWnd@@MAEXXZ
	DD	FLAT:?OnRenderAfterChild@ioWnd@@MAEXXZ
	DD	FLAT:?OnProcess@PaperMercenaryControlWnd@@UAEXM@Z
	DD	FLAT:?OnMouseProcess@ioWnd@@MAEXABVioMouse@@@Z
	DD	FLAT:?CheckFrameReSize@ioWnd@@MAEXHHHH@Z
	DD	FLAT:?RenderImageList@ioWnd@@MAEXHHW4UIRenderType@@@Z
	DD	FLAT:?iwm_create@PaperMercenaryControlWndBase@@UAEXXZ
	DD	FLAT:?iwm_destroy@PaperMercenaryControlWndBase@@UAEXXZ
	DD	FLAT:?iwm_lbuttondown@ioWndEX@@UAEXABVioMouse@@@Z
	DD	FLAT:?iwm_lbuttonup@ioWndEX@@UAEXABVioMouse@@@Z
	DD	FLAT:?iwm_lbuttonDBLCLK@ioWndEX@@UAEXABVioMouse@@@Z
	DD	FLAT:?iwm_rbuttondown@ioWndEX@@UAEXABVioMouse@@@Z
	DD	FLAT:?iwm_rbuttonup@ioWndEX@@UAEXABVioMouse@@@Z
	DD	FLAT:?iwm_command@PaperMercenaryControlWnd@@UAEXPAVioWnd@@HK@Z
	DD	FLAT:?iwm_mouseover@ioWndEX@@UAEXABVioMouse@@@Z
	DD	FLAT:?iwm_mousemove@ioWndEX@@UAEXABVioMouse@@@Z
	DD	FLAT:?iwm_mouseleave@ioWndEX@@UAEXABVioMouse@@@Z
	DD	FLAT:?iwm_vscroll@ioWnd@@UAEXKH@Z
	DD	FLAT:?iwm_wheel@ioWndEX@@UAEXH@Z
	DD	FLAT:?iwm_show@ioWndEX@@UAEXXZ
	DD	FLAT:?iwm_hide@ioWndEX@@UAEXXZ
	DD	FLAT:?iwm_esc@ioWndEX@@UAE_NXZ
	DD	FLAT:?iwm_spacebar@ioWndEX@@UAE_NXZ
	DD	FLAT:?iwm_gototop@ioWnd@@UAEXXZ
	DD	FLAT:?iwm_dragenter@ioWnd@@UAE?AW4IWDropEffect@@PAVioDragItem@@ABVioMouse@@@Z
	DD	FLAT:?iwm_dragover@ioWnd@@UAE?AW4IWDropEffect@@PAVioDragItem@@ABVioMouse@@@Z
	DD	FLAT:?iwm_dragleave@ioWnd@@UAEXXZ
	DD	FLAT:?iwm_dropitem@ioWnd@@UAE_NPAVioDragItem@@ABVioMouse@@PAV1@@Z
	DD	FLAT:?iwm_dropdone@ioWnd@@UAEXPAVioDragItem@@PAV1@_N@Z
	DD	FLAT:?IsEXType@ioWndEX@@UBE_NXZ
	DD	FLAT:?GetWndType@ioWnd@@UBEKXZ
	DD	FLAT:?RenderWnd@ioWnd@@UAEXXZ
	DD	FLAT:?SetIDEX@ioWnd@@UAEXAAK_N@Z
	DD	FLAT:?ParseXML@ioWnd@@UAEXAAVioXMLElement@@@Z
	DD	FLAT:?GetHeaderFileName@ioWndEX@@UAEPBDXZ
	DD	FLAT:?GetTemplateName@ioWndEX@@UAEPBDXZ
	DD	FLAT:?GetDefClassName@ioWndEX@@UBEPBDXZ
	DD	FLAT:?_Clone@ioWndEX@@UAEPAVioWnd@@XZ
	DD	FLAT:?Copy@ioWnd@@UAEXPAV1@@Z
	DD	FLAT:?Save@ioWnd@@UAE_NAAVioXMLElement@@@Z
	DD	FLAT:?SetSaveData@ioWndEX@@UAEXAAVioXMLElement@@@Z
	DD	FLAT:?SetPosX@ioWnd@@UAEXH@Z
	DD	FLAT:?SetPosY@ioWnd@@UAEXH@Z
	DD	FLAT:?SetWidth@ioWnd@@UAEXH@Z
	DD	FLAT:?SetHeight@ioWnd@@UAEXH@Z
	DD	FLAT:?GetNumFixedRenderFrame@ioWnd@@UBEHXZ
	DD	FLAT:?GetFixedRenderFrameType@ioWnd@@UAEPBDH@Z
	DD	FLAT:?GetRenderFrame@ioWnd@@UAEPAPAVioUIRenderElement@@PBD@Z
	DD	FLAT:?GetNumFixedRenderImage@ioWnd@@UBEHXZ
	DD	FLAT:?GetFixedRenderImageType@ioWnd@@UAEPBDH@Z
	DD	FLAT:?GetRenderImage@ioWnd@@UAEPAPAVioUIRenderElement@@PBD@Z
	DD	FLAT:?AddEffect@ioWnd@@UAEXABVioHashString@@PAVioUI3DEffectRender@@@Z
	DD	FLAT:?GetEffect@ioWnd@@UAEPAVioUI3DEffectRender@@VioHashString@@@Z
	DD	FLAT:??_EPaperMercenaryControlWnd@@UAEPAXI@Z
	DD	FLAT:?_ParseExtraInfo@ioWndEX@@UAEXAAVioXMLElement@@@Z
	DD	FLAT:?_SetSaveData@ioWndEX@@UAEXAAVioXMLElement@@@Z
	DD	FLAT:?OnClickChange@PaperMercenaryControlWnd@@UAEXPAVioWndEX@@AAVioWndEXMouseEvent@@@Z
	DD	FLAT:?OnTurnLeft@PaperMercenaryControlWnd@@UAEXPAVioWndEX@@AAVioWndEXMouseEvent@@@Z
	DD	FLAT:?OnTurnRight@PaperMercenaryControlWnd@@UAEXPAVioWndEX@@AAVioWndEXMouseEvent@@@Z
; Function compile flags: /Ogsp
CONST	ENDS
;	COMDAT ??0PaperMercenaryControlWnd@@QAE@XZ
_TEXT	SEGMENT
??0PaperMercenaryControlWnd@@QAE@XZ PROC		; PaperMercenaryControlWnd::PaperMercenaryControlWnd, COMDAT
; _this$ = ecx

; 34   : {

  00000	56		 push	 esi
  00001	8b f1		 mov	 esi, ecx
  00003	e8 00 00 00 00	 call	 ??0PaperMercenaryControlWndBase@@QAE@XZ ; PaperMercenaryControlWndBase::PaperMercenaryControlWndBase
  00008	83 a6 94 01 00
	00 00		 and	 DWORD PTR [esi+404], 0
  0000f	83 8e 98 01 00
	00 ff		 or	 DWORD PTR [esi+408], -1
  00016	83 a6 a0 01 00
	00 00		 and	 DWORD PTR [esi+416], 0
  0001d	c7 06 00 00 00
	00		 mov	 DWORD PTR [esi], OFFSET ??_7PaperMercenaryControlWnd@@6B@
  00023	c7 86 9c 01 00
	00 01 00 00 00	 mov	 DWORD PTR [esi+412], 1

; 35   : }

  0002d	8b c6		 mov	 eax, esi
  0002f	5e		 pop	 esi
  00030	c3		 ret	 0
??0PaperMercenaryControlWnd@@QAE@XZ ENDP		; PaperMercenaryControlWnd::PaperMercenaryControlWnd
_TEXT	ENDS
PUBLIC	??1PaperMercenaryControlWnd@@UAE@XZ		; PaperMercenaryControlWnd::~PaperMercenaryControlWnd
; Function compile flags: /Ogsp
;	COMDAT ??1PaperMercenaryControlWnd@@UAE@XZ
_TEXT	SEGMENT
??1PaperMercenaryControlWnd@@UAE@XZ PROC		; PaperMercenaryControlWnd::~PaperMercenaryControlWnd, COMDAT
; _this$ = ecx

; 39   : }

  00000	c7 01 00 00 00
	00		 mov	 DWORD PTR [ecx], OFFSET ??_7PaperMercenaryControlWndBase@@6B@
  00006	ff 25 00 00 00
	00		 jmp	 DWORD PTR __imp_??1ioWndEX@@UAE@XZ
??1PaperMercenaryControlWnd@@UAE@XZ ENDP		; PaperMercenaryControlWnd::~PaperMercenaryControlWnd
_TEXT	ENDS
EXTRN	?GetClassType@ioMyInfo@@QAEHH@Z:PROC		; ioMyInfo::GetClassType
EXTRN	?GetSingleton@ioMyInfo@@SAAAV1@XZ:PROC		; ioMyInfo::GetSingleton
EXTRN	__imp_?GetID@ioWnd@@QBEKXZ:PROC
EXTRN	__imp_?iwm_command@ioWnd@@UAEXPAV1@HK@Z:PROC
; Function compile flags: /Ogsp
;	COMDAT ?iwm_command@PaperMercenaryControlWnd@@UAEXPAVioWnd@@HK@Z
_TEXT	SEGMENT
_wnd$ = 8						; size = 4
_cmd$ = 12						; size = 4
_param$ = 16						; size = 4
?iwm_command@PaperMercenaryControlWnd@@UAEXPAVioWnd@@HK@Z PROC ; PaperMercenaryControlWnd::iwm_command, COMDAT
; _this$ = ecx

; 104  : {

  00000	55		 push	 ebp
  00001	8b ec		 mov	 ebp, esp
  00003	56		 push	 esi

; 105  : 	PaperMercenaryControlWndBase::iwm_command( wnd, cmd, param );

  00004	ff 75 10	 push	 DWORD PTR _param$[ebp]
  00007	8b f1		 mov	 esi, ecx
  00009	ff 75 0c	 push	 DWORD PTR _cmd$[ebp]
  0000c	ff 75 08	 push	 DWORD PTR _wnd$[ebp]
  0000f	ff 15 00 00 00
	00		 call	 DWORD PTR __imp_?iwm_command@ioWnd@@UAEXPAV1@HK@Z

; 106  : 
; 107  : 	if ( !wnd ) return;

  00015	83 7d 08 00	 cmp	 DWORD PTR _wnd$[ebp], 0
  00019	74 43		 je	 SHORT $LN1@iwm_comman

; 108  : 	if ( !m_owner ) return;

  0001b	83 be 94 01 00
	00 00		 cmp	 DWORD PTR [esi+404], 0
  00022	74 3a		 je	 SHORT $LN1@iwm_comman

; 109  : 
; 110  : 	switch ( wnd->GetID() )

  00024	8b 4d 08	 mov	 ecx, DWORD PTR _wnd$[ebp]
  00027	ff 15 00 00 00
	00		 call	 DWORD PTR __imp_?GetID@ioWnd@@QBEKXZ
  0002d	3d fe 17 00 00	 cmp	 eax, 6142		; 000017feH
  00032	75 2a		 jne	 SHORT $LN1@iwm_comman

; 111  : 	{
; 112  : 	case UI_SOLDIERSELECT_WND:
; 113  : 		if ( cmd == IOBN_BTNUP )

  00034	83 7d 0c 11	 cmp	 DWORD PTR _cmd$[ebp], 17 ; 00000011H
  00038	75 24		 jne	 SHORT $LN1@iwm_comman

; 114  : 		{
; 115  : 			int classtype = g_MyInfo.GetClassType( (int)param );

  0003a	ff 75 10	 push	 DWORD PTR _param$[ebp]
  0003d	e8 00 00 00 00	 call	 ?GetSingleton@ioMyInfo@@SAAAV1@XZ ; ioMyInfo::GetSingleton
  00042	8b c8		 mov	 ecx, eax
  00044	e8 00 00 00 00	 call	 ?GetClassType@ioMyInfo@@QAEHH@Z ; ioMyInfo::GetClassType

; 116  : 
; 117  : 			m_owner->iwm_command( this, ICT_CHANGE_CHARACTER, classtype );

  00049	8b 8e 94 01 00
	00		 mov	 ecx, DWORD PTR [esi+404]
  0004f	8b 11		 mov	 edx, DWORD PTR [ecx]
  00051	50		 push	 eax
  00052	68 a0 86 01 00	 push	 100000			; 000186a0H
  00057	56		 push	 esi
  00058	ff 92 8c 00 00
	00		 call	 DWORD PTR [edx+140]
$LN1@iwm_comman:
  0005e	5e		 pop	 esi

; 118  : 		}
; 119  : 		break;
; 120  : 	}
; 121  : }

  0005f	5d		 pop	 ebp
  00060	c2 0c 00	 ret	 12			; 0000000cH
?iwm_command@PaperMercenaryControlWnd@@UAEXPAVioWnd@@HK@Z ENDP ; PaperMercenaryControlWnd::iwm_command
_TEXT	ENDS
EXTRN	?GetClassArray@ioMyInfo@@QAEHH@Z:PROC		; ioMyInfo::GetClassArray
EXTRN	?ShowUISoldierSelectWnd@UISoldierSelectWnd@@QAEXPAVioWnd@@@Z:PROC ; UISoldierSelectWnd::ShowUISoldierSelectWnd
EXTRN	?SetModal@ioSP2GUIManager@@QAEXPAVioWnd@@@Z:PROC ; ioSP2GUIManager::SetModal
EXTRN	__imp_?FindWnd@ioGUIManager@@QAEPAVioWnd@@K@Z:PROC
EXTRN	?GetSingleton@ioSP2GUIManager@@SAAAV1@XZ:PROC	; ioSP2GUIManager::GetSingleton
; Function compile flags: /Ogsp
;	COMDAT ?OnClickChange@PaperMercenaryControlWnd@@UAEXPAVioWndEX@@AAVioWndEXMouseEvent@@@Z
_TEXT	SEGMENT
_wnd$ = 8						; size = 4
_event$ = 12						; size = 4
?OnClickChange@PaperMercenaryControlWnd@@UAEXPAVioWndEX@@AAVioWndEXMouseEvent@@@Z PROC ; PaperMercenaryControlWnd::OnClickChange, COMDAT
; _this$ = ecx

; 128  : {

  00000	56		 push	 esi
  00001	8b f1		 mov	 esi, ecx

; 129  : 	switch ( m_mode )

  00003	8b 86 a0 01 00
	00		 mov	 eax, DWORD PTR [esi+416]
  00009	83 e8 00	 sub	 eax, 0
  0000c	74 31		 je	 SHORT $LN5@OnClickCha
  0000e	48		 dec	 eax
  0000f	75 7a		 jne	 SHORT $LN10@OnClickCha

; 141  : 				}
; 142  : 			}
; 143  : 		}
; 144  : 		break;
; 145  : 
; 146  : 	case MODE_SEX:
; 147  : 		{
; 148  : 			if ( m_owner ) {

  00011	39 86 94 01 00
	00		 cmp	 DWORD PTR [esi+404], eax
  00017	74 72		 je	 SHORT $LN10@OnClickCha

; 149  : 				m_owner->iwm_command( this, ICT_CHANGE_SEX, ( ( m_sextype == 1 ) ? 2 : 1 ) );

  00019	8b 86 94 01 00
	00		 mov	 eax, DWORD PTR [esi+404]
  0001f	8b 10		 mov	 edx, DWORD PTR [eax]
  00021	33 c9		 xor	 ecx, ecx
  00023	83 be 9c 01 00
	00 01		 cmp	 DWORD PTR [esi+412], 1
  0002a	0f 94 c1	 sete	 cl
  0002d	41		 inc	 ecx
  0002e	51		 push	 ecx
  0002f	68 a1 86 01 00	 push	 100001			; 000186a1H
  00034	56		 push	 esi
  00035	8b c8		 mov	 ecx, eax
  00037	ff 92 8c 00 00
	00		 call	 DWORD PTR [edx+140]

; 150  : 			}
; 151  : 		}
; 152  : 		break;

  0003d	eb 4c		 jmp	 SHORT $LN10@OnClickCha
$LN5@OnClickCha:
  0003f	57		 push	 edi

; 130  : 	{
; 131  : 	case MODE_CHANGE:
; 132  : 		{
; 133  : 			UISoldierSelectWnd* soldierwnd = ( UISoldierSelectWnd* )( g_GUIMgr.FindWnd( UI_SOLDIERSELECT_WND ) );

  00040	68 fe 17 00 00	 push	 6142			; 000017feH
  00045	e8 00 00 00 00	 call	 ?GetSingleton@ioSP2GUIManager@@SAAAV1@XZ ; ioSP2GUIManager::GetSingleton
  0004a	8b c8		 mov	 ecx, eax
  0004c	ff 15 00 00 00
	00		 call	 DWORD PTR __imp_?FindWnd@ioGUIManager@@QAEPAVioWnd@@K@Z
  00052	8b f8		 mov	 edi, eax

; 134  : 			if ( soldierwnd )

  00054	85 ff		 test	 edi, edi
  00056	74 32		 je	 SHORT $LN12@OnClickCha

; 135  : 			{
; 136  : 				g_GUIMgr.SetModal( soldierwnd );

  00058	57		 push	 edi
  00059	e8 00 00 00 00	 call	 ?GetSingleton@ioSP2GUIManager@@SAAAV1@XZ ; ioSP2GUIManager::GetSingleton
  0005e	8b c8		 mov	 ecx, eax
  00060	e8 00 00 00 00	 call	 ?SetModal@ioSP2GUIManager@@QAEXPAVioWnd@@@Z ; ioSP2GUIManager::SetModal

; 137  : 				soldierwnd->ShowUISoldierSelectWnd( this );

  00065	56		 push	 esi
  00066	8b cf		 mov	 ecx, edi
  00068	e8 00 00 00 00	 call	 ?ShowUISoldierSelectWnd@UISoldierSelectWnd@@QAEXPAVioWnd@@@Z ; UISoldierSelectWnd::ShowUISoldierSelectWnd

; 138  : 				int iarray = g_MyInfo.GetClassArray( m_classtype );

  0006d	ff b6 98 01 00
	00		 push	 DWORD PTR [esi+408]
  00073	e8 00 00 00 00	 call	 ?GetSingleton@ioMyInfo@@SAAAV1@XZ ; ioMyInfo::GetSingleton
  00078	8b c8		 mov	 ecx, eax
  0007a	e8 00 00 00 00	 call	 ?GetClassArray@ioMyInfo@@QAEHH@Z ; ioMyInfo::GetClassArray

; 139  : 				if ( iarray != -1 ) {

  0007f	83 f8 ff	 cmp	 eax, -1
  00082	74 06		 je	 SHORT $LN12@OnClickCha

; 140  : 					soldierwnd->SetSelectCharArray( iarray );

  00084	89 87 64 01 00
	00		 mov	 DWORD PTR [edi+356], eax
$LN12@OnClickCha:
  0008a	5f		 pop	 edi
$LN10@OnClickCha:
  0008b	5e		 pop	 esi

; 153  : 	}
; 154  : }

  0008c	c2 08 00	 ret	 8
?OnClickChange@PaperMercenaryControlWnd@@UAEXPAVioWndEX@@AAVioWndEXMouseEvent@@@Z ENDP ; PaperMercenaryControlWnd::OnClickChange
; Function compile flags: /Ogsp
_TEXT	ENDS
;	COMDAT ?OnTurnLeft@PaperMercenaryControlWnd@@UAEXPAVioWndEX@@AAVioWndEXMouseEvent@@@Z
_TEXT	SEGMENT
_wnd$ = 8						; size = 4
_event$ = 12						; size = 4
?OnTurnLeft@PaperMercenaryControlWnd@@UAEXPAVioWndEX@@AAVioWndEXMouseEvent@@@Z PROC ; PaperMercenaryControlWnd::OnTurnLeft, COMDAT
; _this$ = ecx

; 158  : 	if ( !m_owner ) return;

  00000	83 b9 94 01 00
	00 00		 cmp	 DWORD PTR [ecx+404], 0
  00007	74 18		 je	 SHORT $LN2@OnTurnLeft

; 159  : 
; 160  : 	m_owner->iwm_command( this, ICT_TURN_LEFT, 0 );

  00009	8b 81 94 01 00
	00		 mov	 eax, DWORD PTR [ecx+404]
  0000f	8b 10		 mov	 edx, DWORD PTR [eax]
  00011	6a 00		 push	 0
  00013	68 a2 86 01 00	 push	 100002			; 000186a2H
  00018	51		 push	 ecx
  00019	8b c8		 mov	 ecx, eax
  0001b	ff 92 8c 00 00
	00		 call	 DWORD PTR [edx+140]
$LN2@OnTurnLeft:

; 161  : }

  00021	c2 08 00	 ret	 8
?OnTurnLeft@PaperMercenaryControlWnd@@UAEXPAVioWndEX@@AAVioWndEXMouseEvent@@@Z ENDP ; PaperMercenaryControlWnd::OnTurnLeft
; Function compile flags: /Ogsp
_TEXT	ENDS
;	COMDAT ?OnTurnRight@PaperMercenaryControlWnd@@UAEXPAVioWndEX@@AAVioWndEXMouseEvent@@@Z
_TEXT	SEGMENT
_wnd$ = 8						; size = 4
_event$ = 12						; size = 4
?OnTurnRight@PaperMercenaryControlWnd@@UAEXPAVioWndEX@@AAVioWndEXMouseEvent@@@Z PROC ; PaperMercenaryControlWnd::OnTurnRight, COMDAT
; _this$ = ecx

; 165  : 	if ( !m_owner ) return;

  00000	83 b9 94 01 00
	00 00		 cmp	 DWORD PTR [ecx+404], 0
  00007	74 18		 je	 SHORT $LN2@OnTurnRigh

; 166  : 
; 167  : 	m_owner->iwm_command( this, ICT_TURN_RIGHT, 0 );

  00009	8b 81 94 01 00
	00		 mov	 eax, DWORD PTR [ecx+404]
  0000f	8b 10		 mov	 edx, DWORD PTR [eax]
  00011	6a 00		 push	 0
  00013	68 a3 86 01 00	 push	 100003			; 000186a3H
  00018	51		 push	 ecx
  00019	8b c8		 mov	 ecx, eax
  0001b	ff 92 8c 00 00
	00		 call	 DWORD PTR [edx+140]
$LN2@OnTurnRigh:

; 168  : }

  00021	c2 08 00	 ret	 8
?OnTurnRight@PaperMercenaryControlWnd@@UAEXPAVioWndEX@@AAVioWndEXMouseEvent@@@Z ENDP ; PaperMercenaryControlWnd::OnTurnRight
_TEXT	ENDS
PUBLIC	?GetSingletonPtr@?$Singleton@VioSP2GUIManager@@@@SAPAVioSP2GUIManager@@XZ ; Singleton<ioSP2GUIManager>::GetSingletonPtr
EXTRN	?ms_Singleton@?$Singleton@VioSP2GUIManager@@@@1PAVioSP2GUIManager@@A:DWORD ; Singleton<ioSP2GUIManager>::ms_Singleton
; Function compile flags: /Ogsp
; File d:\lost saga for developer\youtube\tutorial\source\src\io3dengine\iosingleton.h
;	COMDAT ?GetSingletonPtr@?$Singleton@VioSP2GUIManager@@@@SAPAVioSP2GUIManager@@XZ
_TEXT	SEGMENT
?GetSingletonPtr@?$Singleton@VioSP2GUIManager@@@@SAPAVioSP2GUIManager@@XZ PROC ; Singleton<ioSP2GUIManager>::GetSingletonPtr, COMDAT

; 48   : 		return ( ms_Singleton );

  00000	a1 00 00 00 00	 mov	 eax, DWORD PTR ?ms_Singleton@?$Singleton@VioSP2GUIManager@@@@1PAVioSP2GUIManager@@A ; Singleton<ioSP2GUIManager>::ms_Singleton

; 49   : 	}

  00005	c3		 ret	 0
?GetSingletonPtr@?$Singleton@VioSP2GUIManager@@@@SAPAVioSP2GUIManager@@XZ ENDP ; Singleton<ioSP2GUIManager>::GetSingletonPtr
_TEXT	ENDS
PUBLIC	??_7?$ioWndEXEventHandlerEX@VPaperMercenaryControlWndBase@@VioWndEXMouseEvent@@@@6B@ ; ioWndEXEventHandlerEX<PaperMercenaryControlWndBase,ioWndEXMouseEvent>::`vftable'
PUBLIC	??1?$ioWndEXEventHandlerEX@VPaperMercenaryControlWndBase@@VioWndEXMouseEvent@@@@UAE@XZ ; ioWndEXEventHandlerEX<PaperMercenaryControlWndBase,ioWndEXMouseEvent>::~ioWndEXEventHandlerEX<PaperMercenaryControlWndBase,ioWndEXMouseEvent>
PUBLIC	??_R4?$ioWndEXEventHandlerEX@VPaperMercenaryControlWndBase@@VioWndEXMouseEvent@@@@6B@ ; ioWndEXEventHandlerEX<PaperMercenaryControlWndBase,ioWndEXMouseEvent>::`RTTI Complete Object Locator'
PUBLIC	??_R0?AV?$ioWndEXEventHandlerEX@VPaperMercenaryControlWndBase@@VioWndEXMouseEvent@@@@@8 ; ioWndEXEventHandlerEX<PaperMercenaryControlWndBase,ioWndEXMouseEvent> `RTTI Type Descriptor'
PUBLIC	??_R3?$ioWndEXEventHandlerEX@VPaperMercenaryControlWndBase@@VioWndEXMouseEvent@@@@8 ; ioWndEXEventHandlerEX<PaperMercenaryControlWndBase,ioWndEXMouseEvent>::`RTTI Class Hierarchy Descriptor'
PUBLIC	??_R2?$ioWndEXEventHandlerEX@VPaperMercenaryControlWndBase@@VioWndEXMouseEvent@@@@8 ; ioWndEXEventHandlerEX<PaperMercenaryControlWndBase,ioWndEXMouseEvent>::`RTTI Base Class Array'
PUBLIC	??_R1A@?0A@EA@?$ioWndEXEventHandlerEX@VPaperMercenaryControlWndBase@@VioWndEXMouseEvent@@@@8 ; ioWndEXEventHandlerEX<PaperMercenaryControlWndBase,ioWndEXMouseEvent>::`RTTI Base Class Descriptor at (0,-1,0,64)'
PUBLIC	??_R1A@?0A@EA@ioWndEXEventHandlerBase@@8	; ioWndEXEventHandlerBase::`RTTI Base Class Descriptor at (0,-1,0,64)'
PUBLIC	??_R0?AVioWndEXEventHandlerBase@@@8		; ioWndEXEventHandlerBase `RTTI Type Descriptor'
PUBLIC	??_R3ioWndEXEventHandlerBase@@8			; ioWndEXEventHandlerBase::`RTTI Class Hierarchy Descriptor'
PUBLIC	??_R2ioWndEXEventHandlerBase@@8			; ioWndEXEventHandlerBase::`RTTI Base Class Array'
PUBLIC	?Call@?$ioWndEXEventHandlerEX@VPaperMercenaryControlWndBase@@VioWndEXMouseEvent@@@@UAEXPAVioWndEX@@AAVioWndEXEvent@@@Z ; ioWndEXEventHandlerEX<PaperMercenaryControlWndBase,ioWndEXMouseEvent>::Call
EXTRN	__imp_??1ioWndEXEventHandlerBase@@UAE@XZ:PROC
EXTRN	??_E?$ioWndEXEventHandlerEX@VPaperMercenaryControlWndBase@@VioWndEXMouseEvent@@@@UAEPAXI@Z:PROC ; ioWndEXEventHandlerEX<PaperMercenaryControlWndBase,ioWndEXMouseEvent>::`vector deleting destructor'
;	COMDAT ??_R2ioWndEXEventHandlerBase@@8
; File d:\lost saga for developer\youtube\tutorial\source\src\lsclient\gui\iowndexeventhandlerex.h
rdata$r	SEGMENT
??_R2ioWndEXEventHandlerBase@@8 DD FLAT:??_R1A@?0A@EA@ioWndEXEventHandlerBase@@8 ; ioWndEXEventHandlerBase::`RTTI Base Class Array'
rdata$r	ENDS
;	COMDAT ??_R3ioWndEXEventHandlerBase@@8
rdata$r	SEGMENT
??_R3ioWndEXEventHandlerBase@@8 DD 00H			; ioWndEXEventHandlerBase::`RTTI Class Hierarchy Descriptor'
	DD	00H
	DD	01H
	DD	FLAT:??_R2ioWndEXEventHandlerBase@@8
rdata$r	ENDS
;	COMDAT ??_R0?AVioWndEXEventHandlerBase@@@8
_DATA	SEGMENT
??_R0?AVioWndEXEventHandlerBase@@@8 DD FLAT:??_7type_info@@6B@ ; ioWndEXEventHandlerBase `RTTI Type Descriptor'
	DD	00H
	DB	'.?AVioWndEXEventHandlerBase@@', 00H
_DATA	ENDS
;	COMDAT ??_R1A@?0A@EA@ioWndEXEventHandlerBase@@8
rdata$r	SEGMENT
??_R1A@?0A@EA@ioWndEXEventHandlerBase@@8 DD FLAT:??_R0?AVioWndEXEventHandlerBase@@@8 ; ioWndEXEventHandlerBase::`RTTI Base Class Descriptor at (0,-1,0,64)'
	DD	00H
	DD	00H
	DD	0ffffffffH
	DD	00H
	DD	040H
	DD	FLAT:??_R3ioWndEXEventHandlerBase@@8
rdata$r	ENDS
;	COMDAT ??_R1A@?0A@EA@?$ioWndEXEventHandlerEX@VPaperMercenaryControlWndBase@@VioWndEXMouseEvent@@@@8
rdata$r	SEGMENT
??_R1A@?0A@EA@?$ioWndEXEventHandlerEX@VPaperMercenaryControlWndBase@@VioWndEXMouseEvent@@@@8 DD FLAT:??_R0?AV?$ioWndEXEventHandlerEX@VPaperMercenaryControlWndBase@@VioWndEXMouseEvent@@@@@8 ; ioWndEXEventHandlerEX<PaperMercenaryControlWndBase,ioWndEXMouseEvent>::`RTTI Base Class Descriptor at (0,-1,0,64)'
	DD	01H
	DD	00H
	DD	0ffffffffH
	DD	00H
	DD	040H
	DD	FLAT:??_R3?$ioWndEXEventHandlerEX@VPaperMercenaryControlWndBase@@VioWndEXMouseEvent@@@@8
rdata$r	ENDS
;	COMDAT ??_R2?$ioWndEXEventHandlerEX@VPaperMercenaryControlWndBase@@VioWndEXMouseEvent@@@@8
rdata$r	SEGMENT
??_R2?$ioWndEXEventHandlerEX@VPaperMercenaryControlWndBase@@VioWndEXMouseEvent@@@@8 DD FLAT:??_R1A@?0A@EA@?$ioWndEXEventHandlerEX@VPaperMercenaryControlWndBase@@VioWndEXMouseEvent@@@@8 ; ioWndEXEventHandlerEX<PaperMercenaryControlWndBase,ioWndEXMouseEvent>::`RTTI Base Class Array'
	DD	FLAT:??_R1A@?0A@EA@ioWndEXEventHandlerBase@@8
rdata$r	ENDS
;	COMDAT ??_R3?$ioWndEXEventHandlerEX@VPaperMercenaryControlWndBase@@VioWndEXMouseEvent@@@@8
rdata$r	SEGMENT
??_R3?$ioWndEXEventHandlerEX@VPaperMercenaryControlWndBase@@VioWndEXMouseEvent@@@@8 DD 00H ; ioWndEXEventHandlerEX<PaperMercenaryControlWndBase,ioWndEXMouseEvent>::`RTTI Class Hierarchy Descriptor'
	DD	00H
	DD	02H
	DD	FLAT:??_R2?$ioWndEXEventHandlerEX@VPaperMercenaryControlWndBase@@VioWndEXMouseEvent@@@@8
rdata$r	ENDS
;	COMDAT ??_R0?AV?$ioWndEXEventHandlerEX@VPaperMercenaryControlWndBase@@VioWndEXMouseEvent@@@@@8
_DATA	SEGMENT
??_R0?AV?$ioWndEXEventHandlerEX@VPaperMercenaryControlWndBase@@VioWndEXMouseEvent@@@@@8 DD FLAT:??_7type_info@@6B@ ; ioWndEXEventHandlerEX<PaperMercenaryControlWndBase,ioWndEXMouseEvent> `RTTI Type Descriptor'
	DD	00H
	DB	'.?AV?$ioWndEXEventHandlerEX@VPaperMercenaryControlWndBas'
	DB	'e@@VioWndEXMouseEvent@@@@', 00H
_DATA	ENDS
;	COMDAT ??_R4?$ioWndEXEventHandlerEX@VPaperMercenaryControlWndBase@@VioWndEXMouseEvent@@@@6B@
rdata$r	SEGMENT
??_R4?$ioWndEXEventHandlerEX@VPaperMercenaryControlWndBase@@VioWndEXMouseEvent@@@@6B@ DD 00H ; ioWndEXEventHandlerEX<PaperMercenaryControlWndBase,ioWndEXMouseEvent>::`RTTI Complete Object Locator'
	DD	00H
	DD	00H
	DD	FLAT:??_R0?AV?$ioWndEXEventHandlerEX@VPaperMercenaryControlWndBase@@VioWndEXMouseEvent@@@@@8
	DD	FLAT:??_R3?$ioWndEXEventHandlerEX@VPaperMercenaryControlWndBase@@VioWndEXMouseEvent@@@@8
rdata$r	ENDS
;	COMDAT ??_7?$ioWndEXEventHandlerEX@VPaperMercenaryControlWndBase@@VioWndEXMouseEvent@@@@6B@
CONST	SEGMENT
??_7?$ioWndEXEventHandlerEX@VPaperMercenaryControlWndBase@@VioWndEXMouseEvent@@@@6B@ DD FLAT:??_R4?$ioWndEXEventHandlerEX@VPaperMercenaryControlWndBase@@VioWndEXMouseEvent@@@@6B@ ; ioWndEXEventHandlerEX<PaperMercenaryControlWndBase,ioWndEXMouseEvent>::`vftable'
	DD	FLAT:??_E?$ioWndEXEventHandlerEX@VPaperMercenaryControlWndBase@@VioWndEXMouseEvent@@@@UAEPAXI@Z
	DD	FLAT:?Call@?$ioWndEXEventHandlerEX@VPaperMercenaryControlWndBase@@VioWndEXMouseEvent@@@@UAEXPAVioWndEX@@AAVioWndEXEvent@@@Z
; Function compile flags: /Ogsp
CONST	ENDS
;	COMDAT ??1?$ioWndEXEventHandlerEX@VPaperMercenaryControlWndBase@@VioWndEXMouseEvent@@@@UAE@XZ
_TEXT	SEGMENT
??1?$ioWndEXEventHandlerEX@VPaperMercenaryControlWndBase@@VioWndEXMouseEvent@@@@UAE@XZ PROC ; ioWndEXEventHandlerEX<PaperMercenaryControlWndBase,ioWndEXMouseEvent>::~ioWndEXEventHandlerEX<PaperMercenaryControlWndBase,ioWndEXMouseEvent>, COMDAT
; _this$ = ecx

; 34   : 	{}

  00000	c7 01 00 00 00
	00		 mov	 DWORD PTR [ecx], OFFSET ??_7?$ioWndEXEventHandlerEX@VPaperMercenaryControlWndBase@@VioWndEXMouseEvent@@@@6B@
  00006	ff 25 00 00 00
	00		 jmp	 DWORD PTR __imp_??1ioWndEXEventHandlerBase@@UAE@XZ
??1?$ioWndEXEventHandlerEX@VPaperMercenaryControlWndBase@@VioWndEXMouseEvent@@@@UAE@XZ ENDP ; ioWndEXEventHandlerEX<PaperMercenaryControlWndBase,ioWndEXMouseEvent>::~ioWndEXEventHandlerEX<PaperMercenaryControlWndBase,ioWndEXMouseEvent>
; Function compile flags: /Ogsp
_TEXT	ENDS
;	COMDAT ?Call@?$ioWndEXEventHandlerEX@VPaperMercenaryControlWndBase@@VioWndEXMouseEvent@@@@UAEXPAVioWndEX@@AAVioWndEXEvent@@@Z
_TEXT	SEGMENT
_wnd$ = 8						; size = 4
_event$ = 12						; size = 4
?Call@?$ioWndEXEventHandlerEX@VPaperMercenaryControlWndBase@@VioWndEXMouseEvent@@@@UAEXPAVioWndEX@@AAVioWndEXEvent@@@Z PROC ; ioWndEXEventHandlerEX<PaperMercenaryControlWndBase,ioWndEXMouseEvent>::Call, COMDAT
; _this$ = ecx

; 37   : 	{

  00000	55		 push	 ebp
  00001	8b ec		 mov	 ebp, esp
  00003	8b c1		 mov	 eax, ecx

; 38   : 		if ( m_owner && m_callback ) {

  00005	8b 48 08	 mov	 ecx, DWORD PTR [eax+8]
  00008	85 c9		 test	 ecx, ecx
  0000a	74 0a		 je	 SHORT $LN1@Call
  0000c	8b 40 0c	 mov	 eax, DWORD PTR [eax+12]
  0000f	85 c0		 test	 eax, eax
  00011	74 03		 je	 SHORT $LN1@Call

; 40   : 		}
; 41   : 	}

  00013	5d		 pop	 ebp

; 39   : 			(m_owner->*m_callback)( wnd, ((EOT&)( event )) );

  00014	ff e0		 jmp	 eax
$LN1@Call:

; 40   : 		}
; 41   : 	}

  00016	5d		 pop	 ebp
  00017	c2 08 00	 ret	 8
?Call@?$ioWndEXEventHandlerEX@VPaperMercenaryControlWndBase@@VioWndEXMouseEvent@@@@UAEXPAVioWndEX@@AAVioWndEXEvent@@@Z ENDP ; ioWndEXEventHandlerEX<PaperMercenaryControlWndBase,ioWndEXMouseEvent>::Call
; Function compile flags: /Ogsp
_TEXT	ENDS
;	COMDAT ??_G?$ioWndEXEventHandlerEX@VPaperMercenaryControlWndBase@@VioWndEXMouseEvent@@@@UAEPAXI@Z
_TEXT	SEGMENT
___flags$ = 8						; size = 4
??_G?$ioWndEXEventHandlerEX@VPaperMercenaryControlWndBase@@VioWndEXMouseEvent@@@@UAEPAXI@Z PROC ; ioWndEXEventHandlerEX<PaperMercenaryControlWndBase,ioWndEXMouseEvent>::`scalar deleting destructor', COMDAT
; _this$ = ecx
  00000	55		 push	 ebp
  00001	8b ec		 mov	 ebp, esp
  00003	56		 push	 esi
  00004	8b f1		 mov	 esi, ecx
  00006	c7 06 00 00 00
	00		 mov	 DWORD PTR [esi], OFFSET ??_7?$ioWndEXEventHandlerEX@VPaperMercenaryControlWndBase@@VioWndEXMouseEvent@@@@6B@
  0000c	ff 15 00 00 00
	00		 call	 DWORD PTR __imp_??1ioWndEXEventHandlerBase@@UAE@XZ
  00012	f6 45 08 01	 test	 BYTE PTR ___flags$[ebp], 1
  00016	74 07		 je	 SHORT $LN1@scalar@2
  00018	56		 push	 esi
  00019	e8 00 00 00 00	 call	 ??3@YAXPAX@Z		; operator delete
  0001e	59		 pop	 ecx
$LN1@scalar@2:
  0001f	8b c6		 mov	 eax, esi
  00021	5e		 pop	 esi
  00022	5d		 pop	 ebp
  00023	c2 04 00	 ret	 4
??_G?$ioWndEXEventHandlerEX@VPaperMercenaryControlWndBase@@VioWndEXMouseEvent@@@@UAEPAXI@Z ENDP ; ioWndEXEventHandlerEX<PaperMercenaryControlWndBase,ioWndEXMouseEvent>::`scalar deleting destructor'
_TEXT	ENDS
PUBLIC	??0?$ioWndEXEventHandlerEX@VPaperMercenaryControlWndBase@@VioWndEXMouseEvent@@@@QAE@PAVPaperMercenaryControlWndBase@@P81@AEXPAVioWndEX@@AAVioWndEXMouseEvent@@@Z@Z ; ioWndEXEventHandlerEX<PaperMercenaryControlWndBase,ioWndEXMouseEvent>::ioWndEXEventHandlerEX<PaperMercenaryControlWndBase,ioWndEXMouseEvent>
EXTRN	__imp_??0ioWndEXEventHandlerBase@@QAE@PAVioWndEX@@@Z:PROC
; Function compile flags: /Ogsp
;	COMDAT ??0?$ioWndEXEventHandlerEX@VPaperMercenaryControlWndBase@@VioWndEXMouseEvent@@@@QAE@PAVPaperMercenaryControlWndBase@@P81@AEXPAVioWndEX@@AAVioWndEXMouseEvent@@@Z@Z
_TEXT	SEGMENT
_owner$ = 8						; size = 4
_cb$ = 12						; size = 4
??0?$ioWndEXEventHandlerEX@VPaperMercenaryControlWndBase@@VioWndEXMouseEvent@@@@QAE@PAVPaperMercenaryControlWndBase@@P81@AEXPAVioWndEX@@AAVioWndEXMouseEvent@@@Z@Z PROC ; ioWndEXEventHandlerEX<PaperMercenaryControlWndBase,ioWndEXMouseEvent>::ioWndEXEventHandlerEX<PaperMercenaryControlWndBase,ioWndEXMouseEvent>, COMDAT
; _this$ = ecx

; 31   : 	{}

  00000	55		 push	 ebp
  00001	8b ec		 mov	 ebp, esp
  00003	56		 push	 esi
  00004	57		 push	 edi
  00005	8b 7d 08	 mov	 edi, DWORD PTR _owner$[ebp]
  00008	57		 push	 edi
  00009	8b f1		 mov	 esi, ecx
  0000b	ff 15 00 00 00
	00		 call	 DWORD PTR __imp_??0ioWndEXEventHandlerBase@@QAE@PAVioWndEX@@@Z
  00011	8b 45 0c	 mov	 eax, DWORD PTR _cb$[ebp]
  00014	89 7e 08	 mov	 DWORD PTR [esi+8], edi
  00017	89 46 0c	 mov	 DWORD PTR [esi+12], eax
  0001a	5f		 pop	 edi
  0001b	c7 06 00 00 00
	00		 mov	 DWORD PTR [esi], OFFSET ??_7?$ioWndEXEventHandlerEX@VPaperMercenaryControlWndBase@@VioWndEXMouseEvent@@@@6B@
  00021	8b c6		 mov	 eax, esi
  00023	5e		 pop	 esi
  00024	5d		 pop	 ebp
  00025	c2 08 00	 ret	 8
??0?$ioWndEXEventHandlerEX@VPaperMercenaryControlWndBase@@VioWndEXMouseEvent@@@@QAE@PAVPaperMercenaryControlWndBase@@P81@AEXPAVioWndEX@@AAVioWndEXMouseEvent@@@Z@Z ENDP ; ioWndEXEventHandlerEX<PaperMercenaryControlWndBase,ioWndEXMouseEvent>::ioWndEXEventHandlerEX<PaperMercenaryControlWndBase,ioWndEXMouseEvent>
_TEXT	ENDS
PUBLIC	??_9PaperMercenaryControlWndBase@@$BBDI@AE	; PaperMercenaryControlWndBase::`vcall'{312}'
; Function compile flags: /Odsp
;	COMDAT ??_9PaperMercenaryControlWndBase@@$BBDI@AE
_TEXT	SEGMENT
??_9PaperMercenaryControlWndBase@@$BBDI@AE PROC		; PaperMercenaryControlWndBase::`vcall'{312}', COMDAT
  00000	8b 01		 mov	 eax, DWORD PTR [ecx]
  00002	ff a0 38 01 00
	00		 jmp	 DWORD PTR [eax+312]
??_9PaperMercenaryControlWndBase@@$BBDI@AE ENDP		; PaperMercenaryControlWndBase::`vcall'{312}'
_TEXT	ENDS
PUBLIC	??_9PaperMercenaryControlWndBase@@$BBDM@AE	; PaperMercenaryControlWndBase::`vcall'{316}'
; Function compile flags: /Odsp
;	COMDAT ??_9PaperMercenaryControlWndBase@@$BBDM@AE
_TEXT	SEGMENT
??_9PaperMercenaryControlWndBase@@$BBDM@AE PROC		; PaperMercenaryControlWndBase::`vcall'{316}', COMDAT
  00000	8b 01		 mov	 eax, DWORD PTR [ecx]
  00002	ff a0 3c 01 00
	00		 jmp	 DWORD PTR [eax+316]
??_9PaperMercenaryControlWndBase@@$BBDM@AE ENDP		; PaperMercenaryControlWndBase::`vcall'{316}'
_TEXT	ENDS
PUBLIC	??_9PaperMercenaryControlWndBase@@$BBEA@AE	; PaperMercenaryControlWndBase::`vcall'{320}'
; Function compile flags: /Odsp
;	COMDAT ??_9PaperMercenaryControlWndBase@@$BBEA@AE
_TEXT	SEGMENT
??_9PaperMercenaryControlWndBase@@$BBEA@AE PROC		; PaperMercenaryControlWndBase::`vcall'{320}', COMDAT
  00000	8b 01		 mov	 eax, DWORD PTR [ecx]
  00002	ff a0 40 01 00
	00		 jmp	 DWORD PTR [eax+320]
??_9PaperMercenaryControlWndBase@@$BBEA@AE ENDP		; PaperMercenaryControlWndBase::`vcall'{320}'
; Function compile flags: /Ogsp
_TEXT	ENDS
;	COMDAT ??_GPaperMercenaryControlWnd@@UAEPAXI@Z
_TEXT	SEGMENT
___flags$ = 8						; size = 4
??_GPaperMercenaryControlWnd@@UAEPAXI@Z PROC		; PaperMercenaryControlWnd::`scalar deleting destructor', COMDAT
; _this$ = ecx
  00000	55		 push	 ebp
  00001	8b ec		 mov	 ebp, esp
  00003	56		 push	 esi
  00004	8b f1		 mov	 esi, ecx
  00006	e8 00 00 00 00	 call	 ??1PaperMercenaryControlWnd@@UAE@XZ ; PaperMercenaryControlWnd::~PaperMercenaryControlWnd
  0000b	f6 45 08 01	 test	 BYTE PTR ___flags$[ebp], 1
  0000f	74 07		 je	 SHORT $LN1@scalar@3
  00011	56		 push	 esi
  00012	e8 00 00 00 00	 call	 ??3@YAXPAX@Z		; operator delete
  00017	59		 pop	 ecx
$LN1@scalar@3:
  00018	8b c6		 mov	 eax, esi
  0001a	5e		 pop	 esi
  0001b	5d		 pop	 ebp
  0001c	c2 04 00	 ret	 4
??_GPaperMercenaryControlWnd@@UAEPAXI@Z ENDP		; PaperMercenaryControlWnd::`scalar deleting destructor'
_TEXT	ENDS
PUBLIC	??_C@_0N@PBPECIEC@BaseImage004?$AA@		; `string'
PUBLIC	??_C@_0O@HBJPHAN@icon0_3d_back?$AA@		; `string'
PUBLIC	??_C@_0P@MFCJALKP@icon0_3d_front?$AA@		; `string'
EXTRN	__imp_?HideWnd@ioWnd@@QAEXXZ:PROC
EXTRN	__imp_??1ioWndEXMouseEvent@@UAE@XZ:PROC
EXTRN	__imp_??0ioWndEXMouseEvent@@QAE@XZ:PROC
EXTRN	__imp_?IsClicked@ioWnd@@QBE_NXZ:PROC
EXTRN	__imp_?ShowWnd@ioWnd@@QAEXXZ:PROC
EXTRN	__imp_?IsInWndRect@ioWnd@@QAE_NABUtagPOINT@@@Z:PROC
EXTRN	__imp_?GetLastMousePos@ioGUIManager@@QBEABUtagPOINT@@XZ:PROC
EXTRN	__imp_??1ioHashString@@QAE@XZ:PROC
EXTRN	__imp_?SetImageSetPush@ioImageButtonWndEX@@QAEXPBD0PAVioGUIManager@@@Z:PROC
EXTRN	__imp_?SetImageSetOverAdd@ioImageButtonWndEX@@QAEXPBD0PAVioGUIManager@@@Z:PROC
EXTRN	__imp_?SetImageSetOver@ioImageButtonWndEX@@QAEXPBD0PAVioGUIManager@@@Z:PROC
EXTRN	__imp_?SetImageSetNormal@ioImageButtonWndEX@@QAEXPBD0PAVioGUIManager@@@Z:PROC
EXTRN	__imp_?c_str@ioHashString@@QBEPBDXZ:PROC
EXTRN	__imp_??4ioHashString@@QAEAAV0@PBD@Z:PROC
EXTRN	__imp_??0ioHashString@@QAE@PBD@Z:PROC
EXTRN	__imp_?OnProcess@ioWnd@@MAEXM@Z:PROC
EXTRN	__imp_?IsShow@ioWnd@@QBE_NXZ:PROC
EXTRN	___CxxFrameHandler3:PROC
EXTRN	@__security_check_cookie@4:PROC
EXTRN	__fltused:DWORD
EXTRN	__EH_epilog3:PROC
EXTRN	__EH_prolog3:PROC
;	COMDAT ??_C@_0N@PBPECIEC@BaseImage004?$AA@
; File d:\lost saga for developer\youtube\tutorial\source\src\io3dengine\iosingleton.h
CONST	SEGMENT
??_C@_0N@PBPECIEC@BaseImage004?$AA@ DB 'BaseImage004', 00H ; `string'
CONST	ENDS
;	COMDAT ??_C@_0O@HBJPHAN@icon0_3d_back?$AA@
CONST	SEGMENT
??_C@_0O@HBJPHAN@icon0_3d_back?$AA@ DB 'icon0_3d_back', 00H ; `string'
CONST	ENDS
;	COMDAT ??_C@_0P@MFCJALKP@icon0_3d_front?$AA@
CONST	SEGMENT
??_C@_0P@MFCJALKP@icon0_3d_front?$AA@ DB 'icon0_3d_front', 00H ; `string'
CONST	ENDS
;	COMDAT xdata$x
xdata$x	SEGMENT
__unwindtable$?OnProcess@PaperMercenaryControlWnd@@UAEXM@Z DD 0ffffffffH
	DD	FLAT:__unwindfunclet$?OnProcess@PaperMercenaryControlWnd@@UAEXM@Z$0
	DD	0ffffffffH
	DD	FLAT:__unwindfunclet$?OnProcess@PaperMercenaryControlWnd@@UAEXM@Z$1
	DD	0ffffffffH
	DD	FLAT:__unwindfunclet$?OnProcess@PaperMercenaryControlWnd@@UAEXM@Z$2
__ehfuncinfo$?OnProcess@PaperMercenaryControlWnd@@UAEXM@Z DD 019930522H
	DD	03H
	DD	FLAT:__unwindtable$?OnProcess@PaperMercenaryControlWnd@@UAEXM@Z
	DD	2 DUP(00H)
	DD	2 DUP(00H)
	DD	00H
	DD	01H
; Function compile flags: /Ogsp
; File d:\lost saga for developer\youtube\tutorial\source\src\lsclient\gui\papermercenarycontrolwnd.cpp
xdata$x	ENDS
;	COMDAT ?OnProcess@PaperMercenaryControlWnd@@UAEXM@Z
_TEXT	SEGMENT
$T509475 = -44						; size = 16
$T509474 = -28						; size = 16
_imgname$508326 = -28					; size = 16
__$EHRec$ = -12						; size = 12
_fTimePerSec$ = 8					; size = 4
?OnProcess@PaperMercenaryControlWnd@@UAEXM@Z PROC	; PaperMercenaryControlWnd::OnProcess, COMDAT
; _this$ = ecx

; 46   : {

  00000	6a 20		 push	 32			; 00000020H
  00002	b8 00 00 00 00	 mov	 eax, __ehhandler$?OnProcess@PaperMercenaryControlWnd@@UAEXM@Z
  00007	e8 00 00 00 00	 call	 __EH_prolog3
  0000c	8b f1		 mov	 esi, ecx

; 47   : 	UISoldierSelectWnd* soldierwnd = ( UISoldierSelectWnd* )( g_GUIMgr.FindWnd( UI_SOLDIERSELECT_WND ) );

  0000e	68 fe 17 00 00	 push	 6142			; 000017feH
  00013	e8 00 00 00 00	 call	 ?GetSingleton@ioSP2GUIManager@@SAAAV1@XZ ; ioSP2GUIManager::GetSingleton
  00018	8b c8		 mov	 ecx, eax
  0001a	ff 15 00 00 00
	00		 call	 DWORD PTR __imp_?FindWnd@ioGUIManager@@QAEPAVioWnd@@K@Z

; 48   : 	if ( soldierwnd && soldierwnd->IsShow() ) return;

  00020	33 ff		 xor	 edi, edi
  00022	3b c7		 cmp	 eax, edi
  00024	74 10		 je	 SHORT $LN12@OnProcess
  00026	8b c8		 mov	 ecx, eax
  00028	ff 15 00 00 00
	00		 call	 DWORD PTR __imp_?IsShow@ioWnd@@QBE_NXZ
  0002e	84 c0		 test	 al, al
  00030	0f 85 8a 01 00
	00		 jne	 $LN1@OnProcess
$LN12@OnProcess:

; 49   : 
; 50   : 	PaperMercenaryControlWndBase::OnProcess( fTimePerSec );

  00036	f3 0f 10 45 08	 movss	 xmm0, DWORD PTR _fTimePerSec$[ebp]
  0003b	51		 push	 ecx
  0003c	8b ce		 mov	 ecx, esi
  0003e	f3 0f 11 04 24	 movss	 DWORD PTR [esp], xmm0
  00043	ff 15 00 00 00
	00		 call	 DWORD PTR __imp_?OnProcess@ioWnd@@MAEXM@Z

; 51   : 	
; 52   : 	if ( m_backfrm )

  00049	39 be 84 01 00
	00		 cmp	 DWORD PTR [esi+388], edi
  0004f	0f 84 6b 01 00
	00		 je	 $LN1@OnProcess

; 53   : 	{
; 54   : 		if ( m_changeImgBtn )

  00055	39 be 88 01 00
	00		 cmp	 DWORD PTR [esi+392], edi
  0005b	0f 84 a9 00 00
	00		 je	 $LN10@OnProcess

; 55   : 		{
; 56   : 			ioHashString imgname( "icon0_3d_front" );

  00061	68 00 00 00 00	 push	 OFFSET ??_C@_0P@MFCJALKP@icon0_3d_front?$AA@
  00066	8d 4d e4	 lea	 ecx, DWORD PTR _imgname$508326[ebp]
  00069	ff 15 00 00 00
	00		 call	 DWORD PTR __imp_??0ioHashString@@QAE@PBD@Z

; 57   : 
; 58   : 			switch ( m_mode )

  0006f	8b 86 a0 01 00
	00		 mov	 eax, DWORD PTR [esi+416]
  00075	48		 dec	 eax
  00076	89 7d fc	 mov	 DWORD PTR __$EHRec$[ebp+8], edi
  00079	75 17		 jne	 SHORT $LN5@OnProcess

; 59   : 			{
; 60   : 			case MODE_CHANGE:
; 61   : 				break;
; 62   : 
; 63   : 			case MODE_SEX:
; 64   : 				{
; 65   : 					if ( m_sextype == 1 ) {

  0007b	83 be 9c 01 00
	00 01		 cmp	 DWORD PTR [esi+412], 1
  00082	75 0e		 jne	 SHORT $LN5@OnProcess

; 66   : 						imgname = "icon0_3d_back";

  00084	68 00 00 00 00	 push	 OFFSET ??_C@_0O@HBJPHAN@icon0_3d_back?$AA@
  00089	8d 4d e4	 lea	 ecx, DWORD PTR _imgname$508326[ebp]
  0008c	ff 15 00 00 00
	00		 call	 DWORD PTR __imp_??4ioHashString@@QAEAAV0@PBD@Z
$LN5@OnProcess:

; 67   : 					}
; 68   : 				}
; 69   : 				break;
; 70   : 			}
; 71   : 
; 72   : 			ioGUIManager* guimgr = (ioGUIManager*)( ioSP2GUIManager::GetSingletonPtr() );					

  00092	8b 1d 00 00 00
	00		 mov	 ebx, DWORD PTR ?ms_Singleton@?$Singleton@VioSP2GUIManager@@@@1PAVioSP2GUIManager@@A ; Singleton<ioSP2GUIManager>::ms_Singleton

; 73   : 			m_changeImgBtn->SetImageSetNormal( "BaseImage004", imgname.c_str(), guimgr );

  00098	53		 push	 ebx
  00099	8d 4d e4	 lea	 ecx, DWORD PTR _imgname$508326[ebp]
  0009c	ff 15 00 00 00
	00		 call	 DWORD PTR __imp_?c_str@ioHashString@@QBEPBDXZ
  000a2	8b 8e 88 01 00
	00		 mov	 ecx, DWORD PTR [esi+392]
  000a8	50		 push	 eax
  000a9	bf 00 00 00 00	 mov	 edi, OFFSET ??_C@_0N@PBPECIEC@BaseImage004?$AA@
  000ae	57		 push	 edi
  000af	ff 15 00 00 00
	00		 call	 DWORD PTR __imp_?SetImageSetNormal@ioImageButtonWndEX@@QAEXPBD0PAVioGUIManager@@@Z

; 74   : 			m_changeImgBtn->SetImageSetOver( "BaseImage004", imgname.c_str(), guimgr );

  000b5	53		 push	 ebx
  000b6	8d 4d e4	 lea	 ecx, DWORD PTR _imgname$508326[ebp]
  000b9	ff 15 00 00 00
	00		 call	 DWORD PTR __imp_?c_str@ioHashString@@QBEPBDXZ
  000bf	8b 8e 88 01 00
	00		 mov	 ecx, DWORD PTR [esi+392]
  000c5	50		 push	 eax
  000c6	57		 push	 edi
  000c7	ff 15 00 00 00
	00		 call	 DWORD PTR __imp_?SetImageSetOver@ioImageButtonWndEX@@QAEXPBD0PAVioGUIManager@@@Z

; 75   : 			m_changeImgBtn->SetImageSetOverAdd( "BaseImage004", imgname.c_str(), guimgr );

  000cd	53		 push	 ebx
  000ce	8d 4d e4	 lea	 ecx, DWORD PTR _imgname$508326[ebp]
  000d1	ff 15 00 00 00
	00		 call	 DWORD PTR __imp_?c_str@ioHashString@@QBEPBDXZ
  000d7	8b 8e 88 01 00
	00		 mov	 ecx, DWORD PTR [esi+392]
  000dd	50		 push	 eax
  000de	57		 push	 edi
  000df	ff 15 00 00 00
	00		 call	 DWORD PTR __imp_?SetImageSetOverAdd@ioImageButtonWndEX@@QAEXPBD0PAVioGUIManager@@@Z

; 76   : 			m_changeImgBtn->SetImageSetPush( "BaseImage004", imgname.c_str(), guimgr );

  000e5	53		 push	 ebx
  000e6	8d 4d e4	 lea	 ecx, DWORD PTR _imgname$508326[ebp]
  000e9	ff 15 00 00 00
	00		 call	 DWORD PTR __imp_?c_str@ioHashString@@QBEPBDXZ
  000ef	8b 8e 88 01 00
	00		 mov	 ecx, DWORD PTR [esi+392]
  000f5	50		 push	 eax
  000f6	57		 push	 edi
  000f7	ff 15 00 00 00
	00		 call	 DWORD PTR __imp_?SetImageSetPush@ioImageButtonWndEX@@QAEXPBD0PAVioGUIManager@@@Z

; 77   : 		}

  000fd	83 4d fc ff	 or	 DWORD PTR __$EHRec$[ebp+8], -1
  00101	8d 4d e4	 lea	 ecx, DWORD PTR _imgname$508326[ebp]
  00104	ff 15 00 00 00
	00		 call	 DWORD PTR __imp_??1ioHashString@@QAE@XZ
$LN10@OnProcess:

; 78   : 
; 79   : 		bool show = m_backfrm->IsInWndRect( g_GUIMgr.GetLastMousePos() );

  0010a	e8 00 00 00 00	 call	 ?GetSingleton@ioSP2GUIManager@@SAAAV1@XZ ; ioSP2GUIManager::GetSingleton
  0010f	8b c8		 mov	 ecx, eax
  00111	ff 15 00 00 00
	00		 call	 DWORD PTR __imp_?GetLastMousePos@ioGUIManager@@QBEABUtagPOINT@@XZ
  00117	8b 8e 84 01 00
	00		 mov	 ecx, DWORD PTR [esi+388]
  0011d	50		 push	 eax
  0011e	ff 15 00 00 00
	00		 call	 DWORD PTR __imp_?IsInWndRect@ioWnd@@QAE_NABUtagPOINT@@@Z

; 80   : 
; 81   : 		if ( show )
; 82   : 		{
; 83   : 			ShowWnd();

  00124	8b ce		 mov	 ecx, esi
  00126	84 c0		 test	 al, al
  00128	0f 84 8c 00 00
	00		 je	 $LN4@OnProcess
  0012e	ff 15 00 00 00
	00		 call	 DWORD PTR __imp_?ShowWnd@ioWnd@@QAEXXZ

; 84   : 
; 85   : 			if ( m_turnLeftImgBtn && m_turnLeftImgBtn->IsClicked() ) {

  00134	8b 8e 8c 01 00
	00		 mov	 ecx, DWORD PTR [esi+396]
  0013a	85 c9		 test	 ecx, ecx
  0013c	74 38		 je	 SHORT $LN3@OnProcess
  0013e	ff 15 00 00 00
	00		 call	 DWORD PTR __imp_?IsClicked@ioWnd@@QBE_NXZ
  00144	84 c0		 test	 al, al
  00146	74 2e		 je	 SHORT $LN3@OnProcess

; 86   : 				OnTurnLeft( m_turnLeftImgBtn, ioWndEXMouseEvent() );

  00148	8d 4d e4	 lea	 ecx, DWORD PTR $T509474[ebp]
  0014b	ff 15 00 00 00
	00		 call	 DWORD PTR __imp_??0ioWndEXMouseEvent@@QAE@XZ
  00151	8b 16		 mov	 edx, DWORD PTR [esi]
  00153	50		 push	 eax
  00154	ff b6 8c 01 00
	00		 push	 DWORD PTR [esi+396]
  0015a	8b ce		 mov	 ecx, esi
  0015c	c7 45 fc 01 00
	00 00		 mov	 DWORD PTR __$EHRec$[ebp+8], 1
  00163	ff 92 3c 01 00
	00		 call	 DWORD PTR [edx+316]
  00169	83 4d fc ff	 or	 DWORD PTR __$EHRec$[ebp+8], -1
  0016d	8d 4d e4	 lea	 ecx, DWORD PTR $T509474[ebp]
  00170	ff 15 00 00 00
	00		 call	 DWORD PTR __imp_??1ioWndEXMouseEvent@@UAE@XZ
$LN3@OnProcess:

; 87   : 			}
; 88   : 			if ( m_turnRightImgBtn && m_turnRightImgBtn->IsClicked() ) {

  00176	8b 8e 90 01 00
	00		 mov	 ecx, DWORD PTR [esi+400]
  0017c	85 c9		 test	 ecx, ecx
  0017e	74 40		 je	 SHORT $LN1@OnProcess
  00180	ff 15 00 00 00
	00		 call	 DWORD PTR __imp_?IsClicked@ioWnd@@QBE_NXZ
  00186	84 c0		 test	 al, al
  00188	74 36		 je	 SHORT $LN1@OnProcess

; 89   : 				OnTurnRight( m_turnRightImgBtn, ioWndEXMouseEvent() );

  0018a	8d 4d d4	 lea	 ecx, DWORD PTR $T509475[ebp]
  0018d	ff 15 00 00 00
	00		 call	 DWORD PTR __imp_??0ioWndEXMouseEvent@@QAE@XZ
  00193	8b 16		 mov	 edx, DWORD PTR [esi]
  00195	50		 push	 eax
  00196	ff b6 90 01 00
	00		 push	 DWORD PTR [esi+400]
  0019c	8b ce		 mov	 ecx, esi
  0019e	c7 45 fc 02 00
	00 00		 mov	 DWORD PTR __$EHRec$[ebp+8], 2
  001a5	ff 92 40 01 00
	00		 call	 DWORD PTR [edx+320]
  001ab	83 4d fc ff	 or	 DWORD PTR __$EHRec$[ebp+8], -1
  001af	8d 4d d4	 lea	 ecx, DWORD PTR $T509475[ebp]
  001b2	ff 15 00 00 00
	00		 call	 DWORD PTR __imp_??1ioWndEXMouseEvent@@UAE@XZ

; 90   : 			}
; 91   : 		}
; 92   : 		else

  001b8	eb 06		 jmp	 SHORT $LN1@OnProcess
$LN4@OnProcess:

; 93   : 		{
; 94   : 			HideWnd();

  001ba	ff 15 00 00 00
	00		 call	 DWORD PTR __imp_?HideWnd@ioWnd@@QAEXXZ
$LN1@OnProcess:

; 95   : 		}	
; 96   : 	}
; 97   : }

  001c0	e8 00 00 00 00	 call	 __EH_epilog3
  001c5	c2 04 00	 ret	 4
_TEXT	ENDS
;	COMDAT text$x
text$x	SEGMENT
__unwindfunclet$?OnProcess@PaperMercenaryControlWnd@@UAEXM@Z$0:
  00000	8d 4d e4	 lea	 ecx, DWORD PTR _imgname$508326[ebp]
  00003	ff 25 00 00 00
	00		 jmp	 DWORD PTR __imp_??1ioHashString@@QAE@XZ
__unwindfunclet$?OnProcess@PaperMercenaryControlWnd@@UAEXM@Z$1:
  00009	8d 4d e4	 lea	 ecx, DWORD PTR $T509474[ebp]
  0000c	ff 25 00 00 00
	00		 jmp	 DWORD PTR __imp_??1ioWndEXMouseEvent@@UAE@XZ
__unwindfunclet$?OnProcess@PaperMercenaryControlWnd@@UAEXM@Z$2:
  00012	8d 4d d4	 lea	 ecx, DWORD PTR $T509475[ebp]
  00015	ff 25 00 00 00
	00		 jmp	 DWORD PTR __imp_??1ioWndEXMouseEvent@@UAE@XZ
__ehhandler$?OnProcess@PaperMercenaryControlWnd@@UAEXM@Z:
  0001b	8b 54 24 08	 mov	 edx, DWORD PTR [esp+8]
  0001f	8d 42 0c	 lea	 eax, DWORD PTR [edx+12]
  00022	8b 4a d0	 mov	 ecx, DWORD PTR [edx-48]
  00025	33 c8		 xor	 ecx, eax
  00027	e8 00 00 00 00	 call	 @__security_check_cookie@4
  0002c	b8 00 00 00 00	 mov	 eax, OFFSET __ehfuncinfo$?OnProcess@PaperMercenaryControlWnd@@UAEXM@Z
  00031	e9 00 00 00 00	 jmp	 ___CxxFrameHandler3
text$x	ENDS
?OnProcess@PaperMercenaryControlWnd@@UAEXM@Z ENDP	; PaperMercenaryControlWnd::OnProcess
PUBLIC	??_7?$ioWndEXMouseEventHandlerEX@VPaperMercenaryControlWndBase@@@@6B@ ; ioWndEXMouseEventHandlerEX<PaperMercenaryControlWndBase>::`vftable'
PUBLIC	??0?$ioWndEXMouseEventHandlerEX@VPaperMercenaryControlWndBase@@@@QAE@PAVPaperMercenaryControlWndBase@@P81@AEXPAVioWndEX@@AAVioWndEXMouseEvent@@@Z@Z ; ioWndEXMouseEventHandlerEX<PaperMercenaryControlWndBase>::ioWndEXMouseEventHandlerEX<PaperMercenaryControlWndBase>
PUBLIC	??_R4?$ioWndEXMouseEventHandlerEX@VPaperMercenaryControlWndBase@@@@6B@ ; ioWndEXMouseEventHandlerEX<PaperMercenaryControlWndBase>::`RTTI Complete Object Locator'
PUBLIC	??_R0?AV?$ioWndEXMouseEventHandlerEX@VPaperMercenaryControlWndBase@@@@@8 ; ioWndEXMouseEventHandlerEX<PaperMercenaryControlWndBase> `RTTI Type Descriptor'
PUBLIC	??_R3?$ioWndEXMouseEventHandlerEX@VPaperMercenaryControlWndBase@@@@8 ; ioWndEXMouseEventHandlerEX<PaperMercenaryControlWndBase>::`RTTI Class Hierarchy Descriptor'
PUBLIC	??_R2?$ioWndEXMouseEventHandlerEX@VPaperMercenaryControlWndBase@@@@8 ; ioWndEXMouseEventHandlerEX<PaperMercenaryControlWndBase>::`RTTI Base Class Array'
PUBLIC	??_R1A@?0A@EA@?$ioWndEXMouseEventHandlerEX@VPaperMercenaryControlWndBase@@@@8 ; ioWndEXMouseEventHandlerEX<PaperMercenaryControlWndBase>::`RTTI Base Class Descriptor at (0,-1,0,64)'
EXTRN	??_E?$ioWndEXMouseEventHandlerEX@VPaperMercenaryControlWndBase@@@@UAEPAXI@Z:PROC ; ioWndEXMouseEventHandlerEX<PaperMercenaryControlWndBase>::`vector deleting destructor'
;	COMDAT ??_R1A@?0A@EA@?$ioWndEXMouseEventHandlerEX@VPaperMercenaryControlWndBase@@@@8
; File d:\lost saga for developer\youtube\tutorial\source\src\lsclient\gui\iowndexeventhandlerex.h
rdata$r	SEGMENT
??_R1A@?0A@EA@?$ioWndEXMouseEventHandlerEX@VPaperMercenaryControlWndBase@@@@8 DD FLAT:??_R0?AV?$ioWndEXMouseEventHandlerEX@VPaperMercenaryControlWndBase@@@@@8 ; ioWndEXMouseEventHandlerEX<PaperMercenaryControlWndBase>::`RTTI Base Class Descriptor at (0,-1,0,64)'
	DD	02H
	DD	00H
	DD	0ffffffffH
	DD	00H
	DD	040H
	DD	FLAT:??_R3?$ioWndEXMouseEventHandlerEX@VPaperMercenaryControlWndBase@@@@8
rdata$r	ENDS
;	COMDAT ??_R2?$ioWndEXMouseEventHandlerEX@VPaperMercenaryControlWndBase@@@@8
rdata$r	SEGMENT
??_R2?$ioWndEXMouseEventHandlerEX@VPaperMercenaryControlWndBase@@@@8 DD FLAT:??_R1A@?0A@EA@?$ioWndEXMouseEventHandlerEX@VPaperMercenaryControlWndBase@@@@8 ; ioWndEXMouseEventHandlerEX<PaperMercenaryControlWndBase>::`RTTI Base Class Array'
	DD	FLAT:??_R1A@?0A@EA@?$ioWndEXEventHandlerEX@VPaperMercenaryControlWndBase@@VioWndEXMouseEvent@@@@8
	DD	FLAT:??_R1A@?0A@EA@ioWndEXEventHandlerBase@@8
rdata$r	ENDS
;	COMDAT ??_R3?$ioWndEXMouseEventHandlerEX@VPaperMercenaryControlWndBase@@@@8
rdata$r	SEGMENT
??_R3?$ioWndEXMouseEventHandlerEX@VPaperMercenaryControlWndBase@@@@8 DD 00H ; ioWndEXMouseEventHandlerEX<PaperMercenaryControlWndBase>::`RTTI Class Hierarchy Descriptor'
	DD	00H
	DD	03H
	DD	FLAT:??_R2?$ioWndEXMouseEventHandlerEX@VPaperMercenaryControlWndBase@@@@8
rdata$r	ENDS
;	COMDAT ??_R0?AV?$ioWndEXMouseEventHandlerEX@VPaperMercenaryControlWndBase@@@@@8
_DATA	SEGMENT
??_R0?AV?$ioWndEXMouseEventHandlerEX@VPaperMercenaryControlWndBase@@@@@8 DD FLAT:??_7type_info@@6B@ ; ioWndEXMouseEventHandlerEX<PaperMercenaryControlWndBase> `RTTI Type Descriptor'
	DD	00H
	DB	'.?AV?$ioWndEXMouseEventHandlerEX@VPaperMercenaryControlW'
	DB	'ndBase@@@@', 00H
_DATA	ENDS
;	COMDAT ??_R4?$ioWndEXMouseEventHandlerEX@VPaperMercenaryControlWndBase@@@@6B@
rdata$r	SEGMENT
??_R4?$ioWndEXMouseEventHandlerEX@VPaperMercenaryControlWndBase@@@@6B@ DD 00H ; ioWndEXMouseEventHandlerEX<PaperMercenaryControlWndBase>::`RTTI Complete Object Locator'
	DD	00H
	DD	00H
	DD	FLAT:??_R0?AV?$ioWndEXMouseEventHandlerEX@VPaperMercenaryControlWndBase@@@@@8
	DD	FLAT:??_R3?$ioWndEXMouseEventHandlerEX@VPaperMercenaryControlWndBase@@@@8
rdata$r	ENDS
;	COMDAT ??_7?$ioWndEXMouseEventHandlerEX@VPaperMercenaryControlWndBase@@@@6B@
CONST	SEGMENT
??_7?$ioWndEXMouseEventHandlerEX@VPaperMercenaryControlWndBase@@@@6B@ DD FLAT:??_R4?$ioWndEXMouseEventHandlerEX@VPaperMercenaryControlWndBase@@@@6B@ ; ioWndEXMouseEventHandlerEX<PaperMercenaryControlWndBase>::`vftable'
	DD	FLAT:??_E?$ioWndEXMouseEventHandlerEX@VPaperMercenaryControlWndBase@@@@UAEPAXI@Z
	DD	FLAT:?Call@?$ioWndEXEventHandlerEX@VPaperMercenaryControlWndBase@@VioWndEXMouseEvent@@@@UAEXPAVioWndEX@@AAVioWndEXEvent@@@Z
; Function compile flags: /Ogsp
CONST	ENDS
;	COMDAT ??0?$ioWndEXMouseEventHandlerEX@VPaperMercenaryControlWndBase@@@@QAE@PAVPaperMercenaryControlWndBase@@P81@AEXPAVioWndEX@@AAVioWndEXMouseEvent@@@Z@Z
_TEXT	SEGMENT
_owner$ = 8						; size = 4
_cb$ = 12						; size = 4
??0?$ioWndEXMouseEventHandlerEX@VPaperMercenaryControlWndBase@@@@QAE@PAVPaperMercenaryControlWndBase@@P81@AEXPAVioWndEX@@AAVioWndEXMouseEvent@@@Z@Z PROC ; ioWndEXMouseEventHandlerEX<PaperMercenaryControlWndBase>::ioWndEXMouseEventHandlerEX<PaperMercenaryControlWndBase>, COMDAT
; _this$ = ecx

; 60   : 	{}

  00000	55		 push	 ebp
  00001	8b ec		 mov	 ebp, esp
  00003	56		 push	 esi
  00004	ff 75 0c	 push	 DWORD PTR _cb$[ebp]
  00007	8b f1		 mov	 esi, ecx
  00009	ff 75 08	 push	 DWORD PTR _owner$[ebp]
  0000c	e8 00 00 00 00	 call	 ??0?$ioWndEXEventHandlerEX@VPaperMercenaryControlWndBase@@VioWndEXMouseEvent@@@@QAE@PAVPaperMercenaryControlWndBase@@P81@AEXPAVioWndEX@@AAVioWndEXMouseEvent@@@Z@Z ; ioWndEXEventHandlerEX<PaperMercenaryControlWndBase,ioWndEXMouseEvent>::ioWndEXEventHandlerEX<PaperMercenaryControlWndBase,ioWndEXMouseEvent>
  00011	c7 06 00 00 00
	00		 mov	 DWORD PTR [esi], OFFSET ??_7?$ioWndEXMouseEventHandlerEX@VPaperMercenaryControlWndBase@@@@6B@
  00017	8b c6		 mov	 eax, esi
  00019	5e		 pop	 esi
  0001a	5d		 pop	 ebp
  0001b	c2 08 00	 ret	 8
??0?$ioWndEXMouseEventHandlerEX@VPaperMercenaryControlWndBase@@@@QAE@PAVPaperMercenaryControlWndBase@@P81@AEXPAVioWndEX@@AAVioWndEXMouseEvent@@@Z@Z ENDP ; ioWndEXMouseEventHandlerEX<PaperMercenaryControlWndBase>::ioWndEXMouseEventHandlerEX<PaperMercenaryControlWndBase>
_TEXT	ENDS
PUBLIC	??1?$ioWndEXMouseEventHandlerEX@VPaperMercenaryControlWndBase@@@@UAE@XZ ; ioWndEXMouseEventHandlerEX<PaperMercenaryControlWndBase>::~ioWndEXMouseEventHandlerEX<PaperMercenaryControlWndBase>
; Function compile flags: /Ogsp
;	COMDAT ??1?$ioWndEXMouseEventHandlerEX@VPaperMercenaryControlWndBase@@@@UAE@XZ
_TEXT	SEGMENT
??1?$ioWndEXMouseEventHandlerEX@VPaperMercenaryControlWndBase@@@@UAE@XZ PROC ; ioWndEXMouseEventHandlerEX<PaperMercenaryControlWndBase>::~ioWndEXMouseEventHandlerEX<PaperMercenaryControlWndBase>, COMDAT
; _this$ = ecx

; 62   : 	virtual ~ioWndEXMouseEventHandlerEX() {}

  00000	c7 01 00 00 00
	00		 mov	 DWORD PTR [ecx], OFFSET ??_7?$ioWndEXEventHandlerEX@VPaperMercenaryControlWndBase@@VioWndEXMouseEvent@@@@6B@
  00006	ff 25 00 00 00
	00		 jmp	 DWORD PTR __imp_??1ioWndEXEventHandlerBase@@UAE@XZ
??1?$ioWndEXMouseEventHandlerEX@VPaperMercenaryControlWndBase@@@@UAE@XZ ENDP ; ioWndEXMouseEventHandlerEX<PaperMercenaryControlWndBase>::~ioWndEXMouseEventHandlerEX<PaperMercenaryControlWndBase>
; Function compile flags: /Ogsp
_TEXT	ENDS
;	COMDAT ??_G?$ioWndEXMouseEventHandlerEX@VPaperMercenaryControlWndBase@@@@UAEPAXI@Z
_TEXT	SEGMENT
___flags$ = 8						; size = 4
??_G?$ioWndEXMouseEventHandlerEX@VPaperMercenaryControlWndBase@@@@UAEPAXI@Z PROC ; ioWndEXMouseEventHandlerEX<PaperMercenaryControlWndBase>::`scalar deleting destructor', COMDAT
; _this$ = ecx
  00000	55		 push	 ebp
  00001	8b ec		 mov	 ebp, esp
  00003	56		 push	 esi
  00004	8b f1		 mov	 esi, ecx
  00006	c7 06 00 00 00
	00		 mov	 DWORD PTR [esi], OFFSET ??_7?$ioWndEXEventHandlerEX@VPaperMercenaryControlWndBase@@VioWndEXMouseEvent@@@@6B@
  0000c	ff 15 00 00 00
	00		 call	 DWORD PTR __imp_??1ioWndEXEventHandlerBase@@UAE@XZ
  00012	f6 45 08 01	 test	 BYTE PTR ___flags$[ebp], 1
  00016	74 07		 je	 SHORT $LN1@scalar@4
  00018	56		 push	 esi
  00019	e8 00 00 00 00	 call	 ??3@YAXPAX@Z		; operator delete
  0001e	59		 pop	 ecx
$LN1@scalar@4:
  0001f	8b c6		 mov	 eax, esi
  00021	5e		 pop	 esi
  00022	5d		 pop	 ebp
  00023	c2 04 00	 ret	 4
??_G?$ioWndEXMouseEventHandlerEX@VPaperMercenaryControlWndBase@@@@UAEPAXI@Z ENDP ; ioWndEXMouseEventHandlerEX<PaperMercenaryControlWndBase>::`scalar deleting destructor'
_TEXT	ENDS
EXTRN	__imp_?Connect@ioWndEX@@QAEXW4WNDEX_EVENT_TYPE@@PAVioWndEXEventHandlerBase@@@Z:PROC
EXTRN	??2@YAPAXI@Z:PROC				; operator new
EXTRN	__imp_?iwm_create@ioWndEX@@UAEXXZ:PROC
;	COMDAT xdata$x
xdata$x	SEGMENT
__unwindtable$?iwm_create@PaperMercenaryControlWndBase@@UAEXXZ DD 0ffffffffH
	DD	FLAT:__unwindfunclet$?iwm_create@PaperMercenaryControlWndBase@@UAEXXZ$0
	DD	0ffffffffH
	DD	FLAT:__unwindfunclet$?iwm_create@PaperMercenaryControlWndBase@@UAEXXZ$1
	DD	0ffffffffH
	DD	FLAT:__unwindfunclet$?iwm_create@PaperMercenaryControlWndBase@@UAEXXZ$2
__ehfuncinfo$?iwm_create@PaperMercenaryControlWndBase@@UAEXXZ DD 019930522H
	DD	03H
	DD	FLAT:__unwindtable$?iwm_create@PaperMercenaryControlWndBase@@UAEXXZ
	DD	2 DUP(00H)
	DD	2 DUP(00H)
	DD	00H
	DD	01H
; Function compile flags: /Ogsp
; File d:\lost saga for developer\youtube\tutorial\source\src\lsclient\gui\papermercenarycontrolwndbase.h
xdata$x	ENDS
;	COMDAT ?iwm_create@PaperMercenaryControlWndBase@@UAEXXZ
_TEXT	SEGMENT
$T509531 = -20						; size = 4
$T509527 = -20						; size = 4
$T509523 = -20						; size = 4
_child$508031 = -16					; size = 4
_child$508021 = -16					; size = 4
_child$507968 = -16					; size = 4
__$EHRec$ = -12						; size = 12
?iwm_create@PaperMercenaryControlWndBase@@UAEXXZ PROC	; PaperMercenaryControlWndBase::iwm_create, COMDAT
; _this$ = ecx

; 61   : 	{

  00000	6a 08		 push	 8
  00002	b8 00 00 00 00	 mov	 eax, __ehhandler$?iwm_create@PaperMercenaryControlWndBase@@UAEXXZ
  00007	e8 00 00 00 00	 call	 __EH_prolog3
  0000c	8b f1		 mov	 esi, ecx

; 62   : 		ioWndEX::iwm_create();

  0000e	ff 15 00 00 00
	00		 call	 DWORD PTR __imp_?iwm_create@ioWndEX@@UAEXXZ

; 63   : 
; 64   : 		m_backfrm = (ioFrameWndEX*)(FindChildWndEX(4));

  00014	8b 3d 00 00 00
	00		 mov	 edi, DWORD PTR __imp_?FindChildWndEX@ioWnd@@QAEPAV1@K_N@Z
  0001a	33 db		 xor	 ebx, ebx
  0001c	53		 push	 ebx
  0001d	6a 04		 push	 4
  0001f	8b ce		 mov	 ecx, esi
  00021	ff d7		 call	 edi

; 65   : 		m_changeImgBtn = (ioImageButtonWndEX*)(FindChildWndEX(5));

  00023	53		 push	 ebx
  00024	6a 05		 push	 5
  00026	8b ce		 mov	 ecx, esi
  00028	89 86 84 01 00
	00		 mov	 DWORD PTR [esi+388], eax
  0002e	ff d7		 call	 edi

; 66   : 		m_turnLeftImgBtn = (ioImageButtonWndEX*)(FindChildWndEX(6));

  00030	53		 push	 ebx
  00031	6a 06		 push	 6
  00033	8b ce		 mov	 ecx, esi
  00035	89 86 88 01 00
	00		 mov	 DWORD PTR [esi+392], eax
  0003b	ff d7		 call	 edi

; 67   : 		m_turnRightImgBtn = (ioImageButtonWndEX*)(FindChildWndEX(7));

  0003d	53		 push	 ebx
  0003e	6a 07		 push	 7
  00040	8b ce		 mov	 ecx, esi
  00042	89 86 8c 01 00
	00		 mov	 DWORD PTR [esi+396], eax
  00048	ff d7		 call	 edi

; 68   : 
; 69   : 
; 70   : 		{
; 71   : 				ioWndEX* child = (ioWndEX*)( FindChildWndEX(5) );

  0004a	53		 push	 ebx
  0004b	6a 05		 push	 5
  0004d	8b ce		 mov	 ecx, esi
  0004f	89 86 90 01 00
	00		 mov	 DWORD PTR [esi+400], eax
  00055	ff d7		 call	 edi
  00057	89 45 f0	 mov	 DWORD PTR _child$507968[ebp], eax

; 72   : 				if ( child ) {

  0005a	3b c3		 cmp	 eax, ebx
  0005c	74 44		 je	 SHORT $LN3@iwm_create

; 73   : 					child->Connect( static_cast<WNDEX_EVENT_TYPE>(7), new ioWndEXMouseEventHandlerEX< PaperMercenaryControlWndBase >( this, &PaperMercenaryControlWndBase::OnClickChange ) );

  0005e	6a 10		 push	 16			; 00000010H
  00060	e8 00 00 00 00	 call	 ??2@YAPAXI@Z		; operator new
  00065	8b d8		 mov	 ebx, eax
  00067	59		 pop	 ecx
  00068	89 5d ec	 mov	 DWORD PTR $T509523[ebp], ebx
  0006b	83 65 fc 00	 and	 DWORD PTR __$EHRec$[ebp+8], 0
  0006f	85 db		 test	 ebx, ebx
  00071	74 1b		 je	 SHORT $LN6@iwm_create
  00073	56		 push	 esi
  00074	8b cb		 mov	 ecx, ebx
  00076	ff 15 00 00 00
	00		 call	 DWORD PTR __imp_??0ioWndEXEventHandlerBase@@QAE@PAVioWndEX@@@Z
  0007c	89 73 08	 mov	 DWORD PTR [ebx+8], esi
  0007f	c7 43 0c 00 00
	00 00		 mov	 DWORD PTR [ebx+12], OFFSET ??_9PaperMercenaryControlWndBase@@$BBDI@AE ; PaperMercenaryControlWndBase::`vcall'{312}'
  00086	c7 03 00 00 00
	00		 mov	 DWORD PTR [ebx], OFFSET ??_7?$ioWndEXMouseEventHandlerEX@VPaperMercenaryControlWndBase@@@@6B@
  0008c	eb 02		 jmp	 SHORT $LN7@iwm_create
$LN6@iwm_create:
  0008e	33 db		 xor	 ebx, ebx
$LN7@iwm_create:
  00090	8b 4d f0	 mov	 ecx, DWORD PTR _child$507968[ebp]
  00093	83 4d fc ff	 or	 DWORD PTR __$EHRec$[ebp+8], -1
  00097	53		 push	 ebx
  00098	6a 07		 push	 7
  0009a	ff 15 00 00 00
	00		 call	 DWORD PTR __imp_?Connect@ioWndEX@@QAEXW4WNDEX_EVENT_TYPE@@PAVioWndEXEventHandlerBase@@@Z
  000a0	33 db		 xor	 ebx, ebx
$LN3@iwm_create:

; 74   : 				}
; 75   : 		}
; 76   : 		{
; 77   : 				ioWndEX* child = (ioWndEX*)( FindChildWndEX(6) );

  000a2	53		 push	 ebx
  000a3	6a 06		 push	 6
  000a5	8b ce		 mov	 ecx, esi
  000a7	ff d7		 call	 edi
  000a9	89 45 f0	 mov	 DWORD PTR _child$508021[ebp], eax

; 78   : 				if ( child ) {

  000ac	3b c3		 cmp	 eax, ebx
  000ae	74 47		 je	 SHORT $LN2@iwm_create

; 79   : 					child->Connect( static_cast<WNDEX_EVENT_TYPE>(6), new ioWndEXMouseEventHandlerEX< PaperMercenaryControlWndBase >( this, &PaperMercenaryControlWndBase::OnTurnLeft ) );

  000b0	6a 10		 push	 16			; 00000010H
  000b2	e8 00 00 00 00	 call	 ??2@YAPAXI@Z		; operator new
  000b7	8b d8		 mov	 ebx, eax
  000b9	59		 pop	 ecx
  000ba	89 5d ec	 mov	 DWORD PTR $T509527[ebp], ebx
  000bd	c7 45 fc 01 00
	00 00		 mov	 DWORD PTR __$EHRec$[ebp+8], 1
  000c4	85 db		 test	 ebx, ebx
  000c6	74 1b		 je	 SHORT $LN8@iwm_create
  000c8	56		 push	 esi
  000c9	8b cb		 mov	 ecx, ebx
  000cb	ff 15 00 00 00
	00		 call	 DWORD PTR __imp_??0ioWndEXEventHandlerBase@@QAE@PAVioWndEX@@@Z
  000d1	89 73 08	 mov	 DWORD PTR [ebx+8], esi
  000d4	c7 43 0c 00 00
	00 00		 mov	 DWORD PTR [ebx+12], OFFSET ??_9PaperMercenaryControlWndBase@@$BBDM@AE ; PaperMercenaryControlWndBase::`vcall'{316}'
  000db	c7 03 00 00 00
	00		 mov	 DWORD PTR [ebx], OFFSET ??_7?$ioWndEXMouseEventHandlerEX@VPaperMercenaryControlWndBase@@@@6B@
  000e1	eb 02		 jmp	 SHORT $LN9@iwm_create
$LN8@iwm_create:
  000e3	33 db		 xor	 ebx, ebx
$LN9@iwm_create:
  000e5	8b 4d f0	 mov	 ecx, DWORD PTR _child$508021[ebp]
  000e8	83 4d fc ff	 or	 DWORD PTR __$EHRec$[ebp+8], -1
  000ec	53		 push	 ebx
  000ed	6a 06		 push	 6
  000ef	ff 15 00 00 00
	00		 call	 DWORD PTR __imp_?Connect@ioWndEX@@QAEXW4WNDEX_EVENT_TYPE@@PAVioWndEXEventHandlerBase@@@Z
  000f5	33 db		 xor	 ebx, ebx
$LN2@iwm_create:

; 80   : 				}
; 81   : 		}
; 82   : 		{
; 83   : 				ioWndEX* child = (ioWndEX*)( FindChildWndEX(7) );

  000f7	53		 push	 ebx
  000f8	6a 07		 push	 7
  000fa	8b ce		 mov	 ecx, esi
  000fc	ff d7		 call	 edi
  000fe	89 45 f0	 mov	 DWORD PTR _child$508031[ebp], eax

; 84   : 				if ( child ) {

  00101	3b c3		 cmp	 eax, ebx
  00103	74 45		 je	 SHORT $LN1@iwm_create

; 85   : 					child->Connect( static_cast<WNDEX_EVENT_TYPE>(6), new ioWndEXMouseEventHandlerEX< PaperMercenaryControlWndBase >( this, &PaperMercenaryControlWndBase::OnTurnRight ) );

  00105	6a 10		 push	 16			; 00000010H
  00107	e8 00 00 00 00	 call	 ??2@YAPAXI@Z		; operator new
  0010c	8b f8		 mov	 edi, eax
  0010e	59		 pop	 ecx
  0010f	89 7d ec	 mov	 DWORD PTR $T509531[ebp], edi
  00112	c7 45 fc 02 00
	00 00		 mov	 DWORD PTR __$EHRec$[ebp+8], 2
  00119	3b fb		 cmp	 edi, ebx
  0011b	74 1b		 je	 SHORT $LN10@iwm_create
  0011d	56		 push	 esi
  0011e	8b cf		 mov	 ecx, edi
  00120	ff 15 00 00 00
	00		 call	 DWORD PTR __imp_??0ioWndEXEventHandlerBase@@QAE@PAVioWndEX@@@Z
  00126	89 77 08	 mov	 DWORD PTR [edi+8], esi
  00129	c7 47 0c 00 00
	00 00		 mov	 DWORD PTR [edi+12], OFFSET ??_9PaperMercenaryControlWndBase@@$BBEA@AE ; PaperMercenaryControlWndBase::`vcall'{320}'
  00130	c7 07 00 00 00
	00		 mov	 DWORD PTR [edi], OFFSET ??_7?$ioWndEXMouseEventHandlerEX@VPaperMercenaryControlWndBase@@@@6B@
  00136	eb 02		 jmp	 SHORT $LN11@iwm_create
$LN10@iwm_create:
  00138	33 ff		 xor	 edi, edi
$LN11@iwm_create:
  0013a	8b 4d f0	 mov	 ecx, DWORD PTR _child$508031[ebp]
  0013d	83 4d fc ff	 or	 DWORD PTR __$EHRec$[ebp+8], -1
  00141	57		 push	 edi
  00142	6a 06		 push	 6
  00144	ff 15 00 00 00
	00		 call	 DWORD PTR __imp_?Connect@ioWndEX@@QAEXW4WNDEX_EVENT_TYPE@@PAVioWndEXEventHandlerBase@@@Z
$LN1@iwm_create:

; 86   : 				}
; 87   : 		}
; 88   : 
; 89   : 	}

  0014a	e8 00 00 00 00	 call	 __EH_epilog3
  0014f	c3		 ret	 0
_TEXT	ENDS
;	COMDAT text$x
text$x	SEGMENT
__unwindfunclet$?iwm_create@PaperMercenaryControlWndBase@@UAEXXZ$0:
  00000	ff 75 ec	 push	 DWORD PTR $T509523[ebp]
  00003	e8 00 00 00 00	 call	 ??3@YAXPAX@Z		; operator delete
  00008	59		 pop	 ecx
  00009	c3		 ret	 0
__unwindfunclet$?iwm_create@PaperMercenaryControlWndBase@@UAEXXZ$1:
  0000a	ff 75 ec	 push	 DWORD PTR $T509527[ebp]
  0000d	e8 00 00 00 00	 call	 ??3@YAXPAX@Z		; operator delete
  00012	59		 pop	 ecx
  00013	c3		 ret	 0
__unwindfunclet$?iwm_create@PaperMercenaryControlWndBase@@UAEXXZ$2:
  00014	ff 75 ec	 push	 DWORD PTR $T509531[ebp]
  00017	e8 00 00 00 00	 call	 ??3@YAXPAX@Z		; operator delete
  0001c	59		 pop	 ecx
  0001d	c3		 ret	 0
__ehhandler$?iwm_create@PaperMercenaryControlWndBase@@UAEXXZ:
  0001e	8b 54 24 08	 mov	 edx, DWORD PTR [esp+8]
  00022	8d 42 0c	 lea	 eax, DWORD PTR [edx+12]
  00025	8b 4a e8	 mov	 ecx, DWORD PTR [edx-24]
  00028	33 c8		 xor	 ecx, eax
  0002a	e8 00 00 00 00	 call	 @__security_check_cookie@4
  0002f	b8 00 00 00 00	 mov	 eax, OFFSET __ehfuncinfo$?iwm_create@PaperMercenaryControlWndBase@@UAEXXZ
  00034	e9 00 00 00 00	 jmp	 ___CxxFrameHandler3
text$x	ENDS
?iwm_create@PaperMercenaryControlWndBase@@UAEXXZ ENDP	; PaperMercenaryControlWndBase::iwm_create
END
