; Listing generated by Microsoft (R) Optimizing Compiler Version 16.00.30319.01 

	TITLE	D:\Lost Saga For Developer\Youtube\Tutorial\Source\src\LSClient\GUI\PetEatWnd.cpp
	.686P
	.XMM
	include listing.inc
	.model	flat

INCLUDELIB MSVCRT
INCLUDELIB OLDNAMES

PUBLIC	??RMaterialItemSort@ItemMaterialCompoundWnd@@QBE_NABUtagAlchemicItemInfo@@0@Z ; ItemMaterialCompoundWnd::MaterialItemSort::operator()
; Function compile flags: /Ogsp
; File d:\lost saga for developer\youtube\tutorial\source\src\lsclient\gui\itemmaterialcompoundwnd.h
;	COMDAT ??RMaterialItemSort@ItemMaterialCompoundWnd@@QBE_NABUtagAlchemicItemInfo@@0@Z
_TEXT	SEGMENT
_lhs$ = 8						; size = 4
_rhs$ = 12						; size = 4
??RMaterialItemSort@ItemMaterialCompoundWnd@@QBE_NABUtagAlchemicItemInfo@@0@Z PROC ; ItemMaterialCompoundWnd::MaterialItemSort::operator(), COMDAT
; _this$ = ecx

; 48   : 		{

  00000	55		 push	 ebp
  00001	8b ec		 mov	 ebp, esp

; 49   : 			if( lhs.m_iCount > rhs.m_iCount )

  00003	8b 55 08	 mov	 edx, DWORD PTR _lhs$[ebp]
  00006	8b 42 04	 mov	 eax, DWORD PTR [edx+4]
  00009	56		 push	 esi
  0000a	8b 75 0c	 mov	 esi, DWORD PTR _rhs$[ebp]
  0000d	8b 4e 04	 mov	 ecx, DWORD PTR [esi+4]
  00010	3b c1		 cmp	 eax, ecx
  00012	7e 04		 jle	 SHORT $LN6@operator
$LN7@operator:

; 50   : 				return true;

  00014	b0 01		 mov	 al, 1
  00016	eb 0a		 jmp	 SHORT $LN4@operator
$LN6@operator:

; 51   : 
; 52   : 			if( lhs.m_iCount == rhs.m_iCount )

  00018	75 06		 jne	 SHORT $LN1@operator

; 53   : 			{
; 54   : 				if( lhs.m_iCode < rhs.m_iCode )

  0001a	8b 02		 mov	 eax, DWORD PTR [edx]
  0001c	3b 06		 cmp	 eax, DWORD PTR [esi]

; 55   : 					return true;	

  0001e	7c f4		 jl	 SHORT $LN7@operator
$LN1@operator:

; 56   : 			}
; 57   : 			return false;

  00020	32 c0		 xor	 al, al
$LN4@operator:
  00022	5e		 pop	 esi

; 58   : 		}

  00023	5d		 pop	 ebp
  00024	c2 08 00	 ret	 8
??RMaterialItemSort@ItemMaterialCompoundWnd@@QBE_NABUtagAlchemicItemInfo@@0@Z ENDP ; ItemMaterialCompoundWnd::MaterialItemSort::operator()
_TEXT	ENDS
PUBLIC	??_7PetEatWnd@@6B@				; PetEatWnd::`vftable'
PUBLIC	??1PetEatWnd@@UAE@XZ				; PetEatWnd::~PetEatWnd
PUBLIC	??_R4PetEatWnd@@6B@				; PetEatWnd::`RTTI Complete Object Locator'
PUBLIC	??_R0?AVPetEatWnd@@@8				; PetEatWnd `RTTI Type Descriptor'
PUBLIC	??_R3PetEatWnd@@8				; PetEatWnd::`RTTI Class Hierarchy Descriptor'
PUBLIC	??_R2PetEatWnd@@8				; PetEatWnd::`RTTI Base Class Array'
PUBLIC	??_R1A@?0A@EA@PetEatWnd@@8			; PetEatWnd::`RTTI Base Class Descriptor at (0,-1,0,64)'
PUBLIC	??_R1A@?0A@EA@ioWnd@@8				; ioWnd::`RTTI Base Class Descriptor at (0,-1,0,64)'
PUBLIC	??_R0?AVioWnd@@@8				; ioWnd `RTTI Type Descriptor'
PUBLIC	??_R3ioWnd@@8					; ioWnd::`RTTI Class Hierarchy Descriptor'
PUBLIC	??_R2ioWnd@@8					; ioWnd::`RTTI Base Class Array'
PUBLIC	?AddRenderImage@PetEatWnd@@UAEXABVioHashString@@PAVioUIRenderImage@@@Z ; PetEatWnd::AddRenderImage
PUBLIC	?ParseExtraInfo@PetEatWnd@@UAEXAAVioXMLElement@@@Z ; PetEatWnd::ParseExtraInfo
PUBLIC	?OnRender@PetEatWnd@@MAEXXZ			; PetEatWnd::OnRender
PUBLIC	?iwm_create@PetEatWnd@@UAEXXZ			; PetEatWnd::iwm_create
PUBLIC	?iwm_command@PetEatWnd@@UAEXPAVioWnd@@HK@Z	; PetEatWnd::iwm_command
PUBLIC	?iwm_show@PetEatWnd@@UAEXXZ			; PetEatWnd::iwm_show
PUBLIC	?iwm_hide@PetEatWnd@@UAEXXZ			; PetEatWnd::iwm_hide
EXTRN	__imp_??1ioWnd@@UAE@XZ:PROC
EXTRN	___CxxFrameHandler3:PROC
EXTRN	@__security_check_cookie@4:PROC
EXTRN	__EH_epilog3:PROC
EXTRN	__EH_prolog3:PROC
EXTRN	??_7type_info@@6B@:QWORD			; type_info::`vftable'
EXTRN	?AddRenderFrame@ioWnd@@UAEXABVioHashString@@PAVioUIRenderFrame@@@Z:PROC ; ioWnd::AddRenderFrame
EXTRN	?AddTooltipHelp@ioWnd@@UAEXABVioHashString@@00@Z:PROC ; ioWnd::AddTooltipHelp
EXTRN	?AddNamedRenderImage@ioWnd@@UAEXABVioHashString@@PAVioUIRenderImage@@@Z:PROC ; ioWnd::AddNamedRenderImage
EXTRN	?RemoveNamedRenderImage@ioWnd@@UAEXABVioHashString@@@Z:PROC ; ioWnd::RemoveNamedRenderImage
EXTRN	?GetNamedRenderImage@ioWnd@@UBEPAVioUIRenderImage@@ABVioHashString@@@Z:PROC ; ioWnd::GetNamedRenderImage
EXTRN	?SetWindowAlpha@ioWnd@@UAEXH@Z:PROC		; ioWnd::SetWindowAlpha
EXTRN	?SetActive@ioWnd@@UAEXXZ:PROC			; ioWnd::SetActive
EXTRN	?SetInActive@ioWnd@@UAEXXZ:PROC			; ioWnd::SetInActive
EXTRN	?ClearElementImageList@ioWnd@@UAEXXZ:PROC	; ioWnd::ClearElementImageList
EXTRN	?SetSize@ioWnd@@UAEXHH@Z:PROC			; ioWnd::SetSize
EXTRN	?SetPositionToDefault@ioWnd@@UAEXHH_N0@Z:PROC	; ioWnd::SetPositionToDefault
EXTRN	?IsNeedProcess@ioWnd@@UBE_NXZ:PROC		; ioWnd::IsNeedProcess
EXTRN	?IsCanMouseReaction@ioWnd@@UBE_NXZ:PROC		; ioWnd::IsCanMouseReaction
EXTRN	?AddChild@ioWnd@@UAEXPAV1@@Z:PROC		; ioWnd::AddChild
EXTRN	?DeleteChild@ioWnd@@UAEXK@Z:PROC		; ioWnd::DeleteChild
EXTRN	?DeleteAllChild@ioWnd@@UAEXXZ:PROC		; ioWnd::DeleteAllChild
EXTRN	?OnRenderShowAndHide@ioWnd@@MAE_NXZ:PROC	; ioWnd::OnRenderShowAndHide
EXTRN	?OnRenderShowAndHideByDefault@ioWnd@@MAE_NK@Z:PROC ; ioWnd::OnRenderShowAndHideByDefault
EXTRN	?OnRenderShowAndHideByTop@ioWnd@@MAE_NK@Z:PROC	; ioWnd::OnRenderShowAndHideByTop
EXTRN	?OnRenderShowAndHideByDown@ioWnd@@MAE_NK@Z:PROC	; ioWnd::OnRenderShowAndHideByDown
EXTRN	?OnRenderAfterChild@ioWnd@@MAEXXZ:PROC		; ioWnd::OnRenderAfterChild
EXTRN	?OnProcess@ioWnd@@MAEXM@Z:PROC			; ioWnd::OnProcess
EXTRN	?OnMouseProcess@ioWnd@@MAEXABVioMouse@@@Z:PROC	; ioWnd::OnMouseProcess
EXTRN	?CheckFrameReSize@ioWnd@@MAEXHHHH@Z:PROC	; ioWnd::CheckFrameReSize
EXTRN	?RenderImageList@ioWnd@@MAEXHHW4UIRenderType@@@Z:PROC ; ioWnd::RenderImageList
EXTRN	?iwm_destroy@ioWnd@@UAEXXZ:PROC			; ioWnd::iwm_destroy
EXTRN	?iwm_lbuttondown@ioWnd@@UAEXABVioMouse@@@Z:PROC	; ioWnd::iwm_lbuttondown
EXTRN	?iwm_lbuttonup@ioWnd@@UAEXABVioMouse@@@Z:PROC	; ioWnd::iwm_lbuttonup
EXTRN	?iwm_lbuttonDBLCLK@ioWnd@@UAEXABVioMouse@@@Z:PROC ; ioWnd::iwm_lbuttonDBLCLK
EXTRN	?iwm_rbuttondown@ioWnd@@UAEXABVioMouse@@@Z:PROC	; ioWnd::iwm_rbuttondown
EXTRN	?iwm_rbuttonup@ioWnd@@UAEXABVioMouse@@@Z:PROC	; ioWnd::iwm_rbuttonup
EXTRN	?iwm_mouseover@ioWnd@@UAEXABVioMouse@@@Z:PROC	; ioWnd::iwm_mouseover
EXTRN	?iwm_mousemove@ioWnd@@UAEXABVioMouse@@@Z:PROC	; ioWnd::iwm_mousemove
EXTRN	?iwm_mouseleave@ioWnd@@UAEXABVioMouse@@@Z:PROC	; ioWnd::iwm_mouseleave
EXTRN	?iwm_vscroll@ioWnd@@UAEXKH@Z:PROC		; ioWnd::iwm_vscroll
EXTRN	?iwm_wheel@ioWnd@@UAEXH@Z:PROC			; ioWnd::iwm_wheel
EXTRN	?iwm_esc@ioWnd@@UAE_NXZ:PROC			; ioWnd::iwm_esc
EXTRN	?iwm_spacebar@ioWnd@@UAE_NXZ:PROC		; ioWnd::iwm_spacebar
EXTRN	?iwm_gototop@ioWnd@@UAEXXZ:PROC			; ioWnd::iwm_gototop
EXTRN	?iwm_dragenter@ioWnd@@UAE?AW4IWDropEffect@@PAVioDragItem@@ABVioMouse@@@Z:PROC ; ioWnd::iwm_dragenter
EXTRN	?iwm_dragover@ioWnd@@UAE?AW4IWDropEffect@@PAVioDragItem@@ABVioMouse@@@Z:PROC ; ioWnd::iwm_dragover
EXTRN	?iwm_dragleave@ioWnd@@UAEXXZ:PROC		; ioWnd::iwm_dragleave
EXTRN	?iwm_dropitem@ioWnd@@UAE_NPAVioDragItem@@ABVioMouse@@PAV1@@Z:PROC ; ioWnd::iwm_dropitem
EXTRN	?iwm_dropdone@ioWnd@@UAEXPAVioDragItem@@PAV1@_N@Z:PROC ; ioWnd::iwm_dropdone
EXTRN	?IsEXType@ioWnd@@UBE_NXZ:PROC			; ioWnd::IsEXType
EXTRN	?GetWndType@ioWnd@@UBEKXZ:PROC			; ioWnd::GetWndType
EXTRN	?RenderWnd@ioWnd@@UAEXXZ:PROC			; ioWnd::RenderWnd
EXTRN	?SetIDEX@ioWnd@@UAEXAAK_N@Z:PROC		; ioWnd::SetIDEX
EXTRN	?ParseXML@ioWnd@@UAEXAAVioXMLElement@@@Z:PROC	; ioWnd::ParseXML
EXTRN	?GetHeaderFileName@ioWnd@@UAEPBDXZ:PROC		; ioWnd::GetHeaderFileName
EXTRN	?GetTemplateName@ioWnd@@UAEPBDXZ:PROC		; ioWnd::GetTemplateName
EXTRN	?GetDefClassName@ioWnd@@UBEPBDXZ:PROC		; ioWnd::GetDefClassName
EXTRN	?_Clone@ioWnd@@UAEPAV1@XZ:PROC			; ioWnd::_Clone
EXTRN	?Copy@ioWnd@@UAEXPAV1@@Z:PROC			; ioWnd::Copy
EXTRN	?Save@ioWnd@@UAE_NAAVioXMLElement@@@Z:PROC	; ioWnd::Save
EXTRN	?SetSaveData@ioWnd@@UAEXAAVioXMLElement@@@Z:PROC ; ioWnd::SetSaveData
EXTRN	?SetPosX@ioWnd@@UAEXH@Z:PROC			; ioWnd::SetPosX
EXTRN	?SetPosY@ioWnd@@UAEXH@Z:PROC			; ioWnd::SetPosY
EXTRN	?SetWidth@ioWnd@@UAEXH@Z:PROC			; ioWnd::SetWidth
EXTRN	?SetHeight@ioWnd@@UAEXH@Z:PROC			; ioWnd::SetHeight
EXTRN	?GetNumFixedRenderFrame@ioWnd@@UBEHXZ:PROC	; ioWnd::GetNumFixedRenderFrame
EXTRN	?GetFixedRenderFrameType@ioWnd@@UAEPBDH@Z:PROC	; ioWnd::GetFixedRenderFrameType
EXTRN	?GetRenderFrame@ioWnd@@UAEPAPAVioUIRenderElement@@PBD@Z:PROC ; ioWnd::GetRenderFrame
EXTRN	?GetNumFixedRenderImage@ioWnd@@UBEHXZ:PROC	; ioWnd::GetNumFixedRenderImage
EXTRN	?GetFixedRenderImageType@ioWnd@@UAEPBDH@Z:PROC	; ioWnd::GetFixedRenderImageType
EXTRN	?GetRenderImage@ioWnd@@UAEPAPAVioUIRenderElement@@PBD@Z:PROC ; ioWnd::GetRenderImage
EXTRN	?AddEffect@ioWnd@@UAEXABVioHashString@@PAVioUI3DEffectRender@@@Z:PROC ; ioWnd::AddEffect
EXTRN	?GetEffect@ioWnd@@UAEPAVioUI3DEffectRender@@VioHashString@@@Z:PROC ; ioWnd::GetEffect
EXTRN	??_EPetEatWnd@@UAEPAXI@Z:PROC			; PetEatWnd::`vector deleting destructor'
;	COMDAT ??_R2ioWnd@@8
; File d:\lost saga for developer\youtube\tutorial\source\src\lsclient\gui\peteatwnd.cpp
rdata$r	SEGMENT
??_R2ioWnd@@8 DD FLAT:??_R1A@?0A@EA@ioWnd@@8		; ioWnd::`RTTI Base Class Array'
rdata$r	ENDS
;	COMDAT ??_R3ioWnd@@8
rdata$r	SEGMENT
??_R3ioWnd@@8 DD 00H					; ioWnd::`RTTI Class Hierarchy Descriptor'
	DD	00H
	DD	01H
	DD	FLAT:??_R2ioWnd@@8
rdata$r	ENDS
;	COMDAT ??_R0?AVioWnd@@@8
_DATA	SEGMENT
??_R0?AVioWnd@@@8 DD FLAT:??_7type_info@@6B@		; ioWnd `RTTI Type Descriptor'
	DD	00H
	DB	'.?AVioWnd@@', 00H
_DATA	ENDS
;	COMDAT ??_R1A@?0A@EA@ioWnd@@8
rdata$r	SEGMENT
??_R1A@?0A@EA@ioWnd@@8 DD FLAT:??_R0?AVioWnd@@@8	; ioWnd::`RTTI Base Class Descriptor at (0,-1,0,64)'
	DD	00H
	DD	00H
	DD	0ffffffffH
	DD	00H
	DD	040H
	DD	FLAT:??_R3ioWnd@@8
rdata$r	ENDS
;	COMDAT ??_R1A@?0A@EA@PetEatWnd@@8
rdata$r	SEGMENT
??_R1A@?0A@EA@PetEatWnd@@8 DD FLAT:??_R0?AVPetEatWnd@@@8 ; PetEatWnd::`RTTI Base Class Descriptor at (0,-1,0,64)'
	DD	01H
	DD	00H
	DD	0ffffffffH
	DD	00H
	DD	040H
	DD	FLAT:??_R3PetEatWnd@@8
rdata$r	ENDS
;	COMDAT ??_R2PetEatWnd@@8
rdata$r	SEGMENT
??_R2PetEatWnd@@8 DD FLAT:??_R1A@?0A@EA@PetEatWnd@@8	; PetEatWnd::`RTTI Base Class Array'
	DD	FLAT:??_R1A@?0A@EA@ioWnd@@8
rdata$r	ENDS
;	COMDAT ??_R3PetEatWnd@@8
rdata$r	SEGMENT
??_R3PetEatWnd@@8 DD 00H				; PetEatWnd::`RTTI Class Hierarchy Descriptor'
	DD	00H
	DD	02H
	DD	FLAT:??_R2PetEatWnd@@8
rdata$r	ENDS
;	COMDAT ??_R0?AVPetEatWnd@@@8
_DATA	SEGMENT
??_R0?AVPetEatWnd@@@8 DD FLAT:??_7type_info@@6B@	; PetEatWnd `RTTI Type Descriptor'
	DD	00H
	DB	'.?AVPetEatWnd@@', 00H
_DATA	ENDS
;	COMDAT ??_R4PetEatWnd@@6B@
rdata$r	SEGMENT
??_R4PetEatWnd@@6B@ DD 00H				; PetEatWnd::`RTTI Complete Object Locator'
	DD	00H
	DD	00H
	DD	FLAT:??_R0?AVPetEatWnd@@@8
	DD	FLAT:??_R3PetEatWnd@@8
rdata$r	ENDS
;	COMDAT ??_7PetEatWnd@@6B@
CONST	SEGMENT
??_7PetEatWnd@@6B@ DD FLAT:??_R4PetEatWnd@@6B@		; PetEatWnd::`vftable'
	DD	FLAT:?AddRenderFrame@ioWnd@@UAEXABVioHashString@@PAVioUIRenderFrame@@@Z
	DD	FLAT:?AddRenderImage@PetEatWnd@@UAEXABVioHashString@@PAVioUIRenderImage@@@Z
	DD	FLAT:?AddTooltipHelp@ioWnd@@UAEXABVioHashString@@00@Z
	DD	FLAT:?ParseExtraInfo@PetEatWnd@@UAEXAAVioXMLElement@@@Z
	DD	FLAT:?AddNamedRenderImage@ioWnd@@UAEXABVioHashString@@PAVioUIRenderImage@@@Z
	DD	FLAT:?RemoveNamedRenderImage@ioWnd@@UAEXABVioHashString@@@Z
	DD	FLAT:?GetNamedRenderImage@ioWnd@@UBEPAVioUIRenderImage@@ABVioHashString@@@Z
	DD	FLAT:?SetWindowAlpha@ioWnd@@UAEXH@Z
	DD	FLAT:?SetActive@ioWnd@@UAEXXZ
	DD	FLAT:?SetInActive@ioWnd@@UAEXXZ
	DD	FLAT:?ClearElementImageList@ioWnd@@UAEXXZ
	DD	FLAT:?SetSize@ioWnd@@UAEXHH@Z
	DD	FLAT:?SetPositionToDefault@ioWnd@@UAEXHH_N0@Z
	DD	FLAT:?IsNeedProcess@ioWnd@@UBE_NXZ
	DD	FLAT:?IsCanMouseReaction@ioWnd@@UBE_NXZ
	DD	FLAT:?AddChild@ioWnd@@UAEXPAV1@@Z
	DD	FLAT:?DeleteChild@ioWnd@@UAEXK@Z
	DD	FLAT:?DeleteAllChild@ioWnd@@UAEXXZ
	DD	FLAT:?OnRenderShowAndHide@ioWnd@@MAE_NXZ
	DD	FLAT:?OnRenderShowAndHideByDefault@ioWnd@@MAE_NK@Z
	DD	FLAT:?OnRenderShowAndHideByTop@ioWnd@@MAE_NK@Z
	DD	FLAT:?OnRenderShowAndHideByDown@ioWnd@@MAE_NK@Z
	DD	FLAT:?OnRender@PetEatWnd@@MAEXXZ
	DD	FLAT:?OnRenderAfterChild@ioWnd@@MAEXXZ
	DD	FLAT:?OnProcess@ioWnd@@MAEXM@Z
	DD	FLAT:?OnMouseProcess@ioWnd@@MAEXABVioMouse@@@Z
	DD	FLAT:?CheckFrameReSize@ioWnd@@MAEXHHHH@Z
	DD	FLAT:?RenderImageList@ioWnd@@MAEXHHW4UIRenderType@@@Z
	DD	FLAT:?iwm_create@PetEatWnd@@UAEXXZ
	DD	FLAT:?iwm_destroy@ioWnd@@UAEXXZ
	DD	FLAT:?iwm_lbuttondown@ioWnd@@UAEXABVioMouse@@@Z
	DD	FLAT:?iwm_lbuttonup@ioWnd@@UAEXABVioMouse@@@Z
	DD	FLAT:?iwm_lbuttonDBLCLK@ioWnd@@UAEXABVioMouse@@@Z
	DD	FLAT:?iwm_rbuttondown@ioWnd@@UAEXABVioMouse@@@Z
	DD	FLAT:?iwm_rbuttonup@ioWnd@@UAEXABVioMouse@@@Z
	DD	FLAT:?iwm_command@PetEatWnd@@UAEXPAVioWnd@@HK@Z
	DD	FLAT:?iwm_mouseover@ioWnd@@UAEXABVioMouse@@@Z
	DD	FLAT:?iwm_mousemove@ioWnd@@UAEXABVioMouse@@@Z
	DD	FLAT:?iwm_mouseleave@ioWnd@@UAEXABVioMouse@@@Z
	DD	FLAT:?iwm_vscroll@ioWnd@@UAEXKH@Z
	DD	FLAT:?iwm_wheel@ioWnd@@UAEXH@Z
	DD	FLAT:?iwm_show@PetEatWnd@@UAEXXZ
	DD	FLAT:?iwm_hide@PetEatWnd@@UAEXXZ
	DD	FLAT:?iwm_esc@ioWnd@@UAE_NXZ
	DD	FLAT:?iwm_spacebar@ioWnd@@UAE_NXZ
	DD	FLAT:?iwm_gototop@ioWnd@@UAEXXZ
	DD	FLAT:?iwm_dragenter@ioWnd@@UAE?AW4IWDropEffect@@PAVioDragItem@@ABVioMouse@@@Z
	DD	FLAT:?iwm_dragover@ioWnd@@UAE?AW4IWDropEffect@@PAVioDragItem@@ABVioMouse@@@Z
	DD	FLAT:?iwm_dragleave@ioWnd@@UAEXXZ
	DD	FLAT:?iwm_dropitem@ioWnd@@UAE_NPAVioDragItem@@ABVioMouse@@PAV1@@Z
	DD	FLAT:?iwm_dropdone@ioWnd@@UAEXPAVioDragItem@@PAV1@_N@Z
	DD	FLAT:?IsEXType@ioWnd@@UBE_NXZ
	DD	FLAT:?GetWndType@ioWnd@@UBEKXZ
	DD	FLAT:?RenderWnd@ioWnd@@UAEXXZ
	DD	FLAT:?SetIDEX@ioWnd@@UAEXAAK_N@Z
	DD	FLAT:?ParseXML@ioWnd@@UAEXAAVioXMLElement@@@Z
	DD	FLAT:?GetHeaderFileName@ioWnd@@UAEPBDXZ
	DD	FLAT:?GetTemplateName@ioWnd@@UAEPBDXZ
	DD	FLAT:?GetDefClassName@ioWnd@@UBEPBDXZ
	DD	FLAT:?_Clone@ioWnd@@UAEPAV1@XZ
	DD	FLAT:?Copy@ioWnd@@UAEXPAV1@@Z
	DD	FLAT:?Save@ioWnd@@UAE_NAAVioXMLElement@@@Z
	DD	FLAT:?SetSaveData@ioWnd@@UAEXAAVioXMLElement@@@Z
	DD	FLAT:?SetPosX@ioWnd@@UAEXH@Z
	DD	FLAT:?SetPosY@ioWnd@@UAEXH@Z
	DD	FLAT:?SetWidth@ioWnd@@UAEXH@Z
	DD	FLAT:?SetHeight@ioWnd@@UAEXH@Z
	DD	FLAT:?GetNumFixedRenderFrame@ioWnd@@UBEHXZ
	DD	FLAT:?GetFixedRenderFrameType@ioWnd@@UAEPBDH@Z
	DD	FLAT:?GetRenderFrame@ioWnd@@UAEPAPAVioUIRenderElement@@PBD@Z
	DD	FLAT:?GetNumFixedRenderImage@ioWnd@@UBEHXZ
	DD	FLAT:?GetFixedRenderImageType@ioWnd@@UAEPBDH@Z
	DD	FLAT:?GetRenderImage@ioWnd@@UAEPAPAVioUIRenderElement@@PBD@Z
	DD	FLAT:?AddEffect@ioWnd@@UAEXABVioHashString@@PAVioUI3DEffectRender@@@Z
	DD	FLAT:?GetEffect@ioWnd@@UAEPAVioUI3DEffectRender@@VioHashString@@@Z
	DD	FLAT:??_EPetEatWnd@@UAEPAXI@Z
CONST	ENDS
;	COMDAT xdata$x
xdata$x	SEGMENT
__unwindtable$??1PetEatWnd@@UAE@XZ DD 0ffffffffH
	DD	FLAT:__unwindfunclet$??1PetEatWnd@@UAE@XZ$0
__ehfuncinfo$??1PetEatWnd@@UAE@XZ DD 019930522H
	DD	01H
	DD	FLAT:__unwindtable$??1PetEatWnd@@UAE@XZ
	DD	2 DUP(00H)
	DD	2 DUP(00H)
	DD	00H
	DD	01H
; Function compile flags: /Ogsp
xdata$x	ENDS
;	COMDAT ??1PetEatWnd@@UAE@XZ
_TEXT	SEGMENT
_this$ = -16						; size = 4
__$EHRec$ = -12						; size = 12
??1PetEatWnd@@UAE@XZ PROC				; PetEatWnd::~PetEatWnd, COMDAT
; _this$ = ecx

; 23   : {

  00000	6a 04		 push	 4
  00002	b8 00 00 00 00	 mov	 eax, __ehhandler$??1PetEatWnd@@UAE@XZ
  00007	e8 00 00 00 00	 call	 __EH_prolog3
  0000c	8b f9		 mov	 edi, ecx
  0000e	89 7d f0	 mov	 DWORD PTR _this$[ebp], edi
  00011	c7 07 00 00 00
	00		 mov	 DWORD PTR [edi], OFFSET ??_7PetEatWnd@@6B@

; 24   : 	SAFEDELETE( m_pManualMark );

  00017	8b 8f 60 01 00
	00		 mov	 ecx, DWORD PTR [edi+352]
  0001d	83 65 fc 00	 and	 DWORD PTR __$EHRec$[ebp+8], 0
  00021	85 c9		 test	 ecx, ecx
  00023	74 0e		 je	 SHORT $LN1@PetEatWnd
  00025	8b 01		 mov	 eax, DWORD PTR [ecx]
  00027	6a 01		 push	 1
  00029	ff 50 40	 call	 DWORD PTR [eax+64]
  0002c	83 a7 60 01 00
	00 00		 and	 DWORD PTR [edi+352], 0
$LN1@PetEatWnd:

; 25   : }

  00033	83 4d fc ff	 or	 DWORD PTR __$EHRec$[ebp+8], -1
  00037	8b cf		 mov	 ecx, edi
  00039	ff 15 00 00 00
	00		 call	 DWORD PTR __imp_??1ioWnd@@UAE@XZ
  0003f	e8 00 00 00 00	 call	 __EH_epilog3
  00044	c3		 ret	 0
_TEXT	ENDS
;	COMDAT text$x
text$x	SEGMENT
__unwindfunclet$??1PetEatWnd@@UAE@XZ$0:
  00000	8b 4d f0	 mov	 ecx, DWORD PTR _this$[ebp]
  00003	ff 25 00 00 00
	00		 jmp	 DWORD PTR __imp_??1ioWnd@@UAE@XZ
__ehhandler$??1PetEatWnd@@UAE@XZ:
  00009	8b 54 24 08	 mov	 edx, DWORD PTR [esp+8]
  0000d	8d 42 0c	 lea	 eax, DWORD PTR [edx+12]
  00010	8b 4a ec	 mov	 ecx, DWORD PTR [edx-20]
  00013	33 c8		 xor	 ecx, eax
  00015	e8 00 00 00 00	 call	 @__security_check_cookie@4
  0001a	b8 00 00 00 00	 mov	 eax, OFFSET __ehfuncinfo$??1PetEatWnd@@UAE@XZ
  0001f	e9 00 00 00 00	 jmp	 ___CxxFrameHandler3
text$x	ENDS
??1PetEatWnd@@UAE@XZ ENDP				; PetEatWnd::~PetEatWnd
; Function compile flags: /Ogsp
;	COMDAT ?iwm_create@PetEatWnd@@UAEXXZ
_TEXT	SEGMENT
?iwm_create@PetEatWnd@@UAEXXZ PROC			; PetEatWnd::iwm_create, COMDAT
; _this$ = ecx

; 29   : }

  00000	c3		 ret	 0
?iwm_create@PetEatWnd@@UAEXXZ ENDP			; PetEatWnd::iwm_create
_TEXT	ENDS
PUBLIC	__real@3f19999a
PUBLIC	??_C@_0BE@MBMKFDGK@PetEatWnd?3?3OnRender?$AA@	; `string'
PUBLIC	??_C@_00CNPNBAHC@?$AA@				; `string'
EXTRN	??1ioComplexStringPrinter@@QAE@XZ:PROC		; ioComplexStringPrinter::~ioComplexStringPrinter
EXTRN	?ClearList@ioComplexStringPrinter@@QAEXXZ:PROC	; ioComplexStringPrinter::ClearList
EXTRN	?PrintFullText@ioComplexStringPrinter@@QAEXMMW4TextAlignType@@E@Z:PROC ; ioComplexStringPrinter::PrintFullText
EXTRN	?AddTextPiece@ioComplexStringPrinter@@QAAXMPBDZZ:PROC ; ioComplexStringPrinter::AddTextPiece
EXTRN	__imp_?GetString@ioStringManager@@QAEPADPBD0HW4FileNamePrefix@1@@Z:PROC
EXTRN	__imp_?GetSingleton@ioStringManager@@SAAAV1@XZ:PROC
EXTRN	?SetTextColor@ioComplexStringPrinter@@QAEXK@Z:PROC ; ioComplexStringPrinter::SetTextColor
EXTRN	?SetBkColor@ioComplexStringPrinter@@QAEXHHH@Z:PROC ; ioComplexStringPrinter::SetBkColor
EXTRN	?SetTextStyle@ioComplexStringPrinter@@QAEXW4TextStyle@@@Z:PROC ; ioComplexStringPrinter::SetTextStyle
EXTRN	??0ioComplexStringPrinter@@QAE@XZ:PROC		; ioComplexStringPrinter::ioComplexStringPrinter
EXTRN	__imp_?GetDerivedPosY@ioWnd@@QBEHXZ:PROC
EXTRN	__imp_?GetDerivedPosX@ioWnd@@QBEHXZ:PROC
EXTRN	__imp_?OnRender@ioWnd@@MAEXXZ:PROC
EXTRN	__fltused:DWORD
;	COMDAT __real@3f19999a
CONST	SEGMENT
__real@3f19999a DD 03f19999ar			; 0.6
CONST	ENDS
;	COMDAT ??_C@_0BE@MBMKFDGK@PetEatWnd?3?3OnRender?$AA@
CONST	SEGMENT
??_C@_0BE@MBMKFDGK@PetEatWnd?3?3OnRender?$AA@ DB 'PetEatWnd::OnRender', 00H ; `string'
CONST	ENDS
;	COMDAT ??_C@_00CNPNBAHC@?$AA@
CONST	SEGMENT
??_C@_00CNPNBAHC@?$AA@ DB 00H				; `string'
CONST	ENDS
;	COMDAT xdata$x
xdata$x	SEGMENT
__unwindtable$?OnRender@PetEatWnd@@MAEXXZ DD 0ffffffffH
	DD	FLAT:__unwindfunclet$?OnRender@PetEatWnd@@MAEXXZ$0
__ehfuncinfo$?OnRender@PetEatWnd@@MAEXXZ DD 019930522H
	DD	01H
	DD	FLAT:__unwindtable$?OnRender@PetEatWnd@@MAEXXZ
	DD	2 DUP(00H)
	DD	2 DUP(00H)
	DD	00H
	DD	01H
; Function compile flags: /Ogsp
xdata$x	ENDS
;	COMDAT ?OnRender@PetEatWnd@@MAEXXZ
_TEXT	SEGMENT
_kPrinter$ = -48					; size = 32
_nYPos$ = -16						; size = 4
__$EHRec$ = -12						; size = 12
?OnRender@PetEatWnd@@MAEXXZ PROC			; PetEatWnd::OnRender, COMDAT
; _this$ = ecx

; 142  : {

  00000	6a 24		 push	 36			; 00000024H
  00002	b8 00 00 00 00	 mov	 eax, __ehhandler$?OnRender@PetEatWnd@@MAEXXZ
  00007	e8 00 00 00 00	 call	 __EH_prolog3
  0000c	8b f1		 mov	 esi, ecx

; 143  : 	ioWnd::OnRender();

  0000e	ff 15 00 00 00
	00		 call	 DWORD PTR __imp_?OnRender@ioWnd@@MAEXXZ

; 144  : 
; 145  : 	if ( !m_bEmpty || !m_pManualMark )

  00014	33 db		 xor	 ebx, ebx
  00016	38 9e 79 01 00
	00		 cmp	 BYTE PTR [esi+377], bl
  0001c	0f 84 08 01 00
	00		 je	 $LN1@OnRender
  00022	39 9e 60 01 00
	00		 cmp	 DWORD PTR [esi+352], ebx
  00028	0f 84 fc 00 00
	00		 je	 $LN1@OnRender

; 146  : 		return;
; 147  : 	
; 148  : 	enum
; 149  : 	{
; 150  : 		MANUAL_X = 129,
; 151  : 		MANUAL_Y = 429,
; 152  : 
; 153  : 		MARK_X = 183,
; 154  : 		MARK_Y = 428,
; 155  : 	};
; 156  : 
; 157  : 	int nXPos = GetDerivedPosX();

  0002e	8b ce		 mov	 ecx, esi
  00030	ff 15 00 00 00
	00		 call	 DWORD PTR __imp_?GetDerivedPosX@ioWnd@@QBEHXZ

; 158  : 	int nYPos = GetDerivedPosY();

  00036	8b ce		 mov	 ecx, esi
  00038	8b f8		 mov	 edi, eax
  0003a	ff 15 00 00 00
	00		 call	 DWORD PTR __imp_?GetDerivedPosY@ioWnd@@QBEHXZ

; 159  : 
; 160  : 	ioComplexStringPrinter kPrinter;

  00040	8d 4d d0	 lea	 ecx, DWORD PTR _kPrinter$[ebp]
  00043	89 45 f0	 mov	 DWORD PTR _nYPos$[ebp], eax
  00046	e8 00 00 00 00	 call	 ??0ioComplexStringPrinter@@QAE@XZ ; ioComplexStringPrinter::ioComplexStringPrinter

; 161  : 	kPrinter.SetTextStyle( TS_NORMAL );

  0004b	53		 push	 ebx
  0004c	8d 4d d0	 lea	 ecx, DWORD PTR _kPrinter$[ebp]
  0004f	89 5d fc	 mov	 DWORD PTR __$EHRec$[ebp+8], ebx
  00052	e8 00 00 00 00	 call	 ?SetTextStyle@ioComplexStringPrinter@@QAEXW4TextStyle@@@Z ; ioComplexStringPrinter::SetTextStyle

; 162  : 	kPrinter.SetBkColor( 0, 0, 0 );

  00057	53		 push	 ebx
  00058	53		 push	 ebx
  00059	53		 push	 ebx
  0005a	8d 4d d0	 lea	 ecx, DWORD PTR _kPrinter$[ebp]
  0005d	e8 00 00 00 00	 call	 ?SetBkColor@ioComplexStringPrinter@@QAEXHHH@Z ; ioComplexStringPrinter::SetBkColor

; 163  : 	kPrinter.SetTextColor( TCT_DEFAULT_RED );

  00062	68 00 16 b9 ff	 push	 -4647424		; ffb91600H
  00067	8d 4d d0	 lea	 ecx, DWORD PTR _kPrinter$[ebp]
  0006a	e8 00 00 00 00	 call	 ?SetTextColor@ioComplexStringPrinter@@QAEXK@Z ; ioComplexStringPrinter::SetTextColor

; 164  : 	kPrinter.AddTextPiece( FONT_SIZE_12, STR(1) );	

  0006f	53		 push	 ebx
  00070	6a 01		 push	 1
  00072	68 00 00 00 00	 push	 OFFSET ??_C@_00CNPNBAHC@?$AA@
  00077	68 00 00 00 00	 push	 OFFSET ??_C@_0BE@MBMKFDGK@PetEatWnd?3?3OnRender?$AA@
  0007c	ff 15 00 00 00
	00		 call	 DWORD PTR __imp_?GetSingleton@ioStringManager@@SAAAV1@XZ
  00082	8b c8		 mov	 ecx, eax
  00084	ff 15 00 00 00
	00		 call	 DWORD PTR __imp_?GetString@ioStringManager@@QAEPADPBD0HW4FileNamePrefix@1@@Z
  0008a	f3 0f 10 05 00
	00 00 00	 movss	 xmm0, DWORD PTR __real@3f19999a
  00092	50		 push	 eax
  00093	51		 push	 ecx
  00094	8d 45 d0	 lea	 eax, DWORD PTR _kPrinter$[ebp]
  00097	f3 0f 11 04 24	 movss	 DWORD PTR [esp], xmm0
  0009c	50		 push	 eax
  0009d	e8 00 00 00 00	 call	 ?AddTextPiece@ioComplexStringPrinter@@QAAXMPBDZZ ; ioComplexStringPrinter::AddTextPiece

; 165  : 	kPrinter.PrintFullText( nXPos + MANUAL_X, nYPos + MANUAL_Y, TAT_CENTER );

  000a2	8b 45 f0	 mov	 eax, DWORD PTR _nYPos$[ebp]
  000a5	83 c4 0c	 add	 esp, 12			; 0000000cH
  000a8	68 ff 00 00 00	 push	 255			; 000000ffH
  000ad	6a 01		 push	 1
  000af	51		 push	 ecx
  000b0	05 ad 01 00 00	 add	 eax, 429		; 000001adH
  000b5	0f 57 c0	 xorps	 xmm0, xmm0
  000b8	f3 0f 2a c0	 cvtsi2ss xmm0, eax
  000bc	51		 push	 ecx
  000bd	f3 0f 11 44 24
	04		 movss	 DWORD PTR [esp+4], xmm0
  000c3	8d 87 81 00 00
	00		 lea	 eax, DWORD PTR [edi+129]
  000c9	0f 57 c0	 xorps	 xmm0, xmm0
  000cc	f3 0f 2a c0	 cvtsi2ss xmm0, eax
  000d0	8d 4d d0	 lea	 ecx, DWORD PTR _kPrinter$[ebp]
  000d3	f3 0f 11 04 24	 movss	 DWORD PTR [esp], xmm0
  000d8	e8 00 00 00 00	 call	 ?PrintFullText@ioComplexStringPrinter@@QAEXMMW4TextAlignType@@E@Z ; ioComplexStringPrinter::PrintFullText

; 166  : 	kPrinter.ClearList();	

  000dd	8d 4d d0	 lea	 ecx, DWORD PTR _kPrinter$[ebp]
  000e0	e8 00 00 00 00	 call	 ?ClearList@ioComplexStringPrinter@@QAEXXZ ; ioComplexStringPrinter::ClearList

; 167  : 
; 168  : 	m_pManualMark->Render( nXPos + MARK_X, nYPos + MARK_Y, UI_RENDER_NORMAL_ADD_COLOR );

  000e5	8b 8e 60 01 00
	00		 mov	 ecx, DWORD PTR [esi+352]
  000eb	8b 55 f0	 mov	 edx, DWORD PTR _nYPos$[ebp]
  000ee	8b 01		 mov	 eax, DWORD PTR [ecx]
  000f0	53		 push	 ebx
  000f1	53		 push	 ebx
  000f2	53		 push	 ebx
  000f3	6a 04		 push	 4
  000f5	0f 57 c0	 xorps	 xmm0, xmm0
  000f8	51		 push	 ecx
  000f9	81 c2 ac 01 00
	00		 add	 edx, 428		; 000001acH
  000ff	f3 0f 2a c2	 cvtsi2ss xmm0, edx
  00103	51		 push	 ecx
  00104	f3 0f 11 44 24
	04		 movss	 DWORD PTR [esp+4], xmm0
  0010a	81 c7 b7 00 00
	00		 add	 edi, 183		; 000000b7H
  00110	0f 57 c0	 xorps	 xmm0, xmm0
  00113	f3 0f 2a c7	 cvtsi2ss xmm0, edi
  00117	f3 0f 11 04 24	 movss	 DWORD PTR [esp], xmm0
  0011c	ff 10		 call	 DWORD PTR [eax]

; 169  : }

  0011e	83 4d fc ff	 or	 DWORD PTR __$EHRec$[ebp+8], -1
  00122	8d 4d d0	 lea	 ecx, DWORD PTR _kPrinter$[ebp]
  00125	e8 00 00 00 00	 call	 ??1ioComplexStringPrinter@@QAE@XZ ; ioComplexStringPrinter::~ioComplexStringPrinter
$LN1@OnRender:
  0012a	e8 00 00 00 00	 call	 __EH_epilog3
  0012f	c3		 ret	 0
_TEXT	ENDS
;	COMDAT text$x
text$x	SEGMENT
__unwindfunclet$?OnRender@PetEatWnd@@MAEXXZ$0:
  00000	8d 4d d0	 lea	 ecx, DWORD PTR _kPrinter$[ebp]
  00003	e9 00 00 00 00	 jmp	 ??1ioComplexStringPrinter@@QAE@XZ ; ioComplexStringPrinter::~ioComplexStringPrinter
__ehhandler$?OnRender@PetEatWnd@@MAEXXZ:
  00008	8b 54 24 08	 mov	 edx, DWORD PTR [esp+8]
  0000c	8d 42 0c	 lea	 eax, DWORD PTR [edx+12]
  0000f	8b 4a cc	 mov	 ecx, DWORD PTR [edx-52]
  00012	33 c8		 xor	 ecx, eax
  00014	e8 00 00 00 00	 call	 @__security_check_cookie@4
  00019	b8 00 00 00 00	 mov	 eax, OFFSET __ehfuncinfo$?OnRender@PetEatWnd@@MAEXXZ
  0001e	e9 00 00 00 00	 jmp	 ___CxxFrameHandler3
text$x	ENDS
?OnRender@PetEatWnd@@MAEXXZ ENDP			; PetEatWnd::OnRender
PUBLIC	?SelectPetSlot@PetEatWnd@@QAEXH@Z		; PetEatWnd::SelectPetSlot
EXTRN	__imp_?ShowWnd@ioWnd@@QAEXXZ:PROC
; Function compile flags: /Ogsp
;	COMDAT ?SelectPetSlot@PetEatWnd@@QAEXH@Z
_TEXT	SEGMENT
_nSelectSlot$ = 8					; size = 4
?SelectPetSlot@PetEatWnd@@QAEXH@Z PROC			; PetEatWnd::SelectPetSlot, COMDAT
; _this$ = ecx

; 175  : {	

  00000	55		 push	 ebp
  00001	8b ec		 mov	 ebp, esp

; 176  : 	m_nSelectPetSlot = nSelectSlot;

  00003	8b 45 08	 mov	 eax, DWORD PTR _nSelectSlot$[ebp]
  00006	89 81 68 01 00
	00		 mov	 DWORD PTR [ecx+360], eax

; 177  : 	ShowWnd();

  0000c	ff 15 00 00 00
	00		 call	 DWORD PTR __imp_?ShowWnd@ioWnd@@QAEXXZ

; 178  : }

  00012	5d		 pop	 ebp
  00013	c2 04 00	 ret	 4
?SelectPetSlot@PetEatWnd@@QAEXH@Z ENDP			; PetEatWnd::SelectPetSlot
_TEXT	ENDS
PUBLIC	?InitData@PetEatWnd@@IAEXXZ			; PetEatWnd::InitData
; Function compile flags: /Ogsp
;	COMDAT ?InitData@PetEatWnd@@IAEXXZ
_TEXT	SEGMENT
?InitData@PetEatWnd@@IAEXXZ PROC			; PetEatWnd::InitData, COMDAT
; _this$ = ecx

; 224  : 	m_nNeedMaterialCnt = 0;

  00000	33 c0		 xor	 eax, eax
  00002	89 81 6c 01 00
	00		 mov	 DWORD PTR [ecx+364], eax

; 225  : 	m_nNeedMaterialCode = 0;

  00008	89 81 70 01 00
	00		 mov	 DWORD PTR [ecx+368], eax

; 226  : 	m_nSelectMaterialCode = 0;

  0000e	89 81 74 01 00
	00		 mov	 DWORD PTR [ecx+372], eax

; 227  : 	m_bIsSelectMaterial = false;

  00014	66 89 81 78 01
	00 00		 mov	 WORD PTR [ecx+376], ax

; 228  : 	m_bEmpty = false;
; 229  : 	m_bMaxLv = false;

  0001b	88 81 7a 01 00
	00		 mov	 BYTE PTR [ecx+378], al

; 230  : }

  00021	c3		 ret	 0
?InitData@PetEatWnd@@IAEXXZ ENDP			; PetEatWnd::InitData
_TEXT	ENDS
PUBLIC	??_7bad_alloc@std@@6B@				; std::bad_alloc::`vftable'
PUBLIC	??0bad_alloc@std@@QAE@PBD@Z			; std::bad_alloc::bad_alloc
PUBLIC	??_R4bad_alloc@std@@6B@				; std::bad_alloc::`RTTI Complete Object Locator'
PUBLIC	??_R0?AVbad_alloc@std@@@8			; std::bad_alloc `RTTI Type Descriptor'
PUBLIC	??_R3bad_alloc@std@@8				; std::bad_alloc::`RTTI Class Hierarchy Descriptor'
PUBLIC	??_R2bad_alloc@std@@8				; std::bad_alloc::`RTTI Base Class Array'
PUBLIC	??_R1A@?0A@EA@bad_alloc@std@@8			; std::bad_alloc::`RTTI Base Class Descriptor at (0,-1,0,64)'
PUBLIC	??_R1A@?0A@EA@exception@std@@8			; std::exception::`RTTI Base Class Descriptor at (0,-1,0,64)'
PUBLIC	??_R0?AVexception@std@@@8			; std::exception `RTTI Type Descriptor'
PUBLIC	??_R3exception@std@@8				; std::exception::`RTTI Class Hierarchy Descriptor'
PUBLIC	??_R2exception@std@@8				; std::exception::`RTTI Base Class Array'
EXTRN	__imp_??0exception@std@@QAE@ABQBD@Z:PROC
EXTRN	??_Ebad_alloc@std@@UAEPAXI@Z:PROC		; std::bad_alloc::`vector deleting destructor'
EXTRN	?what@exception@std@@UBEPBDXZ:PROC		; std::exception::what
;	COMDAT ??_R2exception@std@@8
; File c:\program files (x86)\microsoft visual studio 10.0\vc\include\exception
rdata$r	SEGMENT
??_R2exception@std@@8 DD FLAT:??_R1A@?0A@EA@exception@std@@8 ; std::exception::`RTTI Base Class Array'
rdata$r	ENDS
;	COMDAT ??_R3exception@std@@8
rdata$r	SEGMENT
??_R3exception@std@@8 DD 00H				; std::exception::`RTTI Class Hierarchy Descriptor'
	DD	00H
	DD	01H
	DD	FLAT:??_R2exception@std@@8
rdata$r	ENDS
;	COMDAT ??_R0?AVexception@std@@@8
_DATA	SEGMENT
??_R0?AVexception@std@@@8 DD FLAT:??_7type_info@@6B@	; std::exception `RTTI Type Descriptor'
	DD	00H
	DB	'.?AVexception@std@@', 00H
_DATA	ENDS
;	COMDAT ??_R1A@?0A@EA@exception@std@@8
rdata$r	SEGMENT
??_R1A@?0A@EA@exception@std@@8 DD FLAT:??_R0?AVexception@std@@@8 ; std::exception::`RTTI Base Class Descriptor at (0,-1,0,64)'
	DD	00H
	DD	00H
	DD	0ffffffffH
	DD	00H
	DD	040H
	DD	FLAT:??_R3exception@std@@8
rdata$r	ENDS
;	COMDAT ??_R1A@?0A@EA@bad_alloc@std@@8
rdata$r	SEGMENT
??_R1A@?0A@EA@bad_alloc@std@@8 DD FLAT:??_R0?AVbad_alloc@std@@@8 ; std::bad_alloc::`RTTI Base Class Descriptor at (0,-1,0,64)'
	DD	01H
	DD	00H
	DD	0ffffffffH
	DD	00H
	DD	040H
	DD	FLAT:??_R3bad_alloc@std@@8
rdata$r	ENDS
;	COMDAT ??_R2bad_alloc@std@@8
rdata$r	SEGMENT
??_R2bad_alloc@std@@8 DD FLAT:??_R1A@?0A@EA@bad_alloc@std@@8 ; std::bad_alloc::`RTTI Base Class Array'
	DD	FLAT:??_R1A@?0A@EA@exception@std@@8
rdata$r	ENDS
;	COMDAT ??_R3bad_alloc@std@@8
rdata$r	SEGMENT
??_R3bad_alloc@std@@8 DD 00H				; std::bad_alloc::`RTTI Class Hierarchy Descriptor'
	DD	00H
	DD	02H
	DD	FLAT:??_R2bad_alloc@std@@8
rdata$r	ENDS
;	COMDAT ??_R0?AVbad_alloc@std@@@8
_DATA	SEGMENT
??_R0?AVbad_alloc@std@@@8 DD FLAT:??_7type_info@@6B@	; std::bad_alloc `RTTI Type Descriptor'
	DD	00H
	DB	'.?AVbad_alloc@std@@', 00H
_DATA	ENDS
;	COMDAT ??_R4bad_alloc@std@@6B@
rdata$r	SEGMENT
??_R4bad_alloc@std@@6B@ DD 00H				; std::bad_alloc::`RTTI Complete Object Locator'
	DD	00H
	DD	00H
	DD	FLAT:??_R0?AVbad_alloc@std@@@8
	DD	FLAT:??_R3bad_alloc@std@@8
rdata$r	ENDS
;	COMDAT ??_7bad_alloc@std@@6B@
CONST	SEGMENT
??_7bad_alloc@std@@6B@ DD FLAT:??_R4bad_alloc@std@@6B@	; std::bad_alloc::`vftable'
	DD	FLAT:??_Ebad_alloc@std@@UAEPAXI@Z
	DD	FLAT:?what@exception@std@@UBEPBDXZ
; Function compile flags: /Ogsp
CONST	ENDS
;	COMDAT ??0bad_alloc@std@@QAE@PBD@Z
_TEXT	SEGMENT
__Message$ = 8						; size = 4
??0bad_alloc@std@@QAE@PBD@Z PROC			; std::bad_alloc::bad_alloc, COMDAT
; _this$ = ecx

; 345  : 		{	// construct from message string

  00000	55		 push	 ebp
  00001	8b ec		 mov	 ebp, esp
  00003	56		 push	 esi
  00004	8d 45 08	 lea	 eax, DWORD PTR __Message$[ebp]
  00007	50		 push	 eax
  00008	8b f1		 mov	 esi, ecx
  0000a	ff 15 00 00 00
	00		 call	 DWORD PTR __imp_??0exception@std@@QAE@ABQBD@Z
  00010	c7 06 00 00 00
	00		 mov	 DWORD PTR [esi], OFFSET ??_7bad_alloc@std@@6B@

; 346  : 		}

  00016	8b c6		 mov	 eax, esi
  00018	5e		 pop	 esi
  00019	5d		 pop	 ebp
  0001a	c2 04 00	 ret	 4
??0bad_alloc@std@@QAE@PBD@Z ENDP			; std::bad_alloc::bad_alloc
_TEXT	ENDS
PUBLIC	??1bad_alloc@std@@UAE@XZ			; std::bad_alloc::~bad_alloc
EXTRN	__imp_??1exception@std@@UAE@XZ:PROC
; Function compile flags: /Ogsp
;	COMDAT ??1bad_alloc@std@@UAE@XZ
_TEXT	SEGMENT
??1bad_alloc@std@@UAE@XZ PROC				; std::bad_alloc::~bad_alloc, COMDAT
; _this$ = ecx

; 354  : 		{	// destroy the object

  00000	c7 01 00 00 00
	00		 mov	 DWORD PTR [ecx], OFFSET ??_7bad_alloc@std@@6B@

; 355  : 		}

  00006	ff 25 00 00 00
	00		 jmp	 DWORD PTR __imp_??1exception@std@@UAE@XZ
??1bad_alloc@std@@UAE@XZ ENDP				; std::bad_alloc::~bad_alloc
_TEXT	ENDS
EXTRN	??3@YAXPAX@Z:PROC				; operator delete
; Function compile flags: /Ogsp
;	COMDAT ??_Gbad_alloc@std@@UAEPAXI@Z
_TEXT	SEGMENT
___flags$ = 8						; size = 4
??_Gbad_alloc@std@@UAEPAXI@Z PROC			; std::bad_alloc::`scalar deleting destructor', COMDAT
; _this$ = ecx
  00000	55		 push	 ebp
  00001	8b ec		 mov	 ebp, esp
  00003	56		 push	 esi
  00004	8b f1		 mov	 esi, ecx
  00006	c7 06 00 00 00
	00		 mov	 DWORD PTR [esi], OFFSET ??_7bad_alloc@std@@6B@
  0000c	ff 15 00 00 00
	00		 call	 DWORD PTR __imp_??1exception@std@@UAE@XZ
  00012	f6 45 08 01	 test	 BYTE PTR ___flags$[ebp], 1
  00016	74 07		 je	 SHORT $LN1@scalar
  00018	56		 push	 esi
  00019	e8 00 00 00 00	 call	 ??3@YAXPAX@Z		; operator delete
  0001e	59		 pop	 ecx
$LN1@scalar:
  0001f	8b c6		 mov	 eax, esi
  00021	5e		 pop	 esi
  00022	5d		 pop	 ebp
  00023	c2 04 00	 ret	 4
??_Gbad_alloc@std@@UAEPAXI@Z ENDP			; std::bad_alloc::`scalar deleting destructor'
_TEXT	ENDS
PUBLIC	??1tagPetSlot@@QAE@XZ				; tagPetSlot::~tagPetSlot
EXTRN	__imp_??1ioHashString@@QAE@XZ:PROC
;	COMDAT xdata$x
xdata$x	SEGMENT
__unwindtable$??1tagPetSlot@@QAE@XZ DD 0ffffffffH
	DD	FLAT:__unwindfunclet$??1tagPetSlot@@QAE@XZ$0
__ehfuncinfo$??1tagPetSlot@@QAE@XZ DD 019930522H
	DD	01H
	DD	FLAT:__unwindtable$??1tagPetSlot@@QAE@XZ
	DD	2 DUP(00H)
	DD	2 DUP(00H)
	DD	00H
	DD	01H
; Function compile flags: /Ogsp
xdata$x	ENDS
;	COMDAT ??1tagPetSlot@@QAE@XZ
_TEXT	SEGMENT
_this$ = -16						; size = 4
__$EHRec$ = -12						; size = 12
??1tagPetSlot@@QAE@XZ PROC				; tagPetSlot::~tagPetSlot, COMDAT
; _this$ = ecx
  00000	6a 04		 push	 4
  00002	b8 00 00 00 00	 mov	 eax, __ehhandler$??1tagPetSlot@@QAE@XZ
  00007	e8 00 00 00 00	 call	 __EH_prolog3
  0000c	8b f9		 mov	 edi, ecx
  0000e	89 7d f0	 mov	 DWORD PTR _this$[ebp], edi
  00011	8b 35 00 00 00
	00		 mov	 esi, DWORD PTR __imp_??1ioHashString@@QAE@XZ
  00017	83 65 fc 00	 and	 DWORD PTR __$EHRec$[ebp+8], 0
  0001b	8d 4f 28	 lea	 ecx, DWORD PTR [edi+40]
  0001e	ff d6		 call	 esi
  00020	83 4d fc ff	 or	 DWORD PTR __$EHRec$[ebp+8], -1
  00024	8d 4f 18	 lea	 ecx, DWORD PTR [edi+24]
  00027	ff d6		 call	 esi
  00029	e8 00 00 00 00	 call	 __EH_epilog3
  0002e	c3		 ret	 0
_TEXT	ENDS
;	COMDAT text$x
text$x	SEGMENT
__unwindfunclet$??1tagPetSlot@@QAE@XZ$0:
  00000	8b 4d f0	 mov	 ecx, DWORD PTR _this$[ebp]
  00003	83 c1 18	 add	 ecx, 24			; 00000018H
  00006	ff 25 00 00 00
	00		 jmp	 DWORD PTR __imp_??1ioHashString@@QAE@XZ
__ehhandler$??1tagPetSlot@@QAE@XZ:
  0000c	8b 54 24 08	 mov	 edx, DWORD PTR [esp+8]
  00010	8d 42 0c	 lea	 eax, DWORD PTR [edx+12]
  00013	8b 4a ec	 mov	 ecx, DWORD PTR [edx-20]
  00016	33 c8		 xor	 ecx, eax
  00018	e8 00 00 00 00	 call	 @__security_check_cookie@4
  0001d	b8 00 00 00 00	 mov	 eax, OFFSET __ehfuncinfo$??1tagPetSlot@@QAE@XZ
  00022	e9 00 00 00 00	 jmp	 ___CxxFrameHandler3
text$x	ENDS
??1tagPetSlot@@QAE@XZ ENDP				; tagPetSlot::~tagPetSlot
PUBLIC	?GetMaterialListPosY@PetEatWnd@@IAEHH@Z		; PetEatWnd::GetMaterialListPosY
; Function compile flags: /Ogsp
; File d:\lost saga for developer\youtube\tutorial\source\src\lsclient\gui\peteatwnd.cpp
;	COMDAT ?GetMaterialListPosY@PetEatWnd@@IAEHH@Z
_TEXT	SEGMENT
_nSize$ = 8						; size = 4
?GetMaterialListPosY@PetEatWnd@@IAEHH@Z PROC		; PetEatWnd::GetMaterialListPosY, COMDAT
; _this$ = ecx

; 396  : {

  00000	55		 push	 ebp
  00001	8b ec		 mov	 ebp, esp

; 397  : 	if ( nSize > 6)

  00003	8b 45 08	 mov	 eax, DWORD PTR _nSize$[ebp]
  00006	83 f8 06	 cmp	 eax, 6
  00009	7e 07		 jle	 SHORT $LN9@GetMateria
$LN1@GetMateria:

; 398  : 		return 144;

  0000b	b8 90 00 00 00	 mov	 eax, 144		; 00000090H
  00010	eb 29		 jmp	 SHORT $LN10@GetMateria
$LN9@GetMateria:

; 399  : 
; 400  : 	switch( nSize )

  00012	48		 dec	 eax
  00013	74 23		 je	 SHORT $LN6@GetMateria
  00015	48		 dec	 eax
  00016	74 1c		 je	 SHORT $LN5@GetMateria
  00018	48		 dec	 eax
  00019	74 15		 je	 SHORT $LN4@GetMateria
  0001b	48		 dec	 eax
  0001c	74 0e		 je	 SHORT $LN3@GetMateria
  0001e	48		 dec	 eax
  0001f	74 07		 je	 SHORT $LN2@GetMateria
  00021	48		 dec	 eax
  00022	74 e7		 je	 SHORT $LN1@GetMateria

; 412  : 	case 6:
; 413  : 		return 144;
; 414  : 	}
; 415  : 	return 0;

  00024	33 c0		 xor	 eax, eax
  00026	eb 13		 jmp	 SHORT $LN10@GetMateria
$LN2@GetMateria:

; 410  : 	case 5:
; 411  : 		return 123;

  00028	6a 7b		 push	 123			; 0000007bH
  0002a	eb 0e		 jmp	 SHORT $LN12@GetMateria
$LN3@GetMateria:

; 408  : 	case 4:
; 409  : 		return 102;

  0002c	6a 66		 push	 102			; 00000066H
  0002e	eb 0a		 jmp	 SHORT $LN12@GetMateria
$LN4@GetMateria:

; 406  : 	case 3:
; 407  : 		return 81;

  00030	6a 51		 push	 81			; 00000051H
  00032	eb 06		 jmp	 SHORT $LN12@GetMateria
$LN5@GetMateria:

; 404  : 	case 2:
; 405  : 		return 60;

  00034	6a 3c		 push	 60			; 0000003cH
  00036	eb 02		 jmp	 SHORT $LN12@GetMateria
$LN6@GetMateria:

; 401  : 	{
; 402  : 	case 1:
; 403  : 		return 39;

  00038	6a 27		 push	 39			; 00000027H
$LN12@GetMateria:
  0003a	58		 pop	 eax
$LN10@GetMateria:

; 416  : }

  0003b	5d		 pop	 ebp
  0003c	c2 04 00	 ret	 4
?GetMaterialListPosY@PetEatWnd@@IAEHH@Z ENDP		; PetEatWnd::GetMaterialListPosY
_TEXT	ENDS
PUBLIC	??2@YAPAXIPAX@Z					; operator new
; Function compile flags: /Ogsp
; File c:\program files (x86)\microsoft visual studio 10.0\vc\include\new
;	COMDAT ??2@YAPAXIPAX@Z
_TEXT	SEGMENT
___formal$ = 8						; size = 4
__Where$ = 12						; size = 4
??2@YAPAXIPAX@Z PROC					; operator new, COMDAT

; 56   : 	{	// construct array with placement at _Where

  00000	55		 push	 ebp
  00001	8b ec		 mov	 ebp, esp

; 57   : 	return (_Where);

  00003	8b 45 0c	 mov	 eax, DWORD PTR __Where$[ebp]

; 58   : 	}

  00006	5d		 pop	 ebp
  00007	c3		 ret	 0
??2@YAPAXIPAX@Z ENDP					; operator new
_TEXT	ENDS
PUBLIC	??3@YAXPAX0@Z					; operator delete
; Function compile flags: /Ogsp
;	COMDAT ??3@YAXPAX0@Z
_TEXT	SEGMENT
___formal$ = 8						; size = 4
___formal$ = 12						; size = 4
??3@YAXPAX0@Z PROC					; operator delete, COMDAT

; 62   : 	}

  00000	c3		 ret	 0
??3@YAXPAX0@Z ENDP					; operator delete
_TEXT	ENDS
PUBLIC	??1NewShopPullDownItem@@QAE@XZ			; NewShopPullDownItem::~NewShopPullDownItem
;	COMDAT xdata$x
xdata$x	SEGMENT
__unwindtable$??1NewShopPullDownItem@@QAE@XZ DD 0ffffffffH
	DD	FLAT:__unwindfunclet$??1NewShopPullDownItem@@QAE@XZ$0
	DD	00H
	DD	FLAT:__unwindfunclet$??1NewShopPullDownItem@@QAE@XZ$1
__ehfuncinfo$??1NewShopPullDownItem@@QAE@XZ DD 019930522H
	DD	02H
	DD	FLAT:__unwindtable$??1NewShopPullDownItem@@QAE@XZ
	DD	2 DUP(00H)
	DD	2 DUP(00H)
	DD	00H
	DD	01H
; Function compile flags: /Ogsp
xdata$x	ENDS
;	COMDAT ??1NewShopPullDownItem@@QAE@XZ
_TEXT	SEGMENT
_this$ = -16						; size = 4
__$EHRec$ = -12						; size = 12
??1NewShopPullDownItem@@QAE@XZ PROC			; NewShopPullDownItem::~NewShopPullDownItem, COMDAT
; _this$ = ecx
  00000	6a 04		 push	 4
  00002	b8 00 00 00 00	 mov	 eax, __ehhandler$??1NewShopPullDownItem@@QAE@XZ
  00007	e8 00 00 00 00	 call	 __EH_prolog3
  0000c	8b f9		 mov	 edi, ecx
  0000e	89 7d f0	 mov	 DWORD PTR _this$[ebp], edi
  00011	8b 35 00 00 00
	00		 mov	 esi, DWORD PTR __imp_??1ioHashString@@QAE@XZ
  00017	8d 4f 3c	 lea	 ecx, DWORD PTR [edi+60]
  0001a	c7 45 fc 01 00
	00 00		 mov	 DWORD PTR __$EHRec$[ebp+8], 1
  00021	ff d6		 call	 esi
  00023	8d 4f 24	 lea	 ecx, DWORD PTR [edi+36]
  00026	c6 45 fc 00	 mov	 BYTE PTR __$EHRec$[ebp+8], 0
  0002a	ff d6		 call	 esi
  0002c	83 4d fc ff	 or	 DWORD PTR __$EHRec$[ebp+8], -1
  00030	8b cf		 mov	 ecx, edi
  00032	ff d6		 call	 esi
  00034	e8 00 00 00 00	 call	 __EH_epilog3
  00039	c3		 ret	 0
_TEXT	ENDS
;	COMDAT text$x
text$x	SEGMENT
__unwindfunclet$??1NewShopPullDownItem@@QAE@XZ$0:
  00000	8b 4d f0	 mov	 ecx, DWORD PTR _this$[ebp]
  00003	ff 25 00 00 00
	00		 jmp	 DWORD PTR __imp_??1ioHashString@@QAE@XZ
__unwindfunclet$??1NewShopPullDownItem@@QAE@XZ$1:
  00009	8b 4d f0	 mov	 ecx, DWORD PTR _this$[ebp]
  0000c	83 c1 24	 add	 ecx, 36			; 00000024H
  0000f	ff 25 00 00 00
	00		 jmp	 DWORD PTR __imp_??1ioHashString@@QAE@XZ
__ehhandler$??1NewShopPullDownItem@@QAE@XZ:
  00015	8b 54 24 08	 mov	 edx, DWORD PTR [esp+8]
  00019	8d 42 0c	 lea	 eax, DWORD PTR [edx+12]
  0001c	8b 4a ec	 mov	 ecx, DWORD PTR [edx-20]
  0001f	33 c8		 xor	 ecx, eax
  00021	e8 00 00 00 00	 call	 @__security_check_cookie@4
  00026	b8 00 00 00 00	 mov	 eax, OFFSET __ehfuncinfo$??1NewShopPullDownItem@@QAE@XZ
  0002b	e9 00 00 00 00	 jmp	 ___CxxFrameHandler3
text$x	ENDS
??1NewShopPullDownItem@@QAE@XZ ENDP			; NewShopPullDownItem::~NewShopPullDownItem
PUBLIC	?ApplyMaxLv@PetEatWnd@@QAEXXZ			; PetEatWnd::ApplyMaxLv
EXTRN	__imp_?SetChildInActive@ioWnd@@QAEXK@Z:PROC
; Function compile flags: /Ogsp
; File d:\lost saga for developer\youtube\tutorial\source\src\lsclient\gui\peteatwnd.cpp
;	COMDAT ?ApplyMaxLv@PetEatWnd@@QAEXXZ
_TEXT	SEGMENT
?ApplyMaxLv@PetEatWnd@@QAEXXZ PROC			; PetEatWnd::ApplyMaxLv, COMDAT
; _this$ = ecx

; 573  : {

  00000	56		 push	 esi

; 574  : 	SetChildInActive( ID_MATERIALPET_BTN );

  00001	6a 0b		 push	 11			; 0000000bH
  00003	8b f1		 mov	 esi, ecx
  00005	ff 15 00 00 00
	00		 call	 DWORD PTR __imp_?SetChildInActive@ioWnd@@QAEXK@Z

; 575  : 	m_bMaxLv = true;

  0000b	c6 86 7a 01 00
	00 01		 mov	 BYTE PTR [esi+378], 1
  00012	5e		 pop	 esi

; 576  : }

  00013	c3		 ret	 0
?ApplyMaxLv@PetEatWnd@@QAEXXZ ENDP			; PetEatWnd::ApplyMaxLv
_TEXT	ENDS
PUBLIC	?HideMainInfo@PetEatWnd@@IAEXXZ			; PetEatWnd::HideMainInfo
EXTRN	__imp_?HideChildWnd@ioWnd@@QAEXK_N@Z:PROC
; Function compile flags: /Ogsp
;	COMDAT ?HideMainInfo@PetEatWnd@@IAEXXZ
_TEXT	SEGMENT
?HideMainInfo@PetEatWnd@@IAEXXZ PROC			; PetEatWnd::HideMainInfo, COMDAT
; _this$ = ecx

; 582  : {

  00000	56		 push	 esi

; 583  : 	HideChildWnd( ID_MATERIALPET_BTN );

  00001	8b 35 00 00 00
	00		 mov	 esi, DWORD PTR __imp_?HideChildWnd@ioWnd@@QAEXK_N@Z
  00007	57		 push	 edi
  00008	6a 00		 push	 0
  0000a	6a 0b		 push	 11			; 0000000bH
  0000c	8b f9		 mov	 edi, ecx
  0000e	ff d6		 call	 esi

; 584  : 	HideChildWnd( ID_MATERIALPET_WND );

  00010	6a 00		 push	 0
  00012	6a 65		 push	 101			; 00000065H
  00014	8b cf		 mov	 ecx, edi
  00016	ff d6		 call	 esi

; 585  : 	HideChildWnd( ID_EAT_BTN );

  00018	6a 00		 push	 0
  0001a	6a 01		 push	 1
  0001c	8b cf		 mov	 ecx, edi
  0001e	ff d6		 call	 esi

; 586  : 	HideChildWnd( ID_BACK_BTN );

  00020	6a 00		 push	 0
  00022	6a 02		 push	 2
  00024	8b cf		 mov	 ecx, edi
  00026	ff d6		 call	 esi
  00028	5f		 pop	 edi
  00029	5e		 pop	 esi

; 587  : }

  0002a	c3		 ret	 0
?HideMainInfo@PetEatWnd@@IAEXXZ ENDP			; PetEatWnd::HideMainInfo
_TEXT	ENDS
PUBLIC	?ShowMainInfo@PetEatWnd@@IAEXXZ			; PetEatWnd::ShowMainInfo
EXTRN	__imp_?ShowChildWnd@ioWnd@@QAEXK_N@Z:PROC
; Function compile flags: /Ogsp
;	COMDAT ?ShowMainInfo@PetEatWnd@@IAEXXZ
_TEXT	SEGMENT
?ShowMainInfo@PetEatWnd@@IAEXXZ PROC			; PetEatWnd::ShowMainInfo, COMDAT
; _this$ = ecx

; 590  : {

  00000	56		 push	 esi

; 591  : 	ShowChildWnd( ID_MATERIALPET_BTN );

  00001	8b 35 00 00 00
	00		 mov	 esi, DWORD PTR __imp_?ShowChildWnd@ioWnd@@QAEXK_N@Z
  00007	57		 push	 edi
  00008	6a 00		 push	 0
  0000a	6a 0b		 push	 11			; 0000000bH
  0000c	8b f9		 mov	 edi, ecx
  0000e	ff d6		 call	 esi

; 592  : 	ShowChildWnd( ID_EAT_BTN );

  00010	6a 00		 push	 0
  00012	6a 01		 push	 1
  00014	8b cf		 mov	 ecx, edi
  00016	ff d6		 call	 esi

; 593  : 	ShowChildWnd( ID_BACK_BTN );

  00018	6a 00		 push	 0
  0001a	6a 02		 push	 2
  0001c	8b cf		 mov	 ecx, edi
  0001e	ff d6		 call	 esi
  00020	5f		 pop	 edi
  00021	5e		 pop	 esi

; 594  : }

  00022	c3		 ret	 0
?ShowMainInfo@PetEatWnd@@IAEXXZ ENDP			; PetEatWnd::ShowMainInfo
_TEXT	ENDS
PUBLIC	?size@?$vector@UNewShopPullDownItem@@V?$allocator@UNewShopPullDownItem@@@std@@@std@@QBEIXZ ; std::vector<NewShopPullDownItem,std::allocator<NewShopPullDownItem> >::size
; Function compile flags: /Ogsp
; File c:\program files (x86)\microsoft visual studio 10.0\vc\include\vector
;	COMDAT ?size@?$vector@UNewShopPullDownItem@@V?$allocator@UNewShopPullDownItem@@@std@@@std@@QBEIXZ
_TEXT	SEGMENT
?size@?$vector@UNewShopPullDownItem@@V?$allocator@UNewShopPullDownItem@@@std@@@std@@QBEIXZ PROC ; std::vector<NewShopPullDownItem,std::allocator<NewShopPullDownItem> >::size, COMDAT
; _this$ = ecx

; 879  : 		return (this->_Mylast - this->_Myfirst);

  00000	8b 41 04	 mov	 eax, DWORD PTR [ecx+4]
  00003	2b 01		 sub	 eax, DWORD PTR [ecx]
  00005	6a 50		 push	 80			; 00000050H
  00007	99		 cdq
  00008	59		 pop	 ecx
  00009	f7 f9		 idiv	 ecx

; 880  : 		}

  0000b	c3		 ret	 0
?size@?$vector@UNewShopPullDownItem@@V?$allocator@UNewShopPullDownItem@@@std@@@std@@QBEIXZ ENDP ; std::vector<NewShopPullDownItem,std::allocator<NewShopPullDownItem> >::size
_TEXT	ENDS
PUBLIC	?empty@?$vector@UNewShopPullDownItem@@V?$allocator@UNewShopPullDownItem@@@std@@@std@@QBE_NXZ ; std::vector<NewShopPullDownItem,std::allocator<NewShopPullDownItem> >::empty
; Function compile flags: /Ogsp
;	COMDAT ?empty@?$vector@UNewShopPullDownItem@@V?$allocator@UNewShopPullDownItem@@@std@@@std@@QBE_NXZ
_TEXT	SEGMENT
?empty@?$vector@UNewShopPullDownItem@@V?$allocator@UNewShopPullDownItem@@@std@@@std@@QBE_NXZ PROC ; std::vector<NewShopPullDownItem,std::allocator<NewShopPullDownItem> >::empty, COMDAT
; _this$ = ecx

; 889  : 		return (this->_Myfirst == this->_Mylast);

  00000	8b 01		 mov	 eax, DWORD PTR [ecx]
  00002	2b 41 04	 sub	 eax, DWORD PTR [ecx+4]
  00005	f7 d8		 neg	 eax
  00007	1b c0		 sbb	 eax, eax
  00009	40		 inc	 eax

; 890  : 		}

  0000a	c3		 ret	 0
?empty@?$vector@UNewShopPullDownItem@@V?$allocator@UNewShopPullDownItem@@@std@@@std@@QBE_NXZ ENDP ; std::vector<NewShopPullDownItem,std::allocator<NewShopPullDownItem> >::empty
_TEXT	ENDS
PUBLIC	??A?$vector@UNewShopPullDownItem@@V?$allocator@UNewShopPullDownItem@@@std@@@std@@QAEAAUNewShopPullDownItem@@I@Z ; std::vector<NewShopPullDownItem,std::allocator<NewShopPullDownItem> >::operator[]
; Function compile flags: /Ogsp
;	COMDAT ??A?$vector@UNewShopPullDownItem@@V?$allocator@UNewShopPullDownItem@@@std@@@std@@QAEAAUNewShopPullDownItem@@I@Z
_TEXT	SEGMENT
__Pos$ = 8						; size = 4
??A?$vector@UNewShopPullDownItem@@V?$allocator@UNewShopPullDownItem@@@std@@@std@@QAEAAUNewShopPullDownItem@@I@Z PROC ; std::vector<NewShopPullDownItem,std::allocator<NewShopPullDownItem> >::operator[], COMDAT
; _this$ = ecx

; 928  : 		{	// subscript mutable sequence

  00000	55		 push	 ebp
  00001	8b ec		 mov	 ebp, esp

; 929  :  #if _ITERATOR_DEBUG_LEVEL == 2
; 930  : 		if (size() <= _Pos)
; 931  : 			{	// report error
; 932  : 			_DEBUG_ERROR("vector subscript out of range");
; 933  : 			_SCL_SECURE_OUT_OF_RANGE;
; 934  : 			}
; 935  : 
; 936  :  #elif _ITERATOR_DEBUG_LEVEL == 1
; 937  : 		_SCL_SECURE_VALIDATE_RANGE(_Pos < size());
; 938  :  #endif /* _ITERATOR_DEBUG_LEVEL */
; 939  : 
; 940  : 		return (*(this->_Myfirst + _Pos));

  00003	8b 45 08	 mov	 eax, DWORD PTR __Pos$[ebp]
  00006	6b c0 50	 imul	 eax, 80			; 00000050H
  00009	03 01		 add	 eax, DWORD PTR [ecx]

; 941  : 		}

  0000b	5d		 pop	 ebp
  0000c	c2 04 00	 ret	 4
??A?$vector@UNewShopPullDownItem@@V?$allocator@UNewShopPullDownItem@@@std@@@std@@QAEAAUNewShopPullDownItem@@I@Z ENDP ; std::vector<NewShopPullDownItem,std::allocator<NewShopPullDownItem> >::operator[]
_TEXT	ENDS
PUBLIC	?size@?$vector@UtagAlchemicItemInfo@@V?$allocator@UtagAlchemicItemInfo@@@std@@@std@@QBEIXZ ; std::vector<tagAlchemicItemInfo,std::allocator<tagAlchemicItemInfo> >::size
; Function compile flags: /Ogsp
;	COMDAT ?size@?$vector@UtagAlchemicItemInfo@@V?$allocator@UtagAlchemicItemInfo@@@std@@@std@@QBEIXZ
_TEXT	SEGMENT
?size@?$vector@UtagAlchemicItemInfo@@V?$allocator@UtagAlchemicItemInfo@@@std@@@std@@QBEIXZ PROC ; std::vector<tagAlchemicItemInfo,std::allocator<tagAlchemicItemInfo> >::size, COMDAT
; _this$ = ecx

; 879  : 		return (this->_Mylast - this->_Myfirst);

  00000	8b 41 04	 mov	 eax, DWORD PTR [ecx+4]
  00003	2b 01		 sub	 eax, DWORD PTR [ecx]
  00005	6a 1c		 push	 28			; 0000001cH
  00007	99		 cdq
  00008	59		 pop	 ecx
  00009	f7 f9		 idiv	 ecx

; 880  : 		}

  0000b	c3		 ret	 0
?size@?$vector@UtagAlchemicItemInfo@@V?$allocator@UtagAlchemicItemInfo@@@std@@@std@@QBEIXZ ENDP ; std::vector<tagAlchemicItemInfo,std::allocator<tagAlchemicItemInfo> >::size
_TEXT	ENDS
PUBLIC	??A?$vector@UtagAlchemicItemInfo@@V?$allocator@UtagAlchemicItemInfo@@@std@@@std@@QAEAAUtagAlchemicItemInfo@@I@Z ; std::vector<tagAlchemicItemInfo,std::allocator<tagAlchemicItemInfo> >::operator[]
; Function compile flags: /Ogsp
;	COMDAT ??A?$vector@UtagAlchemicItemInfo@@V?$allocator@UtagAlchemicItemInfo@@@std@@@std@@QAEAAUtagAlchemicItemInfo@@I@Z
_TEXT	SEGMENT
__Pos$ = 8						; size = 4
??A?$vector@UtagAlchemicItemInfo@@V?$allocator@UtagAlchemicItemInfo@@@std@@@std@@QAEAAUtagAlchemicItemInfo@@I@Z PROC ; std::vector<tagAlchemicItemInfo,std::allocator<tagAlchemicItemInfo> >::operator[], COMDAT
; _this$ = ecx

; 928  : 		{	// subscript mutable sequence

  00000	55		 push	 ebp
  00001	8b ec		 mov	 ebp, esp

; 929  :  #if _ITERATOR_DEBUG_LEVEL == 2
; 930  : 		if (size() <= _Pos)
; 931  : 			{	// report error
; 932  : 			_DEBUG_ERROR("vector subscript out of range");
; 933  : 			_SCL_SECURE_OUT_OF_RANGE;
; 934  : 			}
; 935  : 
; 936  :  #elif _ITERATOR_DEBUG_LEVEL == 1
; 937  : 		_SCL_SECURE_VALIDATE_RANGE(_Pos < size());
; 938  :  #endif /* _ITERATOR_DEBUG_LEVEL */
; 939  : 
; 940  : 		return (*(this->_Myfirst + _Pos));

  00003	8b 45 08	 mov	 eax, DWORD PTR __Pos$[ebp]
  00006	6b c0 1c	 imul	 eax, 28			; 0000001cH
  00009	03 01		 add	 eax, DWORD PTR [ecx]

; 941  : 		}

  0000b	5d		 pop	 ebp
  0000c	c2 04 00	 ret	 4
??A?$vector@UtagAlchemicItemInfo@@V?$allocator@UtagAlchemicItemInfo@@@std@@@std@@QAEAAUtagAlchemicItemInfo@@I@Z ENDP ; std::vector<tagAlchemicItemInfo,std::allocator<tagAlchemicItemInfo> >::operator[]
_TEXT	ENDS
PUBLIC	?capacity@?$vector@UNewShopPullDownItem@@V?$allocator@UNewShopPullDownItem@@@std@@@std@@QBEIXZ ; std::vector<NewShopPullDownItem,std::allocator<NewShopPullDownItem> >::capacity
; Function compile flags: /Ogsp
;	COMDAT ?capacity@?$vector@UNewShopPullDownItem@@V?$allocator@UNewShopPullDownItem@@@std@@@std@@QBEIXZ
_TEXT	SEGMENT
?capacity@?$vector@UNewShopPullDownItem@@V?$allocator@UNewShopPullDownItem@@@std@@@std@@QBEIXZ PROC ; std::vector<NewShopPullDownItem,std::allocator<NewShopPullDownItem> >::capacity, COMDAT
; _this$ = ecx

; 777  : 		return (this->_Myend - this->_Myfirst);

  00000	8b 41 08	 mov	 eax, DWORD PTR [ecx+8]
  00003	2b 01		 sub	 eax, DWORD PTR [ecx]
  00005	6a 50		 push	 80			; 00000050H
  00007	99		 cdq
  00008	59		 pop	 ecx
  00009	f7 f9		 idiv	 ecx

; 778  : 		}

  0000b	c3		 ret	 0
?capacity@?$vector@UNewShopPullDownItem@@V?$allocator@UNewShopPullDownItem@@@std@@@std@@QBEIXZ ENDP ; std::vector<NewShopPullDownItem,std::allocator<NewShopPullDownItem> >::capacity
_TEXT	ENDS
PUBLIC	?_Adopt@_Iterator_base0@std@@QAEXPBX@Z		; std::_Iterator_base0::_Adopt
; Function compile flags: /Ogsp
; File c:\program files (x86)\microsoft visual studio 10.0\vc\include\xutility
;	COMDAT ?_Adopt@_Iterator_base0@std@@QAEXPBX@Z
_TEXT	SEGMENT
___formal$ = 8						; size = 4
?_Adopt@_Iterator_base0@std@@QAEXPBX@Z PROC		; std::_Iterator_base0::_Adopt, COMDAT
; _this$ = ecx

; 49   : 		}

  00000	c2 04 00	 ret	 4
?_Adopt@_Iterator_base0@std@@QAEXPBX@Z ENDP		; std::_Iterator_base0::_Adopt
_TEXT	ENDS
PUBLIC	?_Inside@?$vector@UNewShopPullDownItem@@V?$allocator@UNewShopPullDownItem@@@std@@@std@@IBE_NPBUNewShopPullDownItem@@@Z ; std::vector<NewShopPullDownItem,std::allocator<NewShopPullDownItem> >::_Inside
; Function compile flags: /Ogsp
; File c:\program files (x86)\microsoft visual studio 10.0\vc\include\vector
;	COMDAT ?_Inside@?$vector@UNewShopPullDownItem@@V?$allocator@UNewShopPullDownItem@@@std@@@std@@IBE_NPBUNewShopPullDownItem@@@Z
_TEXT	SEGMENT
__Ptr$ = 8						; size = 4
?_Inside@?$vector@UNewShopPullDownItem@@V?$allocator@UNewShopPullDownItem@@@std@@@std@@IBE_NPBUNewShopPullDownItem@@@Z PROC ; std::vector<NewShopPullDownItem,std::allocator<NewShopPullDownItem> >::_Inside, COMDAT
; _this$ = ecx

; 1285 : 		{	// test if _Ptr points inside vector

  00000	55		 push	 ebp
  00001	8b ec		 mov	 ebp, esp

; 1286 : 		return (_Ptr < this->_Mylast && this->_Myfirst <= _Ptr);

  00003	8b 45 08	 mov	 eax, DWORD PTR __Ptr$[ebp]
  00006	3b 41 04	 cmp	 eax, DWORD PTR [ecx+4]
  00009	73 09		 jae	 SHORT $LN3@Inside
  0000b	39 01		 cmp	 DWORD PTR [ecx], eax
  0000d	77 05		 ja	 SHORT $LN3@Inside
  0000f	33 c0		 xor	 eax, eax
  00011	40		 inc	 eax
  00012	eb 02		 jmp	 SHORT $LN4@Inside
$LN3@Inside:
  00014	33 c0		 xor	 eax, eax
$LN4@Inside:

; 1287 : 		}

  00016	5d		 pop	 ebp
  00017	c2 04 00	 ret	 4
?_Inside@?$vector@UNewShopPullDownItem@@V?$allocator@UNewShopPullDownItem@@@std@@@std@@IBE_NPBUNewShopPullDownItem@@@Z ENDP ; std::vector<NewShopPullDownItem,std::allocator<NewShopPullDownItem> >::_Inside
_TEXT	ENDS
PUBLIC	??_C@_0BD@OLBABOEK@vector?$DMT?$DO?5too?5long?$AA@ ; `string'
PUBLIC	?_Xlen@?$vector@UNewShopPullDownItem@@V?$allocator@UNewShopPullDownItem@@@std@@@std@@IBEXXZ ; std::vector<NewShopPullDownItem,std::allocator<NewShopPullDownItem> >::_Xlen
EXTRN	__imp_?_Xlength_error@std@@YAXPBD@Z:PROC
;	COMDAT ??_C@_0BD@OLBABOEK@vector?$DMT?$DO?5too?5long?$AA@
CONST	SEGMENT
??_C@_0BD@OLBABOEK@vector?$DMT?$DO?5too?5long?$AA@ DB 'vector<T> too long'
	DB	00H						; `string'
; Function compile flags: /Ogsp
CONST	ENDS
;	COMDAT ?_Xlen@?$vector@UNewShopPullDownItem@@V?$allocator@UNewShopPullDownItem@@@std@@@std@@IBEXXZ
_TEXT	SEGMENT
?_Xlen@?$vector@UNewShopPullDownItem@@V?$allocator@UNewShopPullDownItem@@@std@@@std@@IBEXXZ PROC ; std::vector<NewShopPullDownItem,std::allocator<NewShopPullDownItem> >::_Xlen, COMDAT
; _this$ = ecx

; 1427 : 		_Xlength_error("vector<T> too long");

  00000	68 00 00 00 00	 push	 OFFSET ??_C@_0BD@OLBABOEK@vector?$DMT?$DO?5too?5long?$AA@
  00005	ff 15 00 00 00
	00		 call	 DWORD PTR __imp_?_Xlength_error@std@@YAXPBD@Z
$LN4@Xlen:
$LN3@Xlen:
  0000b	cc		 int	 3
?_Xlen@?$vector@UNewShopPullDownItem@@V?$allocator@UNewShopPullDownItem@@@std@@@std@@IBEXXZ ENDP ; std::vector<NewShopPullDownItem,std::allocator<NewShopPullDownItem> >::_Xlen
_TEXT	ENDS
PUBLIC	?_Orphan_range@?$vector@UNewShopPullDownItem@@V?$allocator@UNewShopPullDownItem@@@std@@@std@@IBEXPAUNewShopPullDownItem@@0@Z ; std::vector<NewShopPullDownItem,std::allocator<NewShopPullDownItem> >::_Orphan_range
; Function compile flags: /Ogsp
;	COMDAT ?_Orphan_range@?$vector@UNewShopPullDownItem@@V?$allocator@UNewShopPullDownItem@@@std@@@std@@IBEXPAUNewShopPullDownItem@@0@Z
_TEXT	SEGMENT
___formal$ = 8						; size = 4
___formal$ = 12						; size = 4
?_Orphan_range@?$vector@UNewShopPullDownItem@@V?$allocator@UNewShopPullDownItem@@@std@@@std@@IBEXPAUNewShopPullDownItem@@0@Z PROC ; std::vector<NewShopPullDownItem,std::allocator<NewShopPullDownItem> >::_Orphan_range, COMDAT
; _this$ = ecx

; 1454 : 		}

  00000	c2 08 00	 ret	 8
?_Orphan_range@?$vector@UNewShopPullDownItem@@V?$allocator@UNewShopPullDownItem@@@std@@@std@@IBEXPAUNewShopPullDownItem@@0@Z ENDP ; std::vector<NewShopPullDownItem,std::allocator<NewShopPullDownItem> >::_Orphan_range
_TEXT	ENDS
PUBLIC	??1?$_Vector_val@UNewShopPullDownItem@@V?$allocator@UNewShopPullDownItem@@@std@@@std@@QAE@XZ ; std::_Vector_val<NewShopPullDownItem,std::allocator<NewShopPullDownItem> >::~_Vector_val<NewShopPullDownItem,std::allocator<NewShopPullDownItem> >
; Function compile flags: /Ogsp
;	COMDAT ??1?$_Vector_val@UNewShopPullDownItem@@V?$allocator@UNewShopPullDownItem@@@std@@@std@@QAE@XZ
_TEXT	SEGMENT
??1?$_Vector_val@UNewShopPullDownItem@@V?$allocator@UNewShopPullDownItem@@@std@@@std@@QAE@XZ PROC ; std::_Vector_val<NewShopPullDownItem,std::allocator<NewShopPullDownItem> >::~_Vector_val<NewShopPullDownItem,std::allocator<NewShopPullDownItem> >, COMDAT
; _this$ = ecx

; 434  : 		}

  00000	c3		 ret	 0
??1?$_Vector_val@UNewShopPullDownItem@@V?$allocator@UNewShopPullDownItem@@@std@@@std@@QAE@XZ ENDP ; std::_Vector_val<NewShopPullDownItem,std::allocator<NewShopPullDownItem> >::~_Vector_val<NewShopPullDownItem,std::allocator<NewShopPullDownItem> >
_TEXT	ENDS
PUBLIC	??0?$allocator@UNewShopPullDownItem@@@std@@QAE@XZ ; std::allocator<NewShopPullDownItem>::allocator<NewShopPullDownItem>
; Function compile flags: /Ogsp
; File c:\program files (x86)\microsoft visual studio 10.0\vc\include\xmemory
;	COMDAT ??0?$allocator@UNewShopPullDownItem@@@std@@QAE@XZ
_TEXT	SEGMENT
??0?$allocator@UNewShopPullDownItem@@@std@@QAE@XZ PROC	; std::allocator<NewShopPullDownItem>::allocator<NewShopPullDownItem>, COMDAT
; _this$ = ecx

; 161  : 	_ALLOCATOR() _THROW0()

  00000	8b c1		 mov	 eax, ecx

; 162  : 		{	// construct default allocator (do nothing)
; 163  : 		}

  00002	c3		 ret	 0
??0?$allocator@UNewShopPullDownItem@@@std@@QAE@XZ ENDP	; std::allocator<NewShopPullDownItem>::allocator<NewShopPullDownItem>
_TEXT	ENDS
PUBLIC	?deallocate@?$allocator@UNewShopPullDownItem@@@std@@QAEXPAUNewShopPullDownItem@@I@Z ; std::allocator<NewShopPullDownItem>::deallocate
; Function compile flags: /Ogsp
;	COMDAT ?deallocate@?$allocator@UNewShopPullDownItem@@@std@@QAEXPAUNewShopPullDownItem@@I@Z
_TEXT	SEGMENT
__Ptr$ = 8						; size = 4
___formal$ = 12						; size = 4
?deallocate@?$allocator@UNewShopPullDownItem@@@std@@QAEXPAUNewShopPullDownItem@@I@Z PROC ; std::allocator<NewShopPullDownItem>::deallocate, COMDAT
; _this$ = ecx

; 181  : 		{	// deallocate object at _Ptr, ignore size

  00000	55		 push	 ebp
  00001	8b ec		 mov	 ebp, esp

; 182  : 		::operator delete(_Ptr);

  00003	ff 75 08	 push	 DWORD PTR __Ptr$[ebp]
  00006	e8 00 00 00 00	 call	 ??3@YAXPAX@Z		; operator delete
  0000b	59		 pop	 ecx

; 183  : 		}

  0000c	5d		 pop	 ebp
  0000d	c2 08 00	 ret	 8
?deallocate@?$allocator@UNewShopPullDownItem@@@std@@QAEXPAUNewShopPullDownItem@@I@Z ENDP ; std::allocator<NewShopPullDownItem>::deallocate
_TEXT	ENDS
PUBLIC	?_Inside@?$vector@UtagAlchemicItemInfo@@V?$allocator@UtagAlchemicItemInfo@@@std@@@std@@IBE_NPBUtagAlchemicItemInfo@@@Z ; std::vector<tagAlchemicItemInfo,std::allocator<tagAlchemicItemInfo> >::_Inside
; Function compile flags: /Ogsp
; File c:\program files (x86)\microsoft visual studio 10.0\vc\include\vector
;	COMDAT ?_Inside@?$vector@UtagAlchemicItemInfo@@V?$allocator@UtagAlchemicItemInfo@@@std@@@std@@IBE_NPBUtagAlchemicItemInfo@@@Z
_TEXT	SEGMENT
__Ptr$ = 8						; size = 4
?_Inside@?$vector@UtagAlchemicItemInfo@@V?$allocator@UtagAlchemicItemInfo@@@std@@@std@@IBE_NPBUtagAlchemicItemInfo@@@Z PROC ; std::vector<tagAlchemicItemInfo,std::allocator<tagAlchemicItemInfo> >::_Inside, COMDAT
; _this$ = ecx

; 1285 : 		{	// test if _Ptr points inside vector

  00000	55		 push	 ebp
  00001	8b ec		 mov	 ebp, esp

; 1286 : 		return (_Ptr < this->_Mylast && this->_Myfirst <= _Ptr);

  00003	8b 45 08	 mov	 eax, DWORD PTR __Ptr$[ebp]
  00006	3b 41 04	 cmp	 eax, DWORD PTR [ecx+4]
  00009	73 09		 jae	 SHORT $LN3@Inside@2
  0000b	39 01		 cmp	 DWORD PTR [ecx], eax
  0000d	77 05		 ja	 SHORT $LN3@Inside@2
  0000f	33 c0		 xor	 eax, eax
  00011	40		 inc	 eax
  00012	eb 02		 jmp	 SHORT $LN4@Inside@2
$LN3@Inside@2:
  00014	33 c0		 xor	 eax, eax
$LN4@Inside@2:

; 1287 : 		}

  00016	5d		 pop	 ebp
  00017	c2 04 00	 ret	 4
?_Inside@?$vector@UtagAlchemicItemInfo@@V?$allocator@UtagAlchemicItemInfo@@@std@@@std@@IBE_NPBUtagAlchemicItemInfo@@@Z ENDP ; std::vector<tagAlchemicItemInfo,std::allocator<tagAlchemicItemInfo> >::_Inside
_TEXT	ENDS
PUBLIC	?_Orphan_range@?$vector@UtagAlchemicItemInfo@@V?$allocator@UtagAlchemicItemInfo@@@std@@@std@@IBEXPAUtagAlchemicItemInfo@@0@Z ; std::vector<tagAlchemicItemInfo,std::allocator<tagAlchemicItemInfo> >::_Orphan_range
; Function compile flags: /Ogsp
;	COMDAT ?_Orphan_range@?$vector@UtagAlchemicItemInfo@@V?$allocator@UtagAlchemicItemInfo@@@std@@@std@@IBEXPAUtagAlchemicItemInfo@@0@Z
_TEXT	SEGMENT
___formal$ = 8						; size = 4
___formal$ = 12						; size = 4
?_Orphan_range@?$vector@UtagAlchemicItemInfo@@V?$allocator@UtagAlchemicItemInfo@@@std@@@std@@IBEXPAUtagAlchemicItemInfo@@0@Z PROC ; std::vector<tagAlchemicItemInfo,std::allocator<tagAlchemicItemInfo> >::_Orphan_range, COMDAT
; _this$ = ecx

; 1454 : 		}

  00000	c2 08 00	 ret	 8
?_Orphan_range@?$vector@UtagAlchemicItemInfo@@V?$allocator@UtagAlchemicItemInfo@@@std@@@std@@IBEXPAUtagAlchemicItemInfo@@0@Z ENDP ; std::vector<tagAlchemicItemInfo,std::allocator<tagAlchemicItemInfo> >::_Orphan_range
_TEXT	ENDS
PUBLIC	??1?$_Vector_val@UtagAlchemicItemInfo@@V?$allocator@UtagAlchemicItemInfo@@@std@@@std@@QAE@XZ ; std::_Vector_val<tagAlchemicItemInfo,std::allocator<tagAlchemicItemInfo> >::~_Vector_val<tagAlchemicItemInfo,std::allocator<tagAlchemicItemInfo> >
; Function compile flags: /Ogsp
;	COMDAT ??1?$_Vector_val@UtagAlchemicItemInfo@@V?$allocator@UtagAlchemicItemInfo@@@std@@@std@@QAE@XZ
_TEXT	SEGMENT
??1?$_Vector_val@UtagAlchemicItemInfo@@V?$allocator@UtagAlchemicItemInfo@@@std@@@std@@QAE@XZ PROC ; std::_Vector_val<tagAlchemicItemInfo,std::allocator<tagAlchemicItemInfo> >::~_Vector_val<tagAlchemicItemInfo,std::allocator<tagAlchemicItemInfo> >, COMDAT
; _this$ = ecx

; 434  : 		}

  00000	c3		 ret	 0
??1?$_Vector_val@UtagAlchemicItemInfo@@V?$allocator@UtagAlchemicItemInfo@@@std@@@std@@QAE@XZ ENDP ; std::_Vector_val<tagAlchemicItemInfo,std::allocator<tagAlchemicItemInfo> >::~_Vector_val<tagAlchemicItemInfo,std::allocator<tagAlchemicItemInfo> >
_TEXT	ENDS
PUBLIC	??0?$allocator@UtagAlchemicItemInfo@@@std@@QAE@XZ ; std::allocator<tagAlchemicItemInfo>::allocator<tagAlchemicItemInfo>
; Function compile flags: /Ogsp
; File c:\program files (x86)\microsoft visual studio 10.0\vc\include\xmemory
;	COMDAT ??0?$allocator@UtagAlchemicItemInfo@@@std@@QAE@XZ
_TEXT	SEGMENT
??0?$allocator@UtagAlchemicItemInfo@@@std@@QAE@XZ PROC	; std::allocator<tagAlchemicItemInfo>::allocator<tagAlchemicItemInfo>, COMDAT
; _this$ = ecx

; 161  : 	_ALLOCATOR() _THROW0()

  00000	8b c1		 mov	 eax, ecx

; 162  : 		{	// construct default allocator (do nothing)
; 163  : 		}

  00002	c3		 ret	 0
??0?$allocator@UtagAlchemicItemInfo@@@std@@QAE@XZ ENDP	; std::allocator<tagAlchemicItemInfo>::allocator<tagAlchemicItemInfo>
_TEXT	ENDS
PUBLIC	??D?$_Vector_const_iterator@V?$_Vector_val@UtagAlchemicItemInfo@@V?$allocator@UtagAlchemicItemInfo@@@std@@@std@@@std@@QBEABUtagAlchemicItemInfo@@XZ ; std::_Vector_const_iterator<std::_Vector_val<tagAlchemicItemInfo,std::allocator<tagAlchemicItemInfo> > >::operator*
; Function compile flags: /Ogsp
; File c:\program files (x86)\microsoft visual studio 10.0\vc\include\vector
;	COMDAT ??D?$_Vector_const_iterator@V?$_Vector_val@UtagAlchemicItemInfo@@V?$allocator@UtagAlchemicItemInfo@@@std@@@std@@@std@@QBEABUtagAlchemicItemInfo@@XZ
_TEXT	SEGMENT
??D?$_Vector_const_iterator@V?$_Vector_val@UtagAlchemicItemInfo@@V?$allocator@UtagAlchemicItemInfo@@@std@@@std@@@std@@QBEABUtagAlchemicItemInfo@@XZ PROC ; std::_Vector_const_iterator<std::_Vector_val<tagAlchemicItemInfo,std::allocator<tagAlchemicItemInfo> > >::operator*, COMDAT
; _this$ = ecx

; 64   :  #if _ITERATOR_DEBUG_LEVEL == 2
; 65   : 		if (this->_Getcont() == 0
; 66   : 			|| this->_Ptr == 0
; 67   : 			|| this->_Ptr < ((_Myvec *)this->_Getcont())->_Myfirst
; 68   : 			|| ((_Myvec *)this->_Getcont())->_Mylast <= this->_Ptr)
; 69   : 			{	// report error
; 70   : 			_DEBUG_ERROR("vector iterator not dereferencable");
; 71   : 			_SCL_SECURE_OUT_OF_RANGE;
; 72   : 			}
; 73   : 
; 74   :  #elif _ITERATOR_DEBUG_LEVEL == 1
; 75   : 		_SCL_SECURE_VALIDATE(this->_Getcont() != 0);
; 76   : 		_SCL_SECURE_VALIDATE_RANGE(
; 77   : 			this->_Ptr != 0
; 78   : 			&& ((_Myvec *)this->_Getcont())->_Myfirst <= this->_Ptr
; 79   : 			&& this->_Ptr < ((_Myvec *)this->_Getcont())->_Mylast);
; 80   :  #endif /* _ITERATOR_DEBUG_LEVEL */
; 81   : 
; 82   : 		__analysis_assume(this->_Ptr != 0);
; 83   : 
; 84   : 		return (*this->_Ptr);

  00000	8b 01		 mov	 eax, DWORD PTR [ecx]

; 85   : 		}

  00002	c3		 ret	 0
??D?$_Vector_const_iterator@V?$_Vector_val@UtagAlchemicItemInfo@@V?$allocator@UtagAlchemicItemInfo@@@std@@@std@@@std@@QBEABUtagAlchemicItemInfo@@XZ ENDP ; std::_Vector_const_iterator<std::_Vector_val<tagAlchemicItemInfo,std::allocator<tagAlchemicItemInfo> > >::operator*
_TEXT	ENDS
PUBLIC	??E?$_Vector_const_iterator@V?$_Vector_val@UtagAlchemicItemInfo@@V?$allocator@UtagAlchemicItemInfo@@@std@@@std@@@std@@QAEAAV01@XZ ; std::_Vector_const_iterator<std::_Vector_val<tagAlchemicItemInfo,std::allocator<tagAlchemicItemInfo> > >::operator++
; Function compile flags: /Ogsp
;	COMDAT ??E?$_Vector_const_iterator@V?$_Vector_val@UtagAlchemicItemInfo@@V?$allocator@UtagAlchemicItemInfo@@@std@@@std@@@std@@QAEAAV01@XZ
_TEXT	SEGMENT
??E?$_Vector_const_iterator@V?$_Vector_val@UtagAlchemicItemInfo@@V?$allocator@UtagAlchemicItemInfo@@@std@@@std@@@std@@QAEAAV01@XZ PROC ; std::_Vector_const_iterator<std::_Vector_val<tagAlchemicItemInfo,std::allocator<tagAlchemicItemInfo> > >::operator++, COMDAT
; _this$ = ecx

; 93   : 		{	// preincrement

  00000	8b c1		 mov	 eax, ecx

; 94   :  #if _ITERATOR_DEBUG_LEVEL == 2
; 95   : 		if (this->_Getcont() == 0
; 96   : 			|| this->_Ptr == 0
; 97   : 			|| ((_Myvec *)this->_Getcont())->_Mylast <= this->_Ptr)
; 98   : 			{	// report error
; 99   : 			_DEBUG_ERROR("vector iterator not incrementable");
; 100  : 			_SCL_SECURE_OUT_OF_RANGE;
; 101  : 			}
; 102  : 
; 103  :  #elif _ITERATOR_DEBUG_LEVEL == 1
; 104  : 		_SCL_SECURE_VALIDATE(this->_Getcont() != 0);
; 105  : 		_SCL_SECURE_VALIDATE_RANGE(
; 106  : 			this->_Ptr != 0
; 107  : 			&& this->_Ptr < ((_Myvec *)this->_Getcont())->_Mylast);
; 108  :  #endif /* _ITERATOR_DEBUG_LEVEL */
; 109  : 
; 110  : 		++this->_Ptr;

  00002	83 00 1c	 add	 DWORD PTR [eax], 28	; 0000001cH

; 111  : 		return (*this);
; 112  : 		}

  00005	c3		 ret	 0
??E?$_Vector_const_iterator@V?$_Vector_val@UtagAlchemicItemInfo@@V?$allocator@UtagAlchemicItemInfo@@@std@@@std@@@std@@QAEAAV01@XZ ENDP ; std::_Vector_const_iterator<std::_Vector_val<tagAlchemicItemInfo,std::allocator<tagAlchemicItemInfo> > >::operator++
_TEXT	ENDS
PUBLIC	??0?$allocator@UNewShopPullDownItem@@@std@@QAE@ABV01@@Z ; std::allocator<NewShopPullDownItem>::allocator<NewShopPullDownItem>
; Function compile flags: /Ogsp
; File c:\program files (x86)\microsoft visual studio 10.0\vc\include\xmemory
;	COMDAT ??0?$allocator@UNewShopPullDownItem@@@std@@QAE@ABV01@@Z
_TEXT	SEGMENT
___formal$ = 8						; size = 4
??0?$allocator@UNewShopPullDownItem@@@std@@QAE@ABV01@@Z PROC ; std::allocator<NewShopPullDownItem>::allocator<NewShopPullDownItem>, COMDAT
; _this$ = ecx

; 165  : 	_ALLOCATOR(const _ALLOCATOR<_Ty>&) _THROW0()

  00000	8b c1		 mov	 eax, ecx

; 166  : 		{	// construct by copying (do nothing)
; 167  : 		}

  00002	c2 04 00	 ret	 4
??0?$allocator@UNewShopPullDownItem@@@std@@QAE@ABV01@@Z ENDP ; std::allocator<NewShopPullDownItem>::allocator<NewShopPullDownItem>
_TEXT	ENDS
PUBLIC	?max_size@?$allocator@UNewShopPullDownItem@@@std@@QBEIXZ ; std::allocator<NewShopPullDownItem>::max_size
; Function compile flags: /Ogsp
;	COMDAT ?max_size@?$allocator@UNewShopPullDownItem@@@std@@QBEIXZ
_TEXT	SEGMENT
?max_size@?$allocator@UNewShopPullDownItem@@@std@@QBEIXZ PROC ; std::allocator<NewShopPullDownItem>::max_size, COMDAT
; _this$ = ecx

; 218  : 		_SIZT _Count = (_SIZT)(-1) / sizeof (_Ty);
; 219  : 		return (0 < _Count ? _Count : 1);

  00000	b8 33 33 33 03	 mov	 eax, 53687091		; 03333333H

; 220  : 		}

  00005	c3		 ret	 0
?max_size@?$allocator@UNewShopPullDownItem@@@std@@QBEIXZ ENDP ; std::allocator<NewShopPullDownItem>::max_size
_TEXT	ENDS
PUBLIC	?capacity@?$vector@UtagAlchemicItemInfo@@V?$allocator@UtagAlchemicItemInfo@@@std@@@std@@QBEIXZ ; std::vector<tagAlchemicItemInfo,std::allocator<tagAlchemicItemInfo> >::capacity
; Function compile flags: /Ogsp
; File c:\program files (x86)\microsoft visual studio 10.0\vc\include\vector
;	COMDAT ?capacity@?$vector@UtagAlchemicItemInfo@@V?$allocator@UtagAlchemicItemInfo@@@std@@@std@@QBEIXZ
_TEXT	SEGMENT
?capacity@?$vector@UtagAlchemicItemInfo@@V?$allocator@UtagAlchemicItemInfo@@@std@@@std@@QBEIXZ PROC ; std::vector<tagAlchemicItemInfo,std::allocator<tagAlchemicItemInfo> >::capacity, COMDAT
; _this$ = ecx

; 777  : 		return (this->_Myend - this->_Myfirst);

  00000	8b 41 08	 mov	 eax, DWORD PTR [ecx+8]
  00003	2b 01		 sub	 eax, DWORD PTR [ecx]
  00005	6a 1c		 push	 28			; 0000001cH
  00007	99		 cdq
  00008	59		 pop	 ecx
  00009	f7 f9		 idiv	 ecx

; 778  : 		}

  0000b	c3		 ret	 0
?capacity@?$vector@UtagAlchemicItemInfo@@V?$allocator@UtagAlchemicItemInfo@@@std@@@std@@QBEIXZ ENDP ; std::vector<tagAlchemicItemInfo,std::allocator<tagAlchemicItemInfo> >::capacity
_TEXT	ENDS
PUBLIC	?_Xlen@?$vector@UtagAlchemicItemInfo@@V?$allocator@UtagAlchemicItemInfo@@@std@@@std@@IBEXXZ ; std::vector<tagAlchemicItemInfo,std::allocator<tagAlchemicItemInfo> >::_Xlen
; Function compile flags: /Ogsp
;	COMDAT ?_Xlen@?$vector@UtagAlchemicItemInfo@@V?$allocator@UtagAlchemicItemInfo@@@std@@@std@@IBEXXZ
_TEXT	SEGMENT
?_Xlen@?$vector@UtagAlchemicItemInfo@@V?$allocator@UtagAlchemicItemInfo@@@std@@@std@@IBEXXZ PROC ; std::vector<tagAlchemicItemInfo,std::allocator<tagAlchemicItemInfo> >::_Xlen, COMDAT
; _this$ = ecx

; 1427 : 		_Xlength_error("vector<T> too long");

  00000	68 00 00 00 00	 push	 OFFSET ??_C@_0BD@OLBABOEK@vector?$DMT?$DO?5too?5long?$AA@
  00005	ff 15 00 00 00
	00		 call	 DWORD PTR __imp_?_Xlength_error@std@@YAXPBD@Z
$LN4@Xlen@2:
$LN3@Xlen@2:
  0000b	cc		 int	 3
?_Xlen@?$vector@UtagAlchemicItemInfo@@V?$allocator@UtagAlchemicItemInfo@@@std@@@std@@IBEXXZ ENDP ; std::vector<tagAlchemicItemInfo,std::allocator<tagAlchemicItemInfo> >::_Xlen
_TEXT	ENDS
PUBLIC	??0?$allocator@UtagAlchemicItemInfo@@@std@@QAE@ABV01@@Z ; std::allocator<tagAlchemicItemInfo>::allocator<tagAlchemicItemInfo>
; Function compile flags: /Ogsp
; File c:\program files (x86)\microsoft visual studio 10.0\vc\include\xmemory
;	COMDAT ??0?$allocator@UtagAlchemicItemInfo@@@std@@QAE@ABV01@@Z
_TEXT	SEGMENT
___formal$ = 8						; size = 4
??0?$allocator@UtagAlchemicItemInfo@@@std@@QAE@ABV01@@Z PROC ; std::allocator<tagAlchemicItemInfo>::allocator<tagAlchemicItemInfo>, COMDAT
; _this$ = ecx

; 165  : 	_ALLOCATOR(const _ALLOCATOR<_Ty>&) _THROW0()

  00000	8b c1		 mov	 eax, ecx

; 166  : 		{	// construct by copying (do nothing)
; 167  : 		}

  00002	c2 04 00	 ret	 4
??0?$allocator@UtagAlchemicItemInfo@@@std@@QAE@ABV01@@Z ENDP ; std::allocator<tagAlchemicItemInfo>::allocator<tagAlchemicItemInfo>
_TEXT	ENDS
PUBLIC	?deallocate@?$allocator@UtagAlchemicItemInfo@@@std@@QAEXPAUtagAlchemicItemInfo@@I@Z ; std::allocator<tagAlchemicItemInfo>::deallocate
; Function compile flags: /Ogsp
;	COMDAT ?deallocate@?$allocator@UtagAlchemicItemInfo@@@std@@QAEXPAUtagAlchemicItemInfo@@I@Z
_TEXT	SEGMENT
__Ptr$ = 8						; size = 4
___formal$ = 12						; size = 4
?deallocate@?$allocator@UtagAlchemicItemInfo@@@std@@QAEXPAUtagAlchemicItemInfo@@I@Z PROC ; std::allocator<tagAlchemicItemInfo>::deallocate, COMDAT
; _this$ = ecx

; 181  : 		{	// deallocate object at _Ptr, ignore size

  00000	55		 push	 ebp
  00001	8b ec		 mov	 ebp, esp

; 182  : 		::operator delete(_Ptr);

  00003	ff 75 08	 push	 DWORD PTR __Ptr$[ebp]
  00006	e8 00 00 00 00	 call	 ??3@YAXPAX@Z		; operator delete
  0000b	59		 pop	 ecx

; 183  : 		}

  0000c	5d		 pop	 ebp
  0000d	c2 08 00	 ret	 8
?deallocate@?$allocator@UtagAlchemicItemInfo@@@std@@QAEXPAUtagAlchemicItemInfo@@I@Z ENDP ; std::allocator<tagAlchemicItemInfo>::deallocate
_TEXT	ENDS
PUBLIC	??0?$_Vector_const_iterator@V?$_Vector_val@UtagAlchemicItemInfo@@V?$allocator@UtagAlchemicItemInfo@@@std@@@std@@@std@@QAE@PAUtagAlchemicItemInfo@@PBU_Container_base0@1@@Z ; std::_Vector_const_iterator<std::_Vector_val<tagAlchemicItemInfo,std::allocator<tagAlchemicItemInfo> > >::_Vector_const_iterator<std::_Vector_val<tagAlchemicItemInfo,std::allocator<tagAlchemicItemInfo> > >
; Function compile flags: /Ogsp
; File c:\program files (x86)\microsoft visual studio 10.0\vc\include\vector
;	COMDAT ??0?$_Vector_const_iterator@V?$_Vector_val@UtagAlchemicItemInfo@@V?$allocator@UtagAlchemicItemInfo@@@std@@@std@@@std@@QAE@PAUtagAlchemicItemInfo@@PBU_Container_base0@1@@Z
_TEXT	SEGMENT
__Parg$ = 8						; size = 4
__Pvector$ = 12						; size = 4
??0?$_Vector_const_iterator@V?$_Vector_val@UtagAlchemicItemInfo@@V?$allocator@UtagAlchemicItemInfo@@@std@@@std@@@std@@QAE@PAUtagAlchemicItemInfo@@PBU_Container_base0@1@@Z PROC ; std::_Vector_const_iterator<std::_Vector_val<tagAlchemicItemInfo,std::allocator<tagAlchemicItemInfo> > >::_Vector_const_iterator<std::_Vector_val<tagAlchemicItemInfo,std::allocator<tagAlchemicItemInfo> > >, COMDAT
; _this$ = ecx

; 45   : 		{	// construct with pointer _Parg

  00000	55		 push	 ebp
  00001	8b ec		 mov	 ebp, esp
  00003	8b c1		 mov	 eax, ecx
  00005	8b 4d 08	 mov	 ecx, DWORD PTR __Parg$[ebp]
  00008	89 08		 mov	 DWORD PTR [eax], ecx

; 46   : 		this->_Adopt(_Pvector);
; 47   : 		}

  0000a	5d		 pop	 ebp
  0000b	c2 08 00	 ret	 8
??0?$_Vector_const_iterator@V?$_Vector_val@UtagAlchemicItemInfo@@V?$allocator@UtagAlchemicItemInfo@@@std@@@std@@@std@@QAE@PAUtagAlchemicItemInfo@@PBU_Container_base0@1@@Z ENDP ; std::_Vector_const_iterator<std::_Vector_val<tagAlchemicItemInfo,std::allocator<tagAlchemicItemInfo> > >::_Vector_const_iterator<std::_Vector_val<tagAlchemicItemInfo,std::allocator<tagAlchemicItemInfo> > >
_TEXT	ENDS
PUBLIC	?_Compat@?$_Vector_const_iterator@V?$_Vector_val@UtagAlchemicItemInfo@@V?$allocator@UtagAlchemicItemInfo@@@std@@@std@@@std@@QBEXABV12@@Z ; std::_Vector_const_iterator<std::_Vector_val<tagAlchemicItemInfo,std::allocator<tagAlchemicItemInfo> > >::_Compat
; Function compile flags: /Ogsp
;	COMDAT ?_Compat@?$_Vector_const_iterator@V?$_Vector_val@UtagAlchemicItemInfo@@V?$allocator@UtagAlchemicItemInfo@@@std@@@std@@@std@@QBEXABV12@@Z
_TEXT	SEGMENT
___formal$ = 8						; size = 4
?_Compat@?$_Vector_const_iterator@V?$_Vector_val@UtagAlchemicItemInfo@@V?$allocator@UtagAlchemicItemInfo@@@std@@@std@@@std@@QBEXABV12@@Z PROC ; std::_Vector_const_iterator<std::_Vector_val<tagAlchemicItemInfo,std::allocator<tagAlchemicItemInfo> > >::_Compat, COMDAT
; _this$ = ecx

; 253  : 		}

  00000	c2 04 00	 ret	 4
?_Compat@?$_Vector_const_iterator@V?$_Vector_val@UtagAlchemicItemInfo@@V?$allocator@UtagAlchemicItemInfo@@@std@@@std@@@std@@QBEXABV12@@Z ENDP ; std::_Vector_const_iterator<std::_Vector_val<tagAlchemicItemInfo,std::allocator<tagAlchemicItemInfo> > >::_Compat
_TEXT	ENDS
PUBLIC	?max_size@?$allocator@UtagAlchemicItemInfo@@@std@@QBEIXZ ; std::allocator<tagAlchemicItemInfo>::max_size
; Function compile flags: /Ogsp
; File c:\program files (x86)\microsoft visual studio 10.0\vc\include\xmemory
;	COMDAT ?max_size@?$allocator@UtagAlchemicItemInfo@@@std@@QBEIXZ
_TEXT	SEGMENT
?max_size@?$allocator@UtagAlchemicItemInfo@@@std@@QBEIXZ PROC ; std::allocator<tagAlchemicItemInfo>::max_size, COMDAT
; _this$ = ecx

; 218  : 		_SIZT _Count = (_SIZT)(-1) / sizeof (_Ty);
; 219  : 		return (0 < _Count ? _Count : 1);

  00000	b8 49 92 24 09	 mov	 eax, 153391689		; 09249249H

; 220  : 		}

  00005	c3		 ret	 0
?max_size@?$allocator@UtagAlchemicItemInfo@@@std@@QBEIXZ ENDP ; std::allocator<tagAlchemicItemInfo>::max_size
_TEXT	ENDS
PUBLIC	??0?$_Vector_const_iterator@V?$_Vector_val@UNewShopPullDownItem@@V?$allocator@UNewShopPullDownItem@@@std@@@std@@@std@@QAE@PAUNewShopPullDownItem@@PBU_Container_base0@1@@Z ; std::_Vector_const_iterator<std::_Vector_val<NewShopPullDownItem,std::allocator<NewShopPullDownItem> > >::_Vector_const_iterator<std::_Vector_val<NewShopPullDownItem,std::allocator<NewShopPullDownItem> > >
; Function compile flags: /Ogsp
; File c:\program files (x86)\microsoft visual studio 10.0\vc\include\vector
;	COMDAT ??0?$_Vector_const_iterator@V?$_Vector_val@UNewShopPullDownItem@@V?$allocator@UNewShopPullDownItem@@@std@@@std@@@std@@QAE@PAUNewShopPullDownItem@@PBU_Container_base0@1@@Z
_TEXT	SEGMENT
__Parg$ = 8						; size = 4
__Pvector$ = 12						; size = 4
??0?$_Vector_const_iterator@V?$_Vector_val@UNewShopPullDownItem@@V?$allocator@UNewShopPullDownItem@@@std@@@std@@@std@@QAE@PAUNewShopPullDownItem@@PBU_Container_base0@1@@Z PROC ; std::_Vector_const_iterator<std::_Vector_val<NewShopPullDownItem,std::allocator<NewShopPullDownItem> > >::_Vector_const_iterator<std::_Vector_val<NewShopPullDownItem,std::allocator<NewShopPullDownItem> > >, COMDAT
; _this$ = ecx

; 45   : 		{	// construct with pointer _Parg

  00000	55		 push	 ebp
  00001	8b ec		 mov	 ebp, esp
  00003	8b c1		 mov	 eax, ecx
  00005	8b 4d 08	 mov	 ecx, DWORD PTR __Parg$[ebp]
  00008	89 08		 mov	 DWORD PTR [eax], ecx

; 46   : 		this->_Adopt(_Pvector);
; 47   : 		}

  0000a	5d		 pop	 ebp
  0000b	c2 08 00	 ret	 8
??0?$_Vector_const_iterator@V?$_Vector_val@UNewShopPullDownItem@@V?$allocator@UNewShopPullDownItem@@@std@@@std@@@std@@QAE@PAUNewShopPullDownItem@@PBU_Container_base0@1@@Z ENDP ; std::_Vector_const_iterator<std::_Vector_val<NewShopPullDownItem,std::allocator<NewShopPullDownItem> > >::_Vector_const_iterator<std::_Vector_val<NewShopPullDownItem,std::allocator<NewShopPullDownItem> > >
_TEXT	ENDS
PUBLIC	?_Compat@?$_Vector_const_iterator@V?$_Vector_val@UNewShopPullDownItem@@V?$allocator@UNewShopPullDownItem@@@std@@@std@@@std@@QBEXABV12@@Z ; std::_Vector_const_iterator<std::_Vector_val<NewShopPullDownItem,std::allocator<NewShopPullDownItem> > >::_Compat
; Function compile flags: /Ogsp
;	COMDAT ?_Compat@?$_Vector_const_iterator@V?$_Vector_val@UNewShopPullDownItem@@V?$allocator@UNewShopPullDownItem@@@std@@@std@@@std@@QBEXABV12@@Z
_TEXT	SEGMENT
___formal$ = 8						; size = 4
?_Compat@?$_Vector_const_iterator@V?$_Vector_val@UNewShopPullDownItem@@V?$allocator@UNewShopPullDownItem@@@std@@@std@@@std@@QBEXABV12@@Z PROC ; std::_Vector_const_iterator<std::_Vector_val<NewShopPullDownItem,std::allocator<NewShopPullDownItem> > >::_Compat, COMDAT
; _this$ = ecx

; 253  : 		}

  00000	c2 04 00	 ret	 4
?_Compat@?$_Vector_const_iterator@V?$_Vector_val@UNewShopPullDownItem@@V?$allocator@UNewShopPullDownItem@@@std@@@std@@@std@@QBEXABV12@@Z ENDP ; std::_Vector_const_iterator<std::_Vector_val<NewShopPullDownItem,std::allocator<NewShopPullDownItem> > >::_Compat
_TEXT	ENDS
PUBLIC	??$addressof@$$CBUNewShopPullDownItem@@@std@@YAPBUNewShopPullDownItem@@ABU1@@Z ; std::addressof<NewShopPullDownItem const >
; Function compile flags: /Ogsp
; File c:\program files (x86)\microsoft visual studio 10.0\vc\include\xmemory
;	COMDAT ??$addressof@$$CBUNewShopPullDownItem@@@std@@YAPBUNewShopPullDownItem@@ABU1@@Z
_TEXT	SEGMENT
__Val$ = 8						; size = 4
??$addressof@$$CBUNewShopPullDownItem@@@std@@YAPBUNewShopPullDownItem@@ABU1@@Z PROC ; std::addressof<NewShopPullDownItem const >, COMDAT

; 110  : 	{	// return address of _Val

  00000	55		 push	 ebp
  00001	8b ec		 mov	 ebp, esp

; 111  : 	return ((_Ty *) &(char&)_Val);

  00003	8b 45 08	 mov	 eax, DWORD PTR __Val$[ebp]

; 112  : 	}

  00006	5d		 pop	 ebp
  00007	c3		 ret	 0
??$addressof@$$CBUNewShopPullDownItem@@@std@@YAPBUNewShopPullDownItem@@ABU1@@Z ENDP ; std::addressof<NewShopPullDownItem const >
_TEXT	ENDS
PUBLIC	??$addressof@$$CBUtagAlchemicItemInfo@@@std@@YAPBUtagAlchemicItemInfo@@ABU1@@Z ; std::addressof<tagAlchemicItemInfo const >
; Function compile flags: /Ogsp
;	COMDAT ??$addressof@$$CBUtagAlchemicItemInfo@@@std@@YAPBUtagAlchemicItemInfo@@ABU1@@Z
_TEXT	SEGMENT
__Val$ = 8						; size = 4
??$addressof@$$CBUtagAlchemicItemInfo@@@std@@YAPBUtagAlchemicItemInfo@@ABU1@@Z PROC ; std::addressof<tagAlchemicItemInfo const >, COMDAT

; 110  : 	{	// return address of _Val

  00000	55		 push	 ebp
  00001	8b ec		 mov	 ebp, esp

; 111  : 	return ((_Ty *) &(char&)_Val);

  00003	8b 45 08	 mov	 eax, DWORD PTR __Val$[ebp]

; 112  : 	}

  00006	5d		 pop	 ebp
  00007	c3		 ret	 0
??$addressof@$$CBUtagAlchemicItemInfo@@@std@@YAPBUtagAlchemicItemInfo@@ABU1@@Z ENDP ; std::addressof<tagAlchemicItemInfo const >
_TEXT	ENDS
PUBLIC	__TI2?AVbad_alloc@std@@
PUBLIC	??$_Allocate@UNewShopPullDownItem@@@std@@YAPAUNewShopPullDownItem@@IPAU1@@Z ; std::_Allocate<NewShopPullDownItem>
PUBLIC	__CTA2?AVbad_alloc@std@@
PUBLIC	__CT??_R0?AVbad_alloc@std@@@8??0bad_alloc@std@@QAE@ABV01@@Z12
PUBLIC	??0bad_alloc@std@@QAE@ABV01@@Z			; std::bad_alloc::bad_alloc
PUBLIC	__CT??_R0?AVexception@std@@@8??0exception@std@@QAE@ABV01@@Z12
EXTRN	??2@YAPAXI@Z:PROC				; operator new
EXTRN	__CxxThrowException@8:PROC
EXTRN	??0exception@std@@QAE@ABV01@@Z:PROC		; std::exception::exception
;	COMDAT __CT??_R0?AVexception@std@@@8??0exception@std@@QAE@ABV01@@Z12
; File c:\program files (x86)\microsoft visual studio 10.0\vc\include\exception
xdata$x	SEGMENT
__CT??_R0?AVexception@std@@@8??0exception@std@@QAE@ABV01@@Z12 DD 00H
	DD	FLAT:??_R0?AVexception@std@@@8
	DD	00H
	DD	0ffffffffH
	ORG $+4
	DD	0cH
	DD	FLAT:??0exception@std@@QAE@ABV01@@Z
xdata$x	ENDS
;	COMDAT __CT??_R0?AVbad_alloc@std@@@8??0bad_alloc@std@@QAE@ABV01@@Z12
xdata$x	SEGMENT
__CT??_R0?AVbad_alloc@std@@@8??0bad_alloc@std@@QAE@ABV01@@Z12 DD 00H
	DD	FLAT:??_R0?AVbad_alloc@std@@@8
	DD	00H
	DD	0ffffffffH
	ORG $+4
	DD	0cH
	DD	FLAT:??0bad_alloc@std@@QAE@ABV01@@Z
xdata$x	ENDS
;	COMDAT __CTA2?AVbad_alloc@std@@
xdata$x	SEGMENT
__CTA2?AVbad_alloc@std@@ DD 02H
	DD	FLAT:__CT??_R0?AVbad_alloc@std@@@8??0bad_alloc@std@@QAE@ABV01@@Z12
	DD	FLAT:__CT??_R0?AVexception@std@@@8??0exception@std@@QAE@ABV01@@Z12
xdata$x	ENDS
;	COMDAT __TI2?AVbad_alloc@std@@
xdata$x	SEGMENT
__TI2?AVbad_alloc@std@@ DD 00H
	DD	FLAT:??1bad_alloc@std@@UAE@XZ
	DD	00H
	DD	FLAT:__CTA2?AVbad_alloc@std@@
; Function compile flags: /Ogsp
; File c:\program files (x86)\microsoft visual studio 10.0\vc\include\xmemory
xdata$x	ENDS
;	COMDAT ??$_Allocate@UNewShopPullDownItem@@@std@@YAPAUNewShopPullDownItem@@IPAU1@@Z
_TEXT	SEGMENT
$T512394 = -12						; size = 12
$T512399 = 8						; size = 4
__Count$ = 8						; size = 4
___formal$ = 12						; size = 4
??$_Allocate@UNewShopPullDownItem@@@std@@YAPAUNewShopPullDownItem@@IPAU1@@Z PROC ; std::_Allocate<NewShopPullDownItem>, COMDAT

; 30   : 	{	// allocate storage for _Count elements of type _Ty

  00000	55		 push	 ebp
  00001	8b ec		 mov	 ebp, esp

; 31   : 	void *_Ptr = 0;
; 32   : 
; 33   : 	if (_Count <= 0)

  00003	8b 4d 08	 mov	 ecx, DWORD PTR __Count$[ebp]
  00006	83 ec 0c	 sub	 esp, 12			; 0000000cH
  00009	33 c0		 xor	 eax, eax
  0000b	85 c9		 test	 ecx, ecx

; 34   : 		_Count = 0;
; 35   : 	else if (((_SIZT)(-1) / sizeof (_Ty) < _Count)

  0000d	74 3c		 je	 SHORT $LN5@Allocate

; 36   : 		|| (_Ptr = ::operator new(_Count * sizeof (_Ty))) == 0)

  0000f	81 f9 33 33 33
	03		 cmp	 ecx, 53687091		; 03333333H
  00015	77 0e		 ja	 SHORT $LN1@Allocate
  00017	6b c9 50	 imul	 ecx, 80			; 00000050H
  0001a	51		 push	 ecx
  0001b	e8 00 00 00 00	 call	 ??2@YAPAXI@Z		; operator new
  00020	59		 pop	 ecx
  00021	85 c0		 test	 eax, eax

; 38   : 
; 39   : 	return ((_Ty _FARQ *)_Ptr);

  00023	75 26		 jne	 SHORT $LN5@Allocate
$LN1@Allocate:

; 37   : 		_THROW_NCEE(bad_alloc, 0);

  00025	83 65 08 00	 and	 DWORD PTR $T512399[ebp], 0
  00029	8d 45 08	 lea	 eax, DWORD PTR $T512399[ebp]
  0002c	50		 push	 eax
  0002d	8d 4d f4	 lea	 ecx, DWORD PTR $T512394[ebp]
  00030	ff 15 00 00 00
	00		 call	 DWORD PTR __imp_??0exception@std@@QAE@ABQBD@Z
  00036	68 00 00 00 00	 push	 OFFSET __TI2?AVbad_alloc@std@@
  0003b	8d 45 f4	 lea	 eax, DWORD PTR $T512394[ebp]
  0003e	50		 push	 eax
  0003f	c7 45 f4 00 00
	00 00		 mov	 DWORD PTR $T512394[ebp], OFFSET ??_7bad_alloc@std@@6B@
  00046	e8 00 00 00 00	 call	 __CxxThrowException@8
$LN10@Allocate:
$LN5@Allocate:

; 40   : 	}

  0004b	c9		 leave
  0004c	c3		 ret	 0
$LN9@Allocate:
??$_Allocate@UNewShopPullDownItem@@@std@@YAPAUNewShopPullDownItem@@IPAU1@@Z ENDP ; std::_Allocate<NewShopPullDownItem>
_TEXT	ENDS
PUBLIC	??$_Allocate@UtagAlchemicItemInfo@@@std@@YAPAUtagAlchemicItemInfo@@IPAU1@@Z ; std::_Allocate<tagAlchemicItemInfo>
; Function compile flags: /Ogsp
;	COMDAT ??$_Allocate@UtagAlchemicItemInfo@@@std@@YAPAUtagAlchemicItemInfo@@IPAU1@@Z
_TEXT	SEGMENT
$T512404 = -12						; size = 12
$T512408 = 8						; size = 4
__Count$ = 8						; size = 4
___formal$ = 12						; size = 4
??$_Allocate@UtagAlchemicItemInfo@@@std@@YAPAUtagAlchemicItemInfo@@IPAU1@@Z PROC ; std::_Allocate<tagAlchemicItemInfo>, COMDAT

; 30   : 	{	// allocate storage for _Count elements of type _Ty

  00000	55		 push	 ebp
  00001	8b ec		 mov	 ebp, esp

; 31   : 	void *_Ptr = 0;
; 32   : 
; 33   : 	if (_Count <= 0)

  00003	8b 4d 08	 mov	 ecx, DWORD PTR __Count$[ebp]
  00006	83 ec 0c	 sub	 esp, 12			; 0000000cH
  00009	33 c0		 xor	 eax, eax
  0000b	85 c9		 test	 ecx, ecx

; 34   : 		_Count = 0;
; 35   : 	else if (((_SIZT)(-1) / sizeof (_Ty) < _Count)

  0000d	74 3c		 je	 SHORT $LN5@Allocate@2

; 36   : 		|| (_Ptr = ::operator new(_Count * sizeof (_Ty))) == 0)

  0000f	81 f9 49 92 24
	09		 cmp	 ecx, 153391689		; 09249249H
  00015	77 0e		 ja	 SHORT $LN1@Allocate@2
  00017	6b c9 1c	 imul	 ecx, 28			; 0000001cH
  0001a	51		 push	 ecx
  0001b	e8 00 00 00 00	 call	 ??2@YAPAXI@Z		; operator new
  00020	59		 pop	 ecx
  00021	85 c0		 test	 eax, eax

; 38   : 
; 39   : 	return ((_Ty _FARQ *)_Ptr);

  00023	75 26		 jne	 SHORT $LN5@Allocate@2
$LN1@Allocate@2:

; 37   : 		_THROW_NCEE(bad_alloc, 0);

  00025	83 65 08 00	 and	 DWORD PTR $T512408[ebp], 0
  00029	8d 45 08	 lea	 eax, DWORD PTR $T512408[ebp]
  0002c	50		 push	 eax
  0002d	8d 4d f4	 lea	 ecx, DWORD PTR $T512404[ebp]
  00030	ff 15 00 00 00
	00		 call	 DWORD PTR __imp_??0exception@std@@QAE@ABQBD@Z
  00036	68 00 00 00 00	 push	 OFFSET __TI2?AVbad_alloc@std@@
  0003b	8d 45 f4	 lea	 eax, DWORD PTR $T512404[ebp]
  0003e	50		 push	 eax
  0003f	c7 45 f4 00 00
	00 00		 mov	 DWORD PTR $T512404[ebp], OFFSET ??_7bad_alloc@std@@6B@
  00046	e8 00 00 00 00	 call	 __CxxThrowException@8
$LN10@Allocate@2:
$LN5@Allocate@2:

; 40   : 	}

  0004b	c9		 leave
  0004c	c3		 ret	 0
$LN9@Allocate@2:
??$_Allocate@UtagAlchemicItemInfo@@@std@@YAPAUtagAlchemicItemInfo@@IPAU1@@Z ENDP ; std::_Allocate<tagAlchemicItemInfo>
_TEXT	ENDS
PUBLIC	??G?$_Vector_const_iterator@V?$_Vector_val@UtagAlchemicItemInfo@@V?$allocator@UtagAlchemicItemInfo@@@std@@@std@@@std@@QBEHABV01@@Z ; std::_Vector_const_iterator<std::_Vector_val<tagAlchemicItemInfo,std::allocator<tagAlchemicItemInfo> > >::operator-
; Function compile flags: /Ogsp
; File c:\program files (x86)\microsoft visual studio 10.0\vc\include\vector
;	COMDAT ??G?$_Vector_const_iterator@V?$_Vector_val@UtagAlchemicItemInfo@@V?$allocator@UtagAlchemicItemInfo@@@std@@@std@@@std@@QBEHABV01@@Z
_TEXT	SEGMENT
__Right$ = 8						; size = 4
??G?$_Vector_const_iterator@V?$_Vector_val@UtagAlchemicItemInfo@@V?$allocator@UtagAlchemicItemInfo@@@std@@@std@@@std@@QBEHABV01@@Z PROC ; std::_Vector_const_iterator<std::_Vector_val<tagAlchemicItemInfo,std::allocator<tagAlchemicItemInfo> > >::operator-, COMDAT
; _this$ = ecx

; 190  : 		{	// return difference of iterators

  00000	55		 push	 ebp
  00001	8b ec		 mov	 ebp, esp

; 191  : 		_Compat(_Right);
; 192  : 		return (this->_Ptr - _Right._Ptr);

  00003	8b 01		 mov	 eax, DWORD PTR [ecx]
  00005	8b 4d 08	 mov	 ecx, DWORD PTR __Right$[ebp]
  00008	2b 01		 sub	 eax, DWORD PTR [ecx]
  0000a	6a 1c		 push	 28			; 0000001cH
  0000c	99		 cdq
  0000d	59		 pop	 ecx
  0000e	f7 f9		 idiv	 ecx

; 193  : 		}

  00010	5d		 pop	 ebp
  00011	c2 04 00	 ret	 4
??G?$_Vector_const_iterator@V?$_Vector_val@UtagAlchemicItemInfo@@V?$allocator@UtagAlchemicItemInfo@@@std@@@std@@@std@@QBEHABV01@@Z ENDP ; std::_Vector_const_iterator<std::_Vector_val<tagAlchemicItemInfo,std::allocator<tagAlchemicItemInfo> > >::operator-
_TEXT	ENDS
PUBLIC	??$forward@AAUNewShopPullDownItem@@@std@@YAAAUNewShopPullDownItem@@AAU1@@Z ; std::forward<NewShopPullDownItem &>
; Function compile flags: /Ogsp
; File c:\program files (x86)\microsoft visual studio 10.0\vc\include\utility
;	COMDAT ??$forward@AAUNewShopPullDownItem@@@std@@YAAAUNewShopPullDownItem@@AAU1@@Z
_TEXT	SEGMENT
__Arg$ = 8						; size = 4
??$forward@AAUNewShopPullDownItem@@@std@@YAAAUNewShopPullDownItem@@AAU1@@Z PROC ; std::forward<NewShopPullDownItem &>, COMDAT

; 78   : 	{	// forward _Arg, given explicitly specified type parameter

  00000	55		 push	 ebp
  00001	8b ec		 mov	 ebp, esp

; 79   : 	return ((_Ty&&)_Arg);

  00003	8b 45 08	 mov	 eax, DWORD PTR __Arg$[ebp]

; 80   : 	}

  00006	5d		 pop	 ebp
  00007	c3		 ret	 0
??$forward@AAUNewShopPullDownItem@@@std@@YAAAUNewShopPullDownItem@@AAU1@@Z ENDP ; std::forward<NewShopPullDownItem &>
_TEXT	ENDS
PUBLIC	??$forward@ABUNewShopPullDownItem@@@std@@YAABUNewShopPullDownItem@@ABU1@@Z ; std::forward<NewShopPullDownItem const &>
; Function compile flags: /Ogsp
;	COMDAT ??$forward@ABUNewShopPullDownItem@@@std@@YAABUNewShopPullDownItem@@ABU1@@Z
_TEXT	SEGMENT
__Arg$ = 8						; size = 4
??$forward@ABUNewShopPullDownItem@@@std@@YAABUNewShopPullDownItem@@ABU1@@Z PROC ; std::forward<NewShopPullDownItem const &>, COMDAT

; 78   : 	{	// forward _Arg, given explicitly specified type parameter

  00000	55		 push	 ebp
  00001	8b ec		 mov	 ebp, esp

; 79   : 	return ((_Ty&&)_Arg);

  00003	8b 45 08	 mov	 eax, DWORD PTR __Arg$[ebp]

; 80   : 	}

  00006	5d		 pop	 ebp
  00007	c3		 ret	 0
??$forward@ABUNewShopPullDownItem@@@std@@YAABUNewShopPullDownItem@@ABU1@@Z ENDP ; std::forward<NewShopPullDownItem const &>
_TEXT	ENDS
PUBLIC	??$forward@AAUtagAlchemicItemInfo@@@std@@YAAAUtagAlchemicItemInfo@@AAU1@@Z ; std::forward<tagAlchemicItemInfo &>
; Function compile flags: /Ogsp
;	COMDAT ??$forward@AAUtagAlchemicItemInfo@@@std@@YAAAUtagAlchemicItemInfo@@AAU1@@Z
_TEXT	SEGMENT
__Arg$ = 8						; size = 4
??$forward@AAUtagAlchemicItemInfo@@@std@@YAAAUtagAlchemicItemInfo@@AAU1@@Z PROC ; std::forward<tagAlchemicItemInfo &>, COMDAT

; 78   : 	{	// forward _Arg, given explicitly specified type parameter

  00000	55		 push	 ebp
  00001	8b ec		 mov	 ebp, esp

; 79   : 	return ((_Ty&&)_Arg);

  00003	8b 45 08	 mov	 eax, DWORD PTR __Arg$[ebp]

; 80   : 	}

  00006	5d		 pop	 ebp
  00007	c3		 ret	 0
??$forward@AAUtagAlchemicItemInfo@@@std@@YAAAUtagAlchemicItemInfo@@AAU1@@Z ENDP ; std::forward<tagAlchemicItemInfo &>
_TEXT	ENDS
PUBLIC	??$forward@ABUtagAlchemicItemInfo@@@std@@YAABUtagAlchemicItemInfo@@ABU1@@Z ; std::forward<tagAlchemicItemInfo const &>
; Function compile flags: /Ogsp
;	COMDAT ??$forward@ABUtagAlchemicItemInfo@@@std@@YAABUtagAlchemicItemInfo@@ABU1@@Z
_TEXT	SEGMENT
__Arg$ = 8						; size = 4
??$forward@ABUtagAlchemicItemInfo@@@std@@YAABUtagAlchemicItemInfo@@ABU1@@Z PROC ; std::forward<tagAlchemicItemInfo const &>, COMDAT

; 78   : 	{	// forward _Arg, given explicitly specified type parameter

  00000	55		 push	 ebp
  00001	8b ec		 mov	 ebp, esp

; 79   : 	return ((_Ty&&)_Arg);

  00003	8b 45 08	 mov	 eax, DWORD PTR __Arg$[ebp]

; 80   : 	}

  00006	5d		 pop	 ebp
  00007	c3		 ret	 0
??$forward@ABUtagAlchemicItemInfo@@@std@@YAABUtagAlchemicItemInfo@@ABU1@@Z ENDP ; std::forward<tagAlchemicItemInfo const &>
_TEXT	ENDS
PUBLIC	??$_Ptr_cat@UtagAlchemicItemInfo@@U1@@std@@YA?AU_Nonscalar_ptr_iterator_tag@0@PAUtagAlchemicItemInfo@@0@Z ; std::_Ptr_cat<tagAlchemicItemInfo,tagAlchemicItemInfo>
; Function compile flags: /Ogsp
; File c:\program files (x86)\microsoft visual studio 10.0\vc\include\xutility
;	COMDAT ??$_Ptr_cat@UtagAlchemicItemInfo@@U1@@std@@YA?AU_Nonscalar_ptr_iterator_tag@0@PAUtagAlchemicItemInfo@@0@Z
_TEXT	SEGMENT
__Cat$ = -1						; size = 1
___formal$ = 8						; size = 4
___formal$ = 12						; size = 4
??$_Ptr_cat@UtagAlchemicItemInfo@@U1@@std@@YA?AU_Nonscalar_ptr_iterator_tag@0@PAUtagAlchemicItemInfo@@0@Z PROC ; std::_Ptr_cat<tagAlchemicItemInfo,tagAlchemicItemInfo>, COMDAT

; 516  : 	{	// return pointer category from pointers

  00000	55		 push	 ebp
  00001	8b ec		 mov	 ebp, esp
  00003	51		 push	 ecx

; 517  : 	typename _Ptr_cat_helper<_Elem1, _Elem2>::_Type _Cat;
; 518  : 	return (_Cat);

  00004	8a 45 ff	 mov	 al, BYTE PTR __Cat$[ebp]

; 519  : 	}

  00007	c9		 leave
  00008	c3		 ret	 0
??$_Ptr_cat@UtagAlchemicItemInfo@@U1@@std@@YA?AU_Nonscalar_ptr_iterator_tag@0@PAUtagAlchemicItemInfo@@0@Z ENDP ; std::_Ptr_cat<tagAlchemicItemInfo,tagAlchemicItemInfo>
_TEXT	ENDS
PUBLIC	??$_Ptr_cat@UNewShopPullDownItem@@U1@@std@@YA?AU_Nonscalar_ptr_iterator_tag@0@PAUNewShopPullDownItem@@0@Z ; std::_Ptr_cat<NewShopPullDownItem,NewShopPullDownItem>
; Function compile flags: /Ogsp
;	COMDAT ??$_Ptr_cat@UNewShopPullDownItem@@U1@@std@@YA?AU_Nonscalar_ptr_iterator_tag@0@PAUNewShopPullDownItem@@0@Z
_TEXT	SEGMENT
__Cat$ = -1						; size = 1
___formal$ = 8						; size = 4
___formal$ = 12						; size = 4
??$_Ptr_cat@UNewShopPullDownItem@@U1@@std@@YA?AU_Nonscalar_ptr_iterator_tag@0@PAUNewShopPullDownItem@@0@Z PROC ; std::_Ptr_cat<NewShopPullDownItem,NewShopPullDownItem>, COMDAT

; 516  : 	{	// return pointer category from pointers

  00000	55		 push	 ebp
  00001	8b ec		 mov	 ebp, esp
  00003	51		 push	 ecx

; 517  : 	typename _Ptr_cat_helper<_Elem1, _Elem2>::_Type _Cat;
; 518  : 	return (_Cat);

  00004	8a 45 ff	 mov	 al, BYTE PTR __Cat$[ebp]

; 519  : 	}

  00007	c9		 leave
  00008	c3		 ret	 0
??$_Ptr_cat@UNewShopPullDownItem@@U1@@std@@YA?AU_Nonscalar_ptr_iterator_tag@0@PAUNewShopPullDownItem@@0@Z ENDP ; std::_Ptr_cat<NewShopPullDownItem,NewShopPullDownItem>
_TEXT	ENDS
PUBLIC	??0NewShopPullDownItem@@QAE@ABU0@@Z		; NewShopPullDownItem::NewShopPullDownItem
EXTRN	__imp_??0ioHashString@@QAE@ABV0@@Z:PROC
;	COMDAT xdata$x
xdata$x	SEGMENT
__unwindtable$??0NewShopPullDownItem@@QAE@ABU0@@Z DD 0ffffffffH
	DD	FLAT:__unwindfunclet$??0NewShopPullDownItem@@QAE@ABU0@@Z$0
	DD	00H
	DD	FLAT:__unwindfunclet$??0NewShopPullDownItem@@QAE@ABU0@@Z$1
__ehfuncinfo$??0NewShopPullDownItem@@QAE@ABU0@@Z DD 019930522H
	DD	02H
	DD	FLAT:__unwindtable$??0NewShopPullDownItem@@QAE@ABU0@@Z
	DD	2 DUP(00H)
	DD	2 DUP(00H)
	DD	00H
	DD	01H
; Function compile flags: /Ogsp
xdata$x	ENDS
;	COMDAT ??0NewShopPullDownItem@@QAE@ABU0@@Z
_TEXT	SEGMENT
_this$ = -16						; size = 4
__$EHRec$ = -12						; size = 12
___that$ = 8						; size = 4
??0NewShopPullDownItem@@QAE@ABU0@@Z PROC		; NewShopPullDownItem::NewShopPullDownItem, COMDAT
; _this$ = ecx
  00000	6a 04		 push	 4
  00002	b8 00 00 00 00	 mov	 eax, __ehhandler$??0NewShopPullDownItem@@QAE@ABU0@@Z
  00007	e8 00 00 00 00	 call	 __EH_prolog3
  0000c	8b f1		 mov	 esi, ecx
  0000e	89 75 f0	 mov	 DWORD PTR _this$[ebp], esi
  00011	8b 7d 08	 mov	 edi, DWORD PTR ___that$[ebp]
  00014	8b 1d 00 00 00
	00		 mov	 ebx, DWORD PTR __imp_??0ioHashString@@QAE@ABV0@@Z
  0001a	57		 push	 edi
  0001b	ff d3		 call	 ebx
  0001d	8b 47 10	 mov	 eax, DWORD PTR [edi+16]
  00020	83 65 fc 00	 and	 DWORD PTR __$EHRec$[ebp+8], 0
  00024	89 46 10	 mov	 DWORD PTR [esi+16], eax
  00027	8b 47 14	 mov	 eax, DWORD PTR [edi+20]
  0002a	89 46 14	 mov	 DWORD PTR [esi+20], eax
  0002d	8a 47 18	 mov	 al, BYTE PTR [edi+24]
  00030	88 46 18	 mov	 BYTE PTR [esi+24], al
  00033	8b 47 1c	 mov	 eax, DWORD PTR [edi+28]
  00036	89 46 1c	 mov	 DWORD PTR [esi+28], eax
  00039	8a 47 20	 mov	 al, BYTE PTR [edi+32]
  0003c	88 46 20	 mov	 BYTE PTR [esi+32], al
  0003f	8d 47 24	 lea	 eax, DWORD PTR [edi+36]
  00042	50		 push	 eax
  00043	8d 4e 24	 lea	 ecx, DWORD PTR [esi+36]
  00046	ff d3		 call	 ebx
  00048	8b 47 34	 mov	 eax, DWORD PTR [edi+52]
  0004b	89 46 34	 mov	 DWORD PTR [esi+52], eax
  0004e	8a 47 38	 mov	 al, BYTE PTR [edi+56]
  00051	88 46 38	 mov	 BYTE PTR [esi+56], al
  00054	8d 47 3c	 lea	 eax, DWORD PTR [edi+60]
  00057	50		 push	 eax
  00058	8d 4e 3c	 lea	 ecx, DWORD PTR [esi+60]
  0005b	c6 45 fc 01	 mov	 BYTE PTR __$EHRec$[ebp+8], 1
  0005f	ff d3		 call	 ebx
  00061	8b 47 4c	 mov	 eax, DWORD PTR [edi+76]
  00064	89 46 4c	 mov	 DWORD PTR [esi+76], eax
  00067	8b c6		 mov	 eax, esi
  00069	e8 00 00 00 00	 call	 __EH_epilog3
  0006e	c2 04 00	 ret	 4
_TEXT	ENDS
;	COMDAT text$x
text$x	SEGMENT
__unwindfunclet$??0NewShopPullDownItem@@QAE@ABU0@@Z$0:
  00000	8b 4d f0	 mov	 ecx, DWORD PTR _this$[ebp]
  00003	ff 25 00 00 00
	00		 jmp	 DWORD PTR __imp_??1ioHashString@@QAE@XZ
__unwindfunclet$??0NewShopPullDownItem@@QAE@ABU0@@Z$1:
  00009	8b 4d f0	 mov	 ecx, DWORD PTR _this$[ebp]
  0000c	83 c1 24	 add	 ecx, 36			; 00000024H
  0000f	ff 25 00 00 00
	00		 jmp	 DWORD PTR __imp_??1ioHashString@@QAE@XZ
__ehhandler$??0NewShopPullDownItem@@QAE@ABU0@@Z:
  00015	8b 54 24 08	 mov	 edx, DWORD PTR [esp+8]
  00019	8d 42 0c	 lea	 eax, DWORD PTR [edx+12]
  0001c	8b 4a ec	 mov	 ecx, DWORD PTR [edx-20]
  0001f	33 c8		 xor	 ecx, eax
  00021	e8 00 00 00 00	 call	 @__security_check_cookie@4
  00026	b8 00 00 00 00	 mov	 eax, OFFSET __ehfuncinfo$??0NewShopPullDownItem@@QAE@ABU0@@Z
  0002b	e9 00 00 00 00	 jmp	 ___CxxFrameHandler3
text$x	ENDS
??0NewShopPullDownItem@@QAE@ABU0@@Z ENDP		; NewShopPullDownItem::NewShopPullDownItem
PUBLIC	??0tagAlchemicItemInfo@@QAE@ABU0@@Z		; tagAlchemicItemInfo::tagAlchemicItemInfo
; Function compile flags: /Ogsp
;	COMDAT ??0tagAlchemicItemInfo@@QAE@ABU0@@Z
_TEXT	SEGMENT
___that$ = 8						; size = 4
??0tagAlchemicItemInfo@@QAE@ABU0@@Z PROC		; tagAlchemicItemInfo::tagAlchemicItemInfo, COMDAT
; _this$ = ecx
  00000	55		 push	 ebp
  00001	8b ec		 mov	 ebp, esp
  00003	56		 push	 esi
  00004	57		 push	 edi
  00005	8b 7d 08	 mov	 edi, DWORD PTR ___that$[ebp]
  00008	8b 07		 mov	 eax, DWORD PTR [edi]
  0000a	8b f1		 mov	 esi, ecx
  0000c	89 06		 mov	 DWORD PTR [esi], eax
  0000e	8b 47 04	 mov	 eax, DWORD PTR [edi+4]
  00011	89 46 04	 mov	 DWORD PTR [esi+4], eax
  00014	8d 47 08	 lea	 eax, DWORD PTR [edi+8]
  00017	50		 push	 eax
  00018	8d 4e 08	 lea	 ecx, DWORD PTR [esi+8]
  0001b	ff 15 00 00 00
	00		 call	 DWORD PTR __imp_??0ioHashString@@QAE@ABV0@@Z
  00021	8a 47 18	 mov	 al, BYTE PTR [edi+24]
  00024	88 46 18	 mov	 BYTE PTR [esi+24], al
  00027	5f		 pop	 edi
  00028	8b c6		 mov	 eax, esi
  0002a	5e		 pop	 esi
  0002b	5d		 pop	 ebp
  0002c	c2 04 00	 ret	 4
??0tagAlchemicItemInfo@@QAE@ABU0@@Z ENDP		; tagAlchemicItemInfo::tagAlchemicItemInfo
_TEXT	ENDS
PUBLIC	??4tagAlchemicItemInfo@@QAEAAU0@ABU0@@Z		; tagAlchemicItemInfo::operator=
EXTRN	__imp_??4ioHashString@@QAEAAV0@ABV0@@Z:PROC
; Function compile flags: /Ogsp
;	COMDAT ??4tagAlchemicItemInfo@@QAEAAU0@ABU0@@Z
_TEXT	SEGMENT
___that$ = 8						; size = 4
??4tagAlchemicItemInfo@@QAEAAU0@ABU0@@Z PROC		; tagAlchemicItemInfo::operator=, COMDAT
; _this$ = ecx
  00000	55		 push	 ebp
  00001	8b ec		 mov	 ebp, esp
  00003	56		 push	 esi
  00004	57		 push	 edi
  00005	8b 7d 08	 mov	 edi, DWORD PTR ___that$[ebp]
  00008	8b 07		 mov	 eax, DWORD PTR [edi]
  0000a	8b f1		 mov	 esi, ecx
  0000c	89 06		 mov	 DWORD PTR [esi], eax
  0000e	8b 47 04	 mov	 eax, DWORD PTR [edi+4]
  00011	89 46 04	 mov	 DWORD PTR [esi+4], eax
  00014	8d 47 08	 lea	 eax, DWORD PTR [edi+8]
  00017	50		 push	 eax
  00018	8d 4e 08	 lea	 ecx, DWORD PTR [esi+8]
  0001b	ff 15 00 00 00
	00		 call	 DWORD PTR __imp_??4ioHashString@@QAEAAV0@ABV0@@Z
  00021	8a 47 18	 mov	 al, BYTE PTR [edi+24]
  00024	88 46 18	 mov	 BYTE PTR [esi+24], al
  00027	5f		 pop	 edi
  00028	8b c6		 mov	 eax, esi
  0002a	5e		 pop	 esi
  0002b	5d		 pop	 ebp
  0002c	c2 04 00	 ret	 4
??4tagAlchemicItemInfo@@QAEAAU0@ABU0@@Z ENDP		; tagAlchemicItemInfo::operator=
_TEXT	ENDS
PUBLIC	??4NewShopPullDownItem@@QAEAAU0@ABU0@@Z		; NewShopPullDownItem::operator=
; Function compile flags: /Ogsp
;	COMDAT ??4NewShopPullDownItem@@QAEAAU0@ABU0@@Z
_TEXT	SEGMENT
___that$ = 8						; size = 4
??4NewShopPullDownItem@@QAEAAU0@ABU0@@Z PROC		; NewShopPullDownItem::operator=, COMDAT
; _this$ = ecx
  00000	55		 push	 ebp
  00001	8b ec		 mov	 ebp, esp
  00003	53		 push	 ebx
  00004	8b 1d 00 00 00
	00		 mov	 ebx, DWORD PTR __imp_??4ioHashString@@QAEAAV0@ABV0@@Z
  0000a	56		 push	 esi
  0000b	57		 push	 edi
  0000c	8b 7d 08	 mov	 edi, DWORD PTR ___that$[ebp]
  0000f	57		 push	 edi
  00010	8b f1		 mov	 esi, ecx
  00012	ff d3		 call	 ebx
  00014	8b 47 10	 mov	 eax, DWORD PTR [edi+16]
  00017	89 46 10	 mov	 DWORD PTR [esi+16], eax
  0001a	8b 47 14	 mov	 eax, DWORD PTR [edi+20]
  0001d	89 46 14	 mov	 DWORD PTR [esi+20], eax
  00020	8a 47 18	 mov	 al, BYTE PTR [edi+24]
  00023	88 46 18	 mov	 BYTE PTR [esi+24], al
  00026	8b 47 1c	 mov	 eax, DWORD PTR [edi+28]
  00029	89 46 1c	 mov	 DWORD PTR [esi+28], eax
  0002c	8a 47 20	 mov	 al, BYTE PTR [edi+32]
  0002f	88 46 20	 mov	 BYTE PTR [esi+32], al
  00032	8d 47 24	 lea	 eax, DWORD PTR [edi+36]
  00035	50		 push	 eax
  00036	8d 4e 24	 lea	 ecx, DWORD PTR [esi+36]
  00039	ff d3		 call	 ebx
  0003b	8b 47 34	 mov	 eax, DWORD PTR [edi+52]
  0003e	89 46 34	 mov	 DWORD PTR [esi+52], eax
  00041	8a 47 38	 mov	 al, BYTE PTR [edi+56]
  00044	88 46 38	 mov	 BYTE PTR [esi+56], al
  00047	8d 47 3c	 lea	 eax, DWORD PTR [edi+60]
  0004a	50		 push	 eax
  0004b	8d 4e 3c	 lea	 ecx, DWORD PTR [esi+60]
  0004e	ff d3		 call	 ebx
  00050	8b 47 4c	 mov	 eax, DWORD PTR [edi+76]
  00053	89 46 4c	 mov	 DWORD PTR [esi+76], eax
  00056	5f		 pop	 edi
  00057	8b c6		 mov	 eax, esi
  00059	5e		 pop	 esi
  0005a	5b		 pop	 ebx
  0005b	5d		 pop	 ebp
  0005c	c2 04 00	 ret	 4
??4NewShopPullDownItem@@QAEAAU0@ABU0@@Z ENDP		; NewShopPullDownItem::operator=
_TEXT	ENDS
PUBLIC	?_Unchecked@?$_Vector_iterator@V?$_Vector_val@UtagAlchemicItemInfo@@V?$allocator@UtagAlchemicItemInfo@@@std@@@std@@@std@@QBEPAUtagAlchemicItemInfo@@XZ ; std::_Vector_iterator<std::_Vector_val<tagAlchemicItemInfo,std::allocator<tagAlchemicItemInfo> > >::_Unchecked
; Function compile flags: /Ogsp
; File c:\program files (x86)\microsoft visual studio 10.0\vc\include\vector
;	COMDAT ?_Unchecked@?$_Vector_iterator@V?$_Vector_val@UtagAlchemicItemInfo@@V?$allocator@UtagAlchemicItemInfo@@@std@@@std@@@std@@QBEPAUtagAlchemicItemInfo@@XZ
_TEXT	SEGMENT
?_Unchecked@?$_Vector_iterator@V?$_Vector_val@UtagAlchemicItemInfo@@V?$allocator@UtagAlchemicItemInfo@@@std@@@std@@@std@@QBEPAUtagAlchemicItemInfo@@XZ PROC ; std::_Vector_iterator<std::_Vector_val<tagAlchemicItemInfo,std::allocator<tagAlchemicItemInfo> > >::_Unchecked, COMDAT
; _this$ = ecx

; 317  : 		return (_Unchecked_type(this->_Ptr));

  00000	8b 01		 mov	 eax, DWORD PTR [ecx]

; 318  : 		}

  00002	c3		 ret	 0
?_Unchecked@?$_Vector_iterator@V?$_Vector_val@UtagAlchemicItemInfo@@V?$allocator@UtagAlchemicItemInfo@@@std@@@std@@@std@@QBEPAUtagAlchemicItemInfo@@XZ ENDP ; std::_Vector_iterator<std::_Vector_val<tagAlchemicItemInfo,std::allocator<tagAlchemicItemInfo> > >::_Unchecked
_TEXT	ENDS
PUBLIC	??$_Val_type@PAUNewShopPullDownItem@@@std@@YAPAUNewShopPullDownItem@@PAU1@@Z ; std::_Val_type<NewShopPullDownItem *>
; Function compile flags: /Ogsp
; File c:\program files (x86)\microsoft visual studio 10.0\vc\include\xutility
;	COMDAT ??$_Val_type@PAUNewShopPullDownItem@@@std@@YAPAUNewShopPullDownItem@@PAU1@@Z
_TEXT	SEGMENT
___formal$ = 8						; size = 4
??$_Val_type@PAUNewShopPullDownItem@@@std@@YAPAUNewShopPullDownItem@@PAU1@@Z PROC ; std::_Val_type<NewShopPullDownItem *>, COMDAT

; 790  : 	return (0);

  00000	33 c0		 xor	 eax, eax

; 791  : 	}

  00002	c3		 ret	 0
??$_Val_type@PAUNewShopPullDownItem@@@std@@YAPAUNewShopPullDownItem@@PAU1@@Z ENDP ; std::_Val_type<NewShopPullDownItem *>
_TEXT	ENDS
PUBLIC	??$move@AAUtagAlchemicItemInfo@@@std@@YA$$QAUtagAlchemicItemInfo@@AAU1@@Z ; std::move<tagAlchemicItemInfo &>
; Function compile flags: /Ogsp
; File c:\program files (x86)\microsoft visual studio 10.0\vc\include\utility
;	COMDAT ??$move@AAUtagAlchemicItemInfo@@@std@@YA$$QAUtagAlchemicItemInfo@@AAU1@@Z
_TEXT	SEGMENT
__Arg$ = 8						; size = 4
??$move@AAUtagAlchemicItemInfo@@@std@@YA$$QAUtagAlchemicItemInfo@@AAU1@@Z PROC ; std::move<tagAlchemicItemInfo &>, COMDAT

; 86   : 	{	// forward _Arg as movable

  00000	55		 push	 ebp
  00001	8b ec		 mov	 ebp, esp

; 87   : 	return ((typename tr1::_Remove_reference<_Ty>::_Type&&)_Arg);

  00003	8b 45 08	 mov	 eax, DWORD PTR __Arg$[ebp]

; 88   : 	}

  00006	5d		 pop	 ebp
  00007	c3		 ret	 0
??$move@AAUtagAlchemicItemInfo@@@std@@YA$$QAUtagAlchemicItemInfo@@AAU1@@Z ENDP ; std::move<tagAlchemicItemInfo &>
_TEXT	ENDS
PUBLIC	??$move@AAUNewShopPullDownItem@@@std@@YA$$QAUNewShopPullDownItem@@AAU1@@Z ; std::move<NewShopPullDownItem &>
; Function compile flags: /Ogsp
;	COMDAT ??$move@AAUNewShopPullDownItem@@@std@@YA$$QAUNewShopPullDownItem@@AAU1@@Z
_TEXT	SEGMENT
__Arg$ = 8						; size = 4
??$move@AAUNewShopPullDownItem@@@std@@YA$$QAUNewShopPullDownItem@@AAU1@@Z PROC ; std::move<NewShopPullDownItem &>, COMDAT

; 86   : 	{	// forward _Arg as movable

  00000	55		 push	 ebp
  00001	8b ec		 mov	 ebp, esp

; 87   : 	return ((typename tr1::_Remove_reference<_Ty>::_Type&&)_Arg);

  00003	8b 45 08	 mov	 eax, DWORD PTR __Arg$[ebp]

; 88   : 	}

  00006	5d		 pop	 ebp
  00007	c3		 ret	 0
??$move@AAUNewShopPullDownItem@@@std@@YA$$QAUNewShopPullDownItem@@AAU1@@Z ENDP ; std::move<NewShopPullDownItem &>
_TEXT	ENDS
PUBLIC	??$_Val_type@PAUtagAlchemicItemInfo@@@std@@YAPAUtagAlchemicItemInfo@@PAU1@@Z ; std::_Val_type<tagAlchemicItemInfo *>
; Function compile flags: /Ogsp
; File c:\program files (x86)\microsoft visual studio 10.0\vc\include\xutility
;	COMDAT ??$_Val_type@PAUtagAlchemicItemInfo@@@std@@YAPAUtagAlchemicItemInfo@@PAU1@@Z
_TEXT	SEGMENT
___formal$ = 8						; size = 4
??$_Val_type@PAUtagAlchemicItemInfo@@@std@@YAPAUtagAlchemicItemInfo@@PAU1@@Z PROC ; std::_Val_type<tagAlchemicItemInfo *>, COMDAT

; 790  : 	return (0);

  00000	33 c0		 xor	 eax, eax

; 791  : 	}

  00002	c3		 ret	 0
??$_Val_type@PAUtagAlchemicItemInfo@@@std@@YAPAUtagAlchemicItemInfo@@PAU1@@Z ENDP ; std::_Val_type<tagAlchemicItemInfo *>
_TEXT	ENDS
PUBLIC	??$_Unchecked@PAUtagAlchemicItemInfo@@@std@@YAPAUtagAlchemicItemInfo@@PAU1@@Z ; std::_Unchecked<tagAlchemicItemInfo *>
; Function compile flags: /Ogsp
;	COMDAT ??$_Unchecked@PAUtagAlchemicItemInfo@@@std@@YAPAUtagAlchemicItemInfo@@PAU1@@Z
_TEXT	SEGMENT
__Src$ = 8						; size = 4
??$_Unchecked@PAUtagAlchemicItemInfo@@@std@@YAPAUtagAlchemicItemInfo@@PAU1@@Z PROC ; std::_Unchecked<tagAlchemicItemInfo *>, COMDAT

; 266  : 	{	// construct unchecked from checked, generic

  00000	55		 push	 ebp
  00001	8b ec		 mov	 ebp, esp

; 267  : 	return (_Src);

  00003	8b 45 08	 mov	 eax, DWORD PTR __Src$[ebp]

; 268  : 	}

  00006	5d		 pop	 ebp
  00007	c3		 ret	 0
??$_Unchecked@PAUtagAlchemicItemInfo@@@std@@YAPAUtagAlchemicItemInfo@@PAU1@@Z ENDP ; std::_Unchecked<tagAlchemicItemInfo *>
_TEXT	ENDS
PUBLIC	??$_Dist_type@PAUtagAlchemicItemInfo@@@std@@YAPAHPAUtagAlchemicItemInfo@@@Z ; std::_Dist_type<tagAlchemicItemInfo *>
; Function compile flags: /Ogsp
;	COMDAT ??$_Dist_type@PAUtagAlchemicItemInfo@@@std@@YAPAHPAUtagAlchemicItemInfo@@@Z
_TEXT	SEGMENT
___formal$ = 8						; size = 4
??$_Dist_type@PAUtagAlchemicItemInfo@@@std@@YAPAHPAUtagAlchemicItemInfo@@@Z PROC ; std::_Dist_type<tagAlchemicItemInfo *>, COMDAT

; 850  : 	return (0);

  00000	33 c0		 xor	 eax, eax

; 851  : 	}

  00002	c3		 ret	 0
??$_Dist_type@PAUtagAlchemicItemInfo@@@std@@YAPAHPAUtagAlchemicItemInfo@@@Z ENDP ; std::_Dist_type<tagAlchemicItemInfo *>
_TEXT	ENDS
PUBLIC	??1tagAlchemicItemInfo@@QAE@XZ			; tagAlchemicItemInfo::~tagAlchemicItemInfo
; Function compile flags: /Ogsp
;	COMDAT ??1tagAlchemicItemInfo@@QAE@XZ
_TEXT	SEGMENT
??1tagAlchemicItemInfo@@QAE@XZ PROC			; tagAlchemicItemInfo::~tagAlchemicItemInfo, COMDAT
; _this$ = ecx
  00000	83 c1 08	 add	 ecx, 8
  00003	ff 25 00 00 00
	00		 jmp	 DWORD PTR __imp_??1ioHashString@@QAE@XZ
??1tagAlchemicItemInfo@@QAE@XZ ENDP			; tagAlchemicItemInfo::~tagAlchemicItemInfo
_TEXT	ENDS
PUBLIC	??_GNewShopPullDownItem@@QAEPAXI@Z		; NewShopPullDownItem::`scalar deleting destructor'
; Function compile flags: /Ogsp
;	COMDAT ??_GNewShopPullDownItem@@QAEPAXI@Z
_TEXT	SEGMENT
___flags$ = 8						; size = 4
??_GNewShopPullDownItem@@QAEPAXI@Z PROC			; NewShopPullDownItem::`scalar deleting destructor', COMDAT
; _this$ = ecx
  00000	55		 push	 ebp
  00001	8b ec		 mov	 ebp, esp
  00003	56		 push	 esi
  00004	8b f1		 mov	 esi, ecx
  00006	e8 00 00 00 00	 call	 ??1NewShopPullDownItem@@QAE@XZ
  0000b	f6 45 08 01	 test	 BYTE PTR ___flags$[ebp], 1
  0000f	74 07		 je	 SHORT $LN1@scalar@2
  00011	56		 push	 esi
  00012	e8 00 00 00 00	 call	 ??3@YAXPAX@Z		; operator delete
  00017	59		 pop	 ecx
$LN1@scalar@2:
  00018	8b c6		 mov	 eax, esi
  0001a	5e		 pop	 esi
  0001b	5d		 pop	 ebp
  0001c	c2 04 00	 ret	 4
??_GNewShopPullDownItem@@QAEPAXI@Z ENDP			; NewShopPullDownItem::`scalar deleting destructor'
_TEXT	ENDS
PUBLIC	??_GtagAlchemicItemInfo@@QAEPAXI@Z		; tagAlchemicItemInfo::`scalar deleting destructor'
; Function compile flags: /Ogsp
;	COMDAT ??_GtagAlchemicItemInfo@@QAEPAXI@Z
_TEXT	SEGMENT
___flags$ = 8						; size = 4
??_GtagAlchemicItemInfo@@QAEPAXI@Z PROC			; tagAlchemicItemInfo::`scalar deleting destructor', COMDAT
; _this$ = ecx
  00000	55		 push	 ebp
  00001	8b ec		 mov	 ebp, esp
  00003	56		 push	 esi
  00004	8b f1		 mov	 esi, ecx
  00006	8d 4e 08	 lea	 ecx, DWORD PTR [esi+8]
  00009	ff 15 00 00 00
	00		 call	 DWORD PTR __imp_??1ioHashString@@QAE@XZ
  0000f	f6 45 08 01	 test	 BYTE PTR ___flags$[ebp], 1
  00013	74 07		 je	 SHORT $LN1@scalar@3
  00015	56		 push	 esi
  00016	e8 00 00 00 00	 call	 ??3@YAXPAX@Z		; operator delete
  0001b	59		 pop	 ecx
$LN1@scalar@3:
  0001c	8b c6		 mov	 eax, esi
  0001e	5e		 pop	 esi
  0001f	5d		 pop	 ebp
  00020	c2 04 00	 ret	 4
??_GtagAlchemicItemInfo@@QAEPAXI@Z ENDP			; tagAlchemicItemInfo::`scalar deleting destructor'
_TEXT	ENDS
PUBLIC	??$forward@AAPAUtagAlchemicItemInfo@@@std@@YAAAPAUtagAlchemicItemInfo@@AAPAU1@@Z ; std::forward<tagAlchemicItemInfo * &>
; Function compile flags: /Ogsp
; File c:\program files (x86)\microsoft visual studio 10.0\vc\include\utility
;	COMDAT ??$forward@AAPAUtagAlchemicItemInfo@@@std@@YAAAPAUtagAlchemicItemInfo@@AAPAU1@@Z
_TEXT	SEGMENT
__Arg$ = 8						; size = 4
??$forward@AAPAUtagAlchemicItemInfo@@@std@@YAAAPAUtagAlchemicItemInfo@@AAPAU1@@Z PROC ; std::forward<tagAlchemicItemInfo * &>, COMDAT

; 78   : 	{	// forward _Arg, given explicitly specified type parameter

  00000	55		 push	 ebp
  00001	8b ec		 mov	 ebp, esp

; 79   : 	return ((_Ty&&)_Arg);

  00003	8b 45 08	 mov	 eax, DWORD PTR __Arg$[ebp]

; 80   : 	}

  00006	5d		 pop	 ebp
  00007	c3		 ret	 0
??$forward@AAPAUtagAlchemicItemInfo@@@std@@YAAAPAUtagAlchemicItemInfo@@AAPAU1@@Z ENDP ; std::forward<tagAlchemicItemInfo * &>
_TEXT	ENDS
PUBLIC	??$?0AAPAUtagAlchemicItemInfo@@AAPAU0@@?$_Pair_base@PAUtagAlchemicItemInfo@@PAU1@@std@@QAE@AAPAUtagAlchemicItemInfo@@0@Z ; std::_Pair_base<tagAlchemicItemInfo *,tagAlchemicItemInfo *>::_Pair_base<tagAlchemicItemInfo *,tagAlchemicItemInfo *><tagAlchemicItemInfo * &,tagAlchemicItemInfo * &>
; Function compile flags: /Ogsp
;	COMDAT ??$?0AAPAUtagAlchemicItemInfo@@AAPAU0@@?$_Pair_base@PAUtagAlchemicItemInfo@@PAU1@@std@@QAE@AAPAUtagAlchemicItemInfo@@0@Z
_TEXT	SEGMENT
__Val1$ = 8						; size = 4
__Val2$ = 12						; size = 4
??$?0AAPAUtagAlchemicItemInfo@@AAPAU0@@?$_Pair_base@PAUtagAlchemicItemInfo@@PAU1@@std@@QAE@AAPAUtagAlchemicItemInfo@@0@Z PROC ; std::_Pair_base<tagAlchemicItemInfo *,tagAlchemicItemInfo *>::_Pair_base<tagAlchemicItemInfo *,tagAlchemicItemInfo *><tagAlchemicItemInfo * &,tagAlchemicItemInfo * &>, COMDAT
; _this$ = ecx

; 163  : 		{	// construct from moved values

  00000	55		 push	 ebp
  00001	8b ec		 mov	 ebp, esp
  00003	8b c1		 mov	 eax, ecx
  00005	8b 4d 08	 mov	 ecx, DWORD PTR __Val1$[ebp]
  00008	8b 09		 mov	 ecx, DWORD PTR [ecx]
  0000a	89 08		 mov	 DWORD PTR [eax], ecx
  0000c	8b 4d 0c	 mov	 ecx, DWORD PTR __Val2$[ebp]
  0000f	8b 09		 mov	 ecx, DWORD PTR [ecx]
  00011	89 48 04	 mov	 DWORD PTR [eax+4], ecx

; 164  : 		}

  00014	5d		 pop	 ebp
  00015	c2 08 00	 ret	 8
??$?0AAPAUtagAlchemicItemInfo@@AAPAU0@@?$_Pair_base@PAUtagAlchemicItemInfo@@PAU1@@std@@QAE@AAPAUtagAlchemicItemInfo@@0@Z ENDP ; std::_Pair_base<tagAlchemicItemInfo *,tagAlchemicItemInfo *>::_Pair_base<tagAlchemicItemInfo *,tagAlchemicItemInfo *><tagAlchemicItemInfo * &,tagAlchemicItemInfo * &>
_TEXT	ENDS
PUBLIC	??$_Move@AAUtagAlchemicItemInfo@@@std@@YA$$QAUtagAlchemicItemInfo@@AAU1@@Z ; std::_Move<tagAlchemicItemInfo &>
; Function compile flags: /Ogsp
;	COMDAT ??$_Move@AAUtagAlchemicItemInfo@@@std@@YA$$QAUtagAlchemicItemInfo@@AAU1@@Z
_TEXT	SEGMENT
__Arg$ = 8						; size = 4
??$_Move@AAUtagAlchemicItemInfo@@@std@@YA$$QAUtagAlchemicItemInfo@@AAU1@@Z PROC ; std::_Move<tagAlchemicItemInfo &>, COMDAT

; 94   : 	{	// forward _Arg as movable

  00000	55		 push	 ebp
  00001	8b ec		 mov	 ebp, esp

; 95   : 	return ((typename tr1::_Remove_reference<_Ty>::_Type&&)_Arg);

  00003	8b 45 08	 mov	 eax, DWORD PTR __Arg$[ebp]

; 96   : 	}

  00006	5d		 pop	 ebp
  00007	c3		 ret	 0
??$_Move@AAUtagAlchemicItemInfo@@@std@@YA$$QAUtagAlchemicItemInfo@@AAU1@@Z ENDP ; std::_Move<tagAlchemicItemInfo &>
_TEXT	ENDS
PUBLIC	??$forward@UNewShopPullDownItem@@@std@@YA$$QAUNewShopPullDownItem@@AAU1@@Z ; std::forward<NewShopPullDownItem>
; Function compile flags: /Ogsp
;	COMDAT ??$forward@UNewShopPullDownItem@@@std@@YA$$QAUNewShopPullDownItem@@AAU1@@Z
_TEXT	SEGMENT
__Arg$ = 8						; size = 4
??$forward@UNewShopPullDownItem@@@std@@YA$$QAUNewShopPullDownItem@@AAU1@@Z PROC ; std::forward<NewShopPullDownItem>, COMDAT

; 78   : 	{	// forward _Arg, given explicitly specified type parameter

  00000	55		 push	 ebp
  00001	8b ec		 mov	 ebp, esp

; 79   : 	return ((_Ty&&)_Arg);

  00003	8b 45 08	 mov	 eax, DWORD PTR __Arg$[ebp]

; 80   : 	}

  00006	5d		 pop	 ebp
  00007	c3		 ret	 0
??$forward@UNewShopPullDownItem@@@std@@YA$$QAUNewShopPullDownItem@@AAU1@@Z ENDP ; std::forward<NewShopPullDownItem>
_TEXT	ENDS
PUBLIC	??$forward@UtagAlchemicItemInfo@@@std@@YA$$QAUtagAlchemicItemInfo@@AAU1@@Z ; std::forward<tagAlchemicItemInfo>
; Function compile flags: /Ogsp
;	COMDAT ??$forward@UtagAlchemicItemInfo@@@std@@YA$$QAUtagAlchemicItemInfo@@AAU1@@Z
_TEXT	SEGMENT
__Arg$ = 8						; size = 4
??$forward@UtagAlchemicItemInfo@@@std@@YA$$QAUtagAlchemicItemInfo@@AAU1@@Z PROC ; std::forward<tagAlchemicItemInfo>, COMDAT

; 78   : 	{	// forward _Arg, given explicitly specified type parameter

  00000	55		 push	 ebp
  00001	8b ec		 mov	 ebp, esp

; 79   : 	return ((_Ty&&)_Arg);

  00003	8b 45 08	 mov	 eax, DWORD PTR __Arg$[ebp]

; 80   : 	}

  00006	5d		 pop	 ebp
  00007	c3		 ret	 0
??$forward@UtagAlchemicItemInfo@@@std@@YA$$QAUtagAlchemicItemInfo@@AAU1@@Z ENDP ; std::forward<tagAlchemicItemInfo>
_TEXT	ENDS
PUBLIC	??$_Push_heap@PAUtagAlchemicItemInfo@@HU1@VMaterialItemSort@ItemMaterialCompoundWnd@@@std@@YAXPAUtagAlchemicItemInfo@@HH$$QAU1@VMaterialItemSort@ItemMaterialCompoundWnd@@@Z ; std::_Push_heap<tagAlchemicItemInfo *,int,tagAlchemicItemInfo,ItemMaterialCompoundWnd::MaterialItemSort>
; Function compile flags: /Ogsp
; File c:\program files (x86)\microsoft visual studio 10.0\vc\include\algorithm
;	COMDAT ??$_Push_heap@PAUtagAlchemicItemInfo@@HU1@VMaterialItemSort@ItemMaterialCompoundWnd@@@std@@YAXPAUtagAlchemicItemInfo@@HH$$QAU1@VMaterialItemSort@ItemMaterialCompoundWnd@@@Z
_TEXT	SEGMENT
__First$ = 8						; size = 4
__Hole$ = 12						; size = 4
__Top$ = 16						; size = 4
__Val$ = 20						; size = 4
__Pred$ = 24						; size = 1
??$_Push_heap@PAUtagAlchemicItemInfo@@HU1@VMaterialItemSort@ItemMaterialCompoundWnd@@@std@@YAXPAUtagAlchemicItemInfo@@HH$$QAU1@VMaterialItemSort@ItemMaterialCompoundWnd@@@Z PROC ; std::_Push_heap<tagAlchemicItemInfo *,int,tagAlchemicItemInfo,ItemMaterialCompoundWnd::MaterialItemSort>, COMDAT

; 2455 : 	{	// percolate _Hole to _Top or where _Val belongs, using operator<

  00000	55		 push	 ebp
  00001	8b ec		 mov	 ebp, esp

; 2456 : 	for (_Diff _Idx = (_Hole - 1) / 2;

  00003	8b 4d 0c	 mov	 ecx, DWORD PTR __Hole$[ebp]
  00006	8d 41 ff	 lea	 eax, DWORD PTR [ecx-1]
  00009	99		 cdq
  0000a	53		 push	 ebx

; 2457 : 		_Top < _Hole && _DEBUG_LT_PRED(_Pred, *(_First + _Idx), _Val);
; 2458 : 		_Idx = (_Hole - 1) / 2)

  0000b	8b 5d 08	 mov	 ebx, DWORD PTR __First$[ebp]
  0000e	2b c2		 sub	 eax, edx
  00010	56		 push	 esi
  00011	8b f0		 mov	 esi, eax
  00013	d1 fe		 sar	 esi, 1
  00015	39 4d 10	 cmp	 DWORD PTR __Top$[ebp], ecx
  00018	7d 3d		 jge	 SHORT $LN18@Push_heap
  0001a	57		 push	 edi
$LL3@Push_heap:
  0001b	8b 7d 14	 mov	 edi, DWORD PTR __Val$[ebp]
  0001e	8b 7f 04	 mov	 edi, DWORD PTR [edi+4]
  00021	8b c6		 mov	 eax, esi
  00023	6b c0 1c	 imul	 eax, 28			; 0000001cH
  00026	03 c3		 add	 eax, ebx
  00028	8b 50 04	 mov	 edx, DWORD PTR [eax+4]
  0002b	3b d7		 cmp	 edx, edi
  0002d	7f 0b		 jg	 SHORT $LN17@Push_heap
  0002f	75 25		 jne	 SHORT $LN19@Push_heap
  00031	8b 10		 mov	 edx, DWORD PTR [eax]
  00033	8b 7d 14	 mov	 edi, DWORD PTR __Val$[ebp]
  00036	3b 17		 cmp	 edx, DWORD PTR [edi]
  00038	7d 1c		 jge	 SHORT $LN19@Push_heap
$LN17@Push_heap:

; 2459 : 		{	// move _Hole up to parent
; 2460 : 		*(_First + _Hole) = _Move(*(_First + _Idx));

  0003a	6b c9 1c	 imul	 ecx, 28			; 0000001cH
  0003d	50		 push	 eax
  0003e	03 cb		 add	 ecx, ebx
  00040	e8 00 00 00 00	 call	 ??4tagAlchemicItemInfo@@QAEAAU0@ABU0@@Z
  00045	8d 46 ff	 lea	 eax, DWORD PTR [esi-1]
  00048	99		 cdq
  00049	2b c2		 sub	 eax, edx

; 2461 : 		_Hole = _Idx;

  0004b	8b ce		 mov	 ecx, esi
  0004d	d1 f8		 sar	 eax, 1
  0004f	8b f0		 mov	 esi, eax
  00051	39 4d 10	 cmp	 DWORD PTR __Top$[ebp], ecx
  00054	7c c5		 jl	 SHORT $LL3@Push_heap
$LN19@Push_heap:
  00056	5f		 pop	 edi
$LN18@Push_heap:

; 2462 : 		}
; 2463 : 
; 2464 : 	*(_First + _Hole) = _Move(_Val);	// drop _Val into final hole

  00057	ff 75 14	 push	 DWORD PTR __Val$[ebp]
  0005a	6b c9 1c	 imul	 ecx, 28			; 0000001cH
  0005d	03 cb		 add	 ecx, ebx
  0005f	e8 00 00 00 00	 call	 ??4tagAlchemicItemInfo@@QAEAAU0@ABU0@@Z
  00064	5e		 pop	 esi
  00065	5b		 pop	 ebx

; 2465 : 	}

  00066	5d		 pop	 ebp
  00067	c3		 ret	 0
??$_Push_heap@PAUtagAlchemicItemInfo@@HU1@VMaterialItemSort@ItemMaterialCompoundWnd@@@std@@YAXPAUtagAlchemicItemInfo@@HH$$QAU1@VMaterialItemSort@ItemMaterialCompoundWnd@@@Z ENDP ; std::_Push_heap<tagAlchemicItemInfo *,int,tagAlchemicItemInfo,ItemMaterialCompoundWnd::MaterialItemSort>
_TEXT	ENDS
PUBLIC	??$_Move_backward@PAUtagAlchemicItemInfo@@PAU1@@std@@YAPAUtagAlchemicItemInfo@@PAU1@00U_Nonscalar_ptr_iterator_tag@0@@Z ; std::_Move_backward<tagAlchemicItemInfo *,tagAlchemicItemInfo *>
; Function compile flags: /Ogsp
; File c:\program files (x86)\microsoft visual studio 10.0\vc\include\xutility
;	COMDAT ??$_Move_backward@PAUtagAlchemicItemInfo@@PAU1@@std@@YAPAUtagAlchemicItemInfo@@PAU1@00U_Nonscalar_ptr_iterator_tag@0@@Z
_TEXT	SEGMENT
__First$ = 8						; size = 4
__Last$ = 12						; size = 4
__Dest$ = 16						; size = 4
___formal$ = 20						; size = 1
??$_Move_backward@PAUtagAlchemicItemInfo@@PAU1@@std@@YAPAUtagAlchemicItemInfo@@PAU1@00U_Nonscalar_ptr_iterator_tag@0@@Z PROC ; std::_Move_backward<tagAlchemicItemInfo *,tagAlchemicItemInfo *>, COMDAT

; 2617 : 	{	// move [_First, _Last) backwards to [..., _Dest), arbitrary iterators

  00000	55		 push	 ebp
  00001	8b ec		 mov	 ebp, esp
  00003	56		 push	 esi

; 2618 : 	while (_First != _Last)

  00004	8b 75 0c	 mov	 esi, DWORD PTR __Last$[ebp]
  00007	39 75 08	 cmp	 DWORD PTR __First$[ebp], esi
  0000a	74 15		 je	 SHORT $LN9@Move_backw
$LL2@Move_backw:

; 2619 : 		*--_Dest = _STD move(*--_Last);

  0000c	83 6d 10 1c	 sub	 DWORD PTR __Dest$[ebp], 28 ; 0000001cH
  00010	8b 4d 10	 mov	 ecx, DWORD PTR __Dest$[ebp]
  00013	83 ee 1c	 sub	 esi, 28			; 0000001cH
  00016	56		 push	 esi
  00017	e8 00 00 00 00	 call	 ??4tagAlchemicItemInfo@@QAEAAU0@ABU0@@Z
  0001c	3b 75 08	 cmp	 esi, DWORD PTR __First$[ebp]
  0001f	75 eb		 jne	 SHORT $LL2@Move_backw
$LN9@Move_backw:

; 2620 : 	return (_Dest);

  00021	8b 45 10	 mov	 eax, DWORD PTR __Dest$[ebp]
  00024	5e		 pop	 esi

; 2621 : 	}

  00025	5d		 pop	 ebp
  00026	c3		 ret	 0
??$_Move_backward@PAUtagAlchemicItemInfo@@PAU1@@std@@YAPAUtagAlchemicItemInfo@@PAU1@00U_Nonscalar_ptr_iterator_tag@0@@Z ENDP ; std::_Move_backward<tagAlchemicItemInfo *,tagAlchemicItemInfo *>
; Function compile flags: /Ogsp
; File c:\program files (x86)\microsoft sdks\windows\v7.0a\include\strsafe.h
_TEXT	ENDS
;	COMDAT ?StringValidateDestA@@YGJPBDII@Z
_TEXT	SEGMENT
_cchMax$ = 8						; size = 4
?StringValidateDestA@@YGJPBDII@Z PROC			; StringValidateDestA, COMDAT
; _cchDest$ = ecx

; 8721 : {

  00000	55		 push	 ebp
  00001	8b ec		 mov	 ebp, esp

; 8722 :     HRESULT hr = S_OK;

  00003	33 c0		 xor	 eax, eax

; 8723 : 
; 8724 :     if ((cchDest == 0) || (cchDest > cchMax))

  00005	85 c9		 test	 ecx, ecx
  00007	74 05		 je	 SHORT $LN1@StringVali
  00009	3b 4d 08	 cmp	 ecx, DWORD PTR _cchMax$[ebp]
  0000c	76 05		 jbe	 SHORT $LN2@StringVali
$LN1@StringVali:

; 8725 :     {
; 8726 :         hr = STRSAFE_E_INVALID_PARAMETER;

  0000e	b8 57 00 07 80	 mov	 eax, -2147024809	; 80070057H
$LN2@StringVali:

; 8727 :     }
; 8728 : 
; 8729 :     return hr;
; 8730 : }

  00013	5d		 pop	 ebp
  00014	c2 04 00	 ret	 4
?StringValidateDestA@@YGJPBDII@Z ENDP			; StringValidateDestA
_TEXT	ENDS
EXTRN	__imp___vsnprintf:PROC
; Function compile flags: /Ogsp
;	COMDAT ?StringVPrintfWorkerA@@YGJPADIPAIPBD0@Z
_TEXT	SEGMENT
_pcchNewDestLength$ = 8					; size = 4
_pszFormat$ = 12					; size = 4
_argList$ = 16						; size = 4
?StringVPrintfWorkerA@@YGJPADIPAIPBD0@Z PROC		; StringVPrintfWorkerA, COMDAT
; _pszDest$ = edi
; _cchDest$ = eax

; 9029 : {

  00000	55		 push	 ebp
  00001	8b ec		 mov	 ebp, esp
  00003	53		 push	 ebx
  00004	56		 push	 esi

; 9030 :     HRESULT hr = S_OK;
; 9031 :     int iRet;
; 9032 :     size_t cchMax;
; 9033 :     size_t cchNewDestLength = 0;
; 9034 : 
; 9035 :     // leave the last space for the null terminator
; 9036 :     cchMax = cchDest - 1;
; 9037 : 
; 9038 : #if (STRSAFE_USE_SECURE_CRT == 1) && !defined(STRSAFE_LIB_IMPL)
; 9039 :     iRet = _vsnprintf_s(pszDest, cchDest, cchMax, pszFormat, argList);
; 9040 : #else
; 9041 :     #pragma warning(push)
; 9042 :     #pragma warning(disable: __WARNING_BANNED_API_USAGE)// "STRSAFE not included"
; 9043 :     iRet = _vsnprintf(pszDest, cchMax, pszFormat, argList);

  00005	ff 75 10	 push	 DWORD PTR _argList$[ebp]
  00008	8d 70 ff	 lea	 esi, DWORD PTR [eax-1]
  0000b	ff 75 0c	 push	 DWORD PTR _pszFormat$[ebp]
  0000e	33 db		 xor	 ebx, ebx
  00010	56		 push	 esi
  00011	57		 push	 edi
  00012	ff 15 00 00 00
	00		 call	 DWORD PTR __imp___vsnprintf
  00018	83 c4 10	 add	 esp, 16			; 00000010H

; 9044 :     #pragma warning(pop)
; 9045 : #endif
; 9046 :     // ASSERT((iRet < 0) || (((size_t)iRet) <= cchMax));
; 9047 : 
; 9048 :     if ((iRet < 0) || (((size_t)iRet) > cchMax))

  0001b	85 c0		 test	 eax, eax
  0001d	78 0b		 js	 SHORT $LN5@StringVPri
  0001f	3b c6		 cmp	 eax, esi
  00021	77 07		 ja	 SHORT $LN5@StringVPri

; 9058 :     }
; 9059 :     else if (((size_t)iRet) == cchMax)

  00023	75 0f		 jne	 SHORT $LN2@StringVPri

; 9060 :     {
; 9061 :         // need to null terminate the string
; 9062 :         pszDest += cchMax;
; 9063 :         *pszDest = '\0';

  00025	88 1c 3e	 mov	 BYTE PTR [esi+edi], bl

; 9064 : 
; 9065 :         cchNewDestLength = cchMax;
; 9066 :     }
; 9067 :     else

  00028	eb 08		 jmp	 SHORT $LN9@StringVPri
$LN5@StringVPri:

; 9049 :     {
; 9050 :         // need to null terminate the string
; 9051 :         pszDest += cchMax;
; 9052 :         *pszDest = '\0';

  0002a	88 1c 3e	 mov	 BYTE PTR [esi+edi], bl

; 9055 : 
; 9056 :         // we have truncated pszDest
; 9057 :         hr = STRSAFE_E_INSUFFICIENT_BUFFER;

  0002d	bb 7a 00 07 80	 mov	 ebx, -2147024774	; 8007007aH
$LN9@StringVPri:

; 9053 : 
; 9054 :         cchNewDestLength = cchMax;

  00032	8b c6		 mov	 eax, esi
$LN2@StringVPri:

; 9068 :     {
; 9069 :         cchNewDestLength = (size_t)iRet;
; 9070 :     }
; 9071 : 
; 9072 :     if (pcchNewDestLength)

  00034	8b 4d 08	 mov	 ecx, DWORD PTR _pcchNewDestLength$[ebp]
  00037	85 c9		 test	 ecx, ecx
  00039	74 02		 je	 SHORT $LN1@StringVPri

; 9073 :     {
; 9074 :         *pcchNewDestLength = cchNewDestLength;

  0003b	89 01		 mov	 DWORD PTR [ecx], eax
$LN1@StringVPri:
  0003d	5e		 pop	 esi

; 9075 :     }
; 9076 : 
; 9077 :     return hr;

  0003e	8b c3		 mov	 eax, ebx
  00040	5b		 pop	 ebx

; 9078 : }

  00041	5d		 pop	 ebp
  00042	c2 0c 00	 ret	 12			; 0000000cH
?StringVPrintfWorkerA@@YGJPADIPAIPBD0@Z ENDP		; StringVPrintfWorkerA
_TEXT	ENDS
PUBLIC	?_DECSTR@@YAXPADH@Z				; _DECSTR
; Function compile flags: /Ogsp
; File d:\lost saga for developer\youtube\tutorial\source\src\lsclient\stringprotect.h
;	COMDAT ?_DECSTR@@YAXPADH@Z
_TEXT	SEGMENT
_s$ = 8							; size = 4
_l$ = 12						; size = 4
?_DECSTR@@YAXPADH@Z PROC				; _DECSTR, COMDAT

; 40   : __forceinline void _DECSTR(char* s, int l){int i=0,l4=(l-1)/4,*p=(int*)s;s[l-1]=0;for(;i<l4;++i)*(p++)^=0xEAEBECED;for(i=l4*4;i<l-1;++i)s[i]^=0xED-i%4;}

  00000	55		 push	 ebp
  00001	8b ec		 mov	 ebp, esp
  00003	8b 4d 0c	 mov	 ecx, DWORD PTR _l$[ebp]
  00006	56		 push	 esi
  00007	8b 75 08	 mov	 esi, DWORD PTR _s$[ebp]
  0000a	57		 push	 edi
  0000b	8d 79 ff	 lea	 edi, DWORD PTR [ecx-1]
  0000e	8b c7		 mov	 eax, edi
  00010	99		 cdq
  00011	83 e2 03	 and	 edx, 3
  00014	03 c2		 add	 eax, edx
  00016	c1 f8 02	 sar	 eax, 2
  00019	8b d6		 mov	 edx, esi
  0001b	c6 44 0e ff 00	 mov	 BYTE PTR [esi+ecx-1], 0
  00020	85 c0		 test	 eax, eax
  00022	7e 0e		 jle	 SHORT $LN4@DECSTR
  00024	8b c8		 mov	 ecx, eax
$LL6@DECSTR:
  00026	81 32 ed ec eb
	ea		 xor	 DWORD PTR [edx], -353637139 ; eaebecedH
  0002c	83 c2 04	 add	 edx, 4
  0002f	49		 dec	 ecx
  00030	75 f4		 jne	 SHORT $LL6@DECSTR
$LN4@DECSTR:
  00032	c1 e0 02	 shl	 eax, 2
  00035	eb 17		 jmp	 SHORT $LN14@DECSTR
$LL3@DECSTR:
  00037	8b c8		 mov	 ecx, eax
  00039	81 e1 03 00 00
	80		 and	 ecx, -2147483645	; 80000003H
  0003f	79 05		 jns	 SHORT $LN13@DECSTR
  00041	49		 dec	 ecx
  00042	83 c9 fc	 or	 ecx, -4			; fffffffcH
  00045	41		 inc	 ecx
$LN13@DECSTR:
  00046	b2 ed		 mov	 dl, -19			; ffffffedH
  00048	2a d1		 sub	 dl, cl
  0004a	30 14 30	 xor	 BYTE PTR [eax+esi], dl
  0004d	40		 inc	 eax
$LN14@DECSTR:
  0004e	3b c7		 cmp	 eax, edi
  00050	7c e5		 jl	 SHORT $LL3@DECSTR
  00052	5f		 pop	 edi
  00053	5e		 pop	 esi
  00054	5d		 pop	 ebp
  00055	c3		 ret	 0
?_DECSTR@@YAXPADH@Z ENDP				; _DECSTR
_TEXT	ENDS
PUBLIC	??0NewShopPullDownItem@@QAE@XZ			; NewShopPullDownItem::NewShopPullDownItem
EXTRN	__imp_??0ioHashString@@QAE@XZ:PROC
;	COMDAT xdata$x
; File d:\lost saga for developer\youtube\tutorial\source\src\lsclient\gui\newshopbuywnd.h
xdata$x	SEGMENT
__unwindtable$??0NewShopPullDownItem@@QAE@XZ DD 0ffffffffH
	DD	FLAT:__unwindfunclet$??0NewShopPullDownItem@@QAE@XZ$0
	DD	00H
	DD	FLAT:__unwindfunclet$??0NewShopPullDownItem@@QAE@XZ$1
__ehfuncinfo$??0NewShopPullDownItem@@QAE@XZ DD 019930522H
	DD	02H
	DD	FLAT:__unwindtable$??0NewShopPullDownItem@@QAE@XZ
	DD	2 DUP(00H)
	DD	2 DUP(00H)
	DD	00H
	DD	01H
; Function compile flags: /Ogsp
xdata$x	ENDS
;	COMDAT ??0NewShopPullDownItem@@QAE@XZ
_TEXT	SEGMENT
_this$ = -16						; size = 4
__$EHRec$ = -12						; size = 12
??0NewShopPullDownItem@@QAE@XZ PROC			; NewShopPullDownItem::NewShopPullDownItem, COMDAT
; _this$ = ecx

; 25   : 	NewShopPullDownItem()

  00000	6a 04		 push	 4
  00002	b8 00 00 00 00	 mov	 eax, __ehhandler$??0NewShopPullDownItem@@QAE@XZ
  00007	e8 00 00 00 00	 call	 __EH_prolog3
  0000c	8b f1		 mov	 esi, ecx
  0000e	89 75 f0	 mov	 DWORD PTR _this$[ebp], esi
  00011	8b 3d 00 00 00
	00		 mov	 edi, DWORD PTR __imp_??0ioHashString@@QAE@XZ
  00017	ff d7		 call	 edi
  00019	33 db		 xor	 ebx, ebx
  0001b	8d 4e 24	 lea	 ecx, DWORD PTR [esi+36]
  0001e	89 5d fc	 mov	 DWORD PTR __$EHRec$[ebp+8], ebx
  00021	ff d7		 call	 edi
  00023	8d 4e 3c	 lea	 ecx, DWORD PTR [esi+60]
  00026	c6 45 fc 01	 mov	 BYTE PTR __$EHRec$[ebp+8], 1
  0002a	ff d7		 call	 edi

; 26   : 	{
; 27   : 		m_iMagicCode = 0;

  0002c	89 5e 10	 mov	 DWORD PTR [esi+16], ebx

; 28   : 		m_dwTextColor= 0; 

  0002f	89 5e 14	 mov	 DWORD PTR [esi+20], ebx

; 29   : 		m_bGrowthCatalystItem = false;

  00032	88 5e 18	 mov	 BYTE PTR [esi+24], bl

; 30   : 		m_iGrowthCatalystLevel = 0;

  00035	89 5e 1c	 mov	 DWORD PTR [esi+28], ebx

; 31   : 		m_bCount = false;

  00038	88 5e 20	 mov	 BYTE PTR [esi+32], bl

; 32   : 		m_dwCntTextColor = 0;

  0003b	89 5e 34	 mov	 DWORD PTR [esi+52], ebx

; 33   : 		m_bPetLevel = false;

  0003e	88 5e 38	 mov	 BYTE PTR [esi+56], bl

; 34   : 		m_dwPetLevelTextColor = 0;

  00041	89 5e 4c	 mov	 DWORD PTR [esi+76], ebx

; 35   : 	}

  00044	8b c6		 mov	 eax, esi
  00046	e8 00 00 00 00	 call	 __EH_epilog3
  0004b	c3		 ret	 0
_TEXT	ENDS
;	COMDAT text$x
text$x	SEGMENT
__unwindfunclet$??0NewShopPullDownItem@@QAE@XZ$0:
  00000	8b 4d f0	 mov	 ecx, DWORD PTR _this$[ebp]
  00003	ff 25 00 00 00
	00		 jmp	 DWORD PTR __imp_??1ioHashString@@QAE@XZ
__unwindfunclet$??0NewShopPullDownItem@@QAE@XZ$1:
  00009	8b 4d f0	 mov	 ecx, DWORD PTR _this$[ebp]
  0000c	83 c1 24	 add	 ecx, 36			; 00000024H
  0000f	ff 25 00 00 00
	00		 jmp	 DWORD PTR __imp_??1ioHashString@@QAE@XZ
__ehhandler$??0NewShopPullDownItem@@QAE@XZ:
  00015	8b 54 24 08	 mov	 edx, DWORD PTR [esp+8]
  00019	8d 42 0c	 lea	 eax, DWORD PTR [edx+12]
  0001c	8b 4a ec	 mov	 ecx, DWORD PTR [edx-20]
  0001f	33 c8		 xor	 ecx, eax
  00021	e8 00 00 00 00	 call	 @__security_check_cookie@4
  00026	b8 00 00 00 00	 mov	 eax, OFFSET __ehfuncinfo$??0NewShopPullDownItem@@QAE@XZ
  0002b	e9 00 00 00 00	 jmp	 ___CxxFrameHandler3
text$x	ENDS
??0NewShopPullDownItem@@QAE@XZ ENDP			; NewShopPullDownItem::NewShopPullDownItem
PUBLIC	?GetOpenBtn@NewShopPullDownWnd@@QAEPAVioWnd@@XZ	; NewShopPullDownWnd::GetOpenBtn
; Function compile flags: /Ogsp
;	COMDAT ?GetOpenBtn@NewShopPullDownWnd@@QAEPAVioWnd@@XZ
_TEXT	SEGMENT
?GetOpenBtn@NewShopPullDownWnd@@QAEPAVioWnd@@XZ PROC	; NewShopPullDownWnd::GetOpenBtn, COMDAT
; _this$ = ecx

; 77   : 	ioWnd *GetOpenBtn(){ return m_pOpenBtn; }

  00000	8b 81 98 01 00
	00		 mov	 eax, DWORD PTR [ecx+408]
  00006	c3		 ret	 0
?GetOpenBtn@NewShopPullDownWnd@@QAEPAVioWnd@@XZ ENDP	; NewShopPullDownWnd::GetOpenBtn
_TEXT	ENDS
PUBLIC	??0tagPetSlot@@QAE@XZ				; tagPetSlot::tagPetSlot
EXTRN	__imp_?Clear@ioHashString@@QAEXXZ:PROC
;	COMDAT xdata$x
; File d:\lost saga for developer\youtube\tutorial\source\src\lsclient\petenumtype.h
xdata$x	SEGMENT
__unwindtable$??0tagPetSlot@@QAE@XZ DD 0ffffffffH
	DD	FLAT:__unwindfunclet$??0tagPetSlot@@QAE@XZ$0
	DD	00H
	DD	FLAT:__unwindfunclet$??0tagPetSlot@@QAE@XZ$1
__ehfuncinfo$??0tagPetSlot@@QAE@XZ DD 019930522H
	DD	02H
	DD	FLAT:__unwindtable$??0tagPetSlot@@QAE@XZ
	DD	2 DUP(00H)
	DD	2 DUP(00H)
	DD	00H
	DD	01H
; Function compile flags: /Ogsp
xdata$x	ENDS
;	COMDAT ??0tagPetSlot@@QAE@XZ
_TEXT	SEGMENT
_this$ = -16						; size = 4
__$EHRec$ = -12						; size = 12
??0tagPetSlot@@QAE@XZ PROC				; tagPetSlot::tagPetSlot, COMDAT
; _this$ = ecx

; 218  : 	tagPetSlot()

  00000	6a 04		 push	 4
  00002	b8 00 00 00 00	 mov	 eax, __ehhandler$??0tagPetSlot@@QAE@XZ
  00007	e8 00 00 00 00	 call	 __EH_prolog3
  0000c	8b f1		 mov	 esi, ecx
  0000e	89 75 f0	 mov	 DWORD PTR _this$[ebp], esi
  00011	8b 3d 00 00 00
	00		 mov	 edi, DWORD PTR __imp_??0ioHashString@@QAE@XZ
  00017	8d 4e 18	 lea	 ecx, DWORD PTR [esi+24]
  0001a	ff d7		 call	 edi
  0001c	33 db		 xor	 ebx, ebx
  0001e	8d 4e 28	 lea	 ecx, DWORD PTR [esi+40]
  00021	89 5d fc	 mov	 DWORD PTR __$EHRec$[ebp+8], ebx
  00024	ff d7		 call	 edi

; 219  : 	{
; 220  : 		m_nPetCode = 0;
; 221  : 		m_PetRankType = 0;
; 222  : 		m_nIndex = 0;
; 223  : 		m_nCurLevel = 0;
; 224  : 		m_CurExp = 0;
; 225  : 		m_bEquip = false;
; 226  : 		m_Name.Clear();

  00026	8b 3d 00 00 00
	00		 mov	 edi, DWORD PTR __imp_?Clear@ioHashString@@QAEXXZ
  0002c	8d 4e 18	 lea	 ecx, DWORD PTR [esi+24]
  0002f	c6 45 fc 01	 mov	 BYTE PTR __$EHRec$[ebp+8], 1
  00033	89 1e		 mov	 DWORD PTR [esi], ebx
  00035	89 5e 04	 mov	 DWORD PTR [esi+4], ebx
  00038	89 5e 08	 mov	 DWORD PTR [esi+8], ebx
  0003b	89 5e 0c	 mov	 DWORD PTR [esi+12], ebx
  0003e	89 5e 10	 mov	 DWORD PTR [esi+16], ebx
  00041	88 5e 14	 mov	 BYTE PTR [esi+20], bl
  00044	ff d7		 call	 edi

; 227  : 		m_IconName.Clear();

  00046	8d 4e 28	 lea	 ecx, DWORD PTR [esi+40]
  00049	ff d7		 call	 edi

; 228  : 	}

  0004b	8b c6		 mov	 eax, esi
  0004d	e8 00 00 00 00	 call	 __EH_epilog3
  00052	c3		 ret	 0
_TEXT	ENDS
;	COMDAT text$x
text$x	SEGMENT
__unwindfunclet$??0tagPetSlot@@QAE@XZ$0:
  00000	8b 4d f0	 mov	 ecx, DWORD PTR _this$[ebp]
  00003	83 c1 18	 add	 ecx, 24			; 00000018H
  00006	ff 25 00 00 00
	00		 jmp	 DWORD PTR __imp_??1ioHashString@@QAE@XZ
__unwindfunclet$??0tagPetSlot@@QAE@XZ$1:
  0000c	8b 4d f0	 mov	 ecx, DWORD PTR _this$[ebp]
  0000f	83 c1 28	 add	 ecx, 40			; 00000028H
  00012	ff 25 00 00 00
	00		 jmp	 DWORD PTR __imp_??1ioHashString@@QAE@XZ
__ehhandler$??0tagPetSlot@@QAE@XZ:
  00018	8b 54 24 08	 mov	 edx, DWORD PTR [esp+8]
  0001c	8d 42 0c	 lea	 eax, DWORD PTR [edx+12]
  0001f	8b 4a ec	 mov	 ecx, DWORD PTR [edx-20]
  00022	33 c8		 xor	 ecx, eax
  00024	e8 00 00 00 00	 call	 @__security_check_cookie@4
  00029	b8 00 00 00 00	 mov	 eax, OFFSET __ehfuncinfo$??0tagPetSlot@@QAE@XZ
  0002e	e9 00 00 00 00	 jmp	 ___CxxFrameHandler3
text$x	ENDS
??0tagPetSlot@@QAE@XZ ENDP				; tagPetSlot::tagPetSlot
PUBLIC	?GetAlchemicInventory@ioMyInfo@@QAEPAVioAlchemicInventory@@XZ ; ioMyInfo::GetAlchemicInventory
; Function compile flags: /Ogsp
; File d:\lost saga for developer\youtube\tutorial\source\src\lsclient\iomyinfo.h
;	COMDAT ?GetAlchemicInventory@ioMyInfo@@QAEPAVioAlchemicInventory@@XZ
_TEXT	SEGMENT
?GetAlchemicInventory@ioMyInfo@@QAEPAVioAlchemicInventory@@XZ PROC ; ioMyInfo::GetAlchemicInventory, COMDAT
; _this$ = ecx

; 640  : 	ioAlchemicInventory* GetAlchemicInventory() { return &m_UserAlchmicInven; }

  00000	8d 81 84 02 00
	00		 lea	 eax, DWORD PTR [ecx+644]
  00006	c3		 ret	 0
?GetAlchemicInventory@ioMyInfo@@QAEPAVioAlchemicInventory@@XZ ENDP ; ioMyInfo::GetAlchemicInventory
_TEXT	ENDS
PUBLIC	?GetUserPet@ioMyInfo@@QAEPAVioUserPet@@XZ	; ioMyInfo::GetUserPet
; Function compile flags: /Ogsp
;	COMDAT ?GetUserPet@ioMyInfo@@QAEPAVioUserPet@@XZ
_TEXT	SEGMENT
?GetUserPet@ioMyInfo@@QAEPAVioUserPet@@XZ PROC		; ioMyInfo::GetUserPet, COMDAT
; _this$ = ecx

; 644  : 	ioUserPet* GetUserPet() { return &m_UserPet; }

  00000	8d 81 c0 02 00
	00		 lea	 eax, DWORD PTR [ecx+704]
  00006	c3		 ret	 0
?GetUserPet@ioMyInfo@@QAEPAVioUserPet@@XZ ENDP		; ioMyInfo::GetUserPet
_TEXT	ENDS
EXTRN	__imp_??0exception@std@@QAE@ABV01@@Z:PROC
; Function compile flags: /Ogsp
;	COMDAT ??0bad_alloc@std@@QAE@ABV01@@Z
_TEXT	SEGMENT
___that$ = 8						; size = 4
??0bad_alloc@std@@QAE@ABV01@@Z PROC			; std::bad_alloc::bad_alloc, COMDAT
; _this$ = ecx
  00000	55		 push	 ebp
  00001	8b ec		 mov	 ebp, esp
  00003	56		 push	 esi
  00004	ff 75 08	 push	 DWORD PTR ___that$[ebp]
  00007	8b f1		 mov	 esi, ecx
  00009	ff 15 00 00 00
	00		 call	 DWORD PTR __imp_??0exception@std@@QAE@ABV01@@Z
  0000f	c7 06 00 00 00
	00		 mov	 DWORD PTR [esi], OFFSET ??_7bad_alloc@std@@6B@
  00015	8b c6		 mov	 eax, esi
  00017	5e		 pop	 esi
  00018	5d		 pop	 ebp
  00019	c2 04 00	 ret	 4
??0bad_alloc@std@@QAE@ABV01@@Z ENDP			; std::bad_alloc::bad_alloc
_TEXT	ENDS
PUBLIC	??0PetEatWnd@@QAE@XZ				; PetEatWnd::PetEatWnd
EXTRN	__imp_??0ioWnd@@QAE@XZ:PROC
; Function compile flags: /Ogsp
; File d:\lost saga for developer\youtube\tutorial\source\src\lsclient\gui\peteatwnd.cpp
;	COMDAT ??0PetEatWnd@@QAE@XZ
_TEXT	SEGMENT
??0PetEatWnd@@QAE@XZ PROC				; PetEatWnd::PetEatWnd, COMDAT
; _this$ = ecx

; 15   : {

  00000	56		 push	 esi
  00001	8b f1		 mov	 esi, ecx
  00003	ff 15 00 00 00
	00		 call	 DWORD PTR __imp_??0ioWnd@@QAE@XZ

; 16   : 	m_pManualMark = NULL;

  00009	83 a6 60 01 00
	00 00		 and	 DWORD PTR [esi+352], 0

; 17   : 	m_nSelectPetSlot = 0;

  00010	83 a6 68 01 00
	00 00		 and	 DWORD PTR [esi+360], 0

; 18   : 
; 19   : 	InitData();

  00017	8b ce		 mov	 ecx, esi
  00019	c7 06 00 00 00
	00		 mov	 DWORD PTR [esi], OFFSET ??_7PetEatWnd@@6B@
  0001f	e8 00 00 00 00	 call	 ?InitData@PetEatWnd@@IAEXXZ ; PetEatWnd::InitData

; 20   : }

  00024	8b c6		 mov	 eax, esi
  00026	5e		 pop	 esi
  00027	c3		 ret	 0
??0PetEatWnd@@QAE@XZ ENDP				; PetEatWnd::PetEatWnd
; Function compile flags: /Ogsp
_TEXT	ENDS
;	COMDAT ??_GPetEatWnd@@UAEPAXI@Z
_TEXT	SEGMENT
___flags$ = 8						; size = 4
??_GPetEatWnd@@UAEPAXI@Z PROC				; PetEatWnd::`scalar deleting destructor', COMDAT
; _this$ = ecx
  00000	55		 push	 ebp
  00001	8b ec		 mov	 ebp, esp
  00003	56		 push	 esi
  00004	8b f1		 mov	 esi, ecx
  00006	e8 00 00 00 00	 call	 ??1PetEatWnd@@UAE@XZ	; PetEatWnd::~PetEatWnd
  0000b	f6 45 08 01	 test	 BYTE PTR ___flags$[ebp], 1
  0000f	74 07		 je	 SHORT $LN1@scalar@4
  00011	56		 push	 esi
  00012	e8 00 00 00 00	 call	 ??3@YAXPAX@Z		; operator delete
  00017	59		 pop	 ecx
$LN1@scalar@4:
  00018	8b c6		 mov	 eax, esi
  0001a	5e		 pop	 esi
  0001b	5d		 pop	 ebp
  0001c	c2 04 00	 ret	 4
??_GPetEatWnd@@UAEPAXI@Z ENDP				; PetEatWnd::`scalar deleting destructor'
; Function compile flags: /Ogsp
_TEXT	ENDS
;	COMDAT ?iwm_hide@PetEatWnd@@UAEXXZ
_TEXT	SEGMENT
?iwm_hide@PetEatWnd@@UAEXXZ PROC			; PetEatWnd::iwm_hide, COMDAT
; _this$ = ecx

; 42   : 	m_nSelectPetSlot = 0;

  00000	83 a1 68 01 00
	00 00		 and	 DWORD PTR [ecx+360], 0

; 43   : 	InitData();

  00007	e8 00 00 00 00	 call	 ?InitData@PetEatWnd@@IAEXXZ ; PetEatWnd::InitData

; 44   : 	HideMainInfo();

  0000c	e9 00 00 00 00	 jmp	 ?HideMainInfo@PetEatWnd@@IAEXXZ ; PetEatWnd::HideMainInfo
?iwm_hide@PetEatWnd@@UAEXXZ ENDP			; PetEatWnd::iwm_hide
_TEXT	ENDS
PUBLIC	??D?$_Vector_iterator@V?$_Vector_val@UtagAlchemicItemInfo@@V?$allocator@UtagAlchemicItemInfo@@@std@@@std@@@std@@QBEAAUtagAlchemicItemInfo@@XZ ; std::_Vector_iterator<std::_Vector_val<tagAlchemicItemInfo,std::allocator<tagAlchemicItemInfo> > >::operator*
; Function compile flags: /Ogsp
; File c:\program files (x86)\microsoft visual studio 10.0\vc\include\vector
;	COMDAT ??D?$_Vector_iterator@V?$_Vector_val@UtagAlchemicItemInfo@@V?$allocator@UtagAlchemicItemInfo@@@std@@@std@@@std@@QBEAAUtagAlchemicItemInfo@@XZ
_TEXT	SEGMENT
??D?$_Vector_iterator@V?$_Vector_val@UtagAlchemicItemInfo@@V?$allocator@UtagAlchemicItemInfo@@@std@@@std@@@std@@QBEAAUtagAlchemicItemInfo@@XZ PROC ; std::_Vector_iterator<std::_Vector_val<tagAlchemicItemInfo,std::allocator<tagAlchemicItemInfo> > >::operator*, COMDAT
; _this$ = ecx

; 322  : 		return ((reference)**(_Mybase *)this);

  00000	8b 01		 mov	 eax, DWORD PTR [ecx]

; 323  : 		}

  00002	c3		 ret	 0
??D?$_Vector_iterator@V?$_Vector_val@UtagAlchemicItemInfo@@V?$allocator@UtagAlchemicItemInfo@@@std@@@std@@@std@@QBEAAUtagAlchemicItemInfo@@XZ ENDP ; std::_Vector_iterator<std::_Vector_val<tagAlchemicItemInfo,std::allocator<tagAlchemicItemInfo> > >::operator*
_TEXT	ENDS
PUBLIC	??E?$_Vector_iterator@V?$_Vector_val@UtagAlchemicItemInfo@@V?$allocator@UtagAlchemicItemInfo@@@std@@@std@@@std@@QAEAAV01@XZ ; std::_Vector_iterator<std::_Vector_val<tagAlchemicItemInfo,std::allocator<tagAlchemicItemInfo> > >::operator++
; Function compile flags: /Ogsp
;	COMDAT ??E?$_Vector_iterator@V?$_Vector_val@UtagAlchemicItemInfo@@V?$allocator@UtagAlchemicItemInfo@@@std@@@std@@@std@@QAEAAV01@XZ
_TEXT	SEGMENT
??E?$_Vector_iterator@V?$_Vector_val@UtagAlchemicItemInfo@@V?$allocator@UtagAlchemicItemInfo@@@std@@@std@@@std@@QAEAAV01@XZ PROC ; std::_Vector_iterator<std::_Vector_val<tagAlchemicItemInfo,std::allocator<tagAlchemicItemInfo> > >::operator++, COMDAT
; _this$ = ecx

; 331  : 		{	// preincrement

  00000	8b c1		 mov	 eax, ecx

; 332  : 		++*(_Mybase *)this;

  00002	83 00 1c	 add	 DWORD PTR [eax], 28	; 0000001cH

; 333  : 		return (*this);
; 334  : 		}

  00005	c3		 ret	 0
??E?$_Vector_iterator@V?$_Vector_val@UtagAlchemicItemInfo@@V?$allocator@UtagAlchemicItemInfo@@@std@@@std@@@std@@QAEAAV01@XZ ENDP ; std::_Vector_iterator<std::_Vector_val<tagAlchemicItemInfo,std::allocator<tagAlchemicItemInfo> > >::operator++
_TEXT	ENDS
PUBLIC	?max_size@?$vector@UNewShopPullDownItem@@V?$allocator@UNewShopPullDownItem@@@std@@@std@@QBEIXZ ; std::vector<NewShopPullDownItem,std::allocator<NewShopPullDownItem> >::max_size
; Function compile flags: /Ogsp
;	COMDAT ?max_size@?$vector@UNewShopPullDownItem@@V?$allocator@UNewShopPullDownItem@@@std@@@std@@QBEIXZ
_TEXT	SEGMENT
?max_size@?$vector@UNewShopPullDownItem@@V?$allocator@UNewShopPullDownItem@@@std@@@std@@QBEIXZ PROC ; std::vector<NewShopPullDownItem,std::allocator<NewShopPullDownItem> >::max_size, COMDAT
; _this$ = ecx

; 884  : 		return (this->_Alval.max_size());

  00000	b8 33 33 33 03	 mov	 eax, 53687091		; 03333333H

; 885  : 		}

  00005	c3		 ret	 0
?max_size@?$vector@UNewShopPullDownItem@@V?$allocator@UNewShopPullDownItem@@@std@@@std@@QBEIXZ ENDP ; std::vector<NewShopPullDownItem,std::allocator<NewShopPullDownItem> >::max_size
_TEXT	ENDS
PUBLIC	??0?$_Vector_val@UNewShopPullDownItem@@V?$allocator@UNewShopPullDownItem@@@std@@@std@@QAE@V?$allocator@UNewShopPullDownItem@@@1@@Z ; std::_Vector_val<NewShopPullDownItem,std::allocator<NewShopPullDownItem> >::_Vector_val<NewShopPullDownItem,std::allocator<NewShopPullDownItem> >
; Function compile flags: /Ogsp
;	COMDAT ??0?$_Vector_val@UNewShopPullDownItem@@V?$allocator@UNewShopPullDownItem@@@std@@@std@@QAE@V?$allocator@UNewShopPullDownItem@@@1@@Z
_TEXT	SEGMENT
__Al$ = 8						; size = 1
??0?$_Vector_val@UNewShopPullDownItem@@V?$allocator@UNewShopPullDownItem@@@std@@@std@@QAE@V?$allocator@UNewShopPullDownItem@@@1@@Z PROC ; std::_Vector_val<NewShopPullDownItem,std::allocator<NewShopPullDownItem> >::_Vector_val<NewShopPullDownItem,std::allocator<NewShopPullDownItem> >, COMDAT
; _this$ = ecx

; 426  : 		{	// construct allocator from _Al

  00000	8b c1		 mov	 eax, ecx

; 427  : 		_Myfirst = 0;

  00002	33 c9		 xor	 ecx, ecx
  00004	89 08		 mov	 DWORD PTR [eax], ecx

; 428  : 		_Mylast = 0;

  00006	89 48 04	 mov	 DWORD PTR [eax+4], ecx

; 429  : 		_Myend = 0;

  00009	89 48 08	 mov	 DWORD PTR [eax+8], ecx

; 430  : 		}

  0000c	c2 04 00	 ret	 4
??0?$_Vector_val@UNewShopPullDownItem@@V?$allocator@UNewShopPullDownItem@@@std@@@std@@QAE@V?$allocator@UNewShopPullDownItem@@@1@@Z ENDP ; std::_Vector_val<NewShopPullDownItem,std::allocator<NewShopPullDownItem> >::_Vector_val<NewShopPullDownItem,std::allocator<NewShopPullDownItem> >
_TEXT	ENDS
PUBLIC	?allocate@?$allocator@UNewShopPullDownItem@@@std@@QAEPAUNewShopPullDownItem@@I@Z ; std::allocator<NewShopPullDownItem>::allocate
; Function compile flags: /Ogsp
; File c:\program files (x86)\microsoft visual studio 10.0\vc\include\xmemory
;	COMDAT ?allocate@?$allocator@UNewShopPullDownItem@@@std@@QAEPAUNewShopPullDownItem@@I@Z
_TEXT	SEGMENT
__Count$ = 8						; size = 4
?allocate@?$allocator@UNewShopPullDownItem@@@std@@QAEPAUNewShopPullDownItem@@I@Z PROC ; std::allocator<NewShopPullDownItem>::allocate, COMDAT
; _this$ = ecx

; 186  : 		{	// allocate array of _Count elements

  00000	55		 push	 ebp
  00001	8b ec		 mov	 ebp, esp

; 187  : 		return (_Allocate(_Count, (pointer)0));

  00003	6a 00		 push	 0
  00005	ff 75 08	 push	 DWORD PTR __Count$[ebp]
  00008	e8 00 00 00 00	 call	 ??$_Allocate@UNewShopPullDownItem@@@std@@YAPAUNewShopPullDownItem@@IPAU1@@Z ; std::_Allocate<NewShopPullDownItem>
  0000d	59		 pop	 ecx
  0000e	59		 pop	 ecx

; 188  : 		}

  0000f	5d		 pop	 ebp
  00010	c2 04 00	 ret	 4
?allocate@?$allocator@UNewShopPullDownItem@@@std@@QAEPAUNewShopPullDownItem@@I@Z ENDP ; std::allocator<NewShopPullDownItem>::allocate
_TEXT	ENDS
PUBLIC	??0?$_Vector_val@UtagAlchemicItemInfo@@V?$allocator@UtagAlchemicItemInfo@@@std@@@std@@QAE@V?$allocator@UtagAlchemicItemInfo@@@1@@Z ; std::_Vector_val<tagAlchemicItemInfo,std::allocator<tagAlchemicItemInfo> >::_Vector_val<tagAlchemicItemInfo,std::allocator<tagAlchemicItemInfo> >
; Function compile flags: /Ogsp
; File c:\program files (x86)\microsoft visual studio 10.0\vc\include\vector
;	COMDAT ??0?$_Vector_val@UtagAlchemicItemInfo@@V?$allocator@UtagAlchemicItemInfo@@@std@@@std@@QAE@V?$allocator@UtagAlchemicItemInfo@@@1@@Z
_TEXT	SEGMENT
__Al$ = 8						; size = 1
??0?$_Vector_val@UtagAlchemicItemInfo@@V?$allocator@UtagAlchemicItemInfo@@@std@@@std@@QAE@V?$allocator@UtagAlchemicItemInfo@@@1@@Z PROC ; std::_Vector_val<tagAlchemicItemInfo,std::allocator<tagAlchemicItemInfo> >::_Vector_val<tagAlchemicItemInfo,std::allocator<tagAlchemicItemInfo> >, COMDAT
; _this$ = ecx

; 426  : 		{	// construct allocator from _Al

  00000	8b c1		 mov	 eax, ecx

; 427  : 		_Myfirst = 0;

  00002	33 c9		 xor	 ecx, ecx
  00004	89 08		 mov	 DWORD PTR [eax], ecx

; 428  : 		_Mylast = 0;

  00006	89 48 04	 mov	 DWORD PTR [eax+4], ecx

; 429  : 		_Myend = 0;

  00009	89 48 08	 mov	 DWORD PTR [eax+8], ecx

; 430  : 		}

  0000c	c2 04 00	 ret	 4
??0?$_Vector_val@UtagAlchemicItemInfo@@V?$allocator@UtagAlchemicItemInfo@@@std@@@std@@QAE@V?$allocator@UtagAlchemicItemInfo@@@1@@Z ENDP ; std::_Vector_val<tagAlchemicItemInfo,std::allocator<tagAlchemicItemInfo> >::_Vector_val<tagAlchemicItemInfo,std::allocator<tagAlchemicItemInfo> >
_TEXT	ENDS
PUBLIC	??0?$_Vector_iterator@V?$_Vector_val@UtagAlchemicItemInfo@@V?$allocator@UtagAlchemicItemInfo@@@std@@@std@@@std@@QAE@PAUtagAlchemicItemInfo@@PBU_Container_base0@1@@Z ; std::_Vector_iterator<std::_Vector_val<tagAlchemicItemInfo,std::allocator<tagAlchemicItemInfo> > >::_Vector_iterator<std::_Vector_val<tagAlchemicItemInfo,std::allocator<tagAlchemicItemInfo> > >
; Function compile flags: /Ogsp
;	COMDAT ??0?$_Vector_iterator@V?$_Vector_val@UtagAlchemicItemInfo@@V?$allocator@UtagAlchemicItemInfo@@@std@@@std@@@std@@QAE@PAUtagAlchemicItemInfo@@PBU_Container_base0@1@@Z
_TEXT	SEGMENT
__Parg$ = 8						; size = 4
__Pvector$ = 12						; size = 4
??0?$_Vector_iterator@V?$_Vector_val@UtagAlchemicItemInfo@@V?$allocator@UtagAlchemicItemInfo@@@std@@@std@@@std@@QAE@PAUtagAlchemicItemInfo@@PBU_Container_base0@1@@Z PROC ; std::_Vector_iterator<std::_Vector_val<tagAlchemicItemInfo,std::allocator<tagAlchemicItemInfo> > >::_Vector_iterator<std::_Vector_val<tagAlchemicItemInfo,std::allocator<tagAlchemicItemInfo> > >, COMDAT
; _this$ = ecx

; 304  : 		{	// construct with pointer _Parg

  00000	55		 push	 ebp
  00001	8b ec		 mov	 ebp, esp
  00003	8b c1		 mov	 eax, ecx
  00005	8b 4d 08	 mov	 ecx, DWORD PTR __Parg$[ebp]
  00008	89 08		 mov	 DWORD PTR [eax], ecx

; 305  : 		}

  0000a	5d		 pop	 ebp
  0000b	c2 08 00	 ret	 8
??0?$_Vector_iterator@V?$_Vector_val@UtagAlchemicItemInfo@@V?$allocator@UtagAlchemicItemInfo@@@std@@@std@@@std@@QAE@PAUtagAlchemicItemInfo@@PBU_Container_base0@1@@Z ENDP ; std::_Vector_iterator<std::_Vector_val<tagAlchemicItemInfo,std::allocator<tagAlchemicItemInfo> > >::_Vector_iterator<std::_Vector_val<tagAlchemicItemInfo,std::allocator<tagAlchemicItemInfo> > >
_TEXT	ENDS
PUBLIC	??8?$_Vector_const_iterator@V?$_Vector_val@UtagAlchemicItemInfo@@V?$allocator@UtagAlchemicItemInfo@@@std@@@std@@@std@@QBE_NABV01@@Z ; std::_Vector_const_iterator<std::_Vector_val<tagAlchemicItemInfo,std::allocator<tagAlchemicItemInfo> > >::operator==
; Function compile flags: /Ogsp
;	COMDAT ??8?$_Vector_const_iterator@V?$_Vector_val@UtagAlchemicItemInfo@@V?$allocator@UtagAlchemicItemInfo@@@std@@@std@@@std@@QBE_NABV01@@Z
_TEXT	SEGMENT
__Right$ = 8						; size = 4
??8?$_Vector_const_iterator@V?$_Vector_val@UtagAlchemicItemInfo@@V?$allocator@UtagAlchemicItemInfo@@@std@@@std@@@std@@QBE_NABV01@@Z PROC ; std::_Vector_const_iterator<std::_Vector_val<tagAlchemicItemInfo,std::allocator<tagAlchemicItemInfo> > >::operator==, COMDAT
; _this$ = ecx

; 201  : 		{	// test for iterator equality

  00000	55		 push	 ebp
  00001	8b ec		 mov	 ebp, esp

; 202  : 		_Compat(_Right);
; 203  : 		return (this->_Ptr == _Right._Ptr);

  00003	8b 01		 mov	 eax, DWORD PTR [ecx]
  00005	8b 4d 08	 mov	 ecx, DWORD PTR __Right$[ebp]
  00008	2b 01		 sub	 eax, DWORD PTR [ecx]
  0000a	f7 d8		 neg	 eax
  0000c	1b c0		 sbb	 eax, eax
  0000e	40		 inc	 eax

; 204  : 		}

  0000f	5d		 pop	 ebp
  00010	c2 04 00	 ret	 4
??8?$_Vector_const_iterator@V?$_Vector_val@UtagAlchemicItemInfo@@V?$allocator@UtagAlchemicItemInfo@@@std@@@std@@@std@@QBE_NABV01@@Z ENDP ; std::_Vector_const_iterator<std::_Vector_val<tagAlchemicItemInfo,std::allocator<tagAlchemicItemInfo> > >::operator==
_TEXT	ENDS
PUBLIC	?_Grow_to@?$vector@UNewShopPullDownItem@@V?$allocator@UNewShopPullDownItem@@@std@@@std@@IBEII@Z ; std::vector<NewShopPullDownItem,std::allocator<NewShopPullDownItem> >::_Grow_to
; Function compile flags: /Ogsp
;	COMDAT ?_Grow_to@?$vector@UNewShopPullDownItem@@V?$allocator@UNewShopPullDownItem@@@std@@@std@@IBEII@Z
_TEXT	SEGMENT
__Count$ = 8						; size = 4
?_Grow_to@?$vector@UNewShopPullDownItem@@V?$allocator@UNewShopPullDownItem@@@std@@@std@@IBEII@Z PROC ; std::vector<NewShopPullDownItem,std::allocator<NewShopPullDownItem> >::_Grow_to, COMDAT
; _this$ = ecx

; 1274 : 		{	// grow by 50% or at least to _Count

  00000	55		 push	 ebp
  00001	8b ec		 mov	 ebp, esp

; 1275 : 		size_type _Capacity = capacity();

  00003	8b 41 08	 mov	 eax, DWORD PTR [ecx+8]
  00006	2b 01		 sub	 eax, DWORD PTR [ecx]
  00008	6a 50		 push	 80			; 00000050H
  0000a	99		 cdq
  0000b	59		 pop	 ecx
  0000c	f7 f9		 idiv	 ecx

; 1276 : 
; 1277 : 		_Capacity = max_size() - _Capacity / 2 < _Capacity
; 1278 : 			? 0 : _Capacity + _Capacity / 2;	// try to grow by 50%

  0000e	ba 33 33 33 03	 mov	 edx, 53687091		; 03333333H
  00013	8b c8		 mov	 ecx, eax
  00015	d1 e9		 shr	 ecx, 1
  00017	2b d1		 sub	 edx, ecx
  00019	3b d0		 cmp	 edx, eax
  0001b	73 04		 jae	 SHORT $LN4@Grow_to
  0001d	33 c0		 xor	 eax, eax
  0001f	eb 02		 jmp	 SHORT $LN5@Grow_to
$LN4@Grow_to:
  00021	03 c1		 add	 eax, ecx
$LN5@Grow_to:

; 1279 : 		if (_Capacity < _Count)

  00023	3b 45 08	 cmp	 eax, DWORD PTR __Count$[ebp]

; 1280 : 			_Capacity = _Count;

  00026	0f 42 45 08	 cmovb	 eax, DWORD PTR __Count$[ebp]

; 1281 : 		return (_Capacity);
; 1282 : 		}

  0002a	5d		 pop	 ebp
  0002b	c2 04 00	 ret	 4
?_Grow_to@?$vector@UNewShopPullDownItem@@V?$allocator@UNewShopPullDownItem@@@std@@@std@@IBEII@Z ENDP ; std::vector<NewShopPullDownItem,std::allocator<NewShopPullDownItem> >::_Grow_to
_TEXT	ENDS
PUBLIC	?max_size@?$vector@UtagAlchemicItemInfo@@V?$allocator@UtagAlchemicItemInfo@@@std@@@std@@QBEIXZ ; std::vector<tagAlchemicItemInfo,std::allocator<tagAlchemicItemInfo> >::max_size
; Function compile flags: /Ogsp
;	COMDAT ?max_size@?$vector@UtagAlchemicItemInfo@@V?$allocator@UtagAlchemicItemInfo@@@std@@@std@@QBEIXZ
_TEXT	SEGMENT
?max_size@?$vector@UtagAlchemicItemInfo@@V?$allocator@UtagAlchemicItemInfo@@@std@@@std@@QBEIXZ PROC ; std::vector<tagAlchemicItemInfo,std::allocator<tagAlchemicItemInfo> >::max_size, COMDAT
; _this$ = ecx

; 884  : 		return (this->_Alval.max_size());

  00000	b8 49 92 24 09	 mov	 eax, 153391689		; 09249249H

; 885  : 		}

  00005	c3		 ret	 0
?max_size@?$vector@UtagAlchemicItemInfo@@V?$allocator@UtagAlchemicItemInfo@@@std@@@std@@QBEIXZ ENDP ; std::vector<tagAlchemicItemInfo,std::allocator<tagAlchemicItemInfo> >::max_size
_TEXT	ENDS
PUBLIC	?_Grow_to@?$vector@UtagAlchemicItemInfo@@V?$allocator@UtagAlchemicItemInfo@@@std@@@std@@IBEII@Z ; std::vector<tagAlchemicItemInfo,std::allocator<tagAlchemicItemInfo> >::_Grow_to
; Function compile flags: /Ogsp
;	COMDAT ?_Grow_to@?$vector@UtagAlchemicItemInfo@@V?$allocator@UtagAlchemicItemInfo@@@std@@@std@@IBEII@Z
_TEXT	SEGMENT
__Count$ = 8						; size = 4
?_Grow_to@?$vector@UtagAlchemicItemInfo@@V?$allocator@UtagAlchemicItemInfo@@@std@@@std@@IBEII@Z PROC ; std::vector<tagAlchemicItemInfo,std::allocator<tagAlchemicItemInfo> >::_Grow_to, COMDAT
; _this$ = ecx

; 1274 : 		{	// grow by 50% or at least to _Count

  00000	55		 push	 ebp
  00001	8b ec		 mov	 ebp, esp

; 1275 : 		size_type _Capacity = capacity();

  00003	8b 41 08	 mov	 eax, DWORD PTR [ecx+8]
  00006	2b 01		 sub	 eax, DWORD PTR [ecx]
  00008	6a 1c		 push	 28			; 0000001cH
  0000a	99		 cdq
  0000b	59		 pop	 ecx
  0000c	f7 f9		 idiv	 ecx

; 1276 : 
; 1277 : 		_Capacity = max_size() - _Capacity / 2 < _Capacity
; 1278 : 			? 0 : _Capacity + _Capacity / 2;	// try to grow by 50%

  0000e	ba 49 92 24 09	 mov	 edx, 153391689		; 09249249H
  00013	8b c8		 mov	 ecx, eax
  00015	d1 e9		 shr	 ecx, 1
  00017	2b d1		 sub	 edx, ecx
  00019	3b d0		 cmp	 edx, eax
  0001b	73 04		 jae	 SHORT $LN4@Grow_to@2
  0001d	33 c0		 xor	 eax, eax
  0001f	eb 02		 jmp	 SHORT $LN5@Grow_to@2
$LN4@Grow_to@2:
  00021	03 c1		 add	 eax, ecx
$LN5@Grow_to@2:

; 1279 : 		if (_Capacity < _Count)

  00023	3b 45 08	 cmp	 eax, DWORD PTR __Count$[ebp]

; 1280 : 			_Capacity = _Count;

  00026	0f 42 45 08	 cmovb	 eax, DWORD PTR __Count$[ebp]

; 1281 : 		return (_Capacity);
; 1282 : 		}

  0002a	5d		 pop	 ebp
  0002b	c2 04 00	 ret	 4
?_Grow_to@?$vector@UtagAlchemicItemInfo@@V?$allocator@UtagAlchemicItemInfo@@@std@@@std@@IBEII@Z ENDP ; std::vector<tagAlchemicItemInfo,std::allocator<tagAlchemicItemInfo> >::_Grow_to
_TEXT	ENDS
PUBLIC	??0?$_Vector_iterator@V?$_Vector_val@UNewShopPullDownItem@@V?$allocator@UNewShopPullDownItem@@@std@@@std@@@std@@QAE@PAUNewShopPullDownItem@@PBU_Container_base0@1@@Z ; std::_Vector_iterator<std::_Vector_val<NewShopPullDownItem,std::allocator<NewShopPullDownItem> > >::_Vector_iterator<std::_Vector_val<NewShopPullDownItem,std::allocator<NewShopPullDownItem> > >
; Function compile flags: /Ogsp
;	COMDAT ??0?$_Vector_iterator@V?$_Vector_val@UNewShopPullDownItem@@V?$allocator@UNewShopPullDownItem@@@std@@@std@@@std@@QAE@PAUNewShopPullDownItem@@PBU_Container_base0@1@@Z
_TEXT	SEGMENT
__Parg$ = 8						; size = 4
__Pvector$ = 12						; size = 4
??0?$_Vector_iterator@V?$_Vector_val@UNewShopPullDownItem@@V?$allocator@UNewShopPullDownItem@@@std@@@std@@@std@@QAE@PAUNewShopPullDownItem@@PBU_Container_base0@1@@Z PROC ; std::_Vector_iterator<std::_Vector_val<NewShopPullDownItem,std::allocator<NewShopPullDownItem> > >::_Vector_iterator<std::_Vector_val<NewShopPullDownItem,std::allocator<NewShopPullDownItem> > >, COMDAT
; _this$ = ecx

; 304  : 		{	// construct with pointer _Parg

  00000	55		 push	 ebp
  00001	8b ec		 mov	 ebp, esp
  00003	8b c1		 mov	 eax, ecx
  00005	8b 4d 08	 mov	 ecx, DWORD PTR __Parg$[ebp]
  00008	89 08		 mov	 DWORD PTR [eax], ecx

; 305  : 		}

  0000a	5d		 pop	 ebp
  0000b	c2 08 00	 ret	 8
??0?$_Vector_iterator@V?$_Vector_val@UNewShopPullDownItem@@V?$allocator@UNewShopPullDownItem@@@std@@@std@@@std@@QAE@PAUNewShopPullDownItem@@PBU_Container_base0@1@@Z ENDP ; std::_Vector_iterator<std::_Vector_val<NewShopPullDownItem,std::allocator<NewShopPullDownItem> > >::_Vector_iterator<std::_Vector_val<NewShopPullDownItem,std::allocator<NewShopPullDownItem> > >
_TEXT	ENDS
PUBLIC	?allocate@?$allocator@UtagAlchemicItemInfo@@@std@@QAEPAUtagAlchemicItemInfo@@I@Z ; std::allocator<tagAlchemicItemInfo>::allocate
; Function compile flags: /Ogsp
; File c:\program files (x86)\microsoft visual studio 10.0\vc\include\xmemory
;	COMDAT ?allocate@?$allocator@UtagAlchemicItemInfo@@@std@@QAEPAUtagAlchemicItemInfo@@I@Z
_TEXT	SEGMENT
__Count$ = 8						; size = 4
?allocate@?$allocator@UtagAlchemicItemInfo@@@std@@QAEPAUtagAlchemicItemInfo@@I@Z PROC ; std::allocator<tagAlchemicItemInfo>::allocate, COMDAT
; _this$ = ecx

; 186  : 		{	// allocate array of _Count elements

  00000	55		 push	 ebp
  00001	8b ec		 mov	 ebp, esp

; 187  : 		return (_Allocate(_Count, (pointer)0));

  00003	6a 00		 push	 0
  00005	ff 75 08	 push	 DWORD PTR __Count$[ebp]
  00008	e8 00 00 00 00	 call	 ??$_Allocate@UtagAlchemicItemInfo@@@std@@YAPAUtagAlchemicItemInfo@@IPAU1@@Z ; std::_Allocate<tagAlchemicItemInfo>
  0000d	59		 pop	 ecx
  0000e	59		 pop	 ecx

; 188  : 		}

  0000f	5d		 pop	 ebp
  00010	c2 04 00	 ret	 4
?allocate@?$allocator@UtagAlchemicItemInfo@@@std@@QAEPAUtagAlchemicItemInfo@@I@Z ENDP ; std::allocator<tagAlchemicItemInfo>::allocate
_TEXT	ENDS
PUBLIC	??8?$_Vector_const_iterator@V?$_Vector_val@UNewShopPullDownItem@@V?$allocator@UNewShopPullDownItem@@@std@@@std@@@std@@QBE_NABV01@@Z ; std::_Vector_const_iterator<std::_Vector_val<NewShopPullDownItem,std::allocator<NewShopPullDownItem> > >::operator==
; Function compile flags: /Ogsp
; File c:\program files (x86)\microsoft visual studio 10.0\vc\include\vector
;	COMDAT ??8?$_Vector_const_iterator@V?$_Vector_val@UNewShopPullDownItem@@V?$allocator@UNewShopPullDownItem@@@std@@@std@@@std@@QBE_NABV01@@Z
_TEXT	SEGMENT
__Right$ = 8						; size = 4
??8?$_Vector_const_iterator@V?$_Vector_val@UNewShopPullDownItem@@V?$allocator@UNewShopPullDownItem@@@std@@@std@@@std@@QBE_NABV01@@Z PROC ; std::_Vector_const_iterator<std::_Vector_val<NewShopPullDownItem,std::allocator<NewShopPullDownItem> > >::operator==, COMDAT
; _this$ = ecx

; 201  : 		{	// test for iterator equality

  00000	55		 push	 ebp
  00001	8b ec		 mov	 ebp, esp

; 202  : 		_Compat(_Right);
; 203  : 		return (this->_Ptr == _Right._Ptr);

  00003	8b 01		 mov	 eax, DWORD PTR [ecx]
  00005	8b 4d 08	 mov	 ecx, DWORD PTR __Right$[ebp]
  00008	2b 01		 sub	 eax, DWORD PTR [ecx]
  0000a	f7 d8		 neg	 eax
  0000c	1b c0		 sbb	 eax, eax
  0000e	40		 inc	 eax

; 204  : 		}

  0000f	5d		 pop	 ebp
  00010	c2 04 00	 ret	 4
??8?$_Vector_const_iterator@V?$_Vector_val@UNewShopPullDownItem@@V?$allocator@UNewShopPullDownItem@@@std@@@std@@@std@@QBE_NABV01@@Z ENDP ; std::_Vector_const_iterator<std::_Vector_val<NewShopPullDownItem,std::allocator<NewShopPullDownItem> > >::operator==
_TEXT	ENDS
PUBLIC	__$ArrayPad$
PUBLIC	??$?8$0L@@@YA_NABVioHashString@@AAY0L@$$CBD@Z	; operator==<11>
EXTRN	__imp_?c_str@ioHashString@@QBEPBDXZ:PROC
EXTRN	___security_cookie:DWORD
; Function compile flags: /Ogsp
; File d:\lost saga for developer\youtube\tutorial\source\src\io3dengine\iohashstring.h
;	COMDAT ??$?8$0L@@@YA_NABVioHashString@@AAY0L@$$CBD@Z
_TEXT	SEGMENT
__t$ = -20						; size = 11
__$ArrayPad$ = -4					; size = 4
_lhs$ = 8						; size = 4
_t$ = 12						; size = 4
??$?8$0L@@@YA_NABVioHashString@@AAY0L@$$CBD@Z PROC	; operator==<11>, COMDAT

; 146  : {

  00000	55		 push	 ebp
  00001	8b ec		 mov	 ebp, esp
  00003	83 ec 14	 sub	 esp, 20			; 00000014H
  00006	a1 00 00 00 00	 mov	 eax, DWORD PTR ___security_cookie
  0000b	33 c5		 xor	 eax, ebp
  0000d	89 45 fc	 mov	 DWORD PTR __$ArrayPad$[ebp], eax
  00010	8b 45 0c	 mov	 eax, DWORD PTR _t$[ebp]

; 147  : 	_ENCSTR(t, _t); return ( strcmp( lhs.c_str(), _t ) == 0 );

  00013	8a 10		 mov	 dl, BYTE PTR [eax]
  00015	56		 push	 esi
  00016	57		 push	 edi
  00017	8b 7d 08	 mov	 edi, DWORD PTR _lhs$[ebp]
  0001a	84 d2		 test	 dl, dl
  0001c	0f 84 24 01 00
	00		 je	 $LN96@operator@2
  00022	80 f2 ed	 xor	 dl, -19			; ffffffedH
  00025	88 55 ec	 mov	 BYTE PTR __t$[ebp], dl
  00028	8a 50 01	 mov	 dl, BYTE PTR [eax+1]
  0002b	84 d2		 test	 dl, dl
  0002d	0f 84 0d 01 00
	00		 je	 $LN95@operator@2
  00033	80 f2 ec	 xor	 dl, -20			; ffffffecH
  00036	88 55 ed	 mov	 BYTE PTR __t$[ebp+1], dl
  00039	8a 50 02	 mov	 dl, BYTE PTR [eax+2]
  0003c	84 d2		 test	 dl, dl
  0003e	0f 84 f6 00 00
	00		 je	 $LN94@operator@2
  00044	80 f2 eb	 xor	 dl, -21			; ffffffebH
  00047	88 55 ee	 mov	 BYTE PTR __t$[ebp+2], dl
  0004a	8a 50 03	 mov	 dl, BYTE PTR [eax+3]
  0004d	84 d2		 test	 dl, dl
  0004f	0f 84 df 00 00
	00		 je	 $LN93@operator@2
  00055	80 f2 ea	 xor	 dl, -22			; ffffffeaH
  00058	88 55 ef	 mov	 BYTE PTR __t$[ebp+3], dl
  0005b	8a 50 04	 mov	 dl, BYTE PTR [eax+4]
  0005e	84 d2		 test	 dl, dl
  00060	0f 84 c8 00 00
	00		 je	 $LN92@operator@2
  00066	80 f2 ed	 xor	 dl, -19			; ffffffedH
  00069	88 55 f0	 mov	 BYTE PTR __t$[ebp+4], dl
  0006c	8a 50 05	 mov	 dl, BYTE PTR [eax+5]
  0006f	84 d2		 test	 dl, dl
  00071	0f 84 b1 00 00
	00		 je	 $LN91@operator@2
  00077	80 f2 ec	 xor	 dl, -20			; ffffffecH
  0007a	88 55 f1	 mov	 BYTE PTR __t$[ebp+5], dl
  0007d	8a 50 06	 mov	 dl, BYTE PTR [eax+6]
  00080	84 d2		 test	 dl, dl
  00082	0f 84 9a 00 00
	00		 je	 $LN90@operator@2
  00088	80 f2 eb	 xor	 dl, -21			; ffffffebH
  0008b	88 55 f2	 mov	 BYTE PTR __t$[ebp+6], dl
  0008e	8a 50 07	 mov	 dl, BYTE PTR [eax+7]
  00091	84 d2		 test	 dl, dl
  00093	0f 84 83 00 00
	00		 je	 $LN89@operator@2
  00099	80 f2 ea	 xor	 dl, -22			; ffffffeaH
  0009c	88 55 f3	 mov	 BYTE PTR __t$[ebp+7], dl
  0009f	8a 50 08	 mov	 dl, BYTE PTR [eax+8]
  000a2	84 d2		 test	 dl, dl
  000a4	74 70		 je	 SHORT $LN88@operator@2
  000a6	80 f2 ed	 xor	 dl, -19			; ffffffedH
  000a9	88 55 f4	 mov	 BYTE PTR __t$[ebp+8], dl
  000ac	8a 50 09	 mov	 dl, BYTE PTR [eax+9]
  000af	84 d2		 test	 dl, dl
  000b1	74 5d		 je	 SHORT $LN87@operator@2
  000b3	80 f2 ec	 xor	 dl, -20			; ffffffecH
  000b6	80 78 0a 00	 cmp	 BYTE PTR [eax+10], 0
  000ba	88 55 f5	 mov	 BYTE PTR __t$[ebp+9], dl
  000bd	0f 84 87 00 00
	00		 je	 $LN1@operator@2
  000c3	8a 50 0b	 mov	 dl, BYTE PTR [eax+11]
  000c6	84 d2		 test	 dl, dl
  000c8	74 40		 je	 SHORT $LN85@operator@2
  000ca	80 f2 ea	 xor	 dl, -22			; ffffffeaH
  000cd	88 55 f7	 mov	 BYTE PTR __t$[ebp+11], dl
  000d0	8a 50 0c	 mov	 dl, BYTE PTR [eax+12]
  000d3	84 d2		 test	 dl, dl
  000d5	74 2d		 je	 SHORT $LN84@operator@2
  000d7	80 f2 ed	 xor	 dl, -19			; ffffffedH
  000da	88 55 f8	 mov	 BYTE PTR __t$[ebp+12], dl
  000dd	8a 50 0d	 mov	 dl, BYTE PTR [eax+13]
  000e0	84 d2		 test	 dl, dl
  000e2	74 1a		 je	 SHORT $LN83@operator@2
  000e4	8a 40 0e	 mov	 al, BYTE PTR [eax+14]
  000e7	80 f2 ec	 xor	 dl, -20			; ffffffecH
  000ea	88 55 f9	 mov	 BYTE PTR __t$[ebp+13], dl
  000ed	84 c0		 test	 al, al
  000ef	74 07		 je	 SHORT $LN82@operator@2
  000f1	34 eb		 xor	 al, -21			; ffffffebH
  000f3	88 45 fa	 mov	 BYTE PTR __t$[ebp+14], al
  000f6	eb 52		 jmp	 SHORT $LN1@operator@2
$LN82@operator@2:
  000f8	c6 45 fa eb	 mov	 BYTE PTR __t$[ebp+14], -21 ; ffffffebH
  000fc	eb 4c		 jmp	 SHORT $LN1@operator@2
$LN83@operator@2:
  000fe	c6 45 f9 ec	 mov	 BYTE PTR __t$[ebp+13], -20 ; ffffffecH
  00102	eb 46		 jmp	 SHORT $LN1@operator@2
$LN84@operator@2:
  00104	c6 45 f8 ed	 mov	 BYTE PTR __t$[ebp+12], -19 ; ffffffedH
  00108	eb 40		 jmp	 SHORT $LN1@operator@2
$LN85@operator@2:
  0010a	c6 45 f7 ea	 mov	 BYTE PTR __t$[ebp+11], -22 ; ffffffeaH
  0010e	eb 3a		 jmp	 SHORT $LN1@operator@2
$LN87@operator@2:
  00110	c6 45 f5 ec	 mov	 BYTE PTR __t$[ebp+9], -20 ; ffffffecH
  00114	eb 34		 jmp	 SHORT $LN1@operator@2
$LN88@operator@2:
  00116	c6 45 f4 ed	 mov	 BYTE PTR __t$[ebp+8], -19 ; ffffffedH
  0011a	eb 2e		 jmp	 SHORT $LN1@operator@2
$LN89@operator@2:
  0011c	c6 45 f3 ea	 mov	 BYTE PTR __t$[ebp+7], -22 ; ffffffeaH
  00120	eb 28		 jmp	 SHORT $LN1@operator@2
$LN90@operator@2:
  00122	c6 45 f2 eb	 mov	 BYTE PTR __t$[ebp+6], -21 ; ffffffebH
  00126	eb 22		 jmp	 SHORT $LN1@operator@2
$LN91@operator@2:
  00128	c6 45 f1 ec	 mov	 BYTE PTR __t$[ebp+5], -20 ; ffffffecH
  0012c	eb 1c		 jmp	 SHORT $LN1@operator@2
$LN92@operator@2:
  0012e	c6 45 f0 ed	 mov	 BYTE PTR __t$[ebp+4], -19 ; ffffffedH
  00132	eb 16		 jmp	 SHORT $LN1@operator@2
$LN93@operator@2:
  00134	c6 45 ef ea	 mov	 BYTE PTR __t$[ebp+3], -22 ; ffffffeaH
  00138	eb 10		 jmp	 SHORT $LN1@operator@2
$LN94@operator@2:
  0013a	c6 45 ee eb	 mov	 BYTE PTR __t$[ebp+2], -21 ; ffffffebH
  0013e	eb 0a		 jmp	 SHORT $LN1@operator@2
$LN95@operator@2:
  00140	c6 45 ed ec	 mov	 BYTE PTR __t$[ebp+1], -20 ; ffffffecH
  00144	eb 04		 jmp	 SHORT $LN1@operator@2
$LN96@operator@2:
  00146	c6 45 ec ed	 mov	 BYTE PTR __t$[ebp], -19	; ffffffedH
$LN1@operator@2:
  0014a	6a 02		 push	 2
  0014c	8d 45 ec	 lea	 eax, DWORD PTR __t$[ebp]
  0014f	c6 45 f6 00	 mov	 BYTE PTR __t$[ebp+10], 0
  00153	5a		 pop	 edx
$LL104@operator@2:
  00154	81 30 ed ec eb
	ea		 xor	 DWORD PTR [eax], -353637139 ; eaebecedH
  0015a	83 c0 04	 add	 eax, 4
  0015d	4a		 dec	 edx
  0015e	75 f4		 jne	 SHORT $LL104@operator@2
  00160	6a 08		 push	 8
  00162	58		 pop	 eax
$LL101@operator@2:
  00163	8b c8		 mov	 ecx, eax
  00165	81 e1 03 00 00
	80		 and	 ecx, -2147483645	; 80000003H
  0016b	79 05		 jns	 SHORT $LN115@operator@2
  0016d	49		 dec	 ecx
  0016e	83 c9 fc	 or	 ecx, -4			; fffffffcH
  00171	41		 inc	 ecx
$LN115@operator@2:
  00172	b2 ed		 mov	 dl, -19			; ffffffedH
  00174	2a d1		 sub	 dl, cl
  00176	30 54 05 ec	 xor	 BYTE PTR __t$[ebp+eax], dl
  0017a	40		 inc	 eax
  0017b	83 f8 0a	 cmp	 eax, 10			; 0000000aH
  0017e	7c e3		 jl	 SHORT $LL101@operator@2
  00180	8b cf		 mov	 ecx, edi
  00182	8d 75 ec	 lea	 esi, DWORD PTR __t$[ebp]
  00185	ff 15 00 00 00
	00		 call	 DWORD PTR __imp_?c_str@ioHashString@@QBEPBDXZ
$LL111@operator@2:
  0018b	8a 08		 mov	 cl, BYTE PTR [eax]
  0018d	3a 0e		 cmp	 cl, BYTE PTR [esi]
  0018f	75 1a		 jne	 SHORT $LN112@operator@2
  00191	84 c9		 test	 cl, cl
  00193	74 12		 je	 SHORT $LN113@operator@2
  00195	8a 48 01	 mov	 cl, BYTE PTR [eax+1]
  00198	3a 4e 01	 cmp	 cl, BYTE PTR [esi+1]
  0019b	75 0e		 jne	 SHORT $LN112@operator@2
  0019d	83 c0 02	 add	 eax, 2
  001a0	83 c6 02	 add	 esi, 2
  001a3	84 c9		 test	 cl, cl
  001a5	75 e4		 jne	 SHORT $LL111@operator@2
$LN113@operator@2:
  001a7	33 c0		 xor	 eax, eax
  001a9	eb 05		 jmp	 SHORT $LN114@operator@2
$LN112@operator@2:
  001ab	1b c0		 sbb	 eax, eax
  001ad	83 d8 ff	 sbb	 eax, -1
$LN114@operator@2:
  001b0	33 c9		 xor	 ecx, ecx
  001b2	85 c0		 test	 eax, eax
  001b4	0f 94 c0	 sete	 al

; 148  : }

  001b7	8b 4d fc	 mov	 ecx, DWORD PTR __$ArrayPad$[ebp]
  001ba	5f		 pop	 edi
  001bb	33 cd		 xor	 ecx, ebp
  001bd	5e		 pop	 esi
  001be	e8 00 00 00 00	 call	 @__security_check_cookie@4
  001c3	c9		 leave
  001c4	c3		 ret	 0
??$?8$0L@@@YA_NABVioHashString@@AAY0L@$$CBD@Z ENDP	; operator==<11>
_TEXT	ENDS
PUBLIC	__$ArrayPad$
PUBLIC	??$GetIntAttribute_e@$0N@@ioXMLElement@@QBEHAAY0N@$$CBD@Z ; ioXMLElement::GetIntAttribute_e<13>
EXTRN	__imp_?GetIntAttribute@ioXMLElement@@QBEHPBD@Z:PROC
; Function compile flags: /Ogsp
; File d:\lost saga for developer\youtube\tutorial\source\src\io3dengine\ioxmlelement.h
;	COMDAT ??$GetIntAttribute_e@$0N@@ioXMLElement@@QBEHAAY0N@$$CBD@Z
_TEXT	SEGMENT
__k$ = -24						; size = 13
__$ArrayPad$ = -4					; size = 4
_k$ = 8							; size = 4
??$GetIntAttribute_e@$0N@@ioXMLElement@@QBEHAAY0N@$$CBD@Z PROC ; ioXMLElement::GetIntAttribute_e<13>, COMDAT
; _this$ = ecx

; 86   : 	{

  00000	55		 push	 ebp
  00001	8b ec		 mov	 ebp, esp
  00003	83 ec 18	 sub	 esp, 24			; 00000018H
  00006	a1 00 00 00 00	 mov	 eax, DWORD PTR ___security_cookie
  0000b	33 c5		 xor	 eax, ebp
  0000d	89 45 fc	 mov	 DWORD PTR __$ArrayPad$[ebp], eax
  00010	8b 45 08	 mov	 eax, DWORD PTR _k$[ebp]

; 87   : 		_ENCSTR(k, _k);

  00013	8a 10		 mov	 dl, BYTE PTR [eax]
  00015	56		 push	 esi
  00016	8b f1		 mov	 esi, ecx
  00018	84 d2		 test	 dl, dl
  0001a	0f 84 4d 01 00
	00		 je	 $LN96@GetIntAttr
  00020	80 f2 ed	 xor	 dl, -19			; ffffffedH
  00023	88 55 e8	 mov	 BYTE PTR __k$[ebp], dl
  00026	8a 50 01	 mov	 dl, BYTE PTR [eax+1]
  00029	84 d2		 test	 dl, dl
  0002b	0f 84 36 01 00
	00		 je	 $LN95@GetIntAttr
  00031	b1 ec		 mov	 cl, -20			; ffffffecH
  00033	32 d1		 xor	 dl, cl
  00035	88 55 e9	 mov	 BYTE PTR __k$[ebp+1], dl
  00038	8a 50 02	 mov	 dl, BYTE PTR [eax+2]
  0003b	84 d2		 test	 dl, dl
  0003d	0f 84 1e 01 00
	00		 je	 $LN94@GetIntAttr
  00043	80 f2 eb	 xor	 dl, -21			; ffffffebH
  00046	88 55 ea	 mov	 BYTE PTR __k$[ebp+2], dl
  00049	8a 50 03	 mov	 dl, BYTE PTR [eax+3]
  0004c	84 d2		 test	 dl, dl
  0004e	0f 84 07 01 00
	00		 je	 $LN93@GetIntAttr
  00054	80 f2 ea	 xor	 dl, -22			; ffffffeaH
  00057	88 55 eb	 mov	 BYTE PTR __k$[ebp+3], dl
  0005a	8a 50 04	 mov	 dl, BYTE PTR [eax+4]
  0005d	84 d2		 test	 dl, dl
  0005f	0f 84 f0 00 00
	00		 je	 $LN92@GetIntAttr
  00065	80 f2 ed	 xor	 dl, -19			; ffffffedH
  00068	88 55 ec	 mov	 BYTE PTR __k$[ebp+4], dl
  0006b	8a 50 05	 mov	 dl, BYTE PTR [eax+5]
  0006e	84 d2		 test	 dl, dl
  00070	0f 84 da 00 00
	00		 je	 $LN91@GetIntAttr
  00076	32 d1		 xor	 dl, cl
  00078	88 55 ed	 mov	 BYTE PTR __k$[ebp+5], dl
  0007b	8a 50 06	 mov	 dl, BYTE PTR [eax+6]
  0007e	84 d2		 test	 dl, dl
  00080	0f 84 c4 00 00
	00		 je	 $LN90@GetIntAttr
  00086	80 f2 eb	 xor	 dl, -21			; ffffffebH
  00089	88 55 ee	 mov	 BYTE PTR __k$[ebp+6], dl
  0008c	8a 50 07	 mov	 dl, BYTE PTR [eax+7]
  0008f	84 d2		 test	 dl, dl
  00091	0f 84 ad 00 00
	00		 je	 $LN89@GetIntAttr
  00097	80 f2 ea	 xor	 dl, -22			; ffffffeaH
  0009a	88 55 ef	 mov	 BYTE PTR __k$[ebp+7], dl
  0009d	8a 50 08	 mov	 dl, BYTE PTR [eax+8]
  000a0	84 d2		 test	 dl, dl
  000a2	0f 84 96 00 00
	00		 je	 $LN88@GetIntAttr
  000a8	80 f2 ed	 xor	 dl, -19			; ffffffedH
  000ab	88 55 f0	 mov	 BYTE PTR __k$[ebp+8], dl
  000ae	8a 50 09	 mov	 dl, BYTE PTR [eax+9]
  000b1	84 d2		 test	 dl, dl
  000b3	0f 84 80 00 00
	00		 je	 $LN87@GetIntAttr
  000b9	32 d1		 xor	 dl, cl
  000bb	88 55 f1	 mov	 BYTE PTR __k$[ebp+9], dl
  000be	8a 50 0a	 mov	 dl, BYTE PTR [eax+10]
  000c1	84 d2		 test	 dl, dl
  000c3	74 6e		 je	 SHORT $LN86@GetIntAttr
  000c5	80 f2 eb	 xor	 dl, -21			; ffffffebH
  000c8	88 55 f2	 mov	 BYTE PTR __k$[ebp+10], dl
  000cb	8a 50 0b	 mov	 dl, BYTE PTR [eax+11]
  000ce	84 d2		 test	 dl, dl
  000d0	74 5b		 je	 SHORT $LN85@GetIntAttr
  000d2	80 f2 ea	 xor	 dl, -22			; ffffffeaH
  000d5	80 78 0c 00	 cmp	 BYTE PTR [eax+12], 0
  000d9	88 55 f3	 mov	 BYTE PTR __k$[ebp+11], dl
  000dc	0f 84 8f 00 00
	00		 je	 $LN1@GetIntAttr
  000e2	8a 50 0d	 mov	 dl, BYTE PTR [eax+13]
  000e5	84 d2		 test	 dl, dl
  000e7	74 3f		 je	 SHORT $LN83@GetIntAttr
  000e9	32 d1		 xor	 dl, cl
  000eb	88 55 f5	 mov	 BYTE PTR __k$[ebp+13], dl
  000ee	8a 50 0e	 mov	 dl, BYTE PTR [eax+14]
  000f1	84 d2		 test	 dl, dl
  000f3	74 2d		 je	 SHORT $LN82@GetIntAttr
  000f5	80 f2 eb	 xor	 dl, -21			; ffffffebH
  000f8	88 55 f6	 mov	 BYTE PTR __k$[ebp+14], dl
  000fb	8a 50 0f	 mov	 dl, BYTE PTR [eax+15]
  000fe	84 d2		 test	 dl, dl
  00100	74 1a		 je	 SHORT $LN81@GetIntAttr
  00102	8a 40 10	 mov	 al, BYTE PTR [eax+16]
  00105	80 f2 ea	 xor	 dl, -22			; ffffffeaH
  00108	88 55 f7	 mov	 BYTE PTR __k$[ebp+15], dl
  0010b	84 c0		 test	 al, al
  0010d	74 07		 je	 SHORT $LN80@GetIntAttr
  0010f	34 ed		 xor	 al, -19			; ffffffedH
  00111	88 45 f8	 mov	 BYTE PTR __k$[ebp+16], al
  00114	eb 5b		 jmp	 SHORT $LN1@GetIntAttr
$LN80@GetIntAttr:
  00116	c6 45 f8 ed	 mov	 BYTE PTR __k$[ebp+16], -19 ; ffffffedH
  0011a	eb 55		 jmp	 SHORT $LN1@GetIntAttr
$LN81@GetIntAttr:
  0011c	c6 45 f7 ea	 mov	 BYTE PTR __k$[ebp+15], -22 ; ffffffeaH
  00120	eb 4f		 jmp	 SHORT $LN1@GetIntAttr
$LN82@GetIntAttr:
  00122	c6 45 f6 eb	 mov	 BYTE PTR __k$[ebp+14], -21 ; ffffffebH
  00126	eb 49		 jmp	 SHORT $LN1@GetIntAttr
$LN83@GetIntAttr:
  00128	88 4d f5	 mov	 BYTE PTR __k$[ebp+13], cl
  0012b	eb 44		 jmp	 SHORT $LN1@GetIntAttr
$LN85@GetIntAttr:
  0012d	c6 45 f3 ea	 mov	 BYTE PTR __k$[ebp+11], -22 ; ffffffeaH
  00131	eb 3e		 jmp	 SHORT $LN1@GetIntAttr
$LN86@GetIntAttr:
  00133	c6 45 f2 eb	 mov	 BYTE PTR __k$[ebp+10], -21 ; ffffffebH
  00137	eb 38		 jmp	 SHORT $LN1@GetIntAttr
$LN87@GetIntAttr:
  00139	88 4d f1	 mov	 BYTE PTR __k$[ebp+9], cl
  0013c	eb 33		 jmp	 SHORT $LN1@GetIntAttr
$LN88@GetIntAttr:
  0013e	c6 45 f0 ed	 mov	 BYTE PTR __k$[ebp+8], -19 ; ffffffedH
  00142	eb 2d		 jmp	 SHORT $LN1@GetIntAttr
$LN89@GetIntAttr:
  00144	c6 45 ef ea	 mov	 BYTE PTR __k$[ebp+7], -22 ; ffffffeaH
  00148	eb 27		 jmp	 SHORT $LN1@GetIntAttr
$LN90@GetIntAttr:
  0014a	c6 45 ee eb	 mov	 BYTE PTR __k$[ebp+6], -21 ; ffffffebH
  0014e	eb 21		 jmp	 SHORT $LN1@GetIntAttr
$LN91@GetIntAttr:
  00150	88 4d ed	 mov	 BYTE PTR __k$[ebp+5], cl
  00153	eb 1c		 jmp	 SHORT $LN1@GetIntAttr
$LN92@GetIntAttr:
  00155	c6 45 ec ed	 mov	 BYTE PTR __k$[ebp+4], -19 ; ffffffedH
  00159	eb 16		 jmp	 SHORT $LN1@GetIntAttr
$LN93@GetIntAttr:
  0015b	c6 45 eb ea	 mov	 BYTE PTR __k$[ebp+3], -22 ; ffffffeaH
  0015f	eb 10		 jmp	 SHORT $LN1@GetIntAttr
$LN94@GetIntAttr:
  00161	c6 45 ea eb	 mov	 BYTE PTR __k$[ebp+2], -21 ; ffffffebH
  00165	eb 0a		 jmp	 SHORT $LN1@GetIntAttr
$LN95@GetIntAttr:
  00167	c6 45 e9 ec	 mov	 BYTE PTR __k$[ebp+1], -20 ; ffffffecH
  0016b	eb 04		 jmp	 SHORT $LN1@GetIntAttr
$LN96@GetIntAttr:
  0016d	c6 45 e8 ed	 mov	 BYTE PTR __k$[ebp], -19	; ffffffedH
$LN1@GetIntAttr:
  00171	6a 03		 push	 3
  00173	8d 45 e8	 lea	 eax, DWORD PTR __k$[ebp]
  00176	c6 45 f4 00	 mov	 BYTE PTR __k$[ebp+12], 0
  0017a	5a		 pop	 edx
$LL104@GetIntAttr:
  0017b	81 30 ed ec eb
	ea		 xor	 DWORD PTR [eax], -353637139 ; eaebecedH
  00181	83 c0 04	 add	 eax, 4
  00184	4a		 dec	 edx
  00185	75 f4		 jne	 SHORT $LL104@GetIntAttr

; 88   : 		return GetIntAttribute(_k);

  00187	8d 45 e8	 lea	 eax, DWORD PTR __k$[ebp]
  0018a	50		 push	 eax
  0018b	8b ce		 mov	 ecx, esi
  0018d	ff 15 00 00 00
	00		 call	 DWORD PTR __imp_?GetIntAttribute@ioXMLElement@@QBEHPBD@Z

; 89   : 	}

  00193	8b 4d fc	 mov	 ecx, DWORD PTR __$ArrayPad$[ebp]
  00196	33 cd		 xor	 ecx, ebp
  00198	5e		 pop	 esi
  00199	e8 00 00 00 00	 call	 @__security_check_cookie@4
  0019e	c9		 leave
  0019f	c2 04 00	 ret	 4
??$GetIntAttribute_e@$0N@@ioXMLElement@@QBEHAAY0N@$$CBD@Z ENDP ; ioXMLElement::GetIntAttribute_e<13>
_TEXT	ENDS
PUBLIC	??G?$_Vector_iterator@V?$_Vector_val@UtagAlchemicItemInfo@@V?$allocator@UtagAlchemicItemInfo@@@std@@@std@@@std@@QBEHABV?$_Vector_const_iterator@V?$_Vector_val@UtagAlchemicItemInfo@@V?$allocator@UtagAlchemicItemInfo@@@std@@@std@@@1@@Z ; std::_Vector_iterator<std::_Vector_val<tagAlchemicItemInfo,std::allocator<tagAlchemicItemInfo> > >::operator-
; Function compile flags: /Ogsp
; File c:\program files (x86)\microsoft visual studio 10.0\vc\include\vector
;	COMDAT ??G?$_Vector_iterator@V?$_Vector_val@UtagAlchemicItemInfo@@V?$allocator@UtagAlchemicItemInfo@@@std@@@std@@@std@@QBEHABV?$_Vector_const_iterator@V?$_Vector_val@UtagAlchemicItemInfo@@V?$allocator@UtagAlchemicItemInfo@@@std@@@std@@@1@@Z
_TEXT	SEGMENT
__Right$ = 8						; size = 4
??G?$_Vector_iterator@V?$_Vector_val@UtagAlchemicItemInfo@@V?$allocator@UtagAlchemicItemInfo@@@std@@@std@@@std@@QBEHABV?$_Vector_const_iterator@V?$_Vector_val@UtagAlchemicItemInfo@@V?$allocator@UtagAlchemicItemInfo@@@std@@@std@@@1@@Z PROC ; std::_Vector_iterator<std::_Vector_val<tagAlchemicItemInfo,std::allocator<tagAlchemicItemInfo> > >::operator-, COMDAT
; _this$ = ecx

; 380  : 		{	// return difference of iterators

  00000	55		 push	 ebp
  00001	8b ec		 mov	 ebp, esp

; 381  : 		return (*(_Mybase *)this - _Right);

  00003	8b 01		 mov	 eax, DWORD PTR [ecx]
  00005	8b 4d 08	 mov	 ecx, DWORD PTR __Right$[ebp]
  00008	2b 01		 sub	 eax, DWORD PTR [ecx]
  0000a	6a 1c		 push	 28			; 0000001cH
  0000c	99		 cdq
  0000d	59		 pop	 ecx
  0000e	f7 f9		 idiv	 ecx

; 382  : 		}

  00010	5d		 pop	 ebp
  00011	c2 04 00	 ret	 4
??G?$_Vector_iterator@V?$_Vector_val@UtagAlchemicItemInfo@@V?$allocator@UtagAlchemicItemInfo@@@std@@@std@@@std@@QBEHABV?$_Vector_const_iterator@V?$_Vector_val@UtagAlchemicItemInfo@@V?$allocator@UtagAlchemicItemInfo@@@std@@@std@@@1@@Z ENDP ; std::_Vector_iterator<std::_Vector_val<tagAlchemicItemInfo,std::allocator<tagAlchemicItemInfo> > >::operator-
_TEXT	ENDS
PUBLIC	??$_Unchecked@V?$_Vector_val@UtagAlchemicItemInfo@@V?$allocator@UtagAlchemicItemInfo@@@std@@@std@@@std@@YAPAUtagAlchemicItemInfo@@V?$_Vector_iterator@V?$_Vector_val@UtagAlchemicItemInfo@@V?$allocator@UtagAlchemicItemInfo@@@std@@@std@@@0@@Z ; std::_Unchecked<std::_Vector_val<tagAlchemicItemInfo,std::allocator<tagAlchemicItemInfo> > >
; Function compile flags: /Ogsp
;	COMDAT ??$_Unchecked@V?$_Vector_val@UtagAlchemicItemInfo@@V?$allocator@UtagAlchemicItemInfo@@@std@@@std@@@std@@YAPAUtagAlchemicItemInfo@@V?$_Vector_iterator@V?$_Vector_val@UtagAlchemicItemInfo@@V?$allocator@UtagAlchemicItemInfo@@@std@@@std@@@0@@Z
_TEXT	SEGMENT
__Iter$ = 8						; size = 4
??$_Unchecked@V?$_Vector_val@UtagAlchemicItemInfo@@V?$allocator@UtagAlchemicItemInfo@@@std@@@std@@@std@@YAPAUtagAlchemicItemInfo@@V?$_Vector_iterator@V?$_Vector_val@UtagAlchemicItemInfo@@V?$allocator@UtagAlchemicItemInfo@@@std@@@std@@@0@@Z PROC ; std::_Unchecked<std::_Vector_val<tagAlchemicItemInfo,std::allocator<tagAlchemicItemInfo> > >, COMDAT

; 393  : 	{	// convert to unchecked

  00000	55		 push	 ebp
  00001	8b ec		 mov	 ebp, esp

; 394  : 	return (_Iter._Unchecked());

  00003	8b 45 08	 mov	 eax, DWORD PTR __Iter$[ebp]

; 395  : 	}

  00006	5d		 pop	 ebp
  00007	c3		 ret	 0
??$_Unchecked@V?$_Vector_val@UtagAlchemicItemInfo@@V?$allocator@UtagAlchemicItemInfo@@@std@@@std@@@std@@YAPAUtagAlchemicItemInfo@@V?$_Vector_iterator@V?$_Vector_val@UtagAlchemicItemInfo@@V?$allocator@UtagAlchemicItemInfo@@@std@@@std@@@0@@Z ENDP ; std::_Unchecked<std::_Vector_val<tagAlchemicItemInfo,std::allocator<tagAlchemicItemInfo> > >
_TEXT	ENDS
PUBLIC	??$construct@AAUNewShopPullDownItem@@@?$allocator@UNewShopPullDownItem@@@std@@QAEXPAUNewShopPullDownItem@@AAU2@@Z ; std::allocator<NewShopPullDownItem>::construct<NewShopPullDownItem &>
;	COMDAT xdata$x
; File c:\program files (x86)\microsoft visual studio 10.0\vc\include\utility
xdata$x	SEGMENT
__unwindtable$??$construct@AAUNewShopPullDownItem@@@?$allocator@UNewShopPullDownItem@@@std@@QAEXPAUNewShopPullDownItem@@AAU2@@Z DD 0ffffffffH
	DD	FLAT:__unwindfunclet$??$construct@AAUNewShopPullDownItem@@@?$allocator@UNewShopPullDownItem@@@std@@QAEXPAUNewShopPullDownItem@@AAU2@@Z$0
__ehfuncinfo$??$construct@AAUNewShopPullDownItem@@@?$allocator@UNewShopPullDownItem@@@std@@QAEXPAUNewShopPullDownItem@@AAU2@@Z DD 019930522H
	DD	01H
	DD	FLAT:__unwindtable$??$construct@AAUNewShopPullDownItem@@@?$allocator@UNewShopPullDownItem@@@std@@QAEXPAUNewShopPullDownItem@@AAU2@@Z
	DD	2 DUP(00H)
	DD	2 DUP(00H)
	DD	00H
	DD	01H
; Function compile flags: /Ogsp
; File c:\program files (x86)\microsoft visual studio 10.0\vc\include\xmemory
xdata$x	ENDS
;	COMDAT ??$construct@AAUNewShopPullDownItem@@@?$allocator@UNewShopPullDownItem@@@std@@QAEXPAUNewShopPullDownItem@@AAU2@@Z
_TEXT	SEGMENT
$T512770 = -16						; size = 4
__$EHRec$ = -12						; size = 12
__Ptr$ = 8						; size = 4
__Val$ = 12						; size = 4
??$construct@AAUNewShopPullDownItem@@@?$allocator@UNewShopPullDownItem@@@std@@QAEXPAUNewShopPullDownItem@@AAU2@@Z PROC ; std::allocator<NewShopPullDownItem>::construct<NewShopPullDownItem &>, COMDAT
; _this$ = ecx

; 206  : 		void construct(pointer _Ptr, _Other&& _Val)

  00000	6a 04		 push	 4
  00002	b8 00 00 00 00	 mov	 eax, __ehhandler$??$construct@AAUNewShopPullDownItem@@@?$allocator@UNewShopPullDownItem@@@std@@QAEXPAUNewShopPullDownItem@@AAU2@@Z
  00007	e8 00 00 00 00	 call	 __EH_prolog3

; 207  : 		{	// construct object at _Ptr with value _Val
; 208  : 		::new ((void _FARQ *)_Ptr) _Ty(_STD forward<_Other>(_Val));

  0000c	8b 4d 08	 mov	 ecx, DWORD PTR __Ptr$[ebp]
  0000f	89 4d f0	 mov	 DWORD PTR $T512770[ebp], ecx
  00012	83 65 fc 00	 and	 DWORD PTR __$EHRec$[ebp+8], 0
  00016	85 c9		 test	 ecx, ecx
  00018	74 08		 je	 SHORT $LN3@construct
  0001a	ff 75 0c	 push	 DWORD PTR __Val$[ebp]
  0001d	e8 00 00 00 00	 call	 ??0NewShopPullDownItem@@QAE@ABU0@@Z
$LN3@construct:

; 209  : 		}

  00022	e8 00 00 00 00	 call	 __EH_epilog3
  00027	c2 08 00	 ret	 8
_TEXT	ENDS
;	COMDAT text$x
text$x	SEGMENT
__unwindfunclet$??$construct@AAUNewShopPullDownItem@@@?$allocator@UNewShopPullDownItem@@@std@@QAEXPAUNewShopPullDownItem@@AAU2@@Z$0:
  00000	ff 75 08	 push	 DWORD PTR __Ptr$[ebp]
  00003	ff 75 f0	 push	 DWORD PTR $T512770[ebp]
  00006	e8 00 00 00 00	 call	 ??3@YAXPAX0@Z		; operator delete
  0000b	59		 pop	 ecx
  0000c	59		 pop	 ecx
  0000d	c3		 ret	 0
__ehhandler$??$construct@AAUNewShopPullDownItem@@@?$allocator@UNewShopPullDownItem@@@std@@QAEXPAUNewShopPullDownItem@@AAU2@@Z:
  0000e	8b 54 24 08	 mov	 edx, DWORD PTR [esp+8]
  00012	8d 42 0c	 lea	 eax, DWORD PTR [edx+12]
  00015	8b 4a ec	 mov	 ecx, DWORD PTR [edx-20]
  00018	33 c8		 xor	 ecx, eax
  0001a	e8 00 00 00 00	 call	 @__security_check_cookie@4
  0001f	b8 00 00 00 00	 mov	 eax, OFFSET __ehfuncinfo$??$construct@AAUNewShopPullDownItem@@@?$allocator@UNewShopPullDownItem@@@std@@QAEXPAUNewShopPullDownItem@@AAU2@@Z
  00024	e9 00 00 00 00	 jmp	 ___CxxFrameHandler3
text$x	ENDS
??$construct@AAUNewShopPullDownItem@@@?$allocator@UNewShopPullDownItem@@@std@@QAEXPAUNewShopPullDownItem@@AAU2@@Z ENDP ; std::allocator<NewShopPullDownItem>::construct<NewShopPullDownItem &>
PUBLIC	??$construct@AAUtagAlchemicItemInfo@@@?$allocator@UtagAlchemicItemInfo@@@std@@QAEXPAUtagAlchemicItemInfo@@AAU2@@Z ; std::allocator<tagAlchemicItemInfo>::construct<tagAlchemicItemInfo &>
;	COMDAT xdata$x
; File c:\program files (x86)\microsoft visual studio 10.0\vc\include\utility
xdata$x	SEGMENT
__unwindtable$??$construct@AAUtagAlchemicItemInfo@@@?$allocator@UtagAlchemicItemInfo@@@std@@QAEXPAUtagAlchemicItemInfo@@AAU2@@Z DD 0ffffffffH
	DD	FLAT:__unwindfunclet$??$construct@AAUtagAlchemicItemInfo@@@?$allocator@UtagAlchemicItemInfo@@@std@@QAEXPAUtagAlchemicItemInfo@@AAU2@@Z$0
__ehfuncinfo$??$construct@AAUtagAlchemicItemInfo@@@?$allocator@UtagAlchemicItemInfo@@@std@@QAEXPAUtagAlchemicItemInfo@@AAU2@@Z DD 019930522H
	DD	01H
	DD	FLAT:__unwindtable$??$construct@AAUtagAlchemicItemInfo@@@?$allocator@UtagAlchemicItemInfo@@@std@@QAEXPAUtagAlchemicItemInfo@@AAU2@@Z
	DD	2 DUP(00H)
	DD	2 DUP(00H)
	DD	00H
	DD	01H
; Function compile flags: /Ogsp
; File c:\program files (x86)\microsoft visual studio 10.0\vc\include\xmemory
xdata$x	ENDS
;	COMDAT ??$construct@AAUtagAlchemicItemInfo@@@?$allocator@UtagAlchemicItemInfo@@@std@@QAEXPAUtagAlchemicItemInfo@@AAU2@@Z
_TEXT	SEGMENT
$T512789 = -16						; size = 4
__$EHRec$ = -12						; size = 12
__Ptr$ = 8						; size = 4
__Val$ = 12						; size = 4
??$construct@AAUtagAlchemicItemInfo@@@?$allocator@UtagAlchemicItemInfo@@@std@@QAEXPAUtagAlchemicItemInfo@@AAU2@@Z PROC ; std::allocator<tagAlchemicItemInfo>::construct<tagAlchemicItemInfo &>, COMDAT
; _this$ = ecx

; 206  : 		void construct(pointer _Ptr, _Other&& _Val)

  00000	6a 04		 push	 4
  00002	b8 00 00 00 00	 mov	 eax, __ehhandler$??$construct@AAUtagAlchemicItemInfo@@@?$allocator@UtagAlchemicItemInfo@@@std@@QAEXPAUtagAlchemicItemInfo@@AAU2@@Z
  00007	e8 00 00 00 00	 call	 __EH_prolog3

; 207  : 		{	// construct object at _Ptr with value _Val
; 208  : 		::new ((void _FARQ *)_Ptr) _Ty(_STD forward<_Other>(_Val));

  0000c	8b 4d 08	 mov	 ecx, DWORD PTR __Ptr$[ebp]
  0000f	89 4d f0	 mov	 DWORD PTR $T512789[ebp], ecx
  00012	83 65 fc 00	 and	 DWORD PTR __$EHRec$[ebp+8], 0
  00016	85 c9		 test	 ecx, ecx
  00018	74 08		 je	 SHORT $LN3@construct@2
  0001a	ff 75 0c	 push	 DWORD PTR __Val$[ebp]
  0001d	e8 00 00 00 00	 call	 ??0tagAlchemicItemInfo@@QAE@ABU0@@Z
$LN3@construct@2:

; 209  : 		}

  00022	e8 00 00 00 00	 call	 __EH_epilog3
  00027	c2 08 00	 ret	 8
_TEXT	ENDS
;	COMDAT text$x
text$x	SEGMENT
__unwindfunclet$??$construct@AAUtagAlchemicItemInfo@@@?$allocator@UtagAlchemicItemInfo@@@std@@QAEXPAUtagAlchemicItemInfo@@AAU2@@Z$0:
  00000	ff 75 08	 push	 DWORD PTR __Ptr$[ebp]
  00003	ff 75 f0	 push	 DWORD PTR $T512789[ebp]
  00006	e8 00 00 00 00	 call	 ??3@YAXPAX0@Z		; operator delete
  0000b	59		 pop	 ecx
  0000c	59		 pop	 ecx
  0000d	c3		 ret	 0
__ehhandler$??$construct@AAUtagAlchemicItemInfo@@@?$allocator@UtagAlchemicItemInfo@@@std@@QAEXPAUtagAlchemicItemInfo@@AAU2@@Z:
  0000e	8b 54 24 08	 mov	 edx, DWORD PTR [esp+8]
  00012	8d 42 0c	 lea	 eax, DWORD PTR [edx+12]
  00015	8b 4a ec	 mov	 ecx, DWORD PTR [edx-20]
  00018	33 c8		 xor	 ecx, eax
  0001a	e8 00 00 00 00	 call	 @__security_check_cookie@4
  0001f	b8 00 00 00 00	 mov	 eax, OFFSET __ehfuncinfo$??$construct@AAUtagAlchemicItemInfo@@@?$allocator@UtagAlchemicItemInfo@@@std@@QAEXPAUtagAlchemicItemInfo@@AAU2@@Z
  00024	e9 00 00 00 00	 jmp	 ___CxxFrameHandler3
text$x	ENDS
??$construct@AAUtagAlchemicItemInfo@@@?$allocator@UtagAlchemicItemInfo@@@std@@QAEXPAUtagAlchemicItemInfo@@AAU2@@Z ENDP ; std::allocator<tagAlchemicItemInfo>::construct<tagAlchemicItemInfo &>
PUBLIC	??$_Move@PAUtagAlchemicItemInfo@@PAU1@@std@@YAPAUtagAlchemicItemInfo@@PAU1@00U_Nonscalar_ptr_iterator_tag@0@@Z ; std::_Move<tagAlchemicItemInfo *,tagAlchemicItemInfo *>
; Function compile flags: /Ogsp
; File c:\program files (x86)\microsoft visual studio 10.0\vc\include\xutility
;	COMDAT ??$_Move@PAUtagAlchemicItemInfo@@PAU1@@std@@YAPAUtagAlchemicItemInfo@@PAU1@00U_Nonscalar_ptr_iterator_tag@0@@Z
_TEXT	SEGMENT
__First$ = 8						; size = 4
__Last$ = 12						; size = 4
__Dest$ = 16						; size = 4
___formal$ = 20						; size = 1
??$_Move@PAUtagAlchemicItemInfo@@PAU1@@std@@YAPAUtagAlchemicItemInfo@@PAU1@00U_Nonscalar_ptr_iterator_tag@0@@Z PROC ; std::_Move<tagAlchemicItemInfo *,tagAlchemicItemInfo *>, COMDAT

; 2512 : 	{	// move [_First, _Last) to [_Dest, ...), arbitrary iterators

  00000	55		 push	 ebp
  00001	8b ec		 mov	 ebp, esp
  00003	56		 push	 esi

; 2513 : 	for (; _First != _Last; ++_Dest, ++_First)

  00004	8b 75 08	 mov	 esi, DWORD PTR __First$[ebp]
  00007	eb 10		 jmp	 SHORT $LN11@Move
$LL3@Move:

; 2514 : 		*_Dest = _STD move(*_First);

  00009	8b 4d 10	 mov	 ecx, DWORD PTR __Dest$[ebp]
  0000c	56		 push	 esi
  0000d	e8 00 00 00 00	 call	 ??4tagAlchemicItemInfo@@QAEAAU0@ABU0@@Z
  00012	83 45 10 1c	 add	 DWORD PTR __Dest$[ebp], 28 ; 0000001cH
  00016	83 c6 1c	 add	 esi, 28			; 0000001cH
$LN11@Move:

; 2513 : 	for (; _First != _Last; ++_Dest, ++_First)

  00019	3b 75 0c	 cmp	 esi, DWORD PTR __Last$[ebp]
  0001c	75 eb		 jne	 SHORT $LL3@Move

; 2515 : 	return (_Dest);

  0001e	8b 45 10	 mov	 eax, DWORD PTR __Dest$[ebp]
  00021	5e		 pop	 esi

; 2516 : 	}

  00022	5d		 pop	 ebp
  00023	c3		 ret	 0
??$_Move@PAUtagAlchemicItemInfo@@PAU1@@std@@YAPAUtagAlchemicItemInfo@@PAU1@00U_Nonscalar_ptr_iterator_tag@0@@Z ENDP ; std::_Move<tagAlchemicItemInfo *,tagAlchemicItemInfo *>
_TEXT	ENDS
PUBLIC	??$_Move@PAUNewShopPullDownItem@@PAU1@@std@@YAPAUNewShopPullDownItem@@PAU1@00U_Nonscalar_ptr_iterator_tag@0@@Z ; std::_Move<NewShopPullDownItem *,NewShopPullDownItem *>
; Function compile flags: /Ogsp
;	COMDAT ??$_Move@PAUNewShopPullDownItem@@PAU1@@std@@YAPAUNewShopPullDownItem@@PAU1@00U_Nonscalar_ptr_iterator_tag@0@@Z
_TEXT	SEGMENT
__First$ = 8						; size = 4
__Last$ = 12						; size = 4
__Dest$ = 16						; size = 4
___formal$ = 20						; size = 1
??$_Move@PAUNewShopPullDownItem@@PAU1@@std@@YAPAUNewShopPullDownItem@@PAU1@00U_Nonscalar_ptr_iterator_tag@0@@Z PROC ; std::_Move<NewShopPullDownItem *,NewShopPullDownItem *>, COMDAT

; 2512 : 	{	// move [_First, _Last) to [_Dest, ...), arbitrary iterators

  00000	55		 push	 ebp
  00001	8b ec		 mov	 ebp, esp
  00003	56		 push	 esi

; 2513 : 	for (; _First != _Last; ++_Dest, ++_First)

  00004	8b 75 08	 mov	 esi, DWORD PTR __First$[ebp]
  00007	eb 10		 jmp	 SHORT $LN11@Move@2
$LL3@Move@2:

; 2514 : 		*_Dest = _STD move(*_First);

  00009	8b 4d 10	 mov	 ecx, DWORD PTR __Dest$[ebp]
  0000c	56		 push	 esi
  0000d	e8 00 00 00 00	 call	 ??4NewShopPullDownItem@@QAEAAU0@ABU0@@Z
  00012	83 45 10 50	 add	 DWORD PTR __Dest$[ebp], 80 ; 00000050H
  00016	83 c6 50	 add	 esi, 80			; 00000050H
$LN11@Move@2:

; 2513 : 	for (; _First != _Last; ++_Dest, ++_First)

  00019	3b 75 0c	 cmp	 esi, DWORD PTR __Last$[ebp]
  0001c	75 eb		 jne	 SHORT $LL3@Move@2

; 2515 : 	return (_Dest);

  0001e	8b 45 10	 mov	 eax, DWORD PTR __Dest$[ebp]
  00021	5e		 pop	 esi

; 2516 : 	}

  00022	5d		 pop	 ebp
  00023	c3		 ret	 0
??$_Move@PAUNewShopPullDownItem@@PAU1@@std@@YAPAUNewShopPullDownItem@@PAU1@00U_Nonscalar_ptr_iterator_tag@0@@Z ENDP ; std::_Move<NewShopPullDownItem *,NewShopPullDownItem *>
_TEXT	ENDS
PUBLIC	??$_Construct@UNewShopPullDownItem@@ABU1@@std@@YAXPAUNewShopPullDownItem@@ABU1@@Z ; std::_Construct<NewShopPullDownItem,NewShopPullDownItem const &>
;	COMDAT xdata$x
; File c:\program files (x86)\microsoft visual studio 10.0\vc\include\utility
xdata$x	SEGMENT
__unwindtable$??$_Construct@UNewShopPullDownItem@@ABU1@@std@@YAXPAUNewShopPullDownItem@@ABU1@@Z DD 0ffffffffH
	DD	FLAT:__unwindfunclet$??$_Construct@UNewShopPullDownItem@@ABU1@@std@@YAXPAUNewShopPullDownItem@@ABU1@@Z$0
__ehfuncinfo$??$_Construct@UNewShopPullDownItem@@ABU1@@std@@YAXPAUNewShopPullDownItem@@ABU1@@Z DD 019930522H
	DD	01H
	DD	FLAT:__unwindtable$??$_Construct@UNewShopPullDownItem@@ABU1@@std@@YAXPAUNewShopPullDownItem@@ABU1@@Z
	DD	2 DUP(00H)
	DD	2 DUP(00H)
	DD	00H
	DD	01H
; Function compile flags: /Ogsp
; File c:\program files (x86)\microsoft visual studio 10.0\vc\include\xmemory
xdata$x	ENDS
;	COMDAT ??$_Construct@UNewShopPullDownItem@@ABU1@@std@@YAXPAUNewShopPullDownItem@@ABU1@@Z
_TEXT	SEGMENT
$T512826 = -16						; size = 4
__$EHRec$ = -12						; size = 12
__Vptr$ = 8						; size = 4
__Ptr$ = 8						; size = 4
__Val$ = 12						; size = 4
??$_Construct@UNewShopPullDownItem@@ABU1@@std@@YAXPAUNewShopPullDownItem@@ABU1@@Z PROC ; std::_Construct<NewShopPullDownItem,NewShopPullDownItem const &>, COMDAT

; 46   : 	{	// construct object at _Ptr with value _Val

  00000	6a 04		 push	 4
  00002	b8 00 00 00 00	 mov	 eax, __ehhandler$??$_Construct@UNewShopPullDownItem@@ABU1@@std@@YAXPAUNewShopPullDownItem@@ABU1@@Z
  00007	e8 00 00 00 00	 call	 __EH_prolog3

; 47   : 	void _FARQ *_Vptr = _Ptr;

  0000c	8b 4d 08	 mov	 ecx, DWORD PTR __Ptr$[ebp]
  0000f	89 4d 08	 mov	 DWORD PTR __Vptr$[ebp], ecx

; 48   : 	::new (_Vptr) _Ty1(_STD forward<_Ty2>(_Val));

  00012	89 4d f0	 mov	 DWORD PTR $T512826[ebp], ecx
  00015	83 65 fc 00	 and	 DWORD PTR __$EHRec$[ebp+8], 0
  00019	85 c9		 test	 ecx, ecx
  0001b	74 08		 je	 SHORT $LN3@Construct
  0001d	ff 75 0c	 push	 DWORD PTR __Val$[ebp]
  00020	e8 00 00 00 00	 call	 ??0NewShopPullDownItem@@QAE@ABU0@@Z
$LN3@Construct:

; 49   : 	}

  00025	e8 00 00 00 00	 call	 __EH_epilog3
  0002a	c3		 ret	 0
_TEXT	ENDS
;	COMDAT text$x
text$x	SEGMENT
__unwindfunclet$??$_Construct@UNewShopPullDownItem@@ABU1@@std@@YAXPAUNewShopPullDownItem@@ABU1@@Z$0:
  00000	ff 75 08	 push	 DWORD PTR __Vptr$[ebp]
  00003	ff 75 f0	 push	 DWORD PTR $T512826[ebp]
  00006	e8 00 00 00 00	 call	 ??3@YAXPAX0@Z		; operator delete
  0000b	59		 pop	 ecx
  0000c	59		 pop	 ecx
  0000d	c3		 ret	 0
__ehhandler$??$_Construct@UNewShopPullDownItem@@ABU1@@std@@YAXPAUNewShopPullDownItem@@ABU1@@Z:
  0000e	8b 54 24 08	 mov	 edx, DWORD PTR [esp+8]
  00012	8d 42 0c	 lea	 eax, DWORD PTR [edx+12]
  00015	8b 4a ec	 mov	 ecx, DWORD PTR [edx-20]
  00018	33 c8		 xor	 ecx, eax
  0001a	e8 00 00 00 00	 call	 @__security_check_cookie@4
  0001f	b8 00 00 00 00	 mov	 eax, OFFSET __ehfuncinfo$??$_Construct@UNewShopPullDownItem@@ABU1@@std@@YAXPAUNewShopPullDownItem@@ABU1@@Z
  00024	e9 00 00 00 00	 jmp	 ___CxxFrameHandler3
text$x	ENDS
??$_Construct@UNewShopPullDownItem@@ABU1@@std@@YAXPAUNewShopPullDownItem@@ABU1@@Z ENDP ; std::_Construct<NewShopPullDownItem,NewShopPullDownItem const &>
PUBLIC	??$_Construct@UtagAlchemicItemInfo@@ABU1@@std@@YAXPAUtagAlchemicItemInfo@@ABU1@@Z ; std::_Construct<tagAlchemicItemInfo,tagAlchemicItemInfo const &>
;	COMDAT xdata$x
; File c:\program files (x86)\microsoft visual studio 10.0\vc\include\utility
xdata$x	SEGMENT
__unwindtable$??$_Construct@UtagAlchemicItemInfo@@ABU1@@std@@YAXPAUtagAlchemicItemInfo@@ABU1@@Z DD 0ffffffffH
	DD	FLAT:__unwindfunclet$??$_Construct@UtagAlchemicItemInfo@@ABU1@@std@@YAXPAUtagAlchemicItemInfo@@ABU1@@Z$0
__ehfuncinfo$??$_Construct@UtagAlchemicItemInfo@@ABU1@@std@@YAXPAUtagAlchemicItemInfo@@ABU1@@Z DD 019930522H
	DD	01H
	DD	FLAT:__unwindtable$??$_Construct@UtagAlchemicItemInfo@@ABU1@@std@@YAXPAUtagAlchemicItemInfo@@ABU1@@Z
	DD	2 DUP(00H)
	DD	2 DUP(00H)
	DD	00H
	DD	01H
; Function compile flags: /Ogsp
; File c:\program files (x86)\microsoft visual studio 10.0\vc\include\xmemory
xdata$x	ENDS
;	COMDAT ??$_Construct@UtagAlchemicItemInfo@@ABU1@@std@@YAXPAUtagAlchemicItemInfo@@ABU1@@Z
_TEXT	SEGMENT
$T512845 = -16						; size = 4
__$EHRec$ = -12						; size = 12
__Vptr$ = 8						; size = 4
__Ptr$ = 8						; size = 4
__Val$ = 12						; size = 4
??$_Construct@UtagAlchemicItemInfo@@ABU1@@std@@YAXPAUtagAlchemicItemInfo@@ABU1@@Z PROC ; std::_Construct<tagAlchemicItemInfo,tagAlchemicItemInfo const &>, COMDAT

; 46   : 	{	// construct object at _Ptr with value _Val

  00000	6a 04		 push	 4
  00002	b8 00 00 00 00	 mov	 eax, __ehhandler$??$_Construct@UtagAlchemicItemInfo@@ABU1@@std@@YAXPAUtagAlchemicItemInfo@@ABU1@@Z
  00007	e8 00 00 00 00	 call	 __EH_prolog3

; 47   : 	void _FARQ *_Vptr = _Ptr;

  0000c	8b 4d 08	 mov	 ecx, DWORD PTR __Ptr$[ebp]
  0000f	89 4d 08	 mov	 DWORD PTR __Vptr$[ebp], ecx

; 48   : 	::new (_Vptr) _Ty1(_STD forward<_Ty2>(_Val));

  00012	89 4d f0	 mov	 DWORD PTR $T512845[ebp], ecx
  00015	83 65 fc 00	 and	 DWORD PTR __$EHRec$[ebp+8], 0
  00019	85 c9		 test	 ecx, ecx
  0001b	74 08		 je	 SHORT $LN3@Construct@2
  0001d	ff 75 0c	 push	 DWORD PTR __Val$[ebp]
  00020	e8 00 00 00 00	 call	 ??0tagAlchemicItemInfo@@QAE@ABU0@@Z
$LN3@Construct@2:

; 49   : 	}

  00025	e8 00 00 00 00	 call	 __EH_epilog3
  0002a	c3		 ret	 0
_TEXT	ENDS
;	COMDAT text$x
text$x	SEGMENT
__unwindfunclet$??$_Construct@UtagAlchemicItemInfo@@ABU1@@std@@YAXPAUtagAlchemicItemInfo@@ABU1@@Z$0:
  00000	ff 75 08	 push	 DWORD PTR __Vptr$[ebp]
  00003	ff 75 f0	 push	 DWORD PTR $T512845[ebp]
  00006	e8 00 00 00 00	 call	 ??3@YAXPAX0@Z		; operator delete
  0000b	59		 pop	 ecx
  0000c	59		 pop	 ecx
  0000d	c3		 ret	 0
__ehhandler$??$_Construct@UtagAlchemicItemInfo@@ABU1@@std@@YAXPAUtagAlchemicItemInfo@@ABU1@@Z:
  0000e	8b 54 24 08	 mov	 edx, DWORD PTR [esp+8]
  00012	8d 42 0c	 lea	 eax, DWORD PTR [edx+12]
  00015	8b 4a ec	 mov	 ecx, DWORD PTR [edx-20]
  00018	33 c8		 xor	 ecx, eax
  0001a	e8 00 00 00 00	 call	 @__security_check_cookie@4
  0001f	b8 00 00 00 00	 mov	 eax, OFFSET __ehfuncinfo$??$_Construct@UtagAlchemicItemInfo@@ABU1@@std@@YAXPAUtagAlchemicItemInfo@@ABU1@@Z
  00024	e9 00 00 00 00	 jmp	 ___CxxFrameHandler3
text$x	ENDS
??$_Construct@UtagAlchemicItemInfo@@ABU1@@std@@YAXPAUtagAlchemicItemInfo@@ABU1@@Z ENDP ; std::_Construct<tagAlchemicItemInfo,tagAlchemicItemInfo const &>
PUBLIC	??$?0AAPAUtagAlchemicItemInfo@@AAPAU0@@?$pair@PAUtagAlchemicItemInfo@@PAU1@@std@@QAE@AAPAUtagAlchemicItemInfo@@0@Z ; std::pair<tagAlchemicItemInfo *,tagAlchemicItemInfo *>::pair<tagAlchemicItemInfo *,tagAlchemicItemInfo *><tagAlchemicItemInfo * &,tagAlchemicItemInfo * &>
; Function compile flags: /Ogsp
; File c:\program files (x86)\microsoft visual studio 10.0\vc\include\utility
;	COMDAT ??$?0AAPAUtagAlchemicItemInfo@@AAPAU0@@?$pair@PAUtagAlchemicItemInfo@@PAU1@@std@@QAE@AAPAUtagAlchemicItemInfo@@0@Z
_TEXT	SEGMENT
__Val1$ = 8						; size = 4
__Val2$ = 12						; size = 4
??$?0AAPAUtagAlchemicItemInfo@@AAPAU0@@?$pair@PAUtagAlchemicItemInfo@@PAU1@@std@@QAE@AAPAUtagAlchemicItemInfo@@0@Z PROC ; std::pair<tagAlchemicItemInfo *,tagAlchemicItemInfo *>::pair<tagAlchemicItemInfo *,tagAlchemicItemInfo *><tagAlchemicItemInfo * &,tagAlchemicItemInfo * &>, COMDAT
; _this$ = ecx

; 247  : 		{	// construct from moved values

  00000	55		 push	 ebp
  00001	8b ec		 mov	 ebp, esp
  00003	8b c1		 mov	 eax, ecx
  00005	8b 4d 08	 mov	 ecx, DWORD PTR __Val1$[ebp]
  00008	8b 09		 mov	 ecx, DWORD PTR [ecx]
  0000a	89 08		 mov	 DWORD PTR [eax], ecx
  0000c	8b 4d 0c	 mov	 ecx, DWORD PTR __Val2$[ebp]
  0000f	8b 09		 mov	 ecx, DWORD PTR [ecx]
  00011	89 48 04	 mov	 DWORD PTR [eax+4], ecx

; 248  : 		}

  00014	5d		 pop	 ebp
  00015	c2 08 00	 ret	 8
??$?0AAPAUtagAlchemicItemInfo@@AAPAU0@@?$pair@PAUtagAlchemicItemInfo@@PAU1@@std@@QAE@AAPAUtagAlchemicItemInfo@@0@Z ENDP ; std::pair<tagAlchemicItemInfo *,tagAlchemicItemInfo *>::pair<tagAlchemicItemInfo *,tagAlchemicItemInfo *><tagAlchemicItemInfo * &,tagAlchemicItemInfo * &>
_TEXT	ENDS
PUBLIC	??$_Destroy@UNewShopPullDownItem@@@std@@YAXPAUNewShopPullDownItem@@@Z ; std::_Destroy<NewShopPullDownItem>
; Function compile flags: /Ogsp
; File c:\program files (x86)\microsoft visual studio 10.0\vc\include\xmemory
;	COMDAT ??$_Destroy@UNewShopPullDownItem@@@std@@YAXPAUNewShopPullDownItem@@@Z
_TEXT	SEGMENT
__Ptr$ = 8						; size = 4
??$_Destroy@UNewShopPullDownItem@@@std@@YAXPAUNewShopPullDownItem@@@Z PROC ; std::_Destroy<NewShopPullDownItem>, COMDAT

; 62   : 	{	// destroy object at _Ptr

  00000	55		 push	 ebp
  00001	8b ec		 mov	 ebp, esp

; 63   : 	_Ptr->~_Ty();

  00003	8b 4d 08	 mov	 ecx, DWORD PTR __Ptr$[ebp]

; 64   : 	}

  00006	5d		 pop	 ebp

; 63   : 	_Ptr->~_Ty();

  00007	e9 00 00 00 00	 jmp	 ??1NewShopPullDownItem@@QAE@XZ
??$_Destroy@UNewShopPullDownItem@@@std@@YAXPAUNewShopPullDownItem@@@Z ENDP ; std::_Destroy<NewShopPullDownItem>
_TEXT	ENDS
PUBLIC	??$_Destroy@UtagAlchemicItemInfo@@@std@@YAXPAUtagAlchemicItemInfo@@@Z ; std::_Destroy<tagAlchemicItemInfo>
; Function compile flags: /Ogsp
;	COMDAT ??$_Destroy@UtagAlchemicItemInfo@@@std@@YAXPAUtagAlchemicItemInfo@@@Z
_TEXT	SEGMENT
__Ptr$ = 8						; size = 4
??$_Destroy@UtagAlchemicItemInfo@@@std@@YAXPAUtagAlchemicItemInfo@@@Z PROC ; std::_Destroy<tagAlchemicItemInfo>, COMDAT

; 62   : 	{	// destroy object at _Ptr

  00000	55		 push	 ebp
  00001	8b ec		 mov	 ebp, esp

; 63   : 	_Ptr->~_Ty();

  00003	8b 4d 08	 mov	 ecx, DWORD PTR __Ptr$[ebp]
  00006	83 c1 08	 add	 ecx, 8

; 64   : 	}

  00009	5d		 pop	 ebp

; 63   : 	_Ptr->~_Ty();

  0000a	ff 25 00 00 00
	00		 jmp	 DWORD PTR __imp_??1ioHashString@@QAE@XZ
??$_Destroy@UtagAlchemicItemInfo@@@std@@YAXPAUtagAlchemicItemInfo@@@Z ENDP ; std::_Destroy<tagAlchemicItemInfo>
_TEXT	ENDS
PUBLIC	?construct@?$allocator@UNewShopPullDownItem@@@std@@QAEXPAUNewShopPullDownItem@@$$QAU3@@Z ; std::allocator<NewShopPullDownItem>::construct
;	COMDAT xdata$x
; File c:\program files (x86)\microsoft visual studio 10.0\vc\include\utility
xdata$x	SEGMENT
__unwindtable$?construct@?$allocator@UNewShopPullDownItem@@@std@@QAEXPAUNewShopPullDownItem@@$$QAU3@@Z DD 0ffffffffH
	DD	FLAT:__unwindfunclet$?construct@?$allocator@UNewShopPullDownItem@@@std@@QAEXPAUNewShopPullDownItem@@$$QAU3@@Z$0
__ehfuncinfo$?construct@?$allocator@UNewShopPullDownItem@@@std@@QAEXPAUNewShopPullDownItem@@$$QAU3@@Z DD 019930522H
	DD	01H
	DD	FLAT:__unwindtable$?construct@?$allocator@UNewShopPullDownItem@@@std@@QAEXPAUNewShopPullDownItem@@$$QAU3@@Z
	DD	2 DUP(00H)
	DD	2 DUP(00H)
	DD	00H
	DD	01H
; Function compile flags: /Ogsp
; File c:\program files (x86)\microsoft visual studio 10.0\vc\include\xmemory
xdata$x	ENDS
;	COMDAT ?construct@?$allocator@UNewShopPullDownItem@@@std@@QAEXPAUNewShopPullDownItem@@$$QAU3@@Z
_TEXT	SEGMENT
$T512906 = -16						; size = 4
__$EHRec$ = -12						; size = 12
__Ptr$ = 8						; size = 4
__Val$ = 12						; size = 4
?construct@?$allocator@UNewShopPullDownItem@@@std@@QAEXPAUNewShopPullDownItem@@$$QAU3@@Z PROC ; std::allocator<NewShopPullDownItem>::construct, COMDAT
; _this$ = ecx

; 201  : 		{	// construct object at _Ptr with value _Val

  00000	6a 04		 push	 4
  00002	b8 00 00 00 00	 mov	 eax, __ehhandler$?construct@?$allocator@UNewShopPullDownItem@@@std@@QAEXPAUNewShopPullDownItem@@$$QAU3@@Z
  00007	e8 00 00 00 00	 call	 __EH_prolog3

; 202  : 		::new ((void _FARQ *)_Ptr) _Ty(_STD forward<_Ty>(_Val));

  0000c	8b 4d 08	 mov	 ecx, DWORD PTR __Ptr$[ebp]
  0000f	89 4d f0	 mov	 DWORD PTR $T512906[ebp], ecx
  00012	83 65 fc 00	 and	 DWORD PTR __$EHRec$[ebp+8], 0
  00016	85 c9		 test	 ecx, ecx
  00018	74 08		 je	 SHORT $LN3@construct@3
  0001a	ff 75 0c	 push	 DWORD PTR __Val$[ebp]
  0001d	e8 00 00 00 00	 call	 ??0NewShopPullDownItem@@QAE@ABU0@@Z
$LN3@construct@3:

; 203  : 		}

  00022	e8 00 00 00 00	 call	 __EH_epilog3
  00027	c2 08 00	 ret	 8
_TEXT	ENDS
;	COMDAT text$x
text$x	SEGMENT
__unwindfunclet$?construct@?$allocator@UNewShopPullDownItem@@@std@@QAEXPAUNewShopPullDownItem@@$$QAU3@@Z$0:
  00000	ff 75 08	 push	 DWORD PTR __Ptr$[ebp]
  00003	ff 75 f0	 push	 DWORD PTR $T512906[ebp]
  00006	e8 00 00 00 00	 call	 ??3@YAXPAX0@Z		; operator delete
  0000b	59		 pop	 ecx
  0000c	59		 pop	 ecx
  0000d	c3		 ret	 0
__ehhandler$?construct@?$allocator@UNewShopPullDownItem@@@std@@QAEXPAUNewShopPullDownItem@@$$QAU3@@Z:
  0000e	8b 54 24 08	 mov	 edx, DWORD PTR [esp+8]
  00012	8d 42 0c	 lea	 eax, DWORD PTR [edx+12]
  00015	8b 4a ec	 mov	 ecx, DWORD PTR [edx-20]
  00018	33 c8		 xor	 ecx, eax
  0001a	e8 00 00 00 00	 call	 @__security_check_cookie@4
  0001f	b8 00 00 00 00	 mov	 eax, OFFSET __ehfuncinfo$?construct@?$allocator@UNewShopPullDownItem@@@std@@QAEXPAUNewShopPullDownItem@@$$QAU3@@Z
  00024	e9 00 00 00 00	 jmp	 ___CxxFrameHandler3
text$x	ENDS
?construct@?$allocator@UNewShopPullDownItem@@@std@@QAEXPAUNewShopPullDownItem@@$$QAU3@@Z ENDP ; std::allocator<NewShopPullDownItem>::construct
PUBLIC	?construct@?$allocator@UtagAlchemicItemInfo@@@std@@QAEXPAUtagAlchemicItemInfo@@$$QAU3@@Z ; std::allocator<tagAlchemicItemInfo>::construct
;	COMDAT xdata$x
; File c:\program files (x86)\microsoft visual studio 10.0\vc\include\utility
xdata$x	SEGMENT
__unwindtable$?construct@?$allocator@UtagAlchemicItemInfo@@@std@@QAEXPAUtagAlchemicItemInfo@@$$QAU3@@Z DD 0ffffffffH
	DD	FLAT:__unwindfunclet$?construct@?$allocator@UtagAlchemicItemInfo@@@std@@QAEXPAUtagAlchemicItemInfo@@$$QAU3@@Z$0
__ehfuncinfo$?construct@?$allocator@UtagAlchemicItemInfo@@@std@@QAEXPAUtagAlchemicItemInfo@@$$QAU3@@Z DD 019930522H
	DD	01H
	DD	FLAT:__unwindtable$?construct@?$allocator@UtagAlchemicItemInfo@@@std@@QAEXPAUtagAlchemicItemInfo@@$$QAU3@@Z
	DD	2 DUP(00H)
	DD	2 DUP(00H)
	DD	00H
	DD	01H
; Function compile flags: /Ogsp
; File c:\program files (x86)\microsoft visual studio 10.0\vc\include\xmemory
xdata$x	ENDS
;	COMDAT ?construct@?$allocator@UtagAlchemicItemInfo@@@std@@QAEXPAUtagAlchemicItemInfo@@$$QAU3@@Z
_TEXT	SEGMENT
$T512925 = -16						; size = 4
__$EHRec$ = -12						; size = 12
__Ptr$ = 8						; size = 4
__Val$ = 12						; size = 4
?construct@?$allocator@UtagAlchemicItemInfo@@@std@@QAEXPAUtagAlchemicItemInfo@@$$QAU3@@Z PROC ; std::allocator<tagAlchemicItemInfo>::construct, COMDAT
; _this$ = ecx

; 201  : 		{	// construct object at _Ptr with value _Val

  00000	6a 04		 push	 4
  00002	b8 00 00 00 00	 mov	 eax, __ehhandler$?construct@?$allocator@UtagAlchemicItemInfo@@@std@@QAEXPAUtagAlchemicItemInfo@@$$QAU3@@Z
  00007	e8 00 00 00 00	 call	 __EH_prolog3

; 202  : 		::new ((void _FARQ *)_Ptr) _Ty(_STD forward<_Ty>(_Val));

  0000c	8b 4d 08	 mov	 ecx, DWORD PTR __Ptr$[ebp]
  0000f	89 4d f0	 mov	 DWORD PTR $T512925[ebp], ecx
  00012	83 65 fc 00	 and	 DWORD PTR __$EHRec$[ebp+8], 0
  00016	85 c9		 test	 ecx, ecx
  00018	74 08		 je	 SHORT $LN3@construct@4
  0001a	ff 75 0c	 push	 DWORD PTR __Val$[ebp]
  0001d	e8 00 00 00 00	 call	 ??0tagAlchemicItemInfo@@QAE@ABU0@@Z
$LN3@construct@4:

; 203  : 		}

  00022	e8 00 00 00 00	 call	 __EH_epilog3
  00027	c2 08 00	 ret	 8
_TEXT	ENDS
;	COMDAT text$x
text$x	SEGMENT
__unwindfunclet$?construct@?$allocator@UtagAlchemicItemInfo@@@std@@QAEXPAUtagAlchemicItemInfo@@$$QAU3@@Z$0:
  00000	ff 75 08	 push	 DWORD PTR __Ptr$[ebp]
  00003	ff 75 f0	 push	 DWORD PTR $T512925[ebp]
  00006	e8 00 00 00 00	 call	 ??3@YAXPAX0@Z		; operator delete
  0000b	59		 pop	 ecx
  0000c	59		 pop	 ecx
  0000d	c3		 ret	 0
__ehhandler$?construct@?$allocator@UtagAlchemicItemInfo@@@std@@QAEXPAUtagAlchemicItemInfo@@$$QAU3@@Z:
  0000e	8b 54 24 08	 mov	 edx, DWORD PTR [esp+8]
  00012	8d 42 0c	 lea	 eax, DWORD PTR [edx+12]
  00015	8b 4a ec	 mov	 ecx, DWORD PTR [edx-20]
  00018	33 c8		 xor	 ecx, eax
  0001a	e8 00 00 00 00	 call	 @__security_check_cookie@4
  0001f	b8 00 00 00 00	 mov	 eax, OFFSET __ehfuncinfo$?construct@?$allocator@UtagAlchemicItemInfo@@@std@@QAEXPAUtagAlchemicItemInfo@@$$QAU3@@Z
  00024	e9 00 00 00 00	 jmp	 ___CxxFrameHandler3
text$x	ENDS
?construct@?$allocator@UtagAlchemicItemInfo@@@std@@QAEXPAUtagAlchemicItemInfo@@$$QAU3@@Z ENDP ; std::allocator<tagAlchemicItemInfo>::construct
PUBLIC	??$swap@UtagAlchemicItemInfo@@@std@@YAXAAUtagAlchemicItemInfo@@0@Z ; std::swap<tagAlchemicItemInfo>
;	COMDAT xdata$x
xdata$x	SEGMENT
__unwindtable$??$swap@UtagAlchemicItemInfo@@@std@@YAXAAUtagAlchemicItemInfo@@0@Z DD 0ffffffffH
	DD	FLAT:__unwindfunclet$??$swap@UtagAlchemicItemInfo@@@std@@YAXAAUtagAlchemicItemInfo@@0@Z$0
__ehfuncinfo$??$swap@UtagAlchemicItemInfo@@@std@@YAXAAUtagAlchemicItemInfo@@0@Z DD 019930522H
	DD	01H
	DD	FLAT:__unwindtable$??$swap@UtagAlchemicItemInfo@@@std@@YAXAAUtagAlchemicItemInfo@@0@Z
	DD	2 DUP(00H)
	DD	2 DUP(00H)
	DD	00H
	DD	01H
; Function compile flags: /Ogsp
; File c:\program files (x86)\microsoft visual studio 10.0\vc\include\utility
xdata$x	ENDS
;	COMDAT ??$swap@UtagAlchemicItemInfo@@@std@@YAXAAUtagAlchemicItemInfo@@0@Z
_TEXT	SEGMENT
__Tmp$ = -40						; size = 28
__$EHRec$ = -12						; size = 12
__Left$ = 8						; size = 4
__Right$ = 12						; size = 4
??$swap@UtagAlchemicItemInfo@@@std@@YAXAAUtagAlchemicItemInfo@@0@Z PROC ; std::swap<tagAlchemicItemInfo>, COMDAT

; 101  : 	{	// exchange values stored at _Left and _Right

  00000	6a 1c		 push	 28			; 0000001cH
  00002	b8 00 00 00 00	 mov	 eax, __ehhandler$??$swap@UtagAlchemicItemInfo@@@std@@YAXAAUtagAlchemicItemInfo@@0@Z
  00007	e8 00 00 00 00	 call	 __EH_prolog3

; 102  : 	_Ty _Tmp = _Move(_Left);

  0000c	ff 75 08	 push	 DWORD PTR __Left$[ebp]
  0000f	8d 4d d8	 lea	 ecx, DWORD PTR __Tmp$[ebp]
  00012	e8 00 00 00 00	 call	 ??0tagAlchemicItemInfo@@QAE@ABU0@@Z

; 103  : 	_Left = _Move(_Right);

  00017	ff 75 0c	 push	 DWORD PTR __Right$[ebp]
  0001a	8b 4d 08	 mov	 ecx, DWORD PTR __Left$[ebp]
  0001d	83 65 fc 00	 and	 DWORD PTR __$EHRec$[ebp+8], 0
  00021	e8 00 00 00 00	 call	 ??4tagAlchemicItemInfo@@QAEAAU0@ABU0@@Z

; 104  : 	_Right = _Move(_Tmp);

  00026	8b 4d 0c	 mov	 ecx, DWORD PTR __Right$[ebp]
  00029	8d 45 d8	 lea	 eax, DWORD PTR __Tmp$[ebp]
  0002c	50		 push	 eax
  0002d	e8 00 00 00 00	 call	 ??4tagAlchemicItemInfo@@QAEAAU0@ABU0@@Z

; 105  : 	}

  00032	83 4d fc ff	 or	 DWORD PTR __$EHRec$[ebp+8], -1
  00036	8d 4d e0	 lea	 ecx, DWORD PTR __Tmp$[ebp+8]
  00039	ff 15 00 00 00
	00		 call	 DWORD PTR __imp_??1ioHashString@@QAE@XZ
  0003f	e8 00 00 00 00	 call	 __EH_epilog3
  00044	c3		 ret	 0
_TEXT	ENDS
;	COMDAT text$x
text$x	SEGMENT
__unwindfunclet$??$swap@UtagAlchemicItemInfo@@@std@@YAXAAUtagAlchemicItemInfo@@0@Z$0:
  00000	8d 4d d8	 lea	 ecx, DWORD PTR __Tmp$[ebp]
  00003	e9 00 00 00 00	 jmp	 ??1tagAlchemicItemInfo@@QAE@XZ
__ehhandler$??$swap@UtagAlchemicItemInfo@@@std@@YAXAAUtagAlchemicItemInfo@@0@Z:
  00008	8b 54 24 08	 mov	 edx, DWORD PTR [esp+8]
  0000c	8d 42 0c	 lea	 eax, DWORD PTR [edx+12]
  0000f	8b 4a d4	 mov	 ecx, DWORD PTR [edx-44]
  00012	33 c8		 xor	 ecx, eax
  00014	e8 00 00 00 00	 call	 @__security_check_cookie@4
  00019	b8 00 00 00 00	 mov	 eax, OFFSET __ehfuncinfo$??$swap@UtagAlchemicItemInfo@@@std@@YAXAAUtagAlchemicItemInfo@@0@Z
  0001e	e9 00 00 00 00	 jmp	 ___CxxFrameHandler3
text$x	ENDS
??$swap@UtagAlchemicItemInfo@@@std@@YAXAAUtagAlchemicItemInfo@@0@Z ENDP ; std::swap<tagAlchemicItemInfo>
PUBLIC	??$_Adjust_heap@PAUtagAlchemicItemInfo@@HU1@VMaterialItemSort@ItemMaterialCompoundWnd@@@std@@YAXPAUtagAlchemicItemInfo@@HH$$QAU1@VMaterialItemSort@ItemMaterialCompoundWnd@@@Z ; std::_Adjust_heap<tagAlchemicItemInfo *,int,tagAlchemicItemInfo,ItemMaterialCompoundWnd::MaterialItemSort>
; Function compile flags: /Ogsp
; File c:\program files (x86)\microsoft visual studio 10.0\vc\include\algorithm
;	COMDAT ??$_Adjust_heap@PAUtagAlchemicItemInfo@@HU1@VMaterialItemSort@ItemMaterialCompoundWnd@@@std@@YAXPAUtagAlchemicItemInfo@@HH$$QAU1@VMaterialItemSort@ItemMaterialCompoundWnd@@@Z
_TEXT	SEGMENT
__First$ = 8						; size = 4
__Top$ = 12						; size = 4
__Hole$ = 12						; size = 4
__Bottom$ = 16						; size = 4
__Val$ = 20						; size = 4
__Pred$ = 24						; size = 1
??$_Adjust_heap@PAUtagAlchemicItemInfo@@HU1@VMaterialItemSort@ItemMaterialCompoundWnd@@@std@@YAXPAUtagAlchemicItemInfo@@HH$$QAU1@VMaterialItemSort@ItemMaterialCompoundWnd@@@Z PROC ; std::_Adjust_heap<tagAlchemicItemInfo *,int,tagAlchemicItemInfo,ItemMaterialCompoundWnd::MaterialItemSort>, COMDAT

; 2565 : 	{	// percolate _Hole to _Bottom, then push _Val, using _Pred

  00000	55		 push	 ebp
  00001	8b ec		 mov	 ebp, esp

; 2566 : 	_Diff _Top = _Hole;

  00003	8b 4d 0c	 mov	 ecx, DWORD PTR __Hole$[ebp]
  00006	53		 push	 ebx
  00007	56		 push	 esi
  00008	57		 push	 edi

; 2567 : 	_Diff _Idx = 2 * _Hole + 2;
; 2568 : 
; 2569 : 	for (; _Idx < _Bottom; _Idx = 2 * _Idx + 2)

  00009	8b 7d 08	 mov	 edi, DWORD PTR __First$[ebp]
  0000c	89 4d 0c	 mov	 DWORD PTR __Top$[ebp], ecx
  0000f	8d 74 09 02	 lea	 esi, DWORD PTR [ecx+ecx+2]
  00013	eb 33		 jmp	 SHORT $LN23@Adjust_hea
$LL5@Adjust_hea:

; 2570 : 		{	// move _Hole down to larger child
; 2571 : 		if (_DEBUG_LT_PRED(_Pred, *(_First + _Idx), *(_First + (_Idx - 1))))

  00015	8b c6		 mov	 eax, esi
  00017	6b c0 1c	 imul	 eax, 28			; 0000001cH
  0001a	03 c7		 add	 eax, edi
  0001c	8b 50 04	 mov	 edx, DWORD PTR [eax+4]
  0001f	8b 58 e8	 mov	 ebx, DWORD PTR [eax-24]
  00022	3b d3		 cmp	 edx, ebx
  00024	7f 09		 jg	 SHORT $LN21@Adjust_hea
  00026	75 08		 jne	 SHORT $LN2@Adjust_hea
  00028	8b 10		 mov	 edx, DWORD PTR [eax]
  0002a	3b 50 e4	 cmp	 edx, DWORD PTR [eax-28]
  0002d	7d 01		 jge	 SHORT $LN2@Adjust_hea
$LN21@Adjust_hea:

; 2572 : 			--_Idx;

  0002f	4e		 dec	 esi
$LN2@Adjust_hea:

; 2573 : 		*(_First + _Hole) = _Move(*(_First + _Idx));

  00030	8b c6		 mov	 eax, esi
  00032	6b c9 1c	 imul	 ecx, 28			; 0000001cH
  00035	6b c0 1c	 imul	 eax, 28			; 0000001cH
  00038	03 c7		 add	 eax, edi
  0003a	50		 push	 eax
  0003b	03 cf		 add	 ecx, edi
  0003d	e8 00 00 00 00	 call	 ??4tagAlchemicItemInfo@@QAEAAU0@ABU0@@Z

; 2574 : 		_Hole = _Idx;

  00042	8b ce		 mov	 ecx, esi
  00044	8d 74 36 02	 lea	 esi, DWORD PTR [esi+esi+2]
$LN23@Adjust_hea:

; 2567 : 	_Diff _Idx = 2 * _Hole + 2;
; 2568 : 
; 2569 : 	for (; _Idx < _Bottom; _Idx = 2 * _Idx + 2)

  00048	8b 5d 10	 mov	 ebx, DWORD PTR __Bottom$[ebp]
  0004b	3b f3		 cmp	 esi, ebx
  0004d	7c c6		 jl	 SHORT $LL5@Adjust_hea

; 2575 : 		}
; 2576 : 
; 2577 : 	if (_Idx == _Bottom)

  0004f	75 17		 jne	 SHORT $LN1@Adjust_hea

; 2578 : 		{	// only child at bottom, move _Hole down to it
; 2579 : 		*(_First + _Hole) = _Move(*(_First + (_Bottom - 1)));

  00051	8b c3		 mov	 eax, ebx
  00053	6b c9 1c	 imul	 ecx, 28			; 0000001cH
  00056	6b c0 1c	 imul	 eax, 28			; 0000001cH
  00059	8d 44 38 e4	 lea	 eax, DWORD PTR [eax+edi-28]
  0005d	50		 push	 eax
  0005e	03 cf		 add	 ecx, edi
  00060	e8 00 00 00 00	 call	 ??4tagAlchemicItemInfo@@QAEAAU0@ABU0@@Z

; 2580 : 		_Hole = _Bottom - 1;

  00065	8d 4b ff	 lea	 ecx, DWORD PTR [ebx-1]
$LN1@Adjust_hea:

; 2581 : 		}
; 2582 : 	_Push_heap(_First, _Hole, _Top, _Move(_Val), _Pred);

  00068	ff 75 18	 push	 DWORD PTR __Pred$[ebp]
  0006b	ff 75 14	 push	 DWORD PTR __Val$[ebp]
  0006e	ff 75 0c	 push	 DWORD PTR __Top$[ebp]
  00071	51		 push	 ecx
  00072	57		 push	 edi
  00073	e8 00 00 00 00	 call	 ??$_Push_heap@PAUtagAlchemicItemInfo@@HU1@VMaterialItemSort@ItemMaterialCompoundWnd@@@std@@YAXPAUtagAlchemicItemInfo@@HH$$QAU1@VMaterialItemSort@ItemMaterialCompoundWnd@@@Z ; std::_Push_heap<tagAlchemicItemInfo *,int,tagAlchemicItemInfo,ItemMaterialCompoundWnd::MaterialItemSort>
  00078	83 c4 14	 add	 esp, 20			; 00000014H
  0007b	5f		 pop	 edi
  0007c	5e		 pop	 esi
  0007d	5b		 pop	 ebx

; 2583 : 	}

  0007e	5d		 pop	 ebp
  0007f	c3		 ret	 0
??$_Adjust_heap@PAUtagAlchemicItemInfo@@HU1@VMaterialItemSort@ItemMaterialCompoundWnd@@@std@@YAXPAUtagAlchemicItemInfo@@HH$$QAU1@VMaterialItemSort@ItemMaterialCompoundWnd@@@Z ENDP ; std::_Adjust_heap<tagAlchemicItemInfo *,int,tagAlchemicItemInfo,ItemMaterialCompoundWnd::MaterialItemSort>
_TEXT	ENDS
PUBLIC	??$_Move_backward@PAUtagAlchemicItemInfo@@PAU1@@std@@YAPAUtagAlchemicItemInfo@@PAU1@00@Z ; std::_Move_backward<tagAlchemicItemInfo *,tagAlchemicItemInfo *>
; Function compile flags: /Ogsp
; File c:\program files (x86)\microsoft visual studio 10.0\vc\include\xutility
;	COMDAT ??$_Move_backward@PAUtagAlchemicItemInfo@@PAU1@@std@@YAPAUtagAlchemicItemInfo@@PAU1@00@Z
_TEXT	SEGMENT
__Cat$512993 = -4					; size = 1
__First$ = 8						; size = 4
__Last$ = 12						; size = 4
__Dest$ = 16						; size = 4
??$_Move_backward@PAUtagAlchemicItemInfo@@PAU1@@std@@YAPAUtagAlchemicItemInfo@@PAU1@00@Z PROC ; std::_Move_backward<tagAlchemicItemInfo *,tagAlchemicItemInfo *>, COMDAT

; 2638 : 	{	// move [_First, _Last) backwards to [..., _Dest), unchecked

  00000	55		 push	 ebp
  00001	8b ec		 mov	 ebp, esp
  00003	51		 push	 ecx

; 2639 : 	return (_Move_backward(_First, _Last,
; 2640 : 		_Dest, _Ptr_cat(_First, _Dest)));

  00004	ff 75 fc	 push	 DWORD PTR __Cat$512993[ebp]
  00007	ff 75 10	 push	 DWORD PTR __Dest$[ebp]
  0000a	ff 75 0c	 push	 DWORD PTR __Last$[ebp]
  0000d	ff 75 08	 push	 DWORD PTR __First$[ebp]
  00010	e8 00 00 00 00	 call	 ??$_Move_backward@PAUtagAlchemicItemInfo@@PAU1@@std@@YAPAUtagAlchemicItemInfo@@PAU1@00U_Nonscalar_ptr_iterator_tag@0@@Z ; std::_Move_backward<tagAlchemicItemInfo *,tagAlchemicItemInfo *>
  00015	83 c4 10	 add	 esp, 16			; 00000010H

; 2641 : 	}

  00018	c9		 leave
  00019	c3		 ret	 0
??$_Move_backward@PAUtagAlchemicItemInfo@@PAU1@@std@@YAPAUtagAlchemicItemInfo@@PAU1@00@Z ENDP ; std::_Move_backward<tagAlchemicItemInfo *,tagAlchemicItemInfo *>
_TEXT	ENDS
PUBLIC	??$_Pop_heap@PAUtagAlchemicItemInfo@@HU1@VMaterialItemSort@ItemMaterialCompoundWnd@@@std@@YAXPAUtagAlchemicItemInfo@@00$$QAU1@VMaterialItemSort@ItemMaterialCompoundWnd@@PAH@Z ; std::_Pop_heap<tagAlchemicItemInfo *,int,tagAlchemicItemInfo,ItemMaterialCompoundWnd::MaterialItemSort>
; Function compile flags: /Ogsp
; File c:\program files (x86)\microsoft visual studio 10.0\vc\include\algorithm
;	COMDAT ??$_Pop_heap@PAUtagAlchemicItemInfo@@HU1@VMaterialItemSort@ItemMaterialCompoundWnd@@@std@@YAXPAUtagAlchemicItemInfo@@00$$QAU1@VMaterialItemSort@ItemMaterialCompoundWnd@@PAH@Z
_TEXT	SEGMENT
__First$ = 8						; size = 4
__Last$ = 12						; size = 4
__Dest$ = 16						; size = 4
__Val$ = 20						; size = 4
__Pred$ = 24						; size = 1
___formal$ = 28						; size = 4
??$_Pop_heap@PAUtagAlchemicItemInfo@@HU1@VMaterialItemSort@ItemMaterialCompoundWnd@@@std@@YAXPAUtagAlchemicItemInfo@@00$$QAU1@VMaterialItemSort@ItemMaterialCompoundWnd@@PAH@Z PROC ; std::_Pop_heap<tagAlchemicItemInfo *,int,tagAlchemicItemInfo,ItemMaterialCompoundWnd::MaterialItemSort>, COMDAT

; 2591 : 	{	// pop *_First to *_Dest and reheap, using _Pred

  00000	55		 push	 ebp
  00001	8b ec		 mov	 ebp, esp

; 2592 : 	*_Dest = _Move(*_First);

  00003	ff 75 08	 push	 DWORD PTR __First$[ebp]
  00006	8b 4d 10	 mov	 ecx, DWORD PTR __Dest$[ebp]
  00009	e8 00 00 00 00	 call	 ??4tagAlchemicItemInfo@@QAEAAU0@ABU0@@Z

; 2593 : 	_Adjust_heap(_First, _Diff(0), _Diff(_Last - _First),
; 2594 : 		_Move(_Val), _Pred);

  0000e	ff 75 18	 push	 DWORD PTR __Pred$[ebp]
  00011	8b 45 0c	 mov	 eax, DWORD PTR __Last$[ebp]
  00014	ff 75 14	 push	 DWORD PTR __Val$[ebp]
  00017	2b 45 08	 sub	 eax, DWORD PTR __First$[ebp]
  0001a	6a 1c		 push	 28			; 0000001cH
  0001c	59		 pop	 ecx
  0001d	99		 cdq
  0001e	f7 f9		 idiv	 ecx
  00020	50		 push	 eax
  00021	6a 00		 push	 0
  00023	ff 75 08	 push	 DWORD PTR __First$[ebp]
  00026	e8 00 00 00 00	 call	 ??$_Adjust_heap@PAUtagAlchemicItemInfo@@HU1@VMaterialItemSort@ItemMaterialCompoundWnd@@@std@@YAXPAUtagAlchemicItemInfo@@HH$$QAU1@VMaterialItemSort@ItemMaterialCompoundWnd@@@Z ; std::_Adjust_heap<tagAlchemicItemInfo *,int,tagAlchemicItemInfo,ItemMaterialCompoundWnd::MaterialItemSort>
  0002b	83 c4 14	 add	 esp, 20			; 00000014H

; 2595 : 	}

  0002e	5d		 pop	 ebp
  0002f	c3		 ret	 0
??$_Pop_heap@PAUtagAlchemicItemInfo@@HU1@VMaterialItemSort@ItemMaterialCompoundWnd@@@std@@YAXPAUtagAlchemicItemInfo@@00$$QAU1@VMaterialItemSort@ItemMaterialCompoundWnd@@PAH@Z ENDP ; std::_Pop_heap<tagAlchemicItemInfo *,int,tagAlchemicItemInfo,ItemMaterialCompoundWnd::MaterialItemSort>
_TEXT	ENDS
PUBLIC	?StringCbPrintfA@@YAJPADIPBDZZ			; StringCbPrintfA
; Function compile flags: /Ogsp
; File c:\program files (x86)\microsoft sdks\windows\v7.0a\include\strsafe.h
;	COMDAT ?StringCbPrintfA@@YAJPADIPBDZZ
_TEXT	SEGMENT
_pszDest$ = 8						; size = 4
_cbDest$ = 12						; size = 4
_pszFormat$ = 16					; size = 4
?StringCbPrintfA@@YAJPADIPBDZZ PROC			; StringCbPrintfA, COMDAT

; 4767 : {

  00000	55		 push	 ebp
  00001	8b ec		 mov	 ebp, esp

; 4768 :     HRESULT hr;
; 4769 :     size_t cchDest = cbDest / sizeof(char);
; 4770 : 
; 4771 :     hr = StringValidateDestA(pszDest, cchDest, STRSAFE_MAX_CCH);

  00003	8b 4d 0c	 mov	 ecx, DWORD PTR _cbDest$[ebp]
  00006	33 c0		 xor	 eax, eax
  00008	85 c9		 test	 ecx, ecx
  0000a	74 08		 je	 SHORT $LN4@StringCbPr
  0000c	81 f9 ff ff ff
	7f		 cmp	 ecx, 2147483647		; 7fffffffH
  00012	76 05		 jbe	 SHORT $LN5@StringCbPr
$LN4@StringCbPr:
  00014	b8 57 00 07 80	 mov	 eax, -2147024809	; 80070057H
$LN5@StringCbPr:

; 4772 :     
; 4773 :     if (SUCCEEDED(hr))

  00019	85 c0		 test	 eax, eax
  0001b	78 39		 js	 SHORT $LN1@StringCbPr

; 4774 :     {
; 4775 :         va_list argList;
; 4776 : 
; 4777 :         va_start(argList, pszFormat);
; 4778 : 
; 4779 :         hr = StringVPrintfWorkerA(pszDest,
; 4780 :                                   cchDest,
; 4781 :                                   NULL,
; 4782 :                                   pszFormat,
; 4783 :                                   argList);

  0001d	53		 push	 ebx
  0001e	56		 push	 esi
  0001f	57		 push	 edi
  00020	8b 7d 08	 mov	 edi, DWORD PTR _pszDest$[ebp]
  00023	8d 45 14	 lea	 eax, DWORD PTR _pszFormat$[ebp+4]
  00026	50		 push	 eax
  00027	ff 75 10	 push	 DWORD PTR _pszFormat$[ebp]
  0002a	8d 71 ff	 lea	 esi, DWORD PTR [ecx-1]
  0002d	56		 push	 esi
  0002e	57		 push	 edi
  0002f	33 db		 xor	 ebx, ebx
  00031	ff 15 00 00 00
	00		 call	 DWORD PTR __imp___vsnprintf
  00037	83 c4 10	 add	 esp, 16			; 00000010H
  0003a	85 c0		 test	 eax, eax
  0003c	78 0b		 js	 SHORT $LN12@StringCbPr
  0003e	3b c6		 cmp	 eax, esi
  00040	77 07		 ja	 SHORT $LN12@StringCbPr
  00042	75 0d		 jne	 SHORT $LN9@StringCbPr
  00044	88 1c 3e	 mov	 BYTE PTR [esi+edi], bl
  00047	eb 08		 jmp	 SHORT $LN9@StringCbPr
$LN12@StringCbPr:
  00049	88 1c 3e	 mov	 BYTE PTR [esi+edi], bl
  0004c	bb 7a 00 07 80	 mov	 ebx, -2147024774	; 8007007aH
$LN9@StringCbPr:
  00051	5f		 pop	 edi
  00052	5e		 pop	 esi
  00053	8b c3		 mov	 eax, ebx
  00055	5b		 pop	 ebx
$LN1@StringCbPr:

; 4784 : 
; 4785 :         va_end(argList);
; 4786 :     }
; 4787 : 
; 4788 :     return hr;
; 4789 : }

  00056	5d		 pop	 ebp
  00057	c3		 ret	 0
?StringCbPrintfA@@YAJPADIPBDZZ ENDP			; StringCbPrintfA
_TEXT	ENDS
PUBLIC	_this$GSCopy$
PUBLIC	__$ArrayPad$
EXTRN	__imp_?AddRenderImage@ioWnd@@UAEXABVioHashString@@PAVioUIRenderImage@@@Z:PROC
; Function compile flags: /Ogsp
; File d:\lost saga for developer\youtube\tutorial\source\src\lsclient\gui\peteatwnd.cpp
;	COMDAT ?AddRenderImage@PetEatWnd@@UAEXABVioHashString@@PAVioUIRenderImage@@@Z
_TEXT	SEGMENT
_this$GSCopy$ = -24					; size = 4
__t$513060 = -20					; size = 11
__$ArrayPad$ = -4					; size = 4
_szType$ = 8						; size = 4
_pImage$ = 12						; size = 4
?AddRenderImage@PetEatWnd@@UAEXABVioHashString@@PAVioUIRenderImage@@@Z PROC ; PetEatWnd::AddRenderImage, COMDAT
; _this$ = ecx

; 124  : {

  00000	55		 push	 ebp
  00001	8b ec		 mov	 ebp, esp
  00003	83 ec 18	 sub	 esp, 24			; 00000018H
  00006	a1 00 00 00 00	 mov	 eax, DWORD PTR ___security_cookie
  0000b	33 c5		 xor	 eax, ebp
  0000d	89 45 fc	 mov	 DWORD PTR __$ArrayPad$[ebp], eax
  00010	53		 push	 ebx
  00011	8b 5d 0c	 mov	 ebx, DWORD PTR _pImage$[ebp]
  00014	56		 push	 esi
  00015	57		 push	 edi
  00016	8b 7d 08	 mov	 edi, DWORD PTR _szType$[ebp]

; 125  : 	if( szType == "ManualMark" )

  00019	6a 02		 push	 2
  0001b	89 4d e8	 mov	 DWORD PTR _this$GSCopy$[ebp], ecx
  0001e	c7 45 ec a0 8d
	85 9f		 mov	 DWORD PTR __t$513060[ebp], -1618637408 ; 9f858da0H
  00025	c7 45 f0 8c 80
	a6 8b		 mov	 DWORD PTR __t$513060[ebp+4], -1952022388 ; 8ba6808cH
  0002c	66 c7 45 f4 9f
	87		 mov	 WORD PTR __t$513060[ebp+8], 34719 ; 0000879fH
  00032	8d 45 ec	 lea	 eax, DWORD PTR __t$513060[ebp]
  00035	c6 45 f6 00	 mov	 BYTE PTR __t$513060[ebp+10], 0
  00039	59		 pop	 ecx
$LL111@AddRenderI:
  0003a	81 30 ed ec eb
	ea		 xor	 DWORD PTR [eax], -353637139 ; eaebecedH
  00040	83 c0 04	 add	 eax, 4
  00043	49		 dec	 ecx
  00044	75 f4		 jne	 SHORT $LL111@AddRenderI
  00046	6a 08		 push	 8
  00048	58		 pop	 eax
$LL108@AddRenderI:
  00049	8b c8		 mov	 ecx, eax
  0004b	81 e1 03 00 00
	80		 and	 ecx, -2147483645	; 80000003H
  00051	79 05		 jns	 SHORT $LN122@AddRenderI
  00053	49		 dec	 ecx
  00054	83 c9 fc	 or	 ecx, -4			; fffffffcH
  00057	41		 inc	 ecx
$LN122@AddRenderI:
  00058	b2 ed		 mov	 dl, -19			; ffffffedH
  0005a	2a d1		 sub	 dl, cl
  0005c	30 54 05 ec	 xor	 BYTE PTR __t$513060[ebp+eax], dl
  00060	40		 inc	 eax
  00061	83 f8 0a	 cmp	 eax, 10			; 0000000aH
  00064	7c e3		 jl	 SHORT $LL108@AddRenderI
  00066	8b cf		 mov	 ecx, edi
  00068	8d 75 ec	 lea	 esi, DWORD PTR __t$513060[ebp]
  0006b	ff 15 00 00 00
	00		 call	 DWORD PTR __imp_?c_str@ioHashString@@QBEPBDXZ
$LL118@AddRenderI:
  00071	8a 08		 mov	 cl, BYTE PTR [eax]
  00073	3a 0e		 cmp	 cl, BYTE PTR [esi]
  00075	75 1a		 jne	 SHORT $LN119@AddRenderI
  00077	84 c9		 test	 cl, cl
  00079	74 12		 je	 SHORT $LN120@AddRenderI
  0007b	8a 48 01	 mov	 cl, BYTE PTR [eax+1]
  0007e	3a 4e 01	 cmp	 cl, BYTE PTR [esi+1]
  00081	75 0e		 jne	 SHORT $LN119@AddRenderI
  00083	83 c0 02	 add	 eax, 2
  00086	83 c6 02	 add	 esi, 2
  00089	84 c9		 test	 cl, cl
  0008b	75 e4		 jne	 SHORT $LL118@AddRenderI
$LN120@AddRenderI:
  0008d	33 c0		 xor	 eax, eax
  0008f	eb 05		 jmp	 SHORT $LN121@AddRenderI
$LN119@AddRenderI:
  00091	1b c0		 sbb	 eax, eax
  00093	83 d8 ff	 sbb	 eax, -1
$LN121@AddRenderI:
  00096	85 c0		 test	 eax, eax
  00098	75 23		 jne	 SHORT $LN3@AddRenderI

; 126  : 	{
; 127  : 		SAFEDELETE( m_pManualMark );

  0009a	8b 75 e8	 mov	 esi, DWORD PTR _this$GSCopy$[ebp]
  0009d	8b 8e 60 01 00
	00		 mov	 ecx, DWORD PTR [esi+352]
  000a3	85 c9		 test	 ecx, ecx
  000a5	74 0e		 je	 SHORT $LN2@AddRenderI
  000a7	8b 01		 mov	 eax, DWORD PTR [ecx]
  000a9	6a 01		 push	 1
  000ab	ff 50 40	 call	 DWORD PTR [eax+64]
  000ae	83 a6 60 01 00
	00 00		 and	 DWORD PTR [esi+352], 0
$LN2@AddRenderI:

; 128  : 		m_pManualMark = pImage;

  000b5	89 9e 60 01 00
	00		 mov	 DWORD PTR [esi+352], ebx

; 129  : 	}
; 130  : 	else

  000bb	eb 0b		 jmp	 SHORT $LN1@AddRenderI
$LN3@AddRenderI:

; 131  : 		ioWnd::AddRenderImage( szType, pImage );

  000bd	8b 4d e8	 mov	 ecx, DWORD PTR _this$GSCopy$[ebp]
  000c0	53		 push	 ebx
  000c1	57		 push	 edi
  000c2	ff 15 00 00 00
	00		 call	 DWORD PTR __imp_?AddRenderImage@ioWnd@@UAEXABVioHashString@@PAVioUIRenderImage@@@Z
$LN1@AddRenderI:

; 132  : }

  000c8	8b 4d fc	 mov	 ecx, DWORD PTR __$ArrayPad$[ebp]
  000cb	5f		 pop	 edi
  000cc	5e		 pop	 esi
  000cd	33 cd		 xor	 ecx, ebp
  000cf	5b		 pop	 ebx
  000d0	e8 00 00 00 00	 call	 @__security_check_cookie@4
  000d5	c9		 leave
  000d6	c2 08 00	 ret	 8
?AddRenderImage@PetEatWnd@@UAEXABVioHashString@@PAVioUIRenderImage@@@Z ENDP ; PetEatWnd::AddRenderImage
_TEXT	ENDS
PUBLIC	__$ArrayPad$
; Function compile flags: /Ogsp
;	COMDAT ?ParseExtraInfo@PetEatWnd@@UAEXAAVioXMLElement@@@Z
_TEXT	SEGMENT
__k$513199 = -24					; size = 13
__$ArrayPad$ = -4					; size = 4
_xElement$ = 8						; size = 4
?ParseExtraInfo@PetEatWnd@@UAEXAAVioXMLElement@@@Z PROC	; PetEatWnd::ParseExtraInfo, COMDAT
; _this$ = ecx

; 135  : {

  00000	55		 push	 ebp
  00001	8b ec		 mov	 ebp, esp
  00003	83 ec 18	 sub	 esp, 24			; 00000018H
  00006	a1 00 00 00 00	 mov	 eax, DWORD PTR ___security_cookie
  0000b	33 c5		 xor	 eax, ebp
  0000d	89 45 fc	 mov	 DWORD PTR __$ArrayPad$[ebp], eax
  00010	56		 push	 esi

; 136  : 	m_nHelpTipIdx = xElement.GetIntAttribute_e( "help_tip_idx" );	

  00011	6a 03		 push	 3
  00013	8b f1		 mov	 esi, ecx
  00015	8b 4d 08	 mov	 ecx, DWORD PTR _xElement$[ebp]
  00018	c7 45 e8 85 89
	87 9a		 mov	 DWORD PTR __k$513199[ebp], -1702393467 ; 9a878985H
  0001f	c7 45 ec b2 98
	82 9a		 mov	 DWORD PTR __k$513199[ebp+4], -1702717262 ; 9a8298b2H
  00026	c7 45 f0 b2 85
	8f 92		 mov	 DWORD PTR __k$513199[ebp+8], -1836087886 ; 928f85b2H
  0002d	8d 45 e8	 lea	 eax, DWORD PTR __k$513199[ebp]
  00030	c6 45 f4 00	 mov	 BYTE PTR __k$513199[ebp+12], 0
  00034	5a		 pop	 edx
$LL106@ParseExtra:
  00035	81 30 ed ec eb
	ea		 xor	 DWORD PTR [eax], -353637139 ; eaebecedH
  0003b	83 c0 04	 add	 eax, 4
  0003e	4a		 dec	 edx
  0003f	75 f4		 jne	 SHORT $LL106@ParseExtra
  00041	8d 45 e8	 lea	 eax, DWORD PTR __k$513199[ebp]
  00044	50		 push	 eax
  00045	ff 15 00 00 00
	00		 call	 DWORD PTR __imp_?GetIntAttribute@ioXMLElement@@QBEHPBD@Z

; 137  : }

  0004b	8b 4d fc	 mov	 ecx, DWORD PTR __$ArrayPad$[ebp]
  0004e	89 86 64 01 00
	00		 mov	 DWORD PTR [esi+356], eax
  00054	33 cd		 xor	 ecx, ebp
  00056	5e		 pop	 esi
  00057	e8 00 00 00 00	 call	 @__security_check_cookie@4
  0005c	c9		 leave
  0005d	c2 04 00	 ret	 4
?ParseExtraInfo@PetEatWnd@@UAEXAAVioXMLElement@@@Z ENDP	; PetEatWnd::ParseExtraInfo
_TEXT	ENDS
PUBLIC	??_C@_0BL@OBNBKBDN@PetEatWnd?3?3SetMaterialCode?$AA@ ; `string'
PUBLIC	?SetMaterialCode@PetEatWnd@@QAEXH@Z		; PetEatWnd::SetMaterialCode
EXTRN	?SetMsgBox@ioSP2GUIManager@@QAEXHPAVioWnd@@PBD1@Z:PROC ; ioSP2GUIManager::SetMsgBox
EXTRN	__imp_?SafeSprintf@@YAXPADHPBD1@Z:PROC
EXTRN	?GetClassNameA@ioMyInfo@@QAEPBDHH@Z:PROC	; ioMyInfo::GetClassNameA
EXTRN	?GetAlchemicItemName@ioAlchemicMgr@@QAE?AVioHashString@@H@Z:PROC ; ioAlchemicMgr::GetAlchemicItemName
EXTRN	?GetSingleton@ioAlchemicMgr@@SAAAV1@XZ:PROC	; ioAlchemicMgr::GetSingleton
EXTRN	?SetMsgBox@ioSP2GUIManager@@QAAXHPAVioWnd@@PBDZZ:PROC ; ioSP2GUIManager::SetMsgBox
EXTRN	?GetSingleton@ioSP2GUIManager@@SAAAV1@XZ:PROC	; ioSP2GUIManager::GetSingleton
EXTRN	?GetAlchemicItemCnt@ioAlchemicInventory@@QAEHH@Z:PROC ; ioAlchemicInventory::GetAlchemicItemCnt
EXTRN	?GetSingleton@ioMyInfo@@SAAAV1@XZ:PROC		; ioMyInfo::GetSingleton
EXTRN	__EH_epilog3_GS:PROC
EXTRN	__EH_prolog3_GS:PROC
EXTRN	_memset:PROC
;	COMDAT ??_C@_0BL@OBNBKBDN@PetEatWnd?3?3SetMaterialCode?$AA@
; File d:\lost saga for developer\youtube\tutorial\source\src\lsclient\stringprotect.h
CONST	SEGMENT
??_C@_0BL@OBNBKBDN@PetEatWnd?3?3SetMaterialCode?$AA@ DB 'PetEatWnd::SetMa'
	DB	'terialCode', 00H				; `string'
CONST	ENDS
;	COMDAT xdata$x
xdata$x	SEGMENT
__unwindtable$?SetMaterialCode@PetEatWnd@@QAEXH@Z DD 0ffffffffH
	DD	FLAT:__unwindfunclet$?SetMaterialCode@PetEatWnd@@QAEXH@Z$0
__ehfuncinfo$?SetMaterialCode@PetEatWnd@@QAEXH@Z DD 019930522H
	DD	01H
	DD	FLAT:__unwindtable$?SetMaterialCode@PetEatWnd@@QAEXH@Z
	DD	2 DUP(00H)
	DD	2 DUP(00H)
	DD	00H
	DD	01H
; Function compile flags: /Ogsp
; File d:\lost saga for developer\youtube\tutorial\source\src\lsclient\gui\peteatwnd.cpp
xdata$x	ENDS
;	COMDAT ?SetMaterialCode@PetEatWnd@@QAEXH@Z
_TEXT	SEGMENT
$T513305 = -300						; size = 16
___encStr$508847 = -284					; size = 3
_szName$508842 = -276					; size = 260
__$EHRec$ = -12						; size = 12
_nMaterialCode$ = 8					; size = 4
?SetMaterialCode@PetEatWnd@@QAEXH@Z PROC		; PetEatWnd::SetMaterialCode, COMDAT
; _this$ = ecx

; 182  : {

  00000	68 20 01 00 00	 push	 288			; 00000120H
  00005	b8 00 00 00 00	 mov	 eax, __ehhandler$?SetMaterialCode@PetEatWnd@@QAEXH@Z
  0000a	e8 00 00 00 00	 call	 __EH_prolog3_GS
  0000f	8b f1		 mov	 esi, ecx

; 183  : 	if ( m_nSelectPetSlot <= 0 || m_nSelectMaterialCode == nMaterialCode )

  00011	33 db		 xor	 ebx, ebx
  00013	39 9e 68 01 00
	00		 cmp	 DWORD PTR [esi+360], ebx
  00019	0f 8e be 01 00
	00		 jle	 $LN105@SetMateria
  0001f	8b 7d 08	 mov	 edi, DWORD PTR _nMaterialCode$[ebp]
  00022	39 be 74 01 00
	00		 cmp	 DWORD PTR [esi+372], edi
  00028	0f 84 af 01 00
	00		 je	 $LN105@SetMateria

; 184  : 		return;
; 185  : 
; 186  : 	ioAlchemicInventory *pInven = g_MyInfo.GetAlchemicInventory();

  0002e	e8 00 00 00 00	 call	 ?GetSingleton@ioMyInfo@@SAAAV1@XZ ; ioMyInfo::GetSingleton
  00033	8d 88 84 02 00
	00		 lea	 ecx, DWORD PTR [eax+644]

; 187  : 	if( !pInven )

  00039	3b cb		 cmp	 ecx, ebx
  0003b	0f 84 9c 01 00
	00		 je	 $LN105@SetMateria

; 188  : 		return;
; 189  : 
; 190  : 	int nCurMaterialCnt = pInven->GetAlchemicItemCnt( nMaterialCode );

  00041	57		 push	 edi
  00042	e8 00 00 00 00	 call	 ?GetAlchemicItemCnt@ioAlchemicInventory@@QAEHH@Z ; ioAlchemicInventory::GetAlchemicItemCnt

; 191  : 	//  
; 192  : 	if ( nCurMaterialCnt < m_nNeedMaterialCnt )

  00047	3b 86 6c 01 00
	00		 cmp	 eax, DWORD PTR [esi+364]
  0004d	7d 31		 jge	 SHORT $LN103@SetMateria

; 193  : 	{
; 194  : 		g_GUIMgr.SetMsgBox( MB_OK, NULL, STR(1) );

  0004f	53		 push	 ebx
  00050	6a 01		 push	 1
  00052	68 00 00 00 00	 push	 OFFSET ??_C@_00CNPNBAHC@?$AA@
  00057	68 00 00 00 00	 push	 OFFSET ??_C@_0BL@OBNBKBDN@PetEatWnd?3?3SetMaterialCode?$AA@
  0005c	ff 15 00 00 00
	00		 call	 DWORD PTR __imp_?GetSingleton@ioStringManager@@SAAAV1@XZ
  00062	8b c8		 mov	 ecx, eax
  00064	ff 15 00 00 00
	00		 call	 DWORD PTR __imp_?GetString@ioStringManager@@QAEPADPBD0HW4FileNamePrefix@1@@Z
  0006a	50		 push	 eax
  0006b	53		 push	 ebx
  0006c	53		 push	 ebx
  0006d	e8 00 00 00 00	 call	 ?GetSingleton@ioSP2GUIManager@@SAAAV1@XZ ; ioSP2GUIManager::GetSingleton
  00072	50		 push	 eax
  00073	e8 00 00 00 00	 call	 ?SetMsgBox@ioSP2GUIManager@@QAAXHPAVioWnd@@PBDZZ ; ioSP2GUIManager::SetMsgBox
  00078	83 c4 10	 add	 esp, 16			; 00000010H

; 195  : 		return;

  0007b	e9 5d 01 00 00	 jmp	 $LN105@SetMateria
$LN103@SetMateria:

; 196  : 	}
; 197  : 
; 198  : 	m_nSelectMaterialCode = nMaterialCode;

  00080	89 be 74 01 00
	00		 mov	 DWORD PTR [esi+372], edi

; 199  : 	m_bIsSelectMaterial = true;

  00086	c6 86 78 01 00
	00 01		 mov	 BYTE PTR [esi+376], 1

; 200  : 	
; 201  : 	//   (    ,  )
; 202  : 	if ( m_nSelectMaterialCode != ioItemCompoundMaterialManager::CT_Additive && 
; 203  : 		 m_nSelectMaterialCode != m_nNeedMaterialCode )

  0008d	81 ff a1 86 01
	00		 cmp	 edi, 100001		; 000186a1H
  00093	0f 84 44 01 00
	00		 je	 $LN105@SetMateria
  00099	8b b6 70 01 00
	00		 mov	 esi, DWORD PTR [esi+368]
  0009f	3b fe		 cmp	 edi, esi
  000a1	0f 84 36 01 00
	00		 je	 $LN105@SetMateria

; 204  : 	{
; 205  : 		char szName[MAX_PATH] = "";

  000a7	68 03 01 00 00	 push	 259			; 00000103H
  000ac	8d 85 ed fe ff
	ff		 lea	 eax, DWORD PTR _szName$508842[ebp+1]
  000b2	53		 push	 ebx
  000b3	50		 push	 eax
  000b4	88 9d ec fe ff
	ff		 mov	 BYTE PTR _szName$508842[ebp], bl
  000ba	e8 00 00 00 00	 call	 _memset
  000bf	83 c4 0c	 add	 esp, 12			; 0000000cH

; 206  : 		if( m_nNeedMaterialCode > ALCHEMIC_ADDITIVE_DIV )

  000c2	81 fe a0 86 01
	00		 cmp	 esi, 100000		; 000186a0H
  000c8	0f 8e a2 00 00
	00		 jle	 $LN101@SetMateria

; 207  : 		{
; 208  : 			StringCbPrintf_e( szName, sizeof( szName ), "%s", g_AlchemicMgr.GetAlchemicItemName( m_nNeedMaterialCode ).c_str() );

  000ce	66 c7 85 e4 fe
	ff ff c8 9f	 mov	 WORD PTR ___encStr$508847[ebp], 40904 ; 00009fc8H
  000d7	88 9d e6 fe ff
	ff		 mov	 BYTE PTR ___encStr$508847[ebp+2], bl
  000dd	33 ff		 xor	 edi, edi
$LL114@SetMateria:
  000df	8b c7		 mov	 eax, edi
  000e1	25 03 00 00 80	 and	 eax, -2147483645	; 80000003H
  000e6	79 05		 jns	 SHORT $LN125@SetMateria
  000e8	48		 dec	 eax
  000e9	83 c8 fc	 or	 eax, -4			; fffffffcH
  000ec	40		 inc	 eax
$LN125@SetMateria:
  000ed	b1 ed		 mov	 cl, -19			; ffffffedH
  000ef	2a c8		 sub	 cl, al
  000f1	30 8c 3d e4 fe
	ff ff		 xor	 BYTE PTR ___encStr$508847[ebp+edi], cl
  000f8	47		 inc	 edi
  000f9	83 ff 02	 cmp	 edi, 2
  000fc	7c e1		 jl	 SHORT $LL114@SetMateria
  000fe	8d 85 d4 fe ff
	ff		 lea	 eax, DWORD PTR $T513305[ebp]
  00104	56		 push	 esi
  00105	50		 push	 eax
  00106	e8 00 00 00 00	 call	 ?GetSingleton@ioAlchemicMgr@@SAAAV1@XZ ; ioAlchemicMgr::GetSingleton
  0010b	8b c8		 mov	 ecx, eax
  0010d	e8 00 00 00 00	 call	 ?GetAlchemicItemName@ioAlchemicMgr@@QAE?AVioHashString@@H@Z ; ioAlchemicMgr::GetAlchemicItemName
  00112	8b c8		 mov	 ecx, eax
  00114	89 5d fc	 mov	 DWORD PTR __$EHRec$[ebp+8], ebx
  00117	ff 15 00 00 00
	00		 call	 DWORD PTR __imp_?c_str@ioHashString@@QBEPBDXZ
  0011d	50		 push	 eax
  0011e	8d 85 e4 fe ff
	ff		 lea	 eax, DWORD PTR ___encStr$508847[ebp]
  00124	50		 push	 eax
  00125	8d 85 ec fe ff
	ff		 lea	 eax, DWORD PTR _szName$508842[ebp]
  0012b	68 04 01 00 00	 push	 260			; 00000104H
  00130	50		 push	 eax
  00131	e8 00 00 00 00	 call	 ?StringCbPrintfA@@YAJPADIPBDZZ ; StringCbPrintfA
  00136	83 4d fc ff	 or	 DWORD PTR __$EHRec$[ebp+8], -1
  0013a	83 c4 10	 add	 esp, 16			; 00000010H
  0013d	8d 8d d4 fe ff
	ff		 lea	 ecx, DWORD PTR $T513305[ebp]
  00143	ff 15 00 00 00
	00		 call	 DWORD PTR __imp_??1ioHashString@@QAE@XZ

; 209  : 			g_GUIMgr.SetMsgBox( MB_OK, NULL, STR(2), szName );

  00149	8d 85 ec fe ff
	ff		 lea	 eax, DWORD PTR _szName$508842[ebp]
  0014f	50		 push	 eax
  00150	53		 push	 ebx
  00151	6a 02		 push	 2
  00153	68 00 00 00 00	 push	 OFFSET ??_C@_00CNPNBAHC@?$AA@
  00158	68 00 00 00 00	 push	 OFFSET ??_C@_0BL@OBNBKBDN@PetEatWnd?3?3SetMaterialCode?$AA@
  0015d	ff 15 00 00 00
	00		 call	 DWORD PTR __imp_?GetSingleton@ioStringManager@@SAAAV1@XZ
  00163	8b c8		 mov	 ecx, eax
  00165	ff 15 00 00 00
	00		 call	 DWORD PTR __imp_?GetString@ioStringManager@@QAEPADPBD0HW4FileNamePrefix@1@@Z
  0016b	50		 push	 eax
  0016c	53		 push	 ebx
  0016d	53		 push	 ebx

; 210  : 		}
; 211  : 		else

  0016e	eb 61		 jmp	 SHORT $LN126@SetMateria
$LN101@SetMateria:

; 212  : 		{
; 213  : 			SafeSprintf( szName, sizeof( szName ), STR(1), g_MyInfo.GetClassName( m_nNeedMaterialCode ) );

  00170	53		 push	 ebx
  00171	56		 push	 esi
  00172	e8 00 00 00 00	 call	 ?GetSingleton@ioMyInfo@@SAAAV1@XZ ; ioMyInfo::GetSingleton
  00177	8b c8		 mov	 ecx, eax
  00179	e8 00 00 00 00	 call	 ?GetClassNameA@ioMyInfo@@QAEPBDHH@Z ; ioMyInfo::GetClassNameA
  0017e	8b 35 00 00 00
	00		 mov	 esi, DWORD PTR __imp_?GetSingleton@ioStringManager@@SAAAV1@XZ
  00184	50		 push	 eax
  00185	53		 push	 ebx
  00186	6a 01		 push	 1
  00188	68 00 00 00 00	 push	 OFFSET ??_C@_00CNPNBAHC@?$AA@
  0018d	bb 00 00 00 00	 mov	 ebx, OFFSET ??_C@_0BL@OBNBKBDN@PetEatWnd?3?3SetMaterialCode?$AA@
  00192	53		 push	 ebx
  00193	ff d6		 call	 esi
  00195	8b 3d 00 00 00
	00		 mov	 edi, DWORD PTR __imp_?GetString@ioStringManager@@QAEPADPBD0HW4FileNamePrefix@1@@Z
  0019b	8b c8		 mov	 ecx, eax
  0019d	ff d7		 call	 edi
  0019f	50		 push	 eax
  001a0	8d 85 ec fe ff
	ff		 lea	 eax, DWORD PTR _szName$508842[ebp]
  001a6	68 04 01 00 00	 push	 260			; 00000104H
  001ab	50		 push	 eax
  001ac	ff 15 00 00 00
	00		 call	 DWORD PTR __imp_?SafeSprintf@@YAXPADHPBD1@Z
  001b2	83 c4 10	 add	 esp, 16			; 00000010H

; 214  : 			g_GUIMgr.SetMsgBox( MB_OK, NULL, STR(3), szName );

  001b5	8d 85 ec fe ff
	ff		 lea	 eax, DWORD PTR _szName$508842[ebp]
  001bb	50		 push	 eax
  001bc	6a 00		 push	 0
  001be	6a 03		 push	 3
  001c0	68 00 00 00 00	 push	 OFFSET ??_C@_00CNPNBAHC@?$AA@
  001c5	53		 push	 ebx
  001c6	ff d6		 call	 esi
  001c8	8b c8		 mov	 ecx, eax
  001ca	ff d7		 call	 edi
  001cc	50		 push	 eax
  001cd	6a 00		 push	 0
  001cf	6a 00		 push	 0
$LN126@SetMateria:
  001d1	e8 00 00 00 00	 call	 ?GetSingleton@ioSP2GUIManager@@SAAAV1@XZ ; ioSP2GUIManager::GetSingleton
  001d6	8b c8		 mov	 ecx, eax
  001d8	e8 00 00 00 00	 call	 ?SetMsgBox@ioSP2GUIManager@@QAEXHPAVioWnd@@PBD1@Z ; ioSP2GUIManager::SetMsgBox
$LN105@SetMateria:

; 215  : 		}
; 216  : 	}
; 217  : }

  001dd	e8 00 00 00 00	 call	 __EH_epilog3_GS
  001e2	c2 04 00	 ret	 4
_TEXT	ENDS
;	COMDAT text$x
text$x	SEGMENT
__unwindfunclet$?SetMaterialCode@PetEatWnd@@QAEXH@Z$0:
  00000	8d 8d d4 fe ff
	ff		 lea	 ecx, DWORD PTR $T513305[ebp]
  00006	ff 25 00 00 00
	00		 jmp	 DWORD PTR __imp_??1ioHashString@@QAE@XZ
__ehhandler$?SetMaterialCode@PetEatWnd@@QAEXH@Z:
  0000c	8b 54 24 08	 mov	 edx, DWORD PTR [esp+8]
  00010	8d 42 0c	 lea	 eax, DWORD PTR [edx+12]
  00013	8b 8a d0 fe ff
	ff		 mov	 ecx, DWORD PTR [edx-304]
  00019	33 c8		 xor	 ecx, eax
  0001b	e8 00 00 00 00	 call	 @__security_check_cookie@4
  00020	8b 4a fc	 mov	 ecx, DWORD PTR [edx-4]
  00023	33 c8		 xor	 ecx, eax
  00025	e8 00 00 00 00	 call	 @__security_check_cookie@4
  0002a	b8 00 00 00 00	 mov	 eax, OFFSET __ehfuncinfo$?SetMaterialCode@PetEatWnd@@QAEXH@Z
  0002f	e9 00 00 00 00	 jmp	 ___CxxFrameHandler3
text$x	ENDS
?SetMaterialCode@PetEatWnd@@QAEXH@Z ENDP		; PetEatWnd::SetMaterialCode
PUBLIC	??0?$vector@UNewShopPullDownItem@@V?$allocator@UNewShopPullDownItem@@@std@@@std@@QAE@XZ ; std::vector<NewShopPullDownItem,std::allocator<NewShopPullDownItem> >::vector<NewShopPullDownItem,std::allocator<NewShopPullDownItem> >
; Function compile flags: /Ogsp
; File c:\program files (x86)\microsoft visual studio 10.0\vc\include\vector
;	COMDAT ??0?$vector@UNewShopPullDownItem@@V?$allocator@UNewShopPullDownItem@@@std@@@std@@QAE@XZ
_TEXT	SEGMENT
??0?$vector@UNewShopPullDownItem@@V?$allocator@UNewShopPullDownItem@@@std@@@std@@QAE@XZ PROC ; std::vector<NewShopPullDownItem,std::allocator<NewShopPullDownItem> >::vector<NewShopPullDownItem,std::allocator<NewShopPullDownItem> >, COMDAT
; _this$ = ecx

; 507  : 		{	// construct empty vector

  00000	8b c1		 mov	 eax, ecx
  00002	33 c9		 xor	 ecx, ecx
  00004	89 08		 mov	 DWORD PTR [eax], ecx
  00006	89 48 04	 mov	 DWORD PTR [eax+4], ecx
  00009	89 48 08	 mov	 DWORD PTR [eax+8], ecx

; 508  : 		}

  0000c	c3		 ret	 0
??0?$vector@UNewShopPullDownItem@@V?$allocator@UNewShopPullDownItem@@@std@@@std@@QAE@XZ ENDP ; std::vector<NewShopPullDownItem,std::allocator<NewShopPullDownItem> >::vector<NewShopPullDownItem,std::allocator<NewShopPullDownItem> >
_TEXT	ENDS
PUBLIC	??0?$vector@UtagAlchemicItemInfo@@V?$allocator@UtagAlchemicItemInfo@@@std@@@std@@QAE@XZ ; std::vector<tagAlchemicItemInfo,std::allocator<tagAlchemicItemInfo> >::vector<tagAlchemicItemInfo,std::allocator<tagAlchemicItemInfo> >
; Function compile flags: /Ogsp
;	COMDAT ??0?$vector@UtagAlchemicItemInfo@@V?$allocator@UtagAlchemicItemInfo@@@std@@@std@@QAE@XZ
_TEXT	SEGMENT
??0?$vector@UtagAlchemicItemInfo@@V?$allocator@UtagAlchemicItemInfo@@@std@@@std@@QAE@XZ PROC ; std::vector<tagAlchemicItemInfo,std::allocator<tagAlchemicItemInfo> >::vector<tagAlchemicItemInfo,std::allocator<tagAlchemicItemInfo> >, COMDAT
; _this$ = ecx

; 507  : 		{	// construct empty vector

  00000	8b c1		 mov	 eax, ecx
  00002	33 c9		 xor	 ecx, ecx
  00004	89 08		 mov	 DWORD PTR [eax], ecx
  00006	89 48 04	 mov	 DWORD PTR [eax+4], ecx
  00009	89 48 08	 mov	 DWORD PTR [eax+8], ecx

; 508  : 		}

  0000c	c3		 ret	 0
??0?$vector@UtagAlchemicItemInfo@@V?$allocator@UtagAlchemicItemInfo@@@std@@@std@@QAE@XZ ENDP ; std::vector<tagAlchemicItemInfo,std::allocator<tagAlchemicItemInfo> >::vector<tagAlchemicItemInfo,std::allocator<tagAlchemicItemInfo> >
_TEXT	ENDS
PUBLIC	?begin@?$vector@UtagAlchemicItemInfo@@V?$allocator@UtagAlchemicItemInfo@@@std@@@std@@QAE?AV?$_Vector_iterator@V?$_Vector_val@UtagAlchemicItemInfo@@V?$allocator@UtagAlchemicItemInfo@@@std@@@std@@@2@XZ ; std::vector<tagAlchemicItemInfo,std::allocator<tagAlchemicItemInfo> >::begin
; Function compile flags: /Ogsp
;	COMDAT ?begin@?$vector@UtagAlchemicItemInfo@@V?$allocator@UtagAlchemicItemInfo@@@std@@@std@@QAE?AV?$_Vector_iterator@V?$_Vector_val@UtagAlchemicItemInfo@@V?$allocator@UtagAlchemicItemInfo@@@std@@@std@@@2@XZ
_TEXT	SEGMENT
___$ReturnUdt$ = 8					; size = 4
?begin@?$vector@UtagAlchemicItemInfo@@V?$allocator@UtagAlchemicItemInfo@@@std@@@std@@QAE?AV?$_Vector_iterator@V?$_Vector_val@UtagAlchemicItemInfo@@V?$allocator@UtagAlchemicItemInfo@@@std@@@std@@@2@XZ PROC ; std::vector<tagAlchemicItemInfo,std::allocator<tagAlchemicItemInfo> >::begin, COMDAT
; _this$ = ecx

; 781  : 		{	// return iterator for beginning of mutable sequence

  00000	55		 push	 ebp
  00001	8b ec		 mov	 ebp, esp

; 782  : 		return (iterator(this->_Myfirst, this));

  00003	8b 09		 mov	 ecx, DWORD PTR [ecx]
  00005	8b 45 08	 mov	 eax, DWORD PTR ___$ReturnUdt$[ebp]
  00008	89 08		 mov	 DWORD PTR [eax], ecx

; 783  : 		}

  0000a	5d		 pop	 ebp
  0000b	c2 04 00	 ret	 4
?begin@?$vector@UtagAlchemicItemInfo@@V?$allocator@UtagAlchemicItemInfo@@@std@@@std@@QAE?AV?$_Vector_iterator@V?$_Vector_val@UtagAlchemicItemInfo@@V?$allocator@UtagAlchemicItemInfo@@@std@@@std@@@2@XZ ENDP ; std::vector<tagAlchemicItemInfo,std::allocator<tagAlchemicItemInfo> >::begin
_TEXT	ENDS
PUBLIC	?end@?$vector@UtagAlchemicItemInfo@@V?$allocator@UtagAlchemicItemInfo@@@std@@@std@@QAE?AV?$_Vector_iterator@V?$_Vector_val@UtagAlchemicItemInfo@@V?$allocator@UtagAlchemicItemInfo@@@std@@@std@@@2@XZ ; std::vector<tagAlchemicItemInfo,std::allocator<tagAlchemicItemInfo> >::end
; Function compile flags: /Ogsp
;	COMDAT ?end@?$vector@UtagAlchemicItemInfo@@V?$allocator@UtagAlchemicItemInfo@@@std@@@std@@QAE?AV?$_Vector_iterator@V?$_Vector_val@UtagAlchemicItemInfo@@V?$allocator@UtagAlchemicItemInfo@@@std@@@std@@@2@XZ
_TEXT	SEGMENT
___$ReturnUdt$ = 8					; size = 4
?end@?$vector@UtagAlchemicItemInfo@@V?$allocator@UtagAlchemicItemInfo@@@std@@@std@@QAE?AV?$_Vector_iterator@V?$_Vector_val@UtagAlchemicItemInfo@@V?$allocator@UtagAlchemicItemInfo@@@std@@@std@@@2@XZ PROC ; std::vector<tagAlchemicItemInfo,std::allocator<tagAlchemicItemInfo> >::end, COMDAT
; _this$ = ecx

; 791  : 		{	// return iterator for end of mutable sequence

  00000	55		 push	 ebp
  00001	8b ec		 mov	 ebp, esp

; 792  : 		return (iterator(this->_Mylast, this));

  00003	8b 49 04	 mov	 ecx, DWORD PTR [ecx+4]
  00006	8b 45 08	 mov	 eax, DWORD PTR ___$ReturnUdt$[ebp]
  00009	89 08		 mov	 DWORD PTR [eax], ecx

; 793  : 		}

  0000b	5d		 pop	 ebp
  0000c	c2 04 00	 ret	 4
?end@?$vector@UtagAlchemicItemInfo@@V?$allocator@UtagAlchemicItemInfo@@@std@@@std@@QAE?AV?$_Vector_iterator@V?$_Vector_val@UtagAlchemicItemInfo@@V?$allocator@UtagAlchemicItemInfo@@@std@@@std@@@2@XZ ENDP ; std::vector<tagAlchemicItemInfo,std::allocator<tagAlchemicItemInfo> >::end
_TEXT	ENDS
PUBLIC	??9?$_Vector_const_iterator@V?$_Vector_val@UtagAlchemicItemInfo@@V?$allocator@UtagAlchemicItemInfo@@@std@@@std@@@std@@QBE_NABV01@@Z ; std::_Vector_const_iterator<std::_Vector_val<tagAlchemicItemInfo,std::allocator<tagAlchemicItemInfo> > >::operator!=
; Function compile flags: /Ogsp
;	COMDAT ??9?$_Vector_const_iterator@V?$_Vector_val@UtagAlchemicItemInfo@@V?$allocator@UtagAlchemicItemInfo@@@std@@@std@@@std@@QBE_NABV01@@Z
_TEXT	SEGMENT
__Right$ = 8						; size = 4
??9?$_Vector_const_iterator@V?$_Vector_val@UtagAlchemicItemInfo@@V?$allocator@UtagAlchemicItemInfo@@@std@@@std@@@std@@QBE_NABV01@@Z PROC ; std::_Vector_const_iterator<std::_Vector_val<tagAlchemicItemInfo,std::allocator<tagAlchemicItemInfo> > >::operator!=, COMDAT
; _this$ = ecx

; 207  : 		{	// test for iterator inequality

  00000	55		 push	 ebp
  00001	8b ec		 mov	 ebp, esp

; 208  : 		return (!(*this == _Right));

  00003	8b 01		 mov	 eax, DWORD PTR [ecx]
  00005	8b 55 08	 mov	 edx, DWORD PTR __Right$[ebp]
  00008	33 c9		 xor	 ecx, ecx
  0000a	3b 02		 cmp	 eax, DWORD PTR [edx]
  0000c	0f 95 c0	 setne	 al

; 209  : 		}

  0000f	5d		 pop	 ebp
  00010	c2 04 00	 ret	 4
??9?$_Vector_const_iterator@V?$_Vector_val@UtagAlchemicItemInfo@@V?$allocator@UtagAlchemicItemInfo@@@std@@@std@@@std@@QBE_NABV01@@Z ENDP ; std::_Vector_const_iterator<std::_Vector_val<tagAlchemicItemInfo,std::allocator<tagAlchemicItemInfo> > >::operator!=
_TEXT	ENDS
PUBLIC	?begin@?$vector@UNewShopPullDownItem@@V?$allocator@UNewShopPullDownItem@@@std@@@std@@QAE?AV?$_Vector_iterator@V?$_Vector_val@UNewShopPullDownItem@@V?$allocator@UNewShopPullDownItem@@@std@@@std@@@2@XZ ; std::vector<NewShopPullDownItem,std::allocator<NewShopPullDownItem> >::begin
; Function compile flags: /Ogsp
;	COMDAT ?begin@?$vector@UNewShopPullDownItem@@V?$allocator@UNewShopPullDownItem@@@std@@@std@@QAE?AV?$_Vector_iterator@V?$_Vector_val@UNewShopPullDownItem@@V?$allocator@UNewShopPullDownItem@@@std@@@std@@@2@XZ
_TEXT	SEGMENT
___$ReturnUdt$ = 8					; size = 4
?begin@?$vector@UNewShopPullDownItem@@V?$allocator@UNewShopPullDownItem@@@std@@@std@@QAE?AV?$_Vector_iterator@V?$_Vector_val@UNewShopPullDownItem@@V?$allocator@UNewShopPullDownItem@@@std@@@std@@@2@XZ PROC ; std::vector<NewShopPullDownItem,std::allocator<NewShopPullDownItem> >::begin, COMDAT
; _this$ = ecx

; 781  : 		{	// return iterator for beginning of mutable sequence

  00000	55		 push	 ebp
  00001	8b ec		 mov	 ebp, esp

; 782  : 		return (iterator(this->_Myfirst, this));

  00003	8b 09		 mov	 ecx, DWORD PTR [ecx]
  00005	8b 45 08	 mov	 eax, DWORD PTR ___$ReturnUdt$[ebp]
  00008	89 08		 mov	 DWORD PTR [eax], ecx

; 783  : 		}

  0000a	5d		 pop	 ebp
  0000b	c2 04 00	 ret	 4
?begin@?$vector@UNewShopPullDownItem@@V?$allocator@UNewShopPullDownItem@@@std@@@std@@QAE?AV?$_Vector_iterator@V?$_Vector_val@UNewShopPullDownItem@@V?$allocator@UNewShopPullDownItem@@@std@@@std@@@2@XZ ENDP ; std::vector<NewShopPullDownItem,std::allocator<NewShopPullDownItem> >::begin
_TEXT	ENDS
PUBLIC	?end@?$vector@UNewShopPullDownItem@@V?$allocator@UNewShopPullDownItem@@@std@@@std@@QAE?AV?$_Vector_iterator@V?$_Vector_val@UNewShopPullDownItem@@V?$allocator@UNewShopPullDownItem@@@std@@@std@@@2@XZ ; std::vector<NewShopPullDownItem,std::allocator<NewShopPullDownItem> >::end
; Function compile flags: /Ogsp
;	COMDAT ?end@?$vector@UNewShopPullDownItem@@V?$allocator@UNewShopPullDownItem@@@std@@@std@@QAE?AV?$_Vector_iterator@V?$_Vector_val@UNewShopPullDownItem@@V?$allocator@UNewShopPullDownItem@@@std@@@std@@@2@XZ
_TEXT	SEGMENT
___$ReturnUdt$ = 8					; size = 4
?end@?$vector@UNewShopPullDownItem@@V?$allocator@UNewShopPullDownItem@@@std@@@std@@QAE?AV?$_Vector_iterator@V?$_Vector_val@UNewShopPullDownItem@@V?$allocator@UNewShopPullDownItem@@@std@@@std@@@2@XZ PROC ; std::vector<NewShopPullDownItem,std::allocator<NewShopPullDownItem> >::end, COMDAT
; _this$ = ecx

; 791  : 		{	// return iterator for end of mutable sequence

  00000	55		 push	 ebp
  00001	8b ec		 mov	 ebp, esp

; 792  : 		return (iterator(this->_Mylast, this));

  00003	8b 49 04	 mov	 ecx, DWORD PTR [ecx+4]
  00006	8b 45 08	 mov	 eax, DWORD PTR ___$ReturnUdt$[ebp]
  00009	89 08		 mov	 DWORD PTR [eax], ecx

; 793  : 		}

  0000b	5d		 pop	 ebp
  0000c	c2 04 00	 ret	 4
?end@?$vector@UNewShopPullDownItem@@V?$allocator@UNewShopPullDownItem@@@std@@@std@@QAE?AV?$_Vector_iterator@V?$_Vector_val@UNewShopPullDownItem@@V?$allocator@UNewShopPullDownItem@@@std@@@std@@@2@XZ ENDP ; std::vector<NewShopPullDownItem,std::allocator<NewShopPullDownItem> >::end
_TEXT	ENDS
PUBLIC	?_Make_iter@?$vector@UtagAlchemicItemInfo@@V?$allocator@UtagAlchemicItemInfo@@@std@@@std@@QBE?AV?$_Vector_iterator@V?$_Vector_val@UtagAlchemicItemInfo@@V?$allocator@UtagAlchemicItemInfo@@@std@@@std@@@2@V?$_Vector_const_iterator@V?$_Vector_val@UtagAlchemicItemInfo@@V?$allocator@UtagAlchemicItemInfo@@@std@@@std@@@2@@Z ; std::vector<tagAlchemicItemInfo,std::allocator<tagAlchemicItemInfo> >::_Make_iter
; Function compile flags: /Ogsp
;	COMDAT ?_Make_iter@?$vector@UtagAlchemicItemInfo@@V?$allocator@UtagAlchemicItemInfo@@@std@@@std@@QBE?AV?$_Vector_iterator@V?$_Vector_val@UtagAlchemicItemInfo@@V?$allocator@UtagAlchemicItemInfo@@@std@@@std@@@2@V?$_Vector_const_iterator@V?$_Vector_val@UtagAlchemicItemInfo@@V?$allocator@UtagAlchemicItemInfo@@@std@@@std@@@2@@Z
_TEXT	SEGMENT
___$ReturnUdt$ = 8					; size = 4
__Where$ = 12						; size = 4
?_Make_iter@?$vector@UtagAlchemicItemInfo@@V?$allocator@UtagAlchemicItemInfo@@@std@@@std@@QBE?AV?$_Vector_iterator@V?$_Vector_val@UtagAlchemicItemInfo@@V?$allocator@UtagAlchemicItemInfo@@@std@@@std@@@2@V?$_Vector_const_iterator@V?$_Vector_val@UtagAlchemicItemInfo@@V?$allocator@UtagAlchemicItemInfo@@@std@@@std@@@2@@Z PROC ; std::vector<tagAlchemicItemInfo,std::allocator<tagAlchemicItemInfo> >::_Make_iter, COMDAT
; _this$ = ecx

; 801  : 		{	// make iterator from const_iterator

  00000	55		 push	 ebp
  00001	8b ec		 mov	 ebp, esp

; 802  : 		return (iterator(_Where._Ptr, this));

  00003	8b 45 08	 mov	 eax, DWORD PTR ___$ReturnUdt$[ebp]
  00006	8b 4d 0c	 mov	 ecx, DWORD PTR __Where$[ebp]
  00009	89 08		 mov	 DWORD PTR [eax], ecx

; 803  : 		}

  0000b	5d		 pop	 ebp
  0000c	c2 08 00	 ret	 8
?_Make_iter@?$vector@UtagAlchemicItemInfo@@V?$allocator@UtagAlchemicItemInfo@@@std@@@std@@QBE?AV?$_Vector_iterator@V?$_Vector_val@UtagAlchemicItemInfo@@V?$allocator@UtagAlchemicItemInfo@@@std@@@std@@@2@V?$_Vector_const_iterator@V?$_Vector_val@UtagAlchemicItemInfo@@V?$allocator@UtagAlchemicItemInfo@@@std@@@std@@@2@@Z ENDP ; std::vector<tagAlchemicItemInfo,std::allocator<tagAlchemicItemInfo> >::_Make_iter
_TEXT	ENDS
PUBLIC	?_Make_iter@?$vector@UNewShopPullDownItem@@V?$allocator@UNewShopPullDownItem@@@std@@@std@@QBE?AV?$_Vector_iterator@V?$_Vector_val@UNewShopPullDownItem@@V?$allocator@UNewShopPullDownItem@@@std@@@std@@@2@V?$_Vector_const_iterator@V?$_Vector_val@UNewShopPullDownItem@@V?$allocator@UNewShopPullDownItem@@@std@@@std@@@2@@Z ; std::vector<NewShopPullDownItem,std::allocator<NewShopPullDownItem> >::_Make_iter
; Function compile flags: /Ogsp
;	COMDAT ?_Make_iter@?$vector@UNewShopPullDownItem@@V?$allocator@UNewShopPullDownItem@@@std@@@std@@QBE?AV?$_Vector_iterator@V?$_Vector_val@UNewShopPullDownItem@@V?$allocator@UNewShopPullDownItem@@@std@@@std@@@2@V?$_Vector_const_iterator@V?$_Vector_val@UNewShopPullDownItem@@V?$allocator@UNewShopPullDownItem@@@std@@@std@@@2@@Z
_TEXT	SEGMENT
___$ReturnUdt$ = 8					; size = 4
__Where$ = 12						; size = 4
?_Make_iter@?$vector@UNewShopPullDownItem@@V?$allocator@UNewShopPullDownItem@@@std@@@std@@QBE?AV?$_Vector_iterator@V?$_Vector_val@UNewShopPullDownItem@@V?$allocator@UNewShopPullDownItem@@@std@@@std@@@2@V?$_Vector_const_iterator@V?$_Vector_val@UNewShopPullDownItem@@V?$allocator@UNewShopPullDownItem@@@std@@@std@@@2@@Z PROC ; std::vector<NewShopPullDownItem,std::allocator<NewShopPullDownItem> >::_Make_iter, COMDAT
; _this$ = ecx

; 801  : 		{	// make iterator from const_iterator

  00000	55		 push	 ebp
  00001	8b ec		 mov	 ebp, esp

; 802  : 		return (iterator(_Where._Ptr, this));

  00003	8b 45 08	 mov	 eax, DWORD PTR ___$ReturnUdt$[ebp]
  00006	8b 4d 0c	 mov	 ecx, DWORD PTR __Where$[ebp]
  00009	89 08		 mov	 DWORD PTR [eax], ecx

; 803  : 		}

  0000b	5d		 pop	 ebp
  0000c	c2 08 00	 ret	 8
?_Make_iter@?$vector@UNewShopPullDownItem@@V?$allocator@UNewShopPullDownItem@@@std@@@std@@QBE?AV?$_Vector_iterator@V?$_Vector_val@UNewShopPullDownItem@@V?$allocator@UNewShopPullDownItem@@@std@@@std@@@2@V?$_Vector_const_iterator@V?$_Vector_val@UNewShopPullDownItem@@V?$allocator@UNewShopPullDownItem@@@std@@@std@@@2@@Z ENDP ; std::vector<NewShopPullDownItem,std::allocator<NewShopPullDownItem> >::_Make_iter
_TEXT	ENDS
PUBLIC	??9?$_Vector_const_iterator@V?$_Vector_val@UNewShopPullDownItem@@V?$allocator@UNewShopPullDownItem@@@std@@@std@@@std@@QBE_NABV01@@Z ; std::_Vector_const_iterator<std::_Vector_val<NewShopPullDownItem,std::allocator<NewShopPullDownItem> > >::operator!=
; Function compile flags: /Ogsp
;	COMDAT ??9?$_Vector_const_iterator@V?$_Vector_val@UNewShopPullDownItem@@V?$allocator@UNewShopPullDownItem@@@std@@@std@@@std@@QBE_NABV01@@Z
_TEXT	SEGMENT
__Right$ = 8						; size = 4
??9?$_Vector_const_iterator@V?$_Vector_val@UNewShopPullDownItem@@V?$allocator@UNewShopPullDownItem@@@std@@@std@@@std@@QBE_NABV01@@Z PROC ; std::_Vector_const_iterator<std::_Vector_val<NewShopPullDownItem,std::allocator<NewShopPullDownItem> > >::operator!=, COMDAT
; _this$ = ecx

; 207  : 		{	// test for iterator inequality

  00000	55		 push	 ebp
  00001	8b ec		 mov	 ebp, esp

; 208  : 		return (!(*this == _Right));

  00003	8b 01		 mov	 eax, DWORD PTR [ecx]
  00005	8b 55 08	 mov	 edx, DWORD PTR __Right$[ebp]
  00008	33 c9		 xor	 ecx, ecx
  0000a	3b 02		 cmp	 eax, DWORD PTR [edx]
  0000c	0f 95 c0	 setne	 al

; 209  : 		}

  0000f	5d		 pop	 ebp
  00010	c2 04 00	 ret	 4
??9?$_Vector_const_iterator@V?$_Vector_val@UNewShopPullDownItem@@V?$allocator@UNewShopPullDownItem@@@std@@@std@@@std@@QBE_NABV01@@Z ENDP ; std::_Vector_const_iterator<std::_Vector_val<NewShopPullDownItem,std::allocator<NewShopPullDownItem> > >::operator!=
_TEXT	ENDS
PUBLIC	??$_Cons_val@V?$allocator@UNewShopPullDownItem@@@std@@UNewShopPullDownItem@@AAU3@@std@@YAXAAV?$allocator@UNewShopPullDownItem@@@0@PAUNewShopPullDownItem@@AAU2@@Z ; std::_Cons_val<std::allocator<NewShopPullDownItem>,NewShopPullDownItem,NewShopPullDownItem &>
;	COMDAT xdata$x
; File c:\program files (x86)\microsoft visual studio 10.0\vc\include\utility
xdata$x	SEGMENT
__unwindtable$??$_Cons_val@V?$allocator@UNewShopPullDownItem@@@std@@UNewShopPullDownItem@@AAU3@@std@@YAXAAV?$allocator@UNewShopPullDownItem@@@0@PAUNewShopPullDownItem@@AAU2@@Z DD 0ffffffffH
	DD	FLAT:__unwindfunclet$??$_Cons_val@V?$allocator@UNewShopPullDownItem@@@std@@UNewShopPullDownItem@@AAU3@@std@@YAXAAV?$allocator@UNewShopPullDownItem@@@0@PAUNewShopPullDownItem@@AAU2@@Z$0
__ehfuncinfo$??$_Cons_val@V?$allocator@UNewShopPullDownItem@@@std@@UNewShopPullDownItem@@AAU3@@std@@YAXAAV?$allocator@UNewShopPullDownItem@@@0@PAUNewShopPullDownItem@@AAU2@@Z DD 019930522H
	DD	01H
	DD	FLAT:__unwindtable$??$_Cons_val@V?$allocator@UNewShopPullDownItem@@@std@@UNewShopPullDownItem@@AAU3@@std@@YAXAAV?$allocator@UNewShopPullDownItem@@@0@PAUNewShopPullDownItem@@AAU2@@Z
	DD	2 DUP(00H)
	DD	2 DUP(00H)
	DD	00H
	DD	01H
; Function compile flags: /Ogsp
; File c:\program files (x86)\microsoft visual studio 10.0\vc\include\xmemory
xdata$x	ENDS
;	COMDAT ??$_Cons_val@V?$allocator@UNewShopPullDownItem@@@std@@UNewShopPullDownItem@@AAU3@@std@@YAXAAV?$allocator@UNewShopPullDownItem@@@0@PAUNewShopPullDownItem@@AAU2@@Z
_TEXT	SEGMENT
$T513519 = -16						; size = 4
__$EHRec$ = -12						; size = 12
__Alval$ = 8						; size = 4
__Pdest$ = 12						; size = 4
__Src$ = 16						; size = 4
??$_Cons_val@V?$allocator@UNewShopPullDownItem@@@std@@UNewShopPullDownItem@@AAU3@@std@@YAXAAV?$allocator@UNewShopPullDownItem@@@0@PAUNewShopPullDownItem@@AAU2@@Z PROC ; std::_Cons_val<std::allocator<NewShopPullDownItem>,NewShopPullDownItem,NewShopPullDownItem &>, COMDAT

; 279  : 	{	// construct using allocator

  00000	6a 04		 push	 4
  00002	b8 00 00 00 00	 mov	 eax, __ehhandler$??$_Cons_val@V?$allocator@UNewShopPullDownItem@@@std@@UNewShopPullDownItem@@AAU3@@std@@YAXAAV?$allocator@UNewShopPullDownItem@@@0@PAUNewShopPullDownItem@@AAU2@@Z
  00007	e8 00 00 00 00	 call	 __EH_prolog3

; 280  : 	_Alval.construct(_Pdest, _STD forward<_Ty2>(_Src));

  0000c	8b 4d 0c	 mov	 ecx, DWORD PTR __Pdest$[ebp]
  0000f	89 4d f0	 mov	 DWORD PTR $T513519[ebp], ecx
  00012	83 65 fc 00	 and	 DWORD PTR __$EHRec$[ebp+8], 0
  00016	85 c9		 test	 ecx, ecx
  00018	74 08		 je	 SHORT $LN7@Cons_val
  0001a	ff 75 10	 push	 DWORD PTR __Src$[ebp]
  0001d	e8 00 00 00 00	 call	 ??0NewShopPullDownItem@@QAE@ABU0@@Z
$LN7@Cons_val:

; 281  : 	}

  00022	e8 00 00 00 00	 call	 __EH_epilog3
  00027	c3		 ret	 0
_TEXT	ENDS
;	COMDAT text$x
text$x	SEGMENT
__unwindfunclet$??$_Cons_val@V?$allocator@UNewShopPullDownItem@@@std@@UNewShopPullDownItem@@AAU3@@std@@YAXAAV?$allocator@UNewShopPullDownItem@@@0@PAUNewShopPullDownItem@@AAU2@@Z$0:
  00000	ff 75 0c	 push	 DWORD PTR __Pdest$[ebp]
  00003	ff 75 f0	 push	 DWORD PTR $T513519[ebp]
  00006	e8 00 00 00 00	 call	 ??3@YAXPAX0@Z		; operator delete
  0000b	59		 pop	 ecx
  0000c	59		 pop	 ecx
  0000d	c3		 ret	 0
__ehhandler$??$_Cons_val@V?$allocator@UNewShopPullDownItem@@@std@@UNewShopPullDownItem@@AAU3@@std@@YAXAAV?$allocator@UNewShopPullDownItem@@@0@PAUNewShopPullDownItem@@AAU2@@Z:
  0000e	8b 54 24 08	 mov	 edx, DWORD PTR [esp+8]
  00012	8d 42 0c	 lea	 eax, DWORD PTR [edx+12]
  00015	8b 4a ec	 mov	 ecx, DWORD PTR [edx-20]
  00018	33 c8		 xor	 ecx, eax
  0001a	e8 00 00 00 00	 call	 @__security_check_cookie@4
  0001f	b8 00 00 00 00	 mov	 eax, OFFSET __ehfuncinfo$??$_Cons_val@V?$allocator@UNewShopPullDownItem@@@std@@UNewShopPullDownItem@@AAU3@@std@@YAXAAV?$allocator@UNewShopPullDownItem@@@0@PAUNewShopPullDownItem@@AAU2@@Z
  00024	e9 00 00 00 00	 jmp	 ___CxxFrameHandler3
text$x	ENDS
??$_Cons_val@V?$allocator@UNewShopPullDownItem@@@std@@UNewShopPullDownItem@@AAU3@@std@@YAXAAV?$allocator@UNewShopPullDownItem@@@0@PAUNewShopPullDownItem@@AAU2@@Z ENDP ; std::_Cons_val<std::allocator<NewShopPullDownItem>,NewShopPullDownItem,NewShopPullDownItem &>
PUBLIC	??$_Cons_val@V?$allocator@UtagAlchemicItemInfo@@@std@@UtagAlchemicItemInfo@@AAU3@@std@@YAXAAV?$allocator@UtagAlchemicItemInfo@@@0@PAUtagAlchemicItemInfo@@AAU2@@Z ; std::_Cons_val<std::allocator<tagAlchemicItemInfo>,tagAlchemicItemInfo,tagAlchemicItemInfo &>
;	COMDAT xdata$x
; File c:\program files (x86)\microsoft visual studio 10.0\vc\include\utility
xdata$x	SEGMENT
__unwindtable$??$_Cons_val@V?$allocator@UtagAlchemicItemInfo@@@std@@UtagAlchemicItemInfo@@AAU3@@std@@YAXAAV?$allocator@UtagAlchemicItemInfo@@@0@PAUtagAlchemicItemInfo@@AAU2@@Z DD 0ffffffffH
	DD	FLAT:__unwindfunclet$??$_Cons_val@V?$allocator@UtagAlchemicItemInfo@@@std@@UtagAlchemicItemInfo@@AAU3@@std@@YAXAAV?$allocator@UtagAlchemicItemInfo@@@0@PAUtagAlchemicItemInfo@@AAU2@@Z$0
__ehfuncinfo$??$_Cons_val@V?$allocator@UtagAlchemicItemInfo@@@std@@UtagAlchemicItemInfo@@AAU3@@std@@YAXAAV?$allocator@UtagAlchemicItemInfo@@@0@PAUtagAlchemicItemInfo@@AAU2@@Z DD 019930522H
	DD	01H
	DD	FLAT:__unwindtable$??$_Cons_val@V?$allocator@UtagAlchemicItemInfo@@@std@@UtagAlchemicItemInfo@@AAU3@@std@@YAXAAV?$allocator@UtagAlchemicItemInfo@@@0@PAUtagAlchemicItemInfo@@AAU2@@Z
	DD	2 DUP(00H)
	DD	2 DUP(00H)
	DD	00H
	DD	01H
; Function compile flags: /Ogsp
; File c:\program files (x86)\microsoft visual studio 10.0\vc\include\xmemory
xdata$x	ENDS
;	COMDAT ??$_Cons_val@V?$allocator@UtagAlchemicItemInfo@@@std@@UtagAlchemicItemInfo@@AAU3@@std@@YAXAAV?$allocator@UtagAlchemicItemInfo@@@0@PAUtagAlchemicItemInfo@@AAU2@@Z
_TEXT	SEGMENT
$T513552 = -16						; size = 4
__$EHRec$ = -12						; size = 12
__Alval$ = 8						; size = 4
__Pdest$ = 12						; size = 4
__Src$ = 16						; size = 4
??$_Cons_val@V?$allocator@UtagAlchemicItemInfo@@@std@@UtagAlchemicItemInfo@@AAU3@@std@@YAXAAV?$allocator@UtagAlchemicItemInfo@@@0@PAUtagAlchemicItemInfo@@AAU2@@Z PROC ; std::_Cons_val<std::allocator<tagAlchemicItemInfo>,tagAlchemicItemInfo,tagAlchemicItemInfo &>, COMDAT

; 279  : 	{	// construct using allocator

  00000	6a 04		 push	 4
  00002	b8 00 00 00 00	 mov	 eax, __ehhandler$??$_Cons_val@V?$allocator@UtagAlchemicItemInfo@@@std@@UtagAlchemicItemInfo@@AAU3@@std@@YAXAAV?$allocator@UtagAlchemicItemInfo@@@0@PAUtagAlchemicItemInfo@@AAU2@@Z
  00007	e8 00 00 00 00	 call	 __EH_prolog3

; 280  : 	_Alval.construct(_Pdest, _STD forward<_Ty2>(_Src));

  0000c	8b 4d 0c	 mov	 ecx, DWORD PTR __Pdest$[ebp]
  0000f	89 4d f0	 mov	 DWORD PTR $T513552[ebp], ecx
  00012	83 65 fc 00	 and	 DWORD PTR __$EHRec$[ebp+8], 0
  00016	85 c9		 test	 ecx, ecx
  00018	74 08		 je	 SHORT $LN7@Cons_val@2
  0001a	ff 75 10	 push	 DWORD PTR __Src$[ebp]
  0001d	e8 00 00 00 00	 call	 ??0tagAlchemicItemInfo@@QAE@ABU0@@Z
$LN7@Cons_val@2:

; 281  : 	}

  00022	e8 00 00 00 00	 call	 __EH_epilog3
  00027	c3		 ret	 0
_TEXT	ENDS
;	COMDAT text$x
text$x	SEGMENT
__unwindfunclet$??$_Cons_val@V?$allocator@UtagAlchemicItemInfo@@@std@@UtagAlchemicItemInfo@@AAU3@@std@@YAXAAV?$allocator@UtagAlchemicItemInfo@@@0@PAUtagAlchemicItemInfo@@AAU2@@Z$0:
  00000	ff 75 0c	 push	 DWORD PTR __Pdest$[ebp]
  00003	ff 75 f0	 push	 DWORD PTR $T513552[ebp]
  00006	e8 00 00 00 00	 call	 ??3@YAXPAX0@Z		; operator delete
  0000b	59		 pop	 ecx
  0000c	59		 pop	 ecx
  0000d	c3		 ret	 0
__ehhandler$??$_Cons_val@V?$allocator@UtagAlchemicItemInfo@@@std@@UtagAlchemicItemInfo@@AAU3@@std@@YAXAAV?$allocator@UtagAlchemicItemInfo@@@0@PAUtagAlchemicItemInfo@@AAU2@@Z:
  0000e	8b 54 24 08	 mov	 edx, DWORD PTR [esp+8]
  00012	8d 42 0c	 lea	 eax, DWORD PTR [edx+12]
  00015	8b 4a ec	 mov	 ecx, DWORD PTR [edx-20]
  00018	33 c8		 xor	 ecx, eax
  0001a	e8 00 00 00 00	 call	 @__security_check_cookie@4
  0001f	b8 00 00 00 00	 mov	 eax, OFFSET __ehfuncinfo$??$_Cons_val@V?$allocator@UtagAlchemicItemInfo@@@std@@UtagAlchemicItemInfo@@AAU3@@std@@YAXAAV?$allocator@UtagAlchemicItemInfo@@@0@PAUtagAlchemicItemInfo@@AAU2@@Z
  00024	e9 00 00 00 00	 jmp	 ___CxxFrameHandler3
text$x	ENDS
??$_Cons_val@V?$allocator@UtagAlchemicItemInfo@@@std@@UtagAlchemicItemInfo@@AAU3@@std@@YAXAAV?$allocator@UtagAlchemicItemInfo@@@0@PAUtagAlchemicItemInfo@@AAU2@@Z ENDP ; std::_Cons_val<std::allocator<tagAlchemicItemInfo>,tagAlchemicItemInfo,tagAlchemicItemInfo &>
PUBLIC	??$_Move@PAUtagAlchemicItemInfo@@PAU1@@std@@YAPAUtagAlchemicItemInfo@@PAU1@00@Z ; std::_Move<tagAlchemicItemInfo *,tagAlchemicItemInfo *>
; Function compile flags: /Ogsp
; File c:\program files (x86)\microsoft visual studio 10.0\vc\include\xutility
;	COMDAT ??$_Move@PAUtagAlchemicItemInfo@@PAU1@@std@@YAPAUtagAlchemicItemInfo@@PAU1@00@Z
_TEXT	SEGMENT
__Cat$513570 = -4					; size = 1
__First$ = 8						; size = 4
__Last$ = 12						; size = 4
__Dest$ = 16						; size = 4
??$_Move@PAUtagAlchemicItemInfo@@PAU1@@std@@YAPAUtagAlchemicItemInfo@@PAU1@00@Z PROC ; std::_Move<tagAlchemicItemInfo *,tagAlchemicItemInfo *>, COMDAT

; 2533 : 	{	// move [_First, _Last) to [_Dest, ...), unchecked

  00000	55		 push	 ebp
  00001	8b ec		 mov	 ebp, esp
  00003	51		 push	 ecx

; 2534 : 	return (_Move(_First, _Last,
; 2535 : 		_Dest, _Ptr_cat(_First, _Dest)));

  00004	ff 75 fc	 push	 DWORD PTR __Cat$513570[ebp]
  00007	ff 75 10	 push	 DWORD PTR __Dest$[ebp]
  0000a	ff 75 0c	 push	 DWORD PTR __Last$[ebp]
  0000d	ff 75 08	 push	 DWORD PTR __First$[ebp]
  00010	e8 00 00 00 00	 call	 ??$_Move@PAUtagAlchemicItemInfo@@PAU1@@std@@YAPAUtagAlchemicItemInfo@@PAU1@00U_Nonscalar_ptr_iterator_tag@0@@Z ; std::_Move<tagAlchemicItemInfo *,tagAlchemicItemInfo *>
  00015	83 c4 10	 add	 esp, 16			; 00000010H

; 2536 : 	}

  00018	c9		 leave
  00019	c3		 ret	 0
??$_Move@PAUtagAlchemicItemInfo@@PAU1@@std@@YAPAUtagAlchemicItemInfo@@PAU1@00@Z ENDP ; std::_Move<tagAlchemicItemInfo *,tagAlchemicItemInfo *>
_TEXT	ENDS
PUBLIC	??$_Move@PAUNewShopPullDownItem@@PAU1@@std@@YAPAUNewShopPullDownItem@@PAU1@00@Z ; std::_Move<NewShopPullDownItem *,NewShopPullDownItem *>
; Function compile flags: /Ogsp
;	COMDAT ??$_Move@PAUNewShopPullDownItem@@PAU1@@std@@YAPAUNewShopPullDownItem@@PAU1@00@Z
_TEXT	SEGMENT
__Cat$513577 = -4					; size = 1
__First$ = 8						; size = 4
__Last$ = 12						; size = 4
__Dest$ = 16						; size = 4
??$_Move@PAUNewShopPullDownItem@@PAU1@@std@@YAPAUNewShopPullDownItem@@PAU1@00@Z PROC ; std::_Move<NewShopPullDownItem *,NewShopPullDownItem *>, COMDAT

; 2533 : 	{	// move [_First, _Last) to [_Dest, ...), unchecked

  00000	55		 push	 ebp
  00001	8b ec		 mov	 ebp, esp
  00003	51		 push	 ecx

; 2534 : 	return (_Move(_First, _Last,
; 2535 : 		_Dest, _Ptr_cat(_First, _Dest)));

  00004	ff 75 fc	 push	 DWORD PTR __Cat$513577[ebp]
  00007	ff 75 10	 push	 DWORD PTR __Dest$[ebp]
  0000a	ff 75 0c	 push	 DWORD PTR __Last$[ebp]
  0000d	ff 75 08	 push	 DWORD PTR __First$[ebp]
  00010	e8 00 00 00 00	 call	 ??$_Move@PAUNewShopPullDownItem@@PAU1@@std@@YAPAUNewShopPullDownItem@@PAU1@00U_Nonscalar_ptr_iterator_tag@0@@Z ; std::_Move<NewShopPullDownItem *,NewShopPullDownItem *>
  00015	83 c4 10	 add	 esp, 16			; 00000010H

; 2536 : 	}

  00018	c9		 leave
  00019	c3		 ret	 0
??$_Move@PAUNewShopPullDownItem@@PAU1@@std@@YAPAUNewShopPullDownItem@@PAU1@00@Z ENDP ; std::_Move<NewShopPullDownItem *,NewShopPullDownItem *>
_TEXT	ENDS
PUBLIC	?construct@?$allocator@UNewShopPullDownItem@@@std@@QAEXPAUNewShopPullDownItem@@ABU3@@Z ; std::allocator<NewShopPullDownItem>::construct
; Function compile flags: /Ogsp
; File c:\program files (x86)\microsoft visual studio 10.0\vc\include\xmemory
;	COMDAT ?construct@?$allocator@UNewShopPullDownItem@@@std@@QAEXPAUNewShopPullDownItem@@ABU3@@Z
_TEXT	SEGMENT
__Ptr$ = 8						; size = 4
__Val$ = 12						; size = 4
?construct@?$allocator@UNewShopPullDownItem@@@std@@QAEXPAUNewShopPullDownItem@@ABU3@@Z PROC ; std::allocator<NewShopPullDownItem>::construct, COMDAT
; _this$ = ecx

; 196  : 		{	// construct object at _Ptr with value _Val

  00000	55		 push	 ebp
  00001	8b ec		 mov	 ebp, esp

; 197  : 		_Construct(_Ptr, _Val);

  00003	ff 75 0c	 push	 DWORD PTR __Val$[ebp]
  00006	ff 75 08	 push	 DWORD PTR __Ptr$[ebp]
  00009	e8 00 00 00 00	 call	 ??$_Construct@UNewShopPullDownItem@@ABU1@@std@@YAXPAUNewShopPullDownItem@@ABU1@@Z ; std::_Construct<NewShopPullDownItem,NewShopPullDownItem const &>
  0000e	59		 pop	 ecx
  0000f	59		 pop	 ecx

; 198  : 		}

  00010	5d		 pop	 ebp
  00011	c2 08 00	 ret	 8
?construct@?$allocator@UNewShopPullDownItem@@@std@@QAEXPAUNewShopPullDownItem@@ABU3@@Z ENDP ; std::allocator<NewShopPullDownItem>::construct
_TEXT	ENDS
PUBLIC	?construct@?$allocator@UtagAlchemicItemInfo@@@std@@QAEXPAUtagAlchemicItemInfo@@ABU3@@Z ; std::allocator<tagAlchemicItemInfo>::construct
; Function compile flags: /Ogsp
;	COMDAT ?construct@?$allocator@UtagAlchemicItemInfo@@@std@@QAEXPAUtagAlchemicItemInfo@@ABU3@@Z
_TEXT	SEGMENT
__Ptr$ = 8						; size = 4
__Val$ = 12						; size = 4
?construct@?$allocator@UtagAlchemicItemInfo@@@std@@QAEXPAUtagAlchemicItemInfo@@ABU3@@Z PROC ; std::allocator<tagAlchemicItemInfo>::construct, COMDAT
; _this$ = ecx

; 196  : 		{	// construct object at _Ptr with value _Val

  00000	55		 push	 ebp
  00001	8b ec		 mov	 ebp, esp

; 197  : 		_Construct(_Ptr, _Val);

  00003	ff 75 0c	 push	 DWORD PTR __Val$[ebp]
  00006	ff 75 08	 push	 DWORD PTR __Ptr$[ebp]
  00009	e8 00 00 00 00	 call	 ??$_Construct@UtagAlchemicItemInfo@@ABU1@@std@@YAXPAUtagAlchemicItemInfo@@ABU1@@Z ; std::_Construct<tagAlchemicItemInfo,tagAlchemicItemInfo const &>
  0000e	59		 pop	 ecx
  0000f	59		 pop	 ecx

; 198  : 		}

  00010	5d		 pop	 ebp
  00011	c2 08 00	 ret	 8
?construct@?$allocator@UtagAlchemicItemInfo@@@std@@QAEXPAUtagAlchemicItemInfo@@ABU3@@Z ENDP ; std::allocator<tagAlchemicItemInfo>::construct
_TEXT	ENDS
PUBLIC	?destroy@?$allocator@UNewShopPullDownItem@@@std@@QAEXPAUNewShopPullDownItem@@@Z ; std::allocator<NewShopPullDownItem>::destroy
; Function compile flags: /Ogsp
;	COMDAT ?destroy@?$allocator@UNewShopPullDownItem@@@std@@QAEXPAUNewShopPullDownItem@@@Z
_TEXT	SEGMENT
__Ptr$ = 8						; size = 4
?destroy@?$allocator@UNewShopPullDownItem@@@std@@QAEXPAUNewShopPullDownItem@@@Z PROC ; std::allocator<NewShopPullDownItem>::destroy, COMDAT
; _this$ = ecx

; 212  : 		{	// destroy object at _Ptr

  00000	55		 push	 ebp
  00001	8b ec		 mov	 ebp, esp

; 213  : 		_Destroy(_Ptr);

  00003	8b 4d 08	 mov	 ecx, DWORD PTR __Ptr$[ebp]
  00006	e8 00 00 00 00	 call	 ??1NewShopPullDownItem@@QAE@XZ

; 214  : 		}

  0000b	5d		 pop	 ebp
  0000c	c2 04 00	 ret	 4
?destroy@?$allocator@UNewShopPullDownItem@@@std@@QAEXPAUNewShopPullDownItem@@@Z ENDP ; std::allocator<NewShopPullDownItem>::destroy
_TEXT	ENDS
PUBLIC	?destroy@?$allocator@UtagAlchemicItemInfo@@@std@@QAEXPAUtagAlchemicItemInfo@@@Z ; std::allocator<tagAlchemicItemInfo>::destroy
; Function compile flags: /Ogsp
;	COMDAT ?destroy@?$allocator@UtagAlchemicItemInfo@@@std@@QAEXPAUtagAlchemicItemInfo@@@Z
_TEXT	SEGMENT
__Ptr$ = 8						; size = 4
?destroy@?$allocator@UtagAlchemicItemInfo@@@std@@QAEXPAUtagAlchemicItemInfo@@@Z PROC ; std::allocator<tagAlchemicItemInfo>::destroy, COMDAT
; _this$ = ecx

; 212  : 		{	// destroy object at _Ptr

  00000	55		 push	 ebp
  00001	8b ec		 mov	 ebp, esp

; 213  : 		_Destroy(_Ptr);

  00003	8b 4d 08	 mov	 ecx, DWORD PTR __Ptr$[ebp]
  00006	83 c1 08	 add	 ecx, 8
  00009	ff 15 00 00 00
	00		 call	 DWORD PTR __imp_??1ioHashString@@QAE@XZ

; 214  : 		}

  0000f	5d		 pop	 ebp
  00010	c2 04 00	 ret	 4
?destroy@?$allocator@UtagAlchemicItemInfo@@@std@@QAEXPAUtagAlchemicItemInfo@@@Z ENDP ; std::allocator<tagAlchemicItemInfo>::destroy
_TEXT	ENDS
PUBLIC	??$iter_swap@PAUtagAlchemicItemInfo@@PAU1@@std@@YAXPAUtagAlchemicItemInfo@@0@Z ; std::iter_swap<tagAlchemicItemInfo *,tagAlchemicItemInfo *>
; Function compile flags: /Ogsp
; File c:\program files (x86)\microsoft visual studio 10.0\vc\include\xutility
;	COMDAT ??$iter_swap@PAUtagAlchemicItemInfo@@PAU1@@std@@YAXPAUtagAlchemicItemInfo@@0@Z
_TEXT	SEGMENT
__Left$ = 8						; size = 4
__Right$ = 12						; size = 4
??$iter_swap@PAUtagAlchemicItemInfo@@PAU1@@std@@YAXPAUtagAlchemicItemInfo@@0@Z PROC ; std::iter_swap<tagAlchemicItemInfo *,tagAlchemicItemInfo *>, COMDAT

; 2133 : 	{	// swap *_Left and *_Right

  00000	55		 push	 ebp
  00001	8b ec		 mov	 ebp, esp

; 2135 : 	}

  00003	5d		 pop	 ebp

; 2134 : 	swap(*_Left, *_Right);

  00004	e9 00 00 00 00	 jmp	 ??$swap@UtagAlchemicItemInfo@@@std@@YAXAAUtagAlchemicItemInfo@@0@Z ; std::swap<tagAlchemicItemInfo>
??$iter_swap@PAUtagAlchemicItemInfo@@PAU1@@std@@YAXPAUtagAlchemicItemInfo@@0@Z ENDP ; std::iter_swap<tagAlchemicItemInfo *,tagAlchemicItemInfo *>
_TEXT	ENDS
PUBLIC	??$_Make_heap@PAUtagAlchemicItemInfo@@HU1@VMaterialItemSort@ItemMaterialCompoundWnd@@@std@@YAXPAUtagAlchemicItemInfo@@0VMaterialItemSort@ItemMaterialCompoundWnd@@PAH0@Z ; std::_Make_heap<tagAlchemicItemInfo *,int,tagAlchemicItemInfo,ItemMaterialCompoundWnd::MaterialItemSort>
;	COMDAT xdata$x
; File c:\program files (x86)\microsoft visual studio 10.0\vc\include\xmemory
xdata$x	SEGMENT
__unwindtable$??$_Make_heap@PAUtagAlchemicItemInfo@@HU1@VMaterialItemSort@ItemMaterialCompoundWnd@@@std@@YAXPAUtagAlchemicItemInfo@@0VMaterialItemSort@ItemMaterialCompoundWnd@@PAH0@Z DD 0ffffffffH
	DD	FLAT:__unwindfunclet$??$_Make_heap@PAUtagAlchemicItemInfo@@HU1@VMaterialItemSort@ItemMaterialCompoundWnd@@@std@@YAXPAUtagAlchemicItemInfo@@0VMaterialItemSort@ItemMaterialCompoundWnd@@PAH0@Z$0
__ehfuncinfo$??$_Make_heap@PAUtagAlchemicItemInfo@@HU1@VMaterialItemSort@ItemMaterialCompoundWnd@@@std@@YAXPAUtagAlchemicItemInfo@@0VMaterialItemSort@ItemMaterialCompoundWnd@@PAH0@Z DD 019930522H
	DD	01H
	DD	FLAT:__unwindtable$??$_Make_heap@PAUtagAlchemicItemInfo@@HU1@VMaterialItemSort@ItemMaterialCompoundWnd@@@std@@YAXPAUtagAlchemicItemInfo@@0VMaterialItemSort@ItemMaterialCompoundWnd@@PAH0@Z
	DD	2 DUP(00H)
	DD	2 DUP(00H)
	DD	00H
	DD	01H
; Function compile flags: /Ogsp
; File c:\program files (x86)\microsoft visual studio 10.0\vc\include\algorithm
xdata$x	ENDS
;	COMDAT ??$_Make_heap@PAUtagAlchemicItemInfo@@HU1@VMaterialItemSort@ItemMaterialCompoundWnd@@@std@@YAXPAUtagAlchemicItemInfo@@0VMaterialItemSort@ItemMaterialCompoundWnd@@PAH0@Z
_TEXT	SEGMENT
__Val$511559 = -40					; size = 28
__$EHRec$ = -12						; size = 12
__First$ = 8						; size = 4
__Last$ = 12						; size = 4
__Pred$ = 16						; size = 1
___formal$ = 20						; size = 4
___formal$ = 24						; size = 4
??$_Make_heap@PAUtagAlchemicItemInfo@@HU1@VMaterialItemSort@ItemMaterialCompoundWnd@@@std@@YAXPAUtagAlchemicItemInfo@@0VMaterialItemSort@ItemMaterialCompoundWnd@@PAH0@Z PROC ; std::_Make_heap<tagAlchemicItemInfo *,int,tagAlchemicItemInfo,ItemMaterialCompoundWnd::MaterialItemSort>, COMDAT

; 2658 : 	{	// make nontrivial [_First, _Last) into a heap, using _Pred

  00000	6a 1c		 push	 28			; 0000001cH
  00002	b8 00 00 00 00	 mov	 eax, __ehhandler$??$_Make_heap@PAUtagAlchemicItemInfo@@HU1@VMaterialItemSort@ItemMaterialCompoundWnd@@@std@@YAXPAUtagAlchemicItemInfo@@0VMaterialItemSort@ItemMaterialCompoundWnd@@PAH0@Z
  00007	e8 00 00 00 00	 call	 __EH_prolog3

; 2659 : 	_Diff _Bottom = _Last - _First;

  0000c	8b 45 0c	 mov	 eax, DWORD PTR __Last$[ebp]
  0000f	2b 45 08	 sub	 eax, DWORD PTR __First$[ebp]
  00012	6a 1c		 push	 28			; 0000001cH
  00014	99		 cdq
  00015	59		 pop	 ecx
  00016	f7 f9		 idiv	 ecx
  00018	8b d8		 mov	 ebx, eax

; 2660 : 	for (_Diff _Hole = _Bottom / 2; 0 < _Hole; )

  0001a	99		 cdq
  0001b	2b c2		 sub	 eax, edx
  0001d	8b f0		 mov	 esi, eax
  0001f	d1 fe		 sar	 esi, 1
  00021	85 f6		 test	 esi, esi
  00023	7e 3e		 jle	 SHORT $LN1@Make_heap

; 2659 : 	_Diff _Bottom = _Last - _First;

  00025	8b fe		 mov	 edi, esi
  00027	6b ff 1c	 imul	 edi, 28			; 0000001cH
  0002a	03 7d 08	 add	 edi, DWORD PTR __First$[ebp]
$LN2@Make_heap:

; 2661 : 		{	// reheap top half, bottom to top
; 2662 : 		--_Hole;

  0002d	83 ef 1c	 sub	 edi, 28			; 0000001cH

; 2663 : 		_Ty _Val = _Move(*(_First + _Hole));

  00030	57		 push	 edi
  00031	8d 4d d8	 lea	 ecx, DWORD PTR __Val$511559[ebp]
  00034	4e		 dec	 esi
  00035	e8 00 00 00 00	 call	 ??0tagAlchemicItemInfo@@QAE@ABU0@@Z

; 2664 : 		_Adjust_heap(_First, _Hole, _Bottom,
; 2665 : 			_Move(_Val), _Pred);

  0003a	ff 75 10	 push	 DWORD PTR __Pred$[ebp]
  0003d	83 65 fc 00	 and	 DWORD PTR __$EHRec$[ebp+8], 0
  00041	8d 45 d8	 lea	 eax, DWORD PTR __Val$511559[ebp]
  00044	50		 push	 eax
  00045	53		 push	 ebx
  00046	56		 push	 esi
  00047	ff 75 08	 push	 DWORD PTR __First$[ebp]
  0004a	e8 00 00 00 00	 call	 ??$_Adjust_heap@PAUtagAlchemicItemInfo@@HU1@VMaterialItemSort@ItemMaterialCompoundWnd@@@std@@YAXPAUtagAlchemicItemInfo@@HH$$QAU1@VMaterialItemSort@ItemMaterialCompoundWnd@@@Z ; std::_Adjust_heap<tagAlchemicItemInfo *,int,tagAlchemicItemInfo,ItemMaterialCompoundWnd::MaterialItemSort>

; 2666 : 		}

  0004f	83 4d fc ff	 or	 DWORD PTR __$EHRec$[ebp+8], -1
  00053	83 c4 14	 add	 esp, 20			; 00000014H
  00056	8d 4d e0	 lea	 ecx, DWORD PTR __Val$511559[ebp+8]
  00059	ff 15 00 00 00
	00		 call	 DWORD PTR __imp_??1ioHashString@@QAE@XZ
  0005f	85 f6		 test	 esi, esi
  00061	7f ca		 jg	 SHORT $LN2@Make_heap
$LN1@Make_heap:

; 2667 : 	}

  00063	e8 00 00 00 00	 call	 __EH_epilog3
  00068	c3		 ret	 0
_TEXT	ENDS
;	COMDAT text$x
text$x	SEGMENT
__unwindfunclet$??$_Make_heap@PAUtagAlchemicItemInfo@@HU1@VMaterialItemSort@ItemMaterialCompoundWnd@@@std@@YAXPAUtagAlchemicItemInfo@@0VMaterialItemSort@ItemMaterialCompoundWnd@@PAH0@Z$0:
  00000	8d 4d d8	 lea	 ecx, DWORD PTR __Val$511559[ebp]
  00003	e9 00 00 00 00	 jmp	 ??1tagAlchemicItemInfo@@QAE@XZ
__ehhandler$??$_Make_heap@PAUtagAlchemicItemInfo@@HU1@VMaterialItemSort@ItemMaterialCompoundWnd@@@std@@YAXPAUtagAlchemicItemInfo@@0VMaterialItemSort@ItemMaterialCompoundWnd@@PAH0@Z:
  00008	8b 54 24 08	 mov	 edx, DWORD PTR [esp+8]
  0000c	8d 42 0c	 lea	 eax, DWORD PTR [edx+12]
  0000f	8b 4a d4	 mov	 ecx, DWORD PTR [edx-44]
  00012	33 c8		 xor	 ecx, eax
  00014	e8 00 00 00 00	 call	 @__security_check_cookie@4
  00019	b8 00 00 00 00	 mov	 eax, OFFSET __ehfuncinfo$??$_Make_heap@PAUtagAlchemicItemInfo@@HU1@VMaterialItemSort@ItemMaterialCompoundWnd@@@std@@YAXPAUtagAlchemicItemInfo@@0VMaterialItemSort@ItemMaterialCompoundWnd@@PAH0@Z
  0001e	e9 00 00 00 00	 jmp	 ___CxxFrameHandler3
text$x	ENDS
??$_Make_heap@PAUtagAlchemicItemInfo@@HU1@VMaterialItemSort@ItemMaterialCompoundWnd@@@std@@YAXPAUtagAlchemicItemInfo@@0VMaterialItemSort@ItemMaterialCompoundWnd@@PAH0@Z ENDP ; std::_Make_heap<tagAlchemicItemInfo *,int,tagAlchemicItemInfo,ItemMaterialCompoundWnd::MaterialItemSort>
PUBLIC	??$_Insertion_sort1@PAUtagAlchemicItemInfo@@VMaterialItemSort@ItemMaterialCompoundWnd@@U1@@std@@YAXPAUtagAlchemicItemInfo@@0VMaterialItemSort@ItemMaterialCompoundWnd@@0@Z ; std::_Insertion_sort1<tagAlchemicItemInfo *,ItemMaterialCompoundWnd::MaterialItemSort,tagAlchemicItemInfo>
;	COMDAT xdata$x
; File c:\program files (x86)\microsoft visual studio 10.0\vc\include\xmemory
xdata$x	SEGMENT
__unwindtable$??$_Insertion_sort1@PAUtagAlchemicItemInfo@@VMaterialItemSort@ItemMaterialCompoundWnd@@U1@@std@@YAXPAUtagAlchemicItemInfo@@0VMaterialItemSort@ItemMaterialCompoundWnd@@0@Z DD 0ffffffffH
	DD	FLAT:__unwindfunclet$??$_Insertion_sort1@PAUtagAlchemicItemInfo@@VMaterialItemSort@ItemMaterialCompoundWnd@@U1@@std@@YAXPAUtagAlchemicItemInfo@@0VMaterialItemSort@ItemMaterialCompoundWnd@@0@Z$0
__ehfuncinfo$??$_Insertion_sort1@PAUtagAlchemicItemInfo@@VMaterialItemSort@ItemMaterialCompoundWnd@@U1@@std@@YAXPAUtagAlchemicItemInfo@@0VMaterialItemSort@ItemMaterialCompoundWnd@@0@Z DD 019930522H
	DD	01H
	DD	FLAT:__unwindtable$??$_Insertion_sort1@PAUtagAlchemicItemInfo@@VMaterialItemSort@ItemMaterialCompoundWnd@@U1@@std@@YAXPAUtagAlchemicItemInfo@@0VMaterialItemSort@ItemMaterialCompoundWnd@@0@Z
	DD	2 DUP(00H)
	DD	2 DUP(00H)
	DD	00H
	DD	01H
; Function compile flags: /Ogsp
; File c:\program files (x86)\microsoft visual studio 10.0\vc\include\algorithm
xdata$x	ENDS
;	COMDAT ??$_Insertion_sort1@PAUtagAlchemicItemInfo@@VMaterialItemSort@ItemMaterialCompoundWnd@@U1@@std@@YAXPAUtagAlchemicItemInfo@@0VMaterialItemSort@ItemMaterialCompoundWnd@@0@Z
_TEXT	SEGMENT
__Val$511594 = -40					; size = 28
__$EHRec$ = -12						; size = 12
__Next1$511593 = 8					; size = 4
__First$ = 8						; size = 4
__Cat$513663 = 12					; size = 1
__Last$ = 12						; size = 4
__Pred$ = 16						; size = 1
___formal$ = 20						; size = 4
??$_Insertion_sort1@PAUtagAlchemicItemInfo@@VMaterialItemSort@ItemMaterialCompoundWnd@@U1@@std@@YAXPAUtagAlchemicItemInfo@@0VMaterialItemSort@ItemMaterialCompoundWnd@@0@Z PROC ; std::_Insertion_sort1<tagAlchemicItemInfo *,ItemMaterialCompoundWnd::MaterialItemSort,tagAlchemicItemInfo>, COMDAT

; 3650 : 	{	// insertion sort [_First, _Last), using _Pred

  00000	6a 1c		 push	 28			; 0000001cH
  00002	b8 00 00 00 00	 mov	 eax, __ehhandler$??$_Insertion_sort1@PAUtagAlchemicItemInfo@@VMaterialItemSort@ItemMaterialCompoundWnd@@U1@@std@@YAXPAUtagAlchemicItemInfo@@0VMaterialItemSort@ItemMaterialCompoundWnd@@0@Z
  00007	e8 00 00 00 00	 call	 __EH_prolog3

; 3651 : 	if (_First != _Last)

  0000c	8b 5d 08	 mov	 ebx, DWORD PTR __First$[ebp]
  0000f	3b 5d 0c	 cmp	 ebx, DWORD PTR __Last$[ebp]
  00012	0f 84 80 00 00
	00		 je	 $LN6@Insertion_

; 3652 : 		for (_BidIt _Next = _First; ++_Next != _Last; )

  00018	8d 7b 1c	 lea	 edi, DWORD PTR [ebx+28]
  0001b	eb 76		 jmp	 SHORT $LN43@Insertion_
$LL7@Insertion_:

; 3653 : 			{	// order next element
; 3654 : 			_BidIt _Next1 = _Next;
; 3655 : 			_Ty _Val = _Move(*_Next);

  0001d	57		 push	 edi
  0001e	8d 4d d8	 lea	 ecx, DWORD PTR __Val$511594[ebp]
  00021	89 7d 08	 mov	 DWORD PTR __Next1$511593[ebp], edi
  00024	e8 00 00 00 00	 call	 ??0tagAlchemicItemInfo@@QAE@ABU0@@Z

; 3656 : 
; 3657 : 			if (_DEBUG_LT_PRED(_Pred, _Val, *_First))

  00029	8b 43 04	 mov	 eax, DWORD PTR [ebx+4]
  0002c	83 65 fc 00	 and	 DWORD PTR __$EHRec$[ebp+8], 0
  00030	39 45 dc	 cmp	 DWORD PTR __Val$511594[ebp+4], eax
  00033	7f 09		 jg	 SHORT $LN40@Insertion_
  00035	75 1c		 jne	 SHORT $LN5@Insertion_
  00037	8b 45 d8	 mov	 eax, DWORD PTR __Val$511594[ebp]
  0003a	3b 03		 cmp	 eax, DWORD PTR [ebx]
  0003c	7d 15		 jge	 SHORT $LN5@Insertion_
$LN40@Insertion_:

; 3658 : 				{	// found new earliest element, move to front
; 3659 : 				_Move_backward(_First, _Next, ++_Next1);

  0003e	ff 75 0c	 push	 DWORD PTR __Cat$513663[ebp]
  00041	8d 47 1c	 lea	 eax, DWORD PTR [edi+28]
  00044	50		 push	 eax
  00045	57		 push	 edi
  00046	53		 push	 ebx
  00047	e8 00 00 00 00	 call	 ??$_Move_backward@PAUtagAlchemicItemInfo@@PAU1@@std@@YAPAUtagAlchemicItemInfo@@PAU1@00U_Nonscalar_ptr_iterator_tag@0@@Z ; std::_Move_backward<tagAlchemicItemInfo *,tagAlchemicItemInfo *>
  0004c	83 c4 10	 add	 esp, 16			; 00000010H

; 3660 : 				*_First = _Move(_Val);

  0004f	8b cb		 mov	 ecx, ebx

; 3661 : 				}
; 3662 : 			else

  00051	eb 27		 jmp	 SHORT $LN44@Insertion_
$LN5@Insertion_:

; 3663 : 				{	// look for insertion point after first
; 3664 : 				for (_BidIt _First1 = _Next1;

  00053	8b f7		 mov	 esi, edi
$LL3@Insertion_:

; 3665 : 					_DEBUG_LT_PRED(_Pred, _Val, *--_First1);
; 3666 : 					_Next1 = _First1)

  00055	8b 46 e8	 mov	 eax, DWORD PTR [esi-24]
  00058	83 ee 1c	 sub	 esi, 28			; 0000001cH
  0005b	39 45 dc	 cmp	 DWORD PTR __Val$511594[ebp+4], eax
  0005e	7f 09		 jg	 SHORT $LN41@Insertion_
  00060	75 15		 jne	 SHORT $LN25@Insertion_
  00062	8b 45 d8	 mov	 eax, DWORD PTR __Val$511594[ebp]
  00065	3b 06		 cmp	 eax, DWORD PTR [esi]
  00067	7d 0e		 jge	 SHORT $LN25@Insertion_
$LN41@Insertion_:

; 3667 : 					*_Next1 = _Move(*_First1);	// move hole down

  00069	8b 4d 08	 mov	 ecx, DWORD PTR __Next1$511593[ebp]
  0006c	56		 push	 esi
  0006d	e8 00 00 00 00	 call	 ??4tagAlchemicItemInfo@@QAEAAU0@ABU0@@Z
  00072	89 75 08	 mov	 DWORD PTR __Next1$511593[ebp], esi
  00075	eb de		 jmp	 SHORT $LL3@Insertion_

; 3665 : 					_DEBUG_LT_PRED(_Pred, _Val, *--_First1);
; 3666 : 					_Next1 = _First1)

$LN25@Insertion_:

; 3668 : 				*_Next1 = _Move(_Val);	// insert element in hole

  00077	8b 4d 08	 mov	 ecx, DWORD PTR __Next1$511593[ebp]
$LN44@Insertion_:
  0007a	8d 45 d8	 lea	 eax, DWORD PTR __Val$511594[ebp]
  0007d	50		 push	 eax
  0007e	e8 00 00 00 00	 call	 ??4tagAlchemicItemInfo@@QAEAAU0@ABU0@@Z

; 3669 : 				}
; 3670 : 			}

  00083	83 4d fc ff	 or	 DWORD PTR __$EHRec$[ebp+8], -1
  00087	8d 4d e0	 lea	 ecx, DWORD PTR __Val$511594[ebp+8]
  0008a	ff 15 00 00 00
	00		 call	 DWORD PTR __imp_??1ioHashString@@QAE@XZ
  00090	83 c7 1c	 add	 edi, 28			; 0000001cH
$LN43@Insertion_:

; 3652 : 		for (_BidIt _Next = _First; ++_Next != _Last; )

  00093	3b 7d 0c	 cmp	 edi, DWORD PTR __Last$[ebp]
  00096	75 85		 jne	 SHORT $LL7@Insertion_
$LN6@Insertion_:

; 3671 : 	}

  00098	e8 00 00 00 00	 call	 __EH_epilog3
  0009d	c3		 ret	 0
_TEXT	ENDS
;	COMDAT text$x
text$x	SEGMENT
__unwindfunclet$??$_Insertion_sort1@PAUtagAlchemicItemInfo@@VMaterialItemSort@ItemMaterialCompoundWnd@@U1@@std@@YAXPAUtagAlchemicItemInfo@@0VMaterialItemSort@ItemMaterialCompoundWnd@@0@Z$0:
  00000	8d 4d d8	 lea	 ecx, DWORD PTR __Val$511594[ebp]
  00003	e9 00 00 00 00	 jmp	 ??1tagAlchemicItemInfo@@QAE@XZ
__ehhandler$??$_Insertion_sort1@PAUtagAlchemicItemInfo@@VMaterialItemSort@ItemMaterialCompoundWnd@@U1@@std@@YAXPAUtagAlchemicItemInfo@@0VMaterialItemSort@ItemMaterialCompoundWnd@@0@Z:
  00008	8b 54 24 08	 mov	 edx, DWORD PTR [esp+8]
  0000c	8d 42 0c	 lea	 eax, DWORD PTR [edx+12]
  0000f	8b 4a d4	 mov	 ecx, DWORD PTR [edx-44]
  00012	33 c8		 xor	 ecx, eax
  00014	e8 00 00 00 00	 call	 @__security_check_cookie@4
  00019	b8 00 00 00 00	 mov	 eax, OFFSET __ehfuncinfo$??$_Insertion_sort1@PAUtagAlchemicItemInfo@@VMaterialItemSort@ItemMaterialCompoundWnd@@U1@@std@@YAXPAUtagAlchemicItemInfo@@0VMaterialItemSort@ItemMaterialCompoundWnd@@0@Z
  0001e	e9 00 00 00 00	 jmp	 ___CxxFrameHandler3
text$x	ENDS
??$_Insertion_sort1@PAUtagAlchemicItemInfo@@VMaterialItemSort@ItemMaterialCompoundWnd@@U1@@std@@YAXPAUtagAlchemicItemInfo@@0VMaterialItemSort@ItemMaterialCompoundWnd@@0@Z ENDP ; std::_Insertion_sort1<tagAlchemicItemInfo *,ItemMaterialCompoundWnd::MaterialItemSort,tagAlchemicItemInfo>
PUBLIC	??$_Cons_val@V?$allocator@UNewShopPullDownItem@@@std@@UNewShopPullDownItem@@U3@@std@@YAXAAV?$allocator@UNewShopPullDownItem@@@0@PAUNewShopPullDownItem@@$$QAU2@@Z ; std::_Cons_val<std::allocator<NewShopPullDownItem>,NewShopPullDownItem,NewShopPullDownItem>
;	COMDAT xdata$x
; File c:\program files (x86)\microsoft visual studio 10.0\vc\include\utility
xdata$x	SEGMENT
__unwindtable$??$_Cons_val@V?$allocator@UNewShopPullDownItem@@@std@@UNewShopPullDownItem@@U3@@std@@YAXAAV?$allocator@UNewShopPullDownItem@@@0@PAUNewShopPullDownItem@@$$QAU2@@Z DD 0ffffffffH
	DD	FLAT:__unwindfunclet$??$_Cons_val@V?$allocator@UNewShopPullDownItem@@@std@@UNewShopPullDownItem@@U3@@std@@YAXAAV?$allocator@UNewShopPullDownItem@@@0@PAUNewShopPullDownItem@@$$QAU2@@Z$0
__ehfuncinfo$??$_Cons_val@V?$allocator@UNewShopPullDownItem@@@std@@UNewShopPullDownItem@@U3@@std@@YAXAAV?$allocator@UNewShopPullDownItem@@@0@PAUNewShopPullDownItem@@$$QAU2@@Z DD 019930522H
	DD	01H
	DD	FLAT:__unwindtable$??$_Cons_val@V?$allocator@UNewShopPullDownItem@@@std@@UNewShopPullDownItem@@U3@@std@@YAXAAV?$allocator@UNewShopPullDownItem@@@0@PAUNewShopPullDownItem@@$$QAU2@@Z
	DD	2 DUP(00H)
	DD	2 DUP(00H)
	DD	00H
	DD	01H
; Function compile flags: /Ogsp
; File c:\program files (x86)\microsoft visual studio 10.0\vc\include\xmemory
xdata$x	ENDS
;	COMDAT ??$_Cons_val@V?$allocator@UNewShopPullDownItem@@@std@@UNewShopPullDownItem@@U3@@std@@YAXAAV?$allocator@UNewShopPullDownItem@@@0@PAUNewShopPullDownItem@@$$QAU2@@Z
_TEXT	SEGMENT
$T513718 = -16						; size = 4
__$EHRec$ = -12						; size = 12
__Alval$ = 8						; size = 4
__Pdest$ = 12						; size = 4
__Src$ = 16						; size = 4
??$_Cons_val@V?$allocator@UNewShopPullDownItem@@@std@@UNewShopPullDownItem@@U3@@std@@YAXAAV?$allocator@UNewShopPullDownItem@@@0@PAUNewShopPullDownItem@@$$QAU2@@Z PROC ; std::_Cons_val<std::allocator<NewShopPullDownItem>,NewShopPullDownItem,NewShopPullDownItem>, COMDAT

; 279  : 	{	// construct using allocator

  00000	6a 04		 push	 4
  00002	b8 00 00 00 00	 mov	 eax, __ehhandler$??$_Cons_val@V?$allocator@UNewShopPullDownItem@@@std@@UNewShopPullDownItem@@U3@@std@@YAXAAV?$allocator@UNewShopPullDownItem@@@0@PAUNewShopPullDownItem@@$$QAU2@@Z
  00007	e8 00 00 00 00	 call	 __EH_prolog3

; 280  : 	_Alval.construct(_Pdest, _STD forward<_Ty2>(_Src));

  0000c	8b 4d 0c	 mov	 ecx, DWORD PTR __Pdest$[ebp]
  0000f	89 4d f0	 mov	 DWORD PTR $T513718[ebp], ecx
  00012	83 65 fc 00	 and	 DWORD PTR __$EHRec$[ebp+8], 0
  00016	85 c9		 test	 ecx, ecx
  00018	74 08		 je	 SHORT $LN7@Cons_val@3
  0001a	ff 75 10	 push	 DWORD PTR __Src$[ebp]
  0001d	e8 00 00 00 00	 call	 ??0NewShopPullDownItem@@QAE@ABU0@@Z
$LN7@Cons_val@3:

; 281  : 	}

  00022	e8 00 00 00 00	 call	 __EH_epilog3
  00027	c3		 ret	 0
_TEXT	ENDS
;	COMDAT text$x
text$x	SEGMENT
__unwindfunclet$??$_Cons_val@V?$allocator@UNewShopPullDownItem@@@std@@UNewShopPullDownItem@@U3@@std@@YAXAAV?$allocator@UNewShopPullDownItem@@@0@PAUNewShopPullDownItem@@$$QAU2@@Z$0:
  00000	ff 75 0c	 push	 DWORD PTR __Pdest$[ebp]
  00003	ff 75 f0	 push	 DWORD PTR $T513718[ebp]
  00006	e8 00 00 00 00	 call	 ??3@YAXPAX0@Z		; operator delete
  0000b	59		 pop	 ecx
  0000c	59		 pop	 ecx
  0000d	c3		 ret	 0
__ehhandler$??$_Cons_val@V?$allocator@UNewShopPullDownItem@@@std@@UNewShopPullDownItem@@U3@@std@@YAXAAV?$allocator@UNewShopPullDownItem@@@0@PAUNewShopPullDownItem@@$$QAU2@@Z:
  0000e	8b 54 24 08	 mov	 edx, DWORD PTR [esp+8]
  00012	8d 42 0c	 lea	 eax, DWORD PTR [edx+12]
  00015	8b 4a ec	 mov	 ecx, DWORD PTR [edx-20]
  00018	33 c8		 xor	 ecx, eax
  0001a	e8 00 00 00 00	 call	 @__security_check_cookie@4
  0001f	b8 00 00 00 00	 mov	 eax, OFFSET __ehfuncinfo$??$_Cons_val@V?$allocator@UNewShopPullDownItem@@@std@@UNewShopPullDownItem@@U3@@std@@YAXAAV?$allocator@UNewShopPullDownItem@@@0@PAUNewShopPullDownItem@@$$QAU2@@Z
  00024	e9 00 00 00 00	 jmp	 ___CxxFrameHandler3
text$x	ENDS
??$_Cons_val@V?$allocator@UNewShopPullDownItem@@@std@@UNewShopPullDownItem@@U3@@std@@YAXAAV?$allocator@UNewShopPullDownItem@@@0@PAUNewShopPullDownItem@@$$QAU2@@Z ENDP ; std::_Cons_val<std::allocator<NewShopPullDownItem>,NewShopPullDownItem,NewShopPullDownItem>
PUBLIC	??$_Cons_val@V?$allocator@UtagAlchemicItemInfo@@@std@@UtagAlchemicItemInfo@@U3@@std@@YAXAAV?$allocator@UtagAlchemicItemInfo@@@0@PAUtagAlchemicItemInfo@@$$QAU2@@Z ; std::_Cons_val<std::allocator<tagAlchemicItemInfo>,tagAlchemicItemInfo,tagAlchemicItemInfo>
;	COMDAT xdata$x
; File c:\program files (x86)\microsoft visual studio 10.0\vc\include\utility
xdata$x	SEGMENT
__unwindtable$??$_Cons_val@V?$allocator@UtagAlchemicItemInfo@@@std@@UtagAlchemicItemInfo@@U3@@std@@YAXAAV?$allocator@UtagAlchemicItemInfo@@@0@PAUtagAlchemicItemInfo@@$$QAU2@@Z DD 0ffffffffH
	DD	FLAT:__unwindfunclet$??$_Cons_val@V?$allocator@UtagAlchemicItemInfo@@@std@@UtagAlchemicItemInfo@@U3@@std@@YAXAAV?$allocator@UtagAlchemicItemInfo@@@0@PAUtagAlchemicItemInfo@@$$QAU2@@Z$0
__ehfuncinfo$??$_Cons_val@V?$allocator@UtagAlchemicItemInfo@@@std@@UtagAlchemicItemInfo@@U3@@std@@YAXAAV?$allocator@UtagAlchemicItemInfo@@@0@PAUtagAlchemicItemInfo@@$$QAU2@@Z DD 019930522H
	DD	01H
	DD	FLAT:__unwindtable$??$_Cons_val@V?$allocator@UtagAlchemicItemInfo@@@std@@UtagAlchemicItemInfo@@U3@@std@@YAXAAV?$allocator@UtagAlchemicItemInfo@@@0@PAUtagAlchemicItemInfo@@$$QAU2@@Z
	DD	2 DUP(00H)
	DD	2 DUP(00H)
	DD	00H
	DD	01H
; Function compile flags: /Ogsp
; File c:\program files (x86)\microsoft visual studio 10.0\vc\include\xmemory
xdata$x	ENDS
;	COMDAT ??$_Cons_val@V?$allocator@UtagAlchemicItemInfo@@@std@@UtagAlchemicItemInfo@@U3@@std@@YAXAAV?$allocator@UtagAlchemicItemInfo@@@0@PAUtagAlchemicItemInfo@@$$QAU2@@Z
_TEXT	SEGMENT
$T513752 = -16						; size = 4
__$EHRec$ = -12						; size = 12
__Alval$ = 8						; size = 4
__Pdest$ = 12						; size = 4
__Src$ = 16						; size = 4
??$_Cons_val@V?$allocator@UtagAlchemicItemInfo@@@std@@UtagAlchemicItemInfo@@U3@@std@@YAXAAV?$allocator@UtagAlchemicItemInfo@@@0@PAUtagAlchemicItemInfo@@$$QAU2@@Z PROC ; std::_Cons_val<std::allocator<tagAlchemicItemInfo>,tagAlchemicItemInfo,tagAlchemicItemInfo>, COMDAT

; 279  : 	{	// construct using allocator

  00000	6a 04		 push	 4
  00002	b8 00 00 00 00	 mov	 eax, __ehhandler$??$_Cons_val@V?$allocator@UtagAlchemicItemInfo@@@std@@UtagAlchemicItemInfo@@U3@@std@@YAXAAV?$allocator@UtagAlchemicItemInfo@@@0@PAUtagAlchemicItemInfo@@$$QAU2@@Z
  00007	e8 00 00 00 00	 call	 __EH_prolog3

; 280  : 	_Alval.construct(_Pdest, _STD forward<_Ty2>(_Src));

  0000c	8b 4d 0c	 mov	 ecx, DWORD PTR __Pdest$[ebp]
  0000f	89 4d f0	 mov	 DWORD PTR $T513752[ebp], ecx
  00012	83 65 fc 00	 and	 DWORD PTR __$EHRec$[ebp+8], 0
  00016	85 c9		 test	 ecx, ecx
  00018	74 08		 je	 SHORT $LN7@Cons_val@4
  0001a	ff 75 10	 push	 DWORD PTR __Src$[ebp]
  0001d	e8 00 00 00 00	 call	 ??0tagAlchemicItemInfo@@QAE@ABU0@@Z
$LN7@Cons_val@4:

; 281  : 	}

  00022	e8 00 00 00 00	 call	 __EH_epilog3
  00027	c3		 ret	 0
_TEXT	ENDS
;	COMDAT text$x
text$x	SEGMENT
__unwindfunclet$??$_Cons_val@V?$allocator@UtagAlchemicItemInfo@@@std@@UtagAlchemicItemInfo@@U3@@std@@YAXAAV?$allocator@UtagAlchemicItemInfo@@@0@PAUtagAlchemicItemInfo@@$$QAU2@@Z$0:
  00000	ff 75 0c	 push	 DWORD PTR __Pdest$[ebp]
  00003	ff 75 f0	 push	 DWORD PTR $T513752[ebp]
  00006	e8 00 00 00 00	 call	 ??3@YAXPAX0@Z		; operator delete
  0000b	59		 pop	 ecx
  0000c	59		 pop	 ecx
  0000d	c3		 ret	 0
__ehhandler$??$_Cons_val@V?$allocator@UtagAlchemicItemInfo@@@std@@UtagAlchemicItemInfo@@U3@@std@@YAXAAV?$allocator@UtagAlchemicItemInfo@@@0@PAUtagAlchemicItemInfo@@$$QAU2@@Z:
  0000e	8b 54 24 08	 mov	 edx, DWORD PTR [esp+8]
  00012	8d 42 0c	 lea	 eax, DWORD PTR [edx+12]
  00015	8b 4a ec	 mov	 ecx, DWORD PTR [edx-20]
  00018	33 c8		 xor	 ecx, eax
  0001a	e8 00 00 00 00	 call	 @__security_check_cookie@4
  0001f	b8 00 00 00 00	 mov	 eax, OFFSET __ehfuncinfo$??$_Cons_val@V?$allocator@UtagAlchemicItemInfo@@@std@@UtagAlchemicItemInfo@@U3@@std@@YAXAAV?$allocator@UtagAlchemicItemInfo@@@0@PAUtagAlchemicItemInfo@@$$QAU2@@Z
  00024	e9 00 00 00 00	 jmp	 ___CxxFrameHandler3
text$x	ENDS
??$_Cons_val@V?$allocator@UtagAlchemicItemInfo@@@std@@UtagAlchemicItemInfo@@U3@@std@@YAXAAV?$allocator@UtagAlchemicItemInfo@@@0@PAUtagAlchemicItemInfo@@$$QAU2@@Z ENDP ; std::_Cons_val<std::allocator<tagAlchemicItemInfo>,tagAlchemicItemInfo,tagAlchemicItemInfo>
PUBLIC	??$_Med3@PAUtagAlchemicItemInfo@@VMaterialItemSort@ItemMaterialCompoundWnd@@@std@@YAXPAUtagAlchemicItemInfo@@00VMaterialItemSort@ItemMaterialCompoundWnd@@@Z ; std::_Med3<tagAlchemicItemInfo *,ItemMaterialCompoundWnd::MaterialItemSort>
; Function compile flags: /Ogsp
; File c:\program files (x86)\microsoft visual studio 10.0\vc\include\algorithm
;	COMDAT ??$_Med3@PAUtagAlchemicItemInfo@@VMaterialItemSort@ItemMaterialCompoundWnd@@@std@@YAXPAUtagAlchemicItemInfo@@00VMaterialItemSort@ItemMaterialCompoundWnd@@@Z
_TEXT	SEGMENT
__First$ = 8						; size = 4
__Mid$ = 12						; size = 4
__Last$ = 16						; size = 4
__Pred$ = 20						; size = 1
??$_Med3@PAUtagAlchemicItemInfo@@VMaterialItemSort@ItemMaterialCompoundWnd@@@std@@YAXPAUtagAlchemicItemInfo@@00VMaterialItemSort@ItemMaterialCompoundWnd@@@Z PROC ; std::_Med3<tagAlchemicItemInfo *,ItemMaterialCompoundWnd::MaterialItemSort>, COMDAT

; 3683 : 	{	// sort median of three elements to middle

  00000	55		 push	 ebp
  00001	8b ec		 mov	 ebp, esp
  00003	56		 push	 esi

; 3684 : 	if (_DEBUG_LT_PRED(_Pred, *_Mid, *_First))

  00004	8b 75 0c	 mov	 esi, DWORD PTR __Mid$[ebp]
  00007	8b 46 04	 mov	 eax, DWORD PTR [esi+4]
  0000a	57		 push	 edi
  0000b	8b 7d 08	 mov	 edi, DWORD PTR __First$[ebp]
  0000e	8b 4f 04	 mov	 ecx, DWORD PTR [edi+4]
  00011	3b c1		 cmp	 eax, ecx
  00013	7f 08		 jg	 SHORT $LN27@Med3
  00015	75 0f		 jne	 SHORT $LN11@Med3
  00017	8b 06		 mov	 eax, DWORD PTR [esi]
  00019	3b 07		 cmp	 eax, DWORD PTR [edi]
  0001b	7d 09		 jge	 SHORT $LN11@Med3
$LN27@Med3:

; 3685 : 		_STD iter_swap(_Mid, _First);

  0001d	57		 push	 edi
  0001e	56		 push	 esi
  0001f	e8 00 00 00 00	 call	 ??$swap@UtagAlchemicItemInfo@@@std@@YAXAAUtagAlchemicItemInfo@@0@Z ; std::swap<tagAlchemicItemInfo>
  00024	59		 pop	 ecx
  00025	59		 pop	 ecx
$LN11@Med3:

; 3686 : 	if (_DEBUG_LT_PRED(_Pred, *_Last, *_Mid))

  00026	8b 45 10	 mov	 eax, DWORD PTR __Last$[ebp]
  00029	8b 48 04	 mov	 ecx, DWORD PTR [eax+4]
  0002c	8b 56 04	 mov	 edx, DWORD PTR [esi+4]
  0002f	3b ca		 cmp	 ecx, edx
  00031	7f 08		 jg	 SHORT $LN28@Med3
  00033	75 0f		 jne	 SHORT $LN18@Med3
  00035	8b 08		 mov	 ecx, DWORD PTR [eax]
  00037	3b 0e		 cmp	 ecx, DWORD PTR [esi]
  00039	7d 09		 jge	 SHORT $LN18@Med3
$LN28@Med3:

; 3687 : 		_STD iter_swap(_Last, _Mid);

  0003b	56		 push	 esi
  0003c	50		 push	 eax
  0003d	e8 00 00 00 00	 call	 ??$swap@UtagAlchemicItemInfo@@@std@@YAXAAUtagAlchemicItemInfo@@0@Z ; std::swap<tagAlchemicItemInfo>
  00042	59		 pop	 ecx
  00043	59		 pop	 ecx
$LN18@Med3:

; 3688 : 	if (_DEBUG_LT_PRED(_Pred, *_Mid, *_First))

  00044	8b 46 04	 mov	 eax, DWORD PTR [esi+4]
  00047	8b 4f 04	 mov	 ecx, DWORD PTR [edi+4]
  0004a	3b c1		 cmp	 eax, ecx
  0004c	7f 08		 jg	 SHORT $LN29@Med3
  0004e	75 0f		 jne	 SHORT $LN25@Med3
  00050	8b 06		 mov	 eax, DWORD PTR [esi]
  00052	3b 07		 cmp	 eax, DWORD PTR [edi]
  00054	7d 09		 jge	 SHORT $LN25@Med3
$LN29@Med3:

; 3689 : 		_STD iter_swap(_Mid, _First);

  00056	57		 push	 edi
  00057	56		 push	 esi
  00058	e8 00 00 00 00	 call	 ??$swap@UtagAlchemicItemInfo@@@std@@YAXAAUtagAlchemicItemInfo@@0@Z ; std::swap<tagAlchemicItemInfo>
  0005d	59		 pop	 ecx
  0005e	59		 pop	 ecx
$LN25@Med3:
  0005f	5f		 pop	 edi
  00060	5e		 pop	 esi

; 3690 : 	}

  00061	5d		 pop	 ebp
  00062	c3		 ret	 0
??$_Med3@PAUtagAlchemicItemInfo@@VMaterialItemSort@ItemMaterialCompoundWnd@@@std@@YAXPAUtagAlchemicItemInfo@@00VMaterialItemSort@ItemMaterialCompoundWnd@@@Z ENDP ; std::_Med3<tagAlchemicItemInfo *,ItemMaterialCompoundWnd::MaterialItemSort>
_TEXT	ENDS
PUBLIC	??$_Pop_heap_0@PAUtagAlchemicItemInfo@@U1@VMaterialItemSort@ItemMaterialCompoundWnd@@@std@@YAXPAUtagAlchemicItemInfo@@0VMaterialItemSort@ItemMaterialCompoundWnd@@0@Z ; std::_Pop_heap_0<tagAlchemicItemInfo *,tagAlchemicItemInfo,ItemMaterialCompoundWnd::MaterialItemSort>
;	COMDAT xdata$x
; File c:\program files (x86)\microsoft visual studio 10.0\vc\include\xmemory
xdata$x	SEGMENT
__unwindtable$??$_Pop_heap_0@PAUtagAlchemicItemInfo@@U1@VMaterialItemSort@ItemMaterialCompoundWnd@@@std@@YAXPAUtagAlchemicItemInfo@@0VMaterialItemSort@ItemMaterialCompoundWnd@@0@Z DD 0ffffffffH
	DD	FLAT:__unwindfunclet$??$_Pop_heap_0@PAUtagAlchemicItemInfo@@U1@VMaterialItemSort@ItemMaterialCompoundWnd@@@std@@YAXPAUtagAlchemicItemInfo@@0VMaterialItemSort@ItemMaterialCompoundWnd@@0@Z$0
__ehfuncinfo$??$_Pop_heap_0@PAUtagAlchemicItemInfo@@U1@VMaterialItemSort@ItemMaterialCompoundWnd@@@std@@YAXPAUtagAlchemicItemInfo@@0VMaterialItemSort@ItemMaterialCompoundWnd@@0@Z DD 019930522H
	DD	01H
	DD	FLAT:__unwindtable$??$_Pop_heap_0@PAUtagAlchemicItemInfo@@U1@VMaterialItemSort@ItemMaterialCompoundWnd@@@std@@YAXPAUtagAlchemicItemInfo@@0VMaterialItemSort@ItemMaterialCompoundWnd@@0@Z
	DD	2 DUP(00H)
	DD	2 DUP(00H)
	DD	00H
	DD	01H
; Function compile flags: /Ogsp
; File c:\program files (x86)\microsoft visual studio 10.0\vc\include\algorithm
xdata$x	ENDS
;	COMDAT ??$_Pop_heap_0@PAUtagAlchemicItemInfo@@U1@VMaterialItemSort@ItemMaterialCompoundWnd@@@std@@YAXPAUtagAlchemicItemInfo@@0VMaterialItemSort@ItemMaterialCompoundWnd@@0@Z
_TEXT	SEGMENT
__Val$ = -40						; size = 28
__$EHRec$ = -12						; size = 12
__First$ = 8						; size = 4
__Last$ = 12						; size = 4
__Pred$ = 16						; size = 1
___formal$ = 20						; size = 4
??$_Pop_heap_0@PAUtagAlchemicItemInfo@@U1@VMaterialItemSort@ItemMaterialCompoundWnd@@@std@@YAXPAUtagAlchemicItemInfo@@0VMaterialItemSort@ItemMaterialCompoundWnd@@0@Z PROC ; std::_Pop_heap_0<tagAlchemicItemInfo *,tagAlchemicItemInfo,ItemMaterialCompoundWnd::MaterialItemSort>, COMDAT

; 2601 : 	{	// pop *_First to *(_Last - 1) and reheap, using _Pred

  00000	6a 1c		 push	 28			; 0000001cH
  00002	b8 00 00 00 00	 mov	 eax, __ehhandler$??$_Pop_heap_0@PAUtagAlchemicItemInfo@@U1@VMaterialItemSort@ItemMaterialCompoundWnd@@@std@@YAXPAUtagAlchemicItemInfo@@0VMaterialItemSort@ItemMaterialCompoundWnd@@0@Z
  00007	e8 00 00 00 00	 call	 __EH_prolog3

; 2602 : 	_Ty _Val = _Move(*(_Last - 1));

  0000c	8b 75 0c	 mov	 esi, DWORD PTR __Last$[ebp]
  0000f	83 c6 e4	 add	 esi, -28		; ffffffe4H
  00012	56		 push	 esi
  00013	8d 4d d8	 lea	 ecx, DWORD PTR __Val$[ebp]
  00016	e8 00 00 00 00	 call	 ??0tagAlchemicItemInfo@@QAE@ABU0@@Z
  0001b	83 65 fc 00	 and	 DWORD PTR __$EHRec$[ebp+8], 0

; 2603 : 	_Pop_heap(_First, _Last - 1, _Last - 1,
; 2604 : 		_Move(_Val), _Pred, _Dist_type(_First));

  0001f	6a 00		 push	 0
  00021	ff 75 10	 push	 DWORD PTR __Pred$[ebp]
  00024	8d 45 d8	 lea	 eax, DWORD PTR __Val$[ebp]
  00027	50		 push	 eax
  00028	56		 push	 esi
  00029	56		 push	 esi
  0002a	ff 75 08	 push	 DWORD PTR __First$[ebp]
  0002d	e8 00 00 00 00	 call	 ??$_Pop_heap@PAUtagAlchemicItemInfo@@HU1@VMaterialItemSort@ItemMaterialCompoundWnd@@@std@@YAXPAUtagAlchemicItemInfo@@00$$QAU1@VMaterialItemSort@ItemMaterialCompoundWnd@@PAH@Z ; std::_Pop_heap<tagAlchemicItemInfo *,int,tagAlchemicItemInfo,ItemMaterialCompoundWnd::MaterialItemSort>

; 2605 : 	}

  00032	83 4d fc ff	 or	 DWORD PTR __$EHRec$[ebp+8], -1
  00036	83 c4 18	 add	 esp, 24			; 00000018H
  00039	8d 4d e0	 lea	 ecx, DWORD PTR __Val$[ebp+8]
  0003c	ff 15 00 00 00
	00		 call	 DWORD PTR __imp_??1ioHashString@@QAE@XZ
  00042	e8 00 00 00 00	 call	 __EH_epilog3
  00047	c3		 ret	 0
_TEXT	ENDS
;	COMDAT text$x
text$x	SEGMENT
__unwindfunclet$??$_Pop_heap_0@PAUtagAlchemicItemInfo@@U1@VMaterialItemSort@ItemMaterialCompoundWnd@@@std@@YAXPAUtagAlchemicItemInfo@@0VMaterialItemSort@ItemMaterialCompoundWnd@@0@Z$0:
  00000	8d 4d d8	 lea	 ecx, DWORD PTR __Val$[ebp]
  00003	e9 00 00 00 00	 jmp	 ??1tagAlchemicItemInfo@@QAE@XZ
__ehhandler$??$_Pop_heap_0@PAUtagAlchemicItemInfo@@U1@VMaterialItemSort@ItemMaterialCompoundWnd@@@std@@YAXPAUtagAlchemicItemInfo@@0VMaterialItemSort@ItemMaterialCompoundWnd@@0@Z:
  00008	8b 54 24 08	 mov	 edx, DWORD PTR [esp+8]
  0000c	8d 42 0c	 lea	 eax, DWORD PTR [edx+12]
  0000f	8b 4a d4	 mov	 ecx, DWORD PTR [edx-44]
  00012	33 c8		 xor	 ecx, eax
  00014	e8 00 00 00 00	 call	 @__security_check_cookie@4
  00019	b8 00 00 00 00	 mov	 eax, OFFSET __ehfuncinfo$??$_Pop_heap_0@PAUtagAlchemicItemInfo@@U1@VMaterialItemSort@ItemMaterialCompoundWnd@@@std@@YAXPAUtagAlchemicItemInfo@@0VMaterialItemSort@ItemMaterialCompoundWnd@@0@Z
  0001e	e9 00 00 00 00	 jmp	 ___CxxFrameHandler3
text$x	ENDS
??$_Pop_heap_0@PAUtagAlchemicItemInfo@@U1@VMaterialItemSort@ItemMaterialCompoundWnd@@@std@@YAXPAUtagAlchemicItemInfo@@0VMaterialItemSort@ItemMaterialCompoundWnd@@0@Z ENDP ; std::_Pop_heap_0<tagAlchemicItemInfo *,tagAlchemicItemInfo,ItemMaterialCompoundWnd::MaterialItemSort>
PUBLIC	??$_Cons_val@V?$allocator@UNewShopPullDownItem@@@std@@UNewShopPullDownItem@@ABU3@@std@@YAXAAV?$allocator@UNewShopPullDownItem@@@0@PAUNewShopPullDownItem@@ABU2@@Z ; std::_Cons_val<std::allocator<NewShopPullDownItem>,NewShopPullDownItem,NewShopPullDownItem const &>
; Function compile flags: /Ogsp
; File c:\program files (x86)\microsoft visual studio 10.0\vc\include\xmemory
;	COMDAT ??$_Cons_val@V?$allocator@UNewShopPullDownItem@@@std@@UNewShopPullDownItem@@ABU3@@std@@YAXAAV?$allocator@UNewShopPullDownItem@@@0@PAUNewShopPullDownItem@@ABU2@@Z
_TEXT	SEGMENT
__Alval$ = 8						; size = 4
__Pdest$ = 12						; size = 4
__Src$ = 16						; size = 4
??$_Cons_val@V?$allocator@UNewShopPullDownItem@@@std@@UNewShopPullDownItem@@ABU3@@std@@YAXAAV?$allocator@UNewShopPullDownItem@@@0@PAUNewShopPullDownItem@@ABU2@@Z PROC ; std::_Cons_val<std::allocator<NewShopPullDownItem>,NewShopPullDownItem,NewShopPullDownItem const &>, COMDAT

; 279  : 	{	// construct using allocator

  00000	55		 push	 ebp
  00001	8b ec		 mov	 ebp, esp

; 280  : 	_Alval.construct(_Pdest, _STD forward<_Ty2>(_Src));

  00003	ff 75 10	 push	 DWORD PTR __Src$[ebp]
  00006	ff 75 0c	 push	 DWORD PTR __Pdest$[ebp]
  00009	e8 00 00 00 00	 call	 ??$_Construct@UNewShopPullDownItem@@ABU1@@std@@YAXPAUNewShopPullDownItem@@ABU1@@Z ; std::_Construct<NewShopPullDownItem,NewShopPullDownItem const &>
  0000e	59		 pop	 ecx
  0000f	59		 pop	 ecx

; 281  : 	}

  00010	5d		 pop	 ebp
  00011	c3		 ret	 0
??$_Cons_val@V?$allocator@UNewShopPullDownItem@@@std@@UNewShopPullDownItem@@ABU3@@std@@YAXAAV?$allocator@UNewShopPullDownItem@@@0@PAUNewShopPullDownItem@@ABU2@@Z ENDP ; std::_Cons_val<std::allocator<NewShopPullDownItem>,NewShopPullDownItem,NewShopPullDownItem const &>
_TEXT	ENDS
PUBLIC	??$_Cons_val@V?$allocator@UtagAlchemicItemInfo@@@std@@UtagAlchemicItemInfo@@ABU3@@std@@YAXAAV?$allocator@UtagAlchemicItemInfo@@@0@PAUtagAlchemicItemInfo@@ABU2@@Z ; std::_Cons_val<std::allocator<tagAlchemicItemInfo>,tagAlchemicItemInfo,tagAlchemicItemInfo const &>
; Function compile flags: /Ogsp
;	COMDAT ??$_Cons_val@V?$allocator@UtagAlchemicItemInfo@@@std@@UtagAlchemicItemInfo@@ABU3@@std@@YAXAAV?$allocator@UtagAlchemicItemInfo@@@0@PAUtagAlchemicItemInfo@@ABU2@@Z
_TEXT	SEGMENT
__Alval$ = 8						; size = 4
__Pdest$ = 12						; size = 4
__Src$ = 16						; size = 4
??$_Cons_val@V?$allocator@UtagAlchemicItemInfo@@@std@@UtagAlchemicItemInfo@@ABU3@@std@@YAXAAV?$allocator@UtagAlchemicItemInfo@@@0@PAUtagAlchemicItemInfo@@ABU2@@Z PROC ; std::_Cons_val<std::allocator<tagAlchemicItemInfo>,tagAlchemicItemInfo,tagAlchemicItemInfo const &>, COMDAT

; 279  : 	{	// construct using allocator

  00000	55		 push	 ebp
  00001	8b ec		 mov	 ebp, esp

; 280  : 	_Alval.construct(_Pdest, _STD forward<_Ty2>(_Src));

  00003	ff 75 10	 push	 DWORD PTR __Src$[ebp]
  00006	ff 75 0c	 push	 DWORD PTR __Pdest$[ebp]
  00009	e8 00 00 00 00	 call	 ??$_Construct@UtagAlchemicItemInfo@@ABU1@@std@@YAXPAUtagAlchemicItemInfo@@ABU1@@Z ; std::_Construct<tagAlchemicItemInfo,tagAlchemicItemInfo const &>
  0000e	59		 pop	 ecx
  0000f	59		 pop	 ecx

; 281  : 	}

  00010	5d		 pop	 ebp
  00011	c3		 ret	 0
??$_Cons_val@V?$allocator@UtagAlchemicItemInfo@@@std@@UtagAlchemicItemInfo@@ABU3@@std@@YAXAAV?$allocator@UtagAlchemicItemInfo@@@0@PAUtagAlchemicItemInfo@@ABU2@@Z ENDP ; std::_Cons_val<std::allocator<tagAlchemicItemInfo>,tagAlchemicItemInfo,tagAlchemicItemInfo const &>
_TEXT	ENDS
PUBLIC	??$make_heap@PAUtagAlchemicItemInfo@@VMaterialItemSort@ItemMaterialCompoundWnd@@@std@@YAXPAUtagAlchemicItemInfo@@0VMaterialItemSort@ItemMaterialCompoundWnd@@@Z ; std::make_heap<tagAlchemicItemInfo *,ItemMaterialCompoundWnd::MaterialItemSort>
; Function compile flags: /Ogsp
; File c:\program files (x86)\microsoft visual studio 10.0\vc\include\algorithm
;	COMDAT ??$make_heap@PAUtagAlchemicItemInfo@@VMaterialItemSort@ItemMaterialCompoundWnd@@@std@@YAXPAUtagAlchemicItemInfo@@0VMaterialItemSort@ItemMaterialCompoundWnd@@@Z
_TEXT	SEGMENT
__First$ = 8						; size = 4
__Last$ = 12						; size = 4
__Pred$ = 16						; size = 1
??$make_heap@PAUtagAlchemicItemInfo@@VMaterialItemSort@ItemMaterialCompoundWnd@@@std@@YAXPAUtagAlchemicItemInfo@@0VMaterialItemSort@ItemMaterialCompoundWnd@@@Z PROC ; std::make_heap<tagAlchemicItemInfo *,ItemMaterialCompoundWnd::MaterialItemSort>, COMDAT

; 2672 : 	{	// make [_First, _Last) into a heap, using _Pred

  00000	55		 push	 ebp
  00001	8b ec		 mov	 ebp, esp

; 2673 : 	_DEBUG_RANGE(_First, _Last);
; 2674 : 	_DEBUG_POINTER(_Pred);
; 2675 : 	if (1 < _Last - _First)

  00003	8b 45 0c	 mov	 eax, DWORD PTR __Last$[ebp]
  00006	2b 45 08	 sub	 eax, DWORD PTR __First$[ebp]
  00009	6a 1c		 push	 28			; 0000001cH
  0000b	99		 cdq
  0000c	59		 pop	 ecx
  0000d	f7 f9		 idiv	 ecx
  0000f	83 f8 01	 cmp	 eax, 1
  00012	7e 15		 jle	 SHORT $LN1@make_heap

; 2676 : 		_Make_heap(_Unchecked(_First), _Unchecked(_Last), _Pred,
; 2677 : 			_Dist_type(_First), _Val_type(_First));

  00014	6a 00		 push	 0
  00016	6a 00		 push	 0
  00018	ff 75 10	 push	 DWORD PTR __Pred$[ebp]
  0001b	ff 75 0c	 push	 DWORD PTR __Last$[ebp]
  0001e	ff 75 08	 push	 DWORD PTR __First$[ebp]
  00021	e8 00 00 00 00	 call	 ??$_Make_heap@PAUtagAlchemicItemInfo@@HU1@VMaterialItemSort@ItemMaterialCompoundWnd@@@std@@YAXPAUtagAlchemicItemInfo@@0VMaterialItemSort@ItemMaterialCompoundWnd@@PAH0@Z ; std::_Make_heap<tagAlchemicItemInfo *,int,tagAlchemicItemInfo,ItemMaterialCompoundWnd::MaterialItemSort>
  00026	83 c4 14	 add	 esp, 20			; 00000014H
$LN1@make_heap:

; 2678 : 	}

  00029	5d		 pop	 ebp
  0002a	c3		 ret	 0
??$make_heap@PAUtagAlchemicItemInfo@@VMaterialItemSort@ItemMaterialCompoundWnd@@@std@@YAXPAUtagAlchemicItemInfo@@0VMaterialItemSort@ItemMaterialCompoundWnd@@@Z ENDP ; std::make_heap<tagAlchemicItemInfo *,ItemMaterialCompoundWnd::MaterialItemSort>
_TEXT	ENDS
PUBLIC	??$_Insertion_sort@PAUtagAlchemicItemInfo@@VMaterialItemSort@ItemMaterialCompoundWnd@@@std@@YAXPAUtagAlchemicItemInfo@@0VMaterialItemSort@ItemMaterialCompoundWnd@@@Z ; std::_Insertion_sort<tagAlchemicItemInfo *,ItemMaterialCompoundWnd::MaterialItemSort>
; Function compile flags: /Ogsp
;	COMDAT ??$_Insertion_sort@PAUtagAlchemicItemInfo@@VMaterialItemSort@ItemMaterialCompoundWnd@@@std@@YAXPAUtagAlchemicItemInfo@@0VMaterialItemSort@ItemMaterialCompoundWnd@@@Z
_TEXT	SEGMENT
__First$ = 8						; size = 4
__Last$ = 12						; size = 4
__Pred$ = 16						; size = 1
??$_Insertion_sort@PAUtagAlchemicItemInfo@@VMaterialItemSort@ItemMaterialCompoundWnd@@@std@@YAXPAUtagAlchemicItemInfo@@0VMaterialItemSort@ItemMaterialCompoundWnd@@@Z PROC ; std::_Insertion_sort<tagAlchemicItemInfo *,ItemMaterialCompoundWnd::MaterialItemSort>, COMDAT

; 3676 : 	{	// insertion sort [_First, _Last), using _Pred

  00000	55		 push	 ebp
  00001	8b ec		 mov	 ebp, esp

; 3677 : 	_Insertion_sort1(_First, _Last, _Pred, _Val_type(_First));

  00003	6a 00		 push	 0
  00005	ff 75 10	 push	 DWORD PTR __Pred$[ebp]
  00008	ff 75 0c	 push	 DWORD PTR __Last$[ebp]
  0000b	ff 75 08	 push	 DWORD PTR __First$[ebp]
  0000e	e8 00 00 00 00	 call	 ??$_Insertion_sort1@PAUtagAlchemicItemInfo@@VMaterialItemSort@ItemMaterialCompoundWnd@@U1@@std@@YAXPAUtagAlchemicItemInfo@@0VMaterialItemSort@ItemMaterialCompoundWnd@@0@Z ; std::_Insertion_sort1<tagAlchemicItemInfo *,ItemMaterialCompoundWnd::MaterialItemSort,tagAlchemicItemInfo>
  00013	83 c4 10	 add	 esp, 16			; 00000010H

; 3678 : 	}

  00016	5d		 pop	 ebp
  00017	c3		 ret	 0
??$_Insertion_sort@PAUtagAlchemicItemInfo@@VMaterialItemSort@ItemMaterialCompoundWnd@@@std@@YAXPAUtagAlchemicItemInfo@@0VMaterialItemSort@ItemMaterialCompoundWnd@@@Z ENDP ; std::_Insertion_sort<tagAlchemicItemInfo *,ItemMaterialCompoundWnd::MaterialItemSort>
_TEXT	ENDS
PUBLIC	??$_Dest_val@V?$allocator@UNewShopPullDownItem@@@std@@UNewShopPullDownItem@@@std@@YAXAAV?$allocator@UNewShopPullDownItem@@@0@PAUNewShopPullDownItem@@@Z ; std::_Dest_val<std::allocator<NewShopPullDownItem>,NewShopPullDownItem>
; Function compile flags: /Ogsp
; File c:\program files (x86)\microsoft visual studio 10.0\vc\include\xmemory
;	COMDAT ??$_Dest_val@V?$allocator@UNewShopPullDownItem@@@std@@UNewShopPullDownItem@@@std@@YAXAAV?$allocator@UNewShopPullDownItem@@@0@PAUNewShopPullDownItem@@@Z
_TEXT	SEGMENT
__Alval$ = 8						; size = 4
__Pdest$ = 12						; size = 4
??$_Dest_val@V?$allocator@UNewShopPullDownItem@@@std@@UNewShopPullDownItem@@@std@@YAXAAV?$allocator@UNewShopPullDownItem@@@0@PAUNewShopPullDownItem@@@Z PROC ; std::_Dest_val<std::allocator<NewShopPullDownItem>,NewShopPullDownItem>, COMDAT

; 286  : 	{	// destroy using allocator

  00000	55		 push	 ebp
  00001	8b ec		 mov	 ebp, esp

; 287  : 	_Alval.destroy(_Pdest);

  00003	8b 4d 0c	 mov	 ecx, DWORD PTR __Pdest$[ebp]

; 288  : 	}

  00006	5d		 pop	 ebp

; 287  : 	_Alval.destroy(_Pdest);

  00007	e9 00 00 00 00	 jmp	 ??1NewShopPullDownItem@@QAE@XZ
??$_Dest_val@V?$allocator@UNewShopPullDownItem@@@std@@UNewShopPullDownItem@@@std@@YAXAAV?$allocator@UNewShopPullDownItem@@@0@PAUNewShopPullDownItem@@@Z ENDP ; std::_Dest_val<std::allocator<NewShopPullDownItem>,NewShopPullDownItem>
_TEXT	ENDS
PUBLIC	??$_Dest_val@V?$allocator@UtagAlchemicItemInfo@@@std@@UtagAlchemicItemInfo@@@std@@YAXAAV?$allocator@UtagAlchemicItemInfo@@@0@PAUtagAlchemicItemInfo@@@Z ; std::_Dest_val<std::allocator<tagAlchemicItemInfo>,tagAlchemicItemInfo>
; Function compile flags: /Ogsp
;	COMDAT ??$_Dest_val@V?$allocator@UtagAlchemicItemInfo@@@std@@UtagAlchemicItemInfo@@@std@@YAXAAV?$allocator@UtagAlchemicItemInfo@@@0@PAUtagAlchemicItemInfo@@@Z
_TEXT	SEGMENT
__Alval$ = 8						; size = 4
__Pdest$ = 12						; size = 4
??$_Dest_val@V?$allocator@UtagAlchemicItemInfo@@@std@@UtagAlchemicItemInfo@@@std@@YAXAAV?$allocator@UtagAlchemicItemInfo@@@0@PAUtagAlchemicItemInfo@@@Z PROC ; std::_Dest_val<std::allocator<tagAlchemicItemInfo>,tagAlchemicItemInfo>, COMDAT

; 286  : 	{	// destroy using allocator

  00000	55		 push	 ebp
  00001	8b ec		 mov	 ebp, esp

; 287  : 	_Alval.destroy(_Pdest);

  00003	8b 4d 0c	 mov	 ecx, DWORD PTR __Pdest$[ebp]
  00006	83 c1 08	 add	 ecx, 8

; 288  : 	}

  00009	5d		 pop	 ebp

; 287  : 	_Alval.destroy(_Pdest);

  0000a	ff 25 00 00 00
	00		 jmp	 DWORD PTR __imp_??1ioHashString@@QAE@XZ
??$_Dest_val@V?$allocator@UtagAlchemicItemInfo@@@std@@UtagAlchemicItemInfo@@@std@@YAXAAV?$allocator@UtagAlchemicItemInfo@@@0@PAUtagAlchemicItemInfo@@@Z ENDP ; std::_Dest_val<std::allocator<tagAlchemicItemInfo>,tagAlchemicItemInfo>
_TEXT	ENDS
PUBLIC	??$_Uninit_move@PAUtagAlchemicItemInfo@@PAU1@V?$allocator@UtagAlchemicItemInfo@@@std@@U1@@std@@YAPAUtagAlchemicItemInfo@@PAU1@00AAV?$allocator@UtagAlchemicItemInfo@@@0@0U_Nonscalar_ptr_iterator_tag@0@@Z ; std::_Uninit_move<tagAlchemicItemInfo *,tagAlchemicItemInfo *,std::allocator<tagAlchemicItemInfo>,tagAlchemicItemInfo>
EXTRN	__EH_prolog3_catch:PROC
;	COMDAT xdata$x
xdata$x	SEGMENT
__catchsym$??$_Uninit_move@PAUtagAlchemicItemInfo@@PAU1@V?$allocator@UtagAlchemicItemInfo@@@std@@U1@@std@@YAPAUtagAlchemicItemInfo@@PAU1@00AAV?$allocator@UtagAlchemicItemInfo@@@0@0U_Nonscalar_ptr_iterator_tag@0@@Z$3 DD 040H
	DD	00H
	DD	00H
	DD	FLAT:__catch$??$_Uninit_move@PAUtagAlchemicItemInfo@@PAU1@V?$allocator@UtagAlchemicItemInfo@@@std@@U1@@std@@YAPAUtagAlchemicItemInfo@@PAU1@00AAV?$allocator@UtagAlchemicItemInfo@@@0@0U_Nonscalar_ptr_iterator_tag@0@@Z$0
__unwindtable$??$_Uninit_move@PAUtagAlchemicItemInfo@@PAU1@V?$allocator@UtagAlchemicItemInfo@@@std@@U1@@std@@YAPAUtagAlchemicItemInfo@@PAU1@00AAV?$allocator@UtagAlchemicItemInfo@@@0@0U_Nonscalar_ptr_iterator_tag@0@@Z DD 0ffffffffH
	DD	00H
	DD	0ffffffffH
	DD	00H
__tryblocktable$??$_Uninit_move@PAUtagAlchemicItemInfo@@PAU1@V?$allocator@UtagAlchemicItemInfo@@@std@@U1@@std@@YAPAUtagAlchemicItemInfo@@PAU1@00AAV?$allocator@UtagAlchemicItemInfo@@@0@0U_Nonscalar_ptr_iterator_tag@0@@Z DD 00H
	DD	00H
	DD	01H
	DD	01H
	DD	FLAT:__catchsym$??$_Uninit_move@PAUtagAlchemicItemInfo@@PAU1@V?$allocator@UtagAlchemicItemInfo@@@std@@U1@@std@@YAPAUtagAlchemicItemInfo@@PAU1@00AAV?$allocator@UtagAlchemicItemInfo@@@0@0U_Nonscalar_ptr_iterator_tag@0@@Z$3
__ehfuncinfo$??$_Uninit_move@PAUtagAlchemicItemInfo@@PAU1@V?$allocator@UtagAlchemicItemInfo@@@std@@U1@@std@@YAPAUtagAlchemicItemInfo@@PAU1@00AAV?$allocator@UtagAlchemicItemInfo@@@0@0U_Nonscalar_ptr_iterator_tag@0@@Z DD 019930522H
	DD	02H
	DD	FLAT:__unwindtable$??$_Uninit_move@PAUtagAlchemicItemInfo@@PAU1@V?$allocator@UtagAlchemicItemInfo@@@std@@U1@@std@@YAPAUtagAlchemicItemInfo@@PAU1@00AAV?$allocator@UtagAlchemicItemInfo@@@0@0U_Nonscalar_ptr_iterator_tag@0@@Z
	DD	01H
	DD	FLAT:__tryblocktable$??$_Uninit_move@PAUtagAlchemicItemInfo@@PAU1@V?$allocator@UtagAlchemicItemInfo@@@std@@U1@@std@@YAPAUtagAlchemicItemInfo@@PAU1@00AAV?$allocator@UtagAlchemicItemInfo@@@0@0U_Nonscalar_ptr_iterator_tag@0@@Z
	DD	2 DUP(00H)
	DD	00H
	DD	01H
; Function compile flags: /Ogsp
; File c:\program files (x86)\microsoft visual studio 10.0\vc\include\memory
xdata$x	ENDS
;	COMDAT ??$_Uninit_move@PAUtagAlchemicItemInfo@@PAU1@V?$allocator@UtagAlchemicItemInfo@@@std@@U1@@std@@YAPAUtagAlchemicItemInfo@@PAU1@00AAV?$allocator@UtagAlchemicItemInfo@@@0@0U_Nonscalar_ptr_iterator_tag@0@@Z
_TEXT	SEGMENT
__Next$ = -20						; size = 4
__$EHRec$ = -16						; size = 16
__First$ = 8						; size = 4
__Last$ = 12						; size = 4
__Dest$ = 16						; size = 4
__Al$ = 20						; size = 4
___formal$ = 24						; size = 4
___formal$ = 28						; size = 1
??$_Uninit_move@PAUtagAlchemicItemInfo@@PAU1@V?$allocator@UtagAlchemicItemInfo@@@std@@U1@@std@@YAPAUtagAlchemicItemInfo@@PAU1@00AAV?$allocator@UtagAlchemicItemInfo@@@0@0U_Nonscalar_ptr_iterator_tag@0@@Z PROC ; std::_Uninit_move<tagAlchemicItemInfo *,tagAlchemicItemInfo *,std::allocator<tagAlchemicItemInfo>,tagAlchemicItemInfo>, COMDAT

; 424  : 	{	// move [_First, _Last) to raw _Dest, using _Al, arbitrary type

  00000	6a 08		 push	 8
  00002	b8 00 00 00 00	 mov	 eax, __ehhandler$??$_Uninit_move@PAUtagAlchemicItemInfo@@PAU1@V?$allocator@UtagAlchemicItemInfo@@@std@@U1@@std@@YAPAUtagAlchemicItemInfo@@PAU1@00AAV?$allocator@UtagAlchemicItemInfo@@@0@0U_Nonscalar_ptr_iterator_tag@0@@Z
  00007	e8 00 00 00 00	 call	 __EH_prolog3_catch

; 425  : 	_DEBUG_RANGE(_First, _Last);
; 426  : 	_DEBUG_POINTER(_Dest);
; 427  : 	_FwdIt _Next = _Dest;

  0000c	8b 45 10	 mov	 eax, DWORD PTR __Dest$[ebp]

; 428  : 
; 429  : 	_TRY_BEGIN

  0000f	83 65 fc 00	 and	 DWORD PTR __$EHRec$[ebp+12], 0
  00013	8b 75 08	 mov	 esi, DWORD PTR __First$[ebp]
  00016	89 45 ec	 mov	 DWORD PTR __Next$[ebp], eax
$LL6@Uninit_mov:

; 430  : 	for (; _First != _Last; ++_Dest, ++_First)

  00019	3b 75 0c	 cmp	 esi, DWORD PTR __Last$[ebp]
  0001c	74 37		 je	 SHORT $LN4@Uninit_mov

; 431  : 		_Cons_val(_Al, _Dest, (_Valty &&)*_First);

  0001e	56		 push	 esi
  0001f	ff 75 10	 push	 DWORD PTR __Dest$[ebp]
  00022	ff 75 14	 push	 DWORD PTR __Al$[ebp]
  00025	e8 00 00 00 00	 call	 ??$_Cons_val@V?$allocator@UtagAlchemicItemInfo@@@std@@UtagAlchemicItemInfo@@U3@@std@@YAXAAV?$allocator@UtagAlchemicItemInfo@@@0@PAUtagAlchemicItemInfo@@$$QAU2@@Z ; std::_Cons_val<std::allocator<tagAlchemicItemInfo>,tagAlchemicItemInfo,tagAlchemicItemInfo>
  0002a	83 45 10 1c	 add	 DWORD PTR __Dest$[ebp], 28 ; 0000001cH
  0002e	83 c4 0c	 add	 esp, 12			; 0000000cH
  00031	83 c6 1c	 add	 esi, 28			; 0000001cH
  00034	eb e3		 jmp	 SHORT $LL6@Uninit_mov
__catch$??$_Uninit_move@PAUtagAlchemicItemInfo@@PAU1@V?$allocator@UtagAlchemicItemInfo@@@std@@U1@@std@@YAPAUtagAlchemicItemInfo@@PAU1@00AAV?$allocator@UtagAlchemicItemInfo@@@0@0U_Nonscalar_ptr_iterator_tag@0@@Z$0:

; 432  : 	_CATCH_ALL
; 433  : 	for (; _Next != _Dest; ++_Next)

  00036	8b 75 ec	 mov	 esi, DWORD PTR __Next$[ebp]
  00039	eb 0c		 jmp	 SHORT $LN32@Uninit_mov
$LL3@Uninit_mov:

; 434  : 		_Dest_val(_Al, _Next);

  0003b	8d 4e 08	 lea	 ecx, DWORD PTR [esi+8]
  0003e	ff 15 00 00 00
	00		 call	 DWORD PTR __imp_??1ioHashString@@QAE@XZ
  00044	83 c6 1c	 add	 esi, 28			; 0000001cH
$LN32@Uninit_mov:

; 432  : 	_CATCH_ALL
; 433  : 	for (; _Next != _Dest; ++_Next)

  00047	3b 75 10	 cmp	 esi, DWORD PTR __Dest$[ebp]
  0004a	75 ef		 jne	 SHORT $LL3@Uninit_mov

; 435  : 	_RERAISE;

  0004c	6a 00		 push	 0
  0004e	6a 00		 push	 0
  00050	e8 00 00 00 00	 call	 __CxxThrowException@8
$LN33@Uninit_mov:
$LN4@Uninit_mov:

; 436  : 	_CATCH_END
; 437  : 	return (_Dest);

  00055	8b 45 10	 mov	 eax, DWORD PTR __Dest$[ebp]

; 438  : 	}

  00058	e8 00 00 00 00	 call	 __EH_epilog3
  0005d	c3		 ret	 0
$LN31@Uninit_mov:
_TEXT	ENDS
;	COMDAT text$x
text$x	SEGMENT
__ehhandler$??$_Uninit_move@PAUtagAlchemicItemInfo@@PAU1@V?$allocator@UtagAlchemicItemInfo@@@std@@U1@@std@@YAPAUtagAlchemicItemInfo@@PAU1@00AAV?$allocator@UtagAlchemicItemInfo@@@0@0U_Nonscalar_ptr_iterator_tag@0@@Z:
  00000	8b 54 24 08	 mov	 edx, DWORD PTR [esp+8]
  00004	8d 42 0c	 lea	 eax, DWORD PTR [edx+12]
  00007	8b 4a e8	 mov	 ecx, DWORD PTR [edx-24]
  0000a	33 c8		 xor	 ecx, eax
  0000c	e8 00 00 00 00	 call	 @__security_check_cookie@4
  00011	b8 00 00 00 00	 mov	 eax, OFFSET __ehfuncinfo$??$_Uninit_move@PAUtagAlchemicItemInfo@@PAU1@V?$allocator@UtagAlchemicItemInfo@@@std@@U1@@std@@YAPAUtagAlchemicItemInfo@@PAU1@00AAV?$allocator@UtagAlchemicItemInfo@@@0@0U_Nonscalar_ptr_iterator_tag@0@@Z
  00016	e9 00 00 00 00	 jmp	 ___CxxFrameHandler3
text$x	ENDS
??$_Uninit_move@PAUtagAlchemicItemInfo@@PAU1@V?$allocator@UtagAlchemicItemInfo@@@std@@U1@@std@@YAPAUtagAlchemicItemInfo@@PAU1@00AAV?$allocator@UtagAlchemicItemInfo@@@0@0U_Nonscalar_ptr_iterator_tag@0@@Z ENDP ; std::_Uninit_move<tagAlchemicItemInfo *,tagAlchemicItemInfo *,std::allocator<tagAlchemicItemInfo>,tagAlchemicItemInfo>
PUBLIC	??$_Median@PAUtagAlchemicItemInfo@@VMaterialItemSort@ItemMaterialCompoundWnd@@@std@@YAXPAUtagAlchemicItemInfo@@00VMaterialItemSort@ItemMaterialCompoundWnd@@@Z ; std::_Median<tagAlchemicItemInfo *,ItemMaterialCompoundWnd::MaterialItemSort>
; Function compile flags: /Ogsp
; File c:\program files (x86)\microsoft visual studio 10.0\vc\include\algorithm
;	COMDAT ??$_Median@PAUtagAlchemicItemInfo@@VMaterialItemSort@ItemMaterialCompoundWnd@@@std@@YAXPAUtagAlchemicItemInfo@@00VMaterialItemSort@ItemMaterialCompoundWnd@@@Z
_TEXT	SEGMENT
tv200 = 8						; size = 4
__First$ = 8						; size = 4
__Mid$ = 12						; size = 4
tv203 = 16						; size = 4
__Last$ = 16						; size = 4
__Pred$ = 20						; size = 1
??$_Median@PAUtagAlchemicItemInfo@@VMaterialItemSort@ItemMaterialCompoundWnd@@@std@@YAXPAUtagAlchemicItemInfo@@00VMaterialItemSort@ItemMaterialCompoundWnd@@@Z PROC ; std::_Median<tagAlchemicItemInfo *,ItemMaterialCompoundWnd::MaterialItemSort>, COMDAT

; 3695 : 	{	// sort median element to middle

  00000	55		 push	 ebp
  00001	8b ec		 mov	 ebp, esp

; 3696 : 	if (40 < _Last - _First)

  00003	8b 4d 08	 mov	 ecx, DWORD PTR __First$[ebp]
  00006	53		 push	 ebx
  00007	8b 5d 10	 mov	 ebx, DWORD PTR __Last$[ebp]
  0000a	56		 push	 esi
  0000b	8b c3		 mov	 eax, ebx
  0000d	2b c1		 sub	 eax, ecx
  0000f	6a 1c		 push	 28			; 0000001cH
  00011	99		 cdq
  00012	5e		 pop	 esi
  00013	f7 fe		 idiv	 esi
  00015	83 f8 28	 cmp	 eax, 40			; 00000028H
  00018	7e 68		 jle	 SHORT $LN2@Median

; 3697 : 		{	// median of nine
; 3698 : 		size_t _Step = (_Last - _First + 1) / 8;

  0001a	40		 inc	 eax
  0001b	99		 cdq
  0001c	83 e2 07	 and	 edx, 7
  0001f	03 c2		 add	 eax, edx
  00021	57		 push	 edi

; 3699 : 		_Med3(_First, _First + _Step, _First + 2 * _Step, _Pred);

  00022	ff 75 14	 push	 DWORD PTR __Pred$[ebp]
  00025	c1 f8 03	 sar	 eax, 3
  00028	8b f8		 mov	 edi, eax
  0002a	8b f0		 mov	 esi, eax
  0002c	6b ff 38	 imul	 edi, 56			; 00000038H
  0002f	6b f6 1c	 imul	 esi, 28			; 0000001cH
  00032	8d 14 0f	 lea	 edx, DWORD PTR [edi+ecx]
  00035	8d 04 0e	 lea	 eax, DWORD PTR [esi+ecx]
  00038	52		 push	 edx
  00039	50		 push	 eax
  0003a	51		 push	 ecx
  0003b	89 45 08	 mov	 DWORD PTR tv200[ebp], eax
  0003e	e8 00 00 00 00	 call	 ??$_Med3@PAUtagAlchemicItemInfo@@VMaterialItemSort@ItemMaterialCompoundWnd@@@std@@YAXPAUtagAlchemicItemInfo@@00VMaterialItemSort@ItemMaterialCompoundWnd@@@Z ; std::_Med3<tagAlchemicItemInfo *,ItemMaterialCompoundWnd::MaterialItemSort>

; 3700 : 		_Med3(_Mid - _Step, _Mid, _Mid + _Step, _Pred);

  00043	ff 75 14	 push	 DWORD PTR __Pred$[ebp]
  00046	8b 45 0c	 mov	 eax, DWORD PTR __Mid$[ebp]
  00049	8d 0c 06	 lea	 ecx, DWORD PTR [esi+eax]
  0004c	51		 push	 ecx
  0004d	50		 push	 eax
  0004e	2b c6		 sub	 eax, esi
  00050	50		 push	 eax
  00051	e8 00 00 00 00	 call	 ??$_Med3@PAUtagAlchemicItemInfo@@VMaterialItemSort@ItemMaterialCompoundWnd@@@std@@YAXPAUtagAlchemicItemInfo@@00VMaterialItemSort@ItemMaterialCompoundWnd@@@Z ; std::_Med3<tagAlchemicItemInfo *,ItemMaterialCompoundWnd::MaterialItemSort>

; 3701 : 		_Med3(_Last - 2 * _Step, _Last - _Step, _Last, _Pred);

  00056	ff 75 14	 push	 DWORD PTR __Pred$[ebp]
  00059	89 5d 10	 mov	 DWORD PTR tv203[ebp], ebx
  0005c	29 75 10	 sub	 DWORD PTR tv203[ebp], esi
  0005f	53		 push	 ebx
  00060	ff 75 10	 push	 DWORD PTR tv203[ebp]
  00063	2b df		 sub	 ebx, edi
  00065	53		 push	 ebx
  00066	e8 00 00 00 00	 call	 ??$_Med3@PAUtagAlchemicItemInfo@@VMaterialItemSort@ItemMaterialCompoundWnd@@@std@@YAXPAUtagAlchemicItemInfo@@00VMaterialItemSort@ItemMaterialCompoundWnd@@@Z ; std::_Med3<tagAlchemicItemInfo *,ItemMaterialCompoundWnd::MaterialItemSort>

; 3702 : 		_Med3(_First + _Step, _Mid, _Last - _Step, _Pred);

  0006b	ff 75 14	 push	 DWORD PTR __Pred$[ebp]
  0006e	ff 75 10	 push	 DWORD PTR tv203[ebp]
  00071	ff 75 0c	 push	 DWORD PTR __Mid$[ebp]
  00074	ff 75 08	 push	 DWORD PTR tv200[ebp]
  00077	e8 00 00 00 00	 call	 ??$_Med3@PAUtagAlchemicItemInfo@@VMaterialItemSort@ItemMaterialCompoundWnd@@@std@@YAXPAUtagAlchemicItemInfo@@00VMaterialItemSort@ItemMaterialCompoundWnd@@@Z ; std::_Med3<tagAlchemicItemInfo *,ItemMaterialCompoundWnd::MaterialItemSort>
  0007c	83 c4 40	 add	 esp, 64			; 00000040H
  0007f	5f		 pop	 edi

; 3703 : 		}
; 3704 : 	else

  00080	eb 10		 jmp	 SHORT $LN1@Median
$LN2@Median:

; 3705 : 		_Med3(_First, _Mid, _Last, _Pred);

  00082	ff 75 14	 push	 DWORD PTR __Pred$[ebp]
  00085	53		 push	 ebx
  00086	ff 75 0c	 push	 DWORD PTR __Mid$[ebp]
  00089	51		 push	 ecx
  0008a	e8 00 00 00 00	 call	 ??$_Med3@PAUtagAlchemicItemInfo@@VMaterialItemSort@ItemMaterialCompoundWnd@@@std@@YAXPAUtagAlchemicItemInfo@@00VMaterialItemSort@ItemMaterialCompoundWnd@@@Z ; std::_Med3<tagAlchemicItemInfo *,ItemMaterialCompoundWnd::MaterialItemSort>
  0008f	83 c4 10	 add	 esp, 16			; 00000010H
$LN1@Median:
  00092	5e		 pop	 esi
  00093	5b		 pop	 ebx

; 3706 : 	}

  00094	5d		 pop	 ebp
  00095	c3		 ret	 0
??$_Median@PAUtagAlchemicItemInfo@@VMaterialItemSort@ItemMaterialCompoundWnd@@@std@@YAXPAUtagAlchemicItemInfo@@00VMaterialItemSort@ItemMaterialCompoundWnd@@@Z ENDP ; std::_Median<tagAlchemicItemInfo *,ItemMaterialCompoundWnd::MaterialItemSort>
_TEXT	ENDS
PUBLIC	??$_Pop_heap@PAUtagAlchemicItemInfo@@VMaterialItemSort@ItemMaterialCompoundWnd@@@std@@YAXPAUtagAlchemicItemInfo@@0VMaterialItemSort@ItemMaterialCompoundWnd@@@Z ; std::_Pop_heap<tagAlchemicItemInfo *,ItemMaterialCompoundWnd::MaterialItemSort>
; Function compile flags: /Ogsp
;	COMDAT ??$_Pop_heap@PAUtagAlchemicItemInfo@@VMaterialItemSort@ItemMaterialCompoundWnd@@@std@@YAXPAUtagAlchemicItemInfo@@0VMaterialItemSort@ItemMaterialCompoundWnd@@@Z
_TEXT	SEGMENT
__First$ = 8						; size = 4
__Last$ = 12						; size = 4
__Pred$ = 16						; size = 1
??$_Pop_heap@PAUtagAlchemicItemInfo@@VMaterialItemSort@ItemMaterialCompoundWnd@@@std@@YAXPAUtagAlchemicItemInfo@@0VMaterialItemSort@ItemMaterialCompoundWnd@@@Z PROC ; std::_Pop_heap<tagAlchemicItemInfo *,ItemMaterialCompoundWnd::MaterialItemSort>, COMDAT

; 2610 : 	{	// pop *_First to *(_Last - 1) and reheap, using _Pred

  00000	55		 push	 ebp
  00001	8b ec		 mov	 ebp, esp

; 2611 : 	_Pop_heap_0(_Unchecked(_First), _Unchecked(_Last), _Pred,
; 2612 : 		_Val_type(_First));

  00003	6a 00		 push	 0
  00005	ff 75 10	 push	 DWORD PTR __Pred$[ebp]
  00008	ff 75 0c	 push	 DWORD PTR __Last$[ebp]
  0000b	ff 75 08	 push	 DWORD PTR __First$[ebp]
  0000e	e8 00 00 00 00	 call	 ??$_Pop_heap_0@PAUtagAlchemicItemInfo@@U1@VMaterialItemSort@ItemMaterialCompoundWnd@@@std@@YAXPAUtagAlchemicItemInfo@@0VMaterialItemSort@ItemMaterialCompoundWnd@@0@Z ; std::_Pop_heap_0<tagAlchemicItemInfo *,tagAlchemicItemInfo,ItemMaterialCompoundWnd::MaterialItemSort>
  00013	83 c4 10	 add	 esp, 16			; 00000010H

; 2613 : 	}

  00016	5d		 pop	 ebp
  00017	c3		 ret	 0
??$_Pop_heap@PAUtagAlchemicItemInfo@@VMaterialItemSort@ItemMaterialCompoundWnd@@@std@@YAXPAUtagAlchemicItemInfo@@0VMaterialItemSort@ItemMaterialCompoundWnd@@@Z ENDP ; std::_Pop_heap<tagAlchemicItemInfo *,ItemMaterialCompoundWnd::MaterialItemSort>
_TEXT	ENDS
PUBLIC	??$_Destroy_range@V?$allocator@UNewShopPullDownItem@@@std@@@std@@YAXPAUNewShopPullDownItem@@0AAV?$allocator@UNewShopPullDownItem@@@0@U_Nonscalar_ptr_iterator_tag@0@@Z ; std::_Destroy_range<std::allocator<NewShopPullDownItem> >
; Function compile flags: /Ogsp
; File c:\program files (x86)\microsoft visual studio 10.0\vc\include\xmemory
;	COMDAT ??$_Destroy_range@V?$allocator@UNewShopPullDownItem@@@std@@@std@@YAXPAUNewShopPullDownItem@@0AAV?$allocator@UNewShopPullDownItem@@@0@U_Nonscalar_ptr_iterator_tag@0@@Z
_TEXT	SEGMENT
__First$ = 8						; size = 4
__Last$ = 12						; size = 4
__Al$ = 16						; size = 4
___formal$ = 20						; size = 1
??$_Destroy_range@V?$allocator@UNewShopPullDownItem@@@std@@@std@@YAXPAUNewShopPullDownItem@@0AAV?$allocator@UNewShopPullDownItem@@@0@U_Nonscalar_ptr_iterator_tag@0@@Z PROC ; std::_Destroy_range<std::allocator<NewShopPullDownItem> >, COMDAT

; 95   : 	{	// destroy [_First, _Last), arbitrary type

  00000	55		 push	 ebp
  00001	8b ec		 mov	 ebp, esp
  00003	56		 push	 esi

; 96   : 	for (; _First != _Last; ++_First)

  00004	8b 75 08	 mov	 esi, DWORD PTR __First$[ebp]
  00007	eb 0a		 jmp	 SHORT $LN17@Destroy_ra
$LL3@Destroy_ra:

; 97   : 		_Dest_val(_Al, _First);

  00009	8b ce		 mov	 ecx, esi
  0000b	e8 00 00 00 00	 call	 ??1NewShopPullDownItem@@QAE@XZ
  00010	83 c6 50	 add	 esi, 80			; 00000050H
$LN17@Destroy_ra:

; 96   : 	for (; _First != _Last; ++_First)

  00013	3b 75 0c	 cmp	 esi, DWORD PTR __Last$[ebp]
  00016	75 f1		 jne	 SHORT $LL3@Destroy_ra
  00018	5e		 pop	 esi

; 98   : 	}

  00019	5d		 pop	 ebp
  0001a	c3		 ret	 0
??$_Destroy_range@V?$allocator@UNewShopPullDownItem@@@std@@@std@@YAXPAUNewShopPullDownItem@@0AAV?$allocator@UNewShopPullDownItem@@@0@U_Nonscalar_ptr_iterator_tag@0@@Z ENDP ; std::_Destroy_range<std::allocator<NewShopPullDownItem> >
_TEXT	ENDS
PUBLIC	??$_Destroy_range@V?$allocator@UtagAlchemicItemInfo@@@std@@@std@@YAXPAUtagAlchemicItemInfo@@0AAV?$allocator@UtagAlchemicItemInfo@@@0@U_Nonscalar_ptr_iterator_tag@0@@Z ; std::_Destroy_range<std::allocator<tagAlchemicItemInfo> >
; Function compile flags: /Ogsp
;	COMDAT ??$_Destroy_range@V?$allocator@UtagAlchemicItemInfo@@@std@@@std@@YAXPAUtagAlchemicItemInfo@@0AAV?$allocator@UtagAlchemicItemInfo@@@0@U_Nonscalar_ptr_iterator_tag@0@@Z
_TEXT	SEGMENT
__First$ = 8						; size = 4
__Last$ = 12						; size = 4
__Al$ = 16						; size = 4
___formal$ = 20						; size = 1
??$_Destroy_range@V?$allocator@UtagAlchemicItemInfo@@@std@@@std@@YAXPAUtagAlchemicItemInfo@@0AAV?$allocator@UtagAlchemicItemInfo@@@0@U_Nonscalar_ptr_iterator_tag@0@@Z PROC ; std::_Destroy_range<std::allocator<tagAlchemicItemInfo> >, COMDAT

; 95   : 	{	// destroy [_First, _Last), arbitrary type

  00000	55		 push	 ebp
  00001	8b ec		 mov	 ebp, esp
  00003	56		 push	 esi

; 96   : 	for (; _First != _Last; ++_First)

  00004	8b 75 08	 mov	 esi, DWORD PTR __First$[ebp]
  00007	eb 0c		 jmp	 SHORT $LN20@Destroy_ra@2
$LL3@Destroy_ra@2:

; 97   : 		_Dest_val(_Al, _First);

  00009	8d 4e 08	 lea	 ecx, DWORD PTR [esi+8]
  0000c	ff 15 00 00 00
	00		 call	 DWORD PTR __imp_??1ioHashString@@QAE@XZ
  00012	83 c6 1c	 add	 esi, 28			; 0000001cH
$LN20@Destroy_ra@2:

; 96   : 	for (; _First != _Last; ++_First)

  00015	3b 75 0c	 cmp	 esi, DWORD PTR __Last$[ebp]
  00018	75 ef		 jne	 SHORT $LL3@Destroy_ra@2
  0001a	5e		 pop	 esi

; 98   : 	}

  0001b	5d		 pop	 ebp
  0001c	c3		 ret	 0
??$_Destroy_range@V?$allocator@UtagAlchemicItemInfo@@@std@@@std@@YAXPAUtagAlchemicItemInfo@@0AAV?$allocator@UtagAlchemicItemInfo@@@0@U_Nonscalar_ptr_iterator_tag@0@@Z ENDP ; std::_Destroy_range<std::allocator<tagAlchemicItemInfo> >
_TEXT	ENDS
PUBLIC	??$_Uninitialized_move@PAUtagAlchemicItemInfo@@PAU1@V?$allocator@UtagAlchemicItemInfo@@@std@@@std@@YAPAUtagAlchemicItemInfo@@PAU1@00AAV?$allocator@UtagAlchemicItemInfo@@@0@@Z ; std::_Uninitialized_move<tagAlchemicItemInfo *,tagAlchemicItemInfo *,std::allocator<tagAlchemicItemInfo> >
; Function compile flags: /Ogsp
; File c:\program files (x86)\microsoft visual studio 10.0\vc\include\memory
;	COMDAT ??$_Uninitialized_move@PAUtagAlchemicItemInfo@@PAU1@V?$allocator@UtagAlchemicItemInfo@@@std@@@std@@YAPAUtagAlchemicItemInfo@@PAU1@00AAV?$allocator@UtagAlchemicItemInfo@@@0@@Z
_TEXT	SEGMENT
__Cat$514069 = -4					; size = 1
__First$ = 8						; size = 4
__Last$ = 12						; size = 4
__Dest$ = 16						; size = 4
__Al$ = 20						; size = 4
??$_Uninitialized_move@PAUtagAlchemicItemInfo@@PAU1@V?$allocator@UtagAlchemicItemInfo@@@std@@@std@@YAPAUtagAlchemicItemInfo@@PAU1@00AAV?$allocator@UtagAlchemicItemInfo@@@0@@Z PROC ; std::_Uninitialized_move<tagAlchemicItemInfo *,tagAlchemicItemInfo *,std::allocator<tagAlchemicItemInfo> >, COMDAT

; 469  : 	{	// move [_First, _Last) to raw _Dest, using _Al

  00000	55		 push	 ebp
  00001	8b ec		 mov	 ebp, esp
  00003	51		 push	 ecx

; 470  : 	return (_Uninit_move(_First, _Last, _Dest, _Al,
; 471  : 		_Val_type(_First), _Ptr_cat(_First, _Dest)));

  00004	ff 75 fc	 push	 DWORD PTR __Cat$514069[ebp]
  00007	6a 00		 push	 0
  00009	ff 75 14	 push	 DWORD PTR __Al$[ebp]
  0000c	ff 75 10	 push	 DWORD PTR __Dest$[ebp]
  0000f	ff 75 0c	 push	 DWORD PTR __Last$[ebp]
  00012	ff 75 08	 push	 DWORD PTR __First$[ebp]
  00015	e8 00 00 00 00	 call	 ??$_Uninit_move@PAUtagAlchemicItemInfo@@PAU1@V?$allocator@UtagAlchemicItemInfo@@@std@@U1@@std@@YAPAUtagAlchemicItemInfo@@PAU1@00AAV?$allocator@UtagAlchemicItemInfo@@@0@0U_Nonscalar_ptr_iterator_tag@0@@Z ; std::_Uninit_move<tagAlchemicItemInfo *,tagAlchemicItemInfo *,std::allocator<tagAlchemicItemInfo>,tagAlchemicItemInfo>
  0001a	83 c4 18	 add	 esp, 24			; 00000018H

; 472  : 	}

  0001d	c9		 leave
  0001e	c3		 ret	 0
??$_Uninitialized_move@PAUtagAlchemicItemInfo@@PAU1@V?$allocator@UtagAlchemicItemInfo@@@std@@@std@@YAPAUtagAlchemicItemInfo@@PAU1@00AAV?$allocator@UtagAlchemicItemInfo@@@0@@Z ENDP ; std::_Uninitialized_move<tagAlchemicItemInfo *,tagAlchemicItemInfo *,std::allocator<tagAlchemicItemInfo> >
_TEXT	ENDS
PUBLIC	??$_Unguarded_partition@PAUtagAlchemicItemInfo@@VMaterialItemSort@ItemMaterialCompoundWnd@@@std@@YA?AU?$pair@PAUtagAlchemicItemInfo@@PAU1@@0@PAUtagAlchemicItemInfo@@0VMaterialItemSort@ItemMaterialCompoundWnd@@@Z ; std::_Unguarded_partition<tagAlchemicItemInfo *,ItemMaterialCompoundWnd::MaterialItemSort>
; Function compile flags: /Ogsp
; File c:\program files (x86)\microsoft visual studio 10.0\vc\include\algorithm
;	COMDAT ??$_Unguarded_partition@PAUtagAlchemicItemInfo@@VMaterialItemSort@ItemMaterialCompoundWnd@@@std@@YA?AU?$pair@PAUtagAlchemicItemInfo@@PAU1@@0@PAUtagAlchemicItemInfo@@0VMaterialItemSort@ItemMaterialCompoundWnd@@@Z
_TEXT	SEGMENT
__Glast$ = -8						; size = 4
__Plast$ = -4						; size = 4
___$ReturnUdt$ = 8					; size = 4
__First$ = 12						; size = 4
__Last$ = 16						; size = 4
__Pred$ = 20						; size = 1
??$_Unguarded_partition@PAUtagAlchemicItemInfo@@VMaterialItemSort@ItemMaterialCompoundWnd@@@std@@YA?AU?$pair@PAUtagAlchemicItemInfo@@PAU1@@0@PAUtagAlchemicItemInfo@@0VMaterialItemSort@ItemMaterialCompoundWnd@@@Z PROC ; std::_Unguarded_partition<tagAlchemicItemInfo *,ItemMaterialCompoundWnd::MaterialItemSort>, COMDAT

; 3712 : 	{	// partition [_First, _Last), using _Pred

  00000	55		 push	 ebp
  00001	8b ec		 mov	 ebp, esp
  00003	51		 push	 ecx
  00004	51		 push	 ecx

; 3713 : 	_RanIt _Mid = _First + (_Last - _First) / 2;

  00005	8b 4d 10	 mov	 ecx, DWORD PTR __Last$[ebp]
  00008	53		 push	 ebx
  00009	8b 5d 0c	 mov	 ebx, DWORD PTR __First$[ebp]
  0000c	56		 push	 esi
  0000d	57		 push	 edi
  0000e	6a 1c		 push	 28			; 0000001cH
  00010	8b c1		 mov	 eax, ecx
  00012	2b c3		 sub	 eax, ebx
  00014	5f		 pop	 edi
  00015	99		 cdq
  00016	8b f7		 mov	 esi, edi
  00018	f7 fe		 idiv	 esi

; 3714 : 	_Median(_First, _Mid, _Last - 1, _Pred);

  0001a	ff 75 14	 push	 DWORD PTR __Pred$[ebp]
  0001d	83 c1 e4	 add	 ecx, -28		; ffffffe4H
  00020	51		 push	 ecx
  00021	99		 cdq
  00022	2b c2		 sub	 eax, edx
  00024	8b f0		 mov	 esi, eax
  00026	d1 fe		 sar	 esi, 1
  00028	6b f6 1c	 imul	 esi, 28			; 0000001cH
  0002b	03 f3		 add	 esi, ebx
  0002d	56		 push	 esi
  0002e	53		 push	 ebx
  0002f	e8 00 00 00 00	 call	 ??$_Median@PAUtagAlchemicItemInfo@@VMaterialItemSort@ItemMaterialCompoundWnd@@@std@@YAXPAUtagAlchemicItemInfo@@00VMaterialItemSort@ItemMaterialCompoundWnd@@@Z ; std::_Median<tagAlchemicItemInfo *,ItemMaterialCompoundWnd::MaterialItemSort>
  00034	83 c4 10	 add	 esp, 16			; 00000010H

; 3715 : 	_RanIt _Pfirst = _Mid;
; 3716 : 	_RanIt _Plast = _Pfirst + 1;

  00037	8d 46 1c	 lea	 eax, DWORD PTR [esi+28]
  0003a	89 45 fc	 mov	 DWORD PTR __Plast$[ebp], eax

; 3717 : 
; 3718 : 	while (_First < _Pfirst
; 3719 : 		&& !_DEBUG_LT_PRED(_Pred, *(_Pfirst - 1), *_Pfirst)
; 3720 : 		&& !_Pred(*_Pfirst, *(_Pfirst - 1)))

  0003d	3b de		 cmp	 ebx, esi
  0003f	73 2b		 jae	 SHORT $LN123@Unguarded_

; 3713 : 	_RanIt _Mid = _First + (_Last - _First) / 2;

  00041	8d 46 e8	 lea	 eax, DWORD PTR [esi-24]
$LL27@Unguarded_:

; 3717 : 
; 3718 : 	while (_First < _Pfirst
; 3719 : 		&& !_DEBUG_LT_PRED(_Pred, *(_Pfirst - 1), *_Pfirst)
; 3720 : 		&& !_Pred(*_Pfirst, *(_Pfirst - 1)))

  00044	8b 08		 mov	 ecx, DWORD PTR [eax]
  00046	8b 50 1c	 mov	 edx, DWORD PTR [eax+28]
  00049	3b ca		 cmp	 ecx, edx
  0004b	7f 1f		 jg	 SHORT $LN123@Unguarded_
  0004d	75 07		 jne	 SHORT $LN30@Unguarded_
  0004f	8b 58 fc	 mov	 ebx, DWORD PTR [eax-4]
  00052	3b 1e		 cmp	 ebx, DWORD PTR [esi]
  00054	7c 16		 jl	 SHORT $LN123@Unguarded_
$LN30@Unguarded_:
  00056	3b d1		 cmp	 edx, ecx
  00058	7f 12		 jg	 SHORT $LN123@Unguarded_
  0005a	75 07		 jne	 SHORT $LN35@Unguarded_
  0005c	8b 0e		 mov	 ecx, DWORD PTR [esi]
  0005e	3b 48 fc	 cmp	 ecx, DWORD PTR [eax-4]
  00061	7c 09		 jl	 SHORT $LN123@Unguarded_
$LN35@Unguarded_:

; 3721 : 		--_Pfirst;

  00063	2b f7		 sub	 esi, edi
  00065	2b c7		 sub	 eax, edi
  00067	39 75 0c	 cmp	 DWORD PTR __First$[ebp], esi
  0006a	72 d8		 jb	 SHORT $LL27@Unguarded_
$LN123@Unguarded_:

; 3722 : 	while (_Plast < _Last
; 3723 : 		&& !_DEBUG_LT_PRED(_Pred, *_Plast, *_Pfirst)
; 3724 : 		&& !_Pred(*_Pfirst, *_Plast))

  0006c	8b 5d fc	 mov	 ebx, DWORD PTR __Plast$[ebp]
  0006f	3b 5d 10	 cmp	 ebx, DWORD PTR __Last$[ebp]
  00072	73 28		 jae	 SHORT $LN116@Unguarded_
  00074	8b 4e 04	 mov	 ecx, DWORD PTR [esi+4]
$LL25@Unguarded_:
  00077	8b 43 04	 mov	 eax, DWORD PTR [ebx+4]
  0007a	3b c1		 cmp	 eax, ecx
  0007c	7f 1e		 jg	 SHORT $LN116@Unguarded_
  0007e	75 06		 jne	 SHORT $LN40@Unguarded_
  00080	8b 13		 mov	 edx, DWORD PTR [ebx]
  00082	3b 16		 cmp	 edx, DWORD PTR [esi]
  00084	7c 16		 jl	 SHORT $LN116@Unguarded_
$LN40@Unguarded_:
  00086	3b c8		 cmp	 ecx, eax
  00088	7f 12		 jg	 SHORT $LN116@Unguarded_
  0008a	75 06		 jne	 SHORT $LN45@Unguarded_
  0008c	8b 06		 mov	 eax, DWORD PTR [esi]
  0008e	3b 03		 cmp	 eax, DWORD PTR [ebx]
  00090	7c 0a		 jl	 SHORT $LN116@Unguarded_
$LN45@Unguarded_:

; 3725 : 		++_Plast;

  00092	03 df		 add	 ebx, edi
  00094	89 5d fc	 mov	 DWORD PTR __Plast$[ebp], ebx
  00097	3b 5d 10	 cmp	 ebx, DWORD PTR __Last$[ebp]
  0009a	72 db		 jb	 SHORT $LL25@Unguarded_
$LN116@Unguarded_:

; 3726 : 
; 3727 : 	_RanIt _Gfirst = _Plast;
; 3728 : 	_RanIt _Glast = _Pfirst;

  0009c	89 75 f8	 mov	 DWORD PTR __Glast$[ebp], esi

; 3729 : 
; 3730 : 	for (; ; )
; 3731 : 		{	// partition
; 3732 : 		for (; _Gfirst < _Last; ++_Gfirst)

  0009f	eb 2f		 jmp	 SHORT $LN129@Unguarded_
$LL21@Unguarded_:

; 3733 : 			if (_DEBUG_LT_PRED(_Pred, *_Pfirst, *_Gfirst))

  000a1	8b 46 04	 mov	 eax, DWORD PTR [esi+4]
  000a4	8b 4b 04	 mov	 ecx, DWORD PTR [ebx+4]
  000a7	3b c1		 cmp	 eax, ecx
  000a9	7f 23		 jg	 SHORT $LN20@Unguarded_
  000ab	75 06		 jne	 SHORT $LN50@Unguarded_
  000ad	8b 16		 mov	 edx, DWORD PTR [esi]
  000af	3b 13		 cmp	 edx, DWORD PTR [ebx]
  000b1	7c 1b		 jl	 SHORT $LN20@Unguarded_
$LN50@Unguarded_:

; 3734 : 				;
; 3735 : 			else if (_Pred(*_Gfirst, *_Pfirst))

  000b3	3b c8		 cmp	 ecx, eax
  000b5	7f 1e		 jg	 SHORT $LN118@Unguarded_
  000b7	75 06		 jne	 SHORT $LN55@Unguarded_
  000b9	8b 03		 mov	 eax, DWORD PTR [ebx]
  000bb	3b 06		 cmp	 eax, DWORD PTR [esi]
  000bd	7c 16		 jl	 SHORT $LN118@Unguarded_
$LN55@Unguarded_:

; 3736 : 				break;
; 3737 : 			else
; 3738 : 				_STD iter_swap(_Plast++, _Gfirst);

  000bf	8b 45 fc	 mov	 eax, DWORD PTR __Plast$[ebp]
  000c2	01 7d fc	 add	 DWORD PTR __Plast$[ebp], edi
  000c5	53		 push	 ebx
  000c6	50		 push	 eax
$LN131@Unguarded_:
  000c7	e8 00 00 00 00	 call	 ??$swap@UtagAlchemicItemInfo@@@std@@YAXAAUtagAlchemicItemInfo@@0@Z ; std::swap<tagAlchemicItemInfo>
  000cc	59		 pop	 ecx
  000cd	59		 pop	 ecx
$LN20@Unguarded_:

; 3729 : 
; 3730 : 	for (; ; )
; 3731 : 		{	// partition
; 3732 : 		for (; _Gfirst < _Last; ++_Gfirst)

  000ce	03 df		 add	 ebx, edi
$LN129@Unguarded_:
  000d0	3b 5d 10	 cmp	 ebx, DWORD PTR __Last$[ebp]
  000d3	72 cc		 jb	 SHORT $LL21@Unguarded_
$LN118@Unguarded_:

; 3739 : 		for (; _First < _Glast; --_Glast)

  000d5	8b 45 f8	 mov	 eax, DWORD PTR __Glast$[ebp]
  000d8	3b 45 0c	 cmp	 eax, DWORD PTR __First$[ebp]
  000db	76 4d		 jbe	 SHORT $LN130@Unguarded_
  000dd	8d 78 e8	 lea	 edi, DWORD PTR [eax-24]
$LL14@Unguarded_:

; 3740 : 			if (_DEBUG_LT_PRED(_Pred, *(_Glast - 1), *_Pfirst))

  000e0	8b 07		 mov	 eax, DWORD PTR [edi]
  000e2	8b 4e 04	 mov	 ecx, DWORD PTR [esi+4]
  000e5	3b c1		 cmp	 eax, ecx
  000e7	7f 25		 jg	 SHORT $LN13@Unguarded_
  000e9	75 07		 jne	 SHORT $LN62@Unguarded_
  000eb	8b 57 fc	 mov	 edx, DWORD PTR [edi-4]
  000ee	3b 16		 cmp	 edx, DWORD PTR [esi]
  000f0	7c 1c		 jl	 SHORT $LN13@Unguarded_
$LN62@Unguarded_:

; 3741 : 				;
; 3742 : 			else if (_Pred(*_Pfirst, *(_Glast - 1)))

  000f2	3b c8		 cmp	 ecx, eax
  000f4	7f 2b		 jg	 SHORT $LN127@Unguarded_
  000f6	75 07		 jne	 SHORT $LN67@Unguarded_
  000f8	8b 06		 mov	 eax, DWORD PTR [esi]
  000fa	3b 47 fc	 cmp	 eax, DWORD PTR [edi-4]
  000fd	7c 22		 jl	 SHORT $LN127@Unguarded_
$LN67@Unguarded_:

; 3743 : 				break;
; 3744 : 			else
; 3745 : 				_STD iter_swap(--_Pfirst, _Glast - 1);

  000ff	8d 47 fc	 lea	 eax, DWORD PTR [edi-4]
  00102	83 ee 1c	 sub	 esi, 28			; 0000001cH
  00105	50		 push	 eax
  00106	56		 push	 esi
  00107	e8 00 00 00 00	 call	 ??$swap@UtagAlchemicItemInfo@@@std@@YAXAAUtagAlchemicItemInfo@@0@Z ; std::swap<tagAlchemicItemInfo>
  0010c	59		 pop	 ecx
  0010d	59		 pop	 ecx
$LN13@Unguarded_:

; 3739 : 		for (; _First < _Glast; --_Glast)

  0010e	8b 45 f8	 mov	 eax, DWORD PTR __Glast$[ebp]
  00111	83 e8 1c	 sub	 eax, 28			; 0000001cH
  00114	83 ef 1c	 sub	 edi, 28			; 0000001cH
  00117	89 45 f8	 mov	 DWORD PTR __Glast$[ebp], eax
  0011a	39 45 0c	 cmp	 DWORD PTR __First$[ebp], eax
  0011d	72 c1		 jb	 SHORT $LL14@Unguarded_
  0011f	eb 03		 jmp	 SHORT $LN121@Unguarded_
$LN127@Unguarded_:
  00121	8b 45 f8	 mov	 eax, DWORD PTR __Glast$[ebp]
$LN121@Unguarded_:

; 3746 : 		if (_Glast == _First && _Gfirst == _Last)

  00124	3b 45 0c	 cmp	 eax, DWORD PTR __First$[ebp]
  00127	6a 1c		 push	 28			; 0000001cH
  00129	5f		 pop	 edi
$LN130@Unguarded_:
  0012a	75 20		 jne	 SHORT $LN6@Unguarded_
  0012c	3b 5d 10	 cmp	 ebx, DWORD PTR __Last$[ebp]
  0012f	74 4e		 je	 SHORT $LN104@Unguarded_

; 3748 : 
; 3749 : 		if (_Glast == _First)
; 3750 : 			{	// no room at bottom, rotate pivot upward
; 3751 : 			if (_Plast != _Gfirst)

  00131	39 5d fc	 cmp	 DWORD PTR __Plast$[ebp], ebx
  00134	74 0b		 je	 SHORT $LN86@Unguarded_

; 3752 : 				_STD iter_swap(_Pfirst, _Plast);

  00136	ff 75 fc	 push	 DWORD PTR __Plast$[ebp]
  00139	56		 push	 esi
  0013a	e8 00 00 00 00	 call	 ??$swap@UtagAlchemicItemInfo@@@std@@YAXAAUtagAlchemicItemInfo@@0@Z ; std::swap<tagAlchemicItemInfo>
  0013f	59		 pop	 ecx
  00140	59		 pop	 ecx
$LN86@Unguarded_:

; 3753 : 			++_Plast;

  00141	01 7d fc	 add	 DWORD PTR __Plast$[ebp], edi

; 3754 : 			_STD iter_swap(_Pfirst++, _Gfirst++);

  00144	53		 push	 ebx
  00145	56		 push	 esi
  00146	03 f7		 add	 esi, edi
  00148	03 df		 add	 ebx, edi
  0014a	eb 20		 jmp	 SHORT $LN128@Unguarded_
$LN6@Unguarded_:

; 3755 : 			}
; 3756 : 		else if (_Gfirst == _Last)
; 3757 : 			{	// no room at top, rotate pivot downward
; 3758 : 			if (--_Glast != --_Pfirst)

  0014c	2b c7		 sub	 eax, edi
  0014e	89 45 f8	 mov	 DWORD PTR __Glast$[ebp], eax
  00151	3b 5d 10	 cmp	 ebx, DWORD PTR __Last$[ebp]
  00154	75 22		 jne	 SHORT $LN3@Unguarded_
  00156	2b f7		 sub	 esi, edi
  00158	3b c6		 cmp	 eax, esi
  0015a	74 09		 je	 SHORT $LN90@Unguarded_

; 3759 : 				_STD iter_swap(_Glast, _Pfirst);

  0015c	56		 push	 esi
  0015d	50		 push	 eax
  0015e	e8 00 00 00 00	 call	 ??$swap@UtagAlchemicItemInfo@@@std@@YAXAAUtagAlchemicItemInfo@@0@Z ; std::swap<tagAlchemicItemInfo>
  00163	59		 pop	 ecx
  00164	59		 pop	 ecx
$LN90@Unguarded_:

; 3760 : 			_STD iter_swap(_Pfirst, --_Plast);

  00165	29 7d fc	 sub	 DWORD PTR __Plast$[ebp], edi
  00168	ff 75 fc	 push	 DWORD PTR __Plast$[ebp]
  0016b	56		 push	 esi
$LN128@Unguarded_:
  0016c	e8 00 00 00 00	 call	 ??$swap@UtagAlchemicItemInfo@@@std@@YAXAAUtagAlchemicItemInfo@@0@Z ; std::swap<tagAlchemicItemInfo>
  00171	59		 pop	 ecx
  00172	59		 pop	 ecx

; 3761 : 			}
; 3762 : 		else

  00173	e9 58 ff ff ff	 jmp	 $LN129@Unguarded_
$LN3@Unguarded_:

; 3763 : 			_STD iter_swap(_Gfirst++, --_Glast);

  00178	50		 push	 eax
  00179	53		 push	 ebx

; 3764 : 		}

  0017a	e9 48 ff ff ff	 jmp	 $LN131@Unguarded_
$LN104@Unguarded_:

; 3747 : 			return (_STD pair<_RanIt, _RanIt>(_Pfirst, _Plast));

  0017f	8b 45 08	 mov	 eax, DWORD PTR ___$ReturnUdt$[ebp]
  00182	8b 4d fc	 mov	 ecx, DWORD PTR __Plast$[ebp]
  00185	5f		 pop	 edi
  00186	89 30		 mov	 DWORD PTR [eax], esi
  00188	5e		 pop	 esi
  00189	89 48 04	 mov	 DWORD PTR [eax+4], ecx
  0018c	5b		 pop	 ebx

; 3765 : 	}

  0018d	c9		 leave
  0018e	c3		 ret	 0
??$_Unguarded_partition@PAUtagAlchemicItemInfo@@VMaterialItemSort@ItemMaterialCompoundWnd@@@std@@YA?AU?$pair@PAUtagAlchemicItemInfo@@PAU1@@0@PAUtagAlchemicItemInfo@@0VMaterialItemSort@ItemMaterialCompoundWnd@@@Z ENDP ; std::_Unguarded_partition<tagAlchemicItemInfo *,ItemMaterialCompoundWnd::MaterialItemSort>
_TEXT	ENDS
PUBLIC	??$_Uninit_move@PAUNewShopPullDownItem@@PAU1@V?$allocator@UNewShopPullDownItem@@@std@@U1@@std@@YAPAUNewShopPullDownItem@@PAU1@00AAV?$allocator@UNewShopPullDownItem@@@0@0U_Nonscalar_ptr_iterator_tag@0@@Z ; std::_Uninit_move<NewShopPullDownItem *,NewShopPullDownItem *,std::allocator<NewShopPullDownItem>,NewShopPullDownItem>
;	COMDAT xdata$x
; File c:\program files (x86)\microsoft visual studio 10.0\vc\include\xmemory
xdata$x	SEGMENT
__catchsym$??$_Uninit_move@PAUNewShopPullDownItem@@PAU1@V?$allocator@UNewShopPullDownItem@@@std@@U1@@std@@YAPAUNewShopPullDownItem@@PAU1@00AAV?$allocator@UNewShopPullDownItem@@@0@0U_Nonscalar_ptr_iterator_tag@0@@Z$2 DD 040H
	DD	00H
	DD	00H
	DD	FLAT:__catch$??$_Uninit_move@PAUNewShopPullDownItem@@PAU1@V?$allocator@UNewShopPullDownItem@@@std@@U1@@std@@YAPAUNewShopPullDownItem@@PAU1@00AAV?$allocator@UNewShopPullDownItem@@@0@0U_Nonscalar_ptr_iterator_tag@0@@Z$0
__unwindtable$??$_Uninit_move@PAUNewShopPullDownItem@@PAU1@V?$allocator@UNewShopPullDownItem@@@std@@U1@@std@@YAPAUNewShopPullDownItem@@PAU1@00AAV?$allocator@UNewShopPullDownItem@@@0@0U_Nonscalar_ptr_iterator_tag@0@@Z DD 0ffffffffH
	DD	00H
	DD	0ffffffffH
	DD	00H
__tryblocktable$??$_Uninit_move@PAUNewShopPullDownItem@@PAU1@V?$allocator@UNewShopPullDownItem@@@std@@U1@@std@@YAPAUNewShopPullDownItem@@PAU1@00AAV?$allocator@UNewShopPullDownItem@@@0@0U_Nonscalar_ptr_iterator_tag@0@@Z DD 00H
	DD	00H
	DD	01H
	DD	01H
	DD	FLAT:__catchsym$??$_Uninit_move@PAUNewShopPullDownItem@@PAU1@V?$allocator@UNewShopPullDownItem@@@std@@U1@@std@@YAPAUNewShopPullDownItem@@PAU1@00AAV?$allocator@UNewShopPullDownItem@@@0@0U_Nonscalar_ptr_iterator_tag@0@@Z$2
__ehfuncinfo$??$_Uninit_move@PAUNewShopPullDownItem@@PAU1@V?$allocator@UNewShopPullDownItem@@@std@@U1@@std@@YAPAUNewShopPullDownItem@@PAU1@00AAV?$allocator@UNewShopPullDownItem@@@0@0U_Nonscalar_ptr_iterator_tag@0@@Z DD 019930522H
	DD	02H
	DD	FLAT:__unwindtable$??$_Uninit_move@PAUNewShopPullDownItem@@PAU1@V?$allocator@UNewShopPullDownItem@@@std@@U1@@std@@YAPAUNewShopPullDownItem@@PAU1@00AAV?$allocator@UNewShopPullDownItem@@@0@0U_Nonscalar_ptr_iterator_tag@0@@Z
	DD	01H
	DD	FLAT:__tryblocktable$??$_Uninit_move@PAUNewShopPullDownItem@@PAU1@V?$allocator@UNewShopPullDownItem@@@std@@U1@@std@@YAPAUNewShopPullDownItem@@PAU1@00AAV?$allocator@UNewShopPullDownItem@@@0@0U_Nonscalar_ptr_iterator_tag@0@@Z
	DD	2 DUP(00H)
	DD	00H
	DD	01H
; Function compile flags: /Ogsp
; File c:\program files (x86)\microsoft visual studio 10.0\vc\include\memory
xdata$x	ENDS
;	COMDAT ??$_Uninit_move@PAUNewShopPullDownItem@@PAU1@V?$allocator@UNewShopPullDownItem@@@std@@U1@@std@@YAPAUNewShopPullDownItem@@PAU1@00AAV?$allocator@UNewShopPullDownItem@@@0@0U_Nonscalar_ptr_iterator_tag@0@@Z
_TEXT	SEGMENT
__Next$ = -20						; size = 4
__$EHRec$ = -16						; size = 16
__First$ = 8						; size = 4
__Last$ = 12						; size = 4
__Dest$ = 16						; size = 4
__Al$ = 20						; size = 4
___formal$ = 24						; size = 4
___formal$ = 28						; size = 1
??$_Uninit_move@PAUNewShopPullDownItem@@PAU1@V?$allocator@UNewShopPullDownItem@@@std@@U1@@std@@YAPAUNewShopPullDownItem@@PAU1@00AAV?$allocator@UNewShopPullDownItem@@@0@0U_Nonscalar_ptr_iterator_tag@0@@Z PROC ; std::_Uninit_move<NewShopPullDownItem *,NewShopPullDownItem *,std::allocator<NewShopPullDownItem>,NewShopPullDownItem>, COMDAT

; 424  : 	{	// move [_First, _Last) to raw _Dest, using _Al, arbitrary type

  00000	6a 08		 push	 8
  00002	b8 00 00 00 00	 mov	 eax, __ehhandler$??$_Uninit_move@PAUNewShopPullDownItem@@PAU1@V?$allocator@UNewShopPullDownItem@@@std@@U1@@std@@YAPAUNewShopPullDownItem@@PAU1@00AAV?$allocator@UNewShopPullDownItem@@@0@0U_Nonscalar_ptr_iterator_tag@0@@Z
  00007	e8 00 00 00 00	 call	 __EH_prolog3_catch

; 425  : 	_DEBUG_RANGE(_First, _Last);
; 426  : 	_DEBUG_POINTER(_Dest);
; 427  : 	_FwdIt _Next = _Dest;

  0000c	8b 45 10	 mov	 eax, DWORD PTR __Dest$[ebp]

; 428  : 
; 429  : 	_TRY_BEGIN

  0000f	83 65 fc 00	 and	 DWORD PTR __$EHRec$[ebp+12], 0
  00013	8b 75 08	 mov	 esi, DWORD PTR __First$[ebp]
  00016	89 45 ec	 mov	 DWORD PTR __Next$[ebp], eax
$LL6@Uninit_mov@2:

; 430  : 	for (; _First != _Last; ++_Dest, ++_First)

  00019	3b 75 0c	 cmp	 esi, DWORD PTR __Last$[ebp]
  0001c	74 35		 je	 SHORT $LN4@Uninit_mov@2

; 431  : 		_Cons_val(_Al, _Dest, (_Valty &&)*_First);

  0001e	56		 push	 esi
  0001f	ff 75 10	 push	 DWORD PTR __Dest$[ebp]
  00022	ff 75 14	 push	 DWORD PTR __Al$[ebp]
  00025	e8 00 00 00 00	 call	 ??$_Cons_val@V?$allocator@UNewShopPullDownItem@@@std@@UNewShopPullDownItem@@U3@@std@@YAXAAV?$allocator@UNewShopPullDownItem@@@0@PAUNewShopPullDownItem@@$$QAU2@@Z ; std::_Cons_val<std::allocator<NewShopPullDownItem>,NewShopPullDownItem,NewShopPullDownItem>
  0002a	83 45 10 50	 add	 DWORD PTR __Dest$[ebp], 80 ; 00000050H
  0002e	83 c4 0c	 add	 esp, 12			; 0000000cH
  00031	83 c6 50	 add	 esi, 80			; 00000050H
  00034	eb e3		 jmp	 SHORT $LL6@Uninit_mov@2
__catch$??$_Uninit_move@PAUNewShopPullDownItem@@PAU1@V?$allocator@UNewShopPullDownItem@@@std@@U1@@std@@YAPAUNewShopPullDownItem@@PAU1@00AAV?$allocator@UNewShopPullDownItem@@@0@0U_Nonscalar_ptr_iterator_tag@0@@Z$0:

; 432  : 	_CATCH_ALL
; 433  : 	for (; _Next != _Dest; ++_Next)

  00036	8b 75 ec	 mov	 esi, DWORD PTR __Next$[ebp]
  00039	eb 0a		 jmp	 SHORT $LN29@Uninit_mov@2
$LL3@Uninit_mov@2:

; 434  : 		_Dest_val(_Al, _Next);

  0003b	8b ce		 mov	 ecx, esi
  0003d	e8 00 00 00 00	 call	 ??1NewShopPullDownItem@@QAE@XZ
  00042	83 c6 50	 add	 esi, 80			; 00000050H
$LN29@Uninit_mov@2:

; 432  : 	_CATCH_ALL
; 433  : 	for (; _Next != _Dest; ++_Next)

  00045	3b 75 10	 cmp	 esi, DWORD PTR __Dest$[ebp]
  00048	75 f1		 jne	 SHORT $LL3@Uninit_mov@2

; 435  : 	_RERAISE;

  0004a	6a 00		 push	 0
  0004c	6a 00		 push	 0
  0004e	e8 00 00 00 00	 call	 __CxxThrowException@8
$LN30@Uninit_mov@2:
$LN4@Uninit_mov@2:

; 436  : 	_CATCH_END
; 437  : 	return (_Dest);

  00053	8b 45 10	 mov	 eax, DWORD PTR __Dest$[ebp]

; 438  : 	}

  00056	e8 00 00 00 00	 call	 __EH_epilog3
  0005b	c3		 ret	 0
$LN28@Uninit_mov@2:
_TEXT	ENDS
;	COMDAT text$x
text$x	SEGMENT
__ehhandler$??$_Uninit_move@PAUNewShopPullDownItem@@PAU1@V?$allocator@UNewShopPullDownItem@@@std@@U1@@std@@YAPAUNewShopPullDownItem@@PAU1@00AAV?$allocator@UNewShopPullDownItem@@@0@0U_Nonscalar_ptr_iterator_tag@0@@Z:
  00000	8b 54 24 08	 mov	 edx, DWORD PTR [esp+8]
  00004	8d 42 0c	 lea	 eax, DWORD PTR [edx+12]
  00007	8b 4a e8	 mov	 ecx, DWORD PTR [edx-24]
  0000a	33 c8		 xor	 ecx, eax
  0000c	e8 00 00 00 00	 call	 @__security_check_cookie@4
  00011	b8 00 00 00 00	 mov	 eax, OFFSET __ehfuncinfo$??$_Uninit_move@PAUNewShopPullDownItem@@PAU1@V?$allocator@UNewShopPullDownItem@@@std@@U1@@std@@YAPAUNewShopPullDownItem@@PAU1@00AAV?$allocator@UNewShopPullDownItem@@@0@0U_Nonscalar_ptr_iterator_tag@0@@Z
  00016	e9 00 00 00 00	 jmp	 ___CxxFrameHandler3
text$x	ENDS
??$_Uninit_move@PAUNewShopPullDownItem@@PAU1@V?$allocator@UNewShopPullDownItem@@@std@@U1@@std@@YAPAUNewShopPullDownItem@@PAU1@00AAV?$allocator@UNewShopPullDownItem@@@0@0U_Nonscalar_ptr_iterator_tag@0@@Z ENDP ; std::_Uninit_move<NewShopPullDownItem *,NewShopPullDownItem *,std::allocator<NewShopPullDownItem>,NewShopPullDownItem>
PUBLIC	??$_Sort_heap@PAUtagAlchemicItemInfo@@VMaterialItemSort@ItemMaterialCompoundWnd@@@std@@YAXPAUtagAlchemicItemInfo@@0VMaterialItemSort@ItemMaterialCompoundWnd@@@Z ; std::_Sort_heap<tagAlchemicItemInfo *,ItemMaterialCompoundWnd::MaterialItemSort>
; Function compile flags: /Ogsp
; File c:\program files (x86)\microsoft visual studio 10.0\vc\include\algorithm
;	COMDAT ??$_Sort_heap@PAUtagAlchemicItemInfo@@VMaterialItemSort@ItemMaterialCompoundWnd@@@std@@YAXPAUtagAlchemicItemInfo@@0VMaterialItemSort@ItemMaterialCompoundWnd@@@Z
_TEXT	SEGMENT
__First$ = 8						; size = 4
__Last$ = 12						; size = 4
__Pred$ = 16						; size = 1
??$_Sort_heap@PAUtagAlchemicItemInfo@@VMaterialItemSort@ItemMaterialCompoundWnd@@@std@@YAXPAUtagAlchemicItemInfo@@0VMaterialItemSort@ItemMaterialCompoundWnd@@@Z PROC ; std::_Sort_heap<tagAlchemicItemInfo *,ItemMaterialCompoundWnd::MaterialItemSort>, COMDAT

; 2700 : 	{	// order heap by repeatedly popping, using _Pred

  00000	55		 push	 ebp
  00001	8b ec		 mov	 ebp, esp

; 2701 : 	for (; 1 < _Last - _First; --_Last)

  00003	8b 4d 0c	 mov	 ecx, DWORD PTR __Last$[ebp]
  00006	2b 4d 08	 sub	 ecx, DWORD PTR __First$[ebp]
  00009	57		 push	 edi
  0000a	8b c1		 mov	 eax, ecx
  0000c	6a 1c		 push	 28			; 0000001cH
  0000e	99		 cdq
  0000f	5f		 pop	 edi
  00010	f7 ff		 idiv	 edi
  00012	83 f8 01	 cmp	 eax, 1
  00015	7e 29		 jle	 SHORT $LN1@Sort_heap
  00017	8b f9		 mov	 edi, ecx
$LL3@Sort_heap:

; 2702 : 		_Pop_heap(_First, _Last, _Pred);

  00019	6a 00		 push	 0
  0001b	ff 75 10	 push	 DWORD PTR __Pred$[ebp]
  0001e	ff 75 0c	 push	 DWORD PTR __Last$[ebp]
  00021	ff 75 08	 push	 DWORD PTR __First$[ebp]
  00024	e8 00 00 00 00	 call	 ??$_Pop_heap_0@PAUtagAlchemicItemInfo@@U1@VMaterialItemSort@ItemMaterialCompoundWnd@@@std@@YAXPAUtagAlchemicItemInfo@@0VMaterialItemSort@ItemMaterialCompoundWnd@@0@Z ; std::_Pop_heap_0<tagAlchemicItemInfo *,tagAlchemicItemInfo,ItemMaterialCompoundWnd::MaterialItemSort>
  00029	83 c4 10	 add	 esp, 16			; 00000010H
  0002c	83 ef 1c	 sub	 edi, 28			; 0000001cH
  0002f	8b c7		 mov	 eax, edi
  00031	6a 1c		 push	 28			; 0000001cH
  00033	99		 cdq
  00034	59		 pop	 ecx
  00035	f7 f9		 idiv	 ecx
  00037	83 6d 0c 1c	 sub	 DWORD PTR __Last$[ebp], 28 ; 0000001cH
  0003b	83 f8 01	 cmp	 eax, 1
  0003e	7f d9		 jg	 SHORT $LL3@Sort_heap
$LN1@Sort_heap:
  00040	5f		 pop	 edi

; 2703 : 	}

  00041	5d		 pop	 ebp
  00042	c3		 ret	 0
??$_Sort_heap@PAUtagAlchemicItemInfo@@VMaterialItemSort@ItemMaterialCompoundWnd@@@std@@YAXPAUtagAlchemicItemInfo@@0VMaterialItemSort@ItemMaterialCompoundWnd@@@Z ENDP ; std::_Sort_heap<tagAlchemicItemInfo *,ItemMaterialCompoundWnd::MaterialItemSort>
_TEXT	ENDS
PUBLIC	??$_Destroy_range@V?$allocator@UNewShopPullDownItem@@@std@@@std@@YAXPAUNewShopPullDownItem@@0AAV?$allocator@UNewShopPullDownItem@@@0@@Z ; std::_Destroy_range<std::allocator<NewShopPullDownItem> >
; Function compile flags: /Ogsp
; File c:\program files (x86)\microsoft visual studio 10.0\vc\include\xmemory
;	COMDAT ??$_Destroy_range@V?$allocator@UNewShopPullDownItem@@@std@@@std@@YAXPAUNewShopPullDownItem@@0AAV?$allocator@UNewShopPullDownItem@@@0@@Z
_TEXT	SEGMENT
__First$ = 8						; size = 4
__Last$ = 12						; size = 4
__Al$ = 16						; size = 4
??$_Destroy_range@V?$allocator@UNewShopPullDownItem@@@std@@@std@@YAXPAUNewShopPullDownItem@@0AAV?$allocator@UNewShopPullDownItem@@@0@@Z PROC ; std::_Destroy_range<std::allocator<NewShopPullDownItem> >, COMDAT

; 87   : 	{	// destroy [_First, _Last)

  00000	55		 push	 ebp
  00001	8b ec		 mov	 ebp, esp
  00003	56		 push	 esi

; 88   : 	_Destroy_range(_First, _Last, _Al, _Ptr_cat(_First, _Last));

  00004	8b 75 08	 mov	 esi, DWORD PTR __First$[ebp]
  00007	eb 0a		 jmp	 SHORT $LN21@Destroy_ra@3
$LL7@Destroy_ra@3:
  00009	8b ce		 mov	 ecx, esi
  0000b	e8 00 00 00 00	 call	 ??1NewShopPullDownItem@@QAE@XZ
  00010	83 c6 50	 add	 esi, 80			; 00000050H
$LN21@Destroy_ra@3:
  00013	3b 75 0c	 cmp	 esi, DWORD PTR __Last$[ebp]
  00016	75 f1		 jne	 SHORT $LL7@Destroy_ra@3
  00018	5e		 pop	 esi

; 89   : 	}

  00019	5d		 pop	 ebp
  0001a	c3		 ret	 0
??$_Destroy_range@V?$allocator@UNewShopPullDownItem@@@std@@@std@@YAXPAUNewShopPullDownItem@@0AAV?$allocator@UNewShopPullDownItem@@@0@@Z ENDP ; std::_Destroy_range<std::allocator<NewShopPullDownItem> >
_TEXT	ENDS
PUBLIC	??$_Destroy_range@V?$allocator@UtagAlchemicItemInfo@@@std@@@std@@YAXPAUtagAlchemicItemInfo@@0AAV?$allocator@UtagAlchemicItemInfo@@@0@@Z ; std::_Destroy_range<std::allocator<tagAlchemicItemInfo> >
; Function compile flags: /Ogsp
;	COMDAT ??$_Destroy_range@V?$allocator@UtagAlchemicItemInfo@@@std@@@std@@YAXPAUtagAlchemicItemInfo@@0AAV?$allocator@UtagAlchemicItemInfo@@@0@@Z
_TEXT	SEGMENT
__First$ = 8						; size = 4
__Last$ = 12						; size = 4
__Al$ = 16						; size = 4
??$_Destroy_range@V?$allocator@UtagAlchemicItemInfo@@@std@@@std@@YAXPAUtagAlchemicItemInfo@@0AAV?$allocator@UtagAlchemicItemInfo@@@0@@Z PROC ; std::_Destroy_range<std::allocator<tagAlchemicItemInfo> >, COMDAT

; 87   : 	{	// destroy [_First, _Last)

  00000	55		 push	 ebp
  00001	8b ec		 mov	 ebp, esp
  00003	56		 push	 esi

; 88   : 	_Destroy_range(_First, _Last, _Al, _Ptr_cat(_First, _Last));

  00004	8b 75 08	 mov	 esi, DWORD PTR __First$[ebp]
  00007	eb 0c		 jmp	 SHORT $LN24@Destroy_ra@4
$LL7@Destroy_ra@4:
  00009	8d 4e 08	 lea	 ecx, DWORD PTR [esi+8]
  0000c	ff 15 00 00 00
	00		 call	 DWORD PTR __imp_??1ioHashString@@QAE@XZ
  00012	83 c6 1c	 add	 esi, 28			; 0000001cH
$LN24@Destroy_ra@4:
  00015	3b 75 0c	 cmp	 esi, DWORD PTR __Last$[ebp]
  00018	75 ef		 jne	 SHORT $LL7@Destroy_ra@4
  0001a	5e		 pop	 esi

; 89   : 	}

  0001b	5d		 pop	 ebp
  0001c	c3		 ret	 0
??$_Destroy_range@V?$allocator@UtagAlchemicItemInfo@@@std@@@std@@YAXPAUtagAlchemicItemInfo@@0AAV?$allocator@UtagAlchemicItemInfo@@@0@@Z ENDP ; std::_Destroy_range<std::allocator<tagAlchemicItemInfo> >
_TEXT	ENDS
PUBLIC	??$_Umove@PAUtagAlchemicItemInfo@@@?$vector@UtagAlchemicItemInfo@@V?$allocator@UtagAlchemicItemInfo@@@std@@@std@@IAEPAUtagAlchemicItemInfo@@PAU2@00@Z ; std::vector<tagAlchemicItemInfo,std::allocator<tagAlchemicItemInfo> >::_Umove<tagAlchemicItemInfo *>
; Function compile flags: /Ogsp
; File c:\program files (x86)\microsoft visual studio 10.0\vc\include\vector
;	COMDAT ??$_Umove@PAUtagAlchemicItemInfo@@@?$vector@UtagAlchemicItemInfo@@V?$allocator@UtagAlchemicItemInfo@@@std@@@std@@IAEPAUtagAlchemicItemInfo@@PAU2@00@Z
_TEXT	SEGMENT
__First$ = 8						; size = 4
__Last$ = 12						; size = 4
__Ptr$ = 16						; size = 4
??$_Umove@PAUtagAlchemicItemInfo@@@?$vector@UtagAlchemicItemInfo@@V?$allocator@UtagAlchemicItemInfo@@@std@@@std@@IAEPAUtagAlchemicItemInfo@@PAU2@00@Z PROC ; std::vector<tagAlchemicItemInfo,std::allocator<tagAlchemicItemInfo> >::_Umove<tagAlchemicItemInfo *>, COMDAT
; _this$ = ecx

; 1322 : 		pointer _Umove(_Iter _First, _Iter _Last, pointer _Ptr)

  00000	55		 push	 ebp
  00001	8b ec		 mov	 ebp, esp

; 1323 : 		{	// move initializing [_First, _Last), using allocator
; 1324 : 		return (_Uninitialized_move(_First, _Last,
; 1325 : 			_Ptr, this->_Alval));

  00003	83 c1 0c	 add	 ecx, 12			; 0000000cH
  00006	51		 push	 ecx
  00007	ff 75 10	 push	 DWORD PTR __Ptr$[ebp]
  0000a	ff 75 0c	 push	 DWORD PTR __Last$[ebp]
  0000d	ff 75 08	 push	 DWORD PTR __First$[ebp]
  00010	e8 00 00 00 00	 call	 ??$_Uninitialized_move@PAUtagAlchemicItemInfo@@PAU1@V?$allocator@UtagAlchemicItemInfo@@@std@@@std@@YAPAUtagAlchemicItemInfo@@PAU1@00AAV?$allocator@UtagAlchemicItemInfo@@@0@@Z ; std::_Uninitialized_move<tagAlchemicItemInfo *,tagAlchemicItemInfo *,std::allocator<tagAlchemicItemInfo> >
  00015	83 c4 10	 add	 esp, 16			; 00000010H

; 1326 : 		}

  00018	5d		 pop	 ebp
  00019	c2 0c 00	 ret	 12			; 0000000cH
??$_Umove@PAUtagAlchemicItemInfo@@@?$vector@UtagAlchemicItemInfo@@V?$allocator@UtagAlchemicItemInfo@@@std@@@std@@IAEPAUtagAlchemicItemInfo@@PAU2@00@Z ENDP ; std::vector<tagAlchemicItemInfo,std::allocator<tagAlchemicItemInfo> >::_Umove<tagAlchemicItemInfo *>
_TEXT	ENDS
PUBLIC	??$_Uninitialized_move@PAUNewShopPullDownItem@@PAU1@V?$allocator@UNewShopPullDownItem@@@std@@@std@@YAPAUNewShopPullDownItem@@PAU1@00AAV?$allocator@UNewShopPullDownItem@@@0@@Z ; std::_Uninitialized_move<NewShopPullDownItem *,NewShopPullDownItem *,std::allocator<NewShopPullDownItem> >
; Function compile flags: /Ogsp
; File c:\program files (x86)\microsoft visual studio 10.0\vc\include\memory
;	COMDAT ??$_Uninitialized_move@PAUNewShopPullDownItem@@PAU1@V?$allocator@UNewShopPullDownItem@@@std@@@std@@YAPAUNewShopPullDownItem@@PAU1@00AAV?$allocator@UNewShopPullDownItem@@@0@@Z
_TEXT	SEGMENT
__Cat$514434 = -4					; size = 1
__First$ = 8						; size = 4
__Last$ = 12						; size = 4
__Dest$ = 16						; size = 4
__Al$ = 20						; size = 4
??$_Uninitialized_move@PAUNewShopPullDownItem@@PAU1@V?$allocator@UNewShopPullDownItem@@@std@@@std@@YAPAUNewShopPullDownItem@@PAU1@00AAV?$allocator@UNewShopPullDownItem@@@0@@Z PROC ; std::_Uninitialized_move<NewShopPullDownItem *,NewShopPullDownItem *,std::allocator<NewShopPullDownItem> >, COMDAT

; 469  : 	{	// move [_First, _Last) to raw _Dest, using _Al

  00000	55		 push	 ebp
  00001	8b ec		 mov	 ebp, esp
  00003	51		 push	 ecx

; 470  : 	return (_Uninit_move(_First, _Last, _Dest, _Al,
; 471  : 		_Val_type(_First), _Ptr_cat(_First, _Dest)));

  00004	ff 75 fc	 push	 DWORD PTR __Cat$514434[ebp]
  00007	6a 00		 push	 0
  00009	ff 75 14	 push	 DWORD PTR __Al$[ebp]
  0000c	ff 75 10	 push	 DWORD PTR __Dest$[ebp]
  0000f	ff 75 0c	 push	 DWORD PTR __Last$[ebp]
  00012	ff 75 08	 push	 DWORD PTR __First$[ebp]
  00015	e8 00 00 00 00	 call	 ??$_Uninit_move@PAUNewShopPullDownItem@@PAU1@V?$allocator@UNewShopPullDownItem@@@std@@U1@@std@@YAPAUNewShopPullDownItem@@PAU1@00AAV?$allocator@UNewShopPullDownItem@@@0@0U_Nonscalar_ptr_iterator_tag@0@@Z ; std::_Uninit_move<NewShopPullDownItem *,NewShopPullDownItem *,std::allocator<NewShopPullDownItem>,NewShopPullDownItem>
  0001a	83 c4 18	 add	 esp, 24			; 00000018H

; 472  : 	}

  0001d	c9		 leave
  0001e	c3		 ret	 0
??$_Uninitialized_move@PAUNewShopPullDownItem@@PAU1@V?$allocator@UNewShopPullDownItem@@@std@@@std@@YAPAUNewShopPullDownItem@@PAU1@00AAV?$allocator@UNewShopPullDownItem@@@0@@Z ENDP ; std::_Uninitialized_move<NewShopPullDownItem *,NewShopPullDownItem *,std::allocator<NewShopPullDownItem> >
_TEXT	ENDS
PUBLIC	??$sort_heap@PAUtagAlchemicItemInfo@@VMaterialItemSort@ItemMaterialCompoundWnd@@@std@@YAXPAUtagAlchemicItemInfo@@0VMaterialItemSort@ItemMaterialCompoundWnd@@@Z ; std::sort_heap<tagAlchemicItemInfo *,ItemMaterialCompoundWnd::MaterialItemSort>
; Function compile flags: /Ogsp
; File c:\program files (x86)\microsoft visual studio 10.0\vc\include\algorithm
;	COMDAT ??$sort_heap@PAUtagAlchemicItemInfo@@VMaterialItemSort@ItemMaterialCompoundWnd@@@std@@YAXPAUtagAlchemicItemInfo@@0VMaterialItemSort@ItemMaterialCompoundWnd@@@Z
_TEXT	SEGMENT
__First$ = 8						; size = 4
__Last$ = 12						; size = 4
__Pred$ = 16						; size = 1
??$sort_heap@PAUtagAlchemicItemInfo@@VMaterialItemSort@ItemMaterialCompoundWnd@@@std@@YAXPAUtagAlchemicItemInfo@@0VMaterialItemSort@ItemMaterialCompoundWnd@@@Z PROC ; std::sort_heap<tagAlchemicItemInfo *,ItemMaterialCompoundWnd::MaterialItemSort>, COMDAT

; 2708 : 	{	// order heap by repeatedly popping, using _Pred

  00000	55		 push	 ebp
  00001	8b ec		 mov	 ebp, esp

; 2709 : 	_DEBUG_RANGE(_First, _Last);
; 2710 : 	_DEBUG_POINTER(_Pred);
; 2711 : 	_DEBUG_HEAP_PRED(_First, _Last, _Pred);
; 2712 : 	_Sort_heap(_Unchecked(_First), _Unchecked(_Last), _Pred);

  00003	ff 75 10	 push	 DWORD PTR __Pred$[ebp]
  00006	ff 75 0c	 push	 DWORD PTR __Last$[ebp]
  00009	ff 75 08	 push	 DWORD PTR __First$[ebp]
  0000c	e8 00 00 00 00	 call	 ??$_Sort_heap@PAUtagAlchemicItemInfo@@VMaterialItemSort@ItemMaterialCompoundWnd@@@std@@YAXPAUtagAlchemicItemInfo@@0VMaterialItemSort@ItemMaterialCompoundWnd@@@Z ; std::_Sort_heap<tagAlchemicItemInfo *,ItemMaterialCompoundWnd::MaterialItemSort>
  00011	83 c4 0c	 add	 esp, 12			; 0000000cH

; 2713 : 	}

  00014	5d		 pop	 ebp
  00015	c3		 ret	 0
??$sort_heap@PAUtagAlchemicItemInfo@@VMaterialItemSort@ItemMaterialCompoundWnd@@@std@@YAXPAUtagAlchemicItemInfo@@0VMaterialItemSort@ItemMaterialCompoundWnd@@@Z ENDP ; std::sort_heap<tagAlchemicItemInfo *,ItemMaterialCompoundWnd::MaterialItemSort>
_TEXT	ENDS
PUBLIC	?_Destroy@?$vector@UNewShopPullDownItem@@V?$allocator@UNewShopPullDownItem@@@std@@@std@@IAEXPAUNewShopPullDownItem@@0@Z ; std::vector<NewShopPullDownItem,std::allocator<NewShopPullDownItem> >::_Destroy
; Function compile flags: /Ogsp
; File c:\program files (x86)\microsoft visual studio 10.0\vc\include\vector
;	COMDAT ?_Destroy@?$vector@UNewShopPullDownItem@@V?$allocator@UNewShopPullDownItem@@@std@@@std@@IAEXPAUNewShopPullDownItem@@0@Z
_TEXT	SEGMENT
__First$ = 8						; size = 4
__Last$ = 12						; size = 4
?_Destroy@?$vector@UNewShopPullDownItem@@V?$allocator@UNewShopPullDownItem@@@std@@@std@@IAEXPAUNewShopPullDownItem@@0@Z PROC ; std::vector<NewShopPullDownItem,std::allocator<NewShopPullDownItem> >::_Destroy, COMDAT
; _this$ = ecx

; 1269 : 		{	// destroy [_First, _Last) using allocator

  00000	55		 push	 ebp
  00001	8b ec		 mov	 ebp, esp
  00003	56		 push	 esi

; 1270 : 		_Destroy_range(_First, _Last, this->_Alval);

  00004	8b 75 08	 mov	 esi, DWORD PTR __First$[ebp]
  00007	eb 0a		 jmp	 SHORT $LN23@Destroy
$LL9@Destroy:
  00009	8b ce		 mov	 ecx, esi
  0000b	e8 00 00 00 00	 call	 ??1NewShopPullDownItem@@QAE@XZ
  00010	83 c6 50	 add	 esi, 80			; 00000050H
$LN23@Destroy:
  00013	3b 75 0c	 cmp	 esi, DWORD PTR __Last$[ebp]
  00016	75 f1		 jne	 SHORT $LL9@Destroy
  00018	5e		 pop	 esi

; 1271 : 		}

  00019	5d		 pop	 ebp
  0001a	c2 08 00	 ret	 8
?_Destroy@?$vector@UNewShopPullDownItem@@V?$allocator@UNewShopPullDownItem@@@std@@@std@@IAEXPAUNewShopPullDownItem@@0@Z ENDP ; std::vector<NewShopPullDownItem,std::allocator<NewShopPullDownItem> >::_Destroy
_TEXT	ENDS
PUBLIC	?_Tidy@?$vector@UNewShopPullDownItem@@V?$allocator@UNewShopPullDownItem@@@std@@@std@@IAEXXZ ; std::vector<NewShopPullDownItem,std::allocator<NewShopPullDownItem> >::_Tidy
EXTRN	__imp_?_Orphan_all@_Container_base0@std@@QAEXXZ:PROC
; Function compile flags: /Ogsp
;	COMDAT ?_Tidy@?$vector@UNewShopPullDownItem@@V?$allocator@UNewShopPullDownItem@@@std@@@std@@IAEXXZ
_TEXT	SEGMENT
?_Tidy@?$vector@UNewShopPullDownItem@@V?$allocator@UNewShopPullDownItem@@@std@@@std@@IAEXXZ PROC ; std::vector<NewShopPullDownItem,std::allocator<NewShopPullDownItem> >::_Tidy, COMDAT
; _this$ = ecx

; 1301 : 		{	// free all storage

  00000	56		 push	 esi
  00001	8b f1		 mov	 esi, ecx

; 1302 : 		if (this->_Myfirst != 0)

  00003	83 3e 00	 cmp	 DWORD PTR [esi], 0
  00006	74 27		 je	 SHORT $LN24@Tidy

; 1303 : 			{	// something to free, destroy and deallocate it
; 1304 : 			this->_Orphan_all();

  00008	53		 push	 ebx
  00009	57		 push	 edi
  0000a	ff 15 00 00 00
	00		 call	 DWORD PTR __imp_?_Orphan_all@_Container_base0@std@@QAEXXZ

; 1305 : 			_Destroy(this->_Myfirst, this->_Mylast);

  00010	8b 5e 04	 mov	 ebx, DWORD PTR [esi+4]
  00013	8b 3e		 mov	 edi, DWORD PTR [esi]
  00015	eb 0a		 jmp	 SHORT $LN28@Tidy
$LL12@Tidy:
  00017	8b cf		 mov	 ecx, edi
  00019	e8 00 00 00 00	 call	 ??1NewShopPullDownItem@@QAE@XZ
  0001e	83 c7 50	 add	 edi, 80			; 00000050H
$LN28@Tidy:
  00021	3b fb		 cmp	 edi, ebx
  00023	75 f2		 jne	 SHORT $LL12@Tidy

; 1306 : 			this->_Alval.deallocate(this->_Myfirst,
; 1307 : 				this->_Myend - this->_Myfirst);

  00025	ff 36		 push	 DWORD PTR [esi]
  00027	e8 00 00 00 00	 call	 ??3@YAXPAX@Z		; operator delete
  0002c	59		 pop	 ecx
  0002d	5f		 pop	 edi
  0002e	5b		 pop	 ebx
$LN24@Tidy:

; 1308 : 			}
; 1309 : 		this->_Myfirst = 0;

  0002f	33 c0		 xor	 eax, eax
  00031	89 06		 mov	 DWORD PTR [esi], eax

; 1310 : 		this->_Mylast = 0;

  00033	89 46 04	 mov	 DWORD PTR [esi+4], eax

; 1311 : 		this->_Myend = 0;

  00036	89 46 08	 mov	 DWORD PTR [esi+8], eax
  00039	5e		 pop	 esi

; 1312 : 		}

  0003a	c3		 ret	 0
?_Tidy@?$vector@UNewShopPullDownItem@@V?$allocator@UNewShopPullDownItem@@@std@@@std@@IAEXXZ ENDP ; std::vector<NewShopPullDownItem,std::allocator<NewShopPullDownItem> >::_Tidy
_TEXT	ENDS
PUBLIC	?_Destroy@?$vector@UtagAlchemicItemInfo@@V?$allocator@UtagAlchemicItemInfo@@@std@@@std@@IAEXPAUtagAlchemicItemInfo@@0@Z ; std::vector<tagAlchemicItemInfo,std::allocator<tagAlchemicItemInfo> >::_Destroy
; Function compile flags: /Ogsp
;	COMDAT ?_Destroy@?$vector@UtagAlchemicItemInfo@@V?$allocator@UtagAlchemicItemInfo@@@std@@@std@@IAEXPAUtagAlchemicItemInfo@@0@Z
_TEXT	SEGMENT
__First$ = 8						; size = 4
__Last$ = 12						; size = 4
?_Destroy@?$vector@UtagAlchemicItemInfo@@V?$allocator@UtagAlchemicItemInfo@@@std@@@std@@IAEXPAUtagAlchemicItemInfo@@0@Z PROC ; std::vector<tagAlchemicItemInfo,std::allocator<tagAlchemicItemInfo> >::_Destroy, COMDAT
; _this$ = ecx

; 1269 : 		{	// destroy [_First, _Last) using allocator

  00000	55		 push	 ebp
  00001	8b ec		 mov	 ebp, esp

; 1270 : 		_Destroy_range(_First, _Last, this->_Alval);

  00003	83 c1 0c	 add	 ecx, 12			; 0000000cH
  00006	51		 push	 ecx
  00007	ff 75 0c	 push	 DWORD PTR __Last$[ebp]
  0000a	ff 75 08	 push	 DWORD PTR __First$[ebp]
  0000d	e8 00 00 00 00	 call	 ??$_Destroy_range@V?$allocator@UtagAlchemicItemInfo@@@std@@@std@@YAXPAUtagAlchemicItemInfo@@0AAV?$allocator@UtagAlchemicItemInfo@@@0@@Z ; std::_Destroy_range<std::allocator<tagAlchemicItemInfo> >
  00012	83 c4 0c	 add	 esp, 12			; 0000000cH

; 1271 : 		}

  00015	5d		 pop	 ebp
  00016	c2 08 00	 ret	 8
?_Destroy@?$vector@UtagAlchemicItemInfo@@V?$allocator@UtagAlchemicItemInfo@@@std@@@std@@IAEXPAUtagAlchemicItemInfo@@0@Z ENDP ; std::vector<tagAlchemicItemInfo,std::allocator<tagAlchemicItemInfo> >::_Destroy
_TEXT	ENDS
PUBLIC	?_Tidy@?$vector@UtagAlchemicItemInfo@@V?$allocator@UtagAlchemicItemInfo@@@std@@@std@@IAEXXZ ; std::vector<tagAlchemicItemInfo,std::allocator<tagAlchemicItemInfo> >::_Tidy
; Function compile flags: /Ogsp
;	COMDAT ?_Tidy@?$vector@UtagAlchemicItemInfo@@V?$allocator@UtagAlchemicItemInfo@@@std@@@std@@IAEXXZ
_TEXT	SEGMENT
?_Tidy@?$vector@UtagAlchemicItemInfo@@V?$allocator@UtagAlchemicItemInfo@@@std@@@std@@IAEXXZ PROC ; std::vector<tagAlchemicItemInfo,std::allocator<tagAlchemicItemInfo> >::_Tidy, COMDAT
; _this$ = ecx

; 1301 : 		{	// free all storage

  00000	56		 push	 esi
  00001	8b f1		 mov	 esi, ecx

; 1302 : 		if (this->_Myfirst != 0)

  00003	83 3e 00	 cmp	 DWORD PTR [esi], 0
  00006	74 1e		 je	 SHORT $LN6@Tidy@2

; 1303 : 			{	// something to free, destroy and deallocate it
; 1304 : 			this->_Orphan_all();

  00008	ff 15 00 00 00
	00		 call	 DWORD PTR __imp_?_Orphan_all@_Container_base0@std@@QAEXXZ

; 1305 : 			_Destroy(this->_Myfirst, this->_Mylast);

  0000e	8d 46 0c	 lea	 eax, DWORD PTR [esi+12]
  00011	50		 push	 eax
  00012	ff 76 04	 push	 DWORD PTR [esi+4]
  00015	ff 36		 push	 DWORD PTR [esi]
  00017	e8 00 00 00 00	 call	 ??$_Destroy_range@V?$allocator@UtagAlchemicItemInfo@@@std@@@std@@YAXPAUtagAlchemicItemInfo@@0AAV?$allocator@UtagAlchemicItemInfo@@@0@@Z ; std::_Destroy_range<std::allocator<tagAlchemicItemInfo> >

; 1306 : 			this->_Alval.deallocate(this->_Myfirst,
; 1307 : 				this->_Myend - this->_Myfirst);

  0001c	ff 36		 push	 DWORD PTR [esi]
  0001e	e8 00 00 00 00	 call	 ??3@YAXPAX@Z		; operator delete
  00023	83 c4 10	 add	 esp, 16			; 00000010H
$LN6@Tidy@2:

; 1308 : 			}
; 1309 : 		this->_Myfirst = 0;

  00026	83 26 00	 and	 DWORD PTR [esi], 0

; 1310 : 		this->_Mylast = 0;

  00029	83 66 04 00	 and	 DWORD PTR [esi+4], 0

; 1311 : 		this->_Myend = 0;

  0002d	83 66 08 00	 and	 DWORD PTR [esi+8], 0
  00031	5e		 pop	 esi

; 1312 : 		}

  00032	c3		 ret	 0
?_Tidy@?$vector@UtagAlchemicItemInfo@@V?$allocator@UtagAlchemicItemInfo@@@std@@@std@@IAEXXZ ENDP ; std::vector<tagAlchemicItemInfo,std::allocator<tagAlchemicItemInfo> >::_Tidy
_TEXT	ENDS
PUBLIC	?reserve@?$vector@UtagAlchemicItemInfo@@V?$allocator@UtagAlchemicItemInfo@@@std@@@std@@QAEXI@Z ; std::vector<tagAlchemicItemInfo,std::allocator<tagAlchemicItemInfo> >::reserve
;	COMDAT xdata$x
; File c:\program files (x86)\microsoft visual studio 10.0\vc\include\xmemory
xdata$x	SEGMENT
__catchsym$?reserve@?$vector@UtagAlchemicItemInfo@@V?$allocator@UtagAlchemicItemInfo@@@std@@@std@@QAEXI@Z$2 DD 040H
	DD	00H
	DD	00H
	DD	FLAT:__catch$?reserve@?$vector@UtagAlchemicItemInfo@@V?$allocator@UtagAlchemicItemInfo@@@std@@@std@@QAEXI@Z$0
__unwindtable$?reserve@?$vector@UtagAlchemicItemInfo@@V?$allocator@UtagAlchemicItemInfo@@@std@@@std@@QAEXI@Z DD 0ffffffffH
	DD	00H
	DD	0ffffffffH
	DD	00H
__tryblocktable$?reserve@?$vector@UtagAlchemicItemInfo@@V?$allocator@UtagAlchemicItemInfo@@@std@@@std@@QAEXI@Z DD 00H
	DD	00H
	DD	01H
	DD	01H
	DD	FLAT:__catchsym$?reserve@?$vector@UtagAlchemicItemInfo@@V?$allocator@UtagAlchemicItemInfo@@@std@@@std@@QAEXI@Z$2
__ehfuncinfo$?reserve@?$vector@UtagAlchemicItemInfo@@V?$allocator@UtagAlchemicItemInfo@@@std@@@std@@QAEXI@Z DD 019930522H
	DD	02H
	DD	FLAT:__unwindtable$?reserve@?$vector@UtagAlchemicItemInfo@@V?$allocator@UtagAlchemicItemInfo@@@std@@@std@@QAEXI@Z
	DD	01H
	DD	FLAT:__tryblocktable$?reserve@?$vector@UtagAlchemicItemInfo@@V?$allocator@UtagAlchemicItemInfo@@@std@@@std@@QAEXI@Z
	DD	2 DUP(00H)
	DD	00H
	DD	01H
; Function compile flags: /Ogsp
; File c:\program files (x86)\microsoft visual studio 10.0\vc\include\vector
xdata$x	ENDS
;	COMDAT ?reserve@?$vector@UtagAlchemicItemInfo@@V?$allocator@UtagAlchemicItemInfo@@@std@@@std@@QAEXI@Z
_TEXT	SEGMENT
__$EHRec$ = -16						; size = 16
__Ptr$509919 = 8					; size = 4
__Count$ = 8						; size = 4
?reserve@?$vector@UtagAlchemicItemInfo@@V?$allocator@UtagAlchemicItemInfo@@@std@@@std@@QAEXI@Z PROC ; std::vector<tagAlchemicItemInfo,std::allocator<tagAlchemicItemInfo> >::reserve, COMDAT
; _this$ = ecx

; 746  : 		{	// determine new minimum length of allocated storage

  00000	6a 04		 push	 4
  00002	b8 00 00 00 00	 mov	 eax, __ehhandler$?reserve@?$vector@UtagAlchemicItemInfo@@V?$allocator@UtagAlchemicItemInfo@@@std@@@std@@QAEXI@Z
  00007	e8 00 00 00 00	 call	 __EH_prolog3_catch
  0000c	8b f1		 mov	 esi, ecx

; 747  : 		if (max_size() < _Count)

  0000e	8b 5d 08	 mov	 ebx, DWORD PTR __Count$[ebp]
  00011	81 fb 49 92 24
	09		 cmp	 ebx, 153391689		; 09249249H
  00017	76 0b		 jbe	 SHORT $LN5@reserve

; 748  : 			_Xlen();	// result too long

  00019	68 00 00 00 00	 push	 OFFSET ??_C@_0BD@OLBABOEK@vector?$DMT?$DO?5too?5long?$AA@
  0001e	ff 15 00 00 00
	00		 call	 DWORD PTR __imp_?_Xlength_error@std@@YAXPBD@Z
$LN38@reserve:
$LN5@reserve:

; 749  : 		else if (capacity() < _Count)

  00024	8b 46 08	 mov	 eax, DWORD PTR [esi+8]
  00027	2b 06		 sub	 eax, DWORD PTR [esi]
  00029	6a 1c		 push	 28			; 0000001cH
  0002b	99		 cdq
  0002c	59		 pop	 ecx
  0002d	f7 f9		 idiv	 ecx
  0002f	3b c3		 cmp	 eax, ebx
  00031	73 70		 jae	 SHORT $LN3@reserve

; 750  : 			{	// not enough room, reallocate
; 751  : 			pointer _Ptr = this->_Alval.allocate(_Count);

  00033	6a 00		 push	 0
  00035	53		 push	 ebx
  00036	e8 00 00 00 00	 call	 ??$_Allocate@UtagAlchemicItemInfo@@@std@@YAPAUtagAlchemicItemInfo@@IPAU1@@Z ; std::_Allocate<tagAlchemicItemInfo>

; 752  : 
; 753  : 			_TRY_BEGIN
; 754  : 			_Umove(this->_Myfirst, this->_Mylast, _Ptr);

  0003b	8b 0e		 mov	 ecx, DWORD PTR [esi]
  0003d	83 65 fc 00	 and	 DWORD PTR __$EHRec$[ebp+12], 0
  00041	8d 56 0c	 lea	 edx, DWORD PTR [esi+12]
  00044	52		 push	 edx
  00045	89 45 08	 mov	 DWORD PTR __Ptr$509919[ebp], eax
  00048	ff 75 08	 push	 DWORD PTR __Ptr$509919[ebp]
  0004b	8b 46 04	 mov	 eax, DWORD PTR [esi+4]
  0004e	50		 push	 eax
  0004f	51		 push	 ecx
  00050	e8 00 00 00 00	 call	 ??$_Uninitialized_move@PAUtagAlchemicItemInfo@@PAU1@V?$allocator@UtagAlchemicItemInfo@@@std@@@std@@YAPAUtagAlchemicItemInfo@@PAU1@00AAV?$allocator@UtagAlchemicItemInfo@@@0@@Z ; std::_Uninitialized_move<tagAlchemicItemInfo *,tagAlchemicItemInfo *,std::allocator<tagAlchemicItemInfo> >

; 758  : 			_CATCH_END
; 759  : 
; 760  : 			size_type _Size = size();

  00055	8b 0e		 mov	 ecx, DWORD PTR [esi]
  00057	8b 46 04	 mov	 eax, DWORD PTR [esi+4]
  0005a	83 c4 18	 add	 esp, 24			; 00000018H
  0005d	2b c1		 sub	 eax, ecx
  0005f	6a 1c		 push	 28			; 0000001cH
  00061	99		 cdq
  00062	5f		 pop	 edi
  00063	f7 ff		 idiv	 edi
  00065	83 4d fc ff	 or	 DWORD PTR __$EHRec$[ebp+12], -1
  00069	8b f8		 mov	 edi, eax
  0006b	85 c9		 test	 ecx, ecx
  0006d	74 17		 je	 SHORT $LN33@reserve

; 761  : 			if (this->_Myfirst != 0)
; 762  : 				{	// destroy and deallocate old array
; 763  : 				_Destroy(this->_Myfirst, this->_Mylast);

  0006f	8d 46 0c	 lea	 eax, DWORD PTR [esi+12]
  00072	50		 push	 eax
  00073	ff 76 04	 push	 DWORD PTR [esi+4]
  00076	51		 push	 ecx
  00077	e8 00 00 00 00	 call	 ??$_Destroy_range@V?$allocator@UtagAlchemicItemInfo@@@std@@@std@@YAXPAUtagAlchemicItemInfo@@0AAV?$allocator@UtagAlchemicItemInfo@@@0@@Z ; std::_Destroy_range<std::allocator<tagAlchemicItemInfo> >

; 764  : 				this->_Alval.deallocate(this->_Myfirst,
; 765  : 					this->_Myend - this->_Myfirst);

  0007c	ff 36		 push	 DWORD PTR [esi]
  0007e	e8 00 00 00 00	 call	 ??3@YAXPAX@Z		; operator delete
  00083	83 c4 10	 add	 esp, 16			; 00000010H
$LN33@reserve:

; 766  : 				}
; 767  : 
; 768  : 			this->_Orphan_all();

  00086	8b ce		 mov	 ecx, esi
  00088	ff 15 00 00 00
	00		 call	 DWORD PTR __imp_?_Orphan_all@_Container_base0@std@@QAEXXZ

; 769  : 			this->_Myend = _Ptr + _Count;

  0008e	6b db 1c	 imul	 ebx, 28			; 0000001cH

; 770  : 			this->_Mylast = _Ptr + _Size;

  00091	6b ff 1c	 imul	 edi, 28			; 0000001cH
  00094	8b 45 08	 mov	 eax, DWORD PTR __Ptr$509919[ebp]
  00097	03 d8		 add	 ebx, eax
  00099	03 f8		 add	 edi, eax
  0009b	89 5e 08	 mov	 DWORD PTR [esi+8], ebx
  0009e	89 7e 04	 mov	 DWORD PTR [esi+4], edi

; 771  : 			this->_Myfirst = _Ptr;

  000a1	89 06		 mov	 DWORD PTR [esi], eax
$LN3@reserve:

; 772  : 			}
; 773  : 		}

  000a3	e8 00 00 00 00	 call	 __EH_epilog3
  000a8	c2 04 00	 ret	 4
__catch$?reserve@?$vector@UtagAlchemicItemInfo@@V?$allocator@UtagAlchemicItemInfo@@@std@@@std@@QAEXI@Z$0:

; 755  : 			_CATCH_ALL
; 756  : 			this->_Alval.deallocate(_Ptr, _Count);

  000ab	ff 75 08	 push	 DWORD PTR __Ptr$509919[ebp]
  000ae	e8 00 00 00 00	 call	 ??3@YAXPAX@Z		; operator delete
  000b3	59		 pop	 ecx

; 757  : 			_RERAISE;

  000b4	6a 00		 push	 0
  000b6	6a 00		 push	 0
  000b8	e8 00 00 00 00	 call	 __CxxThrowException@8
$LN39@reserve:
$LN37@reserve:
  000bd	cc		 int	 3
_TEXT	ENDS
;	COMDAT text$x
text$x	SEGMENT
__ehhandler$?reserve@?$vector@UtagAlchemicItemInfo@@V?$allocator@UtagAlchemicItemInfo@@@std@@@std@@QAEXI@Z:
  00000	8b 54 24 08	 mov	 edx, DWORD PTR [esp+8]
  00004	8d 42 0c	 lea	 eax, DWORD PTR [edx+12]
  00007	8b 4a ec	 mov	 ecx, DWORD PTR [edx-20]
  0000a	33 c8		 xor	 ecx, eax
  0000c	e8 00 00 00 00	 call	 @__security_check_cookie@4
  00011	b8 00 00 00 00	 mov	 eax, OFFSET __ehfuncinfo$?reserve@?$vector@UtagAlchemicItemInfo@@V?$allocator@UtagAlchemicItemInfo@@@std@@@std@@QAEXI@Z
  00016	e9 00 00 00 00	 jmp	 ___CxxFrameHandler3
text$x	ENDS
?reserve@?$vector@UtagAlchemicItemInfo@@V?$allocator@UtagAlchemicItemInfo@@@std@@@std@@QAEXI@Z ENDP ; std::vector<tagAlchemicItemInfo,std::allocator<tagAlchemicItemInfo> >::reserve
PUBLIC	??$_Umove@PAUNewShopPullDownItem@@@?$vector@UNewShopPullDownItem@@V?$allocator@UNewShopPullDownItem@@@std@@@std@@IAEPAUNewShopPullDownItem@@PAU2@00@Z ; std::vector<NewShopPullDownItem,std::allocator<NewShopPullDownItem> >::_Umove<NewShopPullDownItem *>
; Function compile flags: /Ogsp
;	COMDAT ??$_Umove@PAUNewShopPullDownItem@@@?$vector@UNewShopPullDownItem@@V?$allocator@UNewShopPullDownItem@@@std@@@std@@IAEPAUNewShopPullDownItem@@PAU2@00@Z
_TEXT	SEGMENT
__First$ = 8						; size = 4
__Last$ = 12						; size = 4
__Ptr$ = 16						; size = 4
??$_Umove@PAUNewShopPullDownItem@@@?$vector@UNewShopPullDownItem@@V?$allocator@UNewShopPullDownItem@@@std@@@std@@IAEPAUNewShopPullDownItem@@PAU2@00@Z PROC ; std::vector<NewShopPullDownItem,std::allocator<NewShopPullDownItem> >::_Umove<NewShopPullDownItem *>, COMDAT
; _this$ = ecx

; 1322 : 		pointer _Umove(_Iter _First, _Iter _Last, pointer _Ptr)

  00000	55		 push	 ebp
  00001	8b ec		 mov	 ebp, esp

; 1323 : 		{	// move initializing [_First, _Last), using allocator
; 1324 : 		return (_Uninitialized_move(_First, _Last,
; 1325 : 			_Ptr, this->_Alval));

  00003	83 c1 0c	 add	 ecx, 12			; 0000000cH
  00006	51		 push	 ecx
  00007	ff 75 10	 push	 DWORD PTR __Ptr$[ebp]
  0000a	ff 75 0c	 push	 DWORD PTR __Last$[ebp]
  0000d	ff 75 08	 push	 DWORD PTR __First$[ebp]
  00010	e8 00 00 00 00	 call	 ??$_Uninitialized_move@PAUNewShopPullDownItem@@PAU1@V?$allocator@UNewShopPullDownItem@@@std@@@std@@YAPAUNewShopPullDownItem@@PAU1@00AAV?$allocator@UNewShopPullDownItem@@@0@@Z ; std::_Uninitialized_move<NewShopPullDownItem *,NewShopPullDownItem *,std::allocator<NewShopPullDownItem> >
  00015	83 c4 10	 add	 esp, 16			; 00000010H

; 1326 : 		}

  00018	5d		 pop	 ebp
  00019	c2 0c 00	 ret	 12			; 0000000cH
??$_Umove@PAUNewShopPullDownItem@@@?$vector@UNewShopPullDownItem@@V?$allocator@UNewShopPullDownItem@@@std@@@std@@IAEPAUNewShopPullDownItem@@PAU2@00@Z ENDP ; std::vector<NewShopPullDownItem,std::allocator<NewShopPullDownItem> >::_Umove<NewShopPullDownItem *>
_TEXT	ENDS
PUBLIC	??$_Sort@PAUtagAlchemicItemInfo@@HVMaterialItemSort@ItemMaterialCompoundWnd@@@std@@YAXPAUtagAlchemicItemInfo@@0HVMaterialItemSort@ItemMaterialCompoundWnd@@@Z ; std::_Sort<tagAlchemicItemInfo *,int,ItemMaterialCompoundWnd::MaterialItemSort>
; Function compile flags: /Ogsp
; File c:\program files (x86)\microsoft visual studio 10.0\vc\include\algorithm
;	COMDAT ??$_Sort@PAUtagAlchemicItemInfo@@HVMaterialItemSort@ItemMaterialCompoundWnd@@@std@@YAXPAUtagAlchemicItemInfo@@0HVMaterialItemSort@ItemMaterialCompoundWnd@@@Z
_TEXT	SEGMENT
__Mid$511056 = -8					; size = 8
__First$ = 8						; size = 4
__Last$ = 12						; size = 4
__Ideal$ = 16						; size = 4
__Pred$ = 20						; size = 1
??$_Sort@PAUtagAlchemicItemInfo@@HVMaterialItemSort@ItemMaterialCompoundWnd@@@std@@YAXPAUtagAlchemicItemInfo@@0HVMaterialItemSort@ItemMaterialCompoundWnd@@@Z PROC ; std::_Sort<tagAlchemicItemInfo *,int,ItemMaterialCompoundWnd::MaterialItemSort>, COMDAT

; 3771 : 	{	// order [_First, _Last), using _Pred

  00000	55		 push	 ebp
  00001	8b ec		 mov	 ebp, esp
  00003	51		 push	 ecx
  00004	51		 push	 ecx
  00005	53		 push	 ebx

; 3772 : 	_Diff _Count;
; 3773 : 	for (; _ISORT_MAX < (_Count = _Last - _First) && 0 < _Ideal; )

  00006	8b 5d 08	 mov	 ebx, DWORD PTR __First$[ebp]
  00009	57		 push	 edi
  0000a	8b 7d 0c	 mov	 edi, DWORD PTR __Last$[ebp]
  0000d	8b c7		 mov	 eax, edi
  0000f	2b c3		 sub	 eax, ebx
  00011	6a 1c		 push	 28			; 0000001cH
  00013	99		 cdq
  00014	59		 pop	 ecx
  00015	f7 f9		 idiv	 ecx
  00017	83 f8 20	 cmp	 eax, 32			; 00000020H
  0001a	0f 8e 9c 00 00
	00		 jle	 $LN22@Sort
  00020	56		 push	 esi
  00021	8b 75 10	 mov	 esi, DWORD PTR __Ideal$[ebp]
$LL7@Sort:
  00024	85 f6		 test	 esi, esi
  00026	7e 75		 jle	 SHORT $LN6@Sort

; 3774 : 		{	// divide and conquer by quicksort
; 3775 : 		_STD pair<_RanIt, _RanIt> _Mid =
; 3776 : 			_Unguarded_partition(_First, _Last, _Pred);

  00028	ff 75 14	 push	 DWORD PTR __Pred$[ebp]
  0002b	8d 45 f8	 lea	 eax, DWORD PTR __Mid$511056[ebp]
  0002e	57		 push	 edi
  0002f	53		 push	 ebx
  00030	50		 push	 eax
  00031	e8 00 00 00 00	 call	 ??$_Unguarded_partition@PAUtagAlchemicItemInfo@@VMaterialItemSort@ItemMaterialCompoundWnd@@@std@@YA?AU?$pair@PAUtagAlchemicItemInfo@@PAU1@@0@PAUtagAlchemicItemInfo@@0VMaterialItemSort@ItemMaterialCompoundWnd@@@Z ; std::_Unguarded_partition<tagAlchemicItemInfo *,ItemMaterialCompoundWnd::MaterialItemSort>

; 3777 : 		_Ideal /= 2, _Ideal += _Ideal / 2;	// allow 1.5 log2(N) divisions

  00036	8b c6		 mov	 eax, esi
  00038	99		 cdq
  00039	2b c2		 sub	 eax, edx
  0003b	d1 f8		 sar	 eax, 1
  0003d	8b f0		 mov	 esi, eax
  0003f	99		 cdq
  00040	2b c2		 sub	 eax, edx
  00042	d1 f8		 sar	 eax, 1
  00044	03 f0		 add	 esi, eax
  00046	83 c4 10	 add	 esp, 16			; 00000010H

; 3778 : 
; 3779 : 		if (_Mid.first - _First < _Last - _Mid.second)

  00049	8b c7		 mov	 eax, edi
  0004b	2b 45 fc	 sub	 eax, DWORD PTR __Mid$511056[ebp+4]
  0004e	6a 1c		 push	 28			; 0000001cH
  00050	99		 cdq
  00051	59		 pop	 ecx
  00052	f7 f9		 idiv	 ecx
  00054	6a 1c		 push	 28			; 0000001cH
  00056	8b c8		 mov	 ecx, eax
  00058	8b 45 f8	 mov	 eax, DWORD PTR __Mid$511056[ebp]
  0005b	2b c3		 sub	 eax, ebx
  0005d	5b		 pop	 ebx
  0005e	99		 cdq
  0005f	f7 fb		 idiv	 ebx

; 3780 : 			{	// loop on second half
; 3781 : 			_Sort(_First, _Mid.first, _Ideal, _Pred);

  00061	ff 75 14	 push	 DWORD PTR __Pred$[ebp]
  00064	56		 push	 esi
  00065	3b c1		 cmp	 eax, ecx
  00067	7d 13		 jge	 SHORT $LN5@Sort
  00069	ff 75 f8	 push	 DWORD PTR __Mid$511056[ebp]
  0006c	ff 75 08	 push	 DWORD PTR __First$[ebp]
  0006f	e8 00 00 00 00	 call	 ??$_Sort@PAUtagAlchemicItemInfo@@HVMaterialItemSort@ItemMaterialCompoundWnd@@@std@@YAXPAUtagAlchemicItemInfo@@0HVMaterialItemSort@ItemMaterialCompoundWnd@@@Z ; std::_Sort<tagAlchemicItemInfo *,int,ItemMaterialCompoundWnd::MaterialItemSort>

; 3782 : 			_First = _Mid.second;

  00074	8b 5d fc	 mov	 ebx, DWORD PTR __Mid$511056[ebp+4]
  00077	89 5d 08	 mov	 DWORD PTR __First$[ebp], ebx

; 3783 : 			}
; 3784 : 		else

  0007a	eb 0f		 jmp	 SHORT $LN23@Sort
$LN5@Sort:

; 3785 : 			{	// loop on first half
; 3786 : 			_Sort(_Mid.second, _Last, _Ideal, _Pred);

  0007c	57		 push	 edi
  0007d	ff 75 fc	 push	 DWORD PTR __Mid$511056[ebp+4]
  00080	e8 00 00 00 00	 call	 ??$_Sort@PAUtagAlchemicItemInfo@@HVMaterialItemSort@ItemMaterialCompoundWnd@@@std@@YAXPAUtagAlchemicItemInfo@@0HVMaterialItemSort@ItemMaterialCompoundWnd@@@Z ; std::_Sort<tagAlchemicItemInfo *,int,ItemMaterialCompoundWnd::MaterialItemSort>

; 3787 : 			_Last = _Mid.first;

  00085	8b 7d f8	 mov	 edi, DWORD PTR __Mid$511056[ebp]
  00088	8b 5d 08	 mov	 ebx, DWORD PTR __First$[ebp]
$LN23@Sort:

; 3772 : 	_Diff _Count;
; 3773 : 	for (; _ISORT_MAX < (_Count = _Last - _First) && 0 < _Ideal; )

  0008b	83 c4 10	 add	 esp, 16			; 00000010H
  0008e	8b c7		 mov	 eax, edi
  00090	2b c3		 sub	 eax, ebx
  00092	6a 1c		 push	 28			; 0000001cH
  00094	99		 cdq
  00095	59		 pop	 ecx
  00096	f7 f9		 idiv	 ecx
  00098	83 f8 20	 cmp	 eax, 32			; 00000020H
  0009b	7f 87		 jg	 SHORT $LL7@Sort
$LN6@Sort:
  0009d	5e		 pop	 esi

; 3788 : 			}
; 3789 : 		}
; 3790 : 
; 3791 : 	if (_ISORT_MAX < _Count)

  0009e	83 f8 20	 cmp	 eax, 32			; 00000020H
  000a1	7e 19		 jle	 SHORT $LN22@Sort

; 3792 : 		{	// heap sort if too many divisions
; 3793 : 		_STD make_heap(_First, _Last, _Pred);

  000a3	ff 75 14	 push	 DWORD PTR __Pred$[ebp]
  000a6	57		 push	 edi
  000a7	53		 push	 ebx
  000a8	e8 00 00 00 00	 call	 ??$make_heap@PAUtagAlchemicItemInfo@@VMaterialItemSort@ItemMaterialCompoundWnd@@@std@@YAXPAUtagAlchemicItemInfo@@0VMaterialItemSort@ItemMaterialCompoundWnd@@@Z ; std::make_heap<tagAlchemicItemInfo *,ItemMaterialCompoundWnd::MaterialItemSort>

; 3794 : 		_STD sort_heap(_First, _Last, _Pred);

  000ad	ff 75 14	 push	 DWORD PTR __Pred$[ebp]
  000b0	57		 push	 edi
  000b1	53		 push	 ebx
  000b2	e8 00 00 00 00	 call	 ??$_Sort_heap@PAUtagAlchemicItemInfo@@VMaterialItemSort@ItemMaterialCompoundWnd@@@std@@YAXPAUtagAlchemicItemInfo@@0VMaterialItemSort@ItemMaterialCompoundWnd@@@Z ; std::_Sort_heap<tagAlchemicItemInfo *,ItemMaterialCompoundWnd::MaterialItemSort>
  000b7	83 c4 18	 add	 esp, 24			; 00000018H
  000ba	eb 14		 jmp	 SHORT $LN16@Sort
$LN22@Sort:

; 3795 : 		}
; 3796 : 	else if (1 < _Count)

  000bc	83 f8 01	 cmp	 eax, 1
  000bf	7e 0f		 jle	 SHORT $LN16@Sort

; 3797 : 		_Insertion_sort(_First, _Last, _Pred);	// small

  000c1	6a 00		 push	 0
  000c3	ff 75 14	 push	 DWORD PTR __Pred$[ebp]
  000c6	57		 push	 edi
  000c7	53		 push	 ebx
  000c8	e8 00 00 00 00	 call	 ??$_Insertion_sort1@PAUtagAlchemicItemInfo@@VMaterialItemSort@ItemMaterialCompoundWnd@@U1@@std@@YAXPAUtagAlchemicItemInfo@@0VMaterialItemSort@ItemMaterialCompoundWnd@@0@Z ; std::_Insertion_sort1<tagAlchemicItemInfo *,ItemMaterialCompoundWnd::MaterialItemSort,tagAlchemicItemInfo>
  000cd	83 c4 10	 add	 esp, 16			; 00000010H
$LN16@Sort:
  000d0	5f		 pop	 edi
  000d1	5b		 pop	 ebx

; 3798 : 	}

  000d2	c9		 leave
  000d3	c3		 ret	 0
??$_Sort@PAUtagAlchemicItemInfo@@HVMaterialItemSort@ItemMaterialCompoundWnd@@@std@@YAXPAUtagAlchemicItemInfo@@0HVMaterialItemSort@ItemMaterialCompoundWnd@@@Z ENDP ; std::_Sort<tagAlchemicItemInfo *,int,ItemMaterialCompoundWnd::MaterialItemSort>
_TEXT	ENDS
PUBLIC	??1?$vector@UNewShopPullDownItem@@V?$allocator@UNewShopPullDownItem@@@std@@@std@@QAE@XZ ; std::vector<NewShopPullDownItem,std::allocator<NewShopPullDownItem> >::~vector<NewShopPullDownItem,std::allocator<NewShopPullDownItem> >
; Function compile flags: /Ogsp
; File c:\program files (x86)\microsoft visual studio 10.0\vc\include\vector
;	COMDAT ??1?$vector@UNewShopPullDownItem@@V?$allocator@UNewShopPullDownItem@@@std@@@std@@QAE@XZ
_TEXT	SEGMENT
??1?$vector@UNewShopPullDownItem@@V?$allocator@UNewShopPullDownItem@@@std@@@std@@QAE@XZ PROC ; std::vector<NewShopPullDownItem,std::allocator<NewShopPullDownItem> >::~vector<NewShopPullDownItem,std::allocator<NewShopPullDownItem> >, COMDAT
; _this$ = ecx

; 705  : 		_Tidy();

  00000	e9 00 00 00 00	 jmp	 ?_Tidy@?$vector@UNewShopPullDownItem@@V?$allocator@UNewShopPullDownItem@@@std@@@std@@IAEXXZ ; std::vector<NewShopPullDownItem,std::allocator<NewShopPullDownItem> >::_Tidy
??1?$vector@UNewShopPullDownItem@@V?$allocator@UNewShopPullDownItem@@@std@@@std@@QAE@XZ ENDP ; std::vector<NewShopPullDownItem,std::allocator<NewShopPullDownItem> >::~vector<NewShopPullDownItem,std::allocator<NewShopPullDownItem> >
_TEXT	ENDS
PUBLIC	?reserve@?$vector@UNewShopPullDownItem@@V?$allocator@UNewShopPullDownItem@@@std@@@std@@QAEXI@Z ; std::vector<NewShopPullDownItem,std::allocator<NewShopPullDownItem> >::reserve
;	COMDAT xdata$x
; File c:\program files (x86)\microsoft visual studio 10.0\vc\include\xmemory
xdata$x	SEGMENT
__catchsym$?reserve@?$vector@UNewShopPullDownItem@@V?$allocator@UNewShopPullDownItem@@@std@@@std@@QAEXI@Z$2 DD 040H
	DD	00H
	DD	00H
	DD	FLAT:__catch$?reserve@?$vector@UNewShopPullDownItem@@V?$allocator@UNewShopPullDownItem@@@std@@@std@@QAEXI@Z$0
__unwindtable$?reserve@?$vector@UNewShopPullDownItem@@V?$allocator@UNewShopPullDownItem@@@std@@@std@@QAEXI@Z DD 0ffffffffH
	DD	00H
	DD	0ffffffffH
	DD	00H
__tryblocktable$?reserve@?$vector@UNewShopPullDownItem@@V?$allocator@UNewShopPullDownItem@@@std@@@std@@QAEXI@Z DD 00H
	DD	00H
	DD	01H
	DD	01H
	DD	FLAT:__catchsym$?reserve@?$vector@UNewShopPullDownItem@@V?$allocator@UNewShopPullDownItem@@@std@@@std@@QAEXI@Z$2
__ehfuncinfo$?reserve@?$vector@UNewShopPullDownItem@@V?$allocator@UNewShopPullDownItem@@@std@@@std@@QAEXI@Z DD 019930522H
	DD	02H
	DD	FLAT:__unwindtable$?reserve@?$vector@UNewShopPullDownItem@@V?$allocator@UNewShopPullDownItem@@@std@@@std@@QAEXI@Z
	DD	01H
	DD	FLAT:__tryblocktable$?reserve@?$vector@UNewShopPullDownItem@@V?$allocator@UNewShopPullDownItem@@@std@@@std@@QAEXI@Z
	DD	2 DUP(00H)
	DD	00H
	DD	01H
; Function compile flags: /Ogsp
; File c:\program files (x86)\microsoft visual studio 10.0\vc\include\vector
xdata$x	ENDS
;	COMDAT ?reserve@?$vector@UNewShopPullDownItem@@V?$allocator@UNewShopPullDownItem@@@std@@@std@@QAEXI@Z
_TEXT	SEGMENT
__Ptr$509497 = -24					; size = 4
$T514837 = -20						; size = 4
__$EHRec$ = -16						; size = 16
__Count$ = 8						; size = 4
?reserve@?$vector@UNewShopPullDownItem@@V?$allocator@UNewShopPullDownItem@@@std@@@std@@QAEXI@Z PROC ; std::vector<NewShopPullDownItem,std::allocator<NewShopPullDownItem> >::reserve, COMDAT
; _this$ = ecx

; 746  : 		{	// determine new minimum length of allocated storage

  00000	6a 0c		 push	 12			; 0000000cH
  00002	b8 00 00 00 00	 mov	 eax, __ehhandler$?reserve@?$vector@UNewShopPullDownItem@@V?$allocator@UNewShopPullDownItem@@@std@@@std@@QAEXI@Z
  00007	e8 00 00 00 00	 call	 __EH_prolog3_catch
  0000c	8b f1		 mov	 esi, ecx

; 747  : 		if (max_size() < _Count)

  0000e	81 7d 08 33 33
	33 03		 cmp	 DWORD PTR __Count$[ebp], 53687091 ; 03333333H
  00015	76 0b		 jbe	 SHORT $LN5@reserve@2

; 748  : 			_Xlen();	// result too long

  00017	68 00 00 00 00	 push	 OFFSET ??_C@_0BD@OLBABOEK@vector?$DMT?$DO?5too?5long?$AA@
  0001c	ff 15 00 00 00
	00		 call	 DWORD PTR __imp_?_Xlength_error@std@@YAXPBD@Z
$LN59@reserve@2:
$LN5@reserve@2:

; 749  : 		else if (capacity() < _Count)

  00022	8b 46 08	 mov	 eax, DWORD PTR [esi+8]
  00025	2b 06		 sub	 eax, DWORD PTR [esi]
  00027	6a 50		 push	 80			; 00000050H
  00029	99		 cdq
  0002a	59		 pop	 ecx
  0002b	f7 f9		 idiv	 ecx
  0002d	3b 45 08	 cmp	 eax, DWORD PTR __Count$[ebp]
  00030	0f 83 80 00 00
	00		 jae	 $LN3@reserve@2

; 750  : 			{	// not enough room, reallocate
; 751  : 			pointer _Ptr = this->_Alval.allocate(_Count);

  00036	6a 00		 push	 0
  00038	ff 75 08	 push	 DWORD PTR __Count$[ebp]
  0003b	e8 00 00 00 00	 call	 ??$_Allocate@UNewShopPullDownItem@@@std@@YAPAUNewShopPullDownItem@@IPAU1@@Z ; std::_Allocate<NewShopPullDownItem>

; 752  : 
; 753  : 			_TRY_BEGIN
; 754  : 			_Umove(this->_Myfirst, this->_Mylast, _Ptr);

  00040	8b 0e		 mov	 ecx, DWORD PTR [esi]
  00042	83 65 fc 00	 and	 DWORD PTR __$EHRec$[ebp+12], 0
  00046	8d 56 0c	 lea	 edx, DWORD PTR [esi+12]
  00049	52		 push	 edx
  0004a	89 45 e8	 mov	 DWORD PTR __Ptr$509497[ebp], eax
  0004d	ff 75 e8	 push	 DWORD PTR __Ptr$509497[ebp]
  00050	8b 46 04	 mov	 eax, DWORD PTR [esi+4]
  00053	50		 push	 eax
  00054	51		 push	 ecx
  00055	e8 00 00 00 00	 call	 ??$_Uninitialized_move@PAUNewShopPullDownItem@@PAU1@V?$allocator@UNewShopPullDownItem@@@std@@@std@@YAPAUNewShopPullDownItem@@PAU1@00AAV?$allocator@UNewShopPullDownItem@@@0@@Z ; std::_Uninitialized_move<NewShopPullDownItem *,NewShopPullDownItem *,std::allocator<NewShopPullDownItem> >

; 758  : 			_CATCH_END
; 759  : 
; 760  : 			size_type _Size = size();

  0005a	8b 5e 04	 mov	 ebx, DWORD PTR [esi+4]
  0005d	8b 0e		 mov	 ecx, DWORD PTR [esi]
  0005f	83 c4 18	 add	 esp, 24			; 00000018H
  00062	8b c3		 mov	 eax, ebx
  00064	2b c1		 sub	 eax, ecx
  00066	6a 50		 push	 80			; 00000050H
  00068	99		 cdq
  00069	5f		 pop	 edi
  0006a	f7 ff		 idiv	 edi
  0006c	83 4d fc ff	 or	 DWORD PTR __$EHRec$[ebp+12], -1
  00070	8b f8		 mov	 edi, eax
  00072	85 c9		 test	 ecx, ecx
  00074	74 20		 je	 SHORT $LN51@reserve@2

; 761  : 			if (this->_Myfirst != 0)
; 762  : 				{	// destroy and deallocate old array
; 763  : 				_Destroy(this->_Myfirst, this->_Mylast);

  00076	89 4d ec	 mov	 DWORD PTR $T514837[ebp], ecx
  00079	3b cb		 cmp	 ecx, ebx
  0007b	74 11		 je	 SHORT $LN37@reserve@2
$LN39@reserve@2:
  0007d	8b 4d ec	 mov	 ecx, DWORD PTR $T514837[ebp]
  00080	e8 00 00 00 00	 call	 ??1NewShopPullDownItem@@QAE@XZ
  00085	83 45 ec 50	 add	 DWORD PTR $T514837[ebp], 80 ; 00000050H
  00089	39 5d ec	 cmp	 DWORD PTR $T514837[ebp], ebx
  0008c	75 ef		 jne	 SHORT $LN39@reserve@2
$LN37@reserve@2:

; 764  : 				this->_Alval.deallocate(this->_Myfirst,
; 765  : 					this->_Myend - this->_Myfirst);

  0008e	ff 36		 push	 DWORD PTR [esi]
  00090	e8 00 00 00 00	 call	 ??3@YAXPAX@Z		; operator delete
  00095	59		 pop	 ecx
$LN51@reserve@2:

; 766  : 				}
; 767  : 
; 768  : 			this->_Orphan_all();

  00096	8b ce		 mov	 ecx, esi
  00098	ff 15 00 00 00
	00		 call	 DWORD PTR __imp_?_Orphan_all@_Container_base0@std@@QAEXXZ

; 769  : 			this->_Myend = _Ptr + _Count;
; 770  : 			this->_Mylast = _Ptr + _Size;

  0009e	6b ff 50	 imul	 edi, 80			; 00000050H
  000a1	8b 45 08	 mov	 eax, DWORD PTR __Count$[ebp]
  000a4	8b 4d e8	 mov	 ecx, DWORD PTR __Ptr$509497[ebp]
  000a7	6b c0 50	 imul	 eax, 80			; 00000050H
  000aa	03 c1		 add	 eax, ecx
  000ac	03 f9		 add	 edi, ecx
  000ae	89 46 08	 mov	 DWORD PTR [esi+8], eax
  000b1	89 7e 04	 mov	 DWORD PTR [esi+4], edi

; 771  : 			this->_Myfirst = _Ptr;

  000b4	89 0e		 mov	 DWORD PTR [esi], ecx
$LN3@reserve@2:

; 772  : 			}
; 773  : 		}

  000b6	e8 00 00 00 00	 call	 __EH_epilog3
  000bb	c2 04 00	 ret	 4
__catch$?reserve@?$vector@UNewShopPullDownItem@@V?$allocator@UNewShopPullDownItem@@@std@@@std@@QAEXI@Z$0:

; 755  : 			_CATCH_ALL
; 756  : 			this->_Alval.deallocate(_Ptr, _Count);

  000be	ff 75 e8	 push	 DWORD PTR __Ptr$509497[ebp]
  000c1	e8 00 00 00 00	 call	 ??3@YAXPAX@Z		; operator delete
  000c6	59		 pop	 ecx

; 757  : 			_RERAISE;

  000c7	6a 00		 push	 0
  000c9	6a 00		 push	 0
  000cb	e8 00 00 00 00	 call	 __CxxThrowException@8
$LN60@reserve@2:
$LN58@reserve@2:
  000d0	cc		 int	 3
_TEXT	ENDS
;	COMDAT text$x
text$x	SEGMENT
__ehhandler$?reserve@?$vector@UNewShopPullDownItem@@V?$allocator@UNewShopPullDownItem@@@std@@@std@@QAEXI@Z:
  00000	8b 54 24 08	 mov	 edx, DWORD PTR [esp+8]
  00004	8d 42 0c	 lea	 eax, DWORD PTR [edx+12]
  00007	8b 4a e4	 mov	 ecx, DWORD PTR [edx-28]
  0000a	33 c8		 xor	 ecx, eax
  0000c	e8 00 00 00 00	 call	 @__security_check_cookie@4
  00011	b8 00 00 00 00	 mov	 eax, OFFSET __ehfuncinfo$?reserve@?$vector@UNewShopPullDownItem@@V?$allocator@UNewShopPullDownItem@@@std@@@std@@QAEXI@Z
  00016	e9 00 00 00 00	 jmp	 ___CxxFrameHandler3
text$x	ENDS
?reserve@?$vector@UNewShopPullDownItem@@V?$allocator@UNewShopPullDownItem@@@std@@@std@@QAEXI@Z ENDP ; std::vector<NewShopPullDownItem,std::allocator<NewShopPullDownItem> >::reserve
PUBLIC	??1?$vector@UtagAlchemicItemInfo@@V?$allocator@UtagAlchemicItemInfo@@@std@@@std@@QAE@XZ ; std::vector<tagAlchemicItemInfo,std::allocator<tagAlchemicItemInfo> >::~vector<tagAlchemicItemInfo,std::allocator<tagAlchemicItemInfo> >
; Function compile flags: /Ogsp
;	COMDAT ??1?$vector@UtagAlchemicItemInfo@@V?$allocator@UtagAlchemicItemInfo@@@std@@@std@@QAE@XZ
_TEXT	SEGMENT
??1?$vector@UtagAlchemicItemInfo@@V?$allocator@UtagAlchemicItemInfo@@@std@@@std@@QAE@XZ PROC ; std::vector<tagAlchemicItemInfo,std::allocator<tagAlchemicItemInfo> >::~vector<tagAlchemicItemInfo,std::allocator<tagAlchemicItemInfo> >, COMDAT
; _this$ = ecx

; 705  : 		_Tidy();

  00000	e9 00 00 00 00	 jmp	 ?_Tidy@?$vector@UtagAlchemicItemInfo@@V?$allocator@UtagAlchemicItemInfo@@@std@@@std@@IAEXXZ ; std::vector<tagAlchemicItemInfo,std::allocator<tagAlchemicItemInfo> >::_Tidy
??1?$vector@UtagAlchemicItemInfo@@V?$allocator@UtagAlchemicItemInfo@@@std@@@std@@QAE@XZ ENDP ; std::vector<tagAlchemicItemInfo,std::allocator<tagAlchemicItemInfo> >::~vector<tagAlchemicItemInfo,std::allocator<tagAlchemicItemInfo> >
_TEXT	ENDS
PUBLIC	?erase@?$vector@UtagAlchemicItemInfo@@V?$allocator@UtagAlchemicItemInfo@@@std@@@std@@QAE?AV?$_Vector_iterator@V?$_Vector_val@UtagAlchemicItemInfo@@V?$allocator@UtagAlchemicItemInfo@@@std@@@std@@@2@V?$_Vector_const_iterator@V?$_Vector_val@UtagAlchemicItemInfo@@V?$allocator@UtagAlchemicItemInfo@@@std@@@std@@@2@@Z ; std::vector<tagAlchemicItemInfo,std::allocator<tagAlchemicItemInfo> >::erase
; Function compile flags: /Ogsp
;	COMDAT ?erase@?$vector@UtagAlchemicItemInfo@@V?$allocator@UtagAlchemicItemInfo@@@std@@@std@@QAE?AV?$_Vector_iterator@V?$_Vector_val@UtagAlchemicItemInfo@@V?$allocator@UtagAlchemicItemInfo@@@std@@@std@@@2@V?$_Vector_const_iterator@V?$_Vector_val@UtagAlchemicItemInfo@@V?$allocator@UtagAlchemicItemInfo@@@std@@@std@@@2@@Z
_TEXT	SEGMENT
___$ReturnUdt$ = 8					; size = 4
__Cat$514921 = 12					; size = 1
__Where$ = 12						; size = 4
?erase@?$vector@UtagAlchemicItemInfo@@V?$allocator@UtagAlchemicItemInfo@@@std@@@std@@QAE?AV?$_Vector_iterator@V?$_Vector_val@UtagAlchemicItemInfo@@V?$allocator@UtagAlchemicItemInfo@@@std@@@std@@@2@V?$_Vector_const_iterator@V?$_Vector_val@UtagAlchemicItemInfo@@V?$allocator@UtagAlchemicItemInfo@@@std@@@std@@@2@@Z PROC ; std::vector<tagAlchemicItemInfo,std::allocator<tagAlchemicItemInfo> >::erase, COMDAT
; _this$ = ecx

; 1179 : 		{	// erase element at where

  00000	55		 push	 ebp
  00001	8b ec		 mov	 ebp, esp

; 1180 : 		_Move(_VIPTR(_Where) + 1, this->_Mylast,
; 1181 : 			_VIPTR(_Where));

  00003	8b 45 0c	 mov	 eax, DWORD PTR __Where$[ebp]
  00006	56		 push	 esi
  00007	ff 75 0c	 push	 DWORD PTR __Cat$514921[ebp]
  0000a	8b f1		 mov	 esi, ecx
  0000c	50		 push	 eax
  0000d	ff 76 04	 push	 DWORD PTR [esi+4]
  00010	83 c0 1c	 add	 eax, 28			; 0000001cH
  00013	50		 push	 eax
  00014	e8 00 00 00 00	 call	 ??$_Move@PAUtagAlchemicItemInfo@@PAU1@@std@@YAPAUtagAlchemicItemInfo@@PAU1@00U_Nonscalar_ptr_iterator_tag@0@@Z ; std::_Move<tagAlchemicItemInfo *,tagAlchemicItemInfo *>

; 1182 : 		_Destroy(this->_Mylast - 1, this->_Mylast);

  00019	8b 46 04	 mov	 eax, DWORD PTR [esi+4]
  0001c	8d 4e 0c	 lea	 ecx, DWORD PTR [esi+12]
  0001f	51		 push	 ecx
  00020	50		 push	 eax
  00021	83 c0 e4	 add	 eax, -28		; ffffffe4H
  00024	50		 push	 eax
  00025	e8 00 00 00 00	 call	 ??$_Destroy_range@V?$allocator@UtagAlchemicItemInfo@@@std@@@std@@YAXPAUtagAlchemicItemInfo@@0AAV?$allocator@UtagAlchemicItemInfo@@@0@@Z ; std::_Destroy_range<std::allocator<tagAlchemicItemInfo> >

; 1183 : 		--this->_Mylast;
; 1184 : 		return (_Make_iter(_Where));

  0002a	8b 45 08	 mov	 eax, DWORD PTR ___$ReturnUdt$[ebp]
  0002d	8b 4d 0c	 mov	 ecx, DWORD PTR __Where$[ebp]
  00030	83 c4 1c	 add	 esp, 28			; 0000001cH
  00033	83 46 04 e4	 add	 DWORD PTR [esi+4], -28	; ffffffe4H
  00037	89 08		 mov	 DWORD PTR [eax], ecx
  00039	5e		 pop	 esi

; 1185 : 		}

  0003a	5d		 pop	 ebp
  0003b	c2 08 00	 ret	 8
?erase@?$vector@UtagAlchemicItemInfo@@V?$allocator@UtagAlchemicItemInfo@@@std@@@std@@QAE?AV?$_Vector_iterator@V?$_Vector_val@UtagAlchemicItemInfo@@V?$allocator@UtagAlchemicItemInfo@@@std@@@std@@@2@V?$_Vector_const_iterator@V?$_Vector_val@UtagAlchemicItemInfo@@V?$allocator@UtagAlchemicItemInfo@@@std@@@std@@@2@@Z ENDP ; std::vector<tagAlchemicItemInfo,std::allocator<tagAlchemicItemInfo> >::erase
_TEXT	ENDS
PUBLIC	?erase@?$vector@UNewShopPullDownItem@@V?$allocator@UNewShopPullDownItem@@@std@@@std@@QAE?AV?$_Vector_iterator@V?$_Vector_val@UNewShopPullDownItem@@V?$allocator@UNewShopPullDownItem@@@std@@@std@@@2@V?$_Vector_const_iterator@V?$_Vector_val@UNewShopPullDownItem@@V?$allocator@UNewShopPullDownItem@@@std@@@std@@@2@0@Z ; std::vector<NewShopPullDownItem,std::allocator<NewShopPullDownItem> >::erase
; Function compile flags: /Ogsp
;	COMDAT ?erase@?$vector@UNewShopPullDownItem@@V?$allocator@UNewShopPullDownItem@@@std@@@std@@QAE?AV?$_Vector_iterator@V?$_Vector_val@UNewShopPullDownItem@@V?$allocator@UNewShopPullDownItem@@@std@@@std@@@2@V?$_Vector_const_iterator@V?$_Vector_val@UNewShopPullDownItem@@V?$allocator@UNewShopPullDownItem@@@std@@@std@@@2@0@Z
_TEXT	SEGMENT
$T515083 = -4						; size = 4
___$ReturnUdt$ = 8					; size = 4
__First_arg$ = 12					; size = 4
__Cat$515028 = 16					; size = 1
__Last_arg$ = 16					; size = 4
?erase@?$vector@UNewShopPullDownItem@@V?$allocator@UNewShopPullDownItem@@@std@@@std@@QAE?AV?$_Vector_iterator@V?$_Vector_val@UNewShopPullDownItem@@V?$allocator@UNewShopPullDownItem@@@std@@@std@@@2@V?$_Vector_const_iterator@V?$_Vector_val@UNewShopPullDownItem@@V?$allocator@UNewShopPullDownItem@@@std@@@std@@@2@0@Z PROC ; std::vector<NewShopPullDownItem,std::allocator<NewShopPullDownItem> >::erase, COMDAT
; _this$ = ecx

; 1190 : 		{	// erase [_First, _Last)

  00000	55		 push	 ebp
  00001	8b ec		 mov	 ebp, esp
  00003	51		 push	 ecx

; 1191 : 		iterator _First = _Make_iter(_First_arg);

  00004	8b 45 08	 mov	 eax, DWORD PTR ___$ReturnUdt$[ebp]
  00007	56		 push	 esi
  00008	8b f1		 mov	 esi, ecx
  0000a	8b 4d 0c	 mov	 ecx, DWORD PTR __First_arg$[ebp]
  0000d	89 08		 mov	 DWORD PTR [eax], ecx

; 1192 : 		iterator _Last = _Make_iter(_Last_arg);
; 1193 : 
; 1194 : 		if (_First != _Last)

  0000f	3b 4d 10	 cmp	 ecx, DWORD PTR __Last_arg$[ebp]
  00012	74 37		 je	 SHORT $LN1@erase

; 1195 : 			{	// worth doing, copy down over hole
; 1196 :  #if _ITERATOR_DEBUG_LEVEL == 2
; 1197 : 			if (_Last < _First || _VICONT(_First) != this
; 1198 : 				|| _VIPTR(_First) < this->_Myfirst
; 1199 : 				|| this->_Mylast < _VIPTR(_Last))
; 1200 : 				_DEBUG_ERROR("vector erase iterator outside range");
; 1201 : 			pointer _Ptr = _Move(_VIPTR(_Last), this->_Mylast,
; 1202 : 				_VIPTR(_First));
; 1203 : 			_Orphan_range(_VIPTR(_First), this->_Mylast);
; 1204 : 
; 1205 :  #else /* _ITERATOR_DEBUG_LEVEL == 2 */
; 1206 : 			pointer _Ptr = _Move(_VIPTR(_Last), this->_Mylast,
; 1207 : 				_VIPTR(_First));

  00014	8b 46 04	 mov	 eax, DWORD PTR [esi+4]
  00017	53		 push	 ebx
  00018	57		 push	 edi
  00019	ff 75 10	 push	 DWORD PTR __Cat$515028[ebp]
  0001c	51		 push	 ecx
  0001d	50		 push	 eax
  0001e	ff 75 10	 push	 DWORD PTR __Last_arg$[ebp]
  00021	e8 00 00 00 00	 call	 ??$_Move@PAUNewShopPullDownItem@@PAU1@@std@@YAPAUNewShopPullDownItem@@PAU1@00U_Nonscalar_ptr_iterator_tag@0@@Z ; std::_Move<NewShopPullDownItem *,NewShopPullDownItem *>

; 1208 :  #endif /* _ITERATOR_DEBUG_LEVEL == 2 */
; 1209 : 
; 1210 : 			_Destroy(_Ptr, this->_Mylast);

  00026	8b 7e 04	 mov	 edi, DWORD PTR [esi+4]
  00029	8b d8		 mov	 ebx, eax
  0002b	83 c4 10	 add	 esp, 16			; 00000010H
  0002e	89 5d fc	 mov	 DWORD PTR $T515083[ebp], ebx
  00031	3b df		 cmp	 ebx, edi
  00033	74 11		 je	 SHORT $LN36@erase
$LL52@erase:
  00035	8b 4d fc	 mov	 ecx, DWORD PTR $T515083[ebp]
  00038	e8 00 00 00 00	 call	 ??1NewShopPullDownItem@@QAE@XZ
  0003d	83 45 fc 50	 add	 DWORD PTR $T515083[ebp], 80 ; 00000050H
  00041	39 7d fc	 cmp	 DWORD PTR $T515083[ebp], edi
  00044	75 ef		 jne	 SHORT $LL52@erase
$LN36@erase:

; 1211 : 			this->_Mylast = _Ptr;

  00046	5f		 pop	 edi
  00047	89 5e 04	 mov	 DWORD PTR [esi+4], ebx
  0004a	5b		 pop	 ebx
$LN1@erase:

; 1212 : 			}
; 1213 : 		return (_First);

  0004b	8b 45 08	 mov	 eax, DWORD PTR ___$ReturnUdt$[ebp]
  0004e	5e		 pop	 esi

; 1214 : 		}

  0004f	c9		 leave
  00050	c2 0c 00	 ret	 12			; 0000000cH
?erase@?$vector@UNewShopPullDownItem@@V?$allocator@UNewShopPullDownItem@@@std@@@std@@QAE?AV?$_Vector_iterator@V?$_Vector_val@UNewShopPullDownItem@@V?$allocator@UNewShopPullDownItem@@@std@@@std@@@2@V?$_Vector_const_iterator@V?$_Vector_val@UNewShopPullDownItem@@V?$allocator@UNewShopPullDownItem@@@std@@@std@@@2@0@Z ENDP ; std::vector<NewShopPullDownItem,std::allocator<NewShopPullDownItem> >::erase
_TEXT	ENDS
PUBLIC	?_Reserve@?$vector@UNewShopPullDownItem@@V?$allocator@UNewShopPullDownItem@@@std@@@std@@IAEXI@Z ; std::vector<NewShopPullDownItem,std::allocator<NewShopPullDownItem> >::_Reserve
; Function compile flags: /Ogsp
;	COMDAT ?_Reserve@?$vector@UNewShopPullDownItem@@V?$allocator@UNewShopPullDownItem@@@std@@@std@@IAEXI@Z
_TEXT	SEGMENT
__Count$ = 8						; size = 4
?_Reserve@?$vector@UNewShopPullDownItem@@V?$allocator@UNewShopPullDownItem@@@std@@@std@@IAEXI@Z PROC ; std::vector<NewShopPullDownItem,std::allocator<NewShopPullDownItem> >::_Reserve, COMDAT
; _this$ = ecx

; 1290 : 		{	// ensure room for _Count new elements, grow exponentially

  00000	55		 push	 ebp
  00001	8b ec		 mov	 ebp, esp
  00003	56		 push	 esi
  00004	8b f1		 mov	 esi, ecx

; 1291 : 		size_type _Size = size();

  00006	8b 0e		 mov	 ecx, DWORD PTR [esi]
  00008	8b 46 04	 mov	 eax, DWORD PTR [esi+4]
  0000b	2b c1		 sub	 eax, ecx
  0000d	57		 push	 edi
  0000e	99		 cdq
  0000f	6a 50		 push	 80			; 00000050H
  00011	5f		 pop	 edi
  00012	f7 ff		 idiv	 edi
  00014	8b f8		 mov	 edi, eax

; 1292 : 		if (max_size() - _Count < _Size)

  00016	b8 33 33 33 03	 mov	 eax, 53687091		; 03333333H
  0001b	2b 45 08	 sub	 eax, DWORD PTR __Count$[ebp]
  0001e	3b c7		 cmp	 eax, edi
  00020	73 0b		 jae	 SHORT $LN4@Reserve

; 1293 : 			_Xlen();

  00022	68 00 00 00 00	 push	 OFFSET ??_C@_0BD@OLBABOEK@vector?$DMT?$DO?5too?5long?$AA@
  00027	ff 15 00 00 00
	00		 call	 DWORD PTR __imp_?_Xlength_error@std@@YAXPBD@Z
$LN21@Reserve:
$LN4@Reserve:

; 1294 : 		else if ((_Size += _Count) <= capacity())

  0002d	8b 46 08	 mov	 eax, DWORD PTR [esi+8]
  00030	2b c1		 sub	 eax, ecx
  00032	6a 50		 push	 80			; 00000050H
  00034	99		 cdq
  00035	59		 pop	 ecx
  00036	f7 f9		 idiv	 ecx
  00038	03 7d 08	 add	 edi, DWORD PTR __Count$[ebp]
  0003b	3b f8		 cmp	 edi, eax
  0003d	76 10		 jbe	 SHORT $LN1@Reserve

; 1295 : 			;
; 1296 : 		else
; 1297 : 			reserve(_Grow_to(_Size));

  0003f	57		 push	 edi
  00040	8b ce		 mov	 ecx, esi
  00042	e8 00 00 00 00	 call	 ?_Grow_to@?$vector@UNewShopPullDownItem@@V?$allocator@UNewShopPullDownItem@@@std@@@std@@IBEII@Z ; std::vector<NewShopPullDownItem,std::allocator<NewShopPullDownItem> >::_Grow_to
  00047	50		 push	 eax
  00048	8b ce		 mov	 ecx, esi
  0004a	e8 00 00 00 00	 call	 ?reserve@?$vector@UNewShopPullDownItem@@V?$allocator@UNewShopPullDownItem@@@std@@@std@@QAEXI@Z ; std::vector<NewShopPullDownItem,std::allocator<NewShopPullDownItem> >::reserve
$LN1@Reserve:
  0004f	5f		 pop	 edi
  00050	5e		 pop	 esi

; 1298 : 		}

  00051	5d		 pop	 ebp
  00052	c2 04 00	 ret	 4
$LN20@Reserve:
?_Reserve@?$vector@UNewShopPullDownItem@@V?$allocator@UNewShopPullDownItem@@@std@@@std@@IAEXI@Z ENDP ; std::vector<NewShopPullDownItem,std::allocator<NewShopPullDownItem> >::_Reserve
_TEXT	ENDS
PUBLIC	?erase@?$vector@UtagAlchemicItemInfo@@V?$allocator@UtagAlchemicItemInfo@@@std@@@std@@QAE?AV?$_Vector_iterator@V?$_Vector_val@UtagAlchemicItemInfo@@V?$allocator@UtagAlchemicItemInfo@@@std@@@std@@@2@V?$_Vector_const_iterator@V?$_Vector_val@UtagAlchemicItemInfo@@V?$allocator@UtagAlchemicItemInfo@@@std@@@std@@@2@0@Z ; std::vector<tagAlchemicItemInfo,std::allocator<tagAlchemicItemInfo> >::erase
; Function compile flags: /Ogsp
;	COMDAT ?erase@?$vector@UtagAlchemicItemInfo@@V?$allocator@UtagAlchemicItemInfo@@@std@@@std@@QAE?AV?$_Vector_iterator@V?$_Vector_val@UtagAlchemicItemInfo@@V?$allocator@UtagAlchemicItemInfo@@@std@@@std@@@2@V?$_Vector_const_iterator@V?$_Vector_val@UtagAlchemicItemInfo@@V?$allocator@UtagAlchemicItemInfo@@@std@@@std@@@2@0@Z
_TEXT	SEGMENT
___$ReturnUdt$ = 8					; size = 4
__First_arg$ = 12					; size = 4
__Cat$515235 = 16					; size = 1
__Last_arg$ = 16					; size = 4
?erase@?$vector@UtagAlchemicItemInfo@@V?$allocator@UtagAlchemicItemInfo@@@std@@@std@@QAE?AV?$_Vector_iterator@V?$_Vector_val@UtagAlchemicItemInfo@@V?$allocator@UtagAlchemicItemInfo@@@std@@@std@@@2@V?$_Vector_const_iterator@V?$_Vector_val@UtagAlchemicItemInfo@@V?$allocator@UtagAlchemicItemInfo@@@std@@@std@@@2@0@Z PROC ; std::vector<tagAlchemicItemInfo,std::allocator<tagAlchemicItemInfo> >::erase, COMDAT
; _this$ = ecx

; 1190 : 		{	// erase [_First, _Last)

  00000	55		 push	 ebp
  00001	8b ec		 mov	 ebp, esp

; 1191 : 		iterator _First = _Make_iter(_First_arg);

  00003	8b 45 0c	 mov	 eax, DWORD PTR __First_arg$[ebp]
  00006	53		 push	 ebx
  00007	8b 5d 08	 mov	 ebx, DWORD PTR ___$ReturnUdt$[ebp]
  0000a	56		 push	 esi
  0000b	8b f1		 mov	 esi, ecx
  0000d	89 03		 mov	 DWORD PTR [ebx], eax

; 1192 : 		iterator _Last = _Make_iter(_Last_arg);
; 1193 : 
; 1194 : 		if (_First != _Last)

  0000f	3b 45 10	 cmp	 eax, DWORD PTR __Last_arg$[ebp]
  00012	74 27		 je	 SHORT $LN1@erase@2

; 1195 : 			{	// worth doing, copy down over hole
; 1196 :  #if _ITERATOR_DEBUG_LEVEL == 2
; 1197 : 			if (_Last < _First || _VICONT(_First) != this
; 1198 : 				|| _VIPTR(_First) < this->_Myfirst
; 1199 : 				|| this->_Mylast < _VIPTR(_Last))
; 1200 : 				_DEBUG_ERROR("vector erase iterator outside range");
; 1201 : 			pointer _Ptr = _Move(_VIPTR(_Last), this->_Mylast,
; 1202 : 				_VIPTR(_First));
; 1203 : 			_Orphan_range(_VIPTR(_First), this->_Mylast);
; 1204 : 
; 1205 :  #else /* _ITERATOR_DEBUG_LEVEL == 2 */
; 1206 : 			pointer _Ptr = _Move(_VIPTR(_Last), this->_Mylast,
; 1207 : 				_VIPTR(_First));

  00014	8b 4e 04	 mov	 ecx, DWORD PTR [esi+4]
  00017	57		 push	 edi
  00018	ff 75 10	 push	 DWORD PTR __Cat$515235[ebp]
  0001b	50		 push	 eax
  0001c	51		 push	 ecx
  0001d	ff 75 10	 push	 DWORD PTR __Last_arg$[ebp]
  00020	e8 00 00 00 00	 call	 ??$_Move@PAUtagAlchemicItemInfo@@PAU1@@std@@YAPAUtagAlchemicItemInfo@@PAU1@00U_Nonscalar_ptr_iterator_tag@0@@Z ; std::_Move<tagAlchemicItemInfo *,tagAlchemicItemInfo *>
  00025	8b f8		 mov	 edi, eax

; 1208 :  #endif /* _ITERATOR_DEBUG_LEVEL == 2 */
; 1209 : 
; 1210 : 			_Destroy(_Ptr, this->_Mylast);

  00027	8d 46 0c	 lea	 eax, DWORD PTR [esi+12]
  0002a	50		 push	 eax
  0002b	ff 76 04	 push	 DWORD PTR [esi+4]
  0002e	57		 push	 edi
  0002f	e8 00 00 00 00	 call	 ??$_Destroy_range@V?$allocator@UtagAlchemicItemInfo@@@std@@@std@@YAXPAUtagAlchemicItemInfo@@0AAV?$allocator@UtagAlchemicItemInfo@@@0@@Z ; std::_Destroy_range<std::allocator<tagAlchemicItemInfo> >
  00034	83 c4 1c	 add	 esp, 28			; 0000001cH

; 1211 : 			this->_Mylast = _Ptr;

  00037	89 7e 04	 mov	 DWORD PTR [esi+4], edi
  0003a	5f		 pop	 edi
$LN1@erase@2:

; 1212 : 			}
; 1213 : 		return (_First);

  0003b	5e		 pop	 esi
  0003c	8b c3		 mov	 eax, ebx
  0003e	5b		 pop	 ebx

; 1214 : 		}

  0003f	5d		 pop	 ebp
  00040	c2 0c 00	 ret	 12			; 0000000cH
?erase@?$vector@UtagAlchemicItemInfo@@V?$allocator@UtagAlchemicItemInfo@@@std@@@std@@QAE?AV?$_Vector_iterator@V?$_Vector_val@UtagAlchemicItemInfo@@V?$allocator@UtagAlchemicItemInfo@@@std@@@std@@@2@V?$_Vector_const_iterator@V?$_Vector_val@UtagAlchemicItemInfo@@V?$allocator@UtagAlchemicItemInfo@@@std@@@std@@@2@0@Z ENDP ; std::vector<tagAlchemicItemInfo,std::allocator<tagAlchemicItemInfo> >::erase
_TEXT	ENDS
PUBLIC	?_Reserve@?$vector@UtagAlchemicItemInfo@@V?$allocator@UtagAlchemicItemInfo@@@std@@@std@@IAEXI@Z ; std::vector<tagAlchemicItemInfo,std::allocator<tagAlchemicItemInfo> >::_Reserve
; Function compile flags: /Ogsp
;	COMDAT ?_Reserve@?$vector@UtagAlchemicItemInfo@@V?$allocator@UtagAlchemicItemInfo@@@std@@@std@@IAEXI@Z
_TEXT	SEGMENT
__Count$ = 8						; size = 4
?_Reserve@?$vector@UtagAlchemicItemInfo@@V?$allocator@UtagAlchemicItemInfo@@@std@@@std@@IAEXI@Z PROC ; std::vector<tagAlchemicItemInfo,std::allocator<tagAlchemicItemInfo> >::_Reserve, COMDAT
; _this$ = ecx

; 1290 : 		{	// ensure room for _Count new elements, grow exponentially

  00000	55		 push	 ebp
  00001	8b ec		 mov	 ebp, esp
  00003	56		 push	 esi
  00004	8b f1		 mov	 esi, ecx

; 1291 : 		size_type _Size = size();

  00006	8b 0e		 mov	 ecx, DWORD PTR [esi]
  00008	8b 46 04	 mov	 eax, DWORD PTR [esi+4]
  0000b	2b c1		 sub	 eax, ecx
  0000d	57		 push	 edi
  0000e	99		 cdq
  0000f	6a 1c		 push	 28			; 0000001cH
  00011	5f		 pop	 edi
  00012	f7 ff		 idiv	 edi
  00014	8b f8		 mov	 edi, eax

; 1292 : 		if (max_size() - _Count < _Size)

  00016	b8 49 92 24 09	 mov	 eax, 153391689		; 09249249H
  0001b	2b 45 08	 sub	 eax, DWORD PTR __Count$[ebp]
  0001e	3b c7		 cmp	 eax, edi
  00020	73 0b		 jae	 SHORT $LN4@Reserve@2

; 1293 : 			_Xlen();

  00022	68 00 00 00 00	 push	 OFFSET ??_C@_0BD@OLBABOEK@vector?$DMT?$DO?5too?5long?$AA@
  00027	ff 15 00 00 00
	00		 call	 DWORD PTR __imp_?_Xlength_error@std@@YAXPBD@Z
$LN21@Reserve@2:
$LN4@Reserve@2:

; 1294 : 		else if ((_Size += _Count) <= capacity())

  0002d	8b 46 08	 mov	 eax, DWORD PTR [esi+8]
  00030	2b c1		 sub	 eax, ecx
  00032	6a 1c		 push	 28			; 0000001cH
  00034	99		 cdq
  00035	59		 pop	 ecx
  00036	f7 f9		 idiv	 ecx
  00038	03 7d 08	 add	 edi, DWORD PTR __Count$[ebp]
  0003b	3b f8		 cmp	 edi, eax
  0003d	76 10		 jbe	 SHORT $LN1@Reserve@2

; 1295 : 			;
; 1296 : 		else
; 1297 : 			reserve(_Grow_to(_Size));

  0003f	57		 push	 edi
  00040	8b ce		 mov	 ecx, esi
  00042	e8 00 00 00 00	 call	 ?_Grow_to@?$vector@UtagAlchemicItemInfo@@V?$allocator@UtagAlchemicItemInfo@@@std@@@std@@IBEII@Z ; std::vector<tagAlchemicItemInfo,std::allocator<tagAlchemicItemInfo> >::_Grow_to
  00047	50		 push	 eax
  00048	8b ce		 mov	 ecx, esi
  0004a	e8 00 00 00 00	 call	 ?reserve@?$vector@UtagAlchemicItemInfo@@V?$allocator@UtagAlchemicItemInfo@@@std@@@std@@QAEXI@Z ; std::vector<tagAlchemicItemInfo,std::allocator<tagAlchemicItemInfo> >::reserve
$LN1@Reserve@2:
  0004f	5f		 pop	 edi
  00050	5e		 pop	 esi

; 1298 : 		}

  00051	5d		 pop	 ebp
  00052	c2 04 00	 ret	 4
$LN20@Reserve@2:
?_Reserve@?$vector@UtagAlchemicItemInfo@@V?$allocator@UtagAlchemicItemInfo@@@std@@@std@@IAEXI@Z ENDP ; std::vector<tagAlchemicItemInfo,std::allocator<tagAlchemicItemInfo> >::_Reserve
_TEXT	ENDS
PUBLIC	??$sort@V?$_Vector_iterator@V?$_Vector_val@UtagAlchemicItemInfo@@V?$allocator@UtagAlchemicItemInfo@@@std@@@std@@@std@@VMaterialItemSort@ItemMaterialCompoundWnd@@@std@@YAXV?$_Vector_iterator@V?$_Vector_val@UtagAlchemicItemInfo@@V?$allocator@UtagAlchemicItemInfo@@@std@@@std@@@0@0VMaterialItemSort@ItemMaterialCompoundWnd@@@Z ; std::sort<std::_Vector_iterator<std::_Vector_val<tagAlchemicItemInfo,std::allocator<tagAlchemicItemInfo> > >,ItemMaterialCompoundWnd::MaterialItemSort>
; Function compile flags: /Ogsp
; File c:\program files (x86)\microsoft visual studio 10.0\vc\include\algorithm
;	COMDAT ??$sort@V?$_Vector_iterator@V?$_Vector_val@UtagAlchemicItemInfo@@V?$allocator@UtagAlchemicItemInfo@@@std@@@std@@@std@@VMaterialItemSort@ItemMaterialCompoundWnd@@@std@@YAXV?$_Vector_iterator@V?$_Vector_val@UtagAlchemicItemInfo@@V?$allocator@UtagAlchemicItemInfo@@@std@@@std@@@0@0VMaterialItemSort@ItemMaterialCompoundWnd@@@Z
_TEXT	SEGMENT
__First$ = 8						; size = 4
__Last$ = 12						; size = 4
__Pred$ = 16						; size = 1
??$sort@V?$_Vector_iterator@V?$_Vector_val@UtagAlchemicItemInfo@@V?$allocator@UtagAlchemicItemInfo@@@std@@@std@@@std@@VMaterialItemSort@ItemMaterialCompoundWnd@@@std@@YAXV?$_Vector_iterator@V?$_Vector_val@UtagAlchemicItemInfo@@V?$allocator@UtagAlchemicItemInfo@@@std@@@std@@@0@0VMaterialItemSort@ItemMaterialCompoundWnd@@@Z PROC ; std::sort<std::_Vector_iterator<std::_Vector_val<tagAlchemicItemInfo,std::allocator<tagAlchemicItemInfo> > >,ItemMaterialCompoundWnd::MaterialItemSort>, COMDAT

; 3803 : 	{	// order [_First, _Last), using _Pred

  00000	55		 push	 ebp
  00001	8b ec		 mov	 ebp, esp

; 3804 : 	_DEBUG_RANGE(_First, _Last);
; 3805 : 	_DEBUG_POINTER(_Pred);
; 3806 : 	_Sort(_Unchecked(_First), _Unchecked(_Last), _Last - _First, _Pred);

  00003	ff 75 10	 push	 DWORD PTR __Pred$[ebp]
  00006	8b 45 0c	 mov	 eax, DWORD PTR __Last$[ebp]
  00009	2b 45 08	 sub	 eax, DWORD PTR __First$[ebp]
  0000c	6a 1c		 push	 28			; 0000001cH
  0000e	59		 pop	 ecx
  0000f	99		 cdq
  00010	f7 f9		 idiv	 ecx
  00012	50		 push	 eax
  00013	ff 75 0c	 push	 DWORD PTR __Last$[ebp]
  00016	ff 75 08	 push	 DWORD PTR __First$[ebp]
  00019	e8 00 00 00 00	 call	 ??$_Sort@PAUtagAlchemicItemInfo@@HVMaterialItemSort@ItemMaterialCompoundWnd@@@std@@YAXPAUtagAlchemicItemInfo@@0HVMaterialItemSort@ItemMaterialCompoundWnd@@@Z ; std::_Sort<tagAlchemicItemInfo *,int,ItemMaterialCompoundWnd::MaterialItemSort>
  0001e	83 c4 10	 add	 esp, 16			; 00000010H

; 3807 : 	}

  00021	5d		 pop	 ebp
  00022	c3		 ret	 0
??$sort@V?$_Vector_iterator@V?$_Vector_val@UtagAlchemicItemInfo@@V?$allocator@UtagAlchemicItemInfo@@@std@@@std@@@std@@VMaterialItemSort@ItemMaterialCompoundWnd@@@std@@YAXV?$_Vector_iterator@V?$_Vector_val@UtagAlchemicItemInfo@@V?$allocator@UtagAlchemicItemInfo@@@std@@@std@@@0@0VMaterialItemSort@ItemMaterialCompoundWnd@@@Z ENDP ; std::sort<std::_Vector_iterator<std::_Vector_val<tagAlchemicItemInfo,std::allocator<tagAlchemicItemInfo> > >,ItemMaterialCompoundWnd::MaterialItemSort>
_TEXT	ENDS
PUBLIC	?UpdatePetData@PetEatWnd@@IAEXXZ		; PetEatWnd::UpdatePetData
EXTRN	__imp_?SetChildActive@ioWnd@@QAEXK@Z:PROC
EXTRN	?GetAlchemicItemInfo@ioAlchemicInventory@@QAE_NAAV?$vector@UtagAlchemicItemInfo@@V?$allocator@UtagAlchemicItemInfo@@@std@@@std@@@Z:PROC ; ioAlchemicInventory::GetAlchemicItemInfo
EXTRN	?SetCurTitleColor@SelectPetTargetBtn@@QAEXK@Z:PROC ; SelectPetTargetBtn::SetCurTitleColor
EXTRN	?SetSelectMaterial@SelectPetTargetBtn@@QAEXHVioHashString@@@Z:PROC ; SelectPetTargetBtn::SetSelectMaterial
EXTRN	__imp_??0ioHashString@@QAE@PBD@Z:PROC
EXTRN	__imp_?FindChildWnd@ioWnd@@QAEPAV1@K@Z:PROC
EXTRN	?GetPetNeedMaterial@ioPetInfoManager@@QAEHH@Z:PROC ; ioPetInfoManager::GetPetNeedMaterial
EXTRN	?GetSingleton@ioPetInfoManager@@SAAAV1@XZ:PROC	; ioPetInfoManager::GetSingleton
EXTRN	?GetNeedMaterialCnt@ioPetEatInfoManager@@QAEHHH@Z:PROC ; ioPetEatInfoManager::GetNeedMaterialCnt
EXTRN	?GetSingleton@ioPetEatInfoManager@@SAAAV1@XZ:PROC ; ioPetEatInfoManager::GetSingleton
EXTRN	?GetPetSlot@ioUserPet@@QAE_NHAAUtagPetSlot@@@Z:PROC ; ioUserPet::GetPetSlot
;	COMDAT xdata$x
; File c:\program files (x86)\microsoft visual studio 10.0\vc\include\vector
xdata$x	SEGMENT
__unwindtable$?UpdatePetData@PetEatWnd@@IAEXXZ DD 0ffffffffH
	DD	FLAT:__unwindfunclet$?UpdatePetData@PetEatWnd@@IAEXXZ$0
	DD	00H
	DD	FLAT:__unwindfunclet$?UpdatePetData@PetEatWnd@@IAEXXZ$2
__ehfuncinfo$?UpdatePetData@PetEatWnd@@IAEXXZ DD 019930522H
	DD	02H
	DD	FLAT:__unwindtable$?UpdatePetData@PetEatWnd@@IAEXXZ
	DD	2 DUP(00H)
	DD	2 DUP(00H)
	DD	00H
	DD	01H
; Function compile flags: /Ogsp
; File d:\lost saga for developer\youtube\tutorial\source\src\lsclient\gui\peteatwnd.cpp
xdata$x	ENDS
;	COMDAT ?UpdatePetData@PetEatWnd@@IAEXXZ
_TEXT	SEGMENT
_sPetSlot$ = -88					; size = 56
_vMaterialList$509042 = -32				; size = 16
$T515311 = -16						; size = 4
__$EHRec$ = -12						; size = 12
?UpdatePetData@PetEatWnd@@IAEXXZ PROC			; PetEatWnd::UpdatePetData, COMDAT
; _this$ = ecx

; 291  : {	

  00000	6a 4c		 push	 76			; 0000004cH
  00002	b8 00 00 00 00	 mov	 eax, __ehhandler$?UpdatePetData@PetEatWnd@@IAEXXZ
  00007	e8 00 00 00 00	 call	 __EH_prolog3
  0000c	8b f1		 mov	 esi, ecx

; 292  : 	if ( m_nSelectPetSlot <= 0 )

  0000e	33 db		 xor	 ebx, ebx
  00010	39 9e 68 01 00
	00		 cmp	 DWORD PTR [esi+360], ebx
  00016	0f 8e f9 00 00
	00		 jle	 $LN8@UpdatePetD

; 293  : 		return;
; 294  : 
; 295  : 	ioUserPet *pUserPet = g_MyInfo.GetUserPet();

  0001c	e8 00 00 00 00	 call	 ?GetSingleton@ioMyInfo@@SAAAV1@XZ ; ioMyInfo::GetSingleton
  00021	8d b8 c0 02 00
	00		 lea	 edi, DWORD PTR [eax+704]

; 296  : 	if( !pUserPet )

  00027	3b fb		 cmp	 edi, ebx
  00029	0f 84 e6 00 00
	00		 je	 $LN8@UpdatePetD

; 297  : 		return;
; 298  : 
; 299  : 	// 
; 300  : 	PetSlot sPetSlot;

  0002f	8d 4d a8	 lea	 ecx, DWORD PTR _sPetSlot$[ebp]
  00032	e8 00 00 00 00	 call	 ??0tagPetSlot@@QAE@XZ	; tagPetSlot::tagPetSlot

; 301  : 	if( pUserPet->GetPetSlot( m_nSelectPetSlot, sPetSlot ) )

  00037	8d 45 a8	 lea	 eax, DWORD PTR _sPetSlot$[ebp]
  0003a	50		 push	 eax
  0003b	ff b6 68 01 00
	00		 push	 DWORD PTR [esi+360]
  00041	8b cf		 mov	 ecx, edi
  00043	89 5d fc	 mov	 DWORD PTR __$EHRec$[ebp+8], ebx
  00046	e8 00 00 00 00	 call	 ?GetPetSlot@ioUserPet@@QAE_NHAAUtagPetSlot@@@Z ; ioUserPet::GetPetSlot
  0004b	84 c0		 test	 al, al
  0004d	0f 84 b6 00 00
	00		 je	 $LN25@UpdatePetD

; 302  : 	{									
; 303  : 		//   
; 304  : 		m_nNeedMaterialCnt = g_PetEatInfoMgr.GetNeedMaterialCnt( sPetSlot.m_PetRankType, sPetSlot.m_nCurLevel );

  00053	ff 75 b4	 push	 DWORD PTR _sPetSlot$[ebp+12]
  00056	ff 75 ac	 push	 DWORD PTR _sPetSlot$[ebp+4]
  00059	e8 00 00 00 00	 call	 ?GetSingleton@ioPetEatInfoManager@@SAAAV1@XZ ; ioPetEatInfoManager::GetSingleton
  0005e	8b c8		 mov	 ecx, eax
  00060	e8 00 00 00 00	 call	 ?GetNeedMaterialCnt@ioPetEatInfoManager@@QAEHHH@Z ; ioPetEatInfoManager::GetNeedMaterialCnt

; 305  : 						
; 306  : 		// 
; 307  : 		m_bIsSelectMaterial = false;
; 308  : 		m_nSelectMaterialCode = 0;			
; 309  : 		m_nNeedMaterialCode = g_PetInfoMgr.GetPetNeedMaterial( sPetSlot.m_nPetCode );

  00065	ff 75 a8	 push	 DWORD PTR _sPetSlot$[ebp]
  00068	89 86 6c 01 00
	00		 mov	 DWORD PTR [esi+364], eax
  0006e	88 9e 78 01 00
	00		 mov	 BYTE PTR [esi+376], bl
  00074	89 9e 74 01 00
	00		 mov	 DWORD PTR [esi+372], ebx
  0007a	e8 00 00 00 00	 call	 ?GetSingleton@ioPetInfoManager@@SAAAV1@XZ ; ioPetInfoManager::GetSingleton
  0007f	8b c8		 mov	 ecx, eax
  00081	e8 00 00 00 00	 call	 ?GetPetNeedMaterial@ioPetInfoManager@@QAEHH@Z ; ioPetInfoManager::GetPetNeedMaterial

; 310  : 			
; 311  : 		SelectPetTargetBtn *pMaterialItemBtn = (SelectPetTargetBtn*)(FindChildWnd(ID_MATERIALPET_BTN));

  00086	6a 0b		 push	 11			; 0000000bH
  00088	8b ce		 mov	 ecx, esi
  0008a	89 86 70 01 00
	00		 mov	 DWORD PTR [esi+368], eax
  00090	ff 15 00 00 00
	00		 call	 DWORD PTR __imp_?FindChildWnd@ioWnd@@QAEPAV1@K@Z
  00096	8b f8		 mov	 edi, eax

; 312  : 		if( pMaterialItemBtn )

  00098	3b fb		 cmp	 edi, ebx
  0009a	74 27		 je	 SHORT $LN4@UpdatePetD

; 313  : 		{
; 314  : 			pMaterialItemBtn->SetSelectMaterial( 0, "" );

  0009c	83 ec 10	 sub	 esp, 16			; 00000010H
  0009f	8b cc		 mov	 ecx, esp
  000a1	89 65 f0	 mov	 DWORD PTR $T515311[ebp], esp
  000a4	68 00 00 00 00	 push	 OFFSET ??_C@_00CNPNBAHC@?$AA@
  000a9	ff 15 00 00 00
	00		 call	 DWORD PTR __imp_??0ioHashString@@QAE@PBD@Z
  000af	53		 push	 ebx
  000b0	8b cf		 mov	 ecx, edi
  000b2	e8 00 00 00 00	 call	 ?SetSelectMaterial@SelectPetTargetBtn@@QAEXHVioHashString@@@Z ; SelectPetTargetBtn::SetSelectMaterial

; 315  : 			pMaterialItemBtn->SetCurTitleColor( TCT_DEFAULT_DARKGRAY );

  000b7	68 3a 3a 3a ff	 push	 -12961222		; ff3a3a3aH
  000bc	8b cf		 mov	 ecx, edi
  000be	e8 00 00 00 00	 call	 ?SetCurTitleColor@SelectPetTargetBtn@@QAEXK@Z ; SelectPetTargetBtn::SetCurTitleColor
$LN4@UpdatePetD:

; 316  : 		}
; 317  : 
; 318  : 		ioAlchemicInventory *pInven = g_MyInfo.GetAlchemicInventory();

  000c3	e8 00 00 00 00	 call	 ?GetSingleton@ioMyInfo@@SAAAV1@XZ ; ioMyInfo::GetSingleton
  000c8	8d 88 84 02 00
	00		 lea	 ecx, DWORD PTR [eax+644]

; 319  : 		if( !pInven )

  000ce	3b cb		 cmp	 ecx, ebx

; 320  : 			return;

  000d0	74 37		 je	 SHORT $LN25@UpdatePetD

; 321  : 
; 322  : 		//  
; 323  : 		vAlchemicItemInfoList vMaterialList;

  000d2	89 5d e0	 mov	 DWORD PTR _vMaterialList$509042[ebp], ebx
  000d5	89 5d e4	 mov	 DWORD PTR _vMaterialList$509042[ebp+4], ebx
  000d8	89 5d e8	 mov	 DWORD PTR _vMaterialList$509042[ebp+8], ebx

; 324  : 		if ( !pInven->GetAlchemicItemInfo( vMaterialList ) )

  000db	8d 45 e0	 lea	 eax, DWORD PTR _vMaterialList$509042[ebp]
  000de	50		 push	 eax
  000df	c6 45 fc 01	 mov	 BYTE PTR __$EHRec$[ebp+8], 1
  000e3	e8 00 00 00 00	 call	 ?GetAlchemicItemInfo@ioAlchemicInventory@@QAE_NAAV?$vector@UtagAlchemicItemInfo@@V?$allocator@UtagAlchemicItemInfo@@@std@@@std@@@Z ; ioAlchemicInventory::GetAlchemicItemInfo

; 325  : 			SetChildInActive( ID_MATERIALPET_BTN );

  000e8	6a 0b		 push	 11			; 0000000bH
  000ea	8b ce		 mov	 ecx, esi
  000ec	84 c0		 test	 al, al
  000ee	75 08		 jne	 SHORT $LN2@UpdatePetD
  000f0	ff 15 00 00 00
	00		 call	 DWORD PTR __imp_?SetChildInActive@ioWnd@@QAEXK@Z

; 326  : 		else

  000f6	eb 06		 jmp	 SHORT $LN1@UpdatePetD
$LN2@UpdatePetD:

; 327  : 			SetChildActive( ID_MATERIALPET_BTN );

  000f8	ff 15 00 00 00
	00		 call	 DWORD PTR __imp_?SetChildActive@ioWnd@@QAEXK@Z
$LN1@UpdatePetD:

; 328  : 	}

  000fe	8d 4d e0	 lea	 ecx, DWORD PTR _vMaterialList$509042[ebp]
  00101	88 5d fc	 mov	 BYTE PTR __$EHRec$[ebp+8], bl
  00104	e8 00 00 00 00	 call	 ?_Tidy@?$vector@UtagAlchemicItemInfo@@V?$allocator@UtagAlchemicItemInfo@@@std@@@std@@IAEXXZ ; std::vector<tagAlchemicItemInfo,std::allocator<tagAlchemicItemInfo> >::_Tidy
$LN25@UpdatePetD:

; 329  : }

  00109	83 4d fc ff	 or	 DWORD PTR __$EHRec$[ebp+8], -1
  0010d	8d 4d a8	 lea	 ecx, DWORD PTR _sPetSlot$[ebp]
  00110	e8 00 00 00 00	 call	 ??1tagPetSlot@@QAE@XZ
$LN8@UpdatePetD:
  00115	e8 00 00 00 00	 call	 __EH_epilog3
  0011a	c3		 ret	 0
_TEXT	ENDS
;	COMDAT text$x
text$x	SEGMENT
__unwindfunclet$?UpdatePetData@PetEatWnd@@IAEXXZ$0:
  00000	8d 4d a8	 lea	 ecx, DWORD PTR _sPetSlot$[ebp]
  00003	e9 00 00 00 00	 jmp	 ??1tagPetSlot@@QAE@XZ
__unwindfunclet$?UpdatePetData@PetEatWnd@@IAEXXZ$2:
  00008	8d 4d e0	 lea	 ecx, DWORD PTR _vMaterialList$509042[ebp]
  0000b	e9 00 00 00 00	 jmp	 ??1?$vector@UtagAlchemicItemInfo@@V?$allocator@UtagAlchemicItemInfo@@@std@@@std@@QAE@XZ ; std::vector<tagAlchemicItemInfo,std::allocator<tagAlchemicItemInfo> >::~vector<tagAlchemicItemInfo,std::allocator<tagAlchemicItemInfo> >
__ehhandler$?UpdatePetData@PetEatWnd@@IAEXXZ:
  00010	8b 54 24 08	 mov	 edx, DWORD PTR [esp+8]
  00014	8d 42 0c	 lea	 eax, DWORD PTR [edx+12]
  00017	8b 4a a4	 mov	 ecx, DWORD PTR [edx-92]
  0001a	33 c8		 xor	 ecx, eax
  0001c	e8 00 00 00 00	 call	 @__security_check_cookie@4
  00021	b8 00 00 00 00	 mov	 eax, OFFSET __ehfuncinfo$?UpdatePetData@PetEatWnd@@IAEXXZ
  00026	e9 00 00 00 00	 jmp	 ___CxxFrameHandler3
text$x	ENDS
?UpdatePetData@PetEatWnd@@IAEXXZ ENDP			; PetEatWnd::UpdatePetData
PUBLIC	?push_back@?$vector@UNewShopPullDownItem@@V?$allocator@UNewShopPullDownItem@@@std@@@std@@QAEXABUNewShopPullDownItem@@@Z ; std::vector<NewShopPullDownItem,std::allocator<NewShopPullDownItem> >::push_back
; Function compile flags: /Ogsp
; File c:\program files (x86)\microsoft visual studio 10.0\vc\include\vector
;	COMDAT ?push_back@?$vector@UNewShopPullDownItem@@V?$allocator@UNewShopPullDownItem@@@std@@@std@@QAEXABUNewShopPullDownItem@@@Z
_TEXT	SEGMENT
__Val$ = 8						; size = 4
?push_back@?$vector@UNewShopPullDownItem@@V?$allocator@UNewShopPullDownItem@@@std@@@std@@QAEXABUNewShopPullDownItem@@@Z PROC ; std::vector<NewShopPullDownItem,std::allocator<NewShopPullDownItem> >::push_back, COMDAT
; _this$ = ecx

; 976  : 		{	// insert element at end

  00000	55		 push	 ebp
  00001	8b ec		 mov	 ebp, esp
  00003	56		 push	 esi
  00004	8b f1		 mov	 esi, ecx

; 977  : 		if (_Inside(_STD addressof(_Val)))

  00006	8b 4e 04	 mov	 ecx, DWORD PTR [esi+4]
  00009	57		 push	 edi
  0000a	8b 7d 08	 mov	 edi, DWORD PTR __Val$[ebp]
  0000d	3b f9		 cmp	 edi, ecx
  0000f	73 37		 jae	 SHORT $LN4@push_back
  00011	8b 16		 mov	 edx, DWORD PTR [esi]
  00013	3b d7		 cmp	 edx, edi
  00015	77 31		 ja	 SHORT $LN4@push_back

; 978  : 			{	// push back an element
; 979  : 			size_type _Idx = _STD addressof(_Val) - this->_Myfirst;

  00017	8b c7		 mov	 eax, edi
  00019	2b c2		 sub	 eax, edx
  0001b	6a 50		 push	 80			; 00000050H
  0001d	99		 cdq
  0001e	5f		 pop	 edi
  0001f	f7 ff		 idiv	 edi
  00021	8b f8		 mov	 edi, eax

; 980  : 			if (this->_Mylast == this->_Myend)

  00023	3b 4e 08	 cmp	 ecx, DWORD PTR [esi+8]
  00026	75 09		 jne	 SHORT $LN3@push_back

; 981  : 				_Reserve(1);

  00028	6a 01		 push	 1
  0002a	8b ce		 mov	 ecx, esi
  0002c	e8 00 00 00 00	 call	 ?_Reserve@?$vector@UNewShopPullDownItem@@V?$allocator@UNewShopPullDownItem@@@std@@@std@@IAEXI@Z ; std::vector<NewShopPullDownItem,std::allocator<NewShopPullDownItem> >::_Reserve
$LN3@push_back:

; 982  : 			_Orphan_range(this->_Mylast, this->_Mylast);
; 983  : 			_Cons_val(this->_Alval,
; 984  : 				this->_Mylast,
; 985  : 				this->_Myfirst[_Idx]);

  00031	6b ff 50	 imul	 edi, 80			; 00000050H
  00034	03 3e		 add	 edi, DWORD PTR [esi]
  00036	8d 46 0c	 lea	 eax, DWORD PTR [esi+12]
  00039	57		 push	 edi
  0003a	ff 76 04	 push	 DWORD PTR [esi+4]
  0003d	50		 push	 eax
  0003e	e8 00 00 00 00	 call	 ??$_Cons_val@V?$allocator@UNewShopPullDownItem@@@std@@UNewShopPullDownItem@@AAU3@@std@@YAXAAV?$allocator@UNewShopPullDownItem@@@0@PAUNewShopPullDownItem@@AAU2@@Z ; std::_Cons_val<std::allocator<NewShopPullDownItem>,NewShopPullDownItem,NewShopPullDownItem &>
  00043	83 c4 0c	 add	 esp, 12			; 0000000cH

; 986  : 			++this->_Mylast;
; 987  : 			}
; 988  : 		else

  00046	eb 19		 jmp	 SHORT $LN26@push_back
$LN4@push_back:

; 989  : 			{	// push back a non-element
; 990  : 			if (this->_Mylast == this->_Myend)

  00048	3b 4e 08	 cmp	 ecx, DWORD PTR [esi+8]
  0004b	75 09		 jne	 SHORT $LN1@push_back

; 991  : 				_Reserve(1);

  0004d	6a 01		 push	 1
  0004f	8b ce		 mov	 ecx, esi
  00051	e8 00 00 00 00	 call	 ?_Reserve@?$vector@UNewShopPullDownItem@@V?$allocator@UNewShopPullDownItem@@@std@@@std@@IAEXI@Z ; std::vector<NewShopPullDownItem,std::allocator<NewShopPullDownItem> >::_Reserve
$LN1@push_back:

; 992  : 			_Orphan_range(this->_Mylast, this->_Mylast);
; 993  : 			_Cons_val(this->_Alval,
; 994  : 				this->_Mylast,
; 995  : 				_Val);

  00056	57		 push	 edi
  00057	ff 76 04	 push	 DWORD PTR [esi+4]
  0005a	e8 00 00 00 00	 call	 ??$_Construct@UNewShopPullDownItem@@ABU1@@std@@YAXPAUNewShopPullDownItem@@ABU1@@Z ; std::_Construct<NewShopPullDownItem,NewShopPullDownItem const &>
  0005f	59		 pop	 ecx
  00060	59		 pop	 ecx
$LN26@push_back:

; 996  : 			++this->_Mylast;

  00061	83 46 04 50	 add	 DWORD PTR [esi+4], 80	; 00000050H
  00065	5f		 pop	 edi
  00066	5e		 pop	 esi

; 997  : 			}
; 998  : 		}

  00067	5d		 pop	 ebp
  00068	c2 04 00	 ret	 4
?push_back@?$vector@UNewShopPullDownItem@@V?$allocator@UNewShopPullDownItem@@@std@@@std@@QAEXABUNewShopPullDownItem@@@Z ENDP ; std::vector<NewShopPullDownItem,std::allocator<NewShopPullDownItem> >::push_back
_TEXT	ENDS
PUBLIC	?clear@?$vector@UNewShopPullDownItem@@V?$allocator@UNewShopPullDownItem@@@std@@@std@@QAEXXZ ; std::vector<NewShopPullDownItem,std::allocator<NewShopPullDownItem> >::clear
; Function compile flags: /Ogsp
;	COMDAT ?clear@?$vector@UNewShopPullDownItem@@V?$allocator@UNewShopPullDownItem@@@std@@@std@@QAEXXZ
_TEXT	SEGMENT
$T515404 = -4						; size = 4
?clear@?$vector@UNewShopPullDownItem@@V?$allocator@UNewShopPullDownItem@@@std@@@std@@QAEXXZ PROC ; std::vector<NewShopPullDownItem,std::allocator<NewShopPullDownItem> >::clear, COMDAT
; _this$ = ecx

; 1217 : 		{	// erase all

  00000	55		 push	 ebp
  00001	8b ec		 mov	 ebp, esp
  00003	51		 push	 ecx

; 1218 : 		erase(begin(), end());

  00004	8b 41 04	 mov	 eax, DWORD PTR [ecx+4]
  00007	8b 11		 mov	 edx, DWORD PTR [ecx]
  00009	50		 push	 eax
  0000a	52		 push	 edx
  0000b	8d 45 fc	 lea	 eax, DWORD PTR $T515404[ebp]
  0000e	50		 push	 eax
  0000f	e8 00 00 00 00	 call	 ?erase@?$vector@UNewShopPullDownItem@@V?$allocator@UNewShopPullDownItem@@@std@@@std@@QAE?AV?$_Vector_iterator@V?$_Vector_val@UNewShopPullDownItem@@V?$allocator@UNewShopPullDownItem@@@std@@@std@@@2@V?$_Vector_const_iterator@V?$_Vector_val@UNewShopPullDownItem@@V?$allocator@UNewShopPullDownItem@@@std@@@std@@@2@0@Z ; std::vector<NewShopPullDownItem,std::allocator<NewShopPullDownItem> >::erase

; 1219 : 		}

  00014	c9		 leave
  00015	c3		 ret	 0
?clear@?$vector@UNewShopPullDownItem@@V?$allocator@UNewShopPullDownItem@@@std@@@std@@QAEXXZ ENDP ; std::vector<NewShopPullDownItem,std::allocator<NewShopPullDownItem> >::clear
_TEXT	ENDS
PUBLIC	?push_back@?$vector@UtagAlchemicItemInfo@@V?$allocator@UtagAlchemicItemInfo@@@std@@@std@@QAEXABUtagAlchemicItemInfo@@@Z ; std::vector<tagAlchemicItemInfo,std::allocator<tagAlchemicItemInfo> >::push_back
; Function compile flags: /Ogsp
;	COMDAT ?push_back@?$vector@UtagAlchemicItemInfo@@V?$allocator@UtagAlchemicItemInfo@@@std@@@std@@QAEXABUtagAlchemicItemInfo@@@Z
_TEXT	SEGMENT
__Val$ = 8						; size = 4
?push_back@?$vector@UtagAlchemicItemInfo@@V?$allocator@UtagAlchemicItemInfo@@@std@@@std@@QAEXABUtagAlchemicItemInfo@@@Z PROC ; std::vector<tagAlchemicItemInfo,std::allocator<tagAlchemicItemInfo> >::push_back, COMDAT
; _this$ = ecx

; 976  : 		{	// insert element at end

  00000	55		 push	 ebp
  00001	8b ec		 mov	 ebp, esp
  00003	56		 push	 esi
  00004	8b f1		 mov	 esi, ecx

; 977  : 		if (_Inside(_STD addressof(_Val)))

  00006	8b 4e 04	 mov	 ecx, DWORD PTR [esi+4]
  00009	57		 push	 edi
  0000a	8b 7d 08	 mov	 edi, DWORD PTR __Val$[ebp]
  0000d	3b f9		 cmp	 edi, ecx
  0000f	73 37		 jae	 SHORT $LN4@push_back@2
  00011	8b 16		 mov	 edx, DWORD PTR [esi]
  00013	3b d7		 cmp	 edx, edi
  00015	77 31		 ja	 SHORT $LN4@push_back@2

; 978  : 			{	// push back an element
; 979  : 			size_type _Idx = _STD addressof(_Val) - this->_Myfirst;

  00017	8b c7		 mov	 eax, edi
  00019	2b c2		 sub	 eax, edx
  0001b	6a 1c		 push	 28			; 0000001cH
  0001d	99		 cdq
  0001e	5f		 pop	 edi
  0001f	f7 ff		 idiv	 edi
  00021	8b f8		 mov	 edi, eax

; 980  : 			if (this->_Mylast == this->_Myend)

  00023	3b 4e 08	 cmp	 ecx, DWORD PTR [esi+8]
  00026	75 09		 jne	 SHORT $LN3@push_back@2

; 981  : 				_Reserve(1);

  00028	6a 01		 push	 1
  0002a	8b ce		 mov	 ecx, esi
  0002c	e8 00 00 00 00	 call	 ?_Reserve@?$vector@UtagAlchemicItemInfo@@V?$allocator@UtagAlchemicItemInfo@@@std@@@std@@IAEXI@Z ; std::vector<tagAlchemicItemInfo,std::allocator<tagAlchemicItemInfo> >::_Reserve
$LN3@push_back@2:

; 982  : 			_Orphan_range(this->_Mylast, this->_Mylast);
; 983  : 			_Cons_val(this->_Alval,
; 984  : 				this->_Mylast,
; 985  : 				this->_Myfirst[_Idx]);

  00031	6b ff 1c	 imul	 edi, 28			; 0000001cH
  00034	03 3e		 add	 edi, DWORD PTR [esi]
  00036	8d 46 0c	 lea	 eax, DWORD PTR [esi+12]
  00039	57		 push	 edi
  0003a	ff 76 04	 push	 DWORD PTR [esi+4]
  0003d	50		 push	 eax
  0003e	e8 00 00 00 00	 call	 ??$_Cons_val@V?$allocator@UtagAlchemicItemInfo@@@std@@UtagAlchemicItemInfo@@AAU3@@std@@YAXAAV?$allocator@UtagAlchemicItemInfo@@@0@PAUtagAlchemicItemInfo@@AAU2@@Z ; std::_Cons_val<std::allocator<tagAlchemicItemInfo>,tagAlchemicItemInfo,tagAlchemicItemInfo &>
  00043	83 c4 0c	 add	 esp, 12			; 0000000cH

; 986  : 			++this->_Mylast;
; 987  : 			}
; 988  : 		else

  00046	eb 19		 jmp	 SHORT $LN26@push_back@2
$LN4@push_back@2:

; 989  : 			{	// push back a non-element
; 990  : 			if (this->_Mylast == this->_Myend)

  00048	3b 4e 08	 cmp	 ecx, DWORD PTR [esi+8]
  0004b	75 09		 jne	 SHORT $LN1@push_back@2

; 991  : 				_Reserve(1);

  0004d	6a 01		 push	 1
  0004f	8b ce		 mov	 ecx, esi
  00051	e8 00 00 00 00	 call	 ?_Reserve@?$vector@UtagAlchemicItemInfo@@V?$allocator@UtagAlchemicItemInfo@@@std@@@std@@IAEXI@Z ; std::vector<tagAlchemicItemInfo,std::allocator<tagAlchemicItemInfo> >::_Reserve
$LN1@push_back@2:

; 992  : 			_Orphan_range(this->_Mylast, this->_Mylast);
; 993  : 			_Cons_val(this->_Alval,
; 994  : 				this->_Mylast,
; 995  : 				_Val);

  00056	57		 push	 edi
  00057	ff 76 04	 push	 DWORD PTR [esi+4]
  0005a	e8 00 00 00 00	 call	 ??$_Construct@UtagAlchemicItemInfo@@ABU1@@std@@YAXPAUtagAlchemicItemInfo@@ABU1@@Z ; std::_Construct<tagAlchemicItemInfo,tagAlchemicItemInfo const &>
  0005f	59		 pop	 ecx
  00060	59		 pop	 ecx
$LN26@push_back@2:

; 996  : 			++this->_Mylast;

  00061	83 46 04 1c	 add	 DWORD PTR [esi+4], 28	; 0000001cH
  00065	5f		 pop	 edi
  00066	5e		 pop	 esi

; 997  : 			}
; 998  : 		}

  00067	5d		 pop	 ebp
  00068	c2 04 00	 ret	 4
?push_back@?$vector@UtagAlchemicItemInfo@@V?$allocator@UtagAlchemicItemInfo@@@std@@@std@@QAEXABUtagAlchemicItemInfo@@@Z ENDP ; std::vector<tagAlchemicItemInfo,std::allocator<tagAlchemicItemInfo> >::push_back
_TEXT	ENDS
PUBLIC	?clear@?$vector@UtagAlchemicItemInfo@@V?$allocator@UtagAlchemicItemInfo@@@std@@@std@@QAEXXZ ; std::vector<tagAlchemicItemInfo,std::allocator<tagAlchemicItemInfo> >::clear
; Function compile flags: /Ogsp
;	COMDAT ?clear@?$vector@UtagAlchemicItemInfo@@V?$allocator@UtagAlchemicItemInfo@@@std@@@std@@QAEXXZ
_TEXT	SEGMENT
$T515498 = -4						; size = 4
?clear@?$vector@UtagAlchemicItemInfo@@V?$allocator@UtagAlchemicItemInfo@@@std@@@std@@QAEXXZ PROC ; std::vector<tagAlchemicItemInfo,std::allocator<tagAlchemicItemInfo> >::clear, COMDAT
; _this$ = ecx

; 1217 : 		{	// erase all

  00000	55		 push	 ebp
  00001	8b ec		 mov	 ebp, esp
  00003	51		 push	 ecx

; 1218 : 		erase(begin(), end());

  00004	8b 41 04	 mov	 eax, DWORD PTR [ecx+4]
  00007	8b 11		 mov	 edx, DWORD PTR [ecx]
  00009	50		 push	 eax
  0000a	52		 push	 edx
  0000b	8d 45 fc	 lea	 eax, DWORD PTR $T515498[ebp]
  0000e	50		 push	 eax
  0000f	e8 00 00 00 00	 call	 ?erase@?$vector@UtagAlchemicItemInfo@@V?$allocator@UtagAlchemicItemInfo@@@std@@@std@@QAE?AV?$_Vector_iterator@V?$_Vector_val@UtagAlchemicItemInfo@@V?$allocator@UtagAlchemicItemInfo@@@std@@@std@@@2@V?$_Vector_const_iterator@V?$_Vector_val@UtagAlchemicItemInfo@@V?$allocator@UtagAlchemicItemInfo@@@std@@@std@@@2@0@Z ; std::vector<tagAlchemicItemInfo,std::allocator<tagAlchemicItemInfo> >::erase

; 1219 : 		}

  00014	c9		 leave
  00015	c3		 ret	 0
?clear@?$vector@UtagAlchemicItemInfo@@V?$allocator@UtagAlchemicItemInfo@@@std@@@std@@QAEXXZ ENDP ; std::vector<tagAlchemicItemInfo,std::allocator<tagAlchemicItemInfo> >::clear
_TEXT	ENDS
PUBLIC	?ResetWnd@PetEatWnd@@IAEXXZ			; PetEatWnd::ResetWnd
; Function compile flags: /Ogsp
; File d:\lost saga for developer\youtube\tutorial\source\src\lsclient\gui\peteatwnd.cpp
;	COMDAT ?ResetWnd@PetEatWnd@@IAEXXZ
_TEXT	SEGMENT
$T515551 = -4						; size = 4
?ResetWnd@PetEatWnd@@IAEXXZ PROC			; PetEatWnd::ResetWnd, COMDAT
; _this$ = ecx

; 268  : {

  00000	55		 push	 ebp
  00001	8b ec		 mov	 ebp, esp
  00003	51		 push	 ecx
  00004	56		 push	 esi
  00005	57		 push	 edi
  00006	8b f9		 mov	 edi, ecx

; 269  : 	ShowMainInfo();

  00008	e8 00 00 00 00	 call	 ?ShowMainInfo@PetEatWnd@@IAEXXZ ; PetEatWnd::ShowMainInfo

; 270  : 
; 271  : 	HideChildWnd( ID_EMPTY_BTN );

  0000d	8b 35 00 00 00
	00		 mov	 esi, DWORD PTR __imp_?HideChildWnd@ioWnd@@QAEXK_N@Z
  00013	6a 00		 push	 0
  00015	6a 03		 push	 3
  00017	8b cf		 mov	 ecx, edi
  00019	ff d6		 call	 esi

; 272  : 	HideChildWnd( ID_HELP_MARK );

  0001b	6a 00		 push	 0
  0001d	6a 0c		 push	 12			; 0000000cH
  0001f	8b cf		 mov	 ecx, edi
  00021	ff d6		 call	 esi

; 273  : 	HideChildWnd( ID_MATERIALPET_WND );

  00023	6a 00		 push	 0
  00025	6a 65		 push	 101			; 00000065H
  00027	8b cf		 mov	 ecx, edi
  00029	ff d6		 call	 esi

; 274  : 
; 275  : 	InitData();

  0002b	8b cf		 mov	 ecx, edi
  0002d	e8 00 00 00 00	 call	 ?InitData@PetEatWnd@@IAEXXZ ; PetEatWnd::InitData

; 276  : 		
; 277  : 	SelectPetTargetBtn *pMaterialItemBtn = (SelectPetTargetBtn*)(FindChildWnd(ID_MATERIALPET_BTN));

  00032	6a 0b		 push	 11			; 0000000bH
  00034	ff 15 00 00 00
	00		 call	 DWORD PTR __imp_?FindChildWnd@ioWnd@@QAEPAV1@K@Z
  0003a	8b f0		 mov	 esi, eax

; 278  : 	if( pMaterialItemBtn )

  0003c	85 f6		 test	 esi, esi
  0003e	74 28		 je	 SHORT $LN1@ResetWnd

; 279  : 	{
; 280  : 		pMaterialItemBtn->SetSelectMaterial( 0, "" );

  00040	83 ec 10	 sub	 esp, 16			; 00000010H
  00043	8b cc		 mov	 ecx, esp
  00045	89 65 fc	 mov	 DWORD PTR $T515551[ebp], esp
  00048	68 00 00 00 00	 push	 OFFSET ??_C@_00CNPNBAHC@?$AA@
  0004d	ff 15 00 00 00
	00		 call	 DWORD PTR __imp_??0ioHashString@@QAE@PBD@Z
  00053	6a 00		 push	 0
  00055	8b ce		 mov	 ecx, esi
  00057	e8 00 00 00 00	 call	 ?SetSelectMaterial@SelectPetTargetBtn@@QAEXHVioHashString@@@Z ; SelectPetTargetBtn::SetSelectMaterial

; 281  : 		pMaterialItemBtn->SetCurTitleColor( TCT_DEFAULT_DARKGRAY );

  0005c	68 3a 3a 3a ff	 push	 -12961222		; ff3a3a3aH
  00061	8b ce		 mov	 ecx, esi
  00063	e8 00 00 00 00	 call	 ?SetCurTitleColor@SelectPetTargetBtn@@QAEXK@Z ; SelectPetTargetBtn::SetCurTitleColor
$LN1@ResetWnd:

; 282  : 	}
; 283  : 	
; 284  : 	UpdatePetData();

  00068	8b cf		 mov	 ecx, edi
  0006a	e8 00 00 00 00	 call	 ?UpdatePetData@PetEatWnd@@IAEXXZ ; PetEatWnd::UpdatePetData

; 285  : }

  0006f	5f		 pop	 edi
  00070	5e		 pop	 esi
  00071	c9		 leave
  00072	c3		 ret	 0
?ResetWnd@PetEatWnd@@IAEXXZ ENDP			; PetEatWnd::ResetWnd
_TEXT	ENDS
PUBLIC	??_C@_0BL@DOEMINMM@PetEatWnd?3?3GetMaterialList?$AA@ ; `string'
PUBLIC	_rkList$GSCopy$
PUBLIC	_this$GSCopy$
PUBLIC	?GetMaterialList@PetEatWnd@@IAEXAAV?$vector@UNewShopPullDownItem@@V?$allocator@UNewShopPullDownItem@@@std@@@std@@@Z ; PetEatWnd::GetMaterialList
EXTRN	__imp_??4ioHashString@@QAEAAV0@PBD@Z:PROC
EXTRN	__imp_?SafeSprintf@@YAXPADHPBDH@Z:PROC
;	COMDAT ??_C@_0BL@DOEMINMM@PetEatWnd?3?3GetMaterialList?$AA@
; File c:\program files (x86)\microsoft visual studio 10.0\vc\include\vector
CONST	SEGMENT
??_C@_0BL@DOEMINMM@PetEatWnd?3?3GetMaterialList?$AA@ DB 'PetEatWnd::GetMa'
	DB	'terialList', 00H				; `string'
CONST	ENDS
;	COMDAT xdata$x
xdata$x	SEGMENT
__ehfuncinfo$?GetMaterialList@PetEatWnd@@IAEXAAV?$vector@UNewShopPullDownItem@@V?$allocator@UNewShopPullDownItem@@@std@@@std@@@Z DD 019930522H
	DD	05H
	DD	FLAT:__unwindtable$?GetMaterialList@PetEatWnd@@IAEXAAV?$vector@UNewShopPullDownItem@@V?$allocator@UNewShopPullDownItem@@@std@@@std@@@Z
	DD	2 DUP(00H)
	DD	2 DUP(00H)
	DD	00H
	DD	01H
__unwindtable$?GetMaterialList@PetEatWnd@@IAEXAAV?$vector@UNewShopPullDownItem@@V?$allocator@UNewShopPullDownItem@@@std@@@std@@@Z DD 0ffffffffH
	DD	FLAT:__unwindfunclet$?GetMaterialList@PetEatWnd@@IAEXAAV?$vector@UNewShopPullDownItem@@V?$allocator@UNewShopPullDownItem@@@std@@@std@@@Z$0
	DD	00H
	DD	FLAT:__unwindfunclet$?GetMaterialList@PetEatWnd@@IAEXAAV?$vector@UNewShopPullDownItem@@V?$allocator@UNewShopPullDownItem@@@std@@@std@@@Z$1
	DD	00H
	DD	FLAT:__unwindfunclet$?GetMaterialList@PetEatWnd@@IAEXAAV?$vector@UNewShopPullDownItem@@V?$allocator@UNewShopPullDownItem@@@std@@@std@@@Z$2
	DD	02H
	DD	FLAT:__unwindfunclet$?GetMaterialList@PetEatWnd@@IAEXAAV?$vector@UNewShopPullDownItem@@V?$allocator@UNewShopPullDownItem@@@std@@@std@@@Z$3
	DD	03H
	DD	FLAT:__unwindfunclet$?GetMaterialList@PetEatWnd@@IAEXAAV?$vector@UNewShopPullDownItem@@V?$allocator@UNewShopPullDownItem@@@std@@@std@@@Z$4
; Function compile flags: /Ogsp
; File d:\lost saga for developer\youtube\tutorial\source\src\lsclient\gui\peteatwnd.cpp
xdata$x	ENDS
;	COMDAT ?GetMaterialList@PetEatWnd@@IAEXAAV?$vector@UNewShopPullDownItem@@V?$allocator@UNewShopPullDownItem@@@std@@@std@@@Z
_TEXT	SEGMENT
$T515568 = -692						; size = 16
_kItem$509276 = -676					; size = 80
_sPetSlot$509090 = -652					; size = 56
_vSortMaterialList$ = -596				; size = 16
$T515556 = -580						; size = 1
_rkList$GSCopy$ = -580					; size = 4
tv966 = -576						; size = 4
_this$GSCopy$ = -572					; size = 4
___encStr$509286 = -568					; size = 3
tv1781 = -560						; size = 4
_vMaterialList$ = -556					; size = 16
$T516161 = -540						; size = 4
$T515826 = -540						; size = 4
$T515635 = -540						; size = 4
_nMaterialCount$509278 = -540				; size = 4
$T515565 = -540						; size = 4
$T515561 = -540						; size = 4
_szCnt$ = -536						; size = 260
_szName$ = -276						; size = 260
__$EHRec$ = -12						; size = 12
_rkList$ = 8						; size = 4
?GetMaterialList@PetEatWnd@@IAEXAAV?$vector@UNewShopPullDownItem@@V?$allocator@UNewShopPullDownItem@@@std@@@std@@@Z PROC ; PetEatWnd::GetMaterialList, COMDAT
; _this$ = ecx

; 420  : {

  00000	68 a8 02 00 00	 push	 680			; 000002a8H
  00005	b8 00 00 00 00	 mov	 eax, __ehhandler$?GetMaterialList@PetEatWnd@@IAEXAAV?$vector@UNewShopPullDownItem@@V?$allocator@UNewShopPullDownItem@@@std@@@std@@@Z
  0000a	e8 00 00 00 00	 call	 __EH_prolog3_GS
  0000f	8b 75 08	 mov	 esi, DWORD PTR _rkList$[ebp]

; 421  : 	rkList.clear();

  00012	8b 46 04	 mov	 eax, DWORD PTR [esi+4]
  00015	8b d9		 mov	 ebx, ecx
  00017	8b 0e		 mov	 ecx, DWORD PTR [esi]
  00019	50		 push	 eax
  0001a	51		 push	 ecx
  0001b	8d 85 e4 fd ff
	ff		 lea	 eax, DWORD PTR $T515635[ebp]
  00021	50		 push	 eax
  00022	8b ce		 mov	 ecx, esi

; 486  : 	for( int i=0; i < nSize; ++i )

  00024	89 9d c4 fd ff
	ff		 mov	 DWORD PTR _this$GSCopy$[ebp], ebx
  0002a	89 b5 bc fd ff
	ff		 mov	 DWORD PTR _rkList$GSCopy$[ebp], esi
  00030	e8 00 00 00 00	 call	 ?erase@?$vector@UNewShopPullDownItem@@V?$allocator@UNewShopPullDownItem@@@std@@@std@@QAE?AV?$_Vector_iterator@V?$_Vector_val@UNewShopPullDownItem@@V?$allocator@UNewShopPullDownItem@@@std@@@std@@@2@V?$_Vector_const_iterator@V?$_Vector_val@UNewShopPullDownItem@@V?$allocator@UNewShopPullDownItem@@@std@@@std@@@2@0@Z ; std::vector<NewShopPullDownItem,std::allocator<NewShopPullDownItem> >::erase
  00035	e8 00 00 00 00	 call	 ?GetSingleton@ioMyInfo@@SAAAV1@XZ ; ioMyInfo::GetSingleton
  0003a	8d 88 84 02 00
	00		 lea	 ecx, DWORD PTR [eax+644]
  00040	33 c0		 xor	 eax, eax
  00042	3b c8		 cmp	 ecx, eax
  00044	0f 84 07 04 00
	00		 je	 $LN336@GetMateria@2

; 422  : 
; 423  : 	ioAlchemicInventory *pInven = g_MyInfo.GetAlchemicInventory();
; 424  : 	if( !pInven )
; 425  : 		return;
; 426  : 
; 427  : 	vAlchemicItemInfoList vMaterialList;

  0004a	89 85 d4 fd ff
	ff		 mov	 DWORD PTR _vMaterialList$[ebp], eax
  00050	89 85 d8 fd ff
	ff		 mov	 DWORD PTR _vMaterialList$[ebp+4], eax
  00056	89 85 dc fd ff
	ff		 mov	 DWORD PTR _vMaterialList$[ebp+8], eax
  0005c	89 45 fc	 mov	 DWORD PTR __$EHRec$[ebp+8], eax

; 428  : 	if ( !pInven->GetAlchemicItemInfo( vMaterialList ) )

  0005f	8d 85 d4 fd ff
	ff		 lea	 eax, DWORD PTR _vMaterialList$[ebp]
  00065	50		 push	 eax
  00066	e8 00 00 00 00	 call	 ?GetAlchemicItemInfo@ioAlchemicInventory@@QAE_NAAV?$vector@UtagAlchemicItemInfo@@V?$allocator@UtagAlchemicItemInfo@@@std@@@std@@@Z ; ioAlchemicInventory::GetAlchemicItemInfo
  0006b	84 c0		 test	 al, al

; 429  : 		return;

  0006d	0f 84 cf 03 00
	00		 je	 $LN357@GetMateria@2

; 430  : 	
; 431  : 	//  
; 432  : 	ioUserPet *pUserPet = g_MyInfo.GetUserPet();

  00073	e8 00 00 00 00	 call	 ?GetSingleton@ioMyInfo@@SAAAV1@XZ ; ioMyInfo::GetSingleton
  00078	8d b8 c0 02 00
	00		 lea	 edi, DWORD PTR [eax+704]

; 433  : 	if( pUserPet )

  0007e	85 ff		 test	 edi, edi
  00080	74 4e		 je	 SHORT $LN124@GetMateria@2

; 434  : 	{
; 435  : 		PetSlot sPetSlot;

  00082	8d 8d 74 fd ff
	ff		 lea	 ecx, DWORD PTR _sPetSlot$509090[ebp]
  00088	e8 00 00 00 00	 call	 ??0tagPetSlot@@QAE@XZ	; tagPetSlot::tagPetSlot

; 436  : 		if( pUserPet->GetPetSlot( m_nSelectPetSlot, sPetSlot ) )

  0008d	8d 85 74 fd ff
	ff		 lea	 eax, DWORD PTR _sPetSlot$509090[ebp]
  00093	50		 push	 eax
  00094	ff b3 68 01 00
	00		 push	 DWORD PTR [ebx+360]
  0009a	8b cf		 mov	 ecx, edi
  0009c	c6 45 fc 01	 mov	 BYTE PTR __$EHRec$[ebp+8], 1
  000a0	e8 00 00 00 00	 call	 ?GetPetSlot@ioUserPet@@QAE_NHAAUtagPetSlot@@@Z ; ioUserPet::GetPetSlot
  000a5	84 c0		 test	 al, al
  000a7	74 18		 je	 SHORT $LN123@GetMateria@2

; 437  : 			m_nNeedMaterialCode = g_PetInfoMgr.GetPetNeedMaterial( sPetSlot.m_nPetCode );

  000a9	ff b5 74 fd ff
	ff		 push	 DWORD PTR _sPetSlot$509090[ebp]
  000af	e8 00 00 00 00	 call	 ?GetSingleton@ioPetInfoManager@@SAAAV1@XZ ; ioPetInfoManager::GetSingleton
  000b4	8b c8		 mov	 ecx, eax
  000b6	e8 00 00 00 00	 call	 ?GetPetNeedMaterial@ioPetInfoManager@@QAEHH@Z ; ioPetInfoManager::GetPetNeedMaterial
  000bb	89 83 70 01 00
	00		 mov	 DWORD PTR [ebx+368], eax
$LN123@GetMateria@2:

; 438  : 	}

  000c1	8d 8d 74 fd ff
	ff		 lea	 ecx, DWORD PTR _sPetSlot$509090[ebp]
  000c7	c6 45 fc 00	 mov	 BYTE PTR __$EHRec$[ebp+8], 0
  000cb	e8 00 00 00 00	 call	 ??1tagPetSlot@@QAE@XZ
$LN124@GetMateria@2:

; 439  : 
; 440  : 	// 
; 441  : 	std::sort( vMaterialList.begin(), vMaterialList.end(), ItemMaterialCompoundWnd::MaterialItemSort() );

  000d0	ff b5 bc fd ff
	ff		 push	 DWORD PTR $T515556[ebp]
  000d6	ff b5 d8 fd ff
	ff		 push	 DWORD PTR _vMaterialList$[ebp+4]
  000dc	ff b5 d4 fd ff
	ff		 push	 DWORD PTR _vMaterialList$[ebp]
  000e2	e8 00 00 00 00	 call	 ??$sort@V?$_Vector_iterator@V?$_Vector_val@UtagAlchemicItemInfo@@V?$allocator@UtagAlchemicItemInfo@@@std@@@std@@@std@@VMaterialItemSort@ItemMaterialCompoundWnd@@@std@@YAXV?$_Vector_iterator@V?$_Vector_val@UtagAlchemicItemInfo@@V?$allocator@UtagAlchemicItemInfo@@@std@@@std@@@0@0VMaterialItemSort@ItemMaterialCompoundWnd@@@Z ; std::sort<std::_Vector_iterator<std::_Vector_val<tagAlchemicItemInfo,std::allocator<tagAlchemicItemInfo> > >,ItemMaterialCompoundWnd::MaterialItemSort>

; 442  : 
; 443  : 	vAlchemicItemInfoList vSortMaterialList;

  000e7	33 c0		 xor	 eax, eax
  000e9	83 c4 0c	 add	 esp, 12			; 0000000cH
  000ec	89 85 ac fd ff
	ff		 mov	 DWORD PTR _vSortMaterialList$[ebp], eax
  000f2	89 85 b0 fd ff
	ff		 mov	 DWORD PTR _vSortMaterialList$[ebp+4], eax
  000f8	89 85 b4 fd ff
	ff		 mov	 DWORD PTR _vSortMaterialList$[ebp+8], eax

; 444  : 	vSortMaterialList.clear();

  000fe	50		 push	 eax
  000ff	33 c9		 xor	 ecx, ecx
  00101	51		 push	 ecx
  00102	8d 85 e4 fd ff
	ff		 lea	 eax, DWORD PTR $T515826[ebp]
  00108	50		 push	 eax
  00109	8d 8d ac fd ff
	ff		 lea	 ecx, DWORD PTR _vSortMaterialList$[ebp]
  0010f	c6 45 fc 02	 mov	 BYTE PTR __$EHRec$[ebp+8], 2
  00113	e8 00 00 00 00	 call	 ?erase@?$vector@UtagAlchemicItemInfo@@V?$allocator@UtagAlchemicItemInfo@@@std@@@std@@QAE?AV?$_Vector_iterator@V?$_Vector_val@UtagAlchemicItemInfo@@V?$allocator@UtagAlchemicItemInfo@@@std@@@std@@@2@V?$_Vector_const_iterator@V?$_Vector_val@UtagAlchemicItemInfo@@V?$allocator@UtagAlchemicItemInfo@@@std@@@std@@@2@0@Z ; std::vector<tagAlchemicItemInfo,std::allocator<tagAlchemicItemInfo> >::erase

; 445  : 	
; 446  : 	// 
; 447  : 	vAlchemicItemInfoList::iterator iter = vMaterialList.begin();

  00118	8b bd d4 fd ff
	ff		 mov	 edi, DWORD PTR _vMaterialList$[ebp]

; 448  : 	for ( ; iter!=vMaterialList.end(); ++iter )

  0011e	3b bd d8 fd ff
	ff		 cmp	 edi, DWORD PTR _vMaterialList$[ebp+4]
  00124	74 36		 je	 SHORT $LN120@GetMateria@2
  00126	8b 9b 70 01 00
	00		 mov	 ebx, DWORD PTR [ebx+368]
$LL220@GetMateria@2:

; 449  : 	{
; 450  : 		//  
; 451  : 		const AlchemicItemInfo& sInfo = *iter;
; 452  : 		if ( sInfo.m_iCode == m_nNeedMaterialCode )

  0012c	39 1f		 cmp	 DWORD PTR [edi], ebx
  0012e	74 0d		 je	 SHORT $LN346@GetMateria@2

; 448  : 	for ( ; iter!=vMaterialList.end(); ++iter )

  00130	83 c7 1c	 add	 edi, 28			; 0000001cH
  00133	3b bd d8 fd ff
	ff		 cmp	 edi, DWORD PTR _vMaterialList$[ebp+4]
  00139	75 f1		 jne	 SHORT $LL220@GetMateria@2

; 462  : 	{
; 463  : 		//  
; 464  : 		const AlchemicItemInfo& sInfo = *iter;
; 465  : 		if ( sInfo.m_iCode > ALCHEMIC_ADDITIVE_DIV )

  0013b	eb 1f		 jmp	 SHORT $LN120@GetMateria@2
$LN346@GetMateria@2:

; 453  : 		{
; 454  : 			vSortMaterialList.push_back( sInfo );

  0013d	57		 push	 edi
  0013e	8d 8d ac fd ff
	ff		 lea	 ecx, DWORD PTR _vSortMaterialList$[ebp]
  00144	e8 00 00 00 00	 call	 ?push_back@?$vector@UtagAlchemicItemInfo@@V?$allocator@UtagAlchemicItemInfo@@@std@@@std@@QAEXABUtagAlchemicItemInfo@@@Z ; std::vector<tagAlchemicItemInfo,std::allocator<tagAlchemicItemInfo> >::push_back

; 455  : 			vMaterialList.erase( iter );

  00149	57		 push	 edi
  0014a	8d 85 e4 fd ff
	ff		 lea	 eax, DWORD PTR $T515561[ebp]
  00150	50		 push	 eax
  00151	8d 8d d4 fd ff
	ff		 lea	 ecx, DWORD PTR _vMaterialList$[ebp]
  00157	e8 00 00 00 00	 call	 ?erase@?$vector@UtagAlchemicItemInfo@@V?$allocator@UtagAlchemicItemInfo@@@std@@@std@@QAE?AV?$_Vector_iterator@V?$_Vector_val@UtagAlchemicItemInfo@@V?$allocator@UtagAlchemicItemInfo@@@std@@@std@@@2@V?$_Vector_const_iterator@V?$_Vector_val@UtagAlchemicItemInfo@@V?$allocator@UtagAlchemicItemInfo@@@std@@@std@@@2@@Z ; std::vector<tagAlchemicItemInfo,std::allocator<tagAlchemicItemInfo> >::erase
$LN120@GetMateria@2:

; 456  : 			break;
; 457  : 		}
; 458  : 	}
; 459  : 
; 460  : 	iter = vMaterialList.begin();

  0015c	8b bd d4 fd ff
	ff		 mov	 edi, DWORD PTR _vMaterialList$[ebp]
  00162	eb 0b		 jmp	 SHORT $LN358@GetMateria@2

; 461  : 	for ( ; iter!=vMaterialList.end(); ++iter )

$LL250@GetMateria@2:

; 462  : 	{
; 463  : 		//  
; 464  : 		const AlchemicItemInfo& sInfo = *iter;
; 465  : 		if ( sInfo.m_iCode > ALCHEMIC_ADDITIVE_DIV )

  00164	81 3f a0 86 01
	00		 cmp	 DWORD PTR [edi], 100000	; 000186a0H
  0016a	7f 0d		 jg	 SHORT $LN347@GetMateria@2

; 461  : 	for ( ; iter!=vMaterialList.end(); ++iter )

  0016c	83 c7 1c	 add	 edi, 28			; 0000001cH
$LN358@GetMateria@2:
  0016f	3b bd d8 fd ff
	ff		 cmp	 edi, DWORD PTR _vMaterialList$[ebp+4]
  00175	75 ed		 jne	 SHORT $LL250@GetMateria@2

; 462  : 	{
; 463  : 		//  
; 464  : 		const AlchemicItemInfo& sInfo = *iter;
; 465  : 		if ( sInfo.m_iCode > ALCHEMIC_ADDITIVE_DIV )

  00177	eb 1f		 jmp	 SHORT $LN116@GetMateria@2
$LN347@GetMateria@2:

; 466  : 		{
; 467  : 			vSortMaterialList.push_back( sInfo );

  00179	57		 push	 edi
  0017a	8d 8d ac fd ff
	ff		 lea	 ecx, DWORD PTR _vSortMaterialList$[ebp]
  00180	e8 00 00 00 00	 call	 ?push_back@?$vector@UtagAlchemicItemInfo@@V?$allocator@UtagAlchemicItemInfo@@@std@@@std@@QAEXABUtagAlchemicItemInfo@@@Z ; std::vector<tagAlchemicItemInfo,std::allocator<tagAlchemicItemInfo> >::push_back

; 468  : 			vMaterialList.erase( iter );

  00185	57		 push	 edi
  00186	8d 85 e4 fd ff
	ff		 lea	 eax, DWORD PTR $T515565[ebp]
  0018c	50		 push	 eax
  0018d	8d 8d d4 fd ff
	ff		 lea	 ecx, DWORD PTR _vMaterialList$[ebp]
  00193	e8 00 00 00 00	 call	 ?erase@?$vector@UtagAlchemicItemInfo@@V?$allocator@UtagAlchemicItemInfo@@@std@@@std@@QAE?AV?$_Vector_iterator@V?$_Vector_val@UtagAlchemicItemInfo@@V?$allocator@UtagAlchemicItemInfo@@@std@@@std@@@2@V?$_Vector_const_iterator@V?$_Vector_val@UtagAlchemicItemInfo@@V?$allocator@UtagAlchemicItemInfo@@@std@@@std@@@2@@Z ; std::vector<tagAlchemicItemInfo,std::allocator<tagAlchemicItemInfo> >::erase
$LN116@GetMateria@2:

; 469  : 			break;
; 470  : 		}
; 471  : 	}
; 472  : 
; 473  : 	//  
; 474  : 	iter = vMaterialList.begin();

  00198	8b bd d4 fd ff
	ff		 mov	 edi, DWORD PTR _vMaterialList$[ebp]
  0019e	eb 0f		 jmp	 SHORT $LN359@GetMateria@2

; 475  : 	for ( ; iter!=vMaterialList.end(); ++iter )

$LL280@GetMateria@2:

; 476  : 	{
; 477  : 		vSortMaterialList.push_back( *iter );

  001a0	57		 push	 edi
  001a1	8d 8d ac fd ff
	ff		 lea	 ecx, DWORD PTR _vSortMaterialList$[ebp]
  001a7	e8 00 00 00 00	 call	 ?push_back@?$vector@UtagAlchemicItemInfo@@V?$allocator@UtagAlchemicItemInfo@@@std@@@std@@QAEXABUtagAlchemicItemInfo@@@Z ; std::vector<tagAlchemicItemInfo,std::allocator<tagAlchemicItemInfo> >::push_back
  001ac	83 c7 1c	 add	 edi, 28			; 0000001cH
$LN359@GetMateria@2:

; 475  : 	for ( ; iter!=vMaterialList.end(); ++iter )

  001af	3b bd d8 fd ff
	ff		 cmp	 edi, DWORD PTR _vMaterialList$[ebp+4]
  001b5	75 e9		 jne	 SHORT $LL280@GetMateria@2

; 478  : 	}
; 479  : 	vMaterialList.clear();

  001b7	ff b5 d8 fd ff
	ff		 push	 DWORD PTR _vMaterialList$[ebp+4]
  001bd	8d 85 e4 fd ff
	ff		 lea	 eax, DWORD PTR $T516161[ebp]
  001c3	ff b5 d4 fd ff
	ff		 push	 DWORD PTR _vMaterialList$[ebp]
  001c9	8d 8d d4 fd ff
	ff		 lea	 ecx, DWORD PTR _vMaterialList$[ebp]
  001cf	50		 push	 eax
  001d0	e8 00 00 00 00	 call	 ?erase@?$vector@UtagAlchemicItemInfo@@V?$allocator@UtagAlchemicItemInfo@@@std@@@std@@QAE?AV?$_Vector_iterator@V?$_Vector_val@UtagAlchemicItemInfo@@V?$allocator@UtagAlchemicItemInfo@@@std@@@std@@@2@V?$_Vector_const_iterator@V?$_Vector_val@UtagAlchemicItemInfo@@V?$allocator@UtagAlchemicItemInfo@@@std@@@std@@@2@0@Z ; std::vector<tagAlchemicItemInfo,std::allocator<tagAlchemicItemInfo> >::erase

; 480  : 
; 481  : 	//  
; 482  : 	int nSize = vSortMaterialList.size();

  001d5	8b 85 b0 fd ff
	ff		 mov	 eax, DWORD PTR _vSortMaterialList$[ebp+4]
  001db	2b 85 ac fd ff
	ff		 sub	 eax, DWORD PTR _vSortMaterialList$[ebp]
  001e1	6a 1c		 push	 28			; 0000001cH
  001e3	59		 pop	 ecx
  001e4	99		 cdq
  001e5	f7 f9		 idiv	 ecx

; 483  : 	rkList.reserve( nSize );

  001e7	8b ce		 mov	 ecx, esi
  001e9	8b f8		 mov	 edi, eax
  001eb	57		 push	 edi
  001ec	e8 00 00 00 00	 call	 ?reserve@?$vector@UNewShopPullDownItem@@V?$allocator@UNewShopPullDownItem@@@std@@@std@@QAEXI@Z ; std::vector<NewShopPullDownItem,std::allocator<NewShopPullDownItem> >::reserve

; 484  : 
; 485  : 	char szName[MAX_PATH]="", szCnt[MAX_PATH]="";	

  001f1	be 03 01 00 00	 mov	 esi, 259		; 00000103H
  001f6	56		 push	 esi
  001f7	33 db		 xor	 ebx, ebx
  001f9	8d 85 ed fe ff
	ff		 lea	 eax, DWORD PTR _szName$[ebp+1]
  001ff	53		 push	 ebx
  00200	50		 push	 eax
  00201	c6 85 ec fe ff
	ff 00		 mov	 BYTE PTR _szName$[ebp], 0
  00208	e8 00 00 00 00	 call	 _memset
  0020d	56		 push	 esi
  0020e	8d 85 e9 fd ff
	ff		 lea	 eax, DWORD PTR _szCnt$[ebp+1]
  00214	53		 push	 ebx
  00215	50		 push	 eax
  00216	88 9d e8 fd ff
	ff		 mov	 BYTE PTR _szCnt$[ebp], bl
  0021c	e8 00 00 00 00	 call	 _memset
  00221	83 c4 18	 add	 esp, 24			; 00000018H

; 486  : 	for( int i=0; i < nSize; ++i )

  00224	3b fb		 cmp	 edi, ebx
  00226	0f 8e 07 02 00
	00		 jle	 $LN109@GetMateria@2

; 478  : 	}
; 479  : 	vMaterialList.clear();

  0022c	89 9d d0 fd ff
	ff		 mov	 DWORD PTR tv1781[ebp], ebx
  00232	8b 1d 00 00 00
	00		 mov	 ebx, DWORD PTR __imp_?GetString@ioStringManager@@QAEPADPBD0HW4FileNamePrefix@1@@Z
  00238	89 bd c0 fd ff
	ff		 mov	 DWORD PTR tv966[ebp], edi
  0023e	8d 7e 01	 lea	 edi, DWORD PTR [esi+1]
$LN111@GetMateria@2:

; 487  : 	{
; 488  : 		NewShopPullDownItem kItem;	

  00241	8d 8d 5c fd ff
	ff		 lea	 ecx, DWORD PTR _kItem$509276[ebp]
  00247	e8 00 00 00 00	 call	 ??0NewShopPullDownItem@@QAE@XZ ; NewShopPullDownItem::NewShopPullDownItem

; 489  : 
; 490  : 		int nMaterialCode = vSortMaterialList[i].m_iCode;

  0024c	8b 85 ac fd ff
	ff		 mov	 eax, DWORD PTR _vSortMaterialList$[ebp]
  00252	8b 8d d0 fd ff
	ff		 mov	 ecx, DWORD PTR tv1781[ebp]
  00258	8b 34 08	 mov	 esi, DWORD PTR [eax+ecx]

; 491  : 		int nMaterialCount = vSortMaterialList[i].m_iCount;

  0025b	8b 44 08 04	 mov	 eax, DWORD PTR [eax+ecx+4]
  0025f	c6 45 fc 03	 mov	 BYTE PTR __$EHRec$[ebp+8], 3
  00263	89 85 e4 fd ff
	ff		 mov	 DWORD PTR _nMaterialCount$509278[ebp], eax

; 492  : 
; 493  : 		if ( nMaterialCode == 100002 || nMaterialCode == 100003 || 
; 494  : 			nMaterialCode == 100004 || nMaterialCode == 100005 )

  00269	81 fe a2 86 01
	00		 cmp	 esi, 100002		; 000186a2H
  0026f	0f 84 9c 01 00
	00		 je	 $LN107@GetMateria@2
  00275	81 fe a3 86 01
	00		 cmp	 esi, 100003		; 000186a3H
  0027b	0f 84 90 01 00
	00		 je	 $LN107@GetMateria@2
  00281	81 fe a4 86 01
	00		 cmp	 esi, 100004		; 000186a4H
  00287	0f 84 84 01 00
	00		 je	 $LN107@GetMateria@2
  0028d	81 fe a5 86 01
	00		 cmp	 esi, 100005		; 000186a5H
  00293	0f 84 78 01 00
	00		 je	 $LN107@GetMateria@2

; 496  : 
; 497  : 		if ( m_nNeedMaterialCnt > nMaterialCount )

  00299	8b 8d c4 fd ff
	ff		 mov	 ecx, DWORD PTR _this$GSCopy$[ebp]
  0029f	39 81 6c 01 00
	00		 cmp	 DWORD PTR [ecx+364], eax

; 498  : 			continue;

  002a5	0f 8f 66 01 00
	00		 jg	 $LN107@GetMateria@2

; 499  : 
; 500  : 		if( nMaterialCode > ALCHEMIC_ADDITIVE_DIV )

  002ab	81 fe a0 86 01
	00		 cmp	 esi, 100000		; 000186a0H
  002b1	7e 7c		 jle	 SHORT $LN105@GetMateria@2

; 501  : 			StringCbPrintf_e( szName, sizeof( szName ), "%s", g_AlchemicMgr.GetAlchemicItemName( nMaterialCode ).c_str() );

  002b3	66 c7 85 c8 fd
	ff ff c8 9f	 mov	 WORD PTR ___encStr$509286[ebp], 40904 ; 00009fc8H
  002bc	c6 85 ca fd ff
	ff 00		 mov	 BYTE PTR ___encStr$509286[ebp+2], 0
  002c3	33 c0		 xor	 eax, eax
$LL326@GetMateria@2:
  002c5	8b c8		 mov	 ecx, eax
  002c7	81 e1 03 00 00
	80		 and	 ecx, -2147483645	; 80000003H
  002cd	79 05		 jns	 SHORT $LN356@GetMateria@2
  002cf	49		 dec	 ecx
  002d0	83 c9 fc	 or	 ecx, -4			; fffffffcH
  002d3	41		 inc	 ecx
$LN356@GetMateria@2:
  002d4	b2 ed		 mov	 dl, -19			; ffffffedH
  002d6	2a d1		 sub	 dl, cl
  002d8	30 94 05 c8 fd
	ff ff		 xor	 BYTE PTR ___encStr$509286[ebp+eax], dl
  002df	40		 inc	 eax
  002e0	83 f8 02	 cmp	 eax, 2
  002e3	7c e0		 jl	 SHORT $LL326@GetMateria@2
  002e5	8d 85 4c fd ff
	ff		 lea	 eax, DWORD PTR $T515568[ebp]
  002eb	56		 push	 esi
  002ec	50		 push	 eax
  002ed	e8 00 00 00 00	 call	 ?GetSingleton@ioAlchemicMgr@@SAAAV1@XZ ; ioAlchemicMgr::GetSingleton
  002f2	8b c8		 mov	 ecx, eax
  002f4	e8 00 00 00 00	 call	 ?GetAlchemicItemName@ioAlchemicMgr@@QAE?AVioHashString@@H@Z ; ioAlchemicMgr::GetAlchemicItemName
  002f9	8b c8		 mov	 ecx, eax
  002fb	c6 45 fc 04	 mov	 BYTE PTR __$EHRec$[ebp+8], 4
  002ff	ff 15 00 00 00
	00		 call	 DWORD PTR __imp_?c_str@ioHashString@@QBEPBDXZ
  00305	50		 push	 eax
  00306	8d 85 c8 fd ff
	ff		 lea	 eax, DWORD PTR ___encStr$509286[ebp]
  0030c	50		 push	 eax
  0030d	8d 85 ec fe ff
	ff		 lea	 eax, DWORD PTR _szName$[ebp]
  00313	57		 push	 edi
  00314	50		 push	 eax
  00315	e8 00 00 00 00	 call	 ?StringCbPrintfA@@YAJPADIPBDZZ ; StringCbPrintfA
  0031a	83 c4 10	 add	 esp, 16			; 00000010H
  0031d	8d 8d 4c fd ff
	ff		 lea	 ecx, DWORD PTR $T515568[ebp]
  00323	c6 45 fc 03	 mov	 BYTE PTR __$EHRec$[ebp+8], 3
  00327	ff 15 00 00 00
	00		 call	 DWORD PTR __imp_??1ioHashString@@QAE@XZ

; 502  : 		else

  0032d	eb 3a		 jmp	 SHORT $LN5@GetMateria@2
$LN105@GetMateria@2:

; 503  : 			SafeSprintf( szName, sizeof( szName ), STR(1), g_MyInfo.GetClassName( nMaterialCode ) );

  0032f	6a 00		 push	 0
  00331	56		 push	 esi
  00332	e8 00 00 00 00	 call	 ?GetSingleton@ioMyInfo@@SAAAV1@XZ ; ioMyInfo::GetSingleton
  00337	8b c8		 mov	 ecx, eax
  00339	e8 00 00 00 00	 call	 ?GetClassNameA@ioMyInfo@@QAEPBDHH@Z ; ioMyInfo::GetClassNameA
  0033e	50		 push	 eax
  0033f	6a 00		 push	 0
  00341	6a 01		 push	 1
  00343	68 00 00 00 00	 push	 OFFSET ??_C@_00CNPNBAHC@?$AA@
  00348	68 00 00 00 00	 push	 OFFSET ??_C@_0BL@DOEMINMM@PetEatWnd?3?3GetMaterialList?$AA@
  0034d	ff 15 00 00 00
	00		 call	 DWORD PTR __imp_?GetSingleton@ioStringManager@@SAAAV1@XZ
  00353	8b c8		 mov	 ecx, eax
  00355	ff d3		 call	 ebx
  00357	50		 push	 eax
  00358	8d 85 ec fe ff
	ff		 lea	 eax, DWORD PTR _szName$[ebp]
  0035e	57		 push	 edi
  0035f	50		 push	 eax
  00360	ff 15 00 00 00
	00		 call	 DWORD PTR __imp_?SafeSprintf@@YAXPADHPBD1@Z
  00366	83 c4 10	 add	 esp, 16			; 00000010H
$LN5@GetMateria@2:

; 504  : 
; 505  : 		SafeSprintf( szCnt, sizeof( szCnt ), STR(2), nMaterialCount );

  00369	ff b5 e4 fd ff
	ff		 push	 DWORD PTR _nMaterialCount$509278[ebp]
  0036f	6a 00		 push	 0
  00371	6a 02		 push	 2
  00373	68 00 00 00 00	 push	 OFFSET ??_C@_00CNPNBAHC@?$AA@
  00378	68 00 00 00 00	 push	 OFFSET ??_C@_0BL@DOEMINMM@PetEatWnd?3?3GetMaterialList?$AA@
  0037d	ff 15 00 00 00
	00		 call	 DWORD PTR __imp_?GetSingleton@ioStringManager@@SAAAV1@XZ
  00383	8b c8		 mov	 ecx, eax
  00385	ff d3		 call	 ebx
  00387	50		 push	 eax
  00388	8d 85 e8 fd ff
	ff		 lea	 eax, DWORD PTR _szCnt$[ebp]
  0038e	57		 push	 edi
  0038f	50		 push	 eax
  00390	ff 15 00 00 00
	00		 call	 DWORD PTR __imp_?SafeSprintf@@YAXPADHPBDH@Z

; 506  : 
; 507  : 		//
; 508  : 		if ( nMaterialCode == m_nNeedMaterialCode )

  00396	8b 85 c4 fd ff
	ff		 mov	 eax, DWORD PTR _this$GSCopy$[ebp]
  0039c	83 c4 10	 add	 esp, 16			; 00000010H
  0039f	3b b0 70 01 00
	00		 cmp	 esi, DWORD PTR [eax+368]
  003a5	75 07		 jne	 SHORT $LN4@GetMateria@2

; 509  : 		{
; 510  : 			kItem.m_dwTextColor = TCT_DEFAULT_BLUE;

  003a7	b8 b2 46 16 ff	 mov	 eax, -15317326		; ff1646b2H

; 511  : 			kItem.m_dwCntTextColor = TCT_DEFAULT_BLUE;

  003ac	eb 12		 jmp	 SHORT $LN360@GetMateria@2
$LN4@GetMateria@2:

; 512  : 		}
; 513  : 		else if ( nMaterialCode > ALCHEMIC_ADDITIVE_DIV )
; 514  : 		{
; 515  : 			kItem.m_dwTextColor = TCT_DEFAULT_GREEN;

  003ae	b8 22 72 11 ff	 mov	 eax, -15633886		; ff117222H
  003b3	81 fe a0 86 01
	00		 cmp	 esi, 100000		; 000186a0H
  003b9	7f 05		 jg	 SHORT $LN360@GetMateria@2

; 516  : 			kItem.m_dwCntTextColor = TCT_DEFAULT_GREEN;
; 517  : 		}
; 518  : 		else
; 519  : 		{
; 520  : 			kItem.m_dwTextColor = TCT_DEFAULT_DARKGRAY;

  003bb	b8 3a 3a 3a ff	 mov	 eax, -12961222		; ff3a3a3aH
$LN360@GetMateria@2:
  003c0	89 85 70 fd ff
	ff		 mov	 DWORD PTR _kItem$509276[ebp+20], eax

; 521  : 			kItem.m_dwCntTextColor = TCT_DEFAULT_DARKGRAY;

  003c6	89 85 90 fd ff
	ff		 mov	 DWORD PTR _kItem$509276[ebp+52], eax

; 522  : 		}
; 523  : 
; 524  : 		kItem.m_szName = szName;

  003cc	8d 85 ec fe ff
	ff		 lea	 eax, DWORD PTR _szName$[ebp]
  003d2	50		 push	 eax
  003d3	8d 8d 5c fd ff
	ff		 lea	 ecx, DWORD PTR _kItem$509276[ebp]
  003d9	ff 15 00 00 00
	00		 call	 DWORD PTR __imp_??4ioHashString@@QAEAAV0@PBD@Z

; 525  : 		kItem.m_iMagicCode = nMaterialCode;
; 526  : 		kItem.m_bCount = true;
; 527  : 		kItem.m_szCnt = szCnt;

  003df	8d 85 e8 fd ff
	ff		 lea	 eax, DWORD PTR _szCnt$[ebp]
  003e5	50		 push	 eax
  003e6	8d 8d 80 fd ff
	ff		 lea	 ecx, DWORD PTR _kItem$509276[ebp+36]
  003ec	89 b5 6c fd ff
	ff		 mov	 DWORD PTR _kItem$509276[ebp+16], esi
  003f2	c6 85 7c fd ff
	ff 01		 mov	 BYTE PTR _kItem$509276[ebp+32], 1
  003f9	ff 15 00 00 00
	00		 call	 DWORD PTR __imp_??4ioHashString@@QAEAAV0@PBD@Z

; 528  : 		rkList.push_back( kItem );

  003ff	8b 8d bc fd ff
	ff		 mov	 ecx, DWORD PTR _rkList$GSCopy$[ebp]
  00405	8d 85 5c fd ff
	ff		 lea	 eax, DWORD PTR _kItem$509276[ebp]
  0040b	50		 push	 eax
  0040c	e8 00 00 00 00	 call	 ?push_back@?$vector@UNewShopPullDownItem@@V?$allocator@UNewShopPullDownItem@@@std@@@std@@QAEXABUNewShopPullDownItem@@@Z ; std::vector<NewShopPullDownItem,std::allocator<NewShopPullDownItem> >::push_back
$LN107@GetMateria@2:

; 495  : 			continue;

  00411	8d 8d 5c fd ff
	ff		 lea	 ecx, DWORD PTR _kItem$509276[ebp]
  00417	c6 45 fc 02	 mov	 BYTE PTR __$EHRec$[ebp+8], 2
  0041b	e8 00 00 00 00	 call	 ??1NewShopPullDownItem@@QAE@XZ
  00420	83 85 d0 fd ff
	ff 1c		 add	 DWORD PTR tv1781[ebp], 28 ; 0000001cH
  00427	ff 8d c0 fd ff
	ff		 dec	 DWORD PTR tv966[ebp]
  0042d	0f 85 0e fe ff
	ff		 jne	 $LN111@GetMateria@2
$LN109@GetMateria@2:

; 529  : 	}
; 530  : }

  00433	8d 8d ac fd ff
	ff		 lea	 ecx, DWORD PTR _vSortMaterialList$[ebp]
  00439	c6 45 fc 00	 mov	 BYTE PTR __$EHRec$[ebp+8], 0
  0043d	e8 00 00 00 00	 call	 ?_Tidy@?$vector@UtagAlchemicItemInfo@@V?$allocator@UtagAlchemicItemInfo@@@std@@@std@@IAEXXZ ; std::vector<tagAlchemicItemInfo,std::allocator<tagAlchemicItemInfo> >::_Tidy
$LN357@GetMateria@2:
  00442	83 4d fc ff	 or	 DWORD PTR __$EHRec$[ebp+8], -1
  00446	8d 8d d4 fd ff
	ff		 lea	 ecx, DWORD PTR _vMaterialList$[ebp]
  0044c	e8 00 00 00 00	 call	 ?_Tidy@?$vector@UtagAlchemicItemInfo@@V?$allocator@UtagAlchemicItemInfo@@@std@@@std@@IAEXXZ ; std::vector<tagAlchemicItemInfo,std::allocator<tagAlchemicItemInfo> >::_Tidy
$LN336@GetMateria@2:
  00451	e8 00 00 00 00	 call	 __EH_epilog3_GS
  00456	c2 04 00	 ret	 4
_TEXT	ENDS
;	COMDAT text$x
text$x	SEGMENT
__unwindfunclet$?GetMaterialList@PetEatWnd@@IAEXAAV?$vector@UNewShopPullDownItem@@V?$allocator@UNewShopPullDownItem@@@std@@@std@@@Z$0:
  00000	8d 8d d4 fd ff
	ff		 lea	 ecx, DWORD PTR _vMaterialList$[ebp]
  00006	e9 00 00 00 00	 jmp	 ??1?$vector@UtagAlchemicItemInfo@@V?$allocator@UtagAlchemicItemInfo@@@std@@@std@@QAE@XZ ; std::vector<tagAlchemicItemInfo,std::allocator<tagAlchemicItemInfo> >::~vector<tagAlchemicItemInfo,std::allocator<tagAlchemicItemInfo> >
__unwindfunclet$?GetMaterialList@PetEatWnd@@IAEXAAV?$vector@UNewShopPullDownItem@@V?$allocator@UNewShopPullDownItem@@@std@@@std@@@Z$1:
  0000b	8d 8d 74 fd ff
	ff		 lea	 ecx, DWORD PTR _sPetSlot$509090[ebp]
  00011	e9 00 00 00 00	 jmp	 ??1tagPetSlot@@QAE@XZ
__unwindfunclet$?GetMaterialList@PetEatWnd@@IAEXAAV?$vector@UNewShopPullDownItem@@V?$allocator@UNewShopPullDownItem@@@std@@@std@@@Z$2:
  00016	8d 8d ac fd ff
	ff		 lea	 ecx, DWORD PTR _vSortMaterialList$[ebp]
  0001c	e9 00 00 00 00	 jmp	 ??1?$vector@UtagAlchemicItemInfo@@V?$allocator@UtagAlchemicItemInfo@@@std@@@std@@QAE@XZ ; std::vector<tagAlchemicItemInfo,std::allocator<tagAlchemicItemInfo> >::~vector<tagAlchemicItemInfo,std::allocator<tagAlchemicItemInfo> >
__unwindfunclet$?GetMaterialList@PetEatWnd@@IAEXAAV?$vector@UNewShopPullDownItem@@V?$allocator@UNewShopPullDownItem@@@std@@@std@@@Z$3:
  00021	8d 8d 5c fd ff
	ff		 lea	 ecx, DWORD PTR _kItem$509276[ebp]
  00027	e9 00 00 00 00	 jmp	 ??1NewShopPullDownItem@@QAE@XZ
__unwindfunclet$?GetMaterialList@PetEatWnd@@IAEXAAV?$vector@UNewShopPullDownItem@@V?$allocator@UNewShopPullDownItem@@@std@@@std@@@Z$4:
  0002c	8d 8d 4c fd ff
	ff		 lea	 ecx, DWORD PTR $T515568[ebp]
  00032	ff 25 00 00 00
	00		 jmp	 DWORD PTR __imp_??1ioHashString@@QAE@XZ
__ehhandler$?GetMaterialList@PetEatWnd@@IAEXAAV?$vector@UNewShopPullDownItem@@V?$allocator@UNewShopPullDownItem@@@std@@@std@@@Z:
  00038	8b 54 24 08	 mov	 edx, DWORD PTR [esp+8]
  0003c	8d 42 0c	 lea	 eax, DWORD PTR [edx+12]
  0003f	8b 8a 48 fd ff
	ff		 mov	 ecx, DWORD PTR [edx-696]
  00045	33 c8		 xor	 ecx, eax
  00047	e8 00 00 00 00	 call	 @__security_check_cookie@4
  0004c	8b 4a fc	 mov	 ecx, DWORD PTR [edx-4]
  0004f	33 c8		 xor	 ecx, eax
  00051	e8 00 00 00 00	 call	 @__security_check_cookie@4
  00056	b8 00 00 00 00	 mov	 eax, OFFSET __ehfuncinfo$?GetMaterialList@PetEatWnd@@IAEXAAV?$vector@UNewShopPullDownItem@@V?$allocator@UNewShopPullDownItem@@@std@@@std@@@Z
  0005b	e9 00 00 00 00	 jmp	 ___CxxFrameHandler3
text$x	ENDS
?GetMaterialList@PetEatWnd@@IAEXAAV?$vector@UNewShopPullDownItem@@V?$allocator@UNewShopPullDownItem@@@std@@@std@@@Z ENDP ; PetEatWnd::GetMaterialList
PUBLIC	??_C@_0BN@ENOFOLOG@PetEatWnd?3?3MaterialListBtnUp?$AA@ ; `string'
PUBLIC	_pOpenBtn$GSCopy$
PUBLIC	?MaterialListBtnUp@PetEatWnd@@IAEXPAVioWnd@@H@Z	; PetEatWnd::MaterialListBtnUp
EXTRN	__imp_?SafeSprintf@@YAXPADHPBD1H@Z:PROC
EXTRN	__imp_??8ioHashString@@QBE_NABV0@@Z:PROC
EXTRN	__imp_?GetFirstText@ioUITitle@@QAEXAAVioHashString@@@Z:PROC
EXTRN	__imp_?GetTitle@ioWnd@@QBEPAVioUITitle@@XZ:PROC
;	COMDAT ??_C@_0BN@ENOFOLOG@PetEatWnd?3?3MaterialListBtnUp?$AA@
; File c:\program files (x86)\microsoft visual studio 10.0\vc\include\vector
CONST	SEGMENT
??_C@_0BN@ENOFOLOG@PetEatWnd?3?3MaterialListBtnUp?$AA@ DB 'PetEatWnd::Mat'
	DB	'erialListBtnUp', 00H			; `string'
CONST	ENDS
;	COMDAT xdata$x
xdata$x	SEGMENT
__unwindtable$?MaterialListBtnUp@PetEatWnd@@IAEXPAVioWnd@@H@Z DD 0ffffffffH
	DD	FLAT:__unwindfunclet$?MaterialListBtnUp@PetEatWnd@@IAEXPAVioWnd@@H@Z$0
	DD	00H
	DD	FLAT:__unwindfunclet$?MaterialListBtnUp@PetEatWnd@@IAEXPAVioWnd@@H@Z$1
__ehfuncinfo$?MaterialListBtnUp@PetEatWnd@@IAEXPAVioWnd@@H@Z DD 019930522H
	DD	02H
	DD	FLAT:__unwindtable$?MaterialListBtnUp@PetEatWnd@@IAEXPAVioWnd@@H@Z
	DD	2 DUP(00H)
	DD	2 DUP(00H)
	DD	00H
	DD	01H
; Function compile flags: /Ogsp
; File d:\lost saga for developer\youtube\tutorial\source\src\lsclient\gui\peteatwnd.cpp
xdata$x	ENDS
;	COMDAT ?MaterialListBtnUp@PetEatWnd@@IAEXPAVioWnd@@H@Z
_TEXT	SEGMENT
$T516230 = -320						; size = 4
_szTitle$ = -316					; size = 16
_nSelectMaterialCode$ = -300				; size = 4
_kItemList$ = -296					; size = 16
_pOpenBtn$GSCopy$ = -280				; size = 4
_pTarget$ = -280					; size = 4
_pTitle$ = -280						; size = 4
_szBuf$509468 = -276					; size = 260
__$EHRec$ = -12						; size = 12
_pOpenBtn$ = 8						; size = 4
_nListArray$ = 12					; size = 4
?MaterialListBtnUp@PetEatWnd@@IAEXPAVioWnd@@H@Z PROC	; PetEatWnd::MaterialListBtnUp, COMDAT
; _this$ = ecx

; 534  : {

  00000	68 34 01 00 00	 push	 308			; 00000134H
  00005	b8 00 00 00 00	 mov	 eax, __ehhandler$?MaterialListBtnUp@PetEatWnd@@IAEXPAVioWnd@@H@Z
  0000a	e8 00 00 00 00	 call	 __EH_prolog3_GS
  0000f	8b 45 08	 mov	 eax, DWORD PTR _pOpenBtn$[ebp]
  00012	8b 75 0c	 mov	 esi, DWORD PTR _nListArray$[ebp]

; 535  : 	if( !pOpenBtn ) 

  00015	33 db		 xor	 ebx, ebx
  00017	8b f9		 mov	 edi, ecx

; 566  : 	}
; 567  : }

  00019	89 85 e8 fe ff
	ff		 mov	 DWORD PTR _pOpenBtn$GSCopy$[ebp], eax
  0001f	3b c3		 cmp	 eax, ebx
  00021	0f 84 72 01 00
	00		 je	 $LN36@MaterialLi

; 536  : 		return;	
; 537  : 
; 538  : 	vNewShopPullDownItem kItemList;

  00027	89 9d d8 fe ff
	ff		 mov	 DWORD PTR _kItemList$[ebp], ebx
  0002d	89 9d dc fe ff
	ff		 mov	 DWORD PTR _kItemList$[ebp+4], ebx
  00033	89 9d e0 fe ff
	ff		 mov	 DWORD PTR _kItemList$[ebp+8], ebx

; 539  : 	GetMaterialList( kItemList );	

  00039	8d 85 d8 fe ff
	ff		 lea	 eax, DWORD PTR _kItemList$[ebp]
  0003f	50		 push	 eax
  00040	89 5d fc	 mov	 DWORD PTR __$EHRec$[ebp+8], ebx
  00043	e8 00 00 00 00	 call	 ?GetMaterialList@PetEatWnd@@IAEXAAV?$vector@UNewShopPullDownItem@@V?$allocator@UNewShopPullDownItem@@@std@@@std@@@Z ; PetEatWnd::GetMaterialList

; 540  : 
; 541  : 	if( !COMPARE( nListArray, 0, (int)kItemList.size() ) ) 

  00048	3b f3		 cmp	 esi, ebx
  0004a	0f 8c 3a 01 00
	00		 jl	 $LN4@MaterialLi
  00050	8b 85 dc fe ff
	ff		 mov	 eax, DWORD PTR _kItemList$[ebp+4]
  00056	2b 85 d8 fe ff
	ff		 sub	 eax, DWORD PTR _kItemList$[ebp]
  0005c	6a 50		 push	 80			; 00000050H
  0005e	99		 cdq
  0005f	59		 pop	 ecx
  00060	f7 f9		 idiv	 ecx
  00062	3b f0		 cmp	 esi, eax
  00064	0f 8d 20 01 00
	00		 jge	 $LN4@MaterialLi

; 543  : 
; 544  : 	ioUITitle *pTitle = pOpenBtn->GetTitle();

  0006a	8b 8d e8 fe ff
	ff		 mov	 ecx, DWORD PTR _pOpenBtn$GSCopy$[ebp]
  00070	ff 15 00 00 00
	00		 call	 DWORD PTR __imp_?GetTitle@ioWnd@@QBEPAVioUITitle@@XZ
  00076	89 85 e8 fe ff
	ff		 mov	 DWORD PTR _pTitle$[ebp], eax

; 545  : 	if( !pTitle )

  0007c	3b c3		 cmp	 eax, ebx

; 546  : 		return;

  0007e	0f 84 06 01 00
	00		 je	 $LN4@MaterialLi

; 547  : 
; 548  : 	ioHashString szTitle;

  00084	8d 8d c4 fe ff
	ff		 lea	 ecx, DWORD PTR _szTitle$[ebp]
  0008a	ff 15 00 00 00
	00		 call	 DWORD PTR __imp_??0ioHashString@@QAE@XZ

; 549  : 	pTitle->GetFirstText( szTitle );

  00090	8b 8d e8 fe ff
	ff		 mov	 ecx, DWORD PTR _pTitle$[ebp]
  00096	8d 85 c4 fe ff
	ff		 lea	 eax, DWORD PTR _szTitle$[ebp]
  0009c	50		 push	 eax
  0009d	c6 45 fc 01	 mov	 BYTE PTR __$EHRec$[ebp+8], 1
  000a1	ff 15 00 00 00
	00		 call	 DWORD PTR __imp_?GetFirstText@ioUITitle@@QAEXAAVioHashString@@@Z

; 550  : 
; 551  : 	NewShopPullDownItem &rkItem = kItemList[nListArray];

  000a7	6b f6 50	 imul	 esi, 80			; 00000050H
  000aa	03 b5 d8 fe ff
	ff		 add	 esi, DWORD PTR _kItemList$[ebp]

; 552  : 	if( szTitle == rkItem.m_szName ) 

  000b0	8d 8d c4 fe ff
	ff		 lea	 ecx, DWORD PTR _szTitle$[ebp]
  000b6	56		 push	 esi
  000b7	ff 15 00 00 00
	00		 call	 DWORD PTR __imp_??8ioHashString@@QBE_NABV0@@Z
  000bd	84 c0		 test	 al, al

; 553  : 		return;

  000bf	0f 85 b6 00 00
	00		 jne	 $LN1@MaterialLi

; 554  : 
; 555  : 	int nSelectMaterialCode = rkItem.m_iMagicCode;

  000c5	8b 46 10	 mov	 eax, DWORD PTR [esi+16]

; 556  : 	SetMaterialCode( nSelectMaterialCode );

  000c8	50		 push	 eax
  000c9	8b cf		 mov	 ecx, edi
  000cb	89 85 d4 fe ff
	ff		 mov	 DWORD PTR _nSelectMaterialCode$[ebp], eax
  000d1	e8 00 00 00 00	 call	 ?SetMaterialCode@PetEatWnd@@QAEXH@Z ; PetEatWnd::SetMaterialCode

; 557  : 
; 558  : 	SelectPetTargetBtn *pTarget = (SelectPetTargetBtn*)(FindChildWnd(ID_MATERIALPET_BTN));

  000d6	6a 0b		 push	 11			; 0000000bH
  000d8	8b cf		 mov	 ecx, edi
  000da	ff 15 00 00 00
	00		 call	 DWORD PTR __imp_?FindChildWnd@ioWnd@@QAEPAV1@K@Z
  000e0	89 85 e8 fe ff
	ff		 mov	 DWORD PTR _pTarget$[ebp], eax

; 559  : 	if( pTarget )

  000e6	3b c3		 cmp	 eax, ebx
  000e8	0f 84 8d 00 00
	00		 je	 $LN1@MaterialLi

; 560  : 	{
; 561  : 		char szBuf[MAX_PATH] = "";

  000ee	68 03 01 00 00	 push	 259			; 00000103H
  000f3	8d 85 ed fe ff
	ff		 lea	 eax, DWORD PTR _szBuf$509468[ebp+1]
  000f9	53		 push	 ebx
  000fa	50		 push	 eax
  000fb	88 9d ec fe ff
	ff		 mov	 BYTE PTR _szBuf$509468[ebp], bl
  00101	e8 00 00 00 00	 call	 _memset
  00106	83 c4 0c	 add	 esp, 12			; 0000000cH

; 562  : 		SafeSprintf( szBuf, sizeof( szBuf ), STR(1), rkItem.m_szName.c_str(), m_nNeedMaterialCnt );

  00109	ff b7 6c 01 00
	00		 push	 DWORD PTR [edi+364]
  0010f	8b ce		 mov	 ecx, esi
  00111	ff 15 00 00 00
	00		 call	 DWORD PTR __imp_?c_str@ioHashString@@QBEPBDXZ
  00117	50		 push	 eax
  00118	53		 push	 ebx
  00119	6a 01		 push	 1
  0011b	68 00 00 00 00	 push	 OFFSET ??_C@_00CNPNBAHC@?$AA@
  00120	68 00 00 00 00	 push	 OFFSET ??_C@_0BN@ENOFOLOG@PetEatWnd?3?3MaterialListBtnUp?$AA@
  00125	ff 15 00 00 00
	00		 call	 DWORD PTR __imp_?GetSingleton@ioStringManager@@SAAAV1@XZ
  0012b	8b c8		 mov	 ecx, eax
  0012d	ff 15 00 00 00
	00		 call	 DWORD PTR __imp_?GetString@ioStringManager@@QAEPADPBD0HW4FileNamePrefix@1@@Z
  00133	50		 push	 eax
  00134	8d 85 ec fe ff
	ff		 lea	 eax, DWORD PTR _szBuf$509468[ebp]
  0013a	68 04 01 00 00	 push	 260			; 00000104H
  0013f	50		 push	 eax
  00140	ff 15 00 00 00
	00		 call	 DWORD PTR __imp_?SafeSprintf@@YAXPADHPBD1H@Z
  00146	59		 pop	 ecx

; 563  : 		
; 564  : 		pTarget->SetSelectMaterial( nSelectMaterialCode, szBuf );

  00147	8d 85 ec fe ff
	ff		 lea	 eax, DWORD PTR _szBuf$509468[ebp]
  0014d	8b cc		 mov	 ecx, esp
  0014f	89 a5 c0 fe ff
	ff		 mov	 DWORD PTR $T516230[ebp], esp
  00155	50		 push	 eax
  00156	ff 15 00 00 00
	00		 call	 DWORD PTR __imp_??0ioHashString@@QAE@PBD@Z
  0015c	ff b5 d4 fe ff
	ff		 push	 DWORD PTR _nSelectMaterialCode$[ebp]
  00162	8b 8d e8 fe ff
	ff		 mov	 ecx, DWORD PTR _pTarget$[ebp]
  00168	e8 00 00 00 00	 call	 ?SetSelectMaterial@SelectPetTargetBtn@@QAEXHVioHashString@@@Z ; SelectPetTargetBtn::SetSelectMaterial

; 565  : 		pTarget->SetCurTitleColor( rkItem.m_dwTextColor );

  0016d	ff 76 14	 push	 DWORD PTR [esi+20]
  00170	8b 8d e8 fe ff
	ff		 mov	 ecx, DWORD PTR _pTarget$[ebp]
  00176	e8 00 00 00 00	 call	 ?SetCurTitleColor@SelectPetTargetBtn@@QAEXK@Z ; SelectPetTargetBtn::SetCurTitleColor
$LN1@MaterialLi:

; 566  : 	}
; 567  : }

  0017b	8d 8d c4 fe ff
	ff		 lea	 ecx, DWORD PTR _szTitle$[ebp]
  00181	88 5d fc	 mov	 BYTE PTR __$EHRec$[ebp+8], bl
  00184	ff 15 00 00 00
	00		 call	 DWORD PTR __imp_??1ioHashString@@QAE@XZ
$LN4@MaterialLi:

; 542  : 		return;			

  0018a	83 4d fc ff	 or	 DWORD PTR __$EHRec$[ebp+8], -1
  0018e	8d 8d d8 fe ff
	ff		 lea	 ecx, DWORD PTR _kItemList$[ebp]
  00194	e8 00 00 00 00	 call	 ?_Tidy@?$vector@UNewShopPullDownItem@@V?$allocator@UNewShopPullDownItem@@@std@@@std@@IAEXXZ ; std::vector<NewShopPullDownItem,std::allocator<NewShopPullDownItem> >::_Tidy

; 566  : 	}
; 567  : }

$LN36@MaterialLi:
  00199	e8 00 00 00 00	 call	 __EH_epilog3_GS
  0019e	c2 08 00	 ret	 8
_TEXT	ENDS
;	COMDAT text$x
text$x	SEGMENT
__unwindfunclet$?MaterialListBtnUp@PetEatWnd@@IAEXPAVioWnd@@H@Z$0:
  00000	8d 8d d8 fe ff
	ff		 lea	 ecx, DWORD PTR _kItemList$[ebp]
  00006	e9 00 00 00 00	 jmp	 ??1?$vector@UNewShopPullDownItem@@V?$allocator@UNewShopPullDownItem@@@std@@@std@@QAE@XZ ; std::vector<NewShopPullDownItem,std::allocator<NewShopPullDownItem> >::~vector<NewShopPullDownItem,std::allocator<NewShopPullDownItem> >
__unwindfunclet$?MaterialListBtnUp@PetEatWnd@@IAEXPAVioWnd@@H@Z$1:
  0000b	8d 8d c4 fe ff
	ff		 lea	 ecx, DWORD PTR _szTitle$[ebp]
  00011	ff 25 00 00 00
	00		 jmp	 DWORD PTR __imp_??1ioHashString@@QAE@XZ
__ehhandler$?MaterialListBtnUp@PetEatWnd@@IAEXPAVioWnd@@H@Z:
  00017	8b 54 24 08	 mov	 edx, DWORD PTR [esp+8]
  0001b	8d 42 0c	 lea	 eax, DWORD PTR [edx+12]
  0001e	8b 8a bc fe ff
	ff		 mov	 ecx, DWORD PTR [edx-324]
  00024	33 c8		 xor	 ecx, eax
  00026	e8 00 00 00 00	 call	 @__security_check_cookie@4
  0002b	8b 4a fc	 mov	 ecx, DWORD PTR [edx-4]
  0002e	33 c8		 xor	 ecx, eax
  00030	e8 00 00 00 00	 call	 @__security_check_cookie@4
  00035	b8 00 00 00 00	 mov	 eax, OFFSET __ehfuncinfo$?MaterialListBtnUp@PetEatWnd@@IAEXPAVioWnd@@H@Z
  0003a	e9 00 00 00 00	 jmp	 ___CxxFrameHandler3
text$x	ENDS
?MaterialListBtnUp@PetEatWnd@@IAEXPAVioWnd@@H@Z ENDP	; PetEatWnd::MaterialListBtnUp
PUBLIC	?AutoShowMaterialList@PetEatWnd@@IAEXXZ		; PetEatWnd::AutoShowMaterialList
EXTRN	?InsertItem@NewShopPullDownWnd@@QAEXAAUNewShopPullDownItem@@@Z:PROC ; NewShopPullDownWnd::InsertItem
EXTRN	?CreatePullDown@NewShopPullDownWnd@@QAEXPAVioWnd@@HH@Z:PROC ; NewShopPullDownWnd::CreatePullDown
EXTRN	__imp_?GetXPos@ioWnd@@QBEHXZ:PROC
EXTRN	__imp_?GetYPos@ioWnd@@QBEHXZ:PROC
;	COMDAT xdata$x
; File c:\program files (x86)\microsoft visual studio 10.0\vc\include\vector
xdata$x	SEGMENT
__unwindtable$?AutoShowMaterialList@PetEatWnd@@IAEXXZ DD 0ffffffffH
	DD	FLAT:__unwindfunclet$?AutoShowMaterialList@PetEatWnd@@IAEXXZ$0
__ehfuncinfo$?AutoShowMaterialList@PetEatWnd@@IAEXXZ DD 019930522H
	DD	01H
	DD	FLAT:__unwindtable$?AutoShowMaterialList@PetEatWnd@@IAEXXZ
	DD	2 DUP(00H)
	DD	2 DUP(00H)
	DD	00H
	DD	01H
; Function compile flags: /Ogsp
; File d:\lost saga for developer\youtube\tutorial\source\src\lsclient\gui\peteatwnd.cpp
xdata$x	ENDS
;	COMDAT ?AutoShowMaterialList@PetEatWnd@@IAEXXZ
_TEXT	SEGMENT
_kItemList$509010 = -32					; size = 16
_pListWnd$ = -16					; size = 4
__$EHRec$ = -12						; size = 12
?AutoShowMaterialList@PetEatWnd@@IAEXXZ PROC		; PetEatWnd::AutoShowMaterialList, COMDAT
; _this$ = ecx

; 234  : {

  00000	6a 14		 push	 20			; 00000014H
  00002	b8 00 00 00 00	 mov	 eax, __ehhandler$?AutoShowMaterialList@PetEatWnd@@IAEXXZ
  00007	e8 00 00 00 00	 call	 __EH_prolog3
  0000c	8b f1		 mov	 esi, ecx

; 235  : 	ioWnd *pWnd = FindChildWnd( ID_MATERIALPET_BTN );

  0000e	8b 3d 00 00 00
	00		 mov	 edi, DWORD PTR __imp_?FindChildWnd@ioWnd@@QAEPAV1@K@Z
  00014	6a 0b		 push	 11			; 0000000bH
  00016	ff d7		 call	 edi
  00018	8b d8		 mov	 ebx, eax

; 236  : 	if ( !pWnd )

  0001a	85 db		 test	 ebx, ebx
  0001c	0f 84 b7 00 00
	00		 je	 $LN25@AutoShowMa

; 237  : 		return;
; 238  : 
; 239  : 	// 
; 240  : 	NewShopPullDownWnd *pListWnd = (NewShopPullDownWnd*)(FindChildWnd(ID_MATERIALPET_WND));

  00022	6a 65		 push	 101			; 00000065H
  00024	8b ce		 mov	 ecx, esi
  00026	ff d7		 call	 edi

; 241  : 	if( pListWnd )

  00028	33 ff		 xor	 edi, edi
  0002a	89 45 f0	 mov	 DWORD PTR _pListWnd$[ebp], eax
  0002d	3b c7		 cmp	 eax, edi
  0002f	0f 84 a4 00 00
	00		 je	 $LN25@AutoShowMa

; 242  : 	{
; 243  : 		vNewShopPullDownItem kItemList;

  00035	89 7d e0	 mov	 DWORD PTR _kItemList$509010[ebp], edi
  00038	89 7d e4	 mov	 DWORD PTR _kItemList$509010[ebp+4], edi
  0003b	89 7d e8	 mov	 DWORD PTR _kItemList$509010[ebp+8], edi

; 244  : 		GetMaterialList( kItemList );

  0003e	8d 45 e0	 lea	 eax, DWORD PTR _kItemList$509010[ebp]
  00041	50		 push	 eax
  00042	8b ce		 mov	 ecx, esi
  00044	89 7d fc	 mov	 DWORD PTR __$EHRec$[ebp+8], edi
  00047	e8 00 00 00 00	 call	 ?GetMaterialList@PetEatWnd@@IAEXAAV?$vector@UNewShopPullDownItem@@V?$allocator@UNewShopPullDownItem@@@std@@@std@@@Z ; PetEatWnd::GetMaterialList

; 245  : 
; 246  : 		if( !kItemList.empty() )

  0004c	8b 45 e4	 mov	 eax, DWORD PTR _kItemList$509010[ebp+4]
  0004f	39 45 e0	 cmp	 DWORD PTR _kItemList$509010[ebp], eax
  00052	74 57		 je	 SHORT $LN5@AutoShowMa

; 247  : 		{
; 248  : 			int nSize = kItemList.size();

  00054	2b 45 e0	 sub	 eax, DWORD PTR _kItemList$509010[ebp]
  00057	6a 50		 push	 80			; 00000050H
  00059	59		 pop	 ecx
  0005a	99		 cdq
  0005b	f7 f9		 idiv	 ecx

; 249  : 			int nYPos = GetMaterialListPosY( nSize );

  0005d	8b ce		 mov	 ecx, esi
  0005f	8b f8		 mov	 edi, eax
  00061	57		 push	 edi
  00062	e8 00 00 00 00	 call	 ?GetMaterialListPosY@PetEatWnd@@IAEHH@Z ; PetEatWnd::GetMaterialListPosY

; 250  : 			pListWnd->CreatePullDown( pWnd, pWnd->GetXPos(), pWnd->GetYPos() - nYPos );

  00067	8b cb		 mov	 ecx, ebx
  00069	8b f0		 mov	 esi, eax
  0006b	ff 15 00 00 00
	00		 call	 DWORD PTR __imp_?GetYPos@ioWnd@@QBEHXZ
  00071	2b c6		 sub	 eax, esi
  00073	50		 push	 eax
  00074	8b cb		 mov	 ecx, ebx
  00076	ff 15 00 00 00
	00		 call	 DWORD PTR __imp_?GetXPos@ioWnd@@QBEHXZ
  0007c	8b 4d f0	 mov	 ecx, DWORD PTR _pListWnd$[ebp]
  0007f	50		 push	 eax
  00080	53		 push	 ebx
  00081	e8 00 00 00 00	 call	 ?CreatePullDown@NewShopPullDownWnd@@QAEXPAVioWnd@@HH@Z ; NewShopPullDownWnd::CreatePullDown

; 251  : 			for(int i = 0;i < nSize; i++)

  00086	85 ff		 test	 edi, edi
  00088	7e 16		 jle	 SHORT $LN2@AutoShowMa

; 247  : 		{
; 248  : 			int nSize = kItemList.size();

  0008a	33 f6		 xor	 esi, esi
$LL4@AutoShowMa:

; 252  : 				pListWnd->InsertItem( kItemList[i] );

  0008c	8b 45 e0	 mov	 eax, DWORD PTR _kItemList$509010[ebp]
  0008f	8b 4d f0	 mov	 ecx, DWORD PTR _pListWnd$[ebp]
  00092	03 c6		 add	 eax, esi
  00094	50		 push	 eax
  00095	e8 00 00 00 00	 call	 ?InsertItem@NewShopPullDownWnd@@QAEXAAUNewShopPullDownItem@@@Z ; NewShopPullDownWnd::InsertItem
  0009a	83 c6 50	 add	 esi, 80			; 00000050H
  0009d	4f		 dec	 edi
  0009e	75 ec		 jne	 SHORT $LL4@AutoShowMa
$LN2@AutoShowMa:

; 253  : 
; 254  : 			pListWnd->ShowWnd();

  000a0	8b 4d f0	 mov	 ecx, DWORD PTR _pListWnd$[ebp]
  000a3	ff 15 00 00 00
	00		 call	 DWORD PTR __imp_?ShowWnd@ioWnd@@QAEXXZ

; 255  : 		}
; 256  : 		else

  000a9	eb 22		 jmp	 SHORT $LN1@AutoShowMa
$LN5@AutoShowMa:

; 257  : 		{
; 258  : 			HideMainInfo();

  000ab	8b ce		 mov	 ecx, esi
  000ad	e8 00 00 00 00	 call	 ?HideMainInfo@PetEatWnd@@IAEXXZ ; PetEatWnd::HideMainInfo

; 259  : 			ShowChildWnd( ID_EMPTY_BTN );

  000b2	8b 1d 00 00 00
	00		 mov	 ebx, DWORD PTR __imp_?ShowChildWnd@ioWnd@@QAEXK_N@Z
  000b8	57		 push	 edi
  000b9	6a 03		 push	 3
  000bb	8b ce		 mov	 ecx, esi
  000bd	ff d3		 call	 ebx

; 260  : 			ShowChildWnd( ID_HELP_MARK );

  000bf	57		 push	 edi
  000c0	6a 0c		 push	 12			; 0000000cH
  000c2	8b ce		 mov	 ecx, esi
  000c4	ff d3		 call	 ebx

; 261  : 			m_bEmpty = true;

  000c6	c6 86 79 01 00
	00 01		 mov	 BYTE PTR [esi+377], 1
$LN1@AutoShowMa:

; 262  : 		}
; 263  : 	}

  000cd	83 4d fc ff	 or	 DWORD PTR __$EHRec$[ebp+8], -1
  000d1	8d 4d e0	 lea	 ecx, DWORD PTR _kItemList$509010[ebp]
  000d4	e8 00 00 00 00	 call	 ?_Tidy@?$vector@UNewShopPullDownItem@@V?$allocator@UNewShopPullDownItem@@@std@@@std@@IAEXXZ ; std::vector<NewShopPullDownItem,std::allocator<NewShopPullDownItem> >::_Tidy
$LN25@AutoShowMa:

; 264  : }

  000d9	e8 00 00 00 00	 call	 __EH_epilog3
  000de	c3		 ret	 0
_TEXT	ENDS
;	COMDAT text$x
text$x	SEGMENT
__unwindfunclet$?AutoShowMaterialList@PetEatWnd@@IAEXXZ$0:
  00000	8d 4d e0	 lea	 ecx, DWORD PTR _kItemList$509010[ebp]
  00003	e9 00 00 00 00	 jmp	 ??1?$vector@UNewShopPullDownItem@@V?$allocator@UNewShopPullDownItem@@@std@@@std@@QAE@XZ ; std::vector<NewShopPullDownItem,std::allocator<NewShopPullDownItem> >::~vector<NewShopPullDownItem,std::allocator<NewShopPullDownItem> >
__ehhandler$?AutoShowMaterialList@PetEatWnd@@IAEXXZ:
  00008	8b 54 24 08	 mov	 edx, DWORD PTR [esp+8]
  0000c	8d 42 0c	 lea	 eax, DWORD PTR [edx+12]
  0000f	8b 4a dc	 mov	 ecx, DWORD PTR [edx-36]
  00012	33 c8		 xor	 ecx, eax
  00014	e8 00 00 00 00	 call	 @__security_check_cookie@4
  00019	b8 00 00 00 00	 mov	 eax, OFFSET __ehfuncinfo$?AutoShowMaterialList@PetEatWnd@@IAEXXZ
  0001e	e9 00 00 00 00	 jmp	 ___CxxFrameHandler3
text$x	ENDS
?AutoShowMaterialList@PetEatWnd@@IAEXXZ ENDP		; PetEatWnd::AutoShowMaterialList
PUBLIC	??_C@_0BF@NLPFPBGA@PetEatWnd?3?3SendExpUp?$AA@	; `string'
PUBLIC	__$ArrayPad$
PUBLIC	?SendExpUp@PetEatWnd@@IAEXXZ			; PetEatWnd::SendExpUp
EXTRN	??1SP2Packet@@UAE@XZ:PROC			; SP2Packet::~SP2Packet
EXTRN	?MouseBusy@TCPNetwork@@YAX_N@Z:PROC		; TCPNetwork::MouseBusy
EXTRN	?SendToServer@TCPNetwork@@YAXAAVSP2Packet@@@Z:PROC ; TCPNetwork::SendToServer
EXTRN	??6SP2Packet@@QAEAAV0@H@Z:PROC			; SP2Packet::operator<<
EXTRN	??0SP2Packet@@QAE@K@Z:PROC			; SP2Packet::SP2Packet
EXTRN	__chkstk:PROC
;	COMDAT ??_C@_0BF@NLPFPBGA@PetEatWnd?3?3SendExpUp?$AA@
; File d:\lost saga for developer\youtube\tutorial\source\src\lsclient\iomyinfo.h
CONST	SEGMENT
??_C@_0BF@NLPFPBGA@PetEatWnd?3?3SendExpUp?$AA@ DB 'PetEatWnd::SendExpUp', 00H ; `string'
CONST	ENDS
;	COMDAT xdata$x
xdata$x	SEGMENT
__unwindtable$?SendExpUp@PetEatWnd@@IAEXXZ DD 0ffffffffH
	DD	FLAT:__unwindfunclet$?SendExpUp@PetEatWnd@@IAEXXZ$0
	DD	0ffffffffH
	DD	FLAT:__unwindfunclet$?SendExpUp@PetEatWnd@@IAEXXZ$1
__ehfuncinfo$?SendExpUp@PetEatWnd@@IAEXXZ DD 019930522H
	DD	02H
	DD	FLAT:__unwindtable$?SendExpUp@PetEatWnd@@IAEXXZ
	DD	2 DUP(00H)
	DD	2 DUP(00H)
	DD	00H
	DD	01H
; Function compile flags: /Ogsp
; File d:\lost saga for developer\youtube\tutorial\source\src\lsclient\gui\peteatwnd.cpp
xdata$x	ENDS
;	COMDAT ?SendExpUp@PetEatWnd@@IAEXXZ
_TEXT	SEGMENT
_sPetSlot$509057 = -32868				; size = 56
_bTarget$ = -32809					; size = 1
_kPacket$ = -32808					; size = 32792
__$ArrayPad$ = -16					; size = 4
__$EHRec$ = -12						; size = 12
?SendExpUp@PetEatWnd@@IAEXXZ PROC			; PetEatWnd::SendExpUp, COMDAT
; _this$ = ecx

; 333  : {

  00000	55		 push	 ebp
  00001	8b ec		 mov	 ebp, esp
  00003	6a ff		 push	 -1
  00005	68 00 00 00 00	 push	 __ehhandler$?SendExpUp@PetEatWnd@@IAEXXZ
  0000a	64 a1 00 00 00
	00		 mov	 eax, DWORD PTR fs:0
  00010	50		 push	 eax
  00011	b8 58 80 00 00	 mov	 eax, 32856		; 00008058H
  00016	e8 00 00 00 00	 call	 __chkstk
  0001b	a1 00 00 00 00	 mov	 eax, DWORD PTR ___security_cookie
  00020	33 c5		 xor	 eax, ebp
  00022	89 45 f0	 mov	 DWORD PTR __$ArrayPad$[ebp], eax
  00025	53		 push	 ebx
  00026	56		 push	 esi
  00027	57		 push	 edi
  00028	50		 push	 eax
  00029	8d 45 f4	 lea	 eax, DWORD PTR __$EHRec$[ebp]
  0002c	64 a3 00 00 00
	00		 mov	 DWORD PTR fs:0, eax
  00032	8b f1		 mov	 esi, ecx

; 334  : 	if ( m_nSelectPetSlot <= 0 )

  00034	33 db		 xor	 ebx, ebx
  00036	39 9e 68 01 00
	00		 cmp	 DWORD PTR [esi+360], ebx
  0003c	7f 31		 jg	 SHORT $LN8@SendExpUp

; 335  : 	{
; 336  : 		g_GUIMgr.SetMsgBox( MB_OK, NULL, STR(1) );

  0003e	53		 push	 ebx
  0003f	6a 01		 push	 1
$LN19@SendExpUp:
  00041	68 00 00 00 00	 push	 OFFSET ??_C@_00CNPNBAHC@?$AA@
  00046	68 00 00 00 00	 push	 OFFSET ??_C@_0BF@NLPFPBGA@PetEatWnd?3?3SendExpUp?$AA@
  0004b	ff 15 00 00 00
	00		 call	 DWORD PTR __imp_?GetSingleton@ioStringManager@@SAAAV1@XZ
  00051	8b c8		 mov	 ecx, eax
  00053	ff 15 00 00 00
	00		 call	 DWORD PTR __imp_?GetString@ioStringManager@@QAEPADPBD0HW4FileNamePrefix@1@@Z
  00059	50		 push	 eax
  0005a	53		 push	 ebx
  0005b	53		 push	 ebx
  0005c	e8 00 00 00 00	 call	 ?GetSingleton@ioSP2GUIManager@@SAAAV1@XZ ; ioSP2GUIManager::GetSingleton
  00061	50		 push	 eax
  00062	e8 00 00 00 00	 call	 ?SetMsgBox@ioSP2GUIManager@@QAAXHPAVioWnd@@PBDZZ ; ioSP2GUIManager::SetMsgBox
  00067	83 c4 10	 add	 esp, 16			; 00000010H

; 337  : 		return;

  0006a	e9 26 01 00 00	 jmp	 $LN9@SendExpUp
$LN8@SendExpUp:

; 338  : 	}
; 339  : 
; 340  : 	if ( m_nSelectMaterialCode <= 0 )

  0006f	39 9e 74 01 00
	00		 cmp	 DWORD PTR [esi+372], ebx
  00075	7f 05		 jg	 SHORT $LN7@SendExpUp

; 341  : 	{
; 342  : 		g_GUIMgr.SetMsgBox( MB_OK, NULL, STR(2) );

  00077	53		 push	 ebx
  00078	6a 02		 push	 2

; 343  : 		return;

  0007a	eb c5		 jmp	 SHORT $LN19@SendExpUp
$LN7@SendExpUp:

; 344  : 	}
; 345  : 
; 346  : 	if ( m_bMaxLv )

  0007c	38 9e 7a 01 00
	00		 cmp	 BYTE PTR [esi+378], bl
  00082	74 05		 je	 SHORT $LN6@SendExpUp

; 347  : 	{
; 348  : 		g_GUIMgr.SetMsgBox( MB_OK, NULL, STR(3) );

  00084	53		 push	 ebx
  00085	6a 03		 push	 3

; 349  : 		return;

  00087	eb b8		 jmp	 SHORT $LN19@SendExpUp
$LN6@SendExpUp:

; 350  : 	}
; 351  : 
; 352  : 	bool bTarget;
; 353  : 	bTarget = false;

  00089	88 9d d7 7f ff
	ff		 mov	 BYTE PTR _bTarget$[ebp], bl

; 354  : 
; 355  : 	ioUserPet *pUserPet = g_MyInfo.GetUserPet();

  0008f	e8 00 00 00 00	 call	 ?GetSingleton@ioMyInfo@@SAAAV1@XZ ; ioMyInfo::GetSingleton
  00094	8d b8 c0 02 00
	00		 lea	 edi, DWORD PTR [eax+704]

; 356  : 	if( pUserPet )

  0009a	3b fb		 cmp	 edi, ebx
  0009c	74 62		 je	 SHORT $LN17@SendExpUp

; 357  : 	{
; 358  : 		PetSlot sPetSlot;

  0009e	8d 8d 9c 7f ff
	ff		 lea	 ecx, DWORD PTR _sPetSlot$509057[ebp]
  000a4	e8 00 00 00 00	 call	 ??0tagPetSlot@@QAE@XZ	; tagPetSlot::tagPetSlot

; 359  : 		if( pUserPet->GetPetSlot( m_nSelectPetSlot, sPetSlot ) )

  000a9	8d 85 9c 7f ff
	ff		 lea	 eax, DWORD PTR _sPetSlot$509057[ebp]
  000af	50		 push	 eax
  000b0	ff b6 68 01 00
	00		 push	 DWORD PTR [esi+360]
  000b6	8b cf		 mov	 ecx, edi
  000b8	89 5d fc	 mov	 DWORD PTR __$EHRec$[ebp+8], ebx
  000bb	e8 00 00 00 00	 call	 ?GetPetSlot@ioUserPet@@QAE_NHAAUtagPetSlot@@@Z ; ioUserPet::GetPetSlot
  000c0	84 c0		 test	 al, al
  000c2	74 25		 je	 SHORT $LN4@SendExpUp

; 360  : 		{
; 361  : 			bTarget = true;
; 362  : 			m_nNeedMaterialCnt = g_PetEatInfoMgr.GetNeedMaterialCnt( sPetSlot.m_PetRankType, sPetSlot.m_nCurLevel );

  000c4	ff b5 a8 7f ff
	ff		 push	 DWORD PTR _sPetSlot$509057[ebp+12]
  000ca	c6 85 d7 7f ff
	ff 01		 mov	 BYTE PTR _bTarget$[ebp], 1
  000d1	ff b5 a0 7f ff
	ff		 push	 DWORD PTR _sPetSlot$509057[ebp+4]
  000d7	e8 00 00 00 00	 call	 ?GetSingleton@ioPetEatInfoManager@@SAAAV1@XZ ; ioPetEatInfoManager::GetSingleton
  000dc	8b c8		 mov	 ecx, eax
  000de	e8 00 00 00 00	 call	 ?GetNeedMaterialCnt@ioPetEatInfoManager@@QAEHHH@Z ; ioPetEatInfoManager::GetNeedMaterialCnt
  000e3	89 86 6c 01 00
	00		 mov	 DWORD PTR [esi+364], eax
$LN4@SendExpUp:

; 363  : 		}
; 364  : 	}

  000e9	83 4d fc ff	 or	 DWORD PTR __$EHRec$[ebp+8], -1
  000ed	8d 8d 9c 7f ff
	ff		 lea	 ecx, DWORD PTR _sPetSlot$509057[ebp]
  000f3	e8 00 00 00 00	 call	 ??1tagPetSlot@@QAE@XZ

; 365  : 
; 366  : 	if( !bTarget )

  000f8	38 9d d7 7f ff
	ff		 cmp	 BYTE PTR _bTarget$[ebp], bl
  000fe	75 08		 jne	 SHORT $LN3@SendExpUp
$LN17@SendExpUp:

; 367  : 	{
; 368  : 		g_GUIMgr.SetMsgBox( MB_OK, NULL, STR(4) );

  00100	53		 push	 ebx
  00101	6a 04		 push	 4

; 369  : 		return;

  00103	e9 39 ff ff ff	 jmp	 $LN19@SendExpUp
$LN3@SendExpUp:

; 370  : 	}
; 371  : 
; 372  : 	ioAlchemicInventory *pInven = g_MyInfo.GetAlchemicInventory();

  00108	e8 00 00 00 00	 call	 ?GetSingleton@ioMyInfo@@SAAAV1@XZ ; ioMyInfo::GetSingleton
  0010d	8d 88 84 02 00
	00		 lea	 ecx, DWORD PTR [eax+644]

; 373  : 	if( !pInven )

  00113	3b cb		 cmp	 ecx, ebx
  00115	74 7e		 je	 SHORT $LN9@SendExpUp

; 374  : 		return;
; 375  : 
; 376  : 	int nSelectMaterialCnt = pInven->GetAlchemicItemCnt( m_nSelectMaterialCode );

  00117	ff b6 74 01 00
	00		 push	 DWORD PTR [esi+372]
  0011d	e8 00 00 00 00	 call	 ?GetAlchemicItemCnt@ioAlchemicInventory@@QAEHH@Z ; ioAlchemicInventory::GetAlchemicItemCnt

; 377  : 	if ( nSelectMaterialCnt < m_nNeedMaterialCnt )

  00122	3b 86 6c 01 00
	00		 cmp	 eax, DWORD PTR [esi+364]
  00128	7d 10		 jge	 SHORT $LN1@SendExpUp

; 378  : 	{
; 379  : 		ResetWnd();

  0012a	8b ce		 mov	 ecx, esi
  0012c	e8 00 00 00 00	 call	 ?ResetWnd@PetEatWnd@@IAEXXZ ; PetEatWnd::ResetWnd

; 380  : 		AutoShowMaterialList();

  00131	8b ce		 mov	 ecx, esi
  00133	e8 00 00 00 00	 call	 ?AutoShowMaterialList@PetEatWnd@@IAEXXZ ; PetEatWnd::AutoShowMaterialList

; 381  : 		return;

  00138	eb 5b		 jmp	 SHORT $LN9@SendExpUp
$LN1@SendExpUp:

; 382  : 	}
; 383  : 
; 384  : 	SP2Packet kPacket( CTPK_PET_NURTURE );

  0013a	68 28 03 00 00	 push	 808			; 00000328H
  0013f	8d 8d d8 7f ff
	ff		 lea	 ecx, DWORD PTR _kPacket$[ebp]
  00145	e8 00 00 00 00	 call	 ??0SP2Packet@@QAE@K@Z	; SP2Packet::SP2Packet

; 385  : 	kPacket << m_nSelectPetSlot;

  0014a	ff b6 68 01 00
	00		 push	 DWORD PTR [esi+360]
  00150	33 ff		 xor	 edi, edi
  00152	47		 inc	 edi
  00153	8d 8d d8 7f ff
	ff		 lea	 ecx, DWORD PTR _kPacket$[ebp]
  00159	89 7d fc	 mov	 DWORD PTR __$EHRec$[ebp+8], edi
  0015c	e8 00 00 00 00	 call	 ??6SP2Packet@@QAEAAV0@H@Z ; SP2Packet::operator<<

; 386  : 	kPacket << m_nSelectMaterialCode;

  00161	ff b6 74 01 00
	00		 push	 DWORD PTR [esi+372]
  00167	8d 8d d8 7f ff
	ff		 lea	 ecx, DWORD PTR _kPacket$[ebp]
  0016d	e8 00 00 00 00	 call	 ??6SP2Packet@@QAEAAV0@H@Z ; SP2Packet::operator<<

; 387  : 	TCPNetwork::SendToServer( kPacket );

  00172	8d 85 d8 7f ff
	ff		 lea	 eax, DWORD PTR _kPacket$[ebp]
  00178	50		 push	 eax
  00179	e8 00 00 00 00	 call	 ?SendToServer@TCPNetwork@@YAXAAVSP2Packet@@@Z ; TCPNetwork::SendToServer

; 388  : 
; 389  : 	TCPNetwork::MouseBusy( true );

  0017e	57		 push	 edi
  0017f	e8 00 00 00 00	 call	 ?MouseBusy@TCPNetwork@@YAX_N@Z ; TCPNetwork::MouseBusy

; 390  : }

  00184	83 4d fc ff	 or	 DWORD PTR __$EHRec$[ebp+8], -1
  00188	59		 pop	 ecx
  00189	59		 pop	 ecx
  0018a	8d 8d d8 7f ff
	ff		 lea	 ecx, DWORD PTR _kPacket$[ebp]
  00190	e8 00 00 00 00	 call	 ??1SP2Packet@@UAE@XZ	; SP2Packet::~SP2Packet
$LN9@SendExpUp:
  00195	8b 4d f4	 mov	 ecx, DWORD PTR __$EHRec$[ebp]
  00198	64 89 0d 00 00
	00 00		 mov	 DWORD PTR fs:0, ecx
  0019f	59		 pop	 ecx
  001a0	5f		 pop	 edi
  001a1	5e		 pop	 esi
  001a2	5b		 pop	 ebx
  001a3	8b 4d f0	 mov	 ecx, DWORD PTR __$ArrayPad$[ebp]
  001a6	33 cd		 xor	 ecx, ebp
  001a8	e8 00 00 00 00	 call	 @__security_check_cookie@4
  001ad	c9		 leave
  001ae	c3		 ret	 0
_TEXT	ENDS
;	COMDAT text$x
text$x	SEGMENT
__unwindfunclet$?SendExpUp@PetEatWnd@@IAEXXZ$0:
  00000	8d 8d 9c 7f ff
	ff		 lea	 ecx, DWORD PTR _sPetSlot$509057[ebp]
  00006	e9 00 00 00 00	 jmp	 ??1tagPetSlot@@QAE@XZ
__unwindfunclet$?SendExpUp@PetEatWnd@@IAEXXZ$1:
  0000b	8d 8d d8 7f ff
	ff		 lea	 ecx, DWORD PTR _kPacket$[ebp]
  00011	e9 00 00 00 00	 jmp	 ??1SP2Packet@@UAE@XZ	; SP2Packet::~SP2Packet
__ehhandler$?SendExpUp@PetEatWnd@@IAEXXZ:
  00016	8b 54 24 08	 mov	 edx, DWORD PTR [esp+8]
  0001a	8d 42 0c	 lea	 eax, DWORD PTR [edx+12]
  0001d	8b 8a 98 7f ff
	ff		 mov	 ecx, DWORD PTR [edx-32872]
  00023	33 c8		 xor	 ecx, eax
  00025	e8 00 00 00 00	 call	 @__security_check_cookie@4
  0002a	8b 4a fc	 mov	 ecx, DWORD PTR [edx-4]
  0002d	33 c8		 xor	 ecx, eax
  0002f	e8 00 00 00 00	 call	 @__security_check_cookie@4
  00034	b8 00 00 00 00	 mov	 eax, OFFSET __ehfuncinfo$?SendExpUp@PetEatWnd@@IAEXXZ
  00039	e9 00 00 00 00	 jmp	 ___CxxFrameHandler3
text$x	ENDS
?SendExpUp@PetEatWnd@@IAEXXZ ENDP			; PetEatWnd::SendExpUp
; Function compile flags: /Ogsp
;	COMDAT ?iwm_show@PetEatWnd@@UAEXXZ
_TEXT	SEGMENT
?iwm_show@PetEatWnd@@UAEXXZ PROC			; PetEatWnd::iwm_show, COMDAT
; _this$ = ecx

; 32   : {

  00000	56		 push	 esi
  00001	8b f1		 mov	 esi, ecx

; 33   : 	if ( m_pManualMark )

  00003	83 be 60 01 00
	00 00		 cmp	 DWORD PTR [esi+352], 0
  0000a	74 13		 je	 SHORT $LN1@iwm_show

; 34   : 		m_pManualMark->SetColor( 128, 128, 128 );

  0000c	8b 8e 60 01 00
	00		 mov	 ecx, DWORD PTR [esi+352]
  00012	8b 11		 mov	 edx, DWORD PTR [ecx]
  00014	b8 80 00 00 00	 mov	 eax, 128		; 00000080H
  00019	50		 push	 eax
  0001a	50		 push	 eax
  0001b	50		 push	 eax
  0001c	ff 52 28	 call	 DWORD PTR [edx+40]
$LN1@iwm_show:

; 35   : 
; 36   : 	ResetWnd();

  0001f	8b ce		 mov	 ecx, esi
  00021	e8 00 00 00 00	 call	 ?ResetWnd@PetEatWnd@@IAEXXZ ; PetEatWnd::ResetWnd

; 37   : 	AutoShowMaterialList();	

  00026	8b ce		 mov	 ecx, esi
  00028	5e		 pop	 esi
  00029	e9 00 00 00 00	 jmp	 ?AutoShowMaterialList@PetEatWnd@@IAEXXZ ; PetEatWnd::AutoShowMaterialList
?iwm_show@PetEatWnd@@UAEXXZ ENDP			; PetEatWnd::iwm_show
_TEXT	ENDS
EXTRN	?ResetMainMenu@PetWnd@@QAEXXZ:PROC		; PetWnd::ResetMainMenu
EXTRN	__imp_?IsShow@ioWnd@@QBE_NXZ:PROC
EXTRN	?ShowWndByCurManual@ManualListWnd@@QAEXH@Z:PROC	; ManualListWnd::ShowWndByCurManual
EXTRN	__imp_?FindWnd@ioGUIManager@@QAEPAVioWnd@@K@Z:PROC
EXTRN	__imp_?HideWnd@ioWnd@@QAEXXZ:PROC
EXTRN	__imp_?GetID@ioWnd@@QBEKXZ:PROC
; Function compile flags: /Ogsp
;	COMDAT ?iwm_command@PetEatWnd@@UAEXPAVioWnd@@HK@Z
_TEXT	SEGMENT
_pWnd$ = 8						; size = 4
_cmd$ = 12						; size = 4
_param$ = 16						; size = 4
?iwm_command@PetEatWnd@@UAEXPAVioWnd@@HK@Z PROC		; PetEatWnd::iwm_command, COMDAT
; _this$ = ecx

; 48   : {

  00000	55		 push	 ebp
  00001	8b ec		 mov	 ebp, esp
  00003	56		 push	 esi
  00004	57		 push	 edi

; 49   : 	DWORD dwID = pWnd->GetID();

  00005	8b 7d 08	 mov	 edi, DWORD PTR _pWnd$[ebp]
  00008	8b f1		 mov	 esi, ecx
  0000a	8b cf		 mov	 ecx, edi
  0000c	ff 15 00 00 00
	00		 call	 DWORD PTR __imp_?GetID@ioWnd@@QBEKXZ

; 50   : 	switch( dwID )

  00012	83 f8 01	 cmp	 eax, 1
  00015	0f 84 67 01 00
	00		 je	 $LN22@iwm_comman
  0001b	0f 86 6e 01 00
	00		 jbe	 $LN21@iwm_comman
  00021	83 f8 03	 cmp	 eax, 3
  00024	0f 86 1d 01 00
	00		 jbe	 $LN20@iwm_comman
  0002a	83 f8 0b	 cmp	 eax, 11			; 0000000bH
  0002d	0f 84 e5 00 00
	00		 je	 $LN17@iwm_comman
  00033	83 f8 0c	 cmp	 eax, 12			; 0000000cH
  00036	74 38		 je	 SHORT $LN9@iwm_comman
  00038	83 f8 65	 cmp	 eax, 101		; 00000065H
  0003b	0f 85 4e 01 00
	00		 jne	 $LN21@iwm_comman

; 83   : 	case ID_MATERIALPET_WND:
; 84   : 		if( cmd == IOBN_BTNUP )

  00041	83 7d 0c 11	 cmp	 DWORD PTR _cmd$[ebp], 17 ; 00000011H
  00045	0f 85 44 01 00
	00		 jne	 $LN21@iwm_comman

; 85   : 		{
; 86   : 			//  
; 87   : 			NewShopPullDownWnd *pPullDownWnd = (NewShopPullDownWnd *)(pWnd);
; 88   : 			if( pPullDownWnd )

  0004b	85 ff		 test	 edi, edi
  0004d	0f 84 3c 01 00
	00		 je	 $LN21@iwm_comman

; 89   : 			{
; 90   : 				pPullDownWnd->HideWnd();

  00053	8b cf		 mov	 ecx, edi
  00055	ff 15 00 00 00
	00		 call	 DWORD PTR __imp_?HideWnd@ioWnd@@QAEXXZ

; 91   : 				MaterialListBtnUp( pPullDownWnd->GetOpenBtn(), param );

  0005b	ff 75 10	 push	 DWORD PTR _param$[ebp]
  0005e	8b ce		 mov	 ecx, esi
  00060	ff b7 98 01 00
	00		 push	 DWORD PTR [edi+408]
  00066	e8 00 00 00 00	 call	 ?MaterialListBtnUp@PetEatWnd@@IAEXPAVioWnd@@H@Z ; PetEatWnd::MaterialListBtnUp

; 92   : 			}
; 93   : 		}
; 94   : 		break;

  0006b	e9 1f 01 00 00	 jmp	 $LN21@iwm_comman
$LN9@iwm_comman:

; 95   : 	case ID_HELP_MARK:
; 96   : 		if( cmd == IOBN_BTNUP )

  00070	83 7d 0c 11	 cmp	 DWORD PTR _cmd$[ebp], 17 ; 00000011H
  00074	75 38		 jne	 SHORT $LN8@iwm_comman

; 97   : 		{
; 98   : 			HideChildWnd( ID_HELP_TOOL_TIP );

  00076	6a 00		 push	 0
  00078	6a 0d		 push	 13			; 0000000dH
  0007a	8b ce		 mov	 ecx, esi
  0007c	ff 15 00 00 00
	00		 call	 DWORD PTR __imp_?HideChildWnd@ioWnd@@QAEXK_N@Z

; 99   : 			ManualListWnd *pManualWnd = (ManualListWnd*) (g_GUIMgr.FindWnd( MANUAL_LIST_WND ) );

  00082	68 75 17 00 00	 push	 6005			; 00001775H
  00087	e8 00 00 00 00	 call	 ?GetSingleton@ioSP2GUIManager@@SAAAV1@XZ ; ioSP2GUIManager::GetSingleton
  0008c	8b c8		 mov	 ecx, eax
  0008e	ff 15 00 00 00
	00		 call	 DWORD PTR __imp_?FindWnd@ioGUIManager@@QAEPAVioWnd@@K@Z

; 100  : 			if( pManualWnd )

  00094	85 c0		 test	 eax, eax
  00096	0f 84 f3 00 00
	00		 je	 $LN21@iwm_comman

; 101  : 				pManualWnd->ShowWndByCurManual( m_nHelpTipIdx );

  0009c	ff b6 64 01 00
	00		 push	 DWORD PTR [esi+356]
  000a2	8b c8		 mov	 ecx, eax
  000a4	e8 00 00 00 00	 call	 ?ShowWndByCurManual@ManualListWnd@@QAEXH@Z ; ManualListWnd::ShowWndByCurManual

; 102  : 		}

  000a9	e9 e1 00 00 00	 jmp	 $LN21@iwm_comman
$LN8@iwm_comman:

; 103  : 		else if( cmd == IOWN_OVERED )

  000ae	83 7d 0c 04	 cmp	 DWORD PTR _cmd$[ebp], 4
  000b2	75 30		 jne	 SHORT $LN5@iwm_comman

; 104  : 		{
; 105  : 			if ( m_pManualMark )

  000b4	83 be 60 01 00
	00 00		 cmp	 DWORD PTR [esi+352], 0
  000bb	74 16		 je	 SHORT $LN4@iwm_comman

; 106  : 				m_pManualMark->SetColor( 206, 78, 0 );

  000bd	8b 86 60 01 00
	00		 mov	 eax, DWORD PTR [esi+352]
  000c3	8b 10		 mov	 edx, DWORD PTR [eax]
  000c5	6a 00		 push	 0
  000c7	6a 4e		 push	 78			; 0000004eH
  000c9	68 ce 00 00 00	 push	 206			; 000000ceH
  000ce	8b c8		 mov	 ecx, eax
  000d0	ff 52 28	 call	 DWORD PTR [edx+40]
$LN4@iwm_comman:

; 107  : 
; 108  : 			ShowChildWnd( ID_HELP_TOOL_TIP );

  000d3	6a 00		 push	 0
  000d5	6a 0d		 push	 13			; 0000000dH
  000d7	8b ce		 mov	 ecx, esi
  000d9	ff 15 00 00 00
	00		 call	 DWORD PTR __imp_?ShowChildWnd@ioWnd@@QAEXK_N@Z
  000df	e9 ab 00 00 00	 jmp	 $LN21@iwm_comman
$LN5@iwm_comman:

; 109  : 		}
; 110  : 		else if( cmd == IOWN_LEAVED )

  000e4	83 7d 0c 03	 cmp	 DWORD PTR _cmd$[ebp], 3
  000e8	0f 85 a1 00 00
	00		 jne	 $LN21@iwm_comman

; 111  : 		{
; 112  : 			if ( m_pManualMark )

  000ee	83 be 60 01 00
	00 00		 cmp	 DWORD PTR [esi+352], 0
  000f5	74 13		 je	 SHORT $LN1@iwm_comman

; 113  : 				m_pManualMark->SetColor( 128, 128, 128 );

  000f7	8b 8e 60 01 00
	00		 mov	 ecx, DWORD PTR [esi+352]
  000fd	8b 11		 mov	 edx, DWORD PTR [ecx]
  000ff	b8 80 00 00 00	 mov	 eax, 128		; 00000080H
  00104	50		 push	 eax
  00105	50		 push	 eax
  00106	50		 push	 eax
  00107	ff 52 28	 call	 DWORD PTR [edx+40]
$LN1@iwm_comman:

; 114  : 
; 115  : 			HideChildWnd( ID_HELP_TOOL_TIP );

  0010a	6a 00		 push	 0
  0010c	6a 0d		 push	 13			; 0000000dH
  0010e	8b ce		 mov	 ecx, esi
  00110	ff 15 00 00 00
	00		 call	 DWORD PTR __imp_?HideChildWnd@ioWnd@@QAEXK_N@Z

; 116  : 		}
; 117  : 		break;

  00116	eb 77		 jmp	 SHORT $LN21@iwm_comman
$LN17@iwm_comman:

; 69   : 	case ID_MATERIALPET_BTN:
; 70   : 		if( cmd == IOBN_BTNUP )

  00118	83 7d 0c 11	 cmp	 DWORD PTR _cmd$[ebp], 17 ; 00000011H
  0011c	75 71		 jne	 SHORT $LN21@iwm_comman

; 71   : 		{
; 72   : 			// 
; 73   : 			NewShopPullDownWnd *pListWnd = (NewShopPullDownWnd*)(FindChildWnd(ID_MATERIALPET_WND));

  0011e	6a 65		 push	 101			; 00000065H
  00120	8b ce		 mov	 ecx, esi
  00122	ff 15 00 00 00
	00		 call	 DWORD PTR __imp_?FindChildWnd@ioWnd@@QAEPAV1@K@Z
  00128	8b f8		 mov	 edi, eax

; 74   : 			if ( !pListWnd )

  0012a	85 ff		 test	 edi, edi
  0012c	74 61		 je	 SHORT $LN21@iwm_comman

; 75   : 				return;
; 76   : 
; 77   : 			if( pListWnd->IsShow() )

  0012e	8b cf		 mov	 ecx, edi
  00130	ff 15 00 00 00
	00		 call	 DWORD PTR __imp_?IsShow@ioWnd@@QBE_NXZ
  00136	84 c0		 test	 al, al
  00138	74 04		 je	 SHORT $LN14@iwm_comman

; 78   : 				pListWnd->HideWnd();

  0013a	8b cf		 mov	 ecx, edi

; 79   : 			else

  0013c	eb 3c		 jmp	 SHORT $LN29@iwm_comman
$LN14@iwm_comman:

; 80   : 				AutoShowMaterialList();

  0013e	8b ce		 mov	 ecx, esi
  00140	e8 00 00 00 00	 call	 ?AutoShowMaterialList@PetEatWnd@@IAEXXZ ; PetEatWnd::AutoShowMaterialList

; 81   : 		}
; 82   : 		break;

  00145	eb 48		 jmp	 SHORT $LN21@iwm_comman
$LN20@iwm_comman:

; 56   : 		}
; 57   : 		break;
; 58   : 	case ID_BACK_BTN:
; 59   : 	case ID_EMPTY_BTN:
; 60   : 		if( cmd == IOBN_BTNUP )

  00147	83 7d 0c 11	 cmp	 DWORD PTR _cmd$[ebp], 17 ; 00000011H
  0014b	75 42		 jne	 SHORT $LN21@iwm_comman

; 61   : 		{
; 62   : 			PetWnd *pPetWnd = (PetWnd*)( g_GUIMgr.FindWnd( PET_WND ) );

  0014d	68 66 18 00 00	 push	 6246			; 00001866H
  00152	e8 00 00 00 00	 call	 ?GetSingleton@ioSP2GUIManager@@SAAAV1@XZ ; ioSP2GUIManager::GetSingleton
  00157	8b c8		 mov	 ecx, eax
  00159	ff 15 00 00 00
	00		 call	 DWORD PTR __imp_?FindWnd@ioGUIManager@@QAEPAVioWnd@@K@Z
  0015f	8b f8		 mov	 edi, eax

; 63   : 			if ( pPetWnd && pPetWnd->IsShow() )

  00161	85 ff		 test	 edi, edi
  00163	74 13		 je	 SHORT $LN18@iwm_comman
  00165	8b cf		 mov	 ecx, edi
  00167	ff 15 00 00 00
	00		 call	 DWORD PTR __imp_?IsShow@ioWnd@@QBE_NXZ
  0016d	84 c0		 test	 al, al
  0016f	74 07		 je	 SHORT $LN18@iwm_comman

; 64   : 				pPetWnd->ResetMainMenu();

  00171	8b cf		 mov	 ecx, edi
  00173	e8 00 00 00 00	 call	 ?ResetMainMenu@PetWnd@@QAEXXZ ; PetWnd::ResetMainMenu
$LN18@iwm_comman:

; 65   : 
; 66   : 			HideWnd();

  00178	8b ce		 mov	 ecx, esi
$LN29@iwm_comman:
  0017a	ff 15 00 00 00
	00		 call	 DWORD PTR __imp_?HideWnd@ioWnd@@QAEXXZ

; 67   : 		}
; 68   : 		break;

  00180	eb 0d		 jmp	 SHORT $LN21@iwm_comman
$LN22@iwm_comman:

; 51   : 	{
; 52   : 	case ID_EAT_BTN:
; 53   : 		if( cmd == IOBN_BTNUP )

  00182	83 7d 0c 11	 cmp	 DWORD PTR _cmd$[ebp], 17 ; 00000011H
  00186	75 07		 jne	 SHORT $LN21@iwm_comman

; 54   : 		{
; 55   : 			SendExpUp();

  00188	8b ce		 mov	 ecx, esi
  0018a	e8 00 00 00 00	 call	 ?SendExpUp@PetEatWnd@@IAEXXZ ; PetEatWnd::SendExpUp
$LN21@iwm_comman:
  0018f	5f		 pop	 edi
  00190	5e		 pop	 esi

; 118  : 	}
; 119  : }

  00191	5d		 pop	 ebp
  00192	c2 0c 00	 ret	 12			; 0000000cH
?iwm_command@PetEatWnd@@UAEXPAVioWnd@@HK@Z ENDP		; PetEatWnd::iwm_command
_TEXT	ENDS
END
