; Listing generated by Microsoft (R) Optimizing Compiler Version 16.00.30319.01 

	TITLE	D:\Lost Saga For Developer\Youtube\Tutorial\Source\src\LSClient\GUI\PetIconBtn.cpp
	.686P
	.XMM
	include listing.inc
	.model	flat

INCLUDELIB MSVCRT
INCLUDELIB OLDNAMES

PUBLIC	??_7PetIconBtn@@6B@				; PetIconBtn::`vftable'
PUBLIC	??1PetIconBtn@@UAE@XZ				; PetIconBtn::~PetIconBtn
PUBLIC	??_R4PetIconBtn@@6B@				; PetIconBtn::`RTTI Complete Object Locator'
PUBLIC	??_R0?AVPetIconBtn@@@8				; PetIconBtn `RTTI Type Descriptor'
PUBLIC	??_R3PetIconBtn@@8				; PetIconBtn::`RTTI Class Hierarchy Descriptor'
PUBLIC	??_R2PetIconBtn@@8				; PetIconBtn::`RTTI Base Class Array'
PUBLIC	??_R1A@?0A@EA@PetIconBtn@@8			; PetIconBtn::`RTTI Base Class Descriptor at (0,-1,0,64)'
PUBLIC	??_R1A@?0A@EA@ioButton@@8			; ioButton::`RTTI Base Class Descriptor at (0,-1,0,64)'
PUBLIC	??_R0?AVioButton@@@8				; ioButton `RTTI Type Descriptor'
PUBLIC	??_R3ioButton@@8				; ioButton::`RTTI Class Hierarchy Descriptor'
PUBLIC	??_R2ioButton@@8				; ioButton::`RTTI Base Class Array'
PUBLIC	??_R1A@?0A@EA@ioWnd@@8				; ioWnd::`RTTI Base Class Descriptor at (0,-1,0,64)'
PUBLIC	??_R0?AVioWnd@@@8				; ioWnd `RTTI Type Descriptor'
PUBLIC	??_R3ioWnd@@8					; ioWnd::`RTTI Class Hierarchy Descriptor'
PUBLIC	??_R2ioWnd@@8					; ioWnd::`RTTI Base Class Array'
PUBLIC	?AddRenderFrame@PetIconBtn@@UAEXABVioHashString@@PAVioUIRenderFrame@@@Z ; PetIconBtn::AddRenderFrame
PUBLIC	?AddRenderImage@PetIconBtn@@UAEXABVioHashString@@PAVioUIRenderImage@@@Z ; PetIconBtn::AddRenderImage
PUBLIC	?ParseExtraInfo@PetIconBtn@@UAEXAAVioXMLElement@@@Z ; PetIconBtn::ParseExtraInfo
PUBLIC	?OnProcess@PetIconBtn@@MAEXM@Z			; PetIconBtn::OnProcess
PUBLIC	?OnDrawNormal@PetIconBtn@@MAEXHH@Z		; PetIconBtn::OnDrawNormal
PUBLIC	?OnDrawOvered@PetIconBtn@@MAEXHH@Z		; PetIconBtn::OnDrawOvered
PUBLIC	?OnDrawPushed@PetIconBtn@@MAEXHH@Z		; PetIconBtn::OnDrawPushed
EXTRN	__imp_??1ioButton@@UAE@XZ:PROC
EXTRN	__imp_??1ioHashString@@QAE@XZ:PROC
EXTRN	___CxxFrameHandler3:PROC
EXTRN	@__security_check_cookie@4:PROC
EXTRN	__EH_epilog3:PROC
EXTRN	__EH_prolog3:PROC
EXTRN	??_7type_info@@6B@:QWORD			; type_info::`vftable'
EXTRN	?AddTooltipHelp@ioWnd@@UAEXABVioHashString@@00@Z:PROC ; ioWnd::AddTooltipHelp
EXTRN	?AddNamedRenderImage@ioWnd@@UAEXABVioHashString@@PAVioUIRenderImage@@@Z:PROC ; ioWnd::AddNamedRenderImage
EXTRN	?RemoveNamedRenderImage@ioWnd@@UAEXABVioHashString@@@Z:PROC ; ioWnd::RemoveNamedRenderImage
EXTRN	?GetNamedRenderImage@ioWnd@@UBEPAVioUIRenderImage@@ABVioHashString@@@Z:PROC ; ioWnd::GetNamedRenderImage
EXTRN	?SetWindowAlpha@ioButton@@UAEXH@Z:PROC		; ioButton::SetWindowAlpha
EXTRN	?SetActive@ioWnd@@UAEXXZ:PROC			; ioWnd::SetActive
EXTRN	?SetInActive@ioWnd@@UAEXXZ:PROC			; ioWnd::SetInActive
EXTRN	?ClearElementImageList@ioWnd@@UAEXXZ:PROC	; ioWnd::ClearElementImageList
EXTRN	?SetSize@ioWnd@@UAEXHH@Z:PROC			; ioWnd::SetSize
EXTRN	?SetPositionToDefault@ioWnd@@UAEXHH_N0@Z:PROC	; ioWnd::SetPositionToDefault
EXTRN	?IsNeedProcess@ioWnd@@UBE_NXZ:PROC		; ioWnd::IsNeedProcess
EXTRN	?IsCanMouseReaction@ioWnd@@UBE_NXZ:PROC		; ioWnd::IsCanMouseReaction
EXTRN	?AddChild@ioWnd@@UAEXPAV1@@Z:PROC		; ioWnd::AddChild
EXTRN	?DeleteChild@ioWnd@@UAEXK@Z:PROC		; ioWnd::DeleteChild
EXTRN	?DeleteAllChild@ioWnd@@UAEXXZ:PROC		; ioWnd::DeleteAllChild
EXTRN	?OnRenderShowAndHide@ioWnd@@MAE_NXZ:PROC	; ioWnd::OnRenderShowAndHide
EXTRN	?OnRenderShowAndHideByDefault@ioWnd@@MAE_NK@Z:PROC ; ioWnd::OnRenderShowAndHideByDefault
EXTRN	?OnRenderShowAndHideByTop@ioWnd@@MAE_NK@Z:PROC	; ioWnd::OnRenderShowAndHideByTop
EXTRN	?OnRenderShowAndHideByDown@ioWnd@@MAE_NK@Z:PROC	; ioWnd::OnRenderShowAndHideByDown
EXTRN	?OnRender@ioButton@@MAEXXZ:PROC			; ioButton::OnRender
EXTRN	?OnRenderAfterChild@ioWnd@@MAEXXZ:PROC		; ioWnd::OnRenderAfterChild
EXTRN	?OnMouseProcess@ioWnd@@MAEXABVioMouse@@@Z:PROC	; ioWnd::OnMouseProcess
EXTRN	?CheckFrameReSize@ioButton@@MAEXHHHH@Z:PROC	; ioButton::CheckFrameReSize
EXTRN	?RenderImageList@ioWnd@@MAEXHHW4UIRenderType@@@Z:PROC ; ioWnd::RenderImageList
EXTRN	?iwm_create@ioWnd@@UAEXXZ:PROC			; ioWnd::iwm_create
EXTRN	?iwm_destroy@ioWnd@@UAEXXZ:PROC			; ioWnd::iwm_destroy
EXTRN	?iwm_lbuttondown@ioButton@@UAEXABVioMouse@@@Z:PROC ; ioButton::iwm_lbuttondown
EXTRN	?iwm_lbuttonup@ioButton@@UAEXABVioMouse@@@Z:PROC ; ioButton::iwm_lbuttonup
EXTRN	?iwm_lbuttonDBLCLK@ioButton@@UAEXABVioMouse@@@Z:PROC ; ioButton::iwm_lbuttonDBLCLK
EXTRN	?iwm_rbuttondown@ioButton@@UAEXABVioMouse@@@Z:PROC ; ioButton::iwm_rbuttondown
EXTRN	?iwm_rbuttonup@ioButton@@UAEXABVioMouse@@@Z:PROC ; ioButton::iwm_rbuttonup
EXTRN	?iwm_command@ioWnd@@UAEXPAV1@HK@Z:PROC		; ioWnd::iwm_command
EXTRN	?iwm_mouseover@ioButton@@UAEXABVioMouse@@@Z:PROC ; ioButton::iwm_mouseover
EXTRN	?iwm_mousemove@ioWnd@@UAEXABVioMouse@@@Z:PROC	; ioWnd::iwm_mousemove
EXTRN	?iwm_mouseleave@ioWnd@@UAEXABVioMouse@@@Z:PROC	; ioWnd::iwm_mouseleave
EXTRN	?iwm_vscroll@ioWnd@@UAEXKH@Z:PROC		; ioWnd::iwm_vscroll
EXTRN	?iwm_wheel@ioWnd@@UAEXH@Z:PROC			; ioWnd::iwm_wheel
EXTRN	?iwm_show@ioWnd@@UAEXXZ:PROC			; ioWnd::iwm_show
EXTRN	?iwm_hide@ioWnd@@UAEXXZ:PROC			; ioWnd::iwm_hide
EXTRN	?iwm_esc@ioWnd@@UAE_NXZ:PROC			; ioWnd::iwm_esc
EXTRN	?iwm_spacebar@ioWnd@@UAE_NXZ:PROC		; ioWnd::iwm_spacebar
EXTRN	?iwm_gototop@ioWnd@@UAEXXZ:PROC			; ioWnd::iwm_gototop
EXTRN	?iwm_dragenter@ioWnd@@UAE?AW4IWDropEffect@@PAVioDragItem@@ABVioMouse@@@Z:PROC ; ioWnd::iwm_dragenter
EXTRN	?iwm_dragover@ioWnd@@UAE?AW4IWDropEffect@@PAVioDragItem@@ABVioMouse@@@Z:PROC ; ioWnd::iwm_dragover
EXTRN	?iwm_dragleave@ioWnd@@UAEXXZ:PROC		; ioWnd::iwm_dragleave
EXTRN	?iwm_dropitem@ioWnd@@UAE_NPAVioDragItem@@ABVioMouse@@PAV1@@Z:PROC ; ioWnd::iwm_dropitem
EXTRN	?iwm_dropdone@ioWnd@@UAEXPAVioDragItem@@PAV1@_N@Z:PROC ; ioWnd::iwm_dropdone
EXTRN	?IsEXType@ioWnd@@UBE_NXZ:PROC			; ioWnd::IsEXType
EXTRN	?GetWndType@ioButton@@UBEKXZ:PROC		; ioButton::GetWndType
EXTRN	?RenderWnd@ioWnd@@UAEXXZ:PROC			; ioWnd::RenderWnd
EXTRN	?SetIDEX@ioWnd@@UAEXAAK_N@Z:PROC		; ioWnd::SetIDEX
EXTRN	?ParseXML@ioWnd@@UAEXAAVioXMLElement@@@Z:PROC	; ioWnd::ParseXML
EXTRN	?GetHeaderFileName@ioButton@@UAEPBDXZ:PROC	; ioButton::GetHeaderFileName
EXTRN	?GetTemplateName@ioButton@@UAEPBDXZ:PROC	; ioButton::GetTemplateName
EXTRN	?GetDefClassName@ioButton@@UBEPBDXZ:PROC	; ioButton::GetDefClassName
EXTRN	?_Clone@ioButton@@UAEPAVioWnd@@XZ:PROC		; ioButton::_Clone
EXTRN	?Copy@ioButton@@UAEXPAVioWnd@@@Z:PROC		; ioButton::Copy
EXTRN	?Save@ioWnd@@UAE_NAAVioXMLElement@@@Z:PROC	; ioWnd::Save
EXTRN	?SetSaveData@ioButton@@UAEXAAVioXMLElement@@@Z:PROC ; ioButton::SetSaveData
EXTRN	?SetPosX@ioWnd@@UAEXH@Z:PROC			; ioWnd::SetPosX
EXTRN	?SetPosY@ioWnd@@UAEXH@Z:PROC			; ioWnd::SetPosY
EXTRN	?SetWidth@ioWnd@@UAEXH@Z:PROC			; ioWnd::SetWidth
EXTRN	?SetHeight@ioWnd@@UAEXH@Z:PROC			; ioWnd::SetHeight
EXTRN	?GetNumFixedRenderFrame@ioButton@@UBEHXZ:PROC	; ioButton::GetNumFixedRenderFrame
EXTRN	?GetFixedRenderFrameType@ioButton@@UAEPBDH@Z:PROC ; ioButton::GetFixedRenderFrameType
EXTRN	?GetRenderFrame@ioButton@@UAEPAPAVioUIRenderElement@@PBD@Z:PROC ; ioButton::GetRenderFrame
EXTRN	?GetNumFixedRenderImage@ioButton@@UBEHXZ:PROC	; ioButton::GetNumFixedRenderImage
EXTRN	?GetFixedRenderImageType@ioButton@@UAEPBDH@Z:PROC ; ioButton::GetFixedRenderImageType
EXTRN	?GetRenderImage@ioButton@@UAEPAPAVioUIRenderElement@@PBD@Z:PROC ; ioButton::GetRenderImage
EXTRN	?AddEffect@ioWnd@@UAEXABVioHashString@@PAVioUI3DEffectRender@@@Z:PROC ; ioWnd::AddEffect
EXTRN	?GetEffect@ioWnd@@UAEPAVioUI3DEffectRender@@VioHashString@@@Z:PROC ; ioWnd::GetEffect
EXTRN	??_EPetIconBtn@@UAEPAXI@Z:PROC			; PetIconBtn::`vector deleting destructor'
EXTRN	?OnDrawOveredAdd@ioButton@@MAEXHH@Z:PROC	; ioButton::OnDrawOveredAdd
EXTRN	?OnDrawDisabled@ioButton@@MAEXHH@Z:PROC		; ioButton::OnDrawDisabled
EXTRN	?OnDrawExDisabledNormal@ioButton@@MAEXHH@Z:PROC	; ioButton::OnDrawExDisabledNormal
EXTRN	?OnDrawExDisabledOvered@ioButton@@MAEXHH@Z:PROC	; ioButton::OnDrawExDisabledOvered
EXTRN	?OnDrawExDisabledPushed@ioButton@@MAEXHH@Z:PROC	; ioButton::OnDrawExDisabledPushed
EXTRN	?OnDrawBack@ioButton@@MAEXHH@Z:PROC		; ioButton::OnDrawBack
EXTRN	?OnDrawNormalList@ioButton@@MAEXHH@Z:PROC	; ioButton::OnDrawNormalList
EXTRN	?OnDrawDisableList@ioButton@@MAEXHH@Z:PROC	; ioButton::OnDrawDisableList
;	COMDAT ??_R2ioWnd@@8
; File d:\lost saga for developer\youtube\tutorial\source\src\lsclient\gui\peticonbtn.cpp
rdata$r	SEGMENT
??_R2ioWnd@@8 DD FLAT:??_R1A@?0A@EA@ioWnd@@8		; ioWnd::`RTTI Base Class Array'
rdata$r	ENDS
;	COMDAT ??_R3ioWnd@@8
rdata$r	SEGMENT
??_R3ioWnd@@8 DD 00H					; ioWnd::`RTTI Class Hierarchy Descriptor'
	DD	00H
	DD	01H
	DD	FLAT:??_R2ioWnd@@8
rdata$r	ENDS
;	COMDAT ??_R0?AVioWnd@@@8
_DATA	SEGMENT
??_R0?AVioWnd@@@8 DD FLAT:??_7type_info@@6B@		; ioWnd `RTTI Type Descriptor'
	DD	00H
	DB	'.?AVioWnd@@', 00H
_DATA	ENDS
;	COMDAT ??_R1A@?0A@EA@ioWnd@@8
rdata$r	SEGMENT
??_R1A@?0A@EA@ioWnd@@8 DD FLAT:??_R0?AVioWnd@@@8	; ioWnd::`RTTI Base Class Descriptor at (0,-1,0,64)'
	DD	00H
	DD	00H
	DD	0ffffffffH
	DD	00H
	DD	040H
	DD	FLAT:??_R3ioWnd@@8
rdata$r	ENDS
;	COMDAT ??_R2ioButton@@8
rdata$r	SEGMENT
??_R2ioButton@@8 DD FLAT:??_R1A@?0A@EA@ioButton@@8	; ioButton::`RTTI Base Class Array'
	DD	FLAT:??_R1A@?0A@EA@ioWnd@@8
rdata$r	ENDS
;	COMDAT ??_R3ioButton@@8
rdata$r	SEGMENT
??_R3ioButton@@8 DD 00H					; ioButton::`RTTI Class Hierarchy Descriptor'
	DD	00H
	DD	02H
	DD	FLAT:??_R2ioButton@@8
rdata$r	ENDS
;	COMDAT ??_R0?AVioButton@@@8
_DATA	SEGMENT
??_R0?AVioButton@@@8 DD FLAT:??_7type_info@@6B@		; ioButton `RTTI Type Descriptor'
	DD	00H
	DB	'.?AVioButton@@', 00H
_DATA	ENDS
;	COMDAT ??_R1A@?0A@EA@ioButton@@8
rdata$r	SEGMENT
??_R1A@?0A@EA@ioButton@@8 DD FLAT:??_R0?AVioButton@@@8	; ioButton::`RTTI Base Class Descriptor at (0,-1,0,64)'
	DD	01H
	DD	00H
	DD	0ffffffffH
	DD	00H
	DD	040H
	DD	FLAT:??_R3ioButton@@8
rdata$r	ENDS
;	COMDAT ??_R1A@?0A@EA@PetIconBtn@@8
rdata$r	SEGMENT
??_R1A@?0A@EA@PetIconBtn@@8 DD FLAT:??_R0?AVPetIconBtn@@@8 ; PetIconBtn::`RTTI Base Class Descriptor at (0,-1,0,64)'
	DD	02H
	DD	00H
	DD	0ffffffffH
	DD	00H
	DD	040H
	DD	FLAT:??_R3PetIconBtn@@8
rdata$r	ENDS
;	COMDAT ??_R2PetIconBtn@@8
rdata$r	SEGMENT
??_R2PetIconBtn@@8 DD FLAT:??_R1A@?0A@EA@PetIconBtn@@8	; PetIconBtn::`RTTI Base Class Array'
	DD	FLAT:??_R1A@?0A@EA@ioButton@@8
	DD	FLAT:??_R1A@?0A@EA@ioWnd@@8
rdata$r	ENDS
;	COMDAT ??_R3PetIconBtn@@8
rdata$r	SEGMENT
??_R3PetIconBtn@@8 DD 00H				; PetIconBtn::`RTTI Class Hierarchy Descriptor'
	DD	00H
	DD	03H
	DD	FLAT:??_R2PetIconBtn@@8
rdata$r	ENDS
;	COMDAT ??_R0?AVPetIconBtn@@@8
_DATA	SEGMENT
??_R0?AVPetIconBtn@@@8 DD FLAT:??_7type_info@@6B@	; PetIconBtn `RTTI Type Descriptor'
	DD	00H
	DB	'.?AVPetIconBtn@@', 00H
_DATA	ENDS
;	COMDAT ??_R4PetIconBtn@@6B@
rdata$r	SEGMENT
??_R4PetIconBtn@@6B@ DD 00H				; PetIconBtn::`RTTI Complete Object Locator'
	DD	00H
	DD	00H
	DD	FLAT:??_R0?AVPetIconBtn@@@8
	DD	FLAT:??_R3PetIconBtn@@8
rdata$r	ENDS
;	COMDAT ??_7PetIconBtn@@6B@
CONST	SEGMENT
??_7PetIconBtn@@6B@ DD FLAT:??_R4PetIconBtn@@6B@	; PetIconBtn::`vftable'
	DD	FLAT:?AddRenderFrame@PetIconBtn@@UAEXABVioHashString@@PAVioUIRenderFrame@@@Z
	DD	FLAT:?AddRenderImage@PetIconBtn@@UAEXABVioHashString@@PAVioUIRenderImage@@@Z
	DD	FLAT:?AddTooltipHelp@ioWnd@@UAEXABVioHashString@@00@Z
	DD	FLAT:?ParseExtraInfo@PetIconBtn@@UAEXAAVioXMLElement@@@Z
	DD	FLAT:?AddNamedRenderImage@ioWnd@@UAEXABVioHashString@@PAVioUIRenderImage@@@Z
	DD	FLAT:?RemoveNamedRenderImage@ioWnd@@UAEXABVioHashString@@@Z
	DD	FLAT:?GetNamedRenderImage@ioWnd@@UBEPAVioUIRenderImage@@ABVioHashString@@@Z
	DD	FLAT:?SetWindowAlpha@ioButton@@UAEXH@Z
	DD	FLAT:?SetActive@ioWnd@@UAEXXZ
	DD	FLAT:?SetInActive@ioWnd@@UAEXXZ
	DD	FLAT:?ClearElementImageList@ioWnd@@UAEXXZ
	DD	FLAT:?SetSize@ioWnd@@UAEXHH@Z
	DD	FLAT:?SetPositionToDefault@ioWnd@@UAEXHH_N0@Z
	DD	FLAT:?IsNeedProcess@ioWnd@@UBE_NXZ
	DD	FLAT:?IsCanMouseReaction@ioWnd@@UBE_NXZ
	DD	FLAT:?AddChild@ioWnd@@UAEXPAV1@@Z
	DD	FLAT:?DeleteChild@ioWnd@@UAEXK@Z
	DD	FLAT:?DeleteAllChild@ioWnd@@UAEXXZ
	DD	FLAT:?OnRenderShowAndHide@ioWnd@@MAE_NXZ
	DD	FLAT:?OnRenderShowAndHideByDefault@ioWnd@@MAE_NK@Z
	DD	FLAT:?OnRenderShowAndHideByTop@ioWnd@@MAE_NK@Z
	DD	FLAT:?OnRenderShowAndHideByDown@ioWnd@@MAE_NK@Z
	DD	FLAT:?OnRender@ioButton@@MAEXXZ
	DD	FLAT:?OnRenderAfterChild@ioWnd@@MAEXXZ
	DD	FLAT:?OnProcess@PetIconBtn@@MAEXM@Z
	DD	FLAT:?OnMouseProcess@ioWnd@@MAEXABVioMouse@@@Z
	DD	FLAT:?CheckFrameReSize@ioButton@@MAEXHHHH@Z
	DD	FLAT:?RenderImageList@ioWnd@@MAEXHHW4UIRenderType@@@Z
	DD	FLAT:?iwm_create@ioWnd@@UAEXXZ
	DD	FLAT:?iwm_destroy@ioWnd@@UAEXXZ
	DD	FLAT:?iwm_lbuttondown@ioButton@@UAEXABVioMouse@@@Z
	DD	FLAT:?iwm_lbuttonup@ioButton@@UAEXABVioMouse@@@Z
	DD	FLAT:?iwm_lbuttonDBLCLK@ioButton@@UAEXABVioMouse@@@Z
	DD	FLAT:?iwm_rbuttondown@ioButton@@UAEXABVioMouse@@@Z
	DD	FLAT:?iwm_rbuttonup@ioButton@@UAEXABVioMouse@@@Z
	DD	FLAT:?iwm_command@ioWnd@@UAEXPAV1@HK@Z
	DD	FLAT:?iwm_mouseover@ioButton@@UAEXABVioMouse@@@Z
	DD	FLAT:?iwm_mousemove@ioWnd@@UAEXABVioMouse@@@Z
	DD	FLAT:?iwm_mouseleave@ioWnd@@UAEXABVioMouse@@@Z
	DD	FLAT:?iwm_vscroll@ioWnd@@UAEXKH@Z
	DD	FLAT:?iwm_wheel@ioWnd@@UAEXH@Z
	DD	FLAT:?iwm_show@ioWnd@@UAEXXZ
	DD	FLAT:?iwm_hide@ioWnd@@UAEXXZ
	DD	FLAT:?iwm_esc@ioWnd@@UAE_NXZ
	DD	FLAT:?iwm_spacebar@ioWnd@@UAE_NXZ
	DD	FLAT:?iwm_gototop@ioWnd@@UAEXXZ
	DD	FLAT:?iwm_dragenter@ioWnd@@UAE?AW4IWDropEffect@@PAVioDragItem@@ABVioMouse@@@Z
	DD	FLAT:?iwm_dragover@ioWnd@@UAE?AW4IWDropEffect@@PAVioDragItem@@ABVioMouse@@@Z
	DD	FLAT:?iwm_dragleave@ioWnd@@UAEXXZ
	DD	FLAT:?iwm_dropitem@ioWnd@@UAE_NPAVioDragItem@@ABVioMouse@@PAV1@@Z
	DD	FLAT:?iwm_dropdone@ioWnd@@UAEXPAVioDragItem@@PAV1@_N@Z
	DD	FLAT:?IsEXType@ioWnd@@UBE_NXZ
	DD	FLAT:?GetWndType@ioButton@@UBEKXZ
	DD	FLAT:?RenderWnd@ioWnd@@UAEXXZ
	DD	FLAT:?SetIDEX@ioWnd@@UAEXAAK_N@Z
	DD	FLAT:?ParseXML@ioWnd@@UAEXAAVioXMLElement@@@Z
	DD	FLAT:?GetHeaderFileName@ioButton@@UAEPBDXZ
	DD	FLAT:?GetTemplateName@ioButton@@UAEPBDXZ
	DD	FLAT:?GetDefClassName@ioButton@@UBEPBDXZ
	DD	FLAT:?_Clone@ioButton@@UAEPAVioWnd@@XZ
	DD	FLAT:?Copy@ioButton@@UAEXPAVioWnd@@@Z
	DD	FLAT:?Save@ioWnd@@UAE_NAAVioXMLElement@@@Z
	DD	FLAT:?SetSaveData@ioButton@@UAEXAAVioXMLElement@@@Z
	DD	FLAT:?SetPosX@ioWnd@@UAEXH@Z
	DD	FLAT:?SetPosY@ioWnd@@UAEXH@Z
	DD	FLAT:?SetWidth@ioWnd@@UAEXH@Z
	DD	FLAT:?SetHeight@ioWnd@@UAEXH@Z
	DD	FLAT:?GetNumFixedRenderFrame@ioButton@@UBEHXZ
	DD	FLAT:?GetFixedRenderFrameType@ioButton@@UAEPBDH@Z
	DD	FLAT:?GetRenderFrame@ioButton@@UAEPAPAVioUIRenderElement@@PBD@Z
	DD	FLAT:?GetNumFixedRenderImage@ioButton@@UBEHXZ
	DD	FLAT:?GetFixedRenderImageType@ioButton@@UAEPBDH@Z
	DD	FLAT:?GetRenderImage@ioButton@@UAEPAPAVioUIRenderElement@@PBD@Z
	DD	FLAT:?AddEffect@ioWnd@@UAEXABVioHashString@@PAVioUI3DEffectRender@@@Z
	DD	FLAT:?GetEffect@ioWnd@@UAEPAVioUI3DEffectRender@@VioHashString@@@Z
	DD	FLAT:??_EPetIconBtn@@UAEPAXI@Z
	DD	FLAT:?OnDrawNormal@PetIconBtn@@MAEXHH@Z
	DD	FLAT:?OnDrawOvered@PetIconBtn@@MAEXHH@Z
	DD	FLAT:?OnDrawOveredAdd@ioButton@@MAEXHH@Z
	DD	FLAT:?OnDrawPushed@PetIconBtn@@MAEXHH@Z
	DD	FLAT:?OnDrawDisabled@ioButton@@MAEXHH@Z
	DD	FLAT:?OnDrawExDisabledNormal@ioButton@@MAEXHH@Z
	DD	FLAT:?OnDrawExDisabledOvered@ioButton@@MAEXHH@Z
	DD	FLAT:?OnDrawExDisabledPushed@ioButton@@MAEXHH@Z
	DD	FLAT:?OnDrawBack@ioButton@@MAEXHH@Z
	DD	FLAT:?OnDrawNormalList@ioButton@@MAEXHH@Z
	DD	FLAT:?OnDrawDisableList@ioButton@@MAEXHH@Z
CONST	ENDS
;	COMDAT xdata$x
xdata$x	SEGMENT
__unwindtable$??1PetIconBtn@@UAE@XZ DD 0ffffffffH
	DD	FLAT:__unwindfunclet$??1PetIconBtn@@UAE@XZ$0
	DD	00H
	DD	FLAT:__unwindfunclet$??1PetIconBtn@@UAE@XZ$1
__ehfuncinfo$??1PetIconBtn@@UAE@XZ DD 019930522H
	DD	02H
	DD	FLAT:__unwindtable$??1PetIconBtn@@UAE@XZ
	DD	2 DUP(00H)
	DD	2 DUP(00H)
	DD	00H
	DD	01H
; Function compile flags: /Ogsp
xdata$x	ENDS
;	COMDAT ??1PetIconBtn@@UAE@XZ
_TEXT	SEGMENT
_this$ = -16						; size = 4
__$EHRec$ = -12						; size = 12
??1PetIconBtn@@UAE@XZ PROC				; PetIconBtn::~PetIconBtn, COMDAT
; _this$ = ecx

; 46   : {

  00000	6a 04		 push	 4
  00002	b8 00 00 00 00	 mov	 eax, __ehhandler$??1PetIconBtn@@UAE@XZ
  00007	e8 00 00 00 00	 call	 __EH_prolog3
  0000c	8b f1		 mov	 esi, ecx
  0000e	89 75 f0	 mov	 DWORD PTR _this$[ebp], esi
  00011	c7 06 00 00 00
	00		 mov	 DWORD PTR [esi], OFFSET ??_7PetIconBtn@@6B@

; 47   : 	SAFEDELETE( m_pEmpty );

  00017	8b 8e fc 01 00
	00		 mov	 ecx, DWORD PTR [esi+508]
  0001d	33 c0		 xor	 eax, eax
  0001f	40		 inc	 eax
  00020	33 db		 xor	 ebx, ebx
  00022	89 45 fc	 mov	 DWORD PTR __$EHRec$[ebp+8], eax
  00025	3b cb		 cmp	 ecx, ebx
  00027	74 0c		 je	 SHORT $LN9@PetIconBtn
  00029	8b 11		 mov	 edx, DWORD PTR [ecx]
  0002b	50		 push	 eax
  0002c	ff 52 40	 call	 DWORD PTR [edx+64]
  0002f	89 9e fc 01 00
	00		 mov	 DWORD PTR [esi+508], ebx
$LN9@PetIconBtn:

; 48   : 	SAFEDELETE( m_pIcon );

  00035	8b 8e 00 02 00
	00		 mov	 ecx, DWORD PTR [esi+512]
  0003b	3b cb		 cmp	 ecx, ebx
  0003d	74 0d		 je	 SHORT $LN8@PetIconBtn
  0003f	8b 01		 mov	 eax, DWORD PTR [ecx]
  00041	6a 01		 push	 1
  00043	ff 50 40	 call	 DWORD PTR [eax+64]
  00046	89 9e 00 02 00
	00		 mov	 DWORD PTR [esi+512], ebx
$LN8@PetIconBtn:

; 49   : 	SAFEDELETE( m_pIconBack );

  0004c	8b 8e 04 02 00
	00		 mov	 ecx, DWORD PTR [esi+516]
  00052	3b cb		 cmp	 ecx, ebx
  00054	74 0d		 je	 SHORT $LN7@PetIconBtn
  00056	8b 01		 mov	 eax, DWORD PTR [ecx]
  00058	6a 01		 push	 1
  0005a	ff 50 40	 call	 DWORD PTR [eax+64]
  0005d	89 9e 04 02 00
	00		 mov	 DWORD PTR [esi+516], ebx
$LN7@PetIconBtn:

; 50   : 	SAFEDELETE( m_pBaseFrm );

  00063	8b 8e 10 02 00
	00		 mov	 ecx, DWORD PTR [esi+528]
  00069	3b cb		 cmp	 ecx, ebx
  0006b	74 0d		 je	 SHORT $LN6@PetIconBtn
  0006d	8b 01		 mov	 eax, DWORD PTR [ecx]
  0006f	6a 01		 push	 1
  00071	ff 50 40	 call	 DWORD PTR [eax+64]
  00074	89 9e 10 02 00
	00		 mov	 DWORD PTR [esi+528], ebx
$LN6@PetIconBtn:

; 51   : 	SAFEDELETE( m_pSelectFrm );

  0007a	8b 8e 18 02 00
	00		 mov	 ecx, DWORD PTR [esi+536]
  00080	3b cb		 cmp	 ecx, ebx
  00082	74 0d		 je	 SHORT $LN5@PetIconBtn
  00084	8b 01		 mov	 eax, DWORD PTR [ecx]
  00086	6a 01		 push	 1
  00088	ff 50 40	 call	 DWORD PTR [eax+64]
  0008b	89 9e 18 02 00
	00		 mov	 DWORD PTR [esi+536], ebx
$LN5@PetIconBtn:

; 52   : 	SAFEDELETE( m_pEquipFrm );

  00091	8b 8e 1c 02 00
	00		 mov	 ecx, DWORD PTR [esi+540]
  00097	3b cb		 cmp	 ecx, ebx
  00099	74 0d		 je	 SHORT $LN4@PetIconBtn
  0009b	8b 01		 mov	 eax, DWORD PTR [ecx]
  0009d	6a 01		 push	 1
  0009f	ff 50 40	 call	 DWORD PTR [eax+64]
  000a2	89 9e 1c 02 00
	00		 mov	 DWORD PTR [esi+540], ebx
$LN4@PetIconBtn:

; 53   : 	SAFEDELETE( m_pEmptyFrm );

  000a8	8b 8e 14 02 00
	00		 mov	 ecx, DWORD PTR [esi+532]
  000ae	3b cb		 cmp	 ecx, ebx
  000b0	74 0d		 je	 SHORT $LN3@PetIconBtn
  000b2	8b 01		 mov	 eax, DWORD PTR [ecx]
  000b4	6a 01		 push	 1
  000b6	ff 50 40	 call	 DWORD PTR [eax+64]
  000b9	89 9e 14 02 00
	00		 mov	 DWORD PTR [esi+532], ebx
$LN3@PetIconBtn:

; 54   : 	SAFEDELETE( m_pRankImg );

  000bf	8b 8e 0c 02 00
	00		 mov	 ecx, DWORD PTR [esi+524]
  000c5	3b cb		 cmp	 ecx, ebx
  000c7	74 0d		 je	 SHORT $LN2@PetIconBtn
  000c9	8b 01		 mov	 eax, DWORD PTR [ecx]
  000cb	6a 01		 push	 1
  000cd	ff 50 40	 call	 DWORD PTR [eax+64]
  000d0	89 9e 0c 02 00
	00		 mov	 DWORD PTR [esi+524], ebx
$LN2@PetIconBtn:

; 55   : 	SAFEDELETE( m_pEquipText );

  000d6	8b 8e 08 02 00
	00		 mov	 ecx, DWORD PTR [esi+520]
  000dc	3b cb		 cmp	 ecx, ebx
  000de	74 0d		 je	 SHORT $LN1@PetIconBtn
  000e0	8b 01		 mov	 eax, DWORD PTR [ecx]
  000e2	6a 01		 push	 1
  000e4	ff 50 40	 call	 DWORD PTR [eax+64]
  000e7	89 9e 08 02 00
	00		 mov	 DWORD PTR [esi+520], ebx
$LN1@PetIconBtn:

; 56   : }

  000ed	8d 8e 44 02 00
	00		 lea	 ecx, DWORD PTR [esi+580]
  000f3	88 5d fc	 mov	 BYTE PTR __$EHRec$[ebp+8], bl
  000f6	ff 15 00 00 00
	00		 call	 DWORD PTR __imp_??1ioHashString@@QAE@XZ
  000fc	83 4d fc ff	 or	 DWORD PTR __$EHRec$[ebp+8], -1
  00100	8b ce		 mov	 ecx, esi
  00102	ff 15 00 00 00
	00		 call	 DWORD PTR __imp_??1ioButton@@UAE@XZ
  00108	e8 00 00 00 00	 call	 __EH_epilog3
  0010d	c3		 ret	 0
_TEXT	ENDS
;	COMDAT text$x
text$x	SEGMENT
__unwindfunclet$??1PetIconBtn@@UAE@XZ$0:
  00000	8b 4d f0	 mov	 ecx, DWORD PTR _this$[ebp]
  00003	ff 25 00 00 00
	00		 jmp	 DWORD PTR __imp_??1ioButton@@UAE@XZ
__unwindfunclet$??1PetIconBtn@@UAE@XZ$1:
  00009	8b 4d f0	 mov	 ecx, DWORD PTR _this$[ebp]
  0000c	81 c1 44 02 00
	00		 add	 ecx, 580		; 00000244H
  00012	ff 25 00 00 00
	00		 jmp	 DWORD PTR __imp_??1ioHashString@@QAE@XZ
__ehhandler$??1PetIconBtn@@UAE@XZ:
  00018	8b 54 24 08	 mov	 edx, DWORD PTR [esp+8]
  0001c	8d 42 0c	 lea	 eax, DWORD PTR [edx+12]
  0001f	8b 4a ec	 mov	 ecx, DWORD PTR [edx-20]
  00022	33 c8		 xor	 ecx, eax
  00024	e8 00 00 00 00	 call	 @__security_check_cookie@4
  00029	b8 00 00 00 00	 mov	 eax, OFFSET __ehfuncinfo$??1PetIconBtn@@UAE@XZ
  0002e	e9 00 00 00 00	 jmp	 ___CxxFrameHandler3
text$x	ENDS
??1PetIconBtn@@UAE@XZ ENDP				; PetIconBtn::~PetIconBtn
PUBLIC	?return1@@YAIXZ					; return1
; Function compile flags: /Ogsp
; File d:\lost saga for developer\youtube\tutorial\source\src\lsclient\stdafx.h
;	COMDAT ?return1@@YAIXZ
_TEXT	SEGMENT
?return1@@YAIXZ PROC					; return1, COMDAT

; 17   : 	__forceinline unsigned int return1() { __asm mov eax, 1 };

  00000	b8 01 00 00 00	 mov	 eax, 1
  00005	c3		 ret	 0
?return1@@YAIXZ ENDP					; return1
_TEXT	ENDS
PUBLIC	?return8@@YAIXZ					; return8
; Function compile flags: /Ogsp
;	COMDAT ?return8@@YAIXZ
_TEXT	SEGMENT
?return8@@YAIXZ PROC					; return8, COMDAT

; 19   : 	__forceinline unsigned int return8() { __asm mov eax, 8 };

  00000	b8 08 00 00 00	 mov	 eax, 8
  00005	c3		 ret	 0
?return8@@YAIXZ ENDP					; return8
_TEXT	ENDS
PUBLIC	?return10@@YAIXZ				; return10
; Function compile flags: /Ogsp
;	COMDAT ?return10@@YAIXZ
_TEXT	SEGMENT
?return10@@YAIXZ PROC					; return10, COMDAT

; 21   : 	__forceinline unsigned int return10() { __asm mov eax, 10 };

  00000	b8 0a 00 00 00	 mov	 eax, 10			; 0000000aH
  00005	c3		 ret	 0
?return10@@YAIXZ ENDP					; return10
_TEXT	ENDS
PUBLIC	?return100@@YAIXZ				; return100
; Function compile flags: /Ogsp
;	COMDAT ?return100@@YAIXZ
_TEXT	SEGMENT
?return100@@YAIXZ PROC					; return100, COMDAT

; 25   : 	__forceinline unsigned int return100() { __asm mov eax, 100 };

  00000	b8 64 00 00 00	 mov	 eax, 100		; 00000064H
  00005	c3		 ret	 0
?return100@@YAIXZ ENDP					; return100
_TEXT	ENDS
PUBLIC	?RenderBase@PetIconBtn@@IAEXHH@Z		; PetIconBtn::RenderBase
EXTRN	__fltused:DWORD
; Function compile flags: /Ogsp
; File d:\lost saga for developer\youtube\tutorial\source\src\lsclient\gui\peticonbtn.cpp
;	COMDAT ?RenderBase@PetIconBtn@@IAEXHH@Z
_TEXT	SEGMENT
_nXPos$ = 8						; size = 4
_nYPos$ = 12						; size = 4
?RenderBase@PetIconBtn@@IAEXHH@Z PROC			; PetIconBtn::RenderBase, COMDAT
; _this$ = ecx

; 224  : {

  00000	55		 push	 ebp
  00001	8b ec		 mov	 ebp, esp

; 225  : 	if( m_pBaseFrm )

  00003	8d 81 10 02 00
	00		 lea	 eax, DWORD PTR [ecx+528]
  00009	33 c9		 xor	 ecx, ecx
  0000b	39 08		 cmp	 DWORD PTR [eax], ecx
  0000d	74 29		 je	 SHORT $LN1@RenderBase

; 226  : 		m_pBaseFrm->Render( nXPos, nYPos );	

  0000f	66 0f 6e 45 0c	 movd	 xmm0, DWORD PTR _nYPos$[ebp]
  00014	8b 00		 mov	 eax, DWORD PTR [eax]
  00016	8b 10		 mov	 edx, DWORD PTR [eax]
  00018	51		 push	 ecx
  00019	51		 push	 ecx
  0001a	51		 push	 ecx
  0001b	51		 push	 ecx
  0001c	51		 push	 ecx
  0001d	51		 push	 ecx
  0001e	0f 5b c0	 cvtdq2ps xmm0, xmm0
  00021	f3 0f 11 44 24
	04		 movss	 DWORD PTR [esp+4], xmm0
  00027	66 0f 6e 45 08	 movd	 xmm0, DWORD PTR _nXPos$[ebp]
  0002c	0f 5b c0	 cvtdq2ps xmm0, xmm0
  0002f	8b c8		 mov	 ecx, eax
  00031	f3 0f 11 04 24	 movss	 DWORD PTR [esp], xmm0
  00036	ff 12		 call	 DWORD PTR [edx]
$LN1@RenderBase:

; 227  : }

  00038	5d		 pop	 ebp
  00039	c2 08 00	 ret	 8
?RenderBase@PetIconBtn@@IAEXHH@Z ENDP			; PetIconBtn::RenderBase
_TEXT	ENDS
PUBLIC	?RenderEquip@PetIconBtn@@IAEXHH@Z		; PetIconBtn::RenderEquip
; Function compile flags: /Ogsp
;	COMDAT ?RenderEquip@PetIconBtn@@IAEXHH@Z
_TEXT	SEGMENT
_nXPos$ = 8						; size = 4
_nYPos$ = 12						; size = 4
?RenderEquip@PetIconBtn@@IAEXHH@Z PROC			; PetIconBtn::RenderEquip, COMDAT
; _this$ = ecx

; 230  : {

  00000	55		 push	 ebp
  00001	8b ec		 mov	 ebp, esp

; 231  : 	if( !m_bEquip )

  00003	33 d2		 xor	 edx, edx
  00005	38 91 56 02 00
	00		 cmp	 BYTE PTR [ecx+598], dl
  0000b	74 37		 je	 SHORT $LN1@RenderEqui

; 232  : 		return;
; 233  : 
; 234  : 	if( m_pEquipFrm )

  0000d	39 91 1c 02 00
	00		 cmp	 DWORD PTR [ecx+540], edx
  00013	74 2f		 je	 SHORT $LN1@RenderEqui

; 235  : 		m_pEquipFrm->Render( nXPos, nYPos );

  00015	66 0f 6e 45 0c	 movd	 xmm0, DWORD PTR _nYPos$[ebp]
  0001a	8b 81 1c 02 00
	00		 mov	 eax, DWORD PTR [ecx+540]
  00020	56		 push	 esi
  00021	8b 30		 mov	 esi, DWORD PTR [eax]
  00023	52		 push	 edx
  00024	52		 push	 edx
  00025	52		 push	 edx
  00026	52		 push	 edx
  00027	51		 push	 ecx
  00028	51		 push	 ecx
  00029	0f 5b c0	 cvtdq2ps xmm0, xmm0
  0002c	f3 0f 11 44 24
	04		 movss	 DWORD PTR [esp+4], xmm0
  00032	66 0f 6e 45 08	 movd	 xmm0, DWORD PTR _nXPos$[ebp]
  00037	0f 5b c0	 cvtdq2ps xmm0, xmm0
  0003a	8b c8		 mov	 ecx, eax
  0003c	f3 0f 11 04 24	 movss	 DWORD PTR [esp], xmm0
  00041	ff 16		 call	 DWORD PTR [esi]
  00043	5e		 pop	 esi
$LN1@RenderEqui:

; 236  : }

  00044	5d		 pop	 ebp
  00045	c2 08 00	 ret	 8
?RenderEquip@PetIconBtn@@IAEXHH@Z ENDP			; PetIconBtn::RenderEquip
_TEXT	ENDS
PUBLIC	?RenderSelect@PetIconBtn@@IAEXHH@Z		; PetIconBtn::RenderSelect
; Function compile flags: /Ogsp
;	COMDAT ?RenderSelect@PetIconBtn@@IAEXHH@Z
_TEXT	SEGMENT
_nXPos$ = 8						; size = 4
_nYPos$ = 12						; size = 4
?RenderSelect@PetIconBtn@@IAEXHH@Z PROC			; PetIconBtn::RenderSelect, COMDAT
; _this$ = ecx

; 239  : {

  00000	55		 push	 ebp
  00001	8b ec		 mov	 ebp, esp

; 240  : 	if( !m_bSelect )

  00003	33 d2		 xor	 edx, edx
  00005	38 91 55 02 00
	00		 cmp	 BYTE PTR [ecx+597], dl
  0000b	74 37		 je	 SHORT $LN1@RenderSele

; 241  : 		return;
; 242  : 
; 243  : 	if( m_pSelectFrm )

  0000d	39 91 18 02 00
	00		 cmp	 DWORD PTR [ecx+536], edx
  00013	74 2f		 je	 SHORT $LN1@RenderSele

; 244  : 		m_pSelectFrm->Render( nXPos, nYPos );	

  00015	66 0f 6e 45 0c	 movd	 xmm0, DWORD PTR _nYPos$[ebp]
  0001a	8b 81 18 02 00
	00		 mov	 eax, DWORD PTR [ecx+536]
  00020	56		 push	 esi
  00021	8b 30		 mov	 esi, DWORD PTR [eax]
  00023	52		 push	 edx
  00024	52		 push	 edx
  00025	52		 push	 edx
  00026	52		 push	 edx
  00027	51		 push	 ecx
  00028	51		 push	 ecx
  00029	0f 5b c0	 cvtdq2ps xmm0, xmm0
  0002c	f3 0f 11 44 24
	04		 movss	 DWORD PTR [esp+4], xmm0
  00032	66 0f 6e 45 08	 movd	 xmm0, DWORD PTR _nXPos$[ebp]
  00037	0f 5b c0	 cvtdq2ps xmm0, xmm0
  0003a	8b c8		 mov	 ecx, eax
  0003c	f3 0f 11 04 24	 movss	 DWORD PTR [esp], xmm0
  00041	ff 16		 call	 DWORD PTR [esi]
  00043	5e		 pop	 esi
$LN1@RenderSele:

; 245  : }

  00044	5d		 pop	 ebp
  00045	c2 08 00	 ret	 8
?RenderSelect@PetIconBtn@@IAEXHH@Z ENDP			; PetIconBtn::RenderSelect
_TEXT	ENDS
PUBLIC	__real@4f800000
PUBLIC	?RenderBack@PetIconBtn@@IAEXHH@Z		; PetIconBtn::RenderBack
EXTRN	__imp_?GetWidth@ioWnd@@QBEHXZ:PROC
;	COMDAT __real@4f800000
; File d:\lost saga for developer\youtube\tutorial\source\src\lsclient\stdafx.h
CONST	SEGMENT
__real@4f800000 DD 04f800000r			; 4.29497e+009
; Function compile flags: /Ogsp
; File d:\lost saga for developer\youtube\tutorial\source\src\lsclient\gui\peticonbtn.cpp
CONST	ENDS
;	COMDAT ?RenderBack@PetIconBtn@@IAEXHH@Z
_TEXT	SEGMENT
_nNewYPos$ = 8						; size = 4
_nXPos$ = 8						; size = 4
tv212 = 12						; size = 4
_nYPos$ = 12						; size = 4
?RenderBack@PetIconBtn@@IAEXHH@Z PROC			; PetIconBtn::RenderBack, COMDAT
; _this$ = ecx

; 248  : {

  00000	55		 push	 ebp
  00001	8b ec		 mov	 ebp, esp
  00003	56		 push	 esi
  00004	57		 push	 edi
  00005	8b f1		 mov	 esi, ecx

; 249  : 	enum 
; 250  : 	{
; 251  : 		Y_OFFSET   = 37,
; 252  : 	};
; 253  : 
; 254  : 	int nNewXPos = nXPos + GetWidth() / 2;

  00007	ff 15 00 00 00
	00		 call	 DWORD PTR __imp_?GetWidth@ioWnd@@QBEHXZ
  0000d	99		 cdq
  0000e	2b c2		 sub	 eax, edx
  00010	8b f8		 mov	 edi, eax

; 255  : 	int nNewYPos = nYPos + Y_OFFSET;

  00012	8b 45 0c	 mov	 eax, DWORD PTR _nYPos$[ebp]
  00015	d1 ff		 sar	 edi, 1
  00017	03 7d 08	 add	 edi, DWORD PTR _nXPos$[ebp]
  0001a	83 c0 25	 add	 eax, 37			; 00000025H

; 256  : 
; 257  : 	// Icon
; 258  : 	if( m_pIconBack )

  0001d	83 be 04 02 00
	00 00		 cmp	 DWORD PTR [esi+516], 0
  00024	89 45 08	 mov	 DWORD PTR _nNewYPos$[ebp], eax
  00027	0f 84 95 00 00
	00		 je	 $LN1@RenderBack

; 259  : 	{
; 260  : 		m_pIconBack->SetScale( m_fBackScale );

  0002d	8b 8e 04 02 00
	00		 mov	 ecx, DWORD PTR [esi+516]
  00033	f3 0f 10 86 24
	02 00 00	 movss	 xmm0, DWORD PTR [esi+548]
  0003b	8b 01		 mov	 eax, DWORD PTR [ecx]
  0003d	53		 push	 ebx
  0003e	51		 push	 ecx
  0003f	f3 0f 11 04 24	 movss	 DWORD PTR [esp], xmm0
  00044	ff 50 1c	 call	 DWORD PTR [eax+28]

; 261  : 
; 262  : 		if( m_fBackScale != FLOAT1 )

  00047	b8 01 00 00 00	 mov	 eax, 1
  0004c	d9 86 24 02 00
	00		 fld	 DWORD PTR [esi+548]
  00052	89 45 0c	 mov	 DWORD PTR tv212[ebp], eax
  00055	db 45 0c	 fild	 DWORD PTR tv212[ebp]
  00058	85 c0		 test	 eax, eax
  0005a	79 06		 jns	 SHORT $LN8@RenderBack
  0005c	d8 05 00 00 00
	00		 fadd	 DWORD PTR __real@4f800000
$LN8@RenderBack:

; 263  : 			m_pIconBack->Render( nNewXPos, nNewYPos, UI_RENDER_MULTIPLY, TFO_BILINEAR );

  00062	66 0f 6e 45 08	 movd	 xmm0, DWORD PTR _nNewYPos$[ebp]
  00067	d9 c9		 fxch	 ST(1)
  00069	8b b6 04 02 00
	00		 mov	 esi, DWORD PTR [esi+516]
  0006f	df e9		 fucomip ST(1)
  00071	dd d8		 fstp	 ST(0)
  00073	9f		 lahf
  00074	5b		 pop	 ebx
  00075	0f 5b c0	 cvtdq2ps xmm0, xmm0
  00078	f6 c4 44	 test	 ah, 68			; 00000044H
  0007b	7b 24		 jnp	 SHORT $LN2@RenderBack
  0007d	8b 06		 mov	 eax, DWORD PTR [esi]
  0007f	6a 00		 push	 0
  00081	6a 00		 push	 0
  00083	6a 01		 push	 1
  00085	6a 08		 push	 8
  00087	51		 push	 ecx
  00088	51		 push	 ecx
  00089	f3 0f 11 44 24
	04		 movss	 DWORD PTR [esp+4], xmm0
  0008f	0f 57 c0	 xorps	 xmm0, xmm0
  00092	f3 0f 2a c7	 cvtsi2ss xmm0, edi
  00096	8b ce		 mov	 ecx, esi
  00098	f3 0f 11 04 24	 movss	 DWORD PTR [esp], xmm0
  0009d	ff 10		 call	 DWORD PTR [eax]

; 264  : 		else

  0009f	eb 21		 jmp	 SHORT $LN1@RenderBack
$LN2@RenderBack:

; 265  : 			m_pIconBack->Render( nNewXPos, nNewYPos, UI_RENDER_MULTIPLY );

  000a1	8b 16		 mov	 edx, DWORD PTR [esi]
  000a3	33 c0		 xor	 eax, eax
  000a5	50		 push	 eax
  000a6	50		 push	 eax
  000a7	50		 push	 eax
  000a8	6a 08		 push	 8
  000aa	51		 push	 ecx
  000ab	51		 push	 ecx
  000ac	f3 0f 11 44 24
	04		 movss	 DWORD PTR [esp+4], xmm0
  000b2	0f 57 c0	 xorps	 xmm0, xmm0
  000b5	f3 0f 2a c7	 cvtsi2ss xmm0, edi
  000b9	8b ce		 mov	 ecx, esi
  000bb	f3 0f 11 04 24	 movss	 DWORD PTR [esp], xmm0
  000c0	ff 12		 call	 DWORD PTR [edx]
$LN1@RenderBack:
  000c2	5f		 pop	 edi
  000c3	5e		 pop	 esi

; 266  : 	}
; 267  : }

  000c4	5d		 pop	 ebp
  000c5	c2 08 00	 ret	 8
?RenderBack@PetIconBtn@@IAEXHH@Z ENDP			; PetIconBtn::RenderBack
_TEXT	ENDS
PUBLIC	?RenderIcon@PetIconBtn@@IAEXHH@Z		; PetIconBtn::RenderIcon
; Function compile flags: /Ogsp
;	COMDAT ?RenderIcon@PetIconBtn@@IAEXHH@Z
_TEXT	SEGMENT
_nXPos$ = 8						; size = 4
_nYPos$ = 12						; size = 4
?RenderIcon@PetIconBtn@@IAEXHH@Z PROC			; PetIconBtn::RenderIcon, COMDAT
; _this$ = ecx

; 270  : {

  00000	55		 push	 ebp
  00001	8b ec		 mov	 ebp, esp
  00003	56		 push	 esi
  00004	57		 push	 edi
  00005	8b f1		 mov	 esi, ecx

; 271  : 	enum 
; 272  : 	{
; 273  : 		Y_OFFSET   = 37,
; 274  : 	};
; 275  : 
; 276  : 	int nNewXPos = nXPos + GetWidth() / 2;

  00007	ff 15 00 00 00
	00		 call	 DWORD PTR __imp_?GetWidth@ioWnd@@QBEHXZ
  0000d	99		 cdq
  0000e	2b c2		 sub	 eax, edx
  00010	8b f8		 mov	 edi, eax
  00012	d1 ff		 sar	 edi, 1
  00014	03 7d 08	 add	 edi, DWORD PTR _nXPos$[ebp]

; 277  : 	int nNewYPos = nYPos + Y_OFFSET;
; 278  : 
; 279  : 	if( m_pIcon )

  00017	83 be 00 02 00
	00 00		 cmp	 DWORD PTR [esi+512], 0
  0001e	74 4c		 je	 SHORT $LN1@RenderIcon

; 280  : 	{
; 281  : 		m_pIcon->SetScale( m_fScale );

  00020	8b 8e 00 02 00
	00		 mov	 ecx, DWORD PTR [esi+512]
  00026	f3 0f 10 86 20
	02 00 00	 movss	 xmm0, DWORD PTR [esi+544]
  0002e	8b 01		 mov	 eax, DWORD PTR [ecx]
  00030	51		 push	 ecx
  00031	f3 0f 11 04 24	 movss	 DWORD PTR [esp], xmm0
  00036	ff 50 1c	 call	 DWORD PTR [eax+28]

; 282  : 		m_pIcon->Render( nNewXPos, nNewYPos, UI_RENDER_NORMAL, TFO_BILINEAR );

  00039	8b 8e 00 02 00
	00		 mov	 ecx, DWORD PTR [esi+512]
  0003f	8b 55 0c	 mov	 edx, DWORD PTR _nYPos$[ebp]
  00042	8b 01		 mov	 eax, DWORD PTR [ecx]
  00044	6a 00		 push	 0
  00046	6a 00		 push	 0
  00048	6a 01		 push	 1
  0004a	6a 00		 push	 0
  0004c	0f 57 c0	 xorps	 xmm0, xmm0
  0004f	51		 push	 ecx
  00050	83 c2 25	 add	 edx, 37			; 00000025H
  00053	f3 0f 2a c2	 cvtsi2ss xmm0, edx
  00057	51		 push	 ecx
  00058	f3 0f 11 44 24
	04		 movss	 DWORD PTR [esp+4], xmm0
  0005e	0f 57 c0	 xorps	 xmm0, xmm0
  00061	f3 0f 2a c7	 cvtsi2ss xmm0, edi
  00065	f3 0f 11 04 24	 movss	 DWORD PTR [esp], xmm0
  0006a	ff 10		 call	 DWORD PTR [eax]
$LN1@RenderIcon:
  0006c	5f		 pop	 edi
  0006d	5e		 pop	 esi

; 283  : 	}
; 284  : }

  0006e	5d		 pop	 ebp
  0006f	c2 08 00	 ret	 8
?RenderIcon@PetIconBtn@@IAEXHH@Z ENDP			; PetIconBtn::RenderIcon
_TEXT	ENDS
PUBLIC	__real@3f0ccccd
PUBLIC	__real@3f000000
PUBLIC	??_C@_0BH@MMHEIKMC@PetIconBtn?3?3RenderDesc?$AA@ ; `string'
PUBLIC	??_C@_00CNPNBAHC@?$AA@				; `string'
PUBLIC	?RenderDesc@PetIconBtn@@IAEXHH@Z		; PetIconBtn::RenderDesc
EXTRN	??1ioComplexStringPrinter@@QAE@XZ:PROC		; ioComplexStringPrinter::~ioComplexStringPrinter
EXTRN	?AddTextPiece@ioComplexStringPrinter@@QAEXMPBD0@Z:PROC ; ioComplexStringPrinter::AddTextPiece
EXTRN	__imp_?c_str@ioHashString@@QBEPBDXZ:PROC
EXTRN	?ClearList@ioComplexStringPrinter@@QAEXXZ:PROC	; ioComplexStringPrinter::ClearList
EXTRN	?PrintFullText@ioComplexStringPrinter@@QAEXMMW4TextAlignType@@E@Z:PROC ; ioComplexStringPrinter::PrintFullText
EXTRN	?AddTextPiece@ioComplexStringPrinter@@QAEXMPBDH@Z:PROC ; ioComplexStringPrinter::AddTextPiece
EXTRN	?AddTextPiece@ioComplexStringPrinter@@QAEXMPBDHH@Z:PROC ; ioComplexStringPrinter::AddTextPiece
EXTRN	__imp_?GetString@ioStringManager@@QAEPADPBD0HW4FileNamePrefix@1@@Z:PROC
EXTRN	__imp_?GetSingleton@ioStringManager@@SAAAV1@XZ:PROC
EXTRN	?SetTextColor@ioComplexStringPrinter@@QAEXK@Z:PROC ; ioComplexStringPrinter::SetTextColor
EXTRN	?SetBkColor@ioComplexStringPrinter@@QAEXHHH@Z:PROC ; ioComplexStringPrinter::SetBkColor
EXTRN	?SetTextStyle@ioComplexStringPrinter@@QAEXW4TextStyle@@@Z:PROC ; ioComplexStringPrinter::SetTextStyle
EXTRN	??0ioComplexStringPrinter@@QAE@XZ:PROC		; ioComplexStringPrinter::ioComplexStringPrinter
EXTRN	__imp_?IsEmpty@ioHashString@@QBE_NXZ:PROC
;	COMDAT __real@3f0ccccd
CONST	SEGMENT
__real@3f0ccccd DD 03f0ccccdr			; 0.55
CONST	ENDS
;	COMDAT __real@3f000000
CONST	SEGMENT
__real@3f000000 DD 03f000000r			; 0.5
CONST	ENDS
;	COMDAT ??_C@_0BH@MMHEIKMC@PetIconBtn?3?3RenderDesc?$AA@
CONST	SEGMENT
??_C@_0BH@MMHEIKMC@PetIconBtn?3?3RenderDesc?$AA@ DB 'PetIconBtn::RenderDe'
	DB	'sc', 00H					; `string'
CONST	ENDS
;	COMDAT ??_C@_00CNPNBAHC@?$AA@
CONST	SEGMENT
??_C@_00CNPNBAHC@?$AA@ DB 00H				; `string'
CONST	ENDS
;	COMDAT xdata$x
xdata$x	SEGMENT
__unwindtable$?RenderDesc@PetIconBtn@@IAEXHH@Z DD 0ffffffffH
	DD	FLAT:__unwindfunclet$?RenderDesc@PetIconBtn@@IAEXHH@Z$0
__ehfuncinfo$?RenderDesc@PetIconBtn@@IAEXHH@Z DD 019930522H
	DD	01H
	DD	FLAT:__unwindtable$?RenderDesc@PetIconBtn@@IAEXHH@Z
	DD	2 DUP(00H)
	DD	2 DUP(00H)
	DD	00H
	DD	01H
; Function compile flags: /Ogsp
xdata$x	ENDS
;	COMDAT ?RenderDesc@PetIconBtn@@IAEXHH@Z
_TEXT	SEGMENT
_kPrinter$ = -48					; size = 32
tv228 = -16						; size = 4
__$EHRec$ = -12						; size = 12
_nXPos$ = 8						; size = 4
_nYPos$ = 12						; size = 4
?RenderDesc@PetIconBtn@@IAEXHH@Z PROC			; PetIconBtn::RenderDesc, COMDAT
; _this$ = ecx

; 287  : {

  00000	6a 24		 push	 36			; 00000024H
  00002	b8 00 00 00 00	 mov	 eax, __ehhandler$?RenderDesc@PetIconBtn@@IAEXHH@Z
  00007	e8 00 00 00 00	 call	 __EH_prolog3
  0000c	8b f1		 mov	 esi, ecx

; 288  : 	enum
; 289  : 	{
; 290  : 		LV_OFFSET_X = 45,
; 291  : 		LV_OFFSET_Y = 69,
; 292  : 		
; 293  : 		RANK_OFFSET_X = 44,
; 294  : 		RANK_OFFSET_Y = 82,
; 295  : 	};
; 296  : 
; 297  : 	if ( !m_bDesc || m_szPetRank.IsEmpty() )

  0000e	80 be 54 02 00
	00 00		 cmp	 BYTE PTR [esi+596], 0
  00015	0f 84 9d 01 00
	00		 je	 $LN3@RenderDesc
  0001b	8d 8e 44 02 00
	00		 lea	 ecx, DWORD PTR [esi+580]
  00021	89 4d f0	 mov	 DWORD PTR tv228[ebp], ecx
  00024	ff 15 00 00 00
	00		 call	 DWORD PTR __imp_?IsEmpty@ioHashString@@QBE_NXZ
  0002a	84 c0		 test	 al, al
  0002c	0f 85 86 01 00
	00		 jne	 $LN3@RenderDesc

; 298  : 		return;
; 299  : 
; 300  : 	ioComplexStringPrinter kPrinter;

  00032	8d 4d d0	 lea	 ecx, DWORD PTR _kPrinter$[ebp]
  00035	e8 00 00 00 00	 call	 ??0ioComplexStringPrinter@@QAE@XZ ; ioComplexStringPrinter::ioComplexStringPrinter
  0003a	33 ff		 xor	 edi, edi

; 301  : 	kPrinter.SetTextStyle( TS_NORMAL );

  0003c	57		 push	 edi
  0003d	8d 4d d0	 lea	 ecx, DWORD PTR _kPrinter$[ebp]
  00040	89 7d fc	 mov	 DWORD PTR __$EHRec$[ebp+8], edi
  00043	e8 00 00 00 00	 call	 ?SetTextStyle@ioComplexStringPrinter@@QAEXW4TextStyle@@@Z ; ioComplexStringPrinter::SetTextStyle

; 302  : 	kPrinter.SetBkColor( 0, 0, 0 );

  00048	57		 push	 edi
  00049	57		 push	 edi
  0004a	57		 push	 edi
  0004b	8d 4d d0	 lea	 ecx, DWORD PTR _kPrinter$[ebp]
  0004e	e8 00 00 00 00	 call	 ?SetBkColor@ioComplexStringPrinter@@QAEXHHH@Z ; ioComplexStringPrinter::SetBkColor

; 303  : 
; 304  : 	//·¹º§
; 305  : 	if ( m_nPetLevel < m_nMaxLevel )

  00053	8b 86 2c 02 00
	00		 mov	 eax, DWORD PTR [esi+556]

; 306  : 	{
; 307  : 		kPrinter.SetTextColor( TCT_DEFAULT_DARKGRAY );		

  00059	68 3a 3a 3a ff	 push	 -12961222		; ff3a3a3aH
  0005e	8d 4d d0	 lea	 ecx, DWORD PTR _kPrinter$[ebp]
  00061	3b 86 3c 02 00
	00		 cmp	 eax, DWORD PTR [esi+572]
  00067	7d 49		 jge	 SHORT $LN2@RenderDesc
  00069	e8 00 00 00 00	 call	 ?SetTextColor@ioComplexStringPrinter@@QAEXK@Z ; ioComplexStringPrinter::SetTextColor

; 308  : 		kPrinter.AddTextPiece( FONT_SIZE_10, STR(1), m_nPetLevel, (int)m_fExpRate );

  0006e	f3 0f 2c 86 40
	02 00 00	 cvttss2si eax, DWORD PTR [esi+576]
  00076	50		 push	 eax
  00077	ff b6 2c 02 00
	00		 push	 DWORD PTR [esi+556]
  0007d	57		 push	 edi
  0007e	6a 01		 push	 1
  00080	68 00 00 00 00	 push	 OFFSET ??_C@_00CNPNBAHC@?$AA@
  00085	bf 00 00 00 00	 mov	 edi, OFFSET ??_C@_0BH@MMHEIKMC@PetIconBtn?3?3RenderDesc?$AA@
  0008a	57		 push	 edi
  0008b	ff 15 00 00 00
	00		 call	 DWORD PTR __imp_?GetSingleton@ioStringManager@@SAAAV1@XZ
  00091	8b c8		 mov	 ecx, eax
  00093	ff 15 00 00 00
	00		 call	 DWORD PTR __imp_?GetString@ioStringManager@@QAEPADPBD0HW4FileNamePrefix@1@@Z
  00099	f3 0f 10 05 00
	00 00 00	 movss	 xmm0, DWORD PTR __real@3f000000
  000a1	50		 push	 eax
  000a2	51		 push	 ecx
  000a3	8d 4d d0	 lea	 ecx, DWORD PTR _kPrinter$[ebp]
  000a6	f3 0f 11 04 24	 movss	 DWORD PTR [esp], xmm0
  000ab	e8 00 00 00 00	 call	 ?AddTextPiece@ioComplexStringPrinter@@QAEXMPBDHH@Z ; ioComplexStringPrinter::AddTextPiece

; 309  : 		kPrinter.PrintFullText( nXPos + LV_OFFSET_X, nYPos + LV_OFFSET_Y, TAT_CENTER );
; 310  : 		kPrinter.ClearList();
; 311  : 	}
; 312  : 	else

  000b0	eb 3e		 jmp	 SHORT $LN9@RenderDesc
$LN2@RenderDesc:

; 313  : 	{
; 314  : 		kPrinter.SetTextColor( TCT_DEFAULT_DARKGRAY ); 

  000b2	e8 00 00 00 00	 call	 ?SetTextColor@ioComplexStringPrinter@@QAEXK@Z ; ioComplexStringPrinter::SetTextColor

; 315  : 		kPrinter.AddTextPiece( FONT_SIZE_10, STR(2), m_nPetLevel );

  000b7	ff b6 2c 02 00
	00		 push	 DWORD PTR [esi+556]
  000bd	57		 push	 edi
  000be	6a 02		 push	 2
  000c0	68 00 00 00 00	 push	 OFFSET ??_C@_00CNPNBAHC@?$AA@
  000c5	bf 00 00 00 00	 mov	 edi, OFFSET ??_C@_0BH@MMHEIKMC@PetIconBtn?3?3RenderDesc?$AA@
  000ca	57		 push	 edi
  000cb	ff 15 00 00 00
	00		 call	 DWORD PTR __imp_?GetSingleton@ioStringManager@@SAAAV1@XZ
  000d1	8b c8		 mov	 ecx, eax
  000d3	ff 15 00 00 00
	00		 call	 DWORD PTR __imp_?GetString@ioStringManager@@QAEPADPBD0HW4FileNamePrefix@1@@Z
  000d9	f3 0f 10 05 00
	00 00 00	 movss	 xmm0, DWORD PTR __real@3f000000
  000e1	50		 push	 eax
  000e2	51		 push	 ecx
  000e3	8d 4d d0	 lea	 ecx, DWORD PTR _kPrinter$[ebp]
  000e6	f3 0f 11 04 24	 movss	 DWORD PTR [esp], xmm0
  000eb	e8 00 00 00 00	 call	 ?AddTextPiece@ioComplexStringPrinter@@QAEXMPBDH@Z ; ioComplexStringPrinter::AddTextPiece
$LN9@RenderDesc:

; 316  : 		kPrinter.PrintFullText( nXPos + LV_OFFSET_X, nYPos + LV_OFFSET_Y, TAT_CENTER );

  000f0	8b 45 0c	 mov	 eax, DWORD PTR _nYPos$[ebp]
  000f3	be ff 00 00 00	 mov	 esi, 255		; 000000ffH
  000f8	56		 push	 esi
  000f9	6a 01		 push	 1
  000fb	83 c0 45	 add	 eax, 69			; 00000045H
  000fe	0f 57 c0	 xorps	 xmm0, xmm0
  00101	f3 0f 2a c0	 cvtsi2ss xmm0, eax
  00105	8b 45 08	 mov	 eax, DWORD PTR _nXPos$[ebp]
  00108	51		 push	 ecx
  00109	51		 push	 ecx
  0010a	f3 0f 11 44 24
	04		 movss	 DWORD PTR [esp+4], xmm0
  00110	83 c0 2d	 add	 eax, 45			; 0000002dH
  00113	0f 57 c0	 xorps	 xmm0, xmm0
  00116	f3 0f 2a c0	 cvtsi2ss xmm0, eax
  0011a	8d 4d d0	 lea	 ecx, DWORD PTR _kPrinter$[ebp]
  0011d	f3 0f 11 04 24	 movss	 DWORD PTR [esp], xmm0
  00122	e8 00 00 00 00	 call	 ?PrintFullText@ioComplexStringPrinter@@QAEXMMW4TextAlignType@@E@Z ; ioComplexStringPrinter::PrintFullText

; 317  : 		kPrinter.ClearList();

  00127	8d 4d d0	 lea	 ecx, DWORD PTR _kPrinter$[ebp]
  0012a	e8 00 00 00 00	 call	 ?ClearList@ioComplexStringPrinter@@QAEXXZ ; ioComplexStringPrinter::ClearList

; 318  : 	}
; 319  : 
; 320  : 	kPrinter.SetTextColor( TCT_DEFAULT_WHITE );		

  0012f	6a ff		 push	 -1
  00131	8d 4d d0	 lea	 ecx, DWORD PTR _kPrinter$[ebp]
  00134	e8 00 00 00 00	 call	 ?SetTextColor@ioComplexStringPrinter@@QAEXK@Z ; ioComplexStringPrinter::SetTextColor

; 321  : 	kPrinter.AddTextPiece( FONT_SIZE_11, STR(3), m_szPetRank.c_str() );

  00139	8b 4d f0	 mov	 ecx, DWORD PTR tv228[ebp]
  0013c	ff 15 00 00 00
	00		 call	 DWORD PTR __imp_?c_str@ioHashString@@QBEPBDXZ
  00142	50		 push	 eax
  00143	6a 00		 push	 0
  00145	6a 03		 push	 3
  00147	68 00 00 00 00	 push	 OFFSET ??_C@_00CNPNBAHC@?$AA@
  0014c	57		 push	 edi
  0014d	ff 15 00 00 00
	00		 call	 DWORD PTR __imp_?GetSingleton@ioStringManager@@SAAAV1@XZ
  00153	8b c8		 mov	 ecx, eax
  00155	ff 15 00 00 00
	00		 call	 DWORD PTR __imp_?GetString@ioStringManager@@QAEPADPBD0HW4FileNamePrefix@1@@Z
  0015b	f3 0f 10 05 00
	00 00 00	 movss	 xmm0, DWORD PTR __real@3f0ccccd
  00163	50		 push	 eax
  00164	51		 push	 ecx
  00165	8d 4d d0	 lea	 ecx, DWORD PTR _kPrinter$[ebp]
  00168	f3 0f 11 04 24	 movss	 DWORD PTR [esp], xmm0
  0016d	e8 00 00 00 00	 call	 ?AddTextPiece@ioComplexStringPrinter@@QAEXMPBD0@Z ; ioComplexStringPrinter::AddTextPiece

; 322  : 	kPrinter.PrintFullText( nXPos + RANK_OFFSET_X, nYPos + RANK_OFFSET_Y, TAT_CENTER );

  00172	8b 45 0c	 mov	 eax, DWORD PTR _nYPos$[ebp]
  00175	56		 push	 esi
  00176	6a 01		 push	 1
  00178	83 c0 52	 add	 eax, 82			; 00000052H
  0017b	0f 57 c0	 xorps	 xmm0, xmm0
  0017e	f3 0f 2a c0	 cvtsi2ss xmm0, eax
  00182	8b 45 08	 mov	 eax, DWORD PTR _nXPos$[ebp]
  00185	51		 push	 ecx
  00186	51		 push	 ecx
  00187	f3 0f 11 44 24
	04		 movss	 DWORD PTR [esp+4], xmm0
  0018d	83 c0 2c	 add	 eax, 44			; 0000002cH
  00190	0f 57 c0	 xorps	 xmm0, xmm0
  00193	f3 0f 2a c0	 cvtsi2ss xmm0, eax
  00197	8d 4d d0	 lea	 ecx, DWORD PTR _kPrinter$[ebp]
  0019a	f3 0f 11 04 24	 movss	 DWORD PTR [esp], xmm0
  0019f	e8 00 00 00 00	 call	 ?PrintFullText@ioComplexStringPrinter@@QAEXMMW4TextAlignType@@E@Z ; ioComplexStringPrinter::PrintFullText

; 323  : 	kPrinter.ClearList();	

  001a4	8d 4d d0	 lea	 ecx, DWORD PTR _kPrinter$[ebp]
  001a7	e8 00 00 00 00	 call	 ?ClearList@ioComplexStringPrinter@@QAEXXZ ; ioComplexStringPrinter::ClearList

; 324  : }

  001ac	83 4d fc ff	 or	 DWORD PTR __$EHRec$[ebp+8], -1
  001b0	8d 4d d0	 lea	 ecx, DWORD PTR _kPrinter$[ebp]
  001b3	e8 00 00 00 00	 call	 ??1ioComplexStringPrinter@@QAE@XZ ; ioComplexStringPrinter::~ioComplexStringPrinter
$LN3@RenderDesc:
  001b8	e8 00 00 00 00	 call	 __EH_epilog3
  001bd	c2 08 00	 ret	 8
_TEXT	ENDS
;	COMDAT text$x
text$x	SEGMENT
__unwindfunclet$?RenderDesc@PetIconBtn@@IAEXHH@Z$0:
  00000	8d 4d d0	 lea	 ecx, DWORD PTR _kPrinter$[ebp]
  00003	e9 00 00 00 00	 jmp	 ??1ioComplexStringPrinter@@QAE@XZ ; ioComplexStringPrinter::~ioComplexStringPrinter
__ehhandler$?RenderDesc@PetIconBtn@@IAEXHH@Z:
  00008	8b 54 24 08	 mov	 edx, DWORD PTR [esp+8]
  0000c	8d 42 0c	 lea	 eax, DWORD PTR [edx+12]
  0000f	8b 4a cc	 mov	 ecx, DWORD PTR [edx-52]
  00012	33 c8		 xor	 ecx, eax
  00014	e8 00 00 00 00	 call	 @__security_check_cookie@4
  00019	b8 00 00 00 00	 mov	 eax, OFFSET __ehfuncinfo$?RenderDesc@PetIconBtn@@IAEXHH@Z
  0001e	e9 00 00 00 00	 jmp	 ___CxxFrameHandler3
text$x	ENDS
?RenderDesc@PetIconBtn@@IAEXHH@Z ENDP			; PetIconBtn::RenderDesc
PUBLIC	?RenderEmpty@PetIconBtn@@IAEXHH@Z		; PetIconBtn::RenderEmpty
; Function compile flags: /Ogsp
;	COMDAT ?RenderEmpty@PetIconBtn@@IAEXHH@Z
_TEXT	SEGMENT
tv220 = -4						; size = 4
_nXPos$ = 8						; size = 4
tv216 = 12						; size = 4
tv212 = 12						; size = 4
$T506652 = 12						; size = 4
_nYPos$ = 12						; size = 4
?RenderEmpty@PetIconBtn@@IAEXHH@Z PROC			; PetIconBtn::RenderEmpty, COMDAT
; _this$ = ecx

; 327  : {

  00000	55		 push	 ebp
  00001	8b ec		 mov	 ebp, esp
  00003	51		 push	 ecx
  00004	53		 push	 ebx

; 328  : 	enum
; 329  : 	{
; 330  : 		X_OFFSET = 44,
; 331  : 		Y_OFFSET = 37,
; 332  : 	};
; 333  : 
; 334  : 	if ( m_pEmptyFrm )

  00005	8b 5d 0c	 mov	 ebx, DWORD PTR _nYPos$[ebp]
  00008	56		 push	 esi
  00009	57		 push	 edi
  0000a	8b f1		 mov	 esi, ecx
  0000c	33 ff		 xor	 edi, edi
  0000e	39 be 14 02 00
	00		 cmp	 DWORD PTR [esi+532], edi
  00014	74 2c		 je	 SHORT $LN2@RenderEmpt

; 335  : 		m_pEmptyFrm->Render( nXPos, nYPos );

  00016	8b 86 14 02 00
	00		 mov	 eax, DWORD PTR [esi+532]
  0001c	8b 10		 mov	 edx, DWORD PTR [eax]
  0001e	57		 push	 edi
  0001f	57		 push	 edi
  00020	57		 push	 edi
  00021	57		 push	 edi
  00022	51		 push	 ecx
  00023	0f 57 c0	 xorps	 xmm0, xmm0
  00026	51		 push	 ecx
  00027	f3 0f 2a c3	 cvtsi2ss xmm0, ebx
  0002b	f3 0f 11 44 24
	04		 movss	 DWORD PTR [esp+4], xmm0
  00031	66 0f 6e 45 08	 movd	 xmm0, DWORD PTR _nXPos$[ebp]
  00036	0f 5b c0	 cvtdq2ps xmm0, xmm0
  00039	8b c8		 mov	 ecx, eax
  0003b	f3 0f 11 04 24	 movss	 DWORD PTR [esp], xmm0
  00040	ff 12		 call	 DWORD PTR [edx]
$LN2@RenderEmpt:

; 336  : 
; 337  : 	if ( m_pEmpty )

  00042	39 be fc 01 00
	00		 cmp	 DWORD PTR [esi+508], edi
  00048	74 79		 je	 SHORT $LN1@RenderEmpt

; 338  : 	{
; 339  : 		m_pEmpty->SetScale( FLOAT08 );

  0004a	b8 08 00 00 00	 mov	 eax, 8
  0004f	8b d0		 mov	 edx, eax
  00051	b8 0a 00 00 00	 mov	 eax, 10			; 0000000aH
  00056	8b 8e fc 01 00
	00		 mov	 ecx, DWORD PTR [esi+508]
  0005c	89 55 fc	 mov	 DWORD PTR tv220[ebp], edx
  0005f	db 45 fc	 fild	 DWORD PTR tv220[ebp]
  00062	89 45 0c	 mov	 DWORD PTR $T506652[ebp], eax
  00065	8b 01		 mov	 eax, DWORD PTR [ecx]
  00067	85 d2		 test	 edx, edx
  00069	79 06		 jns	 SHORT $LN9@RenderEmpt
  0006b	d8 05 00 00 00
	00		 fadd	 DWORD PTR __real@4f800000
$LN9@RenderEmpt:
  00071	8b 55 0c	 mov	 edx, DWORD PTR $T506652[ebp]
  00074	db 45 0c	 fild	 DWORD PTR $T506652[ebp]
  00077	85 d2		 test	 edx, edx
  00079	79 06		 jns	 SHORT $LN10@RenderEmpt
  0007b	d8 05 00 00 00
	00		 fadd	 DWORD PTR __real@4f800000
$LN10@RenderEmpt:
  00081	de f9		 fdivp	 ST(1), ST(0)
  00083	51		 push	 ecx
  00084	d9 5d 0c	 fstp	 DWORD PTR tv212[ebp]
  00087	d9 45 0c	 fld	 DWORD PTR tv212[ebp]
  0008a	d9 1c 24	 fstp	 DWORD PTR [esp]
  0008d	ff 50 1c	 call	 DWORD PTR [eax+28]

; 340  : 		m_pEmpty->Render( nXPos+X_OFFSET, nYPos+Y_OFFSET, UI_RENDER_MULTIPLY );

  00090	8b 8e fc 01 00
	00		 mov	 ecx, DWORD PTR [esi+508]
  00096	8b 55 08	 mov	 edx, DWORD PTR _nXPos$[ebp]
  00099	8b 01		 mov	 eax, DWORD PTR [ecx]
  0009b	57		 push	 edi
  0009c	57		 push	 edi
  0009d	57		 push	 edi
  0009e	6a 08		 push	 8
  000a0	0f 57 c0	 xorps	 xmm0, xmm0
  000a3	51		 push	 ecx
  000a4	83 c3 25	 add	 ebx, 37			; 00000025H
  000a7	f3 0f 2a c3	 cvtsi2ss xmm0, ebx
  000ab	51		 push	 ecx
  000ac	f3 0f 11 44 24
	04		 movss	 DWORD PTR [esp+4], xmm0
  000b2	83 c2 2c	 add	 edx, 44			; 0000002cH
  000b5	0f 57 c0	 xorps	 xmm0, xmm0
  000b8	f3 0f 2a c2	 cvtsi2ss xmm0, edx
  000bc	f3 0f 11 04 24	 movss	 DWORD PTR [esp], xmm0
  000c1	ff 10		 call	 DWORD PTR [eax]
$LN1@RenderEmpt:
  000c3	5f		 pop	 edi
  000c4	5e		 pop	 esi
  000c5	5b		 pop	 ebx

; 341  : 	}
; 342  : }

  000c6	c9		 leave
  000c7	c2 08 00	 ret	 8
?RenderEmpty@PetIconBtn@@IAEXHH@Z ENDP			; PetIconBtn::RenderEmpty
_TEXT	ENDS
PUBLIC	?RenderRankColor@PetIconBtn@@IAEXHH@Z		; PetIconBtn::RenderRankColor
; Function compile flags: /Ogsp
;	COMDAT ?RenderRankColor@PetIconBtn@@IAEXHH@Z
_TEXT	SEGMENT
_nXPos$ = 8						; size = 4
_nYPos$ = 12						; size = 4
?RenderRankColor@PetIconBtn@@IAEXHH@Z PROC		; PetIconBtn::RenderRankColor, COMDAT
; _this$ = ecx

; 345  : {

  00000	55		 push	 ebp
  00001	8b ec		 mov	 ebp, esp
  00003	56		 push	 esi
  00004	57		 push	 edi
  00005	8b f1		 mov	 esi, ecx

; 346  : 	enum
; 347  : 	{
; 348  : 		COLOR_X_OFFSET = 7,
; 349  : 		COLOR_Y_OFFSET = 82,
; 350  : 	};
; 351  : 
; 352  : 	if ( !m_pRankImg || m_nPetCode <= 0 || m_nPetRank <= 0 )

  00007	33 ff		 xor	 edi, edi
  00009	39 be 0c 02 00
	00		 cmp	 DWORD PTR [esi+524], edi
  0000f	74 7c		 je	 SHORT $LN6@RenderRank
  00011	39 be 28 02 00
	00		 cmp	 DWORD PTR [esi+552], edi
  00017	7e 74		 jle	 SHORT $LN6@RenderRank
  00019	8b 86 30 02 00
	00		 mov	 eax, DWORD PTR [esi+560]
  0001f	3b c7		 cmp	 eax, edi
  00021	7e 6a		 jle	 SHORT $LN6@RenderRank

; 353  : 		return;
; 354  : 		
; 355  : 	switch( (PetRankType)m_nPetRank )

  00023	83 f8 02	 cmp	 eax, 2
  00026	7e 1d		 jle	 SHORT $LN3@RenderRank
  00028	83 f8 04	 cmp	 eax, 4
  0002b	7e 10		 jle	 SHORT $LN2@RenderRank
  0002d	83 f8 05	 cmp	 eax, 5
  00030	75 26		 jne	 SHORT $LN4@RenderRank

; 365  : 	case PRT_S:
; 366  : 		m_pRankImg->SetColor( 22, 70, 178 );

  00032	68 b2 00 00 00	 push	 178			; 000000b2H
  00037	6a 46		 push	 70			; 00000046H
  00039	6a 16		 push	 22			; 00000016H

; 367  : 		break;

  0003b	eb 10		 jmp	 SHORT $LN10@RenderRank
$LN2@RenderRank:

; 360  : 		break;
; 361  : 	case PRT_B:
; 362  : 	case PRT_A:
; 363  : 		m_pRankImg->SetColor( 17, 114, 34 );

  0003d	6a 22		 push	 34			; 00000022H
  0003f	6a 72		 push	 114			; 00000072H
  00041	6a 11		 push	 17			; 00000011H

; 364  : 		break;

  00043	eb 08		 jmp	 SHORT $LN10@RenderRank
$LN3@RenderRank:

; 356  : 	{
; 357  : 	case PRT_D:
; 358  : 	case PRT_C:
; 359  : 		m_pRankImg->SetColor( 185, 22, 0 );

  00045	57		 push	 edi
  00046	6a 16		 push	 22			; 00000016H
  00048	68 b9 00 00 00	 push	 185			; 000000b9H
$LN10@RenderRank:
  0004d	8b 8e 0c 02 00
	00		 mov	 ecx, DWORD PTR [esi+524]
  00053	8b 01		 mov	 eax, DWORD PTR [ecx]
  00055	ff 50 28	 call	 DWORD PTR [eax+40]
$LN4@RenderRank:

; 368  : 	}
; 369  : 
; 370  : 	m_pRankImg->Render( nXPos+COLOR_X_OFFSET, nYPos+COLOR_Y_OFFSET );

  00058	8b 8e 0c 02 00
	00		 mov	 ecx, DWORD PTR [esi+524]
  0005e	8b 55 0c	 mov	 edx, DWORD PTR _nYPos$[ebp]
  00061	8b 01		 mov	 eax, DWORD PTR [ecx]
  00063	57		 push	 edi
  00064	57		 push	 edi
  00065	57		 push	 edi
  00066	57		 push	 edi
  00067	83 c2 52	 add	 edx, 82			; 00000052H
  0006a	0f 57 c0	 xorps	 xmm0, xmm0
  0006d	f3 0f 2a c2	 cvtsi2ss xmm0, edx
  00071	8b 55 08	 mov	 edx, DWORD PTR _nXPos$[ebp]
  00074	51		 push	 ecx
  00075	51		 push	 ecx
  00076	f3 0f 11 44 24
	04		 movss	 DWORD PTR [esp+4], xmm0
  0007c	83 c2 07	 add	 edx, 7
  0007f	0f 57 c0	 xorps	 xmm0, xmm0
  00082	f3 0f 2a c2	 cvtsi2ss xmm0, edx
  00086	f3 0f 11 04 24	 movss	 DWORD PTR [esp], xmm0
  0008b	ff 10		 call	 DWORD PTR [eax]
$LN6@RenderRank:
  0008d	5f		 pop	 edi
  0008e	5e		 pop	 esi

; 371  : }

  0008f	5d		 pop	 ebp
  00090	c2 08 00	 ret	 8
?RenderRankColor@PetIconBtn@@IAEXHH@Z ENDP		; PetIconBtn::RenderRankColor
_TEXT	ENDS
PUBLIC	?RenderEquipText@PetIconBtn@@IAEXHH@Z		; PetIconBtn::RenderEquipText
; Function compile flags: /Ogsp
;	COMDAT ?RenderEquipText@PetIconBtn@@IAEXHH@Z
_TEXT	SEGMENT
tv175 = 8						; size = 4
_nXPos$ = 8						; size = 4
tv173 = 12						; size = 4
_nYPos$ = 12						; size = 4
?RenderEquipText@PetIconBtn@@IAEXHH@Z PROC		; PetIconBtn::RenderEquipText, COMDAT
; _this$ = ecx

; 374  : {

  00000	55		 push	 ebp
  00001	8b ec		 mov	 ebp, esp
  00003	53		 push	 ebx
  00004	56		 push	 esi
  00005	8b f1		 mov	 esi, ecx

; 375  : 	enum 
; 376  : 	{
; 377  : 		X_TEXT_OFFSET   = 24,
; 378  : 		Y_TEXT_OFFSET   = 50,
; 379  : 	};
; 380  : 
; 381  : 	if( !m_bEquip )

  00007	33 db		 xor	 ebx, ebx
  00009	38 9e 56 02 00
	00		 cmp	 BYTE PTR [esi+598], bl
  0000f	74 75		 je	 SHORT $LN1@RenderEqui@2

; 382  : 		return;
; 383  : 
; 384  : 	if ( m_pEquipText )

  00011	39 9e 08 02 00
	00		 cmp	 DWORD PTR [esi+520], ebx
  00017	74 6d		 je	 SHORT $LN1@RenderEqui@2

; 385  : 	{
; 386  : 		m_pEquipText->Render( nXPos+X_TEXT_OFFSET, nYPos+Y_TEXT_OFFSET );

  00019	8b 45 0c	 mov	 eax, DWORD PTR _nYPos$[ebp]
  0001c	8b 8e 08 02 00
	00		 mov	 ecx, DWORD PTR [esi+520]
  00022	53		 push	 ebx
  00023	53		 push	 ebx
  00024	83 c0 32	 add	 eax, 50			; 00000032H
  00027	53		 push	 ebx
  00028	0f 57 c0	 xorps	 xmm0, xmm0
  0002b	f3 0f 2a c0	 cvtsi2ss xmm0, eax
  0002f	8b 45 08	 mov	 eax, DWORD PTR _nXPos$[ebp]
  00032	53		 push	 ebx
  00033	83 c0 18	 add	 eax, 24			; 00000018H
  00036	51		 push	 ecx
  00037	51		 push	 ecx
  00038	0f 57 c9	 xorps	 xmm1, xmm1
  0003b	f3 0f 2a c8	 cvtsi2ss xmm1, eax
  0003f	8b 01		 mov	 eax, DWORD PTR [ecx]
  00041	f3 0f 11 44 24
	04		 movss	 DWORD PTR [esp+4], xmm0
  00047	f3 0f 11 45 0c	 movss	 DWORD PTR tv173[ebp], xmm0
  0004c	f3 0f 11 4d 08	 movss	 DWORD PTR tv175[ebp], xmm1
  00051	f3 0f 11 0c 24	 movss	 DWORD PTR [esp], xmm1
  00056	ff 10		 call	 DWORD PTR [eax]

; 387  : 
; 388  : 		if ( m_bAddEquipText )

  00058	38 9e 60 02 00
	00		 cmp	 BYTE PTR [esi+608], bl
  0005e	74 26		 je	 SHORT $LN1@RenderEqui@2

; 389  : 			m_pEquipText->Render( nXPos+X_TEXT_OFFSET, nYPos+Y_TEXT_OFFSET, UI_RENDER_SCREEN );

  00060	8b 8e 08 02 00
	00		 mov	 ecx, DWORD PTR [esi+520]
  00066	f3 0f 10 45 0c	 movss	 xmm0, DWORD PTR tv173[ebp]
  0006b	8b 01		 mov	 eax, DWORD PTR [ecx]
  0006d	53		 push	 ebx
  0006e	53		 push	 ebx
  0006f	53		 push	 ebx
  00070	6a 01		 push	 1
  00072	51		 push	 ecx
  00073	51		 push	 ecx
  00074	f3 0f 11 44 24
	04		 movss	 DWORD PTR [esp+4], xmm0
  0007a	f3 0f 10 45 08	 movss	 xmm0, DWORD PTR tv175[ebp]
  0007f	f3 0f 11 04 24	 movss	 DWORD PTR [esp], xmm0
  00084	ff 10		 call	 DWORD PTR [eax]
$LN1@RenderEqui@2:
  00086	5e		 pop	 esi
  00087	5b		 pop	 ebx

; 390  : 	}
; 391  : }

  00088	5d		 pop	 ebp
  00089	c2 08 00	 ret	 8
?RenderEquipText@PetIconBtn@@IAEXHH@Z ENDP		; PetIconBtn::RenderEquipText
_TEXT	ENDS
PUBLIC	?ChangeEquipText@PetIconBtn@@IAEXXZ		; PetIconBtn::ChangeEquipText
EXTRN	__imp_?GetLoopSec@ioFrameTimer@@QBEKXZ:PROC
EXTRN	__imp_?GetSingleton@ioFrameTimer@@SAAAV1@XZ:PROC
; Function compile flags: /Ogsp
;	COMDAT ?ChangeEquipText@PetIconBtn@@IAEXXZ
_TEXT	SEGMENT
?ChangeEquipText@PetIconBtn@@IAEXXZ PROC		; PetIconBtn::ChangeEquipText, COMDAT
; _this$ = ecx

; 396  : {

  00000	56		 push	 esi
  00001	8b f1		 mov	 esi, ecx

; 397  : 	if ( !m_bEquip )

  00003	80 be 56 02 00
	00 00		 cmp	 BYTE PTR [esi+598], 0
  0000a	74 34		 je	 SHORT $LN3@ChangeEqui

; 398  : 		return;
; 399  : 
; 400  : 	DWORD dwCurTime = FRAMEGETTIME();

  0000c	ff 15 00 00 00
	00		 call	 DWORD PTR __imp_?GetSingleton@ioFrameTimer@@SAAAV1@XZ
  00012	8b c8		 mov	 ecx, eax
  00014	ff 15 00 00 00
	00		 call	 DWORD PTR __imp_?GetLoopSec@ioFrameTimer@@QBEKXZ

; 401  : 	if ( m_dwCheckTime + m_dwChangeTime > dwCurTime )

  0001a	8b 96 5c 02 00
	00		 mov	 edx, DWORD PTR [esi+604]
  00020	03 96 58 02 00
	00		 add	 edx, DWORD PTR [esi+600]
  00026	3b d0		 cmp	 edx, eax
  00028	77 16		 ja	 SHORT $LN3@ChangeEqui

; 402  : 		return;
; 403  : 
; 404  : 	m_dwCheckTime = dwCurTime;
; 405  : 	m_bAddEquipText = !m_bAddEquipText;

  0002a	80 be 60 02 00
	00 00		 cmp	 BYTE PTR [esi+608], 0
  00031	89 86 58 02 00
	00		 mov	 DWORD PTR [esi+600], eax
  00037	0f 94 c1	 sete	 cl
  0003a	88 8e 60 02 00
	00		 mov	 BYTE PTR [esi+608], cl
$LN3@ChangeEqui:
  00040	5e		 pop	 esi

; 406  : }

  00041	c3		 ret	 0
?ChangeEquipText@PetIconBtn@@IAEXXZ ENDP		; PetIconBtn::ChangeEquipText
_TEXT	ENDS
PUBLIC	?SetIcon@PetIconBtn@@QAE_NHHHMM_N@Z		; PetIconBtn::SetIcon
EXTRN	__imp_??4ioHashString@@QAEAAV0@ABV0@@Z:PROC
EXTRN	?GetRankName@ioPetInfoManager@@QAE?AVioHashString@@H@Z:PROC ; ioPetInfoManager::GetRankName
EXTRN	?GetMaxExp@ioPetInfoManager@@QAEHHW4PetRankType@@@Z:PROC ; ioPetInfoManager::GetMaxExp
EXTRN	?GetMaxLevel@ioPetInfoManager@@QAEHW4PetRankType@@@Z:PROC ; ioPetInfoManager::GetMaxLevel
EXTRN	__imp_?CreateImageByFullName@ioUIImageSetManager@@QAEPAVioUIRenderImage@@ABVioHashString@@_N@Z:PROC
EXTRN	__imp_?GetSingleton@ioUIImageSetManager@@SAAAV1@XZ:PROC
EXTRN	?GetPetIcon@ioPetInfoManager@@QAE?AVioHashString@@HW4PetRankType@@@Z:PROC ; ioPetInfoManager::GetPetIcon
EXTRN	?GetSingleton@ioPetInfoManager@@SAAAV1@XZ:PROC	; ioPetInfoManager::GetSingleton
;	COMDAT xdata$x
; File d:\lost saga for developer\youtube\tutorial\source\src\lsclient\stdafx.h
xdata$x	SEGMENT
__unwindtable$?SetIcon@PetIconBtn@@QAE_NHHHMM_N@Z DD 0ffffffffH
	DD	FLAT:__unwindfunclet$?SetIcon@PetIconBtn@@QAE_NHHHMM_N@Z$0
	DD	00H
	DD	FLAT:__unwindfunclet$?SetIcon@PetIconBtn@@QAE_NHHHMM_N@Z$1
__ehfuncinfo$?SetIcon@PetIconBtn@@QAE_NHHHMM_N@Z DD 019930522H
	DD	02H
	DD	FLAT:__unwindtable$?SetIcon@PetIconBtn@@QAE_NHHHMM_N@Z
	DD	2 DUP(00H)
	DD	2 DUP(00H)
	DD	00H
	DD	01H
; Function compile flags: /Ogsp
; File d:\lost saga for developer\youtube\tutorial\source\src\lsclient\gui\peticonbtn.cpp
xdata$x	ENDS
;	COMDAT ?SetIcon@PetIconBtn@@QAE_NHHHMM_N@Z
_TEXT	SEGMENT
$T506669 = -44						; size = 16
_szPetIcon$ = -28					; size = 16
__$EHRec$ = -12						; size = 12
_pIcon$ = 8						; size = 4
_nPetCode$ = 8						; size = 4
tv287 = 12						; size = 4
tv267 = 12						; size = 4
tv260 = 12						; size = 4
tv164 = 12						; size = 4
_nMaxExp$ = 12						; size = 4
_nPetLevel$ = 12					; size = 4
tv278 = 16						; size = 4
_nPetRank$ = 16						; size = 4
_fScale$ = 20						; size = 4
_fBackScale$ = 24					; size = 4
_bDesc$ = 28						; size = 1
?SetIcon@PetIconBtn@@QAE_NHHHMM_N@Z PROC		; PetIconBtn::SetIcon, COMDAT
; _this$ = ecx

; 412  : {

  00000	6a 20		 push	 32			; 00000020H
  00002	b8 00 00 00 00	 mov	 eax, __ehhandler$?SetIcon@PetIconBtn@@QAE_NHHHMM_N@Z
  00007	e8 00 00 00 00	 call	 __EH_prolog3
  0000c	8b f1		 mov	 esi, ecx

; 413  : 	if ( nPetCode == 0 || nPetRank == PRT_NONE || nPetLevel < 0 )

  0000e	8b 7d 08	 mov	 edi, DWORD PTR _nPetCode$[ebp]
  00011	85 ff		 test	 edi, edi
  00013	74 3d		 je	 SHORT $LN6@SetIcon
  00015	8b 5d 10	 mov	 ebx, DWORD PTR _nPetRank$[ebp]
  00018	85 db		 test	 ebx, ebx
  0001a	74 36		 je	 SHORT $LN6@SetIcon
  0001c	83 7d 0c 00	 cmp	 DWORD PTR _nPetLevel$[ebp], 0
  00020	7c 30		 jl	 SHORT $LN6@SetIcon

; 415  : 
; 416  : 	ioHashString szPetIcon = g_PetInfoMgr.GetPetIcon( nPetCode, (PetRankType)nPetRank );

  00022	53		 push	 ebx
  00023	8d 45 e4	 lea	 eax, DWORD PTR _szPetIcon$[ebp]
  00026	57		 push	 edi
  00027	50		 push	 eax
  00028	e8 00 00 00 00	 call	 ?GetSingleton@ioPetInfoManager@@SAAAV1@XZ ; ioPetInfoManager::GetSingleton
  0002d	8b c8		 mov	 ecx, eax
  0002f	e8 00 00 00 00	 call	 ?GetPetIcon@ioPetInfoManager@@QAE?AVioHashString@@HW4PetRankType@@@Z ; ioPetInfoManager::GetPetIcon
  00034	83 65 fc 00	 and	 DWORD PTR __$EHRec$[ebp+8], 0

; 417  : 	if ( szPetIcon.IsEmpty() )

  00038	8d 4d e4	 lea	 ecx, DWORD PTR _szPetIcon$[ebp]
  0003b	ff 15 00 00 00
	00		 call	 DWORD PTR __imp_?IsEmpty@ioHashString@@QBE_NXZ
  00041	84 c0		 test	 al, al
  00043	74 17		 je	 SHORT $LN5@SetIcon
$LN26@SetIcon:

; 418  : 		return false;

  00045	83 4d fc ff	 or	 DWORD PTR __$EHRec$[ebp+8], -1
  00049	8d 4d e4	 lea	 ecx, DWORD PTR _szPetIcon$[ebp]
  0004c	ff 15 00 00 00
	00		 call	 DWORD PTR __imp_??1ioHashString@@QAE@XZ
$LN6@SetIcon:

; 414  : 		return false;

  00052	32 c0		 xor	 al, al
$LN8@SetIcon:

; 450  : }

  00054	e8 00 00 00 00	 call	 __EH_epilog3
  00059	c2 18 00	 ret	 24			; 00000018H
$LN5@SetIcon:

; 419  : 
; 420  : 	ioUIRenderImage *pIcon = g_UIImageSetMgr.CreateImageByFullName( szPetIcon );

  0005c	8d 45 e4	 lea	 eax, DWORD PTR _szPetIcon$[ebp]
  0005f	6a 00		 push	 0
  00061	50		 push	 eax
  00062	ff 15 00 00 00
	00		 call	 DWORD PTR __imp_?GetSingleton@ioUIImageSetManager@@SAAAV1@XZ
  00068	8b c8		 mov	 ecx, eax
  0006a	ff 15 00 00 00
	00		 call	 DWORD PTR __imp_?CreateImageByFullName@ioUIImageSetManager@@QAEPAVioUIRenderImage@@ABVioHashString@@_N@Z
  00070	89 45 08	 mov	 DWORD PTR _pIcon$[ebp], eax

; 421  : 	if( !pIcon )

  00073	85 c0		 test	 eax, eax

; 422  : 		return false;

  00075	74 ce		 je	 SHORT $LN26@SetIcon

; 423  : 
; 424  : 	m_nPetCode = nPetCode;
; 425  : 	m_nPetLevel = nPetLevel;

  00077	8b 45 0c	 mov	 eax, DWORD PTR _nPetLevel$[ebp]

; 426  : 	m_nPetRank = nPetRank;
; 427  : 
; 428  : 	m_nMaxLevel = g_PetInfoMgr.GetMaxLevel( (PetRankType)m_nPetRank );

  0007a	53		 push	 ebx
  0007b	89 be 28 02 00
	00		 mov	 DWORD PTR [esi+552], edi
  00081	89 86 2c 02 00
	00		 mov	 DWORD PTR [esi+556], eax
  00087	89 9e 30 02 00
	00		 mov	 DWORD PTR [esi+560], ebx
  0008d	e8 00 00 00 00	 call	 ?GetSingleton@ioPetInfoManager@@SAAAV1@XZ ; ioPetInfoManager::GetSingleton
  00092	8b c8		 mov	 ecx, eax
  00094	e8 00 00 00 00	 call	 ?GetMaxLevel@ioPetInfoManager@@QAEHW4PetRankType@@@Z ; ioPetInfoManager::GetMaxLevel

; 429  : 
; 430  : 	//°æÇèÄ¡ ÆÛ¼¾Æ® ¼³Á¤
; 431  : 	int nMaxExp = g_PetInfoMgr.GetMaxExp( m_nPetLevel, (PetRankType)m_nPetRank );

  00099	ff b6 30 02 00
	00		 push	 DWORD PTR [esi+560]
  0009f	89 86 3c 02 00
	00		 mov	 DWORD PTR [esi+572], eax
  000a5	ff b6 2c 02 00
	00		 push	 DWORD PTR [esi+556]
  000ab	e8 00 00 00 00	 call	 ?GetSingleton@ioPetInfoManager@@SAAAV1@XZ ; ioPetInfoManager::GetSingleton
  000b0	8b c8		 mov	 ecx, eax
  000b2	e8 00 00 00 00	 call	 ?GetMaxExp@ioPetInfoManager@@QAEHHW4PetRankType@@@Z ; ioPetInfoManager::GetMaxExp
  000b7	89 45 0c	 mov	 DWORD PTR _nMaxExp$[ebp], eax

; 432  : 	if ( nMaxExp > 0 )

  000ba	85 c0		 test	 eax, eax
  000bc	7e 28		 jle	 SHORT $LN3@SetIcon

; 433  : 		m_fExpRate = ((float)m_nCurExp/nMaxExp * FLOAT100);

  000be	b8 64 00 00 00	 mov	 eax, 100		; 00000064H
  000c3	db 86 38 02 00
	00		 fild	 DWORD PTR [esi+568]
  000c9	da 75 0c	 fidiv	 DWORD PTR _nMaxExp$[ebp]
  000cc	89 45 0c	 mov	 DWORD PTR tv287[ebp], eax
  000cf	db 45 0c	 fild	 DWORD PTR tv287[ebp]
  000d2	85 c0		 test	 eax, eax
  000d4	79 06		 jns	 SHORT $LN23@SetIcon
  000d6	d8 05 00 00 00
	00		 fadd	 DWORD PTR __real@4f800000
$LN23@SetIcon:
  000dc	de c9		 fmulp	 ST(1), ST(0)
  000de	d9 9e 40 02 00
	00		 fstp	 DWORD PTR [esi+576]

; 434  : 	else

  000e4	eb 0b		 jmp	 SHORT $LN2@SetIcon
$LN3@SetIcon:

; 435  : 		m_fExpRate = 0.0f;

  000e6	0f 57 c0	 xorps	 xmm0, xmm0
  000e9	f3 0f 11 86 40
	02 00 00	 movss	 DWORD PTR [esi+576], xmm0
$LN2@SetIcon:

; 436  : 
; 437  : 	m_fExpRate = min( FLOAT100, m_fExpRate );

  000f1	b8 64 00 00 00	 mov	 eax, 100		; 00000064H
  000f6	d9 86 40 02 00
	00		 fld	 DWORD PTR [esi+576]
  000fc	89 45 10	 mov	 DWORD PTR tv278[ebp], eax
  000ff	d9 5d 0c	 fstp	 DWORD PTR tv260[ebp]
  00102	db 45 10	 fild	 DWORD PTR tv278[ebp]
  00105	85 c0		 test	 eax, eax
  00107	79 06		 jns	 SHORT $LN24@SetIcon
  00109	d8 05 00 00 00
	00		 fadd	 DWORD PTR __real@4f800000
$LN24@SetIcon:
  0010f	d9 45 0c	 fld	 DWORD PTR tv260[ebp]
  00112	df f1		 fcomip	 ST(1)
  00114	dd d8		 fstp	 ST(0)
  00116	76 1f		 jbe	 SHORT $LN10@SetIcon
  00118	b8 64 00 00 00	 mov	 eax, 100		; 00000064H
  0011d	89 45 0c	 mov	 DWORD PTR tv267[ebp], eax
  00120	db 45 0c	 fild	 DWORD PTR tv267[ebp]
  00123	85 c0		 test	 eax, eax
  00125	79 06		 jns	 SHORT $LN25@SetIcon
  00127	d8 05 00 00 00
	00		 fadd	 DWORD PTR __real@4f800000
$LN25@SetIcon:
  0012d	d9 5d 0c	 fstp	 DWORD PTR tv164[ebp]
  00130	f3 0f 10 45 0c	 movss	 xmm0, DWORD PTR tv164[ebp]
  00135	eb 05		 jmp	 SHORT $LN11@SetIcon
$LN10@SetIcon:
  00137	f3 0f 10 45 0c	 movss	 xmm0, DWORD PTR tv260[ebp]
$LN11@SetIcon:

; 438  : 
; 439  : 	m_szPetRank = g_PetInfoMgr.GetRankName( m_nPetRank );

  0013c	ff b6 30 02 00
	00		 push	 DWORD PTR [esi+560]
  00142	8d 45 d4	 lea	 eax, DWORD PTR $T506669[ebp]
  00145	50		 push	 eax
  00146	f3 0f 11 86 40
	02 00 00	 movss	 DWORD PTR [esi+576], xmm0
  0014e	e8 00 00 00 00	 call	 ?GetSingleton@ioPetInfoManager@@SAAAV1@XZ ; ioPetInfoManager::GetSingleton
  00153	8b c8		 mov	 ecx, eax
  00155	e8 00 00 00 00	 call	 ?GetRankName@ioPetInfoManager@@QAE?AVioHashString@@H@Z ; ioPetInfoManager::GetRankName
  0015a	50		 push	 eax
  0015b	8d 8e 44 02 00
	00		 lea	 ecx, DWORD PTR [esi+580]
  00161	c6 45 fc 01	 mov	 BYTE PTR __$EHRec$[ebp+8], 1
  00165	ff 15 00 00 00
	00		 call	 DWORD PTR __imp_??4ioHashString@@QAEAAV0@ABV0@@Z
  0016b	8b 3d 00 00 00
	00		 mov	 edi, DWORD PTR __imp_??1ioHashString@@QAE@XZ
  00171	8d 4d d4	 lea	 ecx, DWORD PTR $T506669[ebp]
  00174	c6 45 fc 00	 mov	 BYTE PTR __$EHRec$[ebp+8], 0
  00178	ff d7		 call	 edi

; 440  : 
; 441  : 	m_fScale = fScale;

  0017a	f3 0f 10 45 14	 movss	 xmm0, DWORD PTR _fScale$[ebp]

; 442  : 	m_fBackScale = fBackScale;		
; 443  : 
; 444  : 	m_bDesc = bDesc;
; 445  : 
; 446  : 	SAFEDELETE( m_pIcon );

  0017f	8b 8e 00 02 00
	00		 mov	 ecx, DWORD PTR [esi+512]
  00185	8a 45 1c	 mov	 al, BYTE PTR _bDesc$[ebp]
  00188	f3 0f 11 86 20
	02 00 00	 movss	 DWORD PTR [esi+544], xmm0
  00190	f3 0f 10 45 18	 movss	 xmm0, DWORD PTR _fBackScale$[ebp]
  00195	f3 0f 11 86 24
	02 00 00	 movss	 DWORD PTR [esi+548], xmm0
  0019d	88 86 54 02 00
	00		 mov	 BYTE PTR [esi+596], al
  001a3	85 c9		 test	 ecx, ecx
  001a5	74 0e		 je	 SHORT $LN1@SetIcon
  001a7	8b 01		 mov	 eax, DWORD PTR [ecx]
  001a9	6a 01		 push	 1
  001ab	ff 50 40	 call	 DWORD PTR [eax+64]
  001ae	83 a6 00 02 00
	00 00		 and	 DWORD PTR [esi+512], 0
$LN1@SetIcon:

; 447  : 	m_pIcon = pIcon;	

  001b5	8b 45 08	 mov	 eax, DWORD PTR _pIcon$[ebp]

; 448  : 
; 449  : 	return true;

  001b8	83 4d fc ff	 or	 DWORD PTR __$EHRec$[ebp+8], -1
  001bc	8d 4d e4	 lea	 ecx, DWORD PTR _szPetIcon$[ebp]
  001bf	89 86 00 02 00
	00		 mov	 DWORD PTR [esi+512], eax
  001c5	ff d7		 call	 edi
  001c7	b0 01		 mov	 al, 1
  001c9	e9 86 fe ff ff	 jmp	 $LN8@SetIcon
_TEXT	ENDS
;	COMDAT text$x
text$x	SEGMENT
__unwindfunclet$?SetIcon@PetIconBtn@@QAE_NHHHMM_N@Z$0:
  00000	8d 4d e4	 lea	 ecx, DWORD PTR _szPetIcon$[ebp]
  00003	ff 25 00 00 00
	00		 jmp	 DWORD PTR __imp_??1ioHashString@@QAE@XZ
__unwindfunclet$?SetIcon@PetIconBtn@@QAE_NHHHMM_N@Z$1:
  00009	8d 4d d4	 lea	 ecx, DWORD PTR $T506669[ebp]
  0000c	ff 25 00 00 00
	00		 jmp	 DWORD PTR __imp_??1ioHashString@@QAE@XZ
__ehhandler$?SetIcon@PetIconBtn@@QAE_NHHHMM_N@Z:
  00012	8b 54 24 08	 mov	 edx, DWORD PTR [esp+8]
  00016	8d 42 0c	 lea	 eax, DWORD PTR [edx+12]
  00019	8b 4a d0	 mov	 ecx, DWORD PTR [edx-48]
  0001c	33 c8		 xor	 ecx, eax
  0001e	e8 00 00 00 00	 call	 @__security_check_cookie@4
  00023	b8 00 00 00 00	 mov	 eax, OFFSET __ehfuncinfo$?SetIcon@PetIconBtn@@QAE_NHHHMM_N@Z
  00028	e9 00 00 00 00	 jmp	 ___CxxFrameHandler3
text$x	ENDS
?SetIcon@PetIconBtn@@QAE_NHHHMM_N@Z ENDP		; PetIconBtn::SetIcon
PUBLIC	?RemoveIcon@PetIconBtn@@QAEXXZ			; PetIconBtn::RemoveIcon
EXTRN	__imp_?Clear@ioHashString@@QAEXXZ:PROC
; Function compile flags: /Ogsp
;	COMDAT ?RemoveIcon@PetIconBtn@@QAEXXZ
_TEXT	SEGMENT
?RemoveIcon@PetIconBtn@@QAEXXZ PROC			; PetIconBtn::RemoveIcon, COMDAT
; _this$ = ecx

; 454  : {

  00000	53		 push	 ebx
  00001	56		 push	 esi
  00002	8b f1		 mov	 esi, ecx

; 455  : 	SAFEDELETE( m_pIcon );

  00004	8b 8e 00 02 00
	00		 mov	 ecx, DWORD PTR [esi+512]
  0000a	33 db		 xor	 ebx, ebx
  0000c	57		 push	 edi
  0000d	3b cb		 cmp	 ecx, ebx
  0000f	74 0d		 je	 SHORT $LN1@RemoveIcon
  00011	8b 01		 mov	 eax, DWORD PTR [ecx]
  00013	6a 01		 push	 1
  00015	ff 50 40	 call	 DWORD PTR [eax+64]
  00018	89 9e 00 02 00
	00		 mov	 DWORD PTR [esi+512], ebx
$LN1@RemoveIcon:

; 456  : 
; 457  : 	m_nPetCode = 0;
; 458  : 	m_nPetLevel = 0;
; 459  : 	m_nPetRank = 0;
; 460  : 	m_nSlotIndex = 0;
; 461  : 	m_nCurExp = 0;
; 462  : 
; 463  : 	m_nMaxLevel = 0;
; 464  : 	m_fExpRate = 0;

  0001e	0f 57 c0	 xorps	 xmm0, xmm0

; 465  : 
; 466  : 	m_szPetRank.Clear();

  00021	8d 8e 44 02 00
	00		 lea	 ecx, DWORD PTR [esi+580]
  00027	89 9e 28 02 00
	00		 mov	 DWORD PTR [esi+552], ebx
  0002d	89 9e 2c 02 00
	00		 mov	 DWORD PTR [esi+556], ebx
  00033	89 9e 30 02 00
	00		 mov	 DWORD PTR [esi+560], ebx
  00039	89 9e 34 02 00
	00		 mov	 DWORD PTR [esi+564], ebx
  0003f	89 9e 38 02 00
	00		 mov	 DWORD PTR [esi+568], ebx
  00045	89 9e 3c 02 00
	00		 mov	 DWORD PTR [esi+572], ebx
  0004b	f3 0f 11 86 40
	02 00 00	 movss	 DWORD PTR [esi+576], xmm0
  00053	ff 15 00 00 00
	00		 call	 DWORD PTR __imp_?Clear@ioHashString@@QAEXXZ
  00059	5f		 pop	 edi

; 467  : 
; 468  : 	m_bDesc = false;

  0005a	89 9e 54 02 00
	00		 mov	 DWORD PTR [esi+596], ebx
  00060	5e		 pop	 esi
  00061	5b		 pop	 ebx

; 469  : 	m_bSelect = false;
; 470  : 	m_bEquip = false;
; 471  : 	m_bPreOver = false;
; 472  : }

  00062	c3		 ret	 0
?RemoveIcon@PetIconBtn@@QAEXXZ ENDP			; PetIconBtn::RemoveIcon
_TEXT	ENDS
PUBLIC	?GetPetCode@PetIconBtn@@QAEHXZ			; PetIconBtn::GetPetCode
; Function compile flags: /Ogsp
;	COMDAT ?GetPetCode@PetIconBtn@@QAEHXZ
_TEXT	SEGMENT
?GetPetCode@PetIconBtn@@QAEHXZ PROC			; PetIconBtn::GetPetCode, COMDAT
; _this$ = ecx

; 479  : 	return m_nPetCode;

  00000	8b 81 28 02 00
	00		 mov	 eax, DWORD PTR [ecx+552]

; 480  : }

  00006	c3		 ret	 0
?GetPetCode@PetIconBtn@@QAEHXZ ENDP			; PetIconBtn::GetPetCode
_TEXT	ENDS
PUBLIC	?GetPetRank@PetIconBtn@@QAEHXZ			; PetIconBtn::GetPetRank
; Function compile flags: /Ogsp
;	COMDAT ?GetPetRank@PetIconBtn@@QAEHXZ
_TEXT	SEGMENT
?GetPetRank@PetIconBtn@@QAEHXZ PROC			; PetIconBtn::GetPetRank, COMDAT
; _this$ = ecx

; 484  : 	return m_nPetRank;

  00000	8b 81 30 02 00
	00		 mov	 eax, DWORD PTR [ecx+560]

; 485  : }

  00006	c3		 ret	 0
?GetPetRank@PetIconBtn@@QAEHXZ ENDP			; PetIconBtn::GetPetRank
_TEXT	ENDS
PUBLIC	?GetSlotIndex@PetIconBtn@@QAEHXZ		; PetIconBtn::GetSlotIndex
; Function compile flags: /Ogsp
;	COMDAT ?GetSlotIndex@PetIconBtn@@QAEHXZ
_TEXT	SEGMENT
?GetSlotIndex@PetIconBtn@@QAEHXZ PROC			; PetIconBtn::GetSlotIndex, COMDAT
; _this$ = ecx

; 489  : 	return m_nSlotIndex;

  00000	8b 81 34 02 00
	00		 mov	 eax, DWORD PTR [ecx+564]

; 490  : }

  00006	c3		 ret	 0
?GetSlotIndex@PetIconBtn@@QAEHXZ ENDP			; PetIconBtn::GetSlotIndex
_TEXT	ENDS
PUBLIC	?SetSlotIndex@PetIconBtn@@QAEXH@Z		; PetIconBtn::SetSlotIndex
; Function compile flags: /Ogsp
;	COMDAT ?SetSlotIndex@PetIconBtn@@QAEXH@Z
_TEXT	SEGMENT
_nSlotIndex$ = 8					; size = 4
?SetSlotIndex@PetIconBtn@@QAEXH@Z PROC			; PetIconBtn::SetSlotIndex, COMDAT
; _this$ = ecx

; 496  : {

  00000	55		 push	 ebp
  00001	8b ec		 mov	 ebp, esp

; 497  : 	m_nSlotIndex = nSlotIndex;

  00003	8b 45 08	 mov	 eax, DWORD PTR _nSlotIndex$[ebp]
  00006	89 81 34 02 00
	00		 mov	 DWORD PTR [ecx+564], eax

; 498  : }

  0000c	5d		 pop	 ebp
  0000d	c2 04 00	 ret	 4
?SetSlotIndex@PetIconBtn@@QAEXH@Z ENDP			; PetIconBtn::SetSlotIndex
_TEXT	ENDS
PUBLIC	?SetCurExp@PetIconBtn@@QAEXH@Z			; PetIconBtn::SetCurExp
; Function compile flags: /Ogsp
;	COMDAT ?SetCurExp@PetIconBtn@@QAEXH@Z
_TEXT	SEGMENT
_nCurExp$ = 8						; size = 4
?SetCurExp@PetIconBtn@@QAEXH@Z PROC			; PetIconBtn::SetCurExp, COMDAT
; _this$ = ecx

; 501  : {

  00000	55		 push	 ebp
  00001	8b ec		 mov	 ebp, esp

; 502  : 	m_nCurExp = nCurExp;

  00003	8b 45 08	 mov	 eax, DWORD PTR _nCurExp$[ebp]
  00006	89 81 38 02 00
	00		 mov	 DWORD PTR [ecx+568], eax

; 503  : }

  0000c	5d		 pop	 ebp
  0000d	c2 04 00	 ret	 4
?SetCurExp@PetIconBtn@@QAEXH@Z ENDP			; PetIconBtn::SetCurExp
_TEXT	ENDS
PUBLIC	?SetSelect@PetIconBtn@@QAEX_N@Z			; PetIconBtn::SetSelect
; Function compile flags: /Ogsp
;	COMDAT ?SetSelect@PetIconBtn@@QAEX_N@Z
_TEXT	SEGMENT
_bSelect$ = 8						; size = 1
?SetSelect@PetIconBtn@@QAEX_N@Z PROC			; PetIconBtn::SetSelect, COMDAT
; _this$ = ecx

; 506  : { 

  00000	55		 push	 ebp
  00001	8b ec		 mov	 ebp, esp

; 507  : 	m_bSelect = bSelect; 

  00003	8a 45 08	 mov	 al, BYTE PTR _bSelect$[ebp]
  00006	88 81 55 02 00
	00		 mov	 BYTE PTR [ecx+597], al

; 508  : }

  0000c	5d		 pop	 ebp
  0000d	c2 04 00	 ret	 4
?SetSelect@PetIconBtn@@QAEX_N@Z ENDP			; PetIconBtn::SetSelect
_TEXT	ENDS
PUBLIC	?SetEquip@PetIconBtn@@QAEX_N@Z			; PetIconBtn::SetEquip
; Function compile flags: /Ogsp
;	COMDAT ?SetEquip@PetIconBtn@@QAEX_N@Z
_TEXT	SEGMENT
_bEquip$ = 8						; size = 1
?SetEquip@PetIconBtn@@QAEX_N@Z PROC			; PetIconBtn::SetEquip, COMDAT
; _this$ = ecx

; 511  : {

  00000	55		 push	 ebp
  00001	8b ec		 mov	 ebp, esp

; 512  : 	m_bEquip = bEquip;

  00003	8a 45 08	 mov	 al, BYTE PTR _bEquip$[ebp]
  00006	56		 push	 esi
  00007	8b f1		 mov	 esi, ecx
  00009	88 86 56 02 00
	00		 mov	 BYTE PTR [esi+598], al

; 513  : 
; 514  : 	m_dwCheckTime = FRAMEGETTIME();

  0000f	ff 15 00 00 00
	00		 call	 DWORD PTR __imp_?GetSingleton@ioFrameTimer@@SAAAV1@XZ
  00015	8b c8		 mov	 ecx, eax
  00017	ff 15 00 00 00
	00		 call	 DWORD PTR __imp_?GetLoopSec@ioFrameTimer@@QBEKXZ
  0001d	89 86 58 02 00
	00		 mov	 DWORD PTR [esi+600], eax

; 515  : 	m_bAddEquipText = false;

  00023	c6 86 60 02 00
	00 00		 mov	 BYTE PTR [esi+608], 0
  0002a	5e		 pop	 esi

; 516  : }

  0002b	5d		 pop	 ebp
  0002c	c2 04 00	 ret	 4
?SetEquip@PetIconBtn@@QAEX_N@Z ENDP			; PetIconBtn::SetEquip
_TEXT	ENDS
PUBLIC	?_DECSTR@@YAXPADH@Z				; _DECSTR
; Function compile flags: /Ogsp
; File d:\lost saga for developer\youtube\tutorial\source\src\lsclient\stringprotect.h
;	COMDAT ?_DECSTR@@YAXPADH@Z
_TEXT	SEGMENT
_s$ = 8							; size = 4
_l$ = 12						; size = 4
?_DECSTR@@YAXPADH@Z PROC				; _DECSTR, COMDAT

; 40   : __forceinline void _DECSTR(char* s, int l){int i=0,l4=(l-1)/4,*p=(int*)s;s[l-1]=0;for(;i<l4;++i)*(p++)^=0xEAEBECED;for(i=l4*4;i<l-1;++i)s[i]^=0xED-i%4;}

  00000	55		 push	 ebp
  00001	8b ec		 mov	 ebp, esp
  00003	8b 4d 0c	 mov	 ecx, DWORD PTR _l$[ebp]
  00006	56		 push	 esi
  00007	8b 75 08	 mov	 esi, DWORD PTR _s$[ebp]
  0000a	57		 push	 edi
  0000b	8d 79 ff	 lea	 edi, DWORD PTR [ecx-1]
  0000e	8b c7		 mov	 eax, edi
  00010	99		 cdq
  00011	83 e2 03	 and	 edx, 3
  00014	03 c2		 add	 eax, edx
  00016	c1 f8 02	 sar	 eax, 2
  00019	8b d6		 mov	 edx, esi
  0001b	c6 44 0e ff 00	 mov	 BYTE PTR [esi+ecx-1], 0
  00020	85 c0		 test	 eax, eax
  00022	7e 0e		 jle	 SHORT $LN4@DECSTR
  00024	8b c8		 mov	 ecx, eax
$LL6@DECSTR:
  00026	81 32 ed ec eb
	ea		 xor	 DWORD PTR [edx], -353637139 ; eaebecedH
  0002c	83 c2 04	 add	 edx, 4
  0002f	49		 dec	 ecx
  00030	75 f4		 jne	 SHORT $LL6@DECSTR
$LN4@DECSTR:
  00032	c1 e0 02	 shl	 eax, 2
  00035	eb 17		 jmp	 SHORT $LN14@DECSTR
$LL3@DECSTR:
  00037	8b c8		 mov	 ecx, eax
  00039	81 e1 03 00 00
	80		 and	 ecx, -2147483645	; 80000003H
  0003f	79 05		 jns	 SHORT $LN13@DECSTR
  00041	49		 dec	 ecx
  00042	83 c9 fc	 or	 ecx, -4			; fffffffcH
  00045	41		 inc	 ecx
$LN13@DECSTR:
  00046	b2 ed		 mov	 dl, -19			; ffffffedH
  00048	2a d1		 sub	 dl, cl
  0004a	30 14 30	 xor	 BYTE PTR [eax+esi], dl
  0004d	40		 inc	 eax
$LN14@DECSTR:
  0004e	3b c7		 cmp	 eax, edi
  00050	7c e5		 jl	 SHORT $LL3@DECSTR
  00052	5f		 pop	 edi
  00053	5e		 pop	 esi
  00054	5d		 pop	 ebp
  00055	c3		 ret	 0
?_DECSTR@@YAXPADH@Z ENDP				; _DECSTR
_TEXT	ENDS
PUBLIC	?GetMouse@ioApplication@@QAEPAVioLSMouse@@XZ	; ioApplication::GetMouse
; Function compile flags: /Ogsp
; File d:\lost saga for developer\youtube\tutorial\source\src\lsclient\ioapplication.h
;	COMDAT ?GetMouse@ioApplication@@QAEPAVioLSMouse@@XZ
_TEXT	SEGMENT
?GetMouse@ioApplication@@QAEPAVioLSMouse@@XZ PROC	; ioApplication::GetMouse, COMDAT
; _this$ = ecx

; 796  : 	inline ioLSMouse* GetMouse(){ return &m_Mouse;	}

  00000	8d 81 90 00 00
	00		 lea	 eax, DWORD PTR [ecx+144]
  00006	c3		 ret	 0
?GetMouse@ioApplication@@QAEPAVioLSMouse@@XZ ENDP	; ioApplication::GetMouse
_TEXT	ENDS
PUBLIC	??0PetIconBtn@@QAE@XZ				; PetIconBtn::PetIconBtn
EXTRN	__imp_??0ioHashString@@QAE@XZ:PROC
EXTRN	__imp_??0ioButton@@QAE@XZ:PROC
;	COMDAT xdata$x
; File d:\lost saga for developer\youtube\tutorial\source\src\lsclient\stdafx.h
xdata$x	SEGMENT
__unwindtable$??0PetIconBtn@@QAE@XZ DD 0ffffffffH
	DD	FLAT:__unwindfunclet$??0PetIconBtn@@QAE@XZ$0
	DD	00H
	DD	FLAT:__unwindfunclet$??0PetIconBtn@@QAE@XZ$1
__ehfuncinfo$??0PetIconBtn@@QAE@XZ DD 019930522H
	DD	02H
	DD	FLAT:__unwindtable$??0PetIconBtn@@QAE@XZ
	DD	2 DUP(00H)
	DD	2 DUP(00H)
	DD	00H
	DD	01H
; Function compile flags: /Ogsp
; File d:\lost saga for developer\youtube\tutorial\source\src\lsclient\gui\peticonbtn.cpp
xdata$x	ENDS
;	COMDAT ??0PetIconBtn@@QAE@XZ
_TEXT	SEGMENT
tv232 = -20						; size = 4
tv228 = -20						; size = 4
_this$ = -16						; size = 4
__$EHRec$ = -12						; size = 12
??0PetIconBtn@@QAE@XZ PROC				; PetIconBtn::PetIconBtn, COMDAT
; _this$ = ecx

; 13   : {

  00000	6a 08		 push	 8
  00002	b8 00 00 00 00	 mov	 eax, __ehhandler$??0PetIconBtn@@QAE@XZ
  00007	e8 00 00 00 00	 call	 __EH_prolog3
  0000c	8b f1		 mov	 esi, ecx
  0000e	89 75 f0	 mov	 DWORD PTR _this$[ebp], esi
  00011	ff 15 00 00 00
	00		 call	 DWORD PTR __imp_??0ioButton@@QAE@XZ
  00017	33 db		 xor	 ebx, ebx
  00019	8d 8e 44 02 00
	00		 lea	 ecx, DWORD PTR [esi+580]
  0001f	89 5d fc	 mov	 DWORD PTR __$EHRec$[ebp+8], ebx
  00022	c7 06 00 00 00
	00		 mov	 DWORD PTR [esi], OFFSET ??_7PetIconBtn@@6B@
  00028	ff 15 00 00 00
	00		 call	 DWORD PTR __imp_??0ioHashString@@QAE@XZ
  0002e	c6 45 fc 01	 mov	 BYTE PTR __$EHRec$[ebp+8], 1

; 14   : 	m_pEmpty = NULL;

  00032	89 9e fc 01 00
	00		 mov	 DWORD PTR [esi+508], ebx

; 15   : 	m_pIcon       = NULL;

  00038	89 9e 00 02 00
	00		 mov	 DWORD PTR [esi+512], ebx

; 16   : 	m_pIconBack   = NULL;

  0003e	89 9e 04 02 00
	00		 mov	 DWORD PTR [esi+516], ebx

; 17   : 	m_pBaseFrm = NULL;

  00044	89 9e 10 02 00
	00		 mov	 DWORD PTR [esi+528], ebx

; 18   : 	m_pSelectFrm = NULL;

  0004a	89 9e 18 02 00
	00		 mov	 DWORD PTR [esi+536], ebx

; 19   : 	m_pEquipFrm = NULL;

  00050	89 9e 1c 02 00
	00		 mov	 DWORD PTR [esi+540], ebx

; 20   : 	m_pEmptyFrm = NULL;

  00056	89 9e 14 02 00
	00		 mov	 DWORD PTR [esi+532], ebx

; 21   : 	m_pRankImg = NULL;

  0005c	89 9e 0c 02 00
	00		 mov	 DWORD PTR [esi+524], ebx

; 22   : 	m_pEquipText = NULL;

  00062	89 9e 08 02 00
	00		 mov	 DWORD PTR [esi+520], ebx

; 23   : 
; 24   : 	m_fScale = FLOAT1;

  00068	b8 01 00 00 00	 mov	 eax, 1
  0006d	89 45 ec	 mov	 DWORD PTR tv232[ebp], eax
  00070	db 45 ec	 fild	 DWORD PTR tv232[ebp]
  00073	85 c0		 test	 eax, eax
  00075	79 06		 jns	 SHORT $LN10@PetIconBtn@2
  00077	d8 05 00 00 00
	00		 fadd	 DWORD PTR __real@4f800000
$LN10@PetIconBtn@2:
  0007d	d9 9e 20 02 00
	00		 fstp	 DWORD PTR [esi+544]

; 25   : 	m_fBackScale = FLOAT1;

  00083	b8 01 00 00 00	 mov	 eax, 1
  00088	89 45 ec	 mov	 DWORD PTR tv228[ebp], eax
  0008b	db 45 ec	 fild	 DWORD PTR tv228[ebp]
  0008e	85 c0		 test	 eax, eax
  00090	79 06		 jns	 SHORT $LN11@PetIconBtn@2
  00092	d8 05 00 00 00
	00		 fadd	 DWORD PTR __real@4f800000
$LN11@PetIconBtn@2:

; 26   : 
; 27   : 	m_nPetCode = 0;
; 28   : 	m_nPetLevel = 0;
; 29   : 	m_nPetRank = 0;
; 30   : 	m_nSlotIndex = 0;
; 31   : 	m_nCurExp = 0;
; 32   : 
; 33   : 	m_nMaxLevel = 0;
; 34   : 	m_fExpRate = 0;

  00098	0f 57 c0	 xorps	 xmm0, xmm0
  0009b	d9 9e 24 02 00
	00		 fstp	 DWORD PTR [esi+548]

; 35   : 
; 36   : 	m_szPetRank.Clear();

  000a1	8d 8e 44 02 00
	00		 lea	 ecx, DWORD PTR [esi+580]
  000a7	89 9e 28 02 00
	00		 mov	 DWORD PTR [esi+552], ebx
  000ad	89 9e 2c 02 00
	00		 mov	 DWORD PTR [esi+556], ebx
  000b3	89 9e 30 02 00
	00		 mov	 DWORD PTR [esi+560], ebx
  000b9	89 9e 34 02 00
	00		 mov	 DWORD PTR [esi+564], ebx
  000bf	89 9e 38 02 00
	00		 mov	 DWORD PTR [esi+568], ebx
  000c5	89 9e 3c 02 00
	00		 mov	 DWORD PTR [esi+572], ebx
  000cb	f3 0f 11 86 40
	02 00 00	 movss	 DWORD PTR [esi+576], xmm0
  000d3	ff 15 00 00 00
	00		 call	 DWORD PTR __imp_?Clear@ioHashString@@QAEXXZ

; 37   : 
; 38   : 	m_bDesc = false;

  000d9	89 9e 54 02 00
	00		 mov	 DWORD PTR [esi+596], ebx

; 39   : 	m_bSelect = false;
; 40   : 	m_bEquip = false;
; 41   : 	m_bPreOver = false;
; 42   : 	m_bAddEquipText = false;

  000df	88 9e 60 02 00
	00		 mov	 BYTE PTR [esi+608], bl

; 43   : }

  000e5	8b c6		 mov	 eax, esi
  000e7	e8 00 00 00 00	 call	 __EH_epilog3
  000ec	c3		 ret	 0
_TEXT	ENDS
;	COMDAT text$x
text$x	SEGMENT
__unwindfunclet$??0PetIconBtn@@QAE@XZ$0:
  00000	8b 4d f0	 mov	 ecx, DWORD PTR _this$[ebp]
  00003	ff 25 00 00 00
	00		 jmp	 DWORD PTR __imp_??1ioButton@@UAE@XZ
__unwindfunclet$??0PetIconBtn@@QAE@XZ$1:
  00009	8b 4d f0	 mov	 ecx, DWORD PTR _this$[ebp]
  0000c	81 c1 44 02 00
	00		 add	 ecx, 580		; 00000244H
  00012	ff 25 00 00 00
	00		 jmp	 DWORD PTR __imp_??1ioHashString@@QAE@XZ
__ehhandler$??0PetIconBtn@@QAE@XZ:
  00018	8b 54 24 08	 mov	 edx, DWORD PTR [esp+8]
  0001c	8d 42 0c	 lea	 eax, DWORD PTR [edx+12]
  0001f	8b 4a e8	 mov	 ecx, DWORD PTR [edx-24]
  00022	33 c8		 xor	 ecx, eax
  00024	e8 00 00 00 00	 call	 @__security_check_cookie@4
  00029	b8 00 00 00 00	 mov	 eax, OFFSET __ehfuncinfo$??0PetIconBtn@@QAE@XZ
  0002e	e9 00 00 00 00	 jmp	 ___CxxFrameHandler3
text$x	ENDS
??0PetIconBtn@@QAE@XZ ENDP				; PetIconBtn::PetIconBtn
EXTRN	??3@YAXPAX@Z:PROC				; operator delete
; Function compile flags: /Ogsp
;	COMDAT ??_GPetIconBtn@@UAEPAXI@Z
_TEXT	SEGMENT
___flags$ = 8						; size = 4
??_GPetIconBtn@@UAEPAXI@Z PROC				; PetIconBtn::`scalar deleting destructor', COMDAT
; _this$ = ecx
  00000	55		 push	 ebp
  00001	8b ec		 mov	 ebp, esp
  00003	56		 push	 esi
  00004	8b f1		 mov	 esi, ecx
  00006	e8 00 00 00 00	 call	 ??1PetIconBtn@@UAE@XZ	; PetIconBtn::~PetIconBtn
  0000b	f6 45 08 01	 test	 BYTE PTR ___flags$[ebp], 1
  0000f	74 07		 je	 SHORT $LN1@scalar
  00011	56		 push	 esi
  00012	e8 00 00 00 00	 call	 ??3@YAXPAX@Z		; operator delete
  00017	59		 pop	 ecx
$LN1@scalar:
  00018	8b c6		 mov	 eax, esi
  0001a	5e		 pop	 esi
  0001b	5d		 pop	 ebp
  0001c	c2 04 00	 ret	 4
??_GPetIconBtn@@UAEPAXI@Z ENDP				; PetIconBtn::`scalar deleting destructor'
; Function compile flags: /Ogsp
_TEXT	ENDS
;	COMDAT ?OnDrawNormal@PetIconBtn@@MAEXHH@Z
_TEXT	SEGMENT
_nXPos$ = 8						; size = 4
_nYPos$ = 12						; size = 4
?OnDrawNormal@PetIconBtn@@MAEXHH@Z PROC			; PetIconBtn::OnDrawNormal, COMDAT
; _this$ = ecx

; 118  : {

  00000	55		 push	 ebp
  00001	8b ec		 mov	 ebp, esp
  00003	56		 push	 esi
  00004	8b f1		 mov	 esi, ecx

; 119  : 	if ( m_nPetCode > 0 )

  00006	83 be 28 02 00
	00 00		 cmp	 DWORD PTR [esi+552], 0
  0000d	7e 52		 jle	 SHORT $LN2@OnDrawNorm

; 120  :  	{
; 121  : 		//ÇÁ·¹ÀÓ·»´õ
; 122  : 		RenderBase( nXPos, nYPos );

  0000f	53		 push	 ebx
  00010	8b 5d 08	 mov	 ebx, DWORD PTR _nXPos$[ebp]
  00013	57		 push	 edi
  00014	8b 7d 0c	 mov	 edi, DWORD PTR _nYPos$[ebp]
  00017	57		 push	 edi
  00018	53		 push	 ebx
  00019	e8 00 00 00 00	 call	 ?RenderBase@PetIconBtn@@IAEXHH@Z ; PetIconBtn::RenderBase

; 123  :  		RenderEquip( nXPos, nYPos );

  0001e	57		 push	 edi
  0001f	53		 push	 ebx
  00020	8b ce		 mov	 ecx, esi
  00022	e8 00 00 00 00	 call	 ?RenderEquip@PetIconBtn@@IAEXHH@Z ; PetIconBtn::RenderEquip

; 124  :  		RenderSelect( nXPos, nYPos );

  00027	57		 push	 edi
  00028	53		 push	 ebx
  00029	8b ce		 mov	 ecx, esi
  0002b	e8 00 00 00 00	 call	 ?RenderSelect@PetIconBtn@@IAEXHH@Z ; PetIconBtn::RenderSelect

; 125  : 
; 126  :  		RenderBack( nXPos, nYPos );

  00030	57		 push	 edi
  00031	53		 push	 ebx
  00032	8b ce		 mov	 ecx, esi
  00034	e8 00 00 00 00	 call	 ?RenderBack@PetIconBtn@@IAEXHH@Z ; PetIconBtn::RenderBack

; 127  :  		RenderIcon( nXPos, nYPos );

  00039	57		 push	 edi
  0003a	53		 push	 ebx
  0003b	8b ce		 mov	 ecx, esi
  0003d	e8 00 00 00 00	 call	 ?RenderIcon@PetIconBtn@@IAEXHH@Z ; PetIconBtn::RenderIcon

; 128  :  		RenderRankColor( nXPos, nYPos );

  00042	57		 push	 edi
  00043	53		 push	 ebx
  00044	8b ce		 mov	 ecx, esi
  00046	e8 00 00 00 00	 call	 ?RenderRankColor@PetIconBtn@@IAEXHH@Z ; PetIconBtn::RenderRankColor

; 129  :  		RenderDesc( nXPos, nYPos );

  0004b	57		 push	 edi
  0004c	53		 push	 ebx
  0004d	8b ce		 mov	 ecx, esi
  0004f	e8 00 00 00 00	 call	 ?RenderDesc@PetIconBtn@@IAEXHH@Z ; PetIconBtn::RenderDesc

; 130  :  		RenderEquipText( nXPos, nYPos );

  00054	57		 push	 edi
  00055	53		 push	 ebx
  00056	8b ce		 mov	 ecx, esi
  00058	e8 00 00 00 00	 call	 ?RenderEquipText@PetIconBtn@@IAEXHH@Z ; PetIconBtn::RenderEquipText
  0005d	5f		 pop	 edi
  0005e	5b		 pop	 ebx

; 131  :  	}
; 132  :  	else

  0005f	eb 0b		 jmp	 SHORT $LN1@OnDrawNorm
$LN2@OnDrawNorm:

; 133  :  		RenderEmpty( nXPos, nYPos );

  00061	ff 75 0c	 push	 DWORD PTR _nYPos$[ebp]
  00064	ff 75 08	 push	 DWORD PTR _nXPos$[ebp]
  00067	e8 00 00 00 00	 call	 ?RenderEmpty@PetIconBtn@@IAEXHH@Z ; PetIconBtn::RenderEmpty
$LN1@OnDrawNorm:
  0006c	5e		 pop	 esi

; 134  : }

  0006d	5d		 pop	 ebp
  0006e	c2 08 00	 ret	 8
?OnDrawNormal@PetIconBtn@@MAEXHH@Z ENDP			; PetIconBtn::OnDrawNormal
_TEXT	ENDS
EXTRN	__imp_?OnDrawOveredAdd@ioButton@@MAEXHH@Z:PROC
; Function compile flags: /Ogsp
;	COMDAT ?OnDrawOvered@PetIconBtn@@MAEXHH@Z
_TEXT	SEGMENT
_nXPos$ = 8						; size = 4
_nYPos$ = 12						; size = 4
?OnDrawOvered@PetIconBtn@@MAEXHH@Z PROC			; PetIconBtn::OnDrawOvered, COMDAT
; _this$ = ecx

; 137  : {	

  00000	55		 push	 ebp
  00001	8b ec		 mov	 ebp, esp
  00003	56		 push	 esi
  00004	8b f1		 mov	 esi, ecx

; 138  : 	if ( m_nPetCode > 0 )

  00006	83 be 28 02 00
	00 00		 cmp	 DWORD PTR [esi+552], 0
  0000d	7e 5c		 jle	 SHORT $LN2@OnDrawOver

; 139  : 	{
; 140  : 		//ÇÁ·¹ÀÓ ·»´õ
; 141  : 		RenderBase( nXPos, nYPos );

  0000f	53		 push	 ebx
  00010	8b 5d 08	 mov	 ebx, DWORD PTR _nXPos$[ebp]
  00013	57		 push	 edi
  00014	8b 7d 0c	 mov	 edi, DWORD PTR _nYPos$[ebp]
  00017	57		 push	 edi
  00018	53		 push	 ebx
  00019	e8 00 00 00 00	 call	 ?RenderBase@PetIconBtn@@IAEXHH@Z ; PetIconBtn::RenderBase

; 142  : 		RenderEquip( nXPos, nYPos );

  0001e	57		 push	 edi
  0001f	53		 push	 ebx
  00020	8b ce		 mov	 ecx, esi
  00022	e8 00 00 00 00	 call	 ?RenderEquip@PetIconBtn@@IAEXHH@Z ; PetIconBtn::RenderEquip

; 143  : 		RenderSelect( nXPos, nYPos );

  00027	57		 push	 edi
  00028	53		 push	 ebx
  00029	8b ce		 mov	 ecx, esi
  0002b	e8 00 00 00 00	 call	 ?RenderSelect@PetIconBtn@@IAEXHH@Z ; PetIconBtn::RenderSelect

; 144  : 
; 145  : 		RenderBack( nXPos, nYPos );

  00030	57		 push	 edi
  00031	53		 push	 ebx
  00032	8b ce		 mov	 ecx, esi
  00034	e8 00 00 00 00	 call	 ?RenderBack@PetIconBtn@@IAEXHH@Z ; PetIconBtn::RenderBack

; 146  : 		RenderIcon( nXPos, nYPos );

  00039	57		 push	 edi
  0003a	53		 push	 ebx
  0003b	8b ce		 mov	 ecx, esi
  0003d	e8 00 00 00 00	 call	 ?RenderIcon@PetIconBtn@@IAEXHH@Z ; PetIconBtn::RenderIcon

; 147  : 		RenderRankColor( nXPos, nYPos );

  00042	57		 push	 edi
  00043	53		 push	 ebx
  00044	8b ce		 mov	 ecx, esi
  00046	e8 00 00 00 00	 call	 ?RenderRankColor@PetIconBtn@@IAEXHH@Z ; PetIconBtn::RenderRankColor

; 148  : 		RenderDesc( nXPos, nYPos );

  0004b	57		 push	 edi
  0004c	53		 push	 ebx
  0004d	8b ce		 mov	 ecx, esi
  0004f	e8 00 00 00 00	 call	 ?RenderDesc@PetIconBtn@@IAEXHH@Z ; PetIconBtn::RenderDesc

; 149  : 		RenderEquipText( nXPos, nYPos );

  00054	57		 push	 edi
  00055	53		 push	 ebx
  00056	8b ce		 mov	 ecx, esi
  00058	e8 00 00 00 00	 call	 ?RenderEquipText@PetIconBtn@@IAEXHH@Z ; PetIconBtn::RenderEquipText

; 150  : 
; 151  : 		//¿À¹ö Ãß°¡
; 152  : 		ioButton::OnDrawOveredAdd( nXPos, nYPos );

  0005d	57		 push	 edi
  0005e	53		 push	 ebx
  0005f	8b ce		 mov	 ecx, esi
  00061	ff 15 00 00 00
	00		 call	 DWORD PTR __imp_?OnDrawOveredAdd@ioButton@@MAEXHH@Z
  00067	5f		 pop	 edi
  00068	5b		 pop	 ebx

; 153  : 	}
; 154  : 	else

  00069	eb 0b		 jmp	 SHORT $LN1@OnDrawOver
$LN2@OnDrawOver:

; 155  : 		RenderEmpty( nXPos, nYPos );

  0006b	ff 75 0c	 push	 DWORD PTR _nYPos$[ebp]
  0006e	ff 75 08	 push	 DWORD PTR _nXPos$[ebp]
  00071	e8 00 00 00 00	 call	 ?RenderEmpty@PetIconBtn@@IAEXHH@Z ; PetIconBtn::RenderEmpty
$LN1@OnDrawOver:
  00076	5e		 pop	 esi

; 156  : }

  00077	5d		 pop	 ebp
  00078	c2 08 00	 ret	 8
?OnDrawOvered@PetIconBtn@@MAEXHH@Z ENDP			; PetIconBtn::OnDrawOvered
_TEXT	ENDS
EXTRN	__imp_?OnDrawPushed@ioButton@@MAEXHH@Z:PROC
; Function compile flags: /Ogsp
;	COMDAT ?OnDrawPushed@PetIconBtn@@MAEXHH@Z
_TEXT	SEGMENT
_nXPos$ = 8						; size = 4
_nYPos$ = 12						; size = 4
?OnDrawPushed@PetIconBtn@@MAEXHH@Z PROC			; PetIconBtn::OnDrawPushed, COMDAT
; _this$ = ecx

; 159  : {

  00000	55		 push	 ebp
  00001	8b ec		 mov	 ebp, esp
  00003	53		 push	 ebx

; 160  : 	ioButton::OnDrawPushed( nXPos, nYPos );

  00004	8b 5d 08	 mov	 ebx, DWORD PTR _nXPos$[ebp]
  00007	56		 push	 esi
  00008	57		 push	 edi
  00009	8b 7d 0c	 mov	 edi, DWORD PTR _nYPos$[ebp]
  0000c	57		 push	 edi
  0000d	53		 push	 ebx
  0000e	8b f1		 mov	 esi, ecx
  00010	ff 15 00 00 00
	00		 call	 DWORD PTR __imp_?OnDrawPushed@ioButton@@MAEXHH@Z

; 161  : 
; 162  : 	if ( m_nPetCode > 0 )

  00016	83 be 28 02 00
	00 00		 cmp	 DWORD PTR [esi+552], 0

; 163  : 	{
; 164  : 		RenderBase( nXPos, nYPos );

  0001d	57		 push	 edi
  0001e	8b ce		 mov	 ecx, esi
  00020	53		 push	 ebx
  00021	7e 46		 jle	 SHORT $LN2@OnDrawPush
  00023	e8 00 00 00 00	 call	 ?RenderBase@PetIconBtn@@IAEXHH@Z ; PetIconBtn::RenderBase

; 165  : 		RenderEquip( nXPos, nYPos );

  00028	57		 push	 edi
  00029	53		 push	 ebx
  0002a	8b ce		 mov	 ecx, esi
  0002c	e8 00 00 00 00	 call	 ?RenderEquip@PetIconBtn@@IAEXHH@Z ; PetIconBtn::RenderEquip

; 166  : 		RenderSelect( nXPos, nYPos );

  00031	57		 push	 edi
  00032	53		 push	 ebx
  00033	8b ce		 mov	 ecx, esi
  00035	e8 00 00 00 00	 call	 ?RenderSelect@PetIconBtn@@IAEXHH@Z ; PetIconBtn::RenderSelect

; 167  : 		RenderBack( nXPos, nYPos );

  0003a	57		 push	 edi
  0003b	53		 push	 ebx
  0003c	8b ce		 mov	 ecx, esi
  0003e	e8 00 00 00 00	 call	 ?RenderBack@PetIconBtn@@IAEXHH@Z ; PetIconBtn::RenderBack

; 168  : 		RenderIcon( nXPos, nYPos );

  00043	57		 push	 edi
  00044	53		 push	 ebx
  00045	8b ce		 mov	 ecx, esi
  00047	e8 00 00 00 00	 call	 ?RenderIcon@PetIconBtn@@IAEXHH@Z ; PetIconBtn::RenderIcon

; 169  : 		RenderRankColor( nXPos, nYPos );

  0004c	57		 push	 edi
  0004d	53		 push	 ebx
  0004e	8b ce		 mov	 ecx, esi
  00050	e8 00 00 00 00	 call	 ?RenderRankColor@PetIconBtn@@IAEXHH@Z ; PetIconBtn::RenderRankColor

; 170  : 		RenderDesc( nXPos, nYPos );

  00055	57		 push	 edi
  00056	53		 push	 ebx
  00057	8b ce		 mov	 ecx, esi
  00059	e8 00 00 00 00	 call	 ?RenderDesc@PetIconBtn@@IAEXHH@Z ; PetIconBtn::RenderDesc

; 171  : 		RenderEquipText( nXPos, nYPos );

  0005e	57		 push	 edi
  0005f	53		 push	 ebx
  00060	8b ce		 mov	 ecx, esi
  00062	e8 00 00 00 00	 call	 ?RenderEquipText@PetIconBtn@@IAEXHH@Z ; PetIconBtn::RenderEquipText

; 172  : 	}
; 173  : 	else

  00067	eb 05		 jmp	 SHORT $LN1@OnDrawPush
$LN2@OnDrawPush:

; 174  : 		RenderEmpty( nXPos, nYPos );

  00069	e8 00 00 00 00	 call	 ?RenderEmpty@PetIconBtn@@IAEXHH@Z ; PetIconBtn::RenderEmpty
$LN1@OnDrawPush:
  0006e	5f		 pop	 edi
  0006f	5e		 pop	 esi
  00070	5b		 pop	 ebx

; 175  : }

  00071	5d		 pop	 ebp
  00072	c2 08 00	 ret	 8
?OnDrawPushed@PetIconBtn@@MAEXHH@Z ENDP			; PetIconBtn::OnDrawPushed
_TEXT	ENDS
EXTRN	?Clear@PetToolTip@@QAEXXZ:PROC			; PetToolTip::Clear
EXTRN	?SetData@PetToolTip@@QAEXHHHH@Z:PROC		; PetToolTip::SetData
EXTRN	__imp_?FindWnd@ioGUIManager@@QAEPAVioWnd@@K@Z:PROC
EXTRN	?GetSingleton@ioSP2GUIManager@@SAAAV1@XZ:PROC	; ioSP2GUIManager::GetSingleton
EXTRN	__imp_?GetHeight@ioWnd@@QBEHXZ:PROC
EXTRN	__imp_?GetDerivedPosY@ioWnd@@QBEHXZ:PROC
EXTRN	__imp_?GetDerivedPosX@ioWnd@@QBEHXZ:PROC
EXTRN	?GetSingleton@ioApplication@@SAAAV1@XZ:PROC	; ioApplication::GetSingleton
EXTRN	__imp_?IsShow@ioWnd@@QBE_NXZ:PROC
; Function compile flags: /Ogsp
;	COMDAT ?OnProcess@PetIconBtn@@MAEXM@Z
_TEXT	SEGMENT
_fTimePerSec$ = 8					; size = 4
?OnProcess@PetIconBtn@@MAEXM@Z PROC			; PetIconBtn::OnProcess, COMDAT
; _this$ = ecx

; 180  : {

  00000	56		 push	 esi
  00001	8b f1		 mov	 esi, ecx

; 181  : 	if( !IsShow() ) 

  00003	ff 15 00 00 00
	00		 call	 DWORD PTR __imp_?IsShow@ioWnd@@QBE_NXZ
  00009	84 c0		 test	 al, al
  0000b	0f 84 c5 00 00
	00		 je	 $LN1@OnProcess

; 182  : 		return;
; 183  : 
; 184  : 	//µû¸£´Â Áß
; 185  : 	ChangeEquipText();

  00011	8b ce		 mov	 ecx, esi
  00013	e8 00 00 00 00	 call	 ?ChangeEquipText@PetIconBtn@@IAEXXZ ; PetIconBtn::ChangeEquipText

; 186  : 	
; 187  : 	ioLSMouse *pMouse = g_App.GetMouse();

  00018	e8 00 00 00 00	 call	 ?GetSingleton@ioApplication@@SAAAV1@XZ ; ioApplication::GetSingleton
  0001d	05 90 00 00 00	 add	 eax, 144		; 00000090H

; 188  : 	if( !pMouse )

  00022	0f 84 ae 00 00
	00		 je	 $LN1@OnProcess

; 189  : 		return;
; 190  : 
; 191  : 	RECT rcIn;
; 192  : 	rcIn.left = GetDerivedPosX();

  00028	8b ce		 mov	 ecx, esi
  0002a	ff 15 00 00 00
	00		 call	 DWORD PTR __imp_?GetDerivedPosX@ioWnd@@QBEHXZ

; 193  : 	rcIn.top  = GetDerivedPosY();

  00030	8b ce		 mov	 ecx, esi
  00032	ff 15 00 00 00
	00		 call	 DWORD PTR __imp_?GetDerivedPosY@ioWnd@@QBEHXZ

; 194  : 	rcIn.right  = rcIn.left + GetWidth();

  00038	8b ce		 mov	 ecx, esi
  0003a	ff 15 00 00 00
	00		 call	 DWORD PTR __imp_?GetWidth@ioWnd@@QBEHXZ

; 195  : 	rcIn.bottom = rcIn.top + GetHeight();

  00040	8b ce		 mov	 ecx, esi
  00042	ff 15 00 00 00
	00		 call	 DWORD PTR __imp_?GetHeight@ioWnd@@QBEHXZ

; 196  : 
; 197  : 	if( !m_bOver && !m_bPreOver )

  00048	8a 86 a8 00 00
	00		 mov	 al, BYTE PTR [esi+168]
  0004e	84 c0		 test	 al, al
  00050	75 0c		 jne	 SHORT $LN15@OnProcess
  00052	38 86 57 02 00
	00		 cmp	 BYTE PTR [esi+599], al
  00058	74 7c		 je	 SHORT $LN1@OnProcess

; 198  : 		return;
; 199  : 
; 200  : 	if( m_bOver && !m_bClicked )

  0005a	84 c0		 test	 al, al
  0005c	74 54		 je	 SHORT $LN17@OnProcess
$LN15@OnProcess:
  0005e	80 be a6 00 00
	00 00		 cmp	 BYTE PTR [esi+166], 0
  00065	75 47		 jne	 SHORT $LN6@OnProcess

; 201  : 	{		
; 202  : 		m_bPreOver = true;
; 203  : 
; 204  : 		if( m_nPetCode > 0 )

  00067	83 be 28 02 00
	00 00		 cmp	 DWORD PTR [esi+552], 0
  0006e	c6 86 57 02 00
	00 01		 mov	 BYTE PTR [esi+599], 1
  00075	7e 5f		 jle	 SHORT $LN1@OnProcess

; 205  : 		{			
; 206  : 			PetToolTip *pPetToolTip = (PetToolTip*)(g_GUIMgr.FindWnd( PET_TOOLTIP ));

  00077	68 67 18 00 00	 push	 6247			; 00001867H
  0007c	e8 00 00 00 00	 call	 ?GetSingleton@ioSP2GUIManager@@SAAAV1@XZ ; ioSP2GUIManager::GetSingleton
  00081	8b c8		 mov	 ecx, eax
  00083	ff 15 00 00 00
	00		 call	 DWORD PTR __imp_?FindWnd@ioGUIManager@@QAEPAVioWnd@@K@Z

; 207  : 			if ( pPetToolTip )

  00089	85 c0		 test	 eax, eax
  0008b	74 49		 je	 SHORT $LN1@OnProcess

; 208  : 				pPetToolTip->SetData( m_nPetCode, m_nPetLevel, m_nPetRank, m_nCurExp );

  0008d	ff b6 38 02 00
	00		 push	 DWORD PTR [esi+568]
  00093	8b c8		 mov	 ecx, eax
  00095	ff b6 30 02 00
	00		 push	 DWORD PTR [esi+560]
  0009b	ff b6 2c 02 00
	00		 push	 DWORD PTR [esi+556]
  000a1	ff b6 28 02 00
	00		 push	 DWORD PTR [esi+552]
  000a7	e8 00 00 00 00	 call	 ?SetData@PetToolTip@@QAEXHHHH@Z ; PetToolTip::SetData

; 209  : 		}
; 210  : 	}

  000ac	eb 28		 jmp	 SHORT $LN1@OnProcess
$LN6@OnProcess:

; 211  : 	else if ( !m_bOver )

  000ae	84 c0		 test	 al, al
  000b0	75 24		 jne	 SHORT $LN1@OnProcess
$LN17@OnProcess:

; 212  : 	{
; 213  : 		m_bPreOver = false;
; 214  : 
; 215  : 		PetToolTip *pPetToolTip = (PetToolTip*)(g_GUIMgr.FindWnd( PET_TOOLTIP ));

  000b2	68 67 18 00 00	 push	 6247			; 00001867H
  000b7	c6 86 57 02 00
	00 00		 mov	 BYTE PTR [esi+599], 0
  000be	e8 00 00 00 00	 call	 ?GetSingleton@ioSP2GUIManager@@SAAAV1@XZ ; ioSP2GUIManager::GetSingleton
  000c3	8b c8		 mov	 ecx, eax
  000c5	ff 15 00 00 00
	00		 call	 DWORD PTR __imp_?FindWnd@ioGUIManager@@QAEPAVioWnd@@K@Z

; 216  : 		if ( pPetToolTip )

  000cb	85 c0		 test	 eax, eax
  000cd	74 07		 je	 SHORT $LN1@OnProcess

; 217  : 			pPetToolTip->Clear();

  000cf	8b c8		 mov	 ecx, eax
  000d1	e8 00 00 00 00	 call	 ?Clear@PetToolTip@@QAEXXZ ; PetToolTip::Clear
$LN1@OnProcess:
  000d6	5e		 pop	 esi

; 218  : 	}
; 219  : }

  000d7	c2 04 00	 ret	 4
?OnProcess@PetIconBtn@@MAEXM@Z ENDP			; PetIconBtn::OnProcess
_TEXT	ENDS
PUBLIC	__$ArrayPad$
PUBLIC	??$?8$09@@YA_NABVioHashString@@AAY09$$CBD@Z	; operator==<10>
EXTRN	___security_cookie:DWORD
; Function compile flags: /Ogsp
; File d:\lost saga for developer\youtube\tutorial\source\src\io3dengine\iohashstring.h
;	COMDAT ??$?8$09@@YA_NABVioHashString@@AAY09$$CBD@Z
_TEXT	SEGMENT
__t$ = -20						; size = 10
__$ArrayPad$ = -4					; size = 4
_lhs$ = 8						; size = 4
_t$ = 12						; size = 4
??$?8$09@@YA_NABVioHashString@@AAY09$$CBD@Z PROC	; operator==<10>, COMDAT

; 146  : {

  00000	55		 push	 ebp
  00001	8b ec		 mov	 ebp, esp
  00003	83 ec 14	 sub	 esp, 20			; 00000014H
  00006	a1 00 00 00 00	 mov	 eax, DWORD PTR ___security_cookie
  0000b	33 c5		 xor	 eax, ebp
  0000d	89 45 fc	 mov	 DWORD PTR __$ArrayPad$[ebp], eax
  00010	8b 45 0c	 mov	 eax, DWORD PTR _t$[ebp]

; 147  : 	_ENCSTR(t, _t); return ( strcmp( lhs.c_str(), _t ) == 0 );

  00013	8a 10		 mov	 dl, BYTE PTR [eax]
  00015	8b 4d 08	 mov	 ecx, DWORD PTR _lhs$[ebp]
  00018	84 d2		 test	 dl, dl
  0001a	0f 84 0d 01 00
	00		 je	 $LN96@operator
  00020	80 f2 ed	 xor	 dl, -19			; ffffffedH
  00023	88 55 ec	 mov	 BYTE PTR __t$[ebp], dl
  00026	8a 50 01	 mov	 dl, BYTE PTR [eax+1]
  00029	84 d2		 test	 dl, dl
  0002b	0f 84 f6 00 00
	00		 je	 $LN95@operator
  00031	80 f2 ec	 xor	 dl, -20			; ffffffecH
  00034	88 55 ed	 mov	 BYTE PTR __t$[ebp+1], dl
  00037	8a 50 02	 mov	 dl, BYTE PTR [eax+2]
  0003a	84 d2		 test	 dl, dl
  0003c	0f 84 df 00 00
	00		 je	 $LN94@operator
  00042	80 f2 eb	 xor	 dl, -21			; ffffffebH
  00045	88 55 ee	 mov	 BYTE PTR __t$[ebp+2], dl
  00048	8a 50 03	 mov	 dl, BYTE PTR [eax+3]
  0004b	84 d2		 test	 dl, dl
  0004d	0f 84 c8 00 00
	00		 je	 $LN93@operator
  00053	80 f2 ea	 xor	 dl, -22			; ffffffeaH
  00056	88 55 ef	 mov	 BYTE PTR __t$[ebp+3], dl
  00059	8a 50 04	 mov	 dl, BYTE PTR [eax+4]
  0005c	84 d2		 test	 dl, dl
  0005e	0f 84 b1 00 00
	00		 je	 $LN92@operator
  00064	80 f2 ed	 xor	 dl, -19			; ffffffedH
  00067	88 55 f0	 mov	 BYTE PTR __t$[ebp+4], dl
  0006a	8a 50 05	 mov	 dl, BYTE PTR [eax+5]
  0006d	84 d2		 test	 dl, dl
  0006f	0f 84 9a 00 00
	00		 je	 $LN91@operator
  00075	80 f2 ec	 xor	 dl, -20			; ffffffecH
  00078	88 55 f1	 mov	 BYTE PTR __t$[ebp+5], dl
  0007b	8a 50 06	 mov	 dl, BYTE PTR [eax+6]
  0007e	84 d2		 test	 dl, dl
  00080	0f 84 83 00 00
	00		 je	 $LN90@operator
  00086	80 f2 eb	 xor	 dl, -21			; ffffffebH
  00089	88 55 f2	 mov	 BYTE PTR __t$[ebp+6], dl
  0008c	8a 50 07	 mov	 dl, BYTE PTR [eax+7]
  0008f	84 d2		 test	 dl, dl
  00091	74 70		 je	 SHORT $LN89@operator
  00093	80 f2 ea	 xor	 dl, -22			; ffffffeaH
  00096	88 55 f3	 mov	 BYTE PTR __t$[ebp+7], dl
  00099	8a 50 08	 mov	 dl, BYTE PTR [eax+8]
  0009c	84 d2		 test	 dl, dl
  0009e	74 5d		 je	 SHORT $LN88@operator
  000a0	80 f2 ed	 xor	 dl, -19			; ffffffedH
  000a3	80 78 09 00	 cmp	 BYTE PTR [eax+9], 0
  000a7	88 55 f4	 mov	 BYTE PTR __t$[ebp+8], dl
  000aa	0f 84 81 00 00
	00		 je	 $LN1@operator
  000b0	8a 50 0a	 mov	 dl, BYTE PTR [eax+10]
  000b3	84 d2		 test	 dl, dl
  000b5	74 40		 je	 SHORT $LN86@operator
  000b7	80 f2 eb	 xor	 dl, -21			; ffffffebH
  000ba	88 55 f6	 mov	 BYTE PTR __t$[ebp+10], dl
  000bd	8a 50 0b	 mov	 dl, BYTE PTR [eax+11]
  000c0	84 d2		 test	 dl, dl
  000c2	74 2d		 je	 SHORT $LN85@operator
  000c4	80 f2 ea	 xor	 dl, -22			; ffffffeaH
  000c7	88 55 f7	 mov	 BYTE PTR __t$[ebp+11], dl
  000ca	8a 50 0c	 mov	 dl, BYTE PTR [eax+12]
  000cd	84 d2		 test	 dl, dl
  000cf	74 1a		 je	 SHORT $LN84@operator
  000d1	8a 40 0d	 mov	 al, BYTE PTR [eax+13]
  000d4	80 f2 ed	 xor	 dl, -19			; ffffffedH
  000d7	88 55 f8	 mov	 BYTE PTR __t$[ebp+12], dl
  000da	84 c0		 test	 al, al
  000dc	74 07		 je	 SHORT $LN83@operator
  000de	34 ec		 xor	 al, -20			; ffffffecH
  000e0	88 45 f9	 mov	 BYTE PTR __t$[ebp+13], al
  000e3	eb 4c		 jmp	 SHORT $LN1@operator
$LN83@operator:
  000e5	c6 45 f9 ec	 mov	 BYTE PTR __t$[ebp+13], -20 ; ffffffecH
  000e9	eb 46		 jmp	 SHORT $LN1@operator
$LN84@operator:
  000eb	c6 45 f8 ed	 mov	 BYTE PTR __t$[ebp+12], -19 ; ffffffedH
  000ef	eb 40		 jmp	 SHORT $LN1@operator
$LN85@operator:
  000f1	c6 45 f7 ea	 mov	 BYTE PTR __t$[ebp+11], -22 ; ffffffeaH
  000f5	eb 3a		 jmp	 SHORT $LN1@operator
$LN86@operator:
  000f7	c6 45 f6 eb	 mov	 BYTE PTR __t$[ebp+10], -21 ; ffffffebH
  000fb	eb 34		 jmp	 SHORT $LN1@operator
$LN88@operator:
  000fd	c6 45 f4 ed	 mov	 BYTE PTR __t$[ebp+8], -19 ; ffffffedH
  00101	eb 2e		 jmp	 SHORT $LN1@operator
$LN89@operator:
  00103	c6 45 f3 ea	 mov	 BYTE PTR __t$[ebp+7], -22 ; ffffffeaH
  00107	eb 28		 jmp	 SHORT $LN1@operator
$LN90@operator:
  00109	c6 45 f2 eb	 mov	 BYTE PTR __t$[ebp+6], -21 ; ffffffebH
  0010d	eb 22		 jmp	 SHORT $LN1@operator
$LN91@operator:
  0010f	c6 45 f1 ec	 mov	 BYTE PTR __t$[ebp+5], -20 ; ffffffecH
  00113	eb 1c		 jmp	 SHORT $LN1@operator
$LN92@operator:
  00115	c6 45 f0 ed	 mov	 BYTE PTR __t$[ebp+4], -19 ; ffffffedH
  00119	eb 16		 jmp	 SHORT $LN1@operator
$LN93@operator:
  0011b	c6 45 ef ea	 mov	 BYTE PTR __t$[ebp+3], -22 ; ffffffeaH
  0011f	eb 10		 jmp	 SHORT $LN1@operator
$LN94@operator:
  00121	c6 45 ee eb	 mov	 BYTE PTR __t$[ebp+2], -21 ; ffffffebH
  00125	eb 0a		 jmp	 SHORT $LN1@operator
$LN95@operator:
  00127	c6 45 ed ec	 mov	 BYTE PTR __t$[ebp+1], -20 ; ffffffecH
  0012b	eb 04		 jmp	 SHORT $LN1@operator
$LN96@operator:
  0012d	c6 45 ec ed	 mov	 BYTE PTR __t$[ebp], -19	; ffffffedH
$LN1@operator:
  00131	6a 02		 push	 2
  00133	8d 45 ec	 lea	 eax, DWORD PTR __t$[ebp]
  00136	c6 45 f5 00	 mov	 BYTE PTR __t$[ebp+9], 0
  0013a	5a		 pop	 edx
$LL104@operator:
  0013b	81 30 ed ec eb
	ea		 xor	 DWORD PTR [eax], -353637139 ; eaebecedH
  00141	83 c0 04	 add	 eax, 4
  00144	4a		 dec	 edx
  00145	75 f4		 jne	 SHORT $LL104@operator
  00147	80 75 f4 ed	 xor	 BYTE PTR __t$[ebp+8], -19 ; ffffffedH
  0014b	56		 push	 esi
  0014c	8d 75 ec	 lea	 esi, DWORD PTR __t$[ebp]
  0014f	ff 15 00 00 00
	00		 call	 DWORD PTR __imp_?c_str@ioHashString@@QBEPBDXZ
$LL111@operator:
  00155	8a 08		 mov	 cl, BYTE PTR [eax]
  00157	3a 0e		 cmp	 cl, BYTE PTR [esi]
  00159	75 1a		 jne	 SHORT $LN112@operator
  0015b	84 c9		 test	 cl, cl
  0015d	74 12		 je	 SHORT $LN113@operator
  0015f	8a 48 01	 mov	 cl, BYTE PTR [eax+1]
  00162	3a 4e 01	 cmp	 cl, BYTE PTR [esi+1]
  00165	75 0e		 jne	 SHORT $LN112@operator
  00167	83 c0 02	 add	 eax, 2
  0016a	83 c6 02	 add	 esi, 2
  0016d	84 c9		 test	 cl, cl
  0016f	75 e4		 jne	 SHORT $LL111@operator
$LN113@operator:
  00171	33 c0		 xor	 eax, eax
  00173	eb 05		 jmp	 SHORT $LN114@operator
$LN112@operator:
  00175	1b c0		 sbb	 eax, eax
  00177	83 d8 ff	 sbb	 eax, -1
$LN114@operator:
  0017a	33 c9		 xor	 ecx, ecx
  0017c	85 c0		 test	 eax, eax
  0017e	0f 94 c0	 sete	 al

; 148  : }

  00181	8b 4d fc	 mov	 ecx, DWORD PTR __$ArrayPad$[ebp]
  00184	33 cd		 xor	 ecx, ebp
  00186	5e		 pop	 esi
  00187	e8 00 00 00 00	 call	 @__security_check_cookie@4
  0018c	c9		 leave
  0018d	c3		 ret	 0
??$?8$09@@YA_NABVioHashString@@AAY09$$CBD@Z ENDP	; operator==<10>
_TEXT	ENDS
PUBLIC	__$ArrayPad$
PUBLIC	??$?8$07@@YA_NABVioHashString@@AAY07$$CBD@Z	; operator==<8>
; Function compile flags: /Ogsp
;	COMDAT ??$?8$07@@YA_NABVioHashString@@AAY07$$CBD@Z
_TEXT	SEGMENT
__t$ = -16						; size = 8
__$ArrayPad$ = -4					; size = 4
_lhs$ = 8						; size = 4
_t$ = 12						; size = 4
??$?8$07@@YA_NABVioHashString@@AAY07$$CBD@Z PROC	; operator==<8>, COMDAT

; 146  : {

  00000	55		 push	 ebp
  00001	8b ec		 mov	 ebp, esp
  00003	83 ec 10	 sub	 esp, 16			; 00000010H
  00006	a1 00 00 00 00	 mov	 eax, DWORD PTR ___security_cookie
  0000b	33 c5		 xor	 eax, ebp
  0000d	89 45 fc	 mov	 DWORD PTR __$ArrayPad$[ebp], eax
  00010	8b 45 0c	 mov	 eax, DWORD PTR _t$[ebp]

; 147  : 	_ENCSTR(t, _t); return ( strcmp( lhs.c_str(), _t ) == 0 );

  00013	8a 10		 mov	 dl, BYTE PTR [eax]
  00015	56		 push	 esi
  00016	57		 push	 edi
  00017	8b 7d 08	 mov	 edi, DWORD PTR _lhs$[ebp]
  0001a	84 d2		 test	 dl, dl
  0001c	0f 84 d7 00 00
	00		 je	 $LN96@operator@2
  00022	80 f2 ed	 xor	 dl, -19			; ffffffedH
  00025	88 55 f0	 mov	 BYTE PTR __t$[ebp], dl
  00028	8a 50 01	 mov	 dl, BYTE PTR [eax+1]
  0002b	84 d2		 test	 dl, dl
  0002d	0f 84 c0 00 00
	00		 je	 $LN95@operator@2
  00033	80 f2 ec	 xor	 dl, -20			; ffffffecH
  00036	88 55 f1	 mov	 BYTE PTR __t$[ebp+1], dl
  00039	8a 50 02	 mov	 dl, BYTE PTR [eax+2]
  0003c	84 d2		 test	 dl, dl
  0003e	0f 84 a9 00 00
	00		 je	 $LN94@operator@2
  00044	80 f2 eb	 xor	 dl, -21			; ffffffebH
  00047	88 55 f2	 mov	 BYTE PTR __t$[ebp+2], dl
  0004a	8a 50 03	 mov	 dl, BYTE PTR [eax+3]
  0004d	84 d2		 test	 dl, dl
  0004f	0f 84 92 00 00
	00		 je	 $LN93@operator@2
  00055	80 f2 ea	 xor	 dl, -22			; ffffffeaH
  00058	88 55 f3	 mov	 BYTE PTR __t$[ebp+3], dl
  0005b	8a 50 04	 mov	 dl, BYTE PTR [eax+4]
  0005e	84 d2		 test	 dl, dl
  00060	74 7f		 je	 SHORT $LN92@operator@2
  00062	80 f2 ed	 xor	 dl, -19			; ffffffedH
  00065	88 55 f4	 mov	 BYTE PTR __t$[ebp+4], dl
  00068	8a 50 05	 mov	 dl, BYTE PTR [eax+5]
  0006b	84 d2		 test	 dl, dl
  0006d	74 6c		 je	 SHORT $LN91@operator@2
  0006f	80 f2 ec	 xor	 dl, -20			; ffffffecH
  00072	88 55 f5	 mov	 BYTE PTR __t$[ebp+5], dl
  00075	8a 50 06	 mov	 dl, BYTE PTR [eax+6]
  00078	84 d2		 test	 dl, dl
  0007a	74 59		 je	 SHORT $LN90@operator@2
  0007c	80 f2 eb	 xor	 dl, -21			; ffffffebH
  0007f	80 78 07 00	 cmp	 BYTE PTR [eax+7], 0
  00083	88 55 f6	 mov	 BYTE PTR __t$[ebp+6], dl
  00086	74 75		 je	 SHORT $LN1@operator@2
  00088	8a 50 08	 mov	 dl, BYTE PTR [eax+8]
  0008b	84 d2		 test	 dl, dl
  0008d	74 40		 je	 SHORT $LN88@operator@2
  0008f	80 f2 ed	 xor	 dl, -19			; ffffffedH
  00092	88 55 f8	 mov	 BYTE PTR __t$[ebp+8], dl
  00095	8a 50 09	 mov	 dl, BYTE PTR [eax+9]
  00098	84 d2		 test	 dl, dl
  0009a	74 2d		 je	 SHORT $LN87@operator@2
  0009c	80 f2 ec	 xor	 dl, -20			; ffffffecH
  0009f	88 55 f9	 mov	 BYTE PTR __t$[ebp+9], dl
  000a2	8a 50 0a	 mov	 dl, BYTE PTR [eax+10]
  000a5	84 d2		 test	 dl, dl
  000a7	74 1a		 je	 SHORT $LN86@operator@2
  000a9	8a 40 0b	 mov	 al, BYTE PTR [eax+11]
  000ac	80 f2 eb	 xor	 dl, -21			; ffffffebH
  000af	88 55 fa	 mov	 BYTE PTR __t$[ebp+10], dl
  000b2	84 c0		 test	 al, al
  000b4	74 07		 je	 SHORT $LN85@operator@2
  000b6	34 ea		 xor	 al, -22			; ffffffeaH
  000b8	88 45 fb	 mov	 BYTE PTR __t$[ebp+11], al
  000bb	eb 40		 jmp	 SHORT $LN1@operator@2
$LN85@operator@2:
  000bd	c6 45 fb ea	 mov	 BYTE PTR __t$[ebp+11], -22 ; ffffffeaH
  000c1	eb 3a		 jmp	 SHORT $LN1@operator@2
$LN86@operator@2:
  000c3	c6 45 fa eb	 mov	 BYTE PTR __t$[ebp+10], -21 ; ffffffebH
  000c7	eb 34		 jmp	 SHORT $LN1@operator@2
$LN87@operator@2:
  000c9	c6 45 f9 ec	 mov	 BYTE PTR __t$[ebp+9], -20 ; ffffffecH
  000cd	eb 2e		 jmp	 SHORT $LN1@operator@2
$LN88@operator@2:
  000cf	c6 45 f8 ed	 mov	 BYTE PTR __t$[ebp+8], -19 ; ffffffedH
  000d3	eb 28		 jmp	 SHORT $LN1@operator@2
$LN90@operator@2:
  000d5	c6 45 f6 eb	 mov	 BYTE PTR __t$[ebp+6], -21 ; ffffffebH
  000d9	eb 22		 jmp	 SHORT $LN1@operator@2
$LN91@operator@2:
  000db	c6 45 f5 ec	 mov	 BYTE PTR __t$[ebp+5], -20 ; ffffffecH
  000df	eb 1c		 jmp	 SHORT $LN1@operator@2
$LN92@operator@2:
  000e1	c6 45 f4 ed	 mov	 BYTE PTR __t$[ebp+4], -19 ; ffffffedH
  000e5	eb 16		 jmp	 SHORT $LN1@operator@2
$LN93@operator@2:
  000e7	c6 45 f3 ea	 mov	 BYTE PTR __t$[ebp+3], -22 ; ffffffeaH
  000eb	eb 10		 jmp	 SHORT $LN1@operator@2
$LN94@operator@2:
  000ed	c6 45 f2 eb	 mov	 BYTE PTR __t$[ebp+2], -21 ; ffffffebH
  000f1	eb 0a		 jmp	 SHORT $LN1@operator@2
$LN95@operator@2:
  000f3	c6 45 f1 ec	 mov	 BYTE PTR __t$[ebp+1], -20 ; ffffffecH
  000f7	eb 04		 jmp	 SHORT $LN1@operator@2
$LN96@operator@2:
  000f9	c6 45 f0 ed	 mov	 BYTE PTR __t$[ebp], -19	; ffffffedH
$LN1@operator@2:
  000fd	81 75 f0 ed ec
	eb ea		 xor	 DWORD PTR __t$[ebp], -353637139 ; eaebecedH
  00104	6a 04		 push	 4
  00106	c6 45 f7 00	 mov	 BYTE PTR __t$[ebp+7], 0
  0010a	58		 pop	 eax
$LL101@operator@2:
  0010b	8b c8		 mov	 ecx, eax
  0010d	81 e1 03 00 00
	80		 and	 ecx, -2147483645	; 80000003H
  00113	79 05		 jns	 SHORT $LN115@operator@2
  00115	49		 dec	 ecx
  00116	83 c9 fc	 or	 ecx, -4			; fffffffcH
  00119	41		 inc	 ecx
$LN115@operator@2:
  0011a	b2 ed		 mov	 dl, -19			; ffffffedH
  0011c	2a d1		 sub	 dl, cl
  0011e	30 54 05 f0	 xor	 BYTE PTR __t$[ebp+eax], dl
  00122	40		 inc	 eax
  00123	83 f8 07	 cmp	 eax, 7
  00126	7c e3		 jl	 SHORT $LL101@operator@2
  00128	8b cf		 mov	 ecx, edi
  0012a	8d 75 f0	 lea	 esi, DWORD PTR __t$[ebp]
  0012d	ff 15 00 00 00
	00		 call	 DWORD PTR __imp_?c_str@ioHashString@@QBEPBDXZ
$LL111@operator@2:
  00133	8a 08		 mov	 cl, BYTE PTR [eax]
  00135	3a 0e		 cmp	 cl, BYTE PTR [esi]
  00137	75 1a		 jne	 SHORT $LN112@operator@2
  00139	84 c9		 test	 cl, cl
  0013b	74 12		 je	 SHORT $LN113@operator@2
  0013d	8a 48 01	 mov	 cl, BYTE PTR [eax+1]
  00140	3a 4e 01	 cmp	 cl, BYTE PTR [esi+1]
  00143	75 0e		 jne	 SHORT $LN112@operator@2
  00145	83 c0 02	 add	 eax, 2
  00148	83 c6 02	 add	 esi, 2
  0014b	84 c9		 test	 cl, cl
  0014d	75 e4		 jne	 SHORT $LL111@operator@2
$LN113@operator@2:
  0014f	33 c0		 xor	 eax, eax
  00151	eb 05		 jmp	 SHORT $LN114@operator@2
$LN112@operator@2:
  00153	1b c0		 sbb	 eax, eax
  00155	83 d8 ff	 sbb	 eax, -1
$LN114@operator@2:
  00158	33 c9		 xor	 ecx, ecx
  0015a	85 c0		 test	 eax, eax
  0015c	0f 94 c0	 sete	 al

; 148  : }

  0015f	8b 4d fc	 mov	 ecx, DWORD PTR __$ArrayPad$[ebp]
  00162	5f		 pop	 edi
  00163	33 cd		 xor	 ecx, ebp
  00165	5e		 pop	 esi
  00166	e8 00 00 00 00	 call	 @__security_check_cookie@4
  0016b	c9		 leave
  0016c	c3		 ret	 0
??$?8$07@@YA_NABVioHashString@@AAY07$$CBD@Z ENDP	; operator==<8>
_TEXT	ENDS
PUBLIC	__$ArrayPad$
PUBLIC	??$?8$05@@YA_NABVioHashString@@AAY05$$CBD@Z	; operator==<6>
; Function compile flags: /Ogsp
;	COMDAT ??$?8$05@@YA_NABVioHashString@@AAY05$$CBD@Z
_TEXT	SEGMENT
__t$ = -16						; size = 6
__$ArrayPad$ = -4					; size = 4
_lhs$ = 8						; size = 4
_t$ = 12						; size = 4
??$?8$05@@YA_NABVioHashString@@AAY05$$CBD@Z PROC	; operator==<6>, COMDAT

; 146  : {

  00000	55		 push	 ebp
  00001	8b ec		 mov	 ebp, esp
  00003	83 ec 10	 sub	 esp, 16			; 00000010H
  00006	a1 00 00 00 00	 mov	 eax, DWORD PTR ___security_cookie
  0000b	33 c5		 xor	 eax, ebp
  0000d	89 45 fc	 mov	 DWORD PTR __$ArrayPad$[ebp], eax
  00010	8b 45 0c	 mov	 eax, DWORD PTR _t$[ebp]

; 147  : 	_ENCSTR(t, _t); return ( strcmp( lhs.c_str(), _t ) == 0 );

  00013	8a 10		 mov	 dl, BYTE PTR [eax]
  00015	8b 4d 08	 mov	 ecx, DWORD PTR _lhs$[ebp]
  00018	84 d2		 test	 dl, dl
  0001a	0f 84 a9 00 00
	00		 je	 $LN96@operator@3
  00020	80 f2 ed	 xor	 dl, -19			; ffffffedH
  00023	88 55 f0	 mov	 BYTE PTR __t$[ebp], dl
  00026	8a 50 01	 mov	 dl, BYTE PTR [eax+1]
  00029	84 d2		 test	 dl, dl
  0002b	0f 84 92 00 00
	00		 je	 $LN95@operator@3
  00031	80 f2 ec	 xor	 dl, -20			; ffffffecH
  00034	88 55 f1	 mov	 BYTE PTR __t$[ebp+1], dl
  00037	8a 50 02	 mov	 dl, BYTE PTR [eax+2]
  0003a	84 d2		 test	 dl, dl
  0003c	74 7f		 je	 SHORT $LN94@operator@3
  0003e	80 f2 eb	 xor	 dl, -21			; ffffffebH
  00041	88 55 f2	 mov	 BYTE PTR __t$[ebp+2], dl
  00044	8a 50 03	 mov	 dl, BYTE PTR [eax+3]
  00047	84 d2		 test	 dl, dl
  00049	74 6c		 je	 SHORT $LN93@operator@3
  0004b	80 f2 ea	 xor	 dl, -22			; ffffffeaH
  0004e	88 55 f3	 mov	 BYTE PTR __t$[ebp+3], dl
  00051	8a 50 04	 mov	 dl, BYTE PTR [eax+4]
  00054	84 d2		 test	 dl, dl
  00056	74 59		 je	 SHORT $LN92@operator@3
  00058	80 f2 ed	 xor	 dl, -19			; ffffffedH
  0005b	80 78 05 00	 cmp	 BYTE PTR [eax+5], 0
  0005f	88 55 f4	 mov	 BYTE PTR __t$[ebp+4], dl
  00062	74 69		 je	 SHORT $LN1@operator@3
  00064	8a 50 06	 mov	 dl, BYTE PTR [eax+6]
  00067	84 d2		 test	 dl, dl
  00069	74 40		 je	 SHORT $LN90@operator@3
  0006b	80 f2 eb	 xor	 dl, -21			; ffffffebH
  0006e	88 55 f6	 mov	 BYTE PTR __t$[ebp+6], dl
  00071	8a 50 07	 mov	 dl, BYTE PTR [eax+7]
  00074	84 d2		 test	 dl, dl
  00076	74 2d		 je	 SHORT $LN89@operator@3
  00078	80 f2 ea	 xor	 dl, -22			; ffffffeaH
  0007b	88 55 f7	 mov	 BYTE PTR __t$[ebp+7], dl
  0007e	8a 50 08	 mov	 dl, BYTE PTR [eax+8]
  00081	84 d2		 test	 dl, dl
  00083	74 1a		 je	 SHORT $LN88@operator@3
  00085	8a 40 09	 mov	 al, BYTE PTR [eax+9]
  00088	80 f2 ed	 xor	 dl, -19			; ffffffedH
  0008b	88 55 f8	 mov	 BYTE PTR __t$[ebp+8], dl
  0008e	84 c0		 test	 al, al
  00090	74 07		 je	 SHORT $LN87@operator@3
  00092	34 ec		 xor	 al, -20			; ffffffecH
  00094	88 45 f9	 mov	 BYTE PTR __t$[ebp+9], al
  00097	eb 34		 jmp	 SHORT $LN1@operator@3
$LN87@operator@3:
  00099	c6 45 f9 ec	 mov	 BYTE PTR __t$[ebp+9], -20 ; ffffffecH
  0009d	eb 2e		 jmp	 SHORT $LN1@operator@3
$LN88@operator@3:
  0009f	c6 45 f8 ed	 mov	 BYTE PTR __t$[ebp+8], -19 ; ffffffedH
  000a3	eb 28		 jmp	 SHORT $LN1@operator@3
$LN89@operator@3:
  000a5	c6 45 f7 ea	 mov	 BYTE PTR __t$[ebp+7], -22 ; ffffffeaH
  000a9	eb 22		 jmp	 SHORT $LN1@operator@3
$LN90@operator@3:
  000ab	c6 45 f6 eb	 mov	 BYTE PTR __t$[ebp+6], -21 ; ffffffebH
  000af	eb 1c		 jmp	 SHORT $LN1@operator@3
$LN92@operator@3:
  000b1	c6 45 f4 ed	 mov	 BYTE PTR __t$[ebp+4], -19 ; ffffffedH
  000b5	eb 16		 jmp	 SHORT $LN1@operator@3
$LN93@operator@3:
  000b7	c6 45 f3 ea	 mov	 BYTE PTR __t$[ebp+3], -22 ; ffffffeaH
  000bb	eb 10		 jmp	 SHORT $LN1@operator@3
$LN94@operator@3:
  000bd	c6 45 f2 eb	 mov	 BYTE PTR __t$[ebp+2], -21 ; ffffffebH
  000c1	eb 0a		 jmp	 SHORT $LN1@operator@3
$LN95@operator@3:
  000c3	c6 45 f1 ec	 mov	 BYTE PTR __t$[ebp+1], -20 ; ffffffecH
  000c7	eb 04		 jmp	 SHORT $LN1@operator@3
$LN96@operator@3:
  000c9	c6 45 f0 ed	 mov	 BYTE PTR __t$[ebp], -19	; ffffffedH
$LN1@operator@3:
  000cd	81 75 f0 ed ec
	eb ea		 xor	 DWORD PTR __t$[ebp], -353637139 ; eaebecedH
  000d4	80 75 f4 ed	 xor	 BYTE PTR __t$[ebp+4], -19 ; ffffffedH
  000d8	56		 push	 esi
  000d9	c6 45 f5 00	 mov	 BYTE PTR __t$[ebp+5], 0
  000dd	8d 75 f0	 lea	 esi, DWORD PTR __t$[ebp]
  000e0	ff 15 00 00 00
	00		 call	 DWORD PTR __imp_?c_str@ioHashString@@QBEPBDXZ
$LL111@operator@3:
  000e6	8a 08		 mov	 cl, BYTE PTR [eax]
  000e8	3a 0e		 cmp	 cl, BYTE PTR [esi]
  000ea	75 1a		 jne	 SHORT $LN112@operator@3
  000ec	84 c9		 test	 cl, cl
  000ee	74 12		 je	 SHORT $LN113@operator@3
  000f0	8a 48 01	 mov	 cl, BYTE PTR [eax+1]
  000f3	3a 4e 01	 cmp	 cl, BYTE PTR [esi+1]
  000f6	75 0e		 jne	 SHORT $LN112@operator@3
  000f8	83 c0 02	 add	 eax, 2
  000fb	83 c6 02	 add	 esi, 2
  000fe	84 c9		 test	 cl, cl
  00100	75 e4		 jne	 SHORT $LL111@operator@3
$LN113@operator@3:
  00102	33 c0		 xor	 eax, eax
  00104	eb 05		 jmp	 SHORT $LN114@operator@3
$LN112@operator@3:
  00106	1b c0		 sbb	 eax, eax
  00108	83 d8 ff	 sbb	 eax, -1
$LN114@operator@3:
  0010b	33 c9		 xor	 ecx, ecx
  0010d	85 c0		 test	 eax, eax
  0010f	0f 94 c0	 sete	 al

; 148  : }

  00112	8b 4d fc	 mov	 ecx, DWORD PTR __$ArrayPad$[ebp]
  00115	33 cd		 xor	 ecx, ebp
  00117	5e		 pop	 esi
  00118	e8 00 00 00 00	 call	 @__security_check_cookie@4
  0011d	c9		 leave
  0011e	c3		 ret	 0
??$?8$05@@YA_NABVioHashString@@AAY05$$CBD@Z ENDP	; operator==<6>
_TEXT	ENDS
PUBLIC	__$ArrayPad$
PUBLIC	??$?8$08@@YA_NABVioHashString@@AAY08$$CBD@Z	; operator==<9>
; Function compile flags: /Ogsp
;	COMDAT ??$?8$08@@YA_NABVioHashString@@AAY08$$CBD@Z
_TEXT	SEGMENT
__t$ = -20						; size = 9
__$ArrayPad$ = -4					; size = 4
_lhs$ = 8						; size = 4
_t$ = 12						; size = 4
??$?8$08@@YA_NABVioHashString@@AAY08$$CBD@Z PROC	; operator==<9>, COMDAT

; 146  : {

  00000	55		 push	 ebp
  00001	8b ec		 mov	 ebp, esp
  00003	83 ec 14	 sub	 esp, 20			; 00000014H
  00006	a1 00 00 00 00	 mov	 eax, DWORD PTR ___security_cookie
  0000b	33 c5		 xor	 eax, ebp
  0000d	89 45 fc	 mov	 DWORD PTR __$ArrayPad$[ebp], eax
  00010	8b 45 0c	 mov	 eax, DWORD PTR _t$[ebp]

; 147  : 	_ENCSTR(t, _t); return ( strcmp( lhs.c_str(), _t ) == 0 );

  00013	8a 10		 mov	 dl, BYTE PTR [eax]
  00015	8b 4d 08	 mov	 ecx, DWORD PTR _lhs$[ebp]
  00018	84 d2		 test	 dl, dl
  0001a	0f 84 ee 00 00
	00		 je	 $LN96@operator@4
  00020	80 f2 ed	 xor	 dl, -19			; ffffffedH
  00023	88 55 ec	 mov	 BYTE PTR __t$[ebp], dl
  00026	8a 50 01	 mov	 dl, BYTE PTR [eax+1]
  00029	84 d2		 test	 dl, dl
  0002b	0f 84 d7 00 00
	00		 je	 $LN95@operator@4
  00031	80 f2 ec	 xor	 dl, -20			; ffffffecH
  00034	88 55 ed	 mov	 BYTE PTR __t$[ebp+1], dl
  00037	8a 50 02	 mov	 dl, BYTE PTR [eax+2]
  0003a	84 d2		 test	 dl, dl
  0003c	0f 84 c0 00 00
	00		 je	 $LN94@operator@4
  00042	80 f2 eb	 xor	 dl, -21			; ffffffebH
  00045	88 55 ee	 mov	 BYTE PTR __t$[ebp+2], dl
  00048	8a 50 03	 mov	 dl, BYTE PTR [eax+3]
  0004b	84 d2		 test	 dl, dl
  0004d	0f 84 a9 00 00
	00		 je	 $LN93@operator@4
  00053	80 f2 ea	 xor	 dl, -22			; ffffffeaH
  00056	88 55 ef	 mov	 BYTE PTR __t$[ebp+3], dl
  00059	8a 50 04	 mov	 dl, BYTE PTR [eax+4]
  0005c	84 d2		 test	 dl, dl
  0005e	0f 84 92 00 00
	00		 je	 $LN92@operator@4
  00064	80 f2 ed	 xor	 dl, -19			; ffffffedH
  00067	88 55 f0	 mov	 BYTE PTR __t$[ebp+4], dl
  0006a	8a 50 05	 mov	 dl, BYTE PTR [eax+5]
  0006d	84 d2		 test	 dl, dl
  0006f	74 7f		 je	 SHORT $LN91@operator@4
  00071	80 f2 ec	 xor	 dl, -20			; ffffffecH
  00074	88 55 f1	 mov	 BYTE PTR __t$[ebp+5], dl
  00077	8a 50 06	 mov	 dl, BYTE PTR [eax+6]
  0007a	84 d2		 test	 dl, dl
  0007c	74 6c		 je	 SHORT $LN90@operator@4
  0007e	80 f2 eb	 xor	 dl, -21			; ffffffebH
  00081	88 55 f2	 mov	 BYTE PTR __t$[ebp+6], dl
  00084	8a 50 07	 mov	 dl, BYTE PTR [eax+7]
  00087	84 d2		 test	 dl, dl
  00089	74 59		 je	 SHORT $LN89@operator@4
  0008b	80 f2 ea	 xor	 dl, -22			; ffffffeaH
  0008e	80 78 08 00	 cmp	 BYTE PTR [eax+8], 0
  00092	88 55 f3	 mov	 BYTE PTR __t$[ebp+7], dl
  00095	74 7b		 je	 SHORT $LN1@operator@4
  00097	8a 50 09	 mov	 dl, BYTE PTR [eax+9]
  0009a	84 d2		 test	 dl, dl
  0009c	74 40		 je	 SHORT $LN87@operator@4
  0009e	80 f2 ec	 xor	 dl, -20			; ffffffecH
  000a1	88 55 f5	 mov	 BYTE PTR __t$[ebp+9], dl
  000a4	8a 50 0a	 mov	 dl, BYTE PTR [eax+10]
  000a7	84 d2		 test	 dl, dl
  000a9	74 2d		 je	 SHORT $LN86@operator@4
  000ab	80 f2 eb	 xor	 dl, -21			; ffffffebH
  000ae	88 55 f6	 mov	 BYTE PTR __t$[ebp+10], dl
  000b1	8a 50 0b	 mov	 dl, BYTE PTR [eax+11]
  000b4	84 d2		 test	 dl, dl
  000b6	74 1a		 je	 SHORT $LN85@operator@4
  000b8	8a 40 0c	 mov	 al, BYTE PTR [eax+12]
  000bb	80 f2 ea	 xor	 dl, -22			; ffffffeaH
  000be	88 55 f7	 mov	 BYTE PTR __t$[ebp+11], dl
  000c1	84 c0		 test	 al, al
  000c3	74 07		 je	 SHORT $LN84@operator@4
  000c5	34 ed		 xor	 al, -19			; ffffffedH
  000c7	88 45 f8	 mov	 BYTE PTR __t$[ebp+12], al
  000ca	eb 46		 jmp	 SHORT $LN1@operator@4
$LN84@operator@4:
  000cc	c6 45 f8 ed	 mov	 BYTE PTR __t$[ebp+12], -19 ; ffffffedH
  000d0	eb 40		 jmp	 SHORT $LN1@operator@4
$LN85@operator@4:
  000d2	c6 45 f7 ea	 mov	 BYTE PTR __t$[ebp+11], -22 ; ffffffeaH
  000d6	eb 3a		 jmp	 SHORT $LN1@operator@4
$LN86@operator@4:
  000d8	c6 45 f6 eb	 mov	 BYTE PTR __t$[ebp+10], -21 ; ffffffebH
  000dc	eb 34		 jmp	 SHORT $LN1@operator@4
$LN87@operator@4:
  000de	c6 45 f5 ec	 mov	 BYTE PTR __t$[ebp+9], -20 ; ffffffecH
  000e2	eb 2e		 jmp	 SHORT $LN1@operator@4
$LN89@operator@4:
  000e4	c6 45 f3 ea	 mov	 BYTE PTR __t$[ebp+7], -22 ; ffffffeaH
  000e8	eb 28		 jmp	 SHORT $LN1@operator@4
$LN90@operator@4:
  000ea	c6 45 f2 eb	 mov	 BYTE PTR __t$[ebp+6], -21 ; ffffffebH
  000ee	eb 22		 jmp	 SHORT $LN1@operator@4
$LN91@operator@4:
  000f0	c6 45 f1 ec	 mov	 BYTE PTR __t$[ebp+5], -20 ; ffffffecH
  000f4	eb 1c		 jmp	 SHORT $LN1@operator@4
$LN92@operator@4:
  000f6	c6 45 f0 ed	 mov	 BYTE PTR __t$[ebp+4], -19 ; ffffffedH
  000fa	eb 16		 jmp	 SHORT $LN1@operator@4
$LN93@operator@4:
  000fc	c6 45 ef ea	 mov	 BYTE PTR __t$[ebp+3], -22 ; ffffffeaH
  00100	eb 10		 jmp	 SHORT $LN1@operator@4
$LN94@operator@4:
  00102	c6 45 ee eb	 mov	 BYTE PTR __t$[ebp+2], -21 ; ffffffebH
  00106	eb 0a		 jmp	 SHORT $LN1@operator@4
$LN95@operator@4:
  00108	c6 45 ed ec	 mov	 BYTE PTR __t$[ebp+1], -20 ; ffffffecH
  0010c	eb 04		 jmp	 SHORT $LN1@operator@4
$LN96@operator@4:
  0010e	c6 45 ec ed	 mov	 BYTE PTR __t$[ebp], -19	; ffffffedH
$LN1@operator@4:
  00112	6a 02		 push	 2
  00114	8d 45 ec	 lea	 eax, DWORD PTR __t$[ebp]
  00117	c6 45 f4 00	 mov	 BYTE PTR __t$[ebp+8], 0
  0011b	5a		 pop	 edx
$LL104@operator@4:
  0011c	81 30 ed ec eb
	ea		 xor	 DWORD PTR [eax], -353637139 ; eaebecedH
  00122	83 c0 04	 add	 eax, 4
  00125	4a		 dec	 edx
  00126	75 f4		 jne	 SHORT $LL104@operator@4
  00128	56		 push	 esi
  00129	8d 75 ec	 lea	 esi, DWORD PTR __t$[ebp]
  0012c	ff 15 00 00 00
	00		 call	 DWORD PTR __imp_?c_str@ioHashString@@QBEPBDXZ
$LL111@operator@4:
  00132	8a 08		 mov	 cl, BYTE PTR [eax]
  00134	3a 0e		 cmp	 cl, BYTE PTR [esi]
  00136	75 1a		 jne	 SHORT $LN112@operator@4
  00138	84 c9		 test	 cl, cl
  0013a	74 12		 je	 SHORT $LN113@operator@4
  0013c	8a 48 01	 mov	 cl, BYTE PTR [eax+1]
  0013f	3a 4e 01	 cmp	 cl, BYTE PTR [esi+1]
  00142	75 0e		 jne	 SHORT $LN112@operator@4
  00144	83 c0 02	 add	 eax, 2
  00147	83 c6 02	 add	 esi, 2
  0014a	84 c9		 test	 cl, cl
  0014c	75 e4		 jne	 SHORT $LL111@operator@4
$LN113@operator@4:
  0014e	33 c0		 xor	 eax, eax
  00150	eb 05		 jmp	 SHORT $LN114@operator@4
$LN112@operator@4:
  00152	1b c0		 sbb	 eax, eax
  00154	83 d8 ff	 sbb	 eax, -1
$LN114@operator@4:
  00157	33 c9		 xor	 ecx, ecx
  00159	85 c0		 test	 eax, eax
  0015b	0f 94 c0	 sete	 al

; 148  : }

  0015e	8b 4d fc	 mov	 ecx, DWORD PTR __$ArrayPad$[ebp]
  00161	33 cd		 xor	 ecx, ebp
  00163	5e		 pop	 esi
  00164	e8 00 00 00 00	 call	 @__security_check_cookie@4
  00169	c9		 leave
  0016a	c3		 ret	 0
??$?8$08@@YA_NABVioHashString@@AAY08$$CBD@Z ENDP	; operator==<9>
_TEXT	ENDS
PUBLIC	__$ArrayPad$
PUBLIC	??$GetIntAttribute_e@$0M@@ioXMLElement@@QBEHAAY0M@$$CBD@Z ; ioXMLElement::GetIntAttribute_e<12>
EXTRN	__imp_?GetIntAttribute@ioXMLElement@@QBEHPBD@Z:PROC
; Function compile flags: /Ogsp
; File d:\lost saga for developer\youtube\tutorial\source\src\io3dengine\ioxmlelement.h
;	COMDAT ??$GetIntAttribute_e@$0M@@ioXMLElement@@QBEHAAY0M@$$CBD@Z
_TEXT	SEGMENT
__k$ = -20						; size = 12
__$ArrayPad$ = -4					; size = 4
_k$ = 8							; size = 4
??$GetIntAttribute_e@$0M@@ioXMLElement@@QBEHAAY0M@$$CBD@Z PROC ; ioXMLElement::GetIntAttribute_e<12>, COMDAT
; _this$ = ecx

; 86   : 	{

  00000	55		 push	 ebp
  00001	8b ec		 mov	 ebp, esp
  00003	83 ec 14	 sub	 esp, 20			; 00000014H
  00006	a1 00 00 00 00	 mov	 eax, DWORD PTR ___security_cookie
  0000b	33 c5		 xor	 eax, ebp
  0000d	89 45 fc	 mov	 DWORD PTR __$ArrayPad$[ebp], eax
  00010	8b 45 08	 mov	 eax, DWORD PTR _k$[ebp]

; 87   : 		_ENCSTR(k, _k);

  00013	8a 10		 mov	 dl, BYTE PTR [eax]
  00015	56		 push	 esi
  00016	8b f1		 mov	 esi, ecx
  00018	84 d2		 test	 dl, dl
  0001a	0f 84 32 01 00
	00		 je	 $LN96@GetIntAttr
  00020	80 f2 ed	 xor	 dl, -19			; ffffffedH
  00023	88 55 ec	 mov	 BYTE PTR __k$[ebp], dl
  00026	8a 50 01	 mov	 dl, BYTE PTR [eax+1]
  00029	84 d2		 test	 dl, dl
  0002b	0f 84 1b 01 00
	00		 je	 $LN95@GetIntAttr
  00031	80 f2 ec	 xor	 dl, -20			; ffffffecH
  00034	88 55 ed	 mov	 BYTE PTR __k$[ebp+1], dl
  00037	8a 50 02	 mov	 dl, BYTE PTR [eax+2]
  0003a	84 d2		 test	 dl, dl
  0003c	0f 84 04 01 00
	00		 je	 $LN94@GetIntAttr
  00042	b1 eb		 mov	 cl, -21			; ffffffebH
  00044	32 d1		 xor	 dl, cl
  00046	88 55 ee	 mov	 BYTE PTR __k$[ebp+2], dl
  00049	8a 50 03	 mov	 dl, BYTE PTR [eax+3]
  0004c	84 d2		 test	 dl, dl
  0004e	0f 84 ec 00 00
	00		 je	 $LN93@GetIntAttr
  00054	80 f2 ea	 xor	 dl, -22			; ffffffeaH
  00057	88 55 ef	 mov	 BYTE PTR __k$[ebp+3], dl
  0005a	8a 50 04	 mov	 dl, BYTE PTR [eax+4]
  0005d	84 d2		 test	 dl, dl
  0005f	0f 84 d5 00 00
	00		 je	 $LN92@GetIntAttr
  00065	80 f2 ed	 xor	 dl, -19			; ffffffedH
  00068	88 55 f0	 mov	 BYTE PTR __k$[ebp+4], dl
  0006b	8a 50 05	 mov	 dl, BYTE PTR [eax+5]
  0006e	84 d2		 test	 dl, dl
  00070	0f 84 be 00 00
	00		 je	 $LN91@GetIntAttr
  00076	80 f2 ec	 xor	 dl, -20			; ffffffecH
  00079	88 55 f1	 mov	 BYTE PTR __k$[ebp+5], dl
  0007c	8a 50 06	 mov	 dl, BYTE PTR [eax+6]
  0007f	84 d2		 test	 dl, dl
  00081	0f 84 a8 00 00
	00		 je	 $LN90@GetIntAttr
  00087	32 d1		 xor	 dl, cl
  00089	88 55 f2	 mov	 BYTE PTR __k$[ebp+6], dl
  0008c	8a 50 07	 mov	 dl, BYTE PTR [eax+7]
  0008f	84 d2		 test	 dl, dl
  00091	0f 84 92 00 00
	00		 je	 $LN89@GetIntAttr
  00097	80 f2 ea	 xor	 dl, -22			; ffffffeaH
  0009a	88 55 f3	 mov	 BYTE PTR __k$[ebp+7], dl
  0009d	8a 50 08	 mov	 dl, BYTE PTR [eax+8]
  000a0	84 d2		 test	 dl, dl
  000a2	74 7f		 je	 SHORT $LN88@GetIntAttr
  000a4	80 f2 ed	 xor	 dl, -19			; ffffffedH
  000a7	88 55 f4	 mov	 BYTE PTR __k$[ebp+8], dl
  000aa	8a 50 09	 mov	 dl, BYTE PTR [eax+9]
  000ad	84 d2		 test	 dl, dl
  000af	74 6c		 je	 SHORT $LN87@GetIntAttr
  000b1	80 f2 ec	 xor	 dl, -20			; ffffffecH
  000b4	88 55 f5	 mov	 BYTE PTR __k$[ebp+9], dl
  000b7	8a 50 0a	 mov	 dl, BYTE PTR [eax+10]
  000ba	84 d2		 test	 dl, dl
  000bc	74 5a		 je	 SHORT $LN86@GetIntAttr
  000be	32 d1		 xor	 dl, cl
  000c0	80 78 0b 00	 cmp	 BYTE PTR [eax+11], 0
  000c4	88 55 f6	 mov	 BYTE PTR __k$[ebp+10], dl
  000c7	0f 84 89 00 00
	00		 je	 $LN1@GetIntAttr
  000cd	8a 50 0c	 mov	 dl, BYTE PTR [eax+12]
  000d0	84 d2		 test	 dl, dl
  000d2	74 3e		 je	 SHORT $LN84@GetIntAttr
  000d4	80 f2 ed	 xor	 dl, -19			; ffffffedH
  000d7	88 55 f8	 mov	 BYTE PTR __k$[ebp+12], dl
  000da	8a 50 0d	 mov	 dl, BYTE PTR [eax+13]
  000dd	84 d2		 test	 dl, dl
  000df	74 2b		 je	 SHORT $LN83@GetIntAttr
  000e1	80 f2 ec	 xor	 dl, -20			; ffffffecH
  000e4	88 55 f9	 mov	 BYTE PTR __k$[ebp+13], dl
  000e7	8a 50 0e	 mov	 dl, BYTE PTR [eax+14]
  000ea	84 d2		 test	 dl, dl
  000ec	74 19		 je	 SHORT $LN82@GetIntAttr
  000ee	8a 40 0f	 mov	 al, BYTE PTR [eax+15]
  000f1	32 d1		 xor	 dl, cl
  000f3	88 55 fa	 mov	 BYTE PTR __k$[ebp+14], dl
  000f6	84 c0		 test	 al, al
  000f8	74 07		 je	 SHORT $LN81@GetIntAttr
  000fa	34 ea		 xor	 al, -22			; ffffffeaH
  000fc	88 45 fb	 mov	 BYTE PTR __k$[ebp+15], al
  000ff	eb 55		 jmp	 SHORT $LN1@GetIntAttr
$LN81@GetIntAttr:
  00101	c6 45 fb ea	 mov	 BYTE PTR __k$[ebp+15], -22 ; ffffffeaH
  00105	eb 4f		 jmp	 SHORT $LN1@GetIntAttr
$LN82@GetIntAttr:
  00107	88 4d fa	 mov	 BYTE PTR __k$[ebp+14], cl
  0010a	eb 4a		 jmp	 SHORT $LN1@GetIntAttr
$LN83@GetIntAttr:
  0010c	c6 45 f9 ec	 mov	 BYTE PTR __k$[ebp+13], -20 ; ffffffecH
  00110	eb 44		 jmp	 SHORT $LN1@GetIntAttr
$LN84@GetIntAttr:
  00112	c6 45 f8 ed	 mov	 BYTE PTR __k$[ebp+12], -19 ; ffffffedH
  00116	eb 3e		 jmp	 SHORT $LN1@GetIntAttr
$LN86@GetIntAttr:
  00118	88 4d f6	 mov	 BYTE PTR __k$[ebp+10], cl
  0011b	eb 39		 jmp	 SHORT $LN1@GetIntAttr
$LN87@GetIntAttr:
  0011d	c6 45 f5 ec	 mov	 BYTE PTR __k$[ebp+9], -20 ; ffffffecH
  00121	eb 33		 jmp	 SHORT $LN1@GetIntAttr
$LN88@GetIntAttr:
  00123	c6 45 f4 ed	 mov	 BYTE PTR __k$[ebp+8], -19 ; ffffffedH
  00127	eb 2d		 jmp	 SHORT $LN1@GetIntAttr
$LN89@GetIntAttr:
  00129	c6 45 f3 ea	 mov	 BYTE PTR __k$[ebp+7], -22 ; ffffffeaH
  0012d	eb 27		 jmp	 SHORT $LN1@GetIntAttr
$LN90@GetIntAttr:
  0012f	88 4d f2	 mov	 BYTE PTR __k$[ebp+6], cl
  00132	eb 22		 jmp	 SHORT $LN1@GetIntAttr
$LN91@GetIntAttr:
  00134	c6 45 f1 ec	 mov	 BYTE PTR __k$[ebp+5], -20 ; ffffffecH
  00138	eb 1c		 jmp	 SHORT $LN1@GetIntAttr
$LN92@GetIntAttr:
  0013a	c6 45 f0 ed	 mov	 BYTE PTR __k$[ebp+4], -19 ; ffffffedH
  0013e	eb 16		 jmp	 SHORT $LN1@GetIntAttr
$LN93@GetIntAttr:
  00140	c6 45 ef ea	 mov	 BYTE PTR __k$[ebp+3], -22 ; ffffffeaH
  00144	eb 10		 jmp	 SHORT $LN1@GetIntAttr
$LN94@GetIntAttr:
  00146	c6 45 ee eb	 mov	 BYTE PTR __k$[ebp+2], -21 ; ffffffebH
  0014a	eb 0a		 jmp	 SHORT $LN1@GetIntAttr
$LN95@GetIntAttr:
  0014c	c6 45 ed ec	 mov	 BYTE PTR __k$[ebp+1], -20 ; ffffffecH
  00150	eb 04		 jmp	 SHORT $LN1@GetIntAttr
$LN96@GetIntAttr:
  00152	c6 45 ec ed	 mov	 BYTE PTR __k$[ebp], -19	; ffffffedH
$LN1@GetIntAttr:
  00156	6a 02		 push	 2
  00158	8d 45 ec	 lea	 eax, DWORD PTR __k$[ebp]
  0015b	c6 45 f7 00	 mov	 BYTE PTR __k$[ebp+11], 0
  0015f	5a		 pop	 edx
$LL104@GetIntAttr:
  00160	81 30 ed ec eb
	ea		 xor	 DWORD PTR [eax], -353637139 ; eaebecedH
  00166	83 c0 04	 add	 eax, 4
  00169	4a		 dec	 edx
  0016a	75 f4		 jne	 SHORT $LL104@GetIntAttr
  0016c	6a 08		 push	 8
  0016e	58		 pop	 eax
$LL101@GetIntAttr:
  0016f	8b c8		 mov	 ecx, eax
  00171	81 e1 03 00 00
	80		 and	 ecx, -2147483645	; 80000003H
  00177	79 05		 jns	 SHORT $LN111@GetIntAttr
  00179	49		 dec	 ecx
  0017a	83 c9 fc	 or	 ecx, -4			; fffffffcH
  0017d	41		 inc	 ecx
$LN111@GetIntAttr:
  0017e	b2 ed		 mov	 dl, -19			; ffffffedH
  00180	2a d1		 sub	 dl, cl
  00182	30 54 05 ec	 xor	 BYTE PTR __k$[ebp+eax], dl
  00186	40		 inc	 eax
  00187	83 f8 0b	 cmp	 eax, 11			; 0000000bH
  0018a	7c e3		 jl	 SHORT $LL101@GetIntAttr

; 88   : 		return GetIntAttribute(_k);

  0018c	8d 45 ec	 lea	 eax, DWORD PTR __k$[ebp]
  0018f	50		 push	 eax
  00190	8b ce		 mov	 ecx, esi
  00192	ff 15 00 00 00
	00		 call	 DWORD PTR __imp_?GetIntAttribute@ioXMLElement@@QBEHPBD@Z

; 89   : 	}

  00198	8b 4d fc	 mov	 ecx, DWORD PTR __$ArrayPad$[ebp]
  0019b	33 cd		 xor	 ecx, ebp
  0019d	5e		 pop	 esi
  0019e	e8 00 00 00 00	 call	 @__security_check_cookie@4
  001a3	c9		 leave
  001a4	c2 04 00	 ret	 4
??$GetIntAttribute_e@$0M@@ioXMLElement@@QBEHAAY0M@$$CBD@Z ENDP ; ioXMLElement::GetIntAttribute_e<12>
_TEXT	ENDS
PUBLIC	_szType$GSCopy$
PUBLIC	_pImage$GSCopy$
PUBLIC	_this$GSCopy$
PUBLIC	__$ArrayPad$
EXTRN	__imp_?AddRenderImage@ioButton@@UAEXABVioHashString@@PAVioUIRenderImage@@@Z:PROC
; Function compile flags: /Ogsp
; File d:\lost saga for developer\youtube\tutorial\source\src\lsclient\gui\peticonbtn.cpp
;	COMDAT ?AddRenderImage@PetIconBtn@@UAEXABVioHashString@@PAVioUIRenderImage@@@Z
_TEXT	SEGMENT
_szType$GSCopy$ = -32					; size = 4
_pImage$GSCopy$ = -28					; size = 4
_this$GSCopy$ = -24					; size = 4
__t$507308 = -20					; size = 9
__t$507084 = -20					; size = 8
__t$506946 = -20					; size = 10
__t$507183 = -16					; size = 6
__$ArrayPad$ = -4					; size = 4
_szType$ = 8						; size = 4
_pImage$ = 12						; size = 4
?AddRenderImage@PetIconBtn@@UAEXABVioHashString@@PAVioUIRenderImage@@@Z PROC ; PetIconBtn::AddRenderImage, COMDAT
; _this$ = ecx

; 59   : {

  00000	55		 push	 ebp
  00001	8b ec		 mov	 ebp, esp
  00003	83 ec 20	 sub	 esp, 32			; 00000020H
  00006	a1 00 00 00 00	 mov	 eax, DWORD PTR ___security_cookie
  0000b	33 c5		 xor	 eax, ebp
  0000d	89 45 fc	 mov	 DWORD PTR __$ArrayPad$[ebp], eax
  00010	8b 45 0c	 mov	 eax, DWORD PTR _pImage$[ebp]
  00013	8b 55 08	 mov	 edx, DWORD PTR _szType$[ebp]
  00016	53		 push	 ebx
  00017	56		 push	 esi
  00018	57		 push	 edi

; 60   : 	if( szType == "EquipText" )

  00019	6a 02		 push	 2
  0001b	89 4d e8	 mov	 DWORD PTR _this$GSCopy$[ebp], ecx

; 76   : 	{
; 77   : 		SAFEDELETE( m_pIconBack );

  0001e	89 45 e4	 mov	 DWORD PTR _pImage$GSCopy$[ebp], eax
  00021	89 55 e0	 mov	 DWORD PTR _szType$GSCopy$[ebp], edx
  00024	c7 45 ec a8 9d
	9e 83		 mov	 DWORD PTR __t$506946[ebp], -2086756952 ; 839e9da8H
  0002b	c7 45 f0 9d b8
	8e 92		 mov	 DWORD PTR __t$506946[ebp+4], -1836140387 ; 928eb89dH
  00032	8d 45 ec	 lea	 eax, DWORD PTR __t$506946[ebp]
  00035	33 db		 xor	 ebx, ebx
  00037	66 c7 45 f4 99
	00		 mov	 WORD PTR __t$506946[ebp+8], 153 ; 00000099H
  0003d	59		 pop	 ecx
  0003e	bf ed ec eb ea	 mov	 edi, -353637139		; eaebecedH
$LL126@AddRenderI:

; 60   : 	if( szType == "EquipText" )

  00043	31 38		 xor	 DWORD PTR [eax], edi
  00045	83 c0 04	 add	 eax, 4
  00048	49		 dec	 ecx
  00049	75 f8		 jne	 SHORT $LL126@AddRenderI
  0004b	80 75 f4 ed	 xor	 BYTE PTR __t$506946[ebp+8], -19 ; ffffffedH
  0004f	8b ca		 mov	 ecx, edx
  00051	8d 75 ec	 lea	 esi, DWORD PTR __t$506946[ebp]
  00054	ff 15 00 00 00
	00		 call	 DWORD PTR __imp_?c_str@ioHashString@@QBEPBDXZ
$LL466@AddRenderI:
  0005a	8a 08		 mov	 cl, BYTE PTR [eax]
  0005c	3a 0e		 cmp	 cl, BYTE PTR [esi]
  0005e	75 1a		 jne	 SHORT $LN467@AddRenderI
  00060	3a cb		 cmp	 cl, bl
  00062	74 12		 je	 SHORT $LN468@AddRenderI
  00064	8a 48 01	 mov	 cl, BYTE PTR [eax+1]
  00067	3a 4e 01	 cmp	 cl, BYTE PTR [esi+1]
  0006a	75 0e		 jne	 SHORT $LN467@AddRenderI
  0006c	83 c0 02	 add	 eax, 2
  0006f	83 c6 02	 add	 esi, 2
  00072	3a cb		 cmp	 cl, bl
  00074	75 e4		 jne	 SHORT $LL466@AddRenderI
$LN468@AddRenderI:
  00076	33 c0		 xor	 eax, eax
  00078	eb 05		 jmp	 SHORT $LN469@AddRenderI
$LN467@AddRenderI:
  0007a	1b c0		 sbb	 eax, eax
  0007c	83 d8 ff	 sbb	 eax, -1
$LN469@AddRenderI:
  0007f	3b c3		 cmp	 eax, ebx
  00081	75 28		 jne	 SHORT $LN463@AddRenderI

; 61   : 	{
; 62   : 		SAFEDELETE( m_pEquipText );

  00083	8b 75 e8	 mov	 esi, DWORD PTR _this$GSCopy$[ebp]
  00086	8b 8e 08 02 00
	00		 mov	 ecx, DWORD PTR [esi+520]
  0008c	3b cb		 cmp	 ecx, ebx
  0008e	74 0d		 je	 SHORT $LN11@AddRenderI
  00090	8b 01		 mov	 eax, DWORD PTR [ecx]
  00092	6a 01		 push	 1
  00094	ff 50 40	 call	 DWORD PTR [eax+64]
  00097	89 9e 08 02 00
	00		 mov	 DWORD PTR [esi+520], ebx
$LN11@AddRenderI:

; 63   : 		m_pEquipText = pImage;

  0009d	8b 45 e4	 mov	 eax, DWORD PTR _pImage$GSCopy$[ebp]
  000a0	89 86 08 02 00
	00		 mov	 DWORD PTR [esi+520], eax
  000a6	e9 83 01 00 00	 jmp	 $LN1@AddRenderI
$LN463@AddRenderI:

; 64   : 	}
; 65   : 	else if( szType == "RankBar" )

  000ab	6a 04		 push	 4
  000ad	c7 45 ec bf 8d
	85 81		 mov	 DWORD PTR __t$507084[ebp], -2121953857 ; 81858dbfH
  000b4	31 7d ec	 xor	 DWORD PTR __t$507084[ebp], edi
  000b7	c7 45 f0 af 8d
	99 00		 mov	 DWORD PTR __t$507084[ebp+4], 10063279 ; 00998dafH
  000be	58		 pop	 eax
$LL229@AddRenderI:
  000bf	8b c8		 mov	 ecx, eax
  000c1	81 e1 03 00 00
	80		 and	 ecx, -2147483645	; 80000003H
  000c7	79 05		 jns	 SHORT $LN482@AddRenderI
  000c9	49		 dec	 ecx
  000ca	83 c9 fc	 or	 ecx, -4			; fffffffcH
  000cd	41		 inc	 ecx
$LN482@AddRenderI:
  000ce	b2 ed		 mov	 dl, -19			; ffffffedH
  000d0	2a d1		 sub	 dl, cl
  000d2	30 54 05 ec	 xor	 BYTE PTR __t$507084[ebp+eax], dl
  000d6	40		 inc	 eax
  000d7	83 f8 07	 cmp	 eax, 7
  000da	7c e3		 jl	 SHORT $LL229@AddRenderI
  000dc	8b 4d e0	 mov	 ecx, DWORD PTR _szType$GSCopy$[ebp]
  000df	8d 75 ec	 lea	 esi, DWORD PTR __t$507084[ebp]
  000e2	ff 15 00 00 00
	00		 call	 DWORD PTR __imp_?c_str@ioHashString@@QBEPBDXZ
$LL470@AddRenderI:
  000e8	8a 08		 mov	 cl, BYTE PTR [eax]
  000ea	3a 0e		 cmp	 cl, BYTE PTR [esi]
  000ec	75 1a		 jne	 SHORT $LN471@AddRenderI
  000ee	3a cb		 cmp	 cl, bl
  000f0	74 12		 je	 SHORT $LN472@AddRenderI
  000f2	8a 48 01	 mov	 cl, BYTE PTR [eax+1]
  000f5	3a 4e 01	 cmp	 cl, BYTE PTR [esi+1]
  000f8	75 0e		 jne	 SHORT $LN471@AddRenderI
  000fa	83 c0 02	 add	 eax, 2
  000fd	83 c6 02	 add	 esi, 2
  00100	3a cb		 cmp	 cl, bl
  00102	75 e4		 jne	 SHORT $LL470@AddRenderI
$LN472@AddRenderI:
  00104	33 c0		 xor	 eax, eax
  00106	eb 05		 jmp	 SHORT $LN473@AddRenderI
$LN471@AddRenderI:
  00108	1b c0		 sbb	 eax, eax
  0010a	83 d8 ff	 sbb	 eax, -1
$LN473@AddRenderI:
  0010d	3b c3		 cmp	 eax, ebx
  0010f	75 28		 jne	 SHORT $LN464@AddRenderI

; 66   : 	{
; 67   : 		SAFEDELETE( m_pRankImg );

  00111	8b 75 e8	 mov	 esi, DWORD PTR _this$GSCopy$[ebp]
  00114	8b 8e 0c 02 00
	00		 mov	 ecx, DWORD PTR [esi+524]
  0011a	3b cb		 cmp	 ecx, ebx
  0011c	74 0d		 je	 SHORT $LN8@AddRenderI
  0011e	8b 01		 mov	 eax, DWORD PTR [ecx]
  00120	6a 01		 push	 1
  00122	ff 50 40	 call	 DWORD PTR [eax+64]
  00125	89 9e 0c 02 00
	00		 mov	 DWORD PTR [esi+524], ebx
$LN8@AddRenderI:

; 68   : 		m_pRankImg = pImage;

  0012b	8b 45 e4	 mov	 eax, DWORD PTR _pImage$GSCopy$[ebp]
  0012e	89 86 0c 02 00
	00		 mov	 DWORD PTR [esi+524], eax
  00134	e9 f5 00 00 00	 jmp	 $LN1@AddRenderI
$LN464@AddRenderI:

; 69   : 	}
; 70   : 	else if( szType == "Empty" )

  00139	8b 4d e0	 mov	 ecx, DWORD PTR _szType$GSCopy$[ebp]
  0013c	c7 45 f0 a8 81
	9b 9e		 mov	 DWORD PTR __t$507183[ebp], -1633975896 ; 9e9b81a8H
  00143	31 7d f0	 xor	 DWORD PTR __t$507183[ebp], edi
  00146	66 c7 45 f4 79
	00		 mov	 WORD PTR __t$507183[ebp+4], 121 ; 00000079H
  0014c	8d 75 f0	 lea	 esi, DWORD PTR __t$507183[ebp]
  0014f	ff 15 00 00 00
	00		 call	 DWORD PTR __imp_?c_str@ioHashString@@QBEPBDXZ
$LL474@AddRenderI:
  00155	8a 08		 mov	 cl, BYTE PTR [eax]
  00157	3a 0e		 cmp	 cl, BYTE PTR [esi]
  00159	75 1a		 jne	 SHORT $LN475@AddRenderI
  0015b	3a cb		 cmp	 cl, bl
  0015d	74 12		 je	 SHORT $LN476@AddRenderI
  0015f	8a 48 01	 mov	 cl, BYTE PTR [eax+1]
  00162	3a 4e 01	 cmp	 cl, BYTE PTR [esi+1]
  00165	75 0e		 jne	 SHORT $LN475@AddRenderI
  00167	83 c0 02	 add	 eax, 2
  0016a	83 c6 02	 add	 esi, 2
  0016d	3a cb		 cmp	 cl, bl
  0016f	75 e4		 jne	 SHORT $LL474@AddRenderI
$LN476@AddRenderI:
  00171	33 c0		 xor	 eax, eax
  00173	eb 05		 jmp	 SHORT $LN477@AddRenderI
$LN475@AddRenderI:
  00175	1b c0		 sbb	 eax, eax
  00177	83 d8 ff	 sbb	 eax, -1
$LN477@AddRenderI:
  0017a	3b c3		 cmp	 eax, ebx
  0017c	75 28		 jne	 SHORT $LN465@AddRenderI

; 71   : 	{
; 72   : 		SAFEDELETE( m_pEmpty );

  0017e	8b 75 e8	 mov	 esi, DWORD PTR _this$GSCopy$[ebp]
  00181	8b 8e fc 01 00
	00		 mov	 ecx, DWORD PTR [esi+508]
  00187	3b cb		 cmp	 ecx, ebx
  00189	74 0d		 je	 SHORT $LN5@AddRenderI
  0018b	8b 01		 mov	 eax, DWORD PTR [ecx]
  0018d	6a 01		 push	 1
  0018f	ff 50 40	 call	 DWORD PTR [eax+64]
  00192	89 9e fc 01 00
	00		 mov	 DWORD PTR [esi+508], ebx
$LN5@AddRenderI:

; 73   : 		m_pEmpty = pImage;

  00198	8b 45 e4	 mov	 eax, DWORD PTR _pImage$GSCopy$[ebp]
  0019b	89 86 fc 01 00
	00		 mov	 DWORD PTR [esi+508], eax
  001a1	e9 88 00 00 00	 jmp	 $LN1@AddRenderI
$LN465@AddRenderI:

; 74   : 	}
; 75   : 	else if( szType == "IconBack" )

  001a6	6a 02		 push	 2
  001a8	c7 45 ec a4 8f
	84 84		 mov	 DWORD PTR __t$507308[ebp], -2071687260 ; 84848fa4H
  001af	c7 45 f0 af 8d
	88 81		 mov	 DWORD PTR __t$507308[ebp+4], -2121757265 ; 81888dafH
  001b6	8d 45 ec	 lea	 eax, DWORD PTR __t$507308[ebp]
  001b9	88 5d f4	 mov	 BYTE PTR __t$507308[ebp+8], bl
  001bc	59		 pop	 ecx
$LL444@AddRenderI:
  001bd	31 38		 xor	 DWORD PTR [eax], edi
  001bf	83 c0 04	 add	 eax, 4
  001c2	49		 dec	 ecx
  001c3	75 f8		 jne	 SHORT $LL444@AddRenderI
  001c5	8b 4d e0	 mov	 ecx, DWORD PTR _szType$GSCopy$[ebp]
  001c8	8d 75 ec	 lea	 esi, DWORD PTR __t$507308[ebp]
  001cb	ff 15 00 00 00
	00		 call	 DWORD PTR __imp_?c_str@ioHashString@@QBEPBDXZ
$LL478@AddRenderI:
  001d1	8a 08		 mov	 cl, BYTE PTR [eax]
  001d3	3a 0e		 cmp	 cl, BYTE PTR [esi]
  001d5	75 1a		 jne	 SHORT $LN479@AddRenderI
  001d7	3a cb		 cmp	 cl, bl
  001d9	74 12		 je	 SHORT $LN480@AddRenderI
  001db	8a 48 01	 mov	 cl, BYTE PTR [eax+1]
  001de	3a 4e 01	 cmp	 cl, BYTE PTR [esi+1]
  001e1	75 0e		 jne	 SHORT $LN479@AddRenderI
  001e3	83 c0 02	 add	 eax, 2
  001e6	83 c6 02	 add	 esi, 2
  001e9	3a cb		 cmp	 cl, bl
  001eb	75 e4		 jne	 SHORT $LL478@AddRenderI
$LN480@AddRenderI:
  001ed	33 c0		 xor	 eax, eax
  001ef	eb 05		 jmp	 SHORT $LN481@AddRenderI
$LN479@AddRenderI:
  001f1	1b c0		 sbb	 eax, eax
  001f3	83 d8 ff	 sbb	 eax, -1
$LN481@AddRenderI:
  001f6	3b c3		 cmp	 eax, ebx
  001f8	75 25		 jne	 SHORT $LN3@AddRenderI

; 76   : 	{
; 77   : 		SAFEDELETE( m_pIconBack );

  001fa	8b 75 e8	 mov	 esi, DWORD PTR _this$GSCopy$[ebp]
  001fd	8b 8e 04 02 00
	00		 mov	 ecx, DWORD PTR [esi+516]
  00203	3b cb		 cmp	 ecx, ebx
  00205	74 0d		 je	 SHORT $LN2@AddRenderI
  00207	8b 01		 mov	 eax, DWORD PTR [ecx]
  00209	6a 01		 push	 1
  0020b	ff 50 40	 call	 DWORD PTR [eax+64]
  0020e	89 9e 04 02 00
	00		 mov	 DWORD PTR [esi+516], ebx
$LN2@AddRenderI:

; 78   : 		m_pIconBack = pImage;

  00214	8b 45 e4	 mov	 eax, DWORD PTR _pImage$GSCopy$[ebp]
  00217	89 86 04 02 00
	00		 mov	 DWORD PTR [esi+516], eax

; 79   : 	}
; 80   : 	else

  0021d	eb 0f		 jmp	 SHORT $LN1@AddRenderI
$LN3@AddRenderI:

; 81   : 		ioButton::AddRenderImage( szType, pImage );	

  0021f	ff 75 e4	 push	 DWORD PTR _pImage$GSCopy$[ebp]
  00222	8b 4d e8	 mov	 ecx, DWORD PTR _this$GSCopy$[ebp]
  00225	ff 75 e0	 push	 DWORD PTR _szType$GSCopy$[ebp]
  00228	ff 15 00 00 00
	00		 call	 DWORD PTR __imp_?AddRenderImage@ioButton@@UAEXABVioHashString@@PAVioUIRenderImage@@@Z
$LN1@AddRenderI:

; 82   : }

  0022e	8b 4d fc	 mov	 ecx, DWORD PTR __$ArrayPad$[ebp]
  00231	5f		 pop	 edi
  00232	5e		 pop	 esi
  00233	33 cd		 xor	 ecx, ebp
  00235	5b		 pop	 ebx
  00236	e8 00 00 00 00	 call	 @__security_check_cookie@4
  0023b	c9		 leave
  0023c	c2 08 00	 ret	 8
?AddRenderImage@PetIconBtn@@UAEXABVioHashString@@PAVioUIRenderImage@@@Z ENDP ; PetIconBtn::AddRenderImage
_TEXT	ENDS
PUBLIC	_szType$GSCopy$
PUBLIC	_pFrame$GSCopy$
PUBLIC	_this$GSCopy$
PUBLIC	__$ArrayPad$
EXTRN	__imp_?AddRenderFrame@ioButton@@UAEXABVioHashString@@PAVioUIRenderFrame@@@Z:PROC
; Function compile flags: /Ogsp
;	COMDAT ?AddRenderFrame@PetIconBtn@@UAEXABVioHashString@@PAVioUIRenderFrame@@@Z
_TEXT	SEGMENT
_szType$GSCopy$ = -32					; size = 4
_pFrame$GSCopy$ = -28					; size = 4
_this$GSCopy$ = -24					; size = 4
__t$507865 = -20					; size = 9
__t$507740 = -20					; size = 10
__t$507641 = -20					; size = 8
__t$507490 = -20					; size = 9
__$ArrayPad$ = -4					; size = 4
_szType$ = 8						; size = 4
_pFrame$ = 12						; size = 4
?AddRenderFrame@PetIconBtn@@UAEXABVioHashString@@PAVioUIRenderFrame@@@Z PROC ; PetIconBtn::AddRenderFrame, COMDAT
; _this$ = ecx

; 85   : {

  00000	55		 push	 ebp
  00001	8b ec		 mov	 ebp, esp
  00003	83 ec 20	 sub	 esp, 32			; 00000020H
  00006	a1 00 00 00 00	 mov	 eax, DWORD PTR ___security_cookie
  0000b	33 c5		 xor	 eax, ebp
  0000d	89 45 fc	 mov	 DWORD PTR __$ArrayPad$[ebp], eax
  00010	8b 45 0c	 mov	 eax, DWORD PTR _pFrame$[ebp]
  00013	8b 55 08	 mov	 edx, DWORD PTR _szType$[ebp]
  00016	53		 push	 ebx
  00017	56		 push	 esi
  00018	57		 push	 edi

; 86   : 	if( szType == "EmptyFrm" )

  00019	33 db		 xor	 ebx, ebx
  0001b	6a 02		 push	 2
  0001d	89 4d e8	 mov	 DWORD PTR _this$GSCopy$[ebp], ecx

; 102  : 	{
; 103  : 		SAFEDELETE( m_pEquipFrm );

  00020	89 45 e4	 mov	 DWORD PTR _pFrame$GSCopy$[ebp], eax
  00023	89 55 e0	 mov	 DWORD PTR _szType$GSCopy$[ebp], edx
  00026	c7 45 ec a8 81
	9b 9e		 mov	 DWORD PTR __t$507490[ebp], -1633975896 ; 9e9b81a8H
  0002d	c7 45 f0 94 aa
	99 87		 mov	 DWORD PTR __t$507490[ebp+4], -2019972460 ; 8799aa94H
  00034	8d 45 ec	 lea	 eax, DWORD PTR __t$507490[ebp]
  00037	88 5d f4	 mov	 BYTE PTR __t$507490[ebp+8], bl
  0003a	59		 pop	 ecx
  0003b	bf ed ec eb ea	 mov	 edi, -353637139		; eaebecedH
$LL126@AddRenderF:

; 86   : 	if( szType == "EmptyFrm" )

  00040	31 38		 xor	 DWORD PTR [eax], edi
  00042	83 c0 04	 add	 eax, 4
  00045	49		 dec	 ecx
  00046	75 f8		 jne	 SHORT $LL126@AddRenderF
  00048	8b ca		 mov	 ecx, edx
  0004a	8d 75 ec	 lea	 esi, DWORD PTR __t$507490[ebp]
  0004d	ff 15 00 00 00
	00		 call	 DWORD PTR __imp_?c_str@ioHashString@@QBEPBDXZ
$LL466@AddRenderF:
  00053	8a 08		 mov	 cl, BYTE PTR [eax]
  00055	3a 0e		 cmp	 cl, BYTE PTR [esi]
  00057	75 1a		 jne	 SHORT $LN467@AddRenderF
  00059	3a cb		 cmp	 cl, bl
  0005b	74 12		 je	 SHORT $LN468@AddRenderF
  0005d	8a 48 01	 mov	 cl, BYTE PTR [eax+1]
  00060	3a 4e 01	 cmp	 cl, BYTE PTR [esi+1]
  00063	75 0e		 jne	 SHORT $LN467@AddRenderF
  00065	83 c0 02	 add	 eax, 2
  00068	83 c6 02	 add	 esi, 2
  0006b	3a cb		 cmp	 cl, bl
  0006d	75 e4		 jne	 SHORT $LL466@AddRenderF
$LN468@AddRenderF:
  0006f	33 c0		 xor	 eax, eax
  00071	eb 05		 jmp	 SHORT $LN469@AddRenderF
$LN467@AddRenderF:
  00073	1b c0		 sbb	 eax, eax
  00075	83 d8 ff	 sbb	 eax, -1
$LN469@AddRenderF:
  00078	3b c3		 cmp	 eax, ebx
  0007a	75 28		 jne	 SHORT $LN463@AddRenderF

; 87   : 	{
; 88   : 		SAFEDELETE( m_pEmptyFrm );

  0007c	8b 75 e8	 mov	 esi, DWORD PTR _this$GSCopy$[ebp]
  0007f	8b 8e 14 02 00
	00		 mov	 ecx, DWORD PTR [esi+532]
  00085	3b cb		 cmp	 ecx, ebx
  00087	74 0d		 je	 SHORT $LN11@AddRenderF
  00089	8b 01		 mov	 eax, DWORD PTR [ecx]
  0008b	6a 01		 push	 1
  0008d	ff 50 40	 call	 DWORD PTR [eax+64]
  00090	89 9e 14 02 00
	00		 mov	 DWORD PTR [esi+532], ebx
$LN11@AddRenderF:

; 89   : 		m_pEmptyFrm = pFrame;

  00096	8b 45 e4	 mov	 eax, DWORD PTR _pFrame$GSCopy$[ebp]
  00099	89 86 14 02 00
	00		 mov	 DWORD PTR [esi+532], eax
  0009f	e9 99 01 00 00	 jmp	 $LN1@AddRenderF
$LN463@AddRenderF:

; 90   : 	}
; 91   : 	else if( szType == "BaseFrm" )

  000a4	6a 04		 push	 4
  000a6	c7 45 ec af 8d
	98 8f		 mov	 DWORD PTR __t$507641[ebp], -1885827665 ; 8f988dafH
  000ad	31 7d ec	 xor	 DWORD PTR __t$507641[ebp], edi
  000b0	c7 45 f0 ab 9e
	86 00		 mov	 DWORD PTR __t$507641[ebp+4], 8822443 ; 00869eabH
  000b7	58		 pop	 eax
$LL229@AddRenderF:
  000b8	8b c8		 mov	 ecx, eax
  000ba	81 e1 03 00 00
	80		 and	 ecx, -2147483645	; 80000003H
  000c0	79 05		 jns	 SHORT $LN482@AddRenderF
  000c2	49		 dec	 ecx
  000c3	83 c9 fc	 or	 ecx, -4			; fffffffcH
  000c6	41		 inc	 ecx
$LN482@AddRenderF:
  000c7	b2 ed		 mov	 dl, -19			; ffffffedH
  000c9	2a d1		 sub	 dl, cl
  000cb	30 54 05 ec	 xor	 BYTE PTR __t$507641[ebp+eax], dl
  000cf	40		 inc	 eax
  000d0	83 f8 07	 cmp	 eax, 7
  000d3	7c e3		 jl	 SHORT $LL229@AddRenderF
  000d5	8b 4d e0	 mov	 ecx, DWORD PTR _szType$GSCopy$[ebp]
  000d8	8d 75 ec	 lea	 esi, DWORD PTR __t$507641[ebp]
  000db	ff 15 00 00 00
	00		 call	 DWORD PTR __imp_?c_str@ioHashString@@QBEPBDXZ
$LL470@AddRenderF:
  000e1	8a 08		 mov	 cl, BYTE PTR [eax]
  000e3	3a 0e		 cmp	 cl, BYTE PTR [esi]
  000e5	75 1a		 jne	 SHORT $LN471@AddRenderF
  000e7	3a cb		 cmp	 cl, bl
  000e9	74 12		 je	 SHORT $LN472@AddRenderF
  000eb	8a 48 01	 mov	 cl, BYTE PTR [eax+1]
  000ee	3a 4e 01	 cmp	 cl, BYTE PTR [esi+1]
  000f1	75 0e		 jne	 SHORT $LN471@AddRenderF
  000f3	83 c0 02	 add	 eax, 2
  000f6	83 c6 02	 add	 esi, 2
  000f9	3a cb		 cmp	 cl, bl
  000fb	75 e4		 jne	 SHORT $LL470@AddRenderF
$LN472@AddRenderF:
  000fd	33 c0		 xor	 eax, eax
  000ff	eb 05		 jmp	 SHORT $LN473@AddRenderF
$LN471@AddRenderF:
  00101	1b c0		 sbb	 eax, eax
  00103	83 d8 ff	 sbb	 eax, -1
$LN473@AddRenderF:
  00106	3b c3		 cmp	 eax, ebx
  00108	75 28		 jne	 SHORT $LN464@AddRenderF

; 92   : 	{
; 93   : 		SAFEDELETE( m_pBaseFrm );

  0010a	8b 75 e8	 mov	 esi, DWORD PTR _this$GSCopy$[ebp]
  0010d	8b 8e 10 02 00
	00		 mov	 ecx, DWORD PTR [esi+528]
  00113	3b cb		 cmp	 ecx, ebx
  00115	74 0d		 je	 SHORT $LN8@AddRenderF
  00117	8b 01		 mov	 eax, DWORD PTR [ecx]
  00119	6a 01		 push	 1
  0011b	ff 50 40	 call	 DWORD PTR [eax+64]
  0011e	89 9e 10 02 00
	00		 mov	 DWORD PTR [esi+528], ebx
$LN8@AddRenderF:

; 94   : 		m_pBaseFrm = pFrame;

  00124	8b 45 e4	 mov	 eax, DWORD PTR _pFrame$GSCopy$[ebp]
  00127	89 86 10 02 00
	00		 mov	 DWORD PTR [esi+528], eax
  0012d	e9 0b 01 00 00	 jmp	 $LN1@AddRenderF
$LN464@AddRenderF:

; 95   : 	}
; 96   : 	else if( szType == "SelectFrm" )

  00132	6a 02		 push	 2
  00134	c7 45 ec be 89
	87 8f		 mov	 DWORD PTR __t$507740[ebp], -1886942786 ; 8f8789beH
  0013b	c7 45 f0 8e 98
	ad 98		 mov	 DWORD PTR __t$507740[ebp+4], -1733453682 ; 98ad988eH
  00142	8d 45 ec	 lea	 eax, DWORD PTR __t$507740[ebp]
  00145	66 c7 45 f4 80
	00		 mov	 WORD PTR __t$507740[ebp+8], 128 ; 00000080H
  0014b	59		 pop	 ecx
$LL338@AddRenderF:
  0014c	31 38		 xor	 DWORD PTR [eax], edi
  0014e	83 c0 04	 add	 eax, 4
  00151	49		 dec	 ecx
  00152	75 f8		 jne	 SHORT $LL338@AddRenderF
  00154	8b 4d e0	 mov	 ecx, DWORD PTR _szType$GSCopy$[ebp]
  00157	80 75 f4 ed	 xor	 BYTE PTR __t$507740[ebp+8], -19 ; ffffffedH
  0015b	8d 75 ec	 lea	 esi, DWORD PTR __t$507740[ebp]
  0015e	ff 15 00 00 00
	00		 call	 DWORD PTR __imp_?c_str@ioHashString@@QBEPBDXZ
$LL474@AddRenderF:
  00164	8a 08		 mov	 cl, BYTE PTR [eax]
  00166	3a 0e		 cmp	 cl, BYTE PTR [esi]
  00168	75 1a		 jne	 SHORT $LN475@AddRenderF
  0016a	3a cb		 cmp	 cl, bl
  0016c	74 12		 je	 SHORT $LN476@AddRenderF
  0016e	8a 48 01	 mov	 cl, BYTE PTR [eax+1]
  00171	3a 4e 01	 cmp	 cl, BYTE PTR [esi+1]
  00174	75 0e		 jne	 SHORT $LN475@AddRenderF
  00176	83 c0 02	 add	 eax, 2
  00179	83 c6 02	 add	 esi, 2
  0017c	3a cb		 cmp	 cl, bl
  0017e	75 e4		 jne	 SHORT $LL474@AddRenderF
$LN476@AddRenderF:
  00180	33 c0		 xor	 eax, eax
  00182	eb 05		 jmp	 SHORT $LN477@AddRenderF
$LN475@AddRenderF:
  00184	1b c0		 sbb	 eax, eax
  00186	83 d8 ff	 sbb	 eax, -1
$LN477@AddRenderF:
  00189	3b c3		 cmp	 eax, ebx
  0018b	75 28		 jne	 SHORT $LN465@AddRenderF

; 97   : 	{
; 98   : 		SAFEDELETE( m_pSelectFrm );

  0018d	8b 75 e8	 mov	 esi, DWORD PTR _this$GSCopy$[ebp]
  00190	8b 8e 18 02 00
	00		 mov	 ecx, DWORD PTR [esi+536]
  00196	3b cb		 cmp	 ecx, ebx
  00198	74 0d		 je	 SHORT $LN5@AddRenderF
  0019a	8b 01		 mov	 eax, DWORD PTR [ecx]
  0019c	6a 01		 push	 1
  0019e	ff 50 40	 call	 DWORD PTR [eax+64]
  001a1	89 9e 18 02 00
	00		 mov	 DWORD PTR [esi+536], ebx
$LN5@AddRenderF:

; 99   : 		m_pSelectFrm = pFrame;

  001a7	8b 45 e4	 mov	 eax, DWORD PTR _pFrame$GSCopy$[ebp]
  001aa	89 86 18 02 00
	00		 mov	 DWORD PTR [esi+536], eax
  001b0	e9 88 00 00 00	 jmp	 $LN1@AddRenderF
$LN465@AddRenderF:

; 100  : 	}
; 101  : 	else if( szType == "EquipFrm" )

  001b5	6a 02		 push	 2
  001b7	c7 45 ec a8 9d
	9e 83		 mov	 DWORD PTR __t$507865[ebp], -2086756952 ; 839e9da8H
  001be	c7 45 f0 9d aa
	99 87		 mov	 DWORD PTR __t$507865[ebp+4], -2019972451 ; 8799aa9dH
  001c5	8d 45 ec	 lea	 eax, DWORD PTR __t$507865[ebp]
  001c8	88 5d f4	 mov	 BYTE PTR __t$507865[ebp+8], bl
  001cb	59		 pop	 ecx
$LL444@AddRenderF:
  001cc	31 38		 xor	 DWORD PTR [eax], edi
  001ce	83 c0 04	 add	 eax, 4
  001d1	49		 dec	 ecx
  001d2	75 f8		 jne	 SHORT $LL444@AddRenderF
  001d4	8b 4d e0	 mov	 ecx, DWORD PTR _szType$GSCopy$[ebp]
  001d7	8d 75 ec	 lea	 esi, DWORD PTR __t$507865[ebp]
  001da	ff 15 00 00 00
	00		 call	 DWORD PTR __imp_?c_str@ioHashString@@QBEPBDXZ
$LL478@AddRenderF:
  001e0	8a 08		 mov	 cl, BYTE PTR [eax]
  001e2	3a 0e		 cmp	 cl, BYTE PTR [esi]
  001e4	75 1a		 jne	 SHORT $LN479@AddRenderF
  001e6	3a cb		 cmp	 cl, bl
  001e8	74 12		 je	 SHORT $LN480@AddRenderF
  001ea	8a 48 01	 mov	 cl, BYTE PTR [eax+1]
  001ed	3a 4e 01	 cmp	 cl, BYTE PTR [esi+1]
  001f0	75 0e		 jne	 SHORT $LN479@AddRenderF
  001f2	83 c0 02	 add	 eax, 2
  001f5	83 c6 02	 add	 esi, 2
  001f8	3a cb		 cmp	 cl, bl
  001fa	75 e4		 jne	 SHORT $LL478@AddRenderF
$LN480@AddRenderF:
  001fc	33 c0		 xor	 eax, eax
  001fe	eb 05		 jmp	 SHORT $LN481@AddRenderF
$LN479@AddRenderF:
  00200	1b c0		 sbb	 eax, eax
  00202	83 d8 ff	 sbb	 eax, -1
$LN481@AddRenderF:
  00205	3b c3		 cmp	 eax, ebx
  00207	75 25		 jne	 SHORT $LN3@AddRenderF

; 102  : 	{
; 103  : 		SAFEDELETE( m_pEquipFrm );

  00209	8b 75 e8	 mov	 esi, DWORD PTR _this$GSCopy$[ebp]
  0020c	8b 8e 1c 02 00
	00		 mov	 ecx, DWORD PTR [esi+540]
  00212	3b cb		 cmp	 ecx, ebx
  00214	74 0d		 je	 SHORT $LN2@AddRenderF
  00216	8b 01		 mov	 eax, DWORD PTR [ecx]
  00218	6a 01		 push	 1
  0021a	ff 50 40	 call	 DWORD PTR [eax+64]
  0021d	89 9e 1c 02 00
	00		 mov	 DWORD PTR [esi+540], ebx
$LN2@AddRenderF:

; 104  : 		m_pEquipFrm = pFrame;

  00223	8b 45 e4	 mov	 eax, DWORD PTR _pFrame$GSCopy$[ebp]
  00226	89 86 1c 02 00
	00		 mov	 DWORD PTR [esi+540], eax

; 105  : 	}
; 106  : 	else

  0022c	eb 0f		 jmp	 SHORT $LN1@AddRenderF
$LN3@AddRenderF:

; 107  : 		ioButton::AddRenderFrame( szType, pFrame );

  0022e	ff 75 e4	 push	 DWORD PTR _pFrame$GSCopy$[ebp]
  00231	8b 4d e8	 mov	 ecx, DWORD PTR _this$GSCopy$[ebp]
  00234	ff 75 e0	 push	 DWORD PTR _szType$GSCopy$[ebp]
  00237	ff 15 00 00 00
	00		 call	 DWORD PTR __imp_?AddRenderFrame@ioButton@@UAEXABVioHashString@@PAVioUIRenderFrame@@@Z
$LN1@AddRenderF:

; 108  : }

  0023d	8b 4d fc	 mov	 ecx, DWORD PTR __$ArrayPad$[ebp]
  00240	5f		 pop	 edi
  00241	5e		 pop	 esi
  00242	33 cd		 xor	 ecx, ebp
  00244	5b		 pop	 ebx
  00245	e8 00 00 00 00	 call	 @__security_check_cookie@4
  0024a	c9		 leave
  0024b	c2 08 00	 ret	 8
?AddRenderFrame@PetIconBtn@@UAEXABVioHashString@@PAVioUIRenderFrame@@@Z ENDP ; PetIconBtn::AddRenderFrame
_TEXT	ENDS
PUBLIC	__$ArrayPad$
EXTRN	__imp_?ParseExtraInfo@ioButton@@UAEXAAVioXMLElement@@@Z:PROC
; Function compile flags: /Ogsp
;	COMDAT ?ParseExtraInfo@PetIconBtn@@UAEXAAVioXMLElement@@@Z
_TEXT	SEGMENT
__k$508044 = -20					; size = 12
__$ArrayPad$ = -4					; size = 4
_xElement$ = 8						; size = 4
?ParseExtraInfo@PetIconBtn@@UAEXAAVioXMLElement@@@Z PROC ; PetIconBtn::ParseExtraInfo, COMDAT
; _this$ = ecx

; 111  : {

  00000	55		 push	 ebp
  00001	8b ec		 mov	 ebp, esp
  00003	83 ec 14	 sub	 esp, 20			; 00000014H
  00006	a1 00 00 00 00	 mov	 eax, DWORD PTR ___security_cookie
  0000b	33 c5		 xor	 eax, ebp
  0000d	89 45 fc	 mov	 DWORD PTR __$ArrayPad$[ebp], eax
  00010	56		 push	 esi
  00011	8b 75 08	 mov	 esi, DWORD PTR _xElement$[ebp]
  00014	57		 push	 edi

; 112  : 	ioButton::ParseExtraInfo( xElement );

  00015	56		 push	 esi
  00016	8b f9		 mov	 edi, ecx
  00018	ff 15 00 00 00
	00		 call	 DWORD PTR __imp_?ParseExtraInfo@ioButton@@UAEXAAVioXMLElement@@@Z

; 113  : 
; 114  : 	m_dwChangeTime = xElement.GetIntAttribute_e( "Change_Time" );

  0001e	6a 02		 push	 2
  00020	c7 45 ec ae 84
	8a 84		 mov	 DWORD PTR __k$508044[ebp], -2071296850 ; 848a84aeH
  00027	c7 45 f0 8a 89
	b4 be		 mov	 DWORD PTR __k$508044[ebp+4], -1095464566 ; beb4898aH
  0002e	8d 45 ec	 lea	 eax, DWORD PTR __k$508044[ebp]
  00031	c7 45 f4 84 81
	8e 00		 mov	 DWORD PTR __k$508044[ebp+8], 9339268 ; 008e8184H
  00038	59		 pop	 ecx
$LL106@ParseExtra:
  00039	81 30 ed ec eb
	ea		 xor	 DWORD PTR [eax], -353637139 ; eaebecedH
  0003f	83 c0 04	 add	 eax, 4
  00042	49		 dec	 ecx
  00043	75 f4		 jne	 SHORT $LL106@ParseExtra
  00045	6a 08		 push	 8
  00047	58		 pop	 eax
$LL103@ParseExtra:
  00048	8b c8		 mov	 ecx, eax
  0004a	81 e1 03 00 00
	80		 and	 ecx, -2147483645	; 80000003H
  00050	79 05		 jns	 SHORT $LN113@ParseExtra
  00052	49		 dec	 ecx
  00053	83 c9 fc	 or	 ecx, -4			; fffffffcH
  00056	41		 inc	 ecx
$LN113@ParseExtra:
  00057	b2 ed		 mov	 dl, -19			; ffffffedH
  00059	2a d1		 sub	 dl, cl
  0005b	30 54 05 ec	 xor	 BYTE PTR __k$508044[ebp+eax], dl
  0005f	40		 inc	 eax
  00060	83 f8 0b	 cmp	 eax, 11			; 0000000bH
  00063	7c e3		 jl	 SHORT $LL103@ParseExtra
  00065	8d 45 ec	 lea	 eax, DWORD PTR __k$508044[ebp]
  00068	50		 push	 eax
  00069	8b ce		 mov	 ecx, esi
  0006b	ff 15 00 00 00
	00		 call	 DWORD PTR __imp_?GetIntAttribute@ioXMLElement@@QBEHPBD@Z

; 115  : }

  00071	8b 4d fc	 mov	 ecx, DWORD PTR __$ArrayPad$[ebp]
  00074	89 87 5c 02 00
	00		 mov	 DWORD PTR [edi+604], eax
  0007a	5f		 pop	 edi
  0007b	33 cd		 xor	 ecx, ebp
  0007d	5e		 pop	 esi
  0007e	e8 00 00 00 00	 call	 @__security_check_cookie@4
  00083	c9		 leave
  00084	c2 04 00	 ret	 4
?ParseExtraInfo@PetIconBtn@@UAEXAAVioXMLElement@@@Z ENDP ; PetIconBtn::ParseExtraInfo
_TEXT	ENDS
END
