; Listing generated by Microsoft (R) Optimizing Compiler Version 16.00.30319.01 

	TITLE	D:\Lost Saga For Developer\Youtube\Tutorial\Source\src\LSClient\GUI\PetResellWnd.cpp
	.686P
	.XMM
	include listing.inc
	.model	flat

INCLUDELIB MSVCRT
INCLUDELIB OLDNAMES

PUBLIC	??_7PetResellWnd@@6B@				; PetResellWnd::`vftable'
PUBLIC	??0PetResellWnd@@QAE@XZ				; PetResellWnd::PetResellWnd
PUBLIC	??_R4PetResellWnd@@6B@				; PetResellWnd::`RTTI Complete Object Locator'
PUBLIC	??_R0?AVPetResellWnd@@@8			; PetResellWnd `RTTI Type Descriptor'
PUBLIC	??_R3PetResellWnd@@8				; PetResellWnd::`RTTI Class Hierarchy Descriptor'
PUBLIC	??_R2PetResellWnd@@8				; PetResellWnd::`RTTI Base Class Array'
PUBLIC	??_R1A@?0A@EA@PetResellWnd@@8			; PetResellWnd::`RTTI Base Class Descriptor at (0,-1,0,64)'
PUBLIC	??_R1A@?0A@EA@ioWnd@@8				; ioWnd::`RTTI Base Class Descriptor at (0,-1,0,64)'
PUBLIC	??_R0?AVioWnd@@@8				; ioWnd `RTTI Type Descriptor'
PUBLIC	??_R3ioWnd@@8					; ioWnd::`RTTI Class Hierarchy Descriptor'
PUBLIC	??_R2ioWnd@@8					; ioWnd::`RTTI Base Class Array'
PUBLIC	?AddRenderFrame@PetResellWnd@@UAEXABVioHashString@@PAVioUIRenderFrame@@@Z ; PetResellWnd::AddRenderFrame
PUBLIC	?AddRenderImage@PetResellWnd@@UAEXABVioHashString@@PAVioUIRenderImage@@@Z ; PetResellWnd::AddRenderImage
PUBLIC	?OnRender@PetResellWnd@@MAEXXZ			; PetResellWnd::OnRender
PUBLIC	?OnRenderAfterChild@PetResellWnd@@MAEXXZ	; PetResellWnd::OnRenderAfterChild
PUBLIC	?iwm_command@PetResellWnd@@UAEXPAVioWnd@@HK@Z	; PetResellWnd::iwm_command
PUBLIC	?iwm_show@PetResellWnd@@UAEXXZ			; PetResellWnd::iwm_show
PUBLIC	?iwm_hide@PetResellWnd@@UAEXXZ			; PetResellWnd::iwm_hide
EXTRN	__imp_??1ioHashString@@QAE@XZ:PROC
EXTRN	__imp_??1ioWnd@@UAE@XZ:PROC
EXTRN	__imp_?Clear@ioHashString@@QAEXXZ:PROC
EXTRN	__imp_??0ioHashString@@QAE@XZ:PROC
EXTRN	__imp_??0ioWnd@@QAE@XZ:PROC
EXTRN	___CxxFrameHandler3:PROC
EXTRN	@__security_check_cookie@4:PROC
EXTRN	__EH_epilog3:PROC
EXTRN	__EH_prolog3:PROC
EXTRN	??_7type_info@@6B@:QWORD			; type_info::`vftable'
EXTRN	?AddTooltipHelp@ioWnd@@UAEXABVioHashString@@00@Z:PROC ; ioWnd::AddTooltipHelp
EXTRN	?ParseExtraInfo@ioWnd@@UAEXAAVioXMLElement@@@Z:PROC ; ioWnd::ParseExtraInfo
EXTRN	?AddNamedRenderImage@ioWnd@@UAEXABVioHashString@@PAVioUIRenderImage@@@Z:PROC ; ioWnd::AddNamedRenderImage
EXTRN	?RemoveNamedRenderImage@ioWnd@@UAEXABVioHashString@@@Z:PROC ; ioWnd::RemoveNamedRenderImage
EXTRN	?GetNamedRenderImage@ioWnd@@UBEPAVioUIRenderImage@@ABVioHashString@@@Z:PROC ; ioWnd::GetNamedRenderImage
EXTRN	?SetWindowAlpha@ioWnd@@UAEXH@Z:PROC		; ioWnd::SetWindowAlpha
EXTRN	?SetActive@ioWnd@@UAEXXZ:PROC			; ioWnd::SetActive
EXTRN	?SetInActive@ioWnd@@UAEXXZ:PROC			; ioWnd::SetInActive
EXTRN	?ClearElementImageList@ioWnd@@UAEXXZ:PROC	; ioWnd::ClearElementImageList
EXTRN	?SetSize@ioWnd@@UAEXHH@Z:PROC			; ioWnd::SetSize
EXTRN	?SetPositionToDefault@ioWnd@@UAEXHH_N0@Z:PROC	; ioWnd::SetPositionToDefault
EXTRN	?IsNeedProcess@ioWnd@@UBE_NXZ:PROC		; ioWnd::IsNeedProcess
EXTRN	?IsCanMouseReaction@ioWnd@@UBE_NXZ:PROC		; ioWnd::IsCanMouseReaction
EXTRN	?AddChild@ioWnd@@UAEXPAV1@@Z:PROC		; ioWnd::AddChild
EXTRN	?DeleteChild@ioWnd@@UAEXK@Z:PROC		; ioWnd::DeleteChild
EXTRN	?DeleteAllChild@ioWnd@@UAEXXZ:PROC		; ioWnd::DeleteAllChild
EXTRN	?OnRenderShowAndHide@ioWnd@@MAE_NXZ:PROC	; ioWnd::OnRenderShowAndHide
EXTRN	?OnRenderShowAndHideByDefault@ioWnd@@MAE_NK@Z:PROC ; ioWnd::OnRenderShowAndHideByDefault
EXTRN	?OnRenderShowAndHideByTop@ioWnd@@MAE_NK@Z:PROC	; ioWnd::OnRenderShowAndHideByTop
EXTRN	?OnRenderShowAndHideByDown@ioWnd@@MAE_NK@Z:PROC	; ioWnd::OnRenderShowAndHideByDown
EXTRN	?OnProcess@ioWnd@@MAEXM@Z:PROC			; ioWnd::OnProcess
EXTRN	?OnMouseProcess@ioWnd@@MAEXABVioMouse@@@Z:PROC	; ioWnd::OnMouseProcess
EXTRN	?CheckFrameReSize@ioWnd@@MAEXHHHH@Z:PROC	; ioWnd::CheckFrameReSize
EXTRN	?RenderImageList@ioWnd@@MAEXHHW4UIRenderType@@@Z:PROC ; ioWnd::RenderImageList
EXTRN	?iwm_create@ioWnd@@UAEXXZ:PROC			; ioWnd::iwm_create
EXTRN	?iwm_destroy@ioWnd@@UAEXXZ:PROC			; ioWnd::iwm_destroy
EXTRN	?iwm_lbuttondown@ioWnd@@UAEXABVioMouse@@@Z:PROC	; ioWnd::iwm_lbuttondown
EXTRN	?iwm_lbuttonup@ioWnd@@UAEXABVioMouse@@@Z:PROC	; ioWnd::iwm_lbuttonup
EXTRN	?iwm_lbuttonDBLCLK@ioWnd@@UAEXABVioMouse@@@Z:PROC ; ioWnd::iwm_lbuttonDBLCLK
EXTRN	?iwm_rbuttondown@ioWnd@@UAEXABVioMouse@@@Z:PROC	; ioWnd::iwm_rbuttondown
EXTRN	?iwm_rbuttonup@ioWnd@@UAEXABVioMouse@@@Z:PROC	; ioWnd::iwm_rbuttonup
EXTRN	?iwm_mouseover@ioWnd@@UAEXABVioMouse@@@Z:PROC	; ioWnd::iwm_mouseover
EXTRN	?iwm_mousemove@ioWnd@@UAEXABVioMouse@@@Z:PROC	; ioWnd::iwm_mousemove
EXTRN	?iwm_mouseleave@ioWnd@@UAEXABVioMouse@@@Z:PROC	; ioWnd::iwm_mouseleave
EXTRN	?iwm_vscroll@ioWnd@@UAEXKH@Z:PROC		; ioWnd::iwm_vscroll
EXTRN	?iwm_wheel@ioWnd@@UAEXH@Z:PROC			; ioWnd::iwm_wheel
EXTRN	?iwm_esc@ioWnd@@UAE_NXZ:PROC			; ioWnd::iwm_esc
EXTRN	?iwm_spacebar@ioWnd@@UAE_NXZ:PROC		; ioWnd::iwm_spacebar
EXTRN	?iwm_gototop@ioWnd@@UAEXXZ:PROC			; ioWnd::iwm_gototop
EXTRN	?iwm_dragenter@ioWnd@@UAE?AW4IWDropEffect@@PAVioDragItem@@ABVioMouse@@@Z:PROC ; ioWnd::iwm_dragenter
EXTRN	?iwm_dragover@ioWnd@@UAE?AW4IWDropEffect@@PAVioDragItem@@ABVioMouse@@@Z:PROC ; ioWnd::iwm_dragover
EXTRN	?iwm_dragleave@ioWnd@@UAEXXZ:PROC		; ioWnd::iwm_dragleave
EXTRN	?iwm_dropitem@ioWnd@@UAE_NPAVioDragItem@@ABVioMouse@@PAV1@@Z:PROC ; ioWnd::iwm_dropitem
EXTRN	?iwm_dropdone@ioWnd@@UAEXPAVioDragItem@@PAV1@_N@Z:PROC ; ioWnd::iwm_dropdone
EXTRN	?IsEXType@ioWnd@@UBE_NXZ:PROC			; ioWnd::IsEXType
EXTRN	?GetWndType@ioWnd@@UBEKXZ:PROC			; ioWnd::GetWndType
EXTRN	?RenderWnd@ioWnd@@UAEXXZ:PROC			; ioWnd::RenderWnd
EXTRN	?SetIDEX@ioWnd@@UAEXAAK_N@Z:PROC		; ioWnd::SetIDEX
EXTRN	?ParseXML@ioWnd@@UAEXAAVioXMLElement@@@Z:PROC	; ioWnd::ParseXML
EXTRN	?GetHeaderFileName@ioWnd@@UAEPBDXZ:PROC		; ioWnd::GetHeaderFileName
EXTRN	?GetTemplateName@ioWnd@@UAEPBDXZ:PROC		; ioWnd::GetTemplateName
EXTRN	?GetDefClassName@ioWnd@@UBEPBDXZ:PROC		; ioWnd::GetDefClassName
EXTRN	?_Clone@ioWnd@@UAEPAV1@XZ:PROC			; ioWnd::_Clone
EXTRN	?Copy@ioWnd@@UAEXPAV1@@Z:PROC			; ioWnd::Copy
EXTRN	?Save@ioWnd@@UAE_NAAVioXMLElement@@@Z:PROC	; ioWnd::Save
EXTRN	?SetSaveData@ioWnd@@UAEXAAVioXMLElement@@@Z:PROC ; ioWnd::SetSaveData
EXTRN	?SetPosX@ioWnd@@UAEXH@Z:PROC			; ioWnd::SetPosX
EXTRN	?SetPosY@ioWnd@@UAEXH@Z:PROC			; ioWnd::SetPosY
EXTRN	?SetWidth@ioWnd@@UAEXH@Z:PROC			; ioWnd::SetWidth
EXTRN	?SetHeight@ioWnd@@UAEXH@Z:PROC			; ioWnd::SetHeight
EXTRN	?GetNumFixedRenderFrame@ioWnd@@UBEHXZ:PROC	; ioWnd::GetNumFixedRenderFrame
EXTRN	?GetFixedRenderFrameType@ioWnd@@UAEPBDH@Z:PROC	; ioWnd::GetFixedRenderFrameType
EXTRN	?GetRenderFrame@ioWnd@@UAEPAPAVioUIRenderElement@@PBD@Z:PROC ; ioWnd::GetRenderFrame
EXTRN	?GetNumFixedRenderImage@ioWnd@@UBEHXZ:PROC	; ioWnd::GetNumFixedRenderImage
EXTRN	?GetFixedRenderImageType@ioWnd@@UAEPBDH@Z:PROC	; ioWnd::GetFixedRenderImageType
EXTRN	?GetRenderImage@ioWnd@@UAEPAPAVioUIRenderElement@@PBD@Z:PROC ; ioWnd::GetRenderImage
EXTRN	?AddEffect@ioWnd@@UAEXABVioHashString@@PAVioUI3DEffectRender@@@Z:PROC ; ioWnd::AddEffect
EXTRN	?GetEffect@ioWnd@@UAEPAVioUI3DEffectRender@@VioHashString@@@Z:PROC ; ioWnd::GetEffect
EXTRN	??_EPetResellWnd@@UAEPAXI@Z:PROC		; PetResellWnd::`vector deleting destructor'
;	COMDAT ??_R2ioWnd@@8
; File d:\lost saga for developer\youtube\tutorial\source\src\lsclient\gui\petresellwnd.cpp
rdata$r	SEGMENT
??_R2ioWnd@@8 DD FLAT:??_R1A@?0A@EA@ioWnd@@8		; ioWnd::`RTTI Base Class Array'
rdata$r	ENDS
;	COMDAT ??_R3ioWnd@@8
rdata$r	SEGMENT
??_R3ioWnd@@8 DD 00H					; ioWnd::`RTTI Class Hierarchy Descriptor'
	DD	00H
	DD	01H
	DD	FLAT:??_R2ioWnd@@8
rdata$r	ENDS
;	COMDAT ??_R0?AVioWnd@@@8
_DATA	SEGMENT
??_R0?AVioWnd@@@8 DD FLAT:??_7type_info@@6B@		; ioWnd `RTTI Type Descriptor'
	DD	00H
	DB	'.?AVioWnd@@', 00H
_DATA	ENDS
;	COMDAT ??_R1A@?0A@EA@ioWnd@@8
rdata$r	SEGMENT
??_R1A@?0A@EA@ioWnd@@8 DD FLAT:??_R0?AVioWnd@@@8	; ioWnd::`RTTI Base Class Descriptor at (0,-1,0,64)'
	DD	00H
	DD	00H
	DD	0ffffffffH
	DD	00H
	DD	040H
	DD	FLAT:??_R3ioWnd@@8
rdata$r	ENDS
;	COMDAT ??_R1A@?0A@EA@PetResellWnd@@8
rdata$r	SEGMENT
??_R1A@?0A@EA@PetResellWnd@@8 DD FLAT:??_R0?AVPetResellWnd@@@8 ; PetResellWnd::`RTTI Base Class Descriptor at (0,-1,0,64)'
	DD	01H
	DD	00H
	DD	0ffffffffH
	DD	00H
	DD	040H
	DD	FLAT:??_R3PetResellWnd@@8
rdata$r	ENDS
;	COMDAT ??_R2PetResellWnd@@8
rdata$r	SEGMENT
??_R2PetResellWnd@@8 DD FLAT:??_R1A@?0A@EA@PetResellWnd@@8 ; PetResellWnd::`RTTI Base Class Array'
	DD	FLAT:??_R1A@?0A@EA@ioWnd@@8
rdata$r	ENDS
;	COMDAT ??_R3PetResellWnd@@8
rdata$r	SEGMENT
??_R3PetResellWnd@@8 DD 00H				; PetResellWnd::`RTTI Class Hierarchy Descriptor'
	DD	00H
	DD	02H
	DD	FLAT:??_R2PetResellWnd@@8
rdata$r	ENDS
;	COMDAT ??_R0?AVPetResellWnd@@@8
_DATA	SEGMENT
??_R0?AVPetResellWnd@@@8 DD FLAT:??_7type_info@@6B@	; PetResellWnd `RTTI Type Descriptor'
	DD	00H
	DB	'.?AVPetResellWnd@@', 00H
_DATA	ENDS
;	COMDAT ??_R4PetResellWnd@@6B@
rdata$r	SEGMENT
??_R4PetResellWnd@@6B@ DD 00H				; PetResellWnd::`RTTI Complete Object Locator'
	DD	00H
	DD	00H
	DD	FLAT:??_R0?AVPetResellWnd@@@8
	DD	FLAT:??_R3PetResellWnd@@8
rdata$r	ENDS
;	COMDAT ??_7PetResellWnd@@6B@
CONST	SEGMENT
??_7PetResellWnd@@6B@ DD FLAT:??_R4PetResellWnd@@6B@	; PetResellWnd::`vftable'
	DD	FLAT:?AddRenderFrame@PetResellWnd@@UAEXABVioHashString@@PAVioUIRenderFrame@@@Z
	DD	FLAT:?AddRenderImage@PetResellWnd@@UAEXABVioHashString@@PAVioUIRenderImage@@@Z
	DD	FLAT:?AddTooltipHelp@ioWnd@@UAEXABVioHashString@@00@Z
	DD	FLAT:?ParseExtraInfo@ioWnd@@UAEXAAVioXMLElement@@@Z
	DD	FLAT:?AddNamedRenderImage@ioWnd@@UAEXABVioHashString@@PAVioUIRenderImage@@@Z
	DD	FLAT:?RemoveNamedRenderImage@ioWnd@@UAEXABVioHashString@@@Z
	DD	FLAT:?GetNamedRenderImage@ioWnd@@UBEPAVioUIRenderImage@@ABVioHashString@@@Z
	DD	FLAT:?SetWindowAlpha@ioWnd@@UAEXH@Z
	DD	FLAT:?SetActive@ioWnd@@UAEXXZ
	DD	FLAT:?SetInActive@ioWnd@@UAEXXZ
	DD	FLAT:?ClearElementImageList@ioWnd@@UAEXXZ
	DD	FLAT:?SetSize@ioWnd@@UAEXHH@Z
	DD	FLAT:?SetPositionToDefault@ioWnd@@UAEXHH_N0@Z
	DD	FLAT:?IsNeedProcess@ioWnd@@UBE_NXZ
	DD	FLAT:?IsCanMouseReaction@ioWnd@@UBE_NXZ
	DD	FLAT:?AddChild@ioWnd@@UAEXPAV1@@Z
	DD	FLAT:?DeleteChild@ioWnd@@UAEXK@Z
	DD	FLAT:?DeleteAllChild@ioWnd@@UAEXXZ
	DD	FLAT:?OnRenderShowAndHide@ioWnd@@MAE_NXZ
	DD	FLAT:?OnRenderShowAndHideByDefault@ioWnd@@MAE_NK@Z
	DD	FLAT:?OnRenderShowAndHideByTop@ioWnd@@MAE_NK@Z
	DD	FLAT:?OnRenderShowAndHideByDown@ioWnd@@MAE_NK@Z
	DD	FLAT:?OnRender@PetResellWnd@@MAEXXZ
	DD	FLAT:?OnRenderAfterChild@PetResellWnd@@MAEXXZ
	DD	FLAT:?OnProcess@ioWnd@@MAEXM@Z
	DD	FLAT:?OnMouseProcess@ioWnd@@MAEXABVioMouse@@@Z
	DD	FLAT:?CheckFrameReSize@ioWnd@@MAEXHHHH@Z
	DD	FLAT:?RenderImageList@ioWnd@@MAEXHHW4UIRenderType@@@Z
	DD	FLAT:?iwm_create@ioWnd@@UAEXXZ
	DD	FLAT:?iwm_destroy@ioWnd@@UAEXXZ
	DD	FLAT:?iwm_lbuttondown@ioWnd@@UAEXABVioMouse@@@Z
	DD	FLAT:?iwm_lbuttonup@ioWnd@@UAEXABVioMouse@@@Z
	DD	FLAT:?iwm_lbuttonDBLCLK@ioWnd@@UAEXABVioMouse@@@Z
	DD	FLAT:?iwm_rbuttondown@ioWnd@@UAEXABVioMouse@@@Z
	DD	FLAT:?iwm_rbuttonup@ioWnd@@UAEXABVioMouse@@@Z
	DD	FLAT:?iwm_command@PetResellWnd@@UAEXPAVioWnd@@HK@Z
	DD	FLAT:?iwm_mouseover@ioWnd@@UAEXABVioMouse@@@Z
	DD	FLAT:?iwm_mousemove@ioWnd@@UAEXABVioMouse@@@Z
	DD	FLAT:?iwm_mouseleave@ioWnd@@UAEXABVioMouse@@@Z
	DD	FLAT:?iwm_vscroll@ioWnd@@UAEXKH@Z
	DD	FLAT:?iwm_wheel@ioWnd@@UAEXH@Z
	DD	FLAT:?iwm_show@PetResellWnd@@UAEXXZ
	DD	FLAT:?iwm_hide@PetResellWnd@@UAEXXZ
	DD	FLAT:?iwm_esc@ioWnd@@UAE_NXZ
	DD	FLAT:?iwm_spacebar@ioWnd@@UAE_NXZ
	DD	FLAT:?iwm_gototop@ioWnd@@UAEXXZ
	DD	FLAT:?iwm_dragenter@ioWnd@@UAE?AW4IWDropEffect@@PAVioDragItem@@ABVioMouse@@@Z
	DD	FLAT:?iwm_dragover@ioWnd@@UAE?AW4IWDropEffect@@PAVioDragItem@@ABVioMouse@@@Z
	DD	FLAT:?iwm_dragleave@ioWnd@@UAEXXZ
	DD	FLAT:?iwm_dropitem@ioWnd@@UAE_NPAVioDragItem@@ABVioMouse@@PAV1@@Z
	DD	FLAT:?iwm_dropdone@ioWnd@@UAEXPAVioDragItem@@PAV1@_N@Z
	DD	FLAT:?IsEXType@ioWnd@@UBE_NXZ
	DD	FLAT:?GetWndType@ioWnd@@UBEKXZ
	DD	FLAT:?RenderWnd@ioWnd@@UAEXXZ
	DD	FLAT:?SetIDEX@ioWnd@@UAEXAAK_N@Z
	DD	FLAT:?ParseXML@ioWnd@@UAEXAAVioXMLElement@@@Z
	DD	FLAT:?GetHeaderFileName@ioWnd@@UAEPBDXZ
	DD	FLAT:?GetTemplateName@ioWnd@@UAEPBDXZ
	DD	FLAT:?GetDefClassName@ioWnd@@UBEPBDXZ
	DD	FLAT:?_Clone@ioWnd@@UAEPAV1@XZ
	DD	FLAT:?Copy@ioWnd@@UAEXPAV1@@Z
	DD	FLAT:?Save@ioWnd@@UAE_NAAVioXMLElement@@@Z
	DD	FLAT:?SetSaveData@ioWnd@@UAEXAAVioXMLElement@@@Z
	DD	FLAT:?SetPosX@ioWnd@@UAEXH@Z
	DD	FLAT:?SetPosY@ioWnd@@UAEXH@Z
	DD	FLAT:?SetWidth@ioWnd@@UAEXH@Z
	DD	FLAT:?SetHeight@ioWnd@@UAEXH@Z
	DD	FLAT:?GetNumFixedRenderFrame@ioWnd@@UBEHXZ
	DD	FLAT:?GetFixedRenderFrameType@ioWnd@@UAEPBDH@Z
	DD	FLAT:?GetRenderFrame@ioWnd@@UAEPAPAVioUIRenderElement@@PBD@Z
	DD	FLAT:?GetNumFixedRenderImage@ioWnd@@UBEHXZ
	DD	FLAT:?GetFixedRenderImageType@ioWnd@@UAEPBDH@Z
	DD	FLAT:?GetRenderImage@ioWnd@@UAEPAPAVioUIRenderElement@@PBD@Z
	DD	FLAT:?AddEffect@ioWnd@@UAEXABVioHashString@@PAVioUI3DEffectRender@@@Z
	DD	FLAT:?GetEffect@ioWnd@@UAEPAVioUI3DEffectRender@@VioHashString@@@Z
	DD	FLAT:??_EPetResellWnd@@UAEPAXI@Z
CONST	ENDS
;	COMDAT xdata$x
xdata$x	SEGMENT
__unwindtable$??0PetResellWnd@@QAE@XZ DD 0ffffffffH
	DD	FLAT:__unwindfunclet$??0PetResellWnd@@QAE@XZ$0
	DD	00H
	DD	FLAT:__unwindfunclet$??0PetResellWnd@@QAE@XZ$1
__ehfuncinfo$??0PetResellWnd@@QAE@XZ DD 019930522H
	DD	02H
	DD	FLAT:__unwindtable$??0PetResellWnd@@QAE@XZ
	DD	2 DUP(00H)
	DD	2 DUP(00H)
	DD	00H
	DD	01H
; Function compile flags: /Ogsp
xdata$x	ENDS
;	COMDAT ??0PetResellWnd@@QAE@XZ
_TEXT	SEGMENT
_this$ = -16						; size = 4
__$EHRec$ = -12						; size = 12
??0PetResellWnd@@QAE@XZ PROC				; PetResellWnd::PetResellWnd, COMDAT
; _this$ = ecx

; 14   : {

  00000	6a 04		 push	 4
  00002	b8 00 00 00 00	 mov	 eax, __ehhandler$??0PetResellWnd@@QAE@XZ
  00007	e8 00 00 00 00	 call	 __EH_prolog3
  0000c	8b f1		 mov	 esi, ecx
  0000e	89 75 f0	 mov	 DWORD PTR _this$[ebp], esi
  00011	ff 15 00 00 00
	00		 call	 DWORD PTR __imp_??0ioWnd@@QAE@XZ
  00017	33 ff		 xor	 edi, edi
  00019	8d 8e 78 01 00
	00		 lea	 ecx, DWORD PTR [esi+376]
  0001f	89 7d fc	 mov	 DWORD PTR __$EHRec$[ebp+8], edi
  00022	c7 06 00 00 00
	00		 mov	 DWORD PTR [esi], OFFSET ??_7PetResellWnd@@6B@
  00028	ff 15 00 00 00
	00		 call	 DWORD PTR __imp_??0ioHashString@@QAE@XZ

; 15   : 	m_pSellMark = NULL;
; 16   : 	m_pBottomFrm = NULL;
; 17   : 	m_pPreEdit = NULL;
; 18   : 	m_pSellEdit = NULL;
; 19   : 
; 20   : 	m_nPetCode = 0;
; 21   : 	m_nPetLevel = 0;
; 22   : 	m_nPetRank = 0;
; 23   : 	m_nPetSlotIndex = 0;
; 24   : 	m_szPetName.Clear();

  0002e	8d 8e 78 01 00
	00		 lea	 ecx, DWORD PTR [esi+376]
  00034	c6 45 fc 01	 mov	 BYTE PTR __$EHRec$[ebp+8], 1
  00038	89 be 60 01 00
	00		 mov	 DWORD PTR [esi+352], edi
  0003e	89 be 64 01 00
	00		 mov	 DWORD PTR [esi+356], edi
  00044	89 be 88 01 00
	00		 mov	 DWORD PTR [esi+392], edi
  0004a	89 be 8c 01 00
	00		 mov	 DWORD PTR [esi+396], edi
  00050	89 be 68 01 00
	00		 mov	 DWORD PTR [esi+360], edi
  00056	89 be 6c 01 00
	00		 mov	 DWORD PTR [esi+364], edi
  0005c	89 be 70 01 00
	00		 mov	 DWORD PTR [esi+368], edi
  00062	89 be 74 01 00
	00		 mov	 DWORD PTR [esi+372], edi
  00068	ff 15 00 00 00
	00		 call	 DWORD PTR __imp_?Clear@ioHashString@@QAEXXZ

; 25   : }

  0006e	8b c6		 mov	 eax, esi
  00070	e8 00 00 00 00	 call	 __EH_epilog3
  00075	c3		 ret	 0
_TEXT	ENDS
;	COMDAT text$x
text$x	SEGMENT
__unwindfunclet$??0PetResellWnd@@QAE@XZ$0:
  00000	8b 4d f0	 mov	 ecx, DWORD PTR _this$[ebp]
  00003	ff 25 00 00 00
	00		 jmp	 DWORD PTR __imp_??1ioWnd@@UAE@XZ
__unwindfunclet$??0PetResellWnd@@QAE@XZ$1:
  00009	8b 4d f0	 mov	 ecx, DWORD PTR _this$[ebp]
  0000c	81 c1 78 01 00
	00		 add	 ecx, 376		; 00000178H
  00012	ff 25 00 00 00
	00		 jmp	 DWORD PTR __imp_??1ioHashString@@QAE@XZ
__ehhandler$??0PetResellWnd@@QAE@XZ:
  00018	8b 54 24 08	 mov	 edx, DWORD PTR [esp+8]
  0001c	8d 42 0c	 lea	 eax, DWORD PTR [edx+12]
  0001f	8b 4a ec	 mov	 ecx, DWORD PTR [edx-20]
  00022	33 c8		 xor	 ecx, eax
  00024	e8 00 00 00 00	 call	 @__security_check_cookie@4
  00029	b8 00 00 00 00	 mov	 eax, OFFSET __ehfuncinfo$??0PetResellWnd@@QAE@XZ
  0002e	e9 00 00 00 00	 jmp	 ___CxxFrameHandler3
text$x	ENDS
??0PetResellWnd@@QAE@XZ ENDP				; PetResellWnd::PetResellWnd
PUBLIC	??1PetResellWnd@@UAE@XZ				; PetResellWnd::~PetResellWnd
;	COMDAT xdata$x
xdata$x	SEGMENT
__unwindtable$??1PetResellWnd@@UAE@XZ DD 0ffffffffH
	DD	FLAT:__unwindfunclet$??1PetResellWnd@@UAE@XZ$0
	DD	00H
	DD	FLAT:__unwindfunclet$??1PetResellWnd@@UAE@XZ$1
__ehfuncinfo$??1PetResellWnd@@UAE@XZ DD 019930522H
	DD	02H
	DD	FLAT:__unwindtable$??1PetResellWnd@@UAE@XZ
	DD	2 DUP(00H)
	DD	2 DUP(00H)
	DD	00H
	DD	01H
; Function compile flags: /Ogsp
xdata$x	ENDS
;	COMDAT ??1PetResellWnd@@UAE@XZ
_TEXT	SEGMENT
_this$ = -16						; size = 4
__$EHRec$ = -12						; size = 12
??1PetResellWnd@@UAE@XZ PROC				; PetResellWnd::~PetResellWnd, COMDAT
; _this$ = ecx

; 28   : {

  00000	6a 04		 push	 4
  00002	b8 00 00 00 00	 mov	 eax, __ehhandler$??1PetResellWnd@@UAE@XZ
  00007	e8 00 00 00 00	 call	 __EH_prolog3
  0000c	8b f1		 mov	 esi, ecx
  0000e	89 75 f0	 mov	 DWORD PTR _this$[ebp], esi
  00011	c7 06 00 00 00
	00		 mov	 DWORD PTR [esi], OFFSET ??_7PetResellWnd@@6B@

; 29   : 	SAFEDELETE(m_pSellMark);

  00017	8b 8e 60 01 00
	00		 mov	 ecx, DWORD PTR [esi+352]
  0001d	c7 45 fc 01 00
	00 00		 mov	 DWORD PTR __$EHRec$[ebp+8], 1
  00024	85 c9		 test	 ecx, ecx
  00026	74 0e		 je	 SHORT $LN2@PetResellW
  00028	8b 01		 mov	 eax, DWORD PTR [ecx]
  0002a	6a 01		 push	 1
  0002c	ff 50 40	 call	 DWORD PTR [eax+64]
  0002f	83 a6 60 01 00
	00 00		 and	 DWORD PTR [esi+352], 0
$LN2@PetResellW:

; 30   : 	SAFEDELETE(m_pBottomFrm);

  00036	8b 8e 64 01 00
	00		 mov	 ecx, DWORD PTR [esi+356]
  0003c	85 c9		 test	 ecx, ecx
  0003e	74 0e		 je	 SHORT $LN1@PetResellW
  00040	8b 01		 mov	 eax, DWORD PTR [ecx]
  00042	6a 01		 push	 1
  00044	ff 50 40	 call	 DWORD PTR [eax+64]
  00047	83 a6 64 01 00
	00 00		 and	 DWORD PTR [esi+356], 0
$LN1@PetResellW:

; 31   : }

  0004e	8d 8e 78 01 00
	00		 lea	 ecx, DWORD PTR [esi+376]
  00054	c6 45 fc 00	 mov	 BYTE PTR __$EHRec$[ebp+8], 0
  00058	ff 15 00 00 00
	00		 call	 DWORD PTR __imp_??1ioHashString@@QAE@XZ
  0005e	83 4d fc ff	 or	 DWORD PTR __$EHRec$[ebp+8], -1
  00062	8b ce		 mov	 ecx, esi
  00064	ff 15 00 00 00
	00		 call	 DWORD PTR __imp_??1ioWnd@@UAE@XZ
  0006a	e8 00 00 00 00	 call	 __EH_epilog3
  0006f	c3		 ret	 0
_TEXT	ENDS
;	COMDAT text$x
text$x	SEGMENT
__unwindfunclet$??1PetResellWnd@@UAE@XZ$0:
  00000	8b 4d f0	 mov	 ecx, DWORD PTR _this$[ebp]
  00003	ff 25 00 00 00
	00		 jmp	 DWORD PTR __imp_??1ioWnd@@UAE@XZ
__unwindfunclet$??1PetResellWnd@@UAE@XZ$1:
  00009	8b 4d f0	 mov	 ecx, DWORD PTR _this$[ebp]
  0000c	81 c1 78 01 00
	00		 add	 ecx, 376		; 00000178H
  00012	ff 25 00 00 00
	00		 jmp	 DWORD PTR __imp_??1ioHashString@@QAE@XZ
__ehhandler$??1PetResellWnd@@UAE@XZ:
  00018	8b 54 24 08	 mov	 edx, DWORD PTR [esp+8]
  0001c	8d 42 0c	 lea	 eax, DWORD PTR [edx+12]
  0001f	8b 4a ec	 mov	 ecx, DWORD PTR [edx-20]
  00022	33 c8		 xor	 ecx, eax
  00024	e8 00 00 00 00	 call	 @__security_check_cookie@4
  00029	b8 00 00 00 00	 mov	 eax, OFFSET __ehfuncinfo$??1PetResellWnd@@UAE@XZ
  0002e	e9 00 00 00 00	 jmp	 ___CxxFrameHandler3
text$x	ENDS
??1PetResellWnd@@UAE@XZ ENDP				; PetResellWnd::~PetResellWnd
PUBLIC	??_C@_00CNPNBAHC@?$AA@				; `string'
EXTRN	__imp_?SetString@ioInputBox@@QAEXPBD@Z:PROC
EXTRN	__imp_?GetSingleton@ioInputBox@@SAAAV1@XZ:PROC
EXTRN	__imp_?ShowWnd@ioWnd@@QAEXXZ:PROC
EXTRN	__imp_?ClearString@ioEdit@@QAEXXZ:PROC
EXTRN	__imp_?m_pKeyFocusEdit@ioEdit@@2PAV1@A:DWORD
EXTRN	__imp_?IsShow@ioWnd@@QBE_NXZ:PROC
EXTRN	__imp_?FindChildWnd@ioWnd@@QAEPAV1@K@Z:PROC
;	COMDAT ??_C@_00CNPNBAHC@?$AA@
CONST	SEGMENT
??_C@_00CNPNBAHC@?$AA@ DB 00H				; `string'
; Function compile flags: /Ogsp
CONST	ENDS
;	COMDAT ?iwm_show@PetResellWnd@@UAEXXZ
_TEXT	SEGMENT
?iwm_show@PetResellWnd@@UAEXXZ PROC			; PetResellWnd::iwm_show, COMDAT
; _this$ = ecx

; 34   : {	

  00000	56		 push	 esi
  00001	57		 push	 edi

; 35   : 	ioEdit *pEdit = (ioEdit*)( FindChildWnd( ID_SELL_EDIT ) );

  00002	6a 04		 push	 4
  00004	8b f9		 mov	 edi, ecx
  00006	ff 15 00 00 00
	00		 call	 DWORD PTR __imp_?FindChildWnd@ioWnd@@QAEPAV1@K@Z
  0000c	8b f0		 mov	 esi, eax

; 36   : 	if( pEdit && pEdit->IsShow() )

  0000e	85 f6		 test	 esi, esi
  00010	74 4c		 je	 SHORT $LN1@iwm_show
  00012	8b ce		 mov	 ecx, esi
  00014	ff 15 00 00 00
	00		 call	 DWORD PTR __imp_?IsShow@ioWnd@@QBE_NXZ
  0001a	84 c0		 test	 al, al
  0001c	74 40		 je	 SHORT $LN1@iwm_show

; 37   : 	{
; 38   : 		m_pPreEdit = ioEdit::m_pKeyFocusEdit;

  0001e	a1 00 00 00 00	 mov	 eax, DWORD PTR __imp_?m_pKeyFocusEdit@ioEdit@@2PAV1@A
  00023	8b 00		 mov	 eax, DWORD PTR [eax]

; 39   : 		pEdit->ClearString();

  00025	8b ce		 mov	 ecx, esi
  00027	89 87 88 01 00
	00		 mov	 DWORD PTR [edi+392], eax
  0002d	ff 15 00 00 00
	00		 call	 DWORD PTR __imp_?ClearString@ioEdit@@QAEXXZ

; 40   : 		pEdit->SetKeyFocus();

  00033	8b 06		 mov	 eax, DWORD PTR [esi]
  00035	8b ce		 mov	 ecx, esi
  00037	ff 90 30 01 00
	00		 call	 DWORD PTR [eax+304]

; 41   : 		pEdit->ShowWnd();

  0003d	8b ce		 mov	 ecx, esi
  0003f	ff 15 00 00 00
	00		 call	 DWORD PTR __imp_?ShowWnd@ioWnd@@QAEXXZ

; 42   : 
; 43   : 		g_InputBox.SetString( "" );

  00045	68 00 00 00 00	 push	 OFFSET ??_C@_00CNPNBAHC@?$AA@
  0004a	ff 15 00 00 00
	00		 call	 DWORD PTR __imp_?GetSingleton@ioInputBox@@SAAAV1@XZ
  00050	8b c8		 mov	 ecx, eax
  00052	ff 15 00 00 00
	00		 call	 DWORD PTR __imp_?SetString@ioInputBox@@QAEXPBD@Z

; 44   : 
; 45   : 		m_pSellEdit = pEdit;

  00058	89 b7 8c 01 00
	00		 mov	 DWORD PTR [edi+396], esi
$LN1@iwm_show:

; 46   : 	}
; 47   : }

  0005e	5f		 pop	 edi
  0005f	5e		 pop	 esi
  00060	c3		 ret	 0
?iwm_show@PetResellWnd@@UAEXXZ ENDP			; PetResellWnd::iwm_show
_TEXT	ENDS
EXTRN	__imp_?GetParent@ioWnd@@QAEPAV1@XZ:PROC
; Function compile flags: /Ogsp
;	COMDAT ?iwm_hide@PetResellWnd@@UAEXXZ
_TEXT	SEGMENT
?iwm_hide@PetResellWnd@@UAEXXZ PROC			; PetResellWnd::iwm_hide, COMDAT
; _this$ = ecx

; 50   : {

  00000	56		 push	 esi
  00001	8b f1		 mov	 esi, ecx

; 51   : 	if( m_pPreEdit )	

  00003	8b 8e 88 01 00
	00		 mov	 ecx, DWORD PTR [esi+392]
  00009	85 c9		 test	 ecx, ecx
  0000b	74 24		 je	 SHORT $LN1@iwm_hide

; 52   : 	{
; 53   : 		ioWnd *pParent = m_pPreEdit->GetParent();

  0000d	ff 15 00 00 00
	00		 call	 DWORD PTR __imp_?GetParent@ioWnd@@QAEPAV1@XZ

; 54   : 		if( pParent )

  00013	85 c0		 test	 eax, eax
  00015	74 1a		 je	 SHORT $LN1@iwm_hide

; 55   : 		{
; 56   : 			if( pParent->IsShow() )

  00017	8b c8		 mov	 ecx, eax
  00019	ff 15 00 00 00
	00		 call	 DWORD PTR __imp_?IsShow@ioWnd@@QBE_NXZ
  0001f	84 c0		 test	 al, al
  00021	74 0e		 je	 SHORT $LN1@iwm_hide

; 57   : 				((ioEdit*)m_pPreEdit)->SetKeyFocus();	

  00023	8b 8e 88 01 00
	00		 mov	 ecx, DWORD PTR [esi+392]
  00029	8b 01		 mov	 eax, DWORD PTR [ecx]
  0002b	ff 90 30 01 00
	00		 call	 DWORD PTR [eax+304]
$LN1@iwm_hide:

; 58   : 		}
; 59   : 	}	
; 60   : 	m_pPreEdit = NULL;

  00031	83 a6 88 01 00
	00 00		 and	 DWORD PTR [esi+392], 0

; 61   : 
; 62   : 	m_nPetCode = 0;

  00038	83 a6 68 01 00
	00 00		 and	 DWORD PTR [esi+360], 0

; 63   : 	m_nPetLevel = 0;

  0003f	83 a6 6c 01 00
	00 00		 and	 DWORD PTR [esi+364], 0

; 64   : 	m_nPetRank = 0;

  00046	83 a6 70 01 00
	00 00		 and	 DWORD PTR [esi+368], 0

; 65   : 
; 66   : 	m_szPetName.Clear();

  0004d	8d 8e 78 01 00
	00		 lea	 ecx, DWORD PTR [esi+376]
  00053	5e		 pop	 esi
  00054	ff 25 00 00 00
	00		 jmp	 DWORD PTR __imp_?Clear@ioHashString@@QAEXXZ
?iwm_hide@PetResellWnd@@UAEXXZ ENDP			; PetResellWnd::iwm_hide
_TEXT	ENDS
PUBLIC	??_C@_0BK@EAFGEMJK@PetResellWnd?3?3iwm_command?$AA@ ; `string'
PUBLIC	_this$GSCopy$
PUBLIC	__$ArrayPad$
EXTRN	?SetMsgBox@ioSP2GUIManager@@QAAXHPAVioWnd@@PBDZZ:PROC ; ioSP2GUIManager::SetMsgBox
EXTRN	?GetSingleton@ioSP2GUIManager@@SAAAV1@XZ:PROC	; ioSP2GUIManager::GetSingleton
EXTRN	??1SP2Packet@@UAE@XZ:PROC			; SP2Packet::~SP2Packet
EXTRN	?MouseBusy@TCPNetwork@@YAX_N@Z:PROC		; TCPNetwork::MouseBusy
EXTRN	?SendToServer@TCPNetwork@@YAXAAVSP2Packet@@@Z:PROC ; TCPNetwork::SendToServer
EXTRN	??6SP2Packet@@QAEAAV0@H@Z:PROC			; SP2Packet::operator<<
EXTRN	??0SP2Packet@@QAE@K@Z:PROC			; SP2Packet::SP2Packet
EXTRN	__imp_?HideWnd@ioWnd@@QAEXXZ:PROC
EXTRN	__imp_?GetText@ioEdit@@QBEPBDXZ:PROC
EXTRN	__imp_?GetString@ioStringManager@@QAEPADPBD0HW4FileNamePrefix@1@@Z:PROC
EXTRN	__imp_?GetSingleton@ioStringManager@@SAAAV1@XZ:PROC
EXTRN	__imp_?GetID@ioWnd@@QBEKXZ:PROC
EXTRN	___security_cookie:DWORD
EXTRN	__chkstk:PROC
;	COMDAT ??_C@_0BK@EAFGEMJK@PetResellWnd?3?3iwm_command?$AA@
CONST	SEGMENT
??_C@_0BK@EAFGEMJK@PetResellWnd?3?3iwm_command?$AA@ DB 'PetResellWnd::iwm'
	DB	'_command', 00H				; `string'
CONST	ENDS
;	COMDAT xdata$x
xdata$x	SEGMENT
__unwindtable$?iwm_command@PetResellWnd@@UAEXPAVioWnd@@HK@Z DD 0ffffffffH
	DD	FLAT:__unwindfunclet$?iwm_command@PetResellWnd@@UAEXPAVioWnd@@HK@Z$0
__ehfuncinfo$?iwm_command@PetResellWnd@@UAEXPAVioWnd@@HK@Z DD 019930522H
	DD	01H
	DD	FLAT:__unwindtable$?iwm_command@PetResellWnd@@UAEXPAVioWnd@@HK@Z
	DD	2 DUP(00H)
	DD	2 DUP(00H)
	DD	00H
	DD	01H
; Function compile flags: /Ogsp
xdata$x	ENDS
;	COMDAT ?iwm_command@PetResellWnd@@UAEXPAVioWnd@@HK@Z
_TEXT	SEGMENT
_this$GSCopy$ = -32816					; size = 4
tv224 = -32812						; size = 4
_kPacket$505452 = -32808				; size = 32792
__$ArrayPad$ = -16					; size = 4
__$EHRec$ = -12						; size = 12
_pWnd$ = 8						; size = 4
_cmd$ = 12						; size = 4
_param$ = 16						; size = 4
?iwm_command@PetResellWnd@@UAEXPAVioWnd@@HK@Z PROC	; PetResellWnd::iwm_command, COMDAT
; _this$ = ecx

; 70   : {

  00000	55		 push	 ebp
  00001	8b ec		 mov	 ebp, esp
  00003	6a ff		 push	 -1
  00005	68 00 00 00 00	 push	 __ehhandler$?iwm_command@PetResellWnd@@UAEXPAVioWnd@@HK@Z
  0000a	64 a1 00 00 00
	00		 mov	 eax, DWORD PTR fs:0
  00010	50		 push	 eax
  00011	b8 24 80 00 00	 mov	 eax, 32804		; 00008024H
  00016	e8 00 00 00 00	 call	 __chkstk
  0001b	a1 00 00 00 00	 mov	 eax, DWORD PTR ___security_cookie
  00020	33 c5		 xor	 eax, ebp
  00022	89 45 f0	 mov	 DWORD PTR __$ArrayPad$[ebp], eax
  00025	53		 push	 ebx
  00026	56		 push	 esi
  00027	57		 push	 edi
  00028	50		 push	 eax
  00029	8d 45 f4	 lea	 eax, DWORD PTR __$EHRec$[ebp]
  0002c	64 a3 00 00 00
	00		 mov	 DWORD PTR fs:0, eax
  00032	8b 7d 08	 mov	 edi, DWORD PTR _pWnd$[ebp]
  00035	8b f1		 mov	 esi, ecx

; 71   : 	DWORD dwID = pWnd->GetID();

  00037	8b cf		 mov	 ecx, edi

; 90   : 			{
; 91   : 				g_GUIMgr.SetMsgBox( MB_OK, NULL, STR(3) );

  00039	89 b5 d0 7f ff
	ff		 mov	 DWORD PTR _this$GSCopy$[ebp], esi
  0003f	ff 15 00 00 00
	00		 call	 DWORD PTR __imp_?GetID@ioWnd@@QBEKXZ
  00045	48		 dec	 eax
  00046	0f 84 6a 01 00
	00		 je	 $LN11@iwm_comman

; 72   : 	switch( dwID )

  0004c	48		 dec	 eax
  0004d	74 36		 je	 SHORT $LN9@iwm_comman
  0004f	48		 dec	 eax
  00050	0f 84 60 01 00
	00		 je	 $LN11@iwm_comman
  00056	48		 dec	 eax
  00057	0f 85 67 01 00
	00		 jne	 $LN10@iwm_comman

; 103  : 		break;
; 104  : 	case ID_SELL_EDIT:
; 105  : 		if( cmd == IOED_INPUT )

  0005d	83 7d 0c 22	 cmp	 DWORD PTR _cmd$[ebp], 34 ; 00000022H
  00061	0f 85 5d 01 00
	00		 jne	 $LN10@iwm_comman

; 106  : 		{
; 107  : 			if( param == 0 || param == 1 )

  00067	39 45 10	 cmp	 DWORD PTR _param$[ebp], eax
  0006a	74 0a		 je	 SHORT $LN1@iwm_comman
  0006c	83 7d 10 01	 cmp	 DWORD PTR _param$[ebp], 1
  00070	0f 85 4e 01 00
	00		 jne	 $LN10@iwm_comman
$LN1@iwm_comman:

; 108  : 			{
; 109  : 				ioEdit *pEdit = (ioEdit*)(pWnd);
; 110  : 				pEdit->SetKeyFocus();

  00076	8b 07		 mov	 eax, DWORD PTR [edi]
  00078	8b cf		 mov	 ecx, edi
  0007a	ff 90 30 01 00
	00		 call	 DWORD PTR [eax+304]

; 111  : 			}
; 112  : 		}
; 113  : 		break;

  00080	e9 3f 01 00 00	 jmp	 $LN10@iwm_comman
$LN9@iwm_comman:

; 78   : 		break;
; 79   : 	case ID_SELL:
; 80   : 		if( cmd == IOBN_BTNUP )

  00085	83 7d 0c 11	 cmp	 DWORD PTR _cmd$[ebp], 17 ; 00000011H
  00089	0f 85 35 01 00
	00		 jne	 $LN10@iwm_comman

; 81   : 		{	
; 82   : 			if( !m_pSellEdit || !m_pSellEdit->IsShow() )

  0008f	8b 8e 8c 01 00
	00		 mov	 ecx, DWORD PTR [esi+396]
  00095	33 ff		 xor	 edi, edi
  00097	3b cf		 cmp	 ecx, edi
  00099	0f 84 e9 00 00
	00		 je	 $LN6@iwm_comman
  0009f	ff 15 00 00 00
	00		 call	 DWORD PTR __imp_?IsShow@ioWnd@@QBE_NXZ
  000a5	84 c0		 test	 al, al
  000a7	0f 84 db 00 00
	00		 je	 $LN6@iwm_comman

; 86   : 			}
; 87   : 
; 88   : 			ioEdit *pEdit = (ioEdit*)( m_pSellEdit );

  000ad	8b b6 8c 01 00
	00		 mov	 esi, DWORD PTR [esi+396]

; 89   : 			if( strcmp( pEdit->GetText(), STR(2) ) != 0 )

  000b3	57		 push	 edi
  000b4	8b 3d 00 00 00
	00		 mov	 edi, DWORD PTR __imp_?GetSingleton@ioStringManager@@SAAAV1@XZ
  000ba	6a 02		 push	 2
  000bc	68 00 00 00 00	 push	 OFFSET ??_C@_00CNPNBAHC@?$AA@
  000c1	68 00 00 00 00	 push	 OFFSET ??_C@_0BK@EAFGEMJK@PetResellWnd?3?3iwm_command?$AA@
  000c6	ff d7		 call	 edi
  000c8	8b 1d 00 00 00
	00		 mov	 ebx, DWORD PTR __imp_?GetString@ioStringManager@@QAEPADPBD0HW4FileNamePrefix@1@@Z
  000ce	8b c8		 mov	 ecx, eax
  000d0	ff d3		 call	 ebx
  000d2	8b ce		 mov	 ecx, esi
  000d4	89 85 d4 7f ff
	ff		 mov	 DWORD PTR tv224[ebp], eax
  000da	ff 15 00 00 00
	00		 call	 DWORD PTR __imp_?GetText@ioEdit@@QBEPBDXZ
$LL17@iwm_comman:
  000e0	8a 08		 mov	 cl, BYTE PTR [eax]
  000e2	8b b5 d4 7f ff
	ff		 mov	 esi, DWORD PTR tv224[ebp]
  000e8	3a 0e		 cmp	 cl, BYTE PTR [esi]
  000ea	75 20		 jne	 SHORT $LN18@iwm_comman
  000ec	84 c9		 test	 cl, cl
  000ee	74 18		 je	 SHORT $LN19@iwm_comman
  000f0	8a 48 01	 mov	 cl, BYTE PTR [eax+1]
  000f3	3a 4e 01	 cmp	 cl, BYTE PTR [esi+1]
  000f6	75 14		 jne	 SHORT $LN18@iwm_comman
  000f8	83 c6 02	 add	 esi, 2
  000fb	83 c0 02	 add	 eax, 2
  000fe	89 b5 d4 7f ff
	ff		 mov	 DWORD PTR tv224[ebp], esi
  00104	84 c9		 test	 cl, cl
  00106	75 d8		 jne	 SHORT $LL17@iwm_comman
$LN19@iwm_comman:
  00108	33 c0		 xor	 eax, eax
  0010a	eb 05		 jmp	 SHORT $LN20@iwm_comman
$LN18@iwm_comman:
  0010c	1b c0		 sbb	 eax, eax
  0010e	83 d8 ff	 sbb	 eax, -1
$LN20@iwm_comman:
  00111	33 f6		 xor	 esi, esi
  00113	3b c6		 cmp	 eax, esi
  00115	74 18		 je	 SHORT $LN5@iwm_comman

; 90   : 			{
; 91   : 				g_GUIMgr.SetMsgBox( MB_OK, NULL, STR(3) );

  00117	56		 push	 esi
  00118	6a 03		 push	 3
  0011a	68 00 00 00 00	 push	 OFFSET ??_C@_00CNPNBAHC@?$AA@
  0011f	68 00 00 00 00	 push	 OFFSET ??_C@_0BK@EAFGEMJK@PetResellWnd?3?3iwm_command?$AA@
  00124	ff d7		 call	 edi
  00126	8b c8		 mov	 ecx, eax
  00128	ff d3		 call	 ebx
  0012a	50		 push	 eax
  0012b	56		 push	 esi
  0012c	56		 push	 esi

; 92   : 				return;

  0012d	eb 77		 jmp	 SHORT $LN22@iwm_comman
$LN5@iwm_comman:

; 93   : 			}
; 94   : 
; 95   : 			HideWnd();

  0012f	8b b5 d0 7f ff
	ff		 mov	 esi, DWORD PTR _this$GSCopy$[ebp]
  00135	8b ce		 mov	 ecx, esi
  00137	ff 15 00 00 00
	00		 call	 DWORD PTR __imp_?HideWnd@ioWnd@@QAEXXZ

; 96   : 			
; 97   : 			//ÆÐÅ¶ Àü¼Û
; 98   : 			SP2Packet kPacket( CTPK_PET_SELL );

  0013d	68 27 03 00 00	 push	 807			; 00000327H
  00142	8d 8d d8 7f ff
	ff		 lea	 ecx, DWORD PTR _kPacket$505452[ebp]
  00148	e8 00 00 00 00	 call	 ??0SP2Packet@@QAE@K@Z	; SP2Packet::SP2Packet

; 99   : 			kPacket << m_nPetSlotIndex;

  0014d	ff b6 74 01 00
	00		 push	 DWORD PTR [esi+372]
  00153	83 65 fc 00	 and	 DWORD PTR __$EHRec$[ebp+8], 0
  00157	8d 8d d8 7f ff
	ff		 lea	 ecx, DWORD PTR _kPacket$505452[ebp]
  0015d	e8 00 00 00 00	 call	 ??6SP2Packet@@QAEAAV0@H@Z ; SP2Packet::operator<<

; 100  : 			TCPNetwork::SendToServer( kPacket );

  00162	8d 85 d8 7f ff
	ff		 lea	 eax, DWORD PTR _kPacket$505452[ebp]
  00168	50		 push	 eax
  00169	e8 00 00 00 00	 call	 ?SendToServer@TCPNetwork@@YAXAAVSP2Packet@@@Z ; TCPNetwork::SendToServer

; 101  : 			TCPNetwork::MouseBusy( true );				

  0016e	6a 01		 push	 1
  00170	e8 00 00 00 00	 call	 ?MouseBusy@TCPNetwork@@YAX_N@Z ; TCPNetwork::MouseBusy

; 102  : 		}

  00175	83 4d fc ff	 or	 DWORD PTR __$EHRec$[ebp+8], -1
  00179	59		 pop	 ecx
  0017a	59		 pop	 ecx
  0017b	8d 8d d8 7f ff
	ff		 lea	 ecx, DWORD PTR _kPacket$505452[ebp]
  00181	e8 00 00 00 00	 call	 ??1SP2Packet@@UAE@XZ	; SP2Packet::~SP2Packet
  00186	eb 3c		 jmp	 SHORT $LN10@iwm_comman
$LN6@iwm_comman:

; 83   : 			{
; 84   : 				g_GUIMgr.SetMsgBox( MB_OK, NULL, STR(1) );

  00188	57		 push	 edi
  00189	6a 01		 push	 1
  0018b	68 00 00 00 00	 push	 OFFSET ??_C@_00CNPNBAHC@?$AA@
  00190	68 00 00 00 00	 push	 OFFSET ??_C@_0BK@EAFGEMJK@PetResellWnd?3?3iwm_command?$AA@
  00195	ff 15 00 00 00
	00		 call	 DWORD PTR __imp_?GetSingleton@ioStringManager@@SAAAV1@XZ
  0019b	8b c8		 mov	 ecx, eax
  0019d	ff 15 00 00 00
	00		 call	 DWORD PTR __imp_?GetString@ioStringManager@@QAEPADPBD0HW4FileNamePrefix@1@@Z
  001a3	50		 push	 eax
  001a4	57		 push	 edi
  001a5	57		 push	 edi
$LN22@iwm_comman:
  001a6	e8 00 00 00 00	 call	 ?GetSingleton@ioSP2GUIManager@@SAAAV1@XZ ; ioSP2GUIManager::GetSingleton
  001ab	50		 push	 eax
  001ac	e8 00 00 00 00	 call	 ?SetMsgBox@ioSP2GUIManager@@QAAXHPAVioWnd@@PBDZZ ; ioSP2GUIManager::SetMsgBox
  001b1	83 c4 10	 add	 esp, 16			; 00000010H

; 85   : 				return;

  001b4	eb 0e		 jmp	 SHORT $LN10@iwm_comman
$LN11@iwm_comman:

; 73   : 	{
; 74   : 	case ID_EXIT:
; 75   : 	case ID_CANCEL:
; 76   : 		if( cmd == IOBN_BTNUP )

  001b6	83 7d 0c 11	 cmp	 DWORD PTR _cmd$[ebp], 17 ; 00000011H
  001ba	75 08		 jne	 SHORT $LN10@iwm_comman

; 77   : 			HideWnd();

  001bc	8b ce		 mov	 ecx, esi
  001be	ff 15 00 00 00
	00		 call	 DWORD PTR __imp_?HideWnd@ioWnd@@QAEXXZ
$LN10@iwm_comman:

; 114  : 	}
; 115  : }

  001c4	8b 4d f4	 mov	 ecx, DWORD PTR __$EHRec$[ebp]
  001c7	64 89 0d 00 00
	00 00		 mov	 DWORD PTR fs:0, ecx
  001ce	59		 pop	 ecx
  001cf	5f		 pop	 edi
  001d0	5e		 pop	 esi
  001d1	5b		 pop	 ebx
  001d2	8b 4d f0	 mov	 ecx, DWORD PTR __$ArrayPad$[ebp]
  001d5	33 cd		 xor	 ecx, ebp
  001d7	e8 00 00 00 00	 call	 @__security_check_cookie@4
  001dc	c9		 leave
  001dd	c2 0c 00	 ret	 12			; 0000000cH
_TEXT	ENDS
;	COMDAT text$x
text$x	SEGMENT
__unwindfunclet$?iwm_command@PetResellWnd@@UAEXPAVioWnd@@HK@Z$0:
  00000	8d 8d d8 7f ff
	ff		 lea	 ecx, DWORD PTR _kPacket$505452[ebp]
  00006	e9 00 00 00 00	 jmp	 ??1SP2Packet@@UAE@XZ	; SP2Packet::~SP2Packet
__ehhandler$?iwm_command@PetResellWnd@@UAEXPAVioWnd@@HK@Z:
  0000b	8b 54 24 08	 mov	 edx, DWORD PTR [esp+8]
  0000f	8d 42 0c	 lea	 eax, DWORD PTR [edx+12]
  00012	8b 8a cc 7f ff
	ff		 mov	 ecx, DWORD PTR [edx-32820]
  00018	33 c8		 xor	 ecx, eax
  0001a	e8 00 00 00 00	 call	 @__security_check_cookie@4
  0001f	8b 4a fc	 mov	 ecx, DWORD PTR [edx-4]
  00022	33 c8		 xor	 ecx, eax
  00024	e8 00 00 00 00	 call	 @__security_check_cookie@4
  00029	b8 00 00 00 00	 mov	 eax, OFFSET __ehfuncinfo$?iwm_command@PetResellWnd@@UAEXPAVioWnd@@HK@Z
  0002e	e9 00 00 00 00	 jmp	 ___CxxFrameHandler3
text$x	ENDS
?iwm_command@PetResellWnd@@UAEXPAVioWnd@@HK@Z ENDP	; PetResellWnd::iwm_command
EXTRN	__imp_?GetDerivedPosY@ioWnd@@QBEHXZ:PROC
EXTRN	__imp_?GetDerivedPosX@ioWnd@@QBEHXZ:PROC
EXTRN	__fltused:DWORD
; Function compile flags: /Ogsp
;	COMDAT ?OnRenderAfterChild@PetResellWnd@@MAEXXZ
_TEXT	SEGMENT
?OnRenderAfterChild@PetResellWnd@@MAEXXZ PROC		; PetResellWnd::OnRenderAfterChild, COMDAT
; _this$ = ecx

; 153  : {

  00000	56		 push	 esi
  00001	57		 push	 edi
  00002	8b f1		 mov	 esi, ecx

; 154  : 	int iXPos = GetDerivedPosX();

  00004	ff 15 00 00 00
	00		 call	 DWORD PTR __imp_?GetDerivedPosX@ioWnd@@QBEHXZ

; 155  : 	int iYPos = GetDerivedPosY();

  0000a	8b ce		 mov	 ecx, esi
  0000c	8b f8		 mov	 edi, eax
  0000e	ff 15 00 00 00
	00		 call	 DWORD PTR __imp_?GetDerivedPosY@ioWnd@@QBEHXZ

; 156  : 
; 157  : 	enum
; 158  : 	{
; 159  : 		ICON_X		= 125,
; 160  : 		ICON_Y		= 98,
; 161  : 	};
; 162  : 
; 163  : 	if( m_pSellMark )

  00014	33 d2		 xor	 edx, edx
  00016	39 96 60 01 00
	00		 cmp	 DWORD PTR [esi+352], edx
  0001c	74 2f		 je	 SHORT $LN1@OnRenderAf

; 164  : 		m_pSellMark->Render( iXPos+ICON_X, iYPos+ICON_Y );

  0001e	8b 8e 60 01 00
	00		 mov	 ecx, DWORD PTR [esi+352]
  00024	8b 31		 mov	 esi, DWORD PTR [ecx]
  00026	52		 push	 edx
  00027	52		 push	 edx
  00028	52		 push	 edx
  00029	52		 push	 edx
  0002a	0f 57 c0	 xorps	 xmm0, xmm0
  0002d	51		 push	 ecx
  0002e	83 c0 62	 add	 eax, 98			; 00000062H
  00031	f3 0f 2a c0	 cvtsi2ss xmm0, eax
  00035	51		 push	 ecx
  00036	f3 0f 11 44 24
	04		 movss	 DWORD PTR [esp+4], xmm0
  0003c	83 c7 7d	 add	 edi, 125		; 0000007dH
  0003f	0f 57 c0	 xorps	 xmm0, xmm0
  00042	f3 0f 2a c7	 cvtsi2ss xmm0, edi
  00046	f3 0f 11 04 24	 movss	 DWORD PTR [esp], xmm0
  0004b	ff 16		 call	 DWORD PTR [esi]
$LN1@OnRenderAf:

; 165  : }

  0004d	5f		 pop	 edi
  0004e	5e		 pop	 esi
  0004f	c3		 ret	 0
?OnRenderAfterChild@PetResellWnd@@MAEXXZ ENDP		; PetResellWnd::OnRenderAfterChild
_TEXT	ENDS
PUBLIC	__real@3f19999a
PUBLIC	__real@3f266666
PUBLIC	??_C@_01OHGJGJJP@?$FL?$AA@			; `string'
PUBLIC	__real@3f666666
PUBLIC	??_C@_0BJ@HFFDPPHO@PetResellWnd?3?3RenderDesc?$AA@ ; `string'
PUBLIC	?RenderDesc@PetResellWnd@@IAEXHH@Z		; PetResellWnd::RenderDesc
EXTRN	??1ioComplexStringPrinter@@QAE@XZ:PROC		; ioComplexStringPrinter::~ioComplexStringPrinter
EXTRN	?ClearList@ioComplexStringPrinter@@QAEXXZ:PROC	; ioComplexStringPrinter::ClearList
EXTRN	?PrintFullText@ioComplexStringPrinter@@QAEXMMW4TextAlignType@@E@Z:PROC ; ioComplexStringPrinter::PrintFullText
EXTRN	?AddTextPiece@ioComplexStringPrinter@@QAEXMPBD0@Z:PROC ; ioComplexStringPrinter::AddTextPiece
EXTRN	__imp_?c_str@ioHashString@@QBEPBDXZ:PROC
EXTRN	?AddTextPiece@ioComplexStringPrinter@@QAAXMPBDZZ:PROC ; ioComplexStringPrinter::AddTextPiece
EXTRN	?AddTextPiece@ioComplexStringPrinter@@QAEXMPBDH@Z:PROC ; ioComplexStringPrinter::AddTextPiece
EXTRN	?SetTextColor@ioComplexStringPrinter@@QAEXK@Z:PROC ; ioComplexStringPrinter::SetTextColor
EXTRN	?GetMaxLevel@ioPetInfoManager@@QAEHW4PetRankType@@@Z:PROC ; ioPetInfoManager::GetMaxLevel
EXTRN	?SetTextStyle@ioComplexStringPrinter@@QAEXW4TextStyle@@@Z:PROC ; ioComplexStringPrinter::SetTextStyle
EXTRN	?SetBkColor@ioComplexStringPrinter@@QAEXHHH@Z:PROC ; ioComplexStringPrinter::SetBkColor
EXTRN	??0ioComplexStringPrinter@@QAE@XZ:PROC		; ioComplexStringPrinter::ioComplexStringPrinter
EXTRN	__imp_?IsEmpty@ioHashString@@QBE_NXZ:PROC
EXTRN	?GetRankName@ioPetInfoManager@@QAE?AVioHashString@@H@Z:PROC ; ioPetInfoManager::GetRankName
EXTRN	?GetSingleton@ioPetInfoManager@@SAAAV1@XZ:PROC	; ioPetInfoManager::GetSingleton
;	COMDAT __real@3f19999a
CONST	SEGMENT
__real@3f19999a DD 03f19999ar			; 0.6
CONST	ENDS
;	COMDAT __real@3f266666
CONST	SEGMENT
__real@3f266666 DD 03f266666r			; 0.65
CONST	ENDS
;	COMDAT ??_C@_01OHGJGJJP@?$FL?$AA@
CONST	SEGMENT
??_C@_01OHGJGJJP@?$FL?$AA@ DB '[', 00H			; `string'
CONST	ENDS
;	COMDAT __real@3f666666
CONST	SEGMENT
__real@3f666666 DD 03f666666r			; 0.9
CONST	ENDS
;	COMDAT ??_C@_0BJ@HFFDPPHO@PetResellWnd?3?3RenderDesc?$AA@
CONST	SEGMENT
??_C@_0BJ@HFFDPPHO@PetResellWnd?3?3RenderDesc?$AA@ DB 'PetResellWnd::Rend'
	DB	'erDesc', 00H				; `string'
CONST	ENDS
;	COMDAT xdata$x
xdata$x	SEGMENT
__unwindtable$?RenderDesc@PetResellWnd@@IAEXHH@Z DD 0ffffffffH
	DD	FLAT:__unwindfunclet$?RenderDesc@PetResellWnd@@IAEXHH@Z$0
	DD	00H
	DD	FLAT:__unwindfunclet$?RenderDesc@PetResellWnd@@IAEXHH@Z$1
__ehfuncinfo$?RenderDesc@PetResellWnd@@IAEXHH@Z DD 019930522H
	DD	02H
	DD	FLAT:__unwindtable$?RenderDesc@PetResellWnd@@IAEXHH@Z
	DD	2 DUP(00H)
	DD	2 DUP(00H)
	DD	00H
	DD	01H
; Function compile flags: /Ogsp
xdata$x	ENDS
;	COMDAT ?RenderDesc@PetResellWnd@@IAEXHH@Z
_TEXT	SEGMENT
_kPrinter$ = -64					; size = 32
_szRank$ = -32						; size = 16
_this$ = -16						; size = 4
__$EHRec$ = -12						; size = 12
tv382 = 8						; size = 4
_nXPos$ = 8						; size = 4
_nYPos$ = 12						; size = 4
?RenderDesc@PetResellWnd@@IAEXHH@Z PROC			; PetResellWnd::RenderDesc, COMDAT
; _this$ = ecx

; 170  : {

  00000	6a 34		 push	 52			; 00000034H
  00002	b8 00 00 00 00	 mov	 eax, __ehhandler$?RenderDesc@PetResellWnd@@IAEXHH@Z
  00007	e8 00 00 00 00	 call	 __EH_prolog3
  0000c	8b f1		 mov	 esi, ecx
  0000e	89 75 f0	 mov	 DWORD PTR _this$[ebp], esi

; 171  : 	enum
; 172  : 	{
; 173  : 		NAME_X_OFFSET = 125,
; 174  : 		NAME_Y_OFFSET = 145,
; 175  : 
; 176  : 		RANK_X_OFFSET = 125,
; 177  : 		RANK_Y_OFFSET = 166,
; 178  : 		
; 179  : 		TEXT_X_OFFSET1 = 125,
; 180  : 
; 181  : 		TEXT_Y_OFFSET1 = 255,
; 182  : 		TEXT_Y_OFFSET2 = 285,
; 183  : 	};
; 184  : 
; 185  : 	ioHashString szRank = g_PetInfoMgr.GetRankName( m_nPetRank );

  00011	ff b6 70 01 00
	00		 push	 DWORD PTR [esi+368]
  00017	8d 45 e0	 lea	 eax, DWORD PTR _szRank$[ebp]
  0001a	50		 push	 eax
  0001b	e8 00 00 00 00	 call	 ?GetSingleton@ioPetInfoManager@@SAAAV1@XZ ; ioPetInfoManager::GetSingleton
  00020	8b c8		 mov	 ecx, eax
  00022	e8 00 00 00 00	 call	 ?GetRankName@ioPetInfoManager@@QAE?AVioHashString@@H@Z ; ioPetInfoManager::GetRankName
  00027	33 ff		 xor	 edi, edi
  00029	89 7d fc	 mov	 DWORD PTR __$EHRec$[ebp+8], edi

; 186  : 
; 187  : 	if ( m_nPetCode <= 0 || m_nPetRank <= 0 || m_szPetName.IsEmpty() || szRank.IsEmpty() )

  0002c	39 be 68 01 00
	00		 cmp	 DWORD PTR [esi+360], edi
  00032	0f 8e f1 03 00
	00		 jle	 $LN5@RenderDesc
  00038	39 be 70 01 00
	00		 cmp	 DWORD PTR [esi+368], edi
  0003e	0f 8e e5 03 00
	00		 jle	 $LN5@RenderDesc
  00044	8d 8e 78 01 00
	00		 lea	 ecx, DWORD PTR [esi+376]
  0004a	ff 15 00 00 00
	00		 call	 DWORD PTR __imp_?IsEmpty@ioHashString@@QBE_NXZ
  00050	84 c0		 test	 al, al
  00052	0f 85 d1 03 00
	00		 jne	 $LN5@RenderDesc
  00058	8d 4d e0	 lea	 ecx, DWORD PTR _szRank$[ebp]
  0005b	ff 15 00 00 00
	00		 call	 DWORD PTR __imp_?IsEmpty@ioHashString@@QBE_NXZ
  00061	84 c0		 test	 al, al
  00063	0f 85 c0 03 00
	00		 jne	 $LN5@RenderDesc

; 189  : 
; 190  : 	if( m_pBottomFrm )

  00069	39 be 64 01 00
	00		 cmp	 DWORD PTR [esi+356], edi
  0006f	74 2e		 je	 SHORT $LN4@RenderDesc

; 191  : 		m_pBottomFrm->Render( nXPos, nYPos, UI_RENDER_MULTIPLY );

  00071	66 0f 6e 45 0c	 movd	 xmm0, DWORD PTR _nYPos$[ebp]
  00076	8b 86 64 01 00
	00		 mov	 eax, DWORD PTR [esi+356]
  0007c	8b 10		 mov	 edx, DWORD PTR [eax]
  0007e	57		 push	 edi
  0007f	57		 push	 edi
  00080	57		 push	 edi
  00081	6a 08		 push	 8
  00083	51		 push	 ecx
  00084	51		 push	 ecx
  00085	0f 5b c0	 cvtdq2ps xmm0, xmm0
  00088	f3 0f 11 44 24
	04		 movss	 DWORD PTR [esp+4], xmm0
  0008e	66 0f 6e 45 08	 movd	 xmm0, DWORD PTR _nXPos$[ebp]
  00093	0f 5b c0	 cvtdq2ps xmm0, xmm0
  00096	8b c8		 mov	 ecx, eax
  00098	f3 0f 11 04 24	 movss	 DWORD PTR [esp], xmm0
  0009d	ff 12		 call	 DWORD PTR [edx]
$LN4@RenderDesc:

; 192  : 
; 193  : 	ioComplexStringPrinter kPrinter;

  0009f	8d 4d c0	 lea	 ecx, DWORD PTR _kPrinter$[ebp]
  000a2	e8 00 00 00 00	 call	 ??0ioComplexStringPrinter@@QAE@XZ ; ioComplexStringPrinter::ioComplexStringPrinter

; 194  : 	kPrinter.SetBkColor( 0, 0, 0 );

  000a7	57		 push	 edi
  000a8	57		 push	 edi
  000a9	57		 push	 edi
  000aa	8d 4d c0	 lea	 ecx, DWORD PTR _kPrinter$[ebp]
  000ad	c6 45 fc 01	 mov	 BYTE PTR __$EHRec$[ebp+8], 1
  000b1	e8 00 00 00 00	 call	 ?SetBkColor@ioComplexStringPrinter@@QAEXHHH@Z ; ioComplexStringPrinter::SetBkColor

; 195  : 	kPrinter.SetTextStyle( TS_NORMAL );

  000b6	57		 push	 edi
  000b7	8d 4d c0	 lea	 ecx, DWORD PTR _kPrinter$[ebp]
  000ba	e8 00 00 00 00	 call	 ?SetTextStyle@ioComplexStringPrinter@@QAEXW4TextStyle@@@Z ; ioComplexStringPrinter::SetTextStyle

; 196  : 	
; 197  : 	//Æê ·¹º§
; 198  : 	int nMaxPetLevel = g_PetInfoMgr.GetMaxLevel( (PetRankType)m_nPetRank );

  000bf	ff b6 70 01 00
	00		 push	 DWORD PTR [esi+368]
  000c5	e8 00 00 00 00	 call	 ?GetSingleton@ioPetInfoManager@@SAAAV1@XZ ; ioPetInfoManager::GetSingleton
  000ca	8b c8		 mov	 ecx, eax
  000cc	e8 00 00 00 00	 call	 ?GetMaxLevel@ioPetInfoManager@@QAEHW4PetRankType@@@Z ; ioPetInfoManager::GetMaxLevel

; 199  : 	if ( m_nPetLevel < nMaxPetLevel )
; 200  : 	{
; 201  : 		kPrinter.SetTextColor( TCT_DEFAULT_RED );

  000d1	68 00 16 b9 ff	 push	 -4647424		; ffb91600H
  000d6	8d 4d c0	 lea	 ecx, DWORD PTR _kPrinter$[ebp]
  000d9	39 86 6c 01 00
	00		 cmp	 DWORD PTR [esi+364], eax
  000df	7d 44		 jge	 SHORT $LN3@RenderDesc
  000e1	e8 00 00 00 00	 call	 ?SetTextColor@ioComplexStringPrinter@@QAEXK@Z ; ioComplexStringPrinter::SetTextColor

; 202  : 		kPrinter.AddTextPiece( FONT_SIZE_18, STR(1), m_nPetLevel );

  000e6	ff b6 6c 01 00
	00		 push	 DWORD PTR [esi+364]
  000ec	8b 35 00 00 00
	00		 mov	 esi, DWORD PTR __imp_?GetSingleton@ioStringManager@@SAAAV1@XZ
  000f2	57		 push	 edi
  000f3	6a 01		 push	 1
  000f5	68 00 00 00 00	 push	 OFFSET ??_C@_00CNPNBAHC@?$AA@
  000fa	bb 00 00 00 00	 mov	 ebx, OFFSET ??_C@_0BJ@HFFDPPHO@PetResellWnd?3?3RenderDesc?$AA@
  000ff	53		 push	 ebx
  00100	ff d6		 call	 esi
  00102	8b 3d 00 00 00
	00		 mov	 edi, DWORD PTR __imp_?GetString@ioStringManager@@QAEPADPBD0HW4FileNamePrefix@1@@Z
  00108	8b c8		 mov	 ecx, eax
  0010a	ff d7		 call	 edi
  0010c	f3 0f 10 05 00
	00 00 00	 movss	 xmm0, DWORD PTR __real@3f666666
  00114	50		 push	 eax
  00115	51		 push	 ecx
  00116	8d 4d c0	 lea	 ecx, DWORD PTR _kPrinter$[ebp]
  00119	f3 0f 11 04 24	 movss	 DWORD PTR [esp], xmm0
  0011e	e8 00 00 00 00	 call	 ?AddTextPiece@ioComplexStringPrinter@@QAEXMPBDH@Z ; ioComplexStringPrinter::AddTextPiece

; 203  : 	}
; 204  : 	else

  00123	eb 7a		 jmp	 SHORT $LN2@RenderDesc
$LN3@RenderDesc:

; 205  : 	{
; 206  : 		kPrinter.SetTextColor( TCT_DEFAULT_RED );

  00125	e8 00 00 00 00	 call	 ?SetTextColor@ioComplexStringPrinter@@QAEXK@Z ; ioComplexStringPrinter::SetTextColor

; 207  : 		kPrinter.AddTextPiece( FONT_SIZE_18, STR(1), m_nPetLevel );

  0012a	ff b6 6c 01 00
	00		 push	 DWORD PTR [esi+364]
  00130	8b 35 00 00 00
	00		 mov	 esi, DWORD PTR __imp_?GetSingleton@ioStringManager@@SAAAV1@XZ
  00136	57		 push	 edi
  00137	6a 01		 push	 1
  00139	68 00 00 00 00	 push	 OFFSET ??_C@_00CNPNBAHC@?$AA@
  0013e	bb 00 00 00 00	 mov	 ebx, OFFSET ??_C@_0BJ@HFFDPPHO@PetResellWnd?3?3RenderDesc?$AA@
  00143	53		 push	 ebx
  00144	ff d6		 call	 esi
  00146	8b 3d 00 00 00
	00		 mov	 edi, DWORD PTR __imp_?GetString@ioStringManager@@QAEPADPBD0HW4FileNamePrefix@1@@Z
  0014c	8b c8		 mov	 ecx, eax
  0014e	ff d7		 call	 edi
  00150	f3 0f 10 05 00
	00 00 00	 movss	 xmm0, DWORD PTR __real@3f666666
  00158	50		 push	 eax
  00159	51		 push	 ecx
  0015a	8d 4d c0	 lea	 ecx, DWORD PTR _kPrinter$[ebp]
  0015d	f3 0f 11 04 24	 movss	 DWORD PTR [esp], xmm0
  00162	e8 00 00 00 00	 call	 ?AddTextPiece@ioComplexStringPrinter@@QAEXMPBDH@Z ; ioComplexStringPrinter::AddTextPiece

; 208  : 		kPrinter.SetTextColor( TCT_DEFAULT_RED );

  00167	68 00 16 b9 ff	 push	 -4647424		; ffb91600H
  0016c	8d 4d c0	 lea	 ecx, DWORD PTR _kPrinter$[ebp]
  0016f	e8 00 00 00 00	 call	 ?SetTextColor@ioComplexStringPrinter@@QAEXK@Z ; ioComplexStringPrinter::SetTextColor

; 209  : 		kPrinter.AddTextPiece( FONT_SIZE_18, STR(2) );

  00174	6a 00		 push	 0
  00176	6a 02		 push	 2
  00178	68 00 00 00 00	 push	 OFFSET ??_C@_00CNPNBAHC@?$AA@
  0017d	53		 push	 ebx
  0017e	ff d6		 call	 esi
  00180	8b c8		 mov	 ecx, eax
  00182	ff d7		 call	 edi
  00184	f3 0f 10 05 00
	00 00 00	 movss	 xmm0, DWORD PTR __real@3f666666
  0018c	50		 push	 eax
  0018d	51		 push	 ecx
  0018e	8d 45 c0	 lea	 eax, DWORD PTR _kPrinter$[ebp]
  00191	f3 0f 11 04 24	 movss	 DWORD PTR [esp], xmm0
  00196	50		 push	 eax
  00197	e8 00 00 00 00	 call	 ?AddTextPiece@ioComplexStringPrinter@@QAAXMPBDZZ ; ioComplexStringPrinter::AddTextPiece
  0019c	83 c4 0c	 add	 esp, 12			; 0000000cH
$LN2@RenderDesc:

; 210  : 	}
; 211  : 
; 212  : 	//Æê ÀÌ¸§
; 213  : 	kPrinter.SetTextColor( TCT_DEFAULT_RED );

  0019f	68 00 16 b9 ff	 push	 -4647424		; ffb91600H
  001a4	8d 4d c0	 lea	 ecx, DWORD PTR _kPrinter$[ebp]
  001a7	e8 00 00 00 00	 call	 ?SetTextColor@ioComplexStringPrinter@@QAEXK@Z ; ioComplexStringPrinter::SetTextColor

; 214  : 	kPrinter.AddTextPiece( FONT_SIZE_18, STR(3), m_szPetName.c_str() );

  001ac	8b 4d f0	 mov	 ecx, DWORD PTR _this$[ebp]
  001af	81 c1 78 01 00
	00		 add	 ecx, 376		; 00000178H
  001b5	ff 15 00 00 00
	00		 call	 DWORD PTR __imp_?c_str@ioHashString@@QBEPBDXZ
  001bb	50		 push	 eax
  001bc	6a 00		 push	 0
  001be	6a 03		 push	 3
  001c0	68 00 00 00 00	 push	 OFFSET ??_C@_00CNPNBAHC@?$AA@
  001c5	53		 push	 ebx
  001c6	ff d6		 call	 esi
  001c8	8b c8		 mov	 ecx, eax
  001ca	ff d7		 call	 edi
  001cc	f3 0f 10 05 00
	00 00 00	 movss	 xmm0, DWORD PTR __real@3f666666
  001d4	50		 push	 eax
  001d5	51		 push	 ecx
  001d6	8d 4d c0	 lea	 ecx, DWORD PTR _kPrinter$[ebp]
  001d9	f3 0f 11 04 24	 movss	 DWORD PTR [esp], xmm0
  001de	e8 00 00 00 00	 call	 ?AddTextPiece@ioComplexStringPrinter@@QAEXMPBD0@Z ; ioComplexStringPrinter::AddTextPiece

; 215  : 	kPrinter.SetTextColor( TCT_DEFAULT_RED );

  001e3	68 00 16 b9 ff	 push	 -4647424		; ffb91600H
  001e8	8d 4d c0	 lea	 ecx, DWORD PTR _kPrinter$[ebp]
  001eb	e8 00 00 00 00	 call	 ?SetTextColor@ioComplexStringPrinter@@QAEXK@Z ; ioComplexStringPrinter::SetTextColor

; 216  : 	kPrinter.PrintFullText( nXPos + NAME_X_OFFSET, nYPos+NAME_Y_OFFSET, TAT_CENTER );

  001f0	8b 45 08	 mov	 eax, DWORD PTR _nXPos$[ebp]
  001f3	83 c0 7d	 add	 eax, 125		; 0000007dH
  001f6	68 ff 00 00 00	 push	 255			; 000000ffH
  001fb	0f 57 c0	 xorps	 xmm0, xmm0
  001fe	f3 0f 2a c0	 cvtsi2ss xmm0, eax
  00202	8b 45 0c	 mov	 eax, DWORD PTR _nYPos$[ebp]
  00205	6a 01		 push	 1
  00207	51		 push	 ecx
  00208	51		 push	 ecx
  00209	05 91 00 00 00	 add	 eax, 145		; 00000091H
  0020e	0f 57 c9	 xorps	 xmm1, xmm1
  00211	f3 0f 2a c8	 cvtsi2ss xmm1, eax
  00215	f3 0f 11 4c 24
	04		 movss	 DWORD PTR [esp+4], xmm1
  0021b	8d 4d c0	 lea	 ecx, DWORD PTR _kPrinter$[ebp]
  0021e	f3 0f 11 45 08	 movss	 DWORD PTR tv382[ebp], xmm0
  00223	f3 0f 11 04 24	 movss	 DWORD PTR [esp], xmm0
  00228	e8 00 00 00 00	 call	 ?PrintFullText@ioComplexStringPrinter@@QAEXMMW4TextAlignType@@E@Z ; ioComplexStringPrinter::PrintFullText

; 217  : 	kPrinter.ClearList();

  0022d	8d 4d c0	 lea	 ecx, DWORD PTR _kPrinter$[ebp]
  00230	e8 00 00 00 00	 call	 ?ClearList@ioComplexStringPrinter@@QAEXXZ ; ioComplexStringPrinter::ClearList

; 218  : 	kPrinter.SetTextColor( TCT_DEFAULT_RED );

  00235	68 00 16 b9 ff	 push	 -4647424		; ffb91600H
  0023a	8d 4d c0	 lea	 ecx, DWORD PTR _kPrinter$[ebp]
  0023d	e8 00 00 00 00	 call	 ?SetTextColor@ioComplexStringPrinter@@QAEXK@Z ; ioComplexStringPrinter::SetTextColor

; 219  : 	kPrinter.AddTextPiece( FONT_SIZE_18, STR(4), szRank.c_str() );

  00242	8d 4d e0	 lea	 ecx, DWORD PTR _szRank$[ebp]
  00245	ff 15 00 00 00
	00		 call	 DWORD PTR __imp_?c_str@ioHashString@@QBEPBDXZ
  0024b	50		 push	 eax
  0024c	6a 00		 push	 0
  0024e	6a 04		 push	 4
  00250	68 00 00 00 00	 push	 OFFSET ??_C@_00CNPNBAHC@?$AA@
  00255	53		 push	 ebx
  00256	ff d6		 call	 esi
  00258	8b c8		 mov	 ecx, eax
  0025a	ff d7		 call	 edi
  0025c	f3 0f 10 05 00
	00 00 00	 movss	 xmm0, DWORD PTR __real@3f666666
  00264	50		 push	 eax
  00265	51		 push	 ecx
  00266	8d 4d c0	 lea	 ecx, DWORD PTR _kPrinter$[ebp]
  00269	f3 0f 11 04 24	 movss	 DWORD PTR [esp], xmm0
  0026e	e8 00 00 00 00	 call	 ?AddTextPiece@ioComplexStringPrinter@@QAEXMPBD0@Z ; ioComplexStringPrinter::AddTextPiece

; 220  : 	kPrinter.PrintFullText( nXPos + RANK_X_OFFSET, nYPos+RANK_Y_OFFSET, TAT_CENTER );

  00273	8b 45 0c	 mov	 eax, DWORD PTR _nYPos$[ebp]
  00276	68 ff 00 00 00	 push	 255			; 000000ffH
  0027b	6a 01		 push	 1
  0027d	51		 push	 ecx
  0027e	51		 push	 ecx
  0027f	05 a6 00 00 00	 add	 eax, 166		; 000000a6H
  00284	0f 57 c0	 xorps	 xmm0, xmm0
  00287	f3 0f 2a c0	 cvtsi2ss xmm0, eax
  0028b	f3 0f 11 44 24
	04		 movss	 DWORD PTR [esp+4], xmm0
  00291	f3 0f 10 45 08	 movss	 xmm0, DWORD PTR tv382[ebp]
  00296	8d 4d c0	 lea	 ecx, DWORD PTR _kPrinter$[ebp]
  00299	f3 0f 11 04 24	 movss	 DWORD PTR [esp], xmm0
  0029e	e8 00 00 00 00	 call	 ?PrintFullText@ioComplexStringPrinter@@QAEXMMW4TextAlignType@@E@Z ; ioComplexStringPrinter::PrintFullText

; 221  : 	kPrinter.ClearList();

  002a3	8d 4d c0	 lea	 ecx, DWORD PTR _kPrinter$[ebp]
  002a6	e8 00 00 00 00	 call	 ?ClearList@ioComplexStringPrinter@@QAEXXZ ; ioComplexStringPrinter::ClearList

; 222  : 
; 223  : 	//Ç®¾îÁÖ±â ÀÔ·Â
; 224  : 	kPrinter.SetTextColor( TCT_DEFAULT_DARKGRAY );

  002ab	68 3a 3a 3a ff	 push	 -12961222		; ff3a3a3aH
  002b0	8d 4d c0	 lea	 ecx, DWORD PTR _kPrinter$[ebp]
  002b3	e8 00 00 00 00	 call	 ?SetTextColor@ioComplexStringPrinter@@QAEXK@Z ; ioComplexStringPrinter::SetTextColor

; 225  : 	kPrinter.AddTextPiece( FONT_SIZE_13, "[" );

  002b8	68 00 00 00 00	 push	 OFFSET ??_C@_01OHGJGJJP@?$FL?$AA@
  002bd	51		 push	 ecx
  002be	f3 0f 10 05 00
	00 00 00	 movss	 xmm0, DWORD PTR __real@3f266666
  002c6	8d 45 c0	 lea	 eax, DWORD PTR _kPrinter$[ebp]
  002c9	f3 0f 11 04 24	 movss	 DWORD PTR [esp], xmm0
  002ce	50		 push	 eax
  002cf	e8 00 00 00 00	 call	 ?AddTextPiece@ioComplexStringPrinter@@QAAXMPBDZZ ; ioComplexStringPrinter::AddTextPiece
  002d4	83 c4 0c	 add	 esp, 12			; 0000000cH

; 226  : 	kPrinter.SetTextColor( TCT_DEFAULT_RED );

  002d7	68 00 16 b9 ff	 push	 -4647424		; ffb91600H
  002dc	8d 4d c0	 lea	 ecx, DWORD PTR _kPrinter$[ebp]
  002df	e8 00 00 00 00	 call	 ?SetTextColor@ioComplexStringPrinter@@QAEXK@Z ; ioComplexStringPrinter::SetTextColor

; 227  : 	kPrinter.AddTextPiece( FONT_SIZE_13, STR(5) );

  002e4	6a 00		 push	 0
  002e6	6a 05		 push	 5
  002e8	68 00 00 00 00	 push	 OFFSET ??_C@_00CNPNBAHC@?$AA@
  002ed	53		 push	 ebx
  002ee	ff d6		 call	 esi
  002f0	8b c8		 mov	 ecx, eax
  002f2	ff d7		 call	 edi
  002f4	f3 0f 10 05 00
	00 00 00	 movss	 xmm0, DWORD PTR __real@3f266666
  002fc	50		 push	 eax
  002fd	51		 push	 ecx
  002fe	8d 45 c0	 lea	 eax, DWORD PTR _kPrinter$[ebp]
  00301	f3 0f 11 04 24	 movss	 DWORD PTR [esp], xmm0
  00306	50		 push	 eax
  00307	e8 00 00 00 00	 call	 ?AddTextPiece@ioComplexStringPrinter@@QAAXMPBDZZ ; ioComplexStringPrinter::AddTextPiece
  0030c	83 c4 0c	 add	 esp, 12			; 0000000cH

; 228  : 	kPrinter.SetTextColor( TCT_DEFAULT_DARKGRAY );

  0030f	68 3a 3a 3a ff	 push	 -12961222		; ff3a3a3aH
  00314	8d 4d c0	 lea	 ecx, DWORD PTR _kPrinter$[ebp]
  00317	e8 00 00 00 00	 call	 ?SetTextColor@ioComplexStringPrinter@@QAEXK@Z ; ioComplexStringPrinter::SetTextColor

; 229  : 	kPrinter.AddTextPiece( FONT_SIZE_13, STR(6) );

  0031c	6a 00		 push	 0
  0031e	6a 06		 push	 6
  00320	68 00 00 00 00	 push	 OFFSET ??_C@_00CNPNBAHC@?$AA@
  00325	53		 push	 ebx
  00326	ff d6		 call	 esi
  00328	8b c8		 mov	 ecx, eax
  0032a	ff d7		 call	 edi
  0032c	f3 0f 10 05 00
	00 00 00	 movss	 xmm0, DWORD PTR __real@3f266666
  00334	50		 push	 eax
  00335	51		 push	 ecx
  00336	8d 45 c0	 lea	 eax, DWORD PTR _kPrinter$[ebp]
  00339	f3 0f 11 04 24	 movss	 DWORD PTR [esp], xmm0
  0033e	50		 push	 eax
  0033f	e8 00 00 00 00	 call	 ?AddTextPiece@ioComplexStringPrinter@@QAAXMPBDZZ ; ioComplexStringPrinter::AddTextPiece

; 230  : 	kPrinter.PrintFullText( nXPos + TEXT_X_OFFSET1, nYPos+TEXT_Y_OFFSET1, TAT_CENTER );

  00344	8b 45 0c	 mov	 eax, DWORD PTR _nYPos$[ebp]
  00347	83 c4 0c	 add	 esp, 12			; 0000000cH
  0034a	68 ff 00 00 00	 push	 255			; 000000ffH
  0034f	6a 01		 push	 1
  00351	51		 push	 ecx
  00352	51		 push	 ecx
  00353	05 ff 00 00 00	 add	 eax, 255		; 000000ffH
  00358	0f 57 c0	 xorps	 xmm0, xmm0
  0035b	f3 0f 2a c0	 cvtsi2ss xmm0, eax
  0035f	f3 0f 11 44 24
	04		 movss	 DWORD PTR [esp+4], xmm0
  00365	f3 0f 10 45 08	 movss	 xmm0, DWORD PTR tv382[ebp]
  0036a	8d 4d c0	 lea	 ecx, DWORD PTR _kPrinter$[ebp]
  0036d	f3 0f 11 04 24	 movss	 DWORD PTR [esp], xmm0
  00372	e8 00 00 00 00	 call	 ?PrintFullText@ioComplexStringPrinter@@QAEXMMW4TextAlignType@@E@Z ; ioComplexStringPrinter::PrintFullText

; 231  : 	kPrinter.ClearList();

  00377	8d 4d c0	 lea	 ecx, DWORD PTR _kPrinter$[ebp]
  0037a	e8 00 00 00 00	 call	 ?ClearList@ioComplexStringPrinter@@QAEXXZ ; ioComplexStringPrinter::ClearList

; 232  : 
; 233  : 	if( m_pSellEdit != ioEdit::m_pKeyFocusEdit )

  0037f	8b 45 f0	 mov	 eax, DWORD PTR _this$[ebp]
  00382	8b 80 8c 01 00
	00		 mov	 eax, DWORD PTR [eax+396]
  00388	8b 0d 00 00 00
	00		 mov	 ecx, DWORD PTR __imp_?m_pKeyFocusEdit@ioEdit@@2PAV1@A
  0038e	3b 01		 cmp	 eax, DWORD PTR [ecx]
  00390	0f 84 87 00 00
	00		 je	 $LN1@RenderDesc

; 234  : 	{
; 235  : 		kPrinter.SetBkColor( 0, 0, 0 );

  00396	33 c0		 xor	 eax, eax
  00398	50		 push	 eax
  00399	50		 push	 eax
  0039a	50		 push	 eax
  0039b	8d 4d c0	 lea	 ecx, DWORD PTR _kPrinter$[ebp]
  0039e	e8 00 00 00 00	 call	 ?SetBkColor@ioComplexStringPrinter@@QAEXHHH@Z ; ioComplexStringPrinter::SetBkColor

; 236  : 		kPrinter.SetTextStyle( TS_NORMAL );

  003a3	6a 00		 push	 0
  003a5	8d 4d c0	 lea	 ecx, DWORD PTR _kPrinter$[ebp]
  003a8	e8 00 00 00 00	 call	 ?SetTextStyle@ioComplexStringPrinter@@QAEXW4TextStyle@@@Z ; ioComplexStringPrinter::SetTextStyle

; 237  : 		kPrinter.SetTextColor( TCT_DEFAULT_LIGHTGRAY );

  003ad	68 a7 a7 a7 ff	 push	 -5789785		; ffa7a7a7H
  003b2	8d 4d c0	 lea	 ecx, DWORD PTR _kPrinter$[ebp]
  003b5	e8 00 00 00 00	 call	 ?SetTextColor@ioComplexStringPrinter@@QAEXK@Z ; ioComplexStringPrinter::SetTextColor

; 238  : 		kPrinter.AddTextPiece( FONT_SIZE_12, STR(7) );

  003ba	6a 00		 push	 0
  003bc	6a 07		 push	 7
  003be	68 00 00 00 00	 push	 OFFSET ??_C@_00CNPNBAHC@?$AA@
  003c3	53		 push	 ebx
  003c4	ff d6		 call	 esi
  003c6	8b c8		 mov	 ecx, eax
  003c8	ff d7		 call	 edi
  003ca	f3 0f 10 05 00
	00 00 00	 movss	 xmm0, DWORD PTR __real@3f19999a
  003d2	50		 push	 eax
  003d3	51		 push	 ecx
  003d4	8d 45 c0	 lea	 eax, DWORD PTR _kPrinter$[ebp]
  003d7	f3 0f 11 04 24	 movss	 DWORD PTR [esp], xmm0
  003dc	50		 push	 eax
  003dd	e8 00 00 00 00	 call	 ?AddTextPiece@ioComplexStringPrinter@@QAAXMPBDZZ ; ioComplexStringPrinter::AddTextPiece

; 239  : 		kPrinter.PrintFullText( nXPos + TEXT_X_OFFSET1, nYPos+TEXT_Y_OFFSET2, TAT_CENTER );

  003e2	8b 45 0c	 mov	 eax, DWORD PTR _nYPos$[ebp]
  003e5	83 c4 0c	 add	 esp, 12			; 0000000cH
  003e8	68 ff 00 00 00	 push	 255			; 000000ffH
  003ed	6a 01		 push	 1
  003ef	51		 push	 ecx
  003f0	51		 push	 ecx
  003f1	05 1d 01 00 00	 add	 eax, 285		; 0000011dH
  003f6	0f 57 c0	 xorps	 xmm0, xmm0
  003f9	f3 0f 2a c0	 cvtsi2ss xmm0, eax
  003fd	f3 0f 11 44 24
	04		 movss	 DWORD PTR [esp+4], xmm0
  00403	f3 0f 10 45 08	 movss	 xmm0, DWORD PTR tv382[ebp]
  00408	8d 4d c0	 lea	 ecx, DWORD PTR _kPrinter$[ebp]
  0040b	f3 0f 11 04 24	 movss	 DWORD PTR [esp], xmm0
  00410	e8 00 00 00 00	 call	 ?PrintFullText@ioComplexStringPrinter@@QAEXMMW4TextAlignType@@E@Z ; ioComplexStringPrinter::PrintFullText

; 240  : 		kPrinter.ClearList();

  00415	8d 4d c0	 lea	 ecx, DWORD PTR _kPrinter$[ebp]
  00418	e8 00 00 00 00	 call	 ?ClearList@ioComplexStringPrinter@@QAEXXZ ; ioComplexStringPrinter::ClearList
$LN1@RenderDesc:

; 241  : 	}
; 242  : }

  0041d	8d 4d c0	 lea	 ecx, DWORD PTR _kPrinter$[ebp]
  00420	c6 45 fc 00	 mov	 BYTE PTR __$EHRec$[ebp+8], 0
  00424	e8 00 00 00 00	 call	 ??1ioComplexStringPrinter@@QAE@XZ ; ioComplexStringPrinter::~ioComplexStringPrinter
$LN5@RenderDesc:

; 188  : 		return;

  00429	83 4d fc ff	 or	 DWORD PTR __$EHRec$[ebp+8], -1
  0042d	8d 4d e0	 lea	 ecx, DWORD PTR _szRank$[ebp]
  00430	ff 15 00 00 00
	00		 call	 DWORD PTR __imp_??1ioHashString@@QAE@XZ

; 241  : 	}
; 242  : }

  00436	e8 00 00 00 00	 call	 __EH_epilog3
  0043b	c2 08 00	 ret	 8
_TEXT	ENDS
;	COMDAT text$x
text$x	SEGMENT
__unwindfunclet$?RenderDesc@PetResellWnd@@IAEXHH@Z$0:
  00000	8d 4d e0	 lea	 ecx, DWORD PTR _szRank$[ebp]
  00003	ff 25 00 00 00
	00		 jmp	 DWORD PTR __imp_??1ioHashString@@QAE@XZ
__unwindfunclet$?RenderDesc@PetResellWnd@@IAEXHH@Z$1:
  00009	8d 4d c0	 lea	 ecx, DWORD PTR _kPrinter$[ebp]
  0000c	e9 00 00 00 00	 jmp	 ??1ioComplexStringPrinter@@QAE@XZ ; ioComplexStringPrinter::~ioComplexStringPrinter
__ehhandler$?RenderDesc@PetResellWnd@@IAEXHH@Z:
  00011	8b 54 24 08	 mov	 edx, DWORD PTR [esp+8]
  00015	8d 42 0c	 lea	 eax, DWORD PTR [edx+12]
  00018	8b 4a bc	 mov	 ecx, DWORD PTR [edx-68]
  0001b	33 c8		 xor	 ecx, eax
  0001d	e8 00 00 00 00	 call	 @__security_check_cookie@4
  00022	b8 00 00 00 00	 mov	 eax, OFFSET __ehfuncinfo$?RenderDesc@PetResellWnd@@IAEXHH@Z
  00027	e9 00 00 00 00	 jmp	 ___CxxFrameHandler3
text$x	ENDS
?RenderDesc@PetResellWnd@@IAEXHH@Z ENDP			; PetResellWnd::RenderDesc
PUBLIC	??_C@_0BL@PPOIBHKP@PetResellWnd?3?3RenderManual?$AA@ ; `string'
PUBLIC	?RenderManual@PetResellWnd@@IAEXHH@Z		; PetResellWnd::RenderManual
EXTRN	?ConvertNumToStrComma@Help@@YAXHPADH@Z:PROC	; Help::ConvertNumToStrComma
EXTRN	?GetResellPeso@ioPetInfoManager@@QAEHXZ:PROC	; ioPetInfoManager::GetResellPeso
EXTRN	__EH_epilog3_GS:PROC
EXTRN	__EH_prolog3_GS:PROC
EXTRN	_memset:PROC
;	COMDAT ??_C@_0BL@PPOIBHKP@PetResellWnd?3?3RenderManual?$AA@
CONST	SEGMENT
??_C@_0BL@PPOIBHKP@PetResellWnd?3?3RenderManual?$AA@ DB 'PetResellWnd::Re'
	DB	'nderManual', 00H				; `string'
CONST	ENDS
;	COMDAT xdata$x
xdata$x	SEGMENT
__unwindtable$?RenderManual@PetResellWnd@@IAEXHH@Z DD 0ffffffffH
	DD	FLAT:__unwindfunclet$?RenderManual@PetResellWnd@@IAEXHH@Z$0
__ehfuncinfo$?RenderManual@PetResellWnd@@IAEXHH@Z DD 019930522H
	DD	01H
	DD	FLAT:__unwindtable$?RenderManual@PetResellWnd@@IAEXHH@Z
	DD	2 DUP(00H)
	DD	2 DUP(00H)
	DD	00H
	DD	01H
; Function compile flags: /Ogsp
xdata$x	ENDS
;	COMDAT ?RenderManual@PetResellWnd@@IAEXHH@Z
_TEXT	SEGMENT
_kPrinter$ = -312					; size = 32
tv227 = -280						; size = 4
_szConvertNum$ = -276					; size = 260
__$EHRec$ = -12						; size = 12
_nXPos$ = 8						; size = 4
_nYPos$ = 12						; size = 4
?RenderManual@PetResellWnd@@IAEXHH@Z PROC		; PetResellWnd::RenderManual, COMDAT
; _this$ = ecx

; 245  : {

  00000	68 2c 01 00 00	 push	 300			; 0000012cH
  00005	b8 00 00 00 00	 mov	 eax, __ehhandler$?RenderManual@PetResellWnd@@IAEXHH@Z
  0000a	e8 00 00 00 00	 call	 __EH_prolog3_GS

; 246  : 	enum
; 247  : 	{
; 248  : 		TEXT_X_OFFSET = 125,
; 249  : 		TEXT_Y_OFFSET1 = 197,
; 250  : 		TEXT_Y_OFFSET2 = 216,
; 251  : 		TEXT_Y_OFFSET3 = 235,
; 252  : 	};
; 253  : 
; 254  : 	int nResellPeso = g_PetInfoMgr.GetResellPeso();

  0000f	e8 00 00 00 00	 call	 ?GetSingleton@ioPetInfoManager@@SAAAV1@XZ ; ioPetInfoManager::GetSingleton
  00014	8b c8		 mov	 ecx, eax
  00016	e8 00 00 00 00	 call	 ?GetResellPeso@ioPetInfoManager@@QAEHXZ ; ioPetInfoManager::GetResellPeso

; 255  : 	char szConvertNum[MAX_PATH] = "";

  0001b	68 03 01 00 00	 push	 259			; 00000103H
  00020	8b f8		 mov	 edi, eax
  00022	33 f6		 xor	 esi, esi
  00024	8d 85 ed fe ff
	ff		 lea	 eax, DWORD PTR _szConvertNum$[ebp+1]
  0002a	56		 push	 esi
  0002b	50		 push	 eax
  0002c	c6 85 ec fe ff
	ff 00		 mov	 BYTE PTR _szConvertNum$[ebp], 0
  00033	e8 00 00 00 00	 call	 _memset

; 256  : 	Help::ConvertNumToStrComma( nResellPeso, szConvertNum, sizeof( szConvertNum ) );

  00038	68 04 01 00 00	 push	 260			; 00000104H
  0003d	8d 85 ec fe ff
	ff		 lea	 eax, DWORD PTR _szConvertNum$[ebp]
  00043	50		 push	 eax
  00044	57		 push	 edi
  00045	e8 00 00 00 00	 call	 ?ConvertNumToStrComma@Help@@YAXHPADH@Z ; Help::ConvertNumToStrComma
  0004a	83 c4 18	 add	 esp, 24			; 00000018H

; 257  : 
; 258  : 	ioComplexStringPrinter kPrinter;

  0004d	8d 8d c8 fe ff
	ff		 lea	 ecx, DWORD PTR _kPrinter$[ebp]
  00053	e8 00 00 00 00	 call	 ??0ioComplexStringPrinter@@QAE@XZ ; ioComplexStringPrinter::ioComplexStringPrinter

; 259  : 	kPrinter.SetBkColor( 0, 0, 0 );

  00058	56		 push	 esi
  00059	56		 push	 esi
  0005a	56		 push	 esi
  0005b	8d 8d c8 fe ff
	ff		 lea	 ecx, DWORD PTR _kPrinter$[ebp]
  00061	89 75 fc	 mov	 DWORD PTR __$EHRec$[ebp+8], esi
  00064	e8 00 00 00 00	 call	 ?SetBkColor@ioComplexStringPrinter@@QAEXHHH@Z ; ioComplexStringPrinter::SetBkColor

; 260  : 	kPrinter.SetTextStyle( TS_NORMAL );

  00069	56		 push	 esi
  0006a	8d 8d c8 fe ff
	ff		 lea	 ecx, DWORD PTR _kPrinter$[ebp]
  00070	e8 00 00 00 00	 call	 ?SetTextStyle@ioComplexStringPrinter@@QAEXW4TextStyle@@@Z ; ioComplexStringPrinter::SetTextStyle

; 261  : 
; 262  : 	kPrinter.SetTextColor( TCT_DEFAULT_GRAY );

  00075	68 6e 6e 6e ff	 push	 -9539986		; ff6e6e6eH
  0007a	8d 8d c8 fe ff
	ff		 lea	 ecx, DWORD PTR _kPrinter$[ebp]
  00080	e8 00 00 00 00	 call	 ?SetTextColor@ioComplexStringPrinter@@QAEXK@Z ; ioComplexStringPrinter::SetTextColor

; 263  : 	kPrinter.AddTextPiece( FONT_SIZE_13, STR(1) );

  00085	56		 push	 esi
  00086	8b 35 00 00 00
	00		 mov	 esi, DWORD PTR __imp_?GetSingleton@ioStringManager@@SAAAV1@XZ
  0008c	6a 01		 push	 1
  0008e	68 00 00 00 00	 push	 OFFSET ??_C@_00CNPNBAHC@?$AA@
  00093	bb 00 00 00 00	 mov	 ebx, OFFSET ??_C@_0BL@PPOIBHKP@PetResellWnd?3?3RenderManual?$AA@
  00098	53		 push	 ebx
  00099	ff d6		 call	 esi
  0009b	8b 3d 00 00 00
	00		 mov	 edi, DWORD PTR __imp_?GetString@ioStringManager@@QAEPADPBD0HW4FileNamePrefix@1@@Z
  000a1	8b c8		 mov	 ecx, eax
  000a3	ff d7		 call	 edi
  000a5	f3 0f 10 05 00
	00 00 00	 movss	 xmm0, DWORD PTR __real@3f266666
  000ad	50		 push	 eax
  000ae	51		 push	 ecx
  000af	8d 85 c8 fe ff
	ff		 lea	 eax, DWORD PTR _kPrinter$[ebp]
  000b5	f3 0f 11 04 24	 movss	 DWORD PTR [esp], xmm0
  000ba	50		 push	 eax
  000bb	e8 00 00 00 00	 call	 ?AddTextPiece@ioComplexStringPrinter@@QAAXMPBDZZ ; ioComplexStringPrinter::AddTextPiece

; 264  : 	kPrinter.PrintFullText( nXPos+TEXT_X_OFFSET, nYPos+TEXT_Y_OFFSET1, TAT_CENTER );

  000c0	8b 45 08	 mov	 eax, DWORD PTR _nXPos$[ebp]
  000c3	83 c4 0c	 add	 esp, 12			; 0000000cH
  000c6	83 c0 7d	 add	 eax, 125		; 0000007dH
  000c9	68 ff 00 00 00	 push	 255			; 000000ffH
  000ce	0f 57 c0	 xorps	 xmm0, xmm0
  000d1	f3 0f 2a c0	 cvtsi2ss xmm0, eax
  000d5	8b 45 0c	 mov	 eax, DWORD PTR _nYPos$[ebp]
  000d8	6a 01		 push	 1
  000da	51		 push	 ecx
  000db	51		 push	 ecx
  000dc	05 c5 00 00 00	 add	 eax, 197		; 000000c5H
  000e1	0f 57 c9	 xorps	 xmm1, xmm1
  000e4	f3 0f 2a c8	 cvtsi2ss xmm1, eax
  000e8	f3 0f 11 4c 24
	04		 movss	 DWORD PTR [esp+4], xmm1
  000ee	8d 8d c8 fe ff
	ff		 lea	 ecx, DWORD PTR _kPrinter$[ebp]
  000f4	f3 0f 11 85 e8
	fe ff ff	 movss	 DWORD PTR tv227[ebp], xmm0
  000fc	f3 0f 11 04 24	 movss	 DWORD PTR [esp], xmm0
  00101	e8 00 00 00 00	 call	 ?PrintFullText@ioComplexStringPrinter@@QAEXMMW4TextAlignType@@E@Z ; ioComplexStringPrinter::PrintFullText

; 265  : 	kPrinter.ClearList();

  00106	8d 8d c8 fe ff
	ff		 lea	 ecx, DWORD PTR _kPrinter$[ebp]
  0010c	e8 00 00 00 00	 call	 ?ClearList@ioComplexStringPrinter@@QAEXXZ ; ioComplexStringPrinter::ClearList

; 266  : 
; 267  : 	kPrinter.SetTextColor( TCT_DEFAULT_GRAY );

  00111	68 6e 6e 6e ff	 push	 -9539986		; ff6e6e6eH
  00116	8d 8d c8 fe ff
	ff		 lea	 ecx, DWORD PTR _kPrinter$[ebp]
  0011c	e8 00 00 00 00	 call	 ?SetTextColor@ioComplexStringPrinter@@QAEXK@Z ; ioComplexStringPrinter::SetTextColor

; 268  : 	kPrinter.AddTextPiece( FONT_SIZE_13, STR(2) );

  00121	6a 00		 push	 0
  00123	6a 02		 push	 2
  00125	68 00 00 00 00	 push	 OFFSET ??_C@_00CNPNBAHC@?$AA@
  0012a	53		 push	 ebx
  0012b	ff d6		 call	 esi
  0012d	8b c8		 mov	 ecx, eax
  0012f	ff d7		 call	 edi
  00131	50		 push	 eax
  00132	51		 push	 ecx
  00133	f3 0f 10 05 00
	00 00 00	 movss	 xmm0, DWORD PTR __real@3f266666
  0013b	8d 85 c8 fe ff
	ff		 lea	 eax, DWORD PTR _kPrinter$[ebp]
  00141	f3 0f 11 04 24	 movss	 DWORD PTR [esp], xmm0
  00146	50		 push	 eax
  00147	e8 00 00 00 00	 call	 ?AddTextPiece@ioComplexStringPrinter@@QAAXMPBDZZ ; ioComplexStringPrinter::AddTextPiece
  0014c	83 c4 0c	 add	 esp, 12			; 0000000cH

; 269  : 	kPrinter.SetTextColor( TCT_DEFAULT_BLUE );

  0014f	68 b2 46 16 ff	 push	 -15317326		; ff1646b2H
  00154	8d 8d c8 fe ff
	ff		 lea	 ecx, DWORD PTR _kPrinter$[ebp]
  0015a	e8 00 00 00 00	 call	 ?SetTextColor@ioComplexStringPrinter@@QAEXK@Z ; ioComplexStringPrinter::SetTextColor

; 270  : 	kPrinter.AddTextPiece( FONT_SIZE_13, STR(3), szConvertNum );

  0015f	8d 85 ec fe ff
	ff		 lea	 eax, DWORD PTR _szConvertNum$[ebp]
  00165	50		 push	 eax
  00166	6a 00		 push	 0
  00168	6a 03		 push	 3
  0016a	68 00 00 00 00	 push	 OFFSET ??_C@_00CNPNBAHC@?$AA@
  0016f	53		 push	 ebx
  00170	ff d6		 call	 esi
  00172	8b c8		 mov	 ecx, eax
  00174	ff d7		 call	 edi
  00176	f3 0f 10 05 00
	00 00 00	 movss	 xmm0, DWORD PTR __real@3f266666
  0017e	50		 push	 eax
  0017f	51		 push	 ecx
  00180	8d 8d c8 fe ff
	ff		 lea	 ecx, DWORD PTR _kPrinter$[ebp]
  00186	f3 0f 11 04 24	 movss	 DWORD PTR [esp], xmm0
  0018b	e8 00 00 00 00	 call	 ?AddTextPiece@ioComplexStringPrinter@@QAEXMPBD0@Z ; ioComplexStringPrinter::AddTextPiece

; 271  : 	kPrinter.PrintFullText( nXPos+TEXT_X_OFFSET, nYPos+TEXT_Y_OFFSET2, TAT_CENTER );

  00190	8b 45 0c	 mov	 eax, DWORD PTR _nYPos$[ebp]
  00193	68 ff 00 00 00	 push	 255			; 000000ffH
  00198	6a 01		 push	 1
  0019a	51		 push	 ecx
  0019b	51		 push	 ecx
  0019c	05 d8 00 00 00	 add	 eax, 216		; 000000d8H
  001a1	0f 57 c0	 xorps	 xmm0, xmm0
  001a4	f3 0f 2a c0	 cvtsi2ss xmm0, eax
  001a8	f3 0f 11 44 24
	04		 movss	 DWORD PTR [esp+4], xmm0
  001ae	f3 0f 10 85 e8
	fe ff ff	 movss	 xmm0, DWORD PTR tv227[ebp]
  001b6	8d 8d c8 fe ff
	ff		 lea	 ecx, DWORD PTR _kPrinter$[ebp]
  001bc	f3 0f 11 04 24	 movss	 DWORD PTR [esp], xmm0
  001c1	e8 00 00 00 00	 call	 ?PrintFullText@ioComplexStringPrinter@@QAEXMMW4TextAlignType@@E@Z ; ioComplexStringPrinter::PrintFullText

; 272  : 	kPrinter.ClearList();

  001c6	8d 8d c8 fe ff
	ff		 lea	 ecx, DWORD PTR _kPrinter$[ebp]
  001cc	e8 00 00 00 00	 call	 ?ClearList@ioComplexStringPrinter@@QAEXXZ ; ioComplexStringPrinter::ClearList

; 273  : 
; 274  : 	kPrinter.SetTextColor( TCT_DEFAULT_GRAY );

  001d1	68 6e 6e 6e ff	 push	 -9539986		; ff6e6e6eH
  001d6	8d 8d c8 fe ff
	ff		 lea	 ecx, DWORD PTR _kPrinter$[ebp]
  001dc	e8 00 00 00 00	 call	 ?SetTextColor@ioComplexStringPrinter@@QAEXK@Z ; ioComplexStringPrinter::SetTextColor

; 275  : 	kPrinter.AddTextPiece( FONT_SIZE_13, STR(4) );

  001e1	6a 00		 push	 0
  001e3	6a 04		 push	 4
  001e5	68 00 00 00 00	 push	 OFFSET ??_C@_00CNPNBAHC@?$AA@
  001ea	53		 push	 ebx
  001eb	ff d6		 call	 esi
  001ed	8b c8		 mov	 ecx, eax
  001ef	ff d7		 call	 edi
  001f1	f3 0f 10 05 00
	00 00 00	 movss	 xmm0, DWORD PTR __real@3f266666
  001f9	50		 push	 eax
  001fa	51		 push	 ecx
  001fb	8d 85 c8 fe ff
	ff		 lea	 eax, DWORD PTR _kPrinter$[ebp]
  00201	f3 0f 11 04 24	 movss	 DWORD PTR [esp], xmm0
  00206	50		 push	 eax
  00207	e8 00 00 00 00	 call	 ?AddTextPiece@ioComplexStringPrinter@@QAAXMPBDZZ ; ioComplexStringPrinter::AddTextPiece

; 276  : 	kPrinter.PrintFullText( nXPos+TEXT_X_OFFSET, nYPos+TEXT_Y_OFFSET3, TAT_CENTER );

  0020c	8b 45 0c	 mov	 eax, DWORD PTR _nYPos$[ebp]
  0020f	83 c4 0c	 add	 esp, 12			; 0000000cH
  00212	68 ff 00 00 00	 push	 255			; 000000ffH
  00217	6a 01		 push	 1
  00219	51		 push	 ecx
  0021a	51		 push	 ecx
  0021b	05 eb 00 00 00	 add	 eax, 235		; 000000ebH
  00220	0f 57 c0	 xorps	 xmm0, xmm0
  00223	f3 0f 2a c0	 cvtsi2ss xmm0, eax
  00227	f3 0f 11 44 24
	04		 movss	 DWORD PTR [esp+4], xmm0
  0022d	f3 0f 10 85 e8
	fe ff ff	 movss	 xmm0, DWORD PTR tv227[ebp]
  00235	8d 8d c8 fe ff
	ff		 lea	 ecx, DWORD PTR _kPrinter$[ebp]
  0023b	f3 0f 11 04 24	 movss	 DWORD PTR [esp], xmm0
  00240	e8 00 00 00 00	 call	 ?PrintFullText@ioComplexStringPrinter@@QAEXMMW4TextAlignType@@E@Z ; ioComplexStringPrinter::PrintFullText

; 277  : 	kPrinter.ClearList();

  00245	8d 8d c8 fe ff
	ff		 lea	 ecx, DWORD PTR _kPrinter$[ebp]
  0024b	e8 00 00 00 00	 call	 ?ClearList@ioComplexStringPrinter@@QAEXXZ ; ioComplexStringPrinter::ClearList

; 278  : }

  00250	83 4d fc ff	 or	 DWORD PTR __$EHRec$[ebp+8], -1
  00254	8d 8d c8 fe ff
	ff		 lea	 ecx, DWORD PTR _kPrinter$[ebp]
  0025a	e8 00 00 00 00	 call	 ??1ioComplexStringPrinter@@QAE@XZ ; ioComplexStringPrinter::~ioComplexStringPrinter
  0025f	e8 00 00 00 00	 call	 __EH_epilog3_GS
  00264	c2 08 00	 ret	 8
_TEXT	ENDS
;	COMDAT text$x
text$x	SEGMENT
__unwindfunclet$?RenderManual@PetResellWnd@@IAEXHH@Z$0:
  00000	8d 8d c8 fe ff
	ff		 lea	 ecx, DWORD PTR _kPrinter$[ebp]
  00006	e9 00 00 00 00	 jmp	 ??1ioComplexStringPrinter@@QAE@XZ ; ioComplexStringPrinter::~ioComplexStringPrinter
__ehhandler$?RenderManual@PetResellWnd@@IAEXHH@Z:
  0000b	8b 54 24 08	 mov	 edx, DWORD PTR [esp+8]
  0000f	8d 42 0c	 lea	 eax, DWORD PTR [edx+12]
  00012	8b 8a c4 fe ff
	ff		 mov	 ecx, DWORD PTR [edx-316]
  00018	33 c8		 xor	 ecx, eax
  0001a	e8 00 00 00 00	 call	 @__security_check_cookie@4
  0001f	8b 4a fc	 mov	 ecx, DWORD PTR [edx-4]
  00022	33 c8		 xor	 ecx, eax
  00024	e8 00 00 00 00	 call	 @__security_check_cookie@4
  00029	b8 00 00 00 00	 mov	 eax, OFFSET __ehfuncinfo$?RenderManual@PetResellWnd@@IAEXHH@Z
  0002e	e9 00 00 00 00	 jmp	 ___CxxFrameHandler3
text$x	ENDS
?RenderManual@PetResellWnd@@IAEXHH@Z ENDP		; PetResellWnd::RenderManual
PUBLIC	?SetIcon@PetResellWnd@@QAEXHHHHMM@Z		; PetResellWnd::SetIcon
EXTRN	?SetIcon@PetIconBtn@@QAE_NHHHMM_N@Z:PROC	; PetIconBtn::SetIcon
EXTRN	__imp_??4ioHashString@@QAEAAV0@ABV0@@Z:PROC
EXTRN	?GetPetName@ioPetInfoManager@@QAE?AVioHashString@@HW4PetRankType@@@Z:PROC ; ioPetInfoManager::GetPetName
;	COMDAT xdata$x
xdata$x	SEGMENT
__unwindtable$?SetIcon@PetResellWnd@@QAEXHHHHMM@Z DD 0ffffffffH
	DD	FLAT:__unwindfunclet$?SetIcon@PetResellWnd@@QAEXHHHHMM@Z$0
__ehfuncinfo$?SetIcon@PetResellWnd@@QAEXHHHHMM@Z DD 019930522H
	DD	01H
	DD	FLAT:__unwindtable$?SetIcon@PetResellWnd@@QAEXHHHHMM@Z
	DD	2 DUP(00H)
	DD	2 DUP(00H)
	DD	00H
	DD	01H
; Function compile flags: /Ogsp
xdata$x	ENDS
;	COMDAT ?SetIcon@PetResellWnd@@QAEXHHHHMM@Z
_TEXT	SEGMENT
$T505995 = -28						; size = 16
__$EHRec$ = -12						; size = 12
_nPetCode$ = 8						; size = 4
_nPetLevel$ = 12					; size = 4
_nPetRank$ = 16						; size = 4
_nPetSlotIndex$ = 20					; size = 4
_fScale$ = 24						; size = 4
_fBackScale$ = 28					; size = 4
?SetIcon@PetResellWnd@@QAEXHHHHMM@Z PROC		; PetResellWnd::SetIcon, COMDAT
; _this$ = ecx

; 282  : {	

  00000	6a 10		 push	 16			; 00000010H
  00002	b8 00 00 00 00	 mov	 eax, __ehhandler$?SetIcon@PetResellWnd@@QAEXHHHHMM@Z
  00007	e8 00 00 00 00	 call	 __EH_prolog3
  0000c	8b f1		 mov	 esi, ecx

; 283  : 	if ( nPetCode <= 0 || nPetRank <= 0 )

  0000e	8b 5d 08	 mov	 ebx, DWORD PTR _nPetCode$[ebp]
  00011	85 db		 test	 ebx, ebx
  00013	0f 8e 94 00 00
	00		 jle	 $LN2@SetIcon
  00019	8b 7d 10	 mov	 edi, DWORD PTR _nPetRank$[ebp]
  0001c	85 ff		 test	 edi, edi
  0001e	0f 8e 89 00 00
	00		 jle	 $LN2@SetIcon

; 284  : 		return;
; 285  : 
; 286  : 	m_nPetCode = nPetCode;
; 287  : 	m_nPetLevel = nPetLevel;

  00024	8b 45 0c	 mov	 eax, DWORD PTR _nPetLevel$[ebp]
  00027	89 86 6c 01 00
	00		 mov	 DWORD PTR [esi+364], eax

; 288  : 	m_nPetRank = nPetRank;
; 289  : 	m_nPetSlotIndex = nPetSlotIndex;

  0002d	8b 45 14	 mov	 eax, DWORD PTR _nPetSlotIndex$[ebp]

; 290  : 	m_szPetName = g_PetInfoMgr.GetPetName( m_nPetCode, (PetRankType)m_nPetRank );

  00030	57		 push	 edi
  00031	89 86 74 01 00
	00		 mov	 DWORD PTR [esi+372], eax
  00037	8d 45 e4	 lea	 eax, DWORD PTR $T505995[ebp]
  0003a	53		 push	 ebx
  0003b	50		 push	 eax
  0003c	89 9e 68 01 00
	00		 mov	 DWORD PTR [esi+360], ebx
  00042	89 be 70 01 00
	00		 mov	 DWORD PTR [esi+368], edi
  00048	e8 00 00 00 00	 call	 ?GetSingleton@ioPetInfoManager@@SAAAV1@XZ ; ioPetInfoManager::GetSingleton
  0004d	8b c8		 mov	 ecx, eax
  0004f	e8 00 00 00 00	 call	 ?GetPetName@ioPetInfoManager@@QAE?AVioHashString@@HW4PetRankType@@@Z ; ioPetInfoManager::GetPetName
  00054	83 65 fc 00	 and	 DWORD PTR __$EHRec$[ebp+8], 0
  00058	50		 push	 eax
  00059	8d 8e 78 01 00
	00		 lea	 ecx, DWORD PTR [esi+376]
  0005f	ff 15 00 00 00
	00		 call	 DWORD PTR __imp_??4ioHashString@@QAEAAV0@ABV0@@Z
  00065	83 4d fc ff	 or	 DWORD PTR __$EHRec$[ebp+8], -1
  00069	8d 4d e4	 lea	 ecx, DWORD PTR $T505995[ebp]
  0006c	ff 15 00 00 00
	00		 call	 DWORD PTR __imp_??1ioHashString@@QAE@XZ

; 291  : 
; 292  : 	PetIconBtn *pPetIconBtn = (PetIconBtn*)(FindChildWnd( ID_PET_ICON ) );

  00072	6a 0b		 push	 11			; 0000000bH
  00074	8b ce		 mov	 ecx, esi
  00076	ff 15 00 00 00
	00		 call	 DWORD PTR __imp_?FindChildWnd@ioWnd@@QAEPAV1@K@Z

; 293  : 	if( pPetIconBtn )

  0007c	85 c0		 test	 eax, eax
  0007e	74 25		 je	 SHORT $LN1@SetIcon

; 294  : 		pPetIconBtn->SetIcon( nPetCode, nPetLevel, nPetRank, fScale, fBackScale, false );

  00080	f3 0f 10 45 1c	 movss	 xmm0, DWORD PTR _fBackScale$[ebp]
  00085	6a 00		 push	 0
  00087	51		 push	 ecx
  00088	51		 push	 ecx
  00089	f3 0f 11 44 24
	04		 movss	 DWORD PTR [esp+4], xmm0
  0008f	f3 0f 10 45 18	 movss	 xmm0, DWORD PTR _fScale$[ebp]
  00094	f3 0f 11 04 24	 movss	 DWORD PTR [esp], xmm0
  00099	57		 push	 edi
  0009a	ff 75 0c	 push	 DWORD PTR _nPetLevel$[ebp]
  0009d	8b c8		 mov	 ecx, eax
  0009f	53		 push	 ebx
  000a0	e8 00 00 00 00	 call	 ?SetIcon@PetIconBtn@@QAE_NHHHMM_N@Z ; PetIconBtn::SetIcon
$LN1@SetIcon:

; 295  : 
; 296  : 	ShowWnd();

  000a5	8b ce		 mov	 ecx, esi
  000a7	ff 15 00 00 00
	00		 call	 DWORD PTR __imp_?ShowWnd@ioWnd@@QAEXXZ
$LN2@SetIcon:

; 297  : }

  000ad	e8 00 00 00 00	 call	 __EH_epilog3
  000b2	c2 18 00	 ret	 24			; 00000018H
_TEXT	ENDS
;	COMDAT text$x
text$x	SEGMENT
__unwindfunclet$?SetIcon@PetResellWnd@@QAEXHHHHMM@Z$0:
  00000	8d 4d e4	 lea	 ecx, DWORD PTR $T505995[ebp]
  00003	ff 25 00 00 00
	00		 jmp	 DWORD PTR __imp_??1ioHashString@@QAE@XZ
__ehhandler$?SetIcon@PetResellWnd@@QAEXHHHHMM@Z:
  00009	8b 54 24 08	 mov	 edx, DWORD PTR [esp+8]
  0000d	8d 42 0c	 lea	 eax, DWORD PTR [edx+12]
  00010	8b 4a e0	 mov	 ecx, DWORD PTR [edx-32]
  00013	33 c8		 xor	 ecx, eax
  00015	e8 00 00 00 00	 call	 @__security_check_cookie@4
  0001a	b8 00 00 00 00	 mov	 eax, OFFSET __ehfuncinfo$?SetIcon@PetResellWnd@@QAEXHHHHMM@Z
  0001f	e9 00 00 00 00	 jmp	 ___CxxFrameHandler3
text$x	ENDS
?SetIcon@PetResellWnd@@QAEXHHHHMM@Z ENDP		; PetResellWnd::SetIcon
PUBLIC	?_DECSTR@@YAXPADH@Z				; _DECSTR
; Function compile flags: /Ogsp
; File d:\lost saga for developer\youtube\tutorial\source\src\lsclient\stringprotect.h
;	COMDAT ?_DECSTR@@YAXPADH@Z
_TEXT	SEGMENT
_s$ = 8							; size = 4
_l$ = 12						; size = 4
?_DECSTR@@YAXPADH@Z PROC				; _DECSTR, COMDAT

; 40   : __forceinline void _DECSTR(char* s, int l){int i=0,l4=(l-1)/4,*p=(int*)s;s[l-1]=0;for(;i<l4;++i)*(p++)^=0xEAEBECED;for(i=l4*4;i<l-1;++i)s[i]^=0xED-i%4;}

  00000	55		 push	 ebp
  00001	8b ec		 mov	 ebp, esp
  00003	8b 4d 0c	 mov	 ecx, DWORD PTR _l$[ebp]
  00006	56		 push	 esi
  00007	8b 75 08	 mov	 esi, DWORD PTR _s$[ebp]
  0000a	57		 push	 edi
  0000b	8d 79 ff	 lea	 edi, DWORD PTR [ecx-1]
  0000e	8b c7		 mov	 eax, edi
  00010	99		 cdq
  00011	83 e2 03	 and	 edx, 3
  00014	03 c2		 add	 eax, edx
  00016	c1 f8 02	 sar	 eax, 2
  00019	8b d6		 mov	 edx, esi
  0001b	c6 44 0e ff 00	 mov	 BYTE PTR [esi+ecx-1], 0
  00020	85 c0		 test	 eax, eax
  00022	7e 0e		 jle	 SHORT $LN4@DECSTR
  00024	8b c8		 mov	 ecx, eax
$LL6@DECSTR:
  00026	81 32 ed ec eb
	ea		 xor	 DWORD PTR [edx], -353637139 ; eaebecedH
  0002c	83 c2 04	 add	 edx, 4
  0002f	49		 dec	 ecx
  00030	75 f4		 jne	 SHORT $LL6@DECSTR
$LN4@DECSTR:
  00032	c1 e0 02	 shl	 eax, 2
  00035	eb 17		 jmp	 SHORT $LN14@DECSTR
$LL3@DECSTR:
  00037	8b c8		 mov	 ecx, eax
  00039	81 e1 03 00 00
	80		 and	 ecx, -2147483645	; 80000003H
  0003f	79 05		 jns	 SHORT $LN13@DECSTR
  00041	49		 dec	 ecx
  00042	83 c9 fc	 or	 ecx, -4			; fffffffcH
  00045	41		 inc	 ecx
$LN13@DECSTR:
  00046	b2 ed		 mov	 dl, -19			; ffffffedH
  00048	2a d1		 sub	 dl, cl
  0004a	30 14 30	 xor	 BYTE PTR [eax+esi], dl
  0004d	40		 inc	 eax
$LN14@DECSTR:
  0004e	3b c7		 cmp	 eax, edi
  00050	7c e5		 jl	 SHORT $LL3@DECSTR
  00052	5f		 pop	 edi
  00053	5e		 pop	 esi
  00054	5d		 pop	 ebp
  00055	c3		 ret	 0
?_DECSTR@@YAXPADH@Z ENDP				; _DECSTR
_TEXT	ENDS
EXTRN	??3@YAXPAX@Z:PROC				; operator delete
; Function compile flags: /Ogsp
;	COMDAT ??_GPetResellWnd@@UAEPAXI@Z
_TEXT	SEGMENT
___flags$ = 8						; size = 4
??_GPetResellWnd@@UAEPAXI@Z PROC			; PetResellWnd::`scalar deleting destructor', COMDAT
; _this$ = ecx
  00000	55		 push	 ebp
  00001	8b ec		 mov	 ebp, esp
  00003	56		 push	 esi
  00004	8b f1		 mov	 esi, ecx
  00006	e8 00 00 00 00	 call	 ??1PetResellWnd@@UAE@XZ	; PetResellWnd::~PetResellWnd
  0000b	f6 45 08 01	 test	 BYTE PTR ___flags$[ebp], 1
  0000f	74 07		 je	 SHORT $LN1@scalar
  00011	56		 push	 esi
  00012	e8 00 00 00 00	 call	 ??3@YAXPAX@Z		; operator delete
  00017	59		 pop	 ecx
$LN1@scalar:
  00018	8b c6		 mov	 eax, esi
  0001a	5e		 pop	 esi
  0001b	5d		 pop	 ebp
  0001c	c2 04 00	 ret	 4
??_GPetResellWnd@@UAEPAXI@Z ENDP			; PetResellWnd::`scalar deleting destructor'
_TEXT	ENDS
EXTRN	__imp_?OnRender@ioWnd@@MAEXXZ:PROC
; Function compile flags: /Ogsp
; File d:\lost saga for developer\youtube\tutorial\source\src\lsclient\gui\petresellwnd.cpp
;	COMDAT ?OnRender@PetResellWnd@@MAEXXZ
_TEXT	SEGMENT
?OnRender@PetResellWnd@@MAEXXZ PROC			; PetResellWnd::OnRender, COMDAT
; _this$ = ecx

; 142  : {

  00000	53		 push	 ebx
  00001	56		 push	 esi
  00002	57		 push	 edi
  00003	8b f1		 mov	 esi, ecx

; 143  : 	ioWnd::OnRender();

  00005	ff 15 00 00 00
	00		 call	 DWORD PTR __imp_?OnRender@ioWnd@@MAEXXZ

; 144  : 
; 145  : 	int nXPos = GetDerivedPosX();

  0000b	8b ce		 mov	 ecx, esi
  0000d	ff 15 00 00 00
	00		 call	 DWORD PTR __imp_?GetDerivedPosX@ioWnd@@QBEHXZ

; 146  : 	int nYPos = GetDerivedPosY();

  00013	8b ce		 mov	 ecx, esi
  00015	8b f8		 mov	 edi, eax
  00017	ff 15 00 00 00
	00		 call	 DWORD PTR __imp_?GetDerivedPosY@ioWnd@@QBEHXZ
  0001d	8b d8		 mov	 ebx, eax

; 147  : 
; 148  : 	RenderDesc( nXPos, nYPos );

  0001f	53		 push	 ebx
  00020	57		 push	 edi
  00021	8b ce		 mov	 ecx, esi
  00023	e8 00 00 00 00	 call	 ?RenderDesc@PetResellWnd@@IAEXHH@Z ; PetResellWnd::RenderDesc

; 149  : 	RenderManual( nXPos, nYPos );

  00028	53		 push	 ebx
  00029	57		 push	 edi
  0002a	8b ce		 mov	 ecx, esi
  0002c	e8 00 00 00 00	 call	 ?RenderManual@PetResellWnd@@IAEXHH@Z ; PetResellWnd::RenderManual
  00031	5f		 pop	 edi
  00032	5e		 pop	 esi
  00033	5b		 pop	 ebx

; 150  : }

  00034	c3		 ret	 0
?OnRender@PetResellWnd@@MAEXXZ ENDP			; PetResellWnd::OnRender
_TEXT	ENDS
PUBLIC	__$ArrayPad$
PUBLIC	??$?8$09@@YA_NABVioHashString@@AAY09$$CBD@Z	; operator==<10>
; Function compile flags: /Ogsp
; File d:\lost saga for developer\youtube\tutorial\source\src\io3dengine\iohashstring.h
;	COMDAT ??$?8$09@@YA_NABVioHashString@@AAY09$$CBD@Z
_TEXT	SEGMENT
__t$ = -20						; size = 10
__$ArrayPad$ = -4					; size = 4
_lhs$ = 8						; size = 4
_t$ = 12						; size = 4
??$?8$09@@YA_NABVioHashString@@AAY09$$CBD@Z PROC	; operator==<10>, COMDAT

; 146  : {

  00000	55		 push	 ebp
  00001	8b ec		 mov	 ebp, esp
  00003	83 ec 14	 sub	 esp, 20			; 00000014H
  00006	a1 00 00 00 00	 mov	 eax, DWORD PTR ___security_cookie
  0000b	33 c5		 xor	 eax, ebp
  0000d	89 45 fc	 mov	 DWORD PTR __$ArrayPad$[ebp], eax
  00010	8b 45 0c	 mov	 eax, DWORD PTR _t$[ebp]

; 147  : 	_ENCSTR(t, _t); return ( strcmp( lhs.c_str(), _t ) == 0 );

  00013	8a 10		 mov	 dl, BYTE PTR [eax]
  00015	8b 4d 08	 mov	 ecx, DWORD PTR _lhs$[ebp]
  00018	84 d2		 test	 dl, dl
  0001a	0f 84 0d 01 00
	00		 je	 $LN96@operator
  00020	80 f2 ed	 xor	 dl, -19			; ffffffedH
  00023	88 55 ec	 mov	 BYTE PTR __t$[ebp], dl
  00026	8a 50 01	 mov	 dl, BYTE PTR [eax+1]
  00029	84 d2		 test	 dl, dl
  0002b	0f 84 f6 00 00
	00		 je	 $LN95@operator
  00031	80 f2 ec	 xor	 dl, -20			; ffffffecH
  00034	88 55 ed	 mov	 BYTE PTR __t$[ebp+1], dl
  00037	8a 50 02	 mov	 dl, BYTE PTR [eax+2]
  0003a	84 d2		 test	 dl, dl
  0003c	0f 84 df 00 00
	00		 je	 $LN94@operator
  00042	80 f2 eb	 xor	 dl, -21			; ffffffebH
  00045	88 55 ee	 mov	 BYTE PTR __t$[ebp+2], dl
  00048	8a 50 03	 mov	 dl, BYTE PTR [eax+3]
  0004b	84 d2		 test	 dl, dl
  0004d	0f 84 c8 00 00
	00		 je	 $LN93@operator
  00053	80 f2 ea	 xor	 dl, -22			; ffffffeaH
  00056	88 55 ef	 mov	 BYTE PTR __t$[ebp+3], dl
  00059	8a 50 04	 mov	 dl, BYTE PTR [eax+4]
  0005c	84 d2		 test	 dl, dl
  0005e	0f 84 b1 00 00
	00		 je	 $LN92@operator
  00064	80 f2 ed	 xor	 dl, -19			; ffffffedH
  00067	88 55 f0	 mov	 BYTE PTR __t$[ebp+4], dl
  0006a	8a 50 05	 mov	 dl, BYTE PTR [eax+5]
  0006d	84 d2		 test	 dl, dl
  0006f	0f 84 9a 00 00
	00		 je	 $LN91@operator
  00075	80 f2 ec	 xor	 dl, -20			; ffffffecH
  00078	88 55 f1	 mov	 BYTE PTR __t$[ebp+5], dl
  0007b	8a 50 06	 mov	 dl, BYTE PTR [eax+6]
  0007e	84 d2		 test	 dl, dl
  00080	0f 84 83 00 00
	00		 je	 $LN90@operator
  00086	80 f2 eb	 xor	 dl, -21			; ffffffebH
  00089	88 55 f2	 mov	 BYTE PTR __t$[ebp+6], dl
  0008c	8a 50 07	 mov	 dl, BYTE PTR [eax+7]
  0008f	84 d2		 test	 dl, dl
  00091	74 70		 je	 SHORT $LN89@operator
  00093	80 f2 ea	 xor	 dl, -22			; ffffffeaH
  00096	88 55 f3	 mov	 BYTE PTR __t$[ebp+7], dl
  00099	8a 50 08	 mov	 dl, BYTE PTR [eax+8]
  0009c	84 d2		 test	 dl, dl
  0009e	74 5d		 je	 SHORT $LN88@operator
  000a0	80 f2 ed	 xor	 dl, -19			; ffffffedH
  000a3	80 78 09 00	 cmp	 BYTE PTR [eax+9], 0
  000a7	88 55 f4	 mov	 BYTE PTR __t$[ebp+8], dl
  000aa	0f 84 81 00 00
	00		 je	 $LN1@operator
  000b0	8a 50 0a	 mov	 dl, BYTE PTR [eax+10]
  000b3	84 d2		 test	 dl, dl
  000b5	74 40		 je	 SHORT $LN86@operator
  000b7	80 f2 eb	 xor	 dl, -21			; ffffffebH
  000ba	88 55 f6	 mov	 BYTE PTR __t$[ebp+10], dl
  000bd	8a 50 0b	 mov	 dl, BYTE PTR [eax+11]
  000c0	84 d2		 test	 dl, dl
  000c2	74 2d		 je	 SHORT $LN85@operator
  000c4	80 f2 ea	 xor	 dl, -22			; ffffffeaH
  000c7	88 55 f7	 mov	 BYTE PTR __t$[ebp+11], dl
  000ca	8a 50 0c	 mov	 dl, BYTE PTR [eax+12]
  000cd	84 d2		 test	 dl, dl
  000cf	74 1a		 je	 SHORT $LN84@operator
  000d1	8a 40 0d	 mov	 al, BYTE PTR [eax+13]
  000d4	80 f2 ed	 xor	 dl, -19			; ffffffedH
  000d7	88 55 f8	 mov	 BYTE PTR __t$[ebp+12], dl
  000da	84 c0		 test	 al, al
  000dc	74 07		 je	 SHORT $LN83@operator
  000de	34 ec		 xor	 al, -20			; ffffffecH
  000e0	88 45 f9	 mov	 BYTE PTR __t$[ebp+13], al
  000e3	eb 4c		 jmp	 SHORT $LN1@operator
$LN83@operator:
  000e5	c6 45 f9 ec	 mov	 BYTE PTR __t$[ebp+13], -20 ; ffffffecH
  000e9	eb 46		 jmp	 SHORT $LN1@operator
$LN84@operator:
  000eb	c6 45 f8 ed	 mov	 BYTE PTR __t$[ebp+12], -19 ; ffffffedH
  000ef	eb 40		 jmp	 SHORT $LN1@operator
$LN85@operator:
  000f1	c6 45 f7 ea	 mov	 BYTE PTR __t$[ebp+11], -22 ; ffffffeaH
  000f5	eb 3a		 jmp	 SHORT $LN1@operator
$LN86@operator:
  000f7	c6 45 f6 eb	 mov	 BYTE PTR __t$[ebp+10], -21 ; ffffffebH
  000fb	eb 34		 jmp	 SHORT $LN1@operator
$LN88@operator:
  000fd	c6 45 f4 ed	 mov	 BYTE PTR __t$[ebp+8], -19 ; ffffffedH
  00101	eb 2e		 jmp	 SHORT $LN1@operator
$LN89@operator:
  00103	c6 45 f3 ea	 mov	 BYTE PTR __t$[ebp+7], -22 ; ffffffeaH
  00107	eb 28		 jmp	 SHORT $LN1@operator
$LN90@operator:
  00109	c6 45 f2 eb	 mov	 BYTE PTR __t$[ebp+6], -21 ; ffffffebH
  0010d	eb 22		 jmp	 SHORT $LN1@operator
$LN91@operator:
  0010f	c6 45 f1 ec	 mov	 BYTE PTR __t$[ebp+5], -20 ; ffffffecH
  00113	eb 1c		 jmp	 SHORT $LN1@operator
$LN92@operator:
  00115	c6 45 f0 ed	 mov	 BYTE PTR __t$[ebp+4], -19 ; ffffffedH
  00119	eb 16		 jmp	 SHORT $LN1@operator
$LN93@operator:
  0011b	c6 45 ef ea	 mov	 BYTE PTR __t$[ebp+3], -22 ; ffffffeaH
  0011f	eb 10		 jmp	 SHORT $LN1@operator
$LN94@operator:
  00121	c6 45 ee eb	 mov	 BYTE PTR __t$[ebp+2], -21 ; ffffffebH
  00125	eb 0a		 jmp	 SHORT $LN1@operator
$LN95@operator:
  00127	c6 45 ed ec	 mov	 BYTE PTR __t$[ebp+1], -20 ; ffffffecH
  0012b	eb 04		 jmp	 SHORT $LN1@operator
$LN96@operator:
  0012d	c6 45 ec ed	 mov	 BYTE PTR __t$[ebp], -19	; ffffffedH
$LN1@operator:
  00131	6a 02		 push	 2
  00133	8d 45 ec	 lea	 eax, DWORD PTR __t$[ebp]
  00136	c6 45 f5 00	 mov	 BYTE PTR __t$[ebp+9], 0
  0013a	5a		 pop	 edx
$LL104@operator:
  0013b	81 30 ed ec eb
	ea		 xor	 DWORD PTR [eax], -353637139 ; eaebecedH
  00141	83 c0 04	 add	 eax, 4
  00144	4a		 dec	 edx
  00145	75 f4		 jne	 SHORT $LL104@operator
  00147	80 75 f4 ed	 xor	 BYTE PTR __t$[ebp+8], -19 ; ffffffedH
  0014b	56		 push	 esi
  0014c	8d 75 ec	 lea	 esi, DWORD PTR __t$[ebp]
  0014f	ff 15 00 00 00
	00		 call	 DWORD PTR __imp_?c_str@ioHashString@@QBEPBDXZ
$LL111@operator:
  00155	8a 08		 mov	 cl, BYTE PTR [eax]
  00157	3a 0e		 cmp	 cl, BYTE PTR [esi]
  00159	75 1a		 jne	 SHORT $LN112@operator
  0015b	84 c9		 test	 cl, cl
  0015d	74 12		 je	 SHORT $LN113@operator
  0015f	8a 48 01	 mov	 cl, BYTE PTR [eax+1]
  00162	3a 4e 01	 cmp	 cl, BYTE PTR [esi+1]
  00165	75 0e		 jne	 SHORT $LN112@operator
  00167	83 c0 02	 add	 eax, 2
  0016a	83 c6 02	 add	 esi, 2
  0016d	84 c9		 test	 cl, cl
  0016f	75 e4		 jne	 SHORT $LL111@operator
$LN113@operator:
  00171	33 c0		 xor	 eax, eax
  00173	eb 05		 jmp	 SHORT $LN114@operator
$LN112@operator:
  00175	1b c0		 sbb	 eax, eax
  00177	83 d8 ff	 sbb	 eax, -1
$LN114@operator:
  0017a	33 c9		 xor	 ecx, ecx
  0017c	85 c0		 test	 eax, eax
  0017e	0f 94 c0	 sete	 al

; 148  : }

  00181	8b 4d fc	 mov	 ecx, DWORD PTR __$ArrayPad$[ebp]
  00184	33 cd		 xor	 ecx, ebp
  00186	5e		 pop	 esi
  00187	e8 00 00 00 00	 call	 @__security_check_cookie@4
  0018c	c9		 leave
  0018d	c3		 ret	 0
??$?8$09@@YA_NABVioHashString@@AAY09$$CBD@Z ENDP	; operator==<10>
_TEXT	ENDS
PUBLIC	_this$GSCopy$
PUBLIC	__$ArrayPad$
EXTRN	__imp_?AddRenderImage@ioWnd@@UAEXABVioHashString@@PAVioUIRenderImage@@@Z:PROC
; Function compile flags: /Ogsp
; File d:\lost saga for developer\youtube\tutorial\source\src\lsclient\gui\petresellwnd.cpp
;	COMDAT ?AddRenderImage@PetResellWnd@@UAEXABVioHashString@@PAVioUIRenderImage@@@Z
_TEXT	SEGMENT
_this$GSCopy$ = -24					; size = 4
__t$506075 = -20					; size = 10
__$ArrayPad$ = -4					; size = 4
_szType$ = 8						; size = 4
_pImage$ = 12						; size = 4
?AddRenderImage@PetResellWnd@@UAEXABVioHashString@@PAVioUIRenderImage@@@Z PROC ; PetResellWnd::AddRenderImage, COMDAT
; _this$ = ecx

; 118  : {

  00000	55		 push	 ebp
  00001	8b ec		 mov	 ebp, esp
  00003	83 ec 18	 sub	 esp, 24			; 00000018H
  00006	a1 00 00 00 00	 mov	 eax, DWORD PTR ___security_cookie
  0000b	33 c5		 xor	 eax, ebp
  0000d	89 45 fc	 mov	 DWORD PTR __$ArrayPad$[ebp], eax
  00010	53		 push	 ebx
  00011	8b 5d 0c	 mov	 ebx, DWORD PTR _pImage$[ebp]
  00014	56		 push	 esi
  00015	57		 push	 edi
  00016	8b 7d 08	 mov	 edi, DWORD PTR _szType$[ebp]

; 119  : 	if( szType == "sell_mark" )

  00019	6a 02		 push	 2
  0001b	89 4d e8	 mov	 DWORD PTR _this$GSCopy$[ebp], ecx
  0001e	c7 45 ec 9e 89
	87 86		 mov	 DWORD PTR __t$506075[ebp], -2037937762 ; 8687899eH
  00025	c7 45 f0 b2 81
	8a 98		 mov	 DWORD PTR __t$506075[ebp+4], -1735753294 ; 988a81b2H
  0002c	8d 45 ec	 lea	 eax, DWORD PTR __t$506075[ebp]
  0002f	66 c7 45 f4 86
	00		 mov	 WORD PTR __t$506075[ebp+8], 134 ; 00000086H
  00035	59		 pop	 ecx
$LL111@AddRenderI:
  00036	81 30 ed ec eb
	ea		 xor	 DWORD PTR [eax], -353637139 ; eaebecedH
  0003c	83 c0 04	 add	 eax, 4
  0003f	49		 dec	 ecx
  00040	75 f4		 jne	 SHORT $LL111@AddRenderI
  00042	80 75 f4 ed	 xor	 BYTE PTR __t$506075[ebp+8], -19 ; ffffffedH
  00046	8b cf		 mov	 ecx, edi
  00048	8d 75 ec	 lea	 esi, DWORD PTR __t$506075[ebp]
  0004b	ff 15 00 00 00
	00		 call	 DWORD PTR __imp_?c_str@ioHashString@@QBEPBDXZ
$LL118@AddRenderI:
  00051	8a 08		 mov	 cl, BYTE PTR [eax]
  00053	3a 0e		 cmp	 cl, BYTE PTR [esi]
  00055	75 1a		 jne	 SHORT $LN119@AddRenderI
  00057	84 c9		 test	 cl, cl
  00059	74 12		 je	 SHORT $LN120@AddRenderI
  0005b	8a 48 01	 mov	 cl, BYTE PTR [eax+1]
  0005e	3a 4e 01	 cmp	 cl, BYTE PTR [esi+1]
  00061	75 0e		 jne	 SHORT $LN119@AddRenderI
  00063	83 c0 02	 add	 eax, 2
  00066	83 c6 02	 add	 esi, 2
  00069	84 c9		 test	 cl, cl
  0006b	75 e4		 jne	 SHORT $LL118@AddRenderI
$LN120@AddRenderI:
  0006d	33 c0		 xor	 eax, eax
  0006f	eb 05		 jmp	 SHORT $LN121@AddRenderI
$LN119@AddRenderI:
  00071	1b c0		 sbb	 eax, eax
  00073	83 d8 ff	 sbb	 eax, -1
$LN121@AddRenderI:
  00076	85 c0		 test	 eax, eax
  00078	75 23		 jne	 SHORT $LN3@AddRenderI

; 120  : 	{
; 121  : 		SAFEDELETE( m_pSellMark );

  0007a	8b 75 e8	 mov	 esi, DWORD PTR _this$GSCopy$[ebp]
  0007d	8b 8e 60 01 00
	00		 mov	 ecx, DWORD PTR [esi+352]
  00083	85 c9		 test	 ecx, ecx
  00085	74 0e		 je	 SHORT $LN2@AddRenderI
  00087	8b 01		 mov	 eax, DWORD PTR [ecx]
  00089	6a 01		 push	 1
  0008b	ff 50 40	 call	 DWORD PTR [eax+64]
  0008e	83 a6 60 01 00
	00 00		 and	 DWORD PTR [esi+352], 0
$LN2@AddRenderI:

; 122  : 		m_pSellMark = pImage;

  00095	89 9e 60 01 00
	00		 mov	 DWORD PTR [esi+352], ebx

; 123  : 	}
; 124  : 	else

  0009b	eb 0b		 jmp	 SHORT $LN1@AddRenderI
$LN3@AddRenderI:

; 125  : 		ioWnd::AddRenderImage( szType, pImage );

  0009d	8b 4d e8	 mov	 ecx, DWORD PTR _this$GSCopy$[ebp]
  000a0	53		 push	 ebx
  000a1	57		 push	 edi
  000a2	ff 15 00 00 00
	00		 call	 DWORD PTR __imp_?AddRenderImage@ioWnd@@UAEXABVioHashString@@PAVioUIRenderImage@@@Z
$LN1@AddRenderI:

; 126  : }

  000a8	8b 4d fc	 mov	 ecx, DWORD PTR __$ArrayPad$[ebp]
  000ab	5f		 pop	 edi
  000ac	5e		 pop	 esi
  000ad	33 cd		 xor	 ecx, ebp
  000af	5b		 pop	 ebx
  000b0	e8 00 00 00 00	 call	 @__security_check_cookie@4
  000b5	c9		 leave
  000b6	c2 08 00	 ret	 8
?AddRenderImage@PetResellWnd@@UAEXABVioHashString@@PAVioUIRenderImage@@@Z ENDP ; PetResellWnd::AddRenderImage
_TEXT	ENDS
PUBLIC	_this$GSCopy$
PUBLIC	__$ArrayPad$
EXTRN	__imp_?AddRenderFrame@ioWnd@@UAEXABVioHashString@@PAVioUIRenderFrame@@@Z:PROC
; Function compile flags: /Ogsp
;	COMDAT ?AddRenderFrame@PetResellWnd@@UAEXABVioHashString@@PAVioUIRenderFrame@@@Z
_TEXT	SEGMENT
_this$GSCopy$ = -24					; size = 4
__t$506217 = -20					; size = 10
__$ArrayPad$ = -4					; size = 4
_szType$ = 8						; size = 4
_pFrame$ = 12						; size = 4
?AddRenderFrame@PetResellWnd@@UAEXABVioHashString@@PAVioUIRenderFrame@@@Z PROC ; PetResellWnd::AddRenderFrame, COMDAT
; _this$ = ecx

; 129  : {

  00000	55		 push	 ebp
  00001	8b ec		 mov	 ebp, esp
  00003	83 ec 18	 sub	 esp, 24			; 00000018H
  00006	a1 00 00 00 00	 mov	 eax, DWORD PTR ___security_cookie
  0000b	33 c5		 xor	 eax, ebp
  0000d	89 45 fc	 mov	 DWORD PTR __$ArrayPad$[ebp], eax
  00010	53		 push	 ebx
  00011	8b 5d 0c	 mov	 ebx, DWORD PTR _pFrame$[ebp]
  00014	56		 push	 esi
  00015	57		 push	 edi
  00016	8b 7d 08	 mov	 edi, DWORD PTR _szType$[ebp]

; 130  : 	if( szType == "BottomFrm" )

  00019	6a 02		 push	 2
  0001b	89 4d e8	 mov	 DWORD PTR _this$GSCopy$[ebp], ecx
  0001e	c7 45 ec af 83
	9f 9e		 mov	 DWORD PTR __t$506217[ebp], -1633713233 ; 9e9f83afH
  00025	c7 45 f0 82 81
	ad 98		 mov	 DWORD PTR __t$506217[ebp+4], -1733459582 ; 98ad8182H
  0002c	8d 45 ec	 lea	 eax, DWORD PTR __t$506217[ebp]
  0002f	66 c7 45 f4 80
	00		 mov	 WORD PTR __t$506217[ebp+8], 128 ; 00000080H
  00035	59		 pop	 ecx
$LL111@AddRenderF:
  00036	81 30 ed ec eb
	ea		 xor	 DWORD PTR [eax], -353637139 ; eaebecedH
  0003c	83 c0 04	 add	 eax, 4
  0003f	49		 dec	 ecx
  00040	75 f4		 jne	 SHORT $LL111@AddRenderF
  00042	80 75 f4 ed	 xor	 BYTE PTR __t$506217[ebp+8], -19 ; ffffffedH
  00046	8b cf		 mov	 ecx, edi
  00048	8d 75 ec	 lea	 esi, DWORD PTR __t$506217[ebp]
  0004b	ff 15 00 00 00
	00		 call	 DWORD PTR __imp_?c_str@ioHashString@@QBEPBDXZ
$LL118@AddRenderF:
  00051	8a 08		 mov	 cl, BYTE PTR [eax]
  00053	3a 0e		 cmp	 cl, BYTE PTR [esi]
  00055	75 1a		 jne	 SHORT $LN119@AddRenderF
  00057	84 c9		 test	 cl, cl
  00059	74 12		 je	 SHORT $LN120@AddRenderF
  0005b	8a 48 01	 mov	 cl, BYTE PTR [eax+1]
  0005e	3a 4e 01	 cmp	 cl, BYTE PTR [esi+1]
  00061	75 0e		 jne	 SHORT $LN119@AddRenderF
  00063	83 c0 02	 add	 eax, 2
  00066	83 c6 02	 add	 esi, 2
  00069	84 c9		 test	 cl, cl
  0006b	75 e4		 jne	 SHORT $LL118@AddRenderF
$LN120@AddRenderF:
  0006d	33 c0		 xor	 eax, eax
  0006f	eb 05		 jmp	 SHORT $LN121@AddRenderF
$LN119@AddRenderF:
  00071	1b c0		 sbb	 eax, eax
  00073	83 d8 ff	 sbb	 eax, -1
$LN121@AddRenderF:
  00076	85 c0		 test	 eax, eax
  00078	75 23		 jne	 SHORT $LN3@AddRenderF

; 131  : 	{
; 132  : 		SAFEDELETE( m_pBottomFrm );

  0007a	8b 75 e8	 mov	 esi, DWORD PTR _this$GSCopy$[ebp]
  0007d	8b 8e 64 01 00
	00		 mov	 ecx, DWORD PTR [esi+356]
  00083	85 c9		 test	 ecx, ecx
  00085	74 0e		 je	 SHORT $LN2@AddRenderF
  00087	8b 01		 mov	 eax, DWORD PTR [ecx]
  00089	6a 01		 push	 1
  0008b	ff 50 40	 call	 DWORD PTR [eax+64]
  0008e	83 a6 64 01 00
	00 00		 and	 DWORD PTR [esi+356], 0
$LN2@AddRenderF:

; 133  : 		m_pBottomFrm = pFrame;

  00095	89 9e 64 01 00
	00		 mov	 DWORD PTR [esi+356], ebx

; 134  : 	}
; 135  : 	else

  0009b	eb 0b		 jmp	 SHORT $LN1@AddRenderF
$LN3@AddRenderF:

; 136  : 		ioWnd::AddRenderFrame( szType, pFrame );

  0009d	8b 4d e8	 mov	 ecx, DWORD PTR _this$GSCopy$[ebp]
  000a0	53		 push	 ebx
  000a1	57		 push	 edi
  000a2	ff 15 00 00 00
	00		 call	 DWORD PTR __imp_?AddRenderFrame@ioWnd@@UAEXABVioHashString@@PAVioUIRenderFrame@@@Z
$LN1@AddRenderF:

; 137  : }

  000a8	8b 4d fc	 mov	 ecx, DWORD PTR __$ArrayPad$[ebp]
  000ab	5f		 pop	 edi
  000ac	5e		 pop	 esi
  000ad	33 cd		 xor	 ecx, ebp
  000af	5b		 pop	 ebx
  000b0	e8 00 00 00 00	 call	 @__security_check_cookie@4
  000b5	c9		 leave
  000b6	c2 08 00	 ret	 8
?AddRenderFrame@PetResellWnd@@UAEXABVioHashString@@PAVioUIRenderFrame@@@Z ENDP ; PetResellWnd::AddRenderFrame
_TEXT	ENDS
END
