; Listing generated by Microsoft (R) Optimizing Compiler Version 16.00.30319.01 

	TITLE	D:\Lost Saga For Developer\Youtube\Tutorial\Source\src\LSClient\GUI\PetResellResultWnd.cpp
	.686P
	.XMM
	include listing.inc
	.model	flat

INCLUDELIB MSVCRT
INCLUDELIB OLDNAMES

PUBLIC	??_7PetResellResultWnd@@6B@			; PetResellResultWnd::`vftable'
PUBLIC	??0PetResellResultWnd@@QAE@XZ			; PetResellResultWnd::PetResellResultWnd
PUBLIC	??_R4PetResellResultWnd@@6B@			; PetResellResultWnd::`RTTI Complete Object Locator'
PUBLIC	??_R0?AVPetResellResultWnd@@@8			; PetResellResultWnd `RTTI Type Descriptor'
PUBLIC	??_R3PetResellResultWnd@@8			; PetResellResultWnd::`RTTI Class Hierarchy Descriptor'
PUBLIC	??_R2PetResellResultWnd@@8			; PetResellResultWnd::`RTTI Base Class Array'
PUBLIC	??_R1A@?0A@EA@PetResellResultWnd@@8		; PetResellResultWnd::`RTTI Base Class Descriptor at (0,-1,0,64)'
PUBLIC	??_R1A@?0A@EA@ioWnd@@8				; ioWnd::`RTTI Base Class Descriptor at (0,-1,0,64)'
PUBLIC	??_R0?AVioWnd@@@8				; ioWnd `RTTI Type Descriptor'
PUBLIC	??_R3ioWnd@@8					; ioWnd::`RTTI Class Hierarchy Descriptor'
PUBLIC	??_R2ioWnd@@8					; ioWnd::`RTTI Base Class Array'
PUBLIC	?AddRenderImage@PetResellResultWnd@@UAEXABVioHashString@@PAVioUIRenderImage@@@Z ; PetResellResultWnd::AddRenderImage
PUBLIC	?OnRender@PetResellResultWnd@@MAEXXZ		; PetResellResultWnd::OnRender
PUBLIC	?iwm_command@PetResellResultWnd@@UAEXPAVioWnd@@HK@Z ; PetResellResultWnd::iwm_command
PUBLIC	?iwm_show@PetResellResultWnd@@UAEXXZ		; PetResellResultWnd::iwm_show
PUBLIC	?iwm_hide@PetResellResultWnd@@UAEXXZ		; PetResellResultWnd::iwm_hide
EXTRN	??_M@YGXPAXIHP6EX0@Z@Z:PROC			; `eh vector destructor iterator'
EXTRN	__imp_??1ioWnd@@UAE@XZ:PROC
EXTRN	??_L@YGXPAXIHP6EX0@Z1@Z:PROC			; `eh vector constructor iterator'
EXTRN	??0ioComplexStringPrinter@@QAE@XZ:PROC		; ioComplexStringPrinter::ioComplexStringPrinter
EXTRN	??1ioComplexStringPrinter@@QAE@XZ:PROC		; ioComplexStringPrinter::~ioComplexStringPrinter
EXTRN	__imp_??0ioWnd@@QAE@XZ:PROC
EXTRN	___CxxFrameHandler3:PROC
EXTRN	@__security_check_cookie@4:PROC
EXTRN	__EH_epilog3:PROC
EXTRN	__EH_prolog3:PROC
EXTRN	??_7type_info@@6B@:QWORD			; type_info::`vftable'
EXTRN	?AddRenderFrame@ioWnd@@UAEXABVioHashString@@PAVioUIRenderFrame@@@Z:PROC ; ioWnd::AddRenderFrame
EXTRN	?AddTooltipHelp@ioWnd@@UAEXABVioHashString@@00@Z:PROC ; ioWnd::AddTooltipHelp
EXTRN	?ParseExtraInfo@ioWnd@@UAEXAAVioXMLElement@@@Z:PROC ; ioWnd::ParseExtraInfo
EXTRN	?AddNamedRenderImage@ioWnd@@UAEXABVioHashString@@PAVioUIRenderImage@@@Z:PROC ; ioWnd::AddNamedRenderImage
EXTRN	?RemoveNamedRenderImage@ioWnd@@UAEXABVioHashString@@@Z:PROC ; ioWnd::RemoveNamedRenderImage
EXTRN	?GetNamedRenderImage@ioWnd@@UBEPAVioUIRenderImage@@ABVioHashString@@@Z:PROC ; ioWnd::GetNamedRenderImage
EXTRN	?SetWindowAlpha@ioWnd@@UAEXH@Z:PROC		; ioWnd::SetWindowAlpha
EXTRN	?SetActive@ioWnd@@UAEXXZ:PROC			; ioWnd::SetActive
EXTRN	?SetInActive@ioWnd@@UAEXXZ:PROC			; ioWnd::SetInActive
EXTRN	?ClearElementImageList@ioWnd@@UAEXXZ:PROC	; ioWnd::ClearElementImageList
EXTRN	?SetSize@ioWnd@@UAEXHH@Z:PROC			; ioWnd::SetSize
EXTRN	?SetPositionToDefault@ioWnd@@UAEXHH_N0@Z:PROC	; ioWnd::SetPositionToDefault
EXTRN	?IsNeedProcess@ioWnd@@UBE_NXZ:PROC		; ioWnd::IsNeedProcess
EXTRN	?IsCanMouseReaction@ioWnd@@UBE_NXZ:PROC		; ioWnd::IsCanMouseReaction
EXTRN	?AddChild@ioWnd@@UAEXPAV1@@Z:PROC		; ioWnd::AddChild
EXTRN	?DeleteChild@ioWnd@@UAEXK@Z:PROC		; ioWnd::DeleteChild
EXTRN	?DeleteAllChild@ioWnd@@UAEXXZ:PROC		; ioWnd::DeleteAllChild
EXTRN	?OnRenderShowAndHide@ioWnd@@MAE_NXZ:PROC	; ioWnd::OnRenderShowAndHide
EXTRN	?OnRenderShowAndHideByDefault@ioWnd@@MAE_NK@Z:PROC ; ioWnd::OnRenderShowAndHideByDefault
EXTRN	?OnRenderShowAndHideByTop@ioWnd@@MAE_NK@Z:PROC	; ioWnd::OnRenderShowAndHideByTop
EXTRN	?OnRenderShowAndHideByDown@ioWnd@@MAE_NK@Z:PROC	; ioWnd::OnRenderShowAndHideByDown
EXTRN	?OnRenderAfterChild@ioWnd@@MAEXXZ:PROC		; ioWnd::OnRenderAfterChild
EXTRN	?OnProcess@ioWnd@@MAEXM@Z:PROC			; ioWnd::OnProcess
EXTRN	?OnMouseProcess@ioWnd@@MAEXABVioMouse@@@Z:PROC	; ioWnd::OnMouseProcess
EXTRN	?CheckFrameReSize@ioWnd@@MAEXHHHH@Z:PROC	; ioWnd::CheckFrameReSize
EXTRN	?RenderImageList@ioWnd@@MAEXHHW4UIRenderType@@@Z:PROC ; ioWnd::RenderImageList
EXTRN	?iwm_create@ioWnd@@UAEXXZ:PROC			; ioWnd::iwm_create
EXTRN	?iwm_destroy@ioWnd@@UAEXXZ:PROC			; ioWnd::iwm_destroy
EXTRN	?iwm_lbuttondown@ioWnd@@UAEXABVioMouse@@@Z:PROC	; ioWnd::iwm_lbuttondown
EXTRN	?iwm_lbuttonup@ioWnd@@UAEXABVioMouse@@@Z:PROC	; ioWnd::iwm_lbuttonup
EXTRN	?iwm_lbuttonDBLCLK@ioWnd@@UAEXABVioMouse@@@Z:PROC ; ioWnd::iwm_lbuttonDBLCLK
EXTRN	?iwm_rbuttondown@ioWnd@@UAEXABVioMouse@@@Z:PROC	; ioWnd::iwm_rbuttondown
EXTRN	?iwm_rbuttonup@ioWnd@@UAEXABVioMouse@@@Z:PROC	; ioWnd::iwm_rbuttonup
EXTRN	?iwm_mouseover@ioWnd@@UAEXABVioMouse@@@Z:PROC	; ioWnd::iwm_mouseover
EXTRN	?iwm_mousemove@ioWnd@@UAEXABVioMouse@@@Z:PROC	; ioWnd::iwm_mousemove
EXTRN	?iwm_mouseleave@ioWnd@@UAEXABVioMouse@@@Z:PROC	; ioWnd::iwm_mouseleave
EXTRN	?iwm_vscroll@ioWnd@@UAEXKH@Z:PROC		; ioWnd::iwm_vscroll
EXTRN	?iwm_wheel@ioWnd@@UAEXH@Z:PROC			; ioWnd::iwm_wheel
EXTRN	?iwm_esc@ioWnd@@UAE_NXZ:PROC			; ioWnd::iwm_esc
EXTRN	?iwm_spacebar@ioWnd@@UAE_NXZ:PROC		; ioWnd::iwm_spacebar
EXTRN	?iwm_gototop@ioWnd@@UAEXXZ:PROC			; ioWnd::iwm_gototop
EXTRN	?iwm_dragenter@ioWnd@@UAE?AW4IWDropEffect@@PAVioDragItem@@ABVioMouse@@@Z:PROC ; ioWnd::iwm_dragenter
EXTRN	?iwm_dragover@ioWnd@@UAE?AW4IWDropEffect@@PAVioDragItem@@ABVioMouse@@@Z:PROC ; ioWnd::iwm_dragover
EXTRN	?iwm_dragleave@ioWnd@@UAEXXZ:PROC		; ioWnd::iwm_dragleave
EXTRN	?iwm_dropitem@ioWnd@@UAE_NPAVioDragItem@@ABVioMouse@@PAV1@@Z:PROC ; ioWnd::iwm_dropitem
EXTRN	?iwm_dropdone@ioWnd@@UAEXPAVioDragItem@@PAV1@_N@Z:PROC ; ioWnd::iwm_dropdone
EXTRN	?IsEXType@ioWnd@@UBE_NXZ:PROC			; ioWnd::IsEXType
EXTRN	?GetWndType@ioWnd@@UBEKXZ:PROC			; ioWnd::GetWndType
EXTRN	?RenderWnd@ioWnd@@UAEXXZ:PROC			; ioWnd::RenderWnd
EXTRN	?SetIDEX@ioWnd@@UAEXAAK_N@Z:PROC		; ioWnd::SetIDEX
EXTRN	?ParseXML@ioWnd@@UAEXAAVioXMLElement@@@Z:PROC	; ioWnd::ParseXML
EXTRN	?GetHeaderFileName@ioWnd@@UAEPBDXZ:PROC		; ioWnd::GetHeaderFileName
EXTRN	?GetTemplateName@ioWnd@@UAEPBDXZ:PROC		; ioWnd::GetTemplateName
EXTRN	?GetDefClassName@ioWnd@@UBEPBDXZ:PROC		; ioWnd::GetDefClassName
EXTRN	?_Clone@ioWnd@@UAEPAV1@XZ:PROC			; ioWnd::_Clone
EXTRN	?Copy@ioWnd@@UAEXPAV1@@Z:PROC			; ioWnd::Copy
EXTRN	?Save@ioWnd@@UAE_NAAVioXMLElement@@@Z:PROC	; ioWnd::Save
EXTRN	?SetSaveData@ioWnd@@UAEXAAVioXMLElement@@@Z:PROC ; ioWnd::SetSaveData
EXTRN	?SetPosX@ioWnd@@UAEXH@Z:PROC			; ioWnd::SetPosX
EXTRN	?SetPosY@ioWnd@@UAEXH@Z:PROC			; ioWnd::SetPosY
EXTRN	?SetWidth@ioWnd@@UAEXH@Z:PROC			; ioWnd::SetWidth
EXTRN	?SetHeight@ioWnd@@UAEXH@Z:PROC			; ioWnd::SetHeight
EXTRN	?GetNumFixedRenderFrame@ioWnd@@UBEHXZ:PROC	; ioWnd::GetNumFixedRenderFrame
EXTRN	?GetFixedRenderFrameType@ioWnd@@UAEPBDH@Z:PROC	; ioWnd::GetFixedRenderFrameType
EXTRN	?GetRenderFrame@ioWnd@@UAEPAPAVioUIRenderElement@@PBD@Z:PROC ; ioWnd::GetRenderFrame
EXTRN	?GetNumFixedRenderImage@ioWnd@@UBEHXZ:PROC	; ioWnd::GetNumFixedRenderImage
EXTRN	?GetFixedRenderImageType@ioWnd@@UAEPBDH@Z:PROC	; ioWnd::GetFixedRenderImageType
EXTRN	?GetRenderImage@ioWnd@@UAEPAPAVioUIRenderElement@@PBD@Z:PROC ; ioWnd::GetRenderImage
EXTRN	?AddEffect@ioWnd@@UAEXABVioHashString@@PAVioUI3DEffectRender@@@Z:PROC ; ioWnd::AddEffect
EXTRN	?GetEffect@ioWnd@@UAEPAVioUI3DEffectRender@@VioHashString@@@Z:PROC ; ioWnd::GetEffect
EXTRN	??_EPetResellResultWnd@@UAEPAXI@Z:PROC		; PetResellResultWnd::`vector deleting destructor'
;	COMDAT ??_R2ioWnd@@8
; File d:\lost saga for developer\youtube\tutorial\source\src\lsclient\gui\petresellresultwnd.cpp
rdata$r	SEGMENT
??_R2ioWnd@@8 DD FLAT:??_R1A@?0A@EA@ioWnd@@8		; ioWnd::`RTTI Base Class Array'
rdata$r	ENDS
;	COMDAT ??_R3ioWnd@@8
rdata$r	SEGMENT
??_R3ioWnd@@8 DD 00H					; ioWnd::`RTTI Class Hierarchy Descriptor'
	DD	00H
	DD	01H
	DD	FLAT:??_R2ioWnd@@8
rdata$r	ENDS
;	COMDAT ??_R0?AVioWnd@@@8
_DATA	SEGMENT
??_R0?AVioWnd@@@8 DD FLAT:??_7type_info@@6B@		; ioWnd `RTTI Type Descriptor'
	DD	00H
	DB	'.?AVioWnd@@', 00H
_DATA	ENDS
;	COMDAT ??_R1A@?0A@EA@ioWnd@@8
rdata$r	SEGMENT
??_R1A@?0A@EA@ioWnd@@8 DD FLAT:??_R0?AVioWnd@@@8	; ioWnd::`RTTI Base Class Descriptor at (0,-1,0,64)'
	DD	00H
	DD	00H
	DD	0ffffffffH
	DD	00H
	DD	040H
	DD	FLAT:??_R3ioWnd@@8
rdata$r	ENDS
;	COMDAT ??_R1A@?0A@EA@PetResellResultWnd@@8
rdata$r	SEGMENT
??_R1A@?0A@EA@PetResellResultWnd@@8 DD FLAT:??_R0?AVPetResellResultWnd@@@8 ; PetResellResultWnd::`RTTI Base Class Descriptor at (0,-1,0,64)'
	DD	01H
	DD	00H
	DD	0ffffffffH
	DD	00H
	DD	040H
	DD	FLAT:??_R3PetResellResultWnd@@8
rdata$r	ENDS
;	COMDAT ??_R2PetResellResultWnd@@8
rdata$r	SEGMENT
??_R2PetResellResultWnd@@8 DD FLAT:??_R1A@?0A@EA@PetResellResultWnd@@8 ; PetResellResultWnd::`RTTI Base Class Array'
	DD	FLAT:??_R1A@?0A@EA@ioWnd@@8
rdata$r	ENDS
;	COMDAT ??_R3PetResellResultWnd@@8
rdata$r	SEGMENT
??_R3PetResellResultWnd@@8 DD 00H			; PetResellResultWnd::`RTTI Class Hierarchy Descriptor'
	DD	00H
	DD	02H
	DD	FLAT:??_R2PetResellResultWnd@@8
rdata$r	ENDS
;	COMDAT ??_R0?AVPetResellResultWnd@@@8
_DATA	SEGMENT
??_R0?AVPetResellResultWnd@@@8 DD FLAT:??_7type_info@@6B@ ; PetResellResultWnd `RTTI Type Descriptor'
	DD	00H
	DB	'.?AVPetResellResultWnd@@', 00H
_DATA	ENDS
;	COMDAT ??_R4PetResellResultWnd@@6B@
rdata$r	SEGMENT
??_R4PetResellResultWnd@@6B@ DD 00H			; PetResellResultWnd::`RTTI Complete Object Locator'
	DD	00H
	DD	00H
	DD	FLAT:??_R0?AVPetResellResultWnd@@@8
	DD	FLAT:??_R3PetResellResultWnd@@8
rdata$r	ENDS
;	COMDAT ??_7PetResellResultWnd@@6B@
CONST	SEGMENT
??_7PetResellResultWnd@@6B@ DD FLAT:??_R4PetResellResultWnd@@6B@ ; PetResellResultWnd::`vftable'
	DD	FLAT:?AddRenderFrame@ioWnd@@UAEXABVioHashString@@PAVioUIRenderFrame@@@Z
	DD	FLAT:?AddRenderImage@PetResellResultWnd@@UAEXABVioHashString@@PAVioUIRenderImage@@@Z
	DD	FLAT:?AddTooltipHelp@ioWnd@@UAEXABVioHashString@@00@Z
	DD	FLAT:?ParseExtraInfo@ioWnd@@UAEXAAVioXMLElement@@@Z
	DD	FLAT:?AddNamedRenderImage@ioWnd@@UAEXABVioHashString@@PAVioUIRenderImage@@@Z
	DD	FLAT:?RemoveNamedRenderImage@ioWnd@@UAEXABVioHashString@@@Z
	DD	FLAT:?GetNamedRenderImage@ioWnd@@UBEPAVioUIRenderImage@@ABVioHashString@@@Z
	DD	FLAT:?SetWindowAlpha@ioWnd@@UAEXH@Z
	DD	FLAT:?SetActive@ioWnd@@UAEXXZ
	DD	FLAT:?SetInActive@ioWnd@@UAEXXZ
	DD	FLAT:?ClearElementImageList@ioWnd@@UAEXXZ
	DD	FLAT:?SetSize@ioWnd@@UAEXHH@Z
	DD	FLAT:?SetPositionToDefault@ioWnd@@UAEXHH_N0@Z
	DD	FLAT:?IsNeedProcess@ioWnd@@UBE_NXZ
	DD	FLAT:?IsCanMouseReaction@ioWnd@@UBE_NXZ
	DD	FLAT:?AddChild@ioWnd@@UAEXPAV1@@Z
	DD	FLAT:?DeleteChild@ioWnd@@UAEXK@Z
	DD	FLAT:?DeleteAllChild@ioWnd@@UAEXXZ
	DD	FLAT:?OnRenderShowAndHide@ioWnd@@MAE_NXZ
	DD	FLAT:?OnRenderShowAndHideByDefault@ioWnd@@MAE_NK@Z
	DD	FLAT:?OnRenderShowAndHideByTop@ioWnd@@MAE_NK@Z
	DD	FLAT:?OnRenderShowAndHideByDown@ioWnd@@MAE_NK@Z
	DD	FLAT:?OnRender@PetResellResultWnd@@MAEXXZ
	DD	FLAT:?OnRenderAfterChild@ioWnd@@MAEXXZ
	DD	FLAT:?OnProcess@ioWnd@@MAEXM@Z
	DD	FLAT:?OnMouseProcess@ioWnd@@MAEXABVioMouse@@@Z
	DD	FLAT:?CheckFrameReSize@ioWnd@@MAEXHHHH@Z
	DD	FLAT:?RenderImageList@ioWnd@@MAEXHHW4UIRenderType@@@Z
	DD	FLAT:?iwm_create@ioWnd@@UAEXXZ
	DD	FLAT:?iwm_destroy@ioWnd@@UAEXXZ
	DD	FLAT:?iwm_lbuttondown@ioWnd@@UAEXABVioMouse@@@Z
	DD	FLAT:?iwm_lbuttonup@ioWnd@@UAEXABVioMouse@@@Z
	DD	FLAT:?iwm_lbuttonDBLCLK@ioWnd@@UAEXABVioMouse@@@Z
	DD	FLAT:?iwm_rbuttondown@ioWnd@@UAEXABVioMouse@@@Z
	DD	FLAT:?iwm_rbuttonup@ioWnd@@UAEXABVioMouse@@@Z
	DD	FLAT:?iwm_command@PetResellResultWnd@@UAEXPAVioWnd@@HK@Z
	DD	FLAT:?iwm_mouseover@ioWnd@@UAEXABVioMouse@@@Z
	DD	FLAT:?iwm_mousemove@ioWnd@@UAEXABVioMouse@@@Z
	DD	FLAT:?iwm_mouseleave@ioWnd@@UAEXABVioMouse@@@Z
	DD	FLAT:?iwm_vscroll@ioWnd@@UAEXKH@Z
	DD	FLAT:?iwm_wheel@ioWnd@@UAEXH@Z
	DD	FLAT:?iwm_show@PetResellResultWnd@@UAEXXZ
	DD	FLAT:?iwm_hide@PetResellResultWnd@@UAEXXZ
	DD	FLAT:?iwm_esc@ioWnd@@UAE_NXZ
	DD	FLAT:?iwm_spacebar@ioWnd@@UAE_NXZ
	DD	FLAT:?iwm_gototop@ioWnd@@UAEXXZ
	DD	FLAT:?iwm_dragenter@ioWnd@@UAE?AW4IWDropEffect@@PAVioDragItem@@ABVioMouse@@@Z
	DD	FLAT:?iwm_dragover@ioWnd@@UAE?AW4IWDropEffect@@PAVioDragItem@@ABVioMouse@@@Z
	DD	FLAT:?iwm_dragleave@ioWnd@@UAEXXZ
	DD	FLAT:?iwm_dropitem@ioWnd@@UAE_NPAVioDragItem@@ABVioMouse@@PAV1@@Z
	DD	FLAT:?iwm_dropdone@ioWnd@@UAEXPAVioDragItem@@PAV1@_N@Z
	DD	FLAT:?IsEXType@ioWnd@@UBE_NXZ
	DD	FLAT:?GetWndType@ioWnd@@UBEKXZ
	DD	FLAT:?RenderWnd@ioWnd@@UAEXXZ
	DD	FLAT:?SetIDEX@ioWnd@@UAEXAAK_N@Z
	DD	FLAT:?ParseXML@ioWnd@@UAEXAAVioXMLElement@@@Z
	DD	FLAT:?GetHeaderFileName@ioWnd@@UAEPBDXZ
	DD	FLAT:?GetTemplateName@ioWnd@@UAEPBDXZ
	DD	FLAT:?GetDefClassName@ioWnd@@UBEPBDXZ
	DD	FLAT:?_Clone@ioWnd@@UAEPAV1@XZ
	DD	FLAT:?Copy@ioWnd@@UAEXPAV1@@Z
	DD	FLAT:?Save@ioWnd@@UAE_NAAVioXMLElement@@@Z
	DD	FLAT:?SetSaveData@ioWnd@@UAEXAAVioXMLElement@@@Z
	DD	FLAT:?SetPosX@ioWnd@@UAEXH@Z
	DD	FLAT:?SetPosY@ioWnd@@UAEXH@Z
	DD	FLAT:?SetWidth@ioWnd@@UAEXH@Z
	DD	FLAT:?SetHeight@ioWnd@@UAEXH@Z
	DD	FLAT:?GetNumFixedRenderFrame@ioWnd@@UBEHXZ
	DD	FLAT:?GetFixedRenderFrameType@ioWnd@@UAEPBDH@Z
	DD	FLAT:?GetRenderFrame@ioWnd@@UAEPAPAVioUIRenderElement@@PBD@Z
	DD	FLAT:?GetNumFixedRenderImage@ioWnd@@UBEHXZ
	DD	FLAT:?GetFixedRenderImageType@ioWnd@@UAEPBDH@Z
	DD	FLAT:?GetRenderImage@ioWnd@@UAEPAPAVioUIRenderElement@@PBD@Z
	DD	FLAT:?AddEffect@ioWnd@@UAEXABVioHashString@@PAVioUI3DEffectRender@@@Z
	DD	FLAT:?GetEffect@ioWnd@@UAEPAVioUI3DEffectRender@@VioHashString@@@Z
	DD	FLAT:??_EPetResellResultWnd@@UAEPAXI@Z
CONST	ENDS
;	COMDAT xdata$x
xdata$x	SEGMENT
__unwindtable$??0PetResellResultWnd@@QAE@XZ DD 0ffffffffH
	DD	FLAT:__unwindfunclet$??0PetResellResultWnd@@QAE@XZ$0
	DD	00H
	DD	FLAT:__unwindfunclet$??0PetResellResultWnd@@QAE@XZ$1
__ehfuncinfo$??0PetResellResultWnd@@QAE@XZ DD 019930522H
	DD	02H
	DD	FLAT:__unwindtable$??0PetResellResultWnd@@QAE@XZ
	DD	2 DUP(00H)
	DD	2 DUP(00H)
	DD	00H
	DD	01H
; Function compile flags: /Ogsp
xdata$x	ENDS
;	COMDAT ??0PetResellResultWnd@@QAE@XZ
_TEXT	SEGMENT
_this$ = -16						; size = 4
__$EHRec$ = -12						; size = 12
??0PetResellResultWnd@@QAE@XZ PROC			; PetResellResultWnd::PetResellResultWnd, COMDAT
; _this$ = ecx

; 11   : {

  00000	6a 04		 push	 4
  00002	b8 00 00 00 00	 mov	 eax, __ehhandler$??0PetResellResultWnd@@QAE@XZ
  00007	e8 00 00 00 00	 call	 __EH_prolog3
  0000c	8b f1		 mov	 esi, ecx
  0000e	89 75 f0	 mov	 DWORD PTR _this$[ebp], esi
  00011	ff 15 00 00 00
	00		 call	 DWORD PTR __imp_??0ioWnd@@QAE@XZ
  00017	83 65 fc 00	 and	 DWORD PTR __$EHRec$[ebp+8], 0
  0001b	bb 00 00 00 00	 mov	 ebx, OFFSET ??1ioComplexStringPrinter@@QAE@XZ ; ioComplexStringPrinter::~ioComplexStringPrinter
  00020	53		 push	 ebx
  00021	bf 00 00 00 00	 mov	 edi, OFFSET ??0ioComplexStringPrinter@@QAE@XZ ; ioComplexStringPrinter::ioComplexStringPrinter
  00026	57		 push	 edi
  00027	6a 02		 push	 2
  00029	6a 20		 push	 32			; 00000020H
  0002b	8d 86 74 01 00
	00		 lea	 eax, DWORD PTR [esi+372]
  00031	50		 push	 eax
  00032	c7 06 00 00 00
	00		 mov	 DWORD PTR [esi], OFFSET ??_7PetResellResultWnd@@6B@
  00038	e8 00 00 00 00	 call	 ??_L@YGXPAXIHP6EX0@Z1@Z
  0003d	53		 push	 ebx
  0003e	57		 push	 edi
  0003f	6a 02		 push	 2
  00041	6a 20		 push	 32			; 00000020H
  00043	8d 86 b4 01 00
	00		 lea	 eax, DWORD PTR [esi+436]
  00049	50		 push	 eax
  0004a	c6 45 fc 01	 mov	 BYTE PTR __$EHRec$[ebp+8], 1
  0004e	e8 00 00 00 00	 call	 ??_L@YGXPAXIHP6EX0@Z1@Z

; 12   : 	m_pIcon	= NULL;

  00053	33 c0		 xor	 eax, eax
  00055	89 86 60 01 00
	00		 mov	 DWORD PTR [esi+352], eax

; 13   : 	m_pBackEffect = NULL;	

  0005b	89 86 64 01 00
	00		 mov	 DWORD PTR [esi+356], eax

; 14   : 
; 15   : 	m_nPetCode = 0;

  00061	89 86 68 01 00
	00		 mov	 DWORD PTR [esi+360], eax

; 16   : 	m_nPetRank = 0;

  00067	89 86 6c 01 00
	00		 mov	 DWORD PTR [esi+364], eax

; 17   : }

  0006d	8b c6		 mov	 eax, esi
  0006f	e8 00 00 00 00	 call	 __EH_epilog3
  00074	c3		 ret	 0
_TEXT	ENDS
;	COMDAT text$x
text$x	SEGMENT
__unwindfunclet$??0PetResellResultWnd@@QAE@XZ$0:
  00000	8b 4d f0	 mov	 ecx, DWORD PTR _this$[ebp]
  00003	ff 25 00 00 00
	00		 jmp	 DWORD PTR __imp_??1ioWnd@@UAE@XZ
__unwindfunclet$??0PetResellResultWnd@@QAE@XZ$1:
  00009	68 00 00 00 00	 push	 OFFSET ??1ioComplexStringPrinter@@QAE@XZ ; ioComplexStringPrinter::~ioComplexStringPrinter
  0000e	6a 02		 push	 2
  00010	6a 20		 push	 32			; 00000020H
  00012	8b 45 f0	 mov	 eax, DWORD PTR _this$[ebp]
  00015	05 74 01 00 00	 add	 eax, 372		; 00000174H
  0001a	50		 push	 eax
  0001b	e8 00 00 00 00	 call	 ??_M@YGXPAXIHP6EX0@Z@Z
  00020	c3		 ret	 0
__ehhandler$??0PetResellResultWnd@@QAE@XZ:
  00021	8b 54 24 08	 mov	 edx, DWORD PTR [esp+8]
  00025	8d 42 0c	 lea	 eax, DWORD PTR [edx+12]
  00028	8b 4a ec	 mov	 ecx, DWORD PTR [edx-20]
  0002b	33 c8		 xor	 ecx, eax
  0002d	e8 00 00 00 00	 call	 @__security_check_cookie@4
  00032	b8 00 00 00 00	 mov	 eax, OFFSET __ehfuncinfo$??0PetResellResultWnd@@QAE@XZ
  00037	e9 00 00 00 00	 jmp	 ___CxxFrameHandler3
text$x	ENDS
??0PetResellResultWnd@@QAE@XZ ENDP			; PetResellResultWnd::PetResellResultWnd
PUBLIC	??1PetResellResultWnd@@UAE@XZ			; PetResellResultWnd::~PetResellResultWnd
;	COMDAT xdata$x
xdata$x	SEGMENT
__unwindtable$??1PetResellResultWnd@@UAE@XZ DD 0ffffffffH
	DD	FLAT:__unwindfunclet$??1PetResellResultWnd@@UAE@XZ$0
	DD	00H
	DD	FLAT:__unwindfunclet$??1PetResellResultWnd@@UAE@XZ$1
	DD	01H
	DD	FLAT:__unwindfunclet$??1PetResellResultWnd@@UAE@XZ$2
__ehfuncinfo$??1PetResellResultWnd@@UAE@XZ DD 019930522H
	DD	03H
	DD	FLAT:__unwindtable$??1PetResellResultWnd@@UAE@XZ
	DD	2 DUP(00H)
	DD	2 DUP(00H)
	DD	00H
	DD	01H
; Function compile flags: /Ogsp
xdata$x	ENDS
;	COMDAT ??1PetResellResultWnd@@UAE@XZ
_TEXT	SEGMENT
_this$ = -16						; size = 4
__$EHRec$ = -12						; size = 12
??1PetResellResultWnd@@UAE@XZ PROC			; PetResellResultWnd::~PetResellResultWnd, COMDAT
; _this$ = ecx

; 20   : {

  00000	6a 04		 push	 4
  00002	b8 00 00 00 00	 mov	 eax, __ehhandler$??1PetResellResultWnd@@UAE@XZ
  00007	e8 00 00 00 00	 call	 __EH_prolog3
  0000c	8b f1		 mov	 esi, ecx
  0000e	89 75 f0	 mov	 DWORD PTR _this$[ebp], esi
  00011	c7 06 00 00 00
	00		 mov	 DWORD PTR [esi], OFFSET ??_7PetResellResultWnd@@6B@

; 21   : 	SAFEDELETE(m_pIcon);

  00017	8b 8e 60 01 00
	00		 mov	 ecx, DWORD PTR [esi+352]
  0001d	c7 45 fc 02 00
	00 00		 mov	 DWORD PTR __$EHRec$[ebp+8], 2
  00024	85 c9		 test	 ecx, ecx
  00026	74 0e		 je	 SHORT $LN2@PetResellR
  00028	8b 01		 mov	 eax, DWORD PTR [ecx]
  0002a	6a 01		 push	 1
  0002c	ff 50 40	 call	 DWORD PTR [eax+64]
  0002f	83 a6 60 01 00
	00 00		 and	 DWORD PTR [esi+352], 0
$LN2@PetResellR:

; 22   : 	SAFEDELETE(m_pBackEffect);

  00036	8b 8e 64 01 00
	00		 mov	 ecx, DWORD PTR [esi+356]
  0003c	85 c9		 test	 ecx, ecx
  0003e	74 0e		 je	 SHORT $LN1@PetResellR
  00040	8b 01		 mov	 eax, DWORD PTR [ecx]
  00042	6a 01		 push	 1
  00044	ff 50 40	 call	 DWORD PTR [eax+64]
  00047	83 a6 64 01 00
	00 00		 and	 DWORD PTR [esi+356], 0
$LN1@PetResellR:

; 23   : }

  0004e	bf 00 00 00 00	 mov	 edi, OFFSET ??1ioComplexStringPrinter@@QAE@XZ ; ioComplexStringPrinter::~ioComplexStringPrinter
  00053	57		 push	 edi
  00054	6a 02		 push	 2
  00056	6a 20		 push	 32			; 00000020H
  00058	8d 86 b4 01 00
	00		 lea	 eax, DWORD PTR [esi+436]
  0005e	50		 push	 eax
  0005f	c6 45 fc 01	 mov	 BYTE PTR __$EHRec$[ebp+8], 1
  00063	e8 00 00 00 00	 call	 ??_M@YGXPAXIHP6EX0@Z@Z
  00068	57		 push	 edi
  00069	6a 02		 push	 2
  0006b	6a 20		 push	 32			; 00000020H
  0006d	8d 86 74 01 00
	00		 lea	 eax, DWORD PTR [esi+372]
  00073	50		 push	 eax
  00074	c6 45 fc 00	 mov	 BYTE PTR __$EHRec$[ebp+8], 0
  00078	e8 00 00 00 00	 call	 ??_M@YGXPAXIHP6EX0@Z@Z
  0007d	83 4d fc ff	 or	 DWORD PTR __$EHRec$[ebp+8], -1
  00081	8b ce		 mov	 ecx, esi
  00083	ff 15 00 00 00
	00		 call	 DWORD PTR __imp_??1ioWnd@@UAE@XZ
  00089	e8 00 00 00 00	 call	 __EH_epilog3
  0008e	c3		 ret	 0
_TEXT	ENDS
;	COMDAT text$x
text$x	SEGMENT
__unwindfunclet$??1PetResellResultWnd@@UAE@XZ$0:
  00000	8b 4d f0	 mov	 ecx, DWORD PTR _this$[ebp]
  00003	ff 25 00 00 00
	00		 jmp	 DWORD PTR __imp_??1ioWnd@@UAE@XZ
__unwindfunclet$??1PetResellResultWnd@@UAE@XZ$1:
  00009	68 00 00 00 00	 push	 OFFSET ??1ioComplexStringPrinter@@QAE@XZ ; ioComplexStringPrinter::~ioComplexStringPrinter
  0000e	6a 02		 push	 2
  00010	6a 20		 push	 32			; 00000020H
  00012	8b 45 f0	 mov	 eax, DWORD PTR _this$[ebp]
  00015	05 74 01 00 00	 add	 eax, 372		; 00000174H
  0001a	50		 push	 eax
  0001b	e8 00 00 00 00	 call	 ??_M@YGXPAXIHP6EX0@Z@Z
  00020	c3		 ret	 0
__unwindfunclet$??1PetResellResultWnd@@UAE@XZ$2:
  00021	68 00 00 00 00	 push	 OFFSET ??1ioComplexStringPrinter@@QAE@XZ ; ioComplexStringPrinter::~ioComplexStringPrinter
  00026	6a 02		 push	 2
  00028	6a 20		 push	 32			; 00000020H
  0002a	8b 45 f0	 mov	 eax, DWORD PTR _this$[ebp]
  0002d	05 b4 01 00 00	 add	 eax, 436		; 000001b4H
  00032	50		 push	 eax
  00033	e8 00 00 00 00	 call	 ??_M@YGXPAXIHP6EX0@Z@Z
  00038	c3		 ret	 0
__ehhandler$??1PetResellResultWnd@@UAE@XZ:
  00039	8b 54 24 08	 mov	 edx, DWORD PTR [esp+8]
  0003d	8d 42 0c	 lea	 eax, DWORD PTR [edx+12]
  00040	8b 4a ec	 mov	 ecx, DWORD PTR [edx-20]
  00043	33 c8		 xor	 ecx, eax
  00045	e8 00 00 00 00	 call	 @__security_check_cookie@4
  0004a	b8 00 00 00 00	 mov	 eax, OFFSET __ehfuncinfo$??1PetResellResultWnd@@UAE@XZ
  0004f	e9 00 00 00 00	 jmp	 ___CxxFrameHandler3
text$x	ENDS
??1PetResellResultWnd@@UAE@XZ ENDP			; PetResellResultWnd::~PetResellResultWnd
; Function compile flags: /Ogsp
;	COMDAT ?iwm_show@PetResellResultWnd@@UAEXXZ
_TEXT	SEGMENT
?iwm_show@PetResellResultWnd@@UAEXXZ PROC		; PetResellResultWnd::iwm_show, COMDAT
; _this$ = ecx

; 29   : 
; 30   : }

  00000	c3		 ret	 0
?iwm_show@PetResellResultWnd@@UAEXXZ ENDP		; PetResellResultWnd::iwm_show
; Function compile flags: /Ogsp
_TEXT	ENDS
;	COMDAT ?iwm_hide@PetResellResultWnd@@UAEXXZ
_TEXT	SEGMENT
?iwm_hide@PetResellResultWnd@@UAEXXZ PROC		; PetResellResultWnd::iwm_hide, COMDAT
; _this$ = ecx

; 34   : 	m_nPetCode = 0;

  00000	83 a1 68 01 00
	00 00		 and	 DWORD PTR [ecx+360], 0

; 35   : 	m_nPetRank = 0;

  00007	83 a1 6c 01 00
	00 00		 and	 DWORD PTR [ecx+364], 0

; 36   : }

  0000e	c3		 ret	 0
?iwm_hide@PetResellResultWnd@@UAEXXZ ENDP		; PetResellResultWnd::iwm_hide
; Function compile flags: /Ogsp
_TEXT	ENDS
;	COMDAT ?iwm_command@PetResellResultWnd@@UAEXPAVioWnd@@HK@Z
_TEXT	SEGMENT
_pWnd$ = 8						; size = 4
_cmd$ = 12						; size = 4
_param$ = 16						; size = 4
?iwm_command@PetResellResultWnd@@UAEXPAVioWnd@@HK@Z PROC ; PetResellResultWnd::iwm_command, COMDAT
; _this$ = ecx

; 40   : 
; 41   : }

  00000	c2 0c 00	 ret	 12			; 0000000cH
?iwm_command@PetResellResultWnd@@UAEXPAVioWnd@@HK@Z ENDP ; PetResellResultWnd::iwm_command
_TEXT	ENDS
PUBLIC	?RenderIcon@PetResellResultWnd@@IAEXHH@Z	; PetResellResultWnd::RenderIcon
EXTRN	__fltused:DWORD
; Function compile flags: /Ogsp
;	COMDAT ?RenderIcon@PetResellResultWnd@@IAEXHH@Z
_TEXT	SEGMENT
tv183 = 8						; size = 4
_nXPos$ = 8						; size = 4
tv181 = 12						; size = 4
_nYPos$ = 12						; size = 4
?RenderIcon@PetResellResultWnd@@IAEXHH@Z PROC		; PetResellResultWnd::RenderIcon, COMDAT
; _this$ = ecx

; 70   : {

  00000	55		 push	 ebp
  00001	8b ec		 mov	 ebp, esp
  00003	56		 push	 esi
  00004	57		 push	 edi
  00005	8b f9		 mov	 edi, ecx

; 71   : 	enum
; 72   : 	{
; 73   : 		ICON_X		= 129,
; 74   : 		ICON_Y		= 105,
; 75   : 	};
; 76   : 
; 77   : 	if ( m_nPetCode <= 0 || m_nPetRank <= 0 )

  00007	33 f6		 xor	 esi, esi
  00009	39 b7 68 01 00
	00		 cmp	 DWORD PTR [edi+360], esi
  0000f	0f 8e 80 00 00
	00		 jle	 $LN1@RenderIcon
  00015	39 b7 6c 01 00
	00		 cmp	 DWORD PTR [edi+364], esi
  0001b	7e 78		 jle	 SHORT $LN1@RenderIcon

; 78   : 		return;
; 79   : 
; 80   : 	if ( !m_pIcon || !m_pBackEffect )

  0001d	39 b7 60 01 00
	00		 cmp	 DWORD PTR [edi+352], esi
  00023	74 70		 je	 SHORT $LN1@RenderIcon
  00025	39 b7 64 01 00
	00		 cmp	 DWORD PTR [edi+356], esi
  0002b	74 68		 je	 SHORT $LN1@RenderIcon

; 81   : 		return;
; 82   : 
; 83   : 	m_pBackEffect->Render( nXPos+ICON_X, nYPos+ICON_Y, UI_RENDER_MULTIPLY );	

  0002d	8b 45 0c	 mov	 eax, DWORD PTR _nYPos$[ebp]
  00030	8b 8f 64 01 00
	00		 mov	 ecx, DWORD PTR [edi+356]
  00036	56		 push	 esi
  00037	56		 push	 esi
  00038	83 c0 69	 add	 eax, 105		; 00000069H
  0003b	56		 push	 esi
  0003c	0f 57 c0	 xorps	 xmm0, xmm0
  0003f	f3 0f 2a c0	 cvtsi2ss xmm0, eax
  00043	8b 45 08	 mov	 eax, DWORD PTR _nXPos$[ebp]
  00046	6a 08		 push	 8
  00048	05 81 00 00 00	 add	 eax, 129		; 00000081H
  0004d	51		 push	 ecx
  0004e	51		 push	 ecx
  0004f	0f 57 c9	 xorps	 xmm1, xmm1
  00052	f3 0f 2a c8	 cvtsi2ss xmm1, eax
  00056	8b 01		 mov	 eax, DWORD PTR [ecx]
  00058	f3 0f 11 44 24
	04		 movss	 DWORD PTR [esp+4], xmm0
  0005e	f3 0f 11 45 0c	 movss	 DWORD PTR tv181[ebp], xmm0
  00063	f3 0f 11 4d 08	 movss	 DWORD PTR tv183[ebp], xmm1
  00068	f3 0f 11 0c 24	 movss	 DWORD PTR [esp], xmm1
  0006d	ff 10		 call	 DWORD PTR [eax]

; 84   : 	m_pIcon->Render( nXPos+ICON_X, nYPos+ICON_Y, UI_RENDER_NORMAL, TFO_BILINEAR );	

  0006f	8b 8f 60 01 00
	00		 mov	 ecx, DWORD PTR [edi+352]
  00075	f3 0f 10 45 0c	 movss	 xmm0, DWORD PTR tv181[ebp]
  0007a	8b 01		 mov	 eax, DWORD PTR [ecx]
  0007c	56		 push	 esi
  0007d	56		 push	 esi
  0007e	6a 01		 push	 1
  00080	56		 push	 esi
  00081	51		 push	 ecx
  00082	51		 push	 ecx
  00083	f3 0f 11 44 24
	04		 movss	 DWORD PTR [esp+4], xmm0
  00089	f3 0f 10 45 08	 movss	 xmm0, DWORD PTR tv183[ebp]
  0008e	f3 0f 11 04 24	 movss	 DWORD PTR [esp], xmm0
  00093	ff 10		 call	 DWORD PTR [eax]
$LN1@RenderIcon:
  00095	5f		 pop	 edi
  00096	5e		 pop	 esi

; 85   : }

  00097	5d		 pop	 ebp
  00098	c2 08 00	 ret	 8
?RenderIcon@PetResellResultWnd@@IAEXHH@Z ENDP		; PetResellResultWnd::RenderIcon
_TEXT	ENDS
PUBLIC	__real@3f19999a
PUBLIC	__real@3f59999a
PUBLIC	??_C@_0CE@JGNMDKEB@PetResellResultWnd?3?3SetResellRes@ ; `string'
PUBLIC	??_C@_00CNPNBAHC@?$AA@				; `string'
PUBLIC	?SetResellResult@PetResellResultWnd@@QAEXHHH@Z	; PetResellResultWnd::SetResellResult
EXTRN	__imp_??1ioHashString@@QAE@XZ:PROC
EXTRN	__imp_?ShowWnd@ioWnd@@QAEXXZ:PROC
EXTRN	__imp_?CreateImageByFullName@ioUIImageSetManager@@QAEPAVioUIRenderImage@@ABVioHashString@@_N@Z:PROC
EXTRN	__imp_?GetSingleton@ioUIImageSetManager@@SAAAV1@XZ:PROC
EXTRN	?GetPetIcon@ioPetInfoManager@@QAE?AVioHashString@@HW4PetRankType@@@Z:PROC ; ioPetInfoManager::GetPetIcon
EXTRN	?AddTextPiece@ioComplexStringPrinter@@QAEXMPBD0@Z:PROC ; ioComplexStringPrinter::AddTextPiece
EXTRN	?AddTextPiece@ioComplexStringPrinter@@QAEXMPBDH00@Z:PROC ; ioComplexStringPrinter::AddTextPiece
EXTRN	__imp_?GetString@ioStringManager@@QAEPADPBD0HW4FileNamePrefix@1@@Z:PROC
EXTRN	__imp_?GetSingleton@ioStringManager@@SAAAV1@XZ:PROC
EXTRN	__imp_?c_str@ioHashString@@QBEPBDXZ:PROC
EXTRN	?SetTextColor@ioComplexStringPrinter@@QAEXK@Z:PROC ; ioComplexStringPrinter::SetTextColor
EXTRN	?SetBkColor@ioComplexStringPrinter@@QAEXHHH@Z:PROC ; ioComplexStringPrinter::SetBkColor
EXTRN	?SetTextStyle@ioComplexStringPrinter@@QAEXW4TextStyle@@@Z:PROC ; ioComplexStringPrinter::SetTextStyle
EXTRN	?ClearList@ioComplexStringPrinter@@QAEXXZ:PROC	; ioComplexStringPrinter::ClearList
EXTRN	?ConvertNumToStrComma@Help@@YAXHPADH@Z:PROC	; Help::ConvertNumToStrComma
EXTRN	?GetResellPeso@ioPetInfoManager@@QAEHXZ:PROC	; ioPetInfoManager::GetResellPeso
EXTRN	__imp_?IsEmpty@ioHashString@@QBE_NXZ:PROC
EXTRN	?GetRankName@ioPetInfoManager@@QAE?AVioHashString@@H@Z:PROC ; ioPetInfoManager::GetRankName
EXTRN	?GetPetName@ioPetInfoManager@@QAE?AVioHashString@@HW4PetRankType@@@Z:PROC ; ioPetInfoManager::GetPetName
EXTRN	?GetSingleton@ioPetInfoManager@@SAAAV1@XZ:PROC	; ioPetInfoManager::GetSingleton
EXTRN	__EH_epilog3_GS:PROC
EXTRN	__EH_prolog3_GS:PROC
EXTRN	_memset:PROC
;	COMDAT __real@3f19999a
CONST	SEGMENT
__real@3f19999a DD 03f19999ar			; 0.6
CONST	ENDS
;	COMDAT __real@3f59999a
CONST	SEGMENT
__real@3f59999a DD 03f59999ar			; 0.85
CONST	ENDS
;	COMDAT ??_C@_0CE@JGNMDKEB@PetResellResultWnd?3?3SetResellRes@
CONST	SEGMENT
??_C@_0CE@JGNMDKEB@PetResellResultWnd?3?3SetResellRes@ DB 'PetResellResul'
	DB	'tWnd::SetResellResult', 00H			; `string'
CONST	ENDS
;	COMDAT ??_C@_00CNPNBAHC@?$AA@
CONST	SEGMENT
??_C@_00CNPNBAHC@?$AA@ DB 00H				; `string'
CONST	ENDS
;	COMDAT xdata$x
xdata$x	SEGMENT
__unwindtable$?SetResellResult@PetResellResultWnd@@QAEXHHH@Z DD 0ffffffffH
	DD	FLAT:__unwindfunclet$?SetResellResult@PetResellResultWnd@@QAEXHHH@Z$0
	DD	00H
	DD	FLAT:__unwindfunclet$?SetResellResult@PetResellResultWnd@@QAEXHHH@Z$1
	DD	01H
	DD	FLAT:__unwindfunclet$?SetResellResult@PetResellResultWnd@@QAEXHHH@Z$2
__ehfuncinfo$?SetResellResult@PetResellResultWnd@@QAEXHHH@Z DD 019930522H
	DD	03H
	DD	FLAT:__unwindtable$?SetResellResult@PetResellResultWnd@@QAEXHHH@Z
	DD	2 DUP(00H)
	DD	2 DUP(00H)
	DD	00H
	DD	01H
; Function compile flags: /Ogsp
xdata$x	ENDS
;	COMDAT ?SetResellResult@PetResellResultWnd@@QAEXHHH@Z
_TEXT	SEGMENT
_szPetIcon$ = -324					; size = 16
_szPetRank$ = -308					; size = 16
_szPetName$ = -292					; size = 16
_szConvertNum$ = -276					; size = 260
__$EHRec$ = -12						; size = 12
_nPetCode$ = 8						; size = 4
_nPetRank$ = 12						; size = 4
_nPetLevel$ = 16					; size = 4
?SetResellResult@PetResellResultWnd@@QAEXHHH@Z PROC	; PetResellResultWnd::SetResellResult, COMDAT
; _this$ = ecx

; 131  : {

  00000	68 38 01 00 00	 push	 312			; 00000138H
  00005	b8 00 00 00 00	 mov	 eax, __ehhandler$?SetResellResult@PetResellResultWnd@@QAEXHHH@Z
  0000a	e8 00 00 00 00	 call	 __EH_prolog3_GS
  0000f	8b f1		 mov	 esi, ecx

; 132  : 	if ( nPetCode <= 0 || nPetRank <= 0 )

  00011	8b 4d 08	 mov	 ecx, DWORD PTR _nPetCode$[ebp]
  00014	33 db		 xor	 ebx, ebx
  00016	3b cb		 cmp	 ecx, ebx
  00018	0f 8e 43 03 00
	00		 jle	 $LN5@SetResellR
  0001e	8b 45 0c	 mov	 eax, DWORD PTR _nPetRank$[ebp]
  00021	3b c3		 cmp	 eax, ebx
  00023	0f 8e 38 03 00
	00		 jle	 $LN5@SetResellR

; 133  : 		return;
; 134  : 
; 135  : 	m_nPetCode = nPetCode;
; 136  : 	m_nPetRank = nPetRank;
; 137  : 	m_nPetLevel = nPetLevel;

  00029	8b 55 10	 mov	 edx, DWORD PTR _nPetLevel$[ebp]

; 138  : 
; 139  : 	ioHashString szPetName = g_PetInfoMgr.GetPetName( m_nPetCode, (PetRankType)m_nPetRank );

  0002c	50		 push	 eax
  0002d	89 86 6c 01 00
	00		 mov	 DWORD PTR [esi+364], eax
  00033	51		 push	 ecx
  00034	8d 85 dc fe ff
	ff		 lea	 eax, DWORD PTR _szPetName$[ebp]
  0003a	50		 push	 eax
  0003b	89 8e 68 01 00
	00		 mov	 DWORD PTR [esi+360], ecx
  00041	89 96 70 01 00
	00		 mov	 DWORD PTR [esi+368], edx
  00047	e8 00 00 00 00	 call	 ?GetSingleton@ioPetInfoManager@@SAAAV1@XZ ; ioPetInfoManager::GetSingleton
  0004c	8b c8		 mov	 ecx, eax
  0004e	e8 00 00 00 00	 call	 ?GetPetName@ioPetInfoManager@@QAE?AVioHashString@@HW4PetRankType@@@Z ; ioPetInfoManager::GetPetName

; 140  : 	ioHashString szPetRank = g_PetInfoMgr.GetRankName( m_nPetRank );

  00053	ff b6 6c 01 00
	00		 push	 DWORD PTR [esi+364]
  00059	8d 85 cc fe ff
	ff		 lea	 eax, DWORD PTR _szPetRank$[ebp]
  0005f	50		 push	 eax
  00060	89 5d fc	 mov	 DWORD PTR __$EHRec$[ebp+8], ebx
  00063	e8 00 00 00 00	 call	 ?GetSingleton@ioPetInfoManager@@SAAAV1@XZ ; ioPetInfoManager::GetSingleton
  00068	8b c8		 mov	 ecx, eax
  0006a	e8 00 00 00 00	 call	 ?GetRankName@ioPetInfoManager@@QAE?AVioHashString@@H@Z ; ioPetInfoManager::GetRankName

; 141  : 	if ( szPetName.IsEmpty() || szPetRank.IsEmpty() )

  0006f	8d 8d dc fe ff
	ff		 lea	 ecx, DWORD PTR _szPetName$[ebp]
  00075	c6 45 fc 01	 mov	 BYTE PTR __$EHRec$[ebp+8], 1
  00079	ff 15 00 00 00
	00		 call	 DWORD PTR __imp_?IsEmpty@ioHashString@@QBE_NXZ
  0007f	84 c0		 test	 al, al
  00081	0f 85 bd 02 00
	00		 jne	 $LN3@SetResellR
  00087	8d 8d cc fe ff
	ff		 lea	 ecx, DWORD PTR _szPetRank$[ebp]
  0008d	ff 15 00 00 00
	00		 call	 DWORD PTR __imp_?IsEmpty@ioHashString@@QBE_NXZ
  00093	84 c0		 test	 al, al
  00095	0f 85 a9 02 00
	00		 jne	 $LN3@SetResellR

; 143  : 	
; 144  : 	int nResellPeso = g_PetInfoMgr.GetResellPeso();

  0009b	e8 00 00 00 00	 call	 ?GetSingleton@ioPetInfoManager@@SAAAV1@XZ ; ioPetInfoManager::GetSingleton
  000a0	8b c8		 mov	 ecx, eax
  000a2	e8 00 00 00 00	 call	 ?GetResellPeso@ioPetInfoManager@@QAEHXZ ; ioPetInfoManager::GetResellPeso

; 145  : 
; 146  : 	char szConvertNum[MAX_PATH] = "";

  000a7	68 03 01 00 00	 push	 259			; 00000103H
  000ac	8b f8		 mov	 edi, eax
  000ae	8d 85 ed fe ff
	ff		 lea	 eax, DWORD PTR _szConvertNum$[ebp+1]
  000b4	53		 push	 ebx
  000b5	50		 push	 eax
  000b6	88 9d ec fe ff
	ff		 mov	 BYTE PTR _szConvertNum$[ebp], bl
  000bc	e8 00 00 00 00	 call	 _memset

; 147  : 	Help::ConvertNumToStrComma( nResellPeso, szConvertNum, sizeof( szConvertNum ) );

  000c1	68 04 01 00 00	 push	 260			; 00000104H
  000c6	8d 85 ec fe ff
	ff		 lea	 eax, DWORD PTR _szConvertNum$[ebp]
  000cc	50		 push	 eax
  000cd	57		 push	 edi
  000ce	e8 00 00 00 00	 call	 ?ConvertNumToStrComma@Help@@YAXHPADH@Z ; Help::ConvertNumToStrComma
  000d3	83 c4 18	 add	 esp, 24			; 00000018H

; 148  : 
; 149  : 	m_Title[0].ClearList();

  000d6	8d 8e 74 01 00
	00		 lea	 ecx, DWORD PTR [esi+372]
  000dc	e8 00 00 00 00	 call	 ?ClearList@ioComplexStringPrinter@@QAEXXZ ; ioComplexStringPrinter::ClearList

; 150  : 	m_Title[0].SetTextStyle( TS_NORMAL );

  000e1	53		 push	 ebx
  000e2	8d 8e 74 01 00
	00		 lea	 ecx, DWORD PTR [esi+372]
  000e8	e8 00 00 00 00	 call	 ?SetTextStyle@ioComplexStringPrinter@@QAEXW4TextStyle@@@Z ; ioComplexStringPrinter::SetTextStyle

; 151  : 	m_Title[0].SetBkColor( 0, 0, 0 );	

  000ed	53		 push	 ebx
  000ee	53		 push	 ebx
  000ef	53		 push	 ebx
  000f0	8d 8e 74 01 00
	00		 lea	 ecx, DWORD PTR [esi+372]
  000f6	e8 00 00 00 00	 call	 ?SetBkColor@ioComplexStringPrinter@@QAEXHHH@Z ; ioComplexStringPrinter::SetBkColor

; 152  : 	m_Title[0].SetTextColor( TCT_DEFAULT_DARKGRAY );

  000fb	68 3a 3a 3a ff	 push	 -12961222		; ff3a3a3aH
  00100	8d 8e 74 01 00
	00		 lea	 ecx, DWORD PTR [esi+372]
  00106	e8 00 00 00 00	 call	 ?SetTextColor@ioComplexStringPrinter@@QAEXK@Z ; ioComplexStringPrinter::SetTextColor

; 153  : 	m_Title[0].AddTextPiece( FONT_SIZE_17, STR(1), m_nPetLevel, szPetName.c_str(), szPetRank.c_str() );

  0010b	8d 8d cc fe ff
	ff		 lea	 ecx, DWORD PTR _szPetRank$[ebp]
  00111	ff 15 00 00 00
	00		 call	 DWORD PTR __imp_?c_str@ioHashString@@QBEPBDXZ
  00117	50		 push	 eax
  00118	8d 8d dc fe ff
	ff		 lea	 ecx, DWORD PTR _szPetName$[ebp]
  0011e	ff 15 00 00 00
	00		 call	 DWORD PTR __imp_?c_str@ioHashString@@QBEPBDXZ
  00124	8b 3d 00 00 00
	00		 mov	 edi, DWORD PTR __imp_?GetSingleton@ioStringManager@@SAAAV1@XZ
  0012a	50		 push	 eax
  0012b	ff b6 70 01 00
	00		 push	 DWORD PTR [esi+368]
  00131	53		 push	 ebx
  00132	6a 01		 push	 1
  00134	68 00 00 00 00	 push	 OFFSET ??_C@_00CNPNBAHC@?$AA@
  00139	68 00 00 00 00	 push	 OFFSET ??_C@_0CE@JGNMDKEB@PetResellResultWnd?3?3SetResellRes@
  0013e	ff d7		 call	 edi
  00140	8b c8		 mov	 ecx, eax
  00142	ff 15 00 00 00
	00		 call	 DWORD PTR __imp_?GetString@ioStringManager@@QAEPADPBD0HW4FileNamePrefix@1@@Z
  00148	f3 0f 10 05 00
	00 00 00	 movss	 xmm0, DWORD PTR __real@3f59999a
  00150	50		 push	 eax
  00151	51		 push	 ecx
  00152	8d 8e 74 01 00
	00		 lea	 ecx, DWORD PTR [esi+372]
  00158	f3 0f 11 04 24	 movss	 DWORD PTR [esp], xmm0
  0015d	e8 00 00 00 00	 call	 ?AddTextPiece@ioComplexStringPrinter@@QAEXMPBDH00@Z ; ioComplexStringPrinter::AddTextPiece

; 154  : 
; 155  : 	m_Title[1].ClearList();

  00162	8d 8e 94 01 00
	00		 lea	 ecx, DWORD PTR [esi+404]
  00168	e8 00 00 00 00	 call	 ?ClearList@ioComplexStringPrinter@@QAEXXZ ; ioComplexStringPrinter::ClearList

; 156  : 	m_Title[1].SetTextStyle( TS_NORMAL );

  0016d	53		 push	 ebx
  0016e	8d 8e 94 01 00
	00		 lea	 ecx, DWORD PTR [esi+404]
  00174	e8 00 00 00 00	 call	 ?SetTextStyle@ioComplexStringPrinter@@QAEXW4TextStyle@@@Z ; ioComplexStringPrinter::SetTextStyle

; 157  : 	m_Title[1].SetBkColor( 0, 0, 0 );

  00179	53		 push	 ebx
  0017a	53		 push	 ebx
  0017b	53		 push	 ebx
  0017c	8d 8e 94 01 00
	00		 lea	 ecx, DWORD PTR [esi+404]
  00182	e8 00 00 00 00	 call	 ?SetBkColor@ioComplexStringPrinter@@QAEXHHH@Z ; ioComplexStringPrinter::SetBkColor

; 158  : 	m_Title[1].SetTextColor( TCT_DEFAULT_DARKGRAY );

  00187	68 3a 3a 3a ff	 push	 -12961222		; ff3a3a3aH
  0018c	8d 8e 94 01 00
	00		 lea	 ecx, DWORD PTR [esi+404]
  00192	e8 00 00 00 00	 call	 ?SetTextColor@ioComplexStringPrinter@@QAEXK@Z ; ioComplexStringPrinter::SetTextColor

; 159  : 	m_Title[1].AddTextPiece( FONT_SIZE_17, STR(2), szConvertNum );

  00197	8d 85 ec fe ff
	ff		 lea	 eax, DWORD PTR _szConvertNum$[ebp]
  0019d	50		 push	 eax
  0019e	53		 push	 ebx
  0019f	6a 02		 push	 2
  001a1	68 00 00 00 00	 push	 OFFSET ??_C@_00CNPNBAHC@?$AA@
  001a6	68 00 00 00 00	 push	 OFFSET ??_C@_0CE@JGNMDKEB@PetResellResultWnd?3?3SetResellRes@
  001ab	ff d7		 call	 edi
  001ad	8b c8		 mov	 ecx, eax
  001af	ff 15 00 00 00
	00		 call	 DWORD PTR __imp_?GetString@ioStringManager@@QAEPADPBD0HW4FileNamePrefix@1@@Z
  001b5	f3 0f 10 05 00
	00 00 00	 movss	 xmm0, DWORD PTR __real@3f59999a
  001bd	50		 push	 eax
  001be	51		 push	 ecx
  001bf	8d 8e 94 01 00
	00		 lea	 ecx, DWORD PTR [esi+404]
  001c5	f3 0f 11 04 24	 movss	 DWORD PTR [esp], xmm0
  001ca	e8 00 00 00 00	 call	 ?AddTextPiece@ioComplexStringPrinter@@QAEXMPBD0@Z ; ioComplexStringPrinter::AddTextPiece

; 160  : 
; 161  : 	m_Desc[0].ClearList();

  001cf	8d 8e b4 01 00
	00		 lea	 ecx, DWORD PTR [esi+436]
  001d5	e8 00 00 00 00	 call	 ?ClearList@ioComplexStringPrinter@@QAEXXZ ; ioComplexStringPrinter::ClearList

; 162  : 	m_Desc[0].SetTextStyle( TS_NORMAL );

  001da	53		 push	 ebx
  001db	8d 8e b4 01 00
	00		 lea	 ecx, DWORD PTR [esi+436]
  001e1	e8 00 00 00 00	 call	 ?SetTextStyle@ioComplexStringPrinter@@QAEXW4TextStyle@@@Z ; ioComplexStringPrinter::SetTextStyle

; 163  : 	m_Desc[0].SetBkColor( 0, 0, 0 );	

  001e6	53		 push	 ebx
  001e7	53		 push	 ebx
  001e8	53		 push	 ebx
  001e9	8d 8e b4 01 00
	00		 lea	 ecx, DWORD PTR [esi+436]
  001ef	e8 00 00 00 00	 call	 ?SetBkColor@ioComplexStringPrinter@@QAEXHHH@Z ; ioComplexStringPrinter::SetBkColor

; 164  : 	m_Desc[0].SetTextColor( TCT_DEFAULT_DARKGRAY );

  001f4	68 3a 3a 3a ff	 push	 -12961222		; ff3a3a3aH
  001f9	8d 8e b4 01 00
	00		 lea	 ecx, DWORD PTR [esi+436]
  001ff	e8 00 00 00 00	 call	 ?SetTextColor@ioComplexStringPrinter@@QAEXK@Z ; ioComplexStringPrinter::SetTextColor

; 165  : 	m_Desc[0].AddTextPiece( FONT_SIZE_12, STR(3),  m_nPetLevel, szPetName.c_str(), szPetRank.c_str() );

  00204	8d 8d cc fe ff
	ff		 lea	 ecx, DWORD PTR _szPetRank$[ebp]
  0020a	ff 15 00 00 00
	00		 call	 DWORD PTR __imp_?c_str@ioHashString@@QBEPBDXZ
  00210	50		 push	 eax
  00211	8d 8d dc fe ff
	ff		 lea	 ecx, DWORD PTR _szPetName$[ebp]
  00217	ff 15 00 00 00
	00		 call	 DWORD PTR __imp_?c_str@ioHashString@@QBEPBDXZ
  0021d	50		 push	 eax
  0021e	ff b6 70 01 00
	00		 push	 DWORD PTR [esi+368]
  00224	53		 push	 ebx
  00225	6a 03		 push	 3
  00227	68 00 00 00 00	 push	 OFFSET ??_C@_00CNPNBAHC@?$AA@
  0022c	68 00 00 00 00	 push	 OFFSET ??_C@_0CE@JGNMDKEB@PetResellResultWnd?3?3SetResellRes@
  00231	ff d7		 call	 edi
  00233	8b c8		 mov	 ecx, eax
  00235	ff 15 00 00 00
	00		 call	 DWORD PTR __imp_?GetString@ioStringManager@@QAEPADPBD0HW4FileNamePrefix@1@@Z
  0023b	f3 0f 10 05 00
	00 00 00	 movss	 xmm0, DWORD PTR __real@3f19999a
  00243	50		 push	 eax
  00244	51		 push	 ecx
  00245	8d 8e b4 01 00
	00		 lea	 ecx, DWORD PTR [esi+436]
  0024b	f3 0f 11 04 24	 movss	 DWORD PTR [esp], xmm0
  00250	e8 00 00 00 00	 call	 ?AddTextPiece@ioComplexStringPrinter@@QAEXMPBDH00@Z ; ioComplexStringPrinter::AddTextPiece

; 166  : 
; 167  : 	m_Desc[1].ClearList();

  00255	8d 8e d4 01 00
	00		 lea	 ecx, DWORD PTR [esi+468]
  0025b	e8 00 00 00 00	 call	 ?ClearList@ioComplexStringPrinter@@QAEXXZ ; ioComplexStringPrinter::ClearList

; 168  : 	m_Desc[1].SetTextStyle( TS_NORMAL );

  00260	53		 push	 ebx
  00261	8d 8e d4 01 00
	00		 lea	 ecx, DWORD PTR [esi+468]
  00267	e8 00 00 00 00	 call	 ?SetTextStyle@ioComplexStringPrinter@@QAEXW4TextStyle@@@Z ; ioComplexStringPrinter::SetTextStyle

; 169  : 	m_Desc[1].SetBkColor( 0, 0, 0 );

  0026c	53		 push	 ebx
  0026d	53		 push	 ebx
  0026e	53		 push	 ebx
  0026f	8d 8e d4 01 00
	00		 lea	 ecx, DWORD PTR [esi+468]
  00275	e8 00 00 00 00	 call	 ?SetBkColor@ioComplexStringPrinter@@QAEXHHH@Z ; ioComplexStringPrinter::SetBkColor

; 170  : 	m_Desc[1].SetTextColor( TCT_DEFAULT_DARKGRAY );

  0027a	68 3a 3a 3a ff	 push	 -12961222		; ff3a3a3aH
  0027f	8d 8e d4 01 00
	00		 lea	 ecx, DWORD PTR [esi+468]
  00285	e8 00 00 00 00	 call	 ?SetTextColor@ioComplexStringPrinter@@QAEXK@Z ; ioComplexStringPrinter::SetTextColor

; 171  : 	m_Desc[1].AddTextPiece( FONT_SIZE_12, STR(4), szConvertNum );

  0028a	8d 85 ec fe ff
	ff		 lea	 eax, DWORD PTR _szConvertNum$[ebp]
  00290	50		 push	 eax
  00291	53		 push	 ebx
  00292	6a 04		 push	 4
  00294	68 00 00 00 00	 push	 OFFSET ??_C@_00CNPNBAHC@?$AA@
  00299	68 00 00 00 00	 push	 OFFSET ??_C@_0CE@JGNMDKEB@PetResellResultWnd?3?3SetResellRes@
  0029e	ff d7		 call	 edi
  002a0	8b c8		 mov	 ecx, eax
  002a2	ff 15 00 00 00
	00		 call	 DWORD PTR __imp_?GetString@ioStringManager@@QAEPADPBD0HW4FileNamePrefix@1@@Z
  002a8	f3 0f 10 05 00
	00 00 00	 movss	 xmm0, DWORD PTR __real@3f19999a
  002b0	50		 push	 eax
  002b1	51		 push	 ecx
  002b2	8d 8e d4 01 00
	00		 lea	 ecx, DWORD PTR [esi+468]
  002b8	f3 0f 11 04 24	 movss	 DWORD PTR [esp], xmm0
  002bd	e8 00 00 00 00	 call	 ?AddTextPiece@ioComplexStringPrinter@@QAEXMPBD0@Z ; ioComplexStringPrinter::AddTextPiece

; 172  : 
; 173  : 	ioHashString szPetIcon = g_PetInfoMgr.GetPetIcon( m_nPetCode, (PetRankType)m_nPetRank );

  002c2	ff b6 6c 01 00
	00		 push	 DWORD PTR [esi+364]
  002c8	8d 85 bc fe ff
	ff		 lea	 eax, DWORD PTR _szPetIcon$[ebp]
  002ce	ff b6 68 01 00
	00		 push	 DWORD PTR [esi+360]
  002d4	50		 push	 eax
  002d5	e8 00 00 00 00	 call	 ?GetSingleton@ioPetInfoManager@@SAAAV1@XZ ; ioPetInfoManager::GetSingleton
  002da	8b c8		 mov	 ecx, eax
  002dc	e8 00 00 00 00	 call	 ?GetPetIcon@ioPetInfoManager@@QAE?AVioHashString@@HW4PetRankType@@@Z ; ioPetInfoManager::GetPetIcon

; 174  : 	if ( !szPetIcon.IsEmpty() )

  002e1	8d 8d bc fe ff
	ff		 lea	 ecx, DWORD PTR _szPetIcon$[ebp]
  002e7	c6 45 fc 02	 mov	 BYTE PTR __$EHRec$[ebp+8], 2
  002eb	ff 15 00 00 00
	00		 call	 DWORD PTR __imp_?IsEmpty@ioHashString@@QBE_NXZ
  002f1	84 c0		 test	 al, al
  002f3	75 33		 jne	 SHORT $LN2@SetResellR

; 175  : 	{
; 176  : 		SAFEDELETE( m_pIcon );

  002f5	8b 8e 60 01 00
	00		 mov	 ecx, DWORD PTR [esi+352]
  002fb	3b cb		 cmp	 ecx, ebx
  002fd	74 0d		 je	 SHORT $LN1@SetResellR
  002ff	8b 01		 mov	 eax, DWORD PTR [ecx]
  00301	6a 01		 push	 1
  00303	ff 50 40	 call	 DWORD PTR [eax+64]
  00306	89 9e 60 01 00
	00		 mov	 DWORD PTR [esi+352], ebx
$LN1@SetResellR:

; 177  : 		m_pIcon = g_UIImageSetMgr.CreateImageByFullName( szPetIcon );

  0030c	8d 85 bc fe ff
	ff		 lea	 eax, DWORD PTR _szPetIcon$[ebp]
  00312	53		 push	 ebx
  00313	50		 push	 eax
  00314	ff 15 00 00 00
	00		 call	 DWORD PTR __imp_?GetSingleton@ioUIImageSetManager@@SAAAV1@XZ
  0031a	8b c8		 mov	 ecx, eax
  0031c	ff 15 00 00 00
	00		 call	 DWORD PTR __imp_?CreateImageByFullName@ioUIImageSetManager@@QAEPAVioUIRenderImage@@ABVioHashString@@_N@Z
  00322	89 86 60 01 00
	00		 mov	 DWORD PTR [esi+352], eax
$LN2@SetResellR:

; 178  : 	}
; 179  : 
; 180  : 	ShowWnd();

  00328	8b ce		 mov	 ecx, esi
  0032a	ff 15 00 00 00
	00		 call	 DWORD PTR __imp_?ShowWnd@ioWnd@@QAEXXZ

; 181  : }

  00330	8b 35 00 00 00
	00		 mov	 esi, DWORD PTR __imp_??1ioHashString@@QAE@XZ
  00336	8d 8d bc fe ff
	ff		 lea	 ecx, DWORD PTR _szPetIcon$[ebp]
  0033c	c6 45 fc 01	 mov	 BYTE PTR __$EHRec$[ebp+8], 1
  00340	ff d6		 call	 esi
  00342	eb 06		 jmp	 SHORT $LN15@SetResellR
$LN3@SetResellR:

; 142  : 		return;

  00344	8b 35 00 00 00
	00		 mov	 esi, DWORD PTR __imp_??1ioHashString@@QAE@XZ
$LN15@SetResellR:
  0034a	8d 8d cc fe ff
	ff		 lea	 ecx, DWORD PTR _szPetRank$[ebp]
  00350	88 5d fc	 mov	 BYTE PTR __$EHRec$[ebp+8], bl
  00353	ff d6		 call	 esi
  00355	83 4d fc ff	 or	 DWORD PTR __$EHRec$[ebp+8], -1
  00359	8d 8d dc fe ff
	ff		 lea	 ecx, DWORD PTR _szPetName$[ebp]
  0035f	ff d6		 call	 esi
$LN5@SetResellR:

; 181  : }

  00361	e8 00 00 00 00	 call	 __EH_epilog3_GS
  00366	c2 0c 00	 ret	 12			; 0000000cH
_TEXT	ENDS
;	COMDAT text$x
text$x	SEGMENT
__unwindfunclet$?SetResellResult@PetResellResultWnd@@QAEXHHH@Z$0:
  00000	8d 8d dc fe ff
	ff		 lea	 ecx, DWORD PTR _szPetName$[ebp]
  00006	ff 25 00 00 00
	00		 jmp	 DWORD PTR __imp_??1ioHashString@@QAE@XZ
__unwindfunclet$?SetResellResult@PetResellResultWnd@@QAEXHHH@Z$1:
  0000c	8d 8d cc fe ff
	ff		 lea	 ecx, DWORD PTR _szPetRank$[ebp]
  00012	ff 25 00 00 00
	00		 jmp	 DWORD PTR __imp_??1ioHashString@@QAE@XZ
__unwindfunclet$?SetResellResult@PetResellResultWnd@@QAEXHHH@Z$2:
  00018	8d 8d bc fe ff
	ff		 lea	 ecx, DWORD PTR _szPetIcon$[ebp]
  0001e	ff 25 00 00 00
	00		 jmp	 DWORD PTR __imp_??1ioHashString@@QAE@XZ
__ehhandler$?SetResellResult@PetResellResultWnd@@QAEXHHH@Z:
  00024	8b 54 24 08	 mov	 edx, DWORD PTR [esp+8]
  00028	8d 42 0c	 lea	 eax, DWORD PTR [edx+12]
  0002b	8b 8a b8 fe ff
	ff		 mov	 ecx, DWORD PTR [edx-328]
  00031	33 c8		 xor	 ecx, eax
  00033	e8 00 00 00 00	 call	 @__security_check_cookie@4
  00038	8b 4a fc	 mov	 ecx, DWORD PTR [edx-4]
  0003b	33 c8		 xor	 ecx, eax
  0003d	e8 00 00 00 00	 call	 @__security_check_cookie@4
  00042	b8 00 00 00 00	 mov	 eax, OFFSET __ehfuncinfo$?SetResellResult@PetResellResultWnd@@QAEXHHH@Z
  00047	e9 00 00 00 00	 jmp	 ___CxxFrameHandler3
text$x	ENDS
?SetResellResult@PetResellResultWnd@@QAEXHHH@Z ENDP	; PetResellResultWnd::SetResellResult
PUBLIC	?_DECSTR@@YAXPADH@Z				; _DECSTR
; Function compile flags: /Ogsp
; File d:\lost saga for developer\youtube\tutorial\source\src\lsclient\stringprotect.h
;	COMDAT ?_DECSTR@@YAXPADH@Z
_TEXT	SEGMENT
_s$ = 8							; size = 4
_l$ = 12						; size = 4
?_DECSTR@@YAXPADH@Z PROC				; _DECSTR, COMDAT

; 40   : __forceinline void _DECSTR(char* s, int l){int i=0,l4=(l-1)/4,*p=(int*)s;s[l-1]=0;for(;i<l4;++i)*(p++)^=0xEAEBECED;for(i=l4*4;i<l-1;++i)s[i]^=0xED-i%4;}

  00000	55		 push	 ebp
  00001	8b ec		 mov	 ebp, esp
  00003	8b 4d 0c	 mov	 ecx, DWORD PTR _l$[ebp]
  00006	56		 push	 esi
  00007	8b 75 08	 mov	 esi, DWORD PTR _s$[ebp]
  0000a	57		 push	 edi
  0000b	8d 79 ff	 lea	 edi, DWORD PTR [ecx-1]
  0000e	8b c7		 mov	 eax, edi
  00010	99		 cdq
  00011	83 e2 03	 and	 edx, 3
  00014	03 c2		 add	 eax, edx
  00016	c1 f8 02	 sar	 eax, 2
  00019	8b d6		 mov	 edx, esi
  0001b	c6 44 0e ff 00	 mov	 BYTE PTR [esi+ecx-1], 0
  00020	85 c0		 test	 eax, eax
  00022	7e 0e		 jle	 SHORT $LN4@DECSTR
  00024	8b c8		 mov	 ecx, eax
$LL6@DECSTR:
  00026	81 32 ed ec eb
	ea		 xor	 DWORD PTR [edx], -353637139 ; eaebecedH
  0002c	83 c2 04	 add	 edx, 4
  0002f	49		 dec	 ecx
  00030	75 f4		 jne	 SHORT $LL6@DECSTR
$LN4@DECSTR:
  00032	c1 e0 02	 shl	 eax, 2
  00035	eb 17		 jmp	 SHORT $LN14@DECSTR
$LL3@DECSTR:
  00037	8b c8		 mov	 ecx, eax
  00039	81 e1 03 00 00
	80		 and	 ecx, -2147483645	; 80000003H
  0003f	79 05		 jns	 SHORT $LN13@DECSTR
  00041	49		 dec	 ecx
  00042	83 c9 fc	 or	 ecx, -4			; fffffffcH
  00045	41		 inc	 ecx
$LN13@DECSTR:
  00046	b2 ed		 mov	 dl, -19			; ffffffedH
  00048	2a d1		 sub	 dl, cl
  0004a	30 14 30	 xor	 BYTE PTR [eax+esi], dl
  0004d	40		 inc	 eax
$LN14@DECSTR:
  0004e	3b c7		 cmp	 eax, edi
  00050	7c e5		 jl	 SHORT $LL3@DECSTR
  00052	5f		 pop	 edi
  00053	5e		 pop	 esi
  00054	5d		 pop	 ebp
  00055	c3		 ret	 0
?_DECSTR@@YAXPADH@Z ENDP				; _DECSTR
_TEXT	ENDS
PUBLIC	?empty@?$vector@UtagTextPiece@ioComplexStringPrinter@@V?$allocator@UtagTextPiece@ioComplexStringPrinter@@@std@@@std@@QBE_NXZ ; std::vector<ioComplexStringPrinter::tagTextPiece,std::allocator<ioComplexStringPrinter::tagTextPiece> >::empty
; Function compile flags: /Ogsp
; File c:\program files (x86)\microsoft visual studio 10.0\vc\include\vector
;	COMDAT ?empty@?$vector@UtagTextPiece@ioComplexStringPrinter@@V?$allocator@UtagTextPiece@ioComplexStringPrinter@@@std@@@std@@QBE_NXZ
_TEXT	SEGMENT
?empty@?$vector@UtagTextPiece@ioComplexStringPrinter@@V?$allocator@UtagTextPiece@ioComplexStringPrinter@@@std@@@std@@QBE_NXZ PROC ; std::vector<ioComplexStringPrinter::tagTextPiece,std::allocator<ioComplexStringPrinter::tagTextPiece> >::empty, COMDAT
; _this$ = ecx

; 889  : 		return (this->_Myfirst == this->_Mylast);

  00000	8b 01		 mov	 eax, DWORD PTR [ecx]
  00002	2b 41 04	 sub	 eax, DWORD PTR [ecx+4]
  00005	f7 d8		 neg	 eax
  00007	1b c0		 sbb	 eax, eax
  00009	40		 inc	 eax

; 890  : 		}

  0000a	c3		 ret	 0
?empty@?$vector@UtagTextPiece@ioComplexStringPrinter@@V?$allocator@UtagTextPiece@ioComplexStringPrinter@@@std@@@std@@QBE_NXZ ENDP ; std::vector<ioComplexStringPrinter::tagTextPiece,std::allocator<ioComplexStringPrinter::tagTextPiece> >::empty
_TEXT	ENDS
EXTRN	??3@YAXPAX@Z:PROC				; operator delete
; Function compile flags: /Ogsp
;	COMDAT ??_GPetResellResultWnd@@UAEPAXI@Z
_TEXT	SEGMENT
___flags$ = 8						; size = 4
??_GPetResellResultWnd@@UAEPAXI@Z PROC			; PetResellResultWnd::`scalar deleting destructor', COMDAT
; _this$ = ecx
  00000	55		 push	 ebp
  00001	8b ec		 mov	 ebp, esp
  00003	56		 push	 esi
  00004	8b f1		 mov	 esi, ecx
  00006	e8 00 00 00 00	 call	 ??1PetResellResultWnd@@UAE@XZ ; PetResellResultWnd::~PetResellResultWnd
  0000b	f6 45 08 01	 test	 BYTE PTR ___flags$[ebp], 1
  0000f	74 07		 je	 SHORT $LN1@scalar
  00011	56		 push	 esi
  00012	e8 00 00 00 00	 call	 ??3@YAXPAX@Z		; operator delete
  00017	59		 pop	 ecx
$LN1@scalar:
  00018	8b c6		 mov	 eax, esi
  0001a	5e		 pop	 esi
  0001b	5d		 pop	 ebp
  0001c	c2 04 00	 ret	 4
??_GPetResellResultWnd@@UAEPAXI@Z ENDP			; PetResellResultWnd::`scalar deleting destructor'
_TEXT	ENDS
PUBLIC	__$ArrayPad$
PUBLIC	??$?8$0M@@@YA_NABVioHashString@@AAY0M@$$CBD@Z	; operator==<12>
EXTRN	___security_cookie:DWORD
; Function compile flags: /Ogsp
; File d:\lost saga for developer\youtube\tutorial\source\src\io3dengine\iohashstring.h
;	COMDAT ??$?8$0M@@@YA_NABVioHashString@@AAY0M@$$CBD@Z
_TEXT	SEGMENT
__t$ = -20						; size = 12
__$ArrayPad$ = -4					; size = 4
_lhs$ = 8						; size = 4
_t$ = 12						; size = 4
??$?8$0M@@@YA_NABVioHashString@@AAY0M@$$CBD@Z PROC	; operator==<12>, COMDAT

; 146  : {

  00000	55		 push	 ebp
  00001	8b ec		 mov	 ebp, esp
  00003	83 ec 14	 sub	 esp, 20			; 00000014H
  00006	a1 00 00 00 00	 mov	 eax, DWORD PTR ___security_cookie
  0000b	33 c5		 xor	 eax, ebp
  0000d	89 45 fc	 mov	 DWORD PTR __$ArrayPad$[ebp], eax
  00010	8b 45 0c	 mov	 eax, DWORD PTR _t$[ebp]

; 147  : 	_ENCSTR(t, _t); return ( strcmp( lhs.c_str(), _t ) == 0 );

  00013	8a 10		 mov	 dl, BYTE PTR [eax]
  00015	56		 push	 esi
  00016	57		 push	 edi
  00017	8b 7d 08	 mov	 edi, DWORD PTR _lhs$[ebp]
  0001a	84 d2		 test	 dl, dl
  0001c	0f 84 32 01 00
	00		 je	 $LN96@operator
  00022	80 f2 ed	 xor	 dl, -19			; ffffffedH
  00025	88 55 ec	 mov	 BYTE PTR __t$[ebp], dl
  00028	8a 50 01	 mov	 dl, BYTE PTR [eax+1]
  0002b	84 d2		 test	 dl, dl
  0002d	0f 84 1b 01 00
	00		 je	 $LN95@operator
  00033	80 f2 ec	 xor	 dl, -20			; ffffffecH
  00036	88 55 ed	 mov	 BYTE PTR __t$[ebp+1], dl
  00039	8a 50 02	 mov	 dl, BYTE PTR [eax+2]
  0003c	84 d2		 test	 dl, dl
  0003e	0f 84 04 01 00
	00		 je	 $LN94@operator
  00044	b1 eb		 mov	 cl, -21			; ffffffebH
  00046	32 d1		 xor	 dl, cl
  00048	88 55 ee	 mov	 BYTE PTR __t$[ebp+2], dl
  0004b	8a 50 03	 mov	 dl, BYTE PTR [eax+3]
  0004e	84 d2		 test	 dl, dl
  00050	0f 84 ec 00 00
	00		 je	 $LN93@operator
  00056	80 f2 ea	 xor	 dl, -22			; ffffffeaH
  00059	88 55 ef	 mov	 BYTE PTR __t$[ebp+3], dl
  0005c	8a 50 04	 mov	 dl, BYTE PTR [eax+4]
  0005f	84 d2		 test	 dl, dl
  00061	0f 84 d5 00 00
	00		 je	 $LN92@operator
  00067	80 f2 ed	 xor	 dl, -19			; ffffffedH
  0006a	88 55 f0	 mov	 BYTE PTR __t$[ebp+4], dl
  0006d	8a 50 05	 mov	 dl, BYTE PTR [eax+5]
  00070	84 d2		 test	 dl, dl
  00072	0f 84 be 00 00
	00		 je	 $LN91@operator
  00078	80 f2 ec	 xor	 dl, -20			; ffffffecH
  0007b	88 55 f1	 mov	 BYTE PTR __t$[ebp+5], dl
  0007e	8a 50 06	 mov	 dl, BYTE PTR [eax+6]
  00081	84 d2		 test	 dl, dl
  00083	0f 84 a8 00 00
	00		 je	 $LN90@operator
  00089	32 d1		 xor	 dl, cl
  0008b	88 55 f2	 mov	 BYTE PTR __t$[ebp+6], dl
  0008e	8a 50 07	 mov	 dl, BYTE PTR [eax+7]
  00091	84 d2		 test	 dl, dl
  00093	0f 84 92 00 00
	00		 je	 $LN89@operator
  00099	80 f2 ea	 xor	 dl, -22			; ffffffeaH
  0009c	88 55 f3	 mov	 BYTE PTR __t$[ebp+7], dl
  0009f	8a 50 08	 mov	 dl, BYTE PTR [eax+8]
  000a2	84 d2		 test	 dl, dl
  000a4	74 7f		 je	 SHORT $LN88@operator
  000a6	80 f2 ed	 xor	 dl, -19			; ffffffedH
  000a9	88 55 f4	 mov	 BYTE PTR __t$[ebp+8], dl
  000ac	8a 50 09	 mov	 dl, BYTE PTR [eax+9]
  000af	84 d2		 test	 dl, dl
  000b1	74 6c		 je	 SHORT $LN87@operator
  000b3	80 f2 ec	 xor	 dl, -20			; ffffffecH
  000b6	88 55 f5	 mov	 BYTE PTR __t$[ebp+9], dl
  000b9	8a 50 0a	 mov	 dl, BYTE PTR [eax+10]
  000bc	84 d2		 test	 dl, dl
  000be	74 5a		 je	 SHORT $LN86@operator
  000c0	32 d1		 xor	 dl, cl
  000c2	80 78 0b 00	 cmp	 BYTE PTR [eax+11], 0
  000c6	88 55 f6	 mov	 BYTE PTR __t$[ebp+10], dl
  000c9	0f 84 89 00 00
	00		 je	 $LN1@operator
  000cf	8a 50 0c	 mov	 dl, BYTE PTR [eax+12]
  000d2	84 d2		 test	 dl, dl
  000d4	74 3e		 je	 SHORT $LN84@operator
  000d6	80 f2 ed	 xor	 dl, -19			; ffffffedH
  000d9	88 55 f8	 mov	 BYTE PTR __t$[ebp+12], dl
  000dc	8a 50 0d	 mov	 dl, BYTE PTR [eax+13]
  000df	84 d2		 test	 dl, dl
  000e1	74 2b		 je	 SHORT $LN83@operator
  000e3	80 f2 ec	 xor	 dl, -20			; ffffffecH
  000e6	88 55 f9	 mov	 BYTE PTR __t$[ebp+13], dl
  000e9	8a 50 0e	 mov	 dl, BYTE PTR [eax+14]
  000ec	84 d2		 test	 dl, dl
  000ee	74 19		 je	 SHORT $LN82@operator
  000f0	8a 40 0f	 mov	 al, BYTE PTR [eax+15]
  000f3	32 d1		 xor	 dl, cl
  000f5	88 55 fa	 mov	 BYTE PTR __t$[ebp+14], dl
  000f8	84 c0		 test	 al, al
  000fa	74 07		 je	 SHORT $LN81@operator
  000fc	34 ea		 xor	 al, -22			; ffffffeaH
  000fe	88 45 fb	 mov	 BYTE PTR __t$[ebp+15], al
  00101	eb 55		 jmp	 SHORT $LN1@operator
$LN81@operator:
  00103	c6 45 fb ea	 mov	 BYTE PTR __t$[ebp+15], -22 ; ffffffeaH
  00107	eb 4f		 jmp	 SHORT $LN1@operator
$LN82@operator:
  00109	88 4d fa	 mov	 BYTE PTR __t$[ebp+14], cl
  0010c	eb 4a		 jmp	 SHORT $LN1@operator
$LN83@operator:
  0010e	c6 45 f9 ec	 mov	 BYTE PTR __t$[ebp+13], -20 ; ffffffecH
  00112	eb 44		 jmp	 SHORT $LN1@operator
$LN84@operator:
  00114	c6 45 f8 ed	 mov	 BYTE PTR __t$[ebp+12], -19 ; ffffffedH
  00118	eb 3e		 jmp	 SHORT $LN1@operator
$LN86@operator:
  0011a	88 4d f6	 mov	 BYTE PTR __t$[ebp+10], cl
  0011d	eb 39		 jmp	 SHORT $LN1@operator
$LN87@operator:
  0011f	c6 45 f5 ec	 mov	 BYTE PTR __t$[ebp+9], -20 ; ffffffecH
  00123	eb 33		 jmp	 SHORT $LN1@operator
$LN88@operator:
  00125	c6 45 f4 ed	 mov	 BYTE PTR __t$[ebp+8], -19 ; ffffffedH
  00129	eb 2d		 jmp	 SHORT $LN1@operator
$LN89@operator:
  0012b	c6 45 f3 ea	 mov	 BYTE PTR __t$[ebp+7], -22 ; ffffffeaH
  0012f	eb 27		 jmp	 SHORT $LN1@operator
$LN90@operator:
  00131	88 4d f2	 mov	 BYTE PTR __t$[ebp+6], cl
  00134	eb 22		 jmp	 SHORT $LN1@operator
$LN91@operator:
  00136	c6 45 f1 ec	 mov	 BYTE PTR __t$[ebp+5], -20 ; ffffffecH
  0013a	eb 1c		 jmp	 SHORT $LN1@operator
$LN92@operator:
  0013c	c6 45 f0 ed	 mov	 BYTE PTR __t$[ebp+4], -19 ; ffffffedH
  00140	eb 16		 jmp	 SHORT $LN1@operator
$LN93@operator:
  00142	c6 45 ef ea	 mov	 BYTE PTR __t$[ebp+3], -22 ; ffffffeaH
  00146	eb 10		 jmp	 SHORT $LN1@operator
$LN94@operator:
  00148	c6 45 ee eb	 mov	 BYTE PTR __t$[ebp+2], -21 ; ffffffebH
  0014c	eb 0a		 jmp	 SHORT $LN1@operator
$LN95@operator:
  0014e	c6 45 ed ec	 mov	 BYTE PTR __t$[ebp+1], -20 ; ffffffecH
  00152	eb 04		 jmp	 SHORT $LN1@operator
$LN96@operator:
  00154	c6 45 ec ed	 mov	 BYTE PTR __t$[ebp], -19	; ffffffedH
$LN1@operator:
  00158	6a 02		 push	 2
  0015a	8d 45 ec	 lea	 eax, DWORD PTR __t$[ebp]
  0015d	c6 45 f7 00	 mov	 BYTE PTR __t$[ebp+11], 0
  00161	5a		 pop	 edx
$LL104@operator:
  00162	81 30 ed ec eb
	ea		 xor	 DWORD PTR [eax], -353637139 ; eaebecedH
  00168	83 c0 04	 add	 eax, 4
  0016b	4a		 dec	 edx
  0016c	75 f4		 jne	 SHORT $LL104@operator
  0016e	6a 08		 push	 8
  00170	58		 pop	 eax
$LL101@operator:
  00171	8b c8		 mov	 ecx, eax
  00173	81 e1 03 00 00
	80		 and	 ecx, -2147483645	; 80000003H
  00179	79 05		 jns	 SHORT $LN115@operator
  0017b	49		 dec	 ecx
  0017c	83 c9 fc	 or	 ecx, -4			; fffffffcH
  0017f	41		 inc	 ecx
$LN115@operator:
  00180	b2 ed		 mov	 dl, -19			; ffffffedH
  00182	2a d1		 sub	 dl, cl
  00184	30 54 05 ec	 xor	 BYTE PTR __t$[ebp+eax], dl
  00188	40		 inc	 eax
  00189	83 f8 0b	 cmp	 eax, 11			; 0000000bH
  0018c	7c e3		 jl	 SHORT $LL101@operator
  0018e	8b cf		 mov	 ecx, edi
  00190	8d 75 ec	 lea	 esi, DWORD PTR __t$[ebp]
  00193	ff 15 00 00 00
	00		 call	 DWORD PTR __imp_?c_str@ioHashString@@QBEPBDXZ
$LL111@operator:
  00199	8a 08		 mov	 cl, BYTE PTR [eax]
  0019b	3a 0e		 cmp	 cl, BYTE PTR [esi]
  0019d	75 1a		 jne	 SHORT $LN112@operator
  0019f	84 c9		 test	 cl, cl
  001a1	74 12		 je	 SHORT $LN113@operator
  001a3	8a 48 01	 mov	 cl, BYTE PTR [eax+1]
  001a6	3a 4e 01	 cmp	 cl, BYTE PTR [esi+1]
  001a9	75 0e		 jne	 SHORT $LN112@operator
  001ab	83 c0 02	 add	 eax, 2
  001ae	83 c6 02	 add	 esi, 2
  001b1	84 c9		 test	 cl, cl
  001b3	75 e4		 jne	 SHORT $LL111@operator
$LN113@operator:
  001b5	33 c0		 xor	 eax, eax
  001b7	eb 05		 jmp	 SHORT $LN114@operator
$LN112@operator:
  001b9	1b c0		 sbb	 eax, eax
  001bb	83 d8 ff	 sbb	 eax, -1
$LN114@operator:
  001be	33 c9		 xor	 ecx, ecx
  001c0	85 c0		 test	 eax, eax
  001c2	0f 94 c0	 sete	 al

; 148  : }

  001c5	8b 4d fc	 mov	 ecx, DWORD PTR __$ArrayPad$[ebp]
  001c8	5f		 pop	 edi
  001c9	33 cd		 xor	 ecx, ebp
  001cb	5e		 pop	 esi
  001cc	e8 00 00 00 00	 call	 @__security_check_cookie@4
  001d1	c9		 leave
  001d2	c3		 ret	 0
??$?8$0M@@@YA_NABVioHashString@@AAY0M@$$CBD@Z ENDP	; operator==<12>
_TEXT	ENDS
PUBLIC	?IsEmpty@ioComplexStringPrinter@@QBE_NXZ	; ioComplexStringPrinter::IsEmpty
; Function compile flags: /Ogsp
; File d:\lost saga for developer\youtube\tutorial\source\src\lsclient\iocomplexstringprinter.h
;	COMDAT ?IsEmpty@ioComplexStringPrinter@@QBE_NXZ
_TEXT	SEGMENT
?IsEmpty@ioComplexStringPrinter@@QBE_NXZ PROC		; ioComplexStringPrinter::IsEmpty, COMDAT
; _this$ = ecx

; 124  : 	inline bool IsEmpty() const { return m_vPieceList.empty(); }

  00000	8b 41 0c	 mov	 eax, DWORD PTR [ecx+12]
  00003	2b 41 10	 sub	 eax, DWORD PTR [ecx+16]
  00006	f7 d8		 neg	 eax
  00008	1b c0		 sbb	 eax, eax
  0000a	40		 inc	 eax
  0000b	c3		 ret	 0
?IsEmpty@ioComplexStringPrinter@@QBE_NXZ ENDP		; ioComplexStringPrinter::IsEmpty
_TEXT	ENDS
PUBLIC	_this$GSCopy$
PUBLIC	__$ArrayPad$
EXTRN	__imp_?AddRenderImage@ioWnd@@UAEXABVioHashString@@PAVioUIRenderImage@@@Z:PROC
; Function compile flags: /Ogsp
; File d:\lost saga for developer\youtube\tutorial\source\src\lsclient\gui\petresellresultwnd.cpp
;	COMDAT ?AddRenderImage@PetResellResultWnd@@UAEXABVioHashString@@PAVioUIRenderImage@@@Z
_TEXT	SEGMENT
_this$GSCopy$ = -24					; size = 4
__t$505869 = -20					; size = 12
__$ArrayPad$ = -4					; size = 4
_szType$ = 8						; size = 4
_pImage$ = 12						; size = 4
?AddRenderImage@PetResellResultWnd@@UAEXABVioHashString@@PAVioUIRenderImage@@@Z PROC ; PetResellResultWnd::AddRenderImage, COMDAT
; _this$ = ecx

; 46   : {

  00000	55		 push	 ebp
  00001	8b ec		 mov	 ebp, esp
  00003	83 ec 18	 sub	 esp, 24			; 00000018H
  00006	a1 00 00 00 00	 mov	 eax, DWORD PTR ___security_cookie
  0000b	33 c5		 xor	 eax, ebp
  0000d	89 45 fc	 mov	 DWORD PTR __$ArrayPad$[ebp], eax
  00010	53		 push	 ebx
  00011	8b 5d 0c	 mov	 ebx, DWORD PTR _pImage$[ebp]
  00014	56		 push	 esi
  00015	57		 push	 edi
  00016	8b 7d 08	 mov	 edi, DWORD PTR _szType$[ebp]

; 47   : 	if( szType == "back_effect" )

  00019	6a 02		 push	 2
  0001b	89 4d e8	 mov	 DWORD PTR _this$GSCopy$[ebp], ecx
  0001e	c7 45 ec 8f 8d
	88 81		 mov	 DWORD PTR __t$505869[ebp], -2121757297 ; 81888d8fH
  00025	c7 45 f0 b2 89
	8d 8c		 mov	 DWORD PTR __t$505869[ebp+4], -1936881230 ; 8c8d89b2H
  0002c	8d 45 ec	 lea	 eax, DWORD PTR __t$505869[ebp]
  0002f	c7 45 f4 88 8f
	9f 00		 mov	 DWORD PTR __t$505869[ebp+8], 10456968 ; 009f8f88H
  00036	59		 pop	 ecx
$LL111@AddRenderI:
  00037	81 30 ed ec eb
	ea		 xor	 DWORD PTR [eax], -353637139 ; eaebecedH
  0003d	83 c0 04	 add	 eax, 4
  00040	49		 dec	 ecx
  00041	75 f4		 jne	 SHORT $LL111@AddRenderI
  00043	6a 08		 push	 8
  00045	58		 pop	 eax
$LL108@AddRenderI:
  00046	8b c8		 mov	 ecx, eax
  00048	81 e1 03 00 00
	80		 and	 ecx, -2147483645	; 80000003H
  0004e	79 05		 jns	 SHORT $LN122@AddRenderI
  00050	49		 dec	 ecx
  00051	83 c9 fc	 or	 ecx, -4			; fffffffcH
  00054	41		 inc	 ecx
$LN122@AddRenderI:
  00055	b2 ed		 mov	 dl, -19			; ffffffedH
  00057	2a d1		 sub	 dl, cl
  00059	30 54 05 ec	 xor	 BYTE PTR __t$505869[ebp+eax], dl
  0005d	40		 inc	 eax
  0005e	83 f8 0b	 cmp	 eax, 11			; 0000000bH
  00061	7c e3		 jl	 SHORT $LL108@AddRenderI
  00063	8b cf		 mov	 ecx, edi
  00065	8d 75 ec	 lea	 esi, DWORD PTR __t$505869[ebp]
  00068	ff 15 00 00 00
	00		 call	 DWORD PTR __imp_?c_str@ioHashString@@QBEPBDXZ
$LL118@AddRenderI:
  0006e	8a 08		 mov	 cl, BYTE PTR [eax]
  00070	3a 0e		 cmp	 cl, BYTE PTR [esi]
  00072	75 1a		 jne	 SHORT $LN119@AddRenderI
  00074	84 c9		 test	 cl, cl
  00076	74 12		 je	 SHORT $LN120@AddRenderI
  00078	8a 48 01	 mov	 cl, BYTE PTR [eax+1]
  0007b	3a 4e 01	 cmp	 cl, BYTE PTR [esi+1]
  0007e	75 0e		 jne	 SHORT $LN119@AddRenderI
  00080	83 c0 02	 add	 eax, 2
  00083	83 c6 02	 add	 esi, 2
  00086	84 c9		 test	 cl, cl
  00088	75 e4		 jne	 SHORT $LL118@AddRenderI
$LN120@AddRenderI:
  0008a	33 c0		 xor	 eax, eax
  0008c	eb 05		 jmp	 SHORT $LN121@AddRenderI
$LN119@AddRenderI:
  0008e	1b c0		 sbb	 eax, eax
  00090	83 d8 ff	 sbb	 eax, -1
$LN121@AddRenderI:
  00093	85 c0		 test	 eax, eax
  00095	75 23		 jne	 SHORT $LN3@AddRenderI

; 48   : 	{
; 49   : 		SAFEDELETE( m_pBackEffect );

  00097	8b 75 e8	 mov	 esi, DWORD PTR _this$GSCopy$[ebp]
  0009a	8b 8e 64 01 00
	00		 mov	 ecx, DWORD PTR [esi+356]
  000a0	85 c9		 test	 ecx, ecx
  000a2	74 0e		 je	 SHORT $LN2@AddRenderI
  000a4	8b 01		 mov	 eax, DWORD PTR [ecx]
  000a6	6a 01		 push	 1
  000a8	ff 50 40	 call	 DWORD PTR [eax+64]
  000ab	83 a6 64 01 00
	00 00		 and	 DWORD PTR [esi+356], 0
$LN2@AddRenderI:

; 50   : 		m_pBackEffect = pImage;

  000b2	89 9e 64 01 00
	00		 mov	 DWORD PTR [esi+356], ebx

; 51   : 	}
; 52   : 	else

  000b8	eb 0b		 jmp	 SHORT $LN1@AddRenderI
$LN3@AddRenderI:

; 53   : 		ioWnd::AddRenderImage( szType, pImage );

  000ba	8b 4d e8	 mov	 ecx, DWORD PTR _this$GSCopy$[ebp]
  000bd	53		 push	 ebx
  000be	57		 push	 edi
  000bf	ff 15 00 00 00
	00		 call	 DWORD PTR __imp_?AddRenderImage@ioWnd@@UAEXABVioHashString@@PAVioUIRenderImage@@@Z
$LN1@AddRenderI:

; 54   : }

  000c5	8b 4d fc	 mov	 ecx, DWORD PTR __$ArrayPad$[ebp]
  000c8	5f		 pop	 edi
  000c9	5e		 pop	 esi
  000ca	33 cd		 xor	 ecx, ebp
  000cc	5b		 pop	 ebx
  000cd	e8 00 00 00 00	 call	 @__security_check_cookie@4
  000d2	c9		 leave
  000d3	c2 08 00	 ret	 8
?AddRenderImage@PetResellResultWnd@@UAEXABVioHashString@@PAVioUIRenderImage@@@Z ENDP ; PetResellResultWnd::AddRenderImage
_TEXT	ENDS
PUBLIC	??_C@_0BP@CANHIGOA@PetResellResultWnd?3?3RenderDesc?$AA@ ; `string'
PUBLIC	?RenderDesc@PetResellResultWnd@@IAEXHH@Z	; PetResellResultWnd::RenderDesc
EXTRN	__imp_?PrintText@ioFontManager@@QAAXMMMPBDZZ:PROC
EXTRN	__imp_?SetTextColor@ioFontManager@@QAEXK@Z:PROC
EXTRN	__imp_?SetBkColor@ioFontManager@@QAEXHHH@Z:PROC
EXTRN	__imp_?SetAlignType@ioFontManager@@QAEXW4TextAlignType@@@Z:PROC
EXTRN	__imp_?SetTextStyle@ioFontManager@@QAEXW4TextStyle@@@Z:PROC
EXTRN	__imp_?GetSingleton@ioFontManager@@SAAAV1@XZ:PROC
EXTRN	?PrintFullText@ioComplexStringPrinter@@QAEXMMW4TextAlignType@@E@Z:PROC ; ioComplexStringPrinter::PrintFullText
;	COMDAT ??_C@_0BP@CANHIGOA@PetResellResultWnd?3?3RenderDesc?$AA@
; File c:\program files (x86)\microsoft visual studio 10.0\vc\include\vector
CONST	SEGMENT
??_C@_0BP@CANHIGOA@PetResellResultWnd?3?3RenderDesc?$AA@ DB 'PetResellRes'
	DB	'ultWnd::RenderDesc', 00H			; `string'
; Function compile flags: /Ogsp
; File d:\lost saga for developer\youtube\tutorial\source\src\lsclient\gui\petresellresultwnd.cpp
CONST	ENDS
;	COMDAT ?RenderDesc@PetResellResultWnd@@IAEXHH@Z
_TEXT	SEGMENT
tv466 = -8						; size = 4
tv177 = -8						; size = 4
tv322 = -4						; size = 4
tv434 = 8						; size = 4
_nXPos$ = 8						; size = 4
_nYPos$ = 12						; size = 4
?RenderDesc@PetResellResultWnd@@IAEXHH@Z PROC		; PetResellResultWnd::RenderDesc, COMDAT
; _this$ = ecx

; 88   : {

  00000	55		 push	 ebp
  00001	8b ec		 mov	 ebp, esp
  00003	51		 push	 ecx
  00004	51		 push	 ecx

; 89   : 	enum
; 90   : 	{
; 91   : 		DESC_BIG_X	= 129,
; 92   : 		DESC_BIG_Y	= 152,
; 93   : 
; 94   : 		DESC_X		= 27,
; 95   : 		DESC_Y		= 206,
; 96   : 
; 97   : 		FINAL_DESC_X	= 128,
; 98   : 		FINAL_DESC_Y	= 421,
; 99   : 
; 100  : 		MAX_DESC = 2,
; 101  : 	};
; 102  : 
; 103  : 	// Title
; 104  : 	for( int i=0; i < MAX_DESC; ++i )

  00005	8b 45 0c	 mov	 eax, DWORD PTR _nYPos$[ebp]
  00008	53		 push	 ebx
  00009	56		 push	 esi
  0000a	8b d9		 mov	 ebx, ecx
  0000c	05 98 00 00 00	 add	 eax, 152		; 00000098H
  00011	57		 push	 edi
  00012	8b 7d 08	 mov	 edi, DWORD PTR _nXPos$[ebp]
  00015	89 45 fc	 mov	 DWORD PTR tv322[ebp], eax
  00018	8d b3 80 01 00
	00		 lea	 esi, DWORD PTR [ebx+384]
  0001e	c7 45 f8 02 00
	00 00		 mov	 DWORD PTR tv177[ebp], 2
$LL8@RenderDesc:

; 105  : 	{
; 106  : 		if( m_Title[i].IsEmpty() )

  00025	8b 06		 mov	 eax, DWORD PTR [esi]
  00027	3b 46 04	 cmp	 eax, DWORD PTR [esi+4]
  0002a	74 31		 je	 SHORT $LN7@RenderDesc

; 107  : 			continue;
; 108  : 
; 109  : 		m_Title[i].PrintFullText( nXPos+DESC_BIG_X, nYPos+DESC_BIG_Y+(i*23), TAT_CENTER );

  0002c	66 0f 6e 45 fc	 movd	 xmm0, DWORD PTR tv322[ebp]
  00031	68 ff 00 00 00	 push	 255			; 000000ffH
  00036	6a 01		 push	 1
  00038	51		 push	 ecx
  00039	51		 push	 ecx
  0003a	0f 5b c0	 cvtdq2ps xmm0, xmm0
  0003d	f3 0f 11 44 24
	04		 movss	 DWORD PTR [esp+4], xmm0
  00043	8d 87 81 00 00
	00		 lea	 eax, DWORD PTR [edi+129]
  00049	0f 57 c0	 xorps	 xmm0, xmm0
  0004c	f3 0f 2a c0	 cvtsi2ss xmm0, eax
  00050	8d 4e f4	 lea	 ecx, DWORD PTR [esi-12]
  00053	f3 0f 11 04 24	 movss	 DWORD PTR [esp], xmm0
  00058	e8 00 00 00 00	 call	 ?PrintFullText@ioComplexStringPrinter@@QAEXMMW4TextAlignType@@E@Z ; ioComplexStringPrinter::PrintFullText
$LN7@RenderDesc:

; 89   : 	enum
; 90   : 	{
; 91   : 		DESC_BIG_X	= 129,
; 92   : 		DESC_BIG_Y	= 152,
; 93   : 
; 94   : 		DESC_X		= 27,
; 95   : 		DESC_Y		= 206,
; 96   : 
; 97   : 		FINAL_DESC_X	= 128,
; 98   : 		FINAL_DESC_Y	= 421,
; 99   : 
; 100  : 		MAX_DESC = 2,
; 101  : 	};
; 102  : 
; 103  : 	// Title
; 104  : 	for( int i=0; i < MAX_DESC; ++i )

  0005d	83 45 fc 17	 add	 DWORD PTR tv322[ebp], 23 ; 00000017H
  00061	83 c6 20	 add	 esi, 32			; 00000020H
  00064	ff 4d f8	 dec	 DWORD PTR tv177[ebp]
  00067	75 bc		 jne	 SHORT $LL8@RenderDesc

; 110  : 	}
; 111  : 
; 112  : 	// Desc
; 113  : 	for( int j=0; j < MAX_DESC; ++j )

  00069	8b 45 0c	 mov	 eax, DWORD PTR _nYPos$[ebp]
  0006c	05 ce 00 00 00	 add	 eax, 206		; 000000ceH
  00071	8d b3 c0 01 00
	00		 lea	 esi, DWORD PTR [ebx+448]
  00077	89 45 08	 mov	 DWORD PTR tv434[ebp], eax
  0007a	c7 45 f8 02 00
	00 00		 mov	 DWORD PTR tv466[ebp], 2
  00081	33 db		 xor	 ebx, ebx
$LL4@RenderDesc:

; 114  : 	{
; 115  : 		if( m_Desc[j].IsEmpty() )

  00083	8b 06		 mov	 eax, DWORD PTR [esi]
  00085	3b 46 04	 cmp	 eax, DWORD PTR [esi+4]
  00088	74 2d		 je	 SHORT $LN3@RenderDesc

; 116  : 			continue;
; 117  : 
; 118  : 		m_Desc[j].PrintFullText( nXPos+DESC_X, nYPos+DESC_Y+(j*18), TAT_LEFT );

  0008a	66 0f 6e 45 08	 movd	 xmm0, DWORD PTR tv434[ebp]
  0008f	68 ff 00 00 00	 push	 255			; 000000ffH
  00094	53		 push	 ebx
  00095	51		 push	 ecx
  00096	51		 push	 ecx
  00097	0f 5b c0	 cvtdq2ps xmm0, xmm0
  0009a	f3 0f 11 44 24
	04		 movss	 DWORD PTR [esp+4], xmm0
  000a0	8d 47 1b	 lea	 eax, DWORD PTR [edi+27]
  000a3	0f 57 c0	 xorps	 xmm0, xmm0
  000a6	f3 0f 2a c0	 cvtsi2ss xmm0, eax
  000aa	8d 4e f4	 lea	 ecx, DWORD PTR [esi-12]
  000ad	f3 0f 11 04 24	 movss	 DWORD PTR [esp], xmm0
  000b2	e8 00 00 00 00	 call	 ?PrintFullText@ioComplexStringPrinter@@QAEXMMW4TextAlignType@@E@Z ; ioComplexStringPrinter::PrintFullText
$LN3@RenderDesc:

; 110  : 	}
; 111  : 
; 112  : 	// Desc
; 113  : 	for( int j=0; j < MAX_DESC; ++j )

  000b7	83 45 08 12	 add	 DWORD PTR tv434[ebp], 18 ; 00000012H
  000bb	83 c6 20	 add	 esi, 32			; 00000020H
  000be	ff 4d f8	 dec	 DWORD PTR tv466[ebp]
  000c1	75 c0		 jne	 SHORT $LL4@RenderDesc

; 119  : 	}
; 120  : 
; 121  : 	g_FontMgr.SetTextStyle( TS_NORMAL );

  000c3	8b 35 00 00 00
	00		 mov	 esi, DWORD PTR __imp_?GetSingleton@ioFontManager@@SAAAV1@XZ
  000c9	53		 push	 ebx
  000ca	ff d6		 call	 esi
  000cc	8b c8		 mov	 ecx, eax
  000ce	ff 15 00 00 00
	00		 call	 DWORD PTR __imp_?SetTextStyle@ioFontManager@@QAEXW4TextStyle@@@Z

; 122  : 	g_FontMgr.SetAlignType( TAT_CENTER );

  000d4	6a 01		 push	 1
  000d6	ff d6		 call	 esi
  000d8	8b c8		 mov	 ecx, eax
  000da	ff 15 00 00 00
	00		 call	 DWORD PTR __imp_?SetAlignType@ioFontManager@@QAEXW4TextAlignType@@@Z

; 123  : 	g_FontMgr.SetBkColor( 0, 0, 0 );

  000e0	53		 push	 ebx
  000e1	53		 push	 ebx
  000e2	53		 push	 ebx
  000e3	ff d6		 call	 esi
  000e5	8b c8		 mov	 ecx, eax
  000e7	ff 15 00 00 00
	00		 call	 DWORD PTR __imp_?SetBkColor@ioFontManager@@QAEXHHH@Z

; 124  : 	g_FontMgr.SetTextColor( TCT_DEFAULT_GREEN );

  000ed	68 22 72 11 ff	 push	 -15633886		; ff117222H
  000f2	ff d6		 call	 esi
  000f4	8b c8		 mov	 ecx, eax
  000f6	ff 15 00 00 00
	00		 call	 DWORD PTR __imp_?SetTextColor@ioFontManager@@QAEXK@Z

; 125  : 	g_FontMgr.PrintText( nXPos+FINAL_DESC_X, nYPos+FINAL_DESC_Y, FONT_SIZE_17, STR(1) );

  000fc	53		 push	 ebx
  000fd	6a 01		 push	 1
  000ff	68 00 00 00 00	 push	 OFFSET ??_C@_00CNPNBAHC@?$AA@
  00104	68 00 00 00 00	 push	 OFFSET ??_C@_0BP@CANHIGOA@PetResellResultWnd?3?3RenderDesc?$AA@
  00109	ff 15 00 00 00
	00		 call	 DWORD PTR __imp_?GetSingleton@ioStringManager@@SAAAV1@XZ
  0010f	8b c8		 mov	 ecx, eax
  00111	ff 15 00 00 00
	00		 call	 DWORD PTR __imp_?GetString@ioStringManager@@QAEPADPBD0HW4FileNamePrefix@1@@Z
  00117	f3 0f 10 05 00
	00 00 00	 movss	 xmm0, DWORD PTR __real@3f59999a
  0011f	50		 push	 eax
  00120	8b 45 0c	 mov	 eax, DWORD PTR _nYPos$[ebp]
  00123	83 ec 0c	 sub	 esp, 12			; 0000000cH
  00126	f3 0f 11 44 24
	08		 movss	 DWORD PTR [esp+8], xmm0
  0012c	0f 57 c0	 xorps	 xmm0, xmm0
  0012f	05 a5 01 00 00	 add	 eax, 421		; 000001a5H
  00134	f3 0f 2a c0	 cvtsi2ss xmm0, eax
  00138	f3 0f 11 44 24
	04		 movss	 DWORD PTR [esp+4], xmm0
  0013e	83 ef 80	 sub	 edi, -128		; ffffff80H
  00141	0f 57 c0	 xorps	 xmm0, xmm0
  00144	f3 0f 2a c7	 cvtsi2ss xmm0, edi
  00148	f3 0f 11 04 24	 movss	 DWORD PTR [esp], xmm0
  0014d	ff d6		 call	 esi
  0014f	50		 push	 eax
  00150	ff 15 00 00 00
	00		 call	 DWORD PTR __imp_?PrintText@ioFontManager@@QAAXMMMPBDZZ
  00156	83 c4 14	 add	 esp, 20			; 00000014H
  00159	5f		 pop	 edi
  0015a	5e		 pop	 esi
  0015b	5b		 pop	 ebx

; 126  : }

  0015c	c9		 leave
  0015d	c2 08 00	 ret	 8
?RenderDesc@PetResellResultWnd@@IAEXHH@Z ENDP		; PetResellResultWnd::RenderDesc
_TEXT	ENDS
EXTRN	__imp_?GetDerivedPosY@ioWnd@@QBEHXZ:PROC
EXTRN	__imp_?GetDerivedPosX@ioWnd@@QBEHXZ:PROC
EXTRN	__imp_?OnRender@ioWnd@@MAEXXZ:PROC
; Function compile flags: /Ogsp
;	COMDAT ?OnRender@PetResellResultWnd@@MAEXXZ
_TEXT	SEGMENT
?OnRender@PetResellResultWnd@@MAEXXZ PROC		; PetResellResultWnd::OnRender, COMDAT
; _this$ = ecx

; 59   : {	

  00000	53		 push	 ebx
  00001	56		 push	 esi
  00002	57		 push	 edi
  00003	8b f1		 mov	 esi, ecx

; 60   : 	ioWnd::OnRender();

  00005	ff 15 00 00 00
	00		 call	 DWORD PTR __imp_?OnRender@ioWnd@@MAEXXZ

; 61   : 
; 62   : 	int nXPos = GetDerivedPosX();

  0000b	8b ce		 mov	 ecx, esi
  0000d	ff 15 00 00 00
	00		 call	 DWORD PTR __imp_?GetDerivedPosX@ioWnd@@QBEHXZ

; 63   : 	int nYPos = GetDerivedPosY();

  00013	8b ce		 mov	 ecx, esi
  00015	8b f8		 mov	 edi, eax
  00017	ff 15 00 00 00
	00		 call	 DWORD PTR __imp_?GetDerivedPosY@ioWnd@@QBEHXZ
  0001d	8b d8		 mov	 ebx, eax

; 64   : 	
; 65   : 	RenderIcon( nXPos, nYPos );

  0001f	53		 push	 ebx
  00020	57		 push	 edi
  00021	8b ce		 mov	 ecx, esi
  00023	e8 00 00 00 00	 call	 ?RenderIcon@PetResellResultWnd@@IAEXHH@Z ; PetResellResultWnd::RenderIcon

; 66   : 	RenderDesc( nXPos, nYPos );

  00028	53		 push	 ebx
  00029	57		 push	 edi
  0002a	8b ce		 mov	 ecx, esi
  0002c	e8 00 00 00 00	 call	 ?RenderDesc@PetResellResultWnd@@IAEXHH@Z ; PetResellResultWnd::RenderDesc
  00031	5f		 pop	 edi
  00032	5e		 pop	 esi
  00033	5b		 pop	 ebx

; 67   : }

  00034	c3		 ret	 0
?OnRender@PetResellResultWnd@@MAEXXZ ENDP		; PetResellResultWnd::OnRender
_TEXT	ENDS
END
